; Listing generated by Microsoft (R) Optimizing Compiler Version 16.00.30319.01 

	TITLE	D:\Lost Saga For Developer\Youtube\Tutorial\Source\src\LSClient\ioAngleFireSkill.cpp
	.686P
	.XMM
	include listing.inc
	.model	flat

INCLUDELIB MSVCRT
INCLUDELIB OLDNAMES

PUBLIC	?_EEM_DS@?$deque@UD3DXVECTOR3@@V?$allocator@UD3DXVECTOR3@@@std@@@std@@2HB ; std::deque<D3DXVECTOR3,std::allocator<D3DXVECTOR3> >::_EEM_DS
;	COMDAT ?_EEM_DS@?$deque@UD3DXVECTOR3@@V?$allocator@UD3DXVECTOR3@@@std@@@std@@2HB
CONST	SEGMENT
?_EEM_DS@?$deque@UD3DXVECTOR3@@V?$allocator@UD3DXVECTOR3@@@std@@@std@@2HB DD 01H ; std::deque<D3DXVECTOR3,std::allocator<D3DXVECTOR3> >::_EEM_DS
CONST	ENDS
PUBLIC	?return1@@YAIXZ					; return1
; Function compile flags: /Ogsp
; File d:\lost saga for developer\youtube\tutorial\source\src\lsclient\stdafx.h
;	COMDAT ?return1@@YAIXZ
_TEXT	SEGMENT
?return1@@YAIXZ PROC					; return1, COMDAT

; 17   : 	__forceinline unsigned int return1() { __asm mov eax, 1 };

  00000	b8 01 00 00 00	 mov	 eax, 1
  00005	c3		 ret	 0
?return1@@YAIXZ ENDP					; return1
_TEXT	ENDS
PUBLIC	?return90@@YAIXZ				; return90
; Function compile flags: /Ogsp
;	COMDAT ?return90@@YAIXZ
_TEXT	SEGMENT
?return90@@YAIXZ PROC					; return90, COMDAT

; 24   : 	__forceinline unsigned int return90() { __asm mov eax, 90 };

  00000	b8 5a 00 00 00	 mov	 eax, 90			; 0000005aH
  00005	c3		 ret	 0
?return90@@YAIXZ ENDP					; return90
_TEXT	ENDS
PUBLIC	?return100@@YAIXZ				; return100
; Function compile flags: /Ogsp
;	COMDAT ?return100@@YAIXZ
_TEXT	SEGMENT
?return100@@YAIXZ PROC					; return100, COMDAT

; 25   : 	__forceinline unsigned int return100() { __asm mov eax, 100 };

  00000	b8 64 00 00 00	 mov	 eax, 100		; 00000064H
  00005	c3		 ret	 0
?return100@@YAIXZ ENDP					; return100
_TEXT	ENDS
PUBLIC	?return360@@YAIXZ				; return360
; Function compile flags: /Ogsp
;	COMDAT ?return360@@YAIXZ
_TEXT	SEGMENT
?return360@@YAIXZ PROC					; return360, COMDAT

; 27   : 	__forceinline unsigned int return360() { __asm mov eax, 360 };

  00000	b8 68 01 00 00	 mov	 eax, 360		; 00000168H
  00005	c3		 ret	 0
?return360@@YAIXZ ENDP					; return360
_TEXT	ENDS
PUBLIC	_fabsf
EXTRN	__fltused:DWORD
; Function compile flags: /Ogsp
; File c:\program files (x86)\microsoft visual studio 10.0\vc\include\math.h
;	COMDAT _fabsf
_TEXT	SEGMENT
tv129 = 8						; size = 4
__X$ = 8						; size = 4
_fabsf	PROC						; COMDAT

; 395  :         {return ((float)fabs((double)_X)); }

  00000	55		 push	 ebp
  00001	8b ec		 mov	 ebp, esp
  00003	d9 45 08	 fld	 DWORD PTR __X$[ebp]
  00006	d9 e1		 fabs
  00008	d9 5d 08	 fstp	 DWORD PTR tv129[ebp]
  0000b	d9 45 08	 fld	 DWORD PTR tv129[ebp]
  0000e	5d		 pop	 ebp
  0000f	c3		 ret	 0
_fabsf	ENDP
_TEXT	ENDS
PUBLIC	_acosf
EXTRN	__CIacos:PROC
; Function compile flags: /Ogsp
;	COMDAT _acosf
_TEXT	SEGMENT
tv69 = 8						; size = 4
__X$ = 8						; size = 4
_acosf	PROC						; COMDAT

; 400  :         {return ((float)acos((double)_X)); }

  00000	55		 push	 ebp
  00001	8b ec		 mov	 ebp, esp
  00003	d9 45 08	 fld	 DWORD PTR __X$[ebp]
  00006	e8 00 00 00 00	 call	 __CIacos
  0000b	d9 5d 08	 fstp	 DWORD PTR tv69[ebp]
  0000e	d9 45 08	 fld	 DWORD PTR tv69[ebp]
  00011	5d		 pop	 ebp
  00012	c3		 ret	 0
_acosf	ENDP
_TEXT	ENDS
PUBLIC	?GetCharName@ioBaseChar@@QBEABVioHashString@@XZ	; ioBaseChar::GetCharName
; Function compile flags: /Ogsp
; File d:\lost saga for developer\youtube\tutorial\source\src\lsclient\iobasechar.h
;	COMDAT ?GetCharName@ioBaseChar@@QBEABVioHashString@@XZ
_TEXT	SEGMENT
?GetCharName@ioBaseChar@@QBEABVioHashString@@XZ PROC	; ioBaseChar::GetCharName, COMDAT
; _this$ = ecx

; 2594 : 	inline const ioHashString& GetCharName() const { return m_Name; }

  00000	8d 81 d4 02 00
	00		 lea	 eax, DWORD PTR [ecx+724]
  00006	c3		 ret	 0
?GetCharName@ioBaseChar@@QBEABVioHashString@@XZ ENDP	; ioBaseChar::GetCharName
_TEXT	ENDS
PUBLIC	?GetTargetRot@ioBaseChar@@QBEABUD3DXQUATERNION@@XZ ; ioBaseChar::GetTargetRot
; Function compile flags: /Ogsp
;	COMDAT ?GetTargetRot@ioBaseChar@@QBEABUD3DXQUATERNION@@XZ
_TEXT	SEGMENT
?GetTargetRot@ioBaseChar@@QBEABUD3DXQUATERNION@@XZ PROC	; ioBaseChar::GetTargetRot, COMDAT
; _this$ = ecx

; 2599 : 	inline const D3DXQUATERNION& GetTargetRot() const { return m_qtTargetRot; }

  00000	8d 81 a4 06 00
	00		 lea	 eax, DWORD PTR [ecx+1700]
  00006	c3		 ret	 0
?GetTargetRot@ioBaseChar@@QBEABUD3DXQUATERNION@@XZ ENDP	; ioBaseChar::GetTargetRot
_TEXT	ENDS
PUBLIC	?fabs@@YAMM@Z					; fabs
; Function compile flags: /Ogsp
; File c:\program files (x86)\microsoft visual studio 10.0\vc\include\math.h
;	COMDAT ?fabs@@YAMM@Z
_TEXT	SEGMENT
tv131 = 8						; size = 4
__X$ = 8						; size = 4
?fabs@@YAMM@Z PROC					; fabs, COMDAT

; 518  :         {return (fabsf(_X)); }

  00000	55		 push	 ebp
  00001	8b ec		 mov	 ebp, esp
  00003	d9 45 08	 fld	 DWORD PTR __X$[ebp]
  00006	d9 e1		 fabs
  00008	d9 5d 08	 fstp	 DWORD PTR tv131[ebp]
  0000b	d9 45 08	 fld	 DWORD PTR tv131[ebp]
  0000e	5d		 pop	 ebp
  0000f	c3		 ret	 0
?fabs@@YAMM@Z ENDP					; fabs
_TEXT	ENDS
PUBLIC	?SetCurJumpPowerAmt@ioBaseChar@@QAEXM@Z		; ioBaseChar::SetCurJumpPowerAmt
; Function compile flags: /Ogsp
; File d:\lost saga for developer\youtube\tutorial\source\src\lsclient\iobasechar.h
;	COMDAT ?SetCurJumpPowerAmt@ioBaseChar@@QAEXM@Z
_TEXT	SEGMENT
_fAmt$ = 8						; size = 4
?SetCurJumpPowerAmt@ioBaseChar@@QAEXM@Z PROC		; ioBaseChar::SetCurJumpPowerAmt, COMDAT
; _this$ = ecx

; 2628 : 	inline void SetCurJumpPowerAmt( float fAmt ) { m_fCurJumpPowerAmt = fAmt; }

  00000	55		 push	 ebp
  00001	8b ec		 mov	 ebp, esp
  00003	f3 0f 10 45 08	 movss	 xmm0, DWORD PTR _fAmt$[ebp]
  00008	f3 0f 11 81 90
	0e 00 00	 movss	 DWORD PTR [ecx+3728], xmm0
  00010	5d		 pop	 ebp
  00011	c2 04 00	 ret	 4
?SetCurJumpPowerAmt@ioBaseChar@@QAEXM@Z ENDP		; ioBaseChar::SetCurJumpPowerAmt
_TEXT	ENDS
PUBLIC	??_7bad_alloc@std@@6B@				; std::bad_alloc::`vftable'
PUBLIC	??0bad_alloc@std@@QAE@PBD@Z			; std::bad_alloc::bad_alloc
PUBLIC	??_R4bad_alloc@std@@6B@				; std::bad_alloc::`RTTI Complete Object Locator'
PUBLIC	??_R0?AVbad_alloc@std@@@8			; std::bad_alloc `RTTI Type Descriptor'
PUBLIC	??_R3bad_alloc@std@@8				; std::bad_alloc::`RTTI Class Hierarchy Descriptor'
PUBLIC	??_R2bad_alloc@std@@8				; std::bad_alloc::`RTTI Base Class Array'
PUBLIC	??_R1A@?0A@EA@bad_alloc@std@@8			; std::bad_alloc::`RTTI Base Class Descriptor at (0,-1,0,64)'
PUBLIC	??_R1A@?0A@EA@exception@std@@8			; std::exception::`RTTI Base Class Descriptor at (0,-1,0,64)'
PUBLIC	??_R0?AVexception@std@@@8			; std::exception `RTTI Type Descriptor'
PUBLIC	??_R3exception@std@@8				; std::exception::`RTTI Class Hierarchy Descriptor'
PUBLIC	??_R2exception@std@@8				; std::exception::`RTTI Base Class Array'
EXTRN	__imp_??0exception@std@@QAE@ABQBD@Z:PROC
EXTRN	??_7type_info@@6B@:QWORD			; type_info::`vftable'
EXTRN	??_Ebad_alloc@std@@UAEPAXI@Z:PROC		; std::bad_alloc::`vector deleting destructor'
EXTRN	?what@exception@std@@UBEPBDXZ:PROC		; std::exception::what
;	COMDAT ??_R2exception@std@@8
; File c:\program files (x86)\microsoft visual studio 10.0\vc\include\exception
rdata$r	SEGMENT
??_R2exception@std@@8 DD FLAT:??_R1A@?0A@EA@exception@std@@8 ; std::exception::`RTTI Base Class Array'
rdata$r	ENDS
;	COMDAT ??_R3exception@std@@8
rdata$r	SEGMENT
??_R3exception@std@@8 DD 00H				; std::exception::`RTTI Class Hierarchy Descriptor'
	DD	00H
	DD	01H
	DD	FLAT:??_R2exception@std@@8
rdata$r	ENDS
;	COMDAT ??_R0?AVexception@std@@@8
_DATA	SEGMENT
??_R0?AVexception@std@@@8 DD FLAT:??_7type_info@@6B@	; std::exception `RTTI Type Descriptor'
	DD	00H
	DB	'.?AVexception@std@@', 00H
_DATA	ENDS
;	COMDAT ??_R1A@?0A@EA@exception@std@@8
rdata$r	SEGMENT
??_R1A@?0A@EA@exception@std@@8 DD FLAT:??_R0?AVexception@std@@@8 ; std::exception::`RTTI Base Class Descriptor at (0,-1,0,64)'
	DD	00H
	DD	00H
	DD	0ffffffffH
	DD	00H
	DD	040H
	DD	FLAT:??_R3exception@std@@8
rdata$r	ENDS
;	COMDAT ??_R1A@?0A@EA@bad_alloc@std@@8
rdata$r	SEGMENT
??_R1A@?0A@EA@bad_alloc@std@@8 DD FLAT:??_R0?AVbad_alloc@std@@@8 ; std::bad_alloc::`RTTI Base Class Descriptor at (0,-1,0,64)'
	DD	01H
	DD	00H
	DD	0ffffffffH
	DD	00H
	DD	040H
	DD	FLAT:??_R3bad_alloc@std@@8
rdata$r	ENDS
;	COMDAT ??_R2bad_alloc@std@@8
rdata$r	SEGMENT
??_R2bad_alloc@std@@8 DD FLAT:??_R1A@?0A@EA@bad_alloc@std@@8 ; std::bad_alloc::`RTTI Base Class Array'
	DD	FLAT:??_R1A@?0A@EA@exception@std@@8
rdata$r	ENDS
;	COMDAT ??_R3bad_alloc@std@@8
rdata$r	SEGMENT
??_R3bad_alloc@std@@8 DD 00H				; std::bad_alloc::`RTTI Class Hierarchy Descriptor'
	DD	00H
	DD	02H
	DD	FLAT:??_R2bad_alloc@std@@8
rdata$r	ENDS
;	COMDAT ??_R0?AVbad_alloc@std@@@8
_DATA	SEGMENT
??_R0?AVbad_alloc@std@@@8 DD FLAT:??_7type_info@@6B@	; std::bad_alloc `RTTI Type Descriptor'
	DD	00H
	DB	'.?AVbad_alloc@std@@', 00H
_DATA	ENDS
;	COMDAT ??_R4bad_alloc@std@@6B@
rdata$r	SEGMENT
??_R4bad_alloc@std@@6B@ DD 00H				; std::bad_alloc::`RTTI Complete Object Locator'
	DD	00H
	DD	00H
	DD	FLAT:??_R0?AVbad_alloc@std@@@8
	DD	FLAT:??_R3bad_alloc@std@@8
rdata$r	ENDS
;	COMDAT ??_7bad_alloc@std@@6B@
CONST	SEGMENT
??_7bad_alloc@std@@6B@ DD FLAT:??_R4bad_alloc@std@@6B@	; std::bad_alloc::`vftable'
	DD	FLAT:??_Ebad_alloc@std@@UAEPAXI@Z
	DD	FLAT:?what@exception@std@@UBEPBDXZ
; Function compile flags: /Ogsp
CONST	ENDS
;	COMDAT ??0bad_alloc@std@@QAE@PBD@Z
_TEXT	SEGMENT
__Message$ = 8						; size = 4
??0bad_alloc@std@@QAE@PBD@Z PROC			; std::bad_alloc::bad_alloc, COMDAT
; _this$ = ecx

; 345  : 		{	// construct from message string

  00000	55		 push	 ebp
  00001	8b ec		 mov	 ebp, esp
  00003	56		 push	 esi
  00004	8d 45 08	 lea	 eax, DWORD PTR __Message$[ebp]
  00007	50		 push	 eax
  00008	8b f1		 mov	 esi, ecx
  0000a	ff 15 00 00 00
	00		 call	 DWORD PTR __imp_??0exception@std@@QAE@ABQBD@Z
  00010	c7 06 00 00 00
	00		 mov	 DWORD PTR [esi], OFFSET ??_7bad_alloc@std@@6B@

; 346  : 		}

  00016	8b c6		 mov	 eax, esi
  00018	5e		 pop	 esi
  00019	5d		 pop	 ebp
  0001a	c2 04 00	 ret	 4
??0bad_alloc@std@@QAE@PBD@Z ENDP			; std::bad_alloc::bad_alloc
_TEXT	ENDS
PUBLIC	??1bad_alloc@std@@UAE@XZ			; std::bad_alloc::~bad_alloc
EXTRN	__imp_??1exception@std@@UAE@XZ:PROC
; Function compile flags: /Ogsp
;	COMDAT ??1bad_alloc@std@@UAE@XZ
_TEXT	SEGMENT
??1bad_alloc@std@@UAE@XZ PROC				; std::bad_alloc::~bad_alloc, COMDAT
; _this$ = ecx

; 354  : 		{	// destroy the object

  00000	c7 01 00 00 00
	00		 mov	 DWORD PTR [ecx], OFFSET ??_7bad_alloc@std@@6B@

; 355  : 		}

  00006	ff 25 00 00 00
	00		 jmp	 DWORD PTR __imp_??1exception@std@@UAE@XZ
??1bad_alloc@std@@UAE@XZ ENDP				; std::bad_alloc::~bad_alloc
_TEXT	ENDS
EXTRN	??3@YAXPAX@Z:PROC				; operator delete
; Function compile flags: /Ogsp
;	COMDAT ??_Gbad_alloc@std@@UAEPAXI@Z
_TEXT	SEGMENT
___flags$ = 8						; size = 4
??_Gbad_alloc@std@@UAEPAXI@Z PROC			; std::bad_alloc::`scalar deleting destructor', COMDAT
; _this$ = ecx
  00000	55		 push	 ebp
  00001	8b ec		 mov	 ebp, esp
  00003	56		 push	 esi
  00004	8b f1		 mov	 esi, ecx
  00006	c7 06 00 00 00
	00		 mov	 DWORD PTR [esi], OFFSET ??_7bad_alloc@std@@6B@
  0000c	ff 15 00 00 00
	00		 call	 DWORD PTR __imp_??1exception@std@@UAE@XZ
  00012	f6 45 08 01	 test	 BYTE PTR ___flags$[ebp], 1
  00016	74 07		 je	 SHORT $LN1@scalar
  00018	56		 push	 esi
  00019	e8 00 00 00 00	 call	 ??3@YAXPAX@Z		; operator delete
  0001e	59		 pop	 ecx
$LN1@scalar:
  0001f	8b c6		 mov	 eax, esi
  00021	5e		 pop	 esi
  00022	5d		 pop	 ebp
  00023	c2 04 00	 ret	 4
??_Gbad_alloc@std@@UAEPAXI@Z ENDP			; std::bad_alloc::`scalar deleting destructor'
_TEXT	ENDS
PUBLIC	??2@YAPAXIPAX@Z					; operator new
; Function compile flags: /Ogsp
; File c:\program files (x86)\microsoft visual studio 10.0\vc\include\new
;	COMDAT ??2@YAPAXIPAX@Z
_TEXT	SEGMENT
___formal$ = 8						; size = 4
__Where$ = 12						; size = 4
??2@YAPAXIPAX@Z PROC					; operator new, COMDAT

; 56   : 	{	// construct array with placement at _Where

  00000	55		 push	 ebp
  00001	8b ec		 mov	 ebp, esp

; 57   : 	return (_Where);

  00003	8b 45 0c	 mov	 eax, DWORD PTR __Where$[ebp]

; 58   : 	}

  00006	5d		 pop	 ebp
  00007	c3		 ret	 0
??2@YAPAXIPAX@Z ENDP					; operator new
_TEXT	ENDS
PUBLIC	??3@YAXPAX0@Z					; operator delete
; Function compile flags: /Ogsp
;	COMDAT ??3@YAXPAX0@Z
_TEXT	SEGMENT
___formal$ = 8						; size = 4
___formal$ = 12						; size = 4
??3@YAXPAX0@Z PROC					; operator delete, COMDAT

; 62   : 	}

  00000	c3		 ret	 0
??3@YAXPAX0@Z ENDP					; operator delete
_TEXT	ENDS
PUBLIC	?length@?$char_traits@D@std@@SAIPBD@Z		; std::char_traits<char>::length
; Function compile flags: /Ogsp
; File c:\program files (x86)\microsoft visual studio 10.0\vc\include\iosfwd
;	COMDAT ?length@?$char_traits@D@std@@SAIPBD@Z
_TEXT	SEGMENT
__First$ = 8						; size = 4
?length@?$char_traits@D@std@@SAIPBD@Z PROC		; std::char_traits<char>::length, COMDAT

; 490  : 		{	// find length of null-terminated string

  00000	55		 push	 ebp
  00001	8b ec		 mov	 ebp, esp

; 491  : 		return (_CSTD strlen(_First));

  00003	8b 45 08	 mov	 eax, DWORD PTR __First$[ebp]
  00006	8d 50 01	 lea	 edx, DWORD PTR [eax+1]
$LL3@length:
  00009	8a 08		 mov	 cl, BYTE PTR [eax]
  0000b	40		 inc	 eax
  0000c	84 c9		 test	 cl, cl
  0000e	75 f9		 jne	 SHORT $LL3@length
  00010	2b c2		 sub	 eax, edx

; 492  : 		}

  00012	5d		 pop	 ebp
  00013	c3		 ret	 0
?length@?$char_traits@D@std@@SAIPBD@Z ENDP		; std::char_traits<char>::length
_TEXT	ENDS
PUBLIC	?copy@?$char_traits@D@std@@SAPADPADPBDI@Z	; std::char_traits<char>::copy
EXTRN	_memcpy:PROC
; Function compile flags: /Ogsp
;	COMDAT ?copy@?$char_traits@D@std@@SAPADPADPBDI@Z
_TEXT	SEGMENT
__First1$ = 8						; size = 4
__First2$ = 12						; size = 4
__Count$ = 16						; size = 4
?copy@?$char_traits@D@std@@SAPADPADPBDI@Z PROC		; std::char_traits<char>::copy, COMDAT

; 496  : 		{	// copy [_First1, _First1 + _Count) to [_First2, ...)

  00000	55		 push	 ebp
  00001	8b ec		 mov	 ebp, esp

; 498  : 		}

  00003	5d		 pop	 ebp

; 497  : 		return ((_Elem *)_CSTD memcpy(_First1, _First2, _Count));

  00004	e9 00 00 00 00	 jmp	 _memcpy
?copy@?$char_traits@D@std@@SAPADPADPBDI@Z ENDP		; std::char_traits<char>::copy
_TEXT	ENDS
PUBLIC	?move@?$char_traits@D@std@@SAPADPADPBDI@Z	; std::char_traits<char>::move
EXTRN	__imp__memmove:PROC
; Function compile flags: /Ogsp
;	COMDAT ?move@?$char_traits@D@std@@SAPADPADPBDI@Z
_TEXT	SEGMENT
__First1$ = 8						; size = 4
__First2$ = 12						; size = 4
__Count$ = 16						; size = 4
?move@?$char_traits@D@std@@SAPADPADPBDI@Z PROC		; std::char_traits<char>::move, COMDAT

; 516  : 		{	// copy [_First1, _First1 + _Count) to [_First2, ...)

  00000	55		 push	 ebp
  00001	8b ec		 mov	 ebp, esp

; 518  : 		}

  00003	5d		 pop	 ebp

; 517  : 		return ((_Elem *)_CSTD memmove(_First1, _First2, _Count));

  00004	ff 25 00 00 00
	00		 jmp	 DWORD PTR __imp__memmove
?move@?$char_traits@D@std@@SAPADPADPBDI@Z ENDP		; std::char_traits<char>::move
_TEXT	ENDS
PUBLIC	?assign@?$char_traits@D@std@@SAXAADABD@Z	; std::char_traits<char>::assign
; Function compile flags: /Ogsp
;	COMDAT ?assign@?$char_traits@D@std@@SAXAADABD@Z
_TEXT	SEGMENT
__Left$ = 8						; size = 4
__Right$ = 12						; size = 4
?assign@?$char_traits@D@std@@SAXAADABD@Z PROC		; std::char_traits<char>::assign, COMDAT

; 526  : 		{	// assign an element

  00000	55		 push	 ebp
  00001	8b ec		 mov	 ebp, esp

; 527  : 		_Left = _Right;

  00003	8b 45 0c	 mov	 eax, DWORD PTR __Right$[ebp]
  00006	8a 00		 mov	 al, BYTE PTR [eax]
  00008	8b 4d 08	 mov	 ecx, DWORD PTR __Left$[ebp]
  0000b	88 01		 mov	 BYTE PTR [ecx], al

; 528  : 		}

  0000d	5d		 pop	 ebp
  0000e	c3		 ret	 0
?assign@?$char_traits@D@std@@SAXAADABD@Z ENDP		; std::char_traits<char>::assign
_TEXT	ENDS
PUBLIC	?ClearData@ioAngleFireSkill@@IAEXXZ		; ioAngleFireSkill::ClearData
; Function compile flags: /Ogsp
; File d:\lost saga for developer\youtube\tutorial\source\src\lsclient\ioanglefireskill.cpp
;	COMDAT ?ClearData@ioAngleFireSkill@@IAEXXZ
_TEXT	SEGMENT
?ClearData@ioAngleFireSkill@@IAEXXZ PROC		; ioAngleFireSkill::ClearData, COMDAT
; _this$ = ecx

; 42   : 	m_bSetHandMesh = false;
; 43   : 
; 44   : 	m_SkillState = SS_NONE;
; 45   : 	m_dwLoopStartTime = 0;
; 46   : 	m_fCurMotionRate = 0.0f;

  00000	0f 57 c0	 xorps	 xmm0, xmm0

; 47   : 
; 48   : 	m_dwFireStartTime = 0;
; 49   : 	m_dwExtraGuidEffect = -1;

  00003	83 89 b8 11 00
	00 ff		 or	 DWORD PTR [ecx+4536], -1
  0000a	33 c0		 xor	 eax, eax
  0000c	88 81 0a 0f 00
	00		 mov	 BYTE PTR [ecx+3850], al
  00012	89 81 e4 10 00
	00		 mov	 DWORD PTR [ecx+4324], eax
  00018	89 81 90 11 00
	00		 mov	 DWORD PTR [ecx+4496], eax
  0001e	f3 0f 11 81 8c
	11 00 00	 movss	 DWORD PTR [ecx+4492], xmm0
  00026	89 81 a4 11 00
	00		 mov	 DWORD PTR [ecx+4516], eax

; 50   : 
; 51   : 	m_bStartAngle = true;

  0002c	c6 81 38 11 00
	00 01		 mov	 BYTE PTR [ecx+4408], 1

; 52   : }

  00033	c3		 ret	 0
?ClearData@ioAngleFireSkill@@IAEXXZ ENDP		; ioAngleFireSkill::ClearData
_TEXT	ENDS
PUBLIC	?_Adopt@_Iterator_base0@std@@QAEXPBX@Z		; std::_Iterator_base0::_Adopt
; Function compile flags: /Ogsp
; File c:\program files (x86)\microsoft visual studio 10.0\vc\include\xutility
;	COMDAT ?_Adopt@_Iterator_base0@std@@QAEXPBX@Z
_TEXT	SEGMENT
___formal$ = 8						; size = 4
?_Adopt@_Iterator_base0@std@@QAEXPBX@Z PROC		; std::_Iterator_base0::_Adopt, COMDAT
; _this$ = ecx

; 49   : 		}

  00000	c2 04 00	 ret	 4
?_Adopt@_Iterator_base0@std@@QAEXPBX@Z ENDP		; std::_Iterator_base0::_Adopt
_TEXT	ENDS
PUBLIC	?OnSkillEnd@ioAngleFireSkill@@UAEXPAVioBaseChar@@@Z ; ioAngleFireSkill::OnSkillEnd
EXTRN	?AttachEffect@ioBaseChar@@QAEPAVioEffect@@ABVioHashString@@PAVioEntityEvent@@_N@Z:PROC ; ioBaseChar::AttachEffect
EXTRN	?SetCurMoveSpeed@ioBaseChar@@QAEXM@Z:PROC	; ioBaseChar::SetCurMoveSpeed
EXTRN	?RestoreSkillProtection@ioBaseChar@@QAEXXZ:PROC	; ioBaseChar::RestoreSkillProtection
EXTRN	?SetMoveDirByRotate@ioBaseChar@@QAEXABUD3DXQUATERNION@@@Z:PROC ; ioBaseChar::SetMoveDirByRotate
EXTRN	?SetSkillMoveEnable@ioBaseChar@@QAEX_N0@Z:PROC	; ioBaseChar::SetSkillMoveEnable
EXTRN	?EndCameraBuff@ioSkill@@IAEXPAVioBaseChar@@@Z:PROC ; ioSkill::EndCameraBuff
EXTRN	?EndEffect@ioBaseChar@@QAEXK_N@Z:PROC		; ioBaseChar::EndEffect
EXTRN	?EndEffect@ioBaseChar@@QAEXABVioHashString@@_N1@Z:PROC ; ioBaseChar::EndEffect
EXTRN	?RestoreSkillWeaponMesh@ioBaseChar@@QAE_NPAVioSkill@@ABVioHashString@@_N2@Z:PROC ; ioBaseChar::RestoreSkillWeaponMesh
EXTRN	__imp_?IsEmpty@ioHashString@@QBE_NXZ:PROC
EXTRN	?ShowWeaponItemMesh@ioBaseChar@@QAEX_N0@Z:PROC	; ioBaseChar::ShowWeaponItemMesh
; Function compile flags: /Ogsp
; File d:\lost saga for developer\youtube\tutorial\source\src\lsclient\ioanglefireskill.cpp
;	COMDAT ?OnSkillEnd@ioAngleFireSkill@@UAEXPAVioBaseChar@@@Z
_TEXT	SEGMENT
_pChar$ = 8						; size = 4
?OnSkillEnd@ioAngleFireSkill@@UAEXPAVioBaseChar@@@Z PROC ; ioAngleFireSkill::OnSkillEnd, COMDAT
; _this$ = ecx

; 347  : {

  00000	55		 push	 ebp
  00001	8b ec		 mov	 ebp, esp
  00003	53		 push	 ebx
  00004	56		 push	 esi
  00005	8b f1		 mov	 esi, ecx

; 348  : 	// 기본무기 장착
; 349  : 	if( m_bUseItemMesh )

  00007	80 be 08 0f 00
	00 00		 cmp	 BYTE PTR [esi+3848], 0
  0000e	57		 push	 edi
  0000f	8b 7d 08	 mov	 edi, DWORD PTR _pChar$[ebp]
  00012	74 0b		 je	 SHORT $LN9@OnSkillEnd

; 350  : 		pChar->ShowWeaponItemMesh( true );

  00014	6a 00		 push	 0
  00016	6a 01		 push	 1
  00018	8b cf		 mov	 ecx, edi
  0001a	e8 00 00 00 00	 call	 ?ShowWeaponItemMesh@ioBaseChar@@QAEX_N0@Z ; ioBaseChar::ShowWeaponItemMesh
$LN9@OnSkillEnd:

; 351  : 
; 352  : 	if( m_bSetHandMesh && !m_HandMesh.IsEmpty() )

  0001f	80 be 0a 0f 00
	00 00		 cmp	 BYTE PTR [esi+3850], 0
  00026	74 25		 je	 SHORT $LN10@OnSkillEnd
  00028	8d 9e f8 0e 00
	00		 lea	 ebx, DWORD PTR [esi+3832]
  0002e	8b cb		 mov	 ecx, ebx
  00030	ff 15 00 00 00
	00		 call	 DWORD PTR __imp_?IsEmpty@ioHashString@@QBE_NXZ
  00036	84 c0		 test	 al, al
  00038	75 13		 jne	 SHORT $LN10@OnSkillEnd

; 353  : 		pChar->RestoreSkillWeaponMesh( this, m_HandMesh, m_bVisibleEquipMesh );

  0003a	0f b6 86 09 0f
	00 00		 movzx	 eax, BYTE PTR [esi+3849]
  00041	6a 00		 push	 0
  00043	50		 push	 eax
  00044	53		 push	 ebx
  00045	56		 push	 esi
  00046	8b cf		 mov	 ecx, edi
  00048	e8 00 00 00 00	 call	 ?RestoreSkillWeaponMesh@ioBaseChar@@QAE_NPAVioSkill@@ABVioHashString@@_N2@Z ; ioBaseChar::RestoreSkillWeaponMesh
$LN10@OnSkillEnd:

; 354  : 
; 355  : 	m_bSetHandMesh = false;
; 356  : 
; 357  : 	EndPreDelayEffect( pChar );

  0004d	8b 06		 mov	 eax, DWORD PTR [esi]
  0004f	57		 push	 edi
  00050	8b ce		 mov	 ecx, esi
  00052	c6 86 0a 0f 00
	00 00		 mov	 BYTE PTR [esi+3850], 0
  00059	ff 90 dc 00 00
	00		 call	 DWORD PTR [eax+220]

; 358  : 	pChar->EndEffect( m_SkillEffectName );

  0005f	6a 01		 push	 1
  00061	6a 01		 push	 1
  00063	8d 86 b8 01 00
	00		 lea	 eax, DWORD PTR [esi+440]
  00069	50		 push	 eax
  0006a	8b cf		 mov	 ecx, edi
  0006c	e8 00 00 00 00	 call	 ?EndEffect@ioBaseChar@@QAEXABVioHashString@@_N1@Z ; ioBaseChar::EndEffect

; 359  : 
; 360  : 	if( m_dwExtraGuidEffect != -1 )

  00071	8b 86 b8 11 00
	00		 mov	 eax, DWORD PTR [esi+4536]
  00077	83 f8 ff	 cmp	 eax, -1
  0007a	74 11		 je	 SHORT $LN2@OnSkillEnd

; 361  : 	{
; 362  : 		pChar->EndEffect( m_dwExtraGuidEffect, false );

  0007c	6a 00		 push	 0
  0007e	50		 push	 eax
  0007f	8b cf		 mov	 ecx, edi
  00081	e8 00 00 00 00	 call	 ?EndEffect@ioBaseChar@@QAEXK_N@Z ; ioBaseChar::EndEffect

; 363  : 		m_dwExtraGuidEffect = -1;

  00086	83 8e b8 11 00
	00 ff		 or	 DWORD PTR [esi+4536], -1
$LN2@OnSkillEnd:

; 364  : 	}
; 365  : 
; 366  : 	EndCameraBuff( pChar );

  0008d	57		 push	 edi
  0008e	8b ce		 mov	 ecx, esi
  00090	e8 00 00 00 00	 call	 ?EndCameraBuff@ioSkill@@IAEXPAVioBaseChar@@@Z ; ioSkill::EndCameraBuff

; 367  : 
; 368  : 	m_bReduceGauge = false;
; 369  : 	pChar->SetSkillMoveEnable( false, false );

  00095	33 db		 xor	 ebx, ebx
  00097	53		 push	 ebx
  00098	53		 push	 ebx
  00099	8b cf		 mov	 ecx, edi
  0009b	c6 86 50 03 00
	00 00		 mov	 BYTE PTR [esi+848], 0
  000a2	e8 00 00 00 00	 call	 ?SetSkillMoveEnable@ioBaseChar@@QAEX_N0@Z ; ioBaseChar::SetSkillMoveEnable

; 370  : 	pChar->SetMoveDirByRotate( pChar->GetTargetRot() );

  000a7	8d 87 a4 06 00
	00		 lea	 eax, DWORD PTR [edi+1700]
  000ad	50		 push	 eax
  000ae	8b cf		 mov	 ecx, edi
  000b0	e8 00 00 00 00	 call	 ?SetMoveDirByRotate@ioBaseChar@@QAEXABUD3DXQUATERNION@@@Z ; ioBaseChar::SetMoveDirByRotate

; 371  : 	pChar->RestoreSkillProtection();

  000b5	8b cf		 mov	 ecx, edi
  000b7	e8 00 00 00 00	 call	 ?RestoreSkillProtection@ioBaseChar@@QAEXXZ ; ioBaseChar::RestoreSkillProtection

; 372  : 	pChar->SetCurMoveSpeed( 0.0f );

  000bc	0f 57 c0	 xorps	 xmm0, xmm0
  000bf	51		 push	 ecx
  000c0	8b cf		 mov	 ecx, edi
  000c2	f3 0f 11 04 24	 movss	 DWORD PTR [esp], xmm0
  000c7	e8 00 00 00 00	 call	 ?SetCurMoveSpeed@ioBaseChar@@QAEXM@Z ; ioBaseChar::SetCurMoveSpeed

; 373  : 
; 374  : 	m_SkillState = SS_NONE;

  000cc	89 9e e4 10 00
	00		 mov	 DWORD PTR [esi+4324], ebx

; 375  : 	m_SkillUseType = SUT_NORMAL;

  000d2	89 5e 74	 mov	 DWORD PTR [esi+116], ebx

; 376  : 
; 377  : 	if( !m_SkillEndEffectName.IsEmpty() )

  000d5	81 c6 e8 01 00
	00		 add	 esi, 488		; 000001e8H
  000db	8b ce		 mov	 ecx, esi
  000dd	ff 15 00 00 00
	00		 call	 DWORD PTR __imp_?IsEmpty@ioHashString@@QBE_NXZ
  000e3	84 c0		 test	 al, al
  000e5	75 0b		 jne	 SHORT $LN1@OnSkillEnd

; 378  : 		pChar->AttachEffect( m_SkillEndEffectName );

  000e7	6a 01		 push	 1
  000e9	53		 push	 ebx
  000ea	56		 push	 esi
  000eb	8b cf		 mov	 ecx, edi
  000ed	e8 00 00 00 00	 call	 ?AttachEffect@ioBaseChar@@QAEPAVioEffect@@ABVioHashString@@PAVioEntityEvent@@_N@Z ; ioBaseChar::AttachEffect
$LN1@OnSkillEnd:
  000f2	5f		 pop	 edi
  000f3	5e		 pop	 esi
  000f4	5b		 pop	 ebx

; 379  : }

  000f5	5d		 pop	 ebp
  000f6	c2 04 00	 ret	 4
?OnSkillEnd@ioAngleFireSkill@@UAEXPAVioBaseChar@@@Z ENDP ; ioAngleFireSkill::OnSkillEnd
_TEXT	ENDS
PUBLIC	?CheckUseItemMesh@ioAngleFireSkill@@UAE_NXZ	; ioAngleFireSkill::CheckUseItemMesh
; Function compile flags: /Ogsp
;	COMDAT ?CheckUseItemMesh@ioAngleFireSkill@@UAE_NXZ
_TEXT	SEGMENT
?CheckUseItemMesh@ioAngleFireSkill@@UAE_NXZ PROC	; ioAngleFireSkill::CheckUseItemMesh, COMDAT
; _this$ = ecx

; 704  : 	return m_bUseItemMesh;

  00000	8a 81 08 0f 00
	00		 mov	 al, BYTE PTR [ecx+3848]

; 705  : }

  00006	c3		 ret	 0
?CheckUseItemMesh@ioAngleFireSkill@@UAE_NXZ ENDP	; ioAngleFireSkill::CheckUseItemMesh
_TEXT	ENDS
PUBLIC	?CheckKeyInput@ioAngleFireSkill@@IAEXPAVioBaseChar@@@Z ; ioAngleFireSkill::CheckKeyInput
; Function compile flags: /Ogsp
;	COMDAT ?CheckKeyInput@ioAngleFireSkill@@IAEXPAVioBaseChar@@@Z
_TEXT	SEGMENT
_pOwner$ = 8						; size = 4
?CheckKeyInput@ioAngleFireSkill@@IAEXPAVioBaseChar@@@Z PROC ; ioAngleFireSkill::CheckKeyInput, COMDAT
; _this$ = ecx

; 708  : {

  00000	55		 push	 ebp
  00001	8b ec		 mov	 ebp, esp

; 709  : 	if( !pOwner ) return;

  00003	8b 4d 08	 mov	 ecx, DWORD PTR _pOwner$[ebp]
  00006	85 c9		 test	 ecx, ecx
  00008	74 08		 je	 SHORT $LN1@CheckKeyIn

; 710  : 	if( !pOwner->IsNeedProcess() ) return;

  0000a	8b 01		 mov	 eax, DWORD PTR [ecx]
  0000c	ff 90 00 01 00
	00		 call	 DWORD PTR [eax+256]
$LN1@CheckKeyIn:

; 711  : }

  00012	5d		 pop	 ebp
  00013	c2 04 00	 ret	 4
?CheckKeyInput@ioAngleFireSkill@@IAEXPAVioBaseChar@@@Z ENDP ; ioAngleFireSkill::CheckKeyInput
_TEXT	ENDS
PUBLIC	?IsSkillMotionEnd@ioAngleFireSkill@@UBE_NKPAVioBaseChar@@@Z ; ioAngleFireSkill::IsSkillMotionEnd
EXTRN	__imp_?GetLoopSec@ioFrameTimer@@QBEKXZ:PROC
EXTRN	__imp_?GetSingleton@ioFrameTimer@@SAAAV1@XZ:PROC
; Function compile flags: /Ogsp
;	COMDAT ?IsSkillMotionEnd@ioAngleFireSkill@@UBE_NKPAVioBaseChar@@@Z
_TEXT	SEGMENT
_dwActionStop$ = 8					; size = 4
_pOwner$ = 12						; size = 4
?IsSkillMotionEnd@ioAngleFireSkill@@UBE_NKPAVioBaseChar@@@Z PROC ; ioAngleFireSkill::IsSkillMotionEnd, COMDAT
; _this$ = ecx

; 714  : {

  00000	55		 push	 ebp
  00001	8b ec		 mov	 ebp, esp
  00003	56		 push	 esi
  00004	8b f1		 mov	 esi, ecx

; 715  : 	if( m_dwPreDelayStartTime > 0 )

  00006	83 be 20 02 00
	00 00		 cmp	 DWORD PTR [esi+544], 0

; 716  : 		return false;

  0000d	77 2f		 ja	 SHORT $LN3@IsSkillMot

; 717  : 
; 718  : 	switch( m_SkillState )

  0000f	8b 86 e4 10 00
	00		 mov	 eax, DWORD PTR [esi+4324]
  00015	48		 dec	 eax
  00016	74 26		 je	 SHORT $LN3@IsSkillMot
  00018	48		 dec	 eax
  00019	74 04		 je	 SHORT $LN2@IsSkillMot

; 727  : 	}
; 728  : 
; 729  : 	return true;

  0001b	b0 01		 mov	 al, 1
  0001d	eb 21		 jmp	 SHORT $LN7@IsSkillMot
$LN2@IsSkillMot:

; 722  : 	case SS_FIRE:
; 723  : 		if( m_dwMotionEndTime + dwActionStop > FRAMEGETTIME() )

  0001f	ff 15 00 00 00
	00		 call	 DWORD PTR __imp_?GetSingleton@ioFrameTimer@@SAAAV1@XZ
  00025	8b c8		 mov	 ecx, eax
  00027	ff 15 00 00 00
	00		 call	 DWORD PTR __imp_?GetLoopSec@ioFrameTimer@@QBEKXZ
  0002d	8b 8e d8 02 00
	00		 mov	 ecx, DWORD PTR [esi+728]
  00033	03 4d 08	 add	 ecx, DWORD PTR _dwActionStop$[ebp]
  00036	3b c1		 cmp	 eax, ecx
  00038	1a c0		 sbb	 al, al
  0003a	fe c0		 inc	 al

; 724  : 			return false;
; 725  : 
; 726  : 		return true;

  0003c	eb 02		 jmp	 SHORT $LN7@IsSkillMot
$LN3@IsSkillMot:

; 719  : 	{
; 720  : 	case SS_LOOP:
; 721  : 		return false;

  0003e	32 c0		 xor	 al, al
$LN7@IsSkillMot:
  00040	5e		 pop	 esi

; 730  : }

  00041	5d		 pop	 ebp
  00042	c2 08 00	 ret	 8
?IsSkillMotionEnd@ioAngleFireSkill@@UBE_NKPAVioBaseChar@@@Z ENDP ; ioAngleFireSkill::IsSkillMotionEnd
_TEXT	ENDS
PUBLIC	?IsEnableReserve@ioAngleFireSkill@@UBE_NXZ	; ioAngleFireSkill::IsEnableReserve
; Function compile flags: /Ogsp
;	COMDAT ?IsEnableReserve@ioAngleFireSkill@@UBE_NXZ
_TEXT	SEGMENT
?IsEnableReserve@ioAngleFireSkill@@UBE_NXZ PROC		; ioAngleFireSkill::IsEnableReserve, COMDAT
; _this$ = ecx

; 734  : 	if( m_dwPreDelayStartTime != 0 )

  00000	83 b9 20 02 00
	00 00		 cmp	 DWORD PTR [ecx+544], 0
  00007	56		 push	 esi

; 735  : 		return false;

  00008	75 2c		 jne	 SHORT $LN3@IsEnableRe

; 736  : 
; 737  : 	switch( m_SkillState )

  0000a	8b 81 e4 10 00
	00		 mov	 eax, DWORD PTR [ecx+4324]
  00010	48		 dec	 eax
  00011	74 23		 je	 SHORT $LN3@IsEnableRe
  00013	48		 dec	 eax
  00014	75 20		 jne	 SHORT $LN3@IsEnableRe

; 741  : 	case SS_FIRE:
; 742  : 		if( m_dwEnableReserveTime > 0 && m_dwEnableReserveTime < FRAMEGETTIME() )

  00016	8d b1 dc 02 00
	00		 lea	 esi, DWORD PTR [ecx+732]
  0001c	39 06		 cmp	 DWORD PTR [esi], eax
  0001e	76 16		 jbe	 SHORT $LN3@IsEnableRe
  00020	ff 15 00 00 00
	00		 call	 DWORD PTR __imp_?GetSingleton@ioFrameTimer@@SAAAV1@XZ
  00026	8b c8		 mov	 ecx, eax
  00028	ff 15 00 00 00
	00		 call	 DWORD PTR __imp_?GetLoopSec@ioFrameTimer@@QBEKXZ
  0002e	39 06		 cmp	 DWORD PTR [esi], eax
  00030	73 04		 jae	 SHORT $LN3@IsEnableRe

; 743  : 			return true;

  00032	b0 01		 mov	 al, 1
  00034	5e		 pop	 esi

; 744  : 
; 745  : 		break;
; 746  : 	}
; 747  : 
; 748  : 	return false;
; 749  : }

  00035	c3		 ret	 0
$LN3@IsEnableRe:

; 738  : 	{
; 739  : 	case SS_LOOP:
; 740  : 		return false;

  00036	32 c0		 xor	 al, al
  00038	5e		 pop	 esi

; 744  : 
; 745  : 		break;
; 746  : 	}
; 747  : 
; 748  : 	return false;
; 749  : }

  00039	c3		 ret	 0
?IsEnableReserve@ioAngleFireSkill@@UBE_NXZ ENDP		; ioAngleFireSkill::IsEnableReserve
_TEXT	ENDS
PUBLIC	?ApplyAttributeToWeapon@ioAngleFireSkill@@UAEXPAVioWeapon@@PAVioPlayStage@@@Z ; ioAngleFireSkill::ApplyAttributeToWeapon
EXTRN	?ApplyAttributeToWeapon@ioSkill@@UAEXPAVioWeapon@@PAVioPlayStage@@@Z:PROC ; ioSkill::ApplyAttributeToWeapon
; Function compile flags: /Ogsp
;	COMDAT ?ApplyAttributeToWeapon@ioAngleFireSkill@@UAEXPAVioWeapon@@PAVioPlayStage@@@Z
_TEXT	SEGMENT
_pWeapon$ = 8						; size = 4
_pStage$ = 12						; size = 4
?ApplyAttributeToWeapon@ioAngleFireSkill@@UAEXPAVioWeapon@@PAVioPlayStage@@@Z PROC ; ioAngleFireSkill::ApplyAttributeToWeapon, COMDAT
; _this$ = ecx

; 772  : {

  00000	55		 push	 ebp
  00001	8b ec		 mov	 ebp, esp
  00003	56		 push	 esi

; 773  : 	if( !pWeapon ) return;

  00004	8b 75 08	 mov	 esi, DWORD PTR _pWeapon$[ebp]
  00007	57		 push	 edi
  00008	8b f9		 mov	 edi, ecx
  0000a	85 f6		 test	 esi, esi
  0000c	74 1a		 je	 SHORT $LN2@ApplyAttri

; 774  : 
; 775  : 	ioSkill::ApplyAttributeToWeapon( pWeapon, pStage );

  0000e	ff 75 0c	 push	 DWORD PTR _pStage$[ebp]
  00011	56		 push	 esi
  00012	e8 00 00 00 00	 call	 ?ApplyAttributeToWeapon@ioSkill@@UAEXPAVioWeapon@@PAVioPlayStage@@@Z ; ioSkill::ApplyAttributeToWeapon

; 776  : 
; 777  : 	pWeapon->SetMoveDir( m_vAttackDir );

  00017	8b 06		 mov	 eax, DWORD PTR [esi]
  00019	81 c7 98 11 00
	00		 add	 edi, 4504		; 00001198H
  0001f	57		 push	 edi
  00020	8b ce		 mov	 ecx, esi
  00022	ff 90 b0 00 00
	00		 call	 DWORD PTR [eax+176]
$LN2@ApplyAttri:
  00028	5f		 pop	 edi
  00029	5e		 pop	 esi

; 778  : }

  0002a	5d		 pop	 ebp
  0002b	c2 08 00	 ret	 8
?ApplyAttributeToWeapon@ioAngleFireSkill@@UAEXPAVioWeapon@@PAVioPlayStage@@@Z ENDP ; ioAngleFireSkill::ApplyAttributeToWeapon
_TEXT	ENDS
PUBLIC	?size@?$vector@V?$basic_string@DU?$char_traits@D@std@@V?$allocator@D@2@@std@@V?$allocator@V?$basic_string@DU?$char_traits@D@std@@V?$allocator@D@2@@std@@@2@@std@@QBEIXZ ; std::vector<std::basic_string<char,std::char_traits<char>,std::allocator<char> >,std::allocator<std::basic_string<char,std::char_traits<char>,std::allocator<char> > > >::size
; Function compile flags: /Ogsp
; File c:\program files (x86)\microsoft visual studio 10.0\vc\include\vector
;	COMDAT ?size@?$vector@V?$basic_string@DU?$char_traits@D@std@@V?$allocator@D@2@@std@@V?$allocator@V?$basic_string@DU?$char_traits@D@std@@V?$allocator@D@2@@std@@@2@@std@@QBEIXZ
_TEXT	SEGMENT
?size@?$vector@V?$basic_string@DU?$char_traits@D@std@@V?$allocator@D@2@@std@@V?$allocator@V?$basic_string@DU?$char_traits@D@std@@V?$allocator@D@2@@std@@@2@@std@@QBEIXZ PROC ; std::vector<std::basic_string<char,std::char_traits<char>,std::allocator<char> >,std::allocator<std::basic_string<char,std::char_traits<char>,std::allocator<char> > > >::size, COMDAT
; _this$ = ecx

; 879  : 		return (this->_Mylast - this->_Myfirst);

  00000	8b 41 04	 mov	 eax, DWORD PTR [ecx+4]
  00003	2b 01		 sub	 eax, DWORD PTR [ecx]
  00005	6a 1c		 push	 28			; 0000001cH
  00007	99		 cdq
  00008	59		 pop	 ecx
  00009	f7 f9		 idiv	 ecx

; 880  : 		}

  0000b	c3		 ret	 0
?size@?$vector@V?$basic_string@DU?$char_traits@D@std@@V?$allocator@D@2@@std@@V?$allocator@V?$basic_string@DU?$char_traits@D@std@@V?$allocator@D@2@@std@@@2@@std@@QBEIXZ ENDP ; std::vector<std::basic_string<char,std::char_traits<char>,std::allocator<char> >,std::allocator<std::basic_string<char,std::char_traits<char>,std::allocator<char> > > >::size
_TEXT	ENDS
PUBLIC	??A?$vector@V?$basic_string@DU?$char_traits@D@std@@V?$allocator@D@2@@std@@V?$allocator@V?$basic_string@DU?$char_traits@D@std@@V?$allocator@D@2@@std@@@2@@std@@QBEABV?$basic_string@DU?$char_traits@D@std@@V?$allocator@D@2@@1@I@Z ; std::vector<std::basic_string<char,std::char_traits<char>,std::allocator<char> >,std::allocator<std::basic_string<char,std::char_traits<char>,std::allocator<char> > > >::operator[]
; Function compile flags: /Ogsp
;	COMDAT ??A?$vector@V?$basic_string@DU?$char_traits@D@std@@V?$allocator@D@2@@std@@V?$allocator@V?$basic_string@DU?$char_traits@D@std@@V?$allocator@D@2@@std@@@2@@std@@QBEABV?$basic_string@DU?$char_traits@D@std@@V?$allocator@D@2@@1@I@Z
_TEXT	SEGMENT
__Pos$ = 8						; size = 4
??A?$vector@V?$basic_string@DU?$char_traits@D@std@@V?$allocator@D@2@@std@@V?$allocator@V?$basic_string@DU?$char_traits@D@std@@V?$allocator@D@2@@std@@@2@@std@@QBEABV?$basic_string@DU?$char_traits@D@std@@V?$allocator@D@2@@1@I@Z PROC ; std::vector<std::basic_string<char,std::char_traits<char>,std::allocator<char> >,std::allocator<std::basic_string<char,std::char_traits<char>,std::allocator<char> > > >::operator[], COMDAT
; _this$ = ecx

; 912  : 		{	// subscript nonmutable sequence

  00000	55		 push	 ebp
  00001	8b ec		 mov	 ebp, esp

; 913  :  #if _ITERATOR_DEBUG_LEVEL == 2
; 914  : 		if (size() <= _Pos)
; 915  : 			{	// report error
; 916  : 			_DEBUG_ERROR("vector subscript out of range");
; 917  : 			_SCL_SECURE_OUT_OF_RANGE;
; 918  : 			}
; 919  : 
; 920  :  #elif _ITERATOR_DEBUG_LEVEL == 1
; 921  : 		_SCL_SECURE_VALIDATE_RANGE(_Pos < size());
; 922  :  #endif /* _ITERATOR_DEBUG_LEVEL */
; 923  : 
; 924  : 		return (*(this->_Myfirst + _Pos));

  00003	8b 45 08	 mov	 eax, DWORD PTR __Pos$[ebp]
  00006	6b c0 1c	 imul	 eax, 28			; 0000001cH
  00009	03 01		 add	 eax, DWORD PTR [ecx]

; 925  : 		}

  0000b	5d		 pop	 ebp
  0000c	c2 04 00	 ret	 4
??A?$vector@V?$basic_string@DU?$char_traits@D@std@@V?$allocator@D@2@@std@@V?$allocator@V?$basic_string@DU?$char_traits@D@std@@V?$allocator@D@2@@std@@@2@@std@@QBEABV?$basic_string@DU?$char_traits@D@std@@V?$allocator@D@2@@1@I@Z ENDP ; std::vector<std::basic_string<char,std::char_traits<char>,std::allocator<char> >,std::allocator<std::basic_string<char,std::char_traits<char>,std::allocator<char> > > >::operator[]
_TEXT	ENDS
PUBLIC	?empty@?$vector@UAniRotateInfo@@V?$allocator@UAniRotateInfo@@@std@@@std@@QBE_NXZ ; std::vector<AniRotateInfo,std::allocator<AniRotateInfo> >::empty
; Function compile flags: /Ogsp
;	COMDAT ?empty@?$vector@UAniRotateInfo@@V?$allocator@UAniRotateInfo@@@std@@@std@@QBE_NXZ
_TEXT	SEGMENT
?empty@?$vector@UAniRotateInfo@@V?$allocator@UAniRotateInfo@@@std@@@std@@QBE_NXZ PROC ; std::vector<AniRotateInfo,std::allocator<AniRotateInfo> >::empty, COMDAT
; _this$ = ecx

; 889  : 		return (this->_Myfirst == this->_Mylast);

  00000	8b 01		 mov	 eax, DWORD PTR [ecx]
  00002	2b 41 04	 sub	 eax, DWORD PTR [ecx+4]
  00005	f7 d8		 neg	 eax
  00007	1b c0		 sbb	 eax, eax
  00009	40		 inc	 eax

; 890  : 		}

  0000a	c3		 ret	 0
?empty@?$vector@UAniRotateInfo@@V?$allocator@UAniRotateInfo@@@std@@@std@@QBE_NXZ ENDP ; std::vector<AniRotateInfo,std::allocator<AniRotateInfo> >::empty
_TEXT	ENDS
PUBLIC	??A?$vector@UAniRotateInfo@@V?$allocator@UAniRotateInfo@@@std@@@std@@QAEAAUAniRotateInfo@@I@Z ; std::vector<AniRotateInfo,std::allocator<AniRotateInfo> >::operator[]
; Function compile flags: /Ogsp
;	COMDAT ??A?$vector@UAniRotateInfo@@V?$allocator@UAniRotateInfo@@@std@@@std@@QAEAAUAniRotateInfo@@I@Z
_TEXT	SEGMENT
__Pos$ = 8						; size = 4
??A?$vector@UAniRotateInfo@@V?$allocator@UAniRotateInfo@@@std@@@std@@QAEAAUAniRotateInfo@@I@Z PROC ; std::vector<AniRotateInfo,std::allocator<AniRotateInfo> >::operator[], COMDAT
; _this$ = ecx

; 928  : 		{	// subscript mutable sequence

  00000	55		 push	 ebp
  00001	8b ec		 mov	 ebp, esp

; 929  :  #if _ITERATOR_DEBUG_LEVEL == 2
; 930  : 		if (size() <= _Pos)
; 931  : 			{	// report error
; 932  : 			_DEBUG_ERROR("vector subscript out of range");
; 933  : 			_SCL_SECURE_OUT_OF_RANGE;
; 934  : 			}
; 935  : 
; 936  :  #elif _ITERATOR_DEBUG_LEVEL == 1
; 937  : 		_SCL_SECURE_VALIDATE_RANGE(_Pos < size());
; 938  :  #endif /* _ITERATOR_DEBUG_LEVEL */
; 939  : 
; 940  : 		return (*(this->_Myfirst + _Pos));

  00003	8b 01		 mov	 eax, DWORD PTR [ecx]
  00005	8b 4d 08	 mov	 ecx, DWORD PTR __Pos$[ebp]
  00008	8d 04 c8	 lea	 eax, DWORD PTR [eax+ecx*8]

; 941  : 		}

  0000b	5d		 pop	 ebp
  0000c	c2 04 00	 ret	 4
??A?$vector@UAniRotateInfo@@V?$allocator@UAniRotateInfo@@@std@@@std@@QAEAAUAniRotateInfo@@I@Z ENDP ; std::vector<AniRotateInfo,std::allocator<AniRotateInfo> >::operator[]
_TEXT	ENDS
PUBLIC	?_Inside@?$vector@UAniRotateInfo@@V?$allocator@UAniRotateInfo@@@std@@@std@@IBE_NPBUAniRotateInfo@@@Z ; std::vector<AniRotateInfo,std::allocator<AniRotateInfo> >::_Inside
; Function compile flags: /Ogsp
;	COMDAT ?_Inside@?$vector@UAniRotateInfo@@V?$allocator@UAniRotateInfo@@@std@@@std@@IBE_NPBUAniRotateInfo@@@Z
_TEXT	SEGMENT
__Ptr$ = 8						; size = 4
?_Inside@?$vector@UAniRotateInfo@@V?$allocator@UAniRotateInfo@@@std@@@std@@IBE_NPBUAniRotateInfo@@@Z PROC ; std::vector<AniRotateInfo,std::allocator<AniRotateInfo> >::_Inside, COMDAT
; _this$ = ecx

; 1285 : 		{	// test if _Ptr points inside vector

  00000	55		 push	 ebp
  00001	8b ec		 mov	 ebp, esp

; 1286 : 		return (_Ptr < this->_Mylast && this->_Myfirst <= _Ptr);

  00003	8b 45 08	 mov	 eax, DWORD PTR __Ptr$[ebp]
  00006	3b 41 04	 cmp	 eax, DWORD PTR [ecx+4]
  00009	73 09		 jae	 SHORT $LN3@Inside
  0000b	39 01		 cmp	 DWORD PTR [ecx], eax
  0000d	77 05		 ja	 SHORT $LN3@Inside
  0000f	33 c0		 xor	 eax, eax
  00011	40		 inc	 eax
  00012	eb 02		 jmp	 SHORT $LN4@Inside
$LN3@Inside:
  00014	33 c0		 xor	 eax, eax
$LN4@Inside:

; 1287 : 		}

  00016	5d		 pop	 ebp
  00017	c2 04 00	 ret	 4
?_Inside@?$vector@UAniRotateInfo@@V?$allocator@UAniRotateInfo@@@std@@@std@@IBE_NPBUAniRotateInfo@@@Z ENDP ; std::vector<AniRotateInfo,std::allocator<AniRotateInfo> >::_Inside
_TEXT	ENDS
PUBLIC	?_Orphan_range@?$vector@UAniRotateInfo@@V?$allocator@UAniRotateInfo@@@std@@@std@@IBEXPAUAniRotateInfo@@0@Z ; std::vector<AniRotateInfo,std::allocator<AniRotateInfo> >::_Orphan_range
; Function compile flags: /Ogsp
;	COMDAT ?_Orphan_range@?$vector@UAniRotateInfo@@V?$allocator@UAniRotateInfo@@@std@@@std@@IBEXPAUAniRotateInfo@@0@Z
_TEXT	SEGMENT
___formal$ = 8						; size = 4
___formal$ = 12						; size = 4
?_Orphan_range@?$vector@UAniRotateInfo@@V?$allocator@UAniRotateInfo@@@std@@@std@@IBEXPAUAniRotateInfo@@0@Z PROC ; std::vector<AniRotateInfo,std::allocator<AniRotateInfo> >::_Orphan_range, COMDAT
; _this$ = ecx

; 1454 : 		}

  00000	c2 08 00	 ret	 8
?_Orphan_range@?$vector@UAniRotateInfo@@V?$allocator@UAniRotateInfo@@@std@@@std@@IBEXPAUAniRotateInfo@@0@Z ENDP ; std::vector<AniRotateInfo,std::allocator<AniRotateInfo> >::_Orphan_range
_TEXT	ENDS
PUBLIC	??1?$_Vector_val@PBUAniEventTime@@V?$allocator@PBUAniEventTime@@@std@@@std@@QAE@XZ ; std::_Vector_val<AniEventTime const *,std::allocator<AniEventTime const *> >::~_Vector_val<AniEventTime const *,std::allocator<AniEventTime const *> >
; Function compile flags: /Ogsp
;	COMDAT ??1?$_Vector_val@PBUAniEventTime@@V?$allocator@PBUAniEventTime@@@std@@@std@@QAE@XZ
_TEXT	SEGMENT
??1?$_Vector_val@PBUAniEventTime@@V?$allocator@PBUAniEventTime@@@std@@@std@@QAE@XZ PROC ; std::_Vector_val<AniEventTime const *,std::allocator<AniEventTime const *> >::~_Vector_val<AniEventTime const *,std::allocator<AniEventTime const *> >, COMDAT
; _this$ = ecx

; 434  : 		}

  00000	c3		 ret	 0
??1?$_Vector_val@PBUAniEventTime@@V?$allocator@PBUAniEventTime@@@std@@@std@@QAE@XZ ENDP ; std::_Vector_val<AniEventTime const *,std::allocator<AniEventTime const *> >::~_Vector_val<AniEventTime const *,std::allocator<AniEventTime const *> >
_TEXT	ENDS
PUBLIC	??0?$allocator@PBUAniEventTime@@@std@@QAE@XZ	; std::allocator<AniEventTime const *>::allocator<AniEventTime const *>
; Function compile flags: /Ogsp
; File c:\program files (x86)\microsoft visual studio 10.0\vc\include\xmemory
;	COMDAT ??0?$allocator@PBUAniEventTime@@@std@@QAE@XZ
_TEXT	SEGMENT
??0?$allocator@PBUAniEventTime@@@std@@QAE@XZ PROC	; std::allocator<AniEventTime const *>::allocator<AniEventTime const *>, COMDAT
; _this$ = ecx

; 161  : 	_ALLOCATOR() _THROW0()

  00000	8b c1		 mov	 eax, ecx

; 162  : 		{	// construct default allocator (do nothing)
; 163  : 		}

  00002	c3		 ret	 0
??0?$allocator@PBUAniEventTime@@@std@@QAE@XZ ENDP	; std::allocator<AniEventTime const *>::allocator<AniEventTime const *>
_TEXT	ENDS
PUBLIC	??D?$_Vector_const_iterator@V?$_Vector_val@PBUAniEventTime@@V?$allocator@PBUAniEventTime@@@std@@@std@@@std@@QBEABQBUAniEventTime@@XZ ; std::_Vector_const_iterator<std::_Vector_val<AniEventTime const *,std::allocator<AniEventTime const *> > >::operator*
; Function compile flags: /Ogsp
; File c:\program files (x86)\microsoft visual studio 10.0\vc\include\vector
;	COMDAT ??D?$_Vector_const_iterator@V?$_Vector_val@PBUAniEventTime@@V?$allocator@PBUAniEventTime@@@std@@@std@@@std@@QBEABQBUAniEventTime@@XZ
_TEXT	SEGMENT
??D?$_Vector_const_iterator@V?$_Vector_val@PBUAniEventTime@@V?$allocator@PBUAniEventTime@@@std@@@std@@@std@@QBEABQBUAniEventTime@@XZ PROC ; std::_Vector_const_iterator<std::_Vector_val<AniEventTime const *,std::allocator<AniEventTime const *> > >::operator*, COMDAT
; _this$ = ecx

; 64   :  #if _ITERATOR_DEBUG_LEVEL == 2
; 65   : 		if (this->_Getcont() == 0
; 66   : 			|| this->_Ptr == 0
; 67   : 			|| this->_Ptr < ((_Myvec *)this->_Getcont())->_Myfirst
; 68   : 			|| ((_Myvec *)this->_Getcont())->_Mylast <= this->_Ptr)
; 69   : 			{	// report error
; 70   : 			_DEBUG_ERROR("vector iterator not dereferencable");
; 71   : 			_SCL_SECURE_OUT_OF_RANGE;
; 72   : 			}
; 73   : 
; 74   :  #elif _ITERATOR_DEBUG_LEVEL == 1
; 75   : 		_SCL_SECURE_VALIDATE(this->_Getcont() != 0);
; 76   : 		_SCL_SECURE_VALIDATE_RANGE(
; 77   : 			this->_Ptr != 0
; 78   : 			&& ((_Myvec *)this->_Getcont())->_Myfirst <= this->_Ptr
; 79   : 			&& this->_Ptr < ((_Myvec *)this->_Getcont())->_Mylast);
; 80   :  #endif /* _ITERATOR_DEBUG_LEVEL */
; 81   : 
; 82   : 		__analysis_assume(this->_Ptr != 0);
; 83   : 
; 84   : 		return (*this->_Ptr);

  00000	8b 01		 mov	 eax, DWORD PTR [ecx]

; 85   : 		}

  00002	c3		 ret	 0
??D?$_Vector_const_iterator@V?$_Vector_val@PBUAniEventTime@@V?$allocator@PBUAniEventTime@@@std@@@std@@@std@@QBEABQBUAniEventTime@@XZ ENDP ; std::_Vector_const_iterator<std::_Vector_val<AniEventTime const *,std::allocator<AniEventTime const *> > >::operator*
_TEXT	ENDS
PUBLIC	??E?$_Vector_const_iterator@V?$_Vector_val@PBUAniEventTime@@V?$allocator@PBUAniEventTime@@@std@@@std@@@std@@QAEAAV01@XZ ; std::_Vector_const_iterator<std::_Vector_val<AniEventTime const *,std::allocator<AniEventTime const *> > >::operator++
; Function compile flags: /Ogsp
;	COMDAT ??E?$_Vector_const_iterator@V?$_Vector_val@PBUAniEventTime@@V?$allocator@PBUAniEventTime@@@std@@@std@@@std@@QAEAAV01@XZ
_TEXT	SEGMENT
??E?$_Vector_const_iterator@V?$_Vector_val@PBUAniEventTime@@V?$allocator@PBUAniEventTime@@@std@@@std@@@std@@QAEAAV01@XZ PROC ; std::_Vector_const_iterator<std::_Vector_val<AniEventTime const *,std::allocator<AniEventTime const *> > >::operator++, COMDAT
; _this$ = ecx

; 93   : 		{	// preincrement

  00000	8b c1		 mov	 eax, ecx

; 94   :  #if _ITERATOR_DEBUG_LEVEL == 2
; 95   : 		if (this->_Getcont() == 0
; 96   : 			|| this->_Ptr == 0
; 97   : 			|| ((_Myvec *)this->_Getcont())->_Mylast <= this->_Ptr)
; 98   : 			{	// report error
; 99   : 			_DEBUG_ERROR("vector iterator not incrementable");
; 100  : 			_SCL_SECURE_OUT_OF_RANGE;
; 101  : 			}
; 102  : 
; 103  :  #elif _ITERATOR_DEBUG_LEVEL == 1
; 104  : 		_SCL_SECURE_VALIDATE(this->_Getcont() != 0);
; 105  : 		_SCL_SECURE_VALIDATE_RANGE(
; 106  : 			this->_Ptr != 0
; 107  : 			&& this->_Ptr < ((_Myvec *)this->_Getcont())->_Mylast);
; 108  :  #endif /* _ITERATOR_DEBUG_LEVEL */
; 109  : 
; 110  : 		++this->_Ptr;

  00002	83 00 04	 add	 DWORD PTR [eax], 4

; 111  : 		return (*this);
; 112  : 		}

  00005	c3		 ret	 0
??E?$_Vector_const_iterator@V?$_Vector_val@PBUAniEventTime@@V?$allocator@PBUAniEventTime@@@std@@@std@@@std@@QAEAAV01@XZ ENDP ; std::_Vector_const_iterator<std::_Vector_val<AniEventTime const *,std::allocator<AniEventTime const *> > >::operator++
_TEXT	ENDS
PUBLIC	?capacity@?$vector@UAniRotateInfo@@V?$allocator@UAniRotateInfo@@@std@@@std@@QBEIXZ ; std::vector<AniRotateInfo,std::allocator<AniRotateInfo> >::capacity
; Function compile flags: /Ogsp
;	COMDAT ?capacity@?$vector@UAniRotateInfo@@V?$allocator@UAniRotateInfo@@@std@@@std@@QBEIXZ
_TEXT	SEGMENT
?capacity@?$vector@UAniRotateInfo@@V?$allocator@UAniRotateInfo@@@std@@@std@@QBEIXZ PROC ; std::vector<AniRotateInfo,std::allocator<AniRotateInfo> >::capacity, COMDAT
; _this$ = ecx

; 777  : 		return (this->_Myend - this->_Myfirst);

  00000	8b 41 08	 mov	 eax, DWORD PTR [ecx+8]
  00003	2b 01		 sub	 eax, DWORD PTR [ecx]
  00005	c1 f8 03	 sar	 eax, 3

; 778  : 		}

  00008	c3		 ret	 0
?capacity@?$vector@UAniRotateInfo@@V?$allocator@UAniRotateInfo@@@std@@@std@@QBEIXZ ENDP ; std::vector<AniRotateInfo,std::allocator<AniRotateInfo> >::capacity
_TEXT	ENDS
PUBLIC	?size@?$vector@UAniRotateInfo@@V?$allocator@UAniRotateInfo@@@std@@@std@@QBEIXZ ; std::vector<AniRotateInfo,std::allocator<AniRotateInfo> >::size
; Function compile flags: /Ogsp
;	COMDAT ?size@?$vector@UAniRotateInfo@@V?$allocator@UAniRotateInfo@@@std@@@std@@QBEIXZ
_TEXT	SEGMENT
?size@?$vector@UAniRotateInfo@@V?$allocator@UAniRotateInfo@@@std@@@std@@QBEIXZ PROC ; std::vector<AniRotateInfo,std::allocator<AniRotateInfo> >::size, COMDAT
; _this$ = ecx

; 879  : 		return (this->_Mylast - this->_Myfirst);

  00000	8b 41 04	 mov	 eax, DWORD PTR [ecx+4]
  00003	2b 01		 sub	 eax, DWORD PTR [ecx]
  00005	c1 f8 03	 sar	 eax, 3

; 880  : 		}

  00008	c3		 ret	 0
?size@?$vector@UAniRotateInfo@@V?$allocator@UAniRotateInfo@@@std@@@std@@QBEIXZ ENDP ; std::vector<AniRotateInfo,std::allocator<AniRotateInfo> >::size
_TEXT	ENDS
PUBLIC	??_C@_0BD@OLBABOEK@vector?$DMT?$DO?5too?5long?$AA@ ; `string'
PUBLIC	?_Xlen@?$vector@UAniRotateInfo@@V?$allocator@UAniRotateInfo@@@std@@@std@@IBEXXZ ; std::vector<AniRotateInfo,std::allocator<AniRotateInfo> >::_Xlen
EXTRN	__imp_?_Xlength_error@std@@YAXPBD@Z:PROC
;	COMDAT ??_C@_0BD@OLBABOEK@vector?$DMT?$DO?5too?5long?$AA@
CONST	SEGMENT
??_C@_0BD@OLBABOEK@vector?$DMT?$DO?5too?5long?$AA@ DB 'vector<T> too long'
	DB	00H						; `string'
; Function compile flags: /Ogsp
CONST	ENDS
;	COMDAT ?_Xlen@?$vector@UAniRotateInfo@@V?$allocator@UAniRotateInfo@@@std@@@std@@IBEXXZ
_TEXT	SEGMENT
?_Xlen@?$vector@UAniRotateInfo@@V?$allocator@UAniRotateInfo@@@std@@@std@@IBEXXZ PROC ; std::vector<AniRotateInfo,std::allocator<AniRotateInfo> >::_Xlen, COMDAT
; _this$ = ecx

; 1427 : 		_Xlength_error("vector<T> too long");

  00000	68 00 00 00 00	 push	 OFFSET ??_C@_0BD@OLBABOEK@vector?$DMT?$DO?5too?5long?$AA@
  00005	ff 15 00 00 00
	00		 call	 DWORD PTR __imp_?_Xlength_error@std@@YAXPBD@Z
$LN4@Xlen:
$LN3@Xlen:
  0000b	cc		 int	 3
?_Xlen@?$vector@UAniRotateInfo@@V?$allocator@UAniRotateInfo@@@std@@@std@@IBEXXZ ENDP ; std::vector<AniRotateInfo,std::allocator<AniRotateInfo> >::_Xlen
_TEXT	ENDS
PUBLIC	??0?$allocator@PBUAniEventTime@@@std@@QAE@ABV01@@Z ; std::allocator<AniEventTime const *>::allocator<AniEventTime const *>
; Function compile flags: /Ogsp
; File c:\program files (x86)\microsoft visual studio 10.0\vc\include\xmemory
;	COMDAT ??0?$allocator@PBUAniEventTime@@@std@@QAE@ABV01@@Z
_TEXT	SEGMENT
___formal$ = 8						; size = 4
??0?$allocator@PBUAniEventTime@@@std@@QAE@ABV01@@Z PROC	; std::allocator<AniEventTime const *>::allocator<AniEventTime const *>, COMDAT
; _this$ = ecx

; 165  : 	_ALLOCATOR(const _ALLOCATOR<_Ty>&) _THROW0()

  00000	8b c1		 mov	 eax, ecx

; 166  : 		{	// construct by copying (do nothing)
; 167  : 		}

  00002	c2 04 00	 ret	 4
??0?$allocator@PBUAniEventTime@@@std@@QAE@ABV01@@Z ENDP	; std::allocator<AniEventTime const *>::allocator<AniEventTime const *>
_TEXT	ENDS
PUBLIC	?deallocate@?$allocator@PBUAniEventTime@@@std@@QAEXPAPBUAniEventTime@@I@Z ; std::allocator<AniEventTime const *>::deallocate
; Function compile flags: /Ogsp
;	COMDAT ?deallocate@?$allocator@PBUAniEventTime@@@std@@QAEXPAPBUAniEventTime@@I@Z
_TEXT	SEGMENT
__Ptr$ = 8						; size = 4
___formal$ = 12						; size = 4
?deallocate@?$allocator@PBUAniEventTime@@@std@@QAEXPAPBUAniEventTime@@I@Z PROC ; std::allocator<AniEventTime const *>::deallocate, COMDAT
; _this$ = ecx

; 181  : 		{	// deallocate object at _Ptr, ignore size

  00000	55		 push	 ebp
  00001	8b ec		 mov	 ebp, esp

; 182  : 		::operator delete(_Ptr);

  00003	ff 75 08	 push	 DWORD PTR __Ptr$[ebp]
  00006	e8 00 00 00 00	 call	 ??3@YAXPAX@Z		; operator delete
  0000b	59		 pop	 ecx

; 183  : 		}

  0000c	5d		 pop	 ebp
  0000d	c2 08 00	 ret	 8
?deallocate@?$allocator@PBUAniEventTime@@@std@@QAEXPAPBUAniEventTime@@I@Z ENDP ; std::allocator<AniEventTime const *>::deallocate
_TEXT	ENDS
PUBLIC	??0?$_Vector_const_iterator@V?$_Vector_val@PBUAniEventTime@@V?$allocator@PBUAniEventTime@@@std@@@std@@@std@@QAE@PAPBUAniEventTime@@PBU_Container_base0@1@@Z ; std::_Vector_const_iterator<std::_Vector_val<AniEventTime const *,std::allocator<AniEventTime const *> > >::_Vector_const_iterator<std::_Vector_val<AniEventTime const *,std::allocator<AniEventTime const *> > >
; Function compile flags: /Ogsp
; File c:\program files (x86)\microsoft visual studio 10.0\vc\include\vector
;	COMDAT ??0?$_Vector_const_iterator@V?$_Vector_val@PBUAniEventTime@@V?$allocator@PBUAniEventTime@@@std@@@std@@@std@@QAE@PAPBUAniEventTime@@PBU_Container_base0@1@@Z
_TEXT	SEGMENT
__Parg$ = 8						; size = 4
__Pvector$ = 12						; size = 4
??0?$_Vector_const_iterator@V?$_Vector_val@PBUAniEventTime@@V?$allocator@PBUAniEventTime@@@std@@@std@@@std@@QAE@PAPBUAniEventTime@@PBU_Container_base0@1@@Z PROC ; std::_Vector_const_iterator<std::_Vector_val<AniEventTime const *,std::allocator<AniEventTime const *> > >::_Vector_const_iterator<std::_Vector_val<AniEventTime const *,std::allocator<AniEventTime const *> > >, COMDAT
; _this$ = ecx

; 45   : 		{	// construct with pointer _Parg

  00000	55		 push	 ebp
  00001	8b ec		 mov	 ebp, esp
  00003	8b c1		 mov	 eax, ecx
  00005	8b 4d 08	 mov	 ecx, DWORD PTR __Parg$[ebp]
  00008	89 08		 mov	 DWORD PTR [eax], ecx

; 46   : 		this->_Adopt(_Pvector);
; 47   : 		}

  0000a	5d		 pop	 ebp
  0000b	c2 08 00	 ret	 8
??0?$_Vector_const_iterator@V?$_Vector_val@PBUAniEventTime@@V?$allocator@PBUAniEventTime@@@std@@@std@@@std@@QAE@PAPBUAniEventTime@@PBU_Container_base0@1@@Z ENDP ; std::_Vector_const_iterator<std::_Vector_val<AniEventTime const *,std::allocator<AniEventTime const *> > >::_Vector_const_iterator<std::_Vector_val<AniEventTime const *,std::allocator<AniEventTime const *> > >
_TEXT	ENDS
PUBLIC	?_Compat@?$_Vector_const_iterator@V?$_Vector_val@PBUAniEventTime@@V?$allocator@PBUAniEventTime@@@std@@@std@@@std@@QBEXABV12@@Z ; std::_Vector_const_iterator<std::_Vector_val<AniEventTime const *,std::allocator<AniEventTime const *> > >::_Compat
; Function compile flags: /Ogsp
;	COMDAT ?_Compat@?$_Vector_const_iterator@V?$_Vector_val@PBUAniEventTime@@V?$allocator@PBUAniEventTime@@@std@@@std@@@std@@QBEXABV12@@Z
_TEXT	SEGMENT
___formal$ = 8						; size = 4
?_Compat@?$_Vector_const_iterator@V?$_Vector_val@PBUAniEventTime@@V?$allocator@PBUAniEventTime@@@std@@@std@@@std@@QBEXABV12@@Z PROC ; std::_Vector_const_iterator<std::_Vector_val<AniEventTime const *,std::allocator<AniEventTime const *> > >::_Compat, COMDAT
; _this$ = ecx

; 253  : 		}

  00000	c2 04 00	 ret	 4
?_Compat@?$_Vector_const_iterator@V?$_Vector_val@PBUAniEventTime@@V?$allocator@PBUAniEventTime@@@std@@@std@@@std@@QBEXABV12@@Z ENDP ; std::_Vector_const_iterator<std::_Vector_val<AniEventTime const *,std::allocator<AniEventTime const *> > >::_Compat
_TEXT	ENDS
PUBLIC	?deallocate@?$allocator@UAniRotateInfo@@@std@@QAEXPAUAniRotateInfo@@I@Z ; std::allocator<AniRotateInfo>::deallocate
; Function compile flags: /Ogsp
; File c:\program files (x86)\microsoft visual studio 10.0\vc\include\xmemory
;	COMDAT ?deallocate@?$allocator@UAniRotateInfo@@@std@@QAEXPAUAniRotateInfo@@I@Z
_TEXT	SEGMENT
__Ptr$ = 8						; size = 4
___formal$ = 12						; size = 4
?deallocate@?$allocator@UAniRotateInfo@@@std@@QAEXPAUAniRotateInfo@@I@Z PROC ; std::allocator<AniRotateInfo>::deallocate, COMDAT
; _this$ = ecx

; 181  : 		{	// deallocate object at _Ptr, ignore size

  00000	55		 push	 ebp
  00001	8b ec		 mov	 ebp, esp

; 182  : 		::operator delete(_Ptr);

  00003	ff 75 08	 push	 DWORD PTR __Ptr$[ebp]
  00006	e8 00 00 00 00	 call	 ??3@YAXPAX@Z		; operator delete
  0000b	59		 pop	 ecx

; 183  : 		}

  0000c	5d		 pop	 ebp
  0000d	c2 08 00	 ret	 8
?deallocate@?$allocator@UAniRotateInfo@@@std@@QAEXPAUAniRotateInfo@@I@Z ENDP ; std::allocator<AniRotateInfo>::deallocate
_TEXT	ENDS
PUBLIC	?max_size@?$allocator@UAniRotateInfo@@@std@@QBEIXZ ; std::allocator<AniRotateInfo>::max_size
; Function compile flags: /Ogsp
;	COMDAT ?max_size@?$allocator@UAniRotateInfo@@@std@@QBEIXZ
_TEXT	SEGMENT
?max_size@?$allocator@UAniRotateInfo@@@std@@QBEIXZ PROC	; std::allocator<AniRotateInfo>::max_size, COMDAT
; _this$ = ecx

; 218  : 		_SIZT _Count = (_SIZT)(-1) / sizeof (_Ty);
; 219  : 		return (0 < _Count ? _Count : 1);

  00000	b8 ff ff ff 1f	 mov	 eax, 536870911		; 1fffffffH

; 220  : 		}

  00005	c3		 ret	 0
?max_size@?$allocator@UAniRotateInfo@@@std@@QBEIXZ ENDP	; std::allocator<AniRotateInfo>::max_size
_TEXT	ENDS
PUBLIC	??0?$_Vector_const_iterator@V?$_Vector_val@UAniRotateInfo@@V?$allocator@UAniRotateInfo@@@std@@@std@@@std@@QAE@PAUAniRotateInfo@@PBU_Container_base0@1@@Z ; std::_Vector_const_iterator<std::_Vector_val<AniRotateInfo,std::allocator<AniRotateInfo> > >::_Vector_const_iterator<std::_Vector_val<AniRotateInfo,std::allocator<AniRotateInfo> > >
; Function compile flags: /Ogsp
; File c:\program files (x86)\microsoft visual studio 10.0\vc\include\vector
;	COMDAT ??0?$_Vector_const_iterator@V?$_Vector_val@UAniRotateInfo@@V?$allocator@UAniRotateInfo@@@std@@@std@@@std@@QAE@PAUAniRotateInfo@@PBU_Container_base0@1@@Z
_TEXT	SEGMENT
__Parg$ = 8						; size = 4
__Pvector$ = 12						; size = 4
??0?$_Vector_const_iterator@V?$_Vector_val@UAniRotateInfo@@V?$allocator@UAniRotateInfo@@@std@@@std@@@std@@QAE@PAUAniRotateInfo@@PBU_Container_base0@1@@Z PROC ; std::_Vector_const_iterator<std::_Vector_val<AniRotateInfo,std::allocator<AniRotateInfo> > >::_Vector_const_iterator<std::_Vector_val<AniRotateInfo,std::allocator<AniRotateInfo> > >, COMDAT
; _this$ = ecx

; 45   : 		{	// construct with pointer _Parg

  00000	55		 push	 ebp
  00001	8b ec		 mov	 ebp, esp
  00003	8b c1		 mov	 eax, ecx
  00005	8b 4d 08	 mov	 ecx, DWORD PTR __Parg$[ebp]
  00008	89 08		 mov	 DWORD PTR [eax], ecx

; 46   : 		this->_Adopt(_Pvector);
; 47   : 		}

  0000a	5d		 pop	 ebp
  0000b	c2 08 00	 ret	 8
??0?$_Vector_const_iterator@V?$_Vector_val@UAniRotateInfo@@V?$allocator@UAniRotateInfo@@@std@@@std@@@std@@QAE@PAUAniRotateInfo@@PBU_Container_base0@1@@Z ENDP ; std::_Vector_const_iterator<std::_Vector_val<AniRotateInfo,std::allocator<AniRotateInfo> > >::_Vector_const_iterator<std::_Vector_val<AniRotateInfo,std::allocator<AniRotateInfo> > >
_TEXT	ENDS
PUBLIC	?_Compat@?$_Vector_const_iterator@V?$_Vector_val@UAniRotateInfo@@V?$allocator@UAniRotateInfo@@@std@@@std@@@std@@QBEXABV12@@Z ; std::_Vector_const_iterator<std::_Vector_val<AniRotateInfo,std::allocator<AniRotateInfo> > >::_Compat
; Function compile flags: /Ogsp
;	COMDAT ?_Compat@?$_Vector_const_iterator@V?$_Vector_val@UAniRotateInfo@@V?$allocator@UAniRotateInfo@@@std@@@std@@@std@@QBEXABV12@@Z
_TEXT	SEGMENT
___formal$ = 8						; size = 4
?_Compat@?$_Vector_const_iterator@V?$_Vector_val@UAniRotateInfo@@V?$allocator@UAniRotateInfo@@@std@@@std@@@std@@QBEXABV12@@Z PROC ; std::_Vector_const_iterator<std::_Vector_val<AniRotateInfo,std::allocator<AniRotateInfo> > >::_Compat, COMDAT
; _this$ = ecx

; 253  : 		}

  00000	c2 04 00	 ret	 4
?_Compat@?$_Vector_const_iterator@V?$_Vector_val@UAniRotateInfo@@V?$allocator@UAniRotateInfo@@@std@@@std@@@std@@QBEXABV12@@Z ENDP ; std::_Vector_const_iterator<std::_Vector_val<AniRotateInfo,std::allocator<AniRotateInfo> > >::_Compat
_TEXT	ENDS
PUBLIC	__real@3f91df46a2526c7a
PUBLIC	??$DEGtoRAD@M@@YAMM@Z				; DEGtoRAD<float>
;	COMDAT __real@3f91df46a2526c7a
; File d:\lost saga for developer\youtube\tutorial\source\src\lsclient\veryoftenusedefine.h
CONST	SEGMENT
__real@3f91df46a2526c7a DQ 03f91df46a2526c7ar	; 0.0174533
; Function compile flags: /Ogsp
CONST	ENDS
;	COMDAT ??$DEGtoRAD@M@@YAMM@Z
_TEXT	SEGMENT
tv129 = 8						; size = 4
_val$ = 8						; size = 4
??$DEGtoRAD@M@@YAMM@Z PROC				; DEGtoRAD<float>, COMDAT

; 20   : type  DEGtoRAD (type val) {return (type) (val * 0.0174532925199);}

  00000	55		 push	 ebp
  00001	8b ec		 mov	 ebp, esp
  00003	d9 45 08	 fld	 DWORD PTR _val$[ebp]
  00006	dc 0d 00 00 00
	00		 fmul	 QWORD PTR __real@3f91df46a2526c7a
  0000c	d9 5d 08	 fstp	 DWORD PTR tv129[ebp]
  0000f	d9 45 08	 fld	 DWORD PTR tv129[ebp]
  00012	5d		 pop	 ebp
  00013	c3		 ret	 0
??$DEGtoRAD@M@@YAMM@Z ENDP				; DEGtoRAD<float>
_TEXT	ENDS
PUBLIC	??0D3DXVECTOR3@@QAE@XZ				; D3DXVECTOR3::D3DXVECTOR3
; Function compile flags: /Ogsp
; File c:\program files (x86)\microsoft directx sdk (june 2010)\include\d3dx9math.h
;	COMDAT ??0D3DXVECTOR3@@QAE@XZ
_TEXT	SEGMENT
??0D3DXVECTOR3@@QAE@XZ PROC				; D3DXVECTOR3::D3DXVECTOR3, COMDAT
; _this$ = ecx

; 165  :     D3DXVECTOR3() {};

  00000	8b c1		 mov	 eax, ecx
  00002	c3		 ret	 0
??0D3DXVECTOR3@@QAE@XZ ENDP				; D3DXVECTOR3::D3DXVECTOR3
_TEXT	ENDS
PUBLIC	??0D3DXQUATERNION@@QAE@XZ			; D3DXQUATERNION::D3DXQUATERNION
; Function compile flags: /Ogsp
;	COMDAT ??0D3DXQUATERNION@@QAE@XZ
_TEXT	SEGMENT
??0D3DXQUATERNION@@QAE@XZ PROC				; D3DXQUATERNION::D3DXQUATERNION, COMDAT
; _this$ = ecx

; 429  :     D3DXQUATERNION() {}

  00000	8b c1		 mov	 eax, ecx
  00002	c3		 ret	 0
??0D3DXQUATERNION@@QAE@XZ ENDP				; D3DXQUATERNION::D3DXQUATERNION
_TEXT	ENDS
PUBLIC	??0D3DXVECTOR3@@QAE@MMM@Z			; D3DXVECTOR3::D3DXVECTOR3
; Function compile flags: /Ogsp
; File c:\program files (x86)\microsoft directx sdk (june 2010)\include\d3dx9math.inl
;	COMDAT ??0D3DXVECTOR3@@QAE@MMM@Z
_TEXT	SEGMENT
_fx$ = 8						; size = 4
_fy$ = 12						; size = 4
_fz$ = 16						; size = 4
??0D3DXVECTOR3@@QAE@MMM@Z PROC				; D3DXVECTOR3::D3DXVECTOR3, COMDAT
; _this$ = ecx

; 303  : {

  00000	55		 push	 ebp
  00001	8b ec		 mov	 ebp, esp

; 304  :     x = fx;

  00003	f3 0f 10 45 08	 movss	 xmm0, DWORD PTR _fx$[ebp]
  00008	8b c1		 mov	 eax, ecx
  0000a	f3 0f 11 00	 movss	 DWORD PTR [eax], xmm0

; 305  :     y = fy;

  0000e	f3 0f 10 45 0c	 movss	 xmm0, DWORD PTR _fy$[ebp]
  00013	f3 0f 11 40 04	 movss	 DWORD PTR [eax+4], xmm0

; 306  :     z = fz;

  00018	f3 0f 10 45 10	 movss	 xmm0, DWORD PTR _fz$[ebp]
  0001d	f3 0f 11 40 08	 movss	 DWORD PTR [eax+8], xmm0

; 307  : }

  00022	5d		 pop	 ebp
  00023	c2 0c 00	 ret	 12			; 0000000cH
??0D3DXVECTOR3@@QAE@MMM@Z ENDP				; D3DXVECTOR3::D3DXVECTOR3
_TEXT	ENDS
PUBLIC	__mask@@NegFloat@
PUBLIC	??GD3DXVECTOR3@@QBE?AU0@XZ			; D3DXVECTOR3::operator-
;	COMDAT __mask@@NegFloat@
CONST	SEGMENT
__mask@@NegFloat@ DB 00H, 00H, 00H, 080H, 00H, 00H, 00H, 080H, 00H, 00H, 00H
	DB	080H, 00H, 00H, 00H, 080H
; Function compile flags: /Ogsp
CONST	ENDS
;	COMDAT ??GD3DXVECTOR3@@QBE?AU0@XZ
_TEXT	SEGMENT
___$ReturnUdt$ = 8					; size = 4
??GD3DXVECTOR3@@QBE?AU0@XZ PROC				; D3DXVECTOR3::operator-, COMDAT
; _this$ = ecx

; 372  : {

  00000	55		 push	 ebp
  00001	8b ec		 mov	 ebp, esp

; 373  :     return D3DXVECTOR3(-x, -y, -z);

  00003	f3 0f 10 05 00
	00 00 00	 movss	 xmm0, DWORD PTR __mask@@NegFloat@
  0000b	8b 45 08	 mov	 eax, DWORD PTR ___$ReturnUdt$[ebp]
  0000e	f3 0f 10 09	 movss	 xmm1, DWORD PTR [ecx]
  00012	0f 57 c8	 xorps	 xmm1, xmm0
  00015	f3 0f 11 08	 movss	 DWORD PTR [eax], xmm1
  00019	f3 0f 10 49 04	 movss	 xmm1, DWORD PTR [ecx+4]
  0001e	0f 57 c8	 xorps	 xmm1, xmm0
  00021	f3 0f 11 48 04	 movss	 DWORD PTR [eax+4], xmm1
  00026	f3 0f 10 49 08	 movss	 xmm1, DWORD PTR [ecx+8]
  0002b	0f 57 c8	 xorps	 xmm1, xmm0
  0002e	f3 0f 11 48 08	 movss	 DWORD PTR [eax+8], xmm1

; 374  : }

  00033	5d		 pop	 ebp
  00034	c2 04 00	 ret	 4
??GD3DXVECTOR3@@QBE?AU0@XZ ENDP				; D3DXVECTOR3::operator-
_TEXT	ENDS
PUBLIC	??8D3DXVECTOR3@@QBEHABU0@@Z			; D3DXVECTOR3::operator==
; Function compile flags: /Ogsp
;	COMDAT ??8D3DXVECTOR3@@QBEHABU0@@Z
_TEXT	SEGMENT
_v$ = 8							; size = 4
??8D3DXVECTOR3@@QBEHABU0@@Z PROC			; D3DXVECTOR3::operator==, COMDAT
; _this$ = ecx

; 413  : {

  00000	55		 push	 ebp
  00001	8b ec		 mov	 ebp, esp

; 414  :     return x == v.x && y == v.y && z == v.z;

  00003	8b 55 08	 mov	 edx, DWORD PTR _v$[ebp]
  00006	f3 0f 10 01	 movss	 xmm0, DWORD PTR [ecx]
  0000a	f3 0f 10 0a	 movss	 xmm1, DWORD PTR [edx]
  0000e	0f 5a c0	 cvtps2pd xmm0, xmm0
  00011	0f 5a c9	 cvtps2pd xmm1, xmm1
  00014	66 0f 2e c1	 ucomisd xmm0, xmm1
  00018	9f		 lahf
  00019	f6 c4 44	 test	 ah, 68			; 00000044H
  0001c	7a 39		 jp	 SHORT $LN3@operator
  0001e	f3 0f 10 41 04	 movss	 xmm0, DWORD PTR [ecx+4]
  00023	f3 0f 10 4a 04	 movss	 xmm1, DWORD PTR [edx+4]
  00028	0f 5a c0	 cvtps2pd xmm0, xmm0
  0002b	0f 5a c9	 cvtps2pd xmm1, xmm1
  0002e	66 0f 2e c1	 ucomisd xmm0, xmm1
  00032	9f		 lahf
  00033	f6 c4 44	 test	 ah, 68			; 00000044H
  00036	7a 1f		 jp	 SHORT $LN3@operator
  00038	f3 0f 10 41 08	 movss	 xmm0, DWORD PTR [ecx+8]
  0003d	f3 0f 10 4a 08	 movss	 xmm1, DWORD PTR [edx+8]
  00042	0f 5a c0	 cvtps2pd xmm0, xmm0
  00045	0f 5a c9	 cvtps2pd xmm1, xmm1
  00048	66 0f 2e c1	 ucomisd xmm0, xmm1
  0004c	9f		 lahf
  0004d	f6 c4 44	 test	 ah, 68			; 00000044H
  00050	7a 05		 jp	 SHORT $LN3@operator
  00052	33 c0		 xor	 eax, eax
  00054	40		 inc	 eax
  00055	eb 02		 jmp	 SHORT $LN4@operator
$LN3@operator:
  00057	33 c0		 xor	 eax, eax
$LN4@operator:

; 415  : }

  00059	5d		 pop	 ebp
  0005a	c2 04 00	 ret	 4
??8D3DXVECTOR3@@QBEHABU0@@Z ENDP			; D3DXVECTOR3::operator==
_TEXT	ENDS
PUBLIC	??$addressof@$$CBUAniRotateInfo@@@std@@YAPBUAniRotateInfo@@ABU1@@Z ; std::addressof<AniRotateInfo const >
; Function compile flags: /Ogsp
; File c:\program files (x86)\microsoft visual studio 10.0\vc\include\xmemory
;	COMDAT ??$addressof@$$CBUAniRotateInfo@@@std@@YAPBUAniRotateInfo@@ABU1@@Z
_TEXT	SEGMENT
__Val$ = 8						; size = 4
??$addressof@$$CBUAniRotateInfo@@@std@@YAPBUAniRotateInfo@@ABU1@@Z PROC ; std::addressof<AniRotateInfo const >, COMDAT

; 110  : 	{	// return address of _Val

  00000	55		 push	 ebp
  00001	8b ec		 mov	 ebp, esp

; 111  : 	return ((_Ty *) &(char&)_Val);

  00003	8b 45 08	 mov	 eax, DWORD PTR __Val$[ebp]

; 112  : 	}

  00006	5d		 pop	 ebp
  00007	c3		 ret	 0
??$addressof@$$CBUAniRotateInfo@@@std@@YAPBUAniRotateInfo@@ABU1@@Z ENDP ; std::addressof<AniRotateInfo const >
_TEXT	ENDS
PUBLIC	__TI2?AVbad_alloc@std@@
PUBLIC	??$_Allocate@UAniRotateInfo@@@std@@YAPAUAniRotateInfo@@IPAU1@@Z ; std::_Allocate<AniRotateInfo>
PUBLIC	__CTA2?AVbad_alloc@std@@
PUBLIC	__CT??_R0?AVbad_alloc@std@@@8??0bad_alloc@std@@QAE@ABV01@@Z12
PUBLIC	??0bad_alloc@std@@QAE@ABV01@@Z			; std::bad_alloc::bad_alloc
PUBLIC	__CT??_R0?AVexception@std@@@8??0exception@std@@QAE@ABV01@@Z12
EXTRN	??2@YAPAXI@Z:PROC				; operator new
EXTRN	__CxxThrowException@8:PROC
EXTRN	??0exception@std@@QAE@ABV01@@Z:PROC		; std::exception::exception
;	COMDAT __CT??_R0?AVexception@std@@@8??0exception@std@@QAE@ABV01@@Z12
; File c:\program files (x86)\microsoft visual studio 10.0\vc\include\exception
xdata$x	SEGMENT
__CT??_R0?AVexception@std@@@8??0exception@std@@QAE@ABV01@@Z12 DD 00H
	DD	FLAT:??_R0?AVexception@std@@@8
	DD	00H
	DD	0ffffffffH
	ORG $+4
	DD	0cH
	DD	FLAT:??0exception@std@@QAE@ABV01@@Z
xdata$x	ENDS
;	COMDAT __CT??_R0?AVbad_alloc@std@@@8??0bad_alloc@std@@QAE@ABV01@@Z12
xdata$x	SEGMENT
__CT??_R0?AVbad_alloc@std@@@8??0bad_alloc@std@@QAE@ABV01@@Z12 DD 00H
	DD	FLAT:??_R0?AVbad_alloc@std@@@8
	DD	00H
	DD	0ffffffffH
	ORG $+4
	DD	0cH
	DD	FLAT:??0bad_alloc@std@@QAE@ABV01@@Z
xdata$x	ENDS
;	COMDAT __CTA2?AVbad_alloc@std@@
xdata$x	SEGMENT
__CTA2?AVbad_alloc@std@@ DD 02H
	DD	FLAT:__CT??_R0?AVbad_alloc@std@@@8??0bad_alloc@std@@QAE@ABV01@@Z12
	DD	FLAT:__CT??_R0?AVexception@std@@@8??0exception@std@@QAE@ABV01@@Z12
xdata$x	ENDS
;	COMDAT __TI2?AVbad_alloc@std@@
xdata$x	SEGMENT
__TI2?AVbad_alloc@std@@ DD 00H
	DD	FLAT:??1bad_alloc@std@@UAE@XZ
	DD	00H
	DD	FLAT:__CTA2?AVbad_alloc@std@@
; Function compile flags: /Ogsp
; File c:\program files (x86)\microsoft visual studio 10.0\vc\include\xmemory
xdata$x	ENDS
;	COMDAT ??$_Allocate@UAniRotateInfo@@@std@@YAPAUAniRotateInfo@@IPAU1@@Z
_TEXT	SEGMENT
$T536077 = -12						; size = 12
$T536082 = 8						; size = 4
__Count$ = 8						; size = 4
___formal$ = 12						; size = 4
??$_Allocate@UAniRotateInfo@@@std@@YAPAUAniRotateInfo@@IPAU1@@Z PROC ; std::_Allocate<AniRotateInfo>, COMDAT

; 30   : 	{	// allocate storage for _Count elements of type _Ty

  00000	55		 push	 ebp
  00001	8b ec		 mov	 ebp, esp

; 31   : 	void *_Ptr = 0;
; 32   : 
; 33   : 	if (_Count <= 0)

  00003	8b 4d 08	 mov	 ecx, DWORD PTR __Count$[ebp]
  00006	83 ec 0c	 sub	 esp, 12			; 0000000cH
  00009	33 c0		 xor	 eax, eax
  0000b	85 c9		 test	 ecx, ecx

; 34   : 		_Count = 0;
; 35   : 	else if (((_SIZT)(-1) / sizeof (_Ty) < _Count)

  0000d	74 3e		 je	 SHORT $LN5@Allocate

; 36   : 		|| (_Ptr = ::operator new(_Count * sizeof (_Ty))) == 0)

  0000f	81 f9 ff ff ff
	1f		 cmp	 ecx, 536870911		; 1fffffffH
  00015	77 10		 ja	 SHORT $LN1@Allocate
  00017	8b c1		 mov	 eax, ecx
  00019	c1 e0 03	 shl	 eax, 3
  0001c	50		 push	 eax
  0001d	e8 00 00 00 00	 call	 ??2@YAPAXI@Z		; operator new
  00022	59		 pop	 ecx
  00023	85 c0		 test	 eax, eax

; 38   : 
; 39   : 	return ((_Ty _FARQ *)_Ptr);

  00025	75 26		 jne	 SHORT $LN5@Allocate
$LN1@Allocate:

; 37   : 		_THROW_NCEE(bad_alloc, 0);

  00027	83 65 08 00	 and	 DWORD PTR $T536082[ebp], 0
  0002b	8d 45 08	 lea	 eax, DWORD PTR $T536082[ebp]
  0002e	50		 push	 eax
  0002f	8d 4d f4	 lea	 ecx, DWORD PTR $T536077[ebp]
  00032	ff 15 00 00 00
	00		 call	 DWORD PTR __imp_??0exception@std@@QAE@ABQBD@Z
  00038	68 00 00 00 00	 push	 OFFSET __TI2?AVbad_alloc@std@@
  0003d	8d 45 f4	 lea	 eax, DWORD PTR $T536077[ebp]
  00040	50		 push	 eax
  00041	c7 45 f4 00 00
	00 00		 mov	 DWORD PTR $T536077[ebp], OFFSET ??_7bad_alloc@std@@6B@
  00048	e8 00 00 00 00	 call	 __CxxThrowException@8
$LN10@Allocate:
$LN5@Allocate:

; 40   : 	}

  0004d	c9		 leave
  0004e	c3		 ret	 0
$LN9@Allocate:
??$_Allocate@UAniRotateInfo@@@std@@YAPAUAniRotateInfo@@IPAU1@@Z ENDP ; std::_Allocate<AniRotateInfo>
_TEXT	ENDS
PUBLIC	??$forward@AAUAniRotateInfo@@@std@@YAAAUAniRotateInfo@@AAU1@@Z ; std::forward<AniRotateInfo &>
; Function compile flags: /Ogsp
; File c:\program files (x86)\microsoft visual studio 10.0\vc\include\utility
;	COMDAT ??$forward@AAUAniRotateInfo@@@std@@YAAAUAniRotateInfo@@AAU1@@Z
_TEXT	SEGMENT
__Arg$ = 8						; size = 4
??$forward@AAUAniRotateInfo@@@std@@YAAAUAniRotateInfo@@AAU1@@Z PROC ; std::forward<AniRotateInfo &>, COMDAT

; 78   : 	{	// forward _Arg, given explicitly specified type parameter

  00000	55		 push	 ebp
  00001	8b ec		 mov	 ebp, esp

; 79   : 	return ((_Ty&&)_Arg);

  00003	8b 45 08	 mov	 eax, DWORD PTR __Arg$[ebp]

; 80   : 	}

  00006	5d		 pop	 ebp
  00007	c3		 ret	 0
??$forward@AAUAniRotateInfo@@@std@@YAAAUAniRotateInfo@@AAU1@@Z ENDP ; std::forward<AniRotateInfo &>
_TEXT	ENDS
PUBLIC	??$construct@AAUAniRotateInfo@@@?$allocator@UAniRotateInfo@@@std@@QAEXPAUAniRotateInfo@@AAU2@@Z ; std::allocator<AniRotateInfo>::construct<AniRotateInfo &>
; Function compile flags: /Ogsp
; File c:\program files (x86)\microsoft visual studio 10.0\vc\include\xmemory
;	COMDAT ??$construct@AAUAniRotateInfo@@@?$allocator@UAniRotateInfo@@@std@@QAEXPAUAniRotateInfo@@AAU2@@Z
_TEXT	SEGMENT
__Ptr$ = 8						; size = 4
__Val$ = 12						; size = 4
??$construct@AAUAniRotateInfo@@@?$allocator@UAniRotateInfo@@@std@@QAEXPAUAniRotateInfo@@AAU2@@Z PROC ; std::allocator<AniRotateInfo>::construct<AniRotateInfo &>, COMDAT
; _this$ = ecx

; 206  : 		void construct(pointer _Ptr, _Other&& _Val)

  00000	55		 push	 ebp
  00001	8b ec		 mov	 ebp, esp

; 207  : 		{	// construct object at _Ptr with value _Val
; 208  : 		::new ((void _FARQ *)_Ptr) _Ty(_STD forward<_Other>(_Val));

  00003	8b 45 08	 mov	 eax, DWORD PTR __Ptr$[ebp]
  00006	85 c0		 test	 eax, eax
  00008	74 0d		 je	 SHORT $LN3@construct
  0000a	8b 4d 0c	 mov	 ecx, DWORD PTR __Val$[ebp]
  0000d	8b 11		 mov	 edx, DWORD PTR [ecx]
  0000f	89 10		 mov	 DWORD PTR [eax], edx
  00011	8b 49 04	 mov	 ecx, DWORD PTR [ecx+4]
  00014	89 48 04	 mov	 DWORD PTR [eax+4], ecx
$LN3@construct:

; 209  : 		}

  00017	5d		 pop	 ebp
  00018	c2 08 00	 ret	 8
??$construct@AAUAniRotateInfo@@@?$allocator@UAniRotateInfo@@@std@@QAEXPAUAniRotateInfo@@AAU2@@Z ENDP ; std::allocator<AniRotateInfo>::construct<AniRotateInfo &>
_TEXT	ENDS
PUBLIC	??$forward@ABUAniRotateInfo@@@std@@YAABUAniRotateInfo@@ABU1@@Z ; std::forward<AniRotateInfo const &>
; Function compile flags: /Ogsp
; File c:\program files (x86)\microsoft visual studio 10.0\vc\include\utility
;	COMDAT ??$forward@ABUAniRotateInfo@@@std@@YAABUAniRotateInfo@@ABU1@@Z
_TEXT	SEGMENT
__Arg$ = 8						; size = 4
??$forward@ABUAniRotateInfo@@@std@@YAABUAniRotateInfo@@ABU1@@Z PROC ; std::forward<AniRotateInfo const &>, COMDAT

; 78   : 	{	// forward _Arg, given explicitly specified type parameter

  00000	55		 push	 ebp
  00001	8b ec		 mov	 ebp, esp

; 79   : 	return ((_Ty&&)_Arg);

  00003	8b 45 08	 mov	 eax, DWORD PTR __Arg$[ebp]

; 80   : 	}

  00006	5d		 pop	 ebp
  00007	c3		 ret	 0
??$forward@ABUAniRotateInfo@@@std@@YAABUAniRotateInfo@@ABU1@@Z ENDP ; std::forward<AniRotateInfo const &>
_TEXT	ENDS
PUBLIC	??$_Ptr_cat@UAniRotateInfo@@U1@@std@@YA?AU_Nonscalar_ptr_iterator_tag@0@PAUAniRotateInfo@@0@Z ; std::_Ptr_cat<AniRotateInfo,AniRotateInfo>
; Function compile flags: /Ogsp
; File c:\program files (x86)\microsoft visual studio 10.0\vc\include\xutility
;	COMDAT ??$_Ptr_cat@UAniRotateInfo@@U1@@std@@YA?AU_Nonscalar_ptr_iterator_tag@0@PAUAniRotateInfo@@0@Z
_TEXT	SEGMENT
__Cat$ = -1						; size = 1
___formal$ = 8						; size = 4
___formal$ = 12						; size = 4
??$_Ptr_cat@UAniRotateInfo@@U1@@std@@YA?AU_Nonscalar_ptr_iterator_tag@0@PAUAniRotateInfo@@0@Z PROC ; std::_Ptr_cat<AniRotateInfo,AniRotateInfo>, COMDAT

; 516  : 	{	// return pointer category from pointers

  00000	55		 push	 ebp
  00001	8b ec		 mov	 ebp, esp
  00003	51		 push	 ecx

; 517  : 	typename _Ptr_cat_helper<_Elem1, _Elem2>::_Type _Cat;
; 518  : 	return (_Cat);

  00004	8a 45 ff	 mov	 al, BYTE PTR __Cat$[ebp]

; 519  : 	}

  00007	c9		 leave
  00008	c3		 ret	 0
??$_Ptr_cat@UAniRotateInfo@@U1@@std@@YA?AU_Nonscalar_ptr_iterator_tag@0@PAUAniRotateInfo@@0@Z ENDP ; std::_Ptr_cat<AniRotateInfo,AniRotateInfo>
_TEXT	ENDS
PUBLIC	??$_Ptr_cat@PBUAniEventTime@@PBU1@@std@@YA?AU_Scalar_ptr_iterator_tag@0@PAPBUAniEventTime@@0@Z ; std::_Ptr_cat<AniEventTime const *,AniEventTime const *>
; Function compile flags: /Ogsp
;	COMDAT ??$_Ptr_cat@PBUAniEventTime@@PBU1@@std@@YA?AU_Scalar_ptr_iterator_tag@0@PAPBUAniEventTime@@0@Z
_TEXT	SEGMENT
__Cat$ = -1						; size = 1
___formal$ = 8						; size = 4
___formal$ = 12						; size = 4
??$_Ptr_cat@PBUAniEventTime@@PBU1@@std@@YA?AU_Scalar_ptr_iterator_tag@0@PAPBUAniEventTime@@0@Z PROC ; std::_Ptr_cat<AniEventTime const *,AniEventTime const *>, COMDAT

; 516  : 	{	// return pointer category from pointers

  00000	55		 push	 ebp
  00001	8b ec		 mov	 ebp, esp
  00003	51		 push	 ecx

; 517  : 	typename _Ptr_cat_helper<_Elem1, _Elem2>::_Type _Cat;
; 518  : 	return (_Cat);

  00004	8a 45 ff	 mov	 al, BYTE PTR __Cat$[ebp]

; 519  : 	}

  00007	c9		 leave
  00008	c3		 ret	 0
??$_Ptr_cat@PBUAniEventTime@@PBU1@@std@@YA?AU_Scalar_ptr_iterator_tag@0@PAPBUAniEventTime@@0@Z ENDP ; std::_Ptr_cat<AniEventTime const *,AniEventTime const *>
_TEXT	ENDS
PUBLIC	??$_Destroy_range@V?$allocator@PBUAniEventTime@@@std@@@std@@YAXPAPBUAniEventTime@@0AAV?$allocator@PBUAniEventTime@@@0@U_Scalar_ptr_iterator_tag@0@@Z ; std::_Destroy_range<std::allocator<AniEventTime const *> >
; Function compile flags: /Ogsp
; File c:\program files (x86)\microsoft visual studio 10.0\vc\include\xmemory
;	COMDAT ??$_Destroy_range@V?$allocator@PBUAniEventTime@@@std@@@std@@YAXPAPBUAniEventTime@@0AAV?$allocator@PBUAniEventTime@@@0@U_Scalar_ptr_iterator_tag@0@@Z
_TEXT	SEGMENT
__First$ = 8						; size = 4
__Last$ = 12						; size = 4
__Al$ = 16						; size = 4
___formal$ = 20						; size = 1
??$_Destroy_range@V?$allocator@PBUAniEventTime@@@std@@@std@@YAXPAPBUAniEventTime@@0AAV?$allocator@PBUAniEventTime@@@0@U_Scalar_ptr_iterator_tag@0@@Z PROC ; std::_Destroy_range<std::allocator<AniEventTime const *> >, COMDAT

; 105  : 	}

  00000	c3		 ret	 0
??$_Destroy_range@V?$allocator@PBUAniEventTime@@@std@@@std@@YAXPAPBUAniEventTime@@0AAV?$allocator@PBUAniEventTime@@@0@U_Scalar_ptr_iterator_tag@0@@Z ENDP ; std::_Destroy_range<std::allocator<AniEventTime const *> >
_TEXT	ENDS
PUBLIC	??$_Construct@UAniRotateInfo@@ABU1@@std@@YAXPAUAniRotateInfo@@ABU1@@Z ; std::_Construct<AniRotateInfo,AniRotateInfo const &>
; Function compile flags: /Ogsp
;	COMDAT ??$_Construct@UAniRotateInfo@@ABU1@@std@@YAXPAUAniRotateInfo@@ABU1@@Z
_TEXT	SEGMENT
__Ptr$ = 8						; size = 4
__Val$ = 12						; size = 4
??$_Construct@UAniRotateInfo@@ABU1@@std@@YAXPAUAniRotateInfo@@ABU1@@Z PROC ; std::_Construct<AniRotateInfo,AniRotateInfo const &>, COMDAT

; 46   : 	{	// construct object at _Ptr with value _Val

  00000	55		 push	 ebp
  00001	8b ec		 mov	 ebp, esp

; 47   : 	void _FARQ *_Vptr = _Ptr;
; 48   : 	::new (_Vptr) _Ty1(_STD forward<_Ty2>(_Val));

  00003	8b 45 08	 mov	 eax, DWORD PTR __Ptr$[ebp]
  00006	85 c0		 test	 eax, eax
  00008	74 0d		 je	 SHORT $LN3@Construct
  0000a	8b 4d 0c	 mov	 ecx, DWORD PTR __Val$[ebp]
  0000d	8b 11		 mov	 edx, DWORD PTR [ecx]
  0000f	89 10		 mov	 DWORD PTR [eax], edx
  00011	8b 49 04	 mov	 ecx, DWORD PTR [ecx+4]
  00014	89 48 04	 mov	 DWORD PTR [eax+4], ecx
$LN3@Construct:

; 49   : 	}

  00017	5d		 pop	 ebp
  00018	c3		 ret	 0
??$_Construct@UAniRotateInfo@@ABU1@@std@@YAXPAUAniRotateInfo@@ABU1@@Z ENDP ; std::_Construct<AniRotateInfo,AniRotateInfo const &>
_TEXT	ENDS
PUBLIC	??$_Ptr_cat@V?$_Vector_const_iterator@V?$_Vector_val@UWeaponInfo@@V?$allocator@UWeaponInfo@@@std@@@std@@@std@@PAUWeaponInfo@@@std@@YA?AU_Nonscalar_ptr_iterator_tag@0@AAV?$_Vector_const_iterator@V?$_Vector_val@UWeaponInfo@@V?$allocator@UWeaponInfo@@@std@@@std@@@0@AAPAUWeaponInfo@@@Z ; std::_Ptr_cat<std::_Vector_const_iterator<std::_Vector_val<WeaponInfo,std::allocator<WeaponInfo> > >,WeaponInfo *>
; Function compile flags: /Ogsp
; File c:\program files (x86)\microsoft visual studio 10.0\vc\include\xutility
;	COMDAT ??$_Ptr_cat@V?$_Vector_const_iterator@V?$_Vector_val@UWeaponInfo@@V?$allocator@UWeaponInfo@@@std@@@std@@@std@@PAUWeaponInfo@@@std@@YA?AU_Nonscalar_ptr_iterator_tag@0@AAV?$_Vector_const_iterator@V?$_Vector_val@UWeaponInfo@@V?$allocator@UWeaponInfo@@@std@@@std@@@0@AAPAUWeaponInfo@@@Z
_TEXT	SEGMENT
__Cat$ = -1						; size = 1
___formal$ = 8						; size = 4
___formal$ = 12						; size = 4
??$_Ptr_cat@V?$_Vector_const_iterator@V?$_Vector_val@UWeaponInfo@@V?$allocator@UWeaponInfo@@@std@@@std@@@std@@PAUWeaponInfo@@@std@@YA?AU_Nonscalar_ptr_iterator_tag@0@AAV?$_Vector_const_iterator@V?$_Vector_val@UWeaponInfo@@V?$allocator@UWeaponInfo@@@std@@@std@@@0@AAPAUWeaponInfo@@@Z PROC ; std::_Ptr_cat<std::_Vector_const_iterator<std::_Vector_val<WeaponInfo,std::allocator<WeaponInfo> > >,WeaponInfo *>, COMDAT

; 485  : 	{	// return pointer category from arbitrary arguments

  00000	55		 push	 ebp
  00001	8b ec		 mov	 ebp, esp
  00003	51		 push	 ecx

; 486  : 	_Nonscalar_ptr_iterator_tag _Cat;
; 487  : 	return (_Cat);

  00004	8a 45 ff	 mov	 al, BYTE PTR __Cat$[ebp]

; 488  : 	}

  00007	c9		 leave
  00008	c3		 ret	 0
??$_Ptr_cat@V?$_Vector_const_iterator@V?$_Vector_val@UWeaponInfo@@V?$allocator@UWeaponInfo@@@std@@@std@@@std@@PAUWeaponInfo@@@std@@YA?AU_Nonscalar_ptr_iterator_tag@0@AAV?$_Vector_const_iterator@V?$_Vector_val@UWeaponInfo@@V?$allocator@UWeaponInfo@@@std@@@std@@@0@AAPAUWeaponInfo@@@Z ENDP ; std::_Ptr_cat<std::_Vector_const_iterator<std::_Vector_val<WeaponInfo,std::allocator<WeaponInfo> > >,WeaponInfo *>
_TEXT	ENDS
PUBLIC	??$_Ptr_cat@V?$_Vector_const_iterator@V?$_Vector_val@UForceInfo@@V?$allocator@UForceInfo@@@std@@@std@@@std@@PAUForceInfo@@@std@@YA?AU_Nonscalar_ptr_iterator_tag@0@AAV?$_Vector_const_iterator@V?$_Vector_val@UForceInfo@@V?$allocator@UForceInfo@@@std@@@std@@@0@AAPAUForceInfo@@@Z ; std::_Ptr_cat<std::_Vector_const_iterator<std::_Vector_val<ForceInfo,std::allocator<ForceInfo> > >,ForceInfo *>
; Function compile flags: /Ogsp
;	COMDAT ??$_Ptr_cat@V?$_Vector_const_iterator@V?$_Vector_val@UForceInfo@@V?$allocator@UForceInfo@@@std@@@std@@@std@@PAUForceInfo@@@std@@YA?AU_Nonscalar_ptr_iterator_tag@0@AAV?$_Vector_const_iterator@V?$_Vector_val@UForceInfo@@V?$allocator@UForceInfo@@@std@@@std@@@0@AAPAUForceInfo@@@Z
_TEXT	SEGMENT
__Cat$ = -1						; size = 1
___formal$ = 8						; size = 4
___formal$ = 12						; size = 4
??$_Ptr_cat@V?$_Vector_const_iterator@V?$_Vector_val@UForceInfo@@V?$allocator@UForceInfo@@@std@@@std@@@std@@PAUForceInfo@@@std@@YA?AU_Nonscalar_ptr_iterator_tag@0@AAV?$_Vector_const_iterator@V?$_Vector_val@UForceInfo@@V?$allocator@UForceInfo@@@std@@@std@@@0@AAPAUForceInfo@@@Z PROC ; std::_Ptr_cat<std::_Vector_const_iterator<std::_Vector_val<ForceInfo,std::allocator<ForceInfo> > >,ForceInfo *>, COMDAT

; 485  : 	{	// return pointer category from arbitrary arguments

  00000	55		 push	 ebp
  00001	8b ec		 mov	 ebp, esp
  00003	51		 push	 ecx

; 486  : 	_Nonscalar_ptr_iterator_tag _Cat;
; 487  : 	return (_Cat);

  00004	8a 45 ff	 mov	 al, BYTE PTR __Cat$[ebp]

; 488  : 	}

  00007	c9		 leave
  00008	c3		 ret	 0
??$_Ptr_cat@V?$_Vector_const_iterator@V?$_Vector_val@UForceInfo@@V?$allocator@UForceInfo@@@std@@@std@@@std@@PAUForceInfo@@@std@@YA?AU_Nonscalar_ptr_iterator_tag@0@AAV?$_Vector_const_iterator@V?$_Vector_val@UForceInfo@@V?$allocator@UForceInfo@@@std@@@std@@@0@AAPAUForceInfo@@@Z ENDP ; std::_Ptr_cat<std::_Vector_const_iterator<std::_Vector_val<ForceInfo,std::allocator<ForceInfo> > >,ForceInfo *>
_TEXT	ENDS
PUBLIC	??$move@AAUAniRotateInfo@@@std@@YA$$QAUAniRotateInfo@@AAU1@@Z ; std::move<AniRotateInfo &>
; Function compile flags: /Ogsp
; File c:\program files (x86)\microsoft visual studio 10.0\vc\include\utility
;	COMDAT ??$move@AAUAniRotateInfo@@@std@@YA$$QAUAniRotateInfo@@AAU1@@Z
_TEXT	SEGMENT
__Arg$ = 8						; size = 4
??$move@AAUAniRotateInfo@@@std@@YA$$QAUAniRotateInfo@@AAU1@@Z PROC ; std::move<AniRotateInfo &>, COMDAT

; 86   : 	{	// forward _Arg as movable

  00000	55		 push	 ebp
  00001	8b ec		 mov	 ebp, esp

; 87   : 	return ((typename tr1::_Remove_reference<_Ty>::_Type&&)_Arg);

  00003	8b 45 08	 mov	 eax, DWORD PTR __Arg$[ebp]

; 88   : 	}

  00006	5d		 pop	 ebp
  00007	c3		 ret	 0
??$move@AAUAniRotateInfo@@@std@@YA$$QAUAniRotateInfo@@AAU1@@Z ENDP ; std::move<AniRotateInfo &>
_TEXT	ENDS
PUBLIC	??$_Val_type@PAUAniRotateInfo@@@std@@YAPAUAniRotateInfo@@PAU1@@Z ; std::_Val_type<AniRotateInfo *>
; Function compile flags: /Ogsp
; File c:\program files (x86)\microsoft visual studio 10.0\vc\include\xutility
;	COMDAT ??$_Val_type@PAUAniRotateInfo@@@std@@YAPAUAniRotateInfo@@PAU1@@Z
_TEXT	SEGMENT
___formal$ = 8						; size = 4
??$_Val_type@PAUAniRotateInfo@@@std@@YAPAUAniRotateInfo@@PAU1@@Z PROC ; std::_Val_type<AniRotateInfo *>, COMDAT

; 790  : 	return (0);

  00000	33 c0		 xor	 eax, eax

; 791  : 	}

  00002	c3		 ret	 0
??$_Val_type@PAUAniRotateInfo@@@std@@YAPAUAniRotateInfo@@PAU1@@Z ENDP ; std::_Val_type<AniRotateInfo *>
_TEXT	ENDS
PUBLIC	??D?$_Vector_const_iterator@V?$_Vector_val@UWeaponInfo@@V?$allocator@UWeaponInfo@@@std@@@std@@@std@@QBEABUWeaponInfo@@XZ ; std::_Vector_const_iterator<std::_Vector_val<WeaponInfo,std::allocator<WeaponInfo> > >::operator*
; Function compile flags: /Ogsp
; File c:\program files (x86)\microsoft visual studio 10.0\vc\include\vector
;	COMDAT ??D?$_Vector_const_iterator@V?$_Vector_val@UWeaponInfo@@V?$allocator@UWeaponInfo@@@std@@@std@@@std@@QBEABUWeaponInfo@@XZ
_TEXT	SEGMENT
??D?$_Vector_const_iterator@V?$_Vector_val@UWeaponInfo@@V?$allocator@UWeaponInfo@@@std@@@std@@@std@@QBEABUWeaponInfo@@XZ PROC ; std::_Vector_const_iterator<std::_Vector_val<WeaponInfo,std::allocator<WeaponInfo> > >::operator*, COMDAT
; _this$ = ecx

; 64   :  #if _ITERATOR_DEBUG_LEVEL == 2
; 65   : 		if (this->_Getcont() == 0
; 66   : 			|| this->_Ptr == 0
; 67   : 			|| this->_Ptr < ((_Myvec *)this->_Getcont())->_Myfirst
; 68   : 			|| ((_Myvec *)this->_Getcont())->_Mylast <= this->_Ptr)
; 69   : 			{	// report error
; 70   : 			_DEBUG_ERROR("vector iterator not dereferencable");
; 71   : 			_SCL_SECURE_OUT_OF_RANGE;
; 72   : 			}
; 73   : 
; 74   :  #elif _ITERATOR_DEBUG_LEVEL == 1
; 75   : 		_SCL_SECURE_VALIDATE(this->_Getcont() != 0);
; 76   : 		_SCL_SECURE_VALIDATE_RANGE(
; 77   : 			this->_Ptr != 0
; 78   : 			&& ((_Myvec *)this->_Getcont())->_Myfirst <= this->_Ptr
; 79   : 			&& this->_Ptr < ((_Myvec *)this->_Getcont())->_Mylast);
; 80   :  #endif /* _ITERATOR_DEBUG_LEVEL */
; 81   : 
; 82   : 		__analysis_assume(this->_Ptr != 0);
; 83   : 
; 84   : 		return (*this->_Ptr);

  00000	8b 01		 mov	 eax, DWORD PTR [ecx]

; 85   : 		}

  00002	c3		 ret	 0
??D?$_Vector_const_iterator@V?$_Vector_val@UWeaponInfo@@V?$allocator@UWeaponInfo@@@std@@@std@@@std@@QBEABUWeaponInfo@@XZ ENDP ; std::_Vector_const_iterator<std::_Vector_val<WeaponInfo,std::allocator<WeaponInfo> > >::operator*
_TEXT	ENDS
PUBLIC	??E?$_Vector_const_iterator@V?$_Vector_val@UWeaponInfo@@V?$allocator@UWeaponInfo@@@std@@@std@@@std@@QAEAAV01@XZ ; std::_Vector_const_iterator<std::_Vector_val<WeaponInfo,std::allocator<WeaponInfo> > >::operator++
; Function compile flags: /Ogsp
;	COMDAT ??E?$_Vector_const_iterator@V?$_Vector_val@UWeaponInfo@@V?$allocator@UWeaponInfo@@@std@@@std@@@std@@QAEAAV01@XZ
_TEXT	SEGMENT
??E?$_Vector_const_iterator@V?$_Vector_val@UWeaponInfo@@V?$allocator@UWeaponInfo@@@std@@@std@@@std@@QAEAAV01@XZ PROC ; std::_Vector_const_iterator<std::_Vector_val<WeaponInfo,std::allocator<WeaponInfo> > >::operator++, COMDAT
; _this$ = ecx

; 93   : 		{	// preincrement

  00000	8b c1		 mov	 eax, ecx

; 94   :  #if _ITERATOR_DEBUG_LEVEL == 2
; 95   : 		if (this->_Getcont() == 0
; 96   : 			|| this->_Ptr == 0
; 97   : 			|| ((_Myvec *)this->_Getcont())->_Mylast <= this->_Ptr)
; 98   : 			{	// report error
; 99   : 			_DEBUG_ERROR("vector iterator not incrementable");
; 100  : 			_SCL_SECURE_OUT_OF_RANGE;
; 101  : 			}
; 102  : 
; 103  :  #elif _ITERATOR_DEBUG_LEVEL == 1
; 104  : 		_SCL_SECURE_VALIDATE(this->_Getcont() != 0);
; 105  : 		_SCL_SECURE_VALIDATE_RANGE(
; 106  : 			this->_Ptr != 0
; 107  : 			&& this->_Ptr < ((_Myvec *)this->_Getcont())->_Mylast);
; 108  :  #endif /* _ITERATOR_DEBUG_LEVEL */
; 109  : 
; 110  : 		++this->_Ptr;

  00002	83 00 28	 add	 DWORD PTR [eax], 40	; 00000028H

; 111  : 		return (*this);
; 112  : 		}

  00005	c3		 ret	 0
??E?$_Vector_const_iterator@V?$_Vector_val@UWeaponInfo@@V?$allocator@UWeaponInfo@@@std@@@std@@@std@@QAEAAV01@XZ ENDP ; std::_Vector_const_iterator<std::_Vector_val<WeaponInfo,std::allocator<WeaponInfo> > >::operator++
_TEXT	ENDS
PUBLIC	??D?$_Vector_const_iterator@V?$_Vector_val@UForceInfo@@V?$allocator@UForceInfo@@@std@@@std@@@std@@QBEABUForceInfo@@XZ ; std::_Vector_const_iterator<std::_Vector_val<ForceInfo,std::allocator<ForceInfo> > >::operator*
; Function compile flags: /Ogsp
;	COMDAT ??D?$_Vector_const_iterator@V?$_Vector_val@UForceInfo@@V?$allocator@UForceInfo@@@std@@@std@@@std@@QBEABUForceInfo@@XZ
_TEXT	SEGMENT
??D?$_Vector_const_iterator@V?$_Vector_val@UForceInfo@@V?$allocator@UForceInfo@@@std@@@std@@@std@@QBEABUForceInfo@@XZ PROC ; std::_Vector_const_iterator<std::_Vector_val<ForceInfo,std::allocator<ForceInfo> > >::operator*, COMDAT
; _this$ = ecx

; 64   :  #if _ITERATOR_DEBUG_LEVEL == 2
; 65   : 		if (this->_Getcont() == 0
; 66   : 			|| this->_Ptr == 0
; 67   : 			|| this->_Ptr < ((_Myvec *)this->_Getcont())->_Myfirst
; 68   : 			|| ((_Myvec *)this->_Getcont())->_Mylast <= this->_Ptr)
; 69   : 			{	// report error
; 70   : 			_DEBUG_ERROR("vector iterator not dereferencable");
; 71   : 			_SCL_SECURE_OUT_OF_RANGE;
; 72   : 			}
; 73   : 
; 74   :  #elif _ITERATOR_DEBUG_LEVEL == 1
; 75   : 		_SCL_SECURE_VALIDATE(this->_Getcont() != 0);
; 76   : 		_SCL_SECURE_VALIDATE_RANGE(
; 77   : 			this->_Ptr != 0
; 78   : 			&& ((_Myvec *)this->_Getcont())->_Myfirst <= this->_Ptr
; 79   : 			&& this->_Ptr < ((_Myvec *)this->_Getcont())->_Mylast);
; 80   :  #endif /* _ITERATOR_DEBUG_LEVEL */
; 81   : 
; 82   : 		__analysis_assume(this->_Ptr != 0);
; 83   : 
; 84   : 		return (*this->_Ptr);

  00000	8b 01		 mov	 eax, DWORD PTR [ecx]

; 85   : 		}

  00002	c3		 ret	 0
??D?$_Vector_const_iterator@V?$_Vector_val@UForceInfo@@V?$allocator@UForceInfo@@@std@@@std@@@std@@QBEABUForceInfo@@XZ ENDP ; std::_Vector_const_iterator<std::_Vector_val<ForceInfo,std::allocator<ForceInfo> > >::operator*
_TEXT	ENDS
PUBLIC	??E?$_Vector_const_iterator@V?$_Vector_val@UForceInfo@@V?$allocator@UForceInfo@@@std@@@std@@@std@@QAEAAV01@XZ ; std::_Vector_const_iterator<std::_Vector_val<ForceInfo,std::allocator<ForceInfo> > >::operator++
; Function compile flags: /Ogsp
;	COMDAT ??E?$_Vector_const_iterator@V?$_Vector_val@UForceInfo@@V?$allocator@UForceInfo@@@std@@@std@@@std@@QAEAAV01@XZ
_TEXT	SEGMENT
??E?$_Vector_const_iterator@V?$_Vector_val@UForceInfo@@V?$allocator@UForceInfo@@@std@@@std@@@std@@QAEAAV01@XZ PROC ; std::_Vector_const_iterator<std::_Vector_val<ForceInfo,std::allocator<ForceInfo> > >::operator++, COMDAT
; _this$ = ecx

; 93   : 		{	// preincrement

  00000	8b c1		 mov	 eax, ecx

; 94   :  #if _ITERATOR_DEBUG_LEVEL == 2
; 95   : 		if (this->_Getcont() == 0
; 96   : 			|| this->_Ptr == 0
; 97   : 			|| ((_Myvec *)this->_Getcont())->_Mylast <= this->_Ptr)
; 98   : 			{	// report error
; 99   : 			_DEBUG_ERROR("vector iterator not incrementable");
; 100  : 			_SCL_SECURE_OUT_OF_RANGE;
; 101  : 			}
; 102  : 
; 103  :  #elif _ITERATOR_DEBUG_LEVEL == 1
; 104  : 		_SCL_SECURE_VALIDATE(this->_Getcont() != 0);
; 105  : 		_SCL_SECURE_VALIDATE_RANGE(
; 106  : 			this->_Ptr != 0
; 107  : 			&& this->_Ptr < ((_Myvec *)this->_Getcont())->_Mylast);
; 108  :  #endif /* _ITERATOR_DEBUG_LEVEL */
; 109  : 
; 110  : 		++this->_Ptr;

  00002	83 00 0c	 add	 DWORD PTR [eax], 12	; 0000000cH

; 111  : 		return (*this);
; 112  : 		}

  00005	c3		 ret	 0
??E?$_Vector_const_iterator@V?$_Vector_val@UForceInfo@@V?$allocator@UForceInfo@@@std@@@std@@@std@@QAEAAV01@XZ ENDP ; std::_Vector_const_iterator<std::_Vector_val<ForceInfo,std::allocator<ForceInfo> > >::operator++
_TEXT	ENDS
PUBLIC	??$_Destroy@UAniRotateInfo@@@std@@YAXPAUAniRotateInfo@@@Z ; std::_Destroy<AniRotateInfo>
; Function compile flags: /Ogsp
; File c:\program files (x86)\microsoft visual studio 10.0\vc\include\xmemory
;	COMDAT ??$_Destroy@UAniRotateInfo@@@std@@YAXPAUAniRotateInfo@@@Z
_TEXT	SEGMENT
__Ptr$ = 8						; size = 4
??$_Destroy@UAniRotateInfo@@@std@@YAXPAUAniRotateInfo@@@Z PROC ; std::_Destroy<AniRotateInfo>, COMDAT

; 63   : 	_Ptr->~_Ty();
; 64   : 	}

  00000	c3		 ret	 0
??$_Destroy@UAniRotateInfo@@@std@@YAXPAUAniRotateInfo@@@Z ENDP ; std::_Destroy<AniRotateInfo>
_TEXT	ENDS
PUBLIC	??$forward@ABUWeaponInfo@@@std@@YAABUWeaponInfo@@ABU1@@Z ; std::forward<WeaponInfo const &>
; Function compile flags: /Ogsp
; File c:\program files (x86)\microsoft visual studio 10.0\vc\include\utility
;	COMDAT ??$forward@ABUWeaponInfo@@@std@@YAABUWeaponInfo@@ABU1@@Z
_TEXT	SEGMENT
__Arg$ = 8						; size = 4
??$forward@ABUWeaponInfo@@@std@@YAABUWeaponInfo@@ABU1@@Z PROC ; std::forward<WeaponInfo const &>, COMDAT

; 78   : 	{	// forward _Arg, given explicitly specified type parameter

  00000	55		 push	 ebp
  00001	8b ec		 mov	 ebp, esp

; 79   : 	return ((_Ty&&)_Arg);

  00003	8b 45 08	 mov	 eax, DWORD PTR __Arg$[ebp]

; 80   : 	}

  00006	5d		 pop	 ebp
  00007	c3		 ret	 0
??$forward@ABUWeaponInfo@@@std@@YAABUWeaponInfo@@ABU1@@Z ENDP ; std::forward<WeaponInfo const &>
_TEXT	ENDS
PUBLIC	??$forward@ABUForceInfo@@@std@@YAABUForceInfo@@ABU1@@Z ; std::forward<ForceInfo const &>
; Function compile flags: /Ogsp
;	COMDAT ??$forward@ABUForceInfo@@@std@@YAABUForceInfo@@ABU1@@Z
_TEXT	SEGMENT
__Arg$ = 8						; size = 4
??$forward@ABUForceInfo@@@std@@YAABUForceInfo@@ABU1@@Z PROC ; std::forward<ForceInfo const &>, COMDAT

; 78   : 	{	// forward _Arg, given explicitly specified type parameter

  00000	55		 push	 ebp
  00001	8b ec		 mov	 ebp, esp

; 79   : 	return ((_Ty&&)_Arg);

  00003	8b 45 08	 mov	 eax, DWORD PTR __Arg$[ebp]

; 80   : 	}

  00006	5d		 pop	 ebp
  00007	c3		 ret	 0
??$forward@ABUForceInfo@@@std@@YAABUForceInfo@@ABU1@@Z ENDP ; std::forward<ForceInfo const &>
_TEXT	ENDS
PUBLIC	??$forward@UAniRotateInfo@@@std@@YA$$QAUAniRotateInfo@@AAU1@@Z ; std::forward<AniRotateInfo>
; Function compile flags: /Ogsp
;	COMDAT ??$forward@UAniRotateInfo@@@std@@YA$$QAUAniRotateInfo@@AAU1@@Z
_TEXT	SEGMENT
__Arg$ = 8						; size = 4
??$forward@UAniRotateInfo@@@std@@YA$$QAUAniRotateInfo@@AAU1@@Z PROC ; std::forward<AniRotateInfo>, COMDAT

; 78   : 	{	// forward _Arg, given explicitly specified type parameter

  00000	55		 push	 ebp
  00001	8b ec		 mov	 ebp, esp

; 79   : 	return ((_Ty&&)_Arg);

  00003	8b 45 08	 mov	 eax, DWORD PTR __Arg$[ebp]

; 80   : 	}

  00006	5d		 pop	 ebp
  00007	c3		 ret	 0
??$forward@UAniRotateInfo@@@std@@YA$$QAUAniRotateInfo@@AAU1@@Z ENDP ; std::forward<AniRotateInfo>
_TEXT	ENDS
PUBLIC	??$_Construct@UForceInfo@@ABU1@@std@@YAXPAUForceInfo@@ABU1@@Z ; std::_Construct<ForceInfo,ForceInfo const &>
; Function compile flags: /Ogsp
; File c:\program files (x86)\microsoft visual studio 10.0\vc\include\xmemory
;	COMDAT ??$_Construct@UForceInfo@@ABU1@@std@@YAXPAUForceInfo@@ABU1@@Z
_TEXT	SEGMENT
__Ptr$ = 8						; size = 4
__Val$ = 12						; size = 4
??$_Construct@UForceInfo@@ABU1@@std@@YAXPAUForceInfo@@ABU1@@Z PROC ; std::_Construct<ForceInfo,ForceInfo const &>, COMDAT

; 46   : 	{	// construct object at _Ptr with value _Val

  00000	55		 push	 ebp
  00001	8b ec		 mov	 ebp, esp
  00003	57		 push	 edi

; 47   : 	void _FARQ *_Vptr = _Ptr;
; 48   : 	::new (_Vptr) _Ty1(_STD forward<_Ty2>(_Val));

  00004	8b 7d 08	 mov	 edi, DWORD PTR __Ptr$[ebp]
  00007	85 ff		 test	 edi, edi
  00009	74 08		 je	 SHORT $LN3@Construct@2
  0000b	56		 push	 esi
  0000c	8b 75 0c	 mov	 esi, DWORD PTR __Val$[ebp]
  0000f	a5		 movsd
  00010	a5		 movsd
  00011	a5		 movsd
  00012	5e		 pop	 esi
$LN3@Construct@2:
  00013	5f		 pop	 edi

; 49   : 	}

  00014	5d		 pop	 ebp
  00015	c3		 ret	 0
??$_Construct@UForceInfo@@ABU1@@std@@YAXPAUForceInfo@@ABU1@@Z ENDP ; std::_Construct<ForceInfo,ForceInfo const &>
_TEXT	ENDS
PUBLIC	?D3DXVec3Dot@@YAMPBUD3DXVECTOR3@@0@Z		; D3DXVec3Dot
; Function compile flags: /Ogsp
; File c:\program files (x86)\microsoft directx sdk (june 2010)\include\d3dx9math.inl
;	COMDAT ?D3DXVec3Dot@@YAMPBUD3DXVECTOR3@@0@Z
_TEXT	SEGMENT
tv188 = 8						; size = 4
_pV1$ = 8						; size = 4
_pV2$ = 12						; size = 4
?D3DXVec3Dot@@YAMPBUD3DXVECTOR3@@0@Z PROC		; D3DXVec3Dot, COMDAT

; 1736 : {

  00000	55		 push	 ebp
  00001	8b ec		 mov	 ebp, esp

; 1737 : #ifdef D3DX_DEBUG
; 1738 :     if(!pV1 || !pV2)
; 1739 :         return 0.0f;
; 1740 : #endif
; 1741 : 
; 1742 :     return pV1->x * pV2->x + pV1->y * pV2->y + pV1->z * pV2->z;

  00003	8b 45 08	 mov	 eax, DWORD PTR _pV1$[ebp]
  00006	8b 4d 0c	 mov	 ecx, DWORD PTR _pV2$[ebp]
  00009	d9 40 04	 fld	 DWORD PTR [eax+4]
  0000c	d8 49 04	 fmul	 DWORD PTR [ecx+4]
  0000f	d9 00		 fld	 DWORD PTR [eax]
  00011	d8 09		 fmul	 DWORD PTR [ecx]
  00013	de c1		 faddp	 ST(1), ST(0)
  00015	d9 40 08	 fld	 DWORD PTR [eax+8]
  00018	d8 49 08	 fmul	 DWORD PTR [ecx+8]
  0001b	de c1		 faddp	 ST(1), ST(0)
  0001d	d9 5d 08	 fstp	 DWORD PTR tv188[ebp]
  00020	d9 45 08	 fld	 DWORD PTR tv188[ebp]

; 1743 : }

  00023	5d		 pop	 ebp
  00024	c3		 ret	 0
?D3DXVec3Dot@@YAMPBUD3DXVECTOR3@@0@Z ENDP		; D3DXVec3Dot
_TEXT	ENDS
PUBLIC	?D3DXVec3Cross@@YAPAUD3DXVECTOR3@@PAU1@PBU1@1@Z	; D3DXVec3Cross
; Function compile flags: /Ogsp
;	COMDAT ?D3DXVec3Cross@@YAPAUD3DXVECTOR3@@PAU1@PBU1@1@Z
_TEXT	SEGMENT
_v$ = -12						; size = 12
_pOut$ = 8						; size = 4
_pV1$ = 12						; size = 4
_pV2$ = 16						; size = 4
?D3DXVec3Cross@@YAPAUD3DXVECTOR3@@PAU1@PBU1@1@Z PROC	; D3DXVec3Cross, COMDAT

; 1747 : {

  00000	55		 push	 ebp
  00001	8b ec		 mov	 ebp, esp
  00003	83 ec 0c	 sub	 esp, 12			; 0000000cH

; 1757 :     v.z = pV1->x * pV2->y - pV1->y * pV2->x;
; 1758 : 
; 1759 :     *pOut = v;

  00006	56		 push	 esi
  00007	57		 push	 edi

; 1748 :     D3DXVECTOR3 v;
; 1749 : 
; 1750 : #ifdef D3DX_DEBUG
; 1751 :     if(!pOut || !pV1 || !pV2)
; 1752 :         return NULL;
; 1753 : #endif
; 1754 : 
; 1755 :     v.x = pV1->y * pV2->z - pV1->z * pV2->y;

  00008	8b 45 0c	 mov	 eax, DWORD PTR _pV1$[ebp]
  0000b	f3 0f 10 40 04	 movss	 xmm0, DWORD PTR [eax+4]
  00010	f3 0f 10 50 08	 movss	 xmm2, DWORD PTR [eax+8]
  00015	8b 4d 10	 mov	 ecx, DWORD PTR _pV2$[ebp]
  00018	f3 0f 10 49 08	 movss	 xmm1, DWORD PTR [ecx+8]
  0001d	f3 0f 10 59 04	 movss	 xmm3, DWORD PTR [ecx+4]
  00022	0f 5a e8	 cvtps2pd xmm5, xmm0
  00025	0f 5a e1	 cvtps2pd xmm4, xmm1
  00028	0f 5a f2	 cvtps2pd xmm6, xmm2
  0002b	f2 0f 59 e5	 mulsd	 xmm4, xmm5

; 1756 :     v.y = pV1->z * pV2->x - pV1->x * pV2->z;

  0002f	0f 5a d2	 cvtps2pd xmm2, xmm2
  00032	0f 5a c9	 cvtps2pd xmm1, xmm1
  00035	0f 5a eb	 cvtps2pd xmm5, xmm3
  00038	f2 0f 59 ee	 mulsd	 xmm5, xmm6
  0003c	f2 0f 5c e5	 subsd	 xmm4, xmm5
  00040	f3 0f 10 28	 movss	 xmm5, DWORD PTR [eax]

; 1757 :     v.z = pV1->x * pV2->y - pV1->y * pV2->x;
; 1758 : 
; 1759 :     *pOut = v;

  00044	8b 45 08	 mov	 eax, DWORD PTR _pOut$[ebp]
  00047	66 0f 5a e4	 cvtpd2ps xmm4, xmm4
  0004b	f3 0f 11 65 f4	 movss	 DWORD PTR _v$[ebp], xmm4
  00050	f3 0f 10 21	 movss	 xmm4, DWORD PTR [ecx]
  00054	0f 5a f4	 cvtps2pd xmm6, xmm4
  00057	f2 0f 59 f2	 mulsd	 xmm6, xmm2
  0005b	0f 5a d5	 cvtps2pd xmm2, xmm5
  0005e	f2 0f 59 d1	 mulsd	 xmm2, xmm1
  00062	f2 0f 5c f2	 subsd	 xmm6, xmm2
  00066	66 0f 5a ce	 cvtpd2ps xmm1, xmm6
  0006a	f3 0f 11 4d f8	 movss	 DWORD PTR _v$[ebp+4], xmm1
  0006f	0f 5a c0	 cvtps2pd xmm0, xmm0
  00072	0f 5a d3	 cvtps2pd xmm2, xmm3
  00075	0f 5a cd	 cvtps2pd xmm1, xmm5
  00078	f2 0f 59 ca	 mulsd	 xmm1, xmm2
  0007c	8d 75 f4	 lea	 esi, DWORD PTR _v$[ebp]
  0007f	8b f8		 mov	 edi, eax
  00081	0f 5a d4	 cvtps2pd xmm2, xmm4
  00084	f2 0f 59 d0	 mulsd	 xmm2, xmm0
  00088	f2 0f 5c ca	 subsd	 xmm1, xmm2
  0008c	66 0f 5a c1	 cvtpd2ps xmm0, xmm1
  00090	f3 0f 11 45 fc	 movss	 DWORD PTR _v$[ebp+8], xmm0
  00095	a5		 movsd
  00096	a5		 movsd
  00097	a5		 movsd
  00098	5f		 pop	 edi
  00099	5e		 pop	 esi

; 1760 :     return pOut;
; 1761 : }

  0009a	c9		 leave
  0009b	c3		 ret	 0
?D3DXVec3Cross@@YAPAUD3DXVECTOR3@@PAU1@PBU1@1@Z ENDP	; D3DXVec3Cross
_TEXT	ENDS
PUBLIC	?_DECSTR@@YAXPADH@Z				; _DECSTR
; Function compile flags: /Ogsp
; File d:\lost saga for developer\youtube\tutorial\source\src\lsclient\stringprotect.h
;	COMDAT ?_DECSTR@@YAXPADH@Z
_TEXT	SEGMENT
_s$ = 8							; size = 4
_l$ = 12						; size = 4
?_DECSTR@@YAXPADH@Z PROC				; _DECSTR, COMDAT

; 40   : __forceinline void _DECSTR(char* s, int l){int i=0,l4=(l-1)/4,*p=(int*)s;s[l-1]=0;for(;i<l4;++i)*(p++)^=0xEAEBECED;for(i=l4*4;i<l-1;++i)s[i]^=0xED-i%4;}

  00000	55		 push	 ebp
  00001	8b ec		 mov	 ebp, esp
  00003	8b 4d 0c	 mov	 ecx, DWORD PTR _l$[ebp]
  00006	56		 push	 esi
  00007	8b 75 08	 mov	 esi, DWORD PTR _s$[ebp]
  0000a	57		 push	 edi
  0000b	8d 79 ff	 lea	 edi, DWORD PTR [ecx-1]
  0000e	8b c7		 mov	 eax, edi
  00010	99		 cdq
  00011	83 e2 03	 and	 edx, 3
  00014	03 c2		 add	 eax, edx
  00016	c1 f8 02	 sar	 eax, 2
  00019	8b d6		 mov	 edx, esi
  0001b	c6 44 0e ff 00	 mov	 BYTE PTR [esi+ecx-1], 0
  00020	85 c0		 test	 eax, eax
  00022	7e 0e		 jle	 SHORT $LN4@DECSTR
  00024	8b c8		 mov	 ecx, eax
$LL6@DECSTR:
  00026	81 32 ed ec eb
	ea		 xor	 DWORD PTR [edx], -353637139 ; eaebecedH
  0002c	83 c2 04	 add	 edx, 4
  0002f	49		 dec	 ecx
  00030	75 f4		 jne	 SHORT $LL6@DECSTR
$LN4@DECSTR:
  00032	c1 e0 02	 shl	 eax, 2
  00035	eb 17		 jmp	 SHORT $LN14@DECSTR
$LL3@DECSTR:
  00037	8b c8		 mov	 ecx, eax
  00039	81 e1 03 00 00
	80		 and	 ecx, -2147483645	; 80000003H
  0003f	79 05		 jns	 SHORT $LN13@DECSTR
  00041	49		 dec	 ecx
  00042	83 c9 fc	 or	 ecx, -4			; fffffffcH
  00045	41		 inc	 ecx
$LN13@DECSTR:
  00046	b2 ed		 mov	 dl, -19			; ffffffedH
  00048	2a d1		 sub	 dl, cl
  0004a	30 14 30	 xor	 BYTE PTR [eax+esi], dl
  0004d	40		 inc	 eax
$LN14@DECSTR:
  0004e	3b c7		 cmp	 eax, edi
  00050	7c e5		 jl	 SHORT $LL3@DECSTR
  00052	5f		 pop	 edi
  00053	5e		 pop	 esi
  00054	5d		 pop	 ebp
  00055	c3		 ret	 0
?_DECSTR@@YAXPADH@Z ENDP				; _DECSTR
_TEXT	ENDS
PUBLIC	?return57@@YAIXZ				; return57
; Function compile flags: /Ogsp
; File d:\lost saga for developer\youtube\tutorial\source\src\lsclient\veryoftenusedefine.h
;	COMDAT ?return57@@YAIXZ
_TEXT	SEGMENT
?return57@@YAIXZ PROC					; return57, COMDAT

; 15   : __forceinline unsigned int return57() { __asm mov eax, 57 };

  00000	b8 39 00 00 00	 mov	 eax, 57			; 00000039H
  00005	c3		 ret	 0
?return57@@YAIXZ ENDP					; return57
_TEXT	ENDS
PUBLIC	?GetGroup@ioGameEntity@@QBEPAVioEntityGroup@@XZ	; ioGameEntity::GetGroup
; Function compile flags: /Ogsp
; File d:\lost saga for developer\youtube\tutorial\source\src\lsclient\iogameentity.h
;	COMDAT ?GetGroup@ioGameEntity@@QBEPAVioEntityGroup@@XZ
_TEXT	SEGMENT
?GetGroup@ioGameEntity@@QBEPAVioEntityGroup@@XZ PROC	; ioGameEntity::GetGroup, COMDAT
; _this$ = ecx

; 166  : 	inline ioEntityGroup* GetGroup() const { return m_pGroup; }

  00000	8b 41 04	 mov	 eax, DWORD PTR [ecx+4]
  00003	c3		 ret	 0
?GetGroup@ioGameEntity@@QBEPAVioEntityGroup@@XZ ENDP	; ioGameEntity::GetGroup
_TEXT	ENDS
PUBLIC	??0AniRotateInfo@@QAE@XZ			; AniRotateInfo::AniRotateInfo
; Function compile flags: /Ogsp
; File d:\lost saga for developer\youtube\tutorial\source\src\lsclient\playentityhelpstruct.h
;	COMDAT ??0AniRotateInfo@@QAE@XZ
_TEXT	SEGMENT
??0AniRotateInfo@@QAE@XZ PROC				; AniRotateInfo::AniRotateInfo, COMDAT
; _this$ = ecx

; 1071 : 	{
; 1072 : 		m_dwTime = 0;
; 1073 : 		m_fAngle = 0.0f;

  00000	0f 57 c0	 xorps	 xmm0, xmm0
  00003	8b c1		 mov	 eax, ecx
  00005	83 20 00	 and	 DWORD PTR [eax], 0
  00008	f3 0f 11 40 04	 movss	 DWORD PTR [eax+4], xmm0

; 1074 : 	}

  0000d	c3		 ret	 0
??0AniRotateInfo@@QAE@XZ ENDP				; AniRotateInfo::AniRotateInfo
_TEXT	ENDS
PUBLIC	??1WeaponInfo@@QAE@XZ				; WeaponInfo::~WeaponInfo
EXTRN	__imp_??1ioHashString@@QAE@XZ:PROC
; Function compile flags: /Ogsp
;	COMDAT ??1WeaponInfo@@QAE@XZ
_TEXT	SEGMENT
??1WeaponInfo@@QAE@XZ PROC				; WeaponInfo::~WeaponInfo, COMDAT
; _this$ = ecx
  00000	83 c1 08	 add	 ecx, 8
  00003	ff 25 00 00 00
	00		 jmp	 DWORD PTR __imp_??1ioHashString@@QAE@XZ
??1WeaponInfo@@QAE@XZ ENDP				; WeaponInfo::~WeaponInfo
_TEXT	ENDS
PUBLIC	?GetName@ioSkill@@QBEABVioHashString@@XZ	; ioSkill::GetName
; Function compile flags: /Ogsp
; File d:\lost saga for developer\youtube\tutorial\source\src\lsclient\ioskill.h
;	COMDAT ?GetName@ioSkill@@QBEABVioHashString@@XZ
_TEXT	SEGMENT
?GetName@ioSkill@@QBEABVioHashString@@XZ PROC		; ioSkill::GetName, COMDAT
; _this$ = ecx

; 414  : 	inline const ioHashString& GetName() const { return m_Name; }

  00000	8d 41 24	 lea	 eax, DWORD PTR [ecx+36]
  00003	c3		 ret	 0
?GetName@ioSkill@@QBEABVioHashString@@XZ ENDP		; ioSkill::GetName
_TEXT	ENDS
PUBLIC	?size@?$basic_string@DU?$char_traits@D@std@@V?$allocator@D@2@@std@@QBEIXZ ; std::basic_string<char,std::char_traits<char>,std::allocator<char> >::size
; Function compile flags: /Ogsp
; File c:\program files (x86)\microsoft visual studio 10.0\vc\include\xstring
;	COMDAT ?size@?$basic_string@DU?$char_traits@D@std@@V?$allocator@D@2@@std@@QBEIXZ
_TEXT	SEGMENT
?size@?$basic_string@DU?$char_traits@D@std@@V?$allocator@D@2@@std@@QBEIXZ PROC ; std::basic_string<char,std::char_traits<char>,std::allocator<char> >::size, COMDAT
; _this$ = ecx

; 1512 : 		return (this->_Mysize);

  00000	8b 41 10	 mov	 eax, DWORD PTR [ecx+16]

; 1513 : 		}

  00003	c3		 ret	 0
?size@?$basic_string@DU?$char_traits@D@std@@V?$allocator@D@2@@std@@QBEIXZ ENDP ; std::basic_string<char,std::char_traits<char>,std::allocator<char> >::size
_TEXT	ENDS
PUBLIC	??_7?$CEncrypt@M@@6B@				; CEncrypt<float>::`vftable'
PUBLIC	??1?$CEncrypt@M@@UAE@XZ				; CEncrypt<float>::~CEncrypt<float>
PUBLIC	??_R4?$CEncrypt@M@@6B@				; CEncrypt<float>::`RTTI Complete Object Locator'
PUBLIC	??_R0?AV?$CEncrypt@M@@@8			; CEncrypt<float> `RTTI Type Descriptor'
PUBLIC	??_R3?$CEncrypt@M@@8				; CEncrypt<float>::`RTTI Class Hierarchy Descriptor'
PUBLIC	??_R2?$CEncrypt@M@@8				; CEncrypt<float>::`RTTI Base Class Array'
PUBLIC	??_R1A@?0A@EA@?$CEncrypt@M@@8			; CEncrypt<float>::`RTTI Base Class Descriptor at (0,-1,0,64)'
EXTRN	??1ccddaabb@@UAE@XZ:PROC			; ccddaabb::~ccddaabb
EXTRN	??_E?$CEncrypt@M@@UAEPAXI@Z:PROC		; CEncrypt<float>::`vector deleting destructor'
;	COMDAT ??_R1A@?0A@EA@?$CEncrypt@M@@8
; File d:\lost saga for developer\youtube\tutorial\source\src\lsclient\encryptvalue.h
rdata$r	SEGMENT
??_R1A@?0A@EA@?$CEncrypt@M@@8 DD FLAT:??_R0?AV?$CEncrypt@M@@@8 ; CEncrypt<float>::`RTTI Base Class Descriptor at (0,-1,0,64)'
	DD	00H
	DD	00H
	DD	0ffffffffH
	DD	00H
	DD	040H
	DD	FLAT:??_R3?$CEncrypt@M@@8
rdata$r	ENDS
;	COMDAT ??_R2?$CEncrypt@M@@8
rdata$r	SEGMENT
??_R2?$CEncrypt@M@@8 DD FLAT:??_R1A@?0A@EA@?$CEncrypt@M@@8 ; CEncrypt<float>::`RTTI Base Class Array'
rdata$r	ENDS
;	COMDAT ??_R3?$CEncrypt@M@@8
rdata$r	SEGMENT
??_R3?$CEncrypt@M@@8 DD 00H				; CEncrypt<float>::`RTTI Class Hierarchy Descriptor'
	DD	00H
	DD	01H
	DD	FLAT:??_R2?$CEncrypt@M@@8
rdata$r	ENDS
;	COMDAT ??_R0?AV?$CEncrypt@M@@@8
_DATA	SEGMENT
??_R0?AV?$CEncrypt@M@@@8 DD FLAT:??_7type_info@@6B@	; CEncrypt<float> `RTTI Type Descriptor'
	DD	00H
	DB	'.?AV?$CEncrypt@M@@', 00H
_DATA	ENDS
;	COMDAT ??_R4?$CEncrypt@M@@6B@
rdata$r	SEGMENT
??_R4?$CEncrypt@M@@6B@ DD 00H				; CEncrypt<float>::`RTTI Complete Object Locator'
	DD	00H
	DD	00H
	DD	FLAT:??_R0?AV?$CEncrypt@M@@@8
	DD	FLAT:??_R3?$CEncrypt@M@@8
rdata$r	ENDS
;	COMDAT ??_7?$CEncrypt@M@@6B@
CONST	SEGMENT
??_7?$CEncrypt@M@@6B@ DD FLAT:??_R4?$CEncrypt@M@@6B@	; CEncrypt<float>::`vftable'
	DD	FLAT:??_E?$CEncrypt@M@@UAEPAXI@Z
; Function compile flags: /Ogsp
CONST	ENDS
;	COMDAT ??1?$CEncrypt@M@@UAE@XZ
_TEXT	SEGMENT
??1?$CEncrypt@M@@UAE@XZ PROC				; CEncrypt<float>::~CEncrypt<float>, COMDAT
; _this$ = ecx

; 127  : 	{

  00000	c7 01 00 00 00
	00		 mov	 DWORD PTR [ecx], OFFSET ??_7?$CEncrypt@M@@6B@

; 128  : 	}

  00006	83 c1 0c	 add	 ecx, 12			; 0000000cH
  00009	e9 00 00 00 00	 jmp	 ??1ccddaabb@@UAE@XZ	; ccddaabb::~ccddaabb
??1?$CEncrypt@M@@UAE@XZ ENDP				; CEncrypt<float>::~CEncrypt<float>
_TEXT	ENDS
PUBLIC	??_7?$CEncrypt@K@@6B@				; CEncrypt<unsigned long>::`vftable'
PUBLIC	??1?$CEncrypt@K@@UAE@XZ				; CEncrypt<unsigned long>::~CEncrypt<unsigned long>
PUBLIC	??_R4?$CEncrypt@K@@6B@				; CEncrypt<unsigned long>::`RTTI Complete Object Locator'
PUBLIC	??_R0?AV?$CEncrypt@K@@@8			; CEncrypt<unsigned long> `RTTI Type Descriptor'
PUBLIC	??_R3?$CEncrypt@K@@8				; CEncrypt<unsigned long>::`RTTI Class Hierarchy Descriptor'
PUBLIC	??_R2?$CEncrypt@K@@8				; CEncrypt<unsigned long>::`RTTI Base Class Array'
PUBLIC	??_R1A@?0A@EA@?$CEncrypt@K@@8			; CEncrypt<unsigned long>::`RTTI Base Class Descriptor at (0,-1,0,64)'
EXTRN	??_E?$CEncrypt@K@@UAEPAXI@Z:PROC		; CEncrypt<unsigned long>::`vector deleting destructor'
;	COMDAT ??_R1A@?0A@EA@?$CEncrypt@K@@8
rdata$r	SEGMENT
??_R1A@?0A@EA@?$CEncrypt@K@@8 DD FLAT:??_R0?AV?$CEncrypt@K@@@8 ; CEncrypt<unsigned long>::`RTTI Base Class Descriptor at (0,-1,0,64)'
	DD	00H
	DD	00H
	DD	0ffffffffH
	DD	00H
	DD	040H
	DD	FLAT:??_R3?$CEncrypt@K@@8
rdata$r	ENDS
;	COMDAT ??_R2?$CEncrypt@K@@8
rdata$r	SEGMENT
??_R2?$CEncrypt@K@@8 DD FLAT:??_R1A@?0A@EA@?$CEncrypt@K@@8 ; CEncrypt<unsigned long>::`RTTI Base Class Array'
rdata$r	ENDS
;	COMDAT ??_R3?$CEncrypt@K@@8
rdata$r	SEGMENT
??_R3?$CEncrypt@K@@8 DD 00H				; CEncrypt<unsigned long>::`RTTI Class Hierarchy Descriptor'
	DD	00H
	DD	01H
	DD	FLAT:??_R2?$CEncrypt@K@@8
rdata$r	ENDS
;	COMDAT ??_R0?AV?$CEncrypt@K@@@8
_DATA	SEGMENT
??_R0?AV?$CEncrypt@K@@@8 DD FLAT:??_7type_info@@6B@	; CEncrypt<unsigned long> `RTTI Type Descriptor'
	DD	00H
	DB	'.?AV?$CEncrypt@K@@', 00H
_DATA	ENDS
;	COMDAT ??_R4?$CEncrypt@K@@6B@
rdata$r	SEGMENT
??_R4?$CEncrypt@K@@6B@ DD 00H				; CEncrypt<unsigned long>::`RTTI Complete Object Locator'
	DD	00H
	DD	00H
	DD	FLAT:??_R0?AV?$CEncrypt@K@@@8
	DD	FLAT:??_R3?$CEncrypt@K@@8
rdata$r	ENDS
;	COMDAT ??_7?$CEncrypt@K@@6B@
CONST	SEGMENT
??_7?$CEncrypt@K@@6B@ DD FLAT:??_R4?$CEncrypt@K@@6B@	; CEncrypt<unsigned long>::`vftable'
	DD	FLAT:??_E?$CEncrypt@K@@UAEPAXI@Z
; Function compile flags: /Ogsp
CONST	ENDS
;	COMDAT ??1?$CEncrypt@K@@UAE@XZ
_TEXT	SEGMENT
??1?$CEncrypt@K@@UAE@XZ PROC				; CEncrypt<unsigned long>::~CEncrypt<unsigned long>, COMDAT
; _this$ = ecx

; 127  : 	{

  00000	c7 01 00 00 00
	00		 mov	 DWORD PTR [ecx], OFFSET ??_7?$CEncrypt@K@@6B@

; 128  : 	}

  00006	83 c1 0c	 add	 ecx, 12			; 0000000cH
  00009	e9 00 00 00 00	 jmp	 ??1ccddaabb@@UAE@XZ	; ccddaabb::~ccddaabb
??1?$CEncrypt@K@@UAE@XZ ENDP				; CEncrypt<unsigned long>::~CEncrypt<unsigned long>
; Function compile flags: /Ogsp
_TEXT	ENDS
;	COMDAT ??_G?$CEncrypt@M@@UAEPAXI@Z
_TEXT	SEGMENT
___flags$ = 8						; size = 4
??_G?$CEncrypt@M@@UAEPAXI@Z PROC			; CEncrypt<float>::`scalar deleting destructor', COMDAT
; _this$ = ecx
  00000	55		 push	 ebp
  00001	8b ec		 mov	 ebp, esp
  00003	56		 push	 esi
  00004	8b f1		 mov	 esi, ecx
  00006	8d 4e 0c	 lea	 ecx, DWORD PTR [esi+12]
  00009	c7 06 00 00 00
	00		 mov	 DWORD PTR [esi], OFFSET ??_7?$CEncrypt@M@@6B@
  0000f	e8 00 00 00 00	 call	 ??1ccddaabb@@UAE@XZ	; ccddaabb::~ccddaabb
  00014	f6 45 08 01	 test	 BYTE PTR ___flags$[ebp], 1
  00018	74 07		 je	 SHORT $LN1@scalar@2
  0001a	56		 push	 esi
  0001b	e8 00 00 00 00	 call	 ??3@YAXPAX@Z		; operator delete
  00020	59		 pop	 ecx
$LN1@scalar@2:
  00021	8b c6		 mov	 eax, esi
  00023	5e		 pop	 esi
  00024	5d		 pop	 ebp
  00025	c2 04 00	 ret	 4
??_G?$CEncrypt@M@@UAEPAXI@Z ENDP			; CEncrypt<float>::`scalar deleting destructor'
; Function compile flags: /Ogsp
_TEXT	ENDS
;	COMDAT ??_G?$CEncrypt@K@@UAEPAXI@Z
_TEXT	SEGMENT
___flags$ = 8						; size = 4
??_G?$CEncrypt@K@@UAEPAXI@Z PROC			; CEncrypt<unsigned long>::`scalar deleting destructor', COMDAT
; _this$ = ecx
  00000	55		 push	 ebp
  00001	8b ec		 mov	 ebp, esp
  00003	56		 push	 esi
  00004	8b f1		 mov	 esi, ecx
  00006	8d 4e 0c	 lea	 ecx, DWORD PTR [esi+12]
  00009	c7 06 00 00 00
	00		 mov	 DWORD PTR [esi], OFFSET ??_7?$CEncrypt@K@@6B@
  0000f	e8 00 00 00 00	 call	 ??1ccddaabb@@UAE@XZ	; ccddaabb::~ccddaabb
  00014	f6 45 08 01	 test	 BYTE PTR ___flags$[ebp], 1
  00018	74 07		 je	 SHORT $LN1@scalar@3
  0001a	56		 push	 esi
  0001b	e8 00 00 00 00	 call	 ??3@YAXPAX@Z		; operator delete
  00020	59		 pop	 ecx
$LN1@scalar@3:
  00021	8b c6		 mov	 eax, esi
  00023	5e		 pop	 esi
  00024	5d		 pop	 ebp
  00025	c2 04 00	 ret	 4
??_G?$CEncrypt@K@@UAEPAXI@Z ENDP			; CEncrypt<unsigned long>::`scalar deleting destructor'
_TEXT	ENDS
PUBLIC	?_Myptr@?$basic_string@DU?$char_traits@D@std@@V?$allocator@D@2@@std@@QBEPBDXZ ; std::basic_string<char,std::char_traits<char>,std::allocator<char> >::_Myptr
; Function compile flags: /Ogsp
; File c:\program files (x86)\microsoft visual studio 10.0\vc\include\xstring
;	COMDAT ?_Myptr@?$basic_string@DU?$char_traits@D@std@@V?$allocator@D@2@@std@@QBEPBDXZ
_TEXT	SEGMENT
?_Myptr@?$basic_string@DU?$char_traits@D@std@@V?$allocator@D@2@@std@@QBEPBDXZ PROC ; std::basic_string<char,std::char_traits<char>,std::allocator<char> >::_Myptr, COMDAT
; _this$ = ecx

; 2010 : 		return (this->_BUF_SIZE <= this->_Myres ? this->_Bx._Ptr
; 2011 : 			: this->_Bx._Buf);

  00000	83 79 14 10	 cmp	 DWORD PTR [ecx+20], 16	; 00000010H
  00004	72 03		 jb	 SHORT $LN3@Myptr
  00006	8b 01		 mov	 eax, DWORD PTR [ecx]

; 2012 : 		}

  00008	c3		 ret	 0
$LN3@Myptr:

; 2010 : 		return (this->_BUF_SIZE <= this->_Myres ? this->_Bx._Ptr
; 2011 : 			: this->_Bx._Buf);

  00009	8b c1		 mov	 eax, ecx

; 2012 : 		}

  0000b	c3		 ret	 0
?_Myptr@?$basic_string@DU?$char_traits@D@std@@V?$allocator@D@2@@std@@QBEPBDXZ ENDP ; std::basic_string<char,std::char_traits<char>,std::allocator<char> >::_Myptr
_TEXT	ENDS
PUBLIC	??1?$_String_val@DV?$allocator@D@std@@@std@@QAE@XZ ; std::_String_val<char,std::allocator<char> >::~_String_val<char,std::allocator<char> >
; Function compile flags: /Ogsp
;	COMDAT ??1?$_String_val@DV?$allocator@D@std@@@std@@QAE@XZ
_TEXT	SEGMENT
??1?$_String_val@DV?$allocator@D@std@@@std@@QAE@XZ PROC	; std::_String_val<char,std::allocator<char> >::~_String_val<char,std::allocator<char> >, COMDAT
; _this$ = ecx

; 459  : 		}

  00000	c3		 ret	 0
??1?$_String_val@DV?$allocator@D@std@@@std@@QAE@XZ ENDP	; std::_String_val<char,std::allocator<char> >::~_String_val<char,std::allocator<char> >
_TEXT	ENDS
PUBLIC	??0?$allocator@D@std@@QAE@XZ			; std::allocator<char>::allocator<char>
; Function compile flags: /Ogsp
; File c:\program files (x86)\microsoft visual studio 10.0\vc\include\xmemory
;	COMDAT ??0?$allocator@D@std@@QAE@XZ
_TEXT	SEGMENT
??0?$allocator@D@std@@QAE@XZ PROC			; std::allocator<char>::allocator<char>, COMDAT
; _this$ = ecx

; 161  : 	_ALLOCATOR() _THROW0()

  00000	8b c1		 mov	 eax, ecx

; 162  : 		{	// construct default allocator (do nothing)
; 163  : 		}

  00002	c3		 ret	 0
??0?$allocator@D@std@@QAE@XZ ENDP			; std::allocator<char>::allocator<char>
_TEXT	ENDS
PUBLIC	??0?$allocator@D@std@@QAE@ABV01@@Z		; std::allocator<char>::allocator<char>
; Function compile flags: /Ogsp
;	COMDAT ??0?$allocator@D@std@@QAE@ABV01@@Z
_TEXT	SEGMENT
___formal$ = 8						; size = 4
??0?$allocator@D@std@@QAE@ABV01@@Z PROC			; std::allocator<char>::allocator<char>, COMDAT
; _this$ = ecx

; 165  : 	_ALLOCATOR(const _ALLOCATOR<_Ty>&) _THROW0()

  00000	8b c1		 mov	 eax, ecx

; 166  : 		{	// construct by copying (do nothing)
; 167  : 		}

  00002	c2 04 00	 ret	 4
??0?$allocator@D@std@@QAE@ABV01@@Z ENDP			; std::allocator<char>::allocator<char>
_TEXT	ENDS
PUBLIC	??1?$_Vector_val@UWeaponInfo@@V?$allocator@UWeaponInfo@@@std@@@std@@QAE@XZ ; std::_Vector_val<WeaponInfo,std::allocator<WeaponInfo> >::~_Vector_val<WeaponInfo,std::allocator<WeaponInfo> >
; Function compile flags: /Ogsp
; File c:\program files (x86)\microsoft visual studio 10.0\vc\include\vector
;	COMDAT ??1?$_Vector_val@UWeaponInfo@@V?$allocator@UWeaponInfo@@@std@@@std@@QAE@XZ
_TEXT	SEGMENT
??1?$_Vector_val@UWeaponInfo@@V?$allocator@UWeaponInfo@@@std@@@std@@QAE@XZ PROC ; std::_Vector_val<WeaponInfo,std::allocator<WeaponInfo> >::~_Vector_val<WeaponInfo,std::allocator<WeaponInfo> >, COMDAT
; _this$ = ecx

; 434  : 		}

  00000	c3		 ret	 0
??1?$_Vector_val@UWeaponInfo@@V?$allocator@UWeaponInfo@@@std@@@std@@QAE@XZ ENDP ; std::_Vector_val<WeaponInfo,std::allocator<WeaponInfo> >::~_Vector_val<WeaponInfo,std::allocator<WeaponInfo> >
_TEXT	ENDS
PUBLIC	??0?$allocator@UWeaponInfo@@@std@@QAE@XZ	; std::allocator<WeaponInfo>::allocator<WeaponInfo>
; Function compile flags: /Ogsp
; File c:\program files (x86)\microsoft visual studio 10.0\vc\include\xmemory
;	COMDAT ??0?$allocator@UWeaponInfo@@@std@@QAE@XZ
_TEXT	SEGMENT
??0?$allocator@UWeaponInfo@@@std@@QAE@XZ PROC		; std::allocator<WeaponInfo>::allocator<WeaponInfo>, COMDAT
; _this$ = ecx

; 161  : 	_ALLOCATOR() _THROW0()

  00000	8b c1		 mov	 eax, ecx

; 162  : 		{	// construct default allocator (do nothing)
; 163  : 		}

  00002	c3		 ret	 0
??0?$allocator@UWeaponInfo@@@std@@QAE@XZ ENDP		; std::allocator<WeaponInfo>::allocator<WeaponInfo>
_TEXT	ENDS
PUBLIC	??1?$_Vector_val@UForceInfo@@V?$allocator@UForceInfo@@@std@@@std@@QAE@XZ ; std::_Vector_val<ForceInfo,std::allocator<ForceInfo> >::~_Vector_val<ForceInfo,std::allocator<ForceInfo> >
; Function compile flags: /Ogsp
; File c:\program files (x86)\microsoft visual studio 10.0\vc\include\vector
;	COMDAT ??1?$_Vector_val@UForceInfo@@V?$allocator@UForceInfo@@@std@@@std@@QAE@XZ
_TEXT	SEGMENT
??1?$_Vector_val@UForceInfo@@V?$allocator@UForceInfo@@@std@@@std@@QAE@XZ PROC ; std::_Vector_val<ForceInfo,std::allocator<ForceInfo> >::~_Vector_val<ForceInfo,std::allocator<ForceInfo> >, COMDAT
; _this$ = ecx

; 434  : 		}

  00000	c3		 ret	 0
??1?$_Vector_val@UForceInfo@@V?$allocator@UForceInfo@@@std@@@std@@QAE@XZ ENDP ; std::_Vector_val<ForceInfo,std::allocator<ForceInfo> >::~_Vector_val<ForceInfo,std::allocator<ForceInfo> >
_TEXT	ENDS
PUBLIC	??0?$allocator@UForceInfo@@@std@@QAE@XZ		; std::allocator<ForceInfo>::allocator<ForceInfo>
; Function compile flags: /Ogsp
; File c:\program files (x86)\microsoft visual studio 10.0\vc\include\xmemory
;	COMDAT ??0?$allocator@UForceInfo@@@std@@QAE@XZ
_TEXT	SEGMENT
??0?$allocator@UForceInfo@@@std@@QAE@XZ PROC		; std::allocator<ForceInfo>::allocator<ForceInfo>, COMDAT
; _this$ = ecx

; 161  : 	_ALLOCATOR() _THROW0()

  00000	8b c1		 mov	 eax, ecx

; 162  : 		{	// construct default allocator (do nothing)
; 163  : 		}

  00002	c3		 ret	 0
??0?$allocator@UForceInfo@@@std@@QAE@XZ ENDP		; std::allocator<ForceInfo>::allocator<ForceInfo>
_TEXT	ENDS
PUBLIC	?EncryptValueToPool@?$CEncrypt@M@@AAEXPBD@Z	; CEncrypt<float>::EncryptValueToPool
EXTRN	?EncryptByte@ccddaabb@@QAEXPBDPADH@Z:PROC	; ccddaabb::EncryptByte
; Function compile flags: /Ogsp
; File d:\lost saga for developer\youtube\tutorial\source\src\lsclient\encryptvalue.h
;	COMDAT ?EncryptValueToPool@?$CEncrypt@M@@AAEXPBD@Z
_TEXT	SEGMENT
_value$ = 8						; size = 4
?EncryptValueToPool@?$CEncrypt@M@@AAEXPBD@Z PROC	; CEncrypt<float>::EncryptValueToPool, COMDAT
; _this$ = ecx

; 67   : 	{

  00000	55		 push	 ebp
  00001	8b ec		 mov	 ebp, esp

; 68   : 		m_RC5.EncryptByte( value, m_MemPool, max(m_ValueSize, DEFAULT_ENCRYPT) );

  00003	0f b7 41 06	 movzx	 eax, WORD PTR [ecx+6]
  00007	83 f8 04	 cmp	 eax, 4
  0000a	77 03		 ja	 SHORT $LN4@EncryptVal
  0000c	6a 04		 push	 4
  0000e	58		 pop	 eax
$LN4@EncryptVal:
  0000f	50		 push	 eax
  00010	8d 41 1c	 lea	 eax, DWORD PTR [ecx+28]
  00013	50		 push	 eax
  00014	ff 75 08	 push	 DWORD PTR _value$[ebp]
  00017	83 c1 0c	 add	 ecx, 12			; 0000000cH
  0001a	e8 00 00 00 00	 call	 ?EncryptByte@ccddaabb@@QAEXPBDPADH@Z ; ccddaabb::EncryptByte

; 69   : 		
; 70   : 	}

  0001f	5d		 pop	 ebp
  00020	c2 04 00	 ret	 4
?EncryptValueToPool@?$CEncrypt@M@@AAEXPBD@Z ENDP	; CEncrypt<float>::EncryptValueToPool
_TEXT	ENDS
PUBLIC	?Init@?$CEncrypt@M@@AAEXXZ			; CEncrypt<float>::Init
EXTRN	?Setup@ccddaabb@@QAEXPBDHH@Z:PROC		; ccddaabb::Setup
EXTRN	__imp__rand:PROC
EXTRN	__imp__timeGetTime@0:PROC
EXTRN	__imp__GetCurrentProcessId@0:PROC
; Function compile flags: /Ogsp
;	COMDAT ?Init@?$CEncrypt@M@@AAEXXZ
_TEXT	SEGMENT
_pid$ = -8						; size = 4
_tick$ = -4						; size = 4
?Init@?$CEncrypt@M@@AAEXXZ PROC				; CEncrypt<float>::Init, COMDAT
; _this$ = ecx

; 73   : 	{

  00000	55		 push	 ebp
  00001	8b ec		 mov	 ebp, esp
  00003	51		 push	 ecx
  00004	51		 push	 ecx
  00005	53		 push	 ebx
  00006	56		 push	 esi
  00007	57		 push	 edi
  00008	8b f1		 mov	 esi, ecx

; 74   : 		DWORD pid = GetCurrentProcessId();

  0000a	ff 15 00 00 00
	00		 call	 DWORD PTR __imp__GetCurrentProcessId@0
  00010	89 45 f8	 mov	 DWORD PTR _pid$[ebp], eax

; 75   : 		DWORD tick = timeGetTime();

  00013	ff 15 00 00 00
	00		 call	 DWORD PTR __imp__timeGetTime@0

; 76   : 		m_ValueSize    = sizeof(type);
; 77   : 		m_MemPoolPos   = (unsigned short)( rand()+pid+tick )%(MAX_MEM_POOL-m_ValueSize);

  00019	8b 3d 00 00 00
	00		 mov	 edi, DWORD PTR __imp__rand
  0001f	89 45 fc	 mov	 DWORD PTR _tick$[ebp], eax
  00022	6a 04		 push	 4
  00024	58		 pop	 eax
  00025	66 89 46 06	 mov	 WORD PTR [esi+6], ax
  00029	ff d7		 call	 edi
  0002b	03 45 f8	 add	 eax, DWORD PTR _pid$[ebp]
  0002e	0f b7 4e 06	 movzx	 ecx, WORD PTR [esi+6]
  00032	03 45 fc	 add	 eax, DWORD PTR _tick$[ebp]
  00035	6a 0c		 push	 12			; 0000000cH
  00037	0f b7 c0	 movzx	 eax, ax
  0003a	5b		 pop	 ebx
  0003b	99		 cdq
  0003c	2b d9		 sub	 ebx, ecx
  0003e	f7 fb		 idiv	 ebx
  00040	66 89 56 04	 mov	 WORD PTR [esi+4], dx

; 78   : 		m_EncryptSeed  = (char)( rand()+pid+tick )%256;

  00044	ff d7		 call	 edi
  00046	02 45 f8	 add	 al, BYTE PTR _pid$[ebp]
  00049	02 45 fc	 add	 al, BYTE PTR _tick$[ebp]
  0004c	0f be c0	 movsx	 eax, al
  0004f	25 ff 00 00 80	 and	 eax, -2147483393	; 800000ffH
  00054	79 07		 jns	 SHORT $LN8@Init
  00056	48		 dec	 eax
  00057	0d 00 ff ff ff	 or	 eax, -256		; ffffff00H
  0005c	40		 inc	 eax
$LN8@Init:
  0005d	88 46 08	 mov	 BYTE PTR [esi+8], al

; 79   : 
; 80   : 		for (int i = 0; i < MAX_MEM_POOL ; i++)

  00060	33 db		 xor	 ebx, ebx
$LL3@Init:

; 81   : 			m_MemPool[i] = (char)( rand()+pid+tick )%256; // 더미

  00062	ff d7		 call	 edi
  00064	02 45 f8	 add	 al, BYTE PTR _pid$[ebp]
  00067	02 45 fc	 add	 al, BYTE PTR _tick$[ebp]
  0006a	0f be c0	 movsx	 eax, al
  0006d	25 ff 00 00 80	 and	 eax, -2147483393	; 800000ffH
  00072	79 07		 jns	 SHORT $LN9@Init
  00074	48		 dec	 eax
  00075	0d 00 ff ff ff	 or	 eax, -256		; ffffff00H
  0007a	40		 inc	 eax
$LN9@Init:
  0007b	88 44 1e 1c	 mov	 BYTE PTR [esi+ebx+28], al
  0007f	43		 inc	 ebx
  00080	83 fb 0c	 cmp	 ebx, 12			; 0000000cH
  00083	7c dd		 jl	 SHORT $LL3@Init

; 82   : 
; 83   : 		//UJ 130913, 최적화: szKey 사용안하도록 간략화
; 84   : 		//char szKey[ccddaabb::KEY_SIZE];//="";
; 85   : 		//for (int i = 0; i < ccddaabb::KEY_SIZE  ; i++)
; 86   : 		//	szKey[i] = (char)( rand()+pid+tick )%256; // 더미
; 87   : 		m_RC5.Setup( NULL, pid, tick );

  00085	ff 75 fc	 push	 DWORD PTR _tick$[ebp]
  00088	8d 4e 0c	 lea	 ecx, DWORD PTR [esi+12]
  0008b	ff 75 f8	 push	 DWORD PTR _pid$[ebp]
  0008e	6a 00		 push	 0
  00090	e8 00 00 00 00	 call	 ?Setup@ccddaabb@@QAEXPBDHH@Z ; ccddaabb::Setup
  00095	5f		 pop	 edi
  00096	5e		 pop	 esi
  00097	5b		 pop	 ebx

; 88   : 
; 89   : #ifdef _NOTUSE
; 90   : 		m_value        = 0;
; 91   : 		EncryptValueToPool((char*)&m_value);
; 92   : 		Debug();
; 93   : #endif
; 94   : 	}

  00098	c9		 leave
  00099	c3		 ret	 0
?Init@?$CEncrypt@M@@AAEXXZ ENDP				; CEncrypt<float>::Init
_TEXT	ENDS
PUBLIC	?DecryptValueToPool@?$CEncrypt@M@@QAEXPAM@Z	; CEncrypt<float>::DecryptValueToPool
EXTRN	?DecryptByte@ccddaabb@@QBEXPBDPADH@Z:PROC	; ccddaabb::DecryptByte
; Function compile flags: /Ogsp
;	COMDAT ?DecryptValueToPool@?$CEncrypt@M@@QAEXPAM@Z
_TEXT	SEGMENT
_value$ = 8						; size = 4
?DecryptValueToPool@?$CEncrypt@M@@QAEXPAM@Z PROC	; CEncrypt<float>::DecryptValueToPool, COMDAT
; _this$ = ecx

; 1648 : 	{

  00000	55		 push	 ebp
  00001	8b ec		 mov	 ebp, esp
  00003	56		 push	 esi

; 1649 : 		m_RC5.DecryptByte( m_MemPool, m_TempMem, 4 );

  00004	8d 71 28	 lea	 esi, DWORD PTR [ecx+40]
  00007	6a 04		 push	 4
  00009	8d 41 1c	 lea	 eax, DWORD PTR [ecx+28]
  0000c	56		 push	 esi
  0000d	50		 push	 eax
  0000e	83 c1 0c	 add	 ecx, 12			; 0000000cH
  00011	e8 00 00 00 00	 call	 ?DecryptByte@ccddaabb@@QBEXPBDPADH@Z ; ccddaabb::DecryptByte

; 1650 : 		*value = *((float*)m_TempMem);

  00016	d9 06		 fld	 DWORD PTR [esi]
  00018	8b 45 08	 mov	 eax, DWORD PTR _value$[ebp]
  0001b	d9 18		 fstp	 DWORD PTR [eax]
  0001d	5e		 pop	 esi

; 1651 : 	}

  0001e	5d		 pop	 ebp
  0001f	c2 04 00	 ret	 4
?DecryptValueToPool@?$CEncrypt@M@@QAEXPAM@Z ENDP	; CEncrypt<float>::DecryptValueToPool
_TEXT	ENDS
PUBLIC	?EncryptValueToPool@?$CEncrypt@K@@AAEXPBD@Z	; CEncrypt<unsigned long>::EncryptValueToPool
; Function compile flags: /Ogsp
;	COMDAT ?EncryptValueToPool@?$CEncrypt@K@@AAEXPBD@Z
_TEXT	SEGMENT
_value$ = 8						; size = 4
?EncryptValueToPool@?$CEncrypt@K@@AAEXPBD@Z PROC	; CEncrypt<unsigned long>::EncryptValueToPool, COMDAT
; _this$ = ecx

; 67   : 	{

  00000	55		 push	 ebp
  00001	8b ec		 mov	 ebp, esp

; 68   : 		m_RC5.EncryptByte( value, m_MemPool, max(m_ValueSize, DEFAULT_ENCRYPT) );

  00003	0f b7 41 06	 movzx	 eax, WORD PTR [ecx+6]
  00007	83 f8 04	 cmp	 eax, 4
  0000a	77 03		 ja	 SHORT $LN4@EncryptVal@2
  0000c	6a 04		 push	 4
  0000e	58		 pop	 eax
$LN4@EncryptVal@2:
  0000f	50		 push	 eax
  00010	8d 41 1c	 lea	 eax, DWORD PTR [ecx+28]
  00013	50		 push	 eax
  00014	ff 75 08	 push	 DWORD PTR _value$[ebp]
  00017	83 c1 0c	 add	 ecx, 12			; 0000000cH
  0001a	e8 00 00 00 00	 call	 ?EncryptByte@ccddaabb@@QAEXPBDPADH@Z ; ccddaabb::EncryptByte

; 69   : 		
; 70   : 	}

  0001f	5d		 pop	 ebp
  00020	c2 04 00	 ret	 4
?EncryptValueToPool@?$CEncrypt@K@@AAEXPBD@Z ENDP	; CEncrypt<unsigned long>::EncryptValueToPool
_TEXT	ENDS
PUBLIC	?Init@?$CEncrypt@K@@AAEXXZ			; CEncrypt<unsigned long>::Init
; Function compile flags: /Ogsp
;	COMDAT ?Init@?$CEncrypt@K@@AAEXXZ
_TEXT	SEGMENT
_pid$ = -8						; size = 4
_tick$ = -4						; size = 4
?Init@?$CEncrypt@K@@AAEXXZ PROC				; CEncrypt<unsigned long>::Init, COMDAT
; _this$ = ecx

; 73   : 	{

  00000	55		 push	 ebp
  00001	8b ec		 mov	 ebp, esp
  00003	51		 push	 ecx
  00004	51		 push	 ecx
  00005	53		 push	 ebx
  00006	56		 push	 esi
  00007	57		 push	 edi
  00008	8b f1		 mov	 esi, ecx

; 74   : 		DWORD pid = GetCurrentProcessId();

  0000a	ff 15 00 00 00
	00		 call	 DWORD PTR __imp__GetCurrentProcessId@0
  00010	89 45 f8	 mov	 DWORD PTR _pid$[ebp], eax

; 75   : 		DWORD tick = timeGetTime();

  00013	ff 15 00 00 00
	00		 call	 DWORD PTR __imp__timeGetTime@0

; 76   : 		m_ValueSize    = sizeof(type);
; 77   : 		m_MemPoolPos   = (unsigned short)( rand()+pid+tick )%(MAX_MEM_POOL-m_ValueSize);

  00019	8b 3d 00 00 00
	00		 mov	 edi, DWORD PTR __imp__rand
  0001f	89 45 fc	 mov	 DWORD PTR _tick$[ebp], eax
  00022	6a 04		 push	 4
  00024	58		 pop	 eax
  00025	66 89 46 06	 mov	 WORD PTR [esi+6], ax
  00029	ff d7		 call	 edi
  0002b	03 45 f8	 add	 eax, DWORD PTR _pid$[ebp]
  0002e	0f b7 4e 06	 movzx	 ecx, WORD PTR [esi+6]
  00032	03 45 fc	 add	 eax, DWORD PTR _tick$[ebp]
  00035	6a 0c		 push	 12			; 0000000cH
  00037	0f b7 c0	 movzx	 eax, ax
  0003a	5b		 pop	 ebx
  0003b	99		 cdq
  0003c	2b d9		 sub	 ebx, ecx
  0003e	f7 fb		 idiv	 ebx
  00040	66 89 56 04	 mov	 WORD PTR [esi+4], dx

; 78   : 		m_EncryptSeed  = (char)( rand()+pid+tick )%256;

  00044	ff d7		 call	 edi
  00046	02 45 f8	 add	 al, BYTE PTR _pid$[ebp]
  00049	02 45 fc	 add	 al, BYTE PTR _tick$[ebp]
  0004c	0f be c0	 movsx	 eax, al
  0004f	25 ff 00 00 80	 and	 eax, -2147483393	; 800000ffH
  00054	79 07		 jns	 SHORT $LN8@Init@2
  00056	48		 dec	 eax
  00057	0d 00 ff ff ff	 or	 eax, -256		; ffffff00H
  0005c	40		 inc	 eax
$LN8@Init@2:
  0005d	88 46 08	 mov	 BYTE PTR [esi+8], al

; 79   : 
; 80   : 		for (int i = 0; i < MAX_MEM_POOL ; i++)

  00060	33 db		 xor	 ebx, ebx
$LL3@Init@2:

; 81   : 			m_MemPool[i] = (char)( rand()+pid+tick )%256; // 더미

  00062	ff d7		 call	 edi
  00064	02 45 f8	 add	 al, BYTE PTR _pid$[ebp]
  00067	02 45 fc	 add	 al, BYTE PTR _tick$[ebp]
  0006a	0f be c0	 movsx	 eax, al
  0006d	25 ff 00 00 80	 and	 eax, -2147483393	; 800000ffH
  00072	79 07		 jns	 SHORT $LN9@Init@2
  00074	48		 dec	 eax
  00075	0d 00 ff ff ff	 or	 eax, -256		; ffffff00H
  0007a	40		 inc	 eax
$LN9@Init@2:
  0007b	88 44 1e 1c	 mov	 BYTE PTR [esi+ebx+28], al
  0007f	43		 inc	 ebx
  00080	83 fb 0c	 cmp	 ebx, 12			; 0000000cH
  00083	7c dd		 jl	 SHORT $LL3@Init@2

; 82   : 
; 83   : 		//UJ 130913, 최적화: szKey 사용안하도록 간략화
; 84   : 		//char szKey[ccddaabb::KEY_SIZE];//="";
; 85   : 		//for (int i = 0; i < ccddaabb::KEY_SIZE  ; i++)
; 86   : 		//	szKey[i] = (char)( rand()+pid+tick )%256; // 더미
; 87   : 		m_RC5.Setup( NULL, pid, tick );

  00085	ff 75 fc	 push	 DWORD PTR _tick$[ebp]
  00088	8d 4e 0c	 lea	 ecx, DWORD PTR [esi+12]
  0008b	ff 75 f8	 push	 DWORD PTR _pid$[ebp]
  0008e	6a 00		 push	 0
  00090	e8 00 00 00 00	 call	 ?Setup@ccddaabb@@QAEXPBDHH@Z ; ccddaabb::Setup
  00095	5f		 pop	 edi
  00096	5e		 pop	 esi
  00097	5b		 pop	 ebx

; 88   : 
; 89   : #ifdef _NOTUSE
; 90   : 		m_value        = 0;
; 91   : 		EncryptValueToPool((char*)&m_value);
; 92   : 		Debug();
; 93   : #endif
; 94   : 	}

  00098	c9		 leave
  00099	c3		 ret	 0
?Init@?$CEncrypt@K@@AAEXXZ ENDP				; CEncrypt<unsigned long>::Init
_TEXT	ENDS
PUBLIC	?DecryptValueToPool@?$CEncrypt@K@@QAEXPAK@Z	; CEncrypt<unsigned long>::DecryptValueToPool
; Function compile flags: /Ogsp
;	COMDAT ?DecryptValueToPool@?$CEncrypt@K@@QAEXPAK@Z
_TEXT	SEGMENT
_value$ = 8						; size = 4
?DecryptValueToPool@?$CEncrypt@K@@QAEXPAK@Z PROC	; CEncrypt<unsigned long>::DecryptValueToPool, COMDAT
; _this$ = ecx

; 1256 : 	{

  00000	55		 push	 ebp
  00001	8b ec		 mov	 ebp, esp
  00003	56		 push	 esi

; 1257 : 		m_RC5.DecryptByte( m_MemPool, m_TempMem, 4 );

  00004	8d 71 28	 lea	 esi, DWORD PTR [ecx+40]
  00007	6a 04		 push	 4
  00009	8d 41 1c	 lea	 eax, DWORD PTR [ecx+28]
  0000c	56		 push	 esi
  0000d	50		 push	 eax
  0000e	83 c1 0c	 add	 ecx, 12			; 0000000cH
  00011	e8 00 00 00 00	 call	 ?DecryptByte@ccddaabb@@QBEXPBDPADH@Z ; ccddaabb::DecryptByte

; 1258 : 		*value = *((DWORD*)m_TempMem);

  00016	8b 06		 mov	 eax, DWORD PTR [esi]
  00018	8b 4d 08	 mov	 ecx, DWORD PTR _value$[ebp]
  0001b	89 01		 mov	 DWORD PTR [ecx], eax
  0001d	5e		 pop	 esi

; 1259 : 	}

  0001e	5d		 pop	 ebp
  0001f	c2 04 00	 ret	 4
?DecryptValueToPool@?$CEncrypt@K@@QAEXPAK@Z ENDP	; CEncrypt<unsigned long>::DecryptValueToPool
_TEXT	ENDS
PUBLIC	?DecryptValueToPool@?$CEncrypt@_N@@QAEXPA_N@Z	; CEncrypt<bool>::DecryptValueToPool
; Function compile flags: /Ogsp
;	COMDAT ?DecryptValueToPool@?$CEncrypt@_N@@QAEXPA_N@Z
_TEXT	SEGMENT
_value$ = 8						; size = 4
?DecryptValueToPool@?$CEncrypt@_N@@QAEXPA_N@Z PROC	; CEncrypt<bool>::DecryptValueToPool, COMDAT
; _this$ = ecx

; 219  : 	{

  00000	55		 push	 ebp
  00001	8b ec		 mov	 ebp, esp
  00003	56		 push	 esi

; 220  : 		m_RC5.DecryptByte( m_MemPool, m_TempMem, 4 );

  00004	8d 71 28	 lea	 esi, DWORD PTR [ecx+40]
  00007	6a 04		 push	 4
  00009	8d 41 1c	 lea	 eax, DWORD PTR [ecx+28]
  0000c	56		 push	 esi
  0000d	50		 push	 eax
  0000e	83 c1 0c	 add	 ecx, 12			; 0000000cH
  00011	e8 00 00 00 00	 call	 ?DecryptByte@ccddaabb@@QBEXPBDPADH@Z ; ccddaabb::DecryptByte

; 221  : 		*value = *((bool*)m_TempMem);

  00016	8a 06		 mov	 al, BYTE PTR [esi]
  00018	8b 4d 08	 mov	 ecx, DWORD PTR _value$[ebp]
  0001b	88 01		 mov	 BYTE PTR [ecx], al
  0001d	5e		 pop	 esi

; 222  : 	}

  0001e	5d		 pop	 ebp
  0001f	c2 04 00	 ret	 4
?DecryptValueToPool@?$CEncrypt@_N@@QAEXPA_N@Z ENDP	; CEncrypt<bool>::DecryptValueToPool
_TEXT	ENDS
PUBLIC	?_Myptr@?$basic_string@DU?$char_traits@D@std@@V?$allocator@D@2@@std@@QAEPADXZ ; std::basic_string<char,std::char_traits<char>,std::allocator<char> >::_Myptr
; Function compile flags: /Ogsp
; File c:\program files (x86)\microsoft visual studio 10.0\vc\include\xstring
;	COMDAT ?_Myptr@?$basic_string@DU?$char_traits@D@std@@V?$allocator@D@2@@std@@QAEPADXZ
_TEXT	SEGMENT
?_Myptr@?$basic_string@DU?$char_traits@D@std@@V?$allocator@D@2@@std@@QAEPADXZ PROC ; std::basic_string<char,std::char_traits<char>,std::allocator<char> >::_Myptr, COMDAT
; _this$ = ecx

; 2004 : 		return (this->_BUF_SIZE <= this->_Myres ? this->_Bx._Ptr
; 2005 : 			: this->_Bx._Buf);

  00000	83 79 14 10	 cmp	 DWORD PTR [ecx+20], 16	; 00000010H
  00004	72 03		 jb	 SHORT $LN3@Myptr@2
  00006	8b 01		 mov	 eax, DWORD PTR [ecx]

; 2006 : 		}

  00008	c3		 ret	 0
$LN3@Myptr@2:

; 2004 : 		return (this->_BUF_SIZE <= this->_Myres ? this->_Bx._Ptr
; 2005 : 			: this->_Bx._Buf);

  00009	8b c1		 mov	 eax, ecx

; 2006 : 		}

  0000b	c3		 ret	 0
?_Myptr@?$basic_string@DU?$char_traits@D@std@@V?$allocator@D@2@@std@@QAEPADXZ ENDP ; std::basic_string<char,std::char_traits<char>,std::allocator<char> >::_Myptr
_TEXT	ENDS
PUBLIC	??_C@_0BA@JFNIOLAK@string?5too?5long?$AA@	; `string'
PUBLIC	?_Xlen@?$basic_string@DU?$char_traits@D@std@@V?$allocator@D@2@@std@@QBEXXZ ; std::basic_string<char,std::char_traits<char>,std::allocator<char> >::_Xlen
;	COMDAT ??_C@_0BA@JFNIOLAK@string?5too?5long?$AA@
CONST	SEGMENT
??_C@_0BA@JFNIOLAK@string?5too?5long?$AA@ DB 'string too long', 00H ; `string'
; Function compile flags: /Ogsp
CONST	ENDS
;	COMDAT ?_Xlen@?$basic_string@DU?$char_traits@D@std@@V?$allocator@D@2@@std@@QBEXXZ
_TEXT	SEGMENT
?_Xlen@?$basic_string@DU?$char_traits@D@std@@V?$allocator@D@2@@std@@QBEXXZ PROC ; std::basic_string<char,std::char_traits<char>,std::allocator<char> >::_Xlen, COMDAT
; _this$ = ecx

; 2016 : 		_Xlength_error("string too long");

  00000	68 00 00 00 00	 push	 OFFSET ??_C@_0BA@JFNIOLAK@string?5too?5long?$AA@
  00005	ff 15 00 00 00
	00		 call	 DWORD PTR __imp_?_Xlength_error@std@@YAXPBD@Z
$LN4@Xlen@2:
$LN3@Xlen@2:
  0000b	cc		 int	 3
?_Xlen@?$basic_string@DU?$char_traits@D@std@@V?$allocator@D@2@@std@@QBEXXZ ENDP ; std::basic_string<char,std::char_traits<char>,std::allocator<char> >::_Xlen
_TEXT	ENDS
PUBLIC	??_C@_0BI@CFPLBAOH@invalid?5string?5position?$AA@ ; `string'
PUBLIC	?_Xran@?$basic_string@DU?$char_traits@D@std@@V?$allocator@D@2@@std@@QBEXXZ ; std::basic_string<char,std::char_traits<char>,std::allocator<char> >::_Xran
EXTRN	__imp_?_Xout_of_range@std@@YAXPBD@Z:PROC
;	COMDAT ??_C@_0BI@CFPLBAOH@invalid?5string?5position?$AA@
CONST	SEGMENT
??_C@_0BI@CFPLBAOH@invalid?5string?5position?$AA@ DB 'invalid string posi'
	DB	'tion', 00H					; `string'
; Function compile flags: /Ogsp
CONST	ENDS
;	COMDAT ?_Xran@?$basic_string@DU?$char_traits@D@std@@V?$allocator@D@2@@std@@QBEXXZ
_TEXT	SEGMENT
?_Xran@?$basic_string@DU?$char_traits@D@std@@V?$allocator@D@2@@std@@QBEXXZ PROC ; std::basic_string<char,std::char_traits<char>,std::allocator<char> >::_Xran, COMDAT
; _this$ = ecx

; 2021 : 		_Xout_of_range("invalid string position");

  00000	68 00 00 00 00	 push	 OFFSET ??_C@_0BI@CFPLBAOH@invalid?5string?5position?$AA@
  00005	ff 15 00 00 00
	00		 call	 DWORD PTR __imp_?_Xout_of_range@std@@YAXPBD@Z
$LN4@Xran:
$LN3@Xran:
  0000b	cc		 int	 3
?_Xran@?$basic_string@DU?$char_traits@D@std@@V?$allocator@D@2@@std@@QBEXXZ ENDP ; std::basic_string<char,std::char_traits<char>,std::allocator<char> >::_Xran
_TEXT	ENDS
PUBLIC	?deallocate@?$allocator@D@std@@QAEXPADI@Z	; std::allocator<char>::deallocate
; Function compile flags: /Ogsp
; File c:\program files (x86)\microsoft visual studio 10.0\vc\include\xmemory
;	COMDAT ?deallocate@?$allocator@D@std@@QAEXPADI@Z
_TEXT	SEGMENT
__Ptr$ = 8						; size = 4
___formal$ = 12						; size = 4
?deallocate@?$allocator@D@std@@QAEXPADI@Z PROC		; std::allocator<char>::deallocate, COMDAT
; _this$ = ecx

; 181  : 		{	// deallocate object at _Ptr, ignore size

  00000	55		 push	 ebp
  00001	8b ec		 mov	 ebp, esp

; 182  : 		::operator delete(_Ptr);

  00003	ff 75 08	 push	 DWORD PTR __Ptr$[ebp]
  00006	e8 00 00 00 00	 call	 ??3@YAXPAX@Z		; operator delete
  0000b	59		 pop	 ecx

; 183  : 		}

  0000c	5d		 pop	 ebp
  0000d	c2 08 00	 ret	 8
?deallocate@?$allocator@D@std@@QAEXPADI@Z ENDP		; std::allocator<char>::deallocate
_TEXT	ENDS
PUBLIC	??0?$allocator@UWeaponInfo@@@std@@QAE@ABV01@@Z	; std::allocator<WeaponInfo>::allocator<WeaponInfo>
; Function compile flags: /Ogsp
;	COMDAT ??0?$allocator@UWeaponInfo@@@std@@QAE@ABV01@@Z
_TEXT	SEGMENT
___formal$ = 8						; size = 4
??0?$allocator@UWeaponInfo@@@std@@QAE@ABV01@@Z PROC	; std::allocator<WeaponInfo>::allocator<WeaponInfo>, COMDAT
; _this$ = ecx

; 165  : 	_ALLOCATOR(const _ALLOCATOR<_Ty>&) _THROW0()

  00000	8b c1		 mov	 eax, ecx

; 166  : 		{	// construct by copying (do nothing)
; 167  : 		}

  00002	c2 04 00	 ret	 4
??0?$allocator@UWeaponInfo@@@std@@QAE@ABV01@@Z ENDP	; std::allocator<WeaponInfo>::allocator<WeaponInfo>
_TEXT	ENDS
PUBLIC	?deallocate@?$allocator@UWeaponInfo@@@std@@QAEXPAUWeaponInfo@@I@Z ; std::allocator<WeaponInfo>::deallocate
; Function compile flags: /Ogsp
;	COMDAT ?deallocate@?$allocator@UWeaponInfo@@@std@@QAEXPAUWeaponInfo@@I@Z
_TEXT	SEGMENT
__Ptr$ = 8						; size = 4
___formal$ = 12						; size = 4
?deallocate@?$allocator@UWeaponInfo@@@std@@QAEXPAUWeaponInfo@@I@Z PROC ; std::allocator<WeaponInfo>::deallocate, COMDAT
; _this$ = ecx

; 181  : 		{	// deallocate object at _Ptr, ignore size

  00000	55		 push	 ebp
  00001	8b ec		 mov	 ebp, esp

; 182  : 		::operator delete(_Ptr);

  00003	ff 75 08	 push	 DWORD PTR __Ptr$[ebp]
  00006	e8 00 00 00 00	 call	 ??3@YAXPAX@Z		; operator delete
  0000b	59		 pop	 ecx

; 183  : 		}

  0000c	5d		 pop	 ebp
  0000d	c2 08 00	 ret	 8
?deallocate@?$allocator@UWeaponInfo@@@std@@QAEXPAUWeaponInfo@@I@Z ENDP ; std::allocator<WeaponInfo>::deallocate
_TEXT	ENDS
PUBLIC	??0?$allocator@UForceInfo@@@std@@QAE@ABV01@@Z	; std::allocator<ForceInfo>::allocator<ForceInfo>
; Function compile flags: /Ogsp
;	COMDAT ??0?$allocator@UForceInfo@@@std@@QAE@ABV01@@Z
_TEXT	SEGMENT
___formal$ = 8						; size = 4
??0?$allocator@UForceInfo@@@std@@QAE@ABV01@@Z PROC	; std::allocator<ForceInfo>::allocator<ForceInfo>, COMDAT
; _this$ = ecx

; 165  : 	_ALLOCATOR(const _ALLOCATOR<_Ty>&) _THROW0()

  00000	8b c1		 mov	 eax, ecx

; 166  : 		{	// construct by copying (do nothing)
; 167  : 		}

  00002	c2 04 00	 ret	 4
??0?$allocator@UForceInfo@@@std@@QAE@ABV01@@Z ENDP	; std::allocator<ForceInfo>::allocator<ForceInfo>
_TEXT	ENDS
PUBLIC	?deallocate@?$allocator@UForceInfo@@@std@@QAEXPAUForceInfo@@I@Z ; std::allocator<ForceInfo>::deallocate
; Function compile flags: /Ogsp
;	COMDAT ?deallocate@?$allocator@UForceInfo@@@std@@QAEXPAUForceInfo@@I@Z
_TEXT	SEGMENT
__Ptr$ = 8						; size = 4
___formal$ = 12						; size = 4
?deallocate@?$allocator@UForceInfo@@@std@@QAEXPAUForceInfo@@I@Z PROC ; std::allocator<ForceInfo>::deallocate, COMDAT
; _this$ = ecx

; 181  : 		{	// deallocate object at _Ptr, ignore size

  00000	55		 push	 ebp
  00001	8b ec		 mov	 ebp, esp

; 182  : 		::operator delete(_Ptr);

  00003	ff 75 08	 push	 DWORD PTR __Ptr$[ebp]
  00006	e8 00 00 00 00	 call	 ??3@YAXPAX@Z		; operator delete
  0000b	59		 pop	 ecx

; 183  : 		}

  0000c	5d		 pop	 ebp
  0000d	c2 08 00	 ret	 8
?deallocate@?$allocator@UForceInfo@@@std@@QAEXPAUForceInfo@@I@Z ENDP ; std::allocator<ForceInfo>::deallocate
_TEXT	ENDS
PUBLIC	?_Inside@?$basic_string@DU?$char_traits@D@std@@V?$allocator@D@2@@std@@QAE_NPBD@Z ; std::basic_string<char,std::char_traits<char>,std::allocator<char> >::_Inside
; Function compile flags: /Ogsp
; File c:\program files (x86)\microsoft visual studio 10.0\vc\include\xstring
;	COMDAT ?_Inside@?$basic_string@DU?$char_traits@D@std@@V?$allocator@D@2@@std@@QAE_NPBD@Z
_TEXT	SEGMENT
__Ptr$ = 8						; size = 4
?_Inside@?$basic_string@DU?$char_traits@D@std@@V?$allocator@D@2@@std@@QAE_NPBD@Z PROC ; std::basic_string<char,std::char_traits<char>,std::allocator<char> >::_Inside, COMDAT
; _this$ = ecx

; 1973 : 		{	// test if _Ptr points inside string

  00000	55		 push	 ebp
  00001	8b ec		 mov	 ebp, esp

; 1974 : 		if (_Ptr == 0 || _Ptr < _Myptr() || _Myptr() + this->_Mysize <= _Ptr)

  00003	83 7d 08 00	 cmp	 DWORD PTR __Ptr$[ebp], 0
  00007	74 2c		 je	 SHORT $LN2@Inside@2
  00009	8b 51 14	 mov	 edx, DWORD PTR [ecx+20]
  0000c	83 fa 10	 cmp	 edx, 16			; 00000010H
  0000f	72 04		 jb	 SHORT $LN8@Inside@2
  00011	8b 01		 mov	 eax, DWORD PTR [ecx]
  00013	eb 02		 jmp	 SHORT $LN9@Inside@2
$LN8@Inside@2:
  00015	8b c1		 mov	 eax, ecx
$LN9@Inside@2:
  00017	39 45 08	 cmp	 DWORD PTR __Ptr$[ebp], eax
  0001a	72 19		 jb	 SHORT $LN2@Inside@2
  0001c	83 fa 10	 cmp	 edx, 16			; 00000010H
  0001f	72 04		 jb	 SHORT $LN12@Inside@2
  00021	8b 01		 mov	 eax, DWORD PTR [ecx]
  00023	eb 02		 jmp	 SHORT $LN13@Inside@2
$LN12@Inside@2:
  00025	8b c1		 mov	 eax, ecx
$LN13@Inside@2:
  00027	8b 49 10	 mov	 ecx, DWORD PTR [ecx+16]
  0002a	03 c8		 add	 ecx, eax
  0002c	3b 4d 08	 cmp	 ecx, DWORD PTR __Ptr$[ebp]
  0002f	76 04		 jbe	 SHORT $LN2@Inside@2

; 1976 : 		else
; 1977 : 			return (true);

  00031	b0 01		 mov	 al, 1
  00033	eb 02		 jmp	 SHORT $LN1@Inside@2
$LN2@Inside@2:

; 1975 : 			return (false);	// don't ask

  00035	32 c0		 xor	 al, al
$LN1@Inside@2:

; 1978 : 		}

  00037	5d		 pop	 ebp
  00038	c2 04 00	 ret	 4
?_Inside@?$basic_string@DU?$char_traits@D@std@@V?$allocator@D@2@@std@@QAE_NPBD@Z ENDP ; std::basic_string<char,std::char_traits<char>,std::allocator<char> >::_Inside
_TEXT	ENDS
PUBLIC	?max_size@?$allocator@D@std@@QBEIXZ		; std::allocator<char>::max_size
; Function compile flags: /Ogsp
; File c:\program files (x86)\microsoft visual studio 10.0\vc\include\xmemory
;	COMDAT ?max_size@?$allocator@D@std@@QBEIXZ
_TEXT	SEGMENT
?max_size@?$allocator@D@std@@QBEIXZ PROC		; std::allocator<char>::max_size, COMDAT
; _this$ = ecx

; 218  : 		_SIZT _Count = (_SIZT)(-1) / sizeof (_Ty);
; 219  : 		return (0 < _Count ? _Count : 1);

  00000	83 c8 ff	 or	 eax, -1

; 220  : 		}

  00003	c3		 ret	 0
?max_size@?$allocator@D@std@@QBEIXZ ENDP		; std::allocator<char>::max_size
_TEXT	ENDS
PUBLIC	??$_Allocate@D@std@@YAPADIPAD@Z			; std::_Allocate<char>
; Function compile flags: /Ogsp
;	COMDAT ??$_Allocate@D@std@@YAPADIPAD@Z
_TEXT	SEGMENT
$T536324 = -12						; size = 12
$T536328 = 8						; size = 4
__Count$ = 8						; size = 4
___formal$ = 12						; size = 4
??$_Allocate@D@std@@YAPADIPAD@Z PROC			; std::_Allocate<char>, COMDAT

; 30   : 	{	// allocate storage for _Count elements of type _Ty

  00000	55		 push	 ebp
  00001	8b ec		 mov	 ebp, esp

; 31   : 	void *_Ptr = 0;

  00003	33 c0		 xor	 eax, eax
  00005	83 ec 0c	 sub	 esp, 12			; 0000000cH

; 32   : 
; 33   : 	if (_Count <= 0)

  00008	39 45 08	 cmp	 DWORD PTR __Count$[ebp], eax

; 34   : 		_Count = 0;
; 35   : 	else if (((_SIZT)(-1) / sizeof (_Ty) < _Count)

  0000b	76 39		 jbe	 SHORT $LN5@Allocate@2

; 36   : 		|| (_Ptr = ::operator new(_Count * sizeof (_Ty))) == 0)

  0000d	83 7d 08 ff	 cmp	 DWORD PTR __Count$[ebp], -1
  00011	77 0d		 ja	 SHORT $LN1@Allocate@2
  00013	ff 75 08	 push	 DWORD PTR __Count$[ebp]
  00016	e8 00 00 00 00	 call	 ??2@YAPAXI@Z		; operator new
  0001b	59		 pop	 ecx
  0001c	85 c0		 test	 eax, eax

; 38   : 
; 39   : 	return ((_Ty _FARQ *)_Ptr);

  0001e	75 26		 jne	 SHORT $LN5@Allocate@2
$LN1@Allocate@2:

; 37   : 		_THROW_NCEE(bad_alloc, 0);

  00020	83 65 08 00	 and	 DWORD PTR $T536328[ebp], 0
  00024	8d 45 08	 lea	 eax, DWORD PTR $T536328[ebp]
  00027	50		 push	 eax
  00028	8d 4d f4	 lea	 ecx, DWORD PTR $T536324[ebp]
  0002b	ff 15 00 00 00
	00		 call	 DWORD PTR __imp_??0exception@std@@QAE@ABQBD@Z
  00031	68 00 00 00 00	 push	 OFFSET __TI2?AVbad_alloc@std@@
  00036	8d 45 f4	 lea	 eax, DWORD PTR $T536324[ebp]
  00039	50		 push	 eax
  0003a	c7 45 f4 00 00
	00 00		 mov	 DWORD PTR $T536324[ebp], OFFSET ??_7bad_alloc@std@@6B@
  00041	e8 00 00 00 00	 call	 __CxxThrowException@8
$LN10@Allocate@2:
$LN5@Allocate@2:

; 40   : 	}

  00046	c9		 leave
  00047	c3		 ret	 0
$LN9@Allocate@2:
??$_Allocate@D@std@@YAPADIPAD@Z ENDP			; std::_Allocate<char>
_TEXT	ENDS
EXTRN	__imp_??0exception@std@@QAE@ABV01@@Z:PROC
; Function compile flags: /Ogsp
;	COMDAT ??0bad_alloc@std@@QAE@ABV01@@Z
_TEXT	SEGMENT
___that$ = 8						; size = 4
??0bad_alloc@std@@QAE@ABV01@@Z PROC			; std::bad_alloc::bad_alloc, COMDAT
; _this$ = ecx
  00000	55		 push	 ebp
  00001	8b ec		 mov	 ebp, esp
  00003	56		 push	 esi
  00004	ff 75 08	 push	 DWORD PTR ___that$[ebp]
  00007	8b f1		 mov	 esi, ecx
  00009	ff 15 00 00 00
	00		 call	 DWORD PTR __imp_??0exception@std@@QAE@ABV01@@Z
  0000f	c7 06 00 00 00
	00		 mov	 DWORD PTR [esi], OFFSET ??_7bad_alloc@std@@6B@
  00015	8b c6		 mov	 eax, esi
  00017	5e		 pop	 esi
  00018	5d		 pop	 ebp
  00019	c2 04 00	 ret	 4
??0bad_alloc@std@@QAE@ABV01@@Z ENDP			; std::bad_alloc::bad_alloc
_TEXT	ENDS
PUBLIC	??$_Ptr_cat@UWeaponInfo@@U1@@std@@YA?AU_Nonscalar_ptr_iterator_tag@0@PAUWeaponInfo@@0@Z ; std::_Ptr_cat<WeaponInfo,WeaponInfo>
; Function compile flags: /Ogsp
; File c:\program files (x86)\microsoft visual studio 10.0\vc\include\xutility
;	COMDAT ??$_Ptr_cat@UWeaponInfo@@U1@@std@@YA?AU_Nonscalar_ptr_iterator_tag@0@PAUWeaponInfo@@0@Z
_TEXT	SEGMENT
__Cat$ = -1						; size = 1
___formal$ = 8						; size = 4
___formal$ = 12						; size = 4
??$_Ptr_cat@UWeaponInfo@@U1@@std@@YA?AU_Nonscalar_ptr_iterator_tag@0@PAUWeaponInfo@@0@Z PROC ; std::_Ptr_cat<WeaponInfo,WeaponInfo>, COMDAT

; 516  : 	{	// return pointer category from pointers

  00000	55		 push	 ebp
  00001	8b ec		 mov	 ebp, esp
  00003	51		 push	 ecx

; 517  : 	typename _Ptr_cat_helper<_Elem1, _Elem2>::_Type _Cat;
; 518  : 	return (_Cat);

  00004	8a 45 ff	 mov	 al, BYTE PTR __Cat$[ebp]

; 519  : 	}

  00007	c9		 leave
  00008	c3		 ret	 0
??$_Ptr_cat@UWeaponInfo@@U1@@std@@YA?AU_Nonscalar_ptr_iterator_tag@0@PAUWeaponInfo@@0@Z ENDP ; std::_Ptr_cat<WeaponInfo,WeaponInfo>
_TEXT	ENDS
PUBLIC	??$_Ptr_cat@UForceInfo@@U1@@std@@YA?AU_Nonscalar_ptr_iterator_tag@0@PAUForceInfo@@0@Z ; std::_Ptr_cat<ForceInfo,ForceInfo>
; Function compile flags: /Ogsp
;	COMDAT ??$_Ptr_cat@UForceInfo@@U1@@std@@YA?AU_Nonscalar_ptr_iterator_tag@0@PAUForceInfo@@0@Z
_TEXT	SEGMENT
__Cat$ = -1						; size = 1
___formal$ = 8						; size = 4
___formal$ = 12						; size = 4
??$_Ptr_cat@UForceInfo@@U1@@std@@YA?AU_Nonscalar_ptr_iterator_tag@0@PAUForceInfo@@0@Z PROC ; std::_Ptr_cat<ForceInfo,ForceInfo>, COMDAT

; 516  : 	{	// return pointer category from pointers

  00000	55		 push	 ebp
  00001	8b ec		 mov	 ebp, esp
  00003	51		 push	 ecx

; 517  : 	typename _Ptr_cat_helper<_Elem1, _Elem2>::_Type _Cat;
; 518  : 	return (_Cat);

  00004	8a 45 ff	 mov	 al, BYTE PTR __Cat$[ebp]

; 519  : 	}

  00007	c9		 leave
  00008	c3		 ret	 0
??$_Ptr_cat@UForceInfo@@U1@@std@@YA?AU_Nonscalar_ptr_iterator_tag@0@PAUForceInfo@@0@Z ENDP ; std::_Ptr_cat<ForceInfo,ForceInfo>
_TEXT	ENDS
PUBLIC	?size@?$vector@UWeaponInfo@@V?$allocator@UWeaponInfo@@@std@@@std@@QBEIXZ ; std::vector<WeaponInfo,std::allocator<WeaponInfo> >::size
; Function compile flags: /Ogsp
; File c:\program files (x86)\microsoft visual studio 10.0\vc\include\vector
;	COMDAT ?size@?$vector@UWeaponInfo@@V?$allocator@UWeaponInfo@@@std@@@std@@QBEIXZ
_TEXT	SEGMENT
?size@?$vector@UWeaponInfo@@V?$allocator@UWeaponInfo@@@std@@@std@@QBEIXZ PROC ; std::vector<WeaponInfo,std::allocator<WeaponInfo> >::size, COMDAT
; _this$ = ecx

; 879  : 		return (this->_Mylast - this->_Myfirst);

  00000	8b 41 04	 mov	 eax, DWORD PTR [ecx+4]
  00003	2b 01		 sub	 eax, DWORD PTR [ecx]
  00005	6a 28		 push	 40			; 00000028H
  00007	99		 cdq
  00008	59		 pop	 ecx
  00009	f7 f9		 idiv	 ecx

; 880  : 		}

  0000b	c3		 ret	 0
?size@?$vector@UWeaponInfo@@V?$allocator@UWeaponInfo@@@std@@@std@@QBEIXZ ENDP ; std::vector<WeaponInfo,std::allocator<WeaponInfo> >::size
_TEXT	ENDS
PUBLIC	?size@?$vector@UForceInfo@@V?$allocator@UForceInfo@@@std@@@std@@QBEIXZ ; std::vector<ForceInfo,std::allocator<ForceInfo> >::size
; Function compile flags: /Ogsp
;	COMDAT ?size@?$vector@UForceInfo@@V?$allocator@UForceInfo@@@std@@@std@@QBEIXZ
_TEXT	SEGMENT
?size@?$vector@UForceInfo@@V?$allocator@UForceInfo@@@std@@@std@@QBEIXZ PROC ; std::vector<ForceInfo,std::allocator<ForceInfo> >::size, COMDAT
; _this$ = ecx

; 879  : 		return (this->_Mylast - this->_Myfirst);

  00000	8b 41 04	 mov	 eax, DWORD PTR [ecx+4]
  00003	2b 01		 sub	 eax, DWORD PTR [ecx]
  00005	6a 0c		 push	 12			; 0000000cH
  00007	99		 cdq
  00008	59		 pop	 ecx
  00009	f7 f9		 idiv	 ecx

; 880  : 		}

  0000b	c3		 ret	 0
?size@?$vector@UForceInfo@@V?$allocator@UForceInfo@@@std@@@std@@QBEIXZ ENDP ; std::vector<ForceInfo,std::allocator<ForceInfo> >::size
_TEXT	ENDS
PUBLIC	?_Xlen@?$vector@UWeaponInfo@@V?$allocator@UWeaponInfo@@@std@@@std@@IBEXXZ ; std::vector<WeaponInfo,std::allocator<WeaponInfo> >::_Xlen
; Function compile flags: /Ogsp
;	COMDAT ?_Xlen@?$vector@UWeaponInfo@@V?$allocator@UWeaponInfo@@@std@@@std@@IBEXXZ
_TEXT	SEGMENT
?_Xlen@?$vector@UWeaponInfo@@V?$allocator@UWeaponInfo@@@std@@@std@@IBEXXZ PROC ; std::vector<WeaponInfo,std::allocator<WeaponInfo> >::_Xlen, COMDAT
; _this$ = ecx

; 1427 : 		_Xlength_error("vector<T> too long");

  00000	68 00 00 00 00	 push	 OFFSET ??_C@_0BD@OLBABOEK@vector?$DMT?$DO?5too?5long?$AA@
  00005	ff 15 00 00 00
	00		 call	 DWORD PTR __imp_?_Xlength_error@std@@YAXPBD@Z
$LN4@Xlen@3:
$LN3@Xlen@3:
  0000b	cc		 int	 3
?_Xlen@?$vector@UWeaponInfo@@V?$allocator@UWeaponInfo@@@std@@@std@@IBEXXZ ENDP ; std::vector<WeaponInfo,std::allocator<WeaponInfo> >::_Xlen
_TEXT	ENDS
PUBLIC	?_Xlen@?$vector@UForceInfo@@V?$allocator@UForceInfo@@@std@@@std@@IBEXXZ ; std::vector<ForceInfo,std::allocator<ForceInfo> >::_Xlen
; Function compile flags: /Ogsp
;	COMDAT ?_Xlen@?$vector@UForceInfo@@V?$allocator@UForceInfo@@@std@@@std@@IBEXXZ
_TEXT	SEGMENT
?_Xlen@?$vector@UForceInfo@@V?$allocator@UForceInfo@@@std@@@std@@IBEXXZ PROC ; std::vector<ForceInfo,std::allocator<ForceInfo> >::_Xlen, COMDAT
; _this$ = ecx

; 1427 : 		_Xlength_error("vector<T> too long");

  00000	68 00 00 00 00	 push	 OFFSET ??_C@_0BD@OLBABOEK@vector?$DMT?$DO?5too?5long?$AA@
  00005	ff 15 00 00 00
	00		 call	 DWORD PTR __imp_?_Xlength_error@std@@YAXPBD@Z
$LN4@Xlen@4:
$LN3@Xlen@4:
  0000b	cc		 int	 3
?_Xlen@?$vector@UForceInfo@@V?$allocator@UForceInfo@@@std@@@std@@IBEXXZ ENDP ; std::vector<ForceInfo,std::allocator<ForceInfo> >::_Xlen
_TEXT	ENDS
PUBLIC	?max_size@?$allocator@UWeaponInfo@@@std@@QBEIXZ	; std::allocator<WeaponInfo>::max_size
; Function compile flags: /Ogsp
; File c:\program files (x86)\microsoft visual studio 10.0\vc\include\xmemory
;	COMDAT ?max_size@?$allocator@UWeaponInfo@@@std@@QBEIXZ
_TEXT	SEGMENT
?max_size@?$allocator@UWeaponInfo@@@std@@QBEIXZ PROC	; std::allocator<WeaponInfo>::max_size, COMDAT
; _this$ = ecx

; 218  : 		_SIZT _Count = (_SIZT)(-1) / sizeof (_Ty);
; 219  : 		return (0 < _Count ? _Count : 1);

  00000	b8 66 66 66 06	 mov	 eax, 107374182		; 06666666H

; 220  : 		}

  00005	c3		 ret	 0
?max_size@?$allocator@UWeaponInfo@@@std@@QBEIXZ ENDP	; std::allocator<WeaponInfo>::max_size
_TEXT	ENDS
PUBLIC	?max_size@?$allocator@UForceInfo@@@std@@QBEIXZ	; std::allocator<ForceInfo>::max_size
; Function compile flags: /Ogsp
;	COMDAT ?max_size@?$allocator@UForceInfo@@@std@@QBEIXZ
_TEXT	SEGMENT
?max_size@?$allocator@UForceInfo@@@std@@QBEIXZ PROC	; std::allocator<ForceInfo>::max_size, COMDAT
; _this$ = ecx

; 218  : 		_SIZT _Count = (_SIZT)(-1) / sizeof (_Ty);
; 219  : 		return (0 < _Count ? _Count : 1);

  00000	b8 55 55 55 15	 mov	 eax, 357913941		; 15555555H

; 220  : 		}

  00005	c3		 ret	 0
?max_size@?$allocator@UForceInfo@@@std@@QBEIXZ ENDP	; std::allocator<ForceInfo>::max_size
_TEXT	ENDS
PUBLIC	??0?$_Vector_const_iterator@V?$_Vector_val@UWeaponInfo@@V?$allocator@UWeaponInfo@@@std@@@std@@@std@@QAE@PAUWeaponInfo@@PBU_Container_base0@1@@Z ; std::_Vector_const_iterator<std::_Vector_val<WeaponInfo,std::allocator<WeaponInfo> > >::_Vector_const_iterator<std::_Vector_val<WeaponInfo,std::allocator<WeaponInfo> > >
; Function compile flags: /Ogsp
; File c:\program files (x86)\microsoft visual studio 10.0\vc\include\vector
;	COMDAT ??0?$_Vector_const_iterator@V?$_Vector_val@UWeaponInfo@@V?$allocator@UWeaponInfo@@@std@@@std@@@std@@QAE@PAUWeaponInfo@@PBU_Container_base0@1@@Z
_TEXT	SEGMENT
__Parg$ = 8						; size = 4
__Pvector$ = 12						; size = 4
??0?$_Vector_const_iterator@V?$_Vector_val@UWeaponInfo@@V?$allocator@UWeaponInfo@@@std@@@std@@@std@@QAE@PAUWeaponInfo@@PBU_Container_base0@1@@Z PROC ; std::_Vector_const_iterator<std::_Vector_val<WeaponInfo,std::allocator<WeaponInfo> > >::_Vector_const_iterator<std::_Vector_val<WeaponInfo,std::allocator<WeaponInfo> > >, COMDAT
; _this$ = ecx

; 45   : 		{	// construct with pointer _Parg

  00000	55		 push	 ebp
  00001	8b ec		 mov	 ebp, esp
  00003	8b c1		 mov	 eax, ecx
  00005	8b 4d 08	 mov	 ecx, DWORD PTR __Parg$[ebp]
  00008	89 08		 mov	 DWORD PTR [eax], ecx

; 46   : 		this->_Adopt(_Pvector);
; 47   : 		}

  0000a	5d		 pop	 ebp
  0000b	c2 08 00	 ret	 8
??0?$_Vector_const_iterator@V?$_Vector_val@UWeaponInfo@@V?$allocator@UWeaponInfo@@@std@@@std@@@std@@QAE@PAUWeaponInfo@@PBU_Container_base0@1@@Z ENDP ; std::_Vector_const_iterator<std::_Vector_val<WeaponInfo,std::allocator<WeaponInfo> > >::_Vector_const_iterator<std::_Vector_val<WeaponInfo,std::allocator<WeaponInfo> > >
_TEXT	ENDS
PUBLIC	??0?$_Vector_const_iterator@V?$_Vector_val@UForceInfo@@V?$allocator@UForceInfo@@@std@@@std@@@std@@QAE@PAUForceInfo@@PBU_Container_base0@1@@Z ; std::_Vector_const_iterator<std::_Vector_val<ForceInfo,std::allocator<ForceInfo> > >::_Vector_const_iterator<std::_Vector_val<ForceInfo,std::allocator<ForceInfo> > >
; Function compile flags: /Ogsp
;	COMDAT ??0?$_Vector_const_iterator@V?$_Vector_val@UForceInfo@@V?$allocator@UForceInfo@@@std@@@std@@@std@@QAE@PAUForceInfo@@PBU_Container_base0@1@@Z
_TEXT	SEGMENT
__Parg$ = 8						; size = 4
__Pvector$ = 12						; size = 4
??0?$_Vector_const_iterator@V?$_Vector_val@UForceInfo@@V?$allocator@UForceInfo@@@std@@@std@@@std@@QAE@PAUForceInfo@@PBU_Container_base0@1@@Z PROC ; std::_Vector_const_iterator<std::_Vector_val<ForceInfo,std::allocator<ForceInfo> > >::_Vector_const_iterator<std::_Vector_val<ForceInfo,std::allocator<ForceInfo> > >, COMDAT
; _this$ = ecx

; 45   : 		{	// construct with pointer _Parg

  00000	55		 push	 ebp
  00001	8b ec		 mov	 ebp, esp
  00003	8b c1		 mov	 eax, ecx
  00005	8b 4d 08	 mov	 ecx, DWORD PTR __Parg$[ebp]
  00008	89 08		 mov	 DWORD PTR [eax], ecx

; 46   : 		this->_Adopt(_Pvector);
; 47   : 		}

  0000a	5d		 pop	 ebp
  0000b	c2 08 00	 ret	 8
??0?$_Vector_const_iterator@V?$_Vector_val@UForceInfo@@V?$allocator@UForceInfo@@@std@@@std@@@std@@QAE@PAUForceInfo@@PBU_Container_base0@1@@Z ENDP ; std::_Vector_const_iterator<std::_Vector_val<ForceInfo,std::allocator<ForceInfo> > >::_Vector_const_iterator<std::_Vector_val<ForceInfo,std::allocator<ForceInfo> > >
_TEXT	ENDS
PUBLIC	?_Compat@?$_Vector_const_iterator@V?$_Vector_val@UWeaponInfo@@V?$allocator@UWeaponInfo@@@std@@@std@@@std@@QBEXABV12@@Z ; std::_Vector_const_iterator<std::_Vector_val<WeaponInfo,std::allocator<WeaponInfo> > >::_Compat
; Function compile flags: /Ogsp
;	COMDAT ?_Compat@?$_Vector_const_iterator@V?$_Vector_val@UWeaponInfo@@V?$allocator@UWeaponInfo@@@std@@@std@@@std@@QBEXABV12@@Z
_TEXT	SEGMENT
___formal$ = 8						; size = 4
?_Compat@?$_Vector_const_iterator@V?$_Vector_val@UWeaponInfo@@V?$allocator@UWeaponInfo@@@std@@@std@@@std@@QBEXABV12@@Z PROC ; std::_Vector_const_iterator<std::_Vector_val<WeaponInfo,std::allocator<WeaponInfo> > >::_Compat, COMDAT
; _this$ = ecx

; 253  : 		}

  00000	c2 04 00	 ret	 4
?_Compat@?$_Vector_const_iterator@V?$_Vector_val@UWeaponInfo@@V?$allocator@UWeaponInfo@@@std@@@std@@@std@@QBEXABV12@@Z ENDP ; std::_Vector_const_iterator<std::_Vector_val<WeaponInfo,std::allocator<WeaponInfo> > >::_Compat
_TEXT	ENDS
PUBLIC	?_Compat@?$_Vector_const_iterator@V?$_Vector_val@UForceInfo@@V?$allocator@UForceInfo@@@std@@@std@@@std@@QBEXABV12@@Z ; std::_Vector_const_iterator<std::_Vector_val<ForceInfo,std::allocator<ForceInfo> > >::_Compat
; Function compile flags: /Ogsp
;	COMDAT ?_Compat@?$_Vector_const_iterator@V?$_Vector_val@UForceInfo@@V?$allocator@UForceInfo@@@std@@@std@@@std@@QBEXABV12@@Z
_TEXT	SEGMENT
___formal$ = 8						; size = 4
?_Compat@?$_Vector_const_iterator@V?$_Vector_val@UForceInfo@@V?$allocator@UForceInfo@@@std@@@std@@@std@@QBEXABV12@@Z PROC ; std::_Vector_const_iterator<std::_Vector_val<ForceInfo,std::allocator<ForceInfo> > >::_Compat, COMDAT
; _this$ = ecx

; 253  : 		}

  00000	c2 04 00	 ret	 4
?_Compat@?$_Vector_const_iterator@V?$_Vector_val@UForceInfo@@V?$allocator@UForceInfo@@@std@@@std@@@std@@QBEXABV12@@Z ENDP ; std::_Vector_const_iterator<std::_Vector_val<ForceInfo,std::allocator<ForceInfo> > >::_Compat
_TEXT	ENDS
PUBLIC	??$_Allocate@UWeaponInfo@@@std@@YAPAUWeaponInfo@@IPAU1@@Z ; std::_Allocate<WeaponInfo>
; Function compile flags: /Ogsp
; File c:\program files (x86)\microsoft visual studio 10.0\vc\include\xmemory
;	COMDAT ??$_Allocate@UWeaponInfo@@@std@@YAPAUWeaponInfo@@IPAU1@@Z
_TEXT	SEGMENT
$T536382 = -12						; size = 12
$T536386 = 8						; size = 4
__Count$ = 8						; size = 4
___formal$ = 12						; size = 4
??$_Allocate@UWeaponInfo@@@std@@YAPAUWeaponInfo@@IPAU1@@Z PROC ; std::_Allocate<WeaponInfo>, COMDAT

; 30   : 	{	// allocate storage for _Count elements of type _Ty

  00000	55		 push	 ebp
  00001	8b ec		 mov	 ebp, esp

; 31   : 	void *_Ptr = 0;
; 32   : 
; 33   : 	if (_Count <= 0)

  00003	8b 4d 08	 mov	 ecx, DWORD PTR __Count$[ebp]
  00006	83 ec 0c	 sub	 esp, 12			; 0000000cH
  00009	33 c0		 xor	 eax, eax
  0000b	85 c9		 test	 ecx, ecx

; 34   : 		_Count = 0;
; 35   : 	else if (((_SIZT)(-1) / sizeof (_Ty) < _Count)

  0000d	74 3c		 je	 SHORT $LN5@Allocate@3

; 36   : 		|| (_Ptr = ::operator new(_Count * sizeof (_Ty))) == 0)

  0000f	81 f9 66 66 66
	06		 cmp	 ecx, 107374182		; 06666666H
  00015	77 0e		 ja	 SHORT $LN1@Allocate@3
  00017	6b c9 28	 imul	 ecx, 40			; 00000028H
  0001a	51		 push	 ecx
  0001b	e8 00 00 00 00	 call	 ??2@YAPAXI@Z		; operator new
  00020	59		 pop	 ecx
  00021	85 c0		 test	 eax, eax

; 38   : 
; 39   : 	return ((_Ty _FARQ *)_Ptr);

  00023	75 26		 jne	 SHORT $LN5@Allocate@3
$LN1@Allocate@3:

; 37   : 		_THROW_NCEE(bad_alloc, 0);

  00025	83 65 08 00	 and	 DWORD PTR $T536386[ebp], 0
  00029	8d 45 08	 lea	 eax, DWORD PTR $T536386[ebp]
  0002c	50		 push	 eax
  0002d	8d 4d f4	 lea	 ecx, DWORD PTR $T536382[ebp]
  00030	ff 15 00 00 00
	00		 call	 DWORD PTR __imp_??0exception@std@@QAE@ABQBD@Z
  00036	68 00 00 00 00	 push	 OFFSET __TI2?AVbad_alloc@std@@
  0003b	8d 45 f4	 lea	 eax, DWORD PTR $T536382[ebp]
  0003e	50		 push	 eax
  0003f	c7 45 f4 00 00
	00 00		 mov	 DWORD PTR $T536382[ebp], OFFSET ??_7bad_alloc@std@@6B@
  00046	e8 00 00 00 00	 call	 __CxxThrowException@8
$LN10@Allocate@3:
$LN5@Allocate@3:

; 40   : 	}

  0004b	c9		 leave
  0004c	c3		 ret	 0
$LN9@Allocate@3:
??$_Allocate@UWeaponInfo@@@std@@YAPAUWeaponInfo@@IPAU1@@Z ENDP ; std::_Allocate<WeaponInfo>
_TEXT	ENDS
PUBLIC	??$_Allocate@UForceInfo@@@std@@YAPAUForceInfo@@IPAU1@@Z ; std::_Allocate<ForceInfo>
; Function compile flags: /Ogsp
;	COMDAT ??$_Allocate@UForceInfo@@@std@@YAPAUForceInfo@@IPAU1@@Z
_TEXT	SEGMENT
$T536391 = -12						; size = 12
$T536395 = 8						; size = 4
__Count$ = 8						; size = 4
___formal$ = 12						; size = 4
??$_Allocate@UForceInfo@@@std@@YAPAUForceInfo@@IPAU1@@Z PROC ; std::_Allocate<ForceInfo>, COMDAT

; 30   : 	{	// allocate storage for _Count elements of type _Ty

  00000	55		 push	 ebp
  00001	8b ec		 mov	 ebp, esp

; 31   : 	void *_Ptr = 0;
; 32   : 
; 33   : 	if (_Count <= 0)

  00003	8b 4d 08	 mov	 ecx, DWORD PTR __Count$[ebp]
  00006	83 ec 0c	 sub	 esp, 12			; 0000000cH
  00009	33 c0		 xor	 eax, eax
  0000b	85 c9		 test	 ecx, ecx

; 34   : 		_Count = 0;
; 35   : 	else if (((_SIZT)(-1) / sizeof (_Ty) < _Count)

  0000d	74 3c		 je	 SHORT $LN5@Allocate@4

; 36   : 		|| (_Ptr = ::operator new(_Count * sizeof (_Ty))) == 0)

  0000f	81 f9 55 55 55
	15		 cmp	 ecx, 357913941		; 15555555H
  00015	77 0e		 ja	 SHORT $LN1@Allocate@4
  00017	6b c9 0c	 imul	 ecx, 12			; 0000000cH
  0001a	51		 push	 ecx
  0001b	e8 00 00 00 00	 call	 ??2@YAPAXI@Z		; operator new
  00020	59		 pop	 ecx
  00021	85 c0		 test	 eax, eax

; 38   : 
; 39   : 	return ((_Ty _FARQ *)_Ptr);

  00023	75 26		 jne	 SHORT $LN5@Allocate@4
$LN1@Allocate@4:

; 37   : 		_THROW_NCEE(bad_alloc, 0);

  00025	83 65 08 00	 and	 DWORD PTR $T536395[ebp], 0
  00029	8d 45 08	 lea	 eax, DWORD PTR $T536395[ebp]
  0002c	50		 push	 eax
  0002d	8d 4d f4	 lea	 ecx, DWORD PTR $T536391[ebp]
  00030	ff 15 00 00 00
	00		 call	 DWORD PTR __imp_??0exception@std@@QAE@ABQBD@Z
  00036	68 00 00 00 00	 push	 OFFSET __TI2?AVbad_alloc@std@@
  0003b	8d 45 f4	 lea	 eax, DWORD PTR $T536391[ebp]
  0003e	50		 push	 eax
  0003f	c7 45 f4 00 00
	00 00		 mov	 DWORD PTR $T536391[ebp], OFFSET ??_7bad_alloc@std@@6B@
  00046	e8 00 00 00 00	 call	 __CxxThrowException@8
$LN10@Allocate@4:
$LN5@Allocate@4:

; 40   : 	}

  0004b	c9		 leave
  0004c	c3		 ret	 0
$LN9@Allocate@4:
??$_Allocate@UForceInfo@@@std@@YAPAUForceInfo@@IPAU1@@Z ENDP ; std::_Allocate<ForceInfo>
_TEXT	ENDS
PUBLIC	??$_Destroy@UForceInfo@@@std@@YAXPAUForceInfo@@@Z ; std::_Destroy<ForceInfo>
; Function compile flags: /Ogsp
;	COMDAT ??$_Destroy@UForceInfo@@@std@@YAXPAUForceInfo@@@Z
_TEXT	SEGMENT
__Ptr$ = 8						; size = 4
??$_Destroy@UForceInfo@@@std@@YAXPAUForceInfo@@@Z PROC	; std::_Destroy<ForceInfo>, COMDAT

; 63   : 	_Ptr->~_Ty();
; 64   : 	}

  00000	c3		 ret	 0
??$_Destroy@UForceInfo@@@std@@YAXPAUForceInfo@@@Z ENDP	; std::_Destroy<ForceInfo>
_TEXT	ENDS
PUBLIC	??_GWeaponInfo@@QAEPAXI@Z			; WeaponInfo::`scalar deleting destructor'
; Function compile flags: /Ogsp
;	COMDAT ??_GWeaponInfo@@QAEPAXI@Z
_TEXT	SEGMENT
___flags$ = 8						; size = 4
??_GWeaponInfo@@QAEPAXI@Z PROC				; WeaponInfo::`scalar deleting destructor', COMDAT
; _this$ = ecx
  00000	55		 push	 ebp
  00001	8b ec		 mov	 ebp, esp
  00003	56		 push	 esi
  00004	8b f1		 mov	 esi, ecx
  00006	8d 4e 08	 lea	 ecx, DWORD PTR [esi+8]
  00009	ff 15 00 00 00
	00		 call	 DWORD PTR __imp_??1ioHashString@@QAE@XZ
  0000f	f6 45 08 01	 test	 BYTE PTR ___flags$[ebp], 1
  00013	74 07		 je	 SHORT $LN1@scalar@4
  00015	56		 push	 esi
  00016	e8 00 00 00 00	 call	 ??3@YAXPAX@Z		; operator delete
  0001b	59		 pop	 ecx
$LN1@scalar@4:
  0001c	8b c6		 mov	 eax, esi
  0001e	5e		 pop	 esi
  0001f	5d		 pop	 ebp
  00020	c2 04 00	 ret	 4
??_GWeaponInfo@@QAEPAXI@Z ENDP				; WeaponInfo::`scalar deleting destructor'
_TEXT	ENDS
PUBLIC	??0WeaponInfo@@QAE@ABU0@@Z			; WeaponInfo::WeaponInfo
EXTRN	__imp_??0ioHashString@@QAE@ABV0@@Z:PROC
; Function compile flags: /Ogsp
;	COMDAT ??0WeaponInfo@@QAE@ABU0@@Z
_TEXT	SEGMENT
___that$ = 8						; size = 4
??0WeaponInfo@@QAE@ABU0@@Z PROC				; WeaponInfo::WeaponInfo, COMDAT
; _this$ = ecx
  00000	55		 push	 ebp
  00001	8b ec		 mov	 ebp, esp
  00003	56		 push	 esi
  00004	57		 push	 edi
  00005	8b 7d 08	 mov	 edi, DWORD PTR ___that$[ebp]
  00008	8b 07		 mov	 eax, DWORD PTR [edi]
  0000a	8b f1		 mov	 esi, ecx
  0000c	89 06		 mov	 DWORD PTR [esi], eax
  0000e	8b 47 04	 mov	 eax, DWORD PTR [edi+4]
  00011	89 46 04	 mov	 DWORD PTR [esi+4], eax
  00014	8d 47 08	 lea	 eax, DWORD PTR [edi+8]
  00017	50		 push	 eax
  00018	8d 4e 08	 lea	 ecx, DWORD PTR [esi+8]
  0001b	ff 15 00 00 00
	00		 call	 DWORD PTR __imp_??0ioHashString@@QAE@ABV0@@Z
  00021	8b 47 18	 mov	 eax, DWORD PTR [edi+24]
  00024	89 46 18	 mov	 DWORD PTR [esi+24], eax
  00027	8b 47 1c	 mov	 eax, DWORD PTR [edi+28]
  0002a	89 46 1c	 mov	 DWORD PTR [esi+28], eax
  0002d	8a 47 20	 mov	 al, BYTE PTR [edi+32]
  00030	88 46 20	 mov	 BYTE PTR [esi+32], al
  00033	8b 47 24	 mov	 eax, DWORD PTR [edi+36]
  00036	89 46 24	 mov	 DWORD PTR [esi+36], eax
  00039	5f		 pop	 edi
  0003a	8b c6		 mov	 eax, esi
  0003c	5e		 pop	 esi
  0003d	5d		 pop	 ebp
  0003e	c2 04 00	 ret	 4
??0WeaponInfo@@QAE@ABU0@@Z ENDP				; WeaponInfo::WeaponInfo
_TEXT	ENDS
PUBLIC	__real@3f800000
PUBLIC	__real@4f800000
PUBLIC	?SetLoopState@ioAngleFireSkill@@IAEXPAVioBaseChar@@PAVioPlayStage@@@Z ; ioAngleFireSkill::SetLoopState
EXTRN	__imp_?GetUniqueID@ioMovableObject@@QBEKXZ:PROC
EXTRN	?ChangeSkillWeaponMesh@ioBaseChar@@QAE_NPAVioSkill@@ABVioHashString@@_N@Z:PROC ; ioBaseChar::ChangeSkillWeaponMesh
EXTRN	__imp_?SetLoopAni@ioEntityGroup@@QAE_NABVioHashString@@MMMM@Z:PROC
EXTRN	__imp_?ClearAllLoopAni@ioEntityGroup@@QAEXM_N@Z:PROC
EXTRN	__imp_?ClearAllActionAni@ioEntityGroup@@QAEXM_N@Z:PROC
;	COMDAT __real@3f800000
; File d:\lost saga for developer\youtube\tutorial\source\src\lsclient\stdafx.h
CONST	SEGMENT
__real@3f800000 DD 03f800000r			; 1
CONST	ENDS
;	COMDAT __real@4f800000
CONST	SEGMENT
__real@4f800000 DD 04f800000r			; 4.29497e+009
; Function compile flags: /Ogsp
; File d:\lost saga for developer\youtube\tutorial\source\src\lsclient\ioanglefireskill.cpp
CONST	ENDS
;	COMDAT ?SetLoopState@ioAngleFireSkill@@IAEXPAVioBaseChar@@PAVioPlayStage@@@Z
_TEXT	SEGMENT
tv305 = -4						; size = 4
tv300 = -4						; size = 4
tv277 = -4						; size = 4
_pChar$ = 8						; size = 4
_pStage$ = 12						; size = 4
?SetLoopState@ioAngleFireSkill@@IAEXPAVioBaseChar@@PAVioPlayStage@@@Z PROC ; ioAngleFireSkill::SetLoopState, COMDAT
; _this$ = ecx

; 382  : {

  00000	55		 push	 ebp
  00001	8b ec		 mov	 ebp, esp
  00003	51		 push	 ecx
  00004	56		 push	 esi
  00005	57		 push	 edi

; 383  : 	if( !pChar ) return;

  00006	8b 7d 08	 mov	 edi, DWORD PTR _pChar$[ebp]
  00009	8b f1		 mov	 esi, ecx
  0000b	85 ff		 test	 edi, edi
  0000d	0f 84 a3 01 00
	00		 je	 $LN1@SetLoopSta

; 384  : 	ioEntityGroup *pGrp = pChar->GetGroup();

  00013	53		 push	 ebx
  00014	8b 5f 04	 mov	 ebx, DWORD PTR [edi+4]

; 385  : 	if( !pGrp ) return;

  00017	85 db		 test	 ebx, ebx
  00019	0f 84 96 01 00
	00		 je	 $LN17@SetLoopSta

; 386  : 
; 387  : 	DWORD dwCurTime = FRAMEGETTIME();

  0001f	ff 15 00 00 00
	00		 call	 DWORD PTR __imp_?GetSingleton@ioFrameTimer@@SAAAV1@XZ
  00025	8b c8		 mov	 ecx, eax
  00027	ff 15 00 00 00
	00		 call	 DWORD PTR __imp_?GetLoopSec@ioFrameTimer@@QBEKXZ

; 388  : 	m_dwLoopStartTime = dwCurTime;

  0002d	89 86 90 11 00
	00		 mov	 DWORD PTR [esi+4496], eax

; 389  : 
; 390  : 	EndPreDelayEffect( pChar );

  00033	8b 06		 mov	 eax, DWORD PTR [esi]
  00035	57		 push	 edi
  00036	8b ce		 mov	 ecx, esi
  00038	ff 90 dc 00 00
	00		 call	 DWORD PTR [eax+220]

; 391  : 
; 392  : 	m_SkillState = SS_LOOP;
; 393  : 	m_fCurMotionRate = 0.0f;

  0003e	0f 57 c0	 xorps	 xmm0, xmm0
  00041	c7 86 e4 10 00
	00 01 00 00 00	 mov	 DWORD PTR [esi+4324], 1
  0004b	f3 0f 11 86 8c
	11 00 00	 movss	 DWORD PTR [esi+4492], xmm0

; 394  : 
; 395  : 	pGrp->ClearAllActionAni( FLOAT100 );

  00053	b8 64 00 00 00	 mov	 eax, 100		; 00000064H
  00058	89 45 fc	 mov	 DWORD PTR tv305[ebp], eax
  0005b	db 45 fc	 fild	 DWORD PTR tv305[ebp]
  0005e	6a 00		 push	 0
  00060	85 c0		 test	 eax, eax
  00062	79 06		 jns	 SHORT $LN18@SetLoopSta
  00064	d8 05 00 00 00
	00		 fadd	 DWORD PTR __real@4f800000
$LN18@SetLoopSta:
  0006a	51		 push	 ecx
  0006b	8b cb		 mov	 ecx, ebx
  0006d	d9 1c 24	 fstp	 DWORD PTR [esp]
  00070	ff 15 00 00 00
	00		 call	 DWORD PTR __imp_?ClearAllActionAni@ioEntityGroup@@QAEXM_N@Z

; 396  : 	pGrp->ClearAllLoopAni( FLOAT100 );

  00076	b8 64 00 00 00	 mov	 eax, 100		; 00000064H
  0007b	89 45 fc	 mov	 DWORD PTR tv300[ebp], eax
  0007e	db 45 fc	 fild	 DWORD PTR tv300[ebp]
  00081	6a 00		 push	 0
  00083	85 c0		 test	 eax, eax
  00085	79 06		 jns	 SHORT $LN19@SetLoopSta
  00087	d8 05 00 00 00
	00		 fadd	 DWORD PTR __real@4f800000
$LN19@SetLoopSta:
  0008d	51		 push	 ecx
  0008e	8b cb		 mov	 ecx, ebx
  00090	d9 1c 24	 fstp	 DWORD PTR [esp]
  00093	ff 15 00 00 00
	00		 call	 DWORD PTR __imp_?ClearAllLoopAni@ioEntityGroup@@QAEXM_N@Z

; 397  : 
; 398  : 	pGrp->SetLoopAni( m_SkillUpLoopMotion, 0.0f, 0.0f );

  00099	0f 57 c0	 xorps	 xmm0, xmm0
  0009c	f3 0f 10 0d 00
	00 00 00	 movss	 xmm1, DWORD PTR __real@3f800000
  000a4	8b 3d 00 00 00
	00		 mov	 edi, DWORD PTR __imp_?SetLoopAni@ioEntityGroup@@QAE_NABVioHashString@@MMMM@Z
  000aa	83 ec 10	 sub	 esp, 16			; 00000010H
  000ad	f3 0f 11 44 24
	0c		 movss	 DWORD PTR [esp+12], xmm0
  000b3	f3 0f 11 4c 24
	08		 movss	 DWORD PTR [esp+8], xmm1
  000b9	f3 0f 11 44 24
	04		 movss	 DWORD PTR [esp+4], xmm0
  000bf	8d 86 6c 11 00
	00		 lea	 eax, DWORD PTR [esi+4460]
  000c5	f3 0f 11 04 24	 movss	 DWORD PTR [esp], xmm0
  000ca	50		 push	 eax
  000cb	8b cb		 mov	 ecx, ebx
  000cd	ff d7		 call	 edi

; 399  : 	pGrp->SetLoopAni( m_SkillDownLoopMotion, 0.0f, 0.0f );

  000cf	0f 57 c0	 xorps	 xmm0, xmm0
  000d2	f3 0f 10 0d 00
	00 00 00	 movss	 xmm1, DWORD PTR __real@3f800000
  000da	83 ec 10	 sub	 esp, 16			; 00000010H
  000dd	f3 0f 11 44 24
	0c		 movss	 DWORD PTR [esp+12], xmm0
  000e3	f3 0f 11 4c 24
	08		 movss	 DWORD PTR [esp+8], xmm1
  000e9	f3 0f 11 44 24
	04		 movss	 DWORD PTR [esp+4], xmm0
  000ef	8d 86 7c 11 00
	00		 lea	 eax, DWORD PTR [esi+4476]
  000f5	f3 0f 11 04 24	 movss	 DWORD PTR [esp], xmm0
  000fa	50		 push	 eax
  000fb	8b cb		 mov	 ecx, ebx
  000fd	ff d7		 call	 edi

; 400  : 	pGrp->SetLoopAni( m_SkillLoopMotion, 0.0f, FLOAT1 );

  000ff	b8 01 00 00 00	 mov	 eax, 1
  00104	0f 57 c0	 xorps	 xmm0, xmm0
  00107	f3 0f 10 0d 00
	00 00 00	 movss	 xmm1, DWORD PTR __real@3f800000
  0010f	83 ec 10	 sub	 esp, 16			; 00000010H
  00112	89 45 fc	 mov	 DWORD PTR tv277[ebp], eax
  00115	db 45 fc	 fild	 DWORD PTR tv277[ebp]
  00118	f3 0f 11 44 24
	0c		 movss	 DWORD PTR [esp+12], xmm0
  0011e	f3 0f 11 4c 24
	08		 movss	 DWORD PTR [esp+8], xmm1
  00124	85 c0		 test	 eax, eax
  00126	79 06		 jns	 SHORT $LN20@SetLoopSta
  00128	d8 05 00 00 00
	00		 fadd	 DWORD PTR __real@4f800000
$LN20@SetLoopSta:
  0012e	d9 5c 24 04	 fstp	 DWORD PTR [esp+4]
  00132	8d 86 5c 11 00
	00		 lea	 eax, DWORD PTR [esi+4444]
  00138	f3 0f 11 04 24	 movss	 DWORD PTR [esp], xmm0
  0013d	50		 push	 eax
  0013e	8b cb		 mov	 ecx, ebx
  00140	ff d7		 call	 edi

; 401  : 
; 402  : 	if( !m_bSetHandMesh && m_bUseItemMesh && !m_HandMesh.IsEmpty() )

  00142	80 be 0a 0f 00
	00 00		 cmp	 BYTE PTR [esi+3850], 0
  00149	75 34		 jne	 SHORT $LN16@SetLoopSta
  0014b	80 be 08 0f 00
	00 00		 cmp	 BYTE PTR [esi+3848], 0
  00152	74 2b		 je	 SHORT $LN16@SetLoopSta
  00154	8d be f8 0e 00
	00		 lea	 edi, DWORD PTR [esi+3832]
  0015a	8b cf		 mov	 ecx, edi
  0015c	ff 15 00 00 00
	00		 call	 DWORD PTR __imp_?IsEmpty@ioHashString@@QBE_NXZ
  00162	84 c0		 test	 al, al
  00164	75 19		 jne	 SHORT $LN16@SetLoopSta

; 403  : 	{
; 404  : 		pChar->ChangeSkillWeaponMesh( this, m_HandMesh, m_bVisibleEquipMesh );

  00166	0f b6 86 09 0f
	00 00		 movzx	 eax, BYTE PTR [esi+3849]
  0016d	8b 4d 08	 mov	 ecx, DWORD PTR _pChar$[ebp]
  00170	50		 push	 eax
  00171	57		 push	 edi
  00172	56		 push	 esi
  00173	e8 00 00 00 00	 call	 ?ChangeSkillWeaponMesh@ioBaseChar@@QAE_NPAVioSkill@@ABVioHashString@@_N@Z ; ioBaseChar::ChangeSkillWeaponMesh

; 405  : 		m_bSetHandMesh = true;

  00178	c6 86 0a 0f 00
	00 01		 mov	 BYTE PTR [esi+3850], 1
$LN16@SetLoopSta:

; 406  : 	}
; 407  : 
; 408  : 	if( pChar->IsNeedProcess() )

  0017f	8b 7d 08	 mov	 edi, DWORD PTR _pChar$[ebp]
  00182	8b 07		 mov	 eax, DWORD PTR [edi]
  00184	8b cf		 mov	 ecx, edi
  00186	ff 90 00 01 00
	00		 call	 DWORD PTR [eax+256]
  0018c	84 c0		 test	 al, al
  0018e	74 25		 je	 SHORT $LN17@SetLoopSta

; 409  : 	{
; 410  : 		ioEffect *pEffect = pChar->AttachEffect( m_ExtraGuidEffect );

  00190	6a 01		 push	 1
  00192	6a 00		 push	 0
  00194	8d 86 a8 11 00
	00		 lea	 eax, DWORD PTR [esi+4520]
  0019a	50		 push	 eax
  0019b	8b cf		 mov	 ecx, edi
  0019d	e8 00 00 00 00	 call	 ?AttachEffect@ioBaseChar@@QAEPAVioEffect@@ABVioHashString@@PAVioEntityEvent@@_N@Z ; ioBaseChar::AttachEffect

; 411  : 		if( pEffect )

  001a2	85 c0		 test	 eax, eax
  001a4	74 0f		 je	 SHORT $LN17@SetLoopSta

; 412  : 		{
; 413  : 			m_dwExtraGuidEffect = pEffect->GetUniqueID();

  001a6	8d 48 14	 lea	 ecx, DWORD PTR [eax+20]
  001a9	ff 15 00 00 00
	00		 call	 DWORD PTR __imp_?GetUniqueID@ioMovableObject@@QBEKXZ
  001af	89 86 b8 11 00
	00		 mov	 DWORD PTR [esi+4536], eax
$LN17@SetLoopSta:
  001b5	5b		 pop	 ebx
$LN1@SetLoopSta:
  001b6	5f		 pop	 edi
  001b7	5e		 pop	 esi

; 414  : 		}
; 415  : 	}
; 416  : }

  001b8	c9		 leave
  001b9	c2 08 00	 ret	 8
?SetLoopState@ioAngleFireSkill@@IAEXPAVioBaseChar@@PAVioPlayStage@@@Z ENDP ; ioAngleFireSkill::SetLoopState
_TEXT	ENDS
PUBLIC	??8?$CEncrypt@K@@QAE_NABH@Z			; CEncrypt<unsigned long>::operator==
; Function compile flags: /Ogsp
; File d:\lost saga for developer\youtube\tutorial\source\src\lsclient\encryptvalue.h
;	COMDAT ??8?$CEncrypt@K@@QAE_NABH@Z
_TEXT	SEGMENT
_value$ = -4						; size = 4
_inValue$ = 8						; size = 4
??8?$CEncrypt@K@@QAE_NABH@Z PROC			; CEncrypt<unsigned long>::operator==, COMDAT
; _this$ = ecx

; 976  : 	{

  00000	55		 push	 ebp
  00001	8b ec		 mov	 ebp, esp
  00003	51		 push	 ecx

; 977  : 		
; 978  : 		type value;
; 979  : 		DecryptValueToPool(&value);

  00004	8d 45 fc	 lea	 eax, DWORD PTR _value$[ebp]
  00007	50		 push	 eax
  00008	e8 00 00 00 00	 call	 ?DecryptValueToPool@?$CEncrypt@K@@QAEXPAK@Z ; CEncrypt<unsigned long>::DecryptValueToPool

; 980  : #ifdef _NOTUSE
; 981  : 		Debug();
; 982  : #endif
; 983  : 		return (value == inValue);

  0000d	8b 4d 08	 mov	 ecx, DWORD PTR _inValue$[ebp]
  00010	8b 55 fc	 mov	 edx, DWORD PTR _value$[ebp]
  00013	33 c0		 xor	 eax, eax
  00015	3b 11		 cmp	 edx, DWORD PTR [ecx]
  00017	0f 94 c0	 sete	 al

; 984  : 	} 

  0001a	c9		 leave
  0001b	c2 04 00	 ret	 4
??8?$CEncrypt@K@@QAE_NABH@Z ENDP			; CEncrypt<unsigned long>::operator==
_TEXT	ENDS
PUBLIC	??D?$_Vector_iterator@V?$_Vector_val@PBUAniEventTime@@V?$allocator@PBUAniEventTime@@@std@@@std@@@std@@QBEAAPBUAniEventTime@@XZ ; std::_Vector_iterator<std::_Vector_val<AniEventTime const *,std::allocator<AniEventTime const *> > >::operator*
; Function compile flags: /Ogsp
; File c:\program files (x86)\microsoft visual studio 10.0\vc\include\vector
;	COMDAT ??D?$_Vector_iterator@V?$_Vector_val@PBUAniEventTime@@V?$allocator@PBUAniEventTime@@@std@@@std@@@std@@QBEAAPBUAniEventTime@@XZ
_TEXT	SEGMENT
??D?$_Vector_iterator@V?$_Vector_val@PBUAniEventTime@@V?$allocator@PBUAniEventTime@@@std@@@std@@@std@@QBEAAPBUAniEventTime@@XZ PROC ; std::_Vector_iterator<std::_Vector_val<AniEventTime const *,std::allocator<AniEventTime const *> > >::operator*, COMDAT
; _this$ = ecx

; 322  : 		return ((reference)**(_Mybase *)this);

  00000	8b 01		 mov	 eax, DWORD PTR [ecx]

; 323  : 		}

  00002	c3		 ret	 0
??D?$_Vector_iterator@V?$_Vector_val@PBUAniEventTime@@V?$allocator@PBUAniEventTime@@@std@@@std@@@std@@QBEAAPBUAniEventTime@@XZ ENDP ; std::_Vector_iterator<std::_Vector_val<AniEventTime const *,std::allocator<AniEventTime const *> > >::operator*
_TEXT	ENDS
PUBLIC	??E?$_Vector_iterator@V?$_Vector_val@PBUAniEventTime@@V?$allocator@PBUAniEventTime@@@std@@@std@@@std@@QAEAAV01@XZ ; std::_Vector_iterator<std::_Vector_val<AniEventTime const *,std::allocator<AniEventTime const *> > >::operator++
; Function compile flags: /Ogsp
;	COMDAT ??E?$_Vector_iterator@V?$_Vector_val@PBUAniEventTime@@V?$allocator@PBUAniEventTime@@@std@@@std@@@std@@QAEAAV01@XZ
_TEXT	SEGMENT
??E?$_Vector_iterator@V?$_Vector_val@PBUAniEventTime@@V?$allocator@PBUAniEventTime@@@std@@@std@@@std@@QAEAAV01@XZ PROC ; std::_Vector_iterator<std::_Vector_val<AniEventTime const *,std::allocator<AniEventTime const *> > >::operator++, COMDAT
; _this$ = ecx

; 331  : 		{	// preincrement

  00000	8b c1		 mov	 eax, ecx

; 332  : 		++*(_Mybase *)this;

  00002	83 00 04	 add	 DWORD PTR [eax], 4

; 333  : 		return (*this);
; 334  : 		}

  00005	c3		 ret	 0
??E?$_Vector_iterator@V?$_Vector_val@PBUAniEventTime@@V?$allocator@PBUAniEventTime@@@std@@@std@@@std@@QAEAAV01@XZ ENDP ; std::_Vector_iterator<std::_Vector_val<AniEventTime const *,std::allocator<AniEventTime const *> > >::operator++
_TEXT	ENDS
PUBLIC	?begin@?$vector@UWeaponInfo@@V?$allocator@UWeaponInfo@@@std@@@std@@QBE?AV?$_Vector_const_iterator@V?$_Vector_val@UWeaponInfo@@V?$allocator@UWeaponInfo@@@std@@@std@@@2@XZ ; std::vector<WeaponInfo,std::allocator<WeaponInfo> >::begin
; Function compile flags: /Ogsp
;	COMDAT ?begin@?$vector@UWeaponInfo@@V?$allocator@UWeaponInfo@@@std@@@std@@QBE?AV?$_Vector_const_iterator@V?$_Vector_val@UWeaponInfo@@V?$allocator@UWeaponInfo@@@std@@@std@@@2@XZ
_TEXT	SEGMENT
___$ReturnUdt$ = 8					; size = 4
?begin@?$vector@UWeaponInfo@@V?$allocator@UWeaponInfo@@@std@@@std@@QBE?AV?$_Vector_const_iterator@V?$_Vector_val@UWeaponInfo@@V?$allocator@UWeaponInfo@@@std@@@std@@@2@XZ PROC ; std::vector<WeaponInfo,std::allocator<WeaponInfo> >::begin, COMDAT
; _this$ = ecx

; 786  : 		{	// return iterator for beginning of nonmutable sequence

  00000	55		 push	 ebp
  00001	8b ec		 mov	 ebp, esp

; 787  : 		return (const_iterator(this->_Myfirst, this));

  00003	8b 09		 mov	 ecx, DWORD PTR [ecx]
  00005	8b 45 08	 mov	 eax, DWORD PTR ___$ReturnUdt$[ebp]
  00008	89 08		 mov	 DWORD PTR [eax], ecx

; 788  : 		}

  0000a	5d		 pop	 ebp
  0000b	c2 04 00	 ret	 4
?begin@?$vector@UWeaponInfo@@V?$allocator@UWeaponInfo@@@std@@@std@@QBE?AV?$_Vector_const_iterator@V?$_Vector_val@UWeaponInfo@@V?$allocator@UWeaponInfo@@@std@@@std@@@2@XZ ENDP ; std::vector<WeaponInfo,std::allocator<WeaponInfo> >::begin
_TEXT	ENDS
PUBLIC	?end@?$vector@UWeaponInfo@@V?$allocator@UWeaponInfo@@@std@@@std@@QBE?AV?$_Vector_const_iterator@V?$_Vector_val@UWeaponInfo@@V?$allocator@UWeaponInfo@@@std@@@std@@@2@XZ ; std::vector<WeaponInfo,std::allocator<WeaponInfo> >::end
; Function compile flags: /Ogsp
;	COMDAT ?end@?$vector@UWeaponInfo@@V?$allocator@UWeaponInfo@@@std@@@std@@QBE?AV?$_Vector_const_iterator@V?$_Vector_val@UWeaponInfo@@V?$allocator@UWeaponInfo@@@std@@@std@@@2@XZ
_TEXT	SEGMENT
___$ReturnUdt$ = 8					; size = 4
?end@?$vector@UWeaponInfo@@V?$allocator@UWeaponInfo@@@std@@@std@@QBE?AV?$_Vector_const_iterator@V?$_Vector_val@UWeaponInfo@@V?$allocator@UWeaponInfo@@@std@@@std@@@2@XZ PROC ; std::vector<WeaponInfo,std::allocator<WeaponInfo> >::end, COMDAT
; _this$ = ecx

; 796  : 		{	// return iterator for end of nonmutable sequence

  00000	55		 push	 ebp
  00001	8b ec		 mov	 ebp, esp

; 797  : 		return (const_iterator(this->_Mylast, this));

  00003	8b 49 04	 mov	 ecx, DWORD PTR [ecx+4]
  00006	8b 45 08	 mov	 eax, DWORD PTR ___$ReturnUdt$[ebp]
  00009	89 08		 mov	 DWORD PTR [eax], ecx

; 798  : 		}

  0000b	5d		 pop	 ebp
  0000c	c2 04 00	 ret	 4
?end@?$vector@UWeaponInfo@@V?$allocator@UWeaponInfo@@@std@@@std@@QBE?AV?$_Vector_const_iterator@V?$_Vector_val@UWeaponInfo@@V?$allocator@UWeaponInfo@@@std@@@std@@@2@XZ ENDP ; std::vector<WeaponInfo,std::allocator<WeaponInfo> >::end
_TEXT	ENDS
PUBLIC	?begin@?$vector@UForceInfo@@V?$allocator@UForceInfo@@@std@@@std@@QBE?AV?$_Vector_const_iterator@V?$_Vector_val@UForceInfo@@V?$allocator@UForceInfo@@@std@@@std@@@2@XZ ; std::vector<ForceInfo,std::allocator<ForceInfo> >::begin
; Function compile flags: /Ogsp
;	COMDAT ?begin@?$vector@UForceInfo@@V?$allocator@UForceInfo@@@std@@@std@@QBE?AV?$_Vector_const_iterator@V?$_Vector_val@UForceInfo@@V?$allocator@UForceInfo@@@std@@@std@@@2@XZ
_TEXT	SEGMENT
___$ReturnUdt$ = 8					; size = 4
?begin@?$vector@UForceInfo@@V?$allocator@UForceInfo@@@std@@@std@@QBE?AV?$_Vector_const_iterator@V?$_Vector_val@UForceInfo@@V?$allocator@UForceInfo@@@std@@@std@@@2@XZ PROC ; std::vector<ForceInfo,std::allocator<ForceInfo> >::begin, COMDAT
; _this$ = ecx

; 786  : 		{	// return iterator for beginning of nonmutable sequence

  00000	55		 push	 ebp
  00001	8b ec		 mov	 ebp, esp

; 787  : 		return (const_iterator(this->_Myfirst, this));

  00003	8b 09		 mov	 ecx, DWORD PTR [ecx]
  00005	8b 45 08	 mov	 eax, DWORD PTR ___$ReturnUdt$[ebp]
  00008	89 08		 mov	 DWORD PTR [eax], ecx

; 788  : 		}

  0000a	5d		 pop	 ebp
  0000b	c2 04 00	 ret	 4
?begin@?$vector@UForceInfo@@V?$allocator@UForceInfo@@@std@@@std@@QBE?AV?$_Vector_const_iterator@V?$_Vector_val@UForceInfo@@V?$allocator@UForceInfo@@@std@@@std@@@2@XZ ENDP ; std::vector<ForceInfo,std::allocator<ForceInfo> >::begin
_TEXT	ENDS
PUBLIC	?end@?$vector@UForceInfo@@V?$allocator@UForceInfo@@@std@@@std@@QBE?AV?$_Vector_const_iterator@V?$_Vector_val@UForceInfo@@V?$allocator@UForceInfo@@@std@@@std@@@2@XZ ; std::vector<ForceInfo,std::allocator<ForceInfo> >::end
; Function compile flags: /Ogsp
;	COMDAT ?end@?$vector@UForceInfo@@V?$allocator@UForceInfo@@@std@@@std@@QBE?AV?$_Vector_const_iterator@V?$_Vector_val@UForceInfo@@V?$allocator@UForceInfo@@@std@@@std@@@2@XZ
_TEXT	SEGMENT
___$ReturnUdt$ = 8					; size = 4
?end@?$vector@UForceInfo@@V?$allocator@UForceInfo@@@std@@@std@@QBE?AV?$_Vector_const_iterator@V?$_Vector_val@UForceInfo@@V?$allocator@UForceInfo@@@std@@@std@@@2@XZ PROC ; std::vector<ForceInfo,std::allocator<ForceInfo> >::end, COMDAT
; _this$ = ecx

; 796  : 		{	// return iterator for end of nonmutable sequence

  00000	55		 push	 ebp
  00001	8b ec		 mov	 ebp, esp

; 797  : 		return (const_iterator(this->_Mylast, this));

  00003	8b 49 04	 mov	 ecx, DWORD PTR [ecx+4]
  00006	8b 45 08	 mov	 eax, DWORD PTR ___$ReturnUdt$[ebp]
  00009	89 08		 mov	 DWORD PTR [eax], ecx

; 798  : 		}

  0000b	5d		 pop	 ebp
  0000c	c2 04 00	 ret	 4
?end@?$vector@UForceInfo@@V?$allocator@UForceInfo@@@std@@@std@@QBE?AV?$_Vector_const_iterator@V?$_Vector_val@UForceInfo@@V?$allocator@UForceInfo@@@std@@@std@@@2@XZ ENDP ; std::vector<ForceInfo,std::allocator<ForceInfo> >::end
_TEXT	ENDS
PUBLIC	??0?$_Vector_val@PBUAniEventTime@@V?$allocator@PBUAniEventTime@@@std@@@std@@QAE@V?$allocator@PBUAniEventTime@@@1@@Z ; std::_Vector_val<AniEventTime const *,std::allocator<AniEventTime const *> >::_Vector_val<AniEventTime const *,std::allocator<AniEventTime const *> >
; Function compile flags: /Ogsp
;	COMDAT ??0?$_Vector_val@PBUAniEventTime@@V?$allocator@PBUAniEventTime@@@std@@@std@@QAE@V?$allocator@PBUAniEventTime@@@1@@Z
_TEXT	SEGMENT
__Al$ = 8						; size = 1
??0?$_Vector_val@PBUAniEventTime@@V?$allocator@PBUAniEventTime@@@std@@@std@@QAE@V?$allocator@PBUAniEventTime@@@1@@Z PROC ; std::_Vector_val<AniEventTime const *,std::allocator<AniEventTime const *> >::_Vector_val<AniEventTime const *,std::allocator<AniEventTime const *> >, COMDAT
; _this$ = ecx

; 426  : 		{	// construct allocator from _Al

  00000	8b c1		 mov	 eax, ecx

; 427  : 		_Myfirst = 0;

  00002	33 c9		 xor	 ecx, ecx
  00004	89 08		 mov	 DWORD PTR [eax], ecx

; 428  : 		_Mylast = 0;

  00006	89 48 04	 mov	 DWORD PTR [eax+4], ecx

; 429  : 		_Myend = 0;

  00009	89 48 08	 mov	 DWORD PTR [eax+8], ecx

; 430  : 		}

  0000c	c2 04 00	 ret	 4
??0?$_Vector_val@PBUAniEventTime@@V?$allocator@PBUAniEventTime@@@std@@@std@@QAE@V?$allocator@PBUAniEventTime@@@1@@Z ENDP ; std::_Vector_val<AniEventTime const *,std::allocator<AniEventTime const *> >::_Vector_val<AniEventTime const *,std::allocator<AniEventTime const *> >
_TEXT	ENDS
PUBLIC	??0?$_Vector_iterator@V?$_Vector_val@PBUAniEventTime@@V?$allocator@PBUAniEventTime@@@std@@@std@@@std@@QAE@PAPBUAniEventTime@@PBU_Container_base0@1@@Z ; std::_Vector_iterator<std::_Vector_val<AniEventTime const *,std::allocator<AniEventTime const *> > >::_Vector_iterator<std::_Vector_val<AniEventTime const *,std::allocator<AniEventTime const *> > >
; Function compile flags: /Ogsp
;	COMDAT ??0?$_Vector_iterator@V?$_Vector_val@PBUAniEventTime@@V?$allocator@PBUAniEventTime@@@std@@@std@@@std@@QAE@PAPBUAniEventTime@@PBU_Container_base0@1@@Z
_TEXT	SEGMENT
__Parg$ = 8						; size = 4
__Pvector$ = 12						; size = 4
??0?$_Vector_iterator@V?$_Vector_val@PBUAniEventTime@@V?$allocator@PBUAniEventTime@@@std@@@std@@@std@@QAE@PAPBUAniEventTime@@PBU_Container_base0@1@@Z PROC ; std::_Vector_iterator<std::_Vector_val<AniEventTime const *,std::allocator<AniEventTime const *> > >::_Vector_iterator<std::_Vector_val<AniEventTime const *,std::allocator<AniEventTime const *> > >, COMDAT
; _this$ = ecx

; 304  : 		{	// construct with pointer _Parg

  00000	55		 push	 ebp
  00001	8b ec		 mov	 ebp, esp
  00003	8b c1		 mov	 eax, ecx
  00005	8b 4d 08	 mov	 ecx, DWORD PTR __Parg$[ebp]
  00008	89 08		 mov	 DWORD PTR [eax], ecx

; 305  : 		}

  0000a	5d		 pop	 ebp
  0000b	c2 08 00	 ret	 8
??0?$_Vector_iterator@V?$_Vector_val@PBUAniEventTime@@V?$allocator@PBUAniEventTime@@@std@@@std@@@std@@QAE@PAPBUAniEventTime@@PBU_Container_base0@1@@Z ENDP ; std::_Vector_iterator<std::_Vector_val<AniEventTime const *,std::allocator<AniEventTime const *> > >::_Vector_iterator<std::_Vector_val<AniEventTime const *,std::allocator<AniEventTime const *> > >
_TEXT	ENDS
PUBLIC	??8?$_Vector_const_iterator@V?$_Vector_val@PBUAniEventTime@@V?$allocator@PBUAniEventTime@@@std@@@std@@@std@@QBE_NABV01@@Z ; std::_Vector_const_iterator<std::_Vector_val<AniEventTime const *,std::allocator<AniEventTime const *> > >::operator==
; Function compile flags: /Ogsp
;	COMDAT ??8?$_Vector_const_iterator@V?$_Vector_val@PBUAniEventTime@@V?$allocator@PBUAniEventTime@@@std@@@std@@@std@@QBE_NABV01@@Z
_TEXT	SEGMENT
__Right$ = 8						; size = 4
??8?$_Vector_const_iterator@V?$_Vector_val@PBUAniEventTime@@V?$allocator@PBUAniEventTime@@@std@@@std@@@std@@QBE_NABV01@@Z PROC ; std::_Vector_const_iterator<std::_Vector_val<AniEventTime const *,std::allocator<AniEventTime const *> > >::operator==, COMDAT
; _this$ = ecx

; 201  : 		{	// test for iterator equality

  00000	55		 push	 ebp
  00001	8b ec		 mov	 ebp, esp

; 202  : 		_Compat(_Right);
; 203  : 		return (this->_Ptr == _Right._Ptr);

  00003	8b 01		 mov	 eax, DWORD PTR [ecx]
  00005	8b 4d 08	 mov	 ecx, DWORD PTR __Right$[ebp]
  00008	2b 01		 sub	 eax, DWORD PTR [ecx]
  0000a	f7 d8		 neg	 eax
  0000c	1b c0		 sbb	 eax, eax
  0000e	40		 inc	 eax

; 204  : 		}

  0000f	5d		 pop	 ebp
  00010	c2 04 00	 ret	 4
??8?$_Vector_const_iterator@V?$_Vector_val@PBUAniEventTime@@V?$allocator@PBUAniEventTime@@@std@@@std@@@std@@QBE_NABV01@@Z ENDP ; std::_Vector_const_iterator<std::_Vector_val<AniEventTime const *,std::allocator<AniEventTime const *> > >::operator==
_TEXT	ENDS
PUBLIC	?max_size@?$vector@UAniRotateInfo@@V?$allocator@UAniRotateInfo@@@std@@@std@@QBEIXZ ; std::vector<AniRotateInfo,std::allocator<AniRotateInfo> >::max_size
; Function compile flags: /Ogsp
;	COMDAT ?max_size@?$vector@UAniRotateInfo@@V?$allocator@UAniRotateInfo@@@std@@@std@@QBEIXZ
_TEXT	SEGMENT
?max_size@?$vector@UAniRotateInfo@@V?$allocator@UAniRotateInfo@@@std@@@std@@QBEIXZ PROC ; std::vector<AniRotateInfo,std::allocator<AniRotateInfo> >::max_size, COMDAT
; _this$ = ecx

; 884  : 		return (this->_Alval.max_size());

  00000	b8 ff ff ff 1f	 mov	 eax, 536870911		; 1fffffffH

; 885  : 		}

  00005	c3		 ret	 0
?max_size@?$vector@UAniRotateInfo@@V?$allocator@UAniRotateInfo@@@std@@@std@@QBEIXZ ENDP ; std::vector<AniRotateInfo,std::allocator<AniRotateInfo> >::max_size
_TEXT	ENDS
PUBLIC	?_Grow_to@?$vector@UAniRotateInfo@@V?$allocator@UAniRotateInfo@@@std@@@std@@IBEII@Z ; std::vector<AniRotateInfo,std::allocator<AniRotateInfo> >::_Grow_to
; Function compile flags: /Ogsp
;	COMDAT ?_Grow_to@?$vector@UAniRotateInfo@@V?$allocator@UAniRotateInfo@@@std@@@std@@IBEII@Z
_TEXT	SEGMENT
__Count$ = 8						; size = 4
?_Grow_to@?$vector@UAniRotateInfo@@V?$allocator@UAniRotateInfo@@@std@@@std@@IBEII@Z PROC ; std::vector<AniRotateInfo,std::allocator<AniRotateInfo> >::_Grow_to, COMDAT
; _this$ = ecx

; 1274 : 		{	// grow by 50% or at least to _Count

  00000	55		 push	 ebp
  00001	8b ec		 mov	 ebp, esp

; 1275 : 		size_type _Capacity = capacity();

  00003	8b 41 08	 mov	 eax, DWORD PTR [ecx+8]
  00006	2b 01		 sub	 eax, DWORD PTR [ecx]

; 1276 : 
; 1277 : 		_Capacity = max_size() - _Capacity / 2 < _Capacity
; 1278 : 			? 0 : _Capacity + _Capacity / 2;	// try to grow by 50%

  00008	ba ff ff ff 1f	 mov	 edx, 536870911		; 1fffffffH
  0000d	c1 f8 03	 sar	 eax, 3
  00010	8b c8		 mov	 ecx, eax
  00012	d1 e9		 shr	 ecx, 1
  00014	2b d1		 sub	 edx, ecx
  00016	3b d0		 cmp	 edx, eax
  00018	73 04		 jae	 SHORT $LN4@Grow_to
  0001a	33 c0		 xor	 eax, eax
  0001c	eb 02		 jmp	 SHORT $LN5@Grow_to
$LN4@Grow_to:
  0001e	03 c1		 add	 eax, ecx
$LN5@Grow_to:

; 1279 : 		if (_Capacity < _Count)

  00020	3b 45 08	 cmp	 eax, DWORD PTR __Count$[ebp]

; 1280 : 			_Capacity = _Count;

  00023	0f 42 45 08	 cmovb	 eax, DWORD PTR __Count$[ebp]

; 1281 : 		return (_Capacity);
; 1282 : 		}

  00027	5d		 pop	 ebp
  00028	c2 04 00	 ret	 4
?_Grow_to@?$vector@UAniRotateInfo@@V?$allocator@UAniRotateInfo@@@std@@@std@@IBEII@Z ENDP ; std::vector<AniRotateInfo,std::allocator<AniRotateInfo> >::_Grow_to
_TEXT	ENDS
PUBLIC	??0?$_Vector_iterator@V?$_Vector_val@UAniRotateInfo@@V?$allocator@UAniRotateInfo@@@std@@@std@@@std@@QAE@PAUAniRotateInfo@@PBU_Container_base0@1@@Z ; std::_Vector_iterator<std::_Vector_val<AniRotateInfo,std::allocator<AniRotateInfo> > >::_Vector_iterator<std::_Vector_val<AniRotateInfo,std::allocator<AniRotateInfo> > >
; Function compile flags: /Ogsp
;	COMDAT ??0?$_Vector_iterator@V?$_Vector_val@UAniRotateInfo@@V?$allocator@UAniRotateInfo@@@std@@@std@@@std@@QAE@PAUAniRotateInfo@@PBU_Container_base0@1@@Z
_TEXT	SEGMENT
__Parg$ = 8						; size = 4
__Pvector$ = 12						; size = 4
??0?$_Vector_iterator@V?$_Vector_val@UAniRotateInfo@@V?$allocator@UAniRotateInfo@@@std@@@std@@@std@@QAE@PAUAniRotateInfo@@PBU_Container_base0@1@@Z PROC ; std::_Vector_iterator<std::_Vector_val<AniRotateInfo,std::allocator<AniRotateInfo> > >::_Vector_iterator<std::_Vector_val<AniRotateInfo,std::allocator<AniRotateInfo> > >, COMDAT
; _this$ = ecx

; 304  : 		{	// construct with pointer _Parg

  00000	55		 push	 ebp
  00001	8b ec		 mov	 ebp, esp
  00003	8b c1		 mov	 eax, ecx
  00005	8b 4d 08	 mov	 ecx, DWORD PTR __Parg$[ebp]
  00008	89 08		 mov	 DWORD PTR [eax], ecx

; 305  : 		}

  0000a	5d		 pop	 ebp
  0000b	c2 08 00	 ret	 8
??0?$_Vector_iterator@V?$_Vector_val@UAniRotateInfo@@V?$allocator@UAniRotateInfo@@@std@@@std@@@std@@QAE@PAUAniRotateInfo@@PBU_Container_base0@1@@Z ENDP ; std::_Vector_iterator<std::_Vector_val<AniRotateInfo,std::allocator<AniRotateInfo> > >::_Vector_iterator<std::_Vector_val<AniRotateInfo,std::allocator<AniRotateInfo> > >
_TEXT	ENDS
PUBLIC	?allocate@?$allocator@UAniRotateInfo@@@std@@QAEPAUAniRotateInfo@@I@Z ; std::allocator<AniRotateInfo>::allocate
; Function compile flags: /Ogsp
; File c:\program files (x86)\microsoft visual studio 10.0\vc\include\xmemory
;	COMDAT ?allocate@?$allocator@UAniRotateInfo@@@std@@QAEPAUAniRotateInfo@@I@Z
_TEXT	SEGMENT
__Count$ = 8						; size = 4
?allocate@?$allocator@UAniRotateInfo@@@std@@QAEPAUAniRotateInfo@@I@Z PROC ; std::allocator<AniRotateInfo>::allocate, COMDAT
; _this$ = ecx

; 186  : 		{	// allocate array of _Count elements

  00000	55		 push	 ebp
  00001	8b ec		 mov	 ebp, esp

; 187  : 		return (_Allocate(_Count, (pointer)0));

  00003	6a 00		 push	 0
  00005	ff 75 08	 push	 DWORD PTR __Count$[ebp]
  00008	e8 00 00 00 00	 call	 ??$_Allocate@UAniRotateInfo@@@std@@YAPAUAniRotateInfo@@IPAU1@@Z ; std::_Allocate<AniRotateInfo>
  0000d	59		 pop	 ecx
  0000e	59		 pop	 ecx

; 188  : 		}

  0000f	5d		 pop	 ebp
  00010	c2 04 00	 ret	 4
?allocate@?$allocator@UAniRotateInfo@@@std@@QAEPAUAniRotateInfo@@I@Z ENDP ; std::allocator<AniRotateInfo>::allocate
_TEXT	ENDS
PUBLIC	??8?$_Vector_const_iterator@V?$_Vector_val@UAniRotateInfo@@V?$allocator@UAniRotateInfo@@@std@@@std@@@std@@QBE_NABV01@@Z ; std::_Vector_const_iterator<std::_Vector_val<AniRotateInfo,std::allocator<AniRotateInfo> > >::operator==
; Function compile flags: /Ogsp
; File c:\program files (x86)\microsoft visual studio 10.0\vc\include\vector
;	COMDAT ??8?$_Vector_const_iterator@V?$_Vector_val@UAniRotateInfo@@V?$allocator@UAniRotateInfo@@@std@@@std@@@std@@QBE_NABV01@@Z
_TEXT	SEGMENT
__Right$ = 8						; size = 4
??8?$_Vector_const_iterator@V?$_Vector_val@UAniRotateInfo@@V?$allocator@UAniRotateInfo@@@std@@@std@@@std@@QBE_NABV01@@Z PROC ; std::_Vector_const_iterator<std::_Vector_val<AniRotateInfo,std::allocator<AniRotateInfo> > >::operator==, COMDAT
; _this$ = ecx

; 201  : 		{	// test for iterator equality

  00000	55		 push	 ebp
  00001	8b ec		 mov	 ebp, esp

; 202  : 		_Compat(_Right);
; 203  : 		return (this->_Ptr == _Right._Ptr);

  00003	8b 01		 mov	 eax, DWORD PTR [ecx]
  00005	8b 4d 08	 mov	 ecx, DWORD PTR __Right$[ebp]
  00008	2b 01		 sub	 eax, DWORD PTR [ecx]
  0000a	f7 d8		 neg	 eax
  0000c	1b c0		 sbb	 eax, eax
  0000e	40		 inc	 eax

; 204  : 		}

  0000f	5d		 pop	 ebp
  00010	c2 04 00	 ret	 4
??8?$_Vector_const_iterator@V?$_Vector_val@UAniRotateInfo@@V?$allocator@UAniRotateInfo@@@std@@@std@@@std@@QBE_NABV01@@Z ENDP ; std::_Vector_const_iterator<std::_Vector_val<AniRotateInfo,std::allocator<AniRotateInfo> > >::operator==
_TEXT	ENDS
PUBLIC	_this$GSCopy$
PUBLIC	__$ArrayPad$
PUBLIC	??$LoadString_e@$0BA@@ioINILoader@@QAEXAAY0BA@$$CBDAAY00$$CBDPADH@Z ; ioINILoader::LoadString_e<16>
EXTRN	__imp_?LoadStringA@ioINILoader@@QAEXPBD0PADH@Z:PROC
EXTRN	___security_cookie:DWORD
EXTRN	@__security_check_cookie@4:PROC
; Function compile flags: /Ogsp
; File d:\lost saga for developer\youtube\tutorial\source\src\io3dengine\ioiniloader.h
;	COMDAT ??$LoadString_e@$0BA@@ioINILoader@@QAEXAAY0BA@$$CBDAAY00$$CBDPADH@Z
_TEXT	SEGMENT
_this$GSCopy$ = -28					; size = 4
__k$ = -24						; size = 16
__$ArrayPad$ = -4					; size = 4
_k$ = 8							; size = 4
_d$ = 12						; size = 4
_b$ = 16						; size = 4
_i$ = 20						; size = 4
??$LoadString_e@$0BA@@ioINILoader@@QAEXAAY0BA@$$CBDAAY00$$CBDPADH@Z PROC ; ioINILoader::LoadString_e<16>, COMDAT
; _this$ = ecx

; 161  : 	{

  00000	55		 push	 ebp
  00001	8b ec		 mov	 ebp, esp
  00003	83 ec 1c	 sub	 esp, 28			; 0000001cH
  00006	a1 00 00 00 00	 mov	 eax, DWORD PTR ___security_cookie
  0000b	33 c5		 xor	 eax, ebp
  0000d	89 45 fc	 mov	 DWORD PTR __$ArrayPad$[ebp], eax
  00010	8b 45 08	 mov	 eax, DWORD PTR _k$[ebp]

; 162  : 		_ENCSTR(k, _k);

  00013	8a 10		 mov	 dl, BYTE PTR [eax]
  00015	56		 push	 esi
  00016	8b 75 0c	 mov	 esi, DWORD PTR _d$[ebp]
  00019	57		 push	 edi
  0001a	8b 7d 10	 mov	 edi, DWORD PTR _b$[ebp]
  0001d	89 4d e4	 mov	 DWORD PTR _this$GSCopy$[ebp], ecx
  00020	84 d2		 test	 dl, dl
  00022	0f 84 8c 01 00
	00		 je	 $LN96@LoadString
  00028	80 f2 ed	 xor	 dl, -19			; ffffffedH
  0002b	88 55 e8	 mov	 BYTE PTR __k$[ebp], dl
  0002e	8a 50 01	 mov	 dl, BYTE PTR [eax+1]
  00031	84 d2		 test	 dl, dl
  00033	0f 84 75 01 00
	00		 je	 $LN95@LoadString
  00039	80 f2 ec	 xor	 dl, -20			; ffffffecH
  0003c	88 55 e9	 mov	 BYTE PTR __k$[ebp+1], dl
  0003f	8a 50 02	 mov	 dl, BYTE PTR [eax+2]
  00042	84 d2		 test	 dl, dl
  00044	0f 84 5e 01 00
	00		 je	 $LN94@LoadString
  0004a	b1 eb		 mov	 cl, -21			; ffffffebH
  0004c	32 d1		 xor	 dl, cl
  0004e	88 55 ea	 mov	 BYTE PTR __k$[ebp+2], dl
  00051	8a 50 03	 mov	 dl, BYTE PTR [eax+3]
  00054	84 d2		 test	 dl, dl
  00056	0f 84 46 01 00
	00		 je	 $LN93@LoadString
  0005c	80 f2 ea	 xor	 dl, -22			; ffffffeaH
  0005f	88 55 eb	 mov	 BYTE PTR __k$[ebp+3], dl
  00062	8a 50 04	 mov	 dl, BYTE PTR [eax+4]
  00065	84 d2		 test	 dl, dl
  00067	0f 84 2f 01 00
	00		 je	 $LN92@LoadString
  0006d	80 f2 ed	 xor	 dl, -19			; ffffffedH
  00070	88 55 ec	 mov	 BYTE PTR __k$[ebp+4], dl
  00073	8a 50 05	 mov	 dl, BYTE PTR [eax+5]
  00076	84 d2		 test	 dl, dl
  00078	0f 84 18 01 00
	00		 je	 $LN91@LoadString
  0007e	80 f2 ec	 xor	 dl, -20			; ffffffecH
  00081	88 55 ed	 mov	 BYTE PTR __k$[ebp+5], dl
  00084	8a 50 06	 mov	 dl, BYTE PTR [eax+6]
  00087	84 d2		 test	 dl, dl
  00089	0f 84 02 01 00
	00		 je	 $LN90@LoadString
  0008f	32 d1		 xor	 dl, cl
  00091	88 55 ee	 mov	 BYTE PTR __k$[ebp+6], dl
  00094	8a 50 07	 mov	 dl, BYTE PTR [eax+7]
  00097	84 d2		 test	 dl, dl
  00099	0f 84 ec 00 00
	00		 je	 $LN89@LoadString
  0009f	80 f2 ea	 xor	 dl, -22			; ffffffeaH
  000a2	88 55 ef	 mov	 BYTE PTR __k$[ebp+7], dl
  000a5	8a 50 08	 mov	 dl, BYTE PTR [eax+8]
  000a8	84 d2		 test	 dl, dl
  000aa	0f 84 d5 00 00
	00		 je	 $LN88@LoadString
  000b0	80 f2 ed	 xor	 dl, -19			; ffffffedH
  000b3	88 55 f0	 mov	 BYTE PTR __k$[ebp+8], dl
  000b6	8a 50 09	 mov	 dl, BYTE PTR [eax+9]
  000b9	84 d2		 test	 dl, dl
  000bb	0f 84 be 00 00
	00		 je	 $LN87@LoadString
  000c1	80 f2 ec	 xor	 dl, -20			; ffffffecH
  000c4	88 55 f1	 mov	 BYTE PTR __k$[ebp+9], dl
  000c7	8a 50 0a	 mov	 dl, BYTE PTR [eax+10]
  000ca	84 d2		 test	 dl, dl
  000cc	0f 84 a8 00 00
	00		 je	 $LN86@LoadString
  000d2	32 d1		 xor	 dl, cl
  000d4	88 55 f2	 mov	 BYTE PTR __k$[ebp+10], dl
  000d7	8a 50 0b	 mov	 dl, BYTE PTR [eax+11]
  000da	84 d2		 test	 dl, dl
  000dc	0f 84 92 00 00
	00		 je	 $LN85@LoadString
  000e2	80 f2 ea	 xor	 dl, -22			; ffffffeaH
  000e5	88 55 f3	 mov	 BYTE PTR __k$[ebp+11], dl
  000e8	8a 50 0c	 mov	 dl, BYTE PTR [eax+12]
  000eb	84 d2		 test	 dl, dl
  000ed	74 7f		 je	 SHORT $LN84@LoadString
  000ef	80 f2 ed	 xor	 dl, -19			; ffffffedH
  000f2	88 55 f4	 mov	 BYTE PTR __k$[ebp+12], dl
  000f5	8a 50 0d	 mov	 dl, BYTE PTR [eax+13]
  000f8	84 d2		 test	 dl, dl
  000fa	74 6c		 je	 SHORT $LN83@LoadString
  000fc	80 f2 ec	 xor	 dl, -20			; ffffffecH
  000ff	88 55 f5	 mov	 BYTE PTR __k$[ebp+13], dl
  00102	8a 50 0e	 mov	 dl, BYTE PTR [eax+14]
  00105	84 d2		 test	 dl, dl
  00107	74 5a		 je	 SHORT $LN82@LoadString
  00109	32 d1		 xor	 dl, cl
  0010b	80 78 0f 00	 cmp	 BYTE PTR [eax+15], 0
  0010f	88 55 f6	 mov	 BYTE PTR __k$[ebp+14], dl
  00112	0f 84 a0 00 00
	00		 je	 $LN111@LoadString
  00118	8a 50 10	 mov	 dl, BYTE PTR [eax+16]
  0011b	84 d2		 test	 dl, dl
  0011d	74 3e		 je	 SHORT $LN80@LoadString
  0011f	80 f2 ed	 xor	 dl, -19			; ffffffedH
  00122	88 55 f8	 mov	 BYTE PTR __k$[ebp+16], dl
  00125	8a 50 11	 mov	 dl, BYTE PTR [eax+17]
  00128	84 d2		 test	 dl, dl
  0012a	74 2b		 je	 SHORT $LN79@LoadString
  0012c	80 f2 ec	 xor	 dl, -20			; ffffffecH
  0012f	88 55 f9	 mov	 BYTE PTR __k$[ebp+17], dl
  00132	8a 50 12	 mov	 dl, BYTE PTR [eax+18]
  00135	84 d2		 test	 dl, dl
  00137	74 19		 je	 SHORT $LN78@LoadString
  00139	8a 40 13	 mov	 al, BYTE PTR [eax+19]
  0013c	32 d1		 xor	 dl, cl
  0013e	88 55 fa	 mov	 BYTE PTR __k$[ebp+18], dl
  00141	84 c0		 test	 al, al
  00143	74 07		 je	 SHORT $LN77@LoadString
  00145	34 ea		 xor	 al, -22			; ffffffeaH
  00147	88 45 fb	 mov	 BYTE PTR __k$[ebp+19], al
  0014a	eb 6c		 jmp	 SHORT $LN111@LoadString
$LN77@LoadString:
  0014c	c6 45 fb ea	 mov	 BYTE PTR __k$[ebp+19], -22 ; ffffffeaH
  00150	eb 66		 jmp	 SHORT $LN111@LoadString
$LN78@LoadString:
  00152	88 4d fa	 mov	 BYTE PTR __k$[ebp+18], cl
  00155	eb 61		 jmp	 SHORT $LN111@LoadString
$LN79@LoadString:
  00157	c6 45 f9 ec	 mov	 BYTE PTR __k$[ebp+17], -20 ; ffffffecH
  0015b	eb 5b		 jmp	 SHORT $LN111@LoadString
$LN80@LoadString:
  0015d	c6 45 f8 ed	 mov	 BYTE PTR __k$[ebp+16], -19 ; ffffffedH
  00161	eb 55		 jmp	 SHORT $LN111@LoadString
$LN82@LoadString:
  00163	88 4d f6	 mov	 BYTE PTR __k$[ebp+14], cl
  00166	eb 50		 jmp	 SHORT $LN111@LoadString
$LN83@LoadString:
  00168	c6 45 f5 ec	 mov	 BYTE PTR __k$[ebp+13], -20 ; ffffffecH
  0016c	eb 4a		 jmp	 SHORT $LN111@LoadString
$LN84@LoadString:
  0016e	c6 45 f4 ed	 mov	 BYTE PTR __k$[ebp+12], -19 ; ffffffedH
  00172	eb 44		 jmp	 SHORT $LN111@LoadString
$LN85@LoadString:
  00174	c6 45 f3 ea	 mov	 BYTE PTR __k$[ebp+11], -22 ; ffffffeaH
  00178	eb 3e		 jmp	 SHORT $LN111@LoadString
$LN86@LoadString:
  0017a	88 4d f2	 mov	 BYTE PTR __k$[ebp+10], cl
  0017d	eb 39		 jmp	 SHORT $LN111@LoadString
$LN87@LoadString:
  0017f	c6 45 f1 ec	 mov	 BYTE PTR __k$[ebp+9], -20 ; ffffffecH
  00183	eb 33		 jmp	 SHORT $LN111@LoadString
$LN88@LoadString:
  00185	c6 45 f0 ed	 mov	 BYTE PTR __k$[ebp+8], -19 ; ffffffedH
  00189	eb 2d		 jmp	 SHORT $LN111@LoadString
$LN89@LoadString:
  0018b	c6 45 ef ea	 mov	 BYTE PTR __k$[ebp+7], -22 ; ffffffeaH
  0018f	eb 27		 jmp	 SHORT $LN111@LoadString
$LN90@LoadString:
  00191	88 4d ee	 mov	 BYTE PTR __k$[ebp+6], cl
  00194	eb 22		 jmp	 SHORT $LN111@LoadString
$LN91@LoadString:
  00196	c6 45 ed ec	 mov	 BYTE PTR __k$[ebp+5], -20 ; ffffffecH
  0019a	eb 1c		 jmp	 SHORT $LN111@LoadString
$LN92@LoadString:
  0019c	c6 45 ec ed	 mov	 BYTE PTR __k$[ebp+4], -19 ; ffffffedH
  001a0	eb 16		 jmp	 SHORT $LN111@LoadString
$LN93@LoadString:
  001a2	c6 45 eb ea	 mov	 BYTE PTR __k$[ebp+3], -22 ; ffffffeaH
  001a6	eb 10		 jmp	 SHORT $LN111@LoadString
$LN94@LoadString:
  001a8	c6 45 ea eb	 mov	 BYTE PTR __k$[ebp+2], -21 ; ffffffebH
  001ac	eb 0a		 jmp	 SHORT $LN111@LoadString
$LN95@LoadString:
  001ae	c6 45 e9 ec	 mov	 BYTE PTR __k$[ebp+1], -20 ; ffffffecH
  001b2	eb 04		 jmp	 SHORT $LN111@LoadString
$LN96@LoadString:
  001b4	c6 45 e8 ed	 mov	 BYTE PTR __k$[ebp], -19	; ffffffedH
$LN111@LoadString:
  001b8	6a 03		 push	 3
  001ba	8d 45 e8	 lea	 eax, DWORD PTR __k$[ebp]
  001bd	c6 45 f7 00	 mov	 BYTE PTR __k$[ebp+15], 0
  001c1	5a		 pop	 edx
$LL104@LoadString:
  001c2	81 30 ed ec eb
	ea		 xor	 DWORD PTR [eax], -353637139 ; eaebecedH
  001c8	83 c0 04	 add	 eax, 4
  001cb	4a		 dec	 edx
  001cc	75 f4		 jne	 SHORT $LL104@LoadString
  001ce	6a 0c		 push	 12			; 0000000cH
  001d0	58		 pop	 eax
$LL101@LoadString:
  001d1	8b c8		 mov	 ecx, eax
  001d3	81 e1 03 00 00
	80		 and	 ecx, -2147483645	; 80000003H
  001d9	79 05		 jns	 SHORT $LN112@LoadString
  001db	49		 dec	 ecx
  001dc	83 c9 fc	 or	 ecx, -4			; fffffffcH
  001df	41		 inc	 ecx
$LN112@LoadString:
  001e0	b2 ed		 mov	 dl, -19			; ffffffedH
  001e2	2a d1		 sub	 dl, cl
  001e4	30 54 05 e8	 xor	 BYTE PTR __k$[ebp+eax], dl
  001e8	40		 inc	 eax
  001e9	83 f8 0f	 cmp	 eax, 15			; 0000000fH
  001ec	7c e3		 jl	 SHORT $LL101@LoadString

; 163  : 		LoadString(_k, d, b, i);

  001ee	ff 75 14	 push	 DWORD PTR _i$[ebp]
  001f1	8b 4d e4	 mov	 ecx, DWORD PTR _this$GSCopy$[ebp]
  001f4	57		 push	 edi
  001f5	56		 push	 esi
  001f6	8d 45 e8	 lea	 eax, DWORD PTR __k$[ebp]
  001f9	50		 push	 eax
  001fa	ff 15 00 00 00
	00		 call	 DWORD PTR __imp_?LoadStringA@ioINILoader@@QAEXPBD0PADH@Z

; 164  : 	}

  00200	8b 4d fc	 mov	 ecx, DWORD PTR __$ArrayPad$[ebp]
  00203	5f		 pop	 edi
  00204	33 cd		 xor	 ecx, ebp
  00206	5e		 pop	 esi
  00207	e8 00 00 00 00	 call	 @__security_check_cookie@4
  0020c	c9		 leave
  0020d	c2 10 00	 ret	 16			; 00000010H
??$LoadString_e@$0BA@@ioINILoader@@QAEXAAY0BA@$$CBDAAY00$$CBDPADH@Z ENDP ; ioINILoader::LoadString_e<16>
_TEXT	ENDS
PUBLIC	_this$GSCopy$
PUBLIC	__$ArrayPad$
PUBLIC	??$LoadString_e@$0BC@@ioINILoader@@QAEXAAY0BC@$$CBDAAY00$$CBDPADH@Z ; ioINILoader::LoadString_e<18>
; Function compile flags: /Ogsp
;	COMDAT ??$LoadString_e@$0BC@@ioINILoader@@QAEXAAY0BC@$$CBDAAY00$$CBDPADH@Z
_TEXT	SEGMENT
_this$GSCopy$ = -32					; size = 4
__k$ = -28						; size = 18
__$ArrayPad$ = -4					; size = 4
_k$ = 8							; size = 4
_d$ = 12						; size = 4
_b$ = 16						; size = 4
_i$ = 20						; size = 4
??$LoadString_e@$0BC@@ioINILoader@@QAEXAAY0BC@$$CBDAAY00$$CBDPADH@Z PROC ; ioINILoader::LoadString_e<18>, COMDAT
; _this$ = ecx

; 161  : 	{

  00000	55		 push	 ebp
  00001	8b ec		 mov	 ebp, esp
  00003	83 ec 20	 sub	 esp, 32			; 00000020H
  00006	a1 00 00 00 00	 mov	 eax, DWORD PTR ___security_cookie
  0000b	33 c5		 xor	 eax, ebp
  0000d	89 45 fc	 mov	 DWORD PTR __$ArrayPad$[ebp], eax
  00010	8b 45 08	 mov	 eax, DWORD PTR _k$[ebp]

; 162  : 		_ENCSTR(k, _k);

  00013	8a 10		 mov	 dl, BYTE PTR [eax]
  00015	56		 push	 esi
  00016	8b 75 0c	 mov	 esi, DWORD PTR _d$[ebp]
  00019	57		 push	 edi
  0001a	8b 7d 10	 mov	 edi, DWORD PTR _b$[ebp]
  0001d	89 4d e0	 mov	 DWORD PTR _this$GSCopy$[ebp], ecx
  00020	84 d2		 test	 dl, dl
  00022	0f 84 be 01 00
	00		 je	 $LN96@LoadString@2
  00028	80 f2 ed	 xor	 dl, -19			; ffffffedH
  0002b	88 55 e4	 mov	 BYTE PTR __k$[ebp], dl
  0002e	8a 50 01	 mov	 dl, BYTE PTR [eax+1]
  00031	84 d2		 test	 dl, dl
  00033	0f 84 a7 01 00
	00		 je	 $LN95@LoadString@2
  00039	80 f2 ec	 xor	 dl, -20			; ffffffecH
  0003c	88 55 e5	 mov	 BYTE PTR __k$[ebp+1], dl
  0003f	8a 50 02	 mov	 dl, BYTE PTR [eax+2]
  00042	84 d2		 test	 dl, dl
  00044	0f 84 90 01 00
	00		 je	 $LN94@LoadString@2
  0004a	b1 eb		 mov	 cl, -21			; ffffffebH
  0004c	32 d1		 xor	 dl, cl
  0004e	88 55 e6	 mov	 BYTE PTR __k$[ebp+2], dl
  00051	8a 50 03	 mov	 dl, BYTE PTR [eax+3]
  00054	84 d2		 test	 dl, dl
  00056	0f 84 78 01 00
	00		 je	 $LN93@LoadString@2
  0005c	80 f2 ea	 xor	 dl, -22			; ffffffeaH
  0005f	88 55 e7	 mov	 BYTE PTR __k$[ebp+3], dl
  00062	8a 50 04	 mov	 dl, BYTE PTR [eax+4]
  00065	84 d2		 test	 dl, dl
  00067	0f 84 61 01 00
	00		 je	 $LN92@LoadString@2
  0006d	80 f2 ed	 xor	 dl, -19			; ffffffedH
  00070	88 55 e8	 mov	 BYTE PTR __k$[ebp+4], dl
  00073	8a 50 05	 mov	 dl, BYTE PTR [eax+5]
  00076	84 d2		 test	 dl, dl
  00078	0f 84 4a 01 00
	00		 je	 $LN91@LoadString@2
  0007e	80 f2 ec	 xor	 dl, -20			; ffffffecH
  00081	88 55 e9	 mov	 BYTE PTR __k$[ebp+5], dl
  00084	8a 50 06	 mov	 dl, BYTE PTR [eax+6]
  00087	84 d2		 test	 dl, dl
  00089	0f 84 34 01 00
	00		 je	 $LN90@LoadString@2
  0008f	32 d1		 xor	 dl, cl
  00091	88 55 ea	 mov	 BYTE PTR __k$[ebp+6], dl
  00094	8a 50 07	 mov	 dl, BYTE PTR [eax+7]
  00097	84 d2		 test	 dl, dl
  00099	0f 84 1e 01 00
	00		 je	 $LN89@LoadString@2
  0009f	80 f2 ea	 xor	 dl, -22			; ffffffeaH
  000a2	88 55 eb	 mov	 BYTE PTR __k$[ebp+7], dl
  000a5	8a 50 08	 mov	 dl, BYTE PTR [eax+8]
  000a8	84 d2		 test	 dl, dl
  000aa	0f 84 07 01 00
	00		 je	 $LN88@LoadString@2
  000b0	80 f2 ed	 xor	 dl, -19			; ffffffedH
  000b3	88 55 ec	 mov	 BYTE PTR __k$[ebp+8], dl
  000b6	8a 50 09	 mov	 dl, BYTE PTR [eax+9]
  000b9	84 d2		 test	 dl, dl
  000bb	0f 84 f0 00 00
	00		 je	 $LN87@LoadString@2
  000c1	80 f2 ec	 xor	 dl, -20			; ffffffecH
  000c4	88 55 ed	 mov	 BYTE PTR __k$[ebp+9], dl
  000c7	8a 50 0a	 mov	 dl, BYTE PTR [eax+10]
  000ca	84 d2		 test	 dl, dl
  000cc	0f 84 da 00 00
	00		 je	 $LN86@LoadString@2
  000d2	32 d1		 xor	 dl, cl
  000d4	88 55 ee	 mov	 BYTE PTR __k$[ebp+10], dl
  000d7	8a 50 0b	 mov	 dl, BYTE PTR [eax+11]
  000da	84 d2		 test	 dl, dl
  000dc	0f 84 c4 00 00
	00		 je	 $LN85@LoadString@2
  000e2	80 f2 ea	 xor	 dl, -22			; ffffffeaH
  000e5	88 55 ef	 mov	 BYTE PTR __k$[ebp+11], dl
  000e8	8a 50 0c	 mov	 dl, BYTE PTR [eax+12]
  000eb	84 d2		 test	 dl, dl
  000ed	0f 84 ad 00 00
	00		 je	 $LN84@LoadString@2
  000f3	80 f2 ed	 xor	 dl, -19			; ffffffedH
  000f6	88 55 f0	 mov	 BYTE PTR __k$[ebp+12], dl
  000f9	8a 50 0d	 mov	 dl, BYTE PTR [eax+13]
  000fc	84 d2		 test	 dl, dl
  000fe	0f 84 96 00 00
	00		 je	 $LN83@LoadString@2
  00104	80 f2 ec	 xor	 dl, -20			; ffffffecH
  00107	88 55 f1	 mov	 BYTE PTR __k$[ebp+13], dl
  0010a	8a 50 0e	 mov	 dl, BYTE PTR [eax+14]
  0010d	84 d2		 test	 dl, dl
  0010f	0f 84 80 00 00
	00		 je	 $LN82@LoadString@2
  00115	32 d1		 xor	 dl, cl
  00117	88 55 f2	 mov	 BYTE PTR __k$[ebp+14], dl
  0011a	8a 50 0f	 mov	 dl, BYTE PTR [eax+15]
  0011d	84 d2		 test	 dl, dl
  0011f	74 6e		 je	 SHORT $LN81@LoadString@2
  00121	80 f2 ea	 xor	 dl, -22			; ffffffeaH
  00124	88 55 f3	 mov	 BYTE PTR __k$[ebp+15], dl
  00127	8a 50 10	 mov	 dl, BYTE PTR [eax+16]
  0012a	84 d2		 test	 dl, dl
  0012c	74 5b		 je	 SHORT $LN80@LoadString@2
  0012e	80 f2 ed	 xor	 dl, -19			; ffffffedH
  00131	80 78 11 00	 cmp	 BYTE PTR [eax+17], 0
  00135	88 55 f4	 mov	 BYTE PTR __k$[ebp+16], dl
  00138	0f 84 ac 00 00
	00		 je	 $LN111@LoadString@2
  0013e	8a 50 12	 mov	 dl, BYTE PTR [eax+18]
  00141	84 d2		 test	 dl, dl
  00143	74 3f		 je	 SHORT $LN78@LoadString@2
  00145	32 d1		 xor	 dl, cl
  00147	88 55 f6	 mov	 BYTE PTR __k$[ebp+18], dl
  0014a	8a 50 13	 mov	 dl, BYTE PTR [eax+19]
  0014d	84 d2		 test	 dl, dl
  0014f	74 2d		 je	 SHORT $LN77@LoadString@2
  00151	80 f2 ea	 xor	 dl, -22			; ffffffeaH
  00154	88 55 f7	 mov	 BYTE PTR __k$[ebp+19], dl
  00157	8a 50 14	 mov	 dl, BYTE PTR [eax+20]
  0015a	84 d2		 test	 dl, dl
  0015c	74 1a		 je	 SHORT $LN76@LoadString@2
  0015e	8a 40 15	 mov	 al, BYTE PTR [eax+21]
  00161	80 f2 ed	 xor	 dl, -19			; ffffffedH
  00164	88 55 f8	 mov	 BYTE PTR __k$[ebp+20], dl
  00167	84 c0		 test	 al, al
  00169	74 07		 je	 SHORT $LN75@LoadString@2
  0016b	34 ec		 xor	 al, -20			; ffffffecH
  0016d	88 45 f9	 mov	 BYTE PTR __k$[ebp+21], al
  00170	eb 78		 jmp	 SHORT $LN111@LoadString@2
$LN75@LoadString@2:
  00172	c6 45 f9 ec	 mov	 BYTE PTR __k$[ebp+21], -20 ; ffffffecH
  00176	eb 72		 jmp	 SHORT $LN111@LoadString@2
$LN76@LoadString@2:
  00178	c6 45 f8 ed	 mov	 BYTE PTR __k$[ebp+20], -19 ; ffffffedH
  0017c	eb 6c		 jmp	 SHORT $LN111@LoadString@2
$LN77@LoadString@2:
  0017e	c6 45 f7 ea	 mov	 BYTE PTR __k$[ebp+19], -22 ; ffffffeaH
  00182	eb 66		 jmp	 SHORT $LN111@LoadString@2
$LN78@LoadString@2:
  00184	88 4d f6	 mov	 BYTE PTR __k$[ebp+18], cl
  00187	eb 61		 jmp	 SHORT $LN111@LoadString@2
$LN80@LoadString@2:
  00189	c6 45 f4 ed	 mov	 BYTE PTR __k$[ebp+16], -19 ; ffffffedH
  0018d	eb 5b		 jmp	 SHORT $LN111@LoadString@2
$LN81@LoadString@2:
  0018f	c6 45 f3 ea	 mov	 BYTE PTR __k$[ebp+15], -22 ; ffffffeaH
  00193	eb 55		 jmp	 SHORT $LN111@LoadString@2
$LN82@LoadString@2:
  00195	88 4d f2	 mov	 BYTE PTR __k$[ebp+14], cl
  00198	eb 50		 jmp	 SHORT $LN111@LoadString@2
$LN83@LoadString@2:
  0019a	c6 45 f1 ec	 mov	 BYTE PTR __k$[ebp+13], -20 ; ffffffecH
  0019e	eb 4a		 jmp	 SHORT $LN111@LoadString@2
$LN84@LoadString@2:
  001a0	c6 45 f0 ed	 mov	 BYTE PTR __k$[ebp+12], -19 ; ffffffedH
  001a4	eb 44		 jmp	 SHORT $LN111@LoadString@2
$LN85@LoadString@2:
  001a6	c6 45 ef ea	 mov	 BYTE PTR __k$[ebp+11], -22 ; ffffffeaH
  001aa	eb 3e		 jmp	 SHORT $LN111@LoadString@2
$LN86@LoadString@2:
  001ac	88 4d ee	 mov	 BYTE PTR __k$[ebp+10], cl
  001af	eb 39		 jmp	 SHORT $LN111@LoadString@2
$LN87@LoadString@2:
  001b1	c6 45 ed ec	 mov	 BYTE PTR __k$[ebp+9], -20 ; ffffffecH
  001b5	eb 33		 jmp	 SHORT $LN111@LoadString@2
$LN88@LoadString@2:
  001b7	c6 45 ec ed	 mov	 BYTE PTR __k$[ebp+8], -19 ; ffffffedH
  001bb	eb 2d		 jmp	 SHORT $LN111@LoadString@2
$LN89@LoadString@2:
  001bd	c6 45 eb ea	 mov	 BYTE PTR __k$[ebp+7], -22 ; ffffffeaH
  001c1	eb 27		 jmp	 SHORT $LN111@LoadString@2
$LN90@LoadString@2:
  001c3	88 4d ea	 mov	 BYTE PTR __k$[ebp+6], cl
  001c6	eb 22		 jmp	 SHORT $LN111@LoadString@2
$LN91@LoadString@2:
  001c8	c6 45 e9 ec	 mov	 BYTE PTR __k$[ebp+5], -20 ; ffffffecH
  001cc	eb 1c		 jmp	 SHORT $LN111@LoadString@2
$LN92@LoadString@2:
  001ce	c6 45 e8 ed	 mov	 BYTE PTR __k$[ebp+4], -19 ; ffffffedH
  001d2	eb 16		 jmp	 SHORT $LN111@LoadString@2
$LN93@LoadString@2:
  001d4	c6 45 e7 ea	 mov	 BYTE PTR __k$[ebp+3], -22 ; ffffffeaH
  001d8	eb 10		 jmp	 SHORT $LN111@LoadString@2
$LN94@LoadString@2:
  001da	c6 45 e6 eb	 mov	 BYTE PTR __k$[ebp+2], -21 ; ffffffebH
  001de	eb 0a		 jmp	 SHORT $LN111@LoadString@2
$LN95@LoadString@2:
  001e0	c6 45 e5 ec	 mov	 BYTE PTR __k$[ebp+1], -20 ; ffffffecH
  001e4	eb 04		 jmp	 SHORT $LN111@LoadString@2
$LN96@LoadString@2:
  001e6	c6 45 e4 ed	 mov	 BYTE PTR __k$[ebp], -19	; ffffffedH
$LN111@LoadString@2:
  001ea	6a 04		 push	 4
  001ec	8d 45 e4	 lea	 eax, DWORD PTR __k$[ebp]
  001ef	c6 45 f5 00	 mov	 BYTE PTR __k$[ebp+17], 0
  001f3	5a		 pop	 edx
$LL104@LoadString@2:
  001f4	81 30 ed ec eb
	ea		 xor	 DWORD PTR [eax], -353637139 ; eaebecedH
  001fa	83 c0 04	 add	 eax, 4
  001fd	4a		 dec	 edx
  001fe	75 f4		 jne	 SHORT $LL104@LoadString@2

; 163  : 		LoadString(_k, d, b, i);

  00200	ff 75 14	 push	 DWORD PTR _i$[ebp]
  00203	8b 4d e0	 mov	 ecx, DWORD PTR _this$GSCopy$[ebp]
  00206	80 75 f4 ed	 xor	 BYTE PTR __k$[ebp+16], -19 ; ffffffedH
  0020a	57		 push	 edi
  0020b	56		 push	 esi
  0020c	8d 45 e4	 lea	 eax, DWORD PTR __k$[ebp]
  0020f	50		 push	 eax
  00210	ff 15 00 00 00
	00		 call	 DWORD PTR __imp_?LoadStringA@ioINILoader@@QAEXPBD0PADH@Z

; 164  : 	}

  00216	8b 4d fc	 mov	 ecx, DWORD PTR __$ArrayPad$[ebp]
  00219	5f		 pop	 edi
  0021a	33 cd		 xor	 ecx, ebp
  0021c	5e		 pop	 esi
  0021d	e8 00 00 00 00	 call	 @__security_check_cookie@4
  00222	c9		 leave
  00223	c2 10 00	 ret	 16			; 00000010H
??$LoadString_e@$0BC@@ioINILoader@@QAEXAAY0BC@$$CBDAAY00$$CBDPADH@Z ENDP ; ioINILoader::LoadString_e<18>
_TEXT	ENDS
PUBLIC	_this$GSCopy$
PUBLIC	__$ArrayPad$
PUBLIC	??$LoadString_e@$0BF@@ioINILoader@@QAEXAAY0BF@$$CBDAAY00$$CBDPADH@Z ; ioINILoader::LoadString_e<21>
; Function compile flags: /Ogsp
;	COMDAT ??$LoadString_e@$0BF@@ioINILoader@@QAEXAAY0BF@$$CBDAAY00$$CBDPADH@Z
_TEXT	SEGMENT
_this$GSCopy$ = -36					; size = 4
__k$ = -32						; size = 21
__$ArrayPad$ = -4					; size = 4
_k$ = 8							; size = 4
_d$ = 12						; size = 4
_b$ = 16						; size = 4
_i$ = 20						; size = 4
??$LoadString_e@$0BF@@ioINILoader@@QAEXAAY0BF@$$CBDAAY00$$CBDPADH@Z PROC ; ioINILoader::LoadString_e<21>, COMDAT
; _this$ = ecx

; 161  : 	{

  00000	55		 push	 ebp
  00001	8b ec		 mov	 ebp, esp
  00003	83 ec 24	 sub	 esp, 36			; 00000024H
  00006	a1 00 00 00 00	 mov	 eax, DWORD PTR ___security_cookie
  0000b	33 c5		 xor	 eax, ebp
  0000d	89 45 fc	 mov	 DWORD PTR __$ArrayPad$[ebp], eax
  00010	8b 45 08	 mov	 eax, DWORD PTR _k$[ebp]

; 162  : 		_ENCSTR(k, _k);

  00013	8a 10		 mov	 dl, BYTE PTR [eax]
  00015	53		 push	 ebx
  00016	56		 push	 esi
  00017	8b 75 0c	 mov	 esi, DWORD PTR _d$[ebp]
  0001a	57		 push	 edi
  0001b	8b 7d 10	 mov	 edi, DWORD PTR _b$[ebp]
  0001e	89 4d dc	 mov	 DWORD PTR _this$GSCopy$[ebp], ecx
  00021	84 d2		 test	 dl, dl
  00023	0f 84 f7 01 00
	00		 je	 $LN96@LoadString@3
  00029	80 f2 ed	 xor	 dl, -19			; ffffffedH
  0002c	88 55 e0	 mov	 BYTE PTR __k$[ebp], dl
  0002f	8a 50 01	 mov	 dl, BYTE PTR [eax+1]
  00032	84 d2		 test	 dl, dl
  00034	0f 84 e0 01 00
	00		 je	 $LN95@LoadString@3
  0003a	b1 ec		 mov	 cl, -20			; ffffffecH
  0003c	32 d1		 xor	 dl, cl
  0003e	88 55 e1	 mov	 BYTE PTR __k$[ebp+1], dl
  00041	8a 50 02	 mov	 dl, BYTE PTR [eax+2]
  00044	84 d2		 test	 dl, dl
  00046	0f 84 c8 01 00
	00		 je	 $LN94@LoadString@3
  0004c	b3 eb		 mov	 bl, -21			; ffffffebH
  0004e	32 d3		 xor	 dl, bl
  00050	88 55 e2	 mov	 BYTE PTR __k$[ebp+2], dl
  00053	8a 50 03	 mov	 dl, BYTE PTR [eax+3]
  00056	84 d2		 test	 dl, dl
  00058	0f 84 b0 01 00
	00		 je	 $LN93@LoadString@3
  0005e	80 f2 ea	 xor	 dl, -22			; ffffffeaH
  00061	88 55 e3	 mov	 BYTE PTR __k$[ebp+3], dl
  00064	8a 50 04	 mov	 dl, BYTE PTR [eax+4]
  00067	84 d2		 test	 dl, dl
  00069	0f 84 99 01 00
	00		 je	 $LN92@LoadString@3
  0006f	80 f2 ed	 xor	 dl, -19			; ffffffedH
  00072	88 55 e4	 mov	 BYTE PTR __k$[ebp+4], dl
  00075	8a 50 05	 mov	 dl, BYTE PTR [eax+5]
  00078	84 d2		 test	 dl, dl
  0007a	0f 84 83 01 00
	00		 je	 $LN91@LoadString@3
  00080	32 d1		 xor	 dl, cl
  00082	88 55 e5	 mov	 BYTE PTR __k$[ebp+5], dl
  00085	8a 50 06	 mov	 dl, BYTE PTR [eax+6]
  00088	84 d2		 test	 dl, dl
  0008a	0f 84 6e 01 00
	00		 je	 $LN90@LoadString@3
  00090	32 d3		 xor	 dl, bl
  00092	88 55 e6	 mov	 BYTE PTR __k$[ebp+6], dl
  00095	8a 50 07	 mov	 dl, BYTE PTR [eax+7]
  00098	84 d2		 test	 dl, dl
  0009a	0f 84 58 01 00
	00		 je	 $LN89@LoadString@3
  000a0	80 f2 ea	 xor	 dl, -22			; ffffffeaH
  000a3	88 55 e7	 mov	 BYTE PTR __k$[ebp+7], dl
  000a6	8a 50 08	 mov	 dl, BYTE PTR [eax+8]
  000a9	84 d2		 test	 dl, dl
  000ab	0f 84 41 01 00
	00		 je	 $LN88@LoadString@3
  000b1	80 f2 ed	 xor	 dl, -19			; ffffffedH
  000b4	88 55 e8	 mov	 BYTE PTR __k$[ebp+8], dl
  000b7	8a 50 09	 mov	 dl, BYTE PTR [eax+9]
  000ba	84 d2		 test	 dl, dl
  000bc	0f 84 2b 01 00
	00		 je	 $LN87@LoadString@3
  000c2	32 d1		 xor	 dl, cl
  000c4	88 55 e9	 mov	 BYTE PTR __k$[ebp+9], dl
  000c7	8a 50 0a	 mov	 dl, BYTE PTR [eax+10]
  000ca	84 d2		 test	 dl, dl
  000cc	0f 84 16 01 00
	00		 je	 $LN86@LoadString@3
  000d2	32 d3		 xor	 dl, bl
  000d4	88 55 ea	 mov	 BYTE PTR __k$[ebp+10], dl
  000d7	8a 50 0b	 mov	 dl, BYTE PTR [eax+11]
  000da	84 d2		 test	 dl, dl
  000dc	0f 84 00 01 00
	00		 je	 $LN85@LoadString@3
  000e2	80 f2 ea	 xor	 dl, -22			; ffffffeaH
  000e5	88 55 eb	 mov	 BYTE PTR __k$[ebp+11], dl
  000e8	8a 50 0c	 mov	 dl, BYTE PTR [eax+12]
  000eb	84 d2		 test	 dl, dl
  000ed	0f 84 e9 00 00
	00		 je	 $LN84@LoadString@3
  000f3	80 f2 ed	 xor	 dl, -19			; ffffffedH
  000f6	88 55 ec	 mov	 BYTE PTR __k$[ebp+12], dl
  000f9	8a 50 0d	 mov	 dl, BYTE PTR [eax+13]
  000fc	84 d2		 test	 dl, dl
  000fe	0f 84 d3 00 00
	00		 je	 $LN83@LoadString@3
  00104	32 d1		 xor	 dl, cl
  00106	88 55 ed	 mov	 BYTE PTR __k$[ebp+13], dl
  00109	8a 50 0e	 mov	 dl, BYTE PTR [eax+14]
  0010c	84 d2		 test	 dl, dl
  0010e	0f 84 be 00 00
	00		 je	 $LN82@LoadString@3
  00114	32 d3		 xor	 dl, bl
  00116	88 55 ee	 mov	 BYTE PTR __k$[ebp+14], dl
  00119	8a 50 0f	 mov	 dl, BYTE PTR [eax+15]
  0011c	84 d2		 test	 dl, dl
  0011e	0f 84 a8 00 00
	00		 je	 $LN81@LoadString@3
  00124	80 f2 ea	 xor	 dl, -22			; ffffffeaH
  00127	88 55 ef	 mov	 BYTE PTR __k$[ebp+15], dl
  0012a	8a 50 10	 mov	 dl, BYTE PTR [eax+16]
  0012d	84 d2		 test	 dl, dl
  0012f	0f 84 91 00 00
	00		 je	 $LN80@LoadString@3
  00135	80 f2 ed	 xor	 dl, -19			; ffffffedH
  00138	88 55 f0	 mov	 BYTE PTR __k$[ebp+16], dl
  0013b	8a 50 11	 mov	 dl, BYTE PTR [eax+17]
  0013e	84 d2		 test	 dl, dl
  00140	74 7f		 je	 SHORT $LN79@LoadString@3
  00142	32 d1		 xor	 dl, cl
  00144	88 55 f1	 mov	 BYTE PTR __k$[ebp+17], dl
  00147	8a 50 12	 mov	 dl, BYTE PTR [eax+18]
  0014a	84 d2		 test	 dl, dl
  0014c	74 6e		 je	 SHORT $LN78@LoadString@3
  0014e	32 d3		 xor	 dl, bl
  00150	88 55 f2	 mov	 BYTE PTR __k$[ebp+18], dl
  00153	8a 50 13	 mov	 dl, BYTE PTR [eax+19]
  00156	84 d2		 test	 dl, dl
  00158	74 5c		 je	 SHORT $LN77@LoadString@3
  0015a	80 f2 ea	 xor	 dl, -22			; ffffffeaH
  0015d	80 78 14 00	 cmp	 BYTE PTR [eax+20], 0
  00161	88 55 f3	 mov	 BYTE PTR __k$[ebp+19], dl
  00164	0f 84 ba 00 00
	00		 je	 $LN111@LoadString@3
  0016a	8a 50 15	 mov	 dl, BYTE PTR [eax+21]
  0016d	84 d2		 test	 dl, dl
  0016f	74 40		 je	 SHORT $LN75@LoadString@3
  00171	32 d1		 xor	 dl, cl
  00173	88 55 f5	 mov	 BYTE PTR __k$[ebp+21], dl
  00176	8a 50 16	 mov	 dl, BYTE PTR [eax+22]
  00179	84 d2		 test	 dl, dl
  0017b	74 2f		 je	 SHORT $LN74@LoadString@3
  0017d	32 d3		 xor	 dl, bl
  0017f	88 55 f6	 mov	 BYTE PTR __k$[ebp+22], dl
  00182	8a 50 17	 mov	 dl, BYTE PTR [eax+23]
  00185	84 d2		 test	 dl, dl
  00187	74 1d		 je	 SHORT $LN73@LoadString@3
  00189	8a 40 18	 mov	 al, BYTE PTR [eax+24]
  0018c	80 f2 ea	 xor	 dl, -22			; ffffffeaH
  0018f	88 55 f7	 mov	 BYTE PTR __k$[ebp+23], dl
  00192	84 c0		 test	 al, al
  00194	74 0a		 je	 SHORT $LN72@LoadString@3
  00196	34 ed		 xor	 al, -19			; ffffffedH
  00198	88 45 f8	 mov	 BYTE PTR __k$[ebp+24], al
  0019b	e9 84 00 00 00	 jmp	 $LN111@LoadString@3
$LN72@LoadString@3:
  001a0	c6 45 f8 ed	 mov	 BYTE PTR __k$[ebp+24], -19 ; ffffffedH
  001a4	eb 7e		 jmp	 SHORT $LN111@LoadString@3
$LN73@LoadString@3:
  001a6	c6 45 f7 ea	 mov	 BYTE PTR __k$[ebp+23], -22 ; ffffffeaH
  001aa	eb 78		 jmp	 SHORT $LN111@LoadString@3
$LN74@LoadString@3:
  001ac	88 5d f6	 mov	 BYTE PTR __k$[ebp+22], bl
  001af	eb 73		 jmp	 SHORT $LN111@LoadString@3
$LN75@LoadString@3:
  001b1	88 4d f5	 mov	 BYTE PTR __k$[ebp+21], cl
  001b4	eb 6e		 jmp	 SHORT $LN111@LoadString@3
$LN77@LoadString@3:
  001b6	c6 45 f3 ea	 mov	 BYTE PTR __k$[ebp+19], -22 ; ffffffeaH
  001ba	eb 68		 jmp	 SHORT $LN111@LoadString@3
$LN78@LoadString@3:
  001bc	88 5d f2	 mov	 BYTE PTR __k$[ebp+18], bl
  001bf	eb 63		 jmp	 SHORT $LN111@LoadString@3
$LN79@LoadString@3:
  001c1	88 4d f1	 mov	 BYTE PTR __k$[ebp+17], cl
  001c4	eb 5e		 jmp	 SHORT $LN111@LoadString@3
$LN80@LoadString@3:
  001c6	c6 45 f0 ed	 mov	 BYTE PTR __k$[ebp+16], -19 ; ffffffedH
  001ca	eb 58		 jmp	 SHORT $LN111@LoadString@3
$LN81@LoadString@3:
  001cc	c6 45 ef ea	 mov	 BYTE PTR __k$[ebp+15], -22 ; ffffffeaH
  001d0	eb 52		 jmp	 SHORT $LN111@LoadString@3
$LN82@LoadString@3:
  001d2	88 5d ee	 mov	 BYTE PTR __k$[ebp+14], bl
  001d5	eb 4d		 jmp	 SHORT $LN111@LoadString@3
$LN83@LoadString@3:
  001d7	88 4d ed	 mov	 BYTE PTR __k$[ebp+13], cl
  001da	eb 48		 jmp	 SHORT $LN111@LoadString@3
$LN84@LoadString@3:
  001dc	c6 45 ec ed	 mov	 BYTE PTR __k$[ebp+12], -19 ; ffffffedH
  001e0	eb 42		 jmp	 SHORT $LN111@LoadString@3
$LN85@LoadString@3:
  001e2	c6 45 eb ea	 mov	 BYTE PTR __k$[ebp+11], -22 ; ffffffeaH
  001e6	eb 3c		 jmp	 SHORT $LN111@LoadString@3
$LN86@LoadString@3:
  001e8	88 5d ea	 mov	 BYTE PTR __k$[ebp+10], bl
  001eb	eb 37		 jmp	 SHORT $LN111@LoadString@3
$LN87@LoadString@3:
  001ed	88 4d e9	 mov	 BYTE PTR __k$[ebp+9], cl
  001f0	eb 32		 jmp	 SHORT $LN111@LoadString@3
$LN88@LoadString@3:
  001f2	c6 45 e8 ed	 mov	 BYTE PTR __k$[ebp+8], -19 ; ffffffedH
  001f6	eb 2c		 jmp	 SHORT $LN111@LoadString@3
$LN89@LoadString@3:
  001f8	c6 45 e7 ea	 mov	 BYTE PTR __k$[ebp+7], -22 ; ffffffeaH
  001fc	eb 26		 jmp	 SHORT $LN111@LoadString@3
$LN90@LoadString@3:
  001fe	88 5d e6	 mov	 BYTE PTR __k$[ebp+6], bl
  00201	eb 21		 jmp	 SHORT $LN111@LoadString@3
$LN91@LoadString@3:
  00203	88 4d e5	 mov	 BYTE PTR __k$[ebp+5], cl
  00206	eb 1c		 jmp	 SHORT $LN111@LoadString@3
$LN92@LoadString@3:
  00208	c6 45 e4 ed	 mov	 BYTE PTR __k$[ebp+4], -19 ; ffffffedH
  0020c	eb 16		 jmp	 SHORT $LN111@LoadString@3
$LN93@LoadString@3:
  0020e	c6 45 e3 ea	 mov	 BYTE PTR __k$[ebp+3], -22 ; ffffffeaH
  00212	eb 10		 jmp	 SHORT $LN111@LoadString@3
$LN94@LoadString@3:
  00214	c6 45 e2 eb	 mov	 BYTE PTR __k$[ebp+2], -21 ; ffffffebH
  00218	eb 0a		 jmp	 SHORT $LN111@LoadString@3
$LN95@LoadString@3:
  0021a	c6 45 e1 ec	 mov	 BYTE PTR __k$[ebp+1], -20 ; ffffffecH
  0021e	eb 04		 jmp	 SHORT $LN111@LoadString@3
$LN96@LoadString@3:
  00220	c6 45 e0 ed	 mov	 BYTE PTR __k$[ebp], -19	; ffffffedH
$LN111@LoadString@3:
  00224	6a 05		 push	 5
  00226	8d 45 e0	 lea	 eax, DWORD PTR __k$[ebp]
  00229	c6 45 f4 00	 mov	 BYTE PTR __k$[ebp+20], 0
  0022d	5a		 pop	 edx
$LL104@LoadString@3:
  0022e	81 30 ed ec eb
	ea		 xor	 DWORD PTR [eax], -353637139 ; eaebecedH
  00234	83 c0 04	 add	 eax, 4
  00237	4a		 dec	 edx
  00238	75 f4		 jne	 SHORT $LL104@LoadString@3

; 163  : 		LoadString(_k, d, b, i);

  0023a	ff 75 14	 push	 DWORD PTR _i$[ebp]
  0023d	8b 4d dc	 mov	 ecx, DWORD PTR _this$GSCopy$[ebp]
  00240	57		 push	 edi
  00241	56		 push	 esi
  00242	8d 45 e0	 lea	 eax, DWORD PTR __k$[ebp]
  00245	50		 push	 eax
  00246	ff 15 00 00 00
	00		 call	 DWORD PTR __imp_?LoadStringA@ioINILoader@@QAEXPBD0PADH@Z

; 164  : 	}

  0024c	8b 4d fc	 mov	 ecx, DWORD PTR __$ArrayPad$[ebp]
  0024f	5f		 pop	 edi
  00250	5e		 pop	 esi
  00251	33 cd		 xor	 ecx, ebp
  00253	5b		 pop	 ebx
  00254	e8 00 00 00 00	 call	 @__security_check_cookie@4
  00259	c9		 leave
  0025a	c2 10 00	 ret	 16			; 00000010H
??$LoadString_e@$0BF@@ioINILoader@@QAEXAAY0BF@$$CBDAAY00$$CBDPADH@Z ENDP ; ioINILoader::LoadString_e<21>
_TEXT	ENDS
PUBLIC	_this$GSCopy$
PUBLIC	__$ArrayPad$
PUBLIC	??$LoadString_e@$0BH@@ioINILoader@@QAEXAAY0BH@$$CBDAAY00$$CBDPADH@Z ; ioINILoader::LoadString_e<23>
; Function compile flags: /Ogsp
;	COMDAT ??$LoadString_e@$0BH@@ioINILoader@@QAEXAAY0BH@$$CBDAAY00$$CBDPADH@Z
_TEXT	SEGMENT
_this$GSCopy$ = -36					; size = 4
__k$ = -32						; size = 23
__$ArrayPad$ = -4					; size = 4
_k$ = 8							; size = 4
_d$ = 12						; size = 4
_b$ = 16						; size = 4
_i$ = 20						; size = 4
??$LoadString_e@$0BH@@ioINILoader@@QAEXAAY0BH@$$CBDAAY00$$CBDPADH@Z PROC ; ioINILoader::LoadString_e<23>, COMDAT
; _this$ = ecx

; 161  : 	{

  00000	55		 push	 ebp
  00001	8b ec		 mov	 ebp, esp
  00003	83 ec 24	 sub	 esp, 36			; 00000024H
  00006	a1 00 00 00 00	 mov	 eax, DWORD PTR ___security_cookie
  0000b	33 c5		 xor	 eax, ebp
  0000d	89 45 fc	 mov	 DWORD PTR __$ArrayPad$[ebp], eax
  00010	8b 45 08	 mov	 eax, DWORD PTR _k$[ebp]

; 162  : 		_ENCSTR(k, _k);

  00013	8a 10		 mov	 dl, BYTE PTR [eax]
  00015	53		 push	 ebx
  00016	56		 push	 esi
  00017	8b 75 0c	 mov	 esi, DWORD PTR _d$[ebp]
  0001a	57		 push	 edi
  0001b	8b 7d 10	 mov	 edi, DWORD PTR _b$[ebp]
  0001e	89 4d dc	 mov	 DWORD PTR _this$GSCopy$[ebp], ecx
  00021	84 d2		 test	 dl, dl
  00023	0f 84 2d 02 00
	00		 je	 $LN96@LoadString@4
  00029	80 f2 ed	 xor	 dl, -19			; ffffffedH
  0002c	88 55 e0	 mov	 BYTE PTR __k$[ebp], dl
  0002f	8a 50 01	 mov	 dl, BYTE PTR [eax+1]
  00032	84 d2		 test	 dl, dl
  00034	0f 84 16 02 00
	00		 je	 $LN95@LoadString@4
  0003a	b1 ec		 mov	 cl, -20			; ffffffecH
  0003c	32 d1		 xor	 dl, cl
  0003e	88 55 e1	 mov	 BYTE PTR __k$[ebp+1], dl
  00041	8a 50 02	 mov	 dl, BYTE PTR [eax+2]
  00044	84 d2		 test	 dl, dl
  00046	0f 84 fe 01 00
	00		 je	 $LN94@LoadString@4
  0004c	80 f2 eb	 xor	 dl, -21			; ffffffebH
  0004f	88 55 e2	 mov	 BYTE PTR __k$[ebp+2], dl
  00052	8a 50 03	 mov	 dl, BYTE PTR [eax+3]
  00055	84 d2		 test	 dl, dl
  00057	0f 84 e7 01 00
	00		 je	 $LN93@LoadString@4
  0005d	b3 ea		 mov	 bl, -22			; ffffffeaH
  0005f	32 d3		 xor	 dl, bl
  00061	88 55 e3	 mov	 BYTE PTR __k$[ebp+3], dl
  00064	8a 50 04	 mov	 dl, BYTE PTR [eax+4]
  00067	84 d2		 test	 dl, dl
  00069	0f 84 cf 01 00
	00		 je	 $LN92@LoadString@4
  0006f	80 f2 ed	 xor	 dl, -19			; ffffffedH
  00072	88 55 e4	 mov	 BYTE PTR __k$[ebp+4], dl
  00075	8a 50 05	 mov	 dl, BYTE PTR [eax+5]
  00078	84 d2		 test	 dl, dl
  0007a	0f 84 b9 01 00
	00		 je	 $LN91@LoadString@4
  00080	32 d1		 xor	 dl, cl
  00082	88 55 e5	 mov	 BYTE PTR __k$[ebp+5], dl
  00085	8a 50 06	 mov	 dl, BYTE PTR [eax+6]
  00088	84 d2		 test	 dl, dl
  0008a	0f 84 a3 01 00
	00		 je	 $LN90@LoadString@4
  00090	80 f2 eb	 xor	 dl, -21			; ffffffebH
  00093	88 55 e6	 mov	 BYTE PTR __k$[ebp+6], dl
  00096	8a 50 07	 mov	 dl, BYTE PTR [eax+7]
  00099	84 d2		 test	 dl, dl
  0009b	0f 84 8d 01 00
	00		 je	 $LN89@LoadString@4
  000a1	32 d3		 xor	 dl, bl
  000a3	88 55 e7	 mov	 BYTE PTR __k$[ebp+7], dl
  000a6	8a 50 08	 mov	 dl, BYTE PTR [eax+8]
  000a9	84 d2		 test	 dl, dl
  000ab	0f 84 77 01 00
	00		 je	 $LN88@LoadString@4
  000b1	80 f2 ed	 xor	 dl, -19			; ffffffedH
  000b4	88 55 e8	 mov	 BYTE PTR __k$[ebp+8], dl
  000b7	8a 50 09	 mov	 dl, BYTE PTR [eax+9]
  000ba	84 d2		 test	 dl, dl
  000bc	0f 84 61 01 00
	00		 je	 $LN87@LoadString@4
  000c2	32 d1		 xor	 dl, cl
  000c4	88 55 e9	 mov	 BYTE PTR __k$[ebp+9], dl
  000c7	8a 50 0a	 mov	 dl, BYTE PTR [eax+10]
  000ca	84 d2		 test	 dl, dl
  000cc	0f 84 4b 01 00
	00		 je	 $LN86@LoadString@4
  000d2	80 f2 eb	 xor	 dl, -21			; ffffffebH
  000d5	88 55 ea	 mov	 BYTE PTR __k$[ebp+10], dl
  000d8	8a 50 0b	 mov	 dl, BYTE PTR [eax+11]
  000db	84 d2		 test	 dl, dl
  000dd	0f 84 35 01 00
	00		 je	 $LN85@LoadString@4
  000e3	32 d3		 xor	 dl, bl
  000e5	88 55 eb	 mov	 BYTE PTR __k$[ebp+11], dl
  000e8	8a 50 0c	 mov	 dl, BYTE PTR [eax+12]
  000eb	84 d2		 test	 dl, dl
  000ed	0f 84 1f 01 00
	00		 je	 $LN84@LoadString@4
  000f3	80 f2 ed	 xor	 dl, -19			; ffffffedH
  000f6	88 55 ec	 mov	 BYTE PTR __k$[ebp+12], dl
  000f9	8a 50 0d	 mov	 dl, BYTE PTR [eax+13]
  000fc	84 d2		 test	 dl, dl
  000fe	0f 84 09 01 00
	00		 je	 $LN83@LoadString@4
  00104	32 d1		 xor	 dl, cl
  00106	88 55 ed	 mov	 BYTE PTR __k$[ebp+13], dl
  00109	8a 50 0e	 mov	 dl, BYTE PTR [eax+14]
  0010c	84 d2		 test	 dl, dl
  0010e	0f 84 f3 00 00
	00		 je	 $LN82@LoadString@4
  00114	80 f2 eb	 xor	 dl, -21			; ffffffebH
  00117	88 55 ee	 mov	 BYTE PTR __k$[ebp+14], dl
  0011a	8a 50 0f	 mov	 dl, BYTE PTR [eax+15]
  0011d	84 d2		 test	 dl, dl
  0011f	0f 84 dd 00 00
	00		 je	 $LN81@LoadString@4
  00125	32 d3		 xor	 dl, bl
  00127	88 55 ef	 mov	 BYTE PTR __k$[ebp+15], dl
  0012a	8a 50 10	 mov	 dl, BYTE PTR [eax+16]
  0012d	84 d2		 test	 dl, dl
  0012f	0f 84 c7 00 00
	00		 je	 $LN80@LoadString@4
  00135	80 f2 ed	 xor	 dl, -19			; ffffffedH
  00138	88 55 f0	 mov	 BYTE PTR __k$[ebp+16], dl
  0013b	8a 50 11	 mov	 dl, BYTE PTR [eax+17]
  0013e	84 d2		 test	 dl, dl
  00140	0f 84 b1 00 00
	00		 je	 $LN79@LoadString@4
  00146	32 d1		 xor	 dl, cl
  00148	88 55 f1	 mov	 BYTE PTR __k$[ebp+17], dl
  0014b	8a 50 12	 mov	 dl, BYTE PTR [eax+18]
  0014e	84 d2		 test	 dl, dl
  00150	0f 84 9b 00 00
	00		 je	 $LN78@LoadString@4
  00156	80 f2 eb	 xor	 dl, -21			; ffffffebH
  00159	88 55 f2	 mov	 BYTE PTR __k$[ebp+18], dl
  0015c	8a 50 13	 mov	 dl, BYTE PTR [eax+19]
  0015f	84 d2		 test	 dl, dl
  00161	0f 84 85 00 00
	00		 je	 $LN77@LoadString@4
  00167	32 d3		 xor	 dl, bl
  00169	88 55 f3	 mov	 BYTE PTR __k$[ebp+19], dl
  0016c	8a 50 14	 mov	 dl, BYTE PTR [eax+20]
  0016f	84 d2		 test	 dl, dl
  00171	74 73		 je	 SHORT $LN76@LoadString@4
  00173	80 f2 ed	 xor	 dl, -19			; ffffffedH
  00176	88 55 f4	 mov	 BYTE PTR __k$[ebp+20], dl
  00179	8a 50 15	 mov	 dl, BYTE PTR [eax+21]
  0017c	84 d2		 test	 dl, dl
  0017e	74 61		 je	 SHORT $LN75@LoadString@4
  00180	32 d1		 xor	 dl, cl
  00182	80 78 16 00	 cmp	 BYTE PTR [eax+22], 0
  00186	88 55 f5	 mov	 BYTE PTR __k$[ebp+21], dl
  00189	0f 84 cb 00 00
	00		 je	 $LN111@LoadString@4
  0018f	8a 50 17	 mov	 dl, BYTE PTR [eax+23]
  00192	84 d2		 test	 dl, dl
  00194	74 46		 je	 SHORT $LN73@LoadString@4
  00196	32 d3		 xor	 dl, bl
  00198	88 55 f7	 mov	 BYTE PTR __k$[ebp+23], dl
  0019b	8a 50 18	 mov	 dl, BYTE PTR [eax+24]
  0019e	84 d2		 test	 dl, dl
  001a0	74 34		 je	 SHORT $LN72@LoadString@4
  001a2	80 f2 ed	 xor	 dl, -19			; ffffffedH
  001a5	88 55 f8	 mov	 BYTE PTR __k$[ebp+24], dl
  001a8	8a 50 19	 mov	 dl, BYTE PTR [eax+25]
  001ab	84 d2		 test	 dl, dl
  001ad	74 1f		 je	 SHORT $LN71@LoadString@4
  001af	8a 40 1a	 mov	 al, BYTE PTR [eax+26]
  001b2	32 d1		 xor	 dl, cl
  001b4	88 55 f9	 mov	 BYTE PTR __k$[ebp+25], dl
  001b7	84 c0		 test	 al, al
  001b9	74 0a		 je	 SHORT $LN70@LoadString@4
  001bb	34 eb		 xor	 al, -21			; ffffffebH
  001bd	88 45 fa	 mov	 BYTE PTR __k$[ebp+26], al
  001c0	e9 95 00 00 00	 jmp	 $LN111@LoadString@4
$LN70@LoadString@4:
  001c5	c6 45 fa eb	 mov	 BYTE PTR __k$[ebp+26], -21 ; ffffffebH
  001c9	e9 8c 00 00 00	 jmp	 $LN111@LoadString@4
$LN71@LoadString@4:
  001ce	88 4d f9	 mov	 BYTE PTR __k$[ebp+25], cl
  001d1	e9 84 00 00 00	 jmp	 $LN111@LoadString@4
$LN72@LoadString@4:
  001d6	c6 45 f8 ed	 mov	 BYTE PTR __k$[ebp+24], -19 ; ffffffedH
  001da	eb 7e		 jmp	 SHORT $LN111@LoadString@4
$LN73@LoadString@4:
  001dc	88 5d f7	 mov	 BYTE PTR __k$[ebp+23], bl
  001df	eb 79		 jmp	 SHORT $LN111@LoadString@4
$LN75@LoadString@4:
  001e1	88 4d f5	 mov	 BYTE PTR __k$[ebp+21], cl
  001e4	eb 74		 jmp	 SHORT $LN111@LoadString@4
$LN76@LoadString@4:
  001e6	c6 45 f4 ed	 mov	 BYTE PTR __k$[ebp+20], -19 ; ffffffedH
  001ea	eb 6e		 jmp	 SHORT $LN111@LoadString@4
$LN77@LoadString@4:
  001ec	88 5d f3	 mov	 BYTE PTR __k$[ebp+19], bl
  001ef	eb 69		 jmp	 SHORT $LN111@LoadString@4
$LN78@LoadString@4:
  001f1	c6 45 f2 eb	 mov	 BYTE PTR __k$[ebp+18], -21 ; ffffffebH
  001f5	eb 63		 jmp	 SHORT $LN111@LoadString@4
$LN79@LoadString@4:
  001f7	88 4d f1	 mov	 BYTE PTR __k$[ebp+17], cl
  001fa	eb 5e		 jmp	 SHORT $LN111@LoadString@4
$LN80@LoadString@4:
  001fc	c6 45 f0 ed	 mov	 BYTE PTR __k$[ebp+16], -19 ; ffffffedH
  00200	eb 58		 jmp	 SHORT $LN111@LoadString@4
$LN81@LoadString@4:
  00202	88 5d ef	 mov	 BYTE PTR __k$[ebp+15], bl
  00205	eb 53		 jmp	 SHORT $LN111@LoadString@4
$LN82@LoadString@4:
  00207	c6 45 ee eb	 mov	 BYTE PTR __k$[ebp+14], -21 ; ffffffebH
  0020b	eb 4d		 jmp	 SHORT $LN111@LoadString@4
$LN83@LoadString@4:
  0020d	88 4d ed	 mov	 BYTE PTR __k$[ebp+13], cl
  00210	eb 48		 jmp	 SHORT $LN111@LoadString@4
$LN84@LoadString@4:
  00212	c6 45 ec ed	 mov	 BYTE PTR __k$[ebp+12], -19 ; ffffffedH
  00216	eb 42		 jmp	 SHORT $LN111@LoadString@4
$LN85@LoadString@4:
  00218	88 5d eb	 mov	 BYTE PTR __k$[ebp+11], bl
  0021b	eb 3d		 jmp	 SHORT $LN111@LoadString@4
$LN86@LoadString@4:
  0021d	c6 45 ea eb	 mov	 BYTE PTR __k$[ebp+10], -21 ; ffffffebH
  00221	eb 37		 jmp	 SHORT $LN111@LoadString@4
$LN87@LoadString@4:
  00223	88 4d e9	 mov	 BYTE PTR __k$[ebp+9], cl
  00226	eb 32		 jmp	 SHORT $LN111@LoadString@4
$LN88@LoadString@4:
  00228	c6 45 e8 ed	 mov	 BYTE PTR __k$[ebp+8], -19 ; ffffffedH
  0022c	eb 2c		 jmp	 SHORT $LN111@LoadString@4
$LN89@LoadString@4:
  0022e	88 5d e7	 mov	 BYTE PTR __k$[ebp+7], bl
  00231	eb 27		 jmp	 SHORT $LN111@LoadString@4
$LN90@LoadString@4:
  00233	c6 45 e6 eb	 mov	 BYTE PTR __k$[ebp+6], -21 ; ffffffebH
  00237	eb 21		 jmp	 SHORT $LN111@LoadString@4
$LN91@LoadString@4:
  00239	88 4d e5	 mov	 BYTE PTR __k$[ebp+5], cl
  0023c	eb 1c		 jmp	 SHORT $LN111@LoadString@4
$LN92@LoadString@4:
  0023e	c6 45 e4 ed	 mov	 BYTE PTR __k$[ebp+4], -19 ; ffffffedH
  00242	eb 16		 jmp	 SHORT $LN111@LoadString@4
$LN93@LoadString@4:
  00244	c6 45 e3 ea	 mov	 BYTE PTR __k$[ebp+3], -22 ; ffffffeaH
  00248	eb 10		 jmp	 SHORT $LN111@LoadString@4
$LN94@LoadString@4:
  0024a	c6 45 e2 eb	 mov	 BYTE PTR __k$[ebp+2], -21 ; ffffffebH
  0024e	eb 0a		 jmp	 SHORT $LN111@LoadString@4
$LN95@LoadString@4:
  00250	c6 45 e1 ec	 mov	 BYTE PTR __k$[ebp+1], -20 ; ffffffecH
  00254	eb 04		 jmp	 SHORT $LN111@LoadString@4
$LN96@LoadString@4:
  00256	c6 45 e0 ed	 mov	 BYTE PTR __k$[ebp], -19	; ffffffedH
$LN111@LoadString@4:
  0025a	6a 05		 push	 5
  0025c	8d 45 e0	 lea	 eax, DWORD PTR __k$[ebp]
  0025f	c6 45 f6 00	 mov	 BYTE PTR __k$[ebp+22], 0
  00263	5a		 pop	 edx
$LL104@LoadString@4:
  00264	81 30 ed ec eb
	ea		 xor	 DWORD PTR [eax], -353637139 ; eaebecedH
  0026a	83 c0 04	 add	 eax, 4
  0026d	4a		 dec	 edx
  0026e	75 f4		 jne	 SHORT $LL104@LoadString@4
  00270	6a 14		 push	 20			; 00000014H
  00272	58		 pop	 eax
$LL101@LoadString@4:
  00273	8b c8		 mov	 ecx, eax
  00275	81 e1 03 00 00
	80		 and	 ecx, -2147483645	; 80000003H
  0027b	79 05		 jns	 SHORT $LN112@LoadString@4
  0027d	49		 dec	 ecx
  0027e	83 c9 fc	 or	 ecx, -4			; fffffffcH
  00281	41		 inc	 ecx
$LN112@LoadString@4:
  00282	b2 ed		 mov	 dl, -19			; ffffffedH
  00284	2a d1		 sub	 dl, cl
  00286	30 54 05 e0	 xor	 BYTE PTR __k$[ebp+eax], dl
  0028a	40		 inc	 eax
  0028b	83 f8 16	 cmp	 eax, 22			; 00000016H
  0028e	7c e3		 jl	 SHORT $LL101@LoadString@4

; 163  : 		LoadString(_k, d, b, i);

  00290	ff 75 14	 push	 DWORD PTR _i$[ebp]
  00293	8b 4d dc	 mov	 ecx, DWORD PTR _this$GSCopy$[ebp]
  00296	57		 push	 edi
  00297	56		 push	 esi
  00298	8d 45 e0	 lea	 eax, DWORD PTR __k$[ebp]
  0029b	50		 push	 eax
  0029c	ff 15 00 00 00
	00		 call	 DWORD PTR __imp_?LoadStringA@ioINILoader@@QAEXPBD0PADH@Z

; 164  : 	}

  002a2	8b 4d fc	 mov	 ecx, DWORD PTR __$ArrayPad$[ebp]
  002a5	5f		 pop	 edi
  002a6	5e		 pop	 esi
  002a7	33 cd		 xor	 ecx, ebp
  002a9	5b		 pop	 ebx
  002aa	e8 00 00 00 00	 call	 @__security_check_cookie@4
  002af	c9		 leave
  002b0	c2 10 00	 ret	 16			; 00000010H
??$LoadString_e@$0BH@@ioINILoader@@QAEXAAY0BH@$$CBDAAY00$$CBDPADH@Z ENDP ; ioINILoader::LoadString_e<23>
_TEXT	ENDS
PUBLIC	__$ArrayPad$
PUBLIC	??$LoadInt_e@$0BE@@ioINILoader@@QAEHAAY0BE@$$CBDH@Z ; ioINILoader::LoadInt_e<20>
EXTRN	__imp_?LoadInt@ioINILoader@@QAEHPBDH@Z:PROC
; Function compile flags: /Ogsp
;	COMDAT ??$LoadInt_e@$0BE@@ioINILoader@@QAEHAAY0BE@$$CBDH@Z
_TEXT	SEGMENT
__k$ = -28						; size = 20
__$ArrayPad$ = -4					; size = 4
_k$ = 8							; size = 4
_i$ = 12						; size = 4
??$LoadInt_e@$0BE@@ioINILoader@@QAEHAAY0BE@$$CBDH@Z PROC ; ioINILoader::LoadInt_e<20>, COMDAT
; _this$ = ecx

; 118  : 	{

  00000	55		 push	 ebp
  00001	8b ec		 mov	 ebp, esp
  00003	83 ec 1c	 sub	 esp, 28			; 0000001cH
  00006	a1 00 00 00 00	 mov	 eax, DWORD PTR ___security_cookie
  0000b	33 c5		 xor	 eax, ebp
  0000d	89 45 fc	 mov	 DWORD PTR __$ArrayPad$[ebp], eax
  00010	8b 45 08	 mov	 eax, DWORD PTR _k$[ebp]

; 119  : 		_ENCSTR(k, _k);

  00013	8a 10		 mov	 dl, BYTE PTR [eax]
  00015	53		 push	 ebx
  00016	56		 push	 esi
  00017	8b f1		 mov	 esi, ecx
  00019	84 d2		 test	 dl, dl
  0001b	0f 84 dd 01 00
	00		 je	 $LN96@LoadInt_e
  00021	80 f2 ed	 xor	 dl, -19			; ffffffedH
  00024	88 55 e4	 mov	 BYTE PTR __k$[ebp], dl
  00027	8a 50 01	 mov	 dl, BYTE PTR [eax+1]
  0002a	84 d2		 test	 dl, dl
  0002c	0f 84 c6 01 00
	00		 je	 $LN95@LoadInt_e
  00032	b3 ec		 mov	 bl, -20			; ffffffecH
  00034	32 d3		 xor	 dl, bl
  00036	88 55 e5	 mov	 BYTE PTR __k$[ebp+1], dl
  00039	8a 50 02	 mov	 dl, BYTE PTR [eax+2]
  0003c	84 d2		 test	 dl, dl
  0003e	0f 84 ae 01 00
	00		 je	 $LN94@LoadInt_e
  00044	b1 eb		 mov	 cl, -21			; ffffffebH
  00046	32 d1		 xor	 dl, cl
  00048	88 55 e6	 mov	 BYTE PTR __k$[ebp+2], dl
  0004b	8a 50 03	 mov	 dl, BYTE PTR [eax+3]
  0004e	84 d2		 test	 dl, dl
  00050	0f 84 96 01 00
	00		 je	 $LN93@LoadInt_e
  00056	80 f2 ea	 xor	 dl, -22			; ffffffeaH
  00059	88 55 e7	 mov	 BYTE PTR __k$[ebp+3], dl
  0005c	8a 50 04	 mov	 dl, BYTE PTR [eax+4]
  0005f	84 d2		 test	 dl, dl
  00061	0f 84 7f 01 00
	00		 je	 $LN92@LoadInt_e
  00067	80 f2 ed	 xor	 dl, -19			; ffffffedH
  0006a	88 55 e8	 mov	 BYTE PTR __k$[ebp+4], dl
  0006d	8a 50 05	 mov	 dl, BYTE PTR [eax+5]
  00070	84 d2		 test	 dl, dl
  00072	0f 84 69 01 00
	00		 je	 $LN91@LoadInt_e
  00078	32 d3		 xor	 dl, bl
  0007a	88 55 e9	 mov	 BYTE PTR __k$[ebp+5], dl
  0007d	8a 50 06	 mov	 dl, BYTE PTR [eax+6]
  00080	84 d2		 test	 dl, dl
  00082	0f 84 54 01 00
	00		 je	 $LN90@LoadInt_e
  00088	32 d1		 xor	 dl, cl
  0008a	88 55 ea	 mov	 BYTE PTR __k$[ebp+6], dl
  0008d	8a 50 07	 mov	 dl, BYTE PTR [eax+7]
  00090	84 d2		 test	 dl, dl
  00092	0f 84 3e 01 00
	00		 je	 $LN89@LoadInt_e
  00098	80 f2 ea	 xor	 dl, -22			; ffffffeaH
  0009b	88 55 eb	 mov	 BYTE PTR __k$[ebp+7], dl
  0009e	8a 50 08	 mov	 dl, BYTE PTR [eax+8]
  000a1	84 d2		 test	 dl, dl
  000a3	0f 84 27 01 00
	00		 je	 $LN88@LoadInt_e
  000a9	80 f2 ed	 xor	 dl, -19			; ffffffedH
  000ac	88 55 ec	 mov	 BYTE PTR __k$[ebp+8], dl
  000af	8a 50 09	 mov	 dl, BYTE PTR [eax+9]
  000b2	84 d2		 test	 dl, dl
  000b4	0f 84 11 01 00
	00		 je	 $LN87@LoadInt_e
  000ba	32 d3		 xor	 dl, bl
  000bc	88 55 ed	 mov	 BYTE PTR __k$[ebp+9], dl
  000bf	8a 50 0a	 mov	 dl, BYTE PTR [eax+10]
  000c2	84 d2		 test	 dl, dl
  000c4	0f 84 fc 00 00
	00		 je	 $LN86@LoadInt_e
  000ca	32 d1		 xor	 dl, cl
  000cc	88 55 ee	 mov	 BYTE PTR __k$[ebp+10], dl
  000cf	8a 50 0b	 mov	 dl, BYTE PTR [eax+11]
  000d2	84 d2		 test	 dl, dl
  000d4	0f 84 e6 00 00
	00		 je	 $LN85@LoadInt_e
  000da	80 f2 ea	 xor	 dl, -22			; ffffffeaH
  000dd	88 55 ef	 mov	 BYTE PTR __k$[ebp+11], dl
  000e0	8a 50 0c	 mov	 dl, BYTE PTR [eax+12]
  000e3	84 d2		 test	 dl, dl
  000e5	0f 84 cf 00 00
	00		 je	 $LN84@LoadInt_e
  000eb	80 f2 ed	 xor	 dl, -19			; ffffffedH
  000ee	88 55 f0	 mov	 BYTE PTR __k$[ebp+12], dl
  000f1	8a 50 0d	 mov	 dl, BYTE PTR [eax+13]
  000f4	84 d2		 test	 dl, dl
  000f6	0f 84 b9 00 00
	00		 je	 $LN83@LoadInt_e
  000fc	32 d3		 xor	 dl, bl
  000fe	88 55 f1	 mov	 BYTE PTR __k$[ebp+13], dl
  00101	8a 50 0e	 mov	 dl, BYTE PTR [eax+14]
  00104	84 d2		 test	 dl, dl
  00106	0f 84 a4 00 00
	00		 je	 $LN82@LoadInt_e
  0010c	32 d1		 xor	 dl, cl
  0010e	88 55 f2	 mov	 BYTE PTR __k$[ebp+14], dl
  00111	8a 50 0f	 mov	 dl, BYTE PTR [eax+15]
  00114	84 d2		 test	 dl, dl
  00116	0f 84 8e 00 00
	00		 je	 $LN81@LoadInt_e
  0011c	80 f2 ea	 xor	 dl, -22			; ffffffeaH
  0011f	88 55 f3	 mov	 BYTE PTR __k$[ebp+15], dl
  00122	8a 50 10	 mov	 dl, BYTE PTR [eax+16]
  00125	84 d2		 test	 dl, dl
  00127	74 7b		 je	 SHORT $LN80@LoadInt_e
  00129	80 f2 ed	 xor	 dl, -19			; ffffffedH
  0012c	88 55 f4	 mov	 BYTE PTR __k$[ebp+16], dl
  0012f	8a 50 11	 mov	 dl, BYTE PTR [eax+17]
  00132	84 d2		 test	 dl, dl
  00134	74 69		 je	 SHORT $LN79@LoadInt_e
  00136	32 d3		 xor	 dl, bl
  00138	88 55 f5	 mov	 BYTE PTR __k$[ebp+17], dl
  0013b	8a 50 12	 mov	 dl, BYTE PTR [eax+18]
  0013e	84 d2		 test	 dl, dl
  00140	74 58		 je	 SHORT $LN78@LoadInt_e
  00142	32 d1		 xor	 dl, cl
  00144	80 78 13 00	 cmp	 BYTE PTR [eax+19], 0
  00148	88 55 f6	 mov	 BYTE PTR __k$[ebp+18], dl
  0014b	0f 84 b1 00 00
	00		 je	 $LN1@LoadInt_e
  00151	8a 50 14	 mov	 dl, BYTE PTR [eax+20]
  00154	84 d2		 test	 dl, dl
  00156	74 3c		 je	 SHORT $LN76@LoadInt_e
  00158	80 f2 ed	 xor	 dl, -19			; ffffffedH
  0015b	88 55 f8	 mov	 BYTE PTR __k$[ebp+20], dl
  0015e	8a 50 15	 mov	 dl, BYTE PTR [eax+21]
  00161	84 d2		 test	 dl, dl
  00163	74 2a		 je	 SHORT $LN75@LoadInt_e
  00165	32 d3		 xor	 dl, bl
  00167	88 55 f9	 mov	 BYTE PTR __k$[ebp+21], dl
  0016a	8a 50 16	 mov	 dl, BYTE PTR [eax+22]
  0016d	84 d2		 test	 dl, dl
  0016f	74 19		 je	 SHORT $LN74@LoadInt_e
  00171	8a 40 17	 mov	 al, BYTE PTR [eax+23]
  00174	32 d1		 xor	 dl, cl
  00176	88 55 fa	 mov	 BYTE PTR __k$[ebp+22], dl
  00179	84 c0		 test	 al, al
  0017b	74 07		 je	 SHORT $LN73@LoadInt_e
  0017d	34 ea		 xor	 al, -22			; ffffffeaH
  0017f	88 45 fb	 mov	 BYTE PTR __k$[ebp+23], al
  00182	eb 7e		 jmp	 SHORT $LN1@LoadInt_e
$LN73@LoadInt_e:
  00184	c6 45 fb ea	 mov	 BYTE PTR __k$[ebp+23], -22 ; ffffffeaH
  00188	eb 78		 jmp	 SHORT $LN1@LoadInt_e
$LN74@LoadInt_e:
  0018a	88 4d fa	 mov	 BYTE PTR __k$[ebp+22], cl
  0018d	eb 73		 jmp	 SHORT $LN1@LoadInt_e
$LN75@LoadInt_e:
  0018f	88 5d f9	 mov	 BYTE PTR __k$[ebp+21], bl
  00192	eb 6e		 jmp	 SHORT $LN1@LoadInt_e
$LN76@LoadInt_e:
  00194	c6 45 f8 ed	 mov	 BYTE PTR __k$[ebp+20], -19 ; ffffffedH
  00198	eb 68		 jmp	 SHORT $LN1@LoadInt_e
$LN78@LoadInt_e:
  0019a	88 4d f6	 mov	 BYTE PTR __k$[ebp+18], cl
  0019d	eb 63		 jmp	 SHORT $LN1@LoadInt_e
$LN79@LoadInt_e:
  0019f	88 5d f5	 mov	 BYTE PTR __k$[ebp+17], bl
  001a2	eb 5e		 jmp	 SHORT $LN1@LoadInt_e
$LN80@LoadInt_e:
  001a4	c6 45 f4 ed	 mov	 BYTE PTR __k$[ebp+16], -19 ; ffffffedH
  001a8	eb 58		 jmp	 SHORT $LN1@LoadInt_e
$LN81@LoadInt_e:
  001aa	c6 45 f3 ea	 mov	 BYTE PTR __k$[ebp+15], -22 ; ffffffeaH
  001ae	eb 52		 jmp	 SHORT $LN1@LoadInt_e
$LN82@LoadInt_e:
  001b0	88 4d f2	 mov	 BYTE PTR __k$[ebp+14], cl
  001b3	eb 4d		 jmp	 SHORT $LN1@LoadInt_e
$LN83@LoadInt_e:
  001b5	88 5d f1	 mov	 BYTE PTR __k$[ebp+13], bl
  001b8	eb 48		 jmp	 SHORT $LN1@LoadInt_e
$LN84@LoadInt_e:
  001ba	c6 45 f0 ed	 mov	 BYTE PTR __k$[ebp+12], -19 ; ffffffedH
  001be	eb 42		 jmp	 SHORT $LN1@LoadInt_e
$LN85@LoadInt_e:
  001c0	c6 45 ef ea	 mov	 BYTE PTR __k$[ebp+11], -22 ; ffffffeaH
  001c4	eb 3c		 jmp	 SHORT $LN1@LoadInt_e
$LN86@LoadInt_e:
  001c6	88 4d ee	 mov	 BYTE PTR __k$[ebp+10], cl
  001c9	eb 37		 jmp	 SHORT $LN1@LoadInt_e
$LN87@LoadInt_e:
  001cb	88 5d ed	 mov	 BYTE PTR __k$[ebp+9], bl
  001ce	eb 32		 jmp	 SHORT $LN1@LoadInt_e
$LN88@LoadInt_e:
  001d0	c6 45 ec ed	 mov	 BYTE PTR __k$[ebp+8], -19 ; ffffffedH
  001d4	eb 2c		 jmp	 SHORT $LN1@LoadInt_e
$LN89@LoadInt_e:
  001d6	c6 45 eb ea	 mov	 BYTE PTR __k$[ebp+7], -22 ; ffffffeaH
  001da	eb 26		 jmp	 SHORT $LN1@LoadInt_e
$LN90@LoadInt_e:
  001dc	88 4d ea	 mov	 BYTE PTR __k$[ebp+6], cl
  001df	eb 21		 jmp	 SHORT $LN1@LoadInt_e
$LN91@LoadInt_e:
  001e1	88 5d e9	 mov	 BYTE PTR __k$[ebp+5], bl
  001e4	eb 1c		 jmp	 SHORT $LN1@LoadInt_e
$LN92@LoadInt_e:
  001e6	c6 45 e8 ed	 mov	 BYTE PTR __k$[ebp+4], -19 ; ffffffedH
  001ea	eb 16		 jmp	 SHORT $LN1@LoadInt_e
$LN93@LoadInt_e:
  001ec	c6 45 e7 ea	 mov	 BYTE PTR __k$[ebp+3], -22 ; ffffffeaH
  001f0	eb 10		 jmp	 SHORT $LN1@LoadInt_e
$LN94@LoadInt_e:
  001f2	c6 45 e6 eb	 mov	 BYTE PTR __k$[ebp+2], -21 ; ffffffebH
  001f6	eb 0a		 jmp	 SHORT $LN1@LoadInt_e
$LN95@LoadInt_e:
  001f8	c6 45 e5 ec	 mov	 BYTE PTR __k$[ebp+1], -20 ; ffffffecH
  001fc	eb 04		 jmp	 SHORT $LN1@LoadInt_e
$LN96@LoadInt_e:
  001fe	c6 45 e4 ed	 mov	 BYTE PTR __k$[ebp], -19	; ffffffedH
$LN1@LoadInt_e:
  00202	6a 04		 push	 4
  00204	8d 45 e4	 lea	 eax, DWORD PTR __k$[ebp]
  00207	c6 45 f7 00	 mov	 BYTE PTR __k$[ebp+19], 0
  0020b	5a		 pop	 edx
$LL104@LoadInt_e:
  0020c	81 30 ed ec eb
	ea		 xor	 DWORD PTR [eax], -353637139 ; eaebecedH
  00212	83 c0 04	 add	 eax, 4
  00215	4a		 dec	 edx
  00216	75 f4		 jne	 SHORT $LL104@LoadInt_e
  00218	6a 10		 push	 16			; 00000010H
  0021a	58		 pop	 eax
$LL101@LoadInt_e:
  0021b	8b c8		 mov	 ecx, eax
  0021d	81 e1 03 00 00
	80		 and	 ecx, -2147483645	; 80000003H
  00223	79 05		 jns	 SHORT $LN111@LoadInt_e
  00225	49		 dec	 ecx
  00226	83 c9 fc	 or	 ecx, -4			; fffffffcH
  00229	41		 inc	 ecx
$LN111@LoadInt_e:
  0022a	b2 ed		 mov	 dl, -19			; ffffffedH
  0022c	2a d1		 sub	 dl, cl
  0022e	30 54 05 e4	 xor	 BYTE PTR __k$[ebp+eax], dl
  00232	40		 inc	 eax
  00233	83 f8 13	 cmp	 eax, 19			; 00000013H
  00236	7c e3		 jl	 SHORT $LL101@LoadInt_e

; 120  : 		return LoadInt(_k, i);

  00238	ff 75 0c	 push	 DWORD PTR _i$[ebp]
  0023b	8d 45 e4	 lea	 eax, DWORD PTR __k$[ebp]
  0023e	50		 push	 eax
  0023f	8b ce		 mov	 ecx, esi
  00241	ff 15 00 00 00
	00		 call	 DWORD PTR __imp_?LoadInt@ioINILoader@@QAEHPBDH@Z

; 121  : 	}

  00247	8b 4d fc	 mov	 ecx, DWORD PTR __$ArrayPad$[ebp]
  0024a	5e		 pop	 esi
  0024b	33 cd		 xor	 ecx, ebp
  0024d	5b		 pop	 ebx
  0024e	e8 00 00 00 00	 call	 @__security_check_cookie@4
  00253	c9		 leave
  00254	c2 08 00	 ret	 8
??$LoadInt_e@$0BE@@ioINILoader@@QAEHAAY0BE@$$CBDH@Z ENDP ; ioINILoader::LoadInt_e<20>
_TEXT	ENDS
PUBLIC	__$ArrayPad$
PUBLIC	??$LoadAttackAttribute_e@$0M@@@YAXAAY0M@$$CBDAAUAttackAttribute@@AAVioINILoader@@@Z ; LoadAttackAttribute_e<12>
EXTRN	?LoadAttackAttribute@@YAXPBDAAUAttackAttribute@@AAVioINILoader@@@Z:PROC ; LoadAttackAttribute
; Function compile flags: /Ogsp
; File d:\lost saga for developer\youtube\tutorial\source\src\lsclient\ioattackattribute.h
;	COMDAT ??$LoadAttackAttribute_e@$0M@@@YAXAAY0M@$$CBDAAUAttackAttribute@@AAVioINILoader@@@Z
_TEXT	SEGMENT
_szEncAttack$ = -20					; size = 12
__$ArrayPad$ = -4					; size = 4
_szAttack$ = 8						; size = 4
_rkAttribute$ = 12					; size = 4
_rkLoader$ = 16						; size = 4
??$LoadAttackAttribute_e@$0M@@@YAXAAY0M@$$CBDAAUAttackAttribute@@AAVioINILoader@@@Z PROC ; LoadAttackAttribute_e<12>, COMDAT

; 131  : {

  00000	55		 push	 ebp
  00001	8b ec		 mov	 ebp, esp
  00003	83 ec 14	 sub	 esp, 20			; 00000014H
  00006	a1 00 00 00 00	 mov	 eax, DWORD PTR ___security_cookie
  0000b	33 c5		 xor	 eax, ebp
  0000d	89 45 fc	 mov	 DWORD PTR __$ArrayPad$[ebp], eax
  00010	8b 45 08	 mov	 eax, DWORD PTR _szAttack$[ebp]

; 132  : 	_ENCSTR(szAttack, szEncAttack);

  00013	8a 08		 mov	 cl, BYTE PTR [eax]
  00015	56		 push	 esi
  00016	8b 75 0c	 mov	 esi, DWORD PTR _rkAttribute$[ebp]
  00019	57		 push	 edi
  0001a	8b 7d 10	 mov	 edi, DWORD PTR _rkLoader$[ebp]
  0001d	84 c9		 test	 cl, cl
  0001f	0f 84 32 01 00
	00		 je	 $LN96@LoadAttack
  00025	80 f1 ed	 xor	 cl, -19			; ffffffedH
  00028	88 4d ec	 mov	 BYTE PTR _szEncAttack$[ebp], cl
  0002b	8a 48 01	 mov	 cl, BYTE PTR [eax+1]
  0002e	84 c9		 test	 cl, cl
  00030	0f 84 1b 01 00
	00		 je	 $LN95@LoadAttack
  00036	b2 ec		 mov	 dl, -20			; ffffffecH
  00038	32 ca		 xor	 cl, dl
  0003a	88 4d ed	 mov	 BYTE PTR _szEncAttack$[ebp+1], cl
  0003d	8a 48 02	 mov	 cl, BYTE PTR [eax+2]
  00040	84 c9		 test	 cl, cl
  00042	0f 84 03 01 00
	00		 je	 $LN94@LoadAttack
  00048	80 f1 eb	 xor	 cl, -21			; ffffffebH
  0004b	88 4d ee	 mov	 BYTE PTR _szEncAttack$[ebp+2], cl
  0004e	8a 48 03	 mov	 cl, BYTE PTR [eax+3]
  00051	84 c9		 test	 cl, cl
  00053	0f 84 ec 00 00
	00		 je	 $LN93@LoadAttack
  00059	80 f1 ea	 xor	 cl, -22			; ffffffeaH
  0005c	88 4d ef	 mov	 BYTE PTR _szEncAttack$[ebp+3], cl
  0005f	8a 48 04	 mov	 cl, BYTE PTR [eax+4]
  00062	84 c9		 test	 cl, cl
  00064	0f 84 d5 00 00
	00		 je	 $LN92@LoadAttack
  0006a	80 f1 ed	 xor	 cl, -19			; ffffffedH
  0006d	88 4d f0	 mov	 BYTE PTR _szEncAttack$[ebp+4], cl
  00070	8a 48 05	 mov	 cl, BYTE PTR [eax+5]
  00073	84 c9		 test	 cl, cl
  00075	0f 84 bf 00 00
	00		 je	 $LN91@LoadAttack
  0007b	32 ca		 xor	 cl, dl
  0007d	88 4d f1	 mov	 BYTE PTR _szEncAttack$[ebp+5], cl
  00080	8a 48 06	 mov	 cl, BYTE PTR [eax+6]
  00083	84 c9		 test	 cl, cl
  00085	0f 84 a9 00 00
	00		 je	 $LN90@LoadAttack
  0008b	80 f1 eb	 xor	 cl, -21			; ffffffebH
  0008e	88 4d f2	 mov	 BYTE PTR _szEncAttack$[ebp+6], cl
  00091	8a 48 07	 mov	 cl, BYTE PTR [eax+7]
  00094	84 c9		 test	 cl, cl
  00096	0f 84 92 00 00
	00		 je	 $LN89@LoadAttack
  0009c	80 f1 ea	 xor	 cl, -22			; ffffffeaH
  0009f	88 4d f3	 mov	 BYTE PTR _szEncAttack$[ebp+7], cl
  000a2	8a 48 08	 mov	 cl, BYTE PTR [eax+8]
  000a5	84 c9		 test	 cl, cl
  000a7	74 7f		 je	 SHORT $LN88@LoadAttack
  000a9	80 f1 ed	 xor	 cl, -19			; ffffffedH
  000ac	88 4d f4	 mov	 BYTE PTR _szEncAttack$[ebp+8], cl
  000af	8a 48 09	 mov	 cl, BYTE PTR [eax+9]
  000b2	84 c9		 test	 cl, cl
  000b4	74 6d		 je	 SHORT $LN87@LoadAttack
  000b6	32 ca		 xor	 cl, dl
  000b8	88 4d f5	 mov	 BYTE PTR _szEncAttack$[ebp+9], cl
  000bb	8a 48 0a	 mov	 cl, BYTE PTR [eax+10]
  000be	84 c9		 test	 cl, cl
  000c0	74 5b		 je	 SHORT $LN86@LoadAttack
  000c2	80 f1 eb	 xor	 cl, -21			; ffffffebH
  000c5	80 78 0b 00	 cmp	 BYTE PTR [eax+11], 0
  000c9	88 4d f6	 mov	 BYTE PTR _szEncAttack$[ebp+10], cl
  000cc	0f 84 89 00 00
	00		 je	 $LN1@LoadAttack
  000d2	8a 48 0c	 mov	 cl, BYTE PTR [eax+12]
  000d5	84 c9		 test	 cl, cl
  000d7	74 3e		 je	 SHORT $LN84@LoadAttack
  000d9	80 f1 ed	 xor	 cl, -19			; ffffffedH
  000dc	88 4d f8	 mov	 BYTE PTR _szEncAttack$[ebp+12], cl
  000df	8a 48 0d	 mov	 cl, BYTE PTR [eax+13]
  000e2	84 c9		 test	 cl, cl
  000e4	74 2c		 je	 SHORT $LN83@LoadAttack
  000e6	32 ca		 xor	 cl, dl
  000e8	88 4d f9	 mov	 BYTE PTR _szEncAttack$[ebp+13], cl
  000eb	8a 48 0e	 mov	 cl, BYTE PTR [eax+14]
  000ee	84 c9		 test	 cl, cl
  000f0	74 1a		 je	 SHORT $LN82@LoadAttack
  000f2	8a 40 0f	 mov	 al, BYTE PTR [eax+15]
  000f5	80 f1 eb	 xor	 cl, -21			; ffffffebH
  000f8	88 4d fa	 mov	 BYTE PTR _szEncAttack$[ebp+14], cl
  000fb	84 c0		 test	 al, al
  000fd	74 07		 je	 SHORT $LN81@LoadAttack
  000ff	34 ea		 xor	 al, -22			; ffffffeaH
  00101	88 45 fb	 mov	 BYTE PTR _szEncAttack$[ebp+15], al
  00104	eb 55		 jmp	 SHORT $LN1@LoadAttack
$LN81@LoadAttack:
  00106	c6 45 fb ea	 mov	 BYTE PTR _szEncAttack$[ebp+15], -22 ; ffffffeaH
  0010a	eb 4f		 jmp	 SHORT $LN1@LoadAttack
$LN82@LoadAttack:
  0010c	c6 45 fa eb	 mov	 BYTE PTR _szEncAttack$[ebp+14], -21 ; ffffffebH
  00110	eb 49		 jmp	 SHORT $LN1@LoadAttack
$LN83@LoadAttack:
  00112	88 55 f9	 mov	 BYTE PTR _szEncAttack$[ebp+13], dl
  00115	eb 44		 jmp	 SHORT $LN1@LoadAttack
$LN84@LoadAttack:
  00117	c6 45 f8 ed	 mov	 BYTE PTR _szEncAttack$[ebp+12], -19 ; ffffffedH
  0011b	eb 3e		 jmp	 SHORT $LN1@LoadAttack
$LN86@LoadAttack:
  0011d	c6 45 f6 eb	 mov	 BYTE PTR _szEncAttack$[ebp+10], -21 ; ffffffebH
  00121	eb 38		 jmp	 SHORT $LN1@LoadAttack
$LN87@LoadAttack:
  00123	88 55 f5	 mov	 BYTE PTR _szEncAttack$[ebp+9], dl
  00126	eb 33		 jmp	 SHORT $LN1@LoadAttack
$LN88@LoadAttack:
  00128	c6 45 f4 ed	 mov	 BYTE PTR _szEncAttack$[ebp+8], -19 ; ffffffedH
  0012c	eb 2d		 jmp	 SHORT $LN1@LoadAttack
$LN89@LoadAttack:
  0012e	c6 45 f3 ea	 mov	 BYTE PTR _szEncAttack$[ebp+7], -22 ; ffffffeaH
  00132	eb 27		 jmp	 SHORT $LN1@LoadAttack
$LN90@LoadAttack:
  00134	c6 45 f2 eb	 mov	 BYTE PTR _szEncAttack$[ebp+6], -21 ; ffffffebH
  00138	eb 21		 jmp	 SHORT $LN1@LoadAttack
$LN91@LoadAttack:
  0013a	88 55 f1	 mov	 BYTE PTR _szEncAttack$[ebp+5], dl
  0013d	eb 1c		 jmp	 SHORT $LN1@LoadAttack
$LN92@LoadAttack:
  0013f	c6 45 f0 ed	 mov	 BYTE PTR _szEncAttack$[ebp+4], -19 ; ffffffedH
  00143	eb 16		 jmp	 SHORT $LN1@LoadAttack
$LN93@LoadAttack:
  00145	c6 45 ef ea	 mov	 BYTE PTR _szEncAttack$[ebp+3], -22 ; ffffffeaH
  00149	eb 10		 jmp	 SHORT $LN1@LoadAttack
$LN94@LoadAttack:
  0014b	c6 45 ee eb	 mov	 BYTE PTR _szEncAttack$[ebp+2], -21 ; ffffffebH
  0014f	eb 0a		 jmp	 SHORT $LN1@LoadAttack
$LN95@LoadAttack:
  00151	c6 45 ed ec	 mov	 BYTE PTR _szEncAttack$[ebp+1], -20 ; ffffffecH
  00155	eb 04		 jmp	 SHORT $LN1@LoadAttack
$LN96@LoadAttack:
  00157	c6 45 ec ed	 mov	 BYTE PTR _szEncAttack$[ebp], -19 ; ffffffedH
$LN1@LoadAttack:
  0015b	6a 02		 push	 2
  0015d	8d 45 ec	 lea	 eax, DWORD PTR _szEncAttack$[ebp]
  00160	c6 45 f7 00	 mov	 BYTE PTR _szEncAttack$[ebp+11], 0
  00164	59		 pop	 ecx
$LL104@LoadAttack:
  00165	81 30 ed ec eb
	ea		 xor	 DWORD PTR [eax], -353637139 ; eaebecedH
  0016b	83 c0 04	 add	 eax, 4
  0016e	49		 dec	 ecx
  0016f	75 f4		 jne	 SHORT $LL104@LoadAttack
  00171	6a 08		 push	 8
  00173	58		 pop	 eax
$LL101@LoadAttack:
  00174	8b c8		 mov	 ecx, eax
  00176	81 e1 03 00 00
	80		 and	 ecx, -2147483645	; 80000003H
  0017c	79 05		 jns	 SHORT $LN111@LoadAttack
  0017e	49		 dec	 ecx
  0017f	83 c9 fc	 or	 ecx, -4			; fffffffcH
  00182	41		 inc	 ecx
$LN111@LoadAttack:
  00183	b2 ed		 mov	 dl, -19			; ffffffedH
  00185	2a d1		 sub	 dl, cl
  00187	30 54 05 ec	 xor	 BYTE PTR _szEncAttack$[ebp+eax], dl
  0018b	40		 inc	 eax
  0018c	83 f8 0b	 cmp	 eax, 11			; 0000000bH
  0018f	7c e3		 jl	 SHORT $LL101@LoadAttack

; 133  : 	LoadAttackAttribute(szEncAttack, rkAttribute, rkLoader);

  00191	57		 push	 edi
  00192	8d 45 ec	 lea	 eax, DWORD PTR _szEncAttack$[ebp]
  00195	56		 push	 esi
  00196	50		 push	 eax
  00197	e8 00 00 00 00	 call	 ?LoadAttackAttribute@@YAXPBDAAUAttackAttribute@@AAVioINILoader@@@Z ; LoadAttackAttribute

; 134  : }

  0019c	8b 4d fc	 mov	 ecx, DWORD PTR __$ArrayPad$[ebp]
  0019f	83 c4 0c	 add	 esp, 12			; 0000000cH
  001a2	5f		 pop	 edi
  001a3	33 cd		 xor	 ecx, ebp
  001a5	5e		 pop	 esi
  001a6	e8 00 00 00 00	 call	 @__security_check_cookie@4
  001ab	c9		 leave
  001ac	c3		 ret	 0
??$LoadAttackAttribute_e@$0M@@@YAXAAY0M@$$CBDAAUAttackAttribute@@AAVioINILoader@@@Z ENDP ; LoadAttackAttribute_e<12>
_TEXT	ENDS
PUBLIC	__$ArrayPad$
PUBLIC	??$LoadFloat_e@$0M@@ioINILoader@@QAEMAAY0M@$$CBDM@Z ; ioINILoader::LoadFloat_e<12>
EXTRN	__imp_?LoadFloat@ioINILoader@@QAEMPBDM@Z:PROC
; Function compile flags: /Ogsp
; File d:\lost saga for developer\youtube\tutorial\source\src\io3dengine\ioiniloader.h
;	COMDAT ??$LoadFloat_e@$0M@@ioINILoader@@QAEMAAY0M@$$CBDM@Z
_TEXT	SEGMENT
__k$ = -20						; size = 12
__$ArrayPad$ = -4					; size = 4
_k$ = 8							; size = 4
_f$ = 12						; size = 4
??$LoadFloat_e@$0M@@ioINILoader@@QAEMAAY0M@$$CBDM@Z PROC ; ioINILoader::LoadFloat_e<12>, COMDAT
; _this$ = ecx

; 135  : 	{

  00000	55		 push	 ebp
  00001	8b ec		 mov	 ebp, esp
  00003	83 ec 14	 sub	 esp, 20			; 00000014H
  00006	a1 00 00 00 00	 mov	 eax, DWORD PTR ___security_cookie
  0000b	33 c5		 xor	 eax, ebp
  0000d	89 45 fc	 mov	 DWORD PTR __$ArrayPad$[ebp], eax
  00010	8b 45 08	 mov	 eax, DWORD PTR _k$[ebp]

; 136  : 		_ENCSTR(k, _k);

  00013	8a 10		 mov	 dl, BYTE PTR [eax]
  00015	56		 push	 esi
  00016	8b f1		 mov	 esi, ecx
  00018	84 d2		 test	 dl, dl
  0001a	0f 84 32 01 00
	00		 je	 $LN96@LoadFloat_
  00020	80 f2 ed	 xor	 dl, -19			; ffffffedH
  00023	88 55 ec	 mov	 BYTE PTR __k$[ebp], dl
  00026	8a 50 01	 mov	 dl, BYTE PTR [eax+1]
  00029	84 d2		 test	 dl, dl
  0002b	0f 84 1b 01 00
	00		 je	 $LN95@LoadFloat_
  00031	80 f2 ec	 xor	 dl, -20			; ffffffecH
  00034	88 55 ed	 mov	 BYTE PTR __k$[ebp+1], dl
  00037	8a 50 02	 mov	 dl, BYTE PTR [eax+2]
  0003a	84 d2		 test	 dl, dl
  0003c	0f 84 04 01 00
	00		 je	 $LN94@LoadFloat_
  00042	b1 eb		 mov	 cl, -21			; ffffffebH
  00044	32 d1		 xor	 dl, cl
  00046	88 55 ee	 mov	 BYTE PTR __k$[ebp+2], dl
  00049	8a 50 03	 mov	 dl, BYTE PTR [eax+3]
  0004c	84 d2		 test	 dl, dl
  0004e	0f 84 ec 00 00
	00		 je	 $LN93@LoadFloat_
  00054	80 f2 ea	 xor	 dl, -22			; ffffffeaH
  00057	88 55 ef	 mov	 BYTE PTR __k$[ebp+3], dl
  0005a	8a 50 04	 mov	 dl, BYTE PTR [eax+4]
  0005d	84 d2		 test	 dl, dl
  0005f	0f 84 d5 00 00
	00		 je	 $LN92@LoadFloat_
  00065	80 f2 ed	 xor	 dl, -19			; ffffffedH
  00068	88 55 f0	 mov	 BYTE PTR __k$[ebp+4], dl
  0006b	8a 50 05	 mov	 dl, BYTE PTR [eax+5]
  0006e	84 d2		 test	 dl, dl
  00070	0f 84 be 00 00
	00		 je	 $LN91@LoadFloat_
  00076	80 f2 ec	 xor	 dl, -20			; ffffffecH
  00079	88 55 f1	 mov	 BYTE PTR __k$[ebp+5], dl
  0007c	8a 50 06	 mov	 dl, BYTE PTR [eax+6]
  0007f	84 d2		 test	 dl, dl
  00081	0f 84 a8 00 00
	00		 je	 $LN90@LoadFloat_
  00087	32 d1		 xor	 dl, cl
  00089	88 55 f2	 mov	 BYTE PTR __k$[ebp+6], dl
  0008c	8a 50 07	 mov	 dl, BYTE PTR [eax+7]
  0008f	84 d2		 test	 dl, dl
  00091	0f 84 92 00 00
	00		 je	 $LN89@LoadFloat_
  00097	80 f2 ea	 xor	 dl, -22			; ffffffeaH
  0009a	88 55 f3	 mov	 BYTE PTR __k$[ebp+7], dl
  0009d	8a 50 08	 mov	 dl, BYTE PTR [eax+8]
  000a0	84 d2		 test	 dl, dl
  000a2	74 7f		 je	 SHORT $LN88@LoadFloat_
  000a4	80 f2 ed	 xor	 dl, -19			; ffffffedH
  000a7	88 55 f4	 mov	 BYTE PTR __k$[ebp+8], dl
  000aa	8a 50 09	 mov	 dl, BYTE PTR [eax+9]
  000ad	84 d2		 test	 dl, dl
  000af	74 6c		 je	 SHORT $LN87@LoadFloat_
  000b1	80 f2 ec	 xor	 dl, -20			; ffffffecH
  000b4	88 55 f5	 mov	 BYTE PTR __k$[ebp+9], dl
  000b7	8a 50 0a	 mov	 dl, BYTE PTR [eax+10]
  000ba	84 d2		 test	 dl, dl
  000bc	74 5a		 je	 SHORT $LN86@LoadFloat_
  000be	32 d1		 xor	 dl, cl
  000c0	80 78 0b 00	 cmp	 BYTE PTR [eax+11], 0
  000c4	88 55 f6	 mov	 BYTE PTR __k$[ebp+10], dl
  000c7	0f 84 89 00 00
	00		 je	 $LN1@LoadFloat_
  000cd	8a 50 0c	 mov	 dl, BYTE PTR [eax+12]
  000d0	84 d2		 test	 dl, dl
  000d2	74 3e		 je	 SHORT $LN84@LoadFloat_
  000d4	80 f2 ed	 xor	 dl, -19			; ffffffedH
  000d7	88 55 f8	 mov	 BYTE PTR __k$[ebp+12], dl
  000da	8a 50 0d	 mov	 dl, BYTE PTR [eax+13]
  000dd	84 d2		 test	 dl, dl
  000df	74 2b		 je	 SHORT $LN83@LoadFloat_
  000e1	80 f2 ec	 xor	 dl, -20			; ffffffecH
  000e4	88 55 f9	 mov	 BYTE PTR __k$[ebp+13], dl
  000e7	8a 50 0e	 mov	 dl, BYTE PTR [eax+14]
  000ea	84 d2		 test	 dl, dl
  000ec	74 19		 je	 SHORT $LN82@LoadFloat_
  000ee	8a 40 0f	 mov	 al, BYTE PTR [eax+15]
  000f1	32 d1		 xor	 dl, cl
  000f3	88 55 fa	 mov	 BYTE PTR __k$[ebp+14], dl
  000f6	84 c0		 test	 al, al
  000f8	74 07		 je	 SHORT $LN81@LoadFloat_
  000fa	34 ea		 xor	 al, -22			; ffffffeaH
  000fc	88 45 fb	 mov	 BYTE PTR __k$[ebp+15], al
  000ff	eb 55		 jmp	 SHORT $LN1@LoadFloat_
$LN81@LoadFloat_:
  00101	c6 45 fb ea	 mov	 BYTE PTR __k$[ebp+15], -22 ; ffffffeaH
  00105	eb 4f		 jmp	 SHORT $LN1@LoadFloat_
$LN82@LoadFloat_:
  00107	88 4d fa	 mov	 BYTE PTR __k$[ebp+14], cl
  0010a	eb 4a		 jmp	 SHORT $LN1@LoadFloat_
$LN83@LoadFloat_:
  0010c	c6 45 f9 ec	 mov	 BYTE PTR __k$[ebp+13], -20 ; ffffffecH
  00110	eb 44		 jmp	 SHORT $LN1@LoadFloat_
$LN84@LoadFloat_:
  00112	c6 45 f8 ed	 mov	 BYTE PTR __k$[ebp+12], -19 ; ffffffedH
  00116	eb 3e		 jmp	 SHORT $LN1@LoadFloat_
$LN86@LoadFloat_:
  00118	88 4d f6	 mov	 BYTE PTR __k$[ebp+10], cl
  0011b	eb 39		 jmp	 SHORT $LN1@LoadFloat_
$LN87@LoadFloat_:
  0011d	c6 45 f5 ec	 mov	 BYTE PTR __k$[ebp+9], -20 ; ffffffecH
  00121	eb 33		 jmp	 SHORT $LN1@LoadFloat_
$LN88@LoadFloat_:
  00123	c6 45 f4 ed	 mov	 BYTE PTR __k$[ebp+8], -19 ; ffffffedH
  00127	eb 2d		 jmp	 SHORT $LN1@LoadFloat_
$LN89@LoadFloat_:
  00129	c6 45 f3 ea	 mov	 BYTE PTR __k$[ebp+7], -22 ; ffffffeaH
  0012d	eb 27		 jmp	 SHORT $LN1@LoadFloat_
$LN90@LoadFloat_:
  0012f	88 4d f2	 mov	 BYTE PTR __k$[ebp+6], cl
  00132	eb 22		 jmp	 SHORT $LN1@LoadFloat_
$LN91@LoadFloat_:
  00134	c6 45 f1 ec	 mov	 BYTE PTR __k$[ebp+5], -20 ; ffffffecH
  00138	eb 1c		 jmp	 SHORT $LN1@LoadFloat_
$LN92@LoadFloat_:
  0013a	c6 45 f0 ed	 mov	 BYTE PTR __k$[ebp+4], -19 ; ffffffedH
  0013e	eb 16		 jmp	 SHORT $LN1@LoadFloat_
$LN93@LoadFloat_:
  00140	c6 45 ef ea	 mov	 BYTE PTR __k$[ebp+3], -22 ; ffffffeaH
  00144	eb 10		 jmp	 SHORT $LN1@LoadFloat_
$LN94@LoadFloat_:
  00146	c6 45 ee eb	 mov	 BYTE PTR __k$[ebp+2], -21 ; ffffffebH
  0014a	eb 0a		 jmp	 SHORT $LN1@LoadFloat_
$LN95@LoadFloat_:
  0014c	c6 45 ed ec	 mov	 BYTE PTR __k$[ebp+1], -20 ; ffffffecH
  00150	eb 04		 jmp	 SHORT $LN1@LoadFloat_
$LN96@LoadFloat_:
  00152	c6 45 ec ed	 mov	 BYTE PTR __k$[ebp], -19	; ffffffedH
$LN1@LoadFloat_:
  00156	6a 02		 push	 2
  00158	8d 45 ec	 lea	 eax, DWORD PTR __k$[ebp]
  0015b	c6 45 f7 00	 mov	 BYTE PTR __k$[ebp+11], 0
  0015f	5a		 pop	 edx
$LL104@LoadFloat_:
  00160	81 30 ed ec eb
	ea		 xor	 DWORD PTR [eax], -353637139 ; eaebecedH
  00166	83 c0 04	 add	 eax, 4
  00169	4a		 dec	 edx
  0016a	75 f4		 jne	 SHORT $LL104@LoadFloat_
  0016c	6a 08		 push	 8
  0016e	58		 pop	 eax
$LL101@LoadFloat_:
  0016f	8b c8		 mov	 ecx, eax
  00171	81 e1 03 00 00
	80		 and	 ecx, -2147483645	; 80000003H
  00177	79 05		 jns	 SHORT $LN111@LoadFloat_
  00179	49		 dec	 ecx
  0017a	83 c9 fc	 or	 ecx, -4			; fffffffcH
  0017d	41		 inc	 ecx
$LN111@LoadFloat_:
  0017e	b2 ed		 mov	 dl, -19			; ffffffedH
  00180	2a d1		 sub	 dl, cl
  00182	30 54 05 ec	 xor	 BYTE PTR __k$[ebp+eax], dl
  00186	40		 inc	 eax
  00187	83 f8 0b	 cmp	 eax, 11			; 0000000bH
  0018a	7c e3		 jl	 SHORT $LL101@LoadFloat_

; 137  : 		return LoadFloat(_k, f);

  0018c	f3 0f 10 45 0c	 movss	 xmm0, DWORD PTR _f$[ebp]
  00191	51		 push	 ecx
  00192	8d 45 ec	 lea	 eax, DWORD PTR __k$[ebp]
  00195	f3 0f 11 04 24	 movss	 DWORD PTR [esp], xmm0
  0019a	50		 push	 eax
  0019b	8b ce		 mov	 ecx, esi
  0019d	ff 15 00 00 00
	00		 call	 DWORD PTR __imp_?LoadFloat@ioINILoader@@QAEMPBDM@Z

; 138  : 	}

  001a3	8b 4d fc	 mov	 ecx, DWORD PTR __$ArrayPad$[ebp]
  001a6	33 cd		 xor	 ecx, ebp
  001a8	5e		 pop	 esi
  001a9	e8 00 00 00 00	 call	 @__security_check_cookie@4
  001ae	c9		 leave
  001af	c2 08 00	 ret	 8
??$LoadFloat_e@$0M@@ioINILoader@@QAEMAAY0M@$$CBDM@Z ENDP ; ioINILoader::LoadFloat_e<12>
_TEXT	ENDS
PUBLIC	__$ArrayPad$
PUBLIC	??$LoadFloat_e@$09@ioINILoader@@QAEMAAY09$$CBDM@Z ; ioINILoader::LoadFloat_e<10>
; Function compile flags: /Ogsp
;	COMDAT ??$LoadFloat_e@$09@ioINILoader@@QAEMAAY09$$CBDM@Z
_TEXT	SEGMENT
__k$ = -20						; size = 10
__$ArrayPad$ = -4					; size = 4
_k$ = 8							; size = 4
_f$ = 12						; size = 4
??$LoadFloat_e@$09@ioINILoader@@QAEMAAY09$$CBDM@Z PROC	; ioINILoader::LoadFloat_e<10>, COMDAT
; _this$ = ecx

; 135  : 	{

  00000	55		 push	 ebp
  00001	8b ec		 mov	 ebp, esp
  00003	83 ec 14	 sub	 esp, 20			; 00000014H
  00006	a1 00 00 00 00	 mov	 eax, DWORD PTR ___security_cookie
  0000b	33 c5		 xor	 eax, ebp
  0000d	89 45 fc	 mov	 DWORD PTR __$ArrayPad$[ebp], eax
  00010	8b 45 08	 mov	 eax, DWORD PTR _k$[ebp]

; 136  : 		_ENCSTR(k, _k);

  00013	8a 10		 mov	 dl, BYTE PTR [eax]
  00015	84 d2		 test	 dl, dl
  00017	0f 84 0d 01 00
	00		 je	 $LN96@LoadFloat_@2
  0001d	80 f2 ed	 xor	 dl, -19			; ffffffedH
  00020	88 55 ec	 mov	 BYTE PTR __k$[ebp], dl
  00023	8a 50 01	 mov	 dl, BYTE PTR [eax+1]
  00026	84 d2		 test	 dl, dl
  00028	0f 84 f6 00 00
	00		 je	 $LN95@LoadFloat_@2
  0002e	80 f2 ec	 xor	 dl, -20			; ffffffecH
  00031	88 55 ed	 mov	 BYTE PTR __k$[ebp+1], dl
  00034	8a 50 02	 mov	 dl, BYTE PTR [eax+2]
  00037	84 d2		 test	 dl, dl
  00039	0f 84 df 00 00
	00		 je	 $LN94@LoadFloat_@2
  0003f	80 f2 eb	 xor	 dl, -21			; ffffffebH
  00042	88 55 ee	 mov	 BYTE PTR __k$[ebp+2], dl
  00045	8a 50 03	 mov	 dl, BYTE PTR [eax+3]
  00048	84 d2		 test	 dl, dl
  0004a	0f 84 c8 00 00
	00		 je	 $LN93@LoadFloat_@2
  00050	80 f2 ea	 xor	 dl, -22			; ffffffeaH
  00053	88 55 ef	 mov	 BYTE PTR __k$[ebp+3], dl
  00056	8a 50 04	 mov	 dl, BYTE PTR [eax+4]
  00059	84 d2		 test	 dl, dl
  0005b	0f 84 b1 00 00
	00		 je	 $LN92@LoadFloat_@2
  00061	80 f2 ed	 xor	 dl, -19			; ffffffedH
  00064	88 55 f0	 mov	 BYTE PTR __k$[ebp+4], dl
  00067	8a 50 05	 mov	 dl, BYTE PTR [eax+5]
  0006a	84 d2		 test	 dl, dl
  0006c	0f 84 9a 00 00
	00		 je	 $LN91@LoadFloat_@2
  00072	80 f2 ec	 xor	 dl, -20			; ffffffecH
  00075	88 55 f1	 mov	 BYTE PTR __k$[ebp+5], dl
  00078	8a 50 06	 mov	 dl, BYTE PTR [eax+6]
  0007b	84 d2		 test	 dl, dl
  0007d	0f 84 83 00 00
	00		 je	 $LN90@LoadFloat_@2
  00083	80 f2 eb	 xor	 dl, -21			; ffffffebH
  00086	88 55 f2	 mov	 BYTE PTR __k$[ebp+6], dl
  00089	8a 50 07	 mov	 dl, BYTE PTR [eax+7]
  0008c	84 d2		 test	 dl, dl
  0008e	74 70		 je	 SHORT $LN89@LoadFloat_@2
  00090	80 f2 ea	 xor	 dl, -22			; ffffffeaH
  00093	88 55 f3	 mov	 BYTE PTR __k$[ebp+7], dl
  00096	8a 50 08	 mov	 dl, BYTE PTR [eax+8]
  00099	84 d2		 test	 dl, dl
  0009b	74 5d		 je	 SHORT $LN88@LoadFloat_@2
  0009d	80 f2 ed	 xor	 dl, -19			; ffffffedH
  000a0	80 78 09 00	 cmp	 BYTE PTR [eax+9], 0
  000a4	88 55 f4	 mov	 BYTE PTR __k$[ebp+8], dl
  000a7	0f 84 81 00 00
	00		 je	 $LN1@LoadFloat_@2
  000ad	8a 50 0a	 mov	 dl, BYTE PTR [eax+10]
  000b0	84 d2		 test	 dl, dl
  000b2	74 40		 je	 SHORT $LN86@LoadFloat_@2
  000b4	80 f2 eb	 xor	 dl, -21			; ffffffebH
  000b7	88 55 f6	 mov	 BYTE PTR __k$[ebp+10], dl
  000ba	8a 50 0b	 mov	 dl, BYTE PTR [eax+11]
  000bd	84 d2		 test	 dl, dl
  000bf	74 2d		 je	 SHORT $LN85@LoadFloat_@2
  000c1	80 f2 ea	 xor	 dl, -22			; ffffffeaH
  000c4	88 55 f7	 mov	 BYTE PTR __k$[ebp+11], dl
  000c7	8a 50 0c	 mov	 dl, BYTE PTR [eax+12]
  000ca	84 d2		 test	 dl, dl
  000cc	74 1a		 je	 SHORT $LN84@LoadFloat_@2
  000ce	8a 40 0d	 mov	 al, BYTE PTR [eax+13]
  000d1	80 f2 ed	 xor	 dl, -19			; ffffffedH
  000d4	88 55 f8	 mov	 BYTE PTR __k$[ebp+12], dl
  000d7	84 c0		 test	 al, al
  000d9	74 07		 je	 SHORT $LN83@LoadFloat_@2
  000db	34 ec		 xor	 al, -20			; ffffffecH
  000dd	88 45 f9	 mov	 BYTE PTR __k$[ebp+13], al
  000e0	eb 4c		 jmp	 SHORT $LN1@LoadFloat_@2
$LN83@LoadFloat_@2:
  000e2	c6 45 f9 ec	 mov	 BYTE PTR __k$[ebp+13], -20 ; ffffffecH
  000e6	eb 46		 jmp	 SHORT $LN1@LoadFloat_@2
$LN84@LoadFloat_@2:
  000e8	c6 45 f8 ed	 mov	 BYTE PTR __k$[ebp+12], -19 ; ffffffedH
  000ec	eb 40		 jmp	 SHORT $LN1@LoadFloat_@2
$LN85@LoadFloat_@2:
  000ee	c6 45 f7 ea	 mov	 BYTE PTR __k$[ebp+11], -22 ; ffffffeaH
  000f2	eb 3a		 jmp	 SHORT $LN1@LoadFloat_@2
$LN86@LoadFloat_@2:
  000f4	c6 45 f6 eb	 mov	 BYTE PTR __k$[ebp+10], -21 ; ffffffebH
  000f8	eb 34		 jmp	 SHORT $LN1@LoadFloat_@2
$LN88@LoadFloat_@2:
  000fa	c6 45 f4 ed	 mov	 BYTE PTR __k$[ebp+8], -19 ; ffffffedH
  000fe	eb 2e		 jmp	 SHORT $LN1@LoadFloat_@2
$LN89@LoadFloat_@2:
  00100	c6 45 f3 ea	 mov	 BYTE PTR __k$[ebp+7], -22 ; ffffffeaH
  00104	eb 28		 jmp	 SHORT $LN1@LoadFloat_@2
$LN90@LoadFloat_@2:
  00106	c6 45 f2 eb	 mov	 BYTE PTR __k$[ebp+6], -21 ; ffffffebH
  0010a	eb 22		 jmp	 SHORT $LN1@LoadFloat_@2
$LN91@LoadFloat_@2:
  0010c	c6 45 f1 ec	 mov	 BYTE PTR __k$[ebp+5], -20 ; ffffffecH
  00110	eb 1c		 jmp	 SHORT $LN1@LoadFloat_@2
$LN92@LoadFloat_@2:
  00112	c6 45 f0 ed	 mov	 BYTE PTR __k$[ebp+4], -19 ; ffffffedH
  00116	eb 16		 jmp	 SHORT $LN1@LoadFloat_@2
$LN93@LoadFloat_@2:
  00118	c6 45 ef ea	 mov	 BYTE PTR __k$[ebp+3], -22 ; ffffffeaH
  0011c	eb 10		 jmp	 SHORT $LN1@LoadFloat_@2
$LN94@LoadFloat_@2:
  0011e	c6 45 ee eb	 mov	 BYTE PTR __k$[ebp+2], -21 ; ffffffebH
  00122	eb 0a		 jmp	 SHORT $LN1@LoadFloat_@2
$LN95@LoadFloat_@2:
  00124	c6 45 ed ec	 mov	 BYTE PTR __k$[ebp+1], -20 ; ffffffecH
  00128	eb 04		 jmp	 SHORT $LN1@LoadFloat_@2
$LN96@LoadFloat_@2:
  0012a	c6 45 ec ed	 mov	 BYTE PTR __k$[ebp], -19	; ffffffedH
$LN1@LoadFloat_@2:
  0012e	6a 02		 push	 2
  00130	8d 45 ec	 lea	 eax, DWORD PTR __k$[ebp]
  00133	c6 45 f5 00	 mov	 BYTE PTR __k$[ebp+9], 0
  00137	5a		 pop	 edx
$LL104@LoadFloat_@2:
  00138	81 30 ed ec eb
	ea		 xor	 DWORD PTR [eax], -353637139 ; eaebecedH
  0013e	83 c0 04	 add	 eax, 4
  00141	4a		 dec	 edx
  00142	75 f4		 jne	 SHORT $LL104@LoadFloat_@2

; 137  : 		return LoadFloat(_k, f);

  00144	f3 0f 10 45 0c	 movss	 xmm0, DWORD PTR _f$[ebp]
  00149	80 75 f4 ed	 xor	 BYTE PTR __k$[ebp+8], -19 ; ffffffedH
  0014d	51		 push	 ecx
  0014e	8d 45 ec	 lea	 eax, DWORD PTR __k$[ebp]
  00151	f3 0f 11 04 24	 movss	 DWORD PTR [esp], xmm0
  00156	50		 push	 eax
  00157	ff 15 00 00 00
	00		 call	 DWORD PTR __imp_?LoadFloat@ioINILoader@@QAEMPBDM@Z

; 138  : 	}

  0015d	8b 4d fc	 mov	 ecx, DWORD PTR __$ArrayPad$[ebp]
  00160	33 cd		 xor	 ecx, ebp
  00162	e8 00 00 00 00	 call	 @__security_check_cookie@4
  00167	c9		 leave
  00168	c2 08 00	 ret	 8
??$LoadFloat_e@$09@ioINILoader@@QAEMAAY09$$CBDM@Z ENDP	; ioINILoader::LoadFloat_e<10>
_TEXT	ENDS
PUBLIC	__$ArrayPad$
PUBLIC	??$LoadInt_e@$0BD@@ioINILoader@@QAEHAAY0BD@$$CBDH@Z ; ioINILoader::LoadInt_e<19>
; Function compile flags: /Ogsp
;	COMDAT ??$LoadInt_e@$0BD@@ioINILoader@@QAEHAAY0BD@$$CBDH@Z
_TEXT	SEGMENT
__k$ = -28						; size = 19
__$ArrayPad$ = -4					; size = 4
_k$ = 8							; size = 4
_i$ = 12						; size = 4
??$LoadInt_e@$0BD@@ioINILoader@@QAEHAAY0BD@$$CBDH@Z PROC ; ioINILoader::LoadInt_e<19>, COMDAT
; _this$ = ecx

; 118  : 	{

  00000	55		 push	 ebp
  00001	8b ec		 mov	 ebp, esp
  00003	83 ec 1c	 sub	 esp, 28			; 0000001cH
  00006	a1 00 00 00 00	 mov	 eax, DWORD PTR ___security_cookie
  0000b	33 c5		 xor	 eax, ebp
  0000d	89 45 fc	 mov	 DWORD PTR __$ArrayPad$[ebp], eax
  00010	8b 45 08	 mov	 eax, DWORD PTR _k$[ebp]

; 119  : 		_ENCSTR(k, _k);

  00013	8a 10		 mov	 dl, BYTE PTR [eax]
  00015	56		 push	 esi
  00016	8b f1		 mov	 esi, ecx
  00018	84 d2		 test	 dl, dl
  0001a	0f 84 cf 01 00
	00		 je	 $LN96@LoadInt_e@2
  00020	80 f2 ed	 xor	 dl, -19			; ffffffedH
  00023	88 55 e4	 mov	 BYTE PTR __k$[ebp], dl
  00026	8a 50 01	 mov	 dl, BYTE PTR [eax+1]
  00029	84 d2		 test	 dl, dl
  0002b	0f 84 b8 01 00
	00		 je	 $LN95@LoadInt_e@2
  00031	b1 ec		 mov	 cl, -20			; ffffffecH
  00033	32 d1		 xor	 dl, cl
  00035	88 55 e5	 mov	 BYTE PTR __k$[ebp+1], dl
  00038	8a 50 02	 mov	 dl, BYTE PTR [eax+2]
  0003b	84 d2		 test	 dl, dl
  0003d	0f 84 a0 01 00
	00		 je	 $LN94@LoadInt_e@2
  00043	80 f2 eb	 xor	 dl, -21			; ffffffebH
  00046	88 55 e6	 mov	 BYTE PTR __k$[ebp+2], dl
  00049	8a 50 03	 mov	 dl, BYTE PTR [eax+3]
  0004c	84 d2		 test	 dl, dl
  0004e	0f 84 89 01 00
	00		 je	 $LN93@LoadInt_e@2
  00054	80 f2 ea	 xor	 dl, -22			; ffffffeaH
  00057	88 55 e7	 mov	 BYTE PTR __k$[ebp+3], dl
  0005a	8a 50 04	 mov	 dl, BYTE PTR [eax+4]
  0005d	84 d2		 test	 dl, dl
  0005f	0f 84 72 01 00
	00		 je	 $LN92@LoadInt_e@2
  00065	80 f2 ed	 xor	 dl, -19			; ffffffedH
  00068	88 55 e8	 mov	 BYTE PTR __k$[ebp+4], dl
  0006b	8a 50 05	 mov	 dl, BYTE PTR [eax+5]
  0006e	84 d2		 test	 dl, dl
  00070	0f 84 5c 01 00
	00		 je	 $LN91@LoadInt_e@2
  00076	32 d1		 xor	 dl, cl
  00078	88 55 e9	 mov	 BYTE PTR __k$[ebp+5], dl
  0007b	8a 50 06	 mov	 dl, BYTE PTR [eax+6]
  0007e	84 d2		 test	 dl, dl
  00080	0f 84 46 01 00
	00		 je	 $LN90@LoadInt_e@2
  00086	80 f2 eb	 xor	 dl, -21			; ffffffebH
  00089	88 55 ea	 mov	 BYTE PTR __k$[ebp+6], dl
  0008c	8a 50 07	 mov	 dl, BYTE PTR [eax+7]
  0008f	84 d2		 test	 dl, dl
  00091	0f 84 2f 01 00
	00		 je	 $LN89@LoadInt_e@2
  00097	80 f2 ea	 xor	 dl, -22			; ffffffeaH
  0009a	88 55 eb	 mov	 BYTE PTR __k$[ebp+7], dl
  0009d	8a 50 08	 mov	 dl, BYTE PTR [eax+8]
  000a0	84 d2		 test	 dl, dl
  000a2	0f 84 18 01 00
	00		 je	 $LN88@LoadInt_e@2
  000a8	80 f2 ed	 xor	 dl, -19			; ffffffedH
  000ab	88 55 ec	 mov	 BYTE PTR __k$[ebp+8], dl
  000ae	8a 50 09	 mov	 dl, BYTE PTR [eax+9]
  000b1	84 d2		 test	 dl, dl
  000b3	0f 84 02 01 00
	00		 je	 $LN87@LoadInt_e@2
  000b9	32 d1		 xor	 dl, cl
  000bb	88 55 ed	 mov	 BYTE PTR __k$[ebp+9], dl
  000be	8a 50 0a	 mov	 dl, BYTE PTR [eax+10]
  000c1	84 d2		 test	 dl, dl
  000c3	0f 84 ec 00 00
	00		 je	 $LN86@LoadInt_e@2
  000c9	80 f2 eb	 xor	 dl, -21			; ffffffebH
  000cc	88 55 ee	 mov	 BYTE PTR __k$[ebp+10], dl
  000cf	8a 50 0b	 mov	 dl, BYTE PTR [eax+11]
  000d2	84 d2		 test	 dl, dl
  000d4	0f 84 d5 00 00
	00		 je	 $LN85@LoadInt_e@2
  000da	80 f2 ea	 xor	 dl, -22			; ffffffeaH
  000dd	88 55 ef	 mov	 BYTE PTR __k$[ebp+11], dl
  000e0	8a 50 0c	 mov	 dl, BYTE PTR [eax+12]
  000e3	84 d2		 test	 dl, dl
  000e5	0f 84 be 00 00
	00		 je	 $LN84@LoadInt_e@2
  000eb	80 f2 ed	 xor	 dl, -19			; ffffffedH
  000ee	88 55 f0	 mov	 BYTE PTR __k$[ebp+12], dl
  000f1	8a 50 0d	 mov	 dl, BYTE PTR [eax+13]
  000f4	84 d2		 test	 dl, dl
  000f6	0f 84 a8 00 00
	00		 je	 $LN83@LoadInt_e@2
  000fc	32 d1		 xor	 dl, cl
  000fe	88 55 f1	 mov	 BYTE PTR __k$[ebp+13], dl
  00101	8a 50 0e	 mov	 dl, BYTE PTR [eax+14]
  00104	84 d2		 test	 dl, dl
  00106	0f 84 92 00 00
	00		 je	 $LN82@LoadInt_e@2
  0010c	80 f2 eb	 xor	 dl, -21			; ffffffebH
  0010f	88 55 f2	 mov	 BYTE PTR __k$[ebp+14], dl
  00112	8a 50 0f	 mov	 dl, BYTE PTR [eax+15]
  00115	84 d2		 test	 dl, dl
  00117	74 7f		 je	 SHORT $LN81@LoadInt_e@2
  00119	80 f2 ea	 xor	 dl, -22			; ffffffeaH
  0011c	88 55 f3	 mov	 BYTE PTR __k$[ebp+15], dl
  0011f	8a 50 10	 mov	 dl, BYTE PTR [eax+16]
  00122	84 d2		 test	 dl, dl
  00124	74 6c		 je	 SHORT $LN80@LoadInt_e@2
  00126	80 f2 ed	 xor	 dl, -19			; ffffffedH
  00129	88 55 f4	 mov	 BYTE PTR __k$[ebp+16], dl
  0012c	8a 50 11	 mov	 dl, BYTE PTR [eax+17]
  0012f	84 d2		 test	 dl, dl
  00131	74 5a		 je	 SHORT $LN79@LoadInt_e@2
  00133	32 d1		 xor	 dl, cl
  00135	80 78 12 00	 cmp	 BYTE PTR [eax+18], 0
  00139	88 55 f5	 mov	 BYTE PTR __k$[ebp+17], dl
  0013c	0f 84 b1 00 00
	00		 je	 $LN1@LoadInt_e@2
  00142	8a 50 13	 mov	 dl, BYTE PTR [eax+19]
  00145	84 d2		 test	 dl, dl
  00147	74 3e		 je	 SHORT $LN77@LoadInt_e@2
  00149	80 f2 ea	 xor	 dl, -22			; ffffffeaH
  0014c	88 55 f7	 mov	 BYTE PTR __k$[ebp+19], dl
  0014f	8a 50 14	 mov	 dl, BYTE PTR [eax+20]
  00152	84 d2		 test	 dl, dl
  00154	74 2b		 je	 SHORT $LN76@LoadInt_e@2
  00156	80 f2 ed	 xor	 dl, -19			; ffffffedH
  00159	88 55 f8	 mov	 BYTE PTR __k$[ebp+20], dl
  0015c	8a 50 15	 mov	 dl, BYTE PTR [eax+21]
  0015f	84 d2		 test	 dl, dl
  00161	74 19		 je	 SHORT $LN75@LoadInt_e@2
  00163	8a 40 16	 mov	 al, BYTE PTR [eax+22]
  00166	32 d1		 xor	 dl, cl
  00168	88 55 f9	 mov	 BYTE PTR __k$[ebp+21], dl
  0016b	84 c0		 test	 al, al
  0016d	74 07		 je	 SHORT $LN74@LoadInt_e@2
  0016f	34 eb		 xor	 al, -21			; ffffffebH
  00171	88 45 fa	 mov	 BYTE PTR __k$[ebp+22], al
  00174	eb 7d		 jmp	 SHORT $LN1@LoadInt_e@2
$LN74@LoadInt_e@2:
  00176	c6 45 fa eb	 mov	 BYTE PTR __k$[ebp+22], -21 ; ffffffebH
  0017a	eb 77		 jmp	 SHORT $LN1@LoadInt_e@2
$LN75@LoadInt_e@2:
  0017c	88 4d f9	 mov	 BYTE PTR __k$[ebp+21], cl
  0017f	eb 72		 jmp	 SHORT $LN1@LoadInt_e@2
$LN76@LoadInt_e@2:
  00181	c6 45 f8 ed	 mov	 BYTE PTR __k$[ebp+20], -19 ; ffffffedH
  00185	eb 6c		 jmp	 SHORT $LN1@LoadInt_e@2
$LN77@LoadInt_e@2:
  00187	c6 45 f7 ea	 mov	 BYTE PTR __k$[ebp+19], -22 ; ffffffeaH
  0018b	eb 66		 jmp	 SHORT $LN1@LoadInt_e@2
$LN79@LoadInt_e@2:
  0018d	88 4d f5	 mov	 BYTE PTR __k$[ebp+17], cl
  00190	eb 61		 jmp	 SHORT $LN1@LoadInt_e@2
$LN80@LoadInt_e@2:
  00192	c6 45 f4 ed	 mov	 BYTE PTR __k$[ebp+16], -19 ; ffffffedH
  00196	eb 5b		 jmp	 SHORT $LN1@LoadInt_e@2
$LN81@LoadInt_e@2:
  00198	c6 45 f3 ea	 mov	 BYTE PTR __k$[ebp+15], -22 ; ffffffeaH
  0019c	eb 55		 jmp	 SHORT $LN1@LoadInt_e@2
$LN82@LoadInt_e@2:
  0019e	c6 45 f2 eb	 mov	 BYTE PTR __k$[ebp+14], -21 ; ffffffebH
  001a2	eb 4f		 jmp	 SHORT $LN1@LoadInt_e@2
$LN83@LoadInt_e@2:
  001a4	88 4d f1	 mov	 BYTE PTR __k$[ebp+13], cl
  001a7	eb 4a		 jmp	 SHORT $LN1@LoadInt_e@2
$LN84@LoadInt_e@2:
  001a9	c6 45 f0 ed	 mov	 BYTE PTR __k$[ebp+12], -19 ; ffffffedH
  001ad	eb 44		 jmp	 SHORT $LN1@LoadInt_e@2
$LN85@LoadInt_e@2:
  001af	c6 45 ef ea	 mov	 BYTE PTR __k$[ebp+11], -22 ; ffffffeaH
  001b3	eb 3e		 jmp	 SHORT $LN1@LoadInt_e@2
$LN86@LoadInt_e@2:
  001b5	c6 45 ee eb	 mov	 BYTE PTR __k$[ebp+10], -21 ; ffffffebH
  001b9	eb 38		 jmp	 SHORT $LN1@LoadInt_e@2
$LN87@LoadInt_e@2:
  001bb	88 4d ed	 mov	 BYTE PTR __k$[ebp+9], cl
  001be	eb 33		 jmp	 SHORT $LN1@LoadInt_e@2
$LN88@LoadInt_e@2:
  001c0	c6 45 ec ed	 mov	 BYTE PTR __k$[ebp+8], -19 ; ffffffedH
  001c4	eb 2d		 jmp	 SHORT $LN1@LoadInt_e@2
$LN89@LoadInt_e@2:
  001c6	c6 45 eb ea	 mov	 BYTE PTR __k$[ebp+7], -22 ; ffffffeaH
  001ca	eb 27		 jmp	 SHORT $LN1@LoadInt_e@2
$LN90@LoadInt_e@2:
  001cc	c6 45 ea eb	 mov	 BYTE PTR __k$[ebp+6], -21 ; ffffffebH
  001d0	eb 21		 jmp	 SHORT $LN1@LoadInt_e@2
$LN91@LoadInt_e@2:
  001d2	88 4d e9	 mov	 BYTE PTR __k$[ebp+5], cl
  001d5	eb 1c		 jmp	 SHORT $LN1@LoadInt_e@2
$LN92@LoadInt_e@2:
  001d7	c6 45 e8 ed	 mov	 BYTE PTR __k$[ebp+4], -19 ; ffffffedH
  001db	eb 16		 jmp	 SHORT $LN1@LoadInt_e@2
$LN93@LoadInt_e@2:
  001dd	c6 45 e7 ea	 mov	 BYTE PTR __k$[ebp+3], -22 ; ffffffeaH
  001e1	eb 10		 jmp	 SHORT $LN1@LoadInt_e@2
$LN94@LoadInt_e@2:
  001e3	c6 45 e6 eb	 mov	 BYTE PTR __k$[ebp+2], -21 ; ffffffebH
  001e7	eb 0a		 jmp	 SHORT $LN1@LoadInt_e@2
$LN95@LoadInt_e@2:
  001e9	c6 45 e5 ec	 mov	 BYTE PTR __k$[ebp+1], -20 ; ffffffecH
  001ed	eb 04		 jmp	 SHORT $LN1@LoadInt_e@2
$LN96@LoadInt_e@2:
  001ef	c6 45 e4 ed	 mov	 BYTE PTR __k$[ebp], -19	; ffffffedH
$LN1@LoadInt_e@2:
  001f3	6a 04		 push	 4
  001f5	8d 45 e4	 lea	 eax, DWORD PTR __k$[ebp]
  001f8	c6 45 f6 00	 mov	 BYTE PTR __k$[ebp+18], 0
  001fc	5a		 pop	 edx
$LL104@LoadInt_e@2:
  001fd	81 30 ed ec eb
	ea		 xor	 DWORD PTR [eax], -353637139 ; eaebecedH
  00203	83 c0 04	 add	 eax, 4
  00206	4a		 dec	 edx
  00207	75 f4		 jne	 SHORT $LL104@LoadInt_e@2
  00209	6a 10		 push	 16			; 00000010H
  0020b	58		 pop	 eax
$LL101@LoadInt_e@2:
  0020c	8b c8		 mov	 ecx, eax
  0020e	81 e1 03 00 00
	80		 and	 ecx, -2147483645	; 80000003H
  00214	79 05		 jns	 SHORT $LN111@LoadInt_e@2
  00216	49		 dec	 ecx
  00217	83 c9 fc	 or	 ecx, -4			; fffffffcH
  0021a	41		 inc	 ecx
$LN111@LoadInt_e@2:
  0021b	b2 ed		 mov	 dl, -19			; ffffffedH
  0021d	2a d1		 sub	 dl, cl
  0021f	30 54 05 e4	 xor	 BYTE PTR __k$[ebp+eax], dl
  00223	40		 inc	 eax
  00224	83 f8 12	 cmp	 eax, 18			; 00000012H
  00227	7c e3		 jl	 SHORT $LL101@LoadInt_e@2

; 120  : 		return LoadInt(_k, i);

  00229	ff 75 0c	 push	 DWORD PTR _i$[ebp]
  0022c	8d 45 e4	 lea	 eax, DWORD PTR __k$[ebp]
  0022f	50		 push	 eax
  00230	8b ce		 mov	 ecx, esi
  00232	ff 15 00 00 00
	00		 call	 DWORD PTR __imp_?LoadInt@ioINILoader@@QAEHPBDH@Z

; 121  : 	}

  00238	8b 4d fc	 mov	 ecx, DWORD PTR __$ArrayPad$[ebp]
  0023b	33 cd		 xor	 ecx, ebp
  0023d	5e		 pop	 esi
  0023e	e8 00 00 00 00	 call	 @__security_check_cookie@4
  00243	c9		 leave
  00244	c2 08 00	 ret	 8
??$LoadInt_e@$0BD@@ioINILoader@@QAEHAAY0BD@$$CBDH@Z ENDP ; ioINILoader::LoadInt_e<19>
_TEXT	ENDS
PUBLIC	__$ArrayPad$
PUBLIC	??$LoadFloat_e@$0BC@@ioINILoader@@QAEMAAY0BC@$$CBDM@Z ; ioINILoader::LoadFloat_e<18>
; Function compile flags: /Ogsp
;	COMDAT ??$LoadFloat_e@$0BC@@ioINILoader@@QAEMAAY0BC@$$CBDM@Z
_TEXT	SEGMENT
__k$ = -28						; size = 18
__$ArrayPad$ = -4					; size = 4
_k$ = 8							; size = 4
_f$ = 12						; size = 4
??$LoadFloat_e@$0BC@@ioINILoader@@QAEMAAY0BC@$$CBDM@Z PROC ; ioINILoader::LoadFloat_e<18>, COMDAT
; _this$ = ecx

; 135  : 	{

  00000	55		 push	 ebp
  00001	8b ec		 mov	 ebp, esp
  00003	83 ec 1c	 sub	 esp, 28			; 0000001cH
  00006	a1 00 00 00 00	 mov	 eax, DWORD PTR ___security_cookie
  0000b	33 c5		 xor	 eax, ebp
  0000d	89 45 fc	 mov	 DWORD PTR __$ArrayPad$[ebp], eax
  00010	8b 45 08	 mov	 eax, DWORD PTR _k$[ebp]

; 136  : 		_ENCSTR(k, _k);

  00013	8a 10		 mov	 dl, BYTE PTR [eax]
  00015	56		 push	 esi
  00016	8b f1		 mov	 esi, ecx
  00018	84 d2		 test	 dl, dl
  0001a	0f 84 be 01 00
	00		 je	 $LN96@LoadFloat_@3
  00020	80 f2 ed	 xor	 dl, -19			; ffffffedH
  00023	88 55 e4	 mov	 BYTE PTR __k$[ebp], dl
  00026	8a 50 01	 mov	 dl, BYTE PTR [eax+1]
  00029	84 d2		 test	 dl, dl
  0002b	0f 84 a7 01 00
	00		 je	 $LN95@LoadFloat_@3
  00031	80 f2 ec	 xor	 dl, -20			; ffffffecH
  00034	88 55 e5	 mov	 BYTE PTR __k$[ebp+1], dl
  00037	8a 50 02	 mov	 dl, BYTE PTR [eax+2]
  0003a	84 d2		 test	 dl, dl
  0003c	0f 84 90 01 00
	00		 je	 $LN94@LoadFloat_@3
  00042	b1 eb		 mov	 cl, -21			; ffffffebH
  00044	32 d1		 xor	 dl, cl
  00046	88 55 e6	 mov	 BYTE PTR __k$[ebp+2], dl
  00049	8a 50 03	 mov	 dl, BYTE PTR [eax+3]
  0004c	84 d2		 test	 dl, dl
  0004e	0f 84 78 01 00
	00		 je	 $LN93@LoadFloat_@3
  00054	80 f2 ea	 xor	 dl, -22			; ffffffeaH
  00057	88 55 e7	 mov	 BYTE PTR __k$[ebp+3], dl
  0005a	8a 50 04	 mov	 dl, BYTE PTR [eax+4]
  0005d	84 d2		 test	 dl, dl
  0005f	0f 84 61 01 00
	00		 je	 $LN92@LoadFloat_@3
  00065	80 f2 ed	 xor	 dl, -19			; ffffffedH
  00068	88 55 e8	 mov	 BYTE PTR __k$[ebp+4], dl
  0006b	8a 50 05	 mov	 dl, BYTE PTR [eax+5]
  0006e	84 d2		 test	 dl, dl
  00070	0f 84 4a 01 00
	00		 je	 $LN91@LoadFloat_@3
  00076	80 f2 ec	 xor	 dl, -20			; ffffffecH
  00079	88 55 e9	 mov	 BYTE PTR __k$[ebp+5], dl
  0007c	8a 50 06	 mov	 dl, BYTE PTR [eax+6]
  0007f	84 d2		 test	 dl, dl
  00081	0f 84 34 01 00
	00		 je	 $LN90@LoadFloat_@3
  00087	32 d1		 xor	 dl, cl
  00089	88 55 ea	 mov	 BYTE PTR __k$[ebp+6], dl
  0008c	8a 50 07	 mov	 dl, BYTE PTR [eax+7]
  0008f	84 d2		 test	 dl, dl
  00091	0f 84 1e 01 00
	00		 je	 $LN89@LoadFloat_@3
  00097	80 f2 ea	 xor	 dl, -22			; ffffffeaH
  0009a	88 55 eb	 mov	 BYTE PTR __k$[ebp+7], dl
  0009d	8a 50 08	 mov	 dl, BYTE PTR [eax+8]
  000a0	84 d2		 test	 dl, dl
  000a2	0f 84 07 01 00
	00		 je	 $LN88@LoadFloat_@3
  000a8	80 f2 ed	 xor	 dl, -19			; ffffffedH
  000ab	88 55 ec	 mov	 BYTE PTR __k$[ebp+8], dl
  000ae	8a 50 09	 mov	 dl, BYTE PTR [eax+9]
  000b1	84 d2		 test	 dl, dl
  000b3	0f 84 f0 00 00
	00		 je	 $LN87@LoadFloat_@3
  000b9	80 f2 ec	 xor	 dl, -20			; ffffffecH
  000bc	88 55 ed	 mov	 BYTE PTR __k$[ebp+9], dl
  000bf	8a 50 0a	 mov	 dl, BYTE PTR [eax+10]
  000c2	84 d2		 test	 dl, dl
  000c4	0f 84 da 00 00
	00		 je	 $LN86@LoadFloat_@3
  000ca	32 d1		 xor	 dl, cl
  000cc	88 55 ee	 mov	 BYTE PTR __k$[ebp+10], dl
  000cf	8a 50 0b	 mov	 dl, BYTE PTR [eax+11]
  000d2	84 d2		 test	 dl, dl
  000d4	0f 84 c4 00 00
	00		 je	 $LN85@LoadFloat_@3
  000da	80 f2 ea	 xor	 dl, -22			; ffffffeaH
  000dd	88 55 ef	 mov	 BYTE PTR __k$[ebp+11], dl
  000e0	8a 50 0c	 mov	 dl, BYTE PTR [eax+12]
  000e3	84 d2		 test	 dl, dl
  000e5	0f 84 ad 00 00
	00		 je	 $LN84@LoadFloat_@3
  000eb	80 f2 ed	 xor	 dl, -19			; ffffffedH
  000ee	88 55 f0	 mov	 BYTE PTR __k$[ebp+12], dl
  000f1	8a 50 0d	 mov	 dl, BYTE PTR [eax+13]
  000f4	84 d2		 test	 dl, dl
  000f6	0f 84 96 00 00
	00		 je	 $LN83@LoadFloat_@3
  000fc	80 f2 ec	 xor	 dl, -20			; ffffffecH
  000ff	88 55 f1	 mov	 BYTE PTR __k$[ebp+13], dl
  00102	8a 50 0e	 mov	 dl, BYTE PTR [eax+14]
  00105	84 d2		 test	 dl, dl
  00107	0f 84 80 00 00
	00		 je	 $LN82@LoadFloat_@3
  0010d	32 d1		 xor	 dl, cl
  0010f	88 55 f2	 mov	 BYTE PTR __k$[ebp+14], dl
  00112	8a 50 0f	 mov	 dl, BYTE PTR [eax+15]
  00115	84 d2		 test	 dl, dl
  00117	74 6e		 je	 SHORT $LN81@LoadFloat_@3
  00119	80 f2 ea	 xor	 dl, -22			; ffffffeaH
  0011c	88 55 f3	 mov	 BYTE PTR __k$[ebp+15], dl
  0011f	8a 50 10	 mov	 dl, BYTE PTR [eax+16]
  00122	84 d2		 test	 dl, dl
  00124	74 5b		 je	 SHORT $LN80@LoadFloat_@3
  00126	80 f2 ed	 xor	 dl, -19			; ffffffedH
  00129	80 78 11 00	 cmp	 BYTE PTR [eax+17], 0
  0012d	88 55 f4	 mov	 BYTE PTR __k$[ebp+16], dl
  00130	0f 84 ac 00 00
	00		 je	 $LN1@LoadFloat_@3
  00136	8a 50 12	 mov	 dl, BYTE PTR [eax+18]
  00139	84 d2		 test	 dl, dl
  0013b	74 3f		 je	 SHORT $LN78@LoadFloat_@3
  0013d	32 d1		 xor	 dl, cl
  0013f	88 55 f6	 mov	 BYTE PTR __k$[ebp+18], dl
  00142	8a 50 13	 mov	 dl, BYTE PTR [eax+19]
  00145	84 d2		 test	 dl, dl
  00147	74 2d		 je	 SHORT $LN77@LoadFloat_@3
  00149	80 f2 ea	 xor	 dl, -22			; ffffffeaH
  0014c	88 55 f7	 mov	 BYTE PTR __k$[ebp+19], dl
  0014f	8a 50 14	 mov	 dl, BYTE PTR [eax+20]
  00152	84 d2		 test	 dl, dl
  00154	74 1a		 je	 SHORT $LN76@LoadFloat_@3
  00156	8a 40 15	 mov	 al, BYTE PTR [eax+21]
  00159	80 f2 ed	 xor	 dl, -19			; ffffffedH
  0015c	88 55 f8	 mov	 BYTE PTR __k$[ebp+20], dl
  0015f	84 c0		 test	 al, al
  00161	74 07		 je	 SHORT $LN75@LoadFloat_@3
  00163	34 ec		 xor	 al, -20			; ffffffecH
  00165	88 45 f9	 mov	 BYTE PTR __k$[ebp+21], al
  00168	eb 78		 jmp	 SHORT $LN1@LoadFloat_@3
$LN75@LoadFloat_@3:
  0016a	c6 45 f9 ec	 mov	 BYTE PTR __k$[ebp+21], -20 ; ffffffecH
  0016e	eb 72		 jmp	 SHORT $LN1@LoadFloat_@3
$LN76@LoadFloat_@3:
  00170	c6 45 f8 ed	 mov	 BYTE PTR __k$[ebp+20], -19 ; ffffffedH
  00174	eb 6c		 jmp	 SHORT $LN1@LoadFloat_@3
$LN77@LoadFloat_@3:
  00176	c6 45 f7 ea	 mov	 BYTE PTR __k$[ebp+19], -22 ; ffffffeaH
  0017a	eb 66		 jmp	 SHORT $LN1@LoadFloat_@3
$LN78@LoadFloat_@3:
  0017c	88 4d f6	 mov	 BYTE PTR __k$[ebp+18], cl
  0017f	eb 61		 jmp	 SHORT $LN1@LoadFloat_@3
$LN80@LoadFloat_@3:
  00181	c6 45 f4 ed	 mov	 BYTE PTR __k$[ebp+16], -19 ; ffffffedH
  00185	eb 5b		 jmp	 SHORT $LN1@LoadFloat_@3
$LN81@LoadFloat_@3:
  00187	c6 45 f3 ea	 mov	 BYTE PTR __k$[ebp+15], -22 ; ffffffeaH
  0018b	eb 55		 jmp	 SHORT $LN1@LoadFloat_@3
$LN82@LoadFloat_@3:
  0018d	88 4d f2	 mov	 BYTE PTR __k$[ebp+14], cl
  00190	eb 50		 jmp	 SHORT $LN1@LoadFloat_@3
$LN83@LoadFloat_@3:
  00192	c6 45 f1 ec	 mov	 BYTE PTR __k$[ebp+13], -20 ; ffffffecH
  00196	eb 4a		 jmp	 SHORT $LN1@LoadFloat_@3
$LN84@LoadFloat_@3:
  00198	c6 45 f0 ed	 mov	 BYTE PTR __k$[ebp+12], -19 ; ffffffedH
  0019c	eb 44		 jmp	 SHORT $LN1@LoadFloat_@3
$LN85@LoadFloat_@3:
  0019e	c6 45 ef ea	 mov	 BYTE PTR __k$[ebp+11], -22 ; ffffffeaH
  001a2	eb 3e		 jmp	 SHORT $LN1@LoadFloat_@3
$LN86@LoadFloat_@3:
  001a4	88 4d ee	 mov	 BYTE PTR __k$[ebp+10], cl
  001a7	eb 39		 jmp	 SHORT $LN1@LoadFloat_@3
$LN87@LoadFloat_@3:
  001a9	c6 45 ed ec	 mov	 BYTE PTR __k$[ebp+9], -20 ; ffffffecH
  001ad	eb 33		 jmp	 SHORT $LN1@LoadFloat_@3
$LN88@LoadFloat_@3:
  001af	c6 45 ec ed	 mov	 BYTE PTR __k$[ebp+8], -19 ; ffffffedH
  001b3	eb 2d		 jmp	 SHORT $LN1@LoadFloat_@3
$LN89@LoadFloat_@3:
  001b5	c6 45 eb ea	 mov	 BYTE PTR __k$[ebp+7], -22 ; ffffffeaH
  001b9	eb 27		 jmp	 SHORT $LN1@LoadFloat_@3
$LN90@LoadFloat_@3:
  001bb	88 4d ea	 mov	 BYTE PTR __k$[ebp+6], cl
  001be	eb 22		 jmp	 SHORT $LN1@LoadFloat_@3
$LN91@LoadFloat_@3:
  001c0	c6 45 e9 ec	 mov	 BYTE PTR __k$[ebp+5], -20 ; ffffffecH
  001c4	eb 1c		 jmp	 SHORT $LN1@LoadFloat_@3
$LN92@LoadFloat_@3:
  001c6	c6 45 e8 ed	 mov	 BYTE PTR __k$[ebp+4], -19 ; ffffffedH
  001ca	eb 16		 jmp	 SHORT $LN1@LoadFloat_@3
$LN93@LoadFloat_@3:
  001cc	c6 45 e7 ea	 mov	 BYTE PTR __k$[ebp+3], -22 ; ffffffeaH
  001d0	eb 10		 jmp	 SHORT $LN1@LoadFloat_@3
$LN94@LoadFloat_@3:
  001d2	c6 45 e6 eb	 mov	 BYTE PTR __k$[ebp+2], -21 ; ffffffebH
  001d6	eb 0a		 jmp	 SHORT $LN1@LoadFloat_@3
$LN95@LoadFloat_@3:
  001d8	c6 45 e5 ec	 mov	 BYTE PTR __k$[ebp+1], -20 ; ffffffecH
  001dc	eb 04		 jmp	 SHORT $LN1@LoadFloat_@3
$LN96@LoadFloat_@3:
  001de	c6 45 e4 ed	 mov	 BYTE PTR __k$[ebp], -19	; ffffffedH
$LN1@LoadFloat_@3:
  001e2	6a 04		 push	 4
  001e4	8d 45 e4	 lea	 eax, DWORD PTR __k$[ebp]
  001e7	c6 45 f5 00	 mov	 BYTE PTR __k$[ebp+17], 0
  001eb	5a		 pop	 edx
$LL104@LoadFloat_@3:
  001ec	81 30 ed ec eb
	ea		 xor	 DWORD PTR [eax], -353637139 ; eaebecedH
  001f2	83 c0 04	 add	 eax, 4
  001f5	4a		 dec	 edx
  001f6	75 f4		 jne	 SHORT $LL104@LoadFloat_@3

; 137  : 		return LoadFloat(_k, f);

  001f8	f3 0f 10 45 0c	 movss	 xmm0, DWORD PTR _f$[ebp]
  001fd	80 75 f4 ed	 xor	 BYTE PTR __k$[ebp+16], -19 ; ffffffedH
  00201	51		 push	 ecx
  00202	8d 45 e4	 lea	 eax, DWORD PTR __k$[ebp]
  00205	f3 0f 11 04 24	 movss	 DWORD PTR [esp], xmm0
  0020a	50		 push	 eax
  0020b	8b ce		 mov	 ecx, esi
  0020d	ff 15 00 00 00
	00		 call	 DWORD PTR __imp_?LoadFloat@ioINILoader@@QAEMPBDM@Z

; 138  : 	}

  00213	8b 4d fc	 mov	 ecx, DWORD PTR __$ArrayPad$[ebp]
  00216	33 cd		 xor	 ecx, ebp
  00218	5e		 pop	 esi
  00219	e8 00 00 00 00	 call	 @__security_check_cookie@4
  0021e	c9		 leave
  0021f	c2 08 00	 ret	 8
??$LoadFloat_e@$0BC@@ioINILoader@@QAEMAAY0BC@$$CBDM@Z ENDP ; ioINILoader::LoadFloat_e<18>
_TEXT	ENDS
PUBLIC	__$ArrayPad$
PUBLIC	??$LoadInt_e@$0BK@@ioINILoader@@QAEHAAY0BK@$$CBDH@Z ; ioINILoader::LoadInt_e<26>
; Function compile flags: /Ogsp
;	COMDAT ??$LoadInt_e@$0BK@@ioINILoader@@QAEHAAY0BK@$$CBDH@Z
_TEXT	SEGMENT
__k$ = -36						; size = 26
__$ArrayPad$ = -4					; size = 4
_k$ = 8							; size = 4
_i$ = 12						; size = 4
??$LoadInt_e@$0BK@@ioINILoader@@QAEHAAY0BK@$$CBDH@Z PROC ; ioINILoader::LoadInt_e<26>, COMDAT
; _this$ = ecx

; 118  : 	{

  00000	55		 push	 ebp
  00001	8b ec		 mov	 ebp, esp
  00003	83 ec 24	 sub	 esp, 36			; 00000024H
  00006	a1 00 00 00 00	 mov	 eax, DWORD PTR ___security_cookie
  0000b	33 c5		 xor	 eax, ebp
  0000d	89 45 fc	 mov	 DWORD PTR __$ArrayPad$[ebp], eax
  00010	8b 45 08	 mov	 eax, DWORD PTR _k$[ebp]

; 119  : 		_ENCSTR(k, _k);

  00013	8a 10		 mov	 dl, BYTE PTR [eax]
  00015	53		 push	 ebx
  00016	56		 push	 esi
  00017	8b f1		 mov	 esi, ecx
  00019	84 d2		 test	 dl, dl
  0001b	0f 84 79 02 00
	00		 je	 $LN96@LoadInt_e@3
  00021	80 f2 ed	 xor	 dl, -19			; ffffffedH
  00024	88 55 dc	 mov	 BYTE PTR __k$[ebp], dl
  00027	8a 50 01	 mov	 dl, BYTE PTR [eax+1]
  0002a	84 d2		 test	 dl, dl
  0002c	0f 84 62 02 00
	00		 je	 $LN95@LoadInt_e@3
  00032	80 f2 ec	 xor	 dl, -20			; ffffffecH
  00035	88 55 dd	 mov	 BYTE PTR __k$[ebp+1], dl
  00038	8a 50 02	 mov	 dl, BYTE PTR [eax+2]
  0003b	84 d2		 test	 dl, dl
  0003d	0f 84 4b 02 00
	00		 je	 $LN94@LoadInt_e@3
  00043	b1 eb		 mov	 cl, -21			; ffffffebH
  00045	32 d1		 xor	 dl, cl
  00047	88 55 de	 mov	 BYTE PTR __k$[ebp+2], dl
  0004a	8a 50 03	 mov	 dl, BYTE PTR [eax+3]
  0004d	84 d2		 test	 dl, dl
  0004f	0f 84 33 02 00
	00		 je	 $LN93@LoadInt_e@3
  00055	b3 ea		 mov	 bl, -22			; ffffffeaH
  00057	32 d3		 xor	 dl, bl
  00059	88 55 df	 mov	 BYTE PTR __k$[ebp+3], dl
  0005c	8a 50 04	 mov	 dl, BYTE PTR [eax+4]
  0005f	84 d2		 test	 dl, dl
  00061	0f 84 1b 02 00
	00		 je	 $LN92@LoadInt_e@3
  00067	80 f2 ed	 xor	 dl, -19			; ffffffedH
  0006a	88 55 e0	 mov	 BYTE PTR __k$[ebp+4], dl
  0006d	8a 50 05	 mov	 dl, BYTE PTR [eax+5]
  00070	84 d2		 test	 dl, dl
  00072	0f 84 04 02 00
	00		 je	 $LN91@LoadInt_e@3
  00078	80 f2 ec	 xor	 dl, -20			; ffffffecH
  0007b	88 55 e1	 mov	 BYTE PTR __k$[ebp+5], dl
  0007e	8a 50 06	 mov	 dl, BYTE PTR [eax+6]
  00081	84 d2		 test	 dl, dl
  00083	0f 84 ee 01 00
	00		 je	 $LN90@LoadInt_e@3
  00089	32 d1		 xor	 dl, cl
  0008b	88 55 e2	 mov	 BYTE PTR __k$[ebp+6], dl
  0008e	8a 50 07	 mov	 dl, BYTE PTR [eax+7]
  00091	84 d2		 test	 dl, dl
  00093	0f 84 d9 01 00
	00		 je	 $LN89@LoadInt_e@3
  00099	32 d3		 xor	 dl, bl
  0009b	88 55 e3	 mov	 BYTE PTR __k$[ebp+7], dl
  0009e	8a 50 08	 mov	 dl, BYTE PTR [eax+8]
  000a1	84 d2		 test	 dl, dl
  000a3	0f 84 c3 01 00
	00		 je	 $LN88@LoadInt_e@3
  000a9	80 f2 ed	 xor	 dl, -19			; ffffffedH
  000ac	88 55 e4	 mov	 BYTE PTR __k$[ebp+8], dl
  000af	8a 50 09	 mov	 dl, BYTE PTR [eax+9]
  000b2	84 d2		 test	 dl, dl
  000b4	0f 84 ac 01 00
	00		 je	 $LN87@LoadInt_e@3
  000ba	80 f2 ec	 xor	 dl, -20			; ffffffecH
  000bd	88 55 e5	 mov	 BYTE PTR __k$[ebp+9], dl
  000c0	8a 50 0a	 mov	 dl, BYTE PTR [eax+10]
  000c3	84 d2		 test	 dl, dl
  000c5	0f 84 96 01 00
	00		 je	 $LN86@LoadInt_e@3
  000cb	32 d1		 xor	 dl, cl
  000cd	88 55 e6	 mov	 BYTE PTR __k$[ebp+10], dl
  000d0	8a 50 0b	 mov	 dl, BYTE PTR [eax+11]
  000d3	84 d2		 test	 dl, dl
  000d5	0f 84 81 01 00
	00		 je	 $LN85@LoadInt_e@3
  000db	32 d3		 xor	 dl, bl
  000dd	88 55 e7	 mov	 BYTE PTR __k$[ebp+11], dl
  000e0	8a 50 0c	 mov	 dl, BYTE PTR [eax+12]
  000e3	84 d2		 test	 dl, dl
  000e5	0f 84 6b 01 00
	00		 je	 $LN84@LoadInt_e@3
  000eb	80 f2 ed	 xor	 dl, -19			; ffffffedH
  000ee	88 55 e8	 mov	 BYTE PTR __k$[ebp+12], dl
  000f1	8a 50 0d	 mov	 dl, BYTE PTR [eax+13]
  000f4	84 d2		 test	 dl, dl
  000f6	0f 84 54 01 00
	00		 je	 $LN83@LoadInt_e@3
  000fc	80 f2 ec	 xor	 dl, -20			; ffffffecH
  000ff	88 55 e9	 mov	 BYTE PTR __k$[ebp+13], dl
  00102	8a 50 0e	 mov	 dl, BYTE PTR [eax+14]
  00105	84 d2		 test	 dl, dl
  00107	0f 84 3e 01 00
	00		 je	 $LN82@LoadInt_e@3
  0010d	32 d1		 xor	 dl, cl
  0010f	88 55 ea	 mov	 BYTE PTR __k$[ebp+14], dl
  00112	8a 50 0f	 mov	 dl, BYTE PTR [eax+15]
  00115	84 d2		 test	 dl, dl
  00117	0f 84 29 01 00
	00		 je	 $LN81@LoadInt_e@3
  0011d	32 d3		 xor	 dl, bl
  0011f	88 55 eb	 mov	 BYTE PTR __k$[ebp+15], dl
  00122	8a 50 10	 mov	 dl, BYTE PTR [eax+16]
  00125	84 d2		 test	 dl, dl
  00127	0f 84 13 01 00
	00		 je	 $LN80@LoadInt_e@3
  0012d	80 f2 ed	 xor	 dl, -19			; ffffffedH
  00130	88 55 ec	 mov	 BYTE PTR __k$[ebp+16], dl
  00133	8a 50 11	 mov	 dl, BYTE PTR [eax+17]
  00136	84 d2		 test	 dl, dl
  00138	0f 84 fc 00 00
	00		 je	 $LN79@LoadInt_e@3
  0013e	80 f2 ec	 xor	 dl, -20			; ffffffecH
  00141	88 55 ed	 mov	 BYTE PTR __k$[ebp+17], dl
  00144	8a 50 12	 mov	 dl, BYTE PTR [eax+18]
  00147	84 d2		 test	 dl, dl
  00149	0f 84 e6 00 00
	00		 je	 $LN78@LoadInt_e@3
  0014f	32 d1		 xor	 dl, cl
  00151	88 55 ee	 mov	 BYTE PTR __k$[ebp+18], dl
  00154	8a 50 13	 mov	 dl, BYTE PTR [eax+19]
  00157	84 d2		 test	 dl, dl
  00159	0f 84 d1 00 00
	00		 je	 $LN77@LoadInt_e@3
  0015f	32 d3		 xor	 dl, bl
  00161	88 55 ef	 mov	 BYTE PTR __k$[ebp+19], dl
  00164	8a 50 14	 mov	 dl, BYTE PTR [eax+20]
  00167	84 d2		 test	 dl, dl
  00169	0f 84 bb 00 00
	00		 je	 $LN76@LoadInt_e@3
  0016f	80 f2 ed	 xor	 dl, -19			; ffffffedH
  00172	88 55 f0	 mov	 BYTE PTR __k$[ebp+20], dl
  00175	8a 50 15	 mov	 dl, BYTE PTR [eax+21]
  00178	84 d2		 test	 dl, dl
  0017a	0f 84 a4 00 00
	00		 je	 $LN75@LoadInt_e@3
  00180	80 f2 ec	 xor	 dl, -20			; ffffffecH
  00183	88 55 f1	 mov	 BYTE PTR __k$[ebp+21], dl
  00186	8a 50 16	 mov	 dl, BYTE PTR [eax+22]
  00189	84 d2		 test	 dl, dl
  0018b	0f 84 8e 00 00
	00		 je	 $LN74@LoadInt_e@3
  00191	32 d1		 xor	 dl, cl
  00193	88 55 f2	 mov	 BYTE PTR __k$[ebp+22], dl
  00196	8a 50 17	 mov	 dl, BYTE PTR [eax+23]
  00199	84 d2		 test	 dl, dl
  0019b	74 7d		 je	 SHORT $LN73@LoadInt_e@3
  0019d	32 d3		 xor	 dl, bl
  0019f	88 55 f3	 mov	 BYTE PTR __k$[ebp+23], dl
  001a2	8a 50 18	 mov	 dl, BYTE PTR [eax+24]
  001a5	84 d2		 test	 dl, dl
  001a7	74 68		 je	 SHORT $LN72@LoadInt_e@3
  001a9	80 f2 ed	 xor	 dl, -19			; ffffffedH
  001ac	80 78 19 00	 cmp	 BYTE PTR [eax+25], 0
  001b0	88 55 f4	 mov	 BYTE PTR __k$[ebp+24], dl
  001b3	0f 84 e5 00 00
	00		 je	 $LN1@LoadInt_e@3
  001b9	8a 50 1a	 mov	 dl, BYTE PTR [eax+26]
  001bc	84 d2		 test	 dl, dl
  001be	74 49		 je	 SHORT $LN70@LoadInt_e@3
  001c0	32 d1		 xor	 dl, cl
  001c2	88 55 f6	 mov	 BYTE PTR __k$[ebp+26], dl
  001c5	8a 50 1b	 mov	 dl, BYTE PTR [eax+27]
  001c8	84 d2		 test	 dl, dl
  001ca	74 35		 je	 SHORT $LN69@LoadInt_e@3
  001cc	32 d3		 xor	 dl, bl
  001ce	88 55 f7	 mov	 BYTE PTR __k$[ebp+27], dl
  001d1	8a 50 1c	 mov	 dl, BYTE PTR [eax+28]
  001d4	84 d2		 test	 dl, dl
  001d6	74 20		 je	 SHORT $LN68@LoadInt_e@3
  001d8	8a 40 1d	 mov	 al, BYTE PTR [eax+29]
  001db	80 f2 ed	 xor	 dl, -19			; ffffffedH
  001de	88 55 f8	 mov	 BYTE PTR __k$[ebp+28], dl
  001e1	84 c0		 test	 al, al
  001e3	74 0a		 je	 SHORT $LN67@LoadInt_e@3
  001e5	34 ec		 xor	 al, -20			; ffffffecH
  001e7	88 45 f9	 mov	 BYTE PTR __k$[ebp+29], al
  001ea	e9 af 00 00 00	 jmp	 $LN1@LoadInt_e@3
$LN67@LoadInt_e@3:
  001ef	c6 45 f9 ec	 mov	 BYTE PTR __k$[ebp+29], -20 ; ffffffecH
  001f3	e9 a6 00 00 00	 jmp	 $LN1@LoadInt_e@3
$LN68@LoadInt_e@3:
  001f8	c6 45 f8 ed	 mov	 BYTE PTR __k$[ebp+28], -19 ; ffffffedH
  001fc	e9 9d 00 00 00	 jmp	 $LN1@LoadInt_e@3
$LN69@LoadInt_e@3:
  00201	88 5d f7	 mov	 BYTE PTR __k$[ebp+27], bl
  00204	e9 95 00 00 00	 jmp	 $LN1@LoadInt_e@3
$LN70@LoadInt_e@3:
  00209	88 4d f6	 mov	 BYTE PTR __k$[ebp+26], cl
  0020c	e9 8d 00 00 00	 jmp	 $LN1@LoadInt_e@3
$LN72@LoadInt_e@3:
  00211	c6 45 f4 ed	 mov	 BYTE PTR __k$[ebp+24], -19 ; ffffffedH
  00215	e9 84 00 00 00	 jmp	 $LN1@LoadInt_e@3
$LN73@LoadInt_e@3:
  0021a	88 5d f3	 mov	 BYTE PTR __k$[ebp+23], bl
  0021d	eb 7f		 jmp	 SHORT $LN1@LoadInt_e@3
$LN74@LoadInt_e@3:
  0021f	88 4d f2	 mov	 BYTE PTR __k$[ebp+22], cl
  00222	eb 7a		 jmp	 SHORT $LN1@LoadInt_e@3
$LN75@LoadInt_e@3:
  00224	c6 45 f1 ec	 mov	 BYTE PTR __k$[ebp+21], -20 ; ffffffecH
  00228	eb 74		 jmp	 SHORT $LN1@LoadInt_e@3
$LN76@LoadInt_e@3:
  0022a	c6 45 f0 ed	 mov	 BYTE PTR __k$[ebp+20], -19 ; ffffffedH
  0022e	eb 6e		 jmp	 SHORT $LN1@LoadInt_e@3
$LN77@LoadInt_e@3:
  00230	88 5d ef	 mov	 BYTE PTR __k$[ebp+19], bl
  00233	eb 69		 jmp	 SHORT $LN1@LoadInt_e@3
$LN78@LoadInt_e@3:
  00235	88 4d ee	 mov	 BYTE PTR __k$[ebp+18], cl
  00238	eb 64		 jmp	 SHORT $LN1@LoadInt_e@3
$LN79@LoadInt_e@3:
  0023a	c6 45 ed ec	 mov	 BYTE PTR __k$[ebp+17], -20 ; ffffffecH
  0023e	eb 5e		 jmp	 SHORT $LN1@LoadInt_e@3
$LN80@LoadInt_e@3:
  00240	c6 45 ec ed	 mov	 BYTE PTR __k$[ebp+16], -19 ; ffffffedH
  00244	eb 58		 jmp	 SHORT $LN1@LoadInt_e@3
$LN81@LoadInt_e@3:
  00246	88 5d eb	 mov	 BYTE PTR __k$[ebp+15], bl
  00249	eb 53		 jmp	 SHORT $LN1@LoadInt_e@3
$LN82@LoadInt_e@3:
  0024b	88 4d ea	 mov	 BYTE PTR __k$[ebp+14], cl
  0024e	eb 4e		 jmp	 SHORT $LN1@LoadInt_e@3
$LN83@LoadInt_e@3:
  00250	c6 45 e9 ec	 mov	 BYTE PTR __k$[ebp+13], -20 ; ffffffecH
  00254	eb 48		 jmp	 SHORT $LN1@LoadInt_e@3
$LN84@LoadInt_e@3:
  00256	c6 45 e8 ed	 mov	 BYTE PTR __k$[ebp+12], -19 ; ffffffedH
  0025a	eb 42		 jmp	 SHORT $LN1@LoadInt_e@3
$LN85@LoadInt_e@3:
  0025c	88 5d e7	 mov	 BYTE PTR __k$[ebp+11], bl
  0025f	eb 3d		 jmp	 SHORT $LN1@LoadInt_e@3
$LN86@LoadInt_e@3:
  00261	88 4d e6	 mov	 BYTE PTR __k$[ebp+10], cl
  00264	eb 38		 jmp	 SHORT $LN1@LoadInt_e@3
$LN87@LoadInt_e@3:
  00266	c6 45 e5 ec	 mov	 BYTE PTR __k$[ebp+9], -20 ; ffffffecH
  0026a	eb 32		 jmp	 SHORT $LN1@LoadInt_e@3
$LN88@LoadInt_e@3:
  0026c	c6 45 e4 ed	 mov	 BYTE PTR __k$[ebp+8], -19 ; ffffffedH
  00270	eb 2c		 jmp	 SHORT $LN1@LoadInt_e@3
$LN89@LoadInt_e@3:
  00272	88 5d e3	 mov	 BYTE PTR __k$[ebp+7], bl
  00275	eb 27		 jmp	 SHORT $LN1@LoadInt_e@3
$LN90@LoadInt_e@3:
  00277	88 4d e2	 mov	 BYTE PTR __k$[ebp+6], cl
  0027a	eb 22		 jmp	 SHORT $LN1@LoadInt_e@3
$LN91@LoadInt_e@3:
  0027c	c6 45 e1 ec	 mov	 BYTE PTR __k$[ebp+5], -20 ; ffffffecH
  00280	eb 1c		 jmp	 SHORT $LN1@LoadInt_e@3
$LN92@LoadInt_e@3:
  00282	c6 45 e0 ed	 mov	 BYTE PTR __k$[ebp+4], -19 ; ffffffedH
  00286	eb 16		 jmp	 SHORT $LN1@LoadInt_e@3
$LN93@LoadInt_e@3:
  00288	c6 45 df ea	 mov	 BYTE PTR __k$[ebp+3], -22 ; ffffffeaH
  0028c	eb 10		 jmp	 SHORT $LN1@LoadInt_e@3
$LN94@LoadInt_e@3:
  0028e	c6 45 de eb	 mov	 BYTE PTR __k$[ebp+2], -21 ; ffffffebH
  00292	eb 0a		 jmp	 SHORT $LN1@LoadInt_e@3
$LN95@LoadInt_e@3:
  00294	c6 45 dd ec	 mov	 BYTE PTR __k$[ebp+1], -20 ; ffffffecH
  00298	eb 04		 jmp	 SHORT $LN1@LoadInt_e@3
$LN96@LoadInt_e@3:
  0029a	c6 45 dc ed	 mov	 BYTE PTR __k$[ebp], -19	; ffffffedH
$LN1@LoadInt_e@3:
  0029e	6a 06		 push	 6
  002a0	8d 45 dc	 lea	 eax, DWORD PTR __k$[ebp]
  002a3	c6 45 f5 00	 mov	 BYTE PTR __k$[ebp+25], 0
  002a7	5a		 pop	 edx
$LL104@LoadInt_e@3:
  002a8	81 30 ed ec eb
	ea		 xor	 DWORD PTR [eax], -353637139 ; eaebecedH
  002ae	83 c0 04	 add	 eax, 4
  002b1	4a		 dec	 edx
  002b2	75 f4		 jne	 SHORT $LL104@LoadInt_e@3

; 120  : 		return LoadInt(_k, i);

  002b4	ff 75 0c	 push	 DWORD PTR _i$[ebp]
  002b7	80 75 f4 ed	 xor	 BYTE PTR __k$[ebp+24], -19 ; ffffffedH
  002bb	8d 45 dc	 lea	 eax, DWORD PTR __k$[ebp]
  002be	50		 push	 eax
  002bf	8b ce		 mov	 ecx, esi
  002c1	ff 15 00 00 00
	00		 call	 DWORD PTR __imp_?LoadInt@ioINILoader@@QAEHPBDH@Z

; 121  : 	}

  002c7	8b 4d fc	 mov	 ecx, DWORD PTR __$ArrayPad$[ebp]
  002ca	5e		 pop	 esi
  002cb	33 cd		 xor	 ecx, ebp
  002cd	5b		 pop	 ebx
  002ce	e8 00 00 00 00	 call	 @__security_check_cookie@4
  002d3	c9		 leave
  002d4	c2 08 00	 ret	 8
??$LoadInt_e@$0BK@@ioINILoader@@QAEHAAY0BK@$$CBDH@Z ENDP ; ioINILoader::LoadInt_e<26>
_TEXT	ENDS
PUBLIC	??$GetAnimationEventTime_e@$0L@@ioEntityGroup@@QAEMHAAY0L@$$CBD@Z ; ioEntityGroup::GetAnimationEventTime_e<11>
EXTRN	__imp_?GetAnimationEventTime@ioEntityGroup@@QAEMHABVioHashString@@@Z:PROC
EXTRN	__imp_??0ioHashString@@QAE@PBD@Z:PROC
EXTRN	___CxxFrameHandler3:PROC
EXTRN	__EH_epilog3_GS:PROC
EXTRN	__EH_prolog3_GS:PROC
;	COMDAT xdata$x
; File d:\lost saga for developer\youtube\tutorial\source\src\lsclient\stringprotect.h
xdata$x	SEGMENT
__unwindtable$??$GetAnimationEventTime_e@$0L@@ioEntityGroup@@QAEMHAAY0L@$$CBD@Z DD 0ffffffffH
	DD	FLAT:__unwindfunclet$??$GetAnimationEventTime_e@$0L@@ioEntityGroup@@QAEMHAAY0L@$$CBD@Z$0
__ehfuncinfo$??$GetAnimationEventTime_e@$0L@@ioEntityGroup@@QAEMHAAY0L@$$CBD@Z DD 019930522H
	DD	01H
	DD	FLAT:__unwindtable$??$GetAnimationEventTime_e@$0L@@ioEntityGroup@@QAEMHAAY0L@$$CBD@Z
	DD	2 DUP(00H)
	DD	2 DUP(00H)
	DD	00H
	DD	01H
; Function compile flags: /Ogsp
; File d:\lost saga for developer\youtube\tutorial\source\src\io3dengine\ioentitygroup.h
xdata$x	ENDS
;	COMDAT ??$GetAnimationEventTime_e@$0L@@ioEntityGroup@@QAEMHAAY0L@$$CBD@Z
_TEXT	SEGMENT
$T536823 = -52						; size = 16
$T536822 = -36						; size = 4
_szEncEventType$ = -32					; size = 11
__$EHRec$ = -12						; size = 12
_id$ = 8						; size = 4
_szEventType$ = 12					; size = 4
??$GetAnimationEventTime_e@$0L@@ioEntityGroup@@QAEMHAAY0L@$$CBD@Z PROC ; ioEntityGroup::GetAnimationEventTime_e<11>, COMDAT
; _this$ = ecx

; 414  : 	{

  00000	6a 28		 push	 40			; 00000028H
  00002	b8 00 00 00 00	 mov	 eax, __ehhandler$??$GetAnimationEventTime_e@$0L@@ioEntityGroup@@QAEMHAAY0L@$$CBD@Z
  00007	e8 00 00 00 00	 call	 __EH_prolog3_GS
  0000c	8b 45 0c	 mov	 eax, DWORD PTR _szEventType$[ebp]
  0000f	8b f1		 mov	 esi, ecx

; 415  : 		_ENCSTR(szEventType, szEncEventType);

  00011	8a 08		 mov	 cl, BYTE PTR [eax]
  00013	84 c9		 test	 cl, cl
  00015	0f 84 1b 01 00
	00		 je	 $LN96@GetAnimati
  0001b	b2 ed		 mov	 dl, -19			; ffffffedH
  0001d	32 ca		 xor	 cl, dl
  0001f	88 4d e0	 mov	 BYTE PTR _szEncEventType$[ebp], cl
  00022	8a 48 01	 mov	 cl, BYTE PTR [eax+1]
  00025	84 c9		 test	 cl, cl
  00027	0f 84 03 01 00
	00		 je	 $LN95@GetAnimati
  0002d	80 f1 ec	 xor	 cl, -20			; ffffffecH
  00030	88 4d e1	 mov	 BYTE PTR _szEncEventType$[ebp+1], cl
  00033	8a 48 02	 mov	 cl, BYTE PTR [eax+2]
  00036	84 c9		 test	 cl, cl
  00038	0f 84 ec 00 00
	00		 je	 $LN94@GetAnimati
  0003e	80 f1 eb	 xor	 cl, -21			; ffffffebH
  00041	88 4d e2	 mov	 BYTE PTR _szEncEventType$[ebp+2], cl
  00044	8a 48 03	 mov	 cl, BYTE PTR [eax+3]
  00047	84 c9		 test	 cl, cl
  00049	0f 84 d5 00 00
	00		 je	 $LN93@GetAnimati
  0004f	80 f1 ea	 xor	 cl, -22			; ffffffeaH
  00052	88 4d e3	 mov	 BYTE PTR _szEncEventType$[ebp+3], cl
  00055	8a 48 04	 mov	 cl, BYTE PTR [eax+4]
  00058	84 c9		 test	 cl, cl
  0005a	0f 84 bf 00 00
	00		 je	 $LN92@GetAnimati
  00060	32 ca		 xor	 cl, dl
  00062	88 4d e4	 mov	 BYTE PTR _szEncEventType$[ebp+4], cl
  00065	8a 48 05	 mov	 cl, BYTE PTR [eax+5]
  00068	84 c9		 test	 cl, cl
  0006a	0f 84 a9 00 00
	00		 je	 $LN91@GetAnimati
  00070	80 f1 ec	 xor	 cl, -20			; ffffffecH
  00073	88 4d e5	 mov	 BYTE PTR _szEncEventType$[ebp+5], cl
  00076	8a 48 06	 mov	 cl, BYTE PTR [eax+6]
  00079	84 c9		 test	 cl, cl
  0007b	0f 84 92 00 00
	00		 je	 $LN90@GetAnimati
  00081	80 f1 eb	 xor	 cl, -21			; ffffffebH
  00084	88 4d e6	 mov	 BYTE PTR _szEncEventType$[ebp+6], cl
  00087	8a 48 07	 mov	 cl, BYTE PTR [eax+7]
  0008a	84 c9		 test	 cl, cl
  0008c	74 7f		 je	 SHORT $LN89@GetAnimati
  0008e	80 f1 ea	 xor	 cl, -22			; ffffffeaH
  00091	88 4d e7	 mov	 BYTE PTR _szEncEventType$[ebp+7], cl
  00094	8a 48 08	 mov	 cl, BYTE PTR [eax+8]
  00097	84 c9		 test	 cl, cl
  00099	74 6d		 je	 SHORT $LN88@GetAnimati
  0009b	32 ca		 xor	 cl, dl
  0009d	88 4d e8	 mov	 BYTE PTR _szEncEventType$[ebp+8], cl
  000a0	8a 48 09	 mov	 cl, BYTE PTR [eax+9]
  000a3	84 c9		 test	 cl, cl
  000a5	74 5b		 je	 SHORT $LN87@GetAnimati
  000a7	80 f1 ec	 xor	 cl, -20			; ffffffecH
  000aa	80 78 0a 00	 cmp	 BYTE PTR [eax+10], 0
  000ae	88 4d e9	 mov	 BYTE PTR _szEncEventType$[ebp+9], cl
  000b1	0f 84 83 00 00
	00		 je	 $LN1@GetAnimati
  000b7	8a 48 0b	 mov	 cl, BYTE PTR [eax+11]
  000ba	84 c9		 test	 cl, cl
  000bc	74 3e		 je	 SHORT $LN85@GetAnimati
  000be	80 f1 ea	 xor	 cl, -22			; ffffffeaH
  000c1	88 4d eb	 mov	 BYTE PTR _szEncEventType$[ebp+11], cl
  000c4	8a 48 0c	 mov	 cl, BYTE PTR [eax+12]
  000c7	84 c9		 test	 cl, cl
  000c9	74 2c		 je	 SHORT $LN84@GetAnimati
  000cb	32 ca		 xor	 cl, dl
  000cd	88 4d ec	 mov	 BYTE PTR _szEncEventType$[ebp+12], cl
  000d0	8a 48 0d	 mov	 cl, BYTE PTR [eax+13]
  000d3	84 c9		 test	 cl, cl
  000d5	74 1a		 je	 SHORT $LN83@GetAnimati
  000d7	8a 40 0e	 mov	 al, BYTE PTR [eax+14]
  000da	80 f1 ec	 xor	 cl, -20			; ffffffecH
  000dd	88 4d ed	 mov	 BYTE PTR _szEncEventType$[ebp+13], cl
  000e0	84 c0		 test	 al, al
  000e2	74 07		 je	 SHORT $LN82@GetAnimati
  000e4	34 eb		 xor	 al, -21			; ffffffebH
  000e6	88 45 ee	 mov	 BYTE PTR _szEncEventType$[ebp+14], al
  000e9	eb 4f		 jmp	 SHORT $LN1@GetAnimati
$LN82@GetAnimati:
  000eb	c6 45 ee eb	 mov	 BYTE PTR _szEncEventType$[ebp+14], -21 ; ffffffebH
  000ef	eb 49		 jmp	 SHORT $LN1@GetAnimati
$LN83@GetAnimati:
  000f1	c6 45 ed ec	 mov	 BYTE PTR _szEncEventType$[ebp+13], -20 ; ffffffecH
  000f5	eb 43		 jmp	 SHORT $LN1@GetAnimati
$LN84@GetAnimati:
  000f7	88 55 ec	 mov	 BYTE PTR _szEncEventType$[ebp+12], dl
  000fa	eb 3e		 jmp	 SHORT $LN1@GetAnimati
$LN85@GetAnimati:
  000fc	c6 45 eb ea	 mov	 BYTE PTR _szEncEventType$[ebp+11], -22 ; ffffffeaH
  00100	eb 38		 jmp	 SHORT $LN1@GetAnimati
$LN87@GetAnimati:
  00102	c6 45 e9 ec	 mov	 BYTE PTR _szEncEventType$[ebp+9], -20 ; ffffffecH
  00106	eb 32		 jmp	 SHORT $LN1@GetAnimati
$LN88@GetAnimati:
  00108	88 55 e8	 mov	 BYTE PTR _szEncEventType$[ebp+8], dl
  0010b	eb 2d		 jmp	 SHORT $LN1@GetAnimati
$LN89@GetAnimati:
  0010d	c6 45 e7 ea	 mov	 BYTE PTR _szEncEventType$[ebp+7], -22 ; ffffffeaH
  00111	eb 27		 jmp	 SHORT $LN1@GetAnimati
$LN90@GetAnimati:
  00113	c6 45 e6 eb	 mov	 BYTE PTR _szEncEventType$[ebp+6], -21 ; ffffffebH
  00117	eb 21		 jmp	 SHORT $LN1@GetAnimati
$LN91@GetAnimati:
  00119	c6 45 e5 ec	 mov	 BYTE PTR _szEncEventType$[ebp+5], -20 ; ffffffecH
  0011d	eb 1b		 jmp	 SHORT $LN1@GetAnimati
$LN92@GetAnimati:
  0011f	88 55 e4	 mov	 BYTE PTR _szEncEventType$[ebp+4], dl
  00122	eb 16		 jmp	 SHORT $LN1@GetAnimati
$LN93@GetAnimati:
  00124	c6 45 e3 ea	 mov	 BYTE PTR _szEncEventType$[ebp+3], -22 ; ffffffeaH
  00128	eb 10		 jmp	 SHORT $LN1@GetAnimati
$LN94@GetAnimati:
  0012a	c6 45 e2 eb	 mov	 BYTE PTR _szEncEventType$[ebp+2], -21 ; ffffffebH
  0012e	eb 0a		 jmp	 SHORT $LN1@GetAnimati
$LN95@GetAnimati:
  00130	c6 45 e1 ec	 mov	 BYTE PTR _szEncEventType$[ebp+1], -20 ; ffffffecH
  00134	eb 04		 jmp	 SHORT $LN1@GetAnimati
$LN96@GetAnimati:
  00136	c6 45 e0 ed	 mov	 BYTE PTR _szEncEventType$[ebp], -19 ; ffffffedH
$LN1@GetAnimati:
  0013a	6a 02		 push	 2
  0013c	8d 45 e0	 lea	 eax, DWORD PTR _szEncEventType$[ebp]
  0013f	c6 45 ea 00	 mov	 BYTE PTR _szEncEventType$[ebp+10], 0
  00143	59		 pop	 ecx
$LL105@GetAnimati:
  00144	81 30 ed ec eb
	ea		 xor	 DWORD PTR [eax], -353637139 ; eaebecedH
  0014a	83 c0 04	 add	 eax, 4
  0014d	49		 dec	 ecx
  0014e	75 f4		 jne	 SHORT $LL105@GetAnimati
  00150	6a 08		 push	 8
  00152	58		 pop	 eax
$LL102@GetAnimati:
  00153	8b c8		 mov	 ecx, eax
  00155	81 e1 03 00 00
	80		 and	 ecx, -2147483645	; 80000003H
  0015b	79 05		 jns	 SHORT $LN113@GetAnimati
  0015d	49		 dec	 ecx
  0015e	83 c9 fc	 or	 ecx, -4			; fffffffcH
  00161	41		 inc	 ecx
$LN113@GetAnimati:
  00162	b2 ed		 mov	 dl, -19			; ffffffedH
  00164	2a d1		 sub	 dl, cl
  00166	30 54 05 e0	 xor	 BYTE PTR _szEncEventType$[ebp+eax], dl
  0016a	40		 inc	 eax
  0016b	83 f8 0a	 cmp	 eax, 10			; 0000000aH
  0016e	7c e3		 jl	 SHORT $LL102@GetAnimati

; 416  : 		return GetAnimationEventTime(id, szEncEventType);

  00170	8d 45 e0	 lea	 eax, DWORD PTR _szEncEventType$[ebp]
  00173	50		 push	 eax
  00174	8d 4d cc	 lea	 ecx, DWORD PTR $T536823[ebp]
  00177	ff 15 00 00 00
	00		 call	 DWORD PTR __imp_??0ioHashString@@QAE@PBD@Z
  0017d	83 65 fc 00	 and	 DWORD PTR __$EHRec$[ebp+8], 0
  00181	8d 45 cc	 lea	 eax, DWORD PTR $T536823[ebp]
  00184	50		 push	 eax
  00185	ff 75 08	 push	 DWORD PTR _id$[ebp]
  00188	8b ce		 mov	 ecx, esi
  0018a	ff 15 00 00 00
	00		 call	 DWORD PTR __imp_?GetAnimationEventTime@ioEntityGroup@@QAEMHABVioHashString@@@Z
  00190	d9 5d dc	 fstp	 DWORD PTR $T536822[ebp]
  00193	83 4d fc ff	 or	 DWORD PTR __$EHRec$[ebp+8], -1
  00197	8d 4d cc	 lea	 ecx, DWORD PTR $T536823[ebp]
  0019a	ff 15 00 00 00
	00		 call	 DWORD PTR __imp_??1ioHashString@@QAE@XZ
  001a0	d9 45 dc	 fld	 DWORD PTR $T536822[ebp]

; 417  : 	}

  001a3	e8 00 00 00 00	 call	 __EH_epilog3_GS
  001a8	c2 08 00	 ret	 8
_TEXT	ENDS
;	COMDAT text$x
text$x	SEGMENT
__unwindfunclet$??$GetAnimationEventTime_e@$0L@@ioEntityGroup@@QAEMHAAY0L@$$CBD@Z$0:
  00000	8d 4d cc	 lea	 ecx, DWORD PTR $T536823[ebp]
  00003	ff 25 00 00 00
	00		 jmp	 DWORD PTR __imp_??1ioHashString@@QAE@XZ
__ehhandler$??$GetAnimationEventTime_e@$0L@@ioEntityGroup@@QAEMHAAY0L@$$CBD@Z:
  00009	8b 54 24 08	 mov	 edx, DWORD PTR [esp+8]
  0000d	8d 42 0c	 lea	 eax, DWORD PTR [edx+12]
  00010	8b 4a c8	 mov	 ecx, DWORD PTR [edx-56]
  00013	33 c8		 xor	 ecx, eax
  00015	e8 00 00 00 00	 call	 @__security_check_cookie@4
  0001a	8b 4a fc	 mov	 ecx, DWORD PTR [edx-4]
  0001d	33 c8		 xor	 ecx, eax
  0001f	e8 00 00 00 00	 call	 @__security_check_cookie@4
  00024	b8 00 00 00 00	 mov	 eax, OFFSET __ehfuncinfo$??$GetAnimationEventTime_e@$0L@@ioEntityGroup@@QAEMHAAY0L@$$CBD@Z
  00029	e9 00 00 00 00	 jmp	 ___CxxFrameHandler3
text$x	ENDS
??$GetAnimationEventTime_e@$0L@@ioEntityGroup@@QAEMHAAY0L@$$CBD@Z ENDP ; ioEntityGroup::GetAnimationEventTime_e<11>
PUBLIC	__real@3fd2ee0d320154cb
PUBLIC	__real@41f0000000000000
PUBLIC	??$RADtoDEG@M@@YAMM@Z				; RADtoDEG<float>
;	COMDAT __real@3fd2ee0d320154cb
; File d:\lost saga for developer\youtube\tutorial\source\src\lsclient\veryoftenusedefine.h
CONST	SEGMENT
__real@3fd2ee0d320154cb DQ 03fd2ee0d320154cbr	; 0.29578
CONST	ENDS
;	COMDAT __real@41f0000000000000
CONST	SEGMENT
__real@41f0000000000000 DQ 041f0000000000000r	; 4.29497e+009
; Function compile flags: /Ogsp
CONST	ENDS
;	COMDAT ??$RADtoDEG@M@@YAMM@Z
_TEXT	SEGMENT
tv130 = -4						; size = 4
tv75 = 8						; size = 4
_val$ = 8						; size = 4
??$RADtoDEG@M@@YAMM@Z PROC				; RADtoDEG<float>, COMDAT

; 18   : type  RADtoDEG (type val) {return (type) (val * (return57() + 0.2957795132)); }

  00000	55		 push	 ebp
  00001	8b ec		 mov	 ebp, esp
  00003	51		 push	 ecx
  00004	b8 39 00 00 00	 mov	 eax, 57			; 00000039H
  00009	89 45 fc	 mov	 DWORD PTR tv130[ebp], eax
  0000c	db 45 fc	 fild	 DWORD PTR tv130[ebp]
  0000f	85 c0		 test	 eax, eax
  00011	79 06		 jns	 SHORT $LN5@RADtoDEG
  00013	dc 05 00 00 00
	00		 fadd	 QWORD PTR __real@41f0000000000000
$LN5@RADtoDEG:
  00019	dc 05 00 00 00
	00		 fadd	 QWORD PTR __real@3fd2ee0d320154cb
  0001f	d8 4d 08	 fmul	 DWORD PTR _val$[ebp]
  00022	d9 5d 08	 fstp	 DWORD PTR tv75[ebp]
  00025	d9 45 08	 fld	 DWORD PTR tv75[ebp]
  00028	c9		 leave
  00029	c3		 ret	 0
??$RADtoDEG@M@@YAMM@Z ENDP				; RADtoDEG<float>
_TEXT	ENDS
PUBLIC	??$GetAnimationEventTime_e@$06@ioEntityGroup@@QAEMHAAY06$$CBD@Z ; ioEntityGroup::GetAnimationEventTime_e<7>
;	COMDAT xdata$x
; File d:\lost saga for developer\youtube\tutorial\source\src\lsclient\stringprotect.h
xdata$x	SEGMENT
__unwindtable$??$GetAnimationEventTime_e@$06@ioEntityGroup@@QAEMHAAY06$$CBD@Z DD 0ffffffffH
	DD	FLAT:__unwindfunclet$??$GetAnimationEventTime_e@$06@ioEntityGroup@@QAEMHAAY06$$CBD@Z$0
__ehfuncinfo$??$GetAnimationEventTime_e@$06@ioEntityGroup@@QAEMHAAY06$$CBD@Z DD 019930522H
	DD	01H
	DD	FLAT:__unwindtable$??$GetAnimationEventTime_e@$06@ioEntityGroup@@QAEMHAAY06$$CBD@Z
	DD	2 DUP(00H)
	DD	2 DUP(00H)
	DD	00H
	DD	01H
; Function compile flags: /Ogsp
; File d:\lost saga for developer\youtube\tutorial\source\src\io3dengine\ioentitygroup.h
xdata$x	ENDS
;	COMDAT ??$GetAnimationEventTime_e@$06@ioEntityGroup@@QAEMHAAY06$$CBD@Z
_TEXT	SEGMENT
$T536870 = -48						; size = 16
$T536869 = -32						; size = 4
_szEncEventType$ = -28					; size = 7
__$EHRec$ = -12						; size = 12
_id$ = 8						; size = 4
_szEventType$ = 12					; size = 4
??$GetAnimationEventTime_e@$06@ioEntityGroup@@QAEMHAAY06$$CBD@Z PROC ; ioEntityGroup::GetAnimationEventTime_e<7>, COMDAT
; _this$ = ecx

; 414  : 	{

  00000	6a 24		 push	 36			; 00000024H
  00002	b8 00 00 00 00	 mov	 eax, __ehhandler$??$GetAnimationEventTime_e@$06@ioEntityGroup@@QAEMHAAY06$$CBD@Z
  00007	e8 00 00 00 00	 call	 __EH_prolog3_GS
  0000c	8b 45 0c	 mov	 eax, DWORD PTR _szEventType$[ebp]
  0000f	8b f1		 mov	 esi, ecx

; 415  : 		_ENCSTR(szEventType, szEncEventType);

  00011	8a 08		 mov	 cl, BYTE PTR [eax]
  00013	84 c9		 test	 cl, cl
  00015	0f 84 c0 00 00
	00		 je	 $LN96@GetAnimati@2
  0001b	80 f1 ed	 xor	 cl, -19			; ffffffedH
  0001e	88 4d e4	 mov	 BYTE PTR _szEncEventType$[ebp], cl
  00021	8a 48 01	 mov	 cl, BYTE PTR [eax+1]
  00024	84 c9		 test	 cl, cl
  00026	0f 84 a9 00 00
	00		 je	 $LN95@GetAnimati@2
  0002c	80 f1 ec	 xor	 cl, -20			; ffffffecH
  0002f	88 4d e5	 mov	 BYTE PTR _szEncEventType$[ebp+1], cl
  00032	8a 48 02	 mov	 cl, BYTE PTR [eax+2]
  00035	84 c9		 test	 cl, cl
  00037	0f 84 92 00 00
	00		 je	 $LN94@GetAnimati@2
  0003d	80 f1 eb	 xor	 cl, -21			; ffffffebH
  00040	88 4d e6	 mov	 BYTE PTR _szEncEventType$[ebp+2], cl
  00043	8a 48 03	 mov	 cl, BYTE PTR [eax+3]
  00046	84 c9		 test	 cl, cl
  00048	74 7f		 je	 SHORT $LN93@GetAnimati@2
  0004a	80 f1 ea	 xor	 cl, -22			; ffffffeaH
  0004d	88 4d e7	 mov	 BYTE PTR _szEncEventType$[ebp+3], cl
  00050	8a 48 04	 mov	 cl, BYTE PTR [eax+4]
  00053	84 c9		 test	 cl, cl
  00055	74 6c		 je	 SHORT $LN92@GetAnimati@2
  00057	80 f1 ed	 xor	 cl, -19			; ffffffedH
  0005a	88 4d e8	 mov	 BYTE PTR _szEncEventType$[ebp+4], cl
  0005d	8a 48 05	 mov	 cl, BYTE PTR [eax+5]
  00060	84 c9		 test	 cl, cl
  00062	74 59		 je	 SHORT $LN91@GetAnimati@2
  00064	80 f1 ec	 xor	 cl, -20			; ffffffecH
  00067	80 78 06 00	 cmp	 BYTE PTR [eax+6], 0
  0006b	88 4d e9	 mov	 BYTE PTR _szEncEventType$[ebp+5], cl
  0006e	74 6f		 je	 SHORT $LN1@GetAnimati@2
  00070	8a 48 07	 mov	 cl, BYTE PTR [eax+7]
  00073	84 c9		 test	 cl, cl
  00075	74 40		 je	 SHORT $LN89@GetAnimati@2
  00077	80 f1 ea	 xor	 cl, -22			; ffffffeaH
  0007a	88 4d eb	 mov	 BYTE PTR _szEncEventType$[ebp+7], cl
  0007d	8a 48 08	 mov	 cl, BYTE PTR [eax+8]
  00080	84 c9		 test	 cl, cl
  00082	74 2d		 je	 SHORT $LN88@GetAnimati@2
  00084	80 f1 ed	 xor	 cl, -19			; ffffffedH
  00087	88 4d ec	 mov	 BYTE PTR _szEncEventType$[ebp+8], cl
  0008a	8a 48 09	 mov	 cl, BYTE PTR [eax+9]
  0008d	84 c9		 test	 cl, cl
  0008f	74 1a		 je	 SHORT $LN87@GetAnimati@2
  00091	8a 40 0a	 mov	 al, BYTE PTR [eax+10]
  00094	80 f1 ec	 xor	 cl, -20			; ffffffecH
  00097	88 4d ed	 mov	 BYTE PTR _szEncEventType$[ebp+9], cl
  0009a	84 c0		 test	 al, al
  0009c	74 07		 je	 SHORT $LN86@GetAnimati@2
  0009e	34 eb		 xor	 al, -21			; ffffffebH
  000a0	88 45 ee	 mov	 BYTE PTR _szEncEventType$[ebp+10], al
  000a3	eb 3a		 jmp	 SHORT $LN1@GetAnimati@2
$LN86@GetAnimati@2:
  000a5	c6 45 ee eb	 mov	 BYTE PTR _szEncEventType$[ebp+10], -21 ; ffffffebH
  000a9	eb 34		 jmp	 SHORT $LN1@GetAnimati@2
$LN87@GetAnimati@2:
  000ab	c6 45 ed ec	 mov	 BYTE PTR _szEncEventType$[ebp+9], -20 ; ffffffecH
  000af	eb 2e		 jmp	 SHORT $LN1@GetAnimati@2
$LN88@GetAnimati@2:
  000b1	c6 45 ec ed	 mov	 BYTE PTR _szEncEventType$[ebp+8], -19 ; ffffffedH
  000b5	eb 28		 jmp	 SHORT $LN1@GetAnimati@2
$LN89@GetAnimati@2:
  000b7	c6 45 eb ea	 mov	 BYTE PTR _szEncEventType$[ebp+7], -22 ; ffffffeaH
  000bb	eb 22		 jmp	 SHORT $LN1@GetAnimati@2
$LN91@GetAnimati@2:
  000bd	c6 45 e9 ec	 mov	 BYTE PTR _szEncEventType$[ebp+5], -20 ; ffffffecH
  000c1	eb 1c		 jmp	 SHORT $LN1@GetAnimati@2
$LN92@GetAnimati@2:
  000c3	c6 45 e8 ed	 mov	 BYTE PTR _szEncEventType$[ebp+4], -19 ; ffffffedH
  000c7	eb 16		 jmp	 SHORT $LN1@GetAnimati@2
$LN93@GetAnimati@2:
  000c9	c6 45 e7 ea	 mov	 BYTE PTR _szEncEventType$[ebp+3], -22 ; ffffffeaH
  000cd	eb 10		 jmp	 SHORT $LN1@GetAnimati@2
$LN94@GetAnimati@2:
  000cf	c6 45 e6 eb	 mov	 BYTE PTR _szEncEventType$[ebp+2], -21 ; ffffffebH
  000d3	eb 0a		 jmp	 SHORT $LN1@GetAnimati@2
$LN95@GetAnimati@2:
  000d5	c6 45 e5 ec	 mov	 BYTE PTR _szEncEventType$[ebp+1], -20 ; ffffffecH
  000d9	eb 04		 jmp	 SHORT $LN1@GetAnimati@2
$LN96@GetAnimati@2:
  000db	c6 45 e4 ed	 mov	 BYTE PTR _szEncEventType$[ebp], -19 ; ffffffedH
$LN1@GetAnimati@2:
  000df	81 75 e4 ed ec
	eb ea		 xor	 DWORD PTR _szEncEventType$[ebp], -353637139 ; eaebecedH
  000e6	6a 04		 push	 4
  000e8	c6 45 ea 00	 mov	 BYTE PTR _szEncEventType$[ebp+6], 0
  000ec	58		 pop	 eax
$LL102@GetAnimati@2:
  000ed	8b c8		 mov	 ecx, eax
  000ef	81 e1 03 00 00
	80		 and	 ecx, -2147483645	; 80000003H
  000f5	79 05		 jns	 SHORT $LN113@GetAnimati@2
  000f7	49		 dec	 ecx
  000f8	83 c9 fc	 or	 ecx, -4			; fffffffcH
  000fb	41		 inc	 ecx
$LN113@GetAnimati@2:
  000fc	b2 ed		 mov	 dl, -19			; ffffffedH
  000fe	2a d1		 sub	 dl, cl
  00100	30 54 05 e4	 xor	 BYTE PTR _szEncEventType$[ebp+eax], dl
  00104	40		 inc	 eax
  00105	83 f8 06	 cmp	 eax, 6
  00108	7c e3		 jl	 SHORT $LL102@GetAnimati@2

; 416  : 		return GetAnimationEventTime(id, szEncEventType);

  0010a	8d 45 e4	 lea	 eax, DWORD PTR _szEncEventType$[ebp]
  0010d	50		 push	 eax
  0010e	8d 4d d0	 lea	 ecx, DWORD PTR $T536870[ebp]
  00111	ff 15 00 00 00
	00		 call	 DWORD PTR __imp_??0ioHashString@@QAE@PBD@Z
  00117	83 65 fc 00	 and	 DWORD PTR __$EHRec$[ebp+8], 0
  0011b	8d 45 d0	 lea	 eax, DWORD PTR $T536870[ebp]
  0011e	50		 push	 eax
  0011f	ff 75 08	 push	 DWORD PTR _id$[ebp]
  00122	8b ce		 mov	 ecx, esi
  00124	ff 15 00 00 00
	00		 call	 DWORD PTR __imp_?GetAnimationEventTime@ioEntityGroup@@QAEMHABVioHashString@@@Z
  0012a	d9 5d e0	 fstp	 DWORD PTR $T536869[ebp]
  0012d	83 4d fc ff	 or	 DWORD PTR __$EHRec$[ebp+8], -1
  00131	8d 4d d0	 lea	 ecx, DWORD PTR $T536870[ebp]
  00134	ff 15 00 00 00
	00		 call	 DWORD PTR __imp_??1ioHashString@@QAE@XZ
  0013a	d9 45 e0	 fld	 DWORD PTR $T536869[ebp]

; 417  : 	}

  0013d	e8 00 00 00 00	 call	 __EH_epilog3_GS
  00142	c2 08 00	 ret	 8
_TEXT	ENDS
;	COMDAT text$x
text$x	SEGMENT
__unwindfunclet$??$GetAnimationEventTime_e@$06@ioEntityGroup@@QAEMHAAY06$$CBD@Z$0:
  00000	8d 4d d0	 lea	 ecx, DWORD PTR $T536870[ebp]
  00003	ff 25 00 00 00
	00		 jmp	 DWORD PTR __imp_??1ioHashString@@QAE@XZ
__ehhandler$??$GetAnimationEventTime_e@$06@ioEntityGroup@@QAEMHAAY06$$CBD@Z:
  00009	8b 54 24 08	 mov	 edx, DWORD PTR [esp+8]
  0000d	8d 42 0c	 lea	 eax, DWORD PTR [edx+12]
  00010	8b 4a cc	 mov	 ecx, DWORD PTR [edx-52]
  00013	33 c8		 xor	 ecx, eax
  00015	e8 00 00 00 00	 call	 @__security_check_cookie@4
  0001a	8b 4a fc	 mov	 ecx, DWORD PTR [edx-4]
  0001d	33 c8		 xor	 ecx, eax
  0001f	e8 00 00 00 00	 call	 @__security_check_cookie@4
  00024	b8 00 00 00 00	 mov	 eax, OFFSET __ehfuncinfo$??$GetAnimationEventTime_e@$06@ioEntityGroup@@QAEMHAAY06$$CBD@Z
  00029	e9 00 00 00 00	 jmp	 ___CxxFrameHandler3
text$x	ENDS
??$GetAnimationEventTime_e@$06@ioEntityGroup@@QAEMHAAY06$$CBD@Z ENDP ; ioEntityGroup::GetAnimationEventTime_e<7>
PUBLIC	??$GetAnimationEventConstPtrList_e@$0L@@ioEntityGroup@@QAEHHAAY0L@$$CBDAAV?$vector@PBUAniEventTime@@V?$allocator@PBUAniEventTime@@@std@@@std@@@Z ; ioEntityGroup::GetAnimationEventConstPtrList_e<11>
EXTRN	__imp_?GetAnimationEventConstPtrList@ioEntityGroup@@QAEHHABVioHashString@@AAV?$vector@PBUAniEventTime@@V?$allocator@PBUAniEventTime@@@std@@@std@@@Z:PROC
;	COMDAT xdata$x
; File d:\lost saga for developer\youtube\tutorial\source\src\lsclient\stringprotect.h
xdata$x	SEGMENT
__unwindtable$??$GetAnimationEventConstPtrList_e@$0L@@ioEntityGroup@@QAEHHAAY0L@$$CBDAAV?$vector@PBUAniEventTime@@V?$allocator@PBUAniEventTime@@@std@@@std@@@Z DD 0ffffffffH
	DD	FLAT:__unwindfunclet$??$GetAnimationEventConstPtrList_e@$0L@@ioEntityGroup@@QAEHHAAY0L@$$CBDAAV?$vector@PBUAniEventTime@@V?$allocator@PBUAniEventTime@@@std@@@std@@@Z$0
__ehfuncinfo$??$GetAnimationEventConstPtrList_e@$0L@@ioEntityGroup@@QAEHHAAY0L@$$CBDAAV?$vector@PBUAniEventTime@@V?$allocator@PBUAniEventTime@@@std@@@std@@@Z DD 019930522H
	DD	01H
	DD	FLAT:__unwindtable$??$GetAnimationEventConstPtrList_e@$0L@@ioEntityGroup@@QAEHHAAY0L@$$CBDAAV?$vector@PBUAniEventTime@@V?$allocator@PBUAniEventTime@@@std@@@std@@@Z
	DD	2 DUP(00H)
	DD	2 DUP(00H)
	DD	00H
	DD	01H
; Function compile flags: /Ogsp
; File d:\lost saga for developer\youtube\tutorial\source\src\io3dengine\ioentitygroup.h
xdata$x	ENDS
;	COMDAT ??$GetAnimationEventConstPtrList_e@$0L@@ioEntityGroup@@QAEHHAAY0L@$$CBDAAV?$vector@PBUAniEventTime@@V?$allocator@PBUAniEventTime@@@std@@@std@@@Z
_TEXT	SEGMENT
$T536901 = -48						; size = 16
_szEncEventType$ = -32					; size = 11
__$EHRec$ = -12						; size = 12
_id$ = 8						; size = 4
_szEventType$ = 12					; size = 4
_vEventList$ = 16					; size = 4
??$GetAnimationEventConstPtrList_e@$0L@@ioEntityGroup@@QAEHHAAY0L@$$CBDAAV?$vector@PBUAniEventTime@@V?$allocator@PBUAniEventTime@@@std@@@std@@@Z PROC ; ioEntityGroup::GetAnimationEventConstPtrList_e<11>, COMDAT
; _this$ = ecx

; 423  : 	{

  00000	6a 24		 push	 36			; 00000024H
  00002	b8 00 00 00 00	 mov	 eax, __ehhandler$??$GetAnimationEventConstPtrList_e@$0L@@ioEntityGroup@@QAEHHAAY0L@$$CBDAAV?$vector@PBUAniEventTime@@V?$allocator@PBUAniEventTime@@@std@@@std@@@Z
  00007	e8 00 00 00 00	 call	 __EH_prolog3_GS
  0000c	8b 45 0c	 mov	 eax, DWORD PTR _szEventType$[ebp]
  0000f	8b 75 10	 mov	 esi, DWORD PTR _vEventList$[ebp]
  00012	8b f9		 mov	 edi, ecx

; 424  : 		_ENCSTR(szEventType, szEncEventType);

  00014	8a 08		 mov	 cl, BYTE PTR [eax]
  00016	84 c9		 test	 cl, cl
  00018	0f 84 1b 01 00
	00		 je	 $LN96@GetAnimati@3
  0001e	b2 ed		 mov	 dl, -19			; ffffffedH
  00020	32 ca		 xor	 cl, dl
  00022	88 4d e0	 mov	 BYTE PTR _szEncEventType$[ebp], cl
  00025	8a 48 01	 mov	 cl, BYTE PTR [eax+1]
  00028	84 c9		 test	 cl, cl
  0002a	0f 84 03 01 00
	00		 je	 $LN95@GetAnimati@3
  00030	80 f1 ec	 xor	 cl, -20			; ffffffecH
  00033	88 4d e1	 mov	 BYTE PTR _szEncEventType$[ebp+1], cl
  00036	8a 48 02	 mov	 cl, BYTE PTR [eax+2]
  00039	84 c9		 test	 cl, cl
  0003b	0f 84 ec 00 00
	00		 je	 $LN94@GetAnimati@3
  00041	80 f1 eb	 xor	 cl, -21			; ffffffebH
  00044	88 4d e2	 mov	 BYTE PTR _szEncEventType$[ebp+2], cl
  00047	8a 48 03	 mov	 cl, BYTE PTR [eax+3]
  0004a	84 c9		 test	 cl, cl
  0004c	0f 84 d5 00 00
	00		 je	 $LN93@GetAnimati@3
  00052	80 f1 ea	 xor	 cl, -22			; ffffffeaH
  00055	88 4d e3	 mov	 BYTE PTR _szEncEventType$[ebp+3], cl
  00058	8a 48 04	 mov	 cl, BYTE PTR [eax+4]
  0005b	84 c9		 test	 cl, cl
  0005d	0f 84 bf 00 00
	00		 je	 $LN92@GetAnimati@3
  00063	32 ca		 xor	 cl, dl
  00065	88 4d e4	 mov	 BYTE PTR _szEncEventType$[ebp+4], cl
  00068	8a 48 05	 mov	 cl, BYTE PTR [eax+5]
  0006b	84 c9		 test	 cl, cl
  0006d	0f 84 a9 00 00
	00		 je	 $LN91@GetAnimati@3
  00073	80 f1 ec	 xor	 cl, -20			; ffffffecH
  00076	88 4d e5	 mov	 BYTE PTR _szEncEventType$[ebp+5], cl
  00079	8a 48 06	 mov	 cl, BYTE PTR [eax+6]
  0007c	84 c9		 test	 cl, cl
  0007e	0f 84 92 00 00
	00		 je	 $LN90@GetAnimati@3
  00084	80 f1 eb	 xor	 cl, -21			; ffffffebH
  00087	88 4d e6	 mov	 BYTE PTR _szEncEventType$[ebp+6], cl
  0008a	8a 48 07	 mov	 cl, BYTE PTR [eax+7]
  0008d	84 c9		 test	 cl, cl
  0008f	74 7f		 je	 SHORT $LN89@GetAnimati@3
  00091	80 f1 ea	 xor	 cl, -22			; ffffffeaH
  00094	88 4d e7	 mov	 BYTE PTR _szEncEventType$[ebp+7], cl
  00097	8a 48 08	 mov	 cl, BYTE PTR [eax+8]
  0009a	84 c9		 test	 cl, cl
  0009c	74 6d		 je	 SHORT $LN88@GetAnimati@3
  0009e	32 ca		 xor	 cl, dl
  000a0	88 4d e8	 mov	 BYTE PTR _szEncEventType$[ebp+8], cl
  000a3	8a 48 09	 mov	 cl, BYTE PTR [eax+9]
  000a6	84 c9		 test	 cl, cl
  000a8	74 5b		 je	 SHORT $LN87@GetAnimati@3
  000aa	80 f1 ec	 xor	 cl, -20			; ffffffecH
  000ad	80 78 0a 00	 cmp	 BYTE PTR [eax+10], 0
  000b1	88 4d e9	 mov	 BYTE PTR _szEncEventType$[ebp+9], cl
  000b4	0f 84 83 00 00
	00		 je	 $LN1@GetAnimati@3
  000ba	8a 48 0b	 mov	 cl, BYTE PTR [eax+11]
  000bd	84 c9		 test	 cl, cl
  000bf	74 3e		 je	 SHORT $LN85@GetAnimati@3
  000c1	80 f1 ea	 xor	 cl, -22			; ffffffeaH
  000c4	88 4d eb	 mov	 BYTE PTR _szEncEventType$[ebp+11], cl
  000c7	8a 48 0c	 mov	 cl, BYTE PTR [eax+12]
  000ca	84 c9		 test	 cl, cl
  000cc	74 2c		 je	 SHORT $LN84@GetAnimati@3
  000ce	32 ca		 xor	 cl, dl
  000d0	88 4d ec	 mov	 BYTE PTR _szEncEventType$[ebp+12], cl
  000d3	8a 48 0d	 mov	 cl, BYTE PTR [eax+13]
  000d6	84 c9		 test	 cl, cl
  000d8	74 1a		 je	 SHORT $LN83@GetAnimati@3
  000da	8a 40 0e	 mov	 al, BYTE PTR [eax+14]
  000dd	80 f1 ec	 xor	 cl, -20			; ffffffecH
  000e0	88 4d ed	 mov	 BYTE PTR _szEncEventType$[ebp+13], cl
  000e3	84 c0		 test	 al, al
  000e5	74 07		 je	 SHORT $LN82@GetAnimati@3
  000e7	34 eb		 xor	 al, -21			; ffffffebH
  000e9	88 45 ee	 mov	 BYTE PTR _szEncEventType$[ebp+14], al
  000ec	eb 4f		 jmp	 SHORT $LN1@GetAnimati@3
$LN82@GetAnimati@3:
  000ee	c6 45 ee eb	 mov	 BYTE PTR _szEncEventType$[ebp+14], -21 ; ffffffebH
  000f2	eb 49		 jmp	 SHORT $LN1@GetAnimati@3
$LN83@GetAnimati@3:
  000f4	c6 45 ed ec	 mov	 BYTE PTR _szEncEventType$[ebp+13], -20 ; ffffffecH
  000f8	eb 43		 jmp	 SHORT $LN1@GetAnimati@3
$LN84@GetAnimati@3:
  000fa	88 55 ec	 mov	 BYTE PTR _szEncEventType$[ebp+12], dl
  000fd	eb 3e		 jmp	 SHORT $LN1@GetAnimati@3
$LN85@GetAnimati@3:
  000ff	c6 45 eb ea	 mov	 BYTE PTR _szEncEventType$[ebp+11], -22 ; ffffffeaH
  00103	eb 38		 jmp	 SHORT $LN1@GetAnimati@3
$LN87@GetAnimati@3:
  00105	c6 45 e9 ec	 mov	 BYTE PTR _szEncEventType$[ebp+9], -20 ; ffffffecH
  00109	eb 32		 jmp	 SHORT $LN1@GetAnimati@3
$LN88@GetAnimati@3:
  0010b	88 55 e8	 mov	 BYTE PTR _szEncEventType$[ebp+8], dl
  0010e	eb 2d		 jmp	 SHORT $LN1@GetAnimati@3
$LN89@GetAnimati@3:
  00110	c6 45 e7 ea	 mov	 BYTE PTR _szEncEventType$[ebp+7], -22 ; ffffffeaH
  00114	eb 27		 jmp	 SHORT $LN1@GetAnimati@3
$LN90@GetAnimati@3:
  00116	c6 45 e6 eb	 mov	 BYTE PTR _szEncEventType$[ebp+6], -21 ; ffffffebH
  0011a	eb 21		 jmp	 SHORT $LN1@GetAnimati@3
$LN91@GetAnimati@3:
  0011c	c6 45 e5 ec	 mov	 BYTE PTR _szEncEventType$[ebp+5], -20 ; ffffffecH
  00120	eb 1b		 jmp	 SHORT $LN1@GetAnimati@3
$LN92@GetAnimati@3:
  00122	88 55 e4	 mov	 BYTE PTR _szEncEventType$[ebp+4], dl
  00125	eb 16		 jmp	 SHORT $LN1@GetAnimati@3
$LN93@GetAnimati@3:
  00127	c6 45 e3 ea	 mov	 BYTE PTR _szEncEventType$[ebp+3], -22 ; ffffffeaH
  0012b	eb 10		 jmp	 SHORT $LN1@GetAnimati@3
$LN94@GetAnimati@3:
  0012d	c6 45 e2 eb	 mov	 BYTE PTR _szEncEventType$[ebp+2], -21 ; ffffffebH
  00131	eb 0a		 jmp	 SHORT $LN1@GetAnimati@3
$LN95@GetAnimati@3:
  00133	c6 45 e1 ec	 mov	 BYTE PTR _szEncEventType$[ebp+1], -20 ; ffffffecH
  00137	eb 04		 jmp	 SHORT $LN1@GetAnimati@3
$LN96@GetAnimati@3:
  00139	c6 45 e0 ed	 mov	 BYTE PTR _szEncEventType$[ebp], -19 ; ffffffedH
$LN1@GetAnimati@3:
  0013d	6a 02		 push	 2
  0013f	8d 45 e0	 lea	 eax, DWORD PTR _szEncEventType$[ebp]
  00142	c6 45 ea 00	 mov	 BYTE PTR _szEncEventType$[ebp+10], 0
  00146	59		 pop	 ecx
$LL105@GetAnimati@3:
  00147	81 30 ed ec eb
	ea		 xor	 DWORD PTR [eax], -353637139 ; eaebecedH
  0014d	83 c0 04	 add	 eax, 4
  00150	49		 dec	 ecx
  00151	75 f4		 jne	 SHORT $LL105@GetAnimati@3
  00153	6a 08		 push	 8
  00155	58		 pop	 eax
$LL102@GetAnimati@3:
  00156	8b c8		 mov	 ecx, eax
  00158	81 e1 03 00 00
	80		 and	 ecx, -2147483645	; 80000003H
  0015e	79 05		 jns	 SHORT $LN113@GetAnimati@3
  00160	49		 dec	 ecx
  00161	83 c9 fc	 or	 ecx, -4			; fffffffcH
  00164	41		 inc	 ecx
$LN113@GetAnimati@3:
  00165	b2 ed		 mov	 dl, -19			; ffffffedH
  00167	2a d1		 sub	 dl, cl
  00169	30 54 05 e0	 xor	 BYTE PTR _szEncEventType$[ebp+eax], dl
  0016d	40		 inc	 eax
  0016e	83 f8 0a	 cmp	 eax, 10			; 0000000aH
  00171	7c e3		 jl	 SHORT $LL102@GetAnimati@3

; 425  : 		return GetAnimationEventConstPtrList(id, szEncEventType, vEventList);

  00173	8d 45 e0	 lea	 eax, DWORD PTR _szEncEventType$[ebp]
  00176	50		 push	 eax
  00177	8d 4d d0	 lea	 ecx, DWORD PTR $T536901[ebp]
  0017a	ff 15 00 00 00
	00		 call	 DWORD PTR __imp_??0ioHashString@@QAE@PBD@Z
  00180	83 65 fc 00	 and	 DWORD PTR __$EHRec$[ebp+8], 0
  00184	56		 push	 esi
  00185	8d 45 d0	 lea	 eax, DWORD PTR $T536901[ebp]
  00188	50		 push	 eax
  00189	ff 75 08	 push	 DWORD PTR _id$[ebp]
  0018c	8b cf		 mov	 ecx, edi
  0018e	ff 15 00 00 00
	00		 call	 DWORD PTR __imp_?GetAnimationEventConstPtrList@ioEntityGroup@@QAEHHABVioHashString@@AAV?$vector@PBUAniEventTime@@V?$allocator@PBUAniEventTime@@@std@@@std@@@Z
  00194	83 4d fc ff	 or	 DWORD PTR __$EHRec$[ebp+8], -1
  00198	8d 4d d0	 lea	 ecx, DWORD PTR $T536901[ebp]
  0019b	8b f0		 mov	 esi, eax
  0019d	ff 15 00 00 00
	00		 call	 DWORD PTR __imp_??1ioHashString@@QAE@XZ
  001a3	8b c6		 mov	 eax, esi

; 426  : 	}

  001a5	e8 00 00 00 00	 call	 __EH_epilog3_GS
  001aa	c2 0c 00	 ret	 12			; 0000000cH
_TEXT	ENDS
;	COMDAT text$x
text$x	SEGMENT
__unwindfunclet$??$GetAnimationEventConstPtrList_e@$0L@@ioEntityGroup@@QAEHHAAY0L@$$CBDAAV?$vector@PBUAniEventTime@@V?$allocator@PBUAniEventTime@@@std@@@std@@@Z$0:
  00000	8d 4d d0	 lea	 ecx, DWORD PTR $T536901[ebp]
  00003	ff 25 00 00 00
	00		 jmp	 DWORD PTR __imp_??1ioHashString@@QAE@XZ
__ehhandler$??$GetAnimationEventConstPtrList_e@$0L@@ioEntityGroup@@QAEHHAAY0L@$$CBDAAV?$vector@PBUAniEventTime@@V?$allocator@PBUAniEventTime@@@std@@@std@@@Z:
  00009	8b 54 24 08	 mov	 edx, DWORD PTR [esp+8]
  0000d	8d 42 0c	 lea	 eax, DWORD PTR [edx+12]
  00010	8b 4a cc	 mov	 ecx, DWORD PTR [edx-52]
  00013	33 c8		 xor	 ecx, eax
  00015	e8 00 00 00 00	 call	 @__security_check_cookie@4
  0001a	8b 4a fc	 mov	 ecx, DWORD PTR [edx-4]
  0001d	33 c8		 xor	 ecx, eax
  0001f	e8 00 00 00 00	 call	 @__security_check_cookie@4
  00024	b8 00 00 00 00	 mov	 eax, OFFSET __ehfuncinfo$??$GetAnimationEventConstPtrList_e@$0L@@ioEntityGroup@@QAEHHAAY0L@$$CBDAAV?$vector@PBUAniEventTime@@V?$allocator@PBUAniEventTime@@@std@@@std@@@Z
  00029	e9 00 00 00 00	 jmp	 ___CxxFrameHandler3
text$x	ENDS
??$GetAnimationEventConstPtrList_e@$0L@@ioEntityGroup@@QAEHHAAY0L@$$CBDAAV?$vector@PBUAniEventTime@@V?$allocator@PBUAniEventTime@@@std@@@std@@@Z ENDP ; ioEntityGroup::GetAnimationEventConstPtrList_e<11>
PUBLIC	??$GetAnimationEventTime_e@$0N@@ioEntityGroup@@QAEMHAAY0N@$$CBD@Z ; ioEntityGroup::GetAnimationEventTime_e<13>
;	COMDAT xdata$x
; File d:\lost saga for developer\youtube\tutorial\source\src\lsclient\stringprotect.h
xdata$x	SEGMENT
__unwindtable$??$GetAnimationEventTime_e@$0N@@ioEntityGroup@@QAEMHAAY0N@$$CBD@Z DD 0ffffffffH
	DD	FLAT:__unwindfunclet$??$GetAnimationEventTime_e@$0N@@ioEntityGroup@@QAEMHAAY0N@$$CBD@Z$0
__ehfuncinfo$??$GetAnimationEventTime_e@$0N@@ioEntityGroup@@QAEMHAAY0N@$$CBD@Z DD 019930522H
	DD	01H
	DD	FLAT:__unwindtable$??$GetAnimationEventTime_e@$0N@@ioEntityGroup@@QAEMHAAY0N@$$CBD@Z
	DD	2 DUP(00H)
	DD	2 DUP(00H)
	DD	00H
	DD	01H
; Function compile flags: /Ogsp
; File d:\lost saga for developer\youtube\tutorial\source\src\io3dengine\ioentitygroup.h
xdata$x	ENDS
;	COMDAT ??$GetAnimationEventTime_e@$0N@@ioEntityGroup@@QAEMHAAY0N@$$CBD@Z
_TEXT	SEGMENT
$T536933 = -56						; size = 16
$T536932 = -40						; size = 4
_szEncEventType$ = -36					; size = 13
__$EHRec$ = -12						; size = 12
_id$ = 8						; size = 4
_szEventType$ = 12					; size = 4
??$GetAnimationEventTime_e@$0N@@ioEntityGroup@@QAEMHAAY0N@$$CBD@Z PROC ; ioEntityGroup::GetAnimationEventTime_e<13>, COMDAT
; _this$ = ecx

; 414  : 	{

  00000	6a 2c		 push	 44			; 0000002cH
  00002	b8 00 00 00 00	 mov	 eax, __ehhandler$??$GetAnimationEventTime_e@$0N@@ioEntityGroup@@QAEMHAAY0N@$$CBD@Z
  00007	e8 00 00 00 00	 call	 __EH_prolog3_GS
  0000c	8b 45 0c	 mov	 eax, DWORD PTR _szEventType$[ebp]
  0000f	8b f1		 mov	 esi, ecx

; 415  : 		_ENCSTR(szEventType, szEncEventType);

  00011	8a 08		 mov	 cl, BYTE PTR [eax]
  00013	84 c9		 test	 cl, cl
  00015	0f 84 49 01 00
	00		 je	 $LN96@GetAnimati@4
  0001b	80 f1 ed	 xor	 cl, -19			; ffffffedH
  0001e	88 4d dc	 mov	 BYTE PTR _szEncEventType$[ebp], cl
  00021	8a 48 01	 mov	 cl, BYTE PTR [eax+1]
  00024	84 c9		 test	 cl, cl
  00026	0f 84 32 01 00
	00		 je	 $LN95@GetAnimati@4
  0002c	80 f1 ec	 xor	 cl, -20			; ffffffecH
  0002f	88 4d dd	 mov	 BYTE PTR _szEncEventType$[ebp+1], cl
  00032	8a 48 02	 mov	 cl, BYTE PTR [eax+2]
  00035	84 c9		 test	 cl, cl
  00037	0f 84 1b 01 00
	00		 je	 $LN94@GetAnimati@4
  0003d	b2 eb		 mov	 dl, -21			; ffffffebH
  0003f	32 ca		 xor	 cl, dl
  00041	88 4d de	 mov	 BYTE PTR _szEncEventType$[ebp+2], cl
  00044	8a 48 03	 mov	 cl, BYTE PTR [eax+3]
  00047	84 c9		 test	 cl, cl
  00049	0f 84 03 01 00
	00		 je	 $LN93@GetAnimati@4
  0004f	80 f1 ea	 xor	 cl, -22			; ffffffeaH
  00052	88 4d df	 mov	 BYTE PTR _szEncEventType$[ebp+3], cl
  00055	8a 48 04	 mov	 cl, BYTE PTR [eax+4]
  00058	84 c9		 test	 cl, cl
  0005a	0f 84 ec 00 00
	00		 je	 $LN92@GetAnimati@4
  00060	80 f1 ed	 xor	 cl, -19			; ffffffedH
  00063	88 4d e0	 mov	 BYTE PTR _szEncEventType$[ebp+4], cl
  00066	8a 48 05	 mov	 cl, BYTE PTR [eax+5]
  00069	84 c9		 test	 cl, cl
  0006b	0f 84 d5 00 00
	00		 je	 $LN91@GetAnimati@4
  00071	80 f1 ec	 xor	 cl, -20			; ffffffecH
  00074	88 4d e1	 mov	 BYTE PTR _szEncEventType$[ebp+5], cl
  00077	8a 48 06	 mov	 cl, BYTE PTR [eax+6]
  0007a	84 c9		 test	 cl, cl
  0007c	0f 84 bf 00 00
	00		 je	 $LN90@GetAnimati@4
  00082	32 ca		 xor	 cl, dl
  00084	88 4d e2	 mov	 BYTE PTR _szEncEventType$[ebp+6], cl
  00087	8a 48 07	 mov	 cl, BYTE PTR [eax+7]
  0008a	84 c9		 test	 cl, cl
  0008c	0f 84 a9 00 00
	00		 je	 $LN89@GetAnimati@4
  00092	80 f1 ea	 xor	 cl, -22			; ffffffeaH
  00095	88 4d e3	 mov	 BYTE PTR _szEncEventType$[ebp+7], cl
  00098	8a 48 08	 mov	 cl, BYTE PTR [eax+8]
  0009b	84 c9		 test	 cl, cl
  0009d	0f 84 92 00 00
	00		 je	 $LN88@GetAnimati@4
  000a3	80 f1 ed	 xor	 cl, -19			; ffffffedH
  000a6	88 4d e4	 mov	 BYTE PTR _szEncEventType$[ebp+8], cl
  000a9	8a 48 09	 mov	 cl, BYTE PTR [eax+9]
  000ac	84 c9		 test	 cl, cl
  000ae	74 7f		 je	 SHORT $LN87@GetAnimati@4
  000b0	80 f1 ec	 xor	 cl, -20			; ffffffecH
  000b3	88 4d e5	 mov	 BYTE PTR _szEncEventType$[ebp+9], cl
  000b6	8a 48 0a	 mov	 cl, BYTE PTR [eax+10]
  000b9	84 c9		 test	 cl, cl
  000bb	74 6d		 je	 SHORT $LN86@GetAnimati@4
  000bd	32 ca		 xor	 cl, dl
  000bf	88 4d e6	 mov	 BYTE PTR _szEncEventType$[ebp+10], cl
  000c2	8a 48 0b	 mov	 cl, BYTE PTR [eax+11]
  000c5	84 c9		 test	 cl, cl
  000c7	74 5b		 je	 SHORT $LN85@GetAnimati@4
  000c9	80 f1 ea	 xor	 cl, -22			; ffffffeaH
  000cc	80 78 0c 00	 cmp	 BYTE PTR [eax+12], 0
  000d0	88 4d e7	 mov	 BYTE PTR _szEncEventType$[ebp+11], cl
  000d3	0f 84 8f 00 00
	00		 je	 $LN1@GetAnimati@4
  000d9	8a 48 0d	 mov	 cl, BYTE PTR [eax+13]
  000dc	84 c9		 test	 cl, cl
  000de	74 3e		 je	 SHORT $LN83@GetAnimati@4
  000e0	80 f1 ec	 xor	 cl, -20			; ffffffecH
  000e3	88 4d e9	 mov	 BYTE PTR _szEncEventType$[ebp+13], cl
  000e6	8a 48 0e	 mov	 cl, BYTE PTR [eax+14]
  000e9	84 c9		 test	 cl, cl
  000eb	74 2c		 je	 SHORT $LN82@GetAnimati@4
  000ed	32 ca		 xor	 cl, dl
  000ef	88 4d ea	 mov	 BYTE PTR _szEncEventType$[ebp+14], cl
  000f2	8a 48 0f	 mov	 cl, BYTE PTR [eax+15]
  000f5	84 c9		 test	 cl, cl
  000f7	74 1a		 je	 SHORT $LN81@GetAnimati@4
  000f9	8a 40 10	 mov	 al, BYTE PTR [eax+16]
  000fc	80 f1 ea	 xor	 cl, -22			; ffffffeaH
  000ff	88 4d eb	 mov	 BYTE PTR _szEncEventType$[ebp+15], cl
  00102	84 c0		 test	 al, al
  00104	74 07		 je	 SHORT $LN80@GetAnimati@4
  00106	34 ed		 xor	 al, -19			; ffffffedH
  00108	88 45 ec	 mov	 BYTE PTR _szEncEventType$[ebp+16], al
  0010b	eb 5b		 jmp	 SHORT $LN1@GetAnimati@4
$LN80@GetAnimati@4:
  0010d	c6 45 ec ed	 mov	 BYTE PTR _szEncEventType$[ebp+16], -19 ; ffffffedH
  00111	eb 55		 jmp	 SHORT $LN1@GetAnimati@4
$LN81@GetAnimati@4:
  00113	c6 45 eb ea	 mov	 BYTE PTR _szEncEventType$[ebp+15], -22 ; ffffffeaH
  00117	eb 4f		 jmp	 SHORT $LN1@GetAnimati@4
$LN82@GetAnimati@4:
  00119	88 55 ea	 mov	 BYTE PTR _szEncEventType$[ebp+14], dl
  0011c	eb 4a		 jmp	 SHORT $LN1@GetAnimati@4
$LN83@GetAnimati@4:
  0011e	c6 45 e9 ec	 mov	 BYTE PTR _szEncEventType$[ebp+13], -20 ; ffffffecH
  00122	eb 44		 jmp	 SHORT $LN1@GetAnimati@4
$LN85@GetAnimati@4:
  00124	c6 45 e7 ea	 mov	 BYTE PTR _szEncEventType$[ebp+11], -22 ; ffffffeaH
  00128	eb 3e		 jmp	 SHORT $LN1@GetAnimati@4
$LN86@GetAnimati@4:
  0012a	88 55 e6	 mov	 BYTE PTR _szEncEventType$[ebp+10], dl
  0012d	eb 39		 jmp	 SHORT $LN1@GetAnimati@4
$LN87@GetAnimati@4:
  0012f	c6 45 e5 ec	 mov	 BYTE PTR _szEncEventType$[ebp+9], -20 ; ffffffecH
  00133	eb 33		 jmp	 SHORT $LN1@GetAnimati@4
$LN88@GetAnimati@4:
  00135	c6 45 e4 ed	 mov	 BYTE PTR _szEncEventType$[ebp+8], -19 ; ffffffedH
  00139	eb 2d		 jmp	 SHORT $LN1@GetAnimati@4
$LN89@GetAnimati@4:
  0013b	c6 45 e3 ea	 mov	 BYTE PTR _szEncEventType$[ebp+7], -22 ; ffffffeaH
  0013f	eb 27		 jmp	 SHORT $LN1@GetAnimati@4
$LN90@GetAnimati@4:
  00141	88 55 e2	 mov	 BYTE PTR _szEncEventType$[ebp+6], dl
  00144	eb 22		 jmp	 SHORT $LN1@GetAnimati@4
$LN91@GetAnimati@4:
  00146	c6 45 e1 ec	 mov	 BYTE PTR _szEncEventType$[ebp+5], -20 ; ffffffecH
  0014a	eb 1c		 jmp	 SHORT $LN1@GetAnimati@4
$LN92@GetAnimati@4:
  0014c	c6 45 e0 ed	 mov	 BYTE PTR _szEncEventType$[ebp+4], -19 ; ffffffedH
  00150	eb 16		 jmp	 SHORT $LN1@GetAnimati@4
$LN93@GetAnimati@4:
  00152	c6 45 df ea	 mov	 BYTE PTR _szEncEventType$[ebp+3], -22 ; ffffffeaH
  00156	eb 10		 jmp	 SHORT $LN1@GetAnimati@4
$LN94@GetAnimati@4:
  00158	c6 45 de eb	 mov	 BYTE PTR _szEncEventType$[ebp+2], -21 ; ffffffebH
  0015c	eb 0a		 jmp	 SHORT $LN1@GetAnimati@4
$LN95@GetAnimati@4:
  0015e	c6 45 dd ec	 mov	 BYTE PTR _szEncEventType$[ebp+1], -20 ; ffffffecH
  00162	eb 04		 jmp	 SHORT $LN1@GetAnimati@4
$LN96@GetAnimati@4:
  00164	c6 45 dc ed	 mov	 BYTE PTR _szEncEventType$[ebp], -19 ; ffffffedH
$LN1@GetAnimati@4:
  00168	6a 03		 push	 3
  0016a	8d 45 dc	 lea	 eax, DWORD PTR _szEncEventType$[ebp]
  0016d	c6 45 e8 00	 mov	 BYTE PTR _szEncEventType$[ebp+12], 0
  00171	59		 pop	 ecx
$LL105@GetAnimati@4:
  00172	81 30 ed ec eb
	ea		 xor	 DWORD PTR [eax], -353637139 ; eaebecedH
  00178	83 c0 04	 add	 eax, 4
  0017b	49		 dec	 ecx
  0017c	75 f4		 jne	 SHORT $LL105@GetAnimati@4

; 416  : 		return GetAnimationEventTime(id, szEncEventType);

  0017e	8d 45 dc	 lea	 eax, DWORD PTR _szEncEventType$[ebp]
  00181	50		 push	 eax
  00182	8d 4d c8	 lea	 ecx, DWORD PTR $T536933[ebp]
  00185	ff 15 00 00 00
	00		 call	 DWORD PTR __imp_??0ioHashString@@QAE@PBD@Z
  0018b	83 65 fc 00	 and	 DWORD PTR __$EHRec$[ebp+8], 0
  0018f	8d 45 c8	 lea	 eax, DWORD PTR $T536933[ebp]
  00192	50		 push	 eax
  00193	ff 75 08	 push	 DWORD PTR _id$[ebp]
  00196	8b ce		 mov	 ecx, esi
  00198	ff 15 00 00 00
	00		 call	 DWORD PTR __imp_?GetAnimationEventTime@ioEntityGroup@@QAEMHABVioHashString@@@Z
  0019e	d9 5d d8	 fstp	 DWORD PTR $T536932[ebp]
  001a1	83 4d fc ff	 or	 DWORD PTR __$EHRec$[ebp+8], -1
  001a5	8d 4d c8	 lea	 ecx, DWORD PTR $T536933[ebp]
  001a8	ff 15 00 00 00
	00		 call	 DWORD PTR __imp_??1ioHashString@@QAE@XZ
  001ae	d9 45 d8	 fld	 DWORD PTR $T536932[ebp]

; 417  : 	}

  001b1	e8 00 00 00 00	 call	 __EH_epilog3_GS
  001b6	c2 08 00	 ret	 8
_TEXT	ENDS
;	COMDAT text$x
text$x	SEGMENT
__unwindfunclet$??$GetAnimationEventTime_e@$0N@@ioEntityGroup@@QAEMHAAY0N@$$CBD@Z$0:
  00000	8d 4d c8	 lea	 ecx, DWORD PTR $T536933[ebp]
  00003	ff 25 00 00 00
	00		 jmp	 DWORD PTR __imp_??1ioHashString@@QAE@XZ
__ehhandler$??$GetAnimationEventTime_e@$0N@@ioEntityGroup@@QAEMHAAY0N@$$CBD@Z:
  00009	8b 54 24 08	 mov	 edx, DWORD PTR [esp+8]
  0000d	8d 42 0c	 lea	 eax, DWORD PTR [edx+12]
  00010	8b 4a c4	 mov	 ecx, DWORD PTR [edx-60]
  00013	33 c8		 xor	 ecx, eax
  00015	e8 00 00 00 00	 call	 @__security_check_cookie@4
  0001a	8b 4a fc	 mov	 ecx, DWORD PTR [edx-4]
  0001d	33 c8		 xor	 ecx, eax
  0001f	e8 00 00 00 00	 call	 @__security_check_cookie@4
  00024	b8 00 00 00 00	 mov	 eax, OFFSET __ehfuncinfo$??$GetAnimationEventTime_e@$0N@@ioEntityGroup@@QAEMHAAY0N@$$CBD@Z
  00029	e9 00 00 00 00	 jmp	 ___CxxFrameHandler3
text$x	ENDS
??$GetAnimationEventTime_e@$0N@@ioEntityGroup@@QAEMHAAY0N@$$CBD@Z ENDP ; ioEntityGroup::GetAnimationEventTime_e<13>
PUBLIC	??$GetAnimationEventTime_e@$0M@@ioEntityGroup@@QAEMHAAY0M@$$CBD@Z ; ioEntityGroup::GetAnimationEventTime_e<12>
;	COMDAT xdata$x
; File d:\lost saga for developer\youtube\tutorial\source\src\lsclient\stringprotect.h
xdata$x	SEGMENT
__unwindtable$??$GetAnimationEventTime_e@$0M@@ioEntityGroup@@QAEMHAAY0M@$$CBD@Z DD 0ffffffffH
	DD	FLAT:__unwindfunclet$??$GetAnimationEventTime_e@$0M@@ioEntityGroup@@QAEMHAAY0M@$$CBD@Z$0
__ehfuncinfo$??$GetAnimationEventTime_e@$0M@@ioEntityGroup@@QAEMHAAY0M@$$CBD@Z DD 019930522H
	DD	01H
	DD	FLAT:__unwindtable$??$GetAnimationEventTime_e@$0M@@ioEntityGroup@@QAEMHAAY0M@$$CBD@Z
	DD	2 DUP(00H)
	DD	2 DUP(00H)
	DD	00H
	DD	01H
; Function compile flags: /Ogsp
; File d:\lost saga for developer\youtube\tutorial\source\src\io3dengine\ioentitygroup.h
xdata$x	ENDS
;	COMDAT ??$GetAnimationEventTime_e@$0M@@ioEntityGroup@@QAEMHAAY0M@$$CBD@Z
_TEXT	SEGMENT
$T536963 = -52						; size = 16
$T536962 = -36						; size = 4
_szEncEventType$ = -32					; size = 12
__$EHRec$ = -12						; size = 12
_id$ = 8						; size = 4
_szEventType$ = 12					; size = 4
??$GetAnimationEventTime_e@$0M@@ioEntityGroup@@QAEMHAAY0M@$$CBD@Z PROC ; ioEntityGroup::GetAnimationEventTime_e<12>, COMDAT
; _this$ = ecx

; 414  : 	{

  00000	6a 28		 push	 40			; 00000028H
  00002	b8 00 00 00 00	 mov	 eax, __ehhandler$??$GetAnimationEventTime_e@$0M@@ioEntityGroup@@QAEMHAAY0M@$$CBD@Z
  00007	e8 00 00 00 00	 call	 __EH_prolog3_GS
  0000c	8b 45 0c	 mov	 eax, DWORD PTR _szEventType$[ebp]
  0000f	8b f1		 mov	 esi, ecx

; 415  : 		_ENCSTR(szEventType, szEncEventType);

  00011	8a 08		 mov	 cl, BYTE PTR [eax]
  00013	84 c9		 test	 cl, cl
  00015	0f 84 36 01 00
	00		 je	 $LN96@GetAnimati@5
  0001b	b2 ed		 mov	 dl, -19			; ffffffedH
  0001d	32 ca		 xor	 cl, dl
  0001f	88 4d e0	 mov	 BYTE PTR _szEncEventType$[ebp], cl
  00022	8a 48 01	 mov	 cl, BYTE PTR [eax+1]
  00025	84 c9		 test	 cl, cl
  00027	0f 84 1e 01 00
	00		 je	 $LN95@GetAnimati@5
  0002d	80 f1 ec	 xor	 cl, -20			; ffffffecH
  00030	88 4d e1	 mov	 BYTE PTR _szEncEventType$[ebp+1], cl
  00033	8a 48 02	 mov	 cl, BYTE PTR [eax+2]
  00036	84 c9		 test	 cl, cl
  00038	0f 84 07 01 00
	00		 je	 $LN94@GetAnimati@5
  0003e	80 f1 eb	 xor	 cl, -21			; ffffffebH
  00041	88 4d e2	 mov	 BYTE PTR _szEncEventType$[ebp+2], cl
  00044	8a 48 03	 mov	 cl, BYTE PTR [eax+3]
  00047	84 c9		 test	 cl, cl
  00049	0f 84 f0 00 00
	00		 je	 $LN93@GetAnimati@5
  0004f	80 f1 ea	 xor	 cl, -22			; ffffffeaH
  00052	88 4d e3	 mov	 BYTE PTR _szEncEventType$[ebp+3], cl
  00055	8a 48 04	 mov	 cl, BYTE PTR [eax+4]
  00058	84 c9		 test	 cl, cl
  0005a	0f 84 da 00 00
	00		 je	 $LN92@GetAnimati@5
  00060	32 ca		 xor	 cl, dl
  00062	88 4d e4	 mov	 BYTE PTR _szEncEventType$[ebp+4], cl
  00065	8a 48 05	 mov	 cl, BYTE PTR [eax+5]
  00068	84 c9		 test	 cl, cl
  0006a	0f 84 c4 00 00
	00		 je	 $LN91@GetAnimati@5
  00070	80 f1 ec	 xor	 cl, -20			; ffffffecH
  00073	88 4d e5	 mov	 BYTE PTR _szEncEventType$[ebp+5], cl
  00076	8a 48 06	 mov	 cl, BYTE PTR [eax+6]
  00079	84 c9		 test	 cl, cl
  0007b	0f 84 ad 00 00
	00		 je	 $LN90@GetAnimati@5
  00081	80 f1 eb	 xor	 cl, -21			; ffffffebH
  00084	88 4d e6	 mov	 BYTE PTR _szEncEventType$[ebp+6], cl
  00087	8a 48 07	 mov	 cl, BYTE PTR [eax+7]
  0008a	84 c9		 test	 cl, cl
  0008c	0f 84 96 00 00
	00		 je	 $LN89@GetAnimati@5
  00092	80 f1 ea	 xor	 cl, -22			; ffffffeaH
  00095	88 4d e7	 mov	 BYTE PTR _szEncEventType$[ebp+7], cl
  00098	8a 48 08	 mov	 cl, BYTE PTR [eax+8]
  0009b	84 c9		 test	 cl, cl
  0009d	0f 84 80 00 00
	00		 je	 $LN88@GetAnimati@5
  000a3	32 ca		 xor	 cl, dl
  000a5	88 4d e8	 mov	 BYTE PTR _szEncEventType$[ebp+8], cl
  000a8	8a 48 09	 mov	 cl, BYTE PTR [eax+9]
  000ab	84 c9		 test	 cl, cl
  000ad	74 6e		 je	 SHORT $LN87@GetAnimati@5
  000af	80 f1 ec	 xor	 cl, -20			; ffffffecH
  000b2	88 4d e9	 mov	 BYTE PTR _szEncEventType$[ebp+9], cl
  000b5	8a 48 0a	 mov	 cl, BYTE PTR [eax+10]
  000b8	84 c9		 test	 cl, cl
  000ba	74 5b		 je	 SHORT $LN86@GetAnimati@5
  000bc	80 f1 eb	 xor	 cl, -21			; ffffffebH
  000bf	80 78 0b 00	 cmp	 BYTE PTR [eax+11], 0
  000c3	88 4d ea	 mov	 BYTE PTR _szEncEventType$[ebp+10], cl
  000c6	0f 84 89 00 00
	00		 je	 $LN1@GetAnimati@5
  000cc	8a 48 0c	 mov	 cl, BYTE PTR [eax+12]
  000cf	84 c9		 test	 cl, cl
  000d1	74 3f		 je	 SHORT $LN84@GetAnimati@5
  000d3	32 ca		 xor	 cl, dl
  000d5	88 4d ec	 mov	 BYTE PTR _szEncEventType$[ebp+12], cl
  000d8	8a 48 0d	 mov	 cl, BYTE PTR [eax+13]
  000db	84 c9		 test	 cl, cl
  000dd	74 2d		 je	 SHORT $LN83@GetAnimati@5
  000df	80 f1 ec	 xor	 cl, -20			; ffffffecH
  000e2	88 4d ed	 mov	 BYTE PTR _szEncEventType$[ebp+13], cl
  000e5	8a 48 0e	 mov	 cl, BYTE PTR [eax+14]
  000e8	84 c9		 test	 cl, cl
  000ea	74 1a		 je	 SHORT $LN82@GetAnimati@5
  000ec	8a 40 0f	 mov	 al, BYTE PTR [eax+15]
  000ef	80 f1 eb	 xor	 cl, -21			; ffffffebH
  000f2	88 4d ee	 mov	 BYTE PTR _szEncEventType$[ebp+14], cl
  000f5	84 c0		 test	 al, al
  000f7	74 07		 je	 SHORT $LN81@GetAnimati@5
  000f9	34 ea		 xor	 al, -22			; ffffffeaH
  000fb	88 45 ef	 mov	 BYTE PTR _szEncEventType$[ebp+15], al
  000fe	eb 55		 jmp	 SHORT $LN1@GetAnimati@5
$LN81@GetAnimati@5:
  00100	c6 45 ef ea	 mov	 BYTE PTR _szEncEventType$[ebp+15], -22 ; ffffffeaH
  00104	eb 4f		 jmp	 SHORT $LN1@GetAnimati@5
$LN82@GetAnimati@5:
  00106	c6 45 ee eb	 mov	 BYTE PTR _szEncEventType$[ebp+14], -21 ; ffffffebH
  0010a	eb 49		 jmp	 SHORT $LN1@GetAnimati@5
$LN83@GetAnimati@5:
  0010c	c6 45 ed ec	 mov	 BYTE PTR _szEncEventType$[ebp+13], -20 ; ffffffecH
  00110	eb 43		 jmp	 SHORT $LN1@GetAnimati@5
$LN84@GetAnimati@5:
  00112	88 55 ec	 mov	 BYTE PTR _szEncEventType$[ebp+12], dl
  00115	eb 3e		 jmp	 SHORT $LN1@GetAnimati@5
$LN86@GetAnimati@5:
  00117	c6 45 ea eb	 mov	 BYTE PTR _szEncEventType$[ebp+10], -21 ; ffffffebH
  0011b	eb 38		 jmp	 SHORT $LN1@GetAnimati@5
$LN87@GetAnimati@5:
  0011d	c6 45 e9 ec	 mov	 BYTE PTR _szEncEventType$[ebp+9], -20 ; ffffffecH
  00121	eb 32		 jmp	 SHORT $LN1@GetAnimati@5
$LN88@GetAnimati@5:
  00123	88 55 e8	 mov	 BYTE PTR _szEncEventType$[ebp+8], dl
  00126	eb 2d		 jmp	 SHORT $LN1@GetAnimati@5
$LN89@GetAnimati@5:
  00128	c6 45 e7 ea	 mov	 BYTE PTR _szEncEventType$[ebp+7], -22 ; ffffffeaH
  0012c	eb 27		 jmp	 SHORT $LN1@GetAnimati@5
$LN90@GetAnimati@5:
  0012e	c6 45 e6 eb	 mov	 BYTE PTR _szEncEventType$[ebp+6], -21 ; ffffffebH
  00132	eb 21		 jmp	 SHORT $LN1@GetAnimati@5
$LN91@GetAnimati@5:
  00134	c6 45 e5 ec	 mov	 BYTE PTR _szEncEventType$[ebp+5], -20 ; ffffffecH
  00138	eb 1b		 jmp	 SHORT $LN1@GetAnimati@5
$LN92@GetAnimati@5:
  0013a	88 55 e4	 mov	 BYTE PTR _szEncEventType$[ebp+4], dl
  0013d	eb 16		 jmp	 SHORT $LN1@GetAnimati@5
$LN93@GetAnimati@5:
  0013f	c6 45 e3 ea	 mov	 BYTE PTR _szEncEventType$[ebp+3], -22 ; ffffffeaH
  00143	eb 10		 jmp	 SHORT $LN1@GetAnimati@5
$LN94@GetAnimati@5:
  00145	c6 45 e2 eb	 mov	 BYTE PTR _szEncEventType$[ebp+2], -21 ; ffffffebH
  00149	eb 0a		 jmp	 SHORT $LN1@GetAnimati@5
$LN95@GetAnimati@5:
  0014b	c6 45 e1 ec	 mov	 BYTE PTR _szEncEventType$[ebp+1], -20 ; ffffffecH
  0014f	eb 04		 jmp	 SHORT $LN1@GetAnimati@5
$LN96@GetAnimati@5:
  00151	c6 45 e0 ed	 mov	 BYTE PTR _szEncEventType$[ebp], -19 ; ffffffedH
$LN1@GetAnimati@5:
  00155	6a 02		 push	 2
  00157	8d 45 e0	 lea	 eax, DWORD PTR _szEncEventType$[ebp]
  0015a	c6 45 eb 00	 mov	 BYTE PTR _szEncEventType$[ebp+11], 0
  0015e	59		 pop	 ecx
$LL105@GetAnimati@5:
  0015f	81 30 ed ec eb
	ea		 xor	 DWORD PTR [eax], -353637139 ; eaebecedH
  00165	83 c0 04	 add	 eax, 4
  00168	49		 dec	 ecx
  00169	75 f4		 jne	 SHORT $LL105@GetAnimati@5
  0016b	6a 08		 push	 8
  0016d	58		 pop	 eax
$LL102@GetAnimati@5:
  0016e	8b c8		 mov	 ecx, eax
  00170	81 e1 03 00 00
	80		 and	 ecx, -2147483645	; 80000003H
  00176	79 05		 jns	 SHORT $LN113@GetAnimati@5
  00178	49		 dec	 ecx
  00179	83 c9 fc	 or	 ecx, -4			; fffffffcH
  0017c	41		 inc	 ecx
$LN113@GetAnimati@5:
  0017d	b2 ed		 mov	 dl, -19			; ffffffedH
  0017f	2a d1		 sub	 dl, cl
  00181	30 54 05 e0	 xor	 BYTE PTR _szEncEventType$[ebp+eax], dl
  00185	40		 inc	 eax
  00186	83 f8 0b	 cmp	 eax, 11			; 0000000bH
  00189	7c e3		 jl	 SHORT $LL102@GetAnimati@5

; 416  : 		return GetAnimationEventTime(id, szEncEventType);

  0018b	8d 45 e0	 lea	 eax, DWORD PTR _szEncEventType$[ebp]
  0018e	50		 push	 eax
  0018f	8d 4d cc	 lea	 ecx, DWORD PTR $T536963[ebp]
  00192	ff 15 00 00 00
	00		 call	 DWORD PTR __imp_??0ioHashString@@QAE@PBD@Z
  00198	83 65 fc 00	 and	 DWORD PTR __$EHRec$[ebp+8], 0
  0019c	8d 45 cc	 lea	 eax, DWORD PTR $T536963[ebp]
  0019f	50		 push	 eax
  001a0	ff 75 08	 push	 DWORD PTR _id$[ebp]
  001a3	8b ce		 mov	 ecx, esi
  001a5	ff 15 00 00 00
	00		 call	 DWORD PTR __imp_?GetAnimationEventTime@ioEntityGroup@@QAEMHABVioHashString@@@Z
  001ab	d9 5d dc	 fstp	 DWORD PTR $T536962[ebp]
  001ae	83 4d fc ff	 or	 DWORD PTR __$EHRec$[ebp+8], -1
  001b2	8d 4d cc	 lea	 ecx, DWORD PTR $T536963[ebp]
  001b5	ff 15 00 00 00
	00		 call	 DWORD PTR __imp_??1ioHashString@@QAE@XZ
  001bb	d9 45 dc	 fld	 DWORD PTR $T536962[ebp]

; 417  : 	}

  001be	e8 00 00 00 00	 call	 __EH_epilog3_GS
  001c3	c2 08 00	 ret	 8
_TEXT	ENDS
;	COMDAT text$x
text$x	SEGMENT
__unwindfunclet$??$GetAnimationEventTime_e@$0M@@ioEntityGroup@@QAEMHAAY0M@$$CBD@Z$0:
  00000	8d 4d cc	 lea	 ecx, DWORD PTR $T536963[ebp]
  00003	ff 25 00 00 00
	00		 jmp	 DWORD PTR __imp_??1ioHashString@@QAE@XZ
__ehhandler$??$GetAnimationEventTime_e@$0M@@ioEntityGroup@@QAEMHAAY0M@$$CBD@Z:
  00009	8b 54 24 08	 mov	 edx, DWORD PTR [esp+8]
  0000d	8d 42 0c	 lea	 eax, DWORD PTR [edx+12]
  00010	8b 4a c8	 mov	 ecx, DWORD PTR [edx-56]
  00013	33 c8		 xor	 ecx, eax
  00015	e8 00 00 00 00	 call	 @__security_check_cookie@4
  0001a	8b 4a fc	 mov	 ecx, DWORD PTR [edx-4]
  0001d	33 c8		 xor	 ecx, eax
  0001f	e8 00 00 00 00	 call	 @__security_check_cookie@4
  00024	b8 00 00 00 00	 mov	 eax, OFFSET __ehfuncinfo$??$GetAnimationEventTime_e@$0M@@ioEntityGroup@@QAEMHAAY0M@$$CBD@Z
  00029	e9 00 00 00 00	 jmp	 ___CxxFrameHandler3
text$x	ENDS
??$GetAnimationEventTime_e@$0M@@ioEntityGroup@@QAEMHAAY0M@$$CBD@Z ENDP ; ioEntityGroup::GetAnimationEventTime_e<12>
PUBLIC	??$_Cons_val@V?$allocator@UAniRotateInfo@@@std@@UAniRotateInfo@@AAU3@@std@@YAXAAV?$allocator@UAniRotateInfo@@@0@PAUAniRotateInfo@@AAU2@@Z ; std::_Cons_val<std::allocator<AniRotateInfo>,AniRotateInfo,AniRotateInfo &>
; Function compile flags: /Ogsp
; File c:\program files (x86)\microsoft visual studio 10.0\vc\include\xmemory
;	COMDAT ??$_Cons_val@V?$allocator@UAniRotateInfo@@@std@@UAniRotateInfo@@AAU3@@std@@YAXAAV?$allocator@UAniRotateInfo@@@0@PAUAniRotateInfo@@AAU2@@Z
_TEXT	SEGMENT
__Alval$ = 8						; size = 4
__Pdest$ = 12						; size = 4
__Src$ = 16						; size = 4
??$_Cons_val@V?$allocator@UAniRotateInfo@@@std@@UAniRotateInfo@@AAU3@@std@@YAXAAV?$allocator@UAniRotateInfo@@@0@PAUAniRotateInfo@@AAU2@@Z PROC ; std::_Cons_val<std::allocator<AniRotateInfo>,AniRotateInfo,AniRotateInfo &>, COMDAT

; 279  : 	{	// construct using allocator

  00000	55		 push	 ebp
  00001	8b ec		 mov	 ebp, esp

; 280  : 	_Alval.construct(_Pdest, _STD forward<_Ty2>(_Src));

  00003	8b 45 0c	 mov	 eax, DWORD PTR __Pdest$[ebp]
  00006	85 c0		 test	 eax, eax
  00008	74 0d		 je	 SHORT $LN7@Cons_val
  0000a	8b 4d 10	 mov	 ecx, DWORD PTR __Src$[ebp]
  0000d	8b 11		 mov	 edx, DWORD PTR [ecx]
  0000f	89 10		 mov	 DWORD PTR [eax], edx
  00011	8b 49 04	 mov	 ecx, DWORD PTR [ecx+4]
  00014	89 48 04	 mov	 DWORD PTR [eax+4], ecx
$LN7@Cons_val:

; 281  : 	}

  00017	5d		 pop	 ebp
  00018	c3		 ret	 0
??$_Cons_val@V?$allocator@UAniRotateInfo@@@std@@UAniRotateInfo@@AAU3@@std@@YAXAAV?$allocator@UAniRotateInfo@@@0@PAUAniRotateInfo@@AAU2@@Z ENDP ; std::_Cons_val<std::allocator<AniRotateInfo>,AniRotateInfo,AniRotateInfo &>
_TEXT	ENDS
PUBLIC	??$_Destroy_range@V?$allocator@PBUAniEventTime@@@std@@@std@@YAXPAPBUAniEventTime@@0AAV?$allocator@PBUAniEventTime@@@0@@Z ; std::_Destroy_range<std::allocator<AniEventTime const *> >
; Function compile flags: /Ogsp
;	COMDAT ??$_Destroy_range@V?$allocator@PBUAniEventTime@@@std@@@std@@YAXPAPBUAniEventTime@@0AAV?$allocator@PBUAniEventTime@@@0@@Z
_TEXT	SEGMENT
__First$ = 8						; size = 4
__Last$ = 12						; size = 4
__Al$ = 16						; size = 4
??$_Destroy_range@V?$allocator@PBUAniEventTime@@@std@@@std@@YAXPAPBUAniEventTime@@0AAV?$allocator@PBUAniEventTime@@@0@@Z PROC ; std::_Destroy_range<std::allocator<AniEventTime const *> >, COMDAT

; 88   : 	_Destroy_range(_First, _Last, _Al, _Ptr_cat(_First, _Last));
; 89   : 	}

  00000	c3		 ret	 0
??$_Destroy_range@V?$allocator@PBUAniEventTime@@@std@@@std@@YAXPAPBUAniEventTime@@0AAV?$allocator@PBUAniEventTime@@@0@@Z ENDP ; std::_Destroy_range<std::allocator<AniEventTime const *> >
_TEXT	ENDS
PUBLIC	??D?$CEncrypt@M@@QAEMABN@Z			; CEncrypt<float>::operator*
; Function compile flags: /Ogsp
; File d:\lost saga for developer\youtube\tutorial\source\src\lsclient\encryptvalue.h
;	COMDAT ??D?$CEncrypt@M@@QAEMABN@Z
_TEXT	SEGMENT
_value$ = -4						; size = 4
tv130 = 8						; size = 4
_inValue$ = 8						; size = 4
??D?$CEncrypt@M@@QAEMABN@Z PROC				; CEncrypt<float>::operator*, COMDAT
; _this$ = ecx

; 1881 : 	{

  00000	55		 push	 ebp
  00001	8b ec		 mov	 ebp, esp
  00003	51		 push	 ecx

; 1882 : 		type value;
; 1883 : 		DecryptValueToPool(&value);

  00004	8d 45 fc	 lea	 eax, DWORD PTR _value$[ebp]
  00007	50		 push	 eax
  00008	e8 00 00 00 00	 call	 ?DecryptValueToPool@?$CEncrypt@M@@QAEXPAM@Z ; CEncrypt<float>::DecryptValueToPool

; 1884 : #ifdef _NOTUSE
; 1885 : 		Debug();
; 1886 : #endif
; 1887 : 		return value * inValue;

  0000d	d9 45 fc	 fld	 DWORD PTR _value$[ebp]
  00010	8b 45 08	 mov	 eax, DWORD PTR _inValue$[ebp]
  00013	dc 08		 fmul	 QWORD PTR [eax]
  00015	d9 5d 08	 fstp	 DWORD PTR tv130[ebp]
  00018	d9 45 08	 fld	 DWORD PTR tv130[ebp]

; 1888 : 	}

  0001b	c9		 leave
  0001c	c2 04 00	 ret	 4
??D?$CEncrypt@M@@QAEMABN@Z ENDP				; CEncrypt<float>::operator*
_TEXT	ENDS
PUBLIC	?construct@?$allocator@UAniRotateInfo@@@std@@QAEXPAUAniRotateInfo@@ABU3@@Z ; std::allocator<AniRotateInfo>::construct
; Function compile flags: /Ogsp
; File c:\program files (x86)\microsoft visual studio 10.0\vc\include\xmemory
;	COMDAT ?construct@?$allocator@UAniRotateInfo@@@std@@QAEXPAUAniRotateInfo@@ABU3@@Z
_TEXT	SEGMENT
__Ptr$ = 8						; size = 4
__Val$ = 12						; size = 4
?construct@?$allocator@UAniRotateInfo@@@std@@QAEXPAUAniRotateInfo@@ABU3@@Z PROC ; std::allocator<AniRotateInfo>::construct, COMDAT
; _this$ = ecx

; 196  : 		{	// construct object at _Ptr with value _Val

  00000	55		 push	 ebp
  00001	8b ec		 mov	 ebp, esp

; 197  : 		_Construct(_Ptr, _Val);

  00003	8b 45 08	 mov	 eax, DWORD PTR __Ptr$[ebp]
  00006	85 c0		 test	 eax, eax
  00008	74 0d		 je	 SHORT $LN5@construct@2
  0000a	8b 4d 0c	 mov	 ecx, DWORD PTR __Val$[ebp]
  0000d	8b 11		 mov	 edx, DWORD PTR [ecx]
  0000f	89 10		 mov	 DWORD PTR [eax], edx
  00011	8b 49 04	 mov	 ecx, DWORD PTR [ecx+4]
  00014	89 48 04	 mov	 DWORD PTR [eax+4], ecx
$LN5@construct@2:

; 198  : 		}

  00017	5d		 pop	 ebp
  00018	c2 08 00	 ret	 8
?construct@?$allocator@UAniRotateInfo@@@std@@QAEXPAUAniRotateInfo@@ABU3@@Z ENDP ; std::allocator<AniRotateInfo>::construct
_TEXT	ENDS
PUBLIC	??$_Move@PAUAniRotateInfo@@PAU1@@std@@YAPAUAniRotateInfo@@PAU1@00U_Nonscalar_ptr_iterator_tag@0@@Z ; std::_Move<AniRotateInfo *,AniRotateInfo *>
; Function compile flags: /Ogsp
; File c:\program files (x86)\microsoft visual studio 10.0\vc\include\xutility
;	COMDAT ??$_Move@PAUAniRotateInfo@@PAU1@@std@@YAPAUAniRotateInfo@@PAU1@00U_Nonscalar_ptr_iterator_tag@0@@Z
_TEXT	SEGMENT
__First$ = 8						; size = 4
__Last$ = 12						; size = 4
__Dest$ = 16						; size = 4
___formal$ = 20						; size = 1
??$_Move@PAUAniRotateInfo@@PAU1@@std@@YAPAUAniRotateInfo@@PAU1@00U_Nonscalar_ptr_iterator_tag@0@@Z PROC ; std::_Move<AniRotateInfo *,AniRotateInfo *>, COMDAT

; 2512 : 	{	// move [_First, _Last) to [_Dest, ...), arbitrary iterators

  00000	55		 push	 ebp
  00001	8b ec		 mov	 ebp, esp

; 2513 : 	for (; _First != _Last; ++_Dest, ++_First)

  00003	8b 4d 08	 mov	 ecx, DWORD PTR __First$[ebp]
  00006	8b 45 10	 mov	 eax, DWORD PTR __Dest$[ebp]
$LN11@Move:
  00009	3b 4d 0c	 cmp	 ecx, DWORD PTR __Last$[ebp]
  0000c	74 12		 je	 SHORT $LN1@Move

; 2514 : 		*_Dest = _STD move(*_First);

  0000e	8b 11		 mov	 edx, DWORD PTR [ecx]
  00010	89 10		 mov	 DWORD PTR [eax], edx
  00012	8b 51 04	 mov	 edx, DWORD PTR [ecx+4]
  00015	89 50 04	 mov	 DWORD PTR [eax+4], edx
  00018	83 c0 08	 add	 eax, 8
  0001b	83 c1 08	 add	 ecx, 8
  0001e	eb e9		 jmp	 SHORT $LN11@Move
$LN1@Move:

; 2515 : 	return (_Dest);
; 2516 : 	}

  00020	5d		 pop	 ebp
  00021	c3		 ret	 0
??$_Move@PAUAniRotateInfo@@PAU1@@std@@YAPAUAniRotateInfo@@PAU1@00U_Nonscalar_ptr_iterator_tag@0@@Z ENDP ; std::_Move<AniRotateInfo *,AniRotateInfo *>
_TEXT	ENDS
PUBLIC	?destroy@?$allocator@UAniRotateInfo@@@std@@QAEXPAUAniRotateInfo@@@Z ; std::allocator<AniRotateInfo>::destroy
; Function compile flags: /Ogsp
; File c:\program files (x86)\microsoft visual studio 10.0\vc\include\xmemory
;	COMDAT ?destroy@?$allocator@UAniRotateInfo@@@std@@QAEXPAUAniRotateInfo@@@Z
_TEXT	SEGMENT
__Ptr$ = 8						; size = 4
?destroy@?$allocator@UAniRotateInfo@@@std@@QAEXPAUAniRotateInfo@@@Z PROC ; std::allocator<AniRotateInfo>::destroy, COMDAT
; _this$ = ecx

; 213  : 		_Destroy(_Ptr);
; 214  : 		}

  00000	c2 04 00	 ret	 4
?destroy@?$allocator@UAniRotateInfo@@@std@@QAEXPAUAniRotateInfo@@@Z ENDP ; std::allocator<AniRotateInfo>::destroy
_TEXT	ENDS
PUBLIC	?construct@?$allocator@UForceInfo@@@std@@QAEXPAUForceInfo@@ABU3@@Z ; std::allocator<ForceInfo>::construct
; Function compile flags: /Ogsp
;	COMDAT ?construct@?$allocator@UForceInfo@@@std@@QAEXPAUForceInfo@@ABU3@@Z
_TEXT	SEGMENT
__Ptr$ = 8						; size = 4
__Val$ = 12						; size = 4
?construct@?$allocator@UForceInfo@@@std@@QAEXPAUForceInfo@@ABU3@@Z PROC ; std::allocator<ForceInfo>::construct, COMDAT
; _this$ = ecx

; 196  : 		{	// construct object at _Ptr with value _Val

  00000	55		 push	 ebp
  00001	8b ec		 mov	 ebp, esp
  00003	57		 push	 edi

; 197  : 		_Construct(_Ptr, _Val);

  00004	8b 7d 08	 mov	 edi, DWORD PTR __Ptr$[ebp]
  00007	85 ff		 test	 edi, edi
  00009	74 08		 je	 SHORT $LN5@construct@3
  0000b	56		 push	 esi
  0000c	8b 75 0c	 mov	 esi, DWORD PTR __Val$[ebp]
  0000f	a5		 movsd
  00010	a5		 movsd
  00011	a5		 movsd
  00012	5e		 pop	 esi
$LN5@construct@3:
  00013	5f		 pop	 edi

; 198  : 		}

  00014	5d		 pop	 ebp
  00015	c2 08 00	 ret	 8
?construct@?$allocator@UForceInfo@@@std@@QAEXPAUForceInfo@@ABU3@@Z ENDP ; std::allocator<ForceInfo>::construct
_TEXT	ENDS
PUBLIC	?construct@?$allocator@UAniRotateInfo@@@std@@QAEXPAUAniRotateInfo@@$$QAU3@@Z ; std::allocator<AniRotateInfo>::construct
; Function compile flags: /Ogsp
;	COMDAT ?construct@?$allocator@UAniRotateInfo@@@std@@QAEXPAUAniRotateInfo@@$$QAU3@@Z
_TEXT	SEGMENT
__Ptr$ = 8						; size = 4
__Val$ = 12						; size = 4
?construct@?$allocator@UAniRotateInfo@@@std@@QAEXPAUAniRotateInfo@@$$QAU3@@Z PROC ; std::allocator<AniRotateInfo>::construct, COMDAT
; _this$ = ecx

; 201  : 		{	// construct object at _Ptr with value _Val

  00000	55		 push	 ebp
  00001	8b ec		 mov	 ebp, esp

; 202  : 		::new ((void _FARQ *)_Ptr) _Ty(_STD forward<_Ty>(_Val));

  00003	8b 45 08	 mov	 eax, DWORD PTR __Ptr$[ebp]
  00006	85 c0		 test	 eax, eax
  00008	74 0d		 je	 SHORT $LN3@construct@4
  0000a	8b 4d 0c	 mov	 ecx, DWORD PTR __Val$[ebp]
  0000d	8b 11		 mov	 edx, DWORD PTR [ecx]
  0000f	89 10		 mov	 DWORD PTR [eax], edx
  00011	8b 49 04	 mov	 ecx, DWORD PTR [ecx+4]
  00014	89 48 04	 mov	 DWORD PTR [eax+4], ecx
$LN3@construct@4:

; 203  : 		}

  00017	5d		 pop	 ebp
  00018	c2 08 00	 ret	 8
?construct@?$allocator@UAniRotateInfo@@@std@@QAEXPAUAniRotateInfo@@$$QAU3@@Z ENDP ; std::allocator<AniRotateInfo>::construct
_TEXT	ENDS
PUBLIC	??$_Construct@UWeaponInfo@@ABU1@@std@@YAXPAUWeaponInfo@@ABU1@@Z ; std::_Construct<WeaponInfo,WeaponInfo const &>
EXTRN	__EH_epilog3:PROC
EXTRN	__EH_prolog3:PROC
;	COMDAT xdata$x
; File c:\program files (x86)\microsoft visual studio 10.0\vc\include\utility
xdata$x	SEGMENT
__unwindtable$??$_Construct@UWeaponInfo@@ABU1@@std@@YAXPAUWeaponInfo@@ABU1@@Z DD 0ffffffffH
	DD	FLAT:__unwindfunclet$??$_Construct@UWeaponInfo@@ABU1@@std@@YAXPAUWeaponInfo@@ABU1@@Z$0
__ehfuncinfo$??$_Construct@UWeaponInfo@@ABU1@@std@@YAXPAUWeaponInfo@@ABU1@@Z DD 019930522H
	DD	01H
	DD	FLAT:__unwindtable$??$_Construct@UWeaponInfo@@ABU1@@std@@YAXPAUWeaponInfo@@ABU1@@Z
	DD	2 DUP(00H)
	DD	2 DUP(00H)
	DD	00H
	DD	01H
; Function compile flags: /Ogsp
; File c:\program files (x86)\microsoft visual studio 10.0\vc\include\xmemory
xdata$x	ENDS
;	COMDAT ??$_Construct@UWeaponInfo@@ABU1@@std@@YAXPAUWeaponInfo@@ABU1@@Z
_TEXT	SEGMENT
$T537108 = -16						; size = 4
__$EHRec$ = -12						; size = 12
__Vptr$ = 8						; size = 4
__Ptr$ = 8						; size = 4
__Val$ = 12						; size = 4
??$_Construct@UWeaponInfo@@ABU1@@std@@YAXPAUWeaponInfo@@ABU1@@Z PROC ; std::_Construct<WeaponInfo,WeaponInfo const &>, COMDAT

; 46   : 	{	// construct object at _Ptr with value _Val

  00000	6a 04		 push	 4
  00002	b8 00 00 00 00	 mov	 eax, __ehhandler$??$_Construct@UWeaponInfo@@ABU1@@std@@YAXPAUWeaponInfo@@ABU1@@Z
  00007	e8 00 00 00 00	 call	 __EH_prolog3

; 47   : 	void _FARQ *_Vptr = _Ptr;

  0000c	8b 4d 08	 mov	 ecx, DWORD PTR __Ptr$[ebp]
  0000f	89 4d 08	 mov	 DWORD PTR __Vptr$[ebp], ecx

; 48   : 	::new (_Vptr) _Ty1(_STD forward<_Ty2>(_Val));

  00012	89 4d f0	 mov	 DWORD PTR $T537108[ebp], ecx
  00015	83 65 fc 00	 and	 DWORD PTR __$EHRec$[ebp+8], 0
  00019	85 c9		 test	 ecx, ecx
  0001b	74 08		 je	 SHORT $LN3@Construct@3
  0001d	ff 75 0c	 push	 DWORD PTR __Val$[ebp]
  00020	e8 00 00 00 00	 call	 ??0WeaponInfo@@QAE@ABU0@@Z
$LN3@Construct@3:

; 49   : 	}

  00025	e8 00 00 00 00	 call	 __EH_epilog3
  0002a	c3		 ret	 0
_TEXT	ENDS
;	COMDAT text$x
text$x	SEGMENT
__unwindfunclet$??$_Construct@UWeaponInfo@@ABU1@@std@@YAXPAUWeaponInfo@@ABU1@@Z$0:
  00000	ff 75 08	 push	 DWORD PTR __Vptr$[ebp]
  00003	ff 75 f0	 push	 DWORD PTR $T537108[ebp]
  00006	e8 00 00 00 00	 call	 ??3@YAXPAX0@Z		; operator delete
  0000b	59		 pop	 ecx
  0000c	59		 pop	 ecx
  0000d	c3		 ret	 0
__ehhandler$??$_Construct@UWeaponInfo@@ABU1@@std@@YAXPAUWeaponInfo@@ABU1@@Z:
  0000e	8b 54 24 08	 mov	 edx, DWORD PTR [esp+8]
  00012	8d 42 0c	 lea	 eax, DWORD PTR [edx+12]
  00015	8b 4a ec	 mov	 ecx, DWORD PTR [edx-20]
  00018	33 c8		 xor	 ecx, eax
  0001a	e8 00 00 00 00	 call	 @__security_check_cookie@4
  0001f	b8 00 00 00 00	 mov	 eax, OFFSET __ehfuncinfo$??$_Construct@UWeaponInfo@@ABU1@@std@@YAXPAUWeaponInfo@@ABU1@@Z
  00024	e9 00 00 00 00	 jmp	 ___CxxFrameHandler3
text$x	ENDS
??$_Construct@UWeaponInfo@@ABU1@@std@@YAXPAUWeaponInfo@@ABU1@@Z ENDP ; std::_Construct<WeaponInfo,WeaponInfo const &>
PUBLIC	?c_str@?$basic_string@DU?$char_traits@D@std@@V?$allocator@D@2@@std@@QBEPBDXZ ; std::basic_string<char,std::char_traits<char>,std::allocator<char> >::c_str
; Function compile flags: /Ogsp
; File c:\program files (x86)\microsoft visual studio 10.0\vc\include\xstring
;	COMDAT ?c_str@?$basic_string@DU?$char_traits@D@std@@V?$allocator@D@2@@std@@QBEPBDXZ
_TEXT	SEGMENT
?c_str@?$basic_string@DU?$char_traits@D@std@@V?$allocator@D@2@@std@@QBEPBDXZ PROC ; std::basic_string<char,std::char_traits<char>,std::allocator<char> >::c_str, COMDAT
; _this$ = ecx

; 1497 : 		return (_Myptr());

  00000	83 79 14 10	 cmp	 DWORD PTR [ecx+20], 16	; 00000010H
  00004	72 03		 jb	 SHORT $LN5@c_str
  00006	8b 01		 mov	 eax, DWORD PTR [ecx]

; 1498 : 		}

  00008	c3		 ret	 0

; 1497 : 		return (_Myptr());

$LN5@c_str:
  00009	8b c1		 mov	 eax, ecx

; 1498 : 		}

  0000b	c3		 ret	 0
?c_str@?$basic_string@DU?$char_traits@D@std@@V?$allocator@D@2@@std@@QBEPBDXZ ENDP ; std::basic_string<char,std::char_traits<char>,std::allocator<char> >::c_str
_TEXT	ENDS
PUBLIC	??0?$CEncrypt@M@@QAE@XZ				; CEncrypt<float>::CEncrypt<float>
EXTRN	??0ccddaabb@@QAE@XZ:PROC			; ccddaabb::ccddaabb
;	COMDAT xdata$x
; File d:\lost saga for developer\youtube\tutorial\source\src\lsclient\encryptvalue.h
xdata$x	SEGMENT
__unwindtable$??0?$CEncrypt@M@@QAE@XZ DD 0ffffffffH
	DD	FLAT:__unwindfunclet$??0?$CEncrypt@M@@QAE@XZ$0
__ehfuncinfo$??0?$CEncrypt@M@@QAE@XZ DD 019930522H
	DD	01H
	DD	FLAT:__unwindtable$??0?$CEncrypt@M@@QAE@XZ
	DD	2 DUP(00H)
	DD	2 DUP(00H)
	DD	00H
	DD	01H
; Function compile flags: /Ogsp
xdata$x	ENDS
;	COMDAT ??0?$CEncrypt@M@@QAE@XZ
_TEXT	SEGMENT
_this$ = -16						; size = 4
__$EHRec$ = -12						; size = 12
??0?$CEncrypt@M@@QAE@XZ PROC				; CEncrypt<float>::CEncrypt<float>, COMDAT
; _this$ = ecx

; 109  : 	CEncrypt()

  00000	6a 04		 push	 4
  00002	b8 00 00 00 00	 mov	 eax, __ehhandler$??0?$CEncrypt@M@@QAE@XZ
  00007	e8 00 00 00 00	 call	 __EH_prolog3
  0000c	8b f1		 mov	 esi, ecx
  0000e	89 75 f0	 mov	 DWORD PTR _this$[ebp], esi
  00011	8d 4e 0c	 lea	 ecx, DWORD PTR [esi+12]
  00014	c7 06 00 00 00
	00		 mov	 DWORD PTR [esi], OFFSET ??_7?$CEncrypt@M@@6B@
  0001a	e8 00 00 00 00	 call	 ??0ccddaabb@@QAE@XZ	; ccddaabb::ccddaabb
  0001f	83 65 fc 00	 and	 DWORD PTR __$EHRec$[ebp+8], 0

; 110  : 	{
; 111  : 		Init();

  00023	8b ce		 mov	 ecx, esi
  00025	e8 00 00 00 00	 call	 ?Init@?$CEncrypt@M@@AAEXXZ ; CEncrypt<float>::Init

; 112  : 	}

  0002a	8b c6		 mov	 eax, esi
  0002c	e8 00 00 00 00	 call	 __EH_epilog3
  00031	c3		 ret	 0
_TEXT	ENDS
;	COMDAT text$x
text$x	SEGMENT
__unwindfunclet$??0?$CEncrypt@M@@QAE@XZ$0:
  00000	8b 4d f0	 mov	 ecx, DWORD PTR _this$[ebp]
  00003	83 c1 0c	 add	 ecx, 12			; 0000000cH
  00006	e9 00 00 00 00	 jmp	 ??1ccddaabb@@UAE@XZ	; ccddaabb::~ccddaabb
__ehhandler$??0?$CEncrypt@M@@QAE@XZ:
  0000b	8b 54 24 08	 mov	 edx, DWORD PTR [esp+8]
  0000f	8d 42 0c	 lea	 eax, DWORD PTR [edx+12]
  00012	8b 4a ec	 mov	 ecx, DWORD PTR [edx-20]
  00015	33 c8		 xor	 ecx, eax
  00017	e8 00 00 00 00	 call	 @__security_check_cookie@4
  0001c	b8 00 00 00 00	 mov	 eax, OFFSET __ehfuncinfo$??0?$CEncrypt@M@@QAE@XZ
  00021	e9 00 00 00 00	 jmp	 ___CxxFrameHandler3
text$x	ENDS
??0?$CEncrypt@M@@QAE@XZ ENDP				; CEncrypt<float>::CEncrypt<float>
PUBLIC	??B?$CEncrypt@M@@QAEMXZ				; CEncrypt<float>::operator float
; Function compile flags: /Ogsp
;	COMDAT ??B?$CEncrypt@M@@QAEMXZ
_TEXT	SEGMENT
_value$ = -4						; size = 4
??B?$CEncrypt@M@@QAEMXZ PROC				; CEncrypt<float>::operator float, COMDAT
; _this$ = ecx

; 134  : 	{

  00000	55		 push	 ebp
  00001	8b ec		 mov	 ebp, esp
  00003	51		 push	 ecx

; 135  : 		type value;
; 136  : 		DecryptValueToPool(&value);

  00004	8d 45 fc	 lea	 eax, DWORD PTR _value$[ebp]
  00007	50		 push	 eax
  00008	e8 00 00 00 00	 call	 ?DecryptValueToPool@?$CEncrypt@M@@QAEXPAM@Z ; CEncrypt<float>::DecryptValueToPool

; 137  : 
; 138  : #ifdef _NOTUSE
; 139  : 		Debug();
; 140  : #endif
; 141  : 		return value;

  0000d	d9 45 fc	 fld	 DWORD PTR _value$[ebp]

; 142  : 	}

  00010	c9		 leave
  00011	c3		 ret	 0
??B?$CEncrypt@M@@QAEMXZ ENDP				; CEncrypt<float>::operator float
_TEXT	ENDS
PUBLIC	??B?$CEncrypt@M@@QBEMXZ				; CEncrypt<float>::operator float
; Function compile flags: /Ogsp
;	COMDAT ??B?$CEncrypt@M@@QBEMXZ
_TEXT	SEGMENT
_value$ = -4						; size = 4
??B?$CEncrypt@M@@QBEMXZ PROC				; CEncrypt<float>::operator float, COMDAT
; _this$ = ecx

; 145  : 	{

  00000	55		 push	 ebp
  00001	8b ec		 mov	 ebp, esp
  00003	51		 push	 ecx

; 146  : 		//UJ 130829, const도 똑같이 하면 된다 --start
; 147  : 		type value;
; 148  : 		CEncrypt<type>* pThis = const_cast<CEncrypt<type>*>(this);
; 149  : 		pThis->DecryptValueToPool(&value);

  00004	8d 45 fc	 lea	 eax, DWORD PTR _value$[ebp]
  00007	50		 push	 eax
  00008	e8 00 00 00 00	 call	 ?DecryptValueToPool@?$CEncrypt@M@@QAEXPAM@Z ; CEncrypt<float>::DecryptValueToPool

; 150  : 		//// const에서 DecryptValueToPool 사용할 수 없으므로 아래와 같이함.
; 151  :  		//type value;
; 152  : 		//char szTempMem[MAX_ENCRYPT];
; 153  : 		//m_RC5.DecryptByte( m_MemPool, szTempMem, max(m_ValueSize, DEFAULT_ENCRYPT) );
; 154  : 		//memcpy( &value, szTempMem, m_ValueSize );
; 155  : 		//UJ --end
; 156  : 
; 157  : #ifdef _NOTUSE
; 158  : 		Debug();
; 159  : #endif
; 160  : 		return value;

  0000d	d9 45 fc	 fld	 DWORD PTR _value$[ebp]

; 161  : 	}

  00010	c9		 leave
  00011	c3		 ret	 0
??B?$CEncrypt@M@@QBEMXZ ENDP				; CEncrypt<float>::operator float
_TEXT	ENDS
PUBLIC	??4?$CEncrypt@M@@QAEMM@Z			; CEncrypt<float>::operator=
; Function compile flags: /Ogsp
;	COMDAT ??4?$CEncrypt@M@@QAEMM@Z
_TEXT	SEGMENT
_value$ = 8						; size = 4
_inValue$ = 8						; size = 4
??4?$CEncrypt@M@@QAEMM@Z PROC				; CEncrypt<float>::operator=, COMDAT
; _this$ = ecx

; 1654 : 	{	

  00000	55		 push	 ebp
  00001	8b ec		 mov	 ebp, esp

; 1655 : 		type value = inValue;

  00003	d9 45 08	 fld	 DWORD PTR _inValue$[ebp]

; 1656 : 		EncryptValueToPool((char*)&value);

  00006	8d 45 08	 lea	 eax, DWORD PTR _value$[ebp]
  00009	50		 push	 eax
  0000a	d9 5d 08	 fstp	 DWORD PTR _value$[ebp]
  0000d	e8 00 00 00 00	 call	 ?EncryptValueToPool@?$CEncrypt@M@@AAEXPBD@Z ; CEncrypt<float>::EncryptValueToPool

; 1657 : #ifdef _NOTUSE
; 1658 : 		m_value = inValue;
; 1659 : 		Debug();
; 1660 : #endif
; 1661 : 		return value;

  00012	d9 45 08	 fld	 DWORD PTR _value$[ebp]

; 1662 : 	}

  00015	5d		 pop	 ebp
  00016	c2 04 00	 ret	 4
??4?$CEncrypt@M@@QAEMM@Z ENDP				; CEncrypt<float>::operator=
_TEXT	ENDS
PUBLIC	??0?$CEncrypt@K@@QAE@XZ				; CEncrypt<unsigned long>::CEncrypt<unsigned long>
;	COMDAT xdata$x
xdata$x	SEGMENT
__unwindtable$??0?$CEncrypt@K@@QAE@XZ DD 0ffffffffH
	DD	FLAT:__unwindfunclet$??0?$CEncrypt@K@@QAE@XZ$0
__ehfuncinfo$??0?$CEncrypt@K@@QAE@XZ DD 019930522H
	DD	01H
	DD	FLAT:__unwindtable$??0?$CEncrypt@K@@QAE@XZ
	DD	2 DUP(00H)
	DD	2 DUP(00H)
	DD	00H
	DD	01H
; Function compile flags: /Ogsp
xdata$x	ENDS
;	COMDAT ??0?$CEncrypt@K@@QAE@XZ
_TEXT	SEGMENT
_this$ = -16						; size = 4
__$EHRec$ = -12						; size = 12
??0?$CEncrypt@K@@QAE@XZ PROC				; CEncrypt<unsigned long>::CEncrypt<unsigned long>, COMDAT
; _this$ = ecx

; 109  : 	CEncrypt()

  00000	6a 04		 push	 4
  00002	b8 00 00 00 00	 mov	 eax, __ehhandler$??0?$CEncrypt@K@@QAE@XZ
  00007	e8 00 00 00 00	 call	 __EH_prolog3
  0000c	8b f1		 mov	 esi, ecx
  0000e	89 75 f0	 mov	 DWORD PTR _this$[ebp], esi
  00011	8d 4e 0c	 lea	 ecx, DWORD PTR [esi+12]
  00014	c7 06 00 00 00
	00		 mov	 DWORD PTR [esi], OFFSET ??_7?$CEncrypt@K@@6B@
  0001a	e8 00 00 00 00	 call	 ??0ccddaabb@@QAE@XZ	; ccddaabb::ccddaabb
  0001f	83 65 fc 00	 and	 DWORD PTR __$EHRec$[ebp+8], 0

; 110  : 	{
; 111  : 		Init();

  00023	8b ce		 mov	 ecx, esi
  00025	e8 00 00 00 00	 call	 ?Init@?$CEncrypt@K@@AAEXXZ ; CEncrypt<unsigned long>::Init

; 112  : 	}

  0002a	8b c6		 mov	 eax, esi
  0002c	e8 00 00 00 00	 call	 __EH_epilog3
  00031	c3		 ret	 0
_TEXT	ENDS
;	COMDAT text$x
text$x	SEGMENT
__unwindfunclet$??0?$CEncrypt@K@@QAE@XZ$0:
  00000	8b 4d f0	 mov	 ecx, DWORD PTR _this$[ebp]
  00003	83 c1 0c	 add	 ecx, 12			; 0000000cH
  00006	e9 00 00 00 00	 jmp	 ??1ccddaabb@@UAE@XZ	; ccddaabb::~ccddaabb
__ehhandler$??0?$CEncrypt@K@@QAE@XZ:
  0000b	8b 54 24 08	 mov	 edx, DWORD PTR [esp+8]
  0000f	8d 42 0c	 lea	 eax, DWORD PTR [edx+12]
  00012	8b 4a ec	 mov	 ecx, DWORD PTR [edx-20]
  00015	33 c8		 xor	 ecx, eax
  00017	e8 00 00 00 00	 call	 @__security_check_cookie@4
  0001c	b8 00 00 00 00	 mov	 eax, OFFSET __ehfuncinfo$??0?$CEncrypt@K@@QAE@XZ
  00021	e9 00 00 00 00	 jmp	 ___CxxFrameHandler3
text$x	ENDS
??0?$CEncrypt@K@@QAE@XZ ENDP				; CEncrypt<unsigned long>::CEncrypt<unsigned long>
PUBLIC	??B?$CEncrypt@K@@QAEKXZ				; CEncrypt<unsigned long>::operator unsigned long
; Function compile flags: /Ogsp
;	COMDAT ??B?$CEncrypt@K@@QAEKXZ
_TEXT	SEGMENT
_value$ = -4						; size = 4
??B?$CEncrypt@K@@QAEKXZ PROC				; CEncrypt<unsigned long>::operator unsigned long, COMDAT
; _this$ = ecx

; 134  : 	{

  00000	55		 push	 ebp
  00001	8b ec		 mov	 ebp, esp
  00003	51		 push	 ecx

; 135  : 		type value;
; 136  : 		DecryptValueToPool(&value);

  00004	8d 45 fc	 lea	 eax, DWORD PTR _value$[ebp]
  00007	50		 push	 eax
  00008	e8 00 00 00 00	 call	 ?DecryptValueToPool@?$CEncrypt@K@@QAEXPAK@Z ; CEncrypt<unsigned long>::DecryptValueToPool

; 137  : 
; 138  : #ifdef _NOTUSE
; 139  : 		Debug();
; 140  : #endif
; 141  : 		return value;

  0000d	8b 45 fc	 mov	 eax, DWORD PTR _value$[ebp]

; 142  : 	}

  00010	c9		 leave
  00011	c3		 ret	 0
??B?$CEncrypt@K@@QAEKXZ ENDP				; CEncrypt<unsigned long>::operator unsigned long
_TEXT	ENDS
PUBLIC	??B?$CEncrypt@K@@QBEKXZ				; CEncrypt<unsigned long>::operator unsigned long
; Function compile flags: /Ogsp
;	COMDAT ??B?$CEncrypt@K@@QBEKXZ
_TEXT	SEGMENT
_value$ = -4						; size = 4
??B?$CEncrypt@K@@QBEKXZ PROC				; CEncrypt<unsigned long>::operator unsigned long, COMDAT
; _this$ = ecx

; 145  : 	{

  00000	55		 push	 ebp
  00001	8b ec		 mov	 ebp, esp
  00003	51		 push	 ecx

; 146  : 		//UJ 130829, const도 똑같이 하면 된다 --start
; 147  : 		type value;
; 148  : 		CEncrypt<type>* pThis = const_cast<CEncrypt<type>*>(this);
; 149  : 		pThis->DecryptValueToPool(&value);

  00004	8d 45 fc	 lea	 eax, DWORD PTR _value$[ebp]
  00007	50		 push	 eax
  00008	e8 00 00 00 00	 call	 ?DecryptValueToPool@?$CEncrypt@K@@QAEXPAK@Z ; CEncrypt<unsigned long>::DecryptValueToPool

; 150  : 		//// const에서 DecryptValueToPool 사용할 수 없으므로 아래와 같이함.
; 151  :  		//type value;
; 152  : 		//char szTempMem[MAX_ENCRYPT];
; 153  : 		//m_RC5.DecryptByte( m_MemPool, szTempMem, max(m_ValueSize, DEFAULT_ENCRYPT) );
; 154  : 		//memcpy( &value, szTempMem, m_ValueSize );
; 155  : 		//UJ --end
; 156  : 
; 157  : #ifdef _NOTUSE
; 158  : 		Debug();
; 159  : #endif
; 160  : 		return value;

  0000d	8b 45 fc	 mov	 eax, DWORD PTR _value$[ebp]

; 161  : 	}

  00010	c9		 leave
  00011	c3		 ret	 0
??B?$CEncrypt@K@@QBEKXZ ENDP				; CEncrypt<unsigned long>::operator unsigned long
_TEXT	ENDS
PUBLIC	??4?$CEncrypt@K@@QAEKH@Z			; CEncrypt<unsigned long>::operator=
; Function compile flags: /Ogsp
;	COMDAT ??4?$CEncrypt@K@@QAEKH@Z
_TEXT	SEGMENT
_value$ = 8						; size = 4
_inValue$ = 8						; size = 4
??4?$CEncrypt@K@@QAEKH@Z PROC				; CEncrypt<unsigned long>::operator=, COMDAT
; _this$ = ecx

; 843  : 	{

  00000	55		 push	 ebp
  00001	8b ec		 mov	 ebp, esp

; 844  : 		type value = inValue;

  00003	8b 45 08	 mov	 eax, DWORD PTR _inValue$[ebp]
  00006	89 45 08	 mov	 DWORD PTR _value$[ebp], eax

; 845  : 		EncryptValueToPool((char*)&value);

  00009	8d 45 08	 lea	 eax, DWORD PTR _value$[ebp]
  0000c	50		 push	 eax
  0000d	e8 00 00 00 00	 call	 ?EncryptValueToPool@?$CEncrypt@K@@AAEXPBD@Z ; CEncrypt<unsigned long>::EncryptValueToPool

; 846  : #ifdef _NOTUSE
; 847  : 		m_value = inValue;
; 848  : 		Debug();
; 849  : #endif
; 850  : 		return value;

  00012	8b 45 08	 mov	 eax, DWORD PTR _value$[ebp]

; 851  : 	}

  00015	5d		 pop	 ebp
  00016	c2 04 00	 ret	 4
??4?$CEncrypt@K@@QAEKH@Z ENDP				; CEncrypt<unsigned long>::operator=
_TEXT	ENDS
PUBLIC	??4?$CEncrypt@K@@QAEKK@Z			; CEncrypt<unsigned long>::operator=
; Function compile flags: /Ogsp
;	COMDAT ??4?$CEncrypt@K@@QAEKK@Z
_TEXT	SEGMENT
_value$ = 8						; size = 4
_inValue$ = 8						; size = 4
??4?$CEncrypt@K@@QAEKK@Z PROC				; CEncrypt<unsigned long>::operator=, COMDAT
; _this$ = ecx

; 1262 : 	{

  00000	55		 push	 ebp
  00001	8b ec		 mov	 ebp, esp

; 1263 : 		
; 1264 : 		type value = inValue;

  00003	8b 45 08	 mov	 eax, DWORD PTR _inValue$[ebp]
  00006	89 45 08	 mov	 DWORD PTR _value$[ebp], eax

; 1265 : 		EncryptValueToPool((char*)&value);

  00009	8d 45 08	 lea	 eax, DWORD PTR _value$[ebp]
  0000c	50		 push	 eax
  0000d	e8 00 00 00 00	 call	 ?EncryptValueToPool@?$CEncrypt@K@@AAEXPBD@Z ; CEncrypt<unsigned long>::EncryptValueToPool

; 1266 : #ifdef _NOTUSE
; 1267 : 		m_value = inValue;
; 1268 : 		Debug();
; 1269 : #endif
; 1270 : 		return value;

  00012	8b 45 08	 mov	 eax, DWORD PTR _value$[ebp]

; 1271 : 	}

  00015	5d		 pop	 ebp
  00016	c2 04 00	 ret	 4
??4?$CEncrypt@K@@QAEKK@Z ENDP				; CEncrypt<unsigned long>::operator=
_TEXT	ENDS
PUBLIC	??B?$CEncrypt@_N@@QAE_NXZ			; CEncrypt<bool>::operator bool
; Function compile flags: /Ogsp
;	COMDAT ??B?$CEncrypt@_N@@QAE_NXZ
_TEXT	SEGMENT
_value$ = -1						; size = 1
??B?$CEncrypt@_N@@QAE_NXZ PROC				; CEncrypt<bool>::operator bool, COMDAT
; _this$ = ecx

; 134  : 	{

  00000	55		 push	 ebp
  00001	8b ec		 mov	 ebp, esp
  00003	51		 push	 ecx

; 135  : 		type value;
; 136  : 		DecryptValueToPool(&value);

  00004	8d 45 ff	 lea	 eax, DWORD PTR _value$[ebp]
  00007	50		 push	 eax
  00008	e8 00 00 00 00	 call	 ?DecryptValueToPool@?$CEncrypt@_N@@QAEXPA_N@Z ; CEncrypt<bool>::DecryptValueToPool

; 137  : 
; 138  : #ifdef _NOTUSE
; 139  : 		Debug();
; 140  : #endif
; 141  : 		return value;

  0000d	8a 45 ff	 mov	 al, BYTE PTR _value$[ebp]

; 142  : 	}

  00010	c9		 leave
  00011	c3		 ret	 0
??B?$CEncrypt@_N@@QAE_NXZ ENDP				; CEncrypt<bool>::operator bool
_TEXT	ENDS
PUBLIC	??0?$_String_val@DV?$allocator@D@std@@@std@@QAE@V?$allocator@D@1@@Z ; std::_String_val<char,std::allocator<char> >::_String_val<char,std::allocator<char> >
; Function compile flags: /Ogsp
; File c:\program files (x86)\microsoft visual studio 10.0\vc\include\xstring
;	COMDAT ??0?$_String_val@DV?$allocator@D@std@@@std@@QAE@V?$allocator@D@1@@Z
_TEXT	SEGMENT
__Al$ = 8						; size = 1
??0?$_String_val@DV?$allocator@D@std@@@std@@QAE@V?$allocator@D@1@@Z PROC ; std::_String_val<char,std::allocator<char> >::_String_val<char,std::allocator<char> >, COMDAT
; _this$ = ecx

; 454  : 		{	// construct allocator from _Al

  00000	8b c1		 mov	 eax, ecx

; 455  : 		}

  00002	c2 04 00	 ret	 4
??0?$_String_val@DV?$allocator@D@std@@@std@@QAE@V?$allocator@D@1@@Z ENDP ; std::_String_val<char,std::allocator<char> >::_String_val<char,std::allocator<char> >
_TEXT	ENDS
PUBLIC	??0?$_Vector_val@UWeaponInfo@@V?$allocator@UWeaponInfo@@@std@@@std@@QAE@V?$allocator@UWeaponInfo@@@1@@Z ; std::_Vector_val<WeaponInfo,std::allocator<WeaponInfo> >::_Vector_val<WeaponInfo,std::allocator<WeaponInfo> >
; Function compile flags: /Ogsp
; File c:\program files (x86)\microsoft visual studio 10.0\vc\include\vector
;	COMDAT ??0?$_Vector_val@UWeaponInfo@@V?$allocator@UWeaponInfo@@@std@@@std@@QAE@V?$allocator@UWeaponInfo@@@1@@Z
_TEXT	SEGMENT
__Al$ = 8						; size = 1
??0?$_Vector_val@UWeaponInfo@@V?$allocator@UWeaponInfo@@@std@@@std@@QAE@V?$allocator@UWeaponInfo@@@1@@Z PROC ; std::_Vector_val<WeaponInfo,std::allocator<WeaponInfo> >::_Vector_val<WeaponInfo,std::allocator<WeaponInfo> >, COMDAT
; _this$ = ecx

; 426  : 		{	// construct allocator from _Al

  00000	8b c1		 mov	 eax, ecx

; 427  : 		_Myfirst = 0;

  00002	33 c9		 xor	 ecx, ecx
  00004	89 08		 mov	 DWORD PTR [eax], ecx

; 428  : 		_Mylast = 0;

  00006	89 48 04	 mov	 DWORD PTR [eax+4], ecx

; 429  : 		_Myend = 0;

  00009	89 48 08	 mov	 DWORD PTR [eax+8], ecx

; 430  : 		}

  0000c	c2 04 00	 ret	 4
??0?$_Vector_val@UWeaponInfo@@V?$allocator@UWeaponInfo@@@std@@@std@@QAE@V?$allocator@UWeaponInfo@@@1@@Z ENDP ; std::_Vector_val<WeaponInfo,std::allocator<WeaponInfo> >::_Vector_val<WeaponInfo,std::allocator<WeaponInfo> >
_TEXT	ENDS
PUBLIC	??0?$_Vector_val@UForceInfo@@V?$allocator@UForceInfo@@@std@@@std@@QAE@V?$allocator@UForceInfo@@@1@@Z ; std::_Vector_val<ForceInfo,std::allocator<ForceInfo> >::_Vector_val<ForceInfo,std::allocator<ForceInfo> >
; Function compile flags: /Ogsp
;	COMDAT ??0?$_Vector_val@UForceInfo@@V?$allocator@UForceInfo@@@std@@@std@@QAE@V?$allocator@UForceInfo@@@1@@Z
_TEXT	SEGMENT
__Al$ = 8						; size = 1
??0?$_Vector_val@UForceInfo@@V?$allocator@UForceInfo@@@std@@@std@@QAE@V?$allocator@UForceInfo@@@1@@Z PROC ; std::_Vector_val<ForceInfo,std::allocator<ForceInfo> >::_Vector_val<ForceInfo,std::allocator<ForceInfo> >, COMDAT
; _this$ = ecx

; 426  : 		{	// construct allocator from _Al

  00000	8b c1		 mov	 eax, ecx

; 427  : 		_Myfirst = 0;

  00002	33 c9		 xor	 ecx, ecx
  00004	89 08		 mov	 DWORD PTR [eax], ecx

; 428  : 		_Mylast = 0;

  00006	89 48 04	 mov	 DWORD PTR [eax+4], ecx

; 429  : 		_Myend = 0;

  00009	89 48 08	 mov	 DWORD PTR [eax+8], ecx

; 430  : 		}

  0000c	c2 04 00	 ret	 4
??0?$_Vector_val@UForceInfo@@V?$allocator@UForceInfo@@@std@@@std@@QAE@V?$allocator@UForceInfo@@@1@@Z ENDP ; std::_Vector_val<ForceInfo,std::allocator<ForceInfo> >::_Vector_val<ForceInfo,std::allocator<ForceInfo> >
_TEXT	ENDS
PUBLIC	?_Eos@?$basic_string@DU?$char_traits@D@std@@V?$allocator@D@2@@std@@QAEXI@Z ; std::basic_string<char,std::char_traits<char>,std::allocator<char> >::_Eos
; Function compile flags: /Ogsp
; File c:\program files (x86)\microsoft visual studio 10.0\vc\include\xstring
;	COMDAT ?_Eos@?$basic_string@DU?$char_traits@D@std@@V?$allocator@D@2@@std@@QAEXI@Z
_TEXT	SEGMENT
__Newsize$ = 8						; size = 4
?_Eos@?$basic_string@DU?$char_traits@D@std@@V?$allocator@D@2@@std@@QAEXI@Z PROC ; std::basic_string<char,std::char_traits<char>,std::allocator<char> >::_Eos, COMDAT
; _this$ = ecx

; 1953 : 		{	// set new length and null terminator

  00000	55		 push	 ebp
  00001	8b ec		 mov	 ebp, esp

; 1954 : 		_Traits::assign(_Myptr()[this->_Mysize = _Newsize], _Elem());

  00003	83 79 14 10	 cmp	 DWORD PTR [ecx+20], 16	; 00000010H
  00007	8b 45 08	 mov	 eax, DWORD PTR __Newsize$[ebp]
  0000a	89 41 10	 mov	 DWORD PTR [ecx+16], eax
  0000d	72 02		 jb	 SHORT $LN5@Eos
  0000f	8b 09		 mov	 ecx, DWORD PTR [ecx]
$LN5@Eos:
  00011	c6 04 01 00	 mov	 BYTE PTR [ecx+eax], 0

; 1955 : 		}

  00015	5d		 pop	 ebp
  00016	c2 04 00	 ret	 4
?_Eos@?$basic_string@DU?$char_traits@D@std@@V?$allocator@D@2@@std@@QAEXI@Z ENDP ; std::basic_string<char,std::char_traits<char>,std::allocator<char> >::_Eos
_TEXT	ENDS
PUBLIC	?max_size@?$basic_string@DU?$char_traits@D@std@@V?$allocator@D@2@@std@@QBEIXZ ; std::basic_string<char,std::char_traits<char>,std::allocator<char> >::max_size
; Function compile flags: /Ogsp
;	COMDAT ?max_size@?$basic_string@DU?$char_traits@D@std@@V?$allocator@D@2@@std@@QBEIXZ
_TEXT	SEGMENT
?max_size@?$basic_string@DU?$char_traits@D@std@@V?$allocator@D@2@@std@@QBEIXZ PROC ; std::basic_string<char,std::char_traits<char>,std::allocator<char> >::max_size, COMDAT
; _this$ = ecx

; 1517 : 		size_type _Num = this->_Alval.max_size();
; 1518 : 		return (_Num <= 1 ? 1 : _Num - 1);

  00000	6a fe		 push	 -2			; fffffffeH
  00002	58		 pop	 eax

; 1519 : 		}

  00003	c3		 ret	 0
?max_size@?$basic_string@DU?$char_traits@D@std@@V?$allocator@D@2@@std@@QBEIXZ ENDP ; std::basic_string<char,std::char_traits<char>,std::allocator<char> >::max_size
_TEXT	ENDS
PUBLIC	?allocate@?$allocator@D@std@@QAEPADI@Z		; std::allocator<char>::allocate
; Function compile flags: /Ogsp
; File c:\program files (x86)\microsoft visual studio 10.0\vc\include\xmemory
;	COMDAT ?allocate@?$allocator@D@std@@QAEPADI@Z
_TEXT	SEGMENT
__Count$ = 8						; size = 4
?allocate@?$allocator@D@std@@QAEPADI@Z PROC		; std::allocator<char>::allocate, COMDAT
; _this$ = ecx

; 186  : 		{	// allocate array of _Count elements

  00000	55		 push	 ebp
  00001	8b ec		 mov	 ebp, esp

; 187  : 		return (_Allocate(_Count, (pointer)0));

  00003	6a 00		 push	 0
  00005	ff 75 08	 push	 DWORD PTR __Count$[ebp]
  00008	e8 00 00 00 00	 call	 ??$_Allocate@D@std@@YAPADIPAD@Z ; std::_Allocate<char>
  0000d	59		 pop	 ecx
  0000e	59		 pop	 ecx

; 188  : 		}

  0000f	5d		 pop	 ebp
  00010	c2 04 00	 ret	 4
?allocate@?$allocator@D@std@@QAEPADI@Z ENDP		; std::allocator<char>::allocate
_TEXT	ENDS
PUBLIC	?max_size@?$vector@UWeaponInfo@@V?$allocator@UWeaponInfo@@@std@@@std@@QBEIXZ ; std::vector<WeaponInfo,std::allocator<WeaponInfo> >::max_size
; Function compile flags: /Ogsp
; File c:\program files (x86)\microsoft visual studio 10.0\vc\include\vector
;	COMDAT ?max_size@?$vector@UWeaponInfo@@V?$allocator@UWeaponInfo@@@std@@@std@@QBEIXZ
_TEXT	SEGMENT
?max_size@?$vector@UWeaponInfo@@V?$allocator@UWeaponInfo@@@std@@@std@@QBEIXZ PROC ; std::vector<WeaponInfo,std::allocator<WeaponInfo> >::max_size, COMDAT
; _this$ = ecx

; 884  : 		return (this->_Alval.max_size());

  00000	b8 66 66 66 06	 mov	 eax, 107374182		; 06666666H

; 885  : 		}

  00005	c3		 ret	 0
?max_size@?$vector@UWeaponInfo@@V?$allocator@UWeaponInfo@@@std@@@std@@QBEIXZ ENDP ; std::vector<WeaponInfo,std::allocator<WeaponInfo> >::max_size
_TEXT	ENDS
PUBLIC	?allocate@?$allocator@UWeaponInfo@@@std@@QAEPAUWeaponInfo@@I@Z ; std::allocator<WeaponInfo>::allocate
; Function compile flags: /Ogsp
; File c:\program files (x86)\microsoft visual studio 10.0\vc\include\xmemory
;	COMDAT ?allocate@?$allocator@UWeaponInfo@@@std@@QAEPAUWeaponInfo@@I@Z
_TEXT	SEGMENT
__Count$ = 8						; size = 4
?allocate@?$allocator@UWeaponInfo@@@std@@QAEPAUWeaponInfo@@I@Z PROC ; std::allocator<WeaponInfo>::allocate, COMDAT
; _this$ = ecx

; 186  : 		{	// allocate array of _Count elements

  00000	55		 push	 ebp
  00001	8b ec		 mov	 ebp, esp

; 187  : 		return (_Allocate(_Count, (pointer)0));

  00003	6a 00		 push	 0
  00005	ff 75 08	 push	 DWORD PTR __Count$[ebp]
  00008	e8 00 00 00 00	 call	 ??$_Allocate@UWeaponInfo@@@std@@YAPAUWeaponInfo@@IPAU1@@Z ; std::_Allocate<WeaponInfo>
  0000d	59		 pop	 ecx
  0000e	59		 pop	 ecx

; 188  : 		}

  0000f	5d		 pop	 ebp
  00010	c2 04 00	 ret	 4
?allocate@?$allocator@UWeaponInfo@@@std@@QAEPAUWeaponInfo@@I@Z ENDP ; std::allocator<WeaponInfo>::allocate
_TEXT	ENDS
PUBLIC	?max_size@?$vector@UForceInfo@@V?$allocator@UForceInfo@@@std@@@std@@QBEIXZ ; std::vector<ForceInfo,std::allocator<ForceInfo> >::max_size
; Function compile flags: /Ogsp
; File c:\program files (x86)\microsoft visual studio 10.0\vc\include\vector
;	COMDAT ?max_size@?$vector@UForceInfo@@V?$allocator@UForceInfo@@@std@@@std@@QBEIXZ
_TEXT	SEGMENT
?max_size@?$vector@UForceInfo@@V?$allocator@UForceInfo@@@std@@@std@@QBEIXZ PROC ; std::vector<ForceInfo,std::allocator<ForceInfo> >::max_size, COMDAT
; _this$ = ecx

; 884  : 		return (this->_Alval.max_size());

  00000	b8 55 55 55 15	 mov	 eax, 357913941		; 15555555H

; 885  : 		}

  00005	c3		 ret	 0
?max_size@?$vector@UForceInfo@@V?$allocator@UForceInfo@@@std@@@std@@QBEIXZ ENDP ; std::vector<ForceInfo,std::allocator<ForceInfo> >::max_size
_TEXT	ENDS
PUBLIC	?allocate@?$allocator@UForceInfo@@@std@@QAEPAUForceInfo@@I@Z ; std::allocator<ForceInfo>::allocate
; Function compile flags: /Ogsp
; File c:\program files (x86)\microsoft visual studio 10.0\vc\include\xmemory
;	COMDAT ?allocate@?$allocator@UForceInfo@@@std@@QAEPAUForceInfo@@I@Z
_TEXT	SEGMENT
__Count$ = 8						; size = 4
?allocate@?$allocator@UForceInfo@@@std@@QAEPAUForceInfo@@I@Z PROC ; std::allocator<ForceInfo>::allocate, COMDAT
; _this$ = ecx

; 186  : 		{	// allocate array of _Count elements

  00000	55		 push	 ebp
  00001	8b ec		 mov	 ebp, esp

; 187  : 		return (_Allocate(_Count, (pointer)0));

  00003	6a 00		 push	 0
  00005	ff 75 08	 push	 DWORD PTR __Count$[ebp]
  00008	e8 00 00 00 00	 call	 ??$_Allocate@UForceInfo@@@std@@YAPAUForceInfo@@IPAU1@@Z ; std::_Allocate<ForceInfo>
  0000d	59		 pop	 ecx
  0000e	59		 pop	 ecx

; 188  : 		}

  0000f	5d		 pop	 ebp
  00010	c2 04 00	 ret	 4
?allocate@?$allocator@UForceInfo@@@std@@QAEPAUForceInfo@@I@Z ENDP ; std::allocator<ForceInfo>::allocate
_TEXT	ENDS
PUBLIC	??8?$_Vector_const_iterator@V?$_Vector_val@UWeaponInfo@@V?$allocator@UWeaponInfo@@@std@@@std@@@std@@QBE_NABV01@@Z ; std::_Vector_const_iterator<std::_Vector_val<WeaponInfo,std::allocator<WeaponInfo> > >::operator==
; Function compile flags: /Ogsp
; File c:\program files (x86)\microsoft visual studio 10.0\vc\include\vector
;	COMDAT ??8?$_Vector_const_iterator@V?$_Vector_val@UWeaponInfo@@V?$allocator@UWeaponInfo@@@std@@@std@@@std@@QBE_NABV01@@Z
_TEXT	SEGMENT
__Right$ = 8						; size = 4
??8?$_Vector_const_iterator@V?$_Vector_val@UWeaponInfo@@V?$allocator@UWeaponInfo@@@std@@@std@@@std@@QBE_NABV01@@Z PROC ; std::_Vector_const_iterator<std::_Vector_val<WeaponInfo,std::allocator<WeaponInfo> > >::operator==, COMDAT
; _this$ = ecx

; 201  : 		{	// test for iterator equality

  00000	55		 push	 ebp
  00001	8b ec		 mov	 ebp, esp

; 202  : 		_Compat(_Right);
; 203  : 		return (this->_Ptr == _Right._Ptr);

  00003	8b 01		 mov	 eax, DWORD PTR [ecx]
  00005	8b 4d 08	 mov	 ecx, DWORD PTR __Right$[ebp]
  00008	2b 01		 sub	 eax, DWORD PTR [ecx]
  0000a	f7 d8		 neg	 eax
  0000c	1b c0		 sbb	 eax, eax
  0000e	40		 inc	 eax

; 204  : 		}

  0000f	5d		 pop	 ebp
  00010	c2 04 00	 ret	 4
??8?$_Vector_const_iterator@V?$_Vector_val@UWeaponInfo@@V?$allocator@UWeaponInfo@@@std@@@std@@@std@@QBE_NABV01@@Z ENDP ; std::_Vector_const_iterator<std::_Vector_val<WeaponInfo,std::allocator<WeaponInfo> > >::operator==
_TEXT	ENDS
PUBLIC	??8?$_Vector_const_iterator@V?$_Vector_val@UForceInfo@@V?$allocator@UForceInfo@@@std@@@std@@@std@@QBE_NABV01@@Z ; std::_Vector_const_iterator<std::_Vector_val<ForceInfo,std::allocator<ForceInfo> > >::operator==
; Function compile flags: /Ogsp
;	COMDAT ??8?$_Vector_const_iterator@V?$_Vector_val@UForceInfo@@V?$allocator@UForceInfo@@@std@@@std@@@std@@QBE_NABV01@@Z
_TEXT	SEGMENT
__Right$ = 8						; size = 4
??8?$_Vector_const_iterator@V?$_Vector_val@UForceInfo@@V?$allocator@UForceInfo@@@std@@@std@@@std@@QBE_NABV01@@Z PROC ; std::_Vector_const_iterator<std::_Vector_val<ForceInfo,std::allocator<ForceInfo> > >::operator==, COMDAT
; _this$ = ecx

; 201  : 		{	// test for iterator equality

  00000	55		 push	 ebp
  00001	8b ec		 mov	 ebp, esp

; 202  : 		_Compat(_Right);
; 203  : 		return (this->_Ptr == _Right._Ptr);

  00003	8b 01		 mov	 eax, DWORD PTR [ecx]
  00005	8b 4d 08	 mov	 ecx, DWORD PTR __Right$[ebp]
  00008	2b 01		 sub	 eax, DWORD PTR [ecx]
  0000a	f7 d8		 neg	 eax
  0000c	1b c0		 sbb	 eax, eax
  0000e	40		 inc	 eax

; 204  : 		}

  0000f	5d		 pop	 ebp
  00010	c2 04 00	 ret	 4
??8?$_Vector_const_iterator@V?$_Vector_val@UForceInfo@@V?$allocator@UForceInfo@@@std@@@std@@@std@@QBE_NABV01@@Z ENDP ; std::_Vector_const_iterator<std::_Vector_val<ForceInfo,std::allocator<ForceInfo> > >::operator==
_TEXT	ENDS
PUBLIC	?destroy@?$allocator@UForceInfo@@@std@@QAEXPAUForceInfo@@@Z ; std::allocator<ForceInfo>::destroy
; Function compile flags: /Ogsp
; File c:\program files (x86)\microsoft visual studio 10.0\vc\include\xmemory
;	COMDAT ?destroy@?$allocator@UForceInfo@@@std@@QAEXPAUForceInfo@@@Z
_TEXT	SEGMENT
__Ptr$ = 8						; size = 4
?destroy@?$allocator@UForceInfo@@@std@@QAEXPAUForceInfo@@@Z PROC ; std::allocator<ForceInfo>::destroy, COMDAT
; _this$ = ecx

; 213  : 		_Destroy(_Ptr);
; 214  : 		}

  00000	c2 04 00	 ret	 4
?destroy@?$allocator@UForceInfo@@@std@@QAEXPAUForceInfo@@@Z ENDP ; std::allocator<ForceInfo>::destroy
_TEXT	ENDS
PUBLIC	??$_Destroy@UWeaponInfo@@@std@@YAXPAUWeaponInfo@@@Z ; std::_Destroy<WeaponInfo>
; Function compile flags: /Ogsp
;	COMDAT ??$_Destroy@UWeaponInfo@@@std@@YAXPAUWeaponInfo@@@Z
_TEXT	SEGMENT
__Ptr$ = 8						; size = 4
??$_Destroy@UWeaponInfo@@@std@@YAXPAUWeaponInfo@@@Z PROC ; std::_Destroy<WeaponInfo>, COMDAT

; 62   : 	{	// destroy object at _Ptr

  00000	55		 push	 ebp
  00001	8b ec		 mov	 ebp, esp

; 63   : 	_Ptr->~_Ty();

  00003	8b 4d 08	 mov	 ecx, DWORD PTR __Ptr$[ebp]
  00006	83 c1 08	 add	 ecx, 8

; 64   : 	}

  00009	5d		 pop	 ebp

; 63   : 	_Ptr->~_Ty();

  0000a	ff 25 00 00 00
	00		 jmp	 DWORD PTR __imp_??1ioHashString@@QAE@XZ
??$_Destroy@UWeaponInfo@@@std@@YAXPAUWeaponInfo@@@Z ENDP ; std::_Destroy<WeaponInfo>
_TEXT	ENDS
PUBLIC	?SetGravityAmt@ioBaseChar@@QAEXM@Z		; ioBaseChar::SetGravityAmt
; Function compile flags: /Ogsp
; File d:\lost saga for developer\youtube\tutorial\source\src\lsclient\iobasechar.h
;	COMDAT ?SetGravityAmt@ioBaseChar@@QAEXM@Z
_TEXT	SEGMENT
_value$537276 = 8					; size = 4
_fAmt$ = 8						; size = 4
?SetGravityAmt@ioBaseChar@@QAEXM@Z PROC			; ioBaseChar::SetGravityAmt, COMDAT
; _this$ = ecx

; 2631 : 	inline void SetGravityAmt( float fAmt ) { m_fGravityAmt = fAmt; }

  00000	55		 push	 ebp
  00001	8b ec		 mov	 ebp, esp
  00003	f3 0f 10 45 08	 movss	 xmm0, DWORD PTR _fAmt$[ebp]
  00008	8d 45 08	 lea	 eax, DWORD PTR _value$537276[ebp]
  0000b	50		 push	 eax
  0000c	81 c1 e8 0b 00
	00		 add	 ecx, 3048		; 00000be8H
  00012	f3 0f 11 45 08	 movss	 DWORD PTR _value$537276[ebp], xmm0
  00017	e8 00 00 00 00	 call	 ?EncryptValueToPool@?$CEncrypt@M@@AAEXPBD@Z ; CEncrypt<float>::EncryptValueToPool
  0001c	5d		 pop	 ebp
  0001d	c2 04 00	 ret	 4
?SetGravityAmt@ioBaseChar@@QAEXM@Z ENDP			; ioBaseChar::SetGravityAmt
_TEXT	ENDS
PUBLIC	??_C@_00CNPNBAHC@?$AA@				; `string'
PUBLIC	_rkLoader$GSCopy$
PUBLIC	__$ArrayPad$
PUBLIC	?LoadProperty@ioAngleFireSkill@@UAEXAAVioINILoader@@@Z ; ioAngleFireSkill::LoadProperty
EXTRN	?Init@AttackAttribute@@QAEXXZ:PROC		; AttackAttribute::Init
EXTRN	__imp_??4ioHashString@@QAEAAV0@PBD@Z:PROC
EXTRN	?LoadProperty@ioAttackSkill@@UAEXAAVioINILoader@@@Z:PROC ; ioAttackSkill::LoadProperty
;	COMDAT ??_C@_00CNPNBAHC@?$AA@
; File d:\lost saga for developer\youtube\tutorial\source\src\lsclient\stringprotect.h
CONST	SEGMENT
??_C@_00CNPNBAHC@?$AA@ DB 00H				; `string'
; Function compile flags: /Ogsp
; File d:\lost saga for developer\youtube\tutorial\source\src\lsclient\ioanglefireskill.cpp
CONST	ENDS
;	COMDAT ?LoadProperty@ioAngleFireSkill@@UAEXAAVioINILoader@@@Z
_TEXT	SEGMENT
tv12990 = -304						; size = 4
tv12981 = -304						; size = 4
_value$538811 = -304					; size = 4
_value$538677 = -304					; size = 4
_value$538542 = -304					; size = 4
_value$538412 = -304					; size = 4
_value$538283 = -304					; size = 4
_rkLoader$GSCopy$ = -300				; size = 4
_szBuf$ = -296						; size = 260
__k$539048 = -36					; size = 26
__k$537865 = -36					; size = 23
__k$538430 = -32					; size = 19
__k$537920 = -32					; size = 20
__k$537545 = -32					; size = 21
__k$538841 = -28					; size = 18
__k$538711 = -28					; size = 18
__k$538564 = -28					; size = 18
__k$537683 = -28					; size = 18
__k$537420 = -28					; size = 18
__k$537295 = -28					; size = 16
__k$538170 = -24					; size = 12
_szEncAttack$538045 = -24				; size = 12
__k$538300 = -20					; size = 10
__$ArrayPad$ = -4					; size = 4
_rkLoader$ = 8						; size = 4
?LoadProperty@ioAngleFireSkill@@UAEXAAVioINILoader@@@Z PROC ; ioAngleFireSkill::LoadProperty, COMDAT
; _this$ = ecx

; 55   : {

  00000	55		 push	 ebp
  00001	8b ec		 mov	 ebp, esp
  00003	81 ec 30 01 00
	00		 sub	 esp, 304		; 00000130H
  00009	a1 00 00 00 00	 mov	 eax, DWORD PTR ___security_cookie
  0000e	33 c5		 xor	 eax, ebp
  00010	89 45 fc	 mov	 DWORD PTR __$ArrayPad$[ebp], eax
  00013	56		 push	 esi
  00014	57		 push	 edi
  00015	8b 7d 08	 mov	 edi, DWORD PTR _rkLoader$[ebp]

; 56   : 	ioAttackSkill::LoadProperty( rkLoader );

  00018	57		 push	 edi
  00019	8b f1		 mov	 esi, ecx

; 89   : 
; 90   : 	//
; 91   : 	rkLoader.LoadString_e( "extra_guid_effect", "", szBuf, MAX_PATH );

  0001b	89 bd d4 fe ff
	ff		 mov	 DWORD PTR _rkLoader$GSCopy$[ebp], edi
  00021	e8 00 00 00 00	 call	 ?LoadProperty@ioAttackSkill@@UAEXAAVioINILoader@@@Z ; ioAttackSkill::LoadProperty
  00026	6a 03		 push	 3
  00028	c7 45 e4 9e 87
	82 86		 mov	 DWORD PTR __k$537295[ebp], -2038265954 ; 8682879eH
  0002f	c7 45 e8 81 b3
	9e 9a		 mov	 DWORD PTR __k$537295[ebp+4], -1700875391 ; 9a9eb381H
  00036	c7 45 ec b2 81
	84 9e		 mov	 DWORD PTR __k$537295[ebp+8], -1635483214 ; 9e8481b2H
  0003d	8d 45 e4	 lea	 eax, DWORD PTR __k$537295[ebp]
  00040	c7 45 f0 84 83
	85 00		 mov	 DWORD PTR __k$537295[ebp+12], 8749956 ; 00858384H
  00047	59		 pop	 ecx
$LL106@LoadProper:

; 57   : 
; 58   : 	char szBuf[MAX_PATH];
; 59   : 
; 60   : 	rkLoader.LoadString_e( "skill_up_motion", "", szBuf, MAX_PATH );

  00048	81 30 ed ec eb
	ea		 xor	 DWORD PTR [eax], -353637139 ; eaebecedH
  0004e	83 c0 04	 add	 eax, 4
  00051	49		 dec	 ecx
  00052	75 f4		 jne	 SHORT $LL106@LoadProper
  00054	6a 0c		 push	 12			; 0000000cH
  00056	58		 pop	 eax
$LL103@LoadProper:
  00057	8b c8		 mov	 ecx, eax
  00059	81 e1 03 00 00
	80		 and	 ecx, -2147483645	; 80000003H
  0005f	79 05		 jns	 SHORT $LN1557@LoadProper
  00061	49		 dec	 ecx
  00062	83 c9 fc	 or	 ecx, -4			; fffffffcH
  00065	41		 inc	 ecx
$LN1557@LoadProper:
  00066	b2 ed		 mov	 dl, -19			; ffffffedH
  00068	2a d1		 sub	 dl, cl
  0006a	30 54 05 e4	 xor	 BYTE PTR __k$537295[ebp+eax], dl
  0006e	40		 inc	 eax
  0006f	83 f8 0f	 cmp	 eax, 15			; 0000000fH
  00072	7c e3		 jl	 SHORT $LL103@LoadProper
  00074	53		 push	 ebx
  00075	68 04 01 00 00	 push	 260			; 00000104H
  0007a	8d 85 d8 fe ff
	ff		 lea	 eax, DWORD PTR _szBuf$[ebp]
  00080	50		 push	 eax
  00081	68 00 00 00 00	 push	 OFFSET ??_C@_00CNPNBAHC@?$AA@
  00086	8d 45 e4	 lea	 eax, DWORD PTR __k$537295[ebp]
  00089	8b cf		 mov	 ecx, edi
  0008b	8b 3d 00 00 00
	00		 mov	 edi, DWORD PTR __imp_?LoadStringA@ioINILoader@@QAEXPBD0PADH@Z
  00091	50		 push	 eax
  00092	ff d7		 call	 edi

; 61   : 	m_SkillUpMotion = szBuf;

  00094	8b 1d 00 00 00
	00		 mov	 ebx, DWORD PTR __imp_??4ioHashString@@QAEAAV0@PBD@Z
  0009a	8d 85 d8 fe ff
	ff		 lea	 eax, DWORD PTR _szBuf$[ebp]
  000a0	50		 push	 eax
  000a1	8d 8e 3c 11 00
	00		 lea	 ecx, DWORD PTR [esi+4412]
  000a7	ff d3		 call	 ebx
  000a9	6a 04		 push	 4

; 62   : 
; 63   : 	rkLoader.LoadString_e( "skill_down_motion", "", szBuf, MAX_PATH );

  000ab	c7 45 e4 9e 87
	82 86		 mov	 DWORD PTR __k$537420[ebp], -2038265954 ; 8682879eH
  000b2	c7 45 e8 81 b3
	8f 85		 mov	 DWORD PTR __k$537420[ebp+4], -2054179967 ; 858fb381H
  000b9	c7 45 ec 9a 82
	b4 87		 mov	 DWORD PTR __k$537420[ebp+8], -2018213222 ; 87b4829aH
  000c0	c7 45 f0 82 98
	82 85		 mov	 DWORD PTR __k$537420[ebp+12], -2055038846 ; 85829882H
  000c7	8d 45 e4	 lea	 eax, DWORD PTR __k$537420[ebp]
  000ca	66 c7 45 f4 83
	00		 mov	 WORD PTR __k$537420[ebp+16], 131 ; 00000083H
  000d0	59		 pop	 ecx
$LL212@LoadProper:
  000d1	81 30 ed ec eb
	ea		 xor	 DWORD PTR [eax], -353637139 ; eaebecedH
  000d7	83 c0 04	 add	 eax, 4
  000da	49		 dec	 ecx
  000db	75 f4		 jne	 SHORT $LL212@LoadProper
  000dd	8b 8d d4 fe ff
	ff		 mov	 ecx, DWORD PTR _rkLoader$GSCopy$[ebp]
  000e3	80 75 f4 ed	 xor	 BYTE PTR __k$537420[ebp+16], -19 ; ffffffedH
  000e7	68 04 01 00 00	 push	 260			; 00000104H
  000ec	8d 85 d8 fe ff
	ff		 lea	 eax, DWORD PTR _szBuf$[ebp]
  000f2	50		 push	 eax
  000f3	68 00 00 00 00	 push	 OFFSET ??_C@_00CNPNBAHC@?$AA@
  000f8	8d 45 e4	 lea	 eax, DWORD PTR __k$537420[ebp]
  000fb	50		 push	 eax
  000fc	ff d7		 call	 edi

; 64   : 	m_SkillDownMotion = szBuf;

  000fe	8d 85 d8 fe ff
	ff		 lea	 eax, DWORD PTR _szBuf$[ebp]
  00104	50		 push	 eax
  00105	8d 8e 4c 11 00
	00		 lea	 ecx, DWORD PTR [esi+4428]
  0010b	ff d3		 call	 ebx
  0010d	6a 05		 push	 5

; 65   : 
; 66   : 
; 67   : 	rkLoader.LoadString_e( "skill_up_loop_motion", "", szBuf, MAX_PATH );

  0010f	c7 45 e0 9e 87
	82 86		 mov	 DWORD PTR __k$537545[ebp], -2038265954 ; 8682879eH
  00116	c7 45 e4 81 b3
	9e 9a		 mov	 DWORD PTR __k$537545[ebp+4], -1700875391 ; 9a9eb381H
  0011d	c7 45 e8 b2 80
	84 85		 mov	 DWORD PTR __k$537545[ebp+8], -2054913870 ; 858480b2H
  00124	c7 45 ec 9d b3
	86 85		 mov	 DWORD PTR __k$537545[ebp+12], -2054769763 ; 8586b39dH
  0012b	c7 45 f0 99 85
	84 84		 mov	 DWORD PTR __k$537545[ebp+16], -2071689831 ; 84848599H
  00132	8d 45 e0	 lea	 eax, DWORD PTR __k$537545[ebp]
  00135	c6 45 f4 00	 mov	 BYTE PTR __k$537545[ebp+20], 0
  00139	59		 pop	 ecx
$LL318@LoadProper:
  0013a	81 30 ed ec eb
	ea		 xor	 DWORD PTR [eax], -353637139 ; eaebecedH
  00140	83 c0 04	 add	 eax, 4
  00143	49		 dec	 ecx
  00144	75 f4		 jne	 SHORT $LL318@LoadProper
  00146	8b 8d d4 fe ff
	ff		 mov	 ecx, DWORD PTR _rkLoader$GSCopy$[ebp]
  0014c	68 04 01 00 00	 push	 260			; 00000104H
  00151	8d 85 d8 fe ff
	ff		 lea	 eax, DWORD PTR _szBuf$[ebp]
  00157	50		 push	 eax
  00158	68 00 00 00 00	 push	 OFFSET ??_C@_00CNPNBAHC@?$AA@
  0015d	8d 45 e0	 lea	 eax, DWORD PTR __k$537545[ebp]
  00160	50		 push	 eax
  00161	ff d7		 call	 edi

; 68   : 	m_SkillUpLoopMotion = szBuf;

  00163	8d 85 d8 fe ff
	ff		 lea	 eax, DWORD PTR _szBuf$[ebp]
  00169	50		 push	 eax
  0016a	8d 8e 6c 11 00
	00		 lea	 ecx, DWORD PTR [esi+4460]
  00170	ff d3		 call	 ebx
  00172	6a 04		 push	 4

; 69   : 
; 70   : 	rkLoader.LoadString_e( "skill_loop_motion", "", szBuf, MAX_PATH );

  00174	c7 45 e4 9e 87
	82 86		 mov	 DWORD PTR __k$537683[ebp], -2038265954 ; 8682879eH
  0017b	c7 45 e8 81 b3
	87 85		 mov	 DWORD PTR __k$537683[ebp+4], -2054704255 ; 8587b381H
  00182	c7 45 ec 82 9c
	b4 87		 mov	 DWORD PTR __k$537683[ebp+8], -2018206590 ; 87b49c82H
  00189	c7 45 f0 82 98
	82 85		 mov	 DWORD PTR __k$537683[ebp+12], -2055038846 ; 85829882H
  00190	8d 45 e4	 lea	 eax, DWORD PTR __k$537683[ebp]
  00193	66 c7 45 f4 83
	00		 mov	 WORD PTR __k$537683[ebp+16], 131 ; 00000083H
  00199	59		 pop	 ecx
$LL424@LoadProper:
  0019a	81 30 ed ec eb
	ea		 xor	 DWORD PTR [eax], -353637139 ; eaebecedH
  001a0	83 c0 04	 add	 eax, 4
  001a3	49		 dec	 ecx
  001a4	75 f4		 jne	 SHORT $LL424@LoadProper
  001a6	8b 8d d4 fe ff
	ff		 mov	 ecx, DWORD PTR _rkLoader$GSCopy$[ebp]
  001ac	80 75 f4 ed	 xor	 BYTE PTR __k$537683[ebp+16], -19 ; ffffffedH
  001b0	68 04 01 00 00	 push	 260			; 00000104H
  001b5	8d 85 d8 fe ff
	ff		 lea	 eax, DWORD PTR _szBuf$[ebp]
  001bb	50		 push	 eax
  001bc	68 00 00 00 00	 push	 OFFSET ??_C@_00CNPNBAHC@?$AA@
  001c1	8d 45 e4	 lea	 eax, DWORD PTR __k$537683[ebp]
  001c4	50		 push	 eax
  001c5	ff d7		 call	 edi

; 71   : 	m_SkillLoopMotion = szBuf;

  001c7	8d 85 d8 fe ff
	ff		 lea	 eax, DWORD PTR _szBuf$[ebp]
  001cd	50		 push	 eax
  001ce	8d 8e 5c 11 00
	00		 lea	 ecx, DWORD PTR [esi+4444]
  001d4	ff d3		 call	 ebx
  001d6	6a 05		 push	 5

; 72   : 
; 73   : 	rkLoader.LoadString_e( "skill_down_loop_motion", "", szBuf, MAX_PATH );

  001d8	c7 45 dc 9e 87
	82 86		 mov	 DWORD PTR __k$537865[ebp], -2038265954 ; 8682879eH
  001df	c7 45 e0 81 b3
	8f 85		 mov	 DWORD PTR __k$537865[ebp+4], -2054179967 ; 858fb381H
  001e6	c7 45 e4 9a 82
	b4 86		 mov	 DWORD PTR __k$537865[ebp+8], -2034990438 ; 86b4829aH
  001ed	c7 45 e8 82 83
	9b b5		 mov	 DWORD PTR __k$537865[ebp+12], -1248099454 ; b59b8382H
  001f4	c7 45 ec 80 83
	9f 83		 mov	 DWORD PTR __k$537865[ebp+16], -2086698112 ; 839f8380H
  001fb	66 c7 45 f0 82
	82		 mov	 WORD PTR __k$537865[ebp+20], 33410 ; 00008282H
  00201	8d 45 dc	 lea	 eax, DWORD PTR __k$537865[ebp]
  00204	c6 45 f2 00	 mov	 BYTE PTR __k$537865[ebp+22], 0
  00208	59		 pop	 ecx
$LL530@LoadProper:
  00209	81 30 ed ec eb
	ea		 xor	 DWORD PTR [eax], -353637139 ; eaebecedH
  0020f	83 c0 04	 add	 eax, 4
  00212	49		 dec	 ecx
  00213	75 f4		 jne	 SHORT $LL530@LoadProper
  00215	6a 14		 push	 20			; 00000014H
  00217	58		 pop	 eax
$LL527@LoadProper:
  00218	8b c8		 mov	 ecx, eax
  0021a	81 e1 03 00 00
	80		 and	 ecx, -2147483645	; 80000003H
  00220	79 05		 jns	 SHORT $LN1558@LoadProper
  00222	49		 dec	 ecx
  00223	83 c9 fc	 or	 ecx, -4			; fffffffcH
  00226	41		 inc	 ecx
$LN1558@LoadProper:
  00227	b2 ed		 mov	 dl, -19			; ffffffedH
  00229	2a d1		 sub	 dl, cl
  0022b	30 54 05 dc	 xor	 BYTE PTR __k$537865[ebp+eax], dl
  0022f	40		 inc	 eax
  00230	83 f8 16	 cmp	 eax, 22			; 00000016H
  00233	7c e3		 jl	 SHORT $LL527@LoadProper
  00235	8b 8d d4 fe ff
	ff		 mov	 ecx, DWORD PTR _rkLoader$GSCopy$[ebp]
  0023b	68 04 01 00 00	 push	 260			; 00000104H
  00240	8d 85 d8 fe ff
	ff		 lea	 eax, DWORD PTR _szBuf$[ebp]
  00246	50		 push	 eax
  00247	68 00 00 00 00	 push	 OFFSET ??_C@_00CNPNBAHC@?$AA@
  0024c	8d 45 dc	 lea	 eax, DWORD PTR __k$537865[ebp]
  0024f	50		 push	 eax
  00250	ff d7		 call	 edi

; 74   : 	m_SkillDownLoopMotion = szBuf;

  00252	8d 85 d8 fe ff
	ff		 lea	 eax, DWORD PTR _szBuf$[ebp]
  00258	50		 push	 eax
  00259	8d 8e 7c 11 00
	00		 lea	 ecx, DWORD PTR [esi+4476]
  0025f	ff d3		 call	 ebx
  00261	6a 04		 push	 4

; 75   : 
; 76   : 
; 77   : 	m_dwLoopDuration = rkLoader.LoadInt_e( "skill_loop_duration", 0 );

  00263	c7 45 e0 9e 87
	82 86		 mov	 DWORD PTR __k$537920[ebp], -2038265954 ; 8682879eH
  0026a	c7 45 e4 81 b3
	87 85		 mov	 DWORD PTR __k$537920[ebp+4], -2054704255 ; 8587b381H
  00271	c7 45 e8 82 9c
	b4 8e		 mov	 DWORD PTR __k$537920[ebp+8], -1900766078 ; 8eb49c82H
  00278	c7 45 ec 98 9e
	8a 9e		 mov	 DWORD PTR __k$537920[ebp+12], -1635082600 ; 9e8a9e98H
  0027f	8d 45 e0	 lea	 eax, DWORD PTR __k$537920[ebp]
  00282	c7 45 f0 84 83
	85 00		 mov	 DWORD PTR __k$537920[ebp+16], 8749956 ; 00858384H
  00289	59		 pop	 ecx
$LL636@LoadProper:
  0028a	81 30 ed ec eb
	ea		 xor	 DWORD PTR [eax], -353637139 ; eaebecedH
  00290	83 c0 04	 add	 eax, 4
  00293	49		 dec	 ecx
  00294	75 f4		 jne	 SHORT $LL636@LoadProper
  00296	6a 10		 push	 16			; 00000010H
  00298	58		 pop	 eax
$LL633@LoadProper:
  00299	8b c8		 mov	 ecx, eax
  0029b	81 e1 03 00 00
	80		 and	 ecx, -2147483645	; 80000003H
  002a1	79 05		 jns	 SHORT $LN1559@LoadProper
  002a3	49		 dec	 ecx
  002a4	83 c9 fc	 or	 ecx, -4			; fffffffcH
  002a7	41		 inc	 ecx
$LN1559@LoadProper:
  002a8	b2 ed		 mov	 dl, -19			; ffffffedH
  002aa	2a d1		 sub	 dl, cl
  002ac	30 54 05 e0	 xor	 BYTE PTR __k$537920[ebp+eax], dl
  002b0	40		 inc	 eax
  002b1	83 f8 13	 cmp	 eax, 19			; 00000013H
  002b4	7c e3		 jl	 SHORT $LL633@LoadProper
  002b6	8b 8d d4 fe ff
	ff		 mov	 ecx, DWORD PTR _rkLoader$GSCopy$[ebp]
  002bc	6a 00		 push	 0
  002be	8d 45 e0	 lea	 eax, DWORD PTR __k$537920[ebp]
  002c1	50		 push	 eax
  002c2	ff 15 00 00 00
	00		 call	 DWORD PTR __imp_?LoadInt@ioINILoader@@QAEHPBDH@Z

; 78   : 
; 79   : 	// Fail Motion
; 80   : 	m_AttackFail.Init();

  002c8	8d 8e e8 10 00
	00		 lea	 ecx, DWORD PTR [esi+4328]
  002ce	89 86 94 11 00
	00		 mov	 DWORD PTR [esi+4500], eax
  002d4	e8 00 00 00 00	 call	 ?Init@AttackAttribute@@QAEXXZ ; AttackAttribute::Init
  002d9	6a 02		 push	 2

; 81   : 	LoadAttackAttribute_e( "attack_fail", m_AttackFail, rkLoader );

  002db	c7 45 e8 8c 98
	9f 8b		 mov	 DWORD PTR _szEncAttack$538045[ebp], -1952474996 ; 8b9f988cH
  002e2	c7 45 ec 8e 87
	b4 8c		 mov	 DWORD PTR _szEncAttack$538045[ebp+4], -1934325874 ; 8cb4878eH
  002e9	8d 45 e8	 lea	 eax, DWORD PTR _szEncAttack$538045[ebp]
  002ec	c7 45 f0 8c 85
	87 00		 mov	 DWORD PTR _szEncAttack$538045[ebp+8], 8881548 ; 0087858cH
  002f3	59		 pop	 ecx
$LL742@LoadProper:
  002f4	81 30 ed ec eb
	ea		 xor	 DWORD PTR [eax], -353637139 ; eaebecedH
  002fa	83 c0 04	 add	 eax, 4
  002fd	49		 dec	 ecx
  002fe	75 f4		 jne	 SHORT $LL742@LoadProper
  00300	6a 08		 push	 8
  00302	58		 pop	 eax
$LL739@LoadProper:
  00303	8b c8		 mov	 ecx, eax
  00305	81 e1 03 00 00
	80		 and	 ecx, -2147483645	; 80000003H
  0030b	79 05		 jns	 SHORT $LN1560@LoadProper
  0030d	49		 dec	 ecx
  0030e	83 c9 fc	 or	 ecx, -4			; fffffffcH
  00311	41		 inc	 ecx
$LN1560@LoadProper:
  00312	b2 ed		 mov	 dl, -19			; ffffffedH
  00314	2a d1		 sub	 dl, cl
  00316	30 54 05 e8	 xor	 BYTE PTR _szEncAttack$538045[ebp+eax], dl
  0031a	40		 inc	 eax
  0031b	83 f8 0b	 cmp	 eax, 11			; 0000000bH
  0031e	7c e3		 jl	 SHORT $LL739@LoadProper
  00320	ff b5 d4 fe ff
	ff		 push	 DWORD PTR _rkLoader$GSCopy$[ebp]
  00326	8d 86 e8 10 00
	00		 lea	 eax, DWORD PTR [esi+4328]
  0032c	50		 push	 eax
  0032d	8d 45 e8	 lea	 eax, DWORD PTR _szEncAttack$538045[ebp]
  00330	50		 push	 eax
  00331	e8 00 00 00 00	 call	 ?LoadAttackAttribute@@YAXPBDAAUAttackAttribute@@AAVioINILoader@@@Z ; LoadAttackAttribute
  00336	83 c4 0c	 add	 esp, 12			; 0000000cH
  00339	6a 02		 push	 2

; 82   : 
; 83   : 	// Limit Angle
; 84   : 	m_fLimitVAngleS = rkLoader.LoadFloat_e( "angle_begin", 0.0f );

  0033b	c7 45 e8 8c 82
	8c 86		 mov	 DWORD PTR __k$538170[ebp], -2037611892 ; 868c828cH
  00342	c7 45 ec 88 b3
	89 8f		 mov	 DWORD PTR __k$538170[ebp+4], -1886801016 ; 8f89b388H
  00349	8d 45 e8	 lea	 eax, DWORD PTR __k$538170[ebp]
  0034c	c7 45 f0 8a 85
	85 00		 mov	 DWORD PTR __k$538170[ebp+8], 8750474 ; 0085858aH
  00353	59		 pop	 ecx
$LL848@LoadProper:
  00354	81 30 ed ec eb
	ea		 xor	 DWORD PTR [eax], -353637139 ; eaebecedH
  0035a	83 c0 04	 add	 eax, 4
  0035d	49		 dec	 ecx
  0035e	75 f4		 jne	 SHORT $LL848@LoadProper
  00360	6a 08		 push	 8
  00362	58		 pop	 eax
$LL845@LoadProper:
  00363	8b c8		 mov	 ecx, eax
  00365	81 e1 03 00 00
	80		 and	 ecx, -2147483645	; 80000003H
  0036b	79 05		 jns	 SHORT $LN1561@LoadProper
  0036d	49		 dec	 ecx
  0036e	83 c9 fc	 or	 ecx, -4			; fffffffcH
  00371	41		 inc	 ecx
$LN1561@LoadProper:
  00372	b2 ed		 mov	 dl, -19			; ffffffedH
  00374	2a d1		 sub	 dl, cl
  00376	30 54 05 e8	 xor	 BYTE PTR __k$538170[ebp+eax], dl
  0037a	40		 inc	 eax
  0037b	83 f8 0b	 cmp	 eax, 11			; 0000000bH
  0037e	7c e3		 jl	 SHORT $LL845@LoadProper
  00380	0f 57 c0	 xorps	 xmm0, xmm0
  00383	51		 push	 ecx
  00384	8b 8d d4 fe ff
	ff		 mov	 ecx, DWORD PTR _rkLoader$GSCopy$[ebp]
  0038a	8d 45 e8	 lea	 eax, DWORD PTR __k$538170[ebp]
  0038d	f3 0f 11 04 24	 movss	 DWORD PTR [esp], xmm0
  00392	50		 push	 eax
  00393	ff 15 00 00 00
	00		 call	 DWORD PTR __imp_?LoadFloat@ioINILoader@@QAEMPBDM@Z
  00399	d9 9d d0 fe ff
	ff		 fstp	 DWORD PTR _value$538283[ebp]
  0039f	8d 85 d0 fe ff
	ff		 lea	 eax, DWORD PTR _value$538283[ebp]
  003a5	50		 push	 eax
  003a6	8d 8e c0 11 00
	00		 lea	 ecx, DWORD PTR [esi+4544]
  003ac	e8 00 00 00 00	 call	 ?EncryptValueToPool@?$CEncrypt@M@@AAEXPBD@Z ; CEncrypt<float>::EncryptValueToPool
  003b1	6a 02		 push	 2

; 85   : 	m_fLimitVAngleE = rkLoader.LoadFloat_e( "angle_end", 0.0f );

  003b3	c7 45 ec 8c 82
	8c 86		 mov	 DWORD PTR __k$538300[ebp], -2037611892 ; 868c828cH
  003ba	c7 45 f0 88 b3
	8e 84		 mov	 DWORD PTR __k$538300[ebp+4], -2071022712 ; 848eb388H
  003c1	8d 45 ec	 lea	 eax, DWORD PTR __k$538300[ebp]
  003c4	66 c7 45 f4 89
	00		 mov	 WORD PTR __k$538300[ebp+8], 137 ; 00000089H
  003ca	59		 pop	 ecx
$LL956@LoadProper:
  003cb	81 30 ed ec eb
	ea		 xor	 DWORD PTR [eax], -353637139 ; eaebecedH
  003d1	83 c0 04	 add	 eax, 4
  003d4	49		 dec	 ecx
  003d5	75 f4		 jne	 SHORT $LL956@LoadProper
  003d7	0f 57 c0	 xorps	 xmm0, xmm0
  003da	80 75 f4 ed	 xor	 BYTE PTR __k$538300[ebp+8], -19 ; ffffffedH
  003de	51		 push	 ecx
  003df	8b 8d d4 fe ff
	ff		 mov	 ecx, DWORD PTR _rkLoader$GSCopy$[ebp]
  003e5	8d 45 ec	 lea	 eax, DWORD PTR __k$538300[ebp]
  003e8	f3 0f 11 04 24	 movss	 DWORD PTR [esp], xmm0
  003ed	50		 push	 eax
  003ee	ff 15 00 00 00
	00		 call	 DWORD PTR __imp_?LoadFloat@ioINILoader@@QAEMPBDM@Z
  003f4	d9 9d d0 fe ff
	ff		 fstp	 DWORD PTR _value$538412[ebp]
  003fa	8d 85 d0 fe ff
	ff		 lea	 eax, DWORD PTR _value$538412[ebp]
  00400	50		 push	 eax
  00401	8d 8e f0 11 00
	00		 lea	 ecx, DWORD PTR [esi+4592]
  00407	e8 00 00 00 00	 call	 ?EncryptValueToPool@?$CEncrypt@M@@AAEXPBD@Z ; CEncrypt<float>::EncryptValueToPool
  0040c	6a 04		 push	 4

; 86   : 	m_dwAngleRotateSpeed = rkLoader.LoadInt_e( "angle_rotate_speed", 0 );

  0040e	c7 45 e0 8c 82
	8c 86		 mov	 DWORD PTR __k$538430[ebp], -2037611892 ; 868c828cH
  00415	c7 45 e4 88 b3
	99 85		 mov	 DWORD PTR __k$538430[ebp+4], -2053524600 ; 8599b388H
  0041c	c7 45 e8 99 8d
	9f 8f		 mov	 DWORD PTR __k$538430[ebp+8], -1885368935 ; 8f9f8d99H
  00423	c7 45 ec b2 9f
	9b 8f		 mov	 DWORD PTR __k$538430[ebp+12], -1885626446 ; 8f9b9fb2H
  0042a	66 c7 45 f0 88
	88		 mov	 WORD PTR __k$538430[ebp+16], 34952 ; 00008888H
  00430	8d 45 e0	 lea	 eax, DWORD PTR __k$538430[ebp]
  00433	c6 45 f2 00	 mov	 BYTE PTR __k$538430[ebp+18], 0
  00437	59		 pop	 ecx
$LL1064@LoadProper:
  00438	81 30 ed ec eb
	ea		 xor	 DWORD PTR [eax], -353637139 ; eaebecedH
  0043e	83 c0 04	 add	 eax, 4
  00441	49		 dec	 ecx
  00442	75 f4		 jne	 SHORT $LL1064@LoadProper
  00444	6a 10		 push	 16			; 00000010H
  00446	58		 pop	 eax
$LL1061@LoadProper:
  00447	8b c8		 mov	 ecx, eax
  00449	81 e1 03 00 00
	80		 and	 ecx, -2147483645	; 80000003H
  0044f	79 05		 jns	 SHORT $LN1562@LoadProper
  00451	49		 dec	 ecx
  00452	83 c9 fc	 or	 ecx, -4			; fffffffcH
  00455	41		 inc	 ecx
$LN1562@LoadProper:
  00456	b2 ed		 mov	 dl, -19			; ffffffedH
  00458	2a d1		 sub	 dl, cl
  0045a	30 54 05 e0	 xor	 BYTE PTR __k$538430[ebp+eax], dl
  0045e	40		 inc	 eax
  0045f	83 f8 12	 cmp	 eax, 18			; 00000012H
  00462	7c e3		 jl	 SHORT $LL1061@LoadProper
  00464	8b 8d d4 fe ff
	ff		 mov	 ecx, DWORD PTR _rkLoader$GSCopy$[ebp]
  0046a	6a 00		 push	 0
  0046c	8d 45 e0	 lea	 eax, DWORD PTR __k$538430[ebp]
  0046f	50		 push	 eax
  00470	ff 15 00 00 00
	00		 call	 DWORD PTR __imp_?LoadInt@ioINILoader@@QAEHPBDH@Z
  00476	89 85 d0 fe ff
	ff		 mov	 DWORD PTR _value$538542[ebp], eax
  0047c	8d 85 d0 fe ff
	ff		 lea	 eax, DWORD PTR _value$538542[ebp]
  00482	50		 push	 eax
  00483	8d 8e 20 12 00
	00		 lea	 ecx, DWORD PTR [esi+4640]
  00489	e8 00 00 00 00	 call	 ?EncryptValueToPool@?$CEncrypt@K@@AAEXPBD@Z ; CEncrypt<unsigned long>::EncryptValueToPool

; 87   : 	m_fRevisionZeroMin = rkLoader.LoadFloat_e( "revision_zero_min", FLOAT1 );

  0048e	b8 01 00 00 00	 mov	 eax, 1
  00493	6a 04		 push	 4
  00495	c7 45 e4 9f 89
	9d 83		 mov	 DWORD PTR __k$538564[ebp], -2086827617 ; 839d899fH
  0049c	c7 45 e8 9e 85
	84 84		 mov	 DWORD PTR __k$538564[ebp+4], -2071689826 ; 8484859eH
  004a3	c7 45 ec b2 96
	8e 98		 mov	 DWORD PTR __k$538564[ebp+8], -1735485774 ; 988e96b2H
  004aa	c7 45 f0 82 b3
	86 83		 mov	 DWORD PTR __k$538564[ebp+12], -2088324222 ; 8386b382H
  004b1	8d 4d e4	 lea	 ecx, DWORD PTR __k$538564[ebp]
  004b4	66 c7 45 f4 83
	00		 mov	 WORD PTR __k$538564[ebp+16], 131 ; 00000083H
  004ba	5a		 pop	 edx
$LL1174@LoadProper:
  004bb	81 31 ed ec eb
	ea		 xor	 DWORD PTR [ecx], -353637139 ; eaebecedH
  004c1	83 c1 04	 add	 ecx, 4
  004c4	4a		 dec	 edx
  004c5	75 f4		 jne	 SHORT $LL1174@LoadProper
  004c7	80 75 f4 ed	 xor	 BYTE PTR __k$538564[ebp+16], -19 ; ffffffedH
  004cb	89 85 d0 fe ff
	ff		 mov	 DWORD PTR tv12990[ebp], eax
  004d1	db 85 d0 fe ff
	ff		 fild	 DWORD PTR tv12990[ebp]
  004d7	85 c0		 test	 eax, eax
  004d9	79 06		 jns	 SHORT $LN1563@LoadProper
  004db	d8 05 00 00 00
	00		 fadd	 DWORD PTR __real@4f800000
$LN1563@LoadProper:
  004e1	51		 push	 ecx
  004e2	8b 8d d4 fe ff
	ff		 mov	 ecx, DWORD PTR _rkLoader$GSCopy$[ebp]
  004e8	d9 1c 24	 fstp	 DWORD PTR [esp]
  004eb	8d 45 e4	 lea	 eax, DWORD PTR __k$538564[ebp]
  004ee	50		 push	 eax
  004ef	ff 15 00 00 00
	00		 call	 DWORD PTR __imp_?LoadFloat@ioINILoader@@QAEMPBDM@Z
  004f5	d9 9d d0 fe ff
	ff		 fstp	 DWORD PTR _value$538677[ebp]
  004fb	8d 85 d0 fe ff
	ff		 lea	 eax, DWORD PTR _value$538677[ebp]
  00501	50		 push	 eax
  00502	8d 8e 50 12 00
	00		 lea	 ecx, DWORD PTR [esi+4688]
  00508	e8 00 00 00 00	 call	 ?EncryptValueToPool@?$CEncrypt@M@@AAEXPBD@Z ; CEncrypt<float>::EncryptValueToPool

; 88   : 	m_fRevisionZeroMax = rkLoader.LoadFloat_e( "revision_zero_max", -FLOAT1 );

  0050d	b8 01 00 00 00	 mov	 eax, 1
  00512	6a 04		 push	 4
  00514	c7 45 e4 9f 89
	9d 83		 mov	 DWORD PTR __k$538711[ebp], -2086827617 ; 839d899fH
  0051b	c7 45 e8 9e 85
	84 84		 mov	 DWORD PTR __k$538711[ebp+4], -2071689826 ; 8484859eH
  00522	c7 45 ec b2 96
	8e 98		 mov	 DWORD PTR __k$538711[ebp+8], -1735485774 ; 988e96b2H
  00529	c7 45 f0 82 b3
	86 8b		 mov	 DWORD PTR __k$538711[ebp+12], -1954106494 ; 8b86b382H
  00530	8d 4d e4	 lea	 ecx, DWORD PTR __k$538711[ebp]
  00533	66 c7 45 f4 95
	00		 mov	 WORD PTR __k$538711[ebp+16], 149 ; 00000095H
  00539	5a		 pop	 edx
$LL1284@LoadProper:
  0053a	81 31 ed ec eb
	ea		 xor	 DWORD PTR [ecx], -353637139 ; eaebecedH
  00540	83 c1 04	 add	 ecx, 4
  00543	4a		 dec	 edx
  00544	75 f4		 jne	 SHORT $LL1284@LoadProper
  00546	80 75 f4 ed	 xor	 BYTE PTR __k$538711[ebp+16], -19 ; ffffffedH
  0054a	89 85 d0 fe ff
	ff		 mov	 DWORD PTR tv12981[ebp], eax
  00550	db 85 d0 fe ff
	ff		 fild	 DWORD PTR tv12981[ebp]
  00556	85 c0		 test	 eax, eax
  00558	79 06		 jns	 SHORT $LN1564@LoadProper
  0055a	d8 05 00 00 00
	00		 fadd	 DWORD PTR __real@4f800000
$LN1564@LoadProper:
  00560	51		 push	 ecx
  00561	d9 e0		 fchs
  00563	8b 8d d4 fe ff
	ff		 mov	 ecx, DWORD PTR _rkLoader$GSCopy$[ebp]
  00569	d9 1c 24	 fstp	 DWORD PTR [esp]
  0056c	8d 45 e4	 lea	 eax, DWORD PTR __k$538711[ebp]
  0056f	50		 push	 eax
  00570	ff 15 00 00 00
	00		 call	 DWORD PTR __imp_?LoadFloat@ioINILoader@@QAEMPBDM@Z
  00576	d9 9d d0 fe ff
	ff		 fstp	 DWORD PTR _value$538811[ebp]
  0057c	8d 85 d0 fe ff
	ff		 lea	 eax, DWORD PTR _value$538811[ebp]
  00582	50		 push	 eax
  00583	8d 8e 80 12 00
	00		 lea	 ecx, DWORD PTR [esi+4736]
  00589	e8 00 00 00 00	 call	 ?EncryptValueToPool@?$CEncrypt@M@@AAEXPBD@Z ; CEncrypt<float>::EncryptValueToPool
  0058e	6a 04		 push	 4

; 89   : 
; 90   : 	//
; 91   : 	rkLoader.LoadString_e( "extra_guid_effect", "", szBuf, MAX_PATH );

  00590	c7 45 e4 88 94
	9f 98		 mov	 DWORD PTR __k$538841[ebp], -1734372216 ; 989f9488H
  00597	c7 45 e8 8c b3
	8c 9f		 mov	 DWORD PTR __k$538841[ebp+4], -1618168948 ; 9f8cb38cH
  0059e	c7 45 ec 84 88
	b4 8f		 mov	 DWORD PTR __k$538841[ebp+8], -1883993980 ; 8fb48884H
  005a5	c7 45 f0 8b 8a
	8e 89		 mov	 DWORD PTR __k$538841[ebp+12], -1987147125 ; 898e8a8bH
  005ac	8d 45 e4	 lea	 eax, DWORD PTR __k$538841[ebp]
  005af	66 c7 45 f4 99
	00		 mov	 WORD PTR __k$538841[ebp+16], 153 ; 00000099H
  005b5	59		 pop	 ecx
$LL1392@LoadProper:
  005b6	81 30 ed ec eb
	ea		 xor	 DWORD PTR [eax], -353637139 ; eaebecedH
  005bc	83 c0 04	 add	 eax, 4
  005bf	49		 dec	 ecx
  005c0	75 f4		 jne	 SHORT $LL1392@LoadProper
  005c2	8b 8d d4 fe ff
	ff		 mov	 ecx, DWORD PTR _rkLoader$GSCopy$[ebp]
  005c8	80 75 f4 ed	 xor	 BYTE PTR __k$538841[ebp+16], -19 ; ffffffedH
  005cc	68 04 01 00 00	 push	 260			; 00000104H
  005d1	8d 85 d8 fe ff
	ff		 lea	 eax, DWORD PTR _szBuf$[ebp]
  005d7	50		 push	 eax
  005d8	68 00 00 00 00	 push	 OFFSET ??_C@_00CNPNBAHC@?$AA@
  005dd	8d 45 e4	 lea	 eax, DWORD PTR __k$538841[ebp]
  005e0	50		 push	 eax
  005e1	ff d7		 call	 edi

; 92   : 	m_ExtraGuidEffect = szBuf;

  005e3	8d 85 d8 fe ff
	ff		 lea	 eax, DWORD PTR _szBuf$[ebp]
  005e9	50		 push	 eax
  005ea	8d 8e a8 11 00
	00		 lea	 ecx, DWORD PTR [esi+4520]
  005f0	ff d3		 call	 ebx
  005f2	6a 06		 push	 6
  005f4	59		 pop	 ecx

; 93   : 
; 94   : 	m_dwFireGuidDuration = rkLoader.LoadInt_e( "fire_guid_effect_duration", 0 );

  005f5	c7 45 dc 8b 85
	99 8f		 mov	 DWORD PTR __k$539048[ebp], -1885764213 ; 8f99858bH
  005fc	c7 45 e0 b2 8b
	9e 83		 mov	 DWORD PTR __k$539048[ebp+4], -2086761550 ; 839e8bb2H
  00603	c7 45 e4 89 b3
	8e 8c		 mov	 DWORD PTR __k$539048[ebp+8], -1936804983 ; 8c8eb389H
  0060a	c7 45 e8 8b 89
	88 9e		 mov	 DWORD PTR __k$539048[ebp+12], -1635219061 ; 9e88898bH
  00611	c7 45 ec b2 88
	9e 98		 mov	 DWORD PTR __k$539048[ebp+16], -1734440782 ; 989e88b2H
  00618	c7 45 f0 8c 98
	82 85		 mov	 DWORD PTR __k$539048[ebp+20], -2055038836 ; 8582988cH
  0061f	8d 45 dc	 lea	 eax, DWORD PTR __k$539048[ebp]
  00622	66 c7 45 f4 83
	00		 mov	 WORD PTR __k$539048[ebp+24], 131 ; 00000083H
  00628	5b		 pop	 ebx
$LL1498@LoadProper:
  00629	81 30 ed ec eb
	ea		 xor	 DWORD PTR [eax], -353637139 ; eaebecedH
  0062f	83 c0 04	 add	 eax, 4
  00632	49		 dec	 ecx
  00633	75 f4		 jne	 SHORT $LL1498@LoadProper
  00635	80 75 f4 ed	 xor	 BYTE PTR __k$539048[ebp+24], -19 ; ffffffedH
  00639	51		 push	 ecx
  0063a	8b 8d d4 fe ff
	ff		 mov	 ecx, DWORD PTR _rkLoader$GSCopy$[ebp]
  00640	8d 45 dc	 lea	 eax, DWORD PTR __k$539048[ebp]
  00643	50		 push	 eax
  00644	ff 15 00 00 00
	00		 call	 DWORD PTR __imp_?LoadInt@ioINILoader@@QAEHPBDH@Z

; 95   : }

  0064a	8b 4d fc	 mov	 ecx, DWORD PTR __$ArrayPad$[ebp]
  0064d	5f		 pop	 edi
  0064e	89 86 bc 11 00
	00		 mov	 DWORD PTR [esi+4540], eax
  00654	33 cd		 xor	 ecx, ebp
  00656	5e		 pop	 esi
  00657	e8 00 00 00 00	 call	 @__security_check_cookie@4
  0065c	c9		 leave
  0065d	c2 04 00	 ret	 4
?LoadProperty@ioAngleFireSkill@@UAEXAAVioINILoader@@@Z ENDP ; ioAngleFireSkill::LoadProperty
_TEXT	ENDS
PUBLIC	_pChar$GSCopy$
PUBLIC	?OnSkillStart@ioAngleFireSkill@@UAE_NPAVioBaseChar@@@Z ; ioAngleFireSkill::OnSkillStart
EXTRN	?SetSkillNameChatBubble@ioSkill@@IAEXPAVioBaseChar@@@Z:PROC ; ioSkill::SetSkillNameChatBubble
EXTRN	_D3DXVec3Normalize@8:PROC
EXTRN	__imp_??D@YA?AUD3DXVECTOR3@@ABUD3DXQUATERNION@@ABU0@@Z:PROC
EXTRN	?CheckSkillDesc@ioSkill@@IAEXPAVioBaseChar@@@Z:PROC ; ioSkill::CheckSkillDesc
EXTRN	?SetAutoTargetTrackingEndTime@ioBaseChar@@QAEXK@Z:PROC ; ioBaseChar::SetAutoTargetTrackingEndTime
EXTRN	?SetAutoTarget@ioBaseChar@@QAEXW4AutoTargetType@@@Z:PROC ; ioBaseChar::SetAutoTarget
EXTRN	__imp_?GetAnimationIdx@ioEntityGroup@@QAEHABVioHashString@@@Z:PROC
EXTRN	?IncreaseWeaponIndexBase@ioBaseChar@@QAEKXZ:PROC ; ioBaseChar::IncreaseWeaponIndexBase
EXTRN	?SetCameraBuff@ioSkill@@IAEXPAVioBaseChar@@@Z:PROC ; ioSkill::SetCameraBuff
EXTRN	?InitExtraAniJump@ioSkill@@IAEXXZ:PROC		; ioSkill::InitExtraAniJump
EXTRN	?SetSkillProtection@ioBaseChar@@QAEXXZ:PROC	; ioBaseChar::SetSkillProtection
EXTRN	__ftol2:PROC
;	COMDAT xdata$x
; File d:\lost saga for developer\youtube\tutorial\source\src\lsclient\iobasechar.h
xdata$x	SEGMENT
__unwindtable$?OnSkillStart@ioAngleFireSkill@@UAE_NPAVioBaseChar@@@Z DD 0ffffffffH
	DD	FLAT:__unwindfunclet$?OnSkillStart@ioAngleFireSkill@@UAE_NPAVioBaseChar@@@Z$0
	DD	00H
	DD	FLAT:__unwindfunclet$?OnSkillStart@ioAngleFireSkill@@UAE_NPAVioBaseChar@@@Z$1
__ehfuncinfo$?OnSkillStart@ioAngleFireSkill@@UAE_NPAVioBaseChar@@@Z DD 019930522H
	DD	02H
	DD	FLAT:__unwindtable$?OnSkillStart@ioAngleFireSkill@@UAE_NPAVioBaseChar@@@Z
	DD	2 DUP(00H)
	DD	2 DUP(00H)
	DD	00H
	DD	01H
; Function compile flags: /Ogsp
; File d:\lost saga for developer\youtube\tutorial\source\src\lsclient\ioanglefireskill.cpp
xdata$x	ENDS
;	COMDAT ?OnSkillStart@ioAngleFireSkill@@UAE_NPAVioBaseChar@@@Z
_TEXT	SEGMENT
_szPreDelay$530680 = -80				; size = 16
_pChar$GSCopy$ = -64					; size = 4
_value$539136 = -60					; size = 4
_pGrp$530678 = -60					; size = 4
_value$539274 = -53					; size = 1
tv1272 = -52						; size = 4
_value$539286 = -52					; size = 4
$T539258 = -52						; size = 4
_dwPreDelay$530688 = -52				; size = 4
_iAniID$530681 = -52					; size = 4
$T539259 = -48						; size = 16
$T530694 = -44						; size = 12
_szEncEventType$539159 = -32				; size = 11
$T530695 = -32						; size = 12
__$EHRec$ = -12						; size = 12
_pChar$ = 8						; size = 4
?OnSkillStart@ioAngleFireSkill@@UAE_NPAVioBaseChar@@@Z PROC ; ioAngleFireSkill::OnSkillStart, COMDAT
; _this$ = ecx

; 103  : {

  00000	6a 44		 push	 68			; 00000044H
  00002	b8 00 00 00 00	 mov	 eax, __ehhandler$?OnSkillStart@ioAngleFireSkill@@UAE_NPAVioBaseChar@@@Z
  00007	e8 00 00 00 00	 call	 __EH_prolog3_GS
  0000c	8b 7d 08	 mov	 edi, DWORD PTR _pChar$[ebp]
  0000f	8b d9		 mov	 ebx, ecx

; 104  : 	if( !HasSkillMotion() )

  00011	8b 03		 mov	 eax, DWORD PTR [ebx]

; 177  : 	}
; 178  : 
; 179  : 	m_vAttackDir = pChar->GetTargetRot() * D3DXVECTOR3(0.0f, 0.0f, -FLOAT1);

  00013	89 7d c0	 mov	 DWORD PTR _pChar$GSCopy$[ebp], edi
  00016	ff 90 24 01 00
	00		 call	 DWORD PTR [eax+292]
  0001c	84 c0		 test	 al, al
  0001e	0f 84 9c 02 00
	00		 je	 $LN13@OnSkillSta
$LN12@OnSkillSta:

; 105  : 		return false;
; 106  : 
; 107  : 	ClearData();

  00024	8b cb		 mov	 ecx, ebx
  00026	e8 00 00 00 00	 call	 ?ClearData@ioAngleFireSkill@@IAEXXZ ; ioAngleFireSkill::ClearData

; 108  : 
; 109  : 	pChar->SetSkillProtection();

  0002b	8b cf		 mov	 ecx, edi
  0002d	e8 00 00 00 00	 call	 ?SetSkillProtection@ioBaseChar@@QAEXXZ ; ioBaseChar::SetSkillProtection

; 110  : 
; 111  : 	m_dwAttackEndTime = 0;

  00032	33 f6		 xor	 esi, esi

; 112  : 
; 113  : 	InitExtraAniJump();

  00034	8b cb		 mov	 ecx, ebx
  00036	89 b3 50 10 00
	00		 mov	 DWORD PTR [ebx+4176], esi
  0003c	e8 00 00 00 00	 call	 ?InitExtraAniJump@ioSkill@@IAEXXZ ; ioSkill::InitExtraAniJump

; 114  : 
; 115  : 	m_dwAniRotateTime = 0;
; 116  : 	m_fAniRotateAngle = 0.0f;

  00041	0f 57 c0	 xorps	 xmm0, xmm0
  00044	89 b3 2c 07 00
	00		 mov	 DWORD PTR [ebx+1836], esi
  0004a	f3 0f 11 83 30
	07 00 00	 movss	 DWORD PTR [ebx+1840], xmm0

; 117  : 
; 118  : 	m_iCurAniRotate = 0;

  00052	89 b3 28 07 00
	00		 mov	 DWORD PTR [ebx+1832], esi

; 119  : 
; 120  : 	m_dwEnableSwitchTime = 0;

  00058	89 b3 5c 03 00
	00		 mov	 DWORD PTR [ebx+860], esi

; 121  : 	m_dwEnableSemiSwitchTime = 0;

  0005e	89 b3 64 03 00
	00		 mov	 DWORD PTR [ebx+868], esi

; 122  : 
; 123  : 	if( m_dwSwitchSkill > 0 )

  00064	39 b3 58 03 00
	00		 cmp	 DWORD PTR [ebx+856], esi
  0006a	76 1a		 jbe	 SHORT $LN11@OnSkillSta

; 124  : 		m_dwEnableSwitchTime = FRAMEGETTIME() + m_dwSwitchSkill;

  0006c	ff 15 00 00 00
	00		 call	 DWORD PTR __imp_?GetSingleton@ioFrameTimer@@SAAAV1@XZ
  00072	8b c8		 mov	 ecx, eax
  00074	ff 15 00 00 00
	00		 call	 DWORD PTR __imp_?GetLoopSec@ioFrameTimer@@QBEKXZ
  0007a	03 83 58 03 00
	00		 add	 eax, DWORD PTR [ebx+856]
  00080	89 83 5c 03 00
	00		 mov	 DWORD PTR [ebx+860], eax
$LN11@OnSkillSta:

; 125  : 	if( m_dwSemiSwitchSkill > 0 )

  00086	39 b3 60 03 00
	00		 cmp	 DWORD PTR [ebx+864], esi
  0008c	76 1a		 jbe	 SHORT $LN10@OnSkillSta

; 126  : 		m_dwEnableSemiSwitchTime = FRAMEGETTIME() + m_dwSemiSwitchSkill;

  0008e	ff 15 00 00 00
	00		 call	 DWORD PTR __imp_?GetSingleton@ioFrameTimer@@SAAAV1@XZ
  00094	8b c8		 mov	 ecx, eax
  00096	ff 15 00 00 00
	00		 call	 DWORD PTR __imp_?GetLoopSec@ioFrameTimer@@QBEKXZ
  0009c	03 83 60 03 00
	00		 add	 eax, DWORD PTR [ebx+864]
  000a2	89 83 64 03 00
	00		 mov	 DWORD PTR [ebx+868], eax
$LN10@OnSkillSta:

; 127  : 
; 128  : 	m_dwSkillStartTime = FRAMEGETTIME();

  000a8	ff 15 00 00 00
	00		 call	 DWORD PTR __imp_?GetSingleton@ioFrameTimer@@SAAAV1@XZ
  000ae	8b c8		 mov	 ecx, eax
  000b0	ff 15 00 00 00
	00		 call	 DWORD PTR __imp_?GetLoopSec@ioFrameTimer@@QBEKXZ
  000b6	89 45 c4	 mov	 DWORD PTR _value$539136[ebp], eax
  000b9	8d 45 c4	 lea	 eax, DWORD PTR _value$539136[ebp]
  000bc	50		 push	 eax
  000bd	8d 8b 94 0e 00
	00		 lea	 ecx, DWORD PTR [ebx+3732]
  000c3	e8 00 00 00 00	 call	 ?EncryptValueToPool@?$CEncrypt@K@@AAEXPBD@Z ; CEncrypt<unsigned long>::EncryptValueToPool

; 129  : 
; 130  : 	SetCameraBuff( pChar );

  000c8	57		 push	 edi
  000c9	8b cb		 mov	 ecx, ebx
  000cb	e8 00 00 00 00	 call	 ?SetCameraBuff@ioSkill@@IAEXPAVioBaseChar@@@Z ; ioSkill::SetCameraBuff

; 131  : 
; 132  : 	// 기본 무기 손에서 제거
; 133  : 	if( m_bUseItemMesh )

  000d0	80 bb 08 0f 00
	00 00		 cmp	 BYTE PTR [ebx+3848], 0
  000d7	74 0b		 je	 SHORT $LN9@OnSkillSta

; 134  : 	{
; 135  : 		pChar->ShowWeaponItemMesh( false );

  000d9	6a 00		 push	 0
  000db	6a 00		 push	 0
  000dd	8b cf		 mov	 ecx, edi
  000df	e8 00 00 00 00	 call	 ?ShowWeaponItemMesh@ioBaseChar@@QAEX_N0@Z ; ioBaseChar::ShowWeaponItemMesh
$LN9@OnSkillSta:

; 136  : 	}
; 137  : 
; 138  : 	m_dwWeaponBaseIndex = pChar->IncreaseWeaponIndexBase();

  000e4	8b cf		 mov	 ecx, edi
  000e6	e8 00 00 00 00	 call	 ?IncreaseWeaponIndexBase@ioBaseChar@@QAEKXZ ; ioBaseChar::IncreaseWeaponIndexBase
  000eb	89 43 78	 mov	 DWORD PTR [ebx+120], eax

; 139  : 	if( !StartPreDelayAnimation( pChar ) )	// Delay Animation이 없다

  000ee	8b 03		 mov	 eax, DWORD PTR [ebx]
  000f0	57		 push	 edi
  000f1	8b cb		 mov	 ecx, ebx
  000f3	ff 90 88 01 00
	00		 call	 DWORD PTR [eax+392]
  000f9	84 c0		 test	 al, al
  000fb	75 10		 jne	 SHORT $LN8@OnSkillSta

; 140  : 	{
; 141  : 		AttackSkillFire( pChar );

  000fd	8b 03		 mov	 eax, DWORD PTR [ebx]
  000ff	57		 push	 edi
  00100	8b cb		 mov	 ecx, ebx
  00102	ff 90 8c 01 00
	00		 call	 DWORD PTR [eax+396]

; 142  : 	}
; 143  : 	else

  00108	e9 18 01 00 00	 jmp	 $LN2@OnSkillSta
$LN8@OnSkillSta:

; 144  : 	{
; 145  : 		DWORD dwTrackingTime = 0;
; 146  : 		ioEntityGroup *pGrp = pChar->GetGroup();

  0010d	8b 47 04	 mov	 eax, DWORD PTR [edi+4]
  00110	33 f6		 xor	 esi, esi
  00112	89 45 c4	 mov	 DWORD PTR _pGrp$530678[ebp], eax

; 147  : 		if( pGrp )

  00115	85 c0		 test	 eax, eax
  00117	0f 84 c1 00 00
	00		 je	 $LN6@OnSkillSta

; 148  : 		{
; 149  : 			ioHashString szPreDelay = GetPreDelayAniName();

  0011d	8b 03		 mov	 eax, DWORD PTR [ebx]
  0011f	8b cb		 mov	 ecx, ebx
  00121	ff 90 30 01 00
	00		 call	 DWORD PTR [eax+304]
  00127	50		 push	 eax
  00128	8d 4d b0	 lea	 ecx, DWORD PTR _szPreDelay$530680[ebp]
  0012b	ff 15 00 00 00
	00		 call	 DWORD PTR __imp_??0ioHashString@@QAE@ABV0@@Z

; 150  : 
; 151  : 			int iAniID = pGrp->GetAnimationIdx( szPreDelay );

  00131	8b 4d c4	 mov	 ecx, DWORD PTR _pGrp$530678[ebp]
  00134	21 75 fc	 and	 DWORD PTR __$EHRec$[ebp+8], esi
  00137	8d 45 b0	 lea	 eax, DWORD PTR _szPreDelay$530680[ebp]
  0013a	50		 push	 eax
  0013b	ff 15 00 00 00
	00		 call	 DWORD PTR __imp_?GetAnimationIdx@ioEntityGroup@@QAEHABVioHashString@@@Z
  00141	89 45 cc	 mov	 DWORD PTR _iAniID$530681[ebp], eax

; 152  : 			if( iAniID != -1 )

  00144	83 f8 ff	 cmp	 eax, -1
  00147	0f 84 84 00 00
	00		 je	 $LN5@OnSkillSta

; 153  : 				dwTrackingTime = pGrp->GetAnimationEventTime_e( iAniID, "tracking_e" );

  0014d	6a 02		 push	 2
  0014f	c7 45 e0 99 9e
	8a 89		 mov	 DWORD PTR _szEncEventType$539159[ebp], -1987404135 ; 898a9e99H
  00156	c7 45 e4 86 85
	85 8d		 mov	 DWORD PTR _szEncEventType$539159[ebp+4], -1920629370 ; 8d858586H
  0015d	66 c7 45 e8 b2
	89		 mov	 WORD PTR _szEncEventType$539159[ebp+8], 35250 ; 000089b2H
  00163	8d 45 e0	 lea	 eax, DWORD PTR _szEncEventType$539159[ebp]
  00166	c6 45 ea 00	 mov	 BYTE PTR _szEncEventType$539159[ebp+10], 0
  0016a	59		 pop	 ecx
$LL124@OnSkillSta:
  0016b	81 30 ed ec eb
	ea		 xor	 DWORD PTR [eax], -353637139 ; eaebecedH
  00171	83 c0 04	 add	 eax, 4
  00174	49		 dec	 ecx
  00175	75 f4		 jne	 SHORT $LL124@OnSkillSta
  00177	6a 08		 push	 8
  00179	5e		 pop	 esi
$LL121@OnSkillSta:
  0017a	8b c6		 mov	 eax, esi
  0017c	25 03 00 00 80	 and	 eax, -2147483645	; 80000003H
  00181	79 05		 jns	 SHORT $LN148@OnSkillSta
  00183	48		 dec	 eax
  00184	83 c8 fc	 or	 eax, -4			; fffffffcH
  00187	40		 inc	 eax
$LN148@OnSkillSta:
  00188	b1 ed		 mov	 cl, -19			; ffffffedH
  0018a	2a c8		 sub	 cl, al
  0018c	30 4c 35 e0	 xor	 BYTE PTR _szEncEventType$539159[ebp+esi], cl
  00190	46		 inc	 esi
  00191	83 fe 0a	 cmp	 esi, 10			; 0000000aH
  00194	7c e4		 jl	 SHORT $LL121@OnSkillSta
  00196	8d 45 e0	 lea	 eax, DWORD PTR _szEncEventType$539159[ebp]
  00199	50		 push	 eax
  0019a	8d 4d d0	 lea	 ecx, DWORD PTR $T539259[ebp]
  0019d	ff 15 00 00 00
	00		 call	 DWORD PTR __imp_??0ioHashString@@QAE@PBD@Z
  001a3	8b 4d c4	 mov	 ecx, DWORD PTR _pGrp$530678[ebp]
  001a6	8d 45 d0	 lea	 eax, DWORD PTR $T539259[ebp]
  001a9	50		 push	 eax
  001aa	ff 75 cc	 push	 DWORD PTR _iAniID$530681[ebp]
  001ad	c6 45 fc 01	 mov	 BYTE PTR __$EHRec$[ebp+8], 1
  001b1	ff 15 00 00 00
	00		 call	 DWORD PTR __imp_?GetAnimationEventTime@ioEntityGroup@@QAEMHABVioHashString@@@Z
  001b7	d9 5d cc	 fstp	 DWORD PTR $T539258[ebp]
  001ba	8d 4d d0	 lea	 ecx, DWORD PTR $T539259[ebp]
  001bd	c6 45 fc 00	 mov	 BYTE PTR __$EHRec$[ebp+8], 0
  001c1	ff 15 00 00 00
	00		 call	 DWORD PTR __imp_??1ioHashString@@QAE@XZ
  001c7	d9 45 cc	 fld	 DWORD PTR $T539258[ebp]
  001ca	e8 00 00 00 00	 call	 __ftol2
  001cf	8b f0		 mov	 esi, eax
$LN5@OnSkillSta:

; 154  : 		}

  001d1	83 4d fc ff	 or	 DWORD PTR __$EHRec$[ebp+8], -1
  001d5	8d 4d b0	 lea	 ecx, DWORD PTR _szPreDelay$530680[ebp]
  001d8	ff 15 00 00 00
	00		 call	 DWORD PTR __imp_??1ioHashString@@QAE@XZ
$LN6@OnSkillSta:

; 155  : 
; 156  : 		DWORD dwPreDelay = GetPreDelayTime();

  001de	8b 03		 mov	 eax, DWORD PTR [ebx]
  001e0	8b cb		 mov	 ecx, ebx
  001e2	ff 90 34 01 00
	00		 call	 DWORD PTR [eax+308]
  001e8	89 45 cc	 mov	 DWORD PTR _dwPreDelay$530688[ebp], eax

; 157  : 
; 158  : 		if( dwTrackingTime > 0 )
; 159  : 			dwTrackingTime += FRAMEGETTIME();

  001eb	ff 15 00 00 00
	00		 call	 DWORD PTR __imp_?GetSingleton@ioFrameTimer@@SAAAV1@XZ
  001f1	8b c8		 mov	 ecx, eax
  001f3	ff 15 00 00 00
	00		 call	 DWORD PTR __imp_?GetLoopSec@ioFrameTimer@@QBEKXZ
  001f9	85 f6		 test	 esi, esi
  001fb	74 04		 je	 SHORT $LN4@OnSkillSta
  001fd	03 f0		 add	 esi, eax

; 160  : 		else

  001ff	eb 05		 jmp	 SHORT $LN3@OnSkillSta
$LN4@OnSkillSta:

; 161  : 			dwTrackingTime = FRAMEGETTIME() + dwPreDelay;

  00201	8b f0		 mov	 esi, eax
  00203	03 75 cc	 add	 esi, DWORD PTR _dwPreDelay$530688[ebp]
$LN3@OnSkillSta:

; 162  : 
; 163  : 		if( IsUseAutoTargetValue() )

  00206	8b 03		 mov	 eax, DWORD PTR [ebx]
  00208	8b cb		 mov	 ecx, ebx
  0020a	ff 90 e0 00 00
	00		 call	 DWORD PTR [eax+224]
  00210	84 c0		 test	 al, al
  00212	74 11		 je	 SHORT $LN2@OnSkillSta

; 164  : 		{
; 165  : 			pChar->SetAutoTarget( ATT_SKILL );

  00214	6a 04		 push	 4
  00216	8b cf		 mov	 ecx, edi
  00218	e8 00 00 00 00	 call	 ?SetAutoTarget@ioBaseChar@@QAEXW4AutoTargetType@@@Z ; ioBaseChar::SetAutoTarget

; 166  : 			pChar->SetAutoTargetTrackingEndTime( dwTrackingTime );

  0021d	56		 push	 esi
  0021e	8b cf		 mov	 ecx, edi
  00220	e8 00 00 00 00	 call	 ?SetAutoTargetTrackingEndTime@ioBaseChar@@QAEXK@Z ; ioBaseChar::SetAutoTargetTrackingEndTime
$LN2@OnSkillSta:

; 167  : 		}
; 168  : 	}
; 169  : 
; 170  : 	CheckSkillDesc( pChar );

  00225	57		 push	 edi
  00226	8b cb		 mov	 ecx, ebx
  00228	e8 00 00 00 00	 call	 ?CheckSkillDesc@ioSkill@@IAEXPAVioBaseChar@@@Z ; ioSkill::CheckSkillDesc

; 171  : 
; 172  : 	// 필요없는 부분인듯?
; 173  : 	if( m_bInitJumpPower )

  0022d	8d 45 cb	 lea	 eax, DWORD PTR _value$539274[ebp]
  00230	50		 push	 eax
  00231	8d 8b f4 05 00
	00		 lea	 ecx, DWORD PTR [ebx+1524]
  00237	e8 00 00 00 00	 call	 ?DecryptValueToPool@?$CEncrypt@_N@@QAEXPA_N@Z ; CEncrypt<bool>::DecryptValueToPool
  0023c	80 7d cb 00	 cmp	 BYTE PTR _value$539274[ebp], 0
  00240	74 1f		 je	 SHORT $LN133@OnSkillSta

; 174  : 	{
; 175  : 		pChar->SetCurJumpPowerAmt( 0.0f );

  00242	0f 57 c0	 xorps	 xmm0, xmm0

; 176  : 		pChar->SetGravityAmt( 0.0f );

  00245	8d 45 cc	 lea	 eax, DWORD PTR _value$539286[ebp]
  00248	50		 push	 eax
  00249	8d 8f e8 0b 00
	00		 lea	 ecx, DWORD PTR [edi+3048]
  0024f	f3 0f 11 87 90
	0e 00 00	 movss	 DWORD PTR [edi+3728], xmm0
  00257	f3 0f 11 45 cc	 movss	 DWORD PTR _value$539286[ebp], xmm0
  0025c	e8 00 00 00 00	 call	 ?EncryptValueToPool@?$CEncrypt@M@@AAEXPBD@Z ; CEncrypt<float>::EncryptValueToPool
$LN133@OnSkillSta:

; 177  : 	}
; 178  : 
; 179  : 	m_vAttackDir = pChar->GetTargetRot() * D3DXVECTOR3(0.0f, 0.0f, -FLOAT1);

  00261	b8 01 00 00 00	 mov	 eax, 1
  00266	0f 57 c0	 xorps	 xmm0, xmm0
  00269	89 45 cc	 mov	 DWORD PTR tv1272[ebp], eax
  0026c	db 45 cc	 fild	 DWORD PTR tv1272[ebp]
  0026f	f3 0f 11 45 d4	 movss	 DWORD PTR $T530694[ebp], xmm0
  00274	f3 0f 11 45 d8	 movss	 DWORD PTR $T530694[ebp+4], xmm0
  00279	85 c0		 test	 eax, eax
  0027b	79 06		 jns	 SHORT $LN149@OnSkillSta
  0027d	d8 05 00 00 00
	00		 fadd	 DWORD PTR __real@4f800000
$LN149@OnSkillSta:
  00283	8d 45 d4	 lea	 eax, DWORD PTR $T530694[ebp]
  00286	d9 e0		 fchs
  00288	50		 push	 eax
  00289	d9 5d dc	 fstp	 DWORD PTR $T530694[ebp+8]
  0028c	81 c7 a4 06 00
	00		 add	 edi, 1700		; 000006a4H
  00292	8d 45 e0	 lea	 eax, DWORD PTR $T530695[ebp]
  00295	57		 push	 edi
  00296	50		 push	 eax
  00297	ff 15 00 00 00
	00		 call	 DWORD PTR __imp_??D@YA?AUD3DXVECTOR3@@ABUD3DXQUATERNION@@ABU0@@Z
  0029d	8d 8b 98 11 00
	00		 lea	 ecx, DWORD PTR [ebx+4504]
  002a3	8b f0		 mov	 esi, eax
  002a5	8b f9		 mov	 edi, ecx
  002a7	a5		 movsd
  002a8	83 c4 0c	 add	 esp, 12			; 0000000cH
  002ab	a5		 movsd

; 180  : 	D3DXVec3Normalize( &m_vAttackDir, &m_vAttackDir );

  002ac	51		 push	 ecx
  002ad	51		 push	 ecx
  002ae	a5		 movsd
  002af	e8 00 00 00 00	 call	 _D3DXVec3Normalize@8

; 181  : 
; 182  : 	SetSkillNameChatBubble( pChar );

  002b4	ff 75 c0	 push	 DWORD PTR _pChar$GSCopy$[ebp]
  002b7	8b cb		 mov	 ecx, ebx
  002b9	e8 00 00 00 00	 call	 ?SetSkillNameChatBubble@ioSkill@@IAEXPAVioBaseChar@@@Z ; ioSkill::SetSkillNameChatBubble

; 183  : 
; 184  : 	return true;

  002be	b0 01		 mov	 al, 1
$LN13@OnSkillSta:

; 185  : }

  002c0	e8 00 00 00 00	 call	 __EH_epilog3_GS
  002c5	c2 04 00	 ret	 4
_TEXT	ENDS
;	COMDAT text$x
text$x	SEGMENT
__unwindfunclet$?OnSkillStart@ioAngleFireSkill@@UAE_NPAVioBaseChar@@@Z$0:
  00000	8d 4d b0	 lea	 ecx, DWORD PTR _szPreDelay$530680[ebp]
  00003	ff 25 00 00 00
	00		 jmp	 DWORD PTR __imp_??1ioHashString@@QAE@XZ
__unwindfunclet$?OnSkillStart@ioAngleFireSkill@@UAE_NPAVioBaseChar@@@Z$1:
  00009	8d 4d d0	 lea	 ecx, DWORD PTR $T539259[ebp]
  0000c	ff 25 00 00 00
	00		 jmp	 DWORD PTR __imp_??1ioHashString@@QAE@XZ
__ehhandler$?OnSkillStart@ioAngleFireSkill@@UAE_NPAVioBaseChar@@@Z:
  00012	8b 54 24 08	 mov	 edx, DWORD PTR [esp+8]
  00016	8d 42 0c	 lea	 eax, DWORD PTR [edx+12]
  00019	8b 4a ac	 mov	 ecx, DWORD PTR [edx-84]
  0001c	33 c8		 xor	 ecx, eax
  0001e	e8 00 00 00 00	 call	 @__security_check_cookie@4
  00023	8b 4a fc	 mov	 ecx, DWORD PTR [edx-4]
  00026	33 c8		 xor	 ecx, eax
  00028	e8 00 00 00 00	 call	 @__security_check_cookie@4
  0002d	b8 00 00 00 00	 mov	 eax, OFFSET __ehfuncinfo$?OnSkillStart@ioAngleFireSkill@@UAE_NPAVioBaseChar@@@Z
  00032	e9 00 00 00 00	 jmp	 ___CxxFrameHandler3
text$x	ENDS
?OnSkillStart@ioAngleFireSkill@@UAE_NPAVioBaseChar@@@Z ENDP ; ioAngleFireSkill::OnSkillStart
PUBLIC	??0?$CEncrypt@K@@QAE@ABV0@@Z			; CEncrypt<unsigned long>::CEncrypt<unsigned long>
;	COMDAT xdata$x
; File d:\lost saga for developer\youtube\tutorial\source\src\lsclient\encryptvalue.h
xdata$x	SEGMENT
__unwindtable$??0?$CEncrypt@K@@QAE@ABV0@@Z DD 0ffffffffH
	DD	FLAT:__unwindfunclet$??0?$CEncrypt@K@@QAE@ABV0@@Z$0
__ehfuncinfo$??0?$CEncrypt@K@@QAE@ABV0@@Z DD 019930522H
	DD	01H
	DD	FLAT:__unwindtable$??0?$CEncrypt@K@@QAE@ABV0@@Z
	DD	2 DUP(00H)
	DD	2 DUP(00H)
	DD	00H
	DD	01H
; Function compile flags: /Ogsp
xdata$x	ENDS
;	COMDAT ??0?$CEncrypt@K@@QAE@ABV0@@Z
_TEXT	SEGMENT
_this$ = -16						; size = 4
__$EHRec$ = -12						; size = 12
_value$539326 = 8					; size = 4
_value$539321 = 8					; size = 4
_inValue$ = 8						; size = 4
??0?$CEncrypt@K@@QAE@ABV0@@Z PROC			; CEncrypt<unsigned long>::CEncrypt<unsigned long>, COMDAT
; _this$ = ecx

; 120  : 	CEncrypt( const CEncrypt<type> &inValue )   // 선언과 동시에 값을 대입하기 위해서

  00000	6a 04		 push	 4
  00002	b8 00 00 00 00	 mov	 eax, __ehhandler$??0?$CEncrypt@K@@QAE@ABV0@@Z
  00007	e8 00 00 00 00	 call	 __EH_prolog3
  0000c	8b f1		 mov	 esi, ecx
  0000e	89 75 f0	 mov	 DWORD PTR _this$[ebp], esi
  00011	8d 4e 0c	 lea	 ecx, DWORD PTR [esi+12]
  00014	c7 06 00 00 00
	00		 mov	 DWORD PTR [esi], OFFSET ??_7?$CEncrypt@K@@6B@
  0001a	e8 00 00 00 00	 call	 ??0ccddaabb@@QAE@XZ	; ccddaabb::ccddaabb
  0001f	83 65 fc 00	 and	 DWORD PTR __$EHRec$[ebp+8], 0

; 121  : 	{
; 122  : 		Init();

  00023	8b ce		 mov	 ecx, esi
  00025	e8 00 00 00 00	 call	 ?Init@?$CEncrypt@K@@AAEXXZ ; CEncrypt<unsigned long>::Init

; 123  : 		*this = inValue;

  0002a	8b 4d 08	 mov	 ecx, DWORD PTR _inValue$[ebp]
  0002d	8d 45 08	 lea	 eax, DWORD PTR _value$539321[ebp]
  00030	50		 push	 eax
  00031	e8 00 00 00 00	 call	 ?DecryptValueToPool@?$CEncrypt@K@@QAEXPAK@Z ; CEncrypt<unsigned long>::DecryptValueToPool
  00036	8b 45 08	 mov	 eax, DWORD PTR _value$539321[ebp]
  00039	89 45 08	 mov	 DWORD PTR _value$539326[ebp], eax
  0003c	8d 45 08	 lea	 eax, DWORD PTR _value$539326[ebp]
  0003f	50		 push	 eax
  00040	8b ce		 mov	 ecx, esi
  00042	e8 00 00 00 00	 call	 ?EncryptValueToPool@?$CEncrypt@K@@AAEXPBD@Z ; CEncrypt<unsigned long>::EncryptValueToPool

; 124  : 	}

  00047	8b c6		 mov	 eax, esi
  00049	e8 00 00 00 00	 call	 __EH_epilog3
  0004e	c2 04 00	 ret	 4
_TEXT	ENDS
;	COMDAT text$x
text$x	SEGMENT
__unwindfunclet$??0?$CEncrypt@K@@QAE@ABV0@@Z$0:
  00000	8b 4d f0	 mov	 ecx, DWORD PTR _this$[ebp]
  00003	83 c1 0c	 add	 ecx, 12			; 0000000cH
  00006	e9 00 00 00 00	 jmp	 ??1ccddaabb@@UAE@XZ	; ccddaabb::~ccddaabb
__ehhandler$??0?$CEncrypt@K@@QAE@ABV0@@Z:
  0000b	8b 54 24 08	 mov	 edx, DWORD PTR [esp+8]
  0000f	8d 42 0c	 lea	 eax, DWORD PTR [edx+12]
  00012	8b 4a ec	 mov	 ecx, DWORD PTR [edx-20]
  00015	33 c8		 xor	 ecx, eax
  00017	e8 00 00 00 00	 call	 @__security_check_cookie@4
  0001c	b8 00 00 00 00	 mov	 eax, OFFSET __ehfuncinfo$??0?$CEncrypt@K@@QAE@ABV0@@Z
  00021	e9 00 00 00 00	 jmp	 ___CxxFrameHandler3
text$x	ENDS
??0?$CEncrypt@K@@QAE@ABV0@@Z ENDP			; CEncrypt<unsigned long>::CEncrypt<unsigned long>
PUBLIC	??0?$vector@PBUAniEventTime@@V?$allocator@PBUAniEventTime@@@std@@@std@@QAE@XZ ; std::vector<AniEventTime const *,std::allocator<AniEventTime const *> >::vector<AniEventTime const *,std::allocator<AniEventTime const *> >
; Function compile flags: /Ogsp
; File c:\program files (x86)\microsoft visual studio 10.0\vc\include\vector
;	COMDAT ??0?$vector@PBUAniEventTime@@V?$allocator@PBUAniEventTime@@@std@@@std@@QAE@XZ
_TEXT	SEGMENT
??0?$vector@PBUAniEventTime@@V?$allocator@PBUAniEventTime@@@std@@@std@@QAE@XZ PROC ; std::vector<AniEventTime const *,std::allocator<AniEventTime const *> >::vector<AniEventTime const *,std::allocator<AniEventTime const *> >, COMDAT
; _this$ = ecx

; 507  : 		{	// construct empty vector

  00000	8b c1		 mov	 eax, ecx
  00002	33 c9		 xor	 ecx, ecx
  00004	89 08		 mov	 DWORD PTR [eax], ecx
  00006	89 48 04	 mov	 DWORD PTR [eax+4], ecx
  00009	89 48 08	 mov	 DWORD PTR [eax+8], ecx

; 508  : 		}

  0000c	c3		 ret	 0
??0?$vector@PBUAniEventTime@@V?$allocator@PBUAniEventTime@@@std@@@std@@QAE@XZ ENDP ; std::vector<AniEventTime const *,std::allocator<AniEventTime const *> >::vector<AniEventTime const *,std::allocator<AniEventTime const *> >
_TEXT	ENDS
PUBLIC	?begin@?$vector@PBUAniEventTime@@V?$allocator@PBUAniEventTime@@@std@@@std@@QAE?AV?$_Vector_iterator@V?$_Vector_val@PBUAniEventTime@@V?$allocator@PBUAniEventTime@@@std@@@std@@@2@XZ ; std::vector<AniEventTime const *,std::allocator<AniEventTime const *> >::begin
; Function compile flags: /Ogsp
;	COMDAT ?begin@?$vector@PBUAniEventTime@@V?$allocator@PBUAniEventTime@@@std@@@std@@QAE?AV?$_Vector_iterator@V?$_Vector_val@PBUAniEventTime@@V?$allocator@PBUAniEventTime@@@std@@@std@@@2@XZ
_TEXT	SEGMENT
___$ReturnUdt$ = 8					; size = 4
?begin@?$vector@PBUAniEventTime@@V?$allocator@PBUAniEventTime@@@std@@@std@@QAE?AV?$_Vector_iterator@V?$_Vector_val@PBUAniEventTime@@V?$allocator@PBUAniEventTime@@@std@@@std@@@2@XZ PROC ; std::vector<AniEventTime const *,std::allocator<AniEventTime const *> >::begin, COMDAT
; _this$ = ecx

; 781  : 		{	// return iterator for beginning of mutable sequence

  00000	55		 push	 ebp
  00001	8b ec		 mov	 ebp, esp

; 782  : 		return (iterator(this->_Myfirst, this));

  00003	8b 09		 mov	 ecx, DWORD PTR [ecx]
  00005	8b 45 08	 mov	 eax, DWORD PTR ___$ReturnUdt$[ebp]
  00008	89 08		 mov	 DWORD PTR [eax], ecx

; 783  : 		}

  0000a	5d		 pop	 ebp
  0000b	c2 04 00	 ret	 4
?begin@?$vector@PBUAniEventTime@@V?$allocator@PBUAniEventTime@@@std@@@std@@QAE?AV?$_Vector_iterator@V?$_Vector_val@PBUAniEventTime@@V?$allocator@PBUAniEventTime@@@std@@@std@@@2@XZ ENDP ; std::vector<AniEventTime const *,std::allocator<AniEventTime const *> >::begin
_TEXT	ENDS
PUBLIC	?end@?$vector@PBUAniEventTime@@V?$allocator@PBUAniEventTime@@@std@@@std@@QAE?AV?$_Vector_iterator@V?$_Vector_val@PBUAniEventTime@@V?$allocator@PBUAniEventTime@@@std@@@std@@@2@XZ ; std::vector<AniEventTime const *,std::allocator<AniEventTime const *> >::end
; Function compile flags: /Ogsp
;	COMDAT ?end@?$vector@PBUAniEventTime@@V?$allocator@PBUAniEventTime@@@std@@@std@@QAE?AV?$_Vector_iterator@V?$_Vector_val@PBUAniEventTime@@V?$allocator@PBUAniEventTime@@@std@@@std@@@2@XZ
_TEXT	SEGMENT
___$ReturnUdt$ = 8					; size = 4
?end@?$vector@PBUAniEventTime@@V?$allocator@PBUAniEventTime@@@std@@@std@@QAE?AV?$_Vector_iterator@V?$_Vector_val@PBUAniEventTime@@V?$allocator@PBUAniEventTime@@@std@@@std@@@2@XZ PROC ; std::vector<AniEventTime const *,std::allocator<AniEventTime const *> >::end, COMDAT
; _this$ = ecx

; 791  : 		{	// return iterator for end of mutable sequence

  00000	55		 push	 ebp
  00001	8b ec		 mov	 ebp, esp

; 792  : 		return (iterator(this->_Mylast, this));

  00003	8b 49 04	 mov	 ecx, DWORD PTR [ecx+4]
  00006	8b 45 08	 mov	 eax, DWORD PTR ___$ReturnUdt$[ebp]
  00009	89 08		 mov	 DWORD PTR [eax], ecx

; 793  : 		}

  0000b	5d		 pop	 ebp
  0000c	c2 04 00	 ret	 4
?end@?$vector@PBUAniEventTime@@V?$allocator@PBUAniEventTime@@@std@@@std@@QAE?AV?$_Vector_iterator@V?$_Vector_val@PBUAniEventTime@@V?$allocator@PBUAniEventTime@@@std@@@std@@@2@XZ ENDP ; std::vector<AniEventTime const *,std::allocator<AniEventTime const *> >::end
_TEXT	ENDS
PUBLIC	??9?$_Vector_const_iterator@V?$_Vector_val@PBUAniEventTime@@V?$allocator@PBUAniEventTime@@@std@@@std@@@std@@QBE_NABV01@@Z ; std::_Vector_const_iterator<std::_Vector_val<AniEventTime const *,std::allocator<AniEventTime const *> > >::operator!=
; Function compile flags: /Ogsp
;	COMDAT ??9?$_Vector_const_iterator@V?$_Vector_val@PBUAniEventTime@@V?$allocator@PBUAniEventTime@@@std@@@std@@@std@@QBE_NABV01@@Z
_TEXT	SEGMENT
__Right$ = 8						; size = 4
??9?$_Vector_const_iterator@V?$_Vector_val@PBUAniEventTime@@V?$allocator@PBUAniEventTime@@@std@@@std@@@std@@QBE_NABV01@@Z PROC ; std::_Vector_const_iterator<std::_Vector_val<AniEventTime const *,std::allocator<AniEventTime const *> > >::operator!=, COMDAT
; _this$ = ecx

; 207  : 		{	// test for iterator inequality

  00000	55		 push	 ebp
  00001	8b ec		 mov	 ebp, esp

; 208  : 		return (!(*this == _Right));

  00003	8b 01		 mov	 eax, DWORD PTR [ecx]
  00005	8b 55 08	 mov	 edx, DWORD PTR __Right$[ebp]
  00008	33 c9		 xor	 ecx, ecx
  0000a	3b 02		 cmp	 eax, DWORD PTR [edx]
  0000c	0f 95 c0	 setne	 al

; 209  : 		}

  0000f	5d		 pop	 ebp
  00010	c2 04 00	 ret	 4
??9?$_Vector_const_iterator@V?$_Vector_val@PBUAniEventTime@@V?$allocator@PBUAniEventTime@@@std@@@std@@@std@@QBE_NABV01@@Z ENDP ; std::_Vector_const_iterator<std::_Vector_val<AniEventTime const *,std::allocator<AniEventTime const *> > >::operator!=
_TEXT	ENDS
PUBLIC	?begin@?$vector@UAniRotateInfo@@V?$allocator@UAniRotateInfo@@@std@@@std@@QAE?AV?$_Vector_iterator@V?$_Vector_val@UAniRotateInfo@@V?$allocator@UAniRotateInfo@@@std@@@std@@@2@XZ ; std::vector<AniRotateInfo,std::allocator<AniRotateInfo> >::begin
; Function compile flags: /Ogsp
;	COMDAT ?begin@?$vector@UAniRotateInfo@@V?$allocator@UAniRotateInfo@@@std@@@std@@QAE?AV?$_Vector_iterator@V?$_Vector_val@UAniRotateInfo@@V?$allocator@UAniRotateInfo@@@std@@@std@@@2@XZ
_TEXT	SEGMENT
___$ReturnUdt$ = 8					; size = 4
?begin@?$vector@UAniRotateInfo@@V?$allocator@UAniRotateInfo@@@std@@@std@@QAE?AV?$_Vector_iterator@V?$_Vector_val@UAniRotateInfo@@V?$allocator@UAniRotateInfo@@@std@@@std@@@2@XZ PROC ; std::vector<AniRotateInfo,std::allocator<AniRotateInfo> >::begin, COMDAT
; _this$ = ecx

; 781  : 		{	// return iterator for beginning of mutable sequence

  00000	55		 push	 ebp
  00001	8b ec		 mov	 ebp, esp

; 782  : 		return (iterator(this->_Myfirst, this));

  00003	8b 09		 mov	 ecx, DWORD PTR [ecx]
  00005	8b 45 08	 mov	 eax, DWORD PTR ___$ReturnUdt$[ebp]
  00008	89 08		 mov	 DWORD PTR [eax], ecx

; 783  : 		}

  0000a	5d		 pop	 ebp
  0000b	c2 04 00	 ret	 4
?begin@?$vector@UAniRotateInfo@@V?$allocator@UAniRotateInfo@@@std@@@std@@QAE?AV?$_Vector_iterator@V?$_Vector_val@UAniRotateInfo@@V?$allocator@UAniRotateInfo@@@std@@@std@@@2@XZ ENDP ; std::vector<AniRotateInfo,std::allocator<AniRotateInfo> >::begin
_TEXT	ENDS
PUBLIC	?end@?$vector@UAniRotateInfo@@V?$allocator@UAniRotateInfo@@@std@@@std@@QAE?AV?$_Vector_iterator@V?$_Vector_val@UAniRotateInfo@@V?$allocator@UAniRotateInfo@@@std@@@std@@@2@XZ ; std::vector<AniRotateInfo,std::allocator<AniRotateInfo> >::end
; Function compile flags: /Ogsp
;	COMDAT ?end@?$vector@UAniRotateInfo@@V?$allocator@UAniRotateInfo@@@std@@@std@@QAE?AV?$_Vector_iterator@V?$_Vector_val@UAniRotateInfo@@V?$allocator@UAniRotateInfo@@@std@@@std@@@2@XZ
_TEXT	SEGMENT
___$ReturnUdt$ = 8					; size = 4
?end@?$vector@UAniRotateInfo@@V?$allocator@UAniRotateInfo@@@std@@@std@@QAE?AV?$_Vector_iterator@V?$_Vector_val@UAniRotateInfo@@V?$allocator@UAniRotateInfo@@@std@@@std@@@2@XZ PROC ; std::vector<AniRotateInfo,std::allocator<AniRotateInfo> >::end, COMDAT
; _this$ = ecx

; 791  : 		{	// return iterator for end of mutable sequence

  00000	55		 push	 ebp
  00001	8b ec		 mov	 ebp, esp

; 792  : 		return (iterator(this->_Mylast, this));

  00003	8b 49 04	 mov	 ecx, DWORD PTR [ecx+4]
  00006	8b 45 08	 mov	 eax, DWORD PTR ___$ReturnUdt$[ebp]
  00009	89 08		 mov	 DWORD PTR [eax], ecx

; 793  : 		}

  0000b	5d		 pop	 ebp
  0000c	c2 04 00	 ret	 4
?end@?$vector@UAniRotateInfo@@V?$allocator@UAniRotateInfo@@@std@@@std@@QAE?AV?$_Vector_iterator@V?$_Vector_val@UAniRotateInfo@@V?$allocator@UAniRotateInfo@@@std@@@std@@@2@XZ ENDP ; std::vector<AniRotateInfo,std::allocator<AniRotateInfo> >::end
_TEXT	ENDS
PUBLIC	?_Make_iter@?$vector@UAniRotateInfo@@V?$allocator@UAniRotateInfo@@@std@@@std@@QBE?AV?$_Vector_iterator@V?$_Vector_val@UAniRotateInfo@@V?$allocator@UAniRotateInfo@@@std@@@std@@@2@V?$_Vector_const_iterator@V?$_Vector_val@UAniRotateInfo@@V?$allocator@UAniRotateInfo@@@std@@@std@@@2@@Z ; std::vector<AniRotateInfo,std::allocator<AniRotateInfo> >::_Make_iter
; Function compile flags: /Ogsp
;	COMDAT ?_Make_iter@?$vector@UAniRotateInfo@@V?$allocator@UAniRotateInfo@@@std@@@std@@QBE?AV?$_Vector_iterator@V?$_Vector_val@UAniRotateInfo@@V?$allocator@UAniRotateInfo@@@std@@@std@@@2@V?$_Vector_const_iterator@V?$_Vector_val@UAniRotateInfo@@V?$allocator@UAniRotateInfo@@@std@@@std@@@2@@Z
_TEXT	SEGMENT
___$ReturnUdt$ = 8					; size = 4
__Where$ = 12						; size = 4
?_Make_iter@?$vector@UAniRotateInfo@@V?$allocator@UAniRotateInfo@@@std@@@std@@QBE?AV?$_Vector_iterator@V?$_Vector_val@UAniRotateInfo@@V?$allocator@UAniRotateInfo@@@std@@@std@@@2@V?$_Vector_const_iterator@V?$_Vector_val@UAniRotateInfo@@V?$allocator@UAniRotateInfo@@@std@@@std@@@2@@Z PROC ; std::vector<AniRotateInfo,std::allocator<AniRotateInfo> >::_Make_iter, COMDAT
; _this$ = ecx

; 801  : 		{	// make iterator from const_iterator

  00000	55		 push	 ebp
  00001	8b ec		 mov	 ebp, esp

; 802  : 		return (iterator(_Where._Ptr, this));

  00003	8b 45 08	 mov	 eax, DWORD PTR ___$ReturnUdt$[ebp]
  00006	8b 4d 0c	 mov	 ecx, DWORD PTR __Where$[ebp]
  00009	89 08		 mov	 DWORD PTR [eax], ecx

; 803  : 		}

  0000b	5d		 pop	 ebp
  0000c	c2 08 00	 ret	 8
?_Make_iter@?$vector@UAniRotateInfo@@V?$allocator@UAniRotateInfo@@@std@@@std@@QBE?AV?$_Vector_iterator@V?$_Vector_val@UAniRotateInfo@@V?$allocator@UAniRotateInfo@@@std@@@std@@@2@V?$_Vector_const_iterator@V?$_Vector_val@UAniRotateInfo@@V?$allocator@UAniRotateInfo@@@std@@@std@@@2@@Z ENDP ; std::vector<AniRotateInfo,std::allocator<AniRotateInfo> >::_Make_iter
_TEXT	ENDS
PUBLIC	?_Destroy@?$vector@PBUAniEventTime@@V?$allocator@PBUAniEventTime@@@std@@@std@@IAEXPAPBUAniEventTime@@0@Z ; std::vector<AniEventTime const *,std::allocator<AniEventTime const *> >::_Destroy
; Function compile flags: /Ogsp
;	COMDAT ?_Destroy@?$vector@PBUAniEventTime@@V?$allocator@PBUAniEventTime@@@std@@@std@@IAEXPAPBUAniEventTime@@0@Z
_TEXT	SEGMENT
__First$ = 8						; size = 4
__Last$ = 12						; size = 4
?_Destroy@?$vector@PBUAniEventTime@@V?$allocator@PBUAniEventTime@@@std@@@std@@IAEXPAPBUAniEventTime@@0@Z PROC ; std::vector<AniEventTime const *,std::allocator<AniEventTime const *> >::_Destroy, COMDAT
; _this$ = ecx

; 1270 : 		_Destroy_range(_First, _Last, this->_Alval);
; 1271 : 		}

  00000	c2 08 00	 ret	 8
?_Destroy@?$vector@PBUAniEventTime@@V?$allocator@PBUAniEventTime@@@std@@@std@@IAEXPAPBUAniEventTime@@0@Z ENDP ; std::vector<AniEventTime const *,std::allocator<AniEventTime const *> >::_Destroy
_TEXT	ENDS
PUBLIC	??9?$_Vector_const_iterator@V?$_Vector_val@UAniRotateInfo@@V?$allocator@UAniRotateInfo@@@std@@@std@@@std@@QBE_NABV01@@Z ; std::_Vector_const_iterator<std::_Vector_val<AniRotateInfo,std::allocator<AniRotateInfo> > >::operator!=
; Function compile flags: /Ogsp
;	COMDAT ??9?$_Vector_const_iterator@V?$_Vector_val@UAniRotateInfo@@V?$allocator@UAniRotateInfo@@@std@@@std@@@std@@QBE_NABV01@@Z
_TEXT	SEGMENT
__Right$ = 8						; size = 4
??9?$_Vector_const_iterator@V?$_Vector_val@UAniRotateInfo@@V?$allocator@UAniRotateInfo@@@std@@@std@@@std@@QBE_NABV01@@Z PROC ; std::_Vector_const_iterator<std::_Vector_val<AniRotateInfo,std::allocator<AniRotateInfo> > >::operator!=, COMDAT
; _this$ = ecx

; 207  : 		{	// test for iterator inequality

  00000	55		 push	 ebp
  00001	8b ec		 mov	 ebp, esp

; 208  : 		return (!(*this == _Right));

  00003	8b 01		 mov	 eax, DWORD PTR [ecx]
  00005	8b 55 08	 mov	 edx, DWORD PTR __Right$[ebp]
  00008	33 c9		 xor	 ecx, ecx
  0000a	3b 02		 cmp	 eax, DWORD PTR [edx]
  0000c	0f 95 c0	 setne	 al

; 209  : 		}

  0000f	5d		 pop	 ebp
  00010	c2 04 00	 ret	 4
??9?$_Vector_const_iterator@V?$_Vector_val@UAniRotateInfo@@V?$allocator@UAniRotateInfo@@@std@@@std@@@std@@QBE_NABV01@@Z ENDP ; std::_Vector_const_iterator<std::_Vector_val<AniRotateInfo,std::allocator<AniRotateInfo> > >::operator!=
_TEXT	ENDS
PUBLIC	??$_Cons_val@V?$allocator@UAniRotateInfo@@@std@@UAniRotateInfo@@ABU3@@std@@YAXAAV?$allocator@UAniRotateInfo@@@0@PAUAniRotateInfo@@ABU2@@Z ; std::_Cons_val<std::allocator<AniRotateInfo>,AniRotateInfo,AniRotateInfo const &>
; Function compile flags: /Ogsp
; File c:\program files (x86)\microsoft visual studio 10.0\vc\include\xmemory
;	COMDAT ??$_Cons_val@V?$allocator@UAniRotateInfo@@@std@@UAniRotateInfo@@ABU3@@std@@YAXAAV?$allocator@UAniRotateInfo@@@0@PAUAniRotateInfo@@ABU2@@Z
_TEXT	SEGMENT
__Alval$ = 8						; size = 4
__Pdest$ = 12						; size = 4
__Src$ = 16						; size = 4
??$_Cons_val@V?$allocator@UAniRotateInfo@@@std@@UAniRotateInfo@@ABU3@@std@@YAXAAV?$allocator@UAniRotateInfo@@@0@PAUAniRotateInfo@@ABU2@@Z PROC ; std::_Cons_val<std::allocator<AniRotateInfo>,AniRotateInfo,AniRotateInfo const &>, COMDAT

; 279  : 	{	// construct using allocator

  00000	55		 push	 ebp
  00001	8b ec		 mov	 ebp, esp

; 280  : 	_Alval.construct(_Pdest, _STD forward<_Ty2>(_Src));

  00003	8b 45 0c	 mov	 eax, DWORD PTR __Pdest$[ebp]
  00006	85 c0		 test	 eax, eax
  00008	74 0d		 je	 SHORT $LN9@Cons_val@2
  0000a	8b 4d 10	 mov	 ecx, DWORD PTR __Src$[ebp]
  0000d	8b 11		 mov	 edx, DWORD PTR [ecx]
  0000f	89 10		 mov	 DWORD PTR [eax], edx
  00011	8b 49 04	 mov	 ecx, DWORD PTR [ecx+4]
  00014	89 48 04	 mov	 DWORD PTR [eax+4], ecx
$LN9@Cons_val@2:

; 281  : 	}

  00017	5d		 pop	 ebp
  00018	c3		 ret	 0
??$_Cons_val@V?$allocator@UAniRotateInfo@@@std@@UAniRotateInfo@@ABU3@@std@@YAXAAV?$allocator@UAniRotateInfo@@@0@PAUAniRotateInfo@@ABU2@@Z ENDP ; std::_Cons_val<std::allocator<AniRotateInfo>,AniRotateInfo,AniRotateInfo const &>
_TEXT	ENDS
PUBLIC	??$_Move@PAUAniRotateInfo@@PAU1@@std@@YAPAUAniRotateInfo@@PAU1@00@Z ; std::_Move<AniRotateInfo *,AniRotateInfo *>
; Function compile flags: /Ogsp
; File c:\program files (x86)\microsoft visual studio 10.0\vc\include\xutility
;	COMDAT ??$_Move@PAUAniRotateInfo@@PAU1@@std@@YAPAUAniRotateInfo@@PAU1@00@Z
_TEXT	SEGMENT
__Cat$539526 = -4					; size = 1
__First$ = 8						; size = 4
__Last$ = 12						; size = 4
__Dest$ = 16						; size = 4
??$_Move@PAUAniRotateInfo@@PAU1@@std@@YAPAUAniRotateInfo@@PAU1@00@Z PROC ; std::_Move<AniRotateInfo *,AniRotateInfo *>, COMDAT

; 2533 : 	{	// move [_First, _Last) to [_Dest, ...), unchecked

  00000	55		 push	 ebp
  00001	8b ec		 mov	 ebp, esp
  00003	51		 push	 ecx

; 2534 : 	return (_Move(_First, _Last,
; 2535 : 		_Dest, _Ptr_cat(_First, _Dest)));

  00004	ff 75 fc	 push	 DWORD PTR __Cat$539526[ebp]
  00007	ff 75 10	 push	 DWORD PTR __Dest$[ebp]
  0000a	ff 75 0c	 push	 DWORD PTR __Last$[ebp]
  0000d	ff 75 08	 push	 DWORD PTR __First$[ebp]
  00010	e8 00 00 00 00	 call	 ??$_Move@PAUAniRotateInfo@@PAU1@@std@@YAPAUAniRotateInfo@@PAU1@00U_Nonscalar_ptr_iterator_tag@0@@Z ; std::_Move<AniRotateInfo *,AniRotateInfo *>
  00015	83 c4 10	 add	 esp, 16			; 00000010H

; 2536 : 	}

  00018	c9		 leave
  00019	c3		 ret	 0
??$_Move@PAUAniRotateInfo@@PAU1@@std@@YAPAUAniRotateInfo@@PAU1@00@Z ENDP ; std::_Move<AniRotateInfo *,AniRotateInfo *>
_TEXT	ENDS
PUBLIC	??$_Dest_val@V?$allocator@UAniRotateInfo@@@std@@UAniRotateInfo@@@std@@YAXAAV?$allocator@UAniRotateInfo@@@0@PAUAniRotateInfo@@@Z ; std::_Dest_val<std::allocator<AniRotateInfo>,AniRotateInfo>
; Function compile flags: /Ogsp
; File c:\program files (x86)\microsoft visual studio 10.0\vc\include\xmemory
;	COMDAT ??$_Dest_val@V?$allocator@UAniRotateInfo@@@std@@UAniRotateInfo@@@std@@YAXAAV?$allocator@UAniRotateInfo@@@0@PAUAniRotateInfo@@@Z
_TEXT	SEGMENT
__Alval$ = 8						; size = 4
__Pdest$ = 12						; size = 4
??$_Dest_val@V?$allocator@UAniRotateInfo@@@std@@UAniRotateInfo@@@std@@YAXAAV?$allocator@UAniRotateInfo@@@0@PAUAniRotateInfo@@@Z PROC ; std::_Dest_val<std::allocator<AniRotateInfo>,AniRotateInfo>, COMDAT

; 287  : 	_Alval.destroy(_Pdest);
; 288  : 	}

  00000	c3		 ret	 0
??$_Dest_val@V?$allocator@UAniRotateInfo@@@std@@UAniRotateInfo@@@std@@YAXAAV?$allocator@UAniRotateInfo@@@0@PAUAniRotateInfo@@@Z ENDP ; std::_Dest_val<std::allocator<AniRotateInfo>,AniRotateInfo>
_TEXT	ENDS
PUBLIC	??$_Cons_val@V?$allocator@UForceInfo@@@std@@UForceInfo@@ABU3@@std@@YAXAAV?$allocator@UForceInfo@@@0@PAUForceInfo@@ABU2@@Z ; std::_Cons_val<std::allocator<ForceInfo>,ForceInfo,ForceInfo const &>
; Function compile flags: /Ogsp
;	COMDAT ??$_Cons_val@V?$allocator@UForceInfo@@@std@@UForceInfo@@ABU3@@std@@YAXAAV?$allocator@UForceInfo@@@0@PAUForceInfo@@ABU2@@Z
_TEXT	SEGMENT
__Alval$ = 8						; size = 4
__Pdest$ = 12						; size = 4
__Src$ = 16						; size = 4
??$_Cons_val@V?$allocator@UForceInfo@@@std@@UForceInfo@@ABU3@@std@@YAXAAV?$allocator@UForceInfo@@@0@PAUForceInfo@@ABU2@@Z PROC ; std::_Cons_val<std::allocator<ForceInfo>,ForceInfo,ForceInfo const &>, COMDAT

; 279  : 	{	// construct using allocator

  00000	55		 push	 ebp
  00001	8b ec		 mov	 ebp, esp
  00003	57		 push	 edi

; 280  : 	_Alval.construct(_Pdest, _STD forward<_Ty2>(_Src));

  00004	8b 7d 0c	 mov	 edi, DWORD PTR __Pdest$[ebp]
  00007	85 ff		 test	 edi, edi
  00009	74 08		 je	 SHORT $LN9@Cons_val@3
  0000b	56		 push	 esi
  0000c	8b 75 10	 mov	 esi, DWORD PTR __Src$[ebp]
  0000f	a5		 movsd
  00010	a5		 movsd
  00011	a5		 movsd
  00012	5e		 pop	 esi
$LN9@Cons_val@3:
  00013	5f		 pop	 edi

; 281  : 	}

  00014	5d		 pop	 ebp
  00015	c3		 ret	 0
??$_Cons_val@V?$allocator@UForceInfo@@@std@@UForceInfo@@ABU3@@std@@YAXAAV?$allocator@UForceInfo@@@0@PAUForceInfo@@ABU2@@Z ENDP ; std::_Cons_val<std::allocator<ForceInfo>,ForceInfo,ForceInfo const &>
_TEXT	ENDS
PUBLIC	??$_Cons_val@V?$allocator@UAniRotateInfo@@@std@@UAniRotateInfo@@U3@@std@@YAXAAV?$allocator@UAniRotateInfo@@@0@PAUAniRotateInfo@@$$QAU2@@Z ; std::_Cons_val<std::allocator<AniRotateInfo>,AniRotateInfo,AniRotateInfo>
; Function compile flags: /Ogsp
;	COMDAT ??$_Cons_val@V?$allocator@UAniRotateInfo@@@std@@UAniRotateInfo@@U3@@std@@YAXAAV?$allocator@UAniRotateInfo@@@0@PAUAniRotateInfo@@$$QAU2@@Z
_TEXT	SEGMENT
__Alval$ = 8						; size = 4
__Pdest$ = 12						; size = 4
__Src$ = 16						; size = 4
??$_Cons_val@V?$allocator@UAniRotateInfo@@@std@@UAniRotateInfo@@U3@@std@@YAXAAV?$allocator@UAniRotateInfo@@@0@PAUAniRotateInfo@@$$QAU2@@Z PROC ; std::_Cons_val<std::allocator<AniRotateInfo>,AniRotateInfo,AniRotateInfo>, COMDAT

; 279  : 	{	// construct using allocator

  00000	55		 push	 ebp
  00001	8b ec		 mov	 ebp, esp

; 280  : 	_Alval.construct(_Pdest, _STD forward<_Ty2>(_Src));

  00003	8b 45 0c	 mov	 eax, DWORD PTR __Pdest$[ebp]
  00006	85 c0		 test	 eax, eax
  00008	74 0d		 je	 SHORT $LN7@Cons_val@4
  0000a	8b 4d 10	 mov	 ecx, DWORD PTR __Src$[ebp]
  0000d	8b 11		 mov	 edx, DWORD PTR [ecx]
  0000f	89 10		 mov	 DWORD PTR [eax], edx
  00011	8b 49 04	 mov	 ecx, DWORD PTR [ecx+4]
  00014	89 48 04	 mov	 DWORD PTR [eax+4], ecx
$LN7@Cons_val@4:

; 281  : 	}

  00017	5d		 pop	 ebp
  00018	c3		 ret	 0
??$_Cons_val@V?$allocator@UAniRotateInfo@@@std@@UAniRotateInfo@@U3@@std@@YAXAAV?$allocator@UAniRotateInfo@@@0@PAUAniRotateInfo@@$$QAU2@@Z ENDP ; std::_Cons_val<std::allocator<AniRotateInfo>,AniRotateInfo,AniRotateInfo>
_TEXT	ENDS
PUBLIC	?construct@?$allocator@UWeaponInfo@@@std@@QAEXPAUWeaponInfo@@ABU3@@Z ; std::allocator<WeaponInfo>::construct
; Function compile flags: /Ogsp
;	COMDAT ?construct@?$allocator@UWeaponInfo@@@std@@QAEXPAUWeaponInfo@@ABU3@@Z
_TEXT	SEGMENT
__Ptr$ = 8						; size = 4
__Val$ = 12						; size = 4
?construct@?$allocator@UWeaponInfo@@@std@@QAEXPAUWeaponInfo@@ABU3@@Z PROC ; std::allocator<WeaponInfo>::construct, COMDAT
; _this$ = ecx

; 196  : 		{	// construct object at _Ptr with value _Val

  00000	55		 push	 ebp
  00001	8b ec		 mov	 ebp, esp

; 197  : 		_Construct(_Ptr, _Val);

  00003	ff 75 0c	 push	 DWORD PTR __Val$[ebp]
  00006	ff 75 08	 push	 DWORD PTR __Ptr$[ebp]
  00009	e8 00 00 00 00	 call	 ??$_Construct@UWeaponInfo@@ABU1@@std@@YAXPAUWeaponInfo@@ABU1@@Z ; std::_Construct<WeaponInfo,WeaponInfo const &>
  0000e	59		 pop	 ecx
  0000f	59		 pop	 ecx

; 198  : 		}

  00010	5d		 pop	 ebp
  00011	c2 08 00	 ret	 8
?construct@?$allocator@UWeaponInfo@@@std@@QAEXPAUWeaponInfo@@ABU3@@Z ENDP ; std::allocator<WeaponInfo>::construct
_TEXT	ENDS
PUBLIC	??0?$vector@UWeaponInfo@@V?$allocator@UWeaponInfo@@@std@@@std@@QAE@XZ ; std::vector<WeaponInfo,std::allocator<WeaponInfo> >::vector<WeaponInfo,std::allocator<WeaponInfo> >
; Function compile flags: /Ogsp
; File c:\program files (x86)\microsoft visual studio 10.0\vc\include\vector
;	COMDAT ??0?$vector@UWeaponInfo@@V?$allocator@UWeaponInfo@@@std@@@std@@QAE@XZ
_TEXT	SEGMENT
??0?$vector@UWeaponInfo@@V?$allocator@UWeaponInfo@@@std@@@std@@QAE@XZ PROC ; std::vector<WeaponInfo,std::allocator<WeaponInfo> >::vector<WeaponInfo,std::allocator<WeaponInfo> >, COMDAT
; _this$ = ecx

; 507  : 		{	// construct empty vector

  00000	8b c1		 mov	 eax, ecx
  00002	33 c9		 xor	 ecx, ecx
  00004	89 08		 mov	 DWORD PTR [eax], ecx
  00006	89 48 04	 mov	 DWORD PTR [eax+4], ecx
  00009	89 48 08	 mov	 DWORD PTR [eax+8], ecx

; 508  : 		}

  0000c	c3		 ret	 0
??0?$vector@UWeaponInfo@@V?$allocator@UWeaponInfo@@@std@@@std@@QAE@XZ ENDP ; std::vector<WeaponInfo,std::allocator<WeaponInfo> >::vector<WeaponInfo,std::allocator<WeaponInfo> >
_TEXT	ENDS
PUBLIC	??0?$vector@UForceInfo@@V?$allocator@UForceInfo@@@std@@@std@@QAE@XZ ; std::vector<ForceInfo,std::allocator<ForceInfo> >::vector<ForceInfo,std::allocator<ForceInfo> >
; Function compile flags: /Ogsp
;	COMDAT ??0?$vector@UForceInfo@@V?$allocator@UForceInfo@@@std@@@std@@QAE@XZ
_TEXT	SEGMENT
??0?$vector@UForceInfo@@V?$allocator@UForceInfo@@@std@@@std@@QAE@XZ PROC ; std::vector<ForceInfo,std::allocator<ForceInfo> >::vector<ForceInfo,std::allocator<ForceInfo> >, COMDAT
; _this$ = ecx

; 507  : 		{	// construct empty vector

  00000	8b c1		 mov	 eax, ecx
  00002	33 c9		 xor	 ecx, ecx
  00004	89 08		 mov	 DWORD PTR [eax], ecx
  00006	89 48 04	 mov	 DWORD PTR [eax+4], ecx
  00009	89 48 08	 mov	 DWORD PTR [eax+8], ecx

; 508  : 		}

  0000c	c3		 ret	 0
??0?$vector@UForceInfo@@V?$allocator@UForceInfo@@@std@@@std@@QAE@XZ ENDP ; std::vector<ForceInfo,std::allocator<ForceInfo> >::vector<ForceInfo,std::allocator<ForceInfo> >
_TEXT	ENDS
PUBLIC	??0?$CEncrypt@M@@QAE@ABM@Z			; CEncrypt<float>::CEncrypt<float>
;	COMDAT xdata$x
; File d:\lost saga for developer\youtube\tutorial\source\src\lsclient\encryptvalue.h
xdata$x	SEGMENT
__unwindtable$??0?$CEncrypt@M@@QAE@ABM@Z DD 0ffffffffH
	DD	FLAT:__unwindfunclet$??0?$CEncrypt@M@@QAE@ABM@Z$0
__ehfuncinfo$??0?$CEncrypt@M@@QAE@ABM@Z DD 019930522H
	DD	01H
	DD	FLAT:__unwindtable$??0?$CEncrypt@M@@QAE@ABM@Z
	DD	2 DUP(00H)
	DD	2 DUP(00H)
	DD	00H
	DD	01H
; Function compile flags: /Ogsp
xdata$x	ENDS
;	COMDAT ??0?$CEncrypt@M@@QAE@ABM@Z
_TEXT	SEGMENT
_this$ = -16						; size = 4
__$EHRec$ = -12						; size = 12
_value$539647 = 8					; size = 4
_inValue$ = 8						; size = 4
??0?$CEncrypt@M@@QAE@ABM@Z PROC				; CEncrypt<float>::CEncrypt<float>, COMDAT
; _this$ = ecx

; 114  : 	CEncrypt( const type &inValue )        // 선언과 동시에 값을 대입하기 위해서

  00000	6a 04		 push	 4
  00002	b8 00 00 00 00	 mov	 eax, __ehhandler$??0?$CEncrypt@M@@QAE@ABM@Z
  00007	e8 00 00 00 00	 call	 __EH_prolog3
  0000c	8b f1		 mov	 esi, ecx
  0000e	89 75 f0	 mov	 DWORD PTR _this$[ebp], esi
  00011	8d 4e 0c	 lea	 ecx, DWORD PTR [esi+12]
  00014	c7 06 00 00 00
	00		 mov	 DWORD PTR [esi], OFFSET ??_7?$CEncrypt@M@@6B@
  0001a	e8 00 00 00 00	 call	 ??0ccddaabb@@QAE@XZ	; ccddaabb::ccddaabb
  0001f	83 65 fc 00	 and	 DWORD PTR __$EHRec$[ebp+8], 0

; 115  : 	{
; 116  : 		Init();

  00023	8b ce		 mov	 ecx, esi
  00025	e8 00 00 00 00	 call	 ?Init@?$CEncrypt@M@@AAEXXZ ; CEncrypt<float>::Init

; 117  : 		*this = inValue;

  0002a	8b 45 08	 mov	 eax, DWORD PTR _inValue$[ebp]
  0002d	f3 0f 10 00	 movss	 xmm0, DWORD PTR [eax]
  00031	8d 45 08	 lea	 eax, DWORD PTR _value$539647[ebp]
  00034	50		 push	 eax
  00035	8b ce		 mov	 ecx, esi
  00037	f3 0f 11 45 08	 movss	 DWORD PTR _value$539647[ebp], xmm0
  0003c	e8 00 00 00 00	 call	 ?EncryptValueToPool@?$CEncrypt@M@@AAEXPBD@Z ; CEncrypt<float>::EncryptValueToPool

; 118  : 	}

  00041	8b c6		 mov	 eax, esi
  00043	e8 00 00 00 00	 call	 __EH_epilog3
  00048	c2 04 00	 ret	 4
_TEXT	ENDS
;	COMDAT text$x
text$x	SEGMENT
__unwindfunclet$??0?$CEncrypt@M@@QAE@ABM@Z$0:
  00000	8b 4d f0	 mov	 ecx, DWORD PTR _this$[ebp]
  00003	83 c1 0c	 add	 ecx, 12			; 0000000cH
  00006	e9 00 00 00 00	 jmp	 ??1ccddaabb@@UAE@XZ	; ccddaabb::~ccddaabb
__ehhandler$??0?$CEncrypt@M@@QAE@ABM@Z:
  0000b	8b 54 24 08	 mov	 edx, DWORD PTR [esp+8]
  0000f	8d 42 0c	 lea	 eax, DWORD PTR [edx+12]
  00012	8b 4a ec	 mov	 ecx, DWORD PTR [edx-20]
  00015	33 c8		 xor	 ecx, eax
  00017	e8 00 00 00 00	 call	 @__security_check_cookie@4
  0001c	b8 00 00 00 00	 mov	 eax, OFFSET __ehfuncinfo$??0?$CEncrypt@M@@QAE@ABM@Z
  00021	e9 00 00 00 00	 jmp	 ___CxxFrameHandler3
text$x	ENDS
??0?$CEncrypt@M@@QAE@ABM@Z ENDP				; CEncrypt<float>::CEncrypt<float>
PUBLIC	??0?$CEncrypt@M@@QAE@ABV0@@Z			; CEncrypt<float>::CEncrypt<float>
;	COMDAT xdata$x
xdata$x	SEGMENT
__unwindtable$??0?$CEncrypt@M@@QAE@ABV0@@Z DD 0ffffffffH
	DD	FLAT:__unwindfunclet$??0?$CEncrypt@M@@QAE@ABV0@@Z$0
__ehfuncinfo$??0?$CEncrypt@M@@QAE@ABV0@@Z DD 019930522H
	DD	01H
	DD	FLAT:__unwindtable$??0?$CEncrypt@M@@QAE@ABV0@@Z
	DD	2 DUP(00H)
	DD	2 DUP(00H)
	DD	00H
	DD	01H
; Function compile flags: /Ogsp
xdata$x	ENDS
;	COMDAT ??0?$CEncrypt@M@@QAE@ABV0@@Z
_TEXT	SEGMENT
_this$ = -16						; size = 4
__$EHRec$ = -12						; size = 12
_value$539667 = 8					; size = 4
_value$539662 = 8					; size = 4
_inValue$ = 8						; size = 4
??0?$CEncrypt@M@@QAE@ABV0@@Z PROC			; CEncrypt<float>::CEncrypt<float>, COMDAT
; _this$ = ecx

; 120  : 	CEncrypt( const CEncrypt<type> &inValue )   // 선언과 동시에 값을 대입하기 위해서

  00000	6a 04		 push	 4
  00002	b8 00 00 00 00	 mov	 eax, __ehhandler$??0?$CEncrypt@M@@QAE@ABV0@@Z
  00007	e8 00 00 00 00	 call	 __EH_prolog3
  0000c	8b f1		 mov	 esi, ecx
  0000e	89 75 f0	 mov	 DWORD PTR _this$[ebp], esi
  00011	8d 4e 0c	 lea	 ecx, DWORD PTR [esi+12]
  00014	c7 06 00 00 00
	00		 mov	 DWORD PTR [esi], OFFSET ??_7?$CEncrypt@M@@6B@
  0001a	e8 00 00 00 00	 call	 ??0ccddaabb@@QAE@XZ	; ccddaabb::ccddaabb
  0001f	83 65 fc 00	 and	 DWORD PTR __$EHRec$[ebp+8], 0

; 121  : 	{
; 122  : 		Init();

  00023	8b ce		 mov	 ecx, esi
  00025	e8 00 00 00 00	 call	 ?Init@?$CEncrypt@M@@AAEXXZ ; CEncrypt<float>::Init

; 123  : 		*this = inValue;

  0002a	8b 4d 08	 mov	 ecx, DWORD PTR _inValue$[ebp]
  0002d	8d 45 08	 lea	 eax, DWORD PTR _value$539662[ebp]
  00030	50		 push	 eax
  00031	e8 00 00 00 00	 call	 ?DecryptValueToPool@?$CEncrypt@M@@QAEXPAM@Z ; CEncrypt<float>::DecryptValueToPool
  00036	f3 0f 10 45 08	 movss	 xmm0, DWORD PTR _value$539662[ebp]
  0003b	8d 45 08	 lea	 eax, DWORD PTR _value$539667[ebp]
  0003e	50		 push	 eax
  0003f	8b ce		 mov	 ecx, esi
  00041	f3 0f 11 45 08	 movss	 DWORD PTR _value$539667[ebp], xmm0
  00046	e8 00 00 00 00	 call	 ?EncryptValueToPool@?$CEncrypt@M@@AAEXPBD@Z ; CEncrypt<float>::EncryptValueToPool

; 124  : 	}

  0004b	8b c6		 mov	 eax, esi
  0004d	e8 00 00 00 00	 call	 __EH_epilog3
  00052	c2 04 00	 ret	 4
_TEXT	ENDS
;	COMDAT text$x
text$x	SEGMENT
__unwindfunclet$??0?$CEncrypt@M@@QAE@ABV0@@Z$0:
  00000	8b 4d f0	 mov	 ecx, DWORD PTR _this$[ebp]
  00003	83 c1 0c	 add	 ecx, 12			; 0000000cH
  00006	e9 00 00 00 00	 jmp	 ??1ccddaabb@@UAE@XZ	; ccddaabb::~ccddaabb
__ehhandler$??0?$CEncrypt@M@@QAE@ABV0@@Z:
  0000b	8b 54 24 08	 mov	 edx, DWORD PTR [esp+8]
  0000f	8d 42 0c	 lea	 eax, DWORD PTR [edx+12]
  00012	8b 4a ec	 mov	 ecx, DWORD PTR [edx-20]
  00015	33 c8		 xor	 ecx, eax
  00017	e8 00 00 00 00	 call	 @__security_check_cookie@4
  0001c	b8 00 00 00 00	 mov	 eax, OFFSET __ehfuncinfo$??0?$CEncrypt@M@@QAE@ABV0@@Z
  00021	e9 00 00 00 00	 jmp	 ___CxxFrameHandler3
text$x	ENDS
??0?$CEncrypt@M@@QAE@ABV0@@Z ENDP			; CEncrypt<float>::CEncrypt<float>
PUBLIC	?_Tidy@?$basic_string@DU?$char_traits@D@std@@V?$allocator@D@2@@std@@QAEX_NI@Z ; std::basic_string<char,std::char_traits<char>,std::allocator<char> >::_Tidy
; Function compile flags: /Ogsp
; File c:\program files (x86)\microsoft visual studio 10.0\vc\include\xstring
;	COMDAT ?_Tidy@?$basic_string@DU?$char_traits@D@std@@V?$allocator@D@2@@std@@QAEX_NI@Z
_TEXT	SEGMENT
__Built$ = 8						; size = 1
__Newsize$ = 12						; size = 4
?_Tidy@?$basic_string@DU?$char_traits@D@std@@V?$allocator@D@2@@std@@QAEX_NI@Z PROC ; std::basic_string<char,std::char_traits<char>,std::allocator<char> >::_Tidy, COMDAT
; _this$ = ecx

; 1988 : 		{	// initialize buffer, deallocating any storage

  00000	55		 push	 ebp
  00001	8b ec		 mov	 ebp, esp

; 1989 : 		if (!_Built)

  00003	80 7d 08 00	 cmp	 BYTE PTR __Built$[ebp], 0
  00007	56		 push	 esi
  00008	57		 push	 edi
  00009	8b 7d 0c	 mov	 edi, DWORD PTR __Newsize$[ebp]
  0000c	8b f1		 mov	 esi, ecx
  0000e	74 20		 je	 SHORT $LN9@Tidy

; 1990 : 			;
; 1991 : 		else if (this->_BUF_SIZE <= this->_Myres)

  00010	83 7e 14 10	 cmp	 DWORD PTR [esi+20], 16	; 00000010H
  00014	72 1a		 jb	 SHORT $LN9@Tidy

; 1992 : 			{	// copy any leftovers to small buffer and deallocate
; 1993 : 			_Elem *_Ptr = this->_Bx._Ptr;

  00016	53		 push	 ebx
  00017	8b 1e		 mov	 ebx, DWORD PTR [esi]

; 1994 : 			if (0 < _Newsize)

  00019	85 ff		 test	 edi, edi
  0001b	74 0b		 je	 SHORT $LN7@Tidy

; 1995 : 				_Traits::copy(this->_Bx._Buf, _Ptr, _Newsize);

  0001d	57		 push	 edi
  0001e	53		 push	 ebx
  0001f	56		 push	 esi
  00020	e8 00 00 00 00	 call	 _memcpy
  00025	83 c4 0c	 add	 esp, 12			; 0000000cH
$LN7@Tidy:

; 1996 : 			this->_Alval.deallocate(_Ptr, this->_Myres + 1);

  00028	53		 push	 ebx
  00029	e8 00 00 00 00	 call	 ??3@YAXPAX@Z		; operator delete
  0002e	59		 pop	 ecx
  0002f	5b		 pop	 ebx
$LN9@Tidy:

; 1997 : 			}
; 1998 : 		this->_Myres = this->_BUF_SIZE - 1;
; 1999 : 		_Eos(_Newsize);

  00030	89 7e 10	 mov	 DWORD PTR [esi+16], edi
  00033	c7 46 14 0f 00
	00 00		 mov	 DWORD PTR [esi+20], 15	; 0000000fH
  0003a	c6 04 37 00	 mov	 BYTE PTR [edi+esi], 0
  0003e	5f		 pop	 edi
  0003f	5e		 pop	 esi

; 2000 : 		}

  00040	5d		 pop	 ebp
  00041	c2 08 00	 ret	 8
?_Tidy@?$basic_string@DU?$char_traits@D@std@@V?$allocator@D@2@@std@@QAEX_NI@Z ENDP ; std::basic_string<char,std::char_traits<char>,std::allocator<char> >::_Tidy
_TEXT	ENDS
PUBLIC	?erase@?$basic_string@DU?$char_traits@D@std@@V?$allocator@D@2@@std@@QAEAAV12@II@Z ; std::basic_string<char,std::char_traits<char>,std::allocator<char> >::erase
; Function compile flags: /Ogsp
;	COMDAT ?erase@?$basic_string@DU?$char_traits@D@std@@V?$allocator@D@2@@std@@QAEAAV12@II@Z
_TEXT	SEGMENT
__Off$ = 8						; size = 4
__Count$ = 12						; size = 4
?erase@?$basic_string@DU?$char_traits@D@std@@V?$allocator@D@2@@std@@QAEAAV12@II@Z PROC ; std::basic_string<char,std::char_traits<char>,std::allocator<char> >::erase, COMDAT
; _this$ = ecx

; 1109 : 		{	// erase elements [_Off, _Off + _Count)

  00000	55		 push	 ebp
  00001	8b ec		 mov	 ebp, esp
  00003	53		 push	 ebx
  00004	56		 push	 esi
  00005	8b f1		 mov	 esi, ecx

; 1110 : 		if (this->_Mysize < _Off)

  00007	8b 46 10	 mov	 eax, DWORD PTR [esi+16]
  0000a	8b 4d 08	 mov	 ecx, DWORD PTR __Off$[ebp]
  0000d	3b c1		 cmp	 eax, ecx
  0000f	73 0b		 jae	 SHORT $LN3@erase

; 1111 : 			_Xran();	// _Off off end

  00011	68 00 00 00 00	 push	 OFFSET ??_C@_0BI@CFPLBAOH@invalid?5string?5position?$AA@
  00016	ff 15 00 00 00
	00		 call	 DWORD PTR __imp_?_Xout_of_range@std@@YAXPBD@Z
$LN28@erase:
$LN3@erase:

; 1112 : 		if (this->_Mysize - _Off < _Count)

  0001c	8b 5d 0c	 mov	 ebx, DWORD PTR __Count$[ebp]
  0001f	2b c1		 sub	 eax, ecx
  00021	3b c3		 cmp	 eax, ebx

; 1113 : 			_Count = this->_Mysize - _Off;	// trim _Count

  00023	0f 42 d8	 cmovb	 ebx, eax

; 1114 : 		if (0 < _Count)

  00026	85 db		 test	 ebx, ebx
  00028	74 47		 je	 SHORT $LN25@erase

; 1115 : 			{	// move elements down
; 1116 : 			_Traits::move(_Myptr() + _Off, _Myptr() + _Off + _Count,
; 1117 : 				this->_Mysize - _Off - _Count);

  0002a	8b 56 14	 mov	 edx, DWORD PTR [esi+20]
  0002d	57		 push	 edi
  0002e	83 fa 10	 cmp	 edx, 16			; 00000010H
  00031	72 04		 jb	 SHORT $LN11@erase
  00033	8b 3e		 mov	 edi, DWORD PTR [esi]
  00035	eb 02		 jmp	 SHORT $LN12@erase
$LN11@erase:
  00037	8b fe		 mov	 edi, esi
$LN12@erase:
  00039	83 fa 10	 cmp	 edx, 16			; 00000010H
  0003c	72 04		 jb	 SHORT $LN15@erase
  0003e	8b 16		 mov	 edx, DWORD PTR [esi]
  00040	eb 02		 jmp	 SHORT $LN16@erase
$LN15@erase:
  00042	8b d6		 mov	 edx, esi
$LN16@erase:
  00044	2b c3		 sub	 eax, ebx
  00046	03 f9		 add	 edi, ecx
  00048	50		 push	 eax
  00049	03 fb		 add	 edi, ebx
  0004b	03 d1		 add	 edx, ecx
  0004d	57		 push	 edi
  0004e	52		 push	 edx
  0004f	ff 15 00 00 00
	00		 call	 DWORD PTR __imp__memmove

; 1118 : 			size_type _Newsize = this->_Mysize - _Count;

  00055	8b 46 10	 mov	 eax, DWORD PTR [esi+16]
  00058	83 c4 0c	 add	 esp, 12			; 0000000cH
  0005b	2b c3		 sub	 eax, ebx

; 1119 : 			_Eos(_Newsize);

  0005d	83 7e 14 10	 cmp	 DWORD PTR [esi+20], 16	; 00000010H
  00061	89 46 10	 mov	 DWORD PTR [esi+16], eax
  00064	5f		 pop	 edi
  00065	72 04		 jb	 SHORT $LN23@erase
  00067	8b 0e		 mov	 ecx, DWORD PTR [esi]
  00069	eb 02		 jmp	 SHORT $LN24@erase
$LN23@erase:
  0006b	8b ce		 mov	 ecx, esi
$LN24@erase:
  0006d	c6 04 01 00	 mov	 BYTE PTR [ecx+eax], 0
$LN25@erase:

; 1120 : 			}
; 1121 : 		return (*this);

  00071	8b c6		 mov	 eax, esi
  00073	5e		 pop	 esi
  00074	5b		 pop	 ebx

; 1122 : 		}

  00075	5d		 pop	 ebp
  00076	c2 08 00	 ret	 8
$LN27@erase:
?erase@?$basic_string@DU?$char_traits@D@std@@V?$allocator@D@2@@std@@QAEAAV12@II@Z ENDP ; std::basic_string<char,std::char_traits<char>,std::allocator<char> >::erase
_TEXT	ENDS
PUBLIC	?_Copy@?$basic_string@DU?$char_traits@D@std@@V?$allocator@D@2@@std@@QAEXII@Z ; std::basic_string<char,std::char_traits<char>,std::allocator<char> >::_Copy
EXTRN	__EH_prolog3_catch:PROC
;	COMDAT xdata$x
; File c:\program files (x86)\microsoft visual studio 10.0\vc\include\iosfwd
xdata$x	SEGMENT
__catchsym$?_Copy@?$basic_string@DU?$char_traits@D@std@@V?$allocator@D@2@@std@@QAEXII@Z$5 DD 040H
	DD	00H
	DD	00H
	DD	FLAT:__catch$?_Copy@?$basic_string@DU?$char_traits@D@std@@V?$allocator@D@2@@std@@QAEXII@Z$0
__catchsym$?_Copy@?$basic_string@DU?$char_traits@D@std@@V?$allocator@D@2@@std@@QAEXII@Z$4 DD 040H
	DD	00H
	DD	00H
	DD	FLAT:__catch$?_Copy@?$basic_string@DU?$char_traits@D@std@@V?$allocator@D@2@@std@@QAEXII@Z$1
__unwindtable$?_Copy@?$basic_string@DU?$char_traits@D@std@@V?$allocator@D@2@@std@@QAEXII@Z DD 0ffffffffH
	DD	00H
	DD	0ffffffffH
	DD	00H
	DD	01H
	DD	00H
	DD	01H
	DD	00H
__ehfuncinfo$?_Copy@?$basic_string@DU?$char_traits@D@std@@V?$allocator@D@2@@std@@QAEXII@Z DD 019930522H
	DD	04H
	DD	FLAT:__unwindtable$?_Copy@?$basic_string@DU?$char_traits@D@std@@V?$allocator@D@2@@std@@QAEXII@Z
	DD	02H
	DD	FLAT:__tryblocktable$?_Copy@?$basic_string@DU?$char_traits@D@std@@V?$allocator@D@2@@std@@QAEXII@Z
	DD	2 DUP(00H)
	DD	00H
	DD	01H
__tryblocktable$?_Copy@?$basic_string@DU?$char_traits@D@std@@V?$allocator@D@2@@std@@QAEXII@Z DD 02H
	DD	02H
	DD	03H
	DD	01H
	DD	FLAT:__catchsym$?_Copy@?$basic_string@DU?$char_traits@D@std@@V?$allocator@D@2@@std@@QAEXII@Z$4
	DD	00H
	DD	00H
	DD	03H
	DD	01H
	DD	FLAT:__catchsym$?_Copy@?$basic_string@DU?$char_traits@D@std@@V?$allocator@D@2@@std@@QAEXII@Z$5
; Function compile flags: /Ogsp
; File c:\program files (x86)\microsoft visual studio 10.0\vc\include\xstring
xdata$x	ENDS
;	COMDAT ?_Copy@?$basic_string@DU?$char_traits@D@std@@V?$allocator@D@2@@std@@QAEXII@Z
_TEXT	SEGMENT
_this$ = -24						; size = 4
tv296 = -20						; size = 4
__Newres$ = -20						; size = 4
__$EHRec$ = -16						; size = 16
__Ptr$ = 8						; size = 4
__Newsize$ = 8						; size = 4
__Oldlen$ = 12						; size = 4
?_Copy@?$basic_string@DU?$char_traits@D@std@@V?$allocator@D@2@@std@@QAEXII@Z PROC ; std::basic_string<char,std::char_traits<char>,std::allocator<char> >::_Copy, COMDAT
; _this$ = ecx

; 1919 : 		{	// copy _Oldlen elements to newly allocated buffer

  00000	6a 0c		 push	 12			; 0000000cH
  00002	b8 00 00 00 00	 mov	 eax, __ehhandler$?_Copy@?$basic_string@DU?$char_traits@D@std@@V?$allocator@D@2@@std@@QAEXII@Z
  00007	e8 00 00 00 00	 call	 __EH_prolog3_catch
  0000c	8b f1		 mov	 esi, ecx
  0000e	89 75 e8	 mov	 DWORD PTR _this$[ebp], esi

; 1920 : 		size_type _Newres = _Newsize | this->_ALLOC_MASK;

  00011	8b 7d 08	 mov	 edi, DWORD PTR __Newsize$[ebp]
  00014	83 cf 0f	 or	 edi, 15			; 0000000fH

; 1921 : 		if (max_size() < _Newres)

  00017	83 ff fe	 cmp	 edi, -2			; fffffffeH
  0001a	76 05		 jbe	 SHORT $LN9@Copy

; 1922 : 			_Newres = _Newsize;	// undo roundup if too big

  0001c	8b 7d 08	 mov	 edi, DWORD PTR __Newsize$[ebp]
  0001f	eb 27		 jmp	 SHORT $LN5@Copy
$LN9@Copy:

; 1923 : 		else if (this->_Myres / 2 <= _Newres / 3)

  00021	33 d2		 xor	 edx, edx
  00023	6a 03		 push	 3
  00025	8b c7		 mov	 eax, edi
  00027	5b		 pop	 ebx
  00028	f7 f3		 div	 ebx
  0002a	8b 4e 14	 mov	 ecx, DWORD PTR [esi+20]
  0002d	89 4d ec	 mov	 DWORD PTR tv296[ebp], ecx
  00030	d1 6d ec	 shr	 DWORD PTR tv296[ebp], 1
  00033	8b 55 ec	 mov	 edx, DWORD PTR tv296[ebp]
  00036	3b d0		 cmp	 edx, eax
  00038	76 0e		 jbe	 SHORT $LN5@Copy

; 1924 : 			;
; 1925 : 		else if (this->_Myres <= max_size() - this->_Myres / 2)

  0003a	6a fe		 push	 -2			; fffffffeH
  0003c	5f		 pop	 edi
  0003d	8b c7		 mov	 eax, edi
  0003f	2b c2		 sub	 eax, edx
  00041	3b c8		 cmp	 ecx, eax
  00043	77 03		 ja	 SHORT $LN5@Copy

; 1926 : 			_Newres = this->_Myres
; 1927 : 				+ this->_Myres / 2;	// grow exponentially if possible

  00045	8d 3c 0a	 lea	 edi, DWORD PTR [edx+ecx]
$LN5@Copy:

; 1928 : 		else
; 1929 : 			_Newres = max_size();	// settle for max_size()
; 1930 : 
; 1931 : 		_Elem *_Ptr;
; 1932 : 		_TRY_BEGIN

  00048	83 65 fc 00	 and	 DWORD PTR __$EHRec$[ebp+12], 0

; 1933 : 			_Ptr = this->_Alval.allocate(_Newres + 1);

  0004c	8d 47 01	 lea	 eax, DWORD PTR [edi+1]
  0004f	6a 00		 push	 0
  00051	50		 push	 eax
  00052	e8 00 00 00 00	 call	 ??$_Allocate@D@std@@YAPADIPAD@Z ; std::_Allocate<char>
  00057	59		 pop	 ecx
  00058	59		 pop	 ecx
  00059	89 45 08	 mov	 DWORD PTR __Ptr$[ebp], eax
  0005c	eb 27		 jmp	 SHORT $LN19@Copy
__catch$?_Copy@?$basic_string@DU?$char_traits@D@std@@V?$allocator@D@2@@std@@QAEXII@Z$0:

; 1934 : 		_CATCH_ALL
; 1935 : 			_Newres = _Newsize;	// allocation failed, undo roundup and retry

  0005e	8b 45 08	 mov	 eax, DWORD PTR __Newsize$[ebp]
  00061	89 65 f0	 mov	 DWORD PTR __$EHRec$[ebp], esp
  00064	89 45 ec	 mov	 DWORD PTR __Newres$[ebp], eax

; 1936 : 			_TRY_BEGIN
; 1937 : 				_Ptr = this->_Alval.allocate(_Newres + 1);

  00067	40		 inc	 eax
  00068	6a 00		 push	 0
  0006a	50		 push	 eax
  0006b	c6 45 fc 02	 mov	 BYTE PTR __$EHRec$[ebp+12], 2
  0006f	e8 00 00 00 00	 call	 ??$_Allocate@D@std@@YAPADIPAD@Z ; std::_Allocate<char>
  00074	59		 pop	 ecx
  00075	89 45 08	 mov	 DWORD PTR __Ptr$[ebp], eax
  00078	59		 pop	 ecx

; 1941 : 			_CATCH_END
; 1942 : 		_CATCH_END

  00079	b8 00 00 00 00	 mov	 eax, $LN63@Copy
  0007e	c3		 ret	 0
$LN63@Copy:
  0007f	8b 75 e8	 mov	 esi, DWORD PTR _this$[ebp]
  00082	8b 7d ec	 mov	 edi, DWORD PTR __Newres$[ebp]
$LN19@Copy:

; 1943 : 
; 1944 : 		if (0 < _Oldlen)

  00085	8b 5d 0c	 mov	 ebx, DWORD PTR __Oldlen$[ebp]
  00088	85 db		 test	 ebx, ebx
  0008a	74 19		 je	 SHORT $LN52@Copy

; 1945 : 			_Traits::copy(_Ptr, _Myptr(), _Oldlen);	// copy existing elements

  0008c	83 7e 14 10	 cmp	 DWORD PTR [esi+20], 16	; 00000010H
  00090	72 04		 jb	 SHORT $LN50@Copy
  00092	8b 06		 mov	 eax, DWORD PTR [esi]
  00094	eb 02		 jmp	 SHORT $LN51@Copy
$LN50@Copy:
  00096	8b c6		 mov	 eax, esi
$LN51@Copy:
  00098	53		 push	 ebx
  00099	50		 push	 eax
  0009a	ff 75 08	 push	 DWORD PTR __Ptr$[ebp]
  0009d	e8 00 00 00 00	 call	 _memcpy
  000a2	83 c4 0c	 add	 esp, 12			; 0000000cH
$LN52@Copy:

; 1946 : 		_Tidy(true);

  000a5	6a 00		 push	 0
  000a7	6a 01		 push	 1
  000a9	8b ce		 mov	 ecx, esi
  000ab	e8 00 00 00 00	 call	 ?_Tidy@?$basic_string@DU?$char_traits@D@std@@V?$allocator@D@2@@std@@QAEX_NI@Z ; std::basic_string<char,std::char_traits<char>,std::allocator<char> >::_Tidy

; 1947 : 		this->_Bx._Ptr = _Ptr;

  000b0	8b 45 08	 mov	 eax, DWORD PTR __Ptr$[ebp]
  000b3	89 06		 mov	 DWORD PTR [esi], eax

; 1948 : 		this->_Myres = _Newres;
; 1949 : 		_Eos(_Oldlen);

  000b5	83 ff 10	 cmp	 edi, 16			; 00000010H
  000b8	89 7e 14	 mov	 DWORD PTR [esi+20], edi
  000bb	89 5e 10	 mov	 DWORD PTR [esi+16], ebx
  000be	0f 42 c6	 cmovb	 eax, esi
  000c1	c6 04 18 00	 mov	 BYTE PTR [eax+ebx], 0

; 1950 : 		}

  000c5	e8 00 00 00 00	 call	 __EH_epilog3
  000ca	c2 08 00	 ret	 8
__catch$?_Copy@?$basic_string@DU?$char_traits@D@std@@V?$allocator@D@2@@std@@QAEXII@Z$1:

; 1938 : 			_CATCH_ALL
; 1939 : 			_Tidy(true);	// failed again, discard storage and reraise

  000cd	8b 4d e8	 mov	 ecx, DWORD PTR _this$[ebp]
  000d0	33 f6		 xor	 esi, esi
  000d2	56		 push	 esi
  000d3	6a 01		 push	 1
  000d5	e8 00 00 00 00	 call	 ?_Tidy@?$basic_string@DU?$char_traits@D@std@@V?$allocator@D@2@@std@@QAEX_NI@Z ; std::basic_string<char,std::char_traits<char>,std::allocator<char> >::_Tidy

; 1940 : 			_RERAISE;

  000da	56		 push	 esi
  000db	56		 push	 esi
  000dc	e8 00 00 00 00	 call	 __CxxThrowException@8
$LN67@Copy:
$LN66@Copy:
  000e1	cc		 int	 3
_TEXT	ENDS
;	COMDAT text$x
text$x	SEGMENT
__ehhandler$?_Copy@?$basic_string@DU?$char_traits@D@std@@V?$allocator@D@2@@std@@QAEXII@Z:
  00000	8b 54 24 08	 mov	 edx, DWORD PTR [esp+8]
  00004	8d 42 0c	 lea	 eax, DWORD PTR [edx+12]
  00007	8b 4a e4	 mov	 ecx, DWORD PTR [edx-28]
  0000a	33 c8		 xor	 ecx, eax
  0000c	e8 00 00 00 00	 call	 @__security_check_cookie@4
  00011	b8 00 00 00 00	 mov	 eax, OFFSET __ehfuncinfo$?_Copy@?$basic_string@DU?$char_traits@D@std@@V?$allocator@D@2@@std@@QAEXII@Z
  00016	e9 00 00 00 00	 jmp	 ___CxxFrameHandler3
text$x	ENDS
?_Copy@?$basic_string@DU?$char_traits@D@std@@V?$allocator@D@2@@std@@QAEXII@Z ENDP ; std::basic_string<char,std::char_traits<char>,std::allocator<char> >::_Copy
PUBLIC	?_Buy@?$vector@UWeaponInfo@@V?$allocator@UWeaponInfo@@@std@@@std@@IAE_NI@Z ; std::vector<WeaponInfo,std::allocator<WeaponInfo> >::_Buy
; Function compile flags: /Ogsp
; File c:\program files (x86)\microsoft visual studio 10.0\vc\include\vector
;	COMDAT ?_Buy@?$vector@UWeaponInfo@@V?$allocator@UWeaponInfo@@@std@@@std@@IAE_NI@Z
_TEXT	SEGMENT
__Capacity$ = 8						; size = 4
?_Buy@?$vector@UWeaponInfo@@V?$allocator@UWeaponInfo@@@std@@@std@@IAE_NI@Z PROC ; std::vector<WeaponInfo,std::allocator<WeaponInfo> >::_Buy, COMDAT
; _this$ = ecx

; 1250 : 		{	// allocate array with _Capacity elements

  00000	55		 push	 ebp
  00001	8b ec		 mov	 ebp, esp
  00003	56		 push	 esi

; 1251 : 		this->_Myfirst = 0;

  00004	33 c0		 xor	 eax, eax
  00006	57		 push	 edi

; 1252 : 		this->_Mylast = 0;
; 1253 : 		this->_Myend = 0;
; 1254 : 
; 1255 : 		if (_Capacity == 0)

  00007	8b 7d 08	 mov	 edi, DWORD PTR __Capacity$[ebp]
  0000a	8b f1		 mov	 esi, ecx
  0000c	89 06		 mov	 DWORD PTR [esi], eax
  0000e	89 46 04	 mov	 DWORD PTR [esi+4], eax
  00011	89 46 08	 mov	 DWORD PTR [esi+8], eax
  00014	3b f8		 cmp	 edi, eax
  00016	75 04		 jne	 SHORT $LN4@Buy

; 1256 : 			return (false);

  00018	32 c0		 xor	 al, al
  0001a	eb 2b		 jmp	 SHORT $LN5@Buy
$LN4@Buy:

; 1257 : 		else if (max_size() < _Capacity)

  0001c	81 ff 66 66 66
	06		 cmp	 edi, 107374182		; 06666666H
  00022	76 0b		 jbe	 SHORT $LN2@Buy

; 1258 : 			_Xlen();	// result too long

  00024	68 00 00 00 00	 push	 OFFSET ??_C@_0BD@OLBABOEK@vector?$DMT?$DO?5too?5long?$AA@
  00029	ff 15 00 00 00
	00		 call	 DWORD PTR __imp_?_Xlength_error@std@@YAXPBD@Z
$LN19@Buy:
$LN2@Buy:

; 1259 : 		else
; 1260 : 			{	// nonempty array, allocate storage
; 1261 : 			this->_Myfirst = this->_Alval.allocate(_Capacity);

  0002f	50		 push	 eax
  00030	57		 push	 edi
  00031	e8 00 00 00 00	 call	 ??$_Allocate@UWeaponInfo@@@std@@YAPAUWeaponInfo@@IPAU1@@Z ; std::_Allocate<WeaponInfo>

; 1262 : 			this->_Mylast = this->_Myfirst;
; 1263 : 			this->_Myend = this->_Myfirst + _Capacity;

  00036	6b ff 28	 imul	 edi, 40			; 00000028H
  00039	03 f8		 add	 edi, eax
  0003b	59		 pop	 ecx
  0003c	89 06		 mov	 DWORD PTR [esi], eax
  0003e	89 46 04	 mov	 DWORD PTR [esi+4], eax
  00041	59		 pop	 ecx
  00042	89 7e 08	 mov	 DWORD PTR [esi+8], edi

; 1264 : 			}
; 1265 : 		return (true);

  00045	b0 01		 mov	 al, 1
$LN5@Buy:
  00047	5f		 pop	 edi
  00048	5e		 pop	 esi

; 1266 : 		}

  00049	5d		 pop	 ebp
  0004a	c2 04 00	 ret	 4
$LN18@Buy:
?_Buy@?$vector@UWeaponInfo@@V?$allocator@UWeaponInfo@@@std@@@std@@IAE_NI@Z ENDP ; std::vector<WeaponInfo,std::allocator<WeaponInfo> >::_Buy
_TEXT	ENDS
PUBLIC	?_Buy@?$vector@UForceInfo@@V?$allocator@UForceInfo@@@std@@@std@@IAE_NI@Z ; std::vector<ForceInfo,std::allocator<ForceInfo> >::_Buy
; Function compile flags: /Ogsp
;	COMDAT ?_Buy@?$vector@UForceInfo@@V?$allocator@UForceInfo@@@std@@@std@@IAE_NI@Z
_TEXT	SEGMENT
__Capacity$ = 8						; size = 4
?_Buy@?$vector@UForceInfo@@V?$allocator@UForceInfo@@@std@@@std@@IAE_NI@Z PROC ; std::vector<ForceInfo,std::allocator<ForceInfo> >::_Buy, COMDAT
; _this$ = ecx

; 1250 : 		{	// allocate array with _Capacity elements

  00000	55		 push	 ebp
  00001	8b ec		 mov	 ebp, esp
  00003	56		 push	 esi

; 1251 : 		this->_Myfirst = 0;

  00004	33 c0		 xor	 eax, eax
  00006	57		 push	 edi

; 1252 : 		this->_Mylast = 0;
; 1253 : 		this->_Myend = 0;
; 1254 : 
; 1255 : 		if (_Capacity == 0)

  00007	8b 7d 08	 mov	 edi, DWORD PTR __Capacity$[ebp]
  0000a	8b f1		 mov	 esi, ecx
  0000c	89 06		 mov	 DWORD PTR [esi], eax
  0000e	89 46 04	 mov	 DWORD PTR [esi+4], eax
  00011	89 46 08	 mov	 DWORD PTR [esi+8], eax
  00014	3b f8		 cmp	 edi, eax
  00016	75 04		 jne	 SHORT $LN4@Buy@2

; 1256 : 			return (false);

  00018	32 c0		 xor	 al, al
  0001a	eb 2b		 jmp	 SHORT $LN5@Buy@2
$LN4@Buy@2:

; 1257 : 		else if (max_size() < _Capacity)

  0001c	81 ff 55 55 55
	15		 cmp	 edi, 357913941		; 15555555H
  00022	76 0b		 jbe	 SHORT $LN2@Buy@2

; 1258 : 			_Xlen();	// result too long

  00024	68 00 00 00 00	 push	 OFFSET ??_C@_0BD@OLBABOEK@vector?$DMT?$DO?5too?5long?$AA@
  00029	ff 15 00 00 00
	00		 call	 DWORD PTR __imp_?_Xlength_error@std@@YAXPBD@Z
$LN19@Buy@2:
$LN2@Buy@2:

; 1259 : 		else
; 1260 : 			{	// nonempty array, allocate storage
; 1261 : 			this->_Myfirst = this->_Alval.allocate(_Capacity);

  0002f	50		 push	 eax
  00030	57		 push	 edi
  00031	e8 00 00 00 00	 call	 ??$_Allocate@UForceInfo@@@std@@YAPAUForceInfo@@IPAU1@@Z ; std::_Allocate<ForceInfo>

; 1262 : 			this->_Mylast = this->_Myfirst;
; 1263 : 			this->_Myend = this->_Myfirst + _Capacity;

  00036	6b ff 0c	 imul	 edi, 12			; 0000000cH
  00039	03 f8		 add	 edi, eax
  0003b	59		 pop	 ecx
  0003c	89 06		 mov	 DWORD PTR [esi], eax
  0003e	89 46 04	 mov	 DWORD PTR [esi+4], eax
  00041	59		 pop	 ecx
  00042	89 7e 08	 mov	 DWORD PTR [esi+8], edi

; 1264 : 			}
; 1265 : 		return (true);

  00045	b0 01		 mov	 al, 1
$LN5@Buy@2:
  00047	5f		 pop	 edi
  00048	5e		 pop	 esi

; 1266 : 		}

  00049	5d		 pop	 ebp
  0004a	c2 04 00	 ret	 4
$LN18@Buy@2:
?_Buy@?$vector@UForceInfo@@V?$allocator@UForceInfo@@@std@@@std@@IAE_NI@Z ENDP ; std::vector<ForceInfo,std::allocator<ForceInfo> >::_Buy
_TEXT	ENDS
PUBLIC	??9?$_Vector_const_iterator@V?$_Vector_val@UWeaponInfo@@V?$allocator@UWeaponInfo@@@std@@@std@@@std@@QBE_NABV01@@Z ; std::_Vector_const_iterator<std::_Vector_val<WeaponInfo,std::allocator<WeaponInfo> > >::operator!=
; Function compile flags: /Ogsp
;	COMDAT ??9?$_Vector_const_iterator@V?$_Vector_val@UWeaponInfo@@V?$allocator@UWeaponInfo@@@std@@@std@@@std@@QBE_NABV01@@Z
_TEXT	SEGMENT
__Right$ = 8						; size = 4
??9?$_Vector_const_iterator@V?$_Vector_val@UWeaponInfo@@V?$allocator@UWeaponInfo@@@std@@@std@@@std@@QBE_NABV01@@Z PROC ; std::_Vector_const_iterator<std::_Vector_val<WeaponInfo,std::allocator<WeaponInfo> > >::operator!=, COMDAT
; _this$ = ecx

; 207  : 		{	// test for iterator inequality

  00000	55		 push	 ebp
  00001	8b ec		 mov	 ebp, esp

; 208  : 		return (!(*this == _Right));

  00003	8b 01		 mov	 eax, DWORD PTR [ecx]
  00005	8b 55 08	 mov	 edx, DWORD PTR __Right$[ebp]
  00008	33 c9		 xor	 ecx, ecx
  0000a	3b 02		 cmp	 eax, DWORD PTR [edx]
  0000c	0f 95 c0	 setne	 al

; 209  : 		}

  0000f	5d		 pop	 ebp
  00010	c2 04 00	 ret	 4
??9?$_Vector_const_iterator@V?$_Vector_val@UWeaponInfo@@V?$allocator@UWeaponInfo@@@std@@@std@@@std@@QBE_NABV01@@Z ENDP ; std::_Vector_const_iterator<std::_Vector_val<WeaponInfo,std::allocator<WeaponInfo> > >::operator!=
_TEXT	ENDS
PUBLIC	??9?$_Vector_const_iterator@V?$_Vector_val@UForceInfo@@V?$allocator@UForceInfo@@@std@@@std@@@std@@QBE_NABV01@@Z ; std::_Vector_const_iterator<std::_Vector_val<ForceInfo,std::allocator<ForceInfo> > >::operator!=
; Function compile flags: /Ogsp
;	COMDAT ??9?$_Vector_const_iterator@V?$_Vector_val@UForceInfo@@V?$allocator@UForceInfo@@@std@@@std@@@std@@QBE_NABV01@@Z
_TEXT	SEGMENT
__Right$ = 8						; size = 4
??9?$_Vector_const_iterator@V?$_Vector_val@UForceInfo@@V?$allocator@UForceInfo@@@std@@@std@@@std@@QBE_NABV01@@Z PROC ; std::_Vector_const_iterator<std::_Vector_val<ForceInfo,std::allocator<ForceInfo> > >::operator!=, COMDAT
; _this$ = ecx

; 207  : 		{	// test for iterator inequality

  00000	55		 push	 ebp
  00001	8b ec		 mov	 ebp, esp

; 208  : 		return (!(*this == _Right));

  00003	8b 01		 mov	 eax, DWORD PTR [ecx]
  00005	8b 55 08	 mov	 edx, DWORD PTR __Right$[ebp]
  00008	33 c9		 xor	 ecx, ecx
  0000a	3b 02		 cmp	 eax, DWORD PTR [edx]
  0000c	0f 95 c0	 setne	 al

; 209  : 		}

  0000f	5d		 pop	 ebp
  00010	c2 04 00	 ret	 4
??9?$_Vector_const_iterator@V?$_Vector_val@UForceInfo@@V?$allocator@UForceInfo@@@std@@@std@@@std@@QBE_NABV01@@Z ENDP ; std::_Vector_const_iterator<std::_Vector_val<ForceInfo,std::allocator<ForceInfo> > >::operator!=
_TEXT	ENDS
PUBLIC	??$_Dest_val@V?$allocator@UForceInfo@@@std@@UForceInfo@@@std@@YAXAAV?$allocator@UForceInfo@@@0@PAUForceInfo@@@Z ; std::_Dest_val<std::allocator<ForceInfo>,ForceInfo>
; Function compile flags: /Ogsp
; File c:\program files (x86)\microsoft visual studio 10.0\vc\include\xmemory
;	COMDAT ??$_Dest_val@V?$allocator@UForceInfo@@@std@@UForceInfo@@@std@@YAXAAV?$allocator@UForceInfo@@@0@PAUForceInfo@@@Z
_TEXT	SEGMENT
__Alval$ = 8						; size = 4
__Pdest$ = 12						; size = 4
??$_Dest_val@V?$allocator@UForceInfo@@@std@@UForceInfo@@@std@@YAXAAV?$allocator@UForceInfo@@@0@PAUForceInfo@@@Z PROC ; std::_Dest_val<std::allocator<ForceInfo>,ForceInfo>, COMDAT

; 287  : 	_Alval.destroy(_Pdest);
; 288  : 	}

  00000	c3		 ret	 0
??$_Dest_val@V?$allocator@UForceInfo@@@std@@UForceInfo@@@std@@YAXAAV?$allocator@UForceInfo@@@0@PAUForceInfo@@@Z ENDP ; std::_Dest_val<std::allocator<ForceInfo>,ForceInfo>
_TEXT	ENDS
PUBLIC	?destroy@?$allocator@UWeaponInfo@@@std@@QAEXPAUWeaponInfo@@@Z ; std::allocator<WeaponInfo>::destroy
; Function compile flags: /Ogsp
;	COMDAT ?destroy@?$allocator@UWeaponInfo@@@std@@QAEXPAUWeaponInfo@@@Z
_TEXT	SEGMENT
__Ptr$ = 8						; size = 4
?destroy@?$allocator@UWeaponInfo@@@std@@QAEXPAUWeaponInfo@@@Z PROC ; std::allocator<WeaponInfo>::destroy, COMDAT
; _this$ = ecx

; 212  : 		{	// destroy object at _Ptr

  00000	55		 push	 ebp
  00001	8b ec		 mov	 ebp, esp

; 213  : 		_Destroy(_Ptr);

  00003	8b 4d 08	 mov	 ecx, DWORD PTR __Ptr$[ebp]
  00006	83 c1 08	 add	 ecx, 8
  00009	ff 15 00 00 00
	00		 call	 DWORD PTR __imp_??1ioHashString@@QAE@XZ

; 214  : 		}

  0000f	5d		 pop	 ebp
  00010	c2 04 00	 ret	 4
?destroy@?$allocator@UWeaponInfo@@@std@@QAEXPAUWeaponInfo@@@Z ENDP ; std::allocator<WeaponInfo>::destroy
_TEXT	ENDS
PUBLIC	?_Tidy@?$vector@PBUAniEventTime@@V?$allocator@PBUAniEventTime@@@std@@@std@@IAEXXZ ; std::vector<AniEventTime const *,std::allocator<AniEventTime const *> >::_Tidy
EXTRN	__imp_?_Orphan_all@_Container_base0@std@@QAEXXZ:PROC
; Function compile flags: /Ogsp
; File c:\program files (x86)\microsoft visual studio 10.0\vc\include\vector
;	COMDAT ?_Tidy@?$vector@PBUAniEventTime@@V?$allocator@PBUAniEventTime@@@std@@@std@@IAEXXZ
_TEXT	SEGMENT
?_Tidy@?$vector@PBUAniEventTime@@V?$allocator@PBUAniEventTime@@@std@@@std@@IAEXXZ PROC ; std::vector<AniEventTime const *,std::allocator<AniEventTime const *> >::_Tidy, COMDAT
; _this$ = ecx

; 1301 : 		{	// free all storage

  00000	56		 push	 esi
  00001	8b f1		 mov	 esi, ecx

; 1302 : 		if (this->_Myfirst != 0)

  00003	83 3e 00	 cmp	 DWORD PTR [esi], 0
  00006	74 0e		 je	 SHORT $LN12@Tidy@2

; 1303 : 			{	// something to free, destroy and deallocate it
; 1304 : 			this->_Orphan_all();

  00008	ff 15 00 00 00
	00		 call	 DWORD PTR __imp_?_Orphan_all@_Container_base0@std@@QAEXXZ

; 1305 : 			_Destroy(this->_Myfirst, this->_Mylast);
; 1306 : 			this->_Alval.deallocate(this->_Myfirst,
; 1307 : 				this->_Myend - this->_Myfirst);

  0000e	ff 36		 push	 DWORD PTR [esi]
  00010	e8 00 00 00 00	 call	 ??3@YAXPAX@Z		; operator delete
  00015	59		 pop	 ecx
$LN12@Tidy@2:

; 1308 : 			}
; 1309 : 		this->_Myfirst = 0;

  00016	83 26 00	 and	 DWORD PTR [esi], 0

; 1310 : 		this->_Mylast = 0;

  00019	83 66 04 00	 and	 DWORD PTR [esi+4], 0

; 1311 : 		this->_Myend = 0;

  0001d	83 66 08 00	 and	 DWORD PTR [esi+8], 0
  00021	5e		 pop	 esi

; 1312 : 		}

  00022	c3		 ret	 0
?_Tidy@?$vector@PBUAniEventTime@@V?$allocator@PBUAniEventTime@@@std@@@std@@IAEXXZ ENDP ; std::vector<AniEventTime const *,std::allocator<AniEventTime const *> >::_Tidy
_TEXT	ENDS
PUBLIC	___$ReturnUdt$GSCopy$
PUBLIC	??$DEGtoRAD@V?$CEncrypt@M@@@@YA?AV?$CEncrypt@M@@V0@@Z ; DEGtoRAD<CEncrypt<float> >
;	COMDAT xdata$x
; File d:\lost saga for developer\youtube\tutorial\source\src\lsclient\encryptvalue.h
xdata$x	SEGMENT
__unwindtable$??$DEGtoRAD@V?$CEncrypt@M@@@@YA?AV?$CEncrypt@M@@V0@@Z DD 0ffffffffH
	DD	FLAT:__unwindfunclet$??$DEGtoRAD@V?$CEncrypt@M@@@@YA?AV?$CEncrypt@M@@V0@@Z$1
	DD	00H
	DD	FLAT:__unwindfunclet$??$DEGtoRAD@V?$CEncrypt@M@@@@YA?AV?$CEncrypt@M@@V0@@Z$0
__ehfuncinfo$??$DEGtoRAD@V?$CEncrypt@M@@@@YA?AV?$CEncrypt@M@@V0@@Z DD 019930522H
	DD	02H
	DD	FLAT:__unwindtable$??$DEGtoRAD@V?$CEncrypt@M@@@@YA?AV?$CEncrypt@M@@V0@@Z
	DD	2 DUP(00H)
	DD	2 DUP(00H)
	DD	00H
	DD	01H
; Function compile flags: /Ogsp
; File d:\lost saga for developer\youtube\tutorial\source\src\lsclient\veryoftenusedefine.h
xdata$x	ENDS
;	COMDAT ??$DEGtoRAD@V?$CEncrypt@M@@@@YA?AV?$CEncrypt@M@@V0@@Z
_TEXT	SEGMENT
___$ReturnUdt$GSCopy$ = -24				; size = 4
$T540022 = -20						; size = 4
$T540026 = -16						; size = 4
__$EHRec$ = -12						; size = 12
___$ReturnUdt$ = 8					; size = 4
_val$ = 12						; size = 48
??$DEGtoRAD@V?$CEncrypt@M@@@@YA?AV?$CEncrypt@M@@V0@@Z PROC ; DEGtoRAD<CEncrypt<float> >, COMDAT

; 20   : type  DEGtoRAD (type val) {return (type) (val * 0.0174532925199);}

  00000	6a 0c		 push	 12			; 0000000cH
  00002	b8 00 00 00 00	 mov	 eax, __ehhandler$??$DEGtoRAD@V?$CEncrypt@M@@@@YA?AV?$CEncrypt@M@@V0@@Z
  00007	e8 00 00 00 00	 call	 __EH_prolog3
  0000c	8b 7d 08	 mov	 edi, DWORD PTR ___$ReturnUdt$[ebp]
  0000f	83 65 f0 00	 and	 DWORD PTR $T540026[ebp], 0
  00013	89 7d e8	 mov	 DWORD PTR ___$ReturnUdt$GSCopy$[ebp], edi
  00016	6a 04		 push	 4
  00018	8d 45 34	 lea	 eax, DWORD PTR _val$[ebp+40]
  0001b	50		 push	 eax
  0001c	33 f6		 xor	 esi, esi
  0001e	8d 45 28	 lea	 eax, DWORD PTR _val$[ebp+28]
  00021	46		 inc	 esi
  00022	50		 push	 eax
  00023	8d 4d 18	 lea	 ecx, DWORD PTR _val$[ebp+12]
  00026	89 75 fc	 mov	 DWORD PTR __$EHRec$[ebp+8], esi
  00029	e8 00 00 00 00	 call	 ?DecryptByte@ccddaabb@@QBEXPBDPADH@Z ; ccddaabb::DecryptByte
  0002e	f3 0f 10 45 34	 movss	 xmm0, DWORD PTR _val$[ebp+40]
  00033	0f 5a c0	 cvtps2pd xmm0, xmm0
  00036	f2 0f 59 05 00
	00 00 00	 mulsd	 xmm0, QWORD PTR __real@3f91df46a2526c7a
  0003e	8d 45 ec	 lea	 eax, DWORD PTR $T540022[ebp]
  00041	66 0f 5a c0	 cvtpd2ps xmm0, xmm0
  00045	50		 push	 eax
  00046	8b cf		 mov	 ecx, edi
  00048	f3 0f 11 45 ec	 movss	 DWORD PTR $T540022[ebp], xmm0
  0004d	e8 00 00 00 00	 call	 ??0?$CEncrypt@M@@QAE@ABM@Z ; CEncrypt<float>::CEncrypt<float>
  00052	8d 4d 18	 lea	 ecx, DWORD PTR _val$[ebp+12]
  00055	89 75 f0	 mov	 DWORD PTR $T540026[ebp], esi
  00058	c6 45 fc 00	 mov	 BYTE PTR __$EHRec$[ebp+8], 0
  0005c	c7 45 0c 00 00
	00 00		 mov	 DWORD PTR _val$[ebp], OFFSET ??_7?$CEncrypt@M@@6B@
  00063	e8 00 00 00 00	 call	 ??1ccddaabb@@UAE@XZ	; ccddaabb::~ccddaabb
  00068	8b c7		 mov	 eax, edi
  0006a	e8 00 00 00 00	 call	 __EH_epilog3
  0006f	c3		 ret	 0
_TEXT	ENDS
;	COMDAT text$x
text$x	SEGMENT
__unwindfunclet$??$DEGtoRAD@V?$CEncrypt@M@@@@YA?AV?$CEncrypt@M@@V0@@Z$0:
  00000	8d 4d 0c	 lea	 ecx, DWORD PTR _val$[ebp]
  00003	e9 00 00 00 00	 jmp	 ??1?$CEncrypt@M@@UAE@XZ	; CEncrypt<float>::~CEncrypt<float>
__unwindfunclet$??$DEGtoRAD@V?$CEncrypt@M@@@@YA?AV?$CEncrypt@M@@V0@@Z$1:
  00008	8b 45 f0	 mov	 eax, DWORD PTR $T540026[ebp]
  0000b	83 e0 01	 and	 eax, 1
  0000e	0f 84 0c 00 00
	00		 je	 $LN5@DEGtoRAD
  00014	83 65 f0 fe	 and	 DWORD PTR $T540026[ebp], -2 ; fffffffeH
  00018	8b 4d e8	 mov	 ecx, DWORD PTR ___$ReturnUdt$GSCopy$[ebp]
  0001b	e9 00 00 00 00	 jmp	 ??1?$CEncrypt@M@@UAE@XZ	; CEncrypt<float>::~CEncrypt<float>
$LN5@DEGtoRAD:
  00020	c3		 ret	 0
__ehhandler$??$DEGtoRAD@V?$CEncrypt@M@@@@YA?AV?$CEncrypt@M@@V0@@Z:
  00021	8b 54 24 08	 mov	 edx, DWORD PTR [esp+8]
  00025	8d 42 0c	 lea	 eax, DWORD PTR [edx+12]
  00028	8b 4a e4	 mov	 ecx, DWORD PTR [edx-28]
  0002b	33 c8		 xor	 ecx, eax
  0002d	e8 00 00 00 00	 call	 @__security_check_cookie@4
  00032	b8 00 00 00 00	 mov	 eax, OFFSET __ehfuncinfo$??$DEGtoRAD@V?$CEncrypt@M@@@@YA?AV?$CEncrypt@M@@V0@@Z
  00037	e9 00 00 00 00	 jmp	 ___CxxFrameHandler3
text$x	ENDS
??$DEGtoRAD@V?$CEncrypt@M@@@@YA?AV?$CEncrypt@M@@V0@@Z ENDP ; DEGtoRAD<CEncrypt<float> >
PUBLIC	??$_Destroy_range@V?$allocator@UAniRotateInfo@@@std@@@std@@YAXPAUAniRotateInfo@@0AAV?$allocator@UAniRotateInfo@@@0@U_Nonscalar_ptr_iterator_tag@0@@Z ; std::_Destroy_range<std::allocator<AniRotateInfo> >
; Function compile flags: /Ogsp
; File c:\program files (x86)\microsoft visual studio 10.0\vc\include\xmemory
;	COMDAT ??$_Destroy_range@V?$allocator@UAniRotateInfo@@@std@@@std@@YAXPAUAniRotateInfo@@0AAV?$allocator@UAniRotateInfo@@@0@U_Nonscalar_ptr_iterator_tag@0@@Z
_TEXT	SEGMENT
__First$ = 8						; size = 4
__Last$ = 12						; size = 4
__Al$ = 16						; size = 4
___formal$ = 20						; size = 1
??$_Destroy_range@V?$allocator@UAniRotateInfo@@@std@@@std@@YAXPAUAniRotateInfo@@0AAV?$allocator@UAniRotateInfo@@@0@U_Nonscalar_ptr_iterator_tag@0@@Z PROC ; std::_Destroy_range<std::allocator<AniRotateInfo> >, COMDAT

; 96   : 	for (; _First != _Last; ++_First)
; 97   : 		_Dest_val(_Al, _First);
; 98   : 	}

  00000	c3		 ret	 0
??$_Destroy_range@V?$allocator@UAniRotateInfo@@@std@@@std@@YAXPAUAniRotateInfo@@0AAV?$allocator@UAniRotateInfo@@@0@U_Nonscalar_ptr_iterator_tag@0@@Z ENDP ; std::_Destroy_range<std::allocator<AniRotateInfo> >
_TEXT	ENDS
PUBLIC	??$_Uninit_copy@V?$_Vector_const_iterator@V?$_Vector_val@UForceInfo@@V?$allocator@UForceInfo@@@std@@@std@@@std@@PAUForceInfo@@V?$allocator@UForceInfo@@@2@@std@@YAPAUForceInfo@@V?$_Vector_const_iterator@V?$_Vector_val@UForceInfo@@V?$allocator@UForceInfo@@@std@@@std@@@0@0PAU1@AAV?$allocator@UForceInfo@@@0@U_Nonscalar_ptr_iterator_tag@0@@Z ; std::_Uninit_copy<std::_Vector_const_iterator<std::_Vector_val<ForceInfo,std::allocator<ForceInfo> > >,ForceInfo *,std::allocator<ForceInfo> >
; Function compile flags: /Ogsp
; File c:\program files (x86)\microsoft visual studio 10.0\vc\include\memory
;	COMDAT ??$_Uninit_copy@V?$_Vector_const_iterator@V?$_Vector_val@UForceInfo@@V?$allocator@UForceInfo@@@std@@@std@@@std@@PAUForceInfo@@V?$allocator@UForceInfo@@@2@@std@@YAPAUForceInfo@@V?$_Vector_const_iterator@V?$_Vector_val@UForceInfo@@V?$allocator@UForceInfo@@@std@@@std@@@0@0PAU1@AAV?$allocator@UForceInfo@@@0@U_Nonscalar_ptr_iterator_tag@0@@Z
_TEXT	SEGMENT
__First$ = 8						; size = 4
__Last$ = 12						; size = 4
__Dest$ = 16						; size = 4
__Al$ = 20						; size = 4
___formal$ = 24						; size = 1
??$_Uninit_copy@V?$_Vector_const_iterator@V?$_Vector_val@UForceInfo@@V?$allocator@UForceInfo@@@std@@@std@@@std@@PAUForceInfo@@V?$allocator@UForceInfo@@@2@@std@@YAPAUForceInfo@@V?$_Vector_const_iterator@V?$_Vector_val@UForceInfo@@V?$allocator@UForceInfo@@@std@@@std@@@0@0PAU1@AAV?$allocator@UForceInfo@@@0@U_Nonscalar_ptr_iterator_tag@0@@Z PROC ; std::_Uninit_copy<std::_Vector_const_iterator<std::_Vector_val<ForceInfo,std::allocator<ForceInfo> > >,ForceInfo *,std::allocator<ForceInfo> >, COMDAT

; 369  : 	{	// copy [_First, _Last) to raw _Dest, using _Al, arbitrary type

  00000	55		 push	 ebp
  00001	8b ec		 mov	 ebp, esp

; 370  : 	_DEBUG_RANGE(_First, _Last);
; 371  : 	_DEBUG_POINTER(_Dest);
; 372  : 	_FwdIt _Next = _Dest;
; 373  : 
; 374  : 	_TRY_BEGIN
; 375  : 	for (; _First != _Last; ++_Dest, ++_First)

  00003	eb 19		 jmp	 SHORT $LN35@Uninit_cop
$LL14@Uninit_cop:

; 376  : 		_Cons_val(_Al, _Dest, *_First);

  00005	ff 75 08	 push	 DWORD PTR __First$[ebp]
  00008	ff 75 10	 push	 DWORD PTR __Dest$[ebp]
  0000b	ff 75 14	 push	 DWORD PTR __Al$[ebp]
  0000e	e8 00 00 00 00	 call	 ??$_Cons_val@V?$allocator@UForceInfo@@@std@@UForceInfo@@ABU3@@std@@YAXAAV?$allocator@UForceInfo@@@0@PAUForceInfo@@ABU2@@Z ; std::_Cons_val<std::allocator<ForceInfo>,ForceInfo,ForceInfo const &>
  00013	83 45 10 0c	 add	 DWORD PTR __Dest$[ebp], 12 ; 0000000cH
  00017	83 c4 0c	 add	 esp, 12			; 0000000cH
  0001a	83 45 08 0c	 add	 DWORD PTR __First$[ebp], 12 ; 0000000cH
$LN35@Uninit_cop:

; 370  : 	_DEBUG_RANGE(_First, _Last);
; 371  : 	_DEBUG_POINTER(_Dest);
; 372  : 	_FwdIt _Next = _Dest;
; 373  : 
; 374  : 	_TRY_BEGIN
; 375  : 	for (; _First != _Last; ++_Dest, ++_First)

  0001e	8b 45 08	 mov	 eax, DWORD PTR __First$[ebp]
  00021	3b 45 0c	 cmp	 eax, DWORD PTR __Last$[ebp]
  00024	75 df		 jne	 SHORT $LL14@Uninit_cop

; 377  : 	_CATCH_ALL
; 378  : 	for (; _Next != _Dest; ++_Next)
; 379  : 		_Dest_val(_Al, _Next);
; 380  : 	_RERAISE;
; 381  : 	_CATCH_END
; 382  : 	return (_Dest);

  00026	8b 45 10	 mov	 eax, DWORD PTR __Dest$[ebp]

; 383  : 	}

  00029	5d		 pop	 ebp
  0002a	c3		 ret	 0
??$_Uninit_copy@V?$_Vector_const_iterator@V?$_Vector_val@UForceInfo@@V?$allocator@UForceInfo@@@std@@@std@@@std@@PAUForceInfo@@V?$allocator@UForceInfo@@@2@@std@@YAPAUForceInfo@@V?$_Vector_const_iterator@V?$_Vector_val@UForceInfo@@V?$allocator@UForceInfo@@@std@@@std@@@0@0PAU1@AAV?$allocator@UForceInfo@@@0@U_Nonscalar_ptr_iterator_tag@0@@Z ENDP ; std::_Uninit_copy<std::_Vector_const_iterator<std::_Vector_val<ForceInfo,std::allocator<ForceInfo> > >,ForceInfo *,std::allocator<ForceInfo> >
_TEXT	ENDS
PUBLIC	??$_Uninit_move@PAUAniRotateInfo@@PAU1@V?$allocator@UAniRotateInfo@@@std@@U1@@std@@YAPAUAniRotateInfo@@PAU1@00AAV?$allocator@UAniRotateInfo@@@0@0U_Nonscalar_ptr_iterator_tag@0@@Z ; std::_Uninit_move<AniRotateInfo *,AniRotateInfo *,std::allocator<AniRotateInfo>,AniRotateInfo>
; Function compile flags: /Ogsp
;	COMDAT ??$_Uninit_move@PAUAniRotateInfo@@PAU1@V?$allocator@UAniRotateInfo@@@std@@U1@@std@@YAPAUAniRotateInfo@@PAU1@00AAV?$allocator@UAniRotateInfo@@@0@0U_Nonscalar_ptr_iterator_tag@0@@Z
_TEXT	SEGMENT
__First$ = 8						; size = 4
__Last$ = 12						; size = 4
__Dest$ = 16						; size = 4
__Al$ = 20						; size = 4
___formal$ = 24						; size = 4
___formal$ = 28						; size = 1
??$_Uninit_move@PAUAniRotateInfo@@PAU1@V?$allocator@UAniRotateInfo@@@std@@U1@@std@@YAPAUAniRotateInfo@@PAU1@00AAV?$allocator@UAniRotateInfo@@@0@0U_Nonscalar_ptr_iterator_tag@0@@Z PROC ; std::_Uninit_move<AniRotateInfo *,AniRotateInfo *,std::allocator<AniRotateInfo>,AniRotateInfo>, COMDAT

; 424  : 	{	// move [_First, _Last) to raw _Dest, using _Al, arbitrary type

  00000	55		 push	 ebp
  00001	8b ec		 mov	 ebp, esp
  00003	56		 push	 esi

; 425  : 	_DEBUG_RANGE(_First, _Last);
; 426  : 	_DEBUG_POINTER(_Dest);
; 427  : 	_FwdIt _Next = _Dest;
; 428  : 
; 429  : 	_TRY_BEGIN
; 430  : 	for (; _First != _Last; ++_Dest, ++_First)

  00004	8b 75 08	 mov	 esi, DWORD PTR __First$[ebp]
  00007	eb 16		 jmp	 SHORT $LN24@Uninit_mov
$LL6@Uninit_mov:

; 431  : 		_Cons_val(_Al, _Dest, (_Valty &&)*_First);

  00009	56		 push	 esi
  0000a	ff 75 10	 push	 DWORD PTR __Dest$[ebp]
  0000d	ff 75 14	 push	 DWORD PTR __Al$[ebp]
  00010	e8 00 00 00 00	 call	 ??$_Cons_val@V?$allocator@UAniRotateInfo@@@std@@UAniRotateInfo@@U3@@std@@YAXAAV?$allocator@UAniRotateInfo@@@0@PAUAniRotateInfo@@$$QAU2@@Z ; std::_Cons_val<std::allocator<AniRotateInfo>,AniRotateInfo,AniRotateInfo>
  00015	83 45 10 08	 add	 DWORD PTR __Dest$[ebp], 8
  00019	83 c4 0c	 add	 esp, 12			; 0000000cH
  0001c	83 c6 08	 add	 esi, 8
$LN24@Uninit_mov:

; 425  : 	_DEBUG_RANGE(_First, _Last);
; 426  : 	_DEBUG_POINTER(_Dest);
; 427  : 	_FwdIt _Next = _Dest;
; 428  : 
; 429  : 	_TRY_BEGIN
; 430  : 	for (; _First != _Last; ++_Dest, ++_First)

  0001f	3b 75 0c	 cmp	 esi, DWORD PTR __Last$[ebp]
  00022	75 e5		 jne	 SHORT $LL6@Uninit_mov

; 432  : 	_CATCH_ALL
; 433  : 	for (; _Next != _Dest; ++_Next)
; 434  : 		_Dest_val(_Al, _Next);
; 435  : 	_RERAISE;
; 436  : 	_CATCH_END
; 437  : 	return (_Dest);

  00024	8b 45 10	 mov	 eax, DWORD PTR __Dest$[ebp]
  00027	5e		 pop	 esi

; 438  : 	}

  00028	5d		 pop	 ebp
  00029	c3		 ret	 0
??$_Uninit_move@PAUAniRotateInfo@@PAU1@V?$allocator@UAniRotateInfo@@@std@@U1@@std@@YAPAUAniRotateInfo@@PAU1@00AAV?$allocator@UAniRotateInfo@@@0@0U_Nonscalar_ptr_iterator_tag@0@@Z ENDP ; std::_Uninit_move<AniRotateInfo *,AniRotateInfo *,std::allocator<AniRotateInfo>,AniRotateInfo>
_TEXT	ENDS
PUBLIC	??$_Cons_val@V?$allocator@UWeaponInfo@@@std@@UWeaponInfo@@ABU3@@std@@YAXAAV?$allocator@UWeaponInfo@@@0@PAUWeaponInfo@@ABU2@@Z ; std::_Cons_val<std::allocator<WeaponInfo>,WeaponInfo,WeaponInfo const &>
; Function compile flags: /Ogsp
; File c:\program files (x86)\microsoft visual studio 10.0\vc\include\xmemory
;	COMDAT ??$_Cons_val@V?$allocator@UWeaponInfo@@@std@@UWeaponInfo@@ABU3@@std@@YAXAAV?$allocator@UWeaponInfo@@@0@PAUWeaponInfo@@ABU2@@Z
_TEXT	SEGMENT
__Alval$ = 8						; size = 4
__Pdest$ = 12						; size = 4
__Src$ = 16						; size = 4
??$_Cons_val@V?$allocator@UWeaponInfo@@@std@@UWeaponInfo@@ABU3@@std@@YAXAAV?$allocator@UWeaponInfo@@@0@PAUWeaponInfo@@ABU2@@Z PROC ; std::_Cons_val<std::allocator<WeaponInfo>,WeaponInfo,WeaponInfo const &>, COMDAT

; 279  : 	{	// construct using allocator

  00000	55		 push	 ebp
  00001	8b ec		 mov	 ebp, esp

; 280  : 	_Alval.construct(_Pdest, _STD forward<_Ty2>(_Src));

  00003	ff 75 10	 push	 DWORD PTR __Src$[ebp]
  00006	ff 75 0c	 push	 DWORD PTR __Pdest$[ebp]
  00009	e8 00 00 00 00	 call	 ??$_Construct@UWeaponInfo@@ABU1@@std@@YAXPAUWeaponInfo@@ABU1@@Z ; std::_Construct<WeaponInfo,WeaponInfo const &>
  0000e	59		 pop	 ecx
  0000f	59		 pop	 ecx

; 281  : 	}

  00010	5d		 pop	 ebp
  00011	c3		 ret	 0
??$_Cons_val@V?$allocator@UWeaponInfo@@@std@@UWeaponInfo@@ABU3@@std@@YAXAAV?$allocator@UWeaponInfo@@@0@PAUWeaponInfo@@ABU2@@Z ENDP ; std::_Cons_val<std::allocator<WeaponInfo>,WeaponInfo,WeaponInfo const &>
_TEXT	ENDS
PUBLIC	??1?$basic_string@DU?$char_traits@D@std@@V?$allocator@D@2@@std@@QAE@XZ ; std::basic_string<char,std::char_traits<char>,std::allocator<char> >::~basic_string<char,std::char_traits<char>,std::allocator<char> >
; Function compile flags: /Ogsp
; File c:\program files (x86)\microsoft visual studio 10.0\vc\include\xstring
;	COMDAT ??1?$basic_string@DU?$char_traits@D@std@@V?$allocator@D@2@@std@@QAE@XZ
_TEXT	SEGMENT
??1?$basic_string@DU?$char_traits@D@std@@V?$allocator@D@2@@std@@QAE@XZ PROC ; std::basic_string<char,std::char_traits<char>,std::allocator<char> >::~basic_string<char,std::char_traits<char>,std::allocator<char> >, COMDAT
; _this$ = ecx

; 754  : 		_Tidy(true);

  00000	6a 00		 push	 0
  00002	6a 01		 push	 1
  00004	e8 00 00 00 00	 call	 ?_Tidy@?$basic_string@DU?$char_traits@D@std@@V?$allocator@D@2@@std@@QAEX_NI@Z ; std::basic_string<char,std::char_traits<char>,std::allocator<char> >::_Tidy

; 755  : 		}

  00009	c3		 ret	 0
??1?$basic_string@DU?$char_traits@D@std@@V?$allocator@D@2@@std@@QAE@XZ ENDP ; std::basic_string<char,std::char_traits<char>,std::allocator<char> >::~basic_string<char,std::char_traits<char>,std::allocator<char> >
_TEXT	ENDS
PUBLIC	?_Grow@?$basic_string@DU?$char_traits@D@std@@V?$allocator@D@2@@std@@QAE_NI_N@Z ; std::basic_string<char,std::char_traits<char>,std::allocator<char> >::_Grow
; Function compile flags: /Ogsp
;	COMDAT ?_Grow@?$basic_string@DU?$char_traits@D@std@@V?$allocator@D@2@@std@@QAE_NI_N@Z
_TEXT	SEGMENT
__Newsize$ = 8						; size = 4
__Trim$ = 12						; size = 1
?_Grow@?$basic_string@DU?$char_traits@D@std@@V?$allocator@D@2@@std@@QAE_NI_N@Z PROC ; std::basic_string<char,std::char_traits<char>,std::allocator<char> >::_Grow, COMDAT
; _this$ = ecx

; 1959 : 		{	// ensure buffer is big enough, trim to size if _Trim is true

  00000	55		 push	 ebp
  00001	8b ec		 mov	 ebp, esp
  00003	56		 push	 esi

; 1960 : 		if (max_size() < _Newsize)

  00004	8b 75 08	 mov	 esi, DWORD PTR __Newsize$[ebp]
  00007	83 fe fe	 cmp	 esi, -2			; fffffffeH
  0000a	76 0b		 jbe	 SHORT $LN6@Grow

; 1961 : 			_Xlen();	// result too long

  0000c	68 00 00 00 00	 push	 OFFSET ??_C@_0BA@JFNIOLAK@string?5too?5long?$AA@
  00011	ff 15 00 00 00
	00		 call	 DWORD PTR __imp_?_Xlength_error@std@@YAXPBD@Z
$LN31@Grow:
$LN6@Grow:

; 1962 : 		if (this->_Myres < _Newsize)

  00017	8b 41 14	 mov	 eax, DWORD PTR [ecx+20]
  0001a	3b c6		 cmp	 eax, esi
  0001c	73 0b		 jae	 SHORT $LN5@Grow

; 1963 : 			_Copy(_Newsize, this->_Mysize);	// reallocate to grow

  0001e	ff 71 10	 push	 DWORD PTR [ecx+16]
  00021	56		 push	 esi
  00022	e8 00 00 00 00	 call	 ?_Copy@?$basic_string@DU?$char_traits@D@std@@V?$allocator@D@2@@std@@QAEXII@Z ; std::basic_string<char,std::char_traits<char>,std::allocator<char> >::_Copy
  00027	eb 2e		 jmp	 SHORT $LN28@Grow
$LN5@Grow:

; 1964 : 		else if (_Trim && _Newsize < this->_BUF_SIZE)

  00029	33 d2		 xor	 edx, edx
  0002b	38 55 0c	 cmp	 BYTE PTR __Trim$[ebp], dl
  0002e	74 17		 je	 SHORT $LN3@Grow
  00030	83 fe 10	 cmp	 esi, 16			; 00000010H
  00033	73 12		 jae	 SHORT $LN3@Grow

; 1965 : 			_Tidy(true,	// copy and deallocate if trimming to small string
; 1966 : 				_Newsize < this->_Mysize ? _Newsize : this->_Mysize);

  00035	8b 41 10	 mov	 eax, DWORD PTR [ecx+16]
  00038	3b f0		 cmp	 esi, eax
  0003a	0f 42 c6	 cmovb	 eax, esi
  0003d	50		 push	 eax
  0003e	6a 01		 push	 1
  00040	e8 00 00 00 00	 call	 ?_Tidy@?$basic_string@DU?$char_traits@D@std@@V?$allocator@D@2@@std@@QAEX_NI@Z ; std::basic_string<char,std::char_traits<char>,std::allocator<char> >::_Tidy
  00045	eb 10		 jmp	 SHORT $LN28@Grow
$LN3@Grow:

; 1967 : 		else if (_Newsize == 0)

  00047	3b f2		 cmp	 esi, edx
  00049	75 0c		 jne	 SHORT $LN28@Grow

; 1968 : 			_Eos(0);	// new size is zero, just null terminate

  0004b	89 51 10	 mov	 DWORD PTR [ecx+16], edx
  0004e	83 f8 10	 cmp	 eax, 16			; 00000010H
  00051	72 02		 jb	 SHORT $LN26@Grow
  00053	8b 09		 mov	 ecx, DWORD PTR [ecx]
$LN26@Grow:
  00055	88 11		 mov	 BYTE PTR [ecx], dl
$LN28@Grow:

; 1969 : 		return (0 < _Newsize);	// return true only if more work to do

  00057	33 c0		 xor	 eax, eax
  00059	3b c6		 cmp	 eax, esi
  0005b	1b c0		 sbb	 eax, eax
  0005d	f7 d8		 neg	 eax
  0005f	5e		 pop	 esi

; 1970 : 		}

  00060	5d		 pop	 ebp
  00061	c2 08 00	 ret	 8
$LN30@Grow:
?_Grow@?$basic_string@DU?$char_traits@D@std@@V?$allocator@D@2@@std@@QAE_NI_N@Z ENDP ; std::basic_string<char,std::char_traits<char>,std::allocator<char> >::_Grow
_TEXT	ENDS
PUBLIC	??$_Destroy_range@V?$allocator@UForceInfo@@@std@@@std@@YAXPAUForceInfo@@0AAV?$allocator@UForceInfo@@@0@U_Nonscalar_ptr_iterator_tag@0@@Z ; std::_Destroy_range<std::allocator<ForceInfo> >
; Function compile flags: /Ogsp
; File c:\program files (x86)\microsoft visual studio 10.0\vc\include\xmemory
;	COMDAT ??$_Destroy_range@V?$allocator@UForceInfo@@@std@@@std@@YAXPAUForceInfo@@0AAV?$allocator@UForceInfo@@@0@U_Nonscalar_ptr_iterator_tag@0@@Z
_TEXT	SEGMENT
__First$ = 8						; size = 4
__Last$ = 12						; size = 4
__Al$ = 16						; size = 4
___formal$ = 20						; size = 1
??$_Destroy_range@V?$allocator@UForceInfo@@@std@@@std@@YAXPAUForceInfo@@0AAV?$allocator@UForceInfo@@@0@U_Nonscalar_ptr_iterator_tag@0@@Z PROC ; std::_Destroy_range<std::allocator<ForceInfo> >, COMDAT

; 96   : 	for (; _First != _Last; ++_First)
; 97   : 		_Dest_val(_Al, _First);
; 98   : 	}

  00000	c3		 ret	 0
??$_Destroy_range@V?$allocator@UForceInfo@@@std@@@std@@YAXPAUForceInfo@@0AAV?$allocator@UForceInfo@@@0@U_Nonscalar_ptr_iterator_tag@0@@Z ENDP ; std::_Destroy_range<std::allocator<ForceInfo> >
_TEXT	ENDS
PUBLIC	??$_Dest_val@V?$allocator@UWeaponInfo@@@std@@UWeaponInfo@@@std@@YAXAAV?$allocator@UWeaponInfo@@@0@PAUWeaponInfo@@@Z ; std::_Dest_val<std::allocator<WeaponInfo>,WeaponInfo>
; Function compile flags: /Ogsp
;	COMDAT ??$_Dest_val@V?$allocator@UWeaponInfo@@@std@@UWeaponInfo@@@std@@YAXAAV?$allocator@UWeaponInfo@@@0@PAUWeaponInfo@@@Z
_TEXT	SEGMENT
__Alval$ = 8						; size = 4
__Pdest$ = 12						; size = 4
??$_Dest_val@V?$allocator@UWeaponInfo@@@std@@UWeaponInfo@@@std@@YAXAAV?$allocator@UWeaponInfo@@@0@PAUWeaponInfo@@@Z PROC ; std::_Dest_val<std::allocator<WeaponInfo>,WeaponInfo>, COMDAT

; 286  : 	{	// destroy using allocator

  00000	55		 push	 ebp
  00001	8b ec		 mov	 ebp, esp

; 287  : 	_Alval.destroy(_Pdest);

  00003	8b 4d 0c	 mov	 ecx, DWORD PTR __Pdest$[ebp]
  00006	83 c1 08	 add	 ecx, 8

; 288  : 	}

  00009	5d		 pop	 ebp

; 287  : 	_Alval.destroy(_Pdest);

  0000a	ff 25 00 00 00
	00		 jmp	 DWORD PTR __imp_??1ioHashString@@QAE@XZ
??$_Dest_val@V?$allocator@UWeaponInfo@@@std@@UWeaponInfo@@@std@@YAXAAV?$allocator@UWeaponInfo@@@0@PAUWeaponInfo@@@Z ENDP ; std::_Dest_val<std::allocator<WeaponInfo>,WeaponInfo>
_TEXT	ENDS
PUBLIC	??1?$vector@PBUAniEventTime@@V?$allocator@PBUAniEventTime@@@std@@@std@@QAE@XZ ; std::vector<AniEventTime const *,std::allocator<AniEventTime const *> >::~vector<AniEventTime const *,std::allocator<AniEventTime const *> >
; Function compile flags: /Ogsp
; File c:\program files (x86)\microsoft visual studio 10.0\vc\include\vector
;	COMDAT ??1?$vector@PBUAniEventTime@@V?$allocator@PBUAniEventTime@@@std@@@std@@QAE@XZ
_TEXT	SEGMENT
??1?$vector@PBUAniEventTime@@V?$allocator@PBUAniEventTime@@@std@@@std@@QAE@XZ PROC ; std::vector<AniEventTime const *,std::allocator<AniEventTime const *> >::~vector<AniEventTime const *,std::allocator<AniEventTime const *> >, COMDAT
; _this$ = ecx

; 705  : 		_Tidy();

  00000	e9 00 00 00 00	 jmp	 ?_Tidy@?$vector@PBUAniEventTime@@V?$allocator@PBUAniEventTime@@@std@@@std@@IAEXXZ ; std::vector<AniEventTime const *,std::allocator<AniEventTime const *> >::_Tidy
??1?$vector@PBUAniEventTime@@V?$allocator@PBUAniEventTime@@@std@@@std@@QAE@XZ ENDP ; std::vector<AniEventTime const *,std::allocator<AniEventTime const *> >::~vector<AniEventTime const *,std::allocator<AniEventTime const *> >
_TEXT	ENDS
PUBLIC	??$_Destroy_range@V?$allocator@UAniRotateInfo@@@std@@@std@@YAXPAUAniRotateInfo@@0AAV?$allocator@UAniRotateInfo@@@0@@Z ; std::_Destroy_range<std::allocator<AniRotateInfo> >
; Function compile flags: /Ogsp
; File c:\program files (x86)\microsoft visual studio 10.0\vc\include\xmemory
;	COMDAT ??$_Destroy_range@V?$allocator@UAniRotateInfo@@@std@@@std@@YAXPAUAniRotateInfo@@0AAV?$allocator@UAniRotateInfo@@@0@@Z
_TEXT	SEGMENT
__First$ = 8						; size = 4
__Last$ = 12						; size = 4
__Al$ = 16						; size = 4
??$_Destroy_range@V?$allocator@UAniRotateInfo@@@std@@@std@@YAXPAUAniRotateInfo@@0AAV?$allocator@UAniRotateInfo@@@0@@Z PROC ; std::_Destroy_range<std::allocator<AniRotateInfo> >, COMDAT

; 88   : 	_Destroy_range(_First, _Last, _Al, _Ptr_cat(_First, _Last));
; 89   : 	}

  00000	c3		 ret	 0
??$_Destroy_range@V?$allocator@UAniRotateInfo@@@std@@@std@@YAXPAUAniRotateInfo@@0AAV?$allocator@UAniRotateInfo@@@0@@Z ENDP ; std::_Destroy_range<std::allocator<AniRotateInfo> >
_TEXT	ENDS
PUBLIC	??$_Uninitialized_copy@V?$_Vector_const_iterator@V?$_Vector_val@UForceInfo@@V?$allocator@UForceInfo@@@std@@@std@@@std@@PAUForceInfo@@V?$allocator@UForceInfo@@@2@@std@@YAPAUForceInfo@@V?$_Vector_const_iterator@V?$_Vector_val@UForceInfo@@V?$allocator@UForceInfo@@@std@@@std@@@0@0PAU1@AAV?$allocator@UForceInfo@@@0@@Z ; std::_Uninitialized_copy<std::_Vector_const_iterator<std::_Vector_val<ForceInfo,std::allocator<ForceInfo> > >,ForceInfo *,std::allocator<ForceInfo> >
; Function compile flags: /Ogsp
; File c:\program files (x86)\microsoft visual studio 10.0\vc\include\memory
;	COMDAT ??$_Uninitialized_copy@V?$_Vector_const_iterator@V?$_Vector_val@UForceInfo@@V?$allocator@UForceInfo@@@std@@@std@@@std@@PAUForceInfo@@V?$allocator@UForceInfo@@@2@@std@@YAPAUForceInfo@@V?$_Vector_const_iterator@V?$_Vector_val@UForceInfo@@V?$allocator@UForceInfo@@@std@@@std@@@0@0PAU1@AAV?$allocator@UForceInfo@@@0@@Z
_TEXT	SEGMENT
__Cat$540313 = -4					; size = 1
__First$ = 8						; size = 4
__Last$ = 12						; size = 4
__Dest$ = 16						; size = 4
__Al$ = 20						; size = 4
??$_Uninitialized_copy@V?$_Vector_const_iterator@V?$_Vector_val@UForceInfo@@V?$allocator@UForceInfo@@@std@@@std@@@std@@PAUForceInfo@@V?$allocator@UForceInfo@@@2@@std@@YAPAUForceInfo@@V?$_Vector_const_iterator@V?$_Vector_val@UForceInfo@@V?$allocator@UForceInfo@@@std@@@std@@@0@0PAU1@AAV?$allocator@UForceInfo@@@0@@Z PROC ; std::_Uninitialized_copy<std::_Vector_const_iterator<std::_Vector_val<ForceInfo,std::allocator<ForceInfo> > >,ForceInfo *,std::allocator<ForceInfo> >, COMDAT

; 412  : 	{	// copy [_First, _Last) to raw _Dest, using _Al

  00000	55		 push	 ebp
  00001	8b ec		 mov	 ebp, esp
  00003	51		 push	 ecx

; 413  : 	return (_Uninit_copy(_First, _Last, _Dest, _Al,
; 414  : 		_Ptr_cat(_First, _Dest)));

  00004	ff 75 fc	 push	 DWORD PTR __Cat$540313[ebp]
  00007	ff 75 14	 push	 DWORD PTR __Al$[ebp]
  0000a	ff 75 10	 push	 DWORD PTR __Dest$[ebp]
  0000d	ff 75 0c	 push	 DWORD PTR __Last$[ebp]
  00010	ff 75 08	 push	 DWORD PTR __First$[ebp]
  00013	e8 00 00 00 00	 call	 ??$_Uninit_copy@V?$_Vector_const_iterator@V?$_Vector_val@UForceInfo@@V?$allocator@UForceInfo@@@std@@@std@@@std@@PAUForceInfo@@V?$allocator@UForceInfo@@@2@@std@@YAPAUForceInfo@@V?$_Vector_const_iterator@V?$_Vector_val@UForceInfo@@V?$allocator@UForceInfo@@@std@@@std@@@0@0PAU1@AAV?$allocator@UForceInfo@@@0@U_Nonscalar_ptr_iterator_tag@0@@Z ; std::_Uninit_copy<std::_Vector_const_iterator<std::_Vector_val<ForceInfo,std::allocator<ForceInfo> > >,ForceInfo *,std::allocator<ForceInfo> >
  00018	83 c4 14	 add	 esp, 20			; 00000014H

; 415  : 	}

  0001b	c9		 leave
  0001c	c3		 ret	 0
??$_Uninitialized_copy@V?$_Vector_const_iterator@V?$_Vector_val@UForceInfo@@V?$allocator@UForceInfo@@@std@@@std@@@std@@PAUForceInfo@@V?$allocator@UForceInfo@@@2@@std@@YAPAUForceInfo@@V?$_Vector_const_iterator@V?$_Vector_val@UForceInfo@@V?$allocator@UForceInfo@@@std@@@std@@@0@0PAU1@AAV?$allocator@UForceInfo@@@0@@Z ENDP ; std::_Uninitialized_copy<std::_Vector_const_iterator<std::_Vector_val<ForceInfo,std::allocator<ForceInfo> > >,ForceInfo *,std::allocator<ForceInfo> >
_TEXT	ENDS
PUBLIC	??$_Uninitialized_move@PAUAniRotateInfo@@PAU1@V?$allocator@UAniRotateInfo@@@std@@@std@@YAPAUAniRotateInfo@@PAU1@00AAV?$allocator@UAniRotateInfo@@@0@@Z ; std::_Uninitialized_move<AniRotateInfo *,AniRotateInfo *,std::allocator<AniRotateInfo> >
; Function compile flags: /Ogsp
;	COMDAT ??$_Uninitialized_move@PAUAniRotateInfo@@PAU1@V?$allocator@UAniRotateInfo@@@std@@@std@@YAPAUAniRotateInfo@@PAU1@00AAV?$allocator@UAniRotateInfo@@@0@@Z
_TEXT	SEGMENT
__Cat$540320 = -4					; size = 1
__First$ = 8						; size = 4
__Last$ = 12						; size = 4
__Dest$ = 16						; size = 4
__Al$ = 20						; size = 4
??$_Uninitialized_move@PAUAniRotateInfo@@PAU1@V?$allocator@UAniRotateInfo@@@std@@@std@@YAPAUAniRotateInfo@@PAU1@00AAV?$allocator@UAniRotateInfo@@@0@@Z PROC ; std::_Uninitialized_move<AniRotateInfo *,AniRotateInfo *,std::allocator<AniRotateInfo> >, COMDAT

; 469  : 	{	// move [_First, _Last) to raw _Dest, using _Al

  00000	55		 push	 ebp
  00001	8b ec		 mov	 ebp, esp
  00003	51		 push	 ecx

; 470  : 	return (_Uninit_move(_First, _Last, _Dest, _Al,
; 471  : 		_Val_type(_First), _Ptr_cat(_First, _Dest)));

  00004	ff 75 fc	 push	 DWORD PTR __Cat$540320[ebp]
  00007	6a 00		 push	 0
  00009	ff 75 14	 push	 DWORD PTR __Al$[ebp]
  0000c	ff 75 10	 push	 DWORD PTR __Dest$[ebp]
  0000f	ff 75 0c	 push	 DWORD PTR __Last$[ebp]
  00012	ff 75 08	 push	 DWORD PTR __First$[ebp]
  00015	e8 00 00 00 00	 call	 ??$_Uninit_move@PAUAniRotateInfo@@PAU1@V?$allocator@UAniRotateInfo@@@std@@U1@@std@@YAPAUAniRotateInfo@@PAU1@00AAV?$allocator@UAniRotateInfo@@@0@0U_Nonscalar_ptr_iterator_tag@0@@Z ; std::_Uninit_move<AniRotateInfo *,AniRotateInfo *,std::allocator<AniRotateInfo>,AniRotateInfo>
  0001a	83 c4 18	 add	 esp, 24			; 00000018H

; 472  : 	}

  0001d	c9		 leave
  0001e	c3		 ret	 0
??$_Uninitialized_move@PAUAniRotateInfo@@PAU1@V?$allocator@UAniRotateInfo@@@std@@@std@@YAPAUAniRotateInfo@@PAU1@00AAV?$allocator@UAniRotateInfo@@@0@@Z ENDP ; std::_Uninitialized_move<AniRotateInfo *,AniRotateInfo *,std::allocator<AniRotateInfo> >
_TEXT	ENDS
PUBLIC	??$_Uninit_copy@V?$_Vector_const_iterator@V?$_Vector_val@UWeaponInfo@@V?$allocator@UWeaponInfo@@@std@@@std@@@std@@PAUWeaponInfo@@V?$allocator@UWeaponInfo@@@2@@std@@YAPAUWeaponInfo@@V?$_Vector_const_iterator@V?$_Vector_val@UWeaponInfo@@V?$allocator@UWeaponInfo@@@std@@@std@@@0@0PAU1@AAV?$allocator@UWeaponInfo@@@0@U_Nonscalar_ptr_iterator_tag@0@@Z ; std::_Uninit_copy<std::_Vector_const_iterator<std::_Vector_val<WeaponInfo,std::allocator<WeaponInfo> > >,WeaponInfo *,std::allocator<WeaponInfo> >
;	COMDAT xdata$x
; File d:\lost saga for developer\youtube\tutorial\source\src\lsclient\playentityhelpstruct.h
xdata$x	SEGMENT
__catchsym$??$_Uninit_copy@V?$_Vector_const_iterator@V?$_Vector_val@UWeaponInfo@@V?$allocator@UWeaponInfo@@@std@@@std@@@std@@PAUWeaponInfo@@V?$allocator@UWeaponInfo@@@2@@std@@YAPAUWeaponInfo@@V?$_Vector_const_iterator@V?$_Vector_val@UWeaponInfo@@V?$allocator@UWeaponInfo@@@std@@@std@@@0@0PAU1@AAV?$allocator@UWeaponInfo@@@0@U_Nonscalar_ptr_iterator_tag@0@@Z$3 DD 040H
	DD	00H
	DD	00H
	DD	FLAT:__catch$??$_Uninit_copy@V?$_Vector_const_iterator@V?$_Vector_val@UWeaponInfo@@V?$allocator@UWeaponInfo@@@std@@@std@@@std@@PAUWeaponInfo@@V?$allocator@UWeaponInfo@@@2@@std@@YAPAUWeaponInfo@@V?$_Vector_const_iterator@V?$_Vector_val@UWeaponInfo@@V?$allocator@UWeaponInfo@@@std@@@std@@@0@0PAU1@AAV?$allocator@UWeaponInfo@@@0@U_Nonscalar_ptr_iterator_tag@0@@Z$0
__unwindtable$??$_Uninit_copy@V?$_Vector_const_iterator@V?$_Vector_val@UWeaponInfo@@V?$allocator@UWeaponInfo@@@std@@@std@@@std@@PAUWeaponInfo@@V?$allocator@UWeaponInfo@@@2@@std@@YAPAUWeaponInfo@@V?$_Vector_const_iterator@V?$_Vector_val@UWeaponInfo@@V?$allocator@UWeaponInfo@@@std@@@std@@@0@0PAU1@AAV?$allocator@UWeaponInfo@@@0@U_Nonscalar_ptr_iterator_tag@0@@Z DD 0ffffffffH
	DD	00H
	DD	0ffffffffH
	DD	00H
__tryblocktable$??$_Uninit_copy@V?$_Vector_const_iterator@V?$_Vector_val@UWeaponInfo@@V?$allocator@UWeaponInfo@@@std@@@std@@@std@@PAUWeaponInfo@@V?$allocator@UWeaponInfo@@@2@@std@@YAPAUWeaponInfo@@V?$_Vector_const_iterator@V?$_Vector_val@UWeaponInfo@@V?$allocator@UWeaponInfo@@@std@@@std@@@0@0PAU1@AAV?$allocator@UWeaponInfo@@@0@U_Nonscalar_ptr_iterator_tag@0@@Z DD 00H
	DD	00H
	DD	01H
	DD	01H
	DD	FLAT:__catchsym$??$_Uninit_copy@V?$_Vector_const_iterator@V?$_Vector_val@UWeaponInfo@@V?$allocator@UWeaponInfo@@@std@@@std@@@std@@PAUWeaponInfo@@V?$allocator@UWeaponInfo@@@2@@std@@YAPAUWeaponInfo@@V?$_Vector_const_iterator@V?$_Vector_val@UWeaponInfo@@V?$allocator@UWeaponInfo@@@std@@@std@@@0@0PAU1@AAV?$allocator@UWeaponInfo@@@0@U_Nonscalar_ptr_iterator_tag@0@@Z$3
__ehfuncinfo$??$_Uninit_copy@V?$_Vector_const_iterator@V?$_Vector_val@UWeaponInfo@@V?$allocator@UWeaponInfo@@@std@@@std@@@std@@PAUWeaponInfo@@V?$allocator@UWeaponInfo@@@2@@std@@YAPAUWeaponInfo@@V?$_Vector_const_iterator@V?$_Vector_val@UWeaponInfo@@V?$allocator@UWeaponInfo@@@std@@@std@@@0@0PAU1@AAV?$allocator@UWeaponInfo@@@0@U_Nonscalar_ptr_iterator_tag@0@@Z DD 019930522H
	DD	02H
	DD	FLAT:__unwindtable$??$_Uninit_copy@V?$_Vector_const_iterator@V?$_Vector_val@UWeaponInfo@@V?$allocator@UWeaponInfo@@@std@@@std@@@std@@PAUWeaponInfo@@V?$allocator@UWeaponInfo@@@2@@std@@YAPAUWeaponInfo@@V?$_Vector_const_iterator@V?$_Vector_val@UWeaponInfo@@V?$allocator@UWeaponInfo@@@std@@@std@@@0@0PAU1@AAV?$allocator@UWeaponInfo@@@0@U_Nonscalar_ptr_iterator_tag@0@@Z
	DD	01H
	DD	FLAT:__tryblocktable$??$_Uninit_copy@V?$_Vector_const_iterator@V?$_Vector_val@UWeaponInfo@@V?$allocator@UWeaponInfo@@@std@@@std@@@std@@PAUWeaponInfo@@V?$allocator@UWeaponInfo@@@2@@std@@YAPAUWeaponInfo@@V?$_Vector_const_iterator@V?$_Vector_val@UWeaponInfo@@V?$allocator@UWeaponInfo@@@std@@@std@@@0@0PAU1@AAV?$allocator@UWeaponInfo@@@0@U_Nonscalar_ptr_iterator_tag@0@@Z
	DD	2 DUP(00H)
	DD	00H
	DD	01H
; Function compile flags: /Ogsp
; File c:\program files (x86)\microsoft visual studio 10.0\vc\include\memory
xdata$x	ENDS
;	COMDAT ??$_Uninit_copy@V?$_Vector_const_iterator@V?$_Vector_val@UWeaponInfo@@V?$allocator@UWeaponInfo@@@std@@@std@@@std@@PAUWeaponInfo@@V?$allocator@UWeaponInfo@@@2@@std@@YAPAUWeaponInfo@@V?$_Vector_const_iterator@V?$_Vector_val@UWeaponInfo@@V?$allocator@UWeaponInfo@@@std@@@std@@@0@0PAU1@AAV?$allocator@UWeaponInfo@@@0@U_Nonscalar_ptr_iterator_tag@0@@Z
_TEXT	SEGMENT
__Next$ = -20						; size = 4
__$EHRec$ = -16						; size = 16
__First$ = 8						; size = 4
__Last$ = 12						; size = 4
__Dest$ = 16						; size = 4
__Al$ = 20						; size = 4
___formal$ = 24						; size = 1
??$_Uninit_copy@V?$_Vector_const_iterator@V?$_Vector_val@UWeaponInfo@@V?$allocator@UWeaponInfo@@@std@@@std@@@std@@PAUWeaponInfo@@V?$allocator@UWeaponInfo@@@2@@std@@YAPAUWeaponInfo@@V?$_Vector_const_iterator@V?$_Vector_val@UWeaponInfo@@V?$allocator@UWeaponInfo@@@std@@@std@@@0@0PAU1@AAV?$allocator@UWeaponInfo@@@0@U_Nonscalar_ptr_iterator_tag@0@@Z PROC ; std::_Uninit_copy<std::_Vector_const_iterator<std::_Vector_val<WeaponInfo,std::allocator<WeaponInfo> > >,WeaponInfo *,std::allocator<WeaponInfo> >, COMDAT

; 369  : 	{	// copy [_First, _Last) to raw _Dest, using _Al, arbitrary type

  00000	6a 08		 push	 8
  00002	b8 00 00 00 00	 mov	 eax, __ehhandler$??$_Uninit_copy@V?$_Vector_const_iterator@V?$_Vector_val@UWeaponInfo@@V?$allocator@UWeaponInfo@@@std@@@std@@@std@@PAUWeaponInfo@@V?$allocator@UWeaponInfo@@@2@@std@@YAPAUWeaponInfo@@V?$_Vector_const_iterator@V?$_Vector_val@UWeaponInfo@@V?$allocator@UWeaponInfo@@@std@@@std@@@0@0PAU1@AAV?$allocator@UWeaponInfo@@@0@U_Nonscalar_ptr_iterator_tag@0@@Z
  00007	e8 00 00 00 00	 call	 __EH_prolog3_catch

; 370  : 	_DEBUG_RANGE(_First, _Last);
; 371  : 	_DEBUG_POINTER(_Dest);
; 372  : 	_FwdIt _Next = _Dest;

  0000c	8b 45 10	 mov	 eax, DWORD PTR __Dest$[ebp]

; 373  : 
; 374  : 	_TRY_BEGIN

  0000f	83 65 fc 00	 and	 DWORD PTR __$EHRec$[ebp+12], 0
  00013	89 45 ec	 mov	 DWORD PTR __Next$[ebp], eax

; 375  : 	for (; _First != _Last; ++_Dest, ++_First)

$LL14@Uninit_cop@2:
  00016	8b 45 08	 mov	 eax, DWORD PTR __First$[ebp]
  00019	3b 45 0c	 cmp	 eax, DWORD PTR __Last$[ebp]
  0001c	74 34		 je	 SHORT $LN4@Uninit_cop@2

; 376  : 		_Cons_val(_Al, _Dest, *_First);

  0001e	50		 push	 eax
  0001f	ff 75 10	 push	 DWORD PTR __Dest$[ebp]
  00022	e8 00 00 00 00	 call	 ??$_Construct@UWeaponInfo@@ABU1@@std@@YAXPAUWeaponInfo@@ABU1@@Z ; std::_Construct<WeaponInfo,WeaponInfo const &>
  00027	83 45 10 28	 add	 DWORD PTR __Dest$[ebp], 40 ; 00000028H
  0002b	83 45 08 28	 add	 DWORD PTR __First$[ebp], 40 ; 00000028H
  0002f	59		 pop	 ecx
  00030	59		 pop	 ecx
  00031	eb e3		 jmp	 SHORT $LL14@Uninit_cop@2
__catch$??$_Uninit_copy@V?$_Vector_const_iterator@V?$_Vector_val@UWeaponInfo@@V?$allocator@UWeaponInfo@@@std@@@std@@@std@@PAUWeaponInfo@@V?$allocator@UWeaponInfo@@@2@@std@@YAPAUWeaponInfo@@V?$_Vector_const_iterator@V?$_Vector_val@UWeaponInfo@@V?$allocator@UWeaponInfo@@@std@@@std@@@0@0PAU1@AAV?$allocator@UWeaponInfo@@@0@U_Nonscalar_ptr_iterator_tag@0@@Z$0:

; 377  : 	_CATCH_ALL
; 378  : 	for (; _Next != _Dest; ++_Next)

  00033	8b 75 ec	 mov	 esi, DWORD PTR __Next$[ebp]
  00036	eb 0c		 jmp	 SHORT $LN48@Uninit_cop@2
$LL3@Uninit_cop@2:

; 379  : 		_Dest_val(_Al, _Next);

  00038	8d 4e 08	 lea	 ecx, DWORD PTR [esi+8]
  0003b	ff 15 00 00 00
	00		 call	 DWORD PTR __imp_??1ioHashString@@QAE@XZ
  00041	83 c6 28	 add	 esi, 40			; 00000028H
$LN48@Uninit_cop@2:

; 377  : 	_CATCH_ALL
; 378  : 	for (; _Next != _Dest; ++_Next)

  00044	3b 75 10	 cmp	 esi, DWORD PTR __Dest$[ebp]
  00047	75 ef		 jne	 SHORT $LL3@Uninit_cop@2

; 380  : 	_RERAISE;

  00049	6a 00		 push	 0
  0004b	6a 00		 push	 0
  0004d	e8 00 00 00 00	 call	 __CxxThrowException@8
$LN49@Uninit_cop@2:
$LN4@Uninit_cop@2:

; 381  : 	_CATCH_END
; 382  : 	return (_Dest);

  00052	8b 45 10	 mov	 eax, DWORD PTR __Dest$[ebp]

; 383  : 	}

  00055	e8 00 00 00 00	 call	 __EH_epilog3
  0005a	c3		 ret	 0
$LN47@Uninit_cop@2:
_TEXT	ENDS
;	COMDAT text$x
text$x	SEGMENT
__ehhandler$??$_Uninit_copy@V?$_Vector_const_iterator@V?$_Vector_val@UWeaponInfo@@V?$allocator@UWeaponInfo@@@std@@@std@@@std@@PAUWeaponInfo@@V?$allocator@UWeaponInfo@@@2@@std@@YAPAUWeaponInfo@@V?$_Vector_const_iterator@V?$_Vector_val@UWeaponInfo@@V?$allocator@UWeaponInfo@@@std@@@std@@@0@0PAU1@AAV?$allocator@UWeaponInfo@@@0@U_Nonscalar_ptr_iterator_tag@0@@Z:
  00000	8b 54 24 08	 mov	 edx, DWORD PTR [esp+8]
  00004	8d 42 0c	 lea	 eax, DWORD PTR [edx+12]
  00007	8b 4a e8	 mov	 ecx, DWORD PTR [edx-24]
  0000a	33 c8		 xor	 ecx, eax
  0000c	e8 00 00 00 00	 call	 @__security_check_cookie@4
  00011	b8 00 00 00 00	 mov	 eax, OFFSET __ehfuncinfo$??$_Uninit_copy@V?$_Vector_const_iterator@V?$_Vector_val@UWeaponInfo@@V?$allocator@UWeaponInfo@@@std@@@std@@@std@@PAUWeaponInfo@@V?$allocator@UWeaponInfo@@@2@@std@@YAPAUWeaponInfo@@V?$_Vector_const_iterator@V?$_Vector_val@UWeaponInfo@@V?$allocator@UWeaponInfo@@@std@@@std@@@0@0PAU1@AAV?$allocator@UWeaponInfo@@@0@U_Nonscalar_ptr_iterator_tag@0@@Z
  00016	e9 00 00 00 00	 jmp	 ___CxxFrameHandler3
text$x	ENDS
??$_Uninit_copy@V?$_Vector_const_iterator@V?$_Vector_val@UWeaponInfo@@V?$allocator@UWeaponInfo@@@std@@@std@@@std@@PAUWeaponInfo@@V?$allocator@UWeaponInfo@@@2@@std@@YAPAUWeaponInfo@@V?$_Vector_const_iterator@V?$_Vector_val@UWeaponInfo@@V?$allocator@UWeaponInfo@@@std@@@std@@@0@0PAU1@AAV?$allocator@UWeaponInfo@@@0@U_Nonscalar_ptr_iterator_tag@0@@Z ENDP ; std::_Uninit_copy<std::_Vector_const_iterator<std::_Vector_val<WeaponInfo,std::allocator<WeaponInfo> > >,WeaponInfo *,std::allocator<WeaponInfo> >
PUBLIC	?assign@?$basic_string@DU?$char_traits@D@std@@V?$allocator@D@2@@std@@QAEAAV12@ABV12@II@Z ; std::basic_string<char,std::char_traits<char>,std::allocator<char> >::assign
; Function compile flags: /Ogsp
; File c:\program files (x86)\microsoft visual studio 10.0\vc\include\xstring
;	COMDAT ?assign@?$basic_string@DU?$char_traits@D@std@@V?$allocator@D@2@@std@@QAEAAV12@ABV12@II@Z
_TEXT	SEGMENT
__Right$ = 8						; size = 4
__Roff$ = 12						; size = 4
__Count$ = 16						; size = 4
?assign@?$basic_string@DU?$char_traits@D@std@@V?$allocator@D@2@@std@@QAEAAV12@ABV12@II@Z PROC ; std::basic_string<char,std::char_traits<char>,std::allocator<char> >::assign, COMDAT
; _this$ = ecx

; 893  : 		{	// assign _Right [_Roff, _Roff + _Count)

  00000	55		 push	 ebp
  00001	8b ec		 mov	 ebp, esp
  00003	53		 push	 ebx

; 894  : 		if (_Right.size() < _Roff)

  00004	8b 5d 08	 mov	 ebx, DWORD PTR __Right$[ebp]
  00007	8b 43 10	 mov	 eax, DWORD PTR [ebx+16]
  0000a	56		 push	 esi
  0000b	8b f1		 mov	 esi, ecx
  0000d	8b 4d 0c	 mov	 ecx, DWORD PTR __Roff$[ebp]
  00010	57		 push	 edi
  00011	3b c1		 cmp	 eax, ecx
  00013	73 0b		 jae	 SHORT $LN5@assign

; 895  : 			_Xran();	// _Roff off end

  00015	68 00 00 00 00	 push	 OFFSET ??_C@_0BI@CFPLBAOH@invalid?5string?5position?$AA@
  0001a	ff 15 00 00 00
	00		 call	 DWORD PTR __imp_?_Xout_of_range@std@@YAXPBD@Z
$LN34@assign:
$LN5@assign:

; 896  : 		size_type _Num = _Right.size() - _Roff;

  00020	2b c1		 sub	 eax, ecx
  00022	8b f8		 mov	 edi, eax

; 897  : 		if (_Count < _Num)

  00024	39 7d 10	 cmp	 DWORD PTR __Count$[ebp], edi

; 898  : 			_Num = _Count;	// trim _Num to size

  00027	0f 42 7d 10	 cmovb	 edi, DWORD PTR __Count$[ebp]

; 899  : 
; 900  : 		if (this == &_Right)

  0002b	3b f3		 cmp	 esi, ebx
  0002d	75 1a		 jne	 SHORT $LN3@assign

; 901  : 			erase((size_type)(_Roff + _Num)), erase(0, _Roff);	// substring

  0002f	03 f9		 add	 edi, ecx
  00031	6a ff		 push	 -1
  00033	57		 push	 edi
  00034	8b ce		 mov	 ecx, esi
  00036	e8 00 00 00 00	 call	 ?erase@?$basic_string@DU?$char_traits@D@std@@V?$allocator@D@2@@std@@QAEAAV12@II@Z ; std::basic_string<char,std::char_traits<char>,std::allocator<char> >::erase
  0003b	ff 75 0c	 push	 DWORD PTR __Roff$[ebp]
  0003e	8b ce		 mov	 ecx, esi
  00040	6a 00		 push	 0
  00042	e8 00 00 00 00	 call	 ?erase@?$basic_string@DU?$char_traits@D@std@@V?$allocator@D@2@@std@@QAEAAV12@II@Z ; std::basic_string<char,std::char_traits<char>,std::allocator<char> >::erase
  00047	eb 47		 jmp	 SHORT $LN31@assign
$LN3@assign:

; 902  : 		else if (_Grow(_Num))

  00049	6a 00		 push	 0
  0004b	57		 push	 edi
  0004c	8b ce		 mov	 ecx, esi
  0004e	e8 00 00 00 00	 call	 ?_Grow@?$basic_string@DU?$char_traits@D@std@@V?$allocator@D@2@@std@@QAE_NI_N@Z ; std::basic_string<char,std::char_traits<char>,std::allocator<char> >::_Grow
  00053	84 c0		 test	 al, al
  00055	74 39		 je	 SHORT $LN31@assign

; 903  : 			{	// make room and assign new stuff
; 904  : 			_Traits::copy(_Myptr(), _Right._Myptr() + _Roff, _Num);

  00057	83 7b 14 10	 cmp	 DWORD PTR [ebx+20], 16	; 00000010H
  0005b	72 04		 jb	 SHORT $LN17@assign
  0005d	8b 03		 mov	 eax, DWORD PTR [ebx]
  0005f	eb 02		 jmp	 SHORT $LN18@assign
$LN17@assign:
  00061	8b c3		 mov	 eax, ebx
$LN18@assign:
  00063	83 7e 14 10	 cmp	 DWORD PTR [esi+20], 16	; 00000010H
  00067	72 04		 jb	 SHORT $LN21@assign
  00069	8b 0e		 mov	 ecx, DWORD PTR [esi]
  0006b	eb 02		 jmp	 SHORT $LN22@assign
$LN21@assign:
  0006d	8b ce		 mov	 ecx, esi
$LN22@assign:
  0006f	03 45 0c	 add	 eax, DWORD PTR __Roff$[ebp]
  00072	57		 push	 edi
  00073	50		 push	 eax
  00074	51		 push	 ecx
  00075	e8 00 00 00 00	 call	 _memcpy
  0007a	83 c4 0c	 add	 esp, 12			; 0000000cH

; 905  : 			_Eos(_Num);

  0007d	83 7e 14 10	 cmp	 DWORD PTR [esi+20], 16	; 00000010H
  00081	89 7e 10	 mov	 DWORD PTR [esi+16], edi
  00084	72 04		 jb	 SHORT $LN29@assign
  00086	8b 06		 mov	 eax, DWORD PTR [esi]
  00088	eb 02		 jmp	 SHORT $LN30@assign
$LN29@assign:
  0008a	8b c6		 mov	 eax, esi
$LN30@assign:
  0008c	c6 04 38 00	 mov	 BYTE PTR [eax+edi], 0
$LN31@assign:

; 906  : 			}
; 907  : 		return (*this);

  00090	5f		 pop	 edi
  00091	8b c6		 mov	 eax, esi
  00093	5e		 pop	 esi
  00094	5b		 pop	 ebx

; 908  : 		}

  00095	5d		 pop	 ebp
  00096	c2 0c 00	 ret	 12			; 0000000cH
$LN33@assign:
?assign@?$basic_string@DU?$char_traits@D@std@@V?$allocator@D@2@@std@@QAEAAV12@ABV12@II@Z ENDP ; std::basic_string<char,std::char_traits<char>,std::allocator<char> >::assign
_TEXT	ENDS
PUBLIC	?assign@?$basic_string@DU?$char_traits@D@std@@V?$allocator@D@2@@std@@QAEAAV12@PBDI@Z ; std::basic_string<char,std::char_traits<char>,std::allocator<char> >::assign
; Function compile flags: /Ogsp
;	COMDAT ?assign@?$basic_string@DU?$char_traits@D@std@@V?$allocator@D@2@@std@@QAEAAV12@PBDI@Z
_TEXT	SEGMENT
__Ptr$ = 8						; size = 4
__Count$ = 12						; size = 4
?assign@?$basic_string@DU?$char_traits@D@std@@V?$allocator@D@2@@std@@QAEAAV12@PBDI@Z PROC ; std::basic_string<char,std::char_traits<char>,std::allocator<char> >::assign, COMDAT
; _this$ = ecx

; 911  : 		{	// assign [_Ptr, _Ptr + _Count)

  00000	55		 push	 ebp
  00001	8b ec		 mov	 ebp, esp
  00003	53		 push	 ebx

; 912  :  #if _ITERATOR_DEBUG_LEVEL == 2
; 913  : 		if (_Count != 0)
; 914  : 			_DEBUG_POINTER(_Ptr);
; 915  :  #endif /* _ITERATOR_DEBUG_LEVEL == 2 */
; 916  : 
; 917  : 		if (_Inside(_Ptr))

  00004	8b 5d 08	 mov	 ebx, DWORD PTR __Ptr$[ebp]
  00007	56		 push	 esi
  00008	53		 push	 ebx
  00009	8b f1		 mov	 esi, ecx
  0000b	e8 00 00 00 00	 call	 ?_Inside@?$basic_string@DU?$char_traits@D@std@@V?$allocator@D@2@@std@@QAE_NPBD@Z ; std::basic_string<char,std::char_traits<char>,std::allocator<char> >::_Inside
  00010	84 c0		 test	 al, al
  00012	74 1c		 je	 SHORT $LN2@assign@2

; 918  : 			return (assign(*this, _Ptr - _Myptr(), _Count));	// substring

  00014	83 7e 14 10	 cmp	 DWORD PTR [esi+20], 16	; 00000010H
  00018	72 04		 jb	 SHORT $LN7@assign@2
  0001a	8b 06		 mov	 eax, DWORD PTR [esi]
  0001c	eb 02		 jmp	 SHORT $LN8@assign@2
$LN7@assign@2:
  0001e	8b c6		 mov	 eax, esi
$LN8@assign@2:
  00020	ff 75 0c	 push	 DWORD PTR __Count$[ebp]
  00023	2b d8		 sub	 ebx, eax
  00025	53		 push	 ebx
  00026	56		 push	 esi
  00027	8b ce		 mov	 ecx, esi
  00029	e8 00 00 00 00	 call	 ?assign@?$basic_string@DU?$char_traits@D@std@@V?$allocator@D@2@@std@@QAEAAV12@ABV12@II@Z ; std::basic_string<char,std::char_traits<char>,std::allocator<char> >::assign
  0002e	eb 3f		 jmp	 SHORT $LN3@assign@2
$LN2@assign@2:
  00030	57		 push	 edi

; 919  : 
; 920  : 		if (_Grow(_Count))

  00031	8b 7d 0c	 mov	 edi, DWORD PTR __Count$[ebp]
  00034	6a 00		 push	 0
  00036	57		 push	 edi
  00037	8b ce		 mov	 ecx, esi
  00039	e8 00 00 00 00	 call	 ?_Grow@?$basic_string@DU?$char_traits@D@std@@V?$allocator@D@2@@std@@QAE_NI_N@Z ; std::basic_string<char,std::char_traits<char>,std::allocator<char> >::_Grow
  0003e	84 c0		 test	 al, al
  00040	74 2a		 je	 SHORT $LN21@assign@2

; 921  : 			{	// make room and assign new stuff
; 922  : 			_Traits::copy(_Myptr(), _Ptr, _Count);

  00042	83 7e 14 10	 cmp	 DWORD PTR [esi+20], 16	; 00000010H
  00046	72 04		 jb	 SHORT $LN11@assign@2
  00048	8b 06		 mov	 eax, DWORD PTR [esi]
  0004a	eb 02		 jmp	 SHORT $LN12@assign@2
$LN11@assign@2:
  0004c	8b c6		 mov	 eax, esi
$LN12@assign@2:
  0004e	57		 push	 edi
  0004f	53		 push	 ebx
  00050	50		 push	 eax
  00051	e8 00 00 00 00	 call	 _memcpy
  00056	83 c4 0c	 add	 esp, 12			; 0000000cH

; 923  : 			_Eos(_Count);

  00059	83 7e 14 10	 cmp	 DWORD PTR [esi+20], 16	; 00000010H
  0005d	89 7e 10	 mov	 DWORD PTR [esi+16], edi
  00060	72 04		 jb	 SHORT $LN19@assign@2
  00062	8b 06		 mov	 eax, DWORD PTR [esi]
  00064	eb 02		 jmp	 SHORT $LN20@assign@2
$LN19@assign@2:
  00066	8b c6		 mov	 eax, esi
$LN20@assign@2:
  00068	c6 04 38 00	 mov	 BYTE PTR [eax+edi], 0
$LN21@assign@2:

; 924  : 			}
; 925  : 		return (*this);

  0006c	8b c6		 mov	 eax, esi
  0006e	5f		 pop	 edi
$LN3@assign@2:
  0006f	5e		 pop	 esi
  00070	5b		 pop	 ebx

; 926  : 		}

  00071	5d		 pop	 ebp
  00072	c2 08 00	 ret	 8
?assign@?$basic_string@DU?$char_traits@D@std@@V?$allocator@D@2@@std@@QAEAAV12@PBDI@Z ENDP ; std::basic_string<char,std::char_traits<char>,std::allocator<char> >::assign
_TEXT	ENDS
PUBLIC	??$_Destroy_range@V?$allocator@UForceInfo@@@std@@@std@@YAXPAUForceInfo@@0AAV?$allocator@UForceInfo@@@0@@Z ; std::_Destroy_range<std::allocator<ForceInfo> >
; Function compile flags: /Ogsp
; File c:\program files (x86)\microsoft visual studio 10.0\vc\include\xmemory
;	COMDAT ??$_Destroy_range@V?$allocator@UForceInfo@@@std@@@std@@YAXPAUForceInfo@@0AAV?$allocator@UForceInfo@@@0@@Z
_TEXT	SEGMENT
__First$ = 8						; size = 4
__Last$ = 12						; size = 4
__Al$ = 16						; size = 4
??$_Destroy_range@V?$allocator@UForceInfo@@@std@@@std@@YAXPAUForceInfo@@0AAV?$allocator@UForceInfo@@@0@@Z PROC ; std::_Destroy_range<std::allocator<ForceInfo> >, COMDAT

; 88   : 	_Destroy_range(_First, _Last, _Al, _Ptr_cat(_First, _Last));
; 89   : 	}

  00000	c3		 ret	 0
??$_Destroy_range@V?$allocator@UForceInfo@@@std@@@std@@YAXPAUForceInfo@@0AAV?$allocator@UForceInfo@@@0@@Z ENDP ; std::_Destroy_range<std::allocator<ForceInfo> >
_TEXT	ENDS
PUBLIC	??$_Destroy_range@V?$allocator@UWeaponInfo@@@std@@@std@@YAXPAUWeaponInfo@@0AAV?$allocator@UWeaponInfo@@@0@U_Nonscalar_ptr_iterator_tag@0@@Z ; std::_Destroy_range<std::allocator<WeaponInfo> >
; Function compile flags: /Ogsp
;	COMDAT ??$_Destroy_range@V?$allocator@UWeaponInfo@@@std@@@std@@YAXPAUWeaponInfo@@0AAV?$allocator@UWeaponInfo@@@0@U_Nonscalar_ptr_iterator_tag@0@@Z
_TEXT	SEGMENT
__First$ = 8						; size = 4
__Last$ = 12						; size = 4
__Al$ = 16						; size = 4
___formal$ = 20						; size = 1
??$_Destroy_range@V?$allocator@UWeaponInfo@@@std@@@std@@YAXPAUWeaponInfo@@0AAV?$allocator@UWeaponInfo@@@0@U_Nonscalar_ptr_iterator_tag@0@@Z PROC ; std::_Destroy_range<std::allocator<WeaponInfo> >, COMDAT

; 95   : 	{	// destroy [_First, _Last), arbitrary type

  00000	55		 push	 ebp
  00001	8b ec		 mov	 ebp, esp
  00003	56		 push	 esi

; 96   : 	for (; _First != _Last; ++_First)

  00004	8b 75 08	 mov	 esi, DWORD PTR __First$[ebp]
  00007	eb 0c		 jmp	 SHORT $LN20@Destroy_ra
$LL3@Destroy_ra:

; 97   : 		_Dest_val(_Al, _First);

  00009	8d 4e 08	 lea	 ecx, DWORD PTR [esi+8]
  0000c	ff 15 00 00 00
	00		 call	 DWORD PTR __imp_??1ioHashString@@QAE@XZ
  00012	83 c6 28	 add	 esi, 40			; 00000028H
$LN20@Destroy_ra:

; 96   : 	for (; _First != _Last; ++_First)

  00015	3b 75 0c	 cmp	 esi, DWORD PTR __Last$[ebp]
  00018	75 ef		 jne	 SHORT $LL3@Destroy_ra
  0001a	5e		 pop	 esi

; 98   : 	}

  0001b	5d		 pop	 ebp
  0001c	c3		 ret	 0
??$_Destroy_range@V?$allocator@UWeaponInfo@@@std@@@std@@YAXPAUWeaponInfo@@0AAV?$allocator@UWeaponInfo@@@0@U_Nonscalar_ptr_iterator_tag@0@@Z ENDP ; std::_Destroy_range<std::allocator<WeaponInfo> >
_TEXT	ENDS
PUBLIC	?_Destroy@?$vector@UAniRotateInfo@@V?$allocator@UAniRotateInfo@@@std@@@std@@IAEXPAUAniRotateInfo@@0@Z ; std::vector<AniRotateInfo,std::allocator<AniRotateInfo> >::_Destroy
; Function compile flags: /Ogsp
; File c:\program files (x86)\microsoft visual studio 10.0\vc\include\vector
;	COMDAT ?_Destroy@?$vector@UAniRotateInfo@@V?$allocator@UAniRotateInfo@@@std@@@std@@IAEXPAUAniRotateInfo@@0@Z
_TEXT	SEGMENT
__First$ = 8						; size = 4
__Last$ = 12						; size = 4
?_Destroy@?$vector@UAniRotateInfo@@V?$allocator@UAniRotateInfo@@@std@@@std@@IAEXPAUAniRotateInfo@@0@Z PROC ; std::vector<AniRotateInfo,std::allocator<AniRotateInfo> >::_Destroy, COMDAT
; _this$ = ecx

; 1270 : 		_Destroy_range(_First, _Last, this->_Alval);
; 1271 : 		}

  00000	c2 08 00	 ret	 8
?_Destroy@?$vector@UAniRotateInfo@@V?$allocator@UAniRotateInfo@@@std@@@std@@IAEXPAUAniRotateInfo@@0@Z ENDP ; std::vector<AniRotateInfo,std::allocator<AniRotateInfo> >::_Destroy
_TEXT	ENDS
PUBLIC	??$_Ucopy@V?$_Vector_const_iterator@V?$_Vector_val@UForceInfo@@V?$allocator@UForceInfo@@@std@@@std@@@std@@@?$vector@UForceInfo@@V?$allocator@UForceInfo@@@std@@@std@@IAEPAUForceInfo@@V?$_Vector_const_iterator@V?$_Vector_val@UForceInfo@@V?$allocator@UForceInfo@@@std@@@std@@@1@0PAU2@@Z ; std::vector<ForceInfo,std::allocator<ForceInfo> >::_Ucopy<std::_Vector_const_iterator<std::_Vector_val<ForceInfo,std::allocator<ForceInfo> > > >
; Function compile flags: /Ogsp
;	COMDAT ??$_Ucopy@V?$_Vector_const_iterator@V?$_Vector_val@UForceInfo@@V?$allocator@UForceInfo@@@std@@@std@@@std@@@?$vector@UForceInfo@@V?$allocator@UForceInfo@@@std@@@std@@IAEPAUForceInfo@@V?$_Vector_const_iterator@V?$_Vector_val@UForceInfo@@V?$allocator@UForceInfo@@@std@@@std@@@1@0PAU2@@Z
_TEXT	SEGMENT
__First$ = 8						; size = 4
__Last$ = 12						; size = 4
__Cat$540668 = 16					; size = 1
__Ptr$ = 16						; size = 4
??$_Ucopy@V?$_Vector_const_iterator@V?$_Vector_val@UForceInfo@@V?$allocator@UForceInfo@@@std@@@std@@@std@@@?$vector@UForceInfo@@V?$allocator@UForceInfo@@@std@@@std@@IAEPAUForceInfo@@V?$_Vector_const_iterator@V?$_Vector_val@UForceInfo@@V?$allocator@UForceInfo@@@std@@@std@@@1@0PAU2@@Z PROC ; std::vector<ForceInfo,std::allocator<ForceInfo> >::_Ucopy<std::_Vector_const_iterator<std::_Vector_val<ForceInfo,std::allocator<ForceInfo> > > >, COMDAT
; _this$ = ecx

; 1315 : 		pointer _Ucopy(_Iter _First, _Iter _Last, pointer _Ptr)

  00000	55		 push	 ebp
  00001	8b ec		 mov	 ebp, esp

; 1316 : 		{	// copy initializing [_First, _Last), using allocator
; 1317 : 		return (_Uninitialized_copy(_First, _Last,
; 1318 : 			_Ptr, this->_Alval));

  00003	ff 75 10	 push	 DWORD PTR __Cat$540668[ebp]
  00006	83 c1 0c	 add	 ecx, 12			; 0000000cH
  00009	51		 push	 ecx
  0000a	ff 75 10	 push	 DWORD PTR __Ptr$[ebp]
  0000d	ff 75 0c	 push	 DWORD PTR __Last$[ebp]
  00010	ff 75 08	 push	 DWORD PTR __First$[ebp]
  00013	e8 00 00 00 00	 call	 ??$_Uninit_copy@V?$_Vector_const_iterator@V?$_Vector_val@UForceInfo@@V?$allocator@UForceInfo@@@std@@@std@@@std@@PAUForceInfo@@V?$allocator@UForceInfo@@@2@@std@@YAPAUForceInfo@@V?$_Vector_const_iterator@V?$_Vector_val@UForceInfo@@V?$allocator@UForceInfo@@@std@@@std@@@0@0PAU1@AAV?$allocator@UForceInfo@@@0@U_Nonscalar_ptr_iterator_tag@0@@Z ; std::_Uninit_copy<std::_Vector_const_iterator<std::_Vector_val<ForceInfo,std::allocator<ForceInfo> > >,ForceInfo *,std::allocator<ForceInfo> >
  00018	83 c4 14	 add	 esp, 20			; 00000014H

; 1319 : 		}

  0001b	5d		 pop	 ebp
  0001c	c2 0c 00	 ret	 12			; 0000000cH
??$_Ucopy@V?$_Vector_const_iterator@V?$_Vector_val@UForceInfo@@V?$allocator@UForceInfo@@@std@@@std@@@std@@@?$vector@UForceInfo@@V?$allocator@UForceInfo@@@std@@@std@@IAEPAUForceInfo@@V?$_Vector_const_iterator@V?$_Vector_val@UForceInfo@@V?$allocator@UForceInfo@@@std@@@std@@@1@0PAU2@@Z ENDP ; std::vector<ForceInfo,std::allocator<ForceInfo> >::_Ucopy<std::_Vector_const_iterator<std::_Vector_val<ForceInfo,std::allocator<ForceInfo> > > >
_TEXT	ENDS
PUBLIC	??$_Umove@PAUAniRotateInfo@@@?$vector@UAniRotateInfo@@V?$allocator@UAniRotateInfo@@@std@@@std@@IAEPAUAniRotateInfo@@PAU2@00@Z ; std::vector<AniRotateInfo,std::allocator<AniRotateInfo> >::_Umove<AniRotateInfo *>
; Function compile flags: /Ogsp
;	COMDAT ??$_Umove@PAUAniRotateInfo@@@?$vector@UAniRotateInfo@@V?$allocator@UAniRotateInfo@@@std@@@std@@IAEPAUAniRotateInfo@@PAU2@00@Z
_TEXT	SEGMENT
__First$ = 8						; size = 4
__Last$ = 12						; size = 4
__Ptr$ = 16						; size = 4
??$_Umove@PAUAniRotateInfo@@@?$vector@UAniRotateInfo@@V?$allocator@UAniRotateInfo@@@std@@@std@@IAEPAUAniRotateInfo@@PAU2@00@Z PROC ; std::vector<AniRotateInfo,std::allocator<AniRotateInfo> >::_Umove<AniRotateInfo *>, COMDAT
; _this$ = ecx

; 1322 : 		pointer _Umove(_Iter _First, _Iter _Last, pointer _Ptr)

  00000	55		 push	 ebp
  00001	8b ec		 mov	 ebp, esp

; 1323 : 		{	// move initializing [_First, _Last), using allocator
; 1324 : 		return (_Uninitialized_move(_First, _Last,
; 1325 : 			_Ptr, this->_Alval));

  00003	83 c1 0c	 add	 ecx, 12			; 0000000cH
  00006	51		 push	 ecx
  00007	ff 75 10	 push	 DWORD PTR __Ptr$[ebp]
  0000a	ff 75 0c	 push	 DWORD PTR __Last$[ebp]
  0000d	ff 75 08	 push	 DWORD PTR __First$[ebp]
  00010	e8 00 00 00 00	 call	 ??$_Uninitialized_move@PAUAniRotateInfo@@PAU1@V?$allocator@UAniRotateInfo@@@std@@@std@@YAPAUAniRotateInfo@@PAU1@00AAV?$allocator@UAniRotateInfo@@@0@@Z ; std::_Uninitialized_move<AniRotateInfo *,AniRotateInfo *,std::allocator<AniRotateInfo> >
  00015	83 c4 10	 add	 esp, 16			; 00000010H

; 1326 : 		}

  00018	5d		 pop	 ebp
  00019	c2 0c 00	 ret	 12			; 0000000cH
??$_Umove@PAUAniRotateInfo@@@?$vector@UAniRotateInfo@@V?$allocator@UAniRotateInfo@@@std@@@std@@IAEPAUAniRotateInfo@@PAU2@00@Z ENDP ; std::vector<AniRotateInfo,std::allocator<AniRotateInfo> >::_Umove<AniRotateInfo *>
_TEXT	ENDS
PUBLIC	??$_Uninitialized_copy@V?$_Vector_const_iterator@V?$_Vector_val@UWeaponInfo@@V?$allocator@UWeaponInfo@@@std@@@std@@@std@@PAUWeaponInfo@@V?$allocator@UWeaponInfo@@@2@@std@@YAPAUWeaponInfo@@V?$_Vector_const_iterator@V?$_Vector_val@UWeaponInfo@@V?$allocator@UWeaponInfo@@@std@@@std@@@0@0PAU1@AAV?$allocator@UWeaponInfo@@@0@@Z ; std::_Uninitialized_copy<std::_Vector_const_iterator<std::_Vector_val<WeaponInfo,std::allocator<WeaponInfo> > >,WeaponInfo *,std::allocator<WeaponInfo> >
; Function compile flags: /Ogsp
; File c:\program files (x86)\microsoft visual studio 10.0\vc\include\memory
;	COMDAT ??$_Uninitialized_copy@V?$_Vector_const_iterator@V?$_Vector_val@UWeaponInfo@@V?$allocator@UWeaponInfo@@@std@@@std@@@std@@PAUWeaponInfo@@V?$allocator@UWeaponInfo@@@2@@std@@YAPAUWeaponInfo@@V?$_Vector_const_iterator@V?$_Vector_val@UWeaponInfo@@V?$allocator@UWeaponInfo@@@std@@@std@@@0@0PAU1@AAV?$allocator@UWeaponInfo@@@0@@Z
_TEXT	SEGMENT
__Cat$540680 = -4					; size = 1
__First$ = 8						; size = 4
__Last$ = 12						; size = 4
__Dest$ = 16						; size = 4
__Al$ = 20						; size = 4
??$_Uninitialized_copy@V?$_Vector_const_iterator@V?$_Vector_val@UWeaponInfo@@V?$allocator@UWeaponInfo@@@std@@@std@@@std@@PAUWeaponInfo@@V?$allocator@UWeaponInfo@@@2@@std@@YAPAUWeaponInfo@@V?$_Vector_const_iterator@V?$_Vector_val@UWeaponInfo@@V?$allocator@UWeaponInfo@@@std@@@std@@@0@0PAU1@AAV?$allocator@UWeaponInfo@@@0@@Z PROC ; std::_Uninitialized_copy<std::_Vector_const_iterator<std::_Vector_val<WeaponInfo,std::allocator<WeaponInfo> > >,WeaponInfo *,std::allocator<WeaponInfo> >, COMDAT

; 412  : 	{	// copy [_First, _Last) to raw _Dest, using _Al

  00000	55		 push	 ebp
  00001	8b ec		 mov	 ebp, esp
  00003	51		 push	 ecx

; 413  : 	return (_Uninit_copy(_First, _Last, _Dest, _Al,
; 414  : 		_Ptr_cat(_First, _Dest)));

  00004	ff 75 fc	 push	 DWORD PTR __Cat$540680[ebp]
  00007	ff 75 14	 push	 DWORD PTR __Al$[ebp]
  0000a	ff 75 10	 push	 DWORD PTR __Dest$[ebp]
  0000d	ff 75 0c	 push	 DWORD PTR __Last$[ebp]
  00010	ff 75 08	 push	 DWORD PTR __First$[ebp]
  00013	e8 00 00 00 00	 call	 ??$_Uninit_copy@V?$_Vector_const_iterator@V?$_Vector_val@UWeaponInfo@@V?$allocator@UWeaponInfo@@@std@@@std@@@std@@PAUWeaponInfo@@V?$allocator@UWeaponInfo@@@2@@std@@YAPAUWeaponInfo@@V?$_Vector_const_iterator@V?$_Vector_val@UWeaponInfo@@V?$allocator@UWeaponInfo@@@std@@@std@@@0@0PAU1@AAV?$allocator@UWeaponInfo@@@0@U_Nonscalar_ptr_iterator_tag@0@@Z ; std::_Uninit_copy<std::_Vector_const_iterator<std::_Vector_val<WeaponInfo,std::allocator<WeaponInfo> > >,WeaponInfo *,std::allocator<WeaponInfo> >
  00018	83 c4 14	 add	 esp, 20			; 00000014H

; 415  : 	}

  0001b	c9		 leave
  0001c	c3		 ret	 0
??$_Uninitialized_copy@V?$_Vector_const_iterator@V?$_Vector_val@UWeaponInfo@@V?$allocator@UWeaponInfo@@@std@@@std@@@std@@PAUWeaponInfo@@V?$allocator@UWeaponInfo@@@2@@std@@YAPAUWeaponInfo@@V?$_Vector_const_iterator@V?$_Vector_val@UWeaponInfo@@V?$allocator@UWeaponInfo@@@std@@@std@@@0@0PAU1@AAV?$allocator@UWeaponInfo@@@0@@Z ENDP ; std::_Uninitialized_copy<std::_Vector_const_iterator<std::_Vector_val<WeaponInfo,std::allocator<WeaponInfo> > >,WeaponInfo *,std::allocator<WeaponInfo> >
_TEXT	ENDS
PUBLIC	?assign@?$basic_string@DU?$char_traits@D@std@@V?$allocator@D@2@@std@@QAEAAV12@PBD@Z ; std::basic_string<char,std::char_traits<char>,std::allocator<char> >::assign
; Function compile flags: /Ogsp
; File c:\program files (x86)\microsoft visual studio 10.0\vc\include\xstring
;	COMDAT ?assign@?$basic_string@DU?$char_traits@D@std@@V?$allocator@D@2@@std@@QAEAAV12@PBD@Z
_TEXT	SEGMENT
__Ptr$ = 8						; size = 4
?assign@?$basic_string@DU?$char_traits@D@std@@V?$allocator@D@2@@std@@QAEAAV12@PBD@Z PROC ; std::basic_string<char,std::char_traits<char>,std::allocator<char> >::assign, COMDAT
; _this$ = ecx

; 929  : 		{	// assign [_Ptr, <null>)

  00000	55		 push	 ebp
  00001	8b ec		 mov	 ebp, esp

; 930  : 		_DEBUG_POINTER(_Ptr);
; 931  : 		return (assign(_Ptr, _Traits::length(_Ptr)));

  00003	8b 45 08	 mov	 eax, DWORD PTR __Ptr$[ebp]
  00006	8d 50 01	 lea	 edx, DWORD PTR [eax+1]
  00009	53		 push	 ebx
$LL5@assign@3:
  0000a	8a 18		 mov	 bl, BYTE PTR [eax]
  0000c	40		 inc	 eax
  0000d	84 db		 test	 bl, bl
  0000f	75 f9		 jne	 SHORT $LL5@assign@3
  00011	2b c2		 sub	 eax, edx
  00013	50		 push	 eax
  00014	ff 75 08	 push	 DWORD PTR __Ptr$[ebp]
  00017	e8 00 00 00 00	 call	 ?assign@?$basic_string@DU?$char_traits@D@std@@V?$allocator@D@2@@std@@QAEAAV12@PBDI@Z ; std::basic_string<char,std::char_traits<char>,std::allocator<char> >::assign
  0001c	5b		 pop	 ebx

; 932  : 		}

  0001d	5d		 pop	 ebp
  0001e	c2 04 00	 ret	 4
?assign@?$basic_string@DU?$char_traits@D@std@@V?$allocator@D@2@@std@@QAEAAV12@PBD@Z ENDP ; std::basic_string<char,std::char_traits<char>,std::allocator<char> >::assign
_TEXT	ENDS
PUBLIC	?_Destroy@?$vector@UForceInfo@@V?$allocator@UForceInfo@@@std@@@std@@IAEXPAUForceInfo@@0@Z ; std::vector<ForceInfo,std::allocator<ForceInfo> >::_Destroy
; Function compile flags: /Ogsp
; File c:\program files (x86)\microsoft visual studio 10.0\vc\include\vector
;	COMDAT ?_Destroy@?$vector@UForceInfo@@V?$allocator@UForceInfo@@@std@@@std@@IAEXPAUForceInfo@@0@Z
_TEXT	SEGMENT
__First$ = 8						; size = 4
__Last$ = 12						; size = 4
?_Destroy@?$vector@UForceInfo@@V?$allocator@UForceInfo@@@std@@@std@@IAEXPAUForceInfo@@0@Z PROC ; std::vector<ForceInfo,std::allocator<ForceInfo> >::_Destroy, COMDAT
; _this$ = ecx

; 1270 : 		_Destroy_range(_First, _Last, this->_Alval);
; 1271 : 		}

  00000	c2 08 00	 ret	 8
?_Destroy@?$vector@UForceInfo@@V?$allocator@UForceInfo@@@std@@@std@@IAEXPAUForceInfo@@0@Z ENDP ; std::vector<ForceInfo,std::allocator<ForceInfo> >::_Destroy
_TEXT	ENDS
PUBLIC	??$_Destroy_range@V?$allocator@UWeaponInfo@@@std@@@std@@YAXPAUWeaponInfo@@0AAV?$allocator@UWeaponInfo@@@0@@Z ; std::_Destroy_range<std::allocator<WeaponInfo> >
; Function compile flags: /Ogsp
; File c:\program files (x86)\microsoft visual studio 10.0\vc\include\xmemory
;	COMDAT ??$_Destroy_range@V?$allocator@UWeaponInfo@@@std@@@std@@YAXPAUWeaponInfo@@0AAV?$allocator@UWeaponInfo@@@0@@Z
_TEXT	SEGMENT
__First$ = 8						; size = 4
__Last$ = 12						; size = 4
__Al$ = 16						; size = 4
??$_Destroy_range@V?$allocator@UWeaponInfo@@@std@@@std@@YAXPAUWeaponInfo@@0AAV?$allocator@UWeaponInfo@@@0@@Z PROC ; std::_Destroy_range<std::allocator<WeaponInfo> >, COMDAT

; 87   : 	{	// destroy [_First, _Last)

  00000	55		 push	 ebp
  00001	8b ec		 mov	 ebp, esp
  00003	56		 push	 esi

; 88   : 	_Destroy_range(_First, _Last, _Al, _Ptr_cat(_First, _Last));

  00004	8b 75 08	 mov	 esi, DWORD PTR __First$[ebp]
  00007	eb 0c		 jmp	 SHORT $LN24@Destroy_ra@2
$LL7@Destroy_ra@2:
  00009	8d 4e 08	 lea	 ecx, DWORD PTR [esi+8]
  0000c	ff 15 00 00 00
	00		 call	 DWORD PTR __imp_??1ioHashString@@QAE@XZ
  00012	83 c6 28	 add	 esi, 40			; 00000028H
$LN24@Destroy_ra@2:
  00015	3b 75 0c	 cmp	 esi, DWORD PTR __Last$[ebp]
  00018	75 ef		 jne	 SHORT $LL7@Destroy_ra@2
  0001a	5e		 pop	 esi

; 89   : 	}

  0001b	5d		 pop	 ebp
  0001c	c3		 ret	 0
??$_Destroy_range@V?$allocator@UWeaponInfo@@@std@@@std@@YAXPAUWeaponInfo@@0AAV?$allocator@UWeaponInfo@@@0@@Z ENDP ; std::_Destroy_range<std::allocator<WeaponInfo> >
_TEXT	ENDS
PUBLIC	?erase@?$vector@UAniRotateInfo@@V?$allocator@UAniRotateInfo@@@std@@@std@@QAE?AV?$_Vector_iterator@V?$_Vector_val@UAniRotateInfo@@V?$allocator@UAniRotateInfo@@@std@@@std@@@2@V?$_Vector_const_iterator@V?$_Vector_val@UAniRotateInfo@@V?$allocator@UAniRotateInfo@@@std@@@std@@@2@0@Z ; std::vector<AniRotateInfo,std::allocator<AniRotateInfo> >::erase
; Function compile flags: /Ogsp
; File c:\program files (x86)\microsoft visual studio 10.0\vc\include\vector
;	COMDAT ?erase@?$vector@UAniRotateInfo@@V?$allocator@UAniRotateInfo@@@std@@@std@@QAE?AV?$_Vector_iterator@V?$_Vector_val@UAniRotateInfo@@V?$allocator@UAniRotateInfo@@@std@@@std@@@2@V?$_Vector_const_iterator@V?$_Vector_val@UAniRotateInfo@@V?$allocator@UAniRotateInfo@@@std@@@std@@@2@0@Z
_TEXT	SEGMENT
___$ReturnUdt$ = 8					; size = 4
__First_arg$ = 12					; size = 4
__Cat$540886 = 16					; size = 1
__Last_arg$ = 16					; size = 4
?erase@?$vector@UAniRotateInfo@@V?$allocator@UAniRotateInfo@@@std@@@std@@QAE?AV?$_Vector_iterator@V?$_Vector_val@UAniRotateInfo@@V?$allocator@UAniRotateInfo@@@std@@@std@@@2@V?$_Vector_const_iterator@V?$_Vector_val@UAniRotateInfo@@V?$allocator@UAniRotateInfo@@@std@@@std@@@2@0@Z PROC ; std::vector<AniRotateInfo,std::allocator<AniRotateInfo> >::erase, COMDAT
; _this$ = ecx

; 1190 : 		{	// erase [_First, _Last)

  00000	55		 push	 ebp
  00001	8b ec		 mov	 ebp, esp

; 1191 : 		iterator _First = _Make_iter(_First_arg);

  00003	8b 45 0c	 mov	 eax, DWORD PTR __First_arg$[ebp]
  00006	56		 push	 esi
  00007	57		 push	 edi
  00008	8b 7d 08	 mov	 edi, DWORD PTR ___$ReturnUdt$[ebp]
  0000b	8b f1		 mov	 esi, ecx
  0000d	89 07		 mov	 DWORD PTR [edi], eax

; 1192 : 		iterator _Last = _Make_iter(_Last_arg);
; 1193 : 
; 1194 : 		if (_First != _Last)

  0000f	3b 45 10	 cmp	 eax, DWORD PTR __Last_arg$[ebp]
  00012	74 16		 je	 SHORT $LN1@erase@2

; 1195 : 			{	// worth doing, copy down over hole
; 1196 :  #if _ITERATOR_DEBUG_LEVEL == 2
; 1197 : 			if (_Last < _First || _VICONT(_First) != this
; 1198 : 				|| _VIPTR(_First) < this->_Myfirst
; 1199 : 				|| this->_Mylast < _VIPTR(_Last))
; 1200 : 				_DEBUG_ERROR("vector erase iterator outside range");
; 1201 : 			pointer _Ptr = _Move(_VIPTR(_Last), this->_Mylast,
; 1202 : 				_VIPTR(_First));
; 1203 : 			_Orphan_range(_VIPTR(_First), this->_Mylast);
; 1204 : 
; 1205 :  #else /* _ITERATOR_DEBUG_LEVEL == 2 */
; 1206 : 			pointer _Ptr = _Move(_VIPTR(_Last), this->_Mylast,
; 1207 : 				_VIPTR(_First));

  00014	ff 75 10	 push	 DWORD PTR __Cat$540886[ebp]
  00017	8b 4e 04	 mov	 ecx, DWORD PTR [esi+4]
  0001a	50		 push	 eax
  0001b	51		 push	 ecx
  0001c	ff 75 10	 push	 DWORD PTR __Last_arg$[ebp]
  0001f	e8 00 00 00 00	 call	 ??$_Move@PAUAniRotateInfo@@PAU1@@std@@YAPAUAniRotateInfo@@PAU1@00U_Nonscalar_ptr_iterator_tag@0@@Z ; std::_Move<AniRotateInfo *,AniRotateInfo *>
  00024	83 c4 10	 add	 esp, 16			; 00000010H

; 1208 :  #endif /* _ITERATOR_DEBUG_LEVEL == 2 */
; 1209 : 
; 1210 : 			_Destroy(_Ptr, this->_Mylast);
; 1211 : 			this->_Mylast = _Ptr;

  00027	89 46 04	 mov	 DWORD PTR [esi+4], eax
$LN1@erase@2:

; 1212 : 			}
; 1213 : 		return (_First);

  0002a	8b c7		 mov	 eax, edi
  0002c	5f		 pop	 edi
  0002d	5e		 pop	 esi

; 1214 : 		}

  0002e	5d		 pop	 ebp
  0002f	c2 0c 00	 ret	 12			; 0000000cH
?erase@?$vector@UAniRotateInfo@@V?$allocator@UAniRotateInfo@@@std@@@std@@QAE?AV?$_Vector_iterator@V?$_Vector_val@UAniRotateInfo@@V?$allocator@UAniRotateInfo@@@std@@@std@@@2@V?$_Vector_const_iterator@V?$_Vector_val@UAniRotateInfo@@V?$allocator@UAniRotateInfo@@@std@@@std@@@2@0@Z ENDP ; std::vector<AniRotateInfo,std::allocator<AniRotateInfo> >::erase
_TEXT	ENDS
PUBLIC	?reserve@?$vector@UAniRotateInfo@@V?$allocator@UAniRotateInfo@@@std@@@std@@QAEXI@Z ; std::vector<AniRotateInfo,std::allocator<AniRotateInfo> >::reserve
;	COMDAT xdata$x
; File c:\program files (x86)\microsoft visual studio 10.0\vc\include\xmemory
xdata$x	SEGMENT
__catchsym$?reserve@?$vector@UAniRotateInfo@@V?$allocator@UAniRotateInfo@@@std@@@std@@QAEXI@Z$2 DD 040H
	DD	00H
	DD	00H
	DD	FLAT:__catch$?reserve@?$vector@UAniRotateInfo@@V?$allocator@UAniRotateInfo@@@std@@@std@@QAEXI@Z$0
__unwindtable$?reserve@?$vector@UAniRotateInfo@@V?$allocator@UAniRotateInfo@@@std@@@std@@QAEXI@Z DD 0ffffffffH
	DD	00H
	DD	0ffffffffH
	DD	00H
__tryblocktable$?reserve@?$vector@UAniRotateInfo@@V?$allocator@UAniRotateInfo@@@std@@@std@@QAEXI@Z DD 00H
	DD	00H
	DD	01H
	DD	01H
	DD	FLAT:__catchsym$?reserve@?$vector@UAniRotateInfo@@V?$allocator@UAniRotateInfo@@@std@@@std@@QAEXI@Z$2
__ehfuncinfo$?reserve@?$vector@UAniRotateInfo@@V?$allocator@UAniRotateInfo@@@std@@@std@@QAEXI@Z DD 019930522H
	DD	02H
	DD	FLAT:__unwindtable$?reserve@?$vector@UAniRotateInfo@@V?$allocator@UAniRotateInfo@@@std@@@std@@QAEXI@Z
	DD	01H
	DD	FLAT:__tryblocktable$?reserve@?$vector@UAniRotateInfo@@V?$allocator@UAniRotateInfo@@@std@@@std@@QAEXI@Z
	DD	2 DUP(00H)
	DD	00H
	DD	01H
; Function compile flags: /Ogsp
; File c:\program files (x86)\microsoft visual studio 10.0\vc\include\vector
xdata$x	ENDS
;	COMDAT ?reserve@?$vector@UAniRotateInfo@@V?$allocator@UAniRotateInfo@@@std@@@std@@QAEXI@Z
_TEXT	SEGMENT
__Ptr$531894 = -20					; size = 4
__$EHRec$ = -16						; size = 16
__Count$ = 8						; size = 4
?reserve@?$vector@UAniRotateInfo@@V?$allocator@UAniRotateInfo@@@std@@@std@@QAEXI@Z PROC ; std::vector<AniRotateInfo,std::allocator<AniRotateInfo> >::reserve, COMDAT
; _this$ = ecx

; 746  : 		{	// determine new minimum length of allocated storage

  00000	6a 08		 push	 8
  00002	b8 00 00 00 00	 mov	 eax, __ehhandler$?reserve@?$vector@UAniRotateInfo@@V?$allocator@UAniRotateInfo@@@std@@@std@@QAEXI@Z
  00007	e8 00 00 00 00	 call	 __EH_prolog3_catch
  0000c	8b f1		 mov	 esi, ecx

; 747  : 		if (max_size() < _Count)

  0000e	81 7d 08 ff ff
	ff 1f		 cmp	 DWORD PTR __Count$[ebp], 536870911 ; 1fffffffH
  00015	76 0b		 jbe	 SHORT $LN5@reserve

; 748  : 			_Xlen();	// result too long

  00017	68 00 00 00 00	 push	 OFFSET ??_C@_0BD@OLBABOEK@vector?$DMT?$DO?5too?5long?$AA@
  0001c	ff 15 00 00 00
	00		 call	 DWORD PTR __imp_?_Xlength_error@std@@YAXPBD@Z
$LN56@reserve:
$LN5@reserve:

; 749  : 		else if (capacity() < _Count)

  00022	8b 46 08	 mov	 eax, DWORD PTR [esi+8]
  00025	2b 06		 sub	 eax, DWORD PTR [esi]
  00027	c1 f8 03	 sar	 eax, 3
  0002a	3b 45 08	 cmp	 eax, DWORD PTR __Count$[ebp]
  0002d	73 65		 jae	 SHORT $LN3@reserve

; 750  : 			{	// not enough room, reallocate
; 751  : 			pointer _Ptr = this->_Alval.allocate(_Count);

  0002f	6a 00		 push	 0
  00031	ff 75 08	 push	 DWORD PTR __Count$[ebp]
  00034	e8 00 00 00 00	 call	 ??$_Allocate@UAniRotateInfo@@@std@@YAPAUAniRotateInfo@@IPAU1@@Z ; std::_Allocate<AniRotateInfo>

; 752  : 
; 753  : 			_TRY_BEGIN
; 754  : 			_Umove(this->_Myfirst, this->_Mylast, _Ptr);

  00039	8b 0e		 mov	 ecx, DWORD PTR [esi]
  0003b	83 65 fc 00	 and	 DWORD PTR __$EHRec$[ebp+12], 0
  0003f	8b d8		 mov	 ebx, eax
  00041	8b 46 04	 mov	 eax, DWORD PTR [esi+4]
  00044	8d 56 0c	 lea	 edx, DWORD PTR [esi+12]
  00047	52		 push	 edx
  00048	53		 push	 ebx
  00049	50		 push	 eax
  0004a	51		 push	 ecx
  0004b	89 5d ec	 mov	 DWORD PTR __Ptr$531894[ebp], ebx
  0004e	e8 00 00 00 00	 call	 ??$_Uninitialized_move@PAUAniRotateInfo@@PAU1@V?$allocator@UAniRotateInfo@@@std@@@std@@YAPAUAniRotateInfo@@PAU1@00AAV?$allocator@UAniRotateInfo@@@0@@Z ; std::_Uninitialized_move<AniRotateInfo *,AniRotateInfo *,std::allocator<AniRotateInfo> >

; 758  : 			_CATCH_END
; 759  : 
; 760  : 			size_type _Size = size();

  00053	8b 4e 04	 mov	 ecx, DWORD PTR [esi+4]
  00056	8b 06		 mov	 eax, DWORD PTR [esi]
  00058	83 4d fc ff	 or	 DWORD PTR __$EHRec$[ebp+12], -1
  0005c	8b f9		 mov	 edi, ecx
  0005e	2b f8		 sub	 edi, eax
  00060	83 c4 18	 add	 esp, 24			; 00000018H
  00063	c1 ff 03	 sar	 edi, 3
  00066	85 c0		 test	 eax, eax
  00068	74 11		 je	 SHORT $LN48@reserve

; 761  : 			if (this->_Myfirst != 0)

  0006a	eb 03		 jmp	 SHORT $LN55@reserve

; 762  : 				{	// destroy and deallocate old array
; 763  : 				_Destroy(this->_Myfirst, this->_Mylast);

$LL39@reserve:
  0006c	83 c0 08	 add	 eax, 8
$LN55@reserve:
  0006f	3b c1		 cmp	 eax, ecx
  00071	75 f9		 jne	 SHORT $LL39@reserve

; 764  : 				this->_Alval.deallocate(this->_Myfirst,
; 765  : 					this->_Myend - this->_Myfirst);

  00073	ff 36		 push	 DWORD PTR [esi]
  00075	e8 00 00 00 00	 call	 ??3@YAXPAX@Z		; operator delete
  0007a	59		 pop	 ecx
$LN48@reserve:

; 766  : 				}
; 767  : 
; 768  : 			this->_Orphan_all();

  0007b	8b ce		 mov	 ecx, esi
  0007d	ff 15 00 00 00
	00		 call	 DWORD PTR __imp_?_Orphan_all@_Container_base0@std@@QAEXXZ

; 769  : 			this->_Myend = _Ptr + _Count;

  00083	8b 45 08	 mov	 eax, DWORD PTR __Count$[ebp]
  00086	8d 04 c3	 lea	 eax, DWORD PTR [ebx+eax*8]
  00089	89 46 08	 mov	 DWORD PTR [esi+8], eax

; 770  : 			this->_Mylast = _Ptr + _Size;

  0008c	8d 04 fb	 lea	 eax, DWORD PTR [ebx+edi*8]
  0008f	89 46 04	 mov	 DWORD PTR [esi+4], eax

; 771  : 			this->_Myfirst = _Ptr;

  00092	89 1e		 mov	 DWORD PTR [esi], ebx
$LN3@reserve:

; 772  : 			}
; 773  : 		}

  00094	e8 00 00 00 00	 call	 __EH_epilog3
  00099	c2 04 00	 ret	 4
__catch$?reserve@?$vector@UAniRotateInfo@@V?$allocator@UAniRotateInfo@@@std@@@std@@QAEXI@Z$0:

; 755  : 			_CATCH_ALL
; 756  : 			this->_Alval.deallocate(_Ptr, _Count);

  0009c	ff 75 ec	 push	 DWORD PTR __Ptr$531894[ebp]
  0009f	e8 00 00 00 00	 call	 ??3@YAXPAX@Z		; operator delete
  000a4	59		 pop	 ecx

; 757  : 			_RERAISE;

  000a5	6a 00		 push	 0
  000a7	6a 00		 push	 0
  000a9	e8 00 00 00 00	 call	 __CxxThrowException@8
$LN57@reserve:
$LN54@reserve:
  000ae	cc		 int	 3
_TEXT	ENDS
;	COMDAT text$x
text$x	SEGMENT
__ehhandler$?reserve@?$vector@UAniRotateInfo@@V?$allocator@UAniRotateInfo@@@std@@@std@@QAEXI@Z:
  00000	8b 54 24 08	 mov	 edx, DWORD PTR [esp+8]
  00004	8d 42 0c	 lea	 eax, DWORD PTR [edx+12]
  00007	8b 4a e8	 mov	 ecx, DWORD PTR [edx-24]
  0000a	33 c8		 xor	 ecx, eax
  0000c	e8 00 00 00 00	 call	 @__security_check_cookie@4
  00011	b8 00 00 00 00	 mov	 eax, OFFSET __ehfuncinfo$?reserve@?$vector@UAniRotateInfo@@V?$allocator@UAniRotateInfo@@@std@@@std@@QAEXI@Z
  00016	e9 00 00 00 00	 jmp	 ___CxxFrameHandler3
text$x	ENDS
?reserve@?$vector@UAniRotateInfo@@V?$allocator@UAniRotateInfo@@@std@@@std@@QAEXI@Z ENDP ; std::vector<AniRotateInfo,std::allocator<AniRotateInfo> >::reserve
PUBLIC	??$_Ucopy@V?$_Vector_const_iterator@V?$_Vector_val@UWeaponInfo@@V?$allocator@UWeaponInfo@@@std@@@std@@@std@@@?$vector@UWeaponInfo@@V?$allocator@UWeaponInfo@@@std@@@std@@IAEPAUWeaponInfo@@V?$_Vector_const_iterator@V?$_Vector_val@UWeaponInfo@@V?$allocator@UWeaponInfo@@@std@@@std@@@1@0PAU2@@Z ; std::vector<WeaponInfo,std::allocator<WeaponInfo> >::_Ucopy<std::_Vector_const_iterator<std::_Vector_val<WeaponInfo,std::allocator<WeaponInfo> > > >
; Function compile flags: /Ogsp
;	COMDAT ??$_Ucopy@V?$_Vector_const_iterator@V?$_Vector_val@UWeaponInfo@@V?$allocator@UWeaponInfo@@@std@@@std@@@std@@@?$vector@UWeaponInfo@@V?$allocator@UWeaponInfo@@@std@@@std@@IAEPAUWeaponInfo@@V?$_Vector_const_iterator@V?$_Vector_val@UWeaponInfo@@V?$allocator@UWeaponInfo@@@std@@@std@@@1@0PAU2@@Z
_TEXT	SEGMENT
__First$ = 8						; size = 4
__Last$ = 12						; size = 4
__Cat$541111 = 16					; size = 1
__Ptr$ = 16						; size = 4
??$_Ucopy@V?$_Vector_const_iterator@V?$_Vector_val@UWeaponInfo@@V?$allocator@UWeaponInfo@@@std@@@std@@@std@@@?$vector@UWeaponInfo@@V?$allocator@UWeaponInfo@@@std@@@std@@IAEPAUWeaponInfo@@V?$_Vector_const_iterator@V?$_Vector_val@UWeaponInfo@@V?$allocator@UWeaponInfo@@@std@@@std@@@1@0PAU2@@Z PROC ; std::vector<WeaponInfo,std::allocator<WeaponInfo> >::_Ucopy<std::_Vector_const_iterator<std::_Vector_val<WeaponInfo,std::allocator<WeaponInfo> > > >, COMDAT
; _this$ = ecx

; 1315 : 		pointer _Ucopy(_Iter _First, _Iter _Last, pointer _Ptr)

  00000	55		 push	 ebp
  00001	8b ec		 mov	 ebp, esp

; 1316 : 		{	// copy initializing [_First, _Last), using allocator
; 1317 : 		return (_Uninitialized_copy(_First, _Last,
; 1318 : 			_Ptr, this->_Alval));

  00003	ff 75 10	 push	 DWORD PTR __Cat$541111[ebp]
  00006	83 c1 0c	 add	 ecx, 12			; 0000000cH
  00009	51		 push	 ecx
  0000a	ff 75 10	 push	 DWORD PTR __Ptr$[ebp]
  0000d	ff 75 0c	 push	 DWORD PTR __Last$[ebp]
  00010	ff 75 08	 push	 DWORD PTR __First$[ebp]
  00013	e8 00 00 00 00	 call	 ??$_Uninit_copy@V?$_Vector_const_iterator@V?$_Vector_val@UWeaponInfo@@V?$allocator@UWeaponInfo@@@std@@@std@@@std@@PAUWeaponInfo@@V?$allocator@UWeaponInfo@@@2@@std@@YAPAUWeaponInfo@@V?$_Vector_const_iterator@V?$_Vector_val@UWeaponInfo@@V?$allocator@UWeaponInfo@@@std@@@std@@@0@0PAU1@AAV?$allocator@UWeaponInfo@@@0@U_Nonscalar_ptr_iterator_tag@0@@Z ; std::_Uninit_copy<std::_Vector_const_iterator<std::_Vector_val<WeaponInfo,std::allocator<WeaponInfo> > >,WeaponInfo *,std::allocator<WeaponInfo> >
  00018	83 c4 14	 add	 esp, 20			; 00000014H

; 1319 : 		}

  0001b	5d		 pop	 ebp
  0001c	c2 0c 00	 ret	 12			; 0000000cH
??$_Ucopy@V?$_Vector_const_iterator@V?$_Vector_val@UWeaponInfo@@V?$allocator@UWeaponInfo@@@std@@@std@@@std@@@?$vector@UWeaponInfo@@V?$allocator@UWeaponInfo@@@std@@@std@@IAEPAUWeaponInfo@@V?$_Vector_const_iterator@V?$_Vector_val@UWeaponInfo@@V?$allocator@UWeaponInfo@@@std@@@std@@@1@0PAU2@@Z ENDP ; std::vector<WeaponInfo,std::allocator<WeaponInfo> >::_Ucopy<std::_Vector_const_iterator<std::_Vector_val<WeaponInfo,std::allocator<WeaponInfo> > > >
_TEXT	ENDS
PUBLIC	??0?$basic_string@DU?$char_traits@D@std@@V?$allocator@D@2@@std@@QAE@PBD@Z ; std::basic_string<char,std::char_traits<char>,std::allocator<char> >::basic_string<char,std::char_traits<char>,std::allocator<char> >
; Function compile flags: /Ogsp
; File c:\program files (x86)\microsoft visual studio 10.0\vc\include\xstring
;	COMDAT ??0?$basic_string@DU?$char_traits@D@std@@V?$allocator@D@2@@std@@QAE@PBD@Z
_TEXT	SEGMENT
__Ptr$ = 8						; size = 4
??0?$basic_string@DU?$char_traits@D@std@@V?$allocator@D@2@@std@@QAE@PBD@Z PROC ; std::basic_string<char,std::char_traits<char>,std::allocator<char> >::basic_string<char,std::char_traits<char>,std::allocator<char> >, COMDAT
; _this$ = ecx

; 592  : 		{	// construct from [_Ptr, <null>)

  00000	55		 push	 ebp
  00001	8b ec		 mov	 ebp, esp
  00003	56		 push	 esi

; 593  : 		_Tidy();
; 594  : 		assign(_Ptr);

  00004	ff 75 08	 push	 DWORD PTR __Ptr$[ebp]
  00007	8b f1		 mov	 esi, ecx
  00009	83 66 10 00	 and	 DWORD PTR [esi+16], 0
  0000d	c7 46 14 0f 00
	00 00		 mov	 DWORD PTR [esi+20], 15	; 0000000fH
  00014	c6 06 00	 mov	 BYTE PTR [esi], 0
  00017	e8 00 00 00 00	 call	 ?assign@?$basic_string@DU?$char_traits@D@std@@V?$allocator@D@2@@std@@QAEAAV12@PBD@Z ; std::basic_string<char,std::char_traits<char>,std::allocator<char> >::assign

; 595  : 		}

  0001c	8b c6		 mov	 eax, esi
  0001e	5e		 pop	 esi
  0001f	5d		 pop	 ebp
  00020	c2 04 00	 ret	 4
??0?$basic_string@DU?$char_traits@D@std@@V?$allocator@D@2@@std@@QAE@PBD@Z ENDP ; std::basic_string<char,std::char_traits<char>,std::allocator<char> >::basic_string<char,std::char_traits<char>,std::allocator<char> >
_TEXT	ENDS
PUBLIC	?_Tidy@?$vector@UForceInfo@@V?$allocator@UForceInfo@@@std@@@std@@IAEXXZ ; std::vector<ForceInfo,std::allocator<ForceInfo> >::_Tidy
; Function compile flags: /Ogsp
; File c:\program files (x86)\microsoft visual studio 10.0\vc\include\vector
;	COMDAT ?_Tidy@?$vector@UForceInfo@@V?$allocator@UForceInfo@@@std@@@std@@IAEXXZ
_TEXT	SEGMENT
?_Tidy@?$vector@UForceInfo@@V?$allocator@UForceInfo@@@std@@@std@@IAEXXZ PROC ; std::vector<ForceInfo,std::allocator<ForceInfo> >::_Tidy, COMDAT
; _this$ = ecx

; 1301 : 		{	// free all storage

  00000	56		 push	 esi
  00001	8b f1		 mov	 esi, ecx

; 1302 : 		if (this->_Myfirst != 0)

  00003	83 3e 00	 cmp	 DWORD PTR [esi], 0
  00006	74 0e		 je	 SHORT $LN21@Tidy@3

; 1303 : 			{	// something to free, destroy and deallocate it
; 1304 : 			this->_Orphan_all();

  00008	ff 15 00 00 00
	00		 call	 DWORD PTR __imp_?_Orphan_all@_Container_base0@std@@QAEXXZ

; 1305 : 			_Destroy(this->_Myfirst, this->_Mylast);
; 1306 : 			this->_Alval.deallocate(this->_Myfirst,
; 1307 : 				this->_Myend - this->_Myfirst);

  0000e	ff 36		 push	 DWORD PTR [esi]
  00010	e8 00 00 00 00	 call	 ??3@YAXPAX@Z		; operator delete
  00015	59		 pop	 ecx
$LN21@Tidy@3:

; 1308 : 			}
; 1309 : 		this->_Myfirst = 0;

  00016	83 26 00	 and	 DWORD PTR [esi], 0

; 1310 : 		this->_Mylast = 0;

  00019	83 66 04 00	 and	 DWORD PTR [esi+4], 0

; 1311 : 		this->_Myend = 0;

  0001d	83 66 08 00	 and	 DWORD PTR [esi+8], 0
  00021	5e		 pop	 esi

; 1312 : 		}

  00022	c3		 ret	 0
?_Tidy@?$vector@UForceInfo@@V?$allocator@UForceInfo@@@std@@@std@@IAEXXZ ENDP ; std::vector<ForceInfo,std::allocator<ForceInfo> >::_Tidy
_TEXT	ENDS
PUBLIC	?_Destroy@?$vector@UWeaponInfo@@V?$allocator@UWeaponInfo@@@std@@@std@@IAEXPAUWeaponInfo@@0@Z ; std::vector<WeaponInfo,std::allocator<WeaponInfo> >::_Destroy
; Function compile flags: /Ogsp
;	COMDAT ?_Destroy@?$vector@UWeaponInfo@@V?$allocator@UWeaponInfo@@@std@@@std@@IAEXPAUWeaponInfo@@0@Z
_TEXT	SEGMENT
__First$ = 8						; size = 4
__Last$ = 12						; size = 4
?_Destroy@?$vector@UWeaponInfo@@V?$allocator@UWeaponInfo@@@std@@@std@@IAEXPAUWeaponInfo@@0@Z PROC ; std::vector<WeaponInfo,std::allocator<WeaponInfo> >::_Destroy, COMDAT
; _this$ = ecx

; 1269 : 		{	// destroy [_First, _Last) using allocator

  00000	55		 push	 ebp
  00001	8b ec		 mov	 ebp, esp

; 1270 : 		_Destroy_range(_First, _Last, this->_Alval);

  00003	83 c1 0c	 add	 ecx, 12			; 0000000cH
  00006	51		 push	 ecx
  00007	ff 75 0c	 push	 DWORD PTR __Last$[ebp]
  0000a	ff 75 08	 push	 DWORD PTR __First$[ebp]
  0000d	e8 00 00 00 00	 call	 ??$_Destroy_range@V?$allocator@UWeaponInfo@@@std@@@std@@YAXPAUWeaponInfo@@0AAV?$allocator@UWeaponInfo@@@0@@Z ; std::_Destroy_range<std::allocator<WeaponInfo> >
  00012	83 c4 0c	 add	 esp, 12			; 0000000cH

; 1271 : 		}

  00015	5d		 pop	 ebp
  00016	c2 08 00	 ret	 8
?_Destroy@?$vector@UWeaponInfo@@V?$allocator@UWeaponInfo@@@std@@@std@@IAEXPAUWeaponInfo@@0@Z ENDP ; std::vector<WeaponInfo,std::allocator<WeaponInfo> >::_Destroy
_TEXT	ENDS
PUBLIC	??0?$vector@UForceInfo@@V?$allocator@UForceInfo@@@std@@@std@@QAE@ABV01@@Z ; std::vector<ForceInfo,std::allocator<ForceInfo> >::vector<ForceInfo,std::allocator<ForceInfo> >
;	COMDAT xdata$x
; File c:\program files (x86)\microsoft visual studio 10.0\vc\include\xutility
xdata$x	SEGMENT
__catchsym$??0?$vector@UForceInfo@@V?$allocator@UForceInfo@@@std@@@std@@QAE@ABV01@@Z$2 DD 040H
	DD	00H
	DD	00H
	DD	FLAT:__catch$??0?$vector@UForceInfo@@V?$allocator@UForceInfo@@@std@@@std@@QAE@ABV01@@Z$0
__unwindtable$??0?$vector@UForceInfo@@V?$allocator@UForceInfo@@@std@@@std@@QAE@ABV01@@Z DD 0ffffffffH
	DD	00H
	DD	0ffffffffH
	DD	00H
__tryblocktable$??0?$vector@UForceInfo@@V?$allocator@UForceInfo@@@std@@@std@@QAE@ABV01@@Z DD 00H
	DD	00H
	DD	01H
	DD	01H
	DD	FLAT:__catchsym$??0?$vector@UForceInfo@@V?$allocator@UForceInfo@@@std@@@std@@QAE@ABV01@@Z$2
__ehfuncinfo$??0?$vector@UForceInfo@@V?$allocator@UForceInfo@@@std@@@std@@QAE@ABV01@@Z DD 019930522H
	DD	02H
	DD	FLAT:__unwindtable$??0?$vector@UForceInfo@@V?$allocator@UForceInfo@@@std@@@std@@QAE@ABV01@@Z
	DD	01H
	DD	FLAT:__tryblocktable$??0?$vector@UForceInfo@@V?$allocator@UForceInfo@@@std@@@std@@QAE@ABV01@@Z
	DD	2 DUP(00H)
	DD	00H
	DD	01H
; Function compile flags: /Ogsp
; File c:\program files (x86)\microsoft visual studio 10.0\vc\include\vector
xdata$x	ENDS
;	COMDAT ??0?$vector@UForceInfo@@V?$allocator@UForceInfo@@@std@@@std@@QAE@ABV01@@Z
_TEXT	SEGMENT
_this$ = -20						; size = 4
__$EHRec$ = -16						; size = 16
__Cat$541340 = 8					; size = 1
__Right$ = 8						; size = 4
??0?$vector@UForceInfo@@V?$allocator@UForceInfo@@@std@@@std@@QAE@ABV01@@Z PROC ; std::vector<ForceInfo,std::allocator<ForceInfo> >::vector<ForceInfo,std::allocator<ForceInfo> >, COMDAT
; _this$ = ecx

; 535  : 		{	// construct by copying _Right

  00000	6a 08		 push	 8
  00002	b8 00 00 00 00	 mov	 eax, __ehhandler$??0?$vector@UForceInfo@@V?$allocator@UForceInfo@@@std@@@std@@QAE@ABV01@@Z
  00007	e8 00 00 00 00	 call	 __EH_prolog3_catch
  0000c	8b f1		 mov	 esi, ecx
  0000e	89 75 ec	 mov	 DWORD PTR _this$[ebp], esi

; 536  : 		if (_Buy(_Right.size()))

  00011	8b 7d 08	 mov	 edi, DWORD PTR __Right$[ebp]
  00014	33 db		 xor	 ebx, ebx
  00016	89 1e		 mov	 DWORD PTR [esi], ebx
  00018	89 5e 04	 mov	 DWORD PTR [esi+4], ebx
  0001b	89 5e 08	 mov	 DWORD PTR [esi+8], ebx
  0001e	8b 47 04	 mov	 eax, DWORD PTR [edi+4]
  00021	2b 07		 sub	 eax, DWORD PTR [edi]
  00023	6a 0c		 push	 12			; 0000000cH
  00025	59		 pop	 ecx
  00026	99		 cdq
  00027	f7 f9		 idiv	 ecx
  00029	8b ce		 mov	 ecx, esi
  0002b	50		 push	 eax
  0002c	e8 00 00 00 00	 call	 ?_Buy@?$vector@UForceInfo@@V?$allocator@UForceInfo@@@std@@@std@@IAE_NI@Z ; std::vector<ForceInfo,std::allocator<ForceInfo> >::_Buy
  00031	84 c0		 test	 al, al
  00033	74 1f		 je	 SHORT $LN7@vector

; 537  : 			_TRY_BEGIN
; 538  : 			this->_Mylast = _Ucopy(_Right.begin(), _Right.end(),
; 539  : 				this->_Myfirst);

  00035	ff 75 08	 push	 DWORD PTR __Cat$541340[ebp]
  00038	8b 0e		 mov	 ecx, DWORD PTR [esi]
  0003a	8b 47 04	 mov	 eax, DWORD PTR [edi+4]
  0003d	8b 3f		 mov	 edi, DWORD PTR [edi]
  0003f	8d 56 0c	 lea	 edx, DWORD PTR [esi+12]
  00042	52		 push	 edx
  00043	51		 push	 ecx
  00044	50		 push	 eax
  00045	57		 push	 edi
  00046	89 5d fc	 mov	 DWORD PTR __$EHRec$[ebp+12], ebx
  00049	e8 00 00 00 00	 call	 ??$_Uninit_copy@V?$_Vector_const_iterator@V?$_Vector_val@UForceInfo@@V?$allocator@UForceInfo@@@std@@@std@@@std@@PAUForceInfo@@V?$allocator@UForceInfo@@@2@@std@@YAPAUForceInfo@@V?$_Vector_const_iterator@V?$_Vector_val@UForceInfo@@V?$allocator@UForceInfo@@@std@@@std@@@0@0PAU1@AAV?$allocator@UForceInfo@@@0@U_Nonscalar_ptr_iterator_tag@0@@Z ; std::_Uninit_copy<std::_Vector_const_iterator<std::_Vector_val<ForceInfo,std::allocator<ForceInfo> > >,ForceInfo *,std::allocator<ForceInfo> >
  0004e	83 c4 14	 add	 esp, 20			; 00000014H
  00051	89 46 04	 mov	 DWORD PTR [esi+4], eax
$LN7@vector:

; 543  : 			_CATCH_END
; 544  : 		}

  00054	8b c6		 mov	 eax, esi
  00056	e8 00 00 00 00	 call	 __EH_epilog3
  0005b	c2 04 00	 ret	 4
__catch$??0?$vector@UForceInfo@@V?$allocator@UForceInfo@@@std@@@std@@QAE@ABV01@@Z$0:

; 540  : 			_CATCH_ALL
; 541  : 			_Tidy();

  0005e	8b 4d ec	 mov	 ecx, DWORD PTR _this$[ebp]
  00061	e8 00 00 00 00	 call	 ?_Tidy@?$vector@UForceInfo@@V?$allocator@UForceInfo@@@std@@@std@@IAEXXZ ; std::vector<ForceInfo,std::allocator<ForceInfo> >::_Tidy

; 542  : 			_RERAISE;

  00066	33 db		 xor	 ebx, ebx
  00068	53		 push	 ebx
  00069	53		 push	 ebx
  0006a	e8 00 00 00 00	 call	 __CxxThrowException@8
$LN38@vector:
$LN37@vector:
  0006f	cc		 int	 3
_TEXT	ENDS
;	COMDAT text$x
text$x	SEGMENT
__ehhandler$??0?$vector@UForceInfo@@V?$allocator@UForceInfo@@@std@@@std@@QAE@ABV01@@Z:
  00000	8b 54 24 08	 mov	 edx, DWORD PTR [esp+8]
  00004	8d 42 0c	 lea	 eax, DWORD PTR [edx+12]
  00007	8b 4a e8	 mov	 ecx, DWORD PTR [edx-24]
  0000a	33 c8		 xor	 ecx, eax
  0000c	e8 00 00 00 00	 call	 @__security_check_cookie@4
  00011	b8 00 00 00 00	 mov	 eax, OFFSET __ehfuncinfo$??0?$vector@UForceInfo@@V?$allocator@UForceInfo@@@std@@@std@@QAE@ABV01@@Z
  00016	e9 00 00 00 00	 jmp	 ___CxxFrameHandler3
text$x	ENDS
??0?$vector@UForceInfo@@V?$allocator@UForceInfo@@@std@@@std@@QAE@ABV01@@Z ENDP ; std::vector<ForceInfo,std::allocator<ForceInfo> >::vector<ForceInfo,std::allocator<ForceInfo> >
PUBLIC	?clear@?$vector@UAniRotateInfo@@V?$allocator@UAniRotateInfo@@@std@@@std@@QAEXXZ ; std::vector<AniRotateInfo,std::allocator<AniRotateInfo> >::clear
; Function compile flags: /Ogsp
;	COMDAT ?clear@?$vector@UAniRotateInfo@@V?$allocator@UAniRotateInfo@@@std@@@std@@QAEXXZ
_TEXT	SEGMENT
$T541363 = -4						; size = 4
?clear@?$vector@UAniRotateInfo@@V?$allocator@UAniRotateInfo@@@std@@@std@@QAEXXZ PROC ; std::vector<AniRotateInfo,std::allocator<AniRotateInfo> >::clear, COMDAT
; _this$ = ecx

; 1217 : 		{	// erase all

  00000	55		 push	 ebp
  00001	8b ec		 mov	 ebp, esp
  00003	51		 push	 ecx

; 1218 : 		erase(begin(), end());

  00004	8b 41 04	 mov	 eax, DWORD PTR [ecx+4]
  00007	8b 11		 mov	 edx, DWORD PTR [ecx]
  00009	50		 push	 eax
  0000a	52		 push	 edx
  0000b	8d 45 fc	 lea	 eax, DWORD PTR $T541363[ebp]
  0000e	50		 push	 eax
  0000f	e8 00 00 00 00	 call	 ?erase@?$vector@UAniRotateInfo@@V?$allocator@UAniRotateInfo@@@std@@@std@@QAE?AV?$_Vector_iterator@V?$_Vector_val@UAniRotateInfo@@V?$allocator@UAniRotateInfo@@@std@@@std@@@2@V?$_Vector_const_iterator@V?$_Vector_val@UAniRotateInfo@@V?$allocator@UAniRotateInfo@@@std@@@std@@@2@0@Z ; std::vector<AniRotateInfo,std::allocator<AniRotateInfo> >::erase

; 1219 : 		}

  00014	c9		 leave
  00015	c3		 ret	 0
?clear@?$vector@UAniRotateInfo@@V?$allocator@UAniRotateInfo@@@std@@@std@@QAEXXZ ENDP ; std::vector<AniRotateInfo,std::allocator<AniRotateInfo> >::clear
_TEXT	ENDS
PUBLIC	?_Reserve@?$vector@UAniRotateInfo@@V?$allocator@UAniRotateInfo@@@std@@@std@@IAEXI@Z ; std::vector<AniRotateInfo,std::allocator<AniRotateInfo> >::_Reserve
; Function compile flags: /Ogsp
;	COMDAT ?_Reserve@?$vector@UAniRotateInfo@@V?$allocator@UAniRotateInfo@@@std@@@std@@IAEXI@Z
_TEXT	SEGMENT
__Count$ = 8						; size = 4
?_Reserve@?$vector@UAniRotateInfo@@V?$allocator@UAniRotateInfo@@@std@@@std@@IAEXI@Z PROC ; std::vector<AniRotateInfo,std::allocator<AniRotateInfo> >::_Reserve, COMDAT
; _this$ = ecx

; 1290 : 		{	// ensure room for _Count new elements, grow exponentially

  00000	55		 push	 ebp
  00001	8b ec		 mov	 ebp, esp
  00003	56		 push	 esi
  00004	8b f1		 mov	 esi, ecx

; 1291 : 		size_type _Size = size();

  00006	8b 0e		 mov	 ecx, DWORD PTR [esi]
  00008	8b 46 04	 mov	 eax, DWORD PTR [esi+4]
  0000b	2b c1		 sub	 eax, ecx

; 1292 : 		if (max_size() - _Count < _Size)

  0000d	ba ff ff ff 1f	 mov	 edx, 536870911		; 1fffffffH
  00012	2b 55 08	 sub	 edx, DWORD PTR __Count$[ebp]
  00015	c1 f8 03	 sar	 eax, 3
  00018	3b d0		 cmp	 edx, eax
  0001a	73 0b		 jae	 SHORT $LN4@Reserve

; 1293 : 			_Xlen();

  0001c	68 00 00 00 00	 push	 OFFSET ??_C@_0BD@OLBABOEK@vector?$DMT?$DO?5too?5long?$AA@
  00021	ff 15 00 00 00
	00		 call	 DWORD PTR __imp_?_Xlength_error@std@@YAXPBD@Z
$LN21@Reserve:
$LN4@Reserve:

; 1294 : 		else if ((_Size += _Count) <= capacity())

  00027	8b 56 08	 mov	 edx, DWORD PTR [esi+8]
  0002a	03 45 08	 add	 eax, DWORD PTR __Count$[ebp]
  0002d	2b d1		 sub	 edx, ecx
  0002f	c1 fa 03	 sar	 edx, 3
  00032	3b c2		 cmp	 eax, edx
  00034	76 10		 jbe	 SHORT $LN1@Reserve

; 1295 : 			;
; 1296 : 		else
; 1297 : 			reserve(_Grow_to(_Size));

  00036	50		 push	 eax
  00037	8b ce		 mov	 ecx, esi
  00039	e8 00 00 00 00	 call	 ?_Grow_to@?$vector@UAniRotateInfo@@V?$allocator@UAniRotateInfo@@@std@@@std@@IBEII@Z ; std::vector<AniRotateInfo,std::allocator<AniRotateInfo> >::_Grow_to
  0003e	50		 push	 eax
  0003f	8b ce		 mov	 ecx, esi
  00041	e8 00 00 00 00	 call	 ?reserve@?$vector@UAniRotateInfo@@V?$allocator@UAniRotateInfo@@@std@@@std@@QAEXI@Z ; std::vector<AniRotateInfo,std::allocator<AniRotateInfo> >::reserve
$LN1@Reserve:
  00046	5e		 pop	 esi

; 1298 : 		}

  00047	5d		 pop	 ebp
  00048	c2 04 00	 ret	 4
$LN20@Reserve:
?_Reserve@?$vector@UAniRotateInfo@@V?$allocator@UAniRotateInfo@@@std@@@std@@IAEXI@Z ENDP ; std::vector<AniRotateInfo,std::allocator<AniRotateInfo> >::_Reserve
_TEXT	ENDS
PUBLIC	??1?$vector@UForceInfo@@V?$allocator@UForceInfo@@@std@@@std@@QAE@XZ ; std::vector<ForceInfo,std::allocator<ForceInfo> >::~vector<ForceInfo,std::allocator<ForceInfo> >
; Function compile flags: /Ogsp
;	COMDAT ??1?$vector@UForceInfo@@V?$allocator@UForceInfo@@@std@@@std@@QAE@XZ
_TEXT	SEGMENT
??1?$vector@UForceInfo@@V?$allocator@UForceInfo@@@std@@@std@@QAE@XZ PROC ; std::vector<ForceInfo,std::allocator<ForceInfo> >::~vector<ForceInfo,std::allocator<ForceInfo> >, COMDAT
; _this$ = ecx

; 705  : 		_Tidy();

  00000	e9 00 00 00 00	 jmp	 ?_Tidy@?$vector@UForceInfo@@V?$allocator@UForceInfo@@@std@@@std@@IAEXXZ ; std::vector<ForceInfo,std::allocator<ForceInfo> >::_Tidy
??1?$vector@UForceInfo@@V?$allocator@UForceInfo@@@std@@@std@@QAE@XZ ENDP ; std::vector<ForceInfo,std::allocator<ForceInfo> >::~vector<ForceInfo,std::allocator<ForceInfo> >
_TEXT	ENDS
PUBLIC	?_Tidy@?$vector@UWeaponInfo@@V?$allocator@UWeaponInfo@@@std@@@std@@IAEXXZ ; std::vector<WeaponInfo,std::allocator<WeaponInfo> >::_Tidy
; Function compile flags: /Ogsp
;	COMDAT ?_Tidy@?$vector@UWeaponInfo@@V?$allocator@UWeaponInfo@@@std@@@std@@IAEXXZ
_TEXT	SEGMENT
?_Tidy@?$vector@UWeaponInfo@@V?$allocator@UWeaponInfo@@@std@@@std@@IAEXXZ PROC ; std::vector<WeaponInfo,std::allocator<WeaponInfo> >::_Tidy, COMDAT
; _this$ = ecx

; 1301 : 		{	// free all storage

  00000	56		 push	 esi
  00001	8b f1		 mov	 esi, ecx

; 1302 : 		if (this->_Myfirst != 0)

  00003	83 3e 00	 cmp	 DWORD PTR [esi], 0
  00006	74 1e		 je	 SHORT $LN6@Tidy@4

; 1303 : 			{	// something to free, destroy and deallocate it
; 1304 : 			this->_Orphan_all();

  00008	ff 15 00 00 00
	00		 call	 DWORD PTR __imp_?_Orphan_all@_Container_base0@std@@QAEXXZ

; 1305 : 			_Destroy(this->_Myfirst, this->_Mylast);

  0000e	8d 46 0c	 lea	 eax, DWORD PTR [esi+12]
  00011	50		 push	 eax
  00012	ff 76 04	 push	 DWORD PTR [esi+4]
  00015	ff 36		 push	 DWORD PTR [esi]
  00017	e8 00 00 00 00	 call	 ??$_Destroy_range@V?$allocator@UWeaponInfo@@@std@@@std@@YAXPAUWeaponInfo@@0AAV?$allocator@UWeaponInfo@@@0@@Z ; std::_Destroy_range<std::allocator<WeaponInfo> >

; 1306 : 			this->_Alval.deallocate(this->_Myfirst,
; 1307 : 				this->_Myend - this->_Myfirst);

  0001c	ff 36		 push	 DWORD PTR [esi]
  0001e	e8 00 00 00 00	 call	 ??3@YAXPAX@Z		; operator delete
  00023	83 c4 10	 add	 esp, 16			; 00000010H
$LN6@Tidy@4:

; 1308 : 			}
; 1309 : 		this->_Myfirst = 0;

  00026	83 26 00	 and	 DWORD PTR [esi], 0

; 1310 : 		this->_Mylast = 0;

  00029	83 66 04 00	 and	 DWORD PTR [esi+4], 0

; 1311 : 		this->_Myend = 0;

  0002d	83 66 08 00	 and	 DWORD PTR [esi+8], 0
  00031	5e		 pop	 esi

; 1312 : 		}

  00032	c3		 ret	 0
?_Tidy@?$vector@UWeaponInfo@@V?$allocator@UWeaponInfo@@@std@@@std@@IAEXXZ ENDP ; std::vector<WeaponInfo,std::allocator<WeaponInfo> >::_Tidy
_TEXT	ENDS
PUBLIC	??0?$vector@UWeaponInfo@@V?$allocator@UWeaponInfo@@@std@@@std@@QAE@ABV01@@Z ; std::vector<WeaponInfo,std::allocator<WeaponInfo> >::vector<WeaponInfo,std::allocator<WeaponInfo> >
;	COMDAT xdata$x
; File c:\program files (x86)\microsoft visual studio 10.0\vc\include\xutility
xdata$x	SEGMENT
__catchsym$??0?$vector@UWeaponInfo@@V?$allocator@UWeaponInfo@@@std@@@std@@QAE@ABV01@@Z$2 DD 040H
	DD	00H
	DD	00H
	DD	FLAT:__catch$??0?$vector@UWeaponInfo@@V?$allocator@UWeaponInfo@@@std@@@std@@QAE@ABV01@@Z$0
__unwindtable$??0?$vector@UWeaponInfo@@V?$allocator@UWeaponInfo@@@std@@@std@@QAE@ABV01@@Z DD 0ffffffffH
	DD	00H
	DD	0ffffffffH
	DD	00H
__tryblocktable$??0?$vector@UWeaponInfo@@V?$allocator@UWeaponInfo@@@std@@@std@@QAE@ABV01@@Z DD 00H
	DD	00H
	DD	01H
	DD	01H
	DD	FLAT:__catchsym$??0?$vector@UWeaponInfo@@V?$allocator@UWeaponInfo@@@std@@@std@@QAE@ABV01@@Z$2
__ehfuncinfo$??0?$vector@UWeaponInfo@@V?$allocator@UWeaponInfo@@@std@@@std@@QAE@ABV01@@Z DD 019930522H
	DD	02H
	DD	FLAT:__unwindtable$??0?$vector@UWeaponInfo@@V?$allocator@UWeaponInfo@@@std@@@std@@QAE@ABV01@@Z
	DD	01H
	DD	FLAT:__tryblocktable$??0?$vector@UWeaponInfo@@V?$allocator@UWeaponInfo@@@std@@@std@@QAE@ABV01@@Z
	DD	2 DUP(00H)
	DD	00H
	DD	01H
; Function compile flags: /Ogsp
; File c:\program files (x86)\microsoft visual studio 10.0\vc\include\vector
xdata$x	ENDS
;	COMDAT ??0?$vector@UWeaponInfo@@V?$allocator@UWeaponInfo@@@std@@@std@@QAE@ABV01@@Z
_TEXT	SEGMENT
_this$ = -20						; size = 4
__$EHRec$ = -16						; size = 16
__Cat$541542 = 8					; size = 1
__Right$ = 8						; size = 4
??0?$vector@UWeaponInfo@@V?$allocator@UWeaponInfo@@@std@@@std@@QAE@ABV01@@Z PROC ; std::vector<WeaponInfo,std::allocator<WeaponInfo> >::vector<WeaponInfo,std::allocator<WeaponInfo> >, COMDAT
; _this$ = ecx

; 535  : 		{	// construct by copying _Right

  00000	6a 08		 push	 8
  00002	b8 00 00 00 00	 mov	 eax, __ehhandler$??0?$vector@UWeaponInfo@@V?$allocator@UWeaponInfo@@@std@@@std@@QAE@ABV01@@Z
  00007	e8 00 00 00 00	 call	 __EH_prolog3_catch
  0000c	8b f1		 mov	 esi, ecx
  0000e	89 75 ec	 mov	 DWORD PTR _this$[ebp], esi

; 536  : 		if (_Buy(_Right.size()))

  00011	8b 7d 08	 mov	 edi, DWORD PTR __Right$[ebp]
  00014	33 db		 xor	 ebx, ebx
  00016	89 1e		 mov	 DWORD PTR [esi], ebx
  00018	89 5e 04	 mov	 DWORD PTR [esi+4], ebx
  0001b	89 5e 08	 mov	 DWORD PTR [esi+8], ebx
  0001e	8b 47 04	 mov	 eax, DWORD PTR [edi+4]
  00021	2b 07		 sub	 eax, DWORD PTR [edi]
  00023	6a 28		 push	 40			; 00000028H
  00025	59		 pop	 ecx
  00026	99		 cdq
  00027	f7 f9		 idiv	 ecx
  00029	8b ce		 mov	 ecx, esi
  0002b	50		 push	 eax
  0002c	e8 00 00 00 00	 call	 ?_Buy@?$vector@UWeaponInfo@@V?$allocator@UWeaponInfo@@@std@@@std@@IAE_NI@Z ; std::vector<WeaponInfo,std::allocator<WeaponInfo> >::_Buy
  00031	84 c0		 test	 al, al
  00033	74 1f		 je	 SHORT $LN7@vector@2

; 537  : 			_TRY_BEGIN
; 538  : 			this->_Mylast = _Ucopy(_Right.begin(), _Right.end(),
; 539  : 				this->_Myfirst);

  00035	ff 75 08	 push	 DWORD PTR __Cat$541542[ebp]
  00038	8b 0e		 mov	 ecx, DWORD PTR [esi]
  0003a	8b 47 04	 mov	 eax, DWORD PTR [edi+4]
  0003d	8b 3f		 mov	 edi, DWORD PTR [edi]
  0003f	8d 56 0c	 lea	 edx, DWORD PTR [esi+12]
  00042	52		 push	 edx
  00043	51		 push	 ecx
  00044	50		 push	 eax
  00045	57		 push	 edi
  00046	89 5d fc	 mov	 DWORD PTR __$EHRec$[ebp+12], ebx
  00049	e8 00 00 00 00	 call	 ??$_Uninit_copy@V?$_Vector_const_iterator@V?$_Vector_val@UWeaponInfo@@V?$allocator@UWeaponInfo@@@std@@@std@@@std@@PAUWeaponInfo@@V?$allocator@UWeaponInfo@@@2@@std@@YAPAUWeaponInfo@@V?$_Vector_const_iterator@V?$_Vector_val@UWeaponInfo@@V?$allocator@UWeaponInfo@@@std@@@std@@@0@0PAU1@AAV?$allocator@UWeaponInfo@@@0@U_Nonscalar_ptr_iterator_tag@0@@Z ; std::_Uninit_copy<std::_Vector_const_iterator<std::_Vector_val<WeaponInfo,std::allocator<WeaponInfo> > >,WeaponInfo *,std::allocator<WeaponInfo> >
  0004e	83 c4 14	 add	 esp, 20			; 00000014H
  00051	89 46 04	 mov	 DWORD PTR [esi+4], eax
$LN7@vector@2:

; 543  : 			_CATCH_END
; 544  : 		}

  00054	8b c6		 mov	 eax, esi
  00056	e8 00 00 00 00	 call	 __EH_epilog3
  0005b	c2 04 00	 ret	 4
__catch$??0?$vector@UWeaponInfo@@V?$allocator@UWeaponInfo@@@std@@@std@@QAE@ABV01@@Z$0:

; 540  : 			_CATCH_ALL
; 541  : 			_Tidy();

  0005e	8b 4d ec	 mov	 ecx, DWORD PTR _this$[ebp]
  00061	e8 00 00 00 00	 call	 ?_Tidy@?$vector@UWeaponInfo@@V?$allocator@UWeaponInfo@@@std@@@std@@IAEXXZ ; std::vector<WeaponInfo,std::allocator<WeaponInfo> >::_Tidy

; 542  : 			_RERAISE;

  00066	33 db		 xor	 ebx, ebx
  00068	53		 push	 ebx
  00069	53		 push	 ebx
  0006a	e8 00 00 00 00	 call	 __CxxThrowException@8
$LN38@vector@2:
$LN37@vector@2:
  0006f	cc		 int	 3
_TEXT	ENDS
;	COMDAT text$x
text$x	SEGMENT
__ehhandler$??0?$vector@UWeaponInfo@@V?$allocator@UWeaponInfo@@@std@@@std@@QAE@ABV01@@Z:
  00000	8b 54 24 08	 mov	 edx, DWORD PTR [esp+8]
  00004	8d 42 0c	 lea	 eax, DWORD PTR [edx+12]
  00007	8b 4a e8	 mov	 ecx, DWORD PTR [edx-24]
  0000a	33 c8		 xor	 ecx, eax
  0000c	e8 00 00 00 00	 call	 @__security_check_cookie@4
  00011	b8 00 00 00 00	 mov	 eax, OFFSET __ehfuncinfo$??0?$vector@UWeaponInfo@@V?$allocator@UWeaponInfo@@@std@@@std@@QAE@ABV01@@Z
  00016	e9 00 00 00 00	 jmp	 ___CxxFrameHandler3
text$x	ENDS
??0?$vector@UWeaponInfo@@V?$allocator@UWeaponInfo@@@std@@@std@@QAE@ABV01@@Z ENDP ; std::vector<WeaponInfo,std::allocator<WeaponInfo> >::vector<WeaponInfo,std::allocator<WeaponInfo> >
PUBLIC	?push_back@?$vector@UAniRotateInfo@@V?$allocator@UAniRotateInfo@@@std@@@std@@QAEXABUAniRotateInfo@@@Z ; std::vector<AniRotateInfo,std::allocator<AniRotateInfo> >::push_back
; Function compile flags: /Ogsp
;	COMDAT ?push_back@?$vector@UAniRotateInfo@@V?$allocator@UAniRotateInfo@@@std@@@std@@QAEXABUAniRotateInfo@@@Z
_TEXT	SEGMENT
__Val$ = 8						; size = 4
?push_back@?$vector@UAniRotateInfo@@V?$allocator@UAniRotateInfo@@@std@@@std@@QAEXABUAniRotateInfo@@@Z PROC ; std::vector<AniRotateInfo,std::allocator<AniRotateInfo> >::push_back, COMDAT
; _this$ = ecx

; 976  : 		{	// insert element at end

  00000	55		 push	 ebp
  00001	8b ec		 mov	 ebp, esp
  00003	56		 push	 esi
  00004	8b f1		 mov	 esi, ecx

; 977  : 		if (_Inside(_STD addressof(_Val)))

  00006	8b 46 04	 mov	 eax, DWORD PTR [esi+4]
  00009	57		 push	 edi
  0000a	8b 7d 08	 mov	 edi, DWORD PTR __Val$[ebp]
  0000d	3b f8		 cmp	 edi, eax
  0000f	73 2d		 jae	 SHORT $LN4@push_back
  00011	8b 0e		 mov	 ecx, DWORD PTR [esi]
  00013	3b cf		 cmp	 ecx, edi
  00015	77 27		 ja	 SHORT $LN4@push_back

; 978  : 			{	// push back an element
; 979  : 			size_type _Idx = _STD addressof(_Val) - this->_Myfirst;

  00017	2b f9		 sub	 edi, ecx
  00019	c1 ff 03	 sar	 edi, 3

; 980  : 			if (this->_Mylast == this->_Myend)

  0001c	3b 46 08	 cmp	 eax, DWORD PTR [esi+8]
  0001f	75 09		 jne	 SHORT $LN3@push_back

; 981  : 				_Reserve(1);

  00021	6a 01		 push	 1
  00023	8b ce		 mov	 ecx, esi
  00025	e8 00 00 00 00	 call	 ?_Reserve@?$vector@UAniRotateInfo@@V?$allocator@UAniRotateInfo@@@std@@@std@@IAEXI@Z ; std::vector<AniRotateInfo,std::allocator<AniRotateInfo> >::_Reserve
$LN3@push_back:

; 982  : 			_Orphan_range(this->_Mylast, this->_Mylast);
; 983  : 			_Cons_val(this->_Alval,
; 984  : 				this->_Mylast,
; 985  : 				this->_Myfirst[_Idx]);

  0002a	8b 06		 mov	 eax, DWORD PTR [esi]
  0002c	8d 04 f8	 lea	 eax, DWORD PTR [eax+edi*8]
  0002f	50		 push	 eax
  00030	ff 76 04	 push	 DWORD PTR [esi+4]
  00033	8d 46 0c	 lea	 eax, DWORD PTR [esi+12]
  00036	50		 push	 eax
  00037	e8 00 00 00 00	 call	 ??$_Cons_val@V?$allocator@UAniRotateInfo@@@std@@UAniRotateInfo@@AAU3@@std@@YAXAAV?$allocator@UAniRotateInfo@@@0@PAUAniRotateInfo@@AAU2@@Z ; std::_Cons_val<std::allocator<AniRotateInfo>,AniRotateInfo,AniRotateInfo &>

; 986  : 			++this->_Mylast;
; 987  : 			}
; 988  : 		else

  0003c	eb 1b		 jmp	 SHORT $LN20@push_back
$LN4@push_back:

; 989  : 			{	// push back a non-element
; 990  : 			if (this->_Mylast == this->_Myend)

  0003e	3b 46 08	 cmp	 eax, DWORD PTR [esi+8]
  00041	75 09		 jne	 SHORT $LN1@push_back

; 991  : 				_Reserve(1);

  00043	6a 01		 push	 1
  00045	8b ce		 mov	 ecx, esi
  00047	e8 00 00 00 00	 call	 ?_Reserve@?$vector@UAniRotateInfo@@V?$allocator@UAniRotateInfo@@@std@@@std@@IAEXI@Z ; std::vector<AniRotateInfo,std::allocator<AniRotateInfo> >::_Reserve
$LN1@push_back:

; 992  : 			_Orphan_range(this->_Mylast, this->_Mylast);
; 993  : 			_Cons_val(this->_Alval,
; 994  : 				this->_Mylast,
; 995  : 				_Val);

  0004c	57		 push	 edi
  0004d	ff 76 04	 push	 DWORD PTR [esi+4]
  00050	8d 46 0c	 lea	 eax, DWORD PTR [esi+12]
  00053	50		 push	 eax
  00054	e8 00 00 00 00	 call	 ??$_Cons_val@V?$allocator@UAniRotateInfo@@@std@@UAniRotateInfo@@ABU3@@std@@YAXAAV?$allocator@UAniRotateInfo@@@0@PAUAniRotateInfo@@ABU2@@Z ; std::_Cons_val<std::allocator<AniRotateInfo>,AniRotateInfo,AniRotateInfo const &>
$LN20@push_back:
  00059	83 c4 0c	 add	 esp, 12			; 0000000cH

; 996  : 			++this->_Mylast;

  0005c	83 46 04 08	 add	 DWORD PTR [esi+4], 8
  00060	5f		 pop	 edi
  00061	5e		 pop	 esi

; 997  : 			}
; 998  : 		}

  00062	5d		 pop	 ebp
  00063	c2 04 00	 ret	 4
?push_back@?$vector@UAniRotateInfo@@V?$allocator@UAniRotateInfo@@@std@@@std@@QAEXABUAniRotateInfo@@@Z ENDP ; std::vector<AniRotateInfo,std::allocator<AniRotateInfo> >::push_back
_TEXT	ENDS
PUBLIC	??1?$vector@UWeaponInfo@@V?$allocator@UWeaponInfo@@@std@@@std@@QAE@XZ ; std::vector<WeaponInfo,std::allocator<WeaponInfo> >::~vector<WeaponInfo,std::allocator<WeaponInfo> >
; Function compile flags: /Ogsp
;	COMDAT ??1?$vector@UWeaponInfo@@V?$allocator@UWeaponInfo@@@std@@@std@@QAE@XZ
_TEXT	SEGMENT
??1?$vector@UWeaponInfo@@V?$allocator@UWeaponInfo@@@std@@@std@@QAE@XZ PROC ; std::vector<WeaponInfo,std::allocator<WeaponInfo> >::~vector<WeaponInfo,std::allocator<WeaponInfo> >, COMDAT
; _this$ = ecx

; 705  : 		_Tidy();

  00000	e9 00 00 00 00	 jmp	 ?_Tidy@?$vector@UWeaponInfo@@V?$allocator@UWeaponInfo@@@std@@@std@@IAEXXZ ; std::vector<WeaponInfo,std::allocator<WeaponInfo> >::_Tidy
??1?$vector@UWeaponInfo@@V?$allocator@UWeaponInfo@@@std@@@std@@QAE@XZ ENDP ; std::vector<WeaponInfo,std::allocator<WeaponInfo> >::~vector<WeaponInfo,std::allocator<WeaponInfo> >
_TEXT	ENDS
PUBLIC	??0AttackAttribute@@QAE@ABU0@@Z			; AttackAttribute::AttackAttribute
;	COMDAT xdata$x
xdata$x	SEGMENT
__unwindtable$??0AttackAttribute@@QAE@ABU0@@Z DD 0ffffffffH
	DD	FLAT:__unwindfunclet$??0AttackAttribute@@QAE@ABU0@@Z$0
	DD	00H
	DD	FLAT:__unwindfunclet$??0AttackAttribute@@QAE@ABU0@@Z$1
	DD	01H
	DD	FLAT:__unwindfunclet$??0AttackAttribute@@QAE@ABU0@@Z$2
__ehfuncinfo$??0AttackAttribute@@QAE@ABU0@@Z DD 019930522H
	DD	03H
	DD	FLAT:__unwindtable$??0AttackAttribute@@QAE@ABU0@@Z
	DD	2 DUP(00H)
	DD	2 DUP(00H)
	DD	00H
	DD	01H
; Function compile flags: /Ogsp
xdata$x	ENDS
;	COMDAT ??0AttackAttribute@@QAE@ABU0@@Z
_TEXT	SEGMENT
_this$ = -16						; size = 4
__$EHRec$ = -12						; size = 12
___that$ = 8						; size = 4
??0AttackAttribute@@QAE@ABU0@@Z PROC			; AttackAttribute::AttackAttribute, COMDAT
; _this$ = ecx
  00000	6a 04		 push	 4
  00002	b8 00 00 00 00	 mov	 eax, __ehhandler$??0AttackAttribute@@QAE@ABU0@@Z
  00007	e8 00 00 00 00	 call	 __EH_prolog3
  0000c	8b f1		 mov	 esi, ecx
  0000e	89 75 f0	 mov	 DWORD PTR _this$[ebp], esi
  00011	8b 7d 08	 mov	 edi, DWORD PTR ___that$[ebp]
  00014	8b 1d 00 00 00
	00		 mov	 ebx, DWORD PTR __imp_??0ioHashString@@QAE@ABV0@@Z
  0001a	57		 push	 edi
  0001b	ff d3		 call	 ebx
  0001d	d9 47 10	 fld	 DWORD PTR [edi+16]
  00020	83 65 fc 00	 and	 DWORD PTR __$EHRec$[ebp+8], 0
  00024	d9 5e 10	 fstp	 DWORD PTR [esi+16]
  00027	8d 47 14	 lea	 eax, DWORD PTR [edi+20]
  0002a	50		 push	 eax
  0002b	8d 4e 14	 lea	 ecx, DWORD PTR [esi+20]
  0002e	ff d3		 call	 ebx
  00030	d9 47 24	 fld	 DWORD PTR [edi+36]
  00033	8d 47 28	 lea	 eax, DWORD PTR [edi+40]
  00036	d9 5e 24	 fstp	 DWORD PTR [esi+36]
  00039	50		 push	 eax
  0003a	8d 4e 28	 lea	 ecx, DWORD PTR [esi+40]
  0003d	c6 45 fc 01	 mov	 BYTE PTR __$EHRec$[ebp+8], 1
  00041	e8 00 00 00 00	 call	 ??0?$vector@UWeaponInfo@@V?$allocator@UWeaponInfo@@@std@@@std@@QAE@ABV01@@Z ; std::vector<WeaponInfo,std::allocator<WeaponInfo> >::vector<WeaponInfo,std::allocator<WeaponInfo> >
  00046	8d 47 38	 lea	 eax, DWORD PTR [edi+56]
  00049	50		 push	 eax
  0004a	8d 4e 38	 lea	 ecx, DWORD PTR [esi+56]
  0004d	c6 45 fc 02	 mov	 BYTE PTR __$EHRec$[ebp+8], 2
  00051	e8 00 00 00 00	 call	 ??0?$vector@UForceInfo@@V?$allocator@UForceInfo@@@std@@@std@@QAE@ABV01@@Z ; std::vector<ForceInfo,std::allocator<ForceInfo> >::vector<ForceInfo,std::allocator<ForceInfo> >
  00056	8b 47 48	 mov	 eax, DWORD PTR [edi+72]
  00059	89 46 48	 mov	 DWORD PTR [esi+72], eax
  0005c	8b 47 4c	 mov	 eax, DWORD PTR [edi+76]
  0005f	89 46 4c	 mov	 DWORD PTR [esi+76], eax
  00062	8b c6		 mov	 eax, esi
  00064	e8 00 00 00 00	 call	 __EH_epilog3
  00069	c2 04 00	 ret	 4
_TEXT	ENDS
;	COMDAT text$x
text$x	SEGMENT
__unwindfunclet$??0AttackAttribute@@QAE@ABU0@@Z$0:
  00000	8b 4d f0	 mov	 ecx, DWORD PTR _this$[ebp]
  00003	ff 25 00 00 00
	00		 jmp	 DWORD PTR __imp_??1ioHashString@@QAE@XZ
__unwindfunclet$??0AttackAttribute@@QAE@ABU0@@Z$1:
  00009	8b 4d f0	 mov	 ecx, DWORD PTR _this$[ebp]
  0000c	83 c1 14	 add	 ecx, 20			; 00000014H
  0000f	ff 25 00 00 00
	00		 jmp	 DWORD PTR __imp_??1ioHashString@@QAE@XZ
__unwindfunclet$??0AttackAttribute@@QAE@ABU0@@Z$2:
  00015	8b 4d f0	 mov	 ecx, DWORD PTR _this$[ebp]
  00018	83 c1 28	 add	 ecx, 40			; 00000028H
  0001b	e9 00 00 00 00	 jmp	 ??1?$vector@UWeaponInfo@@V?$allocator@UWeaponInfo@@@std@@@std@@QAE@XZ ; std::vector<WeaponInfo,std::allocator<WeaponInfo> >::~vector<WeaponInfo,std::allocator<WeaponInfo> >
__ehhandler$??0AttackAttribute@@QAE@ABU0@@Z:
  00020	8b 54 24 08	 mov	 edx, DWORD PTR [esp+8]
  00024	8d 42 0c	 lea	 eax, DWORD PTR [edx+12]
  00027	8b 4a ec	 mov	 ecx, DWORD PTR [edx-20]
  0002a	33 c8		 xor	 ecx, eax
  0002c	e8 00 00 00 00	 call	 @__security_check_cookie@4
  00031	b8 00 00 00 00	 mov	 eax, OFFSET __ehfuncinfo$??0AttackAttribute@@QAE@ABU0@@Z
  00036	e9 00 00 00 00	 jmp	 ___CxxFrameHandler3
text$x	ENDS
??0AttackAttribute@@QAE@ABU0@@Z ENDP			; AttackAttribute::AttackAttribute
PUBLIC	??_C@_01CLKCMJKC@?5?$AA@			; `string'
PUBLIC	_pChar$GSCopy$
PUBLIC	?AttackSkillFire@ioAngleFireSkill@@MAEXPAVioBaseChar@@@Z ; ioAngleFireSkill::AttackSkillFire
EXTRN	?ReduceNeedGaugeBySkill@ioBaseChar@@QAEMPAVioSkill@@M@Z:PROC ; ioBaseChar::ReduceNeedGaugeBySkill
EXTRN	?GetNeedGauge@ioSkill@@QAEMABVioHashString@@@Z:PROC ; ioSkill::GetNeedGauge
EXTRN	?SetReservedSliding@ioBaseChar@@QAEXABV?$vector@UForceInfo@@V?$allocator@UForceInfo@@@std@@@std@@HMKM_N@Z:PROC ; ioBaseChar::SetReservedSliding
EXTRN	__imp_?SetActionAni@ioEntityGroup@@QAE_NHMMMMMM_N0@Z:PROC
EXTRN	__imp_?SetActionAni@ioEntityGroup@@QAE_NABVioHashString@@MMMMMM_N1@Z:PROC
EXTRN	?CheckCharColSkipSkillTime@ioBaseChar@@QAEXHMK@Z:PROC ; ioBaseChar::CheckCharColSkipSkillTime
EXTRN	__imp_?ParseFloat@ioStringConverter@@SAMPBD@Z:PROC
EXTRN	__imp_?Split@ioStringConverter@@SAABV?$vector@V?$basic_string@DU?$char_traits@D@std@@V?$allocator@D@2@@std@@V?$allocator@V?$basic_string@DU?$char_traits@D@std@@V?$allocator@D@2@@std@@@2@@std@@ABV?$basic_string@DU?$char_traits@D@std@@V?$allocator@D@2@@3@0H@Z:PROC
EXTRN	__imp_?c_str@ioHashString@@QBEPBDXZ:PROC
EXTRN	?SetExtraAniJump@ioSkill@@IAEXPAVioBaseChar@@HM@Z:PROC ; ioSkill::SetExtraAniJump
EXTRN	__imp_?GetAnimationFullTime@ioEntityGroup@@QAEMH@Z:PROC
EXTRN	?RefreshFireTimeListWithBase@ioBaseChar@@QAEXKHABV?$vector@UWeaponInfo@@V?$allocator@UWeaponInfo@@@std@@@std@@W4FireTimeType@@MK_N@Z:PROC ; ioBaseChar::RefreshFireTimeListWithBase
;	COMDAT ??_C@_01CLKCMJKC@?5?$AA@
CONST	SEGMENT
??_C@_01CLKCMJKC@?5?$AA@ DB ' ', 00H			; `string'
CONST	ENDS
;	COMDAT xdata$x
xdata$x	SEGMENT
__ehfuncinfo$?AttackSkillFire@ioAngleFireSkill@@MAEXPAVioBaseChar@@@Z DD 019930522H
	DD	08H
	DD	FLAT:__unwindtable$?AttackSkillFire@ioAngleFireSkill@@MAEXPAVioBaseChar@@@Z
	DD	2 DUP(00H)
	DD	2 DUP(00H)
	DD	00H
	DD	01H
__unwindtable$?AttackSkillFire@ioAngleFireSkill@@MAEXPAVioBaseChar@@@Z DD 0ffffffffH
	DD	FLAT:__unwindfunclet$?AttackSkillFire@ioAngleFireSkill@@MAEXPAVioBaseChar@@@Z$3
	DD	0ffffffffH
	DD	FLAT:__unwindfunclet$?AttackSkillFire@ioAngleFireSkill@@MAEXPAVioBaseChar@@@Z$4
	DD	0ffffffffH
	DD	FLAT:__unwindfunclet$?AttackSkillFire@ioAngleFireSkill@@MAEXPAVioBaseChar@@@Z$0
	DD	02H
	DD	FLAT:__unwindfunclet$?AttackSkillFire@ioAngleFireSkill@@MAEXPAVioBaseChar@@@Z$5
	DD	02H
	DD	FLAT:__unwindfunclet$?AttackSkillFire@ioAngleFireSkill@@MAEXPAVioBaseChar@@@Z$1
	DD	04H
	DD	FLAT:__unwindfunclet$?AttackSkillFire@ioAngleFireSkill@@MAEXPAVioBaseChar@@@Z$2
	DD	02H
	DD	FLAT:__unwindfunclet$?AttackSkillFire@ioAngleFireSkill@@MAEXPAVioBaseChar@@@Z$6
	DD	02H
	DD	FLAT:__unwindfunclet$?AttackSkillFire@ioAngleFireSkill@@MAEXPAVioBaseChar@@@Z$7
; Function compile flags: /Ogsp
; File d:\lost saga for developer\youtube\tutorial\source\src\lsclient\ioanglefireskill.cpp
xdata$x	ENDS
;	COMDAT ?AttackSkillFire@ioAngleFireSkill@@MAEXPAVioBaseChar@@@Z
_TEXT	SEGMENT
_pChar$GSCopy$ = -152					; size = 4
_value$541621 = -148					; size = 4
_dwCurTime$ = -148					; size = 4
_vAniRotateList$ = -144					; size = 16
_dwPreDelay$ = -128					; size = 4
_fTimeRate$ = -124					; size = 4
_iAniID$ = -120						; size = 4
_pGrp$ = -116						; size = 4
tv5106 = -112						; size = 4
$T541773 = -112						; size = 4
$T541741 = -112						; size = 4
_iter_r$ = -112						; size = 4
tv5784 = -108						; size = 4
tv5779 = -108						; size = 4
tv5764 = -108						; size = 4
tv5749 = -108						; size = 4
tv5697 = -108						; size = 4
tv5672 = -108						; size = 4
tv5668 = -108						; size = 4
tv5665 = -108						; size = 4
tv5649 = -108						; size = 4
tv5646 = -108						; size = 4
tv5644 = -108						; size = 4
tv5641 = -108						; size = 4
tv5625 = -108						; size = 4
tv5621 = -108						; size = 4
tv5618 = -108						; size = 4
tv5602 = -108						; size = 4
tv5599 = -108						; size = 4
tv5597 = -108						; size = 4
tv5594 = -108						; size = 4
tv5578 = -108						; size = 4
tv5576 = -108						; size = 4
tv5573 = -108						; size = 4
tv5571 = -108						; size = 4
tv4956 = -108						; size = 4
$T542712 = -108						; size = 4
$T542582 = -108						; size = 4
$T541946 = -108						; size = 4
_vParam$531319 = -108					; size = 4
$T531320 = -104						; size = 28
$T542583 = -92						; size = 16
$T542008 = -92						; size = 16
$T541774 = -92						; size = 16
$T541742 = -92						; size = 16
$T531321 = -76						; size = 28
_szEncEventType$542483 = -68				; size = 13
$T542713 = -64						; size = 16
_szEncEventType$542613 = -48				; size = 12
_szEncEventType$542021 = -32				; size = 11
_szEncEventType$541787 = -32				; size = 11
_szEncEventType$541642 = -28				; size = 7
_kInfo$531315 = -28					; size = 8
__$EHRec$ = -12						; size = 12
_pChar$ = 8						; size = 4
?AttackSkillFire@ioAngleFireSkill@@MAEXPAVioBaseChar@@@Z PROC ; ioAngleFireSkill::AttackSkillFire, COMDAT
; _this$ = ecx

; 457  : {

  00000	68 8c 00 00 00	 push	 140			; 0000008cH
  00005	b8 00 00 00 00	 mov	 eax, __ehhandler$?AttackSkillFire@ioAngleFireSkill@@MAEXPAVioBaseChar@@@Z
  0000a	e8 00 00 00 00	 call	 __EH_prolog3_GS
  0000f	8b 7d 08	 mov	 edi, DWORD PTR _pChar$[ebp]

; 458  : 	ioEntityGroup *pGrp = pChar->GetGroup();

  00012	8b 5f 04	 mov	 ebx, DWORD PTR [edi+4]
  00015	8b f1		 mov	 esi, ecx

; 459  : 	int iAniID = pGrp->GetAnimationIdx( GetAttribute().m_AttackAnimation );

  00017	8b 06		 mov	 eax, DWORD PTR [esi]
  00019	89 bd 68 ff ff
	ff		 mov	 DWORD PTR _pChar$GSCopy$[ebp], edi
  0001f	89 5d 8c	 mov	 DWORD PTR _pGrp$[ebp], ebx
  00022	ff 90 a4 01 00
	00		 call	 DWORD PTR [eax+420]
  00028	50		 push	 eax
  00029	8b cb		 mov	 ecx, ebx
  0002b	ff 15 00 00 00
	00		 call	 DWORD PTR __imp_?GetAnimationIdx@ioEntityGroup@@QAEHABVioHashString@@@Z
  00031	89 45 88	 mov	 DWORD PTR _iAniID$[ebp], eax

; 460  : 	if( iAniID == -1 )	return;

  00034	83 f8 ff	 cmp	 eax, -1
  00037	0f 84 ad 08 00
	00		 je	 $LN731@AttackSkil

; 461  : 
; 462  : 	pChar->AttachEffect( m_SkillEffectName );

  0003d	6a 01		 push	 1
  0003f	33 db		 xor	 ebx, ebx
  00041	53		 push	 ebx
  00042	8d 86 b8 01 00
	00		 lea	 eax, DWORD PTR [esi+440]
  00048	50		 push	 eax
  00049	8b cf		 mov	 ecx, edi
  0004b	e8 00 00 00 00	 call	 ?AttachEffect@ioBaseChar@@QAEPAVioEffect@@ABVioHashString@@PAVioEntityEvent@@_N@Z ; ioBaseChar::AttachEffect

; 463  : 
; 464  : 	float fTimeRate  = GetAttackTimeRate();

  00050	8b 06		 mov	 eax, DWORD PTR [esi]
  00052	8b ce		 mov	 ecx, esi
  00054	ff 90 90 01 00
	00		 call	 DWORD PTR [eax+400]
  0005a	d9 5d 84	 fstp	 DWORD PTR _fTimeRate$[ebp]

; 465  : 	DWORD dwPreDelay = GetAttribute().m_dwPreDelay;

  0005d	8b 06		 mov	 eax, DWORD PTR [esi]
  0005f	8b ce		 mov	 ecx, esi
  00061	ff 90 a4 01 00
	00		 call	 DWORD PTR [eax+420]
  00067	8b 40 48	 mov	 eax, DWORD PTR [eax+72]
  0006a	89 45 80	 mov	 DWORD PTR _dwPreDelay$[ebp], eax

; 466  : 
; 467  : 	pGrp->ClearAllLoopAni( FLOAT100, true );

  0006d	b8 64 00 00 00	 mov	 eax, 100		; 00000064H
  00072	89 45 94	 mov	 DWORD PTR tv5784[ebp], eax
  00075	db 45 94	 fild	 DWORD PTR tv5784[ebp]
  00078	6a 01		 push	 1
  0007a	85 c0		 test	 eax, eax
  0007c	79 06		 jns	 SHORT $LN774@AttackSkil
  0007e	d8 05 00 00 00
	00		 fadd	 DWORD PTR __real@4f800000
$LN774@AttackSkil:
  00084	51		 push	 ecx
  00085	8b 4d 8c	 mov	 ecx, DWORD PTR _pGrp$[ebp]
  00088	d9 1c 24	 fstp	 DWORD PTR [esp]
  0008b	ff 15 00 00 00
	00		 call	 DWORD PTR __imp_?ClearAllLoopAni@ioEntityGroup@@QAEXM_N@Z

; 468  : 	pGrp->ClearAllActionAni( FLOAT100, true );

  00091	b8 64 00 00 00	 mov	 eax, 100		; 00000064H
  00096	89 45 94	 mov	 DWORD PTR tv5779[ebp], eax
  00099	db 45 94	 fild	 DWORD PTR tv5779[ebp]
  0009c	6a 01		 push	 1
  0009e	85 c0		 test	 eax, eax
  000a0	79 06		 jns	 SHORT $LN775@AttackSkil
  000a2	d8 05 00 00 00
	00		 fadd	 DWORD PTR __real@4f800000
$LN775@AttackSkil:
  000a8	51		 push	 ecx
  000a9	8b 4d 8c	 mov	 ecx, DWORD PTR _pGrp$[ebp]
  000ac	d9 1c 24	 fstp	 DWORD PTR [esp]
  000af	ff 15 00 00 00
	00		 call	 DWORD PTR __imp_?ClearAllActionAni@ioEntityGroup@@QAEXM_N@Z

; 469  : 
; 470  : 	if( m_bRefreshFireTimeList )

  000b5	38 9e 44 10 00
	00		 cmp	 BYTE PTR [esi+4164], bl
  000bb	74 2c		 je	 SHORT $LN17@AttackSkil

; 471  : 	{
; 472  : 		pChar->RefreshFireTimeListWithBase( m_dwWeaponBaseIndex,
; 473  : 											iAniID,
; 474  : 											GetAttribute().m_vWeaponInfoList,
; 475  : 											FTT_SKILL_ATTACK,
; 476  : 											fTimeRate,
; 477  : 											dwPreDelay );

  000bd	f3 0f 10 45 84	 movss	 xmm0, DWORD PTR _fTimeRate$[ebp]
  000c2	8b 06		 mov	 eax, DWORD PTR [esi]
  000c4	53		 push	 ebx
  000c5	ff 75 80	 push	 DWORD PTR _dwPreDelay$[ebp]
  000c8	51		 push	 ecx
  000c9	f3 0f 11 04 24	 movss	 DWORD PTR [esp], xmm0
  000ce	6a 04		 push	 4
  000d0	8b ce		 mov	 ecx, esi
  000d2	ff 90 a4 01 00
	00		 call	 DWORD PTR [eax+420]
  000d8	83 c0 28	 add	 eax, 40			; 00000028H
  000db	50		 push	 eax
  000dc	ff 75 88	 push	 DWORD PTR _iAniID$[ebp]
  000df	8b cf		 mov	 ecx, edi
  000e1	ff 76 78	 push	 DWORD PTR [esi+120]
  000e4	e8 00 00 00 00	 call	 ?RefreshFireTimeListWithBase@ioBaseChar@@QAEXKHABV?$vector@UWeaponInfo@@V?$allocator@UWeaponInfo@@@std@@@std@@W4FireTimeType@@MK_N@Z ; ioBaseChar::RefreshFireTimeListWithBase
$LN17@AttackSkil:

; 478  : 	}
; 479  : 
; 480  : 	m_dwMotionStartTime = m_dwMotionEndTime = FRAMEGETTIME();

  000e9	ff 15 00 00 00
	00		 call	 DWORD PTR __imp_?GetSingleton@ioFrameTimer@@SAAAV1@XZ
  000ef	8b c8		 mov	 ecx, eax
  000f1	ff 15 00 00 00
	00		 call	 DWORD PTR __imp_?GetLoopSec@ioFrameTimer@@QBEKXZ
  000f7	89 86 d8 02 00
	00		 mov	 DWORD PTR [esi+728], eax
  000fd	89 85 6c ff ff
	ff		 mov	 DWORD PTR _value$541621[ebp], eax
  00103	8d 85 6c ff ff
	ff		 lea	 eax, DWORD PTR _value$541621[ebp]
  00109	50		 push	 eax
  0010a	8d 8e a8 02 00
	00		 lea	 ecx, DWORD PTR [esi+680]
  00110	e8 00 00 00 00	 call	 ?EncryptValueToPool@?$CEncrypt@K@@AAEXPBD@Z ; CEncrypt<unsigned long>::EncryptValueToPool

; 481  : 	m_dwMotionEndTime += pGrp->GetAnimationFullTime( iAniID ) * fTimeRate;

  00115	ff 75 88	 push	 DWORD PTR _iAniID$[ebp]
  00118	8b 4d 8c	 mov	 ecx, DWORD PTR _pGrp$[ebp]
  0011b	ff 15 00 00 00
	00		 call	 DWORD PTR __imp_?GetAnimationFullTime@ioEntityGroup@@QAEMH@Z
  00121	d8 4d 84	 fmul	 DWORD PTR _fTimeRate$[ebp]
  00124	8b 86 d8 02 00
	00		 mov	 eax, DWORD PTR [esi+728]
  0012a	db 86 d8 02 00
	00		 fild	 DWORD PTR [esi+728]
  00130	85 c0		 test	 eax, eax
  00132	79 06		 jns	 SHORT $LN776@AttackSkil
  00134	dc 05 00 00 00
	00		 fadd	 QWORD PTR __real@41f0000000000000
$LN776@AttackSkil:
  0013a	de c1		 faddp	 ST(1), ST(0)
  0013c	e8 00 00 00 00	 call	 __ftol2
  00141	89 86 d8 02 00
	00		 mov	 DWORD PTR [esi+728], eax

; 482  : 	m_dwMotionEndTime += dwPreDelay + GetAttribute().m_dwEndDelay;

  00147	8b 06		 mov	 eax, DWORD PTR [esi]
  00149	8b ce		 mov	 ecx, esi
  0014b	ff 90 a4 01 00
	00		 call	 DWORD PTR [eax+420]
  00151	8b 40 4c	 mov	 eax, DWORD PTR [eax+76]
  00154	03 45 80	 add	 eax, DWORD PTR _dwPreDelay$[ebp]
  00157	01 86 d8 02 00
	00		 add	 DWORD PTR [esi+728], eax

; 483  : 
; 484  : 	DWORD dwCurTime = FRAMEGETTIME();

  0015d	ff 15 00 00 00
	00		 call	 DWORD PTR __imp_?GetSingleton@ioFrameTimer@@SAAAV1@XZ
  00163	8b c8		 mov	 ecx, eax
  00165	ff 15 00 00 00
	00		 call	 DWORD PTR __imp_?GetLoopSec@ioFrameTimer@@QBEKXZ
  0016b	89 85 6c ff ff
	ff		 mov	 DWORD PTR _dwCurTime$[ebp], eax

; 485  : 
; 486  : 	m_dwFireStartTime = 0;
; 487  : 	m_dwFireStartTime = m_dwFireMotionEndTime = dwCurTime;

  00171	89 86 24 02 00
	00		 mov	 DWORD PTR [esi+548], eax

; 488  : 
; 489  : 	m_dwFireStartTime += dwPreDelay;

  00177	03 45 80	 add	 eax, DWORD PTR _dwPreDelay$[ebp]

; 490  : 	m_dwFireStartTime += pGrp->GetAnimationEventTime_e( iAniID, "fire_s" ) * fTimeRate;

  0017a	6a 04		 push	 4
  0017c	89 86 a4 11 00
	00		 mov	 DWORD PTR [esi+4516], eax
  00182	c7 45 e4 8b 85
	99 8f		 mov	 DWORD PTR _szEncEventType$541642[ebp], -1885764213 ; 8f99858bH
  00189	81 75 e4 ed ec
	eb ea		 xor	 DWORD PTR _szEncEventType$541642[ebp], -353637139 ; eaebecedH
  00190	66 c7 45 e8 b2
	9f		 mov	 WORD PTR _szEncEventType$541642[ebp+4], 40882 ; 00009fb2H
  00196	88 5d ea	 mov	 BYTE PTR _szEncEventType$541642[ebp+6], bl
  00199	58		 pop	 eax
$LL133@AttackSkil:
  0019a	8b c8		 mov	 ecx, eax
  0019c	81 e1 03 00 00
	80		 and	 ecx, -2147483645	; 80000003H
  001a2	79 05		 jns	 SHORT $LN777@AttackSkil
  001a4	49		 dec	 ecx
  001a5	83 c9 fc	 or	 ecx, -4			; fffffffcH
  001a8	41		 inc	 ecx
$LN777@AttackSkil:
  001a9	b2 ed		 mov	 dl, -19			; ffffffedH
  001ab	2a d1		 sub	 dl, cl
  001ad	30 54 05 e4	 xor	 BYTE PTR _szEncEventType$541642[ebp+eax], dl
  001b1	40		 inc	 eax
  001b2	83 f8 06	 cmp	 eax, 6
  001b5	7c e3		 jl	 SHORT $LL133@AttackSkil
  001b7	8d 45 e4	 lea	 eax, DWORD PTR _szEncEventType$541642[ebp]
  001ba	50		 push	 eax
  001bb	8d 4d a4	 lea	 ecx, DWORD PTR $T541742[ebp]
  001be	ff 15 00 00 00
	00		 call	 DWORD PTR __imp_??0ioHashString@@QAE@PBD@Z
  001c4	8b 4d 8c	 mov	 ecx, DWORD PTR _pGrp$[ebp]
  001c7	8d 45 a4	 lea	 eax, DWORD PTR $T541742[ebp]
  001ca	50		 push	 eax
  001cb	ff 75 88	 push	 DWORD PTR _iAniID$[ebp]
  001ce	89 5d fc	 mov	 DWORD PTR __$EHRec$[ebp+8], ebx
  001d1	ff 15 00 00 00
	00		 call	 DWORD PTR __imp_?GetAnimationEventTime@ioEntityGroup@@QAEMHABVioHashString@@@Z
  001d7	d9 5d 90	 fstp	 DWORD PTR $T541741[ebp]
  001da	83 4d fc ff	 or	 DWORD PTR __$EHRec$[ebp+8], -1
  001de	8d 4d a4	 lea	 ecx, DWORD PTR $T541742[ebp]
  001e1	ff 15 00 00 00
	00		 call	 DWORD PTR __imp_??1ioHashString@@QAE@XZ
  001e7	d9 45 90	 fld	 DWORD PTR $T541741[ebp]
  001ea	8b 86 a4 11 00
	00		 mov	 eax, DWORD PTR [esi+4516]
  001f0	d8 4d 84	 fmul	 DWORD PTR _fTimeRate$[ebp]
  001f3	db 86 a4 11 00
	00		 fild	 DWORD PTR [esi+4516]
  001f9	85 c0		 test	 eax, eax
  001fb	79 06		 jns	 SHORT $LN778@AttackSkil
  001fd	dc 05 00 00 00
	00		 fadd	 QWORD PTR __real@41f0000000000000
$LN778@AttackSkil:
  00203	de c1		 faddp	 ST(1), ST(0)
  00205	e8 00 00 00 00	 call	 __ftol2
  0020a	6a 02		 push	 2
  0020c	89 86 a4 11 00
	00		 mov	 DWORD PTR [esi+4516], eax

; 491  : 
; 492  : 	m_dwAttackEndTime = pGrp->GetAnimationEventTime_e( iAniID, "attack_end" ) * fTimeRate;

  00212	c7 45 e0 8c 98
	9f 8b		 mov	 DWORD PTR _szEncEventType$541787[ebp], -1952474996 ; 8b9f988cH
  00219	c7 45 e4 8e 87
	b4 8f		 mov	 DWORD PTR _szEncEventType$541787[ebp+4], -1883994226 ; 8fb4878eH
  00220	66 c7 45 e8 83
	88		 mov	 WORD PTR _szEncEventType$541787[ebp+8], 34947 ; 00008883H
  00226	8d 45 e0	 lea	 eax, DWORD PTR _szEncEventType$541787[ebp]
  00229	88 5d ea	 mov	 BYTE PTR _szEncEventType$541787[ebp+10], bl
  0022c	59		 pop	 ecx
$LL243@AttackSkil:
  0022d	81 30 ed ec eb
	ea		 xor	 DWORD PTR [eax], -353637139 ; eaebecedH
  00233	83 c0 04	 add	 eax, 4
  00236	49		 dec	 ecx
  00237	75 f4		 jne	 SHORT $LL243@AttackSkil
  00239	6a 08		 push	 8
  0023b	58		 pop	 eax
$LL240@AttackSkil:
  0023c	8b c8		 mov	 ecx, eax
  0023e	81 e1 03 00 00
	80		 and	 ecx, -2147483645	; 80000003H
  00244	79 05		 jns	 SHORT $LN779@AttackSkil
  00246	49		 dec	 ecx
  00247	83 c9 fc	 or	 ecx, -4			; fffffffcH
  0024a	41		 inc	 ecx
$LN779@AttackSkil:
  0024b	b2 ed		 mov	 dl, -19			; ffffffedH
  0024d	2a d1		 sub	 dl, cl
  0024f	30 54 05 e0	 xor	 BYTE PTR _szEncEventType$541787[ebp+eax], dl
  00253	40		 inc	 eax
  00254	83 f8 0a	 cmp	 eax, 10			; 0000000aH
  00257	7c e3		 jl	 SHORT $LL240@AttackSkil
  00259	8d 45 e0	 lea	 eax, DWORD PTR _szEncEventType$541787[ebp]
  0025c	50		 push	 eax
  0025d	8d 4d a4	 lea	 ecx, DWORD PTR $T541774[ebp]
  00260	ff 15 00 00 00
	00		 call	 DWORD PTR __imp_??0ioHashString@@QAE@PBD@Z
  00266	8b 4d 8c	 mov	 ecx, DWORD PTR _pGrp$[ebp]
  00269	8d 45 a4	 lea	 eax, DWORD PTR $T541774[ebp]
  0026c	50		 push	 eax
  0026d	ff 75 88	 push	 DWORD PTR _iAniID$[ebp]
  00270	c7 45 fc 01 00
	00 00		 mov	 DWORD PTR __$EHRec$[ebp+8], 1
  00277	ff 15 00 00 00
	00		 call	 DWORD PTR __imp_?GetAnimationEventTime@ioEntityGroup@@QAEMHABVioHashString@@@Z
  0027d	d9 5d 90	 fstp	 DWORD PTR $T541773[ebp]
  00280	83 4d fc ff	 or	 DWORD PTR __$EHRec$[ebp+8], -1
  00284	8d 4d a4	 lea	 ecx, DWORD PTR $T541774[ebp]
  00287	ff 15 00 00 00
	00		 call	 DWORD PTR __imp_??1ioHashString@@QAE@XZ
  0028d	d9 45 90	 fld	 DWORD PTR $T541773[ebp]
  00290	d8 4d 84	 fmul	 DWORD PTR _fTimeRate$[ebp]
  00293	e8 00 00 00 00	 call	 __ftol2
  00298	8d 8e 50 10 00
	00		 lea	 ecx, DWORD PTR [esi+4176]
  0029e	89 01		 mov	 DWORD PTR [ecx], eax

; 493  : 	if( m_dwAttackEndTime > 0 )

  002a0	3b c3		 cmp	 eax, ebx
  002a2	76 0a		 jbe	 SHORT $LN16@AttackSkil

; 494  : 		m_dwAttackEndTime += dwCurTime;

  002a4	03 85 6c ff ff
	ff		 add	 eax, DWORD PTR _dwCurTime$[ebp]
  002aa	89 01		 mov	 DWORD PTR [ecx], eax

; 495  : 	else

  002ac	eb 02		 jmp	 SHORT $LN15@AttackSkil
$LN16@AttackSkil:

; 496  : 		m_dwAttackEndTime = 0;

  002ae	89 19		 mov	 DWORD PTR [ecx], ebx
$LN15@AttackSkil:

; 497  : 
; 498  : 	//
; 499  : 	SetExtraAniJump( pChar, iAniID, fTimeRate );

  002b0	f3 0f 10 45 84	 movss	 xmm0, DWORD PTR _fTimeRate$[ebp]
  002b5	51		 push	 ecx
  002b6	f3 0f 11 04 24	 movss	 DWORD PTR [esp], xmm0
  002bb	ff 75 88	 push	 DWORD PTR _iAniID$[ebp]
  002be	8b ce		 mov	 ecx, esi
  002c0	ff b5 68 ff ff
	ff		 push	 DWORD PTR _pChar$GSCopy$[ebp]
  002c6	e8 00 00 00 00	 call	 ?SetExtraAniJump@ioSkill@@IAEXPAVioBaseChar@@HM@Z ; ioSkill::SetExtraAniJump

; 500  : 
; 501  : 	m_dwAniRotateTime = 0;
; 502  : 	m_fAniRotateAngle = 0.0f;

  002cb	0f 57 c0	 xorps	 xmm0, xmm0

; 503  : 	m_vAniRotateInfoList.clear();

  002ce	8d 8e 18 07 00
	00		 lea	 ecx, DWORD PTR [esi+1816]
  002d4	89 9e 2c 07 00
	00		 mov	 DWORD PTR [esi+1836], ebx
  002da	f3 0f 11 86 30
	07 00 00	 movss	 DWORD PTR [esi+1840], xmm0
  002e2	8b 41 04	 mov	 eax, DWORD PTR [ecx+4]
  002e5	8b 11		 mov	 edx, DWORD PTR [ecx]
  002e7	50		 push	 eax
  002e8	52		 push	 edx
  002e9	8d 45 94	 lea	 eax, DWORD PTR $T541946[ebp]
  002ec	50		 push	 eax
  002ed	e8 00 00 00 00	 call	 ?erase@?$vector@UAniRotateInfo@@V?$allocator@UAniRotateInfo@@@std@@@std@@QAE?AV?$_Vector_iterator@V?$_Vector_val@UAniRotateInfo@@V?$allocator@UAniRotateInfo@@@std@@@std@@@2@V?$_Vector_const_iterator@V?$_Vector_val@UAniRotateInfo@@V?$allocator@UAniRotateInfo@@@std@@@std@@@2@0@Z ; std::vector<AniRotateInfo,std::allocator<AniRotateInfo> >::erase

; 504  : 
; 505  : 	AniEventConstPtrList vAniRotateList;

  002f2	89 9d 70 ff ff
	ff		 mov	 DWORD PTR _vAniRotateList$[ebp], ebx
  002f8	89 9d 74 ff ff
	ff		 mov	 DWORD PTR _vAniRotateList$[ebp+4], ebx
  002fe	89 9d 78 ff ff
	ff		 mov	 DWORD PTR _vAniRotateList$[ebp+8], ebx
  00304	6a 02		 push	 2
  00306	59		 pop	 ecx
  00307	89 4d fc	 mov	 DWORD PTR __$EHRec$[ebp+8], ecx

; 506  : 	pGrp->GetAnimationEventConstPtrList_e( iAniID, "ani_rotate", vAniRotateList );

  0030a	c7 45 e0 8c 82
	82 b5		 mov	 DWORD PTR _szEncEventType$542021[ebp], -1249738100 ; b582828cH
  00311	c7 45 e4 9f 83
	9f 8b		 mov	 DWORD PTR _szEncEventType$542021[ebp+4], -1952480353 ; 8b9f839fH
  00318	66 c7 45 e8 99
	89		 mov	 WORD PTR _szEncEventType$542021[ebp+8], 35225 ; 00008999H
  0031e	8d 45 e0	 lea	 eax, DWORD PTR _szEncEventType$542021[ebp]
  00321	88 5d ea	 mov	 BYTE PTR _szEncEventType$542021[ebp+10], bl
$LL376@AttackSkil:
  00324	81 30 ed ec eb
	ea		 xor	 DWORD PTR [eax], -353637139 ; eaebecedH
  0032a	83 c0 04	 add	 eax, 4
  0032d	49		 dec	 ecx
  0032e	75 f4		 jne	 SHORT $LL376@AttackSkil
  00330	6a 08		 push	 8
  00332	58		 pop	 eax
$LL373@AttackSkil:
  00333	8b c8		 mov	 ecx, eax
  00335	81 e1 03 00 00
	80		 and	 ecx, -2147483645	; 80000003H
  0033b	79 05		 jns	 SHORT $LN780@AttackSkil
  0033d	49		 dec	 ecx
  0033e	83 c9 fc	 or	 ecx, -4			; fffffffcH
  00341	41		 inc	 ecx
$LN780@AttackSkil:
  00342	b2 ed		 mov	 dl, -19			; ffffffedH
  00344	2a d1		 sub	 dl, cl
  00346	30 54 05 e0	 xor	 BYTE PTR _szEncEventType$542021[ebp+eax], dl
  0034a	40		 inc	 eax
  0034b	83 f8 0a	 cmp	 eax, 10			; 0000000aH
  0034e	7c e3		 jl	 SHORT $LL373@AttackSkil
  00350	8d 45 e0	 lea	 eax, DWORD PTR _szEncEventType$542021[ebp]
  00353	50		 push	 eax
  00354	8d 4d a4	 lea	 ecx, DWORD PTR $T542008[ebp]
  00357	ff 15 00 00 00
	00		 call	 DWORD PTR __imp_??0ioHashString@@QAE@PBD@Z
  0035d	8b 4d 8c	 mov	 ecx, DWORD PTR _pGrp$[ebp]
  00360	8d 85 70 ff ff
	ff		 lea	 eax, DWORD PTR _vAniRotateList$[ebp]
  00366	50		 push	 eax
  00367	8d 45 a4	 lea	 eax, DWORD PTR $T542008[ebp]
  0036a	50		 push	 eax
  0036b	ff 75 88	 push	 DWORD PTR _iAniID$[ebp]
  0036e	c6 45 fc 03	 mov	 BYTE PTR __$EHRec$[ebp+8], 3
  00372	ff 15 00 00 00
	00		 call	 DWORD PTR __imp_?GetAnimationEventConstPtrList@ioEntityGroup@@QAEHHABVioHashString@@AAV?$vector@PBUAniEventTime@@V?$allocator@PBUAniEventTime@@@std@@@std@@@Z
  00378	8d 4d a4	 lea	 ecx, DWORD PTR $T542008[ebp]
  0037b	c6 45 fc 02	 mov	 BYTE PTR __$EHRec$[ebp+8], 2
  0037f	ff 15 00 00 00
	00		 call	 DWORD PTR __imp_??1ioHashString@@QAE@XZ

; 507  : 
; 508  : 	AniEventConstPtrList::iterator iter_r = vAniRotateList.begin();

  00385	8b 85 70 ff ff
	ff		 mov	 eax, DWORD PTR _vAniRotateList$[ebp]
  0038b	89 45 90	 mov	 DWORD PTR _iter_r$[ebp], eax
  0038e	e9 fa 00 00 00	 jmp	 $LN794@AttackSkil
$LN14@AttackSkil:

; 510  : 	{
; 511  : 		AniRotateInfo kInfo;
; 512  : 
; 513  : 		kInfo.m_dwTime = (*iter_r)->fEventTime * fTimeRate;

  00393	8b 45 90	 mov	 eax, DWORD PTR _iter_r$[ebp]
  00396	8b 00		 mov	 eax, DWORD PTR [eax]
  00398	d9 00		 fld	 DWORD PTR [eax]
  0039a	0f 57 c0	 xorps	 xmm0, xmm0
  0039d	d8 4d 84	 fmul	 DWORD PTR _fTimeRate$[ebp]
  003a0	f3 0f 11 45 e8	 movss	 DWORD PTR _kInfo$531315[ebp+4], xmm0
  003a5	e8 00 00 00 00	 call	 __ftol2

; 514  : 
; 515  : 		if( kInfo.m_dwTime > 0 )

  003aa	3b c3		 cmp	 eax, ebx
  003ac	76 0b		 jbe	 SHORT $LN12@AttackSkil

; 516  : 			kInfo.m_dwTime += dwCurTime;

  003ae	03 85 6c ff ff
	ff		 add	 eax, DWORD PTR _dwCurTime$[ebp]
  003b4	89 45 e4	 mov	 DWORD PTR _kInfo$531315[ebp], eax

; 517  : 		else

  003b7	eb 03		 jmp	 SHORT $LN11@AttackSkil
$LN12@AttackSkil:

; 518  : 			kInfo.m_dwTime = 0;

  003b9	89 5d e4	 mov	 DWORD PTR _kInfo$531315[ebp], ebx
$LN11@AttackSkil:

; 519  : 
; 520  : 		if( !(*iter_r)->szSubInfo.IsEmpty() )

  003bc	8b 45 90	 mov	 eax, DWORD PTR _iter_r$[ebp]
  003bf	8b 08		 mov	 ecx, DWORD PTR [eax]
  003c1	8d 49 14	 lea	 ecx, DWORD PTR [ecx+20]
  003c4	ff 15 00 00 00
	00		 call	 DWORD PTR __imp_?IsEmpty@ioHashString@@QBE_NXZ
  003ca	84 c0		 test	 al, al
  003cc	0f 85 a5 00 00
	00		 jne	 $LN9@AttackSkil

; 521  : 		{
; 522  : 			const StringVector &vParam = ioStringConverter::Split( (*iter_r)->szSubInfo.c_str(), " " );

  003d2	6a 01		 push	 1
  003d4	68 00 00 00 00	 push	 OFFSET ??_C@_01CLKCMJKC@?5?$AA@
  003d9	8d 4d 98	 lea	 ecx, DWORD PTR $T531320[ebp]
  003dc	c7 45 ac 0f 00
	00 00		 mov	 DWORD PTR $T531320[ebp+20], 15 ; 0000000fH
  003e3	89 5d a8	 mov	 DWORD PTR $T531320[ebp+16], ebx
  003e6	88 5d 98	 mov	 BYTE PTR $T531320[ebp], bl
  003e9	e8 00 00 00 00	 call	 ?assign@?$basic_string@DU?$char_traits@D@std@@V?$allocator@D@2@@std@@QAEAAV12@PBDI@Z ; std::basic_string<char,std::char_traits<char>,std::allocator<char> >::assign
  003ee	8b 45 90	 mov	 eax, DWORD PTR _iter_r$[ebp]
  003f1	8b 08		 mov	 ecx, DWORD PTR [eax]
  003f3	83 c1 14	 add	 ecx, 20			; 00000014H
  003f6	c6 45 fc 04	 mov	 BYTE PTR __$EHRec$[ebp+8], 4
  003fa	ff 15 00 00 00
	00		 call	 DWORD PTR __imp_?c_str@ioHashString@@QBEPBDXZ
  00400	50		 push	 eax
  00401	8d 4d b4	 lea	 ecx, DWORD PTR $T531321[ebp]
  00404	c7 45 c8 0f 00
	00 00		 mov	 DWORD PTR $T531321[ebp+20], 15 ; 0000000fH
  0040b	89 5d c4	 mov	 DWORD PTR $T531321[ebp+16], ebx
  0040e	88 5d b4	 mov	 BYTE PTR $T531321[ebp], bl
  00411	e8 00 00 00 00	 call	 ?assign@?$basic_string@DU?$char_traits@D@std@@V?$allocator@D@2@@std@@QAEAAV12@PBD@Z ; std::basic_string<char,std::char_traits<char>,std::allocator<char> >::assign
  00416	53		 push	 ebx
  00417	8d 45 98	 lea	 eax, DWORD PTR $T531320[ebp]
  0041a	50		 push	 eax
  0041b	8d 45 b4	 lea	 eax, DWORD PTR $T531321[ebp]
  0041e	50		 push	 eax
  0041f	c6 45 fc 05	 mov	 BYTE PTR __$EHRec$[ebp+8], 5
  00423	ff 15 00 00 00
	00		 call	 DWORD PTR __imp_?Split@ioStringConverter@@SAABV?$vector@V?$basic_string@DU?$char_traits@D@std@@V?$allocator@D@2@@std@@V?$allocator@V?$basic_string@DU?$char_traits@D@std@@V?$allocator@D@2@@std@@@2@@std@@ABV?$basic_string@DU?$char_traits@D@std@@V?$allocator@D@2@@3@0H@Z
  00429	83 c4 0c	 add	 esp, 12			; 0000000cH
  0042c	53		 push	 ebx
  0042d	6a 01		 push	 1
  0042f	8d 4d b4	 lea	 ecx, DWORD PTR $T531321[ebp]
  00432	89 45 94	 mov	 DWORD PTR _vParam$531319[ebp], eax
  00435	e8 00 00 00 00	 call	 ?_Tidy@?$basic_string@DU?$char_traits@D@std@@V?$allocator@D@2@@std@@QAEX_NI@Z ; std::basic_string<char,std::char_traits<char>,std::allocator<char> >::_Tidy
  0043a	53		 push	 ebx
  0043b	6a 01		 push	 1
  0043d	8d 4d 98	 lea	 ecx, DWORD PTR $T531320[ebp]
  00440	c6 45 fc 02	 mov	 BYTE PTR __$EHRec$[ebp+8], 2
  00444	e8 00 00 00 00	 call	 ?_Tidy@?$basic_string@DU?$char_traits@D@std@@V?$allocator@D@2@@std@@QAEX_NI@Z ; std::basic_string<char,std::char_traits<char>,std::allocator<char> >::_Tidy

; 523  : 			if( vParam.size() == 1 )

  00449	8b 45 94	 mov	 eax, DWORD PTR _vParam$531319[ebp]
  0044c	8b 08		 mov	 ecx, DWORD PTR [eax]
  0044e	8b 40 04	 mov	 eax, DWORD PTR [eax+4]
  00451	2b c1		 sub	 eax, ecx
  00453	6a 1c		 push	 28			; 0000001cH
  00455	89 4d 94	 mov	 DWORD PTR tv4956[ebp], ecx
  00458	99		 cdq
  00459	59		 pop	 ecx
  0045a	f7 f9		 idiv	 ecx
  0045c	83 f8 01	 cmp	 eax, 1
  0045f	75 16		 jne	 SHORT $LN9@AttackSkil

; 524  : 			{
; 525  : 				kInfo.m_fAngle = ioStringConverter::ParseFloat( vParam[0].c_str() );

  00461	8b 45 94	 mov	 eax, DWORD PTR tv4956[ebp]
  00464	83 78 14 10	 cmp	 DWORD PTR [eax+20], 16	; 00000010H
  00468	72 02		 jb	 SHORT $LN487@AttackSkil
  0046a	8b 00		 mov	 eax, DWORD PTR [eax]
$LN487@AttackSkil:
  0046c	50		 push	 eax
  0046d	ff 15 00 00 00
	00		 call	 DWORD PTR __imp_?ParseFloat@ioStringConverter@@SAMPBD@Z
  00473	d9 5d e8	 fstp	 DWORD PTR _kInfo$531315[ebp+4]
  00476	59		 pop	 ecx
$LN9@AttackSkil:

; 526  : 			}
; 527  : 		}
; 528  : 
; 529  : 		m_vAniRotateInfoList.push_back(kInfo);

  00477	8d 45 e4	 lea	 eax, DWORD PTR _kInfo$531315[ebp]
  0047a	50		 push	 eax
  0047b	8d 8e 18 07 00
	00		 lea	 ecx, DWORD PTR [esi+1816]
  00481	e8 00 00 00 00	 call	 ?push_back@?$vector@UAniRotateInfo@@V?$allocator@UAniRotateInfo@@@std@@@std@@QAEXABUAniRotateInfo@@@Z ; std::vector<AniRotateInfo,std::allocator<AniRotateInfo> >::push_back

; 530  : 
; 531  : 		++iter_r;

  00486	83 45 90 04	 add	 DWORD PTR _iter_r$[ebp], 4
  0048a	8b 45 90	 mov	 eax, DWORD PTR _iter_r$[ebp]
$LN794@AttackSkil:

; 509  : 	while( iter_r != vAniRotateList.end() )

  0048d	3b 85 74 ff ff
	ff		 cmp	 eax, DWORD PTR _vAniRotateList$[ebp+4]
  00493	0f 85 fa fe ff
	ff		 jne	 $LN14@AttackSkil

; 532  : 	}
; 533  : 
; 534  : 	if( !m_vAniRotateInfoList.empty() )

  00499	8b 8e 18 07 00
	00		 mov	 ecx, DWORD PTR [esi+1816]
  0049f	3b 8e 1c 07 00
	00		 cmp	 ecx, DWORD PTR [esi+1820]
  004a5	74 1d		 je	 SHORT $LN8@AttackSkil

; 535  : 	{
; 536  : 		m_iCurAniRotate = 0;
; 537  : 		m_dwAniRotateTime = m_vAniRotateInfoList[m_iCurAniRotate].m_dwTime;

  004a7	8b 86 18 07 00
	00		 mov	 eax, DWORD PTR [esi+1816]
  004ad	89 9e 28 07 00
	00		 mov	 DWORD PTR [esi+1832], ebx
  004b3	8b 08		 mov	 ecx, DWORD PTR [eax]
  004b5	89 8e 2c 07 00
	00		 mov	 DWORD PTR [esi+1836], ecx

; 538  : 		m_fAniRotateAngle = m_vAniRotateInfoList[m_iCurAniRotate].m_fAngle;

  004bb	d9 40 04	 fld	 DWORD PTR [eax+4]
  004be	d9 9e 30 07 00
	00		 fstp	 DWORD PTR [esi+1840]
$LN8@AttackSkil:

; 539  : 	}
; 540  : 	//
; 541  : 
; 542  : 	// Col Skip
; 543  : 	pChar->CheckCharColSkipSkillTime( iAniID, fTimeRate, dwPreDelay );

  004c4	ff 75 80	 push	 DWORD PTR _dwPreDelay$[ebp]
  004c7	f3 0f 10 45 84	 movss	 xmm0, DWORD PTR _fTimeRate$[ebp]
  004cc	51		 push	 ecx
  004cd	8b 8d 68 ff ff
	ff		 mov	 ecx, DWORD PTR _pChar$GSCopy$[ebp]
  004d3	f3 0f 11 04 24	 movss	 DWORD PTR [esp], xmm0
  004d8	ff 75 88	 push	 DWORD PTR _iAniID$[ebp]
  004db	e8 00 00 00 00	 call	 ?CheckCharColSkipSkillTime@ioBaseChar@@QAEXHMK@Z ; ioBaseChar::CheckCharColSkipSkillTime

; 544  : 
; 545  : 	m_dwFireMotionEndTime += dwPreDelay;

  004e0	8b 45 80	 mov	 eax, DWORD PTR _dwPreDelay$[ebp]
  004e3	01 86 24 02 00
	00		 add	 DWORD PTR [esi+548], eax
  004e9	6a 03		 push	 3

; 546  : 	m_dwFireMotionEndTime += pGrp->GetAnimationEventTime_e( iAniID, "firemotion_e" ) * fTimeRate;

  004eb	c7 45 bc 8b 85
	99 8f		 mov	 DWORD PTR _szEncEventType$542483[ebp], -1885764213 ; 8f99858bH
  004f2	c7 45 c0 80 83
	9f 83		 mov	 DWORD PTR _szEncEventType$542483[ebp+4], -2086698112 ; 839f8380H
  004f9	c7 45 c4 82 82
	b4 8f		 mov	 DWORD PTR _szEncEventType$542483[ebp+8], -1883995518 ; 8fb48282H
  00500	8d 45 bc	 lea	 eax, DWORD PTR _szEncEventType$542483[ebp]
  00503	88 5d c8	 mov	 BYTE PTR _szEncEventType$542483[ebp+12], bl
  00506	59		 pop	 ecx
$LL603@AttackSkil:
  00507	81 30 ed ec eb
	ea		 xor	 DWORD PTR [eax], -353637139 ; eaebecedH
  0050d	83 c0 04	 add	 eax, 4
  00510	49		 dec	 ecx
  00511	75 f4		 jne	 SHORT $LL603@AttackSkil
  00513	8d 45 bc	 lea	 eax, DWORD PTR _szEncEventType$542483[ebp]
  00516	50		 push	 eax
  00517	8d 4d a4	 lea	 ecx, DWORD PTR $T542583[ebp]
  0051a	ff 15 00 00 00
	00		 call	 DWORD PTR __imp_??0ioHashString@@QAE@PBD@Z
  00520	8b 4d 8c	 mov	 ecx, DWORD PTR _pGrp$[ebp]
  00523	8d 45 a4	 lea	 eax, DWORD PTR $T542583[ebp]
  00526	50		 push	 eax
  00527	ff 75 88	 push	 DWORD PTR _iAniID$[ebp]
  0052a	c6 45 fc 06	 mov	 BYTE PTR __$EHRec$[ebp+8], 6
  0052e	ff 15 00 00 00
	00		 call	 DWORD PTR __imp_?GetAnimationEventTime@ioEntityGroup@@QAEMHABVioHashString@@@Z
  00534	d9 5d 94	 fstp	 DWORD PTR $T542582[ebp]
  00537	8d 4d a4	 lea	 ecx, DWORD PTR $T542583[ebp]
  0053a	c6 45 fc 02	 mov	 BYTE PTR __$EHRec$[ebp+8], 2
  0053e	ff 15 00 00 00
	00		 call	 DWORD PTR __imp_??1ioHashString@@QAE@XZ
  00544	d9 45 94	 fld	 DWORD PTR $T542582[ebp]
  00547	8b 86 24 02 00
	00		 mov	 eax, DWORD PTR [esi+548]
  0054d	d8 4d 84	 fmul	 DWORD PTR _fTimeRate$[ebp]
  00550	db 86 24 02 00
	00		 fild	 DWORD PTR [esi+548]
  00556	85 c0		 test	 eax, eax
  00558	79 06		 jns	 SHORT $LN781@AttackSkil
  0055a	dc 05 00 00 00
	00		 fadd	 QWORD PTR __real@41f0000000000000
$LN781@AttackSkil:
  00560	de c1		 faddp	 ST(1), ST(0)
  00562	e8 00 00 00 00	 call	 __ftol2
  00567	6a 02		 push	 2
  00569	89 86 24 02 00
	00		 mov	 DWORD PTR [esi+548], eax

; 547  : 
; 548  : 	m_dwEnableReserveTime = 0;

  0056f	89 9e dc 02 00
	00		 mov	 DWORD PTR [esi+732], ebx

; 549  : 	DWORD dwReserveTime = pGrp->GetAnimationEventTime_e( iAniID, "key_reserve" ) * fTimeRate;

  00575	c7 45 d0 86 89
	92 b5		 mov	 DWORD PTR _szEncEventType$542613[ebp], -1248687738 ; b5928986H
  0057c	c7 45 d4 9f 89
	98 8f		 mov	 DWORD PTR _szEncEventType$542613[ebp+4], -1885828705 ; 8f98899fH
  00583	8d 45 d0	 lea	 eax, DWORD PTR _szEncEventType$542613[ebp]
  00586	c7 45 d8 9f 9a
	8e 00		 mov	 DWORD PTR _szEncEventType$542613[ebp+8], 9345695 ; 008e9a9fH
  0058d	59		 pop	 ecx
$LL710@AttackSkil:
  0058e	81 30 ed ec eb
	ea		 xor	 DWORD PTR [eax], -353637139 ; eaebecedH
  00594	83 c0 04	 add	 eax, 4
  00597	49		 dec	 ecx
  00598	75 f4		 jne	 SHORT $LL710@AttackSkil
  0059a	6a 08		 push	 8
  0059c	58		 pop	 eax
$LL707@AttackSkil:
  0059d	8b c8		 mov	 ecx, eax
  0059f	81 e1 03 00 00
	80		 and	 ecx, -2147483645	; 80000003H
  005a5	79 05		 jns	 SHORT $LN782@AttackSkil
  005a7	49		 dec	 ecx
  005a8	83 c9 fc	 or	 ecx, -4			; fffffffcH
  005ab	41		 inc	 ecx
$LN782@AttackSkil:
  005ac	b2 ed		 mov	 dl, -19			; ffffffedH
  005ae	2a d1		 sub	 dl, cl
  005b0	30 54 05 d0	 xor	 BYTE PTR _szEncEventType$542613[ebp+eax], dl
  005b4	40		 inc	 eax
  005b5	83 f8 0b	 cmp	 eax, 11			; 0000000bH
  005b8	7c e3		 jl	 SHORT $LL707@AttackSkil
  005ba	8d 45 d0	 lea	 eax, DWORD PTR _szEncEventType$542613[ebp]
  005bd	50		 push	 eax
  005be	8d 4d c0	 lea	 ecx, DWORD PTR $T542713[ebp]
  005c1	ff 15 00 00 00
	00		 call	 DWORD PTR __imp_??0ioHashString@@QAE@PBD@Z
  005c7	8b 4d 8c	 mov	 ecx, DWORD PTR _pGrp$[ebp]
  005ca	8d 45 c0	 lea	 eax, DWORD PTR $T542713[ebp]
  005cd	50		 push	 eax
  005ce	ff 75 88	 push	 DWORD PTR _iAniID$[ebp]
  005d1	c6 45 fc 07	 mov	 BYTE PTR __$EHRec$[ebp+8], 7
  005d5	ff 15 00 00 00
	00		 call	 DWORD PTR __imp_?GetAnimationEventTime@ioEntityGroup@@QAEMHABVioHashString@@@Z
  005db	d9 5d 94	 fstp	 DWORD PTR $T542712[ebp]
  005de	8d 4d c0	 lea	 ecx, DWORD PTR $T542713[ebp]
  005e1	c6 45 fc 02	 mov	 BYTE PTR __$EHRec$[ebp+8], 2
  005e5	ff 15 00 00 00
	00		 call	 DWORD PTR __imp_??1ioHashString@@QAE@XZ
  005eb	d9 45 94	 fld	 DWORD PTR $T542712[ebp]
  005ee	d9 45 84	 fld	 DWORD PTR _fTimeRate$[ebp]
  005f1	d9 c0		 fld	 ST(0)
  005f3	de ca		 fmulp	 ST(2), ST(0)
  005f5	d9 c9		 fxch	 ST(1)
  005f7	e8 00 00 00 00	 call	 __ftol2

; 550  : 	if( dwReserveTime > 0 )

  005fc	3b c3		 cmp	 eax, ebx
  005fe	76 0c		 jbe	 SHORT $LN7@AttackSkil

; 551  : 		m_dwEnableReserveTime = dwCurTime + dwReserveTime;

  00600	03 85 6c ff ff
	ff		 add	 eax, DWORD PTR _dwCurTime$[ebp]
  00606	89 86 dc 02 00
	00		 mov	 DWORD PTR [esi+732], eax
$LN7@AttackSkil:

; 552  : 
; 553  : 	if( m_dwFireStartTime >= m_dwFireMotionEndTime )

  0060c	8b 8e a4 11 00
	00		 mov	 ecx, DWORD PTR [esi+4516]
  00612	3b 8e 24 02 00
	00		 cmp	 ecx, DWORD PTR [esi+548]
  00618	72 0c		 jb	 SHORT $LN6@AttackSkil

; 554  : 	{
; 555  : 		m_dwFireMotionEndTime = m_dwMotionEndTime;

  0061a	8b 8e d8 02 00
	00		 mov	 ecx, DWORD PTR [esi+728]
  00620	89 8e 24 02 00
	00		 mov	 DWORD PTR [esi+548], ecx
$LN6@AttackSkil:

; 556  : 	}
; 557  : 
; 558  : 	if( m_vAttackDir.y == 0.0f || m_fCurMotionRate == 0.0f )		// center

  00626	f3 0f 10 8e 9c
	11 00 00	 movss	 xmm1, DWORD PTR [esi+4508]
  0062e	0f 57 c0	 xorps	 xmm0, xmm0
  00631	0f 2e c8	 ucomiss xmm1, xmm0
  00634	9f		 lahf
  00635	f6 c4 44	 test	 ah, 68			; 00000044H
  00638	0f 8b cb 01 00
	00		 jnp	 $LN4@AttackSkil
  0063e	f3 0f 10 96 8c
	11 00 00	 movss	 xmm2, DWORD PTR [esi+4492]
  00646	0f 2e d0	 ucomiss xmm2, xmm0
  00649	9f		 lahf
  0064a	f6 c4 44	 test	 ah, 68			; 00000044H
  0064d	0f 8b b6 01 00
	00		 jnp	 $LN4@AttackSkil

; 561  : 	}
; 562  : 	else if( m_vAttackDir.y > 0.0f )	// center & up

  00653	0f 2f c8	 comiss	 xmm1, xmm0
  00656	0f 86 d8 00 00
	00		 jbe	 $LN2@AttackSkil

; 563  : 	{
; 564  : 		pGrp->SetActionAni( m_SkillUpMotion, 0.0f, 0.0f, m_fCurMotionRate, FLOAT1/fTimeRate, 0.0f, dwPreDelay );

  0065c	b8 01 00 00 00	 mov	 eax, 1
  00661	db 45 80	 fild	 DWORD PTR _dwPreDelay$[ebp]
  00664	8b 4d 80	 mov	 ecx, DWORD PTR _dwPreDelay$[ebp]
  00667	85 c9		 test	 ecx, ecx
  00669	79 06		 jns	 SHORT $LN783@AttackSkil
  0066b	d8 05 00 00 00
	00		 fadd	 DWORD PTR __real@4f800000
$LN783@AttackSkil:
  00671	6a 01		 push	 1
  00673	d9 5d 90	 fstp	 DWORD PTR tv5106[ebp]
  00676	f3 0f 10 4d 90	 movss	 xmm1, DWORD PTR tv5106[ebp]
  0067b	53		 push	 ebx
  0067c	83 ec 18	 sub	 esp, 24			; 00000018H
  0067f	f3 0f 11 4c 24
	14		 movss	 DWORD PTR [esp+20], xmm1
  00685	89 45 94	 mov	 DWORD PTR tv5668[ebp], eax
  00688	db 45 94	 fild	 DWORD PTR tv5668[ebp]
  0068b	f3 0f 11 44 24
	10		 movss	 DWORD PTR [esp+16], xmm0
  00691	85 c0		 test	 eax, eax
  00693	79 06		 jns	 SHORT $LN784@AttackSkil
  00695	d8 05 00 00 00
	00		 fadd	 DWORD PTR __real@4f800000
$LN784@AttackSkil:
  0069b	de f1		 fdivrp	 ST(1), ST(0)
  0069d	f3 0f 10 8e 8c
	11 00 00	 movss	 xmm1, DWORD PTR [esi+4492]
  006a5	8b 4d 8c	 mov	 ecx, DWORD PTR _pGrp$[ebp]
  006a8	8d 86 3c 11 00
	00		 lea	 eax, DWORD PTR [esi+4412]
  006ae	d9 5d 94	 fstp	 DWORD PTR tv5665[ebp]
  006b1	d9 45 94	 fld	 DWORD PTR tv5665[ebp]
  006b4	d9 5c 24 0c	 fstp	 DWORD PTR [esp+12]
  006b8	f3 0f 11 4c 24
	08		 movss	 DWORD PTR [esp+8], xmm1
  006be	f3 0f 11 44 24
	04		 movss	 DWORD PTR [esp+4], xmm0
  006c4	f3 0f 11 04 24	 movss	 DWORD PTR [esp], xmm0
  006c9	50		 push	 eax
  006ca	ff 15 00 00 00
	00		 call	 DWORD PTR __imp_?SetActionAni@ioEntityGroup@@QAE_NABVioHashString@@MMMMMM_N1@Z

; 565  : 		pGrp->SetActionAni( iAniID, 0.0f, 0.0f, FLOAT1 - m_fCurMotionRate, FLOAT1/fTimeRate, 0.0f, dwPreDelay );

  006d0	b8 01 00 00 00	 mov	 eax, 1
  006d5	8b c8		 mov	 ecx, eax
  006d7	b8 01 00 00 00	 mov	 eax, 1
  006dc	f3 0f 10 45 90	 movss	 xmm0, DWORD PTR tv5106[ebp]
  006e1	6a 01		 push	 1
  006e3	53		 push	 ebx
  006e4	83 ec 18	 sub	 esp, 24			; 00000018H
  006e7	f3 0f 11 44 24
	14		 movss	 DWORD PTR [esp+20], xmm0
  006ed	0f 57 c0	 xorps	 xmm0, xmm0
  006f0	89 4d 94	 mov	 DWORD PTR tv5649[ebp], ecx
  006f3	db 45 94	 fild	 DWORD PTR tv5649[ebp]
  006f6	f3 0f 11 44 24
	10		 movss	 DWORD PTR [esp+16], xmm0
  006fc	85 c9		 test	 ecx, ecx
  006fe	79 06		 jns	 SHORT $LN785@AttackSkil
  00700	d8 05 00 00 00
	00		 fadd	 DWORD PTR __real@4f800000
$LN785@AttackSkil:
  00706	d8 75 84	 fdiv	 DWORD PTR _fTimeRate$[ebp]
  00709	d9 5d 94	 fstp	 DWORD PTR tv5646[ebp]
  0070c	d9 45 94	 fld	 DWORD PTR tv5646[ebp]
  0070f	d9 5c 24 0c	 fstp	 DWORD PTR [esp+12]
  00713	89 45 94	 mov	 DWORD PTR tv5644[ebp], eax
  00716	db 45 94	 fild	 DWORD PTR tv5644[ebp]
  00719	85 c0		 test	 eax, eax
  0071b	79 06		 jns	 SHORT $LN786@AttackSkil
  0071d	d8 05 00 00 00
	00		 fadd	 DWORD PTR __real@4f800000
$LN786@AttackSkil:
  00723	d8 a6 8c 11 00
	00		 fsub	 DWORD PTR [esi+4492]
  00729	d9 5d 94	 fstp	 DWORD PTR tv5641[ebp]
  0072c	d9 45 94	 fld	 DWORD PTR tv5641[ebp]

; 566  : 	}
; 567  : 	else								// center & down

  0072f	e9 2d 01 00 00	 jmp	 $LN793@AttackSkil
$LN2@AttackSkil:

; 568  : 	{
; 569  : 		pGrp->SetActionAni( m_SkillDownMotion, 0.0f, 0.0f, m_fCurMotionRate, FLOAT1/fTimeRate, 0.0f, dwPreDelay );

  00734	b8 01 00 00 00	 mov	 eax, 1
  00739	db 45 80	 fild	 DWORD PTR _dwPreDelay$[ebp]
  0073c	8b 4d 80	 mov	 ecx, DWORD PTR _dwPreDelay$[ebp]
  0073f	85 c9		 test	 ecx, ecx
  00741	79 06		 jns	 SHORT $LN787@AttackSkil
  00743	d8 05 00 00 00
	00		 fadd	 DWORD PTR __real@4f800000
$LN787@AttackSkil:
  00749	6a 01		 push	 1
  0074b	d9 5d 90	 fstp	 DWORD PTR tv5106[ebp]
  0074e	f3 0f 10 4d 90	 movss	 xmm1, DWORD PTR tv5106[ebp]
  00753	53		 push	 ebx
  00754	83 ec 18	 sub	 esp, 24			; 00000018H
  00757	f3 0f 11 4c 24
	14		 movss	 DWORD PTR [esp+20], xmm1
  0075d	89 45 94	 mov	 DWORD PTR tv5621[ebp], eax
  00760	db 45 94	 fild	 DWORD PTR tv5621[ebp]
  00763	f3 0f 11 44 24
	10		 movss	 DWORD PTR [esp+16], xmm0
  00769	85 c0		 test	 eax, eax
  0076b	79 06		 jns	 SHORT $LN788@AttackSkil
  0076d	d8 05 00 00 00
	00		 fadd	 DWORD PTR __real@4f800000
$LN788@AttackSkil:
  00773	de f1		 fdivrp	 ST(1), ST(0)
  00775	f3 0f 10 8e 8c
	11 00 00	 movss	 xmm1, DWORD PTR [esi+4492]
  0077d	8b 4d 8c	 mov	 ecx, DWORD PTR _pGrp$[ebp]
  00780	8d 86 4c 11 00
	00		 lea	 eax, DWORD PTR [esi+4428]
  00786	d9 5d 94	 fstp	 DWORD PTR tv5618[ebp]
  00789	d9 45 94	 fld	 DWORD PTR tv5618[ebp]
  0078c	d9 5c 24 0c	 fstp	 DWORD PTR [esp+12]
  00790	f3 0f 11 4c 24
	08		 movss	 DWORD PTR [esp+8], xmm1
  00796	f3 0f 11 44 24
	04		 movss	 DWORD PTR [esp+4], xmm0
  0079c	f3 0f 11 04 24	 movss	 DWORD PTR [esp], xmm0
  007a1	50		 push	 eax
  007a2	ff 15 00 00 00
	00		 call	 DWORD PTR __imp_?SetActionAni@ioEntityGroup@@QAE_NABVioHashString@@MMMMMM_N1@Z

; 570  : 		pGrp->SetActionAni( iAniID, 0.0f, 0.0f, FLOAT1 - m_fCurMotionRate, FLOAT1/fTimeRate, 0.0f, dwPreDelay );

  007a8	b8 01 00 00 00	 mov	 eax, 1
  007ad	8b c8		 mov	 ecx, eax
  007af	b8 01 00 00 00	 mov	 eax, 1
  007b4	f3 0f 10 45 90	 movss	 xmm0, DWORD PTR tv5106[ebp]
  007b9	6a 01		 push	 1
  007bb	53		 push	 ebx
  007bc	83 ec 18	 sub	 esp, 24			; 00000018H
  007bf	f3 0f 11 44 24
	14		 movss	 DWORD PTR [esp+20], xmm0
  007c5	0f 57 c0	 xorps	 xmm0, xmm0
  007c8	89 4d 94	 mov	 DWORD PTR tv5602[ebp], ecx
  007cb	db 45 94	 fild	 DWORD PTR tv5602[ebp]
  007ce	f3 0f 11 44 24
	10		 movss	 DWORD PTR [esp+16], xmm0
  007d4	85 c9		 test	 ecx, ecx
  007d6	79 06		 jns	 SHORT $LN789@AttackSkil
  007d8	d8 05 00 00 00
	00		 fadd	 DWORD PTR __real@4f800000
$LN789@AttackSkil:
  007de	d8 75 84	 fdiv	 DWORD PTR _fTimeRate$[ebp]
  007e1	d9 5d 94	 fstp	 DWORD PTR tv5599[ebp]
  007e4	d9 45 94	 fld	 DWORD PTR tv5599[ebp]
  007e7	d9 5c 24 0c	 fstp	 DWORD PTR [esp+12]
  007eb	89 45 94	 mov	 DWORD PTR tv5597[ebp], eax
  007ee	db 45 94	 fild	 DWORD PTR tv5597[ebp]
  007f1	85 c0		 test	 eax, eax
  007f3	79 06		 jns	 SHORT $LN790@AttackSkil
  007f5	d8 05 00 00 00
	00		 fadd	 DWORD PTR __real@4f800000
$LN790@AttackSkil:
  007fb	d8 a6 8c 11 00
	00		 fsub	 DWORD PTR [esi+4492]
  00801	d9 5d 94	 fstp	 DWORD PTR tv5594[ebp]
  00804	d9 45 94	 fld	 DWORD PTR tv5594[ebp]
  00807	eb 58		 jmp	 SHORT $LN793@AttackSkil
$LN4@AttackSkil:

; 559  : 	{
; 560  : 		pGrp->SetActionAni( iAniID, 0.0f, 0.0f, FLOAT1, FLOAT1/fTimeRate, 0.0f, dwPreDelay );

  00809	b8 01 00 00 00	 mov	 eax, 1
  0080e	8b c8		 mov	 ecx, eax
  00810	b8 01 00 00 00	 mov	 eax, 1
  00815	db 45 80	 fild	 DWORD PTR _dwPreDelay$[ebp]
  00818	8b 55 80	 mov	 edx, DWORD PTR _dwPreDelay$[ebp]
  0081b	6a 01		 push	 1
  0081d	53		 push	 ebx
  0081e	85 d2		 test	 edx, edx
  00820	79 06		 jns	 SHORT $LN791@AttackSkil
  00822	d8 05 00 00 00
	00		 fadd	 DWORD PTR __real@4f800000
$LN791@AttackSkil:
  00828	83 ec 18	 sub	 esp, 24			; 00000018H
  0082b	d9 5c 24 14	 fstp	 DWORD PTR [esp+20]
  0082f	89 4d 94	 mov	 DWORD PTR tv5576[ebp], ecx
  00832	db 45 94	 fild	 DWORD PTR tv5576[ebp]
  00835	f3 0f 11 44 24
	10		 movss	 DWORD PTR [esp+16], xmm0
  0083b	85 c9		 test	 ecx, ecx
  0083d	79 06		 jns	 SHORT $LN792@AttackSkil
  0083f	d8 05 00 00 00
	00		 fadd	 DWORD PTR __real@4f800000
$LN792@AttackSkil:
  00845	de f1		 fdivrp	 ST(1), ST(0)
  00847	d9 5d 94	 fstp	 DWORD PTR tv5573[ebp]
  0084a	d9 45 94	 fld	 DWORD PTR tv5573[ebp]
  0084d	d9 5c 24 0c	 fstp	 DWORD PTR [esp+12]
  00851	89 45 94	 mov	 DWORD PTR tv5571[ebp], eax
  00854	db 45 94	 fild	 DWORD PTR tv5571[ebp]
  00857	85 c0		 test	 eax, eax
  00859	79 06		 jns	 SHORT $LN793@AttackSkil
  0085b	d8 05 00 00 00
	00		 fadd	 DWORD PTR __real@4f800000
$LN793@AttackSkil:
  00861	8b 4d 8c	 mov	 ecx, DWORD PTR _pGrp$[ebp]
  00864	d9 5c 24 08	 fstp	 DWORD PTR [esp+8]
  00868	f3 0f 11 44 24
	04		 movss	 DWORD PTR [esp+4], xmm0
  0086e	f3 0f 11 04 24	 movss	 DWORD PTR [esp], xmm0
  00873	ff 75 88	 push	 DWORD PTR _iAniID$[ebp]
  00876	ff 15 00 00 00
	00		 call	 DWORD PTR __imp_?SetActionAni@ioEntityGroup@@QAE_NHMMMMMM_N0@Z

; 571  : 	}
; 572  : 
; 573  : 	pChar->SetReservedSliding( GetAttribute().m_vForceInfoList, iAniID, fTimeRate, dwPreDelay );

  0087c	f3 0f 10 05 00
	00 00 00	 movss	 xmm0, DWORD PTR __real@3f800000
  00884	8b 06		 mov	 eax, DWORD PTR [esi]
  00886	6a 01		 push	 1
  00888	51		 push	 ecx
  00889	f3 0f 11 04 24	 movss	 DWORD PTR [esp], xmm0
  0088e	ff 75 80	 push	 DWORD PTR _dwPreDelay$[ebp]
  00891	f3 0f 10 45 84	 movss	 xmm0, DWORD PTR _fTimeRate$[ebp]
  00896	51		 push	 ecx
  00897	f3 0f 11 04 24	 movss	 DWORD PTR [esp], xmm0
  0089c	ff 75 88	 push	 DWORD PTR _iAniID$[ebp]
  0089f	8b ce		 mov	 ecx, esi
  008a1	ff 90 a4 01 00
	00		 call	 DWORD PTR [eax+420]
  008a7	8b bd 68 ff ff
	ff		 mov	 edi, DWORD PTR _pChar$GSCopy$[ebp]
  008ad	83 c0 38	 add	 eax, 56			; 00000038H
  008b0	50		 push	 eax
  008b1	8b cf		 mov	 ecx, edi
  008b3	e8 00 00 00 00	 call	 ?SetReservedSliding@ioBaseChar@@QAEXABV?$vector@UForceInfo@@V?$allocator@UForceInfo@@@std@@@std@@HMKM_N@Z ; ioBaseChar::SetReservedSliding

; 574  : 	pChar->ReduceNeedGaugeBySkill( this, GetNeedGauge(pChar->GetCharName()) );

  008b8	8d 87 d4 02 00
	00		 lea	 eax, DWORD PTR [edi+724]
  008be	50		 push	 eax
  008bf	8b ce		 mov	 ecx, esi
  008c1	e8 00 00 00 00	 call	 ?GetNeedGauge@ioSkill@@QAEMABVioHashString@@@Z ; ioSkill::GetNeedGauge
  008c6	51		 push	 ecx
  008c7	d9 1c 24	 fstp	 DWORD PTR [esp]
  008ca	56		 push	 esi
  008cb	8b cf		 mov	 ecx, edi
  008cd	e8 00 00 00 00	 call	 ?ReduceNeedGaugeBySkill@ioBaseChar@@QAEMPAVioSkill@@M@Z ; ioBaseChar::ReduceNeedGaugeBySkill
  008d2	dd d8		 fstp	 ST(0)

; 575  : 	m_bReduceGauge = true;
; 576  : 
; 577  : }

  008d4	83 4d fc ff	 or	 DWORD PTR __$EHRec$[ebp+8], -1
  008d8	8d 8d 70 ff ff
	ff		 lea	 ecx, DWORD PTR _vAniRotateList$[ebp]
  008de	c6 86 50 03 00
	00 01		 mov	 BYTE PTR [esi+848], 1
  008e5	e8 00 00 00 00	 call	 ?_Tidy@?$vector@PBUAniEventTime@@V?$allocator@PBUAniEventTime@@@std@@@std@@IAEXXZ ; std::vector<AniEventTime const *,std::allocator<AniEventTime const *> >::_Tidy
$LN731@AttackSkil:
  008ea	e8 00 00 00 00	 call	 __EH_epilog3_GS
  008ef	c2 04 00	 ret	 4
_TEXT	ENDS
;	COMDAT text$x
text$x	SEGMENT
__unwindfunclet$?AttackSkillFire@ioAngleFireSkill@@MAEXPAVioBaseChar@@@Z$3:
  00000	8d 4d a4	 lea	 ecx, DWORD PTR $T541742[ebp]
  00003	ff 25 00 00 00
	00		 jmp	 DWORD PTR __imp_??1ioHashString@@QAE@XZ
__unwindfunclet$?AttackSkillFire@ioAngleFireSkill@@MAEXPAVioBaseChar@@@Z$4:
  00009	8d 4d a4	 lea	 ecx, DWORD PTR $T541774[ebp]
  0000c	ff 25 00 00 00
	00		 jmp	 DWORD PTR __imp_??1ioHashString@@QAE@XZ
__unwindfunclet$?AttackSkillFire@ioAngleFireSkill@@MAEXPAVioBaseChar@@@Z$0:
  00012	8d 8d 70 ff ff
	ff		 lea	 ecx, DWORD PTR _vAniRotateList$[ebp]
  00018	e9 00 00 00 00	 jmp	 ??1?$vector@PBUAniEventTime@@V?$allocator@PBUAniEventTime@@@std@@@std@@QAE@XZ ; std::vector<AniEventTime const *,std::allocator<AniEventTime const *> >::~vector<AniEventTime const *,std::allocator<AniEventTime const *> >
__unwindfunclet$?AttackSkillFire@ioAngleFireSkill@@MAEXPAVioBaseChar@@@Z$5:
  0001d	8d 4d a4	 lea	 ecx, DWORD PTR $T542008[ebp]
  00020	ff 25 00 00 00
	00		 jmp	 DWORD PTR __imp_??1ioHashString@@QAE@XZ
__unwindfunclet$?AttackSkillFire@ioAngleFireSkill@@MAEXPAVioBaseChar@@@Z$1:
  00026	8d 4d 98	 lea	 ecx, DWORD PTR $T531320[ebp]
  00029	e9 00 00 00 00	 jmp	 ??1?$basic_string@DU?$char_traits@D@std@@V?$allocator@D@2@@std@@QAE@XZ ; std::basic_string<char,std::char_traits<char>,std::allocator<char> >::~basic_string<char,std::char_traits<char>,std::allocator<char> >
__unwindfunclet$?AttackSkillFire@ioAngleFireSkill@@MAEXPAVioBaseChar@@@Z$2:
  0002e	8d 4d b4	 lea	 ecx, DWORD PTR $T531321[ebp]
  00031	e9 00 00 00 00	 jmp	 ??1?$basic_string@DU?$char_traits@D@std@@V?$allocator@D@2@@std@@QAE@XZ ; std::basic_string<char,std::char_traits<char>,std::allocator<char> >::~basic_string<char,std::char_traits<char>,std::allocator<char> >
__unwindfunclet$?AttackSkillFire@ioAngleFireSkill@@MAEXPAVioBaseChar@@@Z$6:
  00036	8d 4d a4	 lea	 ecx, DWORD PTR $T542583[ebp]
  00039	ff 25 00 00 00
	00		 jmp	 DWORD PTR __imp_??1ioHashString@@QAE@XZ
__unwindfunclet$?AttackSkillFire@ioAngleFireSkill@@MAEXPAVioBaseChar@@@Z$7:
  0003f	8d 4d c0	 lea	 ecx, DWORD PTR $T542713[ebp]
  00042	ff 25 00 00 00
	00		 jmp	 DWORD PTR __imp_??1ioHashString@@QAE@XZ
__ehhandler$?AttackSkillFire@ioAngleFireSkill@@MAEXPAVioBaseChar@@@Z:
  00048	8b 54 24 08	 mov	 edx, DWORD PTR [esp+8]
  0004c	8d 42 0c	 lea	 eax, DWORD PTR [edx+12]
  0004f	8b 8a 64 ff ff
	ff		 mov	 ecx, DWORD PTR [edx-156]
  00055	33 c8		 xor	 ecx, eax
  00057	e8 00 00 00 00	 call	 @__security_check_cookie@4
  0005c	8b 4a fc	 mov	 ecx, DWORD PTR [edx-4]
  0005f	33 c8		 xor	 ecx, eax
  00061	e8 00 00 00 00	 call	 @__security_check_cookie@4
  00066	b8 00 00 00 00	 mov	 eax, OFFSET __ehfuncinfo$?AttackSkillFire@ioAngleFireSkill@@MAEXPAVioBaseChar@@@Z
  0006b	e9 00 00 00 00	 jmp	 ___CxxFrameHandler3
text$x	ENDS
?AttackSkillFire@ioAngleFireSkill@@MAEXPAVioBaseChar@@@Z ENDP ; ioAngleFireSkill::AttackSkillFire
PUBLIC	_pChar$GSCopy$
PUBLIC	?AttackWeakSkillFire@ioAngleFireSkill@@IAEXPAVioBaseChar@@@Z ; ioAngleFireSkill::AttackWeakSkillFire
;	COMDAT xdata$x
; File c:\program files (x86)\microsoft visual studio 10.0\vc\include\vector
xdata$x	SEGMENT
__ehfuncinfo$?AttackWeakSkillFire@ioAngleFireSkill@@IAEXPAVioBaseChar@@@Z DD 019930522H
	DD	08H
	DD	FLAT:__unwindtable$?AttackWeakSkillFire@ioAngleFireSkill@@IAEXPAVioBaseChar@@@Z
	DD	2 DUP(00H)
	DD	2 DUP(00H)
	DD	00H
	DD	01H
__unwindtable$?AttackWeakSkillFire@ioAngleFireSkill@@IAEXPAVioBaseChar@@@Z DD 0ffffffffH
	DD	FLAT:__unwindfunclet$?AttackWeakSkillFire@ioAngleFireSkill@@IAEXPAVioBaseChar@@@Z$3
	DD	0ffffffffH
	DD	FLAT:__unwindfunclet$?AttackWeakSkillFire@ioAngleFireSkill@@IAEXPAVioBaseChar@@@Z$4
	DD	0ffffffffH
	DD	FLAT:__unwindfunclet$?AttackWeakSkillFire@ioAngleFireSkill@@IAEXPAVioBaseChar@@@Z$0
	DD	02H
	DD	FLAT:__unwindfunclet$?AttackWeakSkillFire@ioAngleFireSkill@@IAEXPAVioBaseChar@@@Z$5
	DD	02H
	DD	FLAT:__unwindfunclet$?AttackWeakSkillFire@ioAngleFireSkill@@IAEXPAVioBaseChar@@@Z$1
	DD	04H
	DD	FLAT:__unwindfunclet$?AttackWeakSkillFire@ioAngleFireSkill@@IAEXPAVioBaseChar@@@Z$2
	DD	02H
	DD	FLAT:__unwindfunclet$?AttackWeakSkillFire@ioAngleFireSkill@@IAEXPAVioBaseChar@@@Z$6
	DD	02H
	DD	FLAT:__unwindfunclet$?AttackWeakSkillFire@ioAngleFireSkill@@IAEXPAVioBaseChar@@@Z$7
; Function compile flags: /Ogsp
; File d:\lost saga for developer\youtube\tutorial\source\src\lsclient\ioanglefireskill.cpp
xdata$x	ENDS
;	COMDAT ?AttackWeakSkillFire@ioAngleFireSkill@@IAEXPAVioBaseChar@@@Z
_TEXT	SEGMENT
_pChar$GSCopy$ = -152					; size = 4
_value$542856 = -148					; size = 4
_dwCurTime$ = -148					; size = 4
_vAniRotateList$ = -144					; size = 16
_dwPreDelay$ = -128					; size = 4
_fTimeRate$ = -124					; size = 4
_iAniID$ = -120						; size = 4
_pGrp$ = -116						; size = 4
tv5106 = -112						; size = 4
$T543100 = -112						; size = 4
$T542877 = -112						; size = 4
_iter_r$ = -112						; size = 4
tv5785 = -108						; size = 4
tv5780 = -108						; size = 4
tv5766 = -108						; size = 4
tv5751 = -108						; size = 4
tv5699 = -108						; size = 4
tv5674 = -108						; size = 4
tv5670 = -108						; size = 4
tv5667 = -108						; size = 4
tv5651 = -108						; size = 4
tv5648 = -108						; size = 4
tv5646 = -108						; size = 4
tv5643 = -108						; size = 4
tv5627 = -108						; size = 4
tv5623 = -108						; size = 4
tv5620 = -108						; size = 4
tv5604 = -108						; size = 4
tv5601 = -108						; size = 4
tv5599 = -108						; size = 4
tv5596 = -108						; size = 4
tv5580 = -108						; size = 4
tv5578 = -108						; size = 4
tv5575 = -108						; size = 4
tv5573 = -108						; size = 4
tv4956 = -108						; size = 4
$T543848 = -108						; size = 4
$T543816 = -108						; size = 4
$T543180 = -108						; size = 4
_vParam$531376 = -108					; size = 4
$T531377 = -104						; size = 28
$T543817 = -92						; size = 16
$T543296 = -92						; size = 16
$T543102 = -92						; size = 16
$T542878 = -92						; size = 16
$T531378 = -76						; size = 28
_szEncEventType$543717 = -68				; size = 13
$T543849 = -64						; size = 16
_szEncEventType$543862 = -48				; size = 12
_szEncEventType$543240 = -32				; size = 11
_szEncEventType$543006 = -32				; size = 11
_szEncEventType$542891 = -28				; size = 7
_kInfo$531372 = -28					; size = 8
__$EHRec$ = -12						; size = 12
_pChar$ = 8						; size = 4
?AttackWeakSkillFire@ioAngleFireSkill@@IAEXPAVioBaseChar@@@Z PROC ; ioAngleFireSkill::AttackWeakSkillFire, COMDAT
; _this$ = ecx

; 580  : {

  00000	68 8c 00 00 00	 push	 140			; 0000008cH
  00005	b8 00 00 00 00	 mov	 eax, __ehhandler$?AttackWeakSkillFire@ioAngleFireSkill@@IAEXPAVioBaseChar@@@Z
  0000a	e8 00 00 00 00	 call	 __EH_prolog3_GS
  0000f	8b 7d 08	 mov	 edi, DWORD PTR _pChar$[ebp]

; 581  : 	//m_AttackFail
; 582  : 	ioEntityGroup *pGrp = pChar->GetGroup();

  00012	8b 5f 04	 mov	 ebx, DWORD PTR [edi+4]
  00015	8b f1		 mov	 esi, ecx

; 583  : 	int iAniID = pGrp->GetAnimationIdx( GetAttribute().m_AttackAnimation );

  00017	8b 06		 mov	 eax, DWORD PTR [esi]
  00019	89 bd 68 ff ff
	ff		 mov	 DWORD PTR _pChar$GSCopy$[ebp], edi
  0001f	89 5d 8c	 mov	 DWORD PTR _pGrp$[ebp], ebx
  00022	ff 90 a4 01 00
	00		 call	 DWORD PTR [eax+420]
  00028	50		 push	 eax
  00029	8b cb		 mov	 ecx, ebx
  0002b	ff 15 00 00 00
	00		 call	 DWORD PTR __imp_?GetAnimationIdx@ioEntityGroup@@QAEHABVioHashString@@@Z
  00031	89 45 88	 mov	 DWORD PTR _iAniID$[ebp], eax

; 584  : 	if( iAniID == -1 )	return;

  00034	83 f8 ff	 cmp	 eax, -1
  00037	0f 84 a6 08 00
	00		 je	 $LN731@AttackWeak

; 585  : 
; 586  : 	pChar->AttachEffect( m_SkillEffectName );

  0003d	6a 01		 push	 1
  0003f	33 db		 xor	 ebx, ebx
  00041	53		 push	 ebx
  00042	8d 86 b8 01 00
	00		 lea	 eax, DWORD PTR [esi+440]
  00048	50		 push	 eax
  00049	8b cf		 mov	 ecx, edi
  0004b	e8 00 00 00 00	 call	 ?AttachEffect@ioBaseChar@@QAEPAVioEffect@@ABVioHashString@@PAVioEntityEvent@@_N@Z ; ioBaseChar::AttachEffect

; 587  : 
; 588  : 	float fTimeRate  = GetAttackTimeRate();

  00050	8b 06		 mov	 eax, DWORD PTR [esi]
  00052	8b ce		 mov	 ecx, esi
  00054	ff 90 90 01 00
	00		 call	 DWORD PTR [eax+400]
  0005a	d9 5d 84	 fstp	 DWORD PTR _fTimeRate$[ebp]

; 589  : 	DWORD dwPreDelay = GetAttribute().m_dwPreDelay;

  0005d	8b 06		 mov	 eax, DWORD PTR [esi]
  0005f	8b ce		 mov	 ecx, esi
  00061	ff 90 a4 01 00
	00		 call	 DWORD PTR [eax+420]
  00067	8b 40 48	 mov	 eax, DWORD PTR [eax+72]
  0006a	89 45 80	 mov	 DWORD PTR _dwPreDelay$[ebp], eax

; 590  : 
; 591  : 	pGrp->ClearAllLoopAni( FLOAT100, true );

  0006d	b8 64 00 00 00	 mov	 eax, 100		; 00000064H
  00072	89 45 94	 mov	 DWORD PTR tv5785[ebp], eax
  00075	db 45 94	 fild	 DWORD PTR tv5785[ebp]
  00078	6a 01		 push	 1
  0007a	85 c0		 test	 eax, eax
  0007c	79 06		 jns	 SHORT $LN774@AttackWeak
  0007e	d8 05 00 00 00
	00		 fadd	 DWORD PTR __real@4f800000
$LN774@AttackWeak:
  00084	51		 push	 ecx
  00085	8b 4d 8c	 mov	 ecx, DWORD PTR _pGrp$[ebp]
  00088	d9 1c 24	 fstp	 DWORD PTR [esp]
  0008b	ff 15 00 00 00
	00		 call	 DWORD PTR __imp_?ClearAllLoopAni@ioEntityGroup@@QAEXM_N@Z

; 592  : 	pGrp->ClearAllActionAni( FLOAT100, true );

  00091	b8 64 00 00 00	 mov	 eax, 100		; 00000064H
  00096	89 45 94	 mov	 DWORD PTR tv5780[ebp], eax
  00099	db 45 94	 fild	 DWORD PTR tv5780[ebp]
  0009c	6a 01		 push	 1
  0009e	85 c0		 test	 eax, eax
  000a0	79 06		 jns	 SHORT $LN775@AttackWeak
  000a2	d8 05 00 00 00
	00		 fadd	 DWORD PTR __real@4f800000
$LN775@AttackWeak:
  000a8	51		 push	 ecx
  000a9	8b 4d 8c	 mov	 ecx, DWORD PTR _pGrp$[ebp]
  000ac	d9 1c 24	 fstp	 DWORD PTR [esp]
  000af	ff 15 00 00 00
	00		 call	 DWORD PTR __imp_?ClearAllActionAni@ioEntityGroup@@QAEXM_N@Z

; 593  : 
; 594  : 	if( m_bRefreshFireTimeList )

  000b5	38 9e 44 10 00
	00		 cmp	 BYTE PTR [esi+4164], bl
  000bb	74 25		 je	 SHORT $LN17@AttackWeak

; 595  : 	{
; 596  : 		pChar->RefreshFireTimeListWithBase( m_dwWeaponBaseIndex,
; 597  : 											iAniID,
; 598  : 											m_AttackFail.m_vWeaponInfoList,
; 599  : 											FTT_SKILL_ATTACK,
; 600  : 											fTimeRate,
; 601  : 											dwPreDelay );

  000bd	f3 0f 10 45 84	 movss	 xmm0, DWORD PTR _fTimeRate$[ebp]
  000c2	53		 push	 ebx
  000c3	ff 75 80	 push	 DWORD PTR _dwPreDelay$[ebp]
  000c6	8d 86 10 11 00
	00		 lea	 eax, DWORD PTR [esi+4368]
  000cc	51		 push	 ecx
  000cd	f3 0f 11 04 24	 movss	 DWORD PTR [esp], xmm0
  000d2	6a 04		 push	 4
  000d4	50		 push	 eax
  000d5	ff 75 88	 push	 DWORD PTR _iAniID$[ebp]
  000d8	8b cf		 mov	 ecx, edi
  000da	ff 76 78	 push	 DWORD PTR [esi+120]
  000dd	e8 00 00 00 00	 call	 ?RefreshFireTimeListWithBase@ioBaseChar@@QAEXKHABV?$vector@UWeaponInfo@@V?$allocator@UWeaponInfo@@@std@@@std@@W4FireTimeType@@MK_N@Z ; ioBaseChar::RefreshFireTimeListWithBase
$LN17@AttackWeak:

; 602  : 	}
; 603  : 
; 604  : 	m_dwMotionStartTime = m_dwMotionEndTime = FRAMEGETTIME();

  000e2	ff 15 00 00 00
	00		 call	 DWORD PTR __imp_?GetSingleton@ioFrameTimer@@SAAAV1@XZ
  000e8	8b c8		 mov	 ecx, eax
  000ea	ff 15 00 00 00
	00		 call	 DWORD PTR __imp_?GetLoopSec@ioFrameTimer@@QBEKXZ
  000f0	89 86 d8 02 00
	00		 mov	 DWORD PTR [esi+728], eax
  000f6	89 85 6c ff ff
	ff		 mov	 DWORD PTR _value$542856[ebp], eax
  000fc	8d 85 6c ff ff
	ff		 lea	 eax, DWORD PTR _value$542856[ebp]
  00102	50		 push	 eax
  00103	8d 8e a8 02 00
	00		 lea	 ecx, DWORD PTR [esi+680]
  00109	e8 00 00 00 00	 call	 ?EncryptValueToPool@?$CEncrypt@K@@AAEXPBD@Z ; CEncrypt<unsigned long>::EncryptValueToPool

; 605  : 	m_dwMotionEndTime += pGrp->GetAnimationFullTime( iAniID ) * fTimeRate;

  0010e	ff 75 88	 push	 DWORD PTR _iAniID$[ebp]
  00111	8b 4d 8c	 mov	 ecx, DWORD PTR _pGrp$[ebp]
  00114	ff 15 00 00 00
	00		 call	 DWORD PTR __imp_?GetAnimationFullTime@ioEntityGroup@@QAEMH@Z
  0011a	d8 4d 84	 fmul	 DWORD PTR _fTimeRate$[ebp]
  0011d	8b 86 d8 02 00
	00		 mov	 eax, DWORD PTR [esi+728]
  00123	db 86 d8 02 00
	00		 fild	 DWORD PTR [esi+728]
  00129	85 c0		 test	 eax, eax
  0012b	79 06		 jns	 SHORT $LN776@AttackWeak
  0012d	dc 05 00 00 00
	00		 fadd	 QWORD PTR __real@41f0000000000000
$LN776@AttackWeak:
  00133	de c1		 faddp	 ST(1), ST(0)
  00135	e8 00 00 00 00	 call	 __ftol2
  0013a	89 86 d8 02 00
	00		 mov	 DWORD PTR [esi+728], eax

; 606  : 	m_dwMotionEndTime += dwPreDelay + GetAttribute().m_dwEndDelay;

  00140	8b 06		 mov	 eax, DWORD PTR [esi]
  00142	8b ce		 mov	 ecx, esi
  00144	ff 90 a4 01 00
	00		 call	 DWORD PTR [eax+420]
  0014a	8b 40 4c	 mov	 eax, DWORD PTR [eax+76]
  0014d	03 45 80	 add	 eax, DWORD PTR _dwPreDelay$[ebp]
  00150	01 86 d8 02 00
	00		 add	 DWORD PTR [esi+728], eax

; 607  : 
; 608  : 	DWORD dwCurTime = FRAMEGETTIME();

  00156	ff 15 00 00 00
	00		 call	 DWORD PTR __imp_?GetSingleton@ioFrameTimer@@SAAAV1@XZ
  0015c	8b c8		 mov	 ecx, eax
  0015e	ff 15 00 00 00
	00		 call	 DWORD PTR __imp_?GetLoopSec@ioFrameTimer@@QBEKXZ
  00164	89 85 6c ff ff
	ff		 mov	 DWORD PTR _dwCurTime$[ebp], eax

; 609  : 
; 610  : 	m_dwFireStartTime = 0;
; 611  : 	m_dwFireStartTime = m_dwFireMotionEndTime = dwCurTime;

  0016a	89 86 24 02 00
	00		 mov	 DWORD PTR [esi+548], eax

; 612  : 
; 613  : 	m_dwFireStartTime += dwPreDelay;

  00170	03 45 80	 add	 eax, DWORD PTR _dwPreDelay$[ebp]

; 614  : 	m_dwFireStartTime += pGrp->GetAnimationEventTime_e( iAniID, "fire_s" ) * fTimeRate;

  00173	6a 04		 push	 4
  00175	89 86 a4 11 00
	00		 mov	 DWORD PTR [esi+4516], eax
  0017b	c7 45 e4 8b 85
	99 8f		 mov	 DWORD PTR _szEncEventType$542891[ebp], -1885764213 ; 8f99858bH
  00182	81 75 e4 ed ec
	eb ea		 xor	 DWORD PTR _szEncEventType$542891[ebp], -353637139 ; eaebecedH
  00189	66 c7 45 e8 b2
	9f		 mov	 WORD PTR _szEncEventType$542891[ebp+4], 40882 ; 00009fb2H
  0018f	88 5d ea	 mov	 BYTE PTR _szEncEventType$542891[ebp+6], bl
  00192	58		 pop	 eax
$LL133@AttackWeak:
  00193	8b c8		 mov	 ecx, eax
  00195	81 e1 03 00 00
	80		 and	 ecx, -2147483645	; 80000003H
  0019b	79 05		 jns	 SHORT $LN777@AttackWeak
  0019d	49		 dec	 ecx
  0019e	83 c9 fc	 or	 ecx, -4			; fffffffcH
  001a1	41		 inc	 ecx
$LN777@AttackWeak:
  001a2	b2 ed		 mov	 dl, -19			; ffffffedH
  001a4	2a d1		 sub	 dl, cl
  001a6	30 54 05 e4	 xor	 BYTE PTR _szEncEventType$542891[ebp+eax], dl
  001aa	40		 inc	 eax
  001ab	83 f8 06	 cmp	 eax, 6
  001ae	7c e3		 jl	 SHORT $LL133@AttackWeak
  001b0	8d 45 e4	 lea	 eax, DWORD PTR _szEncEventType$542891[ebp]
  001b3	50		 push	 eax
  001b4	8d 4d a4	 lea	 ecx, DWORD PTR $T542878[ebp]
  001b7	ff 15 00 00 00
	00		 call	 DWORD PTR __imp_??0ioHashString@@QAE@PBD@Z
  001bd	8b 4d 8c	 mov	 ecx, DWORD PTR _pGrp$[ebp]
  001c0	8d 45 a4	 lea	 eax, DWORD PTR $T542878[ebp]
  001c3	50		 push	 eax
  001c4	ff 75 88	 push	 DWORD PTR _iAniID$[ebp]
  001c7	89 5d fc	 mov	 DWORD PTR __$EHRec$[ebp+8], ebx
  001ca	ff 15 00 00 00
	00		 call	 DWORD PTR __imp_?GetAnimationEventTime@ioEntityGroup@@QAEMHABVioHashString@@@Z
  001d0	d9 5d 90	 fstp	 DWORD PTR $T542877[ebp]
  001d3	83 4d fc ff	 or	 DWORD PTR __$EHRec$[ebp+8], -1
  001d7	8d 4d a4	 lea	 ecx, DWORD PTR $T542878[ebp]
  001da	ff 15 00 00 00
	00		 call	 DWORD PTR __imp_??1ioHashString@@QAE@XZ
  001e0	d9 45 90	 fld	 DWORD PTR $T542877[ebp]
  001e3	8b 86 a4 11 00
	00		 mov	 eax, DWORD PTR [esi+4516]
  001e9	d8 4d 84	 fmul	 DWORD PTR _fTimeRate$[ebp]
  001ec	db 86 a4 11 00
	00		 fild	 DWORD PTR [esi+4516]
  001f2	85 c0		 test	 eax, eax
  001f4	79 06		 jns	 SHORT $LN778@AttackWeak
  001f6	dc 05 00 00 00
	00		 fadd	 QWORD PTR __real@41f0000000000000
$LN778@AttackWeak:
  001fc	de c1		 faddp	 ST(1), ST(0)
  001fe	e8 00 00 00 00	 call	 __ftol2
  00203	6a 02		 push	 2
  00205	89 86 a4 11 00
	00		 mov	 DWORD PTR [esi+4516], eax

; 615  : 
; 616  : 	m_dwAttackEndTime = pGrp->GetAnimationEventTime_e( iAniID, "attack_end" ) * fTimeRate;

  0020b	c7 45 e0 8c 98
	9f 8b		 mov	 DWORD PTR _szEncEventType$543006[ebp], -1952474996 ; 8b9f988cH
  00212	c7 45 e4 8e 87
	b4 8f		 mov	 DWORD PTR _szEncEventType$543006[ebp+4], -1883994226 ; 8fb4878eH
  00219	66 c7 45 e8 83
	88		 mov	 WORD PTR _szEncEventType$543006[ebp+8], 34947 ; 00008883H
  0021f	8d 45 e0	 lea	 eax, DWORD PTR _szEncEventType$543006[ebp]
  00222	88 5d ea	 mov	 BYTE PTR _szEncEventType$543006[ebp+10], bl
  00225	59		 pop	 ecx
$LL243@AttackWeak:
  00226	81 30 ed ec eb
	ea		 xor	 DWORD PTR [eax], -353637139 ; eaebecedH
  0022c	83 c0 04	 add	 eax, 4
  0022f	49		 dec	 ecx
  00230	75 f4		 jne	 SHORT $LL243@AttackWeak
  00232	6a 08		 push	 8
  00234	58		 pop	 eax
$LL240@AttackWeak:
  00235	8b c8		 mov	 ecx, eax
  00237	81 e1 03 00 00
	80		 and	 ecx, -2147483645	; 80000003H
  0023d	79 05		 jns	 SHORT $LN779@AttackWeak
  0023f	49		 dec	 ecx
  00240	83 c9 fc	 or	 ecx, -4			; fffffffcH
  00243	41		 inc	 ecx
$LN779@AttackWeak:
  00244	b2 ed		 mov	 dl, -19			; ffffffedH
  00246	2a d1		 sub	 dl, cl
  00248	30 54 05 e0	 xor	 BYTE PTR _szEncEventType$543006[ebp+eax], dl
  0024c	40		 inc	 eax
  0024d	83 f8 0a	 cmp	 eax, 10			; 0000000aH
  00250	7c e3		 jl	 SHORT $LL240@AttackWeak
  00252	8d 45 e0	 lea	 eax, DWORD PTR _szEncEventType$543006[ebp]
  00255	50		 push	 eax
  00256	8d 4d a4	 lea	 ecx, DWORD PTR $T543102[ebp]
  00259	ff 15 00 00 00
	00		 call	 DWORD PTR __imp_??0ioHashString@@QAE@PBD@Z
  0025f	8b 4d 8c	 mov	 ecx, DWORD PTR _pGrp$[ebp]
  00262	8d 45 a4	 lea	 eax, DWORD PTR $T543102[ebp]
  00265	50		 push	 eax
  00266	ff 75 88	 push	 DWORD PTR _iAniID$[ebp]
  00269	c7 45 fc 01 00
	00 00		 mov	 DWORD PTR __$EHRec$[ebp+8], 1
  00270	ff 15 00 00 00
	00		 call	 DWORD PTR __imp_?GetAnimationEventTime@ioEntityGroup@@QAEMHABVioHashString@@@Z
  00276	d9 5d 90	 fstp	 DWORD PTR $T543100[ebp]
  00279	83 4d fc ff	 or	 DWORD PTR __$EHRec$[ebp+8], -1
  0027d	8d 4d a4	 lea	 ecx, DWORD PTR $T543102[ebp]
  00280	ff 15 00 00 00
	00		 call	 DWORD PTR __imp_??1ioHashString@@QAE@XZ
  00286	d9 45 90	 fld	 DWORD PTR $T543100[ebp]
  00289	d8 4d 84	 fmul	 DWORD PTR _fTimeRate$[ebp]
  0028c	e8 00 00 00 00	 call	 __ftol2
  00291	8d 8e 50 10 00
	00		 lea	 ecx, DWORD PTR [esi+4176]
  00297	89 01		 mov	 DWORD PTR [ecx], eax

; 617  : 	if( m_dwAttackEndTime > 0 )

  00299	3b c3		 cmp	 eax, ebx
  0029b	76 0a		 jbe	 SHORT $LN16@AttackWeak

; 618  : 		m_dwAttackEndTime += dwCurTime;

  0029d	03 85 6c ff ff
	ff		 add	 eax, DWORD PTR _dwCurTime$[ebp]
  002a3	89 01		 mov	 DWORD PTR [ecx], eax

; 619  : 	else

  002a5	eb 02		 jmp	 SHORT $LN15@AttackWeak
$LN16@AttackWeak:

; 620  : 		m_dwAttackEndTime = 0;

  002a7	89 19		 mov	 DWORD PTR [ecx], ebx
$LN15@AttackWeak:

; 621  : 
; 622  : 	//
; 623  : 	SetExtraAniJump( pChar, iAniID, fTimeRate );

  002a9	f3 0f 10 45 84	 movss	 xmm0, DWORD PTR _fTimeRate$[ebp]
  002ae	51		 push	 ecx
  002af	f3 0f 11 04 24	 movss	 DWORD PTR [esp], xmm0
  002b4	ff 75 88	 push	 DWORD PTR _iAniID$[ebp]
  002b7	8b ce		 mov	 ecx, esi
  002b9	ff b5 68 ff ff
	ff		 push	 DWORD PTR _pChar$GSCopy$[ebp]
  002bf	e8 00 00 00 00	 call	 ?SetExtraAniJump@ioSkill@@IAEXPAVioBaseChar@@HM@Z ; ioSkill::SetExtraAniJump

; 624  : 
; 625  : 	m_dwAniRotateTime = 0;
; 626  : 	m_fAniRotateAngle = 0.0f;

  002c4	0f 57 c0	 xorps	 xmm0, xmm0

; 627  : 	m_vAniRotateInfoList.clear();

  002c7	8d 8e 18 07 00
	00		 lea	 ecx, DWORD PTR [esi+1816]
  002cd	89 9e 2c 07 00
	00		 mov	 DWORD PTR [esi+1836], ebx
  002d3	f3 0f 11 86 30
	07 00 00	 movss	 DWORD PTR [esi+1840], xmm0
  002db	8b 41 04	 mov	 eax, DWORD PTR [ecx+4]
  002de	8b 11		 mov	 edx, DWORD PTR [ecx]
  002e0	50		 push	 eax
  002e1	52		 push	 edx
  002e2	8d 45 94	 lea	 eax, DWORD PTR $T543180[ebp]
  002e5	50		 push	 eax
  002e6	e8 00 00 00 00	 call	 ?erase@?$vector@UAniRotateInfo@@V?$allocator@UAniRotateInfo@@@std@@@std@@QAE?AV?$_Vector_iterator@V?$_Vector_val@UAniRotateInfo@@V?$allocator@UAniRotateInfo@@@std@@@std@@@2@V?$_Vector_const_iterator@V?$_Vector_val@UAniRotateInfo@@V?$allocator@UAniRotateInfo@@@std@@@std@@@2@0@Z ; std::vector<AniRotateInfo,std::allocator<AniRotateInfo> >::erase

; 628  : 
; 629  : 	AniEventConstPtrList vAniRotateList;

  002eb	89 9d 70 ff ff
	ff		 mov	 DWORD PTR _vAniRotateList$[ebp], ebx
  002f1	89 9d 74 ff ff
	ff		 mov	 DWORD PTR _vAniRotateList$[ebp+4], ebx
  002f7	89 9d 78 ff ff
	ff		 mov	 DWORD PTR _vAniRotateList$[ebp+8], ebx
  002fd	6a 02		 push	 2
  002ff	59		 pop	 ecx
  00300	89 4d fc	 mov	 DWORD PTR __$EHRec$[ebp+8], ecx

; 630  : 	pGrp->GetAnimationEventConstPtrList_e( iAniID, "ani_rotate", vAniRotateList );

  00303	c7 45 e0 8c 82
	82 b5		 mov	 DWORD PTR _szEncEventType$543240[ebp], -1249738100 ; b582828cH
  0030a	c7 45 e4 9f 83
	9f 8b		 mov	 DWORD PTR _szEncEventType$543240[ebp+4], -1952480353 ; 8b9f839fH
  00311	66 c7 45 e8 99
	89		 mov	 WORD PTR _szEncEventType$543240[ebp+8], 35225 ; 00008999H
  00317	8d 45 e0	 lea	 eax, DWORD PTR _szEncEventType$543240[ebp]
  0031a	88 5d ea	 mov	 BYTE PTR _szEncEventType$543240[ebp+10], bl
$LL376@AttackWeak:
  0031d	81 30 ed ec eb
	ea		 xor	 DWORD PTR [eax], -353637139 ; eaebecedH
  00323	83 c0 04	 add	 eax, 4
  00326	49		 dec	 ecx
  00327	75 f4		 jne	 SHORT $LL376@AttackWeak
  00329	6a 08		 push	 8
  0032b	58		 pop	 eax
$LL373@AttackWeak:
  0032c	8b c8		 mov	 ecx, eax
  0032e	81 e1 03 00 00
	80		 and	 ecx, -2147483645	; 80000003H
  00334	79 05		 jns	 SHORT $LN780@AttackWeak
  00336	49		 dec	 ecx
  00337	83 c9 fc	 or	 ecx, -4			; fffffffcH
  0033a	41		 inc	 ecx
$LN780@AttackWeak:
  0033b	b2 ed		 mov	 dl, -19			; ffffffedH
  0033d	2a d1		 sub	 dl, cl
  0033f	30 54 05 e0	 xor	 BYTE PTR _szEncEventType$543240[ebp+eax], dl
  00343	40		 inc	 eax
  00344	83 f8 0a	 cmp	 eax, 10			; 0000000aH
  00347	7c e3		 jl	 SHORT $LL373@AttackWeak
  00349	8d 45 e0	 lea	 eax, DWORD PTR _szEncEventType$543240[ebp]
  0034c	50		 push	 eax
  0034d	8d 4d a4	 lea	 ecx, DWORD PTR $T543296[ebp]
  00350	ff 15 00 00 00
	00		 call	 DWORD PTR __imp_??0ioHashString@@QAE@PBD@Z
  00356	8b 4d 8c	 mov	 ecx, DWORD PTR _pGrp$[ebp]
  00359	8d 85 70 ff ff
	ff		 lea	 eax, DWORD PTR _vAniRotateList$[ebp]
  0035f	50		 push	 eax
  00360	8d 45 a4	 lea	 eax, DWORD PTR $T543296[ebp]
  00363	50		 push	 eax
  00364	ff 75 88	 push	 DWORD PTR _iAniID$[ebp]
  00367	c6 45 fc 03	 mov	 BYTE PTR __$EHRec$[ebp+8], 3
  0036b	ff 15 00 00 00
	00		 call	 DWORD PTR __imp_?GetAnimationEventConstPtrList@ioEntityGroup@@QAEHHABVioHashString@@AAV?$vector@PBUAniEventTime@@V?$allocator@PBUAniEventTime@@@std@@@std@@@Z
  00371	8d 4d a4	 lea	 ecx, DWORD PTR $T543296[ebp]
  00374	c6 45 fc 02	 mov	 BYTE PTR __$EHRec$[ebp+8], 2
  00378	ff 15 00 00 00
	00		 call	 DWORD PTR __imp_??1ioHashString@@QAE@XZ

; 631  : 
; 632  : 	AniEventConstPtrList::iterator iter_r = vAniRotateList.begin();

  0037e	8b 85 70 ff ff
	ff		 mov	 eax, DWORD PTR _vAniRotateList$[ebp]
  00384	89 45 90	 mov	 DWORD PTR _iter_r$[ebp], eax
  00387	e9 fa 00 00 00	 jmp	 $LN794@AttackWeak
$LN14@AttackWeak:

; 634  : 	{
; 635  : 		AniRotateInfo kInfo;
; 636  : 
; 637  : 		kInfo.m_dwTime = (*iter_r)->fEventTime * fTimeRate;

  0038c	8b 45 90	 mov	 eax, DWORD PTR _iter_r$[ebp]
  0038f	8b 00		 mov	 eax, DWORD PTR [eax]
  00391	d9 00		 fld	 DWORD PTR [eax]
  00393	0f 57 c0	 xorps	 xmm0, xmm0
  00396	d8 4d 84	 fmul	 DWORD PTR _fTimeRate$[ebp]
  00399	f3 0f 11 45 e8	 movss	 DWORD PTR _kInfo$531372[ebp+4], xmm0
  0039e	e8 00 00 00 00	 call	 __ftol2

; 638  : 
; 639  : 		if( kInfo.m_dwTime > 0 )

  003a3	3b c3		 cmp	 eax, ebx
  003a5	76 0b		 jbe	 SHORT $LN12@AttackWeak

; 640  : 			kInfo.m_dwTime += dwCurTime;

  003a7	03 85 6c ff ff
	ff		 add	 eax, DWORD PTR _dwCurTime$[ebp]
  003ad	89 45 e4	 mov	 DWORD PTR _kInfo$531372[ebp], eax

; 641  : 		else

  003b0	eb 03		 jmp	 SHORT $LN11@AttackWeak
$LN12@AttackWeak:

; 642  : 			kInfo.m_dwTime = 0;

  003b2	89 5d e4	 mov	 DWORD PTR _kInfo$531372[ebp], ebx
$LN11@AttackWeak:

; 643  : 
; 644  : 		if( !(*iter_r)->szSubInfo.IsEmpty() )

  003b5	8b 45 90	 mov	 eax, DWORD PTR _iter_r$[ebp]
  003b8	8b 08		 mov	 ecx, DWORD PTR [eax]
  003ba	8d 49 14	 lea	 ecx, DWORD PTR [ecx+20]
  003bd	ff 15 00 00 00
	00		 call	 DWORD PTR __imp_?IsEmpty@ioHashString@@QBE_NXZ
  003c3	84 c0		 test	 al, al
  003c5	0f 85 a5 00 00
	00		 jne	 $LN9@AttackWeak

; 645  : 		{
; 646  : 			const StringVector &vParam = ioStringConverter::Split( (*iter_r)->szSubInfo.c_str(), " " );

  003cb	6a 01		 push	 1
  003cd	68 00 00 00 00	 push	 OFFSET ??_C@_01CLKCMJKC@?5?$AA@
  003d2	8d 4d 98	 lea	 ecx, DWORD PTR $T531377[ebp]
  003d5	c7 45 ac 0f 00
	00 00		 mov	 DWORD PTR $T531377[ebp+20], 15 ; 0000000fH
  003dc	89 5d a8	 mov	 DWORD PTR $T531377[ebp+16], ebx
  003df	88 5d 98	 mov	 BYTE PTR $T531377[ebp], bl
  003e2	e8 00 00 00 00	 call	 ?assign@?$basic_string@DU?$char_traits@D@std@@V?$allocator@D@2@@std@@QAEAAV12@PBDI@Z ; std::basic_string<char,std::char_traits<char>,std::allocator<char> >::assign
  003e7	8b 45 90	 mov	 eax, DWORD PTR _iter_r$[ebp]
  003ea	8b 08		 mov	 ecx, DWORD PTR [eax]
  003ec	83 c1 14	 add	 ecx, 20			; 00000014H
  003ef	c6 45 fc 04	 mov	 BYTE PTR __$EHRec$[ebp+8], 4
  003f3	ff 15 00 00 00
	00		 call	 DWORD PTR __imp_?c_str@ioHashString@@QBEPBDXZ
  003f9	50		 push	 eax
  003fa	8d 4d b4	 lea	 ecx, DWORD PTR $T531378[ebp]
  003fd	c7 45 c8 0f 00
	00 00		 mov	 DWORD PTR $T531378[ebp+20], 15 ; 0000000fH
  00404	89 5d c4	 mov	 DWORD PTR $T531378[ebp+16], ebx
  00407	88 5d b4	 mov	 BYTE PTR $T531378[ebp], bl
  0040a	e8 00 00 00 00	 call	 ?assign@?$basic_string@DU?$char_traits@D@std@@V?$allocator@D@2@@std@@QAEAAV12@PBD@Z ; std::basic_string<char,std::char_traits<char>,std::allocator<char> >::assign
  0040f	53		 push	 ebx
  00410	8d 45 98	 lea	 eax, DWORD PTR $T531377[ebp]
  00413	50		 push	 eax
  00414	8d 45 b4	 lea	 eax, DWORD PTR $T531378[ebp]
  00417	50		 push	 eax
  00418	c6 45 fc 05	 mov	 BYTE PTR __$EHRec$[ebp+8], 5
  0041c	ff 15 00 00 00
	00		 call	 DWORD PTR __imp_?Split@ioStringConverter@@SAABV?$vector@V?$basic_string@DU?$char_traits@D@std@@V?$allocator@D@2@@std@@V?$allocator@V?$basic_string@DU?$char_traits@D@std@@V?$allocator@D@2@@std@@@2@@std@@ABV?$basic_string@DU?$char_traits@D@std@@V?$allocator@D@2@@3@0H@Z
  00422	83 c4 0c	 add	 esp, 12			; 0000000cH
  00425	53		 push	 ebx
  00426	6a 01		 push	 1
  00428	8d 4d b4	 lea	 ecx, DWORD PTR $T531378[ebp]
  0042b	89 45 94	 mov	 DWORD PTR _vParam$531376[ebp], eax
  0042e	e8 00 00 00 00	 call	 ?_Tidy@?$basic_string@DU?$char_traits@D@std@@V?$allocator@D@2@@std@@QAEX_NI@Z ; std::basic_string<char,std::char_traits<char>,std::allocator<char> >::_Tidy
  00433	53		 push	 ebx
  00434	6a 01		 push	 1
  00436	8d 4d 98	 lea	 ecx, DWORD PTR $T531377[ebp]
  00439	c6 45 fc 02	 mov	 BYTE PTR __$EHRec$[ebp+8], 2
  0043d	e8 00 00 00 00	 call	 ?_Tidy@?$basic_string@DU?$char_traits@D@std@@V?$allocator@D@2@@std@@QAEX_NI@Z ; std::basic_string<char,std::char_traits<char>,std::allocator<char> >::_Tidy

; 647  : 			if( vParam.size() == 1 )

  00442	8b 45 94	 mov	 eax, DWORD PTR _vParam$531376[ebp]
  00445	8b 08		 mov	 ecx, DWORD PTR [eax]
  00447	8b 40 04	 mov	 eax, DWORD PTR [eax+4]
  0044a	2b c1		 sub	 eax, ecx
  0044c	6a 1c		 push	 28			; 0000001cH
  0044e	89 4d 94	 mov	 DWORD PTR tv4956[ebp], ecx
  00451	99		 cdq
  00452	59		 pop	 ecx
  00453	f7 f9		 idiv	 ecx
  00455	83 f8 01	 cmp	 eax, 1
  00458	75 16		 jne	 SHORT $LN9@AttackWeak

; 648  : 			{
; 649  : 				kInfo.m_fAngle = ioStringConverter::ParseFloat( vParam[0].c_str() );

  0045a	8b 45 94	 mov	 eax, DWORD PTR tv4956[ebp]
  0045d	83 78 14 10	 cmp	 DWORD PTR [eax+20], 16	; 00000010H
  00461	72 02		 jb	 SHORT $LN487@AttackWeak
  00463	8b 00		 mov	 eax, DWORD PTR [eax]
$LN487@AttackWeak:
  00465	50		 push	 eax
  00466	ff 15 00 00 00
	00		 call	 DWORD PTR __imp_?ParseFloat@ioStringConverter@@SAMPBD@Z
  0046c	d9 5d e8	 fstp	 DWORD PTR _kInfo$531372[ebp+4]
  0046f	59		 pop	 ecx
$LN9@AttackWeak:

; 650  : 			}
; 651  : 		}
; 652  : 
; 653  : 		m_vAniRotateInfoList.push_back(kInfo);

  00470	8d 45 e4	 lea	 eax, DWORD PTR _kInfo$531372[ebp]
  00473	50		 push	 eax
  00474	8d 8e 18 07 00
	00		 lea	 ecx, DWORD PTR [esi+1816]
  0047a	e8 00 00 00 00	 call	 ?push_back@?$vector@UAniRotateInfo@@V?$allocator@UAniRotateInfo@@@std@@@std@@QAEXABUAniRotateInfo@@@Z ; std::vector<AniRotateInfo,std::allocator<AniRotateInfo> >::push_back

; 654  : 
; 655  : 		++iter_r;

  0047f	83 45 90 04	 add	 DWORD PTR _iter_r$[ebp], 4
  00483	8b 45 90	 mov	 eax, DWORD PTR _iter_r$[ebp]
$LN794@AttackWeak:

; 633  : 	while( iter_r != vAniRotateList.end() )

  00486	3b 85 74 ff ff
	ff		 cmp	 eax, DWORD PTR _vAniRotateList$[ebp+4]
  0048c	0f 85 fa fe ff
	ff		 jne	 $LN14@AttackWeak

; 656  : 	}
; 657  : 
; 658  : 	if( !m_vAniRotateInfoList.empty() )

  00492	8b 8e 18 07 00
	00		 mov	 ecx, DWORD PTR [esi+1816]
  00498	3b 8e 1c 07 00
	00		 cmp	 ecx, DWORD PTR [esi+1820]
  0049e	74 1d		 je	 SHORT $LN8@AttackWeak

; 659  : 	{
; 660  : 		m_iCurAniRotate = 0;
; 661  : 		m_dwAniRotateTime = m_vAniRotateInfoList[m_iCurAniRotate].m_dwTime;

  004a0	8b 86 18 07 00
	00		 mov	 eax, DWORD PTR [esi+1816]
  004a6	89 9e 28 07 00
	00		 mov	 DWORD PTR [esi+1832], ebx
  004ac	8b 08		 mov	 ecx, DWORD PTR [eax]
  004ae	89 8e 2c 07 00
	00		 mov	 DWORD PTR [esi+1836], ecx

; 662  : 		m_fAniRotateAngle = m_vAniRotateInfoList[m_iCurAniRotate].m_fAngle;

  004b4	d9 40 04	 fld	 DWORD PTR [eax+4]
  004b7	d9 9e 30 07 00
	00		 fstp	 DWORD PTR [esi+1840]
$LN8@AttackWeak:

; 663  : 	}
; 664  : 	//
; 665  : 
; 666  : 	// Col Skip
; 667  : 	pChar->CheckCharColSkipSkillTime( iAniID, fTimeRate, dwPreDelay );

  004bd	ff 75 80	 push	 DWORD PTR _dwPreDelay$[ebp]
  004c0	f3 0f 10 45 84	 movss	 xmm0, DWORD PTR _fTimeRate$[ebp]
  004c5	51		 push	 ecx
  004c6	8b 8d 68 ff ff
	ff		 mov	 ecx, DWORD PTR _pChar$GSCopy$[ebp]
  004cc	f3 0f 11 04 24	 movss	 DWORD PTR [esp], xmm0
  004d1	ff 75 88	 push	 DWORD PTR _iAniID$[ebp]
  004d4	e8 00 00 00 00	 call	 ?CheckCharColSkipSkillTime@ioBaseChar@@QAEXHMK@Z ; ioBaseChar::CheckCharColSkipSkillTime

; 668  : 
; 669  : 	m_dwFireMotionEndTime += dwPreDelay;

  004d9	8b 45 80	 mov	 eax, DWORD PTR _dwPreDelay$[ebp]
  004dc	01 86 24 02 00
	00		 add	 DWORD PTR [esi+548], eax
  004e2	6a 03		 push	 3

; 670  : 	m_dwFireMotionEndTime += pGrp->GetAnimationEventTime_e( iAniID, "firemotion_e" ) * fTimeRate;

  004e4	c7 45 bc 8b 85
	99 8f		 mov	 DWORD PTR _szEncEventType$543717[ebp], -1885764213 ; 8f99858bH
  004eb	c7 45 c0 80 83
	9f 83		 mov	 DWORD PTR _szEncEventType$543717[ebp+4], -2086698112 ; 839f8380H
  004f2	c7 45 c4 82 82
	b4 8f		 mov	 DWORD PTR _szEncEventType$543717[ebp+8], -1883995518 ; 8fb48282H
  004f9	8d 45 bc	 lea	 eax, DWORD PTR _szEncEventType$543717[ebp]
  004fc	88 5d c8	 mov	 BYTE PTR _szEncEventType$543717[ebp+12], bl
  004ff	59		 pop	 ecx
$LL603@AttackWeak:
  00500	81 30 ed ec eb
	ea		 xor	 DWORD PTR [eax], -353637139 ; eaebecedH
  00506	83 c0 04	 add	 eax, 4
  00509	49		 dec	 ecx
  0050a	75 f4		 jne	 SHORT $LL603@AttackWeak
  0050c	8d 45 bc	 lea	 eax, DWORD PTR _szEncEventType$543717[ebp]
  0050f	50		 push	 eax
  00510	8d 4d a4	 lea	 ecx, DWORD PTR $T543817[ebp]
  00513	ff 15 00 00 00
	00		 call	 DWORD PTR __imp_??0ioHashString@@QAE@PBD@Z
  00519	8b 4d 8c	 mov	 ecx, DWORD PTR _pGrp$[ebp]
  0051c	8d 45 a4	 lea	 eax, DWORD PTR $T543817[ebp]
  0051f	50		 push	 eax
  00520	ff 75 88	 push	 DWORD PTR _iAniID$[ebp]
  00523	c6 45 fc 06	 mov	 BYTE PTR __$EHRec$[ebp+8], 6
  00527	ff 15 00 00 00
	00		 call	 DWORD PTR __imp_?GetAnimationEventTime@ioEntityGroup@@QAEMHABVioHashString@@@Z
  0052d	d9 5d 94	 fstp	 DWORD PTR $T543816[ebp]
  00530	8d 4d a4	 lea	 ecx, DWORD PTR $T543817[ebp]
  00533	c6 45 fc 02	 mov	 BYTE PTR __$EHRec$[ebp+8], 2
  00537	ff 15 00 00 00
	00		 call	 DWORD PTR __imp_??1ioHashString@@QAE@XZ
  0053d	d9 45 94	 fld	 DWORD PTR $T543816[ebp]
  00540	8b 86 24 02 00
	00		 mov	 eax, DWORD PTR [esi+548]
  00546	d8 4d 84	 fmul	 DWORD PTR _fTimeRate$[ebp]
  00549	db 86 24 02 00
	00		 fild	 DWORD PTR [esi+548]
  0054f	85 c0		 test	 eax, eax
  00551	79 06		 jns	 SHORT $LN781@AttackWeak
  00553	dc 05 00 00 00
	00		 fadd	 QWORD PTR __real@41f0000000000000
$LN781@AttackWeak:
  00559	de c1		 faddp	 ST(1), ST(0)
  0055b	e8 00 00 00 00	 call	 __ftol2
  00560	6a 02		 push	 2
  00562	89 86 24 02 00
	00		 mov	 DWORD PTR [esi+548], eax

; 671  : 
; 672  : 	m_dwEnableReserveTime = 0;

  00568	89 9e dc 02 00
	00		 mov	 DWORD PTR [esi+732], ebx

; 673  : 	DWORD dwReserveTime = pGrp->GetAnimationEventTime_e( iAniID, "key_reserve" ) * fTimeRate;

  0056e	c7 45 d0 86 89
	92 b5		 mov	 DWORD PTR _szEncEventType$543862[ebp], -1248687738 ; b5928986H
  00575	c7 45 d4 9f 89
	98 8f		 mov	 DWORD PTR _szEncEventType$543862[ebp+4], -1885828705 ; 8f98899fH
  0057c	8d 45 d0	 lea	 eax, DWORD PTR _szEncEventType$543862[ebp]
  0057f	c7 45 d8 9f 9a
	8e 00		 mov	 DWORD PTR _szEncEventType$543862[ebp+8], 9345695 ; 008e9a9fH
  00586	59		 pop	 ecx
$LL710@AttackWeak:
  00587	81 30 ed ec eb
	ea		 xor	 DWORD PTR [eax], -353637139 ; eaebecedH
  0058d	83 c0 04	 add	 eax, 4
  00590	49		 dec	 ecx
  00591	75 f4		 jne	 SHORT $LL710@AttackWeak
  00593	6a 08		 push	 8
  00595	58		 pop	 eax
$LL707@AttackWeak:
  00596	8b c8		 mov	 ecx, eax
  00598	81 e1 03 00 00
	80		 and	 ecx, -2147483645	; 80000003H
  0059e	79 05		 jns	 SHORT $LN782@AttackWeak
  005a0	49		 dec	 ecx
  005a1	83 c9 fc	 or	 ecx, -4			; fffffffcH
  005a4	41		 inc	 ecx
$LN782@AttackWeak:
  005a5	b2 ed		 mov	 dl, -19			; ffffffedH
  005a7	2a d1		 sub	 dl, cl
  005a9	30 54 05 d0	 xor	 BYTE PTR _szEncEventType$543862[ebp+eax], dl
  005ad	40		 inc	 eax
  005ae	83 f8 0b	 cmp	 eax, 11			; 0000000bH
  005b1	7c e3		 jl	 SHORT $LL707@AttackWeak
  005b3	8d 45 d0	 lea	 eax, DWORD PTR _szEncEventType$543862[ebp]
  005b6	50		 push	 eax
  005b7	8d 4d c0	 lea	 ecx, DWORD PTR $T543849[ebp]
  005ba	ff 15 00 00 00
	00		 call	 DWORD PTR __imp_??0ioHashString@@QAE@PBD@Z
  005c0	8b 4d 8c	 mov	 ecx, DWORD PTR _pGrp$[ebp]
  005c3	8d 45 c0	 lea	 eax, DWORD PTR $T543849[ebp]
  005c6	50		 push	 eax
  005c7	ff 75 88	 push	 DWORD PTR _iAniID$[ebp]
  005ca	c6 45 fc 07	 mov	 BYTE PTR __$EHRec$[ebp+8], 7
  005ce	ff 15 00 00 00
	00		 call	 DWORD PTR __imp_?GetAnimationEventTime@ioEntityGroup@@QAEMHABVioHashString@@@Z
  005d4	d9 5d 94	 fstp	 DWORD PTR $T543848[ebp]
  005d7	8d 4d c0	 lea	 ecx, DWORD PTR $T543849[ebp]
  005da	c6 45 fc 02	 mov	 BYTE PTR __$EHRec$[ebp+8], 2
  005de	ff 15 00 00 00
	00		 call	 DWORD PTR __imp_??1ioHashString@@QAE@XZ
  005e4	d9 45 94	 fld	 DWORD PTR $T543848[ebp]
  005e7	d9 45 84	 fld	 DWORD PTR _fTimeRate$[ebp]
  005ea	d9 c0		 fld	 ST(0)
  005ec	de ca		 fmulp	 ST(2), ST(0)
  005ee	d9 c9		 fxch	 ST(1)
  005f0	e8 00 00 00 00	 call	 __ftol2

; 674  : 	if( dwReserveTime > 0 )

  005f5	3b c3		 cmp	 eax, ebx
  005f7	76 0c		 jbe	 SHORT $LN7@AttackWeak

; 675  : 		m_dwEnableReserveTime = dwCurTime + dwReserveTime;

  005f9	03 85 6c ff ff
	ff		 add	 eax, DWORD PTR _dwCurTime$[ebp]
  005ff	89 86 dc 02 00
	00		 mov	 DWORD PTR [esi+732], eax
$LN7@AttackWeak:

; 676  : 
; 677  : 	if( m_dwFireStartTime >= m_dwFireMotionEndTime )

  00605	8b 8e a4 11 00
	00		 mov	 ecx, DWORD PTR [esi+4516]
  0060b	3b 8e 24 02 00
	00		 cmp	 ecx, DWORD PTR [esi+548]
  00611	72 0c		 jb	 SHORT $LN6@AttackWeak

; 678  : 	{
; 679  : 		m_dwFireMotionEndTime = m_dwMotionEndTime;

  00613	8b 8e d8 02 00
	00		 mov	 ecx, DWORD PTR [esi+728]
  00619	89 8e 24 02 00
	00		 mov	 DWORD PTR [esi+548], ecx
$LN6@AttackWeak:

; 680  : 	}
; 681  : 
; 682  : 	if( m_vAttackDir.y == 0.0f || m_fCurMotionRate == 0.0f )		// center

  0061f	f3 0f 10 8e 9c
	11 00 00	 movss	 xmm1, DWORD PTR [esi+4508]
  00627	0f 57 c0	 xorps	 xmm0, xmm0
  0062a	0f 2e c8	 ucomiss xmm1, xmm0
  0062d	9f		 lahf
  0062e	f6 c4 44	 test	 ah, 68			; 00000044H
  00631	0f 8b cb 01 00
	00		 jnp	 $LN4@AttackWeak
  00637	f3 0f 10 96 8c
	11 00 00	 movss	 xmm2, DWORD PTR [esi+4492]
  0063f	0f 2e d0	 ucomiss xmm2, xmm0
  00642	9f		 lahf
  00643	f6 c4 44	 test	 ah, 68			; 00000044H
  00646	0f 8b b6 01 00
	00		 jnp	 $LN4@AttackWeak

; 685  : 	}
; 686  : 	else if( m_vAttackDir.y > 0.0f )	// center & up

  0064c	0f 2f c8	 comiss	 xmm1, xmm0
  0064f	0f 86 d8 00 00
	00		 jbe	 $LN2@AttackWeak

; 687  : 	{
; 688  : 		pGrp->SetActionAni( m_SkillUpMotion, 0.0f, 0.0f, m_fCurMotionRate, FLOAT1/fTimeRate, 0.0f, dwPreDelay );

  00655	b8 01 00 00 00	 mov	 eax, 1
  0065a	db 45 80	 fild	 DWORD PTR _dwPreDelay$[ebp]
  0065d	8b 4d 80	 mov	 ecx, DWORD PTR _dwPreDelay$[ebp]
  00660	85 c9		 test	 ecx, ecx
  00662	79 06		 jns	 SHORT $LN783@AttackWeak
  00664	d8 05 00 00 00
	00		 fadd	 DWORD PTR __real@4f800000
$LN783@AttackWeak:
  0066a	6a 01		 push	 1
  0066c	d9 5d 90	 fstp	 DWORD PTR tv5106[ebp]
  0066f	f3 0f 10 4d 90	 movss	 xmm1, DWORD PTR tv5106[ebp]
  00674	53		 push	 ebx
  00675	83 ec 18	 sub	 esp, 24			; 00000018H
  00678	f3 0f 11 4c 24
	14		 movss	 DWORD PTR [esp+20], xmm1
  0067e	89 45 94	 mov	 DWORD PTR tv5670[ebp], eax
  00681	db 45 94	 fild	 DWORD PTR tv5670[ebp]
  00684	f3 0f 11 44 24
	10		 movss	 DWORD PTR [esp+16], xmm0
  0068a	85 c0		 test	 eax, eax
  0068c	79 06		 jns	 SHORT $LN784@AttackWeak
  0068e	d8 05 00 00 00
	00		 fadd	 DWORD PTR __real@4f800000
$LN784@AttackWeak:
  00694	de f1		 fdivrp	 ST(1), ST(0)
  00696	f3 0f 10 8e 8c
	11 00 00	 movss	 xmm1, DWORD PTR [esi+4492]
  0069e	8b 4d 8c	 mov	 ecx, DWORD PTR _pGrp$[ebp]
  006a1	8d 86 3c 11 00
	00		 lea	 eax, DWORD PTR [esi+4412]
  006a7	d9 5d 94	 fstp	 DWORD PTR tv5667[ebp]
  006aa	d9 45 94	 fld	 DWORD PTR tv5667[ebp]
  006ad	d9 5c 24 0c	 fstp	 DWORD PTR [esp+12]
  006b1	f3 0f 11 4c 24
	08		 movss	 DWORD PTR [esp+8], xmm1
  006b7	f3 0f 11 44 24
	04		 movss	 DWORD PTR [esp+4], xmm0
  006bd	f3 0f 11 04 24	 movss	 DWORD PTR [esp], xmm0
  006c2	50		 push	 eax
  006c3	ff 15 00 00 00
	00		 call	 DWORD PTR __imp_?SetActionAni@ioEntityGroup@@QAE_NABVioHashString@@MMMMMM_N1@Z

; 689  : 		pGrp->SetActionAni( iAniID, 0.0f, 0.0f, FLOAT1 - m_fCurMotionRate, FLOAT1/fTimeRate, 0.0f, dwPreDelay );

  006c9	b8 01 00 00 00	 mov	 eax, 1
  006ce	8b c8		 mov	 ecx, eax
  006d0	b8 01 00 00 00	 mov	 eax, 1
  006d5	f3 0f 10 45 90	 movss	 xmm0, DWORD PTR tv5106[ebp]
  006da	6a 01		 push	 1
  006dc	53		 push	 ebx
  006dd	83 ec 18	 sub	 esp, 24			; 00000018H
  006e0	f3 0f 11 44 24
	14		 movss	 DWORD PTR [esp+20], xmm0
  006e6	0f 57 c0	 xorps	 xmm0, xmm0
  006e9	89 4d 94	 mov	 DWORD PTR tv5651[ebp], ecx
  006ec	db 45 94	 fild	 DWORD PTR tv5651[ebp]
  006ef	f3 0f 11 44 24
	10		 movss	 DWORD PTR [esp+16], xmm0
  006f5	85 c9		 test	 ecx, ecx
  006f7	79 06		 jns	 SHORT $LN785@AttackWeak
  006f9	d8 05 00 00 00
	00		 fadd	 DWORD PTR __real@4f800000
$LN785@AttackWeak:
  006ff	d8 75 84	 fdiv	 DWORD PTR _fTimeRate$[ebp]
  00702	d9 5d 94	 fstp	 DWORD PTR tv5648[ebp]
  00705	d9 45 94	 fld	 DWORD PTR tv5648[ebp]
  00708	d9 5c 24 0c	 fstp	 DWORD PTR [esp+12]
  0070c	89 45 94	 mov	 DWORD PTR tv5646[ebp], eax
  0070f	db 45 94	 fild	 DWORD PTR tv5646[ebp]
  00712	85 c0		 test	 eax, eax
  00714	79 06		 jns	 SHORT $LN786@AttackWeak
  00716	d8 05 00 00 00
	00		 fadd	 DWORD PTR __real@4f800000
$LN786@AttackWeak:
  0071c	d8 a6 8c 11 00
	00		 fsub	 DWORD PTR [esi+4492]
  00722	d9 5d 94	 fstp	 DWORD PTR tv5643[ebp]
  00725	d9 45 94	 fld	 DWORD PTR tv5643[ebp]

; 690  : 	}
; 691  : 	else								// center & down

  00728	e9 2d 01 00 00	 jmp	 $LN793@AttackWeak
$LN2@AttackWeak:

; 692  : 	{
; 693  : 		pGrp->SetActionAni( m_SkillDownMotion, 0.0f, 0.0f, m_fCurMotionRate, FLOAT1/fTimeRate, 0.0f, dwPreDelay );

  0072d	b8 01 00 00 00	 mov	 eax, 1
  00732	db 45 80	 fild	 DWORD PTR _dwPreDelay$[ebp]
  00735	8b 4d 80	 mov	 ecx, DWORD PTR _dwPreDelay$[ebp]
  00738	85 c9		 test	 ecx, ecx
  0073a	79 06		 jns	 SHORT $LN787@AttackWeak
  0073c	d8 05 00 00 00
	00		 fadd	 DWORD PTR __real@4f800000
$LN787@AttackWeak:
  00742	6a 01		 push	 1
  00744	d9 5d 90	 fstp	 DWORD PTR tv5106[ebp]
  00747	f3 0f 10 4d 90	 movss	 xmm1, DWORD PTR tv5106[ebp]
  0074c	53		 push	 ebx
  0074d	83 ec 18	 sub	 esp, 24			; 00000018H
  00750	f3 0f 11 4c 24
	14		 movss	 DWORD PTR [esp+20], xmm1
  00756	89 45 94	 mov	 DWORD PTR tv5623[ebp], eax
  00759	db 45 94	 fild	 DWORD PTR tv5623[ebp]
  0075c	f3 0f 11 44 24
	10		 movss	 DWORD PTR [esp+16], xmm0
  00762	85 c0		 test	 eax, eax
  00764	79 06		 jns	 SHORT $LN788@AttackWeak
  00766	d8 05 00 00 00
	00		 fadd	 DWORD PTR __real@4f800000
$LN788@AttackWeak:
  0076c	de f1		 fdivrp	 ST(1), ST(0)
  0076e	f3 0f 10 8e 8c
	11 00 00	 movss	 xmm1, DWORD PTR [esi+4492]
  00776	8b 4d 8c	 mov	 ecx, DWORD PTR _pGrp$[ebp]
  00779	8d 86 4c 11 00
	00		 lea	 eax, DWORD PTR [esi+4428]
  0077f	d9 5d 94	 fstp	 DWORD PTR tv5620[ebp]
  00782	d9 45 94	 fld	 DWORD PTR tv5620[ebp]
  00785	d9 5c 24 0c	 fstp	 DWORD PTR [esp+12]
  00789	f3 0f 11 4c 24
	08		 movss	 DWORD PTR [esp+8], xmm1
  0078f	f3 0f 11 44 24
	04		 movss	 DWORD PTR [esp+4], xmm0
  00795	f3 0f 11 04 24	 movss	 DWORD PTR [esp], xmm0
  0079a	50		 push	 eax
  0079b	ff 15 00 00 00
	00		 call	 DWORD PTR __imp_?SetActionAni@ioEntityGroup@@QAE_NABVioHashString@@MMMMMM_N1@Z

; 694  : 		pGrp->SetActionAni( iAniID, 0.0f, 0.0f, FLOAT1 - m_fCurMotionRate, FLOAT1/fTimeRate, 0.0f, dwPreDelay );

  007a1	b8 01 00 00 00	 mov	 eax, 1
  007a6	8b c8		 mov	 ecx, eax
  007a8	b8 01 00 00 00	 mov	 eax, 1
  007ad	f3 0f 10 45 90	 movss	 xmm0, DWORD PTR tv5106[ebp]
  007b2	6a 01		 push	 1
  007b4	53		 push	 ebx
  007b5	83 ec 18	 sub	 esp, 24			; 00000018H
  007b8	f3 0f 11 44 24
	14		 movss	 DWORD PTR [esp+20], xmm0
  007be	0f 57 c0	 xorps	 xmm0, xmm0
  007c1	89 4d 94	 mov	 DWORD PTR tv5604[ebp], ecx
  007c4	db 45 94	 fild	 DWORD PTR tv5604[ebp]
  007c7	f3 0f 11 44 24
	10		 movss	 DWORD PTR [esp+16], xmm0
  007cd	85 c9		 test	 ecx, ecx
  007cf	79 06		 jns	 SHORT $LN789@AttackWeak
  007d1	d8 05 00 00 00
	00		 fadd	 DWORD PTR __real@4f800000
$LN789@AttackWeak:
  007d7	d8 75 84	 fdiv	 DWORD PTR _fTimeRate$[ebp]
  007da	d9 5d 94	 fstp	 DWORD PTR tv5601[ebp]
  007dd	d9 45 94	 fld	 DWORD PTR tv5601[ebp]
  007e0	d9 5c 24 0c	 fstp	 DWORD PTR [esp+12]
  007e4	89 45 94	 mov	 DWORD PTR tv5599[ebp], eax
  007e7	db 45 94	 fild	 DWORD PTR tv5599[ebp]
  007ea	85 c0		 test	 eax, eax
  007ec	79 06		 jns	 SHORT $LN790@AttackWeak
  007ee	d8 05 00 00 00
	00		 fadd	 DWORD PTR __real@4f800000
$LN790@AttackWeak:
  007f4	d8 a6 8c 11 00
	00		 fsub	 DWORD PTR [esi+4492]
  007fa	d9 5d 94	 fstp	 DWORD PTR tv5596[ebp]
  007fd	d9 45 94	 fld	 DWORD PTR tv5596[ebp]
  00800	eb 58		 jmp	 SHORT $LN793@AttackWeak
$LN4@AttackWeak:

; 683  : 	{
; 684  : 		pGrp->SetActionAni( iAniID, 0.0f, 0.0f, FLOAT1, FLOAT1/fTimeRate, 0.0f, dwPreDelay );

  00802	b8 01 00 00 00	 mov	 eax, 1
  00807	8b c8		 mov	 ecx, eax
  00809	b8 01 00 00 00	 mov	 eax, 1
  0080e	db 45 80	 fild	 DWORD PTR _dwPreDelay$[ebp]
  00811	8b 55 80	 mov	 edx, DWORD PTR _dwPreDelay$[ebp]
  00814	6a 01		 push	 1
  00816	53		 push	 ebx
  00817	85 d2		 test	 edx, edx
  00819	79 06		 jns	 SHORT $LN791@AttackWeak
  0081b	d8 05 00 00 00
	00		 fadd	 DWORD PTR __real@4f800000
$LN791@AttackWeak:
  00821	83 ec 18	 sub	 esp, 24			; 00000018H
  00824	d9 5c 24 14	 fstp	 DWORD PTR [esp+20]
  00828	89 4d 94	 mov	 DWORD PTR tv5578[ebp], ecx
  0082b	db 45 94	 fild	 DWORD PTR tv5578[ebp]
  0082e	f3 0f 11 44 24
	10		 movss	 DWORD PTR [esp+16], xmm0
  00834	85 c9		 test	 ecx, ecx
  00836	79 06		 jns	 SHORT $LN792@AttackWeak
  00838	d8 05 00 00 00
	00		 fadd	 DWORD PTR __real@4f800000
$LN792@AttackWeak:
  0083e	de f1		 fdivrp	 ST(1), ST(0)
  00840	d9 5d 94	 fstp	 DWORD PTR tv5575[ebp]
  00843	d9 45 94	 fld	 DWORD PTR tv5575[ebp]
  00846	d9 5c 24 0c	 fstp	 DWORD PTR [esp+12]
  0084a	89 45 94	 mov	 DWORD PTR tv5573[ebp], eax
  0084d	db 45 94	 fild	 DWORD PTR tv5573[ebp]
  00850	85 c0		 test	 eax, eax
  00852	79 06		 jns	 SHORT $LN793@AttackWeak
  00854	d8 05 00 00 00
	00		 fadd	 DWORD PTR __real@4f800000
$LN793@AttackWeak:
  0085a	8b 4d 8c	 mov	 ecx, DWORD PTR _pGrp$[ebp]
  0085d	d9 5c 24 08	 fstp	 DWORD PTR [esp+8]
  00861	f3 0f 11 44 24
	04		 movss	 DWORD PTR [esp+4], xmm0
  00867	f3 0f 11 04 24	 movss	 DWORD PTR [esp], xmm0
  0086c	ff 75 88	 push	 DWORD PTR _iAniID$[ebp]
  0086f	ff 15 00 00 00
	00		 call	 DWORD PTR __imp_?SetActionAni@ioEntityGroup@@QAE_NHMMMMMM_N0@Z

; 695  : 	}
; 696  : 
; 697  : 	pChar->SetReservedSliding( GetAttribute().m_vForceInfoList, iAniID, fTimeRate, dwPreDelay );

  00875	f3 0f 10 05 00
	00 00 00	 movss	 xmm0, DWORD PTR __real@3f800000
  0087d	8b 06		 mov	 eax, DWORD PTR [esi]
  0087f	6a 01		 push	 1
  00881	51		 push	 ecx
  00882	f3 0f 11 04 24	 movss	 DWORD PTR [esp], xmm0
  00887	ff 75 80	 push	 DWORD PTR _dwPreDelay$[ebp]
  0088a	f3 0f 10 45 84	 movss	 xmm0, DWORD PTR _fTimeRate$[ebp]
  0088f	51		 push	 ecx
  00890	f3 0f 11 04 24	 movss	 DWORD PTR [esp], xmm0
  00895	ff 75 88	 push	 DWORD PTR _iAniID$[ebp]
  00898	8b ce		 mov	 ecx, esi
  0089a	ff 90 a4 01 00
	00		 call	 DWORD PTR [eax+420]
  008a0	8b bd 68 ff ff
	ff		 mov	 edi, DWORD PTR _pChar$GSCopy$[ebp]
  008a6	83 c0 38	 add	 eax, 56			; 00000038H
  008a9	50		 push	 eax
  008aa	8b cf		 mov	 ecx, edi
  008ac	e8 00 00 00 00	 call	 ?SetReservedSliding@ioBaseChar@@QAEXABV?$vector@UForceInfo@@V?$allocator@UForceInfo@@@std@@@std@@HMKM_N@Z ; ioBaseChar::SetReservedSliding

; 698  : 	pChar->ReduceNeedGaugeBySkill( this, GetNeedGauge(pChar->GetCharName()) );

  008b1	8d 87 d4 02 00
	00		 lea	 eax, DWORD PTR [edi+724]
  008b7	50		 push	 eax
  008b8	8b ce		 mov	 ecx, esi
  008ba	e8 00 00 00 00	 call	 ?GetNeedGauge@ioSkill@@QAEMABVioHashString@@@Z ; ioSkill::GetNeedGauge
  008bf	51		 push	 ecx
  008c0	d9 1c 24	 fstp	 DWORD PTR [esp]
  008c3	56		 push	 esi
  008c4	8b cf		 mov	 ecx, edi
  008c6	e8 00 00 00 00	 call	 ?ReduceNeedGaugeBySkill@ioBaseChar@@QAEMPAVioSkill@@M@Z ; ioBaseChar::ReduceNeedGaugeBySkill
  008cb	dd d8		 fstp	 ST(0)

; 699  : 	m_bReduceGauge = true;
; 700  : }

  008cd	83 4d fc ff	 or	 DWORD PTR __$EHRec$[ebp+8], -1
  008d1	8d 8d 70 ff ff
	ff		 lea	 ecx, DWORD PTR _vAniRotateList$[ebp]
  008d7	c6 86 50 03 00
	00 01		 mov	 BYTE PTR [esi+848], 1
  008de	e8 00 00 00 00	 call	 ?_Tidy@?$vector@PBUAniEventTime@@V?$allocator@PBUAniEventTime@@@std@@@std@@IAEXXZ ; std::vector<AniEventTime const *,std::allocator<AniEventTime const *> >::_Tidy
$LN731@AttackWeak:
  008e3	e8 00 00 00 00	 call	 __EH_epilog3_GS
  008e8	c2 04 00	 ret	 4
_TEXT	ENDS
;	COMDAT text$x
text$x	SEGMENT
__unwindfunclet$?AttackWeakSkillFire@ioAngleFireSkill@@IAEXPAVioBaseChar@@@Z$3:
  00000	8d 4d a4	 lea	 ecx, DWORD PTR $T542878[ebp]
  00003	ff 25 00 00 00
	00		 jmp	 DWORD PTR __imp_??1ioHashString@@QAE@XZ
__unwindfunclet$?AttackWeakSkillFire@ioAngleFireSkill@@IAEXPAVioBaseChar@@@Z$4:
  00009	8d 4d a4	 lea	 ecx, DWORD PTR $T543102[ebp]
  0000c	ff 25 00 00 00
	00		 jmp	 DWORD PTR __imp_??1ioHashString@@QAE@XZ
__unwindfunclet$?AttackWeakSkillFire@ioAngleFireSkill@@IAEXPAVioBaseChar@@@Z$0:
  00012	8d 8d 70 ff ff
	ff		 lea	 ecx, DWORD PTR _vAniRotateList$[ebp]
  00018	e9 00 00 00 00	 jmp	 ??1?$vector@PBUAniEventTime@@V?$allocator@PBUAniEventTime@@@std@@@std@@QAE@XZ ; std::vector<AniEventTime const *,std::allocator<AniEventTime const *> >::~vector<AniEventTime const *,std::allocator<AniEventTime const *> >
__unwindfunclet$?AttackWeakSkillFire@ioAngleFireSkill@@IAEXPAVioBaseChar@@@Z$5:
  0001d	8d 4d a4	 lea	 ecx, DWORD PTR $T543296[ebp]
  00020	ff 25 00 00 00
	00		 jmp	 DWORD PTR __imp_??1ioHashString@@QAE@XZ
__unwindfunclet$?AttackWeakSkillFire@ioAngleFireSkill@@IAEXPAVioBaseChar@@@Z$1:
  00026	8d 4d 98	 lea	 ecx, DWORD PTR $T531377[ebp]
  00029	e9 00 00 00 00	 jmp	 ??1?$basic_string@DU?$char_traits@D@std@@V?$allocator@D@2@@std@@QAE@XZ ; std::basic_string<char,std::char_traits<char>,std::allocator<char> >::~basic_string<char,std::char_traits<char>,std::allocator<char> >
__unwindfunclet$?AttackWeakSkillFire@ioAngleFireSkill@@IAEXPAVioBaseChar@@@Z$2:
  0002e	8d 4d b4	 lea	 ecx, DWORD PTR $T531378[ebp]
  00031	e9 00 00 00 00	 jmp	 ??1?$basic_string@DU?$char_traits@D@std@@V?$allocator@D@2@@std@@QAE@XZ ; std::basic_string<char,std::char_traits<char>,std::allocator<char> >::~basic_string<char,std::char_traits<char>,std::allocator<char> >
__unwindfunclet$?AttackWeakSkillFire@ioAngleFireSkill@@IAEXPAVioBaseChar@@@Z$6:
  00036	8d 4d a4	 lea	 ecx, DWORD PTR $T543817[ebp]
  00039	ff 25 00 00 00
	00		 jmp	 DWORD PTR __imp_??1ioHashString@@QAE@XZ
__unwindfunclet$?AttackWeakSkillFire@ioAngleFireSkill@@IAEXPAVioBaseChar@@@Z$7:
  0003f	8d 4d c0	 lea	 ecx, DWORD PTR $T543849[ebp]
  00042	ff 25 00 00 00
	00		 jmp	 DWORD PTR __imp_??1ioHashString@@QAE@XZ
__ehhandler$?AttackWeakSkillFire@ioAngleFireSkill@@IAEXPAVioBaseChar@@@Z:
  00048	8b 54 24 08	 mov	 edx, DWORD PTR [esp+8]
  0004c	8d 42 0c	 lea	 eax, DWORD PTR [edx+12]
  0004f	8b 8a 64 ff ff
	ff		 mov	 ecx, DWORD PTR [edx-156]
  00055	33 c8		 xor	 ecx, eax
  00057	e8 00 00 00 00	 call	 @__security_check_cookie@4
  0005c	8b 4a fc	 mov	 ecx, DWORD PTR [edx-4]
  0005f	33 c8		 xor	 ecx, eax
  00061	e8 00 00 00 00	 call	 @__security_check_cookie@4
  00066	b8 00 00 00 00	 mov	 eax, OFFSET __ehfuncinfo$?AttackWeakSkillFire@ioAngleFireSkill@@IAEXPAVioBaseChar@@@Z
  0006b	e9 00 00 00 00	 jmp	 ___CxxFrameHandler3
text$x	ENDS
?AttackWeakSkillFire@ioAngleFireSkill@@IAEXPAVioBaseChar@@@Z ENDP ; ioAngleFireSkill::AttackWeakSkillFire
PUBLIC	??0AttackAttribute@@QAE@XZ			; AttackAttribute::AttackAttribute
EXTRN	__imp_??0ioHashString@@QAE@XZ:PROC
;	COMDAT xdata$x
; File c:\program files (x86)\microsoft visual studio 10.0\vc\include\xmemory
xdata$x	SEGMENT
__unwindtable$??0AttackAttribute@@QAE@XZ DD 0ffffffffH
	DD	FLAT:__unwindfunclet$??0AttackAttribute@@QAE@XZ$0
	DD	00H
	DD	FLAT:__unwindfunclet$??0AttackAttribute@@QAE@XZ$1
	DD	01H
	DD	FLAT:__unwindfunclet$??0AttackAttribute@@QAE@XZ$2
	DD	02H
	DD	FLAT:__unwindfunclet$??0AttackAttribute@@QAE@XZ$3
__ehfuncinfo$??0AttackAttribute@@QAE@XZ DD 019930522H
	DD	04H
	DD	FLAT:__unwindtable$??0AttackAttribute@@QAE@XZ
	DD	2 DUP(00H)
	DD	2 DUP(00H)
	DD	00H
	DD	01H
; Function compile flags: /Ogsp
; File d:\lost saga for developer\youtube\tutorial\source\src\lsclient\ioattackattribute.h
xdata$x	ENDS
;	COMDAT ??0AttackAttribute@@QAE@XZ
_TEXT	SEGMENT
_this$ = -16						; size = 4
__$EHRec$ = -12						; size = 12
??0AttackAttribute@@QAE@XZ PROC				; AttackAttribute::AttackAttribute, COMDAT
; _this$ = ecx

; 107  : 	AttackAttribute()

  00000	6a 04		 push	 4
  00002	b8 00 00 00 00	 mov	 eax, __ehhandler$??0AttackAttribute@@QAE@XZ
  00007	e8 00 00 00 00	 call	 __EH_prolog3
  0000c	8b f1		 mov	 esi, ecx
  0000e	89 75 f0	 mov	 DWORD PTR _this$[ebp], esi
  00011	8b 3d 00 00 00
	00		 mov	 edi, DWORD PTR __imp_??0ioHashString@@QAE@XZ
  00017	ff d7		 call	 edi
  00019	33 db		 xor	 ebx, ebx
  0001b	8d 4e 14	 lea	 ecx, DWORD PTR [esi+20]
  0001e	89 5d fc	 mov	 DWORD PTR __$EHRec$[ebp+8], ebx
  00021	ff d7		 call	 edi
  00023	89 5e 28	 mov	 DWORD PTR [esi+40], ebx
  00026	89 5e 2c	 mov	 DWORD PTR [esi+44], ebx
  00029	89 5e 30	 mov	 DWORD PTR [esi+48], ebx
  0002c	89 5e 38	 mov	 DWORD PTR [esi+56], ebx
  0002f	89 5e 3c	 mov	 DWORD PTR [esi+60], ebx
  00032	89 5e 40	 mov	 DWORD PTR [esi+64], ebx

; 108  : 	{
; 109  : 		Init();

  00035	8b ce		 mov	 ecx, esi
  00037	c6 45 fc 03	 mov	 BYTE PTR __$EHRec$[ebp+8], 3
  0003b	e8 00 00 00 00	 call	 ?Init@AttackAttribute@@QAEXXZ ; AttackAttribute::Init

; 110  : 	}

  00040	8b c6		 mov	 eax, esi
  00042	e8 00 00 00 00	 call	 __EH_epilog3
  00047	c3		 ret	 0
_TEXT	ENDS
;	COMDAT text$x
text$x	SEGMENT
__unwindfunclet$??0AttackAttribute@@QAE@XZ$0:
  00000	8b 4d f0	 mov	 ecx, DWORD PTR _this$[ebp]
  00003	ff 25 00 00 00
	00		 jmp	 DWORD PTR __imp_??1ioHashString@@QAE@XZ
__unwindfunclet$??0AttackAttribute@@QAE@XZ$1:
  00009	8b 4d f0	 mov	 ecx, DWORD PTR _this$[ebp]
  0000c	83 c1 14	 add	 ecx, 20			; 00000014H
  0000f	ff 25 00 00 00
	00		 jmp	 DWORD PTR __imp_??1ioHashString@@QAE@XZ
__unwindfunclet$??0AttackAttribute@@QAE@XZ$2:
  00015	8b 4d f0	 mov	 ecx, DWORD PTR _this$[ebp]
  00018	83 c1 28	 add	 ecx, 40			; 00000028H
  0001b	e9 00 00 00 00	 jmp	 ??1?$vector@UWeaponInfo@@V?$allocator@UWeaponInfo@@@std@@@std@@QAE@XZ ; std::vector<WeaponInfo,std::allocator<WeaponInfo> >::~vector<WeaponInfo,std::allocator<WeaponInfo> >
__unwindfunclet$??0AttackAttribute@@QAE@XZ$3:
  00020	8b 4d f0	 mov	 ecx, DWORD PTR _this$[ebp]
  00023	83 c1 38	 add	 ecx, 56			; 00000038H
  00026	e9 00 00 00 00	 jmp	 ??1?$vector@UForceInfo@@V?$allocator@UForceInfo@@@std@@@std@@QAE@XZ ; std::vector<ForceInfo,std::allocator<ForceInfo> >::~vector<ForceInfo,std::allocator<ForceInfo> >
__ehhandler$??0AttackAttribute@@QAE@XZ:
  0002b	8b 54 24 08	 mov	 edx, DWORD PTR [esp+8]
  0002f	8d 42 0c	 lea	 eax, DWORD PTR [edx+12]
  00032	8b 4a ec	 mov	 ecx, DWORD PTR [edx-20]
  00035	33 c8		 xor	 ecx, eax
  00037	e8 00 00 00 00	 call	 @__security_check_cookie@4
  0003c	b8 00 00 00 00	 mov	 eax, OFFSET __ehfuncinfo$??0AttackAttribute@@QAE@XZ
  00041	e9 00 00 00 00	 jmp	 ___CxxFrameHandler3
text$x	ENDS
??0AttackAttribute@@QAE@XZ ENDP				; AttackAttribute::AttackAttribute
PUBLIC	??1AttackAttribute@@QAE@XZ			; AttackAttribute::~AttackAttribute
;	COMDAT xdata$x
xdata$x	SEGMENT
__unwindtable$??1AttackAttribute@@QAE@XZ DD 0ffffffffH
	DD	FLAT:__unwindfunclet$??1AttackAttribute@@QAE@XZ$0
	DD	00H
	DD	FLAT:__unwindfunclet$??1AttackAttribute@@QAE@XZ$1
	DD	01H
	DD	FLAT:__unwindfunclet$??1AttackAttribute@@QAE@XZ$2
__ehfuncinfo$??1AttackAttribute@@QAE@XZ DD 019930522H
	DD	03H
	DD	FLAT:__unwindtable$??1AttackAttribute@@QAE@XZ
	DD	2 DUP(00H)
	DD	2 DUP(00H)
	DD	00H
	DD	01H
; Function compile flags: /Ogsp
xdata$x	ENDS
;	COMDAT ??1AttackAttribute@@QAE@XZ
_TEXT	SEGMENT
_this$ = -16						; size = 4
__$EHRec$ = -12						; size = 12
??1AttackAttribute@@QAE@XZ PROC				; AttackAttribute::~AttackAttribute, COMDAT
; _this$ = ecx
  00000	6a 04		 push	 4
  00002	b8 00 00 00 00	 mov	 eax, __ehhandler$??1AttackAttribute@@QAE@XZ
  00007	e8 00 00 00 00	 call	 __EH_prolog3
  0000c	8b f1		 mov	 esi, ecx
  0000e	89 75 f0	 mov	 DWORD PTR _this$[ebp], esi
  00011	8d 4e 38	 lea	 ecx, DWORD PTR [esi+56]
  00014	c7 45 fc 02 00
	00 00		 mov	 DWORD PTR __$EHRec$[ebp+8], 2
  0001b	e8 00 00 00 00	 call	 ?_Tidy@?$vector@UForceInfo@@V?$allocator@UForceInfo@@@std@@@std@@IAEXXZ ; std::vector<ForceInfo,std::allocator<ForceInfo> >::_Tidy
  00020	8d 4e 28	 lea	 ecx, DWORD PTR [esi+40]
  00023	c6 45 fc 01	 mov	 BYTE PTR __$EHRec$[ebp+8], 1
  00027	e8 00 00 00 00	 call	 ?_Tidy@?$vector@UWeaponInfo@@V?$allocator@UWeaponInfo@@@std@@@std@@IAEXXZ ; std::vector<WeaponInfo,std::allocator<WeaponInfo> >::_Tidy
  0002c	8b 3d 00 00 00
	00		 mov	 edi, DWORD PTR __imp_??1ioHashString@@QAE@XZ
  00032	8d 4e 14	 lea	 ecx, DWORD PTR [esi+20]
  00035	c6 45 fc 00	 mov	 BYTE PTR __$EHRec$[ebp+8], 0
  00039	ff d7		 call	 edi
  0003b	83 4d fc ff	 or	 DWORD PTR __$EHRec$[ebp+8], -1
  0003f	8b ce		 mov	 ecx, esi
  00041	ff d7		 call	 edi
  00043	e8 00 00 00 00	 call	 __EH_epilog3
  00048	c3		 ret	 0
_TEXT	ENDS
;	COMDAT text$x
text$x	SEGMENT
__unwindfunclet$??1AttackAttribute@@QAE@XZ$0:
  00000	8b 4d f0	 mov	 ecx, DWORD PTR _this$[ebp]
  00003	ff 25 00 00 00
	00		 jmp	 DWORD PTR __imp_??1ioHashString@@QAE@XZ
__unwindfunclet$??1AttackAttribute@@QAE@XZ$1:
  00009	8b 4d f0	 mov	 ecx, DWORD PTR _this$[ebp]
  0000c	83 c1 14	 add	 ecx, 20			; 00000014H
  0000f	ff 25 00 00 00
	00		 jmp	 DWORD PTR __imp_??1ioHashString@@QAE@XZ
__unwindfunclet$??1AttackAttribute@@QAE@XZ$2:
  00015	8b 4d f0	 mov	 ecx, DWORD PTR _this$[ebp]
  00018	83 c1 28	 add	 ecx, 40			; 00000028H
  0001b	e9 00 00 00 00	 jmp	 ??1?$vector@UWeaponInfo@@V?$allocator@UWeaponInfo@@@std@@@std@@QAE@XZ ; std::vector<WeaponInfo,std::allocator<WeaponInfo> >::~vector<WeaponInfo,std::allocator<WeaponInfo> >
__ehhandler$??1AttackAttribute@@QAE@XZ:
  00020	8b 54 24 08	 mov	 edx, DWORD PTR [esp+8]
  00024	8d 42 0c	 lea	 eax, DWORD PTR [edx+12]
  00027	8b 4a ec	 mov	 ecx, DWORD PTR [edx-20]
  0002a	33 c8		 xor	 ecx, eax
  0002c	e8 00 00 00 00	 call	 @__security_check_cookie@4
  00031	b8 00 00 00 00	 mov	 eax, OFFSET __ehfuncinfo$??1AttackAttribute@@QAE@XZ
  00036	e9 00 00 00 00	 jmp	 ___CxxFrameHandler3
text$x	ENDS
??1AttackAttribute@@QAE@XZ ENDP				; AttackAttribute::~AttackAttribute
PUBLIC	??_7ioAngleFireSkill@@6B@			; ioAngleFireSkill::`vftable'
PUBLIC	??0ioAngleFireSkill@@QAE@XZ			; ioAngleFireSkill::ioAngleFireSkill
PUBLIC	??_R4ioAngleFireSkill@@6B@			; ioAngleFireSkill::`RTTI Complete Object Locator'
PUBLIC	??_R0?AVioAngleFireSkill@@@8			; ioAngleFireSkill `RTTI Type Descriptor'
PUBLIC	??_R3ioAngleFireSkill@@8			; ioAngleFireSkill::`RTTI Class Hierarchy Descriptor'
PUBLIC	??_R2ioAngleFireSkill@@8			; ioAngleFireSkill::`RTTI Base Class Array'
PUBLIC	??_R1A@?0A@EA@ioAngleFireSkill@@8		; ioAngleFireSkill::`RTTI Base Class Descriptor at (0,-1,0,64)'
PUBLIC	??_R1A@?0A@EA@ioAttackSkill@@8			; ioAttackSkill::`RTTI Base Class Descriptor at (0,-1,0,64)'
PUBLIC	??_R0?AVioAttackSkill@@@8			; ioAttackSkill `RTTI Type Descriptor'
PUBLIC	??_R3ioAttackSkill@@8				; ioAttackSkill::`RTTI Class Hierarchy Descriptor'
PUBLIC	??_R2ioAttackSkill@@8				; ioAttackSkill::`RTTI Base Class Array'
PUBLIC	??_R1A@?0A@EA@ioSkill@@8			; ioSkill::`RTTI Base Class Descriptor at (0,-1,0,64)'
PUBLIC	??_R0?AVioSkill@@@8				; ioSkill `RTTI Type Descriptor'
PUBLIC	??_R3ioSkill@@8					; ioSkill::`RTTI Class Hierarchy Descriptor'
PUBLIC	??_R2ioSkill@@8					; ioSkill::`RTTI Base Class Array'
PUBLIC	?Clone@ioAngleFireSkill@@UAEPAVioSkill@@XZ	; ioAngleFireSkill::Clone
PUBLIC	?GetDefenseSkillBreakeType@ioSkill@@UBE?AW4DefenseBreakType@@XZ ; ioSkill::GetDefenseSkillBreakeType
PUBLIC	?GetSkillEndNextJumpAmt@ioSkill@@UBEMXZ		; ioSkill::GetSkillEndNextJumpAmt
PUBLIC	?GetSkillEndNextLandRate@ioSkill@@UBEMXZ	; ioSkill::GetSkillEndNextLandRate
PUBLIC	?GetSkillEndNextJumpMustEnable@ioSkill@@UAE?AW4SkillEndJumpType@@XZ ; ioSkill::GetSkillEndNextJumpMustEnable
PUBLIC	?EnableChangeGrapplingTargetPos@ioSkill@@UBE_NXZ ; ioSkill::EnableChangeGrapplingTargetPos
PUBLIC	?OnProcessState@ioAngleFireSkill@@UAEXPAVioBaseChar@@PAVioPlayStage@@@Z ; ioAngleFireSkill::OnProcessState
PUBLIC	?ApplyExtraSkillInfo@ioAngleFireSkill@@UAEXPAVioBaseChar@@PAVioPlayStage@@AAVSP2Packet@@@Z ; ioAngleFireSkill::ApplyExtraSkillInfo
PUBLIC	?IsInvisibleBottomCircle@ioSkill@@UAE_NPAVioBaseChar@@@Z ; ioSkill::IsInvisibleBottomCircle
PUBLIC	?IsCanJumpingSkill@ioSkill@@UBE_NXZ		; ioSkill::IsCanJumpingSkill
PUBLIC	?IsCanJumpingSkillOnBlowWound@ioSkill@@UBE_NXZ	; ioSkill::IsCanJumpingSkillOnBlowWound
PUBLIC	?IsCanDownSkill@ioSkill@@UBE_NXZ		; ioSkill::IsCanDownSkill
PUBLIC	?IsCanBlowWoundSkill@ioSkill@@UBE_NXZ		; ioSkill::IsCanBlowWoundSkill
PUBLIC	?IsCanWoundSkill@ioSkill@@UBE_NXZ		; ioSkill::IsCanWoundSkill
PUBLIC	?IsUseActiveCnt@ioSkill@@UBE_NXZ		; ioSkill::IsUseActiveCnt
PUBLIC	?GetMaxActiveCnt@ioSkill@@UBEHPAVioBaseChar@@@Z	; ioSkill::GetMaxActiveCnt
PUBLIC	?GetCurActiveCnt@ioSkill@@UBEHPAVioBaseChar@@@Z	; ioSkill::GetCurActiveCnt
EXTRN	??1ioAttackSkill@@UAE@XZ:PROC			; ioAttackSkill::~ioAttackSkill
EXTRN	??0ioAttackSkill@@QAE@XZ:PROC			; ioAttackSkill::ioAttackSkill
EXTRN	?GetTypeID@ioAttackSkill@@UBEHXZ:PROC		; ioAttackSkill::GetTypeID
EXTRN	?IsProtected@ioSkill@@UBE_NH@Z:PROC		; ioSkill::IsProtected
EXTRN	?IsCanSwitchSkill@ioSkill@@UBE_NXZ:PROC		; ioSkill::IsCanSwitchSkill
EXTRN	?IsCanSemiSwitchSkill@ioSkill@@UBE_NXZ:PROC	; ioSkill::IsCanSemiSwitchSkill
EXTRN	?IsCanCancelBySkill@ioSkill@@UBE_NPAVioBaseChar@@AAH@Z:PROC ; ioSkill::IsCanCancelBySkill
EXTRN	?IsCanUseZeroHP@ioSkill@@UBE_NPAVioBaseChar@@@Z:PROC ; ioSkill::IsCanUseZeroHP
EXTRN	?IsCanUseSkillWithCrown@ioSkill@@UAE_NPAVioBaseChar@@@Z:PROC ; ioSkill::IsCanUseSkillWithCrown
EXTRN	?IsCanUseBoss@ioSkill@@UBE_NPAVioBaseChar@@@Z:PROC ; ioSkill::IsCanUseBoss
EXTRN	?IsCanUseFootball@ioSkill@@UBE_NXZ:PROC		; ioSkill::IsCanUseFootball
EXTRN	?IsCanUseGangSiMode@ioSkill@@UBE_NXZ:PROC	; ioSkill::IsCanUseGangSiMode
EXTRN	?IsCanUseByWeaponType@ioSkill@@UBE_NPAVioBaseChar@@@Z:PROC ; ioSkill::IsCanUseByWeaponType
EXTRN	?IsCanUseThunderBirdHold@ioSkill@@UBE_NPAVioBaseChar@@@Z:PROC ; ioSkill::IsCanUseThunderBirdHold
EXTRN	?IsCanUseLimitHP@ioSkill@@UBE_NPAVioBaseChar@@@Z:PROC ; ioSkill::IsCanUseLimitHP
EXTRN	?IsCanUseSkill@ioAttackSkill@@UAE_NPAVioBaseChar@@_N@Z:PROC ; ioAttackSkill::IsCanUseSkill
EXTRN	?IsOnOffEnable@ioSkill@@UAE_NXZ:PROC		; ioSkill::IsOnOffEnable
EXTRN	?IsCanDefenseStateSkill@ioSkill@@UAE_NXZ:PROC	; ioSkill::IsCanDefenseStateSkill
EXTRN	?SetDefenseStateSkill@ioSkill@@UAEXPAVioBaseChar@@@Z:PROC ; ioSkill::SetDefenseStateSkill
EXTRN	?HasBuff@ioSkill@@UBE_NH@Z:PROC			; ioSkill::HasBuff
EXTRN	?GetBuffType@ioSkill@@UAEHH@Z:PROC		; ioSkill::GetBuffType
EXTRN	?IsCharSkipState@ioSkill@@UBE?AW4SkillCharColType@@XZ:PROC ; ioSkill::IsCharSkipState
EXTRN	?IsEntityCollisionSkipState@ioSkill@@UBE_NXZ:PROC ; ioSkill::IsEntityCollisionSkipState
EXTRN	?IsEndState@ioSkill@@UBE_NXZ:PROC		; ioSkill::IsEndState
EXTRN	?IsAttackEndState@ioAttackSkill@@UBE_NXZ:PROC	; ioAttackSkill::IsAttackEndState
EXTRN	?IsJumpState@ioSkill@@UBE_NXZ:PROC		; ioSkill::IsJumpState
EXTRN	?IsDownState@ioSkill@@UBE_NXZ:PROC		; ioSkill::IsDownState
EXTRN	?IsNoDropState@ioSkill@@UBE_NXZ:PROC		; ioSkill::IsNoDropState
EXTRN	?IsCanSendControl@ioSkill@@UBE_NXZ:PROC		; ioSkill::IsCanSendControl
EXTRN	?IsSkipState@ioSkill@@UBE_NXZ:PROC		; ioSkill::IsSkipState
EXTRN	?GetSkillMoveRate@ioSkill@@UBEMXZ:PROC		; ioSkill::GetSkillMoveRate
EXTRN	?SetSkillGrapplingState@ioSkill@@UAE_NPAVioBaseChar@@ABVioHashString@@@Z:PROC ; ioSkill::SetSkillGrapplingState
EXTRN	?GetGrapplingTargetPos@ioSkill@@UAE?AUD3DXVECTOR3@@PAVioBaseChar@@0@Z:PROC ; ioSkill::GetGrapplingTargetPos
EXTRN	?GetGrapplingTargetPos@ioSkill@@UAE?AUD3DXVECTOR3@@PAVioBaseChar@@@Z:PROC ; ioSkill::GetGrapplingTargetPos
EXTRN	?GetSkillWoundGrapplingInfo@ioSkill@@UAE?AUGrapplingSkillWoundedInfo@@XZ:PROC ; ioSkill::GetSkillWoundGrapplingInfo
EXTRN	?SetCreateWeaponDependency@ioSkill@@UAEXPAVioBaseChar@@PAVioPlayStage@@@Z:PROC ; ioSkill::SetCreateWeaponDependency
EXTRN	?SetNextSkillState@ioSkill@@UAEXPAVioBaseChar@@PAVioWeapon@@@Z:PROC ; ioSkill::SetNextSkillState
EXTRN	?OnSkillEndByWounded@ioSkill@@UAEXPAVioBaseChar@@@Z:PROC ; ioSkill::OnSkillEndByWounded
EXTRN	?OnProcessNotUseSkill@ioSkill@@UAEXPAVioBaseChar@@PAVioPlayStage@@@Z:PROC ; ioSkill::OnProcessNotUseSkill
EXTRN	?OnSkillItemRelease@ioSkill@@UAEXPAVioBaseChar@@@Z:PROC ; ioSkill::OnSkillItemRelease
EXTRN	?ApplyEquipSlotSkillExtraInfo@ioSkill@@UAEXPAVioBaseChar@@PAVioPlayStage@@AAVSP2Packet@@@Z:PROC ; ioSkill::ApplyEquipSlotSkillExtraInfo
EXTRN	?ApplyExtraPassiveSkillInfo@ioSkill@@UAEXPAVioBaseChar@@PAVioPlayStage@@AAVSP2Packet@@@Z:PROC ; ioSkill::ApplyExtraPassiveSkillInfo
EXTRN	?StartPreDelayEffect@ioAttackSkill@@UAEXPAVioBaseChar@@@Z:PROC ; ioAttackSkill::StartPreDelayEffect
EXTRN	?EndPreDelayEffect@ioAttackSkill@@UAEXPAVioBaseChar@@@Z:PROC ; ioAttackSkill::EndPreDelayEffect
EXTRN	?IsUseAutoTargetValue@ioAttackSkill@@UAE_NXZ:PROC ; ioAttackSkill::IsUseAutoTargetValue
EXTRN	?IsAutoTargetDownState@ioSkill@@UAE_NXZ:PROC	; ioSkill::IsAutoTargetDownState
EXTRN	?CheckUseBuff@ioSkill@@UAE_NPAVioBaseChar@@@Z:PROC ; ioSkill::CheckUseBuff
EXTRN	?CheckUseActiveCount@ioSkill@@UAE_NXZ:PROC	; ioSkill::CheckUseActiveCount
EXTRN	?CheckAniRotate@ioSkill@@UAEXPAVioBaseChar@@@Z:PROC ; ioSkill::CheckAniRotate
EXTRN	?IsEnableDashCheck@ioSkill@@UAE_NPAVioBaseChar@@@Z:PROC ; ioSkill::IsEnableDashCheck
EXTRN	?IsEnableMultiActive@ioSkill@@UAE_NPAVioBaseChar@@@Z:PROC ; ioSkill::IsEnableMultiActive
EXTRN	?GetAutoTargetValue@ioSkill@@UAEXAAM00@Z:PROC	; ioSkill::GetAutoTargetValue
EXTRN	?GetSkillGravityRate@ioSkill@@UAEMXZ:PROC	; ioSkill::GetSkillGravityRate
EXTRN	?GetSkillMotionName@ioSkill@@UBEABVioHashString@@XZ:PROC ; ioSkill::GetSkillMotionName
EXTRN	?HasSkillMotion@ioSkill@@UBE_NXZ:PROC		; ioSkill::HasSkillMotion
EXTRN	?GetSkillMotionRate@ioSkill@@UBEMXZ:PROC	; ioSkill::GetSkillMotionRate
EXTRN	?IsPreDelayProtect@ioSkill@@UBE_NXZ:PROC	; ioSkill::IsPreDelayProtect
EXTRN	?GetPreDelayAniName@ioSkill@@UBEABVioHashString@@XZ:PROC ; ioSkill::GetPreDelayAniName
EXTRN	?GetPreDelayTime@ioSkill@@UBEKXZ:PROC		; ioSkill::GetPreDelayTime
EXTRN	?GetPreDelayOwnerEffect@ioSkill@@UBEABVioHashString@@XZ:PROC ; ioSkill::GetPreDelayOwnerEffect
EXTRN	?GetPreDelayOtherEffect@ioSkill@@UBEABVioHashString@@XZ:PROC ; ioSkill::GetPreDelayOtherEffect
EXTRN	?SetCancelSkill@ioSkill@@UAEXPAVioBaseChar@@@Z:PROC ; ioSkill::SetCancelSkill
EXTRN	?ClearAirJump@ioSkill@@MAEXXZ:PROC		; ioSkill::ClearAirJump
EXTRN	?SetAirJump@ioSkill@@MAEXPAVioBaseChar@@HM@Z:PROC ; ioSkill::SetAirJump
EXTRN	?CheckAirJump@ioSkill@@MAEXPAVioBaseChar@@@Z:PROC ; ioSkill::CheckAirJump
EXTRN	?UseActiveCount@ioSkill@@UAE_NPAVioBaseChar@@@Z:PROC ; ioSkill::UseActiveCount
EXTRN	?GetMaxActiveCount@ioSkill@@UAEHPAVioBaseChar@@@Z:PROC ; ioSkill::GetMaxActiveCount
EXTRN	?GetCurActiveCount@ioSkill@@UAEHPAVioBaseChar@@@Z:PROC ; ioSkill::GetCurActiveCount
EXTRN	?HideHPGauge@ioSkill@@UAE_NXZ:PROC		; ioSkill::HideHPGauge
EXTRN	?SetInfoByApplyWeapon@ioSkill@@UAEXPAVioBaseChar@@0K_N@Z:PROC ; ioSkill::SetInfoByApplyWeapon
EXTRN	?SetCollisionByApplySkill@ioSkill@@UAEXXZ:PROC	; ioSkill::SetCollisionByApplySkill
EXTRN	?SetChargingRateForWeapon@ioSkill@@UAEXPAVioWeapon@@@Z:PROC ; ioSkill::SetChargingRateForWeapon
EXTRN	?CheckExceptionCamera@ioSkill@@UAE_NXZ:PROC	; ioSkill::CheckExceptionCamera
EXTRN	?GetExceptionCameraPos@ioSkill@@UAE?AUD3DXVECTOR3@@PAVioBaseChar@@@Z:PROC ; ioSkill::GetExceptionCameraPos
EXTRN	?IsFixedExceptionCamera@ioSkill@@UAE_NXZ:PROC	; ioSkill::IsFixedExceptionCamera
EXTRN	??_EioAngleFireSkill@@UAEPAXI@Z:PROC		; ioAngleFireSkill::`vector deleting destructor'
EXTRN	?StartPreDelayAnimation@ioAttackSkill@@MAE_NPAVioBaseChar@@@Z:PROC ; ioAttackSkill::StartPreDelayAnimation
EXTRN	?GetAttackTimeRate@ioAttackSkill@@MBEMXZ:PROC	; ioAttackSkill::GetAttackTimeRate
EXTRN	?GetAttackEndTimeRate@ioAttackSkill@@MBEMXZ:PROC ; ioAttackSkill::GetAttackEndTimeRate
EXTRN	?LoadNormalAttribute@ioAttackSkill@@MAEXAAVioINILoader@@@Z:PROC ; ioAttackSkill::LoadNormalAttribute
EXTRN	?LoadDownAttribute@ioAttackSkill@@MAEXAAVioINILoader@@@Z:PROC ; ioAttackSkill::LoadDownAttribute
EXTRN	?LoadJumpAttribute@ioAttackSkill@@MAEXAAVioINILoader@@@Z:PROC ; ioAttackSkill::LoadJumpAttribute
EXTRN	?GetAttribute@ioAttackSkill@@UAEAAUAttackAttribute@@XZ:PROC ; ioAttackSkill::GetAttribute
EXTRN	?GetAttributeConst@ioAttackSkill@@UBEABUAttackAttribute@@XZ:PROC ; ioAttackSkill::GetAttributeConst
EXTRN	?IsCanStateEscape@ioAttackSkill@@UBE_NXZ:PROC	; ioAttackSkill::IsCanStateEscape
EXTRN	?IsCanStateEscapeOnStand@ioAttackSkill@@UBE_NPAVioBaseChar@@@Z:PROC ; ioAttackSkill::IsCanStateEscapeOnStand
EXTRN	?IsCanStateEscapeOnAir@ioAttackSkill@@UBE_NPAVioBaseChar@@@Z:PROC ; ioAttackSkill::IsCanStateEscapeOnAir
EXTRN	?IsCanStateEscapeOnDown@ioAttackSkill@@UBE_NPAVioBaseChar@@@Z:PROC ; ioAttackSkill::IsCanStateEscapeOnDown
;	COMDAT ??_R2ioSkill@@8
; File c:\program files (x86)\microsoft directx sdk (june 2010)\include\d3dx9math.h
rdata$r	SEGMENT
??_R2ioSkill@@8 DD FLAT:??_R1A@?0A@EA@ioSkill@@8	; ioSkill::`RTTI Base Class Array'
rdata$r	ENDS
;	COMDAT ??_R3ioSkill@@8
rdata$r	SEGMENT
??_R3ioSkill@@8 DD 00H					; ioSkill::`RTTI Class Hierarchy Descriptor'
	DD	00H
	DD	01H
	DD	FLAT:??_R2ioSkill@@8
rdata$r	ENDS
;	COMDAT ??_R0?AVioSkill@@@8
_DATA	SEGMENT
??_R0?AVioSkill@@@8 DD FLAT:??_7type_info@@6B@		; ioSkill `RTTI Type Descriptor'
	DD	00H
	DB	'.?AVioSkill@@', 00H
_DATA	ENDS
;	COMDAT ??_R1A@?0A@EA@ioSkill@@8
rdata$r	SEGMENT
??_R1A@?0A@EA@ioSkill@@8 DD FLAT:??_R0?AVioSkill@@@8	; ioSkill::`RTTI Base Class Descriptor at (0,-1,0,64)'
	DD	00H
	DD	00H
	DD	0ffffffffH
	DD	00H
	DD	040H
	DD	FLAT:??_R3ioSkill@@8
rdata$r	ENDS
;	COMDAT ??_R2ioAttackSkill@@8
rdata$r	SEGMENT
??_R2ioAttackSkill@@8 DD FLAT:??_R1A@?0A@EA@ioAttackSkill@@8 ; ioAttackSkill::`RTTI Base Class Array'
	DD	FLAT:??_R1A@?0A@EA@ioSkill@@8
rdata$r	ENDS
;	COMDAT ??_R3ioAttackSkill@@8
rdata$r	SEGMENT
??_R3ioAttackSkill@@8 DD 00H				; ioAttackSkill::`RTTI Class Hierarchy Descriptor'
	DD	00H
	DD	02H
	DD	FLAT:??_R2ioAttackSkill@@8
rdata$r	ENDS
;	COMDAT ??_R0?AVioAttackSkill@@@8
_DATA	SEGMENT
??_R0?AVioAttackSkill@@@8 DD FLAT:??_7type_info@@6B@	; ioAttackSkill `RTTI Type Descriptor'
	DD	00H
	DB	'.?AVioAttackSkill@@', 00H
_DATA	ENDS
;	COMDAT ??_R1A@?0A@EA@ioAttackSkill@@8
rdata$r	SEGMENT
??_R1A@?0A@EA@ioAttackSkill@@8 DD FLAT:??_R0?AVioAttackSkill@@@8 ; ioAttackSkill::`RTTI Base Class Descriptor at (0,-1,0,64)'
	DD	01H
	DD	00H
	DD	0ffffffffH
	DD	00H
	DD	040H
	DD	FLAT:??_R3ioAttackSkill@@8
rdata$r	ENDS
;	COMDAT ??_R1A@?0A@EA@ioAngleFireSkill@@8
rdata$r	SEGMENT
??_R1A@?0A@EA@ioAngleFireSkill@@8 DD FLAT:??_R0?AVioAngleFireSkill@@@8 ; ioAngleFireSkill::`RTTI Base Class Descriptor at (0,-1,0,64)'
	DD	02H
	DD	00H
	DD	0ffffffffH
	DD	00H
	DD	040H
	DD	FLAT:??_R3ioAngleFireSkill@@8
rdata$r	ENDS
;	COMDAT ??_R2ioAngleFireSkill@@8
rdata$r	SEGMENT
??_R2ioAngleFireSkill@@8 DD FLAT:??_R1A@?0A@EA@ioAngleFireSkill@@8 ; ioAngleFireSkill::`RTTI Base Class Array'
	DD	FLAT:??_R1A@?0A@EA@ioAttackSkill@@8
	DD	FLAT:??_R1A@?0A@EA@ioSkill@@8
rdata$r	ENDS
;	COMDAT ??_R3ioAngleFireSkill@@8
rdata$r	SEGMENT
??_R3ioAngleFireSkill@@8 DD 00H				; ioAngleFireSkill::`RTTI Class Hierarchy Descriptor'
	DD	00H
	DD	03H
	DD	FLAT:??_R2ioAngleFireSkill@@8
rdata$r	ENDS
;	COMDAT ??_R0?AVioAngleFireSkill@@@8
_DATA	SEGMENT
??_R0?AVioAngleFireSkill@@@8 DD FLAT:??_7type_info@@6B@	; ioAngleFireSkill `RTTI Type Descriptor'
	DD	00H
	DB	'.?AVioAngleFireSkill@@', 00H
_DATA	ENDS
;	COMDAT ??_R4ioAngleFireSkill@@6B@
rdata$r	SEGMENT
??_R4ioAngleFireSkill@@6B@ DD 00H			; ioAngleFireSkill::`RTTI Complete Object Locator'
	DD	00H
	DD	00H
	DD	FLAT:??_R0?AVioAngleFireSkill@@@8
	DD	FLAT:??_R3ioAngleFireSkill@@8
rdata$r	ENDS
;	COMDAT ??_7ioAngleFireSkill@@6B@
CONST	SEGMENT
??_7ioAngleFireSkill@@6B@ DD FLAT:??_R4ioAngleFireSkill@@6B@ ; ioAngleFireSkill::`vftable'
	DD	FLAT:?LoadProperty@ioAngleFireSkill@@UAEXAAVioINILoader@@@Z
	DD	FLAT:?Clone@ioAngleFireSkill@@UAEPAVioSkill@@XZ
	DD	FLAT:?GetTypeID@ioAttackSkill@@UBEHXZ
	DD	FLAT:?IsProtected@ioSkill@@UBE_NH@Z
	DD	FLAT:?IsCanSwitchSkill@ioSkill@@UBE_NXZ
	DD	FLAT:?IsCanSemiSwitchSkill@ioSkill@@UBE_NXZ
	DD	FLAT:?IsCanCancelBySkill@ioSkill@@UBE_NPAVioBaseChar@@AAH@Z
	DD	FLAT:?IsCanUseZeroHP@ioSkill@@UBE_NPAVioBaseChar@@@Z
	DD	FLAT:?IsCanUseSkillWithCrown@ioSkill@@UAE_NPAVioBaseChar@@@Z
	DD	FLAT:?IsCanUseBoss@ioSkill@@UBE_NPAVioBaseChar@@@Z
	DD	FLAT:?IsCanUseFootball@ioSkill@@UBE_NXZ
	DD	FLAT:?IsCanUseGangSiMode@ioSkill@@UBE_NXZ
	DD	FLAT:?IsCanUseByWeaponType@ioSkill@@UBE_NPAVioBaseChar@@@Z
	DD	FLAT:?IsCanUseThunderBirdHold@ioSkill@@UBE_NPAVioBaseChar@@@Z
	DD	FLAT:?IsCanUseLimitHP@ioSkill@@UBE_NPAVioBaseChar@@@Z
	DD	FLAT:?IsCanUseSkill@ioAttackSkill@@UAE_NPAVioBaseChar@@_N@Z
	DD	FLAT:?IsOnOffEnable@ioSkill@@UAE_NXZ
	DD	FLAT:?IsCanDefenseStateSkill@ioSkill@@UAE_NXZ
	DD	FLAT:?SetDefenseStateSkill@ioSkill@@UAEXPAVioBaseChar@@@Z
	DD	FLAT:?GetDefenseSkillBreakeType@ioSkill@@UBE?AW4DefenseBreakType@@XZ
	DD	FLAT:?HasBuff@ioSkill@@UBE_NH@Z
	DD	FLAT:?GetBuffType@ioSkill@@UAEHH@Z
	DD	FLAT:?IsEnableReserve@ioAngleFireSkill@@UBE_NXZ
	DD	FLAT:?IsSkillMotionEnd@ioAngleFireSkill@@UBE_NKPAVioBaseChar@@@Z
	DD	FLAT:?IsCharSkipState@ioSkill@@UBE?AW4SkillCharColType@@XZ
	DD	FLAT:?IsEntityCollisionSkipState@ioSkill@@UBE_NXZ
	DD	FLAT:?GetSkillEndNextJumpAmt@ioSkill@@UBEMXZ
	DD	FLAT:?GetSkillEndNextLandRate@ioSkill@@UBEMXZ
	DD	FLAT:?GetSkillEndNextJumpMustEnable@ioSkill@@UAE?AW4SkillEndJumpType@@XZ
	DD	FLAT:?IsEndState@ioSkill@@UBE_NXZ
	DD	FLAT:?IsAttackEndState@ioAttackSkill@@UBE_NXZ
	DD	FLAT:?IsJumpState@ioSkill@@UBE_NXZ
	DD	FLAT:?IsDownState@ioSkill@@UBE_NXZ
	DD	FLAT:?IsNoDropState@ioSkill@@UBE_NXZ
	DD	FLAT:?IsCanSendControl@ioSkill@@UBE_NXZ
	DD	FLAT:?IsSkipState@ioSkill@@UBE_NXZ
	DD	FLAT:?GetSkillMoveRate@ioSkill@@UBEMXZ
	DD	FLAT:?SetSkillGrapplingState@ioSkill@@UAE_NPAVioBaseChar@@ABVioHashString@@@Z
	DD	FLAT:?GetGrapplingTargetPos@ioSkill@@UAE?AUD3DXVECTOR3@@PAVioBaseChar@@0@Z
	DD	FLAT:?GetGrapplingTargetPos@ioSkill@@UAE?AUD3DXVECTOR3@@PAVioBaseChar@@@Z
	DD	FLAT:?EnableChangeGrapplingTargetPos@ioSkill@@UBE_NXZ
	DD	FLAT:?GetSkillWoundGrapplingInfo@ioSkill@@UAE?AUGrapplingSkillWoundedInfo@@XZ
	DD	FLAT:?SetCreateWeaponDependency@ioSkill@@UAEXPAVioBaseChar@@PAVioPlayStage@@@Z
	DD	FLAT:?SetNextSkillState@ioSkill@@UAEXPAVioBaseChar@@PAVioWeapon@@@Z
	DD	FLAT:?OnSkillStart@ioAngleFireSkill@@UAE_NPAVioBaseChar@@@Z
	DD	FLAT:?OnProcessState@ioAngleFireSkill@@UAEXPAVioBaseChar@@PAVioPlayStage@@@Z
	DD	FLAT:?OnSkillEndByWounded@ioSkill@@UAEXPAVioBaseChar@@@Z
	DD	FLAT:?OnSkillEnd@ioAngleFireSkill@@UAEXPAVioBaseChar@@@Z
	DD	FLAT:?OnProcessNotUseSkill@ioSkill@@UAEXPAVioBaseChar@@PAVioPlayStage@@@Z
	DD	FLAT:?OnSkillItemRelease@ioSkill@@UAEXPAVioBaseChar@@@Z
	DD	FLAT:?ApplyAttributeToWeapon@ioAngleFireSkill@@UAEXPAVioWeapon@@PAVioPlayStage@@@Z
	DD	FLAT:?ApplyExtraSkillInfo@ioAngleFireSkill@@UAEXPAVioBaseChar@@PAVioPlayStage@@AAVSP2Packet@@@Z
	DD	FLAT:?ApplyEquipSlotSkillExtraInfo@ioSkill@@UAEXPAVioBaseChar@@PAVioPlayStage@@AAVSP2Packet@@@Z
	DD	FLAT:?ApplyExtraPassiveSkillInfo@ioSkill@@UAEXPAVioBaseChar@@PAVioPlayStage@@AAVSP2Packet@@@Z
	DD	FLAT:?StartPreDelayEffect@ioAttackSkill@@UAEXPAVioBaseChar@@@Z
	DD	FLAT:?EndPreDelayEffect@ioAttackSkill@@UAEXPAVioBaseChar@@@Z
	DD	FLAT:?IsUseAutoTargetValue@ioAttackSkill@@UAE_NXZ
	DD	FLAT:?IsAutoTargetDownState@ioSkill@@UAE_NXZ
	DD	FLAT:?CheckUseBuff@ioSkill@@UAE_NPAVioBaseChar@@@Z
	DD	FLAT:?CheckUseItemMesh@ioAngleFireSkill@@UAE_NXZ
	DD	FLAT:?CheckUseActiveCount@ioSkill@@UAE_NXZ
	DD	FLAT:?CheckAniRotate@ioSkill@@UAEXPAVioBaseChar@@@Z
	DD	FLAT:?IsEnableDashCheck@ioSkill@@UAE_NPAVioBaseChar@@@Z
	DD	FLAT:?IsEnableMultiActive@ioSkill@@UAE_NPAVioBaseChar@@@Z
	DD	FLAT:?IsInvisibleBottomCircle@ioSkill@@UAE_NPAVioBaseChar@@@Z
	DD	FLAT:?GetAutoTargetValue@ioSkill@@UAEXAAM00@Z
	DD	FLAT:?IsCanJumpingSkill@ioSkill@@UBE_NXZ
	DD	FLAT:?IsCanJumpingSkillOnBlowWound@ioSkill@@UBE_NXZ
	DD	FLAT:?IsCanDownSkill@ioSkill@@UBE_NXZ
	DD	FLAT:?IsCanBlowWoundSkill@ioSkill@@UBE_NXZ
	DD	FLAT:?IsCanWoundSkill@ioSkill@@UBE_NXZ
	DD	FLAT:?GetSkillGravityRate@ioSkill@@UAEMXZ
	DD	FLAT:?GetSkillMotionName@ioSkill@@UBEABVioHashString@@XZ
	DD	FLAT:?HasSkillMotion@ioSkill@@UBE_NXZ
	DD	FLAT:?GetSkillMotionRate@ioSkill@@UBEMXZ
	DD	FLAT:?IsPreDelayProtect@ioSkill@@UBE_NXZ
	DD	FLAT:?GetPreDelayAniName@ioSkill@@UBEABVioHashString@@XZ
	DD	FLAT:?GetPreDelayTime@ioSkill@@UBEKXZ
	DD	FLAT:?GetPreDelayOwnerEffect@ioSkill@@UBEABVioHashString@@XZ
	DD	FLAT:?GetPreDelayOtherEffect@ioSkill@@UBEABVioHashString@@XZ
	DD	FLAT:?SetCancelSkill@ioSkill@@UAEXPAVioBaseChar@@@Z
	DD	FLAT:?ClearAirJump@ioSkill@@MAEXXZ
	DD	FLAT:?SetAirJump@ioSkill@@MAEXPAVioBaseChar@@HM@Z
	DD	FLAT:?CheckAirJump@ioSkill@@MAEXPAVioBaseChar@@@Z
	DD	FLAT:?UseActiveCount@ioSkill@@UAE_NPAVioBaseChar@@@Z
	DD	FLAT:?GetMaxActiveCount@ioSkill@@UAEHPAVioBaseChar@@@Z
	DD	FLAT:?GetCurActiveCount@ioSkill@@UAEHPAVioBaseChar@@@Z
	DD	FLAT:?HideHPGauge@ioSkill@@UAE_NXZ
	DD	FLAT:?SetInfoByApplyWeapon@ioSkill@@UAEXPAVioBaseChar@@0K_N@Z
	DD	FLAT:?SetCollisionByApplySkill@ioSkill@@UAEXXZ
	DD	FLAT:?SetChargingRateForWeapon@ioSkill@@UAEXPAVioWeapon@@@Z
	DD	FLAT:?CheckExceptionCamera@ioSkill@@UAE_NXZ
	DD	FLAT:?GetExceptionCameraPos@ioSkill@@UAE?AUD3DXVECTOR3@@PAVioBaseChar@@@Z
	DD	FLAT:?IsFixedExceptionCamera@ioSkill@@UAE_NXZ
	DD	FLAT:?IsUseActiveCnt@ioSkill@@UBE_NXZ
	DD	FLAT:?GetMaxActiveCnt@ioSkill@@UBEHPAVioBaseChar@@@Z
	DD	FLAT:?GetCurActiveCnt@ioSkill@@UBEHPAVioBaseChar@@@Z
	DD	FLAT:??_EioAngleFireSkill@@UAEPAXI@Z
	DD	FLAT:?StartPreDelayAnimation@ioAttackSkill@@MAE_NPAVioBaseChar@@@Z
	DD	FLAT:?AttackSkillFire@ioAngleFireSkill@@MAEXPAVioBaseChar@@@Z
	DD	FLAT:?GetAttackTimeRate@ioAttackSkill@@MBEMXZ
	DD	FLAT:?GetAttackEndTimeRate@ioAttackSkill@@MBEMXZ
	DD	FLAT:?LoadNormalAttribute@ioAttackSkill@@MAEXAAVioINILoader@@@Z
	DD	FLAT:?LoadDownAttribute@ioAttackSkill@@MAEXAAVioINILoader@@@Z
	DD	FLAT:?LoadJumpAttribute@ioAttackSkill@@MAEXAAVioINILoader@@@Z
	DD	FLAT:?GetAttribute@ioAttackSkill@@UAEAAUAttackAttribute@@XZ
	DD	FLAT:?GetAttributeConst@ioAttackSkill@@UBEABUAttackAttribute@@XZ
	DD	FLAT:?IsCanStateEscape@ioAttackSkill@@UBE_NXZ
	DD	FLAT:?IsCanStateEscapeOnStand@ioAttackSkill@@UBE_NPAVioBaseChar@@@Z
	DD	FLAT:?IsCanStateEscapeOnAir@ioAttackSkill@@UBE_NPAVioBaseChar@@@Z
	DD	FLAT:?IsCanStateEscapeOnDown@ioAttackSkill@@UBE_NPAVioBaseChar@@@Z
CONST	ENDS
;	COMDAT xdata$x
xdata$x	SEGMENT
__ehfuncinfo$??0ioAngleFireSkill@@QAE@XZ DD 019930522H
	DD	0cH
	DD	FLAT:__unwindtable$??0ioAngleFireSkill@@QAE@XZ
	DD	2 DUP(00H)
	DD	2 DUP(00H)
	DD	00H
	DD	01H
__unwindtable$??0ioAngleFireSkill@@QAE@XZ DD 0ffffffffH
	DD	FLAT:__unwindfunclet$??0ioAngleFireSkill@@QAE@XZ$0
	DD	00H
	DD	FLAT:__unwindfunclet$??0ioAngleFireSkill@@QAE@XZ$1
	DD	01H
	DD	FLAT:__unwindfunclet$??0ioAngleFireSkill@@QAE@XZ$2
	DD	02H
	DD	FLAT:__unwindfunclet$??0ioAngleFireSkill@@QAE@XZ$3
	DD	03H
	DD	FLAT:__unwindfunclet$??0ioAngleFireSkill@@QAE@XZ$4
	DD	04H
	DD	FLAT:__unwindfunclet$??0ioAngleFireSkill@@QAE@XZ$5
	DD	05H
	DD	FLAT:__unwindfunclet$??0ioAngleFireSkill@@QAE@XZ$6
	DD	06H
	DD	FLAT:__unwindfunclet$??0ioAngleFireSkill@@QAE@XZ$7
	DD	07H
	DD	FLAT:__unwindfunclet$??0ioAngleFireSkill@@QAE@XZ$8
	DD	08H
	DD	FLAT:__unwindfunclet$??0ioAngleFireSkill@@QAE@XZ$9
	DD	09H
	DD	FLAT:__unwindfunclet$??0ioAngleFireSkill@@QAE@XZ$10
	DD	0aH
	DD	FLAT:__unwindfunclet$??0ioAngleFireSkill@@QAE@XZ$11
; Function compile flags: /Ogsp
; File d:\lost saga for developer\youtube\tutorial\source\src\lsclient\ioanglefireskill.cpp
xdata$x	ENDS
;	COMDAT ??0ioAngleFireSkill@@QAE@XZ
_TEXT	SEGMENT
_this$ = -16						; size = 4
__$EHRec$ = -12						; size = 12
??0ioAngleFireSkill@@QAE@XZ PROC			; ioAngleFireSkill::ioAngleFireSkill, COMDAT
; _this$ = ecx

; 11   : {

  00000	6a 04		 push	 4
  00002	b8 00 00 00 00	 mov	 eax, __ehhandler$??0ioAngleFireSkill@@QAE@XZ
  00007	e8 00 00 00 00	 call	 __EH_prolog3
  0000c	8b f1		 mov	 esi, ecx
  0000e	89 75 f0	 mov	 DWORD PTR _this$[ebp], esi
  00011	e8 00 00 00 00	 call	 ??0ioAttackSkill@@QAE@XZ ; ioAttackSkill::ioAttackSkill
  00016	83 65 fc 00	 and	 DWORD PTR __$EHRec$[ebp+8], 0
  0001a	8d 8e e8 10 00
	00		 lea	 ecx, DWORD PTR [esi+4328]
  00020	c7 06 00 00 00
	00		 mov	 DWORD PTR [esi], OFFSET ??_7ioAngleFireSkill@@6B@
  00026	e8 00 00 00 00	 call	 ??0AttackAttribute@@QAE@XZ ; AttackAttribute::AttackAttribute
  0002b	8b 3d 00 00 00
	00		 mov	 edi, DWORD PTR __imp_??0ioHashString@@QAE@XZ
  00031	8d 8e 3c 11 00
	00		 lea	 ecx, DWORD PTR [esi+4412]
  00037	c6 45 fc 01	 mov	 BYTE PTR __$EHRec$[ebp+8], 1
  0003b	ff d7		 call	 edi
  0003d	8d 8e 4c 11 00
	00		 lea	 ecx, DWORD PTR [esi+4428]
  00043	c6 45 fc 02	 mov	 BYTE PTR __$EHRec$[ebp+8], 2
  00047	ff d7		 call	 edi
  00049	8d 8e 5c 11 00
	00		 lea	 ecx, DWORD PTR [esi+4444]
  0004f	c6 45 fc 03	 mov	 BYTE PTR __$EHRec$[ebp+8], 3
  00053	ff d7		 call	 edi
  00055	8d 8e 6c 11 00
	00		 lea	 ecx, DWORD PTR [esi+4460]
  0005b	c6 45 fc 04	 mov	 BYTE PTR __$EHRec$[ebp+8], 4
  0005f	ff d7		 call	 edi
  00061	8d 8e 7c 11 00
	00		 lea	 ecx, DWORD PTR [esi+4476]
  00067	c6 45 fc 05	 mov	 BYTE PTR __$EHRec$[ebp+8], 5
  0006b	ff d7		 call	 edi
  0006d	8d 8e a8 11 00
	00		 lea	 ecx, DWORD PTR [esi+4520]
  00073	c6 45 fc 06	 mov	 BYTE PTR __$EHRec$[ebp+8], 6
  00077	ff d7		 call	 edi
  00079	8d 8e c0 11 00
	00		 lea	 ecx, DWORD PTR [esi+4544]
  0007f	c6 45 fc 07	 mov	 BYTE PTR __$EHRec$[ebp+8], 7
  00083	e8 00 00 00 00	 call	 ??0?$CEncrypt@M@@QAE@XZ	; CEncrypt<float>::CEncrypt<float>
  00088	8d 8e f0 11 00
	00		 lea	 ecx, DWORD PTR [esi+4592]
  0008e	c6 45 fc 08	 mov	 BYTE PTR __$EHRec$[ebp+8], 8
  00092	e8 00 00 00 00	 call	 ??0?$CEncrypt@M@@QAE@XZ	; CEncrypt<float>::CEncrypt<float>
  00097	8d 8e 20 12 00
	00		 lea	 ecx, DWORD PTR [esi+4640]
  0009d	c6 45 fc 09	 mov	 BYTE PTR __$EHRec$[ebp+8], 9
  000a1	e8 00 00 00 00	 call	 ??0?$CEncrypt@K@@QAE@XZ	; CEncrypt<unsigned long>::CEncrypt<unsigned long>
  000a6	8d 8e 50 12 00
	00		 lea	 ecx, DWORD PTR [esi+4688]
  000ac	c6 45 fc 0a	 mov	 BYTE PTR __$EHRec$[ebp+8], 10 ; 0000000aH
  000b0	e8 00 00 00 00	 call	 ??0?$CEncrypt@M@@QAE@XZ	; CEncrypt<float>::CEncrypt<float>
  000b5	8d 8e 80 12 00
	00		 lea	 ecx, DWORD PTR [esi+4736]
  000bb	c6 45 fc 0b	 mov	 BYTE PTR __$EHRec$[ebp+8], 11 ; 0000000bH
  000bf	e8 00 00 00 00	 call	 ??0?$CEncrypt@M@@QAE@XZ	; CEncrypt<float>::CEncrypt<float>

; 12   : 	ClearData();

  000c4	8b ce		 mov	 ecx, esi
  000c6	e8 00 00 00 00	 call	 ?ClearData@ioAngleFireSkill@@IAEXXZ ; ioAngleFireSkill::ClearData

; 13   : }

  000cb	8b c6		 mov	 eax, esi
  000cd	e8 00 00 00 00	 call	 __EH_epilog3
  000d2	c3		 ret	 0
_TEXT	ENDS
;	COMDAT text$x
text$x	SEGMENT
__unwindfunclet$??0ioAngleFireSkill@@QAE@XZ$0:
  00000	8b 4d f0	 mov	 ecx, DWORD PTR _this$[ebp]
  00003	e9 00 00 00 00	 jmp	 ??1ioAttackSkill@@UAE@XZ ; ioAttackSkill::~ioAttackSkill
__unwindfunclet$??0ioAngleFireSkill@@QAE@XZ$1:
  00008	8b 4d f0	 mov	 ecx, DWORD PTR _this$[ebp]
  0000b	81 c1 e8 10 00
	00		 add	 ecx, 4328		; 000010e8H
  00011	e9 00 00 00 00	 jmp	 ??1AttackAttribute@@QAE@XZ
__unwindfunclet$??0ioAngleFireSkill@@QAE@XZ$2:
  00016	8b 4d f0	 mov	 ecx, DWORD PTR _this$[ebp]
  00019	81 c1 3c 11 00
	00		 add	 ecx, 4412		; 0000113cH
  0001f	ff 25 00 00 00
	00		 jmp	 DWORD PTR __imp_??1ioHashString@@QAE@XZ
__unwindfunclet$??0ioAngleFireSkill@@QAE@XZ$3:
  00025	8b 4d f0	 mov	 ecx, DWORD PTR _this$[ebp]
  00028	81 c1 4c 11 00
	00		 add	 ecx, 4428		; 0000114cH
  0002e	ff 25 00 00 00
	00		 jmp	 DWORD PTR __imp_??1ioHashString@@QAE@XZ
__unwindfunclet$??0ioAngleFireSkill@@QAE@XZ$4:
  00034	8b 4d f0	 mov	 ecx, DWORD PTR _this$[ebp]
  00037	81 c1 5c 11 00
	00		 add	 ecx, 4444		; 0000115cH
  0003d	ff 25 00 00 00
	00		 jmp	 DWORD PTR __imp_??1ioHashString@@QAE@XZ
__unwindfunclet$??0ioAngleFireSkill@@QAE@XZ$5:
  00043	8b 4d f0	 mov	 ecx, DWORD PTR _this$[ebp]
  00046	81 c1 6c 11 00
	00		 add	 ecx, 4460		; 0000116cH
  0004c	ff 25 00 00 00
	00		 jmp	 DWORD PTR __imp_??1ioHashString@@QAE@XZ
__unwindfunclet$??0ioAngleFireSkill@@QAE@XZ$6:
  00052	8b 4d f0	 mov	 ecx, DWORD PTR _this$[ebp]
  00055	81 c1 7c 11 00
	00		 add	 ecx, 4476		; 0000117cH
  0005b	ff 25 00 00 00
	00		 jmp	 DWORD PTR __imp_??1ioHashString@@QAE@XZ
__unwindfunclet$??0ioAngleFireSkill@@QAE@XZ$7:
  00061	8b 4d f0	 mov	 ecx, DWORD PTR _this$[ebp]
  00064	81 c1 a8 11 00
	00		 add	 ecx, 4520		; 000011a8H
  0006a	ff 25 00 00 00
	00		 jmp	 DWORD PTR __imp_??1ioHashString@@QAE@XZ
__unwindfunclet$??0ioAngleFireSkill@@QAE@XZ$8:
  00070	8b 4d f0	 mov	 ecx, DWORD PTR _this$[ebp]
  00073	81 c1 c0 11 00
	00		 add	 ecx, 4544		; 000011c0H
  00079	e9 00 00 00 00	 jmp	 ??1?$CEncrypt@M@@UAE@XZ	; CEncrypt<float>::~CEncrypt<float>
__unwindfunclet$??0ioAngleFireSkill@@QAE@XZ$9:
  0007e	8b 4d f0	 mov	 ecx, DWORD PTR _this$[ebp]
  00081	81 c1 f0 11 00
	00		 add	 ecx, 4592		; 000011f0H
  00087	e9 00 00 00 00	 jmp	 ??1?$CEncrypt@M@@UAE@XZ	; CEncrypt<float>::~CEncrypt<float>
__unwindfunclet$??0ioAngleFireSkill@@QAE@XZ$10:
  0008c	8b 4d f0	 mov	 ecx, DWORD PTR _this$[ebp]
  0008f	81 c1 20 12 00
	00		 add	 ecx, 4640		; 00001220H
  00095	e9 00 00 00 00	 jmp	 ??1?$CEncrypt@K@@UAE@XZ	; CEncrypt<unsigned long>::~CEncrypt<unsigned long>
__unwindfunclet$??0ioAngleFireSkill@@QAE@XZ$11:
  0009a	8b 4d f0	 mov	 ecx, DWORD PTR _this$[ebp]
  0009d	81 c1 50 12 00
	00		 add	 ecx, 4688		; 00001250H
  000a3	e9 00 00 00 00	 jmp	 ??1?$CEncrypt@M@@UAE@XZ	; CEncrypt<float>::~CEncrypt<float>
__ehhandler$??0ioAngleFireSkill@@QAE@XZ:
  000a8	8b 54 24 08	 mov	 edx, DWORD PTR [esp+8]
  000ac	8d 42 0c	 lea	 eax, DWORD PTR [edx+12]
  000af	8b 4a ec	 mov	 ecx, DWORD PTR [edx-20]
  000b2	33 c8		 xor	 ecx, eax
  000b4	e8 00 00 00 00	 call	 @__security_check_cookie@4
  000b9	b8 00 00 00 00	 mov	 eax, OFFSET __ehfuncinfo$??0ioAngleFireSkill@@QAE@XZ
  000be	e9 00 00 00 00	 jmp	 ___CxxFrameHandler3
text$x	ENDS
??0ioAngleFireSkill@@QAE@XZ ENDP			; ioAngleFireSkill::ioAngleFireSkill
; Function compile flags: /Ogsp
; File d:\lost saga for developer\youtube\tutorial\source\src\lsclient\ioskill.h
;	COMDAT ?GetDefenseSkillBreakeType@ioSkill@@UBE?AW4DefenseBreakType@@XZ
_TEXT	SEGMENT
?GetDefenseSkillBreakeType@ioSkill@@UBE?AW4DefenseBreakType@@XZ PROC ; ioSkill::GetDefenseSkillBreakeType, COMDAT
; _this$ = ecx

; 327  : 	virtual DefenseBreakType GetDefenseSkillBreakeType() const { return m_eDefenseSkillBreakType; }

  00000	8b 81 30 0e 00
	00		 mov	 eax, DWORD PTR [ecx+3632]
  00006	c3		 ret	 0
?GetDefenseSkillBreakeType@ioSkill@@UBE?AW4DefenseBreakType@@XZ ENDP ; ioSkill::GetDefenseSkillBreakeType
; Function compile flags: /Ogsp
_TEXT	ENDS
;	COMDAT ?GetSkillEndNextJumpAmt@ioSkill@@UBEMXZ
_TEXT	SEGMENT
?GetSkillEndNextJumpAmt@ioSkill@@UBEMXZ PROC		; ioSkill::GetSkillEndNextJumpAmt, COMDAT
; _this$ = ecx

; 335  : 	virtual float GetSkillEndNextJumpAmt() const { return m_fSkillEndNextJumpAmt; }

  00000	d9 81 4c 05 00
	00		 fld	 DWORD PTR [ecx+1356]
  00006	c3		 ret	 0
?GetSkillEndNextJumpAmt@ioSkill@@UBEMXZ ENDP		; ioSkill::GetSkillEndNextJumpAmt
; Function compile flags: /Ogsp
_TEXT	ENDS
;	COMDAT ?GetSkillEndNextLandRate@ioSkill@@UBEMXZ
_TEXT	SEGMENT
?GetSkillEndNextLandRate@ioSkill@@UBEMXZ PROC		; ioSkill::GetSkillEndNextLandRate, COMDAT
; _this$ = ecx

; 336  : 	virtual float GetSkillEndNextLandRate() const { return m_fSkillEndNextLandRate; }

  00000	d9 81 50 05 00
	00		 fld	 DWORD PTR [ecx+1360]
  00006	c3		 ret	 0
?GetSkillEndNextLandRate@ioSkill@@UBEMXZ ENDP		; ioSkill::GetSkillEndNextLandRate
; Function compile flags: /Ogsp
_TEXT	ENDS
;	COMDAT ?GetSkillEndNextJumpMustEnable@ioSkill@@UAE?AW4SkillEndJumpType@@XZ
_TEXT	SEGMENT
?GetSkillEndNextJumpMustEnable@ioSkill@@UAE?AW4SkillEndJumpType@@XZ PROC ; ioSkill::GetSkillEndNextJumpMustEnable, COMDAT
; _this$ = ecx

; 337  : 	virtual SkillEndJumpType GetSkillEndNextJumpMustEnable(){ return SEJT_DEFAULT; }

  00000	33 c0		 xor	 eax, eax
  00002	c3		 ret	 0
?GetSkillEndNextJumpMustEnable@ioSkill@@UAE?AW4SkillEndJumpType@@XZ ENDP ; ioSkill::GetSkillEndNextJumpMustEnable
; Function compile flags: /Ogsp
_TEXT	ENDS
;	COMDAT ?EnableChangeGrapplingTargetPos@ioSkill@@UBE_NXZ
_TEXT	SEGMENT
?EnableChangeGrapplingTargetPos@ioSkill@@UBE_NXZ PROC	; ioSkill::EnableChangeGrapplingTargetPos, COMDAT
; _this$ = ecx

; 355  : 	virtual bool EnableChangeGrapplingTargetPos() const { return m_bChangeGrapplingTargetPos; }

  00000	8a 81 40 09 00
	00		 mov	 al, BYTE PTR [ecx+2368]
  00006	c3		 ret	 0
?EnableChangeGrapplingTargetPos@ioSkill@@UBE_NXZ ENDP	; ioSkill::EnableChangeGrapplingTargetPos
; Function compile flags: /Ogsp
_TEXT	ENDS
;	COMDAT ?IsInvisibleBottomCircle@ioSkill@@UAE_NPAVioBaseChar@@@Z
_TEXT	SEGMENT
_pChar$ = 8						; size = 4
?IsInvisibleBottomCircle@ioSkill@@UAE_NPAVioBaseChar@@@Z PROC ; ioSkill::IsInvisibleBottomCircle, COMDAT
; _this$ = ecx

; 393  : 	virtual bool IsInvisibleBottomCircle( ioBaseChar *pChar ) { return false; }

  00000	32 c0		 xor	 al, al
  00002	c2 04 00	 ret	 4
?IsInvisibleBottomCircle@ioSkill@@UAE_NPAVioBaseChar@@@Z ENDP ; ioSkill::IsInvisibleBottomCircle
; Function compile flags: /Ogsp
_TEXT	ENDS
;	COMDAT ?IsUseActiveCnt@ioSkill@@UBE_NXZ
_TEXT	SEGMENT
?IsUseActiveCnt@ioSkill@@UBE_NXZ PROC			; ioSkill::IsUseActiveCnt, COMDAT
; _this$ = ecx

; 544  : 	virtual bool IsUseActiveCnt() const { return false; }

  00000	32 c0		 xor	 al, al
  00002	c3		 ret	 0
?IsUseActiveCnt@ioSkill@@UBE_NXZ ENDP			; ioSkill::IsUseActiveCnt
; Function compile flags: /Ogsp
_TEXT	ENDS
;	COMDAT ?GetMaxActiveCnt@ioSkill@@UBEHPAVioBaseChar@@@Z
_TEXT	SEGMENT
_pChar$ = 8						; size = 4
?GetMaxActiveCnt@ioSkill@@UBEHPAVioBaseChar@@@Z PROC	; ioSkill::GetMaxActiveCnt, COMDAT
; _this$ = ecx

; 545  : 	virtual int GetMaxActiveCnt( ioBaseChar *pChar ) const { return 0; }

  00000	33 c0		 xor	 eax, eax
  00002	c2 04 00	 ret	 4
?GetMaxActiveCnt@ioSkill@@UBEHPAVioBaseChar@@@Z ENDP	; ioSkill::GetMaxActiveCnt
; Function compile flags: /Ogsp
_TEXT	ENDS
;	COMDAT ?GetCurActiveCnt@ioSkill@@UBEHPAVioBaseChar@@@Z
_TEXT	SEGMENT
_pChar$ = 8						; size = 4
?GetCurActiveCnt@ioSkill@@UBEHPAVioBaseChar@@@Z PROC	; ioSkill::GetCurActiveCnt, COMDAT
; _this$ = ecx

; 546  : 	virtual int GetCurActiveCnt( ioBaseChar *pChar ) const { return 0; }

  00000	33 c0		 xor	 eax, eax
  00002	c2 04 00	 ret	 4
?GetCurActiveCnt@ioSkill@@UBEHPAVioBaseChar@@@Z ENDP	; ioSkill::GetCurActiveCnt
_TEXT	ENDS
PUBLIC	??B?$CEncrypt@_N@@QBE_NXZ			; CEncrypt<bool>::operator bool
; Function compile flags: /Ogsp
; File d:\lost saga for developer\youtube\tutorial\source\src\lsclient\encryptvalue.h
;	COMDAT ??B?$CEncrypt@_N@@QBE_NXZ
_TEXT	SEGMENT
_value$ = -1						; size = 1
??B?$CEncrypt@_N@@QBE_NXZ PROC				; CEncrypt<bool>::operator bool, COMDAT
; _this$ = ecx

; 145  : 	{

  00000	55		 push	 ebp
  00001	8b ec		 mov	 ebp, esp
  00003	51		 push	 ecx

; 146  : 		//UJ 130829, const도 똑같이 하면 된다 --start
; 147  : 		type value;
; 148  : 		CEncrypt<type>* pThis = const_cast<CEncrypt<type>*>(this);
; 149  : 		pThis->DecryptValueToPool(&value);

  00004	8d 45 ff	 lea	 eax, DWORD PTR _value$[ebp]
  00007	50		 push	 eax
  00008	e8 00 00 00 00	 call	 ?DecryptValueToPool@?$CEncrypt@_N@@QAEXPA_N@Z ; CEncrypt<bool>::DecryptValueToPool

; 150  : 		//// const에서 DecryptValueToPool 사용할 수 없으므로 아래와 같이함.
; 151  :  		//type value;
; 152  : 		//char szTempMem[MAX_ENCRYPT];
; 153  : 		//m_RC5.DecryptByte( m_MemPool, szTempMem, max(m_ValueSize, DEFAULT_ENCRYPT) );
; 154  : 		//memcpy( &value, szTempMem, m_ValueSize );
; 155  : 		//UJ --end
; 156  : 
; 157  : #ifdef _NOTUSE
; 158  : 		Debug();
; 159  : #endif
; 160  : 		return value;

  0000d	8a 45 ff	 mov	 al, BYTE PTR _value$[ebp]

; 161  : 	}

  00010	c9		 leave
  00011	c3		 ret	 0
??B?$CEncrypt@_N@@QBE_NXZ ENDP				; CEncrypt<bool>::operator bool
; Function compile flags: /Ogsp
; File d:\lost saga for developer\youtube\tutorial\source\src\lsclient\ioskill.h
_TEXT	ENDS
;	COMDAT ?IsCanJumpingSkill@ioSkill@@UBE_NXZ
_TEXT	SEGMENT
_value$544217 = -1					; size = 1
?IsCanJumpingSkill@ioSkill@@UBE_NXZ PROC		; ioSkill::IsCanJumpingSkill, COMDAT
; _this$ = ecx

; 431  : 	virtual bool IsCanJumpingSkill() const { return m_bEnableJumpingSkill; }

  00000	55		 push	 ebp
  00001	8b ec		 mov	 ebp, esp
  00003	51		 push	 ecx
  00004	8d 45 ff	 lea	 eax, DWORD PTR _value$544217[ebp]
  00007	50		 push	 eax
  00008	81 c1 9c 03 00
	00		 add	 ecx, 924		; 0000039cH
  0000e	e8 00 00 00 00	 call	 ?DecryptValueToPool@?$CEncrypt@_N@@QAEXPA_N@Z ; CEncrypt<bool>::DecryptValueToPool
  00013	8a 45 ff	 mov	 al, BYTE PTR _value$544217[ebp]
  00016	c9		 leave
  00017	c3		 ret	 0
?IsCanJumpingSkill@ioSkill@@UBE_NXZ ENDP		; ioSkill::IsCanJumpingSkill
; Function compile flags: /Ogsp
_TEXT	ENDS
;	COMDAT ?IsCanJumpingSkillOnBlowWound@ioSkill@@UBE_NXZ
_TEXT	SEGMENT
_value$544224 = -1					; size = 1
?IsCanJumpingSkillOnBlowWound@ioSkill@@UBE_NXZ PROC	; ioSkill::IsCanJumpingSkillOnBlowWound, COMDAT
; _this$ = ecx

; 432  : 	virtual bool IsCanJumpingSkillOnBlowWound() const { return m_bEnableJumpingSkillOnBlowWound; }

  00000	55		 push	 ebp
  00001	8b ec		 mov	 ebp, esp
  00003	51		 push	 ecx
  00004	8d 45 ff	 lea	 eax, DWORD PTR _value$544224[ebp]
  00007	50		 push	 eax
  00008	81 c1 cc 03 00
	00		 add	 ecx, 972		; 000003ccH
  0000e	e8 00 00 00 00	 call	 ?DecryptValueToPool@?$CEncrypt@_N@@QAEXPA_N@Z ; CEncrypt<bool>::DecryptValueToPool
  00013	8a 45 ff	 mov	 al, BYTE PTR _value$544224[ebp]
  00016	c9		 leave
  00017	c3		 ret	 0
?IsCanJumpingSkillOnBlowWound@ioSkill@@UBE_NXZ ENDP	; ioSkill::IsCanJumpingSkillOnBlowWound
; Function compile flags: /Ogsp
_TEXT	ENDS
;	COMDAT ?IsCanDownSkill@ioSkill@@UBE_NXZ
_TEXT	SEGMENT
_value$544231 = -1					; size = 1
?IsCanDownSkill@ioSkill@@UBE_NXZ PROC			; ioSkill::IsCanDownSkill, COMDAT
; _this$ = ecx

; 437  : 	virtual bool IsCanDownSkill() const { return m_bEnableDownSkill; }

  00000	55		 push	 ebp
  00001	8b ec		 mov	 ebp, esp
  00003	51		 push	 ecx
  00004	8d 45 ff	 lea	 eax, DWORD PTR _value$544231[ebp]
  00007	50		 push	 eax
  00008	81 c1 5c 04 00
	00		 add	 ecx, 1116		; 0000045cH
  0000e	e8 00 00 00 00	 call	 ?DecryptValueToPool@?$CEncrypt@_N@@QAEXPA_N@Z ; CEncrypt<bool>::DecryptValueToPool
  00013	8a 45 ff	 mov	 al, BYTE PTR _value$544231[ebp]
  00016	c9		 leave
  00017	c3		 ret	 0
?IsCanDownSkill@ioSkill@@UBE_NXZ ENDP			; ioSkill::IsCanDownSkill
; Function compile flags: /Ogsp
_TEXT	ENDS
;	COMDAT ?IsCanBlowWoundSkill@ioSkill@@UBE_NXZ
_TEXT	SEGMENT
_value$544238 = -1					; size = 1
?IsCanBlowWoundSkill@ioSkill@@UBE_NXZ PROC		; ioSkill::IsCanBlowWoundSkill, COMDAT
; _this$ = ecx

; 440  : 	virtual bool IsCanBlowWoundSkill() const { return m_bEnableBlowWoundSkill; }

  00000	55		 push	 ebp
  00001	8b ec		 mov	 ebp, esp
  00003	51		 push	 ecx
  00004	8d 45 ff	 lea	 eax, DWORD PTR _value$544238[ebp]
  00007	50		 push	 eax
  00008	81 c1 8c 04 00
	00		 add	 ecx, 1164		; 0000048cH
  0000e	e8 00 00 00 00	 call	 ?DecryptValueToPool@?$CEncrypt@_N@@QAEXPA_N@Z ; CEncrypt<bool>::DecryptValueToPool
  00013	8a 45 ff	 mov	 al, BYTE PTR _value$544238[ebp]
  00016	c9		 leave
  00017	c3		 ret	 0
?IsCanBlowWoundSkill@ioSkill@@UBE_NXZ ENDP		; ioSkill::IsCanBlowWoundSkill
; Function compile flags: /Ogsp
_TEXT	ENDS
;	COMDAT ?IsCanWoundSkill@ioSkill@@UBE_NXZ
_TEXT	SEGMENT
_value$544245 = -1					; size = 1
?IsCanWoundSkill@ioSkill@@UBE_NXZ PROC			; ioSkill::IsCanWoundSkill, COMDAT
; _this$ = ecx

; 446  : 	virtual bool IsCanWoundSkill() const { return m_bEnableWoundSkill; }

  00000	55		 push	 ebp
  00001	8b ec		 mov	 ebp, esp
  00003	51		 push	 ecx
  00004	8d 45 ff	 lea	 eax, DWORD PTR _value$544245[ebp]
  00007	50		 push	 eax
  00008	81 c1 54 05 00
	00		 add	 ecx, 1364		; 00000554H
  0000e	e8 00 00 00 00	 call	 ?DecryptValueToPool@?$CEncrypt@_N@@QAEXPA_N@Z ; CEncrypt<bool>::DecryptValueToPool
  00013	8a 45 ff	 mov	 al, BYTE PTR _value$544245[ebp]
  00016	c9		 leave
  00017	c3		 ret	 0
?IsCanWoundSkill@ioSkill@@UBE_NXZ ENDP			; ioSkill::IsCanWoundSkill
_TEXT	ENDS
PUBLIC	??0ioAngleFireSkill@@QAE@ABV0@@Z		; ioAngleFireSkill::ioAngleFireSkill
EXTRN	??0ioAttackSkill@@QAE@ABV0@@Z:PROC		; ioAttackSkill::ioAttackSkill
;	COMDAT xdata$x
; File c:\program files (x86)\microsoft directx sdk (june 2010)\include\d3dx9math.h
xdata$x	SEGMENT
__ehfuncinfo$??0ioAngleFireSkill@@QAE@ABV0@@Z DD 019930522H
	DD	0cH
	DD	FLAT:__unwindtable$??0ioAngleFireSkill@@QAE@ABV0@@Z
	DD	2 DUP(00H)
	DD	2 DUP(00H)
	DD	00H
	DD	01H
__unwindtable$??0ioAngleFireSkill@@QAE@ABV0@@Z DD 0ffffffffH
	DD	FLAT:__unwindfunclet$??0ioAngleFireSkill@@QAE@ABV0@@Z$0
	DD	00H
	DD	FLAT:__unwindfunclet$??0ioAngleFireSkill@@QAE@ABV0@@Z$1
	DD	01H
	DD	FLAT:__unwindfunclet$??0ioAngleFireSkill@@QAE@ABV0@@Z$2
	DD	02H
	DD	FLAT:__unwindfunclet$??0ioAngleFireSkill@@QAE@ABV0@@Z$3
	DD	03H
	DD	FLAT:__unwindfunclet$??0ioAngleFireSkill@@QAE@ABV0@@Z$4
	DD	04H
	DD	FLAT:__unwindfunclet$??0ioAngleFireSkill@@QAE@ABV0@@Z$5
	DD	05H
	DD	FLAT:__unwindfunclet$??0ioAngleFireSkill@@QAE@ABV0@@Z$6
	DD	06H
	DD	FLAT:__unwindfunclet$??0ioAngleFireSkill@@QAE@ABV0@@Z$7
	DD	07H
	DD	FLAT:__unwindfunclet$??0ioAngleFireSkill@@QAE@ABV0@@Z$8
	DD	08H
	DD	FLAT:__unwindfunclet$??0ioAngleFireSkill@@QAE@ABV0@@Z$9
	DD	09H
	DD	FLAT:__unwindfunclet$??0ioAngleFireSkill@@QAE@ABV0@@Z$10
	DD	0aH
	DD	FLAT:__unwindfunclet$??0ioAngleFireSkill@@QAE@ABV0@@Z$11
; Function compile flags: /Ogsp
; File d:\lost saga for developer\youtube\tutorial\source\src\lsclient\ioanglefireskill.cpp
xdata$x	ENDS
;	COMDAT ??0ioAngleFireSkill@@QAE@ABV0@@Z
_TEXT	SEGMENT
_this$ = -16						; size = 4
__$EHRec$ = -12						; size = 12
_rhs$ = 8						; size = 4
??0ioAngleFireSkill@@QAE@ABV0@@Z PROC			; ioAngleFireSkill::ioAngleFireSkill, COMDAT
; _this$ = ecx

; 31   : {

  00000	6a 04		 push	 4
  00002	b8 00 00 00 00	 mov	 eax, __ehhandler$??0ioAngleFireSkill@@QAE@ABV0@@Z
  00007	e8 00 00 00 00	 call	 __EH_prolog3
  0000c	8b f1		 mov	 esi, ecx
  0000e	89 75 f0	 mov	 DWORD PTR _this$[ebp], esi
  00011	8b 7d 08	 mov	 edi, DWORD PTR _rhs$[ebp]
  00014	57		 push	 edi
  00015	e8 00 00 00 00	 call	 ??0ioAttackSkill@@QAE@ABV0@@Z ; ioAttackSkill::ioAttackSkill
  0001a	83 65 fc 00	 and	 DWORD PTR __$EHRec$[ebp+8], 0
  0001e	8d 87 e8 10 00
	00		 lea	 eax, DWORD PTR [edi+4328]
  00024	50		 push	 eax
  00025	8d 8e e8 10 00
	00		 lea	 ecx, DWORD PTR [esi+4328]
  0002b	c7 06 00 00 00
	00		 mov	 DWORD PTR [esi], OFFSET ??_7ioAngleFireSkill@@6B@
  00031	e8 00 00 00 00	 call	 ??0AttackAttribute@@QAE@ABU0@@Z
  00036	8b 1d 00 00 00
	00		 mov	 ebx, DWORD PTR __imp_??0ioHashString@@QAE@ABV0@@Z
  0003c	8d 87 3c 11 00
	00		 lea	 eax, DWORD PTR [edi+4412]
  00042	50		 push	 eax
  00043	8d 8e 3c 11 00
	00		 lea	 ecx, DWORD PTR [esi+4412]
  00049	c6 45 fc 01	 mov	 BYTE PTR __$EHRec$[ebp+8], 1
  0004d	ff d3		 call	 ebx
  0004f	8d 87 4c 11 00
	00		 lea	 eax, DWORD PTR [edi+4428]
  00055	50		 push	 eax
  00056	8d 8e 4c 11 00
	00		 lea	 ecx, DWORD PTR [esi+4428]
  0005c	c6 45 fc 02	 mov	 BYTE PTR __$EHRec$[ebp+8], 2
  00060	ff d3		 call	 ebx
  00062	8d 87 5c 11 00
	00		 lea	 eax, DWORD PTR [edi+4444]
  00068	50		 push	 eax
  00069	8d 8e 5c 11 00
	00		 lea	 ecx, DWORD PTR [esi+4444]
  0006f	c6 45 fc 03	 mov	 BYTE PTR __$EHRec$[ebp+8], 3
  00073	ff d3		 call	 ebx
  00075	8d 87 6c 11 00
	00		 lea	 eax, DWORD PTR [edi+4460]
  0007b	50		 push	 eax
  0007c	8d 8e 6c 11 00
	00		 lea	 ecx, DWORD PTR [esi+4460]
  00082	c6 45 fc 04	 mov	 BYTE PTR __$EHRec$[ebp+8], 4
  00086	ff d3		 call	 ebx
  00088	8d 87 7c 11 00
	00		 lea	 eax, DWORD PTR [edi+4476]
  0008e	50		 push	 eax
  0008f	8d 8e 7c 11 00
	00		 lea	 ecx, DWORD PTR [esi+4476]
  00095	c6 45 fc 05	 mov	 BYTE PTR __$EHRec$[ebp+8], 5
  00099	ff d3		 call	 ebx
  0009b	8b 87 94 11 00
	00		 mov	 eax, DWORD PTR [edi+4500]
  000a1	89 86 94 11 00
	00		 mov	 DWORD PTR [esi+4500], eax
  000a7	8d 87 a8 11 00
	00		 lea	 eax, DWORD PTR [edi+4520]
  000ad	50		 push	 eax
  000ae	8d 8e a8 11 00
	00		 lea	 ecx, DWORD PTR [esi+4520]
  000b4	c6 45 fc 06	 mov	 BYTE PTR __$EHRec$[ebp+8], 6
  000b8	ff d3		 call	 ebx
  000ba	8b 87 bc 11 00
	00		 mov	 eax, DWORD PTR [edi+4540]
  000c0	89 86 bc 11 00
	00		 mov	 DWORD PTR [esi+4540], eax
  000c6	8d 87 c0 11 00
	00		 lea	 eax, DWORD PTR [edi+4544]
  000cc	50		 push	 eax
  000cd	8d 8e c0 11 00
	00		 lea	 ecx, DWORD PTR [esi+4544]
  000d3	c6 45 fc 07	 mov	 BYTE PTR __$EHRec$[ebp+8], 7
  000d7	e8 00 00 00 00	 call	 ??0?$CEncrypt@M@@QAE@ABV0@@Z ; CEncrypt<float>::CEncrypt<float>
  000dc	8d 87 f0 11 00
	00		 lea	 eax, DWORD PTR [edi+4592]
  000e2	50		 push	 eax
  000e3	8d 8e f0 11 00
	00		 lea	 ecx, DWORD PTR [esi+4592]
  000e9	c6 45 fc 08	 mov	 BYTE PTR __$EHRec$[ebp+8], 8
  000ed	e8 00 00 00 00	 call	 ??0?$CEncrypt@M@@QAE@ABV0@@Z ; CEncrypt<float>::CEncrypt<float>
  000f2	8d 87 20 12 00
	00		 lea	 eax, DWORD PTR [edi+4640]
  000f8	50		 push	 eax
  000f9	8d 8e 20 12 00
	00		 lea	 ecx, DWORD PTR [esi+4640]
  000ff	c6 45 fc 09	 mov	 BYTE PTR __$EHRec$[ebp+8], 9
  00103	e8 00 00 00 00	 call	 ??0?$CEncrypt@K@@QAE@ABV0@@Z ; CEncrypt<unsigned long>::CEncrypt<unsigned long>
  00108	8d 87 50 12 00
	00		 lea	 eax, DWORD PTR [edi+4688]
  0010e	50		 push	 eax
  0010f	8d 8e 50 12 00
	00		 lea	 ecx, DWORD PTR [esi+4688]
  00115	c6 45 fc 0a	 mov	 BYTE PTR __$EHRec$[ebp+8], 10 ; 0000000aH
  00119	e8 00 00 00 00	 call	 ??0?$CEncrypt@M@@QAE@ABV0@@Z ; CEncrypt<float>::CEncrypt<float>
  0011e	81 c7 80 12 00
	00		 add	 edi, 4736		; 00001280H
  00124	57		 push	 edi
  00125	8d 8e 80 12 00
	00		 lea	 ecx, DWORD PTR [esi+4736]
  0012b	c6 45 fc 0b	 mov	 BYTE PTR __$EHRec$[ebp+8], 11 ; 0000000bH
  0012f	e8 00 00 00 00	 call	 ??0?$CEncrypt@M@@QAE@ABV0@@Z ; CEncrypt<float>::CEncrypt<float>

; 32   : 	ClearData();

  00134	8b ce		 mov	 ecx, esi
  00136	e8 00 00 00 00	 call	 ?ClearData@ioAngleFireSkill@@IAEXXZ ; ioAngleFireSkill::ClearData

; 33   : }

  0013b	8b c6		 mov	 eax, esi
  0013d	e8 00 00 00 00	 call	 __EH_epilog3
  00142	c2 04 00	 ret	 4
_TEXT	ENDS
;	COMDAT text$x
text$x	SEGMENT
__unwindfunclet$??0ioAngleFireSkill@@QAE@ABV0@@Z$0:
  00000	8b 4d f0	 mov	 ecx, DWORD PTR _this$[ebp]
  00003	e9 00 00 00 00	 jmp	 ??1ioAttackSkill@@UAE@XZ ; ioAttackSkill::~ioAttackSkill
__unwindfunclet$??0ioAngleFireSkill@@QAE@ABV0@@Z$1:
  00008	8b 4d f0	 mov	 ecx, DWORD PTR _this$[ebp]
  0000b	81 c1 e8 10 00
	00		 add	 ecx, 4328		; 000010e8H
  00011	e9 00 00 00 00	 jmp	 ??1AttackAttribute@@QAE@XZ
__unwindfunclet$??0ioAngleFireSkill@@QAE@ABV0@@Z$2:
  00016	8b 4d f0	 mov	 ecx, DWORD PTR _this$[ebp]
  00019	81 c1 3c 11 00
	00		 add	 ecx, 4412		; 0000113cH
  0001f	ff 25 00 00 00
	00		 jmp	 DWORD PTR __imp_??1ioHashString@@QAE@XZ
__unwindfunclet$??0ioAngleFireSkill@@QAE@ABV0@@Z$3:
  00025	8b 4d f0	 mov	 ecx, DWORD PTR _this$[ebp]
  00028	81 c1 4c 11 00
	00		 add	 ecx, 4428		; 0000114cH
  0002e	ff 25 00 00 00
	00		 jmp	 DWORD PTR __imp_??1ioHashString@@QAE@XZ
__unwindfunclet$??0ioAngleFireSkill@@QAE@ABV0@@Z$4:
  00034	8b 4d f0	 mov	 ecx, DWORD PTR _this$[ebp]
  00037	81 c1 5c 11 00
	00		 add	 ecx, 4444		; 0000115cH
  0003d	ff 25 00 00 00
	00		 jmp	 DWORD PTR __imp_??1ioHashString@@QAE@XZ
__unwindfunclet$??0ioAngleFireSkill@@QAE@ABV0@@Z$5:
  00043	8b 4d f0	 mov	 ecx, DWORD PTR _this$[ebp]
  00046	81 c1 6c 11 00
	00		 add	 ecx, 4460		; 0000116cH
  0004c	ff 25 00 00 00
	00		 jmp	 DWORD PTR __imp_??1ioHashString@@QAE@XZ
__unwindfunclet$??0ioAngleFireSkill@@QAE@ABV0@@Z$6:
  00052	8b 4d f0	 mov	 ecx, DWORD PTR _this$[ebp]
  00055	81 c1 7c 11 00
	00		 add	 ecx, 4476		; 0000117cH
  0005b	ff 25 00 00 00
	00		 jmp	 DWORD PTR __imp_??1ioHashString@@QAE@XZ
__unwindfunclet$??0ioAngleFireSkill@@QAE@ABV0@@Z$7:
  00061	8b 4d f0	 mov	 ecx, DWORD PTR _this$[ebp]
  00064	81 c1 a8 11 00
	00		 add	 ecx, 4520		; 000011a8H
  0006a	ff 25 00 00 00
	00		 jmp	 DWORD PTR __imp_??1ioHashString@@QAE@XZ
__unwindfunclet$??0ioAngleFireSkill@@QAE@ABV0@@Z$8:
  00070	8b 4d f0	 mov	 ecx, DWORD PTR _this$[ebp]
  00073	81 c1 c0 11 00
	00		 add	 ecx, 4544		; 000011c0H
  00079	e9 00 00 00 00	 jmp	 ??1?$CEncrypt@M@@UAE@XZ	; CEncrypt<float>::~CEncrypt<float>
__unwindfunclet$??0ioAngleFireSkill@@QAE@ABV0@@Z$9:
  0007e	8b 4d f0	 mov	 ecx, DWORD PTR _this$[ebp]
  00081	81 c1 f0 11 00
	00		 add	 ecx, 4592		; 000011f0H
  00087	e9 00 00 00 00	 jmp	 ??1?$CEncrypt@M@@UAE@XZ	; CEncrypt<float>::~CEncrypt<float>
__unwindfunclet$??0ioAngleFireSkill@@QAE@ABV0@@Z$10:
  0008c	8b 4d f0	 mov	 ecx, DWORD PTR _this$[ebp]
  0008f	81 c1 20 12 00
	00		 add	 ecx, 4640		; 00001220H
  00095	e9 00 00 00 00	 jmp	 ??1?$CEncrypt@K@@UAE@XZ	; CEncrypt<unsigned long>::~CEncrypt<unsigned long>
__unwindfunclet$??0ioAngleFireSkill@@QAE@ABV0@@Z$11:
  0009a	8b 4d f0	 mov	 ecx, DWORD PTR _this$[ebp]
  0009d	81 c1 50 12 00
	00		 add	 ecx, 4688		; 00001250H
  000a3	e9 00 00 00 00	 jmp	 ??1?$CEncrypt@M@@UAE@XZ	; CEncrypt<float>::~CEncrypt<float>
__ehhandler$??0ioAngleFireSkill@@QAE@ABV0@@Z:
  000a8	8b 54 24 08	 mov	 edx, DWORD PTR [esp+8]
  000ac	8d 42 0c	 lea	 eax, DWORD PTR [edx+12]
  000af	8b 4a ec	 mov	 ecx, DWORD PTR [edx-20]
  000b2	33 c8		 xor	 ecx, eax
  000b4	e8 00 00 00 00	 call	 @__security_check_cookie@4
  000b9	b8 00 00 00 00	 mov	 eax, OFFSET __ehfuncinfo$??0ioAngleFireSkill@@QAE@ABV0@@Z
  000be	e9 00 00 00 00	 jmp	 ___CxxFrameHandler3
text$x	ENDS
??0ioAngleFireSkill@@QAE@ABV0@@Z ENDP			; ioAngleFireSkill::ioAngleFireSkill
PUBLIC	??1ioAngleFireSkill@@UAE@XZ			; ioAngleFireSkill::~ioAngleFireSkill
;	COMDAT xdata$x
; File d:\lost saga for developer\youtube\tutorial\source\src\lsclient\encryptvalue.h
xdata$x	SEGMENT
__ehfuncinfo$??1ioAngleFireSkill@@UAE@XZ DD 019930522H
	DD	0cH
	DD	FLAT:__unwindtable$??1ioAngleFireSkill@@UAE@XZ
	DD	2 DUP(00H)
	DD	2 DUP(00H)
	DD	00H
	DD	01H
__unwindtable$??1ioAngleFireSkill@@UAE@XZ DD 0ffffffffH
	DD	FLAT:__unwindfunclet$??1ioAngleFireSkill@@UAE@XZ$0
	DD	00H
	DD	FLAT:__unwindfunclet$??1ioAngleFireSkill@@UAE@XZ$1
	DD	01H
	DD	FLAT:__unwindfunclet$??1ioAngleFireSkill@@UAE@XZ$2
	DD	02H
	DD	FLAT:__unwindfunclet$??1ioAngleFireSkill@@UAE@XZ$3
	DD	03H
	DD	FLAT:__unwindfunclet$??1ioAngleFireSkill@@UAE@XZ$4
	DD	04H
	DD	FLAT:__unwindfunclet$??1ioAngleFireSkill@@UAE@XZ$5
	DD	05H
	DD	FLAT:__unwindfunclet$??1ioAngleFireSkill@@UAE@XZ$6
	DD	06H
	DD	FLAT:__unwindfunclet$??1ioAngleFireSkill@@UAE@XZ$7
	DD	07H
	DD	FLAT:__unwindfunclet$??1ioAngleFireSkill@@UAE@XZ$8
	DD	08H
	DD	FLAT:__unwindfunclet$??1ioAngleFireSkill@@UAE@XZ$9
	DD	09H
	DD	FLAT:__unwindfunclet$??1ioAngleFireSkill@@UAE@XZ$10
	DD	0aH
	DD	FLAT:__unwindfunclet$??1ioAngleFireSkill@@UAE@XZ$11
; Function compile flags: /Ogsp
; File d:\lost saga for developer\youtube\tutorial\source\src\lsclient\ioanglefireskill.cpp
xdata$x	ENDS
;	COMDAT ??1ioAngleFireSkill@@UAE@XZ
_TEXT	SEGMENT
_this$ = -16						; size = 4
__$EHRec$ = -12						; size = 12
??1ioAngleFireSkill@@UAE@XZ PROC			; ioAngleFireSkill::~ioAngleFireSkill, COMDAT
; _this$ = ecx

; 36   : {

  00000	6a 04		 push	 4
  00002	b8 00 00 00 00	 mov	 eax, __ehhandler$??1ioAngleFireSkill@@UAE@XZ
  00007	e8 00 00 00 00	 call	 __EH_prolog3
  0000c	8b f1		 mov	 esi, ecx
  0000e	89 75 f0	 mov	 DWORD PTR _this$[ebp], esi
  00011	c7 06 00 00 00
	00		 mov	 DWORD PTR [esi], OFFSET ??_7ioAngleFireSkill@@6B@
  00017	c7 45 fc 0b 00
	00 00		 mov	 DWORD PTR __$EHRec$[ebp+8], 11 ; 0000000bH

; 37   : 	ClearData();

  0001e	e8 00 00 00 00	 call	 ?ClearData@ioAngleFireSkill@@IAEXXZ ; ioAngleFireSkill::ClearData

; 38   : }

  00023	bf 00 00 00 00	 mov	 edi, OFFSET ??_7?$CEncrypt@M@@6B@
  00028	8d 8e 8c 12 00
	00		 lea	 ecx, DWORD PTR [esi+4748]
  0002e	89 be 80 12 00
	00		 mov	 DWORD PTR [esi+4736], edi
  00034	e8 00 00 00 00	 call	 ??1ccddaabb@@UAE@XZ	; ccddaabb::~ccddaabb
  00039	8d 8e 5c 12 00
	00		 lea	 ecx, DWORD PTR [esi+4700]
  0003f	c6 45 fc 0a	 mov	 BYTE PTR __$EHRec$[ebp+8], 10 ; 0000000aH
  00043	89 be 50 12 00
	00		 mov	 DWORD PTR [esi+4688], edi
  00049	e8 00 00 00 00	 call	 ??1ccddaabb@@UAE@XZ	; ccddaabb::~ccddaabb
  0004e	8d 8e 2c 12 00
	00		 lea	 ecx, DWORD PTR [esi+4652]
  00054	c6 45 fc 09	 mov	 BYTE PTR __$EHRec$[ebp+8], 9
  00058	c7 86 20 12 00
	00 00 00 00 00	 mov	 DWORD PTR [esi+4640], OFFSET ??_7?$CEncrypt@K@@6B@
  00062	e8 00 00 00 00	 call	 ??1ccddaabb@@UAE@XZ	; ccddaabb::~ccddaabb
  00067	8d 8e fc 11 00
	00		 lea	 ecx, DWORD PTR [esi+4604]
  0006d	c6 45 fc 08	 mov	 BYTE PTR __$EHRec$[ebp+8], 8
  00071	89 be f0 11 00
	00		 mov	 DWORD PTR [esi+4592], edi
  00077	e8 00 00 00 00	 call	 ??1ccddaabb@@UAE@XZ	; ccddaabb::~ccddaabb
  0007c	8d 8e cc 11 00
	00		 lea	 ecx, DWORD PTR [esi+4556]
  00082	c6 45 fc 07	 mov	 BYTE PTR __$EHRec$[ebp+8], 7
  00086	89 be c0 11 00
	00		 mov	 DWORD PTR [esi+4544], edi
  0008c	e8 00 00 00 00	 call	 ??1ccddaabb@@UAE@XZ	; ccddaabb::~ccddaabb
  00091	8b 3d 00 00 00
	00		 mov	 edi, DWORD PTR __imp_??1ioHashString@@QAE@XZ
  00097	8d 8e a8 11 00
	00		 lea	 ecx, DWORD PTR [esi+4520]
  0009d	c6 45 fc 06	 mov	 BYTE PTR __$EHRec$[ebp+8], 6
  000a1	ff d7		 call	 edi
  000a3	8d 8e 7c 11 00
	00		 lea	 ecx, DWORD PTR [esi+4476]
  000a9	c6 45 fc 05	 mov	 BYTE PTR __$EHRec$[ebp+8], 5
  000ad	ff d7		 call	 edi
  000af	8d 8e 6c 11 00
	00		 lea	 ecx, DWORD PTR [esi+4460]
  000b5	c6 45 fc 04	 mov	 BYTE PTR __$EHRec$[ebp+8], 4
  000b9	ff d7		 call	 edi
  000bb	8d 8e 5c 11 00
	00		 lea	 ecx, DWORD PTR [esi+4444]
  000c1	c6 45 fc 03	 mov	 BYTE PTR __$EHRec$[ebp+8], 3
  000c5	ff d7		 call	 edi
  000c7	8d 8e 4c 11 00
	00		 lea	 ecx, DWORD PTR [esi+4428]
  000cd	c6 45 fc 02	 mov	 BYTE PTR __$EHRec$[ebp+8], 2
  000d1	ff d7		 call	 edi
  000d3	8d 8e 3c 11 00
	00		 lea	 ecx, DWORD PTR [esi+4412]
  000d9	c6 45 fc 01	 mov	 BYTE PTR __$EHRec$[ebp+8], 1
  000dd	ff d7		 call	 edi
  000df	8d 8e e8 10 00
	00		 lea	 ecx, DWORD PTR [esi+4328]
  000e5	c6 45 fc 00	 mov	 BYTE PTR __$EHRec$[ebp+8], 0
  000e9	e8 00 00 00 00	 call	 ??1AttackAttribute@@QAE@XZ
  000ee	83 4d fc ff	 or	 DWORD PTR __$EHRec$[ebp+8], -1
  000f2	8b ce		 mov	 ecx, esi
  000f4	e8 00 00 00 00	 call	 ??1ioAttackSkill@@UAE@XZ ; ioAttackSkill::~ioAttackSkill
  000f9	e8 00 00 00 00	 call	 __EH_epilog3
  000fe	c3		 ret	 0
_TEXT	ENDS
;	COMDAT text$x
text$x	SEGMENT
__unwindfunclet$??1ioAngleFireSkill@@UAE@XZ$0:
  00000	8b 4d f0	 mov	 ecx, DWORD PTR _this$[ebp]
  00003	e9 00 00 00 00	 jmp	 ??1ioAttackSkill@@UAE@XZ ; ioAttackSkill::~ioAttackSkill
__unwindfunclet$??1ioAngleFireSkill@@UAE@XZ$1:
  00008	8b 4d f0	 mov	 ecx, DWORD PTR _this$[ebp]
  0000b	81 c1 e8 10 00
	00		 add	 ecx, 4328		; 000010e8H
  00011	e9 00 00 00 00	 jmp	 ??1AttackAttribute@@QAE@XZ
__unwindfunclet$??1ioAngleFireSkill@@UAE@XZ$2:
  00016	8b 4d f0	 mov	 ecx, DWORD PTR _this$[ebp]
  00019	81 c1 3c 11 00
	00		 add	 ecx, 4412		; 0000113cH
  0001f	ff 25 00 00 00
	00		 jmp	 DWORD PTR __imp_??1ioHashString@@QAE@XZ
__unwindfunclet$??1ioAngleFireSkill@@UAE@XZ$3:
  00025	8b 4d f0	 mov	 ecx, DWORD PTR _this$[ebp]
  00028	81 c1 4c 11 00
	00		 add	 ecx, 4428		; 0000114cH
  0002e	ff 25 00 00 00
	00		 jmp	 DWORD PTR __imp_??1ioHashString@@QAE@XZ
__unwindfunclet$??1ioAngleFireSkill@@UAE@XZ$4:
  00034	8b 4d f0	 mov	 ecx, DWORD PTR _this$[ebp]
  00037	81 c1 5c 11 00
	00		 add	 ecx, 4444		; 0000115cH
  0003d	ff 25 00 00 00
	00		 jmp	 DWORD PTR __imp_??1ioHashString@@QAE@XZ
__unwindfunclet$??1ioAngleFireSkill@@UAE@XZ$5:
  00043	8b 4d f0	 mov	 ecx, DWORD PTR _this$[ebp]
  00046	81 c1 6c 11 00
	00		 add	 ecx, 4460		; 0000116cH
  0004c	ff 25 00 00 00
	00		 jmp	 DWORD PTR __imp_??1ioHashString@@QAE@XZ
__unwindfunclet$??1ioAngleFireSkill@@UAE@XZ$6:
  00052	8b 4d f0	 mov	 ecx, DWORD PTR _this$[ebp]
  00055	81 c1 7c 11 00
	00		 add	 ecx, 4476		; 0000117cH
  0005b	ff 25 00 00 00
	00		 jmp	 DWORD PTR __imp_??1ioHashString@@QAE@XZ
__unwindfunclet$??1ioAngleFireSkill@@UAE@XZ$7:
  00061	8b 4d f0	 mov	 ecx, DWORD PTR _this$[ebp]
  00064	81 c1 a8 11 00
	00		 add	 ecx, 4520		; 000011a8H
  0006a	ff 25 00 00 00
	00		 jmp	 DWORD PTR __imp_??1ioHashString@@QAE@XZ
__unwindfunclet$??1ioAngleFireSkill@@UAE@XZ$8:
  00070	8b 4d f0	 mov	 ecx, DWORD PTR _this$[ebp]
  00073	81 c1 c0 11 00
	00		 add	 ecx, 4544		; 000011c0H
  00079	e9 00 00 00 00	 jmp	 ??1?$CEncrypt@M@@UAE@XZ	; CEncrypt<float>::~CEncrypt<float>
__unwindfunclet$??1ioAngleFireSkill@@UAE@XZ$9:
  0007e	8b 4d f0	 mov	 ecx, DWORD PTR _this$[ebp]
  00081	81 c1 f0 11 00
	00		 add	 ecx, 4592		; 000011f0H
  00087	e9 00 00 00 00	 jmp	 ??1?$CEncrypt@M@@UAE@XZ	; CEncrypt<float>::~CEncrypt<float>
__unwindfunclet$??1ioAngleFireSkill@@UAE@XZ$10:
  0008c	8b 4d f0	 mov	 ecx, DWORD PTR _this$[ebp]
  0008f	81 c1 20 12 00
	00		 add	 ecx, 4640		; 00001220H
  00095	e9 00 00 00 00	 jmp	 ??1?$CEncrypt@K@@UAE@XZ	; CEncrypt<unsigned long>::~CEncrypt<unsigned long>
__unwindfunclet$??1ioAngleFireSkill@@UAE@XZ$11:
  0009a	8b 4d f0	 mov	 ecx, DWORD PTR _this$[ebp]
  0009d	81 c1 50 12 00
	00		 add	 ecx, 4688		; 00001250H
  000a3	e9 00 00 00 00	 jmp	 ??1?$CEncrypt@M@@UAE@XZ	; CEncrypt<float>::~CEncrypt<float>
__ehhandler$??1ioAngleFireSkill@@UAE@XZ:
  000a8	8b 54 24 08	 mov	 edx, DWORD PTR [esp+8]
  000ac	8d 42 0c	 lea	 eax, DWORD PTR [edx+12]
  000af	8b 4a ec	 mov	 ecx, DWORD PTR [edx-20]
  000b2	33 c8		 xor	 ecx, eax
  000b4	e8 00 00 00 00	 call	 @__security_check_cookie@4
  000b9	b8 00 00 00 00	 mov	 eax, OFFSET __ehfuncinfo$??1ioAngleFireSkill@@UAE@XZ
  000be	e9 00 00 00 00	 jmp	 ___CxxFrameHandler3
text$x	ENDS
??1ioAngleFireSkill@@UAE@XZ ENDP			; ioAngleFireSkill::~ioAngleFireSkill
;	COMDAT xdata$x
xdata$x	SEGMENT
__unwindtable$?Clone@ioAngleFireSkill@@UAEPAVioSkill@@XZ DD 0ffffffffH
	DD	FLAT:__unwindfunclet$?Clone@ioAngleFireSkill@@UAEPAVioSkill@@XZ$0
__ehfuncinfo$?Clone@ioAngleFireSkill@@UAEPAVioSkill@@XZ DD 019930522H
	DD	01H
	DD	FLAT:__unwindtable$?Clone@ioAngleFireSkill@@UAEPAVioSkill@@XZ
	DD	2 DUP(00H)
	DD	2 DUP(00H)
	DD	00H
	DD	01H
; Function compile flags: /Ogsp
xdata$x	ENDS
;	COMDAT ?Clone@ioAngleFireSkill@@UAEPAVioSkill@@XZ
_TEXT	SEGMENT
$T544320 = -16						; size = 4
__$EHRec$ = -12						; size = 12
?Clone@ioAngleFireSkill@@UAEPAVioSkill@@XZ PROC		; ioAngleFireSkill::Clone, COMDAT
; _this$ = ecx

; 98   : {

  00000	6a 04		 push	 4
  00002	b8 00 00 00 00	 mov	 eax, __ehhandler$?Clone@ioAngleFireSkill@@UAEPAVioSkill@@XZ
  00007	e8 00 00 00 00	 call	 __EH_prolog3
  0000c	8b f1		 mov	 esi, ecx

; 99   : 	return new ioAngleFireSkill( *this );

  0000e	68 b0 12 00 00	 push	 4784			; 000012b0H
  00013	e8 00 00 00 00	 call	 ??2@YAPAXI@Z		; operator new
  00018	59		 pop	 ecx
  00019	8b c8		 mov	 ecx, eax
  0001b	89 4d f0	 mov	 DWORD PTR $T544320[ebp], ecx
  0001e	33 c0		 xor	 eax, eax
  00020	89 45 fc	 mov	 DWORD PTR __$EHRec$[ebp+8], eax
  00023	3b c8		 cmp	 ecx, eax
  00025	74 06		 je	 SHORT $LN3@Clone
  00027	56		 push	 esi
  00028	e8 00 00 00 00	 call	 ??0ioAngleFireSkill@@QAE@ABV0@@Z ; ioAngleFireSkill::ioAngleFireSkill
$LN3@Clone:

; 100  : }

  0002d	e8 00 00 00 00	 call	 __EH_epilog3
  00032	c3		 ret	 0
_TEXT	ENDS
;	COMDAT text$x
text$x	SEGMENT
__unwindfunclet$?Clone@ioAngleFireSkill@@UAEPAVioSkill@@XZ$0:
  00000	ff 75 f0	 push	 DWORD PTR $T544320[ebp]
  00003	e8 00 00 00 00	 call	 ??3@YAXPAX@Z		; operator delete
  00008	59		 pop	 ecx
  00009	c3		 ret	 0
__ehhandler$?Clone@ioAngleFireSkill@@UAEPAVioSkill@@XZ:
  0000a	8b 54 24 08	 mov	 edx, DWORD PTR [esp+8]
  0000e	8d 42 0c	 lea	 eax, DWORD PTR [edx+12]
  00011	8b 4a ec	 mov	 ecx, DWORD PTR [edx-20]
  00014	33 c8		 xor	 ecx, eax
  00016	e8 00 00 00 00	 call	 @__security_check_cookie@4
  0001b	b8 00 00 00 00	 mov	 eax, OFFSET __ehfuncinfo$?Clone@ioAngleFireSkill@@UAEPAVioSkill@@XZ
  00020	e9 00 00 00 00	 jmp	 ___CxxFrameHandler3
text$x	ENDS
?Clone@ioAngleFireSkill@@UAEPAVioSkill@@XZ ENDP		; ioAngleFireSkill::Clone
PUBLIC	__real@00000000
PUBLIC	__real@0000000000000000
PUBLIC	_pChar$GSCopy$
PUBLIC	__$ArrayPad$
PUBLIC	?SetFireState@ioAngleFireSkill@@IAEXPAVioBaseChar@@@Z ; ioAngleFireSkill::SetFireState
EXTRN	??1SP2Packet@@UAE@XZ:PROC			; SP2Packet::~SP2Packet
EXTRN	?SendToAllPlayingUser@P2PNetwork@@YAXAAVSP2Packet@@PAVioBaseChar@@@Z:PROC ; P2PNetwork::SendToAllPlayingUser
EXTRN	??6SP2Packet@@QAEAAV0@ABUD3DXVECTOR3@@@Z:PROC	; SP2Packet::operator<<
EXTRN	??6SP2Packet@@QAEAAV0@H@Z:PROC			; SP2Packet::operator<<
EXTRN	??6SP2Packet@@QAEAAV0@ABVioHashString@@@Z:PROC	; SP2Packet::operator<<
EXTRN	??0SP2Packet@@QAE@K@Z:PROC			; SP2Packet::SP2Packet
EXTRN	__chkstk:PROC
;	COMDAT __real@00000000
; File d:\lost saga for developer\youtube\tutorial\source\src\lsclient\ioskill.h
CONST	SEGMENT
__real@00000000 DD 000000000r			; 0
CONST	ENDS
;	COMDAT __real@0000000000000000
CONST	SEGMENT
__real@0000000000000000 DQ 00000000000000000r	; 0
CONST	ENDS
;	COMDAT xdata$x
xdata$x	SEGMENT
__unwindtable$?SetFireState@ioAngleFireSkill@@IAEXPAVioBaseChar@@@Z DD 0ffffffffH
	DD	FLAT:__unwindfunclet$?SetFireState@ioAngleFireSkill@@IAEXPAVioBaseChar@@@Z$0
__ehfuncinfo$?SetFireState@ioAngleFireSkill@@IAEXPAVioBaseChar@@@Z DD 019930522H
	DD	01H
	DD	FLAT:__unwindtable$?SetFireState@ioAngleFireSkill@@IAEXPAVioBaseChar@@@Z
	DD	2 DUP(00H)
	DD	2 DUP(00H)
	DD	00H
	DD	01H
; Function compile flags: /Ogsp
; File d:\lost saga for developer\youtube\tutorial\source\src\lsclient\ioanglefireskill.cpp
xdata$x	ENDS
;	COMDAT ?SetFireState@ioAngleFireSkill@@IAEXPAVioBaseChar@@@Z
_TEXT	SEGMENT
_vTempDir$ = -32836					; size = 12
tv257 = -32824						; size = 4
_pChar$GSCopy$ = -32820					; size = 4
_value$544349 = -32816					; size = 4
_value$544345 = -32816					; size = 4
tv339 = -32812						; size = 4
$T544341 = -32812					; size = 4
_fAngle$ = -32812					; size = 4
_fDotValue$ = -32812					; size = 4
_kPacket$530820 = -32808				; size = 32792
__$ArrayPad$ = -16					; size = 4
__$EHRec$ = -12						; size = 12
_pChar$ = 8						; size = 4
?SetFireState@ioAngleFireSkill@@IAEXPAVioBaseChar@@@Z PROC ; ioAngleFireSkill::SetFireState, COMDAT
; _this$ = ecx

; 419  : {

  00000	55		 push	 ebp
  00001	8b ec		 mov	 ebp, esp
  00003	6a ff		 push	 -1
  00005	68 00 00 00 00	 push	 __ehhandler$?SetFireState@ioAngleFireSkill@@IAEXPAVioBaseChar@@@Z
  0000a	64 a1 00 00 00
	00		 mov	 eax, DWORD PTR fs:0
  00010	50		 push	 eax
  00011	b8 38 80 00 00	 mov	 eax, 32824		; 00008038H
  00016	e8 00 00 00 00	 call	 __chkstk
  0001b	a1 00 00 00 00	 mov	 eax, DWORD PTR ___security_cookie
  00020	33 c5		 xor	 eax, ebp
  00022	89 45 f0	 mov	 DWORD PTR __$ArrayPad$[ebp], eax
  00025	53		 push	 ebx
  00026	56		 push	 esi
  00027	57		 push	 edi
  00028	50		 push	 eax
  00029	8d 45 f4	 lea	 eax, DWORD PTR __$EHRec$[ebp]
  0002c	64 a3 00 00 00
	00		 mov	 DWORD PTR fs:0, eax
  00032	8b 45 08	 mov	 eax, DWORD PTR _pChar$[ebp]
  00035	8b d9		 mov	 ebx, ecx

; 446  : 	{
; 447  : 		SP2Packet kPacket( CUPK_SKILL_EXTRA_INFO );

  00037	89 85 cc 7f ff
	ff		 mov	 DWORD PTR _pChar$GSCopy$[ebp], eax
  0003d	85 c0		 test	 eax, eax
  0003f	0f 84 aa 01 00
	00		 je	 $LN1@SetFireSta

; 420  : 	if( !pChar ) return;
; 421  : 
; 422  : 	// 각도 보정.
; 423  : 	// 현재 발사각이 보정 최대, 최소값의 사이에 있다면 발사각을 0도로 보정해준다.
; 424  : 	D3DXVECTOR3 vTempDir = m_vAttackDir;
; 425  : 	vTempDir.y = 0.0f;
; 426  : 	float fDotValue = D3DXVec3Dot( &vTempDir, &m_vAttackDir );

  00045	8d 83 98 11 00
	00		 lea	 eax, DWORD PTR [ebx+4504]
  0004b	d9 00		 fld	 DWORD PTR [eax]
  0004d	8b f0		 mov	 esi, eax
  0004f	8d bd bc 7f ff
	ff		 lea	 edi, DWORD PTR _vTempDir$[ebp]
  00055	a5		 movsd
  00056	a5		 movsd
  00057	a5		 movsd
  00058	d8 8d bc 7f ff
	ff		 fmul	 DWORD PTR _vTempDir$[ebp]
  0005e	d9 40 04	 fld	 DWORD PTR [eax+4]
  00061	dc 0d 00 00 00
	00		 fmul	 QWORD PTR __real@0000000000000000
  00067	89 85 c8 7f ff
	ff		 mov	 DWORD PTR tv257[ebp], eax
  0006d	de c1		 faddp	 ST(1), ST(0)
  0006f	d9 40 08	 fld	 DWORD PTR [eax+8]
  00072	d8 8d c4 7f ff
	ff		 fmul	 DWORD PTR _vTempDir$[ebp+8]
  00078	de c1		 faddp	 ST(1), ST(0)
  0007a	d9 9d d4 7f ff
	ff		 fstp	 DWORD PTR _fDotValue$[ebp]

; 427  : 	float fAngle = RADtoDEG( acosf( fDotValue ) );

  00080	d9 85 d4 7f ff
	ff		 fld	 DWORD PTR _fDotValue$[ebp]
  00086	e8 00 00 00 00	 call	 __CIacos
  0008b	d9 9d d4 7f ff
	ff		 fstp	 DWORD PTR tv339[ebp]
  00091	d9 85 d4 7f ff
	ff		 fld	 DWORD PTR tv339[ebp]
  00097	51		 push	 ecx
  00098	d9 9d d4 7f ff
	ff		 fstp	 DWORD PTR $T544341[ebp]
  0009e	f3 0f 10 85 d4
	7f ff ff	 movss	 xmm0, DWORD PTR $T544341[ebp]
  000a6	f3 0f 11 04 24	 movss	 DWORD PTR [esp], xmm0
  000ab	e8 00 00 00 00	 call	 ??$RADtoDEG@M@@YAMM@Z	; RADtoDEG<float>
  000b0	d9 9d d4 7f ff
	ff		 fstp	 DWORD PTR _fAngle$[ebp]
  000b6	59		 pop	 ecx

; 428  : 
; 429  : 	if( COMPARE( fAngle, m_fRevisionZeroMin, m_fRevisionZeroMax ))

  000b7	8d 85 d0 7f ff
	ff		 lea	 eax, DWORD PTR _value$544345[ebp]
  000bd	50		 push	 eax
  000be	8d 8b 50 12 00
	00		 lea	 ecx, DWORD PTR [ebx+4688]
  000c4	e8 00 00 00 00	 call	 ?DecryptValueToPool@?$CEncrypt@M@@QAEXPAM@Z ; CEncrypt<float>::DecryptValueToPool
  000c9	d9 85 d0 7f ff
	ff		 fld	 DWORD PTR _value$544345[ebp]
  000cf	d9 85 d4 7f ff
	ff		 fld	 DWORD PTR _fAngle$[ebp]
  000d5	df f1		 fcomip	 ST(1)
  000d7	dd d8		 fstp	 ST(0)
  000d9	72 39		 jb	 SHORT $LN5@SetFireSta
  000db	8d 85 d0 7f ff
	ff		 lea	 eax, DWORD PTR _value$544349[ebp]
  000e1	50		 push	 eax
  000e2	8d 8b 80 12 00
	00		 lea	 ecx, DWORD PTR [ebx+4736]
  000e8	e8 00 00 00 00	 call	 ?DecryptValueToPool@?$CEncrypt@M@@QAEXPAM@Z ; CEncrypt<float>::DecryptValueToPool
  000ed	f3 0f 10 85 d4
	7f ff ff	 movss	 xmm0, DWORD PTR _fAngle$[ebp]
  000f5	f3 0f 10 8d d0
	7f ff ff	 movss	 xmm1, DWORD PTR _value$544349[ebp]
  000fd	0f 5a c0	 cvtps2pd xmm0, xmm0
  00100	0f 5a c9	 cvtps2pd xmm1, xmm1
  00103	66 0f 2f c8	 comisd	 xmm1, xmm0
  00107	76 0b		 jbe	 SHORT $LN5@SetFireSta

; 430  : 		m_vAttackDir.y = 0.0f;

  00109	0f 57 c0	 xorps	 xmm0, xmm0
  0010c	f3 0f 11 83 9c
	11 00 00	 movss	 DWORD PTR [ebx+4508], xmm0
$LN5@SetFireSta:

; 431  : 
; 432  : 	if( m_vAttackDir.y > 0.0f )

  00114	f3 0f 10 83 9c
	11 00 00	 movss	 xmm0, DWORD PTR [ebx+4508]
  0011c	0f 2f 05 00 00
	00 00		 comiss	 xmm0, DWORD PTR __real@00000000

; 433  : 		AttackSkillFire( pChar );

  00123	8b cb		 mov	 ecx, ebx
  00125	76 11		 jbe	 SHORT $LN4@SetFireSta
  00127	8b bd cc 7f ff
	ff		 mov	 edi, DWORD PTR _pChar$GSCopy$[ebp]
  0012d	8b 03		 mov	 eax, DWORD PTR [ebx]
  0012f	57		 push	 edi
  00130	ff 90 8c 01 00
	00		 call	 DWORD PTR [eax+396]

; 434  : 	else

  00136	eb 11		 jmp	 SHORT $LN3@SetFireSta
$LN4@SetFireSta:

; 435  : 		AttackWeakSkillFire( pChar );

  00138	ff b5 cc 7f ff
	ff		 push	 DWORD PTR _pChar$GSCopy$[ebp]
  0013e	e8 00 00 00 00	 call	 ?AttackWeakSkillFire@ioAngleFireSkill@@IAEXPAVioBaseChar@@@Z ; ioAngleFireSkill::AttackWeakSkillFire
  00143	8b bd cc 7f ff
	ff		 mov	 edi, DWORD PTR _pChar$GSCopy$[ebp]
$LN3@SetFireSta:

; 436  : 
; 437  : 	m_SkillState = SS_FIRE;
; 438  : 
; 439  : 	if( m_dwExtraGuidEffect != -1 )

  00149	8b 83 b8 11 00
	00		 mov	 eax, DWORD PTR [ebx+4536]
  0014f	c7 83 e4 10 00
	00 02 00 00 00	 mov	 DWORD PTR [ebx+4324], 2
  00159	83 f8 ff	 cmp	 eax, -1
  0015c	74 11		 je	 SHORT $LN2@SetFireSta

; 440  : 	{
; 441  : 		pChar->EndEffect( m_dwExtraGuidEffect, false );

  0015e	6a 00		 push	 0
  00160	50		 push	 eax
  00161	8b cf		 mov	 ecx, edi
  00163	e8 00 00 00 00	 call	 ?EndEffect@ioBaseChar@@QAEXK_N@Z ; ioBaseChar::EndEffect

; 442  : 		m_dwExtraGuidEffect = -1;

  00168	83 8b b8 11 00
	00 ff		 or	 DWORD PTR [ebx+4536], -1
$LN2@SetFireSta:

; 443  : 	}
; 444  : 
; 445  : 	if( pChar->IsNeedSendNetwork() )

  0016f	8b 07		 mov	 eax, DWORD PTR [edi]
  00171	8b cf		 mov	 ecx, edi
  00173	ff 90 04 01 00
	00		 call	 DWORD PTR [eax+260]
  00179	84 c0		 test	 al, al
  0017b	74 72		 je	 SHORT $LN1@SetFireSta

; 446  : 	{
; 447  : 		SP2Packet kPacket( CUPK_SKILL_EXTRA_INFO );

  0017d	68 39 41 00 00	 push	 16697			; 00004139H
  00182	8d 8d d8 7f ff
	ff		 lea	 ecx, DWORD PTR _kPacket$530820[ebp]
  00188	e8 00 00 00 00	 call	 ??0SP2Packet@@QAE@K@Z	; SP2Packet::SP2Packet
  0018d	83 65 fc 00	 and	 DWORD PTR __$EHRec$[ebp+8], 0

; 448  : 		kPacket << pChar->GetCharName();

  00191	81 c7 d4 02 00
	00		 add	 edi, 724		; 000002d4H
  00197	57		 push	 edi
  00198	8d 8d d8 7f ff
	ff		 lea	 ecx, DWORD PTR _kPacket$530820[ebp]
  0019e	e8 00 00 00 00	 call	 ??6SP2Packet@@QAEAAV0@ABVioHashString@@@Z ; SP2Packet::operator<<

; 449  : 		kPacket << GetName();

  001a3	83 c3 24	 add	 ebx, 36			; 00000024H
  001a6	53		 push	 ebx
  001a7	8d 8d d8 7f ff
	ff		 lea	 ecx, DWORD PTR _kPacket$530820[ebp]
  001ad	e8 00 00 00 00	 call	 ??6SP2Packet@@QAEAAV0@ABVioHashString@@@Z ; SP2Packet::operator<<

; 450  : 		kPacket << SNT_ATTACK;

  001b2	6a 02		 push	 2
  001b4	8d 8d d8 7f ff
	ff		 lea	 ecx, DWORD PTR _kPacket$530820[ebp]
  001ba	e8 00 00 00 00	 call	 ??6SP2Packet@@QAEAAV0@H@Z ; SP2Packet::operator<<

; 451  : 		kPacket << m_vAttackDir;

  001bf	ff b5 c8 7f ff
	ff		 push	 DWORD PTR tv257[ebp]
  001c5	8d 8d d8 7f ff
	ff		 lea	 ecx, DWORD PTR _kPacket$530820[ebp]
  001cb	e8 00 00 00 00	 call	 ??6SP2Packet@@QAEAAV0@ABUD3DXVECTOR3@@@Z ; SP2Packet::operator<<

; 452  : 		P2PNetwork::SendToAllPlayingUser( kPacket );

  001d0	8d 85 d8 7f ff
	ff		 lea	 eax, DWORD PTR _kPacket$530820[ebp]
  001d6	6a 00		 push	 0
  001d8	50		 push	 eax
  001d9	e8 00 00 00 00	 call	 ?SendToAllPlayingUser@P2PNetwork@@YAXAAVSP2Packet@@PAVioBaseChar@@@Z ; P2PNetwork::SendToAllPlayingUser

; 453  : 	}

  001de	83 4d fc ff	 or	 DWORD PTR __$EHRec$[ebp+8], -1
  001e2	59		 pop	 ecx
  001e3	59		 pop	 ecx
  001e4	8d 8d d8 7f ff
	ff		 lea	 ecx, DWORD PTR _kPacket$530820[ebp]
  001ea	e8 00 00 00 00	 call	 ??1SP2Packet@@UAE@XZ	; SP2Packet::~SP2Packet
$LN1@SetFireSta:

; 454  : }

  001ef	8b 4d f4	 mov	 ecx, DWORD PTR __$EHRec$[ebp]
  001f2	64 89 0d 00 00
	00 00		 mov	 DWORD PTR fs:0, ecx
  001f9	59		 pop	 ecx
  001fa	5f		 pop	 edi
  001fb	5e		 pop	 esi
  001fc	5b		 pop	 ebx
  001fd	8b 4d f0	 mov	 ecx, DWORD PTR __$ArrayPad$[ebp]
  00200	33 cd		 xor	 ecx, ebp
  00202	e8 00 00 00 00	 call	 @__security_check_cookie@4
  00207	c9		 leave
  00208	c2 04 00	 ret	 4
_TEXT	ENDS
;	COMDAT text$x
text$x	SEGMENT
__unwindfunclet$?SetFireState@ioAngleFireSkill@@IAEXPAVioBaseChar@@@Z$0:
  00000	8d 8d d8 7f ff
	ff		 lea	 ecx, DWORD PTR _kPacket$530820[ebp]
  00006	e9 00 00 00 00	 jmp	 ??1SP2Packet@@UAE@XZ	; SP2Packet::~SP2Packet
__ehhandler$?SetFireState@ioAngleFireSkill@@IAEXPAVioBaseChar@@@Z:
  0000b	8b 54 24 08	 mov	 edx, DWORD PTR [esp+8]
  0000f	8d 42 0c	 lea	 eax, DWORD PTR [edx+12]
  00012	8b 8a b8 7f ff
	ff		 mov	 ecx, DWORD PTR [edx-32840]
  00018	33 c8		 xor	 ecx, eax
  0001a	e8 00 00 00 00	 call	 @__security_check_cookie@4
  0001f	8b 4a fc	 mov	 ecx, DWORD PTR [edx-4]
  00022	33 c8		 xor	 ecx, eax
  00024	e8 00 00 00 00	 call	 @__security_check_cookie@4
  00029	b8 00 00 00 00	 mov	 eax, OFFSET __ehfuncinfo$?SetFireState@ioAngleFireSkill@@IAEXPAVioBaseChar@@@Z
  0002e	e9 00 00 00 00	 jmp	 ___CxxFrameHandler3
text$x	ENDS
?SetFireState@ioAngleFireSkill@@IAEXPAVioBaseChar@@@Z ENDP ; ioAngleFireSkill::SetFireState
EXTRN	??5SP2Packet@@QAEAAV0@AAUD3DXVECTOR3@@@Z:PROC	; SP2Packet::operator>>
EXTRN	??5SP2Packet@@QAEAAV0@AAH@Z:PROC		; SP2Packet::operator>>
; Function compile flags: /Ogsp
;	COMDAT ?ApplyExtraSkillInfo@ioAngleFireSkill@@UAEXPAVioBaseChar@@PAVioPlayStage@@AAVSP2Packet@@@Z
_TEXT	SEGMENT
_iState$ = -4						; size = 4
_pChar$ = 8						; size = 4
_pStage$ = 12						; size = 4
_rkPacket$ = 16						; size = 4
?ApplyExtraSkillInfo@ioAngleFireSkill@@UAEXPAVioBaseChar@@PAVioPlayStage@@AAVSP2Packet@@@Z PROC ; ioAngleFireSkill::ApplyExtraSkillInfo, COMDAT
; _this$ = ecx

; 752  : {

  00000	55		 push	 ebp
  00001	8b ec		 mov	 ebp, esp
  00003	51		 push	 ecx
  00004	56		 push	 esi

; 753  : 	int iState;
; 754  : 	rkPacket >> iState;

  00005	8d 45 fc	 lea	 eax, DWORD PTR _iState$[ebp]
  00008	8b f1		 mov	 esi, ecx
  0000a	8b 4d 10	 mov	 ecx, DWORD PTR _rkPacket$[ebp]
  0000d	50		 push	 eax
  0000e	e8 00 00 00 00	 call	 ??5SP2Packet@@QAEAAV0@AAH@Z ; SP2Packet::operator>>

; 755  : 	rkPacket >> m_vAttackDir;

  00013	8b 4d 10	 mov	 ecx, DWORD PTR _rkPacket$[ebp]
  00016	8d 86 98 11 00
	00		 lea	 eax, DWORD PTR [esi+4504]
  0001c	50		 push	 eax
  0001d	e8 00 00 00 00	 call	 ??5SP2Packet@@QAEAAV0@AAUD3DXVECTOR3@@@Z ; SP2Packet::operator>>

; 756  : 
; 757  : 	switch( iState )

  00022	8b 45 fc	 mov	 eax, DWORD PTR _iState$[ebp]
  00025	48		 dec	 eax
  00026	48		 dec	 eax
  00027	75 0a		 jne	 SHORT $LN3@ApplyExtra

; 758  : 	{
; 759  : 	case SNT_DIRCHANGE:
; 760  : 		{
; 761  : 			/*rkPacket >> m_bUp;
; 762  : 			rkPacket >> m_bDown;*/
; 763  : 		}
; 764  : 		break;
; 765  : 	case SNT_ATTACK:
; 766  : 		SetFireState( pChar );

  00029	ff 75 08	 push	 DWORD PTR _pChar$[ebp]
  0002c	8b ce		 mov	 ecx, esi
  0002e	e8 00 00 00 00	 call	 ?SetFireState@ioAngleFireSkill@@IAEXPAVioBaseChar@@@Z ; ioAngleFireSkill::SetFireState
$LN3@ApplyExtra:
  00033	5e		 pop	 esi

; 767  : 		break;
; 768  : 	}
; 769  : }

  00034	c9		 leave
  00035	c2 0c 00	 ret	 12			; 0000000cH
?ApplyExtraSkillInfo@ioAngleFireSkill@@UAEXPAVioBaseChar@@PAVioPlayStage@@AAVSP2Packet@@@Z ENDP ; ioAngleFireSkill::ApplyExtraSkillInfo
; Function compile flags: /Ogsp
_TEXT	ENDS
;	COMDAT ??_GioAngleFireSkill@@UAEPAXI@Z
_TEXT	SEGMENT
___flags$ = 8						; size = 4
??_GioAngleFireSkill@@UAEPAXI@Z PROC			; ioAngleFireSkill::`scalar deleting destructor', COMDAT
; _this$ = ecx
  00000	55		 push	 ebp
  00001	8b ec		 mov	 ebp, esp
  00003	56		 push	 esi
  00004	8b f1		 mov	 esi, ecx
  00006	e8 00 00 00 00	 call	 ??1ioAngleFireSkill@@UAE@XZ ; ioAngleFireSkill::~ioAngleFireSkill
  0000b	f6 45 08 01	 test	 BYTE PTR ___flags$[ebp], 1
  0000f	74 07		 je	 SHORT $LN1@scalar@5
  00011	56		 push	 esi
  00012	e8 00 00 00 00	 call	 ??3@YAXPAX@Z		; operator delete
  00017	59		 pop	 ecx
$LN1@scalar@5:
  00018	8b c6		 mov	 eax, esi
  0001a	5e		 pop	 esi
  0001b	5d		 pop	 ebp
  0001c	c2 04 00	 ret	 4
??_GioAngleFireSkill@@UAEPAXI@Z ENDP			; ioAngleFireSkill::`scalar deleting destructor'
_TEXT	ENDS
PUBLIC	??_C@_0CL@KLKHFBHF@ioAngleFireSkill?3?3CheckVDir?5?9?5Mo@ ; `string'
PUBLIC	__real@4066800000000000
PUBLIC	_pChar$GSCopy$
PUBLIC	?CheckVDir@ioAngleFireSkill@@IAEXPAVioBaseChar@@@Z ; ioAngleFireSkill::CheckVDir
EXTRN	__imp_?PrintTimeAndLog@CLog@@QAAXHPADZZ:PROC
EXTRN	__imp_?LOG@@3VCLog@@A:BYTE
EXTRN	__imp_?ForceWeight@ioAnimation@@QAEXM@Z:PROC
EXTRN	__imp_?GetLoopInPlay@ioEntityGroup@@QAEPAVioAnimation@@ABVioHashString@@@Z:PROC
EXTRN	_D3DXQuaternionRotationAxis@12:PROC
EXTRN	__imp_?GetCurFrameGap@ioFrameTimer@@QBEMXZ:PROC
EXTRN	__imp_?UNIT_Y@ioMath@@2UD3DXVECTOR3@@A:BYTE
;	COMDAT ??_C@_0CL@KLKHFBHF@ioAngleFireSkill?3?3CheckVDir?5?9?5Mo@
; File d:\lost saga for developer\youtube\tutorial\source\src\lsclient\stdafx.h
CONST	SEGMENT
??_C@_0CL@KLKHFBHF@ioAngleFireSkill?3?3CheckVDir?5?9?5Mo@ DB 'ioAngleFire'
	DB	'Skill::CheckVDir - Motion Error', 00H	; `string'
CONST	ENDS
;	COMDAT __real@4066800000000000
CONST	SEGMENT
__real@4066800000000000 DQ 04066800000000000r	; 180
CONST	ENDS
;	COMDAT xdata$x
xdata$x	SEGMENT
__unwindtable$?CheckVDir@ioAngleFireSkill@@IAEXPAVioBaseChar@@@Z DD 0ffffffffH
	DD	FLAT:__unwindfunclet$?CheckVDir@ioAngleFireSkill@@IAEXPAVioBaseChar@@@Z$1
__ehfuncinfo$?CheckVDir@ioAngleFireSkill@@IAEXPAVioBaseChar@@@Z DD 019930522H
	DD	01H
	DD	FLAT:__unwindtable$?CheckVDir@ioAngleFireSkill@@IAEXPAVioBaseChar@@@Z
	DD	2 DUP(00H)
	DD	2 DUP(00H)
	DD	00H
	DD	01H
; Function compile flags: /Ogsp
; File d:\lost saga for developer\youtube\tutorial\source\src\lsclient\ioanglefireskill.cpp
xdata$x	ENDS
;	COMDAT ?CheckVDir@ioAngleFireSkill@@IAEXPAVioBaseChar@@@Z
_TEXT	SEGMENT
_qtRot$530736 = -148					; size = 16
_qtRot$530754 = -132					; size = 16
_pChar$GSCopy$ = -116					; size = 4
_value$544382 = -112					; size = 4
_fRotateAngle$ = -112					; size = 4
_fRate$ = -112						; size = 4
_fFrameGap$ = -112					; size = 4
tv1182 = -108						; size = 4
tv1177 = -108						; size = 4
tv1170 = -108						; size = 4
tv1053 = -108						; size = 4
tv1044 = -108						; size = 4
tv1035 = -108						; size = 4
tv1014 = -108						; size = 4
tv1011 = -108						; size = 4
tv1002 = -108						; size = 4
tv999 = -108						; size = 4
tv990 = -108						; size = 4
$T544498 = -108						; size = 4
_pUp$ = -108						; size = 4
_fGapAngle$ = -108					; size = 4
_fAngle$ = -108						; size = 4
tv1166 = -104						; size = 4
tv1114 = -104						; size = 4
tv1107 = -104						; size = 4
$T544470 = -104						; size = 4
_value$544457 = -104					; size = 4
_value$544426 = -104					; size = 4
_value$544414 = -104					; size = 4
_pCenter$ = -104					; size = 4
_fGapFireAngle$ = -104					; size = 4
$T544377 = -104						; size = 4
$T530742 = -100						; size = 48
_v$544449 = -52						; size = 12
_vZDir$ = -52						; size = 12
$T530760 = -52						; size = 12
$T530753 = -52						; size = 12
$T530743 = -52						; size = 12
$T530762 = -40						; size = 12
_vYAxis$ = -40						; size = 12
_vVertAxis$ = -28					; size = 12
__$EHRec$ = -12						; size = 12
_pChar$ = 8						; size = 4
?CheckVDir@ioAngleFireSkill@@IAEXPAVioBaseChar@@@Z PROC	; ioAngleFireSkill::CheckVDir, COMDAT
; _this$ = ecx

; 235  : {

  00000	68 88 00 00 00	 push	 136			; 00000088H
  00005	b8 00 00 00 00	 mov	 eax, __ehhandler$?CheckVDir@ioAngleFireSkill@@IAEXPAVioBaseChar@@@Z
  0000a	e8 00 00 00 00	 call	 __EH_prolog3_GS
  0000f	8b 45 08	 mov	 eax, DWORD PTR _pChar$[ebp]

; 292  : 	}
; 293  : 	else
; 294  : 	{
; 295  : 		SetFireState( pChar );

  00012	89 45 8c	 mov	 DWORD PTR _pChar$GSCopy$[ebp], eax
  00015	8b d9		 mov	 ebx, ecx
  00017	8d 45 90	 lea	 eax, DWORD PTR _value$544382[ebp]
  0001a	8d 8b 20 12 00
	00		 lea	 ecx, DWORD PTR [ebx+4640]
  00020	50		 push	 eax
  00021	e8 00 00 00 00	 call	 ?DecryptValueToPool@?$CEncrypt@K@@QAEXPAK@Z ; CEncrypt<unsigned long>::DecryptValueToPool
  00026	83 7d 90 00	 cmp	 DWORD PTR _value$544382[ebp], 0
  0002a	0f 84 96 05 00
	00		 je	 $LN14@CheckVDir

; 236  : 	if( m_dwAngleRotateSpeed == 0 )
; 237  : 		return;
; 238  : 
; 239  : 	D3DXVECTOR3 vYAxis = ioMath::UNIT_Y;
; 240  : 	if( m_vAttackDir == vYAxis || m_vAttackDir == -vYAxis )

  00030	8b 35 00 00 00
	00		 mov	 esi, DWORD PTR __imp_?UNIT_Y@ioMath@@2UD3DXVECTOR3@@A
  00036	f3 0f 10 a3 98
	11 00 00	 movss	 xmm4, DWORD PTR [ebx+4504]
  0003e	8d 7d d8	 lea	 edi, DWORD PTR _vYAxis$[ebp]
  00041	a5		 movsd
  00042	a5		 movsd
  00043	a5		 movsd
  00044	f3 0f 10 4d d8	 movss	 xmm1, DWORD PTR _vYAxis$[ebp]
  00049	f3 0f 10 5d e0	 movss	 xmm3, DWORD PTR _vYAxis$[ebp+8]
  0004e	0f 57 c0	 xorps	 xmm0, xmm0
  00051	0f 5a d1	 cvtps2pd xmm2, xmm1
  00054	0f 5a c4	 cvtps2pd xmm0, xmm4
  00057	66 0f 2e c2	 ucomisd xmm0, xmm2
  0005b	f3 0f 10 55 dc	 movss	 xmm2, DWORD PTR _vYAxis$[ebp+4]
  00060	9f		 lahf
  00061	f6 c4 44	 test	 ah, 68			; 00000044H
  00064	7a 34		 jp	 SHORT $LN25@CheckVDir
  00066	f3 0f 10 83 9c
	11 00 00	 movss	 xmm0, DWORD PTR [ebx+4508]
  0006e	0f 5a c0	 cvtps2pd xmm0, xmm0
  00071	0f 5a ea	 cvtps2pd xmm5, xmm2
  00074	66 0f 2e c5	 ucomisd xmm0, xmm5
  00078	9f		 lahf
  00079	f6 c4 44	 test	 ah, 68			; 00000044H
  0007c	7a 1c		 jp	 SHORT $LN25@CheckVDir
  0007e	f3 0f 10 83 a0
	11 00 00	 movss	 xmm0, DWORD PTR [ebx+4512]
  00086	0f 5a c0	 cvtps2pd xmm0, xmm0
  00089	0f 5a eb	 cvtps2pd xmm5, xmm3
  0008c	66 0f 2e c5	 ucomisd xmm0, xmm5
  00090	9f		 lahf
  00091	f6 c4 44	 test	 ah, 68			; 00000044H
  00094	0f 8b 2c 05 00
	00		 jnp	 $LN14@CheckVDir
$LN25@CheckVDir:
  0009a	f3 0f 10 05 00
	00 00 00	 movss	 xmm0, DWORD PTR __mask@@NegFloat@
  000a2	0f 57 c8	 xorps	 xmm1, xmm0
  000a5	0f 57 d0	 xorps	 xmm2, xmm0
  000a8	0f 57 d8	 xorps	 xmm3, xmm0
  000ab	0f 57 c0	 xorps	 xmm0, xmm0
  000ae	0f 5a c4	 cvtps2pd xmm0, xmm4
  000b1	0f 5a c9	 cvtps2pd xmm1, xmm1
  000b4	66 0f 2e c1	 ucomisd xmm0, xmm1
  000b8	9f		 lahf
  000b9	f6 c4 44	 test	 ah, 68			; 00000044H
  000bc	7a 3a		 jp	 SHORT $LN33@CheckVDir
  000be	f3 0f 10 83 9c
	11 00 00	 movss	 xmm0, DWORD PTR [ebx+4508]
  000c6	0f 57 c9	 xorps	 xmm1, xmm1
  000c9	0f 5a c0	 cvtps2pd xmm0, xmm0
  000cc	0f 5a ca	 cvtps2pd xmm1, xmm2
  000cf	66 0f 2e c1	 ucomisd xmm0, xmm1
  000d3	9f		 lahf
  000d4	f6 c4 44	 test	 ah, 68			; 00000044H
  000d7	7a 1f		 jp	 SHORT $LN33@CheckVDir
  000d9	f3 0f 10 83 a0
	11 00 00	 movss	 xmm0, DWORD PTR [ebx+4512]
  000e1	0f 57 c9	 xorps	 xmm1, xmm1
  000e4	0f 5a c0	 cvtps2pd xmm0, xmm0
  000e7	0f 5a cb	 cvtps2pd xmm1, xmm3
  000ea	66 0f 2e c1	 ucomisd xmm0, xmm1
  000ee	9f		 lahf
  000ef	f6 c4 44	 test	 ah, 68			; 00000044H
  000f2	0f 8b ce 04 00
	00		 jnp	 $LN14@CheckVDir
$LN33@CheckVDir:

; 241  : 		return;
; 242  : 
; 243  : 	float fFrameGap = g_FrameTimer.GetCurFrameGap();

  000f8	ff 15 00 00 00
	00		 call	 DWORD PTR __imp_?GetSingleton@ioFrameTimer@@SAAAV1@XZ
  000fe	8b c8		 mov	 ecx, eax
  00100	ff 15 00 00 00
	00		 call	 DWORD PTR __imp_?GetCurFrameGap@ioFrameTimer@@QBEMXZ
  00106	d9 5d 90	 fstp	 DWORD PTR _fFrameGap$[ebp]

; 244  : 	float fRate = fFrameGap / m_dwAngleRotateSpeed;

  00109	8d 45 98	 lea	 eax, DWORD PTR _value$544414[ebp]
  0010c	50		 push	 eax
  0010d	8d 8b 20 12 00
	00		 lea	 ecx, DWORD PTR [ebx+4640]
  00113	e8 00 00 00 00	 call	 ?DecryptValueToPool@?$CEncrypt@K@@QAEXPAK@Z ; CEncrypt<unsigned long>::DecryptValueToPool
  00118	d9 45 90	 fld	 DWORD PTR _fFrameGap$[ebp]
  0011b	8b 45 98	 mov	 eax, DWORD PTR _value$544414[ebp]
  0011e	db 45 98	 fild	 DWORD PTR _value$544414[ebp]
  00121	85 c0		 test	 eax, eax
  00123	79 06		 jns	 SHORT $LN90@CheckVDir
  00125	d8 05 00 00 00
	00		 fadd	 DWORD PTR __real@4f800000
$LN90@CheckVDir:
  0012b	de f9		 fdivp	 ST(1), ST(0)
  0012d	d9 5d 90	 fstp	 DWORD PTR _fRate$[ebp]

; 245  : 	float fRotateAngle = FLOAT360 * fRate;

  00130	b8 68 01 00 00	 mov	 eax, 360		; 00000168H
  00135	89 45 94	 mov	 DWORD PTR tv1177[ebp], eax
  00138	db 45 94	 fild	 DWORD PTR tv1177[ebp]
  0013b	85 c0		 test	 eax, eax
  0013d	79 06		 jns	 SHORT $LN91@CheckVDir
  0013f	d8 05 00 00 00
	00		 fadd	 DWORD PTR __real@4f800000
$LN91@CheckVDir:
  00145	d8 4d 90	 fmul	 DWORD PTR _fRate$[ebp]
  00148	d9 5d 90	 fstp	 DWORD PTR _fRotateAngle$[ebp]

; 246  : 
; 247  : 	float fAngle = FLOAT90 - fabs( m_fLimitVAngleE );

  0014b	b8 5a 00 00 00	 mov	 eax, 90			; 0000005aH
  00150	8b f8		 mov	 edi, eax
  00152	8d 45 98	 lea	 eax, DWORD PTR _value$544426[ebp]
  00155	50		 push	 eax
  00156	8d 8b f0 11 00
	00		 lea	 ecx, DWORD PTR [ebx+4592]
  0015c	e8 00 00 00 00	 call	 ?DecryptValueToPool@?$CEncrypt@M@@QAEXPAM@Z ; CEncrypt<float>::DecryptValueToPool
  00161	89 7d 94	 mov	 DWORD PTR tv1170[ebp], edi
  00164	db 45 94	 fild	 DWORD PTR tv1170[ebp]
  00167	85 ff		 test	 edi, edi
  00169	79 06		 jns	 SHORT $LN92@CheckVDir
  0016b	d8 05 00 00 00
	00		 fadd	 DWORD PTR __real@4f800000
$LN92@CheckVDir:

; 248  : 	
; 249  : 	// 외적부분은 밖으로 빼서 한번 하도록 수정.
; 250  : 	D3DXVECTOR3 vVertAxis;
; 251  : 	D3DXVec3Cross( &vVertAxis, &m_vAttackDir, &vYAxis );
; 252  : 
; 253  : 	if( m_bStartAngle )

  00171	80 bb 38 11 00
	00 00		 cmp	 BYTE PTR [ebx+4408], 0
  00178	d9 45 98	 fld	 DWORD PTR _value$544426[ebp]
  0017b	f3 0f 10 83 9c
	11 00 00	 movss	 xmm0, DWORD PTR [ebx+4508]
  00183	d9 e1		 fabs
  00185	f3 0f 10 55 e0	 movss	 xmm2, DWORD PTR _vYAxis$[ebp+8]
  0018a	d9 5d 98	 fstp	 DWORD PTR tv1166[ebp]
  0018d	f3 0f 10 8b a0
	11 00 00	 movss	 xmm1, DWORD PTR [ebx+4512]
  00195	0f 5a d8	 cvtps2pd xmm3, xmm0
  00198	d8 65 98	 fsub	 DWORD PTR tv1166[ebp]
  0019b	0f 5a e1	 cvtps2pd xmm4, xmm1
  0019e	0f 5a d2	 cvtps2pd xmm2, xmm2
  001a1	f2 0f 59 d3	 mulsd	 xmm2, xmm3
  001a5	d9 5d 94	 fstp	 DWORD PTR _fAngle$[ebp]
  001a8	f3 0f 10 5d dc	 movss	 xmm3, DWORD PTR _vYAxis$[ebp+4]
  001ad	0f 5a c9	 cvtps2pd xmm1, xmm1
  001b0	0f 5a db	 cvtps2pd xmm3, xmm3
  001b3	f2 0f 59 dc	 mulsd	 xmm3, xmm4
  001b7	f2 0f 5c d3	 subsd	 xmm2, xmm3
  001bb	f3 0f 10 5d d8	 movss	 xmm3, DWORD PTR _vYAxis$[ebp]
  001c0	f2 0f 5a d2	 cvtsd2ss xmm2, xmm2
  001c4	f3 0f 11 55 cc	 movss	 DWORD PTR _v$544449[ebp], xmm2
  001c9	f3 0f 10 93 98
	11 00 00	 movss	 xmm2, DWORD PTR [ebx+4504]
  001d1	0f 5a db	 cvtps2pd xmm3, xmm3
  001d4	f2 0f 59 d9	 mulsd	 xmm3, xmm1
  001d8	f3 0f 10 4d e0	 movss	 xmm1, DWORD PTR _vYAxis$[ebp+8]
  001dd	0f 5a c9	 cvtps2pd xmm1, xmm1
  001e0	0f 5a e2	 cvtps2pd xmm4, xmm2
  001e3	f2 0f 59 cc	 mulsd	 xmm1, xmm4
  001e7	f2 0f 5c d9	 subsd	 xmm3, xmm1
  001eb	0f 57 c9	 xorps	 xmm1, xmm1
  001ee	f2 0f 5a cb	 cvtsd2ss xmm1, xmm3
  001f2	f3 0f 11 4d d0	 movss	 DWORD PTR _v$544449[ebp+4], xmm1
  001f7	f3 0f 10 4d dc	 movss	 xmm1, DWORD PTR _vYAxis$[ebp+4]
  001fc	0f 5a d2	 cvtps2pd xmm2, xmm2
  001ff	0f 5a c9	 cvtps2pd xmm1, xmm1
  00202	f2 0f 59 ca	 mulsd	 xmm1, xmm2
  00206	f3 0f 10 55 d8	 movss	 xmm2, DWORD PTR _vYAxis$[ebp]
  0020b	0f 5a c0	 cvtps2pd xmm0, xmm0
  0020e	0f 5a d2	 cvtps2pd xmm2, xmm2
  00211	f2 0f 59 d0	 mulsd	 xmm2, xmm0
  00215	f2 0f 5c ca	 subsd	 xmm1, xmm2
  00219	0f 57 c0	 xorps	 xmm0, xmm0
  0021c	f2 0f 5a c1	 cvtsd2ss xmm0, xmm1
  00220	f3 0f 11 45 d4	 movss	 DWORD PTR _v$544449[ebp+8], xmm0
  00225	8d 75 cc	 lea	 esi, DWORD PTR _v$544449[ebp]
  00228	8d 7d e4	 lea	 edi, DWORD PTR _vVertAxis$[ebp]
  0022b	a5		 movsd
  0022c	a5		 movsd
  0022d	a5		 movsd
  0022e	0f 84 9b 00 00
	00		 je	 $LN13@CheckVDir

; 254  : 	{
; 255  : 		// 시작 앵글은 가장 위로!
; 256  : 		D3DXVec3Normalize( &vVertAxis, &vVertAxis );

  00234	8d 45 e4	 lea	 eax, DWORD PTR _vVertAxis$[ebp]
  00237	50		 push	 eax
  00238	50		 push	 eax
  00239	e8 00 00 00 00	 call	 _D3DXVec3Normalize@8

; 257  : 		D3DXQUATERNION qtRot;
; 258  : 		D3DXQuaternionRotationAxis( &qtRot, &vVertAxis, DEGtoRAD( m_fLimitVAngleS ) );

  0023e	83 ec 30	 sub	 esp, 48			; 00000030H
  00241	8d 83 c0 11 00
	00		 lea	 eax, DWORD PTR [ebx+4544]
  00247	8b cc		 mov	 ecx, esp
  00249	89 65 98	 mov	 DWORD PTR $T544377[ebp], esp
  0024c	50		 push	 eax
  0024d	e8 00 00 00 00	 call	 ??0?$CEncrypt@M@@QAE@ABV0@@Z ; CEncrypt<float>::CEncrypt<float>
  00252	8d 45 9c	 lea	 eax, DWORD PTR $T530742[ebp]
  00255	50		 push	 eax
  00256	e8 00 00 00 00	 call	 ??$DEGtoRAD@V?$CEncrypt@M@@@@YA?AV?$CEncrypt@M@@V0@@Z ; DEGtoRAD<CEncrypt<float> >
  0025b	83 c4 34	 add	 esp, 52			; 00000034H
  0025e	83 65 fc 00	 and	 DWORD PTR __$EHRec$[ebp+8], 0
  00262	8d 4d 98	 lea	 ecx, DWORD PTR _value$544457[ebp]
  00265	51		 push	 ecx
  00266	8b c8		 mov	 ecx, eax
  00268	e8 00 00 00 00	 call	 ?DecryptValueToPool@?$CEncrypt@M@@QAEXPAM@Z ; CEncrypt<float>::DecryptValueToPool
  0026d	f3 0f 10 45 98	 movss	 xmm0, DWORD PTR _value$544457[ebp]
  00272	51		 push	 ecx
  00273	f3 0f 11 04 24	 movss	 DWORD PTR [esp], xmm0
  00278	8d 45 e4	 lea	 eax, DWORD PTR _vVertAxis$[ebp]
  0027b	50		 push	 eax
  0027c	8d 85 6c ff ff
	ff		 lea	 eax, DWORD PTR _qtRot$530736[ebp]
  00282	50		 push	 eax
  00283	e8 00 00 00 00	 call	 _D3DXQuaternionRotationAxis@12
  00288	83 4d fc ff	 or	 DWORD PTR __$EHRec$[ebp+8], -1
  0028c	8d 4d a8	 lea	 ecx, DWORD PTR $T530742[ebp+12]
  0028f	c7 45 9c 00 00
	00 00		 mov	 DWORD PTR $T530742[ebp], OFFSET ??_7?$CEncrypt@M@@6B@
  00296	e8 00 00 00 00	 call	 ??1ccddaabb@@UAE@XZ	; ccddaabb::~ccddaabb

; 259  : 		m_vAttackDir = qtRot * m_vAttackDir;

  0029b	8d bb 98 11 00
	00		 lea	 edi, DWORD PTR [ebx+4504]
  002a1	57		 push	 edi
  002a2	8d 85 6c ff ff
	ff		 lea	 eax, DWORD PTR _qtRot$530736[ebp]
  002a8	50		 push	 eax
  002a9	8d 45 cc	 lea	 eax, DWORD PTR $T530743[ebp]
  002ac	50		 push	 eax
  002ad	ff 15 00 00 00
	00		 call	 DWORD PTR __imp_??D@YA?AUD3DXVECTOR3@@ABUD3DXQUATERNION@@ABU0@@Z
  002b3	8b f0		 mov	 esi, eax
  002b5	a5		 movsd
  002b6	83 c4 0c	 add	 esp, 12			; 0000000cH

; 260  : 		
; 261  : 		D3DXVec3Normalize( &m_vAttackDir, &m_vAttackDir );

  002b9	8d 83 98 11 00
	00		 lea	 eax, DWORD PTR [ebx+4504]
  002bf	a5		 movsd
  002c0	50		 push	 eax
  002c1	50		 push	 eax
  002c2	a5		 movsd
  002c3	e8 00 00 00 00	 call	 _D3DXVec3Normalize@8

; 262  : 		
; 263  : 		m_bStartAngle = false;

  002c8	c6 83 38 11 00
	00 00		 mov	 BYTE PTR [ebx+4408], 0
$LN13@CheckVDir:

; 264  : 	}
; 265  : 
; 266  : 	float fDotVal = D3DXVec3Dot( &vYAxis, &m_vAttackDir );
; 267  : 	float fGapFireAngle = RADtoDEG( acosf( fDotVal ) );

  002cf	8d bb 98 11 00
	00		 lea	 edi, DWORD PTR [ebx+4504]
  002d5	d9 47 04	 fld	 DWORD PTR [edi+4]
  002d8	d8 4d dc	 fmul	 DWORD PTR _vYAxis$[ebp+4]
  002db	d9 07		 fld	 DWORD PTR [edi]
  002dd	d8 4d d8	 fmul	 DWORD PTR _vYAxis$[ebp]
  002e0	de c1		 faddp	 ST(1), ST(0)
  002e2	d9 45 e0	 fld	 DWORD PTR _vYAxis$[ebp+8]
  002e5	d8 4f 08	 fmul	 DWORD PTR [edi+8]
  002e8	de c1		 faddp	 ST(1), ST(0)
  002ea	d9 5d 98	 fstp	 DWORD PTR tv1114[ebp]
  002ed	d9 45 98	 fld	 DWORD PTR tv1114[ebp]
  002f0	e8 00 00 00 00	 call	 __CIacos
  002f5	d9 5d 98	 fstp	 DWORD PTR tv1107[ebp]
  002f8	d9 45 98	 fld	 DWORD PTR tv1107[ebp]
  002fb	51		 push	 ecx
  002fc	d9 5d 98	 fstp	 DWORD PTR $T544470[ebp]
  002ff	f3 0f 10 45 98	 movss	 xmm0, DWORD PTR $T544470[ebp]
  00304	f3 0f 11 04 24	 movss	 DWORD PTR [esp], xmm0
  00309	e8 00 00 00 00	 call	 ??$RADtoDEG@M@@YAMM@Z	; RADtoDEG<float>
  0030e	d9 5d 98	 fstp	 DWORD PTR _fGapFireAngle$[ebp]

; 268  : 
; 269  : 	bool bCheckLimit = false;
; 270  : 
; 271  : 	if( 180.0f - fAngle <= fGapFireAngle  )

  00311	d9 45 94	 fld	 DWORD PTR _fAngle$[ebp]
  00314	59		 pop	 ecx
  00315	dc 2d 00 00 00
	00		 fsubr	 QWORD PTR __real@4066800000000000
  0031b	d9 45 98	 fld	 DWORD PTR _fGapFireAngle$[ebp]
  0031e	df f1		 fcomip	 ST(1)
  00320	dd d8		 fstp	 ST(0)

; 272  : 		bCheckLimit = true;
; 273  : 
; 274  : 	if( !bCheckLimit )

  00322	0f 83 94 02 00
	00		 jae	 $LN11@CheckVDir

; 275  : 	{
; 276  : 		D3DXVec3Normalize( &vVertAxis, &-vVertAxis );

  00328	f3 0f 10 05 00
	00 00 00	 movss	 xmm0, DWORD PTR __mask@@NegFloat@
  00330	f3 0f 10 4d e4	 movss	 xmm1, DWORD PTR _vVertAxis$[ebp]
  00335	0f 57 c8	 xorps	 xmm1, xmm0
  00338	f3 0f 11 4d cc	 movss	 DWORD PTR $T530753[ebp], xmm1
  0033d	f3 0f 10 4d e8	 movss	 xmm1, DWORD PTR _vVertAxis$[ebp+4]
  00342	0f 57 c8	 xorps	 xmm1, xmm0
  00345	8d 45 cc	 lea	 eax, DWORD PTR $T530753[ebp]
  00348	50		 push	 eax
  00349	f3 0f 11 4d d0	 movss	 DWORD PTR $T530753[ebp+4], xmm1
  0034e	f3 0f 10 4d ec	 movss	 xmm1, DWORD PTR _vVertAxis$[ebp+8]
  00353	8d 45 e4	 lea	 eax, DWORD PTR _vVertAxis$[ebp]
  00356	0f 57 c8	 xorps	 xmm1, xmm0
  00359	50		 push	 eax
  0035a	f3 0f 11 4d d4	 movss	 DWORD PTR $T530753[ebp+8], xmm1
  0035f	e8 00 00 00 00	 call	 _D3DXVec3Normalize@8

; 277  : 
; 278  : 		D3DXQUATERNION qtRot;
; 279  : 
; 280  : 		if( fGapFireAngle < fRotateAngle )

  00364	f3 0f 10 45 98	 movss	 xmm0, DWORD PTR _fGapFireAngle$[ebp]
  00369	f3 0f 10 4d 90	 movss	 xmm1, DWORD PTR _fRotateAngle$[ebp]
  0036e	0f 5a c0	 cvtps2pd xmm0, xmm0
  00371	0f 5a c9	 cvtps2pd xmm1, xmm1
  00374	66 0f 2f c8	 comisd	 xmm1, xmm0

; 281  : 		{
; 282  : 			D3DXQuaternionRotationAxis( &qtRot, &vVertAxis, DEGtoRAD(fGapFireAngle) );

  00378	51		 push	 ecx
  00379	8d 45 e4	 lea	 eax, DWORD PTR _vVertAxis$[ebp]
  0037c	76 33		 jbe	 SHORT $LN10@CheckVDir
  0037e	f3 0f 10 45 98	 movss	 xmm0, DWORD PTR _fGapFireAngle$[ebp]
  00383	0f 5a c0	 cvtps2pd xmm0, xmm0
  00386	f2 0f 59 05 00
	00 00 00	 mulsd	 xmm0, QWORD PTR __real@3f91df46a2526c7a
  0038e	f2 0f 5a c0	 cvtsd2ss xmm0, xmm0
  00392	f3 0f 11 04 24	 movss	 DWORD PTR [esp], xmm0
  00397	50		 push	 eax
  00398	8d 85 7c ff ff
	ff		 lea	 eax, DWORD PTR _qtRot$530754[ebp]
  0039e	50		 push	 eax
  0039f	e8 00 00 00 00	 call	 _D3DXQuaternionRotationAxis@12

; 283  : 			m_vAttackDir = qtRot * m_vAttackDir;

  003a4	8d 85 7c ff ff
	ff		 lea	 eax, DWORD PTR _qtRot$530754[ebp]
  003aa	57		 push	 edi
  003ab	50		 push	 eax
  003ac	8d 45 cc	 lea	 eax, DWORD PTR $T530760[ebp]

; 284  : 		}
; 285  : 		else

  003af	eb 31		 jmp	 SHORT $LN97@CheckVDir
$LN10@CheckVDir:

; 286  : 		{
; 287  : 			D3DXQuaternionRotationAxis( &qtRot, &vVertAxis, DEGtoRAD(fRotateAngle) );

  003b1	f3 0f 10 45 90	 movss	 xmm0, DWORD PTR _fRotateAngle$[ebp]
  003b6	0f 5a c0	 cvtps2pd xmm0, xmm0
  003b9	f2 0f 59 05 00
	00 00 00	 mulsd	 xmm0, QWORD PTR __real@3f91df46a2526c7a
  003c1	f2 0f 5a c0	 cvtsd2ss xmm0, xmm0
  003c5	f3 0f 11 04 24	 movss	 DWORD PTR [esp], xmm0
  003ca	50		 push	 eax
  003cb	8d 85 7c ff ff
	ff		 lea	 eax, DWORD PTR _qtRot$530754[ebp]
  003d1	50		 push	 eax
  003d2	e8 00 00 00 00	 call	 _D3DXQuaternionRotationAxis@12

; 288  : 			m_vAttackDir = qtRot * m_vAttackDir;

  003d7	8d 85 7c ff ff
	ff		 lea	 eax, DWORD PTR _qtRot$530754[ebp]
  003dd	57		 push	 edi
  003de	50		 push	 eax
  003df	8d 45 d8	 lea	 eax, DWORD PTR $T530762[ebp]
$LN97@CheckVDir:
  003e2	50		 push	 eax
  003e3	ff 15 00 00 00
	00		 call	 DWORD PTR __imp_??D@YA?AUD3DXVECTOR3@@ABUD3DXQUATERNION@@ABU0@@Z
  003e9	8b f0		 mov	 esi, eax
  003eb	a5		 movsd
  003ec	a5		 movsd
  003ed	a5		 movsd
  003ee	83 c4 0c	 add	 esp, 12			; 0000000cH

; 289  : 		}
; 290  : 
; 291  : 		D3DXVec3Normalize( &m_vAttackDir, &m_vAttackDir );

  003f1	8d b3 98 11 00
	00		 lea	 esi, DWORD PTR [ebx+4504]
  003f7	56		 push	 esi
  003f8	56		 push	 esi
  003f9	e8 00 00 00 00	 call	 _D3DXVec3Normalize@8

; 296  : 		return;
; 297  : 	}
; 298  : 
; 299  : 	//------------------------------------------------------------------------
; 300  : 	// 모션 체크 부분.
; 301  : 	// CheckMotion
; 302  : 	D3DXVECTOR3 vZDir = m_vAttackDir;

  003fe	8d 7d cc	 lea	 edi, DWORD PTR _vZDir$[ebp]

; 303  : 	vZDir.y = 0.0f;
; 304  : 
; 305  : 	//D3DXVec3Normalize( &vZDir, &vZDir );
; 306  : 	float fDotValue = D3DXVec3Dot( &vZDir, &m_vAttackDir );
; 307  : 	float fGapAngle = RADtoDEG( acosf(fDotValue) );

  00401	d9 83 98 11 00
	00		 fld	 DWORD PTR [ebx+4504]
  00407	a5		 movsd
  00408	a5		 movsd
  00409	a5		 movsd
  0040a	d8 4d cc	 fmul	 DWORD PTR _vZDir$[ebp]
  0040d	d9 83 9c 11 00
	00		 fld	 DWORD PTR [ebx+4508]
  00413	dc 0d 00 00 00
	00		 fmul	 QWORD PTR __real@0000000000000000
  00419	de c1		 faddp	 ST(1), ST(0)
  0041b	d9 45 d4	 fld	 DWORD PTR _vZDir$[ebp+8]
  0041e	d8 8b a0 11 00
	00		 fmul	 DWORD PTR [ebx+4512]
  00424	de c1		 faddp	 ST(1), ST(0)
  00426	d9 5d 94	 fstp	 DWORD PTR tv1053[ebp]
  00429	d9 45 94	 fld	 DWORD PTR tv1053[ebp]
  0042c	e8 00 00 00 00	 call	 __CIacos
  00431	d9 5d 94	 fstp	 DWORD PTR tv1044[ebp]
  00434	d9 45 94	 fld	 DWORD PTR tv1044[ebp]
  00437	51		 push	 ecx
  00438	d9 5d 94	 fstp	 DWORD PTR $T544498[ebp]
  0043b	f3 0f 10 45 94	 movss	 xmm0, DWORD PTR $T544498[ebp]
  00440	f3 0f 11 04 24	 movss	 DWORD PTR [esp], xmm0
  00445	e8 00 00 00 00	 call	 ??$RADtoDEG@M@@YAMM@Z	; RADtoDEG<float>
  0044a	d9 5d 94	 fstp	 DWORD PTR _fGapAngle$[ebp]

; 308  : 
; 309  : 	m_fCurMotionRate = 0.0f;

  0044d	0f 57 c0	 xorps	 xmm0, xmm0
  00450	59		 pop	 ecx
  00451	f3 0f 11 83 8c
	11 00 00	 movss	 DWORD PTR [ebx+4492], xmm0

; 310  : 	m_fCurMotionRate = fGapAngle / FLOAT90;

  00459	b8 5a 00 00 00	 mov	 eax, 90			; 0000005aH
  0045e	d9 45 94	 fld	 DWORD PTR _fGapAngle$[ebp]
  00461	89 45 94	 mov	 DWORD PTR tv1035[ebp], eax
  00464	db 45 94	 fild	 DWORD PTR tv1035[ebp]
  00467	85 c0		 test	 eax, eax
  00469	79 06		 jns	 SHORT $LN93@CheckVDir
  0046b	d8 05 00 00 00
	00		 fadd	 DWORD PTR __real@4f800000
$LN93@CheckVDir:
  00471	de f9		 fdivp	 ST(1), ST(0)

; 311  : 
; 312  : 	ioEntityGroup	*pGrp = pChar->GetGroup();

  00473	8b 45 8c	 mov	 eax, DWORD PTR _pChar$GSCopy$[ebp]

; 313  : 	ioAnimation		*pUp, *pCenter, *pDown;
; 314  : 	pUp = pCenter = pDown = NULL;
; 315  : 
; 316  : 	pUp = pGrp->GetLoopInPlay( m_SkillUpLoopMotion );

  00476	8b 35 00 00 00
	00		 mov	 esi, DWORD PTR __imp_?GetLoopInPlay@ioEntityGroup@@QAEPAVioAnimation@@ABVioHashString@@@Z
  0047c	d9 9b 8c 11 00
	00		 fstp	 DWORD PTR [ebx+4492]
  00482	8b 78 04	 mov	 edi, DWORD PTR [eax+4]
  00485	8d 83 6c 11 00
	00		 lea	 eax, DWORD PTR [ebx+4460]
  0048b	50		 push	 eax
  0048c	8b cf		 mov	 ecx, edi
  0048e	ff d6		 call	 esi
  00490	89 45 94	 mov	 DWORD PTR _pUp$[ebp], eax

; 317  : 	pCenter = pGrp->GetLoopInPlay( m_SkillLoopMotion );

  00493	8d 83 5c 11 00
	00		 lea	 eax, DWORD PTR [ebx+4444]
  00499	50		 push	 eax
  0049a	8b cf		 mov	 ecx, edi
  0049c	ff d6		 call	 esi
  0049e	89 45 98	 mov	 DWORD PTR _pCenter$[ebp], eax

; 318  : 	pDown = pGrp->GetLoopInPlay( m_SkillDownLoopMotion );

  004a1	8d 83 7c 11 00
	00		 lea	 eax, DWORD PTR [ebx+4476]
  004a7	50		 push	 eax
  004a8	8b cf		 mov	 ecx, edi
  004aa	ff d6		 call	 esi

; 319  : 
; 320  : 	if( !pUp || !pCenter || !pDown )

  004ac	8b 4d 94	 mov	 ecx, DWORD PTR _pUp$[ebp]
  004af	8b f8		 mov	 edi, eax
  004b1	85 c9		 test	 ecx, ecx
  004b3	0f 84 eb 00 00
	00		 je	 $LN6@CheckVDir
  004b9	83 7d 98 00	 cmp	 DWORD PTR _pCenter$[ebp], 0
  004bd	0f 84 e1 00 00
	00		 je	 $LN6@CheckVDir
  004c3	85 ff		 test	 edi, edi
  004c5	0f 84 d9 00 00
	00		 je	 $LN6@CheckVDir

; 324  : 	}
; 325  : 
; 326  : 	if( m_vAttackDir.y == 0.0f || m_fCurMotionRate == 0.0f )		// center

  004cb	f3 0f 10 93 9c
	11 00 00	 movss	 xmm2, DWORD PTR [ebx+4508]
  004d3	0f 57 c0	 xorps	 xmm0, xmm0
  004d6	0f 2e d0	 ucomiss xmm2, xmm0
  004d9	9f		 lahf
  004da	f6 c4 44	 test	 ah, 68			; 00000044H
  004dd	0f 8b 9c 00 00
	00		 jnp	 $LN4@CheckVDir
  004e3	f3 0f 10 8b 8c
	11 00 00	 movss	 xmm1, DWORD PTR [ebx+4492]
  004eb	0f 2e c8	 ucomiss xmm1, xmm0
  004ee	9f		 lahf
  004ef	f6 c4 44	 test	 ah, 68			; 00000044H
  004f2	0f 8b 87 00 00
	00		 jnp	 $LN4@CheckVDir

; 331  : 	}
; 332  : 	else if( m_vAttackDir.y > 0.0f )	// center & up

  004f8	0f 2f d0	 comiss	 xmm2, xmm0

; 333  : 	{
; 334  : 		pUp->ForceWeight( m_fCurMotionRate );

  004fb	8b 35 00 00 00
	00		 mov	 esi, DWORD PTR __imp_?ForceWeight@ioAnimation@@QAEXM@Z
  00501	51		 push	 ecx
  00502	76 36		 jbe	 SHORT $LN2@CheckVDir
  00504	f3 0f 11 0c 24	 movss	 DWORD PTR [esp], xmm1
  00509	ff d6		 call	 esi

; 335  : 		pCenter->ForceWeight( FLOAT1 - m_fCurMotionRate );

  0050b	b8 01 00 00 00	 mov	 eax, 1
  00510	89 45 94	 mov	 DWORD PTR tv1014[ebp], eax
  00513	db 45 94	 fild	 DWORD PTR tv1014[ebp]
  00516	85 c0		 test	 eax, eax
  00518	79 06		 jns	 SHORT $LN94@CheckVDir
  0051a	d8 05 00 00 00
	00		 fadd	 DWORD PTR __real@4f800000
$LN94@CheckVDir:
  00520	d8 a3 8c 11 00
	00		 fsub	 DWORD PTR [ebx+4492]
  00526	d9 5d 94	 fstp	 DWORD PTR tv1011[ebp]
  00529	d9 45 94	 fld	 DWORD PTR tv1011[ebp]
$LN96@CheckVDir:
  0052c	51		 push	 ecx
  0052d	8b 4d 98	 mov	 ecx, DWORD PTR _pCenter$[ebp]
  00530	d9 1c 24	 fstp	 DWORD PTR [esp]
  00533	ff d6		 call	 esi

; 336  : 		pDown->ForceWeight( 0.0f );

  00535	0f 57 c0	 xorps	 xmm0, xmm0

; 337  : 	}
; 338  : 	else								// center & down

  00538	eb 39		 jmp	 SHORT $LN99@CheckVDir
$LN2@CheckVDir:

; 339  : 	{
; 340  : 		pUp->ForceWeight( 0.0f );

  0053a	f3 0f 11 04 24	 movss	 DWORD PTR [esp], xmm0
  0053f	ff d6		 call	 esi

; 341  : 		pCenter->ForceWeight( FLOAT1 - m_fCurMotionRate );

  00541	b8 01 00 00 00	 mov	 eax, 1
  00546	89 45 94	 mov	 DWORD PTR tv1002[ebp], eax
  00549	db 45 94	 fild	 DWORD PTR tv1002[ebp]
  0054c	85 c0		 test	 eax, eax
  0054e	79 06		 jns	 SHORT $LN95@CheckVDir
  00550	d8 05 00 00 00
	00		 fadd	 DWORD PTR __real@4f800000
$LN95@CheckVDir:
  00556	d8 a3 8c 11 00
	00		 fsub	 DWORD PTR [ebx+4492]
  0055c	51		 push	 ecx
  0055d	8b 4d 98	 mov	 ecx, DWORD PTR _pCenter$[ebp]
  00560	d9 5d 94	 fstp	 DWORD PTR tv999[ebp]
  00563	d9 45 94	 fld	 DWORD PTR tv999[ebp]
  00566	d9 1c 24	 fstp	 DWORD PTR [esp]
  00569	ff d6		 call	 esi

; 342  : 		pDown->ForceWeight( m_fCurMotionRate );

  0056b	f3 0f 10 83 8c
	11 00 00	 movss	 xmm0, DWORD PTR [ebx+4492]
$LN99@CheckVDir:
  00573	51		 push	 ecx
  00574	8b cf		 mov	 ecx, edi
  00576	f3 0f 11 04 24	 movss	 DWORD PTR [esp], xmm0
  0057b	ff d6		 call	 esi
  0057d	eb 47		 jmp	 SHORT $LN14@CheckVDir
$LN4@CheckVDir:

; 327  : 	{
; 328  : 		pUp->ForceWeight( 0.0f );

  0057f	8b 35 00 00 00
	00		 mov	 esi, DWORD PTR __imp_?ForceWeight@ioAnimation@@QAEXM@Z
  00585	51		 push	 ecx
  00586	f3 0f 11 04 24	 movss	 DWORD PTR [esp], xmm0
  0058b	ff d6		 call	 esi

; 329  : 		pCenter->ForceWeight( FLOAT1 );

  0058d	b8 01 00 00 00	 mov	 eax, 1
  00592	89 45 94	 mov	 DWORD PTR tv990[ebp], eax
  00595	db 45 94	 fild	 DWORD PTR tv990[ebp]
  00598	85 c0		 test	 eax, eax
  0059a	79 90		 jns	 SHORT $LN96@CheckVDir
  0059c	d8 05 00 00 00
	00		 fadd	 DWORD PTR __real@4f800000

; 330  : 		pDown->ForceWeight( 0.0f );

  005a2	eb 88		 jmp	 SHORT $LN96@CheckVDir
$LN6@CheckVDir:

; 321  : 	{
; 322  : 		LOG.PrintTimeAndLog( 0, "ioAngleFireSkill::CheckVDir - Motion Error" );

  005a4	68 00 00 00 00	 push	 OFFSET ??_C@_0CL@KLKHFBHF@ioAngleFireSkill?3?3CheckVDir?5?9?5Mo@
  005a9	6a 00		 push	 0
  005ab	ff 35 00 00 00
	00		 push	 DWORD PTR __imp_?LOG@@3VCLog@@A
  005b1	ff 15 00 00 00
	00		 call	 DWORD PTR __imp_?PrintTimeAndLog@CLog@@QAAXHPADZZ
  005b7	83 c4 0c	 add	 esp, 12			; 0000000cH

; 323  : 		return;

  005ba	eb 0a		 jmp	 SHORT $LN14@CheckVDir
$LN11@CheckVDir:

; 292  : 	}
; 293  : 	else
; 294  : 	{
; 295  : 		SetFireState( pChar );

  005bc	ff 75 8c	 push	 DWORD PTR _pChar$GSCopy$[ebp]
  005bf	8b cb		 mov	 ecx, ebx
  005c1	e8 00 00 00 00	 call	 ?SetFireState@ioAngleFireSkill@@IAEXPAVioBaseChar@@@Z ; ioAngleFireSkill::SetFireState
$LN14@CheckVDir:

; 343  : 	}
; 344  : }

  005c6	e8 00 00 00 00	 call	 __EH_epilog3_GS
  005cb	c2 04 00	 ret	 4
_TEXT	ENDS
;	COMDAT text$x
text$x	SEGMENT
__unwindfunclet$?CheckVDir@ioAngleFireSkill@@IAEXPAVioBaseChar@@@Z$1:
  00000	8d 4d 9c	 lea	 ecx, DWORD PTR $T530742[ebp]
  00003	e9 00 00 00 00	 jmp	 ??1?$CEncrypt@M@@UAE@XZ	; CEncrypt<float>::~CEncrypt<float>
__ehhandler$?CheckVDir@ioAngleFireSkill@@IAEXPAVioBaseChar@@@Z:
  00008	8b 54 24 08	 mov	 edx, DWORD PTR [esp+8]
  0000c	8d 42 0c	 lea	 eax, DWORD PTR [edx+12]
  0000f	8b 8a 68 ff ff
	ff		 mov	 ecx, DWORD PTR [edx-152]
  00015	33 c8		 xor	 ecx, eax
  00017	e8 00 00 00 00	 call	 @__security_check_cookie@4
  0001c	8b 4a fc	 mov	 ecx, DWORD PTR [edx-4]
  0001f	33 c8		 xor	 ecx, eax
  00021	e8 00 00 00 00	 call	 @__security_check_cookie@4
  00026	b8 00 00 00 00	 mov	 eax, OFFSET __ehfuncinfo$?CheckVDir@ioAngleFireSkill@@IAEXPAVioBaseChar@@@Z
  0002b	e9 00 00 00 00	 jmp	 ___CxxFrameHandler3
text$x	ENDS
?CheckVDir@ioAngleFireSkill@@IAEXPAVioBaseChar@@@Z ENDP	; ioAngleFireSkill::CheckVDir
EXTRN	?IsAttackKey@ioBaseChar@@QBE_NXZ:PROC		; ioBaseChar::IsAttackKey
; Function compile flags: /Ogsp
;	COMDAT ?OnProcessState@ioAngleFireSkill@@UAEXPAVioBaseChar@@PAVioPlayStage@@@Z
_TEXT	SEGMENT
_pChar$ = 8						; size = 4
_pStage$ = 12						; size = 4
?OnProcessState@ioAngleFireSkill@@UAEXPAVioBaseChar@@PAVioPlayStage@@@Z PROC ; ioAngleFireSkill::OnProcessState, COMDAT
; _this$ = ecx

; 188  : {

  00000	55		 push	 ebp
  00001	8b ec		 mov	 ebp, esp
  00003	53		 push	 ebx
  00004	56		 push	 esi
  00005	57		 push	 edi
  00006	8b f1		 mov	 esi, ecx

; 189  : 	DWORD dwCurTime = FRAMEGETTIME();

  00008	ff 15 00 00 00
	00		 call	 DWORD PTR __imp_?GetSingleton@ioFrameTimer@@SAAAV1@XZ
  0000e	8b c8		 mov	 ecx, eax
  00010	ff 15 00 00 00
	00		 call	 DWORD PTR __imp_?GetLoopSec@ioFrameTimer@@QBEKXZ
  00016	8b f8		 mov	 edi, eax

; 190  : 
; 191  : 	switch( m_SkillState )

  00018	8b 86 e4 10 00
	00		 mov	 eax, DWORD PTR [esi+4324]
  0001e	33 db		 xor	 ebx, ebx
  00020	2b c3		 sub	 eax, ebx
  00022	0f 84 9d 00 00
	00		 je	 $LN11@OnProcessS
  00028	48		 dec	 eax
  00029	74 50		 je	 SHORT $LN9@OnProcessS
  0002b	48		 dec	 eax
  0002c	0f 85 c0 00 00
	00		 jne	 $LN10@OnProcessS

; 221  : 	case SS_FIRE:
; 222  : 		if( m_dwFireStartTime > 0 && m_dwFireStartTime < dwCurTime )

  00032	8b 86 a4 11 00
	00		 mov	 eax, DWORD PTR [esi+4516]
  00038	3b c3		 cmp	 eax, ebx
  0003a	0f 86 b2 00 00
	00		 jbe	 $LN10@OnProcessS
  00040	3b c7		 cmp	 eax, edi
  00042	0f 83 aa 00 00
	00		 jae	 $LN10@OnProcessS

; 223  : 		{
; 224  : 			if( !m_HandMesh.IsEmpty() )

  00048	8d be f8 0e 00
	00		 lea	 edi, DWORD PTR [esi+3832]
  0004e	8b cf		 mov	 ecx, edi
  00050	ff 15 00 00 00
	00		 call	 DWORD PTR __imp_?IsEmpty@ioHashString@@QBE_NXZ
  00056	84 c0		 test	 al, al
  00058	75 13		 jne	 SHORT $LN1@OnProcessS

; 225  : 				pChar->RestoreSkillWeaponMesh( this, m_HandMesh, m_bVisibleEquipMesh );

  0005a	0f b6 86 09 0f
	00 00		 movzx	 eax, BYTE PTR [esi+3849]
  00061	8b 4d 08	 mov	 ecx, DWORD PTR _pChar$[ebp]
  00064	53		 push	 ebx
  00065	50		 push	 eax
  00066	57		 push	 edi
  00067	56		 push	 esi
  00068	e8 00 00 00 00	 call	 ?RestoreSkillWeaponMesh@ioBaseChar@@QAE_NPAVioSkill@@ABVioHashString@@_N2@Z ; ioBaseChar::RestoreSkillWeaponMesh
$LN1@OnProcessS:

; 226  : 
; 227  : 			m_bSetHandMesh = false;

  0006d	88 9e 0a 0f 00
	00		 mov	 BYTE PTR [esi+3850], bl

; 228  : 			m_dwFireStartTime = 0;

  00073	89 9e a4 11 00
	00		 mov	 DWORD PTR [esi+4516], ebx

; 229  : 		}
; 230  : 		break;

  00079	eb 77		 jmp	 SHORT $LN10@OnProcessS
$LN9@OnProcessS:

; 201  : 			}
; 202  : 		}
; 203  : 		break;
; 204  : 	case SS_LOOP:
; 205  : 		if( m_dwLoopStartTime+m_dwLoopDuration < dwCurTime )

  0007b	8b 86 94 11 00
	00		 mov	 eax, DWORD PTR [esi+4500]
  00081	03 86 90 11 00
	00		 add	 eax, DWORD PTR [esi+4496]
  00087	3b c7		 cmp	 eax, edi

; 206  : 		{
; 207  : 			if( pChar->IsNeedProcess() )

  00089	8b 7d 08	 mov	 edi, DWORD PTR _pChar$[ebp]
  0008c	8b 07		 mov	 eax, DWORD PTR [edi]
  0008e	8b cf		 mov	 ecx, edi
  00090	73 14		 jae	 SHORT $LN8@OnProcessS
  00092	ff 90 00 01 00
	00		 call	 DWORD PTR [eax+256]
  00098	84 c0		 test	 al, al
  0009a	74 56		 je	 SHORT $LN10@OnProcessS
$LN16@OnProcessS:

; 208  : 				SetFireState( pChar );

  0009c	57		 push	 edi
  0009d	8b ce		 mov	 ecx, esi
  0009f	e8 00 00 00 00	 call	 ?SetFireState@ioAngleFireSkill@@IAEXPAVioBaseChar@@@Z ; ioAngleFireSkill::SetFireState

; 209  : 			return;

  000a4	eb 4c		 jmp	 SHORT $LN10@OnProcessS
$LN8@OnProcessS:

; 210  : 		}
; 211  : 		else if( pChar->IsNeedProcess() && pChar->IsAttackKey() )

  000a6	ff 90 00 01 00
	00		 call	 DWORD PTR [eax+256]
  000ac	84 c0		 test	 al, al
  000ae	74 0b		 je	 SHORT $LN5@OnProcessS
  000b0	8b cf		 mov	 ecx, edi
  000b2	e8 00 00 00 00	 call	 ?IsAttackKey@ioBaseChar@@QBE_NXZ ; ioBaseChar::IsAttackKey
  000b7	84 c0		 test	 al, al

; 212  : 		{
; 213  : 			SetFireState( pChar );
; 214  : 			return;

  000b9	75 e1		 jne	 SHORT $LN16@OnProcessS
$LN5@OnProcessS:

; 215  : 		}
; 216  : 		else
; 217  : 		{
; 218  : 			CheckVDir( pChar );

  000bb	57		 push	 edi
  000bc	8b ce		 mov	 ecx, esi
  000be	e8 00 00 00 00	 call	 ?CheckVDir@ioAngleFireSkill@@IAEXPAVioBaseChar@@@Z ; ioAngleFireSkill::CheckVDir

; 219  : 		}
; 220  : 		break;

  000c3	eb 2d		 jmp	 SHORT $LN10@OnProcessS
$LN11@OnProcessS:

; 192  : 	{
; 193  : 	case SS_NONE:
; 194  : 		{
; 195  : 			DWORD dwPreDelay = GetPreDelayTime();

  000c5	8b 06		 mov	 eax, DWORD PTR [esi]
  000c7	8b ce		 mov	 ecx, esi
  000c9	ff 90 34 01 00
	00		 call	 DWORD PTR [eax+308]

; 196  : 			if( m_dwPreDelayStartTime != 0 && m_dwPreDelayStartTime + dwPreDelay < dwCurTime )

  000cf	8b 96 20 02 00
	00		 mov	 edx, DWORD PTR [esi+544]
  000d5	3b d3		 cmp	 edx, ebx
  000d7	74 19		 je	 SHORT $LN10@OnProcessS
  000d9	03 d0		 add	 edx, eax
  000db	3b d7		 cmp	 edx, edi
  000dd	73 13		 jae	 SHORT $LN10@OnProcessS

; 197  : 			{
; 198  : 				m_dwPreDelayStartTime = 0;
; 199  : 
; 200  : 				SetLoopState( pChar, pStage );

  000df	ff 75 0c	 push	 DWORD PTR _pStage$[ebp]
  000e2	8b ce		 mov	 ecx, esi
  000e4	ff 75 08	 push	 DWORD PTR _pChar$[ebp]
  000e7	89 9e 20 02 00
	00		 mov	 DWORD PTR [esi+544], ebx
  000ed	e8 00 00 00 00	 call	 ?SetLoopState@ioAngleFireSkill@@IAEXPAVioBaseChar@@PAVioPlayStage@@@Z ; ioAngleFireSkill::SetLoopState
$LN10@OnProcessS:
  000f2	5f		 pop	 edi
  000f3	5e		 pop	 esi
  000f4	5b		 pop	 ebx

; 231  : 	}
; 232  : }

  000f5	5d		 pop	 ebp
  000f6	c2 08 00	 ret	 8
?OnProcessState@ioAngleFireSkill@@UAEXPAVioBaseChar@@PAVioPlayStage@@@Z ENDP ; ioAngleFireSkill::OnProcessState
_TEXT	ENDS
END
