; Listing generated by Microsoft (R) Optimizing Compiler Version 16.00.30319.01 

	TITLE	D:\Lost Saga For Developer\Youtube\Tutorial\Source\src\LSClient\ioAnnounceManager.cpp
	.686P
	.XMM
	include listing.inc
	.model	flat

INCLUDELIB MSVCRT
INCLUDELIB OLDNAMES

PUBLIC	?ms_Singleton@?$Singleton@VioAnnounceManager@@@@1PAVioAnnounceManager@@A ; Singleton<ioAnnounceManager>::ms_Singleton
;	COMDAT ?ms_Singleton@?$Singleton@VioAnnounceManager@@@@1PAVioAnnounceManager@@A
_BSS	SEGMENT
?ms_Singleton@?$Singleton@VioAnnounceManager@@@@1PAVioAnnounceManager@@A DD 01H DUP (?) ; Singleton<ioAnnounceManager>::ms_Singleton
_BSS	ENDS
PUBLIC	??1ioINILoader_e@@QAE@XZ			; ioINILoader_e::~ioINILoader_e
EXTRN	__imp_??1ioINILoader@@QAE@XZ:PROC
; Function compile flags: /Ogsp
;	COMDAT ??1ioINILoader_e@@QAE@XZ
_TEXT	SEGMENT
??1ioINILoader_e@@QAE@XZ PROC				; ioINILoader_e::~ioINILoader_e, COMDAT
; _this$ = ecx
  00000	ff 25 00 00 00
	00		 jmp	 DWORD PTR __imp_??1ioINILoader@@QAE@XZ
??1ioINILoader_e@@QAE@XZ ENDP				; ioINILoader_e::~ioINILoader_e
_TEXT	ENDS
PUBLIC	?SetAnnounceInterval@ioAnnounceManager@@QAEXK@Z	; ioAnnounceManager::SetAnnounceInterval
; Function compile flags: /Ogsp
; File d:\lost saga for developer\youtube\tutorial\source\src\lsclient\ioannouncemanager.cpp
;	COMDAT ?SetAnnounceInterval@ioAnnounceManager@@QAEXK@Z
_TEXT	SEGMENT
_dwInterval$ = 8					; size = 4
?SetAnnounceInterval@ioAnnounceManager@@QAEXK@Z PROC	; ioAnnounceManager::SetAnnounceInterval, COMDAT
; _this$ = ecx

; 43   : {

  00000	55		 push	 ebp
  00001	8b ec		 mov	 ebp, esp

; 44   : 	m_dwAnnounceInterval = dwInterval;

  00003	8b 45 08	 mov	 eax, DWORD PTR _dwInterval$[ebp]
  00006	89 41 10	 mov	 DWORD PTR [ecx+16], eax

; 45   : }

  00009	5d		 pop	 ebp
  0000a	c2 04 00	 ret	 4
?SetAnnounceInterval@ioAnnounceManager@@QAEXK@Z ENDP	; ioAnnounceManager::SetAnnounceInterval
_TEXT	ENDS
PUBLIC	??RAnnounceGreater@ioAnnounceManager@@QBE_NPBVioAnnounce@@0@Z ; ioAnnounceManager::AnnounceGreater::operator()
EXTRN	?GetStartTime@ioAnnounce@@QBEKXZ:PROC		; ioAnnounce::GetStartTime
; Function compile flags: /Ogsp
;	COMDAT ??RAnnounceGreater@ioAnnounceManager@@QBE_NPBVioAnnounce@@0@Z
_TEXT	SEGMENT
_a$ = 8							; size = 4
_b$ = 12						; size = 4
??RAnnounceGreater@ioAnnounceManager@@QBE_NPBVioAnnounce@@0@Z PROC ; ioAnnounceManager::AnnounceGreater::operator(), COMDAT
; _this$ = ecx

; 116  : {

  00000	55		 push	 ebp
  00001	8b ec		 mov	 ebp, esp
  00003	53		 push	 ebx
  00004	56		 push	 esi

; 117  : 	int iLevelA = a->GetLevel();

  00005	8b 75 08	 mov	 esi, DWORD PTR _a$[ebp]
  00008	8b 06		 mov	 eax, DWORD PTR [esi]
  0000a	57		 push	 edi
  0000b	8b ce		 mov	 ecx, esi
  0000d	ff 50 04	 call	 DWORD PTR [eax+4]

; 118  : 	int iLevelB = b->GetLevel();

  00010	8b 7d 0c	 mov	 edi, DWORD PTR _b$[ebp]
  00013	8b d8		 mov	 ebx, eax
  00015	8b 07		 mov	 eax, DWORD PTR [edi]
  00017	8b cf		 mov	 ecx, edi
  00019	ff 50 04	 call	 DWORD PTR [eax+4]

; 119  : 
; 120  : 	if( iLevelA > iLevelB )

  0001c	3b d8		 cmp	 ebx, eax
  0001e	7e 04		 jle	 SHORT $LN6@operator

; 121  : 		return true;

  00020	b0 01		 mov	 al, 1
  00022	eb 1c		 jmp	 SHORT $LN4@operator
$LN6@operator:

; 122  : 	else if( iLevelA == iLevelB )

  00024	75 18		 jne	 SHORT $LN1@operator

; 123  : 	{
; 124  : 		return ( a->GetStartTime() > b->GetStartTime() );

  00026	8b ce		 mov	 ecx, esi
  00028	e8 00 00 00 00	 call	 ?GetStartTime@ioAnnounce@@QBEKXZ ; ioAnnounce::GetStartTime
  0002d	8b cf		 mov	 ecx, edi
  0002f	8b f0		 mov	 esi, eax
  00031	e8 00 00 00 00	 call	 ?GetStartTime@ioAnnounce@@QBEKXZ ; ioAnnounce::GetStartTime
  00036	3b c6		 cmp	 eax, esi
  00038	1b c0		 sbb	 eax, eax
  0003a	f7 d8		 neg	 eax
  0003c	eb 02		 jmp	 SHORT $LN4@operator
$LN1@operator:

; 125  : 	}
; 126  : 
; 127  : 	return false;

  0003e	32 c0		 xor	 al, al
$LN4@operator:
  00040	5f		 pop	 edi
  00041	5e		 pop	 esi
  00042	5b		 pop	 ebx

; 128  : }

  00043	5d		 pop	 ebp
  00044	c2 08 00	 ret	 8
??RAnnounceGreater@ioAnnounceManager@@QBE_NPBVioAnnounce@@0@Z ENDP ; ioAnnounceManager::AnnounceGreater::operator()
_TEXT	ENDS
PUBLIC	?empty@?$vector@VioHashString@@V?$allocator@VioHashString@@@std@@@std@@QBE_NXZ ; std::vector<ioHashString,std::allocator<ioHashString> >::empty
; Function compile flags: /Ogsp
; File c:\program files (x86)\microsoft visual studio 10.0\vc\include\vector
;	COMDAT ?empty@?$vector@VioHashString@@V?$allocator@VioHashString@@@std@@@std@@QBE_NXZ
_TEXT	SEGMENT
?empty@?$vector@VioHashString@@V?$allocator@VioHashString@@@std@@@std@@QBE_NXZ PROC ; std::vector<ioHashString,std::allocator<ioHashString> >::empty, COMDAT
; _this$ = ecx

; 889  : 		return (this->_Myfirst == this->_Mylast);

  00000	8b 01		 mov	 eax, DWORD PTR [ecx]
  00002	2b 41 04	 sub	 eax, DWORD PTR [ecx+4]
  00005	f7 d8		 neg	 eax
  00007	1b c0		 sbb	 eax, eax
  00009	40		 inc	 eax

; 890  : 		}

  0000a	c3		 ret	 0
?empty@?$vector@VioHashString@@V?$allocator@VioHashString@@@std@@@std@@QBE_NXZ ENDP ; std::vector<ioHashString,std::allocator<ioHashString> >::empty
_TEXT	ENDS
PUBLIC	??A?$vector@VioHashString@@V?$allocator@VioHashString@@@std@@@std@@QBEABVioHashString@@I@Z ; std::vector<ioHashString,std::allocator<ioHashString> >::operator[]
; Function compile flags: /Ogsp
;	COMDAT ??A?$vector@VioHashString@@V?$allocator@VioHashString@@@std@@@std@@QBEABVioHashString@@I@Z
_TEXT	SEGMENT
__Pos$ = 8						; size = 4
??A?$vector@VioHashString@@V?$allocator@VioHashString@@@std@@@std@@QBEABVioHashString@@I@Z PROC ; std::vector<ioHashString,std::allocator<ioHashString> >::operator[], COMDAT
; _this$ = ecx

; 912  : 		{	// subscript nonmutable sequence

  00000	55		 push	 ebp
  00001	8b ec		 mov	 ebp, esp

; 913  :  #if _ITERATOR_DEBUG_LEVEL == 2
; 914  : 		if (size() <= _Pos)
; 915  : 			{	// report error
; 916  : 			_DEBUG_ERROR("vector subscript out of range");
; 917  : 			_SCL_SECURE_OUT_OF_RANGE;
; 918  : 			}
; 919  : 
; 920  :  #elif _ITERATOR_DEBUG_LEVEL == 1
; 921  : 		_SCL_SECURE_VALIDATE_RANGE(_Pos < size());
; 922  :  #endif /* _ITERATOR_DEBUG_LEVEL */
; 923  : 
; 924  : 		return (*(this->_Myfirst + _Pos));

  00003	8b 45 08	 mov	 eax, DWORD PTR __Pos$[ebp]
  00006	c1 e0 04	 shl	 eax, 4
  00009	03 01		 add	 eax, DWORD PTR [ecx]

; 925  : 		}

  0000b	5d		 pop	 ebp
  0000c	c2 04 00	 ret	 4
??A?$vector@VioHashString@@V?$allocator@VioHashString@@@std@@@std@@QBEABVioHashString@@I@Z ENDP ; std::vector<ioHashString,std::allocator<ioHashString> >::operator[]
_TEXT	ENDS
PUBLIC	??0?$Singleton@VioAnnounceManager@@@@QAE@XZ	; Singleton<ioAnnounceManager>::Singleton<ioAnnounceManager>
; Function compile flags: /Ogsp
; File d:\lost saga for developer\youtube\tutorial\source\src\io3dengine\iosingleton.h
;	COMDAT ??0?$Singleton@VioAnnounceManager@@@@QAE@XZ
_TEXT	SEGMENT
??0?$Singleton@VioAnnounceManager@@@@QAE@XZ PROC	; Singleton<ioAnnounceManager>::Singleton<ioAnnounceManager>, COMDAT
; _this$ = ecx

; 27   : 	Singleton()

  00000	8b c1		 mov	 eax, ecx

; 28   : 	{
; 29   : 		assert( !ms_Singleton );
; 30   : 		int offset = (int)(T*)1 - (int)(Singleton <T>*)(T*)1;
; 31   : 		ms_Singleton = (T*)((int)this + offset);

  00002	8d 48 fc	 lea	 ecx, DWORD PTR [eax-4]
  00005	89 0d 00 00 00
	00		 mov	 DWORD PTR ?ms_Singleton@?$Singleton@VioAnnounceManager@@@@1PAVioAnnounceManager@@A, ecx ; Singleton<ioAnnounceManager>::ms_Singleton

; 32   : 	}

  0000b	c3		 ret	 0
??0?$Singleton@VioAnnounceManager@@@@QAE@XZ ENDP	; Singleton<ioAnnounceManager>::Singleton<ioAnnounceManager>
_TEXT	ENDS
PUBLIC	??1?$Singleton@VioAnnounceManager@@@@QAE@XZ	; Singleton<ioAnnounceManager>::~Singleton<ioAnnounceManager>
; Function compile flags: /Ogsp
;	COMDAT ??1?$Singleton@VioAnnounceManager@@@@QAE@XZ
_TEXT	SEGMENT
??1?$Singleton@VioAnnounceManager@@@@QAE@XZ PROC	; Singleton<ioAnnounceManager>::~Singleton<ioAnnounceManager>, COMDAT
; _this$ = ecx

; 36   : 		assert( ms_Singleton );
; 37   : 		ms_Singleton = 0;

  00000	83 25 00 00 00
	00 00		 and	 DWORD PTR ?ms_Singleton@?$Singleton@VioAnnounceManager@@@@1PAVioAnnounceManager@@A, 0 ; Singleton<ioAnnounceManager>::ms_Singleton

; 38   : 	}

  00007	c3		 ret	 0
??1?$Singleton@VioAnnounceManager@@@@QAE@XZ ENDP	; Singleton<ioAnnounceManager>::~Singleton<ioAnnounceManager>
_TEXT	ENDS
PUBLIC	?GetSingleton@?$Singleton@VioAnnounceManager@@@@SAAAVioAnnounceManager@@XZ ; Singleton<ioAnnounceManager>::GetSingleton
; Function compile flags: /Ogsp
;	COMDAT ?GetSingleton@?$Singleton@VioAnnounceManager@@@@SAAAVioAnnounceManager@@XZ
_TEXT	SEGMENT
?GetSingleton@?$Singleton@VioAnnounceManager@@@@SAAAVioAnnounceManager@@XZ PROC ; Singleton<ioAnnounceManager>::GetSingleton, COMDAT

; 42   : 		assert( ms_Singleton );
; 43   : 		return (*ms_Singleton);

  00000	a1 00 00 00 00	 mov	 eax, DWORD PTR ?ms_Singleton@?$Singleton@VioAnnounceManager@@@@1PAVioAnnounceManager@@A ; Singleton<ioAnnounceManager>::ms_Singleton

; 44   : 	}

  00005	c3		 ret	 0
?GetSingleton@?$Singleton@VioAnnounceManager@@@@SAAAVioAnnounceManager@@XZ ENDP ; Singleton<ioAnnounceManager>::GetSingleton
_TEXT	ENDS
PUBLIC	?empty@?$list@PAVioAnnounce@@V?$allocator@PAVioAnnounce@@@std@@@std@@QBE_NXZ ; std::list<ioAnnounce *,std::allocator<ioAnnounce *> >::empty
; Function compile flags: /Ogsp
; File c:\program files (x86)\microsoft visual studio 10.0\vc\include\list
;	COMDAT ?empty@?$list@PAVioAnnounce@@V?$allocator@PAVioAnnounce@@@std@@@std@@QBE_NXZ
_TEXT	SEGMENT
?empty@?$list@PAVioAnnounce@@V?$allocator@PAVioAnnounce@@@std@@@std@@QBE_NXZ PROC ; std::list<ioAnnounce *,std::allocator<ioAnnounce *> >::empty, COMDAT
; _this$ = ecx

; 887  : 		return (this->_Mysize == 0);

  00000	33 c0		 xor	 eax, eax
  00002	39 41 04	 cmp	 DWORD PTR [ecx+4], eax
  00005	0f 94 c0	 sete	 al

; 888  : 		}

  00008	c3		 ret	 0
?empty@?$list@PAVioAnnounce@@V?$allocator@PAVioAnnounce@@@std@@@std@@QBE_NXZ ENDP ; std::list<ioAnnounce *,std::allocator<ioAnnounce *> >::empty
_TEXT	ENDS
PUBLIC	?_Nextnode@?$_List_val@PAVioAnnounce@@V?$allocator@PAVioAnnounce@@@std@@@std@@SAAAPAU_Node@?$_List_nod@PAVioAnnounce@@V?$allocator@PAVioAnnounce@@@std@@@2@PAU342@@Z ; std::_List_val<ioAnnounce *,std::allocator<ioAnnounce *> >::_Nextnode
; Function compile flags: /Ogsp
;	COMDAT ?_Nextnode@?$_List_val@PAVioAnnounce@@V?$allocator@PAVioAnnounce@@@std@@@std@@SAAAPAU_Node@?$_List_nod@PAVioAnnounce@@V?$allocator@PAVioAnnounce@@@std@@@2@PAU342@@Z
_TEXT	SEGMENT
__Pnode$ = 8						; size = 4
?_Nextnode@?$_List_val@PAVioAnnounce@@V?$allocator@PAVioAnnounce@@@std@@@std@@SAAAPAU_Node@?$_List_nod@PAVioAnnounce@@V?$allocator@PAVioAnnounce@@@std@@@2@PAU342@@Z PROC ; std::_List_val<ioAnnounce *,std::allocator<ioAnnounce *> >::_Nextnode, COMDAT

; 560  : 		{	// return reference to successor pointer in node

  00000	55		 push	 ebp
  00001	8b ec		 mov	 ebp, esp

; 561  : 		return ((_Nodepref)(*_Pnode)._Next);

  00003	8b 45 08	 mov	 eax, DWORD PTR __Pnode$[ebp]

; 562  : 		}

  00006	5d		 pop	 ebp
  00007	c3		 ret	 0
?_Nextnode@?$_List_val@PAVioAnnounce@@V?$allocator@PAVioAnnounce@@@std@@@std@@SAAAPAU_Node@?$_List_nod@PAVioAnnounce@@V?$allocator@PAVioAnnounce@@@std@@@2@PAU342@@Z ENDP ; std::_List_val<ioAnnounce *,std::allocator<ioAnnounce *> >::_Nextnode
_TEXT	ENDS
PUBLIC	?_Prevnode@?$_List_val@PAVioAnnounce@@V?$allocator@PAVioAnnounce@@@std@@@std@@SAAAPAU_Node@?$_List_nod@PAVioAnnounce@@V?$allocator@PAVioAnnounce@@@std@@@2@PAU342@@Z ; std::_List_val<ioAnnounce *,std::allocator<ioAnnounce *> >::_Prevnode
; Function compile flags: /Ogsp
;	COMDAT ?_Prevnode@?$_List_val@PAVioAnnounce@@V?$allocator@PAVioAnnounce@@@std@@@std@@SAAAPAU_Node@?$_List_nod@PAVioAnnounce@@V?$allocator@PAVioAnnounce@@@std@@@2@PAU342@@Z
_TEXT	SEGMENT
__Pnode$ = 8						; size = 4
?_Prevnode@?$_List_val@PAVioAnnounce@@V?$allocator@PAVioAnnounce@@@std@@@std@@SAAAPAU_Node@?$_List_nod@PAVioAnnounce@@V?$allocator@PAVioAnnounce@@@std@@@2@PAU342@@Z PROC ; std::_List_val<ioAnnounce *,std::allocator<ioAnnounce *> >::_Prevnode, COMDAT

; 565  : 		{	// return reference to predecessor pointer in node

  00000	55		 push	 ebp
  00001	8b ec		 mov	 ebp, esp

; 566  : 		return ((_Nodepref)(*_Pnode)._Prev);

  00003	8b 45 08	 mov	 eax, DWORD PTR __Pnode$[ebp]
  00006	83 c0 04	 add	 eax, 4

; 567  : 		}

  00009	5d		 pop	 ebp
  0000a	c3		 ret	 0
?_Prevnode@?$_List_val@PAVioAnnounce@@V?$allocator@PAVioAnnounce@@@std@@@std@@SAAAPAU_Node@?$_List_nod@PAVioAnnounce@@V?$allocator@PAVioAnnounce@@@std@@@2@PAU342@@Z ENDP ; std::_List_val<ioAnnounce *,std::allocator<ioAnnounce *> >::_Prevnode
_TEXT	ENDS
PUBLIC	??0?$allocator@PAVioAnnounce@@@std@@QAE@XZ	; std::allocator<ioAnnounce *>::allocator<ioAnnounce *>
; Function compile flags: /Ogsp
; File c:\program files (x86)\microsoft visual studio 10.0\vc\include\xmemory
;	COMDAT ??0?$allocator@PAVioAnnounce@@@std@@QAE@XZ
_TEXT	SEGMENT
??0?$allocator@PAVioAnnounce@@@std@@QAE@XZ PROC		; std::allocator<ioAnnounce *>::allocator<ioAnnounce *>, COMDAT
; _this$ = ecx

; 161  : 	_ALLOCATOR() _THROW0()

  00000	8b c1		 mov	 eax, ecx

; 162  : 		{	// construct default allocator (do nothing)
; 163  : 		}

  00002	c3		 ret	 0
??0?$allocator@PAVioAnnounce@@@std@@QAE@XZ ENDP		; std::allocator<ioAnnounce *>::allocator<ioAnnounce *>
_TEXT	ENDS
PUBLIC	?deallocate@?$allocator@U_Node@?$_List_nod@PAVioAnnounce@@V?$allocator@PAVioAnnounce@@@std@@@std@@@std@@QAEXPAU_Node@?$_List_nod@PAVioAnnounce@@V?$allocator@PAVioAnnounce@@@std@@@2@I@Z ; std::allocator<std::_List_nod<ioAnnounce *,std::allocator<ioAnnounce *> >::_Node>::deallocate
EXTRN	??3@YAXPAX@Z:PROC				; operator delete
; Function compile flags: /Ogsp
;	COMDAT ?deallocate@?$allocator@U_Node@?$_List_nod@PAVioAnnounce@@V?$allocator@PAVioAnnounce@@@std@@@std@@@std@@QAEXPAU_Node@?$_List_nod@PAVioAnnounce@@V?$allocator@PAVioAnnounce@@@std@@@2@I@Z
_TEXT	SEGMENT
__Ptr$ = 8						; size = 4
___formal$ = 12						; size = 4
?deallocate@?$allocator@U_Node@?$_List_nod@PAVioAnnounce@@V?$allocator@PAVioAnnounce@@@std@@@std@@@std@@QAEXPAU_Node@?$_List_nod@PAVioAnnounce@@V?$allocator@PAVioAnnounce@@@std@@@2@I@Z PROC ; std::allocator<std::_List_nod<ioAnnounce *,std::allocator<ioAnnounce *> >::_Node>::deallocate, COMDAT
; _this$ = ecx

; 181  : 		{	// deallocate object at _Ptr, ignore size

  00000	55		 push	 ebp
  00001	8b ec		 mov	 ebp, esp

; 182  : 		::operator delete(_Ptr);

  00003	ff 75 08	 push	 DWORD PTR __Ptr$[ebp]
  00006	e8 00 00 00 00	 call	 ??3@YAXPAX@Z		; operator delete
  0000b	59		 pop	 ecx

; 183  : 		}

  0000c	5d		 pop	 ebp
  0000d	c2 08 00	 ret	 8
?deallocate@?$allocator@U_Node@?$_List_nod@PAVioAnnounce@@V?$allocator@PAVioAnnounce@@@std@@@std@@@std@@QAEXPAU_Node@?$_List_nod@PAVioAnnounce@@V?$allocator@PAVioAnnounce@@@std@@@2@I@Z ENDP ; std::allocator<std::_List_nod<ioAnnounce *,std::allocator<ioAnnounce *> >::_Node>::deallocate
_TEXT	ENDS
PUBLIC	??_7bad_alloc@std@@6B@				; std::bad_alloc::`vftable'
PUBLIC	??0bad_alloc@std@@QAE@PBD@Z			; std::bad_alloc::bad_alloc
PUBLIC	??_R4bad_alloc@std@@6B@				; std::bad_alloc::`RTTI Complete Object Locator'
PUBLIC	??_R0?AVbad_alloc@std@@@8			; std::bad_alloc `RTTI Type Descriptor'
PUBLIC	??_R3bad_alloc@std@@8				; std::bad_alloc::`RTTI Class Hierarchy Descriptor'
PUBLIC	??_R2bad_alloc@std@@8				; std::bad_alloc::`RTTI Base Class Array'
PUBLIC	??_R1A@?0A@EA@bad_alloc@std@@8			; std::bad_alloc::`RTTI Base Class Descriptor at (0,-1,0,64)'
PUBLIC	??_R1A@?0A@EA@exception@std@@8			; std::exception::`RTTI Base Class Descriptor at (0,-1,0,64)'
PUBLIC	??_R0?AVexception@std@@@8			; std::exception `RTTI Type Descriptor'
PUBLIC	??_R3exception@std@@8				; std::exception::`RTTI Class Hierarchy Descriptor'
PUBLIC	??_R2exception@std@@8				; std::exception::`RTTI Base Class Array'
EXTRN	__imp_??0exception@std@@QAE@ABQBD@Z:PROC
EXTRN	??_7type_info@@6B@:QWORD			; type_info::`vftable'
EXTRN	??_Ebad_alloc@std@@UAEPAXI@Z:PROC		; std::bad_alloc::`vector deleting destructor'
EXTRN	?what@exception@std@@UBEPBDXZ:PROC		; std::exception::what
;	COMDAT ??_R2exception@std@@8
; File c:\program files (x86)\microsoft visual studio 10.0\vc\include\exception
rdata$r	SEGMENT
??_R2exception@std@@8 DD FLAT:??_R1A@?0A@EA@exception@std@@8 ; std::exception::`RTTI Base Class Array'
rdata$r	ENDS
;	COMDAT ??_R3exception@std@@8
rdata$r	SEGMENT
??_R3exception@std@@8 DD 00H				; std::exception::`RTTI Class Hierarchy Descriptor'
	DD	00H
	DD	01H
	DD	FLAT:??_R2exception@std@@8
rdata$r	ENDS
;	COMDAT ??_R0?AVexception@std@@@8
_DATA	SEGMENT
??_R0?AVexception@std@@@8 DD FLAT:??_7type_info@@6B@	; std::exception `RTTI Type Descriptor'
	DD	00H
	DB	'.?AVexception@std@@', 00H
_DATA	ENDS
;	COMDAT ??_R1A@?0A@EA@exception@std@@8
rdata$r	SEGMENT
??_R1A@?0A@EA@exception@std@@8 DD FLAT:??_R0?AVexception@std@@@8 ; std::exception::`RTTI Base Class Descriptor at (0,-1,0,64)'
	DD	00H
	DD	00H
	DD	0ffffffffH
	DD	00H
	DD	040H
	DD	FLAT:??_R3exception@std@@8
rdata$r	ENDS
;	COMDAT ??_R1A@?0A@EA@bad_alloc@std@@8
rdata$r	SEGMENT
??_R1A@?0A@EA@bad_alloc@std@@8 DD FLAT:??_R0?AVbad_alloc@std@@@8 ; std::bad_alloc::`RTTI Base Class Descriptor at (0,-1,0,64)'
	DD	01H
	DD	00H
	DD	0ffffffffH
	DD	00H
	DD	040H
	DD	FLAT:??_R3bad_alloc@std@@8
rdata$r	ENDS
;	COMDAT ??_R2bad_alloc@std@@8
rdata$r	SEGMENT
??_R2bad_alloc@std@@8 DD FLAT:??_R1A@?0A@EA@bad_alloc@std@@8 ; std::bad_alloc::`RTTI Base Class Array'
	DD	FLAT:??_R1A@?0A@EA@exception@std@@8
rdata$r	ENDS
;	COMDAT ??_R3bad_alloc@std@@8
rdata$r	SEGMENT
??_R3bad_alloc@std@@8 DD 00H				; std::bad_alloc::`RTTI Class Hierarchy Descriptor'
	DD	00H
	DD	02H
	DD	FLAT:??_R2bad_alloc@std@@8
rdata$r	ENDS
;	COMDAT ??_R0?AVbad_alloc@std@@@8
_DATA	SEGMENT
??_R0?AVbad_alloc@std@@@8 DD FLAT:??_7type_info@@6B@	; std::bad_alloc `RTTI Type Descriptor'
	DD	00H
	DB	'.?AVbad_alloc@std@@', 00H
_DATA	ENDS
;	COMDAT ??_R4bad_alloc@std@@6B@
rdata$r	SEGMENT
??_R4bad_alloc@std@@6B@ DD 00H				; std::bad_alloc::`RTTI Complete Object Locator'
	DD	00H
	DD	00H
	DD	FLAT:??_R0?AVbad_alloc@std@@@8
	DD	FLAT:??_R3bad_alloc@std@@8
rdata$r	ENDS
;	COMDAT ??_7bad_alloc@std@@6B@
CONST	SEGMENT
??_7bad_alloc@std@@6B@ DD FLAT:??_R4bad_alloc@std@@6B@	; std::bad_alloc::`vftable'
	DD	FLAT:??_Ebad_alloc@std@@UAEPAXI@Z
	DD	FLAT:?what@exception@std@@UBEPBDXZ
; Function compile flags: /Ogsp
CONST	ENDS
;	COMDAT ??0bad_alloc@std@@QAE@PBD@Z
_TEXT	SEGMENT
__Message$ = 8						; size = 4
??0bad_alloc@std@@QAE@PBD@Z PROC			; std::bad_alloc::bad_alloc, COMDAT
; _this$ = ecx

; 345  : 		{	// construct from message string

  00000	55		 push	 ebp
  00001	8b ec		 mov	 ebp, esp
  00003	56		 push	 esi
  00004	8d 45 08	 lea	 eax, DWORD PTR __Message$[ebp]
  00007	50		 push	 eax
  00008	8b f1		 mov	 esi, ecx
  0000a	ff 15 00 00 00
	00		 call	 DWORD PTR __imp_??0exception@std@@QAE@ABQBD@Z
  00010	c7 06 00 00 00
	00		 mov	 DWORD PTR [esi], OFFSET ??_7bad_alloc@std@@6B@

; 346  : 		}

  00016	8b c6		 mov	 eax, esi
  00018	5e		 pop	 esi
  00019	5d		 pop	 ebp
  0001a	c2 04 00	 ret	 4
??0bad_alloc@std@@QAE@PBD@Z ENDP			; std::bad_alloc::bad_alloc
_TEXT	ENDS
PUBLIC	??E?$_List_const_iterator@V?$_List_val@PAVioAnnounce@@V?$allocator@PAVioAnnounce@@@std@@@std@@@std@@QAEAAV01@XZ ; std::_List_const_iterator<std::_List_val<ioAnnounce *,std::allocator<ioAnnounce *> > >::operator++
; Function compile flags: /Ogsp
; File c:\program files (x86)\microsoft visual studio 10.0\vc\include\list
;	COMDAT ??E?$_List_const_iterator@V?$_List_val@PAVioAnnounce@@V?$allocator@PAVioAnnounce@@@std@@@std@@@std@@QAEAAV01@XZ
_TEXT	SEGMENT
??E?$_List_const_iterator@V?$_List_val@PAVioAnnounce@@V?$allocator@PAVioAnnounce@@@std@@@std@@@std@@QAEAAV01@XZ PROC ; std::_List_const_iterator<std::_List_val<ioAnnounce *,std::allocator<ioAnnounce *> > >::operator++, COMDAT
; _this$ = ecx

; 221  : 		{	// preincrement

  00000	8b c1		 mov	 eax, ecx

; 222  :  #if _ITERATOR_DEBUG_LEVEL == 2
; 223  : 		if (this->_Getcont() == 0
; 224  : 			|| this->_Ptr == 0
; 225  : 			|| this->_Ptr == ((_Mylist *)this->_Getcont())->_Myhead)
; 226  : 			{	// report error
; 227  : 			_DEBUG_ERROR("list iterator not incrementable");
; 228  : 			_SCL_SECURE_OUT_OF_RANGE;
; 229  : 			}
; 230  : 
; 231  :  #elif _ITERATOR_DEBUG_LEVEL == 1
; 232  : 		_SCL_SECURE_VALIDATE(this->_Getcont() != 0 && this->_Ptr != 0);
; 233  : 		_SCL_SECURE_VALIDATE_RANGE(this->_Ptr !=
; 234  : 			((_Mylist *)this->_Getcont())->_Myhead);
; 235  :  #endif /* _ITERATOR_DEBUG_LEVEL */
; 236  : 
; 237  : 		this->_Ptr = _Mylist::_Nextnode(this->_Ptr);

  00002	8b 08		 mov	 ecx, DWORD PTR [eax]
  00004	8b 09		 mov	 ecx, DWORD PTR [ecx]
  00006	89 08		 mov	 DWORD PTR [eax], ecx

; 238  : 		return (*this);
; 239  : 		}

  00008	c3		 ret	 0
??E?$_List_const_iterator@V?$_List_val@PAVioAnnounce@@V?$allocator@PAVioAnnounce@@@std@@@std@@@std@@QAEAAV01@XZ ENDP ; std::_List_const_iterator<std::_List_val<ioAnnounce *,std::allocator<ioAnnounce *> > >::operator++
_TEXT	ENDS
PUBLIC	??1bad_alloc@std@@UAE@XZ			; std::bad_alloc::~bad_alloc
EXTRN	__imp_??1exception@std@@UAE@XZ:PROC
; Function compile flags: /Ogsp
; File c:\program files (x86)\microsoft visual studio 10.0\vc\include\exception
;	COMDAT ??1bad_alloc@std@@UAE@XZ
_TEXT	SEGMENT
??1bad_alloc@std@@UAE@XZ PROC				; std::bad_alloc::~bad_alloc, COMDAT
; _this$ = ecx

; 354  : 		{	// destroy the object

  00000	c7 01 00 00 00
	00		 mov	 DWORD PTR [ecx], OFFSET ??_7bad_alloc@std@@6B@

; 355  : 		}

  00006	ff 25 00 00 00
	00		 jmp	 DWORD PTR __imp_??1exception@std@@UAE@XZ
??1bad_alloc@std@@UAE@XZ ENDP				; std::bad_alloc::~bad_alloc
; Function compile flags: /Ogsp
_TEXT	ENDS
;	COMDAT ??_Gbad_alloc@std@@UAEPAXI@Z
_TEXT	SEGMENT
___flags$ = 8						; size = 4
??_Gbad_alloc@std@@UAEPAXI@Z PROC			; std::bad_alloc::`scalar deleting destructor', COMDAT
; _this$ = ecx
  00000	55		 push	 ebp
  00001	8b ec		 mov	 ebp, esp
  00003	56		 push	 esi
  00004	8b f1		 mov	 esi, ecx
  00006	c7 06 00 00 00
	00		 mov	 DWORD PTR [esi], OFFSET ??_7bad_alloc@std@@6B@
  0000c	ff 15 00 00 00
	00		 call	 DWORD PTR __imp_??1exception@std@@UAE@XZ
  00012	f6 45 08 01	 test	 BYTE PTR ___flags$[ebp], 1
  00016	74 07		 je	 SHORT $LN1@scalar
  00018	56		 push	 esi
  00019	e8 00 00 00 00	 call	 ??3@YAXPAX@Z		; operator delete
  0001e	59		 pop	 ecx
$LN1@scalar:
  0001f	8b c6		 mov	 eax, esi
  00021	5e		 pop	 esi
  00022	5d		 pop	 ebp
  00023	c2 04 00	 ret	 4
??_Gbad_alloc@std@@UAEPAXI@Z ENDP			; std::bad_alloc::`scalar deleting destructor'
_TEXT	ENDS
PUBLIC	??E?$_List_const_iterator@V?$_List_val@PAVioAnnounce@@V?$allocator@PAVioAnnounce@@@std@@@std@@@std@@QAE?AV01@H@Z ; std::_List_const_iterator<std::_List_val<ioAnnounce *,std::allocator<ioAnnounce *> > >::operator++
; Function compile flags: /Ogsp
; File c:\program files (x86)\microsoft visual studio 10.0\vc\include\list
;	COMDAT ??E?$_List_const_iterator@V?$_List_val@PAVioAnnounce@@V?$allocator@PAVioAnnounce@@@std@@@std@@@std@@QAE?AV01@H@Z
_TEXT	SEGMENT
___$ReturnUdt$ = 8					; size = 4
___formal$ = 12						; size = 4
??E?$_List_const_iterator@V?$_List_val@PAVioAnnounce@@V?$allocator@PAVioAnnounce@@@std@@@std@@@std@@QAE?AV01@H@Z PROC ; std::_List_const_iterator<std::_List_val<ioAnnounce *,std::allocator<ioAnnounce *> > >::operator++, COMDAT
; _this$ = ecx

; 242  : 		{	// postincrement

  00000	55		 push	 ebp
  00001	8b ec		 mov	 ebp, esp

; 243  : 		_Myiter _Tmp = *this;

  00003	8b 11		 mov	 edx, DWORD PTR [ecx]
  00005	8b 45 08	 mov	 eax, DWORD PTR ___$ReturnUdt$[ebp]
  00008	89 10		 mov	 DWORD PTR [eax], edx

; 244  : 		++*this;

  0000a	8b 12		 mov	 edx, DWORD PTR [edx]
  0000c	89 11		 mov	 DWORD PTR [ecx], edx

; 245  : 		return (_Tmp);
; 246  : 		}

  0000e	5d		 pop	 ebp
  0000f	c2 08 00	 ret	 8
??E?$_List_const_iterator@V?$_List_val@PAVioAnnounce@@V?$allocator@PAVioAnnounce@@@std@@@std@@@std@@QAE?AV01@H@Z ENDP ; std::_List_const_iterator<std::_List_val<ioAnnounce *,std::allocator<ioAnnounce *> > >::operator++
_TEXT	ENDS
PUBLIC	??8?$_List_const_iterator@V?$_List_val@PAVioAnnounce@@V?$allocator@PAVioAnnounce@@@std@@@std@@@std@@QBE_NABV01@@Z ; std::_List_const_iterator<std::_List_val<ioAnnounce *,std::allocator<ioAnnounce *> > >::operator==
; Function compile flags: /Ogsp
;	COMDAT ??8?$_List_const_iterator@V?$_List_val@PAVioAnnounce@@V?$allocator@PAVioAnnounce@@@std@@@std@@@std@@QBE_NABV01@@Z
_TEXT	SEGMENT
__Right$ = 8						; size = 4
??8?$_List_const_iterator@V?$_List_val@PAVioAnnounce@@V?$allocator@PAVioAnnounce@@@std@@@std@@@std@@QBE_NABV01@@Z PROC ; std::_List_const_iterator<std::_List_val<ioAnnounce *,std::allocator<ioAnnounce *> > >::operator==, COMDAT
; _this$ = ecx

; 281  : 		{	// test for iterator equality

  00000	55		 push	 ebp
  00001	8b ec		 mov	 ebp, esp

; 282  :  #if _ITERATOR_DEBUG_LEVEL == 2
; 283  : 		if (this->_Getcont() == 0
; 284  : 			|| this->_Getcont() != _Right._Getcont())
; 285  : 			{	// report error
; 286  : 			_DEBUG_ERROR("list iterators incompatible");
; 287  : 			_SCL_SECURE_INVALID_ARGUMENT;
; 288  : 			}
; 289  : 
; 290  :  #elif _ITERATOR_DEBUG_LEVEL == 1
; 291  : 		_SCL_SECURE_VALIDATE(this->_Getcont() != 0
; 292  : 			&& this->_Getcont() == _Right._Getcont());
; 293  :  #endif /* _ITERATOR_DEBUG_LEVEL */
; 294  : 
; 295  : 		return (this->_Ptr == _Right._Ptr);

  00003	8b 01		 mov	 eax, DWORD PTR [ecx]
  00005	8b 4d 08	 mov	 ecx, DWORD PTR __Right$[ebp]
  00008	2b 01		 sub	 eax, DWORD PTR [ecx]
  0000a	f7 d8		 neg	 eax
  0000c	1b c0		 sbb	 eax, eax
  0000e	40		 inc	 eax

; 296  : 		}

  0000f	5d		 pop	 ebp
  00010	c2 04 00	 ret	 4
??8?$_List_const_iterator@V?$_List_val@PAVioAnnounce@@V?$allocator@PAVioAnnounce@@@std@@@std@@@std@@QBE_NABV01@@Z ENDP ; std::_List_const_iterator<std::_List_val<ioAnnounce *,std::allocator<ioAnnounce *> > >::operator==
_TEXT	ENDS
PUBLIC	?_Mynode@?$_List_unchecked_const_iterator@V?$_List_val@PAVioAnnounce@@V?$allocator@PAVioAnnounce@@@std@@@std@@U_Iterator_base0@2@@std@@QBEPAU_Node@?$_List_nod@PAVioAnnounce@@V?$allocator@PAVioAnnounce@@@std@@@2@XZ ; std::_List_unchecked_const_iterator<std::_List_val<ioAnnounce *,std::allocator<ioAnnounce *> >,std::_Iterator_base0>::_Mynode
; Function compile flags: /Ogsp
;	COMDAT ?_Mynode@?$_List_unchecked_const_iterator@V?$_List_val@PAVioAnnounce@@V?$allocator@PAVioAnnounce@@@std@@@std@@U_Iterator_base0@2@@std@@QBEPAU_Node@?$_List_nod@PAVioAnnounce@@V?$allocator@PAVioAnnounce@@@std@@@2@XZ
_TEXT	SEGMENT
?_Mynode@?$_List_unchecked_const_iterator@V?$_List_val@PAVioAnnounce@@V?$allocator@PAVioAnnounce@@@std@@@std@@U_Iterator_base0@2@@std@@QBEPAU_Node@?$_List_nod@PAVioAnnounce@@V?$allocator@PAVioAnnounce@@@std@@@2@XZ PROC ; std::_List_unchecked_const_iterator<std::_List_val<ioAnnounce *,std::allocator<ioAnnounce *> >,std::_Iterator_base0>::_Mynode, COMDAT
; _this$ = ecx

; 93   : 		return (_Ptr);

  00000	8b 01		 mov	 eax, DWORD PTR [ecx]

; 94   : 		}

  00002	c3		 ret	 0
?_Mynode@?$_List_unchecked_const_iterator@V?$_List_val@PAVioAnnounce@@V?$allocator@PAVioAnnounce@@@std@@@std@@U_Iterator_base0@2@@std@@QBEPAU_Node@?$_List_nod@PAVioAnnounce@@V?$allocator@PAVioAnnounce@@@std@@@2@XZ ENDP ; std::_List_unchecked_const_iterator<std::_List_val<ioAnnounce *,std::allocator<ioAnnounce *> >,std::_Iterator_base0>::_Mynode
_TEXT	ENDS
PUBLIC	?_Myval@?$_List_val@PAVioAnnounce@@V?$allocator@PAVioAnnounce@@@std@@@std@@SAAAPAVioAnnounce@@PAU_Node@?$_List_nod@PAVioAnnounce@@V?$allocator@PAVioAnnounce@@@std@@@2@@Z ; std::_List_val<ioAnnounce *,std::allocator<ioAnnounce *> >::_Myval
; Function compile flags: /Ogsp
;	COMDAT ?_Myval@?$_List_val@PAVioAnnounce@@V?$allocator@PAVioAnnounce@@@std@@@std@@SAAAPAVioAnnounce@@PAU_Node@?$_List_nod@PAVioAnnounce@@V?$allocator@PAVioAnnounce@@@std@@@2@@Z
_TEXT	SEGMENT
__Pnode$ = 8						; size = 4
?_Myval@?$_List_val@PAVioAnnounce@@V?$allocator@PAVioAnnounce@@@std@@@std@@SAAAPAVioAnnounce@@PAU_Node@?$_List_nod@PAVioAnnounce@@V?$allocator@PAVioAnnounce@@@std@@@2@@Z PROC ; std::_List_val<ioAnnounce *,std::allocator<ioAnnounce *> >::_Myval, COMDAT

; 570  : 		{	// return reference to value in node

  00000	55		 push	 ebp
  00001	8b ec		 mov	 ebp, esp

; 571  : 		return ((reference)(*_Pnode)._Myval);

  00003	8b 45 08	 mov	 eax, DWORD PTR __Pnode$[ebp]
  00006	83 c0 08	 add	 eax, 8

; 572  : 		}

  00009	5d		 pop	 ebp
  0000a	c3		 ret	 0
?_Myval@?$_List_val@PAVioAnnounce@@V?$allocator@PAVioAnnounce@@@std@@@std@@SAAAPAVioAnnounce@@PAU_Node@?$_List_nod@PAVioAnnounce@@V?$allocator@PAVioAnnounce@@@std@@@2@@Z ENDP ; std::_List_val<ioAnnounce *,std::allocator<ioAnnounce *> >::_Myval
_TEXT	ENDS
PUBLIC	??0?$allocator@PAVioAnnounce@@@std@@QAE@ABV01@@Z ; std::allocator<ioAnnounce *>::allocator<ioAnnounce *>
; Function compile flags: /Ogsp
; File c:\program files (x86)\microsoft visual studio 10.0\vc\include\xmemory
;	COMDAT ??0?$allocator@PAVioAnnounce@@@std@@QAE@ABV01@@Z
_TEXT	SEGMENT
___formal$ = 8						; size = 4
??0?$allocator@PAVioAnnounce@@@std@@QAE@ABV01@@Z PROC	; std::allocator<ioAnnounce *>::allocator<ioAnnounce *>, COMDAT
; _this$ = ecx

; 165  : 	_ALLOCATOR(const _ALLOCATOR<_Ty>&) _THROW0()

  00000	8b c1		 mov	 eax, ecx

; 166  : 		{	// construct by copying (do nothing)
; 167  : 		}

  00002	c2 04 00	 ret	 4
??0?$allocator@PAVioAnnounce@@@std@@QAE@ABV01@@Z ENDP	; std::allocator<ioAnnounce *>::allocator<ioAnnounce *>
_TEXT	ENDS
PUBLIC	??0?$_List_unchecked_const_iterator@V?$_List_val@PAVioAnnounce@@V?$allocator@PAVioAnnounce@@@std@@@std@@U_Iterator_base0@2@@std@@QAE@XZ ; std::_List_unchecked_const_iterator<std::_List_val<ioAnnounce *,std::allocator<ioAnnounce *> >,std::_Iterator_base0>::_List_unchecked_const_iterator<std::_List_val<ioAnnounce *,std::allocator<ioAnnounce *> >,std::_Iterator_base0>
; Function compile flags: /Ogsp
; File c:\program files (x86)\microsoft visual studio 10.0\vc\include\list
;	COMDAT ??0?$_List_unchecked_const_iterator@V?$_List_val@PAVioAnnounce@@V?$allocator@PAVioAnnounce@@@std@@@std@@U_Iterator_base0@2@@std@@QAE@XZ
_TEXT	SEGMENT
??0?$_List_unchecked_const_iterator@V?$_List_val@PAVioAnnounce@@V?$allocator@PAVioAnnounce@@@std@@@std@@U_Iterator_base0@2@@std@@QAE@XZ PROC ; std::_List_unchecked_const_iterator<std::_List_val<ioAnnounce *,std::allocator<ioAnnounce *> >,std::_Iterator_base0>::_List_unchecked_const_iterator<std::_List_val<ioAnnounce *,std::allocator<ioAnnounce *> >,std::_Iterator_base0>, COMDAT
; _this$ = ecx

; 36   : 		{	// construct with null node pointer

  00000	8b c1		 mov	 eax, ecx
  00002	83 20 00	 and	 DWORD PTR [eax], 0

; 37   : 		}

  00005	c3		 ret	 0
??0?$_List_unchecked_const_iterator@V?$_List_val@PAVioAnnounce@@V?$allocator@PAVioAnnounce@@@std@@@std@@U_Iterator_base0@2@@std@@QAE@XZ ENDP ; std::_List_unchecked_const_iterator<std::_List_val<ioAnnounce *,std::allocator<ioAnnounce *> >,std::_Iterator_base0>::_List_unchecked_const_iterator<std::_List_val<ioAnnounce *,std::allocator<ioAnnounce *> >,std::_Iterator_base0>
_TEXT	ENDS
PUBLIC	?max_size@?$allocator@PAVioAnnounce@@@std@@QBEIXZ ; std::allocator<ioAnnounce *>::max_size
; Function compile flags: /Ogsp
; File c:\program files (x86)\microsoft visual studio 10.0\vc\include\xmemory
;	COMDAT ?max_size@?$allocator@PAVioAnnounce@@@std@@QBEIXZ
_TEXT	SEGMENT
?max_size@?$allocator@PAVioAnnounce@@@std@@QBEIXZ PROC	; std::allocator<ioAnnounce *>::max_size, COMDAT
; _this$ = ecx

; 218  : 		_SIZT _Count = (_SIZT)(-1) / sizeof (_Ty);
; 219  : 		return (0 < _Count ? _Count : 1);

  00000	b8 ff ff ff 3f	 mov	 eax, 1073741823		; 3fffffffH

; 220  : 		}

  00005	c3		 ret	 0
?max_size@?$allocator@PAVioAnnounce@@@std@@QBEIXZ ENDP	; std::allocator<ioAnnounce *>::max_size
_TEXT	ENDS
PUBLIC	??2@YAPAXIPAX@Z					; operator new
; Function compile flags: /Ogsp
; File c:\program files (x86)\microsoft visual studio 10.0\vc\include\new
;	COMDAT ??2@YAPAXIPAX@Z
_TEXT	SEGMENT
___formal$ = 8						; size = 4
__Where$ = 12						; size = 4
??2@YAPAXIPAX@Z PROC					; operator new, COMDAT

; 56   : 	{	// construct array with placement at _Where

  00000	55		 push	 ebp
  00001	8b ec		 mov	 ebp, esp

; 57   : 	return (_Where);

  00003	8b 45 0c	 mov	 eax, DWORD PTR __Where$[ebp]

; 58   : 	}

  00006	5d		 pop	 ebp
  00007	c3		 ret	 0
??2@YAPAXIPAX@Z ENDP					; operator new
_TEXT	ENDS
PUBLIC	??3@YAXPAX0@Z					; operator delete
; Function compile flags: /Ogsp
;	COMDAT ??3@YAXPAX0@Z
_TEXT	SEGMENT
___formal$ = 8						; size = 4
___formal$ = 12						; size = 4
??3@YAXPAX0@Z PROC					; operator delete, COMDAT

; 62   : 	}

  00000	c3		 ret	 0
??3@YAXPAX0@Z ENDP					; operator delete
_TEXT	ENDS
PUBLIC	?_Adopt@_Iterator_base0@std@@QAEXPBX@Z		; std::_Iterator_base0::_Adopt
; Function compile flags: /Ogsp
; File c:\program files (x86)\microsoft visual studio 10.0\vc\include\xutility
;	COMDAT ?_Adopt@_Iterator_base0@std@@QAEXPBX@Z
_TEXT	SEGMENT
___formal$ = 8						; size = 4
?_Adopt@_Iterator_base0@std@@QAEXPBX@Z PROC		; std::_Iterator_base0::_Adopt, COMDAT
; _this$ = ecx

; 49   : 		}

  00000	c2 04 00	 ret	 4
?_Adopt@_Iterator_base0@std@@QAEXPBX@Z ENDP		; std::_Iterator_base0::_Adopt
_TEXT	ENDS
PUBLIC	??$addressof@PAVioAnnounce@@@std@@YAPAPAVioAnnounce@@AAPAV1@@Z ; std::addressof<ioAnnounce *>
; Function compile flags: /Ogsp
; File c:\program files (x86)\microsoft visual studio 10.0\vc\include\xmemory
;	COMDAT ??$addressof@PAVioAnnounce@@@std@@YAPAPAVioAnnounce@@AAPAV1@@Z
_TEXT	SEGMENT
__Val$ = 8						; size = 4
??$addressof@PAVioAnnounce@@@std@@YAPAPAVioAnnounce@@AAPAV1@@Z PROC ; std::addressof<ioAnnounce *>, COMDAT

; 110  : 	{	// return address of _Val

  00000	55		 push	 ebp
  00001	8b ec		 mov	 ebp, esp

; 111  : 	return ((_Ty *) &(char&)_Val);

  00003	8b 45 08	 mov	 eax, DWORD PTR __Val$[ebp]

; 112  : 	}

  00006	5d		 pop	 ebp
  00007	c3		 ret	 0
??$addressof@PAVioAnnounce@@@std@@YAPAPAVioAnnounce@@AAPAV1@@Z ENDP ; std::addressof<ioAnnounce *>
_TEXT	ENDS
PUBLIC	??$?0PAVioAnnounce@@@?$allocator@U_Node@?$_List_nod@PAVioAnnounce@@V?$allocator@PAVioAnnounce@@@std@@@std@@@std@@QAE@ABV?$allocator@PAVioAnnounce@@@1@@Z ; std::allocator<std::_List_nod<ioAnnounce *,std::allocator<ioAnnounce *> >::_Node>::allocator<std::_List_nod<ioAnnounce *,std::allocator<ioAnnounce *> >::_Node><ioAnnounce *>
; Function compile flags: /Ogsp
;	COMDAT ??$?0PAVioAnnounce@@@?$allocator@U_Node@?$_List_nod@PAVioAnnounce@@V?$allocator@PAVioAnnounce@@@std@@@std@@@std@@QAE@ABV?$allocator@PAVioAnnounce@@@1@@Z
_TEXT	SEGMENT
___formal$ = 8						; size = 4
??$?0PAVioAnnounce@@@?$allocator@U_Node@?$_List_nod@PAVioAnnounce@@V?$allocator@PAVioAnnounce@@@std@@@std@@@std@@QAE@ABV?$allocator@PAVioAnnounce@@@1@@Z PROC ; std::allocator<std::_List_nod<ioAnnounce *,std::allocator<ioAnnounce *> >::_Node>::allocator<std::_List_nod<ioAnnounce *,std::allocator<ioAnnounce *> >::_Node><ioAnnounce *>, COMDAT
; _this$ = ecx

; 170  : 		_ALLOCATOR(const _ALLOCATOR<_Other>&) _THROW0()

  00000	8b c1		 mov	 eax, ecx

; 171  : 		{	// construct from a related allocator (do nothing)
; 172  : 		}

  00002	c2 04 00	 ret	 4
??$?0PAVioAnnounce@@@?$allocator@U_Node@?$_List_nod@PAVioAnnounce@@V?$allocator@PAVioAnnounce@@@std@@@std@@@std@@QAE@ABV?$allocator@PAVioAnnounce@@@1@@Z ENDP ; std::allocator<std::_List_nod<ioAnnounce *,std::allocator<ioAnnounce *> >::_Node>::allocator<std::_List_nod<ioAnnounce *,std::allocator<ioAnnounce *> >::_Node><ioAnnounce *>
_TEXT	ENDS
PUBLIC	__TI2?AVbad_alloc@std@@
PUBLIC	??$_Allocate@U_Node@?$_List_nod@PAVioAnnounce@@V?$allocator@PAVioAnnounce@@@std@@@std@@@std@@YAPAU_Node@?$_List_nod@PAVioAnnounce@@V?$allocator@PAVioAnnounce@@@std@@@0@IPAU120@@Z ; std::_Allocate<std::_List_nod<ioAnnounce *,std::allocator<ioAnnounce *> >::_Node>
PUBLIC	__CTA2?AVbad_alloc@std@@
PUBLIC	__CT??_R0?AVbad_alloc@std@@@8??0bad_alloc@std@@QAE@ABV01@@Z12
PUBLIC	??0bad_alloc@std@@QAE@ABV01@@Z			; std::bad_alloc::bad_alloc
PUBLIC	__CT??_R0?AVexception@std@@@8??0exception@std@@QAE@ABV01@@Z12
EXTRN	??2@YAPAXI@Z:PROC				; operator new
EXTRN	__CxxThrowException@8:PROC
EXTRN	??0exception@std@@QAE@ABV01@@Z:PROC		; std::exception::exception
;	COMDAT __CT??_R0?AVexception@std@@@8??0exception@std@@QAE@ABV01@@Z12
; File c:\program files (x86)\microsoft visual studio 10.0\vc\include\exception
xdata$x	SEGMENT
__CT??_R0?AVexception@std@@@8??0exception@std@@QAE@ABV01@@Z12 DD 00H
	DD	FLAT:??_R0?AVexception@std@@@8
	DD	00H
	DD	0ffffffffH
	ORG $+4
	DD	0cH
	DD	FLAT:??0exception@std@@QAE@ABV01@@Z
xdata$x	ENDS
;	COMDAT __CT??_R0?AVbad_alloc@std@@@8??0bad_alloc@std@@QAE@ABV01@@Z12
xdata$x	SEGMENT
__CT??_R0?AVbad_alloc@std@@@8??0bad_alloc@std@@QAE@ABV01@@Z12 DD 00H
	DD	FLAT:??_R0?AVbad_alloc@std@@@8
	DD	00H
	DD	0ffffffffH
	ORG $+4
	DD	0cH
	DD	FLAT:??0bad_alloc@std@@QAE@ABV01@@Z
xdata$x	ENDS
;	COMDAT __CTA2?AVbad_alloc@std@@
xdata$x	SEGMENT
__CTA2?AVbad_alloc@std@@ DD 02H
	DD	FLAT:__CT??_R0?AVbad_alloc@std@@@8??0bad_alloc@std@@QAE@ABV01@@Z12
	DD	FLAT:__CT??_R0?AVexception@std@@@8??0exception@std@@QAE@ABV01@@Z12
xdata$x	ENDS
;	COMDAT __TI2?AVbad_alloc@std@@
xdata$x	SEGMENT
__TI2?AVbad_alloc@std@@ DD 00H
	DD	FLAT:??1bad_alloc@std@@UAE@XZ
	DD	00H
	DD	FLAT:__CTA2?AVbad_alloc@std@@
; Function compile flags: /Ogsp
; File c:\program files (x86)\microsoft visual studio 10.0\vc\include\xmemory
xdata$x	ENDS
;	COMDAT ??$_Allocate@U_Node@?$_List_nod@PAVioAnnounce@@V?$allocator@PAVioAnnounce@@@std@@@std@@@std@@YAPAU_Node@?$_List_nod@PAVioAnnounce@@V?$allocator@PAVioAnnounce@@@std@@@0@IPAU120@@Z
_TEXT	SEGMENT
$T508313 = -12						; size = 12
$T508318 = 8						; size = 4
__Count$ = 8						; size = 4
___formal$ = 12						; size = 4
??$_Allocate@U_Node@?$_List_nod@PAVioAnnounce@@V?$allocator@PAVioAnnounce@@@std@@@std@@@std@@YAPAU_Node@?$_List_nod@PAVioAnnounce@@V?$allocator@PAVioAnnounce@@@std@@@0@IPAU120@@Z PROC ; std::_Allocate<std::_List_nod<ioAnnounce *,std::allocator<ioAnnounce *> >::_Node>, COMDAT

; 30   : 	{	// allocate storage for _Count elements of type _Ty

  00000	55		 push	 ebp
  00001	8b ec		 mov	 ebp, esp

; 31   : 	void *_Ptr = 0;
; 32   : 
; 33   : 	if (_Count <= 0)

  00003	8b 4d 08	 mov	 ecx, DWORD PTR __Count$[ebp]
  00006	83 ec 0c	 sub	 esp, 12			; 0000000cH
  00009	33 c0		 xor	 eax, eax
  0000b	85 c9		 test	 ecx, ecx

; 34   : 		_Count = 0;
; 35   : 	else if (((_SIZT)(-1) / sizeof (_Ty) < _Count)

  0000d	74 3c		 je	 SHORT $LN5@Allocate

; 36   : 		|| (_Ptr = ::operator new(_Count * sizeof (_Ty))) == 0)

  0000f	81 f9 55 55 55
	15		 cmp	 ecx, 357913941		; 15555555H
  00015	77 0e		 ja	 SHORT $LN1@Allocate
  00017	6b c9 0c	 imul	 ecx, 12			; 0000000cH
  0001a	51		 push	 ecx
  0001b	e8 00 00 00 00	 call	 ??2@YAPAXI@Z		; operator new
  00020	59		 pop	 ecx
  00021	85 c0		 test	 eax, eax

; 38   : 
; 39   : 	return ((_Ty _FARQ *)_Ptr);

  00023	75 26		 jne	 SHORT $LN5@Allocate
$LN1@Allocate:

; 37   : 		_THROW_NCEE(bad_alloc, 0);

  00025	83 65 08 00	 and	 DWORD PTR $T508318[ebp], 0
  00029	8d 45 08	 lea	 eax, DWORD PTR $T508318[ebp]
  0002c	50		 push	 eax
  0002d	8d 4d f4	 lea	 ecx, DWORD PTR $T508313[ebp]
  00030	ff 15 00 00 00
	00		 call	 DWORD PTR __imp_??0exception@std@@QAE@ABQBD@Z
  00036	68 00 00 00 00	 push	 OFFSET __TI2?AVbad_alloc@std@@
  0003b	8d 45 f4	 lea	 eax, DWORD PTR $T508313[ebp]
  0003e	50		 push	 eax
  0003f	c7 45 f4 00 00
	00 00		 mov	 DWORD PTR $T508313[ebp], OFFSET ??_7bad_alloc@std@@6B@
  00046	e8 00 00 00 00	 call	 __CxxThrowException@8
$LN10@Allocate:
$LN5@Allocate:

; 40   : 	}

  0004b	c9		 leave
  0004c	c3		 ret	 0
$LN9@Allocate:
??$_Allocate@U_Node@?$_List_nod@PAVioAnnounce@@V?$allocator@PAVioAnnounce@@@std@@@std@@@std@@YAPAU_Node@?$_List_nod@PAVioAnnounce@@V?$allocator@PAVioAnnounce@@@std@@@0@IPAU120@@Z ENDP ; std::_Allocate<std::_List_nod<ioAnnounce *,std::allocator<ioAnnounce *> >::_Node>
_TEXT	ENDS
PUBLIC	??$forward@ABQAVioAnnounce@@@std@@YAABQAVioAnnounce@@ABQAV1@@Z ; std::forward<ioAnnounce * const &>
; Function compile flags: /Ogsp
; File c:\program files (x86)\microsoft visual studio 10.0\vc\include\utility
;	COMDAT ??$forward@ABQAVioAnnounce@@@std@@YAABQAVioAnnounce@@ABQAV1@@Z
_TEXT	SEGMENT
__Arg$ = 8						; size = 4
??$forward@ABQAVioAnnounce@@@std@@YAABQAVioAnnounce@@ABQAV1@@Z PROC ; std::forward<ioAnnounce * const &>, COMDAT

; 78   : 	{	// forward _Arg, given explicitly specified type parameter

  00000	55		 push	 ebp
  00001	8b ec		 mov	 ebp, esp

; 79   : 	return ((_Ty&&)_Arg);

  00003	8b 45 08	 mov	 eax, DWORD PTR __Arg$[ebp]

; 80   : 	}

  00006	5d		 pop	 ebp
  00007	c3		 ret	 0
??$forward@ABQAVioAnnounce@@@std@@YAABQAVioAnnounce@@ABQAV1@@Z ENDP ; std::forward<ioAnnounce * const &>
_TEXT	ENDS
PUBLIC	??$?8PAVioAnnounce@@PAV0@@std@@YA_NABV?$allocator@PAVioAnnounce@@@0@0@Z ; std::operator==<ioAnnounce *,ioAnnounce *>
; Function compile flags: /Ogsp
; File c:\program files (x86)\microsoft visual studio 10.0\vc\include\xmemory
;	COMDAT ??$?8PAVioAnnounce@@PAV0@@std@@YA_NABV?$allocator@PAVioAnnounce@@@0@0@Z
_TEXT	SEGMENT
___formal$ = 8						; size = 4
___formal$ = 12						; size = 4
??$?8PAVioAnnounce@@PAV0@@std@@YA_NABV?$allocator@PAVioAnnounce@@@0@0@Z PROC ; std::operator==<ioAnnounce *,ioAnnounce *>, COMDAT

; 263  : 	return (true);

  00000	b0 01		 mov	 al, 1

; 264  : 	}

  00002	c3		 ret	 0
??$?8PAVioAnnounce@@PAV0@@std@@YA_NABV?$allocator@PAVioAnnounce@@@0@0@Z ENDP ; std::operator==<ioAnnounce *,ioAnnounce *>
_TEXT	ENDS
PUBLIC	??$_Construct@PAVioAnnounce@@ABQAV1@@std@@YAXPAPAVioAnnounce@@ABQAV1@@Z ; std::_Construct<ioAnnounce *,ioAnnounce * const &>
; Function compile flags: /Ogsp
;	COMDAT ??$_Construct@PAVioAnnounce@@ABQAV1@@std@@YAXPAPAVioAnnounce@@ABQAV1@@Z
_TEXT	SEGMENT
__Ptr$ = 8						; size = 4
__Val$ = 12						; size = 4
??$_Construct@PAVioAnnounce@@ABQAV1@@std@@YAXPAPAVioAnnounce@@ABQAV1@@Z PROC ; std::_Construct<ioAnnounce *,ioAnnounce * const &>, COMDAT

; 46   : 	{	// construct object at _Ptr with value _Val

  00000	55		 push	 ebp
  00001	8b ec		 mov	 ebp, esp

; 47   : 	void _FARQ *_Vptr = _Ptr;
; 48   : 	::new (_Vptr) _Ty1(_STD forward<_Ty2>(_Val));

  00003	8b 45 08	 mov	 eax, DWORD PTR __Ptr$[ebp]
  00006	85 c0		 test	 eax, eax
  00008	74 07		 je	 SHORT $LN3@Construct
  0000a	8b 4d 0c	 mov	 ecx, DWORD PTR __Val$[ebp]
  0000d	8b 09		 mov	 ecx, DWORD PTR [ecx]
  0000f	89 08		 mov	 DWORD PTR [eax], ecx
$LN3@Construct:

; 49   : 	}

  00011	5d		 pop	 ebp
  00012	c3		 ret	 0
??$_Construct@PAVioAnnounce@@ABQAV1@@std@@YAXPAPAVioAnnounce@@ABQAV1@@Z ENDP ; std::_Construct<ioAnnounce *,ioAnnounce * const &>
_TEXT	ENDS
PUBLIC	??$_Destroy@U_Node@?$_List_nod@PAVioAnnounce@@V?$allocator@PAVioAnnounce@@@std@@@std@@@std@@YAXPAU_Node@?$_List_nod@PAVioAnnounce@@V?$allocator@PAVioAnnounce@@@std@@@0@@Z ; std::_Destroy<std::_List_nod<ioAnnounce *,std::allocator<ioAnnounce *> >::_Node>
; Function compile flags: /Ogsp
;	COMDAT ??$_Destroy@U_Node@?$_List_nod@PAVioAnnounce@@V?$allocator@PAVioAnnounce@@@std@@@std@@@std@@YAXPAU_Node@?$_List_nod@PAVioAnnounce@@V?$allocator@PAVioAnnounce@@@std@@@0@@Z
_TEXT	SEGMENT
__Ptr$ = 8						; size = 4
??$_Destroy@U_Node@?$_List_nod@PAVioAnnounce@@V?$allocator@PAVioAnnounce@@@std@@@std@@@std@@YAXPAU_Node@?$_List_nod@PAVioAnnounce@@V?$allocator@PAVioAnnounce@@@std@@@0@@Z PROC ; std::_Destroy<std::_List_nod<ioAnnounce *,std::allocator<ioAnnounce *> >::_Node>, COMDAT

; 63   : 	_Ptr->~_Ty();
; 64   : 	}

  00000	c3		 ret	 0
??$_Destroy@U_Node@?$_List_nod@PAVioAnnounce@@V?$allocator@PAVioAnnounce@@@std@@@std@@@std@@YAXPAU_Node@?$_List_nod@PAVioAnnounce@@V?$allocator@PAVioAnnounce@@@std@@@0@@Z ENDP ; std::_Destroy<std::_List_nod<ioAnnounce *,std::allocator<ioAnnounce *> >::_Node>
_TEXT	ENDS
PUBLIC	??$_Move@AAPAU_Node@?$_List_nod@PAVioAnnounce@@V?$allocator@PAVioAnnounce@@@std@@@std@@@std@@YA$$QAPAU_Node@?$_List_nod@PAVioAnnounce@@V?$allocator@PAVioAnnounce@@@std@@@0@AAPAU120@@Z ; std::_Move<std::_List_nod<ioAnnounce *,std::allocator<ioAnnounce *> >::_Node * &>
; Function compile flags: /Ogsp
; File c:\program files (x86)\microsoft visual studio 10.0\vc\include\utility
;	COMDAT ??$_Move@AAPAU_Node@?$_List_nod@PAVioAnnounce@@V?$allocator@PAVioAnnounce@@@std@@@std@@@std@@YA$$QAPAU_Node@?$_List_nod@PAVioAnnounce@@V?$allocator@PAVioAnnounce@@@std@@@0@AAPAU120@@Z
_TEXT	SEGMENT
__Arg$ = 8						; size = 4
??$_Move@AAPAU_Node@?$_List_nod@PAVioAnnounce@@V?$allocator@PAVioAnnounce@@@std@@@std@@@std@@YA$$QAPAU_Node@?$_List_nod@PAVioAnnounce@@V?$allocator@PAVioAnnounce@@@std@@@0@AAPAU120@@Z PROC ; std::_Move<std::_List_nod<ioAnnounce *,std::allocator<ioAnnounce *> >::_Node * &>, COMDAT

; 94   : 	{	// forward _Arg as movable

  00000	55		 push	 ebp
  00001	8b ec		 mov	 ebp, esp

; 95   : 	return ((typename tr1::_Remove_reference<_Ty>::_Type&&)_Arg);

  00003	8b 45 08	 mov	 eax, DWORD PTR __Arg$[ebp]

; 96   : 	}

  00006	5d		 pop	 ebp
  00007	c3		 ret	 0
??$_Move@AAPAU_Node@?$_List_nod@PAVioAnnounce@@V?$allocator@PAVioAnnounce@@@std@@@std@@@std@@YA$$QAPAU_Node@?$_List_nod@PAVioAnnounce@@V?$allocator@PAVioAnnounce@@@std@@@0@AAPAU120@@Z ENDP ; std::_Move<std::_List_nod<ioAnnounce *,std::allocator<ioAnnounce *> >::_Node * &>
_TEXT	ENDS
PUBLIC	??$_Move@AAI@std@@YA$$QAIAAI@Z			; std::_Move<unsigned int &>
; Function compile flags: /Ogsp
;	COMDAT ??$_Move@AAI@std@@YA$$QAIAAI@Z
_TEXT	SEGMENT
__Arg$ = 8						; size = 4
??$_Move@AAI@std@@YA$$QAIAAI@Z PROC			; std::_Move<unsigned int &>, COMDAT

; 94   : 	{	// forward _Arg as movable

  00000	55		 push	 ebp
  00001	8b ec		 mov	 ebp, esp

; 95   : 	return ((typename tr1::_Remove_reference<_Ty>::_Type&&)_Arg);

  00003	8b 45 08	 mov	 eax, DWORD PTR __Arg$[ebp]

; 96   : 	}

  00006	5d		 pop	 ebp
  00007	c3		 ret	 0
??$_Move@AAI@std@@YA$$QAIAAI@Z ENDP			; std::_Move<unsigned int &>
_TEXT	ENDS
PUBLIC	??$forward@PAVioAnnounce@@@std@@YA$$QAPAVioAnnounce@@AAPAV1@@Z ; std::forward<ioAnnounce *>
; Function compile flags: /Ogsp
;	COMDAT ??$forward@PAVioAnnounce@@@std@@YA$$QAPAVioAnnounce@@AAPAV1@@Z
_TEXT	SEGMENT
__Arg$ = 8						; size = 4
??$forward@PAVioAnnounce@@@std@@YA$$QAPAVioAnnounce@@AAPAV1@@Z PROC ; std::forward<ioAnnounce *>, COMDAT

; 78   : 	{	// forward _Arg, given explicitly specified type parameter

  00000	55		 push	 ebp
  00001	8b ec		 mov	 ebp, esp

; 79   : 	return ((_Ty&&)_Arg);

  00003	8b 45 08	 mov	 eax, DWORD PTR __Arg$[ebp]

; 80   : 	}

  00006	5d		 pop	 ebp
  00007	c3		 ret	 0
??$forward@PAVioAnnounce@@@std@@YA$$QAPAVioAnnounce@@AAPAV1@@Z ENDP ; std::forward<ioAnnounce *>
_TEXT	ENDS
PUBLIC	??F?$_List_const_iterator@V?$_List_val@PAVioAnnounce@@V?$allocator@PAVioAnnounce@@@std@@@std@@@std@@QAEAAV01@XZ ; std::_List_const_iterator<std::_List_val<ioAnnounce *,std::allocator<ioAnnounce *> > >::operator--
; Function compile flags: /Ogsp
; File c:\program files (x86)\microsoft visual studio 10.0\vc\include\list
;	COMDAT ??F?$_List_const_iterator@V?$_List_val@PAVioAnnounce@@V?$allocator@PAVioAnnounce@@@std@@@std@@@std@@QAEAAV01@XZ
_TEXT	SEGMENT
??F?$_List_const_iterator@V?$_List_val@PAVioAnnounce@@V?$allocator@PAVioAnnounce@@@std@@@std@@@std@@QAEAAV01@XZ PROC ; std::_List_const_iterator<std::_List_val<ioAnnounce *,std::allocator<ioAnnounce *> > >::operator--, COMDAT
; _this$ = ecx

; 249  : 		{	// predecrement

  00000	8b c1		 mov	 eax, ecx

; 250  :  #if _ITERATOR_DEBUG_LEVEL == 2
; 251  : 		if (this->_Getcont() == 0
; 252  : 			|| this->_Ptr == 0
; 253  : 			|| (this->_Ptr = _Mylist::_Prevnode(this->_Ptr))
; 254  : 				== ((_Mylist *)this->_Getcont())->_Myhead)
; 255  : 			{	// report error
; 256  : 			_DEBUG_ERROR("list iterator not decrementable");
; 257  : 			_SCL_SECURE_OUT_OF_RANGE;
; 258  : 			}
; 259  : 
; 260  :  #elif _ITERATOR_DEBUG_LEVEL == 1
; 261  : 		_SCL_SECURE_VALIDATE(this->_Getcont() != 0 && this->_Ptr != 0);
; 262  : 		this->_Ptr = _Mylist::_Prevnode(this->_Ptr);
; 263  : 		_SCL_SECURE_VALIDATE_RANGE(this->_Ptr !=
; 264  : 			((_Mylist *)this->_Getcont())->_Myhead);
; 265  : 
; 266  :  #else /* _ITERATOR_DEBUG_LEVEL */
; 267  : 		this->_Ptr = _Mylist::_Prevnode(this->_Ptr);

  00002	8b 08		 mov	 ecx, DWORD PTR [eax]
  00004	8b 49 04	 mov	 ecx, DWORD PTR [ecx+4]
  00007	89 08		 mov	 DWORD PTR [eax], ecx

; 268  :  #endif /* _ITERATOR_DEBUG_LEVEL */
; 269  : 
; 270  : 		return (*this);
; 271  : 		}

  00009	c3		 ret	 0
??F?$_List_const_iterator@V?$_List_val@PAVioAnnounce@@V?$allocator@PAVioAnnounce@@@std@@@std@@@std@@QAEAAV01@XZ ENDP ; std::_List_const_iterator<std::_List_val<ioAnnounce *,std::allocator<ioAnnounce *> > >::operator--
_TEXT	ENDS
PUBLIC	?construct@?$allocator@PAVioAnnounce@@@std@@QAEXPAPAVioAnnounce@@$$QAPAV3@@Z ; std::allocator<ioAnnounce *>::construct
; Function compile flags: /Ogsp
; File c:\program files (x86)\microsoft visual studio 10.0\vc\include\xmemory
;	COMDAT ?construct@?$allocator@PAVioAnnounce@@@std@@QAEXPAPAVioAnnounce@@$$QAPAV3@@Z
_TEXT	SEGMENT
__Ptr$ = 8						; size = 4
__Val$ = 12						; size = 4
?construct@?$allocator@PAVioAnnounce@@@std@@QAEXPAPAVioAnnounce@@$$QAPAV3@@Z PROC ; std::allocator<ioAnnounce *>::construct, COMDAT
; _this$ = ecx

; 201  : 		{	// construct object at _Ptr with value _Val

  00000	55		 push	 ebp
  00001	8b ec		 mov	 ebp, esp

; 202  : 		::new ((void _FARQ *)_Ptr) _Ty(_STD forward<_Ty>(_Val));

  00003	8b 45 08	 mov	 eax, DWORD PTR __Ptr$[ebp]
  00006	85 c0		 test	 eax, eax
  00008	74 07		 je	 SHORT $LN3@construct
  0000a	8b 4d 0c	 mov	 ecx, DWORD PTR __Val$[ebp]
  0000d	8b 09		 mov	 ecx, DWORD PTR [ecx]
  0000f	89 08		 mov	 DWORD PTR [eax], ecx
$LN3@construct:

; 203  : 		}

  00011	5d		 pop	 ebp
  00012	c2 08 00	 ret	 8
?construct@?$allocator@PAVioAnnounce@@@std@@QAEXPAPAVioAnnounce@@$$QAPAV3@@Z ENDP ; std::allocator<ioAnnounce *>::construct
_TEXT	ENDS
PUBLIC	?_DECSTR@@YAXPADH@Z				; _DECSTR
; Function compile flags: /Ogsp
; File d:\lost saga for developer\youtube\tutorial\source\src\lsclient\stringprotect.h
;	COMDAT ?_DECSTR@@YAXPADH@Z
_TEXT	SEGMENT
_s$ = 8							; size = 4
_l$ = 12						; size = 4
?_DECSTR@@YAXPADH@Z PROC				; _DECSTR, COMDAT

; 40   : __forceinline void _DECSTR(char* s, int l){int i=0,l4=(l-1)/4,*p=(int*)s;s[l-1]=0;for(;i<l4;++i)*(p++)^=0xEAEBECED;for(i=l4*4;i<l-1;++i)s[i]^=0xED-i%4;}

  00000	55		 push	 ebp
  00001	8b ec		 mov	 ebp, esp
  00003	8b 4d 0c	 mov	 ecx, DWORD PTR _l$[ebp]
  00006	56		 push	 esi
  00007	8b 75 08	 mov	 esi, DWORD PTR _s$[ebp]
  0000a	57		 push	 edi
  0000b	8d 79 ff	 lea	 edi, DWORD PTR [ecx-1]
  0000e	8b c7		 mov	 eax, edi
  00010	99		 cdq
  00011	83 e2 03	 and	 edx, 3
  00014	03 c2		 add	 eax, edx
  00016	c1 f8 02	 sar	 eax, 2
  00019	8b d6		 mov	 edx, esi
  0001b	c6 44 0e ff 00	 mov	 BYTE PTR [esi+ecx-1], 0
  00020	85 c0		 test	 eax, eax
  00022	7e 0e		 jle	 SHORT $LN4@DECSTR
  00024	8b c8		 mov	 ecx, eax
$LL6@DECSTR:
  00026	81 32 ed ec eb
	ea		 xor	 DWORD PTR [edx], -353637139 ; eaebecedH
  0002c	83 c2 04	 add	 edx, 4
  0002f	49		 dec	 ecx
  00030	75 f4		 jne	 SHORT $LL6@DECSTR
$LN4@DECSTR:
  00032	c1 e0 02	 shl	 eax, 2
  00035	eb 17		 jmp	 SHORT $LN14@DECSTR
$LL3@DECSTR:
  00037	8b c8		 mov	 ecx, eax
  00039	81 e1 03 00 00
	80		 and	 ecx, -2147483645	; 80000003H
  0003f	79 05		 jns	 SHORT $LN13@DECSTR
  00041	49		 dec	 ecx
  00042	83 c9 fc	 or	 ecx, -4			; fffffffcH
  00045	41		 inc	 ecx
$LN13@DECSTR:
  00046	b2 ed		 mov	 dl, -19			; ffffffedH
  00048	2a d1		 sub	 dl, cl
  0004a	30 14 30	 xor	 BYTE PTR [eax+esi], dl
  0004d	40		 inc	 eax
$LN14@DECSTR:
  0004e	3b c7		 cmp	 eax, edi
  00050	7c e5		 jl	 SHORT $LL3@DECSTR
  00052	5f		 pop	 edi
  00053	5e		 pop	 esi
  00054	5d		 pop	 ebp
  00055	c3		 ret	 0
?_DECSTR@@YAXPADH@Z ENDP				; _DECSTR
_TEXT	ENDS
PUBLIC	?size@?$vector@VioHashString@@V?$allocator@VioHashString@@@std@@@std@@QBEIXZ ; std::vector<ioHashString,std::allocator<ioHashString> >::size
; Function compile flags: /Ogsp
; File c:\program files (x86)\microsoft visual studio 10.0\vc\include\vector
;	COMDAT ?size@?$vector@VioHashString@@V?$allocator@VioHashString@@@std@@@std@@QBEIXZ
_TEXT	SEGMENT
?size@?$vector@VioHashString@@V?$allocator@VioHashString@@@std@@@std@@QBEIXZ PROC ; std::vector<ioHashString,std::allocator<ioHashString> >::size, COMDAT
; _this$ = ecx

; 879  : 		return (this->_Mylast - this->_Myfirst);

  00000	8b 41 04	 mov	 eax, DWORD PTR [ecx+4]
  00003	2b 01		 sub	 eax, DWORD PTR [ecx]
  00005	c1 f8 04	 sar	 eax, 4

; 880  : 		}

  00008	c3		 ret	 0
?size@?$vector@VioHashString@@V?$allocator@VioHashString@@@std@@@std@@QBEIXZ ENDP ; std::vector<ioHashString,std::allocator<ioHashString> >::size
_TEXT	ENDS
EXTRN	__imp_??0exception@std@@QAE@ABV01@@Z:PROC
; Function compile flags: /Ogsp
;	COMDAT ??0bad_alloc@std@@QAE@ABV01@@Z
_TEXT	SEGMENT
___that$ = 8						; size = 4
??0bad_alloc@std@@QAE@ABV01@@Z PROC			; std::bad_alloc::bad_alloc, COMDAT
; _this$ = ecx
  00000	55		 push	 ebp
  00001	8b ec		 mov	 ebp, esp
  00003	56		 push	 esi
  00004	ff 75 08	 push	 DWORD PTR ___that$[ebp]
  00007	8b f1		 mov	 esi, ecx
  00009	ff 15 00 00 00
	00		 call	 DWORD PTR __imp_??0exception@std@@QAE@ABV01@@Z
  0000f	c7 06 00 00 00
	00		 mov	 DWORD PTR [esi], OFFSET ??_7bad_alloc@std@@6B@
  00015	8b c6		 mov	 eax, esi
  00017	5e		 pop	 esi
  00018	5d		 pop	 ebp
  00019	c2 04 00	 ret	 4
??0bad_alloc@std@@QAE@ABV01@@Z ENDP			; std::bad_alloc::bad_alloc
_TEXT	ENDS
PUBLIC	?IsNowAnnouncing@ioAnnounceManager@@QBE_NXZ	; ioAnnounceManager::IsNowAnnouncing
; Function compile flags: /Ogsp
; File d:\lost saga for developer\youtube\tutorial\source\src\lsclient\ioannouncemanager.cpp
;	COMDAT ?IsNowAnnouncing@ioAnnounceManager@@QBE_NXZ
_TEXT	SEGMENT
?IsNowAnnouncing@ioAnnounceManager@@QBE_NXZ PROC	; ioAnnounceManager::IsNowAnnouncing, COMDAT
; _this$ = ecx

; 91   : 	return !m_AnnounceList.empty();

  00000	33 c0		 xor	 eax, eax
  00002	39 41 08	 cmp	 DWORD PTR [ecx+8], eax
  00005	0f 95 c0	 setne	 al

; 92   : }

  00008	c3		 ret	 0
?IsNowAnnouncing@ioAnnounceManager@@QBE_NXZ ENDP	; ioAnnounceManager::IsNowAnnouncing
_TEXT	ENDS
PUBLIC	?GetSingleton@ioAnnounceManager@@SAAAV1@XZ	; ioAnnounceManager::GetSingleton
; Function compile flags: /Ogsp
;	COMDAT ?GetSingleton@ioAnnounceManager@@SAAAV1@XZ
_TEXT	SEGMENT
?GetSingleton@ioAnnounceManager@@SAAAV1@XZ PROC		; ioAnnounceManager::GetSingleton, COMDAT

; 276  : 	return Singleton<ioAnnounceManager>::GetSingleton();

  00000	a1 00 00 00 00	 mov	 eax, DWORD PTR ?ms_Singleton@?$Singleton@VioAnnounceManager@@@@1PAVioAnnounceManager@@A ; Singleton<ioAnnounceManager>::ms_Singleton

; 277  : }

  00005	c3		 ret	 0
?GetSingleton@ioAnnounceManager@@SAAAV1@XZ ENDP		; ioAnnounceManager::GetSingleton
_TEXT	ENDS
PUBLIC	??E?$_List_iterator@V?$_List_val@PAVioAnnounce@@V?$allocator@PAVioAnnounce@@@std@@@std@@@std@@QAEAAV01@XZ ; std::_List_iterator<std::_List_val<ioAnnounce *,std::allocator<ioAnnounce *> > >::operator++
; Function compile flags: /Ogsp
; File c:\program files (x86)\microsoft visual studio 10.0\vc\include\list
;	COMDAT ??E?$_List_iterator@V?$_List_val@PAVioAnnounce@@V?$allocator@PAVioAnnounce@@@std@@@std@@@std@@QAEAAV01@XZ
_TEXT	SEGMENT
??E?$_List_iterator@V?$_List_val@PAVioAnnounce@@V?$allocator@PAVioAnnounce@@@std@@@std@@@std@@QAEAAV01@XZ PROC ; std::_List_iterator<std::_List_val<ioAnnounce *,std::allocator<ioAnnounce *> > >::operator++, COMDAT
; _this$ = ecx

; 369  : 		{	// preincrement

  00000	8b c1		 mov	 eax, ecx

; 370  : 		++(*(_Mybase *)this);

  00002	8b 08		 mov	 ecx, DWORD PTR [eax]
  00004	8b 09		 mov	 ecx, DWORD PTR [ecx]
  00006	89 08		 mov	 DWORD PTR [eax], ecx

; 371  : 		return (*this);
; 372  : 		}

  00008	c3		 ret	 0
??E?$_List_iterator@V?$_List_val@PAVioAnnounce@@V?$allocator@PAVioAnnounce@@@std@@@std@@@std@@QAEAAV01@XZ ENDP ; std::_List_iterator<std::_List_val<ioAnnounce *,std::allocator<ioAnnounce *> > >::operator++
_TEXT	ENDS
PUBLIC	??9?$_List_const_iterator@V?$_List_val@PAVioAnnounce@@V?$allocator@PAVioAnnounce@@@std@@@std@@@std@@QBE_NABV01@@Z ; std::_List_const_iterator<std::_List_val<ioAnnounce *,std::allocator<ioAnnounce *> > >::operator!=
; Function compile flags: /Ogsp
;	COMDAT ??9?$_List_const_iterator@V?$_List_val@PAVioAnnounce@@V?$allocator@PAVioAnnounce@@@std@@@std@@@std@@QBE_NABV01@@Z
_TEXT	SEGMENT
__Right$ = 8						; size = 4
??9?$_List_const_iterator@V?$_List_val@PAVioAnnounce@@V?$allocator@PAVioAnnounce@@@std@@@std@@@std@@QBE_NABV01@@Z PROC ; std::_List_const_iterator<std::_List_val<ioAnnounce *,std::allocator<ioAnnounce *> > >::operator!=, COMDAT
; _this$ = ecx

; 299  : 		{	// test for iterator inequality

  00000	55		 push	 ebp
  00001	8b ec		 mov	 ebp, esp

; 300  : 		return (!(*this == _Right));

  00003	8b 01		 mov	 eax, DWORD PTR [ecx]
  00005	8b 55 08	 mov	 edx, DWORD PTR __Right$[ebp]
  00008	33 c9		 xor	 ecx, ecx
  0000a	3b 02		 cmp	 eax, DWORD PTR [edx]
  0000c	0f 95 c0	 setne	 al

; 301  : 		}

  0000f	5d		 pop	 ebp
  00010	c2 04 00	 ret	 4
??9?$_List_const_iterator@V?$_List_val@PAVioAnnounce@@V?$allocator@PAVioAnnounce@@@std@@@std@@@std@@QBE_NABV01@@Z ENDP ; std::_List_const_iterator<std::_List_val<ioAnnounce *,std::allocator<ioAnnounce *> > >::operator!=
_TEXT	ENDS
PUBLIC	??1?$_List_val@PAVioAnnounce@@V?$allocator@PAVioAnnounce@@@std@@@std@@QAE@XZ ; std::_List_val<ioAnnounce *,std::allocator<ioAnnounce *> >::~_List_val<ioAnnounce *,std::allocator<ioAnnounce *> >
; Function compile flags: /Ogsp
;	COMDAT ??1?$_List_val@PAVioAnnounce@@V?$allocator@PAVioAnnounce@@@std@@@std@@QAE@XZ
_TEXT	SEGMENT
??1?$_List_val@PAVioAnnounce@@V?$allocator@PAVioAnnounce@@@std@@@std@@QAE@XZ PROC ; std::_List_val<ioAnnounce *,std::allocator<ioAnnounce *> >::~_List_val<ioAnnounce *,std::allocator<ioAnnounce *> >, COMDAT
; _this$ = ecx

; 502  : 		this->_Alnod.deallocate(this->_Myhead, 1);

  00000	ff 31		 push	 DWORD PTR [ecx]
  00002	e8 00 00 00 00	 call	 ??3@YAXPAX@Z		; operator delete
  00007	59		 pop	 ecx

; 503  : 		}

  00008	c3		 ret	 0
??1?$_List_val@PAVioAnnounce@@V?$allocator@PAVioAnnounce@@@std@@@std@@QAE@XZ ENDP ; std::_List_val<ioAnnounce *,std::allocator<ioAnnounce *> >::~_List_val<ioAnnounce *,std::allocator<ioAnnounce *> >
_TEXT	ENDS
PUBLIC	??0?$_List_const_iterator@V?$_List_val@PAVioAnnounce@@V?$allocator@PAVioAnnounce@@@std@@@std@@@std@@QAE@XZ ; std::_List_const_iterator<std::_List_val<ioAnnounce *,std::allocator<ioAnnounce *> > >::_List_const_iterator<std::_List_val<ioAnnounce *,std::allocator<ioAnnounce *> > >
; Function compile flags: /Ogsp
;	COMDAT ??0?$_List_const_iterator@V?$_List_val@PAVioAnnounce@@V?$allocator@PAVioAnnounce@@@std@@@std@@@std@@QAE@XZ
_TEXT	SEGMENT
??0?$_List_const_iterator@V?$_List_val@PAVioAnnounce@@V?$allocator@PAVioAnnounce@@@std@@@std@@@std@@QAE@XZ PROC ; std::_List_const_iterator<std::_List_val<ioAnnounce *,std::allocator<ioAnnounce *> > >::_List_const_iterator<std::_List_val<ioAnnounce *,std::allocator<ioAnnounce *> > >, COMDAT
; _this$ = ecx

; 179  : 		{	// construct with null node pointer

  00000	8b c1		 mov	 eax, ecx
  00002	83 20 00	 and	 DWORD PTR [eax], 0

; 180  : 		}

  00005	c3		 ret	 0
??0?$_List_const_iterator@V?$_List_val@PAVioAnnounce@@V?$allocator@PAVioAnnounce@@@std@@@std@@@std@@QAE@XZ ENDP ; std::_List_const_iterator<std::_List_val<ioAnnounce *,std::allocator<ioAnnounce *> > >::_List_const_iterator<std::_List_val<ioAnnounce *,std::allocator<ioAnnounce *> > >
_TEXT	ENDS
PUBLIC	??D?$_List_const_iterator@V?$_List_val@PAVioAnnounce@@V?$allocator@PAVioAnnounce@@@std@@@std@@@std@@QBEABQAVioAnnounce@@XZ ; std::_List_const_iterator<std::_List_val<ioAnnounce *,std::allocator<ioAnnounce *> > >::operator*
; Function compile flags: /Ogsp
;	COMDAT ??D?$_List_const_iterator@V?$_List_val@PAVioAnnounce@@V?$allocator@PAVioAnnounce@@@std@@@std@@@std@@QBEABQAVioAnnounce@@XZ
_TEXT	SEGMENT
??D?$_List_const_iterator@V?$_List_val@PAVioAnnounce@@V?$allocator@PAVioAnnounce@@@std@@@std@@@std@@QBEABQAVioAnnounce@@XZ PROC ; std::_List_const_iterator<std::_List_val<ioAnnounce *,std::allocator<ioAnnounce *> > >::operator*, COMDAT
; _this$ = ecx

; 202  :  #if _ITERATOR_DEBUG_LEVEL == 2
; 203  : 		if (this->_Getcont() == 0
; 204  : 			|| this->_Ptr == 0
; 205  : 			|| this->_Ptr == ((_Mylist *)this->_Getcont())->_Myhead)
; 206  : 			{	// report error
; 207  : 			_DEBUG_ERROR("list iterator not dereferencable");
; 208  : 			_SCL_SECURE_OUT_OF_RANGE;
; 209  : 			}
; 210  : 
; 211  :  #elif _ITERATOR_DEBUG_LEVEL == 1
; 212  : 		_SCL_SECURE_VALIDATE(this->_Getcont() != 0 && this->_Ptr != 0);
; 213  : 		_SCL_SECURE_VALIDATE_RANGE(this->_Ptr !=
; 214  : 			((_Mylist *)this->_Getcont())->_Myhead);
; 215  :  #endif /* _ITERATOR_DEBUG_LEVEL */
; 216  : 
; 217  : 		return (_Mylist::_Myval(this->_Ptr));

  00000	8b 01		 mov	 eax, DWORD PTR [ecx]
  00002	83 c0 08	 add	 eax, 8

; 218  : 		}

  00005	c3		 ret	 0
??D?$_List_const_iterator@V?$_List_val@PAVioAnnounce@@V?$allocator@PAVioAnnounce@@@std@@@std@@@std@@QBEABQAVioAnnounce@@XZ ENDP ; std::_List_const_iterator<std::_List_val<ioAnnounce *,std::allocator<ioAnnounce *> > >::operator*
_TEXT	ENDS
PUBLIC	??0?$_List_nod@PAVioAnnounce@@V?$allocator@PAVioAnnounce@@@std@@@std@@QAE@V?$allocator@PAVioAnnounce@@@1@@Z ; std::_List_nod<ioAnnounce *,std::allocator<ioAnnounce *> >::_List_nod<ioAnnounce *,std::allocator<ioAnnounce *> >
; Function compile flags: /Ogsp
;	COMDAT ??0?$_List_nod@PAVioAnnounce@@V?$allocator@PAVioAnnounce@@@std@@@std@@QAE@V?$allocator@PAVioAnnounce@@@1@@Z
_TEXT	SEGMENT
__Al$ = 8						; size = 1
??0?$_List_nod@PAVioAnnounce@@V?$allocator@PAVioAnnounce@@@std@@@std@@QAE@V?$allocator@PAVioAnnounce@@@1@@Z PROC ; std::_List_nod<ioAnnounce *,std::allocator<ioAnnounce *> >::_List_nod<ioAnnounce *,std::allocator<ioAnnounce *> >, COMDAT
; _this$ = ecx

; 438  : 		{	// construct allocators from _Al

  00000	8b c1		 mov	 eax, ecx

; 439  : 		}

  00002	c2 04 00	 ret	 4
??0?$_List_nod@PAVioAnnounce@@V?$allocator@PAVioAnnounce@@@std@@@std@@QAE@V?$allocator@PAVioAnnounce@@@1@@Z ENDP ; std::_List_nod<ioAnnounce *,std::allocator<ioAnnounce *> >::_List_nod<ioAnnounce *,std::allocator<ioAnnounce *> >
_TEXT	ENDS
PUBLIC	?allocate@?$allocator@U_Node@?$_List_nod@PAVioAnnounce@@V?$allocator@PAVioAnnounce@@@std@@@std@@@std@@QAEPAU_Node@?$_List_nod@PAVioAnnounce@@V?$allocator@PAVioAnnounce@@@std@@@2@I@Z ; std::allocator<std::_List_nod<ioAnnounce *,std::allocator<ioAnnounce *> >::_Node>::allocate
; Function compile flags: /Ogsp
; File c:\program files (x86)\microsoft visual studio 10.0\vc\include\xmemory
;	COMDAT ?allocate@?$allocator@U_Node@?$_List_nod@PAVioAnnounce@@V?$allocator@PAVioAnnounce@@@std@@@std@@@std@@QAEPAU_Node@?$_List_nod@PAVioAnnounce@@V?$allocator@PAVioAnnounce@@@std@@@2@I@Z
_TEXT	SEGMENT
__Count$ = 8						; size = 4
?allocate@?$allocator@U_Node@?$_List_nod@PAVioAnnounce@@V?$allocator@PAVioAnnounce@@@std@@@std@@@std@@QAEPAU_Node@?$_List_nod@PAVioAnnounce@@V?$allocator@PAVioAnnounce@@@std@@@2@I@Z PROC ; std::allocator<std::_List_nod<ioAnnounce *,std::allocator<ioAnnounce *> >::_Node>::allocate, COMDAT
; _this$ = ecx

; 186  : 		{	// allocate array of _Count elements

  00000	55		 push	 ebp
  00001	8b ec		 mov	 ebp, esp

; 187  : 		return (_Allocate(_Count, (pointer)0));

  00003	6a 00		 push	 0
  00005	ff 75 08	 push	 DWORD PTR __Count$[ebp]
  00008	e8 00 00 00 00	 call	 ??$_Allocate@U_Node@?$_List_nod@PAVioAnnounce@@V?$allocator@PAVioAnnounce@@@std@@@std@@@std@@YAPAU_Node@?$_List_nod@PAVioAnnounce@@V?$allocator@PAVioAnnounce@@@std@@@0@IPAU120@@Z ; std::_Allocate<std::_List_nod<ioAnnounce *,std::allocator<ioAnnounce *> >::_Node>
  0000d	59		 pop	 ecx
  0000e	59		 pop	 ecx

; 188  : 		}

  0000f	5d		 pop	 ebp
  00010	c2 04 00	 ret	 4
?allocate@?$allocator@U_Node@?$_List_nod@PAVioAnnounce@@V?$allocator@PAVioAnnounce@@@std@@@std@@@std@@QAEPAU_Node@?$_List_nod@PAVioAnnounce@@V?$allocator@PAVioAnnounce@@@std@@@2@I@Z ENDP ; std::allocator<std::_List_nod<ioAnnounce *,std::allocator<ioAnnounce *> >::_Node>::allocate
_TEXT	ENDS
PUBLIC	?max_size@?$list@PAVioAnnounce@@V?$allocator@PAVioAnnounce@@@std@@@std@@QBEIXZ ; std::list<ioAnnounce *,std::allocator<ioAnnounce *> >::max_size
; Function compile flags: /Ogsp
; File c:\program files (x86)\microsoft visual studio 10.0\vc\include\list
;	COMDAT ?max_size@?$list@PAVioAnnounce@@V?$allocator@PAVioAnnounce@@@std@@@std@@QBEIXZ
_TEXT	SEGMENT
?max_size@?$list@PAVioAnnounce@@V?$allocator@PAVioAnnounce@@@std@@@std@@QBEIXZ PROC ; std::list<ioAnnounce *,std::allocator<ioAnnounce *> >::max_size, COMDAT
; _this$ = ecx

; 882  : 		return (this->_Alval.max_size());

  00000	b8 ff ff ff 3f	 mov	 eax, 1073741823		; 3fffffffH

; 883  : 		}

  00005	c3		 ret	 0
?max_size@?$list@PAVioAnnounce@@V?$allocator@PAVioAnnounce@@@std@@@std@@QBEIXZ ENDP ; std::list<ioAnnounce *,std::allocator<ioAnnounce *> >::max_size
_TEXT	ENDS
PUBLIC	??0?$_List_unchecked_const_iterator@V?$_List_val@PAVioAnnounce@@V?$allocator@PAVioAnnounce@@@std@@@std@@U_Iterator_base0@2@@std@@QAE@PAU_Node@?$_List_nod@PAVioAnnounce@@V?$allocator@PAVioAnnounce@@@std@@@1@PBV?$_List_val@PAVioAnnounce@@V?$allocator@PAVioAnnounce@@@std@@@1@@Z ; std::_List_unchecked_const_iterator<std::_List_val<ioAnnounce *,std::allocator<ioAnnounce *> >,std::_Iterator_base0>::_List_unchecked_const_iterator<std::_List_val<ioAnnounce *,std::allocator<ioAnnounce *> >,std::_Iterator_base0>
; Function compile flags: /Ogsp
;	COMDAT ??0?$_List_unchecked_const_iterator@V?$_List_val@PAVioAnnounce@@V?$allocator@PAVioAnnounce@@@std@@@std@@U_Iterator_base0@2@@std@@QAE@PAU_Node@?$_List_nod@PAVioAnnounce@@V?$allocator@PAVioAnnounce@@@std@@@1@PBV?$_List_val@PAVioAnnounce@@V?$allocator@PAVioAnnounce@@@std@@@1@@Z
_TEXT	SEGMENT
__Pnode$ = 8						; size = 4
__Plist$ = 12						; size = 4
??0?$_List_unchecked_const_iterator@V?$_List_val@PAVioAnnounce@@V?$allocator@PAVioAnnounce@@@std@@@std@@U_Iterator_base0@2@@std@@QAE@PAU_Node@?$_List_nod@PAVioAnnounce@@V?$allocator@PAVioAnnounce@@@std@@@1@PBV?$_List_val@PAVioAnnounce@@V?$allocator@PAVioAnnounce@@@std@@@1@@Z PROC ; std::_List_unchecked_const_iterator<std::_List_val<ioAnnounce *,std::allocator<ioAnnounce *> >,std::_Iterator_base0>::_List_unchecked_const_iterator<std::_List_val<ioAnnounce *,std::allocator<ioAnnounce *> >,std::_Iterator_base0>, COMDAT
; _this$ = ecx

; 41   : 		{	// construct with node pointer _Pnode

  00000	55		 push	 ebp
  00001	8b ec		 mov	 ebp, esp
  00003	8b c1		 mov	 eax, ecx
  00005	8b 4d 08	 mov	 ecx, DWORD PTR __Pnode$[ebp]
  00008	89 08		 mov	 DWORD PTR [eax], ecx

; 42   : 		this->_Adopt(_Plist);
; 43   : 		}

  0000a	5d		 pop	 ebp
  0000b	c2 08 00	 ret	 8
??0?$_List_unchecked_const_iterator@V?$_List_val@PAVioAnnounce@@V?$allocator@PAVioAnnounce@@@std@@@std@@U_Iterator_base0@2@@std@@QAE@PAU_Node@?$_List_nod@PAVioAnnounce@@V?$allocator@PAVioAnnounce@@@std@@@1@PBV?$_List_val@PAVioAnnounce@@V?$allocator@PAVioAnnounce@@@std@@@1@@Z ENDP ; std::_List_unchecked_const_iterator<std::_List_val<ioAnnounce *,std::allocator<ioAnnounce *> >,std::_Iterator_base0>::_List_unchecked_const_iterator<std::_List_val<ioAnnounce *,std::allocator<ioAnnounce *> >,std::_Iterator_base0>
_TEXT	ENDS
PUBLIC	__$ArrayPad$
PUBLIC	??$SetTitle_e@$0BA@@ioINILoader@@QAEXAAY0BA@$$CBD@Z ; ioINILoader::SetTitle_e<16>
EXTRN	__imp_?SetTitle@ioINILoader@@QAEXPBD@Z:PROC
EXTRN	___security_cookie:DWORD
EXTRN	@__security_check_cookie@4:PROC
; Function compile flags: /Ogsp
; File d:\lost saga for developer\youtube\tutorial\source\src\io3dengine\ioiniloader.h
;	COMDAT ??$SetTitle_e@$0BA@@ioINILoader@@QAEXAAY0BA@$$CBD@Z
_TEXT	SEGMENT
__t$ = -24						; size = 16
__$ArrayPad$ = -4					; size = 4
_t$ = 8							; size = 4
??$SetTitle_e@$0BA@@ioINILoader@@QAEXAAY0BA@$$CBD@Z PROC ; ioINILoader::SetTitle_e<16>, COMDAT
; _this$ = ecx

; 188  : 	{

  00000	55		 push	 ebp
  00001	8b ec		 mov	 ebp, esp
  00003	83 ec 18	 sub	 esp, 24			; 00000018H
  00006	a1 00 00 00 00	 mov	 eax, DWORD PTR ___security_cookie
  0000b	33 c5		 xor	 eax, ebp
  0000d	89 45 fc	 mov	 DWORD PTR __$ArrayPad$[ebp], eax
  00010	8b 45 08	 mov	 eax, DWORD PTR _t$[ebp]

; 189  : 		_ENCSTR(t, _t);

  00013	8a 10		 mov	 dl, BYTE PTR [eax]
  00015	56		 push	 esi
  00016	8b f1		 mov	 esi, ecx
  00018	84 d2		 test	 dl, dl
  0001a	0f 84 8c 01 00
	00		 je	 $LN96@SetTitle_e
  00020	80 f2 ed	 xor	 dl, -19			; ffffffedH
  00023	88 55 e8	 mov	 BYTE PTR __t$[ebp], dl
  00026	8a 50 01	 mov	 dl, BYTE PTR [eax+1]
  00029	84 d2		 test	 dl, dl
  0002b	0f 84 75 01 00
	00		 je	 $LN95@SetTitle_e
  00031	80 f2 ec	 xor	 dl, -20			; ffffffecH
  00034	88 55 e9	 mov	 BYTE PTR __t$[ebp+1], dl
  00037	8a 50 02	 mov	 dl, BYTE PTR [eax+2]
  0003a	84 d2		 test	 dl, dl
  0003c	0f 84 5e 01 00
	00		 je	 $LN94@SetTitle_e
  00042	b1 eb		 mov	 cl, -21			; ffffffebH
  00044	32 d1		 xor	 dl, cl
  00046	88 55 ea	 mov	 BYTE PTR __t$[ebp+2], dl
  00049	8a 50 03	 mov	 dl, BYTE PTR [eax+3]
  0004c	84 d2		 test	 dl, dl
  0004e	0f 84 46 01 00
	00		 je	 $LN93@SetTitle_e
  00054	80 f2 ea	 xor	 dl, -22			; ffffffeaH
  00057	88 55 eb	 mov	 BYTE PTR __t$[ebp+3], dl
  0005a	8a 50 04	 mov	 dl, BYTE PTR [eax+4]
  0005d	84 d2		 test	 dl, dl
  0005f	0f 84 2f 01 00
	00		 je	 $LN92@SetTitle_e
  00065	80 f2 ed	 xor	 dl, -19			; ffffffedH
  00068	88 55 ec	 mov	 BYTE PTR __t$[ebp+4], dl
  0006b	8a 50 05	 mov	 dl, BYTE PTR [eax+5]
  0006e	84 d2		 test	 dl, dl
  00070	0f 84 18 01 00
	00		 je	 $LN91@SetTitle_e
  00076	80 f2 ec	 xor	 dl, -20			; ffffffecH
  00079	88 55 ed	 mov	 BYTE PTR __t$[ebp+5], dl
  0007c	8a 50 06	 mov	 dl, BYTE PTR [eax+6]
  0007f	84 d2		 test	 dl, dl
  00081	0f 84 02 01 00
	00		 je	 $LN90@SetTitle_e
  00087	32 d1		 xor	 dl, cl
  00089	88 55 ee	 mov	 BYTE PTR __t$[ebp+6], dl
  0008c	8a 50 07	 mov	 dl, BYTE PTR [eax+7]
  0008f	84 d2		 test	 dl, dl
  00091	0f 84 ec 00 00
	00		 je	 $LN89@SetTitle_e
  00097	80 f2 ea	 xor	 dl, -22			; ffffffeaH
  0009a	88 55 ef	 mov	 BYTE PTR __t$[ebp+7], dl
  0009d	8a 50 08	 mov	 dl, BYTE PTR [eax+8]
  000a0	84 d2		 test	 dl, dl
  000a2	0f 84 d5 00 00
	00		 je	 $LN88@SetTitle_e
  000a8	80 f2 ed	 xor	 dl, -19			; ffffffedH
  000ab	88 55 f0	 mov	 BYTE PTR __t$[ebp+8], dl
  000ae	8a 50 09	 mov	 dl, BYTE PTR [eax+9]
  000b1	84 d2		 test	 dl, dl
  000b3	0f 84 be 00 00
	00		 je	 $LN87@SetTitle_e
  000b9	80 f2 ec	 xor	 dl, -20			; ffffffecH
  000bc	88 55 f1	 mov	 BYTE PTR __t$[ebp+9], dl
  000bf	8a 50 0a	 mov	 dl, BYTE PTR [eax+10]
  000c2	84 d2		 test	 dl, dl
  000c4	0f 84 a8 00 00
	00		 je	 $LN86@SetTitle_e
  000ca	32 d1		 xor	 dl, cl
  000cc	88 55 f2	 mov	 BYTE PTR __t$[ebp+10], dl
  000cf	8a 50 0b	 mov	 dl, BYTE PTR [eax+11]
  000d2	84 d2		 test	 dl, dl
  000d4	0f 84 92 00 00
	00		 je	 $LN85@SetTitle_e
  000da	80 f2 ea	 xor	 dl, -22			; ffffffeaH
  000dd	88 55 f3	 mov	 BYTE PTR __t$[ebp+11], dl
  000e0	8a 50 0c	 mov	 dl, BYTE PTR [eax+12]
  000e3	84 d2		 test	 dl, dl
  000e5	74 7f		 je	 SHORT $LN84@SetTitle_e
  000e7	80 f2 ed	 xor	 dl, -19			; ffffffedH
  000ea	88 55 f4	 mov	 BYTE PTR __t$[ebp+12], dl
  000ed	8a 50 0d	 mov	 dl, BYTE PTR [eax+13]
  000f0	84 d2		 test	 dl, dl
  000f2	74 6c		 je	 SHORT $LN83@SetTitle_e
  000f4	80 f2 ec	 xor	 dl, -20			; ffffffecH
  000f7	88 55 f5	 mov	 BYTE PTR __t$[ebp+13], dl
  000fa	8a 50 0e	 mov	 dl, BYTE PTR [eax+14]
  000fd	84 d2		 test	 dl, dl
  000ff	74 5a		 je	 SHORT $LN82@SetTitle_e
  00101	32 d1		 xor	 dl, cl
  00103	80 78 0f 00	 cmp	 BYTE PTR [eax+15], 0
  00107	88 55 f6	 mov	 BYTE PTR __t$[ebp+14], dl
  0010a	0f 84 a0 00 00
	00		 je	 $LN1@SetTitle_e
  00110	8a 50 10	 mov	 dl, BYTE PTR [eax+16]
  00113	84 d2		 test	 dl, dl
  00115	74 3e		 je	 SHORT $LN80@SetTitle_e
  00117	80 f2 ed	 xor	 dl, -19			; ffffffedH
  0011a	88 55 f8	 mov	 BYTE PTR __t$[ebp+16], dl
  0011d	8a 50 11	 mov	 dl, BYTE PTR [eax+17]
  00120	84 d2		 test	 dl, dl
  00122	74 2b		 je	 SHORT $LN79@SetTitle_e
  00124	80 f2 ec	 xor	 dl, -20			; ffffffecH
  00127	88 55 f9	 mov	 BYTE PTR __t$[ebp+17], dl
  0012a	8a 50 12	 mov	 dl, BYTE PTR [eax+18]
  0012d	84 d2		 test	 dl, dl
  0012f	74 19		 je	 SHORT $LN78@SetTitle_e
  00131	8a 40 13	 mov	 al, BYTE PTR [eax+19]
  00134	32 d1		 xor	 dl, cl
  00136	88 55 fa	 mov	 BYTE PTR __t$[ebp+18], dl
  00139	84 c0		 test	 al, al
  0013b	74 07		 je	 SHORT $LN77@SetTitle_e
  0013d	34 ea		 xor	 al, -22			; ffffffeaH
  0013f	88 45 fb	 mov	 BYTE PTR __t$[ebp+19], al
  00142	eb 6c		 jmp	 SHORT $LN1@SetTitle_e
$LN77@SetTitle_e:
  00144	c6 45 fb ea	 mov	 BYTE PTR __t$[ebp+19], -22 ; ffffffeaH
  00148	eb 66		 jmp	 SHORT $LN1@SetTitle_e
$LN78@SetTitle_e:
  0014a	88 4d fa	 mov	 BYTE PTR __t$[ebp+18], cl
  0014d	eb 61		 jmp	 SHORT $LN1@SetTitle_e
$LN79@SetTitle_e:
  0014f	c6 45 f9 ec	 mov	 BYTE PTR __t$[ebp+17], -20 ; ffffffecH
  00153	eb 5b		 jmp	 SHORT $LN1@SetTitle_e
$LN80@SetTitle_e:
  00155	c6 45 f8 ed	 mov	 BYTE PTR __t$[ebp+16], -19 ; ffffffedH
  00159	eb 55		 jmp	 SHORT $LN1@SetTitle_e
$LN82@SetTitle_e:
  0015b	88 4d f6	 mov	 BYTE PTR __t$[ebp+14], cl
  0015e	eb 50		 jmp	 SHORT $LN1@SetTitle_e
$LN83@SetTitle_e:
  00160	c6 45 f5 ec	 mov	 BYTE PTR __t$[ebp+13], -20 ; ffffffecH
  00164	eb 4a		 jmp	 SHORT $LN1@SetTitle_e
$LN84@SetTitle_e:
  00166	c6 45 f4 ed	 mov	 BYTE PTR __t$[ebp+12], -19 ; ffffffedH
  0016a	eb 44		 jmp	 SHORT $LN1@SetTitle_e
$LN85@SetTitle_e:
  0016c	c6 45 f3 ea	 mov	 BYTE PTR __t$[ebp+11], -22 ; ffffffeaH
  00170	eb 3e		 jmp	 SHORT $LN1@SetTitle_e
$LN86@SetTitle_e:
  00172	88 4d f2	 mov	 BYTE PTR __t$[ebp+10], cl
  00175	eb 39		 jmp	 SHORT $LN1@SetTitle_e
$LN87@SetTitle_e:
  00177	c6 45 f1 ec	 mov	 BYTE PTR __t$[ebp+9], -20 ; ffffffecH
  0017b	eb 33		 jmp	 SHORT $LN1@SetTitle_e
$LN88@SetTitle_e:
  0017d	c6 45 f0 ed	 mov	 BYTE PTR __t$[ebp+8], -19 ; ffffffedH
  00181	eb 2d		 jmp	 SHORT $LN1@SetTitle_e
$LN89@SetTitle_e:
  00183	c6 45 ef ea	 mov	 BYTE PTR __t$[ebp+7], -22 ; ffffffeaH
  00187	eb 27		 jmp	 SHORT $LN1@SetTitle_e
$LN90@SetTitle_e:
  00189	88 4d ee	 mov	 BYTE PTR __t$[ebp+6], cl
  0018c	eb 22		 jmp	 SHORT $LN1@SetTitle_e
$LN91@SetTitle_e:
  0018e	c6 45 ed ec	 mov	 BYTE PTR __t$[ebp+5], -20 ; ffffffecH
  00192	eb 1c		 jmp	 SHORT $LN1@SetTitle_e
$LN92@SetTitle_e:
  00194	c6 45 ec ed	 mov	 BYTE PTR __t$[ebp+4], -19 ; ffffffedH
  00198	eb 16		 jmp	 SHORT $LN1@SetTitle_e
$LN93@SetTitle_e:
  0019a	c6 45 eb ea	 mov	 BYTE PTR __t$[ebp+3], -22 ; ffffffeaH
  0019e	eb 10		 jmp	 SHORT $LN1@SetTitle_e
$LN94@SetTitle_e:
  001a0	c6 45 ea eb	 mov	 BYTE PTR __t$[ebp+2], -21 ; ffffffebH
  001a4	eb 0a		 jmp	 SHORT $LN1@SetTitle_e
$LN95@SetTitle_e:
  001a6	c6 45 e9 ec	 mov	 BYTE PTR __t$[ebp+1], -20 ; ffffffecH
  001aa	eb 04		 jmp	 SHORT $LN1@SetTitle_e
$LN96@SetTitle_e:
  001ac	c6 45 e8 ed	 mov	 BYTE PTR __t$[ebp], -19	; ffffffedH
$LN1@SetTitle_e:
  001b0	6a 03		 push	 3
  001b2	8d 45 e8	 lea	 eax, DWORD PTR __t$[ebp]
  001b5	c6 45 f7 00	 mov	 BYTE PTR __t$[ebp+15], 0
  001b9	5a		 pop	 edx
$LL104@SetTitle_e:
  001ba	81 30 ed ec eb
	ea		 xor	 DWORD PTR [eax], -353637139 ; eaebecedH
  001c0	83 c0 04	 add	 eax, 4
  001c3	4a		 dec	 edx
  001c4	75 f4		 jne	 SHORT $LL104@SetTitle_e
  001c6	6a 0c		 push	 12			; 0000000cH
  001c8	58		 pop	 eax
$LL101@SetTitle_e:
  001c9	8b c8		 mov	 ecx, eax
  001cb	81 e1 03 00 00
	80		 and	 ecx, -2147483645	; 80000003H
  001d1	79 05		 jns	 SHORT $LN111@SetTitle_e
  001d3	49		 dec	 ecx
  001d4	83 c9 fc	 or	 ecx, -4			; fffffffcH
  001d7	41		 inc	 ecx
$LN111@SetTitle_e:
  001d8	b2 ed		 mov	 dl, -19			; ffffffedH
  001da	2a d1		 sub	 dl, cl
  001dc	30 54 05 e8	 xor	 BYTE PTR __t$[ebp+eax], dl
  001e0	40		 inc	 eax
  001e1	83 f8 0f	 cmp	 eax, 15			; 0000000fH
  001e4	7c e3		 jl	 SHORT $LL101@SetTitle_e

; 190  : 		SetTitle(_t);

  001e6	8d 45 e8	 lea	 eax, DWORD PTR __t$[ebp]
  001e9	50		 push	 eax
  001ea	8b ce		 mov	 ecx, esi
  001ec	ff 15 00 00 00
	00		 call	 DWORD PTR __imp_?SetTitle@ioINILoader@@QAEXPBD@Z

; 191  : 	}

  001f2	8b 4d fc	 mov	 ecx, DWORD PTR __$ArrayPad$[ebp]
  001f5	33 cd		 xor	 ecx, ebp
  001f7	5e		 pop	 esi
  001f8	e8 00 00 00 00	 call	 @__security_check_cookie@4
  001fd	c9		 leave
  001fe	c2 04 00	 ret	 4
??$SetTitle_e@$0BA@@ioINILoader@@QAEXAAY0BA@$$CBD@Z ENDP ; ioINILoader::SetTitle_e<16>
_TEXT	ENDS
PUBLIC	__$ArrayPad$
PUBLIC	??$LoadString_e@$06@ioINILoader@@QAEXAAY06$$CBDAAY00$$CBDPADH@Z ; ioINILoader::LoadString_e<7>
EXTRN	__imp_?LoadStringA@ioINILoader@@QAEXPBD0PADH@Z:PROC
; Function compile flags: /Ogsp
;	COMDAT ??$LoadString_e@$06@ioINILoader@@QAEXAAY06$$CBDAAY00$$CBDPADH@Z
_TEXT	SEGMENT
__k$ = -16						; size = 7
__$ArrayPad$ = -4					; size = 4
_k$ = 8							; size = 4
_d$ = 12						; size = 4
_b$ = 16						; size = 4
_i$ = 20						; size = 4
??$LoadString_e@$06@ioINILoader@@QAEXAAY06$$CBDAAY00$$CBDPADH@Z PROC ; ioINILoader::LoadString_e<7>, COMDAT
; _this$ = ecx

; 161  : 	{

  00000	55		 push	 ebp
  00001	8b ec		 mov	 ebp, esp
  00003	83 ec 10	 sub	 esp, 16			; 00000010H
  00006	a1 00 00 00 00	 mov	 eax, DWORD PTR ___security_cookie
  0000b	33 c5		 xor	 eax, ebp
  0000d	89 45 fc	 mov	 DWORD PTR __$ArrayPad$[ebp], eax
  00010	8b 45 08	 mov	 eax, DWORD PTR _k$[ebp]

; 162  : 		_ENCSTR(k, _k);

  00013	8a 10		 mov	 dl, BYTE PTR [eax]
  00015	53		 push	 ebx
  00016	56		 push	 esi
  00017	8b 75 0c	 mov	 esi, DWORD PTR _d$[ebp]
  0001a	57		 push	 edi
  0001b	8b 7d 10	 mov	 edi, DWORD PTR _b$[ebp]
  0001e	84 d2		 test	 dl, dl
  00020	0f 84 c0 00 00
	00		 je	 $LN96@LoadString
  00026	80 f2 ed	 xor	 dl, -19			; ffffffedH
  00029	88 55 f0	 mov	 BYTE PTR __k$[ebp], dl
  0002c	8a 50 01	 mov	 dl, BYTE PTR [eax+1]
  0002f	84 d2		 test	 dl, dl
  00031	0f 84 a9 00 00
	00		 je	 $LN95@LoadString
  00037	80 f2 ec	 xor	 dl, -20			; ffffffecH
  0003a	88 55 f1	 mov	 BYTE PTR __k$[ebp+1], dl
  0003d	8a 50 02	 mov	 dl, BYTE PTR [eax+2]
  00040	84 d2		 test	 dl, dl
  00042	0f 84 92 00 00
	00		 je	 $LN94@LoadString
  00048	80 f2 eb	 xor	 dl, -21			; ffffffebH
  0004b	88 55 f2	 mov	 BYTE PTR __k$[ebp+2], dl
  0004e	8a 50 03	 mov	 dl, BYTE PTR [eax+3]
  00051	84 d2		 test	 dl, dl
  00053	74 7f		 je	 SHORT $LN93@LoadString
  00055	80 f2 ea	 xor	 dl, -22			; ffffffeaH
  00058	88 55 f3	 mov	 BYTE PTR __k$[ebp+3], dl
  0005b	8a 50 04	 mov	 dl, BYTE PTR [eax+4]
  0005e	84 d2		 test	 dl, dl
  00060	74 6c		 je	 SHORT $LN92@LoadString
  00062	80 f2 ed	 xor	 dl, -19			; ffffffedH
  00065	88 55 f4	 mov	 BYTE PTR __k$[ebp+4], dl
  00068	8a 50 05	 mov	 dl, BYTE PTR [eax+5]
  0006b	84 d2		 test	 dl, dl
  0006d	74 59		 je	 SHORT $LN91@LoadString
  0006f	80 f2 ec	 xor	 dl, -20			; ffffffecH
  00072	80 78 06 00	 cmp	 BYTE PTR [eax+6], 0
  00076	88 55 f5	 mov	 BYTE PTR __k$[ebp+5], dl
  00079	74 6f		 je	 SHORT $LN1@LoadString
  0007b	8a 50 07	 mov	 dl, BYTE PTR [eax+7]
  0007e	84 d2		 test	 dl, dl
  00080	74 40		 je	 SHORT $LN89@LoadString
  00082	80 f2 ea	 xor	 dl, -22			; ffffffeaH
  00085	88 55 f7	 mov	 BYTE PTR __k$[ebp+7], dl
  00088	8a 50 08	 mov	 dl, BYTE PTR [eax+8]
  0008b	84 d2		 test	 dl, dl
  0008d	74 2d		 je	 SHORT $LN88@LoadString
  0008f	80 f2 ed	 xor	 dl, -19			; ffffffedH
  00092	88 55 f8	 mov	 BYTE PTR __k$[ebp+8], dl
  00095	8a 50 09	 mov	 dl, BYTE PTR [eax+9]
  00098	84 d2		 test	 dl, dl
  0009a	74 1a		 je	 SHORT $LN87@LoadString
  0009c	8a 40 0a	 mov	 al, BYTE PTR [eax+10]
  0009f	80 f2 ec	 xor	 dl, -20			; ffffffecH
  000a2	88 55 f9	 mov	 BYTE PTR __k$[ebp+9], dl
  000a5	84 c0		 test	 al, al
  000a7	74 07		 je	 SHORT $LN86@LoadString
  000a9	34 eb		 xor	 al, -21			; ffffffebH
  000ab	88 45 fa	 mov	 BYTE PTR __k$[ebp+10], al
  000ae	eb 3a		 jmp	 SHORT $LN1@LoadString
$LN86@LoadString:
  000b0	c6 45 fa eb	 mov	 BYTE PTR __k$[ebp+10], -21 ; ffffffebH
  000b4	eb 34		 jmp	 SHORT $LN1@LoadString
$LN87@LoadString:
  000b6	c6 45 f9 ec	 mov	 BYTE PTR __k$[ebp+9], -20 ; ffffffecH
  000ba	eb 2e		 jmp	 SHORT $LN1@LoadString
$LN88@LoadString:
  000bc	c6 45 f8 ed	 mov	 BYTE PTR __k$[ebp+8], -19 ; ffffffedH
  000c0	eb 28		 jmp	 SHORT $LN1@LoadString
$LN89@LoadString:
  000c2	c6 45 f7 ea	 mov	 BYTE PTR __k$[ebp+7], -22 ; ffffffeaH
  000c6	eb 22		 jmp	 SHORT $LN1@LoadString
$LN91@LoadString:
  000c8	c6 45 f5 ec	 mov	 BYTE PTR __k$[ebp+5], -20 ; ffffffecH
  000cc	eb 1c		 jmp	 SHORT $LN1@LoadString
$LN92@LoadString:
  000ce	c6 45 f4 ed	 mov	 BYTE PTR __k$[ebp+4], -19 ; ffffffedH
  000d2	eb 16		 jmp	 SHORT $LN1@LoadString
$LN93@LoadString:
  000d4	c6 45 f3 ea	 mov	 BYTE PTR __k$[ebp+3], -22 ; ffffffeaH
  000d8	eb 10		 jmp	 SHORT $LN1@LoadString
$LN94@LoadString:
  000da	c6 45 f2 eb	 mov	 BYTE PTR __k$[ebp+2], -21 ; ffffffebH
  000de	eb 0a		 jmp	 SHORT $LN1@LoadString
$LN95@LoadString:
  000e0	c6 45 f1 ec	 mov	 BYTE PTR __k$[ebp+1], -20 ; ffffffecH
  000e4	eb 04		 jmp	 SHORT $LN1@LoadString
$LN96@LoadString:
  000e6	c6 45 f0 ed	 mov	 BYTE PTR __k$[ebp], -19	; ffffffedH
$LN1@LoadString:
  000ea	81 75 f0 ed ec
	eb ea		 xor	 DWORD PTR __k$[ebp], -353637139 ; eaebecedH
  000f1	6a 04		 push	 4
  000f3	c6 45 f6 00	 mov	 BYTE PTR __k$[ebp+6], 0
  000f7	58		 pop	 eax
$LL101@LoadString:
  000f8	8b d0		 mov	 edx, eax
  000fa	81 e2 03 00 00
	80		 and	 edx, -2147483645	; 80000003H
  00100	79 05		 jns	 SHORT $LN111@LoadString
  00102	4a		 dec	 edx
  00103	83 ca fc	 or	 edx, -4			; fffffffcH
  00106	42		 inc	 edx
$LN111@LoadString:
  00107	b3 ed		 mov	 bl, -19			; ffffffedH
  00109	2a da		 sub	 bl, dl
  0010b	30 5c 05 f0	 xor	 BYTE PTR __k$[ebp+eax], bl
  0010f	40		 inc	 eax
  00110	83 f8 06	 cmp	 eax, 6
  00113	7c e3		 jl	 SHORT $LL101@LoadString

; 163  : 		LoadString(_k, d, b, i);

  00115	ff 75 14	 push	 DWORD PTR _i$[ebp]
  00118	8d 45 f0	 lea	 eax, DWORD PTR __k$[ebp]
  0011b	57		 push	 edi
  0011c	56		 push	 esi
  0011d	50		 push	 eax
  0011e	ff 15 00 00 00
	00		 call	 DWORD PTR __imp_?LoadStringA@ioINILoader@@QAEXPBD0PADH@Z

; 164  : 	}

  00124	8b 4d fc	 mov	 ecx, DWORD PTR __$ArrayPad$[ebp]
  00127	5f		 pop	 edi
  00128	5e		 pop	 esi
  00129	33 cd		 xor	 ecx, ebp
  0012b	5b		 pop	 ebx
  0012c	e8 00 00 00 00	 call	 @__security_check_cookie@4
  00131	c9		 leave
  00132	c2 10 00	 ret	 16			; 00000010H
??$LoadString_e@$06@ioINILoader@@QAEXAAY06$$CBDAAY00$$CBDPADH@Z ENDP ; ioINILoader::LoadString_e<7>
_TEXT	ENDS
PUBLIC	__$ArrayPad$
PUBLIC	??$LoadString_e@$07@ioINILoader@@QAEXAAY07$$CBDAAY00$$CBDPADH@Z ; ioINILoader::LoadString_e<8>
; Function compile flags: /Ogsp
;	COMDAT ??$LoadString_e@$07@ioINILoader@@QAEXAAY07$$CBDAAY00$$CBDPADH@Z
_TEXT	SEGMENT
__k$ = -16						; size = 8
__$ArrayPad$ = -4					; size = 4
_k$ = 8							; size = 4
_d$ = 12						; size = 4
_b$ = 16						; size = 4
_i$ = 20						; size = 4
??$LoadString_e@$07@ioINILoader@@QAEXAAY07$$CBDAAY00$$CBDPADH@Z PROC ; ioINILoader::LoadString_e<8>, COMDAT
; _this$ = ecx

; 161  : 	{

  00000	55		 push	 ebp
  00001	8b ec		 mov	 ebp, esp
  00003	83 ec 10	 sub	 esp, 16			; 00000010H
  00006	a1 00 00 00 00	 mov	 eax, DWORD PTR ___security_cookie
  0000b	33 c5		 xor	 eax, ebp
  0000d	89 45 fc	 mov	 DWORD PTR __$ArrayPad$[ebp], eax
  00010	8b 45 08	 mov	 eax, DWORD PTR _k$[ebp]

; 162  : 		_ENCSTR(k, _k);

  00013	8a 10		 mov	 dl, BYTE PTR [eax]
  00015	53		 push	 ebx
  00016	56		 push	 esi
  00017	8b 75 0c	 mov	 esi, DWORD PTR _d$[ebp]
  0001a	57		 push	 edi
  0001b	8b 7d 10	 mov	 edi, DWORD PTR _b$[ebp]
  0001e	84 d2		 test	 dl, dl
  00020	0f 84 d7 00 00
	00		 je	 $LN96@LoadString@2
  00026	80 f2 ed	 xor	 dl, -19			; ffffffedH
  00029	88 55 f0	 mov	 BYTE PTR __k$[ebp], dl
  0002c	8a 50 01	 mov	 dl, BYTE PTR [eax+1]
  0002f	84 d2		 test	 dl, dl
  00031	0f 84 c0 00 00
	00		 je	 $LN95@LoadString@2
  00037	80 f2 ec	 xor	 dl, -20			; ffffffecH
  0003a	88 55 f1	 mov	 BYTE PTR __k$[ebp+1], dl
  0003d	8a 50 02	 mov	 dl, BYTE PTR [eax+2]
  00040	84 d2		 test	 dl, dl
  00042	0f 84 a9 00 00
	00		 je	 $LN94@LoadString@2
  00048	80 f2 eb	 xor	 dl, -21			; ffffffebH
  0004b	88 55 f2	 mov	 BYTE PTR __k$[ebp+2], dl
  0004e	8a 50 03	 mov	 dl, BYTE PTR [eax+3]
  00051	84 d2		 test	 dl, dl
  00053	0f 84 92 00 00
	00		 je	 $LN93@LoadString@2
  00059	80 f2 ea	 xor	 dl, -22			; ffffffeaH
  0005c	88 55 f3	 mov	 BYTE PTR __k$[ebp+3], dl
  0005f	8a 50 04	 mov	 dl, BYTE PTR [eax+4]
  00062	84 d2		 test	 dl, dl
  00064	74 7f		 je	 SHORT $LN92@LoadString@2
  00066	80 f2 ed	 xor	 dl, -19			; ffffffedH
  00069	88 55 f4	 mov	 BYTE PTR __k$[ebp+4], dl
  0006c	8a 50 05	 mov	 dl, BYTE PTR [eax+5]
  0006f	84 d2		 test	 dl, dl
  00071	74 6c		 je	 SHORT $LN91@LoadString@2
  00073	80 f2 ec	 xor	 dl, -20			; ffffffecH
  00076	88 55 f5	 mov	 BYTE PTR __k$[ebp+5], dl
  00079	8a 50 06	 mov	 dl, BYTE PTR [eax+6]
  0007c	84 d2		 test	 dl, dl
  0007e	74 59		 je	 SHORT $LN90@LoadString@2
  00080	80 f2 eb	 xor	 dl, -21			; ffffffebH
  00083	80 78 07 00	 cmp	 BYTE PTR [eax+7], 0
  00087	88 55 f6	 mov	 BYTE PTR __k$[ebp+6], dl
  0008a	74 75		 je	 SHORT $LN1@LoadString@2
  0008c	8a 50 08	 mov	 dl, BYTE PTR [eax+8]
  0008f	84 d2		 test	 dl, dl
  00091	74 40		 je	 SHORT $LN88@LoadString@2
  00093	80 f2 ed	 xor	 dl, -19			; ffffffedH
  00096	88 55 f8	 mov	 BYTE PTR __k$[ebp+8], dl
  00099	8a 50 09	 mov	 dl, BYTE PTR [eax+9]
  0009c	84 d2		 test	 dl, dl
  0009e	74 2d		 je	 SHORT $LN87@LoadString@2
  000a0	80 f2 ec	 xor	 dl, -20			; ffffffecH
  000a3	88 55 f9	 mov	 BYTE PTR __k$[ebp+9], dl
  000a6	8a 50 0a	 mov	 dl, BYTE PTR [eax+10]
  000a9	84 d2		 test	 dl, dl
  000ab	74 1a		 je	 SHORT $LN86@LoadString@2
  000ad	8a 40 0b	 mov	 al, BYTE PTR [eax+11]
  000b0	80 f2 eb	 xor	 dl, -21			; ffffffebH
  000b3	88 55 fa	 mov	 BYTE PTR __k$[ebp+10], dl
  000b6	84 c0		 test	 al, al
  000b8	74 07		 je	 SHORT $LN85@LoadString@2
  000ba	34 ea		 xor	 al, -22			; ffffffeaH
  000bc	88 45 fb	 mov	 BYTE PTR __k$[ebp+11], al
  000bf	eb 40		 jmp	 SHORT $LN1@LoadString@2
$LN85@LoadString@2:
  000c1	c6 45 fb ea	 mov	 BYTE PTR __k$[ebp+11], -22 ; ffffffeaH
  000c5	eb 3a		 jmp	 SHORT $LN1@LoadString@2
$LN86@LoadString@2:
  000c7	c6 45 fa eb	 mov	 BYTE PTR __k$[ebp+10], -21 ; ffffffebH
  000cb	eb 34		 jmp	 SHORT $LN1@LoadString@2
$LN87@LoadString@2:
  000cd	c6 45 f9 ec	 mov	 BYTE PTR __k$[ebp+9], -20 ; ffffffecH
  000d1	eb 2e		 jmp	 SHORT $LN1@LoadString@2
$LN88@LoadString@2:
  000d3	c6 45 f8 ed	 mov	 BYTE PTR __k$[ebp+8], -19 ; ffffffedH
  000d7	eb 28		 jmp	 SHORT $LN1@LoadString@2
$LN90@LoadString@2:
  000d9	c6 45 f6 eb	 mov	 BYTE PTR __k$[ebp+6], -21 ; ffffffebH
  000dd	eb 22		 jmp	 SHORT $LN1@LoadString@2
$LN91@LoadString@2:
  000df	c6 45 f5 ec	 mov	 BYTE PTR __k$[ebp+5], -20 ; ffffffecH
  000e3	eb 1c		 jmp	 SHORT $LN1@LoadString@2
$LN92@LoadString@2:
  000e5	c6 45 f4 ed	 mov	 BYTE PTR __k$[ebp+4], -19 ; ffffffedH
  000e9	eb 16		 jmp	 SHORT $LN1@LoadString@2
$LN93@LoadString@2:
  000eb	c6 45 f3 ea	 mov	 BYTE PTR __k$[ebp+3], -22 ; ffffffeaH
  000ef	eb 10		 jmp	 SHORT $LN1@LoadString@2
$LN94@LoadString@2:
  000f1	c6 45 f2 eb	 mov	 BYTE PTR __k$[ebp+2], -21 ; ffffffebH
  000f5	eb 0a		 jmp	 SHORT $LN1@LoadString@2
$LN95@LoadString@2:
  000f7	c6 45 f1 ec	 mov	 BYTE PTR __k$[ebp+1], -20 ; ffffffecH
  000fb	eb 04		 jmp	 SHORT $LN1@LoadString@2
$LN96@LoadString@2:
  000fd	c6 45 f0 ed	 mov	 BYTE PTR __k$[ebp], -19	; ffffffedH
$LN1@LoadString@2:
  00101	81 75 f0 ed ec
	eb ea		 xor	 DWORD PTR __k$[ebp], -353637139 ; eaebecedH
  00108	6a 04		 push	 4
  0010a	c6 45 f7 00	 mov	 BYTE PTR __k$[ebp+7], 0
  0010e	58		 pop	 eax
$LL101@LoadString@2:
  0010f	8b d0		 mov	 edx, eax
  00111	81 e2 03 00 00
	80		 and	 edx, -2147483645	; 80000003H
  00117	79 05		 jns	 SHORT $LN111@LoadString@2
  00119	4a		 dec	 edx
  0011a	83 ca fc	 or	 edx, -4			; fffffffcH
  0011d	42		 inc	 edx
$LN111@LoadString@2:
  0011e	b3 ed		 mov	 bl, -19			; ffffffedH
  00120	2a da		 sub	 bl, dl
  00122	30 5c 05 f0	 xor	 BYTE PTR __k$[ebp+eax], bl
  00126	40		 inc	 eax
  00127	83 f8 07	 cmp	 eax, 7
  0012a	7c e3		 jl	 SHORT $LL101@LoadString@2

; 163  : 		LoadString(_k, d, b, i);

  0012c	ff 75 14	 push	 DWORD PTR _i$[ebp]
  0012f	8d 45 f0	 lea	 eax, DWORD PTR __k$[ebp]
  00132	57		 push	 edi
  00133	56		 push	 esi
  00134	50		 push	 eax
  00135	ff 15 00 00 00
	00		 call	 DWORD PTR __imp_?LoadStringA@ioINILoader@@QAEXPBD0PADH@Z

; 164  : 	}

  0013b	8b 4d fc	 mov	 ecx, DWORD PTR __$ArrayPad$[ebp]
  0013e	5f		 pop	 edi
  0013f	5e		 pop	 esi
  00140	33 cd		 xor	 ecx, ebp
  00142	5b		 pop	 ebx
  00143	e8 00 00 00 00	 call	 @__security_check_cookie@4
  00148	c9		 leave
  00149	c2 10 00	 ret	 16			; 00000010H
??$LoadString_e@$07@ioINILoader@@QAEXAAY07$$CBDAAY00$$CBDPADH@Z ENDP ; ioINILoader::LoadString_e<8>
_TEXT	ENDS
PUBLIC	__$ArrayPad$
PUBLIC	??$LoadString_e@$0L@@ioINILoader@@QAEXAAY0L@$$CBDAAY00$$CBDPADH@Z ; ioINILoader::LoadString_e<11>
; Function compile flags: /Ogsp
;	COMDAT ??$LoadString_e@$0L@@ioINILoader@@QAEXAAY0L@$$CBDAAY00$$CBDPADH@Z
_TEXT	SEGMENT
__k$ = -20						; size = 11
__$ArrayPad$ = -4					; size = 4
_k$ = 8							; size = 4
_d$ = 12						; size = 4
_b$ = 16						; size = 4
_i$ = 20						; size = 4
??$LoadString_e@$0L@@ioINILoader@@QAEXAAY0L@$$CBDAAY00$$CBDPADH@Z PROC ; ioINILoader::LoadString_e<11>, COMDAT
; _this$ = ecx

; 161  : 	{

  00000	55		 push	 ebp
  00001	8b ec		 mov	 ebp, esp
  00003	83 ec 14	 sub	 esp, 20			; 00000014H
  00006	a1 00 00 00 00	 mov	 eax, DWORD PTR ___security_cookie
  0000b	33 c5		 xor	 eax, ebp
  0000d	89 45 fc	 mov	 DWORD PTR __$ArrayPad$[ebp], eax
  00010	8b 45 08	 mov	 eax, DWORD PTR _k$[ebp]

; 162  : 		_ENCSTR(k, _k);

  00013	8a 10		 mov	 dl, BYTE PTR [eax]
  00015	53		 push	 ebx
  00016	56		 push	 esi
  00017	8b 75 0c	 mov	 esi, DWORD PTR _d$[ebp]
  0001a	57		 push	 edi
  0001b	8b 7d 10	 mov	 edi, DWORD PTR _b$[ebp]
  0001e	84 d2		 test	 dl, dl
  00020	0f 84 1b 01 00
	00		 je	 $LN96@LoadString@3
  00026	80 f2 ed	 xor	 dl, -19			; ffffffedH
  00029	88 55 ec	 mov	 BYTE PTR __k$[ebp], dl
  0002c	8a 50 01	 mov	 dl, BYTE PTR [eax+1]
  0002f	84 d2		 test	 dl, dl
  00031	0f 84 04 01 00
	00		 je	 $LN95@LoadString@3
  00037	b3 ec		 mov	 bl, -20			; ffffffecH
  00039	32 d3		 xor	 dl, bl
  0003b	88 55 ed	 mov	 BYTE PTR __k$[ebp+1], dl
  0003e	8a 50 02	 mov	 dl, BYTE PTR [eax+2]
  00041	84 d2		 test	 dl, dl
  00043	0f 84 ec 00 00
	00		 je	 $LN94@LoadString@3
  00049	80 f2 eb	 xor	 dl, -21			; ffffffebH
  0004c	88 55 ee	 mov	 BYTE PTR __k$[ebp+2], dl
  0004f	8a 50 03	 mov	 dl, BYTE PTR [eax+3]
  00052	84 d2		 test	 dl, dl
  00054	0f 84 d5 00 00
	00		 je	 $LN93@LoadString@3
  0005a	80 f2 ea	 xor	 dl, -22			; ffffffeaH
  0005d	88 55 ef	 mov	 BYTE PTR __k$[ebp+3], dl
  00060	8a 50 04	 mov	 dl, BYTE PTR [eax+4]
  00063	84 d2		 test	 dl, dl
  00065	0f 84 be 00 00
	00		 je	 $LN92@LoadString@3
  0006b	80 f2 ed	 xor	 dl, -19			; ffffffedH
  0006e	88 55 f0	 mov	 BYTE PTR __k$[ebp+4], dl
  00071	8a 50 05	 mov	 dl, BYTE PTR [eax+5]
  00074	84 d2		 test	 dl, dl
  00076	0f 84 a8 00 00
	00		 je	 $LN91@LoadString@3
  0007c	32 d3		 xor	 dl, bl
  0007e	88 55 f1	 mov	 BYTE PTR __k$[ebp+5], dl
  00081	8a 50 06	 mov	 dl, BYTE PTR [eax+6]
  00084	84 d2		 test	 dl, dl
  00086	0f 84 92 00 00
	00		 je	 $LN90@LoadString@3
  0008c	80 f2 eb	 xor	 dl, -21			; ffffffebH
  0008f	88 55 f2	 mov	 BYTE PTR __k$[ebp+6], dl
  00092	8a 50 07	 mov	 dl, BYTE PTR [eax+7]
  00095	84 d2		 test	 dl, dl
  00097	74 7f		 je	 SHORT $LN89@LoadString@3
  00099	80 f2 ea	 xor	 dl, -22			; ffffffeaH
  0009c	88 55 f3	 mov	 BYTE PTR __k$[ebp+7], dl
  0009f	8a 50 08	 mov	 dl, BYTE PTR [eax+8]
  000a2	84 d2		 test	 dl, dl
  000a4	74 6c		 je	 SHORT $LN88@LoadString@3
  000a6	80 f2 ed	 xor	 dl, -19			; ffffffedH
  000a9	88 55 f4	 mov	 BYTE PTR __k$[ebp+8], dl
  000ac	8a 50 09	 mov	 dl, BYTE PTR [eax+9]
  000af	84 d2		 test	 dl, dl
  000b1	74 5a		 je	 SHORT $LN87@LoadString@3
  000b3	32 d3		 xor	 dl, bl
  000b5	80 78 0a 00	 cmp	 BYTE PTR [eax+10], 0
  000b9	88 55 f5	 mov	 BYTE PTR __k$[ebp+9], dl
  000bc	0f 84 83 00 00
	00		 je	 $LN1@LoadString@3
  000c2	8a 50 0b	 mov	 dl, BYTE PTR [eax+11]
  000c5	84 d2		 test	 dl, dl
  000c7	74 3e		 je	 SHORT $LN85@LoadString@3
  000c9	80 f2 ea	 xor	 dl, -22			; ffffffeaH
  000cc	88 55 f7	 mov	 BYTE PTR __k$[ebp+11], dl
  000cf	8a 50 0c	 mov	 dl, BYTE PTR [eax+12]
  000d2	84 d2		 test	 dl, dl
  000d4	74 2b		 je	 SHORT $LN84@LoadString@3
  000d6	80 f2 ed	 xor	 dl, -19			; ffffffedH
  000d9	88 55 f8	 mov	 BYTE PTR __k$[ebp+12], dl
  000dc	8a 50 0d	 mov	 dl, BYTE PTR [eax+13]
  000df	84 d2		 test	 dl, dl
  000e1	74 19		 je	 SHORT $LN83@LoadString@3
  000e3	8a 40 0e	 mov	 al, BYTE PTR [eax+14]
  000e6	32 d3		 xor	 dl, bl
  000e8	88 55 f9	 mov	 BYTE PTR __k$[ebp+13], dl
  000eb	84 c0		 test	 al, al
  000ed	74 07		 je	 SHORT $LN82@LoadString@3
  000ef	34 eb		 xor	 al, -21			; ffffffebH
  000f1	88 45 fa	 mov	 BYTE PTR __k$[ebp+14], al
  000f4	eb 4f		 jmp	 SHORT $LN1@LoadString@3
$LN82@LoadString@3:
  000f6	c6 45 fa eb	 mov	 BYTE PTR __k$[ebp+14], -21 ; ffffffebH
  000fa	eb 49		 jmp	 SHORT $LN1@LoadString@3
$LN83@LoadString@3:
  000fc	88 5d f9	 mov	 BYTE PTR __k$[ebp+13], bl
  000ff	eb 44		 jmp	 SHORT $LN1@LoadString@3
$LN84@LoadString@3:
  00101	c6 45 f8 ed	 mov	 BYTE PTR __k$[ebp+12], -19 ; ffffffedH
  00105	eb 3e		 jmp	 SHORT $LN1@LoadString@3
$LN85@LoadString@3:
  00107	c6 45 f7 ea	 mov	 BYTE PTR __k$[ebp+11], -22 ; ffffffeaH
  0010b	eb 38		 jmp	 SHORT $LN1@LoadString@3
$LN87@LoadString@3:
  0010d	88 5d f5	 mov	 BYTE PTR __k$[ebp+9], bl
  00110	eb 33		 jmp	 SHORT $LN1@LoadString@3
$LN88@LoadString@3:
  00112	c6 45 f4 ed	 mov	 BYTE PTR __k$[ebp+8], -19 ; ffffffedH
  00116	eb 2d		 jmp	 SHORT $LN1@LoadString@3
$LN89@LoadString@3:
  00118	c6 45 f3 ea	 mov	 BYTE PTR __k$[ebp+7], -22 ; ffffffeaH
  0011c	eb 27		 jmp	 SHORT $LN1@LoadString@3
$LN90@LoadString@3:
  0011e	c6 45 f2 eb	 mov	 BYTE PTR __k$[ebp+6], -21 ; ffffffebH
  00122	eb 21		 jmp	 SHORT $LN1@LoadString@3
$LN91@LoadString@3:
  00124	88 5d f1	 mov	 BYTE PTR __k$[ebp+5], bl
  00127	eb 1c		 jmp	 SHORT $LN1@LoadString@3
$LN92@LoadString@3:
  00129	c6 45 f0 ed	 mov	 BYTE PTR __k$[ebp+4], -19 ; ffffffedH
  0012d	eb 16		 jmp	 SHORT $LN1@LoadString@3
$LN93@LoadString@3:
  0012f	c6 45 ef ea	 mov	 BYTE PTR __k$[ebp+3], -22 ; ffffffeaH
  00133	eb 10		 jmp	 SHORT $LN1@LoadString@3
$LN94@LoadString@3:
  00135	c6 45 ee eb	 mov	 BYTE PTR __k$[ebp+2], -21 ; ffffffebH
  00139	eb 0a		 jmp	 SHORT $LN1@LoadString@3
$LN95@LoadString@3:
  0013b	c6 45 ed ec	 mov	 BYTE PTR __k$[ebp+1], -20 ; ffffffecH
  0013f	eb 04		 jmp	 SHORT $LN1@LoadString@3
$LN96@LoadString@3:
  00141	c6 45 ec ed	 mov	 BYTE PTR __k$[ebp], -19	; ffffffedH
$LN1@LoadString@3:
  00145	6a 02		 push	 2
  00147	8d 45 ec	 lea	 eax, DWORD PTR __k$[ebp]
  0014a	c6 45 f6 00	 mov	 BYTE PTR __k$[ebp+10], 0
  0014e	5a		 pop	 edx
$LL104@LoadString@3:
  0014f	81 30 ed ec eb
	ea		 xor	 DWORD PTR [eax], -353637139 ; eaebecedH
  00155	83 c0 04	 add	 eax, 4
  00158	4a		 dec	 edx
  00159	75 f4		 jne	 SHORT $LL104@LoadString@3
  0015b	6a 08		 push	 8
  0015d	58		 pop	 eax
$LL101@LoadString@3:
  0015e	8b d0		 mov	 edx, eax
  00160	81 e2 03 00 00
	80		 and	 edx, -2147483645	; 80000003H
  00166	79 05		 jns	 SHORT $LN111@LoadString@3
  00168	4a		 dec	 edx
  00169	83 ca fc	 or	 edx, -4			; fffffffcH
  0016c	42		 inc	 edx
$LN111@LoadString@3:
  0016d	b3 ed		 mov	 bl, -19			; ffffffedH
  0016f	2a da		 sub	 bl, dl
  00171	30 5c 05 ec	 xor	 BYTE PTR __k$[ebp+eax], bl
  00175	40		 inc	 eax
  00176	83 f8 0a	 cmp	 eax, 10			; 0000000aH
  00179	7c e3		 jl	 SHORT $LL101@LoadString@3

; 163  : 		LoadString(_k, d, b, i);

  0017b	ff 75 14	 push	 DWORD PTR _i$[ebp]
  0017e	8d 45 ec	 lea	 eax, DWORD PTR __k$[ebp]
  00181	57		 push	 edi
  00182	56		 push	 esi
  00183	50		 push	 eax
  00184	ff 15 00 00 00
	00		 call	 DWORD PTR __imp_?LoadStringA@ioINILoader@@QAEXPBD0PADH@Z

; 164  : 	}

  0018a	8b 4d fc	 mov	 ecx, DWORD PTR __$ArrayPad$[ebp]
  0018d	5f		 pop	 edi
  0018e	5e		 pop	 esi
  0018f	33 cd		 xor	 ecx, ebp
  00191	5b		 pop	 ebx
  00192	e8 00 00 00 00	 call	 @__security_check_cookie@4
  00197	c9		 leave
  00198	c2 10 00	 ret	 16			; 00000010H
??$LoadString_e@$0L@@ioINILoader@@QAEXAAY0L@$$CBDAAY00$$CBDPADH@Z ENDP ; ioINILoader::LoadString_e<11>
_TEXT	ENDS
PUBLIC	_this$GSCopy$
PUBLIC	__$ArrayPad$
PUBLIC	??$LoadString_e@$0M@@ioINILoader@@QAEXAAY0M@$$CBDAAY00$$CBDPADH@Z ; ioINILoader::LoadString_e<12>
; Function compile flags: /Ogsp
;	COMDAT ??$LoadString_e@$0M@@ioINILoader@@QAEXAAY0M@$$CBDAAY00$$CBDPADH@Z
_TEXT	SEGMENT
_this$GSCopy$ = -24					; size = 4
__k$ = -20						; size = 12
__$ArrayPad$ = -4					; size = 4
_k$ = 8							; size = 4
_d$ = 12						; size = 4
_b$ = 16						; size = 4
_i$ = 20						; size = 4
??$LoadString_e@$0M@@ioINILoader@@QAEXAAY0M@$$CBDAAY00$$CBDPADH@Z PROC ; ioINILoader::LoadString_e<12>, COMDAT
; _this$ = ecx

; 161  : 	{

  00000	55		 push	 ebp
  00001	8b ec		 mov	 ebp, esp
  00003	83 ec 18	 sub	 esp, 24			; 00000018H
  00006	a1 00 00 00 00	 mov	 eax, DWORD PTR ___security_cookie
  0000b	33 c5		 xor	 eax, ebp
  0000d	89 45 fc	 mov	 DWORD PTR __$ArrayPad$[ebp], eax
  00010	8b 45 08	 mov	 eax, DWORD PTR _k$[ebp]

; 162  : 		_ENCSTR(k, _k);

  00013	8a 10		 mov	 dl, BYTE PTR [eax]
  00015	56		 push	 esi
  00016	8b 75 0c	 mov	 esi, DWORD PTR _d$[ebp]
  00019	57		 push	 edi
  0001a	8b 7d 10	 mov	 edi, DWORD PTR _b$[ebp]
  0001d	89 4d e8	 mov	 DWORD PTR _this$GSCopy$[ebp], ecx
  00020	84 d2		 test	 dl, dl
  00022	0f 84 32 01 00
	00		 je	 $LN96@LoadString@4
  00028	80 f2 ed	 xor	 dl, -19			; ffffffedH
  0002b	88 55 ec	 mov	 BYTE PTR __k$[ebp], dl
  0002e	8a 50 01	 mov	 dl, BYTE PTR [eax+1]
  00031	84 d2		 test	 dl, dl
  00033	0f 84 1b 01 00
	00		 je	 $LN95@LoadString@4
  00039	80 f2 ec	 xor	 dl, -20			; ffffffecH
  0003c	88 55 ed	 mov	 BYTE PTR __k$[ebp+1], dl
  0003f	8a 50 02	 mov	 dl, BYTE PTR [eax+2]
  00042	84 d2		 test	 dl, dl
  00044	0f 84 04 01 00
	00		 je	 $LN94@LoadString@4
  0004a	b1 eb		 mov	 cl, -21			; ffffffebH
  0004c	32 d1		 xor	 dl, cl
  0004e	88 55 ee	 mov	 BYTE PTR __k$[ebp+2], dl
  00051	8a 50 03	 mov	 dl, BYTE PTR [eax+3]
  00054	84 d2		 test	 dl, dl
  00056	0f 84 ec 00 00
	00		 je	 $LN93@LoadString@4
  0005c	80 f2 ea	 xor	 dl, -22			; ffffffeaH
  0005f	88 55 ef	 mov	 BYTE PTR __k$[ebp+3], dl
  00062	8a 50 04	 mov	 dl, BYTE PTR [eax+4]
  00065	84 d2		 test	 dl, dl
  00067	0f 84 d5 00 00
	00		 je	 $LN92@LoadString@4
  0006d	80 f2 ed	 xor	 dl, -19			; ffffffedH
  00070	88 55 f0	 mov	 BYTE PTR __k$[ebp+4], dl
  00073	8a 50 05	 mov	 dl, BYTE PTR [eax+5]
  00076	84 d2		 test	 dl, dl
  00078	0f 84 be 00 00
	00		 je	 $LN91@LoadString@4
  0007e	80 f2 ec	 xor	 dl, -20			; ffffffecH
  00081	88 55 f1	 mov	 BYTE PTR __k$[ebp+5], dl
  00084	8a 50 06	 mov	 dl, BYTE PTR [eax+6]
  00087	84 d2		 test	 dl, dl
  00089	0f 84 a8 00 00
	00		 je	 $LN90@LoadString@4
  0008f	32 d1		 xor	 dl, cl
  00091	88 55 f2	 mov	 BYTE PTR __k$[ebp+6], dl
  00094	8a 50 07	 mov	 dl, BYTE PTR [eax+7]
  00097	84 d2		 test	 dl, dl
  00099	0f 84 92 00 00
	00		 je	 $LN89@LoadString@4
  0009f	80 f2 ea	 xor	 dl, -22			; ffffffeaH
  000a2	88 55 f3	 mov	 BYTE PTR __k$[ebp+7], dl
  000a5	8a 50 08	 mov	 dl, BYTE PTR [eax+8]
  000a8	84 d2		 test	 dl, dl
  000aa	74 7f		 je	 SHORT $LN88@LoadString@4
  000ac	80 f2 ed	 xor	 dl, -19			; ffffffedH
  000af	88 55 f4	 mov	 BYTE PTR __k$[ebp+8], dl
  000b2	8a 50 09	 mov	 dl, BYTE PTR [eax+9]
  000b5	84 d2		 test	 dl, dl
  000b7	74 6c		 je	 SHORT $LN87@LoadString@4
  000b9	80 f2 ec	 xor	 dl, -20			; ffffffecH
  000bc	88 55 f5	 mov	 BYTE PTR __k$[ebp+9], dl
  000bf	8a 50 0a	 mov	 dl, BYTE PTR [eax+10]
  000c2	84 d2		 test	 dl, dl
  000c4	74 5a		 je	 SHORT $LN86@LoadString@4
  000c6	32 d1		 xor	 dl, cl
  000c8	80 78 0b 00	 cmp	 BYTE PTR [eax+11], 0
  000cc	88 55 f6	 mov	 BYTE PTR __k$[ebp+10], dl
  000cf	0f 84 89 00 00
	00		 je	 $LN111@LoadString@4
  000d5	8a 50 0c	 mov	 dl, BYTE PTR [eax+12]
  000d8	84 d2		 test	 dl, dl
  000da	74 3e		 je	 SHORT $LN84@LoadString@4
  000dc	80 f2 ed	 xor	 dl, -19			; ffffffedH
  000df	88 55 f8	 mov	 BYTE PTR __k$[ebp+12], dl
  000e2	8a 50 0d	 mov	 dl, BYTE PTR [eax+13]
  000e5	84 d2		 test	 dl, dl
  000e7	74 2b		 je	 SHORT $LN83@LoadString@4
  000e9	80 f2 ec	 xor	 dl, -20			; ffffffecH
  000ec	88 55 f9	 mov	 BYTE PTR __k$[ebp+13], dl
  000ef	8a 50 0e	 mov	 dl, BYTE PTR [eax+14]
  000f2	84 d2		 test	 dl, dl
  000f4	74 19		 je	 SHORT $LN82@LoadString@4
  000f6	8a 40 0f	 mov	 al, BYTE PTR [eax+15]
  000f9	32 d1		 xor	 dl, cl
  000fb	88 55 fa	 mov	 BYTE PTR __k$[ebp+14], dl
  000fe	84 c0		 test	 al, al
  00100	74 07		 je	 SHORT $LN81@LoadString@4
  00102	34 ea		 xor	 al, -22			; ffffffeaH
  00104	88 45 fb	 mov	 BYTE PTR __k$[ebp+15], al
  00107	eb 55		 jmp	 SHORT $LN111@LoadString@4
$LN81@LoadString@4:
  00109	c6 45 fb ea	 mov	 BYTE PTR __k$[ebp+15], -22 ; ffffffeaH
  0010d	eb 4f		 jmp	 SHORT $LN111@LoadString@4
$LN82@LoadString@4:
  0010f	88 4d fa	 mov	 BYTE PTR __k$[ebp+14], cl
  00112	eb 4a		 jmp	 SHORT $LN111@LoadString@4
$LN83@LoadString@4:
  00114	c6 45 f9 ec	 mov	 BYTE PTR __k$[ebp+13], -20 ; ffffffecH
  00118	eb 44		 jmp	 SHORT $LN111@LoadString@4
$LN84@LoadString@4:
  0011a	c6 45 f8 ed	 mov	 BYTE PTR __k$[ebp+12], -19 ; ffffffedH
  0011e	eb 3e		 jmp	 SHORT $LN111@LoadString@4
$LN86@LoadString@4:
  00120	88 4d f6	 mov	 BYTE PTR __k$[ebp+10], cl
  00123	eb 39		 jmp	 SHORT $LN111@LoadString@4
$LN87@LoadString@4:
  00125	c6 45 f5 ec	 mov	 BYTE PTR __k$[ebp+9], -20 ; ffffffecH
  00129	eb 33		 jmp	 SHORT $LN111@LoadString@4
$LN88@LoadString@4:
  0012b	c6 45 f4 ed	 mov	 BYTE PTR __k$[ebp+8], -19 ; ffffffedH
  0012f	eb 2d		 jmp	 SHORT $LN111@LoadString@4
$LN89@LoadString@4:
  00131	c6 45 f3 ea	 mov	 BYTE PTR __k$[ebp+7], -22 ; ffffffeaH
  00135	eb 27		 jmp	 SHORT $LN111@LoadString@4
$LN90@LoadString@4:
  00137	88 4d f2	 mov	 BYTE PTR __k$[ebp+6], cl
  0013a	eb 22		 jmp	 SHORT $LN111@LoadString@4
$LN91@LoadString@4:
  0013c	c6 45 f1 ec	 mov	 BYTE PTR __k$[ebp+5], -20 ; ffffffecH
  00140	eb 1c		 jmp	 SHORT $LN111@LoadString@4
$LN92@LoadString@4:
  00142	c6 45 f0 ed	 mov	 BYTE PTR __k$[ebp+4], -19 ; ffffffedH
  00146	eb 16		 jmp	 SHORT $LN111@LoadString@4
$LN93@LoadString@4:
  00148	c6 45 ef ea	 mov	 BYTE PTR __k$[ebp+3], -22 ; ffffffeaH
  0014c	eb 10		 jmp	 SHORT $LN111@LoadString@4
$LN94@LoadString@4:
  0014e	c6 45 ee eb	 mov	 BYTE PTR __k$[ebp+2], -21 ; ffffffebH
  00152	eb 0a		 jmp	 SHORT $LN111@LoadString@4
$LN95@LoadString@4:
  00154	c6 45 ed ec	 mov	 BYTE PTR __k$[ebp+1], -20 ; ffffffecH
  00158	eb 04		 jmp	 SHORT $LN111@LoadString@4
$LN96@LoadString@4:
  0015a	c6 45 ec ed	 mov	 BYTE PTR __k$[ebp], -19	; ffffffedH
$LN111@LoadString@4:
  0015e	6a 02		 push	 2
  00160	8d 45 ec	 lea	 eax, DWORD PTR __k$[ebp]
  00163	c6 45 f7 00	 mov	 BYTE PTR __k$[ebp+11], 0
  00167	5a		 pop	 edx
$LL104@LoadString@4:
  00168	81 30 ed ec eb
	ea		 xor	 DWORD PTR [eax], -353637139 ; eaebecedH
  0016e	83 c0 04	 add	 eax, 4
  00171	4a		 dec	 edx
  00172	75 f4		 jne	 SHORT $LL104@LoadString@4
  00174	6a 08		 push	 8
  00176	58		 pop	 eax
$LL101@LoadString@4:
  00177	8b c8		 mov	 ecx, eax
  00179	81 e1 03 00 00
	80		 and	 ecx, -2147483645	; 80000003H
  0017f	79 05		 jns	 SHORT $LN112@LoadString@4
  00181	49		 dec	 ecx
  00182	83 c9 fc	 or	 ecx, -4			; fffffffcH
  00185	41		 inc	 ecx
$LN112@LoadString@4:
  00186	b2 ed		 mov	 dl, -19			; ffffffedH
  00188	2a d1		 sub	 dl, cl
  0018a	30 54 05 ec	 xor	 BYTE PTR __k$[ebp+eax], dl
  0018e	40		 inc	 eax
  0018f	83 f8 0b	 cmp	 eax, 11			; 0000000bH
  00192	7c e3		 jl	 SHORT $LL101@LoadString@4

; 163  : 		LoadString(_k, d, b, i);

  00194	ff 75 14	 push	 DWORD PTR _i$[ebp]
  00197	8b 4d e8	 mov	 ecx, DWORD PTR _this$GSCopy$[ebp]
  0019a	57		 push	 edi
  0019b	56		 push	 esi
  0019c	8d 45 ec	 lea	 eax, DWORD PTR __k$[ebp]
  0019f	50		 push	 eax
  001a0	ff 15 00 00 00
	00		 call	 DWORD PTR __imp_?LoadStringA@ioINILoader@@QAEXPBD0PADH@Z

; 164  : 	}

  001a6	8b 4d fc	 mov	 ecx, DWORD PTR __$ArrayPad$[ebp]
  001a9	5f		 pop	 edi
  001aa	33 cd		 xor	 ecx, ebp
  001ac	5e		 pop	 esi
  001ad	e8 00 00 00 00	 call	 @__security_check_cookie@4
  001b2	c9		 leave
  001b3	c2 10 00	 ret	 16			; 00000010H
??$LoadString_e@$0M@@ioINILoader@@QAEXAAY0M@$$CBDAAY00$$CBDPADH@Z ENDP ; ioINILoader::LoadString_e<12>
_TEXT	ENDS
PUBLIC	_this$GSCopy$
PUBLIC	__$ArrayPad$
PUBLIC	??$LoadString_e@$0BH@@ioINILoader@@QAEXAAY0BH@$$CBDAAY00$$CBDPADH@Z ; ioINILoader::LoadString_e<23>
; Function compile flags: /Ogsp
;	COMDAT ??$LoadString_e@$0BH@@ioINILoader@@QAEXAAY0BH@$$CBDAAY00$$CBDPADH@Z
_TEXT	SEGMENT
_this$GSCopy$ = -36					; size = 4
__k$ = -32						; size = 23
__$ArrayPad$ = -4					; size = 4
_k$ = 8							; size = 4
_d$ = 12						; size = 4
_b$ = 16						; size = 4
_i$ = 20						; size = 4
??$LoadString_e@$0BH@@ioINILoader@@QAEXAAY0BH@$$CBDAAY00$$CBDPADH@Z PROC ; ioINILoader::LoadString_e<23>, COMDAT
; _this$ = ecx

; 161  : 	{

  00000	55		 push	 ebp
  00001	8b ec		 mov	 ebp, esp
  00003	83 ec 24	 sub	 esp, 36			; 00000024H
  00006	a1 00 00 00 00	 mov	 eax, DWORD PTR ___security_cookie
  0000b	33 c5		 xor	 eax, ebp
  0000d	89 45 fc	 mov	 DWORD PTR __$ArrayPad$[ebp], eax
  00010	8b 45 08	 mov	 eax, DWORD PTR _k$[ebp]

; 162  : 		_ENCSTR(k, _k);

  00013	8a 10		 mov	 dl, BYTE PTR [eax]
  00015	53		 push	 ebx
  00016	56		 push	 esi
  00017	8b 75 0c	 mov	 esi, DWORD PTR _d$[ebp]
  0001a	57		 push	 edi
  0001b	8b 7d 10	 mov	 edi, DWORD PTR _b$[ebp]
  0001e	89 4d dc	 mov	 DWORD PTR _this$GSCopy$[ebp], ecx
  00021	84 d2		 test	 dl, dl
  00023	0f 84 2d 02 00
	00		 je	 $LN96@LoadString@5
  00029	80 f2 ed	 xor	 dl, -19			; ffffffedH
  0002c	88 55 e0	 mov	 BYTE PTR __k$[ebp], dl
  0002f	8a 50 01	 mov	 dl, BYTE PTR [eax+1]
  00032	84 d2		 test	 dl, dl
  00034	0f 84 16 02 00
	00		 je	 $LN95@LoadString@5
  0003a	b1 ec		 mov	 cl, -20			; ffffffecH
  0003c	32 d1		 xor	 dl, cl
  0003e	88 55 e1	 mov	 BYTE PTR __k$[ebp+1], dl
  00041	8a 50 02	 mov	 dl, BYTE PTR [eax+2]
  00044	84 d2		 test	 dl, dl
  00046	0f 84 fe 01 00
	00		 je	 $LN94@LoadString@5
  0004c	80 f2 eb	 xor	 dl, -21			; ffffffebH
  0004f	88 55 e2	 mov	 BYTE PTR __k$[ebp+2], dl
  00052	8a 50 03	 mov	 dl, BYTE PTR [eax+3]
  00055	84 d2		 test	 dl, dl
  00057	0f 84 e7 01 00
	00		 je	 $LN93@LoadString@5
  0005d	b3 ea		 mov	 bl, -22			; ffffffeaH
  0005f	32 d3		 xor	 dl, bl
  00061	88 55 e3	 mov	 BYTE PTR __k$[ebp+3], dl
  00064	8a 50 04	 mov	 dl, BYTE PTR [eax+4]
  00067	84 d2		 test	 dl, dl
  00069	0f 84 cf 01 00
	00		 je	 $LN92@LoadString@5
  0006f	80 f2 ed	 xor	 dl, -19			; ffffffedH
  00072	88 55 e4	 mov	 BYTE PTR __k$[ebp+4], dl
  00075	8a 50 05	 mov	 dl, BYTE PTR [eax+5]
  00078	84 d2		 test	 dl, dl
  0007a	0f 84 b9 01 00
	00		 je	 $LN91@LoadString@5
  00080	32 d1		 xor	 dl, cl
  00082	88 55 e5	 mov	 BYTE PTR __k$[ebp+5], dl
  00085	8a 50 06	 mov	 dl, BYTE PTR [eax+6]
  00088	84 d2		 test	 dl, dl
  0008a	0f 84 a3 01 00
	00		 je	 $LN90@LoadString@5
  00090	80 f2 eb	 xor	 dl, -21			; ffffffebH
  00093	88 55 e6	 mov	 BYTE PTR __k$[ebp+6], dl
  00096	8a 50 07	 mov	 dl, BYTE PTR [eax+7]
  00099	84 d2		 test	 dl, dl
  0009b	0f 84 8d 01 00
	00		 je	 $LN89@LoadString@5
  000a1	32 d3		 xor	 dl, bl
  000a3	88 55 e7	 mov	 BYTE PTR __k$[ebp+7], dl
  000a6	8a 50 08	 mov	 dl, BYTE PTR [eax+8]
  000a9	84 d2		 test	 dl, dl
  000ab	0f 84 77 01 00
	00		 je	 $LN88@LoadString@5
  000b1	80 f2 ed	 xor	 dl, -19			; ffffffedH
  000b4	88 55 e8	 mov	 BYTE PTR __k$[ebp+8], dl
  000b7	8a 50 09	 mov	 dl, BYTE PTR [eax+9]
  000ba	84 d2		 test	 dl, dl
  000bc	0f 84 61 01 00
	00		 je	 $LN87@LoadString@5
  000c2	32 d1		 xor	 dl, cl
  000c4	88 55 e9	 mov	 BYTE PTR __k$[ebp+9], dl
  000c7	8a 50 0a	 mov	 dl, BYTE PTR [eax+10]
  000ca	84 d2		 test	 dl, dl
  000cc	0f 84 4b 01 00
	00		 je	 $LN86@LoadString@5
  000d2	80 f2 eb	 xor	 dl, -21			; ffffffebH
  000d5	88 55 ea	 mov	 BYTE PTR __k$[ebp+10], dl
  000d8	8a 50 0b	 mov	 dl, BYTE PTR [eax+11]
  000db	84 d2		 test	 dl, dl
  000dd	0f 84 35 01 00
	00		 je	 $LN85@LoadString@5
  000e3	32 d3		 xor	 dl, bl
  000e5	88 55 eb	 mov	 BYTE PTR __k$[ebp+11], dl
  000e8	8a 50 0c	 mov	 dl, BYTE PTR [eax+12]
  000eb	84 d2		 test	 dl, dl
  000ed	0f 84 1f 01 00
	00		 je	 $LN84@LoadString@5
  000f3	80 f2 ed	 xor	 dl, -19			; ffffffedH
  000f6	88 55 ec	 mov	 BYTE PTR __k$[ebp+12], dl
  000f9	8a 50 0d	 mov	 dl, BYTE PTR [eax+13]
  000fc	84 d2		 test	 dl, dl
  000fe	0f 84 09 01 00
	00		 je	 $LN83@LoadString@5
  00104	32 d1		 xor	 dl, cl
  00106	88 55 ed	 mov	 BYTE PTR __k$[ebp+13], dl
  00109	8a 50 0e	 mov	 dl, BYTE PTR [eax+14]
  0010c	84 d2		 test	 dl, dl
  0010e	0f 84 f3 00 00
	00		 je	 $LN82@LoadString@5
  00114	80 f2 eb	 xor	 dl, -21			; ffffffebH
  00117	88 55 ee	 mov	 BYTE PTR __k$[ebp+14], dl
  0011a	8a 50 0f	 mov	 dl, BYTE PTR [eax+15]
  0011d	84 d2		 test	 dl, dl
  0011f	0f 84 dd 00 00
	00		 je	 $LN81@LoadString@5
  00125	32 d3		 xor	 dl, bl
  00127	88 55 ef	 mov	 BYTE PTR __k$[ebp+15], dl
  0012a	8a 50 10	 mov	 dl, BYTE PTR [eax+16]
  0012d	84 d2		 test	 dl, dl
  0012f	0f 84 c7 00 00
	00		 je	 $LN80@LoadString@5
  00135	80 f2 ed	 xor	 dl, -19			; ffffffedH
  00138	88 55 f0	 mov	 BYTE PTR __k$[ebp+16], dl
  0013b	8a 50 11	 mov	 dl, BYTE PTR [eax+17]
  0013e	84 d2		 test	 dl, dl
  00140	0f 84 b1 00 00
	00		 je	 $LN79@LoadString@5
  00146	32 d1		 xor	 dl, cl
  00148	88 55 f1	 mov	 BYTE PTR __k$[ebp+17], dl
  0014b	8a 50 12	 mov	 dl, BYTE PTR [eax+18]
  0014e	84 d2		 test	 dl, dl
  00150	0f 84 9b 00 00
	00		 je	 $LN78@LoadString@5
  00156	80 f2 eb	 xor	 dl, -21			; ffffffebH
  00159	88 55 f2	 mov	 BYTE PTR __k$[ebp+18], dl
  0015c	8a 50 13	 mov	 dl, BYTE PTR [eax+19]
  0015f	84 d2		 test	 dl, dl
  00161	0f 84 85 00 00
	00		 je	 $LN77@LoadString@5
  00167	32 d3		 xor	 dl, bl
  00169	88 55 f3	 mov	 BYTE PTR __k$[ebp+19], dl
  0016c	8a 50 14	 mov	 dl, BYTE PTR [eax+20]
  0016f	84 d2		 test	 dl, dl
  00171	74 73		 je	 SHORT $LN76@LoadString@5
  00173	80 f2 ed	 xor	 dl, -19			; ffffffedH
  00176	88 55 f4	 mov	 BYTE PTR __k$[ebp+20], dl
  00179	8a 50 15	 mov	 dl, BYTE PTR [eax+21]
  0017c	84 d2		 test	 dl, dl
  0017e	74 61		 je	 SHORT $LN75@LoadString@5
  00180	32 d1		 xor	 dl, cl
  00182	80 78 16 00	 cmp	 BYTE PTR [eax+22], 0
  00186	88 55 f5	 mov	 BYTE PTR __k$[ebp+21], dl
  00189	0f 84 cb 00 00
	00		 je	 $LN111@LoadString@5
  0018f	8a 50 17	 mov	 dl, BYTE PTR [eax+23]
  00192	84 d2		 test	 dl, dl
  00194	74 46		 je	 SHORT $LN73@LoadString@5
  00196	32 d3		 xor	 dl, bl
  00198	88 55 f7	 mov	 BYTE PTR __k$[ebp+23], dl
  0019b	8a 50 18	 mov	 dl, BYTE PTR [eax+24]
  0019e	84 d2		 test	 dl, dl
  001a0	74 34		 je	 SHORT $LN72@LoadString@5
  001a2	80 f2 ed	 xor	 dl, -19			; ffffffedH
  001a5	88 55 f8	 mov	 BYTE PTR __k$[ebp+24], dl
  001a8	8a 50 19	 mov	 dl, BYTE PTR [eax+25]
  001ab	84 d2		 test	 dl, dl
  001ad	74 1f		 je	 SHORT $LN71@LoadString@5
  001af	8a 40 1a	 mov	 al, BYTE PTR [eax+26]
  001b2	32 d1		 xor	 dl, cl
  001b4	88 55 f9	 mov	 BYTE PTR __k$[ebp+25], dl
  001b7	84 c0		 test	 al, al
  001b9	74 0a		 je	 SHORT $LN70@LoadString@5
  001bb	34 eb		 xor	 al, -21			; ffffffebH
  001bd	88 45 fa	 mov	 BYTE PTR __k$[ebp+26], al
  001c0	e9 95 00 00 00	 jmp	 $LN111@LoadString@5
$LN70@LoadString@5:
  001c5	c6 45 fa eb	 mov	 BYTE PTR __k$[ebp+26], -21 ; ffffffebH
  001c9	e9 8c 00 00 00	 jmp	 $LN111@LoadString@5
$LN71@LoadString@5:
  001ce	88 4d f9	 mov	 BYTE PTR __k$[ebp+25], cl
  001d1	e9 84 00 00 00	 jmp	 $LN111@LoadString@5
$LN72@LoadString@5:
  001d6	c6 45 f8 ed	 mov	 BYTE PTR __k$[ebp+24], -19 ; ffffffedH
  001da	eb 7e		 jmp	 SHORT $LN111@LoadString@5
$LN73@LoadString@5:
  001dc	88 5d f7	 mov	 BYTE PTR __k$[ebp+23], bl
  001df	eb 79		 jmp	 SHORT $LN111@LoadString@5
$LN75@LoadString@5:
  001e1	88 4d f5	 mov	 BYTE PTR __k$[ebp+21], cl
  001e4	eb 74		 jmp	 SHORT $LN111@LoadString@5
$LN76@LoadString@5:
  001e6	c6 45 f4 ed	 mov	 BYTE PTR __k$[ebp+20], -19 ; ffffffedH
  001ea	eb 6e		 jmp	 SHORT $LN111@LoadString@5
$LN77@LoadString@5:
  001ec	88 5d f3	 mov	 BYTE PTR __k$[ebp+19], bl
  001ef	eb 69		 jmp	 SHORT $LN111@LoadString@5
$LN78@LoadString@5:
  001f1	c6 45 f2 eb	 mov	 BYTE PTR __k$[ebp+18], -21 ; ffffffebH
  001f5	eb 63		 jmp	 SHORT $LN111@LoadString@5
$LN79@LoadString@5:
  001f7	88 4d f1	 mov	 BYTE PTR __k$[ebp+17], cl
  001fa	eb 5e		 jmp	 SHORT $LN111@LoadString@5
$LN80@LoadString@5:
  001fc	c6 45 f0 ed	 mov	 BYTE PTR __k$[ebp+16], -19 ; ffffffedH
  00200	eb 58		 jmp	 SHORT $LN111@LoadString@5
$LN81@LoadString@5:
  00202	88 5d ef	 mov	 BYTE PTR __k$[ebp+15], bl
  00205	eb 53		 jmp	 SHORT $LN111@LoadString@5
$LN82@LoadString@5:
  00207	c6 45 ee eb	 mov	 BYTE PTR __k$[ebp+14], -21 ; ffffffebH
  0020b	eb 4d		 jmp	 SHORT $LN111@LoadString@5
$LN83@LoadString@5:
  0020d	88 4d ed	 mov	 BYTE PTR __k$[ebp+13], cl
  00210	eb 48		 jmp	 SHORT $LN111@LoadString@5
$LN84@LoadString@5:
  00212	c6 45 ec ed	 mov	 BYTE PTR __k$[ebp+12], -19 ; ffffffedH
  00216	eb 42		 jmp	 SHORT $LN111@LoadString@5
$LN85@LoadString@5:
  00218	88 5d eb	 mov	 BYTE PTR __k$[ebp+11], bl
  0021b	eb 3d		 jmp	 SHORT $LN111@LoadString@5
$LN86@LoadString@5:
  0021d	c6 45 ea eb	 mov	 BYTE PTR __k$[ebp+10], -21 ; ffffffebH
  00221	eb 37		 jmp	 SHORT $LN111@LoadString@5
$LN87@LoadString@5:
  00223	88 4d e9	 mov	 BYTE PTR __k$[ebp+9], cl
  00226	eb 32		 jmp	 SHORT $LN111@LoadString@5
$LN88@LoadString@5:
  00228	c6 45 e8 ed	 mov	 BYTE PTR __k$[ebp+8], -19 ; ffffffedH
  0022c	eb 2c		 jmp	 SHORT $LN111@LoadString@5
$LN89@LoadString@5:
  0022e	88 5d e7	 mov	 BYTE PTR __k$[ebp+7], bl
  00231	eb 27		 jmp	 SHORT $LN111@LoadString@5
$LN90@LoadString@5:
  00233	c6 45 e6 eb	 mov	 BYTE PTR __k$[ebp+6], -21 ; ffffffebH
  00237	eb 21		 jmp	 SHORT $LN111@LoadString@5
$LN91@LoadString@5:
  00239	88 4d e5	 mov	 BYTE PTR __k$[ebp+5], cl
  0023c	eb 1c		 jmp	 SHORT $LN111@LoadString@5
$LN92@LoadString@5:
  0023e	c6 45 e4 ed	 mov	 BYTE PTR __k$[ebp+4], -19 ; ffffffedH
  00242	eb 16		 jmp	 SHORT $LN111@LoadString@5
$LN93@LoadString@5:
  00244	c6 45 e3 ea	 mov	 BYTE PTR __k$[ebp+3], -22 ; ffffffeaH
  00248	eb 10		 jmp	 SHORT $LN111@LoadString@5
$LN94@LoadString@5:
  0024a	c6 45 e2 eb	 mov	 BYTE PTR __k$[ebp+2], -21 ; ffffffebH
  0024e	eb 0a		 jmp	 SHORT $LN111@LoadString@5
$LN95@LoadString@5:
  00250	c6 45 e1 ec	 mov	 BYTE PTR __k$[ebp+1], -20 ; ffffffecH
  00254	eb 04		 jmp	 SHORT $LN111@LoadString@5
$LN96@LoadString@5:
  00256	c6 45 e0 ed	 mov	 BYTE PTR __k$[ebp], -19	; ffffffedH
$LN111@LoadString@5:
  0025a	6a 05		 push	 5
  0025c	8d 45 e0	 lea	 eax, DWORD PTR __k$[ebp]
  0025f	c6 45 f6 00	 mov	 BYTE PTR __k$[ebp+22], 0
  00263	5a		 pop	 edx
$LL104@LoadString@5:
  00264	81 30 ed ec eb
	ea		 xor	 DWORD PTR [eax], -353637139 ; eaebecedH
  0026a	83 c0 04	 add	 eax, 4
  0026d	4a		 dec	 edx
  0026e	75 f4		 jne	 SHORT $LL104@LoadString@5
  00270	6a 14		 push	 20			; 00000014H
  00272	58		 pop	 eax
$LL101@LoadString@5:
  00273	8b c8		 mov	 ecx, eax
  00275	81 e1 03 00 00
	80		 and	 ecx, -2147483645	; 80000003H
  0027b	79 05		 jns	 SHORT $LN112@LoadString@5
  0027d	49		 dec	 ecx
  0027e	83 c9 fc	 or	 ecx, -4			; fffffffcH
  00281	41		 inc	 ecx
$LN112@LoadString@5:
  00282	b2 ed		 mov	 dl, -19			; ffffffedH
  00284	2a d1		 sub	 dl, cl
  00286	30 54 05 e0	 xor	 BYTE PTR __k$[ebp+eax], dl
  0028a	40		 inc	 eax
  0028b	83 f8 16	 cmp	 eax, 22			; 00000016H
  0028e	7c e3		 jl	 SHORT $LL101@LoadString@5

; 163  : 		LoadString(_k, d, b, i);

  00290	ff 75 14	 push	 DWORD PTR _i$[ebp]
  00293	8b 4d dc	 mov	 ecx, DWORD PTR _this$GSCopy$[ebp]
  00296	57		 push	 edi
  00297	56		 push	 esi
  00298	8d 45 e0	 lea	 eax, DWORD PTR __k$[ebp]
  0029b	50		 push	 eax
  0029c	ff 15 00 00 00
	00		 call	 DWORD PTR __imp_?LoadStringA@ioINILoader@@QAEXPBD0PADH@Z

; 164  : 	}

  002a2	8b 4d fc	 mov	 ecx, DWORD PTR __$ArrayPad$[ebp]
  002a5	5f		 pop	 edi
  002a6	5e		 pop	 esi
  002a7	33 cd		 xor	 ecx, ebp
  002a9	5b		 pop	 ebx
  002aa	e8 00 00 00 00	 call	 @__security_check_cookie@4
  002af	c9		 leave
  002b0	c2 10 00	 ret	 16			; 00000010H
??$LoadString_e@$0BH@@ioINILoader@@QAEXAAY0BH@$$CBDAAY00$$CBDPADH@Z ENDP ; ioINILoader::LoadString_e<23>
_TEXT	ENDS
PUBLIC	_this$GSCopy$
PUBLIC	__$ArrayPad$
PUBLIC	??$LoadString_e@$0BK@@ioINILoader@@QAEXAAY0BK@$$CBDAAY00$$CBDPADH@Z ; ioINILoader::LoadString_e<26>
; Function compile flags: /Ogsp
;	COMDAT ??$LoadString_e@$0BK@@ioINILoader@@QAEXAAY0BK@$$CBDAAY00$$CBDPADH@Z
_TEXT	SEGMENT
_this$GSCopy$ = -40					; size = 4
__k$ = -36						; size = 26
__$ArrayPad$ = -4					; size = 4
_k$ = 8							; size = 4
_d$ = 12						; size = 4
_b$ = 16						; size = 4
_i$ = 20						; size = 4
??$LoadString_e@$0BK@@ioINILoader@@QAEXAAY0BK@$$CBDAAY00$$CBDPADH@Z PROC ; ioINILoader::LoadString_e<26>, COMDAT
; _this$ = ecx

; 161  : 	{

  00000	55		 push	 ebp
  00001	8b ec		 mov	 ebp, esp
  00003	83 ec 28	 sub	 esp, 40			; 00000028H
  00006	a1 00 00 00 00	 mov	 eax, DWORD PTR ___security_cookie
  0000b	33 c5		 xor	 eax, ebp
  0000d	89 45 fc	 mov	 DWORD PTR __$ArrayPad$[ebp], eax
  00010	8b 45 08	 mov	 eax, DWORD PTR _k$[ebp]

; 162  : 		_ENCSTR(k, _k);

  00013	8a 10		 mov	 dl, BYTE PTR [eax]
  00015	53		 push	 ebx
  00016	56		 push	 esi
  00017	8b 75 0c	 mov	 esi, DWORD PTR _d$[ebp]
  0001a	57		 push	 edi
  0001b	8b 7d 10	 mov	 edi, DWORD PTR _b$[ebp]
  0001e	89 4d d8	 mov	 DWORD PTR _this$GSCopy$[ebp], ecx
  00021	84 d2		 test	 dl, dl
  00023	0f 84 79 02 00
	00		 je	 $LN96@LoadString@6
  00029	80 f2 ed	 xor	 dl, -19			; ffffffedH
  0002c	88 55 dc	 mov	 BYTE PTR __k$[ebp], dl
  0002f	8a 50 01	 mov	 dl, BYTE PTR [eax+1]
  00032	84 d2		 test	 dl, dl
  00034	0f 84 62 02 00
	00		 je	 $LN95@LoadString@6
  0003a	80 f2 ec	 xor	 dl, -20			; ffffffecH
  0003d	88 55 dd	 mov	 BYTE PTR __k$[ebp+1], dl
  00040	8a 50 02	 mov	 dl, BYTE PTR [eax+2]
  00043	84 d2		 test	 dl, dl
  00045	0f 84 4b 02 00
	00		 je	 $LN94@LoadString@6
  0004b	b1 eb		 mov	 cl, -21			; ffffffebH
  0004d	32 d1		 xor	 dl, cl
  0004f	88 55 de	 mov	 BYTE PTR __k$[ebp+2], dl
  00052	8a 50 03	 mov	 dl, BYTE PTR [eax+3]
  00055	84 d2		 test	 dl, dl
  00057	0f 84 33 02 00
	00		 je	 $LN93@LoadString@6
  0005d	b3 ea		 mov	 bl, -22			; ffffffeaH
  0005f	32 d3		 xor	 dl, bl
  00061	88 55 df	 mov	 BYTE PTR __k$[ebp+3], dl
  00064	8a 50 04	 mov	 dl, BYTE PTR [eax+4]
  00067	84 d2		 test	 dl, dl
  00069	0f 84 1b 02 00
	00		 je	 $LN92@LoadString@6
  0006f	80 f2 ed	 xor	 dl, -19			; ffffffedH
  00072	88 55 e0	 mov	 BYTE PTR __k$[ebp+4], dl
  00075	8a 50 05	 mov	 dl, BYTE PTR [eax+5]
  00078	84 d2		 test	 dl, dl
  0007a	0f 84 04 02 00
	00		 je	 $LN91@LoadString@6
  00080	80 f2 ec	 xor	 dl, -20			; ffffffecH
  00083	88 55 e1	 mov	 BYTE PTR __k$[ebp+5], dl
  00086	8a 50 06	 mov	 dl, BYTE PTR [eax+6]
  00089	84 d2		 test	 dl, dl
  0008b	0f 84 ee 01 00
	00		 je	 $LN90@LoadString@6
  00091	32 d1		 xor	 dl, cl
  00093	88 55 e2	 mov	 BYTE PTR __k$[ebp+6], dl
  00096	8a 50 07	 mov	 dl, BYTE PTR [eax+7]
  00099	84 d2		 test	 dl, dl
  0009b	0f 84 d9 01 00
	00		 je	 $LN89@LoadString@6
  000a1	32 d3		 xor	 dl, bl
  000a3	88 55 e3	 mov	 BYTE PTR __k$[ebp+7], dl
  000a6	8a 50 08	 mov	 dl, BYTE PTR [eax+8]
  000a9	84 d2		 test	 dl, dl
  000ab	0f 84 c3 01 00
	00		 je	 $LN88@LoadString@6
  000b1	80 f2 ed	 xor	 dl, -19			; ffffffedH
  000b4	88 55 e4	 mov	 BYTE PTR __k$[ebp+8], dl
  000b7	8a 50 09	 mov	 dl, BYTE PTR [eax+9]
  000ba	84 d2		 test	 dl, dl
  000bc	0f 84 ac 01 00
	00		 je	 $LN87@LoadString@6
  000c2	80 f2 ec	 xor	 dl, -20			; ffffffecH
  000c5	88 55 e5	 mov	 BYTE PTR __k$[ebp+9], dl
  000c8	8a 50 0a	 mov	 dl, BYTE PTR [eax+10]
  000cb	84 d2		 test	 dl, dl
  000cd	0f 84 96 01 00
	00		 je	 $LN86@LoadString@6
  000d3	32 d1		 xor	 dl, cl
  000d5	88 55 e6	 mov	 BYTE PTR __k$[ebp+10], dl
  000d8	8a 50 0b	 mov	 dl, BYTE PTR [eax+11]
  000db	84 d2		 test	 dl, dl
  000dd	0f 84 81 01 00
	00		 je	 $LN85@LoadString@6
  000e3	32 d3		 xor	 dl, bl
  000e5	88 55 e7	 mov	 BYTE PTR __k$[ebp+11], dl
  000e8	8a 50 0c	 mov	 dl, BYTE PTR [eax+12]
  000eb	84 d2		 test	 dl, dl
  000ed	0f 84 6b 01 00
	00		 je	 $LN84@LoadString@6
  000f3	80 f2 ed	 xor	 dl, -19			; ffffffedH
  000f6	88 55 e8	 mov	 BYTE PTR __k$[ebp+12], dl
  000f9	8a 50 0d	 mov	 dl, BYTE PTR [eax+13]
  000fc	84 d2		 test	 dl, dl
  000fe	0f 84 54 01 00
	00		 je	 $LN83@LoadString@6
  00104	80 f2 ec	 xor	 dl, -20			; ffffffecH
  00107	88 55 e9	 mov	 BYTE PTR __k$[ebp+13], dl
  0010a	8a 50 0e	 mov	 dl, BYTE PTR [eax+14]
  0010d	84 d2		 test	 dl, dl
  0010f	0f 84 3e 01 00
	00		 je	 $LN82@LoadString@6
  00115	32 d1		 xor	 dl, cl
  00117	88 55 ea	 mov	 BYTE PTR __k$[ebp+14], dl
  0011a	8a 50 0f	 mov	 dl, BYTE PTR [eax+15]
  0011d	84 d2		 test	 dl, dl
  0011f	0f 84 29 01 00
	00		 je	 $LN81@LoadString@6
  00125	32 d3		 xor	 dl, bl
  00127	88 55 eb	 mov	 BYTE PTR __k$[ebp+15], dl
  0012a	8a 50 10	 mov	 dl, BYTE PTR [eax+16]
  0012d	84 d2		 test	 dl, dl
  0012f	0f 84 13 01 00
	00		 je	 $LN80@LoadString@6
  00135	80 f2 ed	 xor	 dl, -19			; ffffffedH
  00138	88 55 ec	 mov	 BYTE PTR __k$[ebp+16], dl
  0013b	8a 50 11	 mov	 dl, BYTE PTR [eax+17]
  0013e	84 d2		 test	 dl, dl
  00140	0f 84 fc 00 00
	00		 je	 $LN79@LoadString@6
  00146	80 f2 ec	 xor	 dl, -20			; ffffffecH
  00149	88 55 ed	 mov	 BYTE PTR __k$[ebp+17], dl
  0014c	8a 50 12	 mov	 dl, BYTE PTR [eax+18]
  0014f	84 d2		 test	 dl, dl
  00151	0f 84 e6 00 00
	00		 je	 $LN78@LoadString@6
  00157	32 d1		 xor	 dl, cl
  00159	88 55 ee	 mov	 BYTE PTR __k$[ebp+18], dl
  0015c	8a 50 13	 mov	 dl, BYTE PTR [eax+19]
  0015f	84 d2		 test	 dl, dl
  00161	0f 84 d1 00 00
	00		 je	 $LN77@LoadString@6
  00167	32 d3		 xor	 dl, bl
  00169	88 55 ef	 mov	 BYTE PTR __k$[ebp+19], dl
  0016c	8a 50 14	 mov	 dl, BYTE PTR [eax+20]
  0016f	84 d2		 test	 dl, dl
  00171	0f 84 bb 00 00
	00		 je	 $LN76@LoadString@6
  00177	80 f2 ed	 xor	 dl, -19			; ffffffedH
  0017a	88 55 f0	 mov	 BYTE PTR __k$[ebp+20], dl
  0017d	8a 50 15	 mov	 dl, BYTE PTR [eax+21]
  00180	84 d2		 test	 dl, dl
  00182	0f 84 a4 00 00
	00		 je	 $LN75@LoadString@6
  00188	80 f2 ec	 xor	 dl, -20			; ffffffecH
  0018b	88 55 f1	 mov	 BYTE PTR __k$[ebp+21], dl
  0018e	8a 50 16	 mov	 dl, BYTE PTR [eax+22]
  00191	84 d2		 test	 dl, dl
  00193	0f 84 8e 00 00
	00		 je	 $LN74@LoadString@6
  00199	32 d1		 xor	 dl, cl
  0019b	88 55 f2	 mov	 BYTE PTR __k$[ebp+22], dl
  0019e	8a 50 17	 mov	 dl, BYTE PTR [eax+23]
  001a1	84 d2		 test	 dl, dl
  001a3	74 7d		 je	 SHORT $LN73@LoadString@6
  001a5	32 d3		 xor	 dl, bl
  001a7	88 55 f3	 mov	 BYTE PTR __k$[ebp+23], dl
  001aa	8a 50 18	 mov	 dl, BYTE PTR [eax+24]
  001ad	84 d2		 test	 dl, dl
  001af	74 68		 je	 SHORT $LN72@LoadString@6
  001b1	80 f2 ed	 xor	 dl, -19			; ffffffedH
  001b4	80 78 19 00	 cmp	 BYTE PTR [eax+25], 0
  001b8	88 55 f4	 mov	 BYTE PTR __k$[ebp+24], dl
  001bb	0f 84 e5 00 00
	00		 je	 $LN111@LoadString@6
  001c1	8a 50 1a	 mov	 dl, BYTE PTR [eax+26]
  001c4	84 d2		 test	 dl, dl
  001c6	74 49		 je	 SHORT $LN70@LoadString@6
  001c8	32 d1		 xor	 dl, cl
  001ca	88 55 f6	 mov	 BYTE PTR __k$[ebp+26], dl
  001cd	8a 50 1b	 mov	 dl, BYTE PTR [eax+27]
  001d0	84 d2		 test	 dl, dl
  001d2	74 35		 je	 SHORT $LN69@LoadString@6
  001d4	32 d3		 xor	 dl, bl
  001d6	88 55 f7	 mov	 BYTE PTR __k$[ebp+27], dl
  001d9	8a 50 1c	 mov	 dl, BYTE PTR [eax+28]
  001dc	84 d2		 test	 dl, dl
  001de	74 20		 je	 SHORT $LN68@LoadString@6
  001e0	8a 40 1d	 mov	 al, BYTE PTR [eax+29]
  001e3	80 f2 ed	 xor	 dl, -19			; ffffffedH
  001e6	88 55 f8	 mov	 BYTE PTR __k$[ebp+28], dl
  001e9	84 c0		 test	 al, al
  001eb	74 0a		 je	 SHORT $LN67@LoadString@6
  001ed	34 ec		 xor	 al, -20			; ffffffecH
  001ef	88 45 f9	 mov	 BYTE PTR __k$[ebp+29], al
  001f2	e9 af 00 00 00	 jmp	 $LN111@LoadString@6
$LN67@LoadString@6:
  001f7	c6 45 f9 ec	 mov	 BYTE PTR __k$[ebp+29], -20 ; ffffffecH
  001fb	e9 a6 00 00 00	 jmp	 $LN111@LoadString@6
$LN68@LoadString@6:
  00200	c6 45 f8 ed	 mov	 BYTE PTR __k$[ebp+28], -19 ; ffffffedH
  00204	e9 9d 00 00 00	 jmp	 $LN111@LoadString@6
$LN69@LoadString@6:
  00209	88 5d f7	 mov	 BYTE PTR __k$[ebp+27], bl
  0020c	e9 95 00 00 00	 jmp	 $LN111@LoadString@6
$LN70@LoadString@6:
  00211	88 4d f6	 mov	 BYTE PTR __k$[ebp+26], cl
  00214	e9 8d 00 00 00	 jmp	 $LN111@LoadString@6
$LN72@LoadString@6:
  00219	c6 45 f4 ed	 mov	 BYTE PTR __k$[ebp+24], -19 ; ffffffedH
  0021d	e9 84 00 00 00	 jmp	 $LN111@LoadString@6
$LN73@LoadString@6:
  00222	88 5d f3	 mov	 BYTE PTR __k$[ebp+23], bl
  00225	eb 7f		 jmp	 SHORT $LN111@LoadString@6
$LN74@LoadString@6:
  00227	88 4d f2	 mov	 BYTE PTR __k$[ebp+22], cl
  0022a	eb 7a		 jmp	 SHORT $LN111@LoadString@6
$LN75@LoadString@6:
  0022c	c6 45 f1 ec	 mov	 BYTE PTR __k$[ebp+21], -20 ; ffffffecH
  00230	eb 74		 jmp	 SHORT $LN111@LoadString@6
$LN76@LoadString@6:
  00232	c6 45 f0 ed	 mov	 BYTE PTR __k$[ebp+20], -19 ; ffffffedH
  00236	eb 6e		 jmp	 SHORT $LN111@LoadString@6
$LN77@LoadString@6:
  00238	88 5d ef	 mov	 BYTE PTR __k$[ebp+19], bl
  0023b	eb 69		 jmp	 SHORT $LN111@LoadString@6
$LN78@LoadString@6:
  0023d	88 4d ee	 mov	 BYTE PTR __k$[ebp+18], cl
  00240	eb 64		 jmp	 SHORT $LN111@LoadString@6
$LN79@LoadString@6:
  00242	c6 45 ed ec	 mov	 BYTE PTR __k$[ebp+17], -20 ; ffffffecH
  00246	eb 5e		 jmp	 SHORT $LN111@LoadString@6
$LN80@LoadString@6:
  00248	c6 45 ec ed	 mov	 BYTE PTR __k$[ebp+16], -19 ; ffffffedH
  0024c	eb 58		 jmp	 SHORT $LN111@LoadString@6
$LN81@LoadString@6:
  0024e	88 5d eb	 mov	 BYTE PTR __k$[ebp+15], bl
  00251	eb 53		 jmp	 SHORT $LN111@LoadString@6
$LN82@LoadString@6:
  00253	88 4d ea	 mov	 BYTE PTR __k$[ebp+14], cl
  00256	eb 4e		 jmp	 SHORT $LN111@LoadString@6
$LN83@LoadString@6:
  00258	c6 45 e9 ec	 mov	 BYTE PTR __k$[ebp+13], -20 ; ffffffecH
  0025c	eb 48		 jmp	 SHORT $LN111@LoadString@6
$LN84@LoadString@6:
  0025e	c6 45 e8 ed	 mov	 BYTE PTR __k$[ebp+12], -19 ; ffffffedH
  00262	eb 42		 jmp	 SHORT $LN111@LoadString@6
$LN85@LoadString@6:
  00264	88 5d e7	 mov	 BYTE PTR __k$[ebp+11], bl
  00267	eb 3d		 jmp	 SHORT $LN111@LoadString@6
$LN86@LoadString@6:
  00269	88 4d e6	 mov	 BYTE PTR __k$[ebp+10], cl
  0026c	eb 38		 jmp	 SHORT $LN111@LoadString@6
$LN87@LoadString@6:
  0026e	c6 45 e5 ec	 mov	 BYTE PTR __k$[ebp+9], -20 ; ffffffecH
  00272	eb 32		 jmp	 SHORT $LN111@LoadString@6
$LN88@LoadString@6:
  00274	c6 45 e4 ed	 mov	 BYTE PTR __k$[ebp+8], -19 ; ffffffedH
  00278	eb 2c		 jmp	 SHORT $LN111@LoadString@6
$LN89@LoadString@6:
  0027a	88 5d e3	 mov	 BYTE PTR __k$[ebp+7], bl
  0027d	eb 27		 jmp	 SHORT $LN111@LoadString@6
$LN90@LoadString@6:
  0027f	88 4d e2	 mov	 BYTE PTR __k$[ebp+6], cl
  00282	eb 22		 jmp	 SHORT $LN111@LoadString@6
$LN91@LoadString@6:
  00284	c6 45 e1 ec	 mov	 BYTE PTR __k$[ebp+5], -20 ; ffffffecH
  00288	eb 1c		 jmp	 SHORT $LN111@LoadString@6
$LN92@LoadString@6:
  0028a	c6 45 e0 ed	 mov	 BYTE PTR __k$[ebp+4], -19 ; ffffffedH
  0028e	eb 16		 jmp	 SHORT $LN111@LoadString@6
$LN93@LoadString@6:
  00290	c6 45 df ea	 mov	 BYTE PTR __k$[ebp+3], -22 ; ffffffeaH
  00294	eb 10		 jmp	 SHORT $LN111@LoadString@6
$LN94@LoadString@6:
  00296	c6 45 de eb	 mov	 BYTE PTR __k$[ebp+2], -21 ; ffffffebH
  0029a	eb 0a		 jmp	 SHORT $LN111@LoadString@6
$LN95@LoadString@6:
  0029c	c6 45 dd ec	 mov	 BYTE PTR __k$[ebp+1], -20 ; ffffffecH
  002a0	eb 04		 jmp	 SHORT $LN111@LoadString@6
$LN96@LoadString@6:
  002a2	c6 45 dc ed	 mov	 BYTE PTR __k$[ebp], -19	; ffffffedH
$LN111@LoadString@6:
  002a6	6a 06		 push	 6
  002a8	8d 45 dc	 lea	 eax, DWORD PTR __k$[ebp]
  002ab	c6 45 f5 00	 mov	 BYTE PTR __k$[ebp+25], 0
  002af	5a		 pop	 edx
$LL104@LoadString@6:
  002b0	81 30 ed ec eb
	ea		 xor	 DWORD PTR [eax], -353637139 ; eaebecedH
  002b6	83 c0 04	 add	 eax, 4
  002b9	4a		 dec	 edx
  002ba	75 f4		 jne	 SHORT $LL104@LoadString@6

; 163  : 		LoadString(_k, d, b, i);

  002bc	ff 75 14	 push	 DWORD PTR _i$[ebp]
  002bf	8b 4d d8	 mov	 ecx, DWORD PTR _this$GSCopy$[ebp]
  002c2	80 75 f4 ed	 xor	 BYTE PTR __k$[ebp+24], -19 ; ffffffedH
  002c6	57		 push	 edi
  002c7	56		 push	 esi
  002c8	8d 45 dc	 lea	 eax, DWORD PTR __k$[ebp]
  002cb	50		 push	 eax
  002cc	ff 15 00 00 00
	00		 call	 DWORD PTR __imp_?LoadStringA@ioINILoader@@QAEXPBD0PADH@Z

; 164  : 	}

  002d2	8b 4d fc	 mov	 ecx, DWORD PTR __$ArrayPad$[ebp]
  002d5	5f		 pop	 edi
  002d6	5e		 pop	 esi
  002d7	33 cd		 xor	 ecx, ebp
  002d9	5b		 pop	 ebx
  002da	e8 00 00 00 00	 call	 @__security_check_cookie@4
  002df	c9		 leave
  002e0	c2 10 00	 ret	 16			; 00000010H
??$LoadString_e@$0BK@@ioINILoader@@QAEXAAY0BK@$$CBDAAY00$$CBDPADH@Z ENDP ; ioINILoader::LoadString_e<26>
_TEXT	ENDS
PUBLIC	?construct@?$allocator@PAVioAnnounce@@@std@@QAEXPAPAVioAnnounce@@ABQAV3@@Z ; std::allocator<ioAnnounce *>::construct
; Function compile flags: /Ogsp
; File c:\program files (x86)\microsoft visual studio 10.0\vc\include\xmemory
;	COMDAT ?construct@?$allocator@PAVioAnnounce@@@std@@QAEXPAPAVioAnnounce@@ABQAV3@@Z
_TEXT	SEGMENT
__Ptr$ = 8						; size = 4
__Val$ = 12						; size = 4
?construct@?$allocator@PAVioAnnounce@@@std@@QAEXPAPAVioAnnounce@@ABQAV3@@Z PROC ; std::allocator<ioAnnounce *>::construct, COMDAT
; _this$ = ecx

; 196  : 		{	// construct object at _Ptr with value _Val

  00000	55		 push	 ebp
  00001	8b ec		 mov	 ebp, esp

; 197  : 		_Construct(_Ptr, _Val);

  00003	8b 45 08	 mov	 eax, DWORD PTR __Ptr$[ebp]
  00006	85 c0		 test	 eax, eax
  00008	74 07		 je	 SHORT $LN5@construct@2
  0000a	8b 4d 0c	 mov	 ecx, DWORD PTR __Val$[ebp]
  0000d	8b 09		 mov	 ecx, DWORD PTR [ecx]
  0000f	89 08		 mov	 DWORD PTR [eax], ecx
$LN5@construct@2:

; 198  : 		}

  00011	5d		 pop	 ebp
  00012	c2 08 00	 ret	 8
?construct@?$allocator@PAVioAnnounce@@@std@@QAEXPAPAVioAnnounce@@ABQAV3@@Z ENDP ; std::allocator<ioAnnounce *>::construct
_TEXT	ENDS
PUBLIC	?destroy@?$allocator@U_Node@?$_List_nod@PAVioAnnounce@@V?$allocator@PAVioAnnounce@@@std@@@std@@@std@@QAEXPAU_Node@?$_List_nod@PAVioAnnounce@@V?$allocator@PAVioAnnounce@@@std@@@2@@Z ; std::allocator<std::_List_nod<ioAnnounce *,std::allocator<ioAnnounce *> >::_Node>::destroy
; Function compile flags: /Ogsp
;	COMDAT ?destroy@?$allocator@U_Node@?$_List_nod@PAVioAnnounce@@V?$allocator@PAVioAnnounce@@@std@@@std@@@std@@QAEXPAU_Node@?$_List_nod@PAVioAnnounce@@V?$allocator@PAVioAnnounce@@@std@@@2@@Z
_TEXT	SEGMENT
__Ptr$ = 8						; size = 4
?destroy@?$allocator@U_Node@?$_List_nod@PAVioAnnounce@@V?$allocator@PAVioAnnounce@@@std@@@std@@@std@@QAEXPAU_Node@?$_List_nod@PAVioAnnounce@@V?$allocator@PAVioAnnounce@@@std@@@2@@Z PROC ; std::allocator<std::_List_nod<ioAnnounce *,std::allocator<ioAnnounce *> >::_Node>::destroy, COMDAT
; _this$ = ecx

; 213  : 		_Destroy(_Ptr);
; 214  : 		}

  00000	c2 04 00	 ret	 4
?destroy@?$allocator@U_Node@?$_List_nod@PAVioAnnounce@@V?$allocator@PAVioAnnounce@@@std@@@std@@@std@@QAEXPAU_Node@?$_List_nod@PAVioAnnounce@@V?$allocator@PAVioAnnounce@@@std@@@2@@Z ENDP ; std::allocator<std::_List_nod<ioAnnounce *,std::allocator<ioAnnounce *> >::_Node>::destroy
_TEXT	ENDS
PUBLIC	??$encodeString@$0BF@@ioINILoader_e@@AAEPADAAY0BF@$$CBDPAD@Z ; ioINILoader_e::encodeString<21>
; Function compile flags: /Ogsp
; File d:\lost saga for developer\youtube\tutorial\source\src\io3dengine\ioiniloader.h
;	COMDAT ??$encodeString@$0BF@@ioINILoader_e@@AAEPADAAY0BF@$$CBDPAD@Z
_TEXT	SEGMENT
_s$ = 8							; size = 4
_e$ = 12						; size = 4
??$encodeString@$0BF@@ioINILoader_e@@AAEPADAAY0BF@$$CBDPAD@Z PROC ; ioINILoader_e::encodeString<21>, COMDAT
; _this$ = ecx

; 215  : 	{

  00000	55		 push	 ebp
  00001	8b ec		 mov	 ebp, esp

; 216  : 		__ENCSTR(s, e);

  00003	8b 4d 08	 mov	 ecx, DWORD PTR _s$[ebp]
  00006	8a 11		 mov	 dl, BYTE PTR [ecx]
  00008	8b 45 0c	 mov	 eax, DWORD PTR _e$[ebp]
  0000b	53		 push	 ebx
  0000c	84 d2		 test	 dl, dl
  0000e	0f 84 6a 04 00
	00		 je	 $LN96@encodeStri
  00014	80 f2 ed	 xor	 dl, -19			; ffffffedH
  00017	88 10		 mov	 BYTE PTR [eax], dl
  00019	8a 51 01	 mov	 dl, BYTE PTR [ecx+1]
  0001c	84 d2		 test	 dl, dl
  0001e	0f 84 54 04 00
	00		 je	 $LN95@encodeStri
  00024	80 f2 ec	 xor	 dl, -20			; ffffffecH
  00027	88 50 01	 mov	 BYTE PTR [eax+1], dl
  0002a	8a 51 02	 mov	 dl, BYTE PTR [ecx+2]
  0002d	84 d2		 test	 dl, dl
  0002f	0f 84 3d 04 00
	00		 je	 $LN94@encodeStri
  00035	b3 eb		 mov	 bl, -21			; ffffffebH
  00037	32 d3		 xor	 dl, bl
  00039	88 50 02	 mov	 BYTE PTR [eax+2], dl
  0003c	8a 51 03	 mov	 dl, BYTE PTR [ecx+3]
  0003f	84 d2		 test	 dl, dl
  00041	0f 84 25 04 00
	00		 je	 $LN93@encodeStri
  00047	80 f2 ea	 xor	 dl, -22			; ffffffeaH
  0004a	88 50 03	 mov	 BYTE PTR [eax+3], dl
  0004d	8a 51 04	 mov	 dl, BYTE PTR [ecx+4]
  00050	84 d2		 test	 dl, dl
  00052	0f 84 0e 04 00
	00		 je	 $LN92@encodeStri
  00058	80 f2 ed	 xor	 dl, -19			; ffffffedH
  0005b	88 50 04	 mov	 BYTE PTR [eax+4], dl
  0005e	8a 51 05	 mov	 dl, BYTE PTR [ecx+5]
  00061	84 d2		 test	 dl, dl
  00063	0f 84 f7 03 00
	00		 je	 $LN91@encodeStri
  00069	80 f2 ec	 xor	 dl, -20			; ffffffecH
  0006c	88 50 05	 mov	 BYTE PTR [eax+5], dl
  0006f	8a 51 06	 mov	 dl, BYTE PTR [ecx+6]
  00072	84 d2		 test	 dl, dl
  00074	0f 84 e1 03 00
	00		 je	 $LN90@encodeStri
  0007a	32 d3		 xor	 dl, bl
  0007c	88 50 06	 mov	 BYTE PTR [eax+6], dl
  0007f	8a 51 07	 mov	 dl, BYTE PTR [ecx+7]
  00082	84 d2		 test	 dl, dl
  00084	0f 84 cb 03 00
	00		 je	 $LN89@encodeStri
  0008a	80 f2 ea	 xor	 dl, -22			; ffffffeaH
  0008d	88 50 07	 mov	 BYTE PTR [eax+7], dl
  00090	8a 51 08	 mov	 dl, BYTE PTR [ecx+8]
  00093	84 d2		 test	 dl, dl
  00095	0f 84 b4 03 00
	00		 je	 $LN88@encodeStri
  0009b	80 f2 ed	 xor	 dl, -19			; ffffffedH
  0009e	88 50 08	 mov	 BYTE PTR [eax+8], dl
  000a1	8a 51 09	 mov	 dl, BYTE PTR [ecx+9]
  000a4	84 d2		 test	 dl, dl
  000a6	0f 84 9d 03 00
	00		 je	 $LN87@encodeStri
  000ac	80 f2 ec	 xor	 dl, -20			; ffffffecH
  000af	88 50 09	 mov	 BYTE PTR [eax+9], dl
  000b2	8a 51 0a	 mov	 dl, BYTE PTR [ecx+10]
  000b5	84 d2		 test	 dl, dl
  000b7	0f 84 87 03 00
	00		 je	 $LN86@encodeStri
  000bd	32 d3		 xor	 dl, bl
  000bf	88 50 0a	 mov	 BYTE PTR [eax+10], dl
  000c2	8a 51 0b	 mov	 dl, BYTE PTR [ecx+11]
  000c5	84 d2		 test	 dl, dl
  000c7	0f 84 71 03 00
	00		 je	 $LN85@encodeStri
  000cd	80 f2 ea	 xor	 dl, -22			; ffffffeaH
  000d0	88 50 0b	 mov	 BYTE PTR [eax+11], dl
  000d3	8a 51 0c	 mov	 dl, BYTE PTR [ecx+12]
  000d6	84 d2		 test	 dl, dl
  000d8	0f 84 5a 03 00
	00		 je	 $LN84@encodeStri
  000de	80 f2 ed	 xor	 dl, -19			; ffffffedH
  000e1	88 50 0c	 mov	 BYTE PTR [eax+12], dl
  000e4	8a 51 0d	 mov	 dl, BYTE PTR [ecx+13]
  000e7	84 d2		 test	 dl, dl
  000e9	0f 84 43 03 00
	00		 je	 $LN83@encodeStri
  000ef	80 f2 ec	 xor	 dl, -20			; ffffffecH
  000f2	88 50 0d	 mov	 BYTE PTR [eax+13], dl
  000f5	8a 51 0e	 mov	 dl, BYTE PTR [ecx+14]
  000f8	84 d2		 test	 dl, dl
  000fa	0f 84 2d 03 00
	00		 je	 $LN82@encodeStri
  00100	32 d3		 xor	 dl, bl
  00102	88 50 0e	 mov	 BYTE PTR [eax+14], dl
  00105	8a 51 0f	 mov	 dl, BYTE PTR [ecx+15]
  00108	84 d2		 test	 dl, dl
  0010a	0f 84 17 03 00
	00		 je	 $LN81@encodeStri
  00110	80 f2 ea	 xor	 dl, -22			; ffffffeaH
  00113	88 50 0f	 mov	 BYTE PTR [eax+15], dl
  00116	8a 51 10	 mov	 dl, BYTE PTR [ecx+16]
  00119	84 d2		 test	 dl, dl
  0011b	0f 84 00 03 00
	00		 je	 $LN80@encodeStri
  00121	80 f2 ed	 xor	 dl, -19			; ffffffedH
  00124	88 50 10	 mov	 BYTE PTR [eax+16], dl
  00127	8a 51 11	 mov	 dl, BYTE PTR [ecx+17]
  0012a	84 d2		 test	 dl, dl
  0012c	0f 84 e9 02 00
	00		 je	 $LN79@encodeStri
  00132	80 f2 ec	 xor	 dl, -20			; ffffffecH
  00135	88 50 11	 mov	 BYTE PTR [eax+17], dl
  00138	8a 51 12	 mov	 dl, BYTE PTR [ecx+18]
  0013b	84 d2		 test	 dl, dl
  0013d	0f 84 d3 02 00
	00		 je	 $LN78@encodeStri
  00143	32 d3		 xor	 dl, bl
  00145	88 50 12	 mov	 BYTE PTR [eax+18], dl
  00148	8a 51 13	 mov	 dl, BYTE PTR [ecx+19]
  0014b	84 d2		 test	 dl, dl
  0014d	0f 84 bd 02 00
	00		 je	 $LN77@encodeStri
  00153	80 f2 ea	 xor	 dl, -22			; ffffffeaH
  00156	88 50 13	 mov	 BYTE PTR [eax+19], dl
  00159	8a 51 14	 mov	 dl, BYTE PTR [ecx+20]
  0015c	84 d2		 test	 dl, dl
  0015e	0f 84 a6 02 00
	00		 je	 $LN76@encodeStri
  00164	80 f2 ed	 xor	 dl, -19			; ffffffedH
  00167	88 50 14	 mov	 BYTE PTR [eax+20], dl
  0016a	8a 51 15	 mov	 dl, BYTE PTR [ecx+21]
  0016d	84 d2		 test	 dl, dl
  0016f	0f 84 8f 02 00
	00		 je	 $LN75@encodeStri
  00175	80 f2 ec	 xor	 dl, -20			; ffffffecH
  00178	88 50 15	 mov	 BYTE PTR [eax+21], dl
  0017b	8a 51 16	 mov	 dl, BYTE PTR [ecx+22]
  0017e	84 d2		 test	 dl, dl
  00180	0f 84 79 02 00
	00		 je	 $LN74@encodeStri
  00186	32 d3		 xor	 dl, bl
  00188	88 50 16	 mov	 BYTE PTR [eax+22], dl
  0018b	8a 51 17	 mov	 dl, BYTE PTR [ecx+23]
  0018e	84 d2		 test	 dl, dl
  00190	0f 84 60 02 00
	00		 je	 $LN73@encodeStri
  00196	80 f2 ea	 xor	 dl, -22			; ffffffeaH
  00199	88 50 17	 mov	 BYTE PTR [eax+23], dl
  0019c	8a 51 18	 mov	 dl, BYTE PTR [ecx+24]
  0019f	84 d2		 test	 dl, dl
  001a1	0f 84 46 02 00
	00		 je	 $LN72@encodeStri
  001a7	80 f2 ed	 xor	 dl, -19			; ffffffedH
  001aa	88 50 18	 mov	 BYTE PTR [eax+24], dl
  001ad	8a 51 19	 mov	 dl, BYTE PTR [ecx+25]
  001b0	84 d2		 test	 dl, dl
  001b2	0f 84 2c 02 00
	00		 je	 $LN71@encodeStri
  001b8	80 f2 ec	 xor	 dl, -20			; ffffffecH
  001bb	88 50 19	 mov	 BYTE PTR [eax+25], dl
  001be	8a 51 1a	 mov	 dl, BYTE PTR [ecx+26]
  001c1	84 d2		 test	 dl, dl
  001c3	0f 84 13 02 00
	00		 je	 $LN70@encodeStri
  001c9	32 d3		 xor	 dl, bl
  001cb	88 50 1a	 mov	 BYTE PTR [eax+26], dl
  001ce	8a 51 1b	 mov	 dl, BYTE PTR [ecx+27]
  001d1	84 d2		 test	 dl, dl
  001d3	0f 84 fa 01 00
	00		 je	 $LN69@encodeStri
  001d9	80 f2 ea	 xor	 dl, -22			; ffffffeaH
  001dc	88 50 1b	 mov	 BYTE PTR [eax+27], dl
  001df	8a 51 1c	 mov	 dl, BYTE PTR [ecx+28]
  001e2	84 d2		 test	 dl, dl
  001e4	0f 84 e0 01 00
	00		 je	 $LN68@encodeStri
  001ea	80 f2 ed	 xor	 dl, -19			; ffffffedH
  001ed	88 50 1c	 mov	 BYTE PTR [eax+28], dl
  001f0	8a 51 1d	 mov	 dl, BYTE PTR [ecx+29]
  001f3	84 d2		 test	 dl, dl
  001f5	0f 84 c6 01 00
	00		 je	 $LN67@encodeStri
  001fb	80 f2 ec	 xor	 dl, -20			; ffffffecH
  001fe	88 50 1d	 mov	 BYTE PTR [eax+29], dl
  00201	8a 51 1e	 mov	 dl, BYTE PTR [ecx+30]
  00204	84 d2		 test	 dl, dl
  00206	0f 84 ad 01 00
	00		 je	 $LN66@encodeStri
  0020c	32 d3		 xor	 dl, bl
  0020e	88 50 1e	 mov	 BYTE PTR [eax+30], dl
  00211	8a 51 1f	 mov	 dl, BYTE PTR [ecx+31]
  00214	84 d2		 test	 dl, dl
  00216	0f 84 94 01 00
	00		 je	 $LN65@encodeStri
  0021c	80 f2 ea	 xor	 dl, -22			; ffffffeaH
  0021f	88 50 1f	 mov	 BYTE PTR [eax+31], dl
  00222	8a 51 20	 mov	 dl, BYTE PTR [ecx+32]
  00225	84 d2		 test	 dl, dl
  00227	0f 84 7a 01 00
	00		 je	 $LN64@encodeStri
  0022d	80 f2 ed	 xor	 dl, -19			; ffffffedH
  00230	88 50 20	 mov	 BYTE PTR [eax+32], dl
  00233	8a 51 21	 mov	 dl, BYTE PTR [ecx+33]
  00236	84 d2		 test	 dl, dl
  00238	0f 84 60 01 00
	00		 je	 $LN63@encodeStri
  0023e	80 f2 ec	 xor	 dl, -20			; ffffffecH
  00241	88 50 21	 mov	 BYTE PTR [eax+33], dl
  00244	8a 51 22	 mov	 dl, BYTE PTR [ecx+34]
  00247	84 d2		 test	 dl, dl
  00249	0f 84 47 01 00
	00		 je	 $LN62@encodeStri
  0024f	32 d3		 xor	 dl, bl
  00251	88 50 22	 mov	 BYTE PTR [eax+34], dl
  00254	8a 51 23	 mov	 dl, BYTE PTR [ecx+35]
  00257	84 d2		 test	 dl, dl
  00259	0f 84 2e 01 00
	00		 je	 $LN61@encodeStri
  0025f	80 f2 ea	 xor	 dl, -22			; ffffffeaH
  00262	88 50 23	 mov	 BYTE PTR [eax+35], dl
  00265	8a 51 24	 mov	 dl, BYTE PTR [ecx+36]
  00268	84 d2		 test	 dl, dl
  0026a	0f 84 14 01 00
	00		 je	 $LN60@encodeStri
  00270	80 f2 ed	 xor	 dl, -19			; ffffffedH
  00273	88 50 24	 mov	 BYTE PTR [eax+36], dl
  00276	8a 51 25	 mov	 dl, BYTE PTR [ecx+37]
  00279	84 d2		 test	 dl, dl
  0027b	0f 84 fa 00 00
	00		 je	 $LN59@encodeStri
  00281	80 f2 ec	 xor	 dl, -20			; ffffffecH
  00284	88 50 25	 mov	 BYTE PTR [eax+37], dl
  00287	8a 51 26	 mov	 dl, BYTE PTR [ecx+38]
  0028a	84 d2		 test	 dl, dl
  0028c	0f 84 e1 00 00
	00		 je	 $LN58@encodeStri
  00292	32 d3		 xor	 dl, bl
  00294	88 50 26	 mov	 BYTE PTR [eax+38], dl
  00297	8a 51 27	 mov	 dl, BYTE PTR [ecx+39]
  0029a	84 d2		 test	 dl, dl
  0029c	0f 84 c8 00 00
	00		 je	 $LN57@encodeStri
  002a2	80 f2 ea	 xor	 dl, -22			; ffffffeaH
  002a5	88 50 27	 mov	 BYTE PTR [eax+39], dl
  002a8	8a 51 28	 mov	 dl, BYTE PTR [ecx+40]
  002ab	84 d2		 test	 dl, dl
  002ad	0f 84 ae 00 00
	00		 je	 $LN56@encodeStri
  002b3	80 f2 ed	 xor	 dl, -19			; ffffffedH
  002b6	88 50 28	 mov	 BYTE PTR [eax+40], dl
  002b9	8a 51 29	 mov	 dl, BYTE PTR [ecx+41]
  002bc	84 d2		 test	 dl, dl
  002be	0f 84 94 00 00
	00		 je	 $LN55@encodeStri
  002c4	80 f2 ec	 xor	 dl, -20			; ffffffecH
  002c7	88 50 29	 mov	 BYTE PTR [eax+41], dl
  002ca	8a 51 2a	 mov	 dl, BYTE PTR [ecx+42]
  002cd	84 d2		 test	 dl, dl
  002cf	74 7f		 je	 SHORT $LN54@encodeStri
  002d1	32 d3		 xor	 dl, bl
  002d3	88 50 2a	 mov	 BYTE PTR [eax+42], dl
  002d6	8a 51 2b	 mov	 dl, BYTE PTR [ecx+43]
  002d9	84 d2		 test	 dl, dl
  002db	74 6a		 je	 SHORT $LN53@encodeStri
  002dd	80 f2 ea	 xor	 dl, -22			; ffffffeaH
  002e0	88 50 2b	 mov	 BYTE PTR [eax+43], dl
  002e3	8a 51 2c	 mov	 dl, BYTE PTR [ecx+44]
  002e6	84 d2		 test	 dl, dl
  002e8	74 54		 je	 SHORT $LN52@encodeStri
  002ea	80 f2 ed	 xor	 dl, -19			; ffffffedH
  002ed	88 50 2c	 mov	 BYTE PTR [eax+44], dl
  002f0	8a 51 2d	 mov	 dl, BYTE PTR [ecx+45]
  002f3	84 d2		 test	 dl, dl
  002f5	74 3e		 je	 SHORT $LN51@encodeStri
  002f7	80 f2 ec	 xor	 dl, -20			; ffffffecH
  002fa	88 50 2d	 mov	 BYTE PTR [eax+45], dl
  002fd	8a 51 2e	 mov	 dl, BYTE PTR [ecx+46]
  00300	84 d2		 test	 dl, dl
  00302	74 29		 je	 SHORT $LN50@encodeStri
  00304	32 d3		 xor	 dl, bl
  00306	88 50 2e	 mov	 BYTE PTR [eax+46], dl
  00309	8a 51 2f	 mov	 dl, BYTE PTR [ecx+47]
  0030c	84 d2		 test	 dl, dl
  0030e	74 14		 je	 SHORT $LN49@encodeStri
  00310	80 f2 ea	 xor	 dl, -22			; ffffffeaH
  00313	88 50 2f	 mov	 BYTE PTR [eax+47], dl
  00316	8a 49 30	 mov	 cl, BYTE PTR [ecx+48]
  00319	80 f1 ed	 xor	 cl, -19			; ffffffedH
  0031c	88 48 30	 mov	 BYTE PTR [eax+48], cl
  0031f	e9 5d 01 00 00	 jmp	 $LN1@encodeStri
$LN49@encodeStri:
  00324	c6 40 2f ea	 mov	 BYTE PTR [eax+47], -22	; ffffffeaH
  00328	e9 54 01 00 00	 jmp	 $LN1@encodeStri
$LN50@encodeStri:
  0032d	88 58 2e	 mov	 BYTE PTR [eax+46], bl
  00330	e9 4c 01 00 00	 jmp	 $LN1@encodeStri
$LN51@encodeStri:
  00335	c6 40 2d ec	 mov	 BYTE PTR [eax+45], -20	; ffffffecH
  00339	e9 43 01 00 00	 jmp	 $LN1@encodeStri
$LN52@encodeStri:
  0033e	c6 40 2c ed	 mov	 BYTE PTR [eax+44], -19	; ffffffedH
  00342	e9 3a 01 00 00	 jmp	 $LN1@encodeStri
$LN53@encodeStri:
  00347	c6 40 2b ea	 mov	 BYTE PTR [eax+43], -22	; ffffffeaH
  0034b	e9 31 01 00 00	 jmp	 $LN1@encodeStri
$LN54@encodeStri:
  00350	88 58 2a	 mov	 BYTE PTR [eax+42], bl
  00353	e9 29 01 00 00	 jmp	 $LN1@encodeStri
$LN55@encodeStri:
  00358	c6 40 29 ec	 mov	 BYTE PTR [eax+41], -20	; ffffffecH
  0035c	e9 20 01 00 00	 jmp	 $LN1@encodeStri
$LN56@encodeStri:
  00361	c6 40 28 ed	 mov	 BYTE PTR [eax+40], -19	; ffffffedH
  00365	e9 17 01 00 00	 jmp	 $LN1@encodeStri
$LN57@encodeStri:
  0036a	c6 40 27 ea	 mov	 BYTE PTR [eax+39], -22	; ffffffeaH
  0036e	e9 0e 01 00 00	 jmp	 $LN1@encodeStri
$LN58@encodeStri:
  00373	88 58 26	 mov	 BYTE PTR [eax+38], bl
  00376	e9 06 01 00 00	 jmp	 $LN1@encodeStri
$LN59@encodeStri:
  0037b	c6 40 25 ec	 mov	 BYTE PTR [eax+37], -20	; ffffffecH
  0037f	e9 fd 00 00 00	 jmp	 $LN1@encodeStri
$LN60@encodeStri:
  00384	c6 40 24 ed	 mov	 BYTE PTR [eax+36], -19	; ffffffedH
  00388	e9 f4 00 00 00	 jmp	 $LN1@encodeStri
$LN61@encodeStri:
  0038d	c6 40 23 ea	 mov	 BYTE PTR [eax+35], -22	; ffffffeaH
  00391	e9 eb 00 00 00	 jmp	 $LN1@encodeStri
$LN62@encodeStri:
  00396	88 58 22	 mov	 BYTE PTR [eax+34], bl
  00399	e9 e3 00 00 00	 jmp	 $LN1@encodeStri
$LN63@encodeStri:
  0039e	c6 40 21 ec	 mov	 BYTE PTR [eax+33], -20	; ffffffecH
  003a2	e9 da 00 00 00	 jmp	 $LN1@encodeStri
$LN64@encodeStri:
  003a7	c6 40 20 ed	 mov	 BYTE PTR [eax+32], -19	; ffffffedH
  003ab	e9 d1 00 00 00	 jmp	 $LN1@encodeStri
$LN65@encodeStri:
  003b0	c6 40 1f ea	 mov	 BYTE PTR [eax+31], -22	; ffffffeaH
  003b4	e9 c8 00 00 00	 jmp	 $LN1@encodeStri
$LN66@encodeStri:
  003b9	88 58 1e	 mov	 BYTE PTR [eax+30], bl
  003bc	e9 c0 00 00 00	 jmp	 $LN1@encodeStri
$LN67@encodeStri:
  003c1	c6 40 1d ec	 mov	 BYTE PTR [eax+29], -20	; ffffffecH
  003c5	e9 b7 00 00 00	 jmp	 $LN1@encodeStri
$LN68@encodeStri:
  003ca	c6 40 1c ed	 mov	 BYTE PTR [eax+28], -19	; ffffffedH
  003ce	e9 ae 00 00 00	 jmp	 $LN1@encodeStri
$LN69@encodeStri:
  003d3	c6 40 1b ea	 mov	 BYTE PTR [eax+27], -22	; ffffffeaH
  003d7	e9 a5 00 00 00	 jmp	 $LN1@encodeStri
$LN70@encodeStri:
  003dc	88 58 1a	 mov	 BYTE PTR [eax+26], bl
  003df	e9 9d 00 00 00	 jmp	 $LN1@encodeStri
$LN71@encodeStri:
  003e4	c6 40 19 ec	 mov	 BYTE PTR [eax+25], -20	; ffffffecH
  003e8	e9 94 00 00 00	 jmp	 $LN1@encodeStri
$LN72@encodeStri:
  003ed	c6 40 18 ed	 mov	 BYTE PTR [eax+24], -19	; ffffffedH
  003f1	e9 8b 00 00 00	 jmp	 $LN1@encodeStri
$LN73@encodeStri:
  003f6	c6 40 17 ea	 mov	 BYTE PTR [eax+23], -22	; ffffffeaH
  003fa	e9 82 00 00 00	 jmp	 $LN1@encodeStri
$LN74@encodeStri:
  003ff	88 58 16	 mov	 BYTE PTR [eax+22], bl
  00402	eb 7d		 jmp	 SHORT $LN1@encodeStri
$LN75@encodeStri:
  00404	c6 40 15 ec	 mov	 BYTE PTR [eax+21], -20	; ffffffecH
  00408	eb 77		 jmp	 SHORT $LN1@encodeStri
$LN76@encodeStri:
  0040a	c6 40 14 ed	 mov	 BYTE PTR [eax+20], -19	; ffffffedH
  0040e	eb 71		 jmp	 SHORT $LN1@encodeStri
$LN77@encodeStri:
  00410	c6 40 13 ea	 mov	 BYTE PTR [eax+19], -22	; ffffffeaH
  00414	eb 6b		 jmp	 SHORT $LN1@encodeStri
$LN78@encodeStri:
  00416	88 58 12	 mov	 BYTE PTR [eax+18], bl
  00419	eb 66		 jmp	 SHORT $LN1@encodeStri
$LN79@encodeStri:
  0041b	c6 40 11 ec	 mov	 BYTE PTR [eax+17], -20	; ffffffecH
  0041f	eb 60		 jmp	 SHORT $LN1@encodeStri
$LN80@encodeStri:
  00421	c6 40 10 ed	 mov	 BYTE PTR [eax+16], -19	; ffffffedH
  00425	eb 5a		 jmp	 SHORT $LN1@encodeStri
$LN81@encodeStri:
  00427	c6 40 0f ea	 mov	 BYTE PTR [eax+15], -22	; ffffffeaH
  0042b	eb 54		 jmp	 SHORT $LN1@encodeStri
$LN82@encodeStri:
  0042d	88 58 0e	 mov	 BYTE PTR [eax+14], bl
  00430	eb 4f		 jmp	 SHORT $LN1@encodeStri
$LN83@encodeStri:
  00432	c6 40 0d ec	 mov	 BYTE PTR [eax+13], -20	; ffffffecH
  00436	eb 49		 jmp	 SHORT $LN1@encodeStri
$LN84@encodeStri:
  00438	c6 40 0c ed	 mov	 BYTE PTR [eax+12], -19	; ffffffedH
  0043c	eb 43		 jmp	 SHORT $LN1@encodeStri
$LN85@encodeStri:
  0043e	c6 40 0b ea	 mov	 BYTE PTR [eax+11], -22	; ffffffeaH
  00442	eb 3d		 jmp	 SHORT $LN1@encodeStri
$LN86@encodeStri:
  00444	88 58 0a	 mov	 BYTE PTR [eax+10], bl
  00447	eb 38		 jmp	 SHORT $LN1@encodeStri
$LN87@encodeStri:
  00449	c6 40 09 ec	 mov	 BYTE PTR [eax+9], -20	; ffffffecH
  0044d	eb 32		 jmp	 SHORT $LN1@encodeStri
$LN88@encodeStri:
  0044f	c6 40 08 ed	 mov	 BYTE PTR [eax+8], -19	; ffffffedH
  00453	eb 2c		 jmp	 SHORT $LN1@encodeStri
$LN89@encodeStri:
  00455	c6 40 07 ea	 mov	 BYTE PTR [eax+7], -22	; ffffffeaH
  00459	eb 26		 jmp	 SHORT $LN1@encodeStri
$LN90@encodeStri:
  0045b	88 58 06	 mov	 BYTE PTR [eax+6], bl
  0045e	eb 21		 jmp	 SHORT $LN1@encodeStri
$LN91@encodeStri:
  00460	c6 40 05 ec	 mov	 BYTE PTR [eax+5], -20	; ffffffecH
  00464	eb 1b		 jmp	 SHORT $LN1@encodeStri
$LN92@encodeStri:
  00466	c6 40 04 ed	 mov	 BYTE PTR [eax+4], -19	; ffffffedH
  0046a	eb 15		 jmp	 SHORT $LN1@encodeStri
$LN93@encodeStri:
  0046c	c6 40 03 ea	 mov	 BYTE PTR [eax+3], -22	; ffffffeaH
  00470	eb 0f		 jmp	 SHORT $LN1@encodeStri
$LN94@encodeStri:
  00472	c6 40 02 eb	 mov	 BYTE PTR [eax+2], -21	; ffffffebH
  00476	eb 09		 jmp	 SHORT $LN1@encodeStri
$LN95@encodeStri:
  00478	c6 40 01 ec	 mov	 BYTE PTR [eax+1], -20	; ffffffecH
  0047c	eb 03		 jmp	 SHORT $LN1@encodeStri
$LN96@encodeStri:
  0047e	c6 00 ed	 mov	 BYTE PTR [eax], -19	; ffffffedH
$LN1@encodeStri:
  00481	6a 05		 push	 5
  00483	5a		 pop	 edx
  00484	8b c8		 mov	 ecx, eax
  00486	c6 40 14 00	 mov	 BYTE PTR [eax+20], 0
  0048a	5b		 pop	 ebx
$LL104@encodeStri:
  0048b	81 31 ed ec eb
	ea		 xor	 DWORD PTR [ecx], -353637139 ; eaebecedH
  00491	83 c1 04	 add	 ecx, 4
  00494	4a		 dec	 edx
  00495	75 f4		 jne	 SHORT $LL104@encodeStri

; 217  : 		return e;
; 218  : 	}

  00497	5d		 pop	 ebp
  00498	c2 08 00	 ret	 8
??$encodeString@$0BF@@ioINILoader_e@@AAEPADAAY0BF@$$CBDPAD@Z ENDP ; ioINILoader_e::encodeString<21>
_TEXT	ENDS
PUBLIC	??$swap@PAU_Node@?$_List_nod@PAVioAnnounce@@V?$allocator@PAVioAnnounce@@@std@@@std@@@std@@YAXAAPAU_Node@?$_List_nod@PAVioAnnounce@@V?$allocator@PAVioAnnounce@@@std@@@0@0@Z ; std::swap<std::_List_nod<ioAnnounce *,std::allocator<ioAnnounce *> >::_Node *>
; Function compile flags: /Ogsp
; File c:\program files (x86)\microsoft visual studio 10.0\vc\include\utility
;	COMDAT ??$swap@PAU_Node@?$_List_nod@PAVioAnnounce@@V?$allocator@PAVioAnnounce@@@std@@@std@@@std@@YAXAAPAU_Node@?$_List_nod@PAVioAnnounce@@V?$allocator@PAVioAnnounce@@@std@@@0@0@Z
_TEXT	SEGMENT
__Left$ = 8						; size = 4
__Right$ = 12						; size = 4
??$swap@PAU_Node@?$_List_nod@PAVioAnnounce@@V?$allocator@PAVioAnnounce@@@std@@@std@@@std@@YAXAAPAU_Node@?$_List_nod@PAVioAnnounce@@V?$allocator@PAVioAnnounce@@@std@@@0@0@Z PROC ; std::swap<std::_List_nod<ioAnnounce *,std::allocator<ioAnnounce *> >::_Node *>, COMDAT

; 101  : 	{	// exchange values stored at _Left and _Right

  00000	55		 push	 ebp
  00001	8b ec		 mov	 ebp, esp

; 102  : 	_Ty _Tmp = _Move(_Left);
; 103  : 	_Left = _Move(_Right);

  00003	8b 55 0c	 mov	 edx, DWORD PTR __Right$[ebp]
  00006	8b 45 08	 mov	 eax, DWORD PTR __Left$[ebp]
  00009	8b 08		 mov	 ecx, DWORD PTR [eax]
  0000b	56		 push	 esi
  0000c	8b 32		 mov	 esi, DWORD PTR [edx]
  0000e	89 30		 mov	 DWORD PTR [eax], esi

; 104  : 	_Right = _Move(_Tmp);

  00010	89 0a		 mov	 DWORD PTR [edx], ecx
  00012	5e		 pop	 esi

; 105  : 	}

  00013	5d		 pop	 ebp
  00014	c3		 ret	 0
??$swap@PAU_Node@?$_List_nod@PAVioAnnounce@@V?$allocator@PAVioAnnounce@@@std@@@std@@@std@@YAXAAPAU_Node@?$_List_nod@PAVioAnnounce@@V?$allocator@PAVioAnnounce@@@std@@@0@0@Z ENDP ; std::swap<std::_List_nod<ioAnnounce *,std::allocator<ioAnnounce *> >::_Node *>
_TEXT	ENDS
PUBLIC	??$swap@I@std@@YAXAAI0@Z			; std::swap<unsigned int>
; Function compile flags: /Ogsp
;	COMDAT ??$swap@I@std@@YAXAAI0@Z
_TEXT	SEGMENT
__Left$ = 8						; size = 4
__Right$ = 12						; size = 4
??$swap@I@std@@YAXAAI0@Z PROC				; std::swap<unsigned int>, COMDAT

; 101  : 	{	// exchange values stored at _Left and _Right

  00000	55		 push	 ebp
  00001	8b ec		 mov	 ebp, esp

; 102  : 	_Ty _Tmp = _Move(_Left);
; 103  : 	_Left = _Move(_Right);

  00003	8b 55 0c	 mov	 edx, DWORD PTR __Right$[ebp]
  00006	8b 45 08	 mov	 eax, DWORD PTR __Left$[ebp]
  00009	8b 08		 mov	 ecx, DWORD PTR [eax]
  0000b	56		 push	 esi
  0000c	8b 32		 mov	 esi, DWORD PTR [edx]
  0000e	89 30		 mov	 DWORD PTR [eax], esi

; 104  : 	_Right = _Move(_Tmp);

  00010	89 0a		 mov	 DWORD PTR [edx], ecx
  00012	5e		 pop	 esi

; 105  : 	}

  00013	5d		 pop	 ebp
  00014	c3		 ret	 0
??$swap@I@std@@YAXAAI0@Z ENDP				; std::swap<unsigned int>
_TEXT	ENDS
PUBLIC	??$_Cons_val@V?$allocator@PAVioAnnounce@@@std@@PAVioAnnounce@@PAV3@@std@@YAXAAV?$allocator@PAVioAnnounce@@@0@PAPAVioAnnounce@@$$QAPAV2@@Z ; std::_Cons_val<std::allocator<ioAnnounce *>,ioAnnounce *,ioAnnounce *>
; Function compile flags: /Ogsp
; File c:\program files (x86)\microsoft visual studio 10.0\vc\include\xmemory
;	COMDAT ??$_Cons_val@V?$allocator@PAVioAnnounce@@@std@@PAVioAnnounce@@PAV3@@std@@YAXAAV?$allocator@PAVioAnnounce@@@0@PAPAVioAnnounce@@$$QAPAV2@@Z
_TEXT	SEGMENT
__Alval$ = 8						; size = 4
__Pdest$ = 12						; size = 4
__Src$ = 16						; size = 4
??$_Cons_val@V?$allocator@PAVioAnnounce@@@std@@PAVioAnnounce@@PAV3@@std@@YAXAAV?$allocator@PAVioAnnounce@@@0@PAPAVioAnnounce@@$$QAPAV2@@Z PROC ; std::_Cons_val<std::allocator<ioAnnounce *>,ioAnnounce *,ioAnnounce *>, COMDAT

; 279  : 	{	// construct using allocator

  00000	55		 push	 ebp
  00001	8b ec		 mov	 ebp, esp

; 280  : 	_Alval.construct(_Pdest, _STD forward<_Ty2>(_Src));

  00003	8b 45 0c	 mov	 eax, DWORD PTR __Pdest$[ebp]
  00006	85 c0		 test	 eax, eax
  00008	74 07		 je	 SHORT $LN7@Cons_val
  0000a	8b 4d 10	 mov	 ecx, DWORD PTR __Src$[ebp]
  0000d	8b 09		 mov	 ecx, DWORD PTR [ecx]
  0000f	89 08		 mov	 DWORD PTR [eax], ecx
$LN7@Cons_val:

; 281  : 	}

  00011	5d		 pop	 ebp
  00012	c3		 ret	 0
??$_Cons_val@V?$allocator@PAVioAnnounce@@@std@@PAVioAnnounce@@PAV3@@std@@YAXAAV?$allocator@PAVioAnnounce@@@0@PAPAVioAnnounce@@$$QAPAV2@@Z ENDP ; std::_Cons_val<std::allocator<ioAnnounce *>,ioAnnounce *,ioAnnounce *>
_TEXT	ENDS
PUBLIC	??0?$_List_iterator@V?$_List_val@PAVioAnnounce@@V?$allocator@PAVioAnnounce@@@std@@@std@@@std@@QAE@XZ ; std::_List_iterator<std::_List_val<ioAnnounce *,std::allocator<ioAnnounce *> > >::_List_iterator<std::_List_val<ioAnnounce *,std::allocator<ioAnnounce *> > >
; Function compile flags: /Ogsp
; File c:\program files (x86)\microsoft visual studio 10.0\vc\include\list
;	COMDAT ??0?$_List_iterator@V?$_List_val@PAVioAnnounce@@V?$allocator@PAVioAnnounce@@@std@@@std@@@std@@QAE@XZ
_TEXT	SEGMENT
??0?$_List_iterator@V?$_List_val@PAVioAnnounce@@V?$allocator@PAVioAnnounce@@@std@@@std@@@std@@QAE@XZ PROC ; std::_List_iterator<std::_List_val<ioAnnounce *,std::allocator<ioAnnounce *> > >::_List_iterator<std::_List_val<ioAnnounce *,std::allocator<ioAnnounce *> > >, COMDAT
; _this$ = ecx

; 336  : 	_List_iterator()

  00000	8b c1		 mov	 eax, ecx
  00002	83 20 00	 and	 DWORD PTR [eax], 0

; 337  : 		{	// construct with null node
; 338  : 		}

  00005	c3		 ret	 0
??0?$_List_iterator@V?$_List_val@PAVioAnnounce@@V?$allocator@PAVioAnnounce@@@std@@@std@@@std@@QAE@XZ ENDP ; std::_List_iterator<std::_List_val<ioAnnounce *,std::allocator<ioAnnounce *> > >::_List_iterator<std::_List_val<ioAnnounce *,std::allocator<ioAnnounce *> > >
_TEXT	ENDS
PUBLIC	??D?$_List_iterator@V?$_List_val@PAVioAnnounce@@V?$allocator@PAVioAnnounce@@@std@@@std@@@std@@QBEAAPAVioAnnounce@@XZ ; std::_List_iterator<std::_List_val<ioAnnounce *,std::allocator<ioAnnounce *> > >::operator*
; Function compile flags: /Ogsp
;	COMDAT ??D?$_List_iterator@V?$_List_val@PAVioAnnounce@@V?$allocator@PAVioAnnounce@@@std@@@std@@@std@@QBEAAPAVioAnnounce@@XZ
_TEXT	SEGMENT
??D?$_List_iterator@V?$_List_val@PAVioAnnounce@@V?$allocator@PAVioAnnounce@@@std@@@std@@@std@@QBEAAPAVioAnnounce@@XZ PROC ; std::_List_iterator<std::_List_val<ioAnnounce *,std::allocator<ioAnnounce *> > >::operator*, COMDAT
; _this$ = ecx

; 360  : 		return ((reference)**(_Mybase *)this);

  00000	8b 01		 mov	 eax, DWORD PTR [ecx]
  00002	83 c0 08	 add	 eax, 8

; 361  : 		}

  00005	c3		 ret	 0
??D?$_List_iterator@V?$_List_val@PAVioAnnounce@@V?$allocator@PAVioAnnounce@@@std@@@std@@@std@@QBEAAPAVioAnnounce@@XZ ENDP ; std::_List_iterator<std::_List_val<ioAnnounce *,std::allocator<ioAnnounce *> > >::operator*
_TEXT	ENDS
PUBLIC	??0?$_List_val@PAVioAnnounce@@V?$allocator@PAVioAnnounce@@@std@@@std@@QAE@V?$allocator@PAVioAnnounce@@@1@@Z ; std::_List_val<ioAnnounce *,std::allocator<ioAnnounce *> >::_List_val<ioAnnounce *,std::allocator<ioAnnounce *> >
; Function compile flags: /Ogsp
;	COMDAT ??0?$_List_val@PAVioAnnounce@@V?$allocator@PAVioAnnounce@@@std@@@std@@QAE@V?$allocator@PAVioAnnounce@@@1@@Z
_TEXT	SEGMENT
$T508794 = -16						; size = 12
$T508771 = -4						; size = 4
__Al$ = 8						; size = 1
??0?$_List_val@PAVioAnnounce@@V?$allocator@PAVioAnnounce@@@std@@@std@@QAE@V?$allocator@PAVioAnnounce@@@1@@Z PROC ; std::_List_val<ioAnnounce *,std::allocator<ioAnnounce *> >::_List_val<ioAnnounce *,std::allocator<ioAnnounce *> >, COMDAT
; _this$ = ecx

; 493  : 		{	// construct base, and allocator from _Al

  00000	55		 push	 ebp
  00001	8b ec		 mov	 ebp, esp
  00003	83 ec 10	 sub	 esp, 16			; 00000010H
  00006	56		 push	 esi
  00007	8b f1		 mov	 esi, ecx

; 494  : 		this->_Mysize = 0;

  00009	83 66 04 00	 and	 DWORD PTR [esi+4], 0

; 495  : 		this->_Myhead = this->_Alnod.allocate(1);

  0000d	6a 0c		 push	 12			; 0000000cH
  0000f	e8 00 00 00 00	 call	 ??2@YAPAXI@Z		; operator new
  00014	59		 pop	 ecx
  00015	85 c0		 test	 eax, eax
  00017	74 10		 je	 SHORT $LN13@List_val
  00019	89 06		 mov	 DWORD PTR [esi], eax

; 496  : 		this->_Nextnode(this->_Myhead) = this->_Myhead;

  0001b	89 00		 mov	 DWORD PTR [eax], eax

; 497  : 		this->_Prevnode(this->_Myhead) = this->_Myhead;

  0001d	8b 06		 mov	 eax, DWORD PTR [esi]
  0001f	89 40 04	 mov	 DWORD PTR [eax+4], eax

; 498  : 		}

  00022	8b c6		 mov	 eax, esi
  00024	5e		 pop	 esi
  00025	c9		 leave
  00026	c2 04 00	 ret	 4

; 495  : 		this->_Myhead = this->_Alnod.allocate(1);

$LN13@List_val:
  00029	83 65 fc 00	 and	 DWORD PTR $T508771[ebp], 0
  0002d	8d 45 fc	 lea	 eax, DWORD PTR $T508771[ebp]
  00030	50		 push	 eax
  00031	8d 4d f0	 lea	 ecx, DWORD PTR $T508794[ebp]
  00034	ff 15 00 00 00
	00		 call	 DWORD PTR __imp_??0exception@std@@QAE@ABQBD@Z
  0003a	68 00 00 00 00	 push	 OFFSET __TI2?AVbad_alloc@std@@
  0003f	8d 45 f0	 lea	 eax, DWORD PTR $T508794[ebp]
  00042	50		 push	 eax
  00043	c7 45 f0 00 00
	00 00		 mov	 DWORD PTR $T508794[ebp], OFFSET ??_7bad_alloc@std@@6B@
  0004a	e8 00 00 00 00	 call	 __CxxThrowException@8
$LN29@List_val:
$LN28@List_val:
  0004f	cc		 int	 3
??0?$_List_val@PAVioAnnounce@@V?$allocator@PAVioAnnounce@@@std@@@std@@QAE@V?$allocator@PAVioAnnounce@@@1@@Z ENDP ; std::_List_val<ioAnnounce *,std::allocator<ioAnnounce *> >::_List_val<ioAnnounce *,std::allocator<ioAnnounce *> >
_TEXT	ENDS
PUBLIC	??_C@_0BB@MOGOBHAF@list?$DMT?$DO?5too?5long?$AA@ ; `string'
PUBLIC	?_Incsize@?$list@PAVioAnnounce@@V?$allocator@PAVioAnnounce@@@std@@@std@@QAEXI@Z ; std::list<ioAnnounce *,std::allocator<ioAnnounce *> >::_Incsize
EXTRN	__imp_?_Xlength_error@std@@YAXPBD@Z:PROC
;	COMDAT ??_C@_0BB@MOGOBHAF@list?$DMT?$DO?5too?5long?$AA@
; File c:\program files (x86)\microsoft visual studio 10.0\vc\include\xmemory
CONST	SEGMENT
??_C@_0BB@MOGOBHAF@list?$DMT?$DO?5too?5long?$AA@ DB 'list<T> too long', 00H ; `string'
; Function compile flags: /Ogsp
; File c:\program files (x86)\microsoft visual studio 10.0\vc\include\list
CONST	ENDS
;	COMDAT ?_Incsize@?$list@PAVioAnnounce@@V?$allocator@PAVioAnnounce@@@std@@@std@@QAEXI@Z
_TEXT	SEGMENT
__Count$ = 8						; size = 4
?_Incsize@?$list@PAVioAnnounce@@V?$allocator@PAVioAnnounce@@@std@@@std@@QAEXI@Z PROC ; std::list<ioAnnounce *,std::allocator<ioAnnounce *> >::_Incsize, COMDAT
; _this$ = ecx

; 1519 : 		{	// alter element count, with checking

  00000	55		 push	 ebp
  00001	8b ec		 mov	 ebp, esp

; 1520 : 		if (max_size() - this->_Mysize - 1 < _Count)

  00003	8b 41 04	 mov	 eax, DWORD PTR [ecx+4]
  00006	8b 55 08	 mov	 edx, DWORD PTR __Count$[ebp]
  00009	56		 push	 esi
  0000a	be fe ff ff 3f	 mov	 esi, 1073741822		; 3ffffffeH
  0000f	2b f0		 sub	 esi, eax
  00011	3b f2		 cmp	 esi, edx
  00013	5e		 pop	 esi
  00014	73 0b		 jae	 SHORT $LN1@Incsize

; 1521 : 			_Xlength_error("list<T> too long");

  00016	68 00 00 00 00	 push	 OFFSET ??_C@_0BB@MOGOBHAF@list?$DMT?$DO?5too?5long?$AA@
  0001b	ff 15 00 00 00
	00		 call	 DWORD PTR __imp_?_Xlength_error@std@@YAXPBD@Z
$LN11@Incsize:
$LN1@Incsize:

; 1522 : 		this->_Mysize += _Count;

  00021	03 c2		 add	 eax, edx
  00023	89 41 04	 mov	 DWORD PTR [ecx+4], eax

; 1523 : 		}

  00026	5d		 pop	 ebp
  00027	c2 04 00	 ret	 4
$LN10@Incsize:
?_Incsize@?$list@PAVioAnnounce@@V?$allocator@PAVioAnnounce@@@std@@@std@@QAEXI@Z ENDP ; std::list<ioAnnounce *,std::allocator<ioAnnounce *> >::_Incsize
_TEXT	ENDS
PUBLIC	??0?$_List_const_iterator@V?$_List_val@PAVioAnnounce@@V?$allocator@PAVioAnnounce@@@std@@@std@@@std@@QAE@PAU_Node@?$_List_nod@PAVioAnnounce@@V?$allocator@PAVioAnnounce@@@std@@@1@PBV?$_List_val@PAVioAnnounce@@V?$allocator@PAVioAnnounce@@@std@@@1@@Z ; std::_List_const_iterator<std::_List_val<ioAnnounce *,std::allocator<ioAnnounce *> > >::_List_const_iterator<std::_List_val<ioAnnounce *,std::allocator<ioAnnounce *> > >
; Function compile flags: /Ogsp
;	COMDAT ??0?$_List_const_iterator@V?$_List_val@PAVioAnnounce@@V?$allocator@PAVioAnnounce@@@std@@@std@@@std@@QAE@PAU_Node@?$_List_nod@PAVioAnnounce@@V?$allocator@PAVioAnnounce@@@std@@@1@PBV?$_List_val@PAVioAnnounce@@V?$allocator@PAVioAnnounce@@@std@@@1@@Z
_TEXT	SEGMENT
__Pnode$ = 8						; size = 4
__Plist$ = 12						; size = 4
??0?$_List_const_iterator@V?$_List_val@PAVioAnnounce@@V?$allocator@PAVioAnnounce@@@std@@@std@@@std@@QAE@PAU_Node@?$_List_nod@PAVioAnnounce@@V?$allocator@PAVioAnnounce@@@std@@@1@PBV?$_List_val@PAVioAnnounce@@V?$allocator@PAVioAnnounce@@@std@@@1@@Z PROC ; std::_List_const_iterator<std::_List_val<ioAnnounce *,std::allocator<ioAnnounce *> > >::_List_const_iterator<std::_List_val<ioAnnounce *,std::allocator<ioAnnounce *> > >, COMDAT
; _this$ = ecx

; 184  : 		{	// construct with node pointer _Pnode

  00000	55		 push	 ebp
  00001	8b ec		 mov	 ebp, esp
  00003	8b c1		 mov	 eax, ecx
  00005	8b 4d 08	 mov	 ecx, DWORD PTR __Pnode$[ebp]
  00008	89 08		 mov	 DWORD PTR [eax], ecx

; 185  : 		}

  0000a	5d		 pop	 ebp
  0000b	c2 08 00	 ret	 8
??0?$_List_const_iterator@V?$_List_val@PAVioAnnounce@@V?$allocator@PAVioAnnounce@@@std@@@std@@@std@@QAE@PAU_Node@?$_List_nod@PAVioAnnounce@@V?$allocator@PAVioAnnounce@@@std@@@1@PBV?$_List_val@PAVioAnnounce@@V?$allocator@PAVioAnnounce@@@std@@@1@@Z ENDP ; std::_List_const_iterator<std::_List_val<ioAnnounce *,std::allocator<ioAnnounce *> > >::_List_const_iterator<std::_List_val<ioAnnounce *,std::allocator<ioAnnounce *> > >
_TEXT	ENDS
PUBLIC	??$?0$0BF@@ioINILoader_e@@QAE@AAY0BF@$$CBD_N@Z	; ioINILoader_e::ioINILoader_e<21>
EXTRN	__imp_??0ioINILoader@@QAE@PBD_N@Z:PROC
; Function compile flags: /Ogsp
; File d:\lost saga for developer\youtube\tutorial\source\src\io3dengine\ioiniloader.h
;	COMDAT ??$?0$0BF@@ioINILoader_e@@QAE@AAY0BF@$$CBD_N@Z
_TEXT	SEGMENT
_fn$ = 8						; size = 4
_b$ = 12						; size = 1
??$?0$0BF@@ioINILoader_e@@QAE@AAY0BF@$$CBD_N@Z PROC	; ioINILoader_e::ioINILoader_e<21>, COMDAT
; _this$ = ecx

; 224  : 	{

  00000	55		 push	 ebp
  00001	8b ec		 mov	 ebp, esp
  00003	53		 push	 ebx
  00004	56		 push	 esi
  00005	8b f1		 mov	 esi, ecx
  00007	8b 4d 08	 mov	 ecx, DWORD PTR _fn$[ebp]
  0000a	8a 11		 mov	 dl, BYTE PTR [ecx]
  0000c	8d 86 50 03 00
	00		 lea	 eax, DWORD PTR [esi+848]
  00012	84 d2		 test	 dl, dl
  00014	0f 84 6a 04 00
	00		 je	 $LN99@ioINILoade
  0001a	80 f2 ed	 xor	 dl, -19			; ffffffedH
  0001d	88 10		 mov	 BYTE PTR [eax], dl
  0001f	8a 51 01	 mov	 dl, BYTE PTR [ecx+1]
  00022	84 d2		 test	 dl, dl
  00024	0f 84 54 04 00
	00		 je	 $LN98@ioINILoade
  0002a	80 f2 ec	 xor	 dl, -20			; ffffffecH
  0002d	88 50 01	 mov	 BYTE PTR [eax+1], dl
  00030	8a 51 02	 mov	 dl, BYTE PTR [ecx+2]
  00033	84 d2		 test	 dl, dl
  00035	0f 84 3d 04 00
	00		 je	 $LN97@ioINILoade
  0003b	b3 eb		 mov	 bl, -21			; ffffffebH
  0003d	32 d3		 xor	 dl, bl
  0003f	88 50 02	 mov	 BYTE PTR [eax+2], dl
  00042	8a 51 03	 mov	 dl, BYTE PTR [ecx+3]
  00045	84 d2		 test	 dl, dl
  00047	0f 84 25 04 00
	00		 je	 $LN96@ioINILoade
  0004d	80 f2 ea	 xor	 dl, -22			; ffffffeaH
  00050	88 50 03	 mov	 BYTE PTR [eax+3], dl
  00053	8a 51 04	 mov	 dl, BYTE PTR [ecx+4]
  00056	84 d2		 test	 dl, dl
  00058	0f 84 0e 04 00
	00		 je	 $LN95@ioINILoade
  0005e	80 f2 ed	 xor	 dl, -19			; ffffffedH
  00061	88 50 04	 mov	 BYTE PTR [eax+4], dl
  00064	8a 51 05	 mov	 dl, BYTE PTR [ecx+5]
  00067	84 d2		 test	 dl, dl
  00069	0f 84 f7 03 00
	00		 je	 $LN94@ioINILoade
  0006f	80 f2 ec	 xor	 dl, -20			; ffffffecH
  00072	88 50 05	 mov	 BYTE PTR [eax+5], dl
  00075	8a 51 06	 mov	 dl, BYTE PTR [ecx+6]
  00078	84 d2		 test	 dl, dl
  0007a	0f 84 e1 03 00
	00		 je	 $LN93@ioINILoade
  00080	32 d3		 xor	 dl, bl
  00082	88 50 06	 mov	 BYTE PTR [eax+6], dl
  00085	8a 51 07	 mov	 dl, BYTE PTR [ecx+7]
  00088	84 d2		 test	 dl, dl
  0008a	0f 84 cb 03 00
	00		 je	 $LN92@ioINILoade
  00090	80 f2 ea	 xor	 dl, -22			; ffffffeaH
  00093	88 50 07	 mov	 BYTE PTR [eax+7], dl
  00096	8a 51 08	 mov	 dl, BYTE PTR [ecx+8]
  00099	84 d2		 test	 dl, dl
  0009b	0f 84 b4 03 00
	00		 je	 $LN91@ioINILoade
  000a1	80 f2 ed	 xor	 dl, -19			; ffffffedH
  000a4	88 50 08	 mov	 BYTE PTR [eax+8], dl
  000a7	8a 51 09	 mov	 dl, BYTE PTR [ecx+9]
  000aa	84 d2		 test	 dl, dl
  000ac	0f 84 9d 03 00
	00		 je	 $LN90@ioINILoade
  000b2	80 f2 ec	 xor	 dl, -20			; ffffffecH
  000b5	88 50 09	 mov	 BYTE PTR [eax+9], dl
  000b8	8a 51 0a	 mov	 dl, BYTE PTR [ecx+10]
  000bb	84 d2		 test	 dl, dl
  000bd	0f 84 87 03 00
	00		 je	 $LN89@ioINILoade
  000c3	32 d3		 xor	 dl, bl
  000c5	88 50 0a	 mov	 BYTE PTR [eax+10], dl
  000c8	8a 51 0b	 mov	 dl, BYTE PTR [ecx+11]
  000cb	84 d2		 test	 dl, dl
  000cd	0f 84 71 03 00
	00		 je	 $LN88@ioINILoade
  000d3	80 f2 ea	 xor	 dl, -22			; ffffffeaH
  000d6	88 50 0b	 mov	 BYTE PTR [eax+11], dl
  000d9	8a 51 0c	 mov	 dl, BYTE PTR [ecx+12]
  000dc	84 d2		 test	 dl, dl
  000de	0f 84 5a 03 00
	00		 je	 $LN87@ioINILoade
  000e4	80 f2 ed	 xor	 dl, -19			; ffffffedH
  000e7	88 50 0c	 mov	 BYTE PTR [eax+12], dl
  000ea	8a 51 0d	 mov	 dl, BYTE PTR [ecx+13]
  000ed	84 d2		 test	 dl, dl
  000ef	0f 84 43 03 00
	00		 je	 $LN86@ioINILoade
  000f5	80 f2 ec	 xor	 dl, -20			; ffffffecH
  000f8	88 50 0d	 mov	 BYTE PTR [eax+13], dl
  000fb	8a 51 0e	 mov	 dl, BYTE PTR [ecx+14]
  000fe	84 d2		 test	 dl, dl
  00100	0f 84 2d 03 00
	00		 je	 $LN85@ioINILoade
  00106	32 d3		 xor	 dl, bl
  00108	88 50 0e	 mov	 BYTE PTR [eax+14], dl
  0010b	8a 51 0f	 mov	 dl, BYTE PTR [ecx+15]
  0010e	84 d2		 test	 dl, dl
  00110	0f 84 17 03 00
	00		 je	 $LN84@ioINILoade
  00116	80 f2 ea	 xor	 dl, -22			; ffffffeaH
  00119	88 50 0f	 mov	 BYTE PTR [eax+15], dl
  0011c	8a 51 10	 mov	 dl, BYTE PTR [ecx+16]
  0011f	84 d2		 test	 dl, dl
  00121	0f 84 00 03 00
	00		 je	 $LN83@ioINILoade
  00127	80 f2 ed	 xor	 dl, -19			; ffffffedH
  0012a	88 50 10	 mov	 BYTE PTR [eax+16], dl
  0012d	8a 51 11	 mov	 dl, BYTE PTR [ecx+17]
  00130	84 d2		 test	 dl, dl
  00132	0f 84 e9 02 00
	00		 je	 $LN82@ioINILoade
  00138	80 f2 ec	 xor	 dl, -20			; ffffffecH
  0013b	88 50 11	 mov	 BYTE PTR [eax+17], dl
  0013e	8a 51 12	 mov	 dl, BYTE PTR [ecx+18]
  00141	84 d2		 test	 dl, dl
  00143	0f 84 d3 02 00
	00		 je	 $LN81@ioINILoade
  00149	32 d3		 xor	 dl, bl
  0014b	88 50 12	 mov	 BYTE PTR [eax+18], dl
  0014e	8a 51 13	 mov	 dl, BYTE PTR [ecx+19]
  00151	84 d2		 test	 dl, dl
  00153	0f 84 bd 02 00
	00		 je	 $LN80@ioINILoade
  00159	80 f2 ea	 xor	 dl, -22			; ffffffeaH
  0015c	88 50 13	 mov	 BYTE PTR [eax+19], dl
  0015f	8a 51 14	 mov	 dl, BYTE PTR [ecx+20]
  00162	84 d2		 test	 dl, dl
  00164	0f 84 a6 02 00
	00		 je	 $LN79@ioINILoade
  0016a	80 f2 ed	 xor	 dl, -19			; ffffffedH
  0016d	88 50 14	 mov	 BYTE PTR [eax+20], dl
  00170	8a 51 15	 mov	 dl, BYTE PTR [ecx+21]
  00173	84 d2		 test	 dl, dl
  00175	0f 84 8f 02 00
	00		 je	 $LN78@ioINILoade
  0017b	80 f2 ec	 xor	 dl, -20			; ffffffecH
  0017e	88 50 15	 mov	 BYTE PTR [eax+21], dl
  00181	8a 51 16	 mov	 dl, BYTE PTR [ecx+22]
  00184	84 d2		 test	 dl, dl
  00186	0f 84 79 02 00
	00		 je	 $LN77@ioINILoade
  0018c	32 d3		 xor	 dl, bl
  0018e	88 50 16	 mov	 BYTE PTR [eax+22], dl
  00191	8a 51 17	 mov	 dl, BYTE PTR [ecx+23]
  00194	84 d2		 test	 dl, dl
  00196	0f 84 60 02 00
	00		 je	 $LN76@ioINILoade
  0019c	80 f2 ea	 xor	 dl, -22			; ffffffeaH
  0019f	88 50 17	 mov	 BYTE PTR [eax+23], dl
  001a2	8a 51 18	 mov	 dl, BYTE PTR [ecx+24]
  001a5	84 d2		 test	 dl, dl
  001a7	0f 84 46 02 00
	00		 je	 $LN75@ioINILoade
  001ad	80 f2 ed	 xor	 dl, -19			; ffffffedH
  001b0	88 50 18	 mov	 BYTE PTR [eax+24], dl
  001b3	8a 51 19	 mov	 dl, BYTE PTR [ecx+25]
  001b6	84 d2		 test	 dl, dl
  001b8	0f 84 2c 02 00
	00		 je	 $LN74@ioINILoade
  001be	80 f2 ec	 xor	 dl, -20			; ffffffecH
  001c1	88 50 19	 mov	 BYTE PTR [eax+25], dl
  001c4	8a 51 1a	 mov	 dl, BYTE PTR [ecx+26]
  001c7	84 d2		 test	 dl, dl
  001c9	0f 84 13 02 00
	00		 je	 $LN73@ioINILoade
  001cf	32 d3		 xor	 dl, bl
  001d1	88 50 1a	 mov	 BYTE PTR [eax+26], dl
  001d4	8a 51 1b	 mov	 dl, BYTE PTR [ecx+27]
  001d7	84 d2		 test	 dl, dl
  001d9	0f 84 fa 01 00
	00		 je	 $LN72@ioINILoade
  001df	80 f2 ea	 xor	 dl, -22			; ffffffeaH
  001e2	88 50 1b	 mov	 BYTE PTR [eax+27], dl
  001e5	8a 51 1c	 mov	 dl, BYTE PTR [ecx+28]
  001e8	84 d2		 test	 dl, dl
  001ea	0f 84 e0 01 00
	00		 je	 $LN71@ioINILoade
  001f0	80 f2 ed	 xor	 dl, -19			; ffffffedH
  001f3	88 50 1c	 mov	 BYTE PTR [eax+28], dl
  001f6	8a 51 1d	 mov	 dl, BYTE PTR [ecx+29]
  001f9	84 d2		 test	 dl, dl
  001fb	0f 84 c6 01 00
	00		 je	 $LN70@ioINILoade
  00201	80 f2 ec	 xor	 dl, -20			; ffffffecH
  00204	88 50 1d	 mov	 BYTE PTR [eax+29], dl
  00207	8a 51 1e	 mov	 dl, BYTE PTR [ecx+30]
  0020a	84 d2		 test	 dl, dl
  0020c	0f 84 ad 01 00
	00		 je	 $LN69@ioINILoade
  00212	32 d3		 xor	 dl, bl
  00214	88 50 1e	 mov	 BYTE PTR [eax+30], dl
  00217	8a 51 1f	 mov	 dl, BYTE PTR [ecx+31]
  0021a	84 d2		 test	 dl, dl
  0021c	0f 84 94 01 00
	00		 je	 $LN68@ioINILoade
  00222	80 f2 ea	 xor	 dl, -22			; ffffffeaH
  00225	88 50 1f	 mov	 BYTE PTR [eax+31], dl
  00228	8a 51 20	 mov	 dl, BYTE PTR [ecx+32]
  0022b	84 d2		 test	 dl, dl
  0022d	0f 84 7a 01 00
	00		 je	 $LN67@ioINILoade
  00233	80 f2 ed	 xor	 dl, -19			; ffffffedH
  00236	88 50 20	 mov	 BYTE PTR [eax+32], dl
  00239	8a 51 21	 mov	 dl, BYTE PTR [ecx+33]
  0023c	84 d2		 test	 dl, dl
  0023e	0f 84 60 01 00
	00		 je	 $LN66@ioINILoade
  00244	80 f2 ec	 xor	 dl, -20			; ffffffecH
  00247	88 50 21	 mov	 BYTE PTR [eax+33], dl
  0024a	8a 51 22	 mov	 dl, BYTE PTR [ecx+34]
  0024d	84 d2		 test	 dl, dl
  0024f	0f 84 47 01 00
	00		 je	 $LN65@ioINILoade
  00255	32 d3		 xor	 dl, bl
  00257	88 50 22	 mov	 BYTE PTR [eax+34], dl
  0025a	8a 51 23	 mov	 dl, BYTE PTR [ecx+35]
  0025d	84 d2		 test	 dl, dl
  0025f	0f 84 2e 01 00
	00		 je	 $LN64@ioINILoade
  00265	80 f2 ea	 xor	 dl, -22			; ffffffeaH
  00268	88 50 23	 mov	 BYTE PTR [eax+35], dl
  0026b	8a 51 24	 mov	 dl, BYTE PTR [ecx+36]
  0026e	84 d2		 test	 dl, dl
  00270	0f 84 14 01 00
	00		 je	 $LN63@ioINILoade
  00276	80 f2 ed	 xor	 dl, -19			; ffffffedH
  00279	88 50 24	 mov	 BYTE PTR [eax+36], dl
  0027c	8a 51 25	 mov	 dl, BYTE PTR [ecx+37]
  0027f	84 d2		 test	 dl, dl
  00281	0f 84 fa 00 00
	00		 je	 $LN62@ioINILoade
  00287	80 f2 ec	 xor	 dl, -20			; ffffffecH
  0028a	88 50 25	 mov	 BYTE PTR [eax+37], dl
  0028d	8a 51 26	 mov	 dl, BYTE PTR [ecx+38]
  00290	84 d2		 test	 dl, dl
  00292	0f 84 e1 00 00
	00		 je	 $LN61@ioINILoade
  00298	32 d3		 xor	 dl, bl
  0029a	88 50 26	 mov	 BYTE PTR [eax+38], dl
  0029d	8a 51 27	 mov	 dl, BYTE PTR [ecx+39]
  002a0	84 d2		 test	 dl, dl
  002a2	0f 84 c8 00 00
	00		 je	 $LN60@ioINILoade
  002a8	80 f2 ea	 xor	 dl, -22			; ffffffeaH
  002ab	88 50 27	 mov	 BYTE PTR [eax+39], dl
  002ae	8a 51 28	 mov	 dl, BYTE PTR [ecx+40]
  002b1	84 d2		 test	 dl, dl
  002b3	0f 84 ae 00 00
	00		 je	 $LN59@ioINILoade
  002b9	80 f2 ed	 xor	 dl, -19			; ffffffedH
  002bc	88 50 28	 mov	 BYTE PTR [eax+40], dl
  002bf	8a 51 29	 mov	 dl, BYTE PTR [ecx+41]
  002c2	84 d2		 test	 dl, dl
  002c4	0f 84 94 00 00
	00		 je	 $LN58@ioINILoade
  002ca	80 f2 ec	 xor	 dl, -20			; ffffffecH
  002cd	88 50 29	 mov	 BYTE PTR [eax+41], dl
  002d0	8a 51 2a	 mov	 dl, BYTE PTR [ecx+42]
  002d3	84 d2		 test	 dl, dl
  002d5	74 7f		 je	 SHORT $LN57@ioINILoade
  002d7	32 d3		 xor	 dl, bl
  002d9	88 50 2a	 mov	 BYTE PTR [eax+42], dl
  002dc	8a 51 2b	 mov	 dl, BYTE PTR [ecx+43]
  002df	84 d2		 test	 dl, dl
  002e1	74 6a		 je	 SHORT $LN56@ioINILoade
  002e3	80 f2 ea	 xor	 dl, -22			; ffffffeaH
  002e6	88 50 2b	 mov	 BYTE PTR [eax+43], dl
  002e9	8a 51 2c	 mov	 dl, BYTE PTR [ecx+44]
  002ec	84 d2		 test	 dl, dl
  002ee	74 54		 je	 SHORT $LN55@ioINILoade
  002f0	80 f2 ed	 xor	 dl, -19			; ffffffedH
  002f3	88 50 2c	 mov	 BYTE PTR [eax+44], dl
  002f6	8a 51 2d	 mov	 dl, BYTE PTR [ecx+45]
  002f9	84 d2		 test	 dl, dl
  002fb	74 3e		 je	 SHORT $LN54@ioINILoade
  002fd	80 f2 ec	 xor	 dl, -20			; ffffffecH
  00300	88 50 2d	 mov	 BYTE PTR [eax+45], dl
  00303	8a 51 2e	 mov	 dl, BYTE PTR [ecx+46]
  00306	84 d2		 test	 dl, dl
  00308	74 29		 je	 SHORT $LN53@ioINILoade
  0030a	32 d3		 xor	 dl, bl
  0030c	88 50 2e	 mov	 BYTE PTR [eax+46], dl
  0030f	8a 51 2f	 mov	 dl, BYTE PTR [ecx+47]
  00312	84 d2		 test	 dl, dl
  00314	74 14		 je	 SHORT $LN52@ioINILoade
  00316	80 f2 ea	 xor	 dl, -22			; ffffffeaH
  00319	88 50 2f	 mov	 BYTE PTR [eax+47], dl
  0031c	8a 49 30	 mov	 cl, BYTE PTR [ecx+48]
  0031f	80 f1 ed	 xor	 cl, -19			; ffffffedH
  00322	88 48 30	 mov	 BYTE PTR [eax+48], cl
  00325	e9 5d 01 00 00	 jmp	 $LN4@ioINILoade
$LN52@ioINILoade:
  0032a	c6 40 2f ea	 mov	 BYTE PTR [eax+47], -22	; ffffffeaH
  0032e	e9 54 01 00 00	 jmp	 $LN4@ioINILoade
$LN53@ioINILoade:
  00333	88 58 2e	 mov	 BYTE PTR [eax+46], bl
  00336	e9 4c 01 00 00	 jmp	 $LN4@ioINILoade
$LN54@ioINILoade:
  0033b	c6 40 2d ec	 mov	 BYTE PTR [eax+45], -20	; ffffffecH
  0033f	e9 43 01 00 00	 jmp	 $LN4@ioINILoade
$LN55@ioINILoade:
  00344	c6 40 2c ed	 mov	 BYTE PTR [eax+44], -19	; ffffffedH
  00348	e9 3a 01 00 00	 jmp	 $LN4@ioINILoade
$LN56@ioINILoade:
  0034d	c6 40 2b ea	 mov	 BYTE PTR [eax+43], -22	; ffffffeaH
  00351	e9 31 01 00 00	 jmp	 $LN4@ioINILoade
$LN57@ioINILoade:
  00356	88 58 2a	 mov	 BYTE PTR [eax+42], bl
  00359	e9 29 01 00 00	 jmp	 $LN4@ioINILoade
$LN58@ioINILoade:
  0035e	c6 40 29 ec	 mov	 BYTE PTR [eax+41], -20	; ffffffecH
  00362	e9 20 01 00 00	 jmp	 $LN4@ioINILoade
$LN59@ioINILoade:
  00367	c6 40 28 ed	 mov	 BYTE PTR [eax+40], -19	; ffffffedH
  0036b	e9 17 01 00 00	 jmp	 $LN4@ioINILoade
$LN60@ioINILoade:
  00370	c6 40 27 ea	 mov	 BYTE PTR [eax+39], -22	; ffffffeaH
  00374	e9 0e 01 00 00	 jmp	 $LN4@ioINILoade
$LN61@ioINILoade:
  00379	88 58 26	 mov	 BYTE PTR [eax+38], bl
  0037c	e9 06 01 00 00	 jmp	 $LN4@ioINILoade
$LN62@ioINILoade:
  00381	c6 40 25 ec	 mov	 BYTE PTR [eax+37], -20	; ffffffecH
  00385	e9 fd 00 00 00	 jmp	 $LN4@ioINILoade
$LN63@ioINILoade:
  0038a	c6 40 24 ed	 mov	 BYTE PTR [eax+36], -19	; ffffffedH
  0038e	e9 f4 00 00 00	 jmp	 $LN4@ioINILoade
$LN64@ioINILoade:
  00393	c6 40 23 ea	 mov	 BYTE PTR [eax+35], -22	; ffffffeaH
  00397	e9 eb 00 00 00	 jmp	 $LN4@ioINILoade
$LN65@ioINILoade:
  0039c	88 58 22	 mov	 BYTE PTR [eax+34], bl
  0039f	e9 e3 00 00 00	 jmp	 $LN4@ioINILoade
$LN66@ioINILoade:
  003a4	c6 40 21 ec	 mov	 BYTE PTR [eax+33], -20	; ffffffecH
  003a8	e9 da 00 00 00	 jmp	 $LN4@ioINILoade
$LN67@ioINILoade:
  003ad	c6 40 20 ed	 mov	 BYTE PTR [eax+32], -19	; ffffffedH
  003b1	e9 d1 00 00 00	 jmp	 $LN4@ioINILoade
$LN68@ioINILoade:
  003b6	c6 40 1f ea	 mov	 BYTE PTR [eax+31], -22	; ffffffeaH
  003ba	e9 c8 00 00 00	 jmp	 $LN4@ioINILoade
$LN69@ioINILoade:
  003bf	88 58 1e	 mov	 BYTE PTR [eax+30], bl
  003c2	e9 c0 00 00 00	 jmp	 $LN4@ioINILoade
$LN70@ioINILoade:
  003c7	c6 40 1d ec	 mov	 BYTE PTR [eax+29], -20	; ffffffecH
  003cb	e9 b7 00 00 00	 jmp	 $LN4@ioINILoade
$LN71@ioINILoade:
  003d0	c6 40 1c ed	 mov	 BYTE PTR [eax+28], -19	; ffffffedH
  003d4	e9 ae 00 00 00	 jmp	 $LN4@ioINILoade
$LN72@ioINILoade:
  003d9	c6 40 1b ea	 mov	 BYTE PTR [eax+27], -22	; ffffffeaH
  003dd	e9 a5 00 00 00	 jmp	 $LN4@ioINILoade
$LN73@ioINILoade:
  003e2	88 58 1a	 mov	 BYTE PTR [eax+26], bl
  003e5	e9 9d 00 00 00	 jmp	 $LN4@ioINILoade
$LN74@ioINILoade:
  003ea	c6 40 19 ec	 mov	 BYTE PTR [eax+25], -20	; ffffffecH
  003ee	e9 94 00 00 00	 jmp	 $LN4@ioINILoade
$LN75@ioINILoade:
  003f3	c6 40 18 ed	 mov	 BYTE PTR [eax+24], -19	; ffffffedH
  003f7	e9 8b 00 00 00	 jmp	 $LN4@ioINILoade
$LN76@ioINILoade:
  003fc	c6 40 17 ea	 mov	 BYTE PTR [eax+23], -22	; ffffffeaH
  00400	e9 82 00 00 00	 jmp	 $LN4@ioINILoade
$LN77@ioINILoade:
  00405	88 58 16	 mov	 BYTE PTR [eax+22], bl
  00408	eb 7d		 jmp	 SHORT $LN4@ioINILoade
$LN78@ioINILoade:
  0040a	c6 40 15 ec	 mov	 BYTE PTR [eax+21], -20	; ffffffecH
  0040e	eb 77		 jmp	 SHORT $LN4@ioINILoade
$LN79@ioINILoade:
  00410	c6 40 14 ed	 mov	 BYTE PTR [eax+20], -19	; ffffffedH
  00414	eb 71		 jmp	 SHORT $LN4@ioINILoade
$LN80@ioINILoade:
  00416	c6 40 13 ea	 mov	 BYTE PTR [eax+19], -22	; ffffffeaH
  0041a	eb 6b		 jmp	 SHORT $LN4@ioINILoade
$LN81@ioINILoade:
  0041c	88 58 12	 mov	 BYTE PTR [eax+18], bl
  0041f	eb 66		 jmp	 SHORT $LN4@ioINILoade
$LN82@ioINILoade:
  00421	c6 40 11 ec	 mov	 BYTE PTR [eax+17], -20	; ffffffecH
  00425	eb 60		 jmp	 SHORT $LN4@ioINILoade
$LN83@ioINILoade:
  00427	c6 40 10 ed	 mov	 BYTE PTR [eax+16], -19	; ffffffedH
  0042b	eb 5a		 jmp	 SHORT $LN4@ioINILoade
$LN84@ioINILoade:
  0042d	c6 40 0f ea	 mov	 BYTE PTR [eax+15], -22	; ffffffeaH
  00431	eb 54		 jmp	 SHORT $LN4@ioINILoade
$LN85@ioINILoade:
  00433	88 58 0e	 mov	 BYTE PTR [eax+14], bl
  00436	eb 4f		 jmp	 SHORT $LN4@ioINILoade
$LN86@ioINILoade:
  00438	c6 40 0d ec	 mov	 BYTE PTR [eax+13], -20	; ffffffecH
  0043c	eb 49		 jmp	 SHORT $LN4@ioINILoade
$LN87@ioINILoade:
  0043e	c6 40 0c ed	 mov	 BYTE PTR [eax+12], -19	; ffffffedH
  00442	eb 43		 jmp	 SHORT $LN4@ioINILoade
$LN88@ioINILoade:
  00444	c6 40 0b ea	 mov	 BYTE PTR [eax+11], -22	; ffffffeaH
  00448	eb 3d		 jmp	 SHORT $LN4@ioINILoade
$LN89@ioINILoade:
  0044a	88 58 0a	 mov	 BYTE PTR [eax+10], bl
  0044d	eb 38		 jmp	 SHORT $LN4@ioINILoade
$LN90@ioINILoade:
  0044f	c6 40 09 ec	 mov	 BYTE PTR [eax+9], -20	; ffffffecH
  00453	eb 32		 jmp	 SHORT $LN4@ioINILoade
$LN91@ioINILoade:
  00455	c6 40 08 ed	 mov	 BYTE PTR [eax+8], -19	; ffffffedH
  00459	eb 2c		 jmp	 SHORT $LN4@ioINILoade
$LN92@ioINILoade:
  0045b	c6 40 07 ea	 mov	 BYTE PTR [eax+7], -22	; ffffffeaH
  0045f	eb 26		 jmp	 SHORT $LN4@ioINILoade
$LN93@ioINILoade:
  00461	88 58 06	 mov	 BYTE PTR [eax+6], bl
  00464	eb 21		 jmp	 SHORT $LN4@ioINILoade
$LN94@ioINILoade:
  00466	c6 40 05 ec	 mov	 BYTE PTR [eax+5], -20	; ffffffecH
  0046a	eb 1b		 jmp	 SHORT $LN4@ioINILoade
$LN95@ioINILoade:
  0046c	c6 40 04 ed	 mov	 BYTE PTR [eax+4], -19	; ffffffedH
  00470	eb 15		 jmp	 SHORT $LN4@ioINILoade
$LN96@ioINILoade:
  00472	c6 40 03 ea	 mov	 BYTE PTR [eax+3], -22	; ffffffeaH
  00476	eb 0f		 jmp	 SHORT $LN4@ioINILoade
$LN97@ioINILoade:
  00478	c6 40 02 eb	 mov	 BYTE PTR [eax+2], -21	; ffffffebH
  0047c	eb 09		 jmp	 SHORT $LN4@ioINILoade
$LN98@ioINILoade:
  0047e	c6 40 01 ec	 mov	 BYTE PTR [eax+1], -20	; ffffffecH
  00482	eb 03		 jmp	 SHORT $LN4@ioINILoade
$LN99@ioINILoade:
  00484	c6 00 ed	 mov	 BYTE PTR [eax], -19	; ffffffedH
$LN4@ioINILoade:
  00487	6a 05		 push	 5
  00489	8b c8		 mov	 ecx, eax
  0048b	c6 40 14 00	 mov	 BYTE PTR [eax+20], 0
  0048f	5a		 pop	 edx
$LL107@ioINILoade:
  00490	81 31 ed ec eb
	ea		 xor	 DWORD PTR [ecx], -353637139 ; eaebecedH
  00496	83 c1 04	 add	 ecx, 4
  00499	4a		 dec	 edx
  0049a	75 f4		 jne	 SHORT $LL107@ioINILoade
  0049c	ff 75 0c	 push	 DWORD PTR _b$[ebp]
  0049f	8b ce		 mov	 ecx, esi
  004a1	50		 push	 eax
  004a2	ff 15 00 00 00
	00		 call	 DWORD PTR __imp_??0ioINILoader@@QAE@PBD_N@Z

; 225  : 	}

  004a8	8b c6		 mov	 eax, esi
  004aa	5e		 pop	 esi
  004ab	5b		 pop	 ebx
  004ac	5d		 pop	 ebp
  004ad	c2 08 00	 ret	 8
??$?0$0BF@@ioINILoader_e@@QAE@AAY0BF@$$CBD_N@Z ENDP	; ioINILoader_e::ioINILoader_e<21>
_TEXT	ENDS
PUBLIC	??$_Dest_val@V?$allocator@U_Node@?$_List_nod@PAVioAnnounce@@V?$allocator@PAVioAnnounce@@@std@@@std@@@std@@U_Node@?$_List_nod@PAVioAnnounce@@V?$allocator@PAVioAnnounce@@@std@@@2@@std@@YAXAAV?$allocator@U_Node@?$_List_nod@PAVioAnnounce@@V?$allocator@PAVioAnnounce@@@std@@@std@@@0@PAU_Node@?$_List_nod@PAVioAnnounce@@V?$allocator@PAVioAnnounce@@@std@@@0@@Z ; std::_Dest_val<std::allocator<std::_List_nod<ioAnnounce *,std::allocator<ioAnnounce *> >::_Node>,std::_List_nod<ioAnnounce *,std::allocator<ioAnnounce *> >::_Node>
; Function compile flags: /Ogsp
; File c:\program files (x86)\microsoft visual studio 10.0\vc\include\xmemory
;	COMDAT ??$_Dest_val@V?$allocator@U_Node@?$_List_nod@PAVioAnnounce@@V?$allocator@PAVioAnnounce@@@std@@@std@@@std@@U_Node@?$_List_nod@PAVioAnnounce@@V?$allocator@PAVioAnnounce@@@std@@@2@@std@@YAXAAV?$allocator@U_Node@?$_List_nod@PAVioAnnounce@@V?$allocator@PAVioAnnounce@@@std@@@std@@@0@PAU_Node@?$_List_nod@PAVioAnnounce@@V?$allocator@PAVioAnnounce@@@std@@@0@@Z
_TEXT	SEGMENT
__Alval$ = 8						; size = 4
__Pdest$ = 12						; size = 4
??$_Dest_val@V?$allocator@U_Node@?$_List_nod@PAVioAnnounce@@V?$allocator@PAVioAnnounce@@@std@@@std@@@std@@U_Node@?$_List_nod@PAVioAnnounce@@V?$allocator@PAVioAnnounce@@@std@@@2@@std@@YAXAAV?$allocator@U_Node@?$_List_nod@PAVioAnnounce@@V?$allocator@PAVioAnnounce@@@std@@@std@@@0@PAU_Node@?$_List_nod@PAVioAnnounce@@V?$allocator@PAVioAnnounce@@@std@@@0@@Z PROC ; std::_Dest_val<std::allocator<std::_List_nod<ioAnnounce *,std::allocator<ioAnnounce *> >::_Node>,std::_List_nod<ioAnnounce *,std::allocator<ioAnnounce *> >::_Node>, COMDAT

; 287  : 	_Alval.destroy(_Pdest);
; 288  : 	}

  00000	c3		 ret	 0
??$_Dest_val@V?$allocator@U_Node@?$_List_nod@PAVioAnnounce@@V?$allocator@PAVioAnnounce@@@std@@@std@@@std@@U_Node@?$_List_nod@PAVioAnnounce@@V?$allocator@PAVioAnnounce@@@std@@@2@@std@@YAXAAV?$allocator@U_Node@?$_List_nod@PAVioAnnounce@@V?$allocator@PAVioAnnounce@@@std@@@std@@@0@PAU_Node@?$_List_nod@PAVioAnnounce@@V?$allocator@PAVioAnnounce@@@std@@@0@@Z ENDP ; std::_Dest_val<std::allocator<std::_List_nod<ioAnnounce *,std::allocator<ioAnnounce *> >::_Node>,std::_List_nod<ioAnnounce *,std::allocator<ioAnnounce *> >::_Node>
_TEXT	ENDS
PUBLIC	??$_Cons_val@V?$allocator@PAVioAnnounce@@@std@@PAVioAnnounce@@ABQAV3@@std@@YAXAAV?$allocator@PAVioAnnounce@@@0@PAPAVioAnnounce@@ABQAV2@@Z ; std::_Cons_val<std::allocator<ioAnnounce *>,ioAnnounce *,ioAnnounce * const &>
; Function compile flags: /Ogsp
;	COMDAT ??$_Cons_val@V?$allocator@PAVioAnnounce@@@std@@PAVioAnnounce@@ABQAV3@@std@@YAXAAV?$allocator@PAVioAnnounce@@@0@PAPAVioAnnounce@@ABQAV2@@Z
_TEXT	SEGMENT
__Alval$ = 8						; size = 4
__Pdest$ = 12						; size = 4
__Src$ = 16						; size = 4
??$_Cons_val@V?$allocator@PAVioAnnounce@@@std@@PAVioAnnounce@@ABQAV3@@std@@YAXAAV?$allocator@PAVioAnnounce@@@0@PAPAVioAnnounce@@ABQAV2@@Z PROC ; std::_Cons_val<std::allocator<ioAnnounce *>,ioAnnounce *,ioAnnounce * const &>, COMDAT

; 279  : 	{	// construct using allocator

  00000	55		 push	 ebp
  00001	8b ec		 mov	 ebp, esp

; 280  : 	_Alval.construct(_Pdest, _STD forward<_Ty2>(_Src));

  00003	8b 45 0c	 mov	 eax, DWORD PTR __Pdest$[ebp]
  00006	85 c0		 test	 eax, eax
  00008	74 07		 je	 SHORT $LN9@Cons_val@2
  0000a	8b 4d 10	 mov	 ecx, DWORD PTR __Src$[ebp]
  0000d	8b 09		 mov	 ecx, DWORD PTR [ecx]
  0000f	89 08		 mov	 DWORD PTR [eax], ecx
$LN9@Cons_val@2:

; 281  : 	}

  00011	5d		 pop	 ebp
  00012	c3		 ret	 0
??$_Cons_val@V?$allocator@PAVioAnnounce@@@std@@PAVioAnnounce@@ABQAV3@@std@@YAXAAV?$allocator@PAVioAnnounce@@@0@PAPAVioAnnounce@@ABQAV2@@Z ENDP ; std::_Cons_val<std::allocator<ioAnnounce *>,ioAnnounce *,ioAnnounce * const &>
_TEXT	ENDS
PUBLIC	??0?$list@PAVioAnnounce@@V?$allocator@PAVioAnnounce@@@std@@@std@@QAE@ABV?$allocator@PAVioAnnounce@@@1@@Z ; std::list<ioAnnounce *,std::allocator<ioAnnounce *> >::list<ioAnnounce *,std::allocator<ioAnnounce *> >
; Function compile flags: /Ogsp
; File c:\program files (x86)\microsoft visual studio 10.0\vc\include\list
;	COMDAT ??0?$list@PAVioAnnounce@@V?$allocator@PAVioAnnounce@@@std@@@std@@QAE@ABV?$allocator@PAVioAnnounce@@@1@@Z
_TEXT	SEGMENT
$T509028 = -4						; size = 4
$T509023 = -4						; size = 4
__Al$ = 8						; size = 4
??0?$list@PAVioAnnounce@@V?$allocator@PAVioAnnounce@@@std@@@std@@QAE@ABV?$allocator@PAVioAnnounce@@@1@@Z PROC ; std::list<ioAnnounce *,std::allocator<ioAnnounce *> >::list<ioAnnounce *,std::allocator<ioAnnounce *> >, COMDAT
; _this$ = ecx

; 612  : 		{	// construct empty list, allocator

  00000	55		 push	 ebp
  00001	8b ec		 mov	 ebp, esp
  00003	51		 push	 ecx
  00004	56		 push	 esi
  00005	51		 push	 ecx
  00006	89 65 fc	 mov	 DWORD PTR $T509023[ebp], esp
  00009	8b f1		 mov	 esi, ecx
  0000b	89 65 fc	 mov	 DWORD PTR $T509028[ebp], esp
  0000e	e8 00 00 00 00	 call	 ??0?$_List_val@PAVioAnnounce@@V?$allocator@PAVioAnnounce@@@std@@@std@@QAE@V?$allocator@PAVioAnnounce@@@1@@Z ; std::_List_val<ioAnnounce *,std::allocator<ioAnnounce *> >::_List_val<ioAnnounce *,std::allocator<ioAnnounce *> >

; 613  : 		}

  00013	8b c6		 mov	 eax, esi
  00015	5e		 pop	 esi
  00016	c9		 leave
  00017	c2 04 00	 ret	 4
??0?$list@PAVioAnnounce@@V?$allocator@PAVioAnnounce@@@std@@@std@@QAE@ABV?$allocator@PAVioAnnounce@@@1@@Z ENDP ; std::list<ioAnnounce *,std::allocator<ioAnnounce *> >::list<ioAnnounce *,std::allocator<ioAnnounce *> >
_TEXT	ENDS
PUBLIC	?_Splice_same@?$list@PAVioAnnounce@@V?$allocator@PAVioAnnounce@@@std@@@std@@QAEXV?$_List_const_iterator@V?$_List_val@PAVioAnnounce@@V?$allocator@PAVioAnnounce@@@std@@@std@@@2@AAV12@00I@Z ; std::list<ioAnnounce *,std::allocator<ioAnnounce *> >::_Splice_same
; Function compile flags: /Ogsp
;	COMDAT ?_Splice_same@?$list@PAVioAnnounce@@V?$allocator@PAVioAnnounce@@@std@@@std@@QAEXV?$_List_const_iterator@V?$_List_val@PAVioAnnounce@@V?$allocator@PAVioAnnounce@@@std@@@std@@@2@AAV12@00I@Z
_TEXT	SEGMENT
__Where$ = 8						; size = 4
__Right$ = 12						; size = 4
__First$ = 16						; size = 4
__Last$ = 20						; size = 4
__Count$ = 24						; size = 4
?_Splice_same@?$list@PAVioAnnounce@@V?$allocator@PAVioAnnounce@@@std@@@std@@QAEXV?$_List_const_iterator@V?$_List_val@PAVioAnnounce@@V?$allocator@PAVioAnnounce@@@std@@@std@@@2@AAV12@00I@Z PROC ; std::list<ioAnnounce *,std::allocator<ioAnnounce *> >::_Splice_same, COMDAT
; _this$ = ecx

; 1467 : 		{	// splice _Right [_First, _Last) before _Where

  00000	55		 push	 ebp
  00001	8b ec		 mov	 ebp, esp
  00003	56		 push	 esi

; 1468 : 		if (this != &_Right)

  00004	8b 75 0c	 mov	 esi, DWORD PTR __Right$[ebp]
  00007	3b ce		 cmp	 ecx, esi
  00009	74 0e		 je	 SHORT $LN1@Splice_sam

; 1469 : 			{	// splicing from another list, adjust counts
; 1470 : 			_Incsize(_Count);

  0000b	57		 push	 edi
  0000c	8b 7d 18	 mov	 edi, DWORD PTR __Count$[ebp]
  0000f	57		 push	 edi
  00010	e8 00 00 00 00	 call	 ?_Incsize@?$list@PAVioAnnounce@@V?$allocator@PAVioAnnounce@@@std@@@std@@QAEXI@Z ; std::list<ioAnnounce *,std::allocator<ioAnnounce *> >::_Incsize

; 1471 : 			_Right._Mysize -= _Count;

  00015	29 7e 04	 sub	 DWORD PTR [esi+4], edi
  00018	5f		 pop	 edi
$LN1@Splice_sam:

; 1472 : 			}
; 1473 : 		this->_Nextnode(this->_Prevnode(_First._Mynode())) =
; 1474 : 			_Last._Mynode();

  00019	8b 45 10	 mov	 eax, DWORD PTR __First$[ebp]
  0001c	8b 40 04	 mov	 eax, DWORD PTR [eax+4]
  0001f	8b 4d 14	 mov	 ecx, DWORD PTR __Last$[ebp]
  00022	89 08		 mov	 DWORD PTR [eax], ecx

; 1475 : 		this->_Nextnode(this->_Prevnode(_Last._Mynode())) =
; 1476 : 			_Where._Mynode();

  00024	8b 45 14	 mov	 eax, DWORD PTR __Last$[ebp]
  00027	8b 40 04	 mov	 eax, DWORD PTR [eax+4]
  0002a	8b 4d 08	 mov	 ecx, DWORD PTR __Where$[ebp]
  0002d	89 08		 mov	 DWORD PTR [eax], ecx

; 1477 : 		this->_Nextnode(this->_Prevnode(_Where._Mynode())) =
; 1478 : 			_First._Mynode();

  0002f	8b 45 08	 mov	 eax, DWORD PTR __Where$[ebp]
  00032	8b 40 04	 mov	 eax, DWORD PTR [eax+4]
  00035	8b 4d 10	 mov	 ecx, DWORD PTR __First$[ebp]
  00038	89 08		 mov	 DWORD PTR [eax], ecx

; 1479 : 
; 1480 : 		_Nodeptr _Pnode = this->_Prevnode(_Where._Mynode());

  0003a	8b 45 08	 mov	 eax, DWORD PTR __Where$[ebp]

; 1481 : 		this->_Prevnode(_Where._Mynode()) =
; 1482 : 			this->_Prevnode(_Last._Mynode());

  0003d	8b 55 14	 mov	 edx, DWORD PTR __Last$[ebp]
  00040	8b 48 04	 mov	 ecx, DWORD PTR [eax+4]
  00043	8b 52 04	 mov	 edx, DWORD PTR [edx+4]
  00046	89 50 04	 mov	 DWORD PTR [eax+4], edx

; 1483 : 		this->_Prevnode(_Last._Mynode()) =
; 1484 : 			this->_Prevnode(_First._Mynode());

  00049	8b 45 10	 mov	 eax, DWORD PTR __First$[ebp]
  0004c	8b 40 04	 mov	 eax, DWORD PTR [eax+4]
  0004f	8b 55 14	 mov	 edx, DWORD PTR __Last$[ebp]
  00052	89 42 04	 mov	 DWORD PTR [edx+4], eax

; 1485 : 		this->_Prevnode(_First._Mynode()) = _Pnode;

  00055	8b 45 10	 mov	 eax, DWORD PTR __First$[ebp]
  00058	89 48 04	 mov	 DWORD PTR [eax+4], ecx
  0005b	5e		 pop	 esi

; 1486 : 		}

  0005c	5d		 pop	 ebp
  0005d	c2 14 00	 ret	 20			; 00000014H
?_Splice_same@?$list@PAVioAnnounce@@V?$allocator@PAVioAnnounce@@@std@@@std@@QAEXV?$_List_const_iterator@V?$_List_val@PAVioAnnounce@@V?$allocator@PAVioAnnounce@@@std@@@std@@@2@AAV12@00I@Z ENDP ; std::list<ioAnnounce *,std::allocator<ioAnnounce *> >::_Splice_same
_TEXT	ENDS
PUBLIC	??$_Buynode@PAVioAnnounce@@@?$_List_val@PAVioAnnounce@@V?$allocator@PAVioAnnounce@@@std@@@std@@QAEPAU_Node@?$_List_nod@PAVioAnnounce@@V?$allocator@PAVioAnnounce@@@std@@@1@PAU231@0$$QAPAVioAnnounce@@@Z ; std::_List_val<ioAnnounce *,std::allocator<ioAnnounce *> >::_Buynode<ioAnnounce *>
; Function compile flags: /Ogsp
;	COMDAT ??$_Buynode@PAVioAnnounce@@@?$_List_val@PAVioAnnounce@@V?$allocator@PAVioAnnounce@@@std@@@std@@QAEPAU_Node@?$_List_nod@PAVioAnnounce@@V?$allocator@PAVioAnnounce@@@std@@@1@PAU231@0$$QAPAVioAnnounce@@@Z
_TEXT	SEGMENT
$T509134 = -12						; size = 12
$T509118 = 8						; size = 4
__Next$ = 8						; size = 4
__Prev$ = 12						; size = 4
__Val$ = 16						; size = 4
??$_Buynode@PAVioAnnounce@@@?$_List_val@PAVioAnnounce@@V?$allocator@PAVioAnnounce@@@std@@@std@@QAEPAU_Node@?$_List_nod@PAVioAnnounce@@V?$allocator@PAVioAnnounce@@@std@@@1@PAU231@0$$QAPAVioAnnounce@@@Z PROC ; std::_List_val<ioAnnounce *,std::allocator<ioAnnounce *> >::_Buynode<ioAnnounce *>, COMDAT
; _this$ = ecx

; 541  : 		_Nodeptr _Buynode(_Nodeptr _Next,

  00000	55		 push	 ebp
  00001	8b ec		 mov	 ebp, esp
  00003	83 ec 0c	 sub	 esp, 12			; 0000000cH

; 542  : 		_Nodeptr _Prev, _Valty&& _Val)
; 543  : 		{	// allocate a node and set links and value
; 544  : 		_Nodeptr _Pnode = this->_Alnod.allocate(1);

  00006	6a 0c		 push	 12			; 0000000cH
  00008	e8 00 00 00 00	 call	 ??2@YAPAXI@Z		; operator new
  0000d	59		 pop	 ecx
  0000e	85 c0		 test	 eax, eax
  00010	74 1d		 je	 SHORT $LN10@Buynode

; 545  : 
; 546  : 		_TRY_BEGIN
; 547  : 		this->_Nextnode(_Pnode) = _Next;

  00012	8b 4d 08	 mov	 ecx, DWORD PTR __Next$[ebp]
  00015	89 08		 mov	 DWORD PTR [eax], ecx

; 548  : 		this->_Prevnode(_Pnode) = _Prev;

  00017	8b 4d 0c	 mov	 ecx, DWORD PTR __Prev$[ebp]
  0001a	89 48 04	 mov	 DWORD PTR [eax+4], ecx

; 549  : 		_Cons_val(this->_Alval, _STD addressof(this->_Myval(_Pnode)),
; 550  : 			_STD forward<_Valty>(_Val));

  0001d	8d 48 08	 lea	 ecx, DWORD PTR [eax+8]
  00020	85 c9		 test	 ecx, ecx
  00022	74 07		 je	 SHORT $LN2@Buynode
  00024	8b 55 10	 mov	 edx, DWORD PTR __Val$[ebp]
  00027	8b 12		 mov	 edx, DWORD PTR [edx]
  00029	89 11		 mov	 DWORD PTR [ecx], edx
$LN2@Buynode:

; 551  : 		_CATCH_ALL
; 552  : 		this->_Alnod.deallocate(_Pnode, 1);
; 553  : 		_RERAISE;
; 554  : 		_CATCH_END
; 555  : 
; 556  : 		return (_Pnode);
; 557  : 		}

  0002b	c9		 leave
  0002c	c2 0c 00	 ret	 12			; 0000000cH

; 542  : 		_Nodeptr _Prev, _Valty&& _Val)
; 543  : 		{	// allocate a node and set links and value
; 544  : 		_Nodeptr _Pnode = this->_Alnod.allocate(1);

$LN10@Buynode:
  0002f	83 65 08 00	 and	 DWORD PTR $T509118[ebp], 0
  00033	8d 45 08	 lea	 eax, DWORD PTR $T509118[ebp]
  00036	50		 push	 eax
  00037	8d 4d f4	 lea	 ecx, DWORD PTR $T509134[ebp]
  0003a	ff 15 00 00 00
	00		 call	 DWORD PTR __imp_??0exception@std@@QAE@ABQBD@Z
  00040	68 00 00 00 00	 push	 OFFSET __TI2?AVbad_alloc@std@@
  00045	8d 45 f4	 lea	 eax, DWORD PTR $T509134[ebp]
  00048	50		 push	 eax
  00049	c7 45 f4 00 00
	00 00		 mov	 DWORD PTR $T509134[ebp], OFFSET ??_7bad_alloc@std@@6B@
  00050	e8 00 00 00 00	 call	 __CxxThrowException@8
$LN46@Buynode:
$LN45@Buynode:
  00055	cc		 int	 3
??$_Buynode@PAVioAnnounce@@@?$_List_val@PAVioAnnounce@@V?$allocator@PAVioAnnounce@@@std@@@std@@QAEPAU_Node@?$_List_nod@PAVioAnnounce@@V?$allocator@PAVioAnnounce@@@std@@@1@PAU231@0$$QAPAVioAnnounce@@@Z ENDP ; std::_List_val<ioAnnounce *,std::allocator<ioAnnounce *> >::_Buynode<ioAnnounce *>
_TEXT	ENDS
PUBLIC	??0?$list@PAVioAnnounce@@V?$allocator@PAVioAnnounce@@@std@@@std@@QAE@XZ ; std::list<ioAnnounce *,std::allocator<ioAnnounce *> >::list<ioAnnounce *,std::allocator<ioAnnounce *> >
; Function compile flags: /Ogsp
;	COMDAT ??0?$list@PAVioAnnounce@@V?$allocator@PAVioAnnounce@@@std@@@std@@QAE@XZ
_TEXT	SEGMENT
$T509216 = -4						; size = 4
$T509211 = -4						; size = 4
??0?$list@PAVioAnnounce@@V?$allocator@PAVioAnnounce@@@std@@@std@@QAE@XZ PROC ; std::list<ioAnnounce *,std::allocator<ioAnnounce *> >::list<ioAnnounce *,std::allocator<ioAnnounce *> >, COMDAT
; _this$ = ecx

; 607  : 		{	// construct empty list

  00000	55		 push	 ebp
  00001	8b ec		 mov	 ebp, esp
  00003	51		 push	 ecx
  00004	56		 push	 esi
  00005	51		 push	 ecx
  00006	89 65 fc	 mov	 DWORD PTR $T509211[ebp], esp
  00009	8b f1		 mov	 esi, ecx
  0000b	89 65 fc	 mov	 DWORD PTR $T509216[ebp], esp
  0000e	e8 00 00 00 00	 call	 ??0?$_List_val@PAVioAnnounce@@V?$allocator@PAVioAnnounce@@@std@@@std@@QAE@V?$allocator@PAVioAnnounce@@@1@@Z ; std::_List_val<ioAnnounce *,std::allocator<ioAnnounce *> >::_List_val<ioAnnounce *,std::allocator<ioAnnounce *> >

; 608  : 		}

  00013	8b c6		 mov	 eax, esi
  00015	5e		 pop	 esi
  00016	c9		 leave
  00017	c3		 ret	 0
??0?$list@PAVioAnnounce@@V?$allocator@PAVioAnnounce@@@std@@@std@@QAE@XZ ENDP ; std::list<ioAnnounce *,std::allocator<ioAnnounce *> >::list<ioAnnounce *,std::allocator<ioAnnounce *> >
_TEXT	ENDS
PUBLIC	?clear@?$list@PAVioAnnounce@@V?$allocator@PAVioAnnounce@@@std@@@std@@QAEXXZ ; std::list<ioAnnounce *,std::allocator<ioAnnounce *> >::clear
; Function compile flags: /Ogsp
;	COMDAT ?clear@?$list@PAVioAnnounce@@V?$allocator@PAVioAnnounce@@@std@@@std@@QAEXXZ
_TEXT	SEGMENT
?clear@?$list@PAVioAnnounce@@V?$allocator@PAVioAnnounce@@@std@@@std@@QAEXXZ PROC ; std::list<ioAnnounce *,std::allocator<ioAnnounce *> >::clear, COMDAT
; _this$ = ecx

; 1096 : 		{	// erase all

  00000	56		 push	 esi
  00001	8b f1		 mov	 esi, ecx

; 1097 :  #if _ITERATOR_DEBUG_LEVEL == 2
; 1098 : 		this->_Orphan_ptr(*this, 0);
; 1099 :  #endif /* _ITERATOR_DEBUG_LEVEL == 2 */
; 1100 : 
; 1101 : 		_Nodeptr _Pnext;
; 1102 : 		_Nodeptr _Pnode = this->_Nextnode(this->_Myhead);

  00003	8b 06		 mov	 eax, DWORD PTR [esi]
  00005	8b 08		 mov	 ecx, DWORD PTR [eax]

; 1103 : 		this->_Nextnode(this->_Myhead) = this->_Myhead;

  00007	89 00		 mov	 DWORD PTR [eax], eax

; 1104 : 		this->_Prevnode(this->_Myhead) = this->_Myhead;

  00009	8b 06		 mov	 eax, DWORD PTR [esi]
  0000b	89 40 04	 mov	 DWORD PTR [eax+4], eax

; 1105 : 		this->_Mysize = 0;

  0000e	83 66 04 00	 and	 DWORD PTR [esi+4], 0

; 1106 : 
; 1107 : 		for (; _Pnode != this->_Myhead; _Pnode = _Pnext)

  00012	3b 0e		 cmp	 ecx, DWORD PTR [esi]
  00014	74 11		 je	 SHORT $LN1@clear
  00016	57		 push	 edi
$LL3@clear:

; 1108 : 			{	// delete an element
; 1109 : 			_Pnext = this->_Nextnode(_Pnode);

  00017	8b 39		 mov	 edi, DWORD PTR [ecx]

; 1110 : 
; 1111 : 			_Dest_val(this->_Alnod, _Pnode);
; 1112 : 			this->_Alnod.deallocate(_Pnode, 1);

  00019	51		 push	 ecx
  0001a	e8 00 00 00 00	 call	 ??3@YAXPAX@Z		; operator delete
  0001f	59		 pop	 ecx
  00020	8b cf		 mov	 ecx, edi
  00022	3b 3e		 cmp	 edi, DWORD PTR [esi]
  00024	75 f1		 jne	 SHORT $LL3@clear
  00026	5f		 pop	 edi
$LN1@clear:
  00027	5e		 pop	 esi

; 1113 : 			}
; 1114 : 		}

  00028	c3		 ret	 0
?clear@?$list@PAVioAnnounce@@V?$allocator@PAVioAnnounce@@@std@@@std@@QAEXXZ ENDP ; std::list<ioAnnounce *,std::allocator<ioAnnounce *> >::clear
_TEXT	ENDS
PUBLIC	?_Tidy@?$list@PAVioAnnounce@@V?$allocator@PAVioAnnounce@@@std@@@std@@QAEXXZ ; std::list<ioAnnounce *,std::allocator<ioAnnounce *> >::_Tidy
; Function compile flags: /Ogsp
;	COMDAT ?_Tidy@?$list@PAVioAnnounce@@V?$allocator@PAVioAnnounce@@@std@@@std@@QAEXXZ
_TEXT	SEGMENT
?_Tidy@?$list@PAVioAnnounce@@V?$allocator@PAVioAnnounce@@@std@@@std@@QAEXXZ PROC ; std::list<ioAnnounce *,std::allocator<ioAnnounce *> >::_Tidy, COMDAT
; _this$ = ecx

; 1497 : 		clear();

  00000	e9 00 00 00 00	 jmp	 ?clear@?$list@PAVioAnnounce@@V?$allocator@PAVioAnnounce@@@std@@@std@@QAEXXZ ; std::list<ioAnnounce *,std::allocator<ioAnnounce *> >::clear
?_Tidy@?$list@PAVioAnnounce@@V?$allocator@PAVioAnnounce@@@std@@@std@@QAEXXZ ENDP ; std::list<ioAnnounce *,std::allocator<ioAnnounce *> >::_Tidy
_TEXT	ENDS
PUBLIC	??0?$_List_iterator@V?$_List_val@PAVioAnnounce@@V?$allocator@PAVioAnnounce@@@std@@@std@@@std@@QAE@PAU_Node@?$_List_nod@PAVioAnnounce@@V?$allocator@PAVioAnnounce@@@std@@@1@PBV?$_List_val@PAVioAnnounce@@V?$allocator@PAVioAnnounce@@@std@@@1@@Z ; std::_List_iterator<std::_List_val<ioAnnounce *,std::allocator<ioAnnounce *> > >::_List_iterator<std::_List_val<ioAnnounce *,std::allocator<ioAnnounce *> > >
; Function compile flags: /Ogsp
;	COMDAT ??0?$_List_iterator@V?$_List_val@PAVioAnnounce@@V?$allocator@PAVioAnnounce@@@std@@@std@@@std@@QAE@PAU_Node@?$_List_nod@PAVioAnnounce@@V?$allocator@PAVioAnnounce@@@std@@@1@PBV?$_List_val@PAVioAnnounce@@V?$allocator@PAVioAnnounce@@@std@@@1@@Z
_TEXT	SEGMENT
__Pnode$ = 8						; size = 4
__Plist$ = 12						; size = 4
??0?$_List_iterator@V?$_List_val@PAVioAnnounce@@V?$allocator@PAVioAnnounce@@@std@@@std@@@std@@QAE@PAU_Node@?$_List_nod@PAVioAnnounce@@V?$allocator@PAVioAnnounce@@@std@@@1@PBV?$_List_val@PAVioAnnounce@@V?$allocator@PAVioAnnounce@@@std@@@1@@Z PROC ; std::_List_iterator<std::_List_val<ioAnnounce *,std::allocator<ioAnnounce *> > >::_List_iterator<std::_List_val<ioAnnounce *,std::allocator<ioAnnounce *> > >, COMDAT
; _this$ = ecx

; 342  : 		{	// construct with node pointer _Pnode

  00000	55		 push	 ebp
  00001	8b ec		 mov	 ebp, esp
  00003	8b c1		 mov	 eax, ecx
  00005	8b 4d 08	 mov	 ecx, DWORD PTR __Pnode$[ebp]
  00008	89 08		 mov	 DWORD PTR [eax], ecx

; 343  : 		}

  0000a	5d		 pop	 ebp
  0000b	c2 08 00	 ret	 8
??0?$_List_iterator@V?$_List_val@PAVioAnnounce@@V?$allocator@PAVioAnnounce@@@std@@@std@@@std@@QAE@PAU_Node@?$_List_nod@PAVioAnnounce@@V?$allocator@PAVioAnnounce@@@std@@@1@PBV?$_List_val@PAVioAnnounce@@V?$allocator@PAVioAnnounce@@@std@@@1@@Z ENDP ; std::_List_iterator<std::_List_val<ioAnnounce *,std::allocator<ioAnnounce *> > >::_List_iterator<std::_List_val<ioAnnounce *,std::allocator<ioAnnounce *> > >
_TEXT	ENDS
PUBLIC	?_Buynode@?$_List_val@PAVioAnnounce@@V?$allocator@PAVioAnnounce@@@std@@@std@@QAEPAU_Node@?$_List_nod@PAVioAnnounce@@V?$allocator@PAVioAnnounce@@@std@@@2@PAU342@0ABQAVioAnnounce@@@Z ; std::_List_val<ioAnnounce *,std::allocator<ioAnnounce *> >::_Buynode
; Function compile flags: /Ogsp
;	COMDAT ?_Buynode@?$_List_val@PAVioAnnounce@@V?$allocator@PAVioAnnounce@@@std@@@std@@QAEPAU_Node@?$_List_nod@PAVioAnnounce@@V?$allocator@PAVioAnnounce@@@std@@@2@PAU342@0ABQAVioAnnounce@@@Z
_TEXT	SEGMENT
$T509303 = -12						; size = 12
$T509287 = 8						; size = 4
__Next$ = 8						; size = 4
__Prev$ = 12						; size = 4
__Val$ = 16						; size = 4
?_Buynode@?$_List_val@PAVioAnnounce@@V?$allocator@PAVioAnnounce@@@std@@@std@@QAEPAU_Node@?$_List_nod@PAVioAnnounce@@V?$allocator@PAVioAnnounce@@@std@@@2@PAU342@0ABQAVioAnnounce@@@Z PROC ; std::_List_val<ioAnnounce *,std::allocator<ioAnnounce *> >::_Buynode, COMDAT
; _this$ = ecx

; 507  : 		{	// allocate a node and set links and value

  00000	55		 push	 ebp
  00001	8b ec		 mov	 ebp, esp
  00003	83 ec 0c	 sub	 esp, 12			; 0000000cH

; 508  : 		_Nodeptr _Pnode = this->_Alnod.allocate(1);

  00006	6a 0c		 push	 12			; 0000000cH
  00008	e8 00 00 00 00	 call	 ??2@YAPAXI@Z		; operator new
  0000d	59		 pop	 ecx
  0000e	85 c0		 test	 eax, eax
  00010	74 1d		 je	 SHORT $LN10@Buynode@2

; 509  : 
; 510  : 		_TRY_BEGIN
; 511  : 		this->_Nextnode(_Pnode) = _Next;

  00012	8b 4d 08	 mov	 ecx, DWORD PTR __Next$[ebp]
  00015	89 08		 mov	 DWORD PTR [eax], ecx

; 512  : 		this->_Prevnode(_Pnode) = _Prev;

  00017	8b 4d 0c	 mov	 ecx, DWORD PTR __Prev$[ebp]
  0001a	89 48 04	 mov	 DWORD PTR [eax+4], ecx

; 513  : 		_Cons_val(this->_Alval, _STD addressof(this->_Myval(_Pnode)), _Val);

  0001d	8d 48 08	 lea	 ecx, DWORD PTR [eax+8]
  00020	85 c9		 test	 ecx, ecx
  00022	74 07		 je	 SHORT $LN2@Buynode@2
  00024	8b 55 10	 mov	 edx, DWORD PTR __Val$[ebp]
  00027	8b 12		 mov	 edx, DWORD PTR [edx]
  00029	89 11		 mov	 DWORD PTR [ecx], edx
$LN2@Buynode@2:

; 514  : 		_CATCH_ALL
; 515  : 		this->_Alnod.deallocate(_Pnode, 1);
; 516  : 		_RERAISE;
; 517  : 		_CATCH_END
; 518  : 
; 519  : 		return (_Pnode);
; 520  : 		}

  0002b	c9		 leave
  0002c	c2 0c 00	 ret	 12			; 0000000cH

; 508  : 		_Nodeptr _Pnode = this->_Alnod.allocate(1);

$LN10@Buynode@2:
  0002f	83 65 08 00	 and	 DWORD PTR $T509287[ebp], 0
  00033	8d 45 08	 lea	 eax, DWORD PTR $T509287[ebp]
  00036	50		 push	 eax
  00037	8d 4d f4	 lea	 ecx, DWORD PTR $T509303[ebp]
  0003a	ff 15 00 00 00
	00		 call	 DWORD PTR __imp_??0exception@std@@QAE@ABQBD@Z
  00040	68 00 00 00 00	 push	 OFFSET __TI2?AVbad_alloc@std@@
  00045	8d 45 f4	 lea	 eax, DWORD PTR $T509303[ebp]
  00048	50		 push	 eax
  00049	c7 45 f4 00 00
	00 00		 mov	 DWORD PTR $T509303[ebp], OFFSET ??_7bad_alloc@std@@6B@
  00050	e8 00 00 00 00	 call	 __CxxThrowException@8
$LN46@Buynode@2:
$LN45@Buynode@2:
  00055	cc		 int	 3
?_Buynode@?$_List_val@PAVioAnnounce@@V?$allocator@PAVioAnnounce@@@std@@@std@@QAEPAU_Node@?$_List_nod@PAVioAnnounce@@V?$allocator@PAVioAnnounce@@@std@@@2@PAU342@0ABQAVioAnnounce@@@Z ENDP ; std::_List_val<ioAnnounce *,std::allocator<ioAnnounce *> >::_Buynode
_TEXT	ENDS
PUBLIC	??$_Insert_rv@PAVioAnnounce@@@?$list@PAVioAnnounce@@V?$allocator@PAVioAnnounce@@@std@@@std@@QAEXV?$_List_const_iterator@V?$_List_val@PAVioAnnounce@@V?$allocator@PAVioAnnounce@@@std@@@std@@@1@$$QAPAVioAnnounce@@@Z ; std::list<ioAnnounce *,std::allocator<ioAnnounce *> >::_Insert_rv<ioAnnounce *>
; Function compile flags: /Ogsp
;	COMDAT ??$_Insert_rv@PAVioAnnounce@@@?$list@PAVioAnnounce@@V?$allocator@PAVioAnnounce@@@std@@@std@@QAEXV?$_List_const_iterator@V?$_List_val@PAVioAnnounce@@V?$allocator@PAVioAnnounce@@@std@@@std@@@1@$$QAPAVioAnnounce@@@Z
_TEXT	SEGMENT
__Where$ = 8						; size = 4
__Val$ = 12						; size = 4
??$_Insert_rv@PAVioAnnounce@@@?$list@PAVioAnnounce@@V?$allocator@PAVioAnnounce@@@std@@@std@@QAEXV?$_List_const_iterator@V?$_List_val@PAVioAnnounce@@V?$allocator@PAVioAnnounce@@@std@@@std@@@1@$$QAPAVioAnnounce@@@Z PROC ; std::list<ioAnnounce *,std::allocator<ioAnnounce *> >::_Insert_rv<ioAnnounce *>, COMDAT
; _this$ = ecx

; 746  : 		void _Insert_rv(const_iterator _Where,

  00000	55		 push	 ebp
  00001	8b ec		 mov	 ebp, esp

; 747  : 		_Valty&& _Val)
; 748  : 		{	// insert _Val at _Where
; 749  :  #if _ITERATOR_DEBUG_LEVEL == 2
; 750  : 		if (_Where._Getcont() != this)
; 751  : 			_DEBUG_ERROR("list insert iterator outside range");
; 752  :  #endif /* _ITERATOR_DEBUG_LEVEL == 2 */
; 753  : 
; 754  : 		_Nodeptr _Pnode = _Where._Mynode();
; 755  : 		_Nodeptr _Newnode =
; 756  : 			this->_Buynode(_Pnode, this->_Prevnode(_Pnode),
; 757  : 				_STD forward<_Valty>(_Val));

  00003	8b 45 08	 mov	 eax, DWORD PTR __Where$[ebp]
  00006	53		 push	 ebx
  00007	56		 push	 esi
  00008	57		 push	 edi
  00009	ff 75 0c	 push	 DWORD PTR __Val$[ebp]
  0000c	8d 78 04	 lea	 edi, DWORD PTR [eax+4]
  0000f	ff 37		 push	 DWORD PTR [edi]
  00011	8b d9		 mov	 ebx, ecx
  00013	50		 push	 eax
  00014	e8 00 00 00 00	 call	 ??$_Buynode@PAVioAnnounce@@@?$_List_val@PAVioAnnounce@@V?$allocator@PAVioAnnounce@@@std@@@std@@QAEPAU_Node@?$_List_nod@PAVioAnnounce@@V?$allocator@PAVioAnnounce@@@std@@@1@PAU231@0$$QAPAVioAnnounce@@@Z ; std::_List_val<ioAnnounce *,std::allocator<ioAnnounce *> >::_Buynode<ioAnnounce *>

; 758  : 		_Incsize(1);

  00019	6a 01		 push	 1
  0001b	8b cb		 mov	 ecx, ebx
  0001d	8b f0		 mov	 esi, eax
  0001f	e8 00 00 00 00	 call	 ?_Incsize@?$list@PAVioAnnounce@@V?$allocator@PAVioAnnounce@@@std@@@std@@QAEXI@Z ; std::list<ioAnnounce *,std::allocator<ioAnnounce *> >::_Incsize

; 759  : 		this->_Prevnode(_Pnode) = _Newnode;

  00024	89 37		 mov	 DWORD PTR [edi], esi

; 760  : 		this->_Nextnode(this->_Prevnode(_Newnode)) = _Newnode;

  00026	8b 46 04	 mov	 eax, DWORD PTR [esi+4]
  00029	5f		 pop	 edi
  0002a	89 30		 mov	 DWORD PTR [eax], esi
  0002c	5e		 pop	 esi
  0002d	5b		 pop	 ebx

; 761  : 		}

  0002e	5d		 pop	 ebp
  0002f	c2 08 00	 ret	 8
??$_Insert_rv@PAVioAnnounce@@@?$list@PAVioAnnounce@@V?$allocator@PAVioAnnounce@@@std@@@std@@QAEXV?$_List_const_iterator@V?$_List_val@PAVioAnnounce@@V?$allocator@PAVioAnnounce@@@std@@@std@@@1@$$QAPAVioAnnounce@@@Z ENDP ; std::list<ioAnnounce *,std::allocator<ioAnnounce *> >::_Insert_rv<ioAnnounce *>
_TEXT	ENDS
PUBLIC	??1?$list@PAVioAnnounce@@V?$allocator@PAVioAnnounce@@@std@@@std@@QAE@XZ ; std::list<ioAnnounce *,std::allocator<ioAnnounce *> >::~list<ioAnnounce *,std::allocator<ioAnnounce *> >
; Function compile flags: /Ogsp
;	COMDAT ??1?$list@PAVioAnnounce@@V?$allocator@PAVioAnnounce@@@std@@@std@@QAE@XZ
_TEXT	SEGMENT
??1?$list@PAVioAnnounce@@V?$allocator@PAVioAnnounce@@@std@@@std@@QAE@XZ PROC ; std::list<ioAnnounce *,std::allocator<ioAnnounce *> >::~list<ioAnnounce *,std::allocator<ioAnnounce *> >, COMDAT
; _this$ = ecx

; 769  : 		{	// destroy the object

  00000	56		 push	 esi
  00001	8b f1		 mov	 esi, ecx

; 770  : 		_Tidy();

  00003	e8 00 00 00 00	 call	 ?clear@?$list@PAVioAnnounce@@V?$allocator@PAVioAnnounce@@@std@@@std@@QAEXXZ ; std::list<ioAnnounce *,std::allocator<ioAnnounce *> >::clear

; 771  : 		}

  00008	ff 36		 push	 DWORD PTR [esi]
  0000a	e8 00 00 00 00	 call	 ??3@YAXPAX@Z		; operator delete
  0000f	59		 pop	 ecx
  00010	5e		 pop	 esi
  00011	c3		 ret	 0
??1?$list@PAVioAnnounce@@V?$allocator@PAVioAnnounce@@@std@@@std@@QAE@XZ ENDP ; std::list<ioAnnounce *,std::allocator<ioAnnounce *> >::~list<ioAnnounce *,std::allocator<ioAnnounce *> >
_TEXT	ENDS
PUBLIC	?begin@?$list@PAVioAnnounce@@V?$allocator@PAVioAnnounce@@@std@@@std@@QAE?AV?$_List_iterator@V?$_List_val@PAVioAnnounce@@V?$allocator@PAVioAnnounce@@@std@@@std@@@2@XZ ; std::list<ioAnnounce *,std::allocator<ioAnnounce *> >::begin
; Function compile flags: /Ogsp
;	COMDAT ?begin@?$list@PAVioAnnounce@@V?$allocator@PAVioAnnounce@@@std@@@std@@QAE?AV?$_List_iterator@V?$_List_val@PAVioAnnounce@@V?$allocator@PAVioAnnounce@@@std@@@std@@@2@XZ
_TEXT	SEGMENT
___$ReturnUdt$ = 8					; size = 4
?begin@?$list@PAVioAnnounce@@V?$allocator@PAVioAnnounce@@@std@@@std@@QAE?AV?$_List_iterator@V?$_List_val@PAVioAnnounce@@V?$allocator@PAVioAnnounce@@@std@@@std@@@2@XZ PROC ; std::list<ioAnnounce *,std::allocator<ioAnnounce *> >::begin, COMDAT
; _this$ = ecx

; 781  : 		{	// return iterator for beginning of mutable sequence

  00000	55		 push	 ebp
  00001	8b ec		 mov	 ebp, esp

; 782  : 		return (iterator(this->_Nextnode(this->_Myhead), this));

  00003	8b 01		 mov	 eax, DWORD PTR [ecx]
  00005	8b 08		 mov	 ecx, DWORD PTR [eax]
  00007	8b 45 08	 mov	 eax, DWORD PTR ___$ReturnUdt$[ebp]
  0000a	89 08		 mov	 DWORD PTR [eax], ecx

; 783  : 		}

  0000c	5d		 pop	 ebp
  0000d	c2 04 00	 ret	 4
?begin@?$list@PAVioAnnounce@@V?$allocator@PAVioAnnounce@@@std@@@std@@QAE?AV?$_List_iterator@V?$_List_val@PAVioAnnounce@@V?$allocator@PAVioAnnounce@@@std@@@std@@@2@XZ ENDP ; std::list<ioAnnounce *,std::allocator<ioAnnounce *> >::begin
_TEXT	ENDS
PUBLIC	?end@?$list@PAVioAnnounce@@V?$allocator@PAVioAnnounce@@@std@@@std@@QAE?AV?$_List_iterator@V?$_List_val@PAVioAnnounce@@V?$allocator@PAVioAnnounce@@@std@@@std@@@2@XZ ; std::list<ioAnnounce *,std::allocator<ioAnnounce *> >::end
; Function compile flags: /Ogsp
;	COMDAT ?end@?$list@PAVioAnnounce@@V?$allocator@PAVioAnnounce@@@std@@@std@@QAE?AV?$_List_iterator@V?$_List_val@PAVioAnnounce@@V?$allocator@PAVioAnnounce@@@std@@@std@@@2@XZ
_TEXT	SEGMENT
___$ReturnUdt$ = 8					; size = 4
?end@?$list@PAVioAnnounce@@V?$allocator@PAVioAnnounce@@@std@@@std@@QAE?AV?$_List_iterator@V?$_List_val@PAVioAnnounce@@V?$allocator@PAVioAnnounce@@@std@@@std@@@2@XZ PROC ; std::list<ioAnnounce *,std::allocator<ioAnnounce *> >::end, COMDAT
; _this$ = ecx

; 791  : 		{	// return iterator for end of mutable sequence

  00000	55		 push	 ebp
  00001	8b ec		 mov	 ebp, esp

; 792  : 		return (iterator(this->_Myhead, this));

  00003	8b 09		 mov	 ecx, DWORD PTR [ecx]
  00005	8b 45 08	 mov	 eax, DWORD PTR ___$ReturnUdt$[ebp]
  00008	89 08		 mov	 DWORD PTR [eax], ecx

; 793  : 		}

  0000a	5d		 pop	 ebp
  0000b	c2 04 00	 ret	 4
?end@?$list@PAVioAnnounce@@V?$allocator@PAVioAnnounce@@@std@@@std@@QAE?AV?$_List_iterator@V?$_List_val@PAVioAnnounce@@V?$allocator@PAVioAnnounce@@@std@@@std@@@2@XZ ENDP ; std::list<ioAnnounce *,std::allocator<ioAnnounce *> >::end
_TEXT	ENDS
PUBLIC	?front@?$list@PAVioAnnounce@@V?$allocator@PAVioAnnounce@@@std@@@std@@QAEAAPAVioAnnounce@@XZ ; std::list<ioAnnounce *,std::allocator<ioAnnounce *> >::front
; Function compile flags: /Ogsp
;	COMDAT ?front@?$list@PAVioAnnounce@@V?$allocator@PAVioAnnounce@@@std@@@std@@QAEAAPAVioAnnounce@@XZ
_TEXT	SEGMENT
?front@?$list@PAVioAnnounce@@V?$allocator@PAVioAnnounce@@@std@@@std@@QAEAAPAVioAnnounce@@XZ PROC ; std::list<ioAnnounce *,std::allocator<ioAnnounce *> >::front, COMDAT
; _this$ = ecx

; 897  : 		return (*begin());

  00000	8b 01		 mov	 eax, DWORD PTR [ecx]
  00002	8b 00		 mov	 eax, DWORD PTR [eax]
  00004	83 c0 08	 add	 eax, 8

; 898  : 		}

  00007	c3		 ret	 0
?front@?$list@PAVioAnnounce@@V?$allocator@PAVioAnnounce@@@std@@@std@@QAEAAPAVioAnnounce@@XZ ENDP ; std::list<ioAnnounce *,std::allocator<ioAnnounce *> >::front
_TEXT	ENDS
PUBLIC	?_Make_iter@?$list@PAVioAnnounce@@V?$allocator@PAVioAnnounce@@@std@@@std@@QBE?AV?$_List_iterator@V?$_List_val@PAVioAnnounce@@V?$allocator@PAVioAnnounce@@@std@@@std@@@2@V?$_List_const_iterator@V?$_List_val@PAVioAnnounce@@V?$allocator@PAVioAnnounce@@@std@@@std@@@2@@Z ; std::list<ioAnnounce *,std::allocator<ioAnnounce *> >::_Make_iter
; Function compile flags: /Ogsp
;	COMDAT ?_Make_iter@?$list@PAVioAnnounce@@V?$allocator@PAVioAnnounce@@@std@@@std@@QBE?AV?$_List_iterator@V?$_List_val@PAVioAnnounce@@V?$allocator@PAVioAnnounce@@@std@@@std@@@2@V?$_List_const_iterator@V?$_List_val@PAVioAnnounce@@V?$allocator@PAVioAnnounce@@@std@@@std@@@2@@Z
_TEXT	SEGMENT
___$ReturnUdt$ = 8					; size = 4
__Where$ = 12						; size = 4
?_Make_iter@?$list@PAVioAnnounce@@V?$allocator@PAVioAnnounce@@@std@@@std@@QBE?AV?$_List_iterator@V?$_List_val@PAVioAnnounce@@V?$allocator@PAVioAnnounce@@@std@@@std@@@2@V?$_List_const_iterator@V?$_List_val@PAVioAnnounce@@V?$allocator@PAVioAnnounce@@@std@@@std@@@2@@Z PROC ; std::list<ioAnnounce *,std::allocator<ioAnnounce *> >::_Make_iter, COMDAT
; _this$ = ecx

; 801  : 		{	// make iterator from const_iterator

  00000	55		 push	 ebp
  00001	8b ec		 mov	 ebp, esp

; 802  : 		return (iterator(_Where._Ptr, this));

  00003	8b 45 08	 mov	 eax, DWORD PTR ___$ReturnUdt$[ebp]
  00006	8b 4d 0c	 mov	 ecx, DWORD PTR __Where$[ebp]
  00009	89 08		 mov	 DWORD PTR [eax], ecx

; 803  : 		}

  0000b	5d		 pop	 ebp
  0000c	c2 08 00	 ret	 8
?_Make_iter@?$list@PAVioAnnounce@@V?$allocator@PAVioAnnounce@@@std@@@std@@QBE?AV?$_List_iterator@V?$_List_val@PAVioAnnounce@@V?$allocator@PAVioAnnounce@@@std@@@std@@@2@V?$_List_const_iterator@V?$_List_val@PAVioAnnounce@@V?$allocator@PAVioAnnounce@@@std@@@std@@@2@@Z ENDP ; std::list<ioAnnounce *,std::allocator<ioAnnounce *> >::_Make_iter
_TEXT	ENDS
PUBLIC	?_Insert@?$list@PAVioAnnounce@@V?$allocator@PAVioAnnounce@@@std@@@std@@QAEXV?$_List_const_iterator@V?$_List_val@PAVioAnnounce@@V?$allocator@PAVioAnnounce@@@std@@@std@@@2@ABQAVioAnnounce@@@Z ; std::list<ioAnnounce *,std::allocator<ioAnnounce *> >::_Insert
; Function compile flags: /Ogsp
;	COMDAT ?_Insert@?$list@PAVioAnnounce@@V?$allocator@PAVioAnnounce@@@std@@@std@@QAEXV?$_List_const_iterator@V?$_List_val@PAVioAnnounce@@V?$allocator@PAVioAnnounce@@@std@@@std@@@2@ABQAVioAnnounce@@@Z
_TEXT	SEGMENT
__Where$ = 8						; size = 4
__Val$ = 12						; size = 4
?_Insert@?$list@PAVioAnnounce@@V?$allocator@PAVioAnnounce@@@std@@@std@@QAEXV?$_List_const_iterator@V?$_List_val@PAVioAnnounce@@V?$allocator@PAVioAnnounce@@@std@@@std@@@2@ABQAVioAnnounce@@@Z PROC ; std::list<ioAnnounce *,std::allocator<ioAnnounce *> >::_Insert, COMDAT
; _this$ = ecx

; 967  : 		{	// insert _Val at _Where

  00000	55		 push	 ebp
  00001	8b ec		 mov	 ebp, esp

; 968  :  #if _ITERATOR_DEBUG_LEVEL == 2
; 969  : 		if (_Where._Getcont() != this)
; 970  : 			_DEBUG_ERROR("list insert iterator outside range");
; 971  :  #endif /* _ITERATOR_DEBUG_LEVEL == 2 */
; 972  : 
; 973  : 		_Nodeptr _Pnode = _Where._Mynode();
; 974  : 		_Nodeptr _Newnode =
; 975  : 			this->_Buynode(_Pnode, this->_Prevnode(_Pnode), _Val);

  00003	8b 45 08	 mov	 eax, DWORD PTR __Where$[ebp]
  00006	53		 push	 ebx
  00007	56		 push	 esi
  00008	57		 push	 edi
  00009	ff 75 0c	 push	 DWORD PTR __Val$[ebp]
  0000c	8d 78 04	 lea	 edi, DWORD PTR [eax+4]
  0000f	ff 37		 push	 DWORD PTR [edi]
  00011	8b d9		 mov	 ebx, ecx
  00013	50		 push	 eax
  00014	e8 00 00 00 00	 call	 ?_Buynode@?$_List_val@PAVioAnnounce@@V?$allocator@PAVioAnnounce@@@std@@@std@@QAEPAU_Node@?$_List_nod@PAVioAnnounce@@V?$allocator@PAVioAnnounce@@@std@@@2@PAU342@0ABQAVioAnnounce@@@Z ; std::_List_val<ioAnnounce *,std::allocator<ioAnnounce *> >::_Buynode

; 976  : 		_Incsize(1);

  00019	6a 01		 push	 1
  0001b	8b cb		 mov	 ecx, ebx
  0001d	8b f0		 mov	 esi, eax
  0001f	e8 00 00 00 00	 call	 ?_Incsize@?$list@PAVioAnnounce@@V?$allocator@PAVioAnnounce@@@std@@@std@@QAEXI@Z ; std::list<ioAnnounce *,std::allocator<ioAnnounce *> >::_Incsize

; 977  : 		this->_Prevnode(_Pnode) = _Newnode;

  00024	89 37		 mov	 DWORD PTR [edi], esi

; 978  : 		this->_Nextnode(this->_Prevnode(_Newnode)) = _Newnode;

  00026	8b 46 04	 mov	 eax, DWORD PTR [esi+4]
  00029	5f		 pop	 edi
  0002a	89 30		 mov	 DWORD PTR [eax], esi
  0002c	5e		 pop	 esi
  0002d	5b		 pop	 ebx

; 979  : 		}

  0002e	5d		 pop	 ebp
  0002f	c2 08 00	 ret	 8
?_Insert@?$list@PAVioAnnounce@@V?$allocator@PAVioAnnounce@@@std@@@std@@QAEXV?$_List_const_iterator@V?$_List_val@PAVioAnnounce@@V?$allocator@PAVioAnnounce@@@std@@@std@@@2@ABQAVioAnnounce@@@Z ENDP ; std::list<ioAnnounce *,std::allocator<ioAnnounce *> >::_Insert
_TEXT	ENDS
PUBLIC	??$emplace@PAVioAnnounce@@@?$list@PAVioAnnounce@@V?$allocator@PAVioAnnounce@@@std@@@std@@QAE?AV?$_List_iterator@V?$_List_val@PAVioAnnounce@@V?$allocator@PAVioAnnounce@@@std@@@std@@@1@V?$_List_const_iterator@V?$_List_val@PAVioAnnounce@@V?$allocator@PAVioAnnounce@@@std@@@std@@@1@$$QAPAVioAnnounce@@@Z ; std::list<ioAnnounce *,std::allocator<ioAnnounce *> >::emplace<ioAnnounce *>
; Function compile flags: /Ogsp
;	COMDAT ??$emplace@PAVioAnnounce@@@?$list@PAVioAnnounce@@V?$allocator@PAVioAnnounce@@@std@@@std@@QAE?AV?$_List_iterator@V?$_List_val@PAVioAnnounce@@V?$allocator@PAVioAnnounce@@@std@@@std@@@1@V?$_List_const_iterator@V?$_List_val@PAVioAnnounce@@V?$allocator@PAVioAnnounce@@@std@@@std@@@1@$$QAPAVioAnnounce@@@Z
_TEXT	SEGMENT
___$ReturnUdt$ = 8					; size = 4
__Where$ = 12						; size = 4
__Val$ = 16						; size = 4
??$emplace@PAVioAnnounce@@@?$list@PAVioAnnounce@@V?$allocator@PAVioAnnounce@@@std@@@std@@QAE?AV?$_List_iterator@V?$_List_val@PAVioAnnounce@@V?$allocator@PAVioAnnounce@@@std@@@std@@@1@V?$_List_const_iterator@V?$_List_val@PAVioAnnounce@@V?$allocator@PAVioAnnounce@@@std@@@std@@@1@$$QAPAVioAnnounce@@@Z PROC ; std::list<ioAnnounce *,std::allocator<ioAnnounce *> >::emplace<ioAnnounce *>, COMDAT
; _this$ = ecx

; 739  : 		iterator emplace(const_iterator _Where, _Valty&& _Val)

  00000	55		 push	 ebp
  00001	8b ec		 mov	 ebp, esp

; 740  : 		{	// insert _Val at _Where
; 741  : 		_Insert_rv(_Where, _STD forward<_Valty>(_Val));

  00003	ff 75 10	 push	 DWORD PTR __Val$[ebp]
  00006	ff 75 0c	 push	 DWORD PTR __Where$[ebp]
  00009	e8 00 00 00 00	 call	 ??$_Insert_rv@PAVioAnnounce@@@?$list@PAVioAnnounce@@V?$allocator@PAVioAnnounce@@@std@@@std@@QAEXV?$_List_const_iterator@V?$_List_val@PAVioAnnounce@@V?$allocator@PAVioAnnounce@@@std@@@std@@@1@$$QAPAVioAnnounce@@@Z ; std::list<ioAnnounce *,std::allocator<ioAnnounce *> >::_Insert_rv<ioAnnounce *>

; 742  : 		return (_Make_iter(--_Where));

  0000e	8b 45 0c	 mov	 eax, DWORD PTR __Where$[ebp]
  00011	8b 48 04	 mov	 ecx, DWORD PTR [eax+4]
  00014	8b 45 08	 mov	 eax, DWORD PTR ___$ReturnUdt$[ebp]
  00017	89 08		 mov	 DWORD PTR [eax], ecx

; 743  : 		}

  00019	5d		 pop	 ebp
  0001a	c2 0c 00	 ret	 12			; 0000000cH
??$emplace@PAVioAnnounce@@@?$list@PAVioAnnounce@@V?$allocator@PAVioAnnounce@@@std@@@std@@QAE?AV?$_List_iterator@V?$_List_val@PAVioAnnounce@@V?$allocator@PAVioAnnounce@@@std@@@std@@@1@V?$_List_const_iterator@V?$_List_val@PAVioAnnounce@@V?$allocator@PAVioAnnounce@@@std@@@std@@@1@$$QAPAVioAnnounce@@@Z ENDP ; std::list<ioAnnounce *,std::allocator<ioAnnounce *> >::emplace<ioAnnounce *>
_TEXT	ENDS
PUBLIC	??_C@_00CNPNBAHC@?$AA@				; `string'
PUBLIC	??_7ioAnnounceManager@@6B@			; ioAnnounceManager::`vftable'
PUBLIC	_this$GSCopy$
PUBLIC	??0ioAnnounceManager@@QAE@XZ			; ioAnnounceManager::ioAnnounceManager
PUBLIC	??_R4ioAnnounceManager@@6B@			; ioAnnounceManager::`RTTI Complete Object Locator'
PUBLIC	??_R0?AVioAnnounceManager@@@8			; ioAnnounceManager `RTTI Type Descriptor'
PUBLIC	??_R3ioAnnounceManager@@8			; ioAnnounceManager::`RTTI Class Hierarchy Descriptor'
PUBLIC	??_R2ioAnnounceManager@@8			; ioAnnounceManager::`RTTI Base Class Array'
PUBLIC	??_R1A@?0A@EA@ioAnnounceManager@@8		; ioAnnounceManager::`RTTI Base Class Descriptor at (0,-1,0,64)'
PUBLIC	??_R13?0A@EA@?$Singleton@VioAnnounceManager@@@@8 ; Singleton<ioAnnounceManager>::`RTTI Base Class Descriptor at (4,-1,0,64)'
PUBLIC	??_R0?AV?$Singleton@VioAnnounceManager@@@@@8	; Singleton<ioAnnounceManager> `RTTI Type Descriptor'
PUBLIC	??_R3?$Singleton@VioAnnounceManager@@@@8	; Singleton<ioAnnounceManager>::`RTTI Class Hierarchy Descriptor'
PUBLIC	??_R2?$Singleton@VioAnnounceManager@@@@8	; Singleton<ioAnnounceManager>::`RTTI Base Class Array'
PUBLIC	??_R1A@?0A@EA@?$Singleton@VioAnnounceManager@@@@8 ; Singleton<ioAnnounceManager>::`RTTI Base Class Descriptor at (0,-1,0,64)'
EXTRN	__imp_??1ioHashString@@QAE@XZ:PROC
EXTRN	__imp_??4ioHashString@@QAEAAV0@PBD@Z:PROC
EXTRN	__imp_??0ioHashString@@QAE@XZ:PROC
EXTRN	___CxxFrameHandler3:PROC
EXTRN	__EH_epilog3_GS:PROC
EXTRN	__EH_prolog3_GS:PROC
EXTRN	??_EioAnnounceManager@@UAEPAXI@Z:PROC		; ioAnnounceManager::`vector deleting destructor'
;	COMDAT ??_R1A@?0A@EA@?$Singleton@VioAnnounceManager@@@@8
; File d:\lost saga for developer\youtube\tutorial\source\src\lsclient\ioannouncemanager.cpp
rdata$r	SEGMENT
??_R1A@?0A@EA@?$Singleton@VioAnnounceManager@@@@8 DD FLAT:??_R0?AV?$Singleton@VioAnnounceManager@@@@@8 ; Singleton<ioAnnounceManager>::`RTTI Base Class Descriptor at (0,-1,0,64)'
	DD	00H
	DD	00H
	DD	0ffffffffH
	DD	00H
	DD	040H
	DD	FLAT:??_R3?$Singleton@VioAnnounceManager@@@@8
rdata$r	ENDS
;	COMDAT ??_R2?$Singleton@VioAnnounceManager@@@@8
rdata$r	SEGMENT
??_R2?$Singleton@VioAnnounceManager@@@@8 DD FLAT:??_R1A@?0A@EA@?$Singleton@VioAnnounceManager@@@@8 ; Singleton<ioAnnounceManager>::`RTTI Base Class Array'
rdata$r	ENDS
;	COMDAT ??_R3?$Singleton@VioAnnounceManager@@@@8
rdata$r	SEGMENT
??_R3?$Singleton@VioAnnounceManager@@@@8 DD 00H		; Singleton<ioAnnounceManager>::`RTTI Class Hierarchy Descriptor'
	DD	00H
	DD	01H
	DD	FLAT:??_R2?$Singleton@VioAnnounceManager@@@@8
rdata$r	ENDS
;	COMDAT ??_R0?AV?$Singleton@VioAnnounceManager@@@@@8
_DATA	SEGMENT
??_R0?AV?$Singleton@VioAnnounceManager@@@@@8 DD FLAT:??_7type_info@@6B@ ; Singleton<ioAnnounceManager> `RTTI Type Descriptor'
	DD	00H
	DB	'.?AV?$Singleton@VioAnnounceManager@@@@', 00H
_DATA	ENDS
;	COMDAT ??_R13?0A@EA@?$Singleton@VioAnnounceManager@@@@8
rdata$r	SEGMENT
??_R13?0A@EA@?$Singleton@VioAnnounceManager@@@@8 DD FLAT:??_R0?AV?$Singleton@VioAnnounceManager@@@@@8 ; Singleton<ioAnnounceManager>::`RTTI Base Class Descriptor at (4,-1,0,64)'
	DD	00H
	DD	04H
	DD	0ffffffffH
	DD	00H
	DD	040H
	DD	FLAT:??_R3?$Singleton@VioAnnounceManager@@@@8
rdata$r	ENDS
;	COMDAT ??_R1A@?0A@EA@ioAnnounceManager@@8
rdata$r	SEGMENT
??_R1A@?0A@EA@ioAnnounceManager@@8 DD FLAT:??_R0?AVioAnnounceManager@@@8 ; ioAnnounceManager::`RTTI Base Class Descriptor at (0,-1,0,64)'
	DD	01H
	DD	00H
	DD	0ffffffffH
	DD	00H
	DD	040H
	DD	FLAT:??_R3ioAnnounceManager@@8
rdata$r	ENDS
;	COMDAT ??_R2ioAnnounceManager@@8
rdata$r	SEGMENT
??_R2ioAnnounceManager@@8 DD FLAT:??_R1A@?0A@EA@ioAnnounceManager@@8 ; ioAnnounceManager::`RTTI Base Class Array'
	DD	FLAT:??_R13?0A@EA@?$Singleton@VioAnnounceManager@@@@8
rdata$r	ENDS
;	COMDAT ??_R3ioAnnounceManager@@8
rdata$r	SEGMENT
??_R3ioAnnounceManager@@8 DD 00H			; ioAnnounceManager::`RTTI Class Hierarchy Descriptor'
	DD	00H
	DD	02H
	DD	FLAT:??_R2ioAnnounceManager@@8
rdata$r	ENDS
;	COMDAT ??_R0?AVioAnnounceManager@@@8
_DATA	SEGMENT
??_R0?AVioAnnounceManager@@@8 DD FLAT:??_7type_info@@6B@ ; ioAnnounceManager `RTTI Type Descriptor'
	DD	00H
	DB	'.?AVioAnnounceManager@@', 00H
_DATA	ENDS
;	COMDAT ??_R4ioAnnounceManager@@6B@
rdata$r	SEGMENT
??_R4ioAnnounceManager@@6B@ DD 00H			; ioAnnounceManager::`RTTI Complete Object Locator'
	DD	00H
	DD	00H
	DD	FLAT:??_R0?AVioAnnounceManager@@@8
	DD	FLAT:??_R3ioAnnounceManager@@8
rdata$r	ENDS
;	COMDAT ??_C@_00CNPNBAHC@?$AA@
CONST	SEGMENT
??_C@_00CNPNBAHC@?$AA@ DB 00H				; `string'
CONST	ENDS
;	COMDAT ??_7ioAnnounceManager@@6B@
CONST	SEGMENT
??_7ioAnnounceManager@@6B@ DD FLAT:??_R4ioAnnounceManager@@6B@ ; ioAnnounceManager::`vftable'
	DD	FLAT:??_EioAnnounceManager@@UAEPAXI@Z
CONST	ENDS
;	COMDAT xdata$x
xdata$x	SEGMENT
__ehfuncinfo$??0ioAnnounceManager@@QAE@XZ DD 019930522H
	DD	09H
	DD	FLAT:__unwindtable$??0ioAnnounceManager@@QAE@XZ
	DD	2 DUP(00H)
	DD	2 DUP(00H)
	DD	00H
	DD	01H
__unwindtable$??0ioAnnounceManager@@QAE@XZ DD 0ffffffffH
	DD	FLAT:__unwindfunclet$??0ioAnnounceManager@@QAE@XZ$0
	DD	00H
	DD	FLAT:__unwindfunclet$??0ioAnnounceManager@@QAE@XZ$1
	DD	01H
	DD	FLAT:__unwindfunclet$??0ioAnnounceManager@@QAE@XZ$2
	DD	02H
	DD	FLAT:__unwindfunclet$??0ioAnnounceManager@@QAE@XZ$3
	DD	03H
	DD	FLAT:__unwindfunclet$??0ioAnnounceManager@@QAE@XZ$4
	DD	04H
	DD	FLAT:__unwindfunclet$??0ioAnnounceManager@@QAE@XZ$5
	DD	05H
	DD	FLAT:__unwindfunclet$??0ioAnnounceManager@@QAE@XZ$6
	DD	06H
	DD	FLAT:__unwindfunclet$??0ioAnnounceManager@@QAE@XZ$7
	DD	07H
	DD	FLAT:__unwindfunclet$??0ioAnnounceManager@@QAE@XZ$8
; Function compile flags: /Ogsp
xdata$x	ENDS
;	COMDAT ??0ioAnnounceManager@@QAE@XZ
_TEXT	SEGMENT
_this$GSCopy$ = -1228					; size = 4
$T509667 = -1224					; size = 4
$T509670 = -1224					; size = 4
_kLoader$ = -1220					; size = 912
_szBuf$ = -308						; size = 260
__k$510675 = -48					; size = 26
__k$510550 = -48					; size = 23
__t$509925 = -40					; size = 16
__k$510425 = -36					; size = 12
__k$510300 = -36					; size = 11
__k$510207 = -32					; size = 8
__k$510063 = -32					; size = 7
__$EHRec$ = -12						; size = 12
??0ioAnnounceManager@@QAE@XZ PROC			; ioAnnounceManager::ioAnnounceManager, COMDAT
; _this$ = ecx

; 11   : {

  00000	68 c0 04 00 00	 push	 1216			; 000004c0H
  00005	b8 00 00 00 00	 mov	 eax, __ehhandler$??0ioAnnounceManager@@QAE@XZ
  0000a	e8 00 00 00 00	 call	 __EH_prolog3_GS
  0000f	8b f9		 mov	 edi, ecx
  00011	8d 4f 04	 lea	 ecx, DWORD PTR [edi+4]
  00014	8d 41 fc	 lea	 eax, DWORD PTR [ecx-4]
  00017	89 bd 34 fb ff
	ff		 mov	 DWORD PTR _this$GSCopy$[ebp], edi
  0001d	a3 00 00 00 00	 mov	 DWORD PTR ?ms_Singleton@?$Singleton@VioAnnounceManager@@@@1PAVioAnnounceManager@@A, eax ; Singleton<ioAnnounceManager>::ms_Singleton
  00022	83 65 fc 00	 and	 DWORD PTR __$EHRec$[ebp+8], 0
  00026	51		 push	 ecx
  00027	89 a5 38 fb ff
	ff		 mov	 DWORD PTR $T509670[ebp], esp
  0002d	c7 07 00 00 00
	00		 mov	 DWORD PTR [edi], OFFSET ??_7ioAnnounceManager@@6B@
  00033	89 a5 38 fb ff
	ff		 mov	 DWORD PTR $T509667[ebp], esp
  00039	e8 00 00 00 00	 call	 ??0?$_List_val@PAVioAnnounce@@V?$allocator@PAVioAnnounce@@@std@@@std@@QAE@V?$allocator@PAVioAnnounce@@@1@@Z ; std::_List_val<ioAnnounce *,std::allocator<ioAnnounce *> >::_List_val<ioAnnounce *,std::allocator<ioAnnounce *> >
  0003e	8b 35 00 00 00
	00		 mov	 esi, DWORD PTR __imp_??0ioHashString@@QAE@XZ
  00044	8d 4f 14	 lea	 ecx, DWORD PTR [edi+20]
  00047	c6 45 fc 01	 mov	 BYTE PTR __$EHRec$[ebp+8], 1
  0004b	ff d6		 call	 esi
  0004d	8d 4f 24	 lea	 ecx, DWORD PTR [edi+36]
  00050	c6 45 fc 02	 mov	 BYTE PTR __$EHRec$[ebp+8], 2
  00054	ff d6		 call	 esi
  00056	8d 4f 34	 lea	 ecx, DWORD PTR [edi+52]
  00059	c6 45 fc 03	 mov	 BYTE PTR __$EHRec$[ebp+8], 3
  0005d	ff d6		 call	 esi
  0005f	8d 4f 44	 lea	 ecx, DWORD PTR [edi+68]
  00062	c6 45 fc 04	 mov	 BYTE PTR __$EHRec$[ebp+8], 4
  00066	ff d6		 call	 esi
  00068	8d 4f 54	 lea	 ecx, DWORD PTR [edi+84]
  0006b	c6 45 fc 05	 mov	 BYTE PTR __$EHRec$[ebp+8], 5
  0006f	ff d6		 call	 esi
  00071	8d 4f 64	 lea	 ecx, DWORD PTR [edi+100]
  00074	c6 45 fc 06	 mov	 BYTE PTR __$EHRec$[ebp+8], 6
  00078	ff d6		 call	 esi

; 12   : 	m_dwAnnounceInterval = 4000;
; 13   : 
; 14   : 	char szBuf[MAX_PATH];
; 15   : 	ioINILoader_e kLoader( "config/sp2_sound.ini" );

  0007a	6a 05		 push	 5
  0007c	c6 45 fc 07	 mov	 BYTE PTR __$EHRec$[ebp+8], 7
  00080	c7 47 10 a0 0f
	00 00		 mov	 DWORD PTR [edi+16], 4000 ; 00000fa0H
  00087	c7 85 8c fe ff
	ff 8e 83 85 8c	 mov	 DWORD PTR _kLoader$[ebp+848], -1937407090 ; 8c85838eH
  00091	c7 85 90 fe ff
	ff 84 8b c4 99	 mov	 DWORD PTR _kLoader$[ebp+852], -1715172476 ; 99c48b84H
  0009b	c7 85 94 fe ff
	ff 9d de b4 99	 mov	 DWORD PTR _kLoader$[ebp+856], -1716199779 ; 99b4de9dH
  000a5	c7 85 98 fe ff
	ff 82 99 85 8e	 mov	 DWORD PTR _kLoader$[ebp+860], -1903847038 ; 8e859982H
  000af	c7 85 9c fe ff
	ff c3 85 85 83	 mov	 DWORD PTR _kLoader$[ebp+864], -2088401469 ; 838585c3H
  000b9	8d 85 8c fe ff
	ff		 lea	 eax, DWORD PTR _kLoader$[ebp+848]
  000bf	c6 85 a0 fe ff
	ff 00		 mov	 BYTE PTR _kLoader$[ebp+868], 0
  000c6	59		 pop	 ecx
$LL127@ioAnnounce:
  000c7	81 30 ed ec eb
	ea		 xor	 DWORD PTR [eax], -353637139 ; eaebecedH
  000cd	83 c0 04	 add	 eax, 4
  000d0	49		 dec	 ecx
  000d1	75 f4		 jne	 SHORT $LL127@ioAnnounce
  000d3	6a 01		 push	 1
  000d5	8d 85 8c fe ff
	ff		 lea	 eax, DWORD PTR _kLoader$[ebp+848]
  000db	50		 push	 eax
  000dc	8d 8d 3c fb ff
	ff		 lea	 ecx, DWORD PTR _kLoader$[ebp]
  000e2	ff 15 00 00 00
	00		 call	 DWORD PTR __imp_??0ioINILoader@@QAE@PBD_N@Z
  000e8	6a 03		 push	 3
  000ea	c6 45 fc 08	 mov	 BYTE PTR __$EHRec$[ebp+8], 8

; 16   : 	kLoader.SetTitle_e( "sound_file_name" );

  000ee	c7 45 d8 9e 83
	9e 84		 mov	 DWORD PTR __t$509925[ebp], -2069986402 ; 849e839eH
  000f5	c7 45 dc 89 b3
	8d 83		 mov	 DWORD PTR __t$509925[ebp+4], -2087865463 ; 838db389H
  000fc	c7 45 e0 81 89
	b4 84		 mov	 DWORD PTR __t$509925[ebp+8], -2068543103 ; 84b48981H
  00103	8d 45 d8	 lea	 eax, DWORD PTR __t$509925[ebp]
  00106	c7 45 e4 8c 81
	8e 00		 mov	 DWORD PTR __t$509925[ebp+12], 9339276 ; 008e818cH
  0010d	59		 pop	 ecx
$LL233@ioAnnounce:
  0010e	81 30 ed ec eb
	ea		 xor	 DWORD PTR [eax], -353637139 ; eaebecedH
  00114	83 c0 04	 add	 eax, 4
  00117	49		 dec	 ecx
  00118	75 f4		 jne	 SHORT $LL233@ioAnnounce
  0011a	6a 0c		 push	 12			; 0000000cH
  0011c	5e		 pop	 esi
$LL230@ioAnnounce:
  0011d	8b c6		 mov	 eax, esi
  0011f	25 03 00 00 80	 and	 eax, -2147483645	; 80000003H
  00124	79 05		 jns	 SHORT $LN908@ioAnnounce
  00126	48		 dec	 eax
  00127	83 c8 fc	 or	 eax, -4			; fffffffcH
  0012a	40		 inc	 eax
$LN908@ioAnnounce:
  0012b	b1 ed		 mov	 cl, -19			; ffffffedH
  0012d	2a c8		 sub	 cl, al
  0012f	30 4c 35 d8	 xor	 BYTE PTR __t$509925[ebp+esi], cl
  00133	46		 inc	 esi
  00134	83 fe 0f	 cmp	 esi, 15			; 0000000fH
  00137	7c e4		 jl	 SHORT $LL230@ioAnnounce
  00139	8d 45 d8	 lea	 eax, DWORD PTR __t$509925[ebp]
  0013c	50		 push	 eax
  0013d	8d 8d 3c fb ff
	ff		 lea	 ecx, DWORD PTR _kLoader$[ebp]
  00143	ff 15 00 00 00
	00		 call	 DWORD PTR __imp_?SetTitle@ioINILoader@@QAEXPBD@Z

; 17   : 
; 18   : 	kLoader.LoadString_e( "reload", "", szBuf, MAX_PATH );

  00149	6a 04		 push	 4
  0014b	c7 45 e0 9f 89
	87 85		 mov	 DWORD PTR __k$510063[ebp], -2054714977 ; 8587899fH
  00152	81 75 e0 ed ec
	eb ea		 xor	 DWORD PTR __k$510063[ebp], -353637139 ; eaebecedH
  00159	66 c7 45 e4 8c
	88		 mov	 WORD PTR __k$510063[ebp+4], 34956 ; 0000888cH
  0015f	c6 45 e6 00	 mov	 BYTE PTR __k$510063[ebp+6], 0
  00163	5e		 pop	 esi
$LL336@ioAnnounce:
  00164	8b c6		 mov	 eax, esi
  00166	25 03 00 00 80	 and	 eax, -2147483645	; 80000003H
  0016b	79 05		 jns	 SHORT $LN909@ioAnnounce
  0016d	48		 dec	 eax
  0016e	83 c8 fc	 or	 eax, -4			; fffffffcH
  00171	40		 inc	 eax
$LN909@ioAnnounce:
  00172	b1 ed		 mov	 cl, -19			; ffffffedH
  00174	2a c8		 sub	 cl, al
  00176	30 4c 35 e0	 xor	 BYTE PTR __k$510063[ebp+esi], cl
  0017a	46		 inc	 esi
  0017b	83 fe 06	 cmp	 esi, 6
  0017e	7c e4		 jl	 SHORT $LL336@ioAnnounce
  00180	8b 35 00 00 00
	00		 mov	 esi, DWORD PTR __imp_?LoadStringA@ioINILoader@@QAEXPBD0PADH@Z
  00186	68 04 01 00 00	 push	 260			; 00000104H
  0018b	8d 85 cc fe ff
	ff		 lea	 eax, DWORD PTR _szBuf$[ebp]
  00191	50		 push	 eax
  00192	68 00 00 00 00	 push	 OFFSET ??_C@_00CNPNBAHC@?$AA@
  00197	8d 45 e0	 lea	 eax, DWORD PTR __k$510063[ebp]
  0019a	50		 push	 eax
  0019b	8d 8d 3c fb ff
	ff		 lea	 ecx, DWORD PTR _kLoader$[ebp]
  001a1	ff d6		 call	 esi

; 19   : 	m_ReLoadSound = szBuf;

  001a3	8b 1d 00 00 00
	00		 mov	 ebx, DWORD PTR __imp_??4ioHashString@@QAEAAV0@PBD@Z
  001a9	8d 85 cc fe ff
	ff		 lea	 eax, DWORD PTR _szBuf$[ebp]
  001af	50		 push	 eax
  001b0	8d 4f 14	 lea	 ecx, DWORD PTR [edi+20]
  001b3	ff d3		 call	 ebx

; 20   : 
; 21   : 	kLoader.LoadString_e( "need_mp", "", szBuf, MAX_PATH );

  001b5	6a 04		 push	 4
  001b7	c7 45 e0 83 89
	8e 8e		 mov	 DWORD PTR __k$510207[ebp], -1903261309 ; 8e8e8983H
  001be	81 75 e0 ed ec
	eb ea		 xor	 DWORD PTR __k$510207[ebp], -353637139 ; eaebecedH
  001c5	c7 45 e4 b2 81
	9b 00		 mov	 DWORD PTR __k$510207[ebp+4], 10191282 ; 009b81b2H
  001cc	58		 pop	 eax
$LL442@ioAnnounce:
  001cd	8b c8		 mov	 ecx, eax
  001cf	81 e1 03 00 00
	80		 and	 ecx, -2147483645	; 80000003H
  001d5	79 05		 jns	 SHORT $LN910@ioAnnounce
  001d7	49		 dec	 ecx
  001d8	83 c9 fc	 or	 ecx, -4			; fffffffcH
  001db	41		 inc	 ecx
$LN910@ioAnnounce:
  001dc	b2 ed		 mov	 dl, -19			; ffffffedH
  001de	2a d1		 sub	 dl, cl
  001e0	30 54 05 e0	 xor	 BYTE PTR __k$510207[ebp+eax], dl
  001e4	40		 inc	 eax
  001e5	83 f8 07	 cmp	 eax, 7
  001e8	7c e3		 jl	 SHORT $LL442@ioAnnounce
  001ea	68 04 01 00 00	 push	 260			; 00000104H
  001ef	8d 85 cc fe ff
	ff		 lea	 eax, DWORD PTR _szBuf$[ebp]
  001f5	50		 push	 eax
  001f6	68 00 00 00 00	 push	 OFFSET ??_C@_00CNPNBAHC@?$AA@
  001fb	8d 45 e0	 lea	 eax, DWORD PTR __k$510207[ebp]
  001fe	50		 push	 eax
  001ff	8d 8d 3c fb ff
	ff		 lea	 ecx, DWORD PTR _kLoader$[ebp]
  00205	ff d6		 call	 esi

; 22   : 	m_NeedMPSound = szBuf;

  00207	8d 85 cc fe ff
	ff		 lea	 eax, DWORD PTR _szBuf$[ebp]
  0020d	50		 push	 eax
  0020e	8d 4f 24	 lea	 ecx, DWORD PTR [edi+36]
  00211	ff d3		 call	 ebx
  00213	6a 02		 push	 2

; 23   : 
; 24   : 	kLoader.LoadString_e( "time_limit", "", szBuf, MAX_PATH );

  00215	c7 45 dc 99 85
	86 8f		 mov	 DWORD PTR __k$510300[ebp], -1887009383 ; 8f868599H
  0021c	c7 45 e0 b2 80
	82 87		 mov	 DWORD PTR __k$510300[ebp+4], -2021490510 ; 878280b2H
  00223	66 c7 45 e4 84
	98		 mov	 WORD PTR __k$510300[ebp+8], 39044 ; 00009884H
  00229	8d 45 dc	 lea	 eax, DWORD PTR __k$510300[ebp]
  0022c	c6 45 e6 00	 mov	 BYTE PTR __k$510300[ebp+10], 0
  00230	59		 pop	 ecx
$LL551@ioAnnounce:
  00231	81 30 ed ec eb
	ea		 xor	 DWORD PTR [eax], -353637139 ; eaebecedH
  00237	83 c0 04	 add	 eax, 4
  0023a	49		 dec	 ecx
  0023b	75 f4		 jne	 SHORT $LL551@ioAnnounce
  0023d	6a 08		 push	 8
  0023f	58		 pop	 eax
$LL548@ioAnnounce:
  00240	8b c8		 mov	 ecx, eax
  00242	81 e1 03 00 00
	80		 and	 ecx, -2147483645	; 80000003H
  00248	79 05		 jns	 SHORT $LN911@ioAnnounce
  0024a	49		 dec	 ecx
  0024b	83 c9 fc	 or	 ecx, -4			; fffffffcH
  0024e	41		 inc	 ecx
$LN911@ioAnnounce:
  0024f	b2 ed		 mov	 dl, -19			; ffffffedH
  00251	2a d1		 sub	 dl, cl
  00253	30 54 05 dc	 xor	 BYTE PTR __k$510300[ebp+eax], dl
  00257	40		 inc	 eax
  00258	83 f8 0a	 cmp	 eax, 10			; 0000000aH
  0025b	7c e3		 jl	 SHORT $LL548@ioAnnounce
  0025d	68 04 01 00 00	 push	 260			; 00000104H
  00262	8d 85 cc fe ff
	ff		 lea	 eax, DWORD PTR _szBuf$[ebp]
  00268	50		 push	 eax
  00269	68 00 00 00 00	 push	 OFFSET ??_C@_00CNPNBAHC@?$AA@
  0026e	8d 45 dc	 lea	 eax, DWORD PTR __k$510300[ebp]
  00271	50		 push	 eax
  00272	8d 8d 3c fb ff
	ff		 lea	 ecx, DWORD PTR _kLoader$[ebp]
  00278	ff d6		 call	 esi

; 25   : 	m_TimeLimitSound = szBuf;

  0027a	8d 85 cc fe ff
	ff		 lea	 eax, DWORD PTR _szBuf$[ebp]
  00280	50		 push	 eax
  00281	8d 4f 34	 lea	 ecx, DWORD PTR [edi+52]
  00284	ff d3		 call	 ebx
  00286	6a 02		 push	 2

; 26   : 
; 27   : 	kLoader.LoadString_e( "item_supply", "", szBuf, MAX_PATH );

  00288	c7 45 dc 84 98
	8e 87		 mov	 DWORD PTR __k$510425[ebp], -2020697980 ; 878e9884H
  0028f	c7 45 e0 b2 9f
	9e 9a		 mov	 DWORD PTR __k$510425[ebp+4], -1700880462 ; 9a9e9fb2H
  00296	8d 45 dc	 lea	 eax, DWORD PTR __k$510425[ebp]
  00299	c7 45 e4 9d 80
	92 00		 mov	 DWORD PTR __k$510425[ebp+8], 9601181 ; 0092809dH
  002a0	59		 pop	 ecx
$LL657@ioAnnounce:
  002a1	81 30 ed ec eb
	ea		 xor	 DWORD PTR [eax], -353637139 ; eaebecedH
  002a7	83 c0 04	 add	 eax, 4
  002aa	49		 dec	 ecx
  002ab	75 f4		 jne	 SHORT $LL657@ioAnnounce
  002ad	6a 08		 push	 8
  002af	58		 pop	 eax
$LL654@ioAnnounce:
  002b0	8b c8		 mov	 ecx, eax
  002b2	81 e1 03 00 00
	80		 and	 ecx, -2147483645	; 80000003H
  002b8	79 05		 jns	 SHORT $LN912@ioAnnounce
  002ba	49		 dec	 ecx
  002bb	83 c9 fc	 or	 ecx, -4			; fffffffcH
  002be	41		 inc	 ecx
$LN912@ioAnnounce:
  002bf	b2 ed		 mov	 dl, -19			; ffffffedH
  002c1	2a d1		 sub	 dl, cl
  002c3	30 54 05 dc	 xor	 BYTE PTR __k$510425[ebp+eax], dl
  002c7	40		 inc	 eax
  002c8	83 f8 0b	 cmp	 eax, 11			; 0000000bH
  002cb	7c e3		 jl	 SHORT $LL654@ioAnnounce
  002cd	68 04 01 00 00	 push	 260			; 00000104H
  002d2	8d 85 cc fe ff
	ff		 lea	 eax, DWORD PTR _szBuf$[ebp]
  002d8	50		 push	 eax
  002d9	68 00 00 00 00	 push	 OFFSET ??_C@_00CNPNBAHC@?$AA@
  002de	8d 45 dc	 lea	 eax, DWORD PTR __k$510425[ebp]
  002e1	50		 push	 eax
  002e2	8d 8d 3c fb ff
	ff		 lea	 ecx, DWORD PTR _kLoader$[ebp]
  002e8	ff d6		 call	 esi

; 28   : 	m_ItemSupplySound = szBuf;

  002ea	8d 85 cc fe ff
	ff		 lea	 eax, DWORD PTR _szBuf$[ebp]
  002f0	50		 push	 eax
  002f1	8d 4f 44	 lea	 ecx, DWORD PTR [edi+68]
  002f4	ff d3		 call	 ebx
  002f6	6a 05		 push	 5

; 29   : 
; 30   : 	kLoader.LoadString_e( "symbol_defense_my_team", "", szBuf, MAX_PATH );

  002f8	c7 45 d0 9e 95
	86 88		 mov	 DWORD PTR __k$510550[ebp], -2004445794 ; 8886959eH
  002ff	c7 45 d4 82 80
	b4 8e		 mov	 DWORD PTR __k$510550[ebp+4], -1900773246 ; 8eb48082H
  00306	c7 45 d8 88 8a
	8e 84		 mov	 DWORD PTR __k$510550[ebp+8], -2071033208 ; 848e8a88H
  0030d	c7 45 dc 9e 89
	b4 87		 mov	 DWORD PTR __k$510550[ebp+12], -2018211426 ; 87b4899eH
  00314	c7 45 e0 94 b3
	9f 8f		 mov	 DWORD PTR __k$510550[ebp+16], -1885359212 ; 8f9fb394H
  0031b	66 c7 45 e4 8c
	81		 mov	 WORD PTR __k$510550[ebp+20], 33164 ; 0000818cH
  00321	8d 45 d0	 lea	 eax, DWORD PTR __k$510550[ebp]
  00324	c6 45 e6 00	 mov	 BYTE PTR __k$510550[ebp+22], 0
  00328	59		 pop	 ecx
$LL763@ioAnnounce:
  00329	81 30 ed ec eb
	ea		 xor	 DWORD PTR [eax], -353637139 ; eaebecedH
  0032f	83 c0 04	 add	 eax, 4
  00332	49		 dec	 ecx
  00333	75 f4		 jne	 SHORT $LL763@ioAnnounce
  00335	6a 14		 push	 20			; 00000014H
  00337	58		 pop	 eax
$LL760@ioAnnounce:
  00338	8b c8		 mov	 ecx, eax
  0033a	81 e1 03 00 00
	80		 and	 ecx, -2147483645	; 80000003H
  00340	79 05		 jns	 SHORT $LN913@ioAnnounce
  00342	49		 dec	 ecx
  00343	83 c9 fc	 or	 ecx, -4			; fffffffcH
  00346	41		 inc	 ecx
$LN913@ioAnnounce:
  00347	b2 ed		 mov	 dl, -19			; ffffffedH
  00349	2a d1		 sub	 dl, cl
  0034b	30 54 05 d0	 xor	 BYTE PTR __k$510550[ebp+eax], dl
  0034f	40		 inc	 eax
  00350	83 f8 16	 cmp	 eax, 22			; 00000016H
  00353	7c e3		 jl	 SHORT $LL760@ioAnnounce
  00355	68 04 01 00 00	 push	 260			; 00000104H
  0035a	8d 85 cc fe ff
	ff		 lea	 eax, DWORD PTR _szBuf$[ebp]
  00360	50		 push	 eax
  00361	68 00 00 00 00	 push	 OFFSET ??_C@_00CNPNBAHC@?$AA@
  00366	8d 45 d0	 lea	 eax, DWORD PTR __k$510550[ebp]
  00369	50		 push	 eax
  0036a	8d 8d 3c fb ff
	ff		 lea	 ecx, DWORD PTR _kLoader$[ebp]
  00370	ff d6		 call	 esi

; 31   : 	m_SymbolDefenseMySound = szBuf;

  00372	8d 85 cc fe ff
	ff		 lea	 eax, DWORD PTR _szBuf$[ebp]
  00378	50		 push	 eax
  00379	8d 4f 54	 lea	 ecx, DWORD PTR [edi+84]
  0037c	ff d3		 call	 ebx
  0037e	6a 06		 push	 6

; 32   : 
; 33   : 	kLoader.LoadString_e( "symbol_defense_other_team", "", szBuf, MAX_PATH );

  00380	c7 45 d0 9e 95
	86 88		 mov	 DWORD PTR __k$510675[ebp], -2004445794 ; 8886959eH
  00387	c7 45 d4 82 80
	b4 8e		 mov	 DWORD PTR __k$510675[ebp+4], -1900773246 ; 8eb48082H
  0038e	c7 45 d8 88 8a
	8e 84		 mov	 DWORD PTR __k$510675[ebp+8], -2071033208 ; 848e8a88H
  00395	c7 45 dc 9e 89
	b4 85		 mov	 DWORD PTR __k$510675[ebp+12], -2051765858 ; 85b4899eH
  0039c	c7 45 e0 99 84
	8e 98		 mov	 DWORD PTR __k$510675[ebp+16], -1735490407 ; 988e8499H
  003a3	c7 45 e4 b2 98
	8e 8b		 mov	 DWORD PTR __k$510675[ebp+20], -1953589070 ; 8b8e98b2H
  003aa	8d 45 d0	 lea	 eax, DWORD PTR __k$510675[ebp]
  003ad	66 c7 45 e8 80
	00		 mov	 WORD PTR __k$510675[ebp+24], 128 ; 00000080H
  003b3	59		 pop	 ecx
$LL869@ioAnnounce:
  003b4	81 30 ed ec eb
	ea		 xor	 DWORD PTR [eax], -353637139 ; eaebecedH
  003ba	83 c0 04	 add	 eax, 4
  003bd	49		 dec	 ecx
  003be	75 f4		 jne	 SHORT $LL869@ioAnnounce
  003c0	80 75 e8 ed	 xor	 BYTE PTR __k$510675[ebp+24], -19 ; ffffffedH
  003c4	68 04 01 00 00	 push	 260			; 00000104H
  003c9	8d 85 cc fe ff
	ff		 lea	 eax, DWORD PTR _szBuf$[ebp]
  003cf	50		 push	 eax
  003d0	68 00 00 00 00	 push	 OFFSET ??_C@_00CNPNBAHC@?$AA@
  003d5	8d 45 d0	 lea	 eax, DWORD PTR __k$510675[ebp]
  003d8	50		 push	 eax
  003d9	8d 8d 3c fb ff
	ff		 lea	 ecx, DWORD PTR _kLoader$[ebp]
  003df	ff d6		 call	 esi

; 34   : 	m_SymbolDefenseOtherSound = szBuf;

  003e1	8d 85 cc fe ff
	ff		 lea	 eax, DWORD PTR _szBuf$[ebp]
  003e7	50		 push	 eax
  003e8	8d 4f 64	 lea	 ecx, DWORD PTR [edi+100]
  003eb	ff d3		 call	 ebx

; 35   : }

  003ed	8d 8d 3c fb ff
	ff		 lea	 ecx, DWORD PTR _kLoader$[ebp]
  003f3	c6 45 fc 07	 mov	 BYTE PTR __$EHRec$[ebp+8], 7
  003f7	ff 15 00 00 00
	00		 call	 DWORD PTR __imp_??1ioINILoader@@QAE@XZ
  003fd	8b c7		 mov	 eax, edi
  003ff	e8 00 00 00 00	 call	 __EH_epilog3_GS
  00404	c3		 ret	 0
_TEXT	ENDS
;	COMDAT text$x
text$x	SEGMENT
__unwindfunclet$??0ioAnnounceManager@@QAE@XZ$0:
  00000	8b 8d 34 fb ff
	ff		 mov	 ecx, DWORD PTR _this$GSCopy$[ebp]
  00006	83 c1 04	 add	 ecx, 4
  00009	e9 00 00 00 00	 jmp	 ??1?$Singleton@VioAnnounceManager@@@@QAE@XZ ; Singleton<ioAnnounceManager>::~Singleton<ioAnnounceManager>
__unwindfunclet$??0ioAnnounceManager@@QAE@XZ$1:
  0000e	8b 8d 34 fb ff
	ff		 mov	 ecx, DWORD PTR _this$GSCopy$[ebp]
  00014	83 c1 04	 add	 ecx, 4
  00017	e9 00 00 00 00	 jmp	 ??1?$list@PAVioAnnounce@@V?$allocator@PAVioAnnounce@@@std@@@std@@QAE@XZ ; std::list<ioAnnounce *,std::allocator<ioAnnounce *> >::~list<ioAnnounce *,std::allocator<ioAnnounce *> >
__unwindfunclet$??0ioAnnounceManager@@QAE@XZ$2:
  0001c	8b 8d 34 fb ff
	ff		 mov	 ecx, DWORD PTR _this$GSCopy$[ebp]
  00022	83 c1 14	 add	 ecx, 20			; 00000014H
  00025	ff 25 00 00 00
	00		 jmp	 DWORD PTR __imp_??1ioHashString@@QAE@XZ
__unwindfunclet$??0ioAnnounceManager@@QAE@XZ$3:
  0002b	8b 8d 34 fb ff
	ff		 mov	 ecx, DWORD PTR _this$GSCopy$[ebp]
  00031	83 c1 24	 add	 ecx, 36			; 00000024H
  00034	ff 25 00 00 00
	00		 jmp	 DWORD PTR __imp_??1ioHashString@@QAE@XZ
__unwindfunclet$??0ioAnnounceManager@@QAE@XZ$4:
  0003a	8b 8d 34 fb ff
	ff		 mov	 ecx, DWORD PTR _this$GSCopy$[ebp]
  00040	83 c1 34	 add	 ecx, 52			; 00000034H
  00043	ff 25 00 00 00
	00		 jmp	 DWORD PTR __imp_??1ioHashString@@QAE@XZ
__unwindfunclet$??0ioAnnounceManager@@QAE@XZ$5:
  00049	8b 8d 34 fb ff
	ff		 mov	 ecx, DWORD PTR _this$GSCopy$[ebp]
  0004f	83 c1 44	 add	 ecx, 68			; 00000044H
  00052	ff 25 00 00 00
	00		 jmp	 DWORD PTR __imp_??1ioHashString@@QAE@XZ
__unwindfunclet$??0ioAnnounceManager@@QAE@XZ$6:
  00058	8b 8d 34 fb ff
	ff		 mov	 ecx, DWORD PTR _this$GSCopy$[ebp]
  0005e	83 c1 54	 add	 ecx, 84			; 00000054H
  00061	ff 25 00 00 00
	00		 jmp	 DWORD PTR __imp_??1ioHashString@@QAE@XZ
__unwindfunclet$??0ioAnnounceManager@@QAE@XZ$7:
  00067	8b 8d 34 fb ff
	ff		 mov	 ecx, DWORD PTR _this$GSCopy$[ebp]
  0006d	83 c1 64	 add	 ecx, 100		; 00000064H
  00070	ff 25 00 00 00
	00		 jmp	 DWORD PTR __imp_??1ioHashString@@QAE@XZ
__unwindfunclet$??0ioAnnounceManager@@QAE@XZ$8:
  00076	8d 8d 3c fb ff
	ff		 lea	 ecx, DWORD PTR _kLoader$[ebp]
  0007c	e9 00 00 00 00	 jmp	 ??1ioINILoader_e@@QAE@XZ
__ehhandler$??0ioAnnounceManager@@QAE@XZ:
  00081	8b 54 24 08	 mov	 edx, DWORD PTR [esp+8]
  00085	8d 42 0c	 lea	 eax, DWORD PTR [edx+12]
  00088	8b 8a 30 fb ff
	ff		 mov	 ecx, DWORD PTR [edx-1232]
  0008e	33 c8		 xor	 ecx, eax
  00090	e8 00 00 00 00	 call	 @__security_check_cookie@4
  00095	8b 4a fc	 mov	 ecx, DWORD PTR [edx-4]
  00098	33 c8		 xor	 ecx, eax
  0009a	e8 00 00 00 00	 call	 @__security_check_cookie@4
  0009f	b8 00 00 00 00	 mov	 eax, OFFSET __ehfuncinfo$??0ioAnnounceManager@@QAE@XZ
  000a4	e9 00 00 00 00	 jmp	 ___CxxFrameHandler3
text$x	ENDS
??0ioAnnounceManager@@QAE@XZ ENDP			; ioAnnounceManager::ioAnnounceManager
PUBLIC	?RenderAnnounce@ioAnnounceManager@@QAEXXZ	; ioAnnounceManager::RenderAnnounce
; Function compile flags: /Ogsp
;	COMDAT ?RenderAnnounce@ioAnnounceManager@@QAEXXZ
_TEXT	SEGMENT
?RenderAnnounce@ioAnnounceManager@@QAEXXZ PROC		; ioAnnounceManager::RenderAnnounce, COMDAT
; _this$ = ecx

; 69   : 	if( m_AnnounceList.empty() )	return;

  00000	83 79 08 00	 cmp	 DWORD PTR [ecx+8], 0
  00004	74 11		 je	 SHORT $LN1@RenderAnno

; 70   : 
; 71   : 	ioAnnounce *pFront = m_AnnounceList.front();

  00006	8b 41 04	 mov	 eax, DWORD PTR [ecx+4]
  00009	8b 00		 mov	 eax, DWORD PTR [eax]
  0000b	8b 48 08	 mov	 ecx, DWORD PTR [eax+8]

; 72   : 	if( pFront )

  0000e	85 c9		 test	 ecx, ecx
  00010	74 05		 je	 SHORT $LN1@RenderAnno

; 73   : 	{
; 74   : 		pFront->Render();

  00012	8b 01		 mov	 eax, DWORD PTR [ecx]
  00014	ff 60 08	 jmp	 DWORD PTR [eax+8]
$LN1@RenderAnno:

; 75   : 	}
; 76   : }

  00017	c3		 ret	 0
?RenderAnnounce@ioAnnounceManager@@QAEXXZ ENDP		; ioAnnounceManager::RenderAnnounce
_TEXT	ENDS
PUBLIC	?ClearAnnounceList@ioAnnounceManager@@QAEXXZ	; ioAnnounceManager::ClearAnnounceList
; Function compile flags: /Ogsp
;	COMDAT ?ClearAnnounceList@ioAnnounceManager@@QAEXXZ
_TEXT	SEGMENT
?ClearAnnounceList@ioAnnounceManager@@QAEXXZ PROC	; ioAnnounceManager::ClearAnnounceList, COMDAT
; _this$ = ecx

; 79   : {

  00000	56		 push	 esi
  00001	57		 push	 edi

; 80   : 	AnnounceList::iterator iter;
; 81   : 	for( iter=m_AnnounceList.begin() ; iter!=m_AnnounceList.end() ; ++iter )

  00002	8d 79 04	 lea	 edi, DWORD PTR [ecx+4]
  00005	8b 07		 mov	 eax, DWORD PTR [edi]
  00007	8b 30		 mov	 esi, DWORD PTR [eax]
  00009	3b f0		 cmp	 esi, eax
  0000b	74 14		 je	 SHORT $LN1@ClearAnnou
$LL28@ClearAnnou:

; 82   : 	{
; 83   : 		delete *iter;

  0000d	8b 4e 08	 mov	 ecx, DWORD PTR [esi+8]
  00010	85 c9		 test	 ecx, ecx
  00012	74 07		 je	 SHORT $LN2@ClearAnnou
  00014	8b 01		 mov	 eax, DWORD PTR [ecx]
  00016	6a 01		 push	 1
  00018	ff 50 0c	 call	 DWORD PTR [eax+12]
$LN2@ClearAnnou:

; 80   : 	AnnounceList::iterator iter;
; 81   : 	for( iter=m_AnnounceList.begin() ; iter!=m_AnnounceList.end() ; ++iter )

  0001b	8b 36		 mov	 esi, DWORD PTR [esi]
  0001d	3b 37		 cmp	 esi, DWORD PTR [edi]
  0001f	75 ec		 jne	 SHORT $LL28@ClearAnnou
$LN1@ClearAnnou:

; 84   : 	}
; 85   : 	
; 86   : 	m_AnnounceList.clear();

  00021	8b cf		 mov	 ecx, edi
  00023	5f		 pop	 edi
  00024	5e		 pop	 esi
  00025	e9 00 00 00 00	 jmp	 ?clear@?$list@PAVioAnnounce@@V?$allocator@PAVioAnnounce@@@std@@@std@@QAEXXZ ; std::list<ioAnnounce *,std::allocator<ioAnnounce *> >::clear
?ClearAnnounceList@ioAnnounceManager@@QAEXXZ ENDP	; ioAnnounceManager::ClearAnnounceList
_TEXT	ENDS
PUBLIC	?push_front@?$list@PAVioAnnounce@@V?$allocator@PAVioAnnounce@@@std@@@std@@QAEXABQAVioAnnounce@@@Z ; std::list<ioAnnounce *,std::allocator<ioAnnounce *> >::push_front
; Function compile flags: /Ogsp
; File c:\program files (x86)\microsoft visual studio 10.0\vc\include\list
;	COMDAT ?push_front@?$list@PAVioAnnounce@@V?$allocator@PAVioAnnounce@@@std@@@std@@QAEXABQAVioAnnounce@@@Z
_TEXT	SEGMENT
__Val$ = 8						; size = 4
?push_front@?$list@PAVioAnnounce@@V?$allocator@PAVioAnnounce@@@std@@@std@@QAEXABQAVioAnnounce@@@Z PROC ; std::list<ioAnnounce *,std::allocator<ioAnnounce *> >::push_front, COMDAT
; _this$ = ecx

; 916  : 		{	// insert element at beginning

  00000	55		 push	 ebp
  00001	8b ec		 mov	 ebp, esp

; 917  : 		_Insert(begin(), _Val);

  00003	8b 01		 mov	 eax, DWORD PTR [ecx]
  00005	ff 75 08	 push	 DWORD PTR __Val$[ebp]
  00008	8b 00		 mov	 eax, DWORD PTR [eax]
  0000a	50		 push	 eax
  0000b	e8 00 00 00 00	 call	 ?_Insert@?$list@PAVioAnnounce@@V?$allocator@PAVioAnnounce@@@std@@@std@@QAEXV?$_List_const_iterator@V?$_List_val@PAVioAnnounce@@V?$allocator@PAVioAnnounce@@@std@@@std@@@2@ABQAVioAnnounce@@@Z ; std::list<ioAnnounce *,std::allocator<ioAnnounce *> >::_Insert

; 918  : 		}

  00010	5d		 pop	 ebp
  00011	c2 04 00	 ret	 4
?push_front@?$list@PAVioAnnounce@@V?$allocator@PAVioAnnounce@@@std@@@std@@QAEXABQAVioAnnounce@@@Z ENDP ; std::list<ioAnnounce *,std::allocator<ioAnnounce *> >::push_front
_TEXT	ENDS
PUBLIC	?erase@?$list@PAVioAnnounce@@V?$allocator@PAVioAnnounce@@@std@@@std@@QAE?AV?$_List_iterator@V?$_List_val@PAVioAnnounce@@V?$allocator@PAVioAnnounce@@@std@@@std@@@2@V?$_List_const_iterator@V?$_List_val@PAVioAnnounce@@V?$allocator@PAVioAnnounce@@@std@@@std@@@2@@Z ; std::list<ioAnnounce *,std::allocator<ioAnnounce *> >::erase
; Function compile flags: /Ogsp
;	COMDAT ?erase@?$list@PAVioAnnounce@@V?$allocator@PAVioAnnounce@@@std@@@std@@QAE?AV?$_List_iterator@V?$_List_val@PAVioAnnounce@@V?$allocator@PAVioAnnounce@@@std@@@std@@@2@V?$_List_const_iterator@V?$_List_val@PAVioAnnounce@@V?$allocator@PAVioAnnounce@@@std@@@std@@@2@@Z
_TEXT	SEGMENT
___$ReturnUdt$ = 8					; size = 4
__Where$ = 12						; size = 4
?erase@?$list@PAVioAnnounce@@V?$allocator@PAVioAnnounce@@@std@@@std@@QAE?AV?$_List_iterator@V?$_List_val@PAVioAnnounce@@V?$allocator@PAVioAnnounce@@@std@@@std@@@2@V?$_List_const_iterator@V?$_List_val@PAVioAnnounce@@V?$allocator@PAVioAnnounce@@@std@@@std@@@2@@Z PROC ; std::list<ioAnnounce *,std::allocator<ioAnnounce *> >::erase, COMDAT
; _this$ = ecx

; 1054 : 		{	// erase element at _Where

  00000	55		 push	 ebp
  00001	8b ec		 mov	 ebp, esp

; 1055 :  #if _ITERATOR_DEBUG_LEVEL == 2
; 1056 : 		if (_Where._Getcont() != this || _Where._Ptr == this->_Myhead)
; 1057 : 			_DEBUG_ERROR("list erase iterator outside range");
; 1058 : 		_Nodeptr _Pnode = (_Where++)._Mynode();
; 1059 : 		_Orphan_ptr(*this, _Pnode);
; 1060 : 
; 1061 :  #else /* _ITERATOR_DEBUG_LEVEL == 2 */
; 1062 : 		_Nodeptr _Pnode = (_Where++)._Mynode();

  00003	8b 45 0c	 mov	 eax, DWORD PTR __Where$[ebp]
  00006	56		 push	 esi
  00007	8b f1		 mov	 esi, ecx
  00009	8b 08		 mov	 ecx, DWORD PTR [eax]
  0000b	89 4d 0c	 mov	 DWORD PTR __Where$[ebp], ecx

; 1063 :  #endif /* _ITERATOR_DEBUG_LEVEL == 2 */
; 1064 : 
; 1065 : 		if (_Pnode != this->_Myhead)

  0000e	3b 06		 cmp	 eax, DWORD PTR [esi]
  00010	74 19		 je	 SHORT $LN1@erase

; 1066 : 			{	// not list head, safe to erase
; 1067 : 			this->_Nextnode(this->_Prevnode(_Pnode)) =
; 1068 : 				this->_Nextnode(_Pnode);

  00012	8b 48 04	 mov	 ecx, DWORD PTR [eax+4]
  00015	8b 10		 mov	 edx, DWORD PTR [eax]
  00017	89 11		 mov	 DWORD PTR [ecx], edx

; 1069 : 			this->_Prevnode(this->_Nextnode(_Pnode)) =
; 1070 : 				this->_Prevnode(_Pnode);

  00019	8b 08		 mov	 ecx, DWORD PTR [eax]
  0001b	8b 50 04	 mov	 edx, DWORD PTR [eax+4]

; 1071 : 
; 1072 : 			_Dest_val(this->_Alnod, _Pnode);
; 1073 : 			this->_Alnod.deallocate(_Pnode, 1);

  0001e	50		 push	 eax
  0001f	89 51 04	 mov	 DWORD PTR [ecx+4], edx
  00022	e8 00 00 00 00	 call	 ??3@YAXPAX@Z		; operator delete

; 1074 : 
; 1075 : 			--this->_Mysize;

  00027	ff 4e 04	 dec	 DWORD PTR [esi+4]
  0002a	59		 pop	 ecx
$LN1@erase:

; 1076 : 			}
; 1077 : 		return (_Make_iter(_Where));

  0002b	8b 45 08	 mov	 eax, DWORD PTR ___$ReturnUdt$[ebp]
  0002e	8b 4d 0c	 mov	 ecx, DWORD PTR __Where$[ebp]
  00031	89 08		 mov	 DWORD PTR [eax], ecx
  00033	5e		 pop	 esi

; 1078 : 		}

  00034	5d		 pop	 ebp
  00035	c2 08 00	 ret	 8
?erase@?$list@PAVioAnnounce@@V?$allocator@PAVioAnnounce@@@std@@@std@@QAE?AV?$_List_iterator@V?$_List_val@PAVioAnnounce@@V?$allocator@PAVioAnnounce@@@std@@@std@@@2@V?$_List_const_iterator@V?$_List_val@PAVioAnnounce@@V?$allocator@PAVioAnnounce@@@std@@@std@@@2@@Z ENDP ; std::list<ioAnnounce *,std::allocator<ioAnnounce *> >::erase
_TEXT	ENDS
PUBLIC	?erase@?$list@PAVioAnnounce@@V?$allocator@PAVioAnnounce@@@std@@@std@@QAE?AV?$_List_iterator@V?$_List_val@PAVioAnnounce@@V?$allocator@PAVioAnnounce@@@std@@@std@@@2@V?$_List_const_iterator@V?$_List_val@PAVioAnnounce@@V?$allocator@PAVioAnnounce@@@std@@@std@@@2@0@Z ; std::list<ioAnnounce *,std::allocator<ioAnnounce *> >::erase
; Function compile flags: /Ogsp
;	COMDAT ?erase@?$list@PAVioAnnounce@@V?$allocator@PAVioAnnounce@@@std@@@std@@QAE?AV?$_List_iterator@V?$_List_val@PAVioAnnounce@@V?$allocator@PAVioAnnounce@@@std@@@std@@@2@V?$_List_const_iterator@V?$_List_val@PAVioAnnounce@@V?$allocator@PAVioAnnounce@@@std@@@std@@@2@0@Z
_TEXT	SEGMENT
$T511212 = -4						; size = 4
___$ReturnUdt$ = 8					; size = 4
__First$ = 12						; size = 4
__Last$ = 16						; size = 4
?erase@?$list@PAVioAnnounce@@V?$allocator@PAVioAnnounce@@@std@@@std@@QAE?AV?$_List_iterator@V?$_List_val@PAVioAnnounce@@V?$allocator@PAVioAnnounce@@@std@@@std@@@2@V?$_List_const_iterator@V?$_List_val@PAVioAnnounce@@V?$allocator@PAVioAnnounce@@@std@@@std@@@2@0@Z PROC ; std::list<ioAnnounce *,std::allocator<ioAnnounce *> >::erase, COMDAT
; _this$ = ecx

; 1081 : 		{	// erase [_First, _Last)

  00000	55		 push	 ebp
  00001	8b ec		 mov	 ebp, esp
  00003	51		 push	 ecx

; 1082 : 		if (_First == begin() && _Last == end())

  00004	8b 45 0c	 mov	 eax, DWORD PTR __First$[ebp]
  00007	56		 push	 esi
  00008	8b f1		 mov	 esi, ecx
  0000a	8b 0e		 mov	 ecx, DWORD PTR [esi]
  0000c	3b 01		 cmp	 eax, DWORD PTR [ecx]
  0000e	75 21		 jne	 SHORT $LN60@erase@2
  00010	39 4d 10	 cmp	 DWORD PTR __Last$[ebp], ecx
  00013	75 1c		 jne	 SHORT $LN60@erase@2

; 1083 : 			{	// erase all and return fresh iterator
; 1084 : 			clear();

  00015	8b ce		 mov	 ecx, esi
  00017	e8 00 00 00 00	 call	 ?clear@?$list@PAVioAnnounce@@V?$allocator@PAVioAnnounce@@@std@@@std@@QAEXXZ ; std::list<ioAnnounce *,std::allocator<ioAnnounce *> >::clear

; 1085 : 			return (end());

  0001c	8b 0e		 mov	 ecx, DWORD PTR [esi]
  0001e	eb 19		 jmp	 SHORT $LN59@erase@2
$LL2@erase@2:

; 1090 : 				_First = erase(_First);

  00020	50		 push	 eax
  00021	8d 45 fc	 lea	 eax, DWORD PTR $T511212[ebp]
  00024	50		 push	 eax
  00025	8b ce		 mov	 ecx, esi
  00027	e8 00 00 00 00	 call	 ?erase@?$list@PAVioAnnounce@@V?$allocator@PAVioAnnounce@@@std@@@std@@QAE?AV?$_List_iterator@V?$_List_val@PAVioAnnounce@@V?$allocator@PAVioAnnounce@@@std@@@std@@@2@V?$_List_const_iterator@V?$_List_val@PAVioAnnounce@@V?$allocator@PAVioAnnounce@@@std@@@std@@@2@@Z ; std::list<ioAnnounce *,std::allocator<ioAnnounce *> >::erase
  0002c	8b 00		 mov	 eax, DWORD PTR [eax]
  0002e	89 45 0c	 mov	 DWORD PTR __First$[ebp], eax
$LN60@erase@2:

; 1086 : 			}
; 1087 : 		else
; 1088 : 			{	// erase subrange
; 1089 : 			while (_First != _Last)

  00031	3b 45 10	 cmp	 eax, DWORD PTR __Last$[ebp]
  00034	75 ea		 jne	 SHORT $LL2@erase@2

; 1091 : 			return (_Make_iter(_Last));

  00036	8b 4d 10	 mov	 ecx, DWORD PTR __Last$[ebp]
$LN59@erase@2:
  00039	8b 45 08	 mov	 eax, DWORD PTR ___$ReturnUdt$[ebp]
  0003c	89 08		 mov	 DWORD PTR [eax], ecx
  0003e	5e		 pop	 esi

; 1092 : 			}
; 1093 : 		}

  0003f	c9		 leave
  00040	c2 0c 00	 ret	 12			; 0000000cH
?erase@?$list@PAVioAnnounce@@V?$allocator@PAVioAnnounce@@@std@@@std@@QAE?AV?$_List_iterator@V?$_List_val@PAVioAnnounce@@V?$allocator@PAVioAnnounce@@@std@@@std@@@2@V?$_List_const_iterator@V?$_List_val@PAVioAnnounce@@V?$allocator@PAVioAnnounce@@@std@@@std@@@2@0@Z ENDP ; std::list<ioAnnounce *,std::allocator<ioAnnounce *> >::erase
_TEXT	ENDS
PUBLIC	??$insert@PAVioAnnounce@@@?$list@PAVioAnnounce@@V?$allocator@PAVioAnnounce@@@std@@@std@@QAE?AV?$_List_iterator@V?$_List_val@PAVioAnnounce@@V?$allocator@PAVioAnnounce@@@std@@@std@@@1@V?$_List_const_iterator@V?$_List_val@PAVioAnnounce@@V?$allocator@PAVioAnnounce@@@std@@@std@@@1@$$QAPAVioAnnounce@@@Z ; std::list<ioAnnounce *,std::allocator<ioAnnounce *> >::insert<ioAnnounce *>
; Function compile flags: /Ogsp
;	COMDAT ??$insert@PAVioAnnounce@@@?$list@PAVioAnnounce@@V?$allocator@PAVioAnnounce@@@std@@@std@@QAE?AV?$_List_iterator@V?$_List_val@PAVioAnnounce@@V?$allocator@PAVioAnnounce@@@std@@@std@@@1@V?$_List_const_iterator@V?$_List_val@PAVioAnnounce@@V?$allocator@PAVioAnnounce@@@std@@@std@@@1@$$QAPAVioAnnounce@@@Z
_TEXT	SEGMENT
___$ReturnUdt$ = 8					; size = 4
__Where$ = 12						; size = 4
__Val$ = 16						; size = 4
