; Listing generated by Microsoft (R) Optimizing Compiler Version 16.00.30319.01 

	TITLE	D:\Lost Saga For Developer\Youtube\Tutorial\Source\src\LSClient\ioArrowWeapon.cpp
	.686P
	.XMM
	include listing.inc
	.model	flat

INCLUDELIB MSVCRT
INCLUDELIB OLDNAMES

PUBLIC	?_EEM_DS@?$deque@UD3DXVECTOR3@@V?$allocator@UD3DXVECTOR3@@@std@@@std@@2HB ; std::deque<D3DXVECTOR3,std::allocator<D3DXVECTOR3> >::_EEM_DS
PUBLIC	?m_ActionStopType@ioArrowWeapon@@2W4ActionStopType@@A ; ioArrowWeapon::m_ActionStopType
PUBLIC	?m_DieActionStopType@ioArrowWeapon@@2W4ActionStopType@@A ; ioArrowWeapon::m_DieActionStopType
_BSS	SEGMENT
?m_ActionStopType@ioArrowWeapon@@2W4ActionStopType@@A DD 01H DUP (?) ; ioArrowWeapon::m_ActionStopType
?m_DieActionStopType@ioArrowWeapon@@2W4ActionStopType@@A DD 01H DUP (?) ; ioArrowWeapon::m_DieActionStopType
_BSS	ENDS
;	COMDAT ?_EEM_DS@?$deque@UD3DXVECTOR3@@V?$allocator@UD3DXVECTOR3@@@std@@@std@@2HB
CONST	SEGMENT
?_EEM_DS@?$deque@UD3DXVECTOR3@@V?$allocator@UD3DXVECTOR3@@@std@@@std@@2HB DD 01H ; std::deque<D3DXVECTOR3,std::allocator<D3DXVECTOR3> >::_EEM_DS
CONST	ENDS
PUBLIC	?return1@@YAIXZ					; return1
; Function compile flags: /Ogsp
; File d:\lost saga for developer\youtube\tutorial\source\src\lsclient\stdafx.h
;	COMDAT ?return1@@YAIXZ
_TEXT	SEGMENT
?return1@@YAIXZ PROC					; return1, COMDAT

; 17   : 	__forceinline unsigned int return1() { __asm mov eax, 1 };

  00000	b8 01 00 00 00	 mov	 eax, 1
  00005	c3		 ret	 0
?return1@@YAIXZ ENDP					; return1
_TEXT	ENDS
PUBLIC	?return1000@@YAIXZ				; return1000
; Function compile flags: /Ogsp
;	COMDAT ?return1000@@YAIXZ
_TEXT	SEGMENT
?return1000@@YAIXZ PROC					; return1000, COMDAT

; 29   : 	__forceinline unsigned int return1000() { __asm mov eax, 1000 };

  00000	b8 e8 03 00 00	 mov	 eax, 1000		; 000003e8H
  00005	c3		 ret	 0
?return1000@@YAIXZ ENDP					; return1000
_TEXT	ENDS
PUBLIC	??_7bad_alloc@std@@6B@				; std::bad_alloc::`vftable'
PUBLIC	??0bad_alloc@std@@QAE@PBD@Z			; std::bad_alloc::bad_alloc
PUBLIC	??_R4bad_alloc@std@@6B@				; std::bad_alloc::`RTTI Complete Object Locator'
PUBLIC	??_R0?AVbad_alloc@std@@@8			; std::bad_alloc `RTTI Type Descriptor'
PUBLIC	??_R3bad_alloc@std@@8				; std::bad_alloc::`RTTI Class Hierarchy Descriptor'
PUBLIC	??_R2bad_alloc@std@@8				; std::bad_alloc::`RTTI Base Class Array'
PUBLIC	??_R1A@?0A@EA@bad_alloc@std@@8			; std::bad_alloc::`RTTI Base Class Descriptor at (0,-1,0,64)'
PUBLIC	??_R1A@?0A@EA@exception@std@@8			; std::exception::`RTTI Base Class Descriptor at (0,-1,0,64)'
PUBLIC	??_R0?AVexception@std@@@8			; std::exception `RTTI Type Descriptor'
PUBLIC	??_R3exception@std@@8				; std::exception::`RTTI Class Hierarchy Descriptor'
PUBLIC	??_R2exception@std@@8				; std::exception::`RTTI Base Class Array'
EXTRN	__imp_??0exception@std@@QAE@ABQBD@Z:PROC
EXTRN	??_7type_info@@6B@:QWORD			; type_info::`vftable'
EXTRN	??_Ebad_alloc@std@@UAEPAXI@Z:PROC		; std::bad_alloc::`vector deleting destructor'
EXTRN	?what@exception@std@@UBEPBDXZ:PROC		; std::exception::what
;	COMDAT ??_R2exception@std@@8
; File c:\program files (x86)\microsoft visual studio 10.0\vc\include\exception
rdata$r	SEGMENT
??_R2exception@std@@8 DD FLAT:??_R1A@?0A@EA@exception@std@@8 ; std::exception::`RTTI Base Class Array'
rdata$r	ENDS
;	COMDAT ??_R3exception@std@@8
rdata$r	SEGMENT
??_R3exception@std@@8 DD 00H				; std::exception::`RTTI Class Hierarchy Descriptor'
	DD	00H
	DD	01H
	DD	FLAT:??_R2exception@std@@8
rdata$r	ENDS
;	COMDAT ??_R0?AVexception@std@@@8
_DATA	SEGMENT
??_R0?AVexception@std@@@8 DD FLAT:??_7type_info@@6B@	; std::exception `RTTI Type Descriptor'
	DD	00H
	DB	'.?AVexception@std@@', 00H
_DATA	ENDS
;	COMDAT ??_R1A@?0A@EA@exception@std@@8
rdata$r	SEGMENT
??_R1A@?0A@EA@exception@std@@8 DD FLAT:??_R0?AVexception@std@@@8 ; std::exception::`RTTI Base Class Descriptor at (0,-1,0,64)'
	DD	00H
	DD	00H
	DD	0ffffffffH
	DD	00H
	DD	040H
	DD	FLAT:??_R3exception@std@@8
rdata$r	ENDS
;	COMDAT ??_R1A@?0A@EA@bad_alloc@std@@8
rdata$r	SEGMENT
??_R1A@?0A@EA@bad_alloc@std@@8 DD FLAT:??_R0?AVbad_alloc@std@@@8 ; std::bad_alloc::`RTTI Base Class Descriptor at (0,-1,0,64)'
	DD	01H
	DD	00H
	DD	0ffffffffH
	DD	00H
	DD	040H
	DD	FLAT:??_R3bad_alloc@std@@8
rdata$r	ENDS
;	COMDAT ??_R2bad_alloc@std@@8
rdata$r	SEGMENT
??_R2bad_alloc@std@@8 DD FLAT:??_R1A@?0A@EA@bad_alloc@std@@8 ; std::bad_alloc::`RTTI Base Class Array'
	DD	FLAT:??_R1A@?0A@EA@exception@std@@8
rdata$r	ENDS
;	COMDAT ??_R3bad_alloc@std@@8
rdata$r	SEGMENT
??_R3bad_alloc@std@@8 DD 00H				; std::bad_alloc::`RTTI Class Hierarchy Descriptor'
	DD	00H
	DD	02H
	DD	FLAT:??_R2bad_alloc@std@@8
rdata$r	ENDS
;	COMDAT ??_R0?AVbad_alloc@std@@@8
_DATA	SEGMENT
??_R0?AVbad_alloc@std@@@8 DD FLAT:??_7type_info@@6B@	; std::bad_alloc `RTTI Type Descriptor'
	DD	00H
	DB	'.?AVbad_alloc@std@@', 00H
_DATA	ENDS
;	COMDAT ??_R4bad_alloc@std@@6B@
rdata$r	SEGMENT
??_R4bad_alloc@std@@6B@ DD 00H				; std::bad_alloc::`RTTI Complete Object Locator'
	DD	00H
	DD	00H
	DD	FLAT:??_R0?AVbad_alloc@std@@@8
	DD	FLAT:??_R3bad_alloc@std@@8
rdata$r	ENDS
;	COMDAT ??_7bad_alloc@std@@6B@
CONST	SEGMENT
??_7bad_alloc@std@@6B@ DD FLAT:??_R4bad_alloc@std@@6B@	; std::bad_alloc::`vftable'
	DD	FLAT:??_Ebad_alloc@std@@UAEPAXI@Z
	DD	FLAT:?what@exception@std@@UBEPBDXZ
; Function compile flags: /Ogsp
CONST	ENDS
;	COMDAT ??0bad_alloc@std@@QAE@PBD@Z
_TEXT	SEGMENT
__Message$ = 8						; size = 4
??0bad_alloc@std@@QAE@PBD@Z PROC			; std::bad_alloc::bad_alloc, COMDAT
; _this$ = ecx

; 345  : 		{	// construct from message string

  00000	55		 push	 ebp
  00001	8b ec		 mov	 ebp, esp
  00003	56		 push	 esi
  00004	8d 45 08	 lea	 eax, DWORD PTR __Message$[ebp]
  00007	50		 push	 eax
  00008	8b f1		 mov	 esi, ecx
  0000a	ff 15 00 00 00
	00		 call	 DWORD PTR __imp_??0exception@std@@QAE@ABQBD@Z
  00010	c7 06 00 00 00
	00		 mov	 DWORD PTR [esi], OFFSET ??_7bad_alloc@std@@6B@

; 346  : 		}

  00016	8b c6		 mov	 eax, esi
  00018	5e		 pop	 esi
  00019	5d		 pop	 ebp
  0001a	c2 04 00	 ret	 4
??0bad_alloc@std@@QAE@PBD@Z ENDP			; std::bad_alloc::bad_alloc
_TEXT	ENDS
PUBLIC	??1bad_alloc@std@@UAE@XZ			; std::bad_alloc::~bad_alloc
EXTRN	__imp_??1exception@std@@UAE@XZ:PROC
; Function compile flags: /Ogsp
;	COMDAT ??1bad_alloc@std@@UAE@XZ
_TEXT	SEGMENT
??1bad_alloc@std@@UAE@XZ PROC				; std::bad_alloc::~bad_alloc, COMDAT
; _this$ = ecx

; 354  : 		{	// destroy the object

  00000	c7 01 00 00 00
	00		 mov	 DWORD PTR [ecx], OFFSET ??_7bad_alloc@std@@6B@

; 355  : 		}

  00006	ff 25 00 00 00
	00		 jmp	 DWORD PTR __imp_??1exception@std@@UAE@XZ
??1bad_alloc@std@@UAE@XZ ENDP				; std::bad_alloc::~bad_alloc
_TEXT	ENDS
EXTRN	??3@YAXPAX@Z:PROC				; operator delete
; Function compile flags: /Ogsp
;	COMDAT ??_Gbad_alloc@std@@UAEPAXI@Z
_TEXT	SEGMENT
___flags$ = 8						; size = 4
??_Gbad_alloc@std@@UAEPAXI@Z PROC			; std::bad_alloc::`scalar deleting destructor', COMDAT
; _this$ = ecx
  00000	55		 push	 ebp
  00001	8b ec		 mov	 ebp, esp
  00003	56		 push	 esi
  00004	8b f1		 mov	 esi, ecx
  00006	c7 06 00 00 00
	00		 mov	 DWORD PTR [esi], OFFSET ??_7bad_alloc@std@@6B@
  0000c	ff 15 00 00 00
	00		 call	 DWORD PTR __imp_??1exception@std@@UAE@XZ
  00012	f6 45 08 01	 test	 BYTE PTR ___flags$[ebp], 1
  00016	74 07		 je	 SHORT $LN1@scalar
  00018	56		 push	 esi
  00019	e8 00 00 00 00	 call	 ??3@YAXPAX@Z		; operator delete
  0001e	59		 pop	 ecx
$LN1@scalar:
  0001f	8b c6		 mov	 eax, esi
  00021	5e		 pop	 esi
  00022	5d		 pop	 ebp
  00023	c2 04 00	 ret	 4
??_Gbad_alloc@std@@UAEPAXI@Z ENDP			; std::bad_alloc::`scalar deleting destructor'
_TEXT	ENDS
PUBLIC	??2@YAPAXIPAX@Z					; operator new
; Function compile flags: /Ogsp
; File c:\program files (x86)\microsoft visual studio 10.0\vc\include\new
;	COMDAT ??2@YAPAXIPAX@Z
_TEXT	SEGMENT
___formal$ = 8						; size = 4
__Where$ = 12						; size = 4
??2@YAPAXIPAX@Z PROC					; operator new, COMDAT

; 56   : 	{	// construct array with placement at _Where

  00000	55		 push	 ebp
  00001	8b ec		 mov	 ebp, esp

; 57   : 	return (_Where);

  00003	8b 45 0c	 mov	 eax, DWORD PTR __Where$[ebp]

; 58   : 	}

  00006	5d		 pop	 ebp
  00007	c3		 ret	 0
??2@YAPAXIPAX@Z ENDP					; operator new
_TEXT	ENDS
PUBLIC	??3@YAXPAX0@Z					; operator delete
; Function compile flags: /Ogsp
;	COMDAT ??3@YAXPAX0@Z
_TEXT	SEGMENT
___formal$ = 8						; size = 4
___formal$ = 12						; size = 4
??3@YAXPAX0@Z PROC					; operator delete, COMDAT

; 62   : 	}

  00000	c3		 ret	 0
??3@YAXPAX0@Z ENDP					; operator delete
_TEXT	ENDS
PUBLIC	?DestroyFireBall@ioArrowWeapon@@IAEXXZ		; ioArrowWeapon::DestroyFireBall
EXTRN	__imp_?DestroyEffect@ioEffectFactory@@QAEXPAVioEffect@@@Z:PROC
EXTRN	__imp_?GetSingleton@ioEffectFactory@@SAAAV1@XZ:PROC
; Function compile flags: /Ogsp
; File d:\lost saga for developer\youtube\tutorial\source\src\lsclient\ioarrowweapon.cpp
;	COMDAT ?DestroyFireBall@ioArrowWeapon@@IAEXXZ
_TEXT	SEGMENT
?DestroyFireBall@ioArrowWeapon@@IAEXXZ PROC		; ioArrowWeapon::DestroyFireBall, COMDAT
; _this$ = ecx

; 105  : {

  00000	56		 push	 esi

; 106  : 	if( m_pFireBall )

  00001	8d b1 94 08 00
	00		 lea	 esi, DWORD PTR [ecx+2196]
  00007	8b 06		 mov	 eax, DWORD PTR [esi]
  00009	85 c0		 test	 eax, eax
  0000b	74 12		 je	 SHORT $LN1@DestroyFir

; 107  : 	{
; 108  : 		g_EffectFactory.DestroyEffect( m_pFireBall );

  0000d	50		 push	 eax
  0000e	ff 15 00 00 00
	00		 call	 DWORD PTR __imp_?GetSingleton@ioEffectFactory@@SAAAV1@XZ
  00014	8b c8		 mov	 ecx, eax
  00016	ff 15 00 00 00
	00		 call	 DWORD PTR __imp_?DestroyEffect@ioEffectFactory@@QAEXPAVioEffect@@@Z

; 109  : 		m_pFireBall = NULL;

  0001c	83 26 00	 and	 DWORD PTR [esi], 0
$LN1@DestroyFir:
  0001f	5e		 pop	 esi

; 110  : 	}
; 111  : }

  00020	c3		 ret	 0
?DestroyFireBall@ioArrowWeapon@@IAEXXZ ENDP		; ioArrowWeapon::DestroyFireBall
_TEXT	ENDS
PUBLIC	?SetStartPosition@ioArrowWeapon@@UAEXABUD3DXVECTOR3@@PAVioPlayStage@@@Z ; ioArrowWeapon::SetStartPosition
EXTRN	?SetPosition@ioWeapon@@QAEXABUD3DXVECTOR3@@@Z:PROC ; ioWeapon::SetPosition
EXTRN	__imp_??1ioHashString@@QAE@XZ:PROC
EXTRN	__imp_?HasLinkedSystem@ioEffect@@QBE_NXZ:PROC
EXTRN	__imp_?IsEmpty@ioHashString@@QBE_NXZ:PROC
EXTRN	__imp_?GetSkeletonName@ioEffect@@QBE?AVioHashString@@XZ:PROC
EXTRN	___CxxFrameHandler3:PROC
EXTRN	@__security_check_cookie@4:PROC
EXTRN	__EH_epilog3:PROC
EXTRN	__EH_prolog3:PROC
;	COMDAT xdata$x
xdata$x	SEGMENT
__unwindtable$?SetStartPosition@ioArrowWeapon@@UAEXABUD3DXVECTOR3@@PAVioPlayStage@@@Z DD 0ffffffffH
	DD	FLAT:__unwindfunclet$?SetStartPosition@ioArrowWeapon@@UAEXABUD3DXVECTOR3@@PAVioPlayStage@@@Z$0
__ehfuncinfo$?SetStartPosition@ioArrowWeapon@@UAEXABUD3DXVECTOR3@@PAVioPlayStage@@@Z DD 019930522H
	DD	01H
	DD	FLAT:__unwindtable$?SetStartPosition@ioArrowWeapon@@UAEXABUD3DXVECTOR3@@PAVioPlayStage@@@Z
	DD	2 DUP(00H)
	DD	2 DUP(00H)
	DD	00H
	DD	01H
; Function compile flags: /Ogsp
xdata$x	ENDS
;	COMDAT ?SetStartPosition@ioArrowWeapon@@UAEXABUD3DXVECTOR3@@PAVioPlayStage@@@Z
_TEXT	SEGMENT
$T532724 = -32						; size = 16
$T532727 = -16						; size = 4
__$EHRec$ = -12						; size = 12
_vPos$ = 8						; size = 4
_pStage$ = 12						; size = 4
?SetStartPosition@ioArrowWeapon@@UAEXABUD3DXVECTOR3@@PAVioPlayStage@@@Z PROC ; ioArrowWeapon::SetStartPosition, COMDAT
; _this$ = ecx

; 184  : {

  00000	6a 14		 push	 20			; 00000014H
  00002	b8 00 00 00 00	 mov	 eax, __ehhandler$?SetStartPosition@ioArrowWeapon@@UAEXABUD3DXVECTOR3@@PAVioPlayStage@@@Z
  00007	e8 00 00 00 00	 call	 __EH_prolog3
  0000c	8b f9		 mov	 edi, ecx
  0000e	83 65 f0 00	 and	 DWORD PTR $T532727[ebp], 0

; 185  : 	if( m_pFireBall && m_pFireBall->GetSkeletonName().IsEmpty() && m_pFireBall->HasLinkedSystem() )

  00012	8b 8f 94 08 00
	00		 mov	 ecx, DWORD PTR [edi+2196]
  00018	85 c9		 test	 ecx, ecx
  0001a	74 35		 je	 SHORT $LN4@SetStartPo
  0001c	8d 45 e0	 lea	 eax, DWORD PTR $T532724[ebp]
  0001f	50		 push	 eax
  00020	ff 15 00 00 00
	00		 call	 DWORD PTR __imp_?GetSkeletonName@ioEffect@@QBE?AVioHashString@@XZ
  00026	83 65 fc 00	 and	 DWORD PTR __$EHRec$[ebp+8], 0
  0002a	8b c8		 mov	 ecx, eax
  0002c	c7 45 f0 01 00
	00 00		 mov	 DWORD PTR $T532727[ebp], 1
  00033	ff 15 00 00 00
	00		 call	 DWORD PTR __imp_?IsEmpty@ioHashString@@QBE_NXZ
  00039	84 c0		 test	 al, al
  0003b	74 14		 je	 SHORT $LN4@SetStartPo
  0003d	8b 8f 94 08 00
	00		 mov	 ecx, DWORD PTR [edi+2196]
  00043	ff 15 00 00 00
	00		 call	 DWORD PTR __imp_?HasLinkedSystem@ioEffect@@QBE_NXZ
  00049	84 c0		 test	 al, al
  0004b	74 04		 je	 SHORT $LN4@SetStartPo
  0004d	b3 01		 mov	 bl, 1
  0004f	eb 02		 jmp	 SHORT $LN5@SetStartPo
$LN4@SetStartPo:
  00051	32 db		 xor	 bl, bl
$LN5@SetStartPo:
  00053	83 4d fc ff	 or	 DWORD PTR __$EHRec$[ebp+8], -1
  00057	f6 45 f0 01	 test	 BYTE PTR $T532727[ebp], 1
  0005b	74 09		 je	 SHORT $LN8@SetStartPo
  0005d	8d 4d e0	 lea	 ecx, DWORD PTR $T532724[ebp]
  00060	ff 15 00 00 00
	00		 call	 DWORD PTR __imp_??1ioHashString@@QAE@XZ
$LN8@SetStartPo:
  00066	84 db		 test	 bl, bl
  00068	75 1c		 jne	 SHORT $LN2@SetStartPo

; 186  : 		return;
; 187  : 
; 188  : 	SetPosition( vPos );

  0006a	ff 75 08	 push	 DWORD PTR _vPos$[ebp]
  0006d	8b cf		 mov	 ecx, edi
  0006f	e8 00 00 00 00	 call	 ?SetPosition@ioWeapon@@QAEXABUD3DXVECTOR3@@@Z ; ioWeapon::SetPosition

; 189  : 	m_StartPos = GetPosition();

  00074	8b 07		 mov	 eax, DWORD PTR [edi]
  00076	8b cf		 mov	 ecx, edi
  00078	ff 50 70	 call	 DWORD PTR [eax+112]
  0007b	81 c7 98 08 00
	00		 add	 edi, 2200		; 00000898H
  00081	8b f0		 mov	 esi, eax
  00083	a5		 movsd
  00084	a5		 movsd
  00085	a5		 movsd
$LN2@SetStartPo:

; 190  : }

  00086	e8 00 00 00 00	 call	 __EH_epilog3
  0008b	c2 08 00	 ret	 8
_TEXT	ENDS
;	COMDAT text$x
text$x	SEGMENT
__unwindfunclet$?SetStartPosition@ioArrowWeapon@@UAEXABUD3DXVECTOR3@@PAVioPlayStage@@@Z$0:
  00000	8b 45 f0	 mov	 eax, DWORD PTR $T532727[ebp]
  00003	83 e0 01	 and	 eax, 1
  00006	0f 84 0d 00 00
	00		 je	 $LN7@SetStartPo
  0000c	83 65 f0 fe	 and	 DWORD PTR $T532727[ebp], -2 ; fffffffeH
  00010	8d 4d e0	 lea	 ecx, DWORD PTR $T532724[ebp]
  00013	ff 25 00 00 00
	00		 jmp	 DWORD PTR __imp_??1ioHashString@@QAE@XZ
$LN7@SetStartPo:
  00019	c3		 ret	 0
__ehhandler$?SetStartPosition@ioArrowWeapon@@UAEXABUD3DXVECTOR3@@PAVioPlayStage@@@Z:
  0001a	8b 54 24 08	 mov	 edx, DWORD PTR [esp+8]
  0001e	8d 42 0c	 lea	 eax, DWORD PTR [edx+12]
  00021	8b 4a dc	 mov	 ecx, DWORD PTR [edx-36]
  00024	33 c8		 xor	 ecx, eax
  00026	e8 00 00 00 00	 call	 @__security_check_cookie@4
  0002b	b8 00 00 00 00	 mov	 eax, OFFSET __ehfuncinfo$?SetStartPosition@ioArrowWeapon@@UAEXABUD3DXVECTOR3@@PAVioPlayStage@@@Z
  00030	e9 00 00 00 00	 jmp	 ___CxxFrameHandler3
text$x	ENDS
?SetStartPosition@ioArrowWeapon@@UAEXABUD3DXVECTOR3@@PAVioPlayStage@@@Z ENDP ; ioArrowWeapon::SetStartPosition
PUBLIC	?DestroyResource@ioArrowWeapon@@UAEXPAVioPlayStage@@@Z ; ioArrowWeapon::DestroyResource
; Function compile flags: /Ogsp
;	COMDAT ?DestroyResource@ioArrowWeapon@@UAEXPAVioPlayStage@@@Z
_TEXT	SEGMENT
_pStage$ = 8						; size = 4
?DestroyResource@ioArrowWeapon@@UAEXPAVioPlayStage@@@Z PROC ; ioArrowWeapon::DestroyResource, COMDAT
; _this$ = ecx

; 252  : {

  00000	56		 push	 esi

; 253  : 	if( m_pFireBall )

  00001	8d b1 94 08 00
	00		 lea	 esi, DWORD PTR [ecx+2196]
  00007	8b 06		 mov	 eax, DWORD PTR [esi]
  00009	85 c0		 test	 eax, eax
  0000b	74 12		 je	 SHORT $LN1@DestroyRes

; 254  : 	{
; 255  : 		g_EffectFactory.DestroyEffect( m_pFireBall );

  0000d	50		 push	 eax
  0000e	ff 15 00 00 00
	00		 call	 DWORD PTR __imp_?GetSingleton@ioEffectFactory@@SAAAV1@XZ
  00014	8b c8		 mov	 ecx, eax
  00016	ff 15 00 00 00
	00		 call	 DWORD PTR __imp_?DestroyEffect@ioEffectFactory@@QAEXPAVioEffect@@@Z

; 256  : 		m_pFireBall = NULL;

  0001c	83 26 00	 and	 DWORD PTR [esi], 0
$LN1@DestroyRes:
  0001f	5e		 pop	 esi

; 257  : 	}
; 258  : }

  00020	c2 04 00	 ret	 4
?DestroyResource@ioArrowWeapon@@UAEXPAVioPlayStage@@@Z ENDP ; ioArrowWeapon::DestroyResource
_TEXT	ENDS
PUBLIC	?GetLocalAttackBox@ioArrowWeapon@@UBEABVioOrientBox@@XZ ; ioArrowWeapon::GetLocalAttackBox
EXTRN	?GetLocalAttackBox@ioWeapon@@UBEABVioOrientBox@@XZ:PROC ; ioWeapon::GetLocalAttackBox
EXTRN	__imp_?GetCollisionBox@ioEffect@@QBEABVioOrientBox@@XZ:PROC
; Function compile flags: /Ogsp
;	COMDAT ?GetLocalAttackBox@ioArrowWeapon@@UBEABVioOrientBox@@XZ
_TEXT	SEGMENT
?GetLocalAttackBox@ioArrowWeapon@@UBEABVioOrientBox@@XZ PROC ; ioArrowWeapon::GetLocalAttackBox, COMDAT
; _this$ = ecx

; 262  : 	if( m_pFireBall )

  00000	8b 81 94 08 00
	00		 mov	 eax, DWORD PTR [ecx+2196]
  00006	85 c0		 test	 eax, eax
  00008	74 08		 je	 SHORT $LN1@GetLocalAt

; 263  : 		return m_pFireBall->GetCollisionBox();

  0000a	8b c8		 mov	 ecx, eax
  0000c	ff 25 00 00 00
	00		 jmp	 DWORD PTR __imp_?GetCollisionBox@ioEffect@@QBEABVioOrientBox@@XZ
$LN1@GetLocalAt:

; 264  : 
; 265  : 	return ioWeapon::GetLocalAttackBox();

  00012	e9 00 00 00 00	 jmp	 ?GetLocalAttackBox@ioWeapon@@UBEABVioOrientBox@@XZ ; ioWeapon::GetLocalAttackBox
?GetLocalAttackBox@ioArrowWeapon@@UBEABVioOrientBox@@XZ ENDP ; ioArrowWeapon::GetLocalAttackBox
_TEXT	ENDS
PUBLIC	?GetAttackDir@ioArrowWeapon@@UBE?AUD3DXVECTOR3@@PBVioPlayEntity@@@Z ; ioArrowWeapon::GetAttackDir
; Function compile flags: /Ogsp
;	COMDAT ?GetAttackDir@ioArrowWeapon@@UBE?AUD3DXVECTOR3@@PBVioPlayEntity@@@Z
_TEXT	SEGMENT
___$ReturnUdt$ = 8					; size = 4
_pEntity$ = 12						; size = 4
?GetAttackDir@ioArrowWeapon@@UBE?AUD3DXVECTOR3@@PBVioPlayEntity@@@Z PROC ; ioArrowWeapon::GetAttackDir, COMDAT
; _this$ = ecx

; 269  : {

  00000	55		 push	 ebp
  00001	8b ec		 mov	 ebp, esp

; 270  : 	return m_vMoveDir;

  00003	8b 45 08	 mov	 eax, DWORD PTR ___$ReturnUdt$[ebp]
  00006	56		 push	 esi
  00007	57		 push	 edi
  00008	8d b1 a4 08 00
	00		 lea	 esi, DWORD PTR [ecx+2212]
  0000e	8b f8		 mov	 edi, eax
  00010	a5		 movsd
  00011	a5		 movsd
  00012	a5		 movsd
  00013	5f		 pop	 edi
  00014	5e		 pop	 esi

; 271  : }

  00015	5d		 pop	 ebp
  00016	c2 08 00	 ret	 8
?GetAttackDir@ioArrowWeapon@@UBE?AUD3DXVECTOR3@@PBVioPlayEntity@@@Z ENDP ; ioArrowWeapon::GetAttackDir
_TEXT	ENDS
PUBLIC	?GetType@ioArrowWeapon@@UBE?AW4WeaponType@ioWeapon@@XZ ; ioArrowWeapon::GetType
; Function compile flags: /Ogsp
;	COMDAT ?GetType@ioArrowWeapon@@UBE?AW4WeaponType@ioWeapon@@XZ
_TEXT	SEGMENT
?GetType@ioArrowWeapon@@UBE?AW4WeaponType@ioWeapon@@XZ PROC ; ioArrowWeapon::GetType, COMDAT
; _this$ = ecx

; 275  : 	return WT_ARROW;

  00000	6a 0b		 push	 11			; 0000000bH
  00002	58		 pop	 eax

; 276  : }

  00003	c3		 ret	 0
?GetType@ioArrowWeapon@@UBE?AW4WeaponType@ioWeapon@@XZ ENDP ; ioArrowWeapon::GetType
_TEXT	ENDS
PUBLIC	?GetActionStopType@ioArrowWeapon@@UBE?AW4ActionStopType@@XZ ; ioArrowWeapon::GetActionStopType
; Function compile flags: /Ogsp
;	COMDAT ?GetActionStopType@ioArrowWeapon@@UBE?AW4ActionStopType@@XZ
_TEXT	SEGMENT
?GetActionStopType@ioArrowWeapon@@UBE?AW4ActionStopType@@XZ PROC ; ioArrowWeapon::GetActionStopType, COMDAT
; _this$ = ecx

; 309  : 	return m_ActionStopType;

  00000	a1 00 00 00 00	 mov	 eax, DWORD PTR ?m_ActionStopType@ioArrowWeapon@@2W4ActionStopType@@A ; ioArrowWeapon::m_ActionStopType

; 310  : }

  00005	c3		 ret	 0
?GetActionStopType@ioArrowWeapon@@UBE?AW4ActionStopType@@XZ ENDP ; ioArrowWeapon::GetActionStopType
_TEXT	ENDS
PUBLIC	?GetDieActionStopType@ioArrowWeapon@@UBE?AW4ActionStopType@@XZ ; ioArrowWeapon::GetDieActionStopType
; Function compile flags: /Ogsp
;	COMDAT ?GetDieActionStopType@ioArrowWeapon@@UBE?AW4ActionStopType@@XZ
_TEXT	SEGMENT
?GetDieActionStopType@ioArrowWeapon@@UBE?AW4ActionStopType@@XZ PROC ; ioArrowWeapon::GetDieActionStopType, COMDAT
; _this$ = ecx

; 314  : 	return m_DieActionStopType;

  00000	a1 00 00 00 00	 mov	 eax, DWORD PTR ?m_DieActionStopType@ioArrowWeapon@@2W4ActionStopType@@A ; ioArrowWeapon::m_DieActionStopType

; 315  : }

  00005	c3		 ret	 0
?GetDieActionStopType@ioArrowWeapon@@UBE?AW4ActionStopType@@XZ ENDP ; ioArrowWeapon::GetDieActionStopType
_TEXT	ENDS
PUBLIC	?_Adopt@_Iterator_base0@std@@QAEXPBX@Z		; std::_Iterator_base0::_Adopt
; Function compile flags: /Ogsp
; File c:\program files (x86)\microsoft visual studio 10.0\vc\include\xutility
;	COMDAT ?_Adopt@_Iterator_base0@std@@QAEXPBX@Z
_TEXT	SEGMENT
___formal$ = 8						; size = 4
?_Adopt@_Iterator_base0@std@@QAEXPBX@Z PROC		; std::_Iterator_base0::_Adopt, COMDAT
; _this$ = ecx

; 49   : 		}

  00000	c2 04 00	 ret	 4
?_Adopt@_Iterator_base0@std@@QAEXPBX@Z ENDP		; std::_Iterator_base0::_Adopt
_TEXT	ENDS
PUBLIC	?GetAttribute@ioArrowWeapon@@MBEPBUWeaponAttribute@@XZ ; ioArrowWeapon::GetAttribute
; Function compile flags: /Ogsp
; File d:\lost saga for developer\youtube\tutorial\source\src\lsclient\ioarrowweapon.cpp
;	COMDAT ?GetAttribute@ioArrowWeapon@@MBEPBUWeaponAttribute@@XZ
_TEXT	SEGMENT
?GetAttribute@ioArrowWeapon@@MBEPBUWeaponAttribute@@XZ PROC ; ioArrowWeapon::GetAttribute, COMDAT
; _this$ = ecx

; 386  : 	if( m_bResistance )

  00000	80 b9 3c 06 00
	00 00		 cmp	 BYTE PTR [ecx+1596], 0
  00007	74 07		 je	 SHORT $LN2@GetAttribu

; 387  : 	{
; 388  : 		if( m_pResistanceAttr )

  00009	8b 41 0c	 mov	 eax, DWORD PTR [ecx+12]
  0000c	85 c0		 test	 eax, eax

; 389  : 			return m_pResistanceAttr;

  0000e	75 0d		 jne	 SHORT $LN4@GetAttribu
$LN2@GetAttribu:

; 390  : 	}
; 391  : 
; 392  : 	if( m_pSecondAttr )

  00010	8b 81 bc 08 00
	00		 mov	 eax, DWORD PTR [ecx+2236]
  00016	85 c0		 test	 eax, eax

; 393  : 		return m_pSecondAttr;

  00018	75 03		 jne	 SHORT $LN4@GetAttribu

; 394  : 
; 395  : 	return m_pConstAttr;

  0001a	8b 41 08	 mov	 eax, DWORD PTR [ecx+8]
$LN4@GetAttribu:

; 396  : }

  0001d	c3		 ret	 0
?GetAttribute@ioArrowWeapon@@MBEPBUWeaponAttribute@@XZ ENDP ; ioArrowWeapon::GetAttribute
_TEXT	ENDS
PUBLIC	?ApplyWeaponSync@ioArrowWeapon@@UAEXAAVSP2Packet@@PAVioPlayStage@@@Z ; ioArrowWeapon::ApplyWeaponSync
; Function compile flags: /Ogsp
;	COMDAT ?ApplyWeaponSync@ioArrowWeapon@@UAEXAAVSP2Packet@@PAVioPlayStage@@@Z
_TEXT	SEGMENT
_rkPacket$ = 8						; size = 4
_pStage$ = 12						; size = 4
?ApplyWeaponSync@ioArrowWeapon@@UAEXAAVSP2Packet@@PAVioPlayStage@@@Z PROC ; ioArrowWeapon::ApplyWeaponSync, COMDAT
; _this$ = ecx

; 413  : }

  00000	c2 08 00	 ret	 8
?ApplyWeaponSync@ioArrowWeapon@@UAEXAAVSP2Packet@@PAVioPlayStage@@@Z ENDP ; ioArrowWeapon::ApplyWeaponSync
_TEXT	ENDS
PUBLIC	?SetDestroyAreaWeaponIndex@ioArrowWeapon@@QAEXK@Z ; ioArrowWeapon::SetDestroyAreaWeaponIndex
; Function compile flags: /Ogsp
;	COMDAT ?SetDestroyAreaWeaponIndex@ioArrowWeapon@@QAEXK@Z
_TEXT	SEGMENT
_dwIndex$ = 8						; size = 4
?SetDestroyAreaWeaponIndex@ioArrowWeapon@@QAEXK@Z PROC	; ioArrowWeapon::SetDestroyAreaWeaponIndex, COMDAT
; _this$ = ecx

; 430  : {

  00000	55		 push	 ebp
  00001	8b ec		 mov	 ebp, esp

; 431  : 	m_dwAreaWeaponIndex = dwIndex;

  00003	8b 45 08	 mov	 eax, DWORD PTR _dwIndex$[ebp]
  00006	89 81 04 09 00
	00		 mov	 DWORD PTR [ecx+2308], eax

; 432  : }

  0000c	5d		 pop	 ebp
  0000d	c2 04 00	 ret	 4
?SetDestroyAreaWeaponIndex@ioArrowWeapon@@QAEXK@Z ENDP	; ioArrowWeapon::SetDestroyAreaWeaponIndex
_TEXT	ENDS
PUBLIC	?GetWeaponItemType@ioArrowWeapon@@QAE?AW4WeaponItemType@1@XZ ; ioArrowWeapon::GetWeaponItemType
; Function compile flags: /Ogsp
;	COMDAT ?GetWeaponItemType@ioArrowWeapon@@QAE?AW4WeaponItemType@1@XZ
_TEXT	SEGMENT
?GetWeaponItemType@ioArrowWeapon@@QAE?AW4WeaponItemType@1@XZ PROC ; ioArrowWeapon::GetWeaponItemType, COMDAT
; _this$ = ecx

; 436  : 	return m_nWeaponType;

  00000	8b 81 08 09 00
	00		 mov	 eax, DWORD PTR [ecx+2312]

; 437  : }

  00006	c3		 ret	 0
?GetWeaponItemType@ioArrowWeapon@@QAE?AW4WeaponItemType@1@XZ ENDP ; ioArrowWeapon::GetWeaponItemType
_TEXT	ENDS
PUBLIC	?size@?$vector@USecondAttribute@@V?$allocator@USecondAttribute@@@std@@@std@@QBEIXZ ; std::vector<SecondAttribute,std::allocator<SecondAttribute> >::size
; Function compile flags: /Ogsp
; File c:\program files (x86)\microsoft visual studio 10.0\vc\include\vector
;	COMDAT ?size@?$vector@USecondAttribute@@V?$allocator@USecondAttribute@@@std@@@std@@QBEIXZ
_TEXT	SEGMENT
?size@?$vector@USecondAttribute@@V?$allocator@USecondAttribute@@@std@@@std@@QBEIXZ PROC ; std::vector<SecondAttribute,std::allocator<SecondAttribute> >::size, COMDAT
; _this$ = ecx

; 879  : 		return (this->_Mylast - this->_Myfirst);

  00000	8b 41 04	 mov	 eax, DWORD PTR [ecx+4]
  00003	2b 01		 sub	 eax, DWORD PTR [ecx]
  00005	c1 f8 03	 sar	 eax, 3

; 880  : 		}

  00008	c3		 ret	 0
?size@?$vector@USecondAttribute@@V?$allocator@USecondAttribute@@@std@@@std@@QBEIXZ ENDP ; std::vector<SecondAttribute,std::allocator<SecondAttribute> >::size
_TEXT	ENDS
PUBLIC	??A?$vector@USecondAttribute@@V?$allocator@USecondAttribute@@@std@@@std@@QAEAAUSecondAttribute@@I@Z ; std::vector<SecondAttribute,std::allocator<SecondAttribute> >::operator[]
; Function compile flags: /Ogsp
;	COMDAT ??A?$vector@USecondAttribute@@V?$allocator@USecondAttribute@@@std@@@std@@QAEAAUSecondAttribute@@I@Z
_TEXT	SEGMENT
__Pos$ = 8						; size = 4
??A?$vector@USecondAttribute@@V?$allocator@USecondAttribute@@@std@@@std@@QAEAAUSecondAttribute@@I@Z PROC ; std::vector<SecondAttribute,std::allocator<SecondAttribute> >::operator[], COMDAT
; _this$ = ecx

; 928  : 		{	// subscript mutable sequence

  00000	55		 push	 ebp
  00001	8b ec		 mov	 ebp, esp

; 929  :  #if _ITERATOR_DEBUG_LEVEL == 2
; 930  : 		if (size() <= _Pos)
; 931  : 			{	// report error
; 932  : 			_DEBUG_ERROR("vector subscript out of range");
; 933  : 			_SCL_SECURE_OUT_OF_RANGE;
; 934  : 			}
; 935  : 
; 936  :  #elif _ITERATOR_DEBUG_LEVEL == 1
; 937  : 		_SCL_SECURE_VALIDATE_RANGE(_Pos < size());
; 938  :  #endif /* _ITERATOR_DEBUG_LEVEL */
; 939  : 
; 940  : 		return (*(this->_Myfirst + _Pos));

  00003	8b 01		 mov	 eax, DWORD PTR [ecx]
  00005	8b 4d 08	 mov	 ecx, DWORD PTR __Pos$[ebp]
  00008	8d 04 c8	 lea	 eax, DWORD PTR [eax+ecx*8]

; 941  : 		}

  0000b	5d		 pop	 ebp
  0000c	c2 04 00	 ret	 4
??A?$vector@USecondAttribute@@V?$allocator@USecondAttribute@@@std@@@std@@QAEAAUSecondAttribute@@I@Z ENDP ; std::vector<SecondAttribute,std::allocator<SecondAttribute> >::operator[]
_TEXT	ENDS
PUBLIC	?_Inside@?$vector@USecondAttribute@@V?$allocator@USecondAttribute@@@std@@@std@@IBE_NPBUSecondAttribute@@@Z ; std::vector<SecondAttribute,std::allocator<SecondAttribute> >::_Inside
; Function compile flags: /Ogsp
;	COMDAT ?_Inside@?$vector@USecondAttribute@@V?$allocator@USecondAttribute@@@std@@@std@@IBE_NPBUSecondAttribute@@@Z
_TEXT	SEGMENT
__Ptr$ = 8						; size = 4
?_Inside@?$vector@USecondAttribute@@V?$allocator@USecondAttribute@@@std@@@std@@IBE_NPBUSecondAttribute@@@Z PROC ; std::vector<SecondAttribute,std::allocator<SecondAttribute> >::_Inside, COMDAT
; _this$ = ecx

; 1285 : 		{	// test if _Ptr points inside vector

  00000	55		 push	 ebp
  00001	8b ec		 mov	 ebp, esp

; 1286 : 		return (_Ptr < this->_Mylast && this->_Myfirst <= _Ptr);

  00003	8b 45 08	 mov	 eax, DWORD PTR __Ptr$[ebp]
  00006	3b 41 04	 cmp	 eax, DWORD PTR [ecx+4]
  00009	73 09		 jae	 SHORT $LN3@Inside
  0000b	39 01		 cmp	 DWORD PTR [ecx], eax
  0000d	77 05		 ja	 SHORT $LN3@Inside
  0000f	33 c0		 xor	 eax, eax
  00011	40		 inc	 eax
  00012	eb 02		 jmp	 SHORT $LN4@Inside
$LN3@Inside:
  00014	33 c0		 xor	 eax, eax
$LN4@Inside:

; 1287 : 		}

  00016	5d		 pop	 ebp
  00017	c2 04 00	 ret	 4
?_Inside@?$vector@USecondAttribute@@V?$allocator@USecondAttribute@@@std@@@std@@IBE_NPBUSecondAttribute@@@Z ENDP ; std::vector<SecondAttribute,std::allocator<SecondAttribute> >::_Inside
_TEXT	ENDS
PUBLIC	?_Orphan_range@?$vector@USecondAttribute@@V?$allocator@USecondAttribute@@@std@@@std@@IBEXPAUSecondAttribute@@0@Z ; std::vector<SecondAttribute,std::allocator<SecondAttribute> >::_Orphan_range
; Function compile flags: /Ogsp
;	COMDAT ?_Orphan_range@?$vector@USecondAttribute@@V?$allocator@USecondAttribute@@@std@@@std@@IBEXPAUSecondAttribute@@0@Z
_TEXT	SEGMENT
___formal$ = 8						; size = 4
___formal$ = 12						; size = 4
?_Orphan_range@?$vector@USecondAttribute@@V?$allocator@USecondAttribute@@@std@@@std@@IBEXPAUSecondAttribute@@0@Z PROC ; std::vector<SecondAttribute,std::allocator<SecondAttribute> >::_Orphan_range, COMDAT
; _this$ = ecx

; 1454 : 		}

  00000	c2 08 00	 ret	 8
?_Orphan_range@?$vector@USecondAttribute@@V?$allocator@USecondAttribute@@@std@@@std@@IBEXPAUSecondAttribute@@0@Z ENDP ; std::vector<SecondAttribute,std::allocator<SecondAttribute> >::_Orphan_range
_TEXT	ENDS
PUBLIC	??1?$_Vector_val@USecondAttribute@@V?$allocator@USecondAttribute@@@std@@@std@@QAE@XZ ; std::_Vector_val<SecondAttribute,std::allocator<SecondAttribute> >::~_Vector_val<SecondAttribute,std::allocator<SecondAttribute> >
; Function compile flags: /Ogsp
;	COMDAT ??1?$_Vector_val@USecondAttribute@@V?$allocator@USecondAttribute@@@std@@@std@@QAE@XZ
_TEXT	SEGMENT
??1?$_Vector_val@USecondAttribute@@V?$allocator@USecondAttribute@@@std@@@std@@QAE@XZ PROC ; std::_Vector_val<SecondAttribute,std::allocator<SecondAttribute> >::~_Vector_val<SecondAttribute,std::allocator<SecondAttribute> >, COMDAT
; _this$ = ecx

; 434  : 		}

  00000	c3		 ret	 0
??1?$_Vector_val@USecondAttribute@@V?$allocator@USecondAttribute@@@std@@@std@@QAE@XZ ENDP ; std::_Vector_val<SecondAttribute,std::allocator<SecondAttribute> >::~_Vector_val<SecondAttribute,std::allocator<SecondAttribute> >
_TEXT	ENDS
PUBLIC	??0?$allocator@USecondAttribute@@@std@@QAE@XZ	; std::allocator<SecondAttribute>::allocator<SecondAttribute>
; Function compile flags: /Ogsp
; File c:\program files (x86)\microsoft visual studio 10.0\vc\include\xmemory
;	COMDAT ??0?$allocator@USecondAttribute@@@std@@QAE@XZ
_TEXT	SEGMENT
??0?$allocator@USecondAttribute@@@std@@QAE@XZ PROC	; std::allocator<SecondAttribute>::allocator<SecondAttribute>, COMDAT
; _this$ = ecx

; 161  : 	_ALLOCATOR() _THROW0()

  00000	8b c1		 mov	 eax, ecx

; 162  : 		{	// construct default allocator (do nothing)
; 163  : 		}

  00002	c3		 ret	 0
??0?$allocator@USecondAttribute@@@std@@QAE@XZ ENDP	; std::allocator<SecondAttribute>::allocator<SecondAttribute>
_TEXT	ENDS
PUBLIC	?capacity@?$vector@USecondAttribute@@V?$allocator@USecondAttribute@@@std@@@std@@QBEIXZ ; std::vector<SecondAttribute,std::allocator<SecondAttribute> >::capacity
; Function compile flags: /Ogsp
; File c:\program files (x86)\microsoft visual studio 10.0\vc\include\vector
;	COMDAT ?capacity@?$vector@USecondAttribute@@V?$allocator@USecondAttribute@@@std@@@std@@QBEIXZ
_TEXT	SEGMENT
?capacity@?$vector@USecondAttribute@@V?$allocator@USecondAttribute@@@std@@@std@@QBEIXZ PROC ; std::vector<SecondAttribute,std::allocator<SecondAttribute> >::capacity, COMDAT
; _this$ = ecx

; 777  : 		return (this->_Myend - this->_Myfirst);

  00000	8b 41 08	 mov	 eax, DWORD PTR [ecx+8]
  00003	2b 01		 sub	 eax, DWORD PTR [ecx]
  00005	c1 f8 03	 sar	 eax, 3

; 778  : 		}

  00008	c3		 ret	 0
?capacity@?$vector@USecondAttribute@@V?$allocator@USecondAttribute@@@std@@@std@@QBEIXZ ENDP ; std::vector<SecondAttribute,std::allocator<SecondAttribute> >::capacity
_TEXT	ENDS
PUBLIC	??_C@_0BD@OLBABOEK@vector?$DMT?$DO?5too?5long?$AA@ ; `string'
PUBLIC	?_Xlen@?$vector@USecondAttribute@@V?$allocator@USecondAttribute@@@std@@@std@@IBEXXZ ; std::vector<SecondAttribute,std::allocator<SecondAttribute> >::_Xlen
EXTRN	__imp_?_Xlength_error@std@@YAXPBD@Z:PROC
;	COMDAT ??_C@_0BD@OLBABOEK@vector?$DMT?$DO?5too?5long?$AA@
CONST	SEGMENT
??_C@_0BD@OLBABOEK@vector?$DMT?$DO?5too?5long?$AA@ DB 'vector<T> too long'
	DB	00H						; `string'
; Function compile flags: /Ogsp
CONST	ENDS
;	COMDAT ?_Xlen@?$vector@USecondAttribute@@V?$allocator@USecondAttribute@@@std@@@std@@IBEXXZ
_TEXT	SEGMENT
?_Xlen@?$vector@USecondAttribute@@V?$allocator@USecondAttribute@@@std@@@std@@IBEXXZ PROC ; std::vector<SecondAttribute,std::allocator<SecondAttribute> >::_Xlen, COMDAT
; _this$ = ecx

; 1427 : 		_Xlength_error("vector<T> too long");

  00000	68 00 00 00 00	 push	 OFFSET ??_C@_0BD@OLBABOEK@vector?$DMT?$DO?5too?5long?$AA@
  00005	ff 15 00 00 00
	00		 call	 DWORD PTR __imp_?_Xlength_error@std@@YAXPBD@Z
$LN4@Xlen:
$LN3@Xlen:
  0000b	cc		 int	 3
?_Xlen@?$vector@USecondAttribute@@V?$allocator@USecondAttribute@@@std@@@std@@IBEXXZ ENDP ; std::vector<SecondAttribute,std::allocator<SecondAttribute> >::_Xlen
_TEXT	ENDS
PUBLIC	??0?$allocator@USecondAttribute@@@std@@QAE@ABV01@@Z ; std::allocator<SecondAttribute>::allocator<SecondAttribute>
; Function compile flags: /Ogsp
; File c:\program files (x86)\microsoft visual studio 10.0\vc\include\xmemory
;	COMDAT ??0?$allocator@USecondAttribute@@@std@@QAE@ABV01@@Z
_TEXT	SEGMENT
___formal$ = 8						; size = 4
??0?$allocator@USecondAttribute@@@std@@QAE@ABV01@@Z PROC ; std::allocator<SecondAttribute>::allocator<SecondAttribute>, COMDAT
; _this$ = ecx

; 165  : 	_ALLOCATOR(const _ALLOCATOR<_Ty>&) _THROW0()

  00000	8b c1		 mov	 eax, ecx

; 166  : 		{	// construct by copying (do nothing)
; 167  : 		}

  00002	c2 04 00	 ret	 4
??0?$allocator@USecondAttribute@@@std@@QAE@ABV01@@Z ENDP ; std::allocator<SecondAttribute>::allocator<SecondAttribute>
_TEXT	ENDS
PUBLIC	?deallocate@?$allocator@USecondAttribute@@@std@@QAEXPAUSecondAttribute@@I@Z ; std::allocator<SecondAttribute>::deallocate
; Function compile flags: /Ogsp
;	COMDAT ?deallocate@?$allocator@USecondAttribute@@@std@@QAEXPAUSecondAttribute@@I@Z
_TEXT	SEGMENT
__Ptr$ = 8						; size = 4
___formal$ = 12						; size = 4
?deallocate@?$allocator@USecondAttribute@@@std@@QAEXPAUSecondAttribute@@I@Z PROC ; std::allocator<SecondAttribute>::deallocate, COMDAT
; _this$ = ecx

; 181  : 		{	// deallocate object at _Ptr, ignore size

  00000	55		 push	 ebp
  00001	8b ec		 mov	 ebp, esp

; 182  : 		::operator delete(_Ptr);

  00003	ff 75 08	 push	 DWORD PTR __Ptr$[ebp]
  00006	e8 00 00 00 00	 call	 ??3@YAXPAX@Z		; operator delete
  0000b	59		 pop	 ecx

; 183  : 		}

  0000c	5d		 pop	 ebp
  0000d	c2 08 00	 ret	 8
?deallocate@?$allocator@USecondAttribute@@@std@@QAEXPAUSecondAttribute@@I@Z ENDP ; std::allocator<SecondAttribute>::deallocate
_TEXT	ENDS
PUBLIC	?max_size@?$allocator@USecondAttribute@@@std@@QBEIXZ ; std::allocator<SecondAttribute>::max_size
; Function compile flags: /Ogsp
;	COMDAT ?max_size@?$allocator@USecondAttribute@@@std@@QBEIXZ
_TEXT	SEGMENT
?max_size@?$allocator@USecondAttribute@@@std@@QBEIXZ PROC ; std::allocator<SecondAttribute>::max_size, COMDAT
; _this$ = ecx

; 218  : 		_SIZT _Count = (_SIZT)(-1) / sizeof (_Ty);
; 219  : 		return (0 < _Count ? _Count : 1);

  00000	b8 ff ff ff 1f	 mov	 eax, 536870911		; 1fffffffH

; 220  : 		}

  00005	c3		 ret	 0
?max_size@?$allocator@USecondAttribute@@@std@@QBEIXZ ENDP ; std::allocator<SecondAttribute>::max_size
_TEXT	ENDS
PUBLIC	??0?$_Vector_const_iterator@V?$_Vector_val@USecondAttribute@@V?$allocator@USecondAttribute@@@std@@@std@@@std@@QAE@PAUSecondAttribute@@PBU_Container_base0@1@@Z ; std::_Vector_const_iterator<std::_Vector_val<SecondAttribute,std::allocator<SecondAttribute> > >::_Vector_const_iterator<std::_Vector_val<SecondAttribute,std::allocator<SecondAttribute> > >
; Function compile flags: /Ogsp
; File c:\program files (x86)\microsoft visual studio 10.0\vc\include\vector
;	COMDAT ??0?$_Vector_const_iterator@V?$_Vector_val@USecondAttribute@@V?$allocator@USecondAttribute@@@std@@@std@@@std@@QAE@PAUSecondAttribute@@PBU_Container_base0@1@@Z
_TEXT	SEGMENT
__Parg$ = 8						; size = 4
__Pvector$ = 12						; size = 4
??0?$_Vector_const_iterator@V?$_Vector_val@USecondAttribute@@V?$allocator@USecondAttribute@@@std@@@std@@@std@@QAE@PAUSecondAttribute@@PBU_Container_base0@1@@Z PROC ; std::_Vector_const_iterator<std::_Vector_val<SecondAttribute,std::allocator<SecondAttribute> > >::_Vector_const_iterator<std::_Vector_val<SecondAttribute,std::allocator<SecondAttribute> > >, COMDAT
; _this$ = ecx

; 45   : 		{	// construct with pointer _Parg

  00000	55		 push	 ebp
  00001	8b ec		 mov	 ebp, esp
  00003	8b c1		 mov	 eax, ecx
  00005	8b 4d 08	 mov	 ecx, DWORD PTR __Parg$[ebp]
  00008	89 08		 mov	 DWORD PTR [eax], ecx

; 46   : 		this->_Adopt(_Pvector);
; 47   : 		}

  0000a	5d		 pop	 ebp
  0000b	c2 08 00	 ret	 8
??0?$_Vector_const_iterator@V?$_Vector_val@USecondAttribute@@V?$allocator@USecondAttribute@@@std@@@std@@@std@@QAE@PAUSecondAttribute@@PBU_Container_base0@1@@Z ENDP ; std::_Vector_const_iterator<std::_Vector_val<SecondAttribute,std::allocator<SecondAttribute> > >::_Vector_const_iterator<std::_Vector_val<SecondAttribute,std::allocator<SecondAttribute> > >
_TEXT	ENDS
PUBLIC	?_Compat@?$_Vector_const_iterator@V?$_Vector_val@USecondAttribute@@V?$allocator@USecondAttribute@@@std@@@std@@@std@@QBEXABV12@@Z ; std::_Vector_const_iterator<std::_Vector_val<SecondAttribute,std::allocator<SecondAttribute> > >::_Compat
; Function compile flags: /Ogsp
;	COMDAT ?_Compat@?$_Vector_const_iterator@V?$_Vector_val@USecondAttribute@@V?$allocator@USecondAttribute@@@std@@@std@@@std@@QBEXABV12@@Z
_TEXT	SEGMENT
___formal$ = 8						; size = 4
?_Compat@?$_Vector_const_iterator@V?$_Vector_val@USecondAttribute@@V?$allocator@USecondAttribute@@@std@@@std@@@std@@QBEXABV12@@Z PROC ; std::_Vector_const_iterator<std::_Vector_val<SecondAttribute,std::allocator<SecondAttribute> > >::_Compat, COMDAT
; _this$ = ecx

; 253  : 		}

  00000	c2 04 00	 ret	 4
?_Compat@?$_Vector_const_iterator@V?$_Vector_val@USecondAttribute@@V?$allocator@USecondAttribute@@@std@@@std@@@std@@QBEXABV12@@Z ENDP ; std::_Vector_const_iterator<std::_Vector_val<SecondAttribute,std::allocator<SecondAttribute> > >::_Compat
_TEXT	ENDS
PUBLIC	__real@3f91df46a2526c7a
PUBLIC	??$DEGtoRAD@M@@YAMM@Z				; DEGtoRAD<float>
EXTRN	__fltused:DWORD
;	COMDAT __real@3f91df46a2526c7a
; File d:\lost saga for developer\youtube\tutorial\source\src\lsclient\veryoftenusedefine.h
CONST	SEGMENT
__real@3f91df46a2526c7a DQ 03f91df46a2526c7ar	; 0.0174533
; Function compile flags: /Ogsp
CONST	ENDS
;	COMDAT ??$DEGtoRAD@M@@YAMM@Z
_TEXT	SEGMENT
tv129 = 8						; size = 4
_val$ = 8						; size = 4
??$DEGtoRAD@M@@YAMM@Z PROC				; DEGtoRAD<float>, COMDAT

; 20   : type  DEGtoRAD (type val) {return (type) (val * 0.0174532925199);}

  00000	55		 push	 ebp
  00001	8b ec		 mov	 ebp, esp
  00003	d9 45 08	 fld	 DWORD PTR _val$[ebp]
  00006	dc 0d 00 00 00
	00		 fmul	 QWORD PTR __real@3f91df46a2526c7a
  0000c	d9 5d 08	 fstp	 DWORD PTR tv129[ebp]
  0000f	d9 45 08	 fld	 DWORD PTR tv129[ebp]
  00012	5d		 pop	 ebp
  00013	c3		 ret	 0
??$DEGtoRAD@M@@YAMM@Z ENDP				; DEGtoRAD<float>
_TEXT	ENDS
PUBLIC	??$addressof@$$CBUSecondAttribute@@@std@@YAPBUSecondAttribute@@ABU1@@Z ; std::addressof<SecondAttribute const >
; Function compile flags: /Ogsp
; File c:\program files (x86)\microsoft visual studio 10.0\vc\include\xmemory
;	COMDAT ??$addressof@$$CBUSecondAttribute@@@std@@YAPBUSecondAttribute@@ABU1@@Z
_TEXT	SEGMENT
__Val$ = 8						; size = 4
??$addressof@$$CBUSecondAttribute@@@std@@YAPBUSecondAttribute@@ABU1@@Z PROC ; std::addressof<SecondAttribute const >, COMDAT

; 110  : 	{	// return address of _Val

  00000	55		 push	 ebp
  00001	8b ec		 mov	 ebp, esp

; 111  : 	return ((_Ty *) &(char&)_Val);

  00003	8b 45 08	 mov	 eax, DWORD PTR __Val$[ebp]

; 112  : 	}

  00006	5d		 pop	 ebp
  00007	c3		 ret	 0
??$addressof@$$CBUSecondAttribute@@@std@@YAPBUSecondAttribute@@ABU1@@Z ENDP ; std::addressof<SecondAttribute const >
_TEXT	ENDS
PUBLIC	__TI2?AVbad_alloc@std@@
PUBLIC	??$_Allocate@USecondAttribute@@@std@@YAPAUSecondAttribute@@IPAU1@@Z ; std::_Allocate<SecondAttribute>
PUBLIC	__CTA2?AVbad_alloc@std@@
PUBLIC	__CT??_R0?AVbad_alloc@std@@@8??0bad_alloc@std@@QAE@ABV01@@Z12
PUBLIC	??0bad_alloc@std@@QAE@ABV01@@Z			; std::bad_alloc::bad_alloc
PUBLIC	__CT??_R0?AVexception@std@@@8??0exception@std@@QAE@ABV01@@Z12
EXTRN	??2@YAPAXI@Z:PROC				; operator new
EXTRN	__CxxThrowException@8:PROC
EXTRN	??0exception@std@@QAE@ABV01@@Z:PROC		; std::exception::exception
;	COMDAT __CT??_R0?AVexception@std@@@8??0exception@std@@QAE@ABV01@@Z12
; File c:\program files (x86)\microsoft visual studio 10.0\vc\include\exception
xdata$x	SEGMENT
__CT??_R0?AVexception@std@@@8??0exception@std@@QAE@ABV01@@Z12 DD 00H
	DD	FLAT:??_R0?AVexception@std@@@8
	DD	00H
	DD	0ffffffffH
	ORG $+4
	DD	0cH
	DD	FLAT:??0exception@std@@QAE@ABV01@@Z
xdata$x	ENDS
;	COMDAT __CT??_R0?AVbad_alloc@std@@@8??0bad_alloc@std@@QAE@ABV01@@Z12
xdata$x	SEGMENT
__CT??_R0?AVbad_alloc@std@@@8??0bad_alloc@std@@QAE@ABV01@@Z12 DD 00H
	DD	FLAT:??_R0?AVbad_alloc@std@@@8
	DD	00H
	DD	0ffffffffH
	ORG $+4
	DD	0cH
	DD	FLAT:??0bad_alloc@std@@QAE@ABV01@@Z
xdata$x	ENDS
;	COMDAT __CTA2?AVbad_alloc@std@@
xdata$x	SEGMENT
__CTA2?AVbad_alloc@std@@ DD 02H
	DD	FLAT:__CT??_R0?AVbad_alloc@std@@@8??0bad_alloc@std@@QAE@ABV01@@Z12
	DD	FLAT:__CT??_R0?AVexception@std@@@8??0exception@std@@QAE@ABV01@@Z12
xdata$x	ENDS
;	COMDAT __TI2?AVbad_alloc@std@@
xdata$x	SEGMENT
__TI2?AVbad_alloc@std@@ DD 00H
	DD	FLAT:??1bad_alloc@std@@UAE@XZ
	DD	00H
	DD	FLAT:__CTA2?AVbad_alloc@std@@
; Function compile flags: /Ogsp
; File c:\program files (x86)\microsoft visual studio 10.0\vc\include\xmemory
xdata$x	ENDS
;	COMDAT ??$_Allocate@USecondAttribute@@@std@@YAPAUSecondAttribute@@IPAU1@@Z
_TEXT	SEGMENT
$T532829 = -12						; size = 12
$T532834 = 8						; size = 4
__Count$ = 8						; size = 4
___formal$ = 12						; size = 4
??$_Allocate@USecondAttribute@@@std@@YAPAUSecondAttribute@@IPAU1@@Z PROC ; std::_Allocate<SecondAttribute>, COMDAT

; 30   : 	{	// allocate storage for _Count elements of type _Ty

  00000	55		 push	 ebp
  00001	8b ec		 mov	 ebp, esp

; 31   : 	void *_Ptr = 0;
; 32   : 
; 33   : 	if (_Count <= 0)

  00003	8b 4d 08	 mov	 ecx, DWORD PTR __Count$[ebp]
  00006	83 ec 0c	 sub	 esp, 12			; 0000000cH
  00009	33 c0		 xor	 eax, eax
  0000b	85 c9		 test	 ecx, ecx

; 34   : 		_Count = 0;
; 35   : 	else if (((_SIZT)(-1) / sizeof (_Ty) < _Count)

  0000d	74 3e		 je	 SHORT $LN5@Allocate

; 36   : 		|| (_Ptr = ::operator new(_Count * sizeof (_Ty))) == 0)

  0000f	81 f9 ff ff ff
	1f		 cmp	 ecx, 536870911		; 1fffffffH
  00015	77 10		 ja	 SHORT $LN1@Allocate
  00017	8b c1		 mov	 eax, ecx
  00019	c1 e0 03	 shl	 eax, 3
  0001c	50		 push	 eax
  0001d	e8 00 00 00 00	 call	 ??2@YAPAXI@Z		; operator new
  00022	59		 pop	 ecx
  00023	85 c0		 test	 eax, eax

; 38   : 
; 39   : 	return ((_Ty _FARQ *)_Ptr);

  00025	75 26		 jne	 SHORT $LN5@Allocate
$LN1@Allocate:

; 37   : 		_THROW_NCEE(bad_alloc, 0);

  00027	83 65 08 00	 and	 DWORD PTR $T532834[ebp], 0
  0002b	8d 45 08	 lea	 eax, DWORD PTR $T532834[ebp]
  0002e	50		 push	 eax
  0002f	8d 4d f4	 lea	 ecx, DWORD PTR $T532829[ebp]
  00032	ff 15 00 00 00
	00		 call	 DWORD PTR __imp_??0exception@std@@QAE@ABQBD@Z
  00038	68 00 00 00 00	 push	 OFFSET __TI2?AVbad_alloc@std@@
  0003d	8d 45 f4	 lea	 eax, DWORD PTR $T532829[ebp]
  00040	50		 push	 eax
  00041	c7 45 f4 00 00
	00 00		 mov	 DWORD PTR $T532829[ebp], OFFSET ??_7bad_alloc@std@@6B@
  00048	e8 00 00 00 00	 call	 __CxxThrowException@8
$LN10@Allocate:
$LN5@Allocate:

; 40   : 	}

  0004d	c9		 leave
  0004e	c3		 ret	 0
$LN9@Allocate:
??$_Allocate@USecondAttribute@@@std@@YAPAUSecondAttribute@@IPAU1@@Z ENDP ; std::_Allocate<SecondAttribute>
_TEXT	ENDS
PUBLIC	??$forward@AAUSecondAttribute@@@std@@YAAAUSecondAttribute@@AAU1@@Z ; std::forward<SecondAttribute &>
; Function compile flags: /Ogsp
; File c:\program files (x86)\microsoft visual studio 10.0\vc\include\utility
;	COMDAT ??$forward@AAUSecondAttribute@@@std@@YAAAUSecondAttribute@@AAU1@@Z
_TEXT	SEGMENT
__Arg$ = 8						; size = 4
??$forward@AAUSecondAttribute@@@std@@YAAAUSecondAttribute@@AAU1@@Z PROC ; std::forward<SecondAttribute &>, COMDAT

; 78   : 	{	// forward _Arg, given explicitly specified type parameter

  00000	55		 push	 ebp
  00001	8b ec		 mov	 ebp, esp

; 79   : 	return ((_Ty&&)_Arg);

  00003	8b 45 08	 mov	 eax, DWORD PTR __Arg$[ebp]

; 80   : 	}

  00006	5d		 pop	 ebp
  00007	c3		 ret	 0
??$forward@AAUSecondAttribute@@@std@@YAAAUSecondAttribute@@AAU1@@Z ENDP ; std::forward<SecondAttribute &>
_TEXT	ENDS
PUBLIC	??$construct@AAUSecondAttribute@@@?$allocator@USecondAttribute@@@std@@QAEXPAUSecondAttribute@@AAU2@@Z ; std::allocator<SecondAttribute>::construct<SecondAttribute &>
; Function compile flags: /Ogsp
; File c:\program files (x86)\microsoft visual studio 10.0\vc\include\xmemory
;	COMDAT ??$construct@AAUSecondAttribute@@@?$allocator@USecondAttribute@@@std@@QAEXPAUSecondAttribute@@AAU2@@Z
_TEXT	SEGMENT
__Ptr$ = 8						; size = 4
__Val$ = 12						; size = 4
??$construct@AAUSecondAttribute@@@?$allocator@USecondAttribute@@@std@@QAEXPAUSecondAttribute@@AAU2@@Z PROC ; std::allocator<SecondAttribute>::construct<SecondAttribute &>, COMDAT
; _this$ = ecx

; 206  : 		void construct(pointer _Ptr, _Other&& _Val)

  00000	55		 push	 ebp
  00001	8b ec		 mov	 ebp, esp

; 207  : 		{	// construct object at _Ptr with value _Val
; 208  : 		::new ((void _FARQ *)_Ptr) _Ty(_STD forward<_Other>(_Val));

  00003	8b 45 08	 mov	 eax, DWORD PTR __Ptr$[ebp]
  00006	85 c0		 test	 eax, eax
  00008	74 0d		 je	 SHORT $LN3@construct
  0000a	8b 4d 0c	 mov	 ecx, DWORD PTR __Val$[ebp]
  0000d	8b 11		 mov	 edx, DWORD PTR [ecx]
  0000f	89 10		 mov	 DWORD PTR [eax], edx
  00011	8b 49 04	 mov	 ecx, DWORD PTR [ecx+4]
  00014	89 48 04	 mov	 DWORD PTR [eax+4], ecx
$LN3@construct:

; 209  : 		}

  00017	5d		 pop	 ebp
  00018	c2 08 00	 ret	 8
??$construct@AAUSecondAttribute@@@?$allocator@USecondAttribute@@@std@@QAEXPAUSecondAttribute@@AAU2@@Z ENDP ; std::allocator<SecondAttribute>::construct<SecondAttribute &>
_TEXT	ENDS
PUBLIC	??$forward@ABUSecondAttribute@@@std@@YAABUSecondAttribute@@ABU1@@Z ; std::forward<SecondAttribute const &>
; Function compile flags: /Ogsp
; File c:\program files (x86)\microsoft visual studio 10.0\vc\include\utility
;	COMDAT ??$forward@ABUSecondAttribute@@@std@@YAABUSecondAttribute@@ABU1@@Z
_TEXT	SEGMENT
__Arg$ = 8						; size = 4
??$forward@ABUSecondAttribute@@@std@@YAABUSecondAttribute@@ABU1@@Z PROC ; std::forward<SecondAttribute const &>, COMDAT

; 78   : 	{	// forward _Arg, given explicitly specified type parameter

  00000	55		 push	 ebp
  00001	8b ec		 mov	 ebp, esp

; 79   : 	return ((_Ty&&)_Arg);

  00003	8b 45 08	 mov	 eax, DWORD PTR __Arg$[ebp]

; 80   : 	}

  00006	5d		 pop	 ebp
  00007	c3		 ret	 0
??$forward@ABUSecondAttribute@@@std@@YAABUSecondAttribute@@ABU1@@Z ENDP ; std::forward<SecondAttribute const &>
_TEXT	ENDS
PUBLIC	??$_Ptr_cat@USecondAttribute@@U1@@std@@YA?AU_Nonscalar_ptr_iterator_tag@0@PAUSecondAttribute@@0@Z ; std::_Ptr_cat<SecondAttribute,SecondAttribute>
; Function compile flags: /Ogsp
; File c:\program files (x86)\microsoft visual studio 10.0\vc\include\xutility
;	COMDAT ??$_Ptr_cat@USecondAttribute@@U1@@std@@YA?AU_Nonscalar_ptr_iterator_tag@0@PAUSecondAttribute@@0@Z
_TEXT	SEGMENT
__Cat$ = -1						; size = 1
___formal$ = 8						; size = 4
___formal$ = 12						; size = 4
??$_Ptr_cat@USecondAttribute@@U1@@std@@YA?AU_Nonscalar_ptr_iterator_tag@0@PAUSecondAttribute@@0@Z PROC ; std::_Ptr_cat<SecondAttribute,SecondAttribute>, COMDAT

; 516  : 	{	// return pointer category from pointers

  00000	55		 push	 ebp
  00001	8b ec		 mov	 ebp, esp
  00003	51		 push	 ecx

; 517  : 	typename _Ptr_cat_helper<_Elem1, _Elem2>::_Type _Cat;
; 518  : 	return (_Cat);

  00004	8a 45 ff	 mov	 al, BYTE PTR __Cat$[ebp]

; 519  : 	}

  00007	c9		 leave
  00008	c3		 ret	 0
??$_Ptr_cat@USecondAttribute@@U1@@std@@YA?AU_Nonscalar_ptr_iterator_tag@0@PAUSecondAttribute@@0@Z ENDP ; std::_Ptr_cat<SecondAttribute,SecondAttribute>
_TEXT	ENDS
PUBLIC	??$_Construct@USecondAttribute@@ABU1@@std@@YAXPAUSecondAttribute@@ABU1@@Z ; std::_Construct<SecondAttribute,SecondAttribute const &>
; Function compile flags: /Ogsp
; File c:\program files (x86)\microsoft visual studio 10.0\vc\include\xmemory
;	COMDAT ??$_Construct@USecondAttribute@@ABU1@@std@@YAXPAUSecondAttribute@@ABU1@@Z
_TEXT	SEGMENT
__Ptr$ = 8						; size = 4
__Val$ = 12						; size = 4
??$_Construct@USecondAttribute@@ABU1@@std@@YAXPAUSecondAttribute@@ABU1@@Z PROC ; std::_Construct<SecondAttribute,SecondAttribute const &>, COMDAT

; 46   : 	{	// construct object at _Ptr with value _Val

  00000	55		 push	 ebp
  00001	8b ec		 mov	 ebp, esp

; 47   : 	void _FARQ *_Vptr = _Ptr;
; 48   : 	::new (_Vptr) _Ty1(_STD forward<_Ty2>(_Val));

  00003	8b 45 08	 mov	 eax, DWORD PTR __Ptr$[ebp]
  00006	85 c0		 test	 eax, eax
  00008	74 0d		 je	 SHORT $LN3@Construct
  0000a	8b 4d 0c	 mov	 ecx, DWORD PTR __Val$[ebp]
  0000d	8b 11		 mov	 edx, DWORD PTR [ecx]
  0000f	89 10		 mov	 DWORD PTR [eax], edx
  00011	8b 49 04	 mov	 ecx, DWORD PTR [ecx+4]
  00014	89 48 04	 mov	 DWORD PTR [eax+4], ecx
$LN3@Construct:

; 49   : 	}

  00017	5d		 pop	 ebp
  00018	c3		 ret	 0
??$_Construct@USecondAttribute@@ABU1@@std@@YAXPAUSecondAttribute@@ABU1@@Z ENDP ; std::_Construct<SecondAttribute,SecondAttribute const &>
_TEXT	ENDS
PUBLIC	??$move@AAUSecondAttribute@@@std@@YA$$QAUSecondAttribute@@AAU1@@Z ; std::move<SecondAttribute &>
; Function compile flags: /Ogsp
; File c:\program files (x86)\microsoft visual studio 10.0\vc\include\utility
;	COMDAT ??$move@AAUSecondAttribute@@@std@@YA$$QAUSecondAttribute@@AAU1@@Z
_TEXT	SEGMENT
__Arg$ = 8						; size = 4
??$move@AAUSecondAttribute@@@std@@YA$$QAUSecondAttribute@@AAU1@@Z PROC ; std::move<SecondAttribute &>, COMDAT

; 86   : 	{	// forward _Arg as movable

  00000	55		 push	 ebp
  00001	8b ec		 mov	 ebp, esp

; 87   : 	return ((typename tr1::_Remove_reference<_Ty>::_Type&&)_Arg);

  00003	8b 45 08	 mov	 eax, DWORD PTR __Arg$[ebp]

; 88   : 	}

  00006	5d		 pop	 ebp
  00007	c3		 ret	 0
??$move@AAUSecondAttribute@@@std@@YA$$QAUSecondAttribute@@AAU1@@Z ENDP ; std::move<SecondAttribute &>
_TEXT	ENDS
PUBLIC	??$_Val_type@PAUSecondAttribute@@@std@@YAPAUSecondAttribute@@PAU1@@Z ; std::_Val_type<SecondAttribute *>
; Function compile flags: /Ogsp
; File c:\program files (x86)\microsoft visual studio 10.0\vc\include\xutility
;	COMDAT ??$_Val_type@PAUSecondAttribute@@@std@@YAPAUSecondAttribute@@PAU1@@Z
_TEXT	SEGMENT
___formal$ = 8						; size = 4
??$_Val_type@PAUSecondAttribute@@@std@@YAPAUSecondAttribute@@PAU1@@Z PROC ; std::_Val_type<SecondAttribute *>, COMDAT

; 790  : 	return (0);

  00000	33 c0		 xor	 eax, eax

; 791  : 	}

  00002	c3		 ret	 0
??$_Val_type@PAUSecondAttribute@@@std@@YAPAUSecondAttribute@@PAU1@@Z ENDP ; std::_Val_type<SecondAttribute *>
_TEXT	ENDS
PUBLIC	??$_Destroy@USecondAttribute@@@std@@YAXPAUSecondAttribute@@@Z ; std::_Destroy<SecondAttribute>
; Function compile flags: /Ogsp
; File c:\program files (x86)\microsoft visual studio 10.0\vc\include\xmemory
;	COMDAT ??$_Destroy@USecondAttribute@@@std@@YAXPAUSecondAttribute@@@Z
_TEXT	SEGMENT
__Ptr$ = 8						; size = 4
??$_Destroy@USecondAttribute@@@std@@YAXPAUSecondAttribute@@@Z PROC ; std::_Destroy<SecondAttribute>, COMDAT

; 63   : 	_Ptr->~_Ty();
; 64   : 	}

  00000	c3		 ret	 0
??$_Destroy@USecondAttribute@@@std@@YAXPAUSecondAttribute@@@Z ENDP ; std::_Destroy<SecondAttribute>
_TEXT	ENDS
PUBLIC	??$forward@USecondAttribute@@@std@@YA$$QAUSecondAttribute@@AAU1@@Z ; std::forward<SecondAttribute>
; Function compile flags: /Ogsp
; File c:\program files (x86)\microsoft visual studio 10.0\vc\include\utility
;	COMDAT ??$forward@USecondAttribute@@@std@@YA$$QAUSecondAttribute@@AAU1@@Z
_TEXT	SEGMENT
__Arg$ = 8						; size = 4
??$forward@USecondAttribute@@@std@@YA$$QAUSecondAttribute@@AAU1@@Z PROC ; std::forward<SecondAttribute>, COMDAT

; 78   : 	{	// forward _Arg, given explicitly specified type parameter

  00000	55		 push	 ebp
  00001	8b ec		 mov	 ebp, esp

; 79   : 	return ((_Ty&&)_Arg);

  00003	8b 45 08	 mov	 eax, DWORD PTR __Arg$[ebp]

; 80   : 	}

  00006	5d		 pop	 ebp
  00007	c3		 ret	 0
??$forward@USecondAttribute@@@std@@YA$$QAUSecondAttribute@@AAU1@@Z ENDP ; std::forward<SecondAttribute>
_TEXT	ENDS
PUBLIC	??0D3DXVECTOR3@@QAE@XZ				; D3DXVECTOR3::D3DXVECTOR3
; Function compile flags: /Ogsp
; File c:\program files (x86)\microsoft directx sdk (june 2010)\include\d3dx9math.h
;	COMDAT ??0D3DXVECTOR3@@QAE@XZ
_TEXT	SEGMENT
??0D3DXVECTOR3@@QAE@XZ PROC				; D3DXVECTOR3::D3DXVECTOR3, COMDAT
; _this$ = ecx

; 165  :     D3DXVECTOR3() {};

  00000	8b c1		 mov	 eax, ecx
  00002	c3		 ret	 0
??0D3DXVECTOR3@@QAE@XZ ENDP				; D3DXVECTOR3::D3DXVECTOR3
_TEXT	ENDS
PUBLIC	??0D3DXQUATERNION@@QAE@XZ			; D3DXQUATERNION::D3DXQUATERNION
; Function compile flags: /Ogsp
;	COMDAT ??0D3DXQUATERNION@@QAE@XZ
_TEXT	SEGMENT
??0D3DXQUATERNION@@QAE@XZ PROC				; D3DXQUATERNION::D3DXQUATERNION, COMDAT
; _this$ = ecx

; 429  :     D3DXQUATERNION() {}

  00000	8b c1		 mov	 eax, ecx
  00002	c3		 ret	 0
??0D3DXQUATERNION@@QAE@XZ ENDP				; D3DXQUATERNION::D3DXQUATERNION
_TEXT	ENDS
PUBLIC	??0D3DXVECTOR3@@QAE@MMM@Z			; D3DXVECTOR3::D3DXVECTOR3
; Function compile flags: /Ogsp
; File c:\program files (x86)\microsoft directx sdk (june 2010)\include\d3dx9math.inl
;	COMDAT ??0D3DXVECTOR3@@QAE@MMM@Z
_TEXT	SEGMENT
_fx$ = 8						; size = 4
_fy$ = 12						; size = 4
_fz$ = 16						; size = 4
??0D3DXVECTOR3@@QAE@MMM@Z PROC				; D3DXVECTOR3::D3DXVECTOR3, COMDAT
; _this$ = ecx

; 303  : {

  00000	55		 push	 ebp
  00001	8b ec		 mov	 ebp, esp

; 304  :     x = fx;

  00003	f3 0f 10 45 08	 movss	 xmm0, DWORD PTR _fx$[ebp]
  00008	8b c1		 mov	 eax, ecx
  0000a	f3 0f 11 00	 movss	 DWORD PTR [eax], xmm0

; 305  :     y = fy;

  0000e	f3 0f 10 45 0c	 movss	 xmm0, DWORD PTR _fy$[ebp]
  00013	f3 0f 11 40 04	 movss	 DWORD PTR [eax+4], xmm0

; 306  :     z = fz;

  00018	f3 0f 10 45 10	 movss	 xmm0, DWORD PTR _fz$[ebp]
  0001d	f3 0f 11 40 08	 movss	 DWORD PTR [eax+8], xmm0

; 307  : }

  00022	5d		 pop	 ebp
  00023	c2 0c 00	 ret	 12			; 0000000cH
??0D3DXVECTOR3@@QAE@MMM@Z ENDP				; D3DXVECTOR3::D3DXVECTOR3
_TEXT	ENDS
PUBLIC	__mask@@NegFloat@
PUBLIC	??GD3DXVECTOR3@@QBE?AU0@XZ			; D3DXVECTOR3::operator-
;	COMDAT __mask@@NegFloat@
CONST	SEGMENT
__mask@@NegFloat@ DB 00H, 00H, 00H, 080H, 00H, 00H, 00H, 080H, 00H, 00H, 00H
	DB	080H, 00H, 00H, 00H, 080H
; Function compile flags: /Ogsp
CONST	ENDS
;	COMDAT ??GD3DXVECTOR3@@QBE?AU0@XZ
_TEXT	SEGMENT
___$ReturnUdt$ = 8					; size = 4
??GD3DXVECTOR3@@QBE?AU0@XZ PROC				; D3DXVECTOR3::operator-, COMDAT
; _this$ = ecx

; 372  : {

  00000	55		 push	 ebp
  00001	8b ec		 mov	 ebp, esp

; 373  :     return D3DXVECTOR3(-x, -y, -z);

  00003	f3 0f 10 05 00
	00 00 00	 movss	 xmm0, DWORD PTR __mask@@NegFloat@
  0000b	8b 45 08	 mov	 eax, DWORD PTR ___$ReturnUdt$[ebp]
  0000e	f3 0f 10 09	 movss	 xmm1, DWORD PTR [ecx]
  00012	0f 57 c8	 xorps	 xmm1, xmm0
  00015	f3 0f 11 08	 movss	 DWORD PTR [eax], xmm1
  00019	f3 0f 10 49 04	 movss	 xmm1, DWORD PTR [ecx+4]
  0001e	0f 57 c8	 xorps	 xmm1, xmm0
  00021	f3 0f 11 48 04	 movss	 DWORD PTR [eax+4], xmm1
  00026	f3 0f 10 49 08	 movss	 xmm1, DWORD PTR [ecx+8]
  0002b	0f 57 c8	 xorps	 xmm1, xmm0
  0002e	f3 0f 11 48 08	 movss	 DWORD PTR [eax+8], xmm1

; 374  : }

  00033	5d		 pop	 ebp
  00034	c2 04 00	 ret	 4
??GD3DXVECTOR3@@QBE?AU0@XZ ENDP				; D3DXVECTOR3::operator-
_TEXT	ENDS
PUBLIC	??HD3DXVECTOR3@@QBE?AU0@ABU0@@Z			; D3DXVECTOR3::operator+
; Function compile flags: /Ogsp
;	COMDAT ??HD3DXVECTOR3@@QBE?AU0@ABU0@@Z
_TEXT	SEGMENT
___$ReturnUdt$ = 8					; size = 4
_v$ = 12						; size = 4
??HD3DXVECTOR3@@QBE?AU0@ABU0@@Z PROC			; D3DXVECTOR3::operator+, COMDAT
; _this$ = ecx

; 380  : {

  00000	55		 push	 ebp
  00001	8b ec		 mov	 ebp, esp

; 381  :     return D3DXVECTOR3(x + v.x, y + v.y, z + v.z);

  00003	8b 55 0c	 mov	 edx, DWORD PTR _v$[ebp]
  00006	f3 0f 10 02	 movss	 xmm0, DWORD PTR [edx]
  0000a	f3 0f 10 09	 movss	 xmm1, DWORD PTR [ecx]
  0000e	8b 45 08	 mov	 eax, DWORD PTR ___$ReturnUdt$[ebp]
  00011	0f 5a c0	 cvtps2pd xmm0, xmm0
  00014	0f 5a c9	 cvtps2pd xmm1, xmm1
  00017	f2 0f 58 c1	 addsd	 xmm0, xmm1
  0001b	f3 0f 10 49 04	 movss	 xmm1, DWORD PTR [ecx+4]
  00020	66 0f 5a c0	 cvtpd2ps xmm0, xmm0
  00024	f3 0f 11 00	 movss	 DWORD PTR [eax], xmm0
  00028	f3 0f 10 42 04	 movss	 xmm0, DWORD PTR [edx+4]
  0002d	0f 5a c0	 cvtps2pd xmm0, xmm0
  00030	0f 5a c9	 cvtps2pd xmm1, xmm1
  00033	f2 0f 58 c1	 addsd	 xmm0, xmm1
  00037	f3 0f 10 49 08	 movss	 xmm1, DWORD PTR [ecx+8]
  0003c	66 0f 5a c0	 cvtpd2ps xmm0, xmm0
  00040	f3 0f 11 40 04	 movss	 DWORD PTR [eax+4], xmm0
  00045	f3 0f 10 42 08	 movss	 xmm0, DWORD PTR [edx+8]
  0004a	0f 5a c0	 cvtps2pd xmm0, xmm0
  0004d	0f 5a c9	 cvtps2pd xmm1, xmm1
  00050	f2 0f 58 c1	 addsd	 xmm0, xmm1
  00054	66 0f 5a c0	 cvtpd2ps xmm0, xmm0
  00058	f3 0f 11 40 08	 movss	 DWORD PTR [eax+8], xmm0

; 382  : }

  0005d	5d		 pop	 ebp
  0005e	c2 08 00	 ret	 8
??HD3DXVECTOR3@@QBE?AU0@ABU0@@Z ENDP			; D3DXVECTOR3::operator+
_TEXT	ENDS
PUBLIC	??DD3DXVECTOR3@@QBE?AU0@M@Z			; D3DXVECTOR3::operator*
; Function compile flags: /Ogsp
;	COMDAT ??DD3DXVECTOR3@@QBE?AU0@M@Z
_TEXT	SEGMENT
___$ReturnUdt$ = 8					; size = 4
_f$ = 12						; size = 4
??DD3DXVECTOR3@@QBE?AU0@M@Z PROC			; D3DXVECTOR3::operator*, COMDAT
; _this$ = ecx

; 392  : {

  00000	55		 push	 ebp
  00001	8b ec		 mov	 ebp, esp

; 393  :     return D3DXVECTOR3(x * f, y * f, z * f);

  00003	f3 0f 10 4d 0c	 movss	 xmm1, DWORD PTR _f$[ebp]
  00008	f3 0f 10 01	 movss	 xmm0, DWORD PTR [ecx]
  0000c	8b 45 08	 mov	 eax, DWORD PTR ___$ReturnUdt$[ebp]
  0000f	0f 5a c0	 cvtps2pd xmm0, xmm0
  00012	0f 5a c9	 cvtps2pd xmm1, xmm1
  00015	f2 0f 59 c1	 mulsd	 xmm0, xmm1
  00019	f3 0f 10 4d 0c	 movss	 xmm1, DWORD PTR _f$[ebp]
  0001e	66 0f 5a c0	 cvtpd2ps xmm0, xmm0
  00022	f3 0f 11 00	 movss	 DWORD PTR [eax], xmm0
  00026	f3 0f 10 41 04	 movss	 xmm0, DWORD PTR [ecx+4]
  0002b	0f 5a c0	 cvtps2pd xmm0, xmm0
  0002e	0f 5a c9	 cvtps2pd xmm1, xmm1
  00031	f2 0f 59 c1	 mulsd	 xmm0, xmm1
  00035	f3 0f 10 4d 0c	 movss	 xmm1, DWORD PTR _f$[ebp]
  0003a	66 0f 5a c0	 cvtpd2ps xmm0, xmm0
  0003e	f3 0f 11 40 04	 movss	 DWORD PTR [eax+4], xmm0
  00043	f3 0f 10 41 08	 movss	 xmm0, DWORD PTR [ecx+8]
  00048	0f 5a c0	 cvtps2pd xmm0, xmm0
  0004b	0f 5a c9	 cvtps2pd xmm1, xmm1
  0004e	f2 0f 59 c1	 mulsd	 xmm0, xmm1
  00052	66 0f 5a c0	 cvtpd2ps xmm0, xmm0
  00056	f3 0f 11 40 08	 movss	 DWORD PTR [eax+8], xmm0

; 394  : }

  0005b	5d		 pop	 ebp
  0005c	c2 08 00	 ret	 8
??DD3DXVECTOR3@@QBE?AU0@M@Z ENDP			; D3DXVECTOR3::operator*
_TEXT	ENDS
PUBLIC	?D3DXVec3Cross@@YAPAUD3DXVECTOR3@@PAU1@PBU1@1@Z	; D3DXVec3Cross
; Function compile flags: /Ogsp
;	COMDAT ?D3DXVec3Cross@@YAPAUD3DXVECTOR3@@PAU1@PBU1@1@Z
_TEXT	SEGMENT
_v$ = -12						; size = 12
_pOut$ = 8						; size = 4
_pV1$ = 12						; size = 4
_pV2$ = 16						; size = 4
?D3DXVec3Cross@@YAPAUD3DXVECTOR3@@PAU1@PBU1@1@Z PROC	; D3DXVec3Cross, COMDAT

; 1747 : {

  00000	55		 push	 ebp
  00001	8b ec		 mov	 ebp, esp
  00003	83 ec 0c	 sub	 esp, 12			; 0000000cH

; 1757 :     v.z = pV1->x * pV2->y - pV1->y * pV2->x;
; 1758 : 
; 1759 :     *pOut = v;

  00006	56		 push	 esi
  00007	57		 push	 edi

; 1748 :     D3DXVECTOR3 v;
; 1749 : 
; 1750 : #ifdef D3DX_DEBUG
; 1751 :     if(!pOut || !pV1 || !pV2)
; 1752 :         return NULL;
; 1753 : #endif
; 1754 : 
; 1755 :     v.x = pV1->y * pV2->z - pV1->z * pV2->y;

  00008	8b 45 0c	 mov	 eax, DWORD PTR _pV1$[ebp]
  0000b	f3 0f 10 40 04	 movss	 xmm0, DWORD PTR [eax+4]
  00010	f3 0f 10 50 08	 movss	 xmm2, DWORD PTR [eax+8]
  00015	8b 4d 10	 mov	 ecx, DWORD PTR _pV2$[ebp]
  00018	f3 0f 10 49 08	 movss	 xmm1, DWORD PTR [ecx+8]
  0001d	f3 0f 10 59 04	 movss	 xmm3, DWORD PTR [ecx+4]
  00022	0f 5a e8	 cvtps2pd xmm5, xmm0
  00025	0f 5a e1	 cvtps2pd xmm4, xmm1
  00028	0f 5a f2	 cvtps2pd xmm6, xmm2
  0002b	f2 0f 59 e5	 mulsd	 xmm4, xmm5

; 1756 :     v.y = pV1->z * pV2->x - pV1->x * pV2->z;

  0002f	0f 5a d2	 cvtps2pd xmm2, xmm2
  00032	0f 5a c9	 cvtps2pd xmm1, xmm1
  00035	0f 5a eb	 cvtps2pd xmm5, xmm3
  00038	f2 0f 59 ee	 mulsd	 xmm5, xmm6
  0003c	f2 0f 5c e5	 subsd	 xmm4, xmm5
  00040	f3 0f 10 28	 movss	 xmm5, DWORD PTR [eax]

; 1757 :     v.z = pV1->x * pV2->y - pV1->y * pV2->x;
; 1758 : 
; 1759 :     *pOut = v;

  00044	8b 45 08	 mov	 eax, DWORD PTR _pOut$[ebp]
  00047	66 0f 5a e4	 cvtpd2ps xmm4, xmm4
  0004b	f3 0f 11 65 f4	 movss	 DWORD PTR _v$[ebp], xmm4
  00050	f3 0f 10 21	 movss	 xmm4, DWORD PTR [ecx]
  00054	0f 5a f4	 cvtps2pd xmm6, xmm4
  00057	f2 0f 59 f2	 mulsd	 xmm6, xmm2
  0005b	0f 5a d5	 cvtps2pd xmm2, xmm5
  0005e	f2 0f 59 d1	 mulsd	 xmm2, xmm1
  00062	f2 0f 5c f2	 subsd	 xmm6, xmm2
  00066	66 0f 5a ce	 cvtpd2ps xmm1, xmm6
  0006a	f3 0f 11 4d f8	 movss	 DWORD PTR _v$[ebp+4], xmm1
  0006f	0f 5a c0	 cvtps2pd xmm0, xmm0
  00072	0f 5a d3	 cvtps2pd xmm2, xmm3
  00075	0f 5a cd	 cvtps2pd xmm1, xmm5
  00078	f2 0f 59 ca	 mulsd	 xmm1, xmm2
  0007c	8d 75 f4	 lea	 esi, DWORD PTR _v$[ebp]
  0007f	8b f8		 mov	 edi, eax
  00081	0f 5a d4	 cvtps2pd xmm2, xmm4
  00084	f2 0f 59 d0	 mulsd	 xmm2, xmm0
  00088	f2 0f 5c ca	 subsd	 xmm1, xmm2
  0008c	66 0f 5a c1	 cvtpd2ps xmm0, xmm1
  00090	f3 0f 11 45 fc	 movss	 DWORD PTR _v$[ebp+8], xmm0
  00095	a5		 movsd
  00096	a5		 movsd
  00097	a5		 movsd
  00098	5f		 pop	 edi
  00099	5e		 pop	 esi

; 1760 :     return pOut;
; 1761 : }

  0009a	c9		 leave
  0009b	c3		 ret	 0
?D3DXVec3Cross@@YAPAUD3DXVECTOR3@@PAU1@PBU1@1@Z ENDP	; D3DXVec3Cross
_TEXT	ENDS
PUBLIC	?_DECSTR@@YAXPADH@Z				; _DECSTR
; Function compile flags: /Ogsp
; File d:\lost saga for developer\youtube\tutorial\source\src\lsclient\stringprotect.h
;	COMDAT ?_DECSTR@@YAXPADH@Z
_TEXT	SEGMENT
_s$ = 8							; size = 4
_l$ = 12						; size = 4
?_DECSTR@@YAXPADH@Z PROC				; _DECSTR, COMDAT

; 40   : __forceinline void _DECSTR(char* s, int l){int i=0,l4=(l-1)/4,*p=(int*)s;s[l-1]=0;for(;i<l4;++i)*(p++)^=0xEAEBECED;for(i=l4*4;i<l-1;++i)s[i]^=0xED-i%4;}

  00000	55		 push	 ebp
  00001	8b ec		 mov	 ebp, esp
  00003	8b 4d 0c	 mov	 ecx, DWORD PTR _l$[ebp]
  00006	56		 push	 esi
  00007	8b 75 08	 mov	 esi, DWORD PTR _s$[ebp]
  0000a	57		 push	 edi
  0000b	8d 79 ff	 lea	 edi, DWORD PTR [ecx-1]
  0000e	8b c7		 mov	 eax, edi
  00010	99		 cdq
  00011	83 e2 03	 and	 edx, 3
  00014	03 c2		 add	 eax, edx
  00016	c1 f8 02	 sar	 eax, 2
  00019	8b d6		 mov	 edx, esi
  0001b	c6 44 0e ff 00	 mov	 BYTE PTR [esi+ecx-1], 0
  00020	85 c0		 test	 eax, eax
  00022	7e 0e		 jle	 SHORT $LN4@DECSTR
  00024	8b c8		 mov	 ecx, eax
$LL6@DECSTR:
  00026	81 32 ed ec eb
	ea		 xor	 DWORD PTR [edx], -353637139 ; eaebecedH
  0002c	83 c2 04	 add	 edx, 4
  0002f	49		 dec	 ecx
  00030	75 f4		 jne	 SHORT $LL6@DECSTR
$LN4@DECSTR:
  00032	c1 e0 02	 shl	 eax, 2
  00035	eb 17		 jmp	 SHORT $LN14@DECSTR
$LL3@DECSTR:
  00037	8b c8		 mov	 ecx, eax
  00039	81 e1 03 00 00
	80		 and	 ecx, -2147483645	; 80000003H
  0003f	79 05		 jns	 SHORT $LN13@DECSTR
  00041	49		 dec	 ecx
  00042	83 c9 fc	 or	 ecx, -4			; fffffffcH
  00045	41		 inc	 ecx
$LN13@DECSTR:
  00046	b2 ed		 mov	 dl, -19			; ffffffedH
  00048	2a d1		 sub	 dl, cl
  0004a	30 14 30	 xor	 BYTE PTR [eax+esi], dl
  0004d	40		 inc	 eax
$LN14@DECSTR:
  0004e	3b c7		 cmp	 eax, edi
  00050	7c e5		 jl	 SHORT $LL3@DECSTR
  00052	5f		 pop	 edi
  00053	5e		 pop	 esi
  00054	5d		 pop	 ebp
  00055	c3		 ret	 0
?_DECSTR@@YAXPADH@Z ENDP				; _DECSTR
_TEXT	ENDS
PUBLIC	?GetGroup@ioGameEntity@@QBEPAVioEntityGroup@@XZ	; ioGameEntity::GetGroup
; Function compile flags: /Ogsp
; File d:\lost saga for developer\youtube\tutorial\source\src\lsclient\iogameentity.h
;	COMDAT ?GetGroup@ioGameEntity@@QBEPAVioEntityGroup@@XZ
_TEXT	SEGMENT
?GetGroup@ioGameEntity@@QBEPAVioEntityGroup@@XZ PROC	; ioGameEntity::GetGroup, COMDAT
; _this$ = ecx

; 166  : 	inline ioEntityGroup* GetGroup() const { return m_pGroup; }

  00000	8b 41 04	 mov	 eax, DWORD PTR [ecx+4]
  00003	c3		 ret	 0
?GetGroup@ioGameEntity@@QBEPAVioEntityGroup@@XZ ENDP	; ioGameEntity::GetGroup
_TEXT	ENDS
PUBLIC	??_R0?AVioGameEntity@@@8			; ioGameEntity `RTTI Type Descriptor'
PUBLIC	??_R0?AVioPlayEntity@@@8			; ioPlayEntity `RTTI Type Descriptor'
PUBLIC	?ToPlayEntity@@YAPAVioPlayEntity@@PAVioGameEntity@@@Z ; ToPlayEntity
EXTRN	___RTDynamicCast:PROC
;	COMDAT ??_R0?AVioGameEntity@@@8
; File d:\lost saga for developer\youtube\tutorial\source\src\lsclient\ioplayentity.h
_DATA	SEGMENT
??_R0?AVioGameEntity@@@8 DD FLAT:??_7type_info@@6B@	; ioGameEntity `RTTI Type Descriptor'
	DD	00H
	DB	'.?AVioGameEntity@@', 00H
_DATA	ENDS
;	COMDAT ??_R0?AVioPlayEntity@@@8
_DATA	SEGMENT
??_R0?AVioPlayEntity@@@8 DD FLAT:??_7type_info@@6B@	; ioPlayEntity `RTTI Type Descriptor'
	DD	00H
	DB	'.?AVioPlayEntity@@', 00H
; Function compile flags: /Ogsp
_DATA	ENDS
;	COMDAT ?ToPlayEntity@@YAPAVioPlayEntity@@PAVioGameEntity@@@Z
_TEXT	SEGMENT
_pObj$ = 8						; size = 4
?ToPlayEntity@@YAPAVioPlayEntity@@PAVioGameEntity@@@Z PROC ; ToPlayEntity, COMDAT

; 121  : {

  00000	55		 push	 ebp
  00001	8b ec		 mov	 ebp, esp
  00003	56		 push	 esi

; 122  : 	if( !pObj || pObj->GetTypeID() != ioGameEntity::GET_PLAY_ENTITY )

  00004	8b 75 08	 mov	 esi, DWORD PTR _pObj$[ebp]
  00007	85 f6		 test	 esi, esi
  00009	74 25		 je	 SHORT $LN1@ToPlayEnti
  0000b	8b 06		 mov	 eax, DWORD PTR [esi]
  0000d	8b ce		 mov	 ecx, esi
  0000f	ff 50 10	 call	 DWORD PTR [eax+16]
  00012	83 f8 01	 cmp	 eax, 1
  00015	75 19		 jne	 SHORT $LN1@ToPlayEnti

; 124  : 
; 125  : 	return dynamic_cast< ioPlayEntity* >( pObj );

  00017	6a 00		 push	 0
  00019	68 00 00 00 00	 push	 OFFSET ??_R0?AVioPlayEntity@@@8
  0001e	68 00 00 00 00	 push	 OFFSET ??_R0?AVioGameEntity@@@8
  00023	6a 00		 push	 0
  00025	56		 push	 esi
  00026	e8 00 00 00 00	 call	 ___RTDynamicCast
  0002b	83 c4 14	 add	 esp, 20			; 00000014H
  0002e	eb 02		 jmp	 SHORT $LN3@ToPlayEnti
$LN1@ToPlayEnti:

; 123  : 		return NULL;

  00030	33 c0		 xor	 eax, eax
$LN3@ToPlayEnti:
  00032	5e		 pop	 esi

; 126  : }

  00033	5d		 pop	 ebp
  00034	c3		 ret	 0
?ToPlayEntity@@YAPAVioPlayEntity@@PAVioGameEntity@@@Z ENDP ; ToPlayEntity
_TEXT	ENDS
PUBLIC	?IsLive@ioWeapon@@QBE_NXZ			; ioWeapon::IsLive
; Function compile flags: /Ogsp
; File d:\lost saga for developer\youtube\tutorial\source\src\lsclient\ioweapon.h
;	COMDAT ?IsLive@ioWeapon@@QBE_NXZ
_TEXT	SEGMENT
?IsLive@ioWeapon@@QBE_NXZ PROC				; ioWeapon::IsLive, COMDAT
; _this$ = ecx

; 533  : 	inline bool IsLive() const { return m_bLive; }

  00000	8a 81 82 05 00
	00		 mov	 al, BYTE PTR [ecx+1410]
  00006	c3		 ret	 0
?IsLive@ioWeapon@@QBE_NXZ ENDP				; ioWeapon::IsLive
_TEXT	ENDS
PUBLIC	?GetParentSceneNode@ioWeapon@@QBEPAVioSceneNode@@XZ ; ioWeapon::GetParentSceneNode
; Function compile flags: /Ogsp
;	COMDAT ?GetParentSceneNode@ioWeapon@@QBEPAVioSceneNode@@XZ
_TEXT	SEGMENT
?GetParentSceneNode@ioWeapon@@QBEPAVioSceneNode@@XZ PROC ; ioWeapon::GetParentSceneNode, COMDAT
; _this$ = ecx

; 797  : 	ioSceneNode* GetParentSceneNode() const { return m_pSceneNode; }

  00000	8b 41 04	 mov	 eax, DWORD PTR [ecx+4]
  00003	c3		 ret	 0
?GetParentSceneNode@ioWeapon@@QBEPAVioSceneNode@@XZ ENDP ; ioWeapon::GetParentSceneNode
_TEXT	ENDS
PUBLIC	?GetCreator@ioWeaponManager@@QAEPAVioPlayStage@@XZ ; ioWeaponManager::GetCreator
; Function compile flags: /Ogsp
; File d:\lost saga for developer\youtube\tutorial\source\src\lsclient\ioweaponmanager.h
;	COMDAT ?GetCreator@ioWeaponManager@@QAEPAVioPlayStage@@XZ
_TEXT	SEGMENT
?GetCreator@ioWeaponManager@@QAEPAVioPlayStage@@XZ PROC	; ioWeaponManager::GetCreator, COMDAT
; _this$ = ecx

; 152  : 	inline ioPlayStage* GetCreator() { return m_pPlayStage; }

  00000	8b 41 74	 mov	 eax, DWORD PTR [ecx+116]
  00003	c3		 ret	 0
?GetCreator@ioWeaponManager@@QAEPAVioPlayStage@@XZ ENDP	; ioWeaponManager::GetCreator
_TEXT	ENDS
PUBLIC	??_7?$CEncrypt@_N@@6B@				; CEncrypt<bool>::`vftable'
PUBLIC	??1?$CEncrypt@_N@@UAE@XZ			; CEncrypt<bool>::~CEncrypt<bool>
PUBLIC	??_R4?$CEncrypt@_N@@6B@				; CEncrypt<bool>::`RTTI Complete Object Locator'
PUBLIC	??_R0?AV?$CEncrypt@_N@@@8			; CEncrypt<bool> `RTTI Type Descriptor'
PUBLIC	??_R3?$CEncrypt@_N@@8				; CEncrypt<bool>::`RTTI Class Hierarchy Descriptor'
PUBLIC	??_R2?$CEncrypt@_N@@8				; CEncrypt<bool>::`RTTI Base Class Array'
PUBLIC	??_R1A@?0A@EA@?$CEncrypt@_N@@8			; CEncrypt<bool>::`RTTI Base Class Descriptor at (0,-1,0,64)'
EXTRN	??1ccddaabb@@UAE@XZ:PROC			; ccddaabb::~ccddaabb
EXTRN	??_E?$CEncrypt@_N@@UAEPAXI@Z:PROC		; CEncrypt<bool>::`vector deleting destructor'
;	COMDAT ??_R1A@?0A@EA@?$CEncrypt@_N@@8
; File d:\lost saga for developer\youtube\tutorial\source\src\lsclient\encryptvalue.h
rdata$r	SEGMENT
??_R1A@?0A@EA@?$CEncrypt@_N@@8 DD FLAT:??_R0?AV?$CEncrypt@_N@@@8 ; CEncrypt<bool>::`RTTI Base Class Descriptor at (0,-1,0,64)'
	DD	00H
	DD	00H
	DD	0ffffffffH
	DD	00H
	DD	040H
	DD	FLAT:??_R3?$CEncrypt@_N@@8
rdata$r	ENDS
;	COMDAT ??_R2?$CEncrypt@_N@@8
rdata$r	SEGMENT
??_R2?$CEncrypt@_N@@8 DD FLAT:??_R1A@?0A@EA@?$CEncrypt@_N@@8 ; CEncrypt<bool>::`RTTI Base Class Array'
rdata$r	ENDS
;	COMDAT ??_R3?$CEncrypt@_N@@8
rdata$r	SEGMENT
??_R3?$CEncrypt@_N@@8 DD 00H				; CEncrypt<bool>::`RTTI Class Hierarchy Descriptor'
	DD	00H
	DD	01H
	DD	FLAT:??_R2?$CEncrypt@_N@@8
rdata$r	ENDS
;	COMDAT ??_R0?AV?$CEncrypt@_N@@@8
_DATA	SEGMENT
??_R0?AV?$CEncrypt@_N@@@8 DD FLAT:??_7type_info@@6B@	; CEncrypt<bool> `RTTI Type Descriptor'
	DD	00H
	DB	'.?AV?$CEncrypt@_N@@', 00H
_DATA	ENDS
;	COMDAT ??_R4?$CEncrypt@_N@@6B@
rdata$r	SEGMENT
??_R4?$CEncrypt@_N@@6B@ DD 00H				; CEncrypt<bool>::`RTTI Complete Object Locator'
	DD	00H
	DD	00H
	DD	FLAT:??_R0?AV?$CEncrypt@_N@@@8
	DD	FLAT:??_R3?$CEncrypt@_N@@8
rdata$r	ENDS
;	COMDAT ??_7?$CEncrypt@_N@@6B@
CONST	SEGMENT
??_7?$CEncrypt@_N@@6B@ DD FLAT:??_R4?$CEncrypt@_N@@6B@	; CEncrypt<bool>::`vftable'
	DD	FLAT:??_E?$CEncrypt@_N@@UAEPAXI@Z
; Function compile flags: /Ogsp
CONST	ENDS
;	COMDAT ??1?$CEncrypt@_N@@UAE@XZ
_TEXT	SEGMENT
??1?$CEncrypt@_N@@UAE@XZ PROC				; CEncrypt<bool>::~CEncrypt<bool>, COMDAT
; _this$ = ecx

; 127  : 	{

  00000	c7 01 00 00 00
	00		 mov	 DWORD PTR [ecx], OFFSET ??_7?$CEncrypt@_N@@6B@

; 128  : 	}

  00006	83 c1 0c	 add	 ecx, 12			; 0000000cH
  00009	e9 00 00 00 00	 jmp	 ??1ccddaabb@@UAE@XZ	; ccddaabb::~ccddaabb
??1?$CEncrypt@_N@@UAE@XZ ENDP				; CEncrypt<bool>::~CEncrypt<bool>
; Function compile flags: /Ogsp
_TEXT	ENDS
;	COMDAT ??_G?$CEncrypt@_N@@UAEPAXI@Z
_TEXT	SEGMENT
___flags$ = 8						; size = 4
??_G?$CEncrypt@_N@@UAEPAXI@Z PROC			; CEncrypt<bool>::`scalar deleting destructor', COMDAT
; _this$ = ecx
  00000	55		 push	 ebp
  00001	8b ec		 mov	 ebp, esp
  00003	56		 push	 esi
  00004	8b f1		 mov	 esi, ecx
  00006	8d 4e 0c	 lea	 ecx, DWORD PTR [esi+12]
  00009	c7 06 00 00 00
	00		 mov	 DWORD PTR [esi], OFFSET ??_7?$CEncrypt@_N@@6B@
  0000f	e8 00 00 00 00	 call	 ??1ccddaabb@@UAE@XZ	; ccddaabb::~ccddaabb
  00014	f6 45 08 01	 test	 BYTE PTR ___flags$[ebp], 1
  00018	74 07		 je	 SHORT $LN1@scalar@2
  0001a	56		 push	 esi
  0001b	e8 00 00 00 00	 call	 ??3@YAXPAX@Z		; operator delete
  00020	59		 pop	 ecx
$LN1@scalar@2:
  00021	8b c6		 mov	 eax, esi
  00023	5e		 pop	 esi
  00024	5d		 pop	 ebp
  00025	c2 04 00	 ret	 4
??_G?$CEncrypt@_N@@UAEPAXI@Z ENDP			; CEncrypt<bool>::`scalar deleting destructor'
_TEXT	ENDS
PUBLIC	?DecryptValueToPool@?$CEncrypt@M@@QAEXPAM@Z	; CEncrypt<float>::DecryptValueToPool
EXTRN	?DecryptByte@ccddaabb@@QBEXPBDPADH@Z:PROC	; ccddaabb::DecryptByte
; Function compile flags: /Ogsp
;	COMDAT ?DecryptValueToPool@?$CEncrypt@M@@QAEXPAM@Z
_TEXT	SEGMENT
_value$ = 8						; size = 4
?DecryptValueToPool@?$CEncrypt@M@@QAEXPAM@Z PROC	; CEncrypt<float>::DecryptValueToPool, COMDAT
; _this$ = ecx

; 1648 : 	{

  00000	55		 push	 ebp
  00001	8b ec		 mov	 ebp, esp
  00003	56		 push	 esi

; 1649 : 		m_RC5.DecryptByte( m_MemPool, m_TempMem, 4 );

  00004	8d 71 28	 lea	 esi, DWORD PTR [ecx+40]
  00007	6a 04		 push	 4
  00009	8d 41 1c	 lea	 eax, DWORD PTR [ecx+28]
  0000c	56		 push	 esi
  0000d	50		 push	 eax
  0000e	83 c1 0c	 add	 ecx, 12			; 0000000cH
  00011	e8 00 00 00 00	 call	 ?DecryptByte@ccddaabb@@QBEXPBDPADH@Z ; ccddaabb::DecryptByte

; 1650 : 		*value = *((float*)m_TempMem);

  00016	d9 06		 fld	 DWORD PTR [esi]
  00018	8b 45 08	 mov	 eax, DWORD PTR _value$[ebp]
  0001b	d9 18		 fstp	 DWORD PTR [eax]
  0001d	5e		 pop	 esi

; 1651 : 	}

  0001e	5d		 pop	 ebp
  0001f	c2 04 00	 ret	 4
?DecryptValueToPool@?$CEncrypt@M@@QAEXPAM@Z ENDP	; CEncrypt<float>::DecryptValueToPool
_TEXT	ENDS
PUBLIC	?EncryptValueToPool@?$CEncrypt@_N@@AAEXPBD@Z	; CEncrypt<bool>::EncryptValueToPool
EXTRN	?EncryptByte@ccddaabb@@QAEXPBDPADH@Z:PROC	; ccddaabb::EncryptByte
; Function compile flags: /Ogsp
;	COMDAT ?EncryptValueToPool@?$CEncrypt@_N@@AAEXPBD@Z
_TEXT	SEGMENT
_value$ = 8						; size = 4
?EncryptValueToPool@?$CEncrypt@_N@@AAEXPBD@Z PROC	; CEncrypt<bool>::EncryptValueToPool, COMDAT
; _this$ = ecx

; 67   : 	{

  00000	55		 push	 ebp
  00001	8b ec		 mov	 ebp, esp

; 68   : 		m_RC5.EncryptByte( value, m_MemPool, max(m_ValueSize, DEFAULT_ENCRYPT) );

  00003	0f b7 41 06	 movzx	 eax, WORD PTR [ecx+6]
  00007	83 f8 04	 cmp	 eax, 4
  0000a	77 03		 ja	 SHORT $LN4@EncryptVal
  0000c	6a 04		 push	 4
  0000e	58		 pop	 eax
$LN4@EncryptVal:
  0000f	50		 push	 eax
  00010	8d 41 1c	 lea	 eax, DWORD PTR [ecx+28]
  00013	50		 push	 eax
  00014	ff 75 08	 push	 DWORD PTR _value$[ebp]
  00017	83 c1 0c	 add	 ecx, 12			; 0000000cH
  0001a	e8 00 00 00 00	 call	 ?EncryptByte@ccddaabb@@QAEXPBDPADH@Z ; ccddaabb::EncryptByte

; 69   : 		
; 70   : 	}

  0001f	5d		 pop	 ebp
  00020	c2 04 00	 ret	 4
?EncryptValueToPool@?$CEncrypt@_N@@AAEXPBD@Z ENDP	; CEncrypt<bool>::EncryptValueToPool
_TEXT	ENDS
PUBLIC	?Init@?$CEncrypt@_N@@AAEXXZ			; CEncrypt<bool>::Init
EXTRN	?Setup@ccddaabb@@QAEXPBDHH@Z:PROC		; ccddaabb::Setup
EXTRN	__imp__rand:PROC
EXTRN	__imp__timeGetTime@0:PROC
EXTRN	__imp__GetCurrentProcessId@0:PROC
; Function compile flags: /Ogsp
;	COMDAT ?Init@?$CEncrypt@_N@@AAEXXZ
_TEXT	SEGMENT
_pid$ = -8						; size = 4
_tick$ = -4						; size = 4
?Init@?$CEncrypt@_N@@AAEXXZ PROC			; CEncrypt<bool>::Init, COMDAT
; _this$ = ecx

; 73   : 	{

  00000	55		 push	 ebp
  00001	8b ec		 mov	 ebp, esp
  00003	51		 push	 ecx
  00004	51		 push	 ecx
  00005	53		 push	 ebx
  00006	56		 push	 esi
  00007	57		 push	 edi
  00008	8b f1		 mov	 esi, ecx

; 74   : 		DWORD pid = GetCurrentProcessId();

  0000a	ff 15 00 00 00
	00		 call	 DWORD PTR __imp__GetCurrentProcessId@0
  00010	89 45 f8	 mov	 DWORD PTR _pid$[ebp], eax

; 75   : 		DWORD tick = timeGetTime();

  00013	ff 15 00 00 00
	00		 call	 DWORD PTR __imp__timeGetTime@0

; 76   : 		m_ValueSize    = sizeof(type);
; 77   : 		m_MemPoolPos   = (unsigned short)( rand()+pid+tick )%(MAX_MEM_POOL-m_ValueSize);

  00019	8b 3d 00 00 00
	00		 mov	 edi, DWORD PTR __imp__rand
  0001f	89 45 fc	 mov	 DWORD PTR _tick$[ebp], eax
  00022	33 c0		 xor	 eax, eax
  00024	40		 inc	 eax
  00025	66 89 46 06	 mov	 WORD PTR [esi+6], ax
  00029	ff d7		 call	 edi
  0002b	03 45 f8	 add	 eax, DWORD PTR _pid$[ebp]
  0002e	0f b7 4e 06	 movzx	 ecx, WORD PTR [esi+6]
  00032	03 45 fc	 add	 eax, DWORD PTR _tick$[ebp]
  00035	6a 0c		 push	 12			; 0000000cH
  00037	0f b7 c0	 movzx	 eax, ax
  0003a	5b		 pop	 ebx
  0003b	99		 cdq
  0003c	2b d9		 sub	 ebx, ecx
  0003e	f7 fb		 idiv	 ebx
  00040	66 89 56 04	 mov	 WORD PTR [esi+4], dx

; 78   : 		m_EncryptSeed  = (char)( rand()+pid+tick )%256;

  00044	ff d7		 call	 edi
  00046	02 45 f8	 add	 al, BYTE PTR _pid$[ebp]
  00049	02 45 fc	 add	 al, BYTE PTR _tick$[ebp]
  0004c	0f be c0	 movsx	 eax, al
  0004f	25 ff 00 00 80	 and	 eax, -2147483393	; 800000ffH
  00054	79 07		 jns	 SHORT $LN8@Init
  00056	48		 dec	 eax
  00057	0d 00 ff ff ff	 or	 eax, -256		; ffffff00H
  0005c	40		 inc	 eax
$LN8@Init:
  0005d	88 46 08	 mov	 BYTE PTR [esi+8], al

; 79   : 
; 80   : 		for (int i = 0; i < MAX_MEM_POOL ; i++)

  00060	33 db		 xor	 ebx, ebx
$LL3@Init:

; 81   : 			m_MemPool[i] = (char)( rand()+pid+tick )%256; // 

  00062	ff d7		 call	 edi
  00064	02 45 f8	 add	 al, BYTE PTR _pid$[ebp]
  00067	02 45 fc	 add	 al, BYTE PTR _tick$[ebp]
  0006a	0f be c0	 movsx	 eax, al
  0006d	25 ff 00 00 80	 and	 eax, -2147483393	; 800000ffH
  00072	79 07		 jns	 SHORT $LN9@Init
  00074	48		 dec	 eax
  00075	0d 00 ff ff ff	 or	 eax, -256		; ffffff00H
  0007a	40		 inc	 eax
$LN9@Init:
  0007b	88 44 1e 1c	 mov	 BYTE PTR [esi+ebx+28], al
  0007f	43		 inc	 ebx
  00080	83 fb 0c	 cmp	 ebx, 12			; 0000000cH
  00083	7c dd		 jl	 SHORT $LL3@Init

; 82   : 
; 83   : 		//UJ 130913, : szKey  
; 84   : 		//char szKey[ccddaabb::KEY_SIZE];//="";
; 85   : 		//for (int i = 0; i < ccddaabb::KEY_SIZE  ; i++)
; 86   : 		//	szKey[i] = (char)( rand()+pid+tick )%256; // 
; 87   : 		m_RC5.Setup( NULL, pid, tick );

  00085	ff 75 fc	 push	 DWORD PTR _tick$[ebp]
  00088	8d 4e 0c	 lea	 ecx, DWORD PTR [esi+12]
  0008b	ff 75 f8	 push	 DWORD PTR _pid$[ebp]
  0008e	6a 00		 push	 0
  00090	e8 00 00 00 00	 call	 ?Setup@ccddaabb@@QAEXPBDHH@Z ; ccddaabb::Setup
  00095	5f		 pop	 edi
  00096	5e		 pop	 esi
  00097	5b		 pop	 ebx

; 88   : 
; 89   : #ifdef _NOTUSE
; 90   : 		m_value        = 0;
; 91   : 		EncryptValueToPool((char*)&m_value);
; 92   : 		Debug();
; 93   : #endif
; 94   : 	}

  00098	c9		 leave
  00099	c3		 ret	 0
?Init@?$CEncrypt@_N@@AAEXXZ ENDP			; CEncrypt<bool>::Init
_TEXT	ENDS
PUBLIC	?DecryptValueToPool@?$CEncrypt@_N@@QAEXPA_N@Z	; CEncrypt<bool>::DecryptValueToPool
; Function compile flags: /Ogsp
;	COMDAT ?DecryptValueToPool@?$CEncrypt@_N@@QAEXPA_N@Z
_TEXT	SEGMENT
_value$ = 8						; size = 4
?DecryptValueToPool@?$CEncrypt@_N@@QAEXPA_N@Z PROC	; CEncrypt<bool>::DecryptValueToPool, COMDAT
; _this$ = ecx

; 219  : 	{

  00000	55		 push	 ebp
  00001	8b ec		 mov	 ebp, esp
  00003	56		 push	 esi

; 220  : 		m_RC5.DecryptByte( m_MemPool, m_TempMem, 4 );

  00004	8d 71 28	 lea	 esi, DWORD PTR [ecx+40]
  00007	6a 04		 push	 4
  00009	8d 41 1c	 lea	 eax, DWORD PTR [ecx+28]
  0000c	56		 push	 esi
  0000d	50		 push	 eax
  0000e	83 c1 0c	 add	 ecx, 12			; 0000000cH
  00011	e8 00 00 00 00	 call	 ?DecryptByte@ccddaabb@@QBEXPBDPADH@Z ; ccddaabb::DecryptByte

; 221  : 		*value = *((bool*)m_TempMem);

  00016	8a 06		 mov	 al, BYTE PTR [esi]
  00018	8b 4d 08	 mov	 ecx, DWORD PTR _value$[ebp]
  0001b	88 01		 mov	 BYTE PTR [ecx], al
  0001d	5e		 pop	 esi

; 222  : 	}

  0001e	5d		 pop	 ebp
  0001f	c2 04 00	 ret	 4
?DecryptValueToPool@?$CEncrypt@_N@@QAEXPA_N@Z ENDP	; CEncrypt<bool>::DecryptValueToPool
_TEXT	ENDS
EXTRN	__imp_??0exception@std@@QAE@ABV01@@Z:PROC
; Function compile flags: /Ogsp
;	COMDAT ??0bad_alloc@std@@QAE@ABV01@@Z
_TEXT	SEGMENT
___that$ = 8						; size = 4
??0bad_alloc@std@@QAE@ABV01@@Z PROC			; std::bad_alloc::bad_alloc, COMDAT
; _this$ = ecx
  00000	55		 push	 ebp
  00001	8b ec		 mov	 ebp, esp
  00003	56		 push	 esi
  00004	ff 75 08	 push	 DWORD PTR ___that$[ebp]
  00007	8b f1		 mov	 esi, ecx
  00009	ff 15 00 00 00
	00		 call	 DWORD PTR __imp_??0exception@std@@QAE@ABV01@@Z
  0000f	c7 06 00 00 00
	00		 mov	 DWORD PTR [esi], OFFSET ??_7bad_alloc@std@@6B@
  00015	8b c6		 mov	 eax, esi
  00017	5e		 pop	 esi
  00018	5d		 pop	 ebp
  00019	c2 04 00	 ret	 4
??0bad_alloc@std@@QAE@ABV01@@Z ENDP			; std::bad_alloc::bad_alloc
_TEXT	ENDS
PUBLIC	??_R0?AVioBaseChar@@@8				; ioBaseChar `RTTI Type Descriptor'
PUBLIC	?ToBaseChar@@YAPAVioBaseChar@@PAVioGameEntity@@@Z ; ToBaseChar
;	COMDAT ??_R0?AVioBaseChar@@@8
; File d:\lost saga for developer\youtube\tutorial\source\src\lsclient\iobasechar.h
_DATA	SEGMENT
??_R0?AVioBaseChar@@@8 DD FLAT:??_7type_info@@6B@	; ioBaseChar `RTTI Type Descriptor'
	DD	00H
	DB	'.?AVioBaseChar@@', 00H
; Function compile flags: /Ogsp
_DATA	ENDS
;	COMDAT ?ToBaseChar@@YAPAVioBaseChar@@PAVioGameEntity@@@Z
_TEXT	SEGMENT
_pObj$ = 8						; size = 4
?ToBaseChar@@YAPAVioBaseChar@@PAVioGameEntity@@@Z PROC	; ToBaseChar, COMDAT

; 4326 : {

  00000	55		 push	 ebp
  00001	8b ec		 mov	 ebp, esp
  00003	56		 push	 esi

; 4327 : 	ioPlayEntity *pPlay = ToPlayEntity( pObj );

  00004	ff 75 08	 push	 DWORD PTR _pObj$[ebp]
  00007	e8 00 00 00 00	 call	 ?ToPlayEntity@@YAPAVioPlayEntity@@PAVioGameEntity@@@Z ; ToPlayEntity
  0000c	8b f0		 mov	 esi, eax
  0000e	59		 pop	 ecx

; 4328 : 	if( !pPlay || pPlay->GetSubType() != ioPlayEntity::PST_CHAR )

  0000f	85 f6		 test	 esi, esi
  00011	74 25		 je	 SHORT $LN1@ToBaseChar
  00013	8b 06		 mov	 eax, DWORD PTR [esi]
  00015	8b ce		 mov	 ecx, esi
  00017	ff 90 a4 00 00
	00		 call	 DWORD PTR [eax+164]
  0001d	85 c0		 test	 eax, eax
  0001f	75 17		 jne	 SHORT $LN1@ToBaseChar

; 4330 : 
; 4331 : 	return dynamic_cast< ioBaseChar* >( pPlay );

  00021	50		 push	 eax
  00022	68 00 00 00 00	 push	 OFFSET ??_R0?AVioBaseChar@@@8
  00027	68 00 00 00 00	 push	 OFFSET ??_R0?AVioPlayEntity@@@8
  0002c	50		 push	 eax
  0002d	56		 push	 esi
  0002e	e8 00 00 00 00	 call	 ___RTDynamicCast
  00033	83 c4 14	 add	 esp, 20			; 00000014H
  00036	eb 02		 jmp	 SHORT $LN3@ToBaseChar
$LN1@ToBaseChar:

; 4329 : 		return NULL;

  00038	33 c0		 xor	 eax, eax
$LN3@ToBaseChar:
  0003a	5e		 pop	 esi

; 4332 : }

  0003b	5d		 pop	 ebp
  0003c	c3		 ret	 0
?ToBaseChar@@YAPAVioBaseChar@@PAVioGameEntity@@@Z ENDP	; ToBaseChar
_TEXT	ENDS
PUBLIC	??_C@_0CO@HKEDFJCJ@ioArrowWeapon?3?3CreateFileBall?5?9?5@ ; `string'
PUBLIC	?CreateFireBall@ioArrowWeapon@@IAE_NABVioHashString@@@Z ; ioArrowWeapon::CreateFireBall
EXTRN	__imp_??D@YA?AUD3DXVECTOR3@@ABU0@0@Z:PROC
EXTRN	__imp_??D@YA?AUD3DXVECTOR3@@ABUD3DXQUATERNION@@ABU0@@Z:PROC
EXTRN	__imp_?GetBiped@ioEntityGroup@@QAEPAVioBiped@@ABVioHashString@@@Z:PROC
EXTRN	__imp_?GetFirstLinkOffset@ioEffect@@QAE_NAAVioHashString@@AAUD3DXVECTOR3@@AAUD3DXQUATERNION@@@Z:PROC
EXTRN	__imp_??0ioHashString@@QAE@XZ:PROC
EXTRN	__imp_?PrintTimeAndLog@CLog@@QAAXHPADZZ:PROC
EXTRN	__imp_?LOG@@3VCLog@@A:BYTE
EXTRN	?GetOwner@ioWeapon@@QBEPAVioBaseChar@@XZ:PROC	; ioWeapon::GetOwner
EXTRN	__imp_?CreateEffect@ioEffectFactory@@QAEPAVioEffect@@ABVioHashString@@@Z:PROC
EXTRN	__EH_epilog3_GS:PROC
EXTRN	__EH_prolog3_GS:PROC
;	COMDAT ??_C@_0CO@HKEDFJCJ@ioArrowWeapon?3?3CreateFileBall?5?9?5@
; File c:\program files (x86)\microsoft directx sdk (june 2010)\include\d3dx9math.inl
CONST	SEGMENT
??_C@_0CO@HKEDFJCJ@ioArrowWeapon?3?3CreateFileBall?5?9?5@ DB 'ioArrowWeap'
	DB	'on::CreateFileBall - Not Has Owner', 00H	; `string'
CONST	ENDS
;	COMDAT xdata$x
xdata$x	SEGMENT
__unwindtable$?CreateFireBall@ioArrowWeapon@@IAE_NABVioHashString@@@Z DD 0ffffffffH
	DD	FLAT:__unwindfunclet$?CreateFireBall@ioArrowWeapon@@IAE_NABVioHashString@@@Z$0
	DD	00H
	DD	FLAT:__unwindfunclet$?CreateFireBall@ioArrowWeapon@@IAE_NABVioHashString@@@Z$1
__ehfuncinfo$?CreateFireBall@ioArrowWeapon@@IAE_NABVioHashString@@@Z DD 019930522H
	DD	02H
	DD	FLAT:__unwindtable$?CreateFireBall@ioArrowWeapon@@IAE_NABVioHashString@@@Z
	DD	2 DUP(00H)
	DD	2 DUP(00H)
	DD	00H
	DD	01H
; Function compile flags: /Ogsp
; File d:\lost saga for developer\youtube\tutorial\source\src\lsclient\ioarrowweapon.cpp
xdata$x	ENDS
;	COMDAT ?CreateFireBall@ioArrowWeapon@@IAE_NABVioHashString@@@Z
_TEXT	SEGMENT
_qtLinkRotOffset$ = -100				; size = 16
_szLinkBiped$ = -84					; size = 16
$T532984 = -68						; size = 4
_pOwner$ = -64						; size = 4
$T532978 = -57						; size = 1
$T532979 = -56						; size = 16
$T530918 = -52						; size = 12
_vLinkPosOffset$ = -40					; size = 12
$T530919 = -28						; size = 12
$T530917 = -28						; size = 12
$T530916 = -28						; size = 12
$T530915 = -28						; size = 12
__$EHRec$ = -12						; size = 12
_szFileName$ = 8					; size = 4
?CreateFireBall@ioArrowWeapon@@IAE_NABVioHashString@@@Z PROC ; ioArrowWeapon::CreateFireBall, COMDAT
; _this$ = ecx

; 67   : {

  00000	6a 58		 push	 88			; 00000058H
  00002	b8 00 00 00 00	 mov	 eax, __ehhandler$?CreateFireBall@ioArrowWeapon@@IAE_NABVioHashString@@@Z
  00007	e8 00 00 00 00	 call	 __EH_prolog3_GS
  0000c	8b 45 08	 mov	 eax, DWORD PTR _szFileName$[ebp]
  0000f	33 f6		 xor	 esi, esi

; 68   : 	m_pFireBall = g_EffectFactory.CreateEffect( szFileName );

  00011	50		 push	 eax
  00012	8b d9		 mov	 ebx, ecx
  00014	89 75 bc	 mov	 DWORD PTR $T532984[ebp], esi
  00017	ff 15 00 00 00
	00		 call	 DWORD PTR __imp_?GetSingleton@ioEffectFactory@@SAAAV1@XZ
  0001d	8b c8		 mov	 ecx, eax
  0001f	ff 15 00 00 00
	00		 call	 DWORD PTR __imp_?CreateEffect@ioEffectFactory@@QAEPAVioEffect@@ABVioHashString@@@Z
  00025	89 83 94 08 00
	00		 mov	 DWORD PTR [ebx+2196], eax

; 69   : 	if( !m_pFireBall )	return false;

  0002b	3b c6		 cmp	 eax, esi
  0002d	75 07		 jne	 SHORT $LN4@CreateFire
$LN32@CreateFire:
  0002f	32 c0		 xor	 al, al
  00031	e9 22 02 00 00	 jmp	 $LN5@CreateFire
$LN4@CreateFire:

; 70   : 
; 71   : 	GetParentSceneNode()->AttachObject( m_pFireBall );

  00036	8b 4b 04	 mov	 ecx, DWORD PTR [ebx+4]
  00039	8b 11		 mov	 edx, DWORD PTR [ecx]
  0003b	83 c0 14	 add	 eax, 20			; 00000014H
  0003e	50		 push	 eax
  0003f	ff 92 ac 00 00
	00		 call	 DWORD PTR [edx+172]

; 72   : 	
; 73   : 	ioBaseChar *pOwner = GetOwner();

  00045	8b cb		 mov	 ecx, ebx
  00047	e8 00 00 00 00	 call	 ?GetOwner@ioWeapon@@QBEPAVioBaseChar@@XZ ; ioWeapon::GetOwner
  0004c	8b f8		 mov	 edi, eax
  0004e	89 7d c0	 mov	 DWORD PTR _pOwner$[ebp], edi

; 74   : 	if( !pOwner )

  00051	3b fe		 cmp	 edi, esi
  00053	75 17		 jne	 SHORT $LN3@CreateFire

; 75   : 	{
; 76   : 		LOG.PrintTimeAndLog( 0, "ioArrowWeapon::CreateFileBall - Not Has Owner" );

  00055	68 00 00 00 00	 push	 OFFSET ??_C@_0CO@HKEDFJCJ@ioArrowWeapon?3?3CreateFileBall?5?9?5@
  0005a	56		 push	 esi
  0005b	ff 35 00 00 00
	00		 push	 DWORD PTR __imp_?LOG@@3VCLog@@A
  00061	ff 15 00 00 00
	00		 call	 DWORD PTR __imp_?PrintTimeAndLog@CLog@@QAAXHPADZZ
  00067	83 c4 0c	 add	 esp, 12			; 0000000cH

; 77   : 		return false;

  0006a	eb c3		 jmp	 SHORT $LN32@CreateFire
$LN3@CreateFire:

; 78   : 	}
; 79   : 
; 80   : 	ioHashString szLinkBiped;

  0006c	8d 4d ac	 lea	 ecx, DWORD PTR _szLinkBiped$[ebp]
  0006f	ff 15 00 00 00
	00		 call	 DWORD PTR __imp_??0ioHashString@@QAE@XZ

; 81   : 	D3DXVECTOR3 vLinkPosOffset;
; 82   : 	D3DXQUATERNION qtLinkRotOffset;
; 83   : 
; 84   : 	if( m_pFireBall->GetSkeletonName().IsEmpty() && m_pFireBall->GetFirstLinkOffset(szLinkBiped, vLinkPosOffset, qtLinkRotOffset ) )

  00075	8b 8b 94 08 00
	00		 mov	 ecx, DWORD PTR [ebx+2196]
  0007b	8d 45 c8	 lea	 eax, DWORD PTR $T532979[ebp]
  0007e	50		 push	 eax
  0007f	89 75 fc	 mov	 DWORD PTR __$EHRec$[ebp+8], esi
  00082	ff 15 00 00 00
	00		 call	 DWORD PTR __imp_?GetSkeletonName@ioEffect@@QBE?AVioHashString@@XZ
  00088	8b c8		 mov	 ecx, eax
  0008a	c6 45 fc 01	 mov	 BYTE PTR __$EHRec$[ebp+8], 1
  0008e	c7 45 bc 01 00
	00 00		 mov	 DWORD PTR $T532984[ebp], 1
  00095	ff 15 00 00 00
	00		 call	 DWORD PTR __imp_?IsEmpty@ioHashString@@QBE_NXZ
  0009b	84 c0		 test	 al, al
  0009d	74 20		 je	 SHORT $LN9@CreateFire
  0009f	8b 8b 94 08 00
	00		 mov	 ecx, DWORD PTR [ebx+2196]
  000a5	8d 45 9c	 lea	 eax, DWORD PTR _qtLinkRotOffset$[ebp]
  000a8	50		 push	 eax
  000a9	8d 45 d8	 lea	 eax, DWORD PTR _vLinkPosOffset$[ebp]
  000ac	50		 push	 eax
  000ad	8d 45 ac	 lea	 eax, DWORD PTR _szLinkBiped$[ebp]
  000b0	50		 push	 eax
  000b1	ff 15 00 00 00
	00		 call	 DWORD PTR __imp_?GetFirstLinkOffset@ioEffect@@QAE_NAAVioHashString@@AAUD3DXVECTOR3@@AAUD3DXQUATERNION@@@Z
  000b7	c6 45 c7 01	 mov	 BYTE PTR $T532978[ebp], 1
  000bb	84 c0		 test	 al, al
  000bd	75 04		 jne	 SHORT $LN10@CreateFire
$LN9@CreateFire:
  000bf	c6 45 c7 00	 mov	 BYTE PTR $T532978[ebp], 0
$LN10@CreateFire:
  000c3	8d 4d c8	 lea	 ecx, DWORD PTR $T532979[ebp]
  000c6	89 75 fc	 mov	 DWORD PTR __$EHRec$[ebp+8], esi
  000c9	ff 15 00 00 00
	00		 call	 DWORD PTR __imp_??1ioHashString@@QAE@XZ
  000cf	80 7d c7 00	 cmp	 BYTE PTR $T532978[ebp], 0
  000d3	0f 84 47 01 00
	00		 je	 $LN1@CreateFire

; 85   : 	{
; 86   : 		ioBiped *pLinked = pOwner->GetGroup()->GetBiped( szLinkBiped );

  000d9	8b 4f 04	 mov	 ecx, DWORD PTR [edi+4]
  000dc	8d 45 ac	 lea	 eax, DWORD PTR _szLinkBiped$[ebp]
  000df	50		 push	 eax
  000e0	ff 15 00 00 00
	00		 call	 DWORD PTR __imp_?GetBiped@ioEntityGroup@@QAEPAVioBiped@@ABVioHashString@@@Z
  000e6	8b f8		 mov	 edi, eax

; 87   : 		if( pLinked )

  000e8	3b fe		 cmp	 edi, esi
  000ea	0f 84 30 01 00
	00		 je	 $LN1@CreateFire

; 88   : 		{
; 89   : 			vLinkPosOffset = pLinked->GetDerivedOrientation() * vLinkPosOffset + pLinked->GetDerivedPosition();

  000f0	8b 07		 mov	 eax, DWORD PTR [edi]
  000f2	8b cf		 mov	 ecx, edi
  000f4	ff 50 7c	 call	 DWORD PTR [eax+124]
  000f7	8b f0		 mov	 esi, eax
  000f9	8d 45 d8	 lea	 eax, DWORD PTR _vLinkPosOffset$[ebp]
  000fc	50		 push	 eax
  000fd	8b 07		 mov	 eax, DWORD PTR [edi]
  000ff	8b cf		 mov	 ecx, edi
  00101	ff 50 78	 call	 DWORD PTR [eax+120]
  00104	50		 push	 eax
  00105	8d 45 e4	 lea	 eax, DWORD PTR $T530915[ebp]
  00108	50		 push	 eax
  00109	ff 15 00 00 00
	00		 call	 DWORD PTR __imp_??D@YA?AUD3DXVECTOR3@@ABUD3DXQUATERNION@@ABU0@@Z
  0010f	f3 0f 10 06	 movss	 xmm0, DWORD PTR [esi]
  00113	f3 0f 10 08	 movss	 xmm1, DWORD PTR [eax]
  00117	f3 0f 10 50 04	 movss	 xmm2, DWORD PTR [eax+4]
  0011c	f3 0f 10 58 08	 movss	 xmm3, DWORD PTR [eax+8]

; 90   : 			vLinkPosOffset = vLinkPosOffset * pOwner->GetWorldScale();

  00121	8b 4d c0	 mov	 ecx, DWORD PTR _pOwner$[ebp]
  00124	0f 5a c9	 cvtps2pd xmm1, xmm1
  00127	0f 5a c0	 cvtps2pd xmm0, xmm0
  0012a	f2 0f 58 c1	 addsd	 xmm0, xmm1
  0012e	f3 0f 10 4e 04	 movss	 xmm1, DWORD PTR [esi+4]
  00133	0f 5a d2	 cvtps2pd xmm2, xmm2
  00136	0f 5a c9	 cvtps2pd xmm1, xmm1
  00139	f2 0f 58 ca	 addsd	 xmm1, xmm2
  0013d	f3 0f 10 56 08	 movss	 xmm2, DWORD PTR [esi+8]
  00142	0f 5a d2	 cvtps2pd xmm2, xmm2
  00145	0f 5a db	 cvtps2pd xmm3, xmm3
  00148	f2 0f 58 d3	 addsd	 xmm2, xmm3
  0014c	66 0f 5a c0	 cvtpd2ps xmm0, xmm0
  00150	f3 0f 11 45 e4	 movss	 DWORD PTR $T530916[ebp], xmm0
  00155	66 0f 5a c9	 cvtpd2ps xmm1, xmm1
  00159	f3 0f 11 4d e8	 movss	 DWORD PTR $T530916[ebp+4], xmm1
  0015e	66 0f 5a d2	 cvtpd2ps xmm2, xmm2
  00162	f3 0f 11 55 ec	 movss	 DWORD PTR $T530916[ebp+8], xmm2
  00167	8d 75 e4	 lea	 esi, DWORD PTR $T530916[ebp]
  0016a	8d 7d d8	 lea	 edi, DWORD PTR _vLinkPosOffset$[ebp]
  0016d	a5		 movsd
  0016e	a5		 movsd
  0016f	a5		 movsd
  00170	8b 01		 mov	 eax, DWORD PTR [ecx]
  00172	83 c4 0c	 add	 esp, 12			; 0000000cH
  00175	ff 50 78	 call	 DWORD PTR [eax+120]
  00178	50		 push	 eax
  00179	8d 45 d8	 lea	 eax, DWORD PTR _vLinkPosOffset$[ebp]
  0017c	50		 push	 eax
  0017d	8d 45 e4	 lea	 eax, DWORD PTR $T530917[ebp]
  00180	50		 push	 eax
  00181	ff 15 00 00 00
	00		 call	 DWORD PTR __imp_??D@YA?AUD3DXVECTOR3@@ABU0@0@Z
  00187	8b f0		 mov	 esi, eax
  00189	8d 7d d8	 lea	 edi, DWORD PTR _vLinkPosOffset$[ebp]
  0018c	a5		 movsd
  0018d	a5		 movsd
  0018e	a5		 movsd

; 91   : 			vLinkPosOffset = pOwner->GetWorldOrientation() * vLinkPosOffset + pOwner->GetWorldPosition();

  0018f	8b 7d c0	 mov	 edi, DWORD PTR _pOwner$[ebp]
  00192	8b 07		 mov	 eax, DWORD PTR [edi]
  00194	83 c4 0c	 add	 esp, 12			; 0000000cH
  00197	8b cf		 mov	 ecx, edi
  00199	ff 50 70	 call	 DWORD PTR [eax+112]
  0019c	8b f0		 mov	 esi, eax
  0019e	8d 45 d8	 lea	 eax, DWORD PTR _vLinkPosOffset$[ebp]
  001a1	50		 push	 eax
  001a2	8b 07		 mov	 eax, DWORD PTR [edi]
  001a4	8b cf		 mov	 ecx, edi
  001a6	ff 50 74	 call	 DWORD PTR [eax+116]
  001a9	50		 push	 eax
  001aa	8d 45 cc	 lea	 eax, DWORD PTR $T530918[ebp]
  001ad	50		 push	 eax
  001ae	ff 15 00 00 00
	00		 call	 DWORD PTR __imp_??D@YA?AUD3DXVECTOR3@@ABUD3DXQUATERNION@@ABU0@@Z
  001b4	f3 0f 10 06	 movss	 xmm0, DWORD PTR [esi]
  001b8	f3 0f 10 08	 movss	 xmm1, DWORD PTR [eax]
  001bc	f3 0f 10 50 04	 movss	 xmm2, DWORD PTR [eax+4]
  001c1	0f 5a c9	 cvtps2pd xmm1, xmm1
  001c4	0f 5a c0	 cvtps2pd xmm0, xmm0
  001c7	f2 0f 58 c1	 addsd	 xmm0, xmm1
  001cb	f3 0f 10 4e 04	 movss	 xmm1, DWORD PTR [esi+4]
  001d0	0f 5a c9	 cvtps2pd xmm1, xmm1
  001d3	0f 5a d2	 cvtps2pd xmm2, xmm2
  001d6	83 c4 0c	 add	 esp, 12			; 0000000cH
  001d9	66 0f 5a c0	 cvtpd2ps xmm0, xmm0
  001dd	f2 0f 58 ca	 addsd	 xmm1, xmm2
  001e1	f3 0f 10 56 08	 movss	 xmm2, DWORD PTR [esi+8]
  001e6	f3 0f 10 58 08	 movss	 xmm3, DWORD PTR [eax+8]
  001eb	0f 5a d2	 cvtps2pd xmm2, xmm2
  001ee	0f 5a db	 cvtps2pd xmm3, xmm3
  001f1	f2 0f 58 d3	 addsd	 xmm2, xmm3
  001f5	f3 0f 11 45 e4	 movss	 DWORD PTR $T530919[ebp], xmm0
  001fa	66 0f 5a c9	 cvtpd2ps xmm1, xmm1
  001fe	f3 0f 11 4d e8	 movss	 DWORD PTR $T530919[ebp+4], xmm1
  00203	66 0f 5a d2	 cvtpd2ps xmm2, xmm2
  00207	f3 0f 11 55 ec	 movss	 DWORD PTR $T530919[ebp+8], xmm2
  0020c	8d 75 e4	 lea	 esi, DWORD PTR $T530919[ebp]
  0020f	8d 7d d8	 lea	 edi, DWORD PTR _vLinkPosOffset$[ebp]
  00212	a5		 movsd
  00213	a5		 movsd

; 92   : 			SetPosition( vLinkPosOffset );

  00214	8d 45 d8	 lea	 eax, DWORD PTR _vLinkPosOffset$[ebp]
  00217	50		 push	 eax
  00218	8b cb		 mov	 ecx, ebx
  0021a	a5		 movsd
  0021b	e8 00 00 00 00	 call	 ?SetPosition@ioWeapon@@QAEXABUD3DXVECTOR3@@@Z ; ioWeapon::SetPosition
$LN1@CreateFire:

; 93   : 		}
; 94   : 	}
; 95   : 
; 96   : 	m_StartPos = GetPosition();

  00220	8b 03		 mov	 eax, DWORD PTR [ebx]
  00222	8b cb		 mov	 ecx, ebx
  00224	ff 50 70	 call	 DWORD PTR [eax+112]

; 97   : 
; 98   : 	AddEffectEvent( m_pFireBall );

  00227	ff b3 94 08 00
	00		 push	 DWORD PTR [ebx+2196]
  0022d	8b f0		 mov	 esi, eax
  0022f	8b 03		 mov	 eax, DWORD PTR [ebx]
  00231	8d bb 98 08 00
	00		 lea	 edi, DWORD PTR [ebx+2200]
  00237	a5		 movsd
  00238	a5		 movsd
  00239	8b cb		 mov	 ecx, ebx
  0023b	a5		 movsd
  0023c	ff 90 68 01 00
	00		 call	 DWORD PTR [eax+360]

; 99   : 
; 100  : 	m_dwWeaponDeadTime = 0;

  00242	83 a3 00 09 00
	00 00		 and	 DWORD PTR [ebx+2304], 0

; 101  : 	return true;

  00249	83 4d fc ff	 or	 DWORD PTR __$EHRec$[ebp+8], -1
  0024d	8d 4d ac	 lea	 ecx, DWORD PTR _szLinkBiped$[ebp]
  00250	ff 15 00 00 00
	00		 call	 DWORD PTR __imp_??1ioHashString@@QAE@XZ
  00256	b0 01		 mov	 al, 1
$LN5@CreateFire:

; 102  : }

  00258	e8 00 00 00 00	 call	 __EH_epilog3_GS
  0025d	c2 04 00	 ret	 4
_TEXT	ENDS
;	COMDAT text$x
text$x	SEGMENT
__unwindfunclet$?CreateFireBall@ioArrowWeapon@@IAE_NABVioHashString@@@Z$0:
  00000	8d 4d ac	 lea	 ecx, DWORD PTR _szLinkBiped$[ebp]
  00003	ff 25 00 00 00
	00		 jmp	 DWORD PTR __imp_??1ioHashString@@QAE@XZ
__unwindfunclet$?CreateFireBall@ioArrowWeapon@@IAE_NABVioHashString@@@Z$1:
  00009	8b 45 bc	 mov	 eax, DWORD PTR $T532984[ebp]
  0000c	83 e0 01	 and	 eax, 1
  0000f	0f 84 0d 00 00
	00		 je	 $LN13@CreateFire
  00015	83 65 bc fe	 and	 DWORD PTR $T532984[ebp], -2 ; fffffffeH
  00019	8d 4d c8	 lea	 ecx, DWORD PTR $T532979[ebp]
  0001c	ff 25 00 00 00
	00		 jmp	 DWORD PTR __imp_??1ioHashString@@QAE@XZ
$LN13@CreateFire:
  00022	c3		 ret	 0
__ehhandler$?CreateFireBall@ioArrowWeapon@@IAE_NABVioHashString@@@Z:
  00023	8b 54 24 08	 mov	 edx, DWORD PTR [esp+8]
  00027	8d 42 0c	 lea	 eax, DWORD PTR [edx+12]
  0002a	8b 4a 98	 mov	 ecx, DWORD PTR [edx-104]
  0002d	33 c8		 xor	 ecx, eax
  0002f	e8 00 00 00 00	 call	 @__security_check_cookie@4
  00034	8b 4a fc	 mov	 ecx, DWORD PTR [edx-4]
  00037	33 c8		 xor	 ecx, eax
  00039	e8 00 00 00 00	 call	 @__security_check_cookie@4
  0003e	b8 00 00 00 00	 mov	 eax, OFFSET __ehfuncinfo$?CreateFireBall@ioArrowWeapon@@IAE_NABVioHashString@@@Z
  00043	e9 00 00 00 00	 jmp	 ___CxxFrameHandler3
text$x	ENDS
?CreateFireBall@ioArrowWeapon@@IAE_NABVioHashString@@@Z ENDP ; ioArrowWeapon::CreateFireBall
PUBLIC	__$ArrayPad$
PUBLIC	?SetMoveDir@ioArrowWeapon@@UAEXABUD3DXVECTOR3@@@Z ; ioArrowWeapon::SetMoveDir
EXTRN	?SetOrientation@ioWeapon@@QAEXABUD3DXQUATERNION@@@Z:PROC ; ioWeapon::SetOrientation
EXTRN	__imp_?CalcDirectionQuaternion@ioMath@@SAXAAUD3DXQUATERNION@@ABUD3DXVECTOR3@@@Z:PROC
EXTRN	?ConvertDirToQuaternion@Help@@YA?AUD3DXQUATERNION@@ABUD3DXVECTOR3@@@Z:PROC ; Help::ConvertDirToQuaternion
EXTRN	___security_cookie:DWORD
; Function compile flags: /Ogsp
;	COMDAT ?SetMoveDir@ioArrowWeapon@@UAEXABUD3DXVECTOR3@@@Z
_TEXT	SEGMENT
_qtRot$530937 = -32					; size = 16
_qtRot$530934 = -32					; size = 16
$T530935 = -16						; size = 12
__$ArrayPad$ = -4					; size = 4
_vDir$ = 8						; size = 4
?SetMoveDir@ioArrowWeapon@@UAEXABUD3DXVECTOR3@@@Z PROC	; ioArrowWeapon::SetMoveDir, COMDAT
; _this$ = ecx

; 114  : {

  00000	55		 push	 ebp
  00001	8b ec		 mov	 ebp, esp
  00003	83 ec 20	 sub	 esp, 32			; 00000020H
  00006	a1 00 00 00 00	 mov	 eax, DWORD PTR ___security_cookie
  0000b	33 c5		 xor	 eax, ebp
  0000d	89 45 fc	 mov	 DWORD PTR __$ArrayPad$[ebp], eax
  00010	8b 45 08	 mov	 eax, DWORD PTR _vDir$[ebp]
  00013	53		 push	 ebx
  00014	56		 push	 esi
  00015	8b d9		 mov	 ebx, ecx

; 115  : 	m_vMoveDir = vDir;
; 116  : 	
; 117  : 	// 2014.07.08
; 118  : 	switch(m_OrientationState)

  00017	8b 8b 0c 09 00
	00		 mov	 ecx, DWORD PTR [ebx+2316]
  0001d	83 e9 00	 sub	 ecx, 0
  00020	57		 push	 edi
  00021	8d 93 a4 08 00
	00		 lea	 edx, DWORD PTR [ebx+2212]
  00027	8b f0		 mov	 esi, eax
  00029	8b fa		 mov	 edi, edx
  0002b	a5		 movsd
  0002c	a5		 movsd
  0002d	a5		 movsd
  0002e	74 0f		 je	 SHORT $LN2@SetMoveDir
  00030	49		 dec	 ecx
  00031	75 55		 jne	 SHORT $LN3@SetMoveDir

; 125  : 		}
; 126  : 		break;
; 127  : 	case OS_ORIENTATION:
; 128  : 		{
; 129  : 			D3DXQUATERNION qtRot = Help::ConvertDirToQuaternion( m_vMoveDir );

  00033	52		 push	 edx
  00034	8d 45 e0	 lea	 eax, DWORD PTR _qtRot$530937[ebp]
  00037	50		 push	 eax
  00038	e8 00 00 00 00	 call	 ?ConvertDirToQuaternion@Help@@YA?AUD3DXQUATERNION@@ABUD3DXVECTOR3@@@Z ; Help::ConvertDirToQuaternion

; 130  : 			SetOrientation( qtRot );
; 131  : 		}
; 132  : 		break;

  0003d	eb 3c		 jmp	 SHORT $LN13@SetMoveDir
$LN2@SetMoveDir:

; 119  : 	{
; 120  : 	case OS_NONE:
; 121  : 		{
; 122  : 			D3DXQUATERNION qtRot;
; 123  : 			ioMath::CalcDirectionQuaternion( qtRot, -vDir );

  0003f	f3 0f 10 08	 movss	 xmm1, DWORD PTR [eax]
  00043	f3 0f 10 05 00
	00 00 00	 movss	 xmm0, DWORD PTR __mask@@NegFloat@
  0004b	0f 57 c8	 xorps	 xmm1, xmm0
  0004e	f3 0f 11 4d f0	 movss	 DWORD PTR $T530935[ebp], xmm1
  00053	f3 0f 10 48 04	 movss	 xmm1, DWORD PTR [eax+4]
  00058	0f 57 c8	 xorps	 xmm1, xmm0
  0005b	f3 0f 11 4d f4	 movss	 DWORD PTR $T530935[ebp+4], xmm1
  00060	f3 0f 10 48 08	 movss	 xmm1, DWORD PTR [eax+8]
  00065	8d 45 f0	 lea	 eax, DWORD PTR $T530935[ebp]
  00068	50		 push	 eax
  00069	8d 45 e0	 lea	 eax, DWORD PTR _qtRot$530934[ebp]
  0006c	0f 57 c8	 xorps	 xmm1, xmm0
  0006f	50		 push	 eax
  00070	f3 0f 11 4d f8	 movss	 DWORD PTR $T530935[ebp+8], xmm1
  00075	ff 15 00 00 00
	00		 call	 DWORD PTR __imp_?CalcDirectionQuaternion@ioMath@@SAXAAUD3DXQUATERNION@@ABUD3DXVECTOR3@@@Z
$LN13@SetMoveDir:
  0007b	59		 pop	 ecx
  0007c	59		 pop	 ecx

; 124  : 			SetOrientation( qtRot );

  0007d	8d 45 e0	 lea	 eax, DWORD PTR _qtRot$530934[ebp]
  00080	50		 push	 eax
  00081	8b cb		 mov	 ecx, ebx
  00083	e8 00 00 00 00	 call	 ?SetOrientation@ioWeapon@@QAEXABUD3DXQUATERNION@@@Z ; ioWeapon::SetOrientation
$LN3@SetMoveDir:

; 133  : 	}	
; 134  : 	/*
; 135  : 	D3DXQUATERNION qtRot;
; 136  : 	ioMath::CalcDirectionQuaternion( qtRot, -vDir );
; 137  : 	SetOrientation( qtRot );
; 138  : 	*/
; 139  : }

  00088	8b 4d fc	 mov	 ecx, DWORD PTR __$ArrayPad$[ebp]
  0008b	5f		 pop	 edi
  0008c	5e		 pop	 esi
  0008d	33 cd		 xor	 ecx, ebp
  0008f	5b		 pop	 ebx
  00090	e8 00 00 00 00	 call	 @__security_check_cookie@4
  00095	c9		 leave
  00096	c2 04 00	 ret	 4
?SetMoveDir@ioArrowWeapon@@UAEXABUD3DXVECTOR3@@@Z ENDP	; ioArrowWeapon::SetMoveDir
_TEXT	ENDS
PUBLIC	__real@4f800000
PUBLIC	_this$GSCopy$
PUBLIC	__$ArrayPad$
PUBLIC	?RotateMoveDir@ioArrowWeapon@@QAEXM@Z		; ioArrowWeapon::RotateMoveDir
EXTRN	_D3DXQuaternionRotationAxis@12:PROC
;	COMDAT __real@4f800000
; File c:\program files (x86)\microsoft directx sdk (june 2010)\include\d3dx9math.inl
CONST	SEGMENT
__real@4f800000 DD 04f800000r			; 4.29497e+009
; Function compile flags: /Ogsp
; File d:\lost saga for developer\youtube\tutorial\source\src\lsclient\ioarrowweapon.cpp
CONST	ENDS
;	COMDAT ?RotateMoveDir@ioArrowWeapon@@QAEXM@Z
_TEXT	SEGMENT
tv436 = -64						; size = 4
_qtRot$ = -60						; size = 16
_this$GSCopy$ = -44					; size = 4
$T530951 = -40						; size = 12
$T530945 = -40						; size = 12
_vAxis$ = -28						; size = 12
_v$533083 = -16						; size = 12
$T530952 = -16						; size = 12
__$ArrayPad$ = -4					; size = 4
_fAngle$ = 8						; size = 4
?RotateMoveDir@ioArrowWeapon@@QAEXM@Z PROC		; ioArrowWeapon::RotateMoveDir, COMDAT
; _this$ = ecx

; 142  : {

  00000	55		 push	 ebp
  00001	8b ec		 mov	 ebp, esp
  00003	83 ec 40	 sub	 esp, 64			; 00000040H
  00006	a1 00 00 00 00	 mov	 eax, DWORD PTR ___security_cookie
  0000b	33 c5		 xor	 eax, ebp
  0000d	89 45 fc	 mov	 DWORD PTR __$ArrayPad$[ebp], eax
  00010	53		 push	 ebx
  00011	56		 push	 esi
  00012	8b d9		 mov	 ebx, ecx
  00014	57		 push	 edi
  00015	89 5d d4	 mov	 DWORD PTR _this$GSCopy$[ebp], ebx

; 143  : 	D3DXVECTOR3 vAxis;
; 144  : 	D3DXVec3Cross( &vAxis, &m_vMoveDir, &D3DXVECTOR3( 0.0f, -FLOAT1, 0.0f ) );

  00018	b8 01 00 00 00	 mov	 eax, 1
  0001d	89 45 c0	 mov	 DWORD PTR tv436[ebp], eax
  00020	db 45 c0	 fild	 DWORD PTR tv436[ebp]
  00023	85 c0		 test	 eax, eax
  00025	79 06		 jns	 SHORT $LN21@RotateMove
  00027	d8 05 00 00 00
	00		 fadd	 DWORD PTR __real@4f800000
$LN21@RotateMove:
  0002d	f3 0f 10 83 a8
	08 00 00	 movss	 xmm0, DWORD PTR [ebx+2216]
  00035	d9 e0		 fchs
  00037	f3 0f 10 93 ac
	08 00 00	 movss	 xmm2, DWORD PTR [ebx+2220]
  0003f	d9 5d dc	 fstp	 DWORD PTR $T530945[ebp+4]
  00042	f3 0f 10 65 dc	 movss	 xmm4, DWORD PTR $T530945[ebp+4]
  00047	0f 5a c8	 cvtps2pd xmm1, xmm0
  0004a	0f 57 c0	 xorps	 xmm0, xmm0
  0004d	f2 0f 59 c8	 mulsd	 xmm1, xmm0
  00051	0f 5a da	 cvtps2pd xmm3, xmm2
  00054	81 c3 a4 08 00
	00		 add	 ebx, 2212		; 000008a4H
  0005a	0f 5a e4	 cvtps2pd xmm4, xmm4
  0005d	f2 0f 59 dc	 mulsd	 xmm3, xmm4
  00061	66 0f 28 e1	 movapd	 xmm4, xmm1
  00065	f2 0f 5c e3	 subsd	 xmm4, xmm3
  00069	0f 57 db	 xorps	 xmm3, xmm3
  0006c	f2 0f 5a dc	 cvtsd2ss xmm3, xmm4
  00070	f3 0f 11 5d f0	 movss	 DWORD PTR _v$533083[ebp], xmm3
  00075	f3 0f 10 1b	 movss	 xmm3, DWORD PTR [ebx]
  00079	0f 5a d2	 cvtps2pd xmm2, xmm2
  0007c	f2 0f 59 d0	 mulsd	 xmm2, xmm0
  00080	0f 5a e3	 cvtps2pd xmm4, xmm3
  00083	f2 0f 59 e0	 mulsd	 xmm4, xmm0
  00087	f2 0f 5c d4	 subsd	 xmm2, xmm4
  0008b	66 0f 5a c2	 cvtpd2ps xmm0, xmm2
  0008f	f3 0f 10 55 dc	 movss	 xmm2, DWORD PTR $T530945[ebp+4]
  00094	f3 0f 11 45 f4	 movss	 DWORD PTR _v$533083[ebp+4], xmm0
  00099	0f 5a d2	 cvtps2pd xmm2, xmm2
  0009c	8d 75 f0	 lea	 esi, DWORD PTR _v$533083[ebp]
  0009f	8d 7d e4	 lea	 edi, DWORD PTR _vAxis$[ebp]
  000a2	0f 5a c3	 cvtps2pd xmm0, xmm3
  000a5	f2 0f 59 c2	 mulsd	 xmm0, xmm2
  000a9	f2 0f 5c c1	 subsd	 xmm0, xmm1
  000ad	66 0f 5a c0	 cvtpd2ps xmm0, xmm0
  000b1	f3 0f 11 45 f8	 movss	 DWORD PTR _v$533083[ebp+8], xmm0

; 145  : 
; 146  : 	D3DXQUATERNION qtRot;
; 147  : 	D3DXQuaternionRotationAxis( &qtRot, &vAxis, DEGtoRAD(fAngle) );

  000b6	f3 0f 10 45 08	 movss	 xmm0, DWORD PTR _fAngle$[ebp]
  000bb	a5		 movsd
  000bc	0f 5a c0	 cvtps2pd xmm0, xmm0
  000bf	f2 0f 59 05 00
	00 00 00	 mulsd	 xmm0, QWORD PTR __real@3f91df46a2526c7a
  000c7	51		 push	 ecx
  000c8	66 0f 5a c0	 cvtpd2ps xmm0, xmm0
  000cc	f3 0f 11 04 24	 movss	 DWORD PTR [esp], xmm0
  000d1	8d 45 e4	 lea	 eax, DWORD PTR _vAxis$[ebp]
  000d4	a5		 movsd
  000d5	50		 push	 eax
  000d6	8d 45 c4	 lea	 eax, DWORD PTR _qtRot$[ebp]
  000d9	50		 push	 eax
  000da	a5		 movsd
  000db	e8 00 00 00 00	 call	 _D3DXQuaternionRotationAxis@12

; 148  : 	m_vMoveDir = qtRot * m_vMoveDir;

  000e0	53		 push	 ebx
  000e1	8d 45 c4	 lea	 eax, DWORD PTR _qtRot$[ebp]
  000e4	50		 push	 eax
  000e5	8d 45 d8	 lea	 eax, DWORD PTR $T530951[ebp]
  000e8	50		 push	 eax
  000e9	ff 15 00 00 00
	00		 call	 DWORD PTR __imp_??D@YA?AUD3DXVECTOR3@@ABUD3DXQUATERNION@@ABU0@@Z
  000ef	8b f0		 mov	 esi, eax
  000f1	8b fb		 mov	 edi, ebx
  000f3	a5		 movsd
  000f4	a5		 movsd
  000f5	a5		 movsd

; 149  : 	
; 150  : 	ioMath::CalcDirectionQuaternion( qtRot, -m_vMoveDir );

  000f6	f3 0f 10 05 00
	00 00 00	 movss	 xmm0, DWORD PTR __mask@@NegFloat@
  000fe	f3 0f 10 0b	 movss	 xmm1, DWORD PTR [ebx]
  00102	0f 57 c8	 xorps	 xmm1, xmm0
  00105	f3 0f 11 4d f0	 movss	 DWORD PTR $T530952[ebp], xmm1
  0010a	f3 0f 10 4b 04	 movss	 xmm1, DWORD PTR [ebx+4]
  0010f	0f 57 c8	 xorps	 xmm1, xmm0
  00112	8d 45 f0	 lea	 eax, DWORD PTR $T530952[ebp]
  00115	50		 push	 eax
  00116	f3 0f 11 4d f4	 movss	 DWORD PTR $T530952[ebp+4], xmm1
  0011b	f3 0f 10 4b 08	 movss	 xmm1, DWORD PTR [ebx+8]
  00120	8d 45 c4	 lea	 eax, DWORD PTR _qtRot$[ebp]
  00123	0f 57 c8	 xorps	 xmm1, xmm0
  00126	50		 push	 eax
  00127	f3 0f 11 4d f8	 movss	 DWORD PTR $T530952[ebp+8], xmm1
  0012c	ff 15 00 00 00
	00		 call	 DWORD PTR __imp_?CalcDirectionQuaternion@ioMath@@SAXAAUD3DXQUATERNION@@ABUD3DXVECTOR3@@@Z

; 151  : 	SetOrientation( qtRot );

  00132	8b 4d d4	 mov	 ecx, DWORD PTR _this$GSCopy$[ebp]
  00135	83 c4 14	 add	 esp, 20			; 00000014H
  00138	8d 45 c4	 lea	 eax, DWORD PTR _qtRot$[ebp]
  0013b	50		 push	 eax
  0013c	e8 00 00 00 00	 call	 ?SetOrientation@ioWeapon@@QAEXABUD3DXQUATERNION@@@Z ; ioWeapon::SetOrientation
  00141	5f		 pop	 edi
  00142	5e		 pop	 esi

; 152  : }

  00143	8b 4d fc	 mov	 ecx, DWORD PTR __$ArrayPad$[ebp]
  00146	33 cd		 xor	 ecx, ebp
  00148	5b		 pop	 ebx
  00149	e8 00 00 00 00	 call	 @__security_check_cookie@4
  0014e	c9		 leave
  0014f	c2 04 00	 ret	 4
?RotateMoveDir@ioArrowWeapon@@QAEXM@Z ENDP		; ioArrowWeapon::RotateMoveDir
_TEXT	ENDS
PUBLIC	__real@00000000
PUBLIC	_this$GSCopy$
PUBLIC	__$ArrayPad$
PUBLIC	?RotateMoveDir@ioArrowWeapon@@QAEXMM@Z		; ioArrowWeapon::RotateMoveDir
EXTRN	__imp_?UNIT_Y@ioMath@@2UD3DXVECTOR3@@A:BYTE
EXTRN	__imp_?ArrangeHead@ioMath@@SAMM@Z:PROC
;	COMDAT __real@00000000
; File d:\lost saga for developer\youtube\tutorial\source\src\lsclient\ioweapon.h
CONST	SEGMENT
__real@00000000 DD 000000000r			; 0
; Function compile flags: /Ogsp
; File d:\lost saga for developer\youtube\tutorial\source\src\lsclient\ioarrowweapon.cpp
CONST	ENDS
;	COMDAT ?RotateMoveDir@ioArrowWeapon@@QAEXMM@Z
_TEXT	SEGMENT
tv408 = -64						; size = 4
_v$533142 = -60						; size = 12
_qtRot$ = -48						; size = 16
_this$GSCopy$ = -32					; size = 4
$T530965 = -28						; size = 12
$T530964 = -28						; size = 12
$T530960 = -28						; size = 12
_vAxis$530962 = -16					; size = 12
__$ArrayPad$ = -4					; size = 4
_fAngleH$ = 8						; size = 4
_fAngleV$ = 12						; size = 4
?RotateMoveDir@ioArrowWeapon@@QAEXMM@Z PROC		; ioArrowWeapon::RotateMoveDir, COMDAT
; _this$ = ecx

; 156  : {

  00000	55		 push	 ebp
  00001	8b ec		 mov	 ebp, esp
  00003	83 ec 40	 sub	 esp, 64			; 00000040H
  00006	a1 00 00 00 00	 mov	 eax, DWORD PTR ___security_cookie
  0000b	33 c5		 xor	 eax, ebp
  0000d	89 45 fc	 mov	 DWORD PTR __$ArrayPad$[ebp], eax

; 157  : 	fAngleH = ioMath::ArrangeHead( fAngleH );

  00010	f3 0f 10 45 08	 movss	 xmm0, DWORD PTR _fAngleH$[ebp]
  00015	53		 push	 ebx
  00016	56		 push	 esi
  00017	57		 push	 edi
  00018	8b d9		 mov	 ebx, ecx
  0001a	51		 push	 ecx

; 173  : 	{
; 174  : 		D3DXVECTOR3 vAxis;
; 175  : 		D3DXVec3Cross( &vAxis, &m_vMoveDir, &D3DXVECTOR3( 0.0f, -FLOAT1, 0.0f ) );

  0001b	89 5d e0	 mov	 DWORD PTR _this$GSCopy$[ebp], ebx
  0001e	f3 0f 11 04 24	 movss	 DWORD PTR [esp], xmm0
  00023	ff 15 00 00 00
	00		 call	 DWORD PTR __imp_?ArrangeHead@ioMath@@SAMM@Z
  00029	d9 5d 08	 fstp	 DWORD PTR _fAngleH$[ebp]
  0002c	f3 0f 10 45 0c	 movss	 xmm0, DWORD PTR _fAngleV$[ebp]
  00031	f3 0f 11 04 24	 movss	 DWORD PTR [esp], xmm0
  00036	ff 15 00 00 00
	00		 call	 DWORD PTR __imp_?ArrangeHead@ioMath@@SAMM@Z
  0003c	d9 5d 0c	 fstp	 DWORD PTR _fAngleV$[ebp]
  0003f	d9 ee		 fldz
  00041	59		 pop	 ecx
  00042	d9 45 08	 fld	 DWORD PTR _fAngleH$[ebp]
  00045	df e9		 fucomip ST(1)
  00047	dd d8		 fstp	 ST(0)
  00049	9f		 lahf
  0004a	f6 c4 44	 test	 ah, 68			; 00000044H
  0004d	7b 61		 jnp	 SHORT $LN2@RotateMove@2

; 158  : 	fAngleV = ioMath::ArrangeHead( fAngleV );
; 159  : 
; 160  : 	D3DXQUATERNION qtRot;
; 161  : 
; 162  : 	// horizon
; 163  : 	if( fAngleH != 0.0f )
; 164  : 	{
; 165  : 		D3DXQuaternionRotationAxis( &qtRot, &ioMath::UNIT_Y, DEGtoRAD(fAngleH) );

  0004f	f3 0f 10 45 08	 movss	 xmm0, DWORD PTR _fAngleH$[ebp]
  00054	0f 5a c0	 cvtps2pd xmm0, xmm0
  00057	f2 0f 59 05 00
	00 00 00	 mulsd	 xmm0, QWORD PTR __real@3f91df46a2526c7a
  0005f	51		 push	 ecx
  00060	f2 0f 5a c0	 cvtsd2ss xmm0, xmm0
  00064	f3 0f 11 04 24	 movss	 DWORD PTR [esp], xmm0
  00069	ff 35 00 00 00
	00		 push	 DWORD PTR __imp_?UNIT_Y@ioMath@@2UD3DXVECTOR3@@A
  0006f	8d 45 d0	 lea	 eax, DWORD PTR _qtRot$[ebp]
  00072	50		 push	 eax
  00073	e8 00 00 00 00	 call	 _D3DXQuaternionRotationAxis@12

; 166  : 		m_vMoveDir = qtRot * m_vMoveDir;

  00078	8d bb a4 08 00
	00		 lea	 edi, DWORD PTR [ebx+2212]
  0007e	57		 push	 edi
  0007f	8d 45 d0	 lea	 eax, DWORD PTR _qtRot$[ebp]
  00082	50		 push	 eax
  00083	8d 45 e4	 lea	 eax, DWORD PTR $T530960[ebp]
  00086	50		 push	 eax
  00087	ff 15 00 00 00
	00		 call	 DWORD PTR __imp_??D@YA?AUD3DXVECTOR3@@ABUD3DXQUATERNION@@ABU0@@Z

; 167  : 
; 168  : 		GetParentSceneNode()->Rotate( ioMath::UNIT_Y, fAngleH );

  0008d	8b 4b 04	 mov	 ecx, DWORD PTR [ebx+4]
  00090	f3 0f 10 45 08	 movss	 xmm0, DWORD PTR _fAngleH$[ebp]
  00095	8b f0		 mov	 esi, eax
  00097	a5		 movsd
  00098	83 c4 0c	 add	 esp, 12			; 0000000cH
  0009b	a5		 movsd
  0009c	6a 01		 push	 1
  0009e	51		 push	 ecx
  0009f	a5		 movsd
  000a0	8b 01		 mov	 eax, DWORD PTR [ecx]
  000a2	f3 0f 11 04 24	 movss	 DWORD PTR [esp], xmm0
  000a7	ff 35 00 00 00
	00		 push	 DWORD PTR __imp_?UNIT_Y@ioMath@@2UD3DXVECTOR3@@A
  000ad	ff 50 50	 call	 DWORD PTR [eax+80]
$LN2@RotateMove@2:

; 169  : 	}
; 170  : 
; 171  : 	// vertical
; 172  : 	if( fAngleV != 0.0f )

  000b0	f3 0f 10 65 0c	 movss	 xmm4, DWORD PTR _fAngleV$[ebp]
  000b5	0f 2e 25 00 00
	00 00		 ucomiss xmm4, DWORD PTR __real@00000000
  000bc	9f		 lahf
  000bd	f6 c4 44	 test	 ah, 68			; 00000044H
  000c0	0f 8b f8 00 00
	00		 jnp	 $LN1@RotateMove@2

; 173  : 	{
; 174  : 		D3DXVECTOR3 vAxis;
; 175  : 		D3DXVec3Cross( &vAxis, &m_vMoveDir, &D3DXVECTOR3( 0.0f, -FLOAT1, 0.0f ) );

  000c6	b8 01 00 00 00	 mov	 eax, 1
  000cb	89 45 c0	 mov	 DWORD PTR tv408[ebp], eax
  000ce	db 45 c0	 fild	 DWORD PTR tv408[ebp]
  000d1	85 c0		 test	 eax, eax
  000d3	79 06		 jns	 SHORT $LN25@RotateMove@2
  000d5	d8 05 00 00 00
	00		 fadd	 DWORD PTR __real@4f800000
$LN25@RotateMove@2:
  000db	f3 0f 10 83 a8
	08 00 00	 movss	 xmm0, DWORD PTR [ebx+2216]
  000e3	d9 e0		 fchs
  000e5	f3 0f 10 93 ac
	08 00 00	 movss	 xmm2, DWORD PTR [ebx+2220]
  000ed	d9 5d e8	 fstp	 DWORD PTR $T530964[ebp+4]
  000f0	f3 0f 10 6d e8	 movss	 xmm5, DWORD PTR $T530964[ebp+4]
  000f5	0f 5a c8	 cvtps2pd xmm1, xmm0
  000f8	0f 57 c0	 xorps	 xmm0, xmm0
  000fb	0f 5a da	 cvtps2pd xmm3, xmm2
  000fe	f2 0f 59 c8	 mulsd	 xmm1, xmm0
  00102	81 c3 a4 08 00
	00		 add	 ebx, 2212		; 000008a4H
  00108	0f 5a ed	 cvtps2pd xmm5, xmm5
  0010b	f2 0f 59 dd	 mulsd	 xmm3, xmm5
  0010f	66 0f 28 e9	 movapd	 xmm5, xmm1
  00113	f2 0f 5c eb	 subsd	 xmm5, xmm3
  00117	0f 57 db	 xorps	 xmm3, xmm3
  0011a	f2 0f 5a dd	 cvtsd2ss xmm3, xmm5
  0011e	f3 0f 11 5d c4	 movss	 DWORD PTR _v$533142[ebp], xmm3
  00123	f3 0f 10 1b	 movss	 xmm3, DWORD PTR [ebx]
  00127	0f 5a d2	 cvtps2pd xmm2, xmm2
  0012a	f2 0f 59 d0	 mulsd	 xmm2, xmm0
  0012e	0f 5a eb	 cvtps2pd xmm5, xmm3
  00131	f2 0f 59 e8	 mulsd	 xmm5, xmm0
  00135	f2 0f 5c d5	 subsd	 xmm2, xmm5
  00139	66 0f 5a c2	 cvtpd2ps xmm0, xmm2
  0013d	f3 0f 10 55 e8	 movss	 xmm2, DWORD PTR $T530964[ebp+4]
  00142	f3 0f 11 45 c8	 movss	 DWORD PTR _v$533142[ebp+4], xmm0
  00147	0f 5a d2	 cvtps2pd xmm2, xmm2
  0014a	8d 75 c4	 lea	 esi, DWORD PTR _v$533142[ebp]
  0014d	8d 7d f0	 lea	 edi, DWORD PTR _vAxis$530962[ebp]
  00150	0f 5a c3	 cvtps2pd xmm0, xmm3
  00153	f2 0f 59 c2	 mulsd	 xmm0, xmm2
  00157	f2 0f 5c c1	 subsd	 xmm0, xmm1
  0015b	66 0f 5a c0	 cvtpd2ps xmm0, xmm0
  0015f	f3 0f 11 45 cc	 movss	 DWORD PTR _v$533142[ebp+8], xmm0
  00164	a5		 movsd

; 176  : 		D3DXQuaternionRotationAxis( &qtRot, &vAxis, DEGtoRAD(fAngleV) );

  00165	0f 5a c4	 cvtps2pd xmm0, xmm4
  00168	f2 0f 59 05 00
	00 00 00	 mulsd	 xmm0, QWORD PTR __real@3f91df46a2526c7a
  00170	51		 push	 ecx
  00171	66 0f 5a c0	 cvtpd2ps xmm0, xmm0
  00175	f3 0f 11 04 24	 movss	 DWORD PTR [esp], xmm0
  0017a	8d 45 f0	 lea	 eax, DWORD PTR _vAxis$530962[ebp]
  0017d	a5		 movsd
  0017e	50		 push	 eax
  0017f	8d 45 d0	 lea	 eax, DWORD PTR _qtRot$[ebp]
  00182	50		 push	 eax
  00183	a5		 movsd
  00184	e8 00 00 00 00	 call	 _D3DXQuaternionRotationAxis@12

; 177  : 		m_vMoveDir = qtRot * m_vMoveDir;

  00189	53		 push	 ebx
  0018a	8d 45 d0	 lea	 eax, DWORD PTR _qtRot$[ebp]
  0018d	50		 push	 eax
  0018e	8d 45 e4	 lea	 eax, DWORD PTR $T530965[ebp]
  00191	50		 push	 eax
  00192	ff 15 00 00 00
	00		 call	 DWORD PTR __imp_??D@YA?AUD3DXVECTOR3@@ABUD3DXQUATERNION@@ABU0@@Z

; 178  : 
; 179  : 		GetParentSceneNode()->Rotate( vAxis, fAngleV );

  00198	f3 0f 10 45 0c	 movss	 xmm0, DWORD PTR _fAngleV$[ebp]
  0019d	8b f0		 mov	 esi, eax
  0019f	8b 45 e0	 mov	 eax, DWORD PTR _this$GSCopy$[ebp]
  001a2	8b 48 04	 mov	 ecx, DWORD PTR [eax+4]
  001a5	8b fb		 mov	 edi, ebx
  001a7	a5		 movsd
  001a8	83 c4 0c	 add	 esp, 12			; 0000000cH
  001ab	a5		 movsd
  001ac	6a 01		 push	 1
  001ae	51		 push	 ecx
  001af	8d 55 f0	 lea	 edx, DWORD PTR _vAxis$530962[ebp]
  001b2	a5		 movsd
  001b3	8b 01		 mov	 eax, DWORD PTR [ecx]
  001b5	f3 0f 11 04 24	 movss	 DWORD PTR [esp], xmm0
  001ba	52		 push	 edx
  001bb	ff 50 50	 call	 DWORD PTR [eax+80]
$LN1@RotateMove@2:

; 180  : 	}
; 181  : }

  001be	8b 4d fc	 mov	 ecx, DWORD PTR __$ArrayPad$[ebp]
  001c1	5f		 pop	 edi
  001c2	5e		 pop	 esi
  001c3	33 cd		 xor	 ecx, ebp
  001c5	5b		 pop	 ebx
  001c6	e8 00 00 00 00	 call	 @__security_check_cookie@4
  001cb	c9		 leave
  001cc	c2 08 00	 ret	 8
?RotateMoveDir@ioArrowWeapon@@QAEXMM@Z ENDP		; ioArrowWeapon::RotateMoveDir
_TEXT	ENDS
PUBLIC	?UpdateWorldAttackBox@ioArrowWeapon@@MAEXM_N@Z	; ioArrowWeapon::UpdateWorldAttackBox
EXTRN	__imp_?SetNull@ioOrientBox@@QAEXXZ:PROC
EXTRN	__imp_?Transform@ioOrientBox@@QAEXABUD3DXVECTOR3@@0ABUD3DXQUATERNION@@@Z:PROC
EXTRN	?GetScale@ioWeapon@@QBEABUD3DXVECTOR3@@XZ:PROC	; ioWeapon::GetScale
EXTRN	?GetOrientation@ioWeapon@@QBEABUD3DXQUATERNION@@XZ:PROC ; ioWeapon::GetOrientation
EXTRN	__imp_?IsNull@ioOrientBox@@QBE_NXZ:PROC
EXTRN	__imp_?SetExtents@ioOrientBox@@QAEXHM@Z:PROC
EXTRN	__imp_?GetExtents@ioOrientBox@@QBEMH@Z:PROC
; Function compile flags: /Ogsp
;	COMDAT ?UpdateWorldAttackBox@ioArrowWeapon@@MAEXM_N@Z
_TEXT	SEGMENT
tv390 = -8						; size = 4
tv427 = -4						; size = 4
tv397 = -4						; size = 4
_fExtentsX$ = -4					; size = 4
_fTimePerSec$ = 8					; size = 4
tv421 = 12						; size = 4
tv384 = 12						; size = 4
_fMapCollisionRate$ = 12				; size = 4
_fExtentsY$ = 12					; size = 4
_fScaleRate$ = 12					; size = 4
_bSetNull$ = 12						; size = 1
?UpdateWorldAttackBox@ioArrowWeapon@@MAEXM_N@Z PROC	; ioArrowWeapon::UpdateWorldAttackBox, COMDAT
; _this$ = ecx

; 318  : {

  00000	55		 push	 ebp
  00001	8b ec		 mov	 ebp, esp
  00003	51		 push	 ecx
  00004	51		 push	 ecx
  00005	53		 push	 ebx
  00006	8b d9		 mov	 ebx, ecx

; 319  : 	if( !IsLive() || bSetNull )

  00008	80 bb 82 05 00
	00 00		 cmp	 BYTE PTR [ebx+1410], 0
  0000f	56		 push	 esi
  00010	57		 push	 edi
  00011	0f 84 84 01 00
	00		 je	 $LN2@UpdateWorl
  00017	80 7d 0c 00	 cmp	 BYTE PTR _bSetNull$[ebp], 0
  0001b	0f 85 7a 01 00
	00		 jne	 $LN2@UpdateWorl

; 323  : 		return;
; 324  : 	}
; 325  : 
; 326  : 	m_WorldAttackBox = GetLocalAttackBox();

  00021	8b 03		 mov	 eax, DWORD PTR [ebx]
  00023	ff 90 00 01 00
	00		 call	 DWORD PTR [eax+256]
  00029	6a 11		 push	 17			; 00000011H
  0002b	8d bb e8 04 00
	00		 lea	 edi, DWORD PTR [ebx+1256]
  00031	59		 pop	 ecx
  00032	8b f0		 mov	 esi, eax
  00034	f3 a5		 rep movsd

; 327  : 
; 328  : 	float fScaleRate = FLOAT1 + (GetAttribute()->m_fScaleRate * m_fCurMoveRate );

  00036	b8 01 00 00 00	 mov	 eax, 1
  0003b	8b f0		 mov	 esi, eax
  0003d	8b 03		 mov	 eax, DWORD PTR [ebx]
  0003f	8b cb		 mov	 ecx, ebx
  00041	ff 90 3c 01 00
	00		 call	 DWORD PTR [eax+316]
  00047	d9 80 ac 01 00
	00		 fld	 DWORD PTR [eax+428]
  0004d	89 75 0c	 mov	 DWORD PTR tv421[ebp], esi
  00050	d8 8b b4 08 00
	00		 fmul	 DWORD PTR [ebx+2228]
  00056	db 45 0c	 fild	 DWORD PTR tv421[ebp]
  00059	85 f6		 test	 esi, esi
  0005b	79 06		 jns	 SHORT $LN10@UpdateWorl
  0005d	d8 05 00 00 00
	00		 fadd	 DWORD PTR __real@4f800000
$LN10@UpdateWorl:
  00063	de c1		 faddp	 ST(1), ST(0)

; 329  : 	float fExtentsX = m_WorldAttackBox.GetExtents(0) * fScaleRate;

  00065	8d b3 e8 04 00
	00		 lea	 esi, DWORD PTR [ebx+1256]
  0006b	6a 00		 push	 0
  0006d	8b ce		 mov	 ecx, esi
  0006f	d9 5d 0c	 fstp	 DWORD PTR _fScaleRate$[ebp]
  00072	ff 15 00 00 00
	00		 call	 DWORD PTR __imp_?GetExtents@ioOrientBox@@QBEMH@Z
  00078	d8 4d 0c	 fmul	 DWORD PTR _fScaleRate$[ebp]

; 330  : 	float fExtentsY = m_WorldAttackBox.GetExtents(1) * fScaleRate;

  0007b	6a 01		 push	 1
  0007d	8b ce		 mov	 ecx, esi
  0007f	d9 5d fc	 fstp	 DWORD PTR _fExtentsX$[ebp]
  00082	ff 15 00 00 00
	00		 call	 DWORD PTR __imp_?GetExtents@ioOrientBox@@QBEMH@Z
  00088	d8 4d 0c	 fmul	 DWORD PTR _fScaleRate$[ebp]

; 331  : 
; 332  : 	m_WorldAttackBox.SetExtents( 0, fExtentsX );

  0008b	f3 0f 10 45 fc	 movss	 xmm0, DWORD PTR _fExtentsX$[ebp]
  00090	8b 3d 00 00 00
	00		 mov	 edi, DWORD PTR __imp_?SetExtents@ioOrientBox@@QAEXHM@Z
  00096	51		 push	 ecx
  00097	f3 0f 11 04 24	 movss	 DWORD PTR [esp], xmm0
  0009c	d9 5d 0c	 fstp	 DWORD PTR _fExtentsY$[ebp]
  0009f	6a 00		 push	 0
  000a1	8b ce		 mov	 ecx, esi
  000a3	ff d7		 call	 edi

; 333  : 	m_WorldAttackBox.SetExtents( 1, fExtentsY );

  000a5	f3 0f 10 45 0c	 movss	 xmm0, DWORD PTR _fExtentsY$[ebp]
  000aa	51		 push	 ecx
  000ab	f3 0f 11 04 24	 movss	 DWORD PTR [esp], xmm0
  000b0	6a 01		 push	 1
  000b2	8b ce		 mov	 ecx, esi
  000b4	ff d7		 call	 edi

; 334  : 
; 335  : 	float fMapCollisionRate = GetAttribute()->m_fMapCollisionBoxRate;

  000b6	8b 03		 mov	 eax, DWORD PTR [ebx]
  000b8	8b cb		 mov	 ecx, ebx
  000ba	ff 90 3c 01 00
	00		 call	 DWORD PTR [eax+316]
  000c0	d9 80 a8 01 00
	00		 fld	 DWORD PTR [eax+424]

; 336  : 	m_WorldAttackBoxForMap = m_WorldAttackBox;

  000c6	6a 11		 push	 17			; 00000011H
  000c8	d9 5d 0c	 fstp	 DWORD PTR _fMapCollisionRate$[ebp]
  000cb	59		 pop	 ecx
  000cc	8d bb 2c 05 00
	00		 lea	 edi, DWORD PTR [ebx+1324]
  000d2	f3 a5		 rep movsd

; 337  : 	m_WorldAttackBoxForMap.SetExtents( 0, m_WorldAttackBox.GetExtents(0)*fMapCollisionRate );

  000d4	6a 00		 push	 0
  000d6	8d 8b e8 04 00
	00		 lea	 ecx, DWORD PTR [ebx+1256]
  000dc	ff 15 00 00 00
	00		 call	 DWORD PTR __imp_?GetExtents@ioOrientBox@@QBEMH@Z
  000e2	8b 35 00 00 00
	00		 mov	 esi, DWORD PTR __imp_?SetExtents@ioOrientBox@@QAEXHM@Z
  000e8	d8 4d 0c	 fmul	 DWORD PTR _fMapCollisionRate$[ebp]
  000eb	51		 push	 ecx
  000ec	8d 8b 2c 05 00
	00		 lea	 ecx, DWORD PTR [ebx+1324]
  000f2	d9 5d fc	 fstp	 DWORD PTR tv397[ebp]
  000f5	d9 45 fc	 fld	 DWORD PTR tv397[ebp]
  000f8	89 4d fc	 mov	 DWORD PTR tv427[ebp], ecx
  000fb	d9 1c 24	 fstp	 DWORD PTR [esp]
  000fe	6a 00		 push	 0
  00100	ff d6		 call	 esi

; 338  : 	m_WorldAttackBoxForMap.SetExtents( 1, m_WorldAttackBox.GetExtents(1)*fMapCollisionRate );

  00102	6a 01		 push	 1
  00104	8d 8b e8 04 00
	00		 lea	 ecx, DWORD PTR [ebx+1256]
  0010a	ff 15 00 00 00
	00		 call	 DWORD PTR __imp_?GetExtents@ioOrientBox@@QBEMH@Z
  00110	d8 4d 0c	 fmul	 DWORD PTR _fMapCollisionRate$[ebp]
  00113	51		 push	 ecx
  00114	8b 4d fc	 mov	 ecx, DWORD PTR tv427[ebp]
  00117	d9 5d f8	 fstp	 DWORD PTR tv390[ebp]
  0011a	d9 45 f8	 fld	 DWORD PTR tv390[ebp]
  0011d	d9 1c 24	 fstp	 DWORD PTR [esp]
  00120	6a 01		 push	 1
  00122	ff d6		 call	 esi

; 339  : 	m_WorldAttackBoxForMap.SetExtents( 2, m_WorldAttackBox.GetExtents(2)*fMapCollisionRate );

  00124	6a 02		 push	 2
  00126	8d 8b e8 04 00
	00		 lea	 ecx, DWORD PTR [ebx+1256]
  0012c	ff 15 00 00 00
	00		 call	 DWORD PTR __imp_?GetExtents@ioOrientBox@@QBEMH@Z
  00132	d8 4d 0c	 fmul	 DWORD PTR _fMapCollisionRate$[ebp]
  00135	51		 push	 ecx
  00136	8b 4d fc	 mov	 ecx, DWORD PTR tv427[ebp]
  00139	d9 5d 0c	 fstp	 DWORD PTR tv384[ebp]
  0013c	d9 45 0c	 fld	 DWORD PTR tv384[ebp]
  0013f	d9 1c 24	 fstp	 DWORD PTR [esp]
  00142	6a 02		 push	 2
  00144	ff d6		 call	 esi

; 340  : 
; 341  : 	if( !m_WorldAttackBox.IsNull() )

  00146	8d 8b e8 04 00
	00		 lea	 ecx, DWORD PTR [ebx+1256]
  0014c	ff 15 00 00 00
	00		 call	 DWORD PTR __imp_?IsNull@ioOrientBox@@QBE_NXZ
  00152	84 c0		 test	 al, al
  00154	75 5b		 jne	 SHORT $LN1@UpdateWorl

; 342  : 	{
; 343  : 		m_WorldAttackBox.Transform( GetPosition(), GetScale(), GetOrientation() );

  00156	8b cb		 mov	 ecx, ebx
  00158	e8 00 00 00 00	 call	 ?GetOrientation@ioWeapon@@QBEABUD3DXQUATERNION@@XZ ; ioWeapon::GetOrientation
  0015d	50		 push	 eax
  0015e	8b cb		 mov	 ecx, ebx
  00160	e8 00 00 00 00	 call	 ?GetScale@ioWeapon@@QBEABUD3DXVECTOR3@@XZ ; ioWeapon::GetScale
  00165	50		 push	 eax
  00166	8b 03		 mov	 eax, DWORD PTR [ebx]
  00168	8b cb		 mov	 ecx, ebx
  0016a	ff 50 70	 call	 DWORD PTR [eax+112]
  0016d	8b 35 00 00 00
	00		 mov	 esi, DWORD PTR __imp_?Transform@ioOrientBox@@QAEXABUD3DXVECTOR3@@0ABUD3DXQUATERNION@@@Z
  00173	50		 push	 eax
  00174	8d 8b e8 04 00
	00		 lea	 ecx, DWORD PTR [ebx+1256]
  0017a	ff d6		 call	 esi

; 344  : 		m_WorldAttackBoxForMap.Transform( GetPosition(), GetScale(), GetOrientation() );

  0017c	8b cb		 mov	 ecx, ebx
  0017e	e8 00 00 00 00	 call	 ?GetOrientation@ioWeapon@@QBEABUD3DXQUATERNION@@XZ ; ioWeapon::GetOrientation
  00183	50		 push	 eax
  00184	8b cb		 mov	 ecx, ebx
  00186	e8 00 00 00 00	 call	 ?GetScale@ioWeapon@@QBEABUD3DXVECTOR3@@XZ ; ioWeapon::GetScale
  0018b	50		 push	 eax
  0018c	8b 03		 mov	 eax, DWORD PTR [ebx]
  0018e	8b cb		 mov	 ecx, ebx
  00190	ff 50 70	 call	 DWORD PTR [eax+112]
  00193	8b 4d fc	 mov	 ecx, DWORD PTR tv427[ebp]
  00196	50		 push	 eax
  00197	ff d6		 call	 esi
  00199	eb 16		 jmp	 SHORT $LN1@UpdateWorl
$LN2@UpdateWorl:

; 320  : 	{
; 321  : 		m_WorldAttackBox.SetNull();

  0019b	8b 35 00 00 00
	00		 mov	 esi, DWORD PTR __imp_?SetNull@ioOrientBox@@QAEXXZ
  001a1	8d 8b e8 04 00
	00		 lea	 ecx, DWORD PTR [ebx+1256]
  001a7	ff d6		 call	 esi

; 322  : 		m_WorldAttackBoxForMap.SetNull();

  001a9	8d 8b 2c 05 00
	00		 lea	 ecx, DWORD PTR [ebx+1324]
  001af	ff d6		 call	 esi
$LN1@UpdateWorl:
  001b1	5f		 pop	 edi
  001b2	5e		 pop	 esi
  001b3	5b		 pop	 ebx

; 345  : 	}
; 346  : }

  001b4	c9		 leave
  001b5	c2 08 00	 ret	 8
?UpdateWorldAttackBox@ioArrowWeapon@@MAEXM_N@Z ENDP	; ioArrowWeapon::UpdateWorldAttackBox
_TEXT	ENDS
PUBLIC	?CheckCurAttribute@ioArrowWeapon@@UAEXPBVioPlayEntity@@@Z ; ioArrowWeapon::CheckCurAttribute
EXTRN	?FindAttribute@ioWeaponManager@@QAEPBUWeaponAttribute@@H@Z:PROC ; ioWeaponManager::FindAttribute
EXTRN	?GetSingleton@ioWeaponManager@@SAAAV1@XZ:PROC	; ioWeaponManager::GetSingleton
EXTRN	?CheckCurAttribute@ioWeapon@@UAEXPBVioPlayEntity@@@Z:PROC ; ioWeapon::CheckCurAttribute
; Function compile flags: /Ogsp
;	COMDAT ?CheckCurAttribute@ioArrowWeapon@@UAEXPBVioPlayEntity@@@Z
_TEXT	SEGMENT
_pTarget$ = 8						; size = 4
?CheckCurAttribute@ioArrowWeapon@@UAEXPBVioPlayEntity@@@Z PROC ; ioArrowWeapon::CheckCurAttribute, COMDAT
; _this$ = ecx

; 359  : {

  00000	55		 push	 ebp
  00001	8b ec		 mov	 ebp, esp
  00003	53		 push	 ebx
  00004	56		 push	 esi
  00005	57		 push	 edi

; 360  : 	ioWeapon::CheckCurAttribute( pTarget );

  00006	ff 75 08	 push	 DWORD PTR _pTarget$[ebp]
  00009	8b f1		 mov	 esi, ecx
  0000b	e8 00 00 00 00	 call	 ?CheckCurAttribute@ioWeapon@@UAEXPBVioPlayEntity@@@Z ; ioWeapon::CheckCurAttribute

; 361  : 
; 362  : 	if( m_bResistance ) return;

  00010	33 d2		 xor	 edx, edx
  00012	38 96 3c 06 00
	00		 cmp	 BYTE PTR [esi+1596], dl
  00018	75 72		 jne	 SHORT $LN7@CheckCurAt

; 363  : 
; 364  : 	int iSize = m_vSecondAttrList.size();

  0001a	8b 86 c4 08 00
	00		 mov	 eax, DWORD PTR [esi+2244]
  00020	2b 86 c0 08 00
	00		 sub	 eax, DWORD PTR [esi+2240]
  00026	c1 f8 03	 sar	 eax, 3

; 365  : 	if( iSize > 0 )

  00029	3b c2		 cmp	 eax, edx
  0002b	7e 59		 jle	 SHORT $LN5@CheckCurAt

; 366  : 	{
; 367  : 		for( int i=0; i < iSize-1; ++i )

  0002d	8d 58 ff	 lea	 ebx, DWORD PTR [eax-1]
  00030	3b da		 cmp	 ebx, edx
  00032	7e 2d		 jle	 SHORT $LN2@CheckCurAt
  00034	8b 8e c0 08 00
	00		 mov	 ecx, DWORD PTR [esi+2240]
  0003a	f3 0f 10 86 b0
	08 00 00	 movss	 xmm0, DWORD PTR [esi+2224]
  00042	8d 79 04	 lea	 edi, DWORD PTR [ecx+4]
$LL4@CheckCurAt:

; 368  : 		{
; 369  : 			if( m_fCurMoveRange < m_vSecondAttrList[i].m_fLimiteValue )

  00045	f3 0f 10 17	 movss	 xmm2, DWORD PTR [edi]
  00049	0f 57 c9	 xorps	 xmm1, xmm1
  0004c	f3 0f 5a c8	 cvtss2sd xmm1, xmm0
  00050	0f 5a d2	 cvtps2pd xmm2, xmm2
  00053	66 0f 2f d1	 comisd	 xmm2, xmm1
  00057	77 14		 ja	 SHORT $LN18@CheckCurAt

; 366  : 	{
; 367  : 		for( int i=0; i < iSize-1; ++i )

  00059	42		 inc	 edx
  0005a	83 c7 08	 add	 edi, 8
  0005d	3b d3		 cmp	 edx, ebx
  0005f	7c e4		 jl	 SHORT $LL4@CheckCurAt
$LN2@CheckCurAt:

; 373  : 			}
; 374  : 		}
; 375  : 
; 376  : 		m_pSecondAttr = g_WeaponMgr.FindAttribute( m_vSecondAttrList[iSize-1].m_iAttributeIndex );

  00061	8b 8e c0 08 00
	00		 mov	 ecx, DWORD PTR [esi+2240]
  00067	8d 44 c1 f8	 lea	 eax, DWORD PTR [ecx+eax*8-8]

; 377  : 		return;

  0006b	eb 03		 jmp	 SHORT $LN20@CheckCurAt
$LN18@CheckCurAt:

; 370  : 			{
; 371  : 				m_pSecondAttr = g_WeaponMgr.FindAttribute( m_vSecondAttrList[i].m_iAttributeIndex );

  0006d	8d 04 d1	 lea	 eax, DWORD PTR [ecx+edx*8]
$LN20@CheckCurAt:
  00070	ff 30		 push	 DWORD PTR [eax]
  00072	e8 00 00 00 00	 call	 ?GetSingleton@ioWeaponManager@@SAAAV1@XZ ; ioWeaponManager::GetSingleton
  00077	8b c8		 mov	 ecx, eax
  00079	e8 00 00 00 00	 call	 ?FindAttribute@ioWeaponManager@@QAEPBUWeaponAttribute@@H@Z ; ioWeaponManager::FindAttribute
  0007e	89 86 bc 08 00
	00		 mov	 DWORD PTR [esi+2236], eax

; 372  : 				return;

  00084	eb 06		 jmp	 SHORT $LN7@CheckCurAt
$LN5@CheckCurAt:

; 378  : 	}
; 379  : 
; 380  : 	m_pSecondAttr = NULL;

  00086	89 96 bc 08 00
	00		 mov	 DWORD PTR [esi+2236], edx
$LN7@CheckCurAt:
  0008c	5f		 pop	 edi
  0008d	5e		 pop	 esi
  0008e	5b		 pop	 ebx

; 381  : 	return;
; 382  : }

  0008f	5d		 pop	 ebp
  00090	c2 04 00	 ret	 4
?CheckCurAttribute@ioArrowWeapon@@UAEXPBVioPlayEntity@@@Z ENDP ; ioArrowWeapon::CheckCurAttribute
_TEXT	ENDS
PUBLIC	?CheckCollisionLine@ioArrowWeapon@@IAE_NPAVioPlayEntity@@ABUD3DXVECTOR3@@@Z ; ioArrowWeapon::CheckCollisionLine
EXTRN	?CheckCollisionLine@ioBaseChar@@QAE_NABUD3DXVECTOR3@@0_N@Z:PROC ; ioBaseChar::CheckCollisionLine
; Function compile flags: /Ogsp
;	COMDAT ?CheckCollisionLine@ioArrowWeapon@@IAE_NPAVioPlayEntity@@ABUD3DXVECTOR3@@@Z
_TEXT	SEGMENT
_pTarget$ = 8						; size = 4
_vColPoint$ = 12					; size = 4
?CheckCollisionLine@ioArrowWeapon@@IAE_NPAVioPlayEntity@@ABUD3DXVECTOR3@@@Z PROC ; ioArrowWeapon::CheckCollisionLine, COMDAT
; _this$ = ecx

; 416  : {

  00000	55		 push	 ebp
  00001	8b ec		 mov	 ebp, esp
  00003	56		 push	 esi

; 417  : 	//     
; 418  : 	ioBaseChar *pTargetChar = ToBaseChar( pTarget );

  00004	ff 75 08	 push	 DWORD PTR _pTarget$[ebp]
  00007	8b f1		 mov	 esi, ecx
  00009	e8 00 00 00 00	 call	 ?ToBaseChar@@YAPAVioBaseChar@@PAVioGameEntity@@@Z ; ToBaseChar
  0000e	59		 pop	 ecx

; 419  : 	if( !pTargetChar )	return true;

  0000f	85 c0		 test	 eax, eax
  00011	75 04		 jne	 SHORT $LN2@CheckColli
  00013	b0 01		 mov	 al, 1
  00015	eb 22		 jmp	 SHORT $LN3@CheckColli
$LN2@CheckColli:

; 420  : 
; 421  : 	ioBaseChar *pOwner = GetOwner();

  00017	8b ce		 mov	 ecx, esi
  00019	e8 00 00 00 00	 call	 ?GetOwner@ioWeapon@@QBEPAVioBaseChar@@XZ ; ioWeapon::GetOwner

; 422  : 	if( pOwner )

  0001e	85 c0		 test	 eax, eax
  00020	74 15		 je	 SHORT $LN1@CheckColli

; 423  : 		return pOwner->CheckCollisionLine( m_StartPos, vColPoint );

  00022	6a 01		 push	 1
  00024	ff 75 0c	 push	 DWORD PTR _vColPoint$[ebp]
  00027	81 c6 98 08 00
	00		 add	 esi, 2200		; 00000898H
  0002d	56		 push	 esi
  0002e	8b c8		 mov	 ecx, eax
  00030	e8 00 00 00 00	 call	 ?CheckCollisionLine@ioBaseChar@@QAE_NABUD3DXVECTOR3@@0_N@Z ; ioBaseChar::CheckCollisionLine
  00035	eb 02		 jmp	 SHORT $LN3@CheckColli
$LN1@CheckColli:

; 424  : 
; 425  : 	return false;	//     

  00037	32 c0		 xor	 al, al
$LN3@CheckColli:
  00039	5e		 pop	 esi

; 426  : }

  0003a	5d		 pop	 ebp
  0003b	c2 08 00	 ret	 8
?CheckCollisionLine@ioArrowWeapon@@IAE_NPAVioPlayEntity@@ABUD3DXVECTOR3@@@Z ENDP ; ioArrowWeapon::CheckCollisionLine
_TEXT	ENDS
PUBLIC	??0?$_Vector_val@USecondAttribute@@V?$allocator@USecondAttribute@@@std@@@std@@QAE@V?$allocator@USecondAttribute@@@1@@Z ; std::_Vector_val<SecondAttribute,std::allocator<SecondAttribute> >::_Vector_val<SecondAttribute,std::allocator<SecondAttribute> >
; Function compile flags: /Ogsp
; File c:\program files (x86)\microsoft visual studio 10.0\vc\include\vector
;	COMDAT ??0?$_Vector_val@USecondAttribute@@V?$allocator@USecondAttribute@@@std@@@std@@QAE@V?$allocator@USecondAttribute@@@1@@Z
_TEXT	SEGMENT
__Al$ = 8						; size = 1
??0?$_Vector_val@USecondAttribute@@V?$allocator@USecondAttribute@@@std@@@std@@QAE@V?$allocator@USecondAttribute@@@1@@Z PROC ; std::_Vector_val<SecondAttribute,std::allocator<SecondAttribute> >::_Vector_val<SecondAttribute,std::allocator<SecondAttribute> >, COMDAT
; _this$ = ecx

; 426  : 		{	// construct allocator from _Al

  00000	8b c1		 mov	 eax, ecx

; 427  : 		_Myfirst = 0;

  00002	33 c9		 xor	 ecx, ecx
  00004	89 08		 mov	 DWORD PTR [eax], ecx

; 428  : 		_Mylast = 0;

  00006	89 48 04	 mov	 DWORD PTR [eax+4], ecx

; 429  : 		_Myend = 0;

  00009	89 48 08	 mov	 DWORD PTR [eax+8], ecx

; 430  : 		}

  0000c	c2 04 00	 ret	 4
??0?$_Vector_val@USecondAttribute@@V?$allocator@USecondAttribute@@@std@@@std@@QAE@V?$allocator@USecondAttribute@@@1@@Z ENDP ; std::_Vector_val<SecondAttribute,std::allocator<SecondAttribute> >::_Vector_val<SecondAttribute,std::allocator<SecondAttribute> >
_TEXT	ENDS
PUBLIC	?max_size@?$vector@USecondAttribute@@V?$allocator@USecondAttribute@@@std@@@std@@QBEIXZ ; std::vector<SecondAttribute,std::allocator<SecondAttribute> >::max_size
; Function compile flags: /Ogsp
;	COMDAT ?max_size@?$vector@USecondAttribute@@V?$allocator@USecondAttribute@@@std@@@std@@QBEIXZ
_TEXT	SEGMENT
?max_size@?$vector@USecondAttribute@@V?$allocator@USecondAttribute@@@std@@@std@@QBEIXZ PROC ; std::vector<SecondAttribute,std::allocator<SecondAttribute> >::max_size, COMDAT
; _this$ = ecx

; 884  : 		return (this->_Alval.max_size());

  00000	b8 ff ff ff 1f	 mov	 eax, 536870911		; 1fffffffH

; 885  : 		}

  00005	c3		 ret	 0
?max_size@?$vector@USecondAttribute@@V?$allocator@USecondAttribute@@@std@@@std@@QBEIXZ ENDP ; std::vector<SecondAttribute,std::allocator<SecondAttribute> >::max_size
_TEXT	ENDS
PUBLIC	?_Grow_to@?$vector@USecondAttribute@@V?$allocator@USecondAttribute@@@std@@@std@@IBEII@Z ; std::vector<SecondAttribute,std::allocator<SecondAttribute> >::_Grow_to
; Function compile flags: /Ogsp
;	COMDAT ?_Grow_to@?$vector@USecondAttribute@@V?$allocator@USecondAttribute@@@std@@@std@@IBEII@Z
_TEXT	SEGMENT
__Count$ = 8						; size = 4
?_Grow_to@?$vector@USecondAttribute@@V?$allocator@USecondAttribute@@@std@@@std@@IBEII@Z PROC ; std::vector<SecondAttribute,std::allocator<SecondAttribute> >::_Grow_to, COMDAT
; _this$ = ecx

; 1274 : 		{	// grow by 50% or at least to _Count

  00000	55		 push	 ebp
  00001	8b ec		 mov	 ebp, esp

; 1275 : 		size_type _Capacity = capacity();

  00003	8b 41 08	 mov	 eax, DWORD PTR [ecx+8]
  00006	2b 01		 sub	 eax, DWORD PTR [ecx]

; 1276 : 
; 1277 : 		_Capacity = max_size() - _Capacity / 2 < _Capacity
; 1278 : 			? 0 : _Capacity + _Capacity / 2;	// try to grow by 50%

  00008	ba ff ff ff 1f	 mov	 edx, 536870911		; 1fffffffH
  0000d	c1 f8 03	 sar	 eax, 3
  00010	8b c8		 mov	 ecx, eax
  00012	d1 e9		 shr	 ecx, 1
  00014	2b d1		 sub	 edx, ecx
  00016	3b d0		 cmp	 edx, eax
  00018	73 04		 jae	 SHORT $LN4@Grow_to
  0001a	33 c0		 xor	 eax, eax
  0001c	eb 02		 jmp	 SHORT $LN5@Grow_to
$LN4@Grow_to:
  0001e	03 c1		 add	 eax, ecx
$LN5@Grow_to:

; 1279 : 		if (_Capacity < _Count)

  00020	3b 45 08	 cmp	 eax, DWORD PTR __Count$[ebp]

; 1280 : 			_Capacity = _Count;

  00023	0f 42 45 08	 cmovb	 eax, DWORD PTR __Count$[ebp]

; 1281 : 		return (_Capacity);
; 1282 : 		}

  00027	5d		 pop	 ebp
  00028	c2 04 00	 ret	 4
?_Grow_to@?$vector@USecondAttribute@@V?$allocator@USecondAttribute@@@std@@@std@@IBEII@Z ENDP ; std::vector<SecondAttribute,std::allocator<SecondAttribute> >::_Grow_to
_TEXT	ENDS
PUBLIC	??0?$_Vector_iterator@V?$_Vector_val@USecondAttribute@@V?$allocator@USecondAttribute@@@std@@@std@@@std@@QAE@PAUSecondAttribute@@PBU_Container_base0@1@@Z ; std::_Vector_iterator<std::_Vector_val<SecondAttribute,std::allocator<SecondAttribute> > >::_Vector_iterator<std::_Vector_val<SecondAttribute,std::allocator<SecondAttribute> > >
; Function compile flags: /Ogsp
;	COMDAT ??0?$_Vector_iterator@V?$_Vector_val@USecondAttribute@@V?$allocator@USecondAttribute@@@std@@@std@@@std@@QAE@PAUSecondAttribute@@PBU_Container_base0@1@@Z
_TEXT	SEGMENT
__Parg$ = 8						; size = 4
__Pvector$ = 12						; size = 4
??0?$_Vector_iterator@V?$_Vector_val@USecondAttribute@@V?$allocator@USecondAttribute@@@std@@@std@@@std@@QAE@PAUSecondAttribute@@PBU_Container_base0@1@@Z PROC ; std::_Vector_iterator<std::_Vector_val<SecondAttribute,std::allocator<SecondAttribute> > >::_Vector_iterator<std::_Vector_val<SecondAttribute,std::allocator<SecondAttribute> > >, COMDAT
; _this$ = ecx

; 304  : 		{	// construct with pointer _Parg

  00000	55		 push	 ebp
  00001	8b ec		 mov	 ebp, esp
  00003	8b c1		 mov	 eax, ecx
  00005	8b 4d 08	 mov	 ecx, DWORD PTR __Parg$[ebp]
  00008	89 08		 mov	 DWORD PTR [eax], ecx

; 305  : 		}

  0000a	5d		 pop	 ebp
  0000b	c2 08 00	 ret	 8
??0?$_Vector_iterator@V?$_Vector_val@USecondAttribute@@V?$allocator@USecondAttribute@@@std@@@std@@@std@@QAE@PAUSecondAttribute@@PBU_Container_base0@1@@Z ENDP ; std::_Vector_iterator<std::_Vector_val<SecondAttribute,std::allocator<SecondAttribute> > >::_Vector_iterator<std::_Vector_val<SecondAttribute,std::allocator<SecondAttribute> > >
_TEXT	ENDS
PUBLIC	?allocate@?$allocator@USecondAttribute@@@std@@QAEPAUSecondAttribute@@I@Z ; std::allocator<SecondAttribute>::allocate
; Function compile flags: /Ogsp
; File c:\program files (x86)\microsoft visual studio 10.0\vc\include\xmemory
;	COMDAT ?allocate@?$allocator@USecondAttribute@@@std@@QAEPAUSecondAttribute@@I@Z
_TEXT	SEGMENT
__Count$ = 8						; size = 4
?allocate@?$allocator@USecondAttribute@@@std@@QAEPAUSecondAttribute@@I@Z PROC ; std::allocator<SecondAttribute>::allocate, COMDAT
; _this$ = ecx

; 186  : 		{	// allocate array of _Count elements

  00000	55		 push	 ebp
  00001	8b ec		 mov	 ebp, esp

; 187  : 		return (_Allocate(_Count, (pointer)0));

  00003	6a 00		 push	 0
  00005	ff 75 08	 push	 DWORD PTR __Count$[ebp]
  00008	e8 00 00 00 00	 call	 ??$_Allocate@USecondAttribute@@@std@@YAPAUSecondAttribute@@IPAU1@@Z ; std::_Allocate<SecondAttribute>
  0000d	59		 pop	 ecx
  0000e	59		 pop	 ecx

; 188  : 		}

  0000f	5d		 pop	 ebp
  00010	c2 04 00	 ret	 4
?allocate@?$allocator@USecondAttribute@@@std@@QAEPAUSecondAttribute@@I@Z ENDP ; std::allocator<SecondAttribute>::allocate
_TEXT	ENDS
PUBLIC	??8?$_Vector_const_iterator@V?$_Vector_val@USecondAttribute@@V?$allocator@USecondAttribute@@@std@@@std@@@std@@QBE_NABV01@@Z ; std::_Vector_const_iterator<std::_Vector_val<SecondAttribute,std::allocator<SecondAttribute> > >::operator==
; Function compile flags: /Ogsp
; File c:\program files (x86)\microsoft visual studio 10.0\vc\include\vector
;	COMDAT ??8?$_Vector_const_iterator@V?$_Vector_val@USecondAttribute@@V?$allocator@USecondAttribute@@@std@@@std@@@std@@QBE_NABV01@@Z
_TEXT	SEGMENT
__Right$ = 8						; size = 4
??8?$_Vector_const_iterator@V?$_Vector_val@USecondAttribute@@V?$allocator@USecondAttribute@@@std@@@std@@@std@@QBE_NABV01@@Z PROC ; std::_Vector_const_iterator<std::_Vector_val<SecondAttribute,std::allocator<SecondAttribute> > >::operator==, COMDAT
; _this$ = ecx

; 201  : 		{	// test for iterator equality

  00000	55		 push	 ebp
  00001	8b ec		 mov	 ebp, esp

; 202  : 		_Compat(_Right);
; 203  : 		return (this->_Ptr == _Right._Ptr);

  00003	8b 01		 mov	 eax, DWORD PTR [ecx]
  00005	8b 4d 08	 mov	 ecx, DWORD PTR __Right$[ebp]
  00008	2b 01		 sub	 eax, DWORD PTR [ecx]
  0000a	f7 d8		 neg	 eax
  0000c	1b c0		 sbb	 eax, eax
  0000e	40		 inc	 eax

; 204  : 		}

  0000f	5d		 pop	 ebp
  00010	c2 04 00	 ret	 4
??8?$_Vector_const_iterator@V?$_Vector_val@USecondAttribute@@V?$allocator@USecondAttribute@@@std@@@std@@@std@@QBE_NABV01@@Z ENDP ; std::_Vector_const_iterator<std::_Vector_val<SecondAttribute,std::allocator<SecondAttribute> > >::operator==
_TEXT	ENDS
PUBLIC	__$ArrayPad$
PUBLIC	??$LoadBool_e@$0BB@@ioINILoader@@QAE_NAAY0BB@$$CBD_N@Z ; ioINILoader::LoadBool_e<17>
EXTRN	__imp_?LoadBool@ioINILoader@@QAE_NPBD_N@Z:PROC
; Function compile flags: /Ogsp
; File d:\lost saga for developer\youtube\tutorial\source\src\io3dengine\ioiniloader.h
;	COMDAT ??$LoadBool_e@$0BB@@ioINILoader@@QAE_NAAY0BB@$$CBD_N@Z
_TEXT	SEGMENT
__k$ = -28						; size = 17
__$ArrayPad$ = -4					; size = 4
_k$ = 8							; size = 4
_b$ = 12						; size = 1
??$LoadBool_e@$0BB@@ioINILoader@@QAE_NAAY0BB@$$CBD_N@Z PROC ; ioINILoader::LoadBool_e<17>, COMDAT
; _this$ = ecx

; 101  : 	{

  00000	55		 push	 ebp
  00001	8b ec		 mov	 ebp, esp
  00003	83 ec 1c	 sub	 esp, 28			; 0000001cH
  00006	a1 00 00 00 00	 mov	 eax, DWORD PTR ___security_cookie
  0000b	33 c5		 xor	 eax, ebp
  0000d	89 45 fc	 mov	 DWORD PTR __$ArrayPad$[ebp], eax
  00010	8b 45 08	 mov	 eax, DWORD PTR _k$[ebp]

; 102  : 		_ENCSTR(k, _k);

  00013	8a 10		 mov	 dl, BYTE PTR [eax]
  00015	56		 push	 esi
  00016	8b f1		 mov	 esi, ecx
  00018	84 d2		 test	 dl, dl
  0001a	0f 84 a7 01 00
	00		 je	 $LN96@LoadBool_e
  00020	80 f2 ed	 xor	 dl, -19			; ffffffedH
  00023	88 55 e4	 mov	 BYTE PTR __k$[ebp], dl
  00026	8a 50 01	 mov	 dl, BYTE PTR [eax+1]
  00029	84 d2		 test	 dl, dl
  0002b	0f 84 90 01 00
	00		 je	 $LN95@LoadBool_e
  00031	b1 ec		 mov	 cl, -20			; ffffffecH
  00033	32 d1		 xor	 dl, cl
  00035	88 55 e5	 mov	 BYTE PTR __k$[ebp+1], dl
  00038	8a 50 02	 mov	 dl, BYTE PTR [eax+2]
  0003b	84 d2		 test	 dl, dl
  0003d	0f 84 78 01 00
	00		 je	 $LN94@LoadBool_e
  00043	80 f2 eb	 xor	 dl, -21			; ffffffebH
  00046	88 55 e6	 mov	 BYTE PTR __k$[ebp+2], dl
  00049	8a 50 03	 mov	 dl, BYTE PTR [eax+3]
  0004c	84 d2		 test	 dl, dl
  0004e	0f 84 61 01 00
	00		 je	 $LN93@LoadBool_e
  00054	80 f2 ea	 xor	 dl, -22			; ffffffeaH
  00057	88 55 e7	 mov	 BYTE PTR __k$[ebp+3], dl
  0005a	8a 50 04	 mov	 dl, BYTE PTR [eax+4]
  0005d	84 d2		 test	 dl, dl
  0005f	0f 84 4a 01 00
	00		 je	 $LN92@LoadBool_e
  00065	80 f2 ed	 xor	 dl, -19			; ffffffedH
  00068	88 55 e8	 mov	 BYTE PTR __k$[ebp+4], dl
  0006b	8a 50 05	 mov	 dl, BYTE PTR [eax+5]
  0006e	84 d2		 test	 dl, dl
  00070	0f 84 34 01 00
	00		 je	 $LN91@LoadBool_e
  00076	32 d1		 xor	 dl, cl
  00078	88 55 e9	 mov	 BYTE PTR __k$[ebp+5], dl
  0007b	8a 50 06	 mov	 dl, BYTE PTR [eax+6]
  0007e	84 d2		 test	 dl, dl
  00080	0f 84 1e 01 00
	00		 je	 $LN90@LoadBool_e
  00086	80 f2 eb	 xor	 dl, -21			; ffffffebH
  00089	88 55 ea	 mov	 BYTE PTR __k$[ebp+6], dl
  0008c	8a 50 07	 mov	 dl, BYTE PTR [eax+7]
  0008f	84 d2		 test	 dl, dl
  00091	0f 84 07 01 00
	00		 je	 $LN89@LoadBool_e
  00097	80 f2 ea	 xor	 dl, -22			; ffffffeaH
  0009a	88 55 eb	 mov	 BYTE PTR __k$[ebp+7], dl
  0009d	8a 50 08	 mov	 dl, BYTE PTR [eax+8]
  000a0	84 d2		 test	 dl, dl
  000a2	0f 84 f0 00 00
	00		 je	 $LN88@LoadBool_e
  000a8	80 f2 ed	 xor	 dl, -19			; ffffffedH
  000ab	88 55 ec	 mov	 BYTE PTR __k$[ebp+8], dl
  000ae	8a 50 09	 mov	 dl, BYTE PTR [eax+9]
  000b1	84 d2		 test	 dl, dl
  000b3	0f 84 da 00 00
	00		 je	 $LN87@LoadBool_e
  000b9	32 d1		 xor	 dl, cl
  000bb	88 55 ed	 mov	 BYTE PTR __k$[ebp+9], dl
  000be	8a 50 0a	 mov	 dl, BYTE PTR [eax+10]
  000c1	84 d2		 test	 dl, dl
  000c3	0f 84 c4 00 00
	00		 je	 $LN86@LoadBool_e
  000c9	80 f2 eb	 xor	 dl, -21			; ffffffebH
  000cc	88 55 ee	 mov	 BYTE PTR __k$[ebp+10], dl
  000cf	8a 50 0b	 mov	 dl, BYTE PTR [eax+11]
  000d2	84 d2		 test	 dl, dl
  000d4	0f 84 ad 00 00
	00		 je	 $LN85@LoadBool_e
  000da	80 f2 ea	 xor	 dl, -22			; ffffffeaH
  000dd	88 55 ef	 mov	 BYTE PTR __k$[ebp+11], dl
  000e0	8a 50 0c	 mov	 dl, BYTE PTR [eax+12]
  000e3	84 d2		 test	 dl, dl
  000e5	0f 84 96 00 00
	00		 je	 $LN84@LoadBool_e
  000eb	80 f2 ed	 xor	 dl, -19			; ffffffedH
  000ee	88 55 f0	 mov	 BYTE PTR __k$[ebp+12], dl
  000f1	8a 50 0d	 mov	 dl, BYTE PTR [eax+13]
  000f4	84 d2		 test	 dl, dl
  000f6	0f 84 80 00 00
	00		 je	 $LN83@LoadBool_e
  000fc	32 d1		 xor	 dl, cl
  000fe	88 55 f1	 mov	 BYTE PTR __k$[ebp+13], dl
  00101	8a 50 0e	 mov	 dl, BYTE PTR [eax+14]
  00104	84 d2		 test	 dl, dl
  00106	74 6e		 je	 SHORT $LN82@LoadBool_e
  00108	80 f2 eb	 xor	 dl, -21			; ffffffebH
  0010b	88 55 f2	 mov	 BYTE PTR __k$[ebp+14], dl
  0010e	8a 50 0f	 mov	 dl, BYTE PTR [eax+15]
  00111	84 d2		 test	 dl, dl
  00113	74 5b		 je	 SHORT $LN81@LoadBool_e
  00115	80 f2 ea	 xor	 dl, -22			; ffffffeaH
  00118	80 78 10 00	 cmp	 BYTE PTR [eax+16], 0
  0011c	88 55 f3	 mov	 BYTE PTR __k$[ebp+15], dl
  0011f	0f 84 a6 00 00
	00		 je	 $LN1@LoadBool_e
  00125	8a 50 11	 mov	 dl, BYTE PTR [eax+17]
  00128	84 d2		 test	 dl, dl
  0012a	74 3f		 je	 SHORT $LN79@LoadBool_e
  0012c	32 d1		 xor	 dl, cl
  0012e	88 55 f5	 mov	 BYTE PTR __k$[ebp+17], dl
  00131	8a 50 12	 mov	 dl, BYTE PTR [eax+18]
  00134	84 d2		 test	 dl, dl
  00136	74 2d		 je	 SHORT $LN78@LoadBool_e
  00138	80 f2 eb	 xor	 dl, -21			; ffffffebH
  0013b	88 55 f6	 mov	 BYTE PTR __k$[ebp+18], dl
  0013e	8a 50 13	 mov	 dl, BYTE PTR [eax+19]
  00141	84 d2		 test	 dl, dl
  00143	74 1a		 je	 SHORT $LN77@LoadBool_e
  00145	8a 40 14	 mov	 al, BYTE PTR [eax+20]
  00148	80 f2 ea	 xor	 dl, -22			; ffffffeaH
  0014b	88 55 f7	 mov	 BYTE PTR __k$[ebp+19], dl
  0014e	84 c0		 test	 al, al
  00150	74 07		 je	 SHORT $LN76@LoadBool_e
  00152	34 ed		 xor	 al, -19			; ffffffedH
  00154	88 45 f8	 mov	 BYTE PTR __k$[ebp+20], al
  00157	eb 72		 jmp	 SHORT $LN1@LoadBool_e
$LN76@LoadBool_e:
  00159	c6 45 f8 ed	 mov	 BYTE PTR __k$[ebp+20], -19 ; ffffffedH
  0015d	eb 6c		 jmp	 SHORT $LN1@LoadBool_e
$LN77@LoadBool_e:
  0015f	c6 45 f7 ea	 mov	 BYTE PTR __k$[ebp+19], -22 ; ffffffeaH
  00163	eb 66		 jmp	 SHORT $LN1@LoadBool_e
$LN78@LoadBool_e:
  00165	c6 45 f6 eb	 mov	 BYTE PTR __k$[ebp+18], -21 ; ffffffebH
  00169	eb 60		 jmp	 SHORT $LN1@LoadBool_e
$LN79@LoadBool_e:
  0016b	88 4d f5	 mov	 BYTE PTR __k$[ebp+17], cl
  0016e	eb 5b		 jmp	 SHORT $LN1@LoadBool_e
$LN81@LoadBool_e:
  00170	c6 45 f3 ea	 mov	 BYTE PTR __k$[ebp+15], -22 ; ffffffeaH
  00174	eb 55		 jmp	 SHORT $LN1@LoadBool_e
$LN82@LoadBool_e:
  00176	c6 45 f2 eb	 mov	 BYTE PTR __k$[ebp+14], -21 ; ffffffebH
  0017a	eb 4f		 jmp	 SHORT $LN1@LoadBool_e
$LN83@LoadBool_e:
  0017c	88 4d f1	 mov	 BYTE PTR __k$[ebp+13], cl
  0017f	eb 4a		 jmp	 SHORT $LN1@LoadBool_e
$LN84@LoadBool_e:
  00181	c6 45 f0 ed	 mov	 BYTE PTR __k$[ebp+12], -19 ; ffffffedH
  00185	eb 44		 jmp	 SHORT $LN1@LoadBool_e
$LN85@LoadBool_e:
  00187	c6 45 ef ea	 mov	 BYTE PTR __k$[ebp+11], -22 ; ffffffeaH
  0018b	eb 3e		 jmp	 SHORT $LN1@LoadBool_e
$LN86@LoadBool_e:
  0018d	c6 45 ee eb	 mov	 BYTE PTR __k$[ebp+10], -21 ; ffffffebH
  00191	eb 38		 jmp	 SHORT $LN1@LoadBool_e
$LN87@LoadBool_e:
  00193	88 4d ed	 mov	 BYTE PTR __k$[ebp+9], cl
  00196	eb 33		 jmp	 SHORT $LN1@LoadBool_e
$LN88@LoadBool_e:
  00198	c6 45 ec ed	 mov	 BYTE PTR __k$[ebp+8], -19 ; ffffffedH
  0019c	eb 2d		 jmp	 SHORT $LN1@LoadBool_e
$LN89@LoadBool_e:
  0019e	c6 45 eb ea	 mov	 BYTE PTR __k$[ebp+7], -22 ; ffffffeaH
  001a2	eb 27		 jmp	 SHORT $LN1@LoadBool_e
$LN90@LoadBool_e:
  001a4	c6 45 ea eb	 mov	 BYTE PTR __k$[ebp+6], -21 ; ffffffebH
  001a8	eb 21		 jmp	 SHORT $LN1@LoadBool_e
$LN91@LoadBool_e:
  001aa	88 4d e9	 mov	 BYTE PTR __k$[ebp+5], cl
  001ad	eb 1c		 jmp	 SHORT $LN1@LoadBool_e
$LN92@LoadBool_e:
  001af	c6 45 e8 ed	 mov	 BYTE PTR __k$[ebp+4], -19 ; ffffffedH
  001b3	eb 16		 jmp	 SHORT $LN1@LoadBool_e
$LN93@LoadBool_e:
  001b5	c6 45 e7 ea	 mov	 BYTE PTR __k$[ebp+3], -22 ; ffffffeaH
  001b9	eb 10		 jmp	 SHORT $LN1@LoadBool_e
$LN94@LoadBool_e:
  001bb	c6 45 e6 eb	 mov	 BYTE PTR __k$[ebp+2], -21 ; ffffffebH
  001bf	eb 0a		 jmp	 SHORT $LN1@LoadBool_e
$LN95@LoadBool_e:
  001c1	c6 45 e5 ec	 mov	 BYTE PTR __k$[ebp+1], -20 ; ffffffecH
  001c5	eb 04		 jmp	 SHORT $LN1@LoadBool_e
$LN96@LoadBool_e:
  001c7	c6 45 e4 ed	 mov	 BYTE PTR __k$[ebp], -19	; ffffffedH
$LN1@LoadBool_e:
  001cb	6a 04		 push	 4
  001cd	8d 45 e4	 lea	 eax, DWORD PTR __k$[ebp]
  001d0	c6 45 f4 00	 mov	 BYTE PTR __k$[ebp+16], 0
  001d4	5a		 pop	 edx
$LL104@LoadBool_e:
  001d5	81 30 ed ec eb
	ea		 xor	 DWORD PTR [eax], -353637139 ; eaebecedH
  001db	83 c0 04	 add	 eax, 4
  001de	4a		 dec	 edx
  001df	75 f4		 jne	 SHORT $LL104@LoadBool_e

; 103  : 		return LoadBool(_k, b);

  001e1	ff 75 0c	 push	 DWORD PTR _b$[ebp]
  001e4	8d 45 e4	 lea	 eax, DWORD PTR __k$[ebp]
  001e7	50		 push	 eax
  001e8	8b ce		 mov	 ecx, esi
  001ea	ff 15 00 00 00
	00		 call	 DWORD PTR __imp_?LoadBool@ioINILoader@@QAE_NPBD_N@Z

; 104  : 	}

  001f0	8b 4d fc	 mov	 ecx, DWORD PTR __$ArrayPad$[ebp]
  001f3	33 cd		 xor	 ecx, ebp
  001f5	5e		 pop	 esi
  001f6	e8 00 00 00 00	 call	 @__security_check_cookie@4
  001fb	c9		 leave
  001fc	c2 08 00	 ret	 8
??$LoadBool_e@$0BB@@ioINILoader@@QAE_NAAY0BB@$$CBD_N@Z ENDP ; ioINILoader::LoadBool_e<17>
_TEXT	ENDS
PUBLIC	__$ArrayPad$
PUBLIC	??$LoadInt_e@$0BC@@ioINILoader@@QAEHAAY0BC@$$CBDH@Z ; ioINILoader::LoadInt_e<18>
EXTRN	__imp_?LoadInt@ioINILoader@@QAEHPBDH@Z:PROC
; Function compile flags: /Ogsp
;	COMDAT ??$LoadInt_e@$0BC@@ioINILoader@@QAEHAAY0BC@$$CBDH@Z
_TEXT	SEGMENT
__k$ = -28						; size = 18
__$ArrayPad$ = -4					; size = 4
_k$ = 8							; size = 4
_i$ = 12						; size = 4
??$LoadInt_e@$0BC@@ioINILoader@@QAEHAAY0BC@$$CBDH@Z PROC ; ioINILoader::LoadInt_e<18>, COMDAT
; _this$ = ecx

; 118  : 	{

  00000	55		 push	 ebp
  00001	8b ec		 mov	 ebp, esp
  00003	83 ec 1c	 sub	 esp, 28			; 0000001cH
  00006	a1 00 00 00 00	 mov	 eax, DWORD PTR ___security_cookie
  0000b	33 c5		 xor	 eax, ebp
  0000d	89 45 fc	 mov	 DWORD PTR __$ArrayPad$[ebp], eax
  00010	8b 45 08	 mov	 eax, DWORD PTR _k$[ebp]

; 119  : 		_ENCSTR(k, _k);

  00013	8a 10		 mov	 dl, BYTE PTR [eax]
  00015	56		 push	 esi
  00016	8b f1		 mov	 esi, ecx
  00018	84 d2		 test	 dl, dl
  0001a	0f 84 be 01 00
	00		 je	 $LN96@LoadInt_e
  00020	80 f2 ed	 xor	 dl, -19			; ffffffedH
  00023	88 55 e4	 mov	 BYTE PTR __k$[ebp], dl
  00026	8a 50 01	 mov	 dl, BYTE PTR [eax+1]
  00029	84 d2		 test	 dl, dl
  0002b	0f 84 a7 01 00
	00		 je	 $LN95@LoadInt_e
  00031	80 f2 ec	 xor	 dl, -20			; ffffffecH
  00034	88 55 e5	 mov	 BYTE PTR __k$[ebp+1], dl
  00037	8a 50 02	 mov	 dl, BYTE PTR [eax+2]
  0003a	84 d2		 test	 dl, dl
  0003c	0f 84 90 01 00
	00		 je	 $LN94@LoadInt_e
  00042	b1 eb		 mov	 cl, -21			; ffffffebH
  00044	32 d1		 xor	 dl, cl
  00046	88 55 e6	 mov	 BYTE PTR __k$[ebp+2], dl
  00049	8a 50 03	 mov	 dl, BYTE PTR [eax+3]
  0004c	84 d2		 test	 dl, dl
  0004e	0f 84 78 01 00
	00		 je	 $LN93@LoadInt_e
  00054	80 f2 ea	 xor	 dl, -22			; ffffffeaH
  00057	88 55 e7	 mov	 BYTE PTR __k$[ebp+3], dl
  0005a	8a 50 04	 mov	 dl, BYTE PTR [eax+4]
  0005d	84 d2		 test	 dl, dl
  0005f	0f 84 61 01 00
	00		 je	 $LN92@LoadInt_e
  00065	80 f2 ed	 xor	 dl, -19			; ffffffedH
  00068	88 55 e8	 mov	 BYTE PTR __k$[ebp+4], dl
  0006b	8a 50 05	 mov	 dl, BYTE PTR [eax+5]
  0006e	84 d2		 test	 dl, dl
  00070	0f 84 4a 01 00
	00		 je	 $LN91@LoadInt_e
  00076	80 f2 ec	 xor	 dl, -20			; ffffffecH
  00079	88 55 e9	 mov	 BYTE PTR __k$[ebp+5], dl
  0007c	8a 50 06	 mov	 dl, BYTE PTR [eax+6]
  0007f	84 d2		 test	 dl, dl
  00081	0f 84 34 01 00
	00		 je	 $LN90@LoadInt_e
  00087	32 d1		 xor	 dl, cl
  00089	88 55 ea	 mov	 BYTE PTR __k$[ebp+6], dl
  0008c	8a 50 07	 mov	 dl, BYTE PTR [eax+7]
  0008f	84 d2		 test	 dl, dl
  00091	0f 84 1e 01 00
	00		 je	 $LN89@LoadInt_e
  00097	80 f2 ea	 xor	 dl, -22			; ffffffeaH
  0009a	88 55 eb	 mov	 BYTE PTR __k$[ebp+7], dl
  0009d	8a 50 08	 mov	 dl, BYTE PTR [eax+8]
  000a0	84 d2		 test	 dl, dl
  000a2	0f 84 07 01 00
	00		 je	 $LN88@LoadInt_e
  000a8	80 f2 ed	 xor	 dl, -19			; ffffffedH
  000ab	88 55 ec	 mov	 BYTE PTR __k$[ebp+8], dl
  000ae	8a 50 09	 mov	 dl, BYTE PTR [eax+9]
  000b1	84 d2		 test	 dl, dl
  000b3	0f 84 f0 00 00
	00		 je	 $LN87@LoadInt_e
  000b9	80 f2 ec	 xor	 dl, -20			; ffffffecH
  000bc	88 55 ed	 mov	 BYTE PTR __k$[ebp+9], dl
  000bf	8a 50 0a	 mov	 dl, BYTE PTR [eax+10]
  000c2	84 d2		 test	 dl, dl
  000c4	0f 84 da 00 00
	00		 je	 $LN86@LoadInt_e
  000ca	32 d1		 xor	 dl, cl
  000cc	88 55 ee	 mov	 BYTE PTR __k$[ebp+10], dl
  000cf	8a 50 0b	 mov	 dl, BYTE PTR [eax+11]
  000d2	84 d2		 test	 dl, dl
  000d4	0f 84 c4 00 00
	00		 je	 $LN85@LoadInt_e
  000da	80 f2 ea	 xor	 dl, -22			; ffffffeaH
  000dd	88 55 ef	 mov	 BYTE PTR __k$[ebp+11], dl
  000e0	8a 50 0c	 mov	 dl, BYTE PTR [eax+12]
  000e3	84 d2		 test	 dl, dl
  000e5	0f 84 ad 00 00
	00		 je	 $LN84@LoadInt_e
  000eb	80 f2 ed	 xor	 dl, -19			; ffffffedH
  000ee	88 55 f0	 mov	 BYTE PTR __k$[ebp+12], dl
  000f1	8a 50 0d	 mov	 dl, BYTE PTR [eax+13]
  000f4	84 d2		 test	 dl, dl
  000f6	0f 84 96 00 00
	00		 je	 $LN83@LoadInt_e
  000fc	80 f2 ec	 xor	 dl, -20			; ffffffecH
  000ff	88 55 f1	 mov	 BYTE PTR __k$[ebp+13], dl
  00102	8a 50 0e	 mov	 dl, BYTE PTR [eax+14]
  00105	84 d2		 test	 dl, dl
  00107	0f 84 80 00 00
	00		 je	 $LN82@LoadInt_e
  0010d	32 d1		 xor	 dl, cl
  0010f	88 55 f2	 mov	 BYTE PTR __k$[ebp+14], dl
  00112	8a 50 0f	 mov	 dl, BYTE PTR [eax+15]
  00115	84 d2		 test	 dl, dl
  00117	74 6e		 je	 SHORT $LN81@LoadInt_e
  00119	80 f2 ea	 xor	 dl, -22			; ffffffeaH
  0011c	88 55 f3	 mov	 BYTE PTR __k$[ebp+15], dl
  0011f	8a 50 10	 mov	 dl, BYTE PTR [eax+16]
  00122	84 d2		 test	 dl, dl
  00124	74 5b		 je	 SHORT $LN80@LoadInt_e
  00126	80 f2 ed	 xor	 dl, -19			; ffffffedH
  00129	80 78 11 00	 cmp	 BYTE PTR [eax+17], 0
  0012d	88 55 f4	 mov	 BYTE PTR __k$[ebp+16], dl
  00130	0f 84 ac 00 00
	00		 je	 $LN1@LoadInt_e
  00136	8a 50 12	 mov	 dl, BYTE PTR [eax+18]
  00139	84 d2		 test	 dl, dl
  0013b	74 3f		 je	 SHORT $LN78@LoadInt_e
  0013d	32 d1		 xor	 dl, cl
  0013f	88 55 f6	 mov	 BYTE PTR __k$[ebp+18], dl
  00142	8a 50 13	 mov	 dl, BYTE PTR [eax+19]
  00145	84 d2		 test	 dl, dl
  00147	74 2d		 je	 SHORT $LN77@LoadInt_e
  00149	80 f2 ea	 xor	 dl, -22			; ffffffeaH
  0014c	88 55 f7	 mov	 BYTE PTR __k$[ebp+19], dl
  0014f	8a 50 14	 mov	 dl, BYTE PTR [eax+20]
  00152	84 d2		 test	 dl, dl
  00154	74 1a		 je	 SHORT $LN76@LoadInt_e
  00156	8a 40 15	 mov	 al, BYTE PTR [eax+21]
  00159	80 f2 ed	 xor	 dl, -19			; ffffffedH
  0015c	88 55 f8	 mov	 BYTE PTR __k$[ebp+20], dl
  0015f	84 c0		 test	 al, al
  00161	74 07		 je	 SHORT $LN75@LoadInt_e
  00163	34 ec		 xor	 al, -20			; ffffffecH
  00165	88 45 f9	 mov	 BYTE PTR __k$[ebp+21], al
  00168	eb 78		 jmp	 SHORT $LN1@LoadInt_e
$LN75@LoadInt_e:
  0016a	c6 45 f9 ec	 mov	 BYTE PTR __k$[ebp+21], -20 ; ffffffecH
  0016e	eb 72		 jmp	 SHORT $LN1@LoadInt_e
$LN76@LoadInt_e:
  00170	c6 45 f8 ed	 mov	 BYTE PTR __k$[ebp+20], -19 ; ffffffedH
  00174	eb 6c		 jmp	 SHORT $LN1@LoadInt_e
$LN77@LoadInt_e:
  00176	c6 45 f7 ea	 mov	 BYTE PTR __k$[ebp+19], -22 ; ffffffeaH
  0017a	eb 66		 jmp	 SHORT $LN1@LoadInt_e
$LN78@LoadInt_e:
  0017c	88 4d f6	 mov	 BYTE PTR __k$[ebp+18], cl
  0017f	eb 61		 jmp	 SHORT $LN1@LoadInt_e
$LN80@LoadInt_e:
  00181	c6 45 f4 ed	 mov	 BYTE PTR __k$[ebp+16], -19 ; ffffffedH
  00185	eb 5b		 jmp	 SHORT $LN1@LoadInt_e
$LN81@LoadInt_e:
  00187	c6 45 f3 ea	 mov	 BYTE PTR __k$[ebp+15], -22 ; ffffffeaH
  0018b	eb 55		 jmp	 SHORT $LN1@LoadInt_e
$LN82@LoadInt_e:
  0018d	88 4d f2	 mov	 BYTE PTR __k$[ebp+14], cl
  00190	eb 50		 jmp	 SHORT $LN1@LoadInt_e
$LN83@LoadInt_e:
  00192	c6 45 f1 ec	 mov	 BYTE PTR __k$[ebp+13], -20 ; ffffffecH
  00196	eb 4a		 jmp	 SHORT $LN1@LoadInt_e
$LN84@LoadInt_e:
  00198	c6 45 f0 ed	 mov	 BYTE PTR __k$[ebp+12], -19 ; ffffffedH
  0019c	eb 44		 jmp	 SHORT $LN1@LoadInt_e
$LN85@LoadInt_e:
  0019e	c6 45 ef ea	 mov	 BYTE PTR __k$[ebp+11], -22 ; ffffffeaH
  001a2	eb 3e		 jmp	 SHORT $LN1@LoadInt_e
$LN86@LoadInt_e:
  001a4	88 4d ee	 mov	 BYTE PTR __k$[ebp+10], cl
  001a7	eb 39		 jmp	 SHORT $LN1@LoadInt_e
$LN87@LoadInt_e:
  001a9	c6 45 ed ec	 mov	 BYTE PTR __k$[ebp+9], -20 ; ffffffecH
  001ad	eb 33		 jmp	 SHORT $LN1@LoadInt_e
$LN88@LoadInt_e:
  001af	c6 45 ec ed	 mov	 BYTE PTR __k$[ebp+8], -19 ; ffffffedH
  001b3	eb 2d		 jmp	 SHORT $LN1@LoadInt_e
$LN89@LoadInt_e:
  001b5	c6 45 eb ea	 mov	 BYTE PTR __k$[ebp+7], -22 ; ffffffeaH
  001b9	eb 27		 jmp	 SHORT $LN1@LoadInt_e
$LN90@LoadInt_e:
  001bb	88 4d ea	 mov	 BYTE PTR __k$[ebp+6], cl
  001be	eb 22		 jmp	 SHORT $LN1@LoadInt_e
$LN91@LoadInt_e:
  001c0	c6 45 e9 ec	 mov	 BYTE PTR __k$[ebp+5], -20 ; ffffffecH
  001c4	eb 1c		 jmp	 SHORT $LN1@LoadInt_e
$LN92@LoadInt_e:
  001c6	c6 45 e8 ed	 mov	 BYTE PTR __k$[ebp+4], -19 ; ffffffedH
  001ca	eb 16		 jmp	 SHORT $LN1@LoadInt_e
$LN93@LoadInt_e:
  001cc	c6 45 e7 ea	 mov	 BYTE PTR __k$[ebp+3], -22 ; ffffffeaH
  001d0	eb 10		 jmp	 SHORT $LN1@LoadInt_e
$LN94@LoadInt_e:
  001d2	c6 45 e6 eb	 mov	 BYTE PTR __k$[ebp+2], -21 ; ffffffebH
  001d6	eb 0a		 jmp	 SHORT $LN1@LoadInt_e
$LN95@LoadInt_e:
  001d8	c6 45 e5 ec	 mov	 BYTE PTR __k$[ebp+1], -20 ; ffffffecH
  001dc	eb 04		 jmp	 SHORT $LN1@LoadInt_e
$LN96@LoadInt_e:
  001de	c6 45 e4 ed	 mov	 BYTE PTR __k$[ebp], -19	; ffffffedH
$LN1@LoadInt_e:
  001e2	6a 04		 push	 4
  001e4	8d 45 e4	 lea	 eax, DWORD PTR __k$[ebp]
  001e7	c6 45 f5 00	 mov	 BYTE PTR __k$[ebp+17], 0
  001eb	5a		 pop	 edx
$LL104@LoadInt_e:
  001ec	81 30 ed ec eb
	ea		 xor	 DWORD PTR [eax], -353637139 ; eaebecedH
  001f2	83 c0 04	 add	 eax, 4
  001f5	4a		 dec	 edx
  001f6	75 f4		 jne	 SHORT $LL104@LoadInt_e

; 120  : 		return LoadInt(_k, i);

  001f8	ff 75 0c	 push	 DWORD PTR _i$[ebp]
  001fb	80 75 f4 ed	 xor	 BYTE PTR __k$[ebp+16], -19 ; ffffffedH
  001ff	8d 45 e4	 lea	 eax, DWORD PTR __k$[ebp]
  00202	50		 push	 eax
  00203	8b ce		 mov	 ecx, esi
  00205	ff 15 00 00 00
	00		 call	 DWORD PTR __imp_?LoadInt@ioINILoader@@QAEHPBDH@Z

; 121  : 	}

  0020b	8b 4d fc	 mov	 ecx, DWORD PTR __$ArrayPad$[ebp]
  0020e	33 cd		 xor	 ecx, ebp
  00210	5e		 pop	 esi
  00211	e8 00 00 00 00	 call	 @__security_check_cookie@4
  00216	c9		 leave
  00217	c2 08 00	 ret	 8
??$LoadInt_e@$0BC@@ioINILoader@@QAEHAAY0BC@$$CBDH@Z ENDP ; ioINILoader::LoadInt_e<18>
_TEXT	ENDS
PUBLIC	??$_Cons_val@V?$allocator@USecondAttribute@@@std@@USecondAttribute@@AAU3@@std@@YAXAAV?$allocator@USecondAttribute@@@0@PAUSecondAttribute@@AAU2@@Z ; std::_Cons_val<std::allocator<SecondAttribute>,SecondAttribute,SecondAttribute &>
; Function compile flags: /Ogsp
; File c:\program files (x86)\microsoft visual studio 10.0\vc\include\xmemory
;	COMDAT ??$_Cons_val@V?$allocator@USecondAttribute@@@std@@USecondAttribute@@AAU3@@std@@YAXAAV?$allocator@USecondAttribute@@@0@PAUSecondAttribute@@AAU2@@Z
_TEXT	SEGMENT
__Alval$ = 8						; size = 4
__Pdest$ = 12						; size = 4
__Src$ = 16						; size = 4
??$_Cons_val@V?$allocator@USecondAttribute@@@std@@USecondAttribute@@AAU3@@std@@YAXAAV?$allocator@USecondAttribute@@@0@PAUSecondAttribute@@AAU2@@Z PROC ; std::_Cons_val<std::allocator<SecondAttribute>,SecondAttribute,SecondAttribute &>, COMDAT

; 279  : 	{	// construct using allocator

  00000	55		 push	 ebp
  00001	8b ec		 mov	 ebp, esp

; 280  : 	_Alval.construct(_Pdest, _STD forward<_Ty2>(_Src));

  00003	8b 45 0c	 mov	 eax, DWORD PTR __Pdest$[ebp]
  00006	85 c0		 test	 eax, eax
  00008	74 0d		 je	 SHORT $LN7@Cons_val
  0000a	8b 4d 10	 mov	 ecx, DWORD PTR __Src$[ebp]
  0000d	8b 11		 mov	 edx, DWORD PTR [ecx]
  0000f	89 10		 mov	 DWORD PTR [eax], edx
  00011	8b 49 04	 mov	 ecx, DWORD PTR [ecx+4]
  00014	89 48 04	 mov	 DWORD PTR [eax+4], ecx
$LN7@Cons_val:

; 281  : 	}

  00017	5d		 pop	 ebp
  00018	c3		 ret	 0
??$_Cons_val@V?$allocator@USecondAttribute@@@std@@USecondAttribute@@AAU3@@std@@YAXAAV?$allocator@USecondAttribute@@@0@PAUSecondAttribute@@AAU2@@Z ENDP ; std::_Cons_val<std::allocator<SecondAttribute>,SecondAttribute,SecondAttribute &>
_TEXT	ENDS
PUBLIC	?construct@?$allocator@USecondAttribute@@@std@@QAEXPAUSecondAttribute@@ABU3@@Z ; std::allocator<SecondAttribute>::construct
; Function compile flags: /Ogsp
;	COMDAT ?construct@?$allocator@USecondAttribute@@@std@@QAEXPAUSecondAttribute@@ABU3@@Z
_TEXT	SEGMENT
__Ptr$ = 8						; size = 4
__Val$ = 12						; size = 4
?construct@?$allocator@USecondAttribute@@@std@@QAEXPAUSecondAttribute@@ABU3@@Z PROC ; std::allocator<SecondAttribute>::construct, COMDAT
; _this$ = ecx

; 196  : 		{	// construct object at _Ptr with value _Val

  00000	55		 push	 ebp
  00001	8b ec		 mov	 ebp, esp

; 197  : 		_Construct(_Ptr, _Val);

  00003	8b 45 08	 mov	 eax, DWORD PTR __Ptr$[ebp]
  00006	85 c0		 test	 eax, eax
  00008	74 0d		 je	 SHORT $LN5@construct@2
  0000a	8b 4d 0c	 mov	 ecx, DWORD PTR __Val$[ebp]
  0000d	8b 11		 mov	 edx, DWORD PTR [ecx]
  0000f	89 10		 mov	 DWORD PTR [eax], edx
  00011	8b 49 04	 mov	 ecx, DWORD PTR [ecx+4]
  00014	89 48 04	 mov	 DWORD PTR [eax+4], ecx
$LN5@construct@2:

; 198  : 		}

  00017	5d		 pop	 ebp
  00018	c2 08 00	 ret	 8
?construct@?$allocator@USecondAttribute@@@std@@QAEXPAUSecondAttribute@@ABU3@@Z ENDP ; std::allocator<SecondAttribute>::construct
_TEXT	ENDS
PUBLIC	??$_Move@PAUSecondAttribute@@PAU1@@std@@YAPAUSecondAttribute@@PAU1@00U_Nonscalar_ptr_iterator_tag@0@@Z ; std::_Move<SecondAttribute *,SecondAttribute *>
; Function compile flags: /Ogsp
; File c:\program files (x86)\microsoft visual studio 10.0\vc\include\xutility
;	COMDAT ??$_Move@PAUSecondAttribute@@PAU1@@std@@YAPAUSecondAttribute@@PAU1@00U_Nonscalar_ptr_iterator_tag@0@@Z
_TEXT	SEGMENT
__First$ = 8						; size = 4
__Last$ = 12						; size = 4
__Dest$ = 16						; size = 4
___formal$ = 20						; size = 1
??$_Move@PAUSecondAttribute@@PAU1@@std@@YAPAUSecondAttribute@@PAU1@00U_Nonscalar_ptr_iterator_tag@0@@Z PROC ; std::_Move<SecondAttribute *,SecondAttribute *>, COMDAT

; 2512 : 	{	// move [_First, _Last) to [_Dest, ...), arbitrary iterators

  00000	55		 push	 ebp
  00001	8b ec		 mov	 ebp, esp

; 2513 : 	for (; _First != _Last; ++_Dest, ++_First)

  00003	8b 4d 08	 mov	 ecx, DWORD PTR __First$[ebp]
  00006	8b 45 10	 mov	 eax, DWORD PTR __Dest$[ebp]
$LN11@Move:
  00009	3b 4d 0c	 cmp	 ecx, DWORD PTR __Last$[ebp]
  0000c	74 12		 je	 SHORT $LN1@Move

; 2514 : 		*_Dest = _STD move(*_First);

  0000e	8b 11		 mov	 edx, DWORD PTR [ecx]
  00010	89 10		 mov	 DWORD PTR [eax], edx
  00012	8b 51 04	 mov	 edx, DWORD PTR [ecx+4]
  00015	89 50 04	 mov	 DWORD PTR [eax+4], edx
  00018	83 c0 08	 add	 eax, 8
  0001b	83 c1 08	 add	 ecx, 8
  0001e	eb e9		 jmp	 SHORT $LN11@Move
$LN1@Move:

; 2515 : 	return (_Dest);
; 2516 : 	}

  00020	5d		 pop	 ebp
  00021	c3		 ret	 0
??$_Move@PAUSecondAttribute@@PAU1@@std@@YAPAUSecondAttribute@@PAU1@00U_Nonscalar_ptr_iterator_tag@0@@Z ENDP ; std::_Move<SecondAttribute *,SecondAttribute *>
_TEXT	ENDS
PUBLIC	?destroy@?$allocator@USecondAttribute@@@std@@QAEXPAUSecondAttribute@@@Z ; std::allocator<SecondAttribute>::destroy
; Function compile flags: /Ogsp
; File c:\program files (x86)\microsoft visual studio 10.0\vc\include\xmemory
;	COMDAT ?destroy@?$allocator@USecondAttribute@@@std@@QAEXPAUSecondAttribute@@@Z
_TEXT	SEGMENT
__Ptr$ = 8						; size = 4
?destroy@?$allocator@USecondAttribute@@@std@@QAEXPAUSecondAttribute@@@Z PROC ; std::allocator<SecondAttribute>::destroy, COMDAT
; _this$ = ecx

; 213  : 		_Destroy(_Ptr);
; 214  : 		}

  00000	c2 04 00	 ret	 4
?destroy@?$allocator@USecondAttribute@@@std@@QAEXPAUSecondAttribute@@@Z ENDP ; std::allocator<SecondAttribute>::destroy
_TEXT	ENDS
PUBLIC	?construct@?$allocator@USecondAttribute@@@std@@QAEXPAUSecondAttribute@@$$QAU3@@Z ; std::allocator<SecondAttribute>::construct
; Function compile flags: /Ogsp
;	COMDAT ?construct@?$allocator@USecondAttribute@@@std@@QAEXPAUSecondAttribute@@$$QAU3@@Z
_TEXT	SEGMENT
__Ptr$ = 8						; size = 4
__Val$ = 12						; size = 4
?construct@?$allocator@USecondAttribute@@@std@@QAEXPAUSecondAttribute@@$$QAU3@@Z PROC ; std::allocator<SecondAttribute>::construct, COMDAT
; _this$ = ecx

; 201  : 		{	// construct object at _Ptr with value _Val

  00000	55		 push	 ebp
  00001	8b ec		 mov	 ebp, esp

; 202  : 		::new ((void _FARQ *)_Ptr) _Ty(_STD forward<_Ty>(_Val));

  00003	8b 45 08	 mov	 eax, DWORD PTR __Ptr$[ebp]
  00006	85 c0		 test	 eax, eax
  00008	74 0d		 je	 SHORT $LN3@construct@3
  0000a	8b 4d 0c	 mov	 ecx, DWORD PTR __Val$[ebp]
  0000d	8b 11		 mov	 edx, DWORD PTR [ecx]
  0000f	89 10		 mov	 DWORD PTR [eax], edx
  00011	8b 49 04	 mov	 ecx, DWORD PTR [ecx+4]
  00014	89 48 04	 mov	 DWORD PTR [eax+4], ecx
$LN3@construct@3:

; 203  : 		}

  00017	5d		 pop	 ebp
  00018	c2 08 00	 ret	 8
?construct@?$allocator@USecondAttribute@@@std@@QAEXPAUSecondAttribute@@$$QAU3@@Z ENDP ; std::allocator<SecondAttribute>::construct
_TEXT	ENDS
PUBLIC	??B?$CEncrypt@M@@QAEMXZ				; CEncrypt<float>::operator float
; Function compile flags: /Ogsp
; File d:\lost saga for developer\youtube\tutorial\source\src\lsclient\encryptvalue.h
;	COMDAT ??B?$CEncrypt@M@@QAEMXZ
_TEXT	SEGMENT
_value$ = -4						; size = 4
??B?$CEncrypt@M@@QAEMXZ PROC				; CEncrypt<float>::operator float, COMDAT
; _this$ = ecx

; 134  : 	{

  00000	55		 push	 ebp
  00001	8b ec		 mov	 ebp, esp
  00003	51		 push	 ecx

; 135  : 		type value;
; 136  : 		DecryptValueToPool(&value);

  00004	8d 45 fc	 lea	 eax, DWORD PTR _value$[ebp]
  00007	50		 push	 eax
  00008	e8 00 00 00 00	 call	 ?DecryptValueToPool@?$CEncrypt@M@@QAEXPAM@Z ; CEncrypt<float>::DecryptValueToPool

; 137  : 
; 138  : #ifdef _NOTUSE
; 139  : 		Debug();
; 140  : #endif
; 141  : 		return value;

  0000d	d9 45 fc	 fld	 DWORD PTR _value$[ebp]

; 142  : 	}

  00010	c9		 leave
  00011	c3		 ret	 0
??B?$CEncrypt@M@@QAEMXZ ENDP				; CEncrypt<float>::operator float
_TEXT	ENDS
PUBLIC	??0?$CEncrypt@_N@@QAE@XZ			; CEncrypt<bool>::CEncrypt<bool>
EXTRN	??0ccddaabb@@QAE@XZ:PROC			; ccddaabb::ccddaabb
;	COMDAT xdata$x
xdata$x	SEGMENT
__unwindtable$??0?$CEncrypt@_N@@QAE@XZ DD 0ffffffffH
	DD	FLAT:__unwindfunclet$??0?$CEncrypt@_N@@QAE@XZ$0
__ehfuncinfo$??0?$CEncrypt@_N@@QAE@XZ DD 019930522H
	DD	01H
	DD	FLAT:__unwindtable$??0?$CEncrypt@_N@@QAE@XZ
	DD	2 DUP(00H)
	DD	2 DUP(00H)
	DD	00H
	DD	01H
; Function compile flags: /Ogsp
xdata$x	ENDS
;	COMDAT ??0?$CEncrypt@_N@@QAE@XZ
_TEXT	SEGMENT
_this$ = -16						; size = 4
__$EHRec$ = -12						; size = 12
??0?$CEncrypt@_N@@QAE@XZ PROC				; CEncrypt<bool>::CEncrypt<bool>, COMDAT
; _this$ = ecx

; 109  : 	CEncrypt()

  00000	6a 04		 push	 4
  00002	b8 00 00 00 00	 mov	 eax, __ehhandler$??0?$CEncrypt@_N@@QAE@XZ
  00007	e8 00 00 00 00	 call	 __EH_prolog3
  0000c	8b f1		 mov	 esi, ecx
  0000e	89 75 f0	 mov	 DWORD PTR _this$[ebp], esi
  00011	8d 4e 0c	 lea	 ecx, DWORD PTR [esi+12]
  00014	c7 06 00 00 00
	00		 mov	 DWORD PTR [esi], OFFSET ??_7?$CEncrypt@_N@@6B@
  0001a	e8 00 00 00 00	 call	 ??0ccddaabb@@QAE@XZ	; ccddaabb::ccddaabb
  0001f	83 65 fc 00	 and	 DWORD PTR __$EHRec$[ebp+8], 0

; 110  : 	{
; 111  : 		Init();

  00023	8b ce		 mov	 ecx, esi
  00025	e8 00 00 00 00	 call	 ?Init@?$CEncrypt@_N@@AAEXXZ ; CEncrypt<bool>::Init

; 112  : 	}

  0002a	8b c6		 mov	 eax, esi
  0002c	e8 00 00 00 00	 call	 __EH_epilog3
  00031	c3		 ret	 0
_TEXT	ENDS
;	COMDAT text$x
text$x	SEGMENT
__unwindfunclet$??0?$CEncrypt@_N@@QAE@XZ$0:
  00000	8b 4d f0	 mov	 ecx, DWORD PTR _this$[ebp]
  00003	83 c1 0c	 add	 ecx, 12			; 0000000cH
  00006	e9 00 00 00 00	 jmp	 ??1ccddaabb@@UAE@XZ	; ccddaabb::~ccddaabb
__ehhandler$??0?$CEncrypt@_N@@QAE@XZ:
  0000b	8b 54 24 08	 mov	 edx, DWORD PTR [esp+8]
  0000f	8d 42 0c	 lea	 eax, DWORD PTR [edx+12]
  00012	8b 4a ec	 mov	 ecx, DWORD PTR [edx-20]
  00015	33 c8		 xor	 ecx, eax
  00017	e8 00 00 00 00	 call	 @__security_check_cookie@4
  0001c	b8 00 00 00 00	 mov	 eax, OFFSET __ehfuncinfo$??0?$CEncrypt@_N@@QAE@XZ
  00021	e9 00 00 00 00	 jmp	 ___CxxFrameHandler3
text$x	ENDS
??0?$CEncrypt@_N@@QAE@XZ ENDP				; CEncrypt<bool>::CEncrypt<bool>
PUBLIC	??B?$CEncrypt@_N@@QAE_NXZ			; CEncrypt<bool>::operator bool
; Function compile flags: /Ogsp
;	COMDAT ??B?$CEncrypt@_N@@QAE_NXZ
_TEXT	SEGMENT
_value$ = -1						; size = 1
??B?$CEncrypt@_N@@QAE_NXZ PROC				; CEncrypt<bool>::operator bool, COMDAT
; _this$ = ecx

; 134  : 	{

  00000	55		 push	 ebp
  00001	8b ec		 mov	 ebp, esp
  00003	51		 push	 ecx

; 135  : 		type value;
; 136  : 		DecryptValueToPool(&value);

  00004	8d 45 ff	 lea	 eax, DWORD PTR _value$[ebp]
  00007	50		 push	 eax
  00008	e8 00 00 00 00	 call	 ?DecryptValueToPool@?$CEncrypt@_N@@QAEXPA_N@Z ; CEncrypt<bool>::DecryptValueToPool

; 137  : 
; 138  : #ifdef _NOTUSE
; 139  : 		Debug();
; 140  : #endif
; 141  : 		return value;

  0000d	8a 45 ff	 mov	 al, BYTE PTR _value$[ebp]

; 142  : 	}

  00010	c9		 leave
  00011	c3		 ret	 0
??B?$CEncrypt@_N@@QAE_NXZ ENDP				; CEncrypt<bool>::operator bool
_TEXT	ENDS
PUBLIC	??4?$CEncrypt@_N@@QAE_N_N@Z			; CEncrypt<bool>::operator=
; Function compile flags: /Ogsp
;	COMDAT ??4?$CEncrypt@_N@@QAE_N_N@Z
_TEXT	SEGMENT
_inValue$ = 8						; size = 1
_value$ = 11						; size = 1
??4?$CEncrypt@_N@@QAE_N_N@Z PROC			; CEncrypt<bool>::operator=, COMDAT
; _this$ = ecx

; 225  : 	{

  00000	55		 push	 ebp
  00001	8b ec		 mov	 ebp, esp

; 226  : 		type value = inValue;

  00003	8a 45 08	 mov	 al, BYTE PTR _inValue$[ebp]
  00006	88 45 0b	 mov	 BYTE PTR _value$[ebp], al

; 227  : 		EncryptValueToPool((char*)&value);

  00009	8d 45 0b	 lea	 eax, DWORD PTR _value$[ebp]
  0000c	50		 push	 eax
  0000d	e8 00 00 00 00	 call	 ?EncryptValueToPool@?$CEncrypt@_N@@AAEXPBD@Z ; CEncrypt<bool>::EncryptValueToPool

; 228  : #ifdef _NOTUSE
; 229  : 		m_value = inValue;
; 230  : 		Debug();
; 231  : #endif
; 232  : 		return value;

  00012	8a 45 0b	 mov	 al, BYTE PTR _value$[ebp]

; 233  : 	}

  00015	5d		 pop	 ebp
  00016	c2 04 00	 ret	 4
??4?$CEncrypt@_N@@QAE_N_N@Z ENDP			; CEncrypt<bool>::operator=
_TEXT	ENDS
PUBLIC	?InitResource@ioArrowWeapon@@UAE_NXZ		; ioArrowWeapon::InitResource
EXTRN	?InitResource@ioWeapon@@UAE_NXZ:PROC		; ioWeapon::InitResource
; Function compile flags: /Ogsp
; File d:\lost saga for developer\youtube\tutorial\source\src\lsclient\ioarrowweapon.cpp
;	COMDAT ?InitResource@ioArrowWeapon@@UAE_NXZ
_TEXT	SEGMENT
?InitResource@ioArrowWeapon@@UAE_NXZ PROC		; ioArrowWeapon::InitResource, COMDAT
; _this$ = ecx

; 44   : {

  00000	56		 push	 esi
  00001	8b f1		 mov	 esi, ecx

; 45   : 	if( ioWeapon::InitResource() )

  00003	e8 00 00 00 00	 call	 ?InitResource@ioWeapon@@UAE_NXZ ; ioWeapon::InitResource
  00008	84 c0		 test	 al, al
  0000a	74 20		 je	 SHORT $LN1@InitResour

; 46   : 	{
; 47   : 		DestroyFireBall();

  0000c	8b ce		 mov	 ecx, esi
  0000e	e8 00 00 00 00	 call	 ?DestroyFireBall@ioArrowWeapon@@IAEXXZ ; ioArrowWeapon::DestroyFireBall

; 48   : 		return CreateFireBall( GetAttribute()->m_WeaponEffect );

  00013	8b 06		 mov	 eax, DWORD PTR [esi]
  00015	8b ce		 mov	 ecx, esi
  00017	ff 90 3c 01 00
	00		 call	 DWORD PTR [eax+316]
  0001d	05 34 01 00 00	 add	 eax, 308		; 00000134H
  00022	50		 push	 eax
  00023	8b ce		 mov	 ecx, esi
  00025	e8 00 00 00 00	 call	 ?CreateFireBall@ioArrowWeapon@@IAE_NABVioHashString@@@Z ; ioArrowWeapon::CreateFireBall
  0002a	5e		 pop	 esi

; 52   : }

  0002b	c3		 ret	 0
$LN1@InitResour:

; 49   : 	}
; 50   : 
; 51   : 	return false;

  0002c	32 c0		 xor	 al, al
  0002e	5e		 pop	 esi

; 52   : }

  0002f	c3		 ret	 0
?InitResource@ioArrowWeapon@@UAE_NXZ ENDP		; ioArrowWeapon::InitResource
_TEXT	ENDS
PUBLIC	??_C@_0BB@HKDDICCK@weapon_item_type?$AA@	; `string'
PUBLIC	__$ArrayPad$
PUBLIC	?LoadProperty@ioArrowWeapon@@UAEXAAVioINILoader@@@Z ; ioArrowWeapon::LoadProperty
EXTRN	?LoadProperty@ioWeapon@@UAEXAAVioINILoader@@@Z:PROC ; ioWeapon::LoadProperty
;	COMDAT ??_C@_0BB@HKDDICCK@weapon_item_type?$AA@
; File d:\lost saga for developer\youtube\tutorial\source\src\lsclient\stringprotect.h
CONST	SEGMENT
??_C@_0BB@HKDDICCK@weapon_item_type?$AA@ DB 'weapon_item_type', 00H ; `string'
; Function compile flags: /Ogsp
; File d:\lost saga for developer\youtube\tutorial\source\src\lsclient\ioarrowweapon.cpp
CONST	ENDS
;	COMDAT ?LoadProperty@ioArrowWeapon@@UAEXAAVioINILoader@@@Z
_TEXT	SEGMENT
_value$533514 = -29					; size = 1
__k$533544 = -28					; size = 18
__k$533401 = -28					; size = 17
__$ArrayPad$ = -4					; size = 4
_rkLoader$ = 8						; size = 4
?LoadProperty@ioArrowWeapon@@UAEXAAVioINILoader@@@Z PROC ; ioArrowWeapon::LoadProperty, COMDAT
; _this$ = ecx

; 55   : {

  00000	55		 push	 ebp
  00001	8b ec		 mov	 ebp, esp
  00003	83 ec 20	 sub	 esp, 32			; 00000020H
  00006	a1 00 00 00 00	 mov	 eax, DWORD PTR ___security_cookie
  0000b	33 c5		 xor	 eax, ebp
  0000d	89 45 fc	 mov	 DWORD PTR __$ArrayPad$[ebp], eax
  00010	53		 push	 ebx
  00011	56		 push	 esi
  00012	57		 push	 edi
  00013	8b 7d 08	 mov	 edi, DWORD PTR _rkLoader$[ebp]

; 56   : 	ioWeapon::LoadProperty( rkLoader );

  00016	57		 push	 edi
  00017	8b f1		 mov	 esi, ecx
  00019	e8 00 00 00 00	 call	 ?LoadProperty@ioWeapon@@UAEXAAVioINILoader@@@Z ; ioWeapon::LoadProperty

; 57   : 
; 58   : 	m_bWaitWeaponDeadForPacket = rkLoader.LoadBool_e( "wait_weapon_dead", false );

  0001e	33 db		 xor	 ebx, ebx
  00020	6a 04		 push	 4
  00022	c7 45 e4 9a 8d
	82 9e		 mov	 DWORD PTR __k$533401[ebp], -1635611238 ; 9e828d9aH
  00029	c7 45 e8 b2 9b
	8e 8b		 mov	 DWORD PTR __k$533401[ebp+4], -1953588302 ; 8b8e9bb2H
  00030	c7 45 ec 9d 83
	85 b5		 mov	 DWORD PTR __k$533401[ebp+8], -1249541219 ; b585839dH
  00037	c7 45 f0 89 89
	8a 8e		 mov	 DWORD PTR __k$533401[ebp+12], -1903523447 ; 8e8a8989H
  0003e	8d 45 e4	 lea	 eax, DWORD PTR __k$533401[ebp]
  00041	88 5d f4	 mov	 BYTE PTR __k$533401[ebp+16], bl
  00044	59		 pop	 ecx
$LL106@LoadProper:
  00045	81 30 ed ec eb
	ea		 xor	 DWORD PTR [eax], -353637139 ; eaebecedH
  0004b	83 c0 04	 add	 eax, 4
  0004e	49		 dec	 ecx
  0004f	75 f4		 jne	 SHORT $LL106@LoadProper
  00051	53		 push	 ebx
  00052	8d 45 e4	 lea	 eax, DWORD PTR __k$533401[ebp]
  00055	50		 push	 eax
  00056	8b cf		 mov	 ecx, edi
  00058	ff 15 00 00 00
	00		 call	 DWORD PTR __imp_?LoadBool@ioINILoader@@QAE_NPBD_N@Z
  0005e	88 45 e3	 mov	 BYTE PTR _value$533514[ebp], al
  00061	8d 45 e3	 lea	 eax, DWORD PTR _value$533514[ebp]
  00064	50		 push	 eax
  00065	8d 8e d0 08 00
	00		 lea	 ecx, DWORD PTR [esi+2256]
  0006b	e8 00 00 00 00	 call	 ?EncryptValueToPool@?$CEncrypt@_N@@AAEXPBD@Z ; CEncrypt<bool>::EncryptValueToPool
  00070	6a 04		 push	 4

; 59   : 
; 60   : 	// 2014.07.08
; 61   : 	m_OrientationState = (Orientation_State)rkLoader.LoadInt_e( "orientation_state", OS_NONE );

  00072	c7 45 e4 82 9e
	82 8f		 mov	 DWORD PTR __k$533544[ebp], -1887265150 ; 8f829e82H
  00079	c7 45 e8 83 98
	8a 9e		 mov	 DWORD PTR __k$533544[ebp+4], -1635084157 ; 9e8a9883H
  00080	c7 45 ec 84 83
	85 b5		 mov	 DWORD PTR __k$533544[ebp+8], -1249541244 ; b5858384H
  00087	c7 45 f0 9e 98
	8a 9e		 mov	 DWORD PTR __k$533544[ebp+12], -1635084130 ; 9e8a989eH
  0008e	8d 45 e4	 lea	 eax, DWORD PTR __k$533544[ebp]
  00091	66 c7 45 f4 88
	00		 mov	 WORD PTR __k$533544[ebp+16], 136 ; 00000088H
  00097	59		 pop	 ecx
$LL214@LoadProper:
  00098	81 30 ed ec eb
	ea		 xor	 DWORD PTR [eax], -353637139 ; eaebecedH
  0009e	83 c0 04	 add	 eax, 4
  000a1	49		 dec	 ecx
  000a2	75 f4		 jne	 SHORT $LL214@LoadProper
  000a4	80 75 f4 ed	 xor	 BYTE PTR __k$533544[ebp+16], -19 ; ffffffedH
  000a8	53		 push	 ebx
  000a9	8d 45 e4	 lea	 eax, DWORD PTR __k$533544[ebp]
  000ac	50		 push	 eax
  000ad	8b cf		 mov	 ecx, edi
  000af	ff 15 00 00 00
	00		 call	 DWORD PTR __imp_?LoadInt@ioINILoader@@QAEHPBDH@Z

; 62   : 
; 63   : 	m_nWeaponType = (WeaponItemType)rkLoader.LoadInt( "weapon_item_type", (int)WIT_NONE );

  000b5	53		 push	 ebx
  000b6	68 00 00 00 00	 push	 OFFSET ??_C@_0BB@HKDDICCK@weapon_item_type?$AA@
  000bb	8b cf		 mov	 ecx, edi
  000bd	89 86 0c 09 00
	00		 mov	 DWORD PTR [esi+2316], eax
  000c3	ff 15 00 00 00
	00		 call	 DWORD PTR __imp_?LoadInt@ioINILoader@@QAEHPBDH@Z

; 64   : }

  000c9	8b 4d fc	 mov	 ecx, DWORD PTR __$ArrayPad$[ebp]
  000cc	5f		 pop	 edi
  000cd	89 86 08 09 00
	00		 mov	 DWORD PTR [esi+2312], eax
  000d3	5e		 pop	 esi
  000d4	33 cd		 xor	 ecx, ebp
  000d6	5b		 pop	 ebx
  000d7	e8 00 00 00 00	 call	 @__security_check_cookie@4
  000dc	c9		 leave
  000dd	c2 04 00	 ret	 4
?LoadProperty@ioArrowWeapon@@UAEXAAVioINILoader@@@Z ENDP ; ioArrowWeapon::LoadProperty
_TEXT	ENDS
PUBLIC	?SetGraseClose@ioArrowWeapon@@IAEXXZ		; ioArrowWeapon::SetGraseClose
EXTRN	__imp_?EndEffectForce@ioEffect@@QAEXXZ:PROC
EXTRN	__imp_?EndEffectGrace@ioEffect@@QAEXXZ:PROC
; Function compile flags: /Ogsp
;	COMDAT ?SetGraseClose@ioArrowWeapon@@IAEXXZ
_TEXT	SEGMENT
_value$533656 = -1					; size = 1
?SetGraseClose@ioArrowWeapon@@IAEXXZ PROC		; ioArrowWeapon::SetGraseClose, COMDAT
; _this$ = ecx

; 236  : {

  00000	55		 push	 ebp
  00001	8b ec		 mov	 ebp, esp
  00003	51		 push	 ecx
  00004	56		 push	 esi
  00005	8b f1		 mov	 esi, ecx

; 237  : 	if( m_bSetGraceClose )	return;

  00007	80 be b8 08 00
	00 00		 cmp	 BYTE PTR [esi+2232], 0
  0000e	75 40		 jne	 SHORT $LN5@SetGraseCl

; 238  : 
; 239  : 	if( m_pFireBall )

  00010	83 be 94 08 00
	00 00		 cmp	 DWORD PTR [esi+2196], 0
  00017	74 29		 je	 SHORT $LN1@SetGraseCl

; 240  : 	{
; 241  : 		if( m_bEndEffectGrace )

  00019	8d 45 ff	 lea	 eax, DWORD PTR _value$533656[ebp]
  0001c	50		 push	 eax
  0001d	8d 8e 08 08 00
	00		 lea	 ecx, DWORD PTR [esi+2056]
  00023	e8 00 00 00 00	 call	 ?DecryptValueToPool@?$CEncrypt@_N@@QAEXPA_N@Z ; CEncrypt<bool>::DecryptValueToPool
  00028	80 7d ff 00	 cmp	 BYTE PTR _value$533656[ebp], 0

; 242  : 			m_pFireBall->EndEffectGrace();

  0002c	8b 8e 94 08 00
	00		 mov	 ecx, DWORD PTR [esi+2196]
  00032	74 08		 je	 SHORT $LN2@SetGraseCl
  00034	ff 15 00 00 00
	00		 call	 DWORD PTR __imp_?EndEffectGrace@ioEffect@@QAEXXZ

; 243  : 		else

  0003a	eb 06		 jmp	 SHORT $LN1@SetGraseCl
$LN2@SetGraseCl:

; 244  : 			m_pFireBall->EndEffectForce();

  0003c	ff 15 00 00 00
	00		 call	 DWORD PTR __imp_?EndEffectForce@ioEffect@@QAEXXZ
$LN1@SetGraseCl:

; 245  : 	}
; 246  : 
; 247  : 	StopLoopSound();

  00042	8b 06		 mov	 eax, DWORD PTR [esi]
  00044	8b ce		 mov	 ecx, esi
  00046	ff 50 60	 call	 DWORD PTR [eax+96]

; 248  : 	m_bSetGraceClose = true;

  00049	c6 86 b8 08 00
	00 01		 mov	 BYTE PTR [esi+2232], 1
$LN5@SetGraseCl:
  00050	5e		 pop	 esi

; 249  : }

  00051	c9		 leave
  00052	c3		 ret	 0
?SetGraseClose@ioArrowWeapon@@IAEXXZ ENDP		; ioArrowWeapon::SetGraseClose
_TEXT	ENDS
PUBLIC	?GetMoveSpeed@ioArrowWeapon@@QAEMXZ		; ioArrowWeapon::GetMoveSpeed
; Function compile flags: /Ogsp
;	COMDAT ?GetMoveSpeed@ioArrowWeapon@@QAEMXZ
_TEXT	SEGMENT
tv136 = -4						; size = 4
_value$533662 = -4					; size = 4
?GetMoveSpeed@ioArrowWeapon@@QAEMXZ PROC		; ioArrowWeapon::GetMoveSpeed, COMDAT
; _this$ = ecx

; 279  : {

  00000	55		 push	 ebp
  00001	8b ec		 mov	 ebp, esp
  00003	51		 push	 ecx
  00004	56		 push	 esi
  00005	8b f1		 mov	 esi, ecx

; 280  : 	return GetAttribute()->m_fMoveSpeed * m_fOwnerChargeSpeedRate;

  00007	8d 45 fc	 lea	 eax, DWORD PTR _value$533662[ebp]
  0000a	50		 push	 eax
  0000b	8d 8e 20 01 00
	00		 lea	 ecx, DWORD PTR [esi+288]
  00011	e8 00 00 00 00	 call	 ?DecryptValueToPool@?$CEncrypt@M@@QAEXPAM@Z ; CEncrypt<float>::DecryptValueToPool
  00016	8b 06		 mov	 eax, DWORD PTR [esi]
  00018	8b ce		 mov	 ecx, esi
  0001a	ff 90 3c 01 00
	00		 call	 DWORD PTR [eax+316]
  00020	d9 80 98 01 00
	00		 fld	 DWORD PTR [eax+408]
  00026	d8 4d fc	 fmul	 DWORD PTR _value$533662[ebp]
  00029	5e		 pop	 esi
  0002a	d9 5d fc	 fstp	 DWORD PTR tv136[ebp]
  0002d	d9 45 fc	 fld	 DWORD PTR tv136[ebp]

; 281  : }

  00030	c9		 leave
  00031	c3		 ret	 0
?GetMoveSpeed@ioArrowWeapon@@QAEMXZ ENDP		; ioArrowWeapon::GetMoveSpeed
_TEXT	ENDS
PUBLIC	?GetMaxRange@ioArrowWeapon@@QAEMXZ		; ioArrowWeapon::GetMaxRange
; Function compile flags: /Ogsp
;	COMDAT ?GetMaxRange@ioArrowWeapon@@QAEMXZ
_TEXT	SEGMENT
tv136 = -4						; size = 4
_value$533669 = -4					; size = 4
?GetMaxRange@ioArrowWeapon@@QAEMXZ PROC			; ioArrowWeapon::GetMaxRange, COMDAT
; _this$ = ecx

; 284  : {

  00000	55		 push	 ebp
  00001	8b ec		 mov	 ebp, esp
  00003	51		 push	 ecx
  00004	56		 push	 esi
  00005	8b f1		 mov	 esi, ecx

; 285  : 	return GetAttribute()->m_fMoveRange * m_fOwnerChargeRangeRate;

  00007	8d 45 fc	 lea	 eax, DWORD PTR _value$533669[ebp]
  0000a	50		 push	 eax
  0000b	8d 8e f0 00 00
	00		 lea	 ecx, DWORD PTR [esi+240]
  00011	e8 00 00 00 00	 call	 ?DecryptValueToPool@?$CEncrypt@M@@QAEXPAM@Z ; CEncrypt<float>::DecryptValueToPool
  00016	8b 06		 mov	 eax, DWORD PTR [esi]
  00018	8b ce		 mov	 ecx, esi
  0001a	ff 90 3c 01 00
	00		 call	 DWORD PTR [eax+316]
  00020	d9 80 9c 01 00
	00		 fld	 DWORD PTR [eax+412]
  00026	d8 4d fc	 fmul	 DWORD PTR _value$533669[ebp]
  00029	5e		 pop	 esi
  0002a	d9 5d fc	 fstp	 DWORD PTR tv136[ebp]
  0002d	d9 45 fc	 fld	 DWORD PTR tv136[ebp]

; 286  : }

  00030	c9		 leave
  00031	c3		 ret	 0
?GetMaxRange@ioArrowWeapon@@QAEMXZ ENDP			; ioArrowWeapon::GetMaxRange
_TEXT	ENDS
PUBLIC	?SetWeaponDead@ioArrowWeapon@@UAEXXZ		; ioArrowWeapon::SetWeaponDead
EXTRN	?DestroyAreaWeapon@ioPlayStage@@QAEXK@Z:PROC	; ioPlayStage::DestroyAreaWeapon
EXTRN	?SetSkillCreateWeaponDependency@ioBaseChar@@QAEXABVioHashString@@@Z:PROC ; ioBaseChar::SetSkillCreateWeaponDependency
EXTRN	?GetWeaponBySkillName@ioWeapon@@QBEABVioHashString@@XZ:PROC ; ioWeapon::GetWeaponBySkillName
EXTRN	?SetWeaponDead@ioWeapon@@UAEXXZ:PROC		; ioWeapon::SetWeaponDead
; Function compile flags: /Ogsp
;	COMDAT ?SetWeaponDead@ioArrowWeapon@@UAEXXZ
_TEXT	SEGMENT
_value$533676 = -1					; size = 1
?SetWeaponDead@ioArrowWeapon@@UAEXXZ PROC		; ioArrowWeapon::SetWeaponDead, COMDAT
; _this$ = ecx

; 289  : {

  00000	55		 push	 ebp
  00001	8b ec		 mov	 ebp, esp
  00003	51		 push	 ecx
  00004	56		 push	 esi
  00005	57		 push	 edi
  00006	8b f1		 mov	 esi, ecx

; 290  : 	ioWeapon::SetWeaponDead();

  00008	e8 00 00 00 00	 call	 ?SetWeaponDead@ioWeapon@@UAEXXZ ; ioWeapon::SetWeaponDead

; 291  : 	
; 292  : 	if( m_bSkillDependency )

  0000d	8d 45 ff	 lea	 eax, DWORD PTR _value$533676[ebp]
  00010	50		 push	 eax
  00011	8d 8e d0 06 00
	00		 lea	 ecx, DWORD PTR [esi+1744]
  00017	e8 00 00 00 00	 call	 ?DecryptValueToPool@?$CEncrypt@_N@@QAEXPA_N@Z ; CEncrypt<bool>::DecryptValueToPool
  0001c	80 7d ff 00	 cmp	 BYTE PTR _value$533676[ebp], 0
  00020	74 1c		 je	 SHORT $LN3@SetWeaponD

; 293  : 	{
; 294  : 		ioBaseChar *pOwner = GetOwner();

  00022	8b ce		 mov	 ecx, esi
  00024	e8 00 00 00 00	 call	 ?GetOwner@ioWeapon@@QBEPAVioBaseChar@@XZ ; ioWeapon::GetOwner
  00029	8b f8		 mov	 edi, eax

; 295  : 		if( !pOwner ) return;

  0002b	85 ff		 test	 edi, edi
  0002d	74 2d		 je	 SHORT $LN1@SetWeaponD

; 296  : 
; 297  : 		pOwner->SetSkillCreateWeaponDependency( GetWeaponBySkillName() );

  0002f	8b ce		 mov	 ecx, esi
  00031	e8 00 00 00 00	 call	 ?GetWeaponBySkillName@ioWeapon@@QBEABVioHashString@@XZ ; ioWeapon::GetWeaponBySkillName
  00036	50		 push	 eax
  00037	8b cf		 mov	 ecx, edi
  00039	e8 00 00 00 00	 call	 ?SetSkillCreateWeaponDependency@ioBaseChar@@QAEXABVioHashString@@@Z ; ioBaseChar::SetSkillCreateWeaponDependency
$LN3@SetWeaponD:

; 298  : 	}
; 299  : 
; 300  : 	ioPlayStage *pStage = g_WeaponMgr.GetCreator();

  0003e	e8 00 00 00 00	 call	 ?GetSingleton@ioWeaponManager@@SAAAV1@XZ ; ioWeaponManager::GetSingleton
  00043	8b 40 74	 mov	 eax, DWORD PTR [eax+116]

; 301  : 	if( pStage && m_dwAreaWeaponIndex > 0 )

  00046	85 c0		 test	 eax, eax
  00048	74 12		 je	 SHORT $LN1@SetWeaponD
  0004a	8b b6 04 09 00
	00		 mov	 esi, DWORD PTR [esi+2308]
  00050	85 f6		 test	 esi, esi
  00052	74 08		 je	 SHORT $LN1@SetWeaponD

; 302  : 	{
; 303  : 		pStage->DestroyAreaWeapon( m_dwAreaWeaponIndex );

  00054	56		 push	 esi
  00055	8b c8		 mov	 ecx, eax
  00057	e8 00 00 00 00	 call	 ?DestroyAreaWeapon@ioPlayStage@@QAEXK@Z ; ioPlayStage::DestroyAreaWeapon
$LN1@SetWeaponD:
  0005c	5f		 pop	 edi
  0005d	5e		 pop	 esi

; 304  : 	}
; 305  : }

  0005e	c9		 leave
  0005f	c3		 ret	 0
?SetWeaponDead@ioArrowWeapon@@UAEXXZ ENDP		; ioArrowWeapon::SetWeaponDead
_TEXT	ENDS
PUBLIC	_bMapCollision$GSCopy$
PUBLIC	__$ArrayPad$
PUBLIC	?IsCollision@ioArrowWeapon@@UAE_NPAVioPlayEntity@@_N@Z ; ioArrowWeapon::IsCollision
EXTRN	?GetWorldAttackBox@ioWeapon@@QBEABVioOrientBox@@_N@Z:PROC ; ioWeapon::GetWorldAttackBox
; Function compile flags: /Ogsp
;	COMDAT ?IsCollision@ioArrowWeapon@@UAE_NPAVioPlayEntity@@_N@Z
_TEXT	SEGMENT
_bMapCollision$GSCopy$ = -24				; size = 1
_bCollision$ = -20					; size = 1
_vColPoint$ = -16					; size = 12
__$ArrayPad$ = -4					; size = 4
_pEntity$ = 8						; size = 4
_bMapCollision$ = 12					; size = 1
?IsCollision@ioArrowWeapon@@UAE_NPAVioPlayEntity@@_N@Z PROC ; ioArrowWeapon::IsCollision, COMDAT
; _this$ = ecx

; 399  : {

  00000	55		 push	 ebp
  00001	8b ec		 mov	 ebp, esp
  00003	83 ec 18	 sub	 esp, 24			; 00000018H
  00006	a1 00 00 00 00	 mov	 eax, DWORD PTR ___security_cookie
  0000b	33 c5		 xor	 eax, ebp
  0000d	89 45 fc	 mov	 DWORD PTR __$ArrayPad$[ebp], eax

; 400  : 	bool bCollision = false;
; 401  : 
; 402  : 	D3DXVECTOR3 vColPoint( 0.0f, 0.0f, 0.0f );
; 403  : 	if( pEntity->IsWoundedCollision( GetWorldAttackBox(bMapCollision), &vColPoint ) )

  00010	8a 45 0c	 mov	 al, BYTE PTR _bMapCollision$[ebp]
  00013	0f 57 c0	 xorps	 xmm0, xmm0
  00016	53		 push	 ebx
  00017	56		 push	 esi
  00018	8b 75 08	 mov	 esi, DWORD PTR _pEntity$[ebp]
  0001b	57		 push	 edi
  0001c	8b 3e		 mov	 edi, DWORD PTR [esi]
  0001e	88 45 e8	 mov	 BYTE PTR _bMapCollision$GSCopy$[ebp], al
  00021	8d 45 f0	 lea	 eax, DWORD PTR _vColPoint$[ebp]
  00024	50		 push	 eax
  00025	ff 75 e8	 push	 DWORD PTR _bMapCollision$GSCopy$[ebp]
  00028	8b d9		 mov	 ebx, ecx
  0002a	c6 45 ec 00	 mov	 BYTE PTR _bCollision$[ebp], 0
  0002e	f3 0f 11 45 f0	 movss	 DWORD PTR _vColPoint$[ebp], xmm0
  00033	f3 0f 11 45 f4	 movss	 DWORD PTR _vColPoint$[ebp+4], xmm0
  00038	f3 0f 11 45 f8	 movss	 DWORD PTR _vColPoint$[ebp+8], xmm0
  0003d	e8 00 00 00 00	 call	 ?GetWorldAttackBox@ioWeapon@@QBEABVioOrientBox@@_N@Z ; ioWeapon::GetWorldAttackBox
  00042	50		 push	 eax
  00043	8b ce		 mov	 ecx, esi
  00045	ff 97 90 00 00
	00		 call	 DWORD PTR [edi+144]
  0004b	84 c0		 test	 al, al
  0004d	74 0f		 je	 SHORT $LN1@IsCollisio

; 404  : 		bCollision = CheckCollisionLine( pEntity, vColPoint );

  0004f	8d 45 f0	 lea	 eax, DWORD PTR _vColPoint$[ebp]
  00052	50		 push	 eax
  00053	56		 push	 esi
  00054	8b cb		 mov	 ecx, ebx
  00056	e8 00 00 00 00	 call	 ?CheckCollisionLine@ioArrowWeapon@@IAE_NPAVioPlayEntity@@ABUD3DXVECTOR3@@@Z ; ioArrowWeapon::CheckCollisionLine
  0005b	88 45 ec	 mov	 BYTE PTR _bCollision$[ebp], al
$LN1@IsCollisio:

; 405  : 
; 406  : 	CheckPiercing( bCollision );

  0005e	ff 75 ec	 push	 DWORD PTR _bCollision$[ebp]
  00061	8b 03		 mov	 eax, DWORD PTR [ebx]
  00063	8b cb		 mov	 ecx, ebx
  00065	ff 90 48 01 00
	00		 call	 DWORD PTR [eax+328]

; 407  : 
; 408  : 	return bCollision;
; 409  : }

  0006b	8b 4d fc	 mov	 ecx, DWORD PTR __$ArrayPad$[ebp]
  0006e	8a 45 ec	 mov	 al, BYTE PTR _bCollision$[ebp]
  00071	5f		 pop	 edi
  00072	5e		 pop	 esi
  00073	33 cd		 xor	 ecx, ebp
  00075	5b		 pop	 ebx
  00076	e8 00 00 00 00	 call	 @__security_check_cookie@4
  0007b	c9		 leave
  0007c	c2 08 00	 ret	 8
?IsCollision@ioArrowWeapon@@UAE_NPAVioPlayEntity@@_N@Z ENDP ; ioArrowWeapon::IsCollision
_TEXT	ENDS
PUBLIC	??0?$vector@USecondAttribute@@V?$allocator@USecondAttribute@@@std@@@std@@QAE@XZ ; std::vector<SecondAttribute,std::allocator<SecondAttribute> >::vector<SecondAttribute,std::allocator<SecondAttribute> >
; Function compile flags: /Ogsp
; File c:\program files (x86)\microsoft visual studio 10.0\vc\include\vector
;	COMDAT ??0?$vector@USecondAttribute@@V?$allocator@USecondAttribute@@@std@@@std@@QAE@XZ
_TEXT	SEGMENT
??0?$vector@USecondAttribute@@V?$allocator@USecondAttribute@@@std@@@std@@QAE@XZ PROC ; std::vector<SecondAttribute,std::allocator<SecondAttribute> >::vector<SecondAttribute,std::allocator<SecondAttribute> >, COMDAT
; _this$ = ecx

; 507  : 		{	// construct empty vector

  00000	8b c1		 mov	 eax, ecx
  00002	33 c9		 xor	 ecx, ecx
  00004	89 08		 mov	 DWORD PTR [eax], ecx
  00006	89 48 04	 mov	 DWORD PTR [eax+4], ecx
  00009	89 48 08	 mov	 DWORD PTR [eax+8], ecx

; 508  : 		}

  0000c	c3		 ret	 0
??0?$vector@USecondAttribute@@V?$allocator@USecondAttribute@@@std@@@std@@QAE@XZ ENDP ; std::vector<SecondAttribute,std::allocator<SecondAttribute> >::vector<SecondAttribute,std::allocator<SecondAttribute> >
_TEXT	ENDS
PUBLIC	?begin@?$vector@USecondAttribute@@V?$allocator@USecondAttribute@@@std@@@std@@QAE?AV?$_Vector_iterator@V?$_Vector_val@USecondAttribute@@V?$allocator@USecondAttribute@@@std@@@std@@@2@XZ ; std::vector<SecondAttribute,std::allocator<SecondAttribute> >::begin
; Function compile flags: /Ogsp
;	COMDAT ?begin@?$vector@USecondAttribute@@V?$allocator@USecondAttribute@@@std@@@std@@QAE?AV?$_Vector_iterator@V?$_Vector_val@USecondAttribute@@V?$allocator@USecondAttribute@@@std@@@std@@@2@XZ
_TEXT	SEGMENT
___$ReturnUdt$ = 8					; size = 4
?begin@?$vector@USecondAttribute@@V?$allocator@USecondAttribute@@@std@@@std@@QAE?AV?$_Vector_iterator@V?$_Vector_val@USecondAttribute@@V?$allocator@USecondAttribute@@@std@@@std@@@2@XZ PROC ; std::vector<SecondAttribute,std::allocator<SecondAttribute> >::begin, COMDAT
; _this$ = ecx

; 781  : 		{	// return iterator for beginning of mutable sequence

  00000	55		 push	 ebp
  00001	8b ec		 mov	 ebp, esp

; 782  : 		return (iterator(this->_Myfirst, this));

  00003	8b 09		 mov	 ecx, DWORD PTR [ecx]
  00005	8b 45 08	 mov	 eax, DWORD PTR ___$ReturnUdt$[ebp]
  00008	89 08		 mov	 DWORD PTR [eax], ecx

; 783  : 		}

  0000a	5d		 pop	 ebp
  0000b	c2 04 00	 ret	 4
?begin@?$vector@USecondAttribute@@V?$allocator@USecondAttribute@@@std@@@std@@QAE?AV?$_Vector_iterator@V?$_Vector_val@USecondAttribute@@V?$allocator@USecondAttribute@@@std@@@std@@@2@XZ ENDP ; std::vector<SecondAttribute,std::allocator<SecondAttribute> >::begin
_TEXT	ENDS
PUBLIC	?end@?$vector@USecondAttribute@@V?$allocator@USecondAttribute@@@std@@@std@@QAE?AV?$_Vector_iterator@V?$_Vector_val@USecondAttribute@@V?$allocator@USecondAttribute@@@std@@@std@@@2@XZ ; std::vector<SecondAttribute,std::allocator<SecondAttribute> >::end
; Function compile flags: /Ogsp
;	COMDAT ?end@?$vector@USecondAttribute@@V?$allocator@USecondAttribute@@@std@@@std@@QAE?AV?$_Vector_iterator@V?$_Vector_val@USecondAttribute@@V?$allocator@USecondAttribute@@@std@@@std@@@2@XZ
_TEXT	SEGMENT
___$ReturnUdt$ = 8					; size = 4
?end@?$vector@USecondAttribute@@V?$allocator@USecondAttribute@@@std@@@std@@QAE?AV?$_Vector_iterator@V?$_Vector_val@USecondAttribute@@V?$allocator@USecondAttribute@@@std@@@std@@@2@XZ PROC ; std::vector<SecondAttribute,std::allocator<SecondAttribute> >::end, COMDAT
; _this$ = ecx

; 791  : 		{	// return iterator for end of mutable sequence

  00000	55		 push	 ebp
  00001	8b ec		 mov	 ebp, esp

; 792  : 		return (iterator(this->_Mylast, this));

  00003	8b 49 04	 mov	 ecx, DWORD PTR [ecx+4]
  00006	8b 45 08	 mov	 eax, DWORD PTR ___$ReturnUdt$[ebp]
  00009	89 08		 mov	 DWORD PTR [eax], ecx

; 793  : 		}

  0000b	5d		 pop	 ebp
  0000c	c2 04 00	 ret	 4
?end@?$vector@USecondAttribute@@V?$allocator@USecondAttribute@@@std@@@std@@QAE?AV?$_Vector_iterator@V?$_Vector_val@USecondAttribute@@V?$allocator@USecondAttribute@@@std@@@std@@@2@XZ ENDP ; std::vector<SecondAttribute,std::allocator<SecondAttribute> >::end
_TEXT	ENDS
PUBLIC	?_Make_iter@?$vector@USecondAttribute@@V?$allocator@USecondAttribute@@@std@@@std@@QBE?AV?$_Vector_iterator@V?$_Vector_val@USecondAttribute@@V?$allocator@USecondAttribute@@@std@@@std@@@2@V?$_Vector_const_iterator@V?$_Vector_val@USecondAttribute@@V?$allocator@USecondAttribute@@@std@@@std@@@2@@Z ; std::vector<SecondAttribute,std::allocator<SecondAttribute> >::_Make_iter
; Function compile flags: /Ogsp
;	COMDAT ?_Make_iter@?$vector@USecondAttribute@@V?$allocator@USecondAttribute@@@std@@@std@@QBE?AV?$_Vector_iterator@V?$_Vector_val@USecondAttribute@@V?$allocator@USecondAttribute@@@std@@@std@@@2@V?$_Vector_const_iterator@V?$_Vector_val@USecondAttribute@@V?$allocator@USecondAttribute@@@std@@@std@@@2@@Z
_TEXT	SEGMENT
___$ReturnUdt$ = 8					; size = 4
__Where$ = 12						; size = 4
?_Make_iter@?$vector@USecondAttribute@@V?$allocator@USecondAttribute@@@std@@@std@@QBE?AV?$_Vector_iterator@V?$_Vector_val@USecondAttribute@@V?$allocator@USecondAttribute@@@std@@@std@@@2@V?$_Vector_const_iterator@V?$_Vector_val@USecondAttribute@@V?$allocator@USecondAttribute@@@std@@@std@@@2@@Z PROC ; std::vector<SecondAttribute,std::allocator<SecondAttribute> >::_Make_iter, COMDAT
; _this$ = ecx

; 801  : 		{	// make iterator from const_iterator

  00000	55		 push	 ebp
  00001	8b ec		 mov	 ebp, esp

; 802  : 		return (iterator(_Where._Ptr, this));

  00003	8b 45 08	 mov	 eax, DWORD PTR ___$ReturnUdt$[ebp]
  00006	8b 4d 0c	 mov	 ecx, DWORD PTR __Where$[ebp]
  00009	89 08		 mov	 DWORD PTR [eax], ecx

; 803  : 		}

  0000b	5d		 pop	 ebp
  0000c	c2 08 00	 ret	 8
?_Make_iter@?$vector@USecondAttribute@@V?$allocator@USecondAttribute@@@std@@@std@@QBE?AV?$_Vector_iterator@V?$_Vector_val@USecondAttribute@@V?$allocator@USecondAttribute@@@std@@@std@@@2@V?$_Vector_const_iterator@V?$_Vector_val@USecondAttribute@@V?$allocator@USecondAttribute@@@std@@@std@@@2@@Z ENDP ; std::vector<SecondAttribute,std::allocator<SecondAttribute> >::_Make_iter
_TEXT	ENDS
PUBLIC	??9?$_Vector_const_iterator@V?$_Vector_val@USecondAttribute@@V?$allocator@USecondAttribute@@@std@@@std@@@std@@QBE_NABV01@@Z ; std::_Vector_const_iterator<std::_Vector_val<SecondAttribute,std::allocator<SecondAttribute> > >::operator!=
; Function compile flags: /Ogsp
;	COMDAT ??9?$_Vector_const_iterator@V?$_Vector_val@USecondAttribute@@V?$allocator@USecondAttribute@@@std@@@std@@@std@@QBE_NABV01@@Z
_TEXT	SEGMENT
__Right$ = 8						; size = 4
??9?$_Vector_const_iterator@V?$_Vector_val@USecondAttribute@@V?$allocator@USecondAttribute@@@std@@@std@@@std@@QBE_NABV01@@Z PROC ; std::_Vector_const_iterator<std::_Vector_val<SecondAttribute,std::allocator<SecondAttribute> > >::operator!=, COMDAT
; _this$ = ecx

; 207  : 		{	// test for iterator inequality

  00000	55		 push	 ebp
  00001	8b ec		 mov	 ebp, esp

; 208  : 		return (!(*this == _Right));

  00003	8b 01		 mov	 eax, DWORD PTR [ecx]
  00005	8b 55 08	 mov	 edx, DWORD PTR __Right$[ebp]
  00008	33 c9		 xor	 ecx, ecx
  0000a	3b 02		 cmp	 eax, DWORD PTR [edx]
  0000c	0f 95 c0	 setne	 al

; 209  : 		}

  0000f	5d		 pop	 ebp
  00010	c2 04 00	 ret	 4
??9?$_Vector_const_iterator@V?$_Vector_val@USecondAttribute@@V?$allocator@USecondAttribute@@@std@@@std@@@std@@QBE_NABV01@@Z ENDP ; std::_Vector_const_iterator<std::_Vector_val<SecondAttribute,std::allocator<SecondAttribute> > >::operator!=
_TEXT	ENDS
PUBLIC	??$_Cons_val@V?$allocator@USecondAttribute@@@std@@USecondAttribute@@ABU3@@std@@YAXAAV?$allocator@USecondAttribute@@@0@PAUSecondAttribute@@ABU2@@Z ; std::_Cons_val<std::allocator<SecondAttribute>,SecondAttribute,SecondAttribute const &>
; Function compile flags: /Ogsp
; File c:\program files (x86)\microsoft visual studio 10.0\vc\include\xmemory
;	COMDAT ??$_Cons_val@V?$allocator@USecondAttribute@@@std@@USecondAttribute@@ABU3@@std@@YAXAAV?$allocator@USecondAttribute@@@0@PAUSecondAttribute@@ABU2@@Z
_TEXT	SEGMENT
__Alval$ = 8						; size = 4
__Pdest$ = 12						; size = 4
__Src$ = 16						; size = 4
??$_Cons_val@V?$allocator@USecondAttribute@@@std@@USecondAttribute@@ABU3@@std@@YAXAAV?$allocator@USecondAttribute@@@0@PAUSecondAttribute@@ABU2@@Z PROC ; std::_Cons_val<std::allocator<SecondAttribute>,SecondAttribute,SecondAttribute const &>, COMDAT

; 279  : 	{	// construct using allocator

  00000	55		 push	 ebp
  00001	8b ec		 mov	 ebp, esp

; 280  : 	_Alval.construct(_Pdest, _STD forward<_Ty2>(_Src));

  00003	8b 45 0c	 mov	 eax, DWORD PTR __Pdest$[ebp]
  00006	85 c0		 test	 eax, eax
  00008	74 0d		 je	 SHORT $LN9@Cons_val@2
  0000a	8b 4d 10	 mov	 ecx, DWORD PTR __Src$[ebp]
  0000d	8b 11		 mov	 edx, DWORD PTR [ecx]
  0000f	89 10		 mov	 DWORD PTR [eax], edx
  00011	8b 49 04	 mov	 ecx, DWORD PTR [ecx+4]
  00014	89 48 04	 mov	 DWORD PTR [eax+4], ecx
$LN9@Cons_val@2:

; 281  : 	}

  00017	5d		 pop	 ebp
  00018	c3		 ret	 0
??$_Cons_val@V?$allocator@USecondAttribute@@@std@@USecondAttribute@@ABU3@@std@@YAXAAV?$allocator@USecondAttribute@@@0@PAUSecondAttribute@@ABU2@@Z ENDP ; std::_Cons_val<std::allocator<SecondAttribute>,SecondAttribute,SecondAttribute const &>
_TEXT	ENDS
PUBLIC	??$_Move@PAUSecondAttribute@@PAU1@@std@@YAPAUSecondAttribute@@PAU1@00@Z ; std::_Move<SecondAttribute *,SecondAttribute *>
; Function compile flags: /Ogsp
; File c:\program files (x86)\microsoft visual studio 10.0\vc\include\xutility
;	COMDAT ??$_Move@PAUSecondAttribute@@PAU1@@std@@YAPAUSecondAttribute@@PAU1@00@Z
_TEXT	SEGMENT
__Cat$533817 = -4					; size = 1
__First$ = 8						; size = 4
__Last$ = 12						; size = 4
__Dest$ = 16						; size = 4
??$_Move@PAUSecondAttribute@@PAU1@@std@@YAPAUSecondAttribute@@PAU1@00@Z PROC ; std::_Move<SecondAttribute *,SecondAttribute *>, COMDAT

; 2533 : 	{	// move [_First, _Last) to [_Dest, ...), unchecked

  00000	55		 push	 ebp
  00001	8b ec		 mov	 ebp, esp
  00003	51		 push	 ecx

; 2534 : 	return (_Move(_First, _Last,
; 2535 : 		_Dest, _Ptr_cat(_First, _Dest)));

  00004	ff 75 fc	 push	 DWORD PTR __Cat$533817[ebp]
  00007	ff 75 10	 push	 DWORD PTR __Dest$[ebp]
  0000a	ff 75 0c	 push	 DWORD PTR __Last$[ebp]
  0000d	ff 75 08	 push	 DWORD PTR __First$[ebp]
  00010	e8 00 00 00 00	 call	 ??$_Move@PAUSecondAttribute@@PAU1@@std@@YAPAUSecondAttribute@@PAU1@00U_Nonscalar_ptr_iterator_tag@0@@Z ; std::_Move<SecondAttribute *,SecondAttribute *>
  00015	83 c4 10	 add	 esp, 16			; 00000010H

; 2536 : 	}

  00018	c9		 leave
  00019	c3		 ret	 0
??$_Move@PAUSecondAttribute@@PAU1@@std@@YAPAUSecondAttribute@@PAU1@00@Z ENDP ; std::_Move<SecondAttribute *,SecondAttribute *>
_TEXT	ENDS
PUBLIC	??$_Dest_val@V?$allocator@USecondAttribute@@@std@@USecondAttribute@@@std@@YAXAAV?$allocator@USecondAttribute@@@0@PAUSecondAttribute@@@Z ; std::_Dest_val<std::allocator<SecondAttribute>,SecondAttribute>
; Function compile flags: /Ogsp
; File c:\program files (x86)\microsoft visual studio 10.0\vc\include\xmemory
;	COMDAT ??$_Dest_val@V?$allocator@USecondAttribute@@@std@@USecondAttribute@@@std@@YAXAAV?$allocator@USecondAttribute@@@0@PAUSecondAttribute@@@Z
_TEXT	SEGMENT
__Alval$ = 8						; size = 4
__Pdest$ = 12						; size = 4
??$_Dest_val@V?$allocator@USecondAttribute@@@std@@USecondAttribute@@@std@@YAXAAV?$allocator@USecondAttribute@@@0@PAUSecondAttribute@@@Z PROC ; std::_Dest_val<std::allocator<SecondAttribute>,SecondAttribute>, COMDAT

; 287  : 	_Alval.destroy(_Pdest);
; 288  : 	}

  00000	c3		 ret	 0
??$_Dest_val@V?$allocator@USecondAttribute@@@std@@USecondAttribute@@@std@@YAXAAV?$allocator@USecondAttribute@@@0@PAUSecondAttribute@@@Z ENDP ; std::_Dest_val<std::allocator<SecondAttribute>,SecondAttribute>
_TEXT	ENDS
PUBLIC	??$_Cons_val@V?$allocator@USecondAttribute@@@std@@USecondAttribute@@U3@@std@@YAXAAV?$allocator@USecondAttribute@@@0@PAUSecondAttribute@@$$QAU2@@Z ; std::_Cons_val<std::allocator<SecondAttribute>,SecondAttribute,SecondAttribute>
; Function compile flags: /Ogsp
;	COMDAT ??$_Cons_val@V?$allocator@USecondAttribute@@@std@@USecondAttribute@@U3@@std@@YAXAAV?$allocator@USecondAttribute@@@0@PAUSecondAttribute@@$$QAU2@@Z
_TEXT	SEGMENT
__Alval$ = 8						; size = 4
__Pdest$ = 12						; size = 4
__Src$ = 16						; size = 4
??$_Cons_val@V?$allocator@USecondAttribute@@@std@@USecondAttribute@@U3@@std@@YAXAAV?$allocator@USecondAttribute@@@0@PAUSecondAttribute@@$$QAU2@@Z PROC ; std::_Cons_val<std::allocator<SecondAttribute>,SecondAttribute,SecondAttribute>, COMDAT

; 279  : 	{	// construct using allocator

  00000	55		 push	 ebp
  00001	8b ec		 mov	 ebp, esp

; 280  : 	_Alval.construct(_Pdest, _STD forward<_Ty2>(_Src));

  00003	8b 45 0c	 mov	 eax, DWORD PTR __Pdest$[ebp]
  00006	85 c0		 test	 eax, eax
  00008	74 0d		 je	 SHORT $LN7@Cons_val@3
  0000a	8b 4d 10	 mov	 ecx, DWORD PTR __Src$[ebp]
  0000d	8b 11		 mov	 edx, DWORD PTR [ecx]
  0000f	89 10		 mov	 DWORD PTR [eax], edx
  00011	8b 49 04	 mov	 ecx, DWORD PTR [ecx+4]
  00014	89 48 04	 mov	 DWORD PTR [eax+4], ecx
$LN7@Cons_val@3:

; 281  : 	}

  00017	5d		 pop	 ebp
  00018	c3		 ret	 0
??$_Cons_val@V?$allocator@USecondAttribute@@@std@@USecondAttribute@@U3@@std@@YAXAAV?$allocator@USecondAttribute@@@0@PAUSecondAttribute@@$$QAU2@@Z ENDP ; std::_Cons_val<std::allocator<SecondAttribute>,SecondAttribute,SecondAttribute>
_TEXT	ENDS
PUBLIC	__$ArrayPad$
PUBLIC	?Process@ioArrowWeapon@@UAEXMPAVioPlayStage@@@Z	; ioArrowWeapon::Process
EXTRN	__imp_?IsLive@ioEffect@@QBE_NXZ:PROC
; Function compile flags: /Ogsp
; File d:\lost saga for developer\youtube\tutorial\source\src\lsclient\ioarrowweapon.cpp
;	COMDAT ?Process@ioArrowWeapon@@UAEXMPAVioPlayStage@@@Z
_TEXT	SEGMENT
tv358 = -20						; size = 4
tv354 = -20						; size = 4
_value$533877 = -20					; size = 4
_fMaxRange$530984 = -20					; size = 4
_fMoveDist$530981 = -20					; size = 4
_vMove$530982 = -16					; size = 12
__$ArrayPad$ = -4					; size = 4
_fTimePerSec$ = 8					; size = 4
_pStage$ = 12						; size = 4
?Process@ioArrowWeapon@@UAEXMPAVioPlayStage@@@Z PROC	; ioArrowWeapon::Process, COMDAT
; _this$ = ecx

; 193  : {

  00000	55		 push	 ebp
  00001	8b ec		 mov	 ebp, esp
  00003	83 ec 14	 sub	 esp, 20			; 00000014H
  00006	a1 00 00 00 00	 mov	 eax, DWORD PTR ___security_cookie
  0000b	33 c5		 xor	 eax, ebp
  0000d	89 45 fc	 mov	 DWORD PTR __$ArrayPad$[ebp], eax
  00010	53		 push	 ebx
  00011	56		 push	 esi
  00012	8b f1		 mov	 esi, ecx

; 194  : 	if( !CheckPiercing() )

  00014	8b 06		 mov	 eax, DWORD PTR [esi]
  00016	33 db		 xor	 ebx, ebx
  00018	53		 push	 ebx
  00019	ff 90 48 01 00
	00		 call	 DWORD PTR [eax+328]
  0001f	84 c0		 test	 al, al
  00021	0f 84 45 01 00
	00		 je	 $LN1@Process

; 195  : 		return;
; 196  : 
; 197  : 	if( !m_bFirst )

  00027	38 9e b9 08 00
	00		 cmp	 BYTE PTR [esi+2233], bl
  0002d	0f 85 fb 00 00
	00		 jne	 $LN21@Process

; 198  : 	{
; 199  : 		float fMoveDist = GetMoveSpeed() * fTimePerSec;

  00033	8b ce		 mov	 ecx, esi
  00035	e8 00 00 00 00	 call	 ?GetMoveSpeed@ioArrowWeapon@@QAEMXZ ; ioArrowWeapon::GetMoveSpeed
  0003a	d8 4d 08	 fmul	 DWORD PTR _fTimePerSec$[ebp]

; 200  : 	
; 201  : 		D3DXVECTOR3 vMove = m_vMoveDir * fMoveDist;
; 202  : 
; 203  : 		GetParentSceneNode()->Translate( vMove );

  0003d	8b 4e 04	 mov	 ecx, DWORD PTR [esi+4]
  00040	6a 01		 push	 1
  00042	d9 5d ec	 fstp	 DWORD PTR _fMoveDist$530981[ebp]
  00045	8d 55 f0	 lea	 edx, DWORD PTR _vMove$530982[ebp]
  00048	d9 45 ec	 fld	 DWORD PTR _fMoveDist$530981[ebp]
  0004b	52		 push	 edx
  0004c	d8 8e a4 08 00
	00		 fmul	 DWORD PTR [esi+2212]
  00052	d9 5d f0	 fstp	 DWORD PTR _vMove$530982[ebp]
  00055	d9 86 a8 08 00
	00		 fld	 DWORD PTR [esi+2216]
  0005b	d8 4d ec	 fmul	 DWORD PTR _fMoveDist$530981[ebp]
  0005e	d9 5d f4	 fstp	 DWORD PTR _vMove$530982[ebp+4]
  00061	d9 86 ac 08 00
	00		 fld	 DWORD PTR [esi+2220]
  00067	d8 4d ec	 fmul	 DWORD PTR _fMoveDist$530981[ebp]
  0006a	d9 5d f8	 fstp	 DWORD PTR _vMove$530982[ebp+8]
  0006d	8b 01		 mov	 eax, DWORD PTR [ecx]
  0006f	ff 50 3c	 call	 DWORD PTR [eax+60]

; 204  : 		m_fCurMoveRange += fMoveDist;

  00072	d9 86 b0 08 00
	00		 fld	 DWORD PTR [esi+2224]
  00078	d8 45 ec	 fadd	 DWORD PTR _fMoveDist$530981[ebp]

; 205  : 
; 206  : 		float fMaxRange = GetMaxRange() + m_fGrowthMoveRange;

  0007b	8d 45 ec	 lea	 eax, DWORD PTR _value$533877[ebp]
  0007e	50		 push	 eax
  0007f	8d 8e 60 03 00
	00		 lea	 ecx, DWORD PTR [esi+864]
  00085	d9 9e b0 08 00
	00		 fstp	 DWORD PTR [esi+2224]
  0008b	e8 00 00 00 00	 call	 ?DecryptValueToPool@?$CEncrypt@M@@QAEXPAM@Z ; CEncrypt<float>::DecryptValueToPool
  00090	8b ce		 mov	 ecx, esi
  00092	e8 00 00 00 00	 call	 ?GetMaxRange@ioArrowWeapon@@QAEMXZ ; ioArrowWeapon::GetMaxRange
  00097	d8 45 ec	 fadd	 DWORD PTR _value$533877[ebp]
  0009a	d9 5d ec	 fstp	 DWORD PTR _fMaxRange$530984[ebp]

; 207  : 		if( fMaxRange > 0.0f )

  0009d	d9 ee		 fldz
  0009f	d9 45 ec	 fld	 DWORD PTR _fMaxRange$530984[ebp]
  000a2	df f1		 fcomip	 ST(1)
  000a4	dd d8		 fstp	 ST(0)
  000a6	76 23		 jbe	 SHORT $LN6@Process

; 208  : 			m_fCurMoveRate = m_fCurMoveRange / fMaxRange;

  000a8	f3 0f 10 86 b0
	08 00 00	 movss	 xmm0, DWORD PTR [esi+2224]
  000b0	f3 0f 10 4d ec	 movss	 xmm1, DWORD PTR _fMaxRange$530984[ebp]
  000b5	0f 5a c0	 cvtps2pd xmm0, xmm0
  000b8	0f 5a c9	 cvtps2pd xmm1, xmm1
  000bb	f2 0f 5e c1	 divsd	 xmm0, xmm1
  000bf	66 0f 5a c0	 cvtpd2ps xmm0, xmm0
  000c3	f3 0f 11 86 b4
	08 00 00	 movss	 DWORD PTR [esi+2228], xmm0
$LN6@Process:

; 209  : 
; 210  : 		if( m_fCurMoveRange < fMaxRange )

  000cb	f3 0f 10 86 b0
	08 00 00	 movss	 xmm0, DWORD PTR [esi+2224]
  000d3	f3 0f 10 4d ec	 movss	 xmm1, DWORD PTR _fMaxRange$530984[ebp]

; 211  : 		{
; 212  : 			UpdateWorldAttackBox( fTimePerSec, false );

  000d8	8b 06		 mov	 eax, DWORD PTR [esi]
  000da	0f 5a c0	 cvtps2pd xmm0, xmm0
  000dd	0f 5a c9	 cvtps2pd xmm1, xmm1
  000e0	66 0f 2f c8	 comisd	 xmm1, xmm0
  000e4	f3 0f 10 45 08	 movss	 xmm0, DWORD PTR _fTimePerSec$[ebp]
  000e9	76 11		 jbe	 SHORT $LN5@Process
  000eb	53		 push	 ebx
  000ec	51		 push	 ecx
  000ed	8b ce		 mov	 ecx, esi
  000ef	f3 0f 11 04 24	 movss	 DWORD PTR [esp], xmm0
  000f4	ff 90 38 01 00
	00		 call	 DWORD PTR [eax+312]

; 213  : 		}
; 214  : 		else

  000fa	eb 32		 jmp	 SHORT $LN21@Process
$LN5@Process:

; 215  : 		{
; 216  : 			UpdateWorldAttackBox( fTimePerSec, true );

  000fc	6a 01		 push	 1
  000fe	51		 push	 ecx
  000ff	8b ce		 mov	 ecx, esi
  00101	f3 0f 11 04 24	 movss	 DWORD PTR [esp], xmm0
  00106	ff 90 38 01 00
	00		 call	 DWORD PTR [eax+312]

; 217  : 
; 218  : 			SetGraseClose();

  0010c	8b ce		 mov	 ecx, esi
  0010e	e8 00 00 00 00	 call	 ?SetGraseClose@ioArrowWeapon@@IAEXXZ ; ioArrowWeapon::SetGraseClose

; 219  : 
; 220  : 			if( !m_pFireBall || !m_pFireBall->IsLive() )

  00113	8b 8e 94 08 00
	00		 mov	 ecx, DWORD PTR [esi+2196]
  00119	3b cb		 cmp	 ecx, ebx
  0011b	74 0a		 je	 SHORT $LN2@Process
  0011d	ff 15 00 00 00
	00		 call	 DWORD PTR __imp_?IsLive@ioEffect@@QBE_NXZ
  00123	84 c0		 test	 al, al
  00125	75 07		 jne	 SHORT $LN21@Process
$LN2@Process:

; 221  : 			{
; 222  : 				SetWeaponDead();

  00127	8b 06		 mov	 eax, DWORD PTR [esi]
  00129	8b ce		 mov	 ecx, esi
  0012b	ff 50 4c	 call	 DWORD PTR [eax+76]
$LN21@Process:

; 223  : 			}
; 224  : 		}
; 225  : 	}
; 226  : 
; 227  : 	m_bFirst = false;

  0012e	88 9e b9 08 00
	00		 mov	 BYTE PTR [esi+2233], bl

; 228  : 	
; 229  : 	if( m_pFireBall )

  00134	39 9e 94 08 00
	00		 cmp	 DWORD PTR [esi+2196], ebx
  0013a	74 30		 je	 SHORT $LN1@Process

; 230  : 	{
; 231  : 		m_pFireBall->Update( fTimePerSec * FLOAT1000 );

  0013c	b8 e8 03 00 00	 mov	 eax, 1000		; 000003e8H
  00141	8b 8e 94 08 00
	00		 mov	 ecx, DWORD PTR [esi+2196]
  00147	83 c1 14	 add	 ecx, 20			; 00000014H
  0014a	8b 11		 mov	 edx, DWORD PTR [ecx]
  0014c	89 45 ec	 mov	 DWORD PTR tv358[ebp], eax
  0014f	db 45 ec	 fild	 DWORD PTR tv358[ebp]
  00152	85 c0		 test	 eax, eax
  00154	79 06		 jns	 SHORT $LN22@Process
  00156	d8 05 00 00 00
	00		 fadd	 DWORD PTR __real@4f800000
$LN22@Process:
  0015c	d8 4d 08	 fmul	 DWORD PTR _fTimePerSec$[ebp]
  0015f	51		 push	 ecx
  00160	d9 5d ec	 fstp	 DWORD PTR tv354[ebp]
  00163	d9 45 ec	 fld	 DWORD PTR tv354[ebp]
  00166	d9 1c 24	 fstp	 DWORD PTR [esp]
  00169	ff 52 40	 call	 DWORD PTR [edx+64]
$LN1@Process:

; 232  : 	}
; 233  : }

  0016c	8b 4d fc	 mov	 ecx, DWORD PTR __$ArrayPad$[ebp]
  0016f	5e		 pop	 esi
  00170	33 cd		 xor	 ecx, ebp
  00172	5b		 pop	 ebx
  00173	e8 00 00 00 00	 call	 @__security_check_cookie@4
  00178	c9		 leave
  00179	c2 08 00	 ret	 8
?Process@ioArrowWeapon@@UAEXMPAVioPlayStage@@@Z ENDP	; ioArrowWeapon::Process
_TEXT	ENDS
PUBLIC	??$_Destroy_range@V?$allocator@USecondAttribute@@@std@@@std@@YAXPAUSecondAttribute@@0AAV?$allocator@USecondAttribute@@@0@U_Nonscalar_ptr_iterator_tag@0@@Z ; std::_Destroy_range<std::allocator<SecondAttribute> >
; Function compile flags: /Ogsp
; File c:\program files (x86)\microsoft visual studio 10.0\vc\include\xmemory
;	COMDAT ??$_Destroy_range@V?$allocator@USecondAttribute@@@std@@@std@@YAXPAUSecondAttribute@@0AAV?$allocator@USecondAttribute@@@0@U_Nonscalar_ptr_iterator_tag@0@@Z
_TEXT	SEGMENT
__First$ = 8						; size = 4
__Last$ = 12						; size = 4
__Al$ = 16						; size = 4
___formal$ = 20						; size = 1
??$_Destroy_range@V?$allocator@USecondAttribute@@@std@@@std@@YAXPAUSecondAttribute@@0AAV?$allocator@USecondAttribute@@@0@U_Nonscalar_ptr_iterator_tag@0@@Z PROC ; std::_Destroy_range<std::allocator<SecondAttribute> >, COMDAT

; 96   : 	for (; _First != _Last; ++_First)
; 97   : 		_Dest_val(_Al, _First);
; 98   : 	}

  00000	c3		 ret	 0
??$_Destroy_range@V?$allocator@USecondAttribute@@@std@@@std@@YAXPAUSecondAttribute@@0AAV?$allocator@USecondAttribute@@@0@U_Nonscalar_ptr_iterator_tag@0@@Z ENDP ; std::_Destroy_range<std::allocator<SecondAttribute> >
_TEXT	ENDS
PUBLIC	??$_Uninit_move@PAUSecondAttribute@@PAU1@V?$allocator@USecondAttribute@@@std@@U1@@std@@YAPAUSecondAttribute@@PAU1@00AAV?$allocator@USecondAttribute@@@0@0U_Nonscalar_ptr_iterator_tag@0@@Z ; std::_Uninit_move<SecondAttribute *,SecondAttribute *,std::allocator<SecondAttribute>,SecondAttribute>
; Function compile flags: /Ogsp
; File c:\program files (x86)\microsoft visual studio 10.0\vc\include\memory
;	COMDAT ??$_Uninit_move@PAUSecondAttribute@@PAU1@V?$allocator@USecondAttribute@@@std@@U1@@std@@YAPAUSecondAttribute@@PAU1@00AAV?$allocator@USecondAttribute@@@0@0U_Nonscalar_ptr_iterator_tag@0@@Z
_TEXT	SEGMENT
__First$ = 8						; size = 4
__Last$ = 12						; size = 4
__Dest$ = 16						; size = 4
__Al$ = 20						; size = 4
___formal$ = 24						; size = 4
___formal$ = 28						; size = 1
??$_Uninit_move@PAUSecondAttribute@@PAU1@V?$allocator@USecondAttribute@@@std@@U1@@std@@YAPAUSecondAttribute@@PAU1@00AAV?$allocator@USecondAttribute@@@0@0U_Nonscalar_ptr_iterator_tag@0@@Z PROC ; std::_Uninit_move<SecondAttribute *,SecondAttribute *,std::allocator<SecondAttribute>,SecondAttribute>, COMDAT

; 424  : 	{	// move [_First, _Last) to raw _Dest, using _Al, arbitrary type

  00000	55		 push	 ebp
  00001	8b ec		 mov	 ebp, esp
  00003	56		 push	 esi

; 425  : 	_DEBUG_RANGE(_First, _Last);
; 426  : 	_DEBUG_POINTER(_Dest);
; 427  : 	_FwdIt _Next = _Dest;
; 428  : 
; 429  : 	_TRY_BEGIN
; 430  : 	for (; _First != _Last; ++_Dest, ++_First)

  00004	8b 75 08	 mov	 esi, DWORD PTR __First$[ebp]
  00007	eb 16		 jmp	 SHORT $LN24@Uninit_mov
$LL6@Uninit_mov:

; 431  : 		_Cons_val(_Al, _Dest, (_Valty &&)*_First);

  00009	56		 push	 esi
  0000a	ff 75 10	 push	 DWORD PTR __Dest$[ebp]
  0000d	ff 75 14	 push	 DWORD PTR __Al$[ebp]
  00010	e8 00 00 00 00	 call	 ??$_Cons_val@V?$allocator@USecondAttribute@@@std@@USecondAttribute@@U3@@std@@YAXAAV?$allocator@USecondAttribute@@@0@PAUSecondAttribute@@$$QAU2@@Z ; std::_Cons_val<std::allocator<SecondAttribute>,SecondAttribute,SecondAttribute>
  00015	83 45 10 08	 add	 DWORD PTR __Dest$[ebp], 8
  00019	83 c4 0c	 add	 esp, 12			; 0000000cH
  0001c	83 c6 08	 add	 esi, 8
$LN24@Uninit_mov:

; 425  : 	_DEBUG_RANGE(_First, _Last);
; 426  : 	_DEBUG_POINTER(_Dest);
; 427  : 	_FwdIt _Next = _Dest;
; 428  : 
; 429  : 	_TRY_BEGIN
; 430  : 	for (; _First != _Last; ++_Dest, ++_First)

  0001f	3b 75 0c	 cmp	 esi, DWORD PTR __Last$[ebp]
  00022	75 e5		 jne	 SHORT $LL6@Uninit_mov

; 432  : 	_CATCH_ALL
; 433  : 	for (; _Next != _Dest; ++_Next)
; 434  : 		_Dest_val(_Al, _Next);
; 435  : 	_RERAISE;
; 436  : 	_CATCH_END
; 437  : 	return (_Dest);

  00024	8b 45 10	 mov	 eax, DWORD PTR __Dest$[ebp]
  00027	5e		 pop	 esi

; 438  : 	}

  00028	5d		 pop	 ebp
  00029	c3		 ret	 0
??$_Uninit_move@PAUSecondAttribute@@PAU1@V?$allocator@USecondAttribute@@@std@@U1@@std@@YAPAUSecondAttribute@@PAU1@00AAV?$allocator@USecondAttribute@@@0@0U_Nonscalar_ptr_iterator_tag@0@@Z ENDP ; std::_Uninit_move<SecondAttribute *,SecondAttribute *,std::allocator<SecondAttribute>,SecondAttribute>
_TEXT	ENDS
PUBLIC	??$_Destroy_range@V?$allocator@USecondAttribute@@@std@@@std@@YAXPAUSecondAttribute@@0AAV?$allocator@USecondAttribute@@@0@@Z ; std::_Destroy_range<std::allocator<SecondAttribute> >
; Function compile flags: /Ogsp
; File c:\program files (x86)\microsoft visual studio 10.0\vc\include\xmemory
;	COMDAT ??$_Destroy_range@V?$allocator@USecondAttribute@@@std@@@std@@YAXPAUSecondAttribute@@0AAV?$allocator@USecondAttribute@@@0@@Z
_TEXT	SEGMENT
__First$ = 8						; size = 4
__Last$ = 12						; size = 4
__Al$ = 16						; size = 4
??$_Destroy_range@V?$allocator@USecondAttribute@@@std@@@std@@YAXPAUSecondAttribute@@0AAV?$allocator@USecondAttribute@@@0@@Z PROC ; std::_Destroy_range<std::allocator<SecondAttribute> >, COMDAT

; 88   : 	_Destroy_range(_First, _Last, _Al, _Ptr_cat(_First, _Last));
; 89   : 	}

  00000	c3		 ret	 0
??$_Destroy_range@V?$allocator@USecondAttribute@@@std@@@std@@YAXPAUSecondAttribute@@0AAV?$allocator@USecondAttribute@@@0@@Z ENDP ; std::_Destroy_range<std::allocator<SecondAttribute> >
_TEXT	ENDS
PUBLIC	??$_Uninitialized_move@PAUSecondAttribute@@PAU1@V?$allocator@USecondAttribute@@@std@@@std@@YAPAUSecondAttribute@@PAU1@00AAV?$allocator@USecondAttribute@@@0@@Z ; std::_Uninitialized_move<SecondAttribute *,SecondAttribute *,std::allocator<SecondAttribute> >
; Function compile flags: /Ogsp
; File c:\program files (x86)\microsoft visual studio 10.0\vc\include\memory
;	COMDAT ??$_Uninitialized_move@PAUSecondAttribute@@PAU1@V?$allocator@USecondAttribute@@@std@@@std@@YAPAUSecondAttribute@@PAU1@00AAV?$allocator@USecondAttribute@@@0@@Z
_TEXT	SEGMENT
__Cat$533978 = -4					; size = 1
__First$ = 8						; size = 4
__Last$ = 12						; size = 4
__Dest$ = 16						; size = 4
__Al$ = 20						; size = 4
??$_Uninitialized_move@PAUSecondAttribute@@PAU1@V?$allocator@USecondAttribute@@@std@@@std@@YAPAUSecondAttribute@@PAU1@00AAV?$allocator@USecondAttribute@@@0@@Z PROC ; std::_Uninitialized_move<SecondAttribute *,SecondAttribute *,std::allocator<SecondAttribute> >, COMDAT

; 469  : 	{	// move [_First, _Last) to raw _Dest, using _Al

  00000	55		 push	 ebp
  00001	8b ec		 mov	 ebp, esp
  00003	51		 push	 ecx

; 470  : 	return (_Uninit_move(_First, _Last, _Dest, _Al,
; 471  : 		_Val_type(_First), _Ptr_cat(_First, _Dest)));

  00004	ff 75 fc	 push	 DWORD PTR __Cat$533978[ebp]
  00007	6a 00		 push	 0
  00009	ff 75 14	 push	 DWORD PTR __Al$[ebp]
  0000c	ff 75 10	 push	 DWORD PTR __Dest$[ebp]
  0000f	ff 75 0c	 push	 DWORD PTR __Last$[ebp]
  00012	ff 75 08	 push	 DWORD PTR __First$[ebp]
  00015	e8 00 00 00 00	 call	 ??$_Uninit_move@PAUSecondAttribute@@PAU1@V?$allocator@USecondAttribute@@@std@@U1@@std@@YAPAUSecondAttribute@@PAU1@00AAV?$allocator@USecondAttribute@@@0@0U_Nonscalar_ptr_iterator_tag@0@@Z ; std::_Uninit_move<SecondAttribute *,SecondAttribute *,std::allocator<SecondAttribute>,SecondAttribute>
  0001a	83 c4 18	 add	 esp, 24			; 00000018H

; 472  : 	}

  0001d	c9		 leave
  0001e	c3		 ret	 0
??$_Uninitialized_move@PAUSecondAttribute@@PAU1@V?$allocator@USecondAttribute@@@std@@@std@@YAPAUSecondAttribute@@PAU1@00AAV?$allocator@USecondAttribute@@@0@@Z ENDP ; std::_Uninitialized_move<SecondAttribute *,SecondAttribute *,std::allocator<SecondAttribute> >
_TEXT	ENDS
PUBLIC	?_Destroy@?$vector@USecondAttribute@@V?$allocator@USecondAttribute@@@std@@@std@@IAEXPAUSecondAttribute@@0@Z ; std::vector<SecondAttribute,std::allocator<SecondAttribute> >::_Destroy
; Function compile flags: /Ogsp
; File c:\program files (x86)\microsoft visual studio 10.0\vc\include\vector
;	COMDAT ?_Destroy@?$vector@USecondAttribute@@V?$allocator@USecondAttribute@@@std@@@std@@IAEXPAUSecondAttribute@@0@Z
_TEXT	SEGMENT
__First$ = 8						; size = 4
__Last$ = 12						; size = 4
?_Destroy@?$vector@USecondAttribute@@V?$allocator@USecondAttribute@@@std@@@std@@IAEXPAUSecondAttribute@@0@Z PROC ; std::vector<SecondAttribute,std::allocator<SecondAttribute> >::_Destroy, COMDAT
; _this$ = ecx

; 1270 : 		_Destroy_range(_First, _Last, this->_Alval);
; 1271 : 		}

  00000	c2 08 00	 ret	 8
?_Destroy@?$vector@USecondAttribute@@V?$allocator@USecondAttribute@@@std@@@std@@IAEXPAUSecondAttribute@@0@Z ENDP ; std::vector<SecondAttribute,std::allocator<SecondAttribute> >::_Destroy
_TEXT	ENDS
PUBLIC	??$_Umove@PAUSecondAttribute@@@?$vector@USecondAttribute@@V?$allocator@USecondAttribute@@@std@@@std@@IAEPAUSecondAttribute@@PAU2@00@Z ; std::vector<SecondAttribute,std::allocator<SecondAttribute> >::_Umove<SecondAttribute *>
; Function compile flags: /Ogsp
;	COMDAT ??$_Umove@PAUSecondAttribute@@@?$vector@USecondAttribute@@V?$allocator@USecondAttribute@@@std@@@std@@IAEPAUSecondAttribute@@PAU2@00@Z
_TEXT	SEGMENT
__First$ = 8						; size = 4
__Last$ = 12						; size = 4
__Ptr$ = 16						; size = 4
??$_Umove@PAUSecondAttribute@@@?$vector@USecondAttribute@@V?$allocator@USecondAttribute@@@std@@@std@@IAEPAUSecondAttribute@@PAU2@00@Z PROC ; std::vector<SecondAttribute,std::allocator<SecondAttribute> >::_Umove<SecondAttribute *>, COMDAT
; _this$ = ecx

; 1322 : 		pointer _Umove(_Iter _First, _Iter _Last, pointer _Ptr)

  00000	55		 push	 ebp
  00001	8b ec		 mov	 ebp, esp

; 1323 : 		{	// move initializing [_First, _Last), using allocator
; 1324 : 		return (_Uninitialized_move(_First, _Last,
; 1325 : 			_Ptr, this->_Alval));

  00003	83 c1 0c	 add	 ecx, 12			; 0000000cH
  00006	51		 push	 ecx
  00007	ff 75 10	 push	 DWORD PTR __Ptr$[ebp]
  0000a	ff 75 0c	 push	 DWORD PTR __Last$[ebp]
  0000d	ff 75 08	 push	 DWORD PTR __First$[ebp]
  00010	e8 00 00 00 00	 call	 ??$_Uninitialized_move@PAUSecondAttribute@@PAU1@V?$allocator@USecondAttribute@@@std@@@std@@YAPAUSecondAttribute@@PAU1@00AAV?$allocator@USecondAttribute@@@0@@Z ; std::_Uninitialized_move<SecondAttribute *,SecondAttribute *,std::allocator<SecondAttribute> >
  00015	83 c4 10	 add	 esp, 16			; 00000010H

; 1326 : 		}

  00018	5d		 pop	 ebp
  00019	c2 0c 00	 ret	 12			; 0000000cH
??$_Umove@PAUSecondAttribute@@@?$vector@USecondAttribute@@V?$allocator@USecondAttribute@@@std@@@std@@IAEPAUSecondAttribute@@PAU2@00@Z ENDP ; std::vector<SecondAttribute,std::allocator<SecondAttribute> >::_Umove<SecondAttribute *>
_TEXT	ENDS
PUBLIC	?erase@?$vector@USecondAttribute@@V?$allocator@USecondAttribute@@@std@@@std@@QAE?AV?$_Vector_iterator@V?$_Vector_val@USecondAttribute@@V?$allocator@USecondAttribute@@@std@@@std@@@2@V?$_Vector_const_iterator@V?$_Vector_val@USecondAttribute@@V?$allocator@USecondAttribute@@@std@@@std@@@2@0@Z ; std::vector<SecondAttribute,std::allocator<SecondAttribute> >::erase
; Function compile flags: /Ogsp
;	COMDAT ?erase@?$vector@USecondAttribute@@V?$allocator@USecondAttribute@@@std@@@std@@QAE?AV?$_Vector_iterator@V?$_Vector_val@USecondAttribute@@V?$allocator@USecondAttribute@@@std@@@std@@@2@V?$_Vector_const_iterator@V?$_Vector_val@USecondAttribute@@V?$allocator@USecondAttribute@@@std@@@std@@@2@0@Z
_TEXT	SEGMENT
___$ReturnUdt$ = 8					; size = 4
__First_arg$ = 12					; size = 4
__Cat$534116 = 16					; size = 1
__Last_arg$ = 16					; size = 4
?erase@?$vector@USecondAttribute@@V?$allocator@USecondAttribute@@@std@@@std@@QAE?AV?$_Vector_iterator@V?$_Vector_val@USecondAttribute@@V?$allocator@USecondAttribute@@@std@@@std@@@2@V?$_Vector_const_iterator@V?$_Vector_val@USecondAttribute@@V?$allocator@USecondAttribute@@@std@@@std@@@2@0@Z PROC ; std::vector<SecondAttribute,std::allocator<SecondAttribute> >::erase, COMDAT
; _this$ = ecx

; 1190 : 		{	// erase [_First, _Last)

  00000	55		 push	 ebp
  00001	8b ec		 mov	 ebp, esp

; 1191 : 		iterator _First = _Make_iter(_First_arg);

  00003	8b 45 0c	 mov	 eax, DWORD PTR __First_arg$[ebp]
  00006	56		 push	 esi
  00007	57		 push	 edi
  00008	8b 7d 08	 mov	 edi, DWORD PTR ___$ReturnUdt$[ebp]
  0000b	8b f1		 mov	 esi, ecx
  0000d	89 07		 mov	 DWORD PTR [edi], eax

; 1192 : 		iterator _Last = _Make_iter(_Last_arg);
; 1193 : 
; 1194 : 		if (_First != _Last)

  0000f	3b 45 10	 cmp	 eax, DWORD PTR __Last_arg$[ebp]
  00012	74 16		 je	 SHORT $LN1@erase

; 1195 : 			{	// worth doing, copy down over hole
; 1196 :  #if _ITERATOR_DEBUG_LEVEL == 2
; 1197 : 			if (_Last < _First || _VICONT(_First) != this
; 1198 : 				|| _VIPTR(_First) < this->_Myfirst
; 1199 : 				|| this->_Mylast < _VIPTR(_Last))
; 1200 : 				_DEBUG_ERROR("vector erase iterator outside range");
; 1201 : 			pointer _Ptr = _Move(_VIPTR(_Last), this->_Mylast,
; 1202 : 				_VIPTR(_First));
; 1203 : 			_Orphan_range(_VIPTR(_First), this->_Mylast);
; 1204 : 
; 1205 :  #else /* _ITERATOR_DEBUG_LEVEL == 2 */
; 1206 : 			pointer _Ptr = _Move(_VIPTR(_Last), this->_Mylast,
; 1207 : 				_VIPTR(_First));

  00014	ff 75 10	 push	 DWORD PTR __Cat$534116[ebp]
  00017	8b 4e 04	 mov	 ecx, DWORD PTR [esi+4]
  0001a	50		 push	 eax
  0001b	51		 push	 ecx
  0001c	ff 75 10	 push	 DWORD PTR __Last_arg$[ebp]
  0001f	e8 00 00 00 00	 call	 ??$_Move@PAUSecondAttribute@@PAU1@@std@@YAPAUSecondAttribute@@PAU1@00U_Nonscalar_ptr_iterator_tag@0@@Z ; std::_Move<SecondAttribute *,SecondAttribute *>
  00024	83 c4 10	 add	 esp, 16			; 00000010H

; 1208 :  #endif /* _ITERATOR_DEBUG_LEVEL == 2 */
; 1209 : 
; 1210 : 			_Destroy(_Ptr, this->_Mylast);
; 1211 : 			this->_Mylast = _Ptr;

  00027	89 46 04	 mov	 DWORD PTR [esi+4], eax
$LN1@erase:

; 1212 : 			}
; 1213 : 		return (_First);

  0002a	8b c7		 mov	 eax, edi
  0002c	5f		 pop	 edi
  0002d	5e		 pop	 esi

; 1214 : 		}

  0002e	5d		 pop	 ebp
  0002f	c2 0c 00	 ret	 12			; 0000000cH
?erase@?$vector@USecondAttribute@@V?$allocator@USecondAttribute@@@std@@@std@@QAE?AV?$_Vector_iterator@V?$_Vector_val@USecondAttribute@@V?$allocator@USecondAttribute@@@std@@@std@@@2@V?$_Vector_const_iterator@V?$_Vector_val@USecondAttribute@@V?$allocator@USecondAttribute@@@std@@@std@@@2@0@Z ENDP ; std::vector<SecondAttribute,std::allocator<SecondAttribute> >::erase
_TEXT	ENDS
PUBLIC	?_Tidy@?$vector@USecondAttribute@@V?$allocator@USecondAttribute@@@std@@@std@@IAEXXZ ; std::vector<SecondAttribute,std::allocator<SecondAttribute> >::_Tidy
EXTRN	__imp_?_Orphan_all@_Container_base0@std@@QAEXXZ:PROC
; Function compile flags: /Ogsp
;	COMDAT ?_Tidy@?$vector@USecondAttribute@@V?$allocator@USecondAttribute@@@std@@@std@@IAEXXZ
_TEXT	SEGMENT
?_Tidy@?$vector@USecondAttribute@@V?$allocator@USecondAttribute@@@std@@@std@@IAEXXZ PROC ; std::vector<SecondAttribute,std::allocator<SecondAttribute> >::_Tidy, COMDAT
; _this$ = ecx

; 1301 : 		{	// free all storage

  00000	56		 push	 esi
  00001	8b f1		 mov	 esi, ecx

; 1302 : 		if (this->_Myfirst != 0)

  00003	83 3e 00	 cmp	 DWORD PTR [esi], 0
  00006	74 0e		 je	 SHORT $LN21@Tidy

; 1303 : 			{	// something to free, destroy and deallocate it
; 1304 : 			this->_Orphan_all();

  00008	ff 15 00 00 00
	00		 call	 DWORD PTR __imp_?_Orphan_all@_Container_base0@std@@QAEXXZ

; 1305 : 			_Destroy(this->_Myfirst, this->_Mylast);
; 1306 : 			this->_Alval.deallocate(this->_Myfirst,
; 1307 : 				this->_Myend - this->_Myfirst);

  0000e	ff 36		 push	 DWORD PTR [esi]
  00010	e8 00 00 00 00	 call	 ??3@YAXPAX@Z		; operator delete
  00015	59		 pop	 ecx
$LN21@Tidy:

; 1308 : 			}
; 1309 : 		this->_Myfirst = 0;

  00016	83 26 00	 and	 DWORD PTR [esi], 0

; 1310 : 		this->_Mylast = 0;

  00019	83 66 04 00	 and	 DWORD PTR [esi+4], 0

; 1311 : 		this->_Myend = 0;

  0001d	83 66 08 00	 and	 DWORD PTR [esi+8], 0
  00021	5e		 pop	 esi

; 1312 : 		}

  00022	c3		 ret	 0
?_Tidy@?$vector@USecondAttribute@@V?$allocator@USecondAttribute@@@std@@@std@@IAEXXZ ENDP ; std::vector<SecondAttribute,std::allocator<SecondAttribute> >::_Tidy
_TEXT	ENDS
PUBLIC	?reserve@?$vector@USecondAttribute@@V?$allocator@USecondAttribute@@@std@@@std@@QAEXI@Z ; std::vector<SecondAttribute,std::allocator<SecondAttribute> >::reserve
EXTRN	__EH_prolog3_catch:PROC
;	COMDAT xdata$x
; File c:\program files (x86)\microsoft visual studio 10.0\vc\include\xmemory
xdata$x	SEGMENT
__catchsym$?reserve@?$vector@USecondAttribute@@V?$allocator@USecondAttribute@@@std@@@std@@QAEXI@Z$2 DD 040H
	DD	00H
	DD	00H
	DD	FLAT:__catch$?reserve@?$vector@USecondAttribute@@V?$allocator@USecondAttribute@@@std@@@std@@QAEXI@Z$0
__unwindtable$?reserve@?$vector@USecondAttribute@@V?$allocator@USecondAttribute@@@std@@@std@@QAEXI@Z DD 0ffffffffH
	DD	00H
	DD	0ffffffffH
	DD	00H
__tryblocktable$?reserve@?$vector@USecondAttribute@@V?$allocator@USecondAttribute@@@std@@@std@@QAEXI@Z DD 00H
	DD	00H
	DD	01H
	DD	01H
	DD	FLAT:__catchsym$?reserve@?$vector@USecondAttribute@@V?$allocator@USecondAttribute@@@std@@@std@@QAEXI@Z$2
__ehfuncinfo$?reserve@?$vector@USecondAttribute@@V?$allocator@USecondAttribute@@@std@@@std@@QAEXI@Z DD 019930522H
	DD	02H
	DD	FLAT:__unwindtable$?reserve@?$vector@USecondAttribute@@V?$allocator@USecondAttribute@@@std@@@std@@QAEXI@Z
	DD	01H
	DD	FLAT:__tryblocktable$?reserve@?$vector@USecondAttribute@@V?$allocator@USecondAttribute@@@std@@@std@@QAEXI@Z
	DD	2 DUP(00H)
	DD	00H
	DD	01H
; Function compile flags: /Ogsp
; File c:\program files (x86)\microsoft visual studio 10.0\vc\include\vector
xdata$x	ENDS
;	COMDAT ?reserve@?$vector@USecondAttribute@@V?$allocator@USecondAttribute@@@std@@@std@@QAEXI@Z
_TEXT	SEGMENT
__Ptr$531461 = -20					; size = 4
__$EHRec$ = -16						; size = 16
__Count$ = 8						; size = 4
?reserve@?$vector@USecondAttribute@@V?$allocator@USecondAttribute@@@std@@@std@@QAEXI@Z PROC ; std::vector<SecondAttribute,std::allocator<SecondAttribute> >::reserve, COMDAT
; _this$ = ecx

; 746  : 		{	// determine new minimum length of allocated storage

  00000	6a 08		 push	 8
  00002	b8 00 00 00 00	 mov	 eax, __ehhandler$?reserve@?$vector@USecondAttribute@@V?$allocator@USecondAttribute@@@std@@@std@@QAEXI@Z
  00007	e8 00 00 00 00	 call	 __EH_prolog3_catch
  0000c	8b f1		 mov	 esi, ecx

; 747  : 		if (max_size() < _Count)

  0000e	81 7d 08 ff ff
	ff 1f		 cmp	 DWORD PTR __Count$[ebp], 536870911 ; 1fffffffH
  00015	76 0b		 jbe	 SHORT $LN5@reserve

; 748  : 			_Xlen();	// result too long

  00017	68 00 00 00 00	 push	 OFFSET ??_C@_0BD@OLBABOEK@vector?$DMT?$DO?5too?5long?$AA@
  0001c	ff 15 00 00 00
	00		 call	 DWORD PTR __imp_?_Xlength_error@std@@YAXPBD@Z
$LN56@reserve:
$LN5@reserve:

; 749  : 		else if (capacity() < _Count)

  00022	8b 46 08	 mov	 eax, DWORD PTR [esi+8]
  00025	2b 06		 sub	 eax, DWORD PTR [esi]
  00027	c1 f8 03	 sar	 eax, 3
  0002a	3b 45 08	 cmp	 eax, DWORD PTR __Count$[ebp]
  0002d	73 65		 jae	 SHORT $LN3@reserve

; 750  : 			{	// not enough room, reallocate
; 751  : 			pointer _Ptr = this->_Alval.allocate(_Count);

  0002f	6a 00		 push	 0
  00031	ff 75 08	 push	 DWORD PTR __Count$[ebp]
  00034	e8 00 00 00 00	 call	 ??$_Allocate@USecondAttribute@@@std@@YAPAUSecondAttribute@@IPAU1@@Z ; std::_Allocate<SecondAttribute>

; 752  : 
; 753  : 			_TRY_BEGIN
; 754  : 			_Umove(this->_Myfirst, this->_Mylast, _Ptr);

  00039	8b 0e		 mov	 ecx, DWORD PTR [esi]
  0003b	83 65 fc 00	 and	 DWORD PTR __$EHRec$[ebp+12], 0
  0003f	8b d8		 mov	 ebx, eax
  00041	8b 46 04	 mov	 eax, DWORD PTR [esi+4]
  00044	8d 56 0c	 lea	 edx, DWORD PTR [esi+12]
  00047	52		 push	 edx
  00048	53		 push	 ebx
  00049	50		 push	 eax
  0004a	51		 push	 ecx
  0004b	89 5d ec	 mov	 DWORD PTR __Ptr$531461[ebp], ebx
  0004e	e8 00 00 00 00	 call	 ??$_Uninitialized_move@PAUSecondAttribute@@PAU1@V?$allocator@USecondAttribute@@@std@@@std@@YAPAUSecondAttribute@@PAU1@00AAV?$allocator@USecondAttribute@@@0@@Z ; std::_Uninitialized_move<SecondAttribute *,SecondAttribute *,std::allocator<SecondAttribute> >

; 758  : 			_CATCH_END
; 759  : 
; 760  : 			size_type _Size = size();

  00053	8b 4e 04	 mov	 ecx, DWORD PTR [esi+4]
  00056	8b 06		 mov	 eax, DWORD PTR [esi]
  00058	83 4d fc ff	 or	 DWORD PTR __$EHRec$[ebp+12], -1
  0005c	8b f9		 mov	 edi, ecx
  0005e	2b f8		 sub	 edi, eax
  00060	83 c4 18	 add	 esp, 24			; 00000018H
  00063	c1 ff 03	 sar	 edi, 3
  00066	85 c0		 test	 eax, eax
  00068	74 11		 je	 SHORT $LN48@reserve

; 761  : 			if (this->_Myfirst != 0)

  0006a	eb 03		 jmp	 SHORT $LN55@reserve

; 762  : 				{	// destroy and deallocate old array
; 763  : 				_Destroy(this->_Myfirst, this->_Mylast);

$LL39@reserve:
  0006c	83 c0 08	 add	 eax, 8
$LN55@reserve:
  0006f	3b c1		 cmp	 eax, ecx
  00071	75 f9		 jne	 SHORT $LL39@reserve

; 764  : 				this->_Alval.deallocate(this->_Myfirst,
; 765  : 					this->_Myend - this->_Myfirst);

  00073	ff 36		 push	 DWORD PTR [esi]
  00075	e8 00 00 00 00	 call	 ??3@YAXPAX@Z		; operator delete
  0007a	59		 pop	 ecx
$LN48@reserve:

; 766  : 				}
; 767  : 
; 768  : 			this->_Orphan_all();

  0007b	8b ce		 mov	 ecx, esi
  0007d	ff 15 00 00 00
	00		 call	 DWORD PTR __imp_?_Orphan_all@_Container_base0@std@@QAEXXZ

; 769  : 			this->_Myend = _Ptr + _Count;

  00083	8b 45 08	 mov	 eax, DWORD PTR __Count$[ebp]
  00086	8d 04 c3	 lea	 eax, DWORD PTR [ebx+eax*8]
  00089	89 46 08	 mov	 DWORD PTR [esi+8], eax

; 770  : 			this->_Mylast = _Ptr + _Size;

  0008c	8d 04 fb	 lea	 eax, DWORD PTR [ebx+edi*8]
  0008f	89 46 04	 mov	 DWORD PTR [esi+4], eax

; 771  : 			this->_Myfirst = _Ptr;

  00092	89 1e		 mov	 DWORD PTR [esi], ebx
$LN3@reserve:

; 772  : 			}
; 773  : 		}

  00094	e8 00 00 00 00	 call	 __EH_epilog3
  00099	c2 04 00	 ret	 4
__catch$?reserve@?$vector@USecondAttribute@@V?$allocator@USecondAttribute@@@std@@@std@@QAEXI@Z$0:

; 755  : 			_CATCH_ALL
; 756  : 			this->_Alval.deallocate(_Ptr, _Count);

  0009c	ff 75 ec	 push	 DWORD PTR __Ptr$531461[ebp]
  0009f	e8 00 00 00 00	 call	 ??3@YAXPAX@Z		; operator delete
  000a4	59		 pop	 ecx

; 757  : 			_RERAISE;

  000a5	6a 00		 push	 0
  000a7	6a 00		 push	 0
  000a9	e8 00 00 00 00	 call	 __CxxThrowException@8
$LN57@reserve:
$LN54@reserve:
  000ae	cc		 int	 3
_TEXT	ENDS
;	COMDAT text$x
text$x	SEGMENT
__ehhandler$?reserve@?$vector@USecondAttribute@@V?$allocator@USecondAttribute@@@std@@@std@@QAEXI@Z:
  00000	8b 54 24 08	 mov	 edx, DWORD PTR [esp+8]
  00004	8d 42 0c	 lea	 eax, DWORD PTR [edx+12]
  00007	8b 4a e8	 mov	 ecx, DWORD PTR [edx-24]
  0000a	33 c8		 xor	 ecx, eax
  0000c	e8 00 00 00 00	 call	 @__security_check_cookie@4
  00011	b8 00 00 00 00	 mov	 eax, OFFSET __ehfuncinfo$?reserve@?$vector@USecondAttribute@@V?$allocator@USecondAttribute@@@std@@@std@@QAEXI@Z
  00016	e9 00 00 00 00	 jmp	 ___CxxFrameHandler3
text$x	ENDS
?reserve@?$vector@USecondAttribute@@V?$allocator@USecondAttribute@@@std@@@std@@QAEXI@Z ENDP ; std::vector<SecondAttribute,std::allocator<SecondAttribute> >::reserve
PUBLIC	??1?$vector@USecondAttribute@@V?$allocator@USecondAttribute@@@std@@@std@@QAE@XZ ; std::vector<SecondAttribute,std::allocator<SecondAttribute> >::~vector<SecondAttribute,std::allocator<SecondAttribute> >
; Function compile flags: /Ogsp
;	COMDAT ??1?$vector@USecondAttribute@@V?$allocator@USecondAttribute@@@std@@@std@@QAE@XZ
_TEXT	SEGMENT
??1?$vector@USecondAttribute@@V?$allocator@USecondAttribute@@@std@@@std@@QAE@XZ PROC ; std::vector<SecondAttribute,std::allocator<SecondAttribute> >::~vector<SecondAttribute,std::allocator<SecondAttribute> >, COMDAT
; _this$ = ecx

; 705  : 		_Tidy();

  00000	e9 00 00 00 00	 jmp	 ?_Tidy@?$vector@USecondAttribute@@V?$allocator@USecondAttribute@@@std@@@std@@IAEXXZ ; std::vector<SecondAttribute,std::allocator<SecondAttribute> >::_Tidy
??1?$vector@USecondAttribute@@V?$allocator@USecondAttribute@@@std@@@std@@QAE@XZ ENDP ; std::vector<SecondAttribute,std::allocator<SecondAttribute> >::~vector<SecondAttribute,std::allocator<SecondAttribute> >
_TEXT	ENDS
PUBLIC	?clear@?$vector@USecondAttribute@@V?$allocator@USecondAttribute@@@std@@@std@@QAEXXZ ; std::vector<SecondAttribute,std::allocator<SecondAttribute> >::clear
; Function compile flags: /Ogsp
;	COMDAT ?clear@?$vector@USecondAttribute@@V?$allocator@USecondAttribute@@@std@@@std@@QAEXXZ
_TEXT	SEGMENT
$T534422 = -4						; size = 4
?clear@?$vector@USecondAttribute@@V?$allocator@USecondAttribute@@@std@@@std@@QAEXXZ PROC ; std::vector<SecondAttribute,std::allocator<SecondAttribute> >::clear, COMDAT
; _this$ = ecx

; 1217 : 		{	// erase all

  00000	55		 push	 ebp
  00001	8b ec		 mov	 ebp, esp
  00003	51		 push	 ecx

; 1218 : 		erase(begin(), end());

  00004	8b 41 04	 mov	 eax, DWORD PTR [ecx+4]
  00007	8b 11		 mov	 edx, DWORD PTR [ecx]
  00009	50		 push	 eax
  0000a	52		 push	 edx
  0000b	8d 45 fc	 lea	 eax, DWORD PTR $T534422[ebp]
  0000e	50		 push	 eax
  0000f	e8 00 00 00 00	 call	 ?erase@?$vector@USecondAttribute@@V?$allocator@USecondAttribute@@@std@@@std@@QAE?AV?$_Vector_iterator@V?$_Vector_val@USecondAttribute@@V?$allocator@USecondAttribute@@@std@@@std@@@2@V?$_Vector_const_iterator@V?$_Vector_val@USecondAttribute@@V?$allocator@USecondAttribute@@@std@@@std@@@2@0@Z ; std::vector<SecondAttribute,std::allocator<SecondAttribute> >::erase

; 1219 : 		}

  00014	c9		 leave
  00015	c3		 ret	 0
?clear@?$vector@USecondAttribute@@V?$allocator@USecondAttribute@@@std@@@std@@QAEXXZ ENDP ; std::vector<SecondAttribute,std::allocator<SecondAttribute> >::clear
_TEXT	ENDS
PUBLIC	?_Reserve@?$vector@USecondAttribute@@V?$allocator@USecondAttribute@@@std@@@std@@IAEXI@Z ; std::vector<SecondAttribute,std::allocator<SecondAttribute> >::_Reserve
; Function compile flags: /Ogsp
;	COMDAT ?_Reserve@?$vector@USecondAttribute@@V?$allocator@USecondAttribute@@@std@@@std@@IAEXI@Z
_TEXT	SEGMENT
__Count$ = 8						; size = 4
?_Reserve@?$vector@USecondAttribute@@V?$allocator@USecondAttribute@@@std@@@std@@IAEXI@Z PROC ; std::vector<SecondAttribute,std::allocator<SecondAttribute> >::_Reserve, COMDAT
; _this$ = ecx

; 1290 : 		{	// ensure room for _Count new elements, grow exponentially

  00000	55		 push	 ebp
  00001	8b ec		 mov	 ebp, esp
  00003	56		 push	 esi
  00004	8b f1		 mov	 esi, ecx

; 1291 : 		size_type _Size = size();

  00006	8b 0e		 mov	 ecx, DWORD PTR [esi]
  00008	8b 46 04	 mov	 eax, DWORD PTR [esi+4]
  0000b	2b c1		 sub	 eax, ecx

; 1292 : 		if (max_size() - _Count < _Size)

  0000d	ba ff ff ff 1f	 mov	 edx, 536870911		; 1fffffffH
  00012	2b 55 08	 sub	 edx, DWORD PTR __Count$[ebp]
  00015	c1 f8 03	 sar	 eax, 3
  00018	3b d0		 cmp	 edx, eax
  0001a	73 0b		 jae	 SHORT $LN4@Reserve

; 1293 : 			_Xlen();

  0001c	68 00 00 00 00	 push	 OFFSET ??_C@_0BD@OLBABOEK@vector?$DMT?$DO?5too?5long?$AA@
  00021	ff 15 00 00 00
	00		 call	 DWORD PTR __imp_?_Xlength_error@std@@YAXPBD@Z
$LN21@Reserve:
$LN4@Reserve:

; 1294 : 		else if ((_Size += _Count) <= capacity())

  00027	8b 56 08	 mov	 edx, DWORD PTR [esi+8]
  0002a	03 45 08	 add	 eax, DWORD PTR __Count$[ebp]
  0002d	2b d1		 sub	 edx, ecx
  0002f	c1 fa 03	 sar	 edx, 3
  00032	3b c2		 cmp	 eax, edx
  00034	76 10		 jbe	 SHORT $LN1@Reserve

; 1295 : 			;
; 1296 : 		else
; 1297 : 			reserve(_Grow_to(_Size));

  00036	50		 push	 eax
  00037	8b ce		 mov	 ecx, esi
  00039	e8 00 00 00 00	 call	 ?_Grow_to@?$vector@USecondAttribute@@V?$allocator@USecondAttribute@@@std@@@std@@IBEII@Z ; std::vector<SecondAttribute,std::allocator<SecondAttribute> >::_Grow_to
  0003e	50		 push	 eax
  0003f	8b ce		 mov	 ecx, esi
  00041	e8 00 00 00 00	 call	 ?reserve@?$vector@USecondAttribute@@V?$allocator@USecondAttribute@@@std@@@std@@QAEXI@Z ; std::vector<SecondAttribute,std::allocator<SecondAttribute> >::reserve
$LN1@Reserve:
  00046	5e		 pop	 esi

; 1298 : 		}

  00047	5d		 pop	 ebp
  00048	c2 04 00	 ret	 4
$LN20@Reserve:
?_Reserve@?$vector@USecondAttribute@@V?$allocator@USecondAttribute@@@std@@@std@@IAEXI@Z ENDP ; std::vector<SecondAttribute,std::allocator<SecondAttribute> >::_Reserve
_TEXT	ENDS
PUBLIC	??_7ioArrowWeapon@@6B@				; ioArrowWeapon::`vftable'
PUBLIC	??0ioArrowWeapon@@QAE@PAVioBaseChar@@PBUWeaponAttribute@@@Z ; ioArrowWeapon::ioArrowWeapon
PUBLIC	??_R4ioArrowWeapon@@6B@				; ioArrowWeapon::`RTTI Complete Object Locator'
PUBLIC	??_R0?AVioArrowWeapon@@@8			; ioArrowWeapon `RTTI Type Descriptor'
PUBLIC	??_R3ioArrowWeapon@@8				; ioArrowWeapon::`RTTI Class Hierarchy Descriptor'
PUBLIC	??_R2ioArrowWeapon@@8				; ioArrowWeapon::`RTTI Base Class Array'
PUBLIC	??_R1A@?0A@EA@ioArrowWeapon@@8			; ioArrowWeapon::`RTTI Base Class Descriptor at (0,-1,0,64)'
PUBLIC	??_R1A@?0A@EA@ioWeapon@@8			; ioWeapon::`RTTI Base Class Descriptor at (0,-1,0,64)'
PUBLIC	??_R0?AVioWeapon@@@8				; ioWeapon `RTTI Type Descriptor'
PUBLIC	??_R3ioWeapon@@8				; ioWeapon::`RTTI Class Hierarchy Descriptor'
PUBLIC	??_R2ioWeapon@@8				; ioWeapon::`RTTI Base Class Array'
EXTRN	??1ioWeapon@@UAE@XZ:PROC			; ioWeapon::~ioWeapon
EXTRN	?SetPeculiarity@ioWeapon@@QAEXK@Z:PROC		; ioWeapon::SetPeculiarity
EXTRN	??0ioWeapon@@QAE@PAVioBaseChar@@PBUWeaponAttribute@@@Z:PROC ; ioWeapon::ioWeapon
EXTRN	?IsAlreadyCollisioned@ioWeapon@@UAE_NPAVioPlayEntity@@@Z:PROC ; ioWeapon::IsAlreadyCollisioned
EXTRN	?AddCollisionEntity@ioWeapon@@UAEXPAVioPlayEntity@@@Z:PROC ; ioWeapon::AddCollisionEntity
EXTRN	?SetOwnerDamageRate@ioWeapon@@UAEXM@Z:PROC	; ioWeapon::SetOwnerDamageRate
EXTRN	?SetOwnerChargeDamageRate@ioWeapon@@UAEXM@Z:PROC ; ioWeapon::SetOwnerChargeDamageRate
EXTRN	?SetOwnerChargeForceRate@ioWeapon@@UAEXM@Z:PROC	; ioWeapon::SetOwnerChargeForceRate
EXTRN	?SetOwnerChargeRangeRate@ioWeapon@@UAEXM@Z:PROC	; ioWeapon::SetOwnerChargeRangeRate
EXTRN	?SetOwnerChargeSpeedRate@ioWeapon@@UAEXM@Z:PROC	; ioWeapon::SetOwnerChargeSpeedRate
EXTRN	?SetOwnerChargeBlowRate@ioWeapon@@UAEXM@Z:PROC	; ioWeapon::SetOwnerChargeBlowRate
EXTRN	?SetOwnerChargeFloatRate@ioWeapon@@UAEXM@Z:PROC	; ioWeapon::SetOwnerChargeFloatRate
EXTRN	?SetOwnerChargeScaleRate@ioWeapon@@UAEXM@Z:PROC	; ioWeapon::SetOwnerChargeScaleRate
EXTRN	?SetOwnerChargeExplosionRate@ioWeapon@@UAEXM@Z:PROC ; ioWeapon::SetOwnerChargeExplosionRate
EXTRN	?SetOwnerChargeWoundedTimeRate@ioWeapon@@UAEXM@Z:PROC ; ioWeapon::SetOwnerChargeWoundedTimeRate
EXTRN	?SetOwnerChargeLiveTimeRate@ioWeapon@@UAEXM@Z:PROC ; ioWeapon::SetOwnerChargeLiveTimeRate
EXTRN	?SetOwnerChargeBuffLiveTimeRate@ioWeapon@@UAEXM@Z:PROC ; ioWeapon::SetOwnerChargeBuffLiveTimeRate
EXTRN	?SetWeaponIndex@ioWeapon@@UAEXK@Z:PROC		; ioWeapon::SetWeaponIndex
EXTRN	?SetGrapplingTargetName@ioWeapon@@UAEXABVioHashString@@@Z:PROC ; ioWeapon::SetGrapplingTargetName
EXTRN	?SetCreateItem@ioWeapon@@UAEXABVioHashString@@@Z:PROC ; ioWeapon::SetCreateItem
EXTRN	?SetTeam@ioWeapon@@UAEXPAVioPlayStage@@W4TeamType@@@Z:PROC ; ioWeapon::SetTeam
EXTRN	?CallReserveAreaWeapon@ioWeapon@@UAEXXZ:PROC	; ioWeapon::CallReserveAreaWeapon
EXTRN	?PlayExplosionSound@ioWeapon@@UAEXXZ:PROC	; ioWeapon::PlayExplosionSound
EXTRN	?PlayWoundedSound@ioWeapon@@UAEXPAVioPlayEntity@@@Z:PROC ; ioWeapon::PlayWoundedSound
EXTRN	?PlayDefensedSound@ioWeapon@@UAEXPAVioPlayEntity@@@Z:PROC ; ioWeapon::PlayDefensedSound
EXTRN	?PlayLoopSound@ioWeapon@@UAEXXZ:PROC		; ioWeapon::PlayLoopSound
EXTRN	?StopLoopSound@ioWeapon@@UAEXXZ:PROC		; ioWeapon::StopLoopSound
EXTRN	?GetTargetAirBuffList@ioWeapon@@UBEABV?$vector@UBuffInfoStruct@@V?$allocator@UBuffInfoStruct@@@std@@@std@@XZ:PROC ; ioWeapon::GetTargetAirBuffList
EXTRN	?GetTargetBuffList@ioWeapon@@UBEABV?$vector@UBuffInfoStruct@@V?$allocator@UBuffInfoStruct@@@std@@@std@@XZ:PROC ; ioWeapon::GetTargetBuffList
EXTRN	?GetTargetDownBuffList@ioWeapon@@UBEABV?$vector@UBuffInfoStruct@@V?$allocator@UBuffInfoStruct@@@std@@@std@@XZ:PROC ; ioWeapon::GetTargetDownBuffList
EXTRN	?GetPosition@ioWeapon@@UBEABUD3DXVECTOR3@@XZ:PROC ; ioWeapon::GetPosition
EXTRN	?GetBlowType@ioWeapon@@UBE?AW4BlowTargetType@@XZ:PROC ; ioWeapon::GetBlowType
EXTRN	?GetPushPower@ioWeapon@@UBEMM@Z:PROC		; ioWeapon::GetPushPower
EXTRN	?GetBlowPower@ioWeapon@@UBEMM@Z:PROC		; ioWeapon::GetBlowPower
EXTRN	?GetAirPushPower@ioWeapon@@UBEMM@Z:PROC		; ioWeapon::GetAirPushPower
EXTRN	?GetAirBlowPower@ioWeapon@@UBEMM@Z:PROC		; ioWeapon::GetAirBlowPower
EXTRN	?GetDefensePushPower@ioWeapon@@UBEMM@Z:PROC	; ioWeapon::GetDefensePushPower
EXTRN	?GetCollisionEnableTime@ioWeapon@@UBEKXZ:PROC	; ioWeapon::GetCollisionEnableTime
EXTRN	?SetSylphid@ioWeapon@@UAEHXZ:PROC		; ioWeapon::SetSylphid
EXTRN	?ApplyExtraReserveWeaponByWeaponInfo@ioWeapon@@UAEXPAV1@@Z:PROC ; ioWeapon::ApplyExtraReserveWeaponByWeaponInfo
EXTRN	?SetResistanceAttr@ioWeapon@@UAEXH@Z:PROC	; ioWeapon::SetResistanceAttr
EXTRN	?SetStartCollisionBox@ioWeapon@@UAEXXZ:PROC	; ioWeapon::SetStartCollisionBox
EXTRN	?SetLiveTime@ioWeapon@@UAEXK@Z:PROC		; ioWeapon::SetLiveTime
EXTRN	?SetMoveSpeed@ioWeapon@@UAEXM@Z:PROC		; ioWeapon::SetMoveSpeed
EXTRN	?SetFloatPower@ioWeapon@@UAEXM@Z:PROC		; ioWeapon::SetFloatPower
EXTRN	?TestMapCollision@ioWeapon@@UAE_NPAVioOpcodeShape@@PAVioPlayStage@@PBUD3DXMATRIX@@@Z:PROC ; ioWeapon::TestMapCollision
EXTRN	?CheckPreCollision@ioWeapon@@UAEXPAVioPlayEntity@@PAVioPlayStage@@@Z:PROC ; ioWeapon::CheckPreCollision
EXTRN	?CheckStructAndDummy@ioWeapon@@UAEXPAVioPlayEntity@@PAVioPlayStage@@@Z:PROC ; ioWeapon::CheckStructAndDummy
EXTRN	?GetDamage@ioWeapon@@UAEMPAVioPlayEntity@@@Z:PROC ; ioWeapon::GetDamage
EXTRN	?GetBaseDamage@ioWeapon@@UAEMPAVioPlayEntity@@@Z:PROC ; ioWeapon::GetBaseDamage
EXTRN	?GetPushAngle@ioWeapon@@UBEMXZ:PROC		; ioWeapon::GetPushAngle
EXTRN	?IsResistanceMagic@ioWeapon@@UAEHPAVioBaseChar@@@Z:PROC ; ioWeapon::IsResistanceMagic
EXTRN	?IsResistanceBomb@ioWeapon@@UAEHPAVioBaseChar@@@Z:PROC ; ioWeapon::IsResistanceBomb
EXTRN	?IsCanMineExplosion@ioWeapon@@UAE_NXZ:PROC	; ioWeapon::IsCanMineExplosion
EXTRN	?CheckGrapplingState@ioWeapon@@UAE?AW4GrapplingType@@XZ:PROC ; ioWeapon::CheckGrapplingState
EXTRN	?CheckItemNotDrop@ioWeapon@@UAE_NPAVioBaseChar@@@Z:PROC ; ioWeapon::CheckItemNotDrop
EXTRN	?GetWorldAttackBoxList@ioWeapon@@UAEXAAV?$vector@VioOrientBox@@V?$allocator@VioOrientBox@@@std@@@std@@@Z:PROC ; ioWeapon::GetWorldAttackBoxList
EXTRN	?GetLiveTime@ioWeapon@@UAEKXZ:PROC		; ioWeapon::GetLiveTime
EXTRN	?GetMoveDir@ioWeapon@@UAE?AUD3DXVECTOR3@@XZ:PROC ; ioWeapon::GetMoveDir
EXTRN	?CheckWeaponCollision@ioWeapon@@UAEXXZ:PROC	; ioWeapon::CheckWeaponCollision
EXTRN	?GetRefreshDuration@ioWeapon@@UAEKXZ:PROC	; ioWeapon::GetRefreshDuration
EXTRN	?GetIgnoreDuration@ioWeapon@@UAEKXZ:PROC	; ioWeapon::GetIgnoreDuration
EXTRN	?GetIgnoreTimeTypeDuration@ioWeapon@@UAEKXZ:PROC ; ioWeapon::GetIgnoreTimeTypeDuration
EXTRN	?GetIgnoreTimeType@ioWeapon@@UAEKXZ:PROC	; ioWeapon::GetIgnoreTimeType
EXTRN	?IsSkillDependency@ioWeapon@@UAE_NABVioHashString@@@Z:PROC ; ioWeapon::IsSkillDependency
EXTRN	?SetSkillDependencyAction@ioWeapon@@UAEXXZ:PROC	; ioWeapon::SetSkillDependencyAction
EXTRN	?CalcFinalDamage@ioWeapon@@MAEMXZ:PROC		; ioWeapon::CalcFinalDamage
EXTRN	?CalcFinalBoundDamage@ioWeapon@@MAEMXZ:PROC	; ioWeapon::CalcFinalBoundDamage
EXTRN	?CheckPiercing@ioWeapon@@MAE_N_N@Z:PROC		; ioWeapon::CheckPiercing
EXTRN	?ClearCollisionList@ioWeapon@@MAEXXZ:PROC	; ioWeapon::ClearCollisionList
EXTRN	?CheckCreateWeaponList@ioWeapon@@MAEXXZ:PROC	; ioWeapon::CheckCreateWeaponList
EXTRN	?CreateCollisionAreaWeapon@ioWeapon@@MAEXXZ:PROC ; ioWeapon::CreateCollisionAreaWeapon
EXTRN	?SetMapCollision@ioWeapon@@UAEXXZ:PROC		; ioWeapon::SetMapCollision
EXTRN	?IsIgnoreMapCollision@ioWeapon@@UBE_NXZ:PROC	; ioWeapon::IsIgnoreMapCollision
EXTRN	?IsIgnoreTestMapCollision@ioWeapon@@UBE_NXZ:PROC ; ioWeapon::IsIgnoreTestMapCollision
EXTRN	?IsIgnoreMapCollisionEffect@ioWeapon@@UBE_NXZ:PROC ; ioWeapon::IsIgnoreMapCollisionEffect
EXTRN	?AddEffectEvent@ioWeapon@@MAEXPAVioEffect@@@Z:PROC ; ioWeapon::AddEffectEvent
EXTRN	??_EioArrowWeapon@@UAEPAXI@Z:PROC		; ioArrowWeapon::`vector deleting destructor'
;	COMDAT ??_R2ioWeapon@@8
; File c:\program files (x86)\microsoft visual studio 10.0\vc\include\xmemory
rdata$r	SEGMENT
??_R2ioWeapon@@8 DD FLAT:??_R1A@?0A@EA@ioWeapon@@8	; ioWeapon::`RTTI Base Class Array'
rdata$r	ENDS
;	COMDAT ??_R3ioWeapon@@8
rdata$r	SEGMENT
??_R3ioWeapon@@8 DD 00H					; ioWeapon::`RTTI Class Hierarchy Descriptor'
	DD	00H
	DD	01H
	DD	FLAT:??_R2ioWeapon@@8
rdata$r	ENDS
;	COMDAT ??_R0?AVioWeapon@@@8
_DATA	SEGMENT
??_R0?AVioWeapon@@@8 DD FLAT:??_7type_info@@6B@		; ioWeapon `RTTI Type Descriptor'
	DD	00H
	DB	'.?AVioWeapon@@', 00H
_DATA	ENDS
;	COMDAT ??_R1A@?0A@EA@ioWeapon@@8
rdata$r	SEGMENT
??_R1A@?0A@EA@ioWeapon@@8 DD FLAT:??_R0?AVioWeapon@@@8	; ioWeapon::`RTTI Base Class Descriptor at (0,-1,0,64)'
	DD	00H
	DD	00H
	DD	0ffffffffH
	DD	00H
	DD	040H
	DD	FLAT:??_R3ioWeapon@@8
rdata$r	ENDS
;	COMDAT ??_R1A@?0A@EA@ioArrowWeapon@@8
rdata$r	SEGMENT
??_R1A@?0A@EA@ioArrowWeapon@@8 DD FLAT:??_R0?AVioArrowWeapon@@@8 ; ioArrowWeapon::`RTTI Base Class Descriptor at (0,-1,0,64)'
	DD	01H
	DD	00H
	DD	0ffffffffH
	DD	00H
	DD	040H
	DD	FLAT:??_R3ioArrowWeapon@@8
rdata$r	ENDS
;	COMDAT ??_R2ioArrowWeapon@@8
rdata$r	SEGMENT
??_R2ioArrowWeapon@@8 DD FLAT:??_R1A@?0A@EA@ioArrowWeapon@@8 ; ioArrowWeapon::`RTTI Base Class Array'
	DD	FLAT:??_R1A@?0A@EA@ioWeapon@@8
rdata$r	ENDS
;	COMDAT ??_R3ioArrowWeapon@@8
rdata$r	SEGMENT
??_R3ioArrowWeapon@@8 DD 00H				; ioArrowWeapon::`RTTI Class Hierarchy Descriptor'
	DD	00H
	DD	02H
	DD	FLAT:??_R2ioArrowWeapon@@8
rdata$r	ENDS
;	COMDAT ??_R0?AVioArrowWeapon@@@8
_DATA	SEGMENT
??_R0?AVioArrowWeapon@@@8 DD FLAT:??_7type_info@@6B@	; ioArrowWeapon `RTTI Type Descriptor'
	DD	00H
	DB	'.?AVioArrowWeapon@@', 00H
_DATA	ENDS
;	COMDAT ??_R4ioArrowWeapon@@6B@
rdata$r	SEGMENT
??_R4ioArrowWeapon@@6B@ DD 00H				; ioArrowWeapon::`RTTI Complete Object Locator'
	DD	00H
	DD	00H
	DD	FLAT:??_R0?AVioArrowWeapon@@@8
	DD	FLAT:??_R3ioArrowWeapon@@8
rdata$r	ENDS
;	COMDAT ??_7ioArrowWeapon@@6B@
CONST	SEGMENT
??_7ioArrowWeapon@@6B@ DD FLAT:??_R4ioArrowWeapon@@6B@	; ioArrowWeapon::`vftable'
	DD	FLAT:?IsAlreadyCollisioned@ioWeapon@@UAE_NPAVioPlayEntity@@@Z
	DD	FLAT:?AddCollisionEntity@ioWeapon@@UAEXPAVioPlayEntity@@@Z
	DD	FLAT:?SetOwnerDamageRate@ioWeapon@@UAEXM@Z
	DD	FLAT:?SetOwnerChargeDamageRate@ioWeapon@@UAEXM@Z
	DD	FLAT:?SetOwnerChargeForceRate@ioWeapon@@UAEXM@Z
	DD	FLAT:?SetOwnerChargeRangeRate@ioWeapon@@UAEXM@Z
	DD	FLAT:?SetOwnerChargeSpeedRate@ioWeapon@@UAEXM@Z
	DD	FLAT:?SetOwnerChargeBlowRate@ioWeapon@@UAEXM@Z
	DD	FLAT:?SetOwnerChargeFloatRate@ioWeapon@@UAEXM@Z
	DD	FLAT:?SetOwnerChargeScaleRate@ioWeapon@@UAEXM@Z
	DD	FLAT:?SetOwnerChargeExplosionRate@ioWeapon@@UAEXM@Z
	DD	FLAT:?SetOwnerChargeWoundedTimeRate@ioWeapon@@UAEXM@Z
	DD	FLAT:?SetOwnerChargeLiveTimeRate@ioWeapon@@UAEXM@Z
	DD	FLAT:?SetOwnerChargeBuffLiveTimeRate@ioWeapon@@UAEXM@Z
	DD	FLAT:?SetWeaponIndex@ioWeapon@@UAEXK@Z
	DD	FLAT:?SetGrapplingTargetName@ioWeapon@@UAEXABVioHashString@@@Z
	DD	FLAT:?SetCreateItem@ioWeapon@@UAEXABVioHashString@@@Z
	DD	FLAT:?SetTeam@ioWeapon@@UAEXPAVioPlayStage@@W4TeamType@@@Z
	DD	FLAT:?CallReserveAreaWeapon@ioWeapon@@UAEXXZ
	DD	FLAT:?SetWeaponDead@ioArrowWeapon@@UAEXXZ
	DD	FLAT:?PlayExplosionSound@ioWeapon@@UAEXXZ
	DD	FLAT:?PlayWoundedSound@ioWeapon@@UAEXPAVioPlayEntity@@@Z
	DD	FLAT:?PlayDefensedSound@ioWeapon@@UAEXPAVioPlayEntity@@@Z
	DD	FLAT:?PlayLoopSound@ioWeapon@@UAEXXZ
	DD	FLAT:?StopLoopSound@ioWeapon@@UAEXXZ
	DD	FLAT:?GetTargetAirBuffList@ioWeapon@@UBEABV?$vector@UBuffInfoStruct@@V?$allocator@UBuffInfoStruct@@@std@@@std@@XZ
	DD	FLAT:?GetTargetBuffList@ioWeapon@@UBEABV?$vector@UBuffInfoStruct@@V?$allocator@UBuffInfoStruct@@@std@@@std@@XZ
	DD	FLAT:?GetTargetDownBuffList@ioWeapon@@UBEABV?$vector@UBuffInfoStruct@@V?$allocator@UBuffInfoStruct@@@std@@@std@@XZ
	DD	FLAT:?GetPosition@ioWeapon@@UBEABUD3DXVECTOR3@@XZ
	DD	FLAT:?GetBlowType@ioWeapon@@UBE?AW4BlowTargetType@@XZ
	DD	FLAT:?GetPushPower@ioWeapon@@UBEMM@Z
	DD	FLAT:?GetBlowPower@ioWeapon@@UBEMM@Z
	DD	FLAT:?GetAirPushPower@ioWeapon@@UBEMM@Z
	DD	FLAT:?GetAirBlowPower@ioWeapon@@UBEMM@Z
	DD	FLAT:?GetDefensePushPower@ioWeapon@@UBEMM@Z
	DD	FLAT:?GetCollisionEnableTime@ioWeapon@@UBEKXZ
	DD	FLAT:?SetSylphid@ioWeapon@@UAEHXZ
	DD	FLAT:?ApplyExtraReserveWeaponByWeaponInfo@ioWeapon@@UAEXPAV1@@Z
	DD	FLAT:?InitResource@ioArrowWeapon@@UAE_NXZ
	DD	FLAT:?DestroyResource@ioArrowWeapon@@UAEXPAVioPlayStage@@@Z
	DD	FLAT:?LoadProperty@ioArrowWeapon@@UAEXAAVioINILoader@@@Z
	DD	FLAT:?SetResistanceAttr@ioWeapon@@UAEXH@Z
	DD	FLAT:?SetStartCollisionBox@ioWeapon@@UAEXXZ
	DD	FLAT:?SetLiveTime@ioWeapon@@UAEXK@Z
	DD	FLAT:?SetMoveDir@ioArrowWeapon@@UAEXABUD3DXVECTOR3@@@Z
	DD	FLAT:?SetMoveSpeed@ioWeapon@@UAEXM@Z
	DD	FLAT:?SetFloatPower@ioWeapon@@UAEXM@Z
	DD	FLAT:?SetStartPosition@ioArrowWeapon@@UAEXABUD3DXVECTOR3@@PAVioPlayStage@@@Z
	DD	FLAT:?Process@ioArrowWeapon@@UAEXMPAVioPlayStage@@@Z
	DD	FLAT:?IsCollision@ioArrowWeapon@@UAE_NPAVioPlayEntity@@_N@Z
	DD	FLAT:?TestMapCollision@ioWeapon@@UAE_NPAVioOpcodeShape@@PAVioPlayStage@@PBUD3DXMATRIX@@@Z
	DD	FLAT:?CheckPreCollision@ioWeapon@@UAEXPAVioPlayEntity@@PAVioPlayStage@@@Z
	DD	FLAT:?CheckStructAndDummy@ioWeapon@@UAEXPAVioPlayEntity@@PAVioPlayStage@@@Z
	DD	FLAT:?GetDamage@ioWeapon@@UAEMPAVioPlayEntity@@@Z
	DD	FLAT:?GetBaseDamage@ioWeapon@@UAEMPAVioPlayEntity@@@Z
	DD	FLAT:?GetPushAngle@ioWeapon@@UBEMXZ
	DD	FLAT:?IsResistanceMagic@ioWeapon@@UAEHPAVioBaseChar@@@Z
	DD	FLAT:?IsResistanceBomb@ioWeapon@@UAEHPAVioBaseChar@@@Z
	DD	FLAT:?IsCanMineExplosion@ioWeapon@@UAE_NXZ
	DD	FLAT:?CheckGrapplingState@ioWeapon@@UAE?AW4GrapplingType@@XZ
	DD	FLAT:?CheckCurAttribute@ioArrowWeapon@@UAEXPBVioPlayEntity@@@Z
	DD	FLAT:?CheckItemNotDrop@ioWeapon@@UAE_NPAVioBaseChar@@@Z
	DD	FLAT:?GetWorldAttackBoxList@ioWeapon@@UAEXAAV?$vector@VioOrientBox@@V?$allocator@VioOrientBox@@@std@@@std@@@Z
	DD	FLAT:?GetAttackDir@ioArrowWeapon@@UBE?AUD3DXVECTOR3@@PBVioPlayEntity@@@Z
	DD	FLAT:?GetLocalAttackBox@ioArrowWeapon@@UBEABVioOrientBox@@XZ
	DD	FLAT:?GetLiveTime@ioWeapon@@UAEKXZ
	DD	FLAT:?GetMoveDir@ioWeapon@@UAE?AUD3DXVECTOR3@@XZ
	DD	FLAT:?CheckWeaponCollision@ioWeapon@@UAEXXZ
	DD	FLAT:?GetType@ioArrowWeapon@@UBE?AW4WeaponType@ioWeapon@@XZ
	DD	FLAT:?GetActionStopType@ioArrowWeapon@@UBE?AW4ActionStopType@@XZ
	DD	FLAT:?GetDieActionStopType@ioArrowWeapon@@UBE?AW4ActionStopType@@XZ
	DD	FLAT:?GetRefreshDuration@ioWeapon@@UAEKXZ
	DD	FLAT:?GetIgnoreDuration@ioWeapon@@UAEKXZ
	DD	FLAT:?GetIgnoreTimeTypeDuration@ioWeapon@@UAEKXZ
	DD	FLAT:?GetIgnoreTimeType@ioWeapon@@UAEKXZ
	DD	FLAT:?ApplyWeaponSync@ioArrowWeapon@@UAEXAAVSP2Packet@@PAVioPlayStage@@@Z
	DD	FLAT:?IsSkillDependency@ioWeapon@@UAE_NABVioHashString@@@Z
	DD	FLAT:?SetSkillDependencyAction@ioWeapon@@UAEXXZ
	DD	FLAT:?UpdateWorldAttackBox@ioArrowWeapon@@MAEXM_N@Z
	DD	FLAT:?GetAttribute@ioArrowWeapon@@MBEPBUWeaponAttribute@@XZ
	DD	FLAT:?CalcFinalDamage@ioWeapon@@MAEMXZ
	DD	FLAT:?CalcFinalBoundDamage@ioWeapon@@MAEMXZ
	DD	FLAT:?CheckPiercing@ioWeapon@@MAE_N_N@Z
	DD	FLAT:?ClearCollisionList@ioWeapon@@MAEXXZ
	DD	FLAT:?CheckCreateWeaponList@ioWeapon@@MAEXXZ
	DD	FLAT:?CreateCollisionAreaWeapon@ioWeapon@@MAEXXZ
	DD	FLAT:?SetMapCollision@ioWeapon@@UAEXXZ
	DD	FLAT:?IsIgnoreMapCollision@ioWeapon@@UBE_NXZ
	DD	FLAT:?IsIgnoreTestMapCollision@ioWeapon@@UBE_NXZ
	DD	FLAT:?IsIgnoreMapCollisionEffect@ioWeapon@@UBE_NXZ
	DD	FLAT:?AddEffectEvent@ioWeapon@@MAEXPAVioEffect@@@Z
	DD	FLAT:??_EioArrowWeapon@@UAEPAXI@Z
CONST	ENDS
;	COMDAT xdata$x
xdata$x	SEGMENT
__unwindtable$??0ioArrowWeapon@@QAE@PAVioBaseChar@@PBUWeaponAttribute@@@Z DD 0ffffffffH
	DD	FLAT:__unwindfunclet$??0ioArrowWeapon@@QAE@PAVioBaseChar@@PBUWeaponAttribute@@@Z$0
	DD	00H
	DD	FLAT:__unwindfunclet$??0ioArrowWeapon@@QAE@PAVioBaseChar@@PBUWeaponAttribute@@@Z$1
	DD	01H
	DD	FLAT:__unwindfunclet$??0ioArrowWeapon@@QAE@PAVioBaseChar@@PBUWeaponAttribute@@@Z$2
__ehfuncinfo$??0ioArrowWeapon@@QAE@PAVioBaseChar@@PBUWeaponAttribute@@@Z DD 019930522H
	DD	03H
	DD	FLAT:__unwindtable$??0ioArrowWeapon@@QAE@PAVioBaseChar@@PBUWeaponAttribute@@@Z
	DD	2 DUP(00H)
	DD	2 DUP(00H)
	DD	00H
	DD	01H
; Function compile flags: /Ogsp
; File d:\lost saga for developer\youtube\tutorial\source\src\lsclient\ioarrowweapon.cpp
xdata$x	ENDS
;	COMDAT ??0ioArrowWeapon@@QAE@PAVioBaseChar@@PBUWeaponAttribute@@@Z
_TEXT	SEGMENT
_this$ = -16						; size = 4
__$EHRec$ = -12						; size = 12
_pOwner$ = 8						; size = 4
_pAttr$ = 12						; size = 4
??0ioArrowWeapon@@QAE@PAVioBaseChar@@PBUWeaponAttribute@@@Z PROC ; ioArrowWeapon::ioArrowWeapon, COMDAT
; _this$ = ecx

; 15   : {

  00000	6a 04		 push	 4
  00002	b8 00 00 00 00	 mov	 eax, __ehhandler$??0ioArrowWeapon@@QAE@PAVioBaseChar@@PBUWeaponAttribute@@@Z
  00007	e8 00 00 00 00	 call	 __EH_prolog3
  0000c	8b f1		 mov	 esi, ecx
  0000e	89 75 f0	 mov	 DWORD PTR _this$[ebp], esi
  00011	ff 75 0c	 push	 DWORD PTR _pAttr$[ebp]
  00014	ff 75 08	 push	 DWORD PTR _pOwner$[ebp]
  00017	e8 00 00 00 00	 call	 ??0ioWeapon@@QAE@PAVioBaseChar@@PBUWeaponAttribute@@@Z ; ioWeapon::ioWeapon
  0001c	33 db		 xor	 ebx, ebx
  0001e	c7 06 00 00 00
	00		 mov	 DWORD PTR [esi], OFFSET ??_7ioArrowWeapon@@6B@
  00024	89 5d fc	 mov	 DWORD PTR __$EHRec$[ebp+8], ebx
  00027	89 9e c0 08 00
	00		 mov	 DWORD PTR [esi+2240], ebx
  0002d	89 9e c4 08 00
	00		 mov	 DWORD PTR [esi+2244], ebx
  00033	89 9e c8 08 00
	00		 mov	 DWORD PTR [esi+2248], ebx
  00039	8d 8e d0 08 00
	00		 lea	 ecx, DWORD PTR [esi+2256]
  0003f	c6 45 fc 01	 mov	 BYTE PTR __$EHRec$[ebp+8], 1
  00043	e8 00 00 00 00	 call	 ??0?$CEncrypt@_N@@QAE@XZ ; CEncrypt<bool>::CEncrypt<bool>

; 16   : 	SetPeculiarity( WP_ONE_TIME_USE | WP_MISSILE_WEAPON | WP_DIVIDE_ACTION );

  00048	68 03 01 00 00	 push	 259			; 00000103H
  0004d	8b ce		 mov	 ecx, esi
  0004f	c6 45 fc 02	 mov	 BYTE PTR __$EHRec$[ebp+8], 2
  00053	e8 00 00 00 00	 call	 ?SetPeculiarity@ioWeapon@@QAEXK@Z ; ioWeapon::SetPeculiarity

; 17   : 
; 18   : 	m_pFireBall = NULL;
; 19   : 	m_fCurMoveRange = 0.0f;

  00058	0f 57 c0	 xorps	 xmm0, xmm0
  0005b	89 9e 94 08 00
	00		 mov	 DWORD PTR [esi+2196], ebx
  00061	f3 0f 11 86 b0
	08 00 00	 movss	 DWORD PTR [esi+2224], xmm0

; 20   : 
; 21   : 	m_fCurMoveRate = 0.0f;

  00069	f3 0f 11 86 b4
	08 00 00	 movss	 DWORD PTR [esi+2228], xmm0

; 22   : 	
; 23   : 	m_bSetGraceClose = false;

  00071	66 c7 86 b8 08
	00 00 00 01	 mov	 WORD PTR [esi+2232], 256 ; 00000100H

; 24   : 	m_bFirst = true;
; 25   : 
; 26   : 	m_pSecondAttr = NULL;

  0007a	89 9e bc 08 00
	00		 mov	 DWORD PTR [esi+2236], ebx

; 27   : 	m_dwAreaWeaponIndex = 0;

  00080	89 9e 04 09 00
	00		 mov	 DWORD PTR [esi+2308], ebx

; 28   : 
; 29   : 	// 2014.07.08
; 30   : 	m_OrientationState = OS_NONE;

  00086	89 9e 0c 09 00
	00		 mov	 DWORD PTR [esi+2316], ebx

; 31   : }

  0008c	8b c6		 mov	 eax, esi
  0008e	e8 00 00 00 00	 call	 __EH_epilog3
  00093	c2 08 00	 ret	 8
_TEXT	ENDS
;	COMDAT text$x
text$x	SEGMENT
__unwindfunclet$??0ioArrowWeapon@@QAE@PAVioBaseChar@@PBUWeaponAttribute@@@Z$0:
  00000	8b 4d f0	 mov	 ecx, DWORD PTR _this$[ebp]
  00003	e9 00 00 00 00	 jmp	 ??1ioWeapon@@UAE@XZ	; ioWeapon::~ioWeapon
__unwindfunclet$??0ioArrowWeapon@@QAE@PAVioBaseChar@@PBUWeaponAttribute@@@Z$1:
  00008	8b 4d f0	 mov	 ecx, DWORD PTR _this$[ebp]
  0000b	81 c1 c0 08 00
	00		 add	 ecx, 2240		; 000008c0H
  00011	e9 00 00 00 00	 jmp	 ??1?$vector@USecondAttribute@@V?$allocator@USecondAttribute@@@std@@@std@@QAE@XZ ; std::vector<SecondAttribute,std::allocator<SecondAttribute> >::~vector<SecondAttribute,std::allocator<SecondAttribute> >
__unwindfunclet$??0ioArrowWeapon@@QAE@PAVioBaseChar@@PBUWeaponAttribute@@@Z$2:
  00016	8b 4d f0	 mov	 ecx, DWORD PTR _this$[ebp]
  00019	81 c1 d0 08 00
	00		 add	 ecx, 2256		; 000008d0H
  0001f	e9 00 00 00 00	 jmp	 ??1?$CEncrypt@_N@@UAE@XZ ; CEncrypt<bool>::~CEncrypt<bool>
__ehhandler$??0ioArrowWeapon@@QAE@PAVioBaseChar@@PBUWeaponAttribute@@@Z:
  00024	8b 54 24 08	 mov	 edx, DWORD PTR [esp+8]
  00028	8d 42 0c	 lea	 eax, DWORD PTR [edx+12]
  0002b	8b 4a ec	 mov	 ecx, DWORD PTR [edx-20]
  0002e	33 c8		 xor	 ecx, eax
  00030	e8 00 00 00 00	 call	 @__security_check_cookie@4
  00035	b8 00 00 00 00	 mov	 eax, OFFSET __ehfuncinfo$??0ioArrowWeapon@@QAE@PAVioBaseChar@@PBUWeaponAttribute@@@Z
  0003a	e9 00 00 00 00	 jmp	 ___CxxFrameHandler3
text$x	ENDS
??0ioArrowWeapon@@QAE@PAVioBaseChar@@PBUWeaponAttribute@@@Z ENDP ; ioArrowWeapon::ioArrowWeapon
PUBLIC	??_C@_0DF@GFKAOBPA@ioArrowWeapon?3?3?$HOioMissileWeapon?5@ ; `string'
PUBLIC	??1ioArrowWeapon@@UAE@XZ			; ioArrowWeapon::~ioArrowWeapon
;	COMDAT ??_C@_0DF@GFKAOBPA@ioArrowWeapon?3?3?$HOioMissileWeapon?5@
; File c:\program files (x86)\microsoft visual studio 10.0\vc\include\vector
CONST	SEGMENT
??_C@_0DF@GFKAOBPA@ioArrowWeapon?3?3?$HOioMissileWeapon?5@ DB 'ioArrowWea'
	DB	'pon::~ioMissileWeapon - UnReleased Resouce', 00H ; `string'
CONST	ENDS
;	COMDAT xdata$x
xdata$x	SEGMENT
__unwindtable$??1ioArrowWeapon@@UAE@XZ DD 0ffffffffH
	DD	FLAT:__unwindfunclet$??1ioArrowWeapon@@UAE@XZ$0
	DD	00H
	DD	FLAT:__unwindfunclet$??1ioArrowWeapon@@UAE@XZ$1
	DD	01H
	DD	FLAT:__unwindfunclet$??1ioArrowWeapon@@UAE@XZ$2
__ehfuncinfo$??1ioArrowWeapon@@UAE@XZ DD 019930522H
	DD	03H
	DD	FLAT:__unwindtable$??1ioArrowWeapon@@UAE@XZ
	DD	2 DUP(00H)
	DD	2 DUP(00H)
	DD	00H
	DD	01H
; Function compile flags: /Ogsp
; File d:\lost saga for developer\youtube\tutorial\source\src\lsclient\ioarrowweapon.cpp
xdata$x	ENDS
;	COMDAT ??1ioArrowWeapon@@UAE@XZ
_TEXT	SEGMENT
$T534611 = -20						; size = 4
_this$ = -16						; size = 4
__$EHRec$ = -12						; size = 12
??1ioArrowWeapon@@UAE@XZ PROC				; ioArrowWeapon::~ioArrowWeapon, COMDAT
; _this$ = ecx

; 34   : {

  00000	6a 08		 push	 8
  00002	b8 00 00 00 00	 mov	 eax, __ehhandler$??1ioArrowWeapon@@UAE@XZ
  00007	e8 00 00 00 00	 call	 __EH_prolog3
  0000c	8b f9		 mov	 edi, ecx
  0000e	89 7d f0	 mov	 DWORD PTR _this$[ebp], edi
  00011	c7 07 00 00 00
	00		 mov	 DWORD PTR [edi], OFFSET ??_7ioArrowWeapon@@6B@

; 35   : 	if( m_pFireBall )

  00017	83 bf 94 08 00
	00 00		 cmp	 DWORD PTR [edi+2196], 0
  0001e	c7 45 fc 02 00
	00 00		 mov	 DWORD PTR __$EHRec$[ebp+8], 2
  00025	74 16		 je	 SHORT $LN1@ioArrowWea

; 36   : 	{
; 37   : 		LOG.PrintTimeAndLog( 0, "ioArrowWeapon::~ioMissileWeapon - UnReleased Resouce" );

  00027	68 00 00 00 00	 push	 OFFSET ??_C@_0DF@GFKAOBPA@ioArrowWeapon?3?3?$HOioMissileWeapon?5@
  0002c	6a 00		 push	 0
  0002e	ff 35 00 00 00
	00		 push	 DWORD PTR __imp_?LOG@@3VCLog@@A
  00034	ff 15 00 00 00
	00		 call	 DWORD PTR __imp_?PrintTimeAndLog@CLog@@QAAXHPADZZ
  0003a	83 c4 0c	 add	 esp, 12			; 0000000cH
$LN1@ioArrowWea:

; 38   : 	}
; 39   : 
; 40   : 	m_vSecondAttrList.clear();

  0003d	8b 87 c4 08 00
	00		 mov	 eax, DWORD PTR [edi+2244]
  00043	8b 8f c0 08 00
	00		 mov	 ecx, DWORD PTR [edi+2240]
  00049	50		 push	 eax
  0004a	51		 push	 ecx
  0004b	8d 45 ec	 lea	 eax, DWORD PTR $T534611[ebp]
  0004e	50		 push	 eax
  0004f	8d 8f c0 08 00
	00		 lea	 ecx, DWORD PTR [edi+2240]
  00055	e8 00 00 00 00	 call	 ?erase@?$vector@USecondAttribute@@V?$allocator@USecondAttribute@@@std@@@std@@QAE?AV?$_Vector_iterator@V?$_Vector_val@USecondAttribute@@V?$allocator@USecondAttribute@@@std@@@std@@@2@V?$_Vector_const_iterator@V?$_Vector_val@USecondAttribute@@V?$allocator@USecondAttribute@@@std@@@std@@@2@0@Z ; std::vector<SecondAttribute,std::allocator<SecondAttribute> >::erase

; 41   : }

  0005a	8d 8f dc 08 00
	00		 lea	 ecx, DWORD PTR [edi+2268]
  00060	c6 45 fc 01	 mov	 BYTE PTR __$EHRec$[ebp+8], 1
  00064	c7 87 d0 08 00
	00 00 00 00 00	 mov	 DWORD PTR [edi+2256], OFFSET ??_7?$CEncrypt@_N@@6B@
  0006e	e8 00 00 00 00	 call	 ??1ccddaabb@@UAE@XZ	; ccddaabb::~ccddaabb
  00073	8d 8f c0 08 00
	00		 lea	 ecx, DWORD PTR [edi+2240]
  00079	c6 45 fc 00	 mov	 BYTE PTR __$EHRec$[ebp+8], 0
  0007d	e8 00 00 00 00	 call	 ?_Tidy@?$vector@USecondAttribute@@V?$allocator@USecondAttribute@@@std@@@std@@IAEXXZ ; std::vector<SecondAttribute,std::allocator<SecondAttribute> >::_Tidy
  00082	83 4d fc ff	 or	 DWORD PTR __$EHRec$[ebp+8], -1
  00086	8b cf		 mov	 ecx, edi
  00088	e8 00 00 00 00	 call	 ??1ioWeapon@@UAE@XZ	; ioWeapon::~ioWeapon
  0008d	e8 00 00 00 00	 call	 __EH_epilog3
  00092	c3		 ret	 0
_TEXT	ENDS
;	COMDAT text$x
text$x	SEGMENT
__unwindfunclet$??1ioArrowWeapon@@UAE@XZ$0:
  00000	8b 4d f0	 mov	 ecx, DWORD PTR _this$[ebp]
  00003	e9 00 00 00 00	 jmp	 ??1ioWeapon@@UAE@XZ	; ioWeapon::~ioWeapon
__unwindfunclet$??1ioArrowWeapon@@UAE@XZ$1:
  00008	8b 4d f0	 mov	 ecx, DWORD PTR _this$[ebp]
  0000b	81 c1 c0 08 00
	00		 add	 ecx, 2240		; 000008c0H
  00011	e9 00 00 00 00	 jmp	 ??1?$vector@USecondAttribute@@V?$allocator@USecondAttribute@@@std@@@std@@QAE@XZ ; std::vector<SecondAttribute,std::allocator<SecondAttribute> >::~vector<SecondAttribute,std::allocator<SecondAttribute> >
__unwindfunclet$??1ioArrowWeapon@@UAE@XZ$2:
  00016	8b 4d f0	 mov	 ecx, DWORD PTR _this$[ebp]
  00019	81 c1 d0 08 00
	00		 add	 ecx, 2256		; 000008d0H
  0001f	e9 00 00 00 00	 jmp	 ??1?$CEncrypt@_N@@UAE@XZ ; CEncrypt<bool>::~CEncrypt<bool>
__ehhandler$??1ioArrowWeapon@@UAE@XZ:
  00024	8b 54 24 08	 mov	 edx, DWORD PTR [esp+8]
  00028	8d 42 0c	 lea	 eax, DWORD PTR [edx+12]
  0002b	8b 4a e8	 mov	 ecx, DWORD PTR [edx-24]
  0002e	33 c8		 xor	 ecx, eax
  00030	e8 00 00 00 00	 call	 @__security_check_cookie@4
  00035	b8 00 00 00 00	 mov	 eax, OFFSET __ehfuncinfo$??1ioArrowWeapon@@UAE@XZ
  0003a	e9 00 00 00 00	 jmp	 ___CxxFrameHandler3
text$x	ENDS
??1ioArrowWeapon@@UAE@XZ ENDP				; ioArrowWeapon::~ioArrowWeapon
PUBLIC	?push_back@?$vector@USecondAttribute@@V?$allocator@USecondAttribute@@@std@@@std@@QAEXABUSecondAttribute@@@Z ; std::vector<SecondAttribute,std::allocator<SecondAttribute> >::push_back
; Function compile flags: /Ogsp
; File c:\program files (x86)\microsoft visual studio 10.0\vc\include\vector
;	COMDAT ?push_back@?$vector@USecondAttribute@@V?$allocator@USecondAttribute@@@std@@@std@@QAEXABUSecondAttribute@@@Z
_TEXT	SEGMENT
__Val$ = 8						; size = 4
?push_back@?$vector@USecondAttribute@@V?$allocator@USecondAttribute@@@std@@@std@@QAEXABUSecondAttribute@@@Z PROC ; std::vector<SecondAttribute,std::allocator<SecondAttribute> >::push_back, COMDAT
; _this$ = ecx

; 976  : 		{	// insert element at end

  00000	55		 push	 ebp
  00001	8b ec		 mov	 ebp, esp
  00003	56		 push	 esi
  00004	8b f1		 mov	 esi, ecx

; 977  : 		if (_Inside(_STD addressof(_Val)))

  00006	8b 46 04	 mov	 eax, DWORD PTR [esi+4]
  00009	57		 push	 edi
  0000a	8b 7d 08	 mov	 edi, DWORD PTR __Val$[ebp]
  0000d	3b f8		 cmp	 edi, eax
  0000f	73 2d		 jae	 SHORT $LN4@push_back
  00011	8b 0e		 mov	 ecx, DWORD PTR [esi]
  00013	3b cf		 cmp	 ecx, edi
  00015	77 27		 ja	 SHORT $LN4@push_back

; 978  : 			{	// push back an element
; 979  : 			size_type _Idx = _STD addressof(_Val) - this->_Myfirst;

  00017	2b f9		 sub	 edi, ecx
  00019	c1 ff 03	 sar	 edi, 3

; 980  : 			if (this->_Mylast == this->_Myend)

  0001c	3b 46 08	 cmp	 eax, DWORD PTR [esi+8]
  0001f	75 09		 jne	 SHORT $LN3@push_back

; 981  : 				_Reserve(1);

  00021	6a 01		 push	 1
  00023	8b ce		 mov	 ecx, esi
  00025	e8 00 00 00 00	 call	 ?_Reserve@?$vector@USecondAttribute@@V?$allocator@USecondAttribute@@@std@@@std@@IAEXI@Z ; std::vector<SecondAttribute,std::allocator<SecondAttribute> >::_Reserve
$LN3@push_back:

; 982  : 			_Orphan_range(this->_Mylast, this->_Mylast);
; 983  : 			_Cons_val(this->_Alval,
; 984  : 				this->_Mylast,
; 985  : 				this->_Myfirst[_Idx]);

  0002a	8b 06		 mov	 eax, DWORD PTR [esi]
  0002c	8d 04 f8	 lea	 eax, DWORD PTR [eax+edi*8]
  0002f	50		 push	 eax
  00030	ff 76 04	 push	 DWORD PTR [esi+4]
  00033	8d 46 0c	 lea	 eax, DWORD PTR [esi+12]
  00036	50		 push	 eax
  00037	e8 00 00 00 00	 call	 ??$_Cons_val@V?$allocator@USecondAttribute@@@std@@USecondAttribute@@AAU3@@std@@YAXAAV?$allocator@USecondAttribute@@@0@PAUSecondAttribute@@AAU2@@Z ; std::_Cons_val<std::allocator<SecondAttribute>,SecondAttribute,SecondAttribute &>

; 986  : 			++this->_Mylast;
; 987  : 			}
; 988  : 		else

  0003c	eb 1b		 jmp	 SHORT $LN20@push_back
$LN4@push_back:

; 989  : 			{	// push back a non-element
; 990  : 			if (this->_Mylast == this->_Myend)

  0003e	3b 46 08	 cmp	 eax, DWORD PTR [esi+8]
  00041	75 09		 jne	 SHORT $LN1@push_back

; 991  : 				_Reserve(1);

  00043	6a 01		 push	 1
  00045	8b ce		 mov	 ecx, esi
  00047	e8 00 00 00 00	 call	 ?_Reserve@?$vector@USecondAttribute@@V?$allocator@USecondAttribute@@@std@@@std@@IAEXI@Z ; std::vector<SecondAttribute,std::allocator<SecondAttribute> >::_Reserve
$LN1@push_back:

; 992  : 			_Orphan_range(this->_Mylast, this->_Mylast);
; 993  : 			_Cons_val(this->_Alval,
; 994  : 				this->_Mylast,
; 995  : 				_Val);

  0004c	57		 push	 edi
  0004d	ff 76 04	 push	 DWORD PTR [esi+4]
  00050	8d 46 0c	 lea	 eax, DWORD PTR [esi+12]
  00053	50		 push	 eax
  00054	e8 00 00 00 00	 call	 ??$_Cons_val@V?$allocator@USecondAttribute@@@std@@USecondAttribute@@ABU3@@std@@YAXAAV?$allocator@USecondAttribute@@@0@PAUSecondAttribute@@ABU2@@Z ; std::_Cons_val<std::allocator<SecondAttribute>,SecondAttribute,SecondAttribute const &>
$LN20@push_back:
  00059	83 c4 0c	 add	 esp, 12			; 0000000cH

; 996  : 			++this->_Mylast;

  0005c	83 46 04 08	 add	 DWORD PTR [esi+4], 8
  00060	5f		 pop	 edi
  00061	5e		 pop	 esi

; 997  : 			}
; 998  : 		}

  00062	5d		 pop	 ebp
  00063	c2 04 00	 ret	 4
?push_back@?$vector@USecondAttribute@@V?$allocator@USecondAttribute@@@std@@@std@@QAEXABUSecondAttribute@@@Z ENDP ; std::vector<SecondAttribute,std::allocator<SecondAttribute> >::push_back
; Function compile flags: /Ogsp
_TEXT	ENDS
;	COMDAT ??_GioArrowWeapon@@UAEPAXI@Z
_TEXT	SEGMENT
___flags$ = 8						; size = 4
??_GioArrowWeapon@@UAEPAXI@Z PROC			; ioArrowWeapon::`scalar deleting destructor', COMDAT
; _this$ = ecx
  00000	55		 push	 ebp
  00001	8b ec		 mov	 ebp, esp
  00003	56		 push	 esi
  00004	8b f1		 mov	 esi, ecx
  00006	e8 00 00 00 00	 call	 ??1ioArrowWeapon@@UAE@XZ ; ioArrowWeapon::~ioArrowWeapon
  0000b	f6 45 08 01	 test	 BYTE PTR ___flags$[ebp], 1
  0000f	74 07		 je	 SHORT $LN1@scalar@3
  00011	56		 push	 esi
  00012	e8 00 00 00 00	 call	 ??3@YAXPAX@Z		; operator delete
  00017	59		 pop	 ecx
$LN1@scalar@3:
  00018	8b c6		 mov	 eax, esi
  0001a	5e		 pop	 esi
  0001b	5d		 pop	 ebp
  0001c	c2 04 00	 ret	 4
??_GioArrowWeapon@@UAEPAXI@Z ENDP			; ioArrowWeapon::`scalar deleting destructor'
_TEXT	ENDS
PUBLIC	?SetSecondAttribute@ioArrowWeapon@@QAEXV?$vector@USecondAttribute@@V?$allocator@USecondAttribute@@@std@@@std@@@Z ; ioArrowWeapon::SetSecondAttribute
;	COMDAT xdata$x
xdata$x	SEGMENT
__unwindtable$?SetSecondAttribute@ioArrowWeapon@@QAEXV?$vector@USecondAttribute@@V?$allocator@USecondAttribute@@@std@@@std@@@Z DD 0ffffffffH
	DD	FLAT:__unwindfunclet$?SetSecondAttribute@ioArrowWeapon@@QAEXV?$vector@USecondAttribute@@V?$allocator@USecondAttribute@@@std@@@std@@@Z$0
__ehfuncinfo$?SetSecondAttribute@ioArrowWeapon@@QAEXV?$vector@USecondAttribute@@V?$allocator@USecondAttribute@@@std@@@std@@@Z DD 019930522H
	DD	01H
	DD	FLAT:__unwindtable$?SetSecondAttribute@ioArrowWeapon@@QAEXV?$vector@USecondAttribute@@V?$allocator@USecondAttribute@@@std@@@std@@@Z
	DD	2 DUP(00H)
	DD	2 DUP(00H)
	DD	00H
	DD	01H
; Function compile flags: /Ogsp
; File d:\lost saga for developer\youtube\tutorial\source\src\lsclient\ioarrowweapon.cpp
xdata$x	ENDS
;	COMDAT ?SetSecondAttribute@ioArrowWeapon@@QAEXV?$vector@USecondAttribute@@V?$allocator@USecondAttribute@@@std@@@std@@@Z
_TEXT	SEGMENT
_kSecondAttr$531058 = -20				; size = 8
__$EHRec$ = -12						; size = 12
_vSecondList$ = 8					; size = 16
?SetSecondAttribute@ioArrowWeapon@@QAEXV?$vector@USecondAttribute@@V?$allocator@USecondAttribute@@@std@@@std@@@Z PROC ; ioArrowWeapon::SetSecondAttribute, COMDAT
; _this$ = ecx

; 349  : {

  00000	6a 08		 push	 8
  00002	b8 00 00 00 00	 mov	 eax, __ehhandler$?SetSecondAttribute@ioArrowWeapon@@QAEXV?$vector@USecondAttribute@@V?$allocator@USecondAttribute@@@std@@@std@@@Z
  00007	e8 00 00 00 00	 call	 __EH_prolog3

; 350  : 	int iSize = vSecondList.size();

  0000c	8b 75 0c	 mov	 esi, DWORD PTR _vSecondList$[ebp+4]
  0000f	8b 45 08	 mov	 eax, DWORD PTR _vSecondList$[ebp]
  00012	2b f0		 sub	 esi, eax
  00014	33 ff		 xor	 edi, edi
  00016	c1 fe 03	 sar	 esi, 3
  00019	89 7d fc	 mov	 DWORD PTR __$EHRec$[ebp+8], edi

; 351  : 	for( int i=0; i < iSize; ++i )

  0001c	3b f7		 cmp	 esi, edi
  0001e	7e 28		 jle	 SHORT $LN1@SetSecondA
  00020	8d 99 c0 08 00
	00		 lea	 ebx, DWORD PTR [ecx+2240]
  00026	eb 03		 jmp	 SHORT $LN3@SetSecondA
$LL17@SetSecondA:
  00028	8b 45 08	 mov	 eax, DWORD PTR _vSecondList$[ebp]
$LN3@SetSecondA:

; 352  : 	{
; 353  : 		SecondAttribute kSecondAttr = vSecondList[i];

  0002b	8b 0c f8	 mov	 ecx, DWORD PTR [eax+edi*8]
  0002e	8b 44 f8 04	 mov	 eax, DWORD PTR [eax+edi*8+4]
  00032	89 45 f0	 mov	 DWORD PTR _kSecondAttr$531058[ebp+4], eax

; 354  : 		m_vSecondAttrList.push_back( kSecondAttr );

  00035	8d 45 ec	 lea	 eax, DWORD PTR _kSecondAttr$531058[ebp]
  00038	89 4d ec	 mov	 DWORD PTR _kSecondAttr$531058[ebp], ecx
  0003b	50		 push	 eax
  0003c	8b cb		 mov	 ecx, ebx
  0003e	e8 00 00 00 00	 call	 ?push_back@?$vector@USecondAttribute@@V?$allocator@USecondAttribute@@@std@@@std@@QAEXABUSecondAttribute@@@Z ; std::vector<SecondAttribute,std::allocator<SecondAttribute> >::push_back
  00043	47		 inc	 edi
  00044	3b fe		 cmp	 edi, esi
  00046	7c e0		 jl	 SHORT $LL17@SetSecondA
$LN1@SetSecondA:

; 355  : 	}
; 356  : }

  00048	83 4d fc ff	 or	 DWORD PTR __$EHRec$[ebp+8], -1
  0004c	8d 4d 08	 lea	 ecx, DWORD PTR _vSecondList$[ebp]
  0004f	e8 00 00 00 00	 call	 ?_Tidy@?$vector@USecondAttribute@@V?$allocator@USecondAttribute@@@std@@@std@@IAEXXZ ; std::vector<SecondAttribute,std::allocator<SecondAttribute> >::_Tidy
  00054	e8 00 00 00 00	 call	 __EH_epilog3
  00059	c2 10 00	 ret	 16			; 00000010H
_TEXT	ENDS
;	COMDAT text$x
text$x	SEGMENT
__unwindfunclet$?SetSecondAttribute@ioArrowWeapon@@QAEXV?$vector@USecondAttribute@@V?$allocator@USecondAttribute@@@std@@@std@@@Z$0:
  00000	8d 4d 08	 lea	 ecx, DWORD PTR _vSecondList$[ebp]
  00003	e9 00 00 00 00	 jmp	 ??1?$vector@USecondAttribute@@V?$allocator@USecondAttribute@@@std@@@std@@QAE@XZ ; std::vector<SecondAttribute,std::allocator<SecondAttribute> >::~vector<SecondAttribute,std::allocator<SecondAttribute> >
__ehhandler$?SetSecondAttribute@ioArrowWeapon@@QAEXV?$vector@USecondAttribute@@V?$allocator@USecondAttribute@@@std@@@std@@@Z:
  00008	8b 54 24 08	 mov	 edx, DWORD PTR [esp+8]
  0000c	8d 42 0c	 lea	 eax, DWORD PTR [edx+12]
  0000f	8b 4a e8	 mov	 ecx, DWORD PTR [edx-24]
  00012	33 c8		 xor	 ecx, eax
  00014	e8 00 00 00 00	 call	 @__security_check_cookie@4
  00019	b8 00 00 00 00	 mov	 eax, OFFSET __ehfuncinfo$?SetSecondAttribute@ioArrowWeapon@@QAEXV?$vector@USecondAttribute@@V?$allocator@USecondAttribute@@@std@@@std@@@Z
  0001e	e9 00 00 00 00	 jmp	 ___CxxFrameHandler3
text$x	ENDS
?SetSecondAttribute@ioArrowWeapon@@QAEXV?$vector@USecondAttribute@@V?$allocator@USecondAttribute@@@std@@@std@@@Z ENDP ; ioArrowWeapon::SetSecondAttribute
END
