; Listing generated by Microsoft (R) Optimizing Compiler Version 16.00.30319.01 

	TITLE	D:\Lost Saga For Developer\Youtube\Tutorial\Source\src\LSClient\ioArmorItem.cpp
	.686P
	.XMM
	include listing.inc
	.model	flat

INCLUDELIB MSVCRT
INCLUDELIB OLDNAMES

PUBLIC	?return5@@YAIXZ					; return5
; Function compile flags: /Ogsp
; File d:\lost saga for developer\youtube\tutorial\source\src\lsclient\stdafx.h
;	COMDAT ?return5@@YAIXZ
_TEXT	SEGMENT
?return5@@YAIXZ PROC					; return5, COMDAT

; 18   : 	__forceinline unsigned int return5() { __asm mov eax, 5 };

  00000	b8 05 00 00 00	 mov	 eax, 5
  00005	c3		 ret	 0
?return5@@YAIXZ ENDP					; return5
_TEXT	ENDS
PUBLIC	?return10@@YAIXZ				; return10
; Function compile flags: /Ogsp
;	COMDAT ?return10@@YAIXZ
_TEXT	SEGMENT
?return10@@YAIXZ PROC					; return10, COMDAT

; 21   : 	__forceinline unsigned int return10() { __asm mov eax, 10 };

  00000	b8 0a 00 00 00	 mov	 eax, 10			; 0000000aH
  00005	c3		 ret	 0
?return10@@YAIXZ ENDP					; return10
_TEXT	ENDS
PUBLIC	?return100@@YAIXZ				; return100
; Function compile flags: /Ogsp
;	COMDAT ?return100@@YAIXZ
_TEXT	SEGMENT
?return100@@YAIXZ PROC					; return100, COMDAT

; 25   : 	__forceinline unsigned int return100() { __asm mov eax, 100 };

  00000	b8 64 00 00 00	 mov	 eax, 100		; 00000064H
  00005	c3		 ret	 0
?return100@@YAIXZ ENDP					; return100
_TEXT	ENDS
PUBLIC	?GetCharName@ioBaseChar@@QBEABVioHashString@@XZ	; ioBaseChar::GetCharName
; Function compile flags: /Ogsp
; File d:\lost saga for developer\youtube\tutorial\source\src\lsclient\iobasechar.h
;	COMDAT ?GetCharName@ioBaseChar@@QBEABVioHashString@@XZ
_TEXT	SEGMENT
?GetCharName@ioBaseChar@@QBEABVioHashString@@XZ PROC	; ioBaseChar::GetCharName, COMDAT
; _this$ = ecx

; 2594 : 	inline const ioHashString& GetCharName() const { return m_Name; }

  00000	8d 81 d4 02 00
	00		 lea	 eax, DWORD PTR [ecx+724]
  00006	c3		 ret	 0
?GetCharName@ioBaseChar@@QBEABVioHashString@@XZ ENDP	; ioBaseChar::GetCharName
_TEXT	ENDS
PUBLIC	?IsMale@ioBaseChar@@QBE_NXZ			; ioBaseChar::IsMale
; Function compile flags: /Ogsp
;	COMDAT ?IsMale@ioBaseChar@@QBE_NXZ
_TEXT	SEGMENT
?IsMale@ioBaseChar@@QBE_NXZ PROC			; ioBaseChar::IsMale, COMDAT
; _this$ = ecx

; 2775 : 	inline bool IsMale() const { return m_bMale; }

  00000	8a 81 20 03 00
	00		 mov	 al, BYTE PTR [ecx+800]
  00006	c3		 ret	 0
?IsMale@ioBaseChar@@QBE_NXZ ENDP			; ioBaseChar::IsMale
_TEXT	ENDS
PUBLIC	?GetCharacterInfo@ioBaseChar@@QBEABUCHARACTER@@XZ ; ioBaseChar::GetCharacterInfo
; Function compile flags: /Ogsp
;	COMDAT ?GetCharacterInfo@ioBaseChar@@QBEABUCHARACTER@@XZ
_TEXT	SEGMENT
?GetCharacterInfo@ioBaseChar@@QBEABUCHARACTER@@XZ PROC	; ioBaseChar::GetCharacterInfo, COMDAT
; _this$ = ecx

; 2777 : 	inline const CHARACTER& GetCharacterInfo() const { return m_CharInfo; }

  00000	8d 81 58 03 00
	00		 lea	 eax, DWORD PTR [ecx+856]
  00006	c3		 ret	 0
?GetCharacterInfo@ioBaseChar@@QBEABUCHARACTER@@XZ ENDP	; ioBaseChar::GetCharacterInfo
_TEXT	ENDS
PUBLIC	??_7bad_alloc@std@@6B@				; std::bad_alloc::`vftable'
PUBLIC	??0bad_alloc@std@@QAE@PBD@Z			; std::bad_alloc::bad_alloc
PUBLIC	??_R4bad_alloc@std@@6B@				; std::bad_alloc::`RTTI Complete Object Locator'
PUBLIC	??_R0?AVbad_alloc@std@@@8			; std::bad_alloc `RTTI Type Descriptor'
PUBLIC	??_R3bad_alloc@std@@8				; std::bad_alloc::`RTTI Class Hierarchy Descriptor'
PUBLIC	??_R2bad_alloc@std@@8				; std::bad_alloc::`RTTI Base Class Array'
PUBLIC	??_R1A@?0A@EA@bad_alloc@std@@8			; std::bad_alloc::`RTTI Base Class Descriptor at (0,-1,0,64)'
PUBLIC	??_R1A@?0A@EA@exception@std@@8			; std::exception::`RTTI Base Class Descriptor at (0,-1,0,64)'
PUBLIC	??_R0?AVexception@std@@@8			; std::exception `RTTI Type Descriptor'
PUBLIC	??_R3exception@std@@8				; std::exception::`RTTI Class Hierarchy Descriptor'
PUBLIC	??_R2exception@std@@8				; std::exception::`RTTI Base Class Array'
EXTRN	__imp_??0exception@std@@QAE@ABQBD@Z:PROC
EXTRN	??_7type_info@@6B@:QWORD			; type_info::`vftable'
EXTRN	??_Ebad_alloc@std@@UAEPAXI@Z:PROC		; std::bad_alloc::`vector deleting destructor'
EXTRN	?what@exception@std@@UBEPBDXZ:PROC		; std::exception::what
;	COMDAT ??_R2exception@std@@8
; File c:\program files (x86)\microsoft visual studio 10.0\vc\include\exception
rdata$r	SEGMENT
??_R2exception@std@@8 DD FLAT:??_R1A@?0A@EA@exception@std@@8 ; std::exception::`RTTI Base Class Array'
rdata$r	ENDS
;	COMDAT ??_R3exception@std@@8
rdata$r	SEGMENT
??_R3exception@std@@8 DD 00H				; std::exception::`RTTI Class Hierarchy Descriptor'
	DD	00H
	DD	01H
	DD	FLAT:??_R2exception@std@@8
rdata$r	ENDS
;	COMDAT ??_R0?AVexception@std@@@8
_DATA	SEGMENT
??_R0?AVexception@std@@@8 DD FLAT:??_7type_info@@6B@	; std::exception `RTTI Type Descriptor'
	DD	00H
	DB	'.?AVexception@std@@', 00H
_DATA	ENDS
;	COMDAT ??_R1A@?0A@EA@exception@std@@8
rdata$r	SEGMENT
??_R1A@?0A@EA@exception@std@@8 DD FLAT:??_R0?AVexception@std@@@8 ; std::exception::`RTTI Base Class Descriptor at (0,-1,0,64)'
	DD	00H
	DD	00H
	DD	0ffffffffH
	DD	00H
	DD	040H
	DD	FLAT:??_R3exception@std@@8
rdata$r	ENDS
;	COMDAT ??_R1A@?0A@EA@bad_alloc@std@@8
rdata$r	SEGMENT
??_R1A@?0A@EA@bad_alloc@std@@8 DD FLAT:??_R0?AVbad_alloc@std@@@8 ; std::bad_alloc::`RTTI Base Class Descriptor at (0,-1,0,64)'
	DD	01H
	DD	00H
	DD	0ffffffffH
	DD	00H
	DD	040H
	DD	FLAT:??_R3bad_alloc@std@@8
rdata$r	ENDS
;	COMDAT ??_R2bad_alloc@std@@8
rdata$r	SEGMENT
??_R2bad_alloc@std@@8 DD FLAT:??_R1A@?0A@EA@bad_alloc@std@@8 ; std::bad_alloc::`RTTI Base Class Array'
	DD	FLAT:??_R1A@?0A@EA@exception@std@@8
rdata$r	ENDS
;	COMDAT ??_R3bad_alloc@std@@8
rdata$r	SEGMENT
??_R3bad_alloc@std@@8 DD 00H				; std::bad_alloc::`RTTI Class Hierarchy Descriptor'
	DD	00H
	DD	02H
	DD	FLAT:??_R2bad_alloc@std@@8
rdata$r	ENDS
;	COMDAT ??_R0?AVbad_alloc@std@@@8
_DATA	SEGMENT
??_R0?AVbad_alloc@std@@@8 DD FLAT:??_7type_info@@6B@	; std::bad_alloc `RTTI Type Descriptor'
	DD	00H
	DB	'.?AVbad_alloc@std@@', 00H
_DATA	ENDS
;	COMDAT ??_R4bad_alloc@std@@6B@
rdata$r	SEGMENT
??_R4bad_alloc@std@@6B@ DD 00H				; std::bad_alloc::`RTTI Complete Object Locator'
	DD	00H
	DD	00H
	DD	FLAT:??_R0?AVbad_alloc@std@@@8
	DD	FLAT:??_R3bad_alloc@std@@8
rdata$r	ENDS
;	COMDAT ??_7bad_alloc@std@@6B@
CONST	SEGMENT
??_7bad_alloc@std@@6B@ DD FLAT:??_R4bad_alloc@std@@6B@	; std::bad_alloc::`vftable'
	DD	FLAT:??_Ebad_alloc@std@@UAEPAXI@Z
	DD	FLAT:?what@exception@std@@UBEPBDXZ
; Function compile flags: /Ogsp
CONST	ENDS
;	COMDAT ??0bad_alloc@std@@QAE@PBD@Z
_TEXT	SEGMENT
__Message$ = 8						; size = 4
??0bad_alloc@std@@QAE@PBD@Z PROC			; std::bad_alloc::bad_alloc, COMDAT
; _this$ = ecx

; 345  : 		{	// construct from message string

  00000	55		 push	 ebp
  00001	8b ec		 mov	 ebp, esp
  00003	56		 push	 esi
  00004	8d 45 08	 lea	 eax, DWORD PTR __Message$[ebp]
  00007	50		 push	 eax
  00008	8b f1		 mov	 esi, ecx
  0000a	ff 15 00 00 00
	00		 call	 DWORD PTR __imp_??0exception@std@@QAE@ABQBD@Z
  00010	c7 06 00 00 00
	00		 mov	 DWORD PTR [esi], OFFSET ??_7bad_alloc@std@@6B@

; 346  : 		}

  00016	8b c6		 mov	 eax, esi
  00018	5e		 pop	 esi
  00019	5d		 pop	 ebp
  0001a	c2 04 00	 ret	 4
??0bad_alloc@std@@QAE@PBD@Z ENDP			; std::bad_alloc::bad_alloc
_TEXT	ENDS
PUBLIC	??1bad_alloc@std@@UAE@XZ			; std::bad_alloc::~bad_alloc
EXTRN	__imp_??1exception@std@@UAE@XZ:PROC
; Function compile flags: /Ogsp
;	COMDAT ??1bad_alloc@std@@UAE@XZ
_TEXT	SEGMENT
??1bad_alloc@std@@UAE@XZ PROC				; std::bad_alloc::~bad_alloc, COMDAT
; _this$ = ecx

; 354  : 		{	// destroy the object

  00000	c7 01 00 00 00
	00		 mov	 DWORD PTR [ecx], OFFSET ??_7bad_alloc@std@@6B@

; 355  : 		}

  00006	ff 25 00 00 00
	00		 jmp	 DWORD PTR __imp_??1exception@std@@UAE@XZ
??1bad_alloc@std@@UAE@XZ ENDP				; std::bad_alloc::~bad_alloc
_TEXT	ENDS
EXTRN	??3@YAXPAX@Z:PROC				; operator delete
; Function compile flags: /Ogsp
;	COMDAT ??_Gbad_alloc@std@@UAEPAXI@Z
_TEXT	SEGMENT
___flags$ = 8						; size = 4
??_Gbad_alloc@std@@UAEPAXI@Z PROC			; std::bad_alloc::`scalar deleting destructor', COMDAT
; _this$ = ecx
  00000	55		 push	 ebp
  00001	8b ec		 mov	 ebp, esp
  00003	56		 push	 esi
  00004	8b f1		 mov	 esi, ecx
  00006	c7 06 00 00 00
	00		 mov	 DWORD PTR [esi], OFFSET ??_7bad_alloc@std@@6B@
  0000c	ff 15 00 00 00
	00		 call	 DWORD PTR __imp_??1exception@std@@UAE@XZ
  00012	f6 45 08 01	 test	 BYTE PTR ___flags$[ebp], 1
  00016	74 07		 je	 SHORT $LN1@scalar
  00018	56		 push	 esi
  00019	e8 00 00 00 00	 call	 ??3@YAXPAX@Z		; operator delete
  0001e	59		 pop	 ecx
$LN1@scalar:
  0001f	8b c6		 mov	 eax, esi
  00021	5e		 pop	 esi
  00022	5d		 pop	 ebp
  00023	c2 04 00	 ret	 4
??_Gbad_alloc@std@@UAEPAXI@Z ENDP			; std::bad_alloc::`scalar deleting destructor'
_TEXT	ENDS
PUBLIC	??2@YAPAXIPAX@Z					; operator new
; Function compile flags: /Ogsp
; File c:\program files (x86)\microsoft visual studio 10.0\vc\include\new
;	COMDAT ??2@YAPAXIPAX@Z
_TEXT	SEGMENT
___formal$ = 8						; size = 4
__Where$ = 12						; size = 4
??2@YAPAXIPAX@Z PROC					; operator new, COMDAT

; 56   : 	{	// construct array with placement at _Where

  00000	55		 push	 ebp
  00001	8b ec		 mov	 ebp, esp

; 57   : 	return (_Where);

  00003	8b 45 0c	 mov	 eax, DWORD PTR __Where$[ebp]

; 58   : 	}

  00006	5d		 pop	 ebp
  00007	c3		 ret	 0
??2@YAPAXIPAX@Z ENDP					; operator new
_TEXT	ENDS
PUBLIC	??3@YAXPAX0@Z					; operator delete
; Function compile flags: /Ogsp
;	COMDAT ??3@YAXPAX0@Z
_TEXT	SEGMENT
___formal$ = 8						; size = 4
___formal$ = 12						; size = 4
??3@YAXPAX0@Z PROC					; operator delete, COMDAT

; 62   : 	}

  00000	c3		 ret	 0
??3@YAXPAX0@Z ENDP					; operator delete
_TEXT	ENDS
PUBLIC	?_Adopt@_Iterator_base0@std@@QAEXPBX@Z		; std::_Iterator_base0::_Adopt
; Function compile flags: /Ogsp
; File c:\program files (x86)\microsoft visual studio 10.0\vc\include\xutility
;	COMDAT ?_Adopt@_Iterator_base0@std@@QAEXPBX@Z
_TEXT	SEGMENT
___formal$ = 8						; size = 4
?_Adopt@_Iterator_base0@std@@QAEXPBX@Z PROC		; std::_Iterator_base0::_Adopt, COMDAT
; _this$ = ecx

; 49   : 		}

  00000	c2 04 00	 ret	 4
?_Adopt@_Iterator_base0@std@@QAEXPBX@Z ENDP		; std::_Iterator_base0::_Adopt
_TEXT	ENDS
PUBLIC	??1?$_Pair_base@$$CBKVioHashString@@@std@@QAE@XZ ; std::_Pair_base<unsigned long const ,ioHashString>::~_Pair_base<unsigned long const ,ioHashString>
EXTRN	__imp_??1ioHashString@@QAE@XZ:PROC
; Function compile flags: /Ogsp
;	COMDAT ??1?$_Pair_base@$$CBKVioHashString@@@std@@QAE@XZ
_TEXT	SEGMENT
??1?$_Pair_base@$$CBKVioHashString@@@std@@QAE@XZ PROC	; std::_Pair_base<unsigned long const ,ioHashString>::~_Pair_base<unsigned long const ,ioHashString>, COMDAT
; _this$ = ecx
  00000	83 c1 04	 add	 ecx, 4
  00003	ff 25 00 00 00
	00		 jmp	 DWORD PTR __imp_??1ioHashString@@QAE@XZ
??1?$_Pair_base@$$CBKVioHashString@@@std@@QAE@XZ ENDP	; std::_Pair_base<unsigned long const ,ioHashString>::~_Pair_base<unsigned long const ,ioHashString>
_TEXT	ENDS
PUBLIC	?GetType@ioArmorItem@@UBE?AW4ItemType@ioItem@@XZ ; ioArmorItem::GetType
; Function compile flags: /Ogsp
; File d:\lost saga for developer\youtube\tutorial\source\src\lsclient\ioarmoritem.cpp
;	COMDAT ?GetType@ioArmorItem@@UBE?AW4ItemType@ioItem@@XZ
_TEXT	SEGMENT
?GetType@ioArmorItem@@UBE?AW4ItemType@ioItem@@XZ PROC	; ioArmorItem::GetType, COMDAT
; _this$ = ecx

; 138  : 	return IT_ARMOR;

  00000	6a 02		 push	 2
  00002	58		 pop	 eax

; 139  : }

  00003	c3		 ret	 0
?GetType@ioArmorItem@@UBE?AW4ItemType@ioItem@@XZ ENDP	; ioArmorItem::GetType
_TEXT	ENDS
PUBLIC	?GetArmorSoundType@ioArmorItem@@QAEHXZ		; ioArmorItem::GetArmorSoundType
; Function compile flags: /Ogsp
;	COMDAT ?GetArmorSoundType@ioArmorItem@@QAEHXZ
_TEXT	SEGMENT
?GetArmorSoundType@ioArmorItem@@QAEHXZ PROC		; ioArmorItem::GetArmorSoundType, COMDAT
; _this$ = ecx

; 248  : 	if ( m_CostumeInfo.m_nCostumeCode > 0 )

  00000	83 b9 3c 05 00
	00 00		 cmp	 DWORD PTR [ecx+1340], 0
  00007	7e 07		 jle	 SHORT $LN1@GetArmorSo

; 249  : 		return m_CostumeInfo.m_nArmorSoundType;

  00009	8b 81 88 05 00
	00		 mov	 eax, DWORD PTR [ecx+1416]

; 252  : }

  0000f	c3		 ret	 0
$LN1@GetArmorSo:

; 250  : 
; 251  : 	return m_iArmorSoundType;

  00010	8b 81 e8 17 00
	00		 mov	 eax, DWORD PTR [ecx+6120]

; 252  : }

  00016	c3		 ret	 0
?GetArmorSoundType@ioArmorItem@@QAEHXZ ENDP		; ioArmorItem::GetArmorSoundType
_TEXT	ENDS
PUBLIC	?GetArmorType@ioArmorItem@@QBE?AW4ArmorType@@XZ	; ioArmorItem::GetArmorType
; Function compile flags: /Ogsp
;	COMDAT ?GetArmorType@ioArmorItem@@QBE?AW4ArmorType@@XZ
_TEXT	SEGMENT
?GetArmorType@ioArmorItem@@QBE?AW4ArmorType@@XZ PROC	; ioArmorItem::GetArmorType, COMDAT
; _this$ = ecx

; 256  : 	if ( m_CostumeInfo.m_nCostumeCode > 0 )

  00000	83 b9 3c 05 00
	00 00		 cmp	 DWORD PTR [ecx+1340], 0
  00007	7e 07		 jle	 SHORT $LN1@GetArmorTy

; 257  : 		return (ArmorType)m_CostumeInfo.m_nArmorType;

  00009	8b 81 84 05 00
	00		 mov	 eax, DWORD PTR [ecx+1412]

; 260  : }

  0000f	c3		 ret	 0
$LN1@GetArmorTy:

; 258  : 
; 259  : 	return m_ArmorType;

  00010	8b 81 ec 17 00
	00		 mov	 eax, DWORD PTR [ecx+6124]

; 260  : }

  00016	c3		 ret	 0
?GetArmorType@ioArmorItem@@QBE?AW4ArmorType@@XZ ENDP	; ioArmorItem::GetArmorType
_TEXT	ENDS
PUBLIC	?HasSpringRope@ioArmorItem@@QBE_NXZ		; ioArmorItem::HasSpringRope
EXTRN	__imp_?IsEmpty@ioHashString@@QBE_NXZ:PROC
; Function compile flags: /Ogsp
;	COMDAT ?HasSpringRope@ioArmorItem@@QBE_NXZ
_TEXT	SEGMENT
?HasSpringRope@ioArmorItem@@QBE_NXZ PROC		; ioArmorItem::HasSpringRope, COMDAT
; _this$ = ecx

; 263  : {

  00000	56		 push	 esi
  00001	8b f1		 mov	 esi, ecx

; 264  : 	if ( !m_CostumeInfo.m_szSpring_Biped.IsEmpty() && m_CostumeInfo.m_pCostumeSpringParam )

  00003	8d 8e 74 05 00
	00		 lea	 ecx, DWORD PTR [esi+1396]
  00009	ff 15 00 00 00
	00		 call	 DWORD PTR __imp_?IsEmpty@ioHashString@@QBE_NXZ
  0000f	84 c0		 test	 al, al
  00011	75 0d		 jne	 SHORT $LN3@HasSpringR
  00013	83 be e0 05 00
	00 00		 cmp	 DWORD PTR [esi+1504], 0
  0001a	74 04		 je	 SHORT $LN3@HasSpringR
$LN6@HasSpringR:

; 265  : 		return true;

  0001c	b0 01		 mov	 al, 1
  0001e	5e		 pop	 esi

; 271  : }

  0001f	c3		 ret	 0
$LN3@HasSpringR:

; 266  : 
; 267  : 	if( m_SpringBiped.IsEmpty() || !m_pSpringParam )

  00020	8d 8e f0 17 00
	00		 lea	 ecx, DWORD PTR [esi+6128]
  00026	ff 15 00 00 00
	00		 call	 DWORD PTR __imp_?IsEmpty@ioHashString@@QBE_NXZ
  0002c	84 c0		 test	 al, al
  0002e	75 09		 jne	 SHORT $LN1@HasSpringR
  00030	83 be 00 18 00
	00 00		 cmp	 DWORD PTR [esi+6144], 0

; 269  : 
; 270  : 	return true;

  00037	75 e3		 jne	 SHORT $LN6@HasSpringR
$LN1@HasSpringR:

; 268  : 		return false;

  00039	32 c0		 xor	 al, al
  0003b	5e		 pop	 esi

; 271  : }

  0003c	c3		 ret	 0
?HasSpringRope@ioArmorItem@@QBE_NXZ ENDP		; ioArmorItem::HasSpringRope
_TEXT	ENDS
PUBLIC	?GetSpringBiped@ioArmorItem@@QBEABVioHashString@@XZ ; ioArmorItem::GetSpringBiped
; Function compile flags: /Ogsp
;	COMDAT ?GetSpringBiped@ioArmorItem@@QBEABVioHashString@@XZ
_TEXT	SEGMENT
?GetSpringBiped@ioArmorItem@@QBEABVioHashString@@XZ PROC ; ioArmorItem::GetSpringBiped, COMDAT
; _this$ = ecx

; 274  : {

  00000	56		 push	 esi
  00001	8b f1		 mov	 esi, ecx
  00003	57		 push	 edi

; 275  : 	if ( !m_CostumeInfo.m_szSpring_Biped.IsEmpty() )

  00004	8d 8e 74 05 00
	00		 lea	 ecx, DWORD PTR [esi+1396]
  0000a	ff 15 00 00 00
	00		 call	 DWORD PTR __imp_?IsEmpty@ioHashString@@QBE_NXZ
  00010	84 c0		 test	 al, al

; 276  : 		return m_CostumeInfo.m_szSpring_Biped;

  00012	8d 86 74 05 00
	00		 lea	 eax, DWORD PTR [esi+1396]
  00018	74 06		 je	 SHORT $LN2@GetSpringB

; 277  : 
; 278  : 	return m_SpringBiped; 

  0001a	8d 86 f0 17 00
	00		 lea	 eax, DWORD PTR [esi+6128]
$LN2@GetSpringB:
  00020	5f		 pop	 edi
  00021	5e		 pop	 esi

; 279  : }

  00022	c3		 ret	 0
?GetSpringBiped@ioArmorItem@@QBEABVioHashString@@XZ ENDP ; ioArmorItem::GetSpringBiped
_TEXT	ENDS
PUBLIC	?GetSpringParam@ioArmorItem@@QBEPBURopeSpringParam@@XZ ; ioArmorItem::GetSpringParam
; Function compile flags: /Ogsp
;	COMDAT ?GetSpringParam@ioArmorItem@@QBEPBURopeSpringParam@@XZ
_TEXT	SEGMENT
?GetSpringParam@ioArmorItem@@QBEPBURopeSpringParam@@XZ PROC ; ioArmorItem::GetSpringParam, COMDAT
; _this$ = ecx

; 283  : 	if ( m_CostumeInfo.m_pCostumeSpringParam )

  00000	8b 81 e0 05 00
	00		 mov	 eax, DWORD PTR [ecx+1504]
  00006	85 c0		 test	 eax, eax

; 284  : 		return m_CostumeInfo.m_pCostumeSpringParam;

  00008	75 06		 jne	 SHORT $LN2@GetSpringP

; 285  : 
; 286  : 	return m_pSpringParam; 

  0000a	8b 81 00 18 00
	00		 mov	 eax, DWORD PTR [ecx+6144]
$LN2@GetSpringP:

; 287  : }

  00010	c3		 ret	 0
?GetSpringParam@ioArmorItem@@QBEPBURopeSpringParam@@XZ ENDP ; ioArmorItem::GetSpringParam
_TEXT	ENDS
PUBLIC	??R?$less@K@std@@QBE_NABK0@Z			; std::less<unsigned long>::operator()
; Function compile flags: /Ogsp
; File c:\program files (x86)\microsoft visual studio 10.0\vc\include\xfunctional
;	COMDAT ??R?$less@K@std@@QBE_NABK0@Z
_TEXT	SEGMENT
__Left$ = 8						; size = 4
__Right$ = 12						; size = 4
??R?$less@K@std@@QBE_NABK0@Z PROC			; std::less<unsigned long>::operator(), COMDAT
; _this$ = ecx

; 124  : 		{	// apply operator< to operands

  00000	55		 push	 ebp
  00001	8b ec		 mov	 ebp, esp

; 125  : 		return (_Left < _Right);

  00003	8b 45 08	 mov	 eax, DWORD PTR __Left$[ebp]
  00006	8b 00		 mov	 eax, DWORD PTR [eax]
  00008	8b 4d 0c	 mov	 ecx, DWORD PTR __Right$[ebp]
  0000b	3b 01		 cmp	 eax, DWORD PTR [ecx]
  0000d	1b c0		 sbb	 eax, eax
  0000f	f7 d8		 neg	 eax

; 126  : 		}

  00011	5d		 pop	 ebp
  00012	c2 08 00	 ret	 8
??R?$less@K@std@@QBE_NABK0@Z ENDP			; std::less<unsigned long>::operator()
_TEXT	ENDS
PUBLIC	?capacity@?$vector@USwingParam@@V?$allocator@USwingParam@@@std@@@std@@QBEIXZ ; std::vector<SwingParam,std::allocator<SwingParam> >::capacity
; Function compile flags: /Ogsp
; File c:\program files (x86)\microsoft visual studio 10.0\vc\include\vector
;	COMDAT ?capacity@?$vector@USwingParam@@V?$allocator@USwingParam@@@std@@@std@@QBEIXZ
_TEXT	SEGMENT
?capacity@?$vector@USwingParam@@V?$allocator@USwingParam@@@std@@@std@@QBEIXZ PROC ; std::vector<SwingParam,std::allocator<SwingParam> >::capacity, COMDAT
; _this$ = ecx

; 777  : 		return (this->_Myend - this->_Myfirst);

  00000	8b 41 08	 mov	 eax, DWORD PTR [ecx+8]
  00003	2b 01		 sub	 eax, DWORD PTR [ecx]
  00005	c1 f8 04	 sar	 eax, 4

; 778  : 		}

  00008	c3		 ret	 0
?capacity@?$vector@USwingParam@@V?$allocator@USwingParam@@@std@@@std@@QBEIXZ ENDP ; std::vector<SwingParam,std::allocator<SwingParam> >::capacity
_TEXT	ENDS
PUBLIC	?size@?$vector@USwingParam@@V?$allocator@USwingParam@@@std@@@std@@QBEIXZ ; std::vector<SwingParam,std::allocator<SwingParam> >::size
; Function compile flags: /Ogsp
;	COMDAT ?size@?$vector@USwingParam@@V?$allocator@USwingParam@@@std@@@std@@QBEIXZ
_TEXT	SEGMENT
?size@?$vector@USwingParam@@V?$allocator@USwingParam@@@std@@@std@@QBEIXZ PROC ; std::vector<SwingParam,std::allocator<SwingParam> >::size, COMDAT
; _this$ = ecx

; 879  : 		return (this->_Mylast - this->_Myfirst);

  00000	8b 41 04	 mov	 eax, DWORD PTR [ecx+4]
  00003	2b 01		 sub	 eax, DWORD PTR [ecx]
  00005	c1 f8 04	 sar	 eax, 4

; 880  : 		}

  00008	c3		 ret	 0
?size@?$vector@USwingParam@@V?$allocator@USwingParam@@@std@@@std@@QBEIXZ ENDP ; std::vector<SwingParam,std::allocator<SwingParam> >::size
_TEXT	ENDS
PUBLIC	?_Inside@?$vector@USwingParam@@V?$allocator@USwingParam@@@std@@@std@@IBE_NPBUSwingParam@@@Z ; std::vector<SwingParam,std::allocator<SwingParam> >::_Inside
; Function compile flags: /Ogsp
;	COMDAT ?_Inside@?$vector@USwingParam@@V?$allocator@USwingParam@@@std@@@std@@IBE_NPBUSwingParam@@@Z
_TEXT	SEGMENT
__Ptr$ = 8						; size = 4
?_Inside@?$vector@USwingParam@@V?$allocator@USwingParam@@@std@@@std@@IBE_NPBUSwingParam@@@Z PROC ; std::vector<SwingParam,std::allocator<SwingParam> >::_Inside, COMDAT
; _this$ = ecx

; 1285 : 		{	// test if _Ptr points inside vector

  00000	55		 push	 ebp
  00001	8b ec		 mov	 ebp, esp

; 1286 : 		return (_Ptr < this->_Mylast && this->_Myfirst <= _Ptr);

  00003	8b 45 08	 mov	 eax, DWORD PTR __Ptr$[ebp]
  00006	3b 41 04	 cmp	 eax, DWORD PTR [ecx+4]
  00009	73 09		 jae	 SHORT $LN3@Inside
  0000b	39 01		 cmp	 DWORD PTR [ecx], eax
  0000d	77 05		 ja	 SHORT $LN3@Inside
  0000f	33 c0		 xor	 eax, eax
  00011	40		 inc	 eax
  00012	eb 02		 jmp	 SHORT $LN4@Inside
$LN3@Inside:
  00014	33 c0		 xor	 eax, eax
$LN4@Inside:

; 1287 : 		}

  00016	5d		 pop	 ebp
  00017	c2 04 00	 ret	 4
?_Inside@?$vector@USwingParam@@V?$allocator@USwingParam@@@std@@@std@@IBE_NPBUSwingParam@@@Z ENDP ; std::vector<SwingParam,std::allocator<SwingParam> >::_Inside
_TEXT	ENDS
PUBLIC	?_Orphan_range@?$vector@USwingParam@@V?$allocator@USwingParam@@@std@@@std@@IBEXPAUSwingParam@@0@Z ; std::vector<SwingParam,std::allocator<SwingParam> >::_Orphan_range
; Function compile flags: /Ogsp
;	COMDAT ?_Orphan_range@?$vector@USwingParam@@V?$allocator@USwingParam@@@std@@@std@@IBEXPAUSwingParam@@0@Z
_TEXT	SEGMENT
___formal$ = 8						; size = 4
___formal$ = 12						; size = 4
?_Orphan_range@?$vector@USwingParam@@V?$allocator@USwingParam@@@std@@@std@@IBEXPAUSwingParam@@0@Z PROC ; std::vector<SwingParam,std::allocator<SwingParam> >::_Orphan_range, COMDAT
; _this$ = ecx

; 1454 : 		}

  00000	c2 08 00	 ret	 8
?_Orphan_range@?$vector@USwingParam@@V?$allocator@USwingParam@@@std@@@std@@IBEXPAUSwingParam@@0@Z ENDP ; std::vector<SwingParam,std::allocator<SwingParam> >::_Orphan_range
_TEXT	ENDS
PUBLIC	??1?$_Vector_val@USwingParam@@V?$allocator@USwingParam@@@std@@@std@@QAE@XZ ; std::_Vector_val<SwingParam,std::allocator<SwingParam> >::~_Vector_val<SwingParam,std::allocator<SwingParam> >
; Function compile flags: /Ogsp
;	COMDAT ??1?$_Vector_val@USwingParam@@V?$allocator@USwingParam@@@std@@@std@@QAE@XZ
_TEXT	SEGMENT
??1?$_Vector_val@USwingParam@@V?$allocator@USwingParam@@@std@@@std@@QAE@XZ PROC ; std::_Vector_val<SwingParam,std::allocator<SwingParam> >::~_Vector_val<SwingParam,std::allocator<SwingParam> >, COMDAT
; _this$ = ecx

; 434  : 		}

  00000	c3		 ret	 0
??1?$_Vector_val@USwingParam@@V?$allocator@USwingParam@@@std@@@std@@QAE@XZ ENDP ; std::_Vector_val<SwingParam,std::allocator<SwingParam> >::~_Vector_val<SwingParam,std::allocator<SwingParam> >
_TEXT	ENDS
PUBLIC	??0?$allocator@USwingParam@@@std@@QAE@XZ	; std::allocator<SwingParam>::allocator<SwingParam>
; Function compile flags: /Ogsp
; File c:\program files (x86)\microsoft visual studio 10.0\vc\include\xmemory
;	COMDAT ??0?$allocator@USwingParam@@@std@@QAE@XZ
_TEXT	SEGMENT
??0?$allocator@USwingParam@@@std@@QAE@XZ PROC		; std::allocator<SwingParam>::allocator<SwingParam>, COMDAT
; _this$ = ecx

; 161  : 	_ALLOCATOR() _THROW0()

  00000	8b c1		 mov	 eax, ecx

; 162  : 		{	// construct default allocator (do nothing)
; 163  : 		}

  00002	c3		 ret	 0
??0?$allocator@USwingParam@@@std@@QAE@XZ ENDP		; std::allocator<SwingParam>::allocator<SwingParam>
_TEXT	ENDS
PUBLIC	?deallocate@?$allocator@USwingParam@@@std@@QAEXPAUSwingParam@@I@Z ; std::allocator<SwingParam>::deallocate
; Function compile flags: /Ogsp
;	COMDAT ?deallocate@?$allocator@USwingParam@@@std@@QAEXPAUSwingParam@@I@Z
_TEXT	SEGMENT
__Ptr$ = 8						; size = 4
___formal$ = 12						; size = 4
?deallocate@?$allocator@USwingParam@@@std@@QAEXPAUSwingParam@@I@Z PROC ; std::allocator<SwingParam>::deallocate, COMDAT
; _this$ = ecx

; 181  : 		{	// deallocate object at _Ptr, ignore size

  00000	55		 push	 ebp
  00001	8b ec		 mov	 ebp, esp

; 182  : 		::operator delete(_Ptr);

  00003	ff 75 08	 push	 DWORD PTR __Ptr$[ebp]
  00006	e8 00 00 00 00	 call	 ??3@YAXPAX@Z		; operator delete
  0000b	59		 pop	 ecx

; 183  : 		}

  0000c	5d		 pop	 ebp
  0000d	c2 08 00	 ret	 8
?deallocate@?$allocator@USwingParam@@@std@@QAEXPAUSwingParam@@I@Z ENDP ; std::allocator<SwingParam>::deallocate
_TEXT	ENDS
PUBLIC	??0?$allocator@U?$pair@$$CBKVioHashString@@@std@@@std@@QAE@XZ ; std::allocator<std::pair<unsigned long const ,ioHashString> >::allocator<std::pair<unsigned long const ,ioHashString> >
; Function compile flags: /Ogsp
;	COMDAT ??0?$allocator@U?$pair@$$CBKVioHashString@@@std@@@std@@QAE@XZ
_TEXT	SEGMENT
??0?$allocator@U?$pair@$$CBKVioHashString@@@std@@@std@@QAE@XZ PROC ; std::allocator<std::pair<unsigned long const ,ioHashString> >::allocator<std::pair<unsigned long const ,ioHashString> >, COMDAT
; _this$ = ecx

; 161  : 	_ALLOCATOR() _THROW0()

  00000	8b c1		 mov	 eax, ecx

; 162  : 		{	// construct default allocator (do nothing)
; 163  : 		}

  00002	c3		 ret	 0
??0?$allocator@U?$pair@$$CBKVioHashString@@@std@@@std@@QAE@XZ ENDP ; std::allocator<std::pair<unsigned long const ,ioHashString> >::allocator<std::pair<unsigned long const ,ioHashString> >
_TEXT	ENDS
PUBLIC	??8?$_Tree_const_iterator@V?$_Tree_val@V?$_Tmap_traits@KVioHashString@@U?$less@K@std@@V?$allocator@U?$pair@$$CBKVioHashString@@@std@@@3@$0A@@std@@@std@@@std@@QBE_NABV01@@Z ; std::_Tree_const_iterator<std::_Tree_val<std::_Tmap_traits<unsigned long,ioHashString,std::less<unsigned long>,std::allocator<std::pair<unsigned long const ,ioHashString> >,0> > >::operator==
; Function compile flags: /Ogsp
; File c:\program files (x86)\microsoft visual studio 10.0\vc\include\xtree
;	COMDAT ??8?$_Tree_const_iterator@V?$_Tree_val@V?$_Tmap_traits@KVioHashString@@U?$less@K@std@@V?$allocator@U?$pair@$$CBKVioHashString@@@std@@@3@$0A@@std@@@std@@@std@@QBE_NABV01@@Z
_TEXT	SEGMENT
__Right$ = 8						; size = 4
??8?$_Tree_const_iterator@V?$_Tree_val@V?$_Tmap_traits@KVioHashString@@U?$less@K@std@@V?$allocator@U?$pair@$$CBKVioHashString@@@std@@@3@$0A@@std@@@std@@@std@@QBE_NABV01@@Z PROC ; std::_Tree_const_iterator<std::_Tree_val<std::_Tmap_traits<unsigned long,ioHashString,std::less<unsigned long>,std::allocator<std::pair<unsigned long const ,ioHashString> >,0> > >::operator==, COMDAT
; _this$ = ecx

; 316  : 		{	// test for iterator equality

  00000	55		 push	 ebp
  00001	8b ec		 mov	 ebp, esp

; 317  :  #if _ITERATOR_DEBUG_LEVEL == 2
; 318  : 		if (this->_Getcont() == 0
; 319  : 			|| this->_Getcont() != _Right._Getcont())
; 320  : 			{	// report error
; 321  : 			_DEBUG_ERROR("map/set iterators incompatible");
; 322  : 			_SCL_SECURE_INVALID_ARGUMENT;
; 323  : 			}
; 324  : 
; 325  :  #elif _ITERATOR_DEBUG_LEVEL == 1
; 326  : 		_SCL_SECURE_VALIDATE(this->_Getcont() != 0
; 327  : 			&& this->_Getcont() == _Right._Getcont());
; 328  :  #endif /* _ITERATOR_DEBUG_LEVEL */
; 329  : 
; 330  : 		return (this->_Ptr == _Right._Ptr);

  00003	8b 01		 mov	 eax, DWORD PTR [ecx]
  00005	8b 4d 08	 mov	 ecx, DWORD PTR __Right$[ebp]
  00008	2b 01		 sub	 eax, DWORD PTR [ecx]
  0000a	f7 d8		 neg	 eax
  0000c	1b c0		 sbb	 eax, eax
  0000e	40		 inc	 eax

; 331  : 		}

  0000f	5d		 pop	 ebp
  00010	c2 04 00	 ret	 4
??8?$_Tree_const_iterator@V?$_Tree_val@V?$_Tmap_traits@KVioHashString@@U?$less@K@std@@V?$allocator@U?$pair@$$CBKVioHashString@@@std@@@3@$0A@@std@@@std@@@std@@QBE_NABV01@@Z ENDP ; std::_Tree_const_iterator<std::_Tree_val<std::_Tmap_traits<unsigned long,ioHashString,std::less<unsigned long>,std::allocator<std::pair<unsigned long const ,ioHashString> >,0> > >::operator==
_TEXT	ENDS
PUBLIC	?_Mynode@?$_Tree_unchecked_const_iterator@V?$_Tree_val@V?$_Tmap_traits@KVioHashString@@U?$less@K@std@@V?$allocator@U?$pair@$$CBKVioHashString@@@std@@@3@$0A@@std@@@std@@U_Iterator_base0@2@@std@@QBEPAU_Node@?$_Tree_nod@V?$_Tmap_traits@KVioHashString@@U?$less@K@std@@V?$allocator@U?$pair@$$CBKVioHashString@@@std@@@3@$0A@@std@@@2@XZ ; std::_Tree_unchecked_const_iterator<std::_Tree_val<std::_Tmap_traits<unsigned long,ioHashString,std::less<unsigned long>,std::allocator<std::pair<unsigned long const ,ioHashString> >,0> >,std::_Iterator_base0>::_Mynode
; Function compile flags: /Ogsp
;	COMDAT ?_Mynode@?$_Tree_unchecked_const_iterator@V?$_Tree_val@V?$_Tmap_traits@KVioHashString@@U?$less@K@std@@V?$allocator@U?$pair@$$CBKVioHashString@@@std@@@3@$0A@@std@@@std@@U_Iterator_base0@2@@std@@QBEPAU_Node@?$_Tree_nod@V?$_Tmap_traits@KVioHashString@@U?$less@K@std@@V?$allocator@U?$pair@$$CBKVioHashString@@@std@@@3@$0A@@std@@@2@XZ
_TEXT	SEGMENT
?_Mynode@?$_Tree_unchecked_const_iterator@V?$_Tree_val@V?$_Tmap_traits@KVioHashString@@U?$less@K@std@@V?$allocator@U?$pair@$$CBKVioHashString@@@std@@@3@$0A@@std@@@std@@U_Iterator_base0@2@@std@@QBEPAU_Node@?$_Tree_nod@V?$_Tmap_traits@KVioHashString@@U?$less@K@std@@V?$allocator@U?$pair@$$CBKVioHashString@@@std@@@3@$0A@@std@@@2@XZ PROC ; std::_Tree_unchecked_const_iterator<std::_Tree_val<std::_Tmap_traits<unsigned long,ioHashString,std::less<unsigned long>,std::allocator<std::pair<unsigned long const ,ioHashString> >,0> >,std::_Iterator_base0>::_Mynode, COMDAT
; _this$ = ecx

; 122  : 		return (_Ptr);

  00000	8b 01		 mov	 eax, DWORD PTR [ecx]

; 123  : 		}

  00002	c3		 ret	 0
?_Mynode@?$_Tree_unchecked_const_iterator@V?$_Tree_val@V?$_Tmap_traits@KVioHashString@@U?$less@K@std@@V?$allocator@U?$pair@$$CBKVioHashString@@@std@@@3@$0A@@std@@@std@@U_Iterator_base0@2@@std@@QBEPAU_Node@?$_Tree_nod@V?$_Tmap_traits@KVioHashString@@U?$less@K@std@@V?$allocator@U?$pair@$$CBKVioHashString@@@std@@@3@$0A@@std@@@2@XZ ENDP ; std::_Tree_unchecked_const_iterator<std::_Tree_val<std::_Tmap_traits<unsigned long,ioHashString,std::less<unsigned long>,std::allocator<std::pair<unsigned long const ,ioHashString> >,0> >,std::_Iterator_base0>::_Mynode
_TEXT	ENDS
PUBLIC	??_C@_0BD@OLBABOEK@vector?$DMT?$DO?5too?5long?$AA@ ; `string'
PUBLIC	?_Xlen@?$vector@USwingParam@@V?$allocator@USwingParam@@@std@@@std@@IBEXXZ ; std::vector<SwingParam,std::allocator<SwingParam> >::_Xlen
EXTRN	__imp_?_Xlength_error@std@@YAXPBD@Z:PROC
;	COMDAT ??_C@_0BD@OLBABOEK@vector?$DMT?$DO?5too?5long?$AA@
; File c:\program files (x86)\microsoft visual studio 10.0\vc\include\vector
CONST	SEGMENT
??_C@_0BD@OLBABOEK@vector?$DMT?$DO?5too?5long?$AA@ DB 'vector<T> too long'
	DB	00H						; `string'
; Function compile flags: /Ogsp
CONST	ENDS
;	COMDAT ?_Xlen@?$vector@USwingParam@@V?$allocator@USwingParam@@@std@@@std@@IBEXXZ
_TEXT	SEGMENT
?_Xlen@?$vector@USwingParam@@V?$allocator@USwingParam@@@std@@@std@@IBEXXZ PROC ; std::vector<SwingParam,std::allocator<SwingParam> >::_Xlen, COMDAT
; _this$ = ecx

; 1427 : 		_Xlength_error("vector<T> too long");

  00000	68 00 00 00 00	 push	 OFFSET ??_C@_0BD@OLBABOEK@vector?$DMT?$DO?5too?5long?$AA@
  00005	ff 15 00 00 00
	00		 call	 DWORD PTR __imp_?_Xlength_error@std@@YAXPBD@Z
$LN4@Xlen:
$LN3@Xlen:
  0000b	cc		 int	 3
?_Xlen@?$vector@USwingParam@@V?$allocator@USwingParam@@@std@@@std@@IBEXXZ ENDP ; std::vector<SwingParam,std::allocator<SwingParam> >::_Xlen
_TEXT	ENDS
PUBLIC	??0?$allocator@USwingParam@@@std@@QAE@ABV01@@Z	; std::allocator<SwingParam>::allocator<SwingParam>
; Function compile flags: /Ogsp
; File c:\program files (x86)\microsoft visual studio 10.0\vc\include\xmemory
;	COMDAT ??0?$allocator@USwingParam@@@std@@QAE@ABV01@@Z
_TEXT	SEGMENT
___formal$ = 8						; size = 4
??0?$allocator@USwingParam@@@std@@QAE@ABV01@@Z PROC	; std::allocator<SwingParam>::allocator<SwingParam>, COMDAT
; _this$ = ecx

; 165  : 	_ALLOCATOR(const _ALLOCATOR<_Ty>&) _THROW0()

  00000	8b c1		 mov	 eax, ecx

; 166  : 		{	// construct by copying (do nothing)
; 167  : 		}

  00002	c2 04 00	 ret	 4
??0?$allocator@USwingParam@@@std@@QAE@ABV01@@Z ENDP	; std::allocator<SwingParam>::allocator<SwingParam>
_TEXT	ENDS
PUBLIC	?_Isnil@?$_Tree_val@V?$_Tmap_traits@KVioHashString@@U?$less@K@std@@V?$allocator@U?$pair@$$CBKVioHashString@@@std@@@3@$0A@@std@@@std@@SAAADPAU_Node@?$_Tree_nod@V?$_Tmap_traits@KVioHashString@@U?$less@K@std@@V?$allocator@U?$pair@$$CBKVioHashString@@@std@@@3@$0A@@std@@@2@@Z ; std::_Tree_val<std::_Tmap_traits<unsigned long,ioHashString,std::less<unsigned long>,std::allocator<std::pair<unsigned long const ,ioHashString> >,0> >::_Isnil
; Function compile flags: /Ogsp
; File c:\program files (x86)\microsoft visual studio 10.0\vc\include\xtree
;	COMDAT ?_Isnil@?$_Tree_val@V?$_Tmap_traits@KVioHashString@@U?$less@K@std@@V?$allocator@U?$pair@$$CBKVioHashString@@@std@@@3@$0A@@std@@@std@@SAAADPAU_Node@?$_Tree_nod@V?$_Tmap_traits@KVioHashString@@U?$less@K@std@@V?$allocator@U?$pair@$$CBKVioHashString@@@std@@@3@$0A@@std@@@2@@Z
_TEXT	SEGMENT
__Pnode$ = 8						; size = 4
?_Isnil@?$_Tree_val@V?$_Tmap_traits@KVioHashString@@U?$less@K@std@@V?$allocator@U?$pair@$$CBKVioHashString@@@std@@@3@$0A@@std@@@std@@SAAADPAU_Node@?$_Tree_nod@V?$_Tmap_traits@KVioHashString@@U?$less@K@std@@V?$allocator@U?$pair@$$CBKVioHashString@@@std@@@3@$0A@@std@@@2@@Z PROC ; std::_Tree_val<std::_Tmap_traits<unsigned long,ioHashString,std::less<unsigned long>,std::allocator<std::pair<unsigned long const ,ioHashString> >,0> >::_Isnil, COMDAT

; 611  : 		{	// return reference to nil flag in node

  00000	55		 push	 ebp
  00001	8b ec		 mov	 ebp, esp

; 612  : 		return ((char&)(*_Pnode)._Isnil);

  00003	8b 45 08	 mov	 eax, DWORD PTR __Pnode$[ebp]
  00006	83 c0 21	 add	 eax, 33			; 00000021H

; 613  : 		}

  00009	5d		 pop	 ebp
  0000a	c3		 ret	 0
?_Isnil@?$_Tree_val@V?$_Tmap_traits@KVioHashString@@U?$less@K@std@@V?$allocator@U?$pair@$$CBKVioHashString@@@std@@@3@$0A@@std@@@std@@SAAADPAU_Node@?$_Tree_nod@V?$_Tmap_traits@KVioHashString@@U?$less@K@std@@V?$allocator@U?$pair@$$CBKVioHashString@@@std@@@3@$0A@@std@@@2@@Z ENDP ; std::_Tree_val<std::_Tmap_traits<unsigned long,ioHashString,std::less<unsigned long>,std::allocator<std::pair<unsigned long const ,ioHashString> >,0> >::_Isnil
_TEXT	ENDS
PUBLIC	?_Left@?$_Tree_val@V?$_Tmap_traits@KVioHashString@@U?$less@K@std@@V?$allocator@U?$pair@$$CBKVioHashString@@@std@@@3@$0A@@std@@@std@@SAAAPAU_Node@?$_Tree_nod@V?$_Tmap_traits@KVioHashString@@U?$less@K@std@@V?$allocator@U?$pair@$$CBKVioHashString@@@std@@@3@$0A@@std@@@2@PAU342@@Z ; std::_Tree_val<std::_Tmap_traits<unsigned long,ioHashString,std::less<unsigned long>,std::allocator<std::pair<unsigned long const ,ioHashString> >,0> >::_Left
; Function compile flags: /Ogsp
;	COMDAT ?_Left@?$_Tree_val@V?$_Tmap_traits@KVioHashString@@U?$less@K@std@@V?$allocator@U?$pair@$$CBKVioHashString@@@std@@@3@$0A@@std@@@std@@SAAAPAU_Node@?$_Tree_nod@V?$_Tmap_traits@KVioHashString@@U?$less@K@std@@V?$allocator@U?$pair@$$CBKVioHashString@@@std@@@3@$0A@@std@@@2@PAU342@@Z
_TEXT	SEGMENT
__Pnode$ = 8						; size = 4
?_Left@?$_Tree_val@V?$_Tmap_traits@KVioHashString@@U?$less@K@std@@V?$allocator@U?$pair@$$CBKVioHashString@@@std@@@3@$0A@@std@@@std@@SAAAPAU_Node@?$_Tree_nod@V?$_Tmap_traits@KVioHashString@@U?$less@K@std@@V?$allocator@U?$pair@$$CBKVioHashString@@@std@@@3@$0A@@std@@@2@PAU342@@Z PROC ; std::_Tree_val<std::_Tmap_traits<unsigned long,ioHashString,std::less<unsigned long>,std::allocator<std::pair<unsigned long const ,ioHashString> >,0> >::_Left, COMDAT

; 621  : 		{	// return reference to left pointer in node

  00000	55		 push	 ebp
  00001	8b ec		 mov	 ebp, esp

; 622  : 		return ((_Nodepref)(*_Pnode)._Left);

  00003	8b 45 08	 mov	 eax, DWORD PTR __Pnode$[ebp]

; 623  : 		}

  00006	5d		 pop	 ebp
  00007	c3		 ret	 0
?_Left@?$_Tree_val@V?$_Tmap_traits@KVioHashString@@U?$less@K@std@@V?$allocator@U?$pair@$$CBKVioHashString@@@std@@@3@$0A@@std@@@std@@SAAAPAU_Node@?$_Tree_nod@V?$_Tmap_traits@KVioHashString@@U?$less@K@std@@V?$allocator@U?$pair@$$CBKVioHashString@@@std@@@3@$0A@@std@@@2@PAU342@@Z ENDP ; std::_Tree_val<std::_Tmap_traits<unsigned long,ioHashString,std::less<unsigned long>,std::allocator<std::pair<unsigned long const ,ioHashString> >,0> >::_Left
_TEXT	ENDS
PUBLIC	?_Parent@?$_Tree_val@V?$_Tmap_traits@KVioHashString@@U?$less@K@std@@V?$allocator@U?$pair@$$CBKVioHashString@@@std@@@3@$0A@@std@@@std@@SAAAPAU_Node@?$_Tree_nod@V?$_Tmap_traits@KVioHashString@@U?$less@K@std@@V?$allocator@U?$pair@$$CBKVioHashString@@@std@@@3@$0A@@std@@@2@PAU342@@Z ; std::_Tree_val<std::_Tmap_traits<unsigned long,ioHashString,std::less<unsigned long>,std::allocator<std::pair<unsigned long const ,ioHashString> >,0> >::_Parent
; Function compile flags: /Ogsp
;	COMDAT ?_Parent@?$_Tree_val@V?$_Tmap_traits@KVioHashString@@U?$less@K@std@@V?$allocator@U?$pair@$$CBKVioHashString@@@std@@@3@$0A@@std@@@std@@SAAAPAU_Node@?$_Tree_nod@V?$_Tmap_traits@KVioHashString@@U?$less@K@std@@V?$allocator@U?$pair@$$CBKVioHashString@@@std@@@3@$0A@@std@@@2@PAU342@@Z
_TEXT	SEGMENT
__Pnode$ = 8						; size = 4
?_Parent@?$_Tree_val@V?$_Tmap_traits@KVioHashString@@U?$less@K@std@@V?$allocator@U?$pair@$$CBKVioHashString@@@std@@@3@$0A@@std@@@std@@SAAAPAU_Node@?$_Tree_nod@V?$_Tmap_traits@KVioHashString@@U?$less@K@std@@V?$allocator@U?$pair@$$CBKVioHashString@@@std@@@3@$0A@@std@@@2@PAU342@@Z PROC ; std::_Tree_val<std::_Tmap_traits<unsigned long,ioHashString,std::less<unsigned long>,std::allocator<std::pair<unsigned long const ,ioHashString> >,0> >::_Parent, COMDAT

; 626  : 		{	// return reference to parent pointer in node

  00000	55		 push	 ebp
  00001	8b ec		 mov	 ebp, esp

; 627  : 		return ((_Nodepref)(*_Pnode)._Parent);

  00003	8b 45 08	 mov	 eax, DWORD PTR __Pnode$[ebp]
  00006	83 c0 04	 add	 eax, 4

; 628  : 		}

  00009	5d		 pop	 ebp
  0000a	c3		 ret	 0
?_Parent@?$_Tree_val@V?$_Tmap_traits@KVioHashString@@U?$less@K@std@@V?$allocator@U?$pair@$$CBKVioHashString@@@std@@@3@$0A@@std@@@std@@SAAAPAU_Node@?$_Tree_nod@V?$_Tmap_traits@KVioHashString@@U?$less@K@std@@V?$allocator@U?$pair@$$CBKVioHashString@@@std@@@3@$0A@@std@@@2@PAU342@@Z ENDP ; std::_Tree_val<std::_Tmap_traits<unsigned long,ioHashString,std::less<unsigned long>,std::allocator<std::pair<unsigned long const ,ioHashString> >,0> >::_Parent
_TEXT	ENDS
PUBLIC	?_Right@?$_Tree_val@V?$_Tmap_traits@KVioHashString@@U?$less@K@std@@V?$allocator@U?$pair@$$CBKVioHashString@@@std@@@3@$0A@@std@@@std@@SAAAPAU_Node@?$_Tree_nod@V?$_Tmap_traits@KVioHashString@@U?$less@K@std@@V?$allocator@U?$pair@$$CBKVioHashString@@@std@@@3@$0A@@std@@@2@PAU342@@Z ; std::_Tree_val<std::_Tmap_traits<unsigned long,ioHashString,std::less<unsigned long>,std::allocator<std::pair<unsigned long const ,ioHashString> >,0> >::_Right
; Function compile flags: /Ogsp
;	COMDAT ?_Right@?$_Tree_val@V?$_Tmap_traits@KVioHashString@@U?$less@K@std@@V?$allocator@U?$pair@$$CBKVioHashString@@@std@@@3@$0A@@std@@@std@@SAAAPAU_Node@?$_Tree_nod@V?$_Tmap_traits@KVioHashString@@U?$less@K@std@@V?$allocator@U?$pair@$$CBKVioHashString@@@std@@@3@$0A@@std@@@2@PAU342@@Z
_TEXT	SEGMENT
__Pnode$ = 8						; size = 4
?_Right@?$_Tree_val@V?$_Tmap_traits@KVioHashString@@U?$less@K@std@@V?$allocator@U?$pair@$$CBKVioHashString@@@std@@@3@$0A@@std@@@std@@SAAAPAU_Node@?$_Tree_nod@V?$_Tmap_traits@KVioHashString@@U?$less@K@std@@V?$allocator@U?$pair@$$CBKVioHashString@@@std@@@3@$0A@@std@@@2@PAU342@@Z PROC ; std::_Tree_val<std::_Tmap_traits<unsigned long,ioHashString,std::less<unsigned long>,std::allocator<std::pair<unsigned long const ,ioHashString> >,0> >::_Right, COMDAT

; 631  : 		{	// return reference to right pointer in node

  00000	55		 push	 ebp
  00001	8b ec		 mov	 ebp, esp

; 632  : 		return ((_Nodepref)(*_Pnode)._Right);

  00003	8b 45 08	 mov	 eax, DWORD PTR __Pnode$[ebp]
  00006	83 c0 08	 add	 eax, 8

; 633  : 		}

  00009	5d		 pop	 ebp
  0000a	c3		 ret	 0
?_Right@?$_Tree_val@V?$_Tmap_traits@KVioHashString@@U?$less@K@std@@V?$allocator@U?$pair@$$CBKVioHashString@@@std@@@3@$0A@@std@@@std@@SAAAPAU_Node@?$_Tree_nod@V?$_Tmap_traits@KVioHashString@@U?$less@K@std@@V?$allocator@U?$pair@$$CBKVioHashString@@@std@@@3@$0A@@std@@@2@PAU342@@Z ENDP ; std::_Tree_val<std::_Tmap_traits<unsigned long,ioHashString,std::less<unsigned long>,std::allocator<std::pair<unsigned long const ,ioHashString> >,0> >::_Right
_TEXT	ENDS
PUBLIC	?_Myval@?$_Tree_val@V?$_Tmap_traits@KVioHashString@@U?$less@K@std@@V?$allocator@U?$pair@$$CBKVioHashString@@@std@@@3@$0A@@std@@@std@@SAAAU?$pair@$$CBKVioHashString@@@2@PAU_Node@?$_Tree_nod@V?$_Tmap_traits@KVioHashString@@U?$less@K@std@@V?$allocator@U?$pair@$$CBKVioHashString@@@std@@@3@$0A@@std@@@2@@Z ; std::_Tree_val<std::_Tmap_traits<unsigned long,ioHashString,std::less<unsigned long>,std::allocator<std::pair<unsigned long const ,ioHashString> >,0> >::_Myval
; Function compile flags: /Ogsp
;	COMDAT ?_Myval@?$_Tree_val@V?$_Tmap_traits@KVioHashString@@U?$less@K@std@@V?$allocator@U?$pair@$$CBKVioHashString@@@std@@@3@$0A@@std@@@std@@SAAAU?$pair@$$CBKVioHashString@@@2@PAU_Node@?$_Tree_nod@V?$_Tmap_traits@KVioHashString@@U?$less@K@std@@V?$allocator@U?$pair@$$CBKVioHashString@@@std@@@3@$0A@@std@@@2@@Z
_TEXT	SEGMENT
__Pnode$ = 8						; size = 4
?_Myval@?$_Tree_val@V?$_Tmap_traits@KVioHashString@@U?$less@K@std@@V?$allocator@U?$pair@$$CBKVioHashString@@@std@@@3@$0A@@std@@@std@@SAAAU?$pair@$$CBKVioHashString@@@2@PAU_Node@?$_Tree_nod@V?$_Tmap_traits@KVioHashString@@U?$less@K@std@@V?$allocator@U?$pair@$$CBKVioHashString@@@std@@@3@$0A@@std@@@2@@Z PROC ; std::_Tree_val<std::_Tmap_traits<unsigned long,ioHashString,std::less<unsigned long>,std::allocator<std::pair<unsigned long const ,ioHashString> >,0> >::_Myval, COMDAT

; 636  : 		{	// return reference to value in node

  00000	55		 push	 ebp
  00001	8b ec		 mov	 ebp, esp

; 637  : 		return ((reference)(*_Pnode)._Myval);

  00003	8b 45 08	 mov	 eax, DWORD PTR __Pnode$[ebp]
  00006	83 c0 0c	 add	 eax, 12			; 0000000cH

; 638  : 		}

  00009	5d		 pop	 ebp
  0000a	c3		 ret	 0
?_Myval@?$_Tree_val@V?$_Tmap_traits@KVioHashString@@U?$less@K@std@@V?$allocator@U?$pair@$$CBKVioHashString@@@std@@@3@$0A@@std@@@std@@SAAAU?$pair@$$CBKVioHashString@@@2@PAU_Node@?$_Tree_nod@V?$_Tmap_traits@KVioHashString@@U?$less@K@std@@V?$allocator@U?$pair@$$CBKVioHashString@@@std@@@3@$0A@@std@@@2@@Z ENDP ; std::_Tree_val<std::_Tmap_traits<unsigned long,ioHashString,std::less<unsigned long>,std::allocator<std::pair<unsigned long const ,ioHashString> >,0> >::_Myval
_TEXT	ENDS
PUBLIC	??0?$allocator@U?$pair@$$CBKVioHashString@@@std@@@std@@QAE@ABV01@@Z ; std::allocator<std::pair<unsigned long const ,ioHashString> >::allocator<std::pair<unsigned long const ,ioHashString> >
; Function compile flags: /Ogsp
; File c:\program files (x86)\microsoft visual studio 10.0\vc\include\xmemory
;	COMDAT ??0?$allocator@U?$pair@$$CBKVioHashString@@@std@@@std@@QAE@ABV01@@Z
_TEXT	SEGMENT
___formal$ = 8						; size = 4
??0?$allocator@U?$pair@$$CBKVioHashString@@@std@@@std@@QAE@ABV01@@Z PROC ; std::allocator<std::pair<unsigned long const ,ioHashString> >::allocator<std::pair<unsigned long const ,ioHashString> >, COMDAT
; _this$ = ecx

; 165  : 	_ALLOCATOR(const _ALLOCATOR<_Ty>&) _THROW0()

  00000	8b c1		 mov	 eax, ecx

; 166  : 		{	// construct by copying (do nothing)
; 167  : 		}

  00002	c2 04 00	 ret	 4
??0?$allocator@U?$pair@$$CBKVioHashString@@@std@@@std@@QAE@ABV01@@Z ENDP ; std::allocator<std::pair<unsigned long const ,ioHashString> >::allocator<std::pair<unsigned long const ,ioHashString> >
_TEXT	ENDS
PUBLIC	?deallocate@?$allocator@U_Node@?$_Tree_nod@V?$_Tmap_traits@KVioHashString@@U?$less@K@std@@V?$allocator@U?$pair@$$CBKVioHashString@@@std@@@3@$0A@@std@@@std@@@std@@QAEXPAU_Node@?$_Tree_nod@V?$_Tmap_traits@KVioHashString@@U?$less@K@std@@V?$allocator@U?$pair@$$CBKVioHashString@@@std@@@3@$0A@@std@@@2@I@Z ; std::allocator<std::_Tree_nod<std::_Tmap_traits<unsigned long,ioHashString,std::less<unsigned long>,std::allocator<std::pair<unsigned long const ,ioHashString> >,0> >::_Node>::deallocate
; Function compile flags: /Ogsp
;	COMDAT ?deallocate@?$allocator@U_Node@?$_Tree_nod@V?$_Tmap_traits@KVioHashString@@U?$less@K@std@@V?$allocator@U?$pair@$$CBKVioHashString@@@std@@@3@$0A@@std@@@std@@@std@@QAEXPAU_Node@?$_Tree_nod@V?$_Tmap_traits@KVioHashString@@U?$less@K@std@@V?$allocator@U?$pair@$$CBKVioHashString@@@std@@@3@$0A@@std@@@2@I@Z
_TEXT	SEGMENT
__Ptr$ = 8						; size = 4
___formal$ = 12						; size = 4
?deallocate@?$allocator@U_Node@?$_Tree_nod@V?$_Tmap_traits@KVioHashString@@U?$less@K@std@@V?$allocator@U?$pair@$$CBKVioHashString@@@std@@@3@$0A@@std@@@std@@@std@@QAEXPAU_Node@?$_Tree_nod@V?$_Tmap_traits@KVioHashString@@U?$less@K@std@@V?$allocator@U?$pair@$$CBKVioHashString@@@std@@@3@$0A@@std@@@2@I@Z PROC ; std::allocator<std::_Tree_nod<std::_Tmap_traits<unsigned long,ioHashString,std::less<unsigned long>,std::allocator<std::pair<unsigned long const ,ioHashString> >,0> >::_Node>::deallocate, COMDAT
; _this$ = ecx

; 181  : 		{	// deallocate object at _Ptr, ignore size

  00000	55		 push	 ebp
  00001	8b ec		 mov	 ebp, esp

; 182  : 		::operator delete(_Ptr);

  00003	ff 75 08	 push	 DWORD PTR __Ptr$[ebp]
  00006	e8 00 00 00 00	 call	 ??3@YAXPAX@Z		; operator delete
  0000b	59		 pop	 ecx

; 183  : 		}

  0000c	5d		 pop	 ebp
  0000d	c2 08 00	 ret	 8
?deallocate@?$allocator@U_Node@?$_Tree_nod@V?$_Tmap_traits@KVioHashString@@U?$less@K@std@@V?$allocator@U?$pair@$$CBKVioHashString@@@std@@@3@$0A@@std@@@std@@@std@@QAEXPAU_Node@?$_Tree_nod@V?$_Tmap_traits@KVioHashString@@U?$less@K@std@@V?$allocator@U?$pair@$$CBKVioHashString@@@std@@@3@$0A@@std@@@2@I@Z ENDP ; std::allocator<std::_Tree_nod<std::_Tmap_traits<unsigned long,ioHashString,std::less<unsigned long>,std::allocator<std::pair<unsigned long const ,ioHashString> >,0> >::_Node>::deallocate
_TEXT	ENDS
PUBLIC	??0?$_Tree_unchecked_const_iterator@V?$_Tree_val@V?$_Tmap_traits@KVioHashString@@U?$less@K@std@@V?$allocator@U?$pair@$$CBKVioHashString@@@std@@@3@$0A@@std@@@std@@U_Iterator_base0@2@@std@@QAE@PAU_Node@?$_Tree_nod@V?$_Tmap_traits@KVioHashString@@U?$less@K@std@@V?$allocator@U?$pair@$$CBKVioHashString@@@std@@@3@$0A@@std@@@1@PBV?$_Tree_val@V?$_Tmap_traits@KVioHashString@@U?$less@K@std@@V?$allocator@U?$pair@$$CBKVioHashString@@@std@@@3@$0A@@std@@@1@@Z ; std::_Tree_unchecked_const_iterator<std::_Tree_val<std::_Tmap_traits<unsigned long,ioHashString,std::less<unsigned long>,std::allocator<std::pair<unsigned long const ,ioHashString> >,0> >,std::_Iterator_base0>::_Tree_unchecked_const_iterator<std::_Tree_val<std::_Tmap_traits<unsigned long,ioHashString,std::less<unsigned long>,std::allocator<std::pair<unsigned long const ,ioHashString> >,0> >,std::_Iterator_base0>
; Function compile flags: /Ogsp
; File c:\program files (x86)\microsoft visual studio 10.0\vc\include\xtree
;	COMDAT ??0?$_Tree_unchecked_const_iterator@V?$_Tree_val@V?$_Tmap_traits@KVioHashString@@U?$less@K@std@@V?$allocator@U?$pair@$$CBKVioHashString@@@std@@@3@$0A@@std@@@std@@U_Iterator_base0@2@@std@@QAE@PAU_Node@?$_Tree_nod@V?$_Tmap_traits@KVioHashString@@U?$less@K@std@@V?$allocator@U?$pair@$$CBKVioHashString@@@std@@@3@$0A@@std@@@1@PBV?$_Tree_val@V?$_Tmap_traits@KVioHashString@@U?$less@K@std@@V?$allocator@U?$pair@$$CBKVioHashString@@@std@@@3@$0A@@std@@@1@@Z
_TEXT	SEGMENT
__Pnode$ = 8						; size = 4
__Plist$ = 12						; size = 4
??0?$_Tree_unchecked_const_iterator@V?$_Tree_val@V?$_Tmap_traits@KVioHashString@@U?$less@K@std@@V?$allocator@U?$pair@$$CBKVioHashString@@@std@@@3@$0A@@std@@@std@@U_Iterator_base0@2@@std@@QAE@PAU_Node@?$_Tree_nod@V?$_Tmap_traits@KVioHashString@@U?$less@K@std@@V?$allocator@U?$pair@$$CBKVioHashString@@@std@@@3@$0A@@std@@@1@PBV?$_Tree_val@V?$_Tmap_traits@KVioHashString@@U?$less@K@std@@V?$allocator@U?$pair@$$CBKVioHashString@@@std@@@3@$0A@@std@@@1@@Z PROC ; std::_Tree_unchecked_const_iterator<std::_Tree_val<std::_Tmap_traits<unsigned long,ioHashString,std::less<unsigned long>,std::allocator<std::pair<unsigned long const ,ioHashString> >,0> >,std::_Iterator_base0>::_Tree_unchecked_const_iterator<std::_Tree_val<std::_Tmap_traits<unsigned long,ioHashString,std::less<unsigned long>,std::allocator<std::pair<unsigned long const ,ioHashString> >,0> >,std::_Iterator_base0>, COMDAT
; _this$ = ecx

; 43   : 		{	// construct with node pointer _Pnode

  00000	55		 push	 ebp
  00001	8b ec		 mov	 ebp, esp
  00003	8b c1		 mov	 eax, ecx
  00005	8b 4d 08	 mov	 ecx, DWORD PTR __Pnode$[ebp]
  00008	89 08		 mov	 DWORD PTR [eax], ecx

; 44   : 		this->_Adopt(_Plist);
; 45   : 		}

  0000a	5d		 pop	 ebp
  0000b	c2 08 00	 ret	 8
??0?$_Tree_unchecked_const_iterator@V?$_Tree_val@V?$_Tmap_traits@KVioHashString@@U?$less@K@std@@V?$allocator@U?$pair@$$CBKVioHashString@@@std@@@3@$0A@@std@@@std@@U_Iterator_base0@2@@std@@QAE@PAU_Node@?$_Tree_nod@V?$_Tmap_traits@KVioHashString@@U?$less@K@std@@V?$allocator@U?$pair@$$CBKVioHashString@@@std@@@3@$0A@@std@@@1@PBV?$_Tree_val@V?$_Tmap_traits@KVioHashString@@U?$less@K@std@@V?$allocator@U?$pair@$$CBKVioHashString@@@std@@@3@$0A@@std@@@1@@Z ENDP ; std::_Tree_unchecked_const_iterator<std::_Tree_val<std::_Tmap_traits<unsigned long,ioHashString,std::less<unsigned long>,std::allocator<std::pair<unsigned long const ,ioHashString> >,0> >,std::_Iterator_base0>::_Tree_unchecked_const_iterator<std::_Tree_val<std::_Tmap_traits<unsigned long,ioHashString,std::less<unsigned long>,std::allocator<std::pair<unsigned long const ,ioHashString> >,0> >,std::_Iterator_base0>
_TEXT	ENDS
PUBLIC	?max_size@?$allocator@USwingParam@@@std@@QBEIXZ	; std::allocator<SwingParam>::max_size
; Function compile flags: /Ogsp
; File c:\program files (x86)\microsoft visual studio 10.0\vc\include\xmemory
;	COMDAT ?max_size@?$allocator@USwingParam@@@std@@QBEIXZ
_TEXT	SEGMENT
?max_size@?$allocator@USwingParam@@@std@@QBEIXZ PROC	; std::allocator<SwingParam>::max_size, COMDAT
; _this$ = ecx

; 218  : 		_SIZT _Count = (_SIZT)(-1) / sizeof (_Ty);
; 219  : 		return (0 < _Count ? _Count : 1);

  00000	b8 ff ff ff 0f	 mov	 eax, 268435455		; 0fffffffH

; 220  : 		}

  00005	c3		 ret	 0
?max_size@?$allocator@USwingParam@@@std@@QBEIXZ ENDP	; std::allocator<SwingParam>::max_size
_TEXT	ENDS
PUBLIC	?_Color@?$_Tree_val@V?$_Tmap_traits@KVioHashString@@U?$less@K@std@@V?$allocator@U?$pair@$$CBKVioHashString@@@std@@@3@$0A@@std@@@std@@SAAADPAU_Node@?$_Tree_nod@V?$_Tmap_traits@KVioHashString@@U?$less@K@std@@V?$allocator@U?$pair@$$CBKVioHashString@@@std@@@3@$0A@@std@@@2@@Z ; std::_Tree_val<std::_Tmap_traits<unsigned long,ioHashString,std::less<unsigned long>,std::allocator<std::pair<unsigned long const ,ioHashString> >,0> >::_Color
; Function compile flags: /Ogsp
; File c:\program files (x86)\microsoft visual studio 10.0\vc\include\xtree
;	COMDAT ?_Color@?$_Tree_val@V?$_Tmap_traits@KVioHashString@@U?$less@K@std@@V?$allocator@U?$pair@$$CBKVioHashString@@@std@@@3@$0A@@std@@@std@@SAAADPAU_Node@?$_Tree_nod@V?$_Tmap_traits@KVioHashString@@U?$less@K@std@@V?$allocator@U?$pair@$$CBKVioHashString@@@std@@@3@$0A@@std@@@2@@Z
_TEXT	SEGMENT
__Pnode$ = 8						; size = 4
?_Color@?$_Tree_val@V?$_Tmap_traits@KVioHashString@@U?$less@K@std@@V?$allocator@U?$pair@$$CBKVioHashString@@@std@@@3@$0A@@std@@@std@@SAAADPAU_Node@?$_Tree_nod@V?$_Tmap_traits@KVioHashString@@U?$less@K@std@@V?$allocator@U?$pair@$$CBKVioHashString@@@std@@@3@$0A@@std@@@2@@Z PROC ; std::_Tree_val<std::_Tmap_traits<unsigned long,ioHashString,std::less<unsigned long>,std::allocator<std::pair<unsigned long const ,ioHashString> >,0> >::_Color, COMDAT

; 606  : 		{	// return reference to color in node

  00000	55		 push	 ebp
  00001	8b ec		 mov	 ebp, esp

; 607  : 		return ((char&)(*_Pnode)._Color);

  00003	8b 45 08	 mov	 eax, DWORD PTR __Pnode$[ebp]
  00006	83 c0 20	 add	 eax, 32			; 00000020H

; 608  : 		}

  00009	5d		 pop	 ebp
  0000a	c3		 ret	 0
?_Color@?$_Tree_val@V?$_Tmap_traits@KVioHashString@@U?$less@K@std@@V?$allocator@U?$pair@$$CBKVioHashString@@@std@@@3@$0A@@std@@@std@@SAAADPAU_Node@?$_Tree_nod@V?$_Tmap_traits@KVioHashString@@U?$less@K@std@@V?$allocator@U?$pair@$$CBKVioHashString@@@std@@@3@$0A@@std@@@2@@Z ENDP ; std::_Tree_val<std::_Tmap_traits<unsigned long,ioHashString,std::less<unsigned long>,std::allocator<std::pair<unsigned long const ,ioHashString> >,0> >::_Color
_TEXT	ENDS
PUBLIC	?_Max@?$_Tree_val@V?$_Tmap_traits@KVioHashString@@U?$less@K@std@@V?$allocator@U?$pair@$$CBKVioHashString@@@std@@@3@$0A@@std@@@std@@SAPAU_Node@?$_Tree_nod@V?$_Tmap_traits@KVioHashString@@U?$less@K@std@@V?$allocator@U?$pair@$$CBKVioHashString@@@std@@@3@$0A@@std@@@2@PAU342@@Z ; std::_Tree_val<std::_Tmap_traits<unsigned long,ioHashString,std::less<unsigned long>,std::allocator<std::pair<unsigned long const ,ioHashString> >,0> >::_Max
; Function compile flags: /Ogsp
;	COMDAT ?_Max@?$_Tree_val@V?$_Tmap_traits@KVioHashString@@U?$less@K@std@@V?$allocator@U?$pair@$$CBKVioHashString@@@std@@@3@$0A@@std@@@std@@SAPAU_Node@?$_Tree_nod@V?$_Tmap_traits@KVioHashString@@U?$less@K@std@@V?$allocator@U?$pair@$$CBKVioHashString@@@std@@@3@$0A@@std@@@2@PAU342@@Z
_TEXT	SEGMENT
__Pnode$ = 8						; size = 4
?_Max@?$_Tree_val@V?$_Tmap_traits@KVioHashString@@U?$less@K@std@@V?$allocator@U?$pair@$$CBKVioHashString@@@std@@@3@$0A@@std@@@std@@SAPAU_Node@?$_Tree_nod@V?$_Tmap_traits@KVioHashString@@U?$less@K@std@@V?$allocator@U?$pair@$$CBKVioHashString@@@std@@@3@$0A@@std@@@2@PAU342@@Z PROC ; std::_Tree_val<std::_Tmap_traits<unsigned long,ioHashString,std::less<unsigned long>,std::allocator<std::pair<unsigned long const ,ioHashString> >,0> >::_Max, COMDAT

; 641  : 		{	// return rightmost node in subtree at _Pnode

  00000	55		 push	 ebp
  00001	8b ec		 mov	 ebp, esp

; 642  : 		while (!_Isnil(_Right(_Pnode)))

  00003	8b 45 08	 mov	 eax, DWORD PTR __Pnode$[ebp]
  00006	eb 02		 jmp	 SHORT $LN14@Max
$LL2@Max:

; 643  : 			_Pnode = _Right(_Pnode);

  00008	8b c1		 mov	 eax, ecx
$LN14@Max:

; 642  : 		while (!_Isnil(_Right(_Pnode)))

  0000a	8b 48 08	 mov	 ecx, DWORD PTR [eax+8]
  0000d	80 79 21 00	 cmp	 BYTE PTR [ecx+33], 0
  00011	74 f5		 je	 SHORT $LL2@Max

; 644  : 		return (_Pnode);
; 645  : 		}

  00013	5d		 pop	 ebp
  00014	c3		 ret	 0
?_Max@?$_Tree_val@V?$_Tmap_traits@KVioHashString@@U?$less@K@std@@V?$allocator@U?$pair@$$CBKVioHashString@@@std@@@3@$0A@@std@@@std@@SAPAU_Node@?$_Tree_nod@V?$_Tmap_traits@KVioHashString@@U?$less@K@std@@V?$allocator@U?$pair@$$CBKVioHashString@@@std@@@3@$0A@@std@@@2@PAU342@@Z ENDP ; std::_Tree_val<std::_Tmap_traits<unsigned long,ioHashString,std::less<unsigned long>,std::allocator<std::pair<unsigned long const ,ioHashString> >,0> >::_Max
_TEXT	ENDS
PUBLIC	?_Min@?$_Tree_val@V?$_Tmap_traits@KVioHashString@@U?$less@K@std@@V?$allocator@U?$pair@$$CBKVioHashString@@@std@@@3@$0A@@std@@@std@@SAPAU_Node@?$_Tree_nod@V?$_Tmap_traits@KVioHashString@@U?$less@K@std@@V?$allocator@U?$pair@$$CBKVioHashString@@@std@@@3@$0A@@std@@@2@PAU342@@Z ; std::_Tree_val<std::_Tmap_traits<unsigned long,ioHashString,std::less<unsigned long>,std::allocator<std::pair<unsigned long const ,ioHashString> >,0> >::_Min
; Function compile flags: /Ogsp
;	COMDAT ?_Min@?$_Tree_val@V?$_Tmap_traits@KVioHashString@@U?$less@K@std@@V?$allocator@U?$pair@$$CBKVioHashString@@@std@@@3@$0A@@std@@@std@@SAPAU_Node@?$_Tree_nod@V?$_Tmap_traits@KVioHashString@@U?$less@K@std@@V?$allocator@U?$pair@$$CBKVioHashString@@@std@@@3@$0A@@std@@@2@PAU342@@Z
_TEXT	SEGMENT
__Pnode$ = 8						; size = 4
?_Min@?$_Tree_val@V?$_Tmap_traits@KVioHashString@@U?$less@K@std@@V?$allocator@U?$pair@$$CBKVioHashString@@@std@@@3@$0A@@std@@@std@@SAPAU_Node@?$_Tree_nod@V?$_Tmap_traits@KVioHashString@@U?$less@K@std@@V?$allocator@U?$pair@$$CBKVioHashString@@@std@@@3@$0A@@std@@@2@PAU342@@Z PROC ; std::_Tree_val<std::_Tmap_traits<unsigned long,ioHashString,std::less<unsigned long>,std::allocator<std::pair<unsigned long const ,ioHashString> >,0> >::_Min, COMDAT

; 648  : 		{	// return leftmost node in subtree at _Pnode

  00000	55		 push	 ebp
  00001	8b ec		 mov	 ebp, esp

; 649  : 		while (!_Isnil(_Left(_Pnode)))

  00003	8b 45 08	 mov	 eax, DWORD PTR __Pnode$[ebp]
  00006	eb 02		 jmp	 SHORT $LN14@Min
$LL2@Min:

; 650  : 			_Pnode = _Left(_Pnode);

  00008	8b c1		 mov	 eax, ecx
$LN14@Min:

; 649  : 		while (!_Isnil(_Left(_Pnode)))

  0000a	8b 08		 mov	 ecx, DWORD PTR [eax]
  0000c	80 79 21 00	 cmp	 BYTE PTR [ecx+33], 0
  00010	74 f6		 je	 SHORT $LL2@Min

; 651  : 		return (_Pnode);
; 652  : 		}

  00012	5d		 pop	 ebp
  00013	c3		 ret	 0
?_Min@?$_Tree_val@V?$_Tmap_traits@KVioHashString@@U?$less@K@std@@V?$allocator@U?$pair@$$CBKVioHashString@@@std@@@3@$0A@@std@@@std@@SAPAU_Node@?$_Tree_nod@V?$_Tmap_traits@KVioHashString@@U?$less@K@std@@V?$allocator@U?$pair@$$CBKVioHashString@@@std@@@3@$0A@@std@@@2@PAU342@@Z ENDP ; std::_Tree_val<std::_Tmap_traits<unsigned long,ioHashString,std::less<unsigned long>,std::allocator<std::pair<unsigned long const ,ioHashString> >,0> >::_Min
_TEXT	ENDS
PUBLIC	??0?$_Tmap_traits@KVioHashString@@U?$less@K@std@@V?$allocator@U?$pair@$$CBKVioHashString@@@std@@@3@$0A@@std@@QAE@U?$less@K@1@@Z ; std::_Tmap_traits<unsigned long,ioHashString,std::less<unsigned long>,std::allocator<std::pair<unsigned long const ,ioHashString> >,0>::_Tmap_traits<unsigned long,ioHashString,std::less<unsigned long>,std::allocator<std::pair<unsigned long const ,ioHashString> >,0>
; Function compile flags: /Ogsp
; File c:\program files (x86)\microsoft visual studio 10.0\vc\include\map
;	COMDAT ??0?$_Tmap_traits@KVioHashString@@U?$less@K@std@@V?$allocator@U?$pair@$$CBKVioHashString@@@std@@@3@$0A@@std@@QAE@U?$less@K@1@@Z
_TEXT	SEGMENT
__Parg$ = 8						; size = 1
??0?$_Tmap_traits@KVioHashString@@U?$less@K@std@@V?$allocator@U?$pair@$$CBKVioHashString@@@std@@@3@$0A@@std@@QAE@U?$less@K@1@@Z PROC ; std::_Tmap_traits<unsigned long,ioHashString,std::less<unsigned long>,std::allocator<std::pair<unsigned long const ,ioHashString> >,0>::_Tmap_traits<unsigned long,ioHashString,std::less<unsigned long>,std::allocator<std::pair<unsigned long const ,ioHashString> >,0>, COMDAT
; _this$ = ecx

; 40   : 		{	// construct with specified comparator

  00000	8b c1		 mov	 eax, ecx

; 41   : 		}

  00002	c2 04 00	 ret	 4
??0?$_Tmap_traits@KVioHashString@@U?$less@K@std@@V?$allocator@U?$pair@$$CBKVioHashString@@@std@@@3@$0A@@std@@QAE@U?$less@K@1@@Z ENDP ; std::_Tmap_traits<unsigned long,ioHashString,std::less<unsigned long>,std::allocator<std::pair<unsigned long const ,ioHashString> >,0>::_Tmap_traits<unsigned long,ioHashString,std::less<unsigned long>,std::allocator<std::pair<unsigned long const ,ioHashString> >,0>
_TEXT	ENDS
PUBLIC	??0?$_Vector_const_iterator@V?$_Vector_val@USwingParam@@V?$allocator@USwingParam@@@std@@@std@@@std@@QAE@PAUSwingParam@@PBU_Container_base0@1@@Z ; std::_Vector_const_iterator<std::_Vector_val<SwingParam,std::allocator<SwingParam> > >::_Vector_const_iterator<std::_Vector_val<SwingParam,std::allocator<SwingParam> > >
; Function compile flags: /Ogsp
; File c:\program files (x86)\microsoft visual studio 10.0\vc\include\vector
;	COMDAT ??0?$_Vector_const_iterator@V?$_Vector_val@USwingParam@@V?$allocator@USwingParam@@@std@@@std@@@std@@QAE@PAUSwingParam@@PBU_Container_base0@1@@Z
_TEXT	SEGMENT
__Parg$ = 8						; size = 4
__Pvector$ = 12						; size = 4
??0?$_Vector_const_iterator@V?$_Vector_val@USwingParam@@V?$allocator@USwingParam@@@std@@@std@@@std@@QAE@PAUSwingParam@@PBU_Container_base0@1@@Z PROC ; std::_Vector_const_iterator<std::_Vector_val<SwingParam,std::allocator<SwingParam> > >::_Vector_const_iterator<std::_Vector_val<SwingParam,std::allocator<SwingParam> > >, COMDAT
; _this$ = ecx

; 45   : 		{	// construct with pointer _Parg

  00000	55		 push	 ebp
  00001	8b ec		 mov	 ebp, esp
  00003	8b c1		 mov	 eax, ecx
  00005	8b 4d 08	 mov	 ecx, DWORD PTR __Parg$[ebp]
  00008	89 08		 mov	 DWORD PTR [eax], ecx

; 46   : 		this->_Adopt(_Pvector);
; 47   : 		}

  0000a	5d		 pop	 ebp
  0000b	c2 08 00	 ret	 8
??0?$_Vector_const_iterator@V?$_Vector_val@USwingParam@@V?$allocator@USwingParam@@@std@@@std@@@std@@QAE@PAUSwingParam@@PBU_Container_base0@1@@Z ENDP ; std::_Vector_const_iterator<std::_Vector_val<SwingParam,std::allocator<SwingParam> > >::_Vector_const_iterator<std::_Vector_val<SwingParam,std::allocator<SwingParam> > >
_TEXT	ENDS
PUBLIC	??E?$_Tree_unchecked_const_iterator@V?$_Tree_val@V?$_Tmap_traits@KVioHashString@@U?$less@K@std@@V?$allocator@U?$pair@$$CBKVioHashString@@@std@@@3@$0A@@std@@@std@@U_Iterator_base0@2@@std@@QAEAAV01@XZ ; std::_Tree_unchecked_const_iterator<std::_Tree_val<std::_Tmap_traits<unsigned long,ioHashString,std::less<unsigned long>,std::allocator<std::pair<unsigned long const ,ioHashString> >,0> >,std::_Iterator_base0>::operator++
; Function compile flags: /Ogsp
; File c:\program files (x86)\microsoft visual studio 10.0\vc\include\xtree
;	COMDAT ??E?$_Tree_unchecked_const_iterator@V?$_Tree_val@V?$_Tmap_traits@KVioHashString@@U?$less@K@std@@V?$allocator@U?$pair@$$CBKVioHashString@@@std@@@3@$0A@@std@@@std@@U_Iterator_base0@2@@std@@QAEAAV01@XZ
_TEXT	SEGMENT
??E?$_Tree_unchecked_const_iterator@V?$_Tree_val@V?$_Tmap_traits@KVioHashString@@U?$less@K@std@@V?$allocator@U?$pair@$$CBKVioHashString@@@std@@@3@$0A@@std@@@std@@U_Iterator_base0@2@@std@@QAEAAV01@XZ PROC ; std::_Tree_unchecked_const_iterator<std::_Tree_val<std::_Tmap_traits<unsigned long,ioHashString,std::less<unsigned long>,std::allocator<std::pair<unsigned long const ,ioHashString> >,0> >,std::_Iterator_base0>::operator++, COMDAT
; _this$ = ecx

; 58   : 		{	// preincrement

  00000	8b c1		 mov	 eax, ecx

; 59   : 		if (_Mytree::_Isnil(_Ptr))

  00002	8b 08		 mov	 ecx, DWORD PTR [eax]
  00004	53		 push	 ebx
  00005	32 db		 xor	 bl, bl
  00007	38 59 21	 cmp	 BYTE PTR [ecx+33], bl
  0000a	75 2d		 jne	 SHORT $LN3@operator

; 60   : 			;	// end() shouldn't be incremented, don't move
; 61   : 		else if (!_Mytree::_Isnil(_Mytree::_Right(_Ptr)))

  0000c	8b 51 08	 mov	 edx, DWORD PTR [ecx+8]
  0000f	38 5a 21	 cmp	 BYTE PTR [edx+33], bl
  00012	75 0d		 jne	 SHORT $LN34@operator

; 62   : 			_Ptr = _Mytree::_Min(
; 63   : 				_Mytree::_Right(_Ptr));	// ==> smallest of right subtree

$LL18@operator:
  00014	8b ca		 mov	 ecx, edx
  00016	8b 11		 mov	 edx, DWORD PTR [ecx]
  00018	38 5a 21	 cmp	 BYTE PTR [edx+33], bl
  0001b	74 f7		 je	 SHORT $LL18@operator
  0001d	89 08		 mov	 DWORD PTR [eax], ecx
  0001f	5b		 pop	 ebx

; 71   : 			}
; 72   : 		return (*this);
; 73   : 		}

  00020	c3		 ret	 0
$LN34@operator:

; 64   : 		else
; 65   : 			{	// climb looking for right subtree
; 66   : 			_Nodeptr _Pnode;
; 67   : 			while (!_Mytree::_Isnil(_Pnode = _Mytree::_Parent(_Ptr))
; 68   : 				&& _Ptr == _Mytree::_Right(_Pnode))

  00021	8b 51 04	 mov	 edx, DWORD PTR [ecx+4]
  00024	eb 0c		 jmp	 SHORT $LN38@operator
$LL2@operator:
  00026	8b 08		 mov	 ecx, DWORD PTR [eax]
  00028	3b 4a 08	 cmp	 ecx, DWORD PTR [edx+8]
  0002b	75 0a		 jne	 SHORT $LN1@operator

; 69   : 				_Ptr = _Pnode;	// ==> parent while right subtree

  0002d	89 10		 mov	 DWORD PTR [eax], edx
  0002f	8b 52 04	 mov	 edx, DWORD PTR [edx+4]
$LN38@operator:

; 64   : 		else
; 65   : 			{	// climb looking for right subtree
; 66   : 			_Nodeptr _Pnode;
; 67   : 			while (!_Mytree::_Isnil(_Pnode = _Mytree::_Parent(_Ptr))
; 68   : 				&& _Ptr == _Mytree::_Right(_Pnode))

  00032	38 5a 21	 cmp	 BYTE PTR [edx+33], bl
  00035	74 ef		 je	 SHORT $LL2@operator
$LN1@operator:

; 70   : 			_Ptr = _Pnode;	// ==> parent (head if end())

  00037	89 10		 mov	 DWORD PTR [eax], edx
$LN3@operator:
  00039	5b		 pop	 ebx

; 71   : 			}
; 72   : 		return (*this);
; 73   : 		}

  0003a	c3		 ret	 0
??E?$_Tree_unchecked_const_iterator@V?$_Tree_val@V?$_Tmap_traits@KVioHashString@@U?$less@K@std@@V?$allocator@U?$pair@$$CBKVioHashString@@@std@@@3@$0A@@std@@@std@@U_Iterator_base0@2@@std@@QAEAAV01@XZ ENDP ; std::_Tree_unchecked_const_iterator<std::_Tree_val<std::_Tmap_traits<unsigned long,ioHashString,std::less<unsigned long>,std::allocator<std::pair<unsigned long const ,ioHashString> >,0> >,std::_Iterator_base0>::operator++
_TEXT	ENDS
PUBLIC	?_Compat@?$_Vector_const_iterator@V?$_Vector_val@USwingParam@@V?$allocator@USwingParam@@@std@@@std@@@std@@QBEXABV12@@Z ; std::_Vector_const_iterator<std::_Vector_val<SwingParam,std::allocator<SwingParam> > >::_Compat
; Function compile flags: /Ogsp
; File c:\program files (x86)\microsoft visual studio 10.0\vc\include\vector
;	COMDAT ?_Compat@?$_Vector_const_iterator@V?$_Vector_val@USwingParam@@V?$allocator@USwingParam@@@std@@@std@@@std@@QBEXABV12@@Z
_TEXT	SEGMENT
___formal$ = 8						; size = 4
?_Compat@?$_Vector_const_iterator@V?$_Vector_val@USwingParam@@V?$allocator@USwingParam@@@std@@@std@@@std@@QBEXABV12@@Z PROC ; std::_Vector_const_iterator<std::_Vector_val<SwingParam,std::allocator<SwingParam> > >::_Compat, COMDAT
; _this$ = ecx

; 253  : 		}

  00000	c2 04 00	 ret	 4
?_Compat@?$_Vector_const_iterator@V?$_Vector_val@USwingParam@@V?$allocator@USwingParam@@@std@@@std@@@std@@QBEXABV12@@Z ENDP ; std::_Vector_const_iterator<std::_Vector_val<SwingParam,std::allocator<SwingParam> > >::_Compat
_TEXT	ENDS
PUBLIC	??$addressof@$$CBUSwingParam@@@std@@YAPBUSwingParam@@ABU1@@Z ; std::addressof<SwingParam const >
; Function compile flags: /Ogsp
; File c:\program files (x86)\microsoft visual studio 10.0\vc\include\xmemory
;	COMDAT ??$addressof@$$CBUSwingParam@@@std@@YAPBUSwingParam@@ABU1@@Z
_TEXT	SEGMENT
__Val$ = 8						; size = 4
??$addressof@$$CBUSwingParam@@@std@@YAPBUSwingParam@@ABU1@@Z PROC ; std::addressof<SwingParam const >, COMDAT

; 110  : 	{	// return address of _Val

  00000	55		 push	 ebp
  00001	8b ec		 mov	 ebp, esp

; 111  : 	return ((_Ty *) &(char&)_Val);

  00003	8b 45 08	 mov	 eax, DWORD PTR __Val$[ebp]

; 112  : 	}

  00006	5d		 pop	 ebp
  00007	c3		 ret	 0
??$addressof@$$CBUSwingParam@@@std@@YAPBUSwingParam@@ABU1@@Z ENDP ; std::addressof<SwingParam const >
_TEXT	ENDS
PUBLIC	??$addressof@U?$pair@$$CBKVioHashString@@@std@@@std@@YAPAU?$pair@$$CBKVioHashString@@@0@AAU10@@Z ; std::addressof<std::pair<unsigned long const ,ioHashString> >
; Function compile flags: /Ogsp
;	COMDAT ??$addressof@U?$pair@$$CBKVioHashString@@@std@@@std@@YAPAU?$pair@$$CBKVioHashString@@@0@AAU10@@Z
_TEXT	SEGMENT
__Val$ = 8						; size = 4
??$addressof@U?$pair@$$CBKVioHashString@@@std@@@std@@YAPAU?$pair@$$CBKVioHashString@@@0@AAU10@@Z PROC ; std::addressof<std::pair<unsigned long const ,ioHashString> >, COMDAT

; 110  : 	{	// return address of _Val

  00000	55		 push	 ebp
  00001	8b ec		 mov	 ebp, esp

; 111  : 	return ((_Ty *) &(char&)_Val);

  00003	8b 45 08	 mov	 eax, DWORD PTR __Val$[ebp]

; 112  : 	}

  00006	5d		 pop	 ebp
  00007	c3		 ret	 0
??$addressof@U?$pair@$$CBKVioHashString@@@std@@@std@@YAPAU?$pair@$$CBKVioHashString@@@0@AAU10@@Z ENDP ; std::addressof<std::pair<unsigned long const ,ioHashString> >
_TEXT	ENDS
PUBLIC	??$_Kfn@$$CBKVioHashString@@@?$_Tmap_traits@KVioHashString@@U?$less@K@std@@V?$allocator@U?$pair@$$CBKVioHashString@@@std@@@3@$0A@@std@@SAABKABU?$pair@$$CBKVioHashString@@@1@@Z ; std::_Tmap_traits<unsigned long,ioHashString,std::less<unsigned long>,std::allocator<std::pair<unsigned long const ,ioHashString> >,0>::_Kfn<unsigned long const ,ioHashString>
; Function compile flags: /Ogsp
; File c:\program files (x86)\microsoft visual studio 10.0\vc\include\map
;	COMDAT ??$_Kfn@$$CBKVioHashString@@@?$_Tmap_traits@KVioHashString@@U?$less@K@std@@V?$allocator@U?$pair@$$CBKVioHashString@@@std@@@3@$0A@@std@@SAABKABU?$pair@$$CBKVioHashString@@@1@@Z
_TEXT	SEGMENT
__Val$ = 8						; size = 4
??$_Kfn@$$CBKVioHashString@@@?$_Tmap_traits@KVioHashString@@U?$less@K@std@@V?$allocator@U?$pair@$$CBKVioHashString@@@std@@@3@$0A@@std@@SAABKABU?$pair@$$CBKVioHashString@@@1@@Z PROC ; std::_Tmap_traits<unsigned long,ioHashString,std::less<unsigned long>,std::allocator<std::pair<unsigned long const ,ioHashString> >,0>::_Kfn<unsigned long const ,ioHashString>, COMDAT

; 66   : 		static const _Kty& _Kfn(const _STD pair<_Ty1, _Ty2>& _Val)

  00000	55		 push	 ebp
  00001	8b ec		 mov	 ebp, esp

; 67   : 		{	// extract key from element value
; 68   : 		return (_Val.first);

  00003	8b 45 08	 mov	 eax, DWORD PTR __Val$[ebp]

; 69   : 		}

  00006	5d		 pop	 ebp
  00007	c3		 ret	 0
??$_Kfn@$$CBKVioHashString@@@?$_Tmap_traits@KVioHashString@@U?$less@K@std@@V?$allocator@U?$pair@$$CBKVioHashString@@@std@@@3@$0A@@std@@SAABKABU?$pair@$$CBKVioHashString@@@1@@Z ENDP ; std::_Tmap_traits<unsigned long,ioHashString,std::less<unsigned long>,std::allocator<std::pair<unsigned long const ,ioHashString> >,0>::_Kfn<unsigned long const ,ioHashString>
_TEXT	ENDS
PUBLIC	__TI2?AVbad_alloc@std@@
PUBLIC	??$_Allocate@USwingParam@@@std@@YAPAUSwingParam@@IPAU1@@Z ; std::_Allocate<SwingParam>
PUBLIC	__CTA2?AVbad_alloc@std@@
PUBLIC	__CT??_R0?AVbad_alloc@std@@@8??0bad_alloc@std@@QAE@ABV01@@Z12
PUBLIC	??0bad_alloc@std@@QAE@ABV01@@Z			; std::bad_alloc::bad_alloc
PUBLIC	__CT??_R0?AVexception@std@@@8??0exception@std@@QAE@ABV01@@Z12
EXTRN	??2@YAPAXI@Z:PROC				; operator new
EXTRN	__CxxThrowException@8:PROC
EXTRN	??0exception@std@@QAE@ABV01@@Z:PROC		; std::exception::exception
;	COMDAT __CT??_R0?AVexception@std@@@8??0exception@std@@QAE@ABV01@@Z12
; File c:\program files (x86)\microsoft visual studio 10.0\vc\include\exception
xdata$x	SEGMENT
__CT??_R0?AVexception@std@@@8??0exception@std@@QAE@ABV01@@Z12 DD 00H
	DD	FLAT:??_R0?AVexception@std@@@8
	DD	00H
	DD	0ffffffffH
	ORG $+4
	DD	0cH
	DD	FLAT:??0exception@std@@QAE@ABV01@@Z
xdata$x	ENDS
;	COMDAT __CT??_R0?AVbad_alloc@std@@@8??0bad_alloc@std@@QAE@ABV01@@Z12
xdata$x	SEGMENT
__CT??_R0?AVbad_alloc@std@@@8??0bad_alloc@std@@QAE@ABV01@@Z12 DD 00H
	DD	FLAT:??_R0?AVbad_alloc@std@@@8
	DD	00H
	DD	0ffffffffH
	ORG $+4
	DD	0cH
	DD	FLAT:??0bad_alloc@std@@QAE@ABV01@@Z
xdata$x	ENDS
;	COMDAT __CTA2?AVbad_alloc@std@@
xdata$x	SEGMENT
__CTA2?AVbad_alloc@std@@ DD 02H
	DD	FLAT:__CT??_R0?AVbad_alloc@std@@@8??0bad_alloc@std@@QAE@ABV01@@Z12
	DD	FLAT:__CT??_R0?AVexception@std@@@8??0exception@std@@QAE@ABV01@@Z12
xdata$x	ENDS
;	COMDAT __TI2?AVbad_alloc@std@@
xdata$x	SEGMENT
__TI2?AVbad_alloc@std@@ DD 00H
	DD	FLAT:??1bad_alloc@std@@UAE@XZ
	DD	00H
	DD	FLAT:__CTA2?AVbad_alloc@std@@
; Function compile flags: /Ogsp
; File c:\program files (x86)\microsoft visual studio 10.0\vc\include\xmemory
xdata$x	ENDS
;	COMDAT ??$_Allocate@USwingParam@@@std@@YAPAUSwingParam@@IPAU1@@Z
_TEXT	SEGMENT
$T528128 = -12						; size = 12
$T528133 = 8						; size = 4
__Count$ = 8						; size = 4
___formal$ = 12						; size = 4
??$_Allocate@USwingParam@@@std@@YAPAUSwingParam@@IPAU1@@Z PROC ; std::_Allocate<SwingParam>, COMDAT

; 30   : 	{	// allocate storage for _Count elements of type _Ty

  00000	55		 push	 ebp
  00001	8b ec		 mov	 ebp, esp

; 31   : 	void *_Ptr = 0;
; 32   : 
; 33   : 	if (_Count <= 0)

  00003	8b 4d 08	 mov	 ecx, DWORD PTR __Count$[ebp]
  00006	83 ec 0c	 sub	 esp, 12			; 0000000cH
  00009	33 c0		 xor	 eax, eax
  0000b	85 c9		 test	 ecx, ecx

; 34   : 		_Count = 0;
; 35   : 	else if (((_SIZT)(-1) / sizeof (_Ty) < _Count)

  0000d	74 3c		 je	 SHORT $LN5@Allocate

; 36   : 		|| (_Ptr = ::operator new(_Count * sizeof (_Ty))) == 0)

  0000f	81 f9 ff ff ff
	0f		 cmp	 ecx, 268435455		; 0fffffffH
  00015	77 0e		 ja	 SHORT $LN1@Allocate
  00017	c1 e1 04	 shl	 ecx, 4
  0001a	51		 push	 ecx
  0001b	e8 00 00 00 00	 call	 ??2@YAPAXI@Z		; operator new
  00020	59		 pop	 ecx
  00021	85 c0		 test	 eax, eax

; 38   : 
; 39   : 	return ((_Ty _FARQ *)_Ptr);

  00023	75 26		 jne	 SHORT $LN5@Allocate
$LN1@Allocate:

; 37   : 		_THROW_NCEE(bad_alloc, 0);

  00025	83 65 08 00	 and	 DWORD PTR $T528133[ebp], 0
  00029	8d 45 08	 lea	 eax, DWORD PTR $T528133[ebp]
  0002c	50		 push	 eax
  0002d	8d 4d f4	 lea	 ecx, DWORD PTR $T528128[ebp]
  00030	ff 15 00 00 00
	00		 call	 DWORD PTR __imp_??0exception@std@@QAE@ABQBD@Z
  00036	68 00 00 00 00	 push	 OFFSET __TI2?AVbad_alloc@std@@
  0003b	8d 45 f4	 lea	 eax, DWORD PTR $T528128[ebp]
  0003e	50		 push	 eax
  0003f	c7 45 f4 00 00
	00 00		 mov	 DWORD PTR $T528128[ebp], OFFSET ??_7bad_alloc@std@@6B@
  00046	e8 00 00 00 00	 call	 __CxxThrowException@8
$LN10@Allocate:
$LN5@Allocate:

; 40   : 	}

  0004b	c9		 leave
  0004c	c3		 ret	 0
$LN9@Allocate:
??$_Allocate@USwingParam@@@std@@YAPAUSwingParam@@IPAU1@@Z ENDP ; std::_Allocate<SwingParam>
_TEXT	ENDS
PUBLIC	??$?0U?$pair@$$CBKVioHashString@@@std@@@?$allocator@U_Node@?$_Tree_nod@V?$_Tmap_traits@KVioHashString@@U?$less@K@std@@V?$allocator@U?$pair@$$CBKVioHashString@@@std@@@3@$0A@@std@@@std@@@std@@QAE@ABV?$allocator@U?$pair@$$CBKVioHashString@@@std@@@1@@Z ; std::allocator<std::_Tree_nod<std::_Tmap_traits<unsigned long,ioHashString,std::less<unsigned long>,std::allocator<std::pair<unsigned long const ,ioHashString> >,0> >::_Node>::allocator<std::_Tree_nod<std::_Tmap_traits<unsigned long,ioHashString,std::less<unsigned long>,std::allocator<std::pair<unsigned long const ,ioHashString> >,0> >::_Node><std::pair<unsigned long const ,ioHashString> >
; Function compile flags: /Ogsp
;	COMDAT ??$?0U?$pair@$$CBKVioHashString@@@std@@@?$allocator@U_Node@?$_Tree_nod@V?$_Tmap_traits@KVioHashString@@U?$less@K@std@@V?$allocator@U?$pair@$$CBKVioHashString@@@std@@@3@$0A@@std@@@std@@@std@@QAE@ABV?$allocator@U?$pair@$$CBKVioHashString@@@std@@@1@@Z
_TEXT	SEGMENT
___formal$ = 8						; size = 4
??$?0U?$pair@$$CBKVioHashString@@@std@@@?$allocator@U_Node@?$_Tree_nod@V?$_Tmap_traits@KVioHashString@@U?$less@K@std@@V?$allocator@U?$pair@$$CBKVioHashString@@@std@@@3@$0A@@std@@@std@@@std@@QAE@ABV?$allocator@U?$pair@$$CBKVioHashString@@@std@@@1@@Z PROC ; std::allocator<std::_Tree_nod<std::_Tmap_traits<unsigned long,ioHashString,std::less<unsigned long>,std::allocator<std::pair<unsigned long const ,ioHashString> >,0> >::_Node>::allocator<std::_Tree_nod<std::_Tmap_traits<unsigned long,ioHashString,std::less<unsigned long>,std::allocator<std::pair<unsigned long const ,ioHashString> >,0> >::_Node><std::pair<unsigned long const ,ioHashString> >, COMDAT
; _this$ = ecx

; 170  : 		_ALLOCATOR(const _ALLOCATOR<_Other>&) _THROW0()

  00000	8b c1		 mov	 eax, ecx

; 171  : 		{	// construct from a related allocator (do nothing)
; 172  : 		}

  00002	c2 04 00	 ret	 4
??$?0U?$pair@$$CBKVioHashString@@@std@@@?$allocator@U_Node@?$_Tree_nod@V?$_Tmap_traits@KVioHashString@@U?$less@K@std@@V?$allocator@U?$pair@$$CBKVioHashString@@@std@@@3@$0A@@std@@@std@@@std@@QAE@ABV?$allocator@U?$pair@$$CBKVioHashString@@@std@@@1@@Z ENDP ; std::allocator<std::_Tree_nod<std::_Tmap_traits<unsigned long,ioHashString,std::less<unsigned long>,std::allocator<std::pair<unsigned long const ,ioHashString> >,0> >::_Node>::allocator<std::_Tree_nod<std::_Tmap_traits<unsigned long,ioHashString,std::less<unsigned long>,std::allocator<std::pair<unsigned long const ,ioHashString> >,0> >::_Node><std::pair<unsigned long const ,ioHashString> >
_TEXT	ENDS
PUBLIC	??$_Allocate@U_Node@?$_Tree_nod@V?$_Tmap_traits@KVioHashString@@U?$less@K@std@@V?$allocator@U?$pair@$$CBKVioHashString@@@std@@@3@$0A@@std@@@std@@@std@@YAPAU_Node@?$_Tree_nod@V?$_Tmap_traits@KVioHashString@@U?$less@K@std@@V?$allocator@U?$pair@$$CBKVioHashString@@@std@@@3@$0A@@std@@@0@IPAU120@@Z ; std::_Allocate<std::_Tree_nod<std::_Tmap_traits<unsigned long,ioHashString,std::less<unsigned long>,std::allocator<std::pair<unsigned long const ,ioHashString> >,0> >::_Node>
; Function compile flags: /Ogsp
;	COMDAT ??$_Allocate@U_Node@?$_Tree_nod@V?$_Tmap_traits@KVioHashString@@U?$less@K@std@@V?$allocator@U?$pair@$$CBKVioHashString@@@std@@@3@$0A@@std@@@std@@@std@@YAPAU_Node@?$_Tree_nod@V?$_Tmap_traits@KVioHashString@@U?$less@K@std@@V?$allocator@U?$pair@$$CBKVioHashString@@@std@@@3@$0A@@std@@@0@IPAU120@@Z
_TEXT	SEGMENT
$T528141 = -12						; size = 12
$T528145 = 8						; size = 4
__Count$ = 8						; size = 4
___formal$ = 12						; size = 4
??$_Allocate@U_Node@?$_Tree_nod@V?$_Tmap_traits@KVioHashString@@U?$less@K@std@@V?$allocator@U?$pair@$$CBKVioHashString@@@std@@@3@$0A@@std@@@std@@@std@@YAPAU_Node@?$_Tree_nod@V?$_Tmap_traits@KVioHashString@@U?$less@K@std@@V?$allocator@U?$pair@$$CBKVioHashString@@@std@@@3@$0A@@std@@@0@IPAU120@@Z PROC ; std::_Allocate<std::_Tree_nod<std::_Tmap_traits<unsigned long,ioHashString,std::less<unsigned long>,std::allocator<std::pair<unsigned long const ,ioHashString> >,0> >::_Node>, COMDAT

; 30   : 	{	// allocate storage for _Count elements of type _Ty

  00000	55		 push	 ebp
  00001	8b ec		 mov	 ebp, esp

; 31   : 	void *_Ptr = 0;
; 32   : 
; 33   : 	if (_Count <= 0)

  00003	8b 4d 08	 mov	 ecx, DWORD PTR __Count$[ebp]
  00006	83 ec 0c	 sub	 esp, 12			; 0000000cH
  00009	33 c0		 xor	 eax, eax
  0000b	85 c9		 test	 ecx, ecx

; 34   : 		_Count = 0;
; 35   : 	else if (((_SIZT)(-1) / sizeof (_Ty) < _Count)

  0000d	74 3c		 je	 SHORT $LN5@Allocate@2

; 36   : 		|| (_Ptr = ::operator new(_Count * sizeof (_Ty))) == 0)

  0000f	81 f9 c7 71 1c
	07		 cmp	 ecx, 119304647		; 071c71c7H
  00015	77 0e		 ja	 SHORT $LN1@Allocate@2
  00017	6b c9 24	 imul	 ecx, 36			; 00000024H
  0001a	51		 push	 ecx
  0001b	e8 00 00 00 00	 call	 ??2@YAPAXI@Z		; operator new
  00020	59		 pop	 ecx
  00021	85 c0		 test	 eax, eax

; 38   : 
; 39   : 	return ((_Ty _FARQ *)_Ptr);

  00023	75 26		 jne	 SHORT $LN5@Allocate@2
$LN1@Allocate@2:

; 37   : 		_THROW_NCEE(bad_alloc, 0);

  00025	83 65 08 00	 and	 DWORD PTR $T528145[ebp], 0
  00029	8d 45 08	 lea	 eax, DWORD PTR $T528145[ebp]
  0002c	50		 push	 eax
  0002d	8d 4d f4	 lea	 ecx, DWORD PTR $T528141[ebp]
  00030	ff 15 00 00 00
	00		 call	 DWORD PTR __imp_??0exception@std@@QAE@ABQBD@Z
  00036	68 00 00 00 00	 push	 OFFSET __TI2?AVbad_alloc@std@@
  0003b	8d 45 f4	 lea	 eax, DWORD PTR $T528141[ebp]
  0003e	50		 push	 eax
  0003f	c7 45 f4 00 00
	00 00		 mov	 DWORD PTR $T528141[ebp], OFFSET ??_7bad_alloc@std@@6B@
  00046	e8 00 00 00 00	 call	 __CxxThrowException@8
$LN10@Allocate@2:
$LN5@Allocate@2:

; 40   : 	}

  0004b	c9		 leave
  0004c	c3		 ret	 0
$LN9@Allocate@2:
??$_Allocate@U_Node@?$_Tree_nod@V?$_Tmap_traits@KVioHashString@@U?$less@K@std@@V?$allocator@U?$pair@$$CBKVioHashString@@@std@@@3@$0A@@std@@@std@@@std@@YAPAU_Node@?$_Tree_nod@V?$_Tmap_traits@KVioHashString@@U?$less@K@std@@V?$allocator@U?$pair@$$CBKVioHashString@@@std@@@3@$0A@@std@@@0@IPAU120@@Z ENDP ; std::_Allocate<std::_Tree_nod<std::_Tmap_traits<unsigned long,ioHashString,std::less<unsigned long>,std::allocator<std::pair<unsigned long const ,ioHashString> >,0> >::_Node>
_TEXT	ENDS
PUBLIC	?max_size@?$allocator@U?$pair@$$CBKVioHashString@@@std@@@std@@QBEIXZ ; std::allocator<std::pair<unsigned long const ,ioHashString> >::max_size
; Function compile flags: /Ogsp
;	COMDAT ?max_size@?$allocator@U?$pair@$$CBKVioHashString@@@std@@@std@@QBEIXZ
_TEXT	SEGMENT
?max_size@?$allocator@U?$pair@$$CBKVioHashString@@@std@@@std@@QBEIXZ PROC ; std::allocator<std::pair<unsigned long const ,ioHashString> >::max_size, COMDAT
; _this$ = ecx

; 218  : 		_SIZT _Count = (_SIZT)(-1) / sizeof (_Ty);
; 219  : 		return (0 < _Count ? _Count : 1);

  00000	b8 cc cc cc 0c	 mov	 eax, 214748364		; 0cccccccH

; 220  : 		}

  00005	c3		 ret	 0
?max_size@?$allocator@U?$pair@$$CBKVioHashString@@@std@@@std@@QBEIXZ ENDP ; std::allocator<std::pair<unsigned long const ,ioHashString> >::max_size
_TEXT	ENDS
PUBLIC	??F?$_Tree_unchecked_const_iterator@V?$_Tree_val@V?$_Tmap_traits@KVioHashString@@U?$less@K@std@@V?$allocator@U?$pair@$$CBKVioHashString@@@std@@@3@$0A@@std@@@std@@U_Iterator_base0@2@@std@@QAEAAV01@XZ ; std::_Tree_unchecked_const_iterator<std::_Tree_val<std::_Tmap_traits<unsigned long,ioHashString,std::less<unsigned long>,std::allocator<std::pair<unsigned long const ,ioHashString> >,0> >,std::_Iterator_base0>::operator--
; Function compile flags: /Ogsp
; File c:\program files (x86)\microsoft visual studio 10.0\vc\include\xtree
;	COMDAT ??F?$_Tree_unchecked_const_iterator@V?$_Tree_val@V?$_Tmap_traits@KVioHashString@@U?$less@K@std@@V?$allocator@U?$pair@$$CBKVioHashString@@@std@@@3@$0A@@std@@@std@@U_Iterator_base0@2@@std@@QAEAAV01@XZ
_TEXT	SEGMENT
??F?$_Tree_unchecked_const_iterator@V?$_Tree_val@V?$_Tmap_traits@KVioHashString@@U?$less@K@std@@V?$allocator@U?$pair@$$CBKVioHashString@@@std@@@3@$0A@@std@@@std@@U_Iterator_base0@2@@std@@QAEAAV01@XZ PROC ; std::_Tree_unchecked_const_iterator<std::_Tree_val<std::_Tmap_traits<unsigned long,ioHashString,std::less<unsigned long>,std::allocator<std::pair<unsigned long const ,ioHashString> >,0> >,std::_Iterator_base0>::operator--, COMDAT
; _this$ = ecx

; 83   : 		{	// predecrement

  00000	8b c1		 mov	 eax, ecx

; 84   : 		if (_Mytree::_Isnil(_Ptr))

  00002	8b 08		 mov	 ecx, DWORD PTR [eax]
  00004	53		 push	 ebx
  00005	32 db		 xor	 bl, bl
  00007	38 59 21	 cmp	 BYTE PTR [ecx+33], bl
  0000a	74 07		 je	 SHORT $LN8@operator@2

; 85   : 			_Ptr = _Mytree::_Right(_Ptr);	// end() ==> rightmost

  0000c	8b 49 08	 mov	 ecx, DWORD PTR [ecx+8]
  0000f	89 08		 mov	 DWORD PTR [eax], ecx
  00011	5b		 pop	 ebx

; 99   : 			}
; 100  : 		return (*this);
; 101  : 		}

  00012	c3		 ret	 0
$LN8@operator@2:

; 86   : 		else if (!_Mytree::_Isnil(_Mytree::_Left(_Ptr)))

  00013	8b 11		 mov	 edx, DWORD PTR [ecx]
  00015	38 5a 21	 cmp	 BYTE PTR [edx+33], bl
  00018	74 07		 je	 SHORT $LN44@operator@2

; 90   : 			{	// climb looking for left subtree
; 91   : 			_Nodeptr _Pnode;
; 92   : 			while (!_Mytree::_Isnil(_Pnode = _Mytree::_Parent(_Ptr))
; 93   : 				&& _Ptr == _Mytree::_Left(_Pnode))

  0001a	8b 51 04	 mov	 edx, DWORD PTR [ecx+4]
  0001d	eb 17		 jmp	 SHORT $LN46@operator@2

; 87   : 			_Ptr = _Mytree::_Max(
; 88   : 				_Mytree::_Left(_Ptr));	// ==> largest of left subtree

$LL22@operator@2:
  0001f	8b d1		 mov	 edx, ecx
$LN44@operator@2:
  00021	8b 4a 08	 mov	 ecx, DWORD PTR [edx+8]
  00024	38 59 21	 cmp	 BYTE PTR [ecx+33], bl
  00027	74 f6		 je	 SHORT $LL22@operator@2

; 89   : 		else

  00029	eb 17		 jmp	 SHORT $LN45@operator@2
$LL4@operator@2:

; 90   : 			{	// climb looking for left subtree
; 91   : 			_Nodeptr _Pnode;
; 92   : 			while (!_Mytree::_Isnil(_Pnode = _Mytree::_Parent(_Ptr))
; 93   : 				&& _Ptr == _Mytree::_Left(_Pnode))

  0002b	8b 08		 mov	 ecx, DWORD PTR [eax]
  0002d	3b 0a		 cmp	 ecx, DWORD PTR [edx]
  0002f	75 0a		 jne	 SHORT $LN3@operator@2

; 94   : 				_Ptr = _Pnode;	// ==> parent while left subtree

  00031	89 10		 mov	 DWORD PTR [eax], edx
  00033	8b 52 04	 mov	 edx, DWORD PTR [edx+4]
$LN46@operator@2:

; 90   : 			{	// climb looking for left subtree
; 91   : 			_Nodeptr _Pnode;
; 92   : 			while (!_Mytree::_Isnil(_Pnode = _Mytree::_Parent(_Ptr))
; 93   : 				&& _Ptr == _Mytree::_Left(_Pnode))

  00036	38 5a 21	 cmp	 BYTE PTR [edx+33], bl
  00039	74 f0		 je	 SHORT $LL4@operator@2
$LN3@operator@2:

; 95   : 			if (_Mytree::_Isnil(_Ptr))

  0003b	8b 08		 mov	 ecx, DWORD PTR [eax]
  0003d	38 59 21	 cmp	 BYTE PTR [ecx+33], bl
  00040	75 02		 jne	 SHORT $LN1@operator@2
$LN45@operator@2:

; 96   : 				;	// begin() shouldn't be decremented, don't move
; 97   : 			else
; 98   : 				_Ptr = _Pnode;	// ==> parent if not head

  00042	89 10		 mov	 DWORD PTR [eax], edx
$LN1@operator@2:
  00044	5b		 pop	 ebx

; 99   : 			}
; 100  : 		return (*this);
; 101  : 		}

  00045	c3		 ret	 0
??F?$_Tree_unchecked_const_iterator@V?$_Tree_val@V?$_Tmap_traits@KVioHashString@@U?$less@K@std@@V?$allocator@U?$pair@$$CBKVioHashString@@@std@@@3@$0A@@std@@@std@@U_Iterator_base0@2@@std@@QAEAAV01@XZ ENDP ; std::_Tree_unchecked_const_iterator<std::_Tree_val<std::_Tmap_traits<unsigned long,ioHashString,std::less<unsigned long>,std::allocator<std::pair<unsigned long const ,ioHashString> >,0> >,std::_Iterator_base0>::operator--
_TEXT	ENDS
PUBLIC	??$forward@AAY0BAE@D@std@@YAAAY0BAE@DAAY0BAE@D@Z ; std::forward<char (&)[260]>
; Function compile flags: /Ogsp
; File c:\program files (x86)\microsoft visual studio 10.0\vc\include\utility
;	COMDAT ??$forward@AAY0BAE@D@std@@YAAAY0BAE@DAAY0BAE@D@Z
_TEXT	SEGMENT
__Arg$ = 8						; size = 4
??$forward@AAY0BAE@D@std@@YAAAY0BAE@DAAY0BAE@D@Z PROC	; std::forward<char (&)[260]>, COMDAT

; 78   : 	{	// forward _Arg, given explicitly specified type parameter

  00000	55		 push	 ebp
  00001	8b ec		 mov	 ebp, esp

; 79   : 	return ((_Ty&&)_Arg);

  00003	8b 45 08	 mov	 eax, DWORD PTR __Arg$[ebp]

; 80   : 	}

  00006	5d		 pop	 ebp
  00007	c3		 ret	 0
??$forward@AAY0BAE@D@std@@YAAAY0BAE@DAAY0BAE@D@Z ENDP	; std::forward<char (&)[260]>
_TEXT	ENDS
PUBLIC	??$forward@U?$pair@$$CBKVioHashString@@@std@@@std@@YA$$QAU?$pair@$$CBKVioHashString@@@0@AAU10@@Z ; std::forward<std::pair<unsigned long const ,ioHashString> >
; Function compile flags: /Ogsp
;	COMDAT ??$forward@U?$pair@$$CBKVioHashString@@@std@@@std@@YA$$QAU?$pair@$$CBKVioHashString@@@0@AAU10@@Z
_TEXT	SEGMENT
__Arg$ = 8						; size = 4
??$forward@U?$pair@$$CBKVioHashString@@@std@@@std@@YA$$QAU?$pair@$$CBKVioHashString@@@0@AAU10@@Z PROC ; std::forward<std::pair<unsigned long const ,ioHashString> >, COMDAT

; 78   : 	{	// forward _Arg, given explicitly specified type parameter

  00000	55		 push	 ebp
  00001	8b ec		 mov	 ebp, esp

; 79   : 	return ((_Ty&&)_Arg);

  00003	8b 45 08	 mov	 eax, DWORD PTR __Arg$[ebp]

; 80   : 	}

  00006	5d		 pop	 ebp
  00007	c3		 ret	 0
??$forward@U?$pair@$$CBKVioHashString@@@std@@@std@@YA$$QAU?$pair@$$CBKVioHashString@@@0@AAU10@@Z ENDP ; std::forward<std::pair<unsigned long const ,ioHashString> >
_TEXT	ENDS
PUBLIC	??$_Ptr_cat@USwingParam@@U1@@std@@YA?AU_Nonscalar_ptr_iterator_tag@0@PAUSwingParam@@0@Z ; std::_Ptr_cat<SwingParam,SwingParam>
; Function compile flags: /Ogsp
; File c:\program files (x86)\microsoft visual studio 10.0\vc\include\xutility
;	COMDAT ??$_Ptr_cat@USwingParam@@U1@@std@@YA?AU_Nonscalar_ptr_iterator_tag@0@PAUSwingParam@@0@Z
_TEXT	SEGMENT
__Cat$ = -1						; size = 1
___formal$ = 8						; size = 4
___formal$ = 12						; size = 4
??$_Ptr_cat@USwingParam@@U1@@std@@YA?AU_Nonscalar_ptr_iterator_tag@0@PAUSwingParam@@0@Z PROC ; std::_Ptr_cat<SwingParam,SwingParam>, COMDAT

; 516  : 	{	// return pointer category from pointers

  00000	55		 push	 ebp
  00001	8b ec		 mov	 ebp, esp
  00003	51		 push	 ecx

; 517  : 	typename _Ptr_cat_helper<_Elem1, _Elem2>::_Type _Cat;
; 518  : 	return (_Cat);

  00004	8a 45 ff	 mov	 al, BYTE PTR __Cat$[ebp]

; 519  : 	}

  00007	c9		 leave
  00008	c3		 ret	 0
??$_Ptr_cat@USwingParam@@U1@@std@@YA?AU_Nonscalar_ptr_iterator_tag@0@PAUSwingParam@@0@Z ENDP ; std::_Ptr_cat<SwingParam,SwingParam>
_TEXT	ENDS
PUBLIC	??$_Copy_impl@PAUSwingParam@@PAU1@@std@@YAPAUSwingParam@@PAU1@00U_Nonscalar_ptr_iterator_tag@0@@Z ; std::_Copy_impl<SwingParam *,SwingParam *>
; Function compile flags: /Ogsp
;	COMDAT ??$_Copy_impl@PAUSwingParam@@PAU1@@std@@YAPAUSwingParam@@PAU1@00U_Nonscalar_ptr_iterator_tag@0@@Z
_TEXT	SEGMENT
__First$ = 8						; size = 4
__Last$ = 12						; size = 4
__Dest$ = 16						; size = 4
___formal$ = 20						; size = 1
??$_Copy_impl@PAUSwingParam@@PAU1@@std@@YAPAUSwingParam@@PAU1@00U_Nonscalar_ptr_iterator_tag@0@@Z PROC ; std::_Copy_impl<SwingParam *,SwingParam *>, COMDAT

; 2142 : 	{	// copy [_First, _Last) to [_Dest, ...), arbitrary iterators

  00000	55		 push	 ebp
  00001	8b ec		 mov	 ebp, esp

; 2143 : 	for (; _First != _Last; ++_Dest, ++_First)

  00003	8b 45 08	 mov	 eax, DWORD PTR __First$[ebp]
  00006	3b 45 0c	 cmp	 eax, DWORD PTR __Last$[ebp]
  00009	74 19		 je	 SHORT $LN8@Copy_impl
  0000b	56		 push	 esi
  0000c	57		 push	 edi
$LL3@Copy_impl:

; 2144 : 		*_Dest = *_First;

  0000d	8b 7d 10	 mov	 edi, DWORD PTR __Dest$[ebp]
  00010	83 45 10 10	 add	 DWORD PTR __Dest$[ebp], 16 ; 00000010H
  00014	8b f0		 mov	 esi, eax
  00016	a5		 movsd
  00017	a5		 movsd
  00018	a5		 movsd
  00019	83 c0 10	 add	 eax, 16			; 00000010H
  0001c	a5		 movsd
  0001d	3b 45 0c	 cmp	 eax, DWORD PTR __Last$[ebp]
  00020	75 eb		 jne	 SHORT $LL3@Copy_impl
  00022	5f		 pop	 edi
  00023	5e		 pop	 esi
$LN8@Copy_impl:

; 2145 : 	return (_Dest);

  00024	8b 45 10	 mov	 eax, DWORD PTR __Dest$[ebp]

; 2146 : 	}

  00027	5d		 pop	 ebp
  00028	c3		 ret	 0
??$_Copy_impl@PAUSwingParam@@PAU1@@std@@YAPAUSwingParam@@PAU1@00U_Nonscalar_ptr_iterator_tag@0@@Z ENDP ; std::_Copy_impl<SwingParam *,SwingParam *>
_TEXT	ENDS
PUBLIC	??$forward@AAUSwingParam@@@std@@YAAAUSwingParam@@AAU1@@Z ; std::forward<SwingParam &>
; Function compile flags: /Ogsp
; File c:\program files (x86)\microsoft visual studio 10.0\vc\include\utility
;	COMDAT ??$forward@AAUSwingParam@@@std@@YAAAUSwingParam@@AAU1@@Z
_TEXT	SEGMENT
__Arg$ = 8						; size = 4
??$forward@AAUSwingParam@@@std@@YAAAUSwingParam@@AAU1@@Z PROC ; std::forward<SwingParam &>, COMDAT

; 78   : 	{	// forward _Arg, given explicitly specified type parameter

  00000	55		 push	 ebp
  00001	8b ec		 mov	 ebp, esp

; 79   : 	return ((_Ty&&)_Arg);

  00003	8b 45 08	 mov	 eax, DWORD PTR __Arg$[ebp]

; 80   : 	}

  00006	5d		 pop	 ebp
  00007	c3		 ret	 0
??$forward@AAUSwingParam@@@std@@YAAAUSwingParam@@AAU1@@Z ENDP ; std::forward<SwingParam &>
_TEXT	ENDS
PUBLIC	??$construct@AAUSwingParam@@@?$allocator@USwingParam@@@std@@QAEXPAUSwingParam@@AAU2@@Z ; std::allocator<SwingParam>::construct<SwingParam &>
; Function compile flags: /Ogsp
; File c:\program files (x86)\microsoft visual studio 10.0\vc\include\xmemory
;	COMDAT ??$construct@AAUSwingParam@@@?$allocator@USwingParam@@@std@@QAEXPAUSwingParam@@AAU2@@Z
_TEXT	SEGMENT
__Ptr$ = 8						; size = 4
__Val$ = 12						; size = 4
??$construct@AAUSwingParam@@@?$allocator@USwingParam@@@std@@QAEXPAUSwingParam@@AAU2@@Z PROC ; std::allocator<SwingParam>::construct<SwingParam &>, COMDAT
; _this$ = ecx

; 206  : 		void construct(pointer _Ptr, _Other&& _Val)

  00000	55		 push	 ebp
  00001	8b ec		 mov	 ebp, esp
  00003	57		 push	 edi

; 207  : 		{	// construct object at _Ptr with value _Val
; 208  : 		::new ((void _FARQ *)_Ptr) _Ty(_STD forward<_Other>(_Val));

  00004	8b 7d 08	 mov	 edi, DWORD PTR __Ptr$[ebp]
  00007	85 ff		 test	 edi, edi
  00009	74 09		 je	 SHORT $LN3@construct
  0000b	56		 push	 esi
  0000c	8b 75 0c	 mov	 esi, DWORD PTR __Val$[ebp]
  0000f	a5		 movsd
  00010	a5		 movsd
  00011	a5		 movsd
  00012	a5		 movsd
  00013	5e		 pop	 esi
$LN3@construct:
  00014	5f		 pop	 edi

; 209  : 		}

  00015	5d		 pop	 ebp
  00016	c2 08 00	 ret	 8
??$construct@AAUSwingParam@@@?$allocator@USwingParam@@@std@@QAEXPAUSwingParam@@AAU2@@Z ENDP ; std::allocator<SwingParam>::construct<SwingParam &>
_TEXT	ENDS
PUBLIC	??$forward@ABUSwingParam@@@std@@YAABUSwingParam@@ABU1@@Z ; std::forward<SwingParam const &>
; Function compile flags: /Ogsp
; File c:\program files (x86)\microsoft visual studio 10.0\vc\include\utility
;	COMDAT ??$forward@ABUSwingParam@@@std@@YAABUSwingParam@@ABU1@@Z
_TEXT	SEGMENT
__Arg$ = 8						; size = 4
??$forward@ABUSwingParam@@@std@@YAABUSwingParam@@ABU1@@Z PROC ; std::forward<SwingParam const &>, COMDAT

; 78   : 	{	// forward _Arg, given explicitly specified type parameter

  00000	55		 push	 ebp
  00001	8b ec		 mov	 ebp, esp

; 79   : 	return ((_Ty&&)_Arg);

  00003	8b 45 08	 mov	 eax, DWORD PTR __Arg$[ebp]

; 80   : 	}

  00006	5d		 pop	 ebp
  00007	c3		 ret	 0
??$forward@ABUSwingParam@@@std@@YAABUSwingParam@@ABU1@@Z ENDP ; std::forward<SwingParam const &>
_TEXT	ENDS
PUBLIC	??$_Construct@USwingParam@@ABU1@@std@@YAXPAUSwingParam@@ABU1@@Z ; std::_Construct<SwingParam,SwingParam const &>
; Function compile flags: /Ogsp
; File c:\program files (x86)\microsoft visual studio 10.0\vc\include\xmemory
;	COMDAT ??$_Construct@USwingParam@@ABU1@@std@@YAXPAUSwingParam@@ABU1@@Z
_TEXT	SEGMENT
__Ptr$ = 8						; size = 4
__Val$ = 12						; size = 4
??$_Construct@USwingParam@@ABU1@@std@@YAXPAUSwingParam@@ABU1@@Z PROC ; std::_Construct<SwingParam,SwingParam const &>, COMDAT

; 46   : 	{	// construct object at _Ptr with value _Val

  00000	55		 push	 ebp
  00001	8b ec		 mov	 ebp, esp
  00003	57		 push	 edi

; 47   : 	void _FARQ *_Vptr = _Ptr;
; 48   : 	::new (_Vptr) _Ty1(_STD forward<_Ty2>(_Val));

  00004	8b 7d 08	 mov	 edi, DWORD PTR __Ptr$[ebp]
  00007	85 ff		 test	 edi, edi
  00009	74 09		 je	 SHORT $LN3@Construct
  0000b	56		 push	 esi
  0000c	8b 75 0c	 mov	 esi, DWORD PTR __Val$[ebp]
  0000f	a5		 movsd
  00010	a5		 movsd
  00011	a5		 movsd
  00012	a5		 movsd
  00013	5e		 pop	 esi
$LN3@Construct:
  00014	5f		 pop	 edi

; 49   : 	}

  00015	5d		 pop	 ebp
  00016	c3		 ret	 0
??$_Construct@USwingParam@@ABU1@@std@@YAXPAUSwingParam@@ABU1@@Z ENDP ; std::_Construct<SwingParam,SwingParam const &>
_TEXT	ENDS
PUBLIC	??$move@AAV?$_Tree_iterator@V?$_Tree_val@V?$_Tmap_traits@KVioHashString@@U?$less@K@std@@V?$allocator@U?$pair@$$CBKVioHashString@@@std@@@3@$0A@@std@@@std@@@std@@@std@@YA$$QAV?$_Tree_iterator@V?$_Tree_val@V?$_Tmap_traits@KVioHashString@@U?$less@K@std@@V?$allocator@U?$pair@$$CBKVioHashString@@@std@@@3@$0A@@std@@@std@@@0@AAV10@@Z ; std::move<std::_Tree_iterator<std::_Tree_val<std::_Tmap_traits<unsigned long,ioHashString,std::less<unsigned long>,std::allocator<std::pair<unsigned long const ,ioHashString> >,0> > > &>
; Function compile flags: /Ogsp
; File c:\program files (x86)\microsoft visual studio 10.0\vc\include\utility
;	COMDAT ??$move@AAV?$_Tree_iterator@V?$_Tree_val@V?$_Tmap_traits@KVioHashString@@U?$less@K@std@@V?$allocator@U?$pair@$$CBKVioHashString@@@std@@@3@$0A@@std@@@std@@@std@@@std@@YA$$QAV?$_Tree_iterator@V?$_Tree_val@V?$_Tmap_traits@KVioHashString@@U?$less@K@std@@V?$allocator@U?$pair@$$CBKVioHashString@@@std@@@3@$0A@@std@@@std@@@0@AAV10@@Z
_TEXT	SEGMENT
__Arg$ = 8						; size = 4
??$move@AAV?$_Tree_iterator@V?$_Tree_val@V?$_Tmap_traits@KVioHashString@@U?$less@K@std@@V?$allocator@U?$pair@$$CBKVioHashString@@@std@@@3@$0A@@std@@@std@@@std@@@std@@YA$$QAV?$_Tree_iterator@V?$_Tree_val@V?$_Tmap_traits@KVioHashString@@U?$less@K@std@@V?$allocator@U?$pair@$$CBKVioHashString@@@std@@@3@$0A@@std@@@std@@@0@AAV10@@Z PROC ; std::move<std::_Tree_iterator<std::_Tree_val<std::_Tmap_traits<unsigned long,ioHashString,std::less<unsigned long>,std::allocator<std::pair<unsigned long const ,ioHashString> >,0> > > &>, COMDAT

; 86   : 	{	// forward _Arg as movable

  00000	55		 push	 ebp
  00001	8b ec		 mov	 ebp, esp

; 87   : 	return ((typename tr1::_Remove_reference<_Ty>::_Type&&)_Arg);

  00003	8b 45 08	 mov	 eax, DWORD PTR __Arg$[ebp]

; 88   : 	}

  00006	5d		 pop	 ebp
  00007	c3		 ret	 0
??$move@AAV?$_Tree_iterator@V?$_Tree_val@V?$_Tmap_traits@KVioHashString@@U?$less@K@std@@V?$allocator@U?$pair@$$CBKVioHashString@@@std@@@3@$0A@@std@@@std@@@std@@@std@@YA$$QAV?$_Tree_iterator@V?$_Tree_val@V?$_Tmap_traits@KVioHashString@@U?$less@K@std@@V?$allocator@U?$pair@$$CBKVioHashString@@@std@@@3@$0A@@std@@@std@@@0@AAV10@@Z ENDP ; std::move<std::_Tree_iterator<std::_Tree_val<std::_Tmap_traits<unsigned long,ioHashString,std::less<unsigned long>,std::allocator<std::pair<unsigned long const ,ioHashString> >,0> > > &>
_TEXT	ENDS
PUBLIC	??$_Val_type@PAUSwingParam@@@std@@YAPAUSwingParam@@PAU1@@Z ; std::_Val_type<SwingParam *>
; Function compile flags: /Ogsp
; File c:\program files (x86)\microsoft visual studio 10.0\vc\include\xutility
;	COMDAT ??$_Val_type@PAUSwingParam@@@std@@YAPAUSwingParam@@PAU1@@Z
_TEXT	SEGMENT
___formal$ = 8						; size = 4
??$_Val_type@PAUSwingParam@@@std@@YAPAUSwingParam@@PAU1@@Z PROC ; std::_Val_type<SwingParam *>, COMDAT

; 790  : 	return (0);

  00000	33 c0		 xor	 eax, eax

; 791  : 	}

  00002	c3		 ret	 0
??$_Val_type@PAUSwingParam@@@std@@YAPAUSwingParam@@PAU1@@Z ENDP ; std::_Val_type<SwingParam *>
_TEXT	ENDS
PUBLIC	??$move@AAUSwingParam@@@std@@YA$$QAUSwingParam@@AAU1@@Z ; std::move<SwingParam &>
; Function compile flags: /Ogsp
; File c:\program files (x86)\microsoft visual studio 10.0\vc\include\utility
;	COMDAT ??$move@AAUSwingParam@@@std@@YA$$QAUSwingParam@@AAU1@@Z
_TEXT	SEGMENT
__Arg$ = 8						; size = 4
??$move@AAUSwingParam@@@std@@YA$$QAUSwingParam@@AAU1@@Z PROC ; std::move<SwingParam &>, COMDAT

; 86   : 	{	// forward _Arg as movable

  00000	55		 push	 ebp
  00001	8b ec		 mov	 ebp, esp

; 87   : 	return ((typename tr1::_Remove_reference<_Ty>::_Type&&)_Arg);

  00003	8b 45 08	 mov	 eax, DWORD PTR __Arg$[ebp]

; 88   : 	}

  00006	5d		 pop	 ebp
  00007	c3		 ret	 0
??$move@AAUSwingParam@@@std@@YA$$QAUSwingParam@@AAU1@@Z ENDP ; std::move<SwingParam &>
_TEXT	ENDS
PUBLIC	??$forward@AAV?$_Tree_iterator@V?$_Tree_val@V?$_Tmap_traits@KVioHashString@@U?$less@K@std@@V?$allocator@U?$pair@$$CBKVioHashString@@@std@@@3@$0A@@std@@@std@@@std@@@std@@YAAAV?$_Tree_iterator@V?$_Tree_val@V?$_Tmap_traits@KVioHashString@@U?$less@K@std@@V?$allocator@U?$pair@$$CBKVioHashString@@@std@@@3@$0A@@std@@@std@@@0@AAV10@@Z ; std::forward<std::_Tree_iterator<std::_Tree_val<std::_Tmap_traits<unsigned long,ioHashString,std::less<unsigned long>,std::allocator<std::pair<unsigned long const ,ioHashString> >,0> > > &>
; Function compile flags: /Ogsp
;	COMDAT ??$forward@AAV?$_Tree_iterator@V?$_Tree_val@V?$_Tmap_traits@KVioHashString@@U?$less@K@std@@V?$allocator@U?$pair@$$CBKVioHashString@@@std@@@3@$0A@@std@@@std@@@std@@@std@@YAAAV?$_Tree_iterator@V?$_Tree_val@V?$_Tmap_traits@KVioHashString@@U?$less@K@std@@V?$allocator@U?$pair@$$CBKVioHashString@@@std@@@3@$0A@@std@@@std@@@0@AAV10@@Z
_TEXT	SEGMENT
__Arg$ = 8						; size = 4
??$forward@AAV?$_Tree_iterator@V?$_Tree_val@V?$_Tmap_traits@KVioHashString@@U?$less@K@std@@V?$allocator@U?$pair@$$CBKVioHashString@@@std@@@3@$0A@@std@@@std@@@std@@@std@@YAAAV?$_Tree_iterator@V?$_Tree_val@V?$_Tmap_traits@KVioHashString@@U?$less@K@std@@V?$allocator@U?$pair@$$CBKVioHashString@@@std@@@3@$0A@@std@@@std@@@0@AAV10@@Z PROC ; std::forward<std::_Tree_iterator<std::_Tree_val<std::_Tmap_traits<unsigned long,ioHashString,std::less<unsigned long>,std::allocator<std::pair<unsigned long const ,ioHashString> >,0> > > &>, COMDAT

; 78   : 	{	// forward _Arg, given explicitly specified type parameter

  00000	55		 push	 ebp
  00001	8b ec		 mov	 ebp, esp

; 79   : 	return ((_Ty&&)_Arg);

  00003	8b 45 08	 mov	 eax, DWORD PTR __Arg$[ebp]

; 80   : 	}

  00006	5d		 pop	 ebp
  00007	c3		 ret	 0
??$forward@AAV?$_Tree_iterator@V?$_Tree_val@V?$_Tmap_traits@KVioHashString@@U?$less@K@std@@V?$allocator@U?$pair@$$CBKVioHashString@@@std@@@3@$0A@@std@@@std@@@std@@@std@@YAAAV?$_Tree_iterator@V?$_Tree_val@V?$_Tmap_traits@KVioHashString@@U?$less@K@std@@V?$allocator@U?$pair@$$CBKVioHashString@@@std@@@3@$0A@@std@@@std@@@0@AAV10@@Z ENDP ; std::forward<std::_Tree_iterator<std::_Tree_val<std::_Tmap_traits<unsigned long,ioHashString,std::less<unsigned long>,std::allocator<std::pair<unsigned long const ,ioHashString> >,0> > > &>
_TEXT	ENDS
PUBLIC	??$_Destroy@USwingParam@@@std@@YAXPAUSwingParam@@@Z ; std::_Destroy<SwingParam>
; Function compile flags: /Ogsp
; File c:\program files (x86)\microsoft visual studio 10.0\vc\include\xmemory
;	COMDAT ??$_Destroy@USwingParam@@@std@@YAXPAUSwingParam@@@Z
_TEXT	SEGMENT
__Ptr$ = 8						; size = 4
??$_Destroy@USwingParam@@@std@@YAXPAUSwingParam@@@Z PROC ; std::_Destroy<SwingParam>, COMDAT

; 63   : 	_Ptr->~_Ty();
; 64   : 	}

  00000	c3		 ret	 0
??$_Destroy@USwingParam@@@std@@YAXPAUSwingParam@@@Z ENDP ; std::_Destroy<SwingParam>
_TEXT	ENDS
PUBLIC	??$forward@USwingParam@@@std@@YA$$QAUSwingParam@@AAU1@@Z ; std::forward<SwingParam>
; Function compile flags: /Ogsp
; File c:\program files (x86)\microsoft visual studio 10.0\vc\include\utility
;	COMDAT ??$forward@USwingParam@@@std@@YA$$QAUSwingParam@@AAU1@@Z
_TEXT	SEGMENT
__Arg$ = 8						; size = 4
??$forward@USwingParam@@@std@@YA$$QAUSwingParam@@AAU1@@Z PROC ; std::forward<SwingParam>, COMDAT

; 78   : 	{	// forward _Arg, given explicitly specified type parameter

  00000	55		 push	 ebp
  00001	8b ec		 mov	 ebp, esp

; 79   : 	return ((_Ty&&)_Arg);

  00003	8b 45 08	 mov	 eax, DWORD PTR __Arg$[ebp]

; 80   : 	}

  00006	5d		 pop	 ebp
  00007	c3		 ret	 0
??$forward@USwingParam@@@std@@YA$$QAUSwingParam@@AAU1@@Z ENDP ; std::forward<SwingParam>
_TEXT	ENDS
PUBLIC	??$forward@$$CBK@std@@YA$$QBKABK@Z		; std::forward<unsigned long const >
; Function compile flags: /Ogsp
;	COMDAT ??$forward@$$CBK@std@@YA$$QBKABK@Z
_TEXT	SEGMENT
__Arg$ = 8						; size = 4
??$forward@$$CBK@std@@YA$$QBKABK@Z PROC			; std::forward<unsigned long const >, COMDAT

; 78   : 	{	// forward _Arg, given explicitly specified type parameter

  00000	55		 push	 ebp
  00001	8b ec		 mov	 ebp, esp

; 79   : 	return ((_Ty&&)_Arg);

  00003	8b 45 08	 mov	 eax, DWORD PTR __Arg$[ebp]

; 80   : 	}

  00006	5d		 pop	 ebp
  00007	c3		 ret	 0
??$forward@$$CBK@std@@YA$$QBKABK@Z ENDP			; std::forward<unsigned long const >
_TEXT	ENDS
PUBLIC	??$forward@VioHashString@@@std@@YA$$QAVioHashString@@AAV1@@Z ; std::forward<ioHashString>
; Function compile flags: /Ogsp
;	COMDAT ??$forward@VioHashString@@@std@@YA$$QAVioHashString@@AAV1@@Z
_TEXT	SEGMENT
__Arg$ = 8						; size = 4
??$forward@VioHashString@@@std@@YA$$QAVioHashString@@AAV1@@Z PROC ; std::forward<ioHashString>, COMDAT

; 78   : 	{	// forward _Arg, given explicitly specified type parameter

  00000	55		 push	 ebp
  00001	8b ec		 mov	 ebp, esp

; 79   : 	return ((_Ty&&)_Arg);

  00003	8b 45 08	 mov	 eax, DWORD PTR __Arg$[ebp]

; 80   : 	}

  00006	5d		 pop	 ebp
  00007	c3		 ret	 0
??$forward@VioHashString@@@std@@YA$$QAVioHashString@@AAV1@@Z ENDP ; std::forward<ioHashString>
_TEXT	ENDS
PUBLIC	??$move@ABK@std@@YA$$QBKABK@Z			; std::move<unsigned long const &>
; Function compile flags: /Ogsp
;	COMDAT ??$move@ABK@std@@YA$$QBKABK@Z
_TEXT	SEGMENT
__Arg$ = 8						; size = 4
??$move@ABK@std@@YA$$QBKABK@Z PROC			; std::move<unsigned long const &>, COMDAT

; 86   : 	{	// forward _Arg as movable

  00000	55		 push	 ebp
  00001	8b ec		 mov	 ebp, esp

; 87   : 	return ((typename tr1::_Remove_reference<_Ty>::_Type&&)_Arg);

  00003	8b 45 08	 mov	 eax, DWORD PTR __Arg$[ebp]

; 88   : 	}

  00006	5d		 pop	 ebp
  00007	c3		 ret	 0
??$move@ABK@std@@YA$$QBKABK@Z ENDP			; std::move<unsigned long const &>
_TEXT	ENDS
PUBLIC	?_DECSTR@@YAXPADH@Z				; _DECSTR
; Function compile flags: /Ogsp
; File d:\lost saga for developer\youtube\tutorial\source\src\lsclient\stringprotect.h
;	COMDAT ?_DECSTR@@YAXPADH@Z
_TEXT	SEGMENT
_s$ = 8							; size = 4
_l$ = 12						; size = 4
?_DECSTR@@YAXPADH@Z PROC				; _DECSTR, COMDAT

; 40   : __forceinline void _DECSTR(char* s, int l){int i=0,l4=(l-1)/4,*p=(int*)s;s[l-1]=0;for(;i<l4;++i)*(p++)^=0xEAEBECED;for(i=l4*4;i<l-1;++i)s[i]^=0xED-i%4;}

  00000	55		 push	 ebp
  00001	8b ec		 mov	 ebp, esp
  00003	8b 4d 0c	 mov	 ecx, DWORD PTR _l$[ebp]
  00006	56		 push	 esi
  00007	8b 75 08	 mov	 esi, DWORD PTR _s$[ebp]
  0000a	57		 push	 edi
  0000b	8d 79 ff	 lea	 edi, DWORD PTR [ecx-1]
  0000e	8b c7		 mov	 eax, edi
  00010	99		 cdq
  00011	83 e2 03	 and	 edx, 3
  00014	03 c2		 add	 eax, edx
  00016	c1 f8 02	 sar	 eax, 2
  00019	8b d6		 mov	 edx, esi
  0001b	c6 44 0e ff 00	 mov	 BYTE PTR [esi+ecx-1], 0
  00020	85 c0		 test	 eax, eax
  00022	7e 0e		 jle	 SHORT $LN4@DECSTR
  00024	8b c8		 mov	 ecx, eax
$LL6@DECSTR:
  00026	81 32 ed ec eb
	ea		 xor	 DWORD PTR [edx], -353637139 ; eaebecedH
  0002c	83 c2 04	 add	 edx, 4
  0002f	49		 dec	 ecx
  00030	75 f4		 jne	 SHORT $LL6@DECSTR
$LN4@DECSTR:
  00032	c1 e0 02	 shl	 eax, 2
  00035	eb 17		 jmp	 SHORT $LN14@DECSTR
$LL3@DECSTR:
  00037	8b c8		 mov	 ecx, eax
  00039	81 e1 03 00 00
	80		 and	 ecx, -2147483645	; 80000003H
  0003f	79 05		 jns	 SHORT $LN13@DECSTR
  00041	49		 dec	 ecx
  00042	83 c9 fc	 or	 ecx, -4			; fffffffcH
  00045	41		 inc	 ecx
$LN13@DECSTR:
  00046	b2 ed		 mov	 dl, -19			; ffffffedH
  00048	2a d1		 sub	 dl, cl
  0004a	30 14 30	 xor	 BYTE PTR [eax+esi], dl
  0004d	40		 inc	 eax
$LN14@DECSTR:
  0004e	3b c7		 cmp	 eax, edi
  00050	7c e5		 jl	 SHORT $LL3@DECSTR
  00052	5f		 pop	 edi
  00053	5e		 pop	 esi
  00054	5d		 pop	 ebp
  00055	c3		 ret	 0
?_DECSTR@@YAXPADH@Z ENDP				; _DECSTR
_TEXT	ENDS
PUBLIC	??_R0?AVioItem@@@8				; ioItem `RTTI Type Descriptor'
PUBLIC	??_R0?AVioArmorItem@@@8				; ioArmorItem `RTTI Type Descriptor'
PUBLIC	?ToArmorItemConst@@YAPBVioArmorItem@@PBVioItem@@@Z ; ToArmorItemConst
EXTRN	___RTDynamicCast:PROC
;	COMDAT ??_R0?AVioItem@@@8
; File d:\lost saga for developer\youtube\tutorial\source\src\lsclient\ioarmoritem.h
_DATA	SEGMENT
??_R0?AVioItem@@@8 DD FLAT:??_7type_info@@6B@		; ioItem `RTTI Type Descriptor'
	DD	00H
	DB	'.?AVioItem@@', 00H
_DATA	ENDS
;	COMDAT ??_R0?AVioArmorItem@@@8
_DATA	SEGMENT
??_R0?AVioArmorItem@@@8 DD FLAT:??_7type_info@@6B@	; ioArmorItem `RTTI Type Descriptor'
	DD	00H
	DB	'.?AVioArmorItem@@', 00H
; Function compile flags: /Ogsp
_DATA	ENDS
;	COMDAT ?ToArmorItemConst@@YAPBVioArmorItem@@PBVioItem@@@Z
_TEXT	SEGMENT
_pItem$ = 8						; size = 4
?ToArmorItemConst@@YAPBVioArmorItem@@PBVioItem@@@Z PROC	; ToArmorItemConst, COMDAT

; 70   : {

  00000	55		 push	 ebp
  00001	8b ec		 mov	 ebp, esp
  00003	56		 push	 esi

; 71   : 	if( !pItem || pItem->GetType() != ioItem::IT_ARMOR )

  00004	8b 75 08	 mov	 esi, DWORD PTR _pItem$[ebp]
  00007	85 f6		 test	 esi, esi
  00009	74 25		 je	 SHORT $LN1@ToArmorIte
  0000b	8b 06		 mov	 eax, DWORD PTR [esi]
  0000d	8b ce		 mov	 ecx, esi
  0000f	ff 50 08	 call	 DWORD PTR [eax+8]
  00012	83 f8 02	 cmp	 eax, 2
  00015	75 19		 jne	 SHORT $LN1@ToArmorIte

; 73   : 
; 74   : 	return dynamic_cast< const ioArmorItem* >( pItem );

  00017	6a 00		 push	 0
  00019	68 00 00 00 00	 push	 OFFSET ??_R0?AVioArmorItem@@@8
  0001e	68 00 00 00 00	 push	 OFFSET ??_R0?AVioItem@@@8
  00023	6a 00		 push	 0
  00025	56		 push	 esi
  00026	e8 00 00 00 00	 call	 ___RTDynamicCast
  0002b	83 c4 14	 add	 esp, 20			; 00000014H
  0002e	eb 02		 jmp	 SHORT $LN3@ToArmorIte
$LN1@ToArmorIte:

; 72   : 		return NULL;

  00030	33 c0		 xor	 eax, eax
$LN3@ToArmorIte:
  00032	5e		 pop	 esi

; 75   : }

  00033	5d		 pop	 ebp
  00034	c3		 ret	 0
?ToArmorItemConst@@YAPBVioArmorItem@@PBVioItem@@@Z ENDP	; ToArmorItemConst
_TEXT	ENDS
PUBLIC	??_7?$CEncrypt@M@@6B@				; CEncrypt<float>::`vftable'
PUBLIC	??1?$CEncrypt@M@@UAE@XZ				; CEncrypt<float>::~CEncrypt<float>
PUBLIC	??_R4?$CEncrypt@M@@6B@				; CEncrypt<float>::`RTTI Complete Object Locator'
PUBLIC	??_R0?AV?$CEncrypt@M@@@8			; CEncrypt<float> `RTTI Type Descriptor'
PUBLIC	??_R3?$CEncrypt@M@@8				; CEncrypt<float>::`RTTI Class Hierarchy Descriptor'
PUBLIC	??_R2?$CEncrypt@M@@8				; CEncrypt<float>::`RTTI Base Class Array'
PUBLIC	??_R1A@?0A@EA@?$CEncrypt@M@@8			; CEncrypt<float>::`RTTI Base Class Descriptor at (0,-1,0,64)'
EXTRN	??1ccddaabb@@UAE@XZ:PROC			; ccddaabb::~ccddaabb
EXTRN	??_E?$CEncrypt@M@@UAEPAXI@Z:PROC		; CEncrypt<float>::`vector deleting destructor'
;	COMDAT ??_R1A@?0A@EA@?$CEncrypt@M@@8
; File d:\lost saga for developer\youtube\tutorial\source\src\lsclient\encryptvalue.h
rdata$r	SEGMENT
??_R1A@?0A@EA@?$CEncrypt@M@@8 DD FLAT:??_R0?AV?$CEncrypt@M@@@8 ; CEncrypt<float>::`RTTI Base Class Descriptor at (0,-1,0,64)'
	DD	00H
	DD	00H
	DD	0ffffffffH
	DD	00H
	DD	040H
	DD	FLAT:??_R3?$CEncrypt@M@@8
rdata$r	ENDS
;	COMDAT ??_R2?$CEncrypt@M@@8
rdata$r	SEGMENT
??_R2?$CEncrypt@M@@8 DD FLAT:??_R1A@?0A@EA@?$CEncrypt@M@@8 ; CEncrypt<float>::`RTTI Base Class Array'
rdata$r	ENDS
;	COMDAT ??_R3?$CEncrypt@M@@8
rdata$r	SEGMENT
??_R3?$CEncrypt@M@@8 DD 00H				; CEncrypt<float>::`RTTI Class Hierarchy Descriptor'
	DD	00H
	DD	01H
	DD	FLAT:??_R2?$CEncrypt@M@@8
rdata$r	ENDS
;	COMDAT ??_R0?AV?$CEncrypt@M@@@8
_DATA	SEGMENT
??_R0?AV?$CEncrypt@M@@@8 DD FLAT:??_7type_info@@6B@	; CEncrypt<float> `RTTI Type Descriptor'
	DD	00H
	DB	'.?AV?$CEncrypt@M@@', 00H
_DATA	ENDS
;	COMDAT ??_R4?$CEncrypt@M@@6B@
rdata$r	SEGMENT
??_R4?$CEncrypt@M@@6B@ DD 00H				; CEncrypt<float>::`RTTI Complete Object Locator'
	DD	00H
	DD	00H
	DD	FLAT:??_R0?AV?$CEncrypt@M@@@8
	DD	FLAT:??_R3?$CEncrypt@M@@8
rdata$r	ENDS
;	COMDAT ??_7?$CEncrypt@M@@6B@
CONST	SEGMENT
??_7?$CEncrypt@M@@6B@ DD FLAT:??_R4?$CEncrypt@M@@6B@	; CEncrypt<float>::`vftable'
	DD	FLAT:??_E?$CEncrypt@M@@UAEPAXI@Z
; Function compile flags: /Ogsp
CONST	ENDS
;	COMDAT ??1?$CEncrypt@M@@UAE@XZ
_TEXT	SEGMENT
??1?$CEncrypt@M@@UAE@XZ PROC				; CEncrypt<float>::~CEncrypt<float>, COMDAT
; _this$ = ecx

; 127  : 	{

  00000	c7 01 00 00 00
	00		 mov	 DWORD PTR [ecx], OFFSET ??_7?$CEncrypt@M@@6B@

; 128  : 	}

  00006	83 c1 0c	 add	 ecx, 12			; 0000000cH
  00009	e9 00 00 00 00	 jmp	 ??1ccddaabb@@UAE@XZ	; ccddaabb::~ccddaabb
??1?$CEncrypt@M@@UAE@XZ ENDP				; CEncrypt<float>::~CEncrypt<float>
; Function compile flags: /Ogsp
_TEXT	ENDS
;	COMDAT ??_G?$CEncrypt@M@@UAEPAXI@Z
_TEXT	SEGMENT
___flags$ = 8						; size = 4
??_G?$CEncrypt@M@@UAEPAXI@Z PROC			; CEncrypt<float>::`scalar deleting destructor', COMDAT
; _this$ = ecx
  00000	55		 push	 ebp
  00001	8b ec		 mov	 ebp, esp
  00003	56		 push	 esi
  00004	8b f1		 mov	 esi, ecx
  00006	8d 4e 0c	 lea	 ecx, DWORD PTR [esi+12]
  00009	c7 06 00 00 00
	00		 mov	 DWORD PTR [esi], OFFSET ??_7?$CEncrypt@M@@6B@
  0000f	e8 00 00 00 00	 call	 ??1ccddaabb@@UAE@XZ	; ccddaabb::~ccddaabb
  00014	f6 45 08 01	 test	 BYTE PTR ___flags$[ebp], 1
  00018	74 07		 je	 SHORT $LN1@scalar@2
  0001a	56		 push	 esi
  0001b	e8 00 00 00 00	 call	 ??3@YAXPAX@Z		; operator delete
  00020	59		 pop	 ecx
$LN1@scalar@2:
  00021	8b c6		 mov	 eax, esi
  00023	5e		 pop	 esi
  00024	5d		 pop	 ebp
  00025	c2 04 00	 ret	 4
??_G?$CEncrypt@M@@UAEPAXI@Z ENDP			; CEncrypt<float>::`scalar deleting destructor'
_TEXT	ENDS
PUBLIC	?EncryptValueToPool@?$CEncrypt@M@@AAEXPBD@Z	; CEncrypt<float>::EncryptValueToPool
EXTRN	?EncryptByte@ccddaabb@@QAEXPBDPADH@Z:PROC	; ccddaabb::EncryptByte
; Function compile flags: /Ogsp
;	COMDAT ?EncryptValueToPool@?$CEncrypt@M@@AAEXPBD@Z
_TEXT	SEGMENT
_value$ = 8						; size = 4
?EncryptValueToPool@?$CEncrypt@M@@AAEXPBD@Z PROC	; CEncrypt<float>::EncryptValueToPool, COMDAT
; _this$ = ecx

; 67   : 	{

  00000	55		 push	 ebp
  00001	8b ec		 mov	 ebp, esp

; 68   : 		m_RC5.EncryptByte( value, m_MemPool, max(m_ValueSize, DEFAULT_ENCRYPT) );

  00003	0f b7 41 06	 movzx	 eax, WORD PTR [ecx+6]
  00007	83 f8 04	 cmp	 eax, 4
  0000a	77 03		 ja	 SHORT $LN4@EncryptVal
  0000c	6a 04		 push	 4
  0000e	58		 pop	 eax
$LN4@EncryptVal:
  0000f	50		 push	 eax
  00010	8d 41 1c	 lea	 eax, DWORD PTR [ecx+28]
  00013	50		 push	 eax
  00014	ff 75 08	 push	 DWORD PTR _value$[ebp]
  00017	83 c1 0c	 add	 ecx, 12			; 0000000cH
  0001a	e8 00 00 00 00	 call	 ?EncryptByte@ccddaabb@@QAEXPBDPADH@Z ; ccddaabb::EncryptByte

; 69   : 		
; 70   : 	}

  0001f	5d		 pop	 ebp
  00020	c2 04 00	 ret	 4
?EncryptValueToPool@?$CEncrypt@M@@AAEXPBD@Z ENDP	; CEncrypt<float>::EncryptValueToPool
_TEXT	ENDS
PUBLIC	?Init@?$CEncrypt@M@@AAEXXZ			; CEncrypt<float>::Init
EXTRN	?Setup@ccddaabb@@QAEXPBDHH@Z:PROC		; ccddaabb::Setup
EXTRN	__imp__rand:PROC
EXTRN	__imp__timeGetTime@0:PROC
EXTRN	__imp__GetCurrentProcessId@0:PROC
; Function compile flags: /Ogsp
;	COMDAT ?Init@?$CEncrypt@M@@AAEXXZ
_TEXT	SEGMENT
_pid$ = -8						; size = 4
_tick$ = -4						; size = 4
?Init@?$CEncrypt@M@@AAEXXZ PROC				; CEncrypt<float>::Init, COMDAT
; _this$ = ecx

; 73   : 	{

  00000	55		 push	 ebp
  00001	8b ec		 mov	 ebp, esp
  00003	51		 push	 ecx
  00004	51		 push	 ecx
  00005	53		 push	 ebx
  00006	56		 push	 esi
  00007	57		 push	 edi
  00008	8b f1		 mov	 esi, ecx

; 74   : 		DWORD pid = GetCurrentProcessId();

  0000a	ff 15 00 00 00
	00		 call	 DWORD PTR __imp__GetCurrentProcessId@0
  00010	89 45 f8	 mov	 DWORD PTR _pid$[ebp], eax

; 75   : 		DWORD tick = timeGetTime();

  00013	ff 15 00 00 00
	00		 call	 DWORD PTR __imp__timeGetTime@0

; 76   : 		m_ValueSize    = sizeof(type);
; 77   : 		m_MemPoolPos   = (unsigned short)( rand()+pid+tick )%(MAX_MEM_POOL-m_ValueSize);

  00019	8b 3d 00 00 00
	00		 mov	 edi, DWORD PTR __imp__rand
  0001f	89 45 fc	 mov	 DWORD PTR _tick$[ebp], eax
  00022	6a 04		 push	 4
  00024	58		 pop	 eax
  00025	66 89 46 06	 mov	 WORD PTR [esi+6], ax
  00029	ff d7		 call	 edi
  0002b	03 45 f8	 add	 eax, DWORD PTR _pid$[ebp]
  0002e	0f b7 4e 06	 movzx	 ecx, WORD PTR [esi+6]
  00032	03 45 fc	 add	 eax, DWORD PTR _tick$[ebp]
  00035	6a 0c		 push	 12			; 0000000cH
  00037	0f b7 c0	 movzx	 eax, ax
  0003a	5b		 pop	 ebx
  0003b	99		 cdq
  0003c	2b d9		 sub	 ebx, ecx
  0003e	f7 fb		 idiv	 ebx
  00040	66 89 56 04	 mov	 WORD PTR [esi+4], dx

; 78   : 		m_EncryptSeed  = (char)( rand()+pid+tick )%256;

  00044	ff d7		 call	 edi
  00046	02 45 f8	 add	 al, BYTE PTR _pid$[ebp]
  00049	02 45 fc	 add	 al, BYTE PTR _tick$[ebp]
  0004c	0f be c0	 movsx	 eax, al
  0004f	25 ff 00 00 80	 and	 eax, -2147483393	; 800000ffH
  00054	79 07		 jns	 SHORT $LN8@Init
  00056	48		 dec	 eax
  00057	0d 00 ff ff ff	 or	 eax, -256		; ffffff00H
  0005c	40		 inc	 eax
$LN8@Init:
  0005d	88 46 08	 mov	 BYTE PTR [esi+8], al

; 79   : 
; 80   : 		for (int i = 0; i < MAX_MEM_POOL ; i++)

  00060	33 db		 xor	 ebx, ebx
$LL3@Init:

; 81   : 			m_MemPool[i] = (char)( rand()+pid+tick )%256; // 

  00062	ff d7		 call	 edi
  00064	02 45 f8	 add	 al, BYTE PTR _pid$[ebp]
  00067	02 45 fc	 add	 al, BYTE PTR _tick$[ebp]
  0006a	0f be c0	 movsx	 eax, al
  0006d	25 ff 00 00 80	 and	 eax, -2147483393	; 800000ffH
  00072	79 07		 jns	 SHORT $LN9@Init
  00074	48		 dec	 eax
  00075	0d 00 ff ff ff	 or	 eax, -256		; ffffff00H
  0007a	40		 inc	 eax
$LN9@Init:
  0007b	88 44 1e 1c	 mov	 BYTE PTR [esi+ebx+28], al
  0007f	43		 inc	 ebx
  00080	83 fb 0c	 cmp	 ebx, 12			; 0000000cH
  00083	7c dd		 jl	 SHORT $LL3@Init

; 82   : 
; 83   : 		//UJ 130913, : szKey  
; 84   : 		//char szKey[ccddaabb::KEY_SIZE];//="";
; 85   : 		//for (int i = 0; i < ccddaabb::KEY_SIZE  ; i++)
; 86   : 		//	szKey[i] = (char)( rand()+pid+tick )%256; // 
; 87   : 		m_RC5.Setup( NULL, pid, tick );

  00085	ff 75 fc	 push	 DWORD PTR _tick$[ebp]
  00088	8d 4e 0c	 lea	 ecx, DWORD PTR [esi+12]
  0008b	ff 75 f8	 push	 DWORD PTR _pid$[ebp]
  0008e	6a 00		 push	 0
  00090	e8 00 00 00 00	 call	 ?Setup@ccddaabb@@QAEXPBDHH@Z ; ccddaabb::Setup
  00095	5f		 pop	 edi
  00096	5e		 pop	 esi
  00097	5b		 pop	 ebx

; 88   : 
; 89   : #ifdef _NOTUSE
; 90   : 		m_value        = 0;
; 91   : 		EncryptValueToPool((char*)&m_value);
; 92   : 		Debug();
; 93   : #endif
; 94   : 	}

  00098	c9		 leave
  00099	c3		 ret	 0
?Init@?$CEncrypt@M@@AAEXXZ ENDP				; CEncrypt<float>::Init
_TEXT	ENDS
PUBLIC	?DecryptValueToPool@?$CEncrypt@M@@QAEXPAM@Z	; CEncrypt<float>::DecryptValueToPool
EXTRN	?DecryptByte@ccddaabb@@QBEXPBDPADH@Z:PROC	; ccddaabb::DecryptByte
EXTRN	__fltused:DWORD
; Function compile flags: /Ogsp
;	COMDAT ?DecryptValueToPool@?$CEncrypt@M@@QAEXPAM@Z
_TEXT	SEGMENT
_value$ = 8						; size = 4
?DecryptValueToPool@?$CEncrypt@M@@QAEXPAM@Z PROC	; CEncrypt<float>::DecryptValueToPool, COMDAT
; _this$ = ecx

; 1648 : 	{

  00000	55		 push	 ebp
  00001	8b ec		 mov	 ebp, esp
  00003	56		 push	 esi

; 1649 : 		m_RC5.DecryptByte( m_MemPool, m_TempMem, 4 );

  00004	8d 71 28	 lea	 esi, DWORD PTR [ecx+40]
  00007	6a 04		 push	 4
  00009	8d 41 1c	 lea	 eax, DWORD PTR [ecx+28]
  0000c	56		 push	 esi
  0000d	50		 push	 eax
  0000e	83 c1 0c	 add	 ecx, 12			; 0000000cH
  00011	e8 00 00 00 00	 call	 ?DecryptByte@ccddaabb@@QBEXPBDPADH@Z ; ccddaabb::DecryptByte

; 1650 : 		*value = *((float*)m_TempMem);

  00016	d9 06		 fld	 DWORD PTR [esi]
  00018	8b 45 08	 mov	 eax, DWORD PTR _value$[ebp]
  0001b	d9 18		 fstp	 DWORD PTR [eax]
  0001d	5e		 pop	 esi

; 1651 : 	}

  0001e	5d		 pop	 ebp
  0001f	c2 04 00	 ret	 4
?DecryptValueToPool@?$CEncrypt@M@@QAEXPAM@Z ENDP	; CEncrypt<float>::DecryptValueToPool
_TEXT	ENDS
PUBLIC	?DecryptValueToPool@?$CEncrypt@_N@@QAEXPA_N@Z	; CEncrypt<bool>::DecryptValueToPool
; Function compile flags: /Ogsp
;	COMDAT ?DecryptValueToPool@?$CEncrypt@_N@@QAEXPA_N@Z
_TEXT	SEGMENT
_value$ = 8						; size = 4
?DecryptValueToPool@?$CEncrypt@_N@@QAEXPA_N@Z PROC	; CEncrypt<bool>::DecryptValueToPool, COMDAT
; _this$ = ecx

; 219  : 	{

  00000	55		 push	 ebp
  00001	8b ec		 mov	 ebp, esp
  00003	56		 push	 esi

; 220  : 		m_RC5.DecryptByte( m_MemPool, m_TempMem, 4 );

  00004	8d 71 28	 lea	 esi, DWORD PTR [ecx+40]
  00007	6a 04		 push	 4
  00009	8d 41 1c	 lea	 eax, DWORD PTR [ecx+28]
  0000c	56		 push	 esi
  0000d	50		 push	 eax
  0000e	83 c1 0c	 add	 ecx, 12			; 0000000cH
  00011	e8 00 00 00 00	 call	 ?DecryptByte@ccddaabb@@QBEXPBDPADH@Z ; ccddaabb::DecryptByte

; 221  : 		*value = *((bool*)m_TempMem);

  00016	8a 06		 mov	 al, BYTE PTR [esi]
  00018	8b 4d 08	 mov	 ecx, DWORD PTR _value$[ebp]
  0001b	88 01		 mov	 BYTE PTR [ecx], al
  0001d	5e		 pop	 esi

; 222  : 	}

  0001e	5d		 pop	 ebp
  0001f	c2 04 00	 ret	 4
?DecryptValueToPool@?$CEncrypt@_N@@QAEXPA_N@Z ENDP	; CEncrypt<bool>::DecryptValueToPool
_TEXT	ENDS
PUBLIC	?DecryptValueToPool@?$CEncrypt@H@@QAEXPAH@Z	; CEncrypt<int>::DecryptValueToPool
; Function compile flags: /Ogsp
;	COMDAT ?DecryptValueToPool@?$CEncrypt@H@@QAEXPAH@Z
_TEXT	SEGMENT
_value$ = 8						; size = 4
?DecryptValueToPool@?$CEncrypt@H@@QAEXPAH@Z PROC	; CEncrypt<int>::DecryptValueToPool, COMDAT
; _this$ = ecx

; 837  : 	{

  00000	55		 push	 ebp
  00001	8b ec		 mov	 ebp, esp
  00003	56		 push	 esi

; 838  : 		m_RC5.DecryptByte( m_MemPool, m_TempMem, 4 );

  00004	8d 71 28	 lea	 esi, DWORD PTR [ecx+40]
  00007	6a 04		 push	 4
  00009	8d 41 1c	 lea	 eax, DWORD PTR [ecx+28]
  0000c	56		 push	 esi
  0000d	50		 push	 eax
  0000e	83 c1 0c	 add	 ecx, 12			; 0000000cH
  00011	e8 00 00 00 00	 call	 ?DecryptByte@ccddaabb@@QBEXPBDPADH@Z ; ccddaabb::DecryptByte

; 839  : 		*value = *((int*)m_TempMem);

  00016	8b 06		 mov	 eax, DWORD PTR [esi]
  00018	8b 4d 08	 mov	 ecx, DWORD PTR _value$[ebp]
  0001b	89 01		 mov	 DWORD PTR [ecx], eax
  0001d	5e		 pop	 esi

; 840  : 	}

  0001e	5d		 pop	 ebp
  0001f	c2 04 00	 ret	 4
?DecryptValueToPool@?$CEncrypt@H@@QAEXPAH@Z ENDP	; CEncrypt<int>::DecryptValueToPool
_TEXT	ENDS
EXTRN	__imp_??0exception@std@@QAE@ABV01@@Z:PROC
; Function compile flags: /Ogsp
;	COMDAT ??0bad_alloc@std@@QAE@ABV01@@Z
_TEXT	SEGMENT
___that$ = 8						; size = 4
??0bad_alloc@std@@QAE@ABV01@@Z PROC			; std::bad_alloc::bad_alloc, COMDAT
; _this$ = ecx
  00000	55		 push	 ebp
  00001	8b ec		 mov	 ebp, esp
  00003	56		 push	 esi
  00004	ff 75 08	 push	 DWORD PTR ___that$[ebp]
  00007	8b f1		 mov	 esi, ecx
  00009	ff 15 00 00 00
	00		 call	 DWORD PTR __imp_??0exception@std@@QAE@ABV01@@Z
  0000f	c7 06 00 00 00
	00		 mov	 DWORD PTR [esi], OFFSET ??_7bad_alloc@std@@6B@
  00015	8b c6		 mov	 eax, esi
  00017	5e		 pop	 esi
  00018	5d		 pop	 ebp
  00019	c2 04 00	 ret	 4
??0bad_alloc@std@@QAE@ABV01@@Z ENDP			; std::bad_alloc::bad_alloc
_TEXT	ENDS
PUBLIC	??$forward@AAH@std@@YAAAHAAH@Z			; std::forward<int &>
; Function compile flags: /Ogsp
; File c:\program files (x86)\microsoft visual studio 10.0\vc\include\utility
;	COMDAT ??$forward@AAH@std@@YAAAHAAH@Z
_TEXT	SEGMENT
__Arg$ = 8						; size = 4
??$forward@AAH@std@@YAAAHAAH@Z PROC			; std::forward<int &>, COMDAT

; 78   : 	{	// forward _Arg, given explicitly specified type parameter

  00000	55		 push	 ebp
  00001	8b ec		 mov	 ebp, esp

; 79   : 	return ((_Ty&&)_Arg);

  00003	8b 45 08	 mov	 eax, DWORD PTR __Arg$[ebp]

; 80   : 	}

  00006	5d		 pop	 ebp
  00007	c3		 ret	 0
??$forward@AAH@std@@YAAAHAAH@Z ENDP			; std::forward<int &>
_TEXT	ENDS
PUBLIC	??$_Move@AAD@std@@YA$$QADAAD@Z			; std::_Move<char &>
; Function compile flags: /Ogsp
;	COMDAT ??$_Move@AAD@std@@YA$$QADAAD@Z
_TEXT	SEGMENT
__Arg$ = 8						; size = 4
??$_Move@AAD@std@@YA$$QADAAD@Z PROC			; std::_Move<char &>, COMDAT

; 94   : 	{	// forward _Arg as movable

  00000	55		 push	 ebp
  00001	8b ec		 mov	 ebp, esp

; 95   : 	return ((typename tr1::_Remove_reference<_Ty>::_Type&&)_Arg);

  00003	8b 45 08	 mov	 eax, DWORD PTR __Arg$[ebp]

; 96   : 	}

  00006	5d		 pop	 ebp
  00007	c3		 ret	 0
??$_Move@AAD@std@@YA$$QADAAD@Z ENDP			; std::_Move<char &>
_TEXT	ENDS
PUBLIC	??$move@AA_N@std@@YA$$QA_NAA_N@Z		; std::move<bool &>
; Function compile flags: /Ogsp
;	COMDAT ??$move@AA_N@std@@YA$$QA_NAA_N@Z
_TEXT	SEGMENT
__Arg$ = 8						; size = 4
??$move@AA_N@std@@YA$$QA_NAA_N@Z PROC			; std::move<bool &>, COMDAT

; 86   : 	{	// forward _Arg as movable

  00000	55		 push	 ebp
  00001	8b ec		 mov	 ebp, esp

; 87   : 	return ((typename tr1::_Remove_reference<_Ty>::_Type&&)_Arg);

  00003	8b 45 08	 mov	 eax, DWORD PTR __Arg$[ebp]

; 88   : 	}

  00006	5d		 pop	 ebp
  00007	c3		 ret	 0
??$move@AA_N@std@@YA$$QA_NAA_N@Z ENDP			; std::move<bool &>
_TEXT	ENDS
PUBLIC	??$move@AAVioHashString@@@std@@YA$$QAVioHashString@@AAV1@@Z ; std::move<ioHashString &>
; Function compile flags: /Ogsp
;	COMDAT ??$move@AAVioHashString@@@std@@YA$$QAVioHashString@@AAV1@@Z
_TEXT	SEGMENT
__Arg$ = 8						; size = 4
??$move@AAVioHashString@@@std@@YA$$QAVioHashString@@AAV1@@Z PROC ; std::move<ioHashString &>, COMDAT

; 86   : 	{	// forward _Arg as movable

  00000	55		 push	 ebp
  00001	8b ec		 mov	 ebp, esp

; 87   : 	return ((typename tr1::_Remove_reference<_Ty>::_Type&&)_Arg);

  00003	8b 45 08	 mov	 eax, DWORD PTR __Arg$[ebp]

; 88   : 	}

  00006	5d		 pop	 ebp
  00007	c3		 ret	 0
??$move@AAVioHashString@@@std@@YA$$QAVioHashString@@AAV1@@Z ENDP ; std::move<ioHashString &>
_TEXT	ENDS
PUBLIC	??$forward@_N@std@@YA$$QA_NAA_N@Z		; std::forward<bool>
; Function compile flags: /Ogsp
;	COMDAT ??$forward@_N@std@@YA$$QA_NAA_N@Z
_TEXT	SEGMENT
__Arg$ = 8						; size = 4
??$forward@_N@std@@YA$$QA_NAA_N@Z PROC			; std::forward<bool>, COMDAT

; 78   : 	{	// forward _Arg, given explicitly specified type parameter

  00000	55		 push	 ebp
  00001	8b ec		 mov	 ebp, esp

; 79   : 	return ((_Ty&&)_Arg);

  00003	8b 45 08	 mov	 eax, DWORD PTR __Arg$[ebp]

; 80   : 	}

  00006	5d		 pop	 ebp
  00007	c3		 ret	 0
??$forward@_N@std@@YA$$QA_NAA_N@Z ENDP			; std::forward<bool>
_TEXT	ENDS
PUBLIC	??1?$pair@$$CBKVioHashString@@@std@@QAE@XZ	; std::pair<unsigned long const ,ioHashString>::~pair<unsigned long const ,ioHashString>
; Function compile flags: /Ogsp
;	COMDAT ??1?$pair@$$CBKVioHashString@@@std@@QAE@XZ
_TEXT	SEGMENT
??1?$pair@$$CBKVioHashString@@@std@@QAE@XZ PROC		; std::pair<unsigned long const ,ioHashString>::~pair<unsigned long const ,ioHashString>, COMDAT
; _this$ = ecx
  00000	83 c1 04	 add	 ecx, 4
  00003	ff 25 00 00 00
	00		 jmp	 DWORD PTR __imp_??1ioHashString@@QAE@XZ
??1?$pair@$$CBKVioHashString@@@std@@QAE@XZ ENDP		; std::pair<unsigned long const ,ioHashString>::~pair<unsigned long const ,ioHashString>
_TEXT	ENDS
PUBLIC	??M?$CEncrypt@M@@QAE_NABM@Z			; CEncrypt<float>::operator<
; Function compile flags: /Ogsp
; File d:\lost saga for developer\youtube\tutorial\source\src\lsclient\encryptvalue.h
;	COMDAT ??M?$CEncrypt@M@@QAE_NABM@Z
_TEXT	SEGMENT
_value$ = -4						; size = 4
_inValue$ = 8						; size = 4
??M?$CEncrypt@M@@QAE_NABM@Z PROC			; CEncrypt<float>::operator<, COMDAT
; _this$ = ecx

; 1791 : 	{

  00000	55		 push	 ebp
  00001	8b ec		 mov	 ebp, esp
  00003	51		 push	 ecx

; 1792 : 		type value;
; 1793 : 		DecryptValueToPool(&value);

  00004	8d 45 fc	 lea	 eax, DWORD PTR _value$[ebp]
  00007	50		 push	 eax
  00008	e8 00 00 00 00	 call	 ?DecryptValueToPool@?$CEncrypt@M@@QAEXPAM@Z ; CEncrypt<float>::DecryptValueToPool

; 1794 : #ifdef _NOTUSE
; 1795 : 		Debug();
; 1796 : #endif
; 1797 : 		return (value < inValue);

  0000d	8b 45 08	 mov	 eax, DWORD PTR _inValue$[ebp]
  00010	f3 0f 10 08	 movss	 xmm1, DWORD PTR [eax]
  00014	f3 0f 10 45 fc	 movss	 xmm0, DWORD PTR _value$[ebp]
  00019	0f 5a c0	 cvtps2pd xmm0, xmm0
  0001c	0f 5a c9	 cvtps2pd xmm1, xmm1
  0001f	33 c0		 xor	 eax, eax
  00021	66 0f 2f c8	 comisd	 xmm1, xmm0
  00025	76 01		 jbe	 SHORT $LN4@operator@3
  00027	40		 inc	 eax
$LN4@operator@3:

; 1798 : 	} 

  00028	c9		 leave
  00029	c2 04 00	 ret	 4
??M?$CEncrypt@M@@QAE_NABM@Z ENDP			; CEncrypt<float>::operator<
_TEXT	ENDS
PUBLIC	??9?$_Tree_const_iterator@V?$_Tree_val@V?$_Tmap_traits@KVioHashString@@U?$less@K@std@@V?$allocator@U?$pair@$$CBKVioHashString@@@std@@@3@$0A@@std@@@std@@@std@@QBE_NABV01@@Z ; std::_Tree_const_iterator<std::_Tree_val<std::_Tmap_traits<unsigned long,ioHashString,std::less<unsigned long>,std::allocator<std::pair<unsigned long const ,ioHashString> >,0> > >::operator!=
; Function compile flags: /Ogsp
; File c:\program files (x86)\microsoft visual studio 10.0\vc\include\xtree
;	COMDAT ??9?$_Tree_const_iterator@V?$_Tree_val@V?$_Tmap_traits@KVioHashString@@U?$less@K@std@@V?$allocator@U?$pair@$$CBKVioHashString@@@std@@@3@$0A@@std@@@std@@@std@@QBE_NABV01@@Z
_TEXT	SEGMENT
__Right$ = 8						; size = 4
??9?$_Tree_const_iterator@V?$_Tree_val@V?$_Tmap_traits@KVioHashString@@U?$less@K@std@@V?$allocator@U?$pair@$$CBKVioHashString@@@std@@@3@$0A@@std@@@std@@@std@@QBE_NABV01@@Z PROC ; std::_Tree_const_iterator<std::_Tree_val<std::_Tmap_traits<unsigned long,ioHashString,std::less<unsigned long>,std::allocator<std::pair<unsigned long const ,ioHashString> >,0> > >::operator!=, COMDAT
; _this$ = ecx

; 334  : 		{	// test for iterator inequality

  00000	55		 push	 ebp
  00001	8b ec		 mov	 ebp, esp

; 335  : 		return (!(*this == _Right));

  00003	8b 01		 mov	 eax, DWORD PTR [ecx]
  00005	8b 55 08	 mov	 edx, DWORD PTR __Right$[ebp]
  00008	33 c9		 xor	 ecx, ecx
  0000a	3b 02		 cmp	 eax, DWORD PTR [edx]
  0000c	0f 95 c0	 setne	 al

; 336  : 		}

  0000f	5d		 pop	 ebp
  00010	c2 04 00	 ret	 4
??9?$_Tree_const_iterator@V?$_Tree_val@V?$_Tmap_traits@KVioHashString@@U?$less@K@std@@V?$allocator@U?$pair@$$CBKVioHashString@@@std@@@3@$0A@@std@@@std@@@std@@QBE_NABV01@@Z ENDP ; std::_Tree_const_iterator<std::_Tree_val<std::_Tmap_traits<unsigned long,ioHashString,std::less<unsigned long>,std::allocator<std::pair<unsigned long const ,ioHashString> >,0> > >::operator!=
_TEXT	ENDS
PUBLIC	??0?$_Vector_val@USwingParam@@V?$allocator@USwingParam@@@std@@@std@@QAE@V?$allocator@USwingParam@@@1@@Z ; std::_Vector_val<SwingParam,std::allocator<SwingParam> >::_Vector_val<SwingParam,std::allocator<SwingParam> >
; Function compile flags: /Ogsp
; File c:\program files (x86)\microsoft visual studio 10.0\vc\include\vector
;	COMDAT ??0?$_Vector_val@USwingParam@@V?$allocator@USwingParam@@@std@@@std@@QAE@V?$allocator@USwingParam@@@1@@Z
_TEXT	SEGMENT
__Al$ = 8						; size = 1
??0?$_Vector_val@USwingParam@@V?$allocator@USwingParam@@@std@@@std@@QAE@V?$allocator@USwingParam@@@1@@Z PROC ; std::_Vector_val<SwingParam,std::allocator<SwingParam> >::_Vector_val<SwingParam,std::allocator<SwingParam> >, COMDAT
; _this$ = ecx

; 426  : 		{	// construct allocator from _Al

  00000	8b c1		 mov	 eax, ecx

; 427  : 		_Myfirst = 0;

  00002	33 c9		 xor	 ecx, ecx
  00004	89 08		 mov	 DWORD PTR [eax], ecx

; 428  : 		_Mylast = 0;

  00006	89 48 04	 mov	 DWORD PTR [eax+4], ecx

; 429  : 		_Myend = 0;

  00009	89 48 08	 mov	 DWORD PTR [eax+8], ecx

; 430  : 		}

  0000c	c2 04 00	 ret	 4
??0?$_Vector_val@USwingParam@@V?$allocator@USwingParam@@@std@@@std@@QAE@V?$allocator@USwingParam@@@1@@Z ENDP ; std::_Vector_val<SwingParam,std::allocator<SwingParam> >::_Vector_val<SwingParam,std::allocator<SwingParam> >
_TEXT	ENDS
PUBLIC	?_Lmost@?$_Tree@V?$_Tmap_traits@KVioHashString@@U?$less@K@std@@V?$allocator@U?$pair@$$CBKVioHashString@@@std@@@3@$0A@@std@@@std@@IBEAAPAU_Node@?$_Tree_nod@V?$_Tmap_traits@KVioHashString@@U?$less@K@std@@V?$allocator@U?$pair@$$CBKVioHashString@@@std@@@3@$0A@@std@@@2@XZ ; std::_Tree<std::_Tmap_traits<unsigned long,ioHashString,std::less<unsigned long>,std::allocator<std::pair<unsigned long const ,ioHashString> >,0> >::_Lmost
; Function compile flags: /Ogsp
; File c:\program files (x86)\microsoft visual studio 10.0\vc\include\xtree
;	COMDAT ?_Lmost@?$_Tree@V?$_Tmap_traits@KVioHashString@@U?$less@K@std@@V?$allocator@U?$pair@$$CBKVioHashString@@@std@@@3@$0A@@std@@@std@@IBEAAPAU_Node@?$_Tree_nod@V?$_Tmap_traits@KVioHashString@@U?$less@K@std@@V?$allocator@U?$pair@$$CBKVioHashString@@@std@@@3@$0A@@std@@@2@XZ
_TEXT	SEGMENT
?_Lmost@?$_Tree@V?$_Tmap_traits@KVioHashString@@U?$less@K@std@@V?$allocator@U?$pair@$$CBKVioHashString@@@std@@@3@$0A@@std@@@std@@IBEAAPAU_Node@?$_Tree_nod@V?$_Tmap_traits@KVioHashString@@U?$less@K@std@@V?$allocator@U?$pair@$$CBKVioHashString@@@std@@@3@$0A@@std@@@2@XZ PROC ; std::_Tree<std::_Tmap_traits<unsigned long,ioHashString,std::less<unsigned long>,std::allocator<std::pair<unsigned long const ,ioHashString> >,0> >::_Lmost, COMDAT
; _this$ = ecx

; 1759 : 		return (this->_Left(this->_Myhead));

  00000	8b 41 04	 mov	 eax, DWORD PTR [ecx+4]

; 1760 : 		}

  00003	c3		 ret	 0
?_Lmost@?$_Tree@V?$_Tmap_traits@KVioHashString@@U?$less@K@std@@V?$allocator@U?$pair@$$CBKVioHashString@@@std@@@3@$0A@@std@@@std@@IBEAAPAU_Node@?$_Tree_nod@V?$_Tmap_traits@KVioHashString@@U?$less@K@std@@V?$allocator@U?$pair@$$CBKVioHashString@@@std@@@3@$0A@@std@@@2@XZ ENDP ; std::_Tree<std::_Tmap_traits<unsigned long,ioHashString,std::less<unsigned long>,std::allocator<std::pair<unsigned long const ,ioHashString> >,0> >::_Lmost
_TEXT	ENDS
PUBLIC	?_Rmost@?$_Tree@V?$_Tmap_traits@KVioHashString@@U?$less@K@std@@V?$allocator@U?$pair@$$CBKVioHashString@@@std@@@3@$0A@@std@@@std@@IBEAAPAU_Node@?$_Tree_nod@V?$_Tmap_traits@KVioHashString@@U?$less@K@std@@V?$allocator@U?$pair@$$CBKVioHashString@@@std@@@3@$0A@@std@@@2@XZ ; std::_Tree<std::_Tmap_traits<unsigned long,ioHashString,std::less<unsigned long>,std::allocator<std::pair<unsigned long const ,ioHashString> >,0> >::_Rmost
; Function compile flags: /Ogsp
;	COMDAT ?_Rmost@?$_Tree@V?$_Tmap_traits@KVioHashString@@U?$less@K@std@@V?$allocator@U?$pair@$$CBKVioHashString@@@std@@@3@$0A@@std@@@std@@IBEAAPAU_Node@?$_Tree_nod@V?$_Tmap_traits@KVioHashString@@U?$less@K@std@@V?$allocator@U?$pair@$$CBKVioHashString@@@std@@@3@$0A@@std@@@2@XZ
_TEXT	SEGMENT
?_Rmost@?$_Tree@V?$_Tmap_traits@KVioHashString@@U?$less@K@std@@V?$allocator@U?$pair@$$CBKVioHashString@@@std@@@3@$0A@@std@@@std@@IBEAAPAU_Node@?$_Tree_nod@V?$_Tmap_traits@KVioHashString@@U?$less@K@std@@V?$allocator@U?$pair@$$CBKVioHashString@@@std@@@3@$0A@@std@@@2@XZ PROC ; std::_Tree<std::_Tmap_traits<unsigned long,ioHashString,std::less<unsigned long>,std::allocator<std::pair<unsigned long const ,ioHashString> >,0> >::_Rmost, COMDAT
; _this$ = ecx

; 1784 : 		return (this->_Right(this->_Myhead));

  00000	8b 41 04	 mov	 eax, DWORD PTR [ecx+4]
  00003	83 c0 08	 add	 eax, 8

; 1785 : 		}

  00006	c3		 ret	 0
?_Rmost@?$_Tree@V?$_Tmap_traits@KVioHashString@@U?$less@K@std@@V?$allocator@U?$pair@$$CBKVioHashString@@@std@@@3@$0A@@std@@@std@@IBEAAPAU_Node@?$_Tree_nod@V?$_Tmap_traits@KVioHashString@@U?$less@K@std@@V?$allocator@U?$pair@$$CBKVioHashString@@@std@@@3@$0A@@std@@@2@XZ ENDP ; std::_Tree<std::_Tmap_traits<unsigned long,ioHashString,std::less<unsigned long>,std::allocator<std::pair<unsigned long const ,ioHashString> >,0> >::_Rmost
_TEXT	ENDS
PUBLIC	?_Root@?$_Tree@V?$_Tmap_traits@KVioHashString@@U?$less@K@std@@V?$allocator@U?$pair@$$CBKVioHashString@@@std@@@3@$0A@@std@@@std@@IBEAAPAU_Node@?$_Tree_nod@V?$_Tmap_traits@KVioHashString@@U?$less@K@std@@V?$allocator@U?$pair@$$CBKVioHashString@@@std@@@3@$0A@@std@@@2@XZ ; std::_Tree<std::_Tmap_traits<unsigned long,ioHashString,std::less<unsigned long>,std::allocator<std::pair<unsigned long const ,ioHashString> >,0> >::_Root
; Function compile flags: /Ogsp
;	COMDAT ?_Root@?$_Tree@V?$_Tmap_traits@KVioHashString@@U?$less@K@std@@V?$allocator@U?$pair@$$CBKVioHashString@@@std@@@3@$0A@@std@@@std@@IBEAAPAU_Node@?$_Tree_nod@V?$_Tmap_traits@KVioHashString@@U?$less@K@std@@V?$allocator@U?$pair@$$CBKVioHashString@@@std@@@3@$0A@@std@@@2@XZ
_TEXT	SEGMENT
?_Root@?$_Tree@V?$_Tmap_traits@KVioHashString@@U?$less@K@std@@V?$allocator@U?$pair@$$CBKVioHashString@@@std@@@3@$0A@@std@@@std@@IBEAAPAU_Node@?$_Tree_nod@V?$_Tmap_traits@KVioHashString@@U?$less@K@std@@V?$allocator@U?$pair@$$CBKVioHashString@@@std@@@3@$0A@@std@@@2@XZ PROC ; std::_Tree<std::_Tmap_traits<unsigned long,ioHashString,std::less<unsigned long>,std::allocator<std::pair<unsigned long const ,ioHashString> >,0> >::_Root, COMDAT
; _this$ = ecx

; 1789 : 		return (this->_Parent(this->_Myhead));

  00000	8b 41 04	 mov	 eax, DWORD PTR [ecx+4]
  00003	83 c0 04	 add	 eax, 4

; 1790 : 		}

  00006	c3		 ret	 0
?_Root@?$_Tree@V?$_Tmap_traits@KVioHashString@@U?$less@K@std@@V?$allocator@U?$pair@$$CBKVioHashString@@@std@@@3@$0A@@std@@@std@@IBEAAPAU_Node@?$_Tree_nod@V?$_Tmap_traits@KVioHashString@@U?$less@K@std@@V?$allocator@U?$pair@$$CBKVioHashString@@@std@@@3@$0A@@std@@@2@XZ ENDP ; std::_Tree<std::_Tmap_traits<unsigned long,ioHashString,std::less<unsigned long>,std::allocator<std::pair<unsigned long const ,ioHashString> >,0> >::_Root
_TEXT	ENDS
PUBLIC	??1?$_Tree_val@V?$_Tmap_traits@KVioHashString@@U?$less@K@std@@V?$allocator@U?$pair@$$CBKVioHashString@@@std@@@3@$0A@@std@@@std@@QAE@XZ ; std::_Tree_val<std::_Tmap_traits<unsigned long,ioHashString,std::less<unsigned long>,std::allocator<std::pair<unsigned long const ,ioHashString> >,0> >::~_Tree_val<std::_Tmap_traits<unsigned long,ioHashString,std::less<unsigned long>,std::allocator<std::pair<unsigned long const ,ioHashString> >,0> >
; Function compile flags: /Ogsp
;	COMDAT ??1?$_Tree_val@V?$_Tmap_traits@KVioHashString@@U?$less@K@std@@V?$allocator@U?$pair@$$CBKVioHashString@@@std@@@3@$0A@@std@@@std@@QAE@XZ
_TEXT	SEGMENT
??1?$_Tree_val@V?$_Tmap_traits@KVioHashString@@U?$less@K@std@@V?$allocator@U?$pair@$$CBKVioHashString@@@std@@@3@$0A@@std@@@std@@QAE@XZ PROC ; std::_Tree_val<std::_Tmap_traits<unsigned long,ioHashString,std::less<unsigned long>,std::allocator<std::pair<unsigned long const ,ioHashString> >,0> >::~_Tree_val<std::_Tmap_traits<unsigned long,ioHashString,std::less<unsigned long>,std::allocator<std::pair<unsigned long const ,ioHashString> >,0> >, COMDAT
; _this$ = ecx

; 555  : 		this->_Alnod.deallocate(this->_Myhead, 1);

  00000	ff 71 04	 push	 DWORD PTR [ecx+4]
  00003	e8 00 00 00 00	 call	 ??3@YAXPAX@Z		; operator delete
  00008	59		 pop	 ecx

; 556  : 		}

  00009	c3		 ret	 0
??1?$_Tree_val@V?$_Tmap_traits@KVioHashString@@U?$less@K@std@@V?$allocator@U?$pair@$$CBKVioHashString@@@std@@@3@$0A@@std@@@std@@QAE@XZ ENDP ; std::_Tree_val<std::_Tmap_traits<unsigned long,ioHashString,std::less<unsigned long>,std::allocator<std::pair<unsigned long const ,ioHashString> >,0> >::~_Tree_val<std::_Tmap_traits<unsigned long,ioHashString,std::less<unsigned long>,std::allocator<std::pair<unsigned long const ,ioHashString> >,0> >
_TEXT	ENDS
PUBLIC	?_Key@?$_Tree_val@V?$_Tmap_traits@KVioHashString@@U?$less@K@std@@V?$allocator@U?$pair@$$CBKVioHashString@@@std@@@3@$0A@@std@@@std@@SAAAKPAU_Node@?$_Tree_nod@V?$_Tmap_traits@KVioHashString@@U?$less@K@std@@V?$allocator@U?$pair@$$CBKVioHashString@@@std@@@3@$0A@@std@@@2@@Z ; std::_Tree_val<std::_Tmap_traits<unsigned long,ioHashString,std::less<unsigned long>,std::allocator<std::pair<unsigned long const ,ioHashString> >,0> >::_Key
; Function compile flags: /Ogsp
;	COMDAT ?_Key@?$_Tree_val@V?$_Tmap_traits@KVioHashString@@U?$less@K@std@@V?$allocator@U?$pair@$$CBKVioHashString@@@std@@@3@$0A@@std@@@std@@SAAAKPAU_Node@?$_Tree_nod@V?$_Tmap_traits@KVioHashString@@U?$less@K@std@@V?$allocator@U?$pair@$$CBKVioHashString@@@std@@@3@$0A@@std@@@2@@Z
_TEXT	SEGMENT
__Pnode$ = 8						; size = 4
?_Key@?$_Tree_val@V?$_Tmap_traits@KVioHashString@@U?$less@K@std@@V?$allocator@U?$pair@$$CBKVioHashString@@@std@@@3@$0A@@std@@@std@@SAAAKPAU_Node@?$_Tree_nod@V?$_Tmap_traits@KVioHashString@@U?$less@K@std@@V?$allocator@U?$pair@$$CBKVioHashString@@@std@@@3@$0A@@std@@@2@@Z PROC ; std::_Tree_val<std::_Tmap_traits<unsigned long,ioHashString,std::less<unsigned long>,std::allocator<std::pair<unsigned long const ,ioHashString> >,0> >::_Key, COMDAT

; 616  : 		{	// return reference to key in node

  00000	55		 push	 ebp
  00001	8b ec		 mov	 ebp, esp

; 617  : 		return ((key_type&)_Traits::_Kfn(_Myval(_Pnode)));

  00003	8b 45 08	 mov	 eax, DWORD PTR __Pnode$[ebp]
  00006	83 c0 0c	 add	 eax, 12			; 0000000cH

; 618  : 		}

  00009	5d		 pop	 ebp
  0000a	c3		 ret	 0
?_Key@?$_Tree_val@V?$_Tmap_traits@KVioHashString@@U?$less@K@std@@V?$allocator@U?$pair@$$CBKVioHashString@@@std@@@3@$0A@@std@@@std@@SAAAKPAU_Node@?$_Tree_nod@V?$_Tmap_traits@KVioHashString@@U?$less@K@std@@V?$allocator@U?$pair@$$CBKVioHashString@@@std@@@3@$0A@@std@@@2@@Z ENDP ; std::_Tree_val<std::_Tmap_traits<unsigned long,ioHashString,std::less<unsigned long>,std::allocator<std::pair<unsigned long const ,ioHashString> >,0> >::_Key
_TEXT	ENDS
PUBLIC	??0?$_Tree_const_iterator@V?$_Tree_val@V?$_Tmap_traits@KVioHashString@@U?$less@K@std@@V?$allocator@U?$pair@$$CBKVioHashString@@@std@@@3@$0A@@std@@@std@@@std@@QAE@PAU_Node@?$_Tree_nod@V?$_Tmap_traits@KVioHashString@@U?$less@K@std@@V?$allocator@U?$pair@$$CBKVioHashString@@@std@@@3@$0A@@std@@@1@PBV?$_Tree_val@V?$_Tmap_traits@KVioHashString@@U?$less@K@std@@V?$allocator@U?$pair@$$CBKVioHashString@@@std@@@3@$0A@@std@@@1@@Z ; std::_Tree_const_iterator<std::_Tree_val<std::_Tmap_traits<unsigned long,ioHashString,std::less<unsigned long>,std::allocator<std::pair<unsigned long const ,ioHashString> >,0> > >::_Tree_const_iterator<std::_Tree_val<std::_Tmap_traits<unsigned long,ioHashString,std::less<unsigned long>,std::allocator<std::pair<unsigned long const ,ioHashString> >,0> > >
; Function compile flags: /Ogsp
;	COMDAT ??0?$_Tree_const_iterator@V?$_Tree_val@V?$_Tmap_traits@KVioHashString@@U?$less@K@std@@V?$allocator@U?$pair@$$CBKVioHashString@@@std@@@3@$0A@@std@@@std@@@std@@QAE@PAU_Node@?$_Tree_nod@V?$_Tmap_traits@KVioHashString@@U?$less@K@std@@V?$allocator@U?$pair@$$CBKVioHashString@@@std@@@3@$0A@@std@@@1@PBV?$_Tree_val@V?$_Tmap_traits@KVioHashString@@U?$less@K@std@@V?$allocator@U?$pair@$$CBKVioHashString@@@std@@@3@$0A@@std@@@1@@Z
_TEXT	SEGMENT
__Pnode$ = 8						; size = 4
__Plist$ = 12						; size = 4
??0?$_Tree_const_iterator@V?$_Tree_val@V?$_Tmap_traits@KVioHashString@@U?$less@K@std@@V?$allocator@U?$pair@$$CBKVioHashString@@@std@@@3@$0A@@std@@@std@@@std@@QAE@PAU_Node@?$_Tree_nod@V?$_Tmap_traits@KVioHashString@@U?$less@K@std@@V?$allocator@U?$pair@$$CBKVioHashString@@@std@@@3@$0A@@std@@@1@PBV?$_Tree_val@V?$_Tmap_traits@KVioHashString@@U?$less@K@std@@V?$allocator@U?$pair@$$CBKVioHashString@@@std@@@3@$0A@@std@@@1@@Z PROC ; std::_Tree_const_iterator<std::_Tree_val<std::_Tmap_traits<unsigned long,ioHashString,std::less<unsigned long>,std::allocator<std::pair<unsigned long const ,ioHashString> >,0> > >::_Tree_const_iterator<std::_Tree_val<std::_Tmap_traits<unsigned long,ioHashString,std::less<unsigned long>,std::allocator<std::pair<unsigned long const ,ioHashString> >,0> > >, COMDAT
; _this$ = ecx

; 213  : 		{	// construct with node pointer _Pnode

  00000	55		 push	 ebp
  00001	8b ec		 mov	 ebp, esp
  00003	8b c1		 mov	 eax, ecx
  00005	8b 4d 08	 mov	 ecx, DWORD PTR __Pnode$[ebp]
  00008	89 08		 mov	 DWORD PTR [eax], ecx

; 214  : 		}

  0000a	5d		 pop	 ebp
  0000b	c2 08 00	 ret	 8
??0?$_Tree_const_iterator@V?$_Tree_val@V?$_Tmap_traits@KVioHashString@@U?$less@K@std@@V?$allocator@U?$pair@$$CBKVioHashString@@@std@@@3@$0A@@std@@@std@@@std@@QAE@PAU_Node@?$_Tree_nod@V?$_Tmap_traits@KVioHashString@@U?$less@K@std@@V?$allocator@U?$pair@$$CBKVioHashString@@@std@@@3@$0A@@std@@@1@PBV?$_Tree_val@V?$_Tmap_traits@KVioHashString@@U?$less@K@std@@V?$allocator@U?$pair@$$CBKVioHashString@@@std@@@3@$0A@@std@@@1@@Z ENDP ; std::_Tree_const_iterator<std::_Tree_val<std::_Tmap_traits<unsigned long,ioHashString,std::less<unsigned long>,std::allocator<std::pair<unsigned long const ,ioHashString> >,0> > >::_Tree_const_iterator<std::_Tree_val<std::_Tmap_traits<unsigned long,ioHashString,std::less<unsigned long>,std::allocator<std::pair<unsigned long const ,ioHashString> >,0> > >
_TEXT	ENDS
PUBLIC	??D?$_Tree_unchecked_const_iterator@V?$_Tree_val@V?$_Tmap_traits@KVioHashString@@U?$less@K@std@@V?$allocator@U?$pair@$$CBKVioHashString@@@std@@@3@$0A@@std@@@std@@U_Iterator_base0@2@@std@@QBEABU?$pair@$$CBKVioHashString@@@1@XZ ; std::_Tree_unchecked_const_iterator<std::_Tree_val<std::_Tmap_traits<unsigned long,ioHashString,std::less<unsigned long>,std::allocator<std::pair<unsigned long const ,ioHashString> >,0> >,std::_Iterator_base0>::operator*
; Function compile flags: /Ogsp
;	COMDAT ??D?$_Tree_unchecked_const_iterator@V?$_Tree_val@V?$_Tmap_traits@KVioHashString@@U?$less@K@std@@V?$allocator@U?$pair@$$CBKVioHashString@@@std@@@3@$0A@@std@@@std@@U_Iterator_base0@2@@std@@QBEABU?$pair@$$CBKVioHashString@@@1@XZ
_TEXT	SEGMENT
??D?$_Tree_unchecked_const_iterator@V?$_Tree_val@V?$_Tmap_traits@KVioHashString@@U?$less@K@std@@V?$allocator@U?$pair@$$CBKVioHashString@@@std@@@3@$0A@@std@@@std@@U_Iterator_base0@2@@std@@QBEABU?$pair@$$CBKVioHashString@@@1@XZ PROC ; std::_Tree_unchecked_const_iterator<std::_Tree_val<std::_Tmap_traits<unsigned long,ioHashString,std::less<unsigned long>,std::allocator<std::pair<unsigned long const ,ioHashString> >,0> >,std::_Iterator_base0>::operator*, COMDAT
; _this$ = ecx

; 49   : 		return (_Mytree::_Myval(_Ptr));

  00000	8b 01		 mov	 eax, DWORD PTR [ecx]
  00002	83 c0 0c	 add	 eax, 12			; 0000000cH

; 50   : 		}

  00005	c3		 ret	 0
??D?$_Tree_unchecked_const_iterator@V?$_Tree_val@V?$_Tmap_traits@KVioHashString@@U?$less@K@std@@V?$allocator@U?$pair@$$CBKVioHashString@@@std@@@3@$0A@@std@@@std@@U_Iterator_base0@2@@std@@QBEABU?$pair@$$CBKVioHashString@@@1@XZ ENDP ; std::_Tree_unchecked_const_iterator<std::_Tree_val<std::_Tmap_traits<unsigned long,ioHashString,std::less<unsigned long>,std::allocator<std::pair<unsigned long const ,ioHashString> >,0> >,std::_Iterator_base0>::operator*
_TEXT	ENDS
PUBLIC	?max_size@?$vector@USwingParam@@V?$allocator@USwingParam@@@std@@@std@@QBEIXZ ; std::vector<SwingParam,std::allocator<SwingParam> >::max_size
; Function compile flags: /Ogsp
; File c:\program files (x86)\microsoft visual studio 10.0\vc\include\vector
;	COMDAT ?max_size@?$vector@USwingParam@@V?$allocator@USwingParam@@@std@@@std@@QBEIXZ
_TEXT	SEGMENT
?max_size@?$vector@USwingParam@@V?$allocator@USwingParam@@@std@@@std@@QBEIXZ PROC ; std::vector<SwingParam,std::allocator<SwingParam> >::max_size, COMDAT
; _this$ = ecx

; 884  : 		return (this->_Alval.max_size());

  00000	b8 ff ff ff 0f	 mov	 eax, 268435455		; 0fffffffH

; 885  : 		}

  00005	c3		 ret	 0
?max_size@?$vector@USwingParam@@V?$allocator@USwingParam@@@std@@@std@@QBEIXZ ENDP ; std::vector<SwingParam,std::allocator<SwingParam> >::max_size
_TEXT	ENDS
PUBLIC	?_Grow_to@?$vector@USwingParam@@V?$allocator@USwingParam@@@std@@@std@@IBEII@Z ; std::vector<SwingParam,std::allocator<SwingParam> >::_Grow_to
; Function compile flags: /Ogsp
;	COMDAT ?_Grow_to@?$vector@USwingParam@@V?$allocator@USwingParam@@@std@@@std@@IBEII@Z
_TEXT	SEGMENT
__Count$ = 8						; size = 4
?_Grow_to@?$vector@USwingParam@@V?$allocator@USwingParam@@@std@@@std@@IBEII@Z PROC ; std::vector<SwingParam,std::allocator<SwingParam> >::_Grow_to, COMDAT
; _this$ = ecx

; 1274 : 		{	// grow by 50% or at least to _Count

  00000	55		 push	 ebp
  00001	8b ec		 mov	 ebp, esp

; 1275 : 		size_type _Capacity = capacity();

  00003	8b 41 08	 mov	 eax, DWORD PTR [ecx+8]
  00006	2b 01		 sub	 eax, DWORD PTR [ecx]

; 1276 : 
; 1277 : 		_Capacity = max_size() - _Capacity / 2 < _Capacity
; 1278 : 			? 0 : _Capacity + _Capacity / 2;	// try to grow by 50%

  00008	ba ff ff ff 0f	 mov	 edx, 268435455		; 0fffffffH
  0000d	c1 f8 04	 sar	 eax, 4
  00010	8b c8		 mov	 ecx, eax
  00012	d1 e9		 shr	 ecx, 1
  00014	2b d1		 sub	 edx, ecx
  00016	3b d0		 cmp	 edx, eax
  00018	73 04		 jae	 SHORT $LN4@Grow_to
  0001a	33 c0		 xor	 eax, eax
  0001c	eb 02		 jmp	 SHORT $LN5@Grow_to
$LN4@Grow_to:
  0001e	03 c1		 add	 eax, ecx
$LN5@Grow_to:

; 1279 : 		if (_Capacity < _Count)

  00020	3b 45 08	 cmp	 eax, DWORD PTR __Count$[ebp]

; 1280 : 			_Capacity = _Count;

  00023	0f 42 45 08	 cmovb	 eax, DWORD PTR __Count$[ebp]

; 1281 : 		return (_Capacity);
; 1282 : 		}

  00027	5d		 pop	 ebp
  00028	c2 04 00	 ret	 4
?_Grow_to@?$vector@USwingParam@@V?$allocator@USwingParam@@@std@@@std@@IBEII@Z ENDP ; std::vector<SwingParam,std::allocator<SwingParam> >::_Grow_to
_TEXT	ENDS
PUBLIC	?allocate@?$allocator@USwingParam@@@std@@QAEPAUSwingParam@@I@Z ; std::allocator<SwingParam>::allocate
; Function compile flags: /Ogsp
; File c:\program files (x86)\microsoft visual studio 10.0\vc\include\xmemory
;	COMDAT ?allocate@?$allocator@USwingParam@@@std@@QAEPAUSwingParam@@I@Z
_TEXT	SEGMENT
__Count$ = 8						; size = 4
?allocate@?$allocator@USwingParam@@@std@@QAEPAUSwingParam@@I@Z PROC ; std::allocator<SwingParam>::allocate, COMDAT
; _this$ = ecx

; 186  : 		{	// allocate array of _Count elements

  00000	55		 push	 ebp
  00001	8b ec		 mov	 ebp, esp

; 187  : 		return (_Allocate(_Count, (pointer)0));

  00003	6a 00		 push	 0
  00005	ff 75 08	 push	 DWORD PTR __Count$[ebp]
  00008	e8 00 00 00 00	 call	 ??$_Allocate@USwingParam@@@std@@YAPAUSwingParam@@IPAU1@@Z ; std::_Allocate<SwingParam>
  0000d	59		 pop	 ecx
  0000e	59		 pop	 ecx

; 188  : 		}

  0000f	5d		 pop	 ebp
  00010	c2 04 00	 ret	 4
?allocate@?$allocator@USwingParam@@@std@@QAEPAUSwingParam@@I@Z ENDP ; std::allocator<SwingParam>::allocate
_TEXT	ENDS
PUBLIC	?_Lbound@?$_Tree@V?$_Tmap_traits@KVioHashString@@U?$less@K@std@@V?$allocator@U?$pair@$$CBKVioHashString@@@std@@@3@$0A@@std@@@std@@IBEPAU_Node@?$_Tree_nod@V?$_Tmap_traits@KVioHashString@@U?$less@K@std@@V?$allocator@U?$pair@$$CBKVioHashString@@@std@@@3@$0A@@std@@@2@ABK@Z ; std::_Tree<std::_Tmap_traits<unsigned long,ioHashString,std::less<unsigned long>,std::allocator<std::pair<unsigned long const ,ioHashString> >,0> >::_Lbound
; Function compile flags: /Ogsp
; File c:\program files (x86)\microsoft visual studio 10.0\vc\include\xtree
;	COMDAT ?_Lbound@?$_Tree@V?$_Tmap_traits@KVioHashString@@U?$less@K@std@@V?$allocator@U?$pair@$$CBKVioHashString@@@std@@@3@$0A@@std@@@std@@IBEPAU_Node@?$_Tree_nod@V?$_Tmap_traits@KVioHashString@@U?$less@K@std@@V?$allocator@U?$pair@$$CBKVioHashString@@@std@@@3@$0A@@std@@@2@ABK@Z
_TEXT	SEGMENT
__Keyval$ = 8						; size = 4
?_Lbound@?$_Tree@V?$_Tmap_traits@KVioHashString@@U?$less@K@std@@V?$allocator@U?$pair@$$CBKVioHashString@@@std@@@3@$0A@@std@@@std@@IBEPAU_Node@?$_Tree_nod@V?$_Tmap_traits@KVioHashString@@U?$less@K@std@@V?$allocator@U?$pair@$$CBKVioHashString@@@std@@@3@$0A@@std@@@2@ABK@Z PROC ; std::_Tree<std::_Tmap_traits<unsigned long,ioHashString,std::less<unsigned long>,std::allocator<std::pair<unsigned long const ,ioHashString> >,0> >::_Lbound, COMDAT
; _this$ = ecx

; 1724 : 		{	// find leftmost node not less than _Keyval

  00000	55		 push	 ebp
  00001	8b ec		 mov	 ebp, esp

; 1725 : 		_Nodeptr _Pnode = _Root();

  00003	8b 41 04	 mov	 eax, DWORD PTR [ecx+4]
  00006	8b 48 04	 mov	 ecx, DWORD PTR [eax+4]

; 1726 : 		_Nodeptr _Wherenode = this->_Myhead;	// end() if search fails
; 1727 : 
; 1728 : 		while (!this->_Isnil(_Pnode))

  00009	80 79 21 00	 cmp	 BYTE PTR [ecx+33], 0
  0000d	75 19		 jne	 SHORT $LN3@Lbound
  0000f	8b 55 08	 mov	 edx, DWORD PTR __Keyval$[ebp]
  00012	8b 12		 mov	 edx, DWORD PTR [edx]
$LL4@Lbound:

; 1729 : 			if (_DEBUG_LT_PRED(this->comp, this->_Key(_Pnode), _Keyval))

  00014	39 51 0c	 cmp	 DWORD PTR [ecx+12], edx
  00017	73 05		 jae	 SHORT $LN2@Lbound

; 1730 : 				_Pnode = this->_Right(_Pnode);	// descend right subtree

  00019	8b 49 08	 mov	 ecx, DWORD PTR [ecx+8]

; 1731 : 			else

  0001c	eb 04		 jmp	 SHORT $LN1@Lbound
$LN2@Lbound:

; 1732 : 				{	// _Pnode not less than _Keyval, remember it
; 1733 : 				_Wherenode = _Pnode;

  0001e	8b c1		 mov	 eax, ecx

; 1734 : 				_Pnode = this->_Left(_Pnode);	// descend left subtree

  00020	8b 09		 mov	 ecx, DWORD PTR [ecx]
$LN1@Lbound:

; 1726 : 		_Nodeptr _Wherenode = this->_Myhead;	// end() if search fails
; 1727 : 
; 1728 : 		while (!this->_Isnil(_Pnode))

  00022	80 79 21 00	 cmp	 BYTE PTR [ecx+33], 0
  00026	74 ec		 je	 SHORT $LL4@Lbound
$LN3@Lbound:

; 1735 : 				}
; 1736 : 
; 1737 : 		return (_Wherenode);	// return best remembered candidate
; 1738 : 		}

  00028	5d		 pop	 ebp
  00029	c2 04 00	 ret	 4
?_Lbound@?$_Tree@V?$_Tmap_traits@KVioHashString@@U?$less@K@std@@V?$allocator@U?$pair@$$CBKVioHashString@@@std@@@3@$0A@@std@@@std@@IBEPAU_Node@?$_Tree_nod@V?$_Tmap_traits@KVioHashString@@U?$less@K@std@@V?$allocator@U?$pair@$$CBKVioHashString@@@std@@@3@$0A@@std@@@2@ABK@Z ENDP ; std::_Tree<std::_Tmap_traits<unsigned long,ioHashString,std::less<unsigned long>,std::allocator<std::pair<unsigned long const ,ioHashString> >,0> >::_Lbound
_TEXT	ENDS
PUBLIC	??0?$_Tree_nod@V?$_Tmap_traits@KVioHashString@@U?$less@K@std@@V?$allocator@U?$pair@$$CBKVioHashString@@@std@@@3@$0A@@std@@@std@@QAE@ABU?$less@K@1@V?$allocator@U?$pair@$$CBKVioHashString@@@std@@@1@@Z ; std::_Tree_nod<std::_Tmap_traits<unsigned long,ioHashString,std::less<unsigned long>,std::allocator<std::pair<unsigned long const ,ioHashString> >,0> >::_Tree_nod<std::_Tmap_traits<unsigned long,ioHashString,std::less<unsigned long>,std::allocator<std::pair<unsigned long const ,ioHashString> >,0> >
; Function compile flags: /Ogsp
;	COMDAT ??0?$_Tree_nod@V?$_Tmap_traits@KVioHashString@@U?$less@K@std@@V?$allocator@U?$pair@$$CBKVioHashString@@@std@@@3@$0A@@std@@@std@@QAE@ABU?$less@K@1@V?$allocator@U?$pair@$$CBKVioHashString@@@std@@@1@@Z
_TEXT	SEGMENT
__Parg$ = 8						; size = 4
__Al$ = 12						; size = 1
??0?$_Tree_nod@V?$_Tmap_traits@KVioHashString@@U?$less@K@std@@V?$allocator@U?$pair@$$CBKVioHashString@@@std@@@3@$0A@@std@@@std@@QAE@ABU?$less@K@1@V?$allocator@U?$pair@$$CBKVioHashString@@@std@@@1@@Z PROC ; std::_Tree_nod<std::_Tmap_traits<unsigned long,ioHashString,std::less<unsigned long>,std::allocator<std::pair<unsigned long const ,ioHashString> >,0> >::_Tree_nod<std::_Tmap_traits<unsigned long,ioHashString,std::less<unsigned long>,std::allocator<std::pair<unsigned long const ,ioHashString> >,0> >, COMDAT
; _this$ = ecx

; 482  : 		{	// construct traits from _Parg and allocators from _Al

  00000	8b c1		 mov	 eax, ecx

; 483  : 		}

  00002	c2 08 00	 ret	 8
??0?$_Tree_nod@V?$_Tmap_traits@KVioHashString@@U?$less@K@std@@V?$allocator@U?$pair@$$CBKVioHashString@@@std@@@3@$0A@@std@@@std@@QAE@ABU?$less@K@1@V?$allocator@U?$pair@$$CBKVioHashString@@@std@@@1@@Z ENDP ; std::_Tree_nod<std::_Tmap_traits<unsigned long,ioHashString,std::less<unsigned long>,std::allocator<std::pair<unsigned long const ,ioHashString> >,0> >::_Tree_nod<std::_Tmap_traits<unsigned long,ioHashString,std::less<unsigned long>,std::allocator<std::pair<unsigned long const ,ioHashString> >,0> >
_TEXT	ENDS
PUBLIC	?allocate@?$allocator@U_Node@?$_Tree_nod@V?$_Tmap_traits@KVioHashString@@U?$less@K@std@@V?$allocator@U?$pair@$$CBKVioHashString@@@std@@@3@$0A@@std@@@std@@@std@@QAEPAU_Node@?$_Tree_nod@V?$_Tmap_traits@KVioHashString@@U?$less@K@std@@V?$allocator@U?$pair@$$CBKVioHashString@@@std@@@3@$0A@@std@@@2@I@Z ; std::allocator<std::_Tree_nod<std::_Tmap_traits<unsigned long,ioHashString,std::less<unsigned long>,std::allocator<std::pair<unsigned long const ,ioHashString> >,0> >::_Node>::allocate
; Function compile flags: /Ogsp
; File c:\program files (x86)\microsoft visual studio 10.0\vc\include\xmemory
;	COMDAT ?allocate@?$allocator@U_Node@?$_Tree_nod@V?$_Tmap_traits@KVioHashString@@U?$less@K@std@@V?$allocator@U?$pair@$$CBKVioHashString@@@std@@@3@$0A@@std@@@std@@@std@@QAEPAU_Node@?$_Tree_nod@V?$_Tmap_traits@KVioHashString@@U?$less@K@std@@V?$allocator@U?$pair@$$CBKVioHashString@@@std@@@3@$0A@@std@@@2@I@Z
_TEXT	SEGMENT
__Count$ = 8						; size = 4
?allocate@?$allocator@U_Node@?$_Tree_nod@V?$_Tmap_traits@KVioHashString@@U?$less@K@std@@V?$allocator@U?$pair@$$CBKVioHashString@@@std@@@3@$0A@@std@@@std@@@std@@QAEPAU_Node@?$_Tree_nod@V?$_Tmap_traits@KVioHashString@@U?$less@K@std@@V?$allocator@U?$pair@$$CBKVioHashString@@@std@@@3@$0A@@std@@@2@I@Z PROC ; std::allocator<std::_Tree_nod<std::_Tmap_traits<unsigned long,ioHashString,std::less<unsigned long>,std::allocator<std::pair<unsigned long const ,ioHashString> >,0> >::_Node>::allocate, COMDAT
; _this$ = ecx

; 186  : 		{	// allocate array of _Count elements

  00000	55		 push	 ebp
  00001	8b ec		 mov	 ebp, esp

; 187  : 		return (_Allocate(_Count, (pointer)0));

  00003	6a 00		 push	 0
  00005	ff 75 08	 push	 DWORD PTR __Count$[ebp]
  00008	e8 00 00 00 00	 call	 ??$_Allocate@U_Node@?$_Tree_nod@V?$_Tmap_traits@KVioHashString@@U?$less@K@std@@V?$allocator@U?$pair@$$CBKVioHashString@@@std@@@3@$0A@@std@@@std@@@std@@YAPAU_Node@?$_Tree_nod@V?$_Tmap_traits@KVioHashString@@U?$less@K@std@@V?$allocator@U?$pair@$$CBKVioHashString@@@std@@@3@$0A@@std@@@0@IPAU120@@Z ; std::_Allocate<std::_Tree_nod<std::_Tmap_traits<unsigned long,ioHashString,std::less<unsigned long>,std::allocator<std::pair<unsigned long const ,ioHashString> >,0> >::_Node>
  0000d	59		 pop	 ecx
  0000e	59		 pop	 ecx

; 188  : 		}

  0000f	5d		 pop	 ebp
  00010	c2 04 00	 ret	 4
?allocate@?$allocator@U_Node@?$_Tree_nod@V?$_Tmap_traits@KVioHashString@@U?$less@K@std@@V?$allocator@U?$pair@$$CBKVioHashString@@@std@@@3@$0A@@std@@@std@@@std@@QAEPAU_Node@?$_Tree_nod@V?$_Tmap_traits@KVioHashString@@U?$less@K@std@@V?$allocator@U?$pair@$$CBKVioHashString@@@std@@@3@$0A@@std@@@2@I@Z ENDP ; std::allocator<std::_Tree_nod<std::_Tmap_traits<unsigned long,ioHashString,std::less<unsigned long>,std::allocator<std::pair<unsigned long const ,ioHashString> >,0> >::_Node>::allocate
_TEXT	ENDS
PUBLIC	??0?$_Tree_iterator@V?$_Tree_val@V?$_Tmap_traits@KVioHashString@@U?$less@K@std@@V?$allocator@U?$pair@$$CBKVioHashString@@@std@@@3@$0A@@std@@@std@@@std@@QAE@PAU_Node@?$_Tree_nod@V?$_Tmap_traits@KVioHashString@@U?$less@K@std@@V?$allocator@U?$pair@$$CBKVioHashString@@@std@@@3@$0A@@std@@@1@PBV?$_Tree_val@V?$_Tmap_traits@KVioHashString@@U?$less@K@std@@V?$allocator@U?$pair@$$CBKVioHashString@@@std@@@3@$0A@@std@@@1@@Z ; std::_Tree_iterator<std::_Tree_val<std::_Tmap_traits<unsigned long,ioHashString,std::less<unsigned long>,std::allocator<std::pair<unsigned long const ,ioHashString> >,0> > >::_Tree_iterator<std::_Tree_val<std::_Tmap_traits<unsigned long,ioHashString,std::less<unsigned long>,std::allocator<std::pair<unsigned long const ,ioHashString> >,0> > >
; Function compile flags: /Ogsp
; File c:\program files (x86)\microsoft visual studio 10.0\vc\include\xtree
;	COMDAT ??0?$_Tree_iterator@V?$_Tree_val@V?$_Tmap_traits@KVioHashString@@U?$less@K@std@@V?$allocator@U?$pair@$$CBKVioHashString@@@std@@@3@$0A@@std@@@std@@@std@@QAE@PAU_Node@?$_Tree_nod@V?$_Tmap_traits@KVioHashString@@U?$less@K@std@@V?$allocator@U?$pair@$$CBKVioHashString@@@std@@@3@$0A@@std@@@1@PBV?$_Tree_val@V?$_Tmap_traits@KVioHashString@@U?$less@K@std@@V?$allocator@U?$pair@$$CBKVioHashString@@@std@@@3@$0A@@std@@@1@@Z
_TEXT	SEGMENT
__Pnode$ = 8						; size = 4
__Plist$ = 12						; size = 4
??0?$_Tree_iterator@V?$_Tree_val@V?$_Tmap_traits@KVioHashString@@U?$less@K@std@@V?$allocator@U?$pair@$$CBKVioHashString@@@std@@@3@$0A@@std@@@std@@@std@@QAE@PAU_Node@?$_Tree_nod@V?$_Tmap_traits@KVioHashString@@U?$less@K@std@@V?$allocator@U?$pair@$$CBKVioHashString@@@std@@@3@$0A@@std@@@1@PBV?$_Tree_val@V?$_Tmap_traits@KVioHashString@@U?$less@K@std@@V?$allocator@U?$pair@$$CBKVioHashString@@@std@@@3@$0A@@std@@@1@@Z PROC ; std::_Tree_iterator<std::_Tree_val<std::_Tmap_traits<unsigned long,ioHashString,std::less<unsigned long>,std::allocator<std::pair<unsigned long const ,ioHashString> >,0> > >::_Tree_iterator<std::_Tree_val<std::_Tmap_traits<unsigned long,ioHashString,std::less<unsigned long>,std::allocator<std::pair<unsigned long const ,ioHashString> >,0> > >, COMDAT
; _this$ = ecx

; 378  : 		{	// construct with node pointer _Pnode

  00000	55		 push	 ebp
  00001	8b ec		 mov	 ebp, esp
  00003	8b c1		 mov	 eax, ecx
  00005	8b 4d 08	 mov	 ecx, DWORD PTR __Pnode$[ebp]
  00008	89 08		 mov	 DWORD PTR [eax], ecx

; 379  : 		}

  0000a	5d		 pop	 ebp
  0000b	c2 08 00	 ret	 8
??0?$_Tree_iterator@V?$_Tree_val@V?$_Tmap_traits@KVioHashString@@U?$less@K@std@@V?$allocator@U?$pair@$$CBKVioHashString@@@std@@@3@$0A@@std@@@std@@@std@@QAE@PAU_Node@?$_Tree_nod@V?$_Tmap_traits@KVioHashString@@U?$less@K@std@@V?$allocator@U?$pair@$$CBKVioHashString@@@std@@@3@$0A@@std@@@1@PBV?$_Tree_val@V?$_Tmap_traits@KVioHashString@@U?$less@K@std@@V?$allocator@U?$pair@$$CBKVioHashString@@@std@@@3@$0A@@std@@@1@@Z ENDP ; std::_Tree_iterator<std::_Tree_val<std::_Tmap_traits<unsigned long,ioHashString,std::less<unsigned long>,std::allocator<std::pair<unsigned long const ,ioHashString> >,0> > >::_Tree_iterator<std::_Tree_val<std::_Tmap_traits<unsigned long,ioHashString,std::less<unsigned long>,std::allocator<std::pair<unsigned long const ,ioHashString> >,0> > >
_TEXT	ENDS
PUBLIC	??0?$_Vector_iterator@V?$_Vector_val@USwingParam@@V?$allocator@USwingParam@@@std@@@std@@@std@@QAE@PAUSwingParam@@PBU_Container_base0@1@@Z ; std::_Vector_iterator<std::_Vector_val<SwingParam,std::allocator<SwingParam> > >::_Vector_iterator<std::_Vector_val<SwingParam,std::allocator<SwingParam> > >
; Function compile flags: /Ogsp
; File c:\program files (x86)\microsoft visual studio 10.0\vc\include\vector
;	COMDAT ??0?$_Vector_iterator@V?$_Vector_val@USwingParam@@V?$allocator@USwingParam@@@std@@@std@@@std@@QAE@PAUSwingParam@@PBU_Container_base0@1@@Z
_TEXT	SEGMENT
__Parg$ = 8						; size = 4
__Pvector$ = 12						; size = 4
??0?$_Vector_iterator@V?$_Vector_val@USwingParam@@V?$allocator@USwingParam@@@std@@@std@@@std@@QAE@PAUSwingParam@@PBU_Container_base0@1@@Z PROC ; std::_Vector_iterator<std::_Vector_val<SwingParam,std::allocator<SwingParam> > >::_Vector_iterator<std::_Vector_val<SwingParam,std::allocator<SwingParam> > >, COMDAT
; _this$ = ecx

; 304  : 		{	// construct with pointer _Parg

  00000	55		 push	 ebp
  00001	8b ec		 mov	 ebp, esp
  00003	8b c1		 mov	 eax, ecx
  00005	8b 4d 08	 mov	 ecx, DWORD PTR __Parg$[ebp]
  00008	89 08		 mov	 DWORD PTR [eax], ecx

; 305  : 		}

  0000a	5d		 pop	 ebp
  0000b	c2 08 00	 ret	 8
??0?$_Vector_iterator@V?$_Vector_val@USwingParam@@V?$allocator@USwingParam@@@std@@@std@@@std@@QAE@PAUSwingParam@@PBU_Container_base0@1@@Z ENDP ; std::_Vector_iterator<std::_Vector_val<SwingParam,std::allocator<SwingParam> > >::_Vector_iterator<std::_Vector_val<SwingParam,std::allocator<SwingParam> > >
_TEXT	ENDS
PUBLIC	?_Lrotate@?$_Tree@V?$_Tmap_traits@KVioHashString@@U?$less@K@std@@V?$allocator@U?$pair@$$CBKVioHashString@@@std@@@3@$0A@@std@@@std@@IAEXPAU_Node@?$_Tree_nod@V?$_Tmap_traits@KVioHashString@@U?$less@K@std@@V?$allocator@U?$pair@$$CBKVioHashString@@@std@@@3@$0A@@std@@@2@@Z ; std::_Tree<std::_Tmap_traits<unsigned long,ioHashString,std::less<unsigned long>,std::allocator<std::pair<unsigned long const ,ioHashString> >,0> >::_Lrotate
; Function compile flags: /Ogsp
; File c:\program files (x86)\microsoft visual studio 10.0\vc\include\xtree
;	COMDAT ?_Lrotate@?$_Tree@V?$_Tmap_traits@KVioHashString@@U?$less@K@std@@V?$allocator@U?$pair@$$CBKVioHashString@@@std@@@3@$0A@@std@@@std@@IAEXPAU_Node@?$_Tree_nod@V?$_Tmap_traits@KVioHashString@@U?$less@K@std@@V?$allocator@U?$pair@$$CBKVioHashString@@@std@@@3@$0A@@std@@@2@@Z
_TEXT	SEGMENT
__Wherenode$ = 8					; size = 4
?_Lrotate@?$_Tree@V?$_Tmap_traits@KVioHashString@@U?$less@K@std@@V?$allocator@U?$pair@$$CBKVioHashString@@@std@@@3@$0A@@std@@@std@@IAEXPAU_Node@?$_Tree_nod@V?$_Tmap_traits@KVioHashString@@U?$less@K@std@@V?$allocator@U?$pair@$$CBKVioHashString@@@std@@@3@$0A@@std@@@2@@Z PROC ; std::_Tree<std::_Tmap_traits<unsigned long,ioHashString,std::less<unsigned long>,std::allocator<std::pair<unsigned long const ,ioHashString> >,0> >::_Lrotate, COMDAT
; _this$ = ecx

; 1763 : 		{	// promote right node to root of subtree

  00000	55		 push	 ebp
  00001	8b ec		 mov	 ebp, esp

; 1764 : 		_Nodeptr _Pnode = this->_Right(_Wherenode);

  00003	8b 55 08	 mov	 edx, DWORD PTR __Wherenode$[ebp]
  00006	8b 42 08	 mov	 eax, DWORD PTR [edx+8]
  00009	56		 push	 esi

; 1765 : 		this->_Right(_Wherenode) = this->_Left(_Pnode);

  0000a	8b 30		 mov	 esi, DWORD PTR [eax]
  0000c	89 72 08	 mov	 DWORD PTR [edx+8], esi

; 1766 : 
; 1767 : 		if (!this->_Isnil(this->_Left(_Pnode)))

  0000f	8b 30		 mov	 esi, DWORD PTR [eax]
  00011	80 7e 21 00	 cmp	 BYTE PTR [esi+33], 0
  00015	75 03		 jne	 SHORT $LN5@Lrotate

; 1768 : 			this->_Parent(this->_Left(_Pnode)) = _Wherenode;

  00017	89 56 04	 mov	 DWORD PTR [esi+4], edx
$LN5@Lrotate:

; 1769 : 		this->_Parent(_Pnode) = this->_Parent(_Wherenode);

  0001a	8b 72 04	 mov	 esi, DWORD PTR [edx+4]
  0001d	89 70 04	 mov	 DWORD PTR [eax+4], esi

; 1770 : 
; 1771 : 		if (_Wherenode == _Root())

  00020	8b 49 04	 mov	 ecx, DWORD PTR [ecx+4]
  00023	5e		 pop	 esi
  00024	3b 51 04	 cmp	 edx, DWORD PTR [ecx+4]
  00027	75 05		 jne	 SHORT $LN4@Lrotate

; 1772 : 			_Root() = _Pnode;

  00029	89 41 04	 mov	 DWORD PTR [ecx+4], eax

; 1773 : 		else if (_Wherenode == this->_Left(this->_Parent(_Wherenode)))

  0002c	eb 0e		 jmp	 SHORT $LN1@Lrotate
$LN4@Lrotate:
  0002e	8b 4a 04	 mov	 ecx, DWORD PTR [edx+4]
  00031	3b 11		 cmp	 edx, DWORD PTR [ecx]
  00033	75 04		 jne	 SHORT $LN2@Lrotate

; 1774 : 			this->_Left(this->_Parent(_Wherenode)) = _Pnode;

  00035	89 01		 mov	 DWORD PTR [ecx], eax

; 1775 : 		else

  00037	eb 03		 jmp	 SHORT $LN1@Lrotate
$LN2@Lrotate:

; 1776 : 			this->_Right(this->_Parent(_Wherenode)) = _Pnode;

  00039	89 41 08	 mov	 DWORD PTR [ecx+8], eax
$LN1@Lrotate:

; 1777 : 
; 1778 : 		this->_Left(_Pnode) = _Wherenode;

  0003c	89 10		 mov	 DWORD PTR [eax], edx

; 1779 : 		this->_Parent(_Wherenode) = _Pnode;

  0003e	89 42 04	 mov	 DWORD PTR [edx+4], eax

; 1780 : 		}

  00041	5d		 pop	 ebp
  00042	c2 04 00	 ret	 4
?_Lrotate@?$_Tree@V?$_Tmap_traits@KVioHashString@@U?$less@K@std@@V?$allocator@U?$pair@$$CBKVioHashString@@@std@@@3@$0A@@std@@@std@@IAEXPAU_Node@?$_Tree_nod@V?$_Tmap_traits@KVioHashString@@U?$less@K@std@@V?$allocator@U?$pair@$$CBKVioHashString@@@std@@@3@$0A@@std@@@2@@Z ENDP ; std::_Tree<std::_Tmap_traits<unsigned long,ioHashString,std::less<unsigned long>,std::allocator<std::pair<unsigned long const ,ioHashString> >,0> >::_Lrotate
_TEXT	ENDS
PUBLIC	?_Rrotate@?$_Tree@V?$_Tmap_traits@KVioHashString@@U?$less@K@std@@V?$allocator@U?$pair@$$CBKVioHashString@@@std@@@3@$0A@@std@@@std@@IAEXPAU_Node@?$_Tree_nod@V?$_Tmap_traits@KVioHashString@@U?$less@K@std@@V?$allocator@U?$pair@$$CBKVioHashString@@@std@@@3@$0A@@std@@@2@@Z ; std::_Tree<std::_Tmap_traits<unsigned long,ioHashString,std::less<unsigned long>,std::allocator<std::pair<unsigned long const ,ioHashString> >,0> >::_Rrotate
; Function compile flags: /Ogsp
;	COMDAT ?_Rrotate@?$_Tree@V?$_Tmap_traits@KVioHashString@@U?$less@K@std@@V?$allocator@U?$pair@$$CBKVioHashString@@@std@@@3@$0A@@std@@@std@@IAEXPAU_Node@?$_Tree_nod@V?$_Tmap_traits@KVioHashString@@U?$less@K@std@@V?$allocator@U?$pair@$$CBKVioHashString@@@std@@@3@$0A@@std@@@2@@Z
_TEXT	SEGMENT
__Wherenode$ = 8					; size = 4
?_Rrotate@?$_Tree@V?$_Tmap_traits@KVioHashString@@U?$less@K@std@@V?$allocator@U?$pair@$$CBKVioHashString@@@std@@@3@$0A@@std@@@std@@IAEXPAU_Node@?$_Tree_nod@V?$_Tmap_traits@KVioHashString@@U?$less@K@std@@V?$allocator@U?$pair@$$CBKVioHashString@@@std@@@3@$0A@@std@@@2@@Z PROC ; std::_Tree<std::_Tmap_traits<unsigned long,ioHashString,std::less<unsigned long>,std::allocator<std::pair<unsigned long const ,ioHashString> >,0> >::_Rrotate, COMDAT
; _this$ = ecx

; 1793 : 		{	// promote left node to root of subtree

  00000	55		 push	 ebp
  00001	8b ec		 mov	 ebp, esp

; 1794 : 		_Nodeptr _Pnode = this->_Left(_Wherenode);

  00003	8b 55 08	 mov	 edx, DWORD PTR __Wherenode$[ebp]
  00006	8b 02		 mov	 eax, DWORD PTR [edx]
  00008	56		 push	 esi

; 1795 : 		this->_Left(_Wherenode) = this->_Right(_Pnode);

  00009	8b 70 08	 mov	 esi, DWORD PTR [eax+8]
  0000c	89 32		 mov	 DWORD PTR [edx], esi

; 1796 : 
; 1797 : 		if (!this->_Isnil(this->_Right(_Pnode)))

  0000e	8b 70 08	 mov	 esi, DWORD PTR [eax+8]
  00011	80 7e 21 00	 cmp	 BYTE PTR [esi+33], 0
  00015	75 03		 jne	 SHORT $LN5@Rrotate

; 1798 : 			this->_Parent(this->_Right(_Pnode)) = _Wherenode;

  00017	89 56 04	 mov	 DWORD PTR [esi+4], edx
$LN5@Rrotate:

; 1799 : 		this->_Parent(_Pnode) = this->_Parent(_Wherenode);

  0001a	8b 72 04	 mov	 esi, DWORD PTR [edx+4]
  0001d	89 70 04	 mov	 DWORD PTR [eax+4], esi

; 1800 : 
; 1801 : 		if (_Wherenode == _Root())

  00020	8b 49 04	 mov	 ecx, DWORD PTR [ecx+4]
  00023	5e		 pop	 esi
  00024	3b 51 04	 cmp	 edx, DWORD PTR [ecx+4]
  00027	75 05		 jne	 SHORT $LN4@Rrotate

; 1802 : 			_Root() = _Pnode;

  00029	89 41 04	 mov	 DWORD PTR [ecx+4], eax

; 1803 : 		else if (_Wherenode == this->_Right(this->_Parent(_Wherenode)))

  0002c	eb 0f		 jmp	 SHORT $LN1@Rrotate
$LN4@Rrotate:
  0002e	8b 4a 04	 mov	 ecx, DWORD PTR [edx+4]
  00031	3b 51 08	 cmp	 edx, DWORD PTR [ecx+8]
  00034	75 05		 jne	 SHORT $LN2@Rrotate

; 1804 : 			this->_Right(this->_Parent(_Wherenode)) = _Pnode;

  00036	89 41 08	 mov	 DWORD PTR [ecx+8], eax

; 1805 : 		else

  00039	eb 02		 jmp	 SHORT $LN1@Rrotate
$LN2@Rrotate:

; 1806 : 			this->_Left(this->_Parent(_Wherenode)) = _Pnode;

  0003b	89 01		 mov	 DWORD PTR [ecx], eax
$LN1@Rrotate:

; 1807 : 
; 1808 : 		this->_Right(_Pnode) = _Wherenode;

  0003d	89 50 08	 mov	 DWORD PTR [eax+8], edx

; 1809 : 		this->_Parent(_Wherenode) = _Pnode;

  00040	89 42 04	 mov	 DWORD PTR [edx+4], eax

; 1810 : 		}

  00043	5d		 pop	 ebp
  00044	c2 04 00	 ret	 4
?_Rrotate@?$_Tree@V?$_Tmap_traits@KVioHashString@@U?$less@K@std@@V?$allocator@U?$pair@$$CBKVioHashString@@@std@@@3@$0A@@std@@@std@@IAEXPAU_Node@?$_Tree_nod@V?$_Tmap_traits@KVioHashString@@U?$less@K@std@@V?$allocator@U?$pair@$$CBKVioHashString@@@std@@@3@$0A@@std@@@2@@Z ENDP ; std::_Tree<std::_Tmap_traits<unsigned long,ioHashString,std::less<unsigned long>,std::allocator<std::pair<unsigned long const ,ioHashString> >,0> >::_Rrotate
_TEXT	ENDS
PUBLIC	??E?$_Tree_const_iterator@V?$_Tree_val@V?$_Tmap_traits@KVioHashString@@U?$less@K@std@@V?$allocator@U?$pair@$$CBKVioHashString@@@std@@@3@$0A@@std@@@std@@@std@@QAEAAV01@XZ ; std::_Tree_const_iterator<std::_Tree_val<std::_Tmap_traits<unsigned long,ioHashString,std::less<unsigned long>,std::allocator<std::pair<unsigned long const ,ioHashString> >,0> > >::operator++
; Function compile flags: /Ogsp
;	COMDAT ??E?$_Tree_const_iterator@V?$_Tree_val@V?$_Tmap_traits@KVioHashString@@U?$less@K@std@@V?$allocator@U?$pair@$$CBKVioHashString@@@std@@@3@$0A@@std@@@std@@@std@@QAEAAV01@XZ
_TEXT	SEGMENT
??E?$_Tree_const_iterator@V?$_Tree_val@V?$_Tmap_traits@KVioHashString@@U?$less@K@std@@V?$allocator@U?$pair@$$CBKVioHashString@@@std@@@3@$0A@@std@@@std@@@std@@QAEAAV01@XZ PROC ; std::_Tree_const_iterator<std::_Tree_val<std::_Tmap_traits<unsigned long,ioHashString,std::less<unsigned long>,std::allocator<std::pair<unsigned long const ,ioHashString> >,0> > >::operator++, COMDAT
; _this$ = ecx

; 250  : 		{	// preincrement

  00000	56		 push	 esi
  00001	8b f1		 mov	 esi, ecx

; 251  :  #if _ITERATOR_DEBUG_LEVEL == 2
; 252  : 		if (this->_Getcont() == 0
; 253  : 			|| this->_Ptr == 0
; 254  : 			|| _Mytree::_Isnil(this->_Ptr))
; 255  : 			{	// report error
; 256  : 			_DEBUG_ERROR("map/set iterator not incrementable");
; 257  : 			_SCL_SECURE_OUT_OF_RANGE;
; 258  : 			}
; 259  : 
; 260  :  #elif _ITERATOR_DEBUG_LEVEL == 1
; 261  : 		_SCL_SECURE_VALIDATE(this->_Getcont() != 0 && this->_Ptr != 0);
; 262  : 		_SCL_SECURE_VALIDATE_RANGE(!_Mytree::_Isnil(this->_Ptr));
; 263  :  #endif /* _ITERATOR_DEBUG_LEVEL */
; 264  : 
; 265  : 		++(*(_Mybase *)this);

  00003	e8 00 00 00 00	 call	 ??E?$_Tree_unchecked_const_iterator@V?$_Tree_val@V?$_Tmap_traits@KVioHashString@@U?$less@K@std@@V?$allocator@U?$pair@$$CBKVioHashString@@@std@@@3@$0A@@std@@@std@@U_Iterator_base0@2@@std@@QAEAAV01@XZ ; std::_Tree_unchecked_const_iterator<std::_Tree_val<std::_Tmap_traits<unsigned long,ioHashString,std::less<unsigned long>,std::allocator<std::pair<unsigned long const ,ioHashString> >,0> >,std::_Iterator_base0>::operator++

; 266  : 		return (*this);

  00008	8b c6		 mov	 eax, esi
  0000a	5e		 pop	 esi

; 267  : 		}

  0000b	c3		 ret	 0
??E?$_Tree_const_iterator@V?$_Tree_val@V?$_Tmap_traits@KVioHashString@@U?$less@K@std@@V?$allocator@U?$pair@$$CBKVioHashString@@@std@@@3@$0A@@std@@@std@@@std@@QAEAAV01@XZ ENDP ; std::_Tree_const_iterator<std::_Tree_val<std::_Tmap_traits<unsigned long,ioHashString,std::less<unsigned long>,std::allocator<std::pair<unsigned long const ,ioHashString> >,0> > >::operator++
_TEXT	ENDS
PUBLIC	??8?$_Vector_const_iterator@V?$_Vector_val@USwingParam@@V?$allocator@USwingParam@@@std@@@std@@@std@@QBE_NABV01@@Z ; std::_Vector_const_iterator<std::_Vector_val<SwingParam,std::allocator<SwingParam> > >::operator==
; Function compile flags: /Ogsp
; File c:\program files (x86)\microsoft visual studio 10.0\vc\include\vector
;	COMDAT ??8?$_Vector_const_iterator@V?$_Vector_val@USwingParam@@V?$allocator@USwingParam@@@std@@@std@@@std@@QBE_NABV01@@Z
_TEXT	SEGMENT
__Right$ = 8						; size = 4
??8?$_Vector_const_iterator@V?$_Vector_val@USwingParam@@V?$allocator@USwingParam@@@std@@@std@@@std@@QBE_NABV01@@Z PROC ; std::_Vector_const_iterator<std::_Vector_val<SwingParam,std::allocator<SwingParam> > >::operator==, COMDAT
; _this$ = ecx

; 201  : 		{	// test for iterator equality

  00000	55		 push	 ebp
  00001	8b ec		 mov	 ebp, esp

; 202  : 		_Compat(_Right);
; 203  : 		return (this->_Ptr == _Right._Ptr);

  00003	8b 01		 mov	 eax, DWORD PTR [ecx]
  00005	8b 4d 08	 mov	 ecx, DWORD PTR __Right$[ebp]
  00008	2b 01		 sub	 eax, DWORD PTR [ecx]
  0000a	f7 d8		 neg	 eax
  0000c	1b c0		 sbb	 eax, eax
  0000e	40		 inc	 eax

; 204  : 		}

  0000f	5d		 pop	 ebp
  00010	c2 04 00	 ret	 4
??8?$_Vector_const_iterator@V?$_Vector_val@USwingParam@@V?$allocator@USwingParam@@@std@@@std@@@std@@QBE_NABV01@@Z ENDP ; std::_Vector_const_iterator<std::_Vector_val<SwingParam,std::allocator<SwingParam> > >::operator==
_TEXT	ENDS
PUBLIC	__$ArrayPad$
PUBLIC	??$LoadInt_e@$0L@@ioINILoader@@QAEHAAY0L@$$CBDH@Z ; ioINILoader::LoadInt_e<11>
EXTRN	__imp_?LoadInt@ioINILoader@@QAEHPBDH@Z:PROC
EXTRN	___security_cookie:DWORD
EXTRN	@__security_check_cookie@4:PROC
; Function compile flags: /Ogsp
; File d:\lost saga for developer\youtube\tutorial\source\src\io3dengine\ioiniloader.h
;	COMDAT ??$LoadInt_e@$0L@@ioINILoader@@QAEHAAY0L@$$CBDH@Z
_TEXT	SEGMENT
__k$ = -20						; size = 11
__$ArrayPad$ = -4					; size = 4
_k$ = 8							; size = 4
_i$ = 12						; size = 4
??$LoadInt_e@$0L@@ioINILoader@@QAEHAAY0L@$$CBDH@Z PROC	; ioINILoader::LoadInt_e<11>, COMDAT
; _this$ = ecx

; 118  : 	{

  00000	55		 push	 ebp
  00001	8b ec		 mov	 ebp, esp
  00003	83 ec 14	 sub	 esp, 20			; 00000014H
  00006	a1 00 00 00 00	 mov	 eax, DWORD PTR ___security_cookie
  0000b	33 c5		 xor	 eax, ebp
  0000d	89 45 fc	 mov	 DWORD PTR __$ArrayPad$[ebp], eax
  00010	8b 45 08	 mov	 eax, DWORD PTR _k$[ebp]

; 119  : 		_ENCSTR(k, _k);

  00013	8a 10		 mov	 dl, BYTE PTR [eax]
  00015	56		 push	 esi
  00016	8b f1		 mov	 esi, ecx
  00018	84 d2		 test	 dl, dl
  0001a	0f 84 24 01 00
	00		 je	 $LN96@LoadInt_e
  00020	80 f2 ed	 xor	 dl, -19			; ffffffedH
  00023	88 55 ec	 mov	 BYTE PTR __k$[ebp], dl
  00026	8a 50 01	 mov	 dl, BYTE PTR [eax+1]
  00029	84 d2		 test	 dl, dl
  0002b	0f 84 0d 01 00
	00		 je	 $LN95@LoadInt_e
  00031	80 f2 ec	 xor	 dl, -20			; ffffffecH
  00034	88 55 ed	 mov	 BYTE PTR __k$[ebp+1], dl
  00037	8a 50 02	 mov	 dl, BYTE PTR [eax+2]
  0003a	84 d2		 test	 dl, dl
  0003c	0f 84 f6 00 00
	00		 je	 $LN94@LoadInt_e
  00042	80 f2 eb	 xor	 dl, -21			; ffffffebH
  00045	88 55 ee	 mov	 BYTE PTR __k$[ebp+2], dl
  00048	8a 50 03	 mov	 dl, BYTE PTR [eax+3]
  0004b	84 d2		 test	 dl, dl
  0004d	0f 84 df 00 00
	00		 je	 $LN93@LoadInt_e
  00053	80 f2 ea	 xor	 dl, -22			; ffffffeaH
  00056	88 55 ef	 mov	 BYTE PTR __k$[ebp+3], dl
  00059	8a 50 04	 mov	 dl, BYTE PTR [eax+4]
  0005c	84 d2		 test	 dl, dl
  0005e	0f 84 c8 00 00
	00		 je	 $LN92@LoadInt_e
  00064	80 f2 ed	 xor	 dl, -19			; ffffffedH
  00067	88 55 f0	 mov	 BYTE PTR __k$[ebp+4], dl
  0006a	8a 50 05	 mov	 dl, BYTE PTR [eax+5]
  0006d	84 d2		 test	 dl, dl
  0006f	0f 84 b1 00 00
	00		 je	 $LN91@LoadInt_e
  00075	80 f2 ec	 xor	 dl, -20			; ffffffecH
  00078	88 55 f1	 mov	 BYTE PTR __k$[ebp+5], dl
  0007b	8a 50 06	 mov	 dl, BYTE PTR [eax+6]
  0007e	84 d2		 test	 dl, dl
  00080	0f 84 9a 00 00
	00		 je	 $LN90@LoadInt_e
  00086	80 f2 eb	 xor	 dl, -21			; ffffffebH
  00089	88 55 f2	 mov	 BYTE PTR __k$[ebp+6], dl
  0008c	8a 50 07	 mov	 dl, BYTE PTR [eax+7]
  0008f	84 d2		 test	 dl, dl
  00091	0f 84 83 00 00
	00		 je	 $LN89@LoadInt_e
  00097	80 f2 ea	 xor	 dl, -22			; ffffffeaH
  0009a	88 55 f3	 mov	 BYTE PTR __k$[ebp+7], dl
  0009d	8a 50 08	 mov	 dl, BYTE PTR [eax+8]
  000a0	84 d2		 test	 dl, dl
  000a2	74 70		 je	 SHORT $LN88@LoadInt_e
  000a4	80 f2 ed	 xor	 dl, -19			; ffffffedH
  000a7	88 55 f4	 mov	 BYTE PTR __k$[ebp+8], dl
  000aa	8a 50 09	 mov	 dl, BYTE PTR [eax+9]
  000ad	84 d2		 test	 dl, dl
  000af	74 5d		 je	 SHORT $LN87@LoadInt_e
  000b1	80 f2 ec	 xor	 dl, -20			; ffffffecH
  000b4	80 78 0a 00	 cmp	 BYTE PTR [eax+10], 0
  000b8	88 55 f5	 mov	 BYTE PTR __k$[ebp+9], dl
  000bb	0f 84 87 00 00
	00		 je	 $LN1@LoadInt_e
  000c1	8a 50 0b	 mov	 dl, BYTE PTR [eax+11]
  000c4	84 d2		 test	 dl, dl
  000c6	74 40		 je	 SHORT $LN85@LoadInt_e
  000c8	80 f2 ea	 xor	 dl, -22			; ffffffeaH
  000cb	88 55 f7	 mov	 BYTE PTR __k$[ebp+11], dl
  000ce	8a 50 0c	 mov	 dl, BYTE PTR [eax+12]
  000d1	84 d2		 test	 dl, dl
  000d3	74 2d		 je	 SHORT $LN84@LoadInt_e
  000d5	80 f2 ed	 xor	 dl, -19			; ffffffedH
  000d8	88 55 f8	 mov	 BYTE PTR __k$[ebp+12], dl
  000db	8a 50 0d	 mov	 dl, BYTE PTR [eax+13]
  000de	84 d2		 test	 dl, dl
  000e0	74 1a		 je	 SHORT $LN83@LoadInt_e
  000e2	8a 40 0e	 mov	 al, BYTE PTR [eax+14]
  000e5	80 f2 ec	 xor	 dl, -20			; ffffffecH
  000e8	88 55 f9	 mov	 BYTE PTR __k$[ebp+13], dl
  000eb	84 c0		 test	 al, al
  000ed	74 07		 je	 SHORT $LN82@LoadInt_e
  000ef	34 eb		 xor	 al, -21			; ffffffebH
  000f1	88 45 fa	 mov	 BYTE PTR __k$[ebp+14], al
  000f4	eb 52		 jmp	 SHORT $LN1@LoadInt_e
$LN82@LoadInt_e:
  000f6	c6 45 fa eb	 mov	 BYTE PTR __k$[ebp+14], -21 ; ffffffebH
  000fa	eb 4c		 jmp	 SHORT $LN1@LoadInt_e
$LN83@LoadInt_e:
  000fc	c6 45 f9 ec	 mov	 BYTE PTR __k$[ebp+13], -20 ; ffffffecH
  00100	eb 46		 jmp	 SHORT $LN1@LoadInt_e
$LN84@LoadInt_e:
  00102	c6 45 f8 ed	 mov	 BYTE PTR __k$[ebp+12], -19 ; ffffffedH
  00106	eb 40		 jmp	 SHORT $LN1@LoadInt_e
$LN85@LoadInt_e:
  00108	c6 45 f7 ea	 mov	 BYTE PTR __k$[ebp+11], -22 ; ffffffeaH
  0010c	eb 3a		 jmp	 SHORT $LN1@LoadInt_e
$LN87@LoadInt_e:
  0010e	c6 45 f5 ec	 mov	 BYTE PTR __k$[ebp+9], -20 ; ffffffecH
  00112	eb 34		 jmp	 SHORT $LN1@LoadInt_e
$LN88@LoadInt_e:
  00114	c6 45 f4 ed	 mov	 BYTE PTR __k$[ebp+8], -19 ; ffffffedH
  00118	eb 2e		 jmp	 SHORT $LN1@LoadInt_e
$LN89@LoadInt_e:
  0011a	c6 45 f3 ea	 mov	 BYTE PTR __k$[ebp+7], -22 ; ffffffeaH
  0011e	eb 28		 jmp	 SHORT $LN1@LoadInt_e
$LN90@LoadInt_e:
  00120	c6 45 f2 eb	 mov	 BYTE PTR __k$[ebp+6], -21 ; ffffffebH
  00124	eb 22		 jmp	 SHORT $LN1@LoadInt_e
$LN91@LoadInt_e:
  00126	c6 45 f1 ec	 mov	 BYTE PTR __k$[ebp+5], -20 ; ffffffecH
  0012a	eb 1c		 jmp	 SHORT $LN1@LoadInt_e
$LN92@LoadInt_e:
  0012c	c6 45 f0 ed	 mov	 BYTE PTR __k$[ebp+4], -19 ; ffffffedH
  00130	eb 16		 jmp	 SHORT $LN1@LoadInt_e
$LN93@LoadInt_e:
  00132	c6 45 ef ea	 mov	 BYTE PTR __k$[ebp+3], -22 ; ffffffeaH
  00136	eb 10		 jmp	 SHORT $LN1@LoadInt_e
$LN94@LoadInt_e:
  00138	c6 45 ee eb	 mov	 BYTE PTR __k$[ebp+2], -21 ; ffffffebH
  0013c	eb 0a		 jmp	 SHORT $LN1@LoadInt_e
$LN95@LoadInt_e:
  0013e	c6 45 ed ec	 mov	 BYTE PTR __k$[ebp+1], -20 ; ffffffecH
  00142	eb 04		 jmp	 SHORT $LN1@LoadInt_e
$LN96@LoadInt_e:
  00144	c6 45 ec ed	 mov	 BYTE PTR __k$[ebp], -19	; ffffffedH
$LN1@LoadInt_e:
  00148	6a 02		 push	 2
  0014a	8d 45 ec	 lea	 eax, DWORD PTR __k$[ebp]
  0014d	c6 45 f6 00	 mov	 BYTE PTR __k$[ebp+10], 0
  00151	5a		 pop	 edx
$LL104@LoadInt_e:
  00152	81 30 ed ec eb
	ea		 xor	 DWORD PTR [eax], -353637139 ; eaebecedH
  00158	83 c0 04	 add	 eax, 4
  0015b	4a		 dec	 edx
  0015c	75 f4		 jne	 SHORT $LL104@LoadInt_e
  0015e	6a 08		 push	 8
  00160	58		 pop	 eax
$LL101@LoadInt_e:
  00161	8b c8		 mov	 ecx, eax
  00163	81 e1 03 00 00
	80		 and	 ecx, -2147483645	; 80000003H
  00169	79 05		 jns	 SHORT $LN111@LoadInt_e
  0016b	49		 dec	 ecx
  0016c	83 c9 fc	 or	 ecx, -4			; fffffffcH
  0016f	41		 inc	 ecx
$LN111@LoadInt_e:
  00170	b2 ed		 mov	 dl, -19			; ffffffedH
  00172	2a d1		 sub	 dl, cl
  00174	30 54 05 ec	 xor	 BYTE PTR __k$[ebp+eax], dl
  00178	40		 inc	 eax
  00179	83 f8 0a	 cmp	 eax, 10			; 0000000aH
  0017c	7c e3		 jl	 SHORT $LL101@LoadInt_e

; 120  : 		return LoadInt(_k, i);

  0017e	ff 75 0c	 push	 DWORD PTR _i$[ebp]
  00181	8d 45 ec	 lea	 eax, DWORD PTR __k$[ebp]
  00184	50		 push	 eax
  00185	8b ce		 mov	 ecx, esi
  00187	ff 15 00 00 00
	00		 call	 DWORD PTR __imp_?LoadInt@ioINILoader@@QAEHPBDH@Z

; 121  : 	}

  0018d	8b 4d fc	 mov	 ecx, DWORD PTR __$ArrayPad$[ebp]
  00190	33 cd		 xor	 ecx, ebp
  00192	5e		 pop	 esi
  00193	e8 00 00 00 00	 call	 @__security_check_cookie@4
  00198	c9		 leave
  00199	c2 08 00	 ret	 8
??$LoadInt_e@$0L@@ioINILoader@@QAEHAAY0L@$$CBDH@Z ENDP	; ioINILoader::LoadInt_e<11>
_TEXT	ENDS
PUBLIC	__$ArrayPad$
PUBLIC	??$LoadInt_e@$0BB@@ioINILoader@@QAEHAAY0BB@$$CBDH@Z ; ioINILoader::LoadInt_e<17>
; Function compile flags: /Ogsp
;	COMDAT ??$LoadInt_e@$0BB@@ioINILoader@@QAEHAAY0BB@$$CBDH@Z
_TEXT	SEGMENT
__k$ = -28						; size = 17
__$ArrayPad$ = -4					; size = 4
_k$ = 8							; size = 4
_i$ = 12						; size = 4
??$LoadInt_e@$0BB@@ioINILoader@@QAEHAAY0BB@$$CBDH@Z PROC ; ioINILoader::LoadInt_e<17>, COMDAT
; _this$ = ecx

; 118  : 	{

  00000	55		 push	 ebp
  00001	8b ec		 mov	 ebp, esp
  00003	83 ec 1c	 sub	 esp, 28			; 0000001cH
  00006	a1 00 00 00 00	 mov	 eax, DWORD PTR ___security_cookie
  0000b	33 c5		 xor	 eax, ebp
  0000d	89 45 fc	 mov	 DWORD PTR __$ArrayPad$[ebp], eax
  00010	8b 45 08	 mov	 eax, DWORD PTR _k$[ebp]

; 119  : 		_ENCSTR(k, _k);

  00013	8a 10		 mov	 dl, BYTE PTR [eax]
  00015	56		 push	 esi
  00016	8b f1		 mov	 esi, ecx
  00018	84 d2		 test	 dl, dl
  0001a	0f 84 a7 01 00
	00		 je	 $LN96@LoadInt_e@2
  00020	80 f2 ed	 xor	 dl, -19			; ffffffedH
  00023	88 55 e4	 mov	 BYTE PTR __k$[ebp], dl
  00026	8a 50 01	 mov	 dl, BYTE PTR [eax+1]
  00029	84 d2		 test	 dl, dl
  0002b	0f 84 90 01 00
	00		 je	 $LN95@LoadInt_e@2
  00031	b1 ec		 mov	 cl, -20			; ffffffecH
  00033	32 d1		 xor	 dl, cl
  00035	88 55 e5	 mov	 BYTE PTR __k$[ebp+1], dl
  00038	8a 50 02	 mov	 dl, BYTE PTR [eax+2]
  0003b	84 d2		 test	 dl, dl
  0003d	0f 84 78 01 00
	00		 je	 $LN94@LoadInt_e@2
  00043	80 f2 eb	 xor	 dl, -21			; ffffffebH
  00046	88 55 e6	 mov	 BYTE PTR __k$[ebp+2], dl
  00049	8a 50 03	 mov	 dl, BYTE PTR [eax+3]
  0004c	84 d2		 test	 dl, dl
  0004e	0f 84 61 01 00
	00		 je	 $LN93@LoadInt_e@2
  00054	80 f2 ea	 xor	 dl, -22			; ffffffeaH
  00057	88 55 e7	 mov	 BYTE PTR __k$[ebp+3], dl
  0005a	8a 50 04	 mov	 dl, BYTE PTR [eax+4]
  0005d	84 d2		 test	 dl, dl
  0005f	0f 84 4a 01 00
	00		 je	 $LN92@LoadInt_e@2
  00065	80 f2 ed	 xor	 dl, -19			; ffffffedH
  00068	88 55 e8	 mov	 BYTE PTR __k$[ebp+4], dl
  0006b	8a 50 05	 mov	 dl, BYTE PTR [eax+5]
  0006e	84 d2		 test	 dl, dl
  00070	0f 84 34 01 00
	00		 je	 $LN91@LoadInt_e@2
  00076	32 d1		 xor	 dl, cl
  00078	88 55 e9	 mov	 BYTE PTR __k$[ebp+5], dl
  0007b	8a 50 06	 mov	 dl, BYTE PTR [eax+6]
  0007e	84 d2		 test	 dl, dl
  00080	0f 84 1e 01 00
	00		 je	 $LN90@LoadInt_e@2
  00086	80 f2 eb	 xor	 dl, -21			; ffffffebH
  00089	88 55 ea	 mov	 BYTE PTR __k$[ebp+6], dl
  0008c	8a 50 07	 mov	 dl, BYTE PTR [eax+7]
  0008f	84 d2		 test	 dl, dl
  00091	0f 84 07 01 00
	00		 je	 $LN89@LoadInt_e@2
  00097	80 f2 ea	 xor	 dl, -22			; ffffffeaH
  0009a	88 55 eb	 mov	 BYTE PTR __k$[ebp+7], dl
  0009d	8a 50 08	 mov	 dl, BYTE PTR [eax+8]
  000a0	84 d2		 test	 dl, dl
  000a2	0f 84 f0 00 00
	00		 je	 $LN88@LoadInt_e@2
  000a8	80 f2 ed	 xor	 dl, -19			; ffffffedH
  000ab	88 55 ec	 mov	 BYTE PTR __k$[ebp+8], dl
  000ae	8a 50 09	 mov	 dl, BYTE PTR [eax+9]
  000b1	84 d2		 test	 dl, dl
  000b3	0f 84 da 00 00
	00		 je	 $LN87@LoadInt_e@2
  000b9	32 d1		 xor	 dl, cl
  000bb	88 55 ed	 mov	 BYTE PTR __k$[ebp+9], dl
  000be	8a 50 0a	 mov	 dl, BYTE PTR [eax+10]
  000c1	84 d2		 test	 dl, dl
  000c3	0f 84 c4 00 00
	00		 je	 $LN86@LoadInt_e@2
  000c9	80 f2 eb	 xor	 dl, -21			; ffffffebH
  000cc	88 55 ee	 mov	 BYTE PTR __k$[ebp+10], dl
  000cf	8a 50 0b	 mov	 dl, BYTE PTR [eax+11]
  000d2	84 d2		 test	 dl, dl
  000d4	0f 84 ad 00 00
	00		 je	 $LN85@LoadInt_e@2
  000da	80 f2 ea	 xor	 dl, -22			; ffffffeaH
  000dd	88 55 ef	 mov	 BYTE PTR __k$[ebp+11], dl
  000e0	8a 50 0c	 mov	 dl, BYTE PTR [eax+12]
  000e3	84 d2		 test	 dl, dl
  000e5	0f 84 96 00 00
	00		 je	 $LN84@LoadInt_e@2
  000eb	80 f2 ed	 xor	 dl, -19			; ffffffedH
  000ee	88 55 f0	 mov	 BYTE PTR __k$[ebp+12], dl
  000f1	8a 50 0d	 mov	 dl, BYTE PTR [eax+13]
  000f4	84 d2		 test	 dl, dl
  000f6	0f 84 80 00 00
	00		 je	 $LN83@LoadInt_e@2
  000fc	32 d1		 xor	 dl, cl
  000fe	88 55 f1	 mov	 BYTE PTR __k$[ebp+13], dl
  00101	8a 50 0e	 mov	 dl, BYTE PTR [eax+14]
  00104	84 d2		 test	 dl, dl
  00106	74 6e		 je	 SHORT $LN82@LoadInt_e@2
  00108	80 f2 eb	 xor	 dl, -21			; ffffffebH
  0010b	88 55 f2	 mov	 BYTE PTR __k$[ebp+14], dl
  0010e	8a 50 0f	 mov	 dl, BYTE PTR [eax+15]
  00111	84 d2		 test	 dl, dl
  00113	74 5b		 je	 SHORT $LN81@LoadInt_e@2
  00115	80 f2 ea	 xor	 dl, -22			; ffffffeaH
  00118	80 78 10 00	 cmp	 BYTE PTR [eax+16], 0
  0011c	88 55 f3	 mov	 BYTE PTR __k$[ebp+15], dl
  0011f	0f 84 a6 00 00
	00		 je	 $LN1@LoadInt_e@2
  00125	8a 50 11	 mov	 dl, BYTE PTR [eax+17]
  00128	84 d2		 test	 dl, dl
  0012a	74 3f		 je	 SHORT $LN79@LoadInt_e@2
  0012c	32 d1		 xor	 dl, cl
  0012e	88 55 f5	 mov	 BYTE PTR __k$[ebp+17], dl
  00131	8a 50 12	 mov	 dl, BYTE PTR [eax+18]
  00134	84 d2		 test	 dl, dl
  00136	74 2d		 je	 SHORT $LN78@LoadInt_e@2
  00138	80 f2 eb	 xor	 dl, -21			; ffffffebH
  0013b	88 55 f6	 mov	 BYTE PTR __k$[ebp+18], dl
  0013e	8a 50 13	 mov	 dl, BYTE PTR [eax+19]
  00141	84 d2		 test	 dl, dl
  00143	74 1a		 je	 SHORT $LN77@LoadInt_e@2
  00145	8a 40 14	 mov	 al, BYTE PTR [eax+20]
  00148	80 f2 ea	 xor	 dl, -22			; ffffffeaH
  0014b	88 55 f7	 mov	 BYTE PTR __k$[ebp+19], dl
  0014e	84 c0		 test	 al, al
  00150	74 07		 je	 SHORT $LN76@LoadInt_e@2
  00152	34 ed		 xor	 al, -19			; ffffffedH
  00154	88 45 f8	 mov	 BYTE PTR __k$[ebp+20], al
  00157	eb 72		 jmp	 SHORT $LN1@LoadInt_e@2
$LN76@LoadInt_e@2:
  00159	c6 45 f8 ed	 mov	 BYTE PTR __k$[ebp+20], -19 ; ffffffedH
  0015d	eb 6c		 jmp	 SHORT $LN1@LoadInt_e@2
$LN77@LoadInt_e@2:
  0015f	c6 45 f7 ea	 mov	 BYTE PTR __k$[ebp+19], -22 ; ffffffeaH
  00163	eb 66		 jmp	 SHORT $LN1@LoadInt_e@2
$LN78@LoadInt_e@2:
  00165	c6 45 f6 eb	 mov	 BYTE PTR __k$[ebp+18], -21 ; ffffffebH
  00169	eb 60		 jmp	 SHORT $LN1@LoadInt_e@2
$LN79@LoadInt_e@2:
  0016b	88 4d f5	 mov	 BYTE PTR __k$[ebp+17], cl
  0016e	eb 5b		 jmp	 SHORT $LN1@LoadInt_e@2
$LN81@LoadInt_e@2:
  00170	c6 45 f3 ea	 mov	 BYTE PTR __k$[ebp+15], -22 ; ffffffeaH
  00174	eb 55		 jmp	 SHORT $LN1@LoadInt_e@2
$LN82@LoadInt_e@2:
  00176	c6 45 f2 eb	 mov	 BYTE PTR __k$[ebp+14], -21 ; ffffffebH
  0017a	eb 4f		 jmp	 SHORT $LN1@LoadInt_e@2
$LN83@LoadInt_e@2:
  0017c	88 4d f1	 mov	 BYTE PTR __k$[ebp+13], cl
  0017f	eb 4a		 jmp	 SHORT $LN1@LoadInt_e@2
$LN84@LoadInt_e@2:
  00181	c6 45 f0 ed	 mov	 BYTE PTR __k$[ebp+12], -19 ; ffffffedH
  00185	eb 44		 jmp	 SHORT $LN1@LoadInt_e@2
$LN85@LoadInt_e@2:
  00187	c6 45 ef ea	 mov	 BYTE PTR __k$[ebp+11], -22 ; ffffffeaH
  0018b	eb 3e		 jmp	 SHORT $LN1@LoadInt_e@2
$LN86@LoadInt_e@2:
  0018d	c6 45 ee eb	 mov	 BYTE PTR __k$[ebp+10], -21 ; ffffffebH
  00191	eb 38		 jmp	 SHORT $LN1@LoadInt_e@2
$LN87@LoadInt_e@2:
  00193	88 4d ed	 mov	 BYTE PTR __k$[ebp+9], cl
  00196	eb 33		 jmp	 SHORT $LN1@LoadInt_e@2
$LN88@LoadInt_e@2:
  00198	c6 45 ec ed	 mov	 BYTE PTR __k$[ebp+8], -19 ; ffffffedH
  0019c	eb 2d		 jmp	 SHORT $LN1@LoadInt_e@2
$LN89@LoadInt_e@2:
  0019e	c6 45 eb ea	 mov	 BYTE PTR __k$[ebp+7], -22 ; ffffffeaH
  001a2	eb 27		 jmp	 SHORT $LN1@LoadInt_e@2
$LN90@LoadInt_e@2:
  001a4	c6 45 ea eb	 mov	 BYTE PTR __k$[ebp+6], -21 ; ffffffebH
  001a8	eb 21		 jmp	 SHORT $LN1@LoadInt_e@2
$LN91@LoadInt_e@2:
  001aa	88 4d e9	 mov	 BYTE PTR __k$[ebp+5], cl
  001ad	eb 1c		 jmp	 SHORT $LN1@LoadInt_e@2
$LN92@LoadInt_e@2:
  001af	c6 45 e8 ed	 mov	 BYTE PTR __k$[ebp+4], -19 ; ffffffedH
  001b3	eb 16		 jmp	 SHORT $LN1@LoadInt_e@2
$LN93@LoadInt_e@2:
  001b5	c6 45 e7 ea	 mov	 BYTE PTR __k$[ebp+3], -22 ; ffffffeaH
  001b9	eb 10		 jmp	 SHORT $LN1@LoadInt_e@2
$LN94@LoadInt_e@2:
  001bb	c6 45 e6 eb	 mov	 BYTE PTR __k$[ebp+2], -21 ; ffffffebH
  001bf	eb 0a		 jmp	 SHORT $LN1@LoadInt_e@2
$LN95@LoadInt_e@2:
  001c1	c6 45 e5 ec	 mov	 BYTE PTR __k$[ebp+1], -20 ; ffffffecH
  001c5	eb 04		 jmp	 SHORT $LN1@LoadInt_e@2
$LN96@LoadInt_e@2:
  001c7	c6 45 e4 ed	 mov	 BYTE PTR __k$[ebp], -19	; ffffffedH
$LN1@LoadInt_e@2:
  001cb	6a 04		 push	 4
  001cd	8d 45 e4	 lea	 eax, DWORD PTR __k$[ebp]
  001d0	c6 45 f4 00	 mov	 BYTE PTR __k$[ebp+16], 0
  001d4	5a		 pop	 edx
$LL104@LoadInt_e@2:
  001d5	81 30 ed ec eb
	ea		 xor	 DWORD PTR [eax], -353637139 ; eaebecedH
  001db	83 c0 04	 add	 eax, 4
  001de	4a		 dec	 edx
  001df	75 f4		 jne	 SHORT $LL104@LoadInt_e@2

; 120  : 		return LoadInt(_k, i);

  001e1	ff 75 0c	 push	 DWORD PTR _i$[ebp]
  001e4	8d 45 e4	 lea	 eax, DWORD PTR __k$[ebp]
  001e7	50		 push	 eax
  001e8	8b ce		 mov	 ecx, esi
  001ea	ff 15 00 00 00
	00		 call	 DWORD PTR __imp_?LoadInt@ioINILoader@@QAEHPBDH@Z

; 121  : 	}

  001f0	8b 4d fc	 mov	 ecx, DWORD PTR __$ArrayPad$[ebp]
  001f3	33 cd		 xor	 ecx, ebp
  001f5	5e		 pop	 esi
  001f6	e8 00 00 00 00	 call	 @__security_check_cookie@4
  001fb	c9		 leave
  001fc	c2 08 00	 ret	 8
??$LoadInt_e@$0BB@@ioINILoader@@QAEHAAY0BB@$$CBDH@Z ENDP ; ioINILoader::LoadInt_e<17>
_TEXT	ENDS
PUBLIC	_this$GSCopy$
PUBLIC	__$ArrayPad$
PUBLIC	??$LoadString_e@$0N@@ioINILoader@@QAEXAAY0N@$$CBDAAY00$$CBDPADH@Z ; ioINILoader::LoadString_e<13>
EXTRN	__imp_?LoadStringA@ioINILoader@@QAEXPBD0PADH@Z:PROC
; Function compile flags: /Ogsp
;	COMDAT ??$LoadString_e@$0N@@ioINILoader@@QAEXAAY0N@$$CBDAAY00$$CBDPADH@Z
_TEXT	SEGMENT
_this$GSCopy$ = -28					; size = 4
__k$ = -24						; size = 13
__$ArrayPad$ = -4					; size = 4
_k$ = 8							; size = 4
_d$ = 12						; size = 4
_b$ = 16						; size = 4
_i$ = 20						; size = 4
??$LoadString_e@$0N@@ioINILoader@@QAEXAAY0N@$$CBDAAY00$$CBDPADH@Z PROC ; ioINILoader::LoadString_e<13>, COMDAT
; _this$ = ecx

; 161  : 	{

  00000	55		 push	 ebp
  00001	8b ec		 mov	 ebp, esp
  00003	83 ec 1c	 sub	 esp, 28			; 0000001cH
  00006	a1 00 00 00 00	 mov	 eax, DWORD PTR ___security_cookie
  0000b	33 c5		 xor	 eax, ebp
  0000d	89 45 fc	 mov	 DWORD PTR __$ArrayPad$[ebp], eax
  00010	8b 45 08	 mov	 eax, DWORD PTR _k$[ebp]

; 162  : 		_ENCSTR(k, _k);

  00013	8a 10		 mov	 dl, BYTE PTR [eax]
  00015	56		 push	 esi
  00016	8b 75 0c	 mov	 esi, DWORD PTR _d$[ebp]
  00019	57		 push	 edi
  0001a	8b 7d 10	 mov	 edi, DWORD PTR _b$[ebp]
  0001d	89 4d e4	 mov	 DWORD PTR _this$GSCopy$[ebp], ecx
  00020	84 d2		 test	 dl, dl
  00022	0f 84 4d 01 00
	00		 je	 $LN96@LoadString
  00028	80 f2 ed	 xor	 dl, -19			; ffffffedH
  0002b	88 55 e8	 mov	 BYTE PTR __k$[ebp], dl
  0002e	8a 50 01	 mov	 dl, BYTE PTR [eax+1]
  00031	84 d2		 test	 dl, dl
  00033	0f 84 36 01 00
	00		 je	 $LN95@LoadString
  00039	b1 ec		 mov	 cl, -20			; ffffffecH
  0003b	32 d1		 xor	 dl, cl
  0003d	88 55 e9	 mov	 BYTE PTR __k$[ebp+1], dl
  00040	8a 50 02	 mov	 dl, BYTE PTR [eax+2]
  00043	84 d2		 test	 dl, dl
  00045	0f 84 1e 01 00
	00		 je	 $LN94@LoadString
  0004b	80 f2 eb	 xor	 dl, -21			; ffffffebH
  0004e	88 55 ea	 mov	 BYTE PTR __k$[ebp+2], dl
  00051	8a 50 03	 mov	 dl, BYTE PTR [eax+3]
  00054	84 d2		 test	 dl, dl
  00056	0f 84 07 01 00
	00		 je	 $LN93@LoadString
  0005c	80 f2 ea	 xor	 dl, -22			; ffffffeaH
  0005f	88 55 eb	 mov	 BYTE PTR __k$[ebp+3], dl
  00062	8a 50 04	 mov	 dl, BYTE PTR [eax+4]
  00065	84 d2		 test	 dl, dl
  00067	0f 84 f0 00 00
	00		 je	 $LN92@LoadString
  0006d	80 f2 ed	 xor	 dl, -19			; ffffffedH
  00070	88 55 ec	 mov	 BYTE PTR __k$[ebp+4], dl
  00073	8a 50 05	 mov	 dl, BYTE PTR [eax+5]
  00076	84 d2		 test	 dl, dl
  00078	0f 84 da 00 00
	00		 je	 $LN91@LoadString
  0007e	32 d1		 xor	 dl, cl
  00080	88 55 ed	 mov	 BYTE PTR __k$[ebp+5], dl
  00083	8a 50 06	 mov	 dl, BYTE PTR [eax+6]
  00086	84 d2		 test	 dl, dl
  00088	0f 84 c4 00 00
	00		 je	 $LN90@LoadString
  0008e	80 f2 eb	 xor	 dl, -21			; ffffffebH
  00091	88 55 ee	 mov	 BYTE PTR __k$[ebp+6], dl
  00094	8a 50 07	 mov	 dl, BYTE PTR [eax+7]
  00097	84 d2		 test	 dl, dl
  00099	0f 84 ad 00 00
	00		 je	 $LN89@LoadString
  0009f	80 f2 ea	 xor	 dl, -22			; ffffffeaH
  000a2	88 55 ef	 mov	 BYTE PTR __k$[ebp+7], dl
  000a5	8a 50 08	 mov	 dl, BYTE PTR [eax+8]
  000a8	84 d2		 test	 dl, dl
  000aa	0f 84 96 00 00
	00		 je	 $LN88@LoadString
  000b0	80 f2 ed	 xor	 dl, -19			; ffffffedH
  000b3	88 55 f0	 mov	 BYTE PTR __k$[ebp+8], dl
  000b6	8a 50 09	 mov	 dl, BYTE PTR [eax+9]
  000b9	84 d2		 test	 dl, dl
  000bb	0f 84 80 00 00
	00		 je	 $LN87@LoadString
  000c1	32 d1		 xor	 dl, cl
  000c3	88 55 f1	 mov	 BYTE PTR __k$[ebp+9], dl
  000c6	8a 50 0a	 mov	 dl, BYTE PTR [eax+10]
  000c9	84 d2		 test	 dl, dl
  000cb	74 6e		 je	 SHORT $LN86@LoadString
  000cd	80 f2 eb	 xor	 dl, -21			; ffffffebH
  000d0	88 55 f2	 mov	 BYTE PTR __k$[ebp+10], dl
  000d3	8a 50 0b	 mov	 dl, BYTE PTR [eax+11]
  000d6	84 d2		 test	 dl, dl
  000d8	74 5b		 je	 SHORT $LN85@LoadString
  000da	80 f2 ea	 xor	 dl, -22			; ffffffeaH
  000dd	80 78 0c 00	 cmp	 BYTE PTR [eax+12], 0
  000e1	88 55 f3	 mov	 BYTE PTR __k$[ebp+11], dl
  000e4	0f 84 8f 00 00
	00		 je	 $LN111@LoadString
  000ea	8a 50 0d	 mov	 dl, BYTE PTR [eax+13]
  000ed	84 d2		 test	 dl, dl
  000ef	74 3f		 je	 SHORT $LN83@LoadString
  000f1	32 d1		 xor	 dl, cl
  000f3	88 55 f5	 mov	 BYTE PTR __k$[ebp+13], dl
  000f6	8a 50 0e	 mov	 dl, BYTE PTR [eax+14]
  000f9	84 d2		 test	 dl, dl
  000fb	74 2d		 je	 SHORT $LN82@LoadString
  000fd	80 f2 eb	 xor	 dl, -21			; ffffffebH
  00100	88 55 f6	 mov	 BYTE PTR __k$[ebp+14], dl
  00103	8a 50 0f	 mov	 dl, BYTE PTR [eax+15]
  00106	84 d2		 test	 dl, dl
  00108	74 1a		 je	 SHORT $LN81@LoadString
  0010a	8a 40 10	 mov	 al, BYTE PTR [eax+16]
  0010d	80 f2 ea	 xor	 dl, -22			; ffffffeaH
  00110	88 55 f7	 mov	 BYTE PTR __k$[ebp+15], dl
  00113	84 c0		 test	 al, al
  00115	74 07		 je	 SHORT $LN80@LoadString
  00117	34 ed		 xor	 al, -19			; ffffffedH
  00119	88 45 f8	 mov	 BYTE PTR __k$[ebp+16], al
  0011c	eb 5b		 jmp	 SHORT $LN111@LoadString
$LN80@LoadString:
  0011e	c6 45 f8 ed	 mov	 BYTE PTR __k$[ebp+16], -19 ; ffffffedH
  00122	eb 55		 jmp	 SHORT $LN111@LoadString
$LN81@LoadString:
  00124	c6 45 f7 ea	 mov	 BYTE PTR __k$[ebp+15], -22 ; ffffffeaH
  00128	eb 4f		 jmp	 SHORT $LN111@LoadString
$LN82@LoadString:
  0012a	c6 45 f6 eb	 mov	 BYTE PTR __k$[ebp+14], -21 ; ffffffebH
  0012e	eb 49		 jmp	 SHORT $LN111@LoadString
$LN83@LoadString:
  00130	88 4d f5	 mov	 BYTE PTR __k$[ebp+13], cl
  00133	eb 44		 jmp	 SHORT $LN111@LoadString
$LN85@LoadString:
  00135	c6 45 f3 ea	 mov	 BYTE PTR __k$[ebp+11], -22 ; ffffffeaH
  00139	eb 3e		 jmp	 SHORT $LN111@LoadString
$LN86@LoadString:
  0013b	c6 45 f2 eb	 mov	 BYTE PTR __k$[ebp+10], -21 ; ffffffebH
  0013f	eb 38		 jmp	 SHORT $LN111@LoadString
$LN87@LoadString:
  00141	88 4d f1	 mov	 BYTE PTR __k$[ebp+9], cl
  00144	eb 33		 jmp	 SHORT $LN111@LoadString
$LN88@LoadString:
  00146	c6 45 f0 ed	 mov	 BYTE PTR __k$[ebp+8], -19 ; ffffffedH
  0014a	eb 2d		 jmp	 SHORT $LN111@LoadString
$LN89@LoadString:
  0014c	c6 45 ef ea	 mov	 BYTE PTR __k$[ebp+7], -22 ; ffffffeaH
  00150	eb 27		 jmp	 SHORT $LN111@LoadString
$LN90@LoadString:
  00152	c6 45 ee eb	 mov	 BYTE PTR __k$[ebp+6], -21 ; ffffffebH
  00156	eb 21		 jmp	 SHORT $LN111@LoadString
$LN91@LoadString:
  00158	88 4d ed	 mov	 BYTE PTR __k$[ebp+5], cl
  0015b	eb 1c		 jmp	 SHORT $LN111@LoadString
$LN92@LoadString:
  0015d	c6 45 ec ed	 mov	 BYTE PTR __k$[ebp+4], -19 ; ffffffedH
  00161	eb 16		 jmp	 SHORT $LN111@LoadString
$LN93@LoadString:
  00163	c6 45 eb ea	 mov	 BYTE PTR __k$[ebp+3], -22 ; ffffffeaH
  00167	eb 10		 jmp	 SHORT $LN111@LoadString
$LN94@LoadString:
  00169	c6 45 ea eb	 mov	 BYTE PTR __k$[ebp+2], -21 ; ffffffebH
  0016d	eb 0a		 jmp	 SHORT $LN111@LoadString
$LN95@LoadString:
  0016f	c6 45 e9 ec	 mov	 BYTE PTR __k$[ebp+1], -20 ; ffffffecH
  00173	eb 04		 jmp	 SHORT $LN111@LoadString
$LN96@LoadString:
  00175	c6 45 e8 ed	 mov	 BYTE PTR __k$[ebp], -19	; ffffffedH
$LN111@LoadString:
  00179	6a 03		 push	 3
  0017b	8d 45 e8	 lea	 eax, DWORD PTR __k$[ebp]
  0017e	c6 45 f4 00	 mov	 BYTE PTR __k$[ebp+12], 0
  00182	5a		 pop	 edx
$LL104@LoadString:
  00183	81 30 ed ec eb
	ea		 xor	 DWORD PTR [eax], -353637139 ; eaebecedH
  00189	83 c0 04	 add	 eax, 4
  0018c	4a		 dec	 edx
  0018d	75 f4		 jne	 SHORT $LL104@LoadString

; 163  : 		LoadString(_k, d, b, i);

  0018f	ff 75 14	 push	 DWORD PTR _i$[ebp]
  00192	8b 4d e4	 mov	 ecx, DWORD PTR _this$GSCopy$[ebp]
  00195	57		 push	 edi
  00196	56		 push	 esi
  00197	8d 45 e8	 lea	 eax, DWORD PTR __k$[ebp]
  0019a	50		 push	 eax
  0019b	ff 15 00 00 00
	00		 call	 DWORD PTR __imp_?LoadStringA@ioINILoader@@QAEXPBD0PADH@Z

; 164  : 	}

  001a1	8b 4d fc	 mov	 ecx, DWORD PTR __$ArrayPad$[ebp]
  001a4	5f		 pop	 edi
  001a5	33 cd		 xor	 ecx, ebp
  001a7	5e		 pop	 esi
  001a8	e8 00 00 00 00	 call	 @__security_check_cookie@4
  001ad	c9		 leave
  001ae	c2 10 00	 ret	 16			; 00000010H
??$LoadString_e@$0N@@ioINILoader@@QAEXAAY0N@$$CBDAAY00$$CBDPADH@Z ENDP ; ioINILoader::LoadString_e<13>
_TEXT	ENDS
PUBLIC	__$ArrayPad$
PUBLIC	??$LoadFloat_e@$0BF@@ioINILoader@@QAEMAAY0BF@$$CBDM@Z ; ioINILoader::LoadFloat_e<21>
EXTRN	__imp_?LoadFloat@ioINILoader@@QAEMPBDM@Z:PROC
; Function compile flags: /Ogsp
;	COMDAT ??$LoadFloat_e@$0BF@@ioINILoader@@QAEMAAY0BF@$$CBDM@Z
_TEXT	SEGMENT
__k$ = -32						; size = 21
__$ArrayPad$ = -4					; size = 4
_k$ = 8							; size = 4
_f$ = 12						; size = 4
??$LoadFloat_e@$0BF@@ioINILoader@@QAEMAAY0BF@$$CBDM@Z PROC ; ioINILoader::LoadFloat_e<21>, COMDAT
; _this$ = ecx

; 135  : 	{

  00000	55		 push	 ebp
  00001	8b ec		 mov	 ebp, esp
  00003	83 ec 20	 sub	 esp, 32			; 00000020H
  00006	a1 00 00 00 00	 mov	 eax, DWORD PTR ___security_cookie
  0000b	33 c5		 xor	 eax, ebp
  0000d	89 45 fc	 mov	 DWORD PTR __$ArrayPad$[ebp], eax
  00010	8b 45 08	 mov	 eax, DWORD PTR _k$[ebp]

; 136  : 		_ENCSTR(k, _k);

  00013	8a 10		 mov	 dl, BYTE PTR [eax]
  00015	53		 push	 ebx
  00016	56		 push	 esi
  00017	8b f1		 mov	 esi, ecx
  00019	84 d2		 test	 dl, dl
  0001b	0f 84 f7 01 00
	00		 je	 $LN96@LoadFloat_
  00021	80 f2 ed	 xor	 dl, -19			; ffffffedH
  00024	88 55 e0	 mov	 BYTE PTR __k$[ebp], dl
  00027	8a 50 01	 mov	 dl, BYTE PTR [eax+1]
  0002a	84 d2		 test	 dl, dl
  0002c	0f 84 e0 01 00
	00		 je	 $LN95@LoadFloat_
  00032	b1 ec		 mov	 cl, -20			; ffffffecH
  00034	32 d1		 xor	 dl, cl
  00036	88 55 e1	 mov	 BYTE PTR __k$[ebp+1], dl
  00039	8a 50 02	 mov	 dl, BYTE PTR [eax+2]
  0003c	84 d2		 test	 dl, dl
  0003e	0f 84 c8 01 00
	00		 je	 $LN94@LoadFloat_
  00044	b3 eb		 mov	 bl, -21			; ffffffebH
  00046	32 d3		 xor	 dl, bl
  00048	88 55 e2	 mov	 BYTE PTR __k$[ebp+2], dl
  0004b	8a 50 03	 mov	 dl, BYTE PTR [eax+3]
  0004e	84 d2		 test	 dl, dl
  00050	0f 84 b0 01 00
	00		 je	 $LN93@LoadFloat_
  00056	80 f2 ea	 xor	 dl, -22			; ffffffeaH
  00059	88 55 e3	 mov	 BYTE PTR __k$[ebp+3], dl
  0005c	8a 50 04	 mov	 dl, BYTE PTR [eax+4]
  0005f	84 d2		 test	 dl, dl
  00061	0f 84 99 01 00
	00		 je	 $LN92@LoadFloat_
  00067	80 f2 ed	 xor	 dl, -19			; ffffffedH
  0006a	88 55 e4	 mov	 BYTE PTR __k$[ebp+4], dl
  0006d	8a 50 05	 mov	 dl, BYTE PTR [eax+5]
  00070	84 d2		 test	 dl, dl
  00072	0f 84 83 01 00
	00		 je	 $LN91@LoadFloat_
  00078	32 d1		 xor	 dl, cl
  0007a	88 55 e5	 mov	 BYTE PTR __k$[ebp+5], dl
  0007d	8a 50 06	 mov	 dl, BYTE PTR [eax+6]
  00080	84 d2		 test	 dl, dl
  00082	0f 84 6e 01 00
	00		 je	 $LN90@LoadFloat_
  00088	32 d3		 xor	 dl, bl
  0008a	88 55 e6	 mov	 BYTE PTR __k$[ebp+6], dl
  0008d	8a 50 07	 mov	 dl, BYTE PTR [eax+7]
  00090	84 d2		 test	 dl, dl
  00092	0f 84 58 01 00
	00		 je	 $LN89@LoadFloat_
  00098	80 f2 ea	 xor	 dl, -22			; ffffffeaH
  0009b	88 55 e7	 mov	 BYTE PTR __k$[ebp+7], dl
  0009e	8a 50 08	 mov	 dl, BYTE PTR [eax+8]
  000a1	84 d2		 test	 dl, dl
  000a3	0f 84 41 01 00
	00		 je	 $LN88@LoadFloat_
  000a9	80 f2 ed	 xor	 dl, -19			; ffffffedH
  000ac	88 55 e8	 mov	 BYTE PTR __k$[ebp+8], dl
  000af	8a 50 09	 mov	 dl, BYTE PTR [eax+9]
  000b2	84 d2		 test	 dl, dl
  000b4	0f 84 2b 01 00
	00		 je	 $LN87@LoadFloat_
  000ba	32 d1		 xor	 dl, cl
  000bc	88 55 e9	 mov	 BYTE PTR __k$[ebp+9], dl
  000bf	8a 50 0a	 mov	 dl, BYTE PTR [eax+10]
  000c2	84 d2		 test	 dl, dl
  000c4	0f 84 16 01 00
	00		 je	 $LN86@LoadFloat_
  000ca	32 d3		 xor	 dl, bl
  000cc	88 55 ea	 mov	 BYTE PTR __k$[ebp+10], dl
  000cf	8a 50 0b	 mov	 dl, BYTE PTR [eax+11]
  000d2	84 d2		 test	 dl, dl
  000d4	0f 84 00 01 00
	00		 je	 $LN85@LoadFloat_
  000da	80 f2 ea	 xor	 dl, -22			; ffffffeaH
  000dd	88 55 eb	 mov	 BYTE PTR __k$[ebp+11], dl
  000e0	8a 50 0c	 mov	 dl, BYTE PTR [eax+12]
  000e3	84 d2		 test	 dl, dl
  000e5	0f 84 e9 00 00
	00		 je	 $LN84@LoadFloat_
  000eb	80 f2 ed	 xor	 dl, -19			; ffffffedH
  000ee	88 55 ec	 mov	 BYTE PTR __k$[ebp+12], dl
  000f1	8a 50 0d	 mov	 dl, BYTE PTR [eax+13]
  000f4	84 d2		 test	 dl, dl
  000f6	0f 84 d3 00 00
	00		 je	 $LN83@LoadFloat_
  000fc	32 d1		 xor	 dl, cl
  000fe	88 55 ed	 mov	 BYTE PTR __k$[ebp+13], dl
  00101	8a 50 0e	 mov	 dl, BYTE PTR [eax+14]
  00104	84 d2		 test	 dl, dl
  00106	0f 84 be 00 00
	00		 je	 $LN82@LoadFloat_
  0010c	32 d3		 xor	 dl, bl
  0010e	88 55 ee	 mov	 BYTE PTR __k$[ebp+14], dl
  00111	8a 50 0f	 mov	 dl, BYTE PTR [eax+15]
  00114	84 d2		 test	 dl, dl
  00116	0f 84 a8 00 00
	00		 je	 $LN81@LoadFloat_
  0011c	80 f2 ea	 xor	 dl, -22			; ffffffeaH
  0011f	88 55 ef	 mov	 BYTE PTR __k$[ebp+15], dl
  00122	8a 50 10	 mov	 dl, BYTE PTR [eax+16]
  00125	84 d2		 test	 dl, dl
  00127	0f 84 91 00 00
	00		 je	 $LN80@LoadFloat_
  0012d	80 f2 ed	 xor	 dl, -19			; ffffffedH
  00130	88 55 f0	 mov	 BYTE PTR __k$[ebp+16], dl
  00133	8a 50 11	 mov	 dl, BYTE PTR [eax+17]
  00136	84 d2		 test	 dl, dl
  00138	74 7f		 je	 SHORT $LN79@LoadFloat_
  0013a	32 d1		 xor	 dl, cl
  0013c	88 55 f1	 mov	 BYTE PTR __k$[ebp+17], dl
  0013f	8a 50 12	 mov	 dl, BYTE PTR [eax+18]
  00142	84 d2		 test	 dl, dl
  00144	74 6e		 je	 SHORT $LN78@LoadFloat_
  00146	32 d3		 xor	 dl, bl
  00148	88 55 f2	 mov	 BYTE PTR __k$[ebp+18], dl
  0014b	8a 50 13	 mov	 dl, BYTE PTR [eax+19]
  0014e	84 d2		 test	 dl, dl
  00150	74 5c		 je	 SHORT $LN77@LoadFloat_
  00152	80 f2 ea	 xor	 dl, -22			; ffffffeaH
  00155	80 78 14 00	 cmp	 BYTE PTR [eax+20], 0
  00159	88 55 f3	 mov	 BYTE PTR __k$[ebp+19], dl
  0015c	0f 84 ba 00 00
	00		 je	 $LN1@LoadFloat_
  00162	8a 50 15	 mov	 dl, BYTE PTR [eax+21]
  00165	84 d2		 test	 dl, dl
  00167	74 40		 je	 SHORT $LN75@LoadFloat_
  00169	32 d1		 xor	 dl, cl
  0016b	88 55 f5	 mov	 BYTE PTR __k$[ebp+21], dl
  0016e	8a 50 16	 mov	 dl, BYTE PTR [eax+22]
  00171	84 d2		 test	 dl, dl
  00173	74 2f		 je	 SHORT $LN74@LoadFloat_
  00175	32 d3		 xor	 dl, bl
  00177	88 55 f6	 mov	 BYTE PTR __k$[ebp+22], dl
  0017a	8a 50 17	 mov	 dl, BYTE PTR [eax+23]
  0017d	84 d2		 test	 dl, dl
  0017f	74 1d		 je	 SHORT $LN73@LoadFloat_
  00181	8a 40 18	 mov	 al, BYTE PTR [eax+24]
  00184	80 f2 ea	 xor	 dl, -22			; ffffffeaH
  00187	88 55 f7	 mov	 BYTE PTR __k$[ebp+23], dl
  0018a	84 c0		 test	 al, al
  0018c	74 0a		 je	 SHORT $LN72@LoadFloat_
  0018e	34 ed		 xor	 al, -19			; ffffffedH
  00190	88 45 f8	 mov	 BYTE PTR __k$[ebp+24], al
  00193	e9 84 00 00 00	 jmp	 $LN1@LoadFloat_
$LN72@LoadFloat_:
  00198	c6 45 f8 ed	 mov	 BYTE PTR __k$[ebp+24], -19 ; ffffffedH
  0019c	eb 7e		 jmp	 SHORT $LN1@LoadFloat_
$LN73@LoadFloat_:
  0019e	c6 45 f7 ea	 mov	 BYTE PTR __k$[ebp+23], -22 ; ffffffeaH
  001a2	eb 78		 jmp	 SHORT $LN1@LoadFloat_
$LN74@LoadFloat_:
  001a4	88 5d f6	 mov	 BYTE PTR __k$[ebp+22], bl
  001a7	eb 73		 jmp	 SHORT $LN1@LoadFloat_
$LN75@LoadFloat_:
  001a9	88 4d f5	 mov	 BYTE PTR __k$[ebp+21], cl
  001ac	eb 6e		 jmp	 SHORT $LN1@LoadFloat_
$LN77@LoadFloat_:
  001ae	c6 45 f3 ea	 mov	 BYTE PTR __k$[ebp+19], -22 ; ffffffeaH
  001b2	eb 68		 jmp	 SHORT $LN1@LoadFloat_
$LN78@LoadFloat_:
  001b4	88 5d f2	 mov	 BYTE PTR __k$[ebp+18], bl
  001b7	eb 63		 jmp	 SHORT $LN1@LoadFloat_
$LN79@LoadFloat_:
  001b9	88 4d f1	 mov	 BYTE PTR __k$[ebp+17], cl
  001bc	eb 5e		 jmp	 SHORT $LN1@LoadFloat_
$LN80@LoadFloat_:
  001be	c6 45 f0 ed	 mov	 BYTE PTR __k$[ebp+16], -19 ; ffffffedH
  001c2	eb 58		 jmp	 SHORT $LN1@LoadFloat_
$LN81@LoadFloat_:
  001c4	c6 45 ef ea	 mov	 BYTE PTR __k$[ebp+15], -22 ; ffffffeaH
  001c8	eb 52		 jmp	 SHORT $LN1@LoadFloat_
$LN82@LoadFloat_:
  001ca	88 5d ee	 mov	 BYTE PTR __k$[ebp+14], bl
  001cd	eb 4d		 jmp	 SHORT $LN1@LoadFloat_
$LN83@LoadFloat_:
  001cf	88 4d ed	 mov	 BYTE PTR __k$[ebp+13], cl
  001d2	eb 48		 jmp	 SHORT $LN1@LoadFloat_
$LN84@LoadFloat_:
  001d4	c6 45 ec ed	 mov	 BYTE PTR __k$[ebp+12], -19 ; ffffffedH
  001d8	eb 42		 jmp	 SHORT $LN1@LoadFloat_
$LN85@LoadFloat_:
  001da	c6 45 eb ea	 mov	 BYTE PTR __k$[ebp+11], -22 ; ffffffeaH
  001de	eb 3c		 jmp	 SHORT $LN1@LoadFloat_
$LN86@LoadFloat_:
  001e0	88 5d ea	 mov	 BYTE PTR __k$[ebp+10], bl
  001e3	eb 37		 jmp	 SHORT $LN1@LoadFloat_
$LN87@LoadFloat_:
  001e5	88 4d e9	 mov	 BYTE PTR __k$[ebp+9], cl
  001e8	eb 32		 jmp	 SHORT $LN1@LoadFloat_
$LN88@LoadFloat_:
  001ea	c6 45 e8 ed	 mov	 BYTE PTR __k$[ebp+8], -19 ; ffffffedH
  001ee	eb 2c		 jmp	 SHORT $LN1@LoadFloat_
$LN89@LoadFloat_:
  001f0	c6 45 e7 ea	 mov	 BYTE PTR __k$[ebp+7], -22 ; ffffffeaH
  001f4	eb 26		 jmp	 SHORT $LN1@LoadFloat_
$LN90@LoadFloat_:
  001f6	88 5d e6	 mov	 BYTE PTR __k$[ebp+6], bl
  001f9	eb 21		 jmp	 SHORT $LN1@LoadFloat_
$LN91@LoadFloat_:
  001fb	88 4d e5	 mov	 BYTE PTR __k$[ebp+5], cl
  001fe	eb 1c		 jmp	 SHORT $LN1@LoadFloat_
$LN92@LoadFloat_:
  00200	c6 45 e4 ed	 mov	 BYTE PTR __k$[ebp+4], -19 ; ffffffedH
  00204	eb 16		 jmp	 SHORT $LN1@LoadFloat_
$LN93@LoadFloat_:
  00206	c6 45 e3 ea	 mov	 BYTE PTR __k$[ebp+3], -22 ; ffffffeaH
  0020a	eb 10		 jmp	 SHORT $LN1@LoadFloat_
$LN94@LoadFloat_:
  0020c	c6 45 e2 eb	 mov	 BYTE PTR __k$[ebp+2], -21 ; ffffffebH
  00210	eb 0a		 jmp	 SHORT $LN1@LoadFloat_
$LN95@LoadFloat_:
  00212	c6 45 e1 ec	 mov	 BYTE PTR __k$[ebp+1], -20 ; ffffffecH
  00216	eb 04		 jmp	 SHORT $LN1@LoadFloat_
$LN96@LoadFloat_:
  00218	c6 45 e0 ed	 mov	 BYTE PTR __k$[ebp], -19	; ffffffedH
$LN1@LoadFloat_:
  0021c	6a 05		 push	 5
  0021e	8d 45 e0	 lea	 eax, DWORD PTR __k$[ebp]
  00221	c6 45 f4 00	 mov	 BYTE PTR __k$[ebp+20], 0
  00225	5a		 pop	 edx
$LL104@LoadFloat_:
  00226	81 30 ed ec eb
	ea		 xor	 DWORD PTR [eax], -353637139 ; eaebecedH
  0022c	83 c0 04	 add	 eax, 4
  0022f	4a		 dec	 edx
  00230	75 f4		 jne	 SHORT $LL104@LoadFloat_

; 137  : 		return LoadFloat(_k, f);

  00232	f3 0f 10 45 0c	 movss	 xmm0, DWORD PTR _f$[ebp]
  00237	51		 push	 ecx
  00238	8d 45 e0	 lea	 eax, DWORD PTR __k$[ebp]
  0023b	f3 0f 11 04 24	 movss	 DWORD PTR [esp], xmm0
  00240	50		 push	 eax
  00241	8b ce		 mov	 ecx, esi
  00243	ff 15 00 00 00
	00		 call	 DWORD PTR __imp_?LoadFloat@ioINILoader@@QAEMPBDM@Z

; 138  : 	}

  00249	8b 4d fc	 mov	 ecx, DWORD PTR __$ArrayPad$[ebp]
  0024c	5e		 pop	 esi
  0024d	33 cd		 xor	 ecx, ebp
  0024f	5b		 pop	 ebx
  00250	e8 00 00 00 00	 call	 @__security_check_cookie@4
  00255	c9		 leave
  00256	c2 08 00	 ret	 8
??$LoadFloat_e@$0BF@@ioINILoader@@QAEMAAY0BF@$$CBDM@Z ENDP ; ioINILoader::LoadFloat_e<21>
_TEXT	ENDS
PUBLIC	__$ArrayPad$
PUBLIC	??$LoadFloat_e@$0BJ@@ioINILoader@@QAEMAAY0BJ@$$CBDM@Z ; ioINILoader::LoadFloat_e<25>
; Function compile flags: /Ogsp
;	COMDAT ??$LoadFloat_e@$0BJ@@ioINILoader@@QAEMAAY0BJ@$$CBDM@Z
_TEXT	SEGMENT
__k$ = -36						; size = 25
__$ArrayPad$ = -4					; size = 4
_k$ = 8							; size = 4
_f$ = 12						; size = 4
??$LoadFloat_e@$0BJ@@ioINILoader@@QAEMAAY0BJ@$$CBDM@Z PROC ; ioINILoader::LoadFloat_e<25>, COMDAT
; _this$ = ecx

; 135  : 	{

  00000	55		 push	 ebp
  00001	8b ec		 mov	 ebp, esp
  00003	83 ec 24	 sub	 esp, 36			; 00000024H
  00006	a1 00 00 00 00	 mov	 eax, DWORD PTR ___security_cookie
  0000b	33 c5		 xor	 eax, ebp
  0000d	89 45 fc	 mov	 DWORD PTR __$ArrayPad$[ebp], eax
  00010	8b 45 08	 mov	 eax, DWORD PTR _k$[ebp]

; 136  : 		_ENCSTR(k, _k);

  00013	8a 10		 mov	 dl, BYTE PTR [eax]
  00015	53		 push	 ebx
  00016	56		 push	 esi
  00017	8b f1		 mov	 esi, ecx
  00019	84 d2		 test	 dl, dl
  0001b	0f 84 5f 02 00
	00		 je	 $LN96@LoadFloat_@2
  00021	80 f2 ed	 xor	 dl, -19			; ffffffedH
  00024	88 55 dc	 mov	 BYTE PTR __k$[ebp], dl
  00027	8a 50 01	 mov	 dl, BYTE PTR [eax+1]
  0002a	84 d2		 test	 dl, dl
  0002c	0f 84 48 02 00
	00		 je	 $LN95@LoadFloat_@2
  00032	b1 ec		 mov	 cl, -20			; ffffffecH
  00034	32 d1		 xor	 dl, cl
  00036	88 55 dd	 mov	 BYTE PTR __k$[ebp+1], dl
  00039	8a 50 02	 mov	 dl, BYTE PTR [eax+2]
  0003c	84 d2		 test	 dl, dl
  0003e	0f 84 30 02 00
	00		 je	 $LN94@LoadFloat_@2
  00044	b3 eb		 mov	 bl, -21			; ffffffebH
  00046	32 d3		 xor	 dl, bl
  00048	88 55 de	 mov	 BYTE PTR __k$[ebp+2], dl
  0004b	8a 50 03	 mov	 dl, BYTE PTR [eax+3]
  0004e	84 d2		 test	 dl, dl
  00050	0f 84 18 02 00
	00		 je	 $LN93@LoadFloat_@2
  00056	80 f2 ea	 xor	 dl, -22			; ffffffeaH
  00059	88 55 df	 mov	 BYTE PTR __k$[ebp+3], dl
  0005c	8a 50 04	 mov	 dl, BYTE PTR [eax+4]
  0005f	84 d2		 test	 dl, dl
  00061	0f 84 01 02 00
	00		 je	 $LN92@LoadFloat_@2
  00067	80 f2 ed	 xor	 dl, -19			; ffffffedH
  0006a	88 55 e0	 mov	 BYTE PTR __k$[ebp+4], dl
  0006d	8a 50 05	 mov	 dl, BYTE PTR [eax+5]
  00070	84 d2		 test	 dl, dl
  00072	0f 84 eb 01 00
	00		 je	 $LN91@LoadFloat_@2
  00078	32 d1		 xor	 dl, cl
  0007a	88 55 e1	 mov	 BYTE PTR __k$[ebp+5], dl
  0007d	8a 50 06	 mov	 dl, BYTE PTR [eax+6]
  00080	84 d2		 test	 dl, dl
  00082	0f 84 d6 01 00
	00		 je	 $LN90@LoadFloat_@2
  00088	32 d3		 xor	 dl, bl
  0008a	88 55 e2	 mov	 BYTE PTR __k$[ebp+6], dl
  0008d	8a 50 07	 mov	 dl, BYTE PTR [eax+7]
  00090	84 d2		 test	 dl, dl
  00092	0f 84 c0 01 00
	00		 je	 $LN89@LoadFloat_@2
  00098	80 f2 ea	 xor	 dl, -22			; ffffffeaH
  0009b	88 55 e3	 mov	 BYTE PTR __k$[ebp+7], dl
  0009e	8a 50 08	 mov	 dl, BYTE PTR [eax+8]
  000a1	84 d2		 test	 dl, dl
  000a3	0f 84 a9 01 00
	00		 je	 $LN88@LoadFloat_@2
  000a9	80 f2 ed	 xor	 dl, -19			; ffffffedH
  000ac	88 55 e4	 mov	 BYTE PTR __k$[ebp+8], dl
  000af	8a 50 09	 mov	 dl, BYTE PTR [eax+9]
  000b2	84 d2		 test	 dl, dl
  000b4	0f 84 93 01 00
	00		 je	 $LN87@LoadFloat_@2
  000ba	32 d1		 xor	 dl, cl
  000bc	88 55 e5	 mov	 BYTE PTR __k$[ebp+9], dl
  000bf	8a 50 0a	 mov	 dl, BYTE PTR [eax+10]
  000c2	84 d2		 test	 dl, dl
  000c4	0f 84 7e 01 00
	00		 je	 $LN86@LoadFloat_@2
  000ca	32 d3		 xor	 dl, bl
  000cc	88 55 e6	 mov	 BYTE PTR __k$[ebp+10], dl
  000cf	8a 50 0b	 mov	 dl, BYTE PTR [eax+11]
  000d2	84 d2		 test	 dl, dl
  000d4	0f 84 68 01 00
	00		 je	 $LN85@LoadFloat_@2
  000da	80 f2 ea	 xor	 dl, -22			; ffffffeaH
  000dd	88 55 e7	 mov	 BYTE PTR __k$[ebp+11], dl
  000e0	8a 50 0c	 mov	 dl, BYTE PTR [eax+12]
  000e3	84 d2		 test	 dl, dl
  000e5	0f 84 51 01 00
	00		 je	 $LN84@LoadFloat_@2
  000eb	80 f2 ed	 xor	 dl, -19			; ffffffedH
  000ee	88 55 e8	 mov	 BYTE PTR __k$[ebp+12], dl
  000f1	8a 50 0d	 mov	 dl, BYTE PTR [eax+13]
  000f4	84 d2		 test	 dl, dl
  000f6	0f 84 3b 01 00
	00		 je	 $LN83@LoadFloat_@2
  000fc	32 d1		 xor	 dl, cl
  000fe	88 55 e9	 mov	 BYTE PTR __k$[ebp+13], dl
  00101	8a 50 0e	 mov	 dl, BYTE PTR [eax+14]
  00104	84 d2		 test	 dl, dl
  00106	0f 84 26 01 00
	00		 je	 $LN82@LoadFloat_@2
  0010c	32 d3		 xor	 dl, bl
  0010e	88 55 ea	 mov	 BYTE PTR __k$[ebp+14], dl
  00111	8a 50 0f	 mov	 dl, BYTE PTR [eax+15]
  00114	84 d2		 test	 dl, dl
  00116	0f 84 10 01 00
	00		 je	 $LN81@LoadFloat_@2
  0011c	80 f2 ea	 xor	 dl, -22			; ffffffeaH
  0011f	88 55 eb	 mov	 BYTE PTR __k$[ebp+15], dl
  00122	8a 50 10	 mov	 dl, BYTE PTR [eax+16]
  00125	84 d2		 test	 dl, dl
  00127	0f 84 f9 00 00
	00		 je	 $LN80@LoadFloat_@2
  0012d	80 f2 ed	 xor	 dl, -19			; ffffffedH
  00130	88 55 ec	 mov	 BYTE PTR __k$[ebp+16], dl
  00133	8a 50 11	 mov	 dl, BYTE PTR [eax+17]
  00136	84 d2		 test	 dl, dl
  00138	0f 84 e3 00 00
	00		 je	 $LN79@LoadFloat_@2
  0013e	32 d1		 xor	 dl, cl
  00140	88 55 ed	 mov	 BYTE PTR __k$[ebp+17], dl
  00143	8a 50 12	 mov	 dl, BYTE PTR [eax+18]
  00146	84 d2		 test	 dl, dl
  00148	0f 84 ce 00 00
	00		 je	 $LN78@LoadFloat_@2
  0014e	32 d3		 xor	 dl, bl
  00150	88 55 ee	 mov	 BYTE PTR __k$[ebp+18], dl
  00153	8a 50 13	 mov	 dl, BYTE PTR [eax+19]
  00156	84 d2		 test	 dl, dl
  00158	0f 84 b8 00 00
	00		 je	 $LN77@LoadFloat_@2
  0015e	80 f2 ea	 xor	 dl, -22			; ffffffeaH
  00161	88 55 ef	 mov	 BYTE PTR __k$[ebp+19], dl
  00164	8a 50 14	 mov	 dl, BYTE PTR [eax+20]
  00167	84 d2		 test	 dl, dl
  00169	0f 84 a1 00 00
	00		 je	 $LN76@LoadFloat_@2
  0016f	80 f2 ed	 xor	 dl, -19			; ffffffedH
  00172	88 55 f0	 mov	 BYTE PTR __k$[ebp+20], dl
  00175	8a 50 15	 mov	 dl, BYTE PTR [eax+21]
  00178	84 d2		 test	 dl, dl
  0017a	0f 84 8b 00 00
	00		 je	 $LN75@LoadFloat_@2
  00180	32 d1		 xor	 dl, cl
  00182	88 55 f1	 mov	 BYTE PTR __k$[ebp+21], dl
  00185	8a 50 16	 mov	 dl, BYTE PTR [eax+22]
  00188	84 d2		 test	 dl, dl
  0018a	74 7a		 je	 SHORT $LN74@LoadFloat_@2
  0018c	32 d3		 xor	 dl, bl
  0018e	88 55 f2	 mov	 BYTE PTR __k$[ebp+22], dl
  00191	8a 50 17	 mov	 dl, BYTE PTR [eax+23]
  00194	84 d2		 test	 dl, dl
  00196	74 68		 je	 SHORT $LN73@LoadFloat_@2
  00198	80 f2 ea	 xor	 dl, -22			; ffffffeaH
  0019b	80 78 18 00	 cmp	 BYTE PTR [eax+24], 0
  0019f	88 55 f3	 mov	 BYTE PTR __k$[ebp+23], dl
  001a2	0f 84 dc 00 00
	00		 je	 $LN1@LoadFloat_@2
  001a8	8a 50 19	 mov	 dl, BYTE PTR [eax+25]
  001ab	84 d2		 test	 dl, dl
  001ad	74 49		 je	 SHORT $LN71@LoadFloat_@2
  001af	32 d1		 xor	 dl, cl
  001b1	88 55 f5	 mov	 BYTE PTR __k$[ebp+25], dl
  001b4	8a 50 1a	 mov	 dl, BYTE PTR [eax+26]
  001b7	84 d2		 test	 dl, dl
  001b9	74 35		 je	 SHORT $LN70@LoadFloat_@2
  001bb	32 d3		 xor	 dl, bl
  001bd	88 55 f6	 mov	 BYTE PTR __k$[ebp+26], dl
  001c0	8a 50 1b	 mov	 dl, BYTE PTR [eax+27]
  001c3	84 d2		 test	 dl, dl
  001c5	74 20		 je	 SHORT $LN69@LoadFloat_@2
  001c7	8a 40 1c	 mov	 al, BYTE PTR [eax+28]
  001ca	80 f2 ea	 xor	 dl, -22			; ffffffeaH
  001cd	88 55 f7	 mov	 BYTE PTR __k$[ebp+27], dl
  001d0	84 c0		 test	 al, al
  001d2	74 0a		 je	 SHORT $LN68@LoadFloat_@2
  001d4	34 ed		 xor	 al, -19			; ffffffedH
  001d6	88 45 f8	 mov	 BYTE PTR __k$[ebp+28], al
  001d9	e9 a6 00 00 00	 jmp	 $LN1@LoadFloat_@2
$LN68@LoadFloat_@2:
  001de	c6 45 f8 ed	 mov	 BYTE PTR __k$[ebp+28], -19 ; ffffffedH
  001e2	e9 9d 00 00 00	 jmp	 $LN1@LoadFloat_@2
$LN69@LoadFloat_@2:
  001e7	c6 45 f7 ea	 mov	 BYTE PTR __k$[ebp+27], -22 ; ffffffeaH
  001eb	e9 94 00 00 00	 jmp	 $LN1@LoadFloat_@2
$LN70@LoadFloat_@2:
  001f0	88 5d f6	 mov	 BYTE PTR __k$[ebp+26], bl
  001f3	e9 8c 00 00 00	 jmp	 $LN1@LoadFloat_@2
$LN71@LoadFloat_@2:
  001f8	88 4d f5	 mov	 BYTE PTR __k$[ebp+25], cl
  001fb	e9 84 00 00 00	 jmp	 $LN1@LoadFloat_@2
$LN73@LoadFloat_@2:
  00200	c6 45 f3 ea	 mov	 BYTE PTR __k$[ebp+23], -22 ; ffffffeaH
  00204	eb 7e		 jmp	 SHORT $LN1@LoadFloat_@2
$LN74@LoadFloat_@2:
  00206	88 5d f2	 mov	 BYTE PTR __k$[ebp+22], bl
  00209	eb 79		 jmp	 SHORT $LN1@LoadFloat_@2
$LN75@LoadFloat_@2:
  0020b	88 4d f1	 mov	 BYTE PTR __k$[ebp+21], cl
  0020e	eb 74		 jmp	 SHORT $LN1@LoadFloat_@2
$LN76@LoadFloat_@2:
  00210	c6 45 f0 ed	 mov	 BYTE PTR __k$[ebp+20], -19 ; ffffffedH
  00214	eb 6e		 jmp	 SHORT $LN1@LoadFloat_@2
$LN77@LoadFloat_@2:
  00216	c6 45 ef ea	 mov	 BYTE PTR __k$[ebp+19], -22 ; ffffffeaH
  0021a	eb 68		 jmp	 SHORT $LN1@LoadFloat_@2
$LN78@LoadFloat_@2:
  0021c	88 5d ee	 mov	 BYTE PTR __k$[ebp+18], bl
  0021f	eb 63		 jmp	 SHORT $LN1@LoadFloat_@2
$LN79@LoadFloat_@2:
  00221	88 4d ed	 mov	 BYTE PTR __k$[ebp+17], cl
  00224	eb 5e		 jmp	 SHORT $LN1@LoadFloat_@2
$LN80@LoadFloat_@2:
  00226	c6 45 ec ed	 mov	 BYTE PTR __k$[ebp+16], -19 ; ffffffedH
  0022a	eb 58		 jmp	 SHORT $LN1@LoadFloat_@2
$LN81@LoadFloat_@2:
  0022c	c6 45 eb ea	 mov	 BYTE PTR __k$[ebp+15], -22 ; ffffffeaH
  00230	eb 52		 jmp	 SHORT $LN1@LoadFloat_@2
$LN82@LoadFloat_@2:
  00232	88 5d ea	 mov	 BYTE PTR __k$[ebp+14], bl
  00235	eb 4d		 jmp	 SHORT $LN1@LoadFloat_@2
$LN83@LoadFloat_@2:
  00237	88 4d e9	 mov	 BYTE PTR __k$[ebp+13], cl
  0023a	eb 48		 jmp	 SHORT $LN1@LoadFloat_@2
$LN84@LoadFloat_@2:
  0023c	c6 45 e8 ed	 mov	 BYTE PTR __k$[ebp+12], -19 ; ffffffedH
  00240	eb 42		 jmp	 SHORT $LN1@LoadFloat_@2
$LN85@LoadFloat_@2:
  00242	c6 45 e7 ea	 mov	 BYTE PTR __k$[ebp+11], -22 ; ffffffeaH
  00246	eb 3c		 jmp	 SHORT $LN1@LoadFloat_@2
$LN86@LoadFloat_@2:
  00248	88 5d e6	 mov	 BYTE PTR __k$[ebp+10], bl
  0024b	eb 37		 jmp	 SHORT $LN1@LoadFloat_@2
$LN87@LoadFloat_@2:
  0024d	88 4d e5	 mov	 BYTE PTR __k$[ebp+9], cl
  00250	eb 32		 jmp	 SHORT $LN1@LoadFloat_@2
$LN88@LoadFloat_@2:
  00252	c6 45 e4 ed	 mov	 BYTE PTR __k$[ebp+8], -19 ; ffffffedH
  00256	eb 2c		 jmp	 SHORT $LN1@LoadFloat_@2
$LN89@LoadFloat_@2:
  00258	c6 45 e3 ea	 mov	 BYTE PTR __k$[ebp+7], -22 ; ffffffeaH
  0025c	eb 26		 jmp	 SHORT $LN1@LoadFloat_@2
$LN90@LoadFloat_@2:
  0025e	88 5d e2	 mov	 BYTE PTR __k$[ebp+6], bl
  00261	eb 21		 jmp	 SHORT $LN1@LoadFloat_@2
$LN91@LoadFloat_@2:
  00263	88 4d e1	 mov	 BYTE PTR __k$[ebp+5], cl
  00266	eb 1c		 jmp	 SHORT $LN1@LoadFloat_@2
$LN92@LoadFloat_@2:
  00268	c6 45 e0 ed	 mov	 BYTE PTR __k$[ebp+4], -19 ; ffffffedH
  0026c	eb 16		 jmp	 SHORT $LN1@LoadFloat_@2
$LN93@LoadFloat_@2:
  0026e	c6 45 df ea	 mov	 BYTE PTR __k$[ebp+3], -22 ; ffffffeaH
  00272	eb 10		 jmp	 SHORT $LN1@LoadFloat_@2
$LN94@LoadFloat_@2:
  00274	c6 45 de eb	 mov	 BYTE PTR __k$[ebp+2], -21 ; ffffffebH
  00278	eb 0a		 jmp	 SHORT $LN1@LoadFloat_@2
$LN95@LoadFloat_@2:
  0027a	c6 45 dd ec	 mov	 BYTE PTR __k$[ebp+1], -20 ; ffffffecH
  0027e	eb 04		 jmp	 SHORT $LN1@LoadFloat_@2
$LN96@LoadFloat_@2:
  00280	c6 45 dc ed	 mov	 BYTE PTR __k$[ebp], -19	; ffffffedH
$LN1@LoadFloat_@2:
  00284	6a 06		 push	 6
  00286	8d 45 dc	 lea	 eax, DWORD PTR __k$[ebp]
  00289	c6 45 f4 00	 mov	 BYTE PTR __k$[ebp+24], 0
  0028d	5a		 pop	 edx
$LL104@LoadFloat_@2:
  0028e	81 30 ed ec eb
	ea		 xor	 DWORD PTR [eax], -353637139 ; eaebecedH
  00294	83 c0 04	 add	 eax, 4
  00297	4a		 dec	 edx
  00298	75 f4		 jne	 SHORT $LL104@LoadFloat_@2

; 137  : 		return LoadFloat(_k, f);

  0029a	f3 0f 10 45 0c	 movss	 xmm0, DWORD PTR _f$[ebp]
  0029f	51		 push	 ecx
  002a0	8d 45 dc	 lea	 eax, DWORD PTR __k$[ebp]
  002a3	f3 0f 11 04 24	 movss	 DWORD PTR [esp], xmm0
  002a8	50		 push	 eax
  002a9	8b ce		 mov	 ecx, esi
  002ab	ff 15 00 00 00
	00		 call	 DWORD PTR __imp_?LoadFloat@ioINILoader@@QAEMPBDM@Z

; 138  : 	}

  002b1	8b 4d fc	 mov	 ecx, DWORD PTR __$ArrayPad$[ebp]
  002b4	5e		 pop	 esi
  002b5	33 cd		 xor	 ecx, ebp
  002b7	5b		 pop	 ebx
  002b8	e8 00 00 00 00	 call	 @__security_check_cookie@4
  002bd	c9		 leave
  002be	c2 08 00	 ret	 8
??$LoadFloat_e@$0BJ@@ioINILoader@@QAEMAAY0BJ@$$CBDM@Z ENDP ; ioINILoader::LoadFloat_e<25>
_TEXT	ENDS
PUBLIC	__$ArrayPad$
PUBLIC	??$LoadFloat_e@$0BH@@ioINILoader@@QAEMAAY0BH@$$CBDM@Z ; ioINILoader::LoadFloat_e<23>
; Function compile flags: /Ogsp
;	COMDAT ??$LoadFloat_e@$0BH@@ioINILoader@@QAEMAAY0BH@$$CBDM@Z
_TEXT	SEGMENT
__k$ = -32						; size = 23
__$ArrayPad$ = -4					; size = 4
_k$ = 8							; size = 4
_f$ = 12						; size = 4
??$LoadFloat_e@$0BH@@ioINILoader@@QAEMAAY0BH@$$CBDM@Z PROC ; ioINILoader::LoadFloat_e<23>, COMDAT
; _this$ = ecx

; 135  : 	{

  00000	55		 push	 ebp
  00001	8b ec		 mov	 ebp, esp
  00003	83 ec 20	 sub	 esp, 32			; 00000020H
  00006	a1 00 00 00 00	 mov	 eax, DWORD PTR ___security_cookie
  0000b	33 c5		 xor	 eax, ebp
  0000d	89 45 fc	 mov	 DWORD PTR __$ArrayPad$[ebp], eax
  00010	8b 45 08	 mov	 eax, DWORD PTR _k$[ebp]

; 136  : 		_ENCSTR(k, _k);

  00013	8a 10		 mov	 dl, BYTE PTR [eax]
  00015	53		 push	 ebx
  00016	56		 push	 esi
  00017	8b f1		 mov	 esi, ecx
  00019	84 d2		 test	 dl, dl
  0001b	0f 84 2d 02 00
	00		 je	 $LN96@LoadFloat_@3
  00021	80 f2 ed	 xor	 dl, -19			; ffffffedH
  00024	88 55 e0	 mov	 BYTE PTR __k$[ebp], dl
  00027	8a 50 01	 mov	 dl, BYTE PTR [eax+1]
  0002a	84 d2		 test	 dl, dl
  0002c	0f 84 16 02 00
	00		 je	 $LN95@LoadFloat_@3
  00032	b1 ec		 mov	 cl, -20			; ffffffecH
  00034	32 d1		 xor	 dl, cl
  00036	88 55 e1	 mov	 BYTE PTR __k$[ebp+1], dl
  00039	8a 50 02	 mov	 dl, BYTE PTR [eax+2]
  0003c	84 d2		 test	 dl, dl
  0003e	0f 84 fe 01 00
	00		 je	 $LN94@LoadFloat_@3
  00044	80 f2 eb	 xor	 dl, -21			; ffffffebH
  00047	88 55 e2	 mov	 BYTE PTR __k$[ebp+2], dl
  0004a	8a 50 03	 mov	 dl, BYTE PTR [eax+3]
  0004d	84 d2		 test	 dl, dl
  0004f	0f 84 e7 01 00
	00		 je	 $LN93@LoadFloat_@3
  00055	b3 ea		 mov	 bl, -22			; ffffffeaH
  00057	32 d3		 xor	 dl, bl
  00059	88 55 e3	 mov	 BYTE PTR __k$[ebp+3], dl
  0005c	8a 50 04	 mov	 dl, BYTE PTR [eax+4]
  0005f	84 d2		 test	 dl, dl
  00061	0f 84 cf 01 00
	00		 je	 $LN92@LoadFloat_@3
  00067	80 f2 ed	 xor	 dl, -19			; ffffffedH
  0006a	88 55 e4	 mov	 BYTE PTR __k$[ebp+4], dl
  0006d	8a 50 05	 mov	 dl, BYTE PTR [eax+5]
  00070	84 d2		 test	 dl, dl
  00072	0f 84 b9 01 00
	00		 je	 $LN91@LoadFloat_@3
  00078	32 d1		 xor	 dl, cl
  0007a	88 55 e5	 mov	 BYTE PTR __k$[ebp+5], dl
  0007d	8a 50 06	 mov	 dl, BYTE PTR [eax+6]
  00080	84 d2		 test	 dl, dl
  00082	0f 84 a3 01 00
	00		 je	 $LN90@LoadFloat_@3
  00088	80 f2 eb	 xor	 dl, -21			; ffffffebH
  0008b	88 55 e6	 mov	 BYTE PTR __k$[ebp+6], dl
  0008e	8a 50 07	 mov	 dl, BYTE PTR [eax+7]
  00091	84 d2		 test	 dl, dl
  00093	0f 84 8d 01 00
	00		 je	 $LN89@LoadFloat_@3
  00099	32 d3		 xor	 dl, bl
  0009b	88 55 e7	 mov	 BYTE PTR __k$[ebp+7], dl
  0009e	8a 50 08	 mov	 dl, BYTE PTR [eax+8]
  000a1	84 d2		 test	 dl, dl
  000a3	0f 84 77 01 00
	00		 je	 $LN88@LoadFloat_@3
  000a9	80 f2 ed	 xor	 dl, -19			; ffffffedH
  000ac	88 55 e8	 mov	 BYTE PTR __k$[ebp+8], dl
  000af	8a 50 09	 mov	 dl, BYTE PTR [eax+9]
  000b2	84 d2		 test	 dl, dl
  000b4	0f 84 61 01 00
	00		 je	 $LN87@LoadFloat_@3
  000ba	32 d1		 xor	 dl, cl
  000bc	88 55 e9	 mov	 BYTE PTR __k$[ebp+9], dl
  000bf	8a 50 0a	 mov	 dl, BYTE PTR [eax+10]
  000c2	84 d2		 test	 dl, dl
  000c4	0f 84 4b 01 00
	00		 je	 $LN86@LoadFloat_@3
  000ca	80 f2 eb	 xor	 dl, -21			; ffffffebH
  000cd	88 55 ea	 mov	 BYTE PTR __k$[ebp+10], dl
  000d0	8a 50 0b	 mov	 dl, BYTE PTR [eax+11]
  000d3	84 d2		 test	 dl, dl
  000d5	0f 84 35 01 00
	00		 je	 $LN85@LoadFloat_@3
  000db	32 d3		 xor	 dl, bl
  000dd	88 55 eb	 mov	 BYTE PTR __k$[ebp+11], dl
  000e0	8a 50 0c	 mov	 dl, BYTE PTR [eax+12]
  000e3	84 d2		 test	 dl, dl
  000e5	0f 84 1f 01 00
	00		 je	 $LN84@LoadFloat_@3
  000eb	80 f2 ed	 xor	 dl, -19			; ffffffedH
  000ee	88 55 ec	 mov	 BYTE PTR __k$[ebp+12], dl
  000f1	8a 50 0d	 mov	 dl, BYTE PTR [eax+13]
  000f4	84 d2		 test	 dl, dl
  000f6	0f 84 09 01 00
	00		 je	 $LN83@LoadFloat_@3
  000fc	32 d1		 xor	 dl, cl
  000fe	88 55 ed	 mov	 BYTE PTR __k$[ebp+13], dl
  00101	8a 50 0e	 mov	 dl, BYTE PTR [eax+14]
  00104	84 d2		 test	 dl, dl
  00106	0f 84 f3 00 00
	00		 je	 $LN82@LoadFloat_@3
  0010c	80 f2 eb	 xor	 dl, -21			; ffffffebH
  0010f	88 55 ee	 mov	 BYTE PTR __k$[ebp+14], dl
  00112	8a 50 0f	 mov	 dl, BYTE PTR [eax+15]
  00115	84 d2		 test	 dl, dl
  00117	0f 84 dd 00 00
	00		 je	 $LN81@LoadFloat_@3
  0011d	32 d3		 xor	 dl, bl
  0011f	88 55 ef	 mov	 BYTE PTR __k$[ebp+15], dl
  00122	8a 50 10	 mov	 dl, BYTE PTR [eax+16]
  00125	84 d2		 test	 dl, dl
  00127	0f 84 c7 00 00
	00		 je	 $LN80@LoadFloat_@3
  0012d	80 f2 ed	 xor	 dl, -19			; ffffffedH
  00130	88 55 f0	 mov	 BYTE PTR __k$[ebp+16], dl
  00133	8a 50 11	 mov	 dl, BYTE PTR [eax+17]
  00136	84 d2		 test	 dl, dl
  00138	0f 84 b1 00 00
	00		 je	 $LN79@LoadFloat_@3
  0013e	32 d1		 xor	 dl, cl
  00140	88 55 f1	 mov	 BYTE PTR __k$[ebp+17], dl
  00143	8a 50 12	 mov	 dl, BYTE PTR [eax+18]
  00146	84 d2		 test	 dl, dl
  00148	0f 84 9b 00 00
	00		 je	 $LN78@LoadFloat_@3
  0014e	80 f2 eb	 xor	 dl, -21			; ffffffebH
  00151	88 55 f2	 mov	 BYTE PTR __k$[ebp+18], dl
  00154	8a 50 13	 mov	 dl, BYTE PTR [eax+19]
  00157	84 d2		 test	 dl, dl
  00159	0f 84 85 00 00
	00		 je	 $LN77@LoadFloat_@3
  0015f	32 d3		 xor	 dl, bl
  00161	88 55 f3	 mov	 BYTE PTR __k$[ebp+19], dl
  00164	8a 50 14	 mov	 dl, BYTE PTR [eax+20]
  00167	84 d2		 test	 dl, dl
  00169	74 73		 je	 SHORT $LN76@LoadFloat_@3
  0016b	80 f2 ed	 xor	 dl, -19			; ffffffedH
  0016e	88 55 f4	 mov	 BYTE PTR __k$[ebp+20], dl
  00171	8a 50 15	 mov	 dl, BYTE PTR [eax+21]
  00174	84 d2		 test	 dl, dl
  00176	74 61		 je	 SHORT $LN75@LoadFloat_@3
  00178	32 d1		 xor	 dl, cl
  0017a	80 78 16 00	 cmp	 BYTE PTR [eax+22], 0
  0017e	88 55 f5	 mov	 BYTE PTR __k$[ebp+21], dl
  00181	0f 84 cb 00 00
	00		 je	 $LN1@LoadFloat_@3
  00187	8a 50 17	 mov	 dl, BYTE PTR [eax+23]
  0018a	84 d2		 test	 dl, dl
  0018c	74 46		 je	 SHORT $LN73@LoadFloat_@3
  0018e	32 d3		 xor	 dl, bl
  00190	88 55 f7	 mov	 BYTE PTR __k$[ebp+23], dl
  00193	8a 50 18	 mov	 dl, BYTE PTR [eax+24]
  00196	84 d2		 test	 dl, dl
  00198	74 34		 je	 SHORT $LN72@LoadFloat_@3
  0019a	80 f2 ed	 xor	 dl, -19			; ffffffedH
  0019d	88 55 f8	 mov	 BYTE PTR __k$[ebp+24], dl
  001a0	8a 50 19	 mov	 dl, BYTE PTR [eax+25]
  001a3	84 d2		 test	 dl, dl
  001a5	74 1f		 je	 SHORT $LN71@LoadFloat_@3
  001a7	8a 40 1a	 mov	 al, BYTE PTR [eax+26]
  001aa	32 d1		 xor	 dl, cl
  001ac	88 55 f9	 mov	 BYTE PTR __k$[ebp+25], dl
  001af	84 c0		 test	 al, al
  001b1	74 0a		 je	 SHORT $LN70@LoadFloat_@3
  001b3	34 eb		 xor	 al, -21			; ffffffebH
  001b5	88 45 fa	 mov	 BYTE PTR __k$[ebp+26], al
  001b8	e9 95 00 00 00	 jmp	 $LN1@LoadFloat_@3
$LN70@LoadFloat_@3:
  001bd	c6 45 fa eb	 mov	 BYTE PTR __k$[ebp+26], -21 ; ffffffebH
  001c1	e9 8c 00 00 00	 jmp	 $LN1@LoadFloat_@3
$LN71@LoadFloat_@3:
  001c6	88 4d f9	 mov	 BYTE PTR __k$[ebp+25], cl
  001c9	e9 84 00 00 00	 jmp	 $LN1@LoadFloat_@3
$LN72@LoadFloat_@3:
  001ce	c6 45 f8 ed	 mov	 BYTE PTR __k$[ebp+24], -19 ; ffffffedH
  001d2	eb 7e		 jmp	 SHORT $LN1@LoadFloat_@3
$LN73@LoadFloat_@3:
  001d4	88 5d f7	 mov	 BYTE PTR __k$[ebp+23], bl
  001d7	eb 79		 jmp	 SHORT $LN1@LoadFloat_@3
$LN75@LoadFloat_@3:
  001d9	88 4d f5	 mov	 BYTE PTR __k$[ebp+21], cl
  001dc	eb 74		 jmp	 SHORT $LN1@LoadFloat_@3
$LN76@LoadFloat_@3:
  001de	c6 45 f4 ed	 mov	 BYTE PTR __k$[ebp+20], -19 ; ffffffedH
  001e2	eb 6e		 jmp	 SHORT $LN1@LoadFloat_@3
$LN77@LoadFloat_@3:
  001e4	88 5d f3	 mov	 BYTE PTR __k$[ebp+19], bl
  001e7	eb 69		 jmp	 SHORT $LN1@LoadFloat_@3
$LN78@LoadFloat_@3:
  001e9	c6 45 f2 eb	 mov	 BYTE PTR __k$[ebp+18], -21 ; ffffffebH
  001ed	eb 63		 jmp	 SHORT $LN1@LoadFloat_@3
$LN79@LoadFloat_@3:
  001ef	88 4d f1	 mov	 BYTE PTR __k$[ebp+17], cl
  001f2	eb 5e		 jmp	 SHORT $LN1@LoadFloat_@3
$LN80@LoadFloat_@3:
  001f4	c6 45 f0 ed	 mov	 BYTE PTR __k$[ebp+16], -19 ; ffffffedH
  001f8	eb 58		 jmp	 SHORT $LN1@LoadFloat_@3
$LN81@LoadFloat_@3:
  001fa	88 5d ef	 mov	 BYTE PTR __k$[ebp+15], bl
  001fd	eb 53		 jmp	 SHORT $LN1@LoadFloat_@3
$LN82@LoadFloat_@3:
  001ff	c6 45 ee eb	 mov	 BYTE PTR __k$[ebp+14], -21 ; ffffffebH
  00203	eb 4d		 jmp	 SHORT $LN1@LoadFloat_@3
$LN83@LoadFloat_@3:
  00205	88 4d ed	 mov	 BYTE PTR __k$[ebp+13], cl
  00208	eb 48		 jmp	 SHORT $LN1@LoadFloat_@3
$LN84@LoadFloat_@3:
  0020a	c6 45 ec ed	 mov	 BYTE PTR __k$[ebp+12], -19 ; ffffffedH
  0020e	eb 42		 jmp	 SHORT $LN1@LoadFloat_@3
$LN85@LoadFloat_@3:
  00210	88 5d eb	 mov	 BYTE PTR __k$[ebp+11], bl
  00213	eb 3d		 jmp	 SHORT $LN1@LoadFloat_@3
$LN86@LoadFloat_@3:
  00215	c6 45 ea eb	 mov	 BYTE PTR __k$[ebp+10], -21 ; ffffffebH
  00219	eb 37		 jmp	 SHORT $LN1@LoadFloat_@3
$LN87@LoadFloat_@3:
  0021b	88 4d e9	 mov	 BYTE PTR __k$[ebp+9], cl
  0021e	eb 32		 jmp	 SHORT $LN1@LoadFloat_@3
$LN88@LoadFloat_@3:
  00220	c6 45 e8 ed	 mov	 BYTE PTR __k$[ebp+8], -19 ; ffffffedH
  00224	eb 2c		 jmp	 SHORT $LN1@LoadFloat_@3
$LN89@LoadFloat_@3:
  00226	88 5d e7	 mov	 BYTE PTR __k$[ebp+7], bl
  00229	eb 27		 jmp	 SHORT $LN1@LoadFloat_@3
$LN90@LoadFloat_@3:
  0022b	c6 45 e6 eb	 mov	 BYTE PTR __k$[ebp+6], -21 ; ffffffebH
  0022f	eb 21		 jmp	 SHORT $LN1@LoadFloat_@3
$LN91@LoadFloat_@3:
  00231	88 4d e5	 mov	 BYTE PTR __k$[ebp+5], cl
  00234	eb 1c		 jmp	 SHORT $LN1@LoadFloat_@3
$LN92@LoadFloat_@3:
  00236	c6 45 e4 ed	 mov	 BYTE PTR __k$[ebp+4], -19 ; ffffffedH
  0023a	eb 16		 jmp	 SHORT $LN1@LoadFloat_@3
$LN93@LoadFloat_@3:
  0023c	c6 45 e3 ea	 mov	 BYTE PTR __k$[ebp+3], -22 ; ffffffeaH
  00240	eb 10		 jmp	 SHORT $LN1@LoadFloat_@3
$LN94@LoadFloat_@3:
  00242	c6 45 e2 eb	 mov	 BYTE PTR __k$[ebp+2], -21 ; ffffffebH
  00246	eb 0a		 jmp	 SHORT $LN1@LoadFloat_@3
$LN95@LoadFloat_@3:
  00248	c6 45 e1 ec	 mov	 BYTE PTR __k$[ebp+1], -20 ; ffffffecH
  0024c	eb 04		 jmp	 SHORT $LN1@LoadFloat_@3
$LN96@LoadFloat_@3:
  0024e	c6 45 e0 ed	 mov	 BYTE PTR __k$[ebp], -19	; ffffffedH
$LN1@LoadFloat_@3:
  00252	6a 05		 push	 5
  00254	8d 45 e0	 lea	 eax, DWORD PTR __k$[ebp]
  00257	c6 45 f6 00	 mov	 BYTE PTR __k$[ebp+22], 0
  0025b	5a		 pop	 edx
$LL104@LoadFloat_@3:
  0025c	81 30 ed ec eb
	ea		 xor	 DWORD PTR [eax], -353637139 ; eaebecedH
  00262	83 c0 04	 add	 eax, 4
  00265	4a		 dec	 edx
  00266	75 f4		 jne	 SHORT $LL104@LoadFloat_@3
  00268	6a 14		 push	 20			; 00000014H
  0026a	58		 pop	 eax
$LL101@LoadFloat_@3:
  0026b	8b c8		 mov	 ecx, eax
  0026d	81 e1 03 00 00
	80		 and	 ecx, -2147483645	; 80000003H
  00273	79 05		 jns	 SHORT $LN111@LoadFloat_@3
  00275	49		 dec	 ecx
  00276	83 c9 fc	 or	 ecx, -4			; fffffffcH
  00279	41		 inc	 ecx
$LN111@LoadFloat_@3:
  0027a	b2 ed		 mov	 dl, -19			; ffffffedH
  0027c	2a d1		 sub	 dl, cl
  0027e	30 54 05 e0	 xor	 BYTE PTR __k$[ebp+eax], dl
  00282	40		 inc	 eax
  00283	83 f8 16	 cmp	 eax, 22			; 00000016H
  00286	7c e3		 jl	 SHORT $LL101@LoadFloat_@3

; 137  : 		return LoadFloat(_k, f);

  00288	f3 0f 10 45 0c	 movss	 xmm0, DWORD PTR _f$[ebp]
  0028d	51		 push	 ecx
  0028e	8d 45 e0	 lea	 eax, DWORD PTR __k$[ebp]
  00291	f3 0f 11 04 24	 movss	 DWORD PTR [esp], xmm0
  00296	50		 push	 eax
  00297	8b ce		 mov	 ecx, esi
  00299	ff 15 00 00 00
	00		 call	 DWORD PTR __imp_?LoadFloat@ioINILoader@@QAEMPBDM@Z

; 138  : 	}

  0029f	8b 4d fc	 mov	 ecx, DWORD PTR __$ArrayPad$[ebp]
  002a2	5e		 pop	 esi
  002a3	33 cd		 xor	 ecx, ebp
  002a5	5b		 pop	 ebx
  002a6	e8 00 00 00 00	 call	 @__security_check_cookie@4
  002ab	c9		 leave
  002ac	c2 08 00	 ret	 8
??$LoadFloat_e@$0BH@@ioINILoader@@QAEMAAY0BH@$$CBDM@Z ENDP ; ioINILoader::LoadFloat_e<23>
_TEXT	ENDS
PUBLIC	__$ArrayPad$
PUBLIC	??$LoadFloat_e@$0BL@@ioINILoader@@QAEMAAY0BL@$$CBDM@Z ; ioINILoader::LoadFloat_e<27>
; Function compile flags: /Ogsp
;	COMDAT ??$LoadFloat_e@$0BL@@ioINILoader@@QAEMAAY0BL@$$CBDM@Z
_TEXT	SEGMENT
__k$ = -36						; size = 27
__$ArrayPad$ = -4					; size = 4
_k$ = 8							; size = 4
_f$ = 12						; size = 4
??$LoadFloat_e@$0BL@@ioINILoader@@QAEMAAY0BL@$$CBDM@Z PROC ; ioINILoader::LoadFloat_e<27>, COMDAT
; _this$ = ecx

; 135  : 	{

  00000	55		 push	 ebp
  00001	8b ec		 mov	 ebp, esp
  00003	83 ec 24	 sub	 esp, 36			; 00000024H
  00006	a1 00 00 00 00	 mov	 eax, DWORD PTR ___security_cookie
  0000b	33 c5		 xor	 eax, ebp
  0000d	89 45 fc	 mov	 DWORD PTR __$ArrayPad$[ebp], eax
  00010	8b 45 08	 mov	 eax, DWORD PTR _k$[ebp]

; 136  : 		_ENCSTR(k, _k);

  00013	8a 10		 mov	 dl, BYTE PTR [eax]
  00015	53		 push	 ebx
  00016	56		 push	 esi
  00017	8b f1		 mov	 esi, ecx
  00019	84 d2		 test	 dl, dl
  0001b	0f 84 91 02 00
	00		 je	 $LN96@LoadFloat_@4
  00021	80 f2 ed	 xor	 dl, -19			; ffffffedH
  00024	88 55 dc	 mov	 BYTE PTR __k$[ebp], dl
  00027	8a 50 01	 mov	 dl, BYTE PTR [eax+1]
  0002a	84 d2		 test	 dl, dl
  0002c	0f 84 7a 02 00
	00		 je	 $LN95@LoadFloat_@4
  00032	b1 ec		 mov	 cl, -20			; ffffffecH
  00034	32 d1		 xor	 dl, cl
  00036	88 55 dd	 mov	 BYTE PTR __k$[ebp+1], dl
  00039	8a 50 02	 mov	 dl, BYTE PTR [eax+2]
  0003c	84 d2		 test	 dl, dl
  0003e	0f 84 62 02 00
	00		 je	 $LN94@LoadFloat_@4
  00044	80 f2 eb	 xor	 dl, -21			; ffffffebH
  00047	88 55 de	 mov	 BYTE PTR __k$[ebp+2], dl
  0004a	8a 50 03	 mov	 dl, BYTE PTR [eax+3]
  0004d	84 d2		 test	 dl, dl
  0004f	0f 84 4b 02 00
	00		 je	 $LN93@LoadFloat_@4
  00055	b3 ea		 mov	 bl, -22			; ffffffeaH
  00057	32 d3		 xor	 dl, bl
  00059	88 55 df	 mov	 BYTE PTR __k$[ebp+3], dl
  0005c	8a 50 04	 mov	 dl, BYTE PTR [eax+4]
  0005f	84 d2		 test	 dl, dl
  00061	0f 84 33 02 00
	00		 je	 $LN92@LoadFloat_@4
  00067	80 f2 ed	 xor	 dl, -19			; ffffffedH
  0006a	88 55 e0	 mov	 BYTE PTR __k$[ebp+4], dl
  0006d	8a 50 05	 mov	 dl, BYTE PTR [eax+5]
  00070	84 d2		 test	 dl, dl
  00072	0f 84 1d 02 00
	00		 je	 $LN91@LoadFloat_@4
  00078	32 d1		 xor	 dl, cl
  0007a	88 55 e1	 mov	 BYTE PTR __k$[ebp+5], dl
  0007d	8a 50 06	 mov	 dl, BYTE PTR [eax+6]
  00080	84 d2		 test	 dl, dl
  00082	0f 84 07 02 00
	00		 je	 $LN90@LoadFloat_@4
  00088	80 f2 eb	 xor	 dl, -21			; ffffffebH
  0008b	88 55 e2	 mov	 BYTE PTR __k$[ebp+6], dl
  0008e	8a 50 07	 mov	 dl, BYTE PTR [eax+7]
  00091	84 d2		 test	 dl, dl
  00093	0f 84 f1 01 00
	00		 je	 $LN89@LoadFloat_@4
  00099	32 d3		 xor	 dl, bl
  0009b	88 55 e3	 mov	 BYTE PTR __k$[ebp+7], dl
  0009e	8a 50 08	 mov	 dl, BYTE PTR [eax+8]
  000a1	84 d2		 test	 dl, dl
  000a3	0f 84 db 01 00
	00		 je	 $LN88@LoadFloat_@4
  000a9	80 f2 ed	 xor	 dl, -19			; ffffffedH
  000ac	88 55 e4	 mov	 BYTE PTR __k$[ebp+8], dl
  000af	8a 50 09	 mov	 dl, BYTE PTR [eax+9]
  000b2	84 d2		 test	 dl, dl
  000b4	0f 84 c5 01 00
	00		 je	 $LN87@LoadFloat_@4
  000ba	32 d1		 xor	 dl, cl
  000bc	88 55 e5	 mov	 BYTE PTR __k$[ebp+9], dl
  000bf	8a 50 0a	 mov	 dl, BYTE PTR [eax+10]
  000c2	84 d2		 test	 dl, dl
  000c4	0f 84 af 01 00
	00		 je	 $LN86@LoadFloat_@4
  000ca	80 f2 eb	 xor	 dl, -21			; ffffffebH
  000cd	88 55 e6	 mov	 BYTE PTR __k$[ebp+10], dl
  000d0	8a 50 0b	 mov	 dl, BYTE PTR [eax+11]
  000d3	84 d2		 test	 dl, dl
  000d5	0f 84 99 01 00
	00		 je	 $LN85@LoadFloat_@4
  000db	32 d3		 xor	 dl, bl
  000dd	88 55 e7	 mov	 BYTE PTR __k$[ebp+11], dl
  000e0	8a 50 0c	 mov	 dl, BYTE PTR [eax+12]
  000e3	84 d2		 test	 dl, dl
  000e5	0f 84 83 01 00
	00		 je	 $LN84@LoadFloat_@4
  000eb	80 f2 ed	 xor	 dl, -19			; ffffffedH
  000ee	88 55 e8	 mov	 BYTE PTR __k$[ebp+12], dl
  000f1	8a 50 0d	 mov	 dl, BYTE PTR [eax+13]
  000f4	84 d2		 test	 dl, dl
  000f6	0f 84 6d 01 00
	00		 je	 $LN83@LoadFloat_@4
  000fc	32 d1		 xor	 dl, cl
  000fe	88 55 e9	 mov	 BYTE PTR __k$[ebp+13], dl
  00101	8a 50 0e	 mov	 dl, BYTE PTR [eax+14]
  00104	84 d2		 test	 dl, dl
  00106	0f 84 57 01 00
	00		 je	 $LN82@LoadFloat_@4
  0010c	80 f2 eb	 xor	 dl, -21			; ffffffebH
  0010f	88 55 ea	 mov	 BYTE PTR __k$[ebp+14], dl
  00112	8a 50 0f	 mov	 dl, BYTE PTR [eax+15]
  00115	84 d2		 test	 dl, dl
  00117	0f 84 41 01 00
	00		 je	 $LN81@LoadFloat_@4
  0011d	32 d3		 xor	 dl, bl
  0011f	88 55 eb	 mov	 BYTE PTR __k$[ebp+15], dl
  00122	8a 50 10	 mov	 dl, BYTE PTR [eax+16]
  00125	84 d2		 test	 dl, dl
  00127	0f 84 2b 01 00
	00		 je	 $LN80@LoadFloat_@4
  0012d	80 f2 ed	 xor	 dl, -19			; ffffffedH
  00130	88 55 ec	 mov	 BYTE PTR __k$[ebp+16], dl
  00133	8a 50 11	 mov	 dl, BYTE PTR [eax+17]
  00136	84 d2		 test	 dl, dl
  00138	0f 84 15 01 00
	00		 je	 $LN79@LoadFloat_@4
  0013e	32 d1		 xor	 dl, cl
  00140	88 55 ed	 mov	 BYTE PTR __k$[ebp+17], dl
  00143	8a 50 12	 mov	 dl, BYTE PTR [eax+18]
  00146	84 d2		 test	 dl, dl
  00148	0f 84 ff 00 00
	00		 je	 $LN78@LoadFloat_@4
  0014e	80 f2 eb	 xor	 dl, -21			; ffffffebH
  00151	88 55 ee	 mov	 BYTE PTR __k$[ebp+18], dl
  00154	8a 50 13	 mov	 dl, BYTE PTR [eax+19]
  00157	84 d2		 test	 dl, dl
  00159	0f 84 e9 00 00
	00		 je	 $LN77@LoadFloat_@4
  0015f	32 d3		 xor	 dl, bl
  00161	88 55 ef	 mov	 BYTE PTR __k$[ebp+19], dl
  00164	8a 50 14	 mov	 dl, BYTE PTR [eax+20]
  00167	84 d2		 test	 dl, dl
  00169	0f 84 d3 00 00
	00		 je	 $LN76@LoadFloat_@4
  0016f	80 f2 ed	 xor	 dl, -19			; ffffffedH
  00172	88 55 f0	 mov	 BYTE PTR __k$[ebp+20], dl
  00175	8a 50 15	 mov	 dl, BYTE PTR [eax+21]
  00178	84 d2		 test	 dl, dl
  0017a	0f 84 bd 00 00
	00		 je	 $LN75@LoadFloat_@4
  00180	32 d1		 xor	 dl, cl
  00182	88 55 f1	 mov	 BYTE PTR __k$[ebp+21], dl
  00185	8a 50 16	 mov	 dl, BYTE PTR [eax+22]
  00188	84 d2		 test	 dl, dl
  0018a	0f 84 a7 00 00
	00		 je	 $LN74@LoadFloat_@4
  00190	80 f2 eb	 xor	 dl, -21			; ffffffebH
  00193	88 55 f2	 mov	 BYTE PTR __k$[ebp+22], dl
  00196	8a 50 17	 mov	 dl, BYTE PTR [eax+23]
  00199	84 d2		 test	 dl, dl
  0019b	0f 84 91 00 00
	00		 je	 $LN73@LoadFloat_@4
  001a1	32 d3		 xor	 dl, bl
  001a3	88 55 f3	 mov	 BYTE PTR __k$[ebp+23], dl
  001a6	8a 50 18	 mov	 dl, BYTE PTR [eax+24]
  001a9	84 d2		 test	 dl, dl
  001ab	74 7c		 je	 SHORT $LN72@LoadFloat_@4
  001ad	80 f2 ed	 xor	 dl, -19			; ffffffedH
  001b0	88 55 f4	 mov	 BYTE PTR __k$[ebp+24], dl
  001b3	8a 50 19	 mov	 dl, BYTE PTR [eax+25]
  001b6	84 d2		 test	 dl, dl
  001b8	74 67		 je	 SHORT $LN71@LoadFloat_@4
  001ba	32 d1		 xor	 dl, cl
  001bc	80 78 1a 00	 cmp	 BYTE PTR [eax+26], 0
  001c0	88 55 f5	 mov	 BYTE PTR __k$[ebp+25], dl
  001c3	0f 84 ed 00 00
	00		 je	 $LN1@LoadFloat_@4
  001c9	8a 50 1b	 mov	 dl, BYTE PTR [eax+27]
  001cc	84 d2		 test	 dl, dl
  001ce	74 49		 je	 SHORT $LN69@LoadFloat_@4
  001d0	32 d3		 xor	 dl, bl
  001d2	88 55 f7	 mov	 BYTE PTR __k$[ebp+27], dl
  001d5	8a 50 1c	 mov	 dl, BYTE PTR [eax+28]
  001d8	84 d2		 test	 dl, dl
  001da	74 34		 je	 SHORT $LN68@LoadFloat_@4
  001dc	80 f2 ed	 xor	 dl, -19			; ffffffedH
  001df	88 55 f8	 mov	 BYTE PTR __k$[ebp+28], dl
  001e2	8a 50 1d	 mov	 dl, BYTE PTR [eax+29]
  001e5	84 d2		 test	 dl, dl
  001e7	74 1f		 je	 SHORT $LN67@LoadFloat_@4
  001e9	8a 40 1e	 mov	 al, BYTE PTR [eax+30]
  001ec	32 d1		 xor	 dl, cl
  001ee	88 55 f9	 mov	 BYTE PTR __k$[ebp+29], dl
  001f1	84 c0		 test	 al, al
  001f3	74 0a		 je	 SHORT $LN66@LoadFloat_@4
  001f5	34 eb		 xor	 al, -21			; ffffffebH
  001f7	88 45 fa	 mov	 BYTE PTR __k$[ebp+30], al
  001fa	e9 b7 00 00 00	 jmp	 $LN1@LoadFloat_@4
$LN66@LoadFloat_@4:
  001ff	c6 45 fa eb	 mov	 BYTE PTR __k$[ebp+30], -21 ; ffffffebH
  00203	e9 ae 00 00 00	 jmp	 $LN1@LoadFloat_@4
$LN67@LoadFloat_@4:
  00208	88 4d f9	 mov	 BYTE PTR __k$[ebp+29], cl
  0020b	e9 a6 00 00 00	 jmp	 $LN1@LoadFloat_@4
$LN68@LoadFloat_@4:
  00210	c6 45 f8 ed	 mov	 BYTE PTR __k$[ebp+28], -19 ; ffffffedH
  00214	e9 9d 00 00 00	 jmp	 $LN1@LoadFloat_@4
$LN69@LoadFloat_@4:
  00219	88 5d f7	 mov	 BYTE PTR __k$[ebp+27], bl
  0021c	e9 95 00 00 00	 jmp	 $LN1@LoadFloat_@4
$LN71@LoadFloat_@4:
  00221	88 4d f5	 mov	 BYTE PTR __k$[ebp+25], cl
  00224	e9 8d 00 00 00	 jmp	 $LN1@LoadFloat_@4
$LN72@LoadFloat_@4:
  00229	c6 45 f4 ed	 mov	 BYTE PTR __k$[ebp+24], -19 ; ffffffedH
  0022d	e9 84 00 00 00	 jmp	 $LN1@LoadFloat_@4
$LN73@LoadFloat_@4:
  00232	88 5d f3	 mov	 BYTE PTR __k$[ebp+23], bl
  00235	eb 7f		 jmp	 SHORT $LN1@LoadFloat_@4
$LN74@LoadFloat_@4:
  00237	c6 45 f2 eb	 mov	 BYTE PTR __k$[ebp+22], -21 ; ffffffebH
  0023b	eb 79		 jmp	 SHORT $LN1@LoadFloat_@4
$LN75@LoadFloat_@4:
  0023d	88 4d f1	 mov	 BYTE PTR __k$[ebp+21], cl
  00240	eb 74		 jmp	 SHORT $LN1@LoadFloat_@4
$LN76@LoadFloat_@4:
  00242	c6 45 f0 ed	 mov	 BYTE PTR __k$[ebp+20], -19 ; ffffffedH
  00246	eb 6e		 jmp	 SHORT $LN1@LoadFloat_@4
$LN77@LoadFloat_@4:
  00248	88 5d ef	 mov	 BYTE PTR __k$[ebp+19], bl
  0024b	eb 69		 jmp	 SHORT $LN1@LoadFloat_@4
$LN78@LoadFloat_@4:
  0024d	c6 45 ee eb	 mov	 BYTE PTR __k$[ebp+18], -21 ; ffffffebH
  00251	eb 63		 jmp	 SHORT $LN1@LoadFloat_@4
$LN79@LoadFloat_@4:
  00253	88 4d ed	 mov	 BYTE PTR __k$[ebp+17], cl
  00256	eb 5e		 jmp	 SHORT $LN1@LoadFloat_@4
$LN80@LoadFloat_@4:
  00258	c6 45 ec ed	 mov	 BYTE PTR __k$[ebp+16], -19 ; ffffffedH
  0025c	eb 58		 jmp	 SHORT $LN1@LoadFloat_@4
$LN81@LoadFloat_@4:
  0025e	88 5d eb	 mov	 BYTE PTR __k$[ebp+15], bl
  00261	eb 53		 jmp	 SHORT $LN1@LoadFloat_@4
$LN82@LoadFloat_@4:
  00263	c6 45 ea eb	 mov	 BYTE PTR __k$[ebp+14], -21 ; ffffffebH
  00267	eb 4d		 jmp	 SHORT $LN1@LoadFloat_@4
$LN83@LoadFloat_@4:
  00269	88 4d e9	 mov	 BYTE PTR __k$[ebp+13], cl
  0026c	eb 48		 jmp	 SHORT $LN1@LoadFloat_@4
$LN84@LoadFloat_@4:
  0026e	c6 45 e8 ed	 mov	 BYTE PTR __k$[ebp+12], -19 ; ffffffedH
  00272	eb 42		 jmp	 SHORT $LN1@LoadFloat_@4
$LN85@LoadFloat_@4:
  00274	88 5d e7	 mov	 BYTE PTR __k$[ebp+11], bl
  00277	eb 3d		 jmp	 SHORT $LN1@LoadFloat_@4
$LN86@LoadFloat_@4:
  00279	c6 45 e6 eb	 mov	 BYTE PTR __k$[ebp+10], -21 ; ffffffebH
  0027d	eb 37		 jmp	 SHORT $LN1@LoadFloat_@4
$LN87@LoadFloat_@4:
  0027f	88 4d e5	 mov	 BYTE PTR __k$[ebp+9], cl
  00282	eb 32		 jmp	 SHORT $LN1@LoadFloat_@4
$LN88@LoadFloat_@4:
  00284	c6 45 e4 ed	 mov	 BYTE PTR __k$[ebp+8], -19 ; ffffffedH
  00288	eb 2c		 jmp	 SHORT $LN1@LoadFloat_@4
$LN89@LoadFloat_@4:
  0028a	88 5d e3	 mov	 BYTE PTR __k$[ebp+7], bl
  0028d	eb 27		 jmp	 SHORT $LN1@LoadFloat_@4
$LN90@LoadFloat_@4:
  0028f	c6 45 e2 eb	 mov	 BYTE PTR __k$[ebp+6], -21 ; ffffffebH
  00293	eb 21		 jmp	 SHORT $LN1@LoadFloat_@4
$LN91@LoadFloat_@4:
  00295	88 4d e1	 mov	 BYTE PTR __k$[ebp+5], cl
  00298	eb 1c		 jmp	 SHORT $LN1@LoadFloat_@4
$LN92@LoadFloat_@4:
  0029a	c6 45 e0 ed	 mov	 BYTE PTR __k$[ebp+4], -19 ; ffffffedH
  0029e	eb 16		 jmp	 SHORT $LN1@LoadFloat_@4
$LN93@LoadFloat_@4:
  002a0	c6 45 df ea	 mov	 BYTE PTR __k$[ebp+3], -22 ; ffffffeaH
  002a4	eb 10		 jmp	 SHORT $LN1@LoadFloat_@4
$LN94@LoadFloat_@4:
  002a6	c6 45 de eb	 mov	 BYTE PTR __k$[ebp+2], -21 ; ffffffebH
  002aa	eb 0a		 jmp	 SHORT $LN1@LoadFloat_@4
$LN95@LoadFloat_@4:
  002ac	c6 45 dd ec	 mov	 BYTE PTR __k$[ebp+1], -20 ; ffffffecH
  002b0	eb 04		 jmp	 SHORT $LN1@LoadFloat_@4
$LN96@LoadFloat_@4:
  002b2	c6 45 dc ed	 mov	 BYTE PTR __k$[ebp], -19	; ffffffedH
$LN1@LoadFloat_@4:
  002b6	6a 06		 push	 6
  002b8	8d 45 dc	 lea	 eax, DWORD PTR __k$[ebp]
  002bb	c6 45 f6 00	 mov	 BYTE PTR __k$[ebp+26], 0
  002bf	5a		 pop	 edx
$LL104@LoadFloat_@4:
  002c0	81 30 ed ec eb
	ea		 xor	 DWORD PTR [eax], -353637139 ; eaebecedH
  002c6	83 c0 04	 add	 eax, 4
  002c9	4a		 dec	 edx
  002ca	75 f4		 jne	 SHORT $LL104@LoadFloat_@4
  002cc	6a 18		 push	 24			; 00000018H
  002ce	58		 pop	 eax
$LL101@LoadFloat_@4:
  002cf	8b c8		 mov	 ecx, eax
  002d1	81 e1 03 00 00
	80		 and	 ecx, -2147483645	; 80000003H
  002d7	79 05		 jns	 SHORT $LN111@LoadFloat_@4
  002d9	49		 dec	 ecx
  002da	83 c9 fc	 or	 ecx, -4			; fffffffcH
  002dd	41		 inc	 ecx
$LN111@LoadFloat_@4:
  002de	b2 ed		 mov	 dl, -19			; ffffffedH
  002e0	2a d1		 sub	 dl, cl
  002e2	30 54 05 dc	 xor	 BYTE PTR __k$[ebp+eax], dl
  002e6	40		 inc	 eax
  002e7	83 f8 1a	 cmp	 eax, 26			; 0000001aH
  002ea	7c e3		 jl	 SHORT $LL101@LoadFloat_@4

; 137  : 		return LoadFloat(_k, f);

  002ec	f3 0f 10 45 0c	 movss	 xmm0, DWORD PTR _f$[ebp]
  002f1	51		 push	 ecx
  002f2	8d 45 dc	 lea	 eax, DWORD PTR __k$[ebp]
  002f5	f3 0f 11 04 24	 movss	 DWORD PTR [esp], xmm0
  002fa	50		 push	 eax
  002fb	8b ce		 mov	 ecx, esi
  002fd	ff 15 00 00 00
	00		 call	 DWORD PTR __imp_?LoadFloat@ioINILoader@@QAEMPBDM@Z

; 138  : 	}

  00303	8b 4d fc	 mov	 ecx, DWORD PTR __$ArrayPad$[ebp]
  00306	5e		 pop	 esi
  00307	33 cd		 xor	 ecx, ebp
  00309	5b		 pop	 ebx
  0030a	e8 00 00 00 00	 call	 @__security_check_cookie@4
  0030f	c9		 leave
  00310	c2 08 00	 ret	 8
??$LoadFloat_e@$0BL@@ioINILoader@@QAEMAAY0BL@$$CBDM@Z ENDP ; ioINILoader::LoadFloat_e<27>
_TEXT	ENDS
PUBLIC	??$_Copy_impl@PAUSwingParam@@PAU1@@std@@YAPAUSwingParam@@PAU1@00@Z ; std::_Copy_impl<SwingParam *,SwingParam *>
; Function compile flags: /Ogsp
; File c:\program files (x86)\microsoft visual studio 10.0\vc\include\xutility
;	COMDAT ??$_Copy_impl@PAUSwingParam@@PAU1@@std@@YAPAUSwingParam@@PAU1@00@Z
_TEXT	SEGMENT
__Cat$528823 = -4					; size = 1
__First$ = 8						; size = 4
__Last$ = 12						; size = 4
__Dest$ = 16						; size = 4
??$_Copy_impl@PAUSwingParam@@PAU1@@std@@YAPAUSwingParam@@PAU1@00@Z PROC ; std::_Copy_impl<SwingParam *,SwingParam *>, COMDAT

; 2163 : 	{	// copy [_First, _Last) to [_Dest, ...)

  00000	55		 push	 ebp
  00001	8b ec		 mov	 ebp, esp
  00003	51		 push	 ecx

; 2164 : 	return (_Copy_impl(_First, _Last,
; 2165 : 		_Dest, _Ptr_cat(_First, _Dest)));

  00004	ff 75 fc	 push	 DWORD PTR __Cat$528823[ebp]
  00007	ff 75 10	 push	 DWORD PTR __Dest$[ebp]
  0000a	ff 75 0c	 push	 DWORD PTR __Last$[ebp]
  0000d	ff 75 08	 push	 DWORD PTR __First$[ebp]
  00010	e8 00 00 00 00	 call	 ??$_Copy_impl@PAUSwingParam@@PAU1@@std@@YAPAUSwingParam@@PAU1@00U_Nonscalar_ptr_iterator_tag@0@@Z ; std::_Copy_impl<SwingParam *,SwingParam *>
  00015	83 c4 10	 add	 esp, 16			; 00000010H

; 2166 : 	}

  00018	c9		 leave
  00019	c3		 ret	 0
??$_Copy_impl@PAUSwingParam@@PAU1@@std@@YAPAUSwingParam@@PAU1@00@Z ENDP ; std::_Copy_impl<SwingParam *,SwingParam *>
_TEXT	ENDS
PUBLIC	??$_Cons_val@V?$allocator@USwingParam@@@std@@USwingParam@@AAU3@@std@@YAXAAV?$allocator@USwingParam@@@0@PAUSwingParam@@AAU2@@Z ; std::_Cons_val<std::allocator<SwingParam>,SwingParam,SwingParam &>
; Function compile flags: /Ogsp
; File c:\program files (x86)\microsoft visual studio 10.0\vc\include\xmemory
;	COMDAT ??$_Cons_val@V?$allocator@USwingParam@@@std@@USwingParam@@AAU3@@std@@YAXAAV?$allocator@USwingParam@@@0@PAUSwingParam@@AAU2@@Z
_TEXT	SEGMENT
__Alval$ = 8						; size = 4
__Pdest$ = 12						; size = 4
__Src$ = 16						; size = 4
??$_Cons_val@V?$allocator@USwingParam@@@std@@USwingParam@@AAU3@@std@@YAXAAV?$allocator@USwingParam@@@0@PAUSwingParam@@AAU2@@Z PROC ; std::_Cons_val<std::allocator<SwingParam>,SwingParam,SwingParam &>, COMDAT

; 279  : 	{	// construct using allocator

  00000	55		 push	 ebp
  00001	8b ec		 mov	 ebp, esp
  00003	57		 push	 edi

; 280  : 	_Alval.construct(_Pdest, _STD forward<_Ty2>(_Src));

  00004	8b 7d 0c	 mov	 edi, DWORD PTR __Pdest$[ebp]
  00007	85 ff		 test	 edi, edi
  00009	74 09		 je	 SHORT $LN7@Cons_val
  0000b	56		 push	 esi
  0000c	8b 75 10	 mov	 esi, DWORD PTR __Src$[ebp]
  0000f	a5		 movsd
  00010	a5		 movsd
  00011	a5		 movsd
  00012	a5		 movsd
  00013	5e		 pop	 esi
$LN7@Cons_val:
  00014	5f		 pop	 edi

; 281  : 	}

  00015	5d		 pop	 ebp
  00016	c3		 ret	 0
??$_Cons_val@V?$allocator@USwingParam@@@std@@USwingParam@@AAU3@@std@@YAXAAV?$allocator@USwingParam@@@0@PAUSwingParam@@AAU2@@Z ENDP ; std::_Cons_val<std::allocator<SwingParam>,SwingParam,SwingParam &>
_TEXT	ENDS
PUBLIC	?construct@?$allocator@USwingParam@@@std@@QAEXPAUSwingParam@@ABU3@@Z ; std::allocator<SwingParam>::construct
; Function compile flags: /Ogsp
;	COMDAT ?construct@?$allocator@USwingParam@@@std@@QAEXPAUSwingParam@@ABU3@@Z
_TEXT	SEGMENT
__Ptr$ = 8						; size = 4
__Val$ = 12						; size = 4
?construct@?$allocator@USwingParam@@@std@@QAEXPAUSwingParam@@ABU3@@Z PROC ; std::allocator<SwingParam>::construct, COMDAT
; _this$ = ecx

; 196  : 		{	// construct object at _Ptr with value _Val

  00000	55		 push	 ebp
  00001	8b ec		 mov	 ebp, esp
  00003	57		 push	 edi

; 197  : 		_Construct(_Ptr, _Val);

  00004	8b 7d 08	 mov	 edi, DWORD PTR __Ptr$[ebp]
  00007	85 ff		 test	 edi, edi
  00009	74 09		 je	 SHORT $LN5@construct@2
  0000b	56		 push	 esi
  0000c	8b 75 0c	 mov	 esi, DWORD PTR __Val$[ebp]
  0000f	a5		 movsd
  00010	a5		 movsd
  00011	a5		 movsd
  00012	a5		 movsd
  00013	5e		 pop	 esi
$LN5@construct@2:
  00014	5f		 pop	 edi

; 198  : 		}

  00015	5d		 pop	 ebp
  00016	c2 08 00	 ret	 8
?construct@?$allocator@USwingParam@@@std@@QAEXPAUSwingParam@@ABU3@@Z ENDP ; std::allocator<SwingParam>::construct
_TEXT	ENDS
PUBLIC	?max_size@?$_Tree@V?$_Tmap_traits@KVioHashString@@U?$less@K@std@@V?$allocator@U?$pair@$$CBKVioHashString@@@std@@@3@$0A@@std@@@std@@QBEIXZ ; std::_Tree<std::_Tmap_traits<unsigned long,ioHashString,std::less<unsigned long>,std::allocator<std::pair<unsigned long const ,ioHashString> >,0> >::max_size
; Function compile flags: /Ogsp
; File c:\program files (x86)\microsoft visual studio 10.0\vc\include\xtree
;	COMDAT ?max_size@?$_Tree@V?$_Tmap_traits@KVioHashString@@U?$less@K@std@@V?$allocator@U?$pair@$$CBKVioHashString@@@std@@@3@$0A@@std@@@std@@QBEIXZ
_TEXT	SEGMENT
?max_size@?$_Tree@V?$_Tmap_traits@KVioHashString@@U?$less@K@std@@V?$allocator@U?$pair@$$CBKVioHashString@@@std@@@3@$0A@@std@@@std@@QBEIXZ PROC ; std::_Tree<std::_Tmap_traits<unsigned long,ioHashString,std::less<unsigned long>,std::allocator<std::pair<unsigned long const ,ioHashString> >,0> >::max_size, COMDAT
; _this$ = ecx

; 874  : 		return (this->_Alval.max_size());

  00000	b8 cc cc cc 0c	 mov	 eax, 214748364		; 0cccccccH

; 875  : 		}

  00005	c3		 ret	 0
?max_size@?$_Tree@V?$_Tmap_traits@KVioHashString@@U?$less@K@std@@V?$allocator@U?$pair@$$CBKVioHashString@@@std@@@3@$0A@@std@@@std@@QBEIXZ ENDP ; std::_Tree<std::_Tmap_traits<unsigned long,ioHashString,std::less<unsigned long>,std::allocator<std::pair<unsigned long const ,ioHashString> >,0> >::max_size
_TEXT	ENDS
PUBLIC	??0?$_Pair_base@V?$_Tree_iterator@V?$_Tree_val@V?$_Tmap_traits@KVioHashString@@U?$less@K@std@@V?$allocator@U?$pair@$$CBKVioHashString@@@std@@@3@$0A@@std@@@std@@@std@@_N@std@@QAE@$$QAV?$_Tree_iterator@V?$_Tree_val@V?$_Tmap_traits@KVioHashString@@U?$less@K@std@@V?$allocator@U?$pair@$$CBKVioHashString@@@std@@@3@$0A@@std@@@std@@@1@$$QA_N@Z ; std::_Pair_base<std::_Tree_iterator<std::_Tree_val<std::_Tmap_traits<unsigned long,ioHashString,std::less<unsigned long>,std::allocator<std::pair<unsigned long const ,ioHashString> >,0> > >,bool>::_Pair_base<std::_Tree_iterator<std::_Tree_val<std::_Tmap_traits<unsigned long,ioHashString,std::less<unsigned long>,std::allocator<std::pair<unsigned long const ,ioHashString> >,0> > >,bool>
; Function compile flags: /Ogsp
; File c:\program files (x86)\microsoft visual studio 10.0\vc\include\utility
;	COMDAT ??0?$_Pair_base@V?$_Tree_iterator@V?$_Tree_val@V?$_Tmap_traits@KVioHashString@@U?$less@K@std@@V?$allocator@U?$pair@$$CBKVioHashString@@@std@@@3@$0A@@std@@@std@@@std@@_N@std@@QAE@$$QAV?$_Tree_iterator@V?$_Tree_val@V?$_Tmap_traits@KVioHashString@@U?$less@K@std@@V?$allocator@U?$pair@$$CBKVioHashString@@@std@@@3@$0A@@std@@@std@@@1@$$QA_N@Z
_TEXT	SEGMENT
__Val1$ = 8						; size = 4
__Val2$ = 12						; size = 4
??0?$_Pair_base@V?$_Tree_iterator@V?$_Tree_val@V?$_Tmap_traits@KVioHashString@@U?$less@K@std@@V?$allocator@U?$pair@$$CBKVioHashString@@@std@@@3@$0A@@std@@@std@@@std@@_N@std@@QAE@$$QAV?$_Tree_iterator@V?$_Tree_val@V?$_Tmap_traits@KVioHashString@@U?$less@K@std@@V?$allocator@U?$pair@$$CBKVioHashString@@@std@@@3@$0A@@std@@@std@@@1@$$QA_N@Z PROC ; std::_Pair_base<std::_Tree_iterator<std::_Tree_val<std::_Tmap_traits<unsigned long,ioHashString,std::less<unsigned long>,std::allocator<std::pair<unsigned long const ,ioHashString> >,0> > >,bool>::_Pair_base<std::_Tree_iterator<std::_Tree_val<std::_Tmap_traits<unsigned long,ioHashString,std::less<unsigned long>,std::allocator<std::pair<unsigned long const ,ioHashString> >,0> > >,bool>, COMDAT
; _this$ = ecx

; 145  : 		{	// construct from specified values

  00000	55		 push	 ebp
  00001	8b ec		 mov	 ebp, esp
  00003	8b c1		 mov	 eax, ecx
  00005	8b 4d 08	 mov	 ecx, DWORD PTR __Val1$[ebp]
  00008	8b 09		 mov	 ecx, DWORD PTR [ecx]
  0000a	89 08		 mov	 DWORD PTR [eax], ecx
  0000c	8b 4d 0c	 mov	 ecx, DWORD PTR __Val2$[ebp]
  0000f	8a 09		 mov	 cl, BYTE PTR [ecx]
  00011	88 48 04	 mov	 BYTE PTR [eax+4], cl

; 146  : 		}

  00014	5d		 pop	 ebp
  00015	c2 08 00	 ret	 8
??0?$_Pair_base@V?$_Tree_iterator@V?$_Tree_val@V?$_Tmap_traits@KVioHashString@@U?$less@K@std@@V?$allocator@U?$pair@$$CBKVioHashString@@@std@@@3@$0A@@std@@@std@@@std@@_N@std@@QAE@$$QAV?$_Tree_iterator@V?$_Tree_val@V?$_Tmap_traits@KVioHashString@@U?$less@K@std@@V?$allocator@U?$pair@$$CBKVioHashString@@@std@@@3@$0A@@std@@@std@@@1@$$QA_N@Z ENDP ; std::_Pair_base<std::_Tree_iterator<std::_Tree_val<std::_Tmap_traits<unsigned long,ioHashString,std::less<unsigned long>,std::allocator<std::pair<unsigned long const ,ioHashString> >,0> > >,bool>::_Pair_base<std::_Tree_iterator<std::_Tree_val<std::_Tmap_traits<unsigned long,ioHashString,std::less<unsigned long>,std::allocator<std::pair<unsigned long const ,ioHashString> >,0> > >,bool>
_TEXT	ENDS
PUBLIC	??F?$_Tree_const_iterator@V?$_Tree_val@V?$_Tmap_traits@KVioHashString@@U?$less@K@std@@V?$allocator@U?$pair@$$CBKVioHashString@@@std@@@3@$0A@@std@@@std@@@std@@QAEAAV01@XZ ; std::_Tree_const_iterator<std::_Tree_val<std::_Tmap_traits<unsigned long,ioHashString,std::less<unsigned long>,std::allocator<std::pair<unsigned long const ,ioHashString> >,0> > >::operator--
; Function compile flags: /Ogsp
; File c:\program files (x86)\microsoft visual studio 10.0\vc\include\xtree
;	COMDAT ??F?$_Tree_const_iterator@V?$_Tree_val@V?$_Tmap_traits@KVioHashString@@U?$less@K@std@@V?$allocator@U?$pair@$$CBKVioHashString@@@std@@@3@$0A@@std@@@std@@@std@@QAEAAV01@XZ
_TEXT	SEGMENT
??F?$_Tree_const_iterator@V?$_Tree_val@V?$_Tmap_traits@KVioHashString@@U?$less@K@std@@V?$allocator@U?$pair@$$CBKVioHashString@@@std@@@3@$0A@@std@@@std@@@std@@QAEAAV01@XZ PROC ; std::_Tree_const_iterator<std::_Tree_val<std::_Tmap_traits<unsigned long,ioHashString,std::less<unsigned long>,std::allocator<std::pair<unsigned long const ,ioHashString> >,0> > >::operator--, COMDAT
; _this$ = ecx

; 277  : 		{	// predecrement

  00000	56		 push	 esi
  00001	8b f1		 mov	 esi, ecx

; 278  :  #if _ITERATOR_DEBUG_LEVEL == 2
; 279  : 		if (this->_Getcont() == 0
; 280  : 			|| this->_Ptr == 0)
; 281  : 			{	// report error
; 282  : 			_DEBUG_ERROR("map/set iterator not decrementable");
; 283  : 			_SCL_SECURE_OUT_OF_RANGE;
; 284  : 			}
; 285  : 
; 286  : 		_Nodeptr _Ptrsav = this->_Ptr;
; 287  : 		--(*(_Mybase *)this);
; 288  : 		if (_Ptrsav == this->_Ptr)
; 289  : 			{	// report error
; 290  : 			_DEBUG_ERROR("map/set iterator not decrementable");
; 291  : 			_SCL_SECURE_OUT_OF_RANGE;
; 292  : 			}
; 293  : 
; 294  :  #elif _ITERATOR_DEBUG_LEVEL == 1
; 295  : 		_SCL_SECURE_VALIDATE(this->_Getcont() != 0 && this->_Ptr != 0);
; 296  : 
; 297  : 		_Nodeptr _Ptrsav = this->_Ptr;
; 298  : 		--(*(_Mybase *)this);
; 299  : 		_SCL_SECURE_VALIDATE(_Ptrsav != this->_Ptr);
; 300  : 
; 301  :  #else /* _ITERATOR_DEBUG_LEVEL == 0 */
; 302  : 		--(*(_Mybase *)this);

  00003	e8 00 00 00 00	 call	 ??F?$_Tree_unchecked_const_iterator@V?$_Tree_val@V?$_Tmap_traits@KVioHashString@@U?$less@K@std@@V?$allocator@U?$pair@$$CBKVioHashString@@@std@@@3@$0A@@std@@@std@@U_Iterator_base0@2@@std@@QAEAAV01@XZ ; std::_Tree_unchecked_const_iterator<std::_Tree_val<std::_Tmap_traits<unsigned long,ioHashString,std::less<unsigned long>,std::allocator<std::pair<unsigned long const ,ioHashString> >,0> >,std::_Iterator_base0>::operator--

; 303  :  #endif /* _ITERATOR_DEBUG_LEVEL */
; 304  : 
; 305  : 		return (*this);

  00008	8b c6		 mov	 eax, esi
  0000a	5e		 pop	 esi

; 306  : 		}

  0000b	c3		 ret	 0
??F?$_Tree_const_iterator@V?$_Tree_val@V?$_Tmap_traits@KVioHashString@@U?$less@K@std@@V?$allocator@U?$pair@$$CBKVioHashString@@@std@@@3@$0A@@std@@@std@@@std@@QAEAAV01@XZ ENDP ; std::_Tree_const_iterator<std::_Tree_val<std::_Tmap_traits<unsigned long,ioHashString,std::less<unsigned long>,std::allocator<std::pair<unsigned long const ,ioHashString> >,0> > >::operator--
_TEXT	ENDS
PUBLIC	??$?0AAHAAY0BAE@D@?$_Pair_base@$$CBKVioHashString@@@std@@QAE@AAHAAY0BAE@D@Z ; std::_Pair_base<unsigned long const ,ioHashString>::_Pair_base<unsigned long const ,ioHashString><int &,char (&)[260]>
EXTRN	__imp_??0ioHashString@@QAE@PBD@Z:PROC
; Function compile flags: /Ogsp
; File c:\program files (x86)\microsoft visual studio 10.0\vc\include\utility
;	COMDAT ??$?0AAHAAY0BAE@D@?$_Pair_base@$$CBKVioHashString@@@std@@QAE@AAHAAY0BAE@D@Z
_TEXT	SEGMENT
__Val1$ = 8						; size = 4
__Val2$ = 12						; size = 4
??$?0AAHAAY0BAE@D@?$_Pair_base@$$CBKVioHashString@@@std@@QAE@AAHAAY0BAE@D@Z PROC ; std::_Pair_base<unsigned long const ,ioHashString>::_Pair_base<unsigned long const ,ioHashString><int &,char (&)[260]>, COMDAT
; _this$ = ecx

; 163  : 		{	// construct from moved values

  00000	55		 push	 ebp
  00001	8b ec		 mov	 ebp, esp
  00003	8b 45 08	 mov	 eax, DWORD PTR __Val1$[ebp]
  00006	8b 00		 mov	 eax, DWORD PTR [eax]
  00008	56		 push	 esi
  00009	ff 75 0c	 push	 DWORD PTR __Val2$[ebp]
  0000c	8b f1		 mov	 esi, ecx
  0000e	8d 4e 04	 lea	 ecx, DWORD PTR [esi+4]
  00011	89 06		 mov	 DWORD PTR [esi], eax
  00013	ff 15 00 00 00
	00		 call	 DWORD PTR __imp_??0ioHashString@@QAE@PBD@Z

; 164  : 		}

  00019	8b c6		 mov	 eax, esi
  0001b	5e		 pop	 esi
  0001c	5d		 pop	 ebp
  0001d	c2 08 00	 ret	 8
??$?0AAHAAY0BAE@D@?$_Pair_base@$$CBKVioHashString@@@std@@QAE@AAHAAY0BAE@D@Z ENDP ; std::_Pair_base<unsigned long const ,ioHashString>::_Pair_base<unsigned long const ,ioHashString><int &,char (&)[260]>
_TEXT	ENDS
PUBLIC	??$_Move@PAUSwingParam@@PAU1@@std@@YAPAUSwingParam@@PAU1@00U_Nonscalar_ptr_iterator_tag@0@@Z ; std::_Move<SwingParam *,SwingParam *>
; Function compile flags: /Ogsp
; File c:\program files (x86)\microsoft visual studio 10.0\vc\include\xutility
;	COMDAT ??$_Move@PAUSwingParam@@PAU1@@std@@YAPAUSwingParam@@PAU1@00U_Nonscalar_ptr_iterator_tag@0@@Z
_TEXT	SEGMENT
__First$ = 8						; size = 4
__Last$ = 12						; size = 4
__Dest$ = 16						; size = 4
___formal$ = 20						; size = 1
??$_Move@PAUSwingParam@@PAU1@@std@@YAPAUSwingParam@@PAU1@00U_Nonscalar_ptr_iterator_tag@0@@Z PROC ; std::_Move<SwingParam *,SwingParam *>, COMDAT

; 2512 : 	{	// move [_First, _Last) to [_Dest, ...), arbitrary iterators

  00000	55		 push	 ebp
  00001	8b ec		 mov	 ebp, esp

; 2513 : 	for (; _First != _Last; ++_Dest, ++_First)

  00003	8b 45 08	 mov	 eax, DWORD PTR __First$[ebp]
  00006	3b 45 0c	 cmp	 eax, DWORD PTR __Last$[ebp]
  00009	74 19		 je	 SHORT $LN10@Move
  0000b	56		 push	 esi
  0000c	57		 push	 edi
$LL3@Move:

; 2514 : 		*_Dest = _STD move(*_First);

  0000d	8b 7d 10	 mov	 edi, DWORD PTR __Dest$[ebp]
  00010	83 45 10 10	 add	 DWORD PTR __Dest$[ebp], 16 ; 00000010H
  00014	8b f0		 mov	 esi, eax
  00016	a5		 movsd
  00017	a5		 movsd
  00018	a5		 movsd
  00019	83 c0 10	 add	 eax, 16			; 00000010H
  0001c	a5		 movsd
  0001d	3b 45 0c	 cmp	 eax, DWORD PTR __Last$[ebp]
  00020	75 eb		 jne	 SHORT $LL3@Move
  00022	5f		 pop	 edi
  00023	5e		 pop	 esi
$LN10@Move:

; 2515 : 	return (_Dest);

  00024	8b 45 10	 mov	 eax, DWORD PTR __Dest$[ebp]

; 2516 : 	}

  00027	5d		 pop	 ebp
  00028	c3		 ret	 0
??$_Move@PAUSwingParam@@PAU1@@std@@YAPAUSwingParam@@PAU1@00U_Nonscalar_ptr_iterator_tag@0@@Z ENDP ; std::_Move<SwingParam *,SwingParam *>
_TEXT	ENDS
PUBLIC	??_G?$pair@$$CBKVioHashString@@@std@@QAEPAXI@Z	; std::pair<unsigned long const ,ioHashString>::`scalar deleting destructor'
; Function compile flags: /Ogsp
;	COMDAT ??_G?$pair@$$CBKVioHashString@@@std@@QAEPAXI@Z
_TEXT	SEGMENT
___flags$ = 8						; size = 4
??_G?$pair@$$CBKVioHashString@@@std@@QAEPAXI@Z PROC	; std::pair<unsigned long const ,ioHashString>::`scalar deleting destructor', COMDAT
; _this$ = ecx
  00000	55		 push	 ebp
  00001	8b ec		 mov	 ebp, esp
  00003	56		 push	 esi
  00004	8b f1		 mov	 esi, ecx
  00006	8d 4e 04	 lea	 ecx, DWORD PTR [esi+4]
  00009	ff 15 00 00 00
	00		 call	 DWORD PTR __imp_??1ioHashString@@QAE@XZ
  0000f	f6 45 08 01	 test	 BYTE PTR ___flags$[ebp], 1
  00013	74 07		 je	 SHORT $LN1@scalar@3
  00015	56		 push	 esi
  00016	e8 00 00 00 00	 call	 ??3@YAXPAX@Z		; operator delete
  0001b	59		 pop	 ecx
$LN1@scalar@3:
  0001c	8b c6		 mov	 eax, esi
  0001e	5e		 pop	 esi
  0001f	5d		 pop	 ebp
  00020	c2 04 00	 ret	 4
??_G?$pair@$$CBKVioHashString@@@std@@QAEPAXI@Z ENDP	; std::pair<unsigned long const ,ioHashString>::`scalar deleting destructor'
_TEXT	ENDS
PUBLIC	?_Buynode@?$_Tree_val@V?$_Tmap_traits@KVioHashString@@U?$less@K@std@@V?$allocator@U?$pair@$$CBKVioHashString@@@std@@@3@$0A@@std@@@std@@QAEPAU_Node@?$_Tree_nod@V?$_Tmap_traits@KVioHashString@@U?$less@K@std@@V?$allocator@U?$pair@$$CBKVioHashString@@@std@@@3@$0A@@std@@@2@XZ ; std::_Tree_val<std::_Tmap_traits<unsigned long,ioHashString,std::less<unsigned long>,std::allocator<std::pair<unsigned long const ,ioHashString> >,0> >::_Buynode
; Function compile flags: /Ogsp
; File c:\program files (x86)\microsoft visual studio 10.0\vc\include\xtree
;	COMDAT ?_Buynode@?$_Tree_val@V?$_Tmap_traits@KVioHashString@@U?$less@K@std@@V?$allocator@U?$pair@$$CBKVioHashString@@@std@@@3@$0A@@std@@@std@@QAEPAU_Node@?$_Tree_nod@V?$_Tmap_traits@KVioHashString@@U?$less@K@std@@V?$allocator@U?$pair@$$CBKVioHashString@@@std@@@3@$0A@@std@@@2@XZ
_TEXT	SEGMENT
$T528950 = -16						; size = 12
$T528933 = -4						; size = 4
?_Buynode@?$_Tree_val@V?$_Tmap_traits@KVioHashString@@U?$less@K@std@@V?$allocator@U?$pair@$$CBKVioHashString@@@std@@@3@$0A@@std@@@std@@QAEPAU_Node@?$_Tree_nod@V?$_Tmap_traits@KVioHashString@@U?$less@K@std@@V?$allocator@U?$pair@$$CBKVioHashString@@@std@@@3@$0A@@std@@@2@XZ PROC ; std::_Tree_val<std::_Tmap_traits<unsigned long,ioHashString,std::less<unsigned long>,std::allocator<std::pair<unsigned long const ,ioHashString> >,0> >::_Buynode, COMDAT
; _this$ = ecx

; 559  : 		{	// allocate a node

  00000	55		 push	 ebp
  00001	8b ec		 mov	 ebp, esp
  00003	83 ec 10	 sub	 esp, 16			; 00000010H
  00006	56		 push	 esi

; 560  : 		_Nodeptr _Wherenode = this->_Alnod.allocate(1);

  00007	6a 24		 push	 36			; 00000024H
  00009	8b f1		 mov	 esi, ecx
  0000b	e8 00 00 00 00	 call	 ??2@YAPAXI@Z		; operator new
  00010	59		 pop	 ecx
  00011	33 c9		 xor	 ecx, ecx
  00013	3b c1		 cmp	 eax, ecx
  00015	74 18		 je	 SHORT $LN5@Buynode

; 561  : 
; 562  : 		this->_Left(_Wherenode) = this->_Myhead;

  00017	8b 56 04	 mov	 edx, DWORD PTR [esi+4]
  0001a	89 10		 mov	 DWORD PTR [eax], edx

; 563  : 		this->_Parent(_Wherenode) = this->_Myhead;

  0001c	8b 56 04	 mov	 edx, DWORD PTR [esi+4]
  0001f	89 50 04	 mov	 DWORD PTR [eax+4], edx

; 564  : 		this->_Right(_Wherenode) = this->_Myhead;

  00022	8b 56 04	 mov	 edx, DWORD PTR [esi+4]
  00025	89 50 08	 mov	 DWORD PTR [eax+8], edx

; 565  : 		this->_Color(_Wherenode) = this->_Red;

  00028	66 89 48 20	 mov	 WORD PTR [eax+32], cx
  0002c	5e		 pop	 esi

; 566  : 		this->_Isnil(_Wherenode) = false;
; 567  : 		return (_Wherenode);
; 568  : 		}

  0002d	c9		 leave
  0002e	c3		 ret	 0

; 560  : 		_Nodeptr _Wherenode = this->_Alnod.allocate(1);

$LN5@Buynode:
  0002f	8d 45 fc	 lea	 eax, DWORD PTR $T528933[ebp]
  00032	89 4d fc	 mov	 DWORD PTR $T528933[ebp], ecx
  00035	50		 push	 eax
  00036	8d 4d f0	 lea	 ecx, DWORD PTR $T528950[ebp]
  00039	ff 15 00 00 00
	00		 call	 DWORD PTR __imp_??0exception@std@@QAE@ABQBD@Z
  0003f	68 00 00 00 00	 push	 OFFSET __TI2?AVbad_alloc@std@@
  00044	8d 45 f0	 lea	 eax, DWORD PTR $T528950[ebp]
  00047	50		 push	 eax
  00048	c7 45 f0 00 00
	00 00		 mov	 DWORD PTR $T528950[ebp], OFFSET ??_7bad_alloc@std@@6B@
  0004f	e8 00 00 00 00	 call	 __CxxThrowException@8
$LN27@Buynode:
$LN26@Buynode:
  00054	cc		 int	 3
?_Buynode@?$_Tree_val@V?$_Tmap_traits@KVioHashString@@U?$less@K@std@@V?$allocator@U?$pair@$$CBKVioHashString@@@std@@@3@$0A@@std@@@std@@QAEPAU_Node@?$_Tree_nod@V?$_Tmap_traits@KVioHashString@@U?$less@K@std@@V?$allocator@U?$pair@$$CBKVioHashString@@@std@@@3@$0A@@std@@@2@XZ ENDP ; std::_Tree_val<std::_Tmap_traits<unsigned long,ioHashString,std::less<unsigned long>,std::allocator<std::pair<unsigned long const ,ioHashString> >,0> >::_Buynode
_TEXT	ENDS
PUBLIC	??$?0AAV?$_Tree_iterator@V?$_Tree_val@V?$_Tmap_traits@KVioHashString@@U?$less@K@std@@V?$allocator@U?$pair@$$CBKVioHashString@@@std@@@3@$0A@@std@@@std@@@std@@_N@?$_Pair_base@V?$_Tree_iterator@V?$_Tree_val@V?$_Tmap_traits@KVioHashString@@U?$less@K@std@@V?$allocator@U?$pair@$$CBKVioHashString@@@std@@@3@$0A@@std@@@std@@@std@@_N@std@@QAE@AAV?$_Tree_iterator@V?$_Tree_val@V?$_Tmap_traits@KVioHashString@@U?$less@K@std@@V?$allocator@U?$pair@$$CBKVioHashString@@@std@@@3@$0A@@std@@@std@@@1@$$QA_N@Z ; std::_Pair_base<std::_Tree_iterator<std::_Tree_val<std::_Tmap_traits<unsigned long,ioHashString,std::less<unsigned long>,std::allocator<std::pair<unsigned long const ,ioHashString> >,0> > >,bool>::_Pair_base<std::_Tree_iterator<std::_Tree_val<std::_Tmap_traits<unsigned long,ioHashString,std::less<unsigned long>,std::allocator<std::pair<unsigned long const ,ioHashString> >,0> > >,bool><std::_Tree_iterator<std::_Tree_val<std::_Tmap_traits<unsigned long,ioHashString,std::less<unsigned long>,std::allocator<std::pair<unsigned long const ,ioHashString> >,0> > > &,bool>
; Function compile flags: /Ogsp
; File c:\program files (x86)\microsoft visual studio 10.0\vc\include\utility
;	COMDAT ??$?0AAV?$_Tree_iterator@V?$_Tree_val@V?$_Tmap_traits@KVioHashString@@U?$less@K@std@@V?$allocator@U?$pair@$$CBKVioHashString@@@std@@@3@$0A@@std@@@std@@@std@@_N@?$_Pair_base@V?$_Tree_iterator@V?$_Tree_val@V?$_Tmap_traits@KVioHashString@@U?$less@K@std@@V?$allocator@U?$pair@$$CBKVioHashString@@@std@@@3@$0A@@std@@@std@@@std@@_N@std@@QAE@AAV?$_Tree_iterator@V?$_Tree_val@V?$_Tmap_traits@KVioHashString@@U?$less@K@std@@V?$allocator@U?$pair@$$CBKVioHashString@@@std@@@3@$0A@@std@@@std@@@1@$$QA_N@Z
_TEXT	SEGMENT
__Val1$ = 8						; size = 4
__Val2$ = 12						; size = 4
??$?0AAV?$_Tree_iterator@V?$_Tree_val@V?$_Tmap_traits@KVioHashString@@U?$less@K@std@@V?$allocator@U?$pair@$$CBKVioHashString@@@std@@@3@$0A@@std@@@std@@@std@@_N@?$_Pair_base@V?$_Tree_iterator@V?$_Tree_val@V?$_Tmap_traits@KVioHashString@@U?$less@K@std@@V?$allocator@U?$pair@$$CBKVioHashString@@@std@@@3@$0A@@std@@@std@@@std@@_N@std@@QAE@AAV?$_Tree_iterator@V?$_Tree_val@V?$_Tmap_traits@KVioHashString@@U?$less@K@std@@V?$allocator@U?$pair@$$CBKVioHashString@@@std@@@3@$0A@@std@@@std@@@1@$$QA_N@Z PROC ; std::_Pair_base<std::_Tree_iterator<std::_Tree_val<std::_Tmap_traits<unsigned long,ioHashString,std::less<unsigned long>,std::allocator<std::pair<unsigned long const ,ioHashString> >,0> > >,bool>::_Pair_base<std::_Tree_iterator<std::_Tree_val<std::_Tmap_traits<unsigned long,ioHashString,std::less<unsigned long>,std::allocator<std::pair<unsigned long const ,ioHashString> >,0> > >,bool><std::_Tree_iterator<std::_Tree_val<std::_Tmap_traits<unsigned long,ioHashString,std::less<unsigned long>,std::allocator<std::pair<unsigned long const ,ioHashString> >,0> > > &,bool>, COMDAT
; _this$ = ecx

; 163  : 		{	// construct from moved values

  00000	55		 push	 ebp
  00001	8b ec		 mov	 ebp, esp
  00003	8b c1		 mov	 eax, ecx
  00005	8b 4d 08	 mov	 ecx, DWORD PTR __Val1$[ebp]
  00008	8b 09		 mov	 ecx, DWORD PTR [ecx]
  0000a	89 08		 mov	 DWORD PTR [eax], ecx
  0000c	8b 4d 0c	 mov	 ecx, DWORD PTR __Val2$[ebp]
  0000f	8a 09		 mov	 cl, BYTE PTR [ecx]
  00011	88 48 04	 mov	 BYTE PTR [eax+4], cl

; 164  : 		}

  00014	5d		 pop	 ebp
  00015	c2 08 00	 ret	 8
??$?0AAV?$_Tree_iterator@V?$_Tree_val@V?$_Tmap_traits@KVioHashString@@U?$less@K@std@@V?$allocator@U?$pair@$$CBKVioHashString@@@std@@@3@$0A@@std@@@std@@@std@@_N@?$_Pair_base@V?$_Tree_iterator@V?$_Tree_val@V?$_Tmap_traits@KVioHashString@@U?$less@K@std@@V?$allocator@U?$pair@$$CBKVioHashString@@@std@@@3@$0A@@std@@@std@@@std@@_N@std@@QAE@AAV?$_Tree_iterator@V?$_Tree_val@V?$_Tmap_traits@KVioHashString@@U?$less@K@std@@V?$allocator@U?$pair@$$CBKVioHashString@@@std@@@3@$0A@@std@@@std@@@1@$$QA_N@Z ENDP ; std::_Pair_base<std::_Tree_iterator<std::_Tree_val<std::_Tmap_traits<unsigned long,ioHashString,std::less<unsigned long>,std::allocator<std::pair<unsigned long const ,ioHashString> >,0> > >,bool>::_Pair_base<std::_Tree_iterator<std::_Tree_val<std::_Tmap_traits<unsigned long,ioHashString,std::less<unsigned long>,std::allocator<std::pair<unsigned long const ,ioHashString> >,0> > >,bool><std::_Tree_iterator<std::_Tree_val<std::_Tmap_traits<unsigned long,ioHashString,std::less<unsigned long>,std::allocator<std::pair<unsigned long const ,ioHashString> >,0> > > &,bool>
_TEXT	ENDS
PUBLIC	?destroy@?$allocator@USwingParam@@@std@@QAEXPAUSwingParam@@@Z ; std::allocator<SwingParam>::destroy
; Function compile flags: /Ogsp
; File c:\program files (x86)\microsoft visual studio 10.0\vc\include\xmemory
;	COMDAT ?destroy@?$allocator@USwingParam@@@std@@QAEXPAUSwingParam@@@Z
_TEXT	SEGMENT
__Ptr$ = 8						; size = 4
?destroy@?$allocator@USwingParam@@@std@@QAEXPAUSwingParam@@@Z PROC ; std::allocator<SwingParam>::destroy, COMDAT
; _this$ = ecx

; 213  : 		_Destroy(_Ptr);
; 214  : 		}

  00000	c2 04 00	 ret	 4
?destroy@?$allocator@USwingParam@@@std@@QAEXPAUSwingParam@@@Z ENDP ; std::allocator<SwingParam>::destroy
_TEXT	ENDS
PUBLIC	?construct@?$allocator@USwingParam@@@std@@QAEXPAUSwingParam@@$$QAU3@@Z ; std::allocator<SwingParam>::construct
; Function compile flags: /Ogsp
;	COMDAT ?construct@?$allocator@USwingParam@@@std@@QAEXPAUSwingParam@@$$QAU3@@Z
_TEXT	SEGMENT
__Ptr$ = 8						; size = 4
__Val$ = 12						; size = 4
?construct@?$allocator@USwingParam@@@std@@QAEXPAUSwingParam@@$$QAU3@@Z PROC ; std::allocator<SwingParam>::construct, COMDAT
; _this$ = ecx

; 201  : 		{	// construct object at _Ptr with value _Val

  00000	55		 push	 ebp
  00001	8b ec		 mov	 ebp, esp
  00003	57		 push	 edi

; 202  : 		::new ((void _FARQ *)_Ptr) _Ty(_STD forward<_Ty>(_Val));

  00004	8b 7d 08	 mov	 edi, DWORD PTR __Ptr$[ebp]
  00007	85 ff		 test	 edi, edi
  00009	74 09		 je	 SHORT $LN3@construct@3
  0000b	56		 push	 esi
  0000c	8b 75 0c	 mov	 esi, DWORD PTR __Val$[ebp]
  0000f	a5		 movsd
  00010	a5		 movsd
  00011	a5		 movsd
  00012	a5		 movsd
  00013	5e		 pop	 esi
$LN3@construct@3:
  00014	5f		 pop	 edi

; 203  : 		}

  00015	5d		 pop	 ebp
  00016	c2 08 00	 ret	 8
?construct@?$allocator@USwingParam@@@std@@QAEXPAUSwingParam@@$$QAU3@@Z ENDP ; std::allocator<SwingParam>::construct
_TEXT	ENDS
PUBLIC	??0?$_Pair_base@$$CBKVioHashString@@@std@@QAE@$$QBK$$QAVioHashString@@@Z ; std::_Pair_base<unsigned long const ,ioHashString>::_Pair_base<unsigned long const ,ioHashString>
EXTRN	__imp_??0ioHashString@@QAE@ABV0@@Z:PROC
; Function compile flags: /Ogsp
; File c:\program files (x86)\microsoft visual studio 10.0\vc\include\utility
;	COMDAT ??0?$_Pair_base@$$CBKVioHashString@@@std@@QAE@$$QBK$$QAVioHashString@@@Z
_TEXT	SEGMENT
__Val1$ = 8						; size = 4
__Val2$ = 12						; size = 4
??0?$_Pair_base@$$CBKVioHashString@@@std@@QAE@$$QBK$$QAVioHashString@@@Z PROC ; std::_Pair_base<unsigned long const ,ioHashString>::_Pair_base<unsigned long const ,ioHashString>, COMDAT
; _this$ = ecx

; 145  : 		{	// construct from specified values

  00000	55		 push	 ebp
  00001	8b ec		 mov	 ebp, esp
  00003	8b 45 08	 mov	 eax, DWORD PTR __Val1$[ebp]
  00006	8b 00		 mov	 eax, DWORD PTR [eax]
  00008	56		 push	 esi
  00009	ff 75 0c	 push	 DWORD PTR __Val2$[ebp]
  0000c	8b f1		 mov	 esi, ecx
  0000e	8d 4e 04	 lea	 ecx, DWORD PTR [esi+4]
  00011	89 06		 mov	 DWORD PTR [esi], eax
  00013	ff 15 00 00 00
	00		 call	 DWORD PTR __imp_??0ioHashString@@QAE@ABV0@@Z

; 146  : 		}

  00019	8b c6		 mov	 eax, esi
  0001b	5e		 pop	 esi
  0001c	5d		 pop	 ebp
  0001d	c2 08 00	 ret	 8
??0?$_Pair_base@$$CBKVioHashString@@@std@@QAE@$$QBK$$QAVioHashString@@@Z ENDP ; std::_Pair_base<unsigned long const ,ioHashString>::_Pair_base<unsigned long const ,ioHashString>
_TEXT	ENDS
PUBLIC	??B?$CEncrypt@M@@QAEMXZ				; CEncrypt<float>::operator float
; Function compile flags: /Ogsp
; File d:\lost saga for developer\youtube\tutorial\source\src\lsclient\encryptvalue.h
;	COMDAT ??B?$CEncrypt@M@@QAEMXZ
_TEXT	SEGMENT
_value$ = -4						; size = 4
??B?$CEncrypt@M@@QAEMXZ PROC				; CEncrypt<float>::operator float, COMDAT
; _this$ = ecx

; 134  : 	{

  00000	55		 push	 ebp
  00001	8b ec		 mov	 ebp, esp
  00003	51		 push	 ecx

; 135  : 		type value;
; 136  : 		DecryptValueToPool(&value);

  00004	8d 45 fc	 lea	 eax, DWORD PTR _value$[ebp]
  00007	50		 push	 eax
  00008	e8 00 00 00 00	 call	 ?DecryptValueToPool@?$CEncrypt@M@@QAEXPAM@Z ; CEncrypt<float>::DecryptValueToPool

; 137  : 
; 138  : #ifdef _NOTUSE
; 139  : 		Debug();
; 140  : #endif
; 141  : 		return value;

  0000d	d9 45 fc	 fld	 DWORD PTR _value$[ebp]

; 142  : 	}

  00010	c9		 leave
  00011	c3		 ret	 0
??B?$CEncrypt@M@@QAEMXZ ENDP				; CEncrypt<float>::operator float
_TEXT	ENDS
PUBLIC	??B?$CEncrypt@M@@QBEMXZ				; CEncrypt<float>::operator float
; Function compile flags: /Ogsp
;	COMDAT ??B?$CEncrypt@M@@QBEMXZ
_TEXT	SEGMENT
_value$ = -4						; size = 4
??B?$CEncrypt@M@@QBEMXZ PROC				; CEncrypt<float>::operator float, COMDAT
; _this$ = ecx

; 145  : 	{

  00000	55		 push	 ebp
  00001	8b ec		 mov	 ebp, esp
  00003	51		 push	 ecx

; 146  : 		//UJ 130829, const    --start
; 147  : 		type value;
; 148  : 		CEncrypt<type>* pThis = const_cast<CEncrypt<type>*>(this);
; 149  : 		pThis->DecryptValueToPool(&value);

  00004	8d 45 fc	 lea	 eax, DWORD PTR _value$[ebp]
  00007	50		 push	 eax
  00008	e8 00 00 00 00	 call	 ?DecryptValueToPool@?$CEncrypt@M@@QAEXPAM@Z ; CEncrypt<float>::DecryptValueToPool

; 150  : 		//// const DecryptValueToPool     .
; 151  :  		//type value;
; 152  : 		//char szTempMem[MAX_ENCRYPT];
; 153  : 		//m_RC5.DecryptByte( m_MemPool, szTempMem, max(m_ValueSize, DEFAULT_ENCRYPT) );
; 154  : 		//memcpy( &value, szTempMem, m_ValueSize );
; 155  : 		//UJ --end
; 156  : 
; 157  : #ifdef _NOTUSE
; 158  : 		Debug();
; 159  : #endif
; 160  : 		return value;

  0000d	d9 45 fc	 fld	 DWORD PTR _value$[ebp]

; 161  : 	}

  00010	c9		 leave
  00011	c3		 ret	 0
??B?$CEncrypt@M@@QBEMXZ ENDP				; CEncrypt<float>::operator float
_TEXT	ENDS
PUBLIC	??4?$CEncrypt@M@@QAEMM@Z			; CEncrypt<float>::operator=
; Function compile flags: /Ogsp
;	COMDAT ??4?$CEncrypt@M@@QAEMM@Z
_TEXT	SEGMENT
_value$ = 8						; size = 4
_inValue$ = 8						; size = 4
??4?$CEncrypt@M@@QAEMM@Z PROC				; CEncrypt<float>::operator=, COMDAT
; _this$ = ecx

; 1654 : 	{	

  00000	55		 push	 ebp
  00001	8b ec		 mov	 ebp, esp

; 1655 : 		type value = inValue;

  00003	d9 45 08	 fld	 DWORD PTR _inValue$[ebp]

; 1656 : 		EncryptValueToPool((char*)&value);

  00006	8d 45 08	 lea	 eax, DWORD PTR _value$[ebp]
  00009	50		 push	 eax
  0000a	d9 5d 08	 fstp	 DWORD PTR _value$[ebp]
  0000d	e8 00 00 00 00	 call	 ?EncryptValueToPool@?$CEncrypt@M@@AAEXPBD@Z ; CEncrypt<float>::EncryptValueToPool

; 1657 : #ifdef _NOTUSE
; 1658 : 		m_value = inValue;
; 1659 : 		Debug();
; 1660 : #endif
; 1661 : 		return value;

  00012	d9 45 08	 fld	 DWORD PTR _value$[ebp]

; 1662 : 	}

  00015	5d		 pop	 ebp
  00016	c2 04 00	 ret	 4
??4?$CEncrypt@M@@QAEMM@Z ENDP				; CEncrypt<float>::operator=
_TEXT	ENDS
PUBLIC	??Y?$CEncrypt@M@@QAEAAMABM@Z			; CEncrypt<float>::operator+=
; Function compile flags: /Ogsp
;	COMDAT ??Y?$CEncrypt@M@@QAEAAMABM@Z
_TEXT	SEGMENT
_value$ = -4						; size = 4
_inValue$ = 8						; size = 4
??Y?$CEncrypt@M@@QAEAAMABM@Z PROC			; CEncrypt<float>::operator+=, COMDAT
; _this$ = ecx

; 1715 : 	{

  00000	55		 push	 ebp
  00001	8b ec		 mov	 ebp, esp
  00003	51		 push	 ecx
  00004	56		 push	 esi

; 1716 : 		type value;
; 1717 : 		DecryptValueToPool(&value);

  00005	8d 45 fc	 lea	 eax, DWORD PTR _value$[ebp]
  00008	50		 push	 eax
  00009	8b f1		 mov	 esi, ecx
  0000b	e8 00 00 00 00	 call	 ?DecryptValueToPool@?$CEncrypt@M@@QAEXPAM@Z ; CEncrypt<float>::DecryptValueToPool

; 1718 : 		value += inValue;

  00010	8b 45 08	 mov	 eax, DWORD PTR _inValue$[ebp]
  00013	f3 0f 10 00	 movss	 xmm0, DWORD PTR [eax]
  00017	f3 0f 10 4d fc	 movss	 xmm1, DWORD PTR _value$[ebp]
  0001c	0f 5a c0	 cvtps2pd xmm0, xmm0
  0001f	0f 5a c9	 cvtps2pd xmm1, xmm1

; 1719 : 		EncryptValueToPool((char*)&value);

  00022	8d 45 fc	 lea	 eax, DWORD PTR _value$[ebp]
  00025	f2 0f 58 c1	 addsd	 xmm0, xmm1
  00029	66 0f 5a c0	 cvtpd2ps xmm0, xmm0
  0002d	50		 push	 eax
  0002e	8b ce		 mov	 ecx, esi
  00030	f3 0f 11 45 fc	 movss	 DWORD PTR _value$[ebp], xmm0
  00035	e8 00 00 00 00	 call	 ?EncryptValueToPool@?$CEncrypt@M@@AAEXPBD@Z ; CEncrypt<float>::EncryptValueToPool

; 1720 : #ifdef _NOTUSE
; 1721 : 		m_value += inValue;
; 1722 : 		Debug();
; 1723 : #endif
; 1724 : 		return value;

  0003a	8d 45 fc	 lea	 eax, DWORD PTR _value$[ebp]
  0003d	5e		 pop	 esi

; 1725 : 	} 

  0003e	c9		 leave
  0003f	c2 04 00	 ret	 4
??Y?$CEncrypt@M@@QAEAAMABM@Z ENDP			; CEncrypt<float>::operator+=
_TEXT	ENDS
PUBLIC	??B?$CEncrypt@_N@@QBE_NXZ			; CEncrypt<bool>::operator bool
; Function compile flags: /Ogsp
;	COMDAT ??B?$CEncrypt@_N@@QBE_NXZ
_TEXT	SEGMENT
_value$ = -1						; size = 1
??B?$CEncrypt@_N@@QBE_NXZ PROC				; CEncrypt<bool>::operator bool, COMDAT
; _this$ = ecx

; 145  : 	{

  00000	55		 push	 ebp
  00001	8b ec		 mov	 ebp, esp
  00003	51		 push	 ecx

; 146  : 		//UJ 130829, const    --start
; 147  : 		type value;
; 148  : 		CEncrypt<type>* pThis = const_cast<CEncrypt<type>*>(this);
; 149  : 		pThis->DecryptValueToPool(&value);

  00004	8d 45 ff	 lea	 eax, DWORD PTR _value$[ebp]
  00007	50		 push	 eax
  00008	e8 00 00 00 00	 call	 ?DecryptValueToPool@?$CEncrypt@_N@@QAEXPA_N@Z ; CEncrypt<bool>::DecryptValueToPool

; 150  : 		//// const DecryptValueToPool     .
; 151  :  		//type value;
; 152  : 		//char szTempMem[MAX_ENCRYPT];
; 153  : 		//m_RC5.DecryptByte( m_MemPool, szTempMem, max(m_ValueSize, DEFAULT_ENCRYPT) );
; 154  : 		//memcpy( &value, szTempMem, m_ValueSize );
; 155  : 		//UJ --end
; 156  : 
; 157  : #ifdef _NOTUSE
; 158  : 		Debug();
; 159  : #endif
; 160  : 		return value;

  0000d	8a 45 ff	 mov	 al, BYTE PTR _value$[ebp]

; 161  : 	}

  00010	c9		 leave
  00011	c3		 ret	 0
??B?$CEncrypt@_N@@QBE_NXZ ENDP				; CEncrypt<bool>::operator bool
_TEXT	ENDS
PUBLIC	??B?$CEncrypt@H@@QBEHXZ				; CEncrypt<int>::operator int
; Function compile flags: /Ogsp
;	COMDAT ??B?$CEncrypt@H@@QBEHXZ
_TEXT	SEGMENT
_value$ = -4						; size = 4
??B?$CEncrypt@H@@QBEHXZ PROC				; CEncrypt<int>::operator int, COMDAT
; _this$ = ecx

; 145  : 	{

  00000	55		 push	 ebp
  00001	8b ec		 mov	 ebp, esp
  00003	51		 push	 ecx

; 146  : 		//UJ 130829, const    --start
; 147  : 		type value;
; 148  : 		CEncrypt<type>* pThis = const_cast<CEncrypt<type>*>(this);
; 149  : 		pThis->DecryptValueToPool(&value);

  00004	8d 45 fc	 lea	 eax, DWORD PTR _value$[ebp]
  00007	50		 push	 eax
  00008	e8 00 00 00 00	 call	 ?DecryptValueToPool@?$CEncrypt@H@@QAEXPAH@Z ; CEncrypt<int>::DecryptValueToPool

; 150  : 		//// const DecryptValueToPool     .
; 151  :  		//type value;
; 152  : 		//char szTempMem[MAX_ENCRYPT];
; 153  : 		//m_RC5.DecryptByte( m_MemPool, szTempMem, max(m_ValueSize, DEFAULT_ENCRYPT) );
; 154  : 		//memcpy( &value, szTempMem, m_ValueSize );
; 155  : 		//UJ --end
; 156  : 
; 157  : #ifdef _NOTUSE
; 158  : 		Debug();
; 159  : #endif
; 160  : 		return value;

  0000d	8b 45 fc	 mov	 eax, DWORD PTR _value$[ebp]

; 161  : 	}

  00010	c9		 leave
  00011	c3		 ret	 0
??B?$CEncrypt@H@@QBEHXZ ENDP				; CEncrypt<int>::operator int
_TEXT	ENDS
PUBLIC	??$swap@D@std@@YAXAAD0@Z			; std::swap<char>
; Function compile flags: /Ogsp
; File c:\program files (x86)\microsoft visual studio 10.0\vc\include\utility
;	COMDAT ??$swap@D@std@@YAXAAD0@Z
_TEXT	SEGMENT
__Left$ = 8						; size = 4
__Right$ = 12						; size = 4
??$swap@D@std@@YAXAAD0@Z PROC				; std::swap<char>, COMDAT

; 101  : 	{	// exchange values stored at _Left and _Right

  00000	55		 push	 ebp
  00001	8b ec		 mov	 ebp, esp

; 102  : 	_Ty _Tmp = _Move(_Left);

  00003	8b 45 08	 mov	 eax, DWORD PTR __Left$[ebp]
  00006	8a 08		 mov	 cl, BYTE PTR [eax]
  00008	56		 push	 esi

; 103  : 	_Left = _Move(_Right);

  00009	8b 75 0c	 mov	 esi, DWORD PTR __Right$[ebp]
  0000c	8a 16		 mov	 dl, BYTE PTR [esi]
  0000e	88 10		 mov	 BYTE PTR [eax], dl

; 104  : 	_Right = _Move(_Tmp);

  00010	88 0e		 mov	 BYTE PTR [esi], cl
  00012	5e		 pop	 esi

; 105  : 	}

  00013	5d		 pop	 ebp
  00014	c3		 ret	 0
??$swap@D@std@@YAXAAD0@Z ENDP				; std::swap<char>
_TEXT	ENDS
PUBLIC	??0?$vector@USwingParam@@V?$allocator@USwingParam@@@std@@@std@@QAE@XZ ; std::vector<SwingParam,std::allocator<SwingParam> >::vector<SwingParam,std::allocator<SwingParam> >
; Function compile flags: /Ogsp
; File c:\program files (x86)\microsoft visual studio 10.0\vc\include\vector
;	COMDAT ??0?$vector@USwingParam@@V?$allocator@USwingParam@@@std@@@std@@QAE@XZ
_TEXT	SEGMENT
??0?$vector@USwingParam@@V?$allocator@USwingParam@@@std@@@std@@QAE@XZ PROC ; std::vector<SwingParam,std::allocator<SwingParam> >::vector<SwingParam,std::allocator<SwingParam> >, COMDAT
; _this$ = ecx

; 507  : 		{	// construct empty vector

  00000	8b c1		 mov	 eax, ecx
  00002	33 c9		 xor	 ecx, ecx
  00004	89 08		 mov	 DWORD PTR [eax], ecx
  00006	89 48 04	 mov	 DWORD PTR [eax+4], ecx
  00009	89 48 08	 mov	 DWORD PTR [eax+8], ecx

; 508  : 		}

  0000c	c3		 ret	 0
??0?$vector@USwingParam@@V?$allocator@USwingParam@@@std@@@std@@QAE@XZ ENDP ; std::vector<SwingParam,std::allocator<SwingParam> >::vector<SwingParam,std::allocator<SwingParam> >
_TEXT	ENDS
PUBLIC	?end@?$_Tree@V?$_Tmap_traits@KVioHashString@@U?$less@K@std@@V?$allocator@U?$pair@$$CBKVioHashString@@@std@@@3@$0A@@std@@@std@@QBE?AV?$_Tree_const_iterator@V?$_Tree_val@V?$_Tmap_traits@KVioHashString@@U?$less@K@std@@V?$allocator@U?$pair@$$CBKVioHashString@@@std@@@3@$0A@@std@@@std@@@2@XZ ; std::_Tree<std::_Tmap_traits<unsigned long,ioHashString,std::less<unsigned long>,std::allocator<std::pair<unsigned long const ,ioHashString> >,0> >::end
; Function compile flags: /Ogsp
; File c:\program files (x86)\microsoft visual studio 10.0\vc\include\xtree
;	COMDAT ?end@?$_Tree@V?$_Tmap_traits@KVioHashString@@U?$less@K@std@@V?$allocator@U?$pair@$$CBKVioHashString@@@std@@@3@$0A@@std@@@std@@QBE?AV?$_Tree_const_iterator@V?$_Tree_val@V?$_Tmap_traits@KVioHashString@@U?$less@K@std@@V?$allocator@U?$pair@$$CBKVioHashString@@@std@@@3@$0A@@std@@@std@@@2@XZ
_TEXT	SEGMENT
___$ReturnUdt$ = 8					; size = 4
?end@?$_Tree@V?$_Tmap_traits@KVioHashString@@U?$less@K@std@@V?$allocator@U?$pair@$$CBKVioHashString@@@std@@@3@$0A@@std@@@std@@QBE?AV?$_Tree_const_iterator@V?$_Tree_val@V?$_Tmap_traits@KVioHashString@@U?$less@K@std@@V?$allocator@U?$pair@$$CBKVioHashString@@@std@@@3@$0A@@std@@@std@@@2@XZ PROC ; std::_Tree<std::_Tmap_traits<unsigned long,ioHashString,std::less<unsigned long>,std::allocator<std::pair<unsigned long const ,ioHashString> >,0> >::end, COMDAT
; _this$ = ecx

; 821  : 		{	// return iterator for end of nonmutable sequence

  00000	55		 push	 ebp
  00001	8b ec		 mov	 ebp, esp

; 822  : 		return (const_iterator(this->_Myhead, this));

  00003	8b 49 04	 mov	 ecx, DWORD PTR [ecx+4]
  00006	8b 45 08	 mov	 eax, DWORD PTR ___$ReturnUdt$[ebp]
  00009	89 08		 mov	 DWORD PTR [eax], ecx

; 823  : 		}

  0000b	5d		 pop	 ebp
  0000c	c2 04 00	 ret	 4
?end@?$_Tree@V?$_Tmap_traits@KVioHashString@@U?$less@K@std@@V?$allocator@U?$pair@$$CBKVioHashString@@@std@@@3@$0A@@std@@@std@@QBE?AV?$_Tree_const_iterator@V?$_Tree_val@V?$_Tmap_traits@KVioHashString@@U?$less@K@std@@V?$allocator@U?$pair@$$CBKVioHashString@@@std@@@3@$0A@@std@@@std@@@2@XZ ENDP ; std::_Tree<std::_Tmap_traits<unsigned long,ioHashString,std::less<unsigned long>,std::allocator<std::pair<unsigned long const ,ioHashString> >,0> >::end
_TEXT	ENDS
PUBLIC	??C?$_Tree_unchecked_const_iterator@V?$_Tree_val@V?$_Tmap_traits@KVioHashString@@U?$less@K@std@@V?$allocator@U?$pair@$$CBKVioHashString@@@std@@@3@$0A@@std@@@std@@U_Iterator_base0@2@@std@@QBEPBU?$pair@$$CBKVioHashString@@@1@XZ ; std::_Tree_unchecked_const_iterator<std::_Tree_val<std::_Tmap_traits<unsigned long,ioHashString,std::less<unsigned long>,std::allocator<std::pair<unsigned long const ,ioHashString> >,0> >,std::_Iterator_base0>::operator->
; Function compile flags: /Ogsp
;	COMDAT ??C?$_Tree_unchecked_const_iterator@V?$_Tree_val@V?$_Tmap_traits@KVioHashString@@U?$less@K@std@@V?$allocator@U?$pair@$$CBKVioHashString@@@std@@@3@$0A@@std@@@std@@U_Iterator_base0@2@@std@@QBEPBU?$pair@$$CBKVioHashString@@@1@XZ
_TEXT	SEGMENT
??C?$_Tree_unchecked_const_iterator@V?$_Tree_val@V?$_Tmap_traits@KVioHashString@@U?$less@K@std@@V?$allocator@U?$pair@$$CBKVioHashString@@@std@@@3@$0A@@std@@@std@@U_Iterator_base0@2@@std@@QBEPBU?$pair@$$CBKVioHashString@@@1@XZ PROC ; std::_Tree_unchecked_const_iterator<std::_Tree_val<std::_Tmap_traits<unsigned long,ioHashString,std::less<unsigned long>,std::allocator<std::pair<unsigned long const ,ioHashString> >,0> >,std::_Iterator_base0>::operator->, COMDAT
; _this$ = ecx

; 54   : 		return (&**this);

  00000	8b 01		 mov	 eax, DWORD PTR [ecx]
  00002	83 c0 0c	 add	 eax, 12			; 0000000cH

; 55   : 		}

  00005	c3		 ret	 0
??C?$_Tree_unchecked_const_iterator@V?$_Tree_val@V?$_Tmap_traits@KVioHashString@@U?$less@K@std@@V?$allocator@U?$pair@$$CBKVioHashString@@@std@@@3@$0A@@std@@@std@@U_Iterator_base0@2@@std@@QBEPBU?$pair@$$CBKVioHashString@@@1@XZ ENDP ; std::_Tree_unchecked_const_iterator<std::_Tree_val<std::_Tmap_traits<unsigned long,ioHashString,std::less<unsigned long>,std::allocator<std::pair<unsigned long const ,ioHashString> >,0> >,std::_Iterator_base0>::operator->
_TEXT	ENDS
PUBLIC	?_Buy@?$vector@USwingParam@@V?$allocator@USwingParam@@@std@@@std@@IAE_NI@Z ; std::vector<SwingParam,std::allocator<SwingParam> >::_Buy
; Function compile flags: /Ogsp
; File c:\program files (x86)\microsoft visual studio 10.0\vc\include\vector
;	COMDAT ?_Buy@?$vector@USwingParam@@V?$allocator@USwingParam@@@std@@@std@@IAE_NI@Z
_TEXT	SEGMENT
__Capacity$ = 8						; size = 4
?_Buy@?$vector@USwingParam@@V?$allocator@USwingParam@@@std@@@std@@IAE_NI@Z PROC ; std::vector<SwingParam,std::allocator<SwingParam> >::_Buy, COMDAT
; _this$ = ecx

; 1250 : 		{	// allocate array with _Capacity elements

  00000	55		 push	 ebp
  00001	8b ec		 mov	 ebp, esp
  00003	56		 push	 esi

; 1251 : 		this->_Myfirst = 0;

  00004	33 c0		 xor	 eax, eax
  00006	57		 push	 edi

; 1252 : 		this->_Mylast = 0;
; 1253 : 		this->_Myend = 0;
; 1254 : 
; 1255 : 		if (_Capacity == 0)

  00007	8b 7d 08	 mov	 edi, DWORD PTR __Capacity$[ebp]
  0000a	8b f1		 mov	 esi, ecx
  0000c	89 06		 mov	 DWORD PTR [esi], eax
  0000e	89 46 04	 mov	 DWORD PTR [esi+4], eax
  00011	89 46 08	 mov	 DWORD PTR [esi+8], eax
  00014	3b f8		 cmp	 edi, eax
  00016	75 04		 jne	 SHORT $LN4@Buy

; 1256 : 			return (false);

  00018	32 c0		 xor	 al, al
  0001a	eb 2b		 jmp	 SHORT $LN5@Buy
$LN4@Buy:

; 1257 : 		else if (max_size() < _Capacity)

  0001c	81 ff ff ff ff
	0f		 cmp	 edi, 268435455		; 0fffffffH
  00022	76 0b		 jbe	 SHORT $LN2@Buy

; 1258 : 			_Xlen();	// result too long

  00024	68 00 00 00 00	 push	 OFFSET ??_C@_0BD@OLBABOEK@vector?$DMT?$DO?5too?5long?$AA@
  00029	ff 15 00 00 00
	00		 call	 DWORD PTR __imp_?_Xlength_error@std@@YAXPBD@Z
$LN19@Buy:
$LN2@Buy:

; 1259 : 		else
; 1260 : 			{	// nonempty array, allocate storage
; 1261 : 			this->_Myfirst = this->_Alval.allocate(_Capacity);

  0002f	50		 push	 eax
  00030	57		 push	 edi
  00031	e8 00 00 00 00	 call	 ??$_Allocate@USwingParam@@@std@@YAPAUSwingParam@@IPAU1@@Z ; std::_Allocate<SwingParam>

; 1262 : 			this->_Mylast = this->_Myfirst;
; 1263 : 			this->_Myend = this->_Myfirst + _Capacity;

  00036	c1 e7 04	 shl	 edi, 4
  00039	03 f8		 add	 edi, eax
  0003b	59		 pop	 ecx
  0003c	89 06		 mov	 DWORD PTR [esi], eax
  0003e	89 46 04	 mov	 DWORD PTR [esi+4], eax
  00041	59		 pop	 ecx
  00042	89 7e 08	 mov	 DWORD PTR [esi+8], edi

; 1264 : 			}
; 1265 : 		return (true);

  00045	b0 01		 mov	 al, 1
$LN5@Buy:
  00047	5f		 pop	 edi
  00048	5e		 pop	 esi

; 1266 : 		}

  00049	5d		 pop	 ebp
  0004a	c2 04 00	 ret	 4
$LN18@Buy:
?_Buy@?$vector@USwingParam@@V?$allocator@USwingParam@@@std@@@std@@IAE_NI@Z ENDP ; std::vector<SwingParam,std::allocator<SwingParam> >::_Buy
_TEXT	ENDS
PUBLIC	?lower_bound@?$_Tree@V?$_Tmap_traits@KVioHashString@@U?$less@K@std@@V?$allocator@U?$pair@$$CBKVioHashString@@@std@@@3@$0A@@std@@@std@@QBE?AV?$_Tree_const_iterator@V?$_Tree_val@V?$_Tmap_traits@KVioHashString@@U?$less@K@std@@V?$allocator@U?$pair@$$CBKVioHashString@@@std@@@3@$0A@@std@@@std@@@2@ABK@Z ; std::_Tree<std::_Tmap_traits<unsigned long,ioHashString,std::less<unsigned long>,std::allocator<std::pair<unsigned long const ,ioHashString> >,0> >::lower_bound
; Function compile flags: /Ogsp
; File c:\program files (x86)\microsoft visual studio 10.0\vc\include\xtree
;	COMDAT ?lower_bound@?$_Tree@V?$_Tmap_traits@KVioHashString@@U?$less@K@std@@V?$allocator@U?$pair@$$CBKVioHashString@@@std@@@3@$0A@@std@@@std@@QBE?AV?$_Tree_const_iterator@V?$_Tree_val@V?$_Tmap_traits@KVioHashString@@U?$less@K@std@@V?$allocator@U?$pair@$$CBKVioHashString@@@std@@@3@$0A@@std@@@std@@@2@ABK@Z
_TEXT	SEGMENT
___$ReturnUdt$ = 8					; size = 4
__Keyval$ = 12						; size = 4
?lower_bound@?$_Tree@V?$_Tmap_traits@KVioHashString@@U?$less@K@std@@V?$allocator@U?$pair@$$CBKVioHashString@@@std@@@3@$0A@@std@@@std@@QBE?AV?$_Tree_const_iterator@V?$_Tree_val@V?$_Tmap_traits@KVioHashString@@U?$less@K@std@@V?$allocator@U?$pair@$$CBKVioHashString@@@std@@@3@$0A@@std@@@std@@@2@ABK@Z PROC ; std::_Tree<std::_Tmap_traits<unsigned long,ioHashString,std::less<unsigned long>,std::allocator<std::pair<unsigned long const ,ioHashString> >,0> >::lower_bound, COMDAT
; _this$ = ecx

; 1454 : 		{	// find leftmost node not less than _Keyval in nonmutable tree

  00000	55		 push	 ebp
  00001	8b ec		 mov	 ebp, esp

; 1455 : 		return (const_iterator(_Lbound(_Keyval), this));

  00003	ff 75 0c	 push	 DWORD PTR __Keyval$[ebp]
  00006	e8 00 00 00 00	 call	 ?_Lbound@?$_Tree@V?$_Tmap_traits@KVioHashString@@U?$less@K@std@@V?$allocator@U?$pair@$$CBKVioHashString@@@std@@@3@$0A@@std@@@std@@IBEPAU_Node@?$_Tree_nod@V?$_Tmap_traits@KVioHashString@@U?$less@K@std@@V?$allocator@U?$pair@$$CBKVioHashString@@@std@@@3@$0A@@std@@@2@ABK@Z ; std::_Tree<std::_Tmap_traits<unsigned long,ioHashString,std::less<unsigned long>,std::allocator<std::pair<unsigned long const ,ioHashString> >,0> >::_Lbound
  0000b	8b 4d 08	 mov	 ecx, DWORD PTR ___$ReturnUdt$[ebp]
  0000e	89 01		 mov	 DWORD PTR [ecx], eax
  00010	8b c1		 mov	 eax, ecx

; 1456 : 		}

  00012	5d		 pop	 ebp
  00013	c2 08 00	 ret	 8
?lower_bound@?$_Tree@V?$_Tmap_traits@KVioHashString@@U?$less@K@std@@V?$allocator@U?$pair@$$CBKVioHashString@@@std@@@3@$0A@@std@@@std@@QBE?AV?$_Tree_const_iterator@V?$_Tree_val@V?$_Tmap_traits@KVioHashString@@U?$less@K@std@@V?$allocator@U?$pair@$$CBKVioHashString@@@std@@@3@$0A@@std@@@std@@@2@ABK@Z ENDP ; std::_Tree<std::_Tmap_traits<unsigned long,ioHashString,std::less<unsigned long>,std::allocator<std::pair<unsigned long const ,ioHashString> >,0> >::lower_bound
_TEXT	ENDS
PUBLIC	?begin@?$vector@USwingParam@@V?$allocator@USwingParam@@@std@@@std@@QAE?AV?$_Vector_iterator@V?$_Vector_val@USwingParam@@V?$allocator@USwingParam@@@std@@@std@@@2@XZ ; std::vector<SwingParam,std::allocator<SwingParam> >::begin
; Function compile flags: /Ogsp
; File c:\program files (x86)\microsoft visual studio 10.0\vc\include\vector
;	COMDAT ?begin@?$vector@USwingParam@@V?$allocator@USwingParam@@@std@@@std@@QAE?AV?$_Vector_iterator@V?$_Vector_val@USwingParam@@V?$allocator@USwingParam@@@std@@@std@@@2@XZ
_TEXT	SEGMENT
___$ReturnUdt$ = 8					; size = 4
?begin@?$vector@USwingParam@@V?$allocator@USwingParam@@@std@@@std@@QAE?AV?$_Vector_iterator@V?$_Vector_val@USwingParam@@V?$allocator@USwingParam@@@std@@@std@@@2@XZ PROC ; std::vector<SwingParam,std::allocator<SwingParam> >::begin, COMDAT
; _this$ = ecx

; 781  : 		{	// return iterator for beginning of mutable sequence

  00000	55		 push	 ebp
  00001	8b ec		 mov	 ebp, esp

; 782  : 		return (iterator(this->_Myfirst, this));

  00003	8b 09		 mov	 ecx, DWORD PTR [ecx]
  00005	8b 45 08	 mov	 eax, DWORD PTR ___$ReturnUdt$[ebp]
  00008	89 08		 mov	 DWORD PTR [eax], ecx

; 783  : 		}

  0000a	5d		 pop	 ebp
  0000b	c2 04 00	 ret	 4
?begin@?$vector@USwingParam@@V?$allocator@USwingParam@@@std@@@std@@QAE?AV?$_Vector_iterator@V?$_Vector_val@USwingParam@@V?$allocator@USwingParam@@@std@@@std@@@2@XZ ENDP ; std::vector<SwingParam,std::allocator<SwingParam> >::begin
_TEXT	ENDS
PUBLIC	?end@?$vector@USwingParam@@V?$allocator@USwingParam@@@std@@@std@@QAE?AV?$_Vector_iterator@V?$_Vector_val@USwingParam@@V?$allocator@USwingParam@@@std@@@std@@@2@XZ ; std::vector<SwingParam,std::allocator<SwingParam> >::end
; Function compile flags: /Ogsp
;	COMDAT ?end@?$vector@USwingParam@@V?$allocator@USwingParam@@@std@@@std@@QAE?AV?$_Vector_iterator@V?$_Vector_val@USwingParam@@V?$allocator@USwingParam@@@std@@@std@@@2@XZ
_TEXT	SEGMENT
___$ReturnUdt$ = 8					; size = 4
?end@?$vector@USwingParam@@V?$allocator@USwingParam@@@std@@@std@@QAE?AV?$_Vector_iterator@V?$_Vector_val@USwingParam@@V?$allocator@USwingParam@@@std@@@std@@@2@XZ PROC ; std::vector<SwingParam,std::allocator<SwingParam> >::end, COMDAT
; _this$ = ecx

; 791  : 		{	// return iterator for end of mutable sequence

  00000	55		 push	 ebp
  00001	8b ec		 mov	 ebp, esp

; 792  : 		return (iterator(this->_Mylast, this));

  00003	8b 49 04	 mov	 ecx, DWORD PTR [ecx+4]
  00006	8b 45 08	 mov	 eax, DWORD PTR ___$ReturnUdt$[ebp]
  00009	89 08		 mov	 DWORD PTR [eax], ecx

; 793  : 		}

  0000b	5d		 pop	 ebp
  0000c	c2 04 00	 ret	 4
?end@?$vector@USwingParam@@V?$allocator@USwingParam@@@std@@@std@@QAE?AV?$_Vector_iterator@V?$_Vector_val@USwingParam@@V?$allocator@USwingParam@@@std@@@std@@@2@XZ ENDP ; std::vector<SwingParam,std::allocator<SwingParam> >::end
_TEXT	ENDS
PUBLIC	?begin@?$_Tree@V?$_Tmap_traits@KVioHashString@@U?$less@K@std@@V?$allocator@U?$pair@$$CBKVioHashString@@@std@@@3@$0A@@std@@@std@@QAE?AV?$_Tree_iterator@V?$_Tree_val@V?$_Tmap_traits@KVioHashString@@U?$less@K@std@@V?$allocator@U?$pair@$$CBKVioHashString@@@std@@@3@$0A@@std@@@std@@@2@XZ ; std::_Tree<std::_Tmap_traits<unsigned long,ioHashString,std::less<unsigned long>,std::allocator<std::pair<unsigned long const ,ioHashString> >,0> >::begin
; Function compile flags: /Ogsp
; File c:\program files (x86)\microsoft visual studio 10.0\vc\include\xtree
;	COMDAT ?begin@?$_Tree@V?$_Tmap_traits@KVioHashString@@U?$less@K@std@@V?$allocator@U?$pair@$$CBKVioHashString@@@std@@@3@$0A@@std@@@std@@QAE?AV?$_Tree_iterator@V?$_Tree_val@V?$_Tmap_traits@KVioHashString@@U?$less@K@std@@V?$allocator@U?$pair@$$CBKVioHashString@@@std@@@3@$0A@@std@@@std@@@2@XZ
_TEXT	SEGMENT
___$ReturnUdt$ = 8					; size = 4
?begin@?$_Tree@V?$_Tmap_traits@KVioHashString@@U?$less@K@std@@V?$allocator@U?$pair@$$CBKVioHashString@@@std@@@3@$0A@@std@@@std@@QAE?AV?$_Tree_iterator@V?$_Tree_val@V?$_Tmap_traits@KVioHashString@@U?$less@K@std@@V?$allocator@U?$pair@$$CBKVioHashString@@@std@@@3@$0A@@std@@@std@@@2@XZ PROC ; std::_Tree<std::_Tmap_traits<unsigned long,ioHashString,std::less<unsigned long>,std::allocator<std::pair<unsigned long const ,ioHashString> >,0> >::begin, COMDAT
; _this$ = ecx

; 806  : 		{	// return iterator for beginning of mutable sequence

  00000	55		 push	 ebp
  00001	8b ec		 mov	 ebp, esp

; 807  : 		return (iterator(_Lmost(), this));

  00003	8b 41 04	 mov	 eax, DWORD PTR [ecx+4]
  00006	8b 08		 mov	 ecx, DWORD PTR [eax]
  00008	8b 45 08	 mov	 eax, DWORD PTR ___$ReturnUdt$[ebp]
  0000b	89 08		 mov	 DWORD PTR [eax], ecx

; 808  : 		}

  0000d	5d		 pop	 ebp
  0000e	c2 04 00	 ret	 4
?begin@?$_Tree@V?$_Tmap_traits@KVioHashString@@U?$less@K@std@@V?$allocator@U?$pair@$$CBKVioHashString@@@std@@@3@$0A@@std@@@std@@QAE?AV?$_Tree_iterator@V?$_Tree_val@V?$_Tmap_traits@KVioHashString@@U?$less@K@std@@V?$allocator@U?$pair@$$CBKVioHashString@@@std@@@3@$0A@@std@@@std@@@2@XZ ENDP ; std::_Tree<std::_Tmap_traits<unsigned long,ioHashString,std::less<unsigned long>,std::allocator<std::pair<unsigned long const ,ioHashString> >,0> >::begin
_TEXT	ENDS
PUBLIC	?end@?$_Tree@V?$_Tmap_traits@KVioHashString@@U?$less@K@std@@V?$allocator@U?$pair@$$CBKVioHashString@@@std@@@3@$0A@@std@@@std@@QAE?AV?$_Tree_iterator@V?$_Tree_val@V?$_Tmap_traits@KVioHashString@@U?$less@K@std@@V?$allocator@U?$pair@$$CBKVioHashString@@@std@@@3@$0A@@std@@@std@@@2@XZ ; std::_Tree<std::_Tmap_traits<unsigned long,ioHashString,std::less<unsigned long>,std::allocator<std::pair<unsigned long const ,ioHashString> >,0> >::end
; Function compile flags: /Ogsp
;	COMDAT ?end@?$_Tree@V?$_Tmap_traits@KVioHashString@@U?$less@K@std@@V?$allocator@U?$pair@$$CBKVioHashString@@@std@@@3@$0A@@std@@@std@@QAE?AV?$_Tree_iterator@V?$_Tree_val@V?$_Tmap_traits@KVioHashString@@U?$less@K@std@@V?$allocator@U?$pair@$$CBKVioHashString@@@std@@@3@$0A@@std@@@std@@@2@XZ
_TEXT	SEGMENT
___$ReturnUdt$ = 8					; size = 4
?end@?$_Tree@V?$_Tmap_traits@KVioHashString@@U?$less@K@std@@V?$allocator@U?$pair@$$CBKVioHashString@@@std@@@3@$0A@@std@@@std@@QAE?AV?$_Tree_iterator@V?$_Tree_val@V?$_Tmap_traits@KVioHashString@@U?$less@K@std@@V?$allocator@U?$pair@$$CBKVioHashString@@@std@@@3@$0A@@std@@@std@@@2@XZ PROC ; std::_Tree<std::_Tmap_traits<unsigned long,ioHashString,std::less<unsigned long>,std::allocator<std::pair<unsigned long const ,ioHashString> >,0> >::end, COMDAT
; _this$ = ecx

; 816  : 		{	// return iterator for end of mutable sequence

  00000	55		 push	 ebp
  00001	8b ec		 mov	 ebp, esp

; 817  : 		return (iterator(this->_Myhead, this));

  00003	8b 49 04	 mov	 ecx, DWORD PTR [ecx+4]
  00006	8b 45 08	 mov	 eax, DWORD PTR ___$ReturnUdt$[ebp]
  00009	89 08		 mov	 DWORD PTR [eax], ecx

; 818  : 		}

  0000b	5d		 pop	 ebp
  0000c	c2 04 00	 ret	 4
?end@?$_Tree@V?$_Tmap_traits@KVioHashString@@U?$less@K@std@@V?$allocator@U?$pair@$$CBKVioHashString@@@std@@@3@$0A@@std@@@std@@QAE?AV?$_Tree_iterator@V?$_Tree_val@V?$_Tmap_traits@KVioHashString@@U?$less@K@std@@V?$allocator@U?$pair@$$CBKVioHashString@@@std@@@3@$0A@@std@@@std@@@2@XZ ENDP ; std::_Tree<std::_Tmap_traits<unsigned long,ioHashString,std::less<unsigned long>,std::allocator<std::pair<unsigned long const ,ioHashString> >,0> >::end
_TEXT	ENDS
PUBLIC	??0?$_Tree_val@V?$_Tmap_traits@KVioHashString@@U?$less@K@std@@V?$allocator@U?$pair@$$CBKVioHashString@@@std@@@3@$0A@@std@@@std@@QAE@ABU?$less@K@1@V?$allocator@U?$pair@$$CBKVioHashString@@@std@@@1@@Z ; std::_Tree_val<std::_Tmap_traits<unsigned long,ioHashString,std::less<unsigned long>,std::allocator<std::pair<unsigned long const ,ioHashString> >,0> >::_Tree_val<std::_Tmap_traits<unsigned long,ioHashString,std::less<unsigned long>,std::allocator<std::pair<unsigned long const ,ioHashString> >,0> >
; Function compile flags: /Ogsp
;	COMDAT ??0?$_Tree_val@V?$_Tmap_traits@KVioHashString@@U?$less@K@std@@V?$allocator@U?$pair@$$CBKVioHashString@@@std@@@3@$0A@@std@@@std@@QAE@ABU?$less@K@1@V?$allocator@U?$pair@$$CBKVioHashString@@@std@@@1@@Z
_TEXT	SEGMENT
$T529282 = -16						; size = 12
$T529259 = -4						; size = 4
__Parg$ = 8						; size = 4
__Al$ = 12						; size = 1
??0?$_Tree_val@V?$_Tmap_traits@KVioHashString@@U?$less@K@std@@V?$allocator@U?$pair@$$CBKVioHashString@@@std@@@3@$0A@@std@@@std@@QAE@ABU?$less@K@1@V?$allocator@U?$pair@$$CBKVioHashString@@@std@@@1@@Z PROC ; std::_Tree_val<std::_Tmap_traits<unsigned long,ioHashString,std::less<unsigned long>,std::allocator<std::pair<unsigned long const ,ioHashString> >,0> >::_Tree_val<std::_Tmap_traits<unsigned long,ioHashString,std::less<unsigned long>,std::allocator<std::pair<unsigned long const ,ioHashString> >,0> >, COMDAT
; _this$ = ecx

; 542  : 		{	// construct base, and allocator from _Al

  00000	55		 push	 ebp
  00001	8b ec		 mov	 ebp, esp
  00003	83 ec 10	 sub	 esp, 16			; 00000010H
  00006	56		 push	 esi
  00007	8b f1		 mov	 esi, ecx

; 543  : 		this->_Mysize = 0;

  00009	83 66 08 00	 and	 DWORD PTR [esi+8], 0

; 544  : 		this->_Myhead = this->_Alnod.allocate(1);

  0000d	6a 24		 push	 36			; 00000024H
  0000f	e8 00 00 00 00	 call	 ??2@YAPAXI@Z		; operator new
  00014	59		 pop	 ecx
  00015	85 c0		 test	 eax, eax
  00017	74 26		 je	 SHORT $LN15@Tree_val
  00019	89 46 04	 mov	 DWORD PTR [esi+4], eax

; 545  : 
; 546  : 		this->_Left(this->_Myhead) = this->_Myhead;

  0001c	89 00		 mov	 DWORD PTR [eax], eax

; 547  : 		this->_Parent(this->_Myhead) = this->_Myhead;

  0001e	8b 46 04	 mov	 eax, DWORD PTR [esi+4]
  00021	89 40 04	 mov	 DWORD PTR [eax+4], eax

; 548  : 		this->_Right(this->_Myhead) = this->_Myhead;

  00024	8b 46 04	 mov	 eax, DWORD PTR [esi+4]
  00027	89 40 08	 mov	 DWORD PTR [eax+8], eax

; 549  : 		this->_Color(this->_Myhead) = this->_Black;

  0002a	8b 46 04	 mov	 eax, DWORD PTR [esi+4]
  0002d	c6 40 20 01	 mov	 BYTE PTR [eax+32], 1

; 550  : 		this->_Isnil(this->_Myhead) = true;

  00031	8b 46 04	 mov	 eax, DWORD PTR [esi+4]
  00034	c6 40 21 01	 mov	 BYTE PTR [eax+33], 1

; 551  : 		}

  00038	8b c6		 mov	 eax, esi
  0003a	5e		 pop	 esi
  0003b	c9		 leave
  0003c	c2 08 00	 ret	 8

; 544  : 		this->_Myhead = this->_Alnod.allocate(1);

$LN15@Tree_val:
  0003f	83 65 fc 00	 and	 DWORD PTR $T529259[ebp], 0
  00043	8d 45 fc	 lea	 eax, DWORD PTR $T529259[ebp]
  00046	50		 push	 eax
  00047	8d 4d f0	 lea	 ecx, DWORD PTR $T529282[ebp]
  0004a	ff 15 00 00 00
	00		 call	 DWORD PTR __imp_??0exception@std@@QAE@ABQBD@Z
  00050	68 00 00 00 00	 push	 OFFSET __TI2?AVbad_alloc@std@@
  00055	8d 45 f0	 lea	 eax, DWORD PTR $T529282[ebp]
  00058	50		 push	 eax
  00059	c7 45 f0 00 00
	00 00		 mov	 DWORD PTR $T529282[ebp], OFFSET ??_7bad_alloc@std@@6B@
  00060	e8 00 00 00 00	 call	 __CxxThrowException@8
$LN37@Tree_val:
$LN36@Tree_val:
  00065	cc		 int	 3
??0?$_Tree_val@V?$_Tmap_traits@KVioHashString@@U?$less@K@std@@V?$allocator@U?$pair@$$CBKVioHashString@@@std@@@3@$0A@@std@@@std@@QAE@ABU?$less@K@1@V?$allocator@U?$pair@$$CBKVioHashString@@@std@@@1@@Z ENDP ; std::_Tree_val<std::_Tmap_traits<unsigned long,ioHashString,std::less<unsigned long>,std::allocator<std::pair<unsigned long const ,ioHashString> >,0> >::_Tree_val<std::_Tmap_traits<unsigned long,ioHashString,std::less<unsigned long>,std::allocator<std::pair<unsigned long const ,ioHashString> >,0> >
_TEXT	ENDS
PUBLIC	?_Make_iter@?$vector@USwingParam@@V?$allocator@USwingParam@@@std@@@std@@QBE?AV?$_Vector_iterator@V?$_Vector_val@USwingParam@@V?$allocator@USwingParam@@@std@@@std@@@2@V?$_Vector_const_iterator@V?$_Vector_val@USwingParam@@V?$allocator@USwingParam@@@std@@@std@@@2@@Z ; std::vector<SwingParam,std::allocator<SwingParam> >::_Make_iter
; Function compile flags: /Ogsp
; File c:\program files (x86)\microsoft visual studio 10.0\vc\include\vector
;	COMDAT ?_Make_iter@?$vector@USwingParam@@V?$allocator@USwingParam@@@std@@@std@@QBE?AV?$_Vector_iterator@V?$_Vector_val@USwingParam@@V?$allocator@USwingParam@@@std@@@std@@@2@V?$_Vector_const_iterator@V?$_Vector_val@USwingParam@@V?$allocator@USwingParam@@@std@@@std@@@2@@Z
_TEXT	SEGMENT
___$ReturnUdt$ = 8					; size = 4
__Where$ = 12						; size = 4
?_Make_iter@?$vector@USwingParam@@V?$allocator@USwingParam@@@std@@@std@@QBE?AV?$_Vector_iterator@V?$_Vector_val@USwingParam@@V?$allocator@USwingParam@@@std@@@std@@@2@V?$_Vector_const_iterator@V?$_Vector_val@USwingParam@@V?$allocator@USwingParam@@@std@@@std@@@2@@Z PROC ; std::vector<SwingParam,std::allocator<SwingParam> >::_Make_iter, COMDAT
; _this$ = ecx

; 801  : 		{	// make iterator from const_iterator

  00000	55		 push	 ebp
  00001	8b ec		 mov	 ebp, esp

; 802  : 		return (iterator(_Where._Ptr, this));

  00003	8b 45 08	 mov	 eax, DWORD PTR ___$ReturnUdt$[ebp]
  00006	8b 4d 0c	 mov	 ecx, DWORD PTR __Where$[ebp]
  00009	89 08		 mov	 DWORD PTR [eax], ecx

; 803  : 		}

  0000b	5d		 pop	 ebp
  0000c	c2 08 00	 ret	 8
?_Make_iter@?$vector@USwingParam@@V?$allocator@USwingParam@@@std@@@std@@QBE?AV?$_Vector_iterator@V?$_Vector_val@USwingParam@@V?$allocator@USwingParam@@@std@@@std@@@2@V?$_Vector_const_iterator@V?$_Vector_val@USwingParam@@V?$allocator@USwingParam@@@std@@@std@@@2@@Z ENDP ; std::vector<SwingParam,std::allocator<SwingParam> >::_Make_iter
_TEXT	ENDS
PUBLIC	??E?$_Tree_const_iterator@V?$_Tree_val@V?$_Tmap_traits@KVioHashString@@U?$less@K@std@@V?$allocator@U?$pair@$$CBKVioHashString@@@std@@@3@$0A@@std@@@std@@@std@@QAE?AV01@H@Z ; std::_Tree_const_iterator<std::_Tree_val<std::_Tmap_traits<unsigned long,ioHashString,std::less<unsigned long>,std::allocator<std::pair<unsigned long const ,ioHashString> >,0> > >::operator++
; Function compile flags: /Ogsp
; File c:\program files (x86)\microsoft visual studio 10.0\vc\include\xtree
;	COMDAT ??E?$_Tree_const_iterator@V?$_Tree_val@V?$_Tmap_traits@KVioHashString@@U?$less@K@std@@V?$allocator@U?$pair@$$CBKVioHashString@@@std@@@3@$0A@@std@@@std@@@std@@QAE?AV01@H@Z
_TEXT	SEGMENT
___$ReturnUdt$ = 8					; size = 4
___formal$ = 12						; size = 4
??E?$_Tree_const_iterator@V?$_Tree_val@V?$_Tmap_traits@KVioHashString@@U?$less@K@std@@V?$allocator@U?$pair@$$CBKVioHashString@@@std@@@3@$0A@@std@@@std@@@std@@QAE?AV01@H@Z PROC ; std::_Tree_const_iterator<std::_Tree_val<std::_Tmap_traits<unsigned long,ioHashString,std::less<unsigned long>,std::allocator<std::pair<unsigned long const ,ioHashString> >,0> > >::operator++, COMDAT
; _this$ = ecx

; 270  : 		{	// postincrement

  00000	55		 push	 ebp
  00001	8b ec		 mov	 ebp, esp

; 271  : 		_Myiter _Tmp = *this;

  00003	8b 01		 mov	 eax, DWORD PTR [ecx]
  00005	56		 push	 esi
  00006	8b 75 08	 mov	 esi, DWORD PTR ___$ReturnUdt$[ebp]
  00009	89 06		 mov	 DWORD PTR [esi], eax

; 272  : 		++*this;

  0000b	e8 00 00 00 00	 call	 ??E?$_Tree_unchecked_const_iterator@V?$_Tree_val@V?$_Tmap_traits@KVioHashString@@U?$less@K@std@@V?$allocator@U?$pair@$$CBKVioHashString@@@std@@@3@$0A@@std@@@std@@U_Iterator_base0@2@@std@@QAEAAV01@XZ ; std::_Tree_unchecked_const_iterator<std::_Tree_val<std::_Tmap_traits<unsigned long,ioHashString,std::less<unsigned long>,std::allocator<std::pair<unsigned long const ,ioHashString> >,0> >,std::_Iterator_base0>::operator++

; 273  : 		return (_Tmp);

  00010	8b c6		 mov	 eax, esi
  00012	5e		 pop	 esi

; 274  : 		}

  00013	5d		 pop	 ebp
  00014	c2 08 00	 ret	 8
??E?$_Tree_const_iterator@V?$_Tree_val@V?$_Tmap_traits@KVioHashString@@U?$less@K@std@@V?$allocator@U?$pair@$$CBKVioHashString@@@std@@@3@$0A@@std@@@std@@@std@@QAE?AV01@H@Z ENDP ; std::_Tree_const_iterator<std::_Tree_val<std::_Tmap_traits<unsigned long,ioHashString,std::less<unsigned long>,std::allocator<std::pair<unsigned long const ,ioHashString> >,0> > >::operator++
_TEXT	ENDS
PUBLIC	??9?$_Vector_const_iterator@V?$_Vector_val@USwingParam@@V?$allocator@USwingParam@@@std@@@std@@@std@@QBE_NABV01@@Z ; std::_Vector_const_iterator<std::_Vector_val<SwingParam,std::allocator<SwingParam> > >::operator!=
; Function compile flags: /Ogsp
; File c:\program files (x86)\microsoft visual studio 10.0\vc\include\vector
;	COMDAT ??9?$_Vector_const_iterator@V?$_Vector_val@USwingParam@@V?$allocator@USwingParam@@@std@@@std@@@std@@QBE_NABV01@@Z
_TEXT	SEGMENT
__Right$ = 8						; size = 4
??9?$_Vector_const_iterator@V?$_Vector_val@USwingParam@@V?$allocator@USwingParam@@@std@@@std@@@std@@QBE_NABV01@@Z PROC ; std::_Vector_const_iterator<std::_Vector_val<SwingParam,std::allocator<SwingParam> > >::operator!=, COMDAT
; _this$ = ecx

; 207  : 		{	// test for iterator inequality

  00000	55		 push	 ebp
  00001	8b ec		 mov	 ebp, esp

; 208  : 		return (!(*this == _Right));

  00003	8b 01		 mov	 eax, DWORD PTR [ecx]
  00005	8b 55 08	 mov	 edx, DWORD PTR __Right$[ebp]
  00008	33 c9		 xor	 ecx, ecx
  0000a	3b 02		 cmp	 eax, DWORD PTR [edx]
  0000c	0f 95 c0	 setne	 al

; 209  : 		}

  0000f	5d		 pop	 ebp
  00010	c2 04 00	 ret	 4
??9?$_Vector_const_iterator@V?$_Vector_val@USwingParam@@V?$allocator@USwingParam@@@std@@@std@@@std@@QBE_NABV01@@Z ENDP ; std::_Vector_const_iterator<std::_Vector_val<SwingParam,std::allocator<SwingParam> > >::operator!=
_TEXT	ENDS
PUBLIC	??$?0AAHAAY0BAE@D@?$pair@$$CBKVioHashString@@@std@@QAE@AAHAAY0BAE@D@Z ; std::pair<unsigned long const ,ioHashString>::pair<unsigned long const ,ioHashString><int &,char (&)[260]>
; Function compile flags: /Ogsp
; File c:\program files (x86)\microsoft visual studio 10.0\vc\include\utility
;	COMDAT ??$?0AAHAAY0BAE@D@?$pair@$$CBKVioHashString@@@std@@QAE@AAHAAY0BAE@D@Z
_TEXT	SEGMENT
__Val1$ = 8						; size = 4
__Val2$ = 12						; size = 4
??$?0AAHAAY0BAE@D@?$pair@$$CBKVioHashString@@@std@@QAE@AAHAAY0BAE@D@Z PROC ; std::pair<unsigned long const ,ioHashString>::pair<unsigned long const ,ioHashString><int &,char (&)[260]>, COMDAT
; _this$ = ecx

; 247  : 		{	// construct from moved values

  00000	55		 push	 ebp
  00001	8b ec		 mov	 ebp, esp
  00003	8b 45 08	 mov	 eax, DWORD PTR __Val1$[ebp]
  00006	8b 00		 mov	 eax, DWORD PTR [eax]
  00008	56		 push	 esi
  00009	ff 75 0c	 push	 DWORD PTR __Val2$[ebp]
  0000c	8b f1		 mov	 esi, ecx
  0000e	8d 4e 04	 lea	 ecx, DWORD PTR [esi+4]
  00011	89 06		 mov	 DWORD PTR [esi], eax
  00013	ff 15 00 00 00
	00		 call	 DWORD PTR __imp_??0ioHashString@@QAE@PBD@Z

; 248  : 		}

  00019	8b c6		 mov	 eax, esi
  0001b	5e		 pop	 esi
  0001c	5d		 pop	 ebp
  0001d	c2 08 00	 ret	 8
??$?0AAHAAY0BAE@D@?$pair@$$CBKVioHashString@@@std@@QAE@AAHAAY0BAE@D@Z ENDP ; std::pair<unsigned long const ,ioHashString>::pair<unsigned long const ,ioHashString><int &,char (&)[260]>
_TEXT	ENDS
PUBLIC	??$_Cons_val@V?$allocator@USwingParam@@@std@@USwingParam@@ABU3@@std@@YAXAAV?$allocator@USwingParam@@@0@PAUSwingParam@@ABU2@@Z ; std::_Cons_val<std::allocator<SwingParam>,SwingParam,SwingParam const &>
; Function compile flags: /Ogsp
; File c:\program files (x86)\microsoft visual studio 10.0\vc\include\xmemory
;	COMDAT ??$_Cons_val@V?$allocator@USwingParam@@@std@@USwingParam@@ABU3@@std@@YAXAAV?$allocator@USwingParam@@@0@PAUSwingParam@@ABU2@@Z
_TEXT	SEGMENT
__Alval$ = 8						; size = 4
__Pdest$ = 12						; size = 4
__Src$ = 16						; size = 4
??$_Cons_val@V?$allocator@USwingParam@@@std@@USwingParam@@ABU3@@std@@YAXAAV?$allocator@USwingParam@@@0@PAUSwingParam@@ABU2@@Z PROC ; std::_Cons_val<std::allocator<SwingParam>,SwingParam,SwingParam const &>, COMDAT

; 279  : 	{	// construct using allocator

  00000	55		 push	 ebp
  00001	8b ec		 mov	 ebp, esp
  00003	57		 push	 edi

; 280  : 	_Alval.construct(_Pdest, _STD forward<_Ty2>(_Src));

  00004	8b 7d 0c	 mov	 edi, DWORD PTR __Pdest$[ebp]
  00007	85 ff		 test	 edi, edi
  00009	74 09		 je	 SHORT $LN9@Cons_val@2
  0000b	56		 push	 esi
  0000c	8b 75 10	 mov	 esi, DWORD PTR __Src$[ebp]
  0000f	a5		 movsd
  00010	a5		 movsd
  00011	a5		 movsd
  00012	a5		 movsd
  00013	5e		 pop	 esi
$LN9@Cons_val@2:
  00014	5f		 pop	 edi

; 281  : 	}

  00015	5d		 pop	 ebp
  00016	c3		 ret	 0
??$_Cons_val@V?$allocator@USwingParam@@@std@@USwingParam@@ABU3@@std@@YAXAAV?$allocator@USwingParam@@@0@PAUSwingParam@@ABU2@@Z ENDP ; std::_Cons_val<std::allocator<SwingParam>,SwingParam,SwingParam const &>
_TEXT	ENDS
PUBLIC	??$_Move@PAUSwingParam@@PAU1@@std@@YAPAUSwingParam@@PAU1@00@Z ; std::_Move<SwingParam *,SwingParam *>
; Function compile flags: /Ogsp
; File c:\program files (x86)\microsoft visual studio 10.0\vc\include\xutility
;	COMDAT ??$_Move@PAUSwingParam@@PAU1@@std@@YAPAUSwingParam@@PAU1@00@Z
_TEXT	SEGMENT
__Cat$529407 = -4					; size = 1
__First$ = 8						; size = 4
__Last$ = 12						; size = 4
__Dest$ = 16						; size = 4
??$_Move@PAUSwingParam@@PAU1@@std@@YAPAUSwingParam@@PAU1@00@Z PROC ; std::_Move<SwingParam *,SwingParam *>, COMDAT

; 2533 : 	{	// move [_First, _Last) to [_Dest, ...), unchecked

  00000	55		 push	 ebp
  00001	8b ec		 mov	 ebp, esp
  00003	51		 push	 ecx

; 2534 : 	return (_Move(_First, _Last,
; 2535 : 		_Dest, _Ptr_cat(_First, _Dest)));

  00004	ff 75 fc	 push	 DWORD PTR __Cat$529407[ebp]
  00007	ff 75 10	 push	 DWORD PTR __Dest$[ebp]
  0000a	ff 75 0c	 push	 DWORD PTR __Last$[ebp]
  0000d	ff 75 08	 push	 DWORD PTR __First$[ebp]
  00010	e8 00 00 00 00	 call	 ??$_Move@PAUSwingParam@@PAU1@@std@@YAPAUSwingParam@@PAU1@00U_Nonscalar_ptr_iterator_tag@0@@Z ; std::_Move<SwingParam *,SwingParam *>
  00015	83 c4 10	 add	 esp, 16			; 00000010H

; 2536 : 	}

  00018	c9		 leave
  00019	c3		 ret	 0
??$_Move@PAUSwingParam@@PAU1@@std@@YAPAUSwingParam@@PAU1@00@Z ENDP ; std::_Move<SwingParam *,SwingParam *>
_TEXT	ENDS
PUBLIC	??0?$pair@V?$_Tree_iterator@V?$_Tree_val@V?$_Tmap_traits@KVioHashString@@U?$less@K@std@@V?$allocator@U?$pair@$$CBKVioHashString@@@std@@@3@$0A@@std@@@std@@@std@@_N@std@@QAE@$$QAV?$_Tree_iterator@V?$_Tree_val@V?$_Tmap_traits@KVioHashString@@U?$less@K@std@@V?$allocator@U?$pair@$$CBKVioHashString@@@std@@@3@$0A@@std@@@std@@@1@$$QA_N@Z ; std::pair<std::_Tree_iterator<std::_Tree_val<std::_Tmap_traits<unsigned long,ioHashString,std::less<unsigned long>,std::allocator<std::pair<unsigned long const ,ioHashString> >,0> > >,bool>::pair<std::_Tree_iterator<std::_Tree_val<std::_Tmap_traits<unsigned long,ioHashString,std::less<unsigned long>,std::allocator<std::pair<unsigned long const ,ioHashString> >,0> > >,bool>
; Function compile flags: /Ogsp
; File c:\program files (x86)\microsoft visual studio 10.0\vc\include\utility
;	COMDAT ??0?$pair@V?$_Tree_iterator@V?$_Tree_val@V?$_Tmap_traits@KVioHashString@@U?$less@K@std@@V?$allocator@U?$pair@$$CBKVioHashString@@@std@@@3@$0A@@std@@@std@@@std@@_N@std@@QAE@$$QAV?$_Tree_iterator@V?$_Tree_val@V?$_Tmap_traits@KVioHashString@@U?$less@K@std@@V?$allocator@U?$pair@$$CBKVioHashString@@@std@@@3@$0A@@std@@@std@@@1@$$QA_N@Z
_TEXT	SEGMENT
__Val1$ = 8						; size = 4
__Val2$ = 12						; size = 4
??0?$pair@V?$_Tree_iterator@V?$_Tree_val@V?$_Tmap_traits@KVioHashString@@U?$less@K@std@@V?$allocator@U?$pair@$$CBKVioHashString@@@std@@@3@$0A@@std@@@std@@@std@@_N@std@@QAE@$$QAV?$_Tree_iterator@V?$_Tree_val@V?$_Tmap_traits@KVioHashString@@U?$less@K@std@@V?$allocator@U?$pair@$$CBKVioHashString@@@std@@@3@$0A@@std@@@std@@@1@$$QA_N@Z PROC ; std::pair<std::_Tree_iterator<std::_Tree_val<std::_Tmap_traits<unsigned long,ioHashString,std::less<unsigned long>,std::allocator<std::pair<unsigned long const ,ioHashString> >,0> > >,bool>::pair<std::_Tree_iterator<std::_Tree_val<std::_Tmap_traits<unsigned long,ioHashString,std::less<unsigned long>,std::allocator<std::pair<unsigned long const ,ioHashString> >,0> > >,bool>, COMDAT
; _this$ = ecx

; 227  : 		{	// construct from specified values

  00000	55		 push	 ebp
  00001	8b ec		 mov	 ebp, esp
  00003	8b c1		 mov	 eax, ecx
  00005	8b 4d 08	 mov	 ecx, DWORD PTR __Val1$[ebp]
  00008	8b 09		 mov	 ecx, DWORD PTR [ecx]
  0000a	89 08		 mov	 DWORD PTR [eax], ecx
  0000c	8b 4d 0c	 mov	 ecx, DWORD PTR __Val2$[ebp]
  0000f	8a 09		 mov	 cl, BYTE PTR [ecx]
  00011	88 48 04	 mov	 BYTE PTR [eax+4], cl

; 228  : 		}

  00014	5d		 pop	 ebp
  00015	c2 08 00	 ret	 8
??0?$pair@V?$_Tree_iterator@V?$_Tree_val@V?$_Tmap_traits@KVioHashString@@U?$less@K@std@@V?$allocator@U?$pair@$$CBKVioHashString@@@std@@@3@$0A@@std@@@std@@@std@@_N@std@@QAE@$$QAV?$_Tree_iterator@V?$_Tree_val@V?$_Tmap_traits@KVioHashString@@U?$less@K@std@@V?$allocator@U?$pair@$$CBKVioHashString@@@std@@@3@$0A@@std@@@std@@@1@$$QA_N@Z ENDP ; std::pair<std::_Tree_iterator<std::_Tree_val<std::_Tmap_traits<unsigned long,ioHashString,std::less<unsigned long>,std::allocator<std::pair<unsigned long const ,ioHashString> >,0> > >,bool>::pair<std::_Tree_iterator<std::_Tree_val<std::_Tmap_traits<unsigned long,ioHashString,std::less<unsigned long>,std::allocator<std::pair<unsigned long const ,ioHashString> >,0> > >,bool>
_TEXT	ENDS
PUBLIC	??F?$_Tree_iterator@V?$_Tree_val@V?$_Tmap_traits@KVioHashString@@U?$less@K@std@@V?$allocator@U?$pair@$$CBKVioHashString@@@std@@@3@$0A@@std@@@std@@@std@@QAEAAV01@XZ ; std::_Tree_iterator<std::_Tree_val<std::_Tmap_traits<unsigned long,ioHashString,std::less<unsigned long>,std::allocator<std::pair<unsigned long const ,ioHashString> >,0> > >::operator--
; Function compile flags: /Ogsp
; File c:\program files (x86)\microsoft visual studio 10.0\vc\include\xtree
;	COMDAT ??F?$_Tree_iterator@V?$_Tree_val@V?$_Tmap_traits@KVioHashString@@U?$less@K@std@@V?$allocator@U?$pair@$$CBKVioHashString@@@std@@@3@$0A@@std@@@std@@@std@@QAEAAV01@XZ
_TEXT	SEGMENT
??F?$_Tree_iterator@V?$_Tree_val@V?$_Tmap_traits@KVioHashString@@U?$less@K@std@@V?$allocator@U?$pair@$$CBKVioHashString@@@std@@@3@$0A@@std@@@std@@@std@@QAEAAV01@XZ PROC ; std::_Tree_iterator<std::_Tree_val<std::_Tmap_traits<unsigned long,ioHashString,std::less<unsigned long>,std::allocator<std::pair<unsigned long const ,ioHashString> >,0> > >::operator--, COMDAT
; _this$ = ecx

; 418  : 		{	// predecrement

  00000	56		 push	 esi
  00001	8b f1		 mov	 esi, ecx

; 419  : 		--(*(_Mybase *)this);

  00003	e8 00 00 00 00	 call	 ??F?$_Tree_unchecked_const_iterator@V?$_Tree_val@V?$_Tmap_traits@KVioHashString@@U?$less@K@std@@V?$allocator@U?$pair@$$CBKVioHashString@@@std@@@3@$0A@@std@@@std@@U_Iterator_base0@2@@std@@QAEAAV01@XZ ; std::_Tree_unchecked_const_iterator<std::_Tree_val<std::_Tmap_traits<unsigned long,ioHashString,std::less<unsigned long>,std::allocator<std::pair<unsigned long const ,ioHashString> >,0> >,std::_Iterator_base0>::operator--

; 420  : 		return (*this);

  00008	8b c6		 mov	 eax, esi
  0000a	5e		 pop	 esi

; 421  : 		}

  0000b	c3		 ret	 0
??F?$_Tree_iterator@V?$_Tree_val@V?$_Tmap_traits@KVioHashString@@U?$less@K@std@@V?$allocator@U?$pair@$$CBKVioHashString@@@std@@@3@$0A@@std@@@std@@@std@@QAEAAV01@XZ ENDP ; std::_Tree_iterator<std::_Tree_val<std::_Tmap_traits<unsigned long,ioHashString,std::less<unsigned long>,std::allocator<std::pair<unsigned long const ,ioHashString> >,0> > >::operator--
_TEXT	ENDS
PUBLIC	??$?0AAV?$_Tree_iterator@V?$_Tree_val@V?$_Tmap_traits@KVioHashString@@U?$less@K@std@@V?$allocator@U?$pair@$$CBKVioHashString@@@std@@@3@$0A@@std@@@std@@@std@@_N@?$pair@V?$_Tree_iterator@V?$_Tree_val@V?$_Tmap_traits@KVioHashString@@U?$less@K@std@@V?$allocator@U?$pair@$$CBKVioHashString@@@std@@@3@$0A@@std@@@std@@@std@@_N@std@@QAE@AAV?$_Tree_iterator@V?$_Tree_val@V?$_Tmap_traits@KVioHashString@@U?$less@K@std@@V?$allocator@U?$pair@$$CBKVioHashString@@@std@@@3@$0A@@std@@@std@@@1@$$QA_N@Z ; std::pair<std::_Tree_iterator<std::_Tree_val<std::_Tmap_traits<unsigned long,ioHashString,std::less<unsigned long>,std::allocator<std::pair<unsigned long const ,ioHashString> >,0> > >,bool>::pair<std::_Tree_iterator<std::_Tree_val<std::_Tmap_traits<unsigned long,ioHashString,std::less<unsigned long>,std::allocator<std::pair<unsigned long const ,ioHashString> >,0> > >,bool><std::_Tree_iterator<std::_Tree_val<std::_Tmap_traits<unsigned long,ioHashString,std::less<unsigned long>,std::allocator<std::pair<unsigned long const ,ioHashString> >,0> > > &,bool>
; Function compile flags: /Ogsp
; File c:\program files (x86)\microsoft visual studio 10.0\vc\include\utility
;	COMDAT ??$?0AAV?$_Tree_iterator@V?$_Tree_val@V?$_Tmap_traits@KVioHashString@@U?$less@K@std@@V?$allocator@U?$pair@$$CBKVioHashString@@@std@@@3@$0A@@std@@@std@@@std@@_N@?$pair@V?$_Tree_iterator@V?$_Tree_val@V?$_Tmap_traits@KVioHashString@@U?$less@K@std@@V?$allocator@U?$pair@$$CBKVioHashString@@@std@@@3@$0A@@std@@@std@@@std@@_N@std@@QAE@AAV?$_Tree_iterator@V?$_Tree_val@V?$_Tmap_traits@KVioHashString@@U?$less@K@std@@V?$allocator@U?$pair@$$CBKVioHashString@@@std@@@3@$0A@@std@@@std@@@1@$$QA_N@Z
_TEXT	SEGMENT
__Val1$ = 8						; size = 4
__Val2$ = 12						; size = 4
??$?0AAV?$_Tree_iterator@V?$_Tree_val@V?$_Tmap_traits@KVioHashString@@U?$less@K@std@@V?$allocator@U?$pair@$$CBKVioHashString@@@std@@@3@$0A@@std@@@std@@@std@@_N@?$pair@V?$_Tree_iterator@V?$_Tree_val@V?$_Tmap_traits@KVioHashString@@U?$less@K@std@@V?$allocator@U?$pair@$$CBKVioHashString@@@std@@@3@$0A@@std@@@std@@@std@@_N@std@@QAE@AAV?$_Tree_iterator@V?$_Tree_val@V?$_Tmap_traits@KVioHashString@@U?$less@K@std@@V?$allocator@U?$pair@$$CBKVioHashString@@@std@@@3@$0A@@std@@@std@@@1@$$QA_N@Z PROC ; std::pair<std::_Tree_iterator<std::_Tree_val<std::_Tmap_traits<unsigned long,ioHashString,std::less<unsigned long>,std::allocator<std::pair<unsigned long const ,ioHashString> >,0> > >,bool>::pair<std::_Tree_iterator<std::_Tree_val<std::_Tmap_traits<unsigned long,ioHashString,std::less<unsigned long>,std::allocator<std::pair<unsigned long const ,ioHashString> >,0> > >,bool><std::_Tree_iterator<std::_Tree_val<std::_Tmap_traits<unsigned long,ioHashString,std::less<unsigned long>,std::allocator<std::pair<unsigned long const ,ioHashString> >,0> > > &,bool>, COMDAT
; _this$ = ecx

; 247  : 		{	// construct from moved values

  00000	55		 push	 ebp
  00001	8b ec		 mov	 ebp, esp
  00003	8b c1		 mov	 eax, ecx
  00005	8b 4d 08	 mov	 ecx, DWORD PTR __Val1$[ebp]
  00008	8b 09		 mov	 ecx, DWORD PTR [ecx]
  0000a	89 08		 mov	 DWORD PTR [eax], ecx
  0000c	8b 4d 0c	 mov	 ecx, DWORD PTR __Val2$[ebp]
  0000f	8a 09		 mov	 cl, BYTE PTR [ecx]
  00011	88 48 04	 mov	 BYTE PTR [eax+4], cl

; 248  : 		}

  00014	5d		 pop	 ebp
  00015	c2 08 00	 ret	 8
??$?0AAV?$_Tree_iterator@V?$_Tree_val@V?$_Tmap_traits@KVioHashString@@U?$less@K@std@@V?$allocator@U?$pair@$$CBKVioHashString@@@std@@@3@$0A@@std@@@std@@@std@@_N@?$pair@V?$_Tree_iterator@V?$_Tree_val@V?$_Tmap_traits@KVioHashString@@U?$less@K@std@@V?$allocator@U?$pair@$$CBKVioHashString@@@std@@@3@$0A@@std@@@std@@@std@@_N@std@@QAE@AAV?$_Tree_iterator@V?$_Tree_val@V?$_Tmap_traits@KVioHashString@@U?$less@K@std@@V?$allocator@U?$pair@$$CBKVioHashString@@@std@@@3@$0A@@std@@@std@@@1@$$QA_N@Z ENDP ; std::pair<std::_Tree_iterator<std::_Tree_val<std::_Tmap_traits<unsigned long,ioHashString,std::less<unsigned long>,std::allocator<std::pair<unsigned long const ,ioHashString> >,0> > >,bool>::pair<std::_Tree_iterator<std::_Tree_val<std::_Tmap_traits<unsigned long,ioHashString,std::less<unsigned long>,std::allocator<std::pair<unsigned long const ,ioHashString> >,0> > >,bool><std::_Tree_iterator<std::_Tree_val<std::_Tmap_traits<unsigned long,ioHashString,std::less<unsigned long>,std::allocator<std::pair<unsigned long const ,ioHashString> >,0> > > &,bool>
_TEXT	ENDS
PUBLIC	??$_Destroy@U?$pair@$$CBKVioHashString@@@std@@@std@@YAXPAU?$pair@$$CBKVioHashString@@@0@@Z ; std::_Destroy<std::pair<unsigned long const ,ioHashString> >
; Function compile flags: /Ogsp
; File c:\program files (x86)\microsoft visual studio 10.0\vc\include\xmemory
;	COMDAT ??$_Destroy@U?$pair@$$CBKVioHashString@@@std@@@std@@YAXPAU?$pair@$$CBKVioHashString@@@0@@Z
_TEXT	SEGMENT
__Ptr$ = 8						; size = 4
??$_Destroy@U?$pair@$$CBKVioHashString@@@std@@@std@@YAXPAU?$pair@$$CBKVioHashString@@@0@@Z PROC ; std::_Destroy<std::pair<unsigned long const ,ioHashString> >, COMDAT

; 62   : 	{	// destroy object at _Ptr

  00000	55		 push	 ebp
  00001	8b ec		 mov	 ebp, esp

; 63   : 	_Ptr->~_Ty();

  00003	8b 4d 08	 mov	 ecx, DWORD PTR __Ptr$[ebp]
  00006	83 c1 04	 add	 ecx, 4

; 64   : 	}

  00009	5d		 pop	 ebp

; 63   : 	_Ptr->~_Ty();

  0000a	ff 25 00 00 00
	00		 jmp	 DWORD PTR __imp_??1ioHashString@@QAE@XZ
??$_Destroy@U?$pair@$$CBKVioHashString@@@std@@@std@@YAXPAU?$pair@$$CBKVioHashString@@@0@@Z ENDP ; std::_Destroy<std::pair<unsigned long const ,ioHashString> >
_TEXT	ENDS
PUBLIC	??$_Dest_val@V?$allocator@USwingParam@@@std@@USwingParam@@@std@@YAXAAV?$allocator@USwingParam@@@0@PAUSwingParam@@@Z ; std::_Dest_val<std::allocator<SwingParam>,SwingParam>
; Function compile flags: /Ogsp
;	COMDAT ??$_Dest_val@V?$allocator@USwingParam@@@std@@USwingParam@@@std@@YAXAAV?$allocator@USwingParam@@@0@PAUSwingParam@@@Z
_TEXT	SEGMENT
__Alval$ = 8						; size = 4
__Pdest$ = 12						; size = 4
??$_Dest_val@V?$allocator@USwingParam@@@std@@USwingParam@@@std@@YAXAAV?$allocator@USwingParam@@@0@PAUSwingParam@@@Z PROC ; std::_Dest_val<std::allocator<SwingParam>,SwingParam>, COMDAT

; 287  : 	_Alval.destroy(_Pdest);
; 288  : 	}

  00000	c3		 ret	 0
??$_Dest_val@V?$allocator@USwingParam@@@std@@USwingParam@@@std@@YAXAAV?$allocator@USwingParam@@@0@PAUSwingParam@@@Z ENDP ; std::_Dest_val<std::allocator<SwingParam>,SwingParam>
_TEXT	ENDS
PUBLIC	??$_Cons_val@V?$allocator@USwingParam@@@std@@USwingParam@@U3@@std@@YAXAAV?$allocator@USwingParam@@@0@PAUSwingParam@@$$QAU2@@Z ; std::_Cons_val<std::allocator<SwingParam>,SwingParam,SwingParam>
; Function compile flags: /Ogsp
;	COMDAT ??$_Cons_val@V?$allocator@USwingParam@@@std@@USwingParam@@U3@@std@@YAXAAV?$allocator@USwingParam@@@0@PAUSwingParam@@$$QAU2@@Z
_TEXT	SEGMENT
__Alval$ = 8						; size = 4
__Pdest$ = 12						; size = 4
__Src$ = 16						; size = 4
??$_Cons_val@V?$allocator@USwingParam@@@std@@USwingParam@@U3@@std@@YAXAAV?$allocator@USwingParam@@@0@PAUSwingParam@@$$QAU2@@Z PROC ; std::_Cons_val<std::allocator<SwingParam>,SwingParam,SwingParam>, COMDAT

; 279  : 	{	// construct using allocator

  00000	55		 push	 ebp
  00001	8b ec		 mov	 ebp, esp
  00003	57		 push	 edi

; 280  : 	_Alval.construct(_Pdest, _STD forward<_Ty2>(_Src));

  00004	8b 7d 0c	 mov	 edi, DWORD PTR __Pdest$[ebp]
  00007	85 ff		 test	 edi, edi
  00009	74 09		 je	 SHORT $LN7@Cons_val@3
  0000b	56		 push	 esi
  0000c	8b 75 10	 mov	 esi, DWORD PTR __Src$[ebp]
  0000f	a5		 movsd
  00010	a5		 movsd
  00011	a5		 movsd
  00012	a5		 movsd
  00013	5e		 pop	 esi
$LN7@Cons_val@3:
  00014	5f		 pop	 edi

; 281  : 	}

  00015	5d		 pop	 ebp
  00016	c3		 ret	 0
??$_Cons_val@V?$allocator@USwingParam@@@std@@USwingParam@@U3@@std@@YAXAAV?$allocator@USwingParam@@@0@PAUSwingParam@@$$QAU2@@Z ENDP ; std::_Cons_val<std::allocator<SwingParam>,SwingParam,SwingParam>
_TEXT	ENDS
PUBLIC	??$?0$$CBKVioHashString@@@?$pair@$$CBKVioHashString@@@std@@QAE@$$QAU01@@Z ; std::pair<unsigned long const ,ioHashString>::pair<unsigned long const ,ioHashString><unsigned long const ,ioHashString>
; Function compile flags: /Ogsp
; File c:\program files (x86)\microsoft visual studio 10.0\vc\include\utility
;	COMDAT ??$?0$$CBKVioHashString@@@?$pair@$$CBKVioHashString@@@std@@QAE@$$QAU01@@Z
_TEXT	SEGMENT
__Right$ = 8						; size = 4
??$?0$$CBKVioHashString@@@?$pair@$$CBKVioHashString@@@std@@QAE@$$QAU01@@Z PROC ; std::pair<unsigned long const ,ioHashString>::pair<unsigned long const ,ioHashString><unsigned long const ,ioHashString>, COMDAT
; _this$ = ecx

; 255  : 		{	// construct from moved compatible pair

  00000	55		 push	 ebp
  00001	8b ec		 mov	 ebp, esp
  00003	8b 45 08	 mov	 eax, DWORD PTR __Right$[ebp]
  00006	56		 push	 esi
  00007	8b f1		 mov	 esi, ecx
  00009	8b 08		 mov	 ecx, DWORD PTR [eax]
  0000b	83 c0 04	 add	 eax, 4
  0000e	89 0e		 mov	 DWORD PTR [esi], ecx
  00010	50		 push	 eax
  00011	8d 4e 04	 lea	 ecx, DWORD PTR [esi+4]
  00014	ff 15 00 00 00
	00		 call	 DWORD PTR __imp_??0ioHashString@@QAE@ABV0@@Z

; 256  : 		}

  0001a	8b c6		 mov	 eax, esi
  0001c	5e		 pop	 esi
  0001d	5d		 pop	 ebp
  0001e	c2 04 00	 ret	 4
??$?0$$CBKVioHashString@@@?$pair@$$CBKVioHashString@@@std@@QAE@$$QAU01@@Z ENDP ; std::pair<unsigned long const ,ioHashString>::pair<unsigned long const ,ioHashString><unsigned long const ,ioHashString>
_TEXT	ENDS
PUBLIC	?IsBaseEquipMesh@ioItemMaker@@QBE_NXZ		; ioItemMaker::IsBaseEquipMesh
; Function compile flags: /Ogsp
; File d:\lost saga for developer\youtube\tutorial\source\src\lsclient\ioitemmaker.h
;	COMDAT ?IsBaseEquipMesh@ioItemMaker@@QBE_NXZ
_TEXT	SEGMENT
_value$529543 = -1					; size = 1
?IsBaseEquipMesh@ioItemMaker@@QBE_NXZ PROC		; ioItemMaker::IsBaseEquipMesh, COMDAT
; _this$ = ecx

; 101  : 	inline bool IsBaseEquipMesh() const { return m_bUseBaseEquipMesh; }

  00000	55		 push	 ebp
  00001	8b ec		 mov	 ebp, esp
  00003	51		 push	 ecx
  00004	8d 45 ff	 lea	 eax, DWORD PTR _value$529543[ebp]
  00007	50		 push	 eax
  00008	83 c1 50	 add	 ecx, 80			; 00000050H
  0000b	e8 00 00 00 00	 call	 ?DecryptValueToPool@?$CEncrypt@_N@@QAEXPA_N@Z ; CEncrypt<bool>::DecryptValueToPool
  00010	8a 45 ff	 mov	 al, BYTE PTR _value$529543[ebp]
  00013	c9		 leave
  00014	c3		 ret	 0
?IsBaseEquipMesh@ioItemMaker@@QBE_NXZ ENDP		; ioItemMaker::IsBaseEquipMesh
_TEXT	ENDS
PUBLIC	??0?$CEncrypt@M@@QAE@ABM@Z			; CEncrypt<float>::CEncrypt<float>
EXTRN	??0ccddaabb@@QAE@XZ:PROC			; ccddaabb::ccddaabb
EXTRN	___CxxFrameHandler3:PROC
EXTRN	__EH_epilog3:PROC
EXTRN	__EH_prolog3:PROC
;	COMDAT xdata$x
; File d:\lost saga for developer\youtube\tutorial\source\src\lsclient\encryptvalue.h
xdata$x	SEGMENT
__unwindtable$??0?$CEncrypt@M@@QAE@ABM@Z DD 0ffffffffH
	DD	FLAT:__unwindfunclet$??0?$CEncrypt@M@@QAE@ABM@Z$0
__ehfuncinfo$??0?$CEncrypt@M@@QAE@ABM@Z DD 019930522H
	DD	01H
	DD	FLAT:__unwindtable$??0?$CEncrypt@M@@QAE@ABM@Z
	DD	2 DUP(00H)
	DD	2 DUP(00H)
	DD	00H
	DD	01H
; Function compile flags: /Ogsp
xdata$x	ENDS
;	COMDAT ??0?$CEncrypt@M@@QAE@ABM@Z
_TEXT	SEGMENT
_this$ = -16						; size = 4
__$EHRec$ = -12						; size = 12
_value$529551 = 8					; size = 4
_inValue$ = 8						; size = 4
??0?$CEncrypt@M@@QAE@ABM@Z PROC				; CEncrypt<float>::CEncrypt<float>, COMDAT
; _this$ = ecx

; 114  : 	CEncrypt( const type &inValue )        //     

  00000	6a 04		 push	 4
  00002	b8 00 00 00 00	 mov	 eax, __ehhandler$??0?$CEncrypt@M@@QAE@ABM@Z
  00007	e8 00 00 00 00	 call	 __EH_prolog3
  0000c	8b f1		 mov	 esi, ecx
  0000e	89 75 f0	 mov	 DWORD PTR _this$[ebp], esi
  00011	8d 4e 0c	 lea	 ecx, DWORD PTR [esi+12]
  00014	c7 06 00 00 00
	00		 mov	 DWORD PTR [esi], OFFSET ??_7?$CEncrypt@M@@6B@
  0001a	e8 00 00 00 00	 call	 ??0ccddaabb@@QAE@XZ	; ccddaabb::ccddaabb
  0001f	83 65 fc 00	 and	 DWORD PTR __$EHRec$[ebp+8], 0

; 115  : 	{
; 116  : 		Init();

  00023	8b ce		 mov	 ecx, esi
  00025	e8 00 00 00 00	 call	 ?Init@?$CEncrypt@M@@AAEXXZ ; CEncrypt<float>::Init

; 117  : 		*this = inValue;

  0002a	8b 45 08	 mov	 eax, DWORD PTR _inValue$[ebp]
  0002d	f3 0f 10 00	 movss	 xmm0, DWORD PTR [eax]
  00031	8d 45 08	 lea	 eax, DWORD PTR _value$529551[ebp]
  00034	50		 push	 eax
  00035	8b ce		 mov	 ecx, esi
  00037	f3 0f 11 45 08	 movss	 DWORD PTR _value$529551[ebp], xmm0
  0003c	e8 00 00 00 00	 call	 ?EncryptValueToPool@?$CEncrypt@M@@AAEXPBD@Z ; CEncrypt<float>::EncryptValueToPool

; 118  : 	}

  00041	8b c6		 mov	 eax, esi
  00043	e8 00 00 00 00	 call	 __EH_epilog3
  00048	c2 04 00	 ret	 4
_TEXT	ENDS
;	COMDAT text$x
text$x	SEGMENT
__unwindfunclet$??0?$CEncrypt@M@@QAE@ABM@Z$0:
  00000	8b 4d f0	 mov	 ecx, DWORD PTR _this$[ebp]
  00003	83 c1 0c	 add	 ecx, 12			; 0000000cH
  00006	e9 00 00 00 00	 jmp	 ??1ccddaabb@@UAE@XZ	; ccddaabb::~ccddaabb
__ehhandler$??0?$CEncrypt@M@@QAE@ABM@Z:
  0000b	8b 54 24 08	 mov	 edx, DWORD PTR [esp+8]
  0000f	8d 42 0c	 lea	 eax, DWORD PTR [edx+12]
  00012	8b 4a ec	 mov	 ecx, DWORD PTR [edx-20]
  00015	33 c8		 xor	 ecx, eax
  00017	e8 00 00 00 00	 call	 @__security_check_cookie@4
  0001c	b8 00 00 00 00	 mov	 eax, OFFSET __ehfuncinfo$??0?$CEncrypt@M@@QAE@ABM@Z
  00021	e9 00 00 00 00	 jmp	 ___CxxFrameHandler3
text$x	ENDS
??0?$CEncrypt@M@@QAE@ABM@Z ENDP				; CEncrypt<float>::CEncrypt<float>
PUBLIC	??0?$CEncrypt@M@@QAE@ABV0@@Z			; CEncrypt<float>::CEncrypt<float>
;	COMDAT xdata$x
xdata$x	SEGMENT
__unwindtable$??0?$CEncrypt@M@@QAE@ABV0@@Z DD 0ffffffffH
	DD	FLAT:__unwindfunclet$??0?$CEncrypt@M@@QAE@ABV0@@Z$0
__ehfuncinfo$??0?$CEncrypt@M@@QAE@ABV0@@Z DD 019930522H
	DD	01H
	DD	FLAT:__unwindtable$??0?$CEncrypt@M@@QAE@ABV0@@Z
	DD	2 DUP(00H)
	DD	2 DUP(00H)
	DD	00H
	DD	01H
; Function compile flags: /Ogsp
xdata$x	ENDS
;	COMDAT ??0?$CEncrypt@M@@QAE@ABV0@@Z
_TEXT	SEGMENT
_this$ = -16						; size = 4
__$EHRec$ = -12						; size = 12
_value$529575 = 8					; size = 4
_value$529570 = 8					; size = 4
_inValue$ = 8						; size = 4
??0?$CEncrypt@M@@QAE@ABV0@@Z PROC			; CEncrypt<float>::CEncrypt<float>, COMDAT
; _this$ = ecx

; 120  : 	CEncrypt( const CEncrypt<type> &inValue )   //     

  00000	6a 04		 push	 4
  00002	b8 00 00 00 00	 mov	 eax, __ehhandler$??0?$CEncrypt@M@@QAE@ABV0@@Z
  00007	e8 00 00 00 00	 call	 __EH_prolog3
  0000c	8b f1		 mov	 esi, ecx
  0000e	89 75 f0	 mov	 DWORD PTR _this$[ebp], esi
  00011	8d 4e 0c	 lea	 ecx, DWORD PTR [esi+12]
  00014	c7 06 00 00 00
	00		 mov	 DWORD PTR [esi], OFFSET ??_7?$CEncrypt@M@@6B@
  0001a	e8 00 00 00 00	 call	 ??0ccddaabb@@QAE@XZ	; ccddaabb::ccddaabb
  0001f	83 65 fc 00	 and	 DWORD PTR __$EHRec$[ebp+8], 0

; 121  : 	{
; 122  : 		Init();

  00023	8b ce		 mov	 ecx, esi
  00025	e8 00 00 00 00	 call	 ?Init@?$CEncrypt@M@@AAEXXZ ; CEncrypt<float>::Init

; 123  : 		*this = inValue;

  0002a	8b 4d 08	 mov	 ecx, DWORD PTR _inValue$[ebp]
  0002d	8d 45 08	 lea	 eax, DWORD PTR _value$529570[ebp]
  00030	50		 push	 eax
  00031	e8 00 00 00 00	 call	 ?DecryptValueToPool@?$CEncrypt@M@@QAEXPAM@Z ; CEncrypt<float>::DecryptValueToPool
  00036	f3 0f 10 45 08	 movss	 xmm0, DWORD PTR _value$529570[ebp]
  0003b	8d 45 08	 lea	 eax, DWORD PTR _value$529575[ebp]
  0003e	50		 push	 eax
  0003f	8b ce		 mov	 ecx, esi
  00041	f3 0f 11 45 08	 movss	 DWORD PTR _value$529575[ebp], xmm0
  00046	e8 00 00 00 00	 call	 ?EncryptValueToPool@?$CEncrypt@M@@AAEXPBD@Z ; CEncrypt<float>::EncryptValueToPool

; 124  : 	}

  0004b	8b c6		 mov	 eax, esi
  0004d	e8 00 00 00 00	 call	 __EH_epilog3
  00052	c2 04 00	 ret	 4
_TEXT	ENDS
;	COMDAT text$x
text$x	SEGMENT
__unwindfunclet$??0?$CEncrypt@M@@QAE@ABV0@@Z$0:
  00000	8b 4d f0	 mov	 ecx, DWORD PTR _this$[ebp]
  00003	83 c1 0c	 add	 ecx, 12			; 0000000cH
  00006	e9 00 00 00 00	 jmp	 ??1ccddaabb@@UAE@XZ	; ccddaabb::~ccddaabb
__ehhandler$??0?$CEncrypt@M@@QAE@ABV0@@Z:
  0000b	8b 54 24 08	 mov	 edx, DWORD PTR [esp+8]
  0000f	8d 42 0c	 lea	 eax, DWORD PTR [edx+12]
  00012	8b 4a ec	 mov	 ecx, DWORD PTR [edx-20]
  00015	33 c8		 xor	 ecx, eax
  00017	e8 00 00 00 00	 call	 @__security_check_cookie@4
  0001c	b8 00 00 00 00	 mov	 eax, OFFSET __ehfuncinfo$??0?$CEncrypt@M@@QAE@ABV0@@Z
  00021	e9 00 00 00 00	 jmp	 ___CxxFrameHandler3
text$x	ENDS
??0?$CEncrypt@M@@QAE@ABV0@@Z ENDP			; CEncrypt<float>::CEncrypt<float>
PUBLIC	__real@4f800000
PUBLIC	?SetExtraGaugeTypeByWeapon@ioArmorItem@@UAEXPAVioBaseChar@@HHM@Z ; ioArmorItem::SetExtraGaugeTypeByWeapon
EXTRN	?GetMaxSkillGauge@ioItem@@QAEMABVioHashString@@@Z:PROC ; ioItem::GetMaxSkillGauge
EXTRN	__EH_epilog3_GS:PROC
EXTRN	__EH_prolog3_GS:PROC
;	COMDAT __real@4f800000
CONST	SEGMENT
__real@4f800000 DD 04f800000r			; 4.29497e+009
CONST	ENDS
;	COMDAT xdata$x
xdata$x	SEGMENT
__unwindtable$?SetExtraGaugeTypeByWeapon@ioArmorItem@@UAEXPAVioBaseChar@@HHM@Z DD 0ffffffffH
	DD	FLAT:__unwindfunclet$?SetExtraGaugeTypeByWeapon@ioArmorItem@@UAEXPAVioBaseChar@@HHM@Z$0
	DD	00H
	DD	FLAT:__unwindfunclet$?SetExtraGaugeTypeByWeapon@ioArmorItem@@UAEXPAVioBaseChar@@HHM@Z$1
__ehfuncinfo$?SetExtraGaugeTypeByWeapon@ioArmorItem@@UAEXPAVioBaseChar@@HHM@Z DD 019930522H
	DD	02H
	DD	FLAT:__unwindtable$?SetExtraGaugeTypeByWeapon@ioArmorItem@@UAEXPAVioBaseChar@@HHM@Z
	DD	2 DUP(00H)
	DD	2 DUP(00H)
	DD	00H
	DD	01H
; Function compile flags: /Ogsp
; File d:\lost saga for developer\youtube\tutorial\source\src\lsclient\ioarmoritem.cpp
xdata$x	ENDS
;	COMDAT ?SetExtraGaugeTypeByWeapon@ioArmorItem@@UAEXPAVioBaseChar@@HHM@Z
_TEXT	SEGMENT
tv319 = -128						; size = 4
_value$529645 = -128					; size = 4
$T529591 = -124						; size = 4
tv329 = -120						; size = 4
_value$529641 = -120					; size = 4
_value$529633 = -120					; size = 4
$T529588 = -120						; size = 4
_fCurGauge$ = -120					; size = 4
_value$529617 = -116					; size = 4
_value$529601 = -116					; size = 4
$T529587 = -116						; size = 4
$T524665 = -112						; size = 48
$T524666 = -64						; size = 48
__$EHRec$ = -12						; size = 12
_pOwner$ = 8						; size = 4
_iType$ = 12						; size = 4
_iWGT$ = 16						; size = 4
_fDamage$ = 20						; size = 4
?SetExtraGaugeTypeByWeapon@ioArmorItem@@UAEXPAVioBaseChar@@HHM@Z PROC ; ioArmorItem::SetExtraGaugeTypeByWeapon, COMDAT
; _this$ = ecx

; 290  : {

  00000	6a 74		 push	 116			; 00000074H
  00002	b8 00 00 00 00	 mov	 eax, __ehhandler$?SetExtraGaugeTypeByWeapon@ioArmorItem@@UAEXPAVioBaseChar@@HHM@Z
  00007	e8 00 00 00 00	 call	 __EH_prolog3_GS
  0000c	8b 5d 08	 mov	 ebx, DWORD PTR _pOwner$[ebp]
  0000f	83 65 84 00	 and	 DWORD PTR $T529591[ebp], 0
  00013	8b f9		 mov	 edi, ecx

; 291  : 	if( !pOwner )

  00015	85 db		 test	 ebx, ebx
  00017	0f 84 80 01 00
	00		 je	 $LN20@SetExtraGa

; 292  : 		return;
; 293  : 
; 294  : 	if( m_SkillGaugeType != GT_DAMAGE )

  0001d	83 bf 60 03 00
	00 01		 cmp	 DWORD PTR [edi+864], 1
  00024	0f 85 73 01 00
	00		 jne	 $LN20@SetExtraGa

; 295  : 		return;
; 296  : 
; 297  : 	float fTypeRate = 0.0f;
; 298  : 	switch( iType )

  0002a	8b 45 0c	 mov	 eax, DWORD PTR _iType$[ebp]
  0002d	48		 dec	 eax
  0002e	0f 57 c0	 xorps	 xmm0, xmm0
  00031	74 27		 je	 SHORT $LN6@SetExtraGa
  00033	48		 dec	 eax
  00034	74 16		 je	 SHORT $LN4@SetExtraGa
  00036	48		 dec	 eax
  00037	74 0b		 je	 SHORT $LN2@SetExtraGa
  00039	48		 dec	 eax
  0003a	75 38		 jne	 SHORT $LN5@SetExtraGa

; 311  : 	case EGT_WOUNDED_DEF:
; 312  : 		fTypeRate = m_fExtraGaugeWoundDef;

  0003c	8d 8f 5c 15 00
	00		 lea	 ecx, DWORD PTR [edi+5468]

; 313  : 		break;

  00042	eb 22		 jmp	 SHORT $LN55@SetExtraGa
$LN2@SetExtraGa:

; 308  : 	case EGT_WOUNDED:
; 309  : 		fTypeRate = m_fExtraGaugeWound;

  00044	8d 8f 2c 15 00
	00		 lea	 ecx, DWORD PTR [edi+5420]

; 310  : 		break;

  0004a	eb 1a		 jmp	 SHORT $LN55@SetExtraGa
$LN4@SetExtraGa:

; 303  : 		break;
; 304  : 	case EGT_ATTACK_DEF:
; 305  : 		if( iWGT == WGT_EXCALIBUR )

  0004c	83 7d 10 01	 cmp	 DWORD PTR _iWGT$[ebp], 1
  00050	75 22		 jne	 SHORT $LN5@SetExtraGa

; 306  : 			fTypeRate = m_fExtraGaugeAttackDef;

  00052	8d 8f fc 14 00
	00		 lea	 ecx, DWORD PTR [edi+5372]

; 307  : 		break;

  00058	eb 0c		 jmp	 SHORT $LN55@SetExtraGa
$LN6@SetExtraGa:

; 299  : 	{
; 300  : 	case EGT_ATTACK:
; 301  : 		if( iWGT == WGT_EXCALIBUR )

  0005a	83 7d 10 01	 cmp	 DWORD PTR _iWGT$[ebp], 1
  0005e	75 14		 jne	 SHORT $LN5@SetExtraGa

; 302  : 			fTypeRate = m_fExtraGaugeAttack;

  00060	8d 8f cc 14 00
	00		 lea	 ecx, DWORD PTR [edi+5324]
$LN55@SetExtraGa:
  00066	8d 45 8c	 lea	 eax, DWORD PTR _value$529601[ebp]
  00069	50		 push	 eax
  0006a	e8 00 00 00 00	 call	 ?DecryptValueToPool@?$CEncrypt@M@@QAEXPAM@Z ; CEncrypt<float>::DecryptValueToPool
  0006f	f3 0f 10 45 8c	 movss	 xmm0, DWORD PTR _value$529601[ebp]
$LN5@SetExtraGa:

; 314  : 	}
; 315  : 
; 316  : 	float fCurGauge = fTypeRate * fDamage;

  00074	f3 0f 10 4d 14	 movss	 xmm1, DWORD PTR _fDamage$[ebp]
  00079	0f 5a c0	 cvtps2pd xmm0, xmm0
  0007c	0f 5a c9	 cvtps2pd xmm1, xmm1

; 317  : 	m_fCurSkillGauge += fCurGauge;

  0007f	8d 45 8c	 lea	 eax, DWORD PTR _value$529617[ebp]
  00082	f2 0f 59 c1	 mulsd	 xmm0, xmm1
  00086	8d b7 f4 03 00
	00		 lea	 esi, DWORD PTR [edi+1012]
  0008c	66 0f 5a c0	 cvtpd2ps xmm0, xmm0
  00090	50		 push	 eax
  00091	8b ce		 mov	 ecx, esi
  00093	f3 0f 11 45 88	 movss	 DWORD PTR _fCurGauge$[ebp], xmm0
  00098	e8 00 00 00 00	 call	 ?DecryptValueToPool@?$CEncrypt@M@@QAEXPAM@Z ; CEncrypt<float>::DecryptValueToPool
  0009d	f3 0f 10 45 8c	 movss	 xmm0, DWORD PTR _value$529617[ebp]
  000a2	f3 0f 10 4d 88	 movss	 xmm1, DWORD PTR _fCurGauge$[ebp]
  000a7	0f 5a c0	 cvtps2pd xmm0, xmm0
  000aa	0f 5a c9	 cvtps2pd xmm1, xmm1
  000ad	8d 45 8c	 lea	 eax, DWORD PTR _value$529617[ebp]
  000b0	f2 0f 58 c1	 addsd	 xmm0, xmm1
  000b4	66 0f 5a c0	 cvtpd2ps xmm0, xmm0
  000b8	50		 push	 eax
  000b9	8b ce		 mov	 ecx, esi
  000bb	f3 0f 11 45 8c	 movss	 DWORD PTR _value$529617[ebp], xmm0
  000c0	e8 00 00 00 00	 call	 ?EncryptValueToPool@?$CEncrypt@M@@AAEXPBD@Z ; CEncrypt<float>::EncryptValueToPool

; 318  : 
; 319  : 	float fMaxGauge = GetMaxSkillGauge( pOwner->GetCharName() );

  000c5	81 c3 d4 02 00
	00		 add	 ebx, 724		; 000002d4H
  000cb	53		 push	 ebx
  000cc	8b cf		 mov	 ecx, edi
  000ce	e8 00 00 00 00	 call	 ?GetMaxSkillGauge@ioItem@@QAEMABVioHashString@@@Z ; ioItem::GetMaxSkillGauge
  000d3	dd d8		 fstp	 ST(0)

; 320  : 	m_fCurSkillGauge = min( m_fCurSkillGauge, FLOAT100 );

  000d5	b8 64 00 00 00	 mov	 eax, 100		; 00000064H
  000da	89 45 88	 mov	 DWORD PTR tv329[ebp], eax
  000dd	db 45 88	 fild	 DWORD PTR tv329[ebp]
  000e0	85 c0		 test	 eax, eax
  000e2	79 06		 jns	 SHORT $LN53@SetExtraGa
  000e4	d8 05 00 00 00
	00		 fadd	 DWORD PTR __real@4f800000
$LN53@SetExtraGa:
  000ea	8d 45 88	 lea	 eax, DWORD PTR _value$529633[ebp]
  000ed	d9 5d 8c	 fstp	 DWORD PTR $T529587[ebp]
  000f0	50		 push	 eax
  000f1	8b ce		 mov	 ecx, esi
  000f3	e8 00 00 00 00	 call	 ?DecryptValueToPool@?$CEncrypt@M@@QAEXPAM@Z ; CEncrypt<float>::DecryptValueToPool
  000f8	d9 45 88	 fld	 DWORD PTR _value$529633[ebp]
  000fb	d9 45 8c	 fld	 DWORD PTR $T529587[ebp]
  000fe	6a 02		 push	 2
  00100	df f1		 fcomip	 ST(1)
  00102	dd d8		 fstp	 ST(0)
  00104	5b		 pop	 ebx
  00105	76 16		 jbe	 SHORT $LN13@SetExtraGa
  00107	56		 push	 esi
  00108	8d 4d 90	 lea	 ecx, DWORD PTR $T524665[ebp]
  0010b	e8 00 00 00 00	 call	 ??0?$CEncrypt@M@@QAE@ABV0@@Z ; CEncrypt<float>::CEncrypt<float>
  00110	83 65 fc 00	 and	 DWORD PTR __$EHRec$[ebp+8], 0
  00114	c7 45 84 01 00
	00 00		 mov	 DWORD PTR $T529591[ebp], 1
  0011b	eb 2e		 jmp	 SHORT $LN14@SetExtraGa
$LN13@SetExtraGa:
  0011d	b8 64 00 00 00	 mov	 eax, 100		; 00000064H
  00122	89 45 80	 mov	 DWORD PTR tv319[ebp], eax
  00125	db 45 80	 fild	 DWORD PTR tv319[ebp]
  00128	85 c0		 test	 eax, eax
  0012a	79 06		 jns	 SHORT $LN54@SetExtraGa
  0012c	d8 05 00 00 00
	00		 fadd	 DWORD PTR __real@4f800000
$LN54@SetExtraGa:
  00132	8d 45 88	 lea	 eax, DWORD PTR $T529588[ebp]
  00135	d9 5d 88	 fstp	 DWORD PTR $T529588[ebp]
  00138	50		 push	 eax
  00139	8d 4d c0	 lea	 ecx, DWORD PTR $T524666[ebp]
  0013c	e8 00 00 00 00	 call	 ??0?$CEncrypt@M@@QAE@ABM@Z ; CEncrypt<float>::CEncrypt<float>
  00141	c7 45 fc 01 00
	00 00		 mov	 DWORD PTR __$EHRec$[ebp+8], 1
  00148	89 5d 84	 mov	 DWORD PTR $T529591[ebp], ebx
$LN14@SetExtraGa:
  0014b	8d 4d 88	 lea	 ecx, DWORD PTR _value$529641[ebp]
  0014e	51		 push	 ecx
  0014f	8b c8		 mov	 ecx, eax
  00151	e8 00 00 00 00	 call	 ?DecryptValueToPool@?$CEncrypt@M@@QAEXPAM@Z ; CEncrypt<float>::DecryptValueToPool
  00156	f3 0f 10 45 88	 movss	 xmm0, DWORD PTR _value$529641[ebp]
  0015b	8d 45 80	 lea	 eax, DWORD PTR _value$529645[ebp]
  0015e	50		 push	 eax
  0015f	8b ce		 mov	 ecx, esi
  00161	f3 0f 11 45 80	 movss	 DWORD PTR _value$529645[ebp], xmm0
  00166	e8 00 00 00 00	 call	 ?EncryptValueToPool@?$CEncrypt@M@@AAEXPBD@Z ; CEncrypt<float>::EncryptValueToPool
  0016b	83 65 fc 00	 and	 DWORD PTR __$EHRec$[ebp+8], 0
  0016f	be 00 00 00 00	 mov	 esi, OFFSET ??_7?$CEncrypt@M@@6B@
  00174	84 5d 84	 test	 BYTE PTR $T529591[ebp], bl
  00177	74 0f		 je	 SHORT $LN19@SetExtraGa
  00179	83 65 84 fd	 and	 DWORD PTR $T529591[ebp], -3 ; fffffffdH
  0017d	8d 4d cc	 lea	 ecx, DWORD PTR $T524666[ebp+12]
  00180	89 75 c0	 mov	 DWORD PTR $T524666[ebp], esi
  00183	e8 00 00 00 00	 call	 ??1ccddaabb@@UAE@XZ	; ccddaabb::~ccddaabb
$LN19@SetExtraGa:
  00188	83 4d fc ff	 or	 DWORD PTR __$EHRec$[ebp+8], -1
  0018c	f6 45 84 01	 test	 BYTE PTR $T529591[ebp], 1
  00190	74 0b		 je	 SHORT $LN20@SetExtraGa
  00192	8d 4d 9c	 lea	 ecx, DWORD PTR $T524665[ebp+12]
  00195	89 75 90	 mov	 DWORD PTR $T524665[ebp], esi
  00198	e8 00 00 00 00	 call	 ??1ccddaabb@@UAE@XZ	; ccddaabb::~ccddaabb
$LN20@SetExtraGa:

; 321  : 
; 322  : #ifndef SHIPPING 
; 323  : 	if( Setting::ShowExtraInfo() )
; 324  : 	{
; 325  : 		LOG.PrintTimeAndLog( 0, "Add DamageSkillGauge: %s, %f", pOwner->GetCharName().c_str(), fCurGauge );
; 326  : 	}
; 327  : #endif
; 328  : 
; 329  : }

  0019d	e8 00 00 00 00	 call	 __EH_epilog3_GS
  001a2	c2 10 00	 ret	 16			; 00000010H
_TEXT	ENDS
;	COMDAT text$x
text$x	SEGMENT
__unwindfunclet$?SetExtraGaugeTypeByWeapon@ioArmorItem@@UAEXPAVioBaseChar@@HHM@Z$0:
  00000	8b 45 84	 mov	 eax, DWORD PTR $T529591[ebp]
  00003	83 e0 01	 and	 eax, 1
  00006	0f 84 0c 00 00
	00		 je	 $LN16@SetExtraGa
  0000c	83 65 84 fe	 and	 DWORD PTR $T529591[ebp], -2 ; fffffffeH
  00010	8d 4d 90	 lea	 ecx, DWORD PTR $T524665[ebp]
  00013	e9 00 00 00 00	 jmp	 ??1?$CEncrypt@M@@UAE@XZ	; CEncrypt<float>::~CEncrypt<float>
$LN16@SetExtraGa:
  00018	c3		 ret	 0
__unwindfunclet$?SetExtraGaugeTypeByWeapon@ioArmorItem@@UAEXPAVioBaseChar@@HHM@Z$1:
  00019	8b 45 84	 mov	 eax, DWORD PTR $T529591[ebp]
  0001c	83 e0 02	 and	 eax, 2
  0001f	0f 84 0c 00 00
	00		 je	 $LN18@SetExtraGa
  00025	83 65 84 fd	 and	 DWORD PTR $T529591[ebp], -3 ; fffffffdH
  00029	8d 4d c0	 lea	 ecx, DWORD PTR $T524666[ebp]
  0002c	e9 00 00 00 00	 jmp	 ??1?$CEncrypt@M@@UAE@XZ	; CEncrypt<float>::~CEncrypt<float>
$LN18@SetExtraGa:
  00031	c3		 ret	 0
__ehhandler$?SetExtraGaugeTypeByWeapon@ioArmorItem@@UAEXPAVioBaseChar@@HHM@Z:
  00032	8b 54 24 08	 mov	 edx, DWORD PTR [esp+8]
  00036	8d 42 0c	 lea	 eax, DWORD PTR [edx+12]
  00039	8b 8a 7c ff ff
	ff		 mov	 ecx, DWORD PTR [edx-132]
  0003f	33 c8		 xor	 ecx, eax
  00041	e8 00 00 00 00	 call	 @__security_check_cookie@4
  00046	8b 4a fc	 mov	 ecx, DWORD PTR [edx-4]
  00049	33 c8		 xor	 ecx, eax
  0004b	e8 00 00 00 00	 call	 @__security_check_cookie@4
  00050	b8 00 00 00 00	 mov	 eax, OFFSET __ehfuncinfo$?SetExtraGaugeTypeByWeapon@ioArmorItem@@UAEXPAVioBaseChar@@HHM@Z
  00055	e9 00 00 00 00	 jmp	 ___CxxFrameHandler3
text$x	ENDS
?SetExtraGaugeTypeByWeapon@ioArmorItem@@UAEXPAVioBaseChar@@HHM@Z ENDP ; ioArmorItem::SetExtraGaugeTypeByWeapon
PUBLIC	??_C@_0BJ@OLAOJLMC@ioArmorItem?3?3GetBodyMesh?$AA@ ; `string'
PUBLIC	?GetBodyMesh@ioArmorItem@@QBEABVioHashString@@PAVioBaseChar@@@Z ; ioArmorItem::GetBodyMesh
EXTRN	?GetItemConst@ioItemMaker@@QBEPBVioItem@@KABVioHashString@@@Z:PROC ; ioItemMaker::GetItemConst
EXTRN	?GetSingleton@ioItemMaker@@SAAAV1@XZ:PROC	; ioItemMaker::GetSingleton
;	COMDAT ??_C@_0BJ@OLAOJLMC@ioArmorItem?3?3GetBodyMesh?$AA@
; File d:\lost saga for developer\youtube\tutorial\source\src\lsclient\encryptvalue.h
CONST	SEGMENT
??_C@_0BJ@OLAOJLMC@ioArmorItem?3?3GetBodyMesh?$AA@ DB 'ioArmorItem::GetBo'
	DB	'dyMesh', 00H				; `string'
CONST	ENDS
;	COMDAT xdata$x
xdata$x	SEGMENT
__unwindtable$?GetBodyMesh@ioArmorItem@@QBEABVioHashString@@PAVioBaseChar@@@Z DD 0ffffffffH
	DD	FLAT:__unwindfunclet$?GetBodyMesh@ioArmorItem@@QBEABVioHashString@@PAVioBaseChar@@@Z$0
__ehfuncinfo$?GetBodyMesh@ioArmorItem@@QBEABVioHashString@@PAVioBaseChar@@@Z DD 019930522H
	DD	01H
	DD	FLAT:__unwindtable$?GetBodyMesh@ioArmorItem@@QBEABVioHashString@@PAVioBaseChar@@@Z
	DD	2 DUP(00H)
	DD	2 DUP(00H)
	DD	00H
	DD	01H
; Function compile flags: /Ogsp
; File d:\lost saga for developer\youtube\tutorial\source\src\lsclient\ioarmoritem.cpp
xdata$x	ENDS
;	COMDAT ?GetBodyMesh@ioArmorItem@@QBEABVioHashString@@PAVioBaseChar@@@Z
_TEXT	SEGMENT
$T529675 = -32						; size = 16
_value$529686 = -13					; size = 1
__$EHRec$ = -12						; size = 12
_value$529696 = 8					; size = 4
_pOwner$ = 8						; size = 4
?GetBodyMesh@ioArmorItem@@QBEABVioHashString@@PAVioBaseChar@@@Z PROC ; ioArmorItem::GetBodyMesh, COMDAT
; _this$ = ecx

; 354  : {

  00000	6a 14		 push	 20			; 00000014H
  00002	b8 00 00 00 00	 mov	 eax, __ehhandler$?GetBodyMesh@ioArmorItem@@QBEABVioHashString@@PAVioBaseChar@@@Z
  00007	e8 00 00 00 00	 call	 __EH_prolog3
  0000c	8b f1		 mov	 esi, ecx

; 355  : 	if ( m_CostumeInfo.m_nCostumeCode > 0 )

  0000e	83 be 3c 05 00
	00 00		 cmp	 DWORD PTR [esi+1340], 0
  00015	7e 1f		 jle	 SHORT $LN9@GetBodyMes

; 356  : 	{
; 357  : 		if ( !m_CostumeInfo.m_szBodyMesh.IsEmpty() )

  00017	8d 8e 8c 05 00
	00		 lea	 ecx, DWORD PTR [esi+1420]
  0001d	ff 15 00 00 00
	00		 call	 DWORD PTR __imp_?IsEmpty@ioHashString@@QBE_NXZ
  00023	84 c0		 test	 al, al
  00025	0f 85 b7 00 00
	00		 jne	 $LN1@GetBodyMes

; 358  : 			return m_CostumeInfo.m_szBodyMesh;

  0002b	8d 86 8c 05 00
	00		 lea	 eax, DWORD PTR [esi+1420]

; 359  : 		else
; 360  : 			return m_BodyMesh;

  00031	e9 b2 00 00 00	 jmp	 $LN12@GetBodyMes
$LN9@GetBodyMes:

; 361  : 	}
; 362  : 
; 363  : 	if( !g_ItemMaker.IsBaseEquipMesh() )

  00036	e8 00 00 00 00	 call	 ?GetSingleton@ioItemMaker@@SAAAV1@XZ ; ioItemMaker::GetSingleton
  0003b	8d 48 50	 lea	 ecx, DWORD PTR [eax+80]
  0003e	8d 45 f3	 lea	 eax, DWORD PTR _value$529686[ebp]
  00041	50		 push	 eax
  00042	e8 00 00 00 00	 call	 ?DecryptValueToPool@?$CEncrypt@_N@@QAEXPA_N@Z ; CEncrypt<bool>::DecryptValueToPool
  00047	80 7d f3 00	 cmp	 BYTE PTR _value$529686[ebp], 0

; 364  : 		return m_BodyMesh;

  0004b	0f 84 91 00 00
	00		 je	 $LN1@GetBodyMes

; 365  : 
; 366  : 	if( !pOwner )

  00051	8b 45 08	 mov	 eax, DWORD PTR _pOwner$[ebp]
  00054	85 c0		 test	 eax, eax

; 367  : 		return m_BodyMesh;

  00056	0f 84 86 00 00
	00		 je	 $LN1@GetBodyMes

; 368  : 
; 369  : 	int iClassType = pOwner->GetCharacterInfo().m_class_type;

  0005c	8d 88 58 03 00
	00		 lea	 ecx, DWORD PTR [eax+856]
  00062	8d 45 08	 lea	 eax, DWORD PTR _value$529696[ebp]
  00065	50		 push	 eax
  00066	e8 00 00 00 00	 call	 ?DecryptValueToPool@?$CEncrypt@H@@QAEXPAH@Z ; CEncrypt<int>::DecryptValueToPool

; 370  : 	int iParts = DEFAULT_BASIC_ITEM_CODE * (GetType() - 1);

  0006b	8b 06		 mov	 eax, DWORD PTR [esi]
  0006d	8b ce		 mov	 ecx, esi
  0006f	ff 50 08	 call	 DWORD PTR [eax+8]
  00072	69 c0 a0 86 01
	00		 imul	 eax, 100000		; 000186a0H
  00078	2d a0 86 01 00	 sub	 eax, 100000		; 000186a0H

; 371  : 	if( iParts < 0 )
; 372  : 		return m_BodyMesh;

  0007d	78 63		 js	 SHORT $LN1@GetBodyMes

; 373  : 
; 374  : 	DWORD dwItemCode = iParts + iClassType;

  0007f	8b 7d 08	 mov	 edi, DWORD PTR _value$529696[ebp]

; 375  : 	const ioItem *pItem = g_ItemMaker.GetItemConst( dwItemCode, __FUNCTION__ );

  00082	68 00 00 00 00	 push	 OFFSET ??_C@_0BJ@OLAOJLMC@ioArmorItem?3?3GetBodyMesh?$AA@
  00087	8d 4d e0	 lea	 ecx, DWORD PTR $T529675[ebp]
  0008a	03 f8		 add	 edi, eax
  0008c	ff 15 00 00 00
	00		 call	 DWORD PTR __imp_??0ioHashString@@QAE@PBD@Z
  00092	83 65 fc 00	 and	 DWORD PTR __$EHRec$[ebp+8], 0
  00096	8d 45 e0	 lea	 eax, DWORD PTR $T529675[ebp]
  00099	50		 push	 eax
  0009a	57		 push	 edi
  0009b	e8 00 00 00 00	 call	 ?GetSingleton@ioItemMaker@@SAAAV1@XZ ; ioItemMaker::GetSingleton
  000a0	8b c8		 mov	 ecx, eax
  000a2	e8 00 00 00 00	 call	 ?GetItemConst@ioItemMaker@@QBEPBVioItem@@KABVioHashString@@@Z ; ioItemMaker::GetItemConst
  000a7	83 4d fc ff	 or	 DWORD PTR __$EHRec$[ebp+8], -1
  000ab	8d 4d e0	 lea	 ecx, DWORD PTR $T529675[ebp]
  000ae	8b f8		 mov	 edi, eax
  000b0	ff 15 00 00 00
	00		 call	 DWORD PTR __imp_??1ioHashString@@QAE@XZ

; 376  : 	if( !pItem )

  000b6	85 ff		 test	 edi, edi

; 377  : 		return m_BodyMesh;

  000b8	74 28		 je	 SHORT $LN1@GetBodyMes

; 378  : 
; 379  : 	switch( pItem->GetType() )

  000ba	8b 07		 mov	 eax, DWORD PTR [edi]
  000bc	8b cf		 mov	 ecx, edi
  000be	ff 50 08	 call	 DWORD PTR [eax+8]
  000c1	48		 dec	 eax
  000c2	48		 dec	 eax
  000c3	75 1d		 jne	 SHORT $LN1@GetBodyMes

; 380  : 	{
; 381  : 	case ioItem::IT_ARMOR:
; 382  : 		if( ToArmorItemConst(pItem) )

  000c5	57		 push	 edi
  000c6	e8 00 00 00 00	 call	 ?ToArmorItemConst@@YAPBVioArmorItem@@PBVioItem@@@Z ; ToArmorItemConst
  000cb	59		 pop	 ecx
  000cc	85 c0		 test	 eax, eax
  000ce	74 12		 je	 SHORT $LN1@GetBodyMes

; 383  : 			return ToArmorItemConst(pItem)->GetBodyMesh(NULL);

  000d0	6a 00		 push	 0
  000d2	57		 push	 edi
  000d3	e8 00 00 00 00	 call	 ?ToArmorItemConst@@YAPBVioArmorItem@@PBVioItem@@@Z ; ToArmorItemConst
  000d8	59		 pop	 ecx
  000d9	8b c8		 mov	 ecx, eax
  000db	e8 00 00 00 00	 call	 ?GetBodyMesh@ioArmorItem@@QBEABVioHashString@@PAVioBaseChar@@@Z ; ioArmorItem::GetBodyMesh
  000e0	eb 06		 jmp	 SHORT $LN12@GetBodyMes
$LN1@GetBodyMes:

; 384  : 		break;
; 385  : 	}
; 386  : 
; 387  : 	return m_BodyMesh;

  000e2	8d 86 a8 17 00
	00		 lea	 eax, DWORD PTR [esi+6056]
$LN12@GetBodyMes:

; 388  : }

  000e8	e8 00 00 00 00	 call	 __EH_epilog3
  000ed	c2 04 00	 ret	 4
_TEXT	ENDS
;	COMDAT text$x
text$x	SEGMENT
__unwindfunclet$?GetBodyMesh@ioArmorItem@@QBEABVioHashString@@PAVioBaseChar@@@Z$0:
  00000	8d 4d e0	 lea	 ecx, DWORD PTR $T529675[ebp]
  00003	ff 25 00 00 00
	00		 jmp	 DWORD PTR __imp_??1ioHashString@@QAE@XZ
__ehhandler$?GetBodyMesh@ioArmorItem@@QBEABVioHashString@@PAVioBaseChar@@@Z:
  00009	8b 54 24 08	 mov	 edx, DWORD PTR [esp+8]
  0000d	8d 42 0c	 lea	 eax, DWORD PTR [edx+12]
  00010	8b 4a dc	 mov	 ecx, DWORD PTR [edx-36]
  00013	33 c8		 xor	 ecx, eax
  00015	e8 00 00 00 00	 call	 @__security_check_cookie@4
  0001a	b8 00 00 00 00	 mov	 eax, OFFSET __ehfuncinfo$?GetBodyMesh@ioArmorItem@@QBEABVioHashString@@PAVioBaseChar@@@Z
  0001f	e9 00 00 00 00	 jmp	 ___CxxFrameHandler3
text$x	ENDS
?GetBodyMesh@ioArmorItem@@QBEABVioHashString@@PAVioBaseChar@@@Z ENDP ; ioArmorItem::GetBodyMesh
PUBLIC	??_C@_0BJ@HAJCENGF@ioArmorItem?3?3GetHandMesh?$AA@ ; `string'
PUBLIC	?GetHandMesh@ioArmorItem@@QBEABVioHashString@@PAVioBaseChar@@@Z ; ioArmorItem::GetHandMesh
;	COMDAT ??_C@_0BJ@HAJCENGF@ioArmorItem?3?3GetHandMesh?$AA@
; File d:\lost saga for developer\youtube\tutorial\source\src\lsclient\encryptvalue.h
CONST	SEGMENT
??_C@_0BJ@HAJCENGF@ioArmorItem?3?3GetHandMesh?$AA@ DB 'ioArmorItem::GetHa'
	DB	'ndMesh', 00H				; `string'
CONST	ENDS
;	COMDAT xdata$x
xdata$x	SEGMENT
__unwindtable$?GetHandMesh@ioArmorItem@@QBEABVioHashString@@PAVioBaseChar@@@Z DD 0ffffffffH
	DD	FLAT:__unwindfunclet$?GetHandMesh@ioArmorItem@@QBEABVioHashString@@PAVioBaseChar@@@Z$0
__ehfuncinfo$?GetHandMesh@ioArmorItem@@QBEABVioHashString@@PAVioBaseChar@@@Z DD 019930522H
	DD	01H
	DD	FLAT:__unwindtable$?GetHandMesh@ioArmorItem@@QBEABVioHashString@@PAVioBaseChar@@@Z
	DD	2 DUP(00H)
	DD	2 DUP(00H)
	DD	00H
	DD	01H
; Function compile flags: /Ogsp
; File d:\lost saga for developer\youtube\tutorial\source\src\lsclient\ioarmoritem.cpp
xdata$x	ENDS
;	COMDAT ?GetHandMesh@ioArmorItem@@QBEABVioHashString@@PAVioBaseChar@@@Z
_TEXT	SEGMENT
$T529707 = -32						; size = 16
_value$529718 = -13					; size = 1
__$EHRec$ = -12						; size = 12
_value$529728 = 8					; size = 4
_pOwner$ = 8						; size = 4
?GetHandMesh@ioArmorItem@@QBEABVioHashString@@PAVioBaseChar@@@Z PROC ; ioArmorItem::GetHandMesh, COMDAT
; _this$ = ecx

; 391  : {

  00000	6a 14		 push	 20			; 00000014H
  00002	b8 00 00 00 00	 mov	 eax, __ehhandler$?GetHandMesh@ioArmorItem@@QBEABVioHashString@@PAVioBaseChar@@@Z
  00007	e8 00 00 00 00	 call	 __EH_prolog3
  0000c	8b f1		 mov	 esi, ecx

; 392  : 	if ( m_CostumeInfo.m_nCostumeCode > 0 )

  0000e	83 be 3c 05 00
	00 00		 cmp	 DWORD PTR [esi+1340], 0
  00015	7e 1f		 jle	 SHORT $LN9@GetHandMes

; 393  : 	{
; 394  : 		if ( !m_CostumeInfo.m_szHandMesh.IsEmpty() )

  00017	8d 8e 9c 05 00
	00		 lea	 ecx, DWORD PTR [esi+1436]
  0001d	ff 15 00 00 00
	00		 call	 DWORD PTR __imp_?IsEmpty@ioHashString@@QBE_NXZ
  00023	84 c0		 test	 al, al
  00025	0f 85 b7 00 00
	00		 jne	 $LN1@GetHandMes

; 395  : 			return m_CostumeInfo.m_szHandMesh;

  0002b	8d 86 9c 05 00
	00		 lea	 eax, DWORD PTR [esi+1436]

; 396  : 		else 
; 397  : 			return m_HandMesh;

  00031	e9 b2 00 00 00	 jmp	 $LN12@GetHandMes
$LN9@GetHandMes:

; 398  : 	}
; 399  : 
; 400  : 	if( !g_ItemMaker.IsBaseEquipMesh() )

  00036	e8 00 00 00 00	 call	 ?GetSingleton@ioItemMaker@@SAAAV1@XZ ; ioItemMaker::GetSingleton
  0003b	8d 48 50	 lea	 ecx, DWORD PTR [eax+80]
  0003e	8d 45 f3	 lea	 eax, DWORD PTR _value$529718[ebp]
  00041	50		 push	 eax
  00042	e8 00 00 00 00	 call	 ?DecryptValueToPool@?$CEncrypt@_N@@QAEXPA_N@Z ; CEncrypt<bool>::DecryptValueToPool
  00047	80 7d f3 00	 cmp	 BYTE PTR _value$529718[ebp], 0

; 401  : 		return m_HandMesh;

  0004b	0f 84 91 00 00
	00		 je	 $LN1@GetHandMes

; 402  : 
; 403  : 	if( !pOwner )

  00051	8b 45 08	 mov	 eax, DWORD PTR _pOwner$[ebp]
  00054	85 c0		 test	 eax, eax

; 404  : 		return m_HandMesh;

  00056	0f 84 86 00 00
	00		 je	 $LN1@GetHandMes

; 405  : 
; 406  : 	int iClassType = pOwner->GetCharacterInfo().m_class_type;

  0005c	8d 88 58 03 00
	00		 lea	 ecx, DWORD PTR [eax+856]
  00062	8d 45 08	 lea	 eax, DWORD PTR _value$529728[ebp]
  00065	50		 push	 eax
  00066	e8 00 00 00 00	 call	 ?DecryptValueToPool@?$CEncrypt@H@@QAEXPAH@Z ; CEncrypt<int>::DecryptValueToPool

; 407  : 	int iParts = DEFAULT_BASIC_ITEM_CODE * (GetType() - 1);

  0006b	8b 06		 mov	 eax, DWORD PTR [esi]
  0006d	8b ce		 mov	 ecx, esi
  0006f	ff 50 08	 call	 DWORD PTR [eax+8]
  00072	69 c0 a0 86 01
	00		 imul	 eax, 100000		; 000186a0H
  00078	2d a0 86 01 00	 sub	 eax, 100000		; 000186a0H

; 408  : 	if( iParts < 0 )
; 409  : 		return m_HandMesh;

  0007d	78 63		 js	 SHORT $LN1@GetHandMes

; 410  : 
; 411  : 	DWORD dwItemCode = iParts + iClassType;

  0007f	8b 7d 08	 mov	 edi, DWORD PTR _value$529728[ebp]

; 412  : 	const ioItem *pItem = g_ItemMaker.GetItemConst( dwItemCode, __FUNCTION__ );

  00082	68 00 00 00 00	 push	 OFFSET ??_C@_0BJ@HAJCENGF@ioArmorItem?3?3GetHandMesh?$AA@
  00087	8d 4d e0	 lea	 ecx, DWORD PTR $T529707[ebp]
  0008a	03 f8		 add	 edi, eax
  0008c	ff 15 00 00 00
	00		 call	 DWORD PTR __imp_??0ioHashString@@QAE@PBD@Z
  00092	83 65 fc 00	 and	 DWORD PTR __$EHRec$[ebp+8], 0
  00096	8d 45 e0	 lea	 eax, DWORD PTR $T529707[ebp]
  00099	50		 push	 eax
  0009a	57		 push	 edi
  0009b	e8 00 00 00 00	 call	 ?GetSingleton@ioItemMaker@@SAAAV1@XZ ; ioItemMaker::GetSingleton
  000a0	8b c8		 mov	 ecx, eax
  000a2	e8 00 00 00 00	 call	 ?GetItemConst@ioItemMaker@@QBEPBVioItem@@KABVioHashString@@@Z ; ioItemMaker::GetItemConst
  000a7	83 4d fc ff	 or	 DWORD PTR __$EHRec$[ebp+8], -1
  000ab	8d 4d e0	 lea	 ecx, DWORD PTR $T529707[ebp]
  000ae	8b f8		 mov	 edi, eax
  000b0	ff 15 00 00 00
	00		 call	 DWORD PTR __imp_??1ioHashString@@QAE@XZ

; 413  : 	if( !pItem )

  000b6	85 ff		 test	 edi, edi

; 414  : 		return m_HandMesh;

  000b8	74 28		 je	 SHORT $LN1@GetHandMes

; 415  : 
; 416  : 	switch( pItem->GetType() )

  000ba	8b 07		 mov	 eax, DWORD PTR [edi]
  000bc	8b cf		 mov	 ecx, edi
  000be	ff 50 08	 call	 DWORD PTR [eax+8]
  000c1	48		 dec	 eax
  000c2	48		 dec	 eax
  000c3	75 1d		 jne	 SHORT $LN1@GetHandMes

; 417  : 	{
; 418  : 	case ioItem::IT_ARMOR:
; 419  : 		if( ToArmorItemConst(pItem) )

  000c5	57		 push	 edi
  000c6	e8 00 00 00 00	 call	 ?ToArmorItemConst@@YAPBVioArmorItem@@PBVioItem@@@Z ; ToArmorItemConst
  000cb	59		 pop	 ecx
  000cc	85 c0		 test	 eax, eax
  000ce	74 12		 je	 SHORT $LN1@GetHandMes

; 420  : 			return ToArmorItemConst(pItem)->GetHandMesh(NULL);

  000d0	6a 00		 push	 0
  000d2	57		 push	 edi
  000d3	e8 00 00 00 00	 call	 ?ToArmorItemConst@@YAPBVioArmorItem@@PBVioItem@@@Z ; ToArmorItemConst
  000d8	59		 pop	 ecx
  000d9	8b c8		 mov	 ecx, eax
  000db	e8 00 00 00 00	 call	 ?GetHandMesh@ioArmorItem@@QBEABVioHashString@@PAVioBaseChar@@@Z ; ioArmorItem::GetHandMesh
  000e0	eb 06		 jmp	 SHORT $LN12@GetHandMes
$LN1@GetHandMes:

; 421  : 		break;
; 422  : 	}
; 423  : 
; 424  : 	return m_HandMesh;

  000e2	8d 86 b8 17 00
	00		 lea	 eax, DWORD PTR [esi+6072]
$LN12@GetHandMes:

; 425  : }

  000e8	e8 00 00 00 00	 call	 __EH_epilog3
  000ed	c2 04 00	 ret	 4
_TEXT	ENDS
;	COMDAT text$x
text$x	SEGMENT
__unwindfunclet$?GetHandMesh@ioArmorItem@@QBEABVioHashString@@PAVioBaseChar@@@Z$0:
  00000	8d 4d e0	 lea	 ecx, DWORD PTR $T529707[ebp]
  00003	ff 25 00 00 00
	00		 jmp	 DWORD PTR __imp_??1ioHashString@@QAE@XZ
__ehhandler$?GetHandMesh@ioArmorItem@@QBEABVioHashString@@PAVioBaseChar@@@Z:
  00009	8b 54 24 08	 mov	 edx, DWORD PTR [esp+8]
  0000d	8d 42 0c	 lea	 eax, DWORD PTR [edx+12]
  00010	8b 4a dc	 mov	 ecx, DWORD PTR [edx-36]
  00013	33 c8		 xor	 ecx, eax
  00015	e8 00 00 00 00	 call	 @__security_check_cookie@4
  0001a	b8 00 00 00 00	 mov	 eax, OFFSET __ehfuncinfo$?GetHandMesh@ioArmorItem@@QBEABVioHashString@@PAVioBaseChar@@@Z
  0001f	e9 00 00 00 00	 jmp	 ___CxxFrameHandler3
text$x	ENDS
?GetHandMesh@ioArmorItem@@QBEABVioHashString@@PAVioBaseChar@@@Z ENDP ; ioArmorItem::GetHandMesh
PUBLIC	?find@?$_Tree@V?$_Tmap_traits@KVioHashString@@U?$less@K@std@@V?$allocator@U?$pair@$$CBKVioHashString@@@std@@@3@$0A@@std@@@std@@QBE?AV?$_Tree_const_iterator@V?$_Tree_val@V?$_Tmap_traits@KVioHashString@@U?$less@K@std@@V?$allocator@U?$pair@$$CBKVioHashString@@@std@@@3@$0A@@std@@@std@@@2@ABK@Z ; std::_Tree<std::_Tmap_traits<unsigned long,ioHashString,std::less<unsigned long>,std::allocator<std::pair<unsigned long const ,ioHashString> >,0> >::find
; Function compile flags: /Ogsp
; File c:\program files (x86)\microsoft visual studio 10.0\vc\include\xtree
;	COMDAT ?find@?$_Tree@V?$_Tmap_traits@KVioHashString@@U?$less@K@std@@V?$allocator@U?$pair@$$CBKVioHashString@@@std@@@3@$0A@@std@@@std@@QBE?AV?$_Tree_const_iterator@V?$_Tree_val@V?$_Tmap_traits@KVioHashString@@U?$less@K@std@@V?$allocator@U?$pair@$$CBKVioHashString@@@std@@@3@$0A@@std@@@std@@@2@ABK@Z
_TEXT	SEGMENT
$T529742 = -4						; size = 4
___$ReturnUdt$ = 8					; size = 4
__Where$ = 12						; size = 4
__Keyval$ = 12						; size = 4
?find@?$_Tree@V?$_Tmap_traits@KVioHashString@@U?$less@K@std@@V?$allocator@U?$pair@$$CBKVioHashString@@@std@@@3@$0A@@std@@@std@@QBE?AV?$_Tree_const_iterator@V?$_Tree_val@V?$_Tmap_traits@KVioHashString@@U?$less@K@std@@V?$allocator@U?$pair@$$CBKVioHashString@@@std@@@3@$0A@@std@@@std@@@2@ABK@Z PROC ; std::_Tree<std::_Tmap_traits<unsigned long,ioHashString,std::less<unsigned long>,std::allocator<std::pair<unsigned long const ,ioHashString> >,0> >::find, COMDAT
; _this$ = ecx

; 1432 : 		{	// find an element in nonmutable sequence that matches _Keyval

  00000	55		 push	 ebp
  00001	8b ec		 mov	 ebp, esp
  00003	51		 push	 ecx
  00004	56		 push	 esi
  00005	57		 push	 edi

; 1433 : 		const_iterator _Where = lower_bound(_Keyval);

  00006	8b 7d 0c	 mov	 edi, DWORD PTR __Keyval$[ebp]
  00009	57		 push	 edi
  0000a	8b f1		 mov	 esi, ecx
  0000c	e8 00 00 00 00	 call	 ?_Lbound@?$_Tree@V?$_Tmap_traits@KVioHashString@@U?$less@K@std@@V?$allocator@U?$pair@$$CBKVioHashString@@@std@@@3@$0A@@std@@@std@@IBEPAU_Node@?$_Tree_nod@V?$_Tmap_traits@KVioHashString@@U?$less@K@std@@V?$allocator@U?$pair@$$CBKVioHashString@@@std@@@3@$0A@@std@@@2@ABK@Z ; std::_Tree<std::_Tmap_traits<unsigned long,ioHashString,std::less<unsigned long>,std::allocator<std::pair<unsigned long const ,ioHashString> >,0> >::_Lbound

; 1434 : 		return (_Where == end()
; 1435 : 			|| _DEBUG_LT_PRED(this->comp,
; 1436 : 				_Keyval, this->_Key(_Where._Mynode()))
; 1437 : 					? end() : _Where);

  00011	8b 76 04	 mov	 esi, DWORD PTR [esi+4]
  00014	89 45 0c	 mov	 DWORD PTR __Where$[ebp], eax
  00017	3b c6		 cmp	 eax, esi
  00019	74 0c		 je	 SHORT $LN3@find
  0001b	8b 0f		 mov	 ecx, DWORD PTR [edi]
  0001d	3b 48 0c	 cmp	 ecx, DWORD PTR [eax+12]
  00020	72 05		 jb	 SHORT $LN3@find
  00022	8d 45 0c	 lea	 eax, DWORD PTR __Where$[ebp]
  00025	eb 06		 jmp	 SHORT $LN4@find
$LN3@find:
  00027	89 75 fc	 mov	 DWORD PTR $T529742[ebp], esi
  0002a	8d 45 fc	 lea	 eax, DWORD PTR $T529742[ebp]
$LN4@find:
  0002d	8b 08		 mov	 ecx, DWORD PTR [eax]
  0002f	8b 45 08	 mov	 eax, DWORD PTR ___$ReturnUdt$[ebp]
  00032	5f		 pop	 edi
  00033	89 08		 mov	 DWORD PTR [eax], ecx
  00035	5e		 pop	 esi

; 1438 : 		}

  00036	c9		 leave
  00037	c2 08 00	 ret	 8
?find@?$_Tree@V?$_Tmap_traits@KVioHashString@@U?$less@K@std@@V?$allocator@U?$pair@$$CBKVioHashString@@@std@@@3@$0A@@std@@@std@@QBE?AV?$_Tree_const_iterator@V?$_Tree_val@V?$_Tmap_traits@KVioHashString@@U?$less@K@std@@V?$allocator@U?$pair@$$CBKVioHashString@@@std@@@3@$0A@@std@@@std@@@2@ABK@Z ENDP ; std::_Tree<std::_Tmap_traits<unsigned long,ioHashString,std::less<unsigned long>,std::allocator<std::pair<unsigned long const ,ioHashString> >,0> >::find
_TEXT	ENDS
PUBLIC	??0?$_Tree@V?$_Tmap_traits@KVioHashString@@U?$less@K@std@@V?$allocator@U?$pair@$$CBKVioHashString@@@std@@@3@$0A@@std@@@std@@QAE@ABU?$less@K@1@ABV?$allocator@U?$pair@$$CBKVioHashString@@@std@@@1@@Z ; std::_Tree<std::_Tmap_traits<unsigned long,ioHashString,std::less<unsigned long>,std::allocator<std::pair<unsigned long const ,ioHashString> >,0> >::_Tree<std::_Tmap_traits<unsigned long,ioHashString,std::less<unsigned long>,std::allocator<std::pair<unsigned long const ,ioHashString> >,0> >
; Function compile flags: /Ogsp
;	COMDAT ??0?$_Tree@V?$_Tmap_traits@KVioHashString@@U?$less@K@std@@V?$allocator@U?$pair@$$CBKVioHashString@@@std@@@3@$0A@@std@@@std@@QAE@ABU?$less@K@1@ABV?$allocator@U?$pair@$$CBKVioHashString@@@std@@@1@@Z
_TEXT	SEGMENT
$T529848 = -4						; size = 4
$T529843 = -4						; size = 4
__Parg$ = 8						; size = 4
__Al$ = 12						; size = 4
??0?$_Tree@V?$_Tmap_traits@KVioHashString@@U?$less@K@std@@V?$allocator@U?$pair@$$CBKVioHashString@@@std@@@3@$0A@@std@@@std@@QAE@ABU?$less@K@1@ABV?$allocator@U?$pair@$$CBKVioHashString@@@std@@@1@@Z PROC ; std::_Tree<std::_Tmap_traits<unsigned long,ioHashString,std::less<unsigned long>,std::allocator<std::pair<unsigned long const ,ioHashString> >,0> >::_Tree<std::_Tmap_traits<unsigned long,ioHashString,std::less<unsigned long>,std::allocator<std::pair<unsigned long const ,ioHashString> >,0> >, COMDAT
; _this$ = ecx

; 698  : 		{	// construct empty tree

  00000	55		 push	 ebp
  00001	8b ec		 mov	 ebp, esp
  00003	51		 push	 ecx
  00004	56		 push	 esi
  00005	51		 push	 ecx
  00006	89 65 fc	 mov	 DWORD PTR $T529843[ebp], esp
  00009	89 65 fc	 mov	 DWORD PTR $T529848[ebp], esp
  0000c	ff 75 08	 push	 DWORD PTR __Parg$[ebp]
  0000f	8b f1		 mov	 esi, ecx
  00011	e8 00 00 00 00	 call	 ??0?$_Tree_val@V?$_Tmap_traits@KVioHashString@@U?$less@K@std@@V?$allocator@U?$pair@$$CBKVioHashString@@@std@@@3@$0A@@std@@@std@@QAE@ABU?$less@K@1@V?$allocator@U?$pair@$$CBKVioHashString@@@std@@@1@@Z ; std::_Tree_val<std::_Tmap_traits<unsigned long,ioHashString,std::less<unsigned long>,std::allocator<std::pair<unsigned long const ,ioHashString> >,0> >::_Tree_val<std::_Tmap_traits<unsigned long,ioHashString,std::less<unsigned long>,std::allocator<std::pair<unsigned long const ,ioHashString> >,0> >

; 699  : 		}

  00016	8b c6		 mov	 eax, esi
  00018	5e		 pop	 esi
  00019	c9		 leave
  0001a	c2 08 00	 ret	 8
??0?$_Tree@V?$_Tmap_traits@KVioHashString@@U?$less@K@std@@V?$allocator@U?$pair@$$CBKVioHashString@@@std@@@3@$0A@@std@@@std@@QAE@ABU?$less@K@1@ABV?$allocator@U?$pair@$$CBKVioHashString@@@std@@@1@@Z ENDP ; std::_Tree<std::_Tmap_traits<unsigned long,ioHashString,std::less<unsigned long>,std::allocator<std::pair<unsigned long const ,ioHashString> >,0> >::_Tree<std::_Tmap_traits<unsigned long,ioHashString,std::less<unsigned long>,std::allocator<std::pair<unsigned long const ,ioHashString> >,0> >
_TEXT	ENDS
PUBLIC	?destroy@?$allocator@U?$pair@$$CBKVioHashString@@@std@@@std@@QAEXPAU?$pair@$$CBKVioHashString@@@2@@Z ; std::allocator<std::pair<unsigned long const ,ioHashString> >::destroy
; Function compile flags: /Ogsp
; File c:\program files (x86)\microsoft visual studio 10.0\vc\include\xmemory
;	COMDAT ?destroy@?$allocator@U?$pair@$$CBKVioHashString@@@std@@@std@@QAEXPAU?$pair@$$CBKVioHashString@@@2@@Z
_TEXT	SEGMENT
__Ptr$ = 8						; size = 4
?destroy@?$allocator@U?$pair@$$CBKVioHashString@@@std@@@std@@QAEXPAU?$pair@$$CBKVioHashString@@@2@@Z PROC ; std::allocator<std::pair<unsigned long const ,ioHashString> >::destroy, COMDAT
; _this$ = ecx

; 212  : 		{	// destroy object at _Ptr

  00000	55		 push	 ebp
  00001	8b ec		 mov	 ebp, esp

; 213  : 		_Destroy(_Ptr);

  00003	8b 4d 08	 mov	 ecx, DWORD PTR __Ptr$[ebp]
  00006	83 c1 04	 add	 ecx, 4
  00009	ff 15 00 00 00
	00		 call	 DWORD PTR __imp_??1ioHashString@@QAE@XZ

; 214  : 		}

  0000f	5d		 pop	 ebp
  00010	c2 04 00	 ret	 4
?destroy@?$allocator@U?$pair@$$CBKVioHashString@@@std@@@std@@QAEXPAU?$pair@$$CBKVioHashString@@@2@@Z ENDP ; std::allocator<std::pair<unsigned long const ,ioHashString> >::destroy
_TEXT	ENDS
PUBLIC	??$_Destroy_range@V?$allocator@USwingParam@@@std@@@std@@YAXPAUSwingParam@@0AAV?$allocator@USwingParam@@@0@U_Nonscalar_ptr_iterator_tag@0@@Z ; std::_Destroy_range<std::allocator<SwingParam> >
; Function compile flags: /Ogsp
;	COMDAT ??$_Destroy_range@V?$allocator@USwingParam@@@std@@@std@@YAXPAUSwingParam@@0AAV?$allocator@USwingParam@@@0@U_Nonscalar_ptr_iterator_tag@0@@Z
_TEXT	SEGMENT
__First$ = 8						; size = 4
__Last$ = 12						; size = 4
__Al$ = 16						; size = 4
___formal$ = 20						; size = 1
??$_Destroy_range@V?$allocator@USwingParam@@@std@@@std@@YAXPAUSwingParam@@0AAV?$allocator@USwingParam@@@0@U_Nonscalar_ptr_iterator_tag@0@@Z PROC ; std::_Destroy_range<std::allocator<SwingParam> >, COMDAT

; 96   : 	for (; _First != _Last; ++_First)
; 97   : 		_Dest_val(_Al, _First);
; 98   : 	}

  00000	c3		 ret	 0
??$_Destroy_range@V?$allocator@USwingParam@@@std@@@std@@YAXPAUSwingParam@@0AAV?$allocator@USwingParam@@@0@U_Nonscalar_ptr_iterator_tag@0@@Z ENDP ; std::_Destroy_range<std::allocator<SwingParam> >
_TEXT	ENDS
PUBLIC	??$_Uninit_copy@PAUSwingParam@@PAU1@V?$allocator@USwingParam@@@std@@@std@@YAPAUSwingParam@@PAU1@00AAV?$allocator@USwingParam@@@0@U_Nonscalar_ptr_iterator_tag@0@@Z ; std::_Uninit_copy<SwingParam *,SwingParam *,std::allocator<SwingParam> >
; Function compile flags: /Ogsp
; File c:\program files (x86)\microsoft visual studio 10.0\vc\include\memory
;	COMDAT ??$_Uninit_copy@PAUSwingParam@@PAU1@V?$allocator@USwingParam@@@std@@@std@@YAPAUSwingParam@@PAU1@00AAV?$allocator@USwingParam@@@0@U_Nonscalar_ptr_iterator_tag@0@@Z
_TEXT	SEGMENT
__First$ = 8						; size = 4
__Last$ = 12						; size = 4
__Dest$ = 16						; size = 4
__Al$ = 20						; size = 4
___formal$ = 24						; size = 1
??$_Uninit_copy@PAUSwingParam@@PAU1@V?$allocator@USwingParam@@@std@@@std@@YAPAUSwingParam@@PAU1@00AAV?$allocator@USwingParam@@@0@U_Nonscalar_ptr_iterator_tag@0@@Z PROC ; std::_Uninit_copy<SwingParam *,SwingParam *,std::allocator<SwingParam> >, COMDAT

; 369  : 	{	// copy [_First, _Last) to raw _Dest, using _Al, arbitrary type

  00000	55		 push	 ebp
  00001	8b ec		 mov	 ebp, esp
  00003	56		 push	 esi

; 370  : 	_DEBUG_RANGE(_First, _Last);
; 371  : 	_DEBUG_POINTER(_Dest);
; 372  : 	_FwdIt _Next = _Dest;
; 373  : 
; 374  : 	_TRY_BEGIN
; 375  : 	for (; _First != _Last; ++_Dest, ++_First)

  00004	8b 75 08	 mov	 esi, DWORD PTR __First$[ebp]
  00007	eb 16		 jmp	 SHORT $LN24@Uninit_cop
$LL6@Uninit_cop:

; 376  : 		_Cons_val(_Al, _Dest, *_First);

  00009	56		 push	 esi
  0000a	ff 75 10	 push	 DWORD PTR __Dest$[ebp]
  0000d	ff 75 14	 push	 DWORD PTR __Al$[ebp]
  00010	e8 00 00 00 00	 call	 ??$_Cons_val@V?$allocator@USwingParam@@@std@@USwingParam@@AAU3@@std@@YAXAAV?$allocator@USwingParam@@@0@PAUSwingParam@@AAU2@@Z ; std::_Cons_val<std::allocator<SwingParam>,SwingParam,SwingParam &>
  00015	83 45 10 10	 add	 DWORD PTR __Dest$[ebp], 16 ; 00000010H
  00019	83 c4 0c	 add	 esp, 12			; 0000000cH
  0001c	83 c6 10	 add	 esi, 16			; 00000010H
$LN24@Uninit_cop:

; 370  : 	_DEBUG_RANGE(_First, _Last);
; 371  : 	_DEBUG_POINTER(_Dest);
; 372  : 	_FwdIt _Next = _Dest;
; 373  : 
; 374  : 	_TRY_BEGIN
; 375  : 	for (; _First != _Last; ++_Dest, ++_First)

  0001f	3b 75 0c	 cmp	 esi, DWORD PTR __Last$[ebp]
  00022	75 e5		 jne	 SHORT $LL6@Uninit_cop

; 377  : 	_CATCH_ALL
; 378  : 	for (; _Next != _Dest; ++_Next)
; 379  : 		_Dest_val(_Al, _Next);
; 380  : 	_RERAISE;
; 381  : 	_CATCH_END
; 382  : 	return (_Dest);

  00024	8b 45 10	 mov	 eax, DWORD PTR __Dest$[ebp]
  00027	5e		 pop	 esi

; 383  : 	}

  00028	5d		 pop	 ebp
  00029	c3		 ret	 0
??$_Uninit_copy@PAUSwingParam@@PAU1@V?$allocator@USwingParam@@@std@@@std@@YAPAUSwingParam@@PAU1@00AAV?$allocator@USwingParam@@@0@U_Nonscalar_ptr_iterator_tag@0@@Z ENDP ; std::_Uninit_copy<SwingParam *,SwingParam *,std::allocator<SwingParam> >
_TEXT	ENDS
PUBLIC	??$_Uninit_move@PAUSwingParam@@PAU1@V?$allocator@USwingParam@@@std@@U1@@std@@YAPAUSwingParam@@PAU1@00AAV?$allocator@USwingParam@@@0@0U_Nonscalar_ptr_iterator_tag@0@@Z ; std::_Uninit_move<SwingParam *,SwingParam *,std::allocator<SwingParam>,SwingParam>
; Function compile flags: /Ogsp
;	COMDAT ??$_Uninit_move@PAUSwingParam@@PAU1@V?$allocator@USwingParam@@@std@@U1@@std@@YAPAUSwingParam@@PAU1@00AAV?$allocator@USwingParam@@@0@0U_Nonscalar_ptr_iterator_tag@0@@Z
_TEXT	SEGMENT
__First$ = 8						; size = 4
__Last$ = 12						; size = 4
__Dest$ = 16						; size = 4
__Al$ = 20						; size = 4
___formal$ = 24						; size = 4
___formal$ = 28						; size = 1
??$_Uninit_move@PAUSwingParam@@PAU1@V?$allocator@USwingParam@@@std@@U1@@std@@YAPAUSwingParam@@PAU1@00AAV?$allocator@USwingParam@@@0@0U_Nonscalar_ptr_iterator_tag@0@@Z PROC ; std::_Uninit_move<SwingParam *,SwingParam *,std::allocator<SwingParam>,SwingParam>, COMDAT

; 424  : 	{	// move [_First, _Last) to raw _Dest, using _Al, arbitrary type

  00000	55		 push	 ebp
  00001	8b ec		 mov	 ebp, esp
  00003	56		 push	 esi

; 425  : 	_DEBUG_RANGE(_First, _Last);
; 426  : 	_DEBUG_POINTER(_Dest);
; 427  : 	_FwdIt _Next = _Dest;
; 428  : 
; 429  : 	_TRY_BEGIN
; 430  : 	for (; _First != _Last; ++_Dest, ++_First)

  00004	8b 75 08	 mov	 esi, DWORD PTR __First$[ebp]
  00007	eb 16		 jmp	 SHORT $LN24@Uninit_mov
$LL6@Uninit_mov:

; 431  : 		_Cons_val(_Al, _Dest, (_Valty &&)*_First);

  00009	56		 push	 esi
  0000a	ff 75 10	 push	 DWORD PTR __Dest$[ebp]
  0000d	ff 75 14	 push	 DWORD PTR __Al$[ebp]
  00010	e8 00 00 00 00	 call	 ??$_Cons_val@V?$allocator@USwingParam@@@std@@USwingParam@@U3@@std@@YAXAAV?$allocator@USwingParam@@@0@PAUSwingParam@@$$QAU2@@Z ; std::_Cons_val<std::allocator<SwingParam>,SwingParam,SwingParam>
  00015	83 45 10 10	 add	 DWORD PTR __Dest$[ebp], 16 ; 00000010H
  00019	83 c4 0c	 add	 esp, 12			; 0000000cH
  0001c	83 c6 10	 add	 esi, 16			; 00000010H
$LN24@Uninit_mov:

; 425  : 	_DEBUG_RANGE(_First, _Last);
; 426  : 	_DEBUG_POINTER(_Dest);
; 427  : 	_FwdIt _Next = _Dest;
; 428  : 
; 429  : 	_TRY_BEGIN
; 430  : 	for (; _First != _Last; ++_Dest, ++_First)

  0001f	3b 75 0c	 cmp	 esi, DWORD PTR __Last$[ebp]
  00022	75 e5		 jne	 SHORT $LL6@Uninit_mov

; 432  : 	_CATCH_ALL
; 433  : 	for (; _Next != _Dest; ++_Next)
; 434  : 		_Dest_val(_Al, _Next);
; 435  : 	_RERAISE;
; 436  : 	_CATCH_END
; 437  : 	return (_Dest);

  00024	8b 45 10	 mov	 eax, DWORD PTR __Dest$[ebp]
  00027	5e		 pop	 esi

; 438  : 	}

  00028	5d		 pop	 ebp
  00029	c3		 ret	 0
??$_Uninit_move@PAUSwingParam@@PAU1@V?$allocator@USwingParam@@@std@@U1@@std@@YAPAUSwingParam@@PAU1@00AAV?$allocator@USwingParam@@@0@0U_Nonscalar_ptr_iterator_tag@0@@Z ENDP ; std::_Uninit_move<SwingParam *,SwingParam *,std::allocator<SwingParam>,SwingParam>
_TEXT	ENDS
PUBLIC	?construct@?$allocator@U?$pair@$$CBKVioHashString@@@std@@@std@@QAEXPAU?$pair@$$CBKVioHashString@@@2@$$QAU32@@Z ; std::allocator<std::pair<unsigned long const ,ioHashString> >::construct
;	COMDAT xdata$x
; File c:\program files (x86)\microsoft visual studio 10.0\vc\include\utility
xdata$x	SEGMENT
__unwindtable$?construct@?$allocator@U?$pair@$$CBKVioHashString@@@std@@@std@@QAEXPAU?$pair@$$CBKVioHashString@@@2@$$QAU32@@Z DD 0ffffffffH
	DD	FLAT:__unwindfunclet$?construct@?$allocator@U?$pair@$$CBKVioHashString@@@std@@@std@@QAEXPAU?$pair@$$CBKVioHashString@@@2@$$QAU32@@Z$0
__ehfuncinfo$?construct@?$allocator@U?$pair@$$CBKVioHashString@@@std@@@std@@QAEXPAU?$pair@$$CBKVioHashString@@@2@$$QAU32@@Z DD 019930522H
	DD	01H
	DD	FLAT:__unwindtable$?construct@?$allocator@U?$pair@$$CBKVioHashString@@@std@@@std@@QAEXPAU?$pair@$$CBKVioHashString@@@2@$$QAU32@@Z
	DD	2 DUP(00H)
	DD	2 DUP(00H)
	DD	00H
	DD	01H
; Function compile flags: /Ogsp
; File c:\program files (x86)\microsoft visual studio 10.0\vc\include\xmemory
xdata$x	ENDS
;	COMDAT ?construct@?$allocator@U?$pair@$$CBKVioHashString@@@std@@@std@@QAEXPAU?$pair@$$CBKVioHashString@@@2@$$QAU32@@Z
_TEXT	SEGMENT
$T529958 = -16						; size = 4
__$EHRec$ = -12						; size = 12
__Ptr$ = 8						; size = 4
__Val$ = 12						; size = 4
?construct@?$allocator@U?$pair@$$CBKVioHashString@@@std@@@std@@QAEXPAU?$pair@$$CBKVioHashString@@@2@$$QAU32@@Z PROC ; std::allocator<std::pair<unsigned long const ,ioHashString> >::construct, COMDAT
; _this$ = ecx

; 201  : 		{	// construct object at _Ptr with value _Val

  00000	6a 04		 push	 4
  00002	b8 00 00 00 00	 mov	 eax, __ehhandler$?construct@?$allocator@U?$pair@$$CBKVioHashString@@@std@@@std@@QAEXPAU?$pair@$$CBKVioHashString@@@2@$$QAU32@@Z
  00007	e8 00 00 00 00	 call	 __EH_prolog3

; 202  : 		::new ((void _FARQ *)_Ptr) _Ty(_STD forward<_Ty>(_Val));

  0000c	8b 45 08	 mov	 eax, DWORD PTR __Ptr$[ebp]
  0000f	89 45 f0	 mov	 DWORD PTR $T529958[ebp], eax
  00012	83 65 fc 00	 and	 DWORD PTR __$EHRec$[ebp+8], 0
  00016	85 c0		 test	 eax, eax
  00018	74 14		 je	 SHORT $LN3@construct@4
  0001a	8b 4d 0c	 mov	 ecx, DWORD PTR __Val$[ebp]
  0001d	8b 11		 mov	 edx, DWORD PTR [ecx]
  0001f	83 c1 04	 add	 ecx, 4
  00022	51		 push	 ecx
  00023	8d 48 04	 lea	 ecx, DWORD PTR [eax+4]
  00026	89 10		 mov	 DWORD PTR [eax], edx
  00028	ff 15 00 00 00
	00		 call	 DWORD PTR __imp_??0ioHashString@@QAE@ABV0@@Z
$LN3@construct@4:

; 203  : 		}

  0002e	e8 00 00 00 00	 call	 __EH_epilog3
  00033	c2 08 00	 ret	 8
_TEXT	ENDS
;	COMDAT text$x
text$x	SEGMENT
__unwindfunclet$?construct@?$allocator@U?$pair@$$CBKVioHashString@@@std@@@std@@QAEXPAU?$pair@$$CBKVioHashString@@@2@$$QAU32@@Z$0:
  00000	ff 75 08	 push	 DWORD PTR __Ptr$[ebp]
  00003	ff 75 f0	 push	 DWORD PTR $T529958[ebp]
  00006	e8 00 00 00 00	 call	 ??3@YAXPAX0@Z		; operator delete
  0000b	59		 pop	 ecx
  0000c	59		 pop	 ecx
  0000d	c3		 ret	 0
__ehhandler$?construct@?$allocator@U?$pair@$$CBKVioHashString@@@std@@@std@@QAEXPAU?$pair@$$CBKVioHashString@@@2@$$QAU32@@Z:
  0000e	8b 54 24 08	 mov	 edx, DWORD PTR [esp+8]
  00012	8d 42 0c	 lea	 eax, DWORD PTR [edx+12]
  00015	8b 4a ec	 mov	 ecx, DWORD PTR [edx-20]
  00018	33 c8		 xor	 ecx, eax
  0001a	e8 00 00 00 00	 call	 @__security_check_cookie@4
  0001f	b8 00 00 00 00	 mov	 eax, OFFSET __ehfuncinfo$?construct@?$allocator@U?$pair@$$CBKVioHashString@@@std@@@std@@QAEXPAU?$pair@$$CBKVioHashString@@@2@$$QAU32@@Z
  00024	e9 00 00 00 00	 jmp	 ___CxxFrameHandler3
text$x	ENDS
?construct@?$allocator@U?$pair@$$CBKVioHashString@@@std@@@std@@QAEXPAU?$pair@$$CBKVioHashString@@@2@$$QAU32@@Z ENDP ; std::allocator<std::pair<unsigned long const ,ioHashString> >::construct
PUBLIC	??_C@_0CM@LBMEKDD@ioArmorItem?3?3FindBodyMesh?5?3?5Unkn@ ; `string'
PUBLIC	?FindBodyMesh@ioArmorItem@@IBEABVioHashString@@XZ ; ioArmorItem::FindBodyMesh
EXTRN	__imp_?PrintTimeAndLog@CLog@@QAAXHPADZZ:PROC
EXTRN	__imp_?LOG@@3VCLog@@A:BYTE
;	COMDAT ??_C@_0CM@LBMEKDD@ioArmorItem?3?3FindBodyMesh?5?3?5Unkn@
; File c:\program files (x86)\microsoft visual studio 10.0\vc\include\xtree
CONST	SEGMENT
??_C@_0CM@LBMEKDD@ioArmorItem?3?3FindBodyMesh?5?3?5Unkn@ DB 'ioArmorItem:'
	DB	':FindBodyMesh : Unknown Default', 00H	; `string'
; Function compile flags: /Ogsp
; File d:\lost saga for developer\youtube\tutorial\source\src\lsclient\ioarmoritem.cpp
CONST	ENDS
;	COMDAT ?FindBodyMesh@ioArmorItem@@IBEABVioHashString@@XZ
_TEXT	SEGMENT
_iter$ = -8						; size = 4
$T530010 = -4						; size = 4
?FindBodyMesh@ioArmorItem@@IBEABVioHashString@@XZ PROC	; ioArmorItem::FindBodyMesh, COMDAT
; _this$ = ecx

; 108  : {

  00000	55		 push	 ebp
  00001	8b ec		 mov	 ebp, esp
  00003	51		 push	 ecx
  00004	51		 push	 ecx

; 109  : 	// Default Return
; 110  : 	DecoInfoMap::const_iterator iter = m_BodyMeshMap.find( 0 );

  00005	83 65 fc 00	 and	 DWORD PTR $T530010[ebp], 0
  00009	56		 push	 esi
  0000a	8d 45 fc	 lea	 eax, DWORD PTR $T530010[ebp]
  0000d	50		 push	 eax
  0000e	8b f1		 mov	 esi, ecx
  00010	8d 45 f8	 lea	 eax, DWORD PTR _iter$[ebp]
  00013	50		 push	 eax
  00014	8d 8e c8 17 00
	00		 lea	 ecx, DWORD PTR [esi+6088]
  0001a	e8 00 00 00 00	 call	 ?find@?$_Tree@V?$_Tmap_traits@KVioHashString@@U?$less@K@std@@V?$allocator@U?$pair@$$CBKVioHashString@@@std@@@3@$0A@@std@@@std@@QBE?AV?$_Tree_const_iterator@V?$_Tree_val@V?$_Tmap_traits@KVioHashString@@U?$less@K@std@@V?$allocator@U?$pair@$$CBKVioHashString@@@std@@@3@$0A@@std@@@std@@@2@ABK@Z ; std::_Tree<std::_Tmap_traits<unsigned long,ioHashString,std::less<unsigned long>,std::allocator<std::pair<unsigned long const ,ioHashString> >,0> >::find

; 111  : 	if( iter != m_BodyMeshMap.end() )

  0001f	8b 45 f8	 mov	 eax, DWORD PTR _iter$[ebp]
  00022	3b 86 cc 17 00
	00		 cmp	 eax, DWORD PTR [esi+6092]
  00028	74 05		 je	 SHORT $LN1@FindBodyMe

; 112  : 		return iter->second;		

  0002a	83 c0 10	 add	 eax, 16			; 00000010H
  0002d	eb 1c		 jmp	 SHORT $LN2@FindBodyMe
$LN1@FindBodyMe:

; 113  : 
; 114  : 	LOG.PrintTimeAndLog( 0, "ioArmorItem::FindBodyMesh : Unknown Default" );

  0002f	68 00 00 00 00	 push	 OFFSET ??_C@_0CM@LBMEKDD@ioArmorItem?3?3FindBodyMesh?5?3?5Unkn@
  00034	6a 00		 push	 0
  00036	ff 35 00 00 00
	00		 push	 DWORD PTR __imp_?LOG@@3VCLog@@A
  0003c	ff 15 00 00 00
	00		 call	 DWORD PTR __imp_?PrintTimeAndLog@CLog@@QAAXHPADZZ
  00042	83 c4 0c	 add	 esp, 12			; 0000000cH

; 115  : 	return m_BodyMesh;

  00045	8d 86 a8 17 00
	00		 lea	 eax, DWORD PTR [esi+6056]
$LN2@FindBodyMe:
  0004b	5e		 pop	 esi

; 116  : }

  0004c	c9		 leave
  0004d	c3		 ret	 0
?FindBodyMesh@ioArmorItem@@IBEABVioHashString@@XZ ENDP	; ioArmorItem::FindBodyMesh
_TEXT	ENDS
PUBLIC	??_C@_0CM@IHFJFHCH@ioArmorItem?3?3FindHandMesh?5?3?5Unkn@ ; `string'
PUBLIC	?FindHandMesh@ioArmorItem@@IBEABVioHashString@@XZ ; ioArmorItem::FindHandMesh
;	COMDAT ??_C@_0CM@IHFJFHCH@ioArmorItem?3?3FindHandMesh?5?3?5Unkn@
; File c:\program files (x86)\microsoft visual studio 10.0\vc\include\xtree
CONST	SEGMENT
??_C@_0CM@IHFJFHCH@ioArmorItem?3?3FindHandMesh?5?3?5Unkn@ DB 'ioArmorItem'
	DB	'::FindHandMesh : Unknown Default', 00H	; `string'
; Function compile flags: /Ogsp
; File d:\lost saga for developer\youtube\tutorial\source\src\lsclient\ioarmoritem.cpp
CONST	ENDS
;	COMDAT ?FindHandMesh@ioArmorItem@@IBEABVioHashString@@XZ
_TEXT	SEGMENT
_iter$ = -8						; size = 4
$T530062 = -4						; size = 4
?FindHandMesh@ioArmorItem@@IBEABVioHashString@@XZ PROC	; ioArmorItem::FindHandMesh, COMDAT
; _this$ = ecx

; 119  : {

  00000	55		 push	 ebp
  00001	8b ec		 mov	 ebp, esp
  00003	51		 push	 ecx
  00004	51		 push	 ecx

; 120  : 	// Default Return
; 121  : 	DecoInfoMap::const_iterator iter = m_HandMeshMap.find( 0 );

  00005	83 65 fc 00	 and	 DWORD PTR $T530062[ebp], 0
  00009	56		 push	 esi
  0000a	8d 45 fc	 lea	 eax, DWORD PTR $T530062[ebp]
  0000d	50		 push	 eax
  0000e	8b f1		 mov	 esi, ecx
  00010	8d 45 f8	 lea	 eax, DWORD PTR _iter$[ebp]
  00013	50		 push	 eax
  00014	8d 8e d8 17 00
	00		 lea	 ecx, DWORD PTR [esi+6104]
  0001a	e8 00 00 00 00	 call	 ?find@?$_Tree@V?$_Tmap_traits@KVioHashString@@U?$less@K@std@@V?$allocator@U?$pair@$$CBKVioHashString@@@std@@@3@$0A@@std@@@std@@QBE?AV?$_Tree_const_iterator@V?$_Tree_val@V?$_Tmap_traits@KVioHashString@@U?$less@K@std@@V?$allocator@U?$pair@$$CBKVioHashString@@@std@@@3@$0A@@std@@@std@@@2@ABK@Z ; std::_Tree<std::_Tmap_traits<unsigned long,ioHashString,std::less<unsigned long>,std::allocator<std::pair<unsigned long const ,ioHashString> >,0> >::find

; 122  : 	if( iter != m_HandMeshMap.end() )

  0001f	8b 45 f8	 mov	 eax, DWORD PTR _iter$[ebp]
  00022	3b 86 dc 17 00
	00		 cmp	 eax, DWORD PTR [esi+6108]
  00028	74 05		 je	 SHORT $LN1@FindHandMe

; 123  : 		return iter->second;		

  0002a	83 c0 10	 add	 eax, 16			; 00000010H
  0002d	eb 1c		 jmp	 SHORT $LN2@FindHandMe
$LN1@FindHandMe:

; 124  : 
; 125  : 	LOG.PrintTimeAndLog( 0, "ioArmorItem::FindHandMesh : Unknown Default" );

  0002f	68 00 00 00 00	 push	 OFFSET ??_C@_0CM@IHFJFHCH@ioArmorItem?3?3FindHandMesh?5?3?5Unkn@
  00034	6a 00		 push	 0
  00036	ff 35 00 00 00
	00		 push	 DWORD PTR __imp_?LOG@@3VCLog@@A
  0003c	ff 15 00 00 00
	00		 call	 DWORD PTR __imp_?PrintTimeAndLog@CLog@@QAAXHPADZZ
  00042	83 c4 0c	 add	 esp, 12			; 0000000cH

; 126  : 	return m_HandMesh;

  00045	8d 86 b8 17 00
	00		 lea	 eax, DWORD PTR [esi+6072]
$LN2@FindHandMe:
  0004b	5e		 pop	 esi

; 127  : }

  0004c	c9		 leave
  0004d	c3		 ret	 0
?FindHandMesh@ioArmorItem@@IBEABVioHashString@@XZ ENDP	; ioArmorItem::FindHandMesh
_TEXT	ENDS
PUBLIC	?SetItemType@ioArmorItem@@UAEXXZ		; ioArmorItem::SetItemType
EXTRN	__imp_??4ioHashString@@QAEAAV0@ABV0@@Z:PROC
EXTRN	?SetItemType@ioItem@@UAEXXZ:PROC		; ioItem::SetItemType
; Function compile flags: /Ogsp
;	COMDAT ?SetItemType@ioArmorItem@@UAEXXZ
_TEXT	SEGMENT
?SetItemType@ioArmorItem@@UAEXXZ PROC			; ioArmorItem::SetItemType, COMDAT
; _this$ = ecx

; 130  : {

  00000	56		 push	 esi
  00001	57		 push	 edi
  00002	8b f1		 mov	 esi, ecx

; 131  : 	ioItem::SetItemType();

  00004	e8 00 00 00 00	 call	 ?SetItemType@ioItem@@UAEXXZ ; ioItem::SetItemType

; 132  : 	m_BodyMesh = FindBodyMesh();

  00009	8b ce		 mov	 ecx, esi
  0000b	e8 00 00 00 00	 call	 ?FindBodyMesh@ioArmorItem@@IBEABVioHashString@@XZ ; ioArmorItem::FindBodyMesh
  00010	8b 3d 00 00 00
	00		 mov	 edi, DWORD PTR __imp_??4ioHashString@@QAEAAV0@ABV0@@Z
  00016	50		 push	 eax
  00017	8d 8e a8 17 00
	00		 lea	 ecx, DWORD PTR [esi+6056]
  0001d	ff d7		 call	 edi

; 133  : 	m_HandMesh = FindHandMesh();

  0001f	8b ce		 mov	 ecx, esi
  00021	e8 00 00 00 00	 call	 ?FindHandMesh@ioArmorItem@@IBEABVioHashString@@XZ ; ioArmorItem::FindHandMesh
  00026	50		 push	 eax
  00027	8d 8e b8 17 00
	00		 lea	 ecx, DWORD PTR [esi+6072]
  0002d	ff d7		 call	 edi
  0002f	5f		 pop	 edi
  00030	5e		 pop	 esi

; 134  : }

  00031	c3		 ret	 0
?SetItemType@ioArmorItem@@UAEXXZ ENDP			; ioArmorItem::SetItemType
_TEXT	ENDS
PUBLIC	?HasHandMesh@ioArmorItem@@QBE_NPAVioBaseChar@@@Z ; ioArmorItem::HasHandMesh
; Function compile flags: /Ogsp
;	COMDAT ?HasHandMesh@ioArmorItem@@QBE_NPAVioBaseChar@@@Z
_TEXT	SEGMENT
_value$530126 = -1					; size = 1
_pOwner$ = 8						; size = 4
?HasHandMesh@ioArmorItem@@QBE_NPAVioBaseChar@@@Z PROC	; ioArmorItem::HasHandMesh, COMDAT
; _this$ = ecx

; 332  : {

  00000	55		 push	 ebp
  00001	8b ec		 mov	 ebp, esp
  00003	51		 push	 ecx
  00004	56		 push	 esi
  00005	8b f1		 mov	 esi, ecx

; 333  : 	if ( m_CostumeInfo.m_nCostumeCode > 0 )

  00007	83 be 3c 05 00
	00 00		 cmp	 DWORD PTR [esi+1340], 0
  0000e	7e 08		 jle	 SHORT $LN4@HasHandMes

; 334  : 	{
; 335  : 		if ( !m_CostumeInfo.m_szHandMesh.IsEmpty() )

  00010	8d 8e 9c 05 00
	00		 lea	 ecx, DWORD PTR [esi+1436]

; 336  : 			return true;
; 337  : 		else
; 338  : 			return false;

  00016	eb 3e		 jmp	 SHORT $LN13@HasHandMes
$LN4@HasHandMes:

; 339  : 	}
; 340  : 
; 341  : 	if( !g_ItemMaker.IsBaseEquipMesh() )

  00018	e8 00 00 00 00	 call	 ?GetSingleton@ioItemMaker@@SAAAV1@XZ ; ioItemMaker::GetSingleton
  0001d	8d 4d ff	 lea	 ecx, DWORD PTR _value$530126[ebp]
  00020	51		 push	 ecx
  00021	8d 48 50	 lea	 ecx, DWORD PTR [eax+80]
  00024	e8 00 00 00 00	 call	 ?DecryptValueToPool@?$CEncrypt@_N@@QAEXPA_N@Z ; CEncrypt<bool>::DecryptValueToPool
  00029	80 7d ff 00	 cmp	 BYTE PTR _value$530126[ebp], 0
  0002d	75 15		 jne	 SHORT $LN3@HasHandMes
$LN14@HasHandMes:

; 342  : 		return !m_HandMesh.IsEmpty();

  0002f	8d 8e b8 17 00
	00		 lea	 ecx, DWORD PTR [esi+6072]
  00035	ff 15 00 00 00
	00		 call	 DWORD PTR __imp_?IsEmpty@ioHashString@@QBE_NXZ
  0003b	33 c9		 xor	 ecx, ecx
  0003d	84 c0		 test	 al, al
  0003f	0f 94 c0	 sete	 al
  00042	eb 1e		 jmp	 SHORT $LN1@HasHandMes
$LN3@HasHandMes:

; 343  : 
; 344  : 	if( !pOwner )

  00044	83 7d 08 00	 cmp	 DWORD PTR _pOwner$[ebp], 0

; 345  : 		return !m_HandMesh.IsEmpty();

  00048	74 e5		 je	 SHORT $LN14@HasHandMes

; 346  : 
; 347  : 	if( !GetHandMesh( pOwner ).IsEmpty() )

  0004a	ff 75 08	 push	 DWORD PTR _pOwner$[ebp]
  0004d	8b ce		 mov	 ecx, esi
  0004f	e8 00 00 00 00	 call	 ?GetHandMesh@ioArmorItem@@QBEABVioHashString@@PAVioBaseChar@@@Z ; ioArmorItem::GetHandMesh
  00054	8b c8		 mov	 ecx, eax
$LN13@HasHandMes:
  00056	ff 15 00 00 00
	00		 call	 DWORD PTR __imp_?IsEmpty@ioHashString@@QBE_NXZ
  0005c	f6 d8		 neg	 al
  0005e	1a c0		 sbb	 al, al
  00060	fe c0		 inc	 al
$LN1@HasHandMes:
  00062	5e		 pop	 esi

; 348  : 		return true;
; 349  : 
; 350  : 	return false;
; 351  : }

  00063	c9		 leave
  00064	c2 04 00	 ret	 4
?HasHandMesh@ioArmorItem@@QBE_NPAVioBaseChar@@@Z ENDP	; ioArmorItem::HasHandMesh
_TEXT	ENDS
PUBLIC	??$_Destroy_range@V?$allocator@USwingParam@@@std@@@std@@YAXPAUSwingParam@@0AAV?$allocator@USwingParam@@@0@@Z ; std::_Destroy_range<std::allocator<SwingParam> >
; Function compile flags: /Ogsp
; File c:\program files (x86)\microsoft visual studio 10.0\vc\include\xmemory
;	COMDAT ??$_Destroy_range@V?$allocator@USwingParam@@@std@@@std@@YAXPAUSwingParam@@0AAV?$allocator@USwingParam@@@0@@Z
_TEXT	SEGMENT
__First$ = 8						; size = 4
__Last$ = 12						; size = 4
__Al$ = 16						; size = 4
??$_Destroy_range@V?$allocator@USwingParam@@@std@@@std@@YAXPAUSwingParam@@0AAV?$allocator@USwingParam@@@0@@Z PROC ; std::_Destroy_range<std::allocator<SwingParam> >, COMDAT

; 88   : 	_Destroy_range(_First, _Last, _Al, _Ptr_cat(_First, _Last));
; 89   : 	}

  00000	c3		 ret	 0
??$_Destroy_range@V?$allocator@USwingParam@@@std@@@std@@YAXPAUSwingParam@@0AAV?$allocator@USwingParam@@@0@@Z ENDP ; std::_Destroy_range<std::allocator<SwingParam> >
_TEXT	ENDS
PUBLIC	??$_Dest_val@V?$allocator@U?$pair@$$CBKVioHashString@@@std@@@std@@U?$pair@$$CBKVioHashString@@@2@@std@@YAXAAV?$allocator@U?$pair@$$CBKVioHashString@@@std@@@0@PAU?$pair@$$CBKVioHashString@@@0@@Z ; std::_Dest_val<std::allocator<std::pair<unsigned long const ,ioHashString> >,std::pair<unsigned long const ,ioHashString> >
; Function compile flags: /Ogsp
;	COMDAT ??$_Dest_val@V?$allocator@U?$pair@$$CBKVioHashString@@@std@@@std@@U?$pair@$$CBKVioHashString@@@2@@std@@YAXAAV?$allocator@U?$pair@$$CBKVioHashString@@@std@@@0@PAU?$pair@$$CBKVioHashString@@@0@@Z
_TEXT	SEGMENT
__Alval$ = 8						; size = 4
__Pdest$ = 12						; size = 4
??$_Dest_val@V?$allocator@U?$pair@$$CBKVioHashString@@@std@@@std@@U?$pair@$$CBKVioHashString@@@2@@std@@YAXAAV?$allocator@U?$pair@$$CBKVioHashString@@@std@@@0@PAU?$pair@$$CBKVioHashString@@@0@@Z PROC ; std::_Dest_val<std::allocator<std::pair<unsigned long const ,ioHashString> >,std::pair<unsigned long const ,ioHashString> >, COMDAT

; 286  : 	{	// destroy using allocator

  00000	55		 push	 ebp
  00001	8b ec		 mov	 ebp, esp

; 287  : 	_Alval.destroy(_Pdest);

  00003	8b 4d 0c	 mov	 ecx, DWORD PTR __Pdest$[ebp]
  00006	83 c1 04	 add	 ecx, 4

; 288  : 	}

  00009	5d		 pop	 ebp

; 287  : 	_Alval.destroy(_Pdest);

  0000a	ff 25 00 00 00
	00		 jmp	 DWORD PTR __imp_??1ioHashString@@QAE@XZ
??$_Dest_val@V?$allocator@U?$pair@$$CBKVioHashString@@@std@@@std@@U?$pair@$$CBKVioHashString@@@2@@std@@YAXAAV?$allocator@U?$pair@$$CBKVioHashString@@@std@@@0@PAU?$pair@$$CBKVioHashString@@@0@@Z ENDP ; std::_Dest_val<std::allocator<std::pair<unsigned long const ,ioHashString> >,std::pair<unsigned long const ,ioHashString> >
_TEXT	ENDS
PUBLIC	??_C@_0BE@JONHPENG@map?1set?$DMT?$DO?5too?5long?$AA@ ; `string'
PUBLIC	?_Insert@?$_Tree@V?$_Tmap_traits@KVioHashString@@U?$less@K@std@@V?$allocator@U?$pair@$$CBKVioHashString@@@std@@@3@$0A@@std@@@std@@IAE?AV?$_Tree_iterator@V?$_Tree_val@V?$_Tmap_traits@KVioHashString@@U?$less@K@std@@V?$allocator@U?$pair@$$CBKVioHashString@@@std@@@3@$0A@@std@@@std@@@2@_NPAU_Node@?$_Tree_nod@V?$_Tmap_traits@KVioHashString@@U?$less@K@std@@V?$allocator@U?$pair@$$CBKVioHashString@@@std@@@3@$0A@@std@@@2@1@Z ; std::_Tree<std::_Tmap_traits<unsigned long,ioHashString,std::less<unsigned long>,std::allocator<std::pair<unsigned long const ,ioHashString> >,0> >::_Insert
;	COMDAT ??_C@_0BE@JONHPENG@map?1set?$DMT?$DO?5too?5long?$AA@
; File c:\program files (x86)\microsoft visual studio 10.0\vc\include\xutility
CONST	SEGMENT
??_C@_0BE@JONHPENG@map?1set?$DMT?$DO?5too?5long?$AA@ DB 'map/set<T> too l'
	DB	'ong', 00H					; `string'
; Function compile flags: /Ogsp
; File c:\program files (x86)\microsoft visual studio 10.0\vc\include\xtree
CONST	ENDS
;	COMDAT ?_Insert@?$_Tree@V?$_Tmap_traits@KVioHashString@@U?$less@K@std@@V?$allocator@U?$pair@$$CBKVioHashString@@@std@@@3@$0A@@std@@@std@@IAE?AV?$_Tree_iterator@V?$_Tree_val@V?$_Tmap_traits@KVioHashString@@U?$less@K@std@@V?$allocator@U?$pair@$$CBKVioHashString@@@std@@@3@$0A@@std@@@std@@@2@_NPAU_Node@?$_Tree_nod@V?$_Tmap_traits@KVioHashString@@U?$less@K@std@@V?$allocator@U?$pair@$$CBKVioHashString@@@std@@@3@$0A@@std@@@2@1@Z
_TEXT	SEGMENT
___$ReturnUdt$ = 8					; size = 4
__Addleft$ = 12						; size = 1
__Wherenode$ = 16					; size = 4
__Newnode$ = 20						; size = 4
?_Insert@?$_Tree@V?$_Tmap_traits@KVioHashString@@U?$less@K@std@@V?$allocator@U?$pair@$$CBKVioHashString@@@std@@@3@$0A@@std@@@std@@IAE?AV?$_Tree_iterator@V?$_Tree_val@V?$_Tmap_traits@KVioHashString@@U?$less@K@std@@V?$allocator@U?$pair@$$CBKVioHashString@@@std@@@3@$0A@@std@@@std@@@2@_NPAU_Node@?$_Tree_nod@V?$_Tmap_traits@KVioHashString@@U?$less@K@std@@V?$allocator@U?$pair@$$CBKVioHashString@@@std@@@3@$0A@@std@@@2@1@Z PROC ; std::_Tree<std::_Tmap_traits<unsigned long,ioHashString,std::less<unsigned long>,std::allocator<std::pair<unsigned long const ,ioHashString> >,0> >::_Insert, COMDAT
; _this$ = ecx

; 1631 : 		{	// add node with value next to _Wherenode, to left if _Addleft

  00000	55		 push	 ebp
  00001	8b ec		 mov	 ebp, esp
  00003	53		 push	 ebx
  00004	56		 push	 esi
  00005	57		 push	 edi
  00006	8b f9		 mov	 edi, ecx

; 1632 : 		if (max_size() - 1 <= this->_Mysize)

  00008	8b 47 08	 mov	 eax, DWORD PTR [edi+8]
  0000b	3d cb cc cc 0c	 cmp	 eax, 214748363		; 0ccccccbH
  00010	72 1f		 jb	 SHORT $LN17@Insert

; 1633 : 			{	// tree would get too big, fail
; 1634 : 			_Dest_val(this->_Alval,
; 1635 : 				_STD addressof(this->_Myval(_Newnode)));

  00012	8b 75 14	 mov	 esi, DWORD PTR __Newnode$[ebp]
  00015	8d 4e 10	 lea	 ecx, DWORD PTR [esi+16]
  00018	ff 15 00 00 00
	00		 call	 DWORD PTR __imp_??1ioHashString@@QAE@XZ

; 1636 : 
; 1637 : 			this->_Alnod.deallocate(_Newnode, 1);

  0001e	56		 push	 esi
  0001f	e8 00 00 00 00	 call	 ??3@YAXPAX@Z		; operator delete

; 1638 : 
; 1639 : 			_Xlength_error("map/set<T> too long");

  00024	c7 04 24 00 00
	00 00		 mov	 DWORD PTR [esp], OFFSET ??_C@_0BE@JONHPENG@map?1set?$DMT?$DO?5too?5long?$AA@
  0002b	ff 15 00 00 00
	00		 call	 DWORD PTR __imp_?_Xlength_error@std@@YAXPBD@Z
$LN197@Insert:
$LN17@Insert:

; 1640 : 			}
; 1641 : 		++this->_Mysize;
; 1642 : 		_Newnode->_Parent = _Wherenode;

  00031	8b 5d 14	 mov	 ebx, DWORD PTR __Newnode$[ebp]
  00034	40		 inc	 eax
  00035	89 47 08	 mov	 DWORD PTR [edi+8], eax
  00038	8b 45 10	 mov	 eax, DWORD PTR __Wherenode$[ebp]
  0003b	89 43 04	 mov	 DWORD PTR [ebx+4], eax

; 1643 : 
; 1644 : 		if (_Wherenode == this->_Myhead)

  0003e	8b 4f 04	 mov	 ecx, DWORD PTR [edi+4]
  00041	3b c1		 cmp	 eax, ecx
  00043	75 10		 jne	 SHORT $LN16@Insert

; 1645 : 			{	// first node in tree, just set head values
; 1646 : 			_Root() = _Newnode;

  00045	89 59 04	 mov	 DWORD PTR [ecx+4], ebx

; 1647 : 			_Lmost() = _Newnode;

  00048	8b 47 04	 mov	 eax, DWORD PTR [edi+4]
  0004b	89 18		 mov	 DWORD PTR [eax], ebx

; 1648 : 			_Rmost() = _Newnode;

  0004d	8b 47 04	 mov	 eax, DWORD PTR [edi+4]
  00050	89 58 08	 mov	 DWORD PTR [eax+8], ebx
  00053	eb 21		 jmp	 SHORT $LN11@Insert
$LN16@Insert:

; 1649 : 			}
; 1650 : 		else if (_Addleft)

  00055	80 7d 0c 00	 cmp	 BYTE PTR __Addleft$[ebp], 0
  00059	74 0d		 je	 SHORT $LN14@Insert

; 1651 : 			{	// add to left of _Wherenode
; 1652 : 			this->_Left(_Wherenode) = _Newnode;

  0005b	89 18		 mov	 DWORD PTR [eax], ebx

; 1653 : 			if (_Wherenode == _Lmost())

  0005d	8b 4f 04	 mov	 ecx, DWORD PTR [edi+4]
  00060	3b 01		 cmp	 eax, DWORD PTR [ecx]
  00062	75 12		 jne	 SHORT $LN11@Insert

; 1654 : 				_Lmost() = _Newnode;

  00064	89 19		 mov	 DWORD PTR [ecx], ebx

; 1655 : 			}
; 1656 : 		else

  00066	eb 0e		 jmp	 SHORT $LN11@Insert
$LN14@Insert:

; 1657 : 			{	// add to right of _Wherenode
; 1658 : 			this->_Right(_Wherenode) = _Newnode;

  00068	89 58 08	 mov	 DWORD PTR [eax+8], ebx

; 1659 : 			if (_Wherenode == _Rmost())

  0006b	8b 4f 04	 mov	 ecx, DWORD PTR [edi+4]
  0006e	3b 41 08	 cmp	 eax, DWORD PTR [ecx+8]
  00071	75 03		 jne	 SHORT $LN11@Insert

; 1660 : 				_Rmost() = _Newnode;

  00073	89 59 08	 mov	 DWORD PTR [ecx+8], ebx
$LN11@Insert:

; 1661 : 			}
; 1662 : 
; 1663 : 		for (_Nodeptr _Pnode = _Newnode;
; 1664 : 			this->_Color(this->_Parent(_Pnode)) == this->_Red; )

  00076	8b 43 04	 mov	 eax, DWORD PTR [ebx+4]
  00079	8b f3		 mov	 esi, ebx
  0007b	e9 93 00 00 00	 jmp	 $LN195@Insert
$LL10@Insert:

; 1665 : 			if (this->_Parent(_Pnode)
; 1666 : 				== this->_Left(this->_Parent(this->_Parent(_Pnode))))

  00080	8b 46 04	 mov	 eax, DWORD PTR [esi+4]
  00083	8b 48 04	 mov	 ecx, DWORD PTR [eax+4]
  00086	3b 01		 cmp	 eax, DWORD PTR [ecx]
  00088	75 38		 jne	 SHORT $LN8@Insert

; 1667 : 				{	// fixup red-red in left subtree
; 1668 : 				_Wherenode =
; 1669 : 					this->_Right(this->_Parent(this->_Parent(_Pnode)));

  0008a	8b 49 08	 mov	 ecx, DWORD PTR [ecx+8]

; 1670 : 				if (this->_Color(_Wherenode) == this->_Red)

  0008d	80 79 20 00	 cmp	 BYTE PTR [ecx+32], 0

; 1671 : 					{	// parent has two red children, blacken both
; 1672 : 					this->_Color(this->_Parent(_Pnode)) = this->_Black;
; 1673 : 					this->_Color(_Wherenode) = this->_Black;
; 1674 : 					this->_Color(this->_Parent(this->_Parent(_Pnode)))
; 1675 : 						= this->_Red;
; 1676 : 					_Pnode = this->_Parent(this->_Parent(_Pnode));
; 1677 : 					}
; 1678 : 				else

  00091	74 37		 je	 SHORT $LN196@Insert

; 1679 : 					{	// parent has red and black children
; 1680 : 					if (_Pnode == this->_Right(this->_Parent(_Pnode)))

  00093	3b 70 08	 cmp	 esi, DWORD PTR [eax+8]
  00096	75 0a		 jne	 SHORT $LN5@Insert

; 1681 : 						{	// rotate right child to left
; 1682 : 						_Pnode = this->_Parent(_Pnode);

  00098	8b f0		 mov	 esi, eax

; 1683 : 						_Lrotate(_Pnode);

  0009a	56		 push	 esi
  0009b	8b cf		 mov	 ecx, edi
  0009d	e8 00 00 00 00	 call	 ?_Lrotate@?$_Tree@V?$_Tmap_traits@KVioHashString@@U?$less@K@std@@V?$allocator@U?$pair@$$CBKVioHashString@@@std@@@3@$0A@@std@@@std@@IAEXPAU_Node@?$_Tree_nod@V?$_Tmap_traits@KVioHashString@@U?$less@K@std@@V?$allocator@U?$pair@$$CBKVioHashString@@@std@@@3@$0A@@std@@@2@@Z ; std::_Tree<std::_Tmap_traits<unsigned long,ioHashString,std::less<unsigned long>,std::allocator<std::pair<unsigned long const ,ioHashString> >,0> >::_Lrotate
$LN5@Insert:

; 1684 : 						}
; 1685 : 					this->_Color(this->_Parent(_Pnode)) =
; 1686 : 						this->_Black;	// propagate red up

  000a2	8b 46 04	 mov	 eax, DWORD PTR [esi+4]
  000a5	c6 40 20 01	 mov	 BYTE PTR [eax+32], 1

; 1687 : 					this->_Color(this->_Parent(this->_Parent(_Pnode))) =
; 1688 : 						this->_Red;

  000a9	8b 46 04	 mov	 eax, DWORD PTR [esi+4]
  000ac	8b 40 04	 mov	 eax, DWORD PTR [eax+4]
  000af	c6 40 20 00	 mov	 BYTE PTR [eax+32], 0

; 1689 : 					_Rrotate(this->_Parent(this->_Parent(_Pnode)));

  000b3	8b 46 04	 mov	 eax, DWORD PTR [esi+4]
  000b6	ff 70 04	 push	 DWORD PTR [eax+4]
  000b9	8b cf		 mov	 ecx, edi
  000bb	e8 00 00 00 00	 call	 ?_Rrotate@?$_Tree@V?$_Tmap_traits@KVioHashString@@U?$less@K@std@@V?$allocator@U?$pair@$$CBKVioHashString@@@std@@@3@$0A@@std@@@std@@IAEXPAU_Node@?$_Tree_nod@V?$_Tmap_traits@KVioHashString@@U?$less@K@std@@V?$allocator@U?$pair@$$CBKVioHashString@@@std@@@3@$0A@@std@@@2@@Z ; std::_Tree<std::_Tmap_traits<unsigned long,ioHashString,std::less<unsigned long>,std::allocator<std::pair<unsigned long const ,ioHashString> >,0> >::_Rrotate

; 1690 : 					}
; 1691 : 				}
; 1692 : 			else

  000c0	eb 4e		 jmp	 SHORT $LN2@Insert
$LN8@Insert:

; 1693 : 				{	// fixup red-red in right subtree
; 1694 : 				_Wherenode =
; 1695 : 					this->_Left(this->_Parent(this->_Parent(_Pnode)));

  000c2	8b 09		 mov	 ecx, DWORD PTR [ecx]

; 1696 : 				if (this->_Color(_Wherenode) == this->_Red)

  000c4	80 79 20 00	 cmp	 BYTE PTR [ecx+32], 0
  000c8	75 1a		 jne	 SHORT $LN3@Insert
$LN196@Insert:

; 1697 : 					{	// parent has two red children, blacken both
; 1698 : 					this->_Color(this->_Parent(_Pnode)) = this->_Black;

  000ca	c6 40 20 01	 mov	 BYTE PTR [eax+32], 1

; 1699 : 					this->_Color(_Wherenode) = this->_Black;

  000ce	c6 41 20 01	 mov	 BYTE PTR [ecx+32], 1

; 1700 : 					this->_Color(this->_Parent(this->_Parent(_Pnode))) =
; 1701 : 						this->_Red;

  000d2	8b 46 04	 mov	 eax, DWORD PTR [esi+4]
  000d5	8b 40 04	 mov	 eax, DWORD PTR [eax+4]
  000d8	c6 40 20 00	 mov	 BYTE PTR [eax+32], 0

; 1702 : 					_Pnode = this->_Parent(this->_Parent(_Pnode));

  000dc	8b 46 04	 mov	 eax, DWORD PTR [esi+4]
  000df	8b 70 04	 mov	 esi, DWORD PTR [eax+4]

; 1703 : 					}
; 1704 : 				else

  000e2	eb 2c		 jmp	 SHORT $LN2@Insert
$LN3@Insert:

; 1705 : 					{	// parent has red and black children
; 1706 : 					if (_Pnode == this->_Left(this->_Parent(_Pnode)))

  000e4	3b 30		 cmp	 esi, DWORD PTR [eax]
  000e6	75 0a		 jne	 SHORT $LN1@Insert

; 1707 : 						{	// rotate left child to right
; 1708 : 						_Pnode = this->_Parent(_Pnode);

  000e8	8b f0		 mov	 esi, eax

; 1709 : 						_Rrotate(_Pnode);

  000ea	56		 push	 esi
  000eb	8b cf		 mov	 ecx, edi
  000ed	e8 00 00 00 00	 call	 ?_Rrotate@?$_Tree@V?$_Tmap_traits@KVioHashString@@U?$less@K@std@@V?$allocator@U?$pair@$$CBKVioHashString@@@std@@@3@$0A@@std@@@std@@IAEXPAU_Node@?$_Tree_nod@V?$_Tmap_traits@KVioHashString@@U?$less@K@std@@V?$allocator@U?$pair@$$CBKVioHashString@@@std@@@3@$0A@@std@@@2@@Z ; std::_Tree<std::_Tmap_traits<unsigned long,ioHashString,std::less<unsigned long>,std::allocator<std::pair<unsigned long const ,ioHashString> >,0> >::_Rrotate
$LN1@Insert:

; 1710 : 						}
; 1711 : 					this->_Color(this->_Parent(_Pnode)) =
; 1712 : 						this->_Black;	// propagate red up

  000f2	8b 46 04	 mov	 eax, DWORD PTR [esi+4]
  000f5	c6 40 20 01	 mov	 BYTE PTR [eax+32], 1

; 1713 : 					this->_Color(this->_Parent(this->_Parent(_Pnode))) =
; 1714 : 						this->_Red;

  000f9	8b 46 04	 mov	 eax, DWORD PTR [esi+4]
  000fc	8b 40 04	 mov	 eax, DWORD PTR [eax+4]
  000ff	c6 40 20 00	 mov	 BYTE PTR [eax+32], 0

; 1715 : 					_Lrotate(this->_Parent(this->_Parent(_Pnode)));

  00103	8b 46 04	 mov	 eax, DWORD PTR [esi+4]
  00106	ff 70 04	 push	 DWORD PTR [eax+4]
  00109	8b cf		 mov	 ecx, edi
  0010b	e8 00 00 00 00	 call	 ?_Lrotate@?$_Tree@V?$_Tmap_traits@KVioHashString@@U?$less@K@std@@V?$allocator@U?$pair@$$CBKVioHashString@@@std@@@3@$0A@@std@@@std@@IAEXPAU_Node@?$_Tree_nod@V?$_Tmap_traits@KVioHashString@@U?$less@K@std@@V?$allocator@U?$pair@$$CBKVioHashString@@@std@@@3@$0A@@std@@@2@@Z ; std::_Tree<std::_Tmap_traits<unsigned long,ioHashString,std::less<unsigned long>,std::allocator<std::pair<unsigned long const ,ioHashString> >,0> >::_Lrotate
$LN2@Insert:

; 1661 : 			}
; 1662 : 
; 1663 : 		for (_Nodeptr _Pnode = _Newnode;
; 1664 : 			this->_Color(this->_Parent(_Pnode)) == this->_Red; )

  00110	8b 46 04	 mov	 eax, DWORD PTR [esi+4]
$LN195@Insert:
  00113	80 78 20 00	 cmp	 BYTE PTR [eax+32], 0
  00117	0f 84 63 ff ff
	ff		 je	 $LL10@Insert

; 1716 : 					}
; 1717 : 				}
; 1718 : 
; 1719 : 		this->_Color(_Root()) = this->_Black;	// root is always black

  0011d	8b 47 04	 mov	 eax, DWORD PTR [edi+4]
  00120	8b 40 04	 mov	 eax, DWORD PTR [eax+4]
  00123	5f		 pop	 edi
  00124	c6 40 20 01	 mov	 BYTE PTR [eax+32], 1

; 1720 : 		return (iterator(_Newnode, this));

  00128	8b 45 08	 mov	 eax, DWORD PTR ___$ReturnUdt$[ebp]
  0012b	5e		 pop	 esi
  0012c	89 18		 mov	 DWORD PTR [eax], ebx
  0012e	5b		 pop	 ebx

; 1721 : 		}

  0012f	5d		 pop	 ebp
  00130	c2 10 00	 ret	 16			; 00000010H
$LN194@Insert:
?_Insert@?$_Tree@V?$_Tmap_traits@KVioHashString@@U?$less@K@std@@V?$allocator@U?$pair@$$CBKVioHashString@@@std@@@3@$0A@@std@@@std@@IAE?AV?$_Tree_iterator@V?$_Tree_val@V?$_Tmap_traits@KVioHashString@@U?$less@K@std@@V?$allocator@U?$pair@$$CBKVioHashString@@@std@@@3@$0A@@std@@@std@@@2@_NPAU_Node@?$_Tree_nod@V?$_Tmap_traits@KVioHashString@@U?$less@K@std@@V?$allocator@U?$pair@$$CBKVioHashString@@@std@@@3@$0A@@std@@@2@1@Z ENDP ; std::_Tree<std::_Tmap_traits<unsigned long,ioHashString,std::less<unsigned long>,std::allocator<std::pair<unsigned long const ,ioHashString> >,0> >::_Insert
_TEXT	ENDS
PUBLIC	??$_Uninitialized_copy@PAUSwingParam@@PAU1@V?$allocator@USwingParam@@@std@@@std@@YAPAUSwingParam@@PAU1@00AAV?$allocator@USwingParam@@@0@@Z ; std::_Uninitialized_copy<SwingParam *,SwingParam *,std::allocator<SwingParam> >
; Function compile flags: /Ogsp
; File c:\program files (x86)\microsoft visual studio 10.0\vc\include\memory
;	COMDAT ??$_Uninitialized_copy@PAUSwingParam@@PAU1@V?$allocator@USwingParam@@@std@@@std@@YAPAUSwingParam@@PAU1@00AAV?$allocator@USwingParam@@@0@@Z
_TEXT	SEGMENT
__Cat$530559 = -4					; size = 1
__First$ = 8						; size = 4
__Last$ = 12						; size = 4
__Dest$ = 16						; size = 4
__Al$ = 20						; size = 4
??$_Uninitialized_copy@PAUSwingParam@@PAU1@V?$allocator@USwingParam@@@std@@@std@@YAPAUSwingParam@@PAU1@00AAV?$allocator@USwingParam@@@0@@Z PROC ; std::_Uninitialized_copy<SwingParam *,SwingParam *,std::allocator<SwingParam> >, COMDAT

; 412  : 	{	// copy [_First, _Last) to raw _Dest, using _Al

  00000	55		 push	 ebp
  00001	8b ec		 mov	 ebp, esp
  00003	51		 push	 ecx

; 413  : 	return (_Uninit_copy(_First, _Last, _Dest, _Al,
; 414  : 		_Ptr_cat(_First, _Dest)));

  00004	ff 75 fc	 push	 DWORD PTR __Cat$530559[ebp]
  00007	ff 75 14	 push	 DWORD PTR __Al$[ebp]
  0000a	ff 75 10	 push	 DWORD PTR __Dest$[ebp]
  0000d	ff 75 0c	 push	 DWORD PTR __Last$[ebp]
  00010	ff 75 08	 push	 DWORD PTR __First$[ebp]
  00013	e8 00 00 00 00	 call	 ??$_Uninit_copy@PAUSwingParam@@PAU1@V?$allocator@USwingParam@@@std@@@std@@YAPAUSwingParam@@PAU1@00AAV?$allocator@USwingParam@@@0@U_Nonscalar_ptr_iterator_tag@0@@Z ; std::_Uninit_copy<SwingParam *,SwingParam *,std::allocator<SwingParam> >
  00018	83 c4 14	 add	 esp, 20			; 00000014H

; 415  : 	}

  0001b	c9		 leave
  0001c	c3		 ret	 0
??$_Uninitialized_copy@PAUSwingParam@@PAU1@V?$allocator@USwingParam@@@std@@@std@@YAPAUSwingParam@@PAU1@00AAV?$allocator@USwingParam@@@0@@Z ENDP ; std::_Uninitialized_copy<SwingParam *,SwingParam *,std::allocator<SwingParam> >
_TEXT	ENDS
PUBLIC	??$_Uninitialized_move@PAUSwingParam@@PAU1@V?$allocator@USwingParam@@@std@@@std@@YAPAUSwingParam@@PAU1@00AAV?$allocator@USwingParam@@@0@@Z ; std::_Uninitialized_move<SwingParam *,SwingParam *,std::allocator<SwingParam> >
; Function compile flags: /Ogsp
;	COMDAT ??$_Uninitialized_move@PAUSwingParam@@PAU1@V?$allocator@USwingParam@@@std@@@std@@YAPAUSwingParam@@PAU1@00AAV?$allocator@USwingParam@@@0@@Z
_TEXT	SEGMENT
__Cat$530566 = -4					; size = 1
__First$ = 8						; size = 4
__Last$ = 12						; size = 4
__Dest$ = 16						; size = 4
__Al$ = 20						; size = 4
??$_Uninitialized_move@PAUSwingParam@@PAU1@V?$allocator@USwingParam@@@std@@@std@@YAPAUSwingParam@@PAU1@00AAV?$allocator@USwingParam@@@0@@Z PROC ; std::_Uninitialized_move<SwingParam *,SwingParam *,std::allocator<SwingParam> >, COMDAT

; 469  : 	{	// move [_First, _Last) to raw _Dest, using _Al

  00000	55		 push	 ebp
  00001	8b ec		 mov	 ebp, esp
  00003	51		 push	 ecx

; 470  : 	return (_Uninit_move(_First, _Last, _Dest, _Al,
; 471  : 		_Val_type(_First), _Ptr_cat(_First, _Dest)));

  00004	ff 75 fc	 push	 DWORD PTR __Cat$530566[ebp]
  00007	6a 00		 push	 0
  00009	ff 75 14	 push	 DWORD PTR __Al$[ebp]
  0000c	ff 75 10	 push	 DWORD PTR __Dest$[ebp]
  0000f	ff 75 0c	 push	 DWORD PTR __Last$[ebp]
  00012	ff 75 08	 push	 DWORD PTR __First$[ebp]
  00015	e8 00 00 00 00	 call	 ??$_Uninit_move@PAUSwingParam@@PAU1@V?$allocator@USwingParam@@@std@@U1@@std@@YAPAUSwingParam@@PAU1@00AAV?$allocator@USwingParam@@@0@0U_Nonscalar_ptr_iterator_tag@0@@Z ; std::_Uninit_move<SwingParam *,SwingParam *,std::allocator<SwingParam>,SwingParam>
  0001a	83 c4 18	 add	 esp, 24			; 00000018H

; 472  : 	}

  0001d	c9		 leave
  0001e	c3		 ret	 0
??$_Uninitialized_move@PAUSwingParam@@PAU1@V?$allocator@USwingParam@@@std@@@std@@YAPAUSwingParam@@PAU1@00AAV?$allocator@USwingParam@@@0@@Z ENDP ; std::_Uninitialized_move<SwingParam *,SwingParam *,std::allocator<SwingParam> >
_TEXT	ENDS
PUBLIC	??$_Cons_val@V?$allocator@U?$pair@$$CBKVioHashString@@@std@@@std@@U?$pair@$$CBKVioHashString@@@2@U32@@std@@YAXAAV?$allocator@U?$pair@$$CBKVioHashString@@@std@@@0@PAU?$pair@$$CBKVioHashString@@@0@$$QAU20@@Z ; std::_Cons_val<std::allocator<std::pair<unsigned long const ,ioHashString> >,std::pair<unsigned long const ,ioHashString>,std::pair<unsigned long const ,ioHashString> >
; Function compile flags: /Ogsp
; File c:\program files (x86)\microsoft visual studio 10.0\vc\include\xmemory
;	COMDAT ??$_Cons_val@V?$allocator@U?$pair@$$CBKVioHashString@@@std@@@std@@U?$pair@$$CBKVioHashString@@@2@U32@@std@@YAXAAV?$allocator@U?$pair@$$CBKVioHashString@@@std@@@0@PAU?$pair@$$CBKVioHashString@@@0@$$QAU20@@Z
_TEXT	SEGMENT
__Alval$ = 8						; size = 4
__Pdest$ = 12						; size = 4
__Src$ = 16						; size = 4
??$_Cons_val@V?$allocator@U?$pair@$$CBKVioHashString@@@std@@@std@@U?$pair@$$CBKVioHashString@@@2@U32@@std@@YAXAAV?$allocator@U?$pair@$$CBKVioHashString@@@std@@@0@PAU?$pair@$$CBKVioHashString@@@0@$$QAU20@@Z PROC ; std::_Cons_val<std::allocator<std::pair<unsigned long const ,ioHashString> >,std::pair<unsigned long const ,ioHashString>,std::pair<unsigned long const ,ioHashString> >, COMDAT

; 279  : 	{	// construct using allocator

  00000	55		 push	 ebp
  00001	8b ec		 mov	 ebp, esp

; 280  : 	_Alval.construct(_Pdest, _STD forward<_Ty2>(_Src));

  00003	ff 75 10	 push	 DWORD PTR __Src$[ebp]
  00006	8b 4d 08	 mov	 ecx, DWORD PTR __Alval$[ebp]
  00009	ff 75 0c	 push	 DWORD PTR __Pdest$[ebp]
  0000c	e8 00 00 00 00	 call	 ?construct@?$allocator@U?$pair@$$CBKVioHashString@@@std@@@std@@QAEXPAU?$pair@$$CBKVioHashString@@@2@$$QAU32@@Z ; std::allocator<std::pair<unsigned long const ,ioHashString> >::construct

; 281  : 	}

  00011	5d		 pop	 ebp
  00012	c3		 ret	 0
??$_Cons_val@V?$allocator@U?$pair@$$CBKVioHashString@@@std@@@std@@U?$pair@$$CBKVioHashString@@@2@U32@@std@@YAXAAV?$allocator@U?$pair@$$CBKVioHashString@@@std@@@0@PAU?$pair@$$CBKVioHashString@@@0@$$QAU20@@Z ENDP ; std::_Cons_val<std::allocator<std::pair<unsigned long const ,ioHashString> >,std::pair<unsigned long const ,ioHashString>,std::pair<unsigned long const ,ioHashString> >
_TEXT	ENDS
PUBLIC	??_C@_0DB@BFKPJDDH@ioArmorItem?3?3AddGlowLine?5?3?5Fail?5@ ; `string'
PUBLIC	??_C@_0DJ@LCJMJGLC@ioArmorItem?3?3AddGlowLine?5?3?5Fail?5@ ; `string'
PUBLIC	??_C@_0CK@MALLIKKF@ioArmorItem?3?3AddGlowLine?5?3?5Fail?5@ ; `string'
PUBLIC	??_C@_0DC@BFCNJLBF@ioArmorItem?3?3AddGlowLine?5?3?5Fail?5@ ; `string'
PUBLIC	__real@40000000
PUBLIC	_pOwner$GSCopy$
PUBLIC	?AddGlowLine@ioArmorItem@@UAEXPAVioBaseChar@@@Z	; ioArmorItem::AddGlowLine
EXTRN	__imp_?c_str@ioHashString@@QBEPBDXZ:PROC
EXTRN	?AddGlowLine@ioBaseChar@@QAE_NABVioHashString@@ABU_D3DCOLORVALUE@@M@Z:PROC ; ioBaseChar::AddGlowLine
EXTRN	?ConvertName@Help@@YA?AVioHashString@@ABV2@_N@Z:PROC ; Help::ConvertName
;	COMDAT ??_C@_0DB@BFKPJDDH@ioArmorItem?3?3AddGlowLine?5?3?5Fail?5@
; File d:\lost saga for developer\youtube\tutorial\source\src\lsclient\iobasechar.h
CONST	SEGMENT
??_C@_0DB@BFKPJDDH@ioArmorItem?3?3AddGlowLine?5?3?5Fail?5@ DB 'ioArmorIte'
	DB	'm::AddGlowLine : Fail : Man (Hand) :%s', 00H ; `string'
CONST	ENDS
;	COMDAT ??_C@_0DJ@LCJMJGLC@ioArmorItem?3?3AddGlowLine?5?3?5Fail?5@
CONST	SEGMENT
??_C@_0DJ@LCJMJGLC@ioArmorItem?3?3AddGlowLine?5?3?5Fail?5@ DB 'ioArmorIte'
	DB	'm::AddGlowLine : Fail : Default Man (Hand) :%s', 00H ; `string'
CONST	ENDS
;	COMDAT ??_C@_0CK@MALLIKKF@ioArmorItem?3?3AddGlowLine?5?3?5Fail?5@
CONST	SEGMENT
??_C@_0CK@MALLIKKF@ioArmorItem?3?3AddGlowLine?5?3?5Fail?5@ DB 'ioArmorIte'
	DB	'm::AddGlowLine : Fail : Man :%s', 00H	; `string'
CONST	ENDS
;	COMDAT ??_C@_0DC@BFCNJLBF@ioArmorItem?3?3AddGlowLine?5?3?5Fail?5@
CONST	SEGMENT
??_C@_0DC@BFCNJLBF@ioArmorItem?3?3AddGlowLine?5?3?5Fail?5@ DB 'ioArmorIte'
	DB	'm::AddGlowLine : Fail : Default Man :%s', 00H ; `string'
CONST	ENDS
;	COMDAT __real@40000000
CONST	SEGMENT
__real@40000000 DD 040000000r			; 2
CONST	ENDS
;	COMDAT xdata$x
xdata$x	SEGMENT
__ehfuncinfo$?AddGlowLine@ioArmorItem@@UAEXPAVioBaseChar@@@Z DD 019930522H
	DD	06H
	DD	FLAT:__unwindtable$?AddGlowLine@ioArmorItem@@UAEXPAVioBaseChar@@@Z
	DD	2 DUP(00H)
	DD	2 DUP(00H)
	DD	00H
	DD	01H
__unwindtable$?AddGlowLine@ioArmorItem@@UAEXPAVioBaseChar@@@Z DD 0ffffffffH
	DD	FLAT:__unwindfunclet$?AddGlowLine@ioArmorItem@@UAEXPAVioBaseChar@@@Z$0
	DD	00H
	DD	FLAT:__unwindfunclet$?AddGlowLine@ioArmorItem@@UAEXPAVioBaseChar@@@Z$1
	DD	01H
	DD	FLAT:__unwindfunclet$?AddGlowLine@ioArmorItem@@UAEXPAVioBaseChar@@@Z$2
	DD	01H
	DD	FLAT:__unwindfunclet$?AddGlowLine@ioArmorItem@@UAEXPAVioBaseChar@@@Z$3
	DD	03H
	DD	FLAT:__unwindfunclet$?AddGlowLine@ioArmorItem@@UAEXPAVioBaseChar@@@Z$4
	DD	04H
	DD	FLAT:__unwindfunclet$?AddGlowLine@ioArmorItem@@UAEXPAVioBaseChar@@@Z$5
; Function compile flags: /Ogsp
; File d:\lost saga for developer\youtube\tutorial\source\src\lsclient\ioarmoritem.cpp
xdata$x	ENDS
;	COMDAT ?AddGlowLine@ioArmorItem@@UAEXPAVioBaseChar@@@Z
_TEXT	SEGMENT
$T530579 = -120						; size = 16
_szCurBodyMesh$ = -104					; size = 16
_szNewHandMesh$524582 = -88				; size = 16
_szCurHandMesh$524580 = -72				; size = 16
$T530578 = -72						; size = 16
_szNewBodyMesh$ = -56					; size = 16
_bMale$ = -40						; size = 1
_pOwner$GSCopy$ = -36					; size = 4
_CurGlowColor$ = -32					; size = 16
__$EHRec$ = -12						; size = 12
_pOwner$ = 8						; size = 4
?AddGlowLine@ioArmorItem@@UAEXPAVioBaseChar@@@Z PROC	; ioArmorItem::AddGlowLine, COMDAT
; _this$ = ecx

; 147  : {

  00000	6a 6c		 push	 108			; 0000006cH
  00002	b8 00 00 00 00	 mov	 eax, __ehhandler$?AddGlowLine@ioArmorItem@@UAEXPAVioBaseChar@@@Z
  00007	e8 00 00 00 00	 call	 __EH_prolog3_GS
  0000c	8b 45 08	 mov	 eax, DWORD PTR _pOwner$[ebp]

; 177  : 	{
; 178  : 		ioHashString szCurHandMesh = m_HandMesh;

  0000f	89 45 dc	 mov	 DWORD PTR _pOwner$GSCopy$[ebp], eax
  00012	8a 80 20 03 00
	00		 mov	 al, BYTE PTR [eax+800]
  00018	8b d9		 mov	 ebx, ecx
  0001a	88 45 d8	 mov	 BYTE PTR _bMale$[ebp], al
  0001d	8d 83 a8 17 00
	00		 lea	 eax, DWORD PTR [ebx+6056]
  00023	50		 push	 eax
  00024	8d 4d 98	 lea	 ecx, DWORD PTR _szCurBodyMesh$[ebp]
  00027	ff 15 00 00 00
	00		 call	 DWORD PTR __imp_??0ioHashString@@QAE@ABV0@@Z
  0002d	83 65 fc 00	 and	 DWORD PTR __$EHRec$[ebp+8], 0
  00031	8d b3 8c 05 00
	00		 lea	 esi, DWORD PTR [ebx+1420]
  00037	8b ce		 mov	 ecx, esi
  00039	ff 15 00 00 00
	00		 call	 DWORD PTR __imp_?IsEmpty@ioHashString@@QBE_NXZ
  0003f	84 c0		 test	 al, al
  00041	75 0a		 jne	 SHORT $LN12@AddGlowLin

; 148  : 	bool bMale = pOwner->IsMale();
; 149  : 
; 150  : 	ioHashString szCurBodyMesh = m_BodyMesh;
; 151  : 	if ( !m_CostumeInfo.m_szBodyMesh.IsEmpty() )
; 152  : 		szCurBodyMesh = m_CostumeInfo.m_szBodyMesh;

  00043	56		 push	 esi
  00044	8d 4d 98	 lea	 ecx, DWORD PTR _szCurBodyMesh$[ebp]
  00047	ff 15 00 00 00
	00		 call	 DWORD PTR __imp_??4ioHashString@@QAEAAV0@ABV0@@Z
$LN12@AddGlowLin:

; 153  : 
; 154  : 	ioHashString szNewBodyMesh = Help::ConvertName( szCurBodyMesh, bMale );

  0004d	ff 75 d8	 push	 DWORD PTR _bMale$[ebp]
  00050	8d 45 98	 lea	 eax, DWORD PTR _szCurBodyMesh$[ebp]
  00053	50		 push	 eax
  00054	8d 45 c8	 lea	 eax, DWORD PTR _szNewBodyMesh$[ebp]
  00057	50		 push	 eax
  00058	e8 00 00 00 00	 call	 ?ConvertName@Help@@YA?AVioHashString@@ABV2@_N@Z ; Help::ConvertName
  0005d	83 c4 0c	 add	 esp, 12			; 0000000cH

; 155  : 
; 156  : 	D3DCOLORVALUE CurGlowColor = m_GlowColor;
; 157  : 	if ( m_CostumeInfo.m_nCostumeCode > 0 )

  00060	83 bb 3c 05 00
	00 00		 cmp	 DWORD PTR [ebx+1340], 0
  00067	8d b3 54 02 00
	00		 lea	 esi, DWORD PTR [ebx+596]
  0006d	8d 7d e0	 lea	 edi, DWORD PTR _CurGlowColor$[ebp]
  00070	a5		 movsd
  00071	a5		 movsd
  00072	a5		 movsd
  00073	c6 45 fc 01	 mov	 BYTE PTR __$EHRec$[ebp+8], 1
  00077	a5		 movsd
  00078	7e 0d		 jle	 SHORT $LN11@AddGlowLin

; 158  : 		CurGlowColor = m_CostumeInfo.m_GlowColor;

  0007a	8d b3 44 05 00
	00		 lea	 esi, DWORD PTR [ebx+1348]
  00080	8d 7d e0	 lea	 edi, DWORD PTR _CurGlowColor$[ebp]
  00083	a5		 movsd
  00084	a5		 movsd
  00085	a5		 movsd
  00086	a5		 movsd
$LN11@AddGlowLin:

; 159  : 
; 160  : 	if( !pOwner->AddGlowLine( szNewBodyMesh, CurGlowColor, 2.0f ) )

  00087	f3 0f 10 05 00
	00 00 00	 movss	 xmm0, DWORD PTR __real@40000000
  0008f	51		 push	 ecx
  00090	8b 4d dc	 mov	 ecx, DWORD PTR _pOwner$GSCopy$[ebp]
  00093	f3 0f 11 04 24	 movss	 DWORD PTR [esp], xmm0
  00098	8d 45 e0	 lea	 eax, DWORD PTR _CurGlowColor$[ebp]
  0009b	50		 push	 eax
  0009c	8d 45 c8	 lea	 eax, DWORD PTR _szNewBodyMesh$[ebp]
  0009f	50		 push	 eax
  000a0	e8 00 00 00 00	 call	 ?AddGlowLine@ioBaseChar@@QAE_NABVioHashString@@ABU_D3DCOLORVALUE@@M@Z ; ioBaseChar::AddGlowLine
  000a5	8b 35 00 00 00
	00		 mov	 esi, DWORD PTR __imp_??1ioHashString@@QAE@XZ
  000ab	8b 3d 00 00 00
	00		 mov	 edi, DWORD PTR __imp_?PrintTimeAndLog@CLog@@QAAXHPADZZ
  000b1	84 c0		 test	 al, al
  000b3	75 7e		 jne	 SHORT $LN7@AddGlowLin

; 161  : 	{
; 162  : 		if( !bMale ) //     .

  000b5	80 7d d8 00	 cmp	 BYTE PTR _bMale$[ebp], 0
  000b9	75 5c		 jne	 SHORT $LN9@AddGlowLin

; 163  : 		{
; 164  : 			szNewBodyMesh = Help::ConvertName( szCurBodyMesh, true );

  000bb	6a 01		 push	 1
  000bd	8d 45 98	 lea	 eax, DWORD PTR _szCurBodyMesh$[ebp]
  000c0	50		 push	 eax
  000c1	8d 45 b8	 lea	 eax, DWORD PTR $T530578[ebp]
  000c4	50		 push	 eax
  000c5	e8 00 00 00 00	 call	 ?ConvertName@Help@@YA?AVioHashString@@ABV2@_N@Z ; Help::ConvertName
  000ca	83 c4 0c	 add	 esp, 12			; 0000000cH
  000cd	50		 push	 eax
  000ce	8d 4d c8	 lea	 ecx, DWORD PTR _szNewBodyMesh$[ebp]
  000d1	c6 45 fc 02	 mov	 BYTE PTR __$EHRec$[ebp+8], 2
  000d5	ff 15 00 00 00
	00		 call	 DWORD PTR __imp_??4ioHashString@@QAEAAV0@ABV0@@Z
  000db	8d 4d b8	 lea	 ecx, DWORD PTR $T530578[ebp]
  000de	c6 45 fc 01	 mov	 BYTE PTR __$EHRec$[ebp+8], 1
  000e2	ff d6		 call	 esi

; 165  : 			if( !pOwner->AddGlowLine( szNewBodyMesh, CurGlowColor, 2.0f ) )

  000e4	f3 0f 10 05 00
	00 00 00	 movss	 xmm0, DWORD PTR __real@40000000
  000ec	51		 push	 ecx
  000ed	8b 4d dc	 mov	 ecx, DWORD PTR _pOwner$GSCopy$[ebp]
  000f0	f3 0f 11 04 24	 movss	 DWORD PTR [esp], xmm0
  000f5	8d 45 e0	 lea	 eax, DWORD PTR _CurGlowColor$[ebp]
  000f8	50		 push	 eax
  000f9	8d 45 c8	 lea	 eax, DWORD PTR _szNewBodyMesh$[ebp]
  000fc	50		 push	 eax
  000fd	e8 00 00 00 00	 call	 ?AddGlowLine@ioBaseChar@@QAE_NABVioHashString@@ABU_D3DCOLORVALUE@@M@Z ; ioBaseChar::AddGlowLine
  00102	84 c0		 test	 al, al
  00104	75 2d		 jne	 SHORT $LN7@AddGlowLin

; 166  : 			{
; 167  : 				LOG.PrintTimeAndLog( 0, "ioArmorItem::AddGlowLine : Fail : Default Man :%s", szNewBodyMesh.c_str() );

  00106	8d 4d c8	 lea	 ecx, DWORD PTR _szNewBodyMesh$[ebp]
  00109	ff 15 00 00 00
	00		 call	 DWORD PTR __imp_?c_str@ioHashString@@QBEPBDXZ
  0010f	50		 push	 eax
  00110	68 00 00 00 00	 push	 OFFSET ??_C@_0DC@BFCNJLBF@ioArmorItem?3?3AddGlowLine?5?3?5Fail?5@

; 168  : 			}
; 169  : 		}
; 170  : 		else

  00115	eb 0f		 jmp	 SHORT $LN27@AddGlowLin
$LN9@AddGlowLin:

; 171  : 		{
; 172  : 			LOG.PrintTimeAndLog( 0, "ioArmorItem::AddGlowLine : Fail : Man :%s", szNewBodyMesh.c_str() );

  00117	8d 4d c8	 lea	 ecx, DWORD PTR _szNewBodyMesh$[ebp]
  0011a	ff 15 00 00 00
	00		 call	 DWORD PTR __imp_?c_str@ioHashString@@QBEPBDXZ
  00120	50		 push	 eax
  00121	68 00 00 00 00	 push	 OFFSET ??_C@_0CK@MALLIKKF@ioArmorItem?3?3AddGlowLine?5?3?5Fail?5@
$LN27@AddGlowLin:
  00126	6a 00		 push	 0
  00128	ff 35 00 00 00
	00		 push	 DWORD PTR __imp_?LOG@@3VCLog@@A
  0012e	ff d7		 call	 edi
  00130	83 c4 10	 add	 esp, 16			; 00000010H
$LN7@AddGlowLin:

; 173  : 		}
; 174  : 	}
; 175  : 
; 176  : 	if( HasHandMesh(pOwner) )

  00133	ff 75 dc	 push	 DWORD PTR _pOwner$GSCopy$[ebp]
  00136	8b cb		 mov	 ecx, ebx
  00138	e8 00 00 00 00	 call	 ?HasHandMesh@ioArmorItem@@QBE_NPAVioBaseChar@@@Z ; ioArmorItem::HasHandMesh
  0013d	84 c0		 test	 al, al
  0013f	0f 84 f7 00 00
	00		 je	 $LN6@AddGlowLin

; 177  : 	{
; 178  : 		ioHashString szCurHandMesh = m_HandMesh;

  00145	8d 83 b8 17 00
	00		 lea	 eax, DWORD PTR [ebx+6072]
  0014b	50		 push	 eax
  0014c	8d 4d b8	 lea	 ecx, DWORD PTR _szCurHandMesh$524580[ebp]
  0014f	ff 15 00 00 00
	00		 call	 DWORD PTR __imp_??0ioHashString@@QAE@ABV0@@Z

; 179  : 		if ( !m_CostumeInfo.m_szHandMesh.IsEmpty() )

  00155	81 c3 9c 05 00
	00		 add	 ebx, 1436		; 0000059cH
  0015b	8b cb		 mov	 ecx, ebx
  0015d	c6 45 fc 03	 mov	 BYTE PTR __$EHRec$[ebp+8], 3
  00161	ff 15 00 00 00
	00		 call	 DWORD PTR __imp_?IsEmpty@ioHashString@@QBE_NXZ
  00167	84 c0		 test	 al, al
  00169	75 0a		 jne	 SHORT $LN5@AddGlowLin

; 180  : 			szCurHandMesh = m_CostumeInfo.m_szHandMesh;

  0016b	53		 push	 ebx
  0016c	8d 4d b8	 lea	 ecx, DWORD PTR _szCurHandMesh$524580[ebp]
  0016f	ff 15 00 00 00
	00		 call	 DWORD PTR __imp_??4ioHashString@@QAEAAV0@ABV0@@Z
$LN5@AddGlowLin:

; 181  : 
; 182  : 		ioHashString szNewHandMesh = Help::ConvertName( szCurHandMesh, bMale );

  00175	ff 75 d8	 push	 DWORD PTR _bMale$[ebp]
  00178	8d 45 b8	 lea	 eax, DWORD PTR _szCurHandMesh$524580[ebp]
  0017b	50		 push	 eax
  0017c	8d 45 a8	 lea	 eax, DWORD PTR _szNewHandMesh$524582[ebp]
  0017f	50		 push	 eax
  00180	e8 00 00 00 00	 call	 ?ConvertName@Help@@YA?AVioHashString@@ABV2@_N@Z ; Help::ConvertName

; 183  : 
; 184  : 		if( !pOwner->AddGlowLine( szNewHandMesh, CurGlowColor, 2.0f ) )

  00185	f3 0f 10 05 00
	00 00 00	 movss	 xmm0, DWORD PTR __real@40000000
  0018d	8b 4d dc	 mov	 ecx, DWORD PTR _pOwner$GSCopy$[ebp]
  00190	83 c4 08	 add	 esp, 8
  00193	f3 0f 11 04 24	 movss	 DWORD PTR [esp], xmm0
  00198	8d 45 e0	 lea	 eax, DWORD PTR _CurGlowColor$[ebp]
  0019b	50		 push	 eax
  0019c	8d 45 a8	 lea	 eax, DWORD PTR _szNewHandMesh$524582[ebp]
  0019f	50		 push	 eax
  001a0	c6 45 fc 04	 mov	 BYTE PTR __$EHRec$[ebp+8], 4
  001a4	e8 00 00 00 00	 call	 ?AddGlowLine@ioBaseChar@@QAE_NABVioHashString@@ABU_D3DCOLORVALUE@@M@Z ; ioBaseChar::AddGlowLine
  001a9	84 c0		 test	 al, al
  001ab	75 7d		 jne	 SHORT $LN1@AddGlowLin

; 185  : 		{
; 186  : 			if( !bMale ) //     .

  001ad	38 45 d8	 cmp	 BYTE PTR _bMale$[ebp], al
  001b0	75 5c		 jne	 SHORT $LN3@AddGlowLin

; 187  : 			{
; 188  : 				szNewHandMesh = Help::ConvertName( szCurHandMesh, true );

  001b2	6a 01		 push	 1
  001b4	8d 45 b8	 lea	 eax, DWORD PTR _szCurHandMesh$524580[ebp]
  001b7	50		 push	 eax
  001b8	8d 45 88	 lea	 eax, DWORD PTR $T530579[ebp]
  001bb	50		 push	 eax
  001bc	e8 00 00 00 00	 call	 ?ConvertName@Help@@YA?AVioHashString@@ABV2@_N@Z ; Help::ConvertName
  001c1	83 c4 0c	 add	 esp, 12			; 0000000cH
  001c4	50		 push	 eax
  001c5	8d 4d a8	 lea	 ecx, DWORD PTR _szNewHandMesh$524582[ebp]
  001c8	c6 45 fc 05	 mov	 BYTE PTR __$EHRec$[ebp+8], 5
  001cc	ff 15 00 00 00
	00		 call	 DWORD PTR __imp_??4ioHashString@@QAEAAV0@ABV0@@Z
  001d2	8d 4d 88	 lea	 ecx, DWORD PTR $T530579[ebp]
  001d5	c6 45 fc 04	 mov	 BYTE PTR __$EHRec$[ebp+8], 4
  001d9	ff d6		 call	 esi

; 189  : 				if( !pOwner->AddGlowLine( szNewHandMesh, CurGlowColor, 2.0f ) )

  001db	f3 0f 10 05 00
	00 00 00	 movss	 xmm0, DWORD PTR __real@40000000
  001e3	51		 push	 ecx
  001e4	8b 4d dc	 mov	 ecx, DWORD PTR _pOwner$GSCopy$[ebp]
  001e7	f3 0f 11 04 24	 movss	 DWORD PTR [esp], xmm0
  001ec	8d 45 e0	 lea	 eax, DWORD PTR _CurGlowColor$[ebp]
  001ef	50		 push	 eax
  001f0	8d 45 a8	 lea	 eax, DWORD PTR _szNewHandMesh$524582[ebp]
  001f3	50		 push	 eax
  001f4	e8 00 00 00 00	 call	 ?AddGlowLine@ioBaseChar@@QAE_NABVioHashString@@ABU_D3DCOLORVALUE@@M@Z ; ioBaseChar::AddGlowLine
  001f9	84 c0		 test	 al, al
  001fb	75 2d		 jne	 SHORT $LN1@AddGlowLin

; 190  : 				{
; 191  : 					LOG.PrintTimeAndLog( 0, "ioArmorItem::AddGlowLine : Fail : Default Man (Hand) :%s", szNewHandMesh.c_str() );

  001fd	8d 4d a8	 lea	 ecx, DWORD PTR _szNewHandMesh$524582[ebp]
  00200	ff 15 00 00 00
	00		 call	 DWORD PTR __imp_?c_str@ioHashString@@QBEPBDXZ
  00206	50		 push	 eax
  00207	68 00 00 00 00	 push	 OFFSET ??_C@_0DJ@LCJMJGLC@ioArmorItem?3?3AddGlowLine?5?3?5Fail?5@

; 192  : 				}
; 193  : 			}
; 194  : 			else

  0020c	eb 0f		 jmp	 SHORT $LN28@AddGlowLin
$LN3@AddGlowLin:

; 195  : 			{
; 196  : 				LOG.PrintTimeAndLog( 0, "ioArmorItem::AddGlowLine : Fail : Man (Hand) :%s", szNewHandMesh.c_str() );

  0020e	8d 4d a8	 lea	 ecx, DWORD PTR _szNewHandMesh$524582[ebp]
  00211	ff 15 00 00 00
	00		 call	 DWORD PTR __imp_?c_str@ioHashString@@QBEPBDXZ
  00217	50		 push	 eax
  00218	68 00 00 00 00	 push	 OFFSET ??_C@_0DB@BFKPJDDH@ioArmorItem?3?3AddGlowLine?5?3?5Fail?5@
$LN28@AddGlowLin:
  0021d	6a 00		 push	 0
  0021f	ff 35 00 00 00
	00		 push	 DWORD PTR __imp_?LOG@@3VCLog@@A
  00225	ff d7		 call	 edi
  00227	83 c4 10	 add	 esp, 16			; 00000010H
$LN1@AddGlowLin:

; 197  : 			}
; 198  : 		}
; 199  : 	}

  0022a	8d 4d a8	 lea	 ecx, DWORD PTR _szNewHandMesh$524582[ebp]
  0022d	c6 45 fc 03	 mov	 BYTE PTR __$EHRec$[ebp+8], 3
  00231	ff d6		 call	 esi
  00233	8d 4d b8	 lea	 ecx, DWORD PTR _szCurHandMesh$524580[ebp]
  00236	c6 45 fc 01	 mov	 BYTE PTR __$EHRec$[ebp+8], 1
  0023a	ff d6		 call	 esi
$LN6@AddGlowLin:

; 200  : }

  0023c	8d 4d c8	 lea	 ecx, DWORD PTR _szNewBodyMesh$[ebp]
  0023f	c6 45 fc 00	 mov	 BYTE PTR __$EHRec$[ebp+8], 0
  00243	ff d6		 call	 esi
  00245	83 4d fc ff	 or	 DWORD PTR __$EHRec$[ebp+8], -1
  00249	8d 4d 98	 lea	 ecx, DWORD PTR _szCurBodyMesh$[ebp]
  0024c	ff d6		 call	 esi
  0024e	e8 00 00 00 00	 call	 __EH_epilog3_GS
  00253	c2 04 00	 ret	 4
_TEXT	ENDS
;	COMDAT text$x
text$x	SEGMENT
__unwindfunclet$?AddGlowLine@ioArmorItem@@UAEXPAVioBaseChar@@@Z$0:
  00000	8d 4d 98	 lea	 ecx, DWORD PTR _szCurBodyMesh$[ebp]
  00003	ff 25 00 00 00
	00		 jmp	 DWORD PTR __imp_??1ioHashString@@QAE@XZ
__unwindfunclet$?AddGlowLine@ioArmorItem@@UAEXPAVioBaseChar@@@Z$1:
  00009	8d 4d c8	 lea	 ecx, DWORD PTR _szNewBodyMesh$[ebp]
  0000c	ff 25 00 00 00
	00		 jmp	 DWORD PTR __imp_??1ioHashString@@QAE@XZ
__unwindfunclet$?AddGlowLine@ioArmorItem@@UAEXPAVioBaseChar@@@Z$2:
  00012	8d 4d b8	 lea	 ecx, DWORD PTR $T530578[ebp]
  00015	ff 25 00 00 00
	00		 jmp	 DWORD PTR __imp_??1ioHashString@@QAE@XZ
__unwindfunclet$?AddGlowLine@ioArmorItem@@UAEXPAVioBaseChar@@@Z$3:
  0001b	8d 4d b8	 lea	 ecx, DWORD PTR _szCurHandMesh$524580[ebp]
  0001e	ff 25 00 00 00
	00		 jmp	 DWORD PTR __imp_??1ioHashString@@QAE@XZ
__unwindfunclet$?AddGlowLine@ioArmorItem@@UAEXPAVioBaseChar@@@Z$4:
  00024	8d 4d a8	 lea	 ecx, DWORD PTR _szNewHandMesh$524582[ebp]
  00027	ff 25 00 00 00
	00		 jmp	 DWORD PTR __imp_??1ioHashString@@QAE@XZ
__unwindfunclet$?AddGlowLine@ioArmorItem@@UAEXPAVioBaseChar@@@Z$5:
  0002d	8d 4d 88	 lea	 ecx, DWORD PTR $T530579[ebp]
  00030	ff 25 00 00 00
	00		 jmp	 DWORD PTR __imp_??1ioHashString@@QAE@XZ
__ehhandler$?AddGlowLine@ioArmorItem@@UAEXPAVioBaseChar@@@Z:
  00036	8b 54 24 08	 mov	 edx, DWORD PTR [esp+8]
  0003a	8d 42 0c	 lea	 eax, DWORD PTR [edx+12]
  0003d	8b 4a 84	 mov	 ecx, DWORD PTR [edx-124]
  00040	33 c8		 xor	 ecx, eax
  00042	e8 00 00 00 00	 call	 @__security_check_cookie@4
  00047	8b 4a fc	 mov	 ecx, DWORD PTR [edx-4]
  0004a	33 c8		 xor	 ecx, eax
  0004c	e8 00 00 00 00	 call	 @__security_check_cookie@4
  00051	b8 00 00 00 00	 mov	 eax, OFFSET __ehfuncinfo$?AddGlowLine@ioArmorItem@@UAEXPAVioBaseChar@@@Z
  00056	e9 00 00 00 00	 jmp	 ___CxxFrameHandler3
text$x	ENDS
?AddGlowLine@ioArmorItem@@UAEXPAVioBaseChar@@@Z ENDP	; ioArmorItem::AddGlowLine
PUBLIC	??_C@_0CN@JPCKFNCE@ioArmorItem?3?3RemoveGlowLine?5?3?5Fa@ ; `string'
PUBLIC	??_C@_0DF@IIKBLOGG@ioArmorItem?3?3RemoveGlowLine?5?3?5Fa@ ; `string'
PUBLIC	?RemoveGlowLine@ioArmorItem@@UAEXPAVioBaseChar@@@Z ; ioArmorItem::RemoveGlowLine
EXTRN	?RemoveGlowLine@ioBaseChar@@QAE_NABVioHashString@@@Z:PROC ; ioBaseChar::RemoveGlowLine
;	COMDAT ??_C@_0CN@JPCKFNCE@ioArmorItem?3?3RemoveGlowLine?5?3?5Fa@
; File d:\lost saga for developer\youtube\tutorial\source\src\lsclient\iobasechar.h
CONST	SEGMENT
??_C@_0CN@JPCKFNCE@ioArmorItem?3?3RemoveGlowLine?5?3?5Fa@ DB 'ioArmorItem'
	DB	'::RemoveGlowLine : Fail : Man :%s', 00H	; `string'
CONST	ENDS
;	COMDAT ??_C@_0DF@IIKBLOGG@ioArmorItem?3?3RemoveGlowLine?5?3?5Fa@
CONST	SEGMENT
??_C@_0DF@IIKBLOGG@ioArmorItem?3?3RemoveGlowLine?5?3?5Fa@ DB 'ioArmorItem'
	DB	'::RemoveGlowLine : Fail : Default Man :%s', 00H ; `string'
CONST	ENDS
;	COMDAT xdata$x
xdata$x	SEGMENT
__ehfuncinfo$?RemoveGlowLine@ioArmorItem@@UAEXPAVioBaseChar@@@Z DD 019930522H
	DD	06H
	DD	FLAT:__unwindtable$?RemoveGlowLine@ioArmorItem@@UAEXPAVioBaseChar@@@Z
	DD	2 DUP(00H)
	DD	2 DUP(00H)
	DD	00H
	DD	01H
__unwindtable$?RemoveGlowLine@ioArmorItem@@UAEXPAVioBaseChar@@@Z DD 0ffffffffH
	DD	FLAT:__unwindfunclet$?RemoveGlowLine@ioArmorItem@@UAEXPAVioBaseChar@@@Z$0
	DD	00H
	DD	FLAT:__unwindfunclet$?RemoveGlowLine@ioArmorItem@@UAEXPAVioBaseChar@@@Z$1
	DD	01H
	DD	FLAT:__unwindfunclet$?RemoveGlowLine@ioArmorItem@@UAEXPAVioBaseChar@@@Z$2
	DD	01H
	DD	FLAT:__unwindfunclet$?RemoveGlowLine@ioArmorItem@@UAEXPAVioBaseChar@@@Z$3
	DD	03H
	DD	FLAT:__unwindfunclet$?RemoveGlowLine@ioArmorItem@@UAEXPAVioBaseChar@@@Z$4
	DD	04H
	DD	FLAT:__unwindfunclet$?RemoveGlowLine@ioArmorItem@@UAEXPAVioBaseChar@@@Z$5
; Function compile flags: /Ogsp
; File d:\lost saga for developer\youtube\tutorial\source\src\lsclient\ioarmoritem.cpp
xdata$x	ENDS
;	COMDAT ?RemoveGlowLine@ioArmorItem@@UAEXPAVioBaseChar@@@Z
_TEXT	SEGMENT
$T530607 = -96						; size = 16
_szCurBodyMesh$ = -80					; size = 16
_szCurHandMesh$524608 = -64				; size = 16
$T530606 = -64						; size = 16
_szNewHandMesh$524610 = -48				; size = 16
_szNewBodyMesh$ = -32					; size = 16
_bMale$ = -16						; size = 1
__$EHRec$ = -12						; size = 12
_pOwner$ = 8						; size = 4
?RemoveGlowLine@ioArmorItem@@UAEXPAVioBaseChar@@@Z PROC	; ioArmorItem::RemoveGlowLine, COMDAT
; _this$ = ecx

; 203  : {

  00000	6a 54		 push	 84			; 00000054H
  00002	b8 00 00 00 00	 mov	 eax, __ehhandler$?RemoveGlowLine@ioArmorItem@@UAEXPAVioBaseChar@@@Z
  00007	e8 00 00 00 00	 call	 __EH_prolog3
  0000c	8b f9		 mov	 edi, ecx

; 204  : 	bool bMale = pOwner->IsMale();

  0000e	8b 45 08	 mov	 eax, DWORD PTR _pOwner$[ebp]
  00011	8a 80 20 03 00
	00		 mov	 al, BYTE PTR [eax+800]
  00017	88 45 f0	 mov	 BYTE PTR _bMale$[ebp], al

; 205  : 
; 206  : 	ioHashString szCurBodyMesh = m_BodyMesh;

  0001a	8d 87 a8 17 00
	00		 lea	 eax, DWORD PTR [edi+6056]
  00020	50		 push	 eax
  00021	8d 4d b0	 lea	 ecx, DWORD PTR _szCurBodyMesh$[ebp]
  00024	ff 15 00 00 00
	00		 call	 DWORD PTR __imp_??0ioHashString@@QAE@ABV0@@Z
  0002a	83 65 fc 00	 and	 DWORD PTR __$EHRec$[ebp+8], 0

; 207  : 	if ( !m_CostumeInfo.m_szBodyMesh.IsEmpty() )

  0002e	8d b7 8c 05 00
	00		 lea	 esi, DWORD PTR [edi+1420]
  00034	8b ce		 mov	 ecx, esi
  00036	ff 15 00 00 00
	00		 call	 DWORD PTR __imp_?IsEmpty@ioHashString@@QBE_NXZ
  0003c	8b 1d 00 00 00
	00		 mov	 ebx, DWORD PTR __imp_??4ioHashString@@QAEAAV0@ABV0@@Z
  00042	84 c0		 test	 al, al
  00044	75 06		 jne	 SHORT $LN9@RemoveGlow

; 208  : 		szCurBodyMesh = m_CostumeInfo.m_szBodyMesh;

  00046	56		 push	 esi
  00047	8d 4d b0	 lea	 ecx, DWORD PTR _szCurBodyMesh$[ebp]
  0004a	ff d3		 call	 ebx
$LN9@RemoveGlow:

; 209  : 
; 210  : 	ioHashString szNewBodyMesh = Help::ConvertName( szCurBodyMesh, bMale );

  0004c	ff 75 f0	 push	 DWORD PTR _bMale$[ebp]
  0004f	8d 45 b0	 lea	 eax, DWORD PTR _szCurBodyMesh$[ebp]
  00052	50		 push	 eax
  00053	8d 45 e0	 lea	 eax, DWORD PTR _szNewBodyMesh$[ebp]
  00056	50		 push	 eax
  00057	e8 00 00 00 00	 call	 ?ConvertName@Help@@YA?AVioHashString@@ABV2@_N@Z ; Help::ConvertName
  0005c	83 c4 0c	 add	 esp, 12			; 0000000cH

; 211  : 
; 212  : 	if( !pOwner->RemoveGlowLine( szNewBodyMesh ) )

  0005f	8b 4d 08	 mov	 ecx, DWORD PTR _pOwner$[ebp]
  00062	8d 45 e0	 lea	 eax, DWORD PTR _szNewBodyMesh$[ebp]
  00065	50		 push	 eax
  00066	c6 45 fc 01	 mov	 BYTE PTR __$EHRec$[ebp+8], 1
  0006a	e8 00 00 00 00	 call	 ?RemoveGlowLine@ioBaseChar@@QAE_NABVioHashString@@@Z ; ioBaseChar::RemoveGlowLine
  0006f	8b 35 00 00 00
	00		 mov	 esi, DWORD PTR __imp_??1ioHashString@@QAE@XZ
  00075	84 c0		 test	 al, al
  00077	75 6c		 jne	 SHORT $LN5@RemoveGlow

; 213  : 	{
; 214  : 		if( !bMale ) //     .

  00079	80 7d f0 00	 cmp	 BYTE PTR _bMale$[ebp], 0
  0007d	75 46		 jne	 SHORT $LN7@RemoveGlow

; 215  : 		{
; 216  : 			szNewBodyMesh = Help::ConvertName( szCurBodyMesh, true );

  0007f	6a 01		 push	 1
  00081	8d 45 b0	 lea	 eax, DWORD PTR _szCurBodyMesh$[ebp]
  00084	50		 push	 eax
  00085	8d 45 c0	 lea	 eax, DWORD PTR $T530606[ebp]
  00088	50		 push	 eax
  00089	e8 00 00 00 00	 call	 ?ConvertName@Help@@YA?AVioHashString@@ABV2@_N@Z ; Help::ConvertName
  0008e	83 c4 0c	 add	 esp, 12			; 0000000cH
  00091	50		 push	 eax
  00092	8d 4d e0	 lea	 ecx, DWORD PTR _szNewBodyMesh$[ebp]
  00095	c6 45 fc 02	 mov	 BYTE PTR __$EHRec$[ebp+8], 2
  00099	ff d3		 call	 ebx
  0009b	8d 4d c0	 lea	 ecx, DWORD PTR $T530606[ebp]
  0009e	c6 45 fc 01	 mov	 BYTE PTR __$EHRec$[ebp+8], 1
  000a2	ff d6		 call	 esi

; 217  : 			if( !pOwner->RemoveGlowLine( szNewBodyMesh ) )

  000a4	8b 4d 08	 mov	 ecx, DWORD PTR _pOwner$[ebp]
  000a7	8d 45 e0	 lea	 eax, DWORD PTR _szNewBodyMesh$[ebp]
  000aa	50		 push	 eax
  000ab	e8 00 00 00 00	 call	 ?RemoveGlowLine@ioBaseChar@@QAE_NABVioHashString@@@Z ; ioBaseChar::RemoveGlowLine
  000b0	84 c0		 test	 al, al
  000b2	75 31		 jne	 SHORT $LN5@RemoveGlow

; 218  : 			{
; 219  : 				LOG.PrintTimeAndLog( 0, "ioArmorItem::RemoveGlowLine : Fail : Default Man :%s", szNewBodyMesh.c_str() );

  000b4	8d 4d e0	 lea	 ecx, DWORD PTR _szNewBodyMesh$[ebp]
  000b7	ff 15 00 00 00
	00		 call	 DWORD PTR __imp_?c_str@ioHashString@@QBEPBDXZ
  000bd	50		 push	 eax
  000be	68 00 00 00 00	 push	 OFFSET ??_C@_0DF@IIKBLOGG@ioArmorItem?3?3RemoveGlowLine?5?3?5Fa@

; 220  : 			}
; 221  : 		}
; 222  : 		else

  000c3	eb 0f		 jmp	 SHORT $LN21@RemoveGlow
$LN7@RemoveGlow:

; 223  : 		{
; 224  : 			LOG.PrintTimeAndLog( 0, "ioArmorItem::RemoveGlowLine : Fail : Man :%s", szNewBodyMesh.c_str() );

  000c5	8d 4d e0	 lea	 ecx, DWORD PTR _szNewBodyMesh$[ebp]
  000c8	ff 15 00 00 00
	00		 call	 DWORD PTR __imp_?c_str@ioHashString@@QBEPBDXZ
  000ce	50		 push	 eax
  000cf	68 00 00 00 00	 push	 OFFSET ??_C@_0CN@JPCKFNCE@ioArmorItem?3?3RemoveGlowLine?5?3?5Fa@
$LN21@RemoveGlow:
  000d4	6a 00		 push	 0
  000d6	ff 35 00 00 00
	00		 push	 DWORD PTR __imp_?LOG@@3VCLog@@A
  000dc	ff 15 00 00 00
	00		 call	 DWORD PTR __imp_?PrintTimeAndLog@CLog@@QAAXHPADZZ
  000e2	83 c4 10	 add	 esp, 16			; 00000010H
$LN5@RemoveGlow:

; 225  : 		}
; 226  : 	}
; 227  : 
; 228  : 	if( HasHandMesh(pOwner) )

  000e5	ff 75 08	 push	 DWORD PTR _pOwner$[ebp]
  000e8	8b cf		 mov	 ecx, edi
  000ea	e8 00 00 00 00	 call	 ?HasHandMesh@ioArmorItem@@QBE_NPAVioBaseChar@@@Z ; ioArmorItem::HasHandMesh
  000ef	84 c0		 test	 al, al
  000f1	0f 84 9b 00 00
	00		 je	 $LN4@RemoveGlow

; 229  : 	{
; 230  : 		ioHashString szCurHandMesh = m_HandMesh;

  000f7	8d 87 b8 17 00
	00		 lea	 eax, DWORD PTR [edi+6072]
  000fd	50		 push	 eax
  000fe	8d 4d c0	 lea	 ecx, DWORD PTR _szCurHandMesh$524608[ebp]
  00101	ff 15 00 00 00
	00		 call	 DWORD PTR __imp_??0ioHashString@@QAE@ABV0@@Z

; 231  : 		if ( !m_CostumeInfo.m_szHandMesh.IsEmpty() )

  00107	81 c7 9c 05 00
	00		 add	 edi, 1436		; 0000059cH
  0010d	8b cf		 mov	 ecx, edi
  0010f	c6 45 fc 03	 mov	 BYTE PTR __$EHRec$[ebp+8], 3
  00113	ff 15 00 00 00
	00		 call	 DWORD PTR __imp_?IsEmpty@ioHashString@@QBE_NXZ
  00119	84 c0		 test	 al, al
  0011b	75 06		 jne	 SHORT $LN3@RemoveGlow

; 232  : 			szCurHandMesh = m_CostumeInfo.m_szHandMesh;

  0011d	57		 push	 edi
  0011e	8d 4d c0	 lea	 ecx, DWORD PTR _szCurHandMesh$524608[ebp]
  00121	ff d3		 call	 ebx
$LN3@RemoveGlow:

; 233  : 
; 234  : 		ioHashString szNewHandMesh = Help::ConvertName( szCurHandMesh, bMale );

  00123	ff 75 f0	 push	 DWORD PTR _bMale$[ebp]
  00126	8d 45 c0	 lea	 eax, DWORD PTR _szCurHandMesh$524608[ebp]
  00129	50		 push	 eax
  0012a	8d 45 d0	 lea	 eax, DWORD PTR _szNewHandMesh$524610[ebp]
  0012d	50		 push	 eax
  0012e	e8 00 00 00 00	 call	 ?ConvertName@Help@@YA?AVioHashString@@ABV2@_N@Z ; Help::ConvertName
  00133	83 c4 0c	 add	 esp, 12			; 0000000cH

; 235  : 		if( !pOwner->RemoveGlowLine( szNewHandMesh ) )

  00136	8b 4d 08	 mov	 ecx, DWORD PTR _pOwner$[ebp]
  00139	8d 45 d0	 lea	 eax, DWORD PTR _szNewHandMesh$524610[ebp]
  0013c	50		 push	 eax
  0013d	c6 45 fc 04	 mov	 BYTE PTR __$EHRec$[ebp+8], 4
  00141	e8 00 00 00 00	 call	 ?RemoveGlowLine@ioBaseChar@@QAE_NABVioHashString@@@Z ; ioBaseChar::RemoveGlowLine
  00146	84 c0		 test	 al, al
  00148	75 36		 jne	 SHORT $LN1@RemoveGlow

; 236  : 		{
; 237  : 			if( !bMale ) //     .

  0014a	38 45 f0	 cmp	 BYTE PTR _bMale$[ebp], al
  0014d	75 31		 jne	 SHORT $LN1@RemoveGlow

; 238  : 			{
; 239  : 				szNewHandMesh = Help::ConvertName( szCurHandMesh, true );

  0014f	6a 01		 push	 1
  00151	8d 45 c0	 lea	 eax, DWORD PTR _szCurHandMesh$524608[ebp]
  00154	50		 push	 eax
  00155	8d 45 a0	 lea	 eax, DWORD PTR $T530607[ebp]
  00158	50		 push	 eax
  00159	e8 00 00 00 00	 call	 ?ConvertName@Help@@YA?AVioHashString@@ABV2@_N@Z ; Help::ConvertName
  0015e	83 c4 0c	 add	 esp, 12			; 0000000cH
  00161	50		 push	 eax
  00162	8d 4d d0	 lea	 ecx, DWORD PTR _szNewHandMesh$524610[ebp]
  00165	c6 45 fc 05	 mov	 BYTE PTR __$EHRec$[ebp+8], 5
  00169	ff d3		 call	 ebx
  0016b	8d 4d a0	 lea	 ecx, DWORD PTR $T530607[ebp]
  0016e	c6 45 fc 04	 mov	 BYTE PTR __$EHRec$[ebp+8], 4
  00172	ff d6		 call	 esi

; 240  : 				pOwner->RemoveGlowLine( szNewHandMesh );

  00174	8b 4d 08	 mov	 ecx, DWORD PTR _pOwner$[ebp]
  00177	8d 45 d0	 lea	 eax, DWORD PTR _szNewHandMesh$524610[ebp]
  0017a	50		 push	 eax
  0017b	e8 00 00 00 00	 call	 ?RemoveGlowLine@ioBaseChar@@QAE_NABVioHashString@@@Z ; ioBaseChar::RemoveGlowLine
$LN1@RemoveGlow:

; 241  : 			}
; 242  : 		}
; 243  : 	}

  00180	8d 4d d0	 lea	 ecx, DWORD PTR _szNewHandMesh$524610[ebp]
  00183	c6 45 fc 03	 mov	 BYTE PTR __$EHRec$[ebp+8], 3
  00187	ff d6		 call	 esi
  00189	8d 4d c0	 lea	 ecx, DWORD PTR _szCurHandMesh$524608[ebp]
  0018c	c6 45 fc 01	 mov	 BYTE PTR __$EHRec$[ebp+8], 1
  00190	ff d6		 call	 esi
$LN4@RemoveGlow:

; 244  : }

  00192	8d 4d e0	 lea	 ecx, DWORD PTR _szNewBodyMesh$[ebp]
  00195	c6 45 fc 00	 mov	 BYTE PTR __$EHRec$[ebp+8], 0
  00199	ff d6		 call	 esi
  0019b	83 4d fc ff	 or	 DWORD PTR __$EHRec$[ebp+8], -1
  0019f	8d 4d b0	 lea	 ecx, DWORD PTR _szCurBodyMesh$[ebp]
  001a2	ff d6		 call	 esi
  001a4	e8 00 00 00 00	 call	 __EH_epilog3
  001a9	c2 04 00	 ret	 4
_TEXT	ENDS
;	COMDAT text$x
text$x	SEGMENT
__unwindfunclet$?RemoveGlowLine@ioArmorItem@@UAEXPAVioBaseChar@@@Z$0:
  00000	8d 4d b0	 lea	 ecx, DWORD PTR _szCurBodyMesh$[ebp]
  00003	ff 25 00 00 00
	00		 jmp	 DWORD PTR __imp_??1ioHashString@@QAE@XZ
__unwindfunclet$?RemoveGlowLine@ioArmorItem@@UAEXPAVioBaseChar@@@Z$1:
  00009	8d 4d e0	 lea	 ecx, DWORD PTR _szNewBodyMesh$[ebp]
  0000c	ff 25 00 00 00
	00		 jmp	 DWORD PTR __imp_??1ioHashString@@QAE@XZ
__unwindfunclet$?RemoveGlowLine@ioArmorItem@@UAEXPAVioBaseChar@@@Z$2:
  00012	8d 4d c0	 lea	 ecx, DWORD PTR $T530606[ebp]
  00015	ff 25 00 00 00
	00		 jmp	 DWORD PTR __imp_??1ioHashString@@QAE@XZ
__unwindfunclet$?RemoveGlowLine@ioArmorItem@@UAEXPAVioBaseChar@@@Z$3:
  0001b	8d 4d c0	 lea	 ecx, DWORD PTR _szCurHandMesh$524608[ebp]
  0001e	ff 25 00 00 00
	00		 jmp	 DWORD PTR __imp_??1ioHashString@@QAE@XZ
__unwindfunclet$?RemoveGlowLine@ioArmorItem@@UAEXPAVioBaseChar@@@Z$4:
  00024	8d 4d d0	 lea	 ecx, DWORD PTR _szNewHandMesh$524610[ebp]
  00027	ff 25 00 00 00
	00		 jmp	 DWORD PTR __imp_??1ioHashString@@QAE@XZ
__unwindfunclet$?RemoveGlowLine@ioArmorItem@@UAEXPAVioBaseChar@@@Z$5:
  0002d	8d 4d a0	 lea	 ecx, DWORD PTR $T530607[ebp]
  00030	ff 25 00 00 00
	00		 jmp	 DWORD PTR __imp_??1ioHashString@@QAE@XZ
__ehhandler$?RemoveGlowLine@ioArmorItem@@UAEXPAVioBaseChar@@@Z:
  00036	8b 54 24 08	 mov	 edx, DWORD PTR [esp+8]
  0003a	8d 42 0c	 lea	 eax, DWORD PTR [edx+12]
  0003d	8b 4a 9c	 mov	 ecx, DWORD PTR [edx-100]
  00040	33 c8		 xor	 ecx, eax
  00042	e8 00 00 00 00	 call	 @__security_check_cookie@4
  00047	b8 00 00 00 00	 mov	 eax, OFFSET __ehfuncinfo$?RemoveGlowLine@ioArmorItem@@UAEXPAVioBaseChar@@@Z
  0004c	e9 00 00 00 00	 jmp	 ___CxxFrameHandler3
text$x	ENDS
?RemoveGlowLine@ioArmorItem@@UAEXPAVioBaseChar@@@Z ENDP	; ioArmorItem::RemoveGlowLine
PUBLIC	?_Destroy@?$vector@USwingParam@@V?$allocator@USwingParam@@@std@@@std@@IAEXPAUSwingParam@@0@Z ; std::vector<SwingParam,std::allocator<SwingParam> >::_Destroy
; Function compile flags: /Ogsp
; File c:\program files (x86)\microsoft visual studio 10.0\vc\include\vector
;	COMDAT ?_Destroy@?$vector@USwingParam@@V?$allocator@USwingParam@@@std@@@std@@IAEXPAUSwingParam@@0@Z
_TEXT	SEGMENT
__First$ = 8						; size = 4
__Last$ = 12						; size = 4
?_Destroy@?$vector@USwingParam@@V?$allocator@USwingParam@@@std@@@std@@IAEXPAUSwingParam@@0@Z PROC ; std::vector<SwingParam,std::allocator<SwingParam> >::_Destroy, COMDAT
; _this$ = ecx

; 1270 : 		_Destroy_range(_First, _Last, this->_Alval);
; 1271 : 		}

  00000	c2 08 00	 ret	 8
?_Destroy@?$vector@USwingParam@@V?$allocator@USwingParam@@@std@@@std@@IAEXPAUSwingParam@@0@Z ENDP ; std::vector<SwingParam,std::allocator<SwingParam> >::_Destroy
_TEXT	ENDS
PUBLIC	?_Tidy@?$vector@USwingParam@@V?$allocator@USwingParam@@@std@@@std@@IAEXXZ ; std::vector<SwingParam,std::allocator<SwingParam> >::_Tidy
EXTRN	__imp_?_Orphan_all@_Container_base0@std@@QAEXXZ:PROC
; Function compile flags: /Ogsp
;	COMDAT ?_Tidy@?$vector@USwingParam@@V?$allocator@USwingParam@@@std@@@std@@IAEXXZ
_TEXT	SEGMENT
?_Tidy@?$vector@USwingParam@@V?$allocator@USwingParam@@@std@@@std@@IAEXXZ PROC ; std::vector<SwingParam,std::allocator<SwingParam> >::_Tidy, COMDAT
; _this$ = ecx

; 1301 : 		{	// free all storage

  00000	56		 push	 esi
  00001	8b f1		 mov	 esi, ecx

; 1302 : 		if (this->_Myfirst != 0)

  00003	83 3e 00	 cmp	 DWORD PTR [esi], 0
  00006	74 0e		 je	 SHORT $LN21@Tidy

; 1303 : 			{	// something to free, destroy and deallocate it
; 1304 : 			this->_Orphan_all();

  00008	ff 15 00 00 00
	00		 call	 DWORD PTR __imp_?_Orphan_all@_Container_base0@std@@QAEXXZ

; 1305 : 			_Destroy(this->_Myfirst, this->_Mylast);
; 1306 : 			this->_Alval.deallocate(this->_Myfirst,
; 1307 : 				this->_Myend - this->_Myfirst);

  0000e	ff 36		 push	 DWORD PTR [esi]
  00010	e8 00 00 00 00	 call	 ??3@YAXPAX@Z		; operator delete
  00015	59		 pop	 ecx
$LN21@Tidy:

; 1308 : 			}
; 1309 : 		this->_Myfirst = 0;

  00016	83 26 00	 and	 DWORD PTR [esi], 0

; 1310 : 		this->_Mylast = 0;

  00019	83 66 04 00	 and	 DWORD PTR [esi+4], 0

; 1311 : 		this->_Myend = 0;

  0001d	83 66 08 00	 and	 DWORD PTR [esi+8], 0
  00021	5e		 pop	 esi

; 1312 : 		}

  00022	c3		 ret	 0
?_Tidy@?$vector@USwingParam@@V?$allocator@USwingParam@@@std@@@std@@IAEXXZ ENDP ; std::vector<SwingParam,std::allocator<SwingParam> >::_Tidy
_TEXT	ENDS
PUBLIC	?_Erase@?$_Tree@V?$_Tmap_traits@KVioHashString@@U?$less@K@std@@V?$allocator@U?$pair@$$CBKVioHashString@@@std@@@3@$0A@@std@@@std@@IAEXPAU_Node@?$_Tree_nod@V?$_Tmap_traits@KVioHashString@@U?$less@K@std@@V?$allocator@U?$pair@$$CBKVioHashString@@@std@@@3@$0A@@std@@@2@@Z ; std::_Tree<std::_Tmap_traits<unsigned long,ioHashString,std::less<unsigned long>,std::allocator<std::pair<unsigned long const ,ioHashString> >,0> >::_Erase
; Function compile flags: /Ogsp
; File c:\program files (x86)\microsoft visual studio 10.0\vc\include\xtree
;	COMDAT ?_Erase@?$_Tree@V?$_Tmap_traits@KVioHashString@@U?$less@K@std@@V?$allocator@U?$pair@$$CBKVioHashString@@@std@@@3@$0A@@std@@@std@@IAEXPAU_Node@?$_Tree_nod@V?$_Tmap_traits@KVioHashString@@U?$less@K@std@@V?$allocator@U?$pair@$$CBKVioHashString@@@std@@@3@$0A@@std@@@2@@Z
_TEXT	SEGMENT
__Rootnode$ = 8						; size = 4
?_Erase@?$_Tree@V?$_Tmap_traits@KVioHashString@@U?$less@K@std@@V?$allocator@U?$pair@$$CBKVioHashString@@@std@@@3@$0A@@std@@@std@@IAEXPAU_Node@?$_Tree_nod@V?$_Tmap_traits@KVioHashString@@U?$less@K@std@@V?$allocator@U?$pair@$$CBKVioHashString@@@std@@@3@$0A@@std@@@2@@Z PROC ; std::_Tree<std::_Tmap_traits<unsigned long,ioHashString,std::less<unsigned long>,std::allocator<std::pair<unsigned long const ,ioHashString> >,0> >::_Erase, COMDAT
; _this$ = ecx

; 1610 : 		{	// free entire subtree, recursively

  00000	55		 push	 ebp
  00001	8b ec		 mov	 ebp, esp
  00003	53		 push	 ebx
  00004	56		 push	 esi
  00005	57		 push	 edi

; 1611 : 		for (_Nodeptr _Pnode = _Rootnode;

  00006	8b 7d 08	 mov	 edi, DWORD PTR __Rootnode$[ebp]

; 1612 : 			!this->_Isnil(_Pnode); _Rootnode = _Pnode)

  00009	80 7f 21 00	 cmp	 BYTE PTR [edi+33], 0
  0000d	8b d9		 mov	 ebx, ecx
  0000f	8b f7		 mov	 esi, edi
  00011	75 24		 jne	 SHORT $LN1@Erase
$LL3@Erase:

; 1613 : 			{	// free subtrees, then node
; 1614 : 			_Erase(this->_Right(_Pnode));

  00013	ff 76 08	 push	 DWORD PTR [esi+8]
  00016	8b cb		 mov	 ecx, ebx
  00018	e8 00 00 00 00	 call	 ?_Erase@?$_Tree@V?$_Tmap_traits@KVioHashString@@U?$less@K@std@@V?$allocator@U?$pair@$$CBKVioHashString@@@std@@@3@$0A@@std@@@std@@IAEXPAU_Node@?$_Tree_nod@V?$_Tmap_traits@KVioHashString@@U?$less@K@std@@V?$allocator@U?$pair@$$CBKVioHashString@@@std@@@3@$0A@@std@@@2@@Z ; std::_Tree<std::_Tmap_traits<unsigned long,ioHashString,std::less<unsigned long>,std::allocator<std::pair<unsigned long const ,ioHashString> >,0> >::_Erase

; 1615 : 			_Pnode = this->_Left(_Pnode);

  0001d	8b 36		 mov	 esi, DWORD PTR [esi]

; 1616 : 			_Dest_val(this->_Alval,
; 1617 : 				_STD addressof(this->_Myval(_Rootnode)));

  0001f	8d 4f 10	 lea	 ecx, DWORD PTR [edi+16]
  00022	ff 15 00 00 00
	00		 call	 DWORD PTR __imp_??1ioHashString@@QAE@XZ

; 1618 : 
; 1619 : 			this->_Alnod.deallocate(_Rootnode, 1);

  00028	57		 push	 edi
  00029	e8 00 00 00 00	 call	 ??3@YAXPAX@Z		; operator delete
  0002e	80 7e 21 00	 cmp	 BYTE PTR [esi+33], 0
  00032	59		 pop	 ecx
  00033	8b fe		 mov	 edi, esi
  00035	74 dc		 je	 SHORT $LL3@Erase
$LN1@Erase:
  00037	5f		 pop	 edi
  00038	5e		 pop	 esi
  00039	5b		 pop	 ebx

; 1620 : 			}
; 1621 : 		}

  0003a	5d		 pop	 ebp
  0003b	c2 04 00	 ret	 4
?_Erase@?$_Tree@V?$_Tmap_traits@KVioHashString@@U?$less@K@std@@V?$allocator@U?$pair@$$CBKVioHashString@@@std@@@3@$0A@@std@@@std@@IAEXPAU_Node@?$_Tree_nod@V?$_Tmap_traits@KVioHashString@@U?$less@K@std@@V?$allocator@U?$pair@$$CBKVioHashString@@@std@@@3@$0A@@std@@@2@@Z ENDP ; std::_Tree<std::_Tmap_traits<unsigned long,ioHashString,std::less<unsigned long>,std::allocator<std::pair<unsigned long const ,ioHashString> >,0> >::_Erase
_TEXT	ENDS
PUBLIC	?erase@?$vector@USwingParam@@V?$allocator@USwingParam@@@std@@@std@@QAE?AV?$_Vector_iterator@V?$_Vector_val@USwingParam@@V?$allocator@USwingParam@@@std@@@std@@@2@V?$_Vector_const_iterator@V?$_Vector_val@USwingParam@@V?$allocator@USwingParam@@@std@@@std@@@2@0@Z ; std::vector<SwingParam,std::allocator<SwingParam> >::erase
; Function compile flags: /Ogsp
; File c:\program files (x86)\microsoft visual studio 10.0\vc\include\vector
;	COMDAT ?erase@?$vector@USwingParam@@V?$allocator@USwingParam@@@std@@@std@@QAE?AV?$_Vector_iterator@V?$_Vector_val@USwingParam@@V?$allocator@USwingParam@@@std@@@std@@@2@V?$_Vector_const_iterator@V?$_Vector_val@USwingParam@@V?$allocator@USwingParam@@@std@@@std@@@2@0@Z
_TEXT	SEGMENT
___$ReturnUdt$ = 8					; size = 4
__First_arg$ = 12					; size = 4
__Cat$530913 = 16					; size = 1
__Last_arg$ = 16					; size = 4
?erase@?$vector@USwingParam@@V?$allocator@USwingParam@@@std@@@std@@QAE?AV?$_Vector_iterator@V?$_Vector_val@USwingParam@@V?$allocator@USwingParam@@@std@@@std@@@2@V?$_Vector_const_iterator@V?$_Vector_val@USwingParam@@V?$allocator@USwingParam@@@std@@@std@@@2@0@Z PROC ; std::vector<SwingParam,std::allocator<SwingParam> >::erase, COMDAT
; _this$ = ecx

; 1190 : 		{	// erase [_First, _Last)

  00000	55		 push	 ebp
  00001	8b ec		 mov	 ebp, esp

; 1191 : 		iterator _First = _Make_iter(_First_arg);

  00003	8b 45 0c	 mov	 eax, DWORD PTR __First_arg$[ebp]
  00006	56		 push	 esi
  00007	57		 push	 edi
  00008	8b 7d 08	 mov	 edi, DWORD PTR ___$ReturnUdt$[ebp]
  0000b	8b f1		 mov	 esi, ecx
  0000d	89 07		 mov	 DWORD PTR [edi], eax

; 1192 : 		iterator _Last = _Make_iter(_Last_arg);
; 1193 : 
; 1194 : 		if (_First != _Last)

  0000f	3b 45 10	 cmp	 eax, DWORD PTR __Last_arg$[ebp]
  00012	74 16		 je	 SHORT $LN1@erase

; 1195 : 			{	// worth doing, copy down over hole
; 1196 :  #if _ITERATOR_DEBUG_LEVEL == 2
; 1197 : 			if (_Last < _First || _VICONT(_First) != this
; 1198 : 				|| _VIPTR(_First) < this->_Myfirst
; 1199 : 				|| this->_Mylast < _VIPTR(_Last))
; 1200 : 				_DEBUG_ERROR("vector erase iterator outside range");
; 1201 : 			pointer _Ptr = _Move(_VIPTR(_Last), this->_Mylast,
; 1202 : 				_VIPTR(_First));
; 1203 : 			_Orphan_range(_VIPTR(_First), this->_Mylast);
; 1204 : 
; 1205 :  #else /* _ITERATOR_DEBUG_LEVEL == 2 */
; 1206 : 			pointer _Ptr = _Move(_VIPTR(_Last), this->_Mylast,
; 1207 : 				_VIPTR(_First));

  00014	ff 75 10	 push	 DWORD PTR __Cat$530913[ebp]
  00017	8b 4e 04	 mov	 ecx, DWORD PTR [esi+4]
  0001a	50		 push	 eax
  0001b	51		 push	 ecx
  0001c	ff 75 10	 push	 DWORD PTR __Last_arg$[ebp]
  0001f	e8 00 00 00 00	 call	 ??$_Move@PAUSwingParam@@PAU1@@std@@YAPAUSwingParam@@PAU1@00U_Nonscalar_ptr_iterator_tag@0@@Z ; std::_Move<SwingParam *,SwingParam *>
  00024	83 c4 10	 add	 esp, 16			; 00000010H

; 1208 :  #endif /* _ITERATOR_DEBUG_LEVEL == 2 */
; 1209 : 
; 1210 : 			_Destroy(_Ptr, this->_Mylast);
; 1211 : 			this->_Mylast = _Ptr;

  00027	89 46 04	 mov	 DWORD PTR [esi+4], eax
$LN1@erase:

; 1212 : 			}
; 1213 : 		return (_First);

  0002a	8b c7		 mov	 eax, edi
  0002c	5f		 pop	 edi
  0002d	5e		 pop	 esi

; 1214 : 		}

  0002e	5d		 pop	 ebp
  0002f	c2 0c 00	 ret	 12			; 0000000cH
?erase@?$vector@USwingParam@@V?$allocator@USwingParam@@@std@@@std@@QAE?AV?$_Vector_iterator@V?$_Vector_val@USwingParam@@V?$allocator@USwingParam@@@std@@@std@@@2@V?$_Vector_const_iterator@V?$_Vector_val@USwingParam@@V?$allocator@USwingParam@@@std@@@std@@@2@0@Z ENDP ; std::vector<SwingParam,std::allocator<SwingParam> >::erase
_TEXT	ENDS
PUBLIC	??_C@_0BM@PAPJHAGI@invalid?5map?1set?$DMT?$DO?5iterator?$AA@ ; `string'
PUBLIC	?erase@?$_Tree@V?$_Tmap_traits@KVioHashString@@U?$less@K@std@@V?$allocator@U?$pair@$$CBKVioHashString@@@std@@@3@$0A@@std@@@std@@QAE?AV?$_Tree_iterator@V?$_Tree_val@V?$_Tmap_traits@KVioHashString@@U?$less@K@std@@V?$allocator@U?$pair@$$CBKVioHashString@@@std@@@3@$0A@@std@@@std@@@2@V?$_Tree_const_iterator@V?$_Tree_val@V?$_Tmap_traits@KVioHashString@@U?$less@K@std@@V?$allocator@U?$pair@$$CBKVioHashString@@@std@@@3@$0A@@std@@@std@@@2@@Z ; std::_Tree<std::_Tmap_traits<unsigned long,ioHashString,std::less<unsigned long>,std::allocator<std::pair<unsigned long const ,ioHashString> >,0> >::erase
EXTRN	__imp_?_Xout_of_range@std@@YAXPBD@Z:PROC
;	COMDAT ??_C@_0BM@PAPJHAGI@invalid?5map?1set?$DMT?$DO?5iterator?$AA@
; File c:\program files (x86)\microsoft visual studio 10.0\vc\include\xutility
CONST	SEGMENT
??_C@_0BM@PAPJHAGI@invalid?5map?1set?$DMT?$DO?5iterator?$AA@ DB 'invalid '
	DB	'map/set<T> iterator', 00H			; `string'
; Function compile flags: /Ogsp
; File c:\program files (x86)\microsoft visual studio 10.0\vc\include\xtree
CONST	ENDS
;	COMDAT ?erase@?$_Tree@V?$_Tmap_traits@KVioHashString@@U?$less@K@std@@V?$allocator@U?$pair@$$CBKVioHashString@@@std@@@3@$0A@@std@@@std@@QAE?AV?$_Tree_iterator@V?$_Tree_val@V?$_Tmap_traits@KVioHashString@@U?$less@K@std@@V?$allocator@U?$pair@$$CBKVioHashString@@@std@@@3@$0A@@std@@@std@@@2@V?$_Tree_const_iterator@V?$_Tree_val@V?$_Tmap_traits@KVioHashString@@U?$less@K@std@@V?$allocator@U?$pair@$$CBKVioHashString@@@std@@@3@$0A@@std@@@std@@@2@@Z
_TEXT	SEGMENT
_this$ = -4						; size = 4
___$ReturnUdt$ = 8					; size = 4
__Where$ = 12						; size = 4
?erase@?$_Tree@V?$_Tmap_traits@KVioHashString@@U?$less@K@std@@V?$allocator@U?$pair@$$CBKVioHashString@@@std@@@3@$0A@@std@@@std@@QAE?AV?$_Tree_iterator@V?$_Tree_val@V?$_Tmap_traits@KVioHashString@@U?$less@K@std@@V?$allocator@U?$pair@$$CBKVioHashString@@@std@@@3@$0A@@std@@@std@@@2@V?$_Tree_const_iterator@V?$_Tree_val@V?$_Tmap_traits@KVioHashString@@U?$less@K@std@@V?$allocator@U?$pair@$$CBKVioHashString@@@std@@@3@$0A@@std@@@std@@@2@@Z PROC ; std::_Tree<std::_Tmap_traits<unsigned long,ioHashString,std::less<unsigned long>,std::allocator<std::pair<unsigned long const ,ioHashString> >,0> >::erase, COMDAT
; _this$ = ecx

; 1195 : 		{	// erase element at _Where

  00000	55		 push	 ebp
  00001	8b ec		 mov	 ebp, esp
  00003	51		 push	 ecx
  00004	53		 push	 ebx

; 1196 :  #if _ITERATOR_DEBUG_LEVEL == 2
; 1197 : 		if (_Where._Getcont() != this || this->_Isnil(_Where._Mynode()))
; 1198 : 			_DEBUG_ERROR("map/set erase iterator outside range");
; 1199 : 		_Nodeptr _Erasednode = _Where._Mynode();	// node to erase
; 1200 : 		++_Where;	// save successor iterator for return
; 1201 : 		_Orphan_ptr(*this, _Erasednode);
; 1202 : 
; 1203 :  #else /* _ITERATOR_DEBUG_LEVEL == 2 */
; 1204 : 		if (this->_Isnil(_Where._Mynode()))

  00005	8b 5d 0c	 mov	 ebx, DWORD PTR __Where$[ebp]
  00008	80 7b 21 00	 cmp	 BYTE PTR [ebx+33], 0
  0000c	56		 push	 esi
  0000d	57		 push	 edi
  0000e	89 4d fc	 mov	 DWORD PTR _this$[ebp], ecx
  00011	74 0b		 je	 SHORT $LN40@erase@2

; 1205 : 			_Xout_of_range("invalid map/set<T> iterator");

  00013	68 00 00 00 00	 push	 OFFSET ??_C@_0BM@PAPJHAGI@invalid?5map?1set?$DMT?$DO?5iterator?$AA@
  00018	ff 15 00 00 00
	00		 call	 DWORD PTR __imp_?_Xout_of_range@std@@YAXPBD@Z
$LN338@erase@2:
$LN40@erase@2:

; 1206 : 		_Nodeptr _Erasednode = _Where._Mynode();	// node to erase
; 1207 : 		++_Where;	// save successor iterator for return

  0001e	8d 4d 0c	 lea	 ecx, DWORD PTR __Where$[ebp]
  00021	e8 00 00 00 00	 call	 ??E?$_Tree_unchecked_const_iterator@V?$_Tree_val@V?$_Tmap_traits@KVioHashString@@U?$less@K@std@@V?$allocator@U?$pair@$$CBKVioHashString@@@std@@@3@$0A@@std@@@std@@U_Iterator_base0@2@@std@@QAEAAV01@XZ ; std::_Tree_unchecked_const_iterator<std::_Tree_val<std::_Tmap_traits<unsigned long,ioHashString,std::less<unsigned long>,std::allocator<std::pair<unsigned long const ,ioHashString> >,0> >,std::_Iterator_base0>::operator++

; 1208 :  #endif /* _ITERATOR_DEBUG_LEVEL == 2 */
; 1209 : 
; 1210 : 		_Nodeptr _Fixnode;	// the node to recolor as needed
; 1211 : 		_Nodeptr _Fixnodeparent;	// parent of _Fixnode (which may be nil)
; 1212 : 		_Nodeptr _Pnode = _Erasednode;
; 1213 : 
; 1214 : 		if (this->_Isnil(this->_Left(_Pnode)))

  00026	8b 13		 mov	 edx, DWORD PTR [ebx]
  00028	80 7a 21 00	 cmp	 BYTE PTR [edx+33], 0
  0002c	74 05		 je	 SHORT $LN39@erase@2

; 1215 : 			_Fixnode = this->_Right(_Pnode);	// stitch up right subtree

  0002e	8b 7b 08	 mov	 edi, DWORD PTR [ebx+8]

; 1216 : 		else if (this->_Isnil(this->_Right(_Pnode)))

  00031	eb 17		 jmp	 SHORT $LN330@erase@2
$LN39@erase@2:
  00033	8b 43 08	 mov	 eax, DWORD PTR [ebx+8]
  00036	80 78 21 00	 cmp	 BYTE PTR [eax+33], 0
  0003a	74 04		 je	 SHORT $LN37@erase@2

; 1217 : 			_Fixnode = this->_Left(_Pnode);	// stitch up left subtree

  0003c	8b fa		 mov	 edi, edx

; 1218 : 		else

  0003e	eb 0a		 jmp	 SHORT $LN330@erase@2
$LN37@erase@2:

; 1219 : 			{	// two subtrees, must lift successor node to replace erased
; 1220 : 			_Pnode = _Where._Mynode();	// _Pnode is successor node

  00040	8b 45 0c	 mov	 eax, DWORD PTR __Where$[ebp]

; 1221 : 			_Fixnode = this->_Right(_Pnode);	// _Fixnode is only subtree

  00043	8b 78 08	 mov	 edi, DWORD PTR [eax+8]

; 1222 : 			}
; 1223 : 
; 1224 : 		if (_Pnode == _Erasednode)

  00046	3b c3		 cmp	 eax, ebx
  00048	75 76		 jne	 SHORT $LN35@erase@2
$LN330@erase@2:

; 1225 : 			{	// at most one subtree, relink it
; 1226 : 			_Fixnodeparent = this->_Parent(_Erasednode);
; 1227 : 			if (!this->_Isnil(_Fixnode))

  0004a	80 7f 21 00	 cmp	 BYTE PTR [edi+33], 0
  0004e	8b 73 04	 mov	 esi, DWORD PTR [ebx+4]
  00051	75 03		 jne	 SHORT $LN34@erase@2

; 1228 : 				this->_Parent(_Fixnode) = _Fixnodeparent;	// link up

  00053	89 77 04	 mov	 DWORD PTR [edi+4], esi
$LN34@erase@2:

; 1229 : 
; 1230 : 			if (_Root() == _Erasednode)

  00056	8b 4d fc	 mov	 ecx, DWORD PTR _this$[ebp]
  00059	8b 41 04	 mov	 eax, DWORD PTR [ecx+4]
  0005c	39 58 04	 cmp	 DWORD PTR [eax+4], ebx
  0005f	75 05		 jne	 SHORT $LN33@erase@2

; 1231 : 				_Root() = _Fixnode;	// link down from root

  00061	89 78 04	 mov	 DWORD PTR [eax+4], edi

; 1232 : 			else if (this->_Left(_Fixnodeparent) == _Erasednode)

  00064	eb 0b		 jmp	 SHORT $LN30@erase@2
$LN33@erase@2:
  00066	39 1e		 cmp	 DWORD PTR [esi], ebx
  00068	75 04		 jne	 SHORT $LN31@erase@2

; 1233 : 				this->_Left(_Fixnodeparent) = _Fixnode;	// link down to left

  0006a	89 3e		 mov	 DWORD PTR [esi], edi

; 1234 : 			else

  0006c	eb 03		 jmp	 SHORT $LN30@erase@2
$LN31@erase@2:

; 1235 : 				this->_Right(_Fixnodeparent) =
; 1236 : 					_Fixnode;	// link down to right

  0006e	89 7e 08	 mov	 DWORD PTR [esi+8], edi
$LN30@erase@2:

; 1237 : 
; 1238 : 			if (_Lmost() == _Erasednode)

  00071	8b 49 04	 mov	 ecx, DWORD PTR [ecx+4]
  00074	39 19		 cmp	 DWORD PTR [ecx], ebx
  00076	75 1c		 jne	 SHORT $LN29@erase@2

; 1239 : 				_Lmost() = this->_Isnil(_Fixnode)
; 1240 : 					? _Fixnodeparent	// smallest is parent of erased node
; 1241 : 					: this->_Min(_Fixnode);	// smallest in relinked subtree

  00078	80 7f 21 00	 cmp	 BYTE PTR [edi+33], 0
  0007c	74 04		 je	 SHORT $LN43@erase@2
  0007e	8b d6		 mov	 edx, esi
  00080	eb 10		 jmp	 SHORT $LN97@erase@2
$LN43@erase@2:
  00082	8b 07		 mov	 eax, DWORD PTR [edi]
  00084	8b d7		 mov	 edx, edi
  00086	eb 04		 jmp	 SHORT $LN332@erase@2
$LL98@erase@2:
  00088	8b d0		 mov	 edx, eax
  0008a	8b 02		 mov	 eax, DWORD PTR [edx]
$LN332@erase@2:
  0008c	80 78 21 00	 cmp	 BYTE PTR [eax+33], 0
  00090	74 f6		 je	 SHORT $LL98@erase@2
$LN97@erase@2:
  00092	89 11		 mov	 DWORD PTR [ecx], edx
$LN29@erase@2:

; 1242 : 
; 1243 : 			if (_Rmost() == _Erasednode)

  00094	8b 45 fc	 mov	 eax, DWORD PTR _this$[ebp]
  00097	8b 48 04	 mov	 ecx, DWORD PTR [eax+4]
  0009a	39 59 08	 cmp	 DWORD PTR [ecx+8], ebx
  0009d	75 7b		 jne	 SHORT $LN185@erase@2

; 1244 : 				_Rmost() = this->_Isnil(_Fixnode)
; 1245 : 					? _Fixnodeparent	// largest is parent of erased node
; 1246 : 					: this->_Max(_Fixnode);	// largest in relinked subtree

  0009f	80 7f 21 00	 cmp	 BYTE PTR [edi+33], 0
  000a3	74 04		 je	 SHORT $LN45@erase@2
  000a5	8b d6		 mov	 edx, esi
  000a7	eb 12		 jmp	 SHORT $LN117@erase@2
$LN45@erase@2:
  000a9	8b 47 08	 mov	 eax, DWORD PTR [edi+8]
  000ac	8b d7		 mov	 edx, edi
  000ae	eb 05		 jmp	 SHORT $LN333@erase@2
$LL118@erase@2:
  000b0	8b d0		 mov	 edx, eax
  000b2	8b 42 08	 mov	 eax, DWORD PTR [edx+8]
$LN333@erase@2:
  000b5	80 78 21 00	 cmp	 BYTE PTR [eax+33], 0
  000b9	74 f5		 je	 SHORT $LL118@erase@2
$LN117@erase@2:
  000bb	89 51 08	 mov	 DWORD PTR [ecx+8], edx

; 1247 : 			}
; 1248 : 		else

  000be	eb 5a		 jmp	 SHORT $LN185@erase@2
$LN35@erase@2:

; 1249 : 			{	// erased has two subtrees, _Pnode is successor to erased
; 1250 : 			this->_Parent(this->_Left(_Erasednode)) =
; 1251 : 				_Pnode;	// link left up

  000c0	89 42 04	 mov	 DWORD PTR [edx+4], eax

; 1252 : 			this->_Left(_Pnode) =
; 1253 : 				this->_Left(_Erasednode);	// link successor down

  000c3	8b 13		 mov	 edx, DWORD PTR [ebx]
  000c5	89 10		 mov	 DWORD PTR [eax], edx

; 1254 : 
; 1255 : 			if (_Pnode == this->_Right(_Erasednode))

  000c7	3b 43 08	 cmp	 eax, DWORD PTR [ebx+8]
  000ca	75 04		 jne	 SHORT $LN26@erase@2

; 1256 : 				_Fixnodeparent = _Pnode;	// successor is next to erased

  000cc	8b f0		 mov	 esi, eax

; 1257 : 			else

  000ce	eb 1a		 jmp	 SHORT $LN25@erase@2
$LN26@erase@2:

; 1258 : 				{	// successor further down, link in place of erased
; 1259 : 				_Fixnodeparent =
; 1260 : 					this->_Parent(_Pnode);	// parent is successor's
; 1261 : 				if (!this->_Isnil(_Fixnode))

  000d0	80 7f 21 00	 cmp	 BYTE PTR [edi+33], 0
  000d4	8b 70 04	 mov	 esi, DWORD PTR [eax+4]
  000d7	75 03		 jne	 SHORT $LN24@erase@2

; 1262 : 					this->_Parent(_Fixnode) = _Fixnodeparent;	// link fix up

  000d9	89 77 04	 mov	 DWORD PTR [edi+4], esi
$LN24@erase@2:

; 1263 : 				this->_Left(_Fixnodeparent) = _Fixnode;	// link fix down

  000dc	89 3e		 mov	 DWORD PTR [esi], edi

; 1264 : 				this->_Right(_Pnode) =
; 1265 : 					this->_Right(_Erasednode);	// link next down

  000de	8b 53 08	 mov	 edx, DWORD PTR [ebx+8]
  000e1	89 50 08	 mov	 DWORD PTR [eax+8], edx

; 1266 : 				this->_Parent(this->_Right(_Erasednode)) =
; 1267 : 					_Pnode;	// right up

  000e4	8b 4b 08	 mov	 ecx, DWORD PTR [ebx+8]
  000e7	89 41 04	 mov	 DWORD PTR [ecx+4], eax
$LN25@erase@2:

; 1268 : 				}
; 1269 : 
; 1270 : 			if (_Root() == _Erasednode)

  000ea	8b 4d fc	 mov	 ecx, DWORD PTR _this$[ebp]
  000ed	8b 49 04	 mov	 ecx, DWORD PTR [ecx+4]
  000f0	39 59 04	 cmp	 DWORD PTR [ecx+4], ebx
  000f3	75 05		 jne	 SHORT $LN23@erase@2

; 1271 : 				_Root() = _Pnode;	// link down from root

  000f5	89 41 04	 mov	 DWORD PTR [ecx+4], eax

; 1272 : 			else if (this->_Left(this->_Parent(_Erasednode)) == _Erasednode)

  000f8	eb 0e		 jmp	 SHORT $LN20@erase@2
$LN23@erase@2:
  000fa	8b 4b 04	 mov	 ecx, DWORD PTR [ebx+4]
  000fd	39 19		 cmp	 DWORD PTR [ecx], ebx
  000ff	75 04		 jne	 SHORT $LN21@erase@2

; 1273 : 				this->_Left(this->_Parent(_Erasednode)) =
; 1274 : 					_Pnode;	// link down to left

  00101	89 01		 mov	 DWORD PTR [ecx], eax

; 1275 : 			else

  00103	eb 03		 jmp	 SHORT $LN20@erase@2
$LN21@erase@2:

; 1276 : 				this->_Right(this->_Parent(_Erasednode)) =
; 1277 : 					_Pnode;	// link down to right

  00105	89 41 08	 mov	 DWORD PTR [ecx+8], eax
$LN20@erase@2:

; 1278 : 
; 1279 : 			this->_Parent(_Pnode) =
; 1280 : 				this->_Parent(_Erasednode);	// link successor up

  00108	8b 4b 04	 mov	 ecx, DWORD PTR [ebx+4]
  0010b	89 48 04	 mov	 DWORD PTR [eax+4], ecx

; 1281 : 			_STD swap(this->_Color(_Pnode),
; 1282 : 				this->_Color(_Erasednode));	// recolor it

  0010e	8a 53 20	 mov	 dl, BYTE PTR [ebx+32]
  00111	8a 48 20	 mov	 cl, BYTE PTR [eax+32]
  00114	88 50 20	 mov	 BYTE PTR [eax+32], dl
  00117	88 4b 20	 mov	 BYTE PTR [ebx+32], cl
$LN185@erase@2:

; 1283 : 			}
; 1284 : 
; 1285 : 		if (this->_Color(_Erasednode) == this->_Black)

  0011a	80 7b 20 01	 cmp	 BYTE PTR [ebx+32], 1
  0011e	0f 85 03 01 00
	00		 jne	 $LN19@erase@2

; 1286 : 			{	// erasing black link, must recolor/rebalance tree
; 1287 : 			for (; _Fixnode != _Root()
; 1288 : 				&& this->_Color(_Fixnode) == this->_Black;
; 1289 : 				_Fixnodeparent = this->_Parent(_Fixnode))

  00124	e9 b2 00 00 00	 jmp	 $LN335@erase@2
$LL18@erase@2:
  00129	80 7f 20 01	 cmp	 BYTE PTR [edi+32], 1
  0012d	0f 85 f0 00 00
	00		 jne	 $LN16@erase@2

; 1290 : 				if (_Fixnode == this->_Left(_Fixnodeparent))

  00133	8b 06		 mov	 eax, DWORD PTR [esi]
  00135	3b f8		 cmp	 edi, eax
  00137	75 6c		 jne	 SHORT $LN15@erase@2

; 1291 : 					{	// fixup left subtree
; 1292 : 					_Pnode = this->_Right(_Fixnodeparent);

  00139	8b 46 08	 mov	 eax, DWORD PTR [esi+8]

; 1293 : 					if (this->_Color(_Pnode) == this->_Red)

  0013c	80 78 20 00	 cmp	 BYTE PTR [eax+32], 0
  00140	75 11		 jne	 SHORT $LN14@erase@2

; 1294 : 						{	// rotate red up from right subtree
; 1295 : 						this->_Color(_Pnode) = this->_Black;

  00142	c6 40 20 01	 mov	 BYTE PTR [eax+32], 1

; 1296 : 						this->_Color(_Fixnodeparent) = this->_Red;
; 1297 : 						_Lrotate(_Fixnodeparent);

  00146	56		 push	 esi
  00147	c6 46 20 00	 mov	 BYTE PTR [esi+32], 0
  0014b	e8 00 00 00 00	 call	 ?_Lrotate@?$_Tree@V?$_Tmap_traits@KVioHashString@@U?$less@K@std@@V?$allocator@U?$pair@$$CBKVioHashString@@@std@@@3@$0A@@std@@@std@@IAEXPAU_Node@?$_Tree_nod@V?$_Tmap_traits@KVioHashString@@U?$less@K@std@@V?$allocator@U?$pair@$$CBKVioHashString@@@std@@@3@$0A@@std@@@2@@Z ; std::_Tree<std::_Tmap_traits<unsigned long,ioHashString,std::less<unsigned long>,std::allocator<std::pair<unsigned long const ,ioHashString> >,0> >::_Lrotate

; 1298 : 						_Pnode = this->_Right(_Fixnodeparent);

  00150	8b 46 08	 mov	 eax, DWORD PTR [esi+8]
$LN14@erase@2:

; 1299 : 						}
; 1300 : 
; 1301 : 					if (this->_Isnil(_Pnode))

  00153	80 78 21 00	 cmp	 BYTE PTR [eax+33], 0

; 1302 : 						_Fixnode = _Fixnodeparent;	// shouldn't happen
; 1303 : 					else if (this->_Color(this->_Left(_Pnode)) == this->_Black

  00157	75 7d		 jne	 SHORT $LN336@erase@2

; 1304 : 						&& this->_Color(this->_Right(_Pnode)) == this->_Black)

  00159	8b 08		 mov	 ecx, DWORD PTR [eax]
  0015b	80 79 20 01	 cmp	 BYTE PTR [ecx+32], 1
  0015f	75 09		 jne	 SHORT $LN11@erase@2
  00161	8b 48 08	 mov	 ecx, DWORD PTR [eax+8]
  00164	80 79 20 01	 cmp	 BYTE PTR [ecx+32], 1
  00168	74 68		 je	 SHORT $LN337@erase@2
$LN11@erase@2:

; 1305 : 						{	// redden right subtree with black children
; 1306 : 						this->_Color(_Pnode) = this->_Red;
; 1307 : 						_Fixnode = _Fixnodeparent;
; 1308 : 						}
; 1309 : 					else
; 1310 : 						{	// must rearrange right subtree
; 1311 : 						if (this->_Color(this->_Right(_Pnode))
; 1312 : 							== this->_Black)

  0016a	8b 48 08	 mov	 ecx, DWORD PTR [eax+8]
  0016d	80 79 20 01	 cmp	 BYTE PTR [ecx+32], 1
  00171	75 16		 jne	 SHORT $LN9@erase@2

; 1313 : 							{	// rotate red up from left sub-subtree
; 1314 : 							this->_Color(this->_Left(_Pnode)) = this->_Black;

  00173	8b 08		 mov	 ecx, DWORD PTR [eax]
  00175	c6 41 20 01	 mov	 BYTE PTR [ecx+32], 1

; 1315 : 							this->_Color(_Pnode) = this->_Red;
; 1316 : 							_Rrotate(_Pnode);

  00179	8b 4d fc	 mov	 ecx, DWORD PTR _this$[ebp]
  0017c	50		 push	 eax
  0017d	c6 40 20 00	 mov	 BYTE PTR [eax+32], 0
  00181	e8 00 00 00 00	 call	 ?_Rrotate@?$_Tree@V?$_Tmap_traits@KVioHashString@@U?$less@K@std@@V?$allocator@U?$pair@$$CBKVioHashString@@@std@@@3@$0A@@std@@@std@@IAEXPAU_Node@?$_Tree_nod@V?$_Tmap_traits@KVioHashString@@U?$less@K@std@@V?$allocator@U?$pair@$$CBKVioHashString@@@std@@@3@$0A@@std@@@2@@Z ; std::_Tree<std::_Tmap_traits<unsigned long,ioHashString,std::less<unsigned long>,std::allocator<std::pair<unsigned long const ,ioHashString> >,0> >::_Rrotate

; 1317 : 							_Pnode = this->_Right(_Fixnodeparent);

  00186	8b 46 08	 mov	 eax, DWORD PTR [esi+8]
$LN9@erase@2:

; 1318 : 							}
; 1319 : 
; 1320 : 						this->_Color(_Pnode) = this->_Color(_Fixnodeparent);

  00189	8a 4e 20	 mov	 cl, BYTE PTR [esi+32]
  0018c	88 48 20	 mov	 BYTE PTR [eax+32], cl

; 1321 : 						this->_Color(_Fixnodeparent) = this->_Black;
; 1322 : 						this->_Color(this->_Right(_Pnode)) = this->_Black;
; 1323 : 						_Lrotate(_Fixnodeparent);

  0018f	8b 4d fc	 mov	 ecx, DWORD PTR _this$[ebp]
  00192	c6 46 20 01	 mov	 BYTE PTR [esi+32], 1
  00196	8b 40 08	 mov	 eax, DWORD PTR [eax+8]
  00199	56		 push	 esi
  0019a	c6 40 20 01	 mov	 BYTE PTR [eax+32], 1
  0019e	e8 00 00 00 00	 call	 ?_Lrotate@?$_Tree@V?$_Tmap_traits@KVioHashString@@U?$less@K@std@@V?$allocator@U?$pair@$$CBKVioHashString@@@std@@@3@$0A@@std@@@std@@IAEXPAU_Node@?$_Tree_nod@V?$_Tmap_traits@KVioHashString@@U?$less@K@std@@V?$allocator@U?$pair@$$CBKVioHashString@@@std@@@3@$0A@@std@@@2@@Z ; std::_Tree<std::_Tmap_traits<unsigned long,ioHashString,std::less<unsigned long>,std::allocator<std::pair<unsigned long const ,ioHashString> >,0> >::_Lrotate

; 1324 : 						break;	// tree now recolored/rebalanced

  001a3	eb 7e		 jmp	 SHORT $LN16@erase@2
$LN15@erase@2:

; 1325 : 						}
; 1326 : 					}
; 1327 : 				else
; 1328 : 					{	// fixup right subtree
; 1329 : 					_Pnode = this->_Left(_Fixnodeparent);
; 1330 : 					if (this->_Color(_Pnode) == this->_Red)

  001a5	80 78 20 00	 cmp	 BYTE PTR [eax+32], 0
  001a9	75 10		 jne	 SHORT $LN7@erase@2

; 1331 : 						{	// rotate red up from left subtree
; 1332 : 						this->_Color(_Pnode) = this->_Black;

  001ab	c6 40 20 01	 mov	 BYTE PTR [eax+32], 1

; 1333 : 						this->_Color(_Fixnodeparent) = this->_Red;
; 1334 : 						_Rrotate(_Fixnodeparent);

  001af	56		 push	 esi
  001b0	c6 46 20 00	 mov	 BYTE PTR [esi+32], 0
  001b4	e8 00 00 00 00	 call	 ?_Rrotate@?$_Tree@V?$_Tmap_traits@KVioHashString@@U?$less@K@std@@V?$allocator@U?$pair@$$CBKVioHashString@@@std@@@3@$0A@@std@@@std@@IAEXPAU_Node@?$_Tree_nod@V?$_Tmap_traits@KVioHashString@@U?$less@K@std@@V?$allocator@U?$pair@$$CBKVioHashString@@@std@@@3@$0A@@std@@@2@@Z ; std::_Tree<std::_Tmap_traits<unsigned long,ioHashString,std::less<unsigned long>,std::allocator<std::pair<unsigned long const ,ioHashString> >,0> >::_Rrotate

; 1335 : 						_Pnode = this->_Left(_Fixnodeparent);

  001b9	8b 06		 mov	 eax, DWORD PTR [esi]
$LN7@erase@2:

; 1336 : 						}
; 1337 : 					if (this->_Isnil(_Pnode))

  001bb	80 78 21 00	 cmp	 BYTE PTR [eax+33], 0

; 1338 : 						_Fixnode = _Fixnodeparent;	// shouldn't happen
; 1339 : 					else if (this->_Color(this->_Right(_Pnode)) ==

  001bf	75 15		 jne	 SHORT $LN336@erase@2

; 1340 : 						this->_Black
; 1341 : 						&& this->_Color(this->_Left(_Pnode)) == this->_Black)

  001c1	8b 48 08	 mov	 ecx, DWORD PTR [eax+8]
  001c4	80 79 20 01	 cmp	 BYTE PTR [ecx+32], 1
  001c8	75 22		 jne	 SHORT $LN4@erase@2
  001ca	8b 08		 mov	 ecx, DWORD PTR [eax]
  001cc	80 79 20 01	 cmp	 BYTE PTR [ecx+32], 1
  001d0	75 1a		 jne	 SHORT $LN4@erase@2
$LN337@erase@2:

; 1342 : 						{	// redden left subtree with black children
; 1343 : 						this->_Color(_Pnode) = this->_Red;

  001d2	c6 40 20 00	 mov	 BYTE PTR [eax+32], 0
$LN336@erase@2:

; 1344 : 						_Fixnode = _Fixnodeparent;

  001d6	8b fe		 mov	 edi, esi
  001d8	8b 76 04	 mov	 esi, DWORD PTR [esi+4]
$LN335@erase@2:

; 1286 : 			{	// erasing black link, must recolor/rebalance tree
; 1287 : 			for (; _Fixnode != _Root()
; 1288 : 				&& this->_Color(_Fixnode) == this->_Black;
; 1289 : 				_Fixnodeparent = this->_Parent(_Fixnode))

  001db	8b 4d fc	 mov	 ecx, DWORD PTR _this$[ebp]
  001de	8b 41 04	 mov	 eax, DWORD PTR [ecx+4]
  001e1	3b 78 04	 cmp	 edi, DWORD PTR [eax+4]
  001e4	0f 85 3f ff ff
	ff		 jne	 $LL18@erase@2
  001ea	eb 37		 jmp	 SHORT $LN16@erase@2
$LN4@erase@2:

; 1345 : 						}
; 1346 : 					else
; 1347 : 						{	// must rearrange left subtree
; 1348 : 						if (this->_Color(this->_Left(_Pnode)) == this->_Black)

  001ec	8b 08		 mov	 ecx, DWORD PTR [eax]
  001ee	80 79 20 01	 cmp	 BYTE PTR [ecx+32], 1
  001f2	75 16		 jne	 SHORT $LN2@erase@2

; 1349 : 							{	// rotate red up from right sub-subtree
; 1350 : 							this->_Color(this->_Right(_Pnode)) = this->_Black;

  001f4	8b 48 08	 mov	 ecx, DWORD PTR [eax+8]
  001f7	c6 41 20 01	 mov	 BYTE PTR [ecx+32], 1

; 1351 : 							this->_Color(_Pnode) = this->_Red;
; 1352 : 							_Lrotate(_Pnode);

  001fb	8b 4d fc	 mov	 ecx, DWORD PTR _this$[ebp]
  001fe	50		 push	 eax
  001ff	c6 40 20 00	 mov	 BYTE PTR [eax+32], 0
  00203	e8 00 00 00 00	 call	 ?_Lrotate@?$_Tree@V?$_Tmap_traits@KVioHashString@@U?$less@K@std@@V?$allocator@U?$pair@$$CBKVioHashString@@@std@@@3@$0A@@std@@@std@@IAEXPAU_Node@?$_Tree_nod@V?$_Tmap_traits@KVioHashString@@U?$less@K@std@@V?$allocator@U?$pair@$$CBKVioHashString@@@std@@@3@$0A@@std@@@2@@Z ; std::_Tree<std::_Tmap_traits<unsigned long,ioHashString,std::less<unsigned long>,std::allocator<std::pair<unsigned long const ,ioHashString> >,0> >::_Lrotate

; 1353 : 							_Pnode = this->_Left(_Fixnodeparent);

  00208	8b 06		 mov	 eax, DWORD PTR [esi]
$LN2@erase@2:

; 1354 : 							}
; 1355 : 
; 1356 : 						this->_Color(_Pnode) = this->_Color(_Fixnodeparent);

  0020a	8a 4e 20	 mov	 cl, BYTE PTR [esi+32]
  0020d	88 48 20	 mov	 BYTE PTR [eax+32], cl

; 1357 : 						this->_Color(_Fixnodeparent) = this->_Black;
; 1358 : 						this->_Color(this->_Left(_Pnode)) = this->_Black;
; 1359 : 						_Rrotate(_Fixnodeparent);

  00210	8b 4d fc	 mov	 ecx, DWORD PTR _this$[ebp]
  00213	c6 46 20 01	 mov	 BYTE PTR [esi+32], 1
  00217	8b 00		 mov	 eax, DWORD PTR [eax]
  00219	56		 push	 esi
  0021a	c6 40 20 01	 mov	 BYTE PTR [eax+32], 1
  0021e	e8 00 00 00 00	 call	 ?_Rrotate@?$_Tree@V?$_Tmap_traits@KVioHashString@@U?$less@K@std@@V?$allocator@U?$pair@$$CBKVioHashString@@@std@@@3@$0A@@std@@@std@@IAEXPAU_Node@?$_Tree_nod@V?$_Tmap_traits@KVioHashString@@U?$less@K@std@@V?$allocator@U?$pair@$$CBKVioHashString@@@std@@@3@$0A@@std@@@2@@Z ; std::_Tree<std::_Tmap_traits<unsigned long,ioHashString,std::less<unsigned long>,std::allocator<std::pair<unsigned long const ,ioHashString> >,0> >::_Rrotate
$LN16@erase@2:

; 1360 : 						break;	// tree now recolored/rebalanced
; 1361 : 						}
; 1362 : 					}
; 1363 : 
; 1364 : 			this->_Color(_Fixnode) = this->_Black;	// stopping node is black

  00223	c6 47 20 01	 mov	 BYTE PTR [edi+32], 1
$LN19@erase@2:

; 1365 : 			}
; 1366 : 
; 1367 : 		_Dest_val(this->_Alval,
; 1368 : 			_STD addressof(this->_Myval(_Erasednode)));	// delete erased node

  00227	8d 4b 10	 lea	 ecx, DWORD PTR [ebx+16]
  0022a	ff 15 00 00 00
	00		 call	 DWORD PTR __imp_??1ioHashString@@QAE@XZ

; 1369 : 
; 1370 : 		this->_Alnod.deallocate(_Erasednode, 1);

  00230	53		 push	 ebx
  00231	e8 00 00 00 00	 call	 ??3@YAXPAX@Z		; operator delete
  00236	59		 pop	 ecx

; 1371 : 
; 1372 : 		if (0 < this->_Mysize)

  00237	8b 4d fc	 mov	 ecx, DWORD PTR _this$[ebp]
  0023a	8b 41 08	 mov	 eax, DWORD PTR [ecx+8]
  0023d	5f		 pop	 edi
  0023e	5e		 pop	 esi
  0023f	5b		 pop	 ebx
  00240	85 c0		 test	 eax, eax
  00242	74 04		 je	 SHORT $LN1@erase@2

; 1373 : 			--this->_Mysize;

  00244	48		 dec	 eax
  00245	89 41 08	 mov	 DWORD PTR [ecx+8], eax
$LN1@erase@2:

; 1374 : 
; 1375 : 		return (iterator(_Where._Ptr, this));	// return successor iterator

  00248	8b 45 08	 mov	 eax, DWORD PTR ___$ReturnUdt$[ebp]
  0024b	8b 4d 0c	 mov	 ecx, DWORD PTR __Where$[ebp]
  0024e	89 08		 mov	 DWORD PTR [eax], ecx

; 1376 : 		}

  00250	c9		 leave
  00251	c2 08 00	 ret	 8
$LN331@erase@2:
?erase@?$_Tree@V?$_Tmap_traits@KVioHashString@@U?$less@K@std@@V?$allocator@U?$pair@$$CBKVioHashString@@@std@@@3@$0A@@std@@@std@@QAE?AV?$_Tree_iterator@V?$_Tree_val@V?$_Tmap_traits@KVioHashString@@U?$less@K@std@@V?$allocator@U?$pair@$$CBKVioHashString@@@std@@@3@$0A@@std@@@std@@@2@V?$_Tree_const_iterator@V?$_Tree_val@V?$_Tmap_traits@KVioHashString@@U?$less@K@std@@V?$allocator@U?$pair@$$CBKVioHashString@@@std@@@3@$0A@@std@@@std@@@2@@Z ENDP ; std::_Tree<std::_Tmap_traits<unsigned long,ioHashString,std::less<unsigned long>,std::allocator<std::pair<unsigned long const ,ioHashString> >,0> >::erase
_TEXT	ENDS
PUBLIC	??$_Ucopy@PAUSwingParam@@@?$vector@USwingParam@@V?$allocator@USwingParam@@@std@@@std@@IAEPAUSwingParam@@PAU2@00@Z ; std::vector<SwingParam,std::allocator<SwingParam> >::_Ucopy<SwingParam *>
; Function compile flags: /Ogsp
; File c:\program files (x86)\microsoft visual studio 10.0\vc\include\vector
;	COMDAT ??$_Ucopy@PAUSwingParam@@@?$vector@USwingParam@@V?$allocator@USwingParam@@@std@@@std@@IAEPAUSwingParam@@PAU2@00@Z
_TEXT	SEGMENT
__First$ = 8						; size = 4
__Last$ = 12						; size = 4
__Cat$531528 = 16					; size = 1
__Ptr$ = 16						; size = 4
??$_Ucopy@PAUSwingParam@@@?$vector@USwingParam@@V?$allocator@USwingParam@@@std@@@std@@IAEPAUSwingParam@@PAU2@00@Z PROC ; std::vector<SwingParam,std::allocator<SwingParam> >::_Ucopy<SwingParam *>, COMDAT
; _this$ = ecx

; 1315 : 		pointer _Ucopy(_Iter _First, _Iter _Last, pointer _Ptr)

  00000	55		 push	 ebp
  00001	8b ec		 mov	 ebp, esp

; 1316 : 		{	// copy initializing [_First, _Last), using allocator
; 1317 : 		return (_Uninitialized_copy(_First, _Last,
; 1318 : 			_Ptr, this->_Alval));

  00003	ff 75 10	 push	 DWORD PTR __Cat$531528[ebp]
  00006	83 c1 0c	 add	 ecx, 12			; 0000000cH
  00009	51		 push	 ecx
  0000a	ff 75 10	 push	 DWORD PTR __Ptr$[ebp]
  0000d	ff 75 0c	 push	 DWORD PTR __Last$[ebp]
  00010	ff 75 08	 push	 DWORD PTR __First$[ebp]
  00013	e8 00 00 00 00	 call	 ??$_Uninit_copy@PAUSwingParam@@PAU1@V?$allocator@USwingParam@@@std@@@std@@YAPAUSwingParam@@PAU1@00AAV?$allocator@USwingParam@@@0@U_Nonscalar_ptr_iterator_tag@0@@Z ; std::_Uninit_copy<SwingParam *,SwingParam *,std::allocator<SwingParam> >
  00018	83 c4 14	 add	 esp, 20			; 00000014H

; 1319 : 		}

  0001b	5d		 pop	 ebp
  0001c	c2 0c 00	 ret	 12			; 0000000cH
??$_Ucopy@PAUSwingParam@@@?$vector@USwingParam@@V?$allocator@USwingParam@@@std@@@std@@IAEPAUSwingParam@@PAU2@00@Z ENDP ; std::vector<SwingParam,std::allocator<SwingParam> >::_Ucopy<SwingParam *>
_TEXT	ENDS
PUBLIC	??$_Umove@PAUSwingParam@@@?$vector@USwingParam@@V?$allocator@USwingParam@@@std@@@std@@IAEPAUSwingParam@@PAU2@00@Z ; std::vector<SwingParam,std::allocator<SwingParam> >::_Umove<SwingParam *>
; Function compile flags: /Ogsp
;	COMDAT ??$_Umove@PAUSwingParam@@@?$vector@USwingParam@@V?$allocator@USwingParam@@@std@@@std@@IAEPAUSwingParam@@PAU2@00@Z
_TEXT	SEGMENT
__First$ = 8						; size = 4
__Last$ = 12						; size = 4
__Ptr$ = 16						; size = 4
??$_Umove@PAUSwingParam@@@?$vector@USwingParam@@V?$allocator@USwingParam@@@std@@@std@@IAEPAUSwingParam@@PAU2@00@Z PROC ; std::vector<SwingParam,std::allocator<SwingParam> >::_Umove<SwingParam *>, COMDAT
; _this$ = ecx

; 1322 : 		pointer _Umove(_Iter _First, _Iter _Last, pointer _Ptr)

  00000	55		 push	 ebp
  00001	8b ec		 mov	 ebp, esp

; 1323 : 		{	// move initializing [_First, _Last), using allocator
; 1324 : 		return (_Uninitialized_move(_First, _Last,
; 1325 : 			_Ptr, this->_Alval));

  00003	83 c1 0c	 add	 ecx, 12			; 0000000cH
  00006	51		 push	 ecx
  00007	ff 75 10	 push	 DWORD PTR __Ptr$[ebp]
  0000a	ff 75 0c	 push	 DWORD PTR __Last$[ebp]
  0000d	ff 75 08	 push	 DWORD PTR __First$[ebp]
  00010	e8 00 00 00 00	 call	 ??$_Uninitialized_move@PAUSwingParam@@PAU1@V?$allocator@USwingParam@@@std@@@std@@YAPAUSwingParam@@PAU1@00AAV?$allocator@USwingParam@@@0@@Z ; std::_Uninitialized_move<SwingParam *,SwingParam *,std::allocator<SwingParam> >
  00015	83 c4 10	 add	 esp, 16			; 00000010H

; 1326 : 		}

  00018	5d		 pop	 ebp
  00019	c2 0c 00	 ret	 12			; 0000000cH
??$_Umove@PAUSwingParam@@@?$vector@USwingParam@@V?$allocator@USwingParam@@@std@@@std@@IAEPAUSwingParam@@PAU2@00@Z ENDP ; std::vector<SwingParam,std::allocator<SwingParam> >::_Umove<SwingParam *>
_TEXT	ENDS
PUBLIC	?_Linsert@?$_Tree@V?$_Tmap_traits@KVioHashString@@U?$less@K@std@@V?$allocator@U?$pair@$$CBKVioHashString@@@std@@@3@$0A@@std@@@std@@QAE?AU?$pair@V?$_Tree_iterator@V?$_Tree_val@V?$_Tmap_traits@KVioHashString@@U?$less@K@std@@V?$allocator@U?$pair@$$CBKVioHashString@@@std@@@3@$0A@@std@@@std@@@std@@_N@2@PAU_Node@?$_Tree_nod@V?$_Tmap_traits@KVioHashString@@U?$less@K@std@@V?$allocator@U?$pair@$$CBKVioHashString@@@std@@@3@$0A@@std@@@2@_N@Z ; std::_Tree<std::_Tmap_traits<unsigned long,ioHashString,std::less<unsigned long>,std::allocator<std::pair<unsigned long const ,ioHashString> >,0> >::_Linsert
; Function compile flags: /Ogsp
; File c:\program files (x86)\microsoft visual studio 10.0\vc\include\xtree
;	COMDAT ?_Linsert@?$_Tree@V?$_Tmap_traits@KVioHashString@@U?$less@K@std@@V?$allocator@U?$pair@$$CBKVioHashString@@@std@@@3@$0A@@std@@@std@@QAE?AU?$pair@V?$_Tree_iterator@V?$_Tree_val@V?$_Tmap_traits@KVioHashString@@U?$less@K@std@@V?$allocator@U?$pair@$$CBKVioHashString@@@std@@@3@$0A@@std@@@std@@@std@@_N@2@PAU_Node@?$_Tree_nod@V?$_Tmap_traits@KVioHashString@@U?$less@K@std@@V?$allocator@U?$pair@$$CBKVioHashString@@@std@@@3@$0A@@std@@@2@_N@Z
_TEXT	SEGMENT
__Addleft$ = -4						; size = 1
___$ReturnUdt$ = 8					; size = 4
__Node$ = 12						; size = 4
$T531540 = 16						; size = 4
__Where$526929 = 16					; size = 4
__Leftish$ = 16						; size = 1
?_Linsert@?$_Tree@V?$_Tmap_traits@KVioHashString@@U?$less@K@std@@V?$allocator@U?$pair@$$CBKVioHashString@@@std@@@3@$0A@@std@@@std@@QAE?AU?$pair@V?$_Tree_iterator@V?$_Tree_val@V?$_Tmap_traits@KVioHashString@@U?$less@K@std@@V?$allocator@U?$pair@$$CBKVioHashString@@@std@@@3@$0A@@std@@@std@@@std@@_N@2@PAU_Node@?$_Tree_nod@V?$_Tmap_traits@KVioHashString@@U?$less@K@std@@V?$allocator@U?$pair@$$CBKVioHashString@@@std@@@3@$0A@@std@@@2@_N@Z PROC ; std::_Tree<std::_Tmap_traits<unsigned long,ioHashString,std::less<unsigned long>,std::allocator<std::pair<unsigned long const ,ioHashString> >,0> >::_Linsert, COMDAT
; _this$ = ecx

; 944  : 		{	// try to insert node at _Node, on left if _Leftish

  00000	55		 push	 ebp
  00001	8b ec		 mov	 ebp, esp
  00003	51		 push	 ecx

; 945  : 		const value_type& _Val = this->_Myval(_Node);
; 946  : 
; 947  : 		_Nodeptr _Trynode = _Root();
; 948  : 		_Nodeptr _Wherenode = this->_Myhead;
; 949  : 		bool _Addleft = true;	// add to left of head if tree empty
; 950  : 		while (!this->_Isnil(_Trynode))

  00004	8b 55 0c	 mov	 edx, DWORD PTR __Node$[ebp]
  00007	53		 push	 ebx
  00008	56		 push	 esi
  00009	8b f1		 mov	 esi, ecx
  0000b	8b 4e 04	 mov	 ecx, DWORD PTR [esi+4]
  0000e	8b 41 04	 mov	 eax, DWORD PTR [ecx+4]
  00011	80 78 21 00	 cmp	 BYTE PTR [eax+33], 0
  00015	8b d9		 mov	 ebx, ecx
  00017	b1 01		 mov	 cl, 1
  00019	57		 push	 edi
  0001a	88 4d fc	 mov	 BYTE PTR __Addleft$[ebp], cl
  0001d	75 2e		 jne	 SHORT $LN11@Linsert
  0001f	8b 7a 0c	 mov	 edi, DWORD PTR [edx+12]
$LL12@Linsert:

; 951  : 			{	// look for leaf to insert before (_Addleft) or after
; 952  : 			_Wherenode = _Trynode;
; 953  : 			if (_Leftish)

  00022	80 7d 10 00	 cmp	 BYTE PTR __Leftish$[ebp], 0
  00026	8b d8		 mov	 ebx, eax
  00028	74 09		 je	 SHORT $LN10@Linsert

; 954  : 				_Addleft = !_DEBUG_LT_PRED(this->comp,

  0002a	39 78 0c	 cmp	 DWORD PTR [eax+12], edi
  0002d	1a c9		 sbb	 cl, cl
  0002f	fe c1		 inc	 cl

; 955  : 					this->_Key(_Trynode),
; 956  : 					this->_Kfn(_Val));	// favor left end
; 957  : 			else

  00031	eb 06		 jmp	 SHORT $LN161@Linsert
$LN10@Linsert:

; 958  : 				_Addleft = _DEBUG_LT_PRED(this->comp,

  00033	3b 78 0c	 cmp	 edi, DWORD PTR [eax+12]
  00036	0f 92 c1	 setb	 cl
$LN161@Linsert:
  00039	88 4d fc	 mov	 BYTE PTR __Addleft$[ebp], cl

; 959  : 					this->_Kfn(_Val),
; 960  : 					this->_Key(_Trynode));	// favor right end
; 961  : 			_Trynode = _Addleft ? this->_Left(_Trynode)
; 962  : 				: this->_Right(_Trynode);

  0003c	84 c9		 test	 cl, cl
  0003e	74 04		 je	 SHORT $LN15@Linsert
  00040	8b 00		 mov	 eax, DWORD PTR [eax]
  00042	eb 03		 jmp	 SHORT $LN16@Linsert
$LN15@Linsert:
  00044	8b 40 08	 mov	 eax, DWORD PTR [eax+8]
$LN16@Linsert:

; 945  : 		const value_type& _Val = this->_Myval(_Node);
; 946  : 
; 947  : 		_Nodeptr _Trynode = _Root();
; 948  : 		_Nodeptr _Wherenode = this->_Myhead;
; 949  : 		bool _Addleft = true;	// add to left of head if tree empty
; 950  : 		while (!this->_Isnil(_Trynode))

  00047	80 78 21 00	 cmp	 BYTE PTR [eax+33], 0
  0004b	74 d5		 je	 SHORT $LL12@Linsert
$LN11@Linsert:

; 963  : 			}
; 964  : 
; 965  : 		if (this->_Multi)
; 966  : 			return (_Pairib(_Insert(_Addleft, _Wherenode, _Node), true));
; 967  : 		else
; 968  : 			{	// insert only if unique
; 969  : 			iterator _Where = iterator(_Wherenode, this);

  0004d	8b fb		 mov	 edi, ebx
  0004f	89 7d 10	 mov	 DWORD PTR __Where$526929[ebp], edi

; 970  : 			if (!_Addleft)

  00052	84 c9		 test	 cl, cl
  00054	74 31		 je	 SHORT $LN99@Linsert

; 971  : 				;	// need to test if insert after is okay
; 972  : 			else if (_Where == begin())

  00056	8b 46 04	 mov	 eax, DWORD PTR [esi+4]
  00059	3b 18		 cmp	 ebx, DWORD PTR [eax]
  0005b	75 1c		 jne	 SHORT $LN4@Linsert

; 973  : 				return (_Pairib(_Insert(true, _Wherenode, _Node), true));

  0005d	52		 push	 edx
  0005e	53		 push	 ebx
  0005f	6a 01		 push	 1
$LN162@Linsert:
  00061	8d 45 10	 lea	 eax, DWORD PTR $T531540[ebp]
  00064	50		 push	 eax
  00065	8b ce		 mov	 ecx, esi
  00067	e8 00 00 00 00	 call	 ?_Insert@?$_Tree@V?$_Tmap_traits@KVioHashString@@U?$less@K@std@@V?$allocator@U?$pair@$$CBKVioHashString@@@std@@@3@$0A@@std@@@std@@IAE?AV?$_Tree_iterator@V?$_Tree_val@V?$_Tmap_traits@KVioHashString@@U?$less@K@std@@V?$allocator@U?$pair@$$CBKVioHashString@@@std@@@3@$0A@@std@@@std@@@2@_NPAU_Node@?$_Tree_nod@V?$_Tmap_traits@KVioHashString@@U?$less@K@std@@V?$allocator@U?$pair@$$CBKVioHashString@@@std@@@3@$0A@@std@@@2@1@Z ; std::_Tree<std::_Tmap_traits<unsigned long,ioHashString,std::less<unsigned long>,std::allocator<std::pair<unsigned long const ,ioHashString> >,0> >::_Insert
  0006c	8b 08		 mov	 ecx, DWORD PTR [eax]
  0006e	8b 45 08	 mov	 eax, DWORD PTR ___$ReturnUdt$[ebp]
  00071	89 08		 mov	 DWORD PTR [eax], ecx
  00073	c6 40 04 01	 mov	 BYTE PTR [eax+4], 1
  00077	eb 38		 jmp	 SHORT $LN1@Linsert
$LN4@Linsert:

; 974  : 			else
; 975  : 				--_Where;	// need to test if insert before is okay

  00079	8d 4d 10	 lea	 ecx, DWORD PTR __Where$526929[ebp]
  0007c	e8 00 00 00 00	 call	 ??F?$_Tree_unchecked_const_iterator@V?$_Tree_val@V?$_Tmap_traits@KVioHashString@@U?$less@K@std@@V?$allocator@U?$pair@$$CBKVioHashString@@@std@@@3@$0A@@std@@@std@@U_Iterator_base0@2@@std@@QAEAAV01@XZ ; std::_Tree_unchecked_const_iterator<std::_Tree_val<std::_Tmap_traits<unsigned long,ioHashString,std::less<unsigned long>,std::allocator<std::pair<unsigned long const ,ioHashString> >,0> >,std::_Iterator_base0>::operator--
  00081	8b 7d 10	 mov	 edi, DWORD PTR __Where$526929[ebp]
  00084	8b 55 0c	 mov	 edx, DWORD PTR __Node$[ebp]
$LN99@Linsert:

; 976  : 
; 977  : 			if (_DEBUG_LT_PRED(this->comp,

  00087	8b 47 0c	 mov	 eax, DWORD PTR [edi+12]
  0008a	3b 42 0c	 cmp	 eax, DWORD PTR [edx+12]
  0008d	73 07		 jae	 SHORT $LN2@Linsert

; 978  : 				this->_Key(_Where._Mynode()),
; 979  : 				this->_Kfn(_Val)))
; 980  : 				return (_Pairib(_Insert(_Addleft, _Wherenode, _Node), true));

  0008f	52		 push	 edx
  00090	53		 push	 ebx
  00091	ff 75 fc	 push	 DWORD PTR __Addleft$[ebp]
  00094	eb cb		 jmp	 SHORT $LN162@Linsert
$LN2@Linsert:

; 981  : 			else
; 982  : 				{	// duplicate, don't insert
; 983  : 				_Dest_val(this->_Alval,
; 984  : 					_STD addressof(this->_Myval(_Node)));

  00096	8d 4a 10	 lea	 ecx, DWORD PTR [edx+16]
  00099	ff 15 00 00 00
	00		 call	 DWORD PTR __imp_??1ioHashString@@QAE@XZ

; 985  : 
; 986  : 				this->_Alnod.deallocate(_Node, 1);

  0009f	ff 75 0c	 push	 DWORD PTR __Node$[ebp]
  000a2	e8 00 00 00 00	 call	 ??3@YAXPAX@Z		; operator delete

; 987  : 
; 988  : 				return (_Pairib(_Where, false));

  000a7	8b 45 08	 mov	 eax, DWORD PTR ___$ReturnUdt$[ebp]
  000aa	59		 pop	 ecx
  000ab	89 38		 mov	 DWORD PTR [eax], edi
  000ad	c6 40 04 00	 mov	 BYTE PTR [eax+4], 0
$LN1@Linsert:
  000b1	5f		 pop	 edi
  000b2	5e		 pop	 esi
  000b3	5b		 pop	 ebx

; 989  : 				}
; 990  : 			}
; 991  : 		}

  000b4	c9		 leave
  000b5	c2 0c 00	 ret	 12			; 0000000cH
?_Linsert@?$_Tree@V?$_Tmap_traits@KVioHashString@@U?$less@K@std@@V?$allocator@U?$pair@$$CBKVioHashString@@@std@@@3@$0A@@std@@@std@@QAE?AU?$pair@V?$_Tree_iterator@V?$_Tree_val@V?$_Tmap_traits@KVioHashString@@U?$less@K@std@@V?$allocator@U?$pair@$$CBKVioHashString@@@std@@@3@$0A@@std@@@std@@@std@@_N@2@PAU_Node@?$_Tree_nod@V?$_Tmap_traits@KVioHashString@@U?$less@K@std@@V?$allocator@U?$pair@$$CBKVioHashString@@@std@@@3@$0A@@std@@@2@_N@Z ENDP ; std::_Tree<std::_Tmap_traits<unsigned long,ioHashString,std::less<unsigned long>,std::allocator<std::pair<unsigned long const ,ioHashString> >,0> >::_Linsert
_TEXT	ENDS
PUBLIC	??$_Buynode@U?$pair@$$CBKVioHashString@@@std@@@?$_Tree_val@V?$_Tmap_traits@KVioHashString@@U?$less@K@std@@V?$allocator@U?$pair@$$CBKVioHashString@@@std@@@3@$0A@@std@@@std@@QAEPAU_Node@?$_Tree_nod@V?$_Tmap_traits@KVioHashString@@U?$less@K@std@@V?$allocator@U?$pair@$$CBKVioHashString@@@std@@@3@$0A@@std@@@1@$$QAU?$pair@$$CBKVioHashString@@@1@@Z ; std::_Tree_val<std::_Tmap_traits<unsigned long,ioHashString,std::less<unsigned long>,std::allocator<std::pair<unsigned long const ,ioHashString> >,0> >::_Buynode<std::pair<unsigned long const ,ioHashString> >
EXTRN	__EH_prolog3_catch:PROC
;	COMDAT xdata$x
; File c:\program files (x86)\microsoft visual studio 10.0\vc\include\xmemory
xdata$x	SEGMENT
__catchsym$??$_Buynode@U?$pair@$$CBKVioHashString@@@std@@@?$_Tree_val@V?$_Tmap_traits@KVioHashString@@U?$less@K@std@@V?$allocator@U?$pair@$$CBKVioHashString@@@std@@@3@$0A@@std@@@std@@QAEPAU_Node@?$_Tree_nod@V?$_Tmap_traits@KVioHashString@@U?$less@K@std@@V?$allocator@U?$pair@$$CBKVioHashString@@@std@@@3@$0A@@std@@@1@$$QAU?$pair@$$CBKVioHashString@@@1@@Z$2 DD 040H
	DD	00H
	DD	00H
	DD	FLAT:__catch$??$_Buynode@U?$pair@$$CBKVioHashString@@@std@@@?$_Tree_val@V?$_Tmap_traits@KVioHashString@@U?$less@K@std@@V?$allocator@U?$pair@$$CBKVioHashString@@@std@@@3@$0A@@std@@@std@@QAEPAU_Node@?$_Tree_nod@V?$_Tmap_traits@KVioHashString@@U?$less@K@std@@V?$allocator@U?$pair@$$CBKVioHashString@@@std@@@3@$0A@@std@@@1@$$QAU?$pair@$$CBKVioHashString@@@1@@Z$0
__unwindtable$??$_Buynode@U?$pair@$$CBKVioHashString@@@std@@@?$_Tree_val@V?$_Tmap_traits@KVioHashString@@U?$less@K@std@@V?$allocator@U?$pair@$$CBKVioHashString@@@std@@@3@$0A@@std@@@std@@QAEPAU_Node@?$_Tree_nod@V?$_Tmap_traits@KVioHashString@@U?$less@K@std@@V?$allocator@U?$pair@$$CBKVioHashString@@@std@@@3@$0A@@std@@@1@$$QAU?$pair@$$CBKVioHashString@@@1@@Z DD 0ffffffffH
	DD	00H
	DD	0ffffffffH
	DD	00H
__tryblocktable$??$_Buynode@U?$pair@$$CBKVioHashString@@@std@@@?$_Tree_val@V?$_Tmap_traits@KVioHashString@@U?$less@K@std@@V?$allocator@U?$pair@$$CBKVioHashString@@@std@@@3@$0A@@std@@@std@@QAEPAU_Node@?$_Tree_nod@V?$_Tmap_traits@KVioHashString@@U?$less@K@std@@V?$allocator@U?$pair@$$CBKVioHashString@@@std@@@3@$0A@@std@@@1@$$QAU?$pair@$$CBKVioHashString@@@1@@Z DD 00H
	DD	00H
	DD	01H
	DD	01H
	DD	FLAT:__catchsym$??$_Buynode@U?$pair@$$CBKVioHashString@@@std@@@?$_Tree_val@V?$_Tmap_traits@KVioHashString@@U?$less@K@std@@V?$allocator@U?$pair@$$CBKVioHashString@@@std@@@3@$0A@@std@@@std@@QAEPAU_Node@?$_Tree_nod@V?$_Tmap_traits@KVioHashString@@U?$less@K@std@@V?$allocator@U?$pair@$$CBKVioHashString@@@std@@@3@$0A@@std@@@1@$$QAU?$pair@$$CBKVioHashString@@@1@@Z$2
__ehfuncinfo$??$_Buynode@U?$pair@$$CBKVioHashString@@@std@@@?$_Tree_val@V?$_Tmap_traits@KVioHashString@@U?$less@K@std@@V?$allocator@U?$pair@$$CBKVioHashString@@@std@@@3@$0A@@std@@@std@@QAEPAU_Node@?$_Tree_nod@V?$_Tmap_traits@KVioHashString@@U?$less@K@std@@V?$allocator@U?$pair@$$CBKVioHashString@@@std@@@3@$0A@@std@@@1@$$QAU?$pair@$$CBKVioHashString@@@1@@Z DD 019930522H
	DD	02H
	DD	FLAT:__unwindtable$??$_Buynode@U?$pair@$$CBKVioHashString@@@std@@@?$_Tree_val@V?$_Tmap_traits@KVioHashString@@U?$less@K@std@@V?$allocator@U?$pair@$$CBKVioHashString@@@std@@@3@$0A@@std@@@std@@QAEPAU_Node@?$_Tree_nod@V?$_Tmap_traits@KVioHashString@@U?$less@K@std@@V?$allocator@U?$pair@$$CBKVioHashString@@@std@@@3@$0A@@std@@@1@$$QAU?$pair@$$CBKVioHashString@@@1@@Z
	DD	01H
	DD	FLAT:__tryblocktable$??$_Buynode@U?$pair@$$CBKVioHashString@@@std@@@?$_Tree_val@V?$_Tmap_traits@KVioHashString@@U?$less@K@std@@V?$allocator@U?$pair@$$CBKVioHashString@@@std@@@3@$0A@@std@@@std@@QAEPAU_Node@?$_Tree_nod@V?$_Tmap_traits@KVioHashString@@U?$less@K@std@@V?$allocator@U?$pair@$$CBKVioHashString@@@std@@@3@$0A@@std@@@1@$$QAU?$pair@$$CBKVioHashString@@@1@@Z
	DD	2 DUP(00H)
	DD	00H
	DD	01H
; Function compile flags: /Ogsp
; File c:\program files (x86)\microsoft visual studio 10.0\vc\include\xtree
xdata$x	ENDS
;	COMDAT ??$_Buynode@U?$pair@$$CBKVioHashString@@@std@@@?$_Tree_val@V?$_Tmap_traits@KVioHashString@@U?$less@K@std@@V?$allocator@U?$pair@$$CBKVioHashString@@@std@@@3@$0A@@std@@@std@@QAEPAU_Node@?$_Tree_nod@V?$_Tmap_traits@KVioHashString@@U?$less@K@std@@V?$allocator@U?$pair@$$CBKVioHashString@@@std@@@3@$0A@@std@@@1@$$QAU?$pair@$$CBKVioHashString@@@1@@Z
_TEXT	SEGMENT
__Wherenode$ = -20					; size = 4
__$EHRec$ = -16						; size = 16
__Val$ = 8						; size = 4
??$_Buynode@U?$pair@$$CBKVioHashString@@@std@@@?$_Tree_val@V?$_Tmap_traits@KVioHashString@@U?$less@K@std@@V?$allocator@U?$pair@$$CBKVioHashString@@@std@@@3@$0A@@std@@@std@@QAEPAU_Node@?$_Tree_nod@V?$_Tmap_traits@KVioHashString@@U?$less@K@std@@V?$allocator@U?$pair@$$CBKVioHashString@@@std@@@3@$0A@@std@@@1@$$QAU?$pair@$$CBKVioHashString@@@1@@Z PROC ; std::_Tree_val<std::_Tmap_traits<unsigned long,ioHashString,std::less<unsigned long>,std::allocator<std::pair<unsigned long const ,ioHashString> >,0> >::_Buynode<std::pair<unsigned long const ,ioHashString> >, COMDAT
; _this$ = ecx

; 586  : 		_Nodeptr _Buynode(_Valty&& _Val)

  00000	6a 08		 push	 8
  00002	b8 00 00 00 00	 mov	 eax, __ehhandler$??$_Buynode@U?$pair@$$CBKVioHashString@@@std@@@?$_Tree_val@V?$_Tmap_traits@KVioHashString@@U?$less@K@std@@V?$allocator@U?$pair@$$CBKVioHashString@@@std@@@3@$0A@@std@@@std@@QAEPAU_Node@?$_Tree_nod@V?$_Tmap_traits@KVioHashString@@U?$less@K@std@@V?$allocator@U?$pair@$$CBKVioHashString@@@std@@@3@$0A@@std@@@1@$$QAU?$pair@$$CBKVioHashString@@@1@@Z
  00007	e8 00 00 00 00	 call	 __EH_prolog3_catch
  0000c	8b f1		 mov	 esi, ecx

; 587  : 		{	// allocate a node with defaults
; 588  : 		_Nodeptr _Wherenode = _Buynode();

  0000e	e8 00 00 00 00	 call	 ?_Buynode@?$_Tree_val@V?$_Tmap_traits@KVioHashString@@U?$less@K@std@@V?$allocator@U?$pair@$$CBKVioHashString@@@std@@@3@$0A@@std@@@std@@QAEPAU_Node@?$_Tree_nod@V?$_Tmap_traits@KVioHashString@@U?$less@K@std@@V?$allocator@U?$pair@$$CBKVioHashString@@@std@@@3@$0A@@std@@@2@XZ ; std::_Tree_val<std::_Tmap_traits<unsigned long,ioHashString,std::less<unsigned long>,std::allocator<std::pair<unsigned long const ,ioHashString> >,0> >::_Buynode

; 589  : 
; 590  : 		_TRY_BEGIN
; 591  : 		_Cons_val(this->_Alval, _STD addressof(this->_Myval(_Wherenode)),
; 592  : 			_STD forward<_Valty>(_Val));

  00013	ff 75 08	 push	 DWORD PTR __Val$[ebp]
  00016	83 65 fc 00	 and	 DWORD PTR __$EHRec$[ebp+12], 0
  0001a	8b f8		 mov	 edi, eax
  0001c	8d 47 0c	 lea	 eax, DWORD PTR [edi+12]
  0001f	50		 push	 eax
  00020	8d 4e 0d	 lea	 ecx, DWORD PTR [esi+13]
  00023	89 7d ec	 mov	 DWORD PTR __Wherenode$[ebp], edi
  00026	e8 00 00 00 00	 call	 ?construct@?$allocator@U?$pair@$$CBKVioHashString@@@std@@@std@@QAEXPAU?$pair@$$CBKVioHashString@@@2@$$QAU32@@Z ; std::allocator<std::pair<unsigned long const ,ioHashString> >::construct

; 596  : 		_CATCH_END
; 597  : 
; 598  : 		return (_Wherenode);

  0002b	8b c7		 mov	 eax, edi

; 599  : 		}

  0002d	e8 00 00 00 00	 call	 __EH_epilog3
  00032	c2 04 00	 ret	 4
__catch$??$_Buynode@U?$pair@$$CBKVioHashString@@@std@@@?$_Tree_val@V?$_Tmap_traits@KVioHashString@@U?$less@K@std@@V?$allocator@U?$pair@$$CBKVioHashString@@@std@@@3@$0A@@std@@@std@@QAEPAU_Node@?$_Tree_nod@V?$_Tmap_traits@KVioHashString@@U?$less@K@std@@V?$allocator@U?$pair@$$CBKVioHashString@@@std@@@3@$0A@@std@@@1@$$QAU?$pair@$$CBKVioHashString@@@1@@Z$0:

; 593  : 		_CATCH_ALL
; 594  : 		this->_Alnod.deallocate(_Wherenode, 1);

  00035	ff 75 ec	 push	 DWORD PTR __Wherenode$[ebp]
  00038	e8 00 00 00 00	 call	 ??3@YAXPAX@Z		; operator delete
  0003d	59		 pop	 ecx

; 595  : 		_RERAISE;

  0003e	6a 00		 push	 0
  00040	6a 00		 push	 0
  00042	e8 00 00 00 00	 call	 __CxxThrowException@8
$LN23@Buynode@2:
$LN22@Buynode@2:
  00047	cc		 int	 3
_TEXT	ENDS
;	COMDAT text$x
text$x	SEGMENT
__ehhandler$??$_Buynode@U?$pair@$$CBKVioHashString@@@std@@@?$_Tree_val@V?$_Tmap_traits@KVioHashString@@U?$less@K@std@@V?$allocator@U?$pair@$$CBKVioHashString@@@std@@@3@$0A@@std@@@std@@QAEPAU_Node@?$_Tree_nod@V?$_Tmap_traits@KVioHashString@@U?$less@K@std@@V?$allocator@U?$pair@$$CBKVioHashString@@@std@@@3@$0A@@std@@@1@$$QAU?$pair@$$CBKVioHashString@@@1@@Z:
  00000	8b 54 24 08	 mov	 edx, DWORD PTR [esp+8]
  00004	8d 42 0c	 lea	 eax, DWORD PTR [edx+12]
  00007	8b 4a e8	 mov	 ecx, DWORD PTR [edx-24]
  0000a	33 c8		 xor	 ecx, eax
  0000c	e8 00 00 00 00	 call	 @__security_check_cookie@4
  00011	b8 00 00 00 00	 mov	 eax, OFFSET __ehfuncinfo$??$_Buynode@U?$pair@$$CBKVioHashString@@@std@@@?$_Tree_val@V?$_Tmap_traits@KVioHashString@@U?$less@K@std@@V?$allocator@U?$pair@$$CBKVioHashString@@@std@@@3@$0A@@std@@@std@@QAEPAU_Node@?$_Tree_nod@V?$_Tmap_traits@KVioHashString@@U?$less@K@std@@V?$allocator@U?$pair@$$CBKVioHashString@@@std@@@3@$0A@@std@@@1@$$QAU?$pair@$$CBKVioHashString@@@1@@Z
  00016	e9 00 00 00 00	 jmp	 ___CxxFrameHandler3
text$x	ENDS
??$_Buynode@U?$pair@$$CBKVioHashString@@@std@@@?$_Tree_val@V?$_Tmap_traits@KVioHashString@@U?$less@K@std@@V?$allocator@U?$pair@$$CBKVioHashString@@@std@@@3@$0A@@std@@@std@@QAEPAU_Node@?$_Tree_nod@V?$_Tmap_traits@KVioHashString@@U?$less@K@std@@V?$allocator@U?$pair@$$CBKVioHashString@@@std@@@3@$0A@@std@@@1@$$QAU?$pair@$$CBKVioHashString@@@1@@Z ENDP ; std::_Tree_val<std::_Tmap_traits<unsigned long,ioHashString,std::less<unsigned long>,std::allocator<std::pair<unsigned long const ,ioHashString> >,0> >::_Buynode<std::pair<unsigned long const ,ioHashString> >
PUBLIC	??1?$vector@USwingParam@@V?$allocator@USwingParam@@@std@@@std@@QAE@XZ ; std::vector<SwingParam,std::allocator<SwingParam> >::~vector<SwingParam,std::allocator<SwingParam> >
; Function compile flags: /Ogsp
; File c:\program files (x86)\microsoft visual studio 10.0\vc\include\vector
;	COMDAT ??1?$vector@USwingParam@@V?$allocator@USwingParam@@@std@@@std@@QAE@XZ
_TEXT	SEGMENT
??1?$vector@USwingParam@@V?$allocator@USwingParam@@@std@@@std@@QAE@XZ PROC ; std::vector<SwingParam,std::allocator<SwingParam> >::~vector<SwingParam,std::allocator<SwingParam> >, COMDAT
; _this$ = ecx

; 705  : 		_Tidy();

  00000	e9 00 00 00 00	 jmp	 ?_Tidy@?$vector@USwingParam@@V?$allocator@USwingParam@@@std@@@std@@IAEXXZ ; std::vector<SwingParam,std::allocator<SwingParam> >::_Tidy
??1?$vector@USwingParam@@V?$allocator@USwingParam@@@std@@@std@@QAE@XZ ENDP ; std::vector<SwingParam,std::allocator<SwingParam> >::~vector<SwingParam,std::allocator<SwingParam> >
_TEXT	ENDS
PUBLIC	?clear@?$_Tree@V?$_Tmap_traits@KVioHashString@@U?$less@K@std@@V?$allocator@U?$pair@$$CBKVioHashString@@@std@@@3@$0A@@std@@@std@@QAEXXZ ; std::_Tree<std::_Tmap_traits<unsigned long,ioHashString,std::less<unsigned long>,std::allocator<std::pair<unsigned long const ,ioHashString> >,0> >::clear
; Function compile flags: /Ogsp
; File c:\program files (x86)\microsoft visual studio 10.0\vc\include\xtree
;	COMDAT ?clear@?$_Tree@V?$_Tmap_traits@KVioHashString@@U?$less@K@std@@V?$allocator@U?$pair@$$CBKVioHashString@@@std@@@3@$0A@@std@@@std@@QAEXXZ
_TEXT	SEGMENT
?clear@?$_Tree@V?$_Tmap_traits@KVioHashString@@U?$less@K@std@@V?$allocator@U?$pair@$$CBKVioHashString@@@std@@@3@$0A@@std@@@std@@QAEXXZ PROC ; std::_Tree<std::_Tmap_traits<unsigned long,ioHashString,std::less<unsigned long>,std::allocator<std::pair<unsigned long const ,ioHashString> >,0> >::clear, COMDAT
; _this$ = ecx

; 1410 : 		{	// erase all

  00000	56		 push	 esi
  00001	57		 push	 edi
  00002	8b f9		 mov	 edi, ecx

; 1411 :  #if _ITERATOR_DEBUG_LEVEL == 2
; 1412 : 		this->_Orphan_ptr(*this, 0);
; 1413 :  #endif /* _ITERATOR_DEBUG_LEVEL == 2 */
; 1414 : 
; 1415 : 		_Erase(_Root());

  00004	8b 47 04	 mov	 eax, DWORD PTR [edi+4]
  00007	ff 70 04	 push	 DWORD PTR [eax+4]
  0000a	e8 00 00 00 00	 call	 ?_Erase@?$_Tree@V?$_Tmap_traits@KVioHashString@@U?$less@K@std@@V?$allocator@U?$pair@$$CBKVioHashString@@@std@@@3@$0A@@std@@@std@@IAEXPAU_Node@?$_Tree_nod@V?$_Tmap_traits@KVioHashString@@U?$less@K@std@@V?$allocator@U?$pair@$$CBKVioHashString@@@std@@@3@$0A@@std@@@2@@Z ; std::_Tree<std::_Tmap_traits<unsigned long,ioHashString,std::less<unsigned long>,std::allocator<std::pair<unsigned long const ,ioHashString> >,0> >::_Erase

; 1416 : 		_Root() = this->_Myhead;

  0000f	8b 47 04	 mov	 eax, DWORD PTR [edi+4]
  00012	89 40 04	 mov	 DWORD PTR [eax+4], eax

; 1417 : 		_Lmost() = this->_Myhead;

  00015	8b 47 04	 mov	 eax, DWORD PTR [edi+4]
  00018	89 00		 mov	 DWORD PTR [eax], eax

; 1418 : 		_Rmost() = this->_Myhead;

  0001a	8b 77 04	 mov	 esi, DWORD PTR [edi+4]
  0001d	89 76 08	 mov	 DWORD PTR [esi+8], esi

; 1419 : 		this->_Mysize = 0;

  00020	83 67 08 00	 and	 DWORD PTR [edi+8], 0
  00024	5f		 pop	 edi
  00025	5e		 pop	 esi

; 1420 : 		}

  00026	c3		 ret	 0
?clear@?$_Tree@V?$_Tmap_traits@KVioHashString@@U?$less@K@std@@V?$allocator@U?$pair@$$CBKVioHashString@@@std@@@3@$0A@@std@@@std@@QAEXXZ ENDP ; std::_Tree<std::_Tmap_traits<unsigned long,ioHashString,std::less<unsigned long>,std::allocator<std::pair<unsigned long const ,ioHashString> >,0> >::clear
_TEXT	ENDS
PUBLIC	?clear@?$vector@USwingParam@@V?$allocator@USwingParam@@@std@@@std@@QAEXXZ ; std::vector<SwingParam,std::allocator<SwingParam> >::clear
; Function compile flags: /Ogsp
; File c:\program files (x86)\microsoft visual studio 10.0\vc\include\vector
;	COMDAT ?clear@?$vector@USwingParam@@V?$allocator@USwingParam@@@std@@@std@@QAEXXZ
_TEXT	SEGMENT
$T531995 = -4						; size = 4
?clear@?$vector@USwingParam@@V?$allocator@USwingParam@@@std@@@std@@QAEXXZ PROC ; std::vector<SwingParam,std::allocator<SwingParam> >::clear, COMDAT
; _this$ = ecx

; 1217 : 		{	// erase all

  00000	55		 push	 ebp
  00001	8b ec		 mov	 ebp, esp
  00003	51		 push	 ecx

; 1218 : 		erase(begin(), end());

  00004	8b 41 04	 mov	 eax, DWORD PTR [ecx+4]
  00007	8b 11		 mov	 edx, DWORD PTR [ecx]
  00009	50		 push	 eax
  0000a	52		 push	 edx
  0000b	8d 45 fc	 lea	 eax, DWORD PTR $T531995[ebp]
  0000e	50		 push	 eax
  0000f	e8 00 00 00 00	 call	 ?erase@?$vector@USwingParam@@V?$allocator@USwingParam@@@std@@@std@@QAE?AV?$_Vector_iterator@V?$_Vector_val@USwingParam@@V?$allocator@USwingParam@@@std@@@std@@@2@V?$_Vector_const_iterator@V?$_Vector_val@USwingParam@@V?$allocator@USwingParam@@@std@@@std@@@2@0@Z ; std::vector<SwingParam,std::allocator<SwingParam> >::erase

; 1219 : 		}

  00014	c9		 leave
  00015	c3		 ret	 0
?clear@?$vector@USwingParam@@V?$allocator@USwingParam@@@std@@@std@@QAEXXZ ENDP ; std::vector<SwingParam,std::allocator<SwingParam> >::clear
_TEXT	ENDS
PUBLIC	?reserve@?$vector@USwingParam@@V?$allocator@USwingParam@@@std@@@std@@QAEXI@Z ; std::vector<SwingParam,std::allocator<SwingParam> >::reserve
;	COMDAT xdata$x
; File c:\program files (x86)\microsoft visual studio 10.0\vc\include\xmemory
xdata$x	SEGMENT
__catchsym$?reserve@?$vector@USwingParam@@V?$allocator@USwingParam@@@std@@@std@@QAEXI@Z$2 DD 040H
	DD	00H
	DD	00H
	DD	FLAT:__catch$?reserve@?$vector@USwingParam@@V?$allocator@USwingParam@@@std@@@std@@QAEXI@Z$0
__unwindtable$?reserve@?$vector@USwingParam@@V?$allocator@USwingParam@@@std@@@std@@QAEXI@Z DD 0ffffffffH
	DD	00H
	DD	0ffffffffH
	DD	00H
__tryblocktable$?reserve@?$vector@USwingParam@@V?$allocator@USwingParam@@@std@@@std@@QAEXI@Z DD 00H
	DD	00H
	DD	01H
	DD	01H
	DD	FLAT:__catchsym$?reserve@?$vector@USwingParam@@V?$allocator@USwingParam@@@std@@@std@@QAEXI@Z$2
__ehfuncinfo$?reserve@?$vector@USwingParam@@V?$allocator@USwingParam@@@std@@@std@@QAEXI@Z DD 019930522H
	DD	02H
	DD	FLAT:__unwindtable$?reserve@?$vector@USwingParam@@V?$allocator@USwingParam@@@std@@@std@@QAEXI@Z
	DD	01H
	DD	FLAT:__tryblocktable$?reserve@?$vector@USwingParam@@V?$allocator@USwingParam@@@std@@@std@@QAEXI@Z
	DD	2 DUP(00H)
	DD	00H
	DD	01H
; Function compile flags: /Ogsp
; File c:\program files (x86)\microsoft visual studio 10.0\vc\include\vector
xdata$x	ENDS
;	COMDAT ?reserve@?$vector@USwingParam@@V?$allocator@USwingParam@@@std@@@std@@QAEXI@Z
_TEXT	SEGMENT
__$EHRec$ = -16						; size = 16
__Ptr$525153 = 8					; size = 4
__Count$ = 8						; size = 4
?reserve@?$vector@USwingParam@@V?$allocator@USwingParam@@@std@@@std@@QAEXI@Z PROC ; std::vector<SwingParam,std::allocator<SwingParam> >::reserve, COMDAT
; _this$ = ecx

; 746  : 		{	// determine new minimum length of allocated storage

  00000	6a 04		 push	 4
  00002	b8 00 00 00 00	 mov	 eax, __ehhandler$?reserve@?$vector@USwingParam@@V?$allocator@USwingParam@@@std@@@std@@QAEXI@Z
  00007	e8 00 00 00 00	 call	 __EH_prolog3_catch
  0000c	8b f1		 mov	 esi, ecx

; 747  : 		if (max_size() < _Count)

  0000e	8b 5d 08	 mov	 ebx, DWORD PTR __Count$[ebp]
  00011	81 fb ff ff ff
	0f		 cmp	 ebx, 268435455		; 0fffffffH
  00017	76 0b		 jbe	 SHORT $LN5@reserve

; 748  : 			_Xlen();	// result too long

  00019	68 00 00 00 00	 push	 OFFSET ??_C@_0BD@OLBABOEK@vector?$DMT?$DO?5too?5long?$AA@
  0001e	ff 15 00 00 00
	00		 call	 DWORD PTR __imp_?_Xlength_error@std@@YAXPBD@Z
$LN56@reserve:
$LN5@reserve:

; 749  : 		else if (capacity() < _Count)

  00024	8b 46 08	 mov	 eax, DWORD PTR [esi+8]
  00027	2b 06		 sub	 eax, DWORD PTR [esi]
  00029	c1 f8 04	 sar	 eax, 4
  0002c	3b c3		 cmp	 eax, ebx
  0002e	73 64		 jae	 SHORT $LN3@reserve

; 750  : 			{	// not enough room, reallocate
; 751  : 			pointer _Ptr = this->_Alval.allocate(_Count);

  00030	6a 00		 push	 0
  00032	53		 push	 ebx
  00033	e8 00 00 00 00	 call	 ??$_Allocate@USwingParam@@@std@@YAPAUSwingParam@@IPAU1@@Z ; std::_Allocate<SwingParam>

; 752  : 
; 753  : 			_TRY_BEGIN
; 754  : 			_Umove(this->_Myfirst, this->_Mylast, _Ptr);

  00038	8b 0e		 mov	 ecx, DWORD PTR [esi]
  0003a	83 65 fc 00	 and	 DWORD PTR __$EHRec$[ebp+12], 0
  0003e	8d 56 0c	 lea	 edx, DWORD PTR [esi+12]
  00041	52		 push	 edx
  00042	89 45 08	 mov	 DWORD PTR __Ptr$525153[ebp], eax
  00045	ff 75 08	 push	 DWORD PTR __Ptr$525153[ebp]
  00048	8b 46 04	 mov	 eax, DWORD PTR [esi+4]
  0004b	50		 push	 eax
  0004c	51		 push	 ecx
  0004d	e8 00 00 00 00	 call	 ??$_Uninitialized_move@PAUSwingParam@@PAU1@V?$allocator@USwingParam@@@std@@@std@@YAPAUSwingParam@@PAU1@00AAV?$allocator@USwingParam@@@0@@Z ; std::_Uninitialized_move<SwingParam *,SwingParam *,std::allocator<SwingParam> >

; 758  : 			_CATCH_END
; 759  : 
; 760  : 			size_type _Size = size();

  00052	8b 4e 04	 mov	 ecx, DWORD PTR [esi+4]
  00055	8b 06		 mov	 eax, DWORD PTR [esi]
  00057	83 4d fc ff	 or	 DWORD PTR __$EHRec$[ebp+12], -1
  0005b	8b f9		 mov	 edi, ecx
  0005d	83 c4 18	 add	 esp, 24			; 00000018H
  00060	2b f8		 sub	 edi, eax
  00062	85 c0		 test	 eax, eax
  00064	74 11		 je	 SHORT $LN48@reserve

; 761  : 			if (this->_Myfirst != 0)

  00066	eb 03		 jmp	 SHORT $LN55@reserve

; 762  : 				{	// destroy and deallocate old array
; 763  : 				_Destroy(this->_Myfirst, this->_Mylast);

$LL39@reserve:
  00068	83 c0 10	 add	 eax, 16			; 00000010H
$LN55@reserve:
  0006b	3b c1		 cmp	 eax, ecx
  0006d	75 f9		 jne	 SHORT $LL39@reserve

; 764  : 				this->_Alval.deallocate(this->_Myfirst,
; 765  : 					this->_Myend - this->_Myfirst);

  0006f	ff 36		 push	 DWORD PTR [esi]
  00071	e8 00 00 00 00	 call	 ??3@YAXPAX@Z		; operator delete
  00076	59		 pop	 ecx
$LN48@reserve:

; 766  : 				}
; 767  : 
; 768  : 			this->_Orphan_all();

  00077	8b ce		 mov	 ecx, esi
  00079	ff 15 00 00 00
	00		 call	 DWORD PTR __imp_?_Orphan_all@_Container_base0@std@@QAEXXZ

; 769  : 			this->_Myend = _Ptr + _Count;

  0007f	8b 45 08	 mov	 eax, DWORD PTR __Ptr$525153[ebp]
  00082	c1 e3 04	 shl	 ebx, 4
  00085	03 d8		 add	 ebx, eax

; 770  : 			this->_Mylast = _Ptr + _Size;

  00087	83 e7 f0	 and	 edi, -16		; fffffff0H
  0008a	03 f8		 add	 edi, eax
  0008c	89 5e 08	 mov	 DWORD PTR [esi+8], ebx
  0008f	89 7e 04	 mov	 DWORD PTR [esi+4], edi

; 771  : 			this->_Myfirst = _Ptr;

  00092	89 06		 mov	 DWORD PTR [esi], eax
$LN3@reserve:

; 772  : 			}
; 773  : 		}

  00094	e8 00 00 00 00	 call	 __EH_epilog3
  00099	c2 04 00	 ret	 4
__catch$?reserve@?$vector@USwingParam@@V?$allocator@USwingParam@@@std@@@std@@QAEXI@Z$0:

; 755  : 			_CATCH_ALL
; 756  : 			this->_Alval.deallocate(_Ptr, _Count);

  0009c	ff 75 08	 push	 DWORD PTR __Ptr$525153[ebp]
  0009f	e8 00 00 00 00	 call	 ??3@YAXPAX@Z		; operator delete
  000a4	59		 pop	 ecx

; 757  : 			_RERAISE;

  000a5	6a 00		 push	 0
  000a7	6a 00		 push	 0
  000a9	e8 00 00 00 00	 call	 __CxxThrowException@8
$LN57@reserve:
$LN54@reserve:
  000ae	cc		 int	 3
_TEXT	ENDS
;	COMDAT text$x
text$x	SEGMENT
__ehhandler$?reserve@?$vector@USwingParam@@V?$allocator@USwingParam@@@std@@@std@@QAEXI@Z:
  00000	8b 54 24 08	 mov	 edx, DWORD PTR [esp+8]
  00004	8d 42 0c	 lea	 eax, DWORD PTR [edx+12]
  00007	8b 4a ec	 mov	 ecx, DWORD PTR [edx-20]
  0000a	33 c8		 xor	 ecx, eax
  0000c	e8 00 00 00 00	 call	 @__security_check_cookie@4
  00011	b8 00 00 00 00	 mov	 eax, OFFSET __ehfuncinfo$?reserve@?$vector@USwingParam@@V?$allocator@USwingParam@@@std@@@std@@QAEXI@Z
  00016	e9 00 00 00 00	 jmp	 ___CxxFrameHandler3
text$x	ENDS
?reserve@?$vector@USwingParam@@V?$allocator@USwingParam@@@std@@@std@@QAEXI@Z ENDP ; std::vector<SwingParam,std::allocator<SwingParam> >::reserve
PUBLIC	?erase@?$_Tree@V?$_Tmap_traits@KVioHashString@@U?$less@K@std@@V?$allocator@U?$pair@$$CBKVioHashString@@@std@@@3@$0A@@std@@@std@@QAE?AV?$_Tree_iterator@V?$_Tree_val@V?$_Tmap_traits@KVioHashString@@U?$less@K@std@@V?$allocator@U?$pair@$$CBKVioHashString@@@std@@@3@$0A@@std@@@std@@@2@V?$_Tree_const_iterator@V?$_Tree_val@V?$_Tmap_traits@KVioHashString@@U?$less@K@std@@V?$allocator@U?$pair@$$CBKVioHashString@@@std@@@3@$0A@@std@@@std@@@2@0@Z ; std::_Tree<std::_Tmap_traits<unsigned long,ioHashString,std::less<unsigned long>,std::allocator<std::pair<unsigned long const ,ioHashString> >,0> >::erase
; Function compile flags: /Ogsp
; File c:\program files (x86)\microsoft visual studio 10.0\vc\include\xtree
;	COMDAT ?erase@?$_Tree@V?$_Tmap_traits@KVioHashString@@U?$less@K@std@@V?$allocator@U?$pair@$$CBKVioHashString@@@std@@@3@$0A@@std@@@std@@QAE?AV?$_Tree_iterator@V?$_Tree_val@V?$_Tmap_traits@KVioHashString@@U?$less@K@std@@V?$allocator@U?$pair@$$CBKVioHashString@@@std@@@3@$0A@@std@@@std@@@2@V?$_Tree_const_iterator@V?$_Tree_val@V?$_Tmap_traits@KVioHashString@@U?$less@K@std@@V?$allocator@U?$pair@$$CBKVioHashString@@@std@@@3@$0A@@std@@@std@@@2@0@Z
_TEXT	SEGMENT
$T532185 = -4						; size = 4
___$ReturnUdt$ = 8					; size = 4
__First$ = 12						; size = 4
__Last$ = 16						; size = 4
?erase@?$_Tree@V?$_Tmap_traits@KVioHashString@@U?$less@K@std@@V?$allocator@U?$pair@$$CBKVioHashString@@@std@@@3@$0A@@std@@@std@@QAE?AV?$_Tree_iterator@V?$_Tree_val@V?$_Tmap_traits@KVioHashString@@U?$less@K@std@@V?$allocator@U?$pair@$$CBKVioHashString@@@std@@@3@$0A@@std@@@std@@@2@V?$_Tree_const_iterator@V?$_Tree_val@V?$_Tmap_traits@KVioHashString@@U?$less@K@std@@V?$allocator@U?$pair@$$CBKVioHashString@@@std@@@3@$0A@@std@@@std@@@2@0@Z PROC ; std::_Tree<std::_Tmap_traits<unsigned long,ioHashString,std::less<unsigned long>,std::allocator<std::pair<unsigned long const ,ioHashString> >,0> >::erase, COMDAT
; _this$ = ecx

; 1379 : 		{	// erase [_First, _Last)

  00000	55		 push	 ebp
  00001	8b ec		 mov	 ebp, esp
  00003	51		 push	 ecx
  00004	56		 push	 esi
  00005	8b f1		 mov	 esi, ecx

; 1380 : 		if (_First == begin() && _Last == end())

  00007	8b 46 04	 mov	 eax, DWORD PTR [esi+4]
  0000a	8b 4d 0c	 mov	 ecx, DWORD PTR __First$[ebp]
  0000d	3b 08		 cmp	 ecx, DWORD PTR [eax]
  0000f	75 13		 jne	 SHORT $LN65@erase@3
  00011	39 45 10	 cmp	 DWORD PTR __Last$[ebp], eax
  00014	75 0e		 jne	 SHORT $LN65@erase@3

; 1381 : 			{	// erase all
; 1382 : 			clear();

  00016	8b ce		 mov	 ecx, esi
  00018	e8 00 00 00 00	 call	 ?clear@?$_Tree@V?$_Tmap_traits@KVioHashString@@U?$less@K@std@@V?$allocator@U?$pair@$$CBKVioHashString@@@std@@@3@$0A@@std@@@std@@QAEXXZ ; std::_Tree<std::_Tmap_traits<unsigned long,ioHashString,std::less<unsigned long>,std::allocator<std::pair<unsigned long const ,ioHashString> >,0> >::clear

; 1383 : 			return (begin());

  0001d	8b 46 04	 mov	 eax, DWORD PTR [esi+4]
  00020	8b 08		 mov	 ecx, DWORD PTR [eax]
  00022	eb 25		 jmp	 SHORT $LN1@erase@3
$LN65@erase@3:

; 1384 : 			}
; 1385 : 		else
; 1386 : 			{	// partial erase, one at a time
; 1387 : 			while (_First != _Last)

  00024	3b 4d 10	 cmp	 ecx, DWORD PTR __Last$[ebp]
  00027	74 20		 je	 SHORT $LN1@erase@3
  00029	57		 push	 edi
$LL2@erase@3:

; 1388 : 				erase(_First++);

  0002a	8b f9		 mov	 edi, ecx
  0002c	8d 4d 0c	 lea	 ecx, DWORD PTR __First$[ebp]
  0002f	e8 00 00 00 00	 call	 ??E?$_Tree_unchecked_const_iterator@V?$_Tree_val@V?$_Tmap_traits@KVioHashString@@U?$less@K@std@@V?$allocator@U?$pair@$$CBKVioHashString@@@std@@@3@$0A@@std@@@std@@U_Iterator_base0@2@@std@@QAEAAV01@XZ ; std::_Tree_unchecked_const_iterator<std::_Tree_val<std::_Tmap_traits<unsigned long,ioHashString,std::less<unsigned long>,std::allocator<std::pair<unsigned long const ,ioHashString> >,0> >,std::_Iterator_base0>::operator++
  00034	57		 push	 edi
  00035	8d 45 fc	 lea	 eax, DWORD PTR $T532185[ebp]
  00038	50		 push	 eax
  00039	8b ce		 mov	 ecx, esi
  0003b	e8 00 00 00 00	 call	 ?erase@?$_Tree@V?$_Tmap_traits@KVioHashString@@U?$less@K@std@@V?$allocator@U?$pair@$$CBKVioHashString@@@std@@@3@$0A@@std@@@std@@QAE?AV?$_Tree_iterator@V?$_Tree_val@V?$_Tmap_traits@KVioHashString@@U?$less@K@std@@V?$allocator@U?$pair@$$CBKVioHashString@@@std@@@3@$0A@@std@@@std@@@2@V?$_Tree_const_iterator@V?$_Tree_val@V?$_Tmap_traits@KVioHashString@@U?$less@K@std@@V?$allocator@U?$pair@$$CBKVioHashString@@@std@@@3@$0A@@std@@@std@@@2@@Z ; std::_Tree<std::_Tmap_traits<unsigned long,ioHashString,std::less<unsigned long>,std::allocator<std::pair<unsigned long const ,ioHashString> >,0> >::erase
  00040	8b 4d 0c	 mov	 ecx, DWORD PTR __First$[ebp]
  00043	3b 4d 10	 cmp	 ecx, DWORD PTR __Last$[ebp]
  00046	75 e2		 jne	 SHORT $LL2@erase@3
  00048	5f		 pop	 edi
$LN1@erase@3:

; 1389 : 			return (iterator(_First._Ptr, this));

  00049	8b 45 08	 mov	 eax, DWORD PTR ___$ReturnUdt$[ebp]
  0004c	89 08		 mov	 DWORD PTR [eax], ecx
  0004e	5e		 pop	 esi

; 1390 : 			}
; 1391 : 		}

  0004f	c9		 leave
  00050	c2 0c 00	 ret	 12			; 0000000cH
?erase@?$_Tree@V?$_Tmap_traits@KVioHashString@@U?$less@K@std@@V?$allocator@U?$pair@$$CBKVioHashString@@@std@@@3@$0A@@std@@@std@@QAE?AV?$_Tree_iterator@V?$_Tree_val@V?$_Tmap_traits@KVioHashString@@U?$less@K@std@@V?$allocator@U?$pair@$$CBKVioHashString@@@std@@@3@$0A@@std@@@std@@@2@V?$_Tree_const_iterator@V?$_Tree_val@V?$_Tmap_traits@KVioHashString@@U?$less@K@std@@V?$allocator@U?$pair@$$CBKVioHashString@@@std@@@3@$0A@@std@@@std@@@2@0@Z ENDP ; std::_Tree<std::_Tmap_traits<unsigned long,ioHashString,std::less<unsigned long>,std::allocator<std::pair<unsigned long const ,ioHashString> >,0> >::erase
_TEXT	ENDS
PUBLIC	??$insert@U?$pair@$$CBKVioHashString@@@std@@@?$_Tree@V?$_Tmap_traits@KVioHashString@@U?$less@K@std@@V?$allocator@U?$pair@$$CBKVioHashString@@@std@@@3@$0A@@std@@@std@@QAE?AU?$pair@V?$_Tree_iterator@V?$_Tree_val@V?$_Tmap_traits@KVioHashString@@U?$less@K@std@@V?$allocator@U?$pair@$$CBKVioHashString@@@std@@@3@$0A@@std@@@std@@@std@@_N@1@$$QAU?$pair@$$CBKVioHashString@@@1@@Z ; std::_Tree<std::_Tmap_traits<unsigned long,ioHashString,std::less<unsigned long>,std::allocator<std::pair<unsigned long const ,ioHashString> >,0> >::insert<std::pair<unsigned long const ,ioHashString> >
; Function compile flags: /Ogsp
;	COMDAT ??$insert@U?$pair@$$CBKVioHashString@@@std@@@?$_Tree@V?$_Tmap_traits@KVioHashString@@U?$less@K@std@@V?$allocator@U?$pair@$$CBKVioHashString@@@std@@@3@$0A@@std@@@std@@QAE?AU?$pair@V?$_Tree_iterator@V?$_Tree_val@V?$_Tmap_traits@KVioHashString@@U?$less@K@std@@V?$allocator@U?$pair@$$CBKVioHashString@@@std@@@3@$0A@@std@@@std@@@std@@_N@1@$$QAU?$pair@$$CBKVioHashString@@@1@@Z
_TEXT	SEGMENT
___$ReturnUdt$ = 8					; size = 4
__Val$ = 12						; size = 4
??$insert@U?$pair@$$CBKVioHashString@@@std@@@?$_Tree@V?$_Tmap_traits@KVioHashString@@U?$less@K@std@@V?$allocator@U?$pair@$$CBKVioHashString@@@std@@@3@$0A@@std@@@std@@QAE?AU?$pair@V?$_Tree_iterator@V?$_Tree_val@V?$_Tmap_traits@KVioHashString@@U?$less@K@std@@V?$allocator@U?$pair@$$CBKVioHashString@@@std@@@3@$0A@@std@@@std@@@std@@_N@1@$$QAU?$pair@$$CBKVioHashString@@@1@@Z PROC ; std::_Tree<std::_Tmap_traits<unsigned long,ioHashString,std::less<unsigned long>,std::allocator<std::pair<unsigned long const ,ioHashString> >,0> >::insert<std::pair<unsigned long const ,ioHashString> >, COMDAT
; _this$ = ecx

; 753  : 		_Pairib insert(_Valty&& _Val)

  00000	55		 push	 ebp
  00001	8b ec		 mov	 ebp, esp
  00003	56		 push	 esi

; 754  : 		{	// try to insert node with value _Val, favoring right side
; 755  : 		return (_Linsert(this->_Buynode(_STD forward<_Valty>(_Val)),
; 756  : 			false));

  00004	6a 00		 push	 0
  00006	ff 75 0c	 push	 DWORD PTR __Val$[ebp]
  00009	8b f1		 mov	 esi, ecx
  0000b	e8 00 00 00 00	 call	 ??$_Buynode@U?$pair@$$CBKVioHashString@@@std@@@?$_Tree_val@V?$_Tmap_traits@KVioHashString@@U?$less@K@std@@V?$allocator@U?$pair@$$CBKVioHashString@@@std@@@3@$0A@@std@@@std@@QAEPAU_Node@?$_Tree_nod@V?$_Tmap_traits@KVioHashString@@U?$less@K@std@@V?$allocator@U?$pair@$$CBKVioHashString@@@std@@@3@$0A@@std@@@1@$$QAU?$pair@$$CBKVioHashString@@@1@@Z ; std::_Tree_val<std::_Tmap_traits<unsigned long,ioHashString,std::less<unsigned long>,std::allocator<std::pair<unsigned long const ,ioHashString> >,0> >::_Buynode<std::pair<unsigned long const ,ioHashString> >
  00010	50		 push	 eax
  00011	ff 75 08	 push	 DWORD PTR ___$ReturnUdt$[ebp]
  00014	8b ce		 mov	 ecx, esi
  00016	e8 00 00 00 00	 call	 ?_Linsert@?$_Tree@V?$_Tmap_traits@KVioHashString@@U?$less@K@std@@V?$allocator@U?$pair@$$CBKVioHashString@@@std@@@3@$0A@@std@@@std@@QAE?AU?$pair@V?$_Tree_iterator@V?$_Tree_val@V?$_Tmap_traits@KVioHashString@@U?$less@K@std@@V?$allocator@U?$pair@$$CBKVioHashString@@@std@@@3@$0A@@std@@@std@@@std@@_N@2@PAU_Node@?$_Tree_nod@V?$_Tmap_traits@KVioHashString@@U?$less@K@std@@V?$allocator@U?$pair@$$CBKVioHashString@@@std@@@3@$0A@@std@@@2@_N@Z ; std::_Tree<std::_Tmap_traits<unsigned long,ioHashString,std::less<unsigned long>,std::allocator<std::pair<unsigned long const ,ioHashString> >,0> >::_Linsert
  0001b	8b 45 08	 mov	 eax, DWORD PTR ___$ReturnUdt$[ebp]
  0001e	5e		 pop	 esi

; 757  : 		}

  0001f	5d		 pop	 ebp
  00020	c2 08 00	 ret	 8
??$insert@U?$pair@$$CBKVioHashString@@@std@@@?$_Tree@V?$_Tmap_traits@KVioHashString@@U?$less@K@std@@V?$allocator@U?$pair@$$CBKVioHashString@@@std@@@3@$0A@@std@@@std@@QAE?AU?$pair@V?$_Tree_iterator@V?$_Tree_val@V?$_Tmap_traits@KVioHashString@@U?$less@K@std@@V?$allocator@U?$pair@$$CBKVioHashString@@@std@@@3@$0A@@std@@@std@@@std@@_N@1@$$QAU?$pair@$$CBKVioHashString@@@1@@Z ENDP ; std::_Tree<std::_Tmap_traits<unsigned long,ioHashString,std::less<unsigned long>,std::allocator<std::pair<unsigned long const ,ioHashString> >,0> >::insert<std::pair<unsigned long const ,ioHashString> >
_TEXT	ENDS
PUBLIC	??0RopeSpringParam@@QAE@XZ			; RopeSpringParam::RopeSpringParam
; Function compile flags: /Ogsp
;	COMDAT ??0RopeSpringParam@@QAE@XZ
_TEXT	SEGMENT
??0RopeSpringParam@@QAE@XZ PROC				; RopeSpringParam::RopeSpringParam, COMDAT
; _this$ = ecx
  00000	8b c1		 mov	 eax, ecx
  00002	33 c9		 xor	 ecx, ecx
  00004	89 48 14	 mov	 DWORD PTR [eax+20], ecx
  00007	89 48 18	 mov	 DWORD PTR [eax+24], ecx
  0000a	89 48 1c	 mov	 DWORD PTR [eax+28], ecx
  0000d	c3		 ret	 0
??0RopeSpringParam@@QAE@XZ ENDP				; RopeSpringParam::RopeSpringParam
_TEXT	ENDS
PUBLIC	??1RopeSpringParam@@QAE@XZ			; RopeSpringParam::~RopeSpringParam
; Function compile flags: /Ogsp
;	COMDAT ??1RopeSpringParam@@QAE@XZ
_TEXT	SEGMENT
??1RopeSpringParam@@QAE@XZ PROC				; RopeSpringParam::~RopeSpringParam, COMDAT
; _this$ = ecx
  00000	83 c1 14	 add	 ecx, 20			; 00000014H
  00003	e9 00 00 00 00	 jmp	 ?_Tidy@?$vector@USwingParam@@V?$allocator@USwingParam@@@std@@@std@@IAEXXZ ; std::vector<SwingParam,std::allocator<SwingParam> >::_Tidy
??1RopeSpringParam@@QAE@XZ ENDP				; RopeSpringParam::~RopeSpringParam
_TEXT	ENDS
PUBLIC	??4?$vector@USwingParam@@V?$allocator@USwingParam@@@std@@@std@@QAEAAV01@ABV01@@Z ; std::vector<SwingParam,std::allocator<SwingParam> >::operator=
; Function compile flags: /Ogsp
; File c:\program files (x86)\microsoft visual studio 10.0\vc\include\vector
;	COMDAT ??4?$vector@USwingParam@@V?$allocator@USwingParam@@@std@@@std@@QAEAAV01@ABV01@@Z
_TEXT	SEGMENT
__Cat$532740 = 8					; size = 1
__Cat$532637 = 8					; size = 1
__Cat$532615 = 8					; size = 1
__Cat$532517 = 8					; size = 1
$T532484 = 8						; size = 4
__Right$ = 8						; size = 4
??4?$vector@USwingParam@@V?$allocator@USwingParam@@@std@@@std@@QAEAAV01@ABV01@@Z PROC ; std::vector<SwingParam,std::allocator<SwingParam> >::operator=, COMDAT
; _this$ = ecx

; 709  : 		{	// assign _Right

  00000	55		 push	 ebp
  00001	8b ec		 mov	 ebp, esp
  00003	56		 push	 esi
  00004	57		 push	 edi

; 710  : 		if (this != &_Right)

  00005	8b 7d 08	 mov	 edi, DWORD PTR __Right$[ebp]
  00008	8b f1		 mov	 esi, ecx
  0000a	3b f7		 cmp	 esi, edi
  0000c	0f 84 c6 00 00
	00		 je	 $LN1@operator@4

; 711  : 			{	// worth doing
; 712  : 			this->_Orphan_all();

  00012	53		 push	 ebx
  00013	ff 15 00 00 00
	00		 call	 DWORD PTR __imp_?_Orphan_all@_Container_base0@std@@QAEXXZ

; 713  : 
; 714  : 			if (_Right.size() == 0)

  00019	8b 5f 04	 mov	 ebx, DWORD PTR [edi+4]

; 715  : 				clear();	// new sequence empty, erase existing sequence

  0001c	8b 46 04	 mov	 eax, DWORD PTR [esi+4]
  0001f	8b cb		 mov	 ecx, ebx
  00021	2b 0f		 sub	 ecx, DWORD PTR [edi]
  00023	c1 f9 04	 sar	 ecx, 4
  00026	85 c9		 test	 ecx, ecx
  00028	75 14		 jne	 SHORT $LN8@operator@4
  0002a	8b 0e		 mov	 ecx, DWORD PTR [esi]
  0002c	50		 push	 eax
  0002d	51		 push	 ecx
  0002e	8d 45 08	 lea	 eax, DWORD PTR $T532484[ebp]
  00031	50		 push	 eax
  00032	8b ce		 mov	 ecx, esi
  00034	e8 00 00 00 00	 call	 ?erase@?$vector@USwingParam@@V?$allocator@USwingParam@@@std@@@std@@QAE?AV?$_Vector_iterator@V?$_Vector_val@USwingParam@@V?$allocator@USwingParam@@@std@@@std@@@2@V?$_Vector_const_iterator@V?$_Vector_val@USwingParam@@V?$allocator@USwingParam@@@std@@@std@@@2@0@Z ; std::vector<SwingParam,std::allocator<SwingParam> >::erase

; 716  : 			else if (_Right.size() <= size())

  00039	e9 99 00 00 00	 jmp	 $LN106@operator@4
$LN8@operator@4:
  0003e	8b 16		 mov	 edx, DWORD PTR [esi]
  00040	2b c2		 sub	 eax, edx
  00042	c1 f8 04	 sar	 eax, 4
  00045	3b c8		 cmp	 ecx, eax
  00047	77 1b		 ja	 SHORT $LN6@operator@4

; 717  : 				{	// enough elements, copy new and destroy old
; 718  : 				pointer _Ptr = _STD _Copy_impl(_Right._Myfirst, _Right._Mylast,
; 719  : 					this->_Myfirst);	// copy new

  00049	ff 75 08	 push	 DWORD PTR __Cat$532517[ebp]
  0004c	52		 push	 edx
  0004d	53		 push	 ebx
  0004e	ff 37		 push	 DWORD PTR [edi]
  00050	e8 00 00 00 00	 call	 ??$_Copy_impl@PAUSwingParam@@PAU1@@std@@YAPAUSwingParam@@PAU1@00U_Nonscalar_ptr_iterator_tag@0@@Z ; std::_Copy_impl<SwingParam *,SwingParam *>

; 720  : 				_Destroy(_Ptr, this->_Mylast);	// destroy old
; 721  : 				this->_Mylast = this->_Myfirst + _Right.size();

  00055	8b 47 04	 mov	 eax, DWORD PTR [edi+4]
  00058	2b 07		 sub	 eax, DWORD PTR [edi]
  0005a	83 c4 10	 add	 esp, 16			; 00000010H
  0005d	83 e0 f0	 and	 eax, -16		; fffffff0H
  00060	03 06		 add	 eax, DWORD PTR [esi]

; 722  : 				}
; 723  : 			else if (_Right.size() <= capacity())

  00062	eb 70		 jmp	 SHORT $LN107@operator@4
$LN6@operator@4:
  00064	8b 5e 08	 mov	 ebx, DWORD PTR [esi+8]
  00067	2b da		 sub	 ebx, edx
  00069	c1 fb 04	 sar	 ebx, 4
  0006c	3b cb		 cmp	 ecx, ebx
  0006e	77 2c		 ja	 SHORT $LN4@operator@4

; 724  : 				{	// enough room, copy and construct new
; 725  : 				pointer _Ptr = _Right._Myfirst + size();
; 726  : 				_STD _Copy_impl(_Right._Myfirst, _Ptr, this->_Myfirst);

  00070	ff 75 08	 push	 DWORD PTR __Cat$532615[ebp]
  00073	8b 0f		 mov	 ecx, DWORD PTR [edi]
  00075	03 c0		 add	 eax, eax
  00077	52		 push	 edx
  00078	8d 1c c1	 lea	 ebx, DWORD PTR [ecx+eax*8]
  0007b	53		 push	 ebx
  0007c	51		 push	 ecx
  0007d	e8 00 00 00 00	 call	 ??$_Copy_impl@PAUSwingParam@@PAU1@@std@@YAPAUSwingParam@@PAU1@00U_Nonscalar_ptr_iterator_tag@0@@Z ; std::_Copy_impl<SwingParam *,SwingParam *>

; 727  : 				this->_Mylast = _Ucopy(_Ptr, _Right._Mylast, this->_Mylast);

  00082	ff 75 08	 push	 DWORD PTR __Cat$532637[ebp]
  00085	8b 46 04	 mov	 eax, DWORD PTR [esi+4]
  00088	8b 7f 04	 mov	 edi, DWORD PTR [edi+4]
  0008b	8d 4e 0c	 lea	 ecx, DWORD PTR [esi+12]
  0008e	51		 push	 ecx
  0008f	50		 push	 eax
  00090	57		 push	 edi
  00091	53		 push	 ebx
  00092	e8 00 00 00 00	 call	 ??$_Uninit_copy@PAUSwingParam@@PAU1@V?$allocator@USwingParam@@@std@@@std@@YAPAUSwingParam@@PAU1@00AAV?$allocator@USwingParam@@@0@U_Nonscalar_ptr_iterator_tag@0@@Z ; std::_Uninit_copy<SwingParam *,SwingParam *,std::allocator<SwingParam> >
  00097	83 c4 24	 add	 esp, 36			; 00000024H

; 728  : 				}
; 729  : 			else

  0009a	eb 38		 jmp	 SHORT $LN107@operator@4
$LN4@operator@4:

; 730  : 				{	// not enough room, allocate new array and construct new
; 731  : 				if (this->_Myfirst != 0)

  0009c	85 d2		 test	 edx, edx
  0009e	74 07		 je	 SHORT $LN92@operator@4

; 732  : 					{	// discard old array
; 733  : 					_Destroy(this->_Myfirst, this->_Mylast);
; 734  : 					this->_Alval.deallocate(this->_Myfirst,
; 735  : 						this->_Myend - this->_Myfirst);

  000a0	52		 push	 edx
  000a1	e8 00 00 00 00	 call	 ??3@YAXPAX@Z		; operator delete
  000a6	59		 pop	 ecx
$LN92@operator@4:

; 736  : 					}
; 737  : 				if (_Buy(_Right.size()))

  000a7	8b 47 04	 mov	 eax, DWORD PTR [edi+4]
  000aa	2b 07		 sub	 eax, DWORD PTR [edi]
  000ac	8b ce		 mov	 ecx, esi
  000ae	c1 f8 04	 sar	 eax, 4
  000b1	50		 push	 eax
  000b2	e8 00 00 00 00	 call	 ?_Buy@?$vector@USwingParam@@V?$allocator@USwingParam@@@std@@@std@@IAE_NI@Z ; std::vector<SwingParam,std::allocator<SwingParam> >::_Buy
  000b7	84 c0		 test	 al, al
  000b9	74 1c		 je	 SHORT $LN106@operator@4

; 738  : 					this->_Mylast = _Ucopy(_Right._Myfirst, _Right._Mylast,
; 739  : 						this->_Myfirst);

  000bb	ff 75 08	 push	 DWORD PTR __Cat$532740[ebp]
  000be	8b 06		 mov	 eax, DWORD PTR [esi]
  000c0	8b 4f 04	 mov	 ecx, DWORD PTR [edi+4]
  000c3	8b 3f		 mov	 edi, DWORD PTR [edi]
  000c5	8d 56 0c	 lea	 edx, DWORD PTR [esi+12]
  000c8	52		 push	 edx
  000c9	50		 push	 eax
  000ca	51		 push	 ecx
  000cb	57		 push	 edi
  000cc	e8 00 00 00 00	 call	 ??$_Uninit_copy@PAUSwingParam@@PAU1@V?$allocator@USwingParam@@@std@@@std@@YAPAUSwingParam@@PAU1@00AAV?$allocator@USwingParam@@@0@U_Nonscalar_ptr_iterator_tag@0@@Z ; std::_Uninit_copy<SwingParam *,SwingParam *,std::allocator<SwingParam> >
  000d1	83 c4 14	 add	 esp, 20			; 00000014H
$LN107@operator@4:
  000d4	89 46 04	 mov	 DWORD PTR [esi+4], eax
$LN106@operator@4:
  000d7	5b		 pop	 ebx
$LN1@operator@4:
  000d8	5f		 pop	 edi

; 740  : 				}
; 741  : 			}
; 742  : 		return (*this);

  000d9	8b c6		 mov	 eax, esi
  000db	5e		 pop	 esi

; 743  : 		}

  000dc	5d		 pop	 ebp
  000dd	c2 04 00	 ret	 4
??4?$vector@USwingParam@@V?$allocator@USwingParam@@@std@@@std@@QAEAAV01@ABV01@@Z ENDP ; std::vector<SwingParam,std::allocator<SwingParam> >::operator=
_TEXT	ENDS
PUBLIC	?_Reserve@?$vector@USwingParam@@V?$allocator@USwingParam@@@std@@@std@@IAEXI@Z ; std::vector<SwingParam,std::allocator<SwingParam> >::_Reserve
; Function compile flags: /Ogsp
;	COMDAT ?_Reserve@?$vector@USwingParam@@V?$allocator@USwingParam@@@std@@@std@@IAEXI@Z
_TEXT	SEGMENT
__Count$ = 8						; size = 4
?_Reserve@?$vector@USwingParam@@V?$allocator@USwingParam@@@std@@@std@@IAEXI@Z PROC ; std::vector<SwingParam,std::allocator<SwingParam> >::_Reserve, COMDAT
; _this$ = ecx

; 1290 : 		{	// ensure room for _Count new elements, grow exponentially

  00000	55		 push	 ebp
  00001	8b ec		 mov	 ebp, esp
  00003	56		 push	 esi
  00004	8b f1		 mov	 esi, ecx

; 1291 : 		size_type _Size = size();

  00006	8b 0e		 mov	 ecx, DWORD PTR [esi]
  00008	8b 46 04	 mov	 eax, DWORD PTR [esi+4]
  0000b	2b c1		 sub	 eax, ecx

; 1292 : 		if (max_size() - _Count < _Size)

  0000d	ba ff ff ff 0f	 mov	 edx, 268435455		; 0fffffffH
  00012	2b 55 08	 sub	 edx, DWORD PTR __Count$[ebp]
  00015	c1 f8 04	 sar	 eax, 4
  00018	3b d0		 cmp	 edx, eax
  0001a	73 0b		 jae	 SHORT $LN4@Reserve

; 1293 : 			_Xlen();

  0001c	68 00 00 00 00	 push	 OFFSET ??_C@_0BD@OLBABOEK@vector?$DMT?$DO?5too?5long?$AA@
  00021	ff 15 00 00 00
	00		 call	 DWORD PTR __imp_?_Xlength_error@std@@YAXPBD@Z
$LN21@Reserve:
$LN4@Reserve:

; 1294 : 		else if ((_Size += _Count) <= capacity())

  00027	8b 56 08	 mov	 edx, DWORD PTR [esi+8]
  0002a	03 45 08	 add	 eax, DWORD PTR __Count$[ebp]
  0002d	2b d1		 sub	 edx, ecx
  0002f	c1 fa 04	 sar	 edx, 4
  00032	3b c2		 cmp	 eax, edx
  00034	76 10		 jbe	 SHORT $LN1@Reserve

; 1295 : 			;
; 1296 : 		else
; 1297 : 			reserve(_Grow_to(_Size));

  00036	50		 push	 eax
  00037	8b ce		 mov	 ecx, esi
  00039	e8 00 00 00 00	 call	 ?_Grow_to@?$vector@USwingParam@@V?$allocator@USwingParam@@@std@@@std@@IBEII@Z ; std::vector<SwingParam,std::allocator<SwingParam> >::_Grow_to
  0003e	50		 push	 eax
  0003f	8b ce		 mov	 ecx, esi
  00041	e8 00 00 00 00	 call	 ?reserve@?$vector@USwingParam@@V?$allocator@USwingParam@@@std@@@std@@QAEXI@Z ; std::vector<SwingParam,std::allocator<SwingParam> >::reserve
$LN1@Reserve:
  00046	5e		 pop	 esi

; 1298 : 		}

  00047	5d		 pop	 ebp
  00048	c2 04 00	 ret	 4
$LN20@Reserve:
?_Reserve@?$vector@USwingParam@@V?$allocator@USwingParam@@@std@@@std@@IAEXI@Z ENDP ; std::vector<SwingParam,std::allocator<SwingParam> >::_Reserve
_TEXT	ENDS
PUBLIC	?_Tidy@?$_Tree@V?$_Tmap_traits@KVioHashString@@U?$less@K@std@@V?$allocator@U?$pair@$$CBKVioHashString@@@std@@@3@$0A@@std@@@std@@IAEXXZ ; std::_Tree<std::_Tmap_traits<unsigned long,ioHashString,std::less<unsigned long>,std::allocator<std::pair<unsigned long const ,ioHashString> >,0> >::_Tidy
; Function compile flags: /Ogsp
; File c:\program files (x86)\microsoft visual studio 10.0\vc\include\xtree
;	COMDAT ?_Tidy@?$_Tree@V?$_Tmap_traits@KVioHashString@@U?$less@K@std@@V?$allocator@U?$pair@$$CBKVioHashString@@@std@@@3@$0A@@std@@@std@@IAEXXZ
_TEXT	SEGMENT
$T532788 = -4						; size = 4
?_Tidy@?$_Tree@V?$_Tmap_traits@KVioHashString@@U?$less@K@std@@V?$allocator@U?$pair@$$CBKVioHashString@@@std@@@3@$0A@@std@@@std@@IAEXXZ PROC ; std::_Tree<std::_Tmap_traits<unsigned long,ioHashString,std::less<unsigned long>,std::allocator<std::pair<unsigned long const ,ioHashString> >,0> >::_Tidy, COMDAT
; _this$ = ecx

; 1865 : 		{	// free all storage

  00000	55		 push	 ebp
  00001	8b ec		 mov	 ebp, esp
  00003	51		 push	 ecx

; 1866 : 		erase(begin(), end());

  00004	8b 41 04	 mov	 eax, DWORD PTR [ecx+4]
  00007	8b 10		 mov	 edx, DWORD PTR [eax]
  00009	50		 push	 eax
  0000a	52		 push	 edx
  0000b	8d 45 fc	 lea	 eax, DWORD PTR $T532788[ebp]
  0000e	50		 push	 eax
  0000f	e8 00 00 00 00	 call	 ?erase@?$_Tree@V?$_Tmap_traits@KVioHashString@@U?$less@K@std@@V?$allocator@U?$pair@$$CBKVioHashString@@@std@@@3@$0A@@std@@@std@@QAE?AV?$_Tree_iterator@V?$_Tree_val@V?$_Tmap_traits@KVioHashString@@U?$less@K@std@@V?$allocator@U?$pair@$$CBKVioHashString@@@std@@@3@$0A@@std@@@std@@@2@V?$_Tree_const_iterator@V?$_Tree_val@V?$_Tmap_traits@KVioHashString@@U?$less@K@std@@V?$allocator@U?$pair@$$CBKVioHashString@@@std@@@3@$0A@@std@@@std@@@2@0@Z ; std::_Tree<std::_Tmap_traits<unsigned long,ioHashString,std::less<unsigned long>,std::allocator<std::pair<unsigned long const ,ioHashString> >,0> >::erase

; 1867 : 		}

  00014	c9		 leave
  00015	c3		 ret	 0
?_Tidy@?$_Tree@V?$_Tmap_traits@KVioHashString@@U?$less@K@std@@V?$allocator@U?$pair@$$CBKVioHashString@@@std@@@3@$0A@@std@@@std@@IAEXXZ ENDP ; std::_Tree<std::_Tmap_traits<unsigned long,ioHashString,std::less<unsigned long>,std::allocator<std::pair<unsigned long const ,ioHashString> >,0> >::_Tidy
_TEXT	ENDS
PUBLIC	??4RopeSpringParam@@QAEAAU0@ABU0@@Z		; RopeSpringParam::operator=
; Function compile flags: /Ogsp
;	COMDAT ??4RopeSpringParam@@QAEAAU0@ABU0@@Z
_TEXT	SEGMENT
___that$ = 8						; size = 4
??4RopeSpringParam@@QAEAAU0@ABU0@@Z PROC		; RopeSpringParam::operator=, COMDAT
; _this$ = ecx
  00000	55		 push	 ebp
  00001	8b ec		 mov	 ebp, esp
  00003	8b 45 08	 mov	 eax, DWORD PTR ___that$[ebp]
  00006	d9 00		 fld	 DWORD PTR [eax]
  00008	56		 push	 esi
  00009	8b f1		 mov	 esi, ecx
  0000b	d9 1e		 fstp	 DWORD PTR [esi]
  0000d	83 c0 14	 add	 eax, 20			; 00000014H
  00010	d9 40 f0	 fld	 DWORD PTR [eax-16]
  00013	50		 push	 eax
  00014	d9 5e 04	 fstp	 DWORD PTR [esi+4]
  00017	8d 4e 14	 lea	 ecx, DWORD PTR [esi+20]
  0001a	d9 40 f4	 fld	 DWORD PTR [eax-12]
  0001d	d9 5e 08	 fstp	 DWORD PTR [esi+8]
  00020	d9 40 f8	 fld	 DWORD PTR [eax-8]
  00023	d9 5e 0c	 fstp	 DWORD PTR [esi+12]
  00026	d9 40 fc	 fld	 DWORD PTR [eax-4]
  00029	d9 5e 10	 fstp	 DWORD PTR [esi+16]
  0002c	e8 00 00 00 00	 call	 ??4?$vector@USwingParam@@V?$allocator@USwingParam@@@std@@@std@@QAEAAV01@ABV01@@Z ; std::vector<SwingParam,std::allocator<SwingParam> >::operator=
  00031	8b c6		 mov	 eax, esi
  00033	5e		 pop	 esi
  00034	5d		 pop	 ebp
  00035	c2 04 00	 ret	 4
??4RopeSpringParam@@QAEAAU0@ABU0@@Z ENDP		; RopeSpringParam::operator=
_TEXT	ENDS
PUBLIC	??_GRopeSpringParam@@QAEPAXI@Z			; RopeSpringParam::`scalar deleting destructor'
; Function compile flags: /Ogsp
;	COMDAT ??_GRopeSpringParam@@QAEPAXI@Z
_TEXT	SEGMENT
___flags$ = 8						; size = 4
??_GRopeSpringParam@@QAEPAXI@Z PROC			; RopeSpringParam::`scalar deleting destructor', COMDAT
; _this$ = ecx
  00000	55		 push	 ebp
  00001	8b ec		 mov	 ebp, esp
  00003	56		 push	 esi
  00004	8b f1		 mov	 esi, ecx
  00006	8d 4e 14	 lea	 ecx, DWORD PTR [esi+20]
  00009	e8 00 00 00 00	 call	 ?_Tidy@?$vector@USwingParam@@V?$allocator@USwingParam@@@std@@@std@@IAEXXZ ; std::vector<SwingParam,std::allocator<SwingParam> >::_Tidy
  0000e	f6 45 08 01	 test	 BYTE PTR ___flags$[ebp], 1
  00012	74 07		 je	 SHORT $LN1@scalar@4
  00014	56		 push	 esi
  00015	e8 00 00 00 00	 call	 ??3@YAXPAX@Z		; operator delete
  0001a	59		 pop	 ecx
$LN1@scalar@4:
  0001b	8b c6		 mov	 eax, esi
  0001d	5e		 pop	 esi
  0001e	5d		 pop	 ebp
  0001f	c2 04 00	 ret	 4
??_GRopeSpringParam@@QAEPAXI@Z ENDP			; RopeSpringParam::`scalar deleting destructor'
_TEXT	ENDS
PUBLIC	?push_back@?$vector@USwingParam@@V?$allocator@USwingParam@@@std@@@std@@QAEXABUSwingParam@@@Z ; std::vector<SwingParam,std::allocator<SwingParam> >::push_back
; Function compile flags: /Ogsp
; File c:\program files (x86)\microsoft visual studio 10.0\vc\include\vector
;	COMDAT ?push_back@?$vector@USwingParam@@V?$allocator@USwingParam@@@std@@@std@@QAEXABUSwingParam@@@Z
_TEXT	SEGMENT
__Val$ = 8						; size = 4
?push_back@?$vector@USwingParam@@V?$allocator@USwingParam@@@std@@@std@@QAEXABUSwingParam@@@Z PROC ; std::vector<SwingParam,std::allocator<SwingParam> >::push_back, COMDAT
; _this$ = ecx

; 976  : 		{	// insert element at end

  00000	55		 push	 ebp
  00001	8b ec		 mov	 ebp, esp
  00003	56		 push	 esi
  00004	8b f1		 mov	 esi, ecx

; 977  : 		if (_Inside(_STD addressof(_Val)))

  00006	8b 46 04	 mov	 eax, DWORD PTR [esi+4]
  00009	57		 push	 edi
  0000a	8b 7d 08	 mov	 edi, DWORD PTR __Val$[ebp]
  0000d	3b f8		 cmp	 edi, eax
  0000f	73 2a		 jae	 SHORT $LN4@push_back
  00011	8b 0e		 mov	 ecx, DWORD PTR [esi]
  00013	3b cf		 cmp	 ecx, edi
  00015	77 24		 ja	 SHORT $LN4@push_back

; 978  : 			{	// push back an element
; 979  : 			size_type _Idx = _STD addressof(_Val) - this->_Myfirst;

  00017	2b f9		 sub	 edi, ecx

; 980  : 			if (this->_Mylast == this->_Myend)

  00019	3b 46 08	 cmp	 eax, DWORD PTR [esi+8]
  0001c	75 09		 jne	 SHORT $LN3@push_back

; 981  : 				_Reserve(1);

  0001e	6a 01		 push	 1
  00020	8b ce		 mov	 ecx, esi
  00022	e8 00 00 00 00	 call	 ?_Reserve@?$vector@USwingParam@@V?$allocator@USwingParam@@@std@@@std@@IAEXI@Z ; std::vector<SwingParam,std::allocator<SwingParam> >::_Reserve
$LN3@push_back:

; 982  : 			_Orphan_range(this->_Mylast, this->_Mylast);
; 983  : 			_Cons_val(this->_Alval,
; 984  : 				this->_Mylast,
; 985  : 				this->_Myfirst[_Idx]);

  00027	83 e7 f0	 and	 edi, -16		; fffffff0H
  0002a	03 3e		 add	 edi, DWORD PTR [esi]
  0002c	8d 46 0c	 lea	 eax, DWORD PTR [esi+12]
  0002f	57		 push	 edi
  00030	ff 76 04	 push	 DWORD PTR [esi+4]
  00033	50		 push	 eax
  00034	e8 00 00 00 00	 call	 ??$_Cons_val@V?$allocator@USwingParam@@@std@@USwingParam@@AAU3@@std@@YAXAAV?$allocator@USwingParam@@@0@PAUSwingParam@@AAU2@@Z ; std::_Cons_val<std::allocator<SwingParam>,SwingParam,SwingParam &>

; 986  : 			++this->_Mylast;
; 987  : 			}
; 988  : 		else

  00039	eb 1b		 jmp	 SHORT $LN20@push_back
$LN4@push_back:

; 989  : 			{	// push back a non-element
; 990  : 			if (this->_Mylast == this->_Myend)

  0003b	3b 46 08	 cmp	 eax, DWORD PTR [esi+8]
  0003e	75 09		 jne	 SHORT $LN1@push_back

; 991  : 				_Reserve(1);

  00040	6a 01		 push	 1
  00042	8b ce		 mov	 ecx, esi
  00044	e8 00 00 00 00	 call	 ?_Reserve@?$vector@USwingParam@@V?$allocator@USwingParam@@@std@@@std@@IAEXI@Z ; std::vector<SwingParam,std::allocator<SwingParam> >::_Reserve
$LN1@push_back:

; 992  : 			_Orphan_range(this->_Mylast, this->_Mylast);
; 993  : 			_Cons_val(this->_Alval,
; 994  : 				this->_Mylast,
; 995  : 				_Val);

  00049	57		 push	 edi
  0004a	ff 76 04	 push	 DWORD PTR [esi+4]
  0004d	8d 46 0c	 lea	 eax, DWORD PTR [esi+12]
  00050	50		 push	 eax
  00051	e8 00 00 00 00	 call	 ??$_Cons_val@V?$allocator@USwingParam@@@std@@USwingParam@@ABU3@@std@@YAXAAV?$allocator@USwingParam@@@0@PAUSwingParam@@ABU2@@Z ; std::_Cons_val<std::allocator<SwingParam>,SwingParam,SwingParam const &>
$LN20@push_back:
  00056	83 c4 0c	 add	 esp, 12			; 0000000cH

; 996  : 			++this->_Mylast;

  00059	83 46 04 10	 add	 DWORD PTR [esi+4], 16	; 00000010H
  0005d	5f		 pop	 edi
  0005e	5e		 pop	 esi

; 997  : 			}
; 998  : 		}

  0005f	5d		 pop	 ebp
  00060	c2 04 00	 ret	 4
?push_back@?$vector@USwingParam@@V?$allocator@USwingParam@@@std@@@std@@QAEXABUSwingParam@@@Z ENDP ; std::vector<SwingParam,std::allocator<SwingParam> >::push_back
_TEXT	ENDS
PUBLIC	??1?$_Tree@V?$_Tmap_traits@KVioHashString@@U?$less@K@std@@V?$allocator@U?$pair@$$CBKVioHashString@@@std@@@3@$0A@@std@@@std@@QAE@XZ ; std::_Tree<std::_Tmap_traits<unsigned long,ioHashString,std::less<unsigned long>,std::allocator<std::pair<unsigned long const ,ioHashString> >,0> >::~_Tree<std::_Tmap_traits<unsigned long,ioHashString,std::less<unsigned long>,std::allocator<std::pair<unsigned long const ,ioHashString> >,0> >
;	COMDAT xdata$x
; File c:\program files (x86)\microsoft visual studio 10.0\vc\include\xmemory
xdata$x	SEGMENT
__unwindtable$??1?$_Tree@V?$_Tmap_traits@KVioHashString@@U?$less@K@std@@V?$allocator@U?$pair@$$CBKVioHashString@@@std@@@3@$0A@@std@@@std@@QAE@XZ DD 0ffffffffH
	DD	FLAT:__unwindfunclet$??1?$_Tree@V?$_Tmap_traits@KVioHashString@@U?$less@K@std@@V?$allocator@U?$pair@$$CBKVioHashString@@@std@@@3@$0A@@std@@@std@@QAE@XZ$0
__ehfuncinfo$??1?$_Tree@V?$_Tmap_traits@KVioHashString@@U?$less@K@std@@V?$allocator@U?$pair@$$CBKVioHashString@@@std@@@3@$0A@@std@@@std@@QAE@XZ DD 019930522H
	DD	01H
	DD	FLAT:__unwindtable$??1?$_Tree@V?$_Tmap_traits@KVioHashString@@U?$less@K@std@@V?$allocator@U?$pair@$$CBKVioHashString@@@std@@@3@$0A@@std@@@std@@QAE@XZ
	DD	2 DUP(00H)
	DD	2 DUP(00H)
	DD	00H
	DD	01H
; Function compile flags: /Ogsp
; File c:\program files (x86)\microsoft visual studio 10.0\vc\include\xtree
xdata$x	ENDS
;	COMDAT ??1?$_Tree@V?$_Tmap_traits@KVioHashString@@U?$less@K@std@@V?$allocator@U?$pair@$$CBKVioHashString@@@std@@@3@$0A@@std@@@std@@QAE@XZ
_TEXT	SEGMENT
$T533016 = -20						; size = 4
_this$ = -16						; size = 4
__$EHRec$ = -12						; size = 12
??1?$_Tree@V?$_Tmap_traits@KVioHashString@@U?$less@K@std@@V?$allocator@U?$pair@$$CBKVioHashString@@@std@@@3@$0A@@std@@@std@@QAE@XZ PROC ; std::_Tree<std::_Tmap_traits<unsigned long,ioHashString,std::less<unsigned long>,std::allocator<std::pair<unsigned long const ,ioHashString> >,0> >::~_Tree<std::_Tmap_traits<unsigned long,ioHashString,std::less<unsigned long>,std::allocator<std::pair<unsigned long const ,ioHashString> >,0> >, COMDAT
; _this$ = ecx

; 790  : 		{	// destroy tree

  00000	6a 08		 push	 8
  00002	b8 00 00 00 00	 mov	 eax, __ehhandler$??1?$_Tree@V?$_Tmap_traits@KVioHashString@@U?$less@K@std@@V?$allocator@U?$pair@$$CBKVioHashString@@@std@@@3@$0A@@std@@@std@@QAE@XZ
  00007	e8 00 00 00 00	 call	 __EH_prolog3
  0000c	8b f1		 mov	 esi, ecx
  0000e	89 75 f0	 mov	 DWORD PTR _this$[ebp], esi

; 791  : 		_Tidy();

  00011	8b 46 04	 mov	 eax, DWORD PTR [esi+4]
  00014	8b 08		 mov	 ecx, DWORD PTR [eax]
  00016	83 65 fc 00	 and	 DWORD PTR __$EHRec$[ebp+8], 0
  0001a	50		 push	 eax
  0001b	51		 push	 ecx
  0001c	8d 45 ec	 lea	 eax, DWORD PTR $T533016[ebp]
  0001f	50		 push	 eax
  00020	8b ce		 mov	 ecx, esi
  00022	e8 00 00 00 00	 call	 ?erase@?$_Tree@V?$_Tmap_traits@KVioHashString@@U?$less@K@std@@V?$allocator@U?$pair@$$CBKVioHashString@@@std@@@3@$0A@@std@@@std@@QAE?AV?$_Tree_iterator@V?$_Tree_val@V?$_Tmap_traits@KVioHashString@@U?$less@K@std@@V?$allocator@U?$pair@$$CBKVioHashString@@@std@@@3@$0A@@std@@@std@@@2@V?$_Tree_const_iterator@V?$_Tree_val@V?$_Tmap_traits@KVioHashString@@U?$less@K@std@@V?$allocator@U?$pair@$$CBKVioHashString@@@std@@@3@$0A@@std@@@std@@@2@0@Z ; std::_Tree<std::_Tmap_traits<unsigned long,ioHashString,std::less<unsigned long>,std::allocator<std::pair<unsigned long const ,ioHashString> >,0> >::erase

; 792  : 		}

  00027	ff 76 04	 push	 DWORD PTR [esi+4]
  0002a	e8 00 00 00 00	 call	 ??3@YAXPAX@Z		; operator delete
  0002f	59		 pop	 ecx
  00030	e8 00 00 00 00	 call	 __EH_epilog3
  00035	c3		 ret	 0
_TEXT	ENDS
;	COMDAT text$x
text$x	SEGMENT
__unwindfunclet$??1?$_Tree@V?$_Tmap_traits@KVioHashString@@U?$less@K@std@@V?$allocator@U?$pair@$$CBKVioHashString@@@std@@@3@$0A@@std@@@std@@QAE@XZ$0:
  00000	8b 4d f0	 mov	 ecx, DWORD PTR _this$[ebp]
  00003	e9 00 00 00 00	 jmp	 ??1?$_Tree_val@V?$_Tmap_traits@KVioHashString@@U?$less@K@std@@V?$allocator@U?$pair@$$CBKVioHashString@@@std@@@3@$0A@@std@@@std@@QAE@XZ ; std::_Tree_val<std::_Tmap_traits<unsigned long,ioHashString,std::less<unsigned long>,std::allocator<std::pair<unsigned long const ,ioHashString> >,0> >::~_Tree_val<std::_Tmap_traits<unsigned long,ioHashString,std::less<unsigned long>,std::allocator<std::pair<unsigned long const ,ioHashString> >,0> >
__ehhandler$??1?$_Tree@V?$_Tmap_traits@KVioHashString@@U?$less@K@std@@V?$allocator@U?$pair@$$CBKVioHashString@@@std@@@3@$0A@@std@@@std@@QAE@XZ:
  00008	8b 54 24 08	 mov	 edx, DWORD PTR [esp+8]
  0000c	8d 42 0c	 lea	 eax, DWORD PTR [edx+12]
  0000f	8b 4a e8	 mov	 ecx, DWORD PTR [edx-24]
  00012	33 c8		 xor	 ecx, eax
  00014	e8 00 00 00 00	 call	 @__security_check_cookie@4
  00019	b8 00 00 00 00	 mov	 eax, OFFSET __ehfuncinfo$??1?$_Tree@V?$_Tmap_traits@KVioHashString@@U?$less@K@std@@V?$allocator@U?$pair@$$CBKVioHashString@@@std@@@3@$0A@@std@@@std@@QAE@XZ
  0001e	e9 00 00 00 00	 jmp	 ___CxxFrameHandler3
text$x	ENDS
??1?$_Tree@V?$_Tmap_traits@KVioHashString@@U?$less@K@std@@V?$allocator@U?$pair@$$CBKVioHashString@@@std@@@3@$0A@@std@@@std@@QAE@XZ ENDP ; std::_Tree<std::_Tmap_traits<unsigned long,ioHashString,std::less<unsigned long>,std::allocator<std::pair<unsigned long const ,ioHashString> >,0> >::~_Tree<std::_Tmap_traits<unsigned long,ioHashString,std::less<unsigned long>,std::allocator<std::pair<unsigned long const ,ioHashString> >,0> >
PUBLIC	??1?$map@KVioHashString@@U?$less@K@std@@V?$allocator@U?$pair@$$CBKVioHashString@@@std@@@3@@std@@QAE@XZ ; std::map<unsigned long,ioHashString,std::less<unsigned long>,std::allocator<std::pair<unsigned long const ,ioHashString> > >::~map<unsigned long,ioHashString,std::less<unsigned long>,std::allocator<std::pair<unsigned long const ,ioHashString> > >
; Function compile flags: /Ogsp
;	COMDAT ??1?$map@KVioHashString@@U?$less@K@std@@V?$allocator@U?$pair@$$CBKVioHashString@@@std@@@3@@std@@QAE@XZ
_TEXT	SEGMENT
??1?$map@KVioHashString@@U?$less@K@std@@V?$allocator@U?$pair@$$CBKVioHashString@@@std@@@3@@std@@QAE@XZ PROC ; std::map<unsigned long,ioHashString,std::less<unsigned long>,std::allocator<std::pair<unsigned long const ,ioHashString> > >::~map<unsigned long,ioHashString,std::less<unsigned long>,std::allocator<std::pair<unsigned long const ,ioHashString> > >, COMDAT
; _this$ = ecx
  00000	e9 00 00 00 00	 jmp	 ??1?$_Tree@V?$_Tmap_traits@KVioHashString@@U?$less@K@std@@V?$allocator@U?$pair@$$CBKVioHashString@@@std@@@3@$0A@@std@@@std@@QAE@XZ ; std::_Tree<std::_Tmap_traits<unsigned long,ioHashString,std::less<unsigned long>,std::allocator<std::pair<unsigned long const ,ioHashString> >,0> >::~_Tree<std::_Tmap_traits<unsigned long,ioHashString,std::less<unsigned long>,std::allocator<std::pair<unsigned long const ,ioHashString> >,0> >
??1?$map@KVioHashString@@U?$less@K@std@@V?$allocator@U?$pair@$$CBKVioHashString@@@std@@@3@@std@@QAE@XZ ENDP ; std::map<unsigned long,ioHashString,std::less<unsigned long>,std::allocator<std::pair<unsigned long const ,ioHashString> > >::~map<unsigned long,ioHashString,std::less<unsigned long>,std::allocator<std::pair<unsigned long const ,ioHashString> > >
_TEXT	ENDS
PUBLIC	??_7ioArmorItem@@6B@				; ioArmorItem::`vftable'
PUBLIC	??1ioArmorItem@@UAE@XZ				; ioArmorItem::~ioArmorItem
PUBLIC	??_R4ioArmorItem@@6B@				; ioArmorItem::`RTTI Complete Object Locator'
PUBLIC	??_R3ioArmorItem@@8				; ioArmorItem::`RTTI Class Hierarchy Descriptor'
PUBLIC	??_R2ioArmorItem@@8				; ioArmorItem::`RTTI Base Class Array'
PUBLIC	??_R1A@?0A@EA@ioArmorItem@@8			; ioArmorItem::`RTTI Base Class Descriptor at (0,-1,0,64)'
PUBLIC	??_R1A@?0A@EA@ioAttackableItem@@8		; ioAttackableItem::`RTTI Base Class Descriptor at (0,-1,0,64)'
PUBLIC	??_R0?AVioAttackableItem@@@8			; ioAttackableItem `RTTI Type Descriptor'
PUBLIC	??_R3ioAttackableItem@@8			; ioAttackableItem::`RTTI Class Hierarchy Descriptor'
PUBLIC	??_R2ioAttackableItem@@8			; ioAttackableItem::`RTTI Base Class Array'
PUBLIC	??_R1A@?0A@EA@ioItem@@8				; ioItem::`RTTI Base Class Descriptor at (0,-1,0,64)'
PUBLIC	??_R3ioItem@@8					; ioItem::`RTTI Class Hierarchy Descriptor'
PUBLIC	??_R2ioItem@@8					; ioItem::`RTTI Base Class Array'
PUBLIC	?LoadProperty@ioArmorItem@@UAEXAAVioINILoader@@@Z ; ioArmorItem::LoadProperty
PUBLIC	?Clone@ioArmorItem@@UAEPAVioItem@@XZ		; ioArmorItem::Clone
PUBLIC	?IsEnableExtraGauge@ioItem@@UAE_NPAVioBaseChar@@@Z ; ioItem::IsEnableExtraGauge
PUBLIC	?GetExtraGauge@ioItem@@UAEMXZ			; ioItem::GetExtraGauge
PUBLIC	?CheckOnHand@ioAttackableItem@@UAE_NXZ		; ioAttackableItem::CheckOnHand
PUBLIC	?CheckAimState@ioAttackableItem@@UAE_N_N@Z	; ioAttackableItem::CheckAimState
PUBLIC	?SetAimState@ioAttackableItem@@UAE_NPAVioBaseChar@@@Z ; ioAttackableItem::SetAimState
PUBLIC	?CheckExtendDefenseEnable@ioAttackableItem@@UAE_NPAVioBaseChar@@@Z ; ioAttackableItem::CheckExtendDefenseEnable
PUBLIC	?IsChargeAttackState@ioAttackableItem@@UAE_NPAVioBaseChar@@@Z ; ioAttackableItem::IsChargeAttackState
PUBLIC	?IsMoveAttackState@ioAttackableItem@@UAE_NPAVioBaseChar@@@Z ; ioAttackableItem::IsMoveAttackState
PUBLIC	?IsNoGhostWalk@ioAttackableItem@@UAE_NPAVioBaseChar@@@Z ; ioAttackableItem::IsNoGhostWalk
PUBLIC	?IsEnableAttackDashCheck@ioAttackableItem@@UAE_NPAVioBaseChar@@_N@Z ; ioAttackableItem::IsEnableAttackDashCheck
PUBLIC	?IsEnableItemDashCheck@ioAttackableItem@@UAE_NPAVioBaseChar@@_N@Z ; ioAttackableItem::IsEnableItemDashCheck
PUBLIC	?IsEnableAttackRotateCheck@ioAttackableItem@@UAE_NPAVioBaseChar@@@Z ; ioAttackableItem::IsEnableAttackRotateCheck
PUBLIC	?IsEnableChargeDefenseCheck@ioAttackableItem@@UAE_NXZ ; ioAttackableItem::IsEnableChargeDefenseCheck
PUBLIC	?IsUseDefenceCounterAttackEndDash@ioAttackableItem@@UAE_NXZ ; ioAttackableItem::IsUseDefenceCounterAttackEndDash
PUBLIC	?IsAutoTarget@ioAttackableItem@@UBE_NXZ		; ioAttackableItem::IsAutoTarget
PUBLIC	?IsWoundAfterUseExtendState@ioAttackableItem@@UAE_NXZ ; ioAttackableItem::IsWoundAfterUseExtendState
PUBLIC	?CheckWoundAfterUseExtendState@ioAttackableItem@@UAE_NPAVioBaseChar@@W4BlowTargetType@@@Z ; ioAttackableItem::CheckWoundAfterUseExtendState
PUBLIC	?IsCharSkipState@ioAttackableItem@@UAE_NPBVioBaseChar@@@Z ; ioAttackableItem::IsCharSkipState
EXTRN	??1ioAttackableItem@@UAE@XZ:PROC		; ioAttackableItem::~ioAttackableItem
EXTRN	?FindFieldEntityGrp@ioItem@@MBEABVioHashString@@XZ:PROC ; ioItem::FindFieldEntityGrp
EXTRN	?UseCreateIndexItem@ioItem@@UBE_NXZ:PROC	; ioItem::UseCreateIndexItem
EXTRN	?GetSetFocusColor@ioItem@@UBEKXZ:PROC		; ioItem::GetSetFocusColor
EXTRN	?Initialize@ioItem@@UAEXABVioHashString@@PAVioPlayStage@@@Z:PROC ; ioItem::Initialize
EXTRN	?InitializeBeforeEquip@ioItem@@UAEXABVioHashString@@PAVioPlayStage@@@Z:PROC ; ioItem::InitializeBeforeEquip
EXTRN	?OnEquiped@ioAttackableItem@@UAEXPAVioBaseChar@@@Z:PROC ; ioAttackableItem::OnEquiped
EXTRN	?OnReleased@ioAttackableItem@@UAEXPAVioBaseChar@@@Z:PROC ; ioAttackableItem::OnReleased
EXTRN	?SetExtendEquipEffect@ioItem@@UAEXPAVioBaseChar@@@Z:PROC ; ioItem::SetExtendEquipEffect
EXTRN	?ReleaseExtendEquipEffect@ioItem@@UAEXPAVioBaseChar@@@Z:PROC ; ioItem::ReleaseExtendEquipEffect
EXTRN	?GetTargetName@ioItem@@UAE?AVioHashString@@XZ:PROC ; ioItem::GetTargetName
EXTRN	?ClearTarget@ioItem@@UAEXXZ:PROC		; ioItem::ClearTarget
EXTRN	?UpdateExtraData@ioItem@@UAEXPAVioBaseChar@@@Z:PROC ; ioItem::UpdateExtraData
EXTRN	?CheckWeaponDefenseState@ioItem@@UAEXPAVioBaseChar@@@Z:PROC ; ioItem::CheckWeaponDefenseState
EXTRN	?CheckWoundedState@ioItem@@UAEXPAVioBaseChar@@@Z:PROC ; ioItem::CheckWoundedState
EXTRN	?SetVisible@ioItem@@UAEXPAVioBaseChar@@_N@Z:PROC ; ioItem::SetVisible
EXTRN	?UpdateSkillGauge@ioItem@@UAEXPAVioBaseChar@@M_N@Z:PROC ; ioItem::UpdateSkillGauge
EXTRN	?ReduceNeedGauge@ioItem@@UAEXMPAVioBaseChar@@@Z:PROC ; ioItem::ReduceNeedGauge
EXTRN	?GetCurBullet@ioItem@@UAEHXZ:PROC		; ioItem::GetCurBullet
EXTRN	?GetMaxBullet@ioItem@@UAEHXZ:PROC		; ioItem::GetMaxBullet
EXTRN	?SetCurBullet@ioItem@@UAEXH@Z:PROC		; ioItem::SetCurBullet
EXTRN	?GetCurSecoundBullet@ioItem@@UAEHXZ:PROC	; ioItem::GetCurSecoundBullet
EXTRN	?GetMaxSecoundBullet@ioItem@@UAEHXZ:PROC	; ioItem::GetMaxSecoundBullet
EXTRN	?SetCurSecoundBullet@ioItem@@UAEXH@Z:PROC	; ioItem::SetCurSecoundBullet
EXTRN	?GetGrowthInfoNum@ioItem@@UBEHH@Z:PROC		; ioItem::GetGrowthInfoNum
EXTRN	?GetGrowthInfoNumByType@ioItem@@UBEHHAAH@Z:PROC	; ioItem::GetGrowthInfoNumByType
EXTRN	?ClearCurChargeRateForSkill@ioItem@@UAEXXZ:PROC	; ioItem::ClearCurChargeRateForSkill
EXTRN	?GetChargeDamageRateForSkill@ioItem@@UAEMXZ:PROC ; ioItem::GetChargeDamageRateForSkill
EXTRN	?GetChargeForceRateForSkill@ioItem@@UAEMXZ:PROC	; ioItem::GetChargeForceRateForSkill
EXTRN	?GetChargeBlowRateForSkill@ioItem@@UAEMXZ:PROC	; ioItem::GetChargeBlowRateForSkill
EXTRN	?GetChargeRangeRateForSkill@ioItem@@UAEMXZ:PROC	; ioItem::GetChargeRangeRateForSkill
EXTRN	?GetChargeSpeedRateForSkill@ioItem@@UAEMXZ:PROC	; ioItem::GetChargeSpeedRateForSkill
EXTRN	?GetChargeFloatRateForSkill@ioItem@@UAEMXZ:PROC	; ioItem::GetChargeFloatRateForSkill
EXTRN	?GetChargeScaleRateForSkill@ioItem@@UAEMXZ:PROC	; ioItem::GetChargeScaleRateForSkill
EXTRN	?GetChargeExplosionRateForSkill@ioItem@@UAEMXZ:PROC ; ioItem::GetChargeExplosionRateForSkill
EXTRN	?GetChargeWoundedTimeRateForSkill@ioItem@@UAEMXZ:PROC ; ioItem::GetChargeWoundedTimeRateForSkill
EXTRN	?SetCurEquipEffect@ioItem@@UAEX_N@Z:PROC	; ioItem::SetCurEquipEffect
EXTRN	?SetCostume@ioItem@@UAEXH_N@Z:PROC		; ioItem::SetCostume
EXTRN	??_EioArmorItem@@UAEPAXI@Z:PROC			; ioArmorItem::`vector deleting destructor'
EXTRN	?IsCanFire@ioAttackableItem@@UBE_NPBVioBaseChar@@H_N@Z:PROC ; ioAttackableItem::IsCanFire
EXTRN	?CallItemProcess@ioAttackableItem@@UAEXPAVioBaseChar@@@Z:PROC ; ioAttackableItem::CallItemProcess
EXTRN	?SetExtraInfoToWeapon@ioAttackableItem@@UAEXPAVioWeapon@@_N@Z:PROC ; ioAttackableItem::SetExtraInfoToWeapon
EXTRN	?CheckChargeInfo@ioAttackableItem@@UAEXPAVioWeapon@@_N@Z:PROC ; ioAttackableItem::CheckChargeInfo
EXTRN	?SetExtendDefenseState@ioAttackableItem@@UAE_NPAVioBaseChar@@@Z:PROC ; ioAttackableItem::SetExtendDefenseState
EXTRN	?CheckExtendDefenseState@ioAttackableItem@@UAEXPAVioBaseChar@@@Z:PROC ; ioAttackableItem::CheckExtendDefenseState
EXTRN	?CheckDefenseMoveAniState@ioAttackableItem@@UAEXPAVioBaseChar@@@Z:PROC ; ioAttackableItem::CheckDefenseMoveAniState
EXTRN	?SetDodgeDefenseState@ioAttackableItem@@UAE_NPAVioBaseChar@@@Z:PROC ; ioAttackableItem::SetDodgeDefenseState
EXTRN	?CheckDodgeDefenseState@ioAttackableItem@@UAEXPAVioBaseChar@@@Z:PROC ; ioAttackableItem::CheckDodgeDefenseState
EXTRN	?ApplyDodgeDefenseState@ioAttackableItem@@UAEXPAVioBaseChar@@AAVSP2Packet@@@Z:PROC ; ioAttackableItem::ApplyDodgeDefenseState
EXTRN	?SetDefenseAttackState@ioAttackableItem@@UAE_NPAVioBaseChar@@@Z:PROC ; ioAttackableItem::SetDefenseAttackState
EXTRN	?CheckDefenseAttackState@ioAttackableItem@@UAEXPAVioBaseChar@@@Z:PROC ; ioAttackableItem::CheckDefenseAttackState
EXTRN	?ApplyDefenseAttackState@ioAttackableItem@@UAEXPAVioBaseChar@@AAVSP2Packet@@@Z:PROC ; ioAttackableItem::ApplyDefenseAttackState
EXTRN	?SetExtendDashState@ioAttackableItem@@UAE_NPAVioBaseChar@@@Z:PROC ; ioAttackableItem::SetExtendDashState
EXTRN	?CheckExtendDashState@ioAttackableItem@@UAEXPAVioBaseChar@@@Z:PROC ; ioAttackableItem::CheckExtendDashState
EXTRN	?SetNormalAttack@ioAttackableItem@@UAEXPAVioBaseChar@@H@Z:PROC ; ioAttackableItem::SetNormalAttack
EXTRN	?CheckNormalAttack@ioAttackableItem@@UAEXPAVioBaseChar@@@Z:PROC ; ioAttackableItem::CheckNormalAttack
EXTRN	?SetJumpAttack@ioAttackableItem@@UAE_NPAVioBaseChar@@HMW4AttackType@@@Z:PROC ; ioAttackableItem::SetJumpAttack
EXTRN	?CheckJumpAttack@ioAttackableItem@@UAEXPAVioBaseChar@@@Z:PROC ; ioAttackableItem::CheckJumpAttack
EXTRN	?SetJumpReloadState@ioAttackableItem@@UAE_NPAVioBaseChar@@@Z:PROC ; ioAttackableItem::SetJumpReloadState
EXTRN	?SetJumpReload@ioAttackableItem@@UAE_NPAVioBaseChar@@@Z:PROC ; ioAttackableItem::SetJumpReload
EXTRN	?CheckJumpReloadState@ioAttackableItem@@UAEXPAVioBaseChar@@@Z:PROC ; ioAttackableItem::CheckJumpReloadState
EXTRN	?CheckJumpReloadReserve@ioAttackableItem@@UAEXPAVioBaseChar@@@Z:PROC ; ioAttackableItem::CheckJumpReloadReserve
EXTRN	?ProcessJumpReloadState@ioAttackableItem@@UAEXPAVioBaseChar@@@Z:PROC ; ioAttackableItem::ProcessJumpReloadState
EXTRN	?ApplyJumpReload@ioAttackableItem@@UAEXPAVioBaseChar@@AAVSP2Packet@@@Z:PROC ; ioAttackableItem::ApplyJumpReload
EXTRN	?OnItemGaugeOK@ioAttackableItem@@UAEXPAVioBaseChar@@AAVSP2Packet@@@Z:PROC ; ioAttackableItem::OnItemGaugeOK
EXTRN	?OnItemGaugeCancel@ioAttackableItem@@UAEXPAVioBaseChar@@AAVSP2Packet@@@Z:PROC ; ioAttackableItem::OnItemGaugeCancel
EXTRN	?OnEndExtendDefense@ioAttackableItem@@UAEXPAVioBaseChar@@@Z:PROC ; ioAttackableItem::OnEndExtendDefense
EXTRN	?OnEndNormalAttack@ioAttackableItem@@UAEXPAVioBaseChar@@@Z:PROC ; ioAttackableItem::OnEndNormalAttack
EXTRN	?OnEndExtendAttack@ioAttackableItem@@UAEXPAVioBaseChar@@_N@Z:PROC ; ioAttackableItem::OnEndExtendAttack
EXTRN	?OnEndExtendJump@ioAttackableItem@@UAEXPAVioBaseChar@@@Z:PROC ; ioAttackableItem::OnEndExtendJump
EXTRN	?FillNormalAttackExtraInfo@ioAttackableItem@@UAEXAAVSP2Packet@@@Z:PROC ; ioAttackableItem::FillNormalAttackExtraInfo
EXTRN	?ApplyNormalAttackExtraInfo@ioAttackableItem@@UAEXAAVSP2Packet@@@Z:PROC ; ioAttackableItem::ApplyNormalAttackExtraInfo
EXTRN	?CheckLanding@ioAttackableItem@@UAE_NPAVioBaseChar@@@Z:PROC ; ioAttackableItem::CheckLanding
EXTRN	?SetNoneState@ioAttackableItem@@UAEXPAVioBaseChar@@H@Z:PROC ; ioAttackableItem::SetNoneState
EXTRN	?IsCanUpdateGauge@ioAttackableItem@@UAE_NPAVioBaseChar@@@Z:PROC ; ioAttackableItem::IsCanUpdateGauge
EXTRN	?CheckAimJumpState@ioAttackableItem@@UAEXPAVioBaseChar@@@Z:PROC ; ioAttackableItem::CheckAimJumpState
EXTRN	?GetJumppingAnimation@ioAttackableItem@@UBEABVioHashString@@XZ:PROC ; ioAttackableItem::GetJumppingAnimation
EXTRN	?GetExtendJumppingAnimation@ioAttackableItem@@UBEABVioHashString@@XZ:PROC ; ioAttackableItem::GetExtendJumppingAnimation
EXTRN	?CheckRetreatState@ioAttackableItem@@UAEXPAVioBaseChar@@@Z:PROC ; ioAttackableItem::CheckRetreatState
EXTRN	?SetNextItemState@ioAttackableItem@@UAEXPAVioBaseChar@@0PAVioWeapon@@_NM@Z:PROC ; ioAttackableItem::SetNextItemState
EXTRN	?WeaponWounded@ioAttackableItem@@UAEXPAVioWeapon@@PAVioBaseChar@@@Z:PROC ; ioAttackableItem::WeaponWounded
EXTRN	?WeaponMapColDead@ioAttackableItem@@UAEXPAVioWeapon@@@Z:PROC ; ioAttackableItem::WeaponMapColDead
EXTRN	?SetDefenceCounterState@ioAttackableItem@@UAEXPAVioBaseChar@@@Z:PROC ; ioAttackableItem::SetDefenceCounterState
EXTRN	?IsUseDefenceCounterAttack@ioAttackableItem@@UAE_NXZ:PROC ; ioAttackableItem::IsUseDefenceCounterAttack
EXTRN	?ProcessDefenceCounterAttack@ioAttackableItem@@UAEXPAVioBaseChar@@@Z:PROC ; ioAttackableItem::ProcessDefenceCounterAttack
EXTRN	?ProcessExtraJump@ioAttackableItem@@UAEXPAVioBaseChar@@@Z:PROC ; ioAttackableItem::ProcessExtraJump
EXTRN	?SetEndGrappling@ioAttackableItem@@UAEXPAVioBaseChar@@@Z:PROC ; ioAttackableItem::SetEndGrappling
EXTRN	?ClearKeyReserve@ioAttackableItem@@MAEXXZ:PROC	; ioAttackableItem::ClearKeyReserve
EXTRN	?CheckReserve@ioAttackableItem@@MAEXPAVioBaseChar@@@Z:PROC ; ioAttackableItem::CheckReserve
EXTRN	?ProcessReserveKeyInput@ioAttackableItem@@MAEXPAVioBaseChar@@@Z:PROC ; ioAttackableItem::ProcessReserveKeyInput
EXTRN	?SetJumpState@ioAttackableItem@@UAEXXZ:PROC	; ioAttackableItem::SetJumpState
EXTRN	?SetJumpping@ioAttackableItem@@UAEXPAVioBaseChar@@_N@Z:PROC ; ioAttackableItem::SetJumpping
EXTRN	?ProcessJumpping@ioAttackableItem@@UAEXPAVioBaseChar@@M@Z:PROC ; ioAttackableItem::ProcessJumpping
EXTRN	?ProcessJumppingByNoNeedProcess@ioAttackableItem@@UAEXPAVioBaseChar@@M@Z:PROC ; ioAttackableItem::ProcessJumppingByNoNeedProcess
EXTRN	?ProcessLanding@ioAttackableItem@@UAEXPAVioBaseChar@@@Z:PROC ; ioAttackableItem::ProcessLanding
EXTRN	?ProcessJumpAttack@ioAttackableItem@@UAEXPAVioBaseChar@@M@Z:PROC ; ioAttackableItem::ProcessJumpAttack
EXTRN	?ProcessAimJump@ioAttackableItem@@UAE_NPAVioBaseChar@@M@Z:PROC ; ioAttackableItem::ProcessAimJump
EXTRN	?ApplyJump@ioAttackableItem@@UAEXPAVioBaseChar@@AAVSP2Packet@@@Z:PROC ; ioAttackableItem::ApplyJump
EXTRN	?ApplyDash@ioAttackableItem@@UAEXPAVioBaseChar@@AAVSP2Packet@@@Z:PROC ; ioAttackableItem::ApplyDash
EXTRN	?ApplyCounterAttack@ioAttackableItem@@UAEXPAVioBaseChar@@AAVSP2Packet@@@Z:PROC ; ioAttackableItem::ApplyCounterAttack
EXTRN	?CheckComboJumpAttack@ioAttackableItem@@UAEXPAVioBaseChar@@@Z:PROC ; ioAttackableItem::CheckComboJumpAttack
EXTRN	?SetFlashJumpAttack@ioAttackableItem@@UAE_NPAVioBaseChar@@@Z:PROC ; ioAttackableItem::SetFlashJumpAttack
EXTRN	?SetComboFlashAttack@ioAttackableItem@@UAE_NPAVioBaseChar@@@Z:PROC ; ioAttackableItem::SetComboFlashAttack
EXTRN	?SetCollectJumpAttack@ioAttackableItem@@UAE_NPAVioBaseChar@@@Z:PROC ; ioAttackableItem::SetCollectJumpAttack
EXTRN	?SetPowerChargeJumpAttack@ioAttackableItem@@UAE_NPAVioBaseChar@@@Z:PROC ; ioAttackableItem::SetPowerChargeJumpAttack
EXTRN	?GetAttackSpeedRate@ioAttackableItem@@UBEMXZ:PROC ; ioAttackableItem::GetAttackSpeedRate
EXTRN	?GetExtraJumpSpeedRate@ioAttackableItem@@UBEMABUD3DXVECTOR3@@ABUD3DXQUATERNION@@@Z:PROC ; ioAttackableItem::GetExtraJumpSpeedRate
EXTRN	?IsEnableExtendJump@ioAttackableItem@@UAE_NXZ:PROC ; ioAttackableItem::IsEnableExtendJump
EXTRN	?RecevieExtendJumpUse@ioAttackableItem@@UAEXPAVioBaseChar@@@Z:PROC ; ioAttackableItem::RecevieExtendJumpUse
EXTRN	?HasAniFile@ioAttackableItem@@UBE_NW4AttackType@@H@Z:PROC ; ioAttackableItem::HasAniFile
EXTRN	?HasEndAniFile@ioAttackableItem@@UBE_NW4AttackType@@H@Z:PROC ; ioAttackableItem::HasEndAniFile
EXTRN	?GetAttackAttribute@ioAttackableItem@@UBEPBUAttackAttribute@@W4AttackType@@H@Z:PROC ; ioAttackableItem::GetAttackAttribute
EXTRN	?GetAniFile@ioAttackableItem@@UBEABVioHashString@@W4AttackType@@H@Z:PROC ; ioAttackableItem::GetAniFile
EXTRN	?GetAttackAniRate@ioAttackableItem@@UBEMW4AttackType@@H@Z:PROC ; ioAttackableItem::GetAttackAniRate
EXTRN	?GetEndAniFile@ioAttackableItem@@UBEABVioHashString@@W4AttackType@@H@Z:PROC ; ioAttackableItem::GetEndAniFile
EXTRN	?GetAttackEndAniRate@ioAttackableItem@@UBEMW4AttackType@@H@Z:PROC ; ioAttackableItem::GetAttackEndAniRate
EXTRN	?GetAttackAttributeIdx@ioAttackableItem@@UBEABV?$vector@UWeaponInfo@@V?$allocator@UWeaponInfo@@@std@@@std@@W4AttackType@@H@Z:PROC ; ioAttackableItem::GetAttackAttributeIdx
EXTRN	?GetForceInfoList@ioAttackableItem@@UBEABV?$vector@UForceInfo@@V?$allocator@UForceInfo@@@std@@@std@@W4AttackType@@H@Z:PROC ; ioAttackableItem::GetForceInfoList
EXTRN	?GetAttackPreDelay@ioAttackableItem@@UBEKW4AttackType@@H@Z:PROC ; ioAttackableItem::GetAttackPreDelay
EXTRN	?GetAttackAnimationDelay@ioAttackableItem@@UBEKW4AttackType@@H@Z:PROC ; ioAttackableItem::GetAttackAnimationDelay
EXTRN	?GetMaxCombo@ioAttackableItem@@UBEHXZ:PROC	; ioAttackableItem::GetMaxCombo
EXTRN	?GetExtraDashAttackMax@ioAttackableItem@@UBEHXZ:PROC ; ioAttackableItem::GetExtraDashAttackMax
EXTRN	?HasJumpEndAnimation@ioAttackableItem@@UBE_N_NPAVioBaseChar@@@Z:PROC ; ioAttackableItem::HasJumpEndAnimation
EXTRN	?GetJumpEndAnimation@ioAttackableItem@@UBEABVioHashString@@_NPAVioBaseChar@@@Z:PROC ; ioAttackableItem::GetJumpEndAnimation
EXTRN	?ClearCancelInfo@ioAttackableItem@@MAEXXZ:PROC	; ioAttackableItem::ClearCancelInfo
EXTRN	?CheckCancelReserve@ioAttackableItem@@MAEXPAVioBaseChar@@@Z:PROC ; ioAttackableItem::CheckCancelReserve
EXTRN	?SetCurAttackAniForInputJump@ioAttackableItem@@MAEXABVioHashString@@M@Z:PROC ; ioAttackableItem::SetCurAttackAniForInputJump
EXTRN	?ProcessCancel@ioAttackableItem@@MAE_NPAVioBaseChar@@@Z:PROC ; ioAttackableItem::ProcessCancel
EXTRN	?ProcessCancelBySpeicalDash@ioAttackableItem@@MAE_NPAVioBaseChar@@@Z:PROC ; ioAttackableItem::ProcessCancelBySpeicalDash
EXTRN	?SetCurAttackAniForInputDashS@ioAttackableItem@@UAEXABVioHashString@@M@Z:PROC ; ioAttackableItem::SetCurAttackAniForInputDashS
EXTRN	?CheckCancelReserveByConditionalSpecialDash@ioAttackableItem@@UAEXPAVioBaseChar@@@Z:PROC ; ioAttackableItem::CheckCancelReserveByConditionalSpecialDash
EXTRN	?IsConditionalSpecialDashReserve@ioAttackableItem@@UAE_NPAVioBaseChar@@@Z:PROC ; ioAttackableItem::IsConditionalSpecialDashReserve
EXTRN	?SetChangeConditionalSpecialDash@ioAttackableItem@@UAEXPAVioBaseChar@@W4DirKeyInput@ioUserKeyInput@@H@Z:PROC ; ioAttackableItem::SetChangeConditionalSpecialDash
EXTRN	?CheckChangeWereWolfState@ioAttackableItem@@UAE_NPAVioBaseChar@@@Z:PROC ; ioAttackableItem::CheckChangeWereWolfState
EXTRN	?SetChangeWereWolfState@ioAttackableItem@@UAEXPAVioBaseChar@@@Z:PROC ; ioAttackableItem::SetChangeWereWolfState
EXTRN	?CheckReleaseWereWolfState@ioAttackableItem@@UAE_NPAVioBaseChar@@@Z:PROC ; ioAttackableItem::CheckReleaseWereWolfState
EXTRN	?ReleseWereWolfState@ioAttackableItem@@UAEXPAVioBaseChar@@@Z:PROC ; ioAttackableItem::ReleseWereWolfState
EXTRN	?ReleseWereWolfStateByOwner@ioAttackableItem@@UAEXPAVioBaseChar@@@Z:PROC ; ioAttackableItem::ReleseWereWolfStateByOwner
EXTRN	?IncreaseChangeDamage@ioAttackableItem@@UAEXMH_N@Z:PROC ; ioAttackableItem::IncreaseChangeDamage
EXTRN	?IncreaseChangeDamageByWeapon@ioAttackableItem@@UAEXM@Z:PROC ; ioAttackableItem::IncreaseChangeDamageByWeapon
EXTRN	?CheckIncreaseChangeDamage@ioAttackableItem@@UAEXPAVioBaseChar@@@Z:PROC ; ioAttackableItem::CheckIncreaseChangeDamage
EXTRN	?DecreaseChangeDamage@ioAttackableItem@@UAEXPAVioBaseChar@@@Z:PROC ; ioAttackableItem::DecreaseChangeDamage
EXTRN	?IsEnableActionStopDelay@ioAttackableItem@@UAE_NXZ:PROC ; ioAttackableItem::IsEnableActionStopDelay
EXTRN	?SetUseExtraGauge@ioAttackableItem@@UAEXM@Z:PROC ; ioAttackableItem::SetUseExtraGauge
EXTRN	?InitExtraGauge@ioAttackableItem@@UAEXXZ:PROC	; ioAttackableItem::InitExtraGauge
EXTRN	?MaxExtraGauge@ioAttackableItem@@UAEXXZ:PROC	; ioAttackableItem::MaxExtraGauge
EXTRN	?GetMaxExtraGauge@ioAttackableItem@@UAEMXZ:PROC	; ioAttackableItem::GetMaxExtraGauge
EXTRN	?GetCurExtraGauge@ioAttackableItem@@UAEMXZ:PROC	; ioAttackableItem::GetCurExtraGauge
EXTRN	?SetCurExtraGauge@ioAttackableItem@@UAEXM@Z:PROC ; ioAttackableItem::SetCurExtraGauge
EXTRN	?GetAutoTargetValue@ioAttackableItem@@UAEXPAVioBaseChar@@AAM11W4AutoTargetType@@@Z:PROC ; ioAttackableItem::GetAutoTargetValue
EXTRN	?ClearAirJump@ioAttackableItem@@UAEXXZ:PROC	; ioAttackableItem::ClearAirJump
EXTRN	?SetAirJump@ioAttackableItem@@UAEXPAVioBaseChar@@HM@Z:PROC ; ioAttackableItem::SetAirJump
EXTRN	?CheckAirJump@ioAttackableItem@@UAEXPAVioBaseChar@@@Z:PROC ; ioAttackableItem::CheckAirJump
EXTRN	?EquipObjectItemByAttakable@ioAttackableItem@@UAEXPAVioBaseChar@@PAVioItem@@@Z:PROC ; ioAttackableItem::EquipObjectItemByAttakable
EXTRN	?ReleaseObjectItemByAttack@ioAttackableItem@@UAEXPAVioBaseChar@@PAVioItem@@@Z:PROC ; ioAttackableItem::ReleaseObjectItemByAttack
EXTRN	?IsBuffFlyChange@ioAttackableItem@@UAE_NPAVioBaseChar@@@Z:PROC ; ioAttackableItem::IsBuffFlyChange
EXTRN	?GetAttackStateText@ioAttackableItem@@UBEPBDXZ:PROC ; ioAttackableItem::GetAttackStateText
EXTRN	?SetJumpLandingExtraState@ioAttackableItem@@UAE_NPAVioBaseChar@@@Z:PROC ; ioAttackableItem::SetJumpLandingExtraState
;	COMDAT ??_R2ioItem@@8
; File d:\lost saga for developer\youtube\tutorial\source\src\lsclient\ioarmoritem.cpp
rdata$r	SEGMENT
??_R2ioItem@@8 DD FLAT:??_R1A@?0A@EA@ioItem@@8		; ioItem::`RTTI Base Class Array'
rdata$r	ENDS
;	COMDAT ??_R3ioItem@@8
rdata$r	SEGMENT
??_R3ioItem@@8 DD 00H					; ioItem::`RTTI Class Hierarchy Descriptor'
	DD	00H
	DD	01H
	DD	FLAT:??_R2ioItem@@8
rdata$r	ENDS
;	COMDAT ??_R1A@?0A@EA@ioItem@@8
rdata$r	SEGMENT
??_R1A@?0A@EA@ioItem@@8 DD FLAT:??_R0?AVioItem@@@8	; ioItem::`RTTI Base Class Descriptor at (0,-1,0,64)'
	DD	00H
	DD	00H
	DD	0ffffffffH
	DD	00H
	DD	040H
	DD	FLAT:??_R3ioItem@@8
rdata$r	ENDS
;	COMDAT ??_R2ioAttackableItem@@8
rdata$r	SEGMENT
??_R2ioAttackableItem@@8 DD FLAT:??_R1A@?0A@EA@ioAttackableItem@@8 ; ioAttackableItem::`RTTI Base Class Array'
	DD	FLAT:??_R1A@?0A@EA@ioItem@@8
rdata$r	ENDS
;	COMDAT ??_R3ioAttackableItem@@8
rdata$r	SEGMENT
??_R3ioAttackableItem@@8 DD 00H				; ioAttackableItem::`RTTI Class Hierarchy Descriptor'
	DD	00H
	DD	02H
	DD	FLAT:??_R2ioAttackableItem@@8
rdata$r	ENDS
;	COMDAT ??_R0?AVioAttackableItem@@@8
_DATA	SEGMENT
??_R0?AVioAttackableItem@@@8 DD FLAT:??_7type_info@@6B@	; ioAttackableItem `RTTI Type Descriptor'
	DD	00H
	DB	'.?AVioAttackableItem@@', 00H
_DATA	ENDS
;	COMDAT ??_R1A@?0A@EA@ioAttackableItem@@8
rdata$r	SEGMENT
??_R1A@?0A@EA@ioAttackableItem@@8 DD FLAT:??_R0?AVioAttackableItem@@@8 ; ioAttackableItem::`RTTI Base Class Descriptor at (0,-1,0,64)'
	DD	01H
	DD	00H
	DD	0ffffffffH
	DD	00H
	DD	040H
	DD	FLAT:??_R3ioAttackableItem@@8
rdata$r	ENDS
;	COMDAT ??_R1A@?0A@EA@ioArmorItem@@8
rdata$r	SEGMENT
??_R1A@?0A@EA@ioArmorItem@@8 DD FLAT:??_R0?AVioArmorItem@@@8 ; ioArmorItem::`RTTI Base Class Descriptor at (0,-1,0,64)'
	DD	02H
	DD	00H
	DD	0ffffffffH
	DD	00H
	DD	040H
	DD	FLAT:??_R3ioArmorItem@@8
rdata$r	ENDS
;	COMDAT ??_R2ioArmorItem@@8
rdata$r	SEGMENT
??_R2ioArmorItem@@8 DD FLAT:??_R1A@?0A@EA@ioArmorItem@@8 ; ioArmorItem::`RTTI Base Class Array'
	DD	FLAT:??_R1A@?0A@EA@ioAttackableItem@@8
	DD	FLAT:??_R1A@?0A@EA@ioItem@@8
rdata$r	ENDS
;	COMDAT ??_R3ioArmorItem@@8
rdata$r	SEGMENT
??_R3ioArmorItem@@8 DD 00H				; ioArmorItem::`RTTI Class Hierarchy Descriptor'
	DD	00H
	DD	03H
	DD	FLAT:??_R2ioArmorItem@@8
rdata$r	ENDS
;	COMDAT ??_R4ioArmorItem@@6B@
rdata$r	SEGMENT
??_R4ioArmorItem@@6B@ DD 00H				; ioArmorItem::`RTTI Complete Object Locator'
	DD	00H
	DD	00H
	DD	FLAT:??_R0?AVioArmorItem@@@8
	DD	FLAT:??_R3ioArmorItem@@8
rdata$r	ENDS
;	COMDAT ??_7ioArmorItem@@6B@
CONST	SEGMENT
??_7ioArmorItem@@6B@ DD FLAT:??_R4ioArmorItem@@6B@	; ioArmorItem::`vftable'
	DD	FLAT:?FindFieldEntityGrp@ioItem@@MBEABVioHashString@@XZ
	DD	FLAT:?LoadProperty@ioArmorItem@@UAEXAAVioINILoader@@@Z
	DD	FLAT:?GetType@ioArmorItem@@UBE?AW4ItemType@ioItem@@XZ
	DD	FLAT:?Clone@ioArmorItem@@UAEPAVioItem@@XZ
	DD	FLAT:?UseCreateIndexItem@ioItem@@UBE_NXZ
	DD	FLAT:?GetSetFocusColor@ioItem@@UBEKXZ
	DD	FLAT:?Initialize@ioItem@@UAEXABVioHashString@@PAVioPlayStage@@@Z
	DD	FLAT:?InitializeBeforeEquip@ioItem@@UAEXABVioHashString@@PAVioPlayStage@@@Z
	DD	FLAT:?OnEquiped@ioAttackableItem@@UAEXPAVioBaseChar@@@Z
	DD	FLAT:?OnReleased@ioAttackableItem@@UAEXPAVioBaseChar@@@Z
	DD	FLAT:?SetExtendEquipEffect@ioItem@@UAEXPAVioBaseChar@@@Z
	DD	FLAT:?ReleaseExtendEquipEffect@ioItem@@UAEXPAVioBaseChar@@@Z
	DD	FLAT:?AddGlowLine@ioArmorItem@@UAEXPAVioBaseChar@@@Z
	DD	FLAT:?RemoveGlowLine@ioArmorItem@@UAEXPAVioBaseChar@@@Z
	DD	FLAT:?GetTargetName@ioItem@@UAE?AVioHashString@@XZ
	DD	FLAT:?ClearTarget@ioItem@@UAEXXZ
	DD	FLAT:?SetItemType@ioArmorItem@@UAEXXZ
	DD	FLAT:?UpdateExtraData@ioItem@@UAEXPAVioBaseChar@@@Z
	DD	FLAT:?CheckWeaponDefenseState@ioItem@@UAEXPAVioBaseChar@@@Z
	DD	FLAT:?CheckWoundedState@ioItem@@UAEXPAVioBaseChar@@@Z
	DD	FLAT:?SetVisible@ioItem@@UAEXPAVioBaseChar@@_N@Z
	DD	FLAT:?UpdateSkillGauge@ioItem@@UAEXPAVioBaseChar@@M_N@Z
	DD	FLAT:?IsEnableExtraGauge@ioItem@@UAE_NPAVioBaseChar@@@Z
	DD	FLAT:?GetExtraGauge@ioItem@@UAEMXZ
	DD	FLAT:?ReduceNeedGauge@ioItem@@UAEXMPAVioBaseChar@@@Z
	DD	FLAT:?GetCurBullet@ioItem@@UAEHXZ
	DD	FLAT:?GetMaxBullet@ioItem@@UAEHXZ
	DD	FLAT:?SetCurBullet@ioItem@@UAEXH@Z
	DD	FLAT:?GetCurSecoundBullet@ioItem@@UAEHXZ
	DD	FLAT:?GetMaxSecoundBullet@ioItem@@UAEHXZ
	DD	FLAT:?SetCurSecoundBullet@ioItem@@UAEXH@Z
	DD	FLAT:?GetGrowthInfoNum@ioItem@@UBEHH@Z
	DD	FLAT:?GetGrowthInfoNumByType@ioItem@@UBEHHAAH@Z
	DD	FLAT:?ClearCurChargeRateForSkill@ioItem@@UAEXXZ
	DD	FLAT:?GetChargeDamageRateForSkill@ioItem@@UAEMXZ
	DD	FLAT:?GetChargeForceRateForSkill@ioItem@@UAEMXZ
	DD	FLAT:?GetChargeBlowRateForSkill@ioItem@@UAEMXZ
	DD	FLAT:?GetChargeRangeRateForSkill@ioItem@@UAEMXZ
	DD	FLAT:?GetChargeSpeedRateForSkill@ioItem@@UAEMXZ
	DD	FLAT:?GetChargeFloatRateForSkill@ioItem@@UAEMXZ
	DD	FLAT:?GetChargeScaleRateForSkill@ioItem@@UAEMXZ
	DD	FLAT:?GetChargeExplosionRateForSkill@ioItem@@UAEMXZ
	DD	FLAT:?GetChargeWoundedTimeRateForSkill@ioItem@@UAEMXZ
	DD	FLAT:?SetCurEquipEffect@ioItem@@UAEX_N@Z
	DD	FLAT:?SetCostume@ioItem@@UAEXH_N@Z
	DD	FLAT:??_EioArmorItem@@UAEPAXI@Z
	DD	FLAT:?IsCanFire@ioAttackableItem@@UBE_NPBVioBaseChar@@H_N@Z
	DD	FLAT:?CallItemProcess@ioAttackableItem@@UAEXPAVioBaseChar@@@Z
	DD	FLAT:?SetExtraInfoToWeapon@ioAttackableItem@@UAEXPAVioWeapon@@_N@Z
	DD	FLAT:?CheckChargeInfo@ioAttackableItem@@UAEXPAVioWeapon@@_N@Z
	DD	FLAT:?SetExtendDefenseState@ioAttackableItem@@UAE_NPAVioBaseChar@@@Z
	DD	FLAT:?CheckExtendDefenseState@ioAttackableItem@@UAEXPAVioBaseChar@@@Z
	DD	FLAT:?CheckDefenseMoveAniState@ioAttackableItem@@UAEXPAVioBaseChar@@@Z
	DD	FLAT:?SetDodgeDefenseState@ioAttackableItem@@UAE_NPAVioBaseChar@@@Z
	DD	FLAT:?CheckDodgeDefenseState@ioAttackableItem@@UAEXPAVioBaseChar@@@Z
	DD	FLAT:?ApplyDodgeDefenseState@ioAttackableItem@@UAEXPAVioBaseChar@@AAVSP2Packet@@@Z
	DD	FLAT:?SetDefenseAttackState@ioAttackableItem@@UAE_NPAVioBaseChar@@@Z
	DD	FLAT:?CheckDefenseAttackState@ioAttackableItem@@UAEXPAVioBaseChar@@@Z
	DD	FLAT:?ApplyDefenseAttackState@ioAttackableItem@@UAEXPAVioBaseChar@@AAVSP2Packet@@@Z
	DD	FLAT:?SetExtendDashState@ioAttackableItem@@UAE_NPAVioBaseChar@@@Z
	DD	FLAT:?CheckExtendDashState@ioAttackableItem@@UAEXPAVioBaseChar@@@Z
	DD	FLAT:?SetNormalAttack@ioAttackableItem@@UAEXPAVioBaseChar@@H@Z
	DD	FLAT:?CheckNormalAttack@ioAttackableItem@@UAEXPAVioBaseChar@@@Z
	DD	FLAT:?SetJumpAttack@ioAttackableItem@@UAE_NPAVioBaseChar@@HMW4AttackType@@@Z
	DD	FLAT:?CheckJumpAttack@ioAttackableItem@@UAEXPAVioBaseChar@@@Z
	DD	FLAT:?SetJumpReloadState@ioAttackableItem@@UAE_NPAVioBaseChar@@@Z
	DD	FLAT:?SetJumpReload@ioAttackableItem@@UAE_NPAVioBaseChar@@@Z
	DD	FLAT:?CheckJumpReloadState@ioAttackableItem@@UAEXPAVioBaseChar@@@Z
	DD	FLAT:?CheckJumpReloadReserve@ioAttackableItem@@UAEXPAVioBaseChar@@@Z
	DD	FLAT:?ProcessJumpReloadState@ioAttackableItem@@UAEXPAVioBaseChar@@@Z
	DD	FLAT:?ApplyJumpReload@ioAttackableItem@@UAEXPAVioBaseChar@@AAVSP2Packet@@@Z
	DD	FLAT:?OnItemGaugeOK@ioAttackableItem@@UAEXPAVioBaseChar@@AAVSP2Packet@@@Z
	DD	FLAT:?OnItemGaugeCancel@ioAttackableItem@@UAEXPAVioBaseChar@@AAVSP2Packet@@@Z
	DD	FLAT:?OnEndExtendDefense@ioAttackableItem@@UAEXPAVioBaseChar@@@Z
	DD	FLAT:?OnEndNormalAttack@ioAttackableItem@@UAEXPAVioBaseChar@@@Z
	DD	FLAT:?OnEndExtendAttack@ioAttackableItem@@UAEXPAVioBaseChar@@_N@Z
	DD	FLAT:?OnEndExtendJump@ioAttackableItem@@UAEXPAVioBaseChar@@@Z
	DD	FLAT:?FillNormalAttackExtraInfo@ioAttackableItem@@UAEXAAVSP2Packet@@@Z
	DD	FLAT:?ApplyNormalAttackExtraInfo@ioAttackableItem@@UAEXAAVSP2Packet@@@Z
	DD	FLAT:?CheckOnHand@ioAttackableItem@@UAE_NXZ
	DD	FLAT:?CheckAimState@ioAttackableItem@@UAE_N_N@Z
	DD	FLAT:?SetAimState@ioAttackableItem@@UAE_NPAVioBaseChar@@@Z
	DD	FLAT:?CheckLanding@ioAttackableItem@@UAE_NPAVioBaseChar@@@Z
	DD	FLAT:?SetNoneState@ioAttackableItem@@UAEXPAVioBaseChar@@H@Z
	DD	FLAT:?CheckExtendDefenseEnable@ioAttackableItem@@UAE_NPAVioBaseChar@@@Z
	DD	FLAT:?IsChargeAttackState@ioAttackableItem@@UAE_NPAVioBaseChar@@@Z
	DD	FLAT:?IsMoveAttackState@ioAttackableItem@@UAE_NPAVioBaseChar@@@Z
	DD	FLAT:?IsCanUpdateGauge@ioAttackableItem@@UAE_NPAVioBaseChar@@@Z
	DD	FLAT:?IsNoGhostWalk@ioAttackableItem@@UAE_NPAVioBaseChar@@@Z
	DD	FLAT:?IsEnableAttackDashCheck@ioAttackableItem@@UAE_NPAVioBaseChar@@_N@Z
	DD	FLAT:?IsEnableItemDashCheck@ioAttackableItem@@UAE_NPAVioBaseChar@@_N@Z
	DD	FLAT:?IsEnableAttackRotateCheck@ioAttackableItem@@UAE_NPAVioBaseChar@@@Z
	DD	FLAT:?IsEnableChargeDefenseCheck@ioAttackableItem@@UAE_NXZ
	DD	FLAT:?CheckAimJumpState@ioAttackableItem@@UAEXPAVioBaseChar@@@Z
	DD	FLAT:?GetJumppingAnimation@ioAttackableItem@@UBEABVioHashString@@XZ
	DD	FLAT:?GetExtendJumppingAnimation@ioAttackableItem@@UBEABVioHashString@@XZ
	DD	FLAT:?CheckRetreatState@ioAttackableItem@@UAEXPAVioBaseChar@@@Z
	DD	FLAT:?SetNextItemState@ioAttackableItem@@UAEXPAVioBaseChar@@0PAVioWeapon@@_NM@Z
	DD	FLAT:?WeaponWounded@ioAttackableItem@@UAEXPAVioWeapon@@PAVioBaseChar@@@Z
	DD	FLAT:?WeaponMapColDead@ioAttackableItem@@UAEXPAVioWeapon@@@Z
	DD	FLAT:?SetDefenceCounterState@ioAttackableItem@@UAEXPAVioBaseChar@@@Z
	DD	FLAT:?IsUseDefenceCounterAttack@ioAttackableItem@@UAE_NXZ
	DD	FLAT:?ProcessDefenceCounterAttack@ioAttackableItem@@UAEXPAVioBaseChar@@@Z
	DD	FLAT:?IsUseDefenceCounterAttackEndDash@ioAttackableItem@@UAE_NXZ
	DD	FLAT:?ProcessExtraJump@ioAttackableItem@@UAEXPAVioBaseChar@@@Z
	DD	FLAT:?SetEndGrappling@ioAttackableItem@@UAEXPAVioBaseChar@@@Z
	DD	FLAT:?ClearKeyReserve@ioAttackableItem@@MAEXXZ
	DD	FLAT:?CheckReserve@ioAttackableItem@@MAEXPAVioBaseChar@@@Z
	DD	FLAT:?ProcessReserveKeyInput@ioAttackableItem@@MAEXPAVioBaseChar@@@Z
	DD	FLAT:?SetJumpState@ioAttackableItem@@UAEXXZ
	DD	FLAT:?SetJumpping@ioAttackableItem@@UAEXPAVioBaseChar@@_N@Z
	DD	FLAT:?ProcessJumpping@ioAttackableItem@@UAEXPAVioBaseChar@@M@Z
	DD	FLAT:?ProcessJumppingByNoNeedProcess@ioAttackableItem@@UAEXPAVioBaseChar@@M@Z
	DD	FLAT:?ProcessLanding@ioAttackableItem@@UAEXPAVioBaseChar@@@Z
	DD	FLAT:?ProcessJumpAttack@ioAttackableItem@@UAEXPAVioBaseChar@@M@Z
	DD	FLAT:?ProcessAimJump@ioAttackableItem@@UAE_NPAVioBaseChar@@M@Z
	DD	FLAT:?ApplyJump@ioAttackableItem@@UAEXPAVioBaseChar@@AAVSP2Packet@@@Z
	DD	FLAT:?ApplyDash@ioAttackableItem@@UAEXPAVioBaseChar@@AAVSP2Packet@@@Z
	DD	FLAT:?ApplyCounterAttack@ioAttackableItem@@UAEXPAVioBaseChar@@AAVSP2Packet@@@Z
	DD	FLAT:?CheckComboJumpAttack@ioAttackableItem@@UAEXPAVioBaseChar@@@Z
	DD	FLAT:?SetFlashJumpAttack@ioAttackableItem@@UAE_NPAVioBaseChar@@@Z
	DD	FLAT:?SetComboFlashAttack@ioAttackableItem@@UAE_NPAVioBaseChar@@@Z
	DD	FLAT:?SetCollectJumpAttack@ioAttackableItem@@UAE_NPAVioBaseChar@@@Z
	DD	FLAT:?SetPowerChargeJumpAttack@ioAttackableItem@@UAE_NPAVioBaseChar@@@Z
	DD	FLAT:?GetAttackSpeedRate@ioAttackableItem@@UBEMXZ
	DD	FLAT:?GetExtraJumpSpeedRate@ioAttackableItem@@UBEMABUD3DXVECTOR3@@ABUD3DXQUATERNION@@@Z
	DD	FLAT:?IsEnableExtendJump@ioAttackableItem@@UAE_NXZ
	DD	FLAT:?RecevieExtendJumpUse@ioAttackableItem@@UAEXPAVioBaseChar@@@Z
	DD	FLAT:?HasAniFile@ioAttackableItem@@UBE_NW4AttackType@@H@Z
	DD	FLAT:?HasEndAniFile@ioAttackableItem@@UBE_NW4AttackType@@H@Z
	DD	FLAT:?GetAttackAttribute@ioAttackableItem@@UBEPBUAttackAttribute@@W4AttackType@@H@Z
	DD	FLAT:?GetAniFile@ioAttackableItem@@UBEABVioHashString@@W4AttackType@@H@Z
	DD	FLAT:?GetAttackAniRate@ioAttackableItem@@UBEMW4AttackType@@H@Z
	DD	FLAT:?GetEndAniFile@ioAttackableItem@@UBEABVioHashString@@W4AttackType@@H@Z
	DD	FLAT:?GetAttackEndAniRate@ioAttackableItem@@UBEMW4AttackType@@H@Z
	DD	FLAT:?GetAttackAttributeIdx@ioAttackableItem@@UBEABV?$vector@UWeaponInfo@@V?$allocator@UWeaponInfo@@@std@@@std@@W4AttackType@@H@Z
	DD	FLAT:?GetForceInfoList@ioAttackableItem@@UBEABV?$vector@UForceInfo@@V?$allocator@UForceInfo@@@std@@@std@@W4AttackType@@H@Z
	DD	FLAT:?GetAttackPreDelay@ioAttackableItem@@UBEKW4AttackType@@H@Z
	DD	FLAT:?GetAttackAnimationDelay@ioAttackableItem@@UBEKW4AttackType@@H@Z
	DD	FLAT:?GetMaxCombo@ioAttackableItem@@UBEHXZ
	DD	FLAT:?GetExtraDashAttackMax@ioAttackableItem@@UBEHXZ
	DD	FLAT:?HasJumpEndAnimation@ioAttackableItem@@UBE_N_NPAVioBaseChar@@@Z
	DD	FLAT:?GetJumpEndAnimation@ioAttackableItem@@UBEABVioHashString@@_NPAVioBaseChar@@@Z
	DD	FLAT:?ClearCancelInfo@ioAttackableItem@@MAEXXZ
	DD	FLAT:?CheckCancelReserve@ioAttackableItem@@MAEXPAVioBaseChar@@@Z
	DD	FLAT:?SetCurAttackAniForInputJump@ioAttackableItem@@MAEXABVioHashString@@M@Z
	DD	FLAT:?ProcessCancel@ioAttackableItem@@MAE_NPAVioBaseChar@@@Z
	DD	FLAT:?ProcessCancelBySpeicalDash@ioAttackableItem@@MAE_NPAVioBaseChar@@@Z
	DD	FLAT:?SetCurAttackAniForInputDashS@ioAttackableItem@@UAEXABVioHashString@@M@Z
	DD	FLAT:?CheckCancelReserveByConditionalSpecialDash@ioAttackableItem@@UAEXPAVioBaseChar@@@Z
	DD	FLAT:?IsConditionalSpecialDashReserve@ioAttackableItem@@UAE_NPAVioBaseChar@@@Z
	DD	FLAT:?SetChangeConditionalSpecialDash@ioAttackableItem@@UAEXPAVioBaseChar@@W4DirKeyInput@ioUserKeyInput@@H@Z
	DD	FLAT:?CheckChangeWereWolfState@ioAttackableItem@@UAE_NPAVioBaseChar@@@Z
	DD	FLAT:?SetChangeWereWolfState@ioAttackableItem@@UAEXPAVioBaseChar@@@Z
	DD	FLAT:?CheckReleaseWereWolfState@ioAttackableItem@@UAE_NPAVioBaseChar@@@Z
	DD	FLAT:?ReleseWereWolfState@ioAttackableItem@@UAEXPAVioBaseChar@@@Z
	DD	FLAT:?ReleseWereWolfStateByOwner@ioAttackableItem@@UAEXPAVioBaseChar@@@Z
	DD	FLAT:?IncreaseChangeDamage@ioAttackableItem@@UAEXMH_N@Z
	DD	FLAT:?IncreaseChangeDamageByWeapon@ioAttackableItem@@UAEXM@Z
	DD	FLAT:?CheckIncreaseChangeDamage@ioAttackableItem@@UAEXPAVioBaseChar@@@Z
	DD	FLAT:?DecreaseChangeDamage@ioAttackableItem@@UAEXPAVioBaseChar@@@Z
	DD	FLAT:?IsEnableActionStopDelay@ioAttackableItem@@UAE_NXZ
	DD	FLAT:?SetExtraGaugeTypeByWeapon@ioArmorItem@@UAEXPAVioBaseChar@@HHM@Z
	DD	FLAT:?SetUseExtraGauge@ioAttackableItem@@UAEXM@Z
	DD	FLAT:?InitExtraGauge@ioAttackableItem@@UAEXXZ
	DD	FLAT:?MaxExtraGauge@ioAttackableItem@@UAEXXZ
	DD	FLAT:?GetMaxExtraGauge@ioAttackableItem@@UAEMXZ
	DD	FLAT:?GetCurExtraGauge@ioAttackableItem@@UAEMXZ
	DD	FLAT:?SetCurExtraGauge@ioAttackableItem@@UAEXM@Z
	DD	FLAT:?GetAutoTargetValue@ioAttackableItem@@UAEXPAVioBaseChar@@AAM11W4AutoTargetType@@@Z
	DD	FLAT:?ClearAirJump@ioAttackableItem@@UAEXXZ
	DD	FLAT:?SetAirJump@ioAttackableItem@@UAEXPAVioBaseChar@@HM@Z
	DD	FLAT:?CheckAirJump@ioAttackableItem@@UAEXPAVioBaseChar@@@Z
	DD	FLAT:?IsAutoTarget@ioAttackableItem@@UBE_NXZ
	DD	FLAT:?EquipObjectItemByAttakable@ioAttackableItem@@UAEXPAVioBaseChar@@PAVioItem@@@Z
	DD	FLAT:?ReleaseObjectItemByAttack@ioAttackableItem@@UAEXPAVioBaseChar@@PAVioItem@@@Z
	DD	FLAT:?IsBuffFlyChange@ioAttackableItem@@UAE_NPAVioBaseChar@@@Z
	DD	FLAT:?GetAttackStateText@ioAttackableItem@@UBEPBDXZ
	DD	FLAT:?SetJumpLandingExtraState@ioAttackableItem@@UAE_NPAVioBaseChar@@@Z
	DD	FLAT:?IsWoundAfterUseExtendState@ioAttackableItem@@UAE_NXZ
	DD	FLAT:?CheckWoundAfterUseExtendState@ioAttackableItem@@UAE_NPAVioBaseChar@@W4BlowTargetType@@@Z
	DD	FLAT:?IsCharSkipState@ioAttackableItem@@UAE_NPBVioBaseChar@@@Z
CONST	ENDS
;	COMDAT xdata$x
xdata$x	SEGMENT
__ehfuncinfo$??1ioArmorItem@@UAE@XZ DD 019930522H
	DD	06H
	DD	FLAT:__unwindtable$??1ioArmorItem@@UAE@XZ
	DD	2 DUP(00H)
	DD	2 DUP(00H)
	DD	00H
	DD	01H
__unwindtable$??1ioArmorItem@@UAE@XZ DD 0ffffffffH
	DD	FLAT:__unwindfunclet$??1ioArmorItem@@UAE@XZ$0
	DD	00H
	DD	FLAT:__unwindfunclet$??1ioArmorItem@@UAE@XZ$1
	DD	01H
	DD	FLAT:__unwindfunclet$??1ioArmorItem@@UAE@XZ$2
	DD	02H
	DD	FLAT:__unwindfunclet$??1ioArmorItem@@UAE@XZ$3
	DD	03H
	DD	FLAT:__unwindfunclet$??1ioArmorItem@@UAE@XZ$4
	DD	04H
	DD	FLAT:__unwindfunclet$??1ioArmorItem@@UAE@XZ$5
; Function compile flags: /Ogsp
xdata$x	ENDS
;	COMDAT ??1ioArmorItem@@UAE@XZ
_TEXT	SEGMENT
_this$ = -16						; size = 4
__$EHRec$ = -12						; size = 12
??1ioArmorItem@@UAE@XZ PROC				; ioArmorItem::~ioArmorItem, COMDAT
; _this$ = ecx

; 36   : {

  00000	6a 04		 push	 4
  00002	b8 00 00 00 00	 mov	 eax, __ehhandler$??1ioArmorItem@@UAE@XZ
  00007	e8 00 00 00 00	 call	 __EH_prolog3
  0000c	8b f1		 mov	 esi, ecx
  0000e	89 75 f0	 mov	 DWORD PTR _this$[ebp], esi
  00011	c7 06 00 00 00
	00		 mov	 DWORD PTR [esi], OFFSET ??_7ioArmorItem@@6B@

; 37   : 	m_BodyMeshMap.clear();

  00017	8d 8e c8 17 00
	00		 lea	 ecx, DWORD PTR [esi+6088]
  0001d	c7 45 fc 05 00
	00 00		 mov	 DWORD PTR __$EHRec$[ebp+8], 5
  00024	e8 00 00 00 00	 call	 ?clear@?$_Tree@V?$_Tmap_traits@KVioHashString@@U?$less@K@std@@V?$allocator@U?$pair@$$CBKVioHashString@@@std@@@3@$0A@@std@@@std@@QAEXXZ ; std::_Tree<std::_Tmap_traits<unsigned long,ioHashString,std::less<unsigned long>,std::allocator<std::pair<unsigned long const ,ioHashString> >,0> >::clear

; 38   : 	m_HandMeshMap.clear();

  00029	8d 8e d8 17 00
	00		 lea	 ecx, DWORD PTR [esi+6104]
  0002f	e8 00 00 00 00	 call	 ?clear@?$_Tree@V?$_Tmap_traits@KVioHashString@@U?$less@K@std@@V?$allocator@U?$pair@$$CBKVioHashString@@@std@@@3@$0A@@std@@@std@@QAEXXZ ; std::_Tree<std::_Tmap_traits<unsigned long,ioHashString,std::less<unsigned long>,std::allocator<std::pair<unsigned long const ,ioHashString> >,0> >::clear

; 39   : 
; 40   : 	SAFEDELETE( m_pSpringParam );

  00034	8b be 00 18 00
	00		 mov	 edi, DWORD PTR [esi+6144]
  0003a	85 ff		 test	 edi, edi
  0003c	74 16		 je	 SHORT $LN1@ioArmorIte
  0003e	8d 4f 14	 lea	 ecx, DWORD PTR [edi+20]
  00041	e8 00 00 00 00	 call	 ?_Tidy@?$vector@USwingParam@@V?$allocator@USwingParam@@@std@@@std@@IAEXXZ ; std::vector<SwingParam,std::allocator<SwingParam> >::_Tidy
  00046	57		 push	 edi
  00047	e8 00 00 00 00	 call	 ??3@YAXPAX@Z		; operator delete
  0004c	83 a6 00 18 00
	00 00		 and	 DWORD PTR [esi+6144], 0
  00053	59		 pop	 ecx
$LN1@ioArmorIte:

; 41   : }

  00054	8b 3d 00 00 00
	00		 mov	 edi, DWORD PTR __imp_??1ioHashString@@QAE@XZ
  0005a	8d 8e f0 17 00
	00		 lea	 ecx, DWORD PTR [esi+6128]
  00060	c6 45 fc 04	 mov	 BYTE PTR __$EHRec$[ebp+8], 4
  00064	ff d7		 call	 edi
  00066	8d 8e d8 17 00
	00		 lea	 ecx, DWORD PTR [esi+6104]
  0006c	c6 45 fc 03	 mov	 BYTE PTR __$EHRec$[ebp+8], 3
  00070	e8 00 00 00 00	 call	 ??1?$_Tree@V?$_Tmap_traits@KVioHashString@@U?$less@K@std@@V?$allocator@U?$pair@$$CBKVioHashString@@@std@@@3@$0A@@std@@@std@@QAE@XZ ; std::_Tree<std::_Tmap_traits<unsigned long,ioHashString,std::less<unsigned long>,std::allocator<std::pair<unsigned long const ,ioHashString> >,0> >::~_Tree<std::_Tmap_traits<unsigned long,ioHashString,std::less<unsigned long>,std::allocator<std::pair<unsigned long const ,ioHashString> >,0> >
  00075	8d 8e c8 17 00
	00		 lea	 ecx, DWORD PTR [esi+6088]
  0007b	c6 45 fc 02	 mov	 BYTE PTR __$EHRec$[ebp+8], 2
  0007f	e8 00 00 00 00	 call	 ??1?$_Tree@V?$_Tmap_traits@KVioHashString@@U?$less@K@std@@V?$allocator@U?$pair@$$CBKVioHashString@@@std@@@3@$0A@@std@@@std@@QAE@XZ ; std::_Tree<std::_Tmap_traits<unsigned long,ioHashString,std::less<unsigned long>,std::allocator<std::pair<unsigned long const ,ioHashString> >,0> >::~_Tree<std::_Tmap_traits<unsigned long,ioHashString,std::less<unsigned long>,std::allocator<std::pair<unsigned long const ,ioHashString> >,0> >
  00084	8d 8e b8 17 00
	00		 lea	 ecx, DWORD PTR [esi+6072]
  0008a	c6 45 fc 01	 mov	 BYTE PTR __$EHRec$[ebp+8], 1
  0008e	ff d7		 call	 edi
  00090	8d 8e a8 17 00
	00		 lea	 ecx, DWORD PTR [esi+6056]
  00096	c6 45 fc 00	 mov	 BYTE PTR __$EHRec$[ebp+8], 0
  0009a	ff d7		 call	 edi
  0009c	83 4d fc ff	 or	 DWORD PTR __$EHRec$[ebp+8], -1
  000a0	8b ce		 mov	 ecx, esi
  000a2	e8 00 00 00 00	 call	 ??1ioAttackableItem@@UAE@XZ ; ioAttackableItem::~ioAttackableItem
  000a7	e8 00 00 00 00	 call	 __EH_epilog3
  000ac	c3		 ret	 0
_TEXT	ENDS
;	COMDAT text$x
text$x	SEGMENT
__unwindfunclet$??1ioArmorItem@@UAE@XZ$0:
  00000	8b 4d f0	 mov	 ecx, DWORD PTR _this$[ebp]
  00003	e9 00 00 00 00	 jmp	 ??1ioAttackableItem@@UAE@XZ ; ioAttackableItem::~ioAttackableItem
__unwindfunclet$??1ioArmorItem@@UAE@XZ$1:
  00008	8b 4d f0	 mov	 ecx, DWORD PTR _this$[ebp]
  0000b	81 c1 a8 17 00
	00		 add	 ecx, 6056		; 000017a8H
  00011	ff 25 00 00 00
	00		 jmp	 DWORD PTR __imp_??1ioHashString@@QAE@XZ
__unwindfunclet$??1ioArmorItem@@UAE@XZ$2:
  00017	8b 4d f0	 mov	 ecx, DWORD PTR _this$[ebp]
  0001a	81 c1 b8 17 00
	00		 add	 ecx, 6072		; 000017b8H
  00020	ff 25 00 00 00
	00		 jmp	 DWORD PTR __imp_??1ioHashString@@QAE@XZ
__unwindfunclet$??1ioArmorItem@@UAE@XZ$3:
  00026	8b 4d f0	 mov	 ecx, DWORD PTR _this$[ebp]
  00029	81 c1 c8 17 00
	00		 add	 ecx, 6088		; 000017c8H
  0002f	e9 00 00 00 00	 jmp	 ??1?$map@KVioHashString@@U?$less@K@std@@V?$allocator@U?$pair@$$CBKVioHashString@@@std@@@3@@std@@QAE@XZ
__unwindfunclet$??1ioArmorItem@@UAE@XZ$4:
  00034	8b 4d f0	 mov	 ecx, DWORD PTR _this$[ebp]
  00037	81 c1 d8 17 00
	00		 add	 ecx, 6104		; 000017d8H
  0003d	e9 00 00 00 00	 jmp	 ??1?$map@KVioHashString@@U?$less@K@std@@V?$allocator@U?$pair@$$CBKVioHashString@@@std@@@3@@std@@QAE@XZ
__unwindfunclet$??1ioArmorItem@@UAE@XZ$5:
  00042	8b 4d f0	 mov	 ecx, DWORD PTR _this$[ebp]
  00045	81 c1 f0 17 00
	00		 add	 ecx, 6128		; 000017f0H
  0004b	ff 25 00 00 00
	00		 jmp	 DWORD PTR __imp_??1ioHashString@@QAE@XZ
__ehhandler$??1ioArmorItem@@UAE@XZ:
  00051	8b 54 24 08	 mov	 edx, DWORD PTR [esp+8]
  00055	8d 42 0c	 lea	 eax, DWORD PTR [edx+12]
  00058	8b 4a ec	 mov	 ecx, DWORD PTR [edx-20]
  0005b	33 c8		 xor	 ecx, eax
  0005d	e8 00 00 00 00	 call	 @__security_check_cookie@4
  00062	b8 00 00 00 00	 mov	 eax, OFFSET __ehfuncinfo$??1ioArmorItem@@UAE@XZ
  00067	e9 00 00 00 00	 jmp	 ___CxxFrameHandler3
text$x	ENDS
??1ioArmorItem@@UAE@XZ ENDP				; ioArmorItem::~ioArmorItem
PUBLIC	?return1@@YAIXZ					; return1
; Function compile flags: /Ogsp
; File d:\lost saga for developer\youtube\tutorial\source\src\lsclient\stdafx.h
;	COMDAT ?return1@@YAIXZ
_TEXT	SEGMENT
?return1@@YAIXZ PROC					; return1, COMDAT

; 17   : 	__forceinline unsigned int return1() { __asm mov eax, 1 };

  00000	b8 01 00 00 00	 mov	 eax, 1
  00005	c3		 ret	 0
?return1@@YAIXZ ENDP					; return1
; Function compile flags: /Ogsp
; File d:\lost saga for developer\youtube\tutorial\source\src\lsclient\ioitem.h
_TEXT	ENDS
;	COMDAT ?IsEnableExtraGauge@ioItem@@UAE_NPAVioBaseChar@@@Z
_TEXT	SEGMENT
_pChar$ = 8						; size = 4
?IsEnableExtraGauge@ioItem@@UAE_NPAVioBaseChar@@@Z PROC	; ioItem::IsEnableExtraGauge, COMDAT
; _this$ = ecx

; 375  : 	virtual bool IsEnableExtraGauge( ioBaseChar *pChar ) { return true; }

  00000	b0 01		 mov	 al, 1
  00002	c2 04 00	 ret	 4
?IsEnableExtraGauge@ioItem@@UAE_NPAVioBaseChar@@@Z ENDP	; ioItem::IsEnableExtraGauge
; Function compile flags: /Ogsp
_TEXT	ENDS
;	COMDAT ?GetExtraGauge@ioItem@@UAEMXZ
_TEXT	SEGMENT
tv64 = -4						; size = 4
?GetExtraGauge@ioItem@@UAEMXZ PROC			; ioItem::GetExtraGauge, COMDAT
; _this$ = ecx

; 376  : 	virtual float GetExtraGauge() { return FLOAT1; }

  00000	55		 push	 ebp
  00001	8b ec		 mov	 ebp, esp
  00003	51		 push	 ecx
  00004	b8 01 00 00 00	 mov	 eax, 1
  00009	89 45 fc	 mov	 DWORD PTR tv64[ebp], eax
  0000c	db 45 fc	 fild	 DWORD PTR tv64[ebp]
  0000f	85 c0		 test	 eax, eax
  00011	79 06		 jns	 SHORT $LN5@GetExtraGa
  00013	d8 05 00 00 00
	00		 fadd	 DWORD PTR __real@4f800000
$LN5@GetExtraGa:
  00019	c9		 leave
  0001a	c3		 ret	 0
?GetExtraGauge@ioItem@@UAEMXZ ENDP			; ioItem::GetExtraGauge
; Function compile flags: /Ogsp
; File d:\lost saga for developer\youtube\tutorial\source\src\lsclient\ioattackableitem.h
_TEXT	ENDS
;	COMDAT ?CheckOnHand@ioAttackableItem@@UAE_NXZ
_TEXT	SEGMENT
?CheckOnHand@ioAttackableItem@@UAE_NXZ PROC		; ioAttackableItem::CheckOnHand, COMDAT
; _this$ = ecx

; 429  : 	virtual bool CheckOnHand() { return false; }

  00000	32 c0		 xor	 al, al
  00002	c3		 ret	 0
?CheckOnHand@ioAttackableItem@@UAE_NXZ ENDP		; ioAttackableItem::CheckOnHand
; Function compile flags: /Ogsp
_TEXT	ENDS
;	COMDAT ?CheckAimState@ioAttackableItem@@UAE_N_N@Z
_TEXT	SEGMENT
_bAimMove$ = 8						; size = 1
?CheckAimState@ioAttackableItem@@UAE_N_N@Z PROC		; ioAttackableItem::CheckAimState, COMDAT
; _this$ = ecx

; 430  : 	virtual bool CheckAimState( bool bAimMove = false ) { return false; }

  00000	32 c0		 xor	 al, al
  00002	c2 04 00	 ret	 4
?CheckAimState@ioAttackableItem@@UAE_N_N@Z ENDP		; ioAttackableItem::CheckAimState
; Function compile flags: /Ogsp
_TEXT	ENDS
;	COMDAT ?SetAimState@ioAttackableItem@@UAE_NPAVioBaseChar@@@Z
_TEXT	SEGMENT
_pChar$ = 8						; size = 4
?SetAimState@ioAttackableItem@@UAE_NPAVioBaseChar@@@Z PROC ; ioAttackableItem::SetAimState, COMDAT
; _this$ = ecx

; 431  : 	virtual bool SetAimState( ioBaseChar *pChar ) { return false; }

  00000	32 c0		 xor	 al, al
  00002	c2 04 00	 ret	 4
?SetAimState@ioAttackableItem@@UAE_NPAVioBaseChar@@@Z ENDP ; ioAttackableItem::SetAimState
; Function compile flags: /Ogsp
_TEXT	ENDS
;	COMDAT ?CheckExtendDefenseEnable@ioAttackableItem@@UAE_NPAVioBaseChar@@@Z
_TEXT	SEGMENT
_pChar$ = 8						; size = 4
?CheckExtendDefenseEnable@ioAttackableItem@@UAE_NPAVioBaseChar@@@Z PROC ; ioAttackableItem::CheckExtendDefenseEnable, COMDAT
; _this$ = ecx

; 434  : 	virtual bool CheckExtendDefenseEnable( ioBaseChar *pChar ) { return true; }

  00000	b0 01		 mov	 al, 1
  00002	c2 04 00	 ret	 4
?CheckExtendDefenseEnable@ioAttackableItem@@UAE_NPAVioBaseChar@@@Z ENDP ; ioAttackableItem::CheckExtendDefenseEnable
; Function compile flags: /Ogsp
_TEXT	ENDS
;	COMDAT ?IsChargeAttackState@ioAttackableItem@@UAE_NPAVioBaseChar@@@Z
_TEXT	SEGMENT
_pOwner$ = 8						; size = 4
?IsChargeAttackState@ioAttackableItem@@UAE_NPAVioBaseChar@@@Z PROC ; ioAttackableItem::IsChargeAttackState, COMDAT
; _this$ = ecx

; 436  : 	virtual bool IsChargeAttackState( ioBaseChar *pOwner ) { return false; }

  00000	32 c0		 xor	 al, al
  00002	c2 04 00	 ret	 4
?IsChargeAttackState@ioAttackableItem@@UAE_NPAVioBaseChar@@@Z ENDP ; ioAttackableItem::IsChargeAttackState
; Function compile flags: /Ogsp
_TEXT	ENDS
;	COMDAT ?IsMoveAttackState@ioAttackableItem@@UAE_NPAVioBaseChar@@@Z
_TEXT	SEGMENT
_pOwner$ = 8						; size = 4
?IsMoveAttackState@ioAttackableItem@@UAE_NPAVioBaseChar@@@Z PROC ; ioAttackableItem::IsMoveAttackState, COMDAT
; _this$ = ecx

; 437  : 	virtual bool IsMoveAttackState( ioBaseChar *pOwner ) { return false; }

  00000	32 c0		 xor	 al, al
  00002	c2 04 00	 ret	 4
?IsMoveAttackState@ioAttackableItem@@UAE_NPAVioBaseChar@@@Z ENDP ; ioAttackableItem::IsMoveAttackState
; Function compile flags: /Ogsp
_TEXT	ENDS
;	COMDAT ?IsNoGhostWalk@ioAttackableItem@@UAE_NPAVioBaseChar@@@Z
_TEXT	SEGMENT
_pOwner$ = 8						; size = 4
?IsNoGhostWalk@ioAttackableItem@@UAE_NPAVioBaseChar@@@Z PROC ; ioAttackableItem::IsNoGhostWalk, COMDAT
; _this$ = ecx

; 439  : 	virtual bool IsNoGhostWalk( ioBaseChar *pOwner ) { return false; }

  00000	32 c0		 xor	 al, al
  00002	c2 04 00	 ret	 4
?IsNoGhostWalk@ioAttackableItem@@UAE_NPAVioBaseChar@@@Z ENDP ; ioAttackableItem::IsNoGhostWalk
; Function compile flags: /Ogsp
_TEXT	ENDS
;	COMDAT ?IsEnableAttackDashCheck@ioAttackableItem@@UAE_NPAVioBaseChar@@_N@Z
_TEXT	SEGMENT
_pOwner$ = 8						; size = 4
_bCheck$ = 12						; size = 1
?IsEnableAttackDashCheck@ioAttackableItem@@UAE_NPAVioBaseChar@@_N@Z PROC ; ioAttackableItem::IsEnableAttackDashCheck, COMDAT
; _this$ = ecx

; 441  : 	virtual bool IsEnableAttackDashCheck( ioBaseChar *pOwner, bool bCheck ) { return false; }

  00000	32 c0		 xor	 al, al
  00002	c2 08 00	 ret	 8
?IsEnableAttackDashCheck@ioAttackableItem@@UAE_NPAVioBaseChar@@_N@Z ENDP ; ioAttackableItem::IsEnableAttackDashCheck
; Function compile flags: /Ogsp
_TEXT	ENDS
;	COMDAT ?IsEnableItemDashCheck@ioAttackableItem@@UAE_NPAVioBaseChar@@_N@Z
_TEXT	SEGMENT
_pOwner$ = 8						; size = 4
_bCheck$ = 12						; size = 1
?IsEnableItemDashCheck@ioAttackableItem@@UAE_NPAVioBaseChar@@_N@Z PROC ; ioAttackableItem::IsEnableItemDashCheck, COMDAT
; _this$ = ecx

; 442  : 	virtual bool IsEnableItemDashCheck( ioBaseChar *pOwner, bool bCheck ) { return false; }

  00000	32 c0		 xor	 al, al
  00002	c2 08 00	 ret	 8
?IsEnableItemDashCheck@ioAttackableItem@@UAE_NPAVioBaseChar@@_N@Z ENDP ; ioAttackableItem::IsEnableItemDashCheck
; Function compile flags: /Ogsp
_TEXT	ENDS
;	COMDAT ?IsEnableAttackRotateCheck@ioAttackableItem@@UAE_NPAVioBaseChar@@@Z
_TEXT	SEGMENT
_pOwner$ = 8						; size = 4
?IsEnableAttackRotateCheck@ioAttackableItem@@UAE_NPAVioBaseChar@@@Z PROC ; ioAttackableItem::IsEnableAttackRotateCheck, COMDAT
; _this$ = ecx

; 443  : 	virtual bool IsEnableAttackRotateCheck( ioBaseChar *pOwner ) { return false; }

  00000	32 c0		 xor	 al, al
  00002	c2 04 00	 ret	 4
?IsEnableAttackRotateCheck@ioAttackableItem@@UAE_NPAVioBaseChar@@@Z ENDP ; ioAttackableItem::IsEnableAttackRotateCheck
; Function compile flags: /Ogsp
_TEXT	ENDS
;	COMDAT ?IsEnableChargeDefenseCheck@ioAttackableItem@@UAE_NXZ
_TEXT	SEGMENT
?IsEnableChargeDefenseCheck@ioAttackableItem@@UAE_NXZ PROC ; ioAttackableItem::IsEnableChargeDefenseCheck, COMDAT
; _this$ = ecx

; 444  : 	virtual bool IsEnableChargeDefenseCheck() { return false; }

  00000	32 c0		 xor	 al, al
  00002	c3		 ret	 0
?IsEnableChargeDefenseCheck@ioAttackableItem@@UAE_NXZ ENDP ; ioAttackableItem::IsEnableChargeDefenseCheck
; Function compile flags: /Ogsp
_TEXT	ENDS
;	COMDAT ?IsUseDefenceCounterAttackEndDash@ioAttackableItem@@UAE_NXZ
_TEXT	SEGMENT
?IsUseDefenceCounterAttackEndDash@ioAttackableItem@@UAE_NXZ PROC ; ioAttackableItem::IsUseDefenceCounterAttackEndDash, COMDAT
; _this$ = ecx

; 464  : 	virtual bool IsUseDefenceCounterAttackEndDash() { return false; }

  00000	32 c0		 xor	 al, al
  00002	c3		 ret	 0
?IsUseDefenceCounterAttackEndDash@ioAttackableItem@@UAE_NXZ ENDP ; ioAttackableItem::IsUseDefenceCounterAttackEndDash
; Function compile flags: /Ogsp
_TEXT	ENDS
;	COMDAT ?IsAutoTarget@ioAttackableItem@@UBE_NXZ
_TEXT	SEGMENT
?IsAutoTarget@ioAttackableItem@@UBE_NXZ PROC		; ioAttackableItem::IsAutoTarget, COMDAT
; _this$ = ecx

; 707  : 	virtual bool IsAutoTarget() const { return true; }

  00000	b0 01		 mov	 al, 1
  00002	c3		 ret	 0
?IsAutoTarget@ioAttackableItem@@UBE_NXZ ENDP		; ioAttackableItem::IsAutoTarget
; Function compile flags: /Ogsp
_TEXT	ENDS
;	COMDAT ?IsWoundAfterUseExtendState@ioAttackableItem@@UAE_NXZ
_TEXT	SEGMENT
?IsWoundAfterUseExtendState@ioAttackableItem@@UAE_NXZ PROC ; ioAttackableItem::IsWoundAfterUseExtendState, COMDAT
; _this$ = ecx

; 724  : 	virtual bool IsWoundAfterUseExtendState(){ return false; }

  00000	32 c0		 xor	 al, al
  00002	c3		 ret	 0
?IsWoundAfterUseExtendState@ioAttackableItem@@UAE_NXZ ENDP ; ioAttackableItem::IsWoundAfterUseExtendState
; Function compile flags: /Ogsp
_TEXT	ENDS
;	COMDAT ?CheckWoundAfterUseExtendState@ioAttackableItem@@UAE_NPAVioBaseChar@@W4BlowTargetType@@@Z
_TEXT	SEGMENT
_pOwner$ = 8						; size = 4
_eType$ = 12						; size = 4
?CheckWoundAfterUseExtendState@ioAttackableItem@@UAE_NPAVioBaseChar@@W4BlowTargetType@@@Z PROC ; ioAttackableItem::CheckWoundAfterUseExtendState, COMDAT
; _this$ = ecx

; 725  : 	virtual bool CheckWoundAfterUseExtendState( ioBaseChar* pOwner, BlowTargetType eType ){ return false; }

  00000	32 c0		 xor	 al, al
  00002	c2 08 00	 ret	 8
?CheckWoundAfterUseExtendState@ioAttackableItem@@UAE_NPAVioBaseChar@@W4BlowTargetType@@@Z ENDP ; ioAttackableItem::CheckWoundAfterUseExtendState
; Function compile flags: /Ogsp
_TEXT	ENDS
;	COMDAT ?IsCharSkipState@ioAttackableItem@@UAE_NPBVioBaseChar@@@Z
_TEXT	SEGMENT
_pOwner$ = 8						; size = 4
?IsCharSkipState@ioAttackableItem@@UAE_NPBVioBaseChar@@@Z PROC ; ioAttackableItem::IsCharSkipState, COMDAT
; _this$ = ecx

; 728  : 	virtual bool IsCharSkipState( const ioBaseChar* pOwner ){ return false; }

  00000	32 c0		 xor	 al, al
  00002	c2 04 00	 ret	 4
?IsCharSkipState@ioAttackableItem@@UAE_NPBVioBaseChar@@@Z ENDP ; ioAttackableItem::IsCharSkipState
_TEXT	ENDS
PUBLIC	__real@428c0000
PUBLIC	__real@41f00000
PUBLIC	__real@c2a00000
PUBLIC	__real@42340000
PUBLIC	__real@c2340000
PUBLIC	__real@3ecccccd
PUBLIC	__real@41700000
PUBLIC	__real@43c80000
PUBLIC	??_C@_00CNPNBAHC@?$AA@				; `string'
PUBLIC	_rkLoader$GSCopy$
EXTRN	__imp_??4ioHashString@@QAEAAV0@PBD@Z:PROC
EXTRN	__imp__sprintf:PROC
EXTRN	?LoadProperty@ioAttackableItem@@UAEXAAVioINILoader@@@Z:PROC ; ioAttackableItem::LoadProperty
;	COMDAT __real@428c0000
; File d:\lost saga for developer\youtube\tutorial\source\src\lsclient\encryptvalue.h
CONST	SEGMENT
__real@428c0000 DD 0428c0000r			; 70
CONST	ENDS
;	COMDAT __real@41f00000
CONST	SEGMENT
__real@41f00000 DD 041f00000r			; 30
CONST	ENDS
;	COMDAT __real@c2a00000
CONST	SEGMENT
__real@c2a00000 DD 0c2a00000r			; -80
CONST	ENDS
;	COMDAT __real@42340000
CONST	SEGMENT
__real@42340000 DD 042340000r			; 45
CONST	ENDS
;	COMDAT __real@c2340000
CONST	SEGMENT
__real@c2340000 DD 0c2340000r			; -45
CONST	ENDS
;	COMDAT __real@3ecccccd
CONST	SEGMENT
__real@3ecccccd DD 03ecccccdr			; 0.4
CONST	ENDS
;	COMDAT __real@41700000
CONST	SEGMENT
__real@41700000 DD 041700000r			; 15
CONST	ENDS
;	COMDAT __real@43c80000
CONST	SEGMENT
__real@43c80000 DD 043c80000r			; 400
CONST	ENDS
;	COMDAT ??_C@_00CNPNBAHC@?$AA@
CONST	SEGMENT
??_C@_00CNPNBAHC@?$AA@ DB 00H				; `string'
CONST	ENDS
;	COMDAT xdata$x
xdata$x	SEGMENT
__unwindtable$?LoadProperty@ioArmorItem@@UAEXAAVioINILoader@@@Z DD 0ffffffffH
	DD	FLAT:__unwindfunclet$?LoadProperty@ioArmorItem@@UAEXAAVioINILoader@@@Z$0
	DD	0ffffffffH
	DD	FLAT:__unwindfunclet$?LoadProperty@ioArmorItem@@UAEXAAVioINILoader@@@Z$1
__ehfuncinfo$?LoadProperty@ioArmorItem@@UAEXAAVioINILoader@@@Z DD 019930522H
	DD	02H
	DD	FLAT:__unwindtable$?LoadProperty@ioArmorItem@@UAEXAAVioINILoader@@@Z
	DD	2 DUP(00H)
	DD	2 DUP(00H)
	DD	00H
	DD	01H
; Function compile flags: /Ogsp
; File d:\lost saga for developer\youtube\tutorial\source\src\lsclient\ioarmoritem.cpp
xdata$x	ENDS
;	COMDAT ?LoadProperty@ioArmorItem@@UAEXAAVioINILoader@@@Z
_TEXT	SEGMENT
$T533181 = -672						; size = 8
_value$534302 = -664					; size = 4
_rkLoader$GSCopy$ = -660				; size = 4
tv8480 = -656						; size = 4
tv8476 = -656						; size = 4
tv8472 = -656						; size = 4
tv8467 = -656						; size = 4
tv8463 = -656						; size = 4
tv8459 = -656						; size = 4
tv8449 = -656						; size = 4
_value$534173 = -656					; size = 4
_value$534043 = -656					; size = 4
_value$533913 = -656					; size = 4
_iDecoCnt$ = -656					; size = 4
_szTitle$ = -652					; size = 260
_szBuf$ = -392						; size = 260
__k$534190 = -132					; size = 27
___encStr$523748 = -100					; size = 12
__k$533342 = -84					; size = 11
$T533183 = -80						; size = 8
__k$533605 = -68					; size = 13
_kSwing$524488 = -68					; size = 16
___encStr$524298 = -68					; size = 12
__k$534107 = -48					; size = 23
__k$533943 = -48					; size = 25
__k$533813 = -44					; size = 21
__k$533467 = -40					; size = 17
$T533182 = -40						; size = 20
$T533180 = -40						; size = 20
__$EHRec$ = -12						; size = 12
_rkLoader$ = 8						; size = 4
?LoadProperty@ioArmorItem@@UAEXAAVioINILoader@@@Z PROC	; ioArmorItem::LoadProperty, COMDAT
; _this$ = ecx

; 44   : {

  00000	68 94 02 00 00	 push	 660			; 00000294H
  00005	b8 00 00 00 00	 mov	 eax, __ehhandler$?LoadProperty@ioArmorItem@@UAEXAAVioINILoader@@@Z
  0000a	e8 00 00 00 00	 call	 __EH_prolog3_GS
  0000f	8b 45 08	 mov	 eax, DWORD PTR _rkLoader$[ebp]

; 45   : 	ioAttackableItem::LoadProperty( rkLoader );

  00012	50		 push	 eax
  00013	8b d9		 mov	 ebx, ecx

; 46   : 
; 47   : 	char szBuf[MAX_PATH];
; 48   : 	char szTitle[MAX_PATH];
; 49   : 
; 50   : 	int iDecoCnt = 0;

  00015	89 85 6c fd ff
	ff		 mov	 DWORD PTR _rkLoader$GSCopy$[ebp], eax
  0001b	e8 00 00 00 00	 call	 ?LoadProperty@ioAttackableItem@@UAEXAAVioINILoader@@@Z ; ioAttackableItem::LoadProperty
  00020	83 a5 70 fd ff
	ff 00		 and	 DWORD PTR _iDecoCnt$[ebp], 0

; 51   : 	m_BodyMeshMap.clear();

  00027	8d 8b c8 17 00
	00		 lea	 ecx, DWORD PTR [ebx+6088]
  0002d	e8 00 00 00 00	 call	 ?clear@?$_Tree@V?$_Tmap_traits@KVioHashString@@U?$less@K@std@@V?$allocator@U?$pair@$$CBKVioHashString@@@std@@@3@$0A@@std@@@std@@QAEXXZ ; std::_Tree<std::_Tmap_traits<unsigned long,ioHashString,std::less<unsigned long>,std::allocator<std::pair<unsigned long const ,ioHashString> >,0> >::clear

; 52   : 	m_HandMeshMap.clear();

  00032	8d 8b d8 17 00
	00		 lea	 ecx, DWORD PTR [ebx+6104]
  00038	e8 00 00 00 00	 call	 ?clear@?$_Tree@V?$_Tmap_traits@KVioHashString@@U?$less@K@std@@V?$allocator@U?$pair@$$CBKVioHashString@@@std@@@3@$0A@@std@@@std@@QAEXXZ ; std::_Tree<std::_Tmap_traits<unsigned long,ioHashString,std::less<unsigned long>,std::allocator<std::pair<unsigned long const ,ioHashString> >,0> >::clear
$LL203@LoadProper:

; 53   : 	while( true )
; 54   : 	{
; 55   : 		sprintf_e( szTitle, "body_mesh%d", iDecoCnt );

  0003d	6a 02		 push	 2
  0003f	c7 45 9c 8f 83
	8f 93		 mov	 DWORD PTR ___encStr$523748[ebp], -1819311217 ; 938f838fH
  00046	c7 45 a0 b2 81
	8e 99		 mov	 DWORD PTR ___encStr$523748[ebp+4], -1718713934 ; 998e81b2H
  0004d	8d 45 9c	 lea	 eax, DWORD PTR ___encStr$523748[ebp]
  00050	c7 45 a4 85 c9
	8f 00		 mov	 DWORD PTR ___encStr$523748[ebp+8], 9423237 ; 008fc985H
  00057	59		 pop	 ecx
$LL218@LoadProper:
  00058	81 30 ed ec eb
	ea		 xor	 DWORD PTR [eax], -353637139 ; eaebecedH
  0005e	83 c0 04	 add	 eax, 4
  00061	49		 dec	 ecx
  00062	75 f4		 jne	 SHORT $LL218@LoadProper
  00064	6a 08		 push	 8
  00066	5e		 pop	 esi
$LL215@LoadProper:
  00067	8b c6		 mov	 eax, esi
  00069	25 03 00 00 80	 and	 eax, -2147483645	; 80000003H
  0006e	79 05		 jns	 SHORT $LN1099@LoadProper
  00070	48		 dec	 eax
  00071	83 c8 fc	 or	 eax, -4			; fffffffcH
  00074	40		 inc	 eax
$LN1099@LoadProper:
  00075	b1 ed		 mov	 cl, -19			; ffffffedH
  00077	2a c8		 sub	 cl, al
  00079	30 4c 35 9c	 xor	 BYTE PTR ___encStr$523748[ebp+esi], cl
  0007d	46		 inc	 esi
  0007e	83 fe 0b	 cmp	 esi, 11			; 0000000bH
  00081	7c e4		 jl	 SHORT $LL215@LoadProper
  00083	ff b5 70 fd ff
	ff		 push	 DWORD PTR _iDecoCnt$[ebp]
  00089	8d 45 9c	 lea	 eax, DWORD PTR ___encStr$523748[ebp]
  0008c	50		 push	 eax
  0008d	8d 85 74 fd ff
	ff		 lea	 eax, DWORD PTR _szTitle$[ebp]
  00093	50		 push	 eax
  00094	ff 15 00 00 00
	00		 call	 DWORD PTR __imp__sprintf

; 56   : 		rkLoader.LoadString( szTitle, "", szBuf, MAX_PATH );

  0009a	8b 8d 6c fd ff
	ff		 mov	 ecx, DWORD PTR _rkLoader$GSCopy$[ebp]
  000a0	83 c4 0c	 add	 esp, 12			; 0000000cH
  000a3	68 04 01 00 00	 push	 260			; 00000104H
  000a8	8d 85 78 fe ff
	ff		 lea	 eax, DWORD PTR _szBuf$[ebp]
  000ae	50		 push	 eax
  000af	bf 00 00 00 00	 mov	 edi, OFFSET ??_C@_00CNPNBAHC@?$AA@
  000b4	57		 push	 edi
  000b5	8d 85 74 fd ff
	ff		 lea	 eax, DWORD PTR _szTitle$[ebp]
  000bb	50		 push	 eax
  000bc	ff 15 00 00 00
	00		 call	 DWORD PTR __imp_?LoadStringA@ioINILoader@@QAEXPBD0PADH@Z

; 57   : 		if( strcmp( szBuf, "" ) == 0 )

  000c2	33 c9		 xor	 ecx, ecx
  000c4	41		 inc	 ecx
  000c5	8d b5 78 fe ff
	ff		 lea	 esi, DWORD PTR _szBuf$[ebp]
  000cb	33 c0		 xor	 eax, eax
  000cd	f3 a6		 repe cmpsb
  000cf	0f 84 20 01 00
	00		 je	 $LN1077@LoadProper

; 58   : 			break;
; 59   : 		m_BodyMeshMap.insert( DecoInfoMap::value_type( iDecoCnt, szBuf ) );

  000d5	8b b5 70 fd ff
	ff		 mov	 esi, DWORD PTR _iDecoCnt$[ebp]
  000db	8b 3d 00 00 00
	00		 mov	 edi, DWORD PTR __imp_??0ioHashString@@QAE@PBD@Z
  000e1	8d 85 78 fe ff
	ff		 lea	 eax, DWORD PTR _szBuf$[ebp]
  000e7	50		 push	 eax
  000e8	8d 4d dc	 lea	 ecx, DWORD PTR $T533180[ebp+4]
  000eb	89 75 d8	 mov	 DWORD PTR $T533180[ebp], esi
  000ee	ff d7		 call	 edi
  000f0	83 65 fc 00	 and	 DWORD PTR __$EHRec$[ebp+8], 0
  000f4	6a 00		 push	 0
  000f6	8d 45 d8	 lea	 eax, DWORD PTR $T533180[ebp]
  000f9	50		 push	 eax
  000fa	8d 8b c8 17 00
	00		 lea	 ecx, DWORD PTR [ebx+6088]
  00100	e8 00 00 00 00	 call	 ??$_Buynode@U?$pair@$$CBKVioHashString@@@std@@@?$_Tree_val@V?$_Tmap_traits@KVioHashString@@U?$less@K@std@@V?$allocator@U?$pair@$$CBKVioHashString@@@std@@@3@$0A@@std@@@std@@QAEPAU_Node@?$_Tree_nod@V?$_Tmap_traits@KVioHashString@@U?$less@K@std@@V?$allocator@U?$pair@$$CBKVioHashString@@@std@@@3@$0A@@std@@@1@$$QAU?$pair@$$CBKVioHashString@@@1@@Z ; std::_Tree_val<std::_Tmap_traits<unsigned long,ioHashString,std::less<unsigned long>,std::allocator<std::pair<unsigned long const ,ioHashString> >,0> >::_Buynode<std::pair<unsigned long const ,ioHashString> >
  00105	50		 push	 eax
  00106	8d 85 60 fd ff
	ff		 lea	 eax, DWORD PTR $T533181[ebp]
  0010c	50		 push	 eax
  0010d	8d 8b c8 17 00
	00		 lea	 ecx, DWORD PTR [ebx+6088]
  00113	e8 00 00 00 00	 call	 ?_Linsert@?$_Tree@V?$_Tmap_traits@KVioHashString@@U?$less@K@std@@V?$allocator@U?$pair@$$CBKVioHashString@@@std@@@3@$0A@@std@@@std@@QAE?AU?$pair@V?$_Tree_iterator@V?$_Tree_val@V?$_Tmap_traits@KVioHashString@@U?$less@K@std@@V?$allocator@U?$pair@$$CBKVioHashString@@@std@@@3@$0A@@std@@@std@@@std@@_N@2@PAU_Node@?$_Tree_nod@V?$_Tmap_traits@KVioHashString@@U?$less@K@std@@V?$allocator@U?$pair@$$CBKVioHashString@@@std@@@3@$0A@@std@@@2@_N@Z ; std::_Tree<std::_Tmap_traits<unsigned long,ioHashString,std::less<unsigned long>,std::allocator<std::pair<unsigned long const ,ioHashString> >,0> >::_Linsert
  00118	83 4d fc ff	 or	 DWORD PTR __$EHRec$[ebp+8], -1
  0011c	8d 4d dc	 lea	 ecx, DWORD PTR $T533180[ebp+4]
  0011f	ff 15 00 00 00
	00		 call	 DWORD PTR __imp_??1ioHashString@@QAE@XZ
  00125	6a 02		 push	 2

; 60   : 
; 61   : 		sprintf_e( szTitle, "hand_mesh%d", iDecoCnt );

  00127	c7 45 bc 85 8d
	85 8e		 mov	 DWORD PTR ___encStr$524298[ebp], -1903850107 ; 8e858d85H
  0012e	c7 45 c0 b2 81
	8e 99		 mov	 DWORD PTR ___encStr$524298[ebp+4], -1718713934 ; 998e81b2H
  00135	8d 45 bc	 lea	 eax, DWORD PTR ___encStr$524298[ebp]
  00138	c7 45 c4 85 c9
	8f 00		 mov	 DWORD PTR ___encStr$524298[ebp+8], 9423237 ; 008fc985H
  0013f	59		 pop	 ecx
$LL250@LoadProper:
  00140	81 30 ed ec eb
	ea		 xor	 DWORD PTR [eax], -353637139 ; eaebecedH
  00146	83 c0 04	 add	 eax, 4
  00149	49		 dec	 ecx
  0014a	75 f4		 jne	 SHORT $LL250@LoadProper
  0014c	6a 08		 push	 8
  0014e	58		 pop	 eax
$LL247@LoadProper:
  0014f	8b c8		 mov	 ecx, eax
  00151	81 e1 03 00 00
	80		 and	 ecx, -2147483645	; 80000003H
  00157	79 05		 jns	 SHORT $LN1100@LoadProper
  00159	49		 dec	 ecx
  0015a	83 c9 fc	 or	 ecx, -4			; fffffffcH
  0015d	41		 inc	 ecx
$LN1100@LoadProper:
  0015e	b2 ed		 mov	 dl, -19			; ffffffedH
  00160	2a d1		 sub	 dl, cl
  00162	30 54 05 bc	 xor	 BYTE PTR ___encStr$524298[ebp+eax], dl
  00166	40		 inc	 eax
  00167	83 f8 0b	 cmp	 eax, 11			; 0000000bH
  0016a	7c e3		 jl	 SHORT $LL247@LoadProper
  0016c	56		 push	 esi
  0016d	8d 45 bc	 lea	 eax, DWORD PTR ___encStr$524298[ebp]
  00170	50		 push	 eax
  00171	8d 85 74 fd ff
	ff		 lea	 eax, DWORD PTR _szTitle$[ebp]
  00177	50		 push	 eax
  00178	ff 15 00 00 00
	00		 call	 DWORD PTR __imp__sprintf

; 62   : 		rkLoader.LoadString( szTitle, "", szBuf, MAX_PATH );		

  0017e	8b 8d 6c fd ff
	ff		 mov	 ecx, DWORD PTR _rkLoader$GSCopy$[ebp]
  00184	83 c4 0c	 add	 esp, 12			; 0000000cH
  00187	68 04 01 00 00	 push	 260			; 00000104H
  0018c	8d 85 78 fe ff
	ff		 lea	 eax, DWORD PTR _szBuf$[ebp]
  00192	50		 push	 eax
  00193	68 00 00 00 00	 push	 OFFSET ??_C@_00CNPNBAHC@?$AA@
  00198	8d 85 74 fd ff
	ff		 lea	 eax, DWORD PTR _szTitle$[ebp]
  0019e	50		 push	 eax
  0019f	ff 15 00 00 00
	00		 call	 DWORD PTR __imp_?LoadStringA@ioINILoader@@QAEXPBD0PADH@Z

; 63   : 		m_HandMeshMap.insert( DecoInfoMap::value_type( iDecoCnt, szBuf ) );

  001a5	8d 85 78 fe ff
	ff		 lea	 eax, DWORD PTR _szBuf$[ebp]
  001ab	50		 push	 eax
  001ac	8d 4d dc	 lea	 ecx, DWORD PTR $T533182[ebp+4]
  001af	89 75 d8	 mov	 DWORD PTR $T533182[ebp], esi
  001b2	ff d7		 call	 edi
  001b4	6a 00		 push	 0
  001b6	8d 45 d8	 lea	 eax, DWORD PTR $T533182[ebp]
  001b9	50		 push	 eax
  001ba	8d 8b d8 17 00
	00		 lea	 ecx, DWORD PTR [ebx+6104]
  001c0	c7 45 fc 01 00
	00 00		 mov	 DWORD PTR __$EHRec$[ebp+8], 1
  001c7	e8 00 00 00 00	 call	 ??$_Buynode@U?$pair@$$CBKVioHashString@@@std@@@?$_Tree_val@V?$_Tmap_traits@KVioHashString@@U?$less@K@std@@V?$allocator@U?$pair@$$CBKVioHashString@@@std@@@3@$0A@@std@@@std@@QAEPAU_Node@?$_Tree_nod@V?$_Tmap_traits@KVioHashString@@U?$less@K@std@@V?$allocator@U?$pair@$$CBKVioHashString@@@std@@@3@$0A@@std@@@1@$$QAU?$pair@$$CBKVioHashString@@@1@@Z ; std::_Tree_val<std::_Tmap_traits<unsigned long,ioHashString,std::less<unsigned long>,std::allocator<std::pair<unsigned long const ,ioHashString> >,0> >::_Buynode<std::pair<unsigned long const ,ioHashString> >
  001cc	50		 push	 eax
  001cd	8d 45 b0	 lea	 eax, DWORD PTR $T533183[ebp]
  001d0	50		 push	 eax
  001d1	8d 8b d8 17 00
	00		 lea	 ecx, DWORD PTR [ebx+6104]
  001d7	e8 00 00 00 00	 call	 ?_Linsert@?$_Tree@V?$_Tmap_traits@KVioHashString@@U?$less@K@std@@V?$allocator@U?$pair@$$CBKVioHashString@@@std@@@3@$0A@@std@@@std@@QAE?AU?$pair@V?$_Tree_iterator@V?$_Tree_val@V?$_Tmap_traits@KVioHashString@@U?$less@K@std@@V?$allocator@U?$pair@$$CBKVioHashString@@@std@@@3@$0A@@std@@@std@@@std@@_N@2@PAU_Node@?$_Tree_nod@V?$_Tmap_traits@KVioHashString@@U?$less@K@std@@V?$allocator@U?$pair@$$CBKVioHashString@@@std@@@3@$0A@@std@@@2@_N@Z ; std::_Tree<std::_Tmap_traits<unsigned long,ioHashString,std::less<unsigned long>,std::allocator<std::pair<unsigned long const ,ioHashString> >,0> >::_Linsert
  001dc	83 4d fc ff	 or	 DWORD PTR __$EHRec$[ebp+8], -1
  001e0	8d 4d dc	 lea	 ecx, DWORD PTR $T533182[ebp+4]
  001e3	ff 15 00 00 00
	00		 call	 DWORD PTR __imp_??1ioHashString@@QAE@XZ

; 64   : 		iDecoCnt++;

  001e9	46		 inc	 esi
  001ea	89 b5 70 fd ff
	ff		 mov	 DWORD PTR _iDecoCnt$[ebp], esi

; 65   : 	}	

  001f0	e9 48 fe ff ff	 jmp	 $LL203@LoadProper
$LN1077@LoadProper:

; 66   : 	SetItemType();      //Default.

  001f5	8b 03		 mov	 eax, DWORD PTR [ebx]
  001f7	8b cb		 mov	 ecx, ebx
  001f9	ff 50 40	 call	 DWORD PTR [eax+64]
  001fc	6a 02		 push	 2

; 67   : 
; 68   : 	m_ArmorType = (ArmorType)rkLoader.LoadInt_e( "armor_type", AT_UNARMOR );

  001fe	c7 45 ac 8c 9e
	86 85		 mov	 DWORD PTR __k$533342[ebp], -2054775156 ; 85869e8cH
  00205	c7 45 b0 9f b3
	9f 93		 mov	 DWORD PTR __k$533342[ebp+4], -1818250337 ; 939fb39fH
  0020c	66 c7 45 b4 9d
	89		 mov	 WORD PTR __k$533342[ebp+8], 35229 ; 0000899dH
  00212	8d 45 ac	 lea	 eax, DWORD PTR __k$533342[ebp]
  00215	c6 45 b6 00	 mov	 BYTE PTR __k$533342[ebp+10], 0
  00219	59		 pop	 ecx
$LL380@LoadProper:
  0021a	81 30 ed ec eb
	ea		 xor	 DWORD PTR [eax], -353637139 ; eaebecedH
  00220	83 c0 04	 add	 eax, 4
  00223	49		 dec	 ecx
  00224	75 f4		 jne	 SHORT $LL380@LoadProper
  00226	6a 08		 push	 8
  00228	5e		 pop	 esi
$LL377@LoadProper:
  00229	8b c6		 mov	 eax, esi
  0022b	25 03 00 00 80	 and	 eax, -2147483645	; 80000003H
  00230	79 05		 jns	 SHORT $LN1101@LoadProper
  00232	48		 dec	 eax
  00233	83 c8 fc	 or	 eax, -4			; fffffffcH
  00236	40		 inc	 eax
$LN1101@LoadProper:
  00237	b1 ed		 mov	 cl, -19			; ffffffedH
  00239	2a c8		 sub	 cl, al
  0023b	30 4c 35 ac	 xor	 BYTE PTR __k$533342[ebp+esi], cl
  0023f	46		 inc	 esi
  00240	83 fe 0a	 cmp	 esi, 10			; 0000000aH
  00243	7c e4		 jl	 SHORT $LL377@LoadProper
  00245	8b 8d 6c fd ff
	ff		 mov	 ecx, DWORD PTR _rkLoader$GSCopy$[ebp]
  0024b	8b 35 00 00 00
	00		 mov	 esi, DWORD PTR __imp_?LoadInt@ioINILoader@@QAEHPBDH@Z
  00251	6a 00		 push	 0
  00253	8d 45 ac	 lea	 eax, DWORD PTR __k$533342[ebp]
  00256	50		 push	 eax
  00257	ff d6		 call	 esi
  00259	6a 04		 push	 4
  0025b	89 83 ec 17 00
	00		 mov	 DWORD PTR [ebx+6124], eax

; 69   : 	m_iArmorSoundType = rkLoader.LoadInt_e( "armor_sound_type", 0 );

  00261	c7 45 d8 8c 9e
	86 85		 mov	 DWORD PTR __k$533467[ebp], -2054775156 ; 85869e8cH
  00268	c7 45 dc 9f b3
	98 85		 mov	 DWORD PTR __k$533467[ebp+4], -2053590113 ; 8598b39fH
  0026f	c7 45 e0 98 82
	8f b5		 mov	 DWORD PTR __k$533467[ebp+8], -1248886120 ; b58f8298H
  00276	c7 45 e4 99 95
	9b 8f		 mov	 DWORD PTR __k$533467[ebp+12], -1885629031 ; 8f9b9599H
  0027d	8d 45 d8	 lea	 eax, DWORD PTR __k$533467[ebp]
  00280	c6 45 e8 00	 mov	 BYTE PTR __k$533467[ebp+16], 0
  00284	59		 pop	 ecx
$LL486@LoadProper:
  00285	81 30 ed ec eb
	ea		 xor	 DWORD PTR [eax], -353637139 ; eaebecedH
  0028b	83 c0 04	 add	 eax, 4
  0028e	49		 dec	 ecx
  0028f	75 f4		 jne	 SHORT $LL486@LoadProper
  00291	51		 push	 ecx
  00292	8b 8d 6c fd ff
	ff		 mov	 ecx, DWORD PTR _rkLoader$GSCopy$[ebp]
  00298	8d 45 d8	 lea	 eax, DWORD PTR __k$533467[ebp]
  0029b	50		 push	 eax
  0029c	ff d6		 call	 esi
  0029e	6a 03		 push	 3
  002a0	89 83 e8 17 00
	00		 mov	 DWORD PTR [ebx+6120], eax

; 70   : 
; 71   : 	//
; 72   : 	rkLoader.LoadString_e( "spring_biped", "", szBuf, MAX_PATH );

  002a6	c7 45 bc 9e 9c
	99 83		 mov	 DWORD PTR __k$533605[ebp], -2087084898 ; 83999c9eH
  002ad	c7 45 c0 83 8b
	b4 88		 mov	 DWORD PTR __k$533605[ebp+4], -2001433725 ; 88b48b83H
  002b4	c7 45 c4 84 9c
	8e 8e		 mov	 DWORD PTR __k$533605[ebp+8], -1903256444 ; 8e8e9c84H
  002bb	8d 45 bc	 lea	 eax, DWORD PTR __k$533605[ebp]
  002be	c6 45 c8 00	 mov	 BYTE PTR __k$533605[ebp+12], 0
  002c2	59		 pop	 ecx
$LL592@LoadProper:
  002c3	81 30 ed ec eb
	ea		 xor	 DWORD PTR [eax], -353637139 ; eaebecedH
  002c9	83 c0 04	 add	 eax, 4
  002cc	49		 dec	 ecx
  002cd	75 f4		 jne	 SHORT $LL592@LoadProper
  002cf	8b 8d 6c fd ff
	ff		 mov	 ecx, DWORD PTR _rkLoader$GSCopy$[ebp]
  002d5	68 04 01 00 00	 push	 260			; 00000104H
  002da	8d 85 78 fe ff
	ff		 lea	 eax, DWORD PTR _szBuf$[ebp]
  002e0	50		 push	 eax
  002e1	68 00 00 00 00	 push	 OFFSET ??_C@_00CNPNBAHC@?$AA@
  002e6	8d 45 bc	 lea	 eax, DWORD PTR __k$533605[ebp]
  002e9	50		 push	 eax
  002ea	ff 15 00 00 00
	00		 call	 DWORD PTR __imp_?LoadStringA@ioINILoader@@QAEXPBD0PADH@Z

; 73   : 
; 74   : 	m_SpringBiped = szBuf;

  002f0	8d 85 78 fe ff
	ff		 lea	 eax, DWORD PTR _szBuf$[ebp]
  002f6	50		 push	 eax
  002f7	8d 8b f0 17 00
	00		 lea	 ecx, DWORD PTR [ebx+6128]
  002fd	ff 15 00 00 00
	00		 call	 DWORD PTR __imp_??4ioHashString@@QAEAAV0@PBD@Z

; 75   : 	SAFEDELETE( m_pSpringParam );

  00303	8b b3 00 18 00
	00		 mov	 esi, DWORD PTR [ebx+6144]
  00309	85 f6		 test	 esi, esi
  0030b	74 16		 je	 SHORT $LN2@LoadProper
  0030d	8d 4e 14	 lea	 ecx, DWORD PTR [esi+20]
  00310	e8 00 00 00 00	 call	 ?_Tidy@?$vector@USwingParam@@V?$allocator@USwingParam@@@std@@@std@@IAEXXZ ; std::vector<SwingParam,std::allocator<SwingParam> >::_Tidy
  00315	56		 push	 esi
  00316	e8 00 00 00 00	 call	 ??3@YAXPAX@Z		; operator delete
  0031b	83 a3 00 18 00
	00 00		 and	 DWORD PTR [ebx+6144], 0
  00322	59		 pop	 ecx
$LN2@LoadProper:

; 76   : 
; 77   : 	if( !m_SpringBiped.IsEmpty() )

  00323	8d 8b f0 17 00
	00		 lea	 ecx, DWORD PTR [ebx+6128]
  00329	ff 15 00 00 00
	00		 call	 DWORD PTR __imp_?IsEmpty@ioHashString@@QBE_NXZ
  0032f	84 c0		 test	 al, al
  00331	0f 85 74 01 00
	00		 jne	 $LN1@LoadProper

; 78   : 	{
; 79   : 		m_pSpringParam = new RopeSpringParam;

  00337	6a 24		 push	 36			; 00000024H
  00339	e8 00 00 00 00	 call	 ??2@YAPAXI@Z		; operator new
  0033e	59		 pop	 ecx
  0033f	33 c9		 xor	 ecx, ecx
  00341	3b c1		 cmp	 eax, ecx
  00343	74 0b		 je	 SHORT $LN208@LoadProper
  00345	89 48 14	 mov	 DWORD PTR [eax+20], ecx
  00348	89 48 18	 mov	 DWORD PTR [eax+24], ecx
  0034b	89 48 1c	 mov	 DWORD PTR [eax+28], ecx
  0034e	eb 02		 jmp	 SHORT $LN209@LoadProper
$LN208@LoadProper:
  00350	33 c0		 xor	 eax, eax
$LN209@LoadProper:

; 80   : 		m_pSpringParam->m_fGravity    = 400.0f;

  00352	f3 0f 10 05 00
	00 00 00	 movss	 xmm0, DWORD PTR __real@43c80000
  0035a	89 83 00 18 00
	00		 mov	 DWORD PTR [ebx+6144], eax
  00360	f3 0f 11 00	 movss	 DWORD PTR [eax], xmm0

; 81   : 		m_pSpringParam->m_fBoxWeights = 15.0f;

  00364	8b 83 00 18 00
	00		 mov	 eax, DWORD PTR [ebx+6144]
  0036a	f3 0f 10 05 00
	00 00 00	 movss	 xmm0, DWORD PTR __real@41700000
  00372	f3 0f 11 40 04	 movss	 DWORD PTR [eax+4], xmm0

; 82   : 
; 83   : 		m_pSpringParam->m_fDamping    = FLOAT05;

  00377	b8 05 00 00 00	 mov	 eax, 5
  0037c	8b d0		 mov	 edx, eax
  0037e	b8 0a 00 00 00	 mov	 eax, 10			; 0000000aH
  00383	8b 8b 00 18 00
	00		 mov	 ecx, DWORD PTR [ebx+6144]
  00389	89 95 70 fd ff
	ff		 mov	 DWORD PTR tv8480[ebp], edx
  0038f	db 85 70 fd ff
	ff		 fild	 DWORD PTR tv8480[ebp]
  00395	85 d2		 test	 edx, edx
  00397	79 06		 jns	 SHORT $LN1102@LoadProper
  00399	d8 05 00 00 00
	00		 fadd	 DWORD PTR __real@4f800000
$LN1102@LoadProper:
  0039f	89 85 70 fd ff
	ff		 mov	 DWORD PTR tv8476[ebp], eax
  003a5	db 85 70 fd ff
	ff		 fild	 DWORD PTR tv8476[ebp]
  003ab	85 c0		 test	 eax, eax
  003ad	79 06		 jns	 SHORT $LN1103@LoadProper
  003af	d8 05 00 00 00
	00		 fadd	 DWORD PTR __real@4f800000
$LN1103@LoadProper:
  003b5	de f9		 fdivp	 ST(1), ST(0)
  003b7	d9 9d 70 fd ff
	ff		 fstp	 DWORD PTR tv8472[ebp]
  003bd	d9 85 70 fd ff
	ff		 fld	 DWORD PTR tv8472[ebp]
  003c3	d9 59 08	 fstp	 DWORD PTR [ecx+8]

; 84   : 		m_pSpringParam->m_fAngDamping = FLOAT05;

  003c6	b8 05 00 00 00	 mov	 eax, 5
  003cb	8b d0		 mov	 edx, eax
  003cd	b8 0a 00 00 00	 mov	 eax, 10			; 0000000aH
  003d2	8b 8b 00 18 00
	00		 mov	 ecx, DWORD PTR [ebx+6144]
  003d8	89 95 70 fd ff
	ff		 mov	 DWORD PTR tv8467[ebp], edx
  003de	db 85 70 fd ff
	ff		 fild	 DWORD PTR tv8467[ebp]
  003e4	85 d2		 test	 edx, edx
  003e6	79 06		 jns	 SHORT $LN1104@LoadProper
  003e8	d8 05 00 00 00
	00		 fadd	 DWORD PTR __real@4f800000
$LN1104@LoadProper:
  003ee	89 85 70 fd ff
	ff		 mov	 DWORD PTR tv8463[ebp], eax
  003f4	db 85 70 fd ff
	ff		 fild	 DWORD PTR tv8463[ebp]
  003fa	85 c0		 test	 eax, eax
  003fc	79 06		 jns	 SHORT $LN1105@LoadProper
  003fe	d8 05 00 00 00
	00		 fadd	 DWORD PTR __real@4f800000
$LN1105@LoadProper:
  00404	de f9		 fdivp	 ST(1), ST(0)

; 85   : 
; 86   : 		m_pSpringParam->m_fLengthFixRate = 0.4f;

  00406	f3 0f 10 05 00
	00 00 00	 movss	 xmm0, DWORD PTR __real@3ecccccd
  0040e	d9 9d 70 fd ff
	ff		 fstp	 DWORD PTR tv8459[ebp]
  00414	d9 85 70 fd ff
	ff		 fld	 DWORD PTR tv8459[ebp]
  0041a	d9 59 0c	 fstp	 DWORD PTR [ecx+12]
  0041d	8b 83 00 18 00
	00		 mov	 eax, DWORD PTR [ebx+6144]
  00423	f3 0f 11 40 10	 movss	 DWORD PTR [eax+16], xmm0

; 87   : 
; 88   : 		SwingParam kSwing;
; 89   : 		kSwing.m_fHSwingDOWN = -45.0f;

  00428	f3 0f 10 05 00
	00 00 00	 movss	 xmm0, DWORD PTR __real@c2340000

; 90   : 		kSwing.m_fHSwingUP = 45.0f;
; 91   : 		kSwing.m_fVSwingDOWN = -80.0f;
; 92   : 		kSwing.m_fVSwingUP = 30.0f;
; 93   : 		m_pSpringParam->m_SwingList.push_back( kSwing );

  00430	8b 83 00 18 00
	00		 mov	 eax, DWORD PTR [ebx+6144]
  00436	f3 0f 11 45 c0	 movss	 DWORD PTR _kSwing$524488[ebp+4], xmm0
  0043b	f3 0f 10 05 00
	00 00 00	 movss	 xmm0, DWORD PTR __real@42340000
  00443	f3 0f 11 45 bc	 movss	 DWORD PTR _kSwing$524488[ebp], xmm0
  00448	f3 0f 10 05 00
	00 00 00	 movss	 xmm0, DWORD PTR __real@c2a00000
  00450	8d 4d bc	 lea	 ecx, DWORD PTR _kSwing$524488[ebp]
  00453	f3 0f 11 45 c8	 movss	 DWORD PTR _kSwing$524488[ebp+12], xmm0
  00458	f3 0f 10 05 00
	00 00 00	 movss	 xmm0, DWORD PTR __real@41f00000
  00460	51		 push	 ecx
  00461	8d 48 14	 lea	 ecx, DWORD PTR [eax+20]
  00464	f3 0f 11 45 c4	 movss	 DWORD PTR _kSwing$524488[ebp+8], xmm0
  00469	e8 00 00 00 00	 call	 ?push_back@?$vector@USwingParam@@V?$allocator@USwingParam@@@std@@@std@@QAEXABUSwingParam@@@Z ; std::vector<SwingParam,std::allocator<SwingParam> >::push_back

; 94   : 
; 95   : 		kSwing.m_fVSwingDOWN = FLOAT10;

  0046e	b8 0a 00 00 00	 mov	 eax, 10			; 0000000aH
  00473	89 85 70 fd ff
	ff		 mov	 DWORD PTR tv8449[ebp], eax
  00479	db 85 70 fd ff
	ff		 fild	 DWORD PTR tv8449[ebp]
  0047f	85 c0		 test	 eax, eax
  00481	79 06		 jns	 SHORT $LN1106@LoadProper
  00483	d8 05 00 00 00
	00		 fadd	 DWORD PTR __real@4f800000
$LN1106@LoadProper:

; 96   : 		kSwing.m_fVSwingUP = 70.0f;
; 97   : 		m_pSpringParam->m_SwingList.push_back( kSwing );

  00489	8b 83 00 18 00
	00		 mov	 eax, DWORD PTR [ebx+6144]
  0048f	d9 5d c8	 fstp	 DWORD PTR _kSwing$524488[ebp+12]
  00492	f3 0f 10 05 00
	00 00 00	 movss	 xmm0, DWORD PTR __real@428c0000
  0049a	8d 4d bc	 lea	 ecx, DWORD PTR _kSwing$524488[ebp]
  0049d	51		 push	 ecx
  0049e	8d 48 14	 lea	 ecx, DWORD PTR [eax+20]
  004a1	f3 0f 11 45 c4	 movss	 DWORD PTR _kSwing$524488[ebp+8], xmm0
  004a6	e8 00 00 00 00	 call	 ?push_back@?$vector@USwingParam@@V?$allocator@USwingParam@@@std@@@std@@QAEXABUSwingParam@@@Z ; std::vector<SwingParam,std::allocator<SwingParam> >::push_back
$LN1@LoadProper:

; 98   : 	}
; 99   : 
; 100  : 	//
; 101  : 	m_fExtraGaugeAttack = rkLoader.LoadFloat_e( "skill_gauge_att_rate", 0.0f );

  004ab	6a 05		 push	 5
  004ad	c7 45 d4 9e 87
	82 86		 mov	 DWORD PTR __k$533813[ebp], -2038265954 ; 8682879eH
  004b4	c7 45 d8 81 b3
	8c 8b		 mov	 DWORD PTR __k$533813[ebp+4], -1953713279 ; 8b8cb381H
  004bb	c7 45 dc 98 8b
	8e b5		 mov	 DWORD PTR __k$533813[ebp+8], -1248949352 ; b58e8b98H
  004c2	c7 45 e0 8c 98
	9f b5		 mov	 DWORD PTR __k$533813[ebp+12], -1247831924 ; b59f988cH
  004c9	c7 45 e4 9f 8d
	9f 8f		 mov	 DWORD PTR __k$533813[ebp+16], -1885368929 ; 8f9f8d9fH
  004d0	8d 45 d4	 lea	 eax, DWORD PTR __k$533813[ebp]
  004d3	c6 45 e8 00	 mov	 BYTE PTR __k$533813[ebp+20], 0
  004d7	59		 pop	 ecx
$LL728@LoadProper:
  004d8	81 30 ed ec eb
	ea		 xor	 DWORD PTR [eax], -353637139 ; eaebecedH
  004de	83 c0 04	 add	 eax, 4
  004e1	49		 dec	 ecx
  004e2	75 f4		 jne	 SHORT $LL728@LoadProper
  004e4	0f 57 c0	 xorps	 xmm0, xmm0
  004e7	8b bd 6c fd ff
	ff		 mov	 edi, DWORD PTR _rkLoader$GSCopy$[ebp]
  004ed	51		 push	 ecx
  004ee	8d 45 d4	 lea	 eax, DWORD PTR __k$533813[ebp]
  004f1	f3 0f 11 04 24	 movss	 DWORD PTR [esp], xmm0
  004f6	50		 push	 eax
  004f7	8b cf		 mov	 ecx, edi
  004f9	ff 15 00 00 00
	00		 call	 DWORD PTR __imp_?LoadFloat@ioINILoader@@QAEMPBDM@Z
  004ff	d9 9d 70 fd ff
	ff		 fstp	 DWORD PTR _value$533913[ebp]
  00505	8d 85 70 fd ff
	ff		 lea	 eax, DWORD PTR _value$533913[ebp]
  0050b	50		 push	 eax
  0050c	8d 8b cc 14 00
	00		 lea	 ecx, DWORD PTR [ebx+5324]
  00512	e8 00 00 00 00	 call	 ?EncryptValueToPool@?$CEncrypt@M@@AAEXPBD@Z ; CEncrypt<float>::EncryptValueToPool
  00517	6a 06		 push	 6

; 102  : 	m_fExtraGaugeAttackDef = rkLoader.LoadFloat_e( "skill_gauge_att_def_rate", 0.0f );

  00519	c7 45 d0 9e 87
	82 86		 mov	 DWORD PTR __k$533943[ebp], -2038265954 ; 8682879eH
  00520	c7 45 d4 81 b3
	8c 8b		 mov	 DWORD PTR __k$533943[ebp+4], -1953713279 ; 8b8cb381H
  00527	c7 45 d8 98 8b
	8e b5		 mov	 DWORD PTR __k$533943[ebp+8], -1248949352 ; b58e8b98H
  0052e	c7 45 dc 8c 98
	9f b5		 mov	 DWORD PTR __k$533943[ebp+12], -1247831924 ; b59f988cH
  00535	c7 45 e0 89 89
	8d b5		 mov	 DWORD PTR __k$533943[ebp+16], -1249015415 ; b58d8989H
  0053c	c7 45 e4 9f 8d
	9f 8f		 mov	 DWORD PTR __k$533943[ebp+20], -1885368929 ; 8f9f8d9fH
  00543	8d 45 d0	 lea	 eax, DWORD PTR __k$533943[ebp]
  00546	c6 45 e8 00	 mov	 BYTE PTR __k$533943[ebp+24], 0
  0054a	59		 pop	 ecx
$LL836@LoadProper:
  0054b	81 30 ed ec eb
	ea		 xor	 DWORD PTR [eax], -353637139 ; eaebecedH
  00551	83 c0 04	 add	 eax, 4
  00554	49		 dec	 ecx
  00555	75 f4		 jne	 SHORT $LL836@LoadProper
  00557	0f 57 c0	 xorps	 xmm0, xmm0
  0055a	51		 push	 ecx
  0055b	8d 45 d0	 lea	 eax, DWORD PTR __k$533943[ebp]
  0055e	f3 0f 11 04 24	 movss	 DWORD PTR [esp], xmm0
  00563	50		 push	 eax
  00564	8b cf		 mov	 ecx, edi
  00566	ff 15 00 00 00
	00		 call	 DWORD PTR __imp_?LoadFloat@ioINILoader@@QAEMPBDM@Z
  0056c	d9 9d 70 fd ff
	ff		 fstp	 DWORD PTR _value$534043[ebp]
  00572	8d 85 70 fd ff
	ff		 lea	 eax, DWORD PTR _value$534043[ebp]
  00578	50		 push	 eax
  00579	8d 8b fc 14 00
	00		 lea	 ecx, DWORD PTR [ebx+5372]
  0057f	e8 00 00 00 00	 call	 ?EncryptValueToPool@?$CEncrypt@M@@AAEXPBD@Z ; CEncrypt<float>::EncryptValueToPool
  00584	6a 05		 push	 5

; 103  : 	m_fExtraGaugeWound = rkLoader.LoadFloat_e( "skill_gauge_wound_rate", 0.0f );

  00586	c7 45 d0 9e 87
	82 86		 mov	 DWORD PTR __k$534107[ebp], -2038265954 ; 8682879eH
  0058d	c7 45 d4 81 b3
	8c 8b		 mov	 DWORD PTR __k$534107[ebp+4], -1953713279 ; 8b8cb381H
  00594	c7 45 d8 98 8b
	8e b5		 mov	 DWORD PTR __k$534107[ebp+8], -1248949352 ; b58e8b98H
  0059b	c7 45 dc 9a 83
	9e 84		 mov	 DWORD PTR __k$534107[ebp+12], -2069986406 ; 849e839aH
  005a2	c7 45 e0 89 b3
	99 8b		 mov	 DWORD PTR __k$534107[ebp+16], -1952861303 ; 8b99b389H
  005a9	66 c7 45 e4 99
	89		 mov	 WORD PTR __k$534107[ebp+20], 35225 ; 00008999H
  005af	8d 45 d0	 lea	 eax, DWORD PTR __k$534107[ebp]
  005b2	c6 45 e6 00	 mov	 BYTE PTR __k$534107[ebp+22], 0
  005b6	59		 pop	 ecx
$LL944@LoadProper:
  005b7	81 30 ed ec eb
	ea		 xor	 DWORD PTR [eax], -353637139 ; eaebecedH
  005bd	83 c0 04	 add	 eax, 4
  005c0	49		 dec	 ecx
  005c1	75 f4		 jne	 SHORT $LL944@LoadProper
  005c3	6a 14		 push	 20			; 00000014H
  005c5	5e		 pop	 esi
$LL941@LoadProper:
  005c6	8b c6		 mov	 eax, esi
  005c8	25 03 00 00 80	 and	 eax, -2147483645	; 80000003H
  005cd	79 05		 jns	 SHORT $LN1107@LoadProper
  005cf	48		 dec	 eax
  005d0	83 c8 fc	 or	 eax, -4			; fffffffcH
  005d3	40		 inc	 eax
$LN1107@LoadProper:
  005d4	b1 ed		 mov	 cl, -19			; ffffffedH
  005d6	2a c8		 sub	 cl, al
  005d8	30 4c 35 d0	 xor	 BYTE PTR __k$534107[ebp+esi], cl
  005dc	46		 inc	 esi
  005dd	83 fe 16	 cmp	 esi, 22			; 00000016H
  005e0	7c e4		 jl	 SHORT $LL941@LoadProper
  005e2	0f 57 c0	 xorps	 xmm0, xmm0
  005e5	51		 push	 ecx
  005e6	8d 45 d0	 lea	 eax, DWORD PTR __k$534107[ebp]
  005e9	f3 0f 11 04 24	 movss	 DWORD PTR [esp], xmm0
  005ee	50		 push	 eax
  005ef	8b cf		 mov	 ecx, edi
  005f1	ff 15 00 00 00
	00		 call	 DWORD PTR __imp_?LoadFloat@ioINILoader@@QAEMPBDM@Z
  005f7	d9 9d 70 fd ff
	ff		 fstp	 DWORD PTR _value$534173[ebp]
  005fd	8d 85 70 fd ff
	ff		 lea	 eax, DWORD PTR _value$534173[ebp]
  00603	50		 push	 eax
  00604	8d 8b 2c 15 00
	00		 lea	 ecx, DWORD PTR [ebx+5420]
  0060a	e8 00 00 00 00	 call	 ?EncryptValueToPool@?$CEncrypt@M@@AAEXPBD@Z ; CEncrypt<float>::EncryptValueToPool
  0060f	6a 06		 push	 6

; 104  : 	m_fExtraGaugeWoundDef = rkLoader.LoadFloat_e( "skill_gauge_wound_def_rate", 0.0f );

  00611	c7 85 7c ff ff
	ff 9e 87 82 86	 mov	 DWORD PTR __k$534190[ebp], -2038265954 ; 8682879eH
  0061b	c7 45 80 81 b3
	8c 8b		 mov	 DWORD PTR __k$534190[ebp+4], -1953713279 ; 8b8cb381H
  00622	c7 45 84 98 8b
	8e b5		 mov	 DWORD PTR __k$534190[ebp+8], -1248949352 ; b58e8b98H
  00629	c7 45 88 9a 83
	9e 84		 mov	 DWORD PTR __k$534190[ebp+12], -2069986406 ; 849e839aH
  00630	c7 45 8c 89 b3
	8f 8f		 mov	 DWORD PTR __k$534190[ebp+16], -1886407799 ; 8f8fb389H
  00637	c7 45 90 8b b3
	99 8b		 mov	 DWORD PTR __k$534190[ebp+20], -1952861301 ; 8b99b38bH
  0063e	66 c7 45 94 99
	89		 mov	 WORD PTR __k$534190[ebp+24], 35225 ; 00008999H
  00644	8d 85 7c ff ff
	ff		 lea	 eax, DWORD PTR __k$534190[ebp]
  0064a	c6 45 96 00	 mov	 BYTE PTR __k$534190[ebp+26], 0
  0064e	59		 pop	 ecx
$LL1052@LoadProper:
  0064f	81 30 ed ec eb
	ea		 xor	 DWORD PTR [eax], -353637139 ; eaebecedH
  00655	83 c0 04	 add	 eax, 4
  00658	49		 dec	 ecx
  00659	75 f4		 jne	 SHORT $LL1052@LoadProper
  0065b	6a 18		 push	 24			; 00000018H
  0065d	5e		 pop	 esi
$LL1049@LoadProper:
  0065e	8b c6		 mov	 eax, esi
  00660	25 03 00 00 80	 and	 eax, -2147483645	; 80000003H
  00665	79 05		 jns	 SHORT $LN1108@LoadProper
  00667	48		 dec	 eax
  00668	83 c8 fc	 or	 eax, -4			; fffffffcH
  0066b	40		 inc	 eax
$LN1108@LoadProper:
  0066c	b1 ed		 mov	 cl, -19			; ffffffedH
  0066e	2a c8		 sub	 cl, al
  00670	30 8c 35 7c ff
	ff ff		 xor	 BYTE PTR __k$534190[ebp+esi], cl
  00677	46		 inc	 esi
  00678	83 fe 1a	 cmp	 esi, 26			; 0000001aH
  0067b	7c e1		 jl	 SHORT $LL1049@LoadProper
  0067d	0f 57 c0	 xorps	 xmm0, xmm0
  00680	51		 push	 ecx
  00681	8d 85 7c ff ff
	ff		 lea	 eax, DWORD PTR __k$534190[ebp]
  00687	f3 0f 11 04 24	 movss	 DWORD PTR [esp], xmm0
  0068c	50		 push	 eax
  0068d	8b cf		 mov	 ecx, edi
  0068f	ff 15 00 00 00
	00		 call	 DWORD PTR __imp_?LoadFloat@ioINILoader@@QAEMPBDM@Z
  00695	d9 9d 68 fd ff
	ff		 fstp	 DWORD PTR _value$534302[ebp]
  0069b	8d 85 68 fd ff
	ff		 lea	 eax, DWORD PTR _value$534302[ebp]
  006a1	50		 push	 eax
  006a2	8d 8b 5c 15 00
	00		 lea	 ecx, DWORD PTR [ebx+5468]
  006a8	e8 00 00 00 00	 call	 ?EncryptValueToPool@?$CEncrypt@M@@AAEXPBD@Z ; CEncrypt<float>::EncryptValueToPool

; 105  : }

  006ad	e8 00 00 00 00	 call	 __EH_epilog3_GS
  006b2	c2 04 00	 ret	 4
_TEXT	ENDS
;	COMDAT text$x
text$x	SEGMENT
__unwindfunclet$?LoadProperty@ioArmorItem@@UAEXAAVioINILoader@@@Z$0:
  00000	8d 4d d8	 lea	 ecx, DWORD PTR $T533180[ebp]
  00003	e9 00 00 00 00	 jmp	 ??1?$pair@$$CBKVioHashString@@@std@@QAE@XZ
__unwindfunclet$?LoadProperty@ioArmorItem@@UAEXAAVioINILoader@@@Z$1:
  00008	8d 4d d8	 lea	 ecx, DWORD PTR $T533182[ebp]
  0000b	e9 00 00 00 00	 jmp	 ??1?$pair@$$CBKVioHashString@@@std@@QAE@XZ
__ehhandler$?LoadProperty@ioArmorItem@@UAEXAAVioINILoader@@@Z:
  00010	8b 54 24 08	 mov	 edx, DWORD PTR [esp+8]
  00014	8d 42 0c	 lea	 eax, DWORD PTR [edx+12]
  00017	8b 8a 5c fd ff
	ff		 mov	 ecx, DWORD PTR [edx-676]
  0001d	33 c8		 xor	 ecx, eax
  0001f	e8 00 00 00 00	 call	 @__security_check_cookie@4
  00024	8b 4a fc	 mov	 ecx, DWORD PTR [edx-4]
  00027	33 c8		 xor	 ecx, eax
  00029	e8 00 00 00 00	 call	 @__security_check_cookie@4
  0002e	b8 00 00 00 00	 mov	 eax, OFFSET __ehfuncinfo$?LoadProperty@ioArmorItem@@UAEXAAVioINILoader@@@Z
  00033	e9 00 00 00 00	 jmp	 ___CxxFrameHandler3
text$x	ENDS
?LoadProperty@ioArmorItem@@UAEXAAVioINILoader@@@Z ENDP	; ioArmorItem::LoadProperty
PUBLIC	??0?$map@KVioHashString@@U?$less@K@std@@V?$allocator@U?$pair@$$CBKVioHashString@@@std@@@3@@std@@QAE@XZ ; std::map<unsigned long,ioHashString,std::less<unsigned long>,std::allocator<std::pair<unsigned long const ,ioHashString> > >::map<unsigned long,ioHashString,std::less<unsigned long>,std::allocator<std::pair<unsigned long const ,ioHashString> > >
; Function compile flags: /Ogsp
; File c:\program files (x86)\microsoft visual studio 10.0\vc\include\map
;	COMDAT ??0?$map@KVioHashString@@U?$less@K@std@@V?$allocator@U?$pair@$$CBKVioHashString@@@std@@@3@@std@@QAE@XZ
_TEXT	SEGMENT
$T534394 = -8						; size = 4
$T534397 = -8						; size = 4
$T534383 = -1						; size = 1
??0?$map@KVioHashString@@U?$less@K@std@@V?$allocator@U?$pair@$$CBKVioHashString@@@std@@@3@@std@@QAE@XZ PROC ; std::map<unsigned long,ioHashString,std::less<unsigned long>,std::allocator<std::pair<unsigned long const ,ioHashString> > >::map<unsigned long,ioHashString,std::less<unsigned long>,std::allocator<std::pair<unsigned long const ,ioHashString> > >, COMDAT
; _this$ = ecx

; 106  : 		{	// construct empty map from defaults

  00000	55		 push	 ebp
  00001	8b ec		 mov	 ebp, esp
  00003	51		 push	 ecx
  00004	51		 push	 ecx
  00005	56		 push	 esi
  00006	51		 push	 ecx
  00007	89 65 f8	 mov	 DWORD PTR $T534397[ebp], esp
  0000a	8d 45 ff	 lea	 eax, DWORD PTR $T534383[ebp]
  0000d	89 65 f8	 mov	 DWORD PTR $T534394[ebp], esp
  00010	50		 push	 eax
  00011	8b f1		 mov	 esi, ecx
  00013	e8 00 00 00 00	 call	 ??0?$_Tree_val@V?$_Tmap_traits@KVioHashString@@U?$less@K@std@@V?$allocator@U?$pair@$$CBKVioHashString@@@std@@@3@$0A@@std@@@std@@QAE@ABU?$less@K@1@V?$allocator@U?$pair@$$CBKVioHashString@@@std@@@1@@Z ; std::_Tree_val<std::_Tmap_traits<unsigned long,ioHashString,std::less<unsigned long>,std::allocator<std::pair<unsigned long const ,ioHashString> >,0> >::_Tree_val<std::_Tmap_traits<unsigned long,ioHashString,std::less<unsigned long>,std::allocator<std::pair<unsigned long const ,ioHashString> >,0> >

; 107  : 		}

  00018	8b c6		 mov	 eax, esi
  0001a	5e		 pop	 esi
  0001b	c9		 leave
  0001c	c3		 ret	 0
??0?$map@KVioHashString@@U?$less@K@std@@V?$allocator@U?$pair@$$CBKVioHashString@@@std@@@3@@std@@QAE@XZ ENDP ; std::map<unsigned long,ioHashString,std::less<unsigned long>,std::allocator<std::pair<unsigned long const ,ioHashString> > >::map<unsigned long,ioHashString,std::less<unsigned long>,std::allocator<std::pair<unsigned long const ,ioHashString> > >
_TEXT	ENDS
PUBLIC	??0ioArmorItem@@QAE@XZ				; ioArmorItem::ioArmorItem
EXTRN	__imp_??0ioHashString@@QAE@XZ:PROC
EXTRN	??0ioAttackableItem@@QAE@XZ:PROC		; ioAttackableItem::ioAttackableItem
;	COMDAT xdata$x
; File c:\program files (x86)\microsoft visual studio 10.0\vc\include\xmemory
xdata$x	SEGMENT
__ehfuncinfo$??0ioArmorItem@@QAE@XZ DD 019930522H
	DD	05H
	DD	FLAT:__unwindtable$??0ioArmorItem@@QAE@XZ
	DD	2 DUP(00H)
	DD	2 DUP(00H)
	DD	00H
	DD	01H
__unwindtable$??0ioArmorItem@@QAE@XZ DD 0ffffffffH
	DD	FLAT:__unwindfunclet$??0ioArmorItem@@QAE@XZ$0
	DD	00H
	DD	FLAT:__unwindfunclet$??0ioArmorItem@@QAE@XZ$1
	DD	01H
	DD	FLAT:__unwindfunclet$??0ioArmorItem@@QAE@XZ$2
	DD	02H
	DD	FLAT:__unwindfunclet$??0ioArmorItem@@QAE@XZ$3
	DD	03H
	DD	FLAT:__unwindfunclet$??0ioArmorItem@@QAE@XZ$4
; Function compile flags: /Ogsp
; File d:\lost saga for developer\youtube\tutorial\source\src\lsclient\ioarmoritem.cpp
xdata$x	ENDS
;	COMDAT ??0ioArmorItem@@QAE@XZ
_TEXT	SEGMENT
$T534452 = -24						; size = 4
$T534466 = -24						; size = 4
$T534421 = -24						; size = 4
$T534435 = -24						; size = 4
_this$ = -20						; size = 4
$T534461 = -13						; size = 1
$T534430 = -13						; size = 1
__$EHRec$ = -12						; size = 12
??0ioArmorItem@@QAE@XZ PROC				; ioArmorItem::ioArmorItem, COMDAT
; _this$ = ecx

; 10   : {

  00000	6a 0c		 push	 12			; 0000000cH
  00002	b8 00 00 00 00	 mov	 eax, __ehhandler$??0ioArmorItem@@QAE@XZ
  00007	e8 00 00 00 00	 call	 __EH_prolog3
  0000c	8b f1		 mov	 esi, ecx
  0000e	89 75 ec	 mov	 DWORD PTR _this$[ebp], esi
  00011	e8 00 00 00 00	 call	 ??0ioAttackableItem@@QAE@XZ ; ioAttackableItem::ioAttackableItem
  00016	8b 3d 00 00 00
	00		 mov	 edi, DWORD PTR __imp_??0ioHashString@@QAE@XZ
  0001c	83 65 fc 00	 and	 DWORD PTR __$EHRec$[ebp+8], 0
  00020	8d 8e a8 17 00
	00		 lea	 ecx, DWORD PTR [esi+6056]
  00026	c7 06 00 00 00
	00		 mov	 DWORD PTR [esi], OFFSET ??_7ioArmorItem@@6B@
  0002c	ff d7		 call	 edi
  0002e	8d 8e b8 17 00
	00		 lea	 ecx, DWORD PTR [esi+6072]
  00034	c6 45 fc 01	 mov	 BYTE PTR __$EHRec$[ebp+8], 1
  00038	ff d7		 call	 edi
  0003a	8d 8e c8 17 00
	00		 lea	 ecx, DWORD PTR [esi+6088]
  00040	51		 push	 ecx
  00041	89 65 e8	 mov	 DWORD PTR $T534435[ebp], esp
  00044	8d 45 f3	 lea	 eax, DWORD PTR $T534430[ebp]
  00047	89 65 e8	 mov	 DWORD PTR $T534421[ebp], esp
  0004a	50		 push	 eax
  0004b	c6 45 fc 02	 mov	 BYTE PTR __$EHRec$[ebp+8], 2
  0004f	e8 00 00 00 00	 call	 ??0?$_Tree_val@V?$_Tmap_traits@KVioHashString@@U?$less@K@std@@V?$allocator@U?$pair@$$CBKVioHashString@@@std@@@3@$0A@@std@@@std@@QAE@ABU?$less@K@1@V?$allocator@U?$pair@$$CBKVioHashString@@@std@@@1@@Z ; std::_Tree_val<std::_Tmap_traits<unsigned long,ioHashString,std::less<unsigned long>,std::allocator<std::pair<unsigned long const ,ioHashString> >,0> >::_Tree_val<std::_Tmap_traits<unsigned long,ioHashString,std::less<unsigned long>,std::allocator<std::pair<unsigned long const ,ioHashString> >,0> >
  00054	8d 8e d8 17 00
	00		 lea	 ecx, DWORD PTR [esi+6104]
  0005a	51		 push	 ecx
  0005b	89 65 e8	 mov	 DWORD PTR $T534466[ebp], esp
  0005e	8d 45 f3	 lea	 eax, DWORD PTR $T534461[ebp]
  00061	89 65 e8	 mov	 DWORD PTR $T534452[ebp], esp
  00064	50		 push	 eax
  00065	c6 45 fc 03	 mov	 BYTE PTR __$EHRec$[ebp+8], 3
  00069	e8 00 00 00 00	 call	 ??0?$_Tree_val@V?$_Tmap_traits@KVioHashString@@U?$less@K@std@@V?$allocator@U?$pair@$$CBKVioHashString@@@std@@@3@$0A@@std@@@std@@QAE@ABU?$less@K@1@V?$allocator@U?$pair@$$CBKVioHashString@@@std@@@1@@Z ; std::_Tree_val<std::_Tmap_traits<unsigned long,ioHashString,std::less<unsigned long>,std::allocator<std::pair<unsigned long const ,ioHashString> >,0> >::_Tree_val<std::_Tmap_traits<unsigned long,ioHashString,std::less<unsigned long>,std::allocator<std::pair<unsigned long const ,ioHashString> >,0> >
  0006e	8d 8e f0 17 00
	00		 lea	 ecx, DWORD PTR [esi+6128]
  00074	c6 45 fc 04	 mov	 BYTE PTR __$EHRec$[ebp+8], 4
  00078	ff d7		 call	 edi

; 11   : 	m_ArmorType = AT_UNARMOR;

  0007a	83 a6 ec 17 00
	00 00		 and	 DWORD PTR [esi+6124], 0

; 12   : 
; 13   : 	m_pSpringParam = NULL;

  00081	83 a6 00 18 00
	00 00		 and	 DWORD PTR [esi+6144], 0

; 14   : }

  00088	8b c6		 mov	 eax, esi
  0008a	e8 00 00 00 00	 call	 __EH_epilog3
  0008f	c3		 ret	 0
_TEXT	ENDS
;	COMDAT text$x
text$x	SEGMENT
__unwindfunclet$??0ioArmorItem@@QAE@XZ$0:
  00000	8b 4d ec	 mov	 ecx, DWORD PTR _this$[ebp]
  00003	e9 00 00 00 00	 jmp	 ??1ioAttackableItem@@UAE@XZ ; ioAttackableItem::~ioAttackableItem
__unwindfunclet$??0ioArmorItem@@QAE@XZ$1:
  00008	8b 4d ec	 mov	 ecx, DWORD PTR _this$[ebp]
  0000b	81 c1 a8 17 00
	00		 add	 ecx, 6056		; 000017a8H
  00011	ff 25 00 00 00
	00		 jmp	 DWORD PTR __imp_??1ioHashString@@QAE@XZ
__unwindfunclet$??0ioArmorItem@@QAE@XZ$2:
  00017	8b 4d ec	 mov	 ecx, DWORD PTR _this$[ebp]
  0001a	81 c1 b8 17 00
	00		 add	 ecx, 6072		; 000017b8H
  00020	ff 25 00 00 00
	00		 jmp	 DWORD PTR __imp_??1ioHashString@@QAE@XZ
__unwindfunclet$??0ioArmorItem@@QAE@XZ$3:
  00026	8b 4d ec	 mov	 ecx, DWORD PTR _this$[ebp]
  00029	81 c1 c8 17 00
	00		 add	 ecx, 6088		; 000017c8H
  0002f	e9 00 00 00 00	 jmp	 ??1?$map@KVioHashString@@U?$less@K@std@@V?$allocator@U?$pair@$$CBKVioHashString@@@std@@@3@@std@@QAE@XZ
__unwindfunclet$??0ioArmorItem@@QAE@XZ$4:
  00034	8b 4d ec	 mov	 ecx, DWORD PTR _this$[ebp]
  00037	81 c1 d8 17 00
	00		 add	 ecx, 6104		; 000017d8H
  0003d	e9 00 00 00 00	 jmp	 ??1?$map@KVioHashString@@U?$less@K@std@@V?$allocator@U?$pair@$$CBKVioHashString@@@std@@@3@@std@@QAE@XZ
__ehhandler$??0ioArmorItem@@QAE@XZ:
  00042	8b 54 24 08	 mov	 edx, DWORD PTR [esp+8]
  00046	8d 42 0c	 lea	 eax, DWORD PTR [edx+12]
  00049	8b 4a e4	 mov	 ecx, DWORD PTR [edx-28]
  0004c	33 c8		 xor	 ecx, eax
  0004e	e8 00 00 00 00	 call	 @__security_check_cookie@4
  00053	b8 00 00 00 00	 mov	 eax, OFFSET __ehfuncinfo$??0ioArmorItem@@QAE@XZ
  00058	e9 00 00 00 00	 jmp	 ___CxxFrameHandler3
text$x	ENDS
??0ioArmorItem@@QAE@XZ ENDP				; ioArmorItem::ioArmorItem
; Function compile flags: /Ogsp
;	COMDAT ??_GioArmorItem@@UAEPAXI@Z
_TEXT	SEGMENT
___flags$ = 8						; size = 4
??_GioArmorItem@@UAEPAXI@Z PROC				; ioArmorItem::`scalar deleting destructor', COMDAT
; _this$ = ecx
  00000	55		 push	 ebp
  00001	8b ec		 mov	 ebp, esp
  00003	56		 push	 esi
  00004	8b f1		 mov	 esi, ecx
  00006	e8 00 00 00 00	 call	 ??1ioArmorItem@@UAE@XZ	; ioArmorItem::~ioArmorItem
  0000b	f6 45 08 01	 test	 BYTE PTR ___flags$[ebp], 1
  0000f	74 07		 je	 SHORT $LN1@scalar@5
  00011	56		 push	 esi
  00012	e8 00 00 00 00	 call	 ??3@YAXPAX@Z		; operator delete
  00017	59		 pop	 ecx
$LN1@scalar@5:
  00018	8b c6		 mov	 eax, esi
  0001a	5e		 pop	 esi
  0001b	5d		 pop	 ebp
  0001c	c2 04 00	 ret	 4
??_GioArmorItem@@UAEPAXI@Z ENDP				; ioArmorItem::`scalar deleting destructor'
_TEXT	ENDS
PUBLIC	??0ioArmorItem@@QAE@ABV0@@Z			; ioArmorItem::ioArmorItem
EXTRN	??0ioAttackableItem@@QAE@ABV0@@Z:PROC		; ioAttackableItem::ioAttackableItem
;	COMDAT xdata$x
; File c:\program files (x86)\microsoft visual studio 10.0\vc\include\xmemory
xdata$x	SEGMENT
__ehfuncinfo$??0ioArmorItem@@QAE@ABV0@@Z DD 019930522H
	DD	06H
	DD	FLAT:__unwindtable$??0ioArmorItem@@QAE@ABV0@@Z
	DD	2 DUP(00H)
	DD	2 DUP(00H)
	DD	00H
	DD	01H
__unwindtable$??0ioArmorItem@@QAE@ABV0@@Z DD 0ffffffffH
	DD	FLAT:__unwindfunclet$??0ioArmorItem@@QAE@ABV0@@Z$0
	DD	00H
	DD	FLAT:__unwindfunclet$??0ioArmorItem@@QAE@ABV0@@Z$1
	DD	01H
	DD	FLAT:__unwindfunclet$??0ioArmorItem@@QAE@ABV0@@Z$2
	DD	02H
	DD	FLAT:__unwindfunclet$??0ioArmorItem@@QAE@ABV0@@Z$3
	DD	03H
	DD	FLAT:__unwindfunclet$??0ioArmorItem@@QAE@ABV0@@Z$4
	DD	04H
	DD	FLAT:__unwindfunclet$??0ioArmorItem@@QAE@ABV0@@Z$5
; Function compile flags: /Ogsp
; File d:\lost saga for developer\youtube\tutorial\source\src\lsclient\ioarmoritem.cpp
xdata$x	ENDS
;	COMDAT ??0ioArmorItem@@QAE@ABV0@@Z
_TEXT	SEGMENT
_this$ = -16						; size = 4
__$EHRec$ = -12						; size = 12
$T534535 = 8						; size = 4
$T534543 = 8						; size = 4
$T534504 = 8						; size = 4
$T534518 = 8						; size = 4
_rhs$ = 8						; size = 4
$T534550 = 11						; size = 1
$T534513 = 11						; size = 1
??0ioArmorItem@@QAE@ABV0@@Z PROC			; ioArmorItem::ioArmorItem, COMDAT
; _this$ = ecx

; 23   : {

  00000	6a 04		 push	 4
  00002	b8 00 00 00 00	 mov	 eax, __ehhandler$??0ioArmorItem@@QAE@ABV0@@Z
  00007	e8 00 00 00 00	 call	 __EH_prolog3
  0000c	8b f1		 mov	 esi, ecx
  0000e	89 75 f0	 mov	 DWORD PTR _this$[ebp], esi
  00011	8b 7d 08	 mov	 edi, DWORD PTR _rhs$[ebp]
  00014	57		 push	 edi
  00015	e8 00 00 00 00	 call	 ??0ioAttackableItem@@QAE@ABV0@@Z ; ioAttackableItem::ioAttackableItem
  0001a	8b 1d 00 00 00
	00		 mov	 ebx, DWORD PTR __imp_??0ioHashString@@QAE@ABV0@@Z
  00020	83 65 fc 00	 and	 DWORD PTR __$EHRec$[ebp+8], 0
  00024	8d 87 a8 17 00
	00		 lea	 eax, DWORD PTR [edi+6056]
  0002a	50		 push	 eax
  0002b	8d 8e a8 17 00
	00		 lea	 ecx, DWORD PTR [esi+6056]
  00031	c7 06 00 00 00
	00		 mov	 DWORD PTR [esi], OFFSET ??_7ioArmorItem@@6B@
  00037	ff d3		 call	 ebx
  00039	8d 87 b8 17 00
	00		 lea	 eax, DWORD PTR [edi+6072]
  0003f	50		 push	 eax
  00040	8d 8e b8 17 00
	00		 lea	 ecx, DWORD PTR [esi+6072]
  00046	c6 45 fc 01	 mov	 BYTE PTR __$EHRec$[ebp+8], 1
  0004a	ff d3		 call	 ebx
  0004c	8d 8e c8 17 00
	00		 lea	 ecx, DWORD PTR [esi+6088]
  00052	51		 push	 ecx
  00053	89 65 08	 mov	 DWORD PTR $T534518[ebp], esp
  00056	8d 45 0b	 lea	 eax, DWORD PTR $T534513[ebp]
  00059	89 65 08	 mov	 DWORD PTR $T534504[ebp], esp
  0005c	50		 push	 eax
  0005d	c6 45 fc 02	 mov	 BYTE PTR __$EHRec$[ebp+8], 2
  00061	e8 00 00 00 00	 call	 ??0?$_Tree_val@V?$_Tmap_traits@KVioHashString@@U?$less@K@std@@V?$allocator@U?$pair@$$CBKVioHashString@@@std@@@3@$0A@@std@@@std@@QAE@ABU?$less@K@1@V?$allocator@U?$pair@$$CBKVioHashString@@@std@@@1@@Z ; std::_Tree_val<std::_Tmap_traits<unsigned long,ioHashString,std::less<unsigned long>,std::allocator<std::pair<unsigned long const ,ioHashString> >,0> >::_Tree_val<std::_Tmap_traits<unsigned long,ioHashString,std::less<unsigned long>,std::allocator<std::pair<unsigned long const ,ioHashString> >,0> >
  00066	8d 8e d8 17 00
	00		 lea	 ecx, DWORD PTR [esi+6104]
  0006c	51		 push	 ecx
  0006d	89 65 08	 mov	 DWORD PTR $T534543[ebp], esp
  00070	8d 45 0b	 lea	 eax, DWORD PTR $T534550[ebp]
  00073	89 65 08	 mov	 DWORD PTR $T534535[ebp], esp
  00076	50		 push	 eax
  00077	c6 45 fc 03	 mov	 BYTE PTR __$EHRec$[ebp+8], 3
  0007b	e8 00 00 00 00	 call	 ??0?$_Tree_val@V?$_Tmap_traits@KVioHashString@@U?$less@K@std@@V?$allocator@U?$pair@$$CBKVioHashString@@@std@@@3@$0A@@std@@@std@@QAE@ABU?$less@K@1@V?$allocator@U?$pair@$$CBKVioHashString@@@std@@@1@@Z ; std::_Tree_val<std::_Tmap_traits<unsigned long,ioHashString,std::less<unsigned long>,std::allocator<std::pair<unsigned long const ,ioHashString> >,0> >::_Tree_val<std::_Tmap_traits<unsigned long,ioHashString,std::less<unsigned long>,std::allocator<std::pair<unsigned long const ,ioHashString> >,0> >
  00080	8b 87 e8 17 00
	00		 mov	 eax, DWORD PTR [edi+6120]
  00086	89 86 e8 17 00
	00		 mov	 DWORD PTR [esi+6120], eax
  0008c	8b 87 ec 17 00
	00		 mov	 eax, DWORD PTR [edi+6124]
  00092	89 86 ec 17 00
	00		 mov	 DWORD PTR [esi+6124], eax
  00098	8d 87 f0 17 00
	00		 lea	 eax, DWORD PTR [edi+6128]
  0009e	50		 push	 eax
  0009f	8d 8e f0 17 00
	00		 lea	 ecx, DWORD PTR [esi+6128]
  000a5	c6 45 fc 04	 mov	 BYTE PTR __$EHRec$[ebp+8], 4
  000a9	ff d3		 call	 ebx

; 24   : 	if( rhs.m_pSpringParam )

  000ab	33 db		 xor	 ebx, ebx
  000ad	c6 45 fc 05	 mov	 BYTE PTR __$EHRec$[ebp+8], 5
  000b1	39 9f 00 18 00
	00		 cmp	 DWORD PTR [edi+6144], ebx
  000b7	74 2e		 je	 SHORT $LN2@ioArmorIte@2

; 25   : 	{
; 26   : 		m_pSpringParam = new RopeSpringParam;

  000b9	6a 24		 push	 36			; 00000024H
  000bb	e8 00 00 00 00	 call	 ??2@YAPAXI@Z		; operator new
  000c0	59		 pop	 ecx
  000c1	3b c3		 cmp	 eax, ebx
  000c3	74 0b		 je	 SHORT $LN5@ioArmorIte@2
  000c5	89 58 14	 mov	 DWORD PTR [eax+20], ebx
  000c8	89 58 18	 mov	 DWORD PTR [eax+24], ebx
  000cb	89 58 1c	 mov	 DWORD PTR [eax+28], ebx
  000ce	eb 02		 jmp	 SHORT $LN6@ioArmorIte@2
$LN5@ioArmorIte@2:
  000d0	33 c0		 xor	 eax, eax
$LN6@ioArmorIte@2:
  000d2	89 86 00 18 00
	00		 mov	 DWORD PTR [esi+6144], eax

; 27   : 		*m_pSpringParam = *rhs.m_pSpringParam;

  000d8	ff b7 00 18 00
	00		 push	 DWORD PTR [edi+6144]
  000de	8b c8		 mov	 ecx, eax
  000e0	e8 00 00 00 00	 call	 ??4RopeSpringParam@@QAEAAU0@ABU0@@Z

; 28   : 	}
; 29   : 	else

  000e5	eb 06		 jmp	 SHORT $LN1@ioArmorIte@2
$LN2@ioArmorIte@2:

; 30   : 	{
; 31   : 		m_pSpringParam = NULL;

  000e7	89 9e 00 18 00
	00		 mov	 DWORD PTR [esi+6144], ebx
$LN1@ioArmorIte@2:

; 32   : 	}
; 33   : }

  000ed	8b c6		 mov	 eax, esi
  000ef	e8 00 00 00 00	 call	 __EH_epilog3
  000f4	c2 04 00	 ret	 4
_TEXT	ENDS
;	COMDAT text$x
text$x	SEGMENT
__unwindfunclet$??0ioArmorItem@@QAE@ABV0@@Z$0:
  00000	8b 4d f0	 mov	 ecx, DWORD PTR _this$[ebp]
  00003	e9 00 00 00 00	 jmp	 ??1ioAttackableItem@@UAE@XZ ; ioAttackableItem::~ioAttackableItem
__unwindfunclet$??0ioArmorItem@@QAE@ABV0@@Z$1:
  00008	8b 4d f0	 mov	 ecx, DWORD PTR _this$[ebp]
  0000b	81 c1 a8 17 00
	00		 add	 ecx, 6056		; 000017a8H
  00011	ff 25 00 00 00
	00		 jmp	 DWORD PTR __imp_??1ioHashString@@QAE@XZ
__unwindfunclet$??0ioArmorItem@@QAE@ABV0@@Z$2:
  00017	8b 4d f0	 mov	 ecx, DWORD PTR _this$[ebp]
  0001a	81 c1 b8 17 00
	00		 add	 ecx, 6072		; 000017b8H
  00020	ff 25 00 00 00
	00		 jmp	 DWORD PTR __imp_??1ioHashString@@QAE@XZ
__unwindfunclet$??0ioArmorItem@@QAE@ABV0@@Z$3:
  00026	8b 4d f0	 mov	 ecx, DWORD PTR _this$[ebp]
  00029	81 c1 c8 17 00
	00		 add	 ecx, 6088		; 000017c8H
  0002f	e9 00 00 00 00	 jmp	 ??1?$map@KVioHashString@@U?$less@K@std@@V?$allocator@U?$pair@$$CBKVioHashString@@@std@@@3@@std@@QAE@XZ
__unwindfunclet$??0ioArmorItem@@QAE@ABV0@@Z$4:
  00034	8b 4d f0	 mov	 ecx, DWORD PTR _this$[ebp]
  00037	81 c1 d8 17 00
	00		 add	 ecx, 6104		; 000017d8H
  0003d	e9 00 00 00 00	 jmp	 ??1?$map@KVioHashString@@U?$less@K@std@@V?$allocator@U?$pair@$$CBKVioHashString@@@std@@@3@@std@@QAE@XZ
__unwindfunclet$??0ioArmorItem@@QAE@ABV0@@Z$5:
  00042	8b 4d f0	 mov	 ecx, DWORD PTR _this$[ebp]
  00045	81 c1 f0 17 00
	00		 add	 ecx, 6128		; 000017f0H
  0004b	ff 25 00 00 00
	00		 jmp	 DWORD PTR __imp_??1ioHashString@@QAE@XZ
__ehhandler$??0ioArmorItem@@QAE@ABV0@@Z:
  00051	8b 54 24 08	 mov	 edx, DWORD PTR [esp+8]
  00055	8d 42 0c	 lea	 eax, DWORD PTR [edx+12]
  00058	8b 4a ec	 mov	 ecx, DWORD PTR [edx-20]
  0005b	33 c8		 xor	 ecx, eax
  0005d	e8 00 00 00 00	 call	 @__security_check_cookie@4
  00062	b8 00 00 00 00	 mov	 eax, OFFSET __ehfuncinfo$??0ioArmorItem@@QAE@ABV0@@Z
  00067	e9 00 00 00 00	 jmp	 ___CxxFrameHandler3
text$x	ENDS
??0ioArmorItem@@QAE@ABV0@@Z ENDP			; ioArmorItem::ioArmorItem
;	COMDAT xdata$x
xdata$x	SEGMENT
__unwindtable$?Clone@ioArmorItem@@UAEPAVioItem@@XZ DD 0ffffffffH
	DD	FLAT:__unwindfunclet$?Clone@ioArmorItem@@UAEPAVioItem@@XZ$0
__ehfuncinfo$?Clone@ioArmorItem@@UAEPAVioItem@@XZ DD 019930522H
	DD	01H
	DD	FLAT:__unwindtable$?Clone@ioArmorItem@@UAEPAVioItem@@XZ
	DD	2 DUP(00H)
	DD	2 DUP(00H)
	DD	00H
	DD	01H
; Function compile flags: /Ogsp
xdata$x	ENDS
;	COMDAT ?Clone@ioArmorItem@@UAEPAVioItem@@XZ
_TEXT	SEGMENT
$T534599 = -16						; size = 4
__$EHRec$ = -12						; size = 12
?Clone@ioArmorItem@@UAEPAVioItem@@XZ PROC		; ioArmorItem::Clone, COMDAT
; _this$ = ecx

; 142  : {

  00000	6a 04		 push	 4
  00002	b8 00 00 00 00	 mov	 eax, __ehhandler$?Clone@ioArmorItem@@UAEPAVioItem@@XZ
  00007	e8 00 00 00 00	 call	 __EH_prolog3
  0000c	8b f1		 mov	 esi, ecx

; 143  : 	return new ioArmorItem( *this );

  0000e	68 04 18 00 00	 push	 6148			; 00001804H
  00013	e8 00 00 00 00	 call	 ??2@YAPAXI@Z		; operator new
  00018	59		 pop	 ecx
  00019	8b c8		 mov	 ecx, eax
  0001b	89 4d f0	 mov	 DWORD PTR $T534599[ebp], ecx
  0001e	33 c0		 xor	 eax, eax
  00020	89 45 fc	 mov	 DWORD PTR __$EHRec$[ebp+8], eax
  00023	3b c8		 cmp	 ecx, eax
  00025	74 06		 je	 SHORT $LN3@Clone
  00027	56		 push	 esi
  00028	e8 00 00 00 00	 call	 ??0ioArmorItem@@QAE@ABV0@@Z ; ioArmorItem::ioArmorItem
$LN3@Clone:

; 144  : }

  0002d	e8 00 00 00 00	 call	 __EH_epilog3
  00032	c3		 ret	 0
_TEXT	ENDS
;	COMDAT text$x
text$x	SEGMENT
__unwindfunclet$?Clone@ioArmorItem@@UAEPAVioItem@@XZ$0:
  00000	ff 75 f0	 push	 DWORD PTR $T534599[ebp]
  00003	e8 00 00 00 00	 call	 ??3@YAXPAX@Z		; operator delete
  00008	59		 pop	 ecx
  00009	c3		 ret	 0
__ehhandler$?Clone@ioArmorItem@@UAEPAVioItem@@XZ:
  0000a	8b 54 24 08	 mov	 edx, DWORD PTR [esp+8]
  0000e	8d 42 0c	 lea	 eax, DWORD PTR [edx+12]
  00011	8b 4a ec	 mov	 ecx, DWORD PTR [edx-20]
  00014	33 c8		 xor	 ecx, eax
  00016	e8 00 00 00 00	 call	 @__security_check_cookie@4
  0001b	b8 00 00 00 00	 mov	 eax, OFFSET __ehfuncinfo$?Clone@ioArmorItem@@UAEPAVioItem@@XZ
  00020	e9 00 00 00 00	 jmp	 ___CxxFrameHandler3
text$x	ENDS
?Clone@ioArmorItem@@UAEPAVioItem@@XZ ENDP		; ioArmorItem::Clone
END
