; Listing generated by Microsoft (R) Optimizing Compiler Version 16.00.30319.01 

	TITLE	D:\Lost Saga For Developer\Youtube\Tutorial\Source\src\LSClient\ioAreaWeaponControl2Skill.cpp
	.686P
	.XMM
	include listing.inc
	.model	flat

INCLUDELIB MSVCRT
INCLUDELIB OLDNAMES

PUBLIC	?_EEM_DS@?$deque@UD3DXVECTOR3@@V?$allocator@UD3DXVECTOR3@@@std@@@std@@2HB ; std::deque<D3DXVECTOR3,std::allocator<D3DXVECTOR3> >::_EEM_DS
;	COMDAT ?_EEM_DS@?$deque@UD3DXVECTOR3@@V?$allocator@UD3DXVECTOR3@@@std@@@std@@2HB
CONST	SEGMENT
?_EEM_DS@?$deque@UD3DXVECTOR3@@V?$allocator@UD3DXVECTOR3@@@std@@@std@@2HB DD 01H ; std::deque<D3DXVECTOR3,std::allocator<D3DXVECTOR3> >::_EEM_DS
CONST	ENDS
PUBLIC	?return1@@YAIXZ					; return1
; Function compile flags: /Ogsp
; File d:\lost saga for developer\youtube\tutorial\source\src\lsclient\stdafx.h
;	COMDAT ?return1@@YAIXZ
_TEXT	SEGMENT
?return1@@YAIXZ PROC					; return1, COMDAT

; 17   : 	__forceinline unsigned int return1() { __asm mov eax, 1 };

  00000	b8 01 00 00 00	 mov	 eax, 1
  00005	c3		 ret	 0
?return1@@YAIXZ ENDP					; return1
_TEXT	ENDS
PUBLIC	?return5@@YAIXZ					; return5
; Function compile flags: /Ogsp
;	COMDAT ?return5@@YAIXZ
_TEXT	SEGMENT
?return5@@YAIXZ PROC					; return5, COMDAT

; 18   : 	__forceinline unsigned int return5() { __asm mov eax, 5 };

  00000	b8 05 00 00 00	 mov	 eax, 5
  00005	c3		 ret	 0
?return5@@YAIXZ ENDP					; return5
_TEXT	ENDS
PUBLIC	?return10@@YAIXZ				; return10
; Function compile flags: /Ogsp
;	COMDAT ?return10@@YAIXZ
_TEXT	SEGMENT
?return10@@YAIXZ PROC					; return10, COMDAT

; 21   : 	__forceinline unsigned int return10() { __asm mov eax, 10 };

  00000	b8 0a 00 00 00	 mov	 eax, 10			; 0000000aH
  00005	c3		 ret	 0
?return10@@YAIXZ ENDP					; return10
_TEXT	ENDS
PUBLIC	?return100@@YAIXZ				; return100
; Function compile flags: /Ogsp
;	COMDAT ?return100@@YAIXZ
_TEXT	SEGMENT
?return100@@YAIXZ PROC					; return100, COMDAT

; 25   : 	__forceinline unsigned int return100() { __asm mov eax, 100 };

  00000	b8 64 00 00 00	 mov	 eax, 100		; 00000064H
  00005	c3		 ret	 0
?return100@@YAIXZ ENDP					; return100
_TEXT	ENDS
PUBLIC	?GetCharName@ioBaseChar@@QBEABVioHashString@@XZ	; ioBaseChar::GetCharName
; Function compile flags: /Ogsp
; File d:\lost saga for developer\youtube\tutorial\source\src\lsclient\iobasechar.h
;	COMDAT ?GetCharName@ioBaseChar@@QBEABVioHashString@@XZ
_TEXT	SEGMENT
?GetCharName@ioBaseChar@@QBEABVioHashString@@XZ PROC	; ioBaseChar::GetCharName, COMDAT
; _this$ = ecx

; 2594 : 	inline const ioHashString& GetCharName() const { return m_Name; }

  00000	8d 81 d4 02 00
	00		 lea	 eax, DWORD PTR [ecx+724]
  00006	c3		 ret	 0
?GetCharName@ioBaseChar@@QBEABVioHashString@@XZ ENDP	; ioBaseChar::GetCharName
_TEXT	ENDS
PUBLIC	?GetTargetRot@ioBaseChar@@QBEABUD3DXQUATERNION@@XZ ; ioBaseChar::GetTargetRot
; Function compile flags: /Ogsp
;	COMDAT ?GetTargetRot@ioBaseChar@@QBEABUD3DXQUATERNION@@XZ
_TEXT	SEGMENT
?GetTargetRot@ioBaseChar@@QBEABUD3DXQUATERNION@@XZ PROC	; ioBaseChar::GetTargetRot, COMDAT
; _this$ = ecx

; 2599 : 	inline const D3DXQUATERNION& GetTargetRot() const { return m_qtTargetRot; }

  00000	8d 81 a4 06 00
	00		 lea	 eax, DWORD PTR [ecx+1700]
  00006	c3		 ret	 0
?GetTargetRot@ioBaseChar@@QBEABUD3DXQUATERNION@@XZ ENDP	; ioBaseChar::GetTargetRot
_TEXT	ENDS
PUBLIC	_fabsf
EXTRN	__fltused:DWORD
; Function compile flags: /Ogsp
; File c:\program files (x86)\microsoft visual studio 10.0\vc\include\math.h
;	COMDAT _fabsf
_TEXT	SEGMENT
tv129 = 8						; size = 4
__X$ = 8						; size = 4
_fabsf	PROC						; COMDAT

; 395  :         {return ((float)fabs((double)_X)); }

  00000	55		 push	 ebp
  00001	8b ec		 mov	 ebp, esp
  00003	d9 45 08	 fld	 DWORD PTR __X$[ebp]
  00006	d9 e1		 fabs
  00008	d9 5d 08	 fstp	 DWORD PTR tv129[ebp]
  0000b	d9 45 08	 fld	 DWORD PTR tv129[ebp]
  0000e	5d		 pop	 ebp
  0000f	c3		 ret	 0
_fabsf	ENDP
_TEXT	ENDS
PUBLIC	?SetCurJumpPowerAmt@ioBaseChar@@QAEXM@Z		; ioBaseChar::SetCurJumpPowerAmt
; Function compile flags: /Ogsp
; File d:\lost saga for developer\youtube\tutorial\source\src\lsclient\iobasechar.h
;	COMDAT ?SetCurJumpPowerAmt@ioBaseChar@@QAEXM@Z
_TEXT	SEGMENT
_fAmt$ = 8						; size = 4
?SetCurJumpPowerAmt@ioBaseChar@@QAEXM@Z PROC		; ioBaseChar::SetCurJumpPowerAmt, COMDAT
; _this$ = ecx

; 2628 : 	inline void SetCurJumpPowerAmt( float fAmt ) { m_fCurJumpPowerAmt = fAmt; }

  00000	55		 push	 ebp
  00001	8b ec		 mov	 ebp, esp
  00003	f3 0f 10 45 08	 movss	 xmm0, DWORD PTR _fAmt$[ebp]
  00008	f3 0f 11 81 90
	0e 00 00	 movss	 DWORD PTR [ecx+3728], xmm0
  00010	5d		 pop	 ebp
  00011	c2 04 00	 ret	 4
?SetCurJumpPowerAmt@ioBaseChar@@QAEXM@Z ENDP		; ioBaseChar::SetCurJumpPowerAmt
_TEXT	ENDS
PUBLIC	_sqrtf
EXTRN	__CIsqrt:PROC
; Function compile flags: /Ogsp
; File c:\program files (x86)\microsoft visual studio 10.0\vc\include\math.h
;	COMDAT _sqrtf
_TEXT	SEGMENT
tv69 = 8						; size = 4
__X$ = 8						; size = 4
_sqrtf	PROC						; COMDAT

; 434  :         {return ((float)sqrt((double)_X)); }

  00000	55		 push	 ebp
  00001	8b ec		 mov	 ebp, esp
  00003	d9 45 08	 fld	 DWORD PTR __X$[ebp]
  00006	e8 00 00 00 00	 call	 __CIsqrt
  0000b	d9 5d 08	 fstp	 DWORD PTR tv69[ebp]
  0000e	d9 45 08	 fld	 DWORD PTR tv69[ebp]
  00011	5d		 pop	 ebp
  00012	c3		 ret	 0
_sqrtf	ENDP
_TEXT	ENDS
PUBLIC	?fabs@@YAMM@Z					; fabs
; Function compile flags: /Ogsp
;	COMDAT ?fabs@@YAMM@Z
_TEXT	SEGMENT
tv131 = 8						; size = 4
__X$ = 8						; size = 4
?fabs@@YAMM@Z PROC					; fabs, COMDAT

; 518  :         {return (fabsf(_X)); }

  00000	55		 push	 ebp
  00001	8b ec		 mov	 ebp, esp
  00003	d9 45 08	 fld	 DWORD PTR __X$[ebp]
  00006	d9 e1		 fabs
  00008	d9 5d 08	 fstp	 DWORD PTR tv131[ebp]
  0000b	d9 45 08	 fld	 DWORD PTR tv131[ebp]
  0000e	5d		 pop	 ebp
  0000f	c3		 ret	 0
?fabs@@YAMM@Z ENDP					; fabs
_TEXT	ENDS
PUBLIC	?GetCreator@ioBaseChar@@QAEPAVioPlayStage@@XZ	; ioBaseChar::GetCreator
; Function compile flags: /Ogsp
; File d:\lost saga for developer\youtube\tutorial\source\src\lsclient\iobasechar.h
;	COMDAT ?GetCreator@ioBaseChar@@QAEPAVioPlayStage@@XZ
_TEXT	SEGMENT
?GetCreator@ioBaseChar@@QAEPAVioPlayStage@@XZ PROC	; ioBaseChar::GetCreator, COMDAT
; _this$ = ecx

; 4013 : 	inline ioPlayStage* GetCreator() { return m_pCreator; }

  00000	8b 81 44 03 00
	00		 mov	 eax, DWORD PTR [ecx+836]
  00006	c3		 ret	 0
?GetCreator@ioBaseChar@@QAEPAVioPlayStage@@XZ ENDP	; ioBaseChar::GetCreator
_TEXT	ENDS
PUBLIC	?GetType@ioGrowthUpInfo@@QBE?AW4GrowthType@@XZ	; ioGrowthUpInfo::GetType
; Function compile flags: /Ogsp
; File d:\lost saga for developer\youtube\tutorial\source\src\lsclient\iogrowthupinfo.h
;	COMDAT ?GetType@ioGrowthUpInfo@@QBE?AW4GrowthType@@XZ
_TEXT	SEGMENT
?GetType@ioGrowthUpInfo@@QBE?AW4GrowthType@@XZ PROC	; ioGrowthUpInfo::GetType, COMDAT
; _this$ = ecx

; 23   : 	inline GrowthType GetType() const { return m_GrowthType; }

  00000	8b 41 04	 mov	 eax, DWORD PTR [ecx+4]
  00003	c3		 ret	 0
?GetType@ioGrowthUpInfo@@QBE?AW4GrowthType@@XZ ENDP	; ioGrowthUpInfo::GetType
_TEXT	ENDS
PUBLIC	??_R0?AVioGrowthUpInfo@@@8			; ioGrowthUpInfo `RTTI Type Descriptor'
PUBLIC	??_R0?AVioGrowthNormalUpInfo@@@8		; ioGrowthNormalUpInfo `RTTI Type Descriptor'
PUBLIC	?ToNormalUpInfo@@YAPAVioGrowthNormalUpInfo@@PAVioGrowthUpInfo@@@Z ; ToNormalUpInfo
EXTRN	___RTDynamicCast:PROC
EXTRN	??_7type_info@@6B@:QWORD			; type_info::`vftable'
;	COMDAT ??_R0?AVioGrowthUpInfo@@@8
_DATA	SEGMENT
??_R0?AVioGrowthUpInfo@@@8 DD FLAT:??_7type_info@@6B@	; ioGrowthUpInfo `RTTI Type Descriptor'
	DD	00H
	DB	'.?AVioGrowthUpInfo@@', 00H
_DATA	ENDS
;	COMDAT ??_R0?AVioGrowthNormalUpInfo@@@8
_DATA	SEGMENT
??_R0?AVioGrowthNormalUpInfo@@@8 DD FLAT:??_7type_info@@6B@ ; ioGrowthNormalUpInfo `RTTI Type Descriptor'
	DD	00H
	DB	'.?AVioGrowthNormalUpInfo@@', 00H
; Function compile flags: /Ogsp
_DATA	ENDS
;	COMDAT ?ToNormalUpInfo@@YAPAVioGrowthNormalUpInfo@@PAVioGrowthUpInfo@@@Z
_TEXT	SEGMENT
_pUpInfo$ = 8						; size = 4
?ToNormalUpInfo@@YAPAVioGrowthNormalUpInfo@@PAVioGrowthUpInfo@@@Z PROC ; ToNormalUpInfo, COMDAT

; 59   : {

  00000	55		 push	 ebp
  00001	8b ec		 mov	 ebp, esp

; 60   : 	if( !pUpInfo || pUpInfo->GetType() == GT_NONE )

  00003	8b 4d 08	 mov	 ecx, DWORD PTR _pUpInfo$[ebp]
  00006	85 c9		 test	 ecx, ecx
  00008	74 39		 je	 SHORT $LN6@ToNormalUp
  0000a	8b 41 04	 mov	 eax, DWORD PTR [ecx+4]
  0000d	85 c0		 test	 eax, eax
  0000f	74 32		 je	 SHORT $LN6@ToNormalUp

; 62   : 
; 63   : 	if( pUpInfo->GetType() == GT_CHAR_ATTACK || pUpInfo->GetType() == GT_SKILL_ATTACK )

  00011	83 f8 01	 cmp	 eax, 1
  00014	74 2d		 je	 SHORT $LN6@ToNormalUp
  00016	83 f8 07	 cmp	 eax, 7
  00019	74 28		 je	 SHORT $LN6@ToNormalUp

; 64   : 		return NULL;
; 65   : 	if( pUpInfo->GetType() == GT_BLOW_PUSH )

  0001b	83 f8 1e	 cmp	 eax, 30			; 0000001eH

; 66   : 		return NULL;

  0001e	74 23		 je	 SHORT $LN6@ToNormalUp

; 67   : 	if( pUpInfo->GetType() == GT_TELEPORT_ANI_RATE )

  00020	83 f8 20	 cmp	 eax, 32			; 00000020H

; 68   : 		return NULL;

  00023	74 1e		 je	 SHORT $LN6@ToNormalUp

; 69   : 	if( pUpInfo->GetType() == GT_SKILL_ATTACK_FORCE )

  00025	83 f8 1c	 cmp	 eax, 28			; 0000001cH

; 70   : 		return NULL;

  00028	74 19		 je	 SHORT $LN6@ToNormalUp

; 71   : 
; 72   : 	return dynamic_cast< ioGrowthNormalUpInfo* >( pUpInfo );

  0002a	6a 00		 push	 0
  0002c	68 00 00 00 00	 push	 OFFSET ??_R0?AVioGrowthNormalUpInfo@@@8
  00031	68 00 00 00 00	 push	 OFFSET ??_R0?AVioGrowthUpInfo@@@8
  00036	6a 00		 push	 0
  00038	51		 push	 ecx
  00039	e8 00 00 00 00	 call	 ___RTDynamicCast
  0003e	83 c4 14	 add	 esp, 20			; 00000014H

; 73   : }

  00041	5d		 pop	 ebp
  00042	c3		 ret	 0
$LN6@ToNormalUp:

; 61   : 		return NULL;

  00043	33 c0		 xor	 eax, eax

; 73   : }

  00045	5d		 pop	 ebp
  00046	c3		 ret	 0
?ToNormalUpInfo@@YAPAVioGrowthNormalUpInfo@@PAVioGrowthUpInfo@@@Z ENDP ; ToNormalUpInfo
_TEXT	ENDS
PUBLIC	?IsSkillMotionEnd@ioAreaWeaponControl2Skill@@UBE_NKPAVioBaseChar@@@Z ; ioAreaWeaponControl2Skill::IsSkillMotionEnd
EXTRN	__imp_?GetLoopSec@ioFrameTimer@@QBEKXZ:PROC
EXTRN	__imp_?GetSingleton@ioFrameTimer@@SAAAV1@XZ:PROC
; Function compile flags: /Ogsp
; File d:\lost saga for developer\youtube\tutorial\source\src\lsclient\ioareaweaponcontrol2skill.cpp
;	COMDAT ?IsSkillMotionEnd@ioAreaWeaponControl2Skill@@UBE_NKPAVioBaseChar@@@Z
_TEXT	SEGMENT
_dwActionStop$ = 8					; size = 4
_pOwner$ = 12						; size = 4
?IsSkillMotionEnd@ioAreaWeaponControl2Skill@@UBE_NKPAVioBaseChar@@@Z PROC ; ioAreaWeaponControl2Skill::IsSkillMotionEnd, COMDAT
; _this$ = ecx

; 173  : {

  00000	56		 push	 esi
  00001	8b f1		 mov	 esi, ecx

; 174  : 	if( m_ControlState != RS_END )

  00003	83 be 58 0f 00
	00 03		 cmp	 DWORD PTR [esi+3928], 3

; 175  : 		return false;

  0000a	75 23		 jne	 SHORT $LN1@IsSkillMot

; 176  : 
; 177  : 	if( m_dwEndAniStartTime > 0 && m_dwEndAniEndTime < FRAMEGETTIME() )

  0000c	83 be 94 0f 00
	00 00		 cmp	 DWORD PTR [esi+3988], 0
  00013	76 1a		 jbe	 SHORT $LN1@IsSkillMot
  00015	ff 15 00 00 00
	00		 call	 DWORD PTR __imp_?GetSingleton@ioFrameTimer@@SAAAV1@XZ
  0001b	8b c8		 mov	 ecx, eax
  0001d	ff 15 00 00 00
	00		 call	 DWORD PTR __imp_?GetLoopSec@ioFrameTimer@@QBEKXZ
  00023	39 86 98 0f 00
	00		 cmp	 DWORD PTR [esi+3992], eax
  00029	73 04		 jae	 SHORT $LN1@IsSkillMot

; 178  : 		return true;

  0002b	b0 01		 mov	 al, 1
  0002d	eb 02		 jmp	 SHORT $LN3@IsSkillMot
$LN1@IsSkillMot:

; 179  : 
; 180  : 	return false;

  0002f	32 c0		 xor	 al, al
$LN3@IsSkillMot:
  00031	5e		 pop	 esi

; 181  : }

  00032	c2 08 00	 ret	 8
?IsSkillMotionEnd@ioAreaWeaponControl2Skill@@UBE_NKPAVioBaseChar@@@Z ENDP ; ioAreaWeaponControl2Skill::IsSkillMotionEnd
_TEXT	ENDS
PUBLIC	?StartPreDelayEffect@ioAreaWeaponControl2Skill@@UAEXPAVioBaseChar@@@Z ; ioAreaWeaponControl2Skill::StartPreDelayEffect
EXTRN	?StartPreDelayEffect@ioSkill@@UAEXPAVioBaseChar@@@Z:PROC ; ioSkill::StartPreDelayEffect
; Function compile flags: /Ogsp
;	COMDAT ?StartPreDelayEffect@ioAreaWeaponControl2Skill@@UAEXPAVioBaseChar@@@Z
_TEXT	SEGMENT
_pChar$ = 8						; size = 4
?StartPreDelayEffect@ioAreaWeaponControl2Skill@@UAEXPAVioBaseChar@@@Z PROC ; ioAreaWeaponControl2Skill::StartPreDelayEffect, COMDAT
; _this$ = ecx

; 450  : {

  00000	55		 push	 ebp
  00001	8b ec		 mov	 ebp, esp

; 452  : }

  00003	5d		 pop	 ebp

; 451  : 	ioSkill::StartPreDelayEffect( pChar );

  00004	e9 00 00 00 00	 jmp	 ?StartPreDelayEffect@ioSkill@@UAEXPAVioBaseChar@@@Z ; ioSkill::StartPreDelayEffect
?StartPreDelayEffect@ioAreaWeaponControl2Skill@@UAEXPAVioBaseChar@@@Z ENDP ; ioAreaWeaponControl2Skill::StartPreDelayEffect
_TEXT	ENDS
PUBLIC	?EndPreDelayEffect@ioAreaWeaponControl2Skill@@UAEXPAVioBaseChar@@@Z ; ioAreaWeaponControl2Skill::EndPreDelayEffect
EXTRN	?EndPreDelayEffect@ioSkill@@UAEXPAVioBaseChar@@@Z:PROC ; ioSkill::EndPreDelayEffect
; Function compile flags: /Ogsp
;	COMDAT ?EndPreDelayEffect@ioAreaWeaponControl2Skill@@UAEXPAVioBaseChar@@@Z
_TEXT	SEGMENT
_pChar$ = 8						; size = 4
?EndPreDelayEffect@ioAreaWeaponControl2Skill@@UAEXPAVioBaseChar@@@Z PROC ; ioAreaWeaponControl2Skill::EndPreDelayEffect, COMDAT
; _this$ = ecx

; 455  : {

  00000	55		 push	 ebp
  00001	8b ec		 mov	 ebp, esp

; 457  : }

  00003	5d		 pop	 ebp

; 456  : 	ioSkill::EndPreDelayEffect( pChar );

  00004	e9 00 00 00 00	 jmp	 ?EndPreDelayEffect@ioSkill@@UAEXPAVioBaseChar@@@Z ; ioSkill::EndPreDelayEffect
?EndPreDelayEffect@ioAreaWeaponControl2Skill@@UAEXPAVioBaseChar@@@Z ENDP ; ioAreaWeaponControl2Skill::EndPreDelayEffect
_TEXT	ENDS
PUBLIC	?CheckAreaWeapon@ioAreaWeaponControl2Skill@@QAE_NXZ ; ioAreaWeaponControl2Skill::CheckAreaWeapon
EXTRN	?FindAreaWeaponByIndex@ioAreaWeaponManager@@QAEPAVioAreaWeapon@@K@Z:PROC ; ioAreaWeaponManager::FindAreaWeaponByIndex
EXTRN	?GetSingleton@ioAreaWeaponManager@@SAAAV1@XZ:PROC ; ioAreaWeaponManager::GetSingleton
; Function compile flags: /Ogsp
;	COMDAT ?CheckAreaWeapon@ioAreaWeaponControl2Skill@@QAE_NXZ
_TEXT	SEGMENT
?CheckAreaWeapon@ioAreaWeaponControl2Skill@@QAE_NXZ PROC ; ioAreaWeaponControl2Skill::CheckAreaWeapon, COMDAT
; _this$ = ecx

; 871  : 	if( m_dwAreaWeaponIndex == 0 )

  00000	8b 81 18 10 00
	00		 mov	 eax, DWORD PTR [ecx+4120]
  00006	85 c0		 test	 eax, eax
  00008	75 03		 jne	 SHORT $LN2@CheckAreaW

; 872  : 		return false;

  0000a	32 c0		 xor	 al, al

; 876  : 		return true;
; 877  : 
; 878  : 	return false;
; 879  : }

  0000c	c3		 ret	 0
$LN2@CheckAreaW:

; 873  : 
; 874  : 	ioAreaWeapon *pAreaWeapon = g_AreaWeaponMgr.FindAreaWeaponByIndex( m_dwAreaWeaponIndex );

  0000d	50		 push	 eax
  0000e	e8 00 00 00 00	 call	 ?GetSingleton@ioAreaWeaponManager@@SAAAV1@XZ ; ioAreaWeaponManager::GetSingleton
  00013	8b c8		 mov	 ecx, eax
  00015	e8 00 00 00 00	 call	 ?FindAreaWeaponByIndex@ioAreaWeaponManager@@QAEPAVioAreaWeapon@@K@Z ; ioAreaWeaponManager::FindAreaWeaponByIndex

; 875  : 	if( pAreaWeapon )

  0001a	85 c0		 test	 eax, eax
  0001c	0f 95 c0	 setne	 al

; 876  : 		return true;
; 877  : 
; 878  : 	return false;
; 879  : }

  0001f	c3		 ret	 0
?CheckAreaWeapon@ioAreaWeaponControl2Skill@@QAE_NXZ ENDP ; ioAreaWeaponControl2Skill::CheckAreaWeapon
_TEXT	ENDS
PUBLIC	?CheckUseItemMesh@ioAreaWeaponControl2Skill@@UAE_NXZ ; ioAreaWeaponControl2Skill::CheckUseItemMesh
; Function compile flags: /Ogsp
;	COMDAT ?CheckUseItemMesh@ioAreaWeaponControl2Skill@@UAE_NXZ
_TEXT	SEGMENT
?CheckUseItemMesh@ioAreaWeaponControl2Skill@@UAE_NXZ PROC ; ioAreaWeaponControl2Skill::CheckUseItemMesh, COMDAT
; _this$ = ecx

; 909  : 	return m_bUseItemMesh;

  00000	8a 81 08 0f 00
	00		 mov	 al, BYTE PTR [ecx+3848]

; 910  : }

  00006	c3		 ret	 0
?CheckUseItemMesh@ioAreaWeaponControl2Skill@@UAE_NXZ ENDP ; ioAreaWeaponControl2Skill::CheckUseItemMesh
_TEXT	ENDS
PUBLIC	??0D3DXVECTOR3@@QAE@XZ				; D3DXVECTOR3::D3DXVECTOR3
; Function compile flags: /Ogsp
; File c:\program files (x86)\microsoft directx sdk (june 2010)\include\d3dx9math.h
;	COMDAT ??0D3DXVECTOR3@@QAE@XZ
_TEXT	SEGMENT
??0D3DXVECTOR3@@QAE@XZ PROC				; D3DXVECTOR3::D3DXVECTOR3, COMDAT
; _this$ = ecx

; 165  :     D3DXVECTOR3() {};

  00000	8b c1		 mov	 eax, ecx
  00002	c3		 ret	 0
??0D3DXVECTOR3@@QAE@XZ ENDP				; D3DXVECTOR3::D3DXVECTOR3
_TEXT	ENDS
PUBLIC	??0D3DXQUATERNION@@QAE@XZ			; D3DXQUATERNION::D3DXQUATERNION
; Function compile flags: /Ogsp
;	COMDAT ??0D3DXQUATERNION@@QAE@XZ
_TEXT	SEGMENT
??0D3DXQUATERNION@@QAE@XZ PROC				; D3DXQUATERNION::D3DXQUATERNION, COMDAT
; _this$ = ecx

; 429  :     D3DXQUATERNION() {}

  00000	8b c1		 mov	 eax, ecx
  00002	c3		 ret	 0
??0D3DXQUATERNION@@QAE@XZ ENDP				; D3DXQUATERNION::D3DXQUATERNION
_TEXT	ENDS
PUBLIC	__real@3f91df46a2526c7a
PUBLIC	??$DEGtoRAD@M@@YAMM@Z				; DEGtoRAD<float>
;	COMDAT __real@3f91df46a2526c7a
; File d:\lost saga for developer\youtube\tutorial\source\src\lsclient\veryoftenusedefine.h
CONST	SEGMENT
__real@3f91df46a2526c7a DQ 03f91df46a2526c7ar	; 0.0174533
; Function compile flags: /Ogsp
CONST	ENDS
;	COMDAT ??$DEGtoRAD@M@@YAMM@Z
_TEXT	SEGMENT
tv129 = 8						; size = 4
_val$ = 8						; size = 4
??$DEGtoRAD@M@@YAMM@Z PROC				; DEGtoRAD<float>, COMDAT

; 20   : type  DEGtoRAD (type val) {return (type) (val * 0.0174532925199);}

  00000	55		 push	 ebp
  00001	8b ec		 mov	 ebp, esp
  00003	d9 45 08	 fld	 DWORD PTR _val$[ebp]
  00006	dc 0d 00 00 00
	00		 fmul	 QWORD PTR __real@3f91df46a2526c7a
  0000c	d9 5d 08	 fstp	 DWORD PTR tv129[ebp]
  0000f	d9 45 08	 fld	 DWORD PTR tv129[ebp]
  00012	5d		 pop	 ebp
  00013	c3		 ret	 0
??$DEGtoRAD@M@@YAMM@Z ENDP				; DEGtoRAD<float>
_TEXT	ENDS
PUBLIC	??0D3DXVECTOR3@@QAE@MMM@Z			; D3DXVECTOR3::D3DXVECTOR3
; Function compile flags: /Ogsp
; File c:\program files (x86)\microsoft directx sdk (june 2010)\include\d3dx9math.inl
;	COMDAT ??0D3DXVECTOR3@@QAE@MMM@Z
_TEXT	SEGMENT
_fx$ = 8						; size = 4
_fy$ = 12						; size = 4
_fz$ = 16						; size = 4
??0D3DXVECTOR3@@QAE@MMM@Z PROC				; D3DXVECTOR3::D3DXVECTOR3, COMDAT
; _this$ = ecx

; 303  : {

  00000	55		 push	 ebp
  00001	8b ec		 mov	 ebp, esp

; 304  :     x = fx;

  00003	f3 0f 10 45 08	 movss	 xmm0, DWORD PTR _fx$[ebp]
  00008	8b c1		 mov	 eax, ecx
  0000a	f3 0f 11 00	 movss	 DWORD PTR [eax], xmm0

; 305  :     y = fy;

  0000e	f3 0f 10 45 0c	 movss	 xmm0, DWORD PTR _fy$[ebp]
  00013	f3 0f 11 40 04	 movss	 DWORD PTR [eax+4], xmm0

; 306  :     z = fz;

  00018	f3 0f 10 45 10	 movss	 xmm0, DWORD PTR _fz$[ebp]
  0001d	f3 0f 11 40 08	 movss	 DWORD PTR [eax+8], xmm0

; 307  : }

  00022	5d		 pop	 ebp
  00023	c2 0c 00	 ret	 12			; 0000000cH
??0D3DXVECTOR3@@QAE@MMM@Z ENDP				; D3DXVECTOR3::D3DXVECTOR3
_TEXT	ENDS
PUBLIC	??YD3DXVECTOR3@@QAEAAU0@ABU0@@Z			; D3DXVECTOR3::operator+=
; Function compile flags: /Ogsp
;	COMDAT ??YD3DXVECTOR3@@QAEAAU0@ABU0@@Z
_TEXT	SEGMENT
_v$ = 8							; size = 4
??YD3DXVECTOR3@@QAEAAU0@ABU0@@Z PROC			; D3DXVECTOR3::operator+=, COMDAT
; _this$ = ecx

; 327  : {

  00000	55		 push	 ebp
  00001	8b ec		 mov	 ebp, esp
  00003	8b c1		 mov	 eax, ecx

; 328  :     x += v.x;

  00005	8b 4d 08	 mov	 ecx, DWORD PTR _v$[ebp]
  00008	f3 0f 10 01	 movss	 xmm0, DWORD PTR [ecx]
  0000c	f3 0f 10 08	 movss	 xmm1, DWORD PTR [eax]
  00010	0f 5a c0	 cvtps2pd xmm0, xmm0
  00013	0f 5a c9	 cvtps2pd xmm1, xmm1
  00016	f2 0f 58 c1	 addsd	 xmm0, xmm1

; 329  :     y += v.y;

  0001a	f3 0f 10 48 04	 movss	 xmm1, DWORD PTR [eax+4]
  0001f	66 0f 5a c0	 cvtpd2ps xmm0, xmm0
  00023	f3 0f 11 00	 movss	 DWORD PTR [eax], xmm0
  00027	f3 0f 10 41 04	 movss	 xmm0, DWORD PTR [ecx+4]
  0002c	0f 5a c0	 cvtps2pd xmm0, xmm0
  0002f	0f 5a c9	 cvtps2pd xmm1, xmm1
  00032	f2 0f 58 c1	 addsd	 xmm0, xmm1

; 330  :     z += v.z;

  00036	f3 0f 10 48 08	 movss	 xmm1, DWORD PTR [eax+8]
  0003b	66 0f 5a c0	 cvtpd2ps xmm0, xmm0
  0003f	f3 0f 11 40 04	 movss	 DWORD PTR [eax+4], xmm0
  00044	f3 0f 10 41 08	 movss	 xmm0, DWORD PTR [ecx+8]
  00049	0f 5a c0	 cvtps2pd xmm0, xmm0
  0004c	0f 5a c9	 cvtps2pd xmm1, xmm1
  0004f	f2 0f 58 c1	 addsd	 xmm0, xmm1
  00053	66 0f 5a c0	 cvtpd2ps xmm0, xmm0
  00057	f3 0f 11 40 08	 movss	 DWORD PTR [eax+8], xmm0

; 331  :     return *this;
; 332  : }

  0005c	5d		 pop	 ebp
  0005d	c2 04 00	 ret	 4
??YD3DXVECTOR3@@QAEAAU0@ABU0@@Z ENDP			; D3DXVECTOR3::operator+=
_TEXT	ENDS
PUBLIC	??XD3DXVECTOR3@@QAEAAU0@M@Z			; D3DXVECTOR3::operator*=
; Function compile flags: /Ogsp
;	COMDAT ??XD3DXVECTOR3@@QAEAAU0@M@Z
_TEXT	SEGMENT
_f$ = 8							; size = 4
??XD3DXVECTOR3@@QAEAAU0@M@Z PROC			; D3DXVECTOR3::operator*=, COMDAT
; _this$ = ecx

; 345  : {

  00000	55		 push	 ebp
  00001	8b ec		 mov	 ebp, esp

; 346  :     x *= f;

  00003	f3 0f 10 4d 08	 movss	 xmm1, DWORD PTR _f$[ebp]
  00008	8b c1		 mov	 eax, ecx
  0000a	f3 0f 10 00	 movss	 xmm0, DWORD PTR [eax]
  0000e	0f 5a c0	 cvtps2pd xmm0, xmm0
  00011	0f 5a c9	 cvtps2pd xmm1, xmm1
  00014	f2 0f 59 c1	 mulsd	 xmm0, xmm1

; 347  :     y *= f;

  00018	f3 0f 10 4d 08	 movss	 xmm1, DWORD PTR _f$[ebp]
  0001d	66 0f 5a c0	 cvtpd2ps xmm0, xmm0
  00021	f3 0f 11 00	 movss	 DWORD PTR [eax], xmm0
  00025	f3 0f 10 40 04	 movss	 xmm0, DWORD PTR [eax+4]
  0002a	0f 5a c0	 cvtps2pd xmm0, xmm0
  0002d	0f 5a c9	 cvtps2pd xmm1, xmm1
  00030	f2 0f 59 c1	 mulsd	 xmm0, xmm1

; 348  :     z *= f;

  00034	f3 0f 10 48 08	 movss	 xmm1, DWORD PTR [eax+8]
  00039	66 0f 5a c0	 cvtpd2ps xmm0, xmm0
  0003d	f3 0f 11 40 04	 movss	 DWORD PTR [eax+4], xmm0
  00042	f3 0f 10 45 08	 movss	 xmm0, DWORD PTR _f$[ebp]
  00047	0f 5a c0	 cvtps2pd xmm0, xmm0
  0004a	0f 5a c9	 cvtps2pd xmm1, xmm1
  0004d	f2 0f 59 c1	 mulsd	 xmm0, xmm1
  00051	f2 0f 5a c0	 cvtsd2ss xmm0, xmm0
  00055	f3 0f 11 40 08	 movss	 DWORD PTR [eax+8], xmm0

; 349  :     return *this;
; 350  : }

  0005a	5d		 pop	 ebp
  0005b	c2 04 00	 ret	 4
??XD3DXVECTOR3@@QAEAAU0@M@Z ENDP			; D3DXVECTOR3::operator*=
_TEXT	ENDS
PUBLIC	??HD3DXVECTOR3@@QBE?AU0@ABU0@@Z			; D3DXVECTOR3::operator+
; Function compile flags: /Ogsp
;	COMDAT ??HD3DXVECTOR3@@QBE?AU0@ABU0@@Z
_TEXT	SEGMENT
___$ReturnUdt$ = 8					; size = 4
_v$ = 12						; size = 4
??HD3DXVECTOR3@@QBE?AU0@ABU0@@Z PROC			; D3DXVECTOR3::operator+, COMDAT
; _this$ = ecx

; 380  : {

  00000	55		 push	 ebp
  00001	8b ec		 mov	 ebp, esp

; 381  :     return D3DXVECTOR3(x + v.x, y + v.y, z + v.z);

  00003	8b 55 0c	 mov	 edx, DWORD PTR _v$[ebp]
  00006	f3 0f 10 02	 movss	 xmm0, DWORD PTR [edx]
  0000a	f3 0f 10 09	 movss	 xmm1, DWORD PTR [ecx]
  0000e	8b 45 08	 mov	 eax, DWORD PTR ___$ReturnUdt$[ebp]
  00011	0f 5a c0	 cvtps2pd xmm0, xmm0
  00014	0f 5a c9	 cvtps2pd xmm1, xmm1
  00017	f2 0f 58 c1	 addsd	 xmm0, xmm1
  0001b	f3 0f 10 49 04	 movss	 xmm1, DWORD PTR [ecx+4]
  00020	66 0f 5a c0	 cvtpd2ps xmm0, xmm0
  00024	f3 0f 11 00	 movss	 DWORD PTR [eax], xmm0
  00028	f3 0f 10 42 04	 movss	 xmm0, DWORD PTR [edx+4]
  0002d	0f 5a c0	 cvtps2pd xmm0, xmm0
  00030	0f 5a c9	 cvtps2pd xmm1, xmm1
  00033	f2 0f 58 c1	 addsd	 xmm0, xmm1
  00037	f3 0f 10 49 08	 movss	 xmm1, DWORD PTR [ecx+8]
  0003c	66 0f 5a c0	 cvtpd2ps xmm0, xmm0
  00040	f3 0f 11 40 04	 movss	 DWORD PTR [eax+4], xmm0
  00045	f3 0f 10 42 08	 movss	 xmm0, DWORD PTR [edx+8]
  0004a	0f 5a c0	 cvtps2pd xmm0, xmm0
  0004d	0f 5a c9	 cvtps2pd xmm1, xmm1
  00050	f2 0f 58 c1	 addsd	 xmm0, xmm1
  00054	66 0f 5a c0	 cvtpd2ps xmm0, xmm0
  00058	f3 0f 11 40 08	 movss	 DWORD PTR [eax+8], xmm0

; 382  : }

  0005d	5d		 pop	 ebp
  0005e	c2 08 00	 ret	 8
??HD3DXVECTOR3@@QBE?AU0@ABU0@@Z ENDP			; D3DXVECTOR3::operator+
_TEXT	ENDS
PUBLIC	??GD3DXVECTOR3@@QBE?AU0@ABU0@@Z			; D3DXVECTOR3::operator-
; Function compile flags: /Ogsp
;	COMDAT ??GD3DXVECTOR3@@QBE?AU0@ABU0@@Z
_TEXT	SEGMENT
___$ReturnUdt$ = 8					; size = 4
_v$ = 12						; size = 4
??GD3DXVECTOR3@@QBE?AU0@ABU0@@Z PROC			; D3DXVECTOR3::operator-, COMDAT
; _this$ = ecx

; 386  : {

  00000	55		 push	 ebp
  00001	8b ec		 mov	 ebp, esp

; 387  :     return D3DXVECTOR3(x - v.x, y - v.y, z - v.z);

  00003	8b 55 0c	 mov	 edx, DWORD PTR _v$[ebp]
  00006	f3 0f 10 01	 movss	 xmm0, DWORD PTR [ecx]
  0000a	f3 0f 10 0a	 movss	 xmm1, DWORD PTR [edx]
  0000e	8b 45 08	 mov	 eax, DWORD PTR ___$ReturnUdt$[ebp]
  00011	0f 5a c0	 cvtps2pd xmm0, xmm0
  00014	0f 5a c9	 cvtps2pd xmm1, xmm1
  00017	f2 0f 5c c1	 subsd	 xmm0, xmm1
  0001b	f3 0f 10 4a 04	 movss	 xmm1, DWORD PTR [edx+4]
  00020	66 0f 5a c0	 cvtpd2ps xmm0, xmm0
  00024	f3 0f 11 00	 movss	 DWORD PTR [eax], xmm0
  00028	f3 0f 10 41 04	 movss	 xmm0, DWORD PTR [ecx+4]
  0002d	0f 5a c0	 cvtps2pd xmm0, xmm0
  00030	0f 5a c9	 cvtps2pd xmm1, xmm1
  00033	f2 0f 5c c1	 subsd	 xmm0, xmm1
  00037	f3 0f 10 4a 08	 movss	 xmm1, DWORD PTR [edx+8]
  0003c	66 0f 5a c0	 cvtpd2ps xmm0, xmm0
  00040	f3 0f 11 40 04	 movss	 DWORD PTR [eax+4], xmm0
  00045	f3 0f 10 41 08	 movss	 xmm0, DWORD PTR [ecx+8]
  0004a	0f 5a c0	 cvtps2pd xmm0, xmm0
  0004d	0f 5a c9	 cvtps2pd xmm1, xmm1
  00050	f2 0f 5c c1	 subsd	 xmm0, xmm1
  00054	66 0f 5a c0	 cvtpd2ps xmm0, xmm0
  00058	f3 0f 11 40 08	 movss	 DWORD PTR [eax+8], xmm0

; 388  : }

  0005d	5d		 pop	 ebp
  0005e	c2 08 00	 ret	 8
??GD3DXVECTOR3@@QBE?AU0@ABU0@@Z ENDP			; D3DXVECTOR3::operator-
_TEXT	ENDS
PUBLIC	?D3DXVec3Length@@YAMPBUD3DXVECTOR3@@@Z		; D3DXVec3Length
; Function compile flags: /Ogsp
;	COMDAT ?D3DXVec3Length@@YAMPBUD3DXVECTOR3@@@Z
_TEXT	SEGMENT
tv169 = 8						; size = 4
tv160 = 8						; size = 4
_pV$ = 8						; size = 4
?D3DXVec3Length@@YAMPBUD3DXVECTOR3@@@Z PROC		; D3DXVec3Length, COMDAT

; 1710 : {

  00000	55		 push	 ebp
  00001	8b ec		 mov	 ebp, esp

; 1711 : #ifdef D3DX_DEBUG
; 1712 :     if(!pV)
; 1713 :         return 0.0f;
; 1714 : #endif
; 1715 : 
; 1716 : #ifdef __cplusplus
; 1717 :     return sqrtf(pV->x * pV->x + pV->y * pV->y + pV->z * pV->z);

  00003	8b 45 08	 mov	 eax, DWORD PTR _pV$[ebp]
  00006	d9 40 04	 fld	 DWORD PTR [eax+4]
  00009	d9 00		 fld	 DWORD PTR [eax]
  0000b	d9 40 08	 fld	 DWORD PTR [eax+8]
  0000e	d9 c1		 fld	 ST(1)
  00010	de ca		 fmulp	 ST(2), ST(0)
  00012	d9 c2		 fld	 ST(2)
  00014	de cb		 fmulp	 ST(3), ST(0)
  00016	d9 c9		 fxch	 ST(1)
  00018	de c2		 faddp	 ST(2), ST(0)
  0001a	d9 c0		 fld	 ST(0)
  0001c	de c9		 fmulp	 ST(1), ST(0)
  0001e	de c1		 faddp	 ST(1), ST(0)
  00020	d9 5d 08	 fstp	 DWORD PTR tv169[ebp]
  00023	d9 45 08	 fld	 DWORD PTR tv169[ebp]
  00026	e8 00 00 00 00	 call	 __CIsqrt
  0002b	d9 5d 08	 fstp	 DWORD PTR tv160[ebp]
  0002e	d9 45 08	 fld	 DWORD PTR tv160[ebp]

; 1718 : #else
; 1719 :     return (FLOAT) sqrt(pV->x * pV->x + pV->y * pV->y + pV->z * pV->z);
; 1720 : #endif
; 1721 : }

  00031	5d		 pop	 ebp
  00032	c3		 ret	 0
?D3DXVec3Length@@YAMPBUD3DXVECTOR3@@@Z ENDP		; D3DXVec3Length
_TEXT	ENDS
PUBLIC	?_DECSTR@@YAXPADH@Z				; _DECSTR
; Function compile flags: /Ogsp
; File d:\lost saga for developer\youtube\tutorial\source\src\lsclient\stringprotect.h
;	COMDAT ?_DECSTR@@YAXPADH@Z
_TEXT	SEGMENT
_s$ = 8							; size = 4
_l$ = 12						; size = 4
?_DECSTR@@YAXPADH@Z PROC				; _DECSTR, COMDAT

; 40   : __forceinline void _DECSTR(char* s, int l){int i=0,l4=(l-1)/4,*p=(int*)s;s[l-1]=0;for(;i<l4;++i)*(p++)^=0xEAEBECED;for(i=l4*4;i<l-1;++i)s[i]^=0xED-i%4;}

  00000	55		 push	 ebp
  00001	8b ec		 mov	 ebp, esp
  00003	8b 4d 0c	 mov	 ecx, DWORD PTR _l$[ebp]
  00006	56		 push	 esi
  00007	8b 75 08	 mov	 esi, DWORD PTR _s$[ebp]
  0000a	57		 push	 edi
  0000b	8d 79 ff	 lea	 edi, DWORD PTR [ecx-1]
  0000e	8b c7		 mov	 eax, edi
  00010	99		 cdq
  00011	83 e2 03	 and	 edx, 3
  00014	03 c2		 add	 eax, edx
  00016	c1 f8 02	 sar	 eax, 2
  00019	8b d6		 mov	 edx, esi
  0001b	c6 44 0e ff 00	 mov	 BYTE PTR [esi+ecx-1], 0
  00020	85 c0		 test	 eax, eax
  00022	7e 0e		 jle	 SHORT $LN4@DECSTR
  00024	8b c8		 mov	 ecx, eax
$LL6@DECSTR:
  00026	81 32 ed ec eb
	ea		 xor	 DWORD PTR [edx], -353637139 ; eaebecedH
  0002c	83 c2 04	 add	 edx, 4
  0002f	49		 dec	 ecx
  00030	75 f4		 jne	 SHORT $LL6@DECSTR
$LN4@DECSTR:
  00032	c1 e0 02	 shl	 eax, 2
  00035	eb 17		 jmp	 SHORT $LN14@DECSTR
$LL3@DECSTR:
  00037	8b c8		 mov	 ecx, eax
  00039	81 e1 03 00 00
	80		 and	 ecx, -2147483645	; 80000003H
  0003f	79 05		 jns	 SHORT $LN13@DECSTR
  00041	49		 dec	 ecx
  00042	83 c9 fc	 or	 ecx, -4			; fffffffcH
  00045	41		 inc	 ecx
$LN13@DECSTR:
  00046	b2 ed		 mov	 dl, -19			; ffffffedH
  00048	2a d1		 sub	 dl, cl
  0004a	30 14 30	 xor	 BYTE PTR [eax+esi], dl
  0004d	40		 inc	 eax
$LN14@DECSTR:
  0004e	3b c7		 cmp	 eax, edi
  00050	7c e5		 jl	 SHORT $LL3@DECSTR
  00052	5f		 pop	 edi
  00053	5e		 pop	 esi
  00054	5d		 pop	 ebp
  00055	c3		 ret	 0
?_DECSTR@@YAXPADH@Z ENDP				; _DECSTR
_TEXT	ENDS
PUBLIC	?GetGroup@ioGameEntity@@QBEPAVioEntityGroup@@XZ	; ioGameEntity::GetGroup
; Function compile flags: /Ogsp
; File d:\lost saga for developer\youtube\tutorial\source\src\lsclient\iogameentity.h
;	COMDAT ?GetGroup@ioGameEntity@@QBEPAVioEntityGroup@@XZ
_TEXT	SEGMENT
?GetGroup@ioGameEntity@@QBEPAVioEntityGroup@@XZ PROC	; ioGameEntity::GetGroup, COMDAT
; _this$ = ecx

; 166  : 	inline ioEntityGroup* GetGroup() const { return m_pGroup; }

  00000	8b 41 04	 mov	 eax, DWORD PTR [ecx+4]
  00003	c3		 ret	 0
?GetGroup@ioGameEntity@@QBEPAVioEntityGroup@@XZ ENDP	; ioGameEntity::GetGroup
_TEXT	ENDS
PUBLIC	?GetMagicCircleOffSet@ioItem@@QBEMXZ		; ioItem::GetMagicCircleOffSet
; Function compile flags: /Ogsp
; File d:\lost saga for developer\youtube\tutorial\source\src\lsclient\ioitem.h
;	COMDAT ?GetMagicCircleOffSet@ioItem@@QBEMXZ
_TEXT	SEGMENT
?GetMagicCircleOffSet@ioItem@@QBEMXZ PROC		; ioItem::GetMagicCircleOffSet, COMDAT
; _this$ = ecx

; 328  : 	inline float GetMagicCircleOffSet() const { return m_fMagicCircleOffSet; }

  00000	d9 81 b4 04 00
	00		 fld	 DWORD PTR [ecx+1204]
  00006	c3		 ret	 0
?GetMagicCircleOffSet@ioItem@@QBEMXZ ENDP		; ioItem::GetMagicCircleOffSet
_TEXT	ENDS
PUBLIC	?GetStartPos@ioAreaWeapon@@QBEABUD3DXVECTOR3@@XZ ; ioAreaWeapon::GetStartPos
; Function compile flags: /Ogsp
; File d:\lost saga for developer\youtube\tutorial\source\src\lsclient\ioareaweapon.h
;	COMDAT ?GetStartPos@ioAreaWeapon@@QBEABUD3DXVECTOR3@@XZ
_TEXT	SEGMENT
?GetStartPos@ioAreaWeapon@@QBEABUD3DXVECTOR3@@XZ PROC	; ioAreaWeapon::GetStartPos, COMDAT
; _this$ = ecx

; 427  : 	inline const D3DXVECTOR3& GetStartPos() const { return m_vStartPos; }

  00000	8d 81 4c 01 00
	00		 lea	 eax, DWORD PTR [ecx+332]
  00006	c3		 ret	 0
?GetStartPos@ioAreaWeapon@@QBEABUD3DXVECTOR3@@XZ ENDP	; ioAreaWeapon::GetStartPos
_TEXT	ENDS
PUBLIC	?GetPreStartPos@ioAreaWeapon@@QBEABUD3DXVECTOR3@@XZ ; ioAreaWeapon::GetPreStartPos
; Function compile flags: /Ogsp
;	COMDAT ?GetPreStartPos@ioAreaWeapon@@QBEABUD3DXVECTOR3@@XZ
_TEXT	SEGMENT
?GetPreStartPos@ioAreaWeapon@@QBEABUD3DXVECTOR3@@XZ PROC ; ioAreaWeapon::GetPreStartPos, COMDAT
; _this$ = ecx

; 428  : 	inline const D3DXVECTOR3& GetPreStartPos() const { return m_vPreStartPos; }

  00000	8d 81 58 01 00
	00		 lea	 eax, DWORD PTR [ecx+344]
  00006	c3		 ret	 0
?GetPreStartPos@ioAreaWeapon@@QBEABUD3DXVECTOR3@@XZ ENDP ; ioAreaWeapon::GetPreStartPos
_TEXT	ENDS
PUBLIC	?GetAreaWeaponIndex@ioAreaWeapon@@QBEKXZ	; ioAreaWeapon::GetAreaWeaponIndex
; Function compile flags: /Ogsp
;	COMDAT ?GetAreaWeaponIndex@ioAreaWeapon@@QBEKXZ
_TEXT	SEGMENT
?GetAreaWeaponIndex@ioAreaWeapon@@QBEKXZ PROC		; ioAreaWeapon::GetAreaWeaponIndex, COMDAT
; _this$ = ecx

; 431  : 	inline DWORD GetAreaWeaponIndex() const { return m_dwAreaWeaponIndex; }

  00000	8b 41 14	 mov	 eax, DWORD PTR [ecx+20]
  00003	c3		 ret	 0
?GetAreaWeaponIndex@ioAreaWeapon@@QBEKXZ ENDP		; ioAreaWeapon::GetAreaWeaponIndex
_TEXT	ENDS
PUBLIC	??_R0?AVioItem@@@8				; ioItem `RTTI Type Descriptor'
PUBLIC	??_R0?AVioAttackableItem@@@8			; ioAttackableItem `RTTI Type Descriptor'
PUBLIC	?ToAttackableItem@@YAPAVioAttackableItem@@PAVioItem@@@Z ; ToAttackableItem
;	COMDAT ??_R0?AVioItem@@@8
; File d:\lost saga for developer\youtube\tutorial\source\src\lsclient\ioattackableitem.h
_DATA	SEGMENT
??_R0?AVioItem@@@8 DD FLAT:??_7type_info@@6B@		; ioItem `RTTI Type Descriptor'
	DD	00H
	DB	'.?AVioItem@@', 00H
_DATA	ENDS
;	COMDAT ??_R0?AVioAttackableItem@@@8
_DATA	SEGMENT
??_R0?AVioAttackableItem@@@8 DD FLAT:??_7type_info@@6B@	; ioAttackableItem `RTTI Type Descriptor'
	DD	00H
	DB	'.?AVioAttackableItem@@', 00H
; Function compile flags: /Ogsp
_DATA	ENDS
;	COMDAT ?ToAttackableItem@@YAPAVioAttackableItem@@PAVioItem@@@Z
_TEXT	SEGMENT
_pItem$ = 8						; size = 4
?ToAttackableItem@@YAPAVioAttackableItem@@PAVioItem@@@Z PROC ; ToAttackableItem, COMDAT

; 737  : {

  00000	55		 push	 ebp
  00001	8b ec		 mov	 ebp, esp
  00003	56		 push	 esi

; 738  : 	if( !pItem )	return NULL;

  00004	8b 75 08	 mov	 esi, DWORD PTR _pItem$[ebp]
  00007	85 f6		 test	 esi, esi
  00009	75 04		 jne	 SHORT $LN2@ToAttackab
$LN5@ToAttackab:
  0000b	33 c0		 xor	 eax, eax
  0000d	eb 2f		 jmp	 SHORT $LN3@ToAttackab
$LN2@ToAttackab:

; 739  : 	if( pItem->GetType() != ioItem::IT_WEAPON && pItem->GetType() != ioItem::IT_ARMOR )

  0000f	8b 06		 mov	 eax, DWORD PTR [esi]
  00011	8b ce		 mov	 ecx, esi
  00013	ff 50 08	 call	 DWORD PTR [eax+8]
  00016	83 f8 01	 cmp	 eax, 1
  00019	74 0c		 je	 SHORT $LN1@ToAttackab
  0001b	8b 06		 mov	 eax, DWORD PTR [esi]
  0001d	8b ce		 mov	 ecx, esi
  0001f	ff 50 08	 call	 DWORD PTR [eax+8]
  00022	83 f8 02	 cmp	 eax, 2

; 740  : 		return NULL;

  00025	75 e4		 jne	 SHORT $LN5@ToAttackab
$LN1@ToAttackab:

; 741  : 
; 742  : 	return dynamic_cast< ioAttackableItem* >( pItem );

  00027	6a 00		 push	 0
  00029	68 00 00 00 00	 push	 OFFSET ??_R0?AVioAttackableItem@@@8
  0002e	68 00 00 00 00	 push	 OFFSET ??_R0?AVioItem@@@8
  00033	6a 00		 push	 0
  00035	56		 push	 esi
  00036	e8 00 00 00 00	 call	 ___RTDynamicCast
  0003b	83 c4 14	 add	 esp, 20			; 00000014H
$LN3@ToAttackab:
  0003e	5e		 pop	 esi

; 743  : }

  0003f	5d		 pop	 ebp
  00040	c3		 ret	 0
?ToAttackableItem@@YAPAVioAttackableItem@@PAVioItem@@@Z ENDP ; ToAttackableItem
_TEXT	ENDS
PUBLIC	?GetOwnerItem@ioSkill@@QBEPAVioItem@@XZ		; ioSkill::GetOwnerItem
; Function compile flags: /Ogsp
; File d:\lost saga for developer\youtube\tutorial\source\src\lsclient\ioskill.h
;	COMDAT ?GetOwnerItem@ioSkill@@QBEPAVioItem@@XZ
_TEXT	SEGMENT
?GetOwnerItem@ioSkill@@QBEPAVioItem@@XZ PROC		; ioSkill::GetOwnerItem, COMDAT
; _this$ = ecx

; 397  : 	inline ioItem *GetOwnerItem() const { return m_pOwnerItem; }

  00000	8b 81 a4 02 00
	00		 mov	 eax, DWORD PTR [ecx+676]
  00006	c3		 ret	 0
?GetOwnerItem@ioSkill@@QBEPAVioItem@@XZ ENDP		; ioSkill::GetOwnerItem
_TEXT	ENDS
PUBLIC	?GetName@ioSkill@@QBEABVioHashString@@XZ	; ioSkill::GetName
; Function compile flags: /Ogsp
;	COMDAT ?GetName@ioSkill@@QBEABVioHashString@@XZ
_TEXT	SEGMENT
?GetName@ioSkill@@QBEABVioHashString@@XZ PROC		; ioSkill::GetName, COMDAT
; _this$ = ecx

; 414  : 	inline const ioHashString& GetName() const { return m_Name; }

  00000	8d 41 24	 lea	 eax, DWORD PTR [ecx+36]
  00003	c3		 ret	 0
?GetName@ioSkill@@QBEABVioHashString@@XZ ENDP		; ioSkill::GetName
_TEXT	ENDS
PUBLIC	??_7?$CEncrypt@M@@6B@				; CEncrypt<float>::`vftable'
PUBLIC	??1?$CEncrypt@M@@UAE@XZ				; CEncrypt<float>::~CEncrypt<float>
PUBLIC	??_R4?$CEncrypt@M@@6B@				; CEncrypt<float>::`RTTI Complete Object Locator'
PUBLIC	??_R0?AV?$CEncrypt@M@@@8			; CEncrypt<float> `RTTI Type Descriptor'
PUBLIC	??_R3?$CEncrypt@M@@8				; CEncrypt<float>::`RTTI Class Hierarchy Descriptor'
PUBLIC	??_R2?$CEncrypt@M@@8				; CEncrypt<float>::`RTTI Base Class Array'
PUBLIC	??_R1A@?0A@EA@?$CEncrypt@M@@8			; CEncrypt<float>::`RTTI Base Class Descriptor at (0,-1,0,64)'
EXTRN	??1ccddaabb@@UAE@XZ:PROC			; ccddaabb::~ccddaabb
EXTRN	??_E?$CEncrypt@M@@UAEPAXI@Z:PROC		; CEncrypt<float>::`vector deleting destructor'
;	COMDAT ??_R1A@?0A@EA@?$CEncrypt@M@@8
; File d:\lost saga for developer\youtube\tutorial\source\src\lsclient\encryptvalue.h
rdata$r	SEGMENT
??_R1A@?0A@EA@?$CEncrypt@M@@8 DD FLAT:??_R0?AV?$CEncrypt@M@@@8 ; CEncrypt<float>::`RTTI Base Class Descriptor at (0,-1,0,64)'
	DD	00H
	DD	00H
	DD	0ffffffffH
	DD	00H
	DD	040H
	DD	FLAT:??_R3?$CEncrypt@M@@8
rdata$r	ENDS
;	COMDAT ??_R2?$CEncrypt@M@@8
rdata$r	SEGMENT
??_R2?$CEncrypt@M@@8 DD FLAT:??_R1A@?0A@EA@?$CEncrypt@M@@8 ; CEncrypt<float>::`RTTI Base Class Array'
rdata$r	ENDS
;	COMDAT ??_R3?$CEncrypt@M@@8
rdata$r	SEGMENT
??_R3?$CEncrypt@M@@8 DD 00H				; CEncrypt<float>::`RTTI Class Hierarchy Descriptor'
	DD	00H
	DD	01H
	DD	FLAT:??_R2?$CEncrypt@M@@8
rdata$r	ENDS
;	COMDAT ??_R0?AV?$CEncrypt@M@@@8
_DATA	SEGMENT
??_R0?AV?$CEncrypt@M@@@8 DD FLAT:??_7type_info@@6B@	; CEncrypt<float> `RTTI Type Descriptor'
	DD	00H
	DB	'.?AV?$CEncrypt@M@@', 00H
_DATA	ENDS
;	COMDAT ??_R4?$CEncrypt@M@@6B@
rdata$r	SEGMENT
??_R4?$CEncrypt@M@@6B@ DD 00H				; CEncrypt<float>::`RTTI Complete Object Locator'
	DD	00H
	DD	00H
	DD	FLAT:??_R0?AV?$CEncrypt@M@@@8
	DD	FLAT:??_R3?$CEncrypt@M@@8
rdata$r	ENDS
;	COMDAT ??_7?$CEncrypt@M@@6B@
CONST	SEGMENT
??_7?$CEncrypt@M@@6B@ DD FLAT:??_R4?$CEncrypt@M@@6B@	; CEncrypt<float>::`vftable'
	DD	FLAT:??_E?$CEncrypt@M@@UAEPAXI@Z
; Function compile flags: /Ogsp
CONST	ENDS
;	COMDAT ??1?$CEncrypt@M@@UAE@XZ
_TEXT	SEGMENT
??1?$CEncrypt@M@@UAE@XZ PROC				; CEncrypt<float>::~CEncrypt<float>, COMDAT
; _this$ = ecx

; 127  : 	{

  00000	c7 01 00 00 00
	00		 mov	 DWORD PTR [ecx], OFFSET ??_7?$CEncrypt@M@@6B@

; 128  : 	}

  00006	83 c1 0c	 add	 ecx, 12			; 0000000cH
  00009	e9 00 00 00 00	 jmp	 ??1ccddaabb@@UAE@XZ	; ccddaabb::~ccddaabb
??1?$CEncrypt@M@@UAE@XZ ENDP				; CEncrypt<float>::~CEncrypt<float>
_TEXT	ENDS
PUBLIC	??_7?$CEncrypt@K@@6B@				; CEncrypt<unsigned long>::`vftable'
PUBLIC	??1?$CEncrypt@K@@UAE@XZ				; CEncrypt<unsigned long>::~CEncrypt<unsigned long>
PUBLIC	??_R4?$CEncrypt@K@@6B@				; CEncrypt<unsigned long>::`RTTI Complete Object Locator'
PUBLIC	??_R0?AV?$CEncrypt@K@@@8			; CEncrypt<unsigned long> `RTTI Type Descriptor'
PUBLIC	??_R3?$CEncrypt@K@@8				; CEncrypt<unsigned long>::`RTTI Class Hierarchy Descriptor'
PUBLIC	??_R2?$CEncrypt@K@@8				; CEncrypt<unsigned long>::`RTTI Base Class Array'
PUBLIC	??_R1A@?0A@EA@?$CEncrypt@K@@8			; CEncrypt<unsigned long>::`RTTI Base Class Descriptor at (0,-1,0,64)'
EXTRN	??_E?$CEncrypt@K@@UAEPAXI@Z:PROC		; CEncrypt<unsigned long>::`vector deleting destructor'
;	COMDAT ??_R1A@?0A@EA@?$CEncrypt@K@@8
rdata$r	SEGMENT
??_R1A@?0A@EA@?$CEncrypt@K@@8 DD FLAT:??_R0?AV?$CEncrypt@K@@@8 ; CEncrypt<unsigned long>::`RTTI Base Class Descriptor at (0,-1,0,64)'
	DD	00H
	DD	00H
	DD	0ffffffffH
	DD	00H
	DD	040H
	DD	FLAT:??_R3?$CEncrypt@K@@8
rdata$r	ENDS
;	COMDAT ??_R2?$CEncrypt@K@@8
rdata$r	SEGMENT
??_R2?$CEncrypt@K@@8 DD FLAT:??_R1A@?0A@EA@?$CEncrypt@K@@8 ; CEncrypt<unsigned long>::`RTTI Base Class Array'
rdata$r	ENDS
;	COMDAT ??_R3?$CEncrypt@K@@8
rdata$r	SEGMENT
??_R3?$CEncrypt@K@@8 DD 00H				; CEncrypt<unsigned long>::`RTTI Class Hierarchy Descriptor'
	DD	00H
	DD	01H
	DD	FLAT:??_R2?$CEncrypt@K@@8
rdata$r	ENDS
;	COMDAT ??_R0?AV?$CEncrypt@K@@@8
_DATA	SEGMENT
??_R0?AV?$CEncrypt@K@@@8 DD FLAT:??_7type_info@@6B@	; CEncrypt<unsigned long> `RTTI Type Descriptor'
	DD	00H
	DB	'.?AV?$CEncrypt@K@@', 00H
_DATA	ENDS
;	COMDAT ??_R4?$CEncrypt@K@@6B@
rdata$r	SEGMENT
??_R4?$CEncrypt@K@@6B@ DD 00H				; CEncrypt<unsigned long>::`RTTI Complete Object Locator'
	DD	00H
	DD	00H
	DD	FLAT:??_R0?AV?$CEncrypt@K@@@8
	DD	FLAT:??_R3?$CEncrypt@K@@8
rdata$r	ENDS
;	COMDAT ??_7?$CEncrypt@K@@6B@
CONST	SEGMENT
??_7?$CEncrypt@K@@6B@ DD FLAT:??_R4?$CEncrypt@K@@6B@	; CEncrypt<unsigned long>::`vftable'
	DD	FLAT:??_E?$CEncrypt@K@@UAEPAXI@Z
; Function compile flags: /Ogsp
CONST	ENDS
;	COMDAT ??1?$CEncrypt@K@@UAE@XZ
_TEXT	SEGMENT
??1?$CEncrypt@K@@UAE@XZ PROC				; CEncrypt<unsigned long>::~CEncrypt<unsigned long>, COMDAT
; _this$ = ecx

; 127  : 	{

  00000	c7 01 00 00 00
	00		 mov	 DWORD PTR [ecx], OFFSET ??_7?$CEncrypt@K@@6B@

; 128  : 	}

  00006	83 c1 0c	 add	 ecx, 12			; 0000000cH
  00009	e9 00 00 00 00	 jmp	 ??1ccddaabb@@UAE@XZ	; ccddaabb::~ccddaabb
??1?$CEncrypt@K@@UAE@XZ ENDP				; CEncrypt<unsigned long>::~CEncrypt<unsigned long>
_TEXT	ENDS
PUBLIC	??_7?$CEncrypt@_N@@6B@				; CEncrypt<bool>::`vftable'
PUBLIC	??1?$CEncrypt@_N@@UAE@XZ			; CEncrypt<bool>::~CEncrypt<bool>
PUBLIC	??_R4?$CEncrypt@_N@@6B@				; CEncrypt<bool>::`RTTI Complete Object Locator'
PUBLIC	??_R0?AV?$CEncrypt@_N@@@8			; CEncrypt<bool> `RTTI Type Descriptor'
PUBLIC	??_R3?$CEncrypt@_N@@8				; CEncrypt<bool>::`RTTI Class Hierarchy Descriptor'
PUBLIC	??_R2?$CEncrypt@_N@@8				; CEncrypt<bool>::`RTTI Base Class Array'
PUBLIC	??_R1A@?0A@EA@?$CEncrypt@_N@@8			; CEncrypt<bool>::`RTTI Base Class Descriptor at (0,-1,0,64)'
EXTRN	??_E?$CEncrypt@_N@@UAEPAXI@Z:PROC		; CEncrypt<bool>::`vector deleting destructor'
;	COMDAT ??_R1A@?0A@EA@?$CEncrypt@_N@@8
rdata$r	SEGMENT
??_R1A@?0A@EA@?$CEncrypt@_N@@8 DD FLAT:??_R0?AV?$CEncrypt@_N@@@8 ; CEncrypt<bool>::`RTTI Base Class Descriptor at (0,-1,0,64)'
	DD	00H
	DD	00H
	DD	0ffffffffH
	DD	00H
	DD	040H
	DD	FLAT:??_R3?$CEncrypt@_N@@8
rdata$r	ENDS
;	COMDAT ??_R2?$CEncrypt@_N@@8
rdata$r	SEGMENT
??_R2?$CEncrypt@_N@@8 DD FLAT:??_R1A@?0A@EA@?$CEncrypt@_N@@8 ; CEncrypt<bool>::`RTTI Base Class Array'
rdata$r	ENDS
;	COMDAT ??_R3?$CEncrypt@_N@@8
rdata$r	SEGMENT
??_R3?$CEncrypt@_N@@8 DD 00H				; CEncrypt<bool>::`RTTI Class Hierarchy Descriptor'
	DD	00H
	DD	01H
	DD	FLAT:??_R2?$CEncrypt@_N@@8
rdata$r	ENDS
;	COMDAT ??_R0?AV?$CEncrypt@_N@@@8
_DATA	SEGMENT
??_R0?AV?$CEncrypt@_N@@@8 DD FLAT:??_7type_info@@6B@	; CEncrypt<bool> `RTTI Type Descriptor'
	DD	00H
	DB	'.?AV?$CEncrypt@_N@@', 00H
_DATA	ENDS
;	COMDAT ??_R4?$CEncrypt@_N@@6B@
rdata$r	SEGMENT
??_R4?$CEncrypt@_N@@6B@ DD 00H				; CEncrypt<bool>::`RTTI Complete Object Locator'
	DD	00H
	DD	00H
	DD	FLAT:??_R0?AV?$CEncrypt@_N@@@8
	DD	FLAT:??_R3?$CEncrypt@_N@@8
rdata$r	ENDS
;	COMDAT ??_7?$CEncrypt@_N@@6B@
CONST	SEGMENT
??_7?$CEncrypt@_N@@6B@ DD FLAT:??_R4?$CEncrypt@_N@@6B@	; CEncrypt<bool>::`vftable'
	DD	FLAT:??_E?$CEncrypt@_N@@UAEPAXI@Z
; Function compile flags: /Ogsp
CONST	ENDS
;	COMDAT ??1?$CEncrypt@_N@@UAE@XZ
_TEXT	SEGMENT
??1?$CEncrypt@_N@@UAE@XZ PROC				; CEncrypt<bool>::~CEncrypt<bool>, COMDAT
; _this$ = ecx

; 127  : 	{

  00000	c7 01 00 00 00
	00		 mov	 DWORD PTR [ecx], OFFSET ??_7?$CEncrypt@_N@@6B@

; 128  : 	}

  00006	83 c1 0c	 add	 ecx, 12			; 0000000cH
  00009	e9 00 00 00 00	 jmp	 ??1ccddaabb@@UAE@XZ	; ccddaabb::~ccddaabb
??1?$CEncrypt@_N@@UAE@XZ ENDP				; CEncrypt<bool>::~CEncrypt<bool>
_TEXT	ENDS
EXTRN	??3@YAXPAX@Z:PROC				; operator delete
; Function compile flags: /Ogsp
;	COMDAT ??_G?$CEncrypt@M@@UAEPAXI@Z
_TEXT	SEGMENT
___flags$ = 8						; size = 4
??_G?$CEncrypt@M@@UAEPAXI@Z PROC			; CEncrypt<float>::`scalar deleting destructor', COMDAT
; _this$ = ecx
  00000	55		 push	 ebp
  00001	8b ec		 mov	 ebp, esp
  00003	56		 push	 esi
  00004	8b f1		 mov	 esi, ecx
  00006	8d 4e 0c	 lea	 ecx, DWORD PTR [esi+12]
  00009	c7 06 00 00 00
	00		 mov	 DWORD PTR [esi], OFFSET ??_7?$CEncrypt@M@@6B@
  0000f	e8 00 00 00 00	 call	 ??1ccddaabb@@UAE@XZ	; ccddaabb::~ccddaabb
  00014	f6 45 08 01	 test	 BYTE PTR ___flags$[ebp], 1
  00018	74 07		 je	 SHORT $LN1@scalar
  0001a	56		 push	 esi
  0001b	e8 00 00 00 00	 call	 ??3@YAXPAX@Z		; operator delete
  00020	59		 pop	 ecx
$LN1@scalar:
  00021	8b c6		 mov	 eax, esi
  00023	5e		 pop	 esi
  00024	5d		 pop	 ebp
  00025	c2 04 00	 ret	 4
??_G?$CEncrypt@M@@UAEPAXI@Z ENDP			; CEncrypt<float>::`scalar deleting destructor'
; Function compile flags: /Ogsp
_TEXT	ENDS
;	COMDAT ??_G?$CEncrypt@K@@UAEPAXI@Z
_TEXT	SEGMENT
___flags$ = 8						; size = 4
??_G?$CEncrypt@K@@UAEPAXI@Z PROC			; CEncrypt<unsigned long>::`scalar deleting destructor', COMDAT
; _this$ = ecx
  00000	55		 push	 ebp
  00001	8b ec		 mov	 ebp, esp
  00003	56		 push	 esi
  00004	8b f1		 mov	 esi, ecx
  00006	8d 4e 0c	 lea	 ecx, DWORD PTR [esi+12]
  00009	c7 06 00 00 00
	00		 mov	 DWORD PTR [esi], OFFSET ??_7?$CEncrypt@K@@6B@
  0000f	e8 00 00 00 00	 call	 ??1ccddaabb@@UAE@XZ	; ccddaabb::~ccddaabb
  00014	f6 45 08 01	 test	 BYTE PTR ___flags$[ebp], 1
  00018	74 07		 je	 SHORT $LN1@scalar@2
  0001a	56		 push	 esi
  0001b	e8 00 00 00 00	 call	 ??3@YAXPAX@Z		; operator delete
  00020	59		 pop	 ecx
$LN1@scalar@2:
  00021	8b c6		 mov	 eax, esi
  00023	5e		 pop	 esi
  00024	5d		 pop	 ebp
  00025	c2 04 00	 ret	 4
??_G?$CEncrypt@K@@UAEPAXI@Z ENDP			; CEncrypt<unsigned long>::`scalar deleting destructor'
; Function compile flags: /Ogsp
_TEXT	ENDS
;	COMDAT ??_G?$CEncrypt@_N@@UAEPAXI@Z
_TEXT	SEGMENT
___flags$ = 8						; size = 4
??_G?$CEncrypt@_N@@UAEPAXI@Z PROC			; CEncrypt<bool>::`scalar deleting destructor', COMDAT
; _this$ = ecx
  00000	55		 push	 ebp
  00001	8b ec		 mov	 ebp, esp
  00003	56		 push	 esi
  00004	8b f1		 mov	 esi, ecx
  00006	8d 4e 0c	 lea	 ecx, DWORD PTR [esi+12]
  00009	c7 06 00 00 00
	00		 mov	 DWORD PTR [esi], OFFSET ??_7?$CEncrypt@_N@@6B@
  0000f	e8 00 00 00 00	 call	 ??1ccddaabb@@UAE@XZ	; ccddaabb::~ccddaabb
  00014	f6 45 08 01	 test	 BYTE PTR ___flags$[ebp], 1
  00018	74 07		 je	 SHORT $LN1@scalar@3
  0001a	56		 push	 esi
  0001b	e8 00 00 00 00	 call	 ??3@YAXPAX@Z		; operator delete
  00020	59		 pop	 ecx
$LN1@scalar@3:
  00021	8b c6		 mov	 eax, esi
  00023	5e		 pop	 esi
  00024	5d		 pop	 ebp
  00025	c2 04 00	 ret	 4
??_G?$CEncrypt@_N@@UAEPAXI@Z ENDP			; CEncrypt<bool>::`scalar deleting destructor'
_TEXT	ENDS
PUBLIC	?EncryptValueToPool@?$CEncrypt@M@@AAEXPBD@Z	; CEncrypt<float>::EncryptValueToPool
EXTRN	?EncryptByte@ccddaabb@@QAEXPBDPADH@Z:PROC	; ccddaabb::EncryptByte
; Function compile flags: /Ogsp
;	COMDAT ?EncryptValueToPool@?$CEncrypt@M@@AAEXPBD@Z
_TEXT	SEGMENT
_value$ = 8						; size = 4
?EncryptValueToPool@?$CEncrypt@M@@AAEXPBD@Z PROC	; CEncrypt<float>::EncryptValueToPool, COMDAT
; _this$ = ecx

; 67   : 	{

  00000	55		 push	 ebp
  00001	8b ec		 mov	 ebp, esp

; 68   : 		m_RC5.EncryptByte( value, m_MemPool, max(m_ValueSize, DEFAULT_ENCRYPT) );

  00003	0f b7 41 06	 movzx	 eax, WORD PTR [ecx+6]
  00007	83 f8 04	 cmp	 eax, 4
  0000a	77 03		 ja	 SHORT $LN4@EncryptVal
  0000c	6a 04		 push	 4
  0000e	58		 pop	 eax
$LN4@EncryptVal:
  0000f	50		 push	 eax
  00010	8d 41 1c	 lea	 eax, DWORD PTR [ecx+28]
  00013	50		 push	 eax
  00014	ff 75 08	 push	 DWORD PTR _value$[ebp]
  00017	83 c1 0c	 add	 ecx, 12			; 0000000cH
  0001a	e8 00 00 00 00	 call	 ?EncryptByte@ccddaabb@@QAEXPBDPADH@Z ; ccddaabb::EncryptByte

; 69   : 		
; 70   : 	}

  0001f	5d		 pop	 ebp
  00020	c2 04 00	 ret	 4
?EncryptValueToPool@?$CEncrypt@M@@AAEXPBD@Z ENDP	; CEncrypt<float>::EncryptValueToPool
_TEXT	ENDS
PUBLIC	?Init@?$CEncrypt@M@@AAEXXZ			; CEncrypt<float>::Init
EXTRN	?Setup@ccddaabb@@QAEXPBDHH@Z:PROC		; ccddaabb::Setup
EXTRN	__imp__rand:PROC
EXTRN	__imp__timeGetTime@0:PROC
EXTRN	__imp__GetCurrentProcessId@0:PROC
; Function compile flags: /Ogsp
;	COMDAT ?Init@?$CEncrypt@M@@AAEXXZ
_TEXT	SEGMENT
_pid$ = -8						; size = 4
_tick$ = -4						; size = 4
?Init@?$CEncrypt@M@@AAEXXZ PROC				; CEncrypt<float>::Init, COMDAT
; _this$ = ecx

; 73   : 	{

  00000	55		 push	 ebp
  00001	8b ec		 mov	 ebp, esp
  00003	51		 push	 ecx
  00004	51		 push	 ecx
  00005	53		 push	 ebx
  00006	56		 push	 esi
  00007	57		 push	 edi
  00008	8b f1		 mov	 esi, ecx

; 74   : 		DWORD pid = GetCurrentProcessId();

  0000a	ff 15 00 00 00
	00		 call	 DWORD PTR __imp__GetCurrentProcessId@0
  00010	89 45 f8	 mov	 DWORD PTR _pid$[ebp], eax

; 75   : 		DWORD tick = timeGetTime();

  00013	ff 15 00 00 00
	00		 call	 DWORD PTR __imp__timeGetTime@0

; 76   : 		m_ValueSize    = sizeof(type);
; 77   : 		m_MemPoolPos   = (unsigned short)( rand()+pid+tick )%(MAX_MEM_POOL-m_ValueSize);

  00019	8b 3d 00 00 00
	00		 mov	 edi, DWORD PTR __imp__rand
  0001f	89 45 fc	 mov	 DWORD PTR _tick$[ebp], eax
  00022	6a 04		 push	 4
  00024	58		 pop	 eax
  00025	66 89 46 06	 mov	 WORD PTR [esi+6], ax
  00029	ff d7		 call	 edi
  0002b	03 45 f8	 add	 eax, DWORD PTR _pid$[ebp]
  0002e	0f b7 4e 06	 movzx	 ecx, WORD PTR [esi+6]
  00032	03 45 fc	 add	 eax, DWORD PTR _tick$[ebp]
  00035	6a 0c		 push	 12			; 0000000cH
  00037	0f b7 c0	 movzx	 eax, ax
  0003a	5b		 pop	 ebx
  0003b	99		 cdq
  0003c	2b d9		 sub	 ebx, ecx
  0003e	f7 fb		 idiv	 ebx
  00040	66 89 56 04	 mov	 WORD PTR [esi+4], dx

; 78   : 		m_EncryptSeed  = (char)( rand()+pid+tick )%256;

  00044	ff d7		 call	 edi
  00046	02 45 f8	 add	 al, BYTE PTR _pid$[ebp]
  00049	02 45 fc	 add	 al, BYTE PTR _tick$[ebp]
  0004c	0f be c0	 movsx	 eax, al
  0004f	25 ff 00 00 80	 and	 eax, -2147483393	; 800000ffH
  00054	79 07		 jns	 SHORT $LN8@Init
  00056	48		 dec	 eax
  00057	0d 00 ff ff ff	 or	 eax, -256		; ffffff00H
  0005c	40		 inc	 eax
$LN8@Init:
  0005d	88 46 08	 mov	 BYTE PTR [esi+8], al

; 79   : 
; 80   : 		for (int i = 0; i < MAX_MEM_POOL ; i++)

  00060	33 db		 xor	 ebx, ebx
$LL3@Init:

; 81   : 			m_MemPool[i] = (char)( rand()+pid+tick )%256; // 더미

  00062	ff d7		 call	 edi
  00064	02 45 f8	 add	 al, BYTE PTR _pid$[ebp]
  00067	02 45 fc	 add	 al, BYTE PTR _tick$[ebp]
  0006a	0f be c0	 movsx	 eax, al
  0006d	25 ff 00 00 80	 and	 eax, -2147483393	; 800000ffH
  00072	79 07		 jns	 SHORT $LN9@Init
  00074	48		 dec	 eax
  00075	0d 00 ff ff ff	 or	 eax, -256		; ffffff00H
  0007a	40		 inc	 eax
$LN9@Init:
  0007b	88 44 1e 1c	 mov	 BYTE PTR [esi+ebx+28], al
  0007f	43		 inc	 ebx
  00080	83 fb 0c	 cmp	 ebx, 12			; 0000000cH
  00083	7c dd		 jl	 SHORT $LL3@Init

; 82   : 
; 83   : 		//UJ 130913, 최적화: szKey 사용안하도록 간략화
; 84   : 		//char szKey[ccddaabb::KEY_SIZE];//="";
; 85   : 		//for (int i = 0; i < ccddaabb::KEY_SIZE  ; i++)
; 86   : 		//	szKey[i] = (char)( rand()+pid+tick )%256; // 더미
; 87   : 		m_RC5.Setup( NULL, pid, tick );

  00085	ff 75 fc	 push	 DWORD PTR _tick$[ebp]
  00088	8d 4e 0c	 lea	 ecx, DWORD PTR [esi+12]
  0008b	ff 75 f8	 push	 DWORD PTR _pid$[ebp]
  0008e	6a 00		 push	 0
  00090	e8 00 00 00 00	 call	 ?Setup@ccddaabb@@QAEXPBDHH@Z ; ccddaabb::Setup
  00095	5f		 pop	 edi
  00096	5e		 pop	 esi
  00097	5b		 pop	 ebx

; 88   : 
; 89   : #ifdef _NOTUSE
; 90   : 		m_value        = 0;
; 91   : 		EncryptValueToPool((char*)&m_value);
; 92   : 		Debug();
; 93   : #endif
; 94   : 	}

  00098	c9		 leave
  00099	c3		 ret	 0
?Init@?$CEncrypt@M@@AAEXXZ ENDP				; CEncrypt<float>::Init
_TEXT	ENDS
PUBLIC	?DecryptValueToPool@?$CEncrypt@M@@QAEXPAM@Z	; CEncrypt<float>::DecryptValueToPool
EXTRN	?DecryptByte@ccddaabb@@QBEXPBDPADH@Z:PROC	; ccddaabb::DecryptByte
; Function compile flags: /Ogsp
;	COMDAT ?DecryptValueToPool@?$CEncrypt@M@@QAEXPAM@Z
_TEXT	SEGMENT
_value$ = 8						; size = 4
?DecryptValueToPool@?$CEncrypt@M@@QAEXPAM@Z PROC	; CEncrypt<float>::DecryptValueToPool, COMDAT
; _this$ = ecx

; 1648 : 	{

  00000	55		 push	 ebp
  00001	8b ec		 mov	 ebp, esp
  00003	56		 push	 esi

; 1649 : 		m_RC5.DecryptByte( m_MemPool, m_TempMem, 4 );

  00004	8d 71 28	 lea	 esi, DWORD PTR [ecx+40]
  00007	6a 04		 push	 4
  00009	8d 41 1c	 lea	 eax, DWORD PTR [ecx+28]
  0000c	56		 push	 esi
  0000d	50		 push	 eax
  0000e	83 c1 0c	 add	 ecx, 12			; 0000000cH
  00011	e8 00 00 00 00	 call	 ?DecryptByte@ccddaabb@@QBEXPBDPADH@Z ; ccddaabb::DecryptByte

; 1650 : 		*value = *((float*)m_TempMem);

  00016	d9 06		 fld	 DWORD PTR [esi]
  00018	8b 45 08	 mov	 eax, DWORD PTR _value$[ebp]
  0001b	d9 18		 fstp	 DWORD PTR [eax]
  0001d	5e		 pop	 esi

; 1651 : 	}

  0001e	5d		 pop	 ebp
  0001f	c2 04 00	 ret	 4
?DecryptValueToPool@?$CEncrypt@M@@QAEXPAM@Z ENDP	; CEncrypt<float>::DecryptValueToPool
_TEXT	ENDS
PUBLIC	?EncryptValueToPool@?$CEncrypt@K@@AAEXPBD@Z	; CEncrypt<unsigned long>::EncryptValueToPool
; Function compile flags: /Ogsp
;	COMDAT ?EncryptValueToPool@?$CEncrypt@K@@AAEXPBD@Z
_TEXT	SEGMENT
_value$ = 8						; size = 4
?EncryptValueToPool@?$CEncrypt@K@@AAEXPBD@Z PROC	; CEncrypt<unsigned long>::EncryptValueToPool, COMDAT
; _this$ = ecx

; 67   : 	{

  00000	55		 push	 ebp
  00001	8b ec		 mov	 ebp, esp

; 68   : 		m_RC5.EncryptByte( value, m_MemPool, max(m_ValueSize, DEFAULT_ENCRYPT) );

  00003	0f b7 41 06	 movzx	 eax, WORD PTR [ecx+6]
  00007	83 f8 04	 cmp	 eax, 4
  0000a	77 03		 ja	 SHORT $LN4@EncryptVal@2
  0000c	6a 04		 push	 4
  0000e	58		 pop	 eax
$LN4@EncryptVal@2:
  0000f	50		 push	 eax
  00010	8d 41 1c	 lea	 eax, DWORD PTR [ecx+28]
  00013	50		 push	 eax
  00014	ff 75 08	 push	 DWORD PTR _value$[ebp]
  00017	83 c1 0c	 add	 ecx, 12			; 0000000cH
  0001a	e8 00 00 00 00	 call	 ?EncryptByte@ccddaabb@@QAEXPBDPADH@Z ; ccddaabb::EncryptByte

; 69   : 		
; 70   : 	}

  0001f	5d		 pop	 ebp
  00020	c2 04 00	 ret	 4
?EncryptValueToPool@?$CEncrypt@K@@AAEXPBD@Z ENDP	; CEncrypt<unsigned long>::EncryptValueToPool
_TEXT	ENDS
PUBLIC	?Init@?$CEncrypt@K@@AAEXXZ			; CEncrypt<unsigned long>::Init
; Function compile flags: /Ogsp
;	COMDAT ?Init@?$CEncrypt@K@@AAEXXZ
_TEXT	SEGMENT
_pid$ = -8						; size = 4
_tick$ = -4						; size = 4
?Init@?$CEncrypt@K@@AAEXXZ PROC				; CEncrypt<unsigned long>::Init, COMDAT
; _this$ = ecx

; 73   : 	{

  00000	55		 push	 ebp
  00001	8b ec		 mov	 ebp, esp
  00003	51		 push	 ecx
  00004	51		 push	 ecx
  00005	53		 push	 ebx
  00006	56		 push	 esi
  00007	57		 push	 edi
  00008	8b f1		 mov	 esi, ecx

; 74   : 		DWORD pid = GetCurrentProcessId();

  0000a	ff 15 00 00 00
	00		 call	 DWORD PTR __imp__GetCurrentProcessId@0
  00010	89 45 f8	 mov	 DWORD PTR _pid$[ebp], eax

; 75   : 		DWORD tick = timeGetTime();

  00013	ff 15 00 00 00
	00		 call	 DWORD PTR __imp__timeGetTime@0

; 76   : 		m_ValueSize    = sizeof(type);
; 77   : 		m_MemPoolPos   = (unsigned short)( rand()+pid+tick )%(MAX_MEM_POOL-m_ValueSize);

  00019	8b 3d 00 00 00
	00		 mov	 edi, DWORD PTR __imp__rand
  0001f	89 45 fc	 mov	 DWORD PTR _tick$[ebp], eax
  00022	6a 04		 push	 4
  00024	58		 pop	 eax
  00025	66 89 46 06	 mov	 WORD PTR [esi+6], ax
  00029	ff d7		 call	 edi
  0002b	03 45 f8	 add	 eax, DWORD PTR _pid$[ebp]
  0002e	0f b7 4e 06	 movzx	 ecx, WORD PTR [esi+6]
  00032	03 45 fc	 add	 eax, DWORD PTR _tick$[ebp]
  00035	6a 0c		 push	 12			; 0000000cH
  00037	0f b7 c0	 movzx	 eax, ax
  0003a	5b		 pop	 ebx
  0003b	99		 cdq
  0003c	2b d9		 sub	 ebx, ecx
  0003e	f7 fb		 idiv	 ebx
  00040	66 89 56 04	 mov	 WORD PTR [esi+4], dx

; 78   : 		m_EncryptSeed  = (char)( rand()+pid+tick )%256;

  00044	ff d7		 call	 edi
  00046	02 45 f8	 add	 al, BYTE PTR _pid$[ebp]
  00049	02 45 fc	 add	 al, BYTE PTR _tick$[ebp]
  0004c	0f be c0	 movsx	 eax, al
  0004f	25 ff 00 00 80	 and	 eax, -2147483393	; 800000ffH
  00054	79 07		 jns	 SHORT $LN8@Init@2
  00056	48		 dec	 eax
  00057	0d 00 ff ff ff	 or	 eax, -256		; ffffff00H
  0005c	40		 inc	 eax
$LN8@Init@2:
  0005d	88 46 08	 mov	 BYTE PTR [esi+8], al

; 79   : 
; 80   : 		for (int i = 0; i < MAX_MEM_POOL ; i++)

  00060	33 db		 xor	 ebx, ebx
$LL3@Init@2:

; 81   : 			m_MemPool[i] = (char)( rand()+pid+tick )%256; // 더미

  00062	ff d7		 call	 edi
  00064	02 45 f8	 add	 al, BYTE PTR _pid$[ebp]
  00067	02 45 fc	 add	 al, BYTE PTR _tick$[ebp]
  0006a	0f be c0	 movsx	 eax, al
  0006d	25 ff 00 00 80	 and	 eax, -2147483393	; 800000ffH
  00072	79 07		 jns	 SHORT $LN9@Init@2
  00074	48		 dec	 eax
  00075	0d 00 ff ff ff	 or	 eax, -256		; ffffff00H
  0007a	40		 inc	 eax
$LN9@Init@2:
  0007b	88 44 1e 1c	 mov	 BYTE PTR [esi+ebx+28], al
  0007f	43		 inc	 ebx
  00080	83 fb 0c	 cmp	 ebx, 12			; 0000000cH
  00083	7c dd		 jl	 SHORT $LL3@Init@2

; 82   : 
; 83   : 		//UJ 130913, 최적화: szKey 사용안하도록 간략화
; 84   : 		//char szKey[ccddaabb::KEY_SIZE];//="";
; 85   : 		//for (int i = 0; i < ccddaabb::KEY_SIZE  ; i++)
; 86   : 		//	szKey[i] = (char)( rand()+pid+tick )%256; // 더미
; 87   : 		m_RC5.Setup( NULL, pid, tick );

  00085	ff 75 fc	 push	 DWORD PTR _tick$[ebp]
  00088	8d 4e 0c	 lea	 ecx, DWORD PTR [esi+12]
  0008b	ff 75 f8	 push	 DWORD PTR _pid$[ebp]
  0008e	6a 00		 push	 0
  00090	e8 00 00 00 00	 call	 ?Setup@ccddaabb@@QAEXPBDHH@Z ; ccddaabb::Setup
  00095	5f		 pop	 edi
  00096	5e		 pop	 esi
  00097	5b		 pop	 ebx

; 88   : 
; 89   : #ifdef _NOTUSE
; 90   : 		m_value        = 0;
; 91   : 		EncryptValueToPool((char*)&m_value);
; 92   : 		Debug();
; 93   : #endif
; 94   : 	}

  00098	c9		 leave
  00099	c3		 ret	 0
?Init@?$CEncrypt@K@@AAEXXZ ENDP				; CEncrypt<unsigned long>::Init
_TEXT	ENDS
PUBLIC	?DecryptValueToPool@?$CEncrypt@K@@QAEXPAK@Z	; CEncrypt<unsigned long>::DecryptValueToPool
; Function compile flags: /Ogsp
;	COMDAT ?DecryptValueToPool@?$CEncrypt@K@@QAEXPAK@Z
_TEXT	SEGMENT
_value$ = 8						; size = 4
?DecryptValueToPool@?$CEncrypt@K@@QAEXPAK@Z PROC	; CEncrypt<unsigned long>::DecryptValueToPool, COMDAT
; _this$ = ecx

; 1256 : 	{

  00000	55		 push	 ebp
  00001	8b ec		 mov	 ebp, esp
  00003	56		 push	 esi

; 1257 : 		m_RC5.DecryptByte( m_MemPool, m_TempMem, 4 );

  00004	8d 71 28	 lea	 esi, DWORD PTR [ecx+40]
  00007	6a 04		 push	 4
  00009	8d 41 1c	 lea	 eax, DWORD PTR [ecx+28]
  0000c	56		 push	 esi
  0000d	50		 push	 eax
  0000e	83 c1 0c	 add	 ecx, 12			; 0000000cH
  00011	e8 00 00 00 00	 call	 ?DecryptByte@ccddaabb@@QBEXPBDPADH@Z ; ccddaabb::DecryptByte

; 1258 : 		*value = *((DWORD*)m_TempMem);

  00016	8b 06		 mov	 eax, DWORD PTR [esi]
  00018	8b 4d 08	 mov	 ecx, DWORD PTR _value$[ebp]
  0001b	89 01		 mov	 DWORD PTR [ecx], eax
  0001d	5e		 pop	 esi

; 1259 : 	}

  0001e	5d		 pop	 ebp
  0001f	c2 04 00	 ret	 4
?DecryptValueToPool@?$CEncrypt@K@@QAEXPAK@Z ENDP	; CEncrypt<unsigned long>::DecryptValueToPool
_TEXT	ENDS
PUBLIC	?EncryptValueToPool@?$CEncrypt@_N@@AAEXPBD@Z	; CEncrypt<bool>::EncryptValueToPool
; Function compile flags: /Ogsp
;	COMDAT ?EncryptValueToPool@?$CEncrypt@_N@@AAEXPBD@Z
_TEXT	SEGMENT
_value$ = 8						; size = 4
?EncryptValueToPool@?$CEncrypt@_N@@AAEXPBD@Z PROC	; CEncrypt<bool>::EncryptValueToPool, COMDAT
; _this$ = ecx

; 67   : 	{

  00000	55		 push	 ebp
  00001	8b ec		 mov	 ebp, esp

; 68   : 		m_RC5.EncryptByte( value, m_MemPool, max(m_ValueSize, DEFAULT_ENCRYPT) );

  00003	0f b7 41 06	 movzx	 eax, WORD PTR [ecx+6]
  00007	83 f8 04	 cmp	 eax, 4
  0000a	77 03		 ja	 SHORT $LN4@EncryptVal@3
  0000c	6a 04		 push	 4
  0000e	58		 pop	 eax
$LN4@EncryptVal@3:
  0000f	50		 push	 eax
  00010	8d 41 1c	 lea	 eax, DWORD PTR [ecx+28]
  00013	50		 push	 eax
  00014	ff 75 08	 push	 DWORD PTR _value$[ebp]
  00017	83 c1 0c	 add	 ecx, 12			; 0000000cH
  0001a	e8 00 00 00 00	 call	 ?EncryptByte@ccddaabb@@QAEXPBDPADH@Z ; ccddaabb::EncryptByte

; 69   : 		
; 70   : 	}

  0001f	5d		 pop	 ebp
  00020	c2 04 00	 ret	 4
?EncryptValueToPool@?$CEncrypt@_N@@AAEXPBD@Z ENDP	; CEncrypt<bool>::EncryptValueToPool
_TEXT	ENDS
PUBLIC	?Init@?$CEncrypt@_N@@AAEXXZ			; CEncrypt<bool>::Init
; Function compile flags: /Ogsp
;	COMDAT ?Init@?$CEncrypt@_N@@AAEXXZ
_TEXT	SEGMENT
_pid$ = -8						; size = 4
_tick$ = -4						; size = 4
?Init@?$CEncrypt@_N@@AAEXXZ PROC			; CEncrypt<bool>::Init, COMDAT
; _this$ = ecx

; 73   : 	{

  00000	55		 push	 ebp
  00001	8b ec		 mov	 ebp, esp
  00003	51		 push	 ecx
  00004	51		 push	 ecx
  00005	53		 push	 ebx
  00006	56		 push	 esi
  00007	57		 push	 edi
  00008	8b f1		 mov	 esi, ecx

; 74   : 		DWORD pid = GetCurrentProcessId();

  0000a	ff 15 00 00 00
	00		 call	 DWORD PTR __imp__GetCurrentProcessId@0
  00010	89 45 f8	 mov	 DWORD PTR _pid$[ebp], eax

; 75   : 		DWORD tick = timeGetTime();

  00013	ff 15 00 00 00
	00		 call	 DWORD PTR __imp__timeGetTime@0

; 76   : 		m_ValueSize    = sizeof(type);
; 77   : 		m_MemPoolPos   = (unsigned short)( rand()+pid+tick )%(MAX_MEM_POOL-m_ValueSize);

  00019	8b 3d 00 00 00
	00		 mov	 edi, DWORD PTR __imp__rand
  0001f	89 45 fc	 mov	 DWORD PTR _tick$[ebp], eax
  00022	33 c0		 xor	 eax, eax
  00024	40		 inc	 eax
  00025	66 89 46 06	 mov	 WORD PTR [esi+6], ax
  00029	ff d7		 call	 edi
  0002b	03 45 f8	 add	 eax, DWORD PTR _pid$[ebp]
  0002e	0f b7 4e 06	 movzx	 ecx, WORD PTR [esi+6]
  00032	03 45 fc	 add	 eax, DWORD PTR _tick$[ebp]
  00035	6a 0c		 push	 12			; 0000000cH
  00037	0f b7 c0	 movzx	 eax, ax
  0003a	5b		 pop	 ebx
  0003b	99		 cdq
  0003c	2b d9		 sub	 ebx, ecx
  0003e	f7 fb		 idiv	 ebx
  00040	66 89 56 04	 mov	 WORD PTR [esi+4], dx

; 78   : 		m_EncryptSeed  = (char)( rand()+pid+tick )%256;

  00044	ff d7		 call	 edi
  00046	02 45 f8	 add	 al, BYTE PTR _pid$[ebp]
  00049	02 45 fc	 add	 al, BYTE PTR _tick$[ebp]
  0004c	0f be c0	 movsx	 eax, al
  0004f	25 ff 00 00 80	 and	 eax, -2147483393	; 800000ffH
  00054	79 07		 jns	 SHORT $LN8@Init@3
  00056	48		 dec	 eax
  00057	0d 00 ff ff ff	 or	 eax, -256		; ffffff00H
  0005c	40		 inc	 eax
$LN8@Init@3:
  0005d	88 46 08	 mov	 BYTE PTR [esi+8], al

; 79   : 
; 80   : 		for (int i = 0; i < MAX_MEM_POOL ; i++)

  00060	33 db		 xor	 ebx, ebx
$LL3@Init@3:

; 81   : 			m_MemPool[i] = (char)( rand()+pid+tick )%256; // 더미

  00062	ff d7		 call	 edi
  00064	02 45 f8	 add	 al, BYTE PTR _pid$[ebp]
  00067	02 45 fc	 add	 al, BYTE PTR _tick$[ebp]
  0006a	0f be c0	 movsx	 eax, al
  0006d	25 ff 00 00 80	 and	 eax, -2147483393	; 800000ffH
  00072	79 07		 jns	 SHORT $LN9@Init@3
  00074	48		 dec	 eax
  00075	0d 00 ff ff ff	 or	 eax, -256		; ffffff00H
  0007a	40		 inc	 eax
$LN9@Init@3:
  0007b	88 44 1e 1c	 mov	 BYTE PTR [esi+ebx+28], al
  0007f	43		 inc	 ebx
  00080	83 fb 0c	 cmp	 ebx, 12			; 0000000cH
  00083	7c dd		 jl	 SHORT $LL3@Init@3

; 82   : 
; 83   : 		//UJ 130913, 최적화: szKey 사용안하도록 간략화
; 84   : 		//char szKey[ccddaabb::KEY_SIZE];//="";
; 85   : 		//for (int i = 0; i < ccddaabb::KEY_SIZE  ; i++)
; 86   : 		//	szKey[i] = (char)( rand()+pid+tick )%256; // 더미
; 87   : 		m_RC5.Setup( NULL, pid, tick );

  00085	ff 75 fc	 push	 DWORD PTR _tick$[ebp]
  00088	8d 4e 0c	 lea	 ecx, DWORD PTR [esi+12]
  0008b	ff 75 f8	 push	 DWORD PTR _pid$[ebp]
  0008e	6a 00		 push	 0
  00090	e8 00 00 00 00	 call	 ?Setup@ccddaabb@@QAEXPBDHH@Z ; ccddaabb::Setup
  00095	5f		 pop	 edi
  00096	5e		 pop	 esi
  00097	5b		 pop	 ebx

; 88   : 
; 89   : #ifdef _NOTUSE
; 90   : 		m_value        = 0;
; 91   : 		EncryptValueToPool((char*)&m_value);
; 92   : 		Debug();
; 93   : #endif
; 94   : 	}

  00098	c9		 leave
  00099	c3		 ret	 0
?Init@?$CEncrypt@_N@@AAEXXZ ENDP			; CEncrypt<bool>::Init
_TEXT	ENDS
PUBLIC	?DecryptValueToPool@?$CEncrypt@_N@@QAEXPA_N@Z	; CEncrypt<bool>::DecryptValueToPool
; Function compile flags: /Ogsp
;	COMDAT ?DecryptValueToPool@?$CEncrypt@_N@@QAEXPA_N@Z
_TEXT	SEGMENT
_value$ = 8						; size = 4
?DecryptValueToPool@?$CEncrypt@_N@@QAEXPA_N@Z PROC	; CEncrypt<bool>::DecryptValueToPool, COMDAT
; _this$ = ecx

; 219  : 	{

  00000	55		 push	 ebp
  00001	8b ec		 mov	 ebp, esp
  00003	56		 push	 esi

; 220  : 		m_RC5.DecryptByte( m_MemPool, m_TempMem, 4 );

  00004	8d 71 28	 lea	 esi, DWORD PTR [ecx+40]
  00007	6a 04		 push	 4
  00009	8d 41 1c	 lea	 eax, DWORD PTR [ecx+28]
  0000c	56		 push	 esi
  0000d	50		 push	 eax
  0000e	83 c1 0c	 add	 ecx, 12			; 0000000cH
  00011	e8 00 00 00 00	 call	 ?DecryptByte@ccddaabb@@QBEXPBDPADH@Z ; ccddaabb::DecryptByte

; 221  : 		*value = *((bool*)m_TempMem);

  00016	8a 06		 mov	 al, BYTE PTR [esi]
  00018	8b 4d 08	 mov	 ecx, DWORD PTR _value$[ebp]
  0001b	88 01		 mov	 BYTE PTR [ecx], al
  0001d	5e		 pop	 esi

; 222  : 	}

  0001e	5d		 pop	 ebp
  0001f	c2 04 00	 ret	 4
?DecryptValueToPool@?$CEncrypt@_N@@QAEXPA_N@Z ENDP	; CEncrypt<bool>::DecryptValueToPool
_TEXT	ENDS
PUBLIC	?DecryptValueToPool@?$CEncrypt@W4TeamType@@@@QAEXPAW4TeamType@@@Z ; CEncrypt<enum TeamType>::DecryptValueToPool
; Function compile flags: /Ogsp
;	COMDAT ?DecryptValueToPool@?$CEncrypt@W4TeamType@@@@QAEXPAW4TeamType@@@Z
_TEXT	SEGMENT
_value$ = 8						; size = 4
?DecryptValueToPool@?$CEncrypt@W4TeamType@@@@QAEXPAW4TeamType@@@Z PROC ; CEncrypt<enum TeamType>::DecryptValueToPool, COMDAT
; _this$ = ecx

; 2959 : 	{

  00000	55		 push	 ebp
  00001	8b ec		 mov	 ebp, esp
  00003	56		 push	 esi

; 2960 : 		m_RC5.DecryptByte( m_MemPool, m_TempMem, sizeof(TeamType) );

  00004	8d 71 28	 lea	 esi, DWORD PTR [ecx+40]
  00007	6a 04		 push	 4
  00009	8d 41 1c	 lea	 eax, DWORD PTR [ecx+28]
  0000c	56		 push	 esi
  0000d	50		 push	 eax
  0000e	83 c1 0c	 add	 ecx, 12			; 0000000cH
  00011	e8 00 00 00 00	 call	 ?DecryptByte@ccddaabb@@QBEXPBDPADH@Z ; ccddaabb::DecryptByte

; 2961 : 		*value = *((TeamType*)m_TempMem);

  00016	8b 06		 mov	 eax, DWORD PTR [esi]
  00018	8b 4d 08	 mov	 ecx, DWORD PTR _value$[ebp]
  0001b	89 01		 mov	 DWORD PTR [ecx], eax
  0001d	5e		 pop	 esi

; 2962 : 	}

  0001e	5d		 pop	 ebp
  0001f	c2 04 00	 ret	 4
?DecryptValueToPool@?$CEncrypt@W4TeamType@@@@QAEXPAW4TeamType@@@Z ENDP ; CEncrypt<enum TeamType>::DecryptValueToPool
_TEXT	ENDS
PUBLIC	?IsCanUseSkill@ioAreaWeaponControl2Skill@@UAE_NPAVioBaseChar@@_N@Z ; ioAreaWeaponControl2Skill::IsCanUseSkill
EXTRN	?CheckNeedGauge@ioSkill@@IAE_NPAVioBaseChar@@_N@Z:PROC ; ioSkill::CheckNeedGauge
; Function compile flags: /Ogsp
; File d:\lost saga for developer\youtube\tutorial\source\src\lsclient\ioareaweaponcontrol2skill.cpp
;	COMDAT ?IsCanUseSkill@ioAreaWeaponControl2Skill@@UAE_NPAVioBaseChar@@_N@Z
_TEXT	SEGMENT
_pChar$ = 8						; size = 4
_bHelpMsg$ = 12						; size = 1
?IsCanUseSkill@ioAreaWeaponControl2Skill@@UAE_NPAVioBaseChar@@_N@Z PROC ; ioAreaWeaponControl2Skill::IsCanUseSkill, COMDAT
; _this$ = ecx

; 158  : {

  00000	55		 push	 ebp
  00001	8b ec		 mov	 ebp, esp
  00003	56		 push	 esi
  00004	8b f1		 mov	 esi, ecx

; 159  : 	ioAttackableItem *pAttackable = ToAttackableItem( GetOwnerItem() );

  00006	ff b6 a4 02 00
	00		 push	 DWORD PTR [esi+676]
  0000c	e8 00 00 00 00	 call	 ?ToAttackableItem@@YAPAVioAttackableItem@@PAVioItem@@@Z ; ToAttackableItem
  00011	59		 pop	 ecx

; 160  : 	if( pAttackable )

  00012	85 c0		 test	 eax, eax
  00014	74 15		 je	 SHORT $LN2@IsCanUseSk

; 161  : 	{
; 162  : 		if( !pAttackable->IsCanFire( pChar ) )

  00016	8b 10		 mov	 edx, DWORD PTR [eax]
  00018	6a 00		 push	 0
  0001a	6a 00		 push	 0
  0001c	ff 75 08	 push	 DWORD PTR _pChar$[ebp]
  0001f	8b c8		 mov	 ecx, eax
  00021	ff 92 b8 00 00
	00		 call	 DWORD PTR [edx+184]
  00027	84 c0		 test	 al, al
  00029	74 12		 je	 SHORT $LN1@IsCanUseSk
$LN2@IsCanUseSk:

; 163  : 			return false;
; 164  : 	}
; 165  : 
; 166  : 	if( !CheckNeedGauge( pChar, bHelpMsg ) )

  0002b	ff 75 0c	 push	 DWORD PTR _bHelpMsg$[ebp]
  0002e	8b ce		 mov	 ecx, esi
  00030	ff 75 08	 push	 DWORD PTR _pChar$[ebp]
  00033	e8 00 00 00 00	 call	 ?CheckNeedGauge@ioSkill@@IAE_NPAVioBaseChar@@_N@Z ; ioSkill::CheckNeedGauge
  00038	84 c0		 test	 al, al
  0003a	0f 95 c0	 setne	 al
$LN1@IsCanUseSk:
  0003d	5e		 pop	 esi

; 167  : 		return false;
; 168  : 
; 169  : 	return true;
; 170  : }

  0003e	5d		 pop	 ebp
  0003f	c2 08 00	 ret	 8
?IsCanUseSkill@ioAreaWeaponControl2Skill@@UAE_NPAVioBaseChar@@_N@Z ENDP ; ioAreaWeaponControl2Skill::IsCanUseSkill
_TEXT	ENDS
PUBLIC	__real@3f800000
PUBLIC	__real@4f800000
PUBLIC	?SetLoopState@ioAreaWeaponControl2Skill@@IAEXPAVioBaseChar@@PAVioPlayStage@@@Z ; ioAreaWeaponControl2Skill::SetLoopState
EXTRN	__imp_?SetLoopAni@ioEntityGroup@@QAE_NABVioHashString@@MMMM@Z:PROC
EXTRN	__imp_?ClearAllActionAni@ioEntityGroup@@QAEXM_N@Z:PROC
EXTRN	__imp_?ClearAllLoopAni@ioEntityGroup@@QAEXM_N@Z:PROC
EXTRN	?ChangeSkillWeaponMesh@ioBaseChar@@QAE_NPAVioSkill@@ABVioHashString@@_N@Z:PROC ; ioBaseChar::ChangeSkillWeaponMesh
EXTRN	?RestoreSkillWeaponMesh@ioBaseChar@@QAE_NPAVioSkill@@ABVioHashString@@_N2@Z:PROC ; ioBaseChar::RestoreSkillWeaponMesh
EXTRN	__imp_?IsEmpty@ioHashString@@QBE_NXZ:PROC
;	COMDAT __real@3f800000
; File d:\lost saga for developer\youtube\tutorial\source\src\lsclient\stdafx.h
CONST	SEGMENT
__real@3f800000 DD 03f800000r			; 1
CONST	ENDS
;	COMDAT __real@4f800000
CONST	SEGMENT
__real@4f800000 DD 04f800000r			; 4.29497e+009
; Function compile flags: /Ogsp
; File d:\lost saga for developer\youtube\tutorial\source\src\lsclient\ioareaweaponcontrol2skill.cpp
CONST	ENDS
;	COMDAT ?SetLoopState@ioAreaWeaponControl2Skill@@IAEXPAVioBaseChar@@PAVioPlayStage@@@Z
_TEXT	SEGMENT
tv262 = 8						; size = 4
tv257 = 8						; size = 4
tv252 = 8						; size = 4
_pChar$ = 8						; size = 4
_pStage$ = 12						; size = 4
?SetLoopState@ioAreaWeaponControl2Skill@@IAEXPAVioBaseChar@@PAVioPlayStage@@@Z PROC ; ioAreaWeaponControl2Skill::SetLoopState, COMDAT
; _this$ = ecx

; 565  : {

  00000	55		 push	 ebp
  00001	8b ec		 mov	 ebp, esp
  00003	56		 push	 esi
  00004	8b f1		 mov	 esi, ecx

; 566  : 	if( m_LoopAnimation.IsEmpty() )

  00006	8d 8e 68 0f 00
	00		 lea	 ecx, DWORD PTR [esi+3944]
  0000c	ff 15 00 00 00
	00		 call	 DWORD PTR __imp_?IsEmpty@ioHashString@@QBE_NXZ
  00012	84 c0		 test	 al, al
  00014	74 0c		 je	 SHORT $LN4@SetLoopSta

; 567  : 	{
; 568  : 		m_dwLoopStartTime = 0;

  00016	83 a6 78 0f 00
	00 00		 and	 DWORD PTR [esi+3960], 0

; 569  : 		return;

  0001d	e9 34 01 00 00	 jmp	 $LN5@SetLoopSta
$LN4@SetLoopSta:

; 570  : 	}
; 571  : 
; 572  : 	if( m_bSetHandMesh )

  00022	80 be 0a 0f 00
	00 00		 cmp	 BYTE PTR [esi+3850], 0
  00029	53		 push	 ebx
  0002a	57		 push	 edi
  0002b	8b 7d 08	 mov	 edi, DWORD PTR _pChar$[ebp]
  0002e	74 35		 je	 SHORT $LN19@SetLoopSta

; 573  : 	{
; 574  : 		if( !m_StartHandMesh.IsEmpty() )

  00030	8d 9e 9c 0f 00
	00		 lea	 ebx, DWORD PTR [esi+3996]
  00036	8b cb		 mov	 ecx, ebx
  00038	ff 15 00 00 00
	00		 call	 DWORD PTR __imp_?IsEmpty@ioHashString@@QBE_NXZ
  0003e	84 c0		 test	 al, al
  00040	75 13		 jne	 SHORT $LN2@SetLoopSta

; 575  : 		{
; 576  : 			pChar->RestoreSkillWeaponMesh( this, m_StartHandMesh, m_bVisibleEquipMesh );

  00042	0f b6 86 09 0f
	00 00		 movzx	 eax, BYTE PTR [esi+3849]
  00049	6a 00		 push	 0
  0004b	50		 push	 eax
  0004c	53		 push	 ebx
  0004d	56		 push	 esi
  0004e	8b cf		 mov	 ecx, edi
  00050	e8 00 00 00 00	 call	 ?RestoreSkillWeaponMesh@ioBaseChar@@QAE_NPAVioSkill@@ABVioHashString@@_N2@Z ; ioBaseChar::RestoreSkillWeaponMesh
$LN2@SetLoopSta:

; 577  : 		}
; 578  : 		m_bSetHandMesh = false;

  00055	c6 86 0a 0f 00
	00 00		 mov	 BYTE PTR [esi+3850], 0

; 579  : 	}
; 580  : 
; 581  : 	// 사용 아이템 처리
; 582  : 	if( !m_bSetHandMesh && m_bUseItemMesh && !m_LoopHandMesh.IsEmpty() )

  0005c	80 be 0a 0f 00
	00 00		 cmp	 BYTE PTR [esi+3850], 0
  00063	75 33		 jne	 SHORT $LN1@SetLoopSta
$LN19@SetLoopSta:
  00065	80 be 08 0f 00
	00 00		 cmp	 BYTE PTR [esi+3848], 0
  0006c	74 2a		 je	 SHORT $LN1@SetLoopSta
  0006e	8d 9e ac 0f 00
	00		 lea	 ebx, DWORD PTR [esi+4012]
  00074	8b cb		 mov	 ecx, ebx
  00076	ff 15 00 00 00
	00		 call	 DWORD PTR __imp_?IsEmpty@ioHashString@@QBE_NXZ
  0007c	84 c0		 test	 al, al
  0007e	75 18		 jne	 SHORT $LN1@SetLoopSta

; 583  : 	{
; 584  : 		pChar->ChangeSkillWeaponMesh( this, m_LoopHandMesh, m_bVisibleEquipMesh );

  00080	0f b6 86 09 0f
	00 00		 movzx	 eax, BYTE PTR [esi+3849]
  00087	50		 push	 eax
  00088	53		 push	 ebx
  00089	56		 push	 esi
  0008a	8b cf		 mov	 ecx, edi
  0008c	e8 00 00 00 00	 call	 ?ChangeSkillWeaponMesh@ioBaseChar@@QAE_NPAVioSkill@@ABVioHashString@@_N@Z ; ioBaseChar::ChangeSkillWeaponMesh

; 585  : 		m_bSetHandMesh = true;

  00091	c6 86 0a 0f 00
	00 01		 mov	 BYTE PTR [esi+3850], 1
$LN1@SetLoopSta:

; 586  : 	}
; 587  : 
; 588  : 	ioEntityGroup *pGrp = pChar->GetGroup();

  00098	8b 7f 04	 mov	 edi, DWORD PTR [edi+4]

; 589  : 	pGrp->ClearAllLoopAni( FLOAT100, true );

  0009b	b8 64 00 00 00	 mov	 eax, 100		; 00000064H
  000a0	89 45 08	 mov	 DWORD PTR tv262[ebp], eax
  000a3	db 45 08	 fild	 DWORD PTR tv262[ebp]
  000a6	6a 01		 push	 1
  000a8	85 c0		 test	 eax, eax
  000aa	79 06		 jns	 SHORT $LN15@SetLoopSta
  000ac	d8 05 00 00 00
	00		 fadd	 DWORD PTR __real@4f800000
$LN15@SetLoopSta:
  000b2	51		 push	 ecx
  000b3	8b cf		 mov	 ecx, edi
  000b5	d9 1c 24	 fstp	 DWORD PTR [esp]
  000b8	ff 15 00 00 00
	00		 call	 DWORD PTR __imp_?ClearAllLoopAni@ioEntityGroup@@QAEXM_N@Z

; 590  : 	pGrp->ClearAllActionAni( FLOAT100, true );

  000be	b8 64 00 00 00	 mov	 eax, 100		; 00000064H
  000c3	89 45 08	 mov	 DWORD PTR tv257[ebp], eax
  000c6	db 45 08	 fild	 DWORD PTR tv257[ebp]
  000c9	6a 01		 push	 1
  000cb	85 c0		 test	 eax, eax
  000cd	79 06		 jns	 SHORT $LN16@SetLoopSta
  000cf	d8 05 00 00 00
	00		 fadd	 DWORD PTR __real@4f800000
$LN16@SetLoopSta:
  000d5	51		 push	 ecx
  000d6	8b cf		 mov	 ecx, edi
  000d8	d9 1c 24	 fstp	 DWORD PTR [esp]
  000db	ff 15 00 00 00
	00		 call	 DWORD PTR __imp_?ClearAllActionAni@ioEntityGroup@@QAEXM_N@Z

; 591  : 	pGrp->SetLoopAni( m_LoopAnimation, FLOAT100 );

  000e1	b8 64 00 00 00	 mov	 eax, 100		; 00000064H
  000e6	0f 57 c0	 xorps	 xmm0, xmm0
  000e9	83 ec 10	 sub	 esp, 16			; 00000010H
  000ec	f3 0f 11 44 24
	0c		 movss	 DWORD PTR [esp+12], xmm0
  000f2	f3 0f 10 05 00
	00 00 00	 movss	 xmm0, DWORD PTR __real@3f800000
  000fa	89 45 08	 mov	 DWORD PTR tv252[ebp], eax
  000fd	db 45 08	 fild	 DWORD PTR tv252[ebp]
  00100	f3 0f 11 44 24
	08		 movss	 DWORD PTR [esp+8], xmm0
  00106	f3 0f 11 44 24
	04		 movss	 DWORD PTR [esp+4], xmm0
  0010c	85 c0		 test	 eax, eax
  0010e	79 06		 jns	 SHORT $LN17@SetLoopSta
  00110	d8 05 00 00 00
	00		 fadd	 DWORD PTR __real@4f800000
$LN17@SetLoopSta:
  00116	8d 86 68 0f 00
	00		 lea	 eax, DWORD PTR [esi+3944]
  0011c	d9 1c 24	 fstp	 DWORD PTR [esp]
  0011f	50		 push	 eax
  00120	8b cf		 mov	 ecx, edi
  00122	ff 15 00 00 00
	00		 call	 DWORD PTR __imp_?SetLoopAni@ioEntityGroup@@QAE_NABVioHashString@@MMMM@Z

; 592  : 
; 593  : 	m_dwLoopStartTime = FRAMEGETTIME();

  00128	ff 15 00 00 00
	00		 call	 DWORD PTR __imp_?GetSingleton@ioFrameTimer@@SAAAV1@XZ
  0012e	8b c8		 mov	 ecx, eax
  00130	ff 15 00 00 00
	00		 call	 DWORD PTR __imp_?GetLoopSec@ioFrameTimer@@QBEKXZ

; 594  : 	m_dwProtectTime = m_dwLoopStartTime + m_dwLoopProtectDuration;

  00136	8b 8e 60 0f 00
	00		 mov	 ecx, DWORD PTR [esi+3936]
  0013c	03 c8		 add	 ecx, eax
  0013e	5f		 pop	 edi
  0013f	89 86 78 0f 00
	00		 mov	 DWORD PTR [esi+3960], eax
  00145	89 8e 64 0f 00
	00		 mov	 DWORD PTR [esi+3940], ecx

; 595  : 
; 596  : 	m_ControlState = RS_LOOP;

  0014b	c7 86 58 0f 00
	00 02 00 00 00	 mov	 DWORD PTR [esi+3928], 2
  00155	5b		 pop	 ebx
$LN5@SetLoopSta:
  00156	5e		 pop	 esi

; 597  : }

  00157	5d		 pop	 ebp
  00158	c2 08 00	 ret	 8
?SetLoopState@ioAreaWeaponControl2Skill@@IAEXPAVioBaseChar@@PAVioPlayStage@@@Z ENDP ; ioAreaWeaponControl2Skill::SetLoopState
_TEXT	ENDS
PUBLIC	__real@4066800000000000
PUBLIC	__real@4046800000000000
PUBLIC	_pChar$GSCopy$
PUBLIC	__$ArrayPad$
PUBLIC	?CheckControl@ioAreaWeaponControl2Skill@@IAEXPAVioBaseChar@@@Z ; ioAreaWeaponControl2Skill::CheckControl
EXTRN	??1SP2Packet@@UAE@XZ:PROC			; SP2Packet::~SP2Packet
EXTRN	?SendToAllPlayingUser@P2PNetwork@@YAXAAVSP2Packet@@PAVioBaseChar@@@Z:PROC ; P2PNetwork::SendToAllPlayingUser
EXTRN	??6SP2Packet@@QAEAAV0@_N@Z:PROC			; SP2Packet::operator<<
EXTRN	??6SP2Packet@@QAEAAV0@ABUD3DXVECTOR3@@@Z:PROC	; SP2Packet::operator<<
EXTRN	??6SP2Packet@@QAEAAV0@H@Z:PROC			; SP2Packet::operator<<
EXTRN	??6SP2Packet@@QAEAAV0@ABVioHashString@@@Z:PROC	; SP2Packet::operator<<
EXTRN	??0SP2Packet@@QAE@K@Z:PROC			; SP2Packet::SP2Packet
EXTRN	?IsDefenseKeyDown@ioBaseChar@@QBE_NXZ:PROC	; ioBaseChar::IsDefenseKeyDown
EXTRN	?IsJumpKeyDown@ioBaseChar@@QBE_NXZ:PROC		; ioBaseChar::IsJumpKeyDown
EXTRN	?IsChangeDirection@ioBaseChar@@QAE_NXZ:PROC	; ioBaseChar::IsChangeDirection
EXTRN	__imp_?VEC3_ZERO@ioMath@@2UD3DXVECTOR3@@A:BYTE
EXTRN	__imp_??D@YA?AUD3DXVECTOR3@@ABUD3DXQUATERNION@@ABU0@@Z:PROC
EXTRN	_D3DXQuaternionRotationYawPitchRoll@16:PROC
EXTRN	__imp_?ArrangeHead@ioMath@@SAMM@Z:PROC
EXTRN	?CheckCurDirKey@ioBaseChar@@QAE?AW4DirKeyInput@ioUserKeyInput@@XZ:PROC ; ioBaseChar::CheckCurDirKey
EXTRN	?IsSettedDirection@ioBaseChar@@QBE_NXZ:PROC	; ioBaseChar::IsSettedDirection
EXTRN	___security_cookie:DWORD
EXTRN	___CxxFrameHandler3:PROC
EXTRN	@__security_check_cookie@4:PROC
EXTRN	__chkstk:PROC
;	COMDAT __real@4066800000000000
; File d:\lost saga for developer\youtube\tutorial\source\src\lsclient\ioskill.h
CONST	SEGMENT
__real@4066800000000000 DQ 04066800000000000r	; 180
CONST	ENDS
;	COMDAT __real@4046800000000000
CONST	SEGMENT
__real@4046800000000000 DQ 04046800000000000r	; 45
CONST	ENDS
;	COMDAT xdata$x
xdata$x	SEGMENT
__unwindtable$?CheckControl@ioAreaWeaponControl2Skill@@IAEXPAVioBaseChar@@@Z DD 0ffffffffH
	DD	FLAT:__unwindfunclet$?CheckControl@ioAreaWeaponControl2Skill@@IAEXPAVioBaseChar@@@Z$0
__ehfuncinfo$?CheckControl@ioAreaWeaponControl2Skill@@IAEXPAVioBaseChar@@@Z DD 019930522H
	DD	01H
	DD	FLAT:__unwindtable$?CheckControl@ioAreaWeaponControl2Skill@@IAEXPAVioBaseChar@@@Z
	DD	2 DUP(00H)
	DD	2 DUP(00H)
	DD	00H
	DD	01H
; Function compile flags: /Ogsp
; File d:\lost saga for developer\youtube\tutorial\source\src\lsclient\ioareaweaponcontrol2skill.cpp
xdata$x	ENDS
;	COMDAT ?CheckControl@ioAreaWeaponControl2Skill@@IAEXPAVioBaseChar@@@Z
_TEXT	SEGMENT
_qtRotate$531182 = -32860				; size = 16
_qtRotate$531169 = -32860				; size = 16
_pChar$GSCopy$ = -32844					; size = 4
tv448 = -32840						; size = 4
tv406 = -32840						; size = 4
_fYawD$531180 = -32840					; size = 4
_fYawD$531163 = -32840					; size = 4
_bUpdate$ = -32835					; size = 1
_bUpDownChange$ = -32834				; size = 1
_bDirChange$ = -32833					; size = 1
_kPacket$531197 = -32832				; size = 32792
$T531185 = -40						; size = 12
$T531172 = -40						; size = 12
$T531184 = -28						; size = 12
$T531171 = -28						; size = 12
__$ArrayPad$ = -16					; size = 4
__$EHRec$ = -12						; size = 12
_pChar$ = 8						; size = 4
?CheckControl@ioAreaWeaponControl2Skill@@IAEXPAVioBaseChar@@@Z PROC ; ioAreaWeaponControl2Skill::CheckControl, COMDAT
; _this$ = ecx

; 635  : {

  00000	55		 push	 ebp
  00001	8b ec		 mov	 ebp, esp
  00003	6a ff		 push	 -1
  00005	68 00 00 00 00	 push	 __ehhandler$?CheckControl@ioAreaWeaponControl2Skill@@IAEXPAVioBaseChar@@@Z
  0000a	64 a1 00 00 00
	00		 mov	 eax, DWORD PTR fs:0
  00010	50		 push	 eax
  00011	b8 50 80 00 00	 mov	 eax, 32848		; 00008050H
  00016	e8 00 00 00 00	 call	 __chkstk
  0001b	a1 00 00 00 00	 mov	 eax, DWORD PTR ___security_cookie
  00020	33 c5		 xor	 eax, ebp
  00022	89 45 f0	 mov	 DWORD PTR __$ArrayPad$[ebp], eax
  00025	53		 push	 ebx
  00026	56		 push	 esi
  00027	57		 push	 edi
  00028	50		 push	 eax
  00029	8d 45 f4	 lea	 eax, DWORD PTR __$EHRec$[ebp]
  0002c	64 a3 00 00 00
	00		 mov	 DWORD PTR fs:0, eax
  00032	8b 75 08	 mov	 esi, DWORD PTR _pChar$[ebp]
  00035	8b d9		 mov	 ebx, ecx

; 735  : 	{
; 736  : 		SP2Packet kPacket( CUPK_SKILL_EXTRA_INFO );

  00037	89 b5 b4 7f ff
	ff		 mov	 DWORD PTR _pChar$GSCopy$[ebp], esi
  0003d	85 f6		 test	 esi, esi
  0003f	0f 84 bf 03 00
	00		 je	 $LN1@CheckContr

; 636  : 	if( !pChar ) return;
; 637  : 	if( !pChar->IsNeedProcess() ) return;

  00045	8b 06		 mov	 eax, DWORD PTR [esi]
  00047	8b ce		 mov	 ecx, esi
  00049	ff 90 00 01 00
	00		 call	 DWORD PTR [eax+256]
  0004f	84 c0		 test	 al, al
  00051	0f 84 ad 03 00
	00		 je	 $LN1@CheckContr

; 638  : 
; 639  : 	if( m_dwAreaWeaponIndex == 0 )

  00057	8b 83 18 10 00
	00		 mov	 eax, DWORD PTR [ebx+4120]
  0005d	85 c0		 test	 eax, eax
  0005f	0f 84 9f 03 00
	00		 je	 $LN1@CheckContr

; 640  : 		return;
; 641  : 
; 642  : 	ioAreaWeapon *pAreaWeapon = g_AreaWeaponMgr.FindAreaWeaponByIndex( m_dwAreaWeaponIndex );

  00065	50		 push	 eax
  00066	e8 00 00 00 00	 call	 ?GetSingleton@ioAreaWeaponManager@@SAAAV1@XZ ; ioAreaWeaponManager::GetSingleton
  0006b	8b c8		 mov	 ecx, eax
  0006d	e8 00 00 00 00	 call	 ?FindAreaWeaponByIndex@ioAreaWeaponManager@@QAEPAVioAreaWeapon@@K@Z ; ioAreaWeaponManager::FindAreaWeaponByIndex

; 643  : 	if( !pAreaWeapon )

  00072	85 c0		 test	 eax, eax
  00074	75 0b		 jne	 SHORT $LN21@CheckContr

; 644  : 	{
; 645  : 		m_dwAreaWeaponIndex = 0;

  00076	21 83 18 10 00
	00		 and	 DWORD PTR [ebx+4120], eax

; 646  : 		return;

  0007c	e9 83 03 00 00	 jmp	 $LN1@CheckContr
$LN21@CheckContr:

; 647  : 	}
; 648  : 
; 649  : 	bool bDirChange = false;
; 650  : 	bool bUpDownChange = false;
; 651  : 	bool bUpdate = false;
; 652  : 	if( m_AreaWeaponState == AS_DELAY )

  00081	8b 83 5c 0f 00
	00		 mov	 eax, DWORD PTR [ebx+3932]
  00087	c6 85 bf 7f ff
	ff 00		 mov	 BYTE PTR _bDirChange$[ebp], 0
  0008e	c6 85 be 7f ff
	ff 00		 mov	 BYTE PTR _bUpDownChange$[ebp], 0
  00095	c6 85 bd 7f ff
	ff 00		 mov	 BYTE PTR _bUpdate$[ebp], 0
  0009c	85 c0		 test	 eax, eax
  0009e	0f 85 ec 00 00
	00		 jne	 $LN20@CheckContr

; 653  : 	{
; 654  : 		if( pChar->IsSettedDirection() )

  000a4	8b ce		 mov	 ecx, esi
  000a6	e8 00 00 00 00	 call	 ?IsSettedDirection@ioBaseChar@@QBE_NXZ ; ioBaseChar::IsSettedDirection
  000ab	84 c0		 test	 al, al
  000ad	0f 84 f0 01 00
	00		 je	 $LN13@CheckContr

; 655  : 		{
; 656  : 			ioUserKeyInput::DirKeyInput eDir = pChar->CheckCurDirKey();

  000b3	8b ce		 mov	 ecx, esi
  000b5	e8 00 00 00 00	 call	 ?CheckCurDirKey@ioBaseChar@@QAE?AW4DirKeyInput@ioUserKeyInput@@XZ ; ioBaseChar::CheckCurDirKey

; 657  : 			if( eDir != ioUserKeyInput::DKI_NONE )

  000ba	85 c0		 test	 eax, eax
  000bc	0f 84 bf 00 00
	00		 je	 $LN18@CheckContr

; 658  : 			{
; 659  : 				float fYawD = 180.0f + 45.0f * ( eDir - ioUserKeyInput::DKI_UP );
; 660  : 				fYawD = ioMath::ArrangeHead( fYawD );

  000c2	0f 57 c0	 xorps	 xmm0, xmm0
  000c5	48		 dec	 eax
  000c6	f3 0f 2a c0	 cvtsi2ss xmm0, eax
  000ca	0f 5a c0	 cvtps2pd xmm0, xmm0
  000cd	f2 0f 59 05 00
	00 00 00	 mulsd	 xmm0, QWORD PTR __real@4046800000000000
  000d5	f2 0f 58 05 00
	00 00 00	 addsd	 xmm0, QWORD PTR __real@4066800000000000
  000dd	51		 push	 ecx
  000de	66 0f 5a c0	 cvtpd2ps xmm0, xmm0
  000e2	f3 0f 11 04 24	 movss	 DWORD PTR [esp], xmm0
  000e7	ff 15 00 00 00
	00		 call	 DWORD PTR __imp_?ArrangeHead@ioMath@@SAMM@Z
  000ed	d9 9d b8 7f ff
	ff		 fstp	 DWORD PTR _fYawD$531163[ebp]

; 661  : 
; 662  : 				float fYawR = DEGtoRAD( fYawD );

  000f3	f3 0f 10 85 b8
	7f ff ff	 movss	 xmm0, DWORD PTR _fYawD$531163[ebp]
  000fb	0f 5a c0	 cvtps2pd xmm0, xmm0
  000fe	f2 0f 59 05 00
	00 00 00	 mulsd	 xmm0, QWORD PTR __real@3f91df46a2526c7a
  00106	66 0f 5a c8	 cvtpd2ps xmm1, xmm0

; 663  : 				D3DXQUATERNION qtRotate;
; 664  : 				D3DXQuaternionRotationYawPitchRoll( &qtRotate, fYawR, 0.0f, 0.0f );

  0010a	0f 57 c0	 xorps	 xmm0, xmm0
  0010d	f3 0f 11 04 24	 movss	 DWORD PTR [esp], xmm0
  00112	51		 push	 ecx
  00113	51		 push	 ecx
  00114	f3 0f 11 44 24
	04		 movss	 DWORD PTR [esp+4], xmm0
  0011a	8d 85 a4 7f ff
	ff		 lea	 eax, DWORD PTR _qtRotate$531169[ebp]
  00120	f3 0f 11 0c 24	 movss	 DWORD PTR [esp], xmm1
  00125	50		 push	 eax
  00126	e8 00 00 00 00	 call	 _D3DXQuaternionRotationYawPitchRoll@16

; 665  : 
; 666  : 				m_vMoveDir = qtRotate * D3DXVECTOR3( 0.0f, 0.0f, -FLOAT1 );

  0012b	b8 01 00 00 00	 mov	 eax, 1
  00130	0f 57 c0	 xorps	 xmm0, xmm0
  00133	89 85 b8 7f ff
	ff		 mov	 DWORD PTR tv448[ebp], eax
  00139	db 85 b8 7f ff
	ff		 fild	 DWORD PTR tv448[ebp]
  0013f	f3 0f 11 45 e4	 movss	 DWORD PTR $T531171[ebp], xmm0
  00144	f3 0f 11 45 e8	 movss	 DWORD PTR $T531171[ebp+4], xmm0
  00149	85 c0		 test	 eax, eax
  0014b	79 06		 jns	 SHORT $LN52@CheckContr
  0014d	d8 05 00 00 00
	00		 fadd	 DWORD PTR __real@4f800000
$LN52@CheckContr:
  00153	8d 45 e4	 lea	 eax, DWORD PTR $T531171[ebp]
  00156	d9 e0		 fchs
  00158	50		 push	 eax
  00159	d9 5d ec	 fstp	 DWORD PTR $T531171[ebp+8]
  0015c	8d 85 a4 7f ff
	ff		 lea	 eax, DWORD PTR _qtRotate$531169[ebp]
  00162	50		 push	 eax
  00163	8d 45 d8	 lea	 eax, DWORD PTR $T531172[ebp]
  00166	50		 push	 eax
  00167	ff 15 00 00 00
	00		 call	 DWORD PTR __imp_??D@YA?AUD3DXVECTOR3@@ABUD3DXQUATERNION@@ABU0@@Z
  0016d	8d bb 5c 10 00
	00		 lea	 edi, DWORD PTR [ebx+4188]
  00173	8b f0		 mov	 esi, eax
  00175	a5		 movsd
  00176	a5		 movsd
  00177	a5		 movsd
  00178	8b b5 b4 7f ff
	ff		 mov	 esi, DWORD PTR _pChar$GSCopy$[ebp]
  0017e	83 c4 0c	 add	 esp, 12			; 0000000cH
$LN18@CheckContr:

; 667  : 			}
; 668  : 
; 669  : 			m_AreaWeaponState = AS_MOVE;

  00181	c7 83 5c 0f 00
	00 01 00 00 00	 mov	 DWORD PTR [ebx+3932], 1

; 670  : 			bDirChange = true;
; 671  : 		}
; 672  : 	}

  0018b	e9 0c 01 00 00	 jmp	 $LN12@CheckContr
$LN20@CheckContr:

; 673  : 	else if( m_AreaWeaponState == AS_MOVE )

  00190	83 f8 01	 cmp	 eax, 1
  00193	0f 85 0a 01 00
	00		 jne	 $LN13@CheckContr

; 674  : 	{
; 675  : 		if( !pChar->IsSettedDirection() )

  00199	8b ce		 mov	 ecx, esi
  0019b	e8 00 00 00 00	 call	 ?IsSettedDirection@ioBaseChar@@QBE_NXZ ; ioBaseChar::IsSettedDirection
  001a0	84 c0		 test	 al, al
  001a2	75 1b		 jne	 SHORT $LN15@CheckContr

; 676  : 		{
; 677  : 			m_vMoveDir = ioMath::VEC3_ZERO;

  001a4	8b 35 00 00 00
	00		 mov	 esi, DWORD PTR __imp_?VEC3_ZERO@ioMath@@2UD3DXVECTOR3@@A
  001aa	8d bb 5c 10 00
	00		 lea	 edi, DWORD PTR [ebx+4188]
  001b0	a5		 movsd
  001b1	a5		 movsd
  001b2	a5		 movsd

; 678  : 			m_AreaWeaponState = AS_DELAY;

  001b3	83 a3 5c 0f 00
	00 00		 and	 DWORD PTR [ebx+3932], 0

; 679  : 			bDirChange = true;
; 680  : 		}
; 681  : 		else

  001ba	e9 d7 00 00 00	 jmp	 $LN54@CheckContr
$LN15@CheckContr:

; 682  : 		{
; 683  : 			if( pChar->IsChangeDirection() )

  001bf	8b ce		 mov	 ecx, esi
  001c1	e8 00 00 00 00	 call	 ?IsChangeDirection@ioBaseChar@@QAE_NXZ ; ioBaseChar::IsChangeDirection
  001c6	84 c0		 test	 al, al
  001c8	0f 84 d5 00 00
	00		 je	 $LN13@CheckContr

; 684  : 			{
; 685  : 				ioUserKeyInput::DirKeyInput eDir = pChar->CheckCurDirKey();

  001ce	8b ce		 mov	 ecx, esi
  001d0	e8 00 00 00 00	 call	 ?CheckCurDirKey@ioBaseChar@@QAE?AW4DirKeyInput@ioUserKeyInput@@XZ ; ioBaseChar::CheckCurDirKey

; 686  : 				if( eDir != ioUserKeyInput::DKI_NONE )

  001d5	85 c0		 test	 eax, eax
  001d7	0f 84 bf 00 00
	00		 je	 $LN12@CheckContr

; 687  : 				{
; 688  : 					float fYawD = 180.0f + 45.0f * ( eDir - ioUserKeyInput::DKI_UP );
; 689  : 					fYawD = ioMath::ArrangeHead( fYawD );

  001dd	0f 57 c0	 xorps	 xmm0, xmm0
  001e0	48		 dec	 eax
  001e1	f3 0f 2a c0	 cvtsi2ss xmm0, eax
  001e5	0f 5a c0	 cvtps2pd xmm0, xmm0
  001e8	f2 0f 59 05 00
	00 00 00	 mulsd	 xmm0, QWORD PTR __real@4046800000000000
  001f0	f2 0f 58 05 00
	00 00 00	 addsd	 xmm0, QWORD PTR __real@4066800000000000
  001f8	51		 push	 ecx
  001f9	66 0f 5a c0	 cvtpd2ps xmm0, xmm0
  001fd	f3 0f 11 04 24	 movss	 DWORD PTR [esp], xmm0
  00202	ff 15 00 00 00
	00		 call	 DWORD PTR __imp_?ArrangeHead@ioMath@@SAMM@Z
  00208	d9 9d b8 7f ff
	ff		 fstp	 DWORD PTR _fYawD$531180[ebp]

; 690  : 
; 691  : 					float fYawR = DEGtoRAD( fYawD );

  0020e	f3 0f 10 85 b8
	7f ff ff	 movss	 xmm0, DWORD PTR _fYawD$531180[ebp]
  00216	0f 5a c0	 cvtps2pd xmm0, xmm0
  00219	f2 0f 59 05 00
	00 00 00	 mulsd	 xmm0, QWORD PTR __real@3f91df46a2526c7a
  00221	66 0f 5a c8	 cvtpd2ps xmm1, xmm0

; 692  : 					D3DXQUATERNION qtRotate;
; 693  : 					D3DXQuaternionRotationYawPitchRoll( &qtRotate, fYawR, 0.0f, 0.0f );

  00225	0f 57 c0	 xorps	 xmm0, xmm0
  00228	f3 0f 11 04 24	 movss	 DWORD PTR [esp], xmm0
  0022d	51		 push	 ecx
  0022e	51		 push	 ecx
  0022f	f3 0f 11 44 24
	04		 movss	 DWORD PTR [esp+4], xmm0
  00235	8d 85 a4 7f ff
	ff		 lea	 eax, DWORD PTR _qtRotate$531182[ebp]
  0023b	f3 0f 11 0c 24	 movss	 DWORD PTR [esp], xmm1
  00240	50		 push	 eax
  00241	e8 00 00 00 00	 call	 _D3DXQuaternionRotationYawPitchRoll@16

; 694  : 
; 695  : 					m_vMoveDir = qtRotate * D3DXVECTOR3( 0.0f, 0.0f, -FLOAT1 );

  00246	b8 01 00 00 00	 mov	 eax, 1
  0024b	0f 57 c0	 xorps	 xmm0, xmm0
  0024e	89 85 b8 7f ff
	ff		 mov	 DWORD PTR tv406[ebp], eax
  00254	db 85 b8 7f ff
	ff		 fild	 DWORD PTR tv406[ebp]
  0025a	f3 0f 11 45 e4	 movss	 DWORD PTR $T531184[ebp], xmm0
  0025f	f3 0f 11 45 e8	 movss	 DWORD PTR $T531184[ebp+4], xmm0
  00264	85 c0		 test	 eax, eax
  00266	79 06		 jns	 SHORT $LN53@CheckContr
  00268	d8 05 00 00 00
	00		 fadd	 DWORD PTR __real@4f800000
$LN53@CheckContr:
  0026e	8d 45 e4	 lea	 eax, DWORD PTR $T531184[ebp]
  00271	d9 e0		 fchs
  00273	50		 push	 eax
  00274	d9 5d ec	 fstp	 DWORD PTR $T531184[ebp+8]
  00277	8d 85 a4 7f ff
	ff		 lea	 eax, DWORD PTR _qtRotate$531182[ebp]
  0027d	50		 push	 eax
  0027e	8d 45 d8	 lea	 eax, DWORD PTR $T531185[ebp]
  00281	50		 push	 eax
  00282	ff 15 00 00 00
	00		 call	 DWORD PTR __imp_??D@YA?AUD3DXVECTOR3@@ABUD3DXQUATERNION@@ABU0@@Z
  00288	8d bb 5c 10 00
	00		 lea	 edi, DWORD PTR [ebx+4188]
  0028e	8b f0		 mov	 esi, eax
  00290	a5		 movsd
  00291	a5		 movsd
  00292	83 c4 0c	 add	 esp, 12			; 0000000cH
  00295	a5		 movsd
$LN54@CheckContr:
  00296	8b b5 b4 7f ff
	ff		 mov	 esi, DWORD PTR _pChar$GSCopy$[ebp]
$LN12@CheckContr:

; 696  : 				}
; 697  : 
; 698  : 				bDirChange = true;

  0029c	c6 85 bf 7f ff
	ff 01		 mov	 BYTE PTR _bDirChange$[ebp], 1
$LN13@CheckContr:

; 699  : 			}
; 700  : 		}
; 701  : 	}
; 702  : 
; 703  : 	if( pChar->IsJumpKeyDown() )

  002a3	8b ce		 mov	 ecx, esi
  002a5	e8 00 00 00 00	 call	 ?IsJumpKeyDown@ioBaseChar@@QBE_NXZ ; ioBaseChar::IsJumpKeyDown
  002aa	84 c0		 test	 al, al
  002ac	74 1b		 je	 SHORT $LN11@CheckContr

; 704  : 	{
; 705  : 		if( !m_bSetUpKey )	bUpDownChange = true;

  002ae	80 bb 68 10 00
	00 00		 cmp	 BYTE PTR [ebx+4200], 0
  002b5	75 07		 jne	 SHORT $LN10@CheckContr
  002b7	c6 85 be 7f ff
	ff 01		 mov	 BYTE PTR _bUpDownChange$[ebp], 1
$LN10@CheckContr:

; 706  : 		m_bSetUpKey		= true;

  002be	66 c7 83 68 10
	00 00 01 00	 mov	 WORD PTR [ebx+4200], 1

; 707  : 		m_bSetDownKey	= false;
; 708  : 		m_AreaWeaponState = AS_MOVE;

  002c7	eb 24		 jmp	 SHORT $LN55@CheckContr
$LN11@CheckContr:

; 709  : 	}
; 710  : 	else if( pChar->IsDefenseKeyDown() )

  002c9	8b ce		 mov	 ecx, esi
  002cb	e8 00 00 00 00	 call	 ?IsDefenseKeyDown@ioBaseChar@@QBE_NXZ ; ioBaseChar::IsDefenseKeyDown
  002d0	84 c0		 test	 al, al
  002d2	74 25		 je	 SHORT $LN8@CheckContr

; 711  : 	{
; 712  : 		if( !m_bSetDownKey )	bUpDownChange = true;

  002d4	80 bb 69 10 00
	00 00		 cmp	 BYTE PTR [ebx+4201], 0
  002db	75 07		 jne	 SHORT $LN7@CheckContr
  002dd	c6 85 be 7f ff
	ff 01		 mov	 BYTE PTR _bUpDownChange$[ebp], 1
$LN7@CheckContr:

; 713  : 		m_bSetUpKey		= false;

  002e4	66 c7 83 68 10
	00 00 00 01	 mov	 WORD PTR [ebx+4200], 256 ; 00000100H
$LN55@CheckContr:

; 714  : 		m_bSetDownKey	= true;
; 715  : 		m_AreaWeaponState = AS_MOVE;

  002ed	c7 83 5c 0f 00
	00 01 00 00 00	 mov	 DWORD PTR [ebx+3932], 1

; 716  : 	}
; 717  : 	else

  002f7	eb 22		 jmp	 SHORT $LN6@CheckContr
$LN8@CheckContr:

; 718  : 	{
; 719  : 		if( m_bSetUpKey || m_bSetDownKey )	bUpDownChange = true;

  002f9	80 bb 68 10 00
	00 00		 cmp	 BYTE PTR [ebx+4200], 0
  00300	75 09		 jne	 SHORT $LN4@CheckContr
  00302	80 bb 69 10 00
	00 00		 cmp	 BYTE PTR [ebx+4201], 0
  00309	74 07		 je	 SHORT $LN5@CheckContr
$LN4@CheckContr:
  0030b	c6 85 be 7f ff
	ff 01		 mov	 BYTE PTR _bUpDownChange$[ebp], 1
$LN5@CheckContr:

; 720  : 		m_bSetUpKey		= false;

  00312	66 c7 83 68 10
	00 00 00 00	 mov	 WORD PTR [ebx+4200], 0
$LN6@CheckContr:

; 721  : 		m_bSetDownKey	= false;
; 722  : 	}
; 723  : 
; 724  : 	if( bDirChange )

  0031b	80 bd bf 7f ff
	ff 00		 cmp	 BYTE PTR _bDirChange$[ebp], 0
  00322	74 07		 je	 SHORT $LN3@CheckContr

; 725  : 	{
; 726  : 		bUpdate = true;

  00324	c6 85 bd 7f ff
	ff 01		 mov	 BYTE PTR _bUpdate$[ebp], 1
$LN3@CheckContr:

; 727  : 	}
; 728  : 
; 729  : 	if( bUpDownChange )

  0032b	80 bd be 7f ff
	ff 00		 cmp	 BYTE PTR _bUpDownChange$[ebp], 0
  00332	74 07		 je	 SHORT $LN2@CheckContr

; 730  : 	{
; 731  : 		bUpdate = true;

  00334	c6 85 bd 7f ff
	ff 01		 mov	 BYTE PTR _bUpdate$[ebp], 1
$LN2@CheckContr:

; 732  : 	}
; 733  : 
; 734  : 	if( bUpdate && pChar->IsNeedSendNetwork() )

  0033b	80 bd bd 7f ff
	ff 00		 cmp	 BYTE PTR _bUpdate$[ebp], 0
  00342	0f 84 bc 00 00
	00		 je	 $LN1@CheckContr
  00348	8b 06		 mov	 eax, DWORD PTR [esi]
  0034a	8b ce		 mov	 ecx, esi
  0034c	ff 90 04 01 00
	00		 call	 DWORD PTR [eax+260]
  00352	84 c0		 test	 al, al
  00354	0f 84 aa 00 00
	00		 je	 $LN1@CheckContr

; 735  : 	{
; 736  : 		SP2Packet kPacket( CUPK_SKILL_EXTRA_INFO );

  0035a	68 39 41 00 00	 push	 16697			; 00004139H
  0035f	8d 8d c0 7f ff
	ff		 lea	 ecx, DWORD PTR _kPacket$531197[ebp]
  00365	e8 00 00 00 00	 call	 ??0SP2Packet@@QAE@K@Z	; SP2Packet::SP2Packet
  0036a	83 65 fc 00	 and	 DWORD PTR __$EHRec$[ebp+8], 0

; 737  : 		kPacket << pChar->GetCharName();

  0036e	81 c6 d4 02 00
	00		 add	 esi, 724		; 000002d4H
  00374	56		 push	 esi
  00375	8d 8d c0 7f ff
	ff		 lea	 ecx, DWORD PTR _kPacket$531197[ebp]
  0037b	e8 00 00 00 00	 call	 ??6SP2Packet@@QAEAAV0@ABVioHashString@@@Z ; SP2Packet::operator<<

; 738  : 		kPacket << GetName();

  00380	8d 43 24	 lea	 eax, DWORD PTR [ebx+36]
  00383	50		 push	 eax
  00384	8d 8d c0 7f ff
	ff		 lea	 ecx, DWORD PTR _kPacket$531197[ebp]
  0038a	e8 00 00 00 00	 call	 ??6SP2Packet@@QAEAAV0@ABVioHashString@@@Z ; SP2Packet::operator<<

; 739  : 
; 740  : 		kPacket << SS_UPDATE;

  0038f	6a 01		 push	 1
  00391	8d 8d c0 7f ff
	ff		 lea	 ecx, DWORD PTR _kPacket$531197[ebp]
  00397	e8 00 00 00 00	 call	 ??6SP2Packet@@QAEAAV0@H@Z ; SP2Packet::operator<<

; 741  : 		kPacket << m_AreaWeaponState;

  0039c	ff b3 5c 0f 00
	00		 push	 DWORD PTR [ebx+3932]
  003a2	8d 8d c0 7f ff
	ff		 lea	 ecx, DWORD PTR _kPacket$531197[ebp]
  003a8	e8 00 00 00 00	 call	 ??6SP2Packet@@QAEAAV0@H@Z ; SP2Packet::operator<<

; 742  : 		kPacket << m_vMoveDir;

  003ad	8d 83 5c 10 00
	00		 lea	 eax, DWORD PTR [ebx+4188]
  003b3	50		 push	 eax
  003b4	8d 8d c0 7f ff
	ff		 lea	 ecx, DWORD PTR _kPacket$531197[ebp]
  003ba	e8 00 00 00 00	 call	 ??6SP2Packet@@QAEAAV0@ABUD3DXVECTOR3@@@Z ; SP2Packet::operator<<

; 743  : 		kPacket << m_bSetUpKey;

  003bf	0f b6 83 68 10
	00 00		 movzx	 eax, BYTE PTR [ebx+4200]
  003c6	50		 push	 eax
  003c7	8d 8d c0 7f ff
	ff		 lea	 ecx, DWORD PTR _kPacket$531197[ebp]
  003cd	e8 00 00 00 00	 call	 ??6SP2Packet@@QAEAAV0@_N@Z ; SP2Packet::operator<<

; 744  : 		kPacket << m_bSetDownKey;

  003d2	0f b6 83 69 10
	00 00		 movzx	 eax, BYTE PTR [ebx+4201]
  003d9	50		 push	 eax
  003da	8d 8d c0 7f ff
	ff		 lea	 ecx, DWORD PTR _kPacket$531197[ebp]
  003e0	e8 00 00 00 00	 call	 ??6SP2Packet@@QAEAAV0@_N@Z ; SP2Packet::operator<<

; 745  : 		P2PNetwork::SendToAllPlayingUser( kPacket );

  003e5	8d 85 c0 7f ff
	ff		 lea	 eax, DWORD PTR _kPacket$531197[ebp]
  003eb	6a 00		 push	 0
  003ed	50		 push	 eax
  003ee	e8 00 00 00 00	 call	 ?SendToAllPlayingUser@P2PNetwork@@YAXAAVSP2Packet@@PAVioBaseChar@@@Z ; P2PNetwork::SendToAllPlayingUser

; 746  : 	}

  003f3	83 4d fc ff	 or	 DWORD PTR __$EHRec$[ebp+8], -1
  003f7	59		 pop	 ecx
  003f8	59		 pop	 ecx
  003f9	8d 8d c0 7f ff
	ff		 lea	 ecx, DWORD PTR _kPacket$531197[ebp]
  003ff	e8 00 00 00 00	 call	 ??1SP2Packet@@UAE@XZ	; SP2Packet::~SP2Packet
$LN1@CheckContr:

; 747  : }

  00404	8b 4d f4	 mov	 ecx, DWORD PTR __$EHRec$[ebp]
  00407	64 89 0d 00 00
	00 00		 mov	 DWORD PTR fs:0, ecx
  0040e	59		 pop	 ecx
  0040f	5f		 pop	 edi
  00410	5e		 pop	 esi
  00411	5b		 pop	 ebx
  00412	8b 4d f0	 mov	 ecx, DWORD PTR __$ArrayPad$[ebp]
  00415	33 cd		 xor	 ecx, ebp
  00417	e8 00 00 00 00	 call	 @__security_check_cookie@4
  0041c	c9		 leave
  0041d	c2 04 00	 ret	 4
_TEXT	ENDS
;	COMDAT text$x
text$x	SEGMENT
__unwindfunclet$?CheckControl@ioAreaWeaponControl2Skill@@IAEXPAVioBaseChar@@@Z$0:
  00000	8d 8d c0 7f ff
	ff		 lea	 ecx, DWORD PTR _kPacket$531197[ebp]
  00006	e9 00 00 00 00	 jmp	 ??1SP2Packet@@UAE@XZ	; SP2Packet::~SP2Packet
__ehhandler$?CheckControl@ioAreaWeaponControl2Skill@@IAEXPAVioBaseChar@@@Z:
  0000b	8b 54 24 08	 mov	 edx, DWORD PTR [esp+8]
  0000f	8d 42 0c	 lea	 eax, DWORD PTR [edx+12]
  00012	8b 8a a0 7f ff
	ff		 mov	 ecx, DWORD PTR [edx-32864]
  00018	33 c8		 xor	 ecx, eax
  0001a	e8 00 00 00 00	 call	 @__security_check_cookie@4
  0001f	8b 4a fc	 mov	 ecx, DWORD PTR [edx-4]
  00022	33 c8		 xor	 ecx, eax
  00024	e8 00 00 00 00	 call	 @__security_check_cookie@4
  00029	b8 00 00 00 00	 mov	 eax, OFFSET __ehfuncinfo$?CheckControl@ioAreaWeaponControl2Skill@@IAEXPAVioBaseChar@@@Z
  0002e	e9 00 00 00 00	 jmp	 ___CxxFrameHandler3
text$x	ENDS
?CheckControl@ioAreaWeaponControl2Skill@@IAEXPAVioBaseChar@@@Z ENDP ; ioAreaWeaponControl2Skill::CheckControl
PUBLIC	??_C@_00CNPNBAHC@?$AA@				; `string'
PUBLIC	_this$GSCopy$
PUBLIC	?ApplyExtraSkillInfo@ioAreaWeaponControl2Skill@@UAEXPAVioBaseChar@@PAVioPlayStage@@AAVSP2Packet@@@Z ; ioAreaWeaponControl2Skill::ApplyExtraSkillInfo
EXTRN	??5SP2Packet@@QAEAAV0@AA_N@Z:PROC		; SP2Packet::operator>>
EXTRN	__imp_??1ioHashString@@QAE@XZ:PROC
EXTRN	?CreateAreaWeapon@ioAreaWeaponManager@@QAEPAVioAreaWeapon@@ABVioHashString@@000ABUD3DXVECTOR3@@ABUD3DXQUATERNION@@H@Z:PROC ; ioAreaWeaponManager::CreateAreaWeapon
EXTRN	__imp_??0ioHashString@@QAE@PBD@Z:PROC
EXTRN	??5SP2Packet@@QAEAAV0@AAUD3DXQUATERNION@@@Z:PROC ; SP2Packet::operator>>
EXTRN	??5SP2Packet@@QAEAAV0@AAUD3DXVECTOR3@@@Z:PROC	; SP2Packet::operator>>
EXTRN	??5SP2Packet@@QAEAAV0@AAVioHashString@@@Z:PROC	; SP2Packet::operator>>
EXTRN	__imp_??0ioHashString@@QAE@XZ:PROC
EXTRN	??5SP2Packet@@QAEAAV0@AAH@Z:PROC		; SP2Packet::operator>>
EXTRN	__EH_epilog3_GS:PROC
EXTRN	__EH_prolog3_GS:PROC
;	COMDAT ??_C@_00CNPNBAHC@?$AA@
; File d:\lost saga for developer\youtube\tutorial\source\src\lsclient\ioareaweapon.h
CONST	SEGMENT
??_C@_00CNPNBAHC@?$AA@ DB 00H				; `string'
CONST	ENDS
;	COMDAT xdata$x
xdata$x	SEGMENT
__unwindtable$?ApplyExtraSkillInfo@ioAreaWeaponControl2Skill@@UAEXPAVioBaseChar@@PAVioPlayStage@@AAVSP2Packet@@@Z DD 0ffffffffH
	DD	FLAT:__unwindfunclet$?ApplyExtraSkillInfo@ioAreaWeaponControl2Skill@@UAEXPAVioBaseChar@@PAVioPlayStage@@AAVSP2Packet@@@Z$0
	DD	00H
	DD	FLAT:__unwindfunclet$?ApplyExtraSkillInfo@ioAreaWeaponControl2Skill@@UAEXPAVioBaseChar@@PAVioPlayStage@@AAVSP2Packet@@@Z$1
	DD	01H
	DD	FLAT:__unwindfunclet$?ApplyExtraSkillInfo@ioAreaWeaponControl2Skill@@UAEXPAVioBaseChar@@PAVioPlayStage@@AAVSP2Packet@@@Z$2
__ehfuncinfo$?ApplyExtraSkillInfo@ioAreaWeaponControl2Skill@@UAEXPAVioBaseChar@@PAVioPlayStage@@AAVSP2Packet@@@Z DD 019930522H
	DD	03H
	DD	FLAT:__unwindtable$?ApplyExtraSkillInfo@ioAreaWeaponControl2Skill@@UAEXPAVioBaseChar@@PAVioPlayStage@@AAVSP2Packet@@@Z
	DD	2 DUP(00H)
	DD	2 DUP(00H)
	DD	00H
	DD	01H
; Function compile flags: /Ogsp
; File d:\lost saga for developer\youtube\tutorial\source\src\lsclient\ioareaweaponcontrol2skill.cpp
xdata$x	ENDS
;	COMDAT ?ApplyExtraSkillInfo@ioAreaWeaponControl2Skill@@UAEXPAVioBaseChar@@PAVioPlayStage@@AAVSP2Packet@@@Z
_TEXT	SEGMENT
_qtRot$531241 = -108					; size = 16
$T534521 = -92						; size = 16
$T534520 = -76						; size = 16
_szAreaWeaponName$531238 = -60				; size = 16
_iCreateType$531239 = -44				; size = 4
_this$GSCopy$ = -40					; size = 4
_iAreaWeaponState$531248 = -36				; size = 4
_iSyncState$ = -32					; size = 4
_vPos$531240 = -28					; size = 12
__$EHRec$ = -12						; size = 12
_pChar$ = 8						; size = 4
_pStage$ = 12						; size = 4
_rkPacket$ = 16						; size = 4
?ApplyExtraSkillInfo@ioAreaWeaponControl2Skill@@UAEXPAVioBaseChar@@PAVioPlayStage@@AAVSP2Packet@@@Z PROC ; ioAreaWeaponControl2Skill::ApplyExtraSkillInfo, COMDAT
; _this$ = ecx

; 831  : {

  00000	6a 60		 push	 96			; 00000060H
  00002	b8 00 00 00 00	 mov	 eax, __ehhandler$?ApplyExtraSkillInfo@ioAreaWeaponControl2Skill@@UAEXPAVioBaseChar@@PAVioPlayStage@@AAVSP2Packet@@@Z
  00007	e8 00 00 00 00	 call	 __EH_prolog3_GS
  0000c	8b 75 10	 mov	 esi, DWORD PTR _rkPacket$[ebp]
  0000f	8b 5d 08	 mov	 ebx, DWORD PTR _pChar$[ebp]
  00012	8b f9		 mov	 edi, ecx

; 832  : 	int iSyncState;
; 833  : 	rkPacket >> iSyncState;

  00014	8d 45 e0	 lea	 eax, DWORD PTR _iSyncState$[ebp]
  00017	50		 push	 eax
  00018	8b ce		 mov	 ecx, esi

; 834  : 
; 835  : 	if( iSyncState == SS_CREATE )
; 836  : 	{
; 837  : 		ioHashString szAreaWeaponName;

  0001a	89 7d d8	 mov	 DWORD PTR _this$GSCopy$[ebp], edi
  0001d	e8 00 00 00 00	 call	 ??5SP2Packet@@QAEAAV0@AAH@Z ; SP2Packet::operator>>
  00022	83 7d e0 00	 cmp	 DWORD PTR _iSyncState$[ebp], 0
  00026	0f 85 b7 00 00
	00		 jne	 $LN4@ApplyExtra
  0002c	8d 4d c4	 lea	 ecx, DWORD PTR _szAreaWeaponName$531238[ebp]
  0002f	ff 15 00 00 00
	00		 call	 DWORD PTR __imp_??0ioHashString@@QAE@XZ
  00035	83 65 fc 00	 and	 DWORD PTR __$EHRec$[ebp+8], 0

; 838  : 		rkPacket >> szAreaWeaponName;

  00039	8d 45 c4	 lea	 eax, DWORD PTR _szAreaWeaponName$531238[ebp]
  0003c	50		 push	 eax
  0003d	8b ce		 mov	 ecx, esi
  0003f	e8 00 00 00 00	 call	 ??5SP2Packet@@QAEAAV0@AAVioHashString@@@Z ; SP2Packet::operator>>

; 839  : 
; 840  : 		int iCreateType;
; 841  : 		D3DXVECTOR3 vPos;
; 842  : 		D3DXQUATERNION qtRot;
; 843  : 		rkPacket >> vPos >> qtRot >> iCreateType;

  00044	8d 45 d4	 lea	 eax, DWORD PTR _iCreateType$531239[ebp]
  00047	50		 push	 eax
  00048	8d 45 94	 lea	 eax, DWORD PTR _qtRot$531241[ebp]
  0004b	50		 push	 eax
  0004c	8d 45 e4	 lea	 eax, DWORD PTR _vPos$531240[ebp]
  0004f	50		 push	 eax
  00050	8b ce		 mov	 ecx, esi
  00052	e8 00 00 00 00	 call	 ??5SP2Packet@@QAEAAV0@AAUD3DXVECTOR3@@@Z ; SP2Packet::operator>>
  00057	8b c8		 mov	 ecx, eax
  00059	e8 00 00 00 00	 call	 ??5SP2Packet@@QAEAAV0@AAUD3DXQUATERNION@@@Z ; SP2Packet::operator>>
  0005e	8b c8		 mov	 ecx, eax
  00060	e8 00 00 00 00	 call	 ??5SP2Packet@@QAEAAV0@AAH@Z ; SP2Packet::operator>>

; 844  : 
; 845  : 		ioAreaWeapon *pArea = g_AreaWeaponMgr.CreateAreaWeapon( pChar->GetCharName(),
; 846  : 																"",
; 847  : 																"",
; 848  : 																szAreaWeaponName,
; 849  : 																vPos,
; 850  : 																qtRot,
; 851  : 																iCreateType );

  00065	8b 35 00 00 00
	00		 mov	 esi, DWORD PTR __imp_??0ioHashString@@QAE@PBD@Z
  0006b	bf 00 00 00 00	 mov	 edi, OFFSET ??_C@_00CNPNBAHC@?$AA@
  00070	57		 push	 edi
  00071	8d 4d b4	 lea	 ecx, DWORD PTR $T534520[ebp]
  00074	ff d6		 call	 esi
  00076	57		 push	 edi
  00077	8d 4d a4	 lea	 ecx, DWORD PTR $T534521[ebp]
  0007a	c6 45 fc 01	 mov	 BYTE PTR __$EHRec$[ebp+8], 1
  0007e	ff d6		 call	 esi
  00080	ff 75 d4	 push	 DWORD PTR _iCreateType$531239[ebp]
  00083	8d 45 94	 lea	 eax, DWORD PTR _qtRot$531241[ebp]
  00086	50		 push	 eax
  00087	8d 45 e4	 lea	 eax, DWORD PTR _vPos$531240[ebp]
  0008a	50		 push	 eax
  0008b	8d 45 c4	 lea	 eax, DWORD PTR _szAreaWeaponName$531238[ebp]
  0008e	50		 push	 eax
  0008f	8d 45 b4	 lea	 eax, DWORD PTR $T534520[ebp]
  00092	50		 push	 eax
  00093	8d 45 a4	 lea	 eax, DWORD PTR $T534521[ebp]
  00096	50		 push	 eax
  00097	81 c3 d4 02 00
	00		 add	 ebx, 724		; 000002d4H
  0009d	53		 push	 ebx
  0009e	c6 45 fc 02	 mov	 BYTE PTR __$EHRec$[ebp+8], 2
  000a2	e8 00 00 00 00	 call	 ?GetSingleton@ioAreaWeaponManager@@SAAAV1@XZ ; ioAreaWeaponManager::GetSingleton
  000a7	8b c8		 mov	 ecx, eax
  000a9	e8 00 00 00 00	 call	 ?CreateAreaWeapon@ioAreaWeaponManager@@QAEPAVioAreaWeapon@@ABVioHashString@@000ABUD3DXVECTOR3@@ABUD3DXQUATERNION@@H@Z ; ioAreaWeaponManager::CreateAreaWeapon
  000ae	8b 35 00 00 00
	00		 mov	 esi, DWORD PTR __imp_??1ioHashString@@QAE@XZ
  000b4	8d 4d a4	 lea	 ecx, DWORD PTR $T534521[ebp]
  000b7	8b f8		 mov	 edi, eax
  000b9	c6 45 fc 01	 mov	 BYTE PTR __$EHRec$[ebp+8], 1
  000bd	ff d6		 call	 esi
  000bf	8d 4d b4	 lea	 ecx, DWORD PTR $T534520[ebp]
  000c2	c6 45 fc 00	 mov	 BYTE PTR __$EHRec$[ebp+8], 0
  000c6	ff d6		 call	 esi

; 852  : 		if( pArea )

  000c8	85 ff		 test	 edi, edi
  000ca	74 0c		 je	 SHORT $LN3@ApplyExtra

; 853  : 		{
; 854  : 			m_dwAreaWeaponIndex = pArea->GetAreaWeaponIndex();

  000cc	8b 7f 14	 mov	 edi, DWORD PTR [edi+20]
  000cf	8b 45 d8	 mov	 eax, DWORD PTR _this$GSCopy$[ebp]
  000d2	89 b8 18 10 00
	00		 mov	 DWORD PTR [eax+4120], edi
$LN3@ApplyExtra:

; 855  : 		}
; 856  : 	}

  000d8	83 4d fc ff	 or	 DWORD PTR __$EHRec$[ebp+8], -1
  000dc	8d 4d c4	 lea	 ecx, DWORD PTR _szAreaWeaponName$531238[ebp]
  000df	ff d6		 call	 esi
  000e1	eb 4f		 jmp	 SHORT $LN1@ApplyExtra
$LN4@ApplyExtra:

; 857  : 	else if( iSyncState == SS_UPDATE && CheckAreaWeapon() )

  000e3	83 7d e0 01	 cmp	 DWORD PTR _iSyncState$[ebp], 1
  000e7	75 49		 jne	 SHORT $LN1@ApplyExtra
  000e9	8b cf		 mov	 ecx, edi
  000eb	e8 00 00 00 00	 call	 ?CheckAreaWeapon@ioAreaWeaponControl2Skill@@QAE_NXZ ; ioAreaWeaponControl2Skill::CheckAreaWeapon
  000f0	84 c0		 test	 al, al
  000f2	74 3e		 je	 SHORT $LN1@ApplyExtra

; 858  : 	{
; 859  : 		int iAreaWeaponState;
; 860  : 		rkPacket >> iAreaWeaponState;

  000f4	8d 45 dc	 lea	 eax, DWORD PTR _iAreaWeaponState$531248[ebp]
  000f7	50		 push	 eax
  000f8	8b ce		 mov	 ecx, esi
  000fa	e8 00 00 00 00	 call	 ??5SP2Packet@@QAEAAV0@AAH@Z ; SP2Packet::operator>>

; 861  : 		
; 862  : 		m_AreaWeaponState = (AreaWeaponState)iAreaWeaponState;

  000ff	8b 45 dc	 mov	 eax, DWORD PTR _iAreaWeaponState$531248[ebp]
  00102	89 87 5c 0f 00
	00		 mov	 DWORD PTR [edi+3932], eax

; 863  : 		rkPacket >> m_vMoveDir;

  00108	8d 87 5c 10 00
	00		 lea	 eax, DWORD PTR [edi+4188]
  0010e	50		 push	 eax
  0010f	8b ce		 mov	 ecx, esi
  00111	e8 00 00 00 00	 call	 ??5SP2Packet@@QAEAAV0@AAUD3DXVECTOR3@@@Z ; SP2Packet::operator>>

; 864  : 		rkPacket >> m_bSetUpKey;

  00116	8d 87 68 10 00
	00		 lea	 eax, DWORD PTR [edi+4200]
  0011c	50		 push	 eax
  0011d	8b ce		 mov	 ecx, esi
  0011f	e8 00 00 00 00	 call	 ??5SP2Packet@@QAEAAV0@AA_N@Z ; SP2Packet::operator>>

; 865  : 		rkPacket >> m_bSetDownKey;

  00124	81 c7 69 10 00
	00		 add	 edi, 4201		; 00001069H
  0012a	57		 push	 edi
  0012b	8b ce		 mov	 ecx, esi
  0012d	e8 00 00 00 00	 call	 ??5SP2Packet@@QAEAAV0@AA_N@Z ; SP2Packet::operator>>
$LN1@ApplyExtra:

; 866  : 	}
; 867  : }

  00132	e8 00 00 00 00	 call	 __EH_epilog3_GS
  00137	c2 0c 00	 ret	 12			; 0000000cH
_TEXT	ENDS
;	COMDAT text$x
text$x	SEGMENT
__unwindfunclet$?ApplyExtraSkillInfo@ioAreaWeaponControl2Skill@@UAEXPAVioBaseChar@@PAVioPlayStage@@AAVSP2Packet@@@Z$0:
  00000	8d 4d c4	 lea	 ecx, DWORD PTR _szAreaWeaponName$531238[ebp]
  00003	ff 25 00 00 00
	00		 jmp	 DWORD PTR __imp_??1ioHashString@@QAE@XZ
__unwindfunclet$?ApplyExtraSkillInfo@ioAreaWeaponControl2Skill@@UAEXPAVioBaseChar@@PAVioPlayStage@@AAVSP2Packet@@@Z$1:
  00009	8d 4d b4	 lea	 ecx, DWORD PTR $T534520[ebp]
  0000c	ff 25 00 00 00
	00		 jmp	 DWORD PTR __imp_??1ioHashString@@QAE@XZ
__unwindfunclet$?ApplyExtraSkillInfo@ioAreaWeaponControl2Skill@@UAEXPAVioBaseChar@@PAVioPlayStage@@AAVSP2Packet@@@Z$2:
  00012	8d 4d a4	 lea	 ecx, DWORD PTR $T534521[ebp]
  00015	ff 25 00 00 00
	00		 jmp	 DWORD PTR __imp_??1ioHashString@@QAE@XZ
__ehhandler$?ApplyExtraSkillInfo@ioAreaWeaponControl2Skill@@UAEXPAVioBaseChar@@PAVioPlayStage@@AAVSP2Packet@@@Z:
  0001b	8b 54 24 08	 mov	 edx, DWORD PTR [esp+8]
  0001f	8d 42 0c	 lea	 eax, DWORD PTR [edx+12]
  00022	8b 4a 90	 mov	 ecx, DWORD PTR [edx-112]
  00025	33 c8		 xor	 ecx, eax
  00027	e8 00 00 00 00	 call	 @__security_check_cookie@4
  0002c	8b 4a fc	 mov	 ecx, DWORD PTR [edx-4]
  0002f	33 c8		 xor	 ecx, eax
  00031	e8 00 00 00 00	 call	 @__security_check_cookie@4
  00036	b8 00 00 00 00	 mov	 eax, OFFSET __ehfuncinfo$?ApplyExtraSkillInfo@ioAreaWeaponControl2Skill@@UAEXPAVioBaseChar@@PAVioPlayStage@@AAVSP2Packet@@@Z
  0003b	e9 00 00 00 00	 jmp	 ___CxxFrameHandler3
text$x	ENDS
?ApplyExtraSkillInfo@ioAreaWeaponControl2Skill@@UAEXPAVioBaseChar@@PAVioPlayStage@@AAVSP2Packet@@@Z ENDP ; ioAreaWeaponControl2Skill::ApplyExtraSkillInfo
PUBLIC	?GetAreaWeaponPos@ioAreaWeaponControl2Skill@@QAEABUD3DXVECTOR3@@XZ ; ioAreaWeaponControl2Skill::GetAreaWeaponPos
; Function compile flags: /Ogsp
;	COMDAT ?GetAreaWeaponPos@ioAreaWeaponControl2Skill@@QAEABUD3DXVECTOR3@@XZ
_TEXT	SEGMENT
?GetAreaWeaponPos@ioAreaWeaponControl2Skill@@QAEABUD3DXVECTOR3@@XZ PROC ; ioAreaWeaponControl2Skill::GetAreaWeaponPos, COMDAT
; _this$ = ecx

; 882  : {

  00000	56		 push	 esi
  00001	8b f1		 mov	 esi, ecx

; 883  : 	if( m_dwAreaWeaponIndex == 0 )

  00003	8b 86 18 10 00
	00		 mov	 eax, DWORD PTR [esi+4120]
  00009	85 c0		 test	 eax, eax

; 884  : 		return m_vCreatePos;

  0000b	74 18		 je	 SHORT $LN1@GetAreaWea

; 885  : 
; 886  : 	ioAreaWeapon *pAreaWeapon = g_AreaWeaponMgr.FindAreaWeaponByIndex( m_dwAreaWeaponIndex );

  0000d	50		 push	 eax
  0000e	e8 00 00 00 00	 call	 ?GetSingleton@ioAreaWeaponManager@@SAAAV1@XZ ; ioAreaWeaponManager::GetSingleton
  00013	8b c8		 mov	 ecx, eax
  00015	e8 00 00 00 00	 call	 ?FindAreaWeaponByIndex@ioAreaWeaponManager@@QAEPAVioAreaWeapon@@K@Z ; ioAreaWeaponManager::FindAreaWeaponByIndex

; 887  : 	if( pAreaWeapon )

  0001a	85 c0		 test	 eax, eax
  0001c	74 07		 je	 SHORT $LN1@GetAreaWea

; 888  : 		return pAreaWeapon->GetStartPos();

  0001e	05 4c 01 00 00	 add	 eax, 332		; 0000014cH
  00023	5e		 pop	 esi

; 891  : }

  00024	c3		 ret	 0
$LN1@GetAreaWea:

; 889  : 
; 890  : 	return m_vCreatePos;

  00025	8d 86 fc 0f 00
	00		 lea	 eax, DWORD PTR [esi+4092]
  0002b	5e		 pop	 esi

; 891  : }

  0002c	c3		 ret	 0
?GetAreaWeaponPos@ioAreaWeaponControl2Skill@@QAEABUD3DXVECTOR3@@XZ ENDP ; ioAreaWeaponControl2Skill::GetAreaWeaponPos
_TEXT	ENDS
PUBLIC	?GetAreaWeaponPrePos@ioAreaWeaponControl2Skill@@QAEABUD3DXVECTOR3@@XZ ; ioAreaWeaponControl2Skill::GetAreaWeaponPrePos
; Function compile flags: /Ogsp
;	COMDAT ?GetAreaWeaponPrePos@ioAreaWeaponControl2Skill@@QAEABUD3DXVECTOR3@@XZ
_TEXT	SEGMENT
?GetAreaWeaponPrePos@ioAreaWeaponControl2Skill@@QAEABUD3DXVECTOR3@@XZ PROC ; ioAreaWeaponControl2Skill::GetAreaWeaponPrePos, COMDAT
; _this$ = ecx

; 894  : {

  00000	56		 push	 esi
  00001	8b f1		 mov	 esi, ecx

; 895  : 	if( m_dwAreaWeaponIndex == 0 )

  00003	8b 86 18 10 00
	00		 mov	 eax, DWORD PTR [esi+4120]
  00009	85 c0		 test	 eax, eax

; 896  : 		return m_vCreatePos;

  0000b	74 1f		 je	 SHORT $LN7@GetAreaWea@2

; 897  : 
; 898  : 	ioAreaWeapon *pAreaWeapon = g_AreaWeaponMgr.FindAreaWeaponByIndex( m_dwAreaWeaponIndex );

  0000d	50		 push	 eax
  0000e	e8 00 00 00 00	 call	 ?GetSingleton@ioAreaWeaponManager@@SAAAV1@XZ ; ioAreaWeaponManager::GetSingleton
  00013	8b c8		 mov	 ecx, eax
  00015	e8 00 00 00 00	 call	 ?FindAreaWeaponByIndex@ioAreaWeaponManager@@QAEPAVioAreaWeapon@@K@Z ; ioAreaWeaponManager::FindAreaWeaponByIndex

; 899  : 	if( pAreaWeapon )

  0001a	85 c0		 test	 eax, eax
  0001c	74 07		 je	 SHORT $LN1@GetAreaWea@2

; 900  : 		return pAreaWeapon->GetPreStartPos();

  0001e	05 58 01 00 00	 add	 eax, 344		; 00000158H
  00023	5e		 pop	 esi

; 905  : }

  00024	c3		 ret	 0
$LN1@GetAreaWea@2:

; 901  : 
; 902  : 	m_dwAreaWeaponIndex = 0;

  00025	83 a6 18 10 00
	00 00		 and	 DWORD PTR [esi+4120], 0
$LN7@GetAreaWea@2:

; 903  : 
; 904  : 	return m_vCreatePos;

  0002c	8d 86 fc 0f 00
	00		 lea	 eax, DWORD PTR [esi+4092]
  00032	5e		 pop	 esi

; 905  : }

  00033	c3		 ret	 0
?GetAreaWeaponPrePos@ioAreaWeaponControl2Skill@@QAEABUD3DXVECTOR3@@XZ ENDP ; ioAreaWeaponControl2Skill::GetAreaWeaponPrePos
_TEXT	ENDS
PUBLIC	??K?$CEncrypt@M@@QAEMABM@Z			; CEncrypt<float>::operator/
; Function compile flags: /Ogsp
; File d:\lost saga for developer\youtube\tutorial\source\src\lsclient\encryptvalue.h
;	COMDAT ??K?$CEncrypt@M@@QAEMABM@Z
_TEXT	SEGMENT
_value$ = -4						; size = 4
tv130 = 8						; size = 4
_inValue$ = 8						; size = 4
??K?$CEncrypt@M@@QAEMABM@Z PROC				; CEncrypt<float>::operator/, COMDAT
; _this$ = ecx

; 1695 : 	{

  00000	55		 push	 ebp
  00001	8b ec		 mov	 ebp, esp
  00003	51		 push	 ecx

; 1696 : 		type value;
; 1697 : 		DecryptValueToPool(&value);

  00004	8d 45 fc	 lea	 eax, DWORD PTR _value$[ebp]
  00007	50		 push	 eax
  00008	e8 00 00 00 00	 call	 ?DecryptValueToPool@?$CEncrypt@M@@QAEXPAM@Z ; CEncrypt<float>::DecryptValueToPool

; 1698 : #ifdef _NOTUSE
; 1699 : 		Debug();
; 1700 : #endif
; 1701 : 		return value / inValue;

  0000d	d9 45 fc	 fld	 DWORD PTR _value$[ebp]
  00010	8b 45 08	 mov	 eax, DWORD PTR _inValue$[ebp]
  00013	d8 30		 fdiv	 DWORD PTR [eax]
  00015	d9 5d 08	 fstp	 DWORD PTR tv130[ebp]
  00018	d9 45 08	 fld	 DWORD PTR tv130[ebp]

; 1702 : 	}

  0001b	c9		 leave
  0001c	c2 04 00	 ret	 4
??K?$CEncrypt@M@@QAEMABM@Z ENDP				; CEncrypt<float>::operator/
_TEXT	ENDS
PUBLIC	??M?$CEncrypt@M@@QAE_NABM@Z			; CEncrypt<float>::operator<
; Function compile flags: /Ogsp
;	COMDAT ??M?$CEncrypt@M@@QAE_NABM@Z
_TEXT	SEGMENT
_value$ = -4						; size = 4
_inValue$ = 8						; size = 4
??M?$CEncrypt@M@@QAE_NABM@Z PROC			; CEncrypt<float>::operator<, COMDAT
; _this$ = ecx

; 1791 : 	{

  00000	55		 push	 ebp
  00001	8b ec		 mov	 ebp, esp
  00003	51		 push	 ecx

; 1792 : 		type value;
; 1793 : 		DecryptValueToPool(&value);

  00004	8d 45 fc	 lea	 eax, DWORD PTR _value$[ebp]
  00007	50		 push	 eax
  00008	e8 00 00 00 00	 call	 ?DecryptValueToPool@?$CEncrypt@M@@QAEXPAM@Z ; CEncrypt<float>::DecryptValueToPool

; 1794 : #ifdef _NOTUSE
; 1795 : 		Debug();
; 1796 : #endif
; 1797 : 		return (value < inValue);

  0000d	8b 45 08	 mov	 eax, DWORD PTR _inValue$[ebp]
  00010	f3 0f 10 08	 movss	 xmm1, DWORD PTR [eax]
  00014	f3 0f 10 45 fc	 movss	 xmm0, DWORD PTR _value$[ebp]
  00019	0f 5a c0	 cvtps2pd xmm0, xmm0
  0001c	0f 5a c9	 cvtps2pd xmm1, xmm1
  0001f	33 c0		 xor	 eax, eax
  00021	66 0f 2f c8	 comisd	 xmm1, xmm0
  00025	76 01		 jbe	 SHORT $LN4@operator
  00027	40		 inc	 eax
$LN4@operator:

; 1798 : 	} 

  00028	c9		 leave
  00029	c2 04 00	 ret	 4
??M?$CEncrypt@M@@QAE_NABM@Z ENDP			; CEncrypt<float>::operator<
_TEXT	ENDS
PUBLIC	??O?$CEncrypt@K@@QAE_NABH@Z			; CEncrypt<unsigned long>::operator>
; Function compile flags: /Ogsp
;	COMDAT ??O?$CEncrypt@K@@QAE_NABH@Z
_TEXT	SEGMENT
_value$ = -4						; size = 4
_inValue$ = 8						; size = 4
??O?$CEncrypt@K@@QAE_NABH@Z PROC			; CEncrypt<unsigned long>::operator>, COMDAT
; _this$ = ecx

; 1009 : 	{

  00000	55		 push	 ebp
  00001	8b ec		 mov	 ebp, esp
  00003	51		 push	 ecx

; 1010 : 		
; 1011 : 		type value;
; 1012 : 		DecryptValueToPool(&value);

  00004	8d 45 fc	 lea	 eax, DWORD PTR _value$[ebp]
  00007	50		 push	 eax
  00008	e8 00 00 00 00	 call	 ?DecryptValueToPool@?$CEncrypt@K@@QAEXPAK@Z ; CEncrypt<unsigned long>::DecryptValueToPool

; 1013 : #ifdef _NOTUSE
; 1014 : 		Debug();
; 1015 : #endif
; 1016 : 		return (value > inValue);

  0000d	8b 45 08	 mov	 eax, DWORD PTR _inValue$[ebp]
  00010	8b 00		 mov	 eax, DWORD PTR [eax]
  00012	3b 45 fc	 cmp	 eax, DWORD PTR _value$[ebp]
  00015	1b c0		 sbb	 eax, eax
  00017	f7 d8		 neg	 eax

; 1017 : 	}		

  00019	c9		 leave
  0001a	c2 04 00	 ret	 4
??O?$CEncrypt@K@@QAE_NABH@Z ENDP			; CEncrypt<unsigned long>::operator>
_TEXT	ENDS
PUBLIC	??H?$CEncrypt@K@@QAEKABK@Z			; CEncrypt<unsigned long>::operator+
; Function compile flags: /Ogsp
;	COMDAT ??H?$CEncrypt@K@@QAEKABK@Z
_TEXT	SEGMENT
_value$ = -4						; size = 4
_inValue$ = 8						; size = 4
??H?$CEncrypt@K@@QAEKABK@Z PROC				; CEncrypt<unsigned long>::operator+, COMDAT
; _this$ = ecx

; 1285 : 	{

  00000	55		 push	 ebp
  00001	8b ec		 mov	 ebp, esp
  00003	51		 push	 ecx

; 1286 : 		type value;
; 1287 : 		DecryptValueToPool(&value);

  00004	8d 45 fc	 lea	 eax, DWORD PTR _value$[ebp]
  00007	50		 push	 eax
  00008	e8 00 00 00 00	 call	 ?DecryptValueToPool@?$CEncrypt@K@@QAEXPAK@Z ; CEncrypt<unsigned long>::DecryptValueToPool

; 1288 : #ifdef _NOTUSE
; 1289 : 		Debug();
; 1290 : #endif
; 1291 : 		return value + inValue;

  0000d	8b 45 08	 mov	 eax, DWORD PTR _inValue$[ebp]
  00010	8b 00		 mov	 eax, DWORD PTR [eax]
  00012	03 45 fc	 add	 eax, DWORD PTR _value$[ebp]

; 1292 : 	}

  00015	c9		 leave
  00016	c2 04 00	 ret	 4
??H?$CEncrypt@K@@QAEKABK@Z ENDP				; CEncrypt<unsigned long>::operator+
_TEXT	ENDS
PUBLIC	??4?$CEncrypt@K@@QAEKM@Z			; CEncrypt<unsigned long>::operator=
EXTRN	__ftol2:PROC
; Function compile flags: /Ogsp
;	COMDAT ??4?$CEncrypt@K@@QAEKM@Z
_TEXT	SEGMENT
_value$ = 8						; size = 4
_inValue$ = 8						; size = 4
??4?$CEncrypt@K@@QAEKM@Z PROC				; CEncrypt<unsigned long>::operator=, COMDAT
; _this$ = ecx

; 1654 : 	{	

  00000	55		 push	 ebp
  00001	8b ec		 mov	 ebp, esp

; 1655 : 		type value = inValue;

  00003	d9 45 08	 fld	 DWORD PTR _inValue$[ebp]
  00006	56		 push	 esi
  00007	8b f1		 mov	 esi, ecx
  00009	e8 00 00 00 00	 call	 __ftol2
  0000e	89 45 08	 mov	 DWORD PTR _value$[ebp], eax

; 1656 : 		EncryptValueToPool((char*)&value);

  00011	8d 45 08	 lea	 eax, DWORD PTR _value$[ebp]
  00014	50		 push	 eax
  00015	8b ce		 mov	 ecx, esi
  00017	e8 00 00 00 00	 call	 ?EncryptValueToPool@?$CEncrypt@K@@AAEXPBD@Z ; CEncrypt<unsigned long>::EncryptValueToPool

; 1657 : #ifdef _NOTUSE
; 1658 : 		m_value = inValue;
; 1659 : 		Debug();
; 1660 : #endif
; 1661 : 		return value;

  0001c	8b 45 08	 mov	 eax, DWORD PTR _value$[ebp]
  0001f	5e		 pop	 esi

; 1662 : 	}

  00020	5d		 pop	 ebp
  00021	c2 04 00	 ret	 4
??4?$CEncrypt@K@@QAEKM@Z ENDP				; CEncrypt<unsigned long>::operator=
_TEXT	ENDS
PUBLIC	_this$GSCopy$
PUBLIC	__$ArrayPad$
PUBLIC	??$LoadString_e@$0P@@ioINILoader@@QAEXAAY0P@$$CBDAAY00$$CBDPADH@Z ; ioINILoader::LoadString_e<15>
EXTRN	__imp_?LoadStringA@ioINILoader@@QAEXPBD0PADH@Z:PROC
; Function compile flags: /Ogsp
; File d:\lost saga for developer\youtube\tutorial\source\src\io3dengine\ioiniloader.h
;	COMDAT ??$LoadString_e@$0P@@ioINILoader@@QAEXAAY0P@$$CBDAAY00$$CBDPADH@Z
_TEXT	SEGMENT
_this$GSCopy$ = -28					; size = 4
__k$ = -24						; size = 15
__$ArrayPad$ = -4					; size = 4
_k$ = 8							; size = 4
_d$ = 12						; size = 4
_b$ = 16						; size = 4
_i$ = 20						; size = 4
??$LoadString_e@$0P@@ioINILoader@@QAEXAAY0P@$$CBDAAY00$$CBDPADH@Z PROC ; ioINILoader::LoadString_e<15>, COMDAT
; _this$ = ecx

; 161  : 	{

  00000	55		 push	 ebp
  00001	8b ec		 mov	 ebp, esp
  00003	83 ec 1c	 sub	 esp, 28			; 0000001cH
  00006	a1 00 00 00 00	 mov	 eax, DWORD PTR ___security_cookie
  0000b	33 c5		 xor	 eax, ebp
  0000d	89 45 fc	 mov	 DWORD PTR __$ArrayPad$[ebp], eax
  00010	8b 45 08	 mov	 eax, DWORD PTR _k$[ebp]

; 162  : 		_ENCSTR(k, _k);

  00013	8a 10		 mov	 dl, BYTE PTR [eax]
  00015	56		 push	 esi
  00016	8b 75 0c	 mov	 esi, DWORD PTR _d$[ebp]
  00019	57		 push	 edi
  0001a	8b 7d 10	 mov	 edi, DWORD PTR _b$[ebp]
  0001d	89 4d e4	 mov	 DWORD PTR _this$GSCopy$[ebp], ecx
  00020	84 d2		 test	 dl, dl
  00022	0f 84 75 01 00
	00		 je	 $LN96@LoadString
  00028	80 f2 ed	 xor	 dl, -19			; ffffffedH
  0002b	88 55 e8	 mov	 BYTE PTR __k$[ebp], dl
  0002e	8a 50 01	 mov	 dl, BYTE PTR [eax+1]
  00031	84 d2		 test	 dl, dl
  00033	0f 84 5e 01 00
	00		 je	 $LN95@LoadString
  00039	b1 ec		 mov	 cl, -20			; ffffffecH
  0003b	32 d1		 xor	 dl, cl
  0003d	88 55 e9	 mov	 BYTE PTR __k$[ebp+1], dl
  00040	8a 50 02	 mov	 dl, BYTE PTR [eax+2]
  00043	84 d2		 test	 dl, dl
  00045	0f 84 46 01 00
	00		 je	 $LN94@LoadString
  0004b	80 f2 eb	 xor	 dl, -21			; ffffffebH
  0004e	88 55 ea	 mov	 BYTE PTR __k$[ebp+2], dl
  00051	8a 50 03	 mov	 dl, BYTE PTR [eax+3]
  00054	84 d2		 test	 dl, dl
  00056	0f 84 2f 01 00
	00		 je	 $LN93@LoadString
  0005c	80 f2 ea	 xor	 dl, -22			; ffffffeaH
  0005f	88 55 eb	 mov	 BYTE PTR __k$[ebp+3], dl
  00062	8a 50 04	 mov	 dl, BYTE PTR [eax+4]
  00065	84 d2		 test	 dl, dl
  00067	0f 84 18 01 00
	00		 je	 $LN92@LoadString
  0006d	80 f2 ed	 xor	 dl, -19			; ffffffedH
  00070	88 55 ec	 mov	 BYTE PTR __k$[ebp+4], dl
  00073	8a 50 05	 mov	 dl, BYTE PTR [eax+5]
  00076	84 d2		 test	 dl, dl
  00078	0f 84 02 01 00
	00		 je	 $LN91@LoadString
  0007e	32 d1		 xor	 dl, cl
  00080	88 55 ed	 mov	 BYTE PTR __k$[ebp+5], dl
  00083	8a 50 06	 mov	 dl, BYTE PTR [eax+6]
  00086	84 d2		 test	 dl, dl
  00088	0f 84 ec 00 00
	00		 je	 $LN90@LoadString
  0008e	80 f2 eb	 xor	 dl, -21			; ffffffebH
  00091	88 55 ee	 mov	 BYTE PTR __k$[ebp+6], dl
  00094	8a 50 07	 mov	 dl, BYTE PTR [eax+7]
  00097	84 d2		 test	 dl, dl
  00099	0f 84 d5 00 00
	00		 je	 $LN89@LoadString
  0009f	80 f2 ea	 xor	 dl, -22			; ffffffeaH
  000a2	88 55 ef	 mov	 BYTE PTR __k$[ebp+7], dl
  000a5	8a 50 08	 mov	 dl, BYTE PTR [eax+8]
  000a8	84 d2		 test	 dl, dl
  000aa	0f 84 be 00 00
	00		 je	 $LN88@LoadString
  000b0	80 f2 ed	 xor	 dl, -19			; ffffffedH
  000b3	88 55 f0	 mov	 BYTE PTR __k$[ebp+8], dl
  000b6	8a 50 09	 mov	 dl, BYTE PTR [eax+9]
  000b9	84 d2		 test	 dl, dl
  000bb	0f 84 a8 00 00
	00		 je	 $LN87@LoadString
  000c1	32 d1		 xor	 dl, cl
  000c3	88 55 f1	 mov	 BYTE PTR __k$[ebp+9], dl
  000c6	8a 50 0a	 mov	 dl, BYTE PTR [eax+10]
  000c9	84 d2		 test	 dl, dl
  000cb	0f 84 92 00 00
	00		 je	 $LN86@LoadString
  000d1	80 f2 eb	 xor	 dl, -21			; ffffffebH
  000d4	88 55 f2	 mov	 BYTE PTR __k$[ebp+10], dl
  000d7	8a 50 0b	 mov	 dl, BYTE PTR [eax+11]
  000da	84 d2		 test	 dl, dl
  000dc	74 7f		 je	 SHORT $LN85@LoadString
  000de	80 f2 ea	 xor	 dl, -22			; ffffffeaH
  000e1	88 55 f3	 mov	 BYTE PTR __k$[ebp+11], dl
  000e4	8a 50 0c	 mov	 dl, BYTE PTR [eax+12]
  000e7	84 d2		 test	 dl, dl
  000e9	74 6c		 je	 SHORT $LN84@LoadString
  000eb	80 f2 ed	 xor	 dl, -19			; ffffffedH
  000ee	88 55 f4	 mov	 BYTE PTR __k$[ebp+12], dl
  000f1	8a 50 0d	 mov	 dl, BYTE PTR [eax+13]
  000f4	84 d2		 test	 dl, dl
  000f6	74 5a		 je	 SHORT $LN83@LoadString
  000f8	32 d1		 xor	 dl, cl
  000fa	80 78 0e 00	 cmp	 BYTE PTR [eax+14], 0
  000fe	88 55 f5	 mov	 BYTE PTR __k$[ebp+13], dl
  00101	0f 84 9a 00 00
	00		 je	 $LN111@LoadString
  00107	8a 50 0f	 mov	 dl, BYTE PTR [eax+15]
  0010a	84 d2		 test	 dl, dl
  0010c	74 3e		 je	 SHORT $LN81@LoadString
  0010e	80 f2 ea	 xor	 dl, -22			; ffffffeaH
  00111	88 55 f7	 mov	 BYTE PTR __k$[ebp+15], dl
  00114	8a 50 10	 mov	 dl, BYTE PTR [eax+16]
  00117	84 d2		 test	 dl, dl
  00119	74 2b		 je	 SHORT $LN80@LoadString
  0011b	80 f2 ed	 xor	 dl, -19			; ffffffedH
  0011e	88 55 f8	 mov	 BYTE PTR __k$[ebp+16], dl
  00121	8a 50 11	 mov	 dl, BYTE PTR [eax+17]
  00124	84 d2		 test	 dl, dl
  00126	74 19		 je	 SHORT $LN79@LoadString
  00128	8a 40 12	 mov	 al, BYTE PTR [eax+18]
  0012b	32 d1		 xor	 dl, cl
  0012d	88 55 f9	 mov	 BYTE PTR __k$[ebp+17], dl
  00130	84 c0		 test	 al, al
  00132	74 07		 je	 SHORT $LN78@LoadString
  00134	34 eb		 xor	 al, -21			; ffffffebH
  00136	88 45 fa	 mov	 BYTE PTR __k$[ebp+18], al
  00139	eb 66		 jmp	 SHORT $LN111@LoadString
$LN78@LoadString:
  0013b	c6 45 fa eb	 mov	 BYTE PTR __k$[ebp+18], -21 ; ffffffebH
  0013f	eb 60		 jmp	 SHORT $LN111@LoadString
$LN79@LoadString:
  00141	88 4d f9	 mov	 BYTE PTR __k$[ebp+17], cl
  00144	eb 5b		 jmp	 SHORT $LN111@LoadString
$LN80@LoadString:
  00146	c6 45 f8 ed	 mov	 BYTE PTR __k$[ebp+16], -19 ; ffffffedH
  0014a	eb 55		 jmp	 SHORT $LN111@LoadString
$LN81@LoadString:
  0014c	c6 45 f7 ea	 mov	 BYTE PTR __k$[ebp+15], -22 ; ffffffeaH
  00150	eb 4f		 jmp	 SHORT $LN111@LoadString
$LN83@LoadString:
  00152	88 4d f5	 mov	 BYTE PTR __k$[ebp+13], cl
  00155	eb 4a		 jmp	 SHORT $LN111@LoadString
$LN84@LoadString:
  00157	c6 45 f4 ed	 mov	 BYTE PTR __k$[ebp+12], -19 ; ffffffedH
  0015b	eb 44		 jmp	 SHORT $LN111@LoadString
$LN85@LoadString:
  0015d	c6 45 f3 ea	 mov	 BYTE PTR __k$[ebp+11], -22 ; ffffffeaH
  00161	eb 3e		 jmp	 SHORT $LN111@LoadString
$LN86@LoadString:
  00163	c6 45 f2 eb	 mov	 BYTE PTR __k$[ebp+10], -21 ; ffffffebH
  00167	eb 38		 jmp	 SHORT $LN111@LoadString
$LN87@LoadString:
  00169	88 4d f1	 mov	 BYTE PTR __k$[ebp+9], cl
  0016c	eb 33		 jmp	 SHORT $LN111@LoadString
$LN88@LoadString:
  0016e	c6 45 f0 ed	 mov	 BYTE PTR __k$[ebp+8], -19 ; ffffffedH
  00172	eb 2d		 jmp	 SHORT $LN111@LoadString
$LN89@LoadString:
  00174	c6 45 ef ea	 mov	 BYTE PTR __k$[ebp+7], -22 ; ffffffeaH
  00178	eb 27		 jmp	 SHORT $LN111@LoadString
$LN90@LoadString:
  0017a	c6 45 ee eb	 mov	 BYTE PTR __k$[ebp+6], -21 ; ffffffebH
  0017e	eb 21		 jmp	 SHORT $LN111@LoadString
$LN91@LoadString:
  00180	88 4d ed	 mov	 BYTE PTR __k$[ebp+5], cl
  00183	eb 1c		 jmp	 SHORT $LN111@LoadString
$LN92@LoadString:
  00185	c6 45 ec ed	 mov	 BYTE PTR __k$[ebp+4], -19 ; ffffffedH
  00189	eb 16		 jmp	 SHORT $LN111@LoadString
$LN93@LoadString:
  0018b	c6 45 eb ea	 mov	 BYTE PTR __k$[ebp+3], -22 ; ffffffeaH
  0018f	eb 10		 jmp	 SHORT $LN111@LoadString
$LN94@LoadString:
  00191	c6 45 ea eb	 mov	 BYTE PTR __k$[ebp+2], -21 ; ffffffebH
  00195	eb 0a		 jmp	 SHORT $LN111@LoadString
$LN95@LoadString:
  00197	c6 45 e9 ec	 mov	 BYTE PTR __k$[ebp+1], -20 ; ffffffecH
  0019b	eb 04		 jmp	 SHORT $LN111@LoadString
$LN96@LoadString:
  0019d	c6 45 e8 ed	 mov	 BYTE PTR __k$[ebp], -19	; ffffffedH
$LN111@LoadString:
  001a1	6a 03		 push	 3
  001a3	8d 45 e8	 lea	 eax, DWORD PTR __k$[ebp]
  001a6	c6 45 f6 00	 mov	 BYTE PTR __k$[ebp+14], 0
  001aa	5a		 pop	 edx
$LL104@LoadString:
  001ab	81 30 ed ec eb
	ea		 xor	 DWORD PTR [eax], -353637139 ; eaebecedH
  001b1	83 c0 04	 add	 eax, 4
  001b4	4a		 dec	 edx
  001b5	75 f4		 jne	 SHORT $LL104@LoadString
  001b7	6a 0c		 push	 12			; 0000000cH
  001b9	58		 pop	 eax
$LL101@LoadString:
  001ba	8b c8		 mov	 ecx, eax
  001bc	81 e1 03 00 00
	80		 and	 ecx, -2147483645	; 80000003H
  001c2	79 05		 jns	 SHORT $LN112@LoadString
  001c4	49		 dec	 ecx
  001c5	83 c9 fc	 or	 ecx, -4			; fffffffcH
  001c8	41		 inc	 ecx
$LN112@LoadString:
  001c9	b2 ed		 mov	 dl, -19			; ffffffedH
  001cb	2a d1		 sub	 dl, cl
  001cd	30 54 05 e8	 xor	 BYTE PTR __k$[ebp+eax], dl
  001d1	40		 inc	 eax
  001d2	83 f8 0e	 cmp	 eax, 14			; 0000000eH
  001d5	7c e3		 jl	 SHORT $LL101@LoadString

; 163  : 		LoadString(_k, d, b, i);

  001d7	ff 75 14	 push	 DWORD PTR _i$[ebp]
  001da	8b 4d e4	 mov	 ecx, DWORD PTR _this$GSCopy$[ebp]
  001dd	57		 push	 edi
  001de	56		 push	 esi
  001df	8d 45 e8	 lea	 eax, DWORD PTR __k$[ebp]
  001e2	50		 push	 eax
  001e3	ff 15 00 00 00
	00		 call	 DWORD PTR __imp_?LoadStringA@ioINILoader@@QAEXPBD0PADH@Z

; 164  : 	}

  001e9	8b 4d fc	 mov	 ecx, DWORD PTR __$ArrayPad$[ebp]
  001ec	5f		 pop	 edi
  001ed	33 cd		 xor	 ecx, ebp
  001ef	5e		 pop	 esi
  001f0	e8 00 00 00 00	 call	 @__security_check_cookie@4
  001f5	c9		 leave
  001f6	c2 10 00	 ret	 16			; 00000010H
??$LoadString_e@$0P@@ioINILoader@@QAEXAAY0P@$$CBDAAY00$$CBDPADH@Z ENDP ; ioINILoader::LoadString_e<15>
_TEXT	ENDS
PUBLIC	__$ArrayPad$
PUBLIC	??$LoadInt_e@$0O@@ioINILoader@@QAEHAAY0O@$$CBDH@Z ; ioINILoader::LoadInt_e<14>
EXTRN	__imp_?LoadInt@ioINILoader@@QAEHPBDH@Z:PROC
; Function compile flags: /Ogsp
;	COMDAT ??$LoadInt_e@$0O@@ioINILoader@@QAEHAAY0O@$$CBDH@Z
_TEXT	SEGMENT
__k$ = -24						; size = 14
__$ArrayPad$ = -4					; size = 4
_k$ = 8							; size = 4
_i$ = 12						; size = 4
??$LoadInt_e@$0O@@ioINILoader@@QAEHAAY0O@$$CBDH@Z PROC	; ioINILoader::LoadInt_e<14>, COMDAT
; _this$ = ecx

; 118  : 	{

  00000	55		 push	 ebp
  00001	8b ec		 mov	 ebp, esp
  00003	83 ec 18	 sub	 esp, 24			; 00000018H
  00006	a1 00 00 00 00	 mov	 eax, DWORD PTR ___security_cookie
  0000b	33 c5		 xor	 eax, ebp
  0000d	89 45 fc	 mov	 DWORD PTR __$ArrayPad$[ebp], eax
  00010	8b 45 08	 mov	 eax, DWORD PTR _k$[ebp]

; 119  : 		_ENCSTR(k, _k);

  00013	8a 10		 mov	 dl, BYTE PTR [eax]
  00015	56		 push	 esi
  00016	8b f1		 mov	 esi, ecx
  00018	84 d2		 test	 dl, dl
  0001a	0f 84 64 01 00
	00		 je	 $LN96@LoadInt_e
  00020	80 f2 ed	 xor	 dl, -19			; ffffffedH
  00023	88 55 e8	 mov	 BYTE PTR __k$[ebp], dl
  00026	8a 50 01	 mov	 dl, BYTE PTR [eax+1]
  00029	84 d2		 test	 dl, dl
  0002b	0f 84 4d 01 00
	00		 je	 $LN95@LoadInt_e
  00031	80 f2 ec	 xor	 dl, -20			; ffffffecH
  00034	88 55 e9	 mov	 BYTE PTR __k$[ebp+1], dl
  00037	8a 50 02	 mov	 dl, BYTE PTR [eax+2]
  0003a	84 d2		 test	 dl, dl
  0003c	0f 84 36 01 00
	00		 je	 $LN94@LoadInt_e
  00042	b1 eb		 mov	 cl, -21			; ffffffebH
  00044	32 d1		 xor	 dl, cl
  00046	88 55 ea	 mov	 BYTE PTR __k$[ebp+2], dl
  00049	8a 50 03	 mov	 dl, BYTE PTR [eax+3]
  0004c	84 d2		 test	 dl, dl
  0004e	0f 84 1e 01 00
	00		 je	 $LN93@LoadInt_e
  00054	80 f2 ea	 xor	 dl, -22			; ffffffeaH
  00057	88 55 eb	 mov	 BYTE PTR __k$[ebp+3], dl
  0005a	8a 50 04	 mov	 dl, BYTE PTR [eax+4]
  0005d	84 d2		 test	 dl, dl
  0005f	0f 84 07 01 00
	00		 je	 $LN92@LoadInt_e
  00065	80 f2 ed	 xor	 dl, -19			; ffffffedH
  00068	88 55 ec	 mov	 BYTE PTR __k$[ebp+4], dl
  0006b	8a 50 05	 mov	 dl, BYTE PTR [eax+5]
  0006e	84 d2		 test	 dl, dl
  00070	0f 84 f0 00 00
	00		 je	 $LN91@LoadInt_e
  00076	80 f2 ec	 xor	 dl, -20			; ffffffecH
  00079	88 55 ed	 mov	 BYTE PTR __k$[ebp+5], dl
  0007c	8a 50 06	 mov	 dl, BYTE PTR [eax+6]
  0007f	84 d2		 test	 dl, dl
  00081	0f 84 da 00 00
	00		 je	 $LN90@LoadInt_e
  00087	32 d1		 xor	 dl, cl
  00089	88 55 ee	 mov	 BYTE PTR __k$[ebp+6], dl
  0008c	8a 50 07	 mov	 dl, BYTE PTR [eax+7]
  0008f	84 d2		 test	 dl, dl
  00091	0f 84 c4 00 00
	00		 je	 $LN89@LoadInt_e
  00097	80 f2 ea	 xor	 dl, -22			; ffffffeaH
  0009a	88 55 ef	 mov	 BYTE PTR __k$[ebp+7], dl
  0009d	8a 50 08	 mov	 dl, BYTE PTR [eax+8]
  000a0	84 d2		 test	 dl, dl
  000a2	0f 84 ad 00 00
	00		 je	 $LN88@LoadInt_e
  000a8	80 f2 ed	 xor	 dl, -19			; ffffffedH
  000ab	88 55 f0	 mov	 BYTE PTR __k$[ebp+8], dl
  000ae	8a 50 09	 mov	 dl, BYTE PTR [eax+9]
  000b1	84 d2		 test	 dl, dl
  000b3	0f 84 96 00 00
	00		 je	 $LN87@LoadInt_e
  000b9	80 f2 ec	 xor	 dl, -20			; ffffffecH
  000bc	88 55 f1	 mov	 BYTE PTR __k$[ebp+9], dl
  000bf	8a 50 0a	 mov	 dl, BYTE PTR [eax+10]
  000c2	84 d2		 test	 dl, dl
  000c4	0f 84 80 00 00
	00		 je	 $LN86@LoadInt_e
  000ca	32 d1		 xor	 dl, cl
  000cc	88 55 f2	 mov	 BYTE PTR __k$[ebp+10], dl
  000cf	8a 50 0b	 mov	 dl, BYTE PTR [eax+11]
  000d2	84 d2		 test	 dl, dl
  000d4	74 6e		 je	 SHORT $LN85@LoadInt_e
  000d6	80 f2 ea	 xor	 dl, -22			; ffffffeaH
  000d9	88 55 f3	 mov	 BYTE PTR __k$[ebp+11], dl
  000dc	8a 50 0c	 mov	 dl, BYTE PTR [eax+12]
  000df	84 d2		 test	 dl, dl
  000e1	74 5b		 je	 SHORT $LN84@LoadInt_e
  000e3	80 f2 ed	 xor	 dl, -19			; ffffffedH
  000e6	80 78 0d 00	 cmp	 BYTE PTR [eax+13], 0
  000ea	88 55 f4	 mov	 BYTE PTR __k$[ebp+12], dl
  000ed	0f 84 95 00 00
	00		 je	 $LN1@LoadInt_e
  000f3	8a 50 0e	 mov	 dl, BYTE PTR [eax+14]
  000f6	84 d2		 test	 dl, dl
  000f8	74 3f		 je	 SHORT $LN82@LoadInt_e
  000fa	32 d1		 xor	 dl, cl
  000fc	88 55 f6	 mov	 BYTE PTR __k$[ebp+14], dl
  000ff	8a 50 0f	 mov	 dl, BYTE PTR [eax+15]
  00102	84 d2		 test	 dl, dl
  00104	74 2d		 je	 SHORT $LN81@LoadInt_e
  00106	80 f2 ea	 xor	 dl, -22			; ffffffeaH
  00109	88 55 f7	 mov	 BYTE PTR __k$[ebp+15], dl
  0010c	8a 50 10	 mov	 dl, BYTE PTR [eax+16]
  0010f	84 d2		 test	 dl, dl
  00111	74 1a		 je	 SHORT $LN80@LoadInt_e
  00113	8a 40 11	 mov	 al, BYTE PTR [eax+17]
  00116	80 f2 ed	 xor	 dl, -19			; ffffffedH
  00119	88 55 f8	 mov	 BYTE PTR __k$[ebp+16], dl
  0011c	84 c0		 test	 al, al
  0011e	74 07		 je	 SHORT $LN79@LoadInt_e
  00120	34 ec		 xor	 al, -20			; ffffffecH
  00122	88 45 f9	 mov	 BYTE PTR __k$[ebp+17], al
  00125	eb 61		 jmp	 SHORT $LN1@LoadInt_e
$LN79@LoadInt_e:
  00127	c6 45 f9 ec	 mov	 BYTE PTR __k$[ebp+17], -20 ; ffffffecH
  0012b	eb 5b		 jmp	 SHORT $LN1@LoadInt_e
$LN80@LoadInt_e:
  0012d	c6 45 f8 ed	 mov	 BYTE PTR __k$[ebp+16], -19 ; ffffffedH
  00131	eb 55		 jmp	 SHORT $LN1@LoadInt_e
$LN81@LoadInt_e:
  00133	c6 45 f7 ea	 mov	 BYTE PTR __k$[ebp+15], -22 ; ffffffeaH
  00137	eb 4f		 jmp	 SHORT $LN1@LoadInt_e
$LN82@LoadInt_e:
  00139	88 4d f6	 mov	 BYTE PTR __k$[ebp+14], cl
  0013c	eb 4a		 jmp	 SHORT $LN1@LoadInt_e
$LN84@LoadInt_e:
  0013e	c6 45 f4 ed	 mov	 BYTE PTR __k$[ebp+12], -19 ; ffffffedH
  00142	eb 44		 jmp	 SHORT $LN1@LoadInt_e
$LN85@LoadInt_e:
  00144	c6 45 f3 ea	 mov	 BYTE PTR __k$[ebp+11], -22 ; ffffffeaH
  00148	eb 3e		 jmp	 SHORT $LN1@LoadInt_e
$LN86@LoadInt_e:
  0014a	88 4d f2	 mov	 BYTE PTR __k$[ebp+10], cl
  0014d	eb 39		 jmp	 SHORT $LN1@LoadInt_e
$LN87@LoadInt_e:
  0014f	c6 45 f1 ec	 mov	 BYTE PTR __k$[ebp+9], -20 ; ffffffecH
  00153	eb 33		 jmp	 SHORT $LN1@LoadInt_e
$LN88@LoadInt_e:
  00155	c6 45 f0 ed	 mov	 BYTE PTR __k$[ebp+8], -19 ; ffffffedH
  00159	eb 2d		 jmp	 SHORT $LN1@LoadInt_e
$LN89@LoadInt_e:
  0015b	c6 45 ef ea	 mov	 BYTE PTR __k$[ebp+7], -22 ; ffffffeaH
  0015f	eb 27		 jmp	 SHORT $LN1@LoadInt_e
$LN90@LoadInt_e:
  00161	88 4d ee	 mov	 BYTE PTR __k$[ebp+6], cl
  00164	eb 22		 jmp	 SHORT $LN1@LoadInt_e
$LN91@LoadInt_e:
  00166	c6 45 ed ec	 mov	 BYTE PTR __k$[ebp+5], -20 ; ffffffecH
  0016a	eb 1c		 jmp	 SHORT $LN1@LoadInt_e
$LN92@LoadInt_e:
  0016c	c6 45 ec ed	 mov	 BYTE PTR __k$[ebp+4], -19 ; ffffffedH
  00170	eb 16		 jmp	 SHORT $LN1@LoadInt_e
$LN93@LoadInt_e:
  00172	c6 45 eb ea	 mov	 BYTE PTR __k$[ebp+3], -22 ; ffffffeaH
  00176	eb 10		 jmp	 SHORT $LN1@LoadInt_e
$LN94@LoadInt_e:
  00178	c6 45 ea eb	 mov	 BYTE PTR __k$[ebp+2], -21 ; ffffffebH
  0017c	eb 0a		 jmp	 SHORT $LN1@LoadInt_e
$LN95@LoadInt_e:
  0017e	c6 45 e9 ec	 mov	 BYTE PTR __k$[ebp+1], -20 ; ffffffecH
  00182	eb 04		 jmp	 SHORT $LN1@LoadInt_e
$LN96@LoadInt_e:
  00184	c6 45 e8 ed	 mov	 BYTE PTR __k$[ebp], -19	; ffffffedH
$LN1@LoadInt_e:
  00188	6a 03		 push	 3
  0018a	8d 45 e8	 lea	 eax, DWORD PTR __k$[ebp]
  0018d	c6 45 f5 00	 mov	 BYTE PTR __k$[ebp+13], 0
  00191	5a		 pop	 edx
$LL104@LoadInt_e:
  00192	81 30 ed ec eb
	ea		 xor	 DWORD PTR [eax], -353637139 ; eaebecedH
  00198	83 c0 04	 add	 eax, 4
  0019b	4a		 dec	 edx
  0019c	75 f4		 jne	 SHORT $LL104@LoadInt_e

; 120  : 		return LoadInt(_k, i);

  0019e	ff 75 0c	 push	 DWORD PTR _i$[ebp]
  001a1	80 75 f4 ed	 xor	 BYTE PTR __k$[ebp+12], -19 ; ffffffedH
  001a5	8d 45 e8	 lea	 eax, DWORD PTR __k$[ebp]
  001a8	50		 push	 eax
  001a9	8b ce		 mov	 ecx, esi
  001ab	ff 15 00 00 00
	00		 call	 DWORD PTR __imp_?LoadInt@ioINILoader@@QAEHPBDH@Z

; 121  : 	}

  001b1	8b 4d fc	 mov	 ecx, DWORD PTR __$ArrayPad$[ebp]
  001b4	33 cd		 xor	 ecx, ebp
  001b6	5e		 pop	 esi
  001b7	e8 00 00 00 00	 call	 @__security_check_cookie@4
  001bc	c9		 leave
  001bd	c2 08 00	 ret	 8
??$LoadInt_e@$0O@@ioINILoader@@QAEHAAY0O@$$CBDH@Z ENDP	; ioINILoader::LoadInt_e<14>
_TEXT	ENDS
PUBLIC	__$ArrayPad$
PUBLIC	??$LoadInt_e@$0BG@@ioINILoader@@QAEHAAY0BG@$$CBDH@Z ; ioINILoader::LoadInt_e<22>
; Function compile flags: /Ogsp
;	COMDAT ??$LoadInt_e@$0BG@@ioINILoader@@QAEHAAY0BG@$$CBDH@Z
_TEXT	SEGMENT
__k$ = -32						; size = 22
__$ArrayPad$ = -4					; size = 4
_k$ = 8							; size = 4
_i$ = 12						; size = 4
??$LoadInt_e@$0BG@@ioINILoader@@QAEHAAY0BG@$$CBDH@Z PROC ; ioINILoader::LoadInt_e<22>, COMDAT
; _this$ = ecx

; 118  : 	{

  00000	55		 push	 ebp
  00001	8b ec		 mov	 ebp, esp
  00003	83 ec 20	 sub	 esp, 32			; 00000020H
  00006	a1 00 00 00 00	 mov	 eax, DWORD PTR ___security_cookie
  0000b	33 c5		 xor	 eax, ebp
  0000d	89 45 fc	 mov	 DWORD PTR __$ArrayPad$[ebp], eax
  00010	8b 45 08	 mov	 eax, DWORD PTR _k$[ebp]

; 119  : 		_ENCSTR(k, _k);

  00013	8a 10		 mov	 dl, BYTE PTR [eax]
  00015	53		 push	 ebx
  00016	56		 push	 esi
  00017	8b f1		 mov	 esi, ecx
  00019	84 d2		 test	 dl, dl
  0001b	0f 84 15 02 00
	00		 je	 $LN96@LoadInt_e@2
  00021	80 f2 ed	 xor	 dl, -19			; ffffffedH
  00024	88 55 e0	 mov	 BYTE PTR __k$[ebp], dl
  00027	8a 50 01	 mov	 dl, BYTE PTR [eax+1]
  0002a	84 d2		 test	 dl, dl
  0002c	0f 84 fe 01 00
	00		 je	 $LN95@LoadInt_e@2
  00032	80 f2 ec	 xor	 dl, -20			; ffffffecH
  00035	88 55 e1	 mov	 BYTE PTR __k$[ebp+1], dl
  00038	8a 50 02	 mov	 dl, BYTE PTR [eax+2]
  0003b	84 d2		 test	 dl, dl
  0003d	0f 84 e7 01 00
	00		 je	 $LN94@LoadInt_e@2
  00043	b1 eb		 mov	 cl, -21			; ffffffebH
  00045	32 d1		 xor	 dl, cl
  00047	88 55 e2	 mov	 BYTE PTR __k$[ebp+2], dl
  0004a	8a 50 03	 mov	 dl, BYTE PTR [eax+3]
  0004d	84 d2		 test	 dl, dl
  0004f	0f 84 cf 01 00
	00		 je	 $LN93@LoadInt_e@2
  00055	b3 ea		 mov	 bl, -22			; ffffffeaH
  00057	32 d3		 xor	 dl, bl
  00059	88 55 e3	 mov	 BYTE PTR __k$[ebp+3], dl
  0005c	8a 50 04	 mov	 dl, BYTE PTR [eax+4]
  0005f	84 d2		 test	 dl, dl
  00061	0f 84 b7 01 00
	00		 je	 $LN92@LoadInt_e@2
  00067	80 f2 ed	 xor	 dl, -19			; ffffffedH
  0006a	88 55 e4	 mov	 BYTE PTR __k$[ebp+4], dl
  0006d	8a 50 05	 mov	 dl, BYTE PTR [eax+5]
  00070	84 d2		 test	 dl, dl
  00072	0f 84 a0 01 00
	00		 je	 $LN91@LoadInt_e@2
  00078	80 f2 ec	 xor	 dl, -20			; ffffffecH
  0007b	88 55 e5	 mov	 BYTE PTR __k$[ebp+5], dl
  0007e	8a 50 06	 mov	 dl, BYTE PTR [eax+6]
  00081	84 d2		 test	 dl, dl
  00083	0f 84 8a 01 00
	00		 je	 $LN90@LoadInt_e@2
  00089	32 d1		 xor	 dl, cl
  0008b	88 55 e6	 mov	 BYTE PTR __k$[ebp+6], dl
  0008e	8a 50 07	 mov	 dl, BYTE PTR [eax+7]
  00091	84 d2		 test	 dl, dl
  00093	0f 84 75 01 00
	00		 je	 $LN89@LoadInt_e@2
  00099	32 d3		 xor	 dl, bl
  0009b	88 55 e7	 mov	 BYTE PTR __k$[ebp+7], dl
  0009e	8a 50 08	 mov	 dl, BYTE PTR [eax+8]
  000a1	84 d2		 test	 dl, dl
  000a3	0f 84 5f 01 00
	00		 je	 $LN88@LoadInt_e@2
  000a9	80 f2 ed	 xor	 dl, -19			; ffffffedH
  000ac	88 55 e8	 mov	 BYTE PTR __k$[ebp+8], dl
  000af	8a 50 09	 mov	 dl, BYTE PTR [eax+9]
  000b2	84 d2		 test	 dl, dl
  000b4	0f 84 48 01 00
	00		 je	 $LN87@LoadInt_e@2
  000ba	80 f2 ec	 xor	 dl, -20			; ffffffecH
  000bd	88 55 e9	 mov	 BYTE PTR __k$[ebp+9], dl
  000c0	8a 50 0a	 mov	 dl, BYTE PTR [eax+10]
  000c3	84 d2		 test	 dl, dl
  000c5	0f 84 32 01 00
	00		 je	 $LN86@LoadInt_e@2
  000cb	32 d1		 xor	 dl, cl
  000cd	88 55 ea	 mov	 BYTE PTR __k$[ebp+10], dl
  000d0	8a 50 0b	 mov	 dl, BYTE PTR [eax+11]
  000d3	84 d2		 test	 dl, dl
  000d5	0f 84 1d 01 00
	00		 je	 $LN85@LoadInt_e@2
  000db	32 d3		 xor	 dl, bl
  000dd	88 55 eb	 mov	 BYTE PTR __k$[ebp+11], dl
  000e0	8a 50 0c	 mov	 dl, BYTE PTR [eax+12]
  000e3	84 d2		 test	 dl, dl
  000e5	0f 84 07 01 00
	00		 je	 $LN84@LoadInt_e@2
  000eb	80 f2 ed	 xor	 dl, -19			; ffffffedH
  000ee	88 55 ec	 mov	 BYTE PTR __k$[ebp+12], dl
  000f1	8a 50 0d	 mov	 dl, BYTE PTR [eax+13]
  000f4	84 d2		 test	 dl, dl
  000f6	0f 84 f0 00 00
	00		 je	 $LN83@LoadInt_e@2
  000fc	80 f2 ec	 xor	 dl, -20			; ffffffecH
  000ff	88 55 ed	 mov	 BYTE PTR __k$[ebp+13], dl
  00102	8a 50 0e	 mov	 dl, BYTE PTR [eax+14]
  00105	84 d2		 test	 dl, dl
  00107	0f 84 da 00 00
	00		 je	 $LN82@LoadInt_e@2
  0010d	32 d1		 xor	 dl, cl
  0010f	88 55 ee	 mov	 BYTE PTR __k$[ebp+14], dl
  00112	8a 50 0f	 mov	 dl, BYTE PTR [eax+15]
  00115	84 d2		 test	 dl, dl
  00117	0f 84 c5 00 00
	00		 je	 $LN81@LoadInt_e@2
  0011d	32 d3		 xor	 dl, bl
  0011f	88 55 ef	 mov	 BYTE PTR __k$[ebp+15], dl
  00122	8a 50 10	 mov	 dl, BYTE PTR [eax+16]
  00125	84 d2		 test	 dl, dl
  00127	0f 84 af 00 00
	00		 je	 $LN80@LoadInt_e@2
  0012d	80 f2 ed	 xor	 dl, -19			; ffffffedH
  00130	88 55 f0	 mov	 BYTE PTR __k$[ebp+16], dl
  00133	8a 50 11	 mov	 dl, BYTE PTR [eax+17]
  00136	84 d2		 test	 dl, dl
  00138	0f 84 98 00 00
	00		 je	 $LN79@LoadInt_e@2
  0013e	80 f2 ec	 xor	 dl, -20			; ffffffecH
  00141	88 55 f1	 mov	 BYTE PTR __k$[ebp+17], dl
  00144	8a 50 12	 mov	 dl, BYTE PTR [eax+18]
  00147	84 d2		 test	 dl, dl
  00149	0f 84 82 00 00
	00		 je	 $LN78@LoadInt_e@2
  0014f	32 d1		 xor	 dl, cl
  00151	88 55 f2	 mov	 BYTE PTR __k$[ebp+18], dl
  00154	8a 50 13	 mov	 dl, BYTE PTR [eax+19]
  00157	84 d2		 test	 dl, dl
  00159	74 71		 je	 SHORT $LN77@LoadInt_e@2
  0015b	32 d3		 xor	 dl, bl
  0015d	88 55 f3	 mov	 BYTE PTR __k$[ebp+19], dl
  00160	8a 50 14	 mov	 dl, BYTE PTR [eax+20]
  00163	84 d2		 test	 dl, dl
  00165	74 5f		 je	 SHORT $LN76@LoadInt_e@2
  00167	80 f2 ed	 xor	 dl, -19			; ffffffedH
  0016a	80 78 15 00	 cmp	 BYTE PTR [eax+21], 0
  0016e	88 55 f4	 mov	 BYTE PTR __k$[ebp+20], dl
  00171	0f 84 c3 00 00
	00		 je	 $LN1@LoadInt_e@2
  00177	8a 50 16	 mov	 dl, BYTE PTR [eax+22]
  0017a	84 d2		 test	 dl, dl
  0017c	74 43		 je	 SHORT $LN74@LoadInt_e@2
  0017e	32 d1		 xor	 dl, cl
  00180	88 55 f6	 mov	 BYTE PTR __k$[ebp+22], dl
  00183	8a 50 17	 mov	 dl, BYTE PTR [eax+23]
  00186	84 d2		 test	 dl, dl
  00188	74 32		 je	 SHORT $LN73@LoadInt_e@2
  0018a	32 d3		 xor	 dl, bl
  0018c	88 55 f7	 mov	 BYTE PTR __k$[ebp+23], dl
  0018f	8a 50 18	 mov	 dl, BYTE PTR [eax+24]
  00192	84 d2		 test	 dl, dl
  00194	74 20		 je	 SHORT $LN72@LoadInt_e@2
  00196	8a 40 19	 mov	 al, BYTE PTR [eax+25]
  00199	80 f2 ed	 xor	 dl, -19			; ffffffedH
  0019c	88 55 f8	 mov	 BYTE PTR __k$[ebp+24], dl
  0019f	84 c0		 test	 al, al
  001a1	74 0a		 je	 SHORT $LN71@LoadInt_e@2
  001a3	34 ec		 xor	 al, -20			; ffffffecH
  001a5	88 45 f9	 mov	 BYTE PTR __k$[ebp+25], al
  001a8	e9 8d 00 00 00	 jmp	 $LN1@LoadInt_e@2
$LN71@LoadInt_e@2:
  001ad	c6 45 f9 ec	 mov	 BYTE PTR __k$[ebp+25], -20 ; ffffffecH
  001b1	e9 84 00 00 00	 jmp	 $LN1@LoadInt_e@2
$LN72@LoadInt_e@2:
  001b6	c6 45 f8 ed	 mov	 BYTE PTR __k$[ebp+24], -19 ; ffffffedH
  001ba	eb 7e		 jmp	 SHORT $LN1@LoadInt_e@2
$LN73@LoadInt_e@2:
  001bc	88 5d f7	 mov	 BYTE PTR __k$[ebp+23], bl
  001bf	eb 79		 jmp	 SHORT $LN1@LoadInt_e@2
$LN74@LoadInt_e@2:
  001c1	88 4d f6	 mov	 BYTE PTR __k$[ebp+22], cl
  001c4	eb 74		 jmp	 SHORT $LN1@LoadInt_e@2
$LN76@LoadInt_e@2:
  001c6	c6 45 f4 ed	 mov	 BYTE PTR __k$[ebp+20], -19 ; ffffffedH
  001ca	eb 6e		 jmp	 SHORT $LN1@LoadInt_e@2
$LN77@LoadInt_e@2:
  001cc	88 5d f3	 mov	 BYTE PTR __k$[ebp+19], bl
  001cf	eb 69		 jmp	 SHORT $LN1@LoadInt_e@2
$LN78@LoadInt_e@2:
  001d1	88 4d f2	 mov	 BYTE PTR __k$[ebp+18], cl
  001d4	eb 64		 jmp	 SHORT $LN1@LoadInt_e@2
$LN79@LoadInt_e@2:
  001d6	c6 45 f1 ec	 mov	 BYTE PTR __k$[ebp+17], -20 ; ffffffecH
  001da	eb 5e		 jmp	 SHORT $LN1@LoadInt_e@2
$LN80@LoadInt_e@2:
  001dc	c6 45 f0 ed	 mov	 BYTE PTR __k$[ebp+16], -19 ; ffffffedH
  001e0	eb 58		 jmp	 SHORT $LN1@LoadInt_e@2
$LN81@LoadInt_e@2:
  001e2	88 5d ef	 mov	 BYTE PTR __k$[ebp+15], bl
  001e5	eb 53		 jmp	 SHORT $LN1@LoadInt_e@2
$LN82@LoadInt_e@2:
  001e7	88 4d ee	 mov	 BYTE PTR __k$[ebp+14], cl
  001ea	eb 4e		 jmp	 SHORT $LN1@LoadInt_e@2
$LN83@LoadInt_e@2:
  001ec	c6 45 ed ec	 mov	 BYTE PTR __k$[ebp+13], -20 ; ffffffecH
  001f0	eb 48		 jmp	 SHORT $LN1@LoadInt_e@2
$LN84@LoadInt_e@2:
  001f2	c6 45 ec ed	 mov	 BYTE PTR __k$[ebp+12], -19 ; ffffffedH
  001f6	eb 42		 jmp	 SHORT $LN1@LoadInt_e@2
$LN85@LoadInt_e@2:
  001f8	88 5d eb	 mov	 BYTE PTR __k$[ebp+11], bl
  001fb	eb 3d		 jmp	 SHORT $LN1@LoadInt_e@2
$LN86@LoadInt_e@2:
  001fd	88 4d ea	 mov	 BYTE PTR __k$[ebp+10], cl
  00200	eb 38		 jmp	 SHORT $LN1@LoadInt_e@2
$LN87@LoadInt_e@2:
  00202	c6 45 e9 ec	 mov	 BYTE PTR __k$[ebp+9], -20 ; ffffffecH
  00206	eb 32		 jmp	 SHORT $LN1@LoadInt_e@2
$LN88@LoadInt_e@2:
  00208	c6 45 e8 ed	 mov	 BYTE PTR __k$[ebp+8], -19 ; ffffffedH
  0020c	eb 2c		 jmp	 SHORT $LN1@LoadInt_e@2
$LN89@LoadInt_e@2:
  0020e	88 5d e7	 mov	 BYTE PTR __k$[ebp+7], bl
  00211	eb 27		 jmp	 SHORT $LN1@LoadInt_e@2
$LN90@LoadInt_e@2:
  00213	88 4d e6	 mov	 BYTE PTR __k$[ebp+6], cl
  00216	eb 22		 jmp	 SHORT $LN1@LoadInt_e@2
$LN91@LoadInt_e@2:
  00218	c6 45 e5 ec	 mov	 BYTE PTR __k$[ebp+5], -20 ; ffffffecH
  0021c	eb 1c		 jmp	 SHORT $LN1@LoadInt_e@2
$LN92@LoadInt_e@2:
  0021e	c6 45 e4 ed	 mov	 BYTE PTR __k$[ebp+4], -19 ; ffffffedH
  00222	eb 16		 jmp	 SHORT $LN1@LoadInt_e@2
$LN93@LoadInt_e@2:
  00224	c6 45 e3 ea	 mov	 BYTE PTR __k$[ebp+3], -22 ; ffffffeaH
  00228	eb 10		 jmp	 SHORT $LN1@LoadInt_e@2
$LN94@LoadInt_e@2:
  0022a	c6 45 e2 eb	 mov	 BYTE PTR __k$[ebp+2], -21 ; ffffffebH
  0022e	eb 0a		 jmp	 SHORT $LN1@LoadInt_e@2
$LN95@LoadInt_e@2:
  00230	c6 45 e1 ec	 mov	 BYTE PTR __k$[ebp+1], -20 ; ffffffecH
  00234	eb 04		 jmp	 SHORT $LN1@LoadInt_e@2
$LN96@LoadInt_e@2:
  00236	c6 45 e0 ed	 mov	 BYTE PTR __k$[ebp], -19	; ffffffedH
$LN1@LoadInt_e@2:
  0023a	6a 05		 push	 5
  0023c	8d 45 e0	 lea	 eax, DWORD PTR __k$[ebp]
  0023f	c6 45 f5 00	 mov	 BYTE PTR __k$[ebp+21], 0
  00243	5a		 pop	 edx
$LL104@LoadInt_e@2:
  00244	81 30 ed ec eb
	ea		 xor	 DWORD PTR [eax], -353637139 ; eaebecedH
  0024a	83 c0 04	 add	 eax, 4
  0024d	4a		 dec	 edx
  0024e	75 f4		 jne	 SHORT $LL104@LoadInt_e@2

; 120  : 		return LoadInt(_k, i);

  00250	ff 75 0c	 push	 DWORD PTR _i$[ebp]
  00253	80 75 f4 ed	 xor	 BYTE PTR __k$[ebp+20], -19 ; ffffffedH
  00257	8d 45 e0	 lea	 eax, DWORD PTR __k$[ebp]
  0025a	50		 push	 eax
  0025b	8b ce		 mov	 ecx, esi
  0025d	ff 15 00 00 00
	00		 call	 DWORD PTR __imp_?LoadInt@ioINILoader@@QAEHPBDH@Z

; 121  : 	}

  00263	8b 4d fc	 mov	 ecx, DWORD PTR __$ArrayPad$[ebp]
  00266	5e		 pop	 esi
  00267	33 cd		 xor	 ecx, ebp
  00269	5b		 pop	 ebx
  0026a	e8 00 00 00 00	 call	 @__security_check_cookie@4
  0026f	c9		 leave
  00270	c2 08 00	 ret	 8
??$LoadInt_e@$0BG@@ioINILoader@@QAEHAAY0BG@$$CBDH@Z ENDP ; ioINILoader::LoadInt_e<22>
_TEXT	ENDS
PUBLIC	_this$GSCopy$
PUBLIC	__$ArrayPad$
PUBLIC	??$LoadString_e@$0O@@ioINILoader@@QAEXAAY0O@$$CBDAAY00$$CBDPADH@Z ; ioINILoader::LoadString_e<14>
; Function compile flags: /Ogsp
;	COMDAT ??$LoadString_e@$0O@@ioINILoader@@QAEXAAY0O@$$CBDAAY00$$CBDPADH@Z
_TEXT	SEGMENT
_this$GSCopy$ = -28					; size = 4
__k$ = -24						; size = 14
__$ArrayPad$ = -4					; size = 4
_k$ = 8							; size = 4
_d$ = 12						; size = 4
_b$ = 16						; size = 4
_i$ = 20						; size = 4
??$LoadString_e@$0O@@ioINILoader@@QAEXAAY0O@$$CBDAAY00$$CBDPADH@Z PROC ; ioINILoader::LoadString_e<14>, COMDAT
; _this$ = ecx

; 161  : 	{

  00000	55		 push	 ebp
  00001	8b ec		 mov	 ebp, esp
  00003	83 ec 1c	 sub	 esp, 28			; 0000001cH
  00006	a1 00 00 00 00	 mov	 eax, DWORD PTR ___security_cookie
  0000b	33 c5		 xor	 eax, ebp
  0000d	89 45 fc	 mov	 DWORD PTR __$ArrayPad$[ebp], eax
  00010	8b 45 08	 mov	 eax, DWORD PTR _k$[ebp]

; 162  : 		_ENCSTR(k, _k);

  00013	8a 10		 mov	 dl, BYTE PTR [eax]
  00015	56		 push	 esi
  00016	8b 75 0c	 mov	 esi, DWORD PTR _d$[ebp]
  00019	57		 push	 edi
  0001a	8b 7d 10	 mov	 edi, DWORD PTR _b$[ebp]
  0001d	89 4d e4	 mov	 DWORD PTR _this$GSCopy$[ebp], ecx
  00020	84 d2		 test	 dl, dl
  00022	0f 84 64 01 00
	00		 je	 $LN96@LoadString@2
  00028	80 f2 ed	 xor	 dl, -19			; ffffffedH
  0002b	88 55 e8	 mov	 BYTE PTR __k$[ebp], dl
  0002e	8a 50 01	 mov	 dl, BYTE PTR [eax+1]
  00031	84 d2		 test	 dl, dl
  00033	0f 84 4d 01 00
	00		 je	 $LN95@LoadString@2
  00039	80 f2 ec	 xor	 dl, -20			; ffffffecH
  0003c	88 55 e9	 mov	 BYTE PTR __k$[ebp+1], dl
  0003f	8a 50 02	 mov	 dl, BYTE PTR [eax+2]
  00042	84 d2		 test	 dl, dl
  00044	0f 84 36 01 00
	00		 je	 $LN94@LoadString@2
  0004a	b1 eb		 mov	 cl, -21			; ffffffebH
  0004c	32 d1		 xor	 dl, cl
  0004e	88 55 ea	 mov	 BYTE PTR __k$[ebp+2], dl
  00051	8a 50 03	 mov	 dl, BYTE PTR [eax+3]
  00054	84 d2		 test	 dl, dl
  00056	0f 84 1e 01 00
	00		 je	 $LN93@LoadString@2
  0005c	80 f2 ea	 xor	 dl, -22			; ffffffeaH
  0005f	88 55 eb	 mov	 BYTE PTR __k$[ebp+3], dl
  00062	8a 50 04	 mov	 dl, BYTE PTR [eax+4]
  00065	84 d2		 test	 dl, dl
  00067	0f 84 07 01 00
	00		 je	 $LN92@LoadString@2
  0006d	80 f2 ed	 xor	 dl, -19			; ffffffedH
  00070	88 55 ec	 mov	 BYTE PTR __k$[ebp+4], dl
  00073	8a 50 05	 mov	 dl, BYTE PTR [eax+5]
  00076	84 d2		 test	 dl, dl
  00078	0f 84 f0 00 00
	00		 je	 $LN91@LoadString@2
  0007e	80 f2 ec	 xor	 dl, -20			; ffffffecH
  00081	88 55 ed	 mov	 BYTE PTR __k$[ebp+5], dl
  00084	8a 50 06	 mov	 dl, BYTE PTR [eax+6]
  00087	84 d2		 test	 dl, dl
  00089	0f 84 da 00 00
	00		 je	 $LN90@LoadString@2
  0008f	32 d1		 xor	 dl, cl
  00091	88 55 ee	 mov	 BYTE PTR __k$[ebp+6], dl
  00094	8a 50 07	 mov	 dl, BYTE PTR [eax+7]
  00097	84 d2		 test	 dl, dl
  00099	0f 84 c4 00 00
	00		 je	 $LN89@LoadString@2
  0009f	80 f2 ea	 xor	 dl, -22			; ffffffeaH
  000a2	88 55 ef	 mov	 BYTE PTR __k$[ebp+7], dl
  000a5	8a 50 08	 mov	 dl, BYTE PTR [eax+8]
  000a8	84 d2		 test	 dl, dl
  000aa	0f 84 ad 00 00
	00		 je	 $LN88@LoadString@2
  000b0	80 f2 ed	 xor	 dl, -19			; ffffffedH
  000b3	88 55 f0	 mov	 BYTE PTR __k$[ebp+8], dl
  000b6	8a 50 09	 mov	 dl, BYTE PTR [eax+9]
  000b9	84 d2		 test	 dl, dl
  000bb	0f 84 96 00 00
	00		 je	 $LN87@LoadString@2
  000c1	80 f2 ec	 xor	 dl, -20			; ffffffecH
  000c4	88 55 f1	 mov	 BYTE PTR __k$[ebp+9], dl
  000c7	8a 50 0a	 mov	 dl, BYTE PTR [eax+10]
  000ca	84 d2		 test	 dl, dl
  000cc	0f 84 80 00 00
	00		 je	 $LN86@LoadString@2
  000d2	32 d1		 xor	 dl, cl
  000d4	88 55 f2	 mov	 BYTE PTR __k$[ebp+10], dl
  000d7	8a 50 0b	 mov	 dl, BYTE PTR [eax+11]
  000da	84 d2		 test	 dl, dl
  000dc	74 6e		 je	 SHORT $LN85@LoadString@2
  000de	80 f2 ea	 xor	 dl, -22			; ffffffeaH
  000e1	88 55 f3	 mov	 BYTE PTR __k$[ebp+11], dl
  000e4	8a 50 0c	 mov	 dl, BYTE PTR [eax+12]
  000e7	84 d2		 test	 dl, dl
  000e9	74 5b		 je	 SHORT $LN84@LoadString@2
  000eb	80 f2 ed	 xor	 dl, -19			; ffffffedH
  000ee	80 78 0d 00	 cmp	 BYTE PTR [eax+13], 0
  000f2	88 55 f4	 mov	 BYTE PTR __k$[ebp+12], dl
  000f5	0f 84 95 00 00
	00		 je	 $LN111@LoadString@2
  000fb	8a 50 0e	 mov	 dl, BYTE PTR [eax+14]
  000fe	84 d2		 test	 dl, dl
  00100	74 3f		 je	 SHORT $LN82@LoadString@2
  00102	32 d1		 xor	 dl, cl
  00104	88 55 f6	 mov	 BYTE PTR __k$[ebp+14], dl
  00107	8a 50 0f	 mov	 dl, BYTE PTR [eax+15]
  0010a	84 d2		 test	 dl, dl
  0010c	74 2d		 je	 SHORT $LN81@LoadString@2
  0010e	80 f2 ea	 xor	 dl, -22			; ffffffeaH
  00111	88 55 f7	 mov	 BYTE PTR __k$[ebp+15], dl
  00114	8a 50 10	 mov	 dl, BYTE PTR [eax+16]
  00117	84 d2		 test	 dl, dl
  00119	74 1a		 je	 SHORT $LN80@LoadString@2
  0011b	8a 40 11	 mov	 al, BYTE PTR [eax+17]
  0011e	80 f2 ed	 xor	 dl, -19			; ffffffedH
  00121	88 55 f8	 mov	 BYTE PTR __k$[ebp+16], dl
  00124	84 c0		 test	 al, al
  00126	74 07		 je	 SHORT $LN79@LoadString@2
  00128	34 ec		 xor	 al, -20			; ffffffecH
  0012a	88 45 f9	 mov	 BYTE PTR __k$[ebp+17], al
  0012d	eb 61		 jmp	 SHORT $LN111@LoadString@2
$LN79@LoadString@2:
  0012f	c6 45 f9 ec	 mov	 BYTE PTR __k$[ebp+17], -20 ; ffffffecH
  00133	eb 5b		 jmp	 SHORT $LN111@LoadString@2
$LN80@LoadString@2:
  00135	c6 45 f8 ed	 mov	 BYTE PTR __k$[ebp+16], -19 ; ffffffedH
  00139	eb 55		 jmp	 SHORT $LN111@LoadString@2
$LN81@LoadString@2:
  0013b	c6 45 f7 ea	 mov	 BYTE PTR __k$[ebp+15], -22 ; ffffffeaH
  0013f	eb 4f		 jmp	 SHORT $LN111@LoadString@2
$LN82@LoadString@2:
  00141	88 4d f6	 mov	 BYTE PTR __k$[ebp+14], cl
  00144	eb 4a		 jmp	 SHORT $LN111@LoadString@2
$LN84@LoadString@2:
  00146	c6 45 f4 ed	 mov	 BYTE PTR __k$[ebp+12], -19 ; ffffffedH
  0014a	eb 44		 jmp	 SHORT $LN111@LoadString@2
$LN85@LoadString@2:
  0014c	c6 45 f3 ea	 mov	 BYTE PTR __k$[ebp+11], -22 ; ffffffeaH
  00150	eb 3e		 jmp	 SHORT $LN111@LoadString@2
$LN86@LoadString@2:
  00152	88 4d f2	 mov	 BYTE PTR __k$[ebp+10], cl
  00155	eb 39		 jmp	 SHORT $LN111@LoadString@2
$LN87@LoadString@2:
  00157	c6 45 f1 ec	 mov	 BYTE PTR __k$[ebp+9], -20 ; ffffffecH
  0015b	eb 33		 jmp	 SHORT $LN111@LoadString@2
$LN88@LoadString@2:
  0015d	c6 45 f0 ed	 mov	 BYTE PTR __k$[ebp+8], -19 ; ffffffedH
  00161	eb 2d		 jmp	 SHORT $LN111@LoadString@2
$LN89@LoadString@2:
  00163	c6 45 ef ea	 mov	 BYTE PTR __k$[ebp+7], -22 ; ffffffeaH
  00167	eb 27		 jmp	 SHORT $LN111@LoadString@2
$LN90@LoadString@2:
  00169	88 4d ee	 mov	 BYTE PTR __k$[ebp+6], cl
  0016c	eb 22		 jmp	 SHORT $LN111@LoadString@2
$LN91@LoadString@2:
  0016e	c6 45 ed ec	 mov	 BYTE PTR __k$[ebp+5], -20 ; ffffffecH
  00172	eb 1c		 jmp	 SHORT $LN111@LoadString@2
$LN92@LoadString@2:
  00174	c6 45 ec ed	 mov	 BYTE PTR __k$[ebp+4], -19 ; ffffffedH
  00178	eb 16		 jmp	 SHORT $LN111@LoadString@2
$LN93@LoadString@2:
  0017a	c6 45 eb ea	 mov	 BYTE PTR __k$[ebp+3], -22 ; ffffffeaH
  0017e	eb 10		 jmp	 SHORT $LN111@LoadString@2
$LN94@LoadString@2:
  00180	c6 45 ea eb	 mov	 BYTE PTR __k$[ebp+2], -21 ; ffffffebH
  00184	eb 0a		 jmp	 SHORT $LN111@LoadString@2
$LN95@LoadString@2:
  00186	c6 45 e9 ec	 mov	 BYTE PTR __k$[ebp+1], -20 ; ffffffecH
  0018a	eb 04		 jmp	 SHORT $LN111@LoadString@2
$LN96@LoadString@2:
  0018c	c6 45 e8 ed	 mov	 BYTE PTR __k$[ebp], -19	; ffffffedH
$LN111@LoadString@2:
  00190	6a 03		 push	 3
  00192	8d 45 e8	 lea	 eax, DWORD PTR __k$[ebp]
  00195	c6 45 f5 00	 mov	 BYTE PTR __k$[ebp+13], 0
  00199	5a		 pop	 edx
$LL104@LoadString@2:
  0019a	81 30 ed ec eb
	ea		 xor	 DWORD PTR [eax], -353637139 ; eaebecedH
  001a0	83 c0 04	 add	 eax, 4
  001a3	4a		 dec	 edx
  001a4	75 f4		 jne	 SHORT $LL104@LoadString@2

; 163  : 		LoadString(_k, d, b, i);

  001a6	ff 75 14	 push	 DWORD PTR _i$[ebp]
  001a9	8b 4d e4	 mov	 ecx, DWORD PTR _this$GSCopy$[ebp]
  001ac	80 75 f4 ed	 xor	 BYTE PTR __k$[ebp+12], -19 ; ffffffedH
  001b0	57		 push	 edi
  001b1	56		 push	 esi
  001b2	8d 45 e8	 lea	 eax, DWORD PTR __k$[ebp]
  001b5	50		 push	 eax
  001b6	ff 15 00 00 00
	00		 call	 DWORD PTR __imp_?LoadStringA@ioINILoader@@QAEXPBD0PADH@Z

; 164  : 	}

  001bc	8b 4d fc	 mov	 ecx, DWORD PTR __$ArrayPad$[ebp]
  001bf	5f		 pop	 edi
  001c0	33 cd		 xor	 ecx, ebp
  001c2	5e		 pop	 esi
  001c3	e8 00 00 00 00	 call	 @__security_check_cookie@4
  001c8	c9		 leave
  001c9	c2 10 00	 ret	 16			; 00000010H
??$LoadString_e@$0O@@ioINILoader@@QAEXAAY0O@$$CBDAAY00$$CBDPADH@Z ENDP ; ioINILoader::LoadString_e<14>
_TEXT	ENDS
PUBLIC	__$ArrayPad$
PUBLIC	??$LoadFloat_e@$0N@@ioINILoader@@QAEMAAY0N@$$CBDM@Z ; ioINILoader::LoadFloat_e<13>
EXTRN	__imp_?LoadFloat@ioINILoader@@QAEMPBDM@Z:PROC
; Function compile flags: /Ogsp
;	COMDAT ??$LoadFloat_e@$0N@@ioINILoader@@QAEMAAY0N@$$CBDM@Z
_TEXT	SEGMENT
__k$ = -24						; size = 13
__$ArrayPad$ = -4					; size = 4
_k$ = 8							; size = 4
_f$ = 12						; size = 4
??$LoadFloat_e@$0N@@ioINILoader@@QAEMAAY0N@$$CBDM@Z PROC ; ioINILoader::LoadFloat_e<13>, COMDAT
; _this$ = ecx

; 135  : 	{

  00000	55		 push	 ebp
  00001	8b ec		 mov	 ebp, esp
  00003	83 ec 18	 sub	 esp, 24			; 00000018H
  00006	a1 00 00 00 00	 mov	 eax, DWORD PTR ___security_cookie
  0000b	33 c5		 xor	 eax, ebp
  0000d	89 45 fc	 mov	 DWORD PTR __$ArrayPad$[ebp], eax
  00010	8b 45 08	 mov	 eax, DWORD PTR _k$[ebp]

; 136  : 		_ENCSTR(k, _k);

  00013	8a 10		 mov	 dl, BYTE PTR [eax]
  00015	56		 push	 esi
  00016	8b f1		 mov	 esi, ecx
  00018	84 d2		 test	 dl, dl
  0001a	0f 84 4d 01 00
	00		 je	 $LN96@LoadFloat_
  00020	80 f2 ed	 xor	 dl, -19			; ffffffedH
  00023	88 55 e8	 mov	 BYTE PTR __k$[ebp], dl
  00026	8a 50 01	 mov	 dl, BYTE PTR [eax+1]
  00029	84 d2		 test	 dl, dl
  0002b	0f 84 36 01 00
	00		 je	 $LN95@LoadFloat_
  00031	b1 ec		 mov	 cl, -20			; ffffffecH
  00033	32 d1		 xor	 dl, cl
  00035	88 55 e9	 mov	 BYTE PTR __k$[ebp+1], dl
  00038	8a 50 02	 mov	 dl, BYTE PTR [eax+2]
  0003b	84 d2		 test	 dl, dl
  0003d	0f 84 1e 01 00
	00		 je	 $LN94@LoadFloat_
  00043	80 f2 eb	 xor	 dl, -21			; ffffffebH
  00046	88 55 ea	 mov	 BYTE PTR __k$[ebp+2], dl
  00049	8a 50 03	 mov	 dl, BYTE PTR [eax+3]
  0004c	84 d2		 test	 dl, dl
  0004e	0f 84 07 01 00
	00		 je	 $LN93@LoadFloat_
  00054	80 f2 ea	 xor	 dl, -22			; ffffffeaH
  00057	88 55 eb	 mov	 BYTE PTR __k$[ebp+3], dl
  0005a	8a 50 04	 mov	 dl, BYTE PTR [eax+4]
  0005d	84 d2		 test	 dl, dl
  0005f	0f 84 f0 00 00
	00		 je	 $LN92@LoadFloat_
  00065	80 f2 ed	 xor	 dl, -19			; ffffffedH
  00068	88 55 ec	 mov	 BYTE PTR __k$[ebp+4], dl
  0006b	8a 50 05	 mov	 dl, BYTE PTR [eax+5]
  0006e	84 d2		 test	 dl, dl
  00070	0f 84 da 00 00
	00		 je	 $LN91@LoadFloat_
  00076	32 d1		 xor	 dl, cl
  00078	88 55 ed	 mov	 BYTE PTR __k$[ebp+5], dl
  0007b	8a 50 06	 mov	 dl, BYTE PTR [eax+6]
  0007e	84 d2		 test	 dl, dl
  00080	0f 84 c4 00 00
	00		 je	 $LN90@LoadFloat_
  00086	80 f2 eb	 xor	 dl, -21			; ffffffebH
  00089	88 55 ee	 mov	 BYTE PTR __k$[ebp+6], dl
  0008c	8a 50 07	 mov	 dl, BYTE PTR [eax+7]
  0008f	84 d2		 test	 dl, dl
  00091	0f 84 ad 00 00
	00		 je	 $LN89@LoadFloat_
  00097	80 f2 ea	 xor	 dl, -22			; ffffffeaH
  0009a	88 55 ef	 mov	 BYTE PTR __k$[ebp+7], dl
  0009d	8a 50 08	 mov	 dl, BYTE PTR [eax+8]
  000a0	84 d2		 test	 dl, dl
  000a2	0f 84 96 00 00
	00		 je	 $LN88@LoadFloat_
  000a8	80 f2 ed	 xor	 dl, -19			; ffffffedH
  000ab	88 55 f0	 mov	 BYTE PTR __k$[ebp+8], dl
  000ae	8a 50 09	 mov	 dl, BYTE PTR [eax+9]
  000b1	84 d2		 test	 dl, dl
  000b3	0f 84 80 00 00
	00		 je	 $LN87@LoadFloat_
  000b9	32 d1		 xor	 dl, cl
  000bb	88 55 f1	 mov	 BYTE PTR __k$[ebp+9], dl
  000be	8a 50 0a	 mov	 dl, BYTE PTR [eax+10]
  000c1	84 d2		 test	 dl, dl
  000c3	74 6e		 je	 SHORT $LN86@LoadFloat_
  000c5	80 f2 eb	 xor	 dl, -21			; ffffffebH
  000c8	88 55 f2	 mov	 BYTE PTR __k$[ebp+10], dl
  000cb	8a 50 0b	 mov	 dl, BYTE PTR [eax+11]
  000ce	84 d2		 test	 dl, dl
  000d0	74 5b		 je	 SHORT $LN85@LoadFloat_
  000d2	80 f2 ea	 xor	 dl, -22			; ffffffeaH
  000d5	80 78 0c 00	 cmp	 BYTE PTR [eax+12], 0
  000d9	88 55 f3	 mov	 BYTE PTR __k$[ebp+11], dl
  000dc	0f 84 8f 00 00
	00		 je	 $LN1@LoadFloat_
  000e2	8a 50 0d	 mov	 dl, BYTE PTR [eax+13]
  000e5	84 d2		 test	 dl, dl
  000e7	74 3f		 je	 SHORT $LN83@LoadFloat_
  000e9	32 d1		 xor	 dl, cl
  000eb	88 55 f5	 mov	 BYTE PTR __k$[ebp+13], dl
  000ee	8a 50 0e	 mov	 dl, BYTE PTR [eax+14]
  000f1	84 d2		 test	 dl, dl
  000f3	74 2d		 je	 SHORT $LN82@LoadFloat_
  000f5	80 f2 eb	 xor	 dl, -21			; ffffffebH
  000f8	88 55 f6	 mov	 BYTE PTR __k$[ebp+14], dl
  000fb	8a 50 0f	 mov	 dl, BYTE PTR [eax+15]
  000fe	84 d2		 test	 dl, dl
  00100	74 1a		 je	 SHORT $LN81@LoadFloat_
  00102	8a 40 10	 mov	 al, BYTE PTR [eax+16]
  00105	80 f2 ea	 xor	 dl, -22			; ffffffeaH
  00108	88 55 f7	 mov	 BYTE PTR __k$[ebp+15], dl
  0010b	84 c0		 test	 al, al
  0010d	74 07		 je	 SHORT $LN80@LoadFloat_
  0010f	34 ed		 xor	 al, -19			; ffffffedH
  00111	88 45 f8	 mov	 BYTE PTR __k$[ebp+16], al
  00114	eb 5b		 jmp	 SHORT $LN1@LoadFloat_
$LN80@LoadFloat_:
  00116	c6 45 f8 ed	 mov	 BYTE PTR __k$[ebp+16], -19 ; ffffffedH
  0011a	eb 55		 jmp	 SHORT $LN1@LoadFloat_
$LN81@LoadFloat_:
  0011c	c6 45 f7 ea	 mov	 BYTE PTR __k$[ebp+15], -22 ; ffffffeaH
  00120	eb 4f		 jmp	 SHORT $LN1@LoadFloat_
$LN82@LoadFloat_:
  00122	c6 45 f6 eb	 mov	 BYTE PTR __k$[ebp+14], -21 ; ffffffebH
  00126	eb 49		 jmp	 SHORT $LN1@LoadFloat_
$LN83@LoadFloat_:
  00128	88 4d f5	 mov	 BYTE PTR __k$[ebp+13], cl
  0012b	eb 44		 jmp	 SHORT $LN1@LoadFloat_
$LN85@LoadFloat_:
  0012d	c6 45 f3 ea	 mov	 BYTE PTR __k$[ebp+11], -22 ; ffffffeaH
  00131	eb 3e		 jmp	 SHORT $LN1@LoadFloat_
$LN86@LoadFloat_:
  00133	c6 45 f2 eb	 mov	 BYTE PTR __k$[ebp+10], -21 ; ffffffebH
  00137	eb 38		 jmp	 SHORT $LN1@LoadFloat_
$LN87@LoadFloat_:
  00139	88 4d f1	 mov	 BYTE PTR __k$[ebp+9], cl
  0013c	eb 33		 jmp	 SHORT $LN1@LoadFloat_
$LN88@LoadFloat_:
  0013e	c6 45 f0 ed	 mov	 BYTE PTR __k$[ebp+8], -19 ; ffffffedH
  00142	eb 2d		 jmp	 SHORT $LN1@LoadFloat_
$LN89@LoadFloat_:
  00144	c6 45 ef ea	 mov	 BYTE PTR __k$[ebp+7], -22 ; ffffffeaH
  00148	eb 27		 jmp	 SHORT $LN1@LoadFloat_
$LN90@LoadFloat_:
  0014a	c6 45 ee eb	 mov	 BYTE PTR __k$[ebp+6], -21 ; ffffffebH
  0014e	eb 21		 jmp	 SHORT $LN1@LoadFloat_
$LN91@LoadFloat_:
  00150	88 4d ed	 mov	 BYTE PTR __k$[ebp+5], cl
  00153	eb 1c		 jmp	 SHORT $LN1@LoadFloat_
$LN92@LoadFloat_:
  00155	c6 45 ec ed	 mov	 BYTE PTR __k$[ebp+4], -19 ; ffffffedH
  00159	eb 16		 jmp	 SHORT $LN1@LoadFloat_
$LN93@LoadFloat_:
  0015b	c6 45 eb ea	 mov	 BYTE PTR __k$[ebp+3], -22 ; ffffffeaH
  0015f	eb 10		 jmp	 SHORT $LN1@LoadFloat_
$LN94@LoadFloat_:
  00161	c6 45 ea eb	 mov	 BYTE PTR __k$[ebp+2], -21 ; ffffffebH
  00165	eb 0a		 jmp	 SHORT $LN1@LoadFloat_
$LN95@LoadFloat_:
  00167	c6 45 e9 ec	 mov	 BYTE PTR __k$[ebp+1], -20 ; ffffffecH
  0016b	eb 04		 jmp	 SHORT $LN1@LoadFloat_
$LN96@LoadFloat_:
  0016d	c6 45 e8 ed	 mov	 BYTE PTR __k$[ebp], -19	; ffffffedH
$LN1@LoadFloat_:
  00171	6a 03		 push	 3
  00173	8d 45 e8	 lea	 eax, DWORD PTR __k$[ebp]
  00176	c6 45 f4 00	 mov	 BYTE PTR __k$[ebp+12], 0
  0017a	5a		 pop	 edx
$LL104@LoadFloat_:
  0017b	81 30 ed ec eb
	ea		 xor	 DWORD PTR [eax], -353637139 ; eaebecedH
  00181	83 c0 04	 add	 eax, 4
  00184	4a		 dec	 edx
  00185	75 f4		 jne	 SHORT $LL104@LoadFloat_

; 137  : 		return LoadFloat(_k, f);

  00187	f3 0f 10 45 0c	 movss	 xmm0, DWORD PTR _f$[ebp]
  0018c	51		 push	 ecx
  0018d	8d 45 e8	 lea	 eax, DWORD PTR __k$[ebp]
  00190	f3 0f 11 04 24	 movss	 DWORD PTR [esp], xmm0
  00195	50		 push	 eax
  00196	8b ce		 mov	 ecx, esi
  00198	ff 15 00 00 00
	00		 call	 DWORD PTR __imp_?LoadFloat@ioINILoader@@QAEMPBDM@Z

; 138  : 	}

  0019e	8b 4d fc	 mov	 ecx, DWORD PTR __$ArrayPad$[ebp]
  001a1	33 cd		 xor	 ecx, ebp
  001a3	5e		 pop	 esi
  001a4	e8 00 00 00 00	 call	 @__security_check_cookie@4
  001a9	c9		 leave
  001aa	c2 08 00	 ret	 8
??$LoadFloat_e@$0N@@ioINILoader@@QAEMAAY0N@$$CBDM@Z ENDP ; ioINILoader::LoadFloat_e<13>
_TEXT	ENDS
PUBLIC	__$ArrayPad$
PUBLIC	??$LoadFloat_e@$0O@@ioINILoader@@QAEMAAY0O@$$CBDM@Z ; ioINILoader::LoadFloat_e<14>
; Function compile flags: /Ogsp
;	COMDAT ??$LoadFloat_e@$0O@@ioINILoader@@QAEMAAY0O@$$CBDM@Z
_TEXT	SEGMENT
__k$ = -24						; size = 14
__$ArrayPad$ = -4					; size = 4
_k$ = 8							; size = 4
_f$ = 12						; size = 4
??$LoadFloat_e@$0O@@ioINILoader@@QAEMAAY0O@$$CBDM@Z PROC ; ioINILoader::LoadFloat_e<14>, COMDAT
; _this$ = ecx

; 135  : 	{

  00000	55		 push	 ebp
  00001	8b ec		 mov	 ebp, esp
  00003	83 ec 18	 sub	 esp, 24			; 00000018H
  00006	a1 00 00 00 00	 mov	 eax, DWORD PTR ___security_cookie
  0000b	33 c5		 xor	 eax, ebp
  0000d	89 45 fc	 mov	 DWORD PTR __$ArrayPad$[ebp], eax
  00010	8b 45 08	 mov	 eax, DWORD PTR _k$[ebp]

; 136  : 		_ENCSTR(k, _k);

  00013	8a 10		 mov	 dl, BYTE PTR [eax]
  00015	56		 push	 esi
  00016	8b f1		 mov	 esi, ecx
  00018	84 d2		 test	 dl, dl
  0001a	0f 84 64 01 00
	00		 je	 $LN96@LoadFloat_@2
  00020	80 f2 ed	 xor	 dl, -19			; ffffffedH
  00023	88 55 e8	 mov	 BYTE PTR __k$[ebp], dl
  00026	8a 50 01	 mov	 dl, BYTE PTR [eax+1]
  00029	84 d2		 test	 dl, dl
  0002b	0f 84 4d 01 00
	00		 je	 $LN95@LoadFloat_@2
  00031	80 f2 ec	 xor	 dl, -20			; ffffffecH
  00034	88 55 e9	 mov	 BYTE PTR __k$[ebp+1], dl
  00037	8a 50 02	 mov	 dl, BYTE PTR [eax+2]
  0003a	84 d2		 test	 dl, dl
  0003c	0f 84 36 01 00
	00		 je	 $LN94@LoadFloat_@2
  00042	b1 eb		 mov	 cl, -21			; ffffffebH
  00044	32 d1		 xor	 dl, cl
  00046	88 55 ea	 mov	 BYTE PTR __k$[ebp+2], dl
  00049	8a 50 03	 mov	 dl, BYTE PTR [eax+3]
  0004c	84 d2		 test	 dl, dl
  0004e	0f 84 1e 01 00
	00		 je	 $LN93@LoadFloat_@2
  00054	80 f2 ea	 xor	 dl, -22			; ffffffeaH
  00057	88 55 eb	 mov	 BYTE PTR __k$[ebp+3], dl
  0005a	8a 50 04	 mov	 dl, BYTE PTR [eax+4]
  0005d	84 d2		 test	 dl, dl
  0005f	0f 84 07 01 00
	00		 je	 $LN92@LoadFloat_@2
  00065	80 f2 ed	 xor	 dl, -19			; ffffffedH
  00068	88 55 ec	 mov	 BYTE PTR __k$[ebp+4], dl
  0006b	8a 50 05	 mov	 dl, BYTE PTR [eax+5]
  0006e	84 d2		 test	 dl, dl
  00070	0f 84 f0 00 00
	00		 je	 $LN91@LoadFloat_@2
  00076	80 f2 ec	 xor	 dl, -20			; ffffffecH
  00079	88 55 ed	 mov	 BYTE PTR __k$[ebp+5], dl
  0007c	8a 50 06	 mov	 dl, BYTE PTR [eax+6]
  0007f	84 d2		 test	 dl, dl
  00081	0f 84 da 00 00
	00		 je	 $LN90@LoadFloat_@2
  00087	32 d1		 xor	 dl, cl
  00089	88 55 ee	 mov	 BYTE PTR __k$[ebp+6], dl
  0008c	8a 50 07	 mov	 dl, BYTE PTR [eax+7]
  0008f	84 d2		 test	 dl, dl
  00091	0f 84 c4 00 00
	00		 je	 $LN89@LoadFloat_@2
  00097	80 f2 ea	 xor	 dl, -22			; ffffffeaH
  0009a	88 55 ef	 mov	 BYTE PTR __k$[ebp+7], dl
  0009d	8a 50 08	 mov	 dl, BYTE PTR [eax+8]
  000a0	84 d2		 test	 dl, dl
  000a2	0f 84 ad 00 00
	00		 je	 $LN88@LoadFloat_@2
  000a8	80 f2 ed	 xor	 dl, -19			; ffffffedH
  000ab	88 55 f0	 mov	 BYTE PTR __k$[ebp+8], dl
  000ae	8a 50 09	 mov	 dl, BYTE PTR [eax+9]
  000b1	84 d2		 test	 dl, dl
  000b3	0f 84 96 00 00
	00		 je	 $LN87@LoadFloat_@2
  000b9	80 f2 ec	 xor	 dl, -20			; ffffffecH
  000bc	88 55 f1	 mov	 BYTE PTR __k$[ebp+9], dl
  000bf	8a 50 0a	 mov	 dl, BYTE PTR [eax+10]
  000c2	84 d2		 test	 dl, dl
  000c4	0f 84 80 00 00
	00		 je	 $LN86@LoadFloat_@2
  000ca	32 d1		 xor	 dl, cl
  000cc	88 55 f2	 mov	 BYTE PTR __k$[ebp+10], dl
  000cf	8a 50 0b	 mov	 dl, BYTE PTR [eax+11]
  000d2	84 d2		 test	 dl, dl
  000d4	74 6e		 je	 SHORT $LN85@LoadFloat_@2
  000d6	80 f2 ea	 xor	 dl, -22			; ffffffeaH
  000d9	88 55 f3	 mov	 BYTE PTR __k$[ebp+11], dl
  000dc	8a 50 0c	 mov	 dl, BYTE PTR [eax+12]
  000df	84 d2		 test	 dl, dl
  000e1	74 5b		 je	 SHORT $LN84@LoadFloat_@2
  000e3	80 f2 ed	 xor	 dl, -19			; ffffffedH
  000e6	80 78 0d 00	 cmp	 BYTE PTR [eax+13], 0
  000ea	88 55 f4	 mov	 BYTE PTR __k$[ebp+12], dl
  000ed	0f 84 95 00 00
	00		 je	 $LN1@LoadFloat_@2
  000f3	8a 50 0e	 mov	 dl, BYTE PTR [eax+14]
  000f6	84 d2		 test	 dl, dl
  000f8	74 3f		 je	 SHORT $LN82@LoadFloat_@2
  000fa	32 d1		 xor	 dl, cl
  000fc	88 55 f6	 mov	 BYTE PTR __k$[ebp+14], dl
  000ff	8a 50 0f	 mov	 dl, BYTE PTR [eax+15]
  00102	84 d2		 test	 dl, dl
  00104	74 2d		 je	 SHORT $LN81@LoadFloat_@2
  00106	80 f2 ea	 xor	 dl, -22			; ffffffeaH
  00109	88 55 f7	 mov	 BYTE PTR __k$[ebp+15], dl
  0010c	8a 50 10	 mov	 dl, BYTE PTR [eax+16]
  0010f	84 d2		 test	 dl, dl
  00111	74 1a		 je	 SHORT $LN80@LoadFloat_@2
  00113	8a 40 11	 mov	 al, BYTE PTR [eax+17]
  00116	80 f2 ed	 xor	 dl, -19			; ffffffedH
  00119	88 55 f8	 mov	 BYTE PTR __k$[ebp+16], dl
  0011c	84 c0		 test	 al, al
  0011e	74 07		 je	 SHORT $LN79@LoadFloat_@2
  00120	34 ec		 xor	 al, -20			; ffffffecH
  00122	88 45 f9	 mov	 BYTE PTR __k$[ebp+17], al
  00125	eb 61		 jmp	 SHORT $LN1@LoadFloat_@2
$LN79@LoadFloat_@2:
  00127	c6 45 f9 ec	 mov	 BYTE PTR __k$[ebp+17], -20 ; ffffffecH
  0012b	eb 5b		 jmp	 SHORT $LN1@LoadFloat_@2
$LN80@LoadFloat_@2:
  0012d	c6 45 f8 ed	 mov	 BYTE PTR __k$[ebp+16], -19 ; ffffffedH
  00131	eb 55		 jmp	 SHORT $LN1@LoadFloat_@2
$LN81@LoadFloat_@2:
  00133	c6 45 f7 ea	 mov	 BYTE PTR __k$[ebp+15], -22 ; ffffffeaH
  00137	eb 4f		 jmp	 SHORT $LN1@LoadFloat_@2
$LN82@LoadFloat_@2:
  00139	88 4d f6	 mov	 BYTE PTR __k$[ebp+14], cl
  0013c	eb 4a		 jmp	 SHORT $LN1@LoadFloat_@2
$LN84@LoadFloat_@2:
  0013e	c6 45 f4 ed	 mov	 BYTE PTR __k$[ebp+12], -19 ; ffffffedH
  00142	eb 44		 jmp	 SHORT $LN1@LoadFloat_@2
$LN85@LoadFloat_@2:
  00144	c6 45 f3 ea	 mov	 BYTE PTR __k$[ebp+11], -22 ; ffffffeaH
  00148	eb 3e		 jmp	 SHORT $LN1@LoadFloat_@2
$LN86@LoadFloat_@2:
  0014a	88 4d f2	 mov	 BYTE PTR __k$[ebp+10], cl
  0014d	eb 39		 jmp	 SHORT $LN1@LoadFloat_@2
$LN87@LoadFloat_@2:
  0014f	c6 45 f1 ec	 mov	 BYTE PTR __k$[ebp+9], -20 ; ffffffecH
  00153	eb 33		 jmp	 SHORT $LN1@LoadFloat_@2
$LN88@LoadFloat_@2:
  00155	c6 45 f0 ed	 mov	 BYTE PTR __k$[ebp+8], -19 ; ffffffedH
  00159	eb 2d		 jmp	 SHORT $LN1@LoadFloat_@2
$LN89@LoadFloat_@2:
  0015b	c6 45 ef ea	 mov	 BYTE PTR __k$[ebp+7], -22 ; ffffffeaH
  0015f	eb 27		 jmp	 SHORT $LN1@LoadFloat_@2
$LN90@LoadFloat_@2:
  00161	88 4d ee	 mov	 BYTE PTR __k$[ebp+6], cl
  00164	eb 22		 jmp	 SHORT $LN1@LoadFloat_@2
$LN91@LoadFloat_@2:
  00166	c6 45 ed ec	 mov	 BYTE PTR __k$[ebp+5], -20 ; ffffffecH
  0016a	eb 1c		 jmp	 SHORT $LN1@LoadFloat_@2
$LN92@LoadFloat_@2:
  0016c	c6 45 ec ed	 mov	 BYTE PTR __k$[ebp+4], -19 ; ffffffedH
  00170	eb 16		 jmp	 SHORT $LN1@LoadFloat_@2
$LN93@LoadFloat_@2:
  00172	c6 45 eb ea	 mov	 BYTE PTR __k$[ebp+3], -22 ; ffffffeaH
  00176	eb 10		 jmp	 SHORT $LN1@LoadFloat_@2
$LN94@LoadFloat_@2:
  00178	c6 45 ea eb	 mov	 BYTE PTR __k$[ebp+2], -21 ; ffffffebH
  0017c	eb 0a		 jmp	 SHORT $LN1@LoadFloat_@2
$LN95@LoadFloat_@2:
  0017e	c6 45 e9 ec	 mov	 BYTE PTR __k$[ebp+1], -20 ; ffffffecH
  00182	eb 04		 jmp	 SHORT $LN1@LoadFloat_@2
$LN96@LoadFloat_@2:
  00184	c6 45 e8 ed	 mov	 BYTE PTR __k$[ebp], -19	; ffffffedH
$LN1@LoadFloat_@2:
  00188	6a 03		 push	 3
  0018a	8d 45 e8	 lea	 eax, DWORD PTR __k$[ebp]
  0018d	c6 45 f5 00	 mov	 BYTE PTR __k$[ebp+13], 0
  00191	5a		 pop	 edx
$LL104@LoadFloat_@2:
  00192	81 30 ed ec eb
	ea		 xor	 DWORD PTR [eax], -353637139 ; eaebecedH
  00198	83 c0 04	 add	 eax, 4
  0019b	4a		 dec	 edx
  0019c	75 f4		 jne	 SHORT $LL104@LoadFloat_@2

; 137  : 		return LoadFloat(_k, f);

  0019e	f3 0f 10 45 0c	 movss	 xmm0, DWORD PTR _f$[ebp]
  001a3	80 75 f4 ed	 xor	 BYTE PTR __k$[ebp+12], -19 ; ffffffedH
  001a7	51		 push	 ecx
  001a8	8d 45 e8	 lea	 eax, DWORD PTR __k$[ebp]
  001ab	f3 0f 11 04 24	 movss	 DWORD PTR [esp], xmm0
  001b0	50		 push	 eax
  001b1	8b ce		 mov	 ecx, esi
  001b3	ff 15 00 00 00
	00		 call	 DWORD PTR __imp_?LoadFloat@ioINILoader@@QAEMPBDM@Z

; 138  : 	}

  001b9	8b 4d fc	 mov	 ecx, DWORD PTR __$ArrayPad$[ebp]
  001bc	33 cd		 xor	 ecx, ebp
  001be	5e		 pop	 esi
  001bf	e8 00 00 00 00	 call	 @__security_check_cookie@4
  001c4	c9		 leave
  001c5	c2 08 00	 ret	 8
??$LoadFloat_e@$0O@@ioINILoader@@QAEMAAY0O@$$CBDM@Z ENDP ; ioINILoader::LoadFloat_e<14>
_TEXT	ENDS
PUBLIC	__$ArrayPad$
PUBLIC	??$LoadInt_e@$0BA@@ioINILoader@@QAEHAAY0BA@$$CBDH@Z ; ioINILoader::LoadInt_e<16>
; Function compile flags: /Ogsp
;	COMDAT ??$LoadInt_e@$0BA@@ioINILoader@@QAEHAAY0BA@$$CBDH@Z
_TEXT	SEGMENT
__k$ = -24						; size = 16
__$ArrayPad$ = -4					; size = 4
_k$ = 8							; size = 4
_i$ = 12						; size = 4
??$LoadInt_e@$0BA@@ioINILoader@@QAEHAAY0BA@$$CBDH@Z PROC ; ioINILoader::LoadInt_e<16>, COMDAT
; _this$ = ecx

; 118  : 	{

  00000	55		 push	 ebp
  00001	8b ec		 mov	 ebp, esp
  00003	83 ec 18	 sub	 esp, 24			; 00000018H
  00006	a1 00 00 00 00	 mov	 eax, DWORD PTR ___security_cookie
  0000b	33 c5		 xor	 eax, ebp
  0000d	89 45 fc	 mov	 DWORD PTR __$ArrayPad$[ebp], eax
  00010	8b 45 08	 mov	 eax, DWORD PTR _k$[ebp]

; 119  : 		_ENCSTR(k, _k);

  00013	8a 10		 mov	 dl, BYTE PTR [eax]
  00015	56		 push	 esi
  00016	8b f1		 mov	 esi, ecx
  00018	84 d2		 test	 dl, dl
  0001a	0f 84 8c 01 00
	00		 je	 $LN96@LoadInt_e@3
  00020	80 f2 ed	 xor	 dl, -19			; ffffffedH
  00023	88 55 e8	 mov	 BYTE PTR __k$[ebp], dl
  00026	8a 50 01	 mov	 dl, BYTE PTR [eax+1]
  00029	84 d2		 test	 dl, dl
  0002b	0f 84 75 01 00
	00		 je	 $LN95@LoadInt_e@3
  00031	80 f2 ec	 xor	 dl, -20			; ffffffecH
  00034	88 55 e9	 mov	 BYTE PTR __k$[ebp+1], dl
  00037	8a 50 02	 mov	 dl, BYTE PTR [eax+2]
  0003a	84 d2		 test	 dl, dl
  0003c	0f 84 5e 01 00
	00		 je	 $LN94@LoadInt_e@3
  00042	b1 eb		 mov	 cl, -21			; ffffffebH
  00044	32 d1		 xor	 dl, cl
  00046	88 55 ea	 mov	 BYTE PTR __k$[ebp+2], dl
  00049	8a 50 03	 mov	 dl, BYTE PTR [eax+3]
  0004c	84 d2		 test	 dl, dl
  0004e	0f 84 46 01 00
	00		 je	 $LN93@LoadInt_e@3
  00054	80 f2 ea	 xor	 dl, -22			; ffffffeaH
  00057	88 55 eb	 mov	 BYTE PTR __k$[ebp+3], dl
  0005a	8a 50 04	 mov	 dl, BYTE PTR [eax+4]
  0005d	84 d2		 test	 dl, dl
  0005f	0f 84 2f 01 00
	00		 je	 $LN92@LoadInt_e@3
  00065	80 f2 ed	 xor	 dl, -19			; ffffffedH
  00068	88 55 ec	 mov	 BYTE PTR __k$[ebp+4], dl
  0006b	8a 50 05	 mov	 dl, BYTE PTR [eax+5]
  0006e	84 d2		 test	 dl, dl
  00070	0f 84 18 01 00
	00		 je	 $LN91@LoadInt_e@3
  00076	80 f2 ec	 xor	 dl, -20			; ffffffecH
  00079	88 55 ed	 mov	 BYTE PTR __k$[ebp+5], dl
  0007c	8a 50 06	 mov	 dl, BYTE PTR [eax+6]
  0007f	84 d2		 test	 dl, dl
  00081	0f 84 02 01 00
	00		 je	 $LN90@LoadInt_e@3
  00087	32 d1		 xor	 dl, cl
  00089	88 55 ee	 mov	 BYTE PTR __k$[ebp+6], dl
  0008c	8a 50 07	 mov	 dl, BYTE PTR [eax+7]
  0008f	84 d2		 test	 dl, dl
  00091	0f 84 ec 00 00
	00		 je	 $LN89@LoadInt_e@3
  00097	80 f2 ea	 xor	 dl, -22			; ffffffeaH
  0009a	88 55 ef	 mov	 BYTE PTR __k$[ebp+7], dl
  0009d	8a 50 08	 mov	 dl, BYTE PTR [eax+8]
  000a0	84 d2		 test	 dl, dl
  000a2	0f 84 d5 00 00
	00		 je	 $LN88@LoadInt_e@3
  000a8	80 f2 ed	 xor	 dl, -19			; ffffffedH
  000ab	88 55 f0	 mov	 BYTE PTR __k$[ebp+8], dl
  000ae	8a 50 09	 mov	 dl, BYTE PTR [eax+9]
  000b1	84 d2		 test	 dl, dl
  000b3	0f 84 be 00 00
	00		 je	 $LN87@LoadInt_e@3
  000b9	80 f2 ec	 xor	 dl, -20			; ffffffecH
  000bc	88 55 f1	 mov	 BYTE PTR __k$[ebp+9], dl
  000bf	8a 50 0a	 mov	 dl, BYTE PTR [eax+10]
  000c2	84 d2		 test	 dl, dl
  000c4	0f 84 a8 00 00
	00		 je	 $LN86@LoadInt_e@3
  000ca	32 d1		 xor	 dl, cl
  000cc	88 55 f2	 mov	 BYTE PTR __k$[ebp+10], dl
  000cf	8a 50 0b	 mov	 dl, BYTE PTR [eax+11]
  000d2	84 d2		 test	 dl, dl
  000d4	0f 84 92 00 00
	00		 je	 $LN85@LoadInt_e@3
  000da	80 f2 ea	 xor	 dl, -22			; ffffffeaH
  000dd	88 55 f3	 mov	 BYTE PTR __k$[ebp+11], dl
  000e0	8a 50 0c	 mov	 dl, BYTE PTR [eax+12]
  000e3	84 d2		 test	 dl, dl
  000e5	74 7f		 je	 SHORT $LN84@LoadInt_e@3
  000e7	80 f2 ed	 xor	 dl, -19			; ffffffedH
  000ea	88 55 f4	 mov	 BYTE PTR __k$[ebp+12], dl
  000ed	8a 50 0d	 mov	 dl, BYTE PTR [eax+13]
  000f0	84 d2		 test	 dl, dl
  000f2	74 6c		 je	 SHORT $LN83@LoadInt_e@3
  000f4	80 f2 ec	 xor	 dl, -20			; ffffffecH
  000f7	88 55 f5	 mov	 BYTE PTR __k$[ebp+13], dl
  000fa	8a 50 0e	 mov	 dl, BYTE PTR [eax+14]
  000fd	84 d2		 test	 dl, dl
  000ff	74 5a		 je	 SHORT $LN82@LoadInt_e@3
  00101	32 d1		 xor	 dl, cl
  00103	80 78 0f 00	 cmp	 BYTE PTR [eax+15], 0
  00107	88 55 f6	 mov	 BYTE PTR __k$[ebp+14], dl
  0010a	0f 84 a0 00 00
	00		 je	 $LN1@LoadInt_e@3
  00110	8a 50 10	 mov	 dl, BYTE PTR [eax+16]
  00113	84 d2		 test	 dl, dl
  00115	74 3e		 je	 SHORT $LN80@LoadInt_e@3
  00117	80 f2 ed	 xor	 dl, -19			; ffffffedH
  0011a	88 55 f8	 mov	 BYTE PTR __k$[ebp+16], dl
  0011d	8a 50 11	 mov	 dl, BYTE PTR [eax+17]
  00120	84 d2		 test	 dl, dl
  00122	74 2b		 je	 SHORT $LN79@LoadInt_e@3
  00124	80 f2 ec	 xor	 dl, -20			; ffffffecH
  00127	88 55 f9	 mov	 BYTE PTR __k$[ebp+17], dl
  0012a	8a 50 12	 mov	 dl, BYTE PTR [eax+18]
  0012d	84 d2		 test	 dl, dl
  0012f	74 19		 je	 SHORT $LN78@LoadInt_e@3
  00131	8a 40 13	 mov	 al, BYTE PTR [eax+19]
  00134	32 d1		 xor	 dl, cl
  00136	88 55 fa	 mov	 BYTE PTR __k$[ebp+18], dl
  00139	84 c0		 test	 al, al
  0013b	74 07		 je	 SHORT $LN77@LoadInt_e@3
  0013d	34 ea		 xor	 al, -22			; ffffffeaH
  0013f	88 45 fb	 mov	 BYTE PTR __k$[ebp+19], al
  00142	eb 6c		 jmp	 SHORT $LN1@LoadInt_e@3
$LN77@LoadInt_e@3:
  00144	c6 45 fb ea	 mov	 BYTE PTR __k$[ebp+19], -22 ; ffffffeaH
  00148	eb 66		 jmp	 SHORT $LN1@LoadInt_e@3
$LN78@LoadInt_e@3:
  0014a	88 4d fa	 mov	 BYTE PTR __k$[ebp+18], cl
  0014d	eb 61		 jmp	 SHORT $LN1@LoadInt_e@3
$LN79@LoadInt_e@3:
  0014f	c6 45 f9 ec	 mov	 BYTE PTR __k$[ebp+17], -20 ; ffffffecH
  00153	eb 5b		 jmp	 SHORT $LN1@LoadInt_e@3
$LN80@LoadInt_e@3:
  00155	c6 45 f8 ed	 mov	 BYTE PTR __k$[ebp+16], -19 ; ffffffedH
  00159	eb 55		 jmp	 SHORT $LN1@LoadInt_e@3
$LN82@LoadInt_e@3:
  0015b	88 4d f6	 mov	 BYTE PTR __k$[ebp+14], cl
  0015e	eb 50		 jmp	 SHORT $LN1@LoadInt_e@3
$LN83@LoadInt_e@3:
  00160	c6 45 f5 ec	 mov	 BYTE PTR __k$[ebp+13], -20 ; ffffffecH
  00164	eb 4a		 jmp	 SHORT $LN1@LoadInt_e@3
$LN84@LoadInt_e@3:
  00166	c6 45 f4 ed	 mov	 BYTE PTR __k$[ebp+12], -19 ; ffffffedH
  0016a	eb 44		 jmp	 SHORT $LN1@LoadInt_e@3
$LN85@LoadInt_e@3:
  0016c	c6 45 f3 ea	 mov	 BYTE PTR __k$[ebp+11], -22 ; ffffffeaH
  00170	eb 3e		 jmp	 SHORT $LN1@LoadInt_e@3
$LN86@LoadInt_e@3:
  00172	88 4d f2	 mov	 BYTE PTR __k$[ebp+10], cl
  00175	eb 39		 jmp	 SHORT $LN1@LoadInt_e@3
$LN87@LoadInt_e@3:
  00177	c6 45 f1 ec	 mov	 BYTE PTR __k$[ebp+9], -20 ; ffffffecH
  0017b	eb 33		 jmp	 SHORT $LN1@LoadInt_e@3
$LN88@LoadInt_e@3:
  0017d	c6 45 f0 ed	 mov	 BYTE PTR __k$[ebp+8], -19 ; ffffffedH
  00181	eb 2d		 jmp	 SHORT $LN1@LoadInt_e@3
$LN89@LoadInt_e@3:
  00183	c6 45 ef ea	 mov	 BYTE PTR __k$[ebp+7], -22 ; ffffffeaH
  00187	eb 27		 jmp	 SHORT $LN1@LoadInt_e@3
$LN90@LoadInt_e@3:
  00189	88 4d ee	 mov	 BYTE PTR __k$[ebp+6], cl
  0018c	eb 22		 jmp	 SHORT $LN1@LoadInt_e@3
$LN91@LoadInt_e@3:
  0018e	c6 45 ed ec	 mov	 BYTE PTR __k$[ebp+5], -20 ; ffffffecH
  00192	eb 1c		 jmp	 SHORT $LN1@LoadInt_e@3
$LN92@LoadInt_e@3:
  00194	c6 45 ec ed	 mov	 BYTE PTR __k$[ebp+4], -19 ; ffffffedH
  00198	eb 16		 jmp	 SHORT $LN1@LoadInt_e@3
$LN93@LoadInt_e@3:
  0019a	c6 45 eb ea	 mov	 BYTE PTR __k$[ebp+3], -22 ; ffffffeaH
  0019e	eb 10		 jmp	 SHORT $LN1@LoadInt_e@3
$LN94@LoadInt_e@3:
  001a0	c6 45 ea eb	 mov	 BYTE PTR __k$[ebp+2], -21 ; ffffffebH
  001a4	eb 0a		 jmp	 SHORT $LN1@LoadInt_e@3
$LN95@LoadInt_e@3:
  001a6	c6 45 e9 ec	 mov	 BYTE PTR __k$[ebp+1], -20 ; ffffffecH
  001aa	eb 04		 jmp	 SHORT $LN1@LoadInt_e@3
$LN96@LoadInt_e@3:
  001ac	c6 45 e8 ed	 mov	 BYTE PTR __k$[ebp], -19	; ffffffedH
$LN1@LoadInt_e@3:
  001b0	6a 03		 push	 3
  001b2	8d 45 e8	 lea	 eax, DWORD PTR __k$[ebp]
  001b5	c6 45 f7 00	 mov	 BYTE PTR __k$[ebp+15], 0
  001b9	5a		 pop	 edx
$LL104@LoadInt_e@3:
  001ba	81 30 ed ec eb
	ea		 xor	 DWORD PTR [eax], -353637139 ; eaebecedH
  001c0	83 c0 04	 add	 eax, 4
  001c3	4a		 dec	 edx
  001c4	75 f4		 jne	 SHORT $LL104@LoadInt_e@3
  001c6	6a 0c		 push	 12			; 0000000cH
  001c8	58		 pop	 eax
$LL101@LoadInt_e@3:
  001c9	8b c8		 mov	 ecx, eax
  001cb	81 e1 03 00 00
	80		 and	 ecx, -2147483645	; 80000003H
  001d1	79 05		 jns	 SHORT $LN111@LoadInt_e@3
  001d3	49		 dec	 ecx
  001d4	83 c9 fc	 or	 ecx, -4			; fffffffcH
  001d7	41		 inc	 ecx
$LN111@LoadInt_e@3:
  001d8	b2 ed		 mov	 dl, -19			; ffffffedH
  001da	2a d1		 sub	 dl, cl
  001dc	30 54 05 e8	 xor	 BYTE PTR __k$[ebp+eax], dl
  001e0	40		 inc	 eax
  001e1	83 f8 0f	 cmp	 eax, 15			; 0000000fH
  001e4	7c e3		 jl	 SHORT $LL101@LoadInt_e@3

; 120  : 		return LoadInt(_k, i);

  001e6	ff 75 0c	 push	 DWORD PTR _i$[ebp]
  001e9	8d 45 e8	 lea	 eax, DWORD PTR __k$[ebp]
  001ec	50		 push	 eax
  001ed	8b ce		 mov	 ecx, esi
  001ef	ff 15 00 00 00
	00		 call	 DWORD PTR __imp_?LoadInt@ioINILoader@@QAEHPBDH@Z

; 121  : 	}

  001f5	8b 4d fc	 mov	 ecx, DWORD PTR __$ArrayPad$[ebp]
  001f8	33 cd		 xor	 ecx, ebp
  001fa	5e		 pop	 esi
  001fb	e8 00 00 00 00	 call	 @__security_check_cookie@4
  00200	c9		 leave
  00201	c2 08 00	 ret	 8
??$LoadInt_e@$0BA@@ioINILoader@@QAEHAAY0BA@$$CBDH@Z ENDP ; ioINILoader::LoadInt_e<16>
_TEXT	ENDS
PUBLIC	_this$GSCopy$
PUBLIC	__$ArrayPad$
PUBLIC	??$LoadString_e@$0BA@@ioINILoader@@QAEXAAY0BA@$$CBDAAY00$$CBDPADH@Z ; ioINILoader::LoadString_e<16>
; Function compile flags: /Ogsp
;	COMDAT ??$LoadString_e@$0BA@@ioINILoader@@QAEXAAY0BA@$$CBDAAY00$$CBDPADH@Z
_TEXT	SEGMENT
_this$GSCopy$ = -28					; size = 4
__k$ = -24						; size = 16
__$ArrayPad$ = -4					; size = 4
_k$ = 8							; size = 4
_d$ = 12						; size = 4
_b$ = 16						; size = 4
_i$ = 20						; size = 4
??$LoadString_e@$0BA@@ioINILoader@@QAEXAAY0BA@$$CBDAAY00$$CBDPADH@Z PROC ; ioINILoader::LoadString_e<16>, COMDAT
; _this$ = ecx

; 161  : 	{

  00000	55		 push	 ebp
  00001	8b ec		 mov	 ebp, esp
  00003	83 ec 1c	 sub	 esp, 28			; 0000001cH
  00006	a1 00 00 00 00	 mov	 eax, DWORD PTR ___security_cookie
  0000b	33 c5		 xor	 eax, ebp
  0000d	89 45 fc	 mov	 DWORD PTR __$ArrayPad$[ebp], eax
  00010	8b 45 08	 mov	 eax, DWORD PTR _k$[ebp]

; 162  : 		_ENCSTR(k, _k);

  00013	8a 10		 mov	 dl, BYTE PTR [eax]
  00015	56		 push	 esi
  00016	8b 75 0c	 mov	 esi, DWORD PTR _d$[ebp]
  00019	57		 push	 edi
  0001a	8b 7d 10	 mov	 edi, DWORD PTR _b$[ebp]
  0001d	89 4d e4	 mov	 DWORD PTR _this$GSCopy$[ebp], ecx
  00020	84 d2		 test	 dl, dl
  00022	0f 84 8c 01 00
	00		 je	 $LN96@LoadString@3
  00028	80 f2 ed	 xor	 dl, -19			; ffffffedH
  0002b	88 55 e8	 mov	 BYTE PTR __k$[ebp], dl
  0002e	8a 50 01	 mov	 dl, BYTE PTR [eax+1]
  00031	84 d2		 test	 dl, dl
  00033	0f 84 75 01 00
	00		 je	 $LN95@LoadString@3
  00039	80 f2 ec	 xor	 dl, -20			; ffffffecH
  0003c	88 55 e9	 mov	 BYTE PTR __k$[ebp+1], dl
  0003f	8a 50 02	 mov	 dl, BYTE PTR [eax+2]
  00042	84 d2		 test	 dl, dl
  00044	0f 84 5e 01 00
	00		 je	 $LN94@LoadString@3
  0004a	b1 eb		 mov	 cl, -21			; ffffffebH
  0004c	32 d1		 xor	 dl, cl
  0004e	88 55 ea	 mov	 BYTE PTR __k$[ebp+2], dl
  00051	8a 50 03	 mov	 dl, BYTE PTR [eax+3]
  00054	84 d2		 test	 dl, dl
  00056	0f 84 46 01 00
	00		 je	 $LN93@LoadString@3
  0005c	80 f2 ea	 xor	 dl, -22			; ffffffeaH
  0005f	88 55 eb	 mov	 BYTE PTR __k$[ebp+3], dl
  00062	8a 50 04	 mov	 dl, BYTE PTR [eax+4]
  00065	84 d2		 test	 dl, dl
  00067	0f 84 2f 01 00
	00		 je	 $LN92@LoadString@3
  0006d	80 f2 ed	 xor	 dl, -19			; ffffffedH
  00070	88 55 ec	 mov	 BYTE PTR __k$[ebp+4], dl
  00073	8a 50 05	 mov	 dl, BYTE PTR [eax+5]
  00076	84 d2		 test	 dl, dl
  00078	0f 84 18 01 00
	00		 je	 $LN91@LoadString@3
  0007e	80 f2 ec	 xor	 dl, -20			; ffffffecH
  00081	88 55 ed	 mov	 BYTE PTR __k$[ebp+5], dl
  00084	8a 50 06	 mov	 dl, BYTE PTR [eax+6]
  00087	84 d2		 test	 dl, dl
  00089	0f 84 02 01 00
	00		 je	 $LN90@LoadString@3
  0008f	32 d1		 xor	 dl, cl
  00091	88 55 ee	 mov	 BYTE PTR __k$[ebp+6], dl
  00094	8a 50 07	 mov	 dl, BYTE PTR [eax+7]
  00097	84 d2		 test	 dl, dl
  00099	0f 84 ec 00 00
	00		 je	 $LN89@LoadString@3
  0009f	80 f2 ea	 xor	 dl, -22			; ffffffeaH
  000a2	88 55 ef	 mov	 BYTE PTR __k$[ebp+7], dl
  000a5	8a 50 08	 mov	 dl, BYTE PTR [eax+8]
  000a8	84 d2		 test	 dl, dl
  000aa	0f 84 d5 00 00
	00		 je	 $LN88@LoadString@3
  000b0	80 f2 ed	 xor	 dl, -19			; ffffffedH
  000b3	88 55 f0	 mov	 BYTE PTR __k$[ebp+8], dl
  000b6	8a 50 09	 mov	 dl, BYTE PTR [eax+9]
  000b9	84 d2		 test	 dl, dl
  000bb	0f 84 be 00 00
	00		 je	 $LN87@LoadString@3
  000c1	80 f2 ec	 xor	 dl, -20			; ffffffecH
  000c4	88 55 f1	 mov	 BYTE PTR __k$[ebp+9], dl
  000c7	8a 50 0a	 mov	 dl, BYTE PTR [eax+10]
  000ca	84 d2		 test	 dl, dl
  000cc	0f 84 a8 00 00
	00		 je	 $LN86@LoadString@3
  000d2	32 d1		 xor	 dl, cl
  000d4	88 55 f2	 mov	 BYTE PTR __k$[ebp+10], dl
  000d7	8a 50 0b	 mov	 dl, BYTE PTR [eax+11]
  000da	84 d2		 test	 dl, dl
  000dc	0f 84 92 00 00
	00		 je	 $LN85@LoadString@3
  000e2	80 f2 ea	 xor	 dl, -22			; ffffffeaH
  000e5	88 55 f3	 mov	 BYTE PTR __k$[ebp+11], dl
  000e8	8a 50 0c	 mov	 dl, BYTE PTR [eax+12]
  000eb	84 d2		 test	 dl, dl
  000ed	74 7f		 je	 SHORT $LN84@LoadString@3
  000ef	80 f2 ed	 xor	 dl, -19			; ffffffedH
  000f2	88 55 f4	 mov	 BYTE PTR __k$[ebp+12], dl
  000f5	8a 50 0d	 mov	 dl, BYTE PTR [eax+13]
  000f8	84 d2		 test	 dl, dl
  000fa	74 6c		 je	 SHORT $LN83@LoadString@3
  000fc	80 f2 ec	 xor	 dl, -20			; ffffffecH
  000ff	88 55 f5	 mov	 BYTE PTR __k$[ebp+13], dl
  00102	8a 50 0e	 mov	 dl, BYTE PTR [eax+14]
  00105	84 d2		 test	 dl, dl
  00107	74 5a		 je	 SHORT $LN82@LoadString@3
  00109	32 d1		 xor	 dl, cl
  0010b	80 78 0f 00	 cmp	 BYTE PTR [eax+15], 0
  0010f	88 55 f6	 mov	 BYTE PTR __k$[ebp+14], dl
  00112	0f 84 a0 00 00
	00		 je	 $LN111@LoadString@3
  00118	8a 50 10	 mov	 dl, BYTE PTR [eax+16]
  0011b	84 d2		 test	 dl, dl
  0011d	74 3e		 je	 SHORT $LN80@LoadString@3
  0011f	80 f2 ed	 xor	 dl, -19			; ffffffedH
  00122	88 55 f8	 mov	 BYTE PTR __k$[ebp+16], dl
  00125	8a 50 11	 mov	 dl, BYTE PTR [eax+17]
  00128	84 d2		 test	 dl, dl
  0012a	74 2b		 je	 SHORT $LN79@LoadString@3
  0012c	80 f2 ec	 xor	 dl, -20			; ffffffecH
  0012f	88 55 f9	 mov	 BYTE PTR __k$[ebp+17], dl
  00132	8a 50 12	 mov	 dl, BYTE PTR [eax+18]
  00135	84 d2		 test	 dl, dl
  00137	74 19		 je	 SHORT $LN78@LoadString@3
  00139	8a 40 13	 mov	 al, BYTE PTR [eax+19]
  0013c	32 d1		 xor	 dl, cl
  0013e	88 55 fa	 mov	 BYTE PTR __k$[ebp+18], dl
  00141	84 c0		 test	 al, al
  00143	74 07		 je	 SHORT $LN77@LoadString@3
  00145	34 ea		 xor	 al, -22			; ffffffeaH
  00147	88 45 fb	 mov	 BYTE PTR __k$[ebp+19], al
  0014a	eb 6c		 jmp	 SHORT $LN111@LoadString@3
$LN77@LoadString@3:
  0014c	c6 45 fb ea	 mov	 BYTE PTR __k$[ebp+19], -22 ; ffffffeaH
  00150	eb 66		 jmp	 SHORT $LN111@LoadString@3
$LN78@LoadString@3:
  00152	88 4d fa	 mov	 BYTE PTR __k$[ebp+18], cl
  00155	eb 61		 jmp	 SHORT $LN111@LoadString@3
$LN79@LoadString@3:
  00157	c6 45 f9 ec	 mov	 BYTE PTR __k$[ebp+17], -20 ; ffffffecH
  0015b	eb 5b		 jmp	 SHORT $LN111@LoadString@3
$LN80@LoadString@3:
  0015d	c6 45 f8 ed	 mov	 BYTE PTR __k$[ebp+16], -19 ; ffffffedH
  00161	eb 55		 jmp	 SHORT $LN111@LoadString@3
$LN82@LoadString@3:
  00163	88 4d f6	 mov	 BYTE PTR __k$[ebp+14], cl
  00166	eb 50		 jmp	 SHORT $LN111@LoadString@3
$LN83@LoadString@3:
  00168	c6 45 f5 ec	 mov	 BYTE PTR __k$[ebp+13], -20 ; ffffffecH
  0016c	eb 4a		 jmp	 SHORT $LN111@LoadString@3
$LN84@LoadString@3:
  0016e	c6 45 f4 ed	 mov	 BYTE PTR __k$[ebp+12], -19 ; ffffffedH
  00172	eb 44		 jmp	 SHORT $LN111@LoadString@3
$LN85@LoadString@3:
  00174	c6 45 f3 ea	 mov	 BYTE PTR __k$[ebp+11], -22 ; ffffffeaH
  00178	eb 3e		 jmp	 SHORT $LN111@LoadString@3
$LN86@LoadString@3:
  0017a	88 4d f2	 mov	 BYTE PTR __k$[ebp+10], cl
  0017d	eb 39		 jmp	 SHORT $LN111@LoadString@3
$LN87@LoadString@3:
  0017f	c6 45 f1 ec	 mov	 BYTE PTR __k$[ebp+9], -20 ; ffffffecH
  00183	eb 33		 jmp	 SHORT $LN111@LoadString@3
$LN88@LoadString@3:
  00185	c6 45 f0 ed	 mov	 BYTE PTR __k$[ebp+8], -19 ; ffffffedH
  00189	eb 2d		 jmp	 SHORT $LN111@LoadString@3
$LN89@LoadString@3:
  0018b	c6 45 ef ea	 mov	 BYTE PTR __k$[ebp+7], -22 ; ffffffeaH
  0018f	eb 27		 jmp	 SHORT $LN111@LoadString@3
$LN90@LoadString@3:
  00191	88 4d ee	 mov	 BYTE PTR __k$[ebp+6], cl
  00194	eb 22		 jmp	 SHORT $LN111@LoadString@3
$LN91@LoadString@3:
  00196	c6 45 ed ec	 mov	 BYTE PTR __k$[ebp+5], -20 ; ffffffecH
  0019a	eb 1c		 jmp	 SHORT $LN111@LoadString@3
$LN92@LoadString@3:
  0019c	c6 45 ec ed	 mov	 BYTE PTR __k$[ebp+4], -19 ; ffffffedH
  001a0	eb 16		 jmp	 SHORT $LN111@LoadString@3
$LN93@LoadString@3:
  001a2	c6 45 eb ea	 mov	 BYTE PTR __k$[ebp+3], -22 ; ffffffeaH
  001a6	eb 10		 jmp	 SHORT $LN111@LoadString@3
$LN94@LoadString@3:
  001a8	c6 45 ea eb	 mov	 BYTE PTR __k$[ebp+2], -21 ; ffffffebH
  001ac	eb 0a		 jmp	 SHORT $LN111@LoadString@3
$LN95@LoadString@3:
  001ae	c6 45 e9 ec	 mov	 BYTE PTR __k$[ebp+1], -20 ; ffffffecH
  001b2	eb 04		 jmp	 SHORT $LN111@LoadString@3
$LN96@LoadString@3:
  001b4	c6 45 e8 ed	 mov	 BYTE PTR __k$[ebp], -19	; ffffffedH
$LN111@LoadString@3:
  001b8	6a 03		 push	 3
  001ba	8d 45 e8	 lea	 eax, DWORD PTR __k$[ebp]
  001bd	c6 45 f7 00	 mov	 BYTE PTR __k$[ebp+15], 0
  001c1	5a		 pop	 edx
$LL104@LoadString@3:
  001c2	81 30 ed ec eb
	ea		 xor	 DWORD PTR [eax], -353637139 ; eaebecedH
  001c8	83 c0 04	 add	 eax, 4
  001cb	4a		 dec	 edx
  001cc	75 f4		 jne	 SHORT $LL104@LoadString@3
  001ce	6a 0c		 push	 12			; 0000000cH
  001d0	58		 pop	 eax
$LL101@LoadString@3:
  001d1	8b c8		 mov	 ecx, eax
  001d3	81 e1 03 00 00
	80		 and	 ecx, -2147483645	; 80000003H
  001d9	79 05		 jns	 SHORT $LN112@LoadString@3
  001db	49		 dec	 ecx
  001dc	83 c9 fc	 or	 ecx, -4			; fffffffcH
  001df	41		 inc	 ecx
$LN112@LoadString@3:
  001e0	b2 ed		 mov	 dl, -19			; ffffffedH
  001e2	2a d1		 sub	 dl, cl
  001e4	30 54 05 e8	 xor	 BYTE PTR __k$[ebp+eax], dl
  001e8	40		 inc	 eax
  001e9	83 f8 0f	 cmp	 eax, 15			; 0000000fH
  001ec	7c e3		 jl	 SHORT $LL101@LoadString@3

; 163  : 		LoadString(_k, d, b, i);

  001ee	ff 75 14	 push	 DWORD PTR _i$[ebp]
  001f1	8b 4d e4	 mov	 ecx, DWORD PTR _this$GSCopy$[ebp]
  001f4	57		 push	 edi
  001f5	56		 push	 esi
  001f6	8d 45 e8	 lea	 eax, DWORD PTR __k$[ebp]
  001f9	50		 push	 eax
  001fa	ff 15 00 00 00
	00		 call	 DWORD PTR __imp_?LoadStringA@ioINILoader@@QAEXPBD0PADH@Z

; 164  : 	}

  00200	8b 4d fc	 mov	 ecx, DWORD PTR __$ArrayPad$[ebp]
  00203	5f		 pop	 edi
  00204	33 cd		 xor	 ecx, ebp
  00206	5e		 pop	 esi
  00207	e8 00 00 00 00	 call	 @__security_check_cookie@4
  0020c	c9		 leave
  0020d	c2 10 00	 ret	 16			; 00000010H
??$LoadString_e@$0BA@@ioINILoader@@QAEXAAY0BA@$$CBDAAY00$$CBDPADH@Z ENDP ; ioINILoader::LoadString_e<16>
_TEXT	ENDS
PUBLIC	_this$GSCopy$
PUBLIC	__$ArrayPad$
PUBLIC	??$LoadString_e@$0BB@@ioINILoader@@QAEXAAY0BB@$$CBDAAY00$$CBDPADH@Z ; ioINILoader::LoadString_e<17>
; Function compile flags: /Ogsp
;	COMDAT ??$LoadString_e@$0BB@@ioINILoader@@QAEXAAY0BB@$$CBDAAY00$$CBDPADH@Z
_TEXT	SEGMENT
_this$GSCopy$ = -32					; size = 4
__k$ = -28						; size = 17
__$ArrayPad$ = -4					; size = 4
_k$ = 8							; size = 4
_d$ = 12						; size = 4
_b$ = 16						; size = 4
_i$ = 20						; size = 4
??$LoadString_e@$0BB@@ioINILoader@@QAEXAAY0BB@$$CBDAAY00$$CBDPADH@Z PROC ; ioINILoader::LoadString_e<17>, COMDAT
; _this$ = ecx

; 161  : 	{

  00000	55		 push	 ebp
  00001	8b ec		 mov	 ebp, esp
  00003	83 ec 20	 sub	 esp, 32			; 00000020H
  00006	a1 00 00 00 00	 mov	 eax, DWORD PTR ___security_cookie
  0000b	33 c5		 xor	 eax, ebp
  0000d	89 45 fc	 mov	 DWORD PTR __$ArrayPad$[ebp], eax
  00010	8b 45 08	 mov	 eax, DWORD PTR _k$[ebp]

; 162  : 		_ENCSTR(k, _k);

  00013	8a 10		 mov	 dl, BYTE PTR [eax]
  00015	56		 push	 esi
  00016	8b 75 0c	 mov	 esi, DWORD PTR _d$[ebp]
  00019	57		 push	 edi
  0001a	8b 7d 10	 mov	 edi, DWORD PTR _b$[ebp]
  0001d	89 4d e0	 mov	 DWORD PTR _this$GSCopy$[ebp], ecx
  00020	84 d2		 test	 dl, dl
  00022	0f 84 a7 01 00
	00		 je	 $LN96@LoadString@4
  00028	80 f2 ed	 xor	 dl, -19			; ffffffedH
  0002b	88 55 e4	 mov	 BYTE PTR __k$[ebp], dl
  0002e	8a 50 01	 mov	 dl, BYTE PTR [eax+1]
  00031	84 d2		 test	 dl, dl
  00033	0f 84 90 01 00
	00		 je	 $LN95@LoadString@4
  00039	b1 ec		 mov	 cl, -20			; ffffffecH
  0003b	32 d1		 xor	 dl, cl
  0003d	88 55 e5	 mov	 BYTE PTR __k$[ebp+1], dl
  00040	8a 50 02	 mov	 dl, BYTE PTR [eax+2]
  00043	84 d2		 test	 dl, dl
  00045	0f 84 78 01 00
	00		 je	 $LN94@LoadString@4
  0004b	80 f2 eb	 xor	 dl, -21			; ffffffebH
  0004e	88 55 e6	 mov	 BYTE PTR __k$[ebp+2], dl
  00051	8a 50 03	 mov	 dl, BYTE PTR [eax+3]
  00054	84 d2		 test	 dl, dl
  00056	0f 84 61 01 00
	00		 je	 $LN93@LoadString@4
  0005c	80 f2 ea	 xor	 dl, -22			; ffffffeaH
  0005f	88 55 e7	 mov	 BYTE PTR __k$[ebp+3], dl
  00062	8a 50 04	 mov	 dl, BYTE PTR [eax+4]
  00065	84 d2		 test	 dl, dl
  00067	0f 84 4a 01 00
	00		 je	 $LN92@LoadString@4
  0006d	80 f2 ed	 xor	 dl, -19			; ffffffedH
  00070	88 55 e8	 mov	 BYTE PTR __k$[ebp+4], dl
  00073	8a 50 05	 mov	 dl, BYTE PTR [eax+5]
  00076	84 d2		 test	 dl, dl
  00078	0f 84 34 01 00
	00		 je	 $LN91@LoadString@4
  0007e	32 d1		 xor	 dl, cl
  00080	88 55 e9	 mov	 BYTE PTR __k$[ebp+5], dl
  00083	8a 50 06	 mov	 dl, BYTE PTR [eax+6]
  00086	84 d2		 test	 dl, dl
  00088	0f 84 1e 01 00
	00		 je	 $LN90@LoadString@4
  0008e	80 f2 eb	 xor	 dl, -21			; ffffffebH
  00091	88 55 ea	 mov	 BYTE PTR __k$[ebp+6], dl
  00094	8a 50 07	 mov	 dl, BYTE PTR [eax+7]
  00097	84 d2		 test	 dl, dl
  00099	0f 84 07 01 00
	00		 je	 $LN89@LoadString@4
  0009f	80 f2 ea	 xor	 dl, -22			; ffffffeaH
  000a2	88 55 eb	 mov	 BYTE PTR __k$[ebp+7], dl
  000a5	8a 50 08	 mov	 dl, BYTE PTR [eax+8]
  000a8	84 d2		 test	 dl, dl
  000aa	0f 84 f0 00 00
	00		 je	 $LN88@LoadString@4
  000b0	80 f2 ed	 xor	 dl, -19			; ffffffedH
  000b3	88 55 ec	 mov	 BYTE PTR __k$[ebp+8], dl
  000b6	8a 50 09	 mov	 dl, BYTE PTR [eax+9]
  000b9	84 d2		 test	 dl, dl
  000bb	0f 84 da 00 00
	00		 je	 $LN87@LoadString@4
  000c1	32 d1		 xor	 dl, cl
  000c3	88 55 ed	 mov	 BYTE PTR __k$[ebp+9], dl
  000c6	8a 50 0a	 mov	 dl, BYTE PTR [eax+10]
  000c9	84 d2		 test	 dl, dl
  000cb	0f 84 c4 00 00
	00		 je	 $LN86@LoadString@4
  000d1	80 f2 eb	 xor	 dl, -21			; ffffffebH
  000d4	88 55 ee	 mov	 BYTE PTR __k$[ebp+10], dl
  000d7	8a 50 0b	 mov	 dl, BYTE PTR [eax+11]
  000da	84 d2		 test	 dl, dl
  000dc	0f 84 ad 00 00
	00		 je	 $LN85@LoadString@4
  000e2	80 f2 ea	 xor	 dl, -22			; ffffffeaH
  000e5	88 55 ef	 mov	 BYTE PTR __k$[ebp+11], dl
  000e8	8a 50 0c	 mov	 dl, BYTE PTR [eax+12]
  000eb	84 d2		 test	 dl, dl
  000ed	0f 84 96 00 00
	00		 je	 $LN84@LoadString@4
  000f3	80 f2 ed	 xor	 dl, -19			; ffffffedH
  000f6	88 55 f0	 mov	 BYTE PTR __k$[ebp+12], dl
  000f9	8a 50 0d	 mov	 dl, BYTE PTR [eax+13]
  000fc	84 d2		 test	 dl, dl
  000fe	0f 84 80 00 00
	00		 je	 $LN83@LoadString@4
  00104	32 d1		 xor	 dl, cl
  00106	88 55 f1	 mov	 BYTE PTR __k$[ebp+13], dl
  00109	8a 50 0e	 mov	 dl, BYTE PTR [eax+14]
  0010c	84 d2		 test	 dl, dl
  0010e	74 6e		 je	 SHORT $LN82@LoadString@4
  00110	80 f2 eb	 xor	 dl, -21			; ffffffebH
  00113	88 55 f2	 mov	 BYTE PTR __k$[ebp+14], dl
  00116	8a 50 0f	 mov	 dl, BYTE PTR [eax+15]
  00119	84 d2		 test	 dl, dl
  0011b	74 5b		 je	 SHORT $LN81@LoadString@4
  0011d	80 f2 ea	 xor	 dl, -22			; ffffffeaH
  00120	80 78 10 00	 cmp	 BYTE PTR [eax+16], 0
  00124	88 55 f3	 mov	 BYTE PTR __k$[ebp+15], dl
  00127	0f 84 a6 00 00
	00		 je	 $LN111@LoadString@4
  0012d	8a 50 11	 mov	 dl, BYTE PTR [eax+17]
  00130	84 d2		 test	 dl, dl
  00132	74 3f		 je	 SHORT $LN79@LoadString@4
  00134	32 d1		 xor	 dl, cl
  00136	88 55 f5	 mov	 BYTE PTR __k$[ebp+17], dl
  00139	8a 50 12	 mov	 dl, BYTE PTR [eax+18]
  0013c	84 d2		 test	 dl, dl
  0013e	74 2d		 je	 SHORT $LN78@LoadString@4
  00140	80 f2 eb	 xor	 dl, -21			; ffffffebH
  00143	88 55 f6	 mov	 BYTE PTR __k$[ebp+18], dl
  00146	8a 50 13	 mov	 dl, BYTE PTR [eax+19]
  00149	84 d2		 test	 dl, dl
  0014b	74 1a		 je	 SHORT $LN77@LoadString@4
  0014d	8a 40 14	 mov	 al, BYTE PTR [eax+20]
  00150	80 f2 ea	 xor	 dl, -22			; ffffffeaH
  00153	88 55 f7	 mov	 BYTE PTR __k$[ebp+19], dl
  00156	84 c0		 test	 al, al
  00158	74 07		 je	 SHORT $LN76@LoadString@4
  0015a	34 ed		 xor	 al, -19			; ffffffedH
  0015c	88 45 f8	 mov	 BYTE PTR __k$[ebp+20], al
  0015f	eb 72		 jmp	 SHORT $LN111@LoadString@4
$LN76@LoadString@4:
  00161	c6 45 f8 ed	 mov	 BYTE PTR __k$[ebp+20], -19 ; ffffffedH
  00165	eb 6c		 jmp	 SHORT $LN111@LoadString@4
$LN77@LoadString@4:
  00167	c6 45 f7 ea	 mov	 BYTE PTR __k$[ebp+19], -22 ; ffffffeaH
  0016b	eb 66		 jmp	 SHORT $LN111@LoadString@4
$LN78@LoadString@4:
  0016d	c6 45 f6 eb	 mov	 BYTE PTR __k$[ebp+18], -21 ; ffffffebH
  00171	eb 60		 jmp	 SHORT $LN111@LoadString@4
$LN79@LoadString@4:
  00173	88 4d f5	 mov	 BYTE PTR __k$[ebp+17], cl
  00176	eb 5b		 jmp	 SHORT $LN111@LoadString@4
$LN81@LoadString@4:
  00178	c6 45 f3 ea	 mov	 BYTE PTR __k$[ebp+15], -22 ; ffffffeaH
  0017c	eb 55		 jmp	 SHORT $LN111@LoadString@4
$LN82@LoadString@4:
  0017e	c6 45 f2 eb	 mov	 BYTE PTR __k$[ebp+14], -21 ; ffffffebH
  00182	eb 4f		 jmp	 SHORT $LN111@LoadString@4
$LN83@LoadString@4:
  00184	88 4d f1	 mov	 BYTE PTR __k$[ebp+13], cl
  00187	eb 4a		 jmp	 SHORT $LN111@LoadString@4
$LN84@LoadString@4:
  00189	c6 45 f0 ed	 mov	 BYTE PTR __k$[ebp+12], -19 ; ffffffedH
  0018d	eb 44		 jmp	 SHORT $LN111@LoadString@4
$LN85@LoadString@4:
  0018f	c6 45 ef ea	 mov	 BYTE PTR __k$[ebp+11], -22 ; ffffffeaH
  00193	eb 3e		 jmp	 SHORT $LN111@LoadString@4
$LN86@LoadString@4:
  00195	c6 45 ee eb	 mov	 BYTE PTR __k$[ebp+10], -21 ; ffffffebH
  00199	eb 38		 jmp	 SHORT $LN111@LoadString@4
$LN87@LoadString@4:
  0019b	88 4d ed	 mov	 BYTE PTR __k$[ebp+9], cl
  0019e	eb 33		 jmp	 SHORT $LN111@LoadString@4
$LN88@LoadString@4:
  001a0	c6 45 ec ed	 mov	 BYTE PTR __k$[ebp+8], -19 ; ffffffedH
  001a4	eb 2d		 jmp	 SHORT $LN111@LoadString@4
$LN89@LoadString@4:
  001a6	c6 45 eb ea	 mov	 BYTE PTR __k$[ebp+7], -22 ; ffffffeaH
  001aa	eb 27		 jmp	 SHORT $LN111@LoadString@4
$LN90@LoadString@4:
  001ac	c6 45 ea eb	 mov	 BYTE PTR __k$[ebp+6], -21 ; ffffffebH
  001b0	eb 21		 jmp	 SHORT $LN111@LoadString@4
$LN91@LoadString@4:
  001b2	88 4d e9	 mov	 BYTE PTR __k$[ebp+5], cl
  001b5	eb 1c		 jmp	 SHORT $LN111@LoadString@4
$LN92@LoadString@4:
  001b7	c6 45 e8 ed	 mov	 BYTE PTR __k$[ebp+4], -19 ; ffffffedH
  001bb	eb 16		 jmp	 SHORT $LN111@LoadString@4
$LN93@LoadString@4:
  001bd	c6 45 e7 ea	 mov	 BYTE PTR __k$[ebp+3], -22 ; ffffffeaH
  001c1	eb 10		 jmp	 SHORT $LN111@LoadString@4
$LN94@LoadString@4:
  001c3	c6 45 e6 eb	 mov	 BYTE PTR __k$[ebp+2], -21 ; ffffffebH
  001c7	eb 0a		 jmp	 SHORT $LN111@LoadString@4
$LN95@LoadString@4:
  001c9	c6 45 e5 ec	 mov	 BYTE PTR __k$[ebp+1], -20 ; ffffffecH
  001cd	eb 04		 jmp	 SHORT $LN111@LoadString@4
$LN96@LoadString@4:
  001cf	c6 45 e4 ed	 mov	 BYTE PTR __k$[ebp], -19	; ffffffedH
$LN111@LoadString@4:
  001d3	6a 04		 push	 4
  001d5	8d 45 e4	 lea	 eax, DWORD PTR __k$[ebp]
  001d8	c6 45 f4 00	 mov	 BYTE PTR __k$[ebp+16], 0
  001dc	5a		 pop	 edx
$LL104@LoadString@4:
  001dd	81 30 ed ec eb
	ea		 xor	 DWORD PTR [eax], -353637139 ; eaebecedH
  001e3	83 c0 04	 add	 eax, 4
  001e6	4a		 dec	 edx
  001e7	75 f4		 jne	 SHORT $LL104@LoadString@4

; 163  : 		LoadString(_k, d, b, i);

  001e9	ff 75 14	 push	 DWORD PTR _i$[ebp]
  001ec	8b 4d e0	 mov	 ecx, DWORD PTR _this$GSCopy$[ebp]
  001ef	57		 push	 edi
  001f0	56		 push	 esi
  001f1	8d 45 e4	 lea	 eax, DWORD PTR __k$[ebp]
  001f4	50		 push	 eax
  001f5	ff 15 00 00 00
	00		 call	 DWORD PTR __imp_?LoadStringA@ioINILoader@@QAEXPBD0PADH@Z

; 164  : 	}

  001fb	8b 4d fc	 mov	 ecx, DWORD PTR __$ArrayPad$[ebp]
  001fe	5f		 pop	 edi
  001ff	33 cd		 xor	 ecx, ebp
  00201	5e		 pop	 esi
  00202	e8 00 00 00 00	 call	 @__security_check_cookie@4
  00207	c9		 leave
  00208	c2 10 00	 ret	 16			; 00000010H
??$LoadString_e@$0BB@@ioINILoader@@QAEXAAY0BB@$$CBDAAY00$$CBDPADH@Z ENDP ; ioINILoader::LoadString_e<17>
_TEXT	ENDS
PUBLIC	__$ArrayPad$
PUBLIC	??$LoadFloat_e@$0BH@@ioINILoader@@QAEMAAY0BH@$$CBDM@Z ; ioINILoader::LoadFloat_e<23>
; Function compile flags: /Ogsp
;	COMDAT ??$LoadFloat_e@$0BH@@ioINILoader@@QAEMAAY0BH@$$CBDM@Z
_TEXT	SEGMENT
__k$ = -32						; size = 23
__$ArrayPad$ = -4					; size = 4
_k$ = 8							; size = 4
_f$ = 12						; size = 4
??$LoadFloat_e@$0BH@@ioINILoader@@QAEMAAY0BH@$$CBDM@Z PROC ; ioINILoader::LoadFloat_e<23>, COMDAT
; _this$ = ecx

; 135  : 	{

  00000	55		 push	 ebp
  00001	8b ec		 mov	 ebp, esp
  00003	83 ec 20	 sub	 esp, 32			; 00000020H
  00006	a1 00 00 00 00	 mov	 eax, DWORD PTR ___security_cookie
  0000b	33 c5		 xor	 eax, ebp
  0000d	89 45 fc	 mov	 DWORD PTR __$ArrayPad$[ebp], eax
  00010	8b 45 08	 mov	 eax, DWORD PTR _k$[ebp]

; 136  : 		_ENCSTR(k, _k);

  00013	8a 10		 mov	 dl, BYTE PTR [eax]
  00015	53		 push	 ebx
  00016	56		 push	 esi
  00017	8b f1		 mov	 esi, ecx
  00019	84 d2		 test	 dl, dl
  0001b	0f 84 2d 02 00
	00		 je	 $LN96@LoadFloat_@3
  00021	80 f2 ed	 xor	 dl, -19			; ffffffedH
  00024	88 55 e0	 mov	 BYTE PTR __k$[ebp], dl
  00027	8a 50 01	 mov	 dl, BYTE PTR [eax+1]
  0002a	84 d2		 test	 dl, dl
  0002c	0f 84 16 02 00
	00		 je	 $LN95@LoadFloat_@3
  00032	b1 ec		 mov	 cl, -20			; ffffffecH
  00034	32 d1		 xor	 dl, cl
  00036	88 55 e1	 mov	 BYTE PTR __k$[ebp+1], dl
  00039	8a 50 02	 mov	 dl, BYTE PTR [eax+2]
  0003c	84 d2		 test	 dl, dl
  0003e	0f 84 fe 01 00
	00		 je	 $LN94@LoadFloat_@3
  00044	80 f2 eb	 xor	 dl, -21			; ffffffebH
  00047	88 55 e2	 mov	 BYTE PTR __k$[ebp+2], dl
  0004a	8a 50 03	 mov	 dl, BYTE PTR [eax+3]
  0004d	84 d2		 test	 dl, dl
  0004f	0f 84 e7 01 00
	00		 je	 $LN93@LoadFloat_@3
  00055	b3 ea		 mov	 bl, -22			; ffffffeaH
  00057	32 d3		 xor	 dl, bl
  00059	88 55 e3	 mov	 BYTE PTR __k$[ebp+3], dl
  0005c	8a 50 04	 mov	 dl, BYTE PTR [eax+4]
  0005f	84 d2		 test	 dl, dl
  00061	0f 84 cf 01 00
	00		 je	 $LN92@LoadFloat_@3
  00067	80 f2 ed	 xor	 dl, -19			; ffffffedH
  0006a	88 55 e4	 mov	 BYTE PTR __k$[ebp+4], dl
  0006d	8a 50 05	 mov	 dl, BYTE PTR [eax+5]
  00070	84 d2		 test	 dl, dl
  00072	0f 84 b9 01 00
	00		 je	 $LN91@LoadFloat_@3
  00078	32 d1		 xor	 dl, cl
  0007a	88 55 e5	 mov	 BYTE PTR __k$[ebp+5], dl
  0007d	8a 50 06	 mov	 dl, BYTE PTR [eax+6]
  00080	84 d2		 test	 dl, dl
  00082	0f 84 a3 01 00
	00		 je	 $LN90@LoadFloat_@3
  00088	80 f2 eb	 xor	 dl, -21			; ffffffebH
  0008b	88 55 e6	 mov	 BYTE PTR __k$[ebp+6], dl
  0008e	8a 50 07	 mov	 dl, BYTE PTR [eax+7]
  00091	84 d2		 test	 dl, dl
  00093	0f 84 8d 01 00
	00		 je	 $LN89@LoadFloat_@3
  00099	32 d3		 xor	 dl, bl
  0009b	88 55 e7	 mov	 BYTE PTR __k$[ebp+7], dl
  0009e	8a 50 08	 mov	 dl, BYTE PTR [eax+8]
  000a1	84 d2		 test	 dl, dl
  000a3	0f 84 77 01 00
	00		 je	 $LN88@LoadFloat_@3
  000a9	80 f2 ed	 xor	 dl, -19			; ffffffedH
  000ac	88 55 e8	 mov	 BYTE PTR __k$[ebp+8], dl
  000af	8a 50 09	 mov	 dl, BYTE PTR [eax+9]
  000b2	84 d2		 test	 dl, dl
  000b4	0f 84 61 01 00
	00		 je	 $LN87@LoadFloat_@3
  000ba	32 d1		 xor	 dl, cl
  000bc	88 55 e9	 mov	 BYTE PTR __k$[ebp+9], dl
  000bf	8a 50 0a	 mov	 dl, BYTE PTR [eax+10]
  000c2	84 d2		 test	 dl, dl
  000c4	0f 84 4b 01 00
	00		 je	 $LN86@LoadFloat_@3
  000ca	80 f2 eb	 xor	 dl, -21			; ffffffebH
  000cd	88 55 ea	 mov	 BYTE PTR __k$[ebp+10], dl
  000d0	8a 50 0b	 mov	 dl, BYTE PTR [eax+11]
  000d3	84 d2		 test	 dl, dl
  000d5	0f 84 35 01 00
	00		 je	 $LN85@LoadFloat_@3
  000db	32 d3		 xor	 dl, bl
  000dd	88 55 eb	 mov	 BYTE PTR __k$[ebp+11], dl
  000e0	8a 50 0c	 mov	 dl, BYTE PTR [eax+12]
  000e3	84 d2		 test	 dl, dl
  000e5	0f 84 1f 01 00
	00		 je	 $LN84@LoadFloat_@3
  000eb	80 f2 ed	 xor	 dl, -19			; ffffffedH
  000ee	88 55 ec	 mov	 BYTE PTR __k$[ebp+12], dl
  000f1	8a 50 0d	 mov	 dl, BYTE PTR [eax+13]
  000f4	84 d2		 test	 dl, dl
  000f6	0f 84 09 01 00
	00		 je	 $LN83@LoadFloat_@3
  000fc	32 d1		 xor	 dl, cl
  000fe	88 55 ed	 mov	 BYTE PTR __k$[ebp+13], dl
  00101	8a 50 0e	 mov	 dl, BYTE PTR [eax+14]
  00104	84 d2		 test	 dl, dl
  00106	0f 84 f3 00 00
	00		 je	 $LN82@LoadFloat_@3
  0010c	80 f2 eb	 xor	 dl, -21			; ffffffebH
  0010f	88 55 ee	 mov	 BYTE PTR __k$[ebp+14], dl
  00112	8a 50 0f	 mov	 dl, BYTE PTR [eax+15]
  00115	84 d2		 test	 dl, dl
  00117	0f 84 dd 00 00
	00		 je	 $LN81@LoadFloat_@3
  0011d	32 d3		 xor	 dl, bl
  0011f	88 55 ef	 mov	 BYTE PTR __k$[ebp+15], dl
  00122	8a 50 10	 mov	 dl, BYTE PTR [eax+16]
  00125	84 d2		 test	 dl, dl
  00127	0f 84 c7 00 00
	00		 je	 $LN80@LoadFloat_@3
  0012d	80 f2 ed	 xor	 dl, -19			; ffffffedH
  00130	88 55 f0	 mov	 BYTE PTR __k$[ebp+16], dl
  00133	8a 50 11	 mov	 dl, BYTE PTR [eax+17]
  00136	84 d2		 test	 dl, dl
  00138	0f 84 b1 00 00
	00		 je	 $LN79@LoadFloat_@3
  0013e	32 d1		 xor	 dl, cl
  00140	88 55 f1	 mov	 BYTE PTR __k$[ebp+17], dl
  00143	8a 50 12	 mov	 dl, BYTE PTR [eax+18]
  00146	84 d2		 test	 dl, dl
  00148	0f 84 9b 00 00
	00		 je	 $LN78@LoadFloat_@3
  0014e	80 f2 eb	 xor	 dl, -21			; ffffffebH
  00151	88 55 f2	 mov	 BYTE PTR __k$[ebp+18], dl
  00154	8a 50 13	 mov	 dl, BYTE PTR [eax+19]
  00157	84 d2		 test	 dl, dl
  00159	0f 84 85 00 00
	00		 je	 $LN77@LoadFloat_@3
  0015f	32 d3		 xor	 dl, bl
  00161	88 55 f3	 mov	 BYTE PTR __k$[ebp+19], dl
  00164	8a 50 14	 mov	 dl, BYTE PTR [eax+20]
  00167	84 d2		 test	 dl, dl
  00169	74 73		 je	 SHORT $LN76@LoadFloat_@3
  0016b	80 f2 ed	 xor	 dl, -19			; ffffffedH
  0016e	88 55 f4	 mov	 BYTE PTR __k$[ebp+20], dl
  00171	8a 50 15	 mov	 dl, BYTE PTR [eax+21]
  00174	84 d2		 test	 dl, dl
  00176	74 61		 je	 SHORT $LN75@LoadFloat_@3
  00178	32 d1		 xor	 dl, cl
  0017a	80 78 16 00	 cmp	 BYTE PTR [eax+22], 0
  0017e	88 55 f5	 mov	 BYTE PTR __k$[ebp+21], dl
  00181	0f 84 cb 00 00
	00		 je	 $LN1@LoadFloat_@3
  00187	8a 50 17	 mov	 dl, BYTE PTR [eax+23]
  0018a	84 d2		 test	 dl, dl
  0018c	74 46		 je	 SHORT $LN73@LoadFloat_@3
  0018e	32 d3		 xor	 dl, bl
  00190	88 55 f7	 mov	 BYTE PTR __k$[ebp+23], dl
  00193	8a 50 18	 mov	 dl, BYTE PTR [eax+24]
  00196	84 d2		 test	 dl, dl
  00198	74 34		 je	 SHORT $LN72@LoadFloat_@3
  0019a	80 f2 ed	 xor	 dl, -19			; ffffffedH
  0019d	88 55 f8	 mov	 BYTE PTR __k$[ebp+24], dl
  001a0	8a 50 19	 mov	 dl, BYTE PTR [eax+25]
  001a3	84 d2		 test	 dl, dl
  001a5	74 1f		 je	 SHORT $LN71@LoadFloat_@3
  001a7	8a 40 1a	 mov	 al, BYTE PTR [eax+26]
  001aa	32 d1		 xor	 dl, cl
  001ac	88 55 f9	 mov	 BYTE PTR __k$[ebp+25], dl
  001af	84 c0		 test	 al, al
  001b1	74 0a		 je	 SHORT $LN70@LoadFloat_@3
  001b3	34 eb		 xor	 al, -21			; ffffffebH
  001b5	88 45 fa	 mov	 BYTE PTR __k$[ebp+26], al
  001b8	e9 95 00 00 00	 jmp	 $LN1@LoadFloat_@3
$LN70@LoadFloat_@3:
  001bd	c6 45 fa eb	 mov	 BYTE PTR __k$[ebp+26], -21 ; ffffffebH
  001c1	e9 8c 00 00 00	 jmp	 $LN1@LoadFloat_@3
$LN71@LoadFloat_@3:
  001c6	88 4d f9	 mov	 BYTE PTR __k$[ebp+25], cl
  001c9	e9 84 00 00 00	 jmp	 $LN1@LoadFloat_@3
$LN72@LoadFloat_@3:
  001ce	c6 45 f8 ed	 mov	 BYTE PTR __k$[ebp+24], -19 ; ffffffedH
  001d2	eb 7e		 jmp	 SHORT $LN1@LoadFloat_@3
$LN73@LoadFloat_@3:
  001d4	88 5d f7	 mov	 BYTE PTR __k$[ebp+23], bl
  001d7	eb 79		 jmp	 SHORT $LN1@LoadFloat_@3
$LN75@LoadFloat_@3:
  001d9	88 4d f5	 mov	 BYTE PTR __k$[ebp+21], cl
  001dc	eb 74		 jmp	 SHORT $LN1@LoadFloat_@3
$LN76@LoadFloat_@3:
  001de	c6 45 f4 ed	 mov	 BYTE PTR __k$[ebp+20], -19 ; ffffffedH
  001e2	eb 6e		 jmp	 SHORT $LN1@LoadFloat_@3
$LN77@LoadFloat_@3:
  001e4	88 5d f3	 mov	 BYTE PTR __k$[ebp+19], bl
  001e7	eb 69		 jmp	 SHORT $LN1@LoadFloat_@3
$LN78@LoadFloat_@3:
  001e9	c6 45 f2 eb	 mov	 BYTE PTR __k$[ebp+18], -21 ; ffffffebH
  001ed	eb 63		 jmp	 SHORT $LN1@LoadFloat_@3
$LN79@LoadFloat_@3:
  001ef	88 4d f1	 mov	 BYTE PTR __k$[ebp+17], cl
  001f2	eb 5e		 jmp	 SHORT $LN1@LoadFloat_@3
$LN80@LoadFloat_@3:
  001f4	c6 45 f0 ed	 mov	 BYTE PTR __k$[ebp+16], -19 ; ffffffedH
  001f8	eb 58		 jmp	 SHORT $LN1@LoadFloat_@3
$LN81@LoadFloat_@3:
  001fa	88 5d ef	 mov	 BYTE PTR __k$[ebp+15], bl
  001fd	eb 53		 jmp	 SHORT $LN1@LoadFloat_@3
$LN82@LoadFloat_@3:
  001ff	c6 45 ee eb	 mov	 BYTE PTR __k$[ebp+14], -21 ; ffffffebH
  00203	eb 4d		 jmp	 SHORT $LN1@LoadFloat_@3
$LN83@LoadFloat_@3:
  00205	88 4d ed	 mov	 BYTE PTR __k$[ebp+13], cl
  00208	eb 48		 jmp	 SHORT $LN1@LoadFloat_@3
$LN84@LoadFloat_@3:
  0020a	c6 45 ec ed	 mov	 BYTE PTR __k$[ebp+12], -19 ; ffffffedH
  0020e	eb 42		 jmp	 SHORT $LN1@LoadFloat_@3
$LN85@LoadFloat_@3:
  00210	88 5d eb	 mov	 BYTE PTR __k$[ebp+11], bl
  00213	eb 3d		 jmp	 SHORT $LN1@LoadFloat_@3
$LN86@LoadFloat_@3:
  00215	c6 45 ea eb	 mov	 BYTE PTR __k$[ebp+10], -21 ; ffffffebH
  00219	eb 37		 jmp	 SHORT $LN1@LoadFloat_@3
$LN87@LoadFloat_@3:
  0021b	88 4d e9	 mov	 BYTE PTR __k$[ebp+9], cl
  0021e	eb 32		 jmp	 SHORT $LN1@LoadFloat_@3
$LN88@LoadFloat_@3:
  00220	c6 45 e8 ed	 mov	 BYTE PTR __k$[ebp+8], -19 ; ffffffedH
  00224	eb 2c		 jmp	 SHORT $LN1@LoadFloat_@3
$LN89@LoadFloat_@3:
  00226	88 5d e7	 mov	 BYTE PTR __k$[ebp+7], bl
  00229	eb 27		 jmp	 SHORT $LN1@LoadFloat_@3
$LN90@LoadFloat_@3:
  0022b	c6 45 e6 eb	 mov	 BYTE PTR __k$[ebp+6], -21 ; ffffffebH
  0022f	eb 21		 jmp	 SHORT $LN1@LoadFloat_@3
$LN91@LoadFloat_@3:
  00231	88 4d e5	 mov	 BYTE PTR __k$[ebp+5], cl
  00234	eb 1c		 jmp	 SHORT $LN1@LoadFloat_@3
$LN92@LoadFloat_@3:
  00236	c6 45 e4 ed	 mov	 BYTE PTR __k$[ebp+4], -19 ; ffffffedH
  0023a	eb 16		 jmp	 SHORT $LN1@LoadFloat_@3
$LN93@LoadFloat_@3:
  0023c	c6 45 e3 ea	 mov	 BYTE PTR __k$[ebp+3], -22 ; ffffffeaH
  00240	eb 10		 jmp	 SHORT $LN1@LoadFloat_@3
$LN94@LoadFloat_@3:
  00242	c6 45 e2 eb	 mov	 BYTE PTR __k$[ebp+2], -21 ; ffffffebH
  00246	eb 0a		 jmp	 SHORT $LN1@LoadFloat_@3
$LN95@LoadFloat_@3:
  00248	c6 45 e1 ec	 mov	 BYTE PTR __k$[ebp+1], -20 ; ffffffecH
  0024c	eb 04		 jmp	 SHORT $LN1@LoadFloat_@3
$LN96@LoadFloat_@3:
  0024e	c6 45 e0 ed	 mov	 BYTE PTR __k$[ebp], -19	; ffffffedH
$LN1@LoadFloat_@3:
  00252	6a 05		 push	 5
  00254	8d 45 e0	 lea	 eax, DWORD PTR __k$[ebp]
  00257	c6 45 f6 00	 mov	 BYTE PTR __k$[ebp+22], 0
  0025b	5a		 pop	 edx
$LL104@LoadFloat_@3:
  0025c	81 30 ed ec eb
	ea		 xor	 DWORD PTR [eax], -353637139 ; eaebecedH
  00262	83 c0 04	 add	 eax, 4
  00265	4a		 dec	 edx
  00266	75 f4		 jne	 SHORT $LL104@LoadFloat_@3
  00268	6a 14		 push	 20			; 00000014H
  0026a	58		 pop	 eax
$LL101@LoadFloat_@3:
  0026b	8b c8		 mov	 ecx, eax
  0026d	81 e1 03 00 00
	80		 and	 ecx, -2147483645	; 80000003H
  00273	79 05		 jns	 SHORT $LN111@LoadFloat_@3
  00275	49		 dec	 ecx
  00276	83 c9 fc	 or	 ecx, -4			; fffffffcH
  00279	41		 inc	 ecx
$LN111@LoadFloat_@3:
  0027a	b2 ed		 mov	 dl, -19			; ffffffedH
  0027c	2a d1		 sub	 dl, cl
  0027e	30 54 05 e0	 xor	 BYTE PTR __k$[ebp+eax], dl
  00282	40		 inc	 eax
  00283	83 f8 16	 cmp	 eax, 22			; 00000016H
  00286	7c e3		 jl	 SHORT $LL101@LoadFloat_@3

; 137  : 		return LoadFloat(_k, f);

  00288	f3 0f 10 45 0c	 movss	 xmm0, DWORD PTR _f$[ebp]
  0028d	51		 push	 ecx
  0028e	8d 45 e0	 lea	 eax, DWORD PTR __k$[ebp]
  00291	f3 0f 11 04 24	 movss	 DWORD PTR [esp], xmm0
  00296	50		 push	 eax
  00297	8b ce		 mov	 ecx, esi
  00299	ff 15 00 00 00
	00		 call	 DWORD PTR __imp_?LoadFloat@ioINILoader@@QAEMPBDM@Z

; 138  : 	}

  0029f	8b 4d fc	 mov	 ecx, DWORD PTR __$ArrayPad$[ebp]
  002a2	5e		 pop	 esi
  002a3	33 cd		 xor	 ecx, ebp
  002a5	5b		 pop	 ebx
  002a6	e8 00 00 00 00	 call	 @__security_check_cookie@4
  002ab	c9		 leave
  002ac	c2 08 00	 ret	 8
??$LoadFloat_e@$0BH@@ioINILoader@@QAEMAAY0BH@$$CBDM@Z ENDP ; ioINILoader::LoadFloat_e<23>
_TEXT	ENDS
PUBLIC	__$ArrayPad$
PUBLIC	??$LoadBool_e@$0P@@ioINILoader@@QAE_NAAY0P@$$CBD_N@Z ; ioINILoader::LoadBool_e<15>
EXTRN	__imp_?LoadBool@ioINILoader@@QAE_NPBD_N@Z:PROC
; Function compile flags: /Ogsp
;	COMDAT ??$LoadBool_e@$0P@@ioINILoader@@QAE_NAAY0P@$$CBD_N@Z
_TEXT	SEGMENT
__k$ = -24						; size = 15
__$ArrayPad$ = -4					; size = 4
_k$ = 8							; size = 4
_b$ = 12						; size = 1
??$LoadBool_e@$0P@@ioINILoader@@QAE_NAAY0P@$$CBD_N@Z PROC ; ioINILoader::LoadBool_e<15>, COMDAT
; _this$ = ecx

; 101  : 	{

  00000	55		 push	 ebp
  00001	8b ec		 mov	 ebp, esp
  00003	83 ec 18	 sub	 esp, 24			; 00000018H
  00006	a1 00 00 00 00	 mov	 eax, DWORD PTR ___security_cookie
  0000b	33 c5		 xor	 eax, ebp
  0000d	89 45 fc	 mov	 DWORD PTR __$ArrayPad$[ebp], eax
  00010	8b 45 08	 mov	 eax, DWORD PTR _k$[ebp]

; 102  : 		_ENCSTR(k, _k);

  00013	8a 10		 mov	 dl, BYTE PTR [eax]
  00015	56		 push	 esi
  00016	8b f1		 mov	 esi, ecx
  00018	84 d2		 test	 dl, dl
  0001a	0f 84 75 01 00
	00		 je	 $LN96@LoadBool_e
  00020	80 f2 ed	 xor	 dl, -19			; ffffffedH
  00023	88 55 e8	 mov	 BYTE PTR __k$[ebp], dl
  00026	8a 50 01	 mov	 dl, BYTE PTR [eax+1]
  00029	84 d2		 test	 dl, dl
  0002b	0f 84 5e 01 00
	00		 je	 $LN95@LoadBool_e
  00031	b1 ec		 mov	 cl, -20			; ffffffecH
  00033	32 d1		 xor	 dl, cl
  00035	88 55 e9	 mov	 BYTE PTR __k$[ebp+1], dl
  00038	8a 50 02	 mov	 dl, BYTE PTR [eax+2]
  0003b	84 d2		 test	 dl, dl
  0003d	0f 84 46 01 00
	00		 je	 $LN94@LoadBool_e
  00043	80 f2 eb	 xor	 dl, -21			; ffffffebH
  00046	88 55 ea	 mov	 BYTE PTR __k$[ebp+2], dl
  00049	8a 50 03	 mov	 dl, BYTE PTR [eax+3]
  0004c	84 d2		 test	 dl, dl
  0004e	0f 84 2f 01 00
	00		 je	 $LN93@LoadBool_e
  00054	80 f2 ea	 xor	 dl, -22			; ffffffeaH
  00057	88 55 eb	 mov	 BYTE PTR __k$[ebp+3], dl
  0005a	8a 50 04	 mov	 dl, BYTE PTR [eax+4]
  0005d	84 d2		 test	 dl, dl
  0005f	0f 84 18 01 00
	00		 je	 $LN92@LoadBool_e
  00065	80 f2 ed	 xor	 dl, -19			; ffffffedH
  00068	88 55 ec	 mov	 BYTE PTR __k$[ebp+4], dl
  0006b	8a 50 05	 mov	 dl, BYTE PTR [eax+5]
  0006e	84 d2		 test	 dl, dl
  00070	0f 84 02 01 00
	00		 je	 $LN91@LoadBool_e
  00076	32 d1		 xor	 dl, cl
  00078	88 55 ed	 mov	 BYTE PTR __k$[ebp+5], dl
  0007b	8a 50 06	 mov	 dl, BYTE PTR [eax+6]
  0007e	84 d2		 test	 dl, dl
  00080	0f 84 ec 00 00
	00		 je	 $LN90@LoadBool_e
  00086	80 f2 eb	 xor	 dl, -21			; ffffffebH
  00089	88 55 ee	 mov	 BYTE PTR __k$[ebp+6], dl
  0008c	8a 50 07	 mov	 dl, BYTE PTR [eax+7]
  0008f	84 d2		 test	 dl, dl
  00091	0f 84 d5 00 00
	00		 je	 $LN89@LoadBool_e
  00097	80 f2 ea	 xor	 dl, -22			; ffffffeaH
  0009a	88 55 ef	 mov	 BYTE PTR __k$[ebp+7], dl
  0009d	8a 50 08	 mov	 dl, BYTE PTR [eax+8]
  000a0	84 d2		 test	 dl, dl
  000a2	0f 84 be 00 00
	00		 je	 $LN88@LoadBool_e
  000a8	80 f2 ed	 xor	 dl, -19			; ffffffedH
  000ab	88 55 f0	 mov	 BYTE PTR __k$[ebp+8], dl
  000ae	8a 50 09	 mov	 dl, BYTE PTR [eax+9]
  000b1	84 d2		 test	 dl, dl
  000b3	0f 84 a8 00 00
	00		 je	 $LN87@LoadBool_e
  000b9	32 d1		 xor	 dl, cl
  000bb	88 55 f1	 mov	 BYTE PTR __k$[ebp+9], dl
  000be	8a 50 0a	 mov	 dl, BYTE PTR [eax+10]
  000c1	84 d2		 test	 dl, dl
  000c3	0f 84 92 00 00
	00		 je	 $LN86@LoadBool_e
  000c9	80 f2 eb	 xor	 dl, -21			; ffffffebH
  000cc	88 55 f2	 mov	 BYTE PTR __k$[ebp+10], dl
  000cf	8a 50 0b	 mov	 dl, BYTE PTR [eax+11]
  000d2	84 d2		 test	 dl, dl
  000d4	74 7f		 je	 SHORT $LN85@LoadBool_e
  000d6	80 f2 ea	 xor	 dl, -22			; ffffffeaH
  000d9	88 55 f3	 mov	 BYTE PTR __k$[ebp+11], dl
  000dc	8a 50 0c	 mov	 dl, BYTE PTR [eax+12]
  000df	84 d2		 test	 dl, dl
  000e1	74 6c		 je	 SHORT $LN84@LoadBool_e
  000e3	80 f2 ed	 xor	 dl, -19			; ffffffedH
  000e6	88 55 f4	 mov	 BYTE PTR __k$[ebp+12], dl
  000e9	8a 50 0d	 mov	 dl, BYTE PTR [eax+13]
  000ec	84 d2		 test	 dl, dl
  000ee	74 5a		 je	 SHORT $LN83@LoadBool_e
  000f0	32 d1		 xor	 dl, cl
  000f2	80 78 0e 00	 cmp	 BYTE PTR [eax+14], 0
  000f6	88 55 f5	 mov	 BYTE PTR __k$[ebp+13], dl
  000f9	0f 84 9a 00 00
	00		 je	 $LN1@LoadBool_e
  000ff	8a 50 0f	 mov	 dl, BYTE PTR [eax+15]
  00102	84 d2		 test	 dl, dl
  00104	74 3e		 je	 SHORT $LN81@LoadBool_e
  00106	80 f2 ea	 xor	 dl, -22			; ffffffeaH
  00109	88 55 f7	 mov	 BYTE PTR __k$[ebp+15], dl
  0010c	8a 50 10	 mov	 dl, BYTE PTR [eax+16]
  0010f	84 d2		 test	 dl, dl
  00111	74 2b		 je	 SHORT $LN80@LoadBool_e
  00113	80 f2 ed	 xor	 dl, -19			; ffffffedH
  00116	88 55 f8	 mov	 BYTE PTR __k$[ebp+16], dl
  00119	8a 50 11	 mov	 dl, BYTE PTR [eax+17]
  0011c	84 d2		 test	 dl, dl
  0011e	74 19		 je	 SHORT $LN79@LoadBool_e
  00120	8a 40 12	 mov	 al, BYTE PTR [eax+18]
  00123	32 d1		 xor	 dl, cl
  00125	88 55 f9	 mov	 BYTE PTR __k$[ebp+17], dl
  00128	84 c0		 test	 al, al
  0012a	74 07		 je	 SHORT $LN78@LoadBool_e
  0012c	34 eb		 xor	 al, -21			; ffffffebH
  0012e	88 45 fa	 mov	 BYTE PTR __k$[ebp+18], al
  00131	eb 66		 jmp	 SHORT $LN1@LoadBool_e
$LN78@LoadBool_e:
  00133	c6 45 fa eb	 mov	 BYTE PTR __k$[ebp+18], -21 ; ffffffebH
  00137	eb 60		 jmp	 SHORT $LN1@LoadBool_e
$LN79@LoadBool_e:
  00139	88 4d f9	 mov	 BYTE PTR __k$[ebp+17], cl
  0013c	eb 5b		 jmp	 SHORT $LN1@LoadBool_e
$LN80@LoadBool_e:
  0013e	c6 45 f8 ed	 mov	 BYTE PTR __k$[ebp+16], -19 ; ffffffedH
  00142	eb 55		 jmp	 SHORT $LN1@LoadBool_e
$LN81@LoadBool_e:
  00144	c6 45 f7 ea	 mov	 BYTE PTR __k$[ebp+15], -22 ; ffffffeaH
  00148	eb 4f		 jmp	 SHORT $LN1@LoadBool_e
$LN83@LoadBool_e:
  0014a	88 4d f5	 mov	 BYTE PTR __k$[ebp+13], cl
  0014d	eb 4a		 jmp	 SHORT $LN1@LoadBool_e
$LN84@LoadBool_e:
  0014f	c6 45 f4 ed	 mov	 BYTE PTR __k$[ebp+12], -19 ; ffffffedH
  00153	eb 44		 jmp	 SHORT $LN1@LoadBool_e
$LN85@LoadBool_e:
  00155	c6 45 f3 ea	 mov	 BYTE PTR __k$[ebp+11], -22 ; ffffffeaH
  00159	eb 3e		 jmp	 SHORT $LN1@LoadBool_e
$LN86@LoadBool_e:
  0015b	c6 45 f2 eb	 mov	 BYTE PTR __k$[ebp+10], -21 ; ffffffebH
  0015f	eb 38		 jmp	 SHORT $LN1@LoadBool_e
$LN87@LoadBool_e:
  00161	88 4d f1	 mov	 BYTE PTR __k$[ebp+9], cl
  00164	eb 33		 jmp	 SHORT $LN1@LoadBool_e
$LN88@LoadBool_e:
  00166	c6 45 f0 ed	 mov	 BYTE PTR __k$[ebp+8], -19 ; ffffffedH
  0016a	eb 2d		 jmp	 SHORT $LN1@LoadBool_e
$LN89@LoadBool_e:
  0016c	c6 45 ef ea	 mov	 BYTE PTR __k$[ebp+7], -22 ; ffffffeaH
  00170	eb 27		 jmp	 SHORT $LN1@LoadBool_e
$LN90@LoadBool_e:
  00172	c6 45 ee eb	 mov	 BYTE PTR __k$[ebp+6], -21 ; ffffffebH
  00176	eb 21		 jmp	 SHORT $LN1@LoadBool_e
$LN91@LoadBool_e:
  00178	88 4d ed	 mov	 BYTE PTR __k$[ebp+5], cl
  0017b	eb 1c		 jmp	 SHORT $LN1@LoadBool_e
$LN92@LoadBool_e:
  0017d	c6 45 ec ed	 mov	 BYTE PTR __k$[ebp+4], -19 ; ffffffedH
  00181	eb 16		 jmp	 SHORT $LN1@LoadBool_e
$LN93@LoadBool_e:
  00183	c6 45 eb ea	 mov	 BYTE PTR __k$[ebp+3], -22 ; ffffffeaH
  00187	eb 10		 jmp	 SHORT $LN1@LoadBool_e
$LN94@LoadBool_e:
  00189	c6 45 ea eb	 mov	 BYTE PTR __k$[ebp+2], -21 ; ffffffebH
  0018d	eb 0a		 jmp	 SHORT $LN1@LoadBool_e
$LN95@LoadBool_e:
  0018f	c6 45 e9 ec	 mov	 BYTE PTR __k$[ebp+1], -20 ; ffffffecH
  00193	eb 04		 jmp	 SHORT $LN1@LoadBool_e
$LN96@LoadBool_e:
  00195	c6 45 e8 ed	 mov	 BYTE PTR __k$[ebp], -19	; ffffffedH
$LN1@LoadBool_e:
  00199	6a 03		 push	 3
  0019b	8d 45 e8	 lea	 eax, DWORD PTR __k$[ebp]
  0019e	c6 45 f6 00	 mov	 BYTE PTR __k$[ebp+14], 0
  001a2	5a		 pop	 edx
$LL104@LoadBool_e:
  001a3	81 30 ed ec eb
	ea		 xor	 DWORD PTR [eax], -353637139 ; eaebecedH
  001a9	83 c0 04	 add	 eax, 4
  001ac	4a		 dec	 edx
  001ad	75 f4		 jne	 SHORT $LL104@LoadBool_e
  001af	6a 0c		 push	 12			; 0000000cH
  001b1	58		 pop	 eax
$LL101@LoadBool_e:
  001b2	8b c8		 mov	 ecx, eax
  001b4	81 e1 03 00 00
	80		 and	 ecx, -2147483645	; 80000003H
  001ba	79 05		 jns	 SHORT $LN111@LoadBool_e
  001bc	49		 dec	 ecx
  001bd	83 c9 fc	 or	 ecx, -4			; fffffffcH
  001c0	41		 inc	 ecx
$LN111@LoadBool_e:
  001c1	b2 ed		 mov	 dl, -19			; ffffffedH
  001c3	2a d1		 sub	 dl, cl
  001c5	30 54 05 e8	 xor	 BYTE PTR __k$[ebp+eax], dl
  001c9	40		 inc	 eax
  001ca	83 f8 0e	 cmp	 eax, 14			; 0000000eH
  001cd	7c e3		 jl	 SHORT $LL101@LoadBool_e

; 103  : 		return LoadBool(_k, b);

  001cf	ff 75 0c	 push	 DWORD PTR _b$[ebp]
  001d2	8d 45 e8	 lea	 eax, DWORD PTR __k$[ebp]
  001d5	50		 push	 eax
  001d6	8b ce		 mov	 ecx, esi
  001d8	ff 15 00 00 00
	00		 call	 DWORD PTR __imp_?LoadBool@ioINILoader@@QAE_NPBD_N@Z

; 104  : 	}

  001de	8b 4d fc	 mov	 ecx, DWORD PTR __$ArrayPad$[ebp]
  001e1	33 cd		 xor	 ecx, ebp
  001e3	5e		 pop	 esi
  001e4	e8 00 00 00 00	 call	 @__security_check_cookie@4
  001e9	c9		 leave
  001ea	c2 08 00	 ret	 8
??$LoadBool_e@$0P@@ioINILoader@@QAE_NAAY0P@$$CBD_N@Z ENDP ; ioINILoader::LoadBool_e<15>
_TEXT	ENDS
PUBLIC	__$ArrayPad$
PUBLIC	??$LoadFloat_e@$0P@@ioINILoader@@QAEMAAY0P@$$CBDM@Z ; ioINILoader::LoadFloat_e<15>
; Function compile flags: /Ogsp
;	COMDAT ??$LoadFloat_e@$0P@@ioINILoader@@QAEMAAY0P@$$CBDM@Z
_TEXT	SEGMENT
__k$ = -24						; size = 15
__$ArrayPad$ = -4					; size = 4
_k$ = 8							; size = 4
_f$ = 12						; size = 4
??$LoadFloat_e@$0P@@ioINILoader@@QAEMAAY0P@$$CBDM@Z PROC ; ioINILoader::LoadFloat_e<15>, COMDAT
; _this$ = ecx

; 135  : 	{

  00000	55		 push	 ebp
  00001	8b ec		 mov	 ebp, esp
  00003	83 ec 18	 sub	 esp, 24			; 00000018H
  00006	a1 00 00 00 00	 mov	 eax, DWORD PTR ___security_cookie
  0000b	33 c5		 xor	 eax, ebp
  0000d	89 45 fc	 mov	 DWORD PTR __$ArrayPad$[ebp], eax
  00010	8b 45 08	 mov	 eax, DWORD PTR _k$[ebp]

; 136  : 		_ENCSTR(k, _k);

  00013	8a 10		 mov	 dl, BYTE PTR [eax]
  00015	56		 push	 esi
  00016	8b f1		 mov	 esi, ecx
  00018	84 d2		 test	 dl, dl
  0001a	0f 84 75 01 00
	00		 je	 $LN96@LoadFloat_@4
  00020	80 f2 ed	 xor	 dl, -19			; ffffffedH
  00023	88 55 e8	 mov	 BYTE PTR __k$[ebp], dl
  00026	8a 50 01	 mov	 dl, BYTE PTR [eax+1]
  00029	84 d2		 test	 dl, dl
  0002b	0f 84 5e 01 00
	00		 je	 $LN95@LoadFloat_@4
  00031	b1 ec		 mov	 cl, -20			; ffffffecH
  00033	32 d1		 xor	 dl, cl
  00035	88 55 e9	 mov	 BYTE PTR __k$[ebp+1], dl
  00038	8a 50 02	 mov	 dl, BYTE PTR [eax+2]
  0003b	84 d2		 test	 dl, dl
  0003d	0f 84 46 01 00
	00		 je	 $LN94@LoadFloat_@4
  00043	80 f2 eb	 xor	 dl, -21			; ffffffebH
  00046	88 55 ea	 mov	 BYTE PTR __k$[ebp+2], dl
  00049	8a 50 03	 mov	 dl, BYTE PTR [eax+3]
  0004c	84 d2		 test	 dl, dl
  0004e	0f 84 2f 01 00
	00		 je	 $LN93@LoadFloat_@4
  00054	80 f2 ea	 xor	 dl, -22			; ffffffeaH
  00057	88 55 eb	 mov	 BYTE PTR __k$[ebp+3], dl
  0005a	8a 50 04	 mov	 dl, BYTE PTR [eax+4]
  0005d	84 d2		 test	 dl, dl
  0005f	0f 84 18 01 00
	00		 je	 $LN92@LoadFloat_@4
  00065	80 f2 ed	 xor	 dl, -19			; ffffffedH
  00068	88 55 ec	 mov	 BYTE PTR __k$[ebp+4], dl
  0006b	8a 50 05	 mov	 dl, BYTE PTR [eax+5]
  0006e	84 d2		 test	 dl, dl
  00070	0f 84 02 01 00
	00		 je	 $LN91@LoadFloat_@4
  00076	32 d1		 xor	 dl, cl
  00078	88 55 ed	 mov	 BYTE PTR __k$[ebp+5], dl
  0007b	8a 50 06	 mov	 dl, BYTE PTR [eax+6]
  0007e	84 d2		 test	 dl, dl
  00080	0f 84 ec 00 00
	00		 je	 $LN90@LoadFloat_@4
  00086	80 f2 eb	 xor	 dl, -21			; ffffffebH
  00089	88 55 ee	 mov	 BYTE PTR __k$[ebp+6], dl
  0008c	8a 50 07	 mov	 dl, BYTE PTR [eax+7]
  0008f	84 d2		 test	 dl, dl
  00091	0f 84 d5 00 00
	00		 je	 $LN89@LoadFloat_@4
  00097	80 f2 ea	 xor	 dl, -22			; ffffffeaH
  0009a	88 55 ef	 mov	 BYTE PTR __k$[ebp+7], dl
  0009d	8a 50 08	 mov	 dl, BYTE PTR [eax+8]
  000a0	84 d2		 test	 dl, dl
  000a2	0f 84 be 00 00
	00		 je	 $LN88@LoadFloat_@4
  000a8	80 f2 ed	 xor	 dl, -19			; ffffffedH
  000ab	88 55 f0	 mov	 BYTE PTR __k$[ebp+8], dl
  000ae	8a 50 09	 mov	 dl, BYTE PTR [eax+9]
  000b1	84 d2		 test	 dl, dl
  000b3	0f 84 a8 00 00
	00		 je	 $LN87@LoadFloat_@4
  000b9	32 d1		 xor	 dl, cl
  000bb	88 55 f1	 mov	 BYTE PTR __k$[ebp+9], dl
  000be	8a 50 0a	 mov	 dl, BYTE PTR [eax+10]
  000c1	84 d2		 test	 dl, dl
  000c3	0f 84 92 00 00
	00		 je	 $LN86@LoadFloat_@4
  000c9	80 f2 eb	 xor	 dl, -21			; ffffffebH
  000cc	88 55 f2	 mov	 BYTE PTR __k$[ebp+10], dl
  000cf	8a 50 0b	 mov	 dl, BYTE PTR [eax+11]
  000d2	84 d2		 test	 dl, dl
  000d4	74 7f		 je	 SHORT $LN85@LoadFloat_@4
  000d6	80 f2 ea	 xor	 dl, -22			; ffffffeaH
  000d9	88 55 f3	 mov	 BYTE PTR __k$[ebp+11], dl
  000dc	8a 50 0c	 mov	 dl, BYTE PTR [eax+12]
  000df	84 d2		 test	 dl, dl
  000e1	74 6c		 je	 SHORT $LN84@LoadFloat_@4
  000e3	80 f2 ed	 xor	 dl, -19			; ffffffedH
  000e6	88 55 f4	 mov	 BYTE PTR __k$[ebp+12], dl
  000e9	8a 50 0d	 mov	 dl, BYTE PTR [eax+13]
  000ec	84 d2		 test	 dl, dl
  000ee	74 5a		 je	 SHORT $LN83@LoadFloat_@4
  000f0	32 d1		 xor	 dl, cl
  000f2	80 78 0e 00	 cmp	 BYTE PTR [eax+14], 0
  000f6	88 55 f5	 mov	 BYTE PTR __k$[ebp+13], dl
  000f9	0f 84 9a 00 00
	00		 je	 $LN1@LoadFloat_@4
  000ff	8a 50 0f	 mov	 dl, BYTE PTR [eax+15]
  00102	84 d2		 test	 dl, dl
  00104	74 3e		 je	 SHORT $LN81@LoadFloat_@4
  00106	80 f2 ea	 xor	 dl, -22			; ffffffeaH
  00109	88 55 f7	 mov	 BYTE PTR __k$[ebp+15], dl
  0010c	8a 50 10	 mov	 dl, BYTE PTR [eax+16]
  0010f	84 d2		 test	 dl, dl
  00111	74 2b		 je	 SHORT $LN80@LoadFloat_@4
  00113	80 f2 ed	 xor	 dl, -19			; ffffffedH
  00116	88 55 f8	 mov	 BYTE PTR __k$[ebp+16], dl
  00119	8a 50 11	 mov	 dl, BYTE PTR [eax+17]
  0011c	84 d2		 test	 dl, dl
  0011e	74 19		 je	 SHORT $LN79@LoadFloat_@4
  00120	8a 40 12	 mov	 al, BYTE PTR [eax+18]
  00123	32 d1		 xor	 dl, cl
  00125	88 55 f9	 mov	 BYTE PTR __k$[ebp+17], dl
  00128	84 c0		 test	 al, al
  0012a	74 07		 je	 SHORT $LN78@LoadFloat_@4
  0012c	34 eb		 xor	 al, -21			; ffffffebH
  0012e	88 45 fa	 mov	 BYTE PTR __k$[ebp+18], al
  00131	eb 66		 jmp	 SHORT $LN1@LoadFloat_@4
$LN78@LoadFloat_@4:
  00133	c6 45 fa eb	 mov	 BYTE PTR __k$[ebp+18], -21 ; ffffffebH
  00137	eb 60		 jmp	 SHORT $LN1@LoadFloat_@4
$LN79@LoadFloat_@4:
  00139	88 4d f9	 mov	 BYTE PTR __k$[ebp+17], cl
  0013c	eb 5b		 jmp	 SHORT $LN1@LoadFloat_@4
$LN80@LoadFloat_@4:
  0013e	c6 45 f8 ed	 mov	 BYTE PTR __k$[ebp+16], -19 ; ffffffedH
  00142	eb 55		 jmp	 SHORT $LN1@LoadFloat_@4
$LN81@LoadFloat_@4:
  00144	c6 45 f7 ea	 mov	 BYTE PTR __k$[ebp+15], -22 ; ffffffeaH
  00148	eb 4f		 jmp	 SHORT $LN1@LoadFloat_@4
$LN83@LoadFloat_@4:
  0014a	88 4d f5	 mov	 BYTE PTR __k$[ebp+13], cl
  0014d	eb 4a		 jmp	 SHORT $LN1@LoadFloat_@4
$LN84@LoadFloat_@4:
  0014f	c6 45 f4 ed	 mov	 BYTE PTR __k$[ebp+12], -19 ; ffffffedH
  00153	eb 44		 jmp	 SHORT $LN1@LoadFloat_@4
$LN85@LoadFloat_@4:
  00155	c6 45 f3 ea	 mov	 BYTE PTR __k$[ebp+11], -22 ; ffffffeaH
  00159	eb 3e		 jmp	 SHORT $LN1@LoadFloat_@4
$LN86@LoadFloat_@4:
  0015b	c6 45 f2 eb	 mov	 BYTE PTR __k$[ebp+10], -21 ; ffffffebH
  0015f	eb 38		 jmp	 SHORT $LN1@LoadFloat_@4
$LN87@LoadFloat_@4:
  00161	88 4d f1	 mov	 BYTE PTR __k$[ebp+9], cl
  00164	eb 33		 jmp	 SHORT $LN1@LoadFloat_@4
$LN88@LoadFloat_@4:
  00166	c6 45 f0 ed	 mov	 BYTE PTR __k$[ebp+8], -19 ; ffffffedH
  0016a	eb 2d		 jmp	 SHORT $LN1@LoadFloat_@4
$LN89@LoadFloat_@4:
  0016c	c6 45 ef ea	 mov	 BYTE PTR __k$[ebp+7], -22 ; ffffffeaH
  00170	eb 27		 jmp	 SHORT $LN1@LoadFloat_@4
$LN90@LoadFloat_@4:
  00172	c6 45 ee eb	 mov	 BYTE PTR __k$[ebp+6], -21 ; ffffffebH
  00176	eb 21		 jmp	 SHORT $LN1@LoadFloat_@4
$LN91@LoadFloat_@4:
  00178	88 4d ed	 mov	 BYTE PTR __k$[ebp+5], cl
  0017b	eb 1c		 jmp	 SHORT $LN1@LoadFloat_@4
$LN92@LoadFloat_@4:
  0017d	c6 45 ec ed	 mov	 BYTE PTR __k$[ebp+4], -19 ; ffffffedH
  00181	eb 16		 jmp	 SHORT $LN1@LoadFloat_@4
$LN93@LoadFloat_@4:
  00183	c6 45 eb ea	 mov	 BYTE PTR __k$[ebp+3], -22 ; ffffffeaH
  00187	eb 10		 jmp	 SHORT $LN1@LoadFloat_@4
$LN94@LoadFloat_@4:
  00189	c6 45 ea eb	 mov	 BYTE PTR __k$[ebp+2], -21 ; ffffffebH
  0018d	eb 0a		 jmp	 SHORT $LN1@LoadFloat_@4
$LN95@LoadFloat_@4:
  0018f	c6 45 e9 ec	 mov	 BYTE PTR __k$[ebp+1], -20 ; ffffffecH
  00193	eb 04		 jmp	 SHORT $LN1@LoadFloat_@4
$LN96@LoadFloat_@4:
  00195	c6 45 e8 ed	 mov	 BYTE PTR __k$[ebp], -19	; ffffffedH
$LN1@LoadFloat_@4:
  00199	6a 03		 push	 3
  0019b	8d 45 e8	 lea	 eax, DWORD PTR __k$[ebp]
  0019e	c6 45 f6 00	 mov	 BYTE PTR __k$[ebp+14], 0
  001a2	5a		 pop	 edx
$LL104@LoadFloat_@4:
  001a3	81 30 ed ec eb
	ea		 xor	 DWORD PTR [eax], -353637139 ; eaebecedH
  001a9	83 c0 04	 add	 eax, 4
  001ac	4a		 dec	 edx
  001ad	75 f4		 jne	 SHORT $LL104@LoadFloat_@4
  001af	6a 0c		 push	 12			; 0000000cH
  001b1	58		 pop	 eax
$LL101@LoadFloat_@4:
  001b2	8b c8		 mov	 ecx, eax
  001b4	81 e1 03 00 00
	80		 and	 ecx, -2147483645	; 80000003H
  001ba	79 05		 jns	 SHORT $LN111@LoadFloat_@4
  001bc	49		 dec	 ecx
  001bd	83 c9 fc	 or	 ecx, -4			; fffffffcH
  001c0	41		 inc	 ecx
$LN111@LoadFloat_@4:
  001c1	b2 ed		 mov	 dl, -19			; ffffffedH
  001c3	2a d1		 sub	 dl, cl
  001c5	30 54 05 e8	 xor	 BYTE PTR __k$[ebp+eax], dl
  001c9	40		 inc	 eax
  001ca	83 f8 0e	 cmp	 eax, 14			; 0000000eH
  001cd	7c e3		 jl	 SHORT $LL101@LoadFloat_@4

; 137  : 		return LoadFloat(_k, f);

  001cf	f3 0f 10 45 0c	 movss	 xmm0, DWORD PTR _f$[ebp]
  001d4	51		 push	 ecx
  001d5	8d 45 e8	 lea	 eax, DWORD PTR __k$[ebp]
  001d8	f3 0f 11 04 24	 movss	 DWORD PTR [esp], xmm0
  001dd	50		 push	 eax
  001de	8b ce		 mov	 ecx, esi
  001e0	ff 15 00 00 00
	00		 call	 DWORD PTR __imp_?LoadFloat@ioINILoader@@QAEMPBDM@Z

; 138  : 	}

  001e6	8b 4d fc	 mov	 ecx, DWORD PTR __$ArrayPad$[ebp]
  001e9	33 cd		 xor	 ecx, ebp
  001eb	5e		 pop	 esi
  001ec	e8 00 00 00 00	 call	 @__security_check_cookie@4
  001f1	c9		 leave
  001f2	c2 08 00	 ret	 8
??$LoadFloat_e@$0P@@ioINILoader@@QAEMAAY0P@$$CBDM@Z ENDP ; ioINILoader::LoadFloat_e<15>
_TEXT	ENDS
PUBLIC	__$ArrayPad$
PUBLIC	??$LoadInt_e@$09@ioINILoader@@QAEHAAY09$$CBDH@Z	; ioINILoader::LoadInt_e<10>
; Function compile flags: /Ogsp
;	COMDAT ??$LoadInt_e@$09@ioINILoader@@QAEHAAY09$$CBDH@Z
_TEXT	SEGMENT
__k$ = -20						; size = 10
__$ArrayPad$ = -4					; size = 4
_k$ = 8							; size = 4
_i$ = 12						; size = 4
??$LoadInt_e@$09@ioINILoader@@QAEHAAY09$$CBDH@Z PROC	; ioINILoader::LoadInt_e<10>, COMDAT
; _this$ = ecx

; 118  : 	{

  00000	55		 push	 ebp
  00001	8b ec		 mov	 ebp, esp
  00003	83 ec 14	 sub	 esp, 20			; 00000014H
  00006	a1 00 00 00 00	 mov	 eax, DWORD PTR ___security_cookie
  0000b	33 c5		 xor	 eax, ebp
  0000d	89 45 fc	 mov	 DWORD PTR __$ArrayPad$[ebp], eax
  00010	8b 45 08	 mov	 eax, DWORD PTR _k$[ebp]

; 119  : 		_ENCSTR(k, _k);

  00013	8a 10		 mov	 dl, BYTE PTR [eax]
  00015	84 d2		 test	 dl, dl
  00017	0f 84 0d 01 00
	00		 je	 $LN96@LoadInt_e@4
  0001d	80 f2 ed	 xor	 dl, -19			; ffffffedH
  00020	88 55 ec	 mov	 BYTE PTR __k$[ebp], dl
  00023	8a 50 01	 mov	 dl, BYTE PTR [eax+1]
  00026	84 d2		 test	 dl, dl
  00028	0f 84 f6 00 00
	00		 je	 $LN95@LoadInt_e@4
  0002e	80 f2 ec	 xor	 dl, -20			; ffffffecH
  00031	88 55 ed	 mov	 BYTE PTR __k$[ebp+1], dl
  00034	8a 50 02	 mov	 dl, BYTE PTR [eax+2]
  00037	84 d2		 test	 dl, dl
  00039	0f 84 df 00 00
	00		 je	 $LN94@LoadInt_e@4
  0003f	80 f2 eb	 xor	 dl, -21			; ffffffebH
  00042	88 55 ee	 mov	 BYTE PTR __k$[ebp+2], dl
  00045	8a 50 03	 mov	 dl, BYTE PTR [eax+3]
  00048	84 d2		 test	 dl, dl
  0004a	0f 84 c8 00 00
	00		 je	 $LN93@LoadInt_e@4
  00050	80 f2 ea	 xor	 dl, -22			; ffffffeaH
  00053	88 55 ef	 mov	 BYTE PTR __k$[ebp+3], dl
  00056	8a 50 04	 mov	 dl, BYTE PTR [eax+4]
  00059	84 d2		 test	 dl, dl
  0005b	0f 84 b1 00 00
	00		 je	 $LN92@LoadInt_e@4
  00061	80 f2 ed	 xor	 dl, -19			; ffffffedH
  00064	88 55 f0	 mov	 BYTE PTR __k$[ebp+4], dl
  00067	8a 50 05	 mov	 dl, BYTE PTR [eax+5]
  0006a	84 d2		 test	 dl, dl
  0006c	0f 84 9a 00 00
	00		 je	 $LN91@LoadInt_e@4
  00072	80 f2 ec	 xor	 dl, -20			; ffffffecH
  00075	88 55 f1	 mov	 BYTE PTR __k$[ebp+5], dl
  00078	8a 50 06	 mov	 dl, BYTE PTR [eax+6]
  0007b	84 d2		 test	 dl, dl
  0007d	0f 84 83 00 00
	00		 je	 $LN90@LoadInt_e@4
  00083	80 f2 eb	 xor	 dl, -21			; ffffffebH
  00086	88 55 f2	 mov	 BYTE PTR __k$[ebp+6], dl
  00089	8a 50 07	 mov	 dl, BYTE PTR [eax+7]
  0008c	84 d2		 test	 dl, dl
  0008e	74 70		 je	 SHORT $LN89@LoadInt_e@4
  00090	80 f2 ea	 xor	 dl, -22			; ffffffeaH
  00093	88 55 f3	 mov	 BYTE PTR __k$[ebp+7], dl
  00096	8a 50 08	 mov	 dl, BYTE PTR [eax+8]
  00099	84 d2		 test	 dl, dl
  0009b	74 5d		 je	 SHORT $LN88@LoadInt_e@4
  0009d	80 f2 ed	 xor	 dl, -19			; ffffffedH
  000a0	80 78 09 00	 cmp	 BYTE PTR [eax+9], 0
  000a4	88 55 f4	 mov	 BYTE PTR __k$[ebp+8], dl
  000a7	0f 84 81 00 00
	00		 je	 $LN1@LoadInt_e@4
  000ad	8a 50 0a	 mov	 dl, BYTE PTR [eax+10]
  000b0	84 d2		 test	 dl, dl
  000b2	74 40		 je	 SHORT $LN86@LoadInt_e@4
  000b4	80 f2 eb	 xor	 dl, -21			; ffffffebH
  000b7	88 55 f6	 mov	 BYTE PTR __k$[ebp+10], dl
  000ba	8a 50 0b	 mov	 dl, BYTE PTR [eax+11]
  000bd	84 d2		 test	 dl, dl
  000bf	74 2d		 je	 SHORT $LN85@LoadInt_e@4
  000c1	80 f2 ea	 xor	 dl, -22			; ffffffeaH
  000c4	88 55 f7	 mov	 BYTE PTR __k$[ebp+11], dl
  000c7	8a 50 0c	 mov	 dl, BYTE PTR [eax+12]
  000ca	84 d2		 test	 dl, dl
  000cc	74 1a		 je	 SHORT $LN84@LoadInt_e@4
  000ce	8a 40 0d	 mov	 al, BYTE PTR [eax+13]
  000d1	80 f2 ed	 xor	 dl, -19			; ffffffedH
  000d4	88 55 f8	 mov	 BYTE PTR __k$[ebp+12], dl
  000d7	84 c0		 test	 al, al
  000d9	74 07		 je	 SHORT $LN83@LoadInt_e@4
  000db	34 ec		 xor	 al, -20			; ffffffecH
  000dd	88 45 f9	 mov	 BYTE PTR __k$[ebp+13], al
  000e0	eb 4c		 jmp	 SHORT $LN1@LoadInt_e@4
$LN83@LoadInt_e@4:
  000e2	c6 45 f9 ec	 mov	 BYTE PTR __k$[ebp+13], -20 ; ffffffecH
  000e6	eb 46		 jmp	 SHORT $LN1@LoadInt_e@4
$LN84@LoadInt_e@4:
  000e8	c6 45 f8 ed	 mov	 BYTE PTR __k$[ebp+12], -19 ; ffffffedH
  000ec	eb 40		 jmp	 SHORT $LN1@LoadInt_e@4
$LN85@LoadInt_e@4:
  000ee	c6 45 f7 ea	 mov	 BYTE PTR __k$[ebp+11], -22 ; ffffffeaH
  000f2	eb 3a		 jmp	 SHORT $LN1@LoadInt_e@4
$LN86@LoadInt_e@4:
  000f4	c6 45 f6 eb	 mov	 BYTE PTR __k$[ebp+10], -21 ; ffffffebH
  000f8	eb 34		 jmp	 SHORT $LN1@LoadInt_e@4
$LN88@LoadInt_e@4:
  000fa	c6 45 f4 ed	 mov	 BYTE PTR __k$[ebp+8], -19 ; ffffffedH
  000fe	eb 2e		 jmp	 SHORT $LN1@LoadInt_e@4
$LN89@LoadInt_e@4:
  00100	c6 45 f3 ea	 mov	 BYTE PTR __k$[ebp+7], -22 ; ffffffeaH
  00104	eb 28		 jmp	 SHORT $LN1@LoadInt_e@4
$LN90@LoadInt_e@4:
  00106	c6 45 f2 eb	 mov	 BYTE PTR __k$[ebp+6], -21 ; ffffffebH
  0010a	eb 22		 jmp	 SHORT $LN1@LoadInt_e@4
$LN91@LoadInt_e@4:
  0010c	c6 45 f1 ec	 mov	 BYTE PTR __k$[ebp+5], -20 ; ffffffecH
  00110	eb 1c		 jmp	 SHORT $LN1@LoadInt_e@4
$LN92@LoadInt_e@4:
  00112	c6 45 f0 ed	 mov	 BYTE PTR __k$[ebp+4], -19 ; ffffffedH
  00116	eb 16		 jmp	 SHORT $LN1@LoadInt_e@4
$LN93@LoadInt_e@4:
  00118	c6 45 ef ea	 mov	 BYTE PTR __k$[ebp+3], -22 ; ffffffeaH
  0011c	eb 10		 jmp	 SHORT $LN1@LoadInt_e@4
$LN94@LoadInt_e@4:
  0011e	c6 45 ee eb	 mov	 BYTE PTR __k$[ebp+2], -21 ; ffffffebH
  00122	eb 0a		 jmp	 SHORT $LN1@LoadInt_e@4
$LN95@LoadInt_e@4:
  00124	c6 45 ed ec	 mov	 BYTE PTR __k$[ebp+1], -20 ; ffffffecH
  00128	eb 04		 jmp	 SHORT $LN1@LoadInt_e@4
$LN96@LoadInt_e@4:
  0012a	c6 45 ec ed	 mov	 BYTE PTR __k$[ebp], -19	; ffffffedH
$LN1@LoadInt_e@4:
  0012e	6a 02		 push	 2
  00130	8d 45 ec	 lea	 eax, DWORD PTR __k$[ebp]
  00133	c6 45 f5 00	 mov	 BYTE PTR __k$[ebp+9], 0
  00137	5a		 pop	 edx
$LL104@LoadInt_e@4:
  00138	81 30 ed ec eb
	ea		 xor	 DWORD PTR [eax], -353637139 ; eaebecedH
  0013e	83 c0 04	 add	 eax, 4
  00141	4a		 dec	 edx
  00142	75 f4		 jne	 SHORT $LL104@LoadInt_e@4

; 120  : 		return LoadInt(_k, i);

  00144	ff 75 0c	 push	 DWORD PTR _i$[ebp]
  00147	80 75 f4 ed	 xor	 BYTE PTR __k$[ebp+8], -19 ; ffffffedH
  0014b	8d 45 ec	 lea	 eax, DWORD PTR __k$[ebp]
  0014e	50		 push	 eax
  0014f	ff 15 00 00 00
	00		 call	 DWORD PTR __imp_?LoadInt@ioINILoader@@QAEHPBDH@Z

; 121  : 	}

  00155	8b 4d fc	 mov	 ecx, DWORD PTR __$ArrayPad$[ebp]
  00158	33 cd		 xor	 ecx, ebp
  0015a	e8 00 00 00 00	 call	 @__security_check_cookie@4
  0015f	c9		 leave
  00160	c2 08 00	 ret	 8
??$LoadInt_e@$09@ioINILoader@@QAEHAAY09$$CBDH@Z ENDP	; ioINILoader::LoadInt_e<10>
_TEXT	ENDS
PUBLIC	__$ArrayPad$
PUBLIC	??$LoadInt_e@$0CA@@ioINILoader@@QAEHAAY0CA@$$CBDH@Z ; ioINILoader::LoadInt_e<32>
; Function compile flags: /Ogsp
;	COMDAT ??$LoadInt_e@$0CA@@ioINILoader@@QAEHAAY0CA@$$CBDH@Z
_TEXT	SEGMENT
__k$ = -40						; size = 32
__$ArrayPad$ = -4					; size = 4
_k$ = 8							; size = 4
_i$ = 12						; size = 4
??$LoadInt_e@$0CA@@ioINILoader@@QAEHAAY0CA@$$CBDH@Z PROC ; ioINILoader::LoadInt_e<32>, COMDAT
; _this$ = ecx

; 118  : 	{

  00000	55		 push	 ebp
  00001	8b ec		 mov	 ebp, esp
  00003	83 ec 28	 sub	 esp, 40			; 00000028H
  00006	a1 00 00 00 00	 mov	 eax, DWORD PTR ___security_cookie
  0000b	33 c5		 xor	 eax, ebp
  0000d	89 45 fc	 mov	 DWORD PTR __$ArrayPad$[ebp], eax
  00010	8b 45 08	 mov	 eax, DWORD PTR _k$[ebp]

; 119  : 		_ENCSTR(k, _k);

  00013	8a 10		 mov	 dl, BYTE PTR [eax]
  00015	53		 push	 ebx
  00016	56		 push	 esi
  00017	8b f1		 mov	 esi, ecx
  00019	84 d2		 test	 dl, dl
  0001b	0f 84 0d 03 00
	00		 je	 $LN96@LoadInt_e@5
  00021	80 f2 ed	 xor	 dl, -19			; ffffffedH
  00024	88 55 d8	 mov	 BYTE PTR __k$[ebp], dl
  00027	8a 50 01	 mov	 dl, BYTE PTR [eax+1]
  0002a	84 d2		 test	 dl, dl
  0002c	0f 84 f6 02 00
	00		 je	 $LN95@LoadInt_e@5
  00032	b3 ec		 mov	 bl, -20			; ffffffecH
  00034	32 d3		 xor	 dl, bl
  00036	88 55 d9	 mov	 BYTE PTR __k$[ebp+1], dl
  00039	8a 50 02	 mov	 dl, BYTE PTR [eax+2]
  0003c	84 d2		 test	 dl, dl
  0003e	0f 84 de 02 00
	00		 je	 $LN94@LoadInt_e@5
  00044	b1 eb		 mov	 cl, -21			; ffffffebH
  00046	32 d1		 xor	 dl, cl
  00048	88 55 da	 mov	 BYTE PTR __k$[ebp+2], dl
  0004b	8a 50 03	 mov	 dl, BYTE PTR [eax+3]
  0004e	84 d2		 test	 dl, dl
  00050	0f 84 c6 02 00
	00		 je	 $LN93@LoadInt_e@5
  00056	80 f2 ea	 xor	 dl, -22			; ffffffeaH
  00059	88 55 db	 mov	 BYTE PTR __k$[ebp+3], dl
  0005c	8a 50 04	 mov	 dl, BYTE PTR [eax+4]
  0005f	84 d2		 test	 dl, dl
  00061	0f 84 af 02 00
	00		 je	 $LN92@LoadInt_e@5
  00067	80 f2 ed	 xor	 dl, -19			; ffffffedH
  0006a	88 55 dc	 mov	 BYTE PTR __k$[ebp+4], dl
  0006d	8a 50 05	 mov	 dl, BYTE PTR [eax+5]
  00070	84 d2		 test	 dl, dl
  00072	0f 84 99 02 00
	00		 je	 $LN91@LoadInt_e@5
  00078	32 d3		 xor	 dl, bl
  0007a	88 55 dd	 mov	 BYTE PTR __k$[ebp+5], dl
  0007d	8a 50 06	 mov	 dl, BYTE PTR [eax+6]
  00080	84 d2		 test	 dl, dl
  00082	0f 84 84 02 00
	00		 je	 $LN90@LoadInt_e@5
  00088	32 d1		 xor	 dl, cl
  0008a	88 55 de	 mov	 BYTE PTR __k$[ebp+6], dl
  0008d	8a 50 07	 mov	 dl, BYTE PTR [eax+7]
  00090	84 d2		 test	 dl, dl
  00092	0f 84 6e 02 00
	00		 je	 $LN89@LoadInt_e@5
  00098	80 f2 ea	 xor	 dl, -22			; ffffffeaH
  0009b	88 55 df	 mov	 BYTE PTR __k$[ebp+7], dl
  0009e	8a 50 08	 mov	 dl, BYTE PTR [eax+8]
  000a1	84 d2		 test	 dl, dl
  000a3	0f 84 57 02 00
	00		 je	 $LN88@LoadInt_e@5
  000a9	80 f2 ed	 xor	 dl, -19			; ffffffedH
  000ac	88 55 e0	 mov	 BYTE PTR __k$[ebp+8], dl
  000af	8a 50 09	 mov	 dl, BYTE PTR [eax+9]
  000b2	84 d2		 test	 dl, dl
  000b4	0f 84 41 02 00
	00		 je	 $LN87@LoadInt_e@5
  000ba	32 d3		 xor	 dl, bl
  000bc	88 55 e1	 mov	 BYTE PTR __k$[ebp+9], dl
  000bf	8a 50 0a	 mov	 dl, BYTE PTR [eax+10]
  000c2	84 d2		 test	 dl, dl
  000c4	0f 84 2c 02 00
	00		 je	 $LN86@LoadInt_e@5
  000ca	32 d1		 xor	 dl, cl
  000cc	88 55 e2	 mov	 BYTE PTR __k$[ebp+10], dl
  000cf	8a 50 0b	 mov	 dl, BYTE PTR [eax+11]
  000d2	84 d2		 test	 dl, dl
  000d4	0f 84 16 02 00
	00		 je	 $LN85@LoadInt_e@5
  000da	80 f2 ea	 xor	 dl, -22			; ffffffeaH
  000dd	88 55 e3	 mov	 BYTE PTR __k$[ebp+11], dl
  000e0	8a 50 0c	 mov	 dl, BYTE PTR [eax+12]
  000e3	84 d2		 test	 dl, dl
  000e5	0f 84 ff 01 00
	00		 je	 $LN84@LoadInt_e@5
  000eb	80 f2 ed	 xor	 dl, -19			; ffffffedH
  000ee	88 55 e4	 mov	 BYTE PTR __k$[ebp+12], dl
  000f1	8a 50 0d	 mov	 dl, BYTE PTR [eax+13]
  000f4	84 d2		 test	 dl, dl
  000f6	0f 84 e9 01 00
	00		 je	 $LN83@LoadInt_e@5
  000fc	32 d3		 xor	 dl, bl
  000fe	88 55 e5	 mov	 BYTE PTR __k$[ebp+13], dl
  00101	8a 50 0e	 mov	 dl, BYTE PTR [eax+14]
  00104	84 d2		 test	 dl, dl
  00106	0f 84 d4 01 00
	00		 je	 $LN82@LoadInt_e@5
  0010c	32 d1		 xor	 dl, cl
  0010e	88 55 e6	 mov	 BYTE PTR __k$[ebp+14], dl
  00111	8a 50 0f	 mov	 dl, BYTE PTR [eax+15]
  00114	84 d2		 test	 dl, dl
  00116	0f 84 be 01 00
	00		 je	 $LN81@LoadInt_e@5
  0011c	80 f2 ea	 xor	 dl, -22			; ffffffeaH
  0011f	88 55 e7	 mov	 BYTE PTR __k$[ebp+15], dl
  00122	8a 50 10	 mov	 dl, BYTE PTR [eax+16]
  00125	84 d2		 test	 dl, dl
  00127	0f 84 a7 01 00
	00		 je	 $LN80@LoadInt_e@5
  0012d	80 f2 ed	 xor	 dl, -19			; ffffffedH
  00130	88 55 e8	 mov	 BYTE PTR __k$[ebp+16], dl
  00133	8a 50 11	 mov	 dl, BYTE PTR [eax+17]
  00136	84 d2		 test	 dl, dl
  00138	0f 84 91 01 00
	00		 je	 $LN79@LoadInt_e@5
  0013e	32 d3		 xor	 dl, bl
  00140	88 55 e9	 mov	 BYTE PTR __k$[ebp+17], dl
  00143	8a 50 12	 mov	 dl, BYTE PTR [eax+18]
  00146	84 d2		 test	 dl, dl
  00148	0f 84 7c 01 00
	00		 je	 $LN78@LoadInt_e@5
  0014e	32 d1		 xor	 dl, cl
  00150	88 55 ea	 mov	 BYTE PTR __k$[ebp+18], dl
  00153	8a 50 13	 mov	 dl, BYTE PTR [eax+19]
  00156	84 d2		 test	 dl, dl
  00158	0f 84 66 01 00
	00		 je	 $LN77@LoadInt_e@5
  0015e	80 f2 ea	 xor	 dl, -22			; ffffffeaH
  00161	88 55 eb	 mov	 BYTE PTR __k$[ebp+19], dl
  00164	8a 50 14	 mov	 dl, BYTE PTR [eax+20]
  00167	84 d2		 test	 dl, dl
  00169	0f 84 4f 01 00
	00		 je	 $LN76@LoadInt_e@5
  0016f	80 f2 ed	 xor	 dl, -19			; ffffffedH
  00172	88 55 ec	 mov	 BYTE PTR __k$[ebp+20], dl
  00175	8a 50 15	 mov	 dl, BYTE PTR [eax+21]
  00178	84 d2		 test	 dl, dl
  0017a	0f 84 39 01 00
	00		 je	 $LN75@LoadInt_e@5
  00180	32 d3		 xor	 dl, bl
  00182	88 55 ed	 mov	 BYTE PTR __k$[ebp+21], dl
  00185	8a 50 16	 mov	 dl, BYTE PTR [eax+22]
  00188	84 d2		 test	 dl, dl
  0018a	0f 84 24 01 00
	00		 je	 $LN74@LoadInt_e@5
  00190	32 d1		 xor	 dl, cl
  00192	88 55 ee	 mov	 BYTE PTR __k$[ebp+22], dl
  00195	8a 50 17	 mov	 dl, BYTE PTR [eax+23]
  00198	84 d2		 test	 dl, dl
  0019a	0f 84 0e 01 00
	00		 je	 $LN73@LoadInt_e@5
  001a0	80 f2 ea	 xor	 dl, -22			; ffffffeaH
  001a3	88 55 ef	 mov	 BYTE PTR __k$[ebp+23], dl
  001a6	8a 50 18	 mov	 dl, BYTE PTR [eax+24]
  001a9	84 d2		 test	 dl, dl
  001ab	0f 84 f4 00 00
	00		 je	 $LN72@LoadInt_e@5
  001b1	80 f2 ed	 xor	 dl, -19			; ffffffedH
  001b4	88 55 f0	 mov	 BYTE PTR __k$[ebp+24], dl
  001b7	8a 50 19	 mov	 dl, BYTE PTR [eax+25]
  001ba	84 d2		 test	 dl, dl
  001bc	0f 84 db 00 00
	00		 je	 $LN71@LoadInt_e@5
  001c2	32 d3		 xor	 dl, bl
  001c4	88 55 f1	 mov	 BYTE PTR __k$[ebp+25], dl
  001c7	8a 50 1a	 mov	 dl, BYTE PTR [eax+26]
  001ca	84 d2		 test	 dl, dl
  001cc	0f 84 c3 00 00
	00		 je	 $LN70@LoadInt_e@5
  001d2	32 d1		 xor	 dl, cl
  001d4	88 55 f2	 mov	 BYTE PTR __k$[ebp+26], dl
  001d7	8a 50 1b	 mov	 dl, BYTE PTR [eax+27]
  001da	84 d2		 test	 dl, dl
  001dc	0f 84 aa 00 00
	00		 je	 $LN69@LoadInt_e@5
  001e2	80 f2 ea	 xor	 dl, -22			; ffffffeaH
  001e5	88 55 f3	 mov	 BYTE PTR __k$[ebp+27], dl
  001e8	8a 50 1c	 mov	 dl, BYTE PTR [eax+28]
  001eb	84 d2		 test	 dl, dl
  001ed	0f 84 90 00 00
	00		 je	 $LN68@LoadInt_e@5
  001f3	80 f2 ed	 xor	 dl, -19			; ffffffedH
  001f6	88 55 f4	 mov	 BYTE PTR __k$[ebp+28], dl
  001f9	8a 50 1d	 mov	 dl, BYTE PTR [eax+29]
  001fc	84 d2		 test	 dl, dl
  001fe	74 7b		 je	 SHORT $LN67@LoadInt_e@5
  00200	32 d3		 xor	 dl, bl
  00202	88 55 f5	 mov	 BYTE PTR __k$[ebp+29], dl
  00205	8a 50 1e	 mov	 dl, BYTE PTR [eax+30]
  00208	84 d2		 test	 dl, dl
  0020a	74 67		 je	 SHORT $LN66@LoadInt_e@5
  0020c	32 d1		 xor	 dl, cl
  0020e	80 78 1f 00	 cmp	 BYTE PTR [eax+31], 0
  00212	88 55 f6	 mov	 BYTE PTR __k$[ebp+30], dl
  00215	0f 84 17 01 00
	00		 je	 $LN1@LoadInt_e@5
  0021b	8a 50 20	 mov	 dl, BYTE PTR [eax+32]
  0021e	84 d2		 test	 dl, dl
  00220	74 48		 je	 SHORT $LN64@LoadInt_e@5
  00222	80 f2 ed	 xor	 dl, -19			; ffffffedH
  00225	88 55 f8	 mov	 BYTE PTR __k$[ebp+32], dl
  00228	8a 50 21	 mov	 dl, BYTE PTR [eax+33]
  0022b	84 d2		 test	 dl, dl
  0022d	74 33		 je	 SHORT $LN63@LoadInt_e@5
  0022f	32 d3		 xor	 dl, bl
  00231	88 55 f9	 mov	 BYTE PTR __k$[ebp+33], dl
  00234	8a 50 22	 mov	 dl, BYTE PTR [eax+34]
  00237	84 d2		 test	 dl, dl
  00239	74 1f		 je	 SHORT $LN62@LoadInt_e@5
  0023b	8a 40 23	 mov	 al, BYTE PTR [eax+35]
  0023e	32 d1		 xor	 dl, cl
  00240	88 55 fa	 mov	 BYTE PTR __k$[ebp+34], dl
  00243	84 c0		 test	 al, al
  00245	74 0a		 je	 SHORT $LN61@LoadInt_e@5
  00247	34 ea		 xor	 al, -22			; ffffffeaH
  00249	88 45 fb	 mov	 BYTE PTR __k$[ebp+35], al
  0024c	e9 e1 00 00 00	 jmp	 $LN1@LoadInt_e@5
$LN61@LoadInt_e@5:
  00251	c6 45 fb ea	 mov	 BYTE PTR __k$[ebp+35], -22 ; ffffffeaH
  00255	e9 d8 00 00 00	 jmp	 $LN1@LoadInt_e@5
$LN62@LoadInt_e@5:
  0025a	88 4d fa	 mov	 BYTE PTR __k$[ebp+34], cl
  0025d	e9 d0 00 00 00	 jmp	 $LN1@LoadInt_e@5
$LN63@LoadInt_e@5:
  00262	88 5d f9	 mov	 BYTE PTR __k$[ebp+33], bl
  00265	e9 c8 00 00 00	 jmp	 $LN1@LoadInt_e@5
$LN64@LoadInt_e@5:
  0026a	c6 45 f8 ed	 mov	 BYTE PTR __k$[ebp+32], -19 ; ffffffedH
  0026e	e9 bf 00 00 00	 jmp	 $LN1@LoadInt_e@5
$LN66@LoadInt_e@5:
  00273	88 4d f6	 mov	 BYTE PTR __k$[ebp+30], cl
  00276	e9 b7 00 00 00	 jmp	 $LN1@LoadInt_e@5
$LN67@LoadInt_e@5:
  0027b	88 5d f5	 mov	 BYTE PTR __k$[ebp+29], bl
  0027e	e9 af 00 00 00	 jmp	 $LN1@LoadInt_e@5
$LN68@LoadInt_e@5:
  00283	c6 45 f4 ed	 mov	 BYTE PTR __k$[ebp+28], -19 ; ffffffedH
  00287	e9 a6 00 00 00	 jmp	 $LN1@LoadInt_e@5
$LN69@LoadInt_e@5:
  0028c	c6 45 f3 ea	 mov	 BYTE PTR __k$[ebp+27], -22 ; ffffffeaH
  00290	e9 9d 00 00 00	 jmp	 $LN1@LoadInt_e@5
$LN70@LoadInt_e@5:
  00295	88 4d f2	 mov	 BYTE PTR __k$[ebp+26], cl
  00298	e9 95 00 00 00	 jmp	 $LN1@LoadInt_e@5
$LN71@LoadInt_e@5:
  0029d	88 5d f1	 mov	 BYTE PTR __k$[ebp+25], bl
  002a0	e9 8d 00 00 00	 jmp	 $LN1@LoadInt_e@5
$LN72@LoadInt_e@5:
  002a5	c6 45 f0 ed	 mov	 BYTE PTR __k$[ebp+24], -19 ; ffffffedH
  002a9	e9 84 00 00 00	 jmp	 $LN1@LoadInt_e@5
$LN73@LoadInt_e@5:
  002ae	c6 45 ef ea	 mov	 BYTE PTR __k$[ebp+23], -22 ; ffffffeaH
  002b2	eb 7e		 jmp	 SHORT $LN1@LoadInt_e@5
$LN74@LoadInt_e@5:
  002b4	88 4d ee	 mov	 BYTE PTR __k$[ebp+22], cl
  002b7	eb 79		 jmp	 SHORT $LN1@LoadInt_e@5
$LN75@LoadInt_e@5:
  002b9	88 5d ed	 mov	 BYTE PTR __k$[ebp+21], bl
  002bc	eb 74		 jmp	 SHORT $LN1@LoadInt_e@5
$LN76@LoadInt_e@5:
  002be	c6 45 ec ed	 mov	 BYTE PTR __k$[ebp+20], -19 ; ffffffedH
  002c2	eb 6e		 jmp	 SHORT $LN1@LoadInt_e@5
$LN77@LoadInt_e@5:
  002c4	c6 45 eb ea	 mov	 BYTE PTR __k$[ebp+19], -22 ; ffffffeaH
  002c8	eb 68		 jmp	 SHORT $LN1@LoadInt_e@5
$LN78@LoadInt_e@5:
  002ca	88 4d ea	 mov	 BYTE PTR __k$[ebp+18], cl
  002cd	eb 63		 jmp	 SHORT $LN1@LoadInt_e@5
$LN79@LoadInt_e@5:
  002cf	88 5d e9	 mov	 BYTE PTR __k$[ebp+17], bl
  002d2	eb 5e		 jmp	 SHORT $LN1@LoadInt_e@5
$LN80@LoadInt_e@5:
  002d4	c6 45 e8 ed	 mov	 BYTE PTR __k$[ebp+16], -19 ; ffffffedH
  002d8	eb 58		 jmp	 SHORT $LN1@LoadInt_e@5
$LN81@LoadInt_e@5:
  002da	c6 45 e7 ea	 mov	 BYTE PTR __k$[ebp+15], -22 ; ffffffeaH
  002de	eb 52		 jmp	 SHORT $LN1@LoadInt_e@5
$LN82@LoadInt_e@5:
  002e0	88 4d e6	 mov	 BYTE PTR __k$[ebp+14], cl
  002e3	eb 4d		 jmp	 SHORT $LN1@LoadInt_e@5
$LN83@LoadInt_e@5:
  002e5	88 5d e5	 mov	 BYTE PTR __k$[ebp+13], bl
  002e8	eb 48		 jmp	 SHORT $LN1@LoadInt_e@5
$LN84@LoadInt_e@5:
  002ea	c6 45 e4 ed	 mov	 BYTE PTR __k$[ebp+12], -19 ; ffffffedH
  002ee	eb 42		 jmp	 SHORT $LN1@LoadInt_e@5
$LN85@LoadInt_e@5:
  002f0	c6 45 e3 ea	 mov	 BYTE PTR __k$[ebp+11], -22 ; ffffffeaH
  002f4	eb 3c		 jmp	 SHORT $LN1@LoadInt_e@5
$LN86@LoadInt_e@5:
  002f6	88 4d e2	 mov	 BYTE PTR __k$[ebp+10], cl
  002f9	eb 37		 jmp	 SHORT $LN1@LoadInt_e@5
$LN87@LoadInt_e@5:
  002fb	88 5d e1	 mov	 BYTE PTR __k$[ebp+9], bl
  002fe	eb 32		 jmp	 SHORT $LN1@LoadInt_e@5
$LN88@LoadInt_e@5:
  00300	c6 45 e0 ed	 mov	 BYTE PTR __k$[ebp+8], -19 ; ffffffedH
  00304	eb 2c		 jmp	 SHORT $LN1@LoadInt_e@5
$LN89@LoadInt_e@5:
  00306	c6 45 df ea	 mov	 BYTE PTR __k$[ebp+7], -22 ; ffffffeaH
  0030a	eb 26		 jmp	 SHORT $LN1@LoadInt_e@5
$LN90@LoadInt_e@5:
  0030c	88 4d de	 mov	 BYTE PTR __k$[ebp+6], cl
  0030f	eb 21		 jmp	 SHORT $LN1@LoadInt_e@5
$LN91@LoadInt_e@5:
  00311	88 5d dd	 mov	 BYTE PTR __k$[ebp+5], bl
  00314	eb 1c		 jmp	 SHORT $LN1@LoadInt_e@5
$LN92@LoadInt_e@5:
  00316	c6 45 dc ed	 mov	 BYTE PTR __k$[ebp+4], -19 ; ffffffedH
  0031a	eb 16		 jmp	 SHORT $LN1@LoadInt_e@5
$LN93@LoadInt_e@5:
  0031c	c6 45 db ea	 mov	 BYTE PTR __k$[ebp+3], -22 ; ffffffeaH
  00320	eb 10		 jmp	 SHORT $LN1@LoadInt_e@5
$LN94@LoadInt_e@5:
  00322	c6 45 da eb	 mov	 BYTE PTR __k$[ebp+2], -21 ; ffffffebH
  00326	eb 0a		 jmp	 SHORT $LN1@LoadInt_e@5
$LN95@LoadInt_e@5:
  00328	c6 45 d9 ec	 mov	 BYTE PTR __k$[ebp+1], -20 ; ffffffecH
  0032c	eb 04		 jmp	 SHORT $LN1@LoadInt_e@5
$LN96@LoadInt_e@5:
  0032e	c6 45 d8 ed	 mov	 BYTE PTR __k$[ebp], -19	; ffffffedH
$LN1@LoadInt_e@5:
  00332	6a 07		 push	 7
  00334	8d 45 d8	 lea	 eax, DWORD PTR __k$[ebp]
  00337	c6 45 f7 00	 mov	 BYTE PTR __k$[ebp+31], 0
  0033b	5a		 pop	 edx
$LL104@LoadInt_e@5:
  0033c	81 30 ed ec eb
	ea		 xor	 DWORD PTR [eax], -353637139 ; eaebecedH
  00342	83 c0 04	 add	 eax, 4
  00345	4a		 dec	 edx
  00346	75 f4		 jne	 SHORT $LL104@LoadInt_e@5
  00348	6a 1c		 push	 28			; 0000001cH
  0034a	58		 pop	 eax
$LL101@LoadInt_e@5:
  0034b	8b c8		 mov	 ecx, eax
  0034d	81 e1 03 00 00
	80		 and	 ecx, -2147483645	; 80000003H
  00353	79 05		 jns	 SHORT $LN111@LoadInt_e@5
  00355	49		 dec	 ecx
  00356	83 c9 fc	 or	 ecx, -4			; fffffffcH
  00359	41		 inc	 ecx
$LN111@LoadInt_e@5:
  0035a	b2 ed		 mov	 dl, -19			; ffffffedH
  0035c	2a d1		 sub	 dl, cl
  0035e	30 54 05 d8	 xor	 BYTE PTR __k$[ebp+eax], dl
  00362	40		 inc	 eax
  00363	83 f8 1f	 cmp	 eax, 31			; 0000001fH
  00366	7c e3		 jl	 SHORT $LL101@LoadInt_e@5

; 120  : 		return LoadInt(_k, i);

  00368	ff 75 0c	 push	 DWORD PTR _i$[ebp]
  0036b	8d 45 d8	 lea	 eax, DWORD PTR __k$[ebp]
  0036e	50		 push	 eax
  0036f	8b ce		 mov	 ecx, esi
  00371	ff 15 00 00 00
	00		 call	 DWORD PTR __imp_?LoadInt@ioINILoader@@QAEHPBDH@Z

; 121  : 	}

  00377	8b 4d fc	 mov	 ecx, DWORD PTR __$ArrayPad$[ebp]
  0037a	5e		 pop	 esi
  0037b	33 cd		 xor	 ecx, ebp
  0037d	5b		 pop	 ebx
  0037e	e8 00 00 00 00	 call	 @__security_check_cookie@4
  00383	c9		 leave
  00384	c2 08 00	 ret	 8
??$LoadInt_e@$0CA@@ioINILoader@@QAEHAAY0CA@$$CBDH@Z ENDP ; ioINILoader::LoadInt_e<32>
_TEXT	ENDS
PUBLIC	??$GetAnimationEventTime_e@$0L@@ioEntityGroup@@QAEMHAAY0L@$$CBD@Z ; ioEntityGroup::GetAnimationEventTime_e<11>
EXTRN	__imp_?GetAnimationEventTime@ioEntityGroup@@QAEMHABVioHashString@@@Z:PROC
;	COMDAT xdata$x
; File d:\lost saga for developer\youtube\tutorial\source\src\lsclient\stringprotect.h
xdata$x	SEGMENT
__unwindtable$??$GetAnimationEventTime_e@$0L@@ioEntityGroup@@QAEMHAAY0L@$$CBD@Z DD 0ffffffffH
	DD	FLAT:__unwindfunclet$??$GetAnimationEventTime_e@$0L@@ioEntityGroup@@QAEMHAAY0L@$$CBD@Z$0
__ehfuncinfo$??$GetAnimationEventTime_e@$0L@@ioEntityGroup@@QAEMHAAY0L@$$CBD@Z DD 019930522H
	DD	01H
	DD	FLAT:__unwindtable$??$GetAnimationEventTime_e@$0L@@ioEntityGroup@@QAEMHAAY0L@$$CBD@Z
	DD	2 DUP(00H)
	DD	2 DUP(00H)
	DD	00H
	DD	01H
; Function compile flags: /Ogsp
; File d:\lost saga for developer\youtube\tutorial\source\src\io3dengine\ioentitygroup.h
xdata$x	ENDS
;	COMDAT ??$GetAnimationEventTime_e@$0L@@ioEntityGroup@@QAEMHAAY0L@$$CBD@Z
_TEXT	SEGMENT
$T534892 = -52						; size = 16
$T534891 = -36						; size = 4
_szEncEventType$ = -32					; size = 11
__$EHRec$ = -12						; size = 12
_id$ = 8						; size = 4
_szEventType$ = 12					; size = 4
??$GetAnimationEventTime_e@$0L@@ioEntityGroup@@QAEMHAAY0L@$$CBD@Z PROC ; ioEntityGroup::GetAnimationEventTime_e<11>, COMDAT
; _this$ = ecx

; 414  : 	{

  00000	6a 28		 push	 40			; 00000028H
  00002	b8 00 00 00 00	 mov	 eax, __ehhandler$??$GetAnimationEventTime_e@$0L@@ioEntityGroup@@QAEMHAAY0L@$$CBD@Z
  00007	e8 00 00 00 00	 call	 __EH_prolog3_GS
  0000c	8b 45 0c	 mov	 eax, DWORD PTR _szEventType$[ebp]
  0000f	8b f1		 mov	 esi, ecx

; 415  : 		_ENCSTR(szEventType, szEncEventType);

  00011	8a 08		 mov	 cl, BYTE PTR [eax]
  00013	84 c9		 test	 cl, cl
  00015	0f 84 1b 01 00
	00		 je	 $LN96@GetAnimati
  0001b	b2 ed		 mov	 dl, -19			; ffffffedH
  0001d	32 ca		 xor	 cl, dl
  0001f	88 4d e0	 mov	 BYTE PTR _szEncEventType$[ebp], cl
  00022	8a 48 01	 mov	 cl, BYTE PTR [eax+1]
  00025	84 c9		 test	 cl, cl
  00027	0f 84 03 01 00
	00		 je	 $LN95@GetAnimati
  0002d	80 f1 ec	 xor	 cl, -20			; ffffffecH
  00030	88 4d e1	 mov	 BYTE PTR _szEncEventType$[ebp+1], cl
  00033	8a 48 02	 mov	 cl, BYTE PTR [eax+2]
  00036	84 c9		 test	 cl, cl
  00038	0f 84 ec 00 00
	00		 je	 $LN94@GetAnimati
  0003e	80 f1 eb	 xor	 cl, -21			; ffffffebH
  00041	88 4d e2	 mov	 BYTE PTR _szEncEventType$[ebp+2], cl
  00044	8a 48 03	 mov	 cl, BYTE PTR [eax+3]
  00047	84 c9		 test	 cl, cl
  00049	0f 84 d5 00 00
	00		 je	 $LN93@GetAnimati
  0004f	80 f1 ea	 xor	 cl, -22			; ffffffeaH
  00052	88 4d e3	 mov	 BYTE PTR _szEncEventType$[ebp+3], cl
  00055	8a 48 04	 mov	 cl, BYTE PTR [eax+4]
  00058	84 c9		 test	 cl, cl
  0005a	0f 84 bf 00 00
	00		 je	 $LN92@GetAnimati
  00060	32 ca		 xor	 cl, dl
  00062	88 4d e4	 mov	 BYTE PTR _szEncEventType$[ebp+4], cl
  00065	8a 48 05	 mov	 cl, BYTE PTR [eax+5]
  00068	84 c9		 test	 cl, cl
  0006a	0f 84 a9 00 00
	00		 je	 $LN91@GetAnimati
  00070	80 f1 ec	 xor	 cl, -20			; ffffffecH
  00073	88 4d e5	 mov	 BYTE PTR _szEncEventType$[ebp+5], cl
  00076	8a 48 06	 mov	 cl, BYTE PTR [eax+6]
  00079	84 c9		 test	 cl, cl
  0007b	0f 84 92 00 00
	00		 je	 $LN90@GetAnimati
  00081	80 f1 eb	 xor	 cl, -21			; ffffffebH
  00084	88 4d e6	 mov	 BYTE PTR _szEncEventType$[ebp+6], cl
  00087	8a 48 07	 mov	 cl, BYTE PTR [eax+7]
  0008a	84 c9		 test	 cl, cl
  0008c	74 7f		 je	 SHORT $LN89@GetAnimati
  0008e	80 f1 ea	 xor	 cl, -22			; ffffffeaH
  00091	88 4d e7	 mov	 BYTE PTR _szEncEventType$[ebp+7], cl
  00094	8a 48 08	 mov	 cl, BYTE PTR [eax+8]
  00097	84 c9		 test	 cl, cl
  00099	74 6d		 je	 SHORT $LN88@GetAnimati
  0009b	32 ca		 xor	 cl, dl
  0009d	88 4d e8	 mov	 BYTE PTR _szEncEventType$[ebp+8], cl
  000a0	8a 48 09	 mov	 cl, BYTE PTR [eax+9]
  000a3	84 c9		 test	 cl, cl
  000a5	74 5b		 je	 SHORT $LN87@GetAnimati
  000a7	80 f1 ec	 xor	 cl, -20			; ffffffecH
  000aa	80 78 0a 00	 cmp	 BYTE PTR [eax+10], 0
  000ae	88 4d e9	 mov	 BYTE PTR _szEncEventType$[ebp+9], cl
  000b1	0f 84 83 00 00
	00		 je	 $LN1@GetAnimati
  000b7	8a 48 0b	 mov	 cl, BYTE PTR [eax+11]
  000ba	84 c9		 test	 cl, cl
  000bc	74 3e		 je	 SHORT $LN85@GetAnimati
  000be	80 f1 ea	 xor	 cl, -22			; ffffffeaH
  000c1	88 4d eb	 mov	 BYTE PTR _szEncEventType$[ebp+11], cl
  000c4	8a 48 0c	 mov	 cl, BYTE PTR [eax+12]
  000c7	84 c9		 test	 cl, cl
  000c9	74 2c		 je	 SHORT $LN84@GetAnimati
  000cb	32 ca		 xor	 cl, dl
  000cd	88 4d ec	 mov	 BYTE PTR _szEncEventType$[ebp+12], cl
  000d0	8a 48 0d	 mov	 cl, BYTE PTR [eax+13]
  000d3	84 c9		 test	 cl, cl
  000d5	74 1a		 je	 SHORT $LN83@GetAnimati
  000d7	8a 40 0e	 mov	 al, BYTE PTR [eax+14]
  000da	80 f1 ec	 xor	 cl, -20			; ffffffecH
  000dd	88 4d ed	 mov	 BYTE PTR _szEncEventType$[ebp+13], cl
  000e0	84 c0		 test	 al, al
  000e2	74 07		 je	 SHORT $LN82@GetAnimati
  000e4	34 eb		 xor	 al, -21			; ffffffebH
  000e6	88 45 ee	 mov	 BYTE PTR _szEncEventType$[ebp+14], al
  000e9	eb 4f		 jmp	 SHORT $LN1@GetAnimati
$LN82@GetAnimati:
  000eb	c6 45 ee eb	 mov	 BYTE PTR _szEncEventType$[ebp+14], -21 ; ffffffebH
  000ef	eb 49		 jmp	 SHORT $LN1@GetAnimati
$LN83@GetAnimati:
  000f1	c6 45 ed ec	 mov	 BYTE PTR _szEncEventType$[ebp+13], -20 ; ffffffecH
  000f5	eb 43		 jmp	 SHORT $LN1@GetAnimati
$LN84@GetAnimati:
  000f7	88 55 ec	 mov	 BYTE PTR _szEncEventType$[ebp+12], dl
  000fa	eb 3e		 jmp	 SHORT $LN1@GetAnimati
$LN85@GetAnimati:
  000fc	c6 45 eb ea	 mov	 BYTE PTR _szEncEventType$[ebp+11], -22 ; ffffffeaH
  00100	eb 38		 jmp	 SHORT $LN1@GetAnimati
$LN87@GetAnimati:
  00102	c6 45 e9 ec	 mov	 BYTE PTR _szEncEventType$[ebp+9], -20 ; ffffffecH
  00106	eb 32		 jmp	 SHORT $LN1@GetAnimati
$LN88@GetAnimati:
  00108	88 55 e8	 mov	 BYTE PTR _szEncEventType$[ebp+8], dl
  0010b	eb 2d		 jmp	 SHORT $LN1@GetAnimati
$LN89@GetAnimati:
  0010d	c6 45 e7 ea	 mov	 BYTE PTR _szEncEventType$[ebp+7], -22 ; ffffffeaH
  00111	eb 27		 jmp	 SHORT $LN1@GetAnimati
$LN90@GetAnimati:
  00113	c6 45 e6 eb	 mov	 BYTE PTR _szEncEventType$[ebp+6], -21 ; ffffffebH
  00117	eb 21		 jmp	 SHORT $LN1@GetAnimati
$LN91@GetAnimati:
  00119	c6 45 e5 ec	 mov	 BYTE PTR _szEncEventType$[ebp+5], -20 ; ffffffecH
  0011d	eb 1b		 jmp	 SHORT $LN1@GetAnimati
$LN92@GetAnimati:
  0011f	88 55 e4	 mov	 BYTE PTR _szEncEventType$[ebp+4], dl
  00122	eb 16		 jmp	 SHORT $LN1@GetAnimati
$LN93@GetAnimati:
  00124	c6 45 e3 ea	 mov	 BYTE PTR _szEncEventType$[ebp+3], -22 ; ffffffeaH
  00128	eb 10		 jmp	 SHORT $LN1@GetAnimati
$LN94@GetAnimati:
  0012a	c6 45 e2 eb	 mov	 BYTE PTR _szEncEventType$[ebp+2], -21 ; ffffffebH
  0012e	eb 0a		 jmp	 SHORT $LN1@GetAnimati
$LN95@GetAnimati:
  00130	c6 45 e1 ec	 mov	 BYTE PTR _szEncEventType$[ebp+1], -20 ; ffffffecH
  00134	eb 04		 jmp	 SHORT $LN1@GetAnimati
$LN96@GetAnimati:
  00136	c6 45 e0 ed	 mov	 BYTE PTR _szEncEventType$[ebp], -19 ; ffffffedH
$LN1@GetAnimati:
  0013a	6a 02		 push	 2
  0013c	8d 45 e0	 lea	 eax, DWORD PTR _szEncEventType$[ebp]
  0013f	c6 45 ea 00	 mov	 BYTE PTR _szEncEventType$[ebp+10], 0
  00143	59		 pop	 ecx
$LL105@GetAnimati:
  00144	81 30 ed ec eb
	ea		 xor	 DWORD PTR [eax], -353637139 ; eaebecedH
  0014a	83 c0 04	 add	 eax, 4
  0014d	49		 dec	 ecx
  0014e	75 f4		 jne	 SHORT $LL105@GetAnimati
  00150	6a 08		 push	 8
  00152	58		 pop	 eax
$LL102@GetAnimati:
  00153	8b c8		 mov	 ecx, eax
  00155	81 e1 03 00 00
	80		 and	 ecx, -2147483645	; 80000003H
  0015b	79 05		 jns	 SHORT $LN113@GetAnimati
  0015d	49		 dec	 ecx
  0015e	83 c9 fc	 or	 ecx, -4			; fffffffcH
  00161	41		 inc	 ecx
$LN113@GetAnimati:
  00162	b2 ed		 mov	 dl, -19			; ffffffedH
  00164	2a d1		 sub	 dl, cl
  00166	30 54 05 e0	 xor	 BYTE PTR _szEncEventType$[ebp+eax], dl
  0016a	40		 inc	 eax
  0016b	83 f8 0a	 cmp	 eax, 10			; 0000000aH
  0016e	7c e3		 jl	 SHORT $LL102@GetAnimati

; 416  : 		return GetAnimationEventTime(id, szEncEventType);

  00170	8d 45 e0	 lea	 eax, DWORD PTR _szEncEventType$[ebp]
  00173	50		 push	 eax
  00174	8d 4d cc	 lea	 ecx, DWORD PTR $T534892[ebp]
  00177	ff 15 00 00 00
	00		 call	 DWORD PTR __imp_??0ioHashString@@QAE@PBD@Z
  0017d	83 65 fc 00	 and	 DWORD PTR __$EHRec$[ebp+8], 0
  00181	8d 45 cc	 lea	 eax, DWORD PTR $T534892[ebp]
  00184	50		 push	 eax
  00185	ff 75 08	 push	 DWORD PTR _id$[ebp]
  00188	8b ce		 mov	 ecx, esi
  0018a	ff 15 00 00 00
	00		 call	 DWORD PTR __imp_?GetAnimationEventTime@ioEntityGroup@@QAEMHABVioHashString@@@Z
  00190	d9 5d dc	 fstp	 DWORD PTR $T534891[ebp]
  00193	83 4d fc ff	 or	 DWORD PTR __$EHRec$[ebp+8], -1
  00197	8d 4d cc	 lea	 ecx, DWORD PTR $T534892[ebp]
  0019a	ff 15 00 00 00
	00		 call	 DWORD PTR __imp_??1ioHashString@@QAE@XZ
  001a0	d9 45 dc	 fld	 DWORD PTR $T534891[ebp]

; 417  : 	}

  001a3	e8 00 00 00 00	 call	 __EH_epilog3_GS
  001a8	c2 08 00	 ret	 8
_TEXT	ENDS
;	COMDAT text$x
text$x	SEGMENT
__unwindfunclet$??$GetAnimationEventTime_e@$0L@@ioEntityGroup@@QAEMHAAY0L@$$CBD@Z$0:
  00000	8d 4d cc	 lea	 ecx, DWORD PTR $T534892[ebp]
  00003	ff 25 00 00 00
	00		 jmp	 DWORD PTR __imp_??1ioHashString@@QAE@XZ
__ehhandler$??$GetAnimationEventTime_e@$0L@@ioEntityGroup@@QAEMHAAY0L@$$CBD@Z:
  00009	8b 54 24 08	 mov	 edx, DWORD PTR [esp+8]
  0000d	8d 42 0c	 lea	 eax, DWORD PTR [edx+12]
  00010	8b 4a c8	 mov	 ecx, DWORD PTR [edx-56]
  00013	33 c8		 xor	 ecx, eax
  00015	e8 00 00 00 00	 call	 @__security_check_cookie@4
  0001a	8b 4a fc	 mov	 ecx, DWORD PTR [edx-4]
  0001d	33 c8		 xor	 ecx, eax
  0001f	e8 00 00 00 00	 call	 @__security_check_cookie@4
  00024	b8 00 00 00 00	 mov	 eax, OFFSET __ehfuncinfo$??$GetAnimationEventTime_e@$0L@@ioEntityGroup@@QAEMHAAY0L@$$CBD@Z
  00029	e9 00 00 00 00	 jmp	 ___CxxFrameHandler3
text$x	ENDS
??$GetAnimationEventTime_e@$0L@@ioEntityGroup@@QAEMHAAY0L@$$CBD@Z ENDP ; ioEntityGroup::GetAnimationEventTime_e<11>
PUBLIC	??$GetAnimationEventTime_e@$06@ioEntityGroup@@QAEMHAAY06$$CBD@Z ; ioEntityGroup::GetAnimationEventTime_e<7>
;	COMDAT xdata$x
; File d:\lost saga for developer\youtube\tutorial\source\src\lsclient\stringprotect.h
xdata$x	SEGMENT
__unwindtable$??$GetAnimationEventTime_e@$06@ioEntityGroup@@QAEMHAAY06$$CBD@Z DD 0ffffffffH
	DD	FLAT:__unwindfunclet$??$GetAnimationEventTime_e@$06@ioEntityGroup@@QAEMHAAY06$$CBD@Z$0
__ehfuncinfo$??$GetAnimationEventTime_e@$06@ioEntityGroup@@QAEMHAAY06$$CBD@Z DD 019930522H
	DD	01H
	DD	FLAT:__unwindtable$??$GetAnimationEventTime_e@$06@ioEntityGroup@@QAEMHAAY06$$CBD@Z
	DD	2 DUP(00H)
	DD	2 DUP(00H)
	DD	00H
	DD	01H
; Function compile flags: /Ogsp
; File d:\lost saga for developer\youtube\tutorial\source\src\io3dengine\ioentitygroup.h
xdata$x	ENDS
;	COMDAT ??$GetAnimationEventTime_e@$06@ioEntityGroup@@QAEMHAAY06$$CBD@Z
_TEXT	SEGMENT
$T534923 = -48						; size = 16
$T534922 = -32						; size = 4
_szEncEventType$ = -28					; size = 7
__$EHRec$ = -12						; size = 12
_id$ = 8						; size = 4
_szEventType$ = 12					; size = 4
??$GetAnimationEventTime_e@$06@ioEntityGroup@@QAEMHAAY06$$CBD@Z PROC ; ioEntityGroup::GetAnimationEventTime_e<7>, COMDAT
; _this$ = ecx

; 414  : 	{

  00000	6a 24		 push	 36			; 00000024H
  00002	b8 00 00 00 00	 mov	 eax, __ehhandler$??$GetAnimationEventTime_e@$06@ioEntityGroup@@QAEMHAAY06$$CBD@Z
  00007	e8 00 00 00 00	 call	 __EH_prolog3_GS
  0000c	8b 45 0c	 mov	 eax, DWORD PTR _szEventType$[ebp]
  0000f	8b f1		 mov	 esi, ecx

; 415  : 		_ENCSTR(szEventType, szEncEventType);

  00011	8a 08		 mov	 cl, BYTE PTR [eax]
  00013	84 c9		 test	 cl, cl
  00015	0f 84 c0 00 00
	00		 je	 $LN96@GetAnimati@2
  0001b	80 f1 ed	 xor	 cl, -19			; ffffffedH
  0001e	88 4d e4	 mov	 BYTE PTR _szEncEventType$[ebp], cl
  00021	8a 48 01	 mov	 cl, BYTE PTR [eax+1]
  00024	84 c9		 test	 cl, cl
  00026	0f 84 a9 00 00
	00		 je	 $LN95@GetAnimati@2
  0002c	80 f1 ec	 xor	 cl, -20			; ffffffecH
  0002f	88 4d e5	 mov	 BYTE PTR _szEncEventType$[ebp+1], cl
  00032	8a 48 02	 mov	 cl, BYTE PTR [eax+2]
  00035	84 c9		 test	 cl, cl
  00037	0f 84 92 00 00
	00		 je	 $LN94@GetAnimati@2
  0003d	80 f1 eb	 xor	 cl, -21			; ffffffebH
  00040	88 4d e6	 mov	 BYTE PTR _szEncEventType$[ebp+2], cl
  00043	8a 48 03	 mov	 cl, BYTE PTR [eax+3]
  00046	84 c9		 test	 cl, cl
  00048	74 7f		 je	 SHORT $LN93@GetAnimati@2
  0004a	80 f1 ea	 xor	 cl, -22			; ffffffeaH
  0004d	88 4d e7	 mov	 BYTE PTR _szEncEventType$[ebp+3], cl
  00050	8a 48 04	 mov	 cl, BYTE PTR [eax+4]
  00053	84 c9		 test	 cl, cl
  00055	74 6c		 je	 SHORT $LN92@GetAnimati@2
  00057	80 f1 ed	 xor	 cl, -19			; ffffffedH
  0005a	88 4d e8	 mov	 BYTE PTR _szEncEventType$[ebp+4], cl
  0005d	8a 48 05	 mov	 cl, BYTE PTR [eax+5]
  00060	84 c9		 test	 cl, cl
  00062	74 59		 je	 SHORT $LN91@GetAnimati@2
  00064	80 f1 ec	 xor	 cl, -20			; ffffffecH
  00067	80 78 06 00	 cmp	 BYTE PTR [eax+6], 0
  0006b	88 4d e9	 mov	 BYTE PTR _szEncEventType$[ebp+5], cl
  0006e	74 6f		 je	 SHORT $LN1@GetAnimati@2
  00070	8a 48 07	 mov	 cl, BYTE PTR [eax+7]
  00073	84 c9		 test	 cl, cl
  00075	74 40		 je	 SHORT $LN89@GetAnimati@2
  00077	80 f1 ea	 xor	 cl, -22			; ffffffeaH
  0007a	88 4d eb	 mov	 BYTE PTR _szEncEventType$[ebp+7], cl
  0007d	8a 48 08	 mov	 cl, BYTE PTR [eax+8]
  00080	84 c9		 test	 cl, cl
  00082	74 2d		 je	 SHORT $LN88@GetAnimati@2
  00084	80 f1 ed	 xor	 cl, -19			; ffffffedH
  00087	88 4d ec	 mov	 BYTE PTR _szEncEventType$[ebp+8], cl
  0008a	8a 48 09	 mov	 cl, BYTE PTR [eax+9]
  0008d	84 c9		 test	 cl, cl
  0008f	74 1a		 je	 SHORT $LN87@GetAnimati@2
  00091	8a 40 0a	 mov	 al, BYTE PTR [eax+10]
  00094	80 f1 ec	 xor	 cl, -20			; ffffffecH
  00097	88 4d ed	 mov	 BYTE PTR _szEncEventType$[ebp+9], cl
  0009a	84 c0		 test	 al, al
  0009c	74 07		 je	 SHORT $LN86@GetAnimati@2
  0009e	34 eb		 xor	 al, -21			; ffffffebH
  000a0	88 45 ee	 mov	 BYTE PTR _szEncEventType$[ebp+10], al
  000a3	eb 3a		 jmp	 SHORT $LN1@GetAnimati@2
$LN86@GetAnimati@2:
  000a5	c6 45 ee eb	 mov	 BYTE PTR _szEncEventType$[ebp+10], -21 ; ffffffebH
  000a9	eb 34		 jmp	 SHORT $LN1@GetAnimati@2
$LN87@GetAnimati@2:
  000ab	c6 45 ed ec	 mov	 BYTE PTR _szEncEventType$[ebp+9], -20 ; ffffffecH
  000af	eb 2e		 jmp	 SHORT $LN1@GetAnimati@2
$LN88@GetAnimati@2:
  000b1	c6 45 ec ed	 mov	 BYTE PTR _szEncEventType$[ebp+8], -19 ; ffffffedH
  000b5	eb 28		 jmp	 SHORT $LN1@GetAnimati@2
$LN89@GetAnimati@2:
  000b7	c6 45 eb ea	 mov	 BYTE PTR _szEncEventType$[ebp+7], -22 ; ffffffeaH
  000bb	eb 22		 jmp	 SHORT $LN1@GetAnimati@2
$LN91@GetAnimati@2:
  000bd	c6 45 e9 ec	 mov	 BYTE PTR _szEncEventType$[ebp+5], -20 ; ffffffecH
  000c1	eb 1c		 jmp	 SHORT $LN1@GetAnimati@2
$LN92@GetAnimati@2:
  000c3	c6 45 e8 ed	 mov	 BYTE PTR _szEncEventType$[ebp+4], -19 ; ffffffedH
  000c7	eb 16		 jmp	 SHORT $LN1@GetAnimati@2
$LN93@GetAnimati@2:
  000c9	c6 45 e7 ea	 mov	 BYTE PTR _szEncEventType$[ebp+3], -22 ; ffffffeaH
  000cd	eb 10		 jmp	 SHORT $LN1@GetAnimati@2
$LN94@GetAnimati@2:
  000cf	c6 45 e6 eb	 mov	 BYTE PTR _szEncEventType$[ebp+2], -21 ; ffffffebH
  000d3	eb 0a		 jmp	 SHORT $LN1@GetAnimati@2
$LN95@GetAnimati@2:
  000d5	c6 45 e5 ec	 mov	 BYTE PTR _szEncEventType$[ebp+1], -20 ; ffffffecH
  000d9	eb 04		 jmp	 SHORT $LN1@GetAnimati@2
$LN96@GetAnimati@2:
  000db	c6 45 e4 ed	 mov	 BYTE PTR _szEncEventType$[ebp], -19 ; ffffffedH
$LN1@GetAnimati@2:
  000df	81 75 e4 ed ec
	eb ea		 xor	 DWORD PTR _szEncEventType$[ebp], -353637139 ; eaebecedH
  000e6	6a 04		 push	 4
  000e8	c6 45 ea 00	 mov	 BYTE PTR _szEncEventType$[ebp+6], 0
  000ec	58		 pop	 eax
$LL102@GetAnimati@2:
  000ed	8b c8		 mov	 ecx, eax
  000ef	81 e1 03 00 00
	80		 and	 ecx, -2147483645	; 80000003H
  000f5	79 05		 jns	 SHORT $LN113@GetAnimati@2
  000f7	49		 dec	 ecx
  000f8	83 c9 fc	 or	 ecx, -4			; fffffffcH
  000fb	41		 inc	 ecx
$LN113@GetAnimati@2:
  000fc	b2 ed		 mov	 dl, -19			; ffffffedH
  000fe	2a d1		 sub	 dl, cl
  00100	30 54 05 e4	 xor	 BYTE PTR _szEncEventType$[ebp+eax], dl
  00104	40		 inc	 eax
  00105	83 f8 06	 cmp	 eax, 6
  00108	7c e3		 jl	 SHORT $LL102@GetAnimati@2

; 416  : 		return GetAnimationEventTime(id, szEncEventType);

  0010a	8d 45 e4	 lea	 eax, DWORD PTR _szEncEventType$[ebp]
  0010d	50		 push	 eax
  0010e	8d 4d d0	 lea	 ecx, DWORD PTR $T534923[ebp]
  00111	ff 15 00 00 00
	00		 call	 DWORD PTR __imp_??0ioHashString@@QAE@PBD@Z
  00117	83 65 fc 00	 and	 DWORD PTR __$EHRec$[ebp+8], 0
  0011b	8d 45 d0	 lea	 eax, DWORD PTR $T534923[ebp]
  0011e	50		 push	 eax
  0011f	ff 75 08	 push	 DWORD PTR _id$[ebp]
  00122	8b ce		 mov	 ecx, esi
  00124	ff 15 00 00 00
	00		 call	 DWORD PTR __imp_?GetAnimationEventTime@ioEntityGroup@@QAEMHABVioHashString@@@Z
  0012a	d9 5d e0	 fstp	 DWORD PTR $T534922[ebp]
  0012d	83 4d fc ff	 or	 DWORD PTR __$EHRec$[ebp+8], -1
  00131	8d 4d d0	 lea	 ecx, DWORD PTR $T534923[ebp]
  00134	ff 15 00 00 00
	00		 call	 DWORD PTR __imp_??1ioHashString@@QAE@XZ
  0013a	d9 45 e0	 fld	 DWORD PTR $T534922[ebp]

; 417  : 	}

  0013d	e8 00 00 00 00	 call	 __EH_epilog3_GS
  00142	c2 08 00	 ret	 8
_TEXT	ENDS
;	COMDAT text$x
text$x	SEGMENT
__unwindfunclet$??$GetAnimationEventTime_e@$06@ioEntityGroup@@QAEMHAAY06$$CBD@Z$0:
  00000	8d 4d d0	 lea	 ecx, DWORD PTR $T534923[ebp]
  00003	ff 25 00 00 00
	00		 jmp	 DWORD PTR __imp_??1ioHashString@@QAE@XZ
__ehhandler$??$GetAnimationEventTime_e@$06@ioEntityGroup@@QAEMHAAY06$$CBD@Z:
  00009	8b 54 24 08	 mov	 edx, DWORD PTR [esp+8]
  0000d	8d 42 0c	 lea	 eax, DWORD PTR [edx+12]
  00010	8b 4a cc	 mov	 ecx, DWORD PTR [edx-52]
  00013	33 c8		 xor	 ecx, eax
  00015	e8 00 00 00 00	 call	 @__security_check_cookie@4
  0001a	8b 4a fc	 mov	 ecx, DWORD PTR [edx-4]
  0001d	33 c8		 xor	 ecx, eax
  0001f	e8 00 00 00 00	 call	 @__security_check_cookie@4
  00024	b8 00 00 00 00	 mov	 eax, OFFSET __ehfuncinfo$??$GetAnimationEventTime_e@$06@ioEntityGroup@@QAEMHAAY06$$CBD@Z
  00029	e9 00 00 00 00	 jmp	 ___CxxFrameHandler3
text$x	ENDS
??$GetAnimationEventTime_e@$06@ioEntityGroup@@QAEMHAAY06$$CBD@Z ENDP ; ioEntityGroup::GetAnimationEventTime_e<7>
PUBLIC	??0?$CEncrypt@M@@QAE@XZ				; CEncrypt<float>::CEncrypt<float>
EXTRN	??0ccddaabb@@QAE@XZ:PROC			; ccddaabb::ccddaabb
EXTRN	__EH_epilog3:PROC
EXTRN	__EH_prolog3:PROC
;	COMDAT xdata$x
; File d:\lost saga for developer\youtube\tutorial\source\src\lsclient\encryptvalue.h
xdata$x	SEGMENT
__unwindtable$??0?$CEncrypt@M@@QAE@XZ DD 0ffffffffH
	DD	FLAT:__unwindfunclet$??0?$CEncrypt@M@@QAE@XZ$0
__ehfuncinfo$??0?$CEncrypt@M@@QAE@XZ DD 019930522H
	DD	01H
	DD	FLAT:__unwindtable$??0?$CEncrypt@M@@QAE@XZ
	DD	2 DUP(00H)
	DD	2 DUP(00H)
	DD	00H
	DD	01H
; Function compile flags: /Ogsp
xdata$x	ENDS
;	COMDAT ??0?$CEncrypt@M@@QAE@XZ
_TEXT	SEGMENT
_this$ = -16						; size = 4
__$EHRec$ = -12						; size = 12
??0?$CEncrypt@M@@QAE@XZ PROC				; CEncrypt<float>::CEncrypt<float>, COMDAT
; _this$ = ecx

; 109  : 	CEncrypt()

  00000	6a 04		 push	 4
  00002	b8 00 00 00 00	 mov	 eax, __ehhandler$??0?$CEncrypt@M@@QAE@XZ
  00007	e8 00 00 00 00	 call	 __EH_prolog3
  0000c	8b f1		 mov	 esi, ecx
  0000e	89 75 f0	 mov	 DWORD PTR _this$[ebp], esi
  00011	8d 4e 0c	 lea	 ecx, DWORD PTR [esi+12]
  00014	c7 06 00 00 00
	00		 mov	 DWORD PTR [esi], OFFSET ??_7?$CEncrypt@M@@6B@
  0001a	e8 00 00 00 00	 call	 ??0ccddaabb@@QAE@XZ	; ccddaabb::ccddaabb
  0001f	83 65 fc 00	 and	 DWORD PTR __$EHRec$[ebp+8], 0

; 110  : 	{
; 111  : 		Init();

  00023	8b ce		 mov	 ecx, esi
  00025	e8 00 00 00 00	 call	 ?Init@?$CEncrypt@M@@AAEXXZ ; CEncrypt<float>::Init

; 112  : 	}

  0002a	8b c6		 mov	 eax, esi
  0002c	e8 00 00 00 00	 call	 __EH_epilog3
  00031	c3		 ret	 0
_TEXT	ENDS
;	COMDAT text$x
text$x	SEGMENT
__unwindfunclet$??0?$CEncrypt@M@@QAE@XZ$0:
  00000	8b 4d f0	 mov	 ecx, DWORD PTR _this$[ebp]
  00003	83 c1 0c	 add	 ecx, 12			; 0000000cH
  00006	e9 00 00 00 00	 jmp	 ??1ccddaabb@@UAE@XZ	; ccddaabb::~ccddaabb
__ehhandler$??0?$CEncrypt@M@@QAE@XZ:
  0000b	8b 54 24 08	 mov	 edx, DWORD PTR [esp+8]
  0000f	8d 42 0c	 lea	 eax, DWORD PTR [edx+12]
  00012	8b 4a ec	 mov	 ecx, DWORD PTR [edx-20]
  00015	33 c8		 xor	 ecx, eax
  00017	e8 00 00 00 00	 call	 @__security_check_cookie@4
  0001c	b8 00 00 00 00	 mov	 eax, OFFSET __ehfuncinfo$??0?$CEncrypt@M@@QAE@XZ
  00021	e9 00 00 00 00	 jmp	 ___CxxFrameHandler3
text$x	ENDS
??0?$CEncrypt@M@@QAE@XZ ENDP				; CEncrypt<float>::CEncrypt<float>
PUBLIC	??B?$CEncrypt@M@@QAEMXZ				; CEncrypt<float>::operator float
; Function compile flags: /Ogsp
;	COMDAT ??B?$CEncrypt@M@@QAEMXZ
_TEXT	SEGMENT
_value$ = -4						; size = 4
??B?$CEncrypt@M@@QAEMXZ PROC				; CEncrypt<float>::operator float, COMDAT
; _this$ = ecx

; 134  : 	{

  00000	55		 push	 ebp
  00001	8b ec		 mov	 ebp, esp
  00003	51		 push	 ecx

; 135  : 		type value;
; 136  : 		DecryptValueToPool(&value);

  00004	8d 45 fc	 lea	 eax, DWORD PTR _value$[ebp]
  00007	50		 push	 eax
  00008	e8 00 00 00 00	 call	 ?DecryptValueToPool@?$CEncrypt@M@@QAEXPAM@Z ; CEncrypt<float>::DecryptValueToPool

; 137  : 
; 138  : #ifdef _NOTUSE
; 139  : 		Debug();
; 140  : #endif
; 141  : 		return value;

  0000d	d9 45 fc	 fld	 DWORD PTR _value$[ebp]

; 142  : 	}

  00010	c9		 leave
  00011	c3		 ret	 0
??B?$CEncrypt@M@@QAEMXZ ENDP				; CEncrypt<float>::operator float
_TEXT	ENDS
PUBLIC	??B?$CEncrypt@M@@QBEMXZ				; CEncrypt<float>::operator float
; Function compile flags: /Ogsp
;	COMDAT ??B?$CEncrypt@M@@QBEMXZ
_TEXT	SEGMENT
_value$ = -4						; size = 4
??B?$CEncrypt@M@@QBEMXZ PROC				; CEncrypt<float>::operator float, COMDAT
; _this$ = ecx

; 145  : 	{

  00000	55		 push	 ebp
  00001	8b ec		 mov	 ebp, esp
  00003	51		 push	 ecx

; 146  : 		//UJ 130829, const도 똑같이 하면 된다 --start
; 147  : 		type value;
; 148  : 		CEncrypt<type>* pThis = const_cast<CEncrypt<type>*>(this);
; 149  : 		pThis->DecryptValueToPool(&value);

  00004	8d 45 fc	 lea	 eax, DWORD PTR _value$[ebp]
  00007	50		 push	 eax
  00008	e8 00 00 00 00	 call	 ?DecryptValueToPool@?$CEncrypt@M@@QAEXPAM@Z ; CEncrypt<float>::DecryptValueToPool

; 150  : 		//// const에서 DecryptValueToPool 사용할 수 없으므로 아래와 같이함.
; 151  :  		//type value;
; 152  : 		//char szTempMem[MAX_ENCRYPT];
; 153  : 		//m_RC5.DecryptByte( m_MemPool, szTempMem, max(m_ValueSize, DEFAULT_ENCRYPT) );
; 154  : 		//memcpy( &value, szTempMem, m_ValueSize );
; 155  : 		//UJ --end
; 156  : 
; 157  : #ifdef _NOTUSE
; 158  : 		Debug();
; 159  : #endif
; 160  : 		return value;

  0000d	d9 45 fc	 fld	 DWORD PTR _value$[ebp]

; 161  : 	}

  00010	c9		 leave
  00011	c3		 ret	 0
??B?$CEncrypt@M@@QBEMXZ ENDP				; CEncrypt<float>::operator float
_TEXT	ENDS
PUBLIC	??4?$CEncrypt@M@@QAEMM@Z			; CEncrypt<float>::operator=
; Function compile flags: /Ogsp
;	COMDAT ??4?$CEncrypt@M@@QAEMM@Z
_TEXT	SEGMENT
_value$ = 8						; size = 4
_inValue$ = 8						; size = 4
??4?$CEncrypt@M@@QAEMM@Z PROC				; CEncrypt<float>::operator=, COMDAT
; _this$ = ecx

; 1654 : 	{	

  00000	55		 push	 ebp
  00001	8b ec		 mov	 ebp, esp

; 1655 : 		type value = inValue;

  00003	d9 45 08	 fld	 DWORD PTR _inValue$[ebp]

; 1656 : 		EncryptValueToPool((char*)&value);

  00006	8d 45 08	 lea	 eax, DWORD PTR _value$[ebp]
  00009	50		 push	 eax
  0000a	d9 5d 08	 fstp	 DWORD PTR _value$[ebp]
  0000d	e8 00 00 00 00	 call	 ?EncryptValueToPool@?$CEncrypt@M@@AAEXPBD@Z ; CEncrypt<float>::EncryptValueToPool

; 1657 : #ifdef _NOTUSE
; 1658 : 		m_value = inValue;
; 1659 : 		Debug();
; 1660 : #endif
; 1661 : 		return value;

  00012	d9 45 08	 fld	 DWORD PTR _value$[ebp]

; 1662 : 	}

  00015	5d		 pop	 ebp
  00016	c2 04 00	 ret	 4
??4?$CEncrypt@M@@QAEMM@Z ENDP				; CEncrypt<float>::operator=
_TEXT	ENDS
PUBLIC	??0?$CEncrypt@K@@QAE@XZ				; CEncrypt<unsigned long>::CEncrypt<unsigned long>
;	COMDAT xdata$x
xdata$x	SEGMENT
__unwindtable$??0?$CEncrypt@K@@QAE@XZ DD 0ffffffffH
	DD	FLAT:__unwindfunclet$??0?$CEncrypt@K@@QAE@XZ$0
__ehfuncinfo$??0?$CEncrypt@K@@QAE@XZ DD 019930522H
	DD	01H
	DD	FLAT:__unwindtable$??0?$CEncrypt@K@@QAE@XZ
	DD	2 DUP(00H)
	DD	2 DUP(00H)
	DD	00H
	DD	01H
; Function compile flags: /Ogsp
xdata$x	ENDS
;	COMDAT ??0?$CEncrypt@K@@QAE@XZ
_TEXT	SEGMENT
_this$ = -16						; size = 4
__$EHRec$ = -12						; size = 12
??0?$CEncrypt@K@@QAE@XZ PROC				; CEncrypt<unsigned long>::CEncrypt<unsigned long>, COMDAT
; _this$ = ecx

; 109  : 	CEncrypt()

  00000	6a 04		 push	 4
  00002	b8 00 00 00 00	 mov	 eax, __ehhandler$??0?$CEncrypt@K@@QAE@XZ
  00007	e8 00 00 00 00	 call	 __EH_prolog3
  0000c	8b f1		 mov	 esi, ecx
  0000e	89 75 f0	 mov	 DWORD PTR _this$[ebp], esi
  00011	8d 4e 0c	 lea	 ecx, DWORD PTR [esi+12]
  00014	c7 06 00 00 00
	00		 mov	 DWORD PTR [esi], OFFSET ??_7?$CEncrypt@K@@6B@
  0001a	e8 00 00 00 00	 call	 ??0ccddaabb@@QAE@XZ	; ccddaabb::ccddaabb
  0001f	83 65 fc 00	 and	 DWORD PTR __$EHRec$[ebp+8], 0

; 110  : 	{
; 111  : 		Init();

  00023	8b ce		 mov	 ecx, esi
  00025	e8 00 00 00 00	 call	 ?Init@?$CEncrypt@K@@AAEXXZ ; CEncrypt<unsigned long>::Init

; 112  : 	}

  0002a	8b c6		 mov	 eax, esi
  0002c	e8 00 00 00 00	 call	 __EH_epilog3
  00031	c3		 ret	 0
_TEXT	ENDS
;	COMDAT text$x
text$x	SEGMENT
__unwindfunclet$??0?$CEncrypt@K@@QAE@XZ$0:
  00000	8b 4d f0	 mov	 ecx, DWORD PTR _this$[ebp]
  00003	83 c1 0c	 add	 ecx, 12			; 0000000cH
  00006	e9 00 00 00 00	 jmp	 ??1ccddaabb@@UAE@XZ	; ccddaabb::~ccddaabb
__ehhandler$??0?$CEncrypt@K@@QAE@XZ:
  0000b	8b 54 24 08	 mov	 edx, DWORD PTR [esp+8]
  0000f	8d 42 0c	 lea	 eax, DWORD PTR [edx+12]
  00012	8b 4a ec	 mov	 ecx, DWORD PTR [edx-20]
  00015	33 c8		 xor	 ecx, eax
  00017	e8 00 00 00 00	 call	 @__security_check_cookie@4
  0001c	b8 00 00 00 00	 mov	 eax, OFFSET __ehfuncinfo$??0?$CEncrypt@K@@QAE@XZ
  00021	e9 00 00 00 00	 jmp	 ___CxxFrameHandler3
text$x	ENDS
??0?$CEncrypt@K@@QAE@XZ ENDP				; CEncrypt<unsigned long>::CEncrypt<unsigned long>
PUBLIC	??B?$CEncrypt@K@@QAEKXZ				; CEncrypt<unsigned long>::operator unsigned long
; Function compile flags: /Ogsp
;	COMDAT ??B?$CEncrypt@K@@QAEKXZ
_TEXT	SEGMENT
_value$ = -4						; size = 4
??B?$CEncrypt@K@@QAEKXZ PROC				; CEncrypt<unsigned long>::operator unsigned long, COMDAT
; _this$ = ecx

; 134  : 	{

  00000	55		 push	 ebp
  00001	8b ec		 mov	 ebp, esp
  00003	51		 push	 ecx

; 135  : 		type value;
; 136  : 		DecryptValueToPool(&value);

  00004	8d 45 fc	 lea	 eax, DWORD PTR _value$[ebp]
  00007	50		 push	 eax
  00008	e8 00 00 00 00	 call	 ?DecryptValueToPool@?$CEncrypt@K@@QAEXPAK@Z ; CEncrypt<unsigned long>::DecryptValueToPool

; 137  : 
; 138  : #ifdef _NOTUSE
; 139  : 		Debug();
; 140  : #endif
; 141  : 		return value;

  0000d	8b 45 fc	 mov	 eax, DWORD PTR _value$[ebp]

; 142  : 	}

  00010	c9		 leave
  00011	c3		 ret	 0
??B?$CEncrypt@K@@QAEKXZ ENDP				; CEncrypt<unsigned long>::operator unsigned long
_TEXT	ENDS
PUBLIC	??B?$CEncrypt@K@@QBEKXZ				; CEncrypt<unsigned long>::operator unsigned long
; Function compile flags: /Ogsp
;	COMDAT ??B?$CEncrypt@K@@QBEKXZ
_TEXT	SEGMENT
_value$ = -4						; size = 4
??B?$CEncrypt@K@@QBEKXZ PROC				; CEncrypt<unsigned long>::operator unsigned long, COMDAT
; _this$ = ecx

; 145  : 	{

  00000	55		 push	 ebp
  00001	8b ec		 mov	 ebp, esp
  00003	51		 push	 ecx

; 146  : 		//UJ 130829, const도 똑같이 하면 된다 --start
; 147  : 		type value;
; 148  : 		CEncrypt<type>* pThis = const_cast<CEncrypt<type>*>(this);
; 149  : 		pThis->DecryptValueToPool(&value);

  00004	8d 45 fc	 lea	 eax, DWORD PTR _value$[ebp]
  00007	50		 push	 eax
  00008	e8 00 00 00 00	 call	 ?DecryptValueToPool@?$CEncrypt@K@@QAEXPAK@Z ; CEncrypt<unsigned long>::DecryptValueToPool

; 150  : 		//// const에서 DecryptValueToPool 사용할 수 없으므로 아래와 같이함.
; 151  :  		//type value;
; 152  : 		//char szTempMem[MAX_ENCRYPT];
; 153  : 		//m_RC5.DecryptByte( m_MemPool, szTempMem, max(m_ValueSize, DEFAULT_ENCRYPT) );
; 154  : 		//memcpy( &value, szTempMem, m_ValueSize );
; 155  : 		//UJ --end
; 156  : 
; 157  : #ifdef _NOTUSE
; 158  : 		Debug();
; 159  : #endif
; 160  : 		return value;

  0000d	8b 45 fc	 mov	 eax, DWORD PTR _value$[ebp]

; 161  : 	}

  00010	c9		 leave
  00011	c3		 ret	 0
??B?$CEncrypt@K@@QBEKXZ ENDP				; CEncrypt<unsigned long>::operator unsigned long
_TEXT	ENDS
PUBLIC	??4?$CEncrypt@K@@QAEKH@Z			; CEncrypt<unsigned long>::operator=
; Function compile flags: /Ogsp
;	COMDAT ??4?$CEncrypt@K@@QAEKH@Z
_TEXT	SEGMENT
_value$ = 8						; size = 4
_inValue$ = 8						; size = 4
??4?$CEncrypt@K@@QAEKH@Z PROC				; CEncrypt<unsigned long>::operator=, COMDAT
; _this$ = ecx

; 843  : 	{

  00000	55		 push	 ebp
  00001	8b ec		 mov	 ebp, esp

; 844  : 		type value = inValue;

  00003	8b 45 08	 mov	 eax, DWORD PTR _inValue$[ebp]
  00006	89 45 08	 mov	 DWORD PTR _value$[ebp], eax

; 845  : 		EncryptValueToPool((char*)&value);

  00009	8d 45 08	 lea	 eax, DWORD PTR _value$[ebp]
  0000c	50		 push	 eax
  0000d	e8 00 00 00 00	 call	 ?EncryptValueToPool@?$CEncrypt@K@@AAEXPBD@Z ; CEncrypt<unsigned long>::EncryptValueToPool

; 846  : #ifdef _NOTUSE
; 847  : 		m_value = inValue;
; 848  : 		Debug();
; 849  : #endif
; 850  : 		return value;

  00012	8b 45 08	 mov	 eax, DWORD PTR _value$[ebp]

; 851  : 	}

  00015	5d		 pop	 ebp
  00016	c2 04 00	 ret	 4
??4?$CEncrypt@K@@QAEKH@Z ENDP				; CEncrypt<unsigned long>::operator=
_TEXT	ENDS
PUBLIC	??4?$CEncrypt@K@@QAEKK@Z			; CEncrypt<unsigned long>::operator=
; Function compile flags: /Ogsp
;	COMDAT ??4?$CEncrypt@K@@QAEKK@Z
_TEXT	SEGMENT
_value$ = 8						; size = 4
_inValue$ = 8						; size = 4
??4?$CEncrypt@K@@QAEKK@Z PROC				; CEncrypt<unsigned long>::operator=, COMDAT
; _this$ = ecx

; 1262 : 	{

  00000	55		 push	 ebp
  00001	8b ec		 mov	 ebp, esp

; 1263 : 		
; 1264 : 		type value = inValue;

  00003	8b 45 08	 mov	 eax, DWORD PTR _inValue$[ebp]
  00006	89 45 08	 mov	 DWORD PTR _value$[ebp], eax

; 1265 : 		EncryptValueToPool((char*)&value);

  00009	8d 45 08	 lea	 eax, DWORD PTR _value$[ebp]
  0000c	50		 push	 eax
  0000d	e8 00 00 00 00	 call	 ?EncryptValueToPool@?$CEncrypt@K@@AAEXPBD@Z ; CEncrypt<unsigned long>::EncryptValueToPool

; 1266 : #ifdef _NOTUSE
; 1267 : 		m_value = inValue;
; 1268 : 		Debug();
; 1269 : #endif
; 1270 : 		return value;

  00012	8b 45 08	 mov	 eax, DWORD PTR _value$[ebp]

; 1271 : 	}

  00015	5d		 pop	 ebp
  00016	c2 04 00	 ret	 4
??4?$CEncrypt@K@@QAEKK@Z ENDP				; CEncrypt<unsigned long>::operator=
_TEXT	ENDS
PUBLIC	??0?$CEncrypt@_N@@QAE@XZ			; CEncrypt<bool>::CEncrypt<bool>
;	COMDAT xdata$x
xdata$x	SEGMENT
__unwindtable$??0?$CEncrypt@_N@@QAE@XZ DD 0ffffffffH
	DD	FLAT:__unwindfunclet$??0?$CEncrypt@_N@@QAE@XZ$0
__ehfuncinfo$??0?$CEncrypt@_N@@QAE@XZ DD 019930522H
	DD	01H
	DD	FLAT:__unwindtable$??0?$CEncrypt@_N@@QAE@XZ
	DD	2 DUP(00H)
	DD	2 DUP(00H)
	DD	00H
	DD	01H
; Function compile flags: /Ogsp
xdata$x	ENDS
;	COMDAT ??0?$CEncrypt@_N@@QAE@XZ
_TEXT	SEGMENT
_this$ = -16						; size = 4
__$EHRec$ = -12						; size = 12
??0?$CEncrypt@_N@@QAE@XZ PROC				; CEncrypt<bool>::CEncrypt<bool>, COMDAT
; _this$ = ecx

; 109  : 	CEncrypt()

  00000	6a 04		 push	 4
  00002	b8 00 00 00 00	 mov	 eax, __ehhandler$??0?$CEncrypt@_N@@QAE@XZ
  00007	e8 00 00 00 00	 call	 __EH_prolog3
  0000c	8b f1		 mov	 esi, ecx
  0000e	89 75 f0	 mov	 DWORD PTR _this$[ebp], esi
  00011	8d 4e 0c	 lea	 ecx, DWORD PTR [esi+12]
  00014	c7 06 00 00 00
	00		 mov	 DWORD PTR [esi], OFFSET ??_7?$CEncrypt@_N@@6B@
  0001a	e8 00 00 00 00	 call	 ??0ccddaabb@@QAE@XZ	; ccddaabb::ccddaabb
  0001f	83 65 fc 00	 and	 DWORD PTR __$EHRec$[ebp+8], 0

; 110  : 	{
; 111  : 		Init();

  00023	8b ce		 mov	 ecx, esi
  00025	e8 00 00 00 00	 call	 ?Init@?$CEncrypt@_N@@AAEXXZ ; CEncrypt<bool>::Init

; 112  : 	}

  0002a	8b c6		 mov	 eax, esi
  0002c	e8 00 00 00 00	 call	 __EH_epilog3
  00031	c3		 ret	 0
_TEXT	ENDS
;	COMDAT text$x
text$x	SEGMENT
__unwindfunclet$??0?$CEncrypt@_N@@QAE@XZ$0:
  00000	8b 4d f0	 mov	 ecx, DWORD PTR _this$[ebp]
  00003	83 c1 0c	 add	 ecx, 12			; 0000000cH
  00006	e9 00 00 00 00	 jmp	 ??1ccddaabb@@UAE@XZ	; ccddaabb::~ccddaabb
__ehhandler$??0?$CEncrypt@_N@@QAE@XZ:
  0000b	8b 54 24 08	 mov	 edx, DWORD PTR [esp+8]
  0000f	8d 42 0c	 lea	 eax, DWORD PTR [edx+12]
  00012	8b 4a ec	 mov	 ecx, DWORD PTR [edx-20]
  00015	33 c8		 xor	 ecx, eax
  00017	e8 00 00 00 00	 call	 @__security_check_cookie@4
  0001c	b8 00 00 00 00	 mov	 eax, OFFSET __ehfuncinfo$??0?$CEncrypt@_N@@QAE@XZ
  00021	e9 00 00 00 00	 jmp	 ___CxxFrameHandler3
text$x	ENDS
??0?$CEncrypt@_N@@QAE@XZ ENDP				; CEncrypt<bool>::CEncrypt<bool>
PUBLIC	??B?$CEncrypt@_N@@QAE_NXZ			; CEncrypt<bool>::operator bool
; Function compile flags: /Ogsp
;	COMDAT ??B?$CEncrypt@_N@@QAE_NXZ
_TEXT	SEGMENT
_value$ = -1						; size = 1
??B?$CEncrypt@_N@@QAE_NXZ PROC				; CEncrypt<bool>::operator bool, COMDAT
; _this$ = ecx

; 134  : 	{

  00000	55		 push	 ebp
  00001	8b ec		 mov	 ebp, esp
  00003	51		 push	 ecx

; 135  : 		type value;
; 136  : 		DecryptValueToPool(&value);

  00004	8d 45 ff	 lea	 eax, DWORD PTR _value$[ebp]
  00007	50		 push	 eax
  00008	e8 00 00 00 00	 call	 ?DecryptValueToPool@?$CEncrypt@_N@@QAEXPA_N@Z ; CEncrypt<bool>::DecryptValueToPool

; 137  : 
; 138  : #ifdef _NOTUSE
; 139  : 		Debug();
; 140  : #endif
; 141  : 		return value;

  0000d	8a 45 ff	 mov	 al, BYTE PTR _value$[ebp]

; 142  : 	}

  00010	c9		 leave
  00011	c3		 ret	 0
??B?$CEncrypt@_N@@QAE_NXZ ENDP				; CEncrypt<bool>::operator bool
_TEXT	ENDS
PUBLIC	??B?$CEncrypt@_N@@QBE_NXZ			; CEncrypt<bool>::operator bool
; Function compile flags: /Ogsp
;	COMDAT ??B?$CEncrypt@_N@@QBE_NXZ
_TEXT	SEGMENT
_value$ = -1						; size = 1
??B?$CEncrypt@_N@@QBE_NXZ PROC				; CEncrypt<bool>::operator bool, COMDAT
; _this$ = ecx

; 145  : 	{

  00000	55		 push	 ebp
  00001	8b ec		 mov	 ebp, esp
  00003	51		 push	 ecx

; 146  : 		//UJ 130829, const도 똑같이 하면 된다 --start
; 147  : 		type value;
; 148  : 		CEncrypt<type>* pThis = const_cast<CEncrypt<type>*>(this);
; 149  : 		pThis->DecryptValueToPool(&value);

  00004	8d 45 ff	 lea	 eax, DWORD PTR _value$[ebp]
  00007	50		 push	 eax
  00008	e8 00 00 00 00	 call	 ?DecryptValueToPool@?$CEncrypt@_N@@QAEXPA_N@Z ; CEncrypt<bool>::DecryptValueToPool

; 150  : 		//// const에서 DecryptValueToPool 사용할 수 없으므로 아래와 같이함.
; 151  :  		//type value;
; 152  : 		//char szTempMem[MAX_ENCRYPT];
; 153  : 		//m_RC5.DecryptByte( m_MemPool, szTempMem, max(m_ValueSize, DEFAULT_ENCRYPT) );
; 154  : 		//memcpy( &value, szTempMem, m_ValueSize );
; 155  : 		//UJ --end
; 156  : 
; 157  : #ifdef _NOTUSE
; 158  : 		Debug();
; 159  : #endif
; 160  : 		return value;

  0000d	8a 45 ff	 mov	 al, BYTE PTR _value$[ebp]

; 161  : 	}

  00010	c9		 leave
  00011	c3		 ret	 0
??B?$CEncrypt@_N@@QBE_NXZ ENDP				; CEncrypt<bool>::operator bool
_TEXT	ENDS
PUBLIC	??4?$CEncrypt@_N@@QAE_N_N@Z			; CEncrypt<bool>::operator=
; Function compile flags: /Ogsp
;	COMDAT ??4?$CEncrypt@_N@@QAE_N_N@Z
_TEXT	SEGMENT
_inValue$ = 8						; size = 1
_value$ = 11						; size = 1
??4?$CEncrypt@_N@@QAE_N_N@Z PROC			; CEncrypt<bool>::operator=, COMDAT
; _this$ = ecx

; 225  : 	{

  00000	55		 push	 ebp
  00001	8b ec		 mov	 ebp, esp

; 226  : 		type value = inValue;

  00003	8a 45 08	 mov	 al, BYTE PTR _inValue$[ebp]
  00006	88 45 0b	 mov	 BYTE PTR _value$[ebp], al

; 227  : 		EncryptValueToPool((char*)&value);

  00009	8d 45 0b	 lea	 eax, DWORD PTR _value$[ebp]
  0000c	50		 push	 eax
  0000d	e8 00 00 00 00	 call	 ?EncryptValueToPool@?$CEncrypt@_N@@AAEXPBD@Z ; CEncrypt<bool>::EncryptValueToPool

; 228  : #ifdef _NOTUSE
; 229  : 		m_value = inValue;
; 230  : 		Debug();
; 231  : #endif
; 232  : 		return value;

  00012	8a 45 0b	 mov	 al, BYTE PTR _value$[ebp]

; 233  : 	}

  00015	5d		 pop	 ebp
  00016	c2 04 00	 ret	 4
??4?$CEncrypt@_N@@QAE_N_N@Z ENDP			; CEncrypt<bool>::operator=
_TEXT	ENDS
PUBLIC	??B?$CEncrypt@W4TeamType@@@@QBE?AW4TeamType@@XZ	; CEncrypt<enum TeamType>::operator enum TeamType
; Function compile flags: /Ogsp
;	COMDAT ??B?$CEncrypt@W4TeamType@@@@QBE?AW4TeamType@@XZ
_TEXT	SEGMENT
_value$ = -4						; size = 4
??B?$CEncrypt@W4TeamType@@@@QBE?AW4TeamType@@XZ PROC	; CEncrypt<enum TeamType>::operator enum TeamType, COMDAT
; _this$ = ecx

; 145  : 	{

  00000	55		 push	 ebp
  00001	8b ec		 mov	 ebp, esp
  00003	51		 push	 ecx

; 146  : 		//UJ 130829, const도 똑같이 하면 된다 --start
; 147  : 		type value;
; 148  : 		CEncrypt<type>* pThis = const_cast<CEncrypt<type>*>(this);
; 149  : 		pThis->DecryptValueToPool(&value);

  00004	8d 45 fc	 lea	 eax, DWORD PTR _value$[ebp]
  00007	50		 push	 eax
  00008	e8 00 00 00 00	 call	 ?DecryptValueToPool@?$CEncrypt@W4TeamType@@@@QAEXPAW4TeamType@@@Z ; CEncrypt<enum TeamType>::DecryptValueToPool

; 150  : 		//// const에서 DecryptValueToPool 사용할 수 없으므로 아래와 같이함.
; 151  :  		//type value;
; 152  : 		//char szTempMem[MAX_ENCRYPT];
; 153  : 		//m_RC5.DecryptByte( m_MemPool, szTempMem, max(m_ValueSize, DEFAULT_ENCRYPT) );
; 154  : 		//memcpy( &value, szTempMem, m_ValueSize );
; 155  : 		//UJ --end
; 156  : 
; 157  : #ifdef _NOTUSE
; 158  : 		Debug();
; 159  : #endif
; 160  : 		return value;

  0000d	8b 45 fc	 mov	 eax, DWORD PTR _value$[ebp]

; 161  : 	}

  00010	c9		 leave
  00011	c3		 ret	 0
??B?$CEncrypt@W4TeamType@@@@QBE?AW4TeamType@@XZ ENDP	; CEncrypt<enum TeamType>::operator enum TeamType
_TEXT	ENDS
PUBLIC	?SetGravityAmt@ioBaseChar@@QAEXM@Z		; ioBaseChar::SetGravityAmt
; Function compile flags: /Ogsp
; File d:\lost saga for developer\youtube\tutorial\source\src\lsclient\iobasechar.h
;	COMDAT ?SetGravityAmt@ioBaseChar@@QAEXM@Z
_TEXT	SEGMENT
_value$535006 = 8					; size = 4
_fAmt$ = 8						; size = 4
?SetGravityAmt@ioBaseChar@@QAEXM@Z PROC			; ioBaseChar::SetGravityAmt, COMDAT
; _this$ = ecx

; 2631 : 	inline void SetGravityAmt( float fAmt ) { m_fGravityAmt = fAmt; }

  00000	55		 push	 ebp
  00001	8b ec		 mov	 ebp, esp
  00003	f3 0f 10 45 08	 movss	 xmm0, DWORD PTR _fAmt$[ebp]
  00008	8d 45 08	 lea	 eax, DWORD PTR _value$535006[ebp]
  0000b	50		 push	 eax
  0000c	81 c1 e8 0b 00
	00		 add	 ecx, 3048		; 00000be8H
  00012	f3 0f 11 45 08	 movss	 DWORD PTR _value$535006[ebp], xmm0
  00017	e8 00 00 00 00	 call	 ?EncryptValueToPool@?$CEncrypt@M@@AAEXPBD@Z ; CEncrypt<float>::EncryptValueToPool
  0001c	5d		 pop	 ebp
  0001d	c2 04 00	 ret	 4
?SetGravityAmt@ioBaseChar@@QAEXM@Z ENDP			; ioBaseChar::SetGravityAmt
_TEXT	ENDS
PUBLIC	??_7ioAreaWeaponControl2Skill@@6B@		; ioAreaWeaponControl2Skill::`vftable'
PUBLIC	??0ioAreaWeaponControl2Skill@@QAE@XZ		; ioAreaWeaponControl2Skill::ioAreaWeaponControl2Skill
PUBLIC	??_R4ioAreaWeaponControl2Skill@@6B@		; ioAreaWeaponControl2Skill::`RTTI Complete Object Locator'
PUBLIC	??_R0?AVioAreaWeaponControl2Skill@@@8		; ioAreaWeaponControl2Skill `RTTI Type Descriptor'
PUBLIC	??_R3ioAreaWeaponControl2Skill@@8		; ioAreaWeaponControl2Skill::`RTTI Class Hierarchy Descriptor'
PUBLIC	??_R2ioAreaWeaponControl2Skill@@8		; ioAreaWeaponControl2Skill::`RTTI Base Class Array'
PUBLIC	??_R1A@?0A@EA@ioAreaWeaponControl2Skill@@8	; ioAreaWeaponControl2Skill::`RTTI Base Class Descriptor at (0,-1,0,64)'
PUBLIC	??_R1A@?0A@EA@ioNormalSkill@@8			; ioNormalSkill::`RTTI Base Class Descriptor at (0,-1,0,64)'
PUBLIC	??_R0?AVioNormalSkill@@@8			; ioNormalSkill `RTTI Type Descriptor'
PUBLIC	??_R3ioNormalSkill@@8				; ioNormalSkill::`RTTI Class Hierarchy Descriptor'
PUBLIC	??_R2ioNormalSkill@@8				; ioNormalSkill::`RTTI Base Class Array'
PUBLIC	??_R1A@?0A@EA@ioSkill@@8			; ioSkill::`RTTI Base Class Descriptor at (0,-1,0,64)'
PUBLIC	??_R0?AVioSkill@@@8				; ioSkill `RTTI Type Descriptor'
PUBLIC	??_R3ioSkill@@8					; ioSkill::`RTTI Class Hierarchy Descriptor'
PUBLIC	??_R2ioSkill@@8					; ioSkill::`RTTI Base Class Array'
PUBLIC	?LoadProperty@ioAreaWeaponControl2Skill@@UAEXAAVioINILoader@@@Z ; ioAreaWeaponControl2Skill::LoadProperty
PUBLIC	?Clone@ioAreaWeaponControl2Skill@@UAEPAVioSkill@@XZ ; ioAreaWeaponControl2Skill::Clone
PUBLIC	?IsProtected@ioAreaWeaponControl2Skill@@UBE_NH@Z ; ioAreaWeaponControl2Skill::IsProtected
PUBLIC	?GetDefenseSkillBreakeType@ioSkill@@UBE?AW4DefenseBreakType@@XZ ; ioSkill::GetDefenseSkillBreakeType
PUBLIC	?GetSkillEndNextJumpAmt@ioSkill@@UBEMXZ		; ioSkill::GetSkillEndNextJumpAmt
PUBLIC	?GetSkillEndNextLandRate@ioSkill@@UBEMXZ	; ioSkill::GetSkillEndNextLandRate
PUBLIC	?GetSkillEndNextJumpMustEnable@ioSkill@@UAE?AW4SkillEndJumpType@@XZ ; ioSkill::GetSkillEndNextJumpMustEnable
PUBLIC	?EnableChangeGrapplingTargetPos@ioSkill@@UBE_NXZ ; ioSkill::EnableChangeGrapplingTargetPos
PUBLIC	?OnSkillStart@ioAreaWeaponControl2Skill@@UAE_NPAVioBaseChar@@@Z ; ioAreaWeaponControl2Skill::OnSkillStart
PUBLIC	?OnProcessState@ioAreaWeaponControl2Skill@@UAEXPAVioBaseChar@@PAVioPlayStage@@@Z ; ioAreaWeaponControl2Skill::OnProcessState
PUBLIC	?OnSkillEnd@ioAreaWeaponControl2Skill@@UAEXPAVioBaseChar@@@Z ; ioAreaWeaponControl2Skill::OnSkillEnd
PUBLIC	?IsInvisibleBottomCircle@ioSkill@@UAE_NPAVioBaseChar@@@Z ; ioSkill::IsInvisibleBottomCircle
PUBLIC	?IsCanJumpingSkill@ioSkill@@UBE_NXZ		; ioSkill::IsCanJumpingSkill
PUBLIC	?IsCanJumpingSkillOnBlowWound@ioSkill@@UBE_NXZ	; ioSkill::IsCanJumpingSkillOnBlowWound
PUBLIC	?IsCanDownSkill@ioSkill@@UBE_NXZ		; ioSkill::IsCanDownSkill
PUBLIC	?IsCanBlowWoundSkill@ioSkill@@UBE_NXZ		; ioSkill::IsCanBlowWoundSkill
PUBLIC	?IsCanWoundSkill@ioSkill@@UBE_NXZ		; ioSkill::IsCanWoundSkill
PUBLIC	?IsUseActiveCnt@ioSkill@@UBE_NXZ		; ioSkill::IsUseActiveCnt
PUBLIC	?GetMaxActiveCnt@ioSkill@@UBEHPAVioBaseChar@@@Z	; ioSkill::GetMaxActiveCnt
PUBLIC	?GetCurActiveCnt@ioSkill@@UBEHPAVioBaseChar@@@Z	; ioSkill::GetCurActiveCnt
EXTRN	??1ioNormalSkill@@UAE@XZ:PROC			; ioNormalSkill::~ioNormalSkill
EXTRN	??0ioNormalSkill@@QAE@XZ:PROC			; ioNormalSkill::ioNormalSkill
EXTRN	?GetTypeID@ioNormalSkill@@UBEHXZ:PROC		; ioNormalSkill::GetTypeID
EXTRN	?IsCanSwitchSkill@ioSkill@@UBE_NXZ:PROC		; ioSkill::IsCanSwitchSkill
EXTRN	?IsCanSemiSwitchSkill@ioSkill@@UBE_NXZ:PROC	; ioSkill::IsCanSemiSwitchSkill
EXTRN	?IsCanCancelBySkill@ioSkill@@UBE_NPAVioBaseChar@@AAH@Z:PROC ; ioSkill::IsCanCancelBySkill
EXTRN	?IsCanUseZeroHP@ioSkill@@UBE_NPAVioBaseChar@@@Z:PROC ; ioSkill::IsCanUseZeroHP
EXTRN	?IsCanUseSkillWithCrown@ioSkill@@UAE_NPAVioBaseChar@@@Z:PROC ; ioSkill::IsCanUseSkillWithCrown
EXTRN	?IsCanUseBoss@ioSkill@@UBE_NPAVioBaseChar@@@Z:PROC ; ioSkill::IsCanUseBoss
EXTRN	?IsCanUseFootball@ioSkill@@UBE_NXZ:PROC		; ioSkill::IsCanUseFootball
EXTRN	?IsCanUseGangSiMode@ioSkill@@UBE_NXZ:PROC	; ioSkill::IsCanUseGangSiMode
EXTRN	?IsCanUseByWeaponType@ioSkill@@UBE_NPAVioBaseChar@@@Z:PROC ; ioSkill::IsCanUseByWeaponType
EXTRN	?IsCanUseThunderBirdHold@ioSkill@@UBE_NPAVioBaseChar@@@Z:PROC ; ioSkill::IsCanUseThunderBirdHold
EXTRN	?IsCanUseLimitHP@ioSkill@@UBE_NPAVioBaseChar@@@Z:PROC ; ioSkill::IsCanUseLimitHP
EXTRN	?IsOnOffEnable@ioSkill@@UAE_NXZ:PROC		; ioSkill::IsOnOffEnable
EXTRN	?IsCanDefenseStateSkill@ioSkill@@UAE_NXZ:PROC	; ioSkill::IsCanDefenseStateSkill
EXTRN	?SetDefenseStateSkill@ioSkill@@UAEXPAVioBaseChar@@@Z:PROC ; ioSkill::SetDefenseStateSkill
EXTRN	?HasBuff@ioSkill@@UBE_NH@Z:PROC			; ioSkill::HasBuff
EXTRN	?GetBuffType@ioSkill@@UAEHH@Z:PROC		; ioSkill::GetBuffType
EXTRN	?IsEnableReserve@ioSkill@@UBE_NXZ:PROC		; ioSkill::IsEnableReserve
EXTRN	?IsCharSkipState@ioSkill@@UBE?AW4SkillCharColType@@XZ:PROC ; ioSkill::IsCharSkipState
EXTRN	?IsEntityCollisionSkipState@ioSkill@@UBE_NXZ:PROC ; ioSkill::IsEntityCollisionSkipState
EXTRN	?IsEndState@ioSkill@@UBE_NXZ:PROC		; ioSkill::IsEndState
EXTRN	?IsAttackEndState@ioNormalSkill@@UBE_NXZ:PROC	; ioNormalSkill::IsAttackEndState
EXTRN	?IsJumpState@ioSkill@@UBE_NXZ:PROC		; ioSkill::IsJumpState
EXTRN	?IsDownState@ioSkill@@UBE_NXZ:PROC		; ioSkill::IsDownState
EXTRN	?IsNoDropState@ioSkill@@UBE_NXZ:PROC		; ioSkill::IsNoDropState
EXTRN	?IsCanSendControl@ioSkill@@UBE_NXZ:PROC		; ioSkill::IsCanSendControl
EXTRN	?IsSkipState@ioSkill@@UBE_NXZ:PROC		; ioSkill::IsSkipState
EXTRN	?GetSkillMoveRate@ioSkill@@UBEMXZ:PROC		; ioSkill::GetSkillMoveRate
EXTRN	?SetSkillGrapplingState@ioSkill@@UAE_NPAVioBaseChar@@ABVioHashString@@@Z:PROC ; ioSkill::SetSkillGrapplingState
EXTRN	?GetGrapplingTargetPos@ioSkill@@UAE?AUD3DXVECTOR3@@PAVioBaseChar@@0@Z:PROC ; ioSkill::GetGrapplingTargetPos
EXTRN	?GetGrapplingTargetPos@ioSkill@@UAE?AUD3DXVECTOR3@@PAVioBaseChar@@@Z:PROC ; ioSkill::GetGrapplingTargetPos
EXTRN	?GetSkillWoundGrapplingInfo@ioSkill@@UAE?AUGrapplingSkillWoundedInfo@@XZ:PROC ; ioSkill::GetSkillWoundGrapplingInfo
EXTRN	?SetCreateWeaponDependency@ioSkill@@UAEXPAVioBaseChar@@PAVioPlayStage@@@Z:PROC ; ioSkill::SetCreateWeaponDependency
EXTRN	?SetNextSkillState@ioSkill@@UAEXPAVioBaseChar@@PAVioWeapon@@@Z:PROC ; ioSkill::SetNextSkillState
EXTRN	?OnSkillEndByWounded@ioSkill@@UAEXPAVioBaseChar@@@Z:PROC ; ioSkill::OnSkillEndByWounded
EXTRN	?OnProcessNotUseSkill@ioSkill@@UAEXPAVioBaseChar@@PAVioPlayStage@@@Z:PROC ; ioSkill::OnProcessNotUseSkill
EXTRN	?OnSkillItemRelease@ioSkill@@UAEXPAVioBaseChar@@@Z:PROC ; ioSkill::OnSkillItemRelease
EXTRN	?ApplyAttributeToWeapon@ioSkill@@UAEXPAVioWeapon@@PAVioPlayStage@@@Z:PROC ; ioSkill::ApplyAttributeToWeapon
EXTRN	?ApplyEquipSlotSkillExtraInfo@ioSkill@@UAEXPAVioBaseChar@@PAVioPlayStage@@AAVSP2Packet@@@Z:PROC ; ioSkill::ApplyEquipSlotSkillExtraInfo
EXTRN	?ApplyExtraPassiveSkillInfo@ioSkill@@UAEXPAVioBaseChar@@PAVioPlayStage@@AAVSP2Packet@@@Z:PROC ; ioSkill::ApplyExtraPassiveSkillInfo
EXTRN	?IsUseAutoTargetValue@ioSkill@@UAE_NXZ:PROC	; ioSkill::IsUseAutoTargetValue
EXTRN	?IsAutoTargetDownState@ioSkill@@UAE_NXZ:PROC	; ioSkill::IsAutoTargetDownState
EXTRN	?CheckUseBuff@ioSkill@@UAE_NPAVioBaseChar@@@Z:PROC ; ioSkill::CheckUseBuff
EXTRN	?CheckUseActiveCount@ioSkill@@UAE_NXZ:PROC	; ioSkill::CheckUseActiveCount
EXTRN	?CheckAniRotate@ioSkill@@UAEXPAVioBaseChar@@@Z:PROC ; ioSkill::CheckAniRotate
EXTRN	?IsEnableDashCheck@ioSkill@@UAE_NPAVioBaseChar@@@Z:PROC ; ioSkill::IsEnableDashCheck
EXTRN	?IsEnableMultiActive@ioSkill@@UAE_NPAVioBaseChar@@@Z:PROC ; ioSkill::IsEnableMultiActive
EXTRN	?GetAutoTargetValue@ioSkill@@UAEXAAM00@Z:PROC	; ioSkill::GetAutoTargetValue
EXTRN	?GetSkillGravityRate@ioSkill@@UAEMXZ:PROC	; ioSkill::GetSkillGravityRate
EXTRN	?GetSkillMotionName@ioSkill@@UBEABVioHashString@@XZ:PROC ; ioSkill::GetSkillMotionName
EXTRN	?HasSkillMotion@ioSkill@@UBE_NXZ:PROC		; ioSkill::HasSkillMotion
EXTRN	?GetSkillMotionRate@ioSkill@@UBEMXZ:PROC	; ioSkill::GetSkillMotionRate
EXTRN	?IsPreDelayProtect@ioSkill@@UBE_NXZ:PROC	; ioSkill::IsPreDelayProtect
EXTRN	?GetPreDelayAniName@ioSkill@@UBEABVioHashString@@XZ:PROC ; ioSkill::GetPreDelayAniName
EXTRN	?GetPreDelayTime@ioSkill@@UBEKXZ:PROC		; ioSkill::GetPreDelayTime
EXTRN	?GetPreDelayOwnerEffect@ioSkill@@UBEABVioHashString@@XZ:PROC ; ioSkill::GetPreDelayOwnerEffect
EXTRN	?GetPreDelayOtherEffect@ioSkill@@UBEABVioHashString@@XZ:PROC ; ioSkill::GetPreDelayOtherEffect
EXTRN	?SetCancelSkill@ioSkill@@UAEXPAVioBaseChar@@@Z:PROC ; ioSkill::SetCancelSkill
EXTRN	?ClearAirJump@ioSkill@@MAEXXZ:PROC		; ioSkill::ClearAirJump
EXTRN	?SetAirJump@ioSkill@@MAEXPAVioBaseChar@@HM@Z:PROC ; ioSkill::SetAirJump
EXTRN	?CheckAirJump@ioSkill@@MAEXPAVioBaseChar@@@Z:PROC ; ioSkill::CheckAirJump
EXTRN	?UseActiveCount@ioSkill@@UAE_NPAVioBaseChar@@@Z:PROC ; ioSkill::UseActiveCount
EXTRN	?GetMaxActiveCount@ioSkill@@UAEHPAVioBaseChar@@@Z:PROC ; ioSkill::GetMaxActiveCount
EXTRN	?GetCurActiveCount@ioSkill@@UAEHPAVioBaseChar@@@Z:PROC ; ioSkill::GetCurActiveCount
EXTRN	?HideHPGauge@ioSkill@@UAE_NXZ:PROC		; ioSkill::HideHPGauge
EXTRN	?SetInfoByApplyWeapon@ioSkill@@UAEXPAVioBaseChar@@0K_N@Z:PROC ; ioSkill::SetInfoByApplyWeapon
EXTRN	?SetCollisionByApplySkill@ioSkill@@UAEXXZ:PROC	; ioSkill::SetCollisionByApplySkill
EXTRN	?SetChargingRateForWeapon@ioSkill@@UAEXPAVioWeapon@@@Z:PROC ; ioSkill::SetChargingRateForWeapon
EXTRN	?CheckExceptionCamera@ioSkill@@UAE_NXZ:PROC	; ioSkill::CheckExceptionCamera
EXTRN	?GetExceptionCameraPos@ioSkill@@UAE?AUD3DXVECTOR3@@PAVioBaseChar@@@Z:PROC ; ioSkill::GetExceptionCameraPos
EXTRN	?IsFixedExceptionCamera@ioSkill@@UAE_NXZ:PROC	; ioSkill::IsFixedExceptionCamera
EXTRN	??_EioAreaWeaponControl2Skill@@UAEPAXI@Z:PROC	; ioAreaWeaponControl2Skill::`vector deleting destructor'
EXTRN	?StartPreDelayAnimation@ioNormalSkill@@MAE_NPAVioBaseChar@@@Z:PROC ; ioNormalSkill::StartPreDelayAnimation
EXTRN	?SetNormalSkill@ioNormalSkill@@MAEXPAVioBaseChar@@@Z:PROC ; ioNormalSkill::SetNormalSkill
;	COMDAT ??_R2ioSkill@@8
; File c:\program files (x86)\microsoft directx sdk (june 2010)\include\d3dx9math.h
rdata$r	SEGMENT
??_R2ioSkill@@8 DD FLAT:??_R1A@?0A@EA@ioSkill@@8	; ioSkill::`RTTI Base Class Array'
rdata$r	ENDS
;	COMDAT ??_R3ioSkill@@8
rdata$r	SEGMENT
??_R3ioSkill@@8 DD 00H					; ioSkill::`RTTI Class Hierarchy Descriptor'
	DD	00H
	DD	01H
	DD	FLAT:??_R2ioSkill@@8
rdata$r	ENDS
;	COMDAT ??_R0?AVioSkill@@@8
_DATA	SEGMENT
??_R0?AVioSkill@@@8 DD FLAT:??_7type_info@@6B@		; ioSkill `RTTI Type Descriptor'
	DD	00H
	DB	'.?AVioSkill@@', 00H
_DATA	ENDS
;	COMDAT ??_R1A@?0A@EA@ioSkill@@8
rdata$r	SEGMENT
??_R1A@?0A@EA@ioSkill@@8 DD FLAT:??_R0?AVioSkill@@@8	; ioSkill::`RTTI Base Class Descriptor at (0,-1,0,64)'
	DD	00H
	DD	00H
	DD	0ffffffffH
	DD	00H
	DD	040H
	DD	FLAT:??_R3ioSkill@@8
rdata$r	ENDS
;	COMDAT ??_R2ioNormalSkill@@8
rdata$r	SEGMENT
??_R2ioNormalSkill@@8 DD FLAT:??_R1A@?0A@EA@ioNormalSkill@@8 ; ioNormalSkill::`RTTI Base Class Array'
	DD	FLAT:??_R1A@?0A@EA@ioSkill@@8
rdata$r	ENDS
;	COMDAT ??_R3ioNormalSkill@@8
rdata$r	SEGMENT
??_R3ioNormalSkill@@8 DD 00H				; ioNormalSkill::`RTTI Class Hierarchy Descriptor'
	DD	00H
	DD	02H
	DD	FLAT:??_R2ioNormalSkill@@8
rdata$r	ENDS
;	COMDAT ??_R0?AVioNormalSkill@@@8
_DATA	SEGMENT
??_R0?AVioNormalSkill@@@8 DD FLAT:??_7type_info@@6B@	; ioNormalSkill `RTTI Type Descriptor'
	DD	00H
	DB	'.?AVioNormalSkill@@', 00H
_DATA	ENDS
;	COMDAT ??_R1A@?0A@EA@ioNormalSkill@@8
rdata$r	SEGMENT
??_R1A@?0A@EA@ioNormalSkill@@8 DD FLAT:??_R0?AVioNormalSkill@@@8 ; ioNormalSkill::`RTTI Base Class Descriptor at (0,-1,0,64)'
	DD	01H
	DD	00H
	DD	0ffffffffH
	DD	00H
	DD	040H
	DD	FLAT:??_R3ioNormalSkill@@8
rdata$r	ENDS
;	COMDAT ??_R1A@?0A@EA@ioAreaWeaponControl2Skill@@8
rdata$r	SEGMENT
??_R1A@?0A@EA@ioAreaWeaponControl2Skill@@8 DD FLAT:??_R0?AVioAreaWeaponControl2Skill@@@8 ; ioAreaWeaponControl2Skill::`RTTI Base Class Descriptor at (0,-1,0,64)'
	DD	02H
	DD	00H
	DD	0ffffffffH
	DD	00H
	DD	040H
	DD	FLAT:??_R3ioAreaWeaponControl2Skill@@8
rdata$r	ENDS
;	COMDAT ??_R2ioAreaWeaponControl2Skill@@8
rdata$r	SEGMENT
??_R2ioAreaWeaponControl2Skill@@8 DD FLAT:??_R1A@?0A@EA@ioAreaWeaponControl2Skill@@8 ; ioAreaWeaponControl2Skill::`RTTI Base Class Array'
	DD	FLAT:??_R1A@?0A@EA@ioNormalSkill@@8
	DD	FLAT:??_R1A@?0A@EA@ioSkill@@8
rdata$r	ENDS
;	COMDAT ??_R3ioAreaWeaponControl2Skill@@8
rdata$r	SEGMENT
??_R3ioAreaWeaponControl2Skill@@8 DD 00H		; ioAreaWeaponControl2Skill::`RTTI Class Hierarchy Descriptor'
	DD	00H
	DD	03H
	DD	FLAT:??_R2ioAreaWeaponControl2Skill@@8
rdata$r	ENDS
;	COMDAT ??_R0?AVioAreaWeaponControl2Skill@@@8
_DATA	SEGMENT
??_R0?AVioAreaWeaponControl2Skill@@@8 DD FLAT:??_7type_info@@6B@ ; ioAreaWeaponControl2Skill `RTTI Type Descriptor'
	DD	00H
	DB	'.?AVioAreaWeaponControl2Skill@@', 00H
_DATA	ENDS
;	COMDAT ??_R4ioAreaWeaponControl2Skill@@6B@
rdata$r	SEGMENT
??_R4ioAreaWeaponControl2Skill@@6B@ DD 00H		; ioAreaWeaponControl2Skill::`RTTI Complete Object Locator'
	DD	00H
	DD	00H
	DD	FLAT:??_R0?AVioAreaWeaponControl2Skill@@@8
	DD	FLAT:??_R3ioAreaWeaponControl2Skill@@8
rdata$r	ENDS
;	COMDAT ??_7ioAreaWeaponControl2Skill@@6B@
CONST	SEGMENT
??_7ioAreaWeaponControl2Skill@@6B@ DD FLAT:??_R4ioAreaWeaponControl2Skill@@6B@ ; ioAreaWeaponControl2Skill::`vftable'
	DD	FLAT:?LoadProperty@ioAreaWeaponControl2Skill@@UAEXAAVioINILoader@@@Z
	DD	FLAT:?Clone@ioAreaWeaponControl2Skill@@UAEPAVioSkill@@XZ
	DD	FLAT:?GetTypeID@ioNormalSkill@@UBEHXZ
	DD	FLAT:?IsProtected@ioAreaWeaponControl2Skill@@UBE_NH@Z
	DD	FLAT:?IsCanSwitchSkill@ioSkill@@UBE_NXZ
	DD	FLAT:?IsCanSemiSwitchSkill@ioSkill@@UBE_NXZ
	DD	FLAT:?IsCanCancelBySkill@ioSkill@@UBE_NPAVioBaseChar@@AAH@Z
	DD	FLAT:?IsCanUseZeroHP@ioSkill@@UBE_NPAVioBaseChar@@@Z
	DD	FLAT:?IsCanUseSkillWithCrown@ioSkill@@UAE_NPAVioBaseChar@@@Z
	DD	FLAT:?IsCanUseBoss@ioSkill@@UBE_NPAVioBaseChar@@@Z
	DD	FLAT:?IsCanUseFootball@ioSkill@@UBE_NXZ
	DD	FLAT:?IsCanUseGangSiMode@ioSkill@@UBE_NXZ
	DD	FLAT:?IsCanUseByWeaponType@ioSkill@@UBE_NPAVioBaseChar@@@Z
	DD	FLAT:?IsCanUseThunderBirdHold@ioSkill@@UBE_NPAVioBaseChar@@@Z
	DD	FLAT:?IsCanUseLimitHP@ioSkill@@UBE_NPAVioBaseChar@@@Z
	DD	FLAT:?IsCanUseSkill@ioAreaWeaponControl2Skill@@UAE_NPAVioBaseChar@@_N@Z
	DD	FLAT:?IsOnOffEnable@ioSkill@@UAE_NXZ
	DD	FLAT:?IsCanDefenseStateSkill@ioSkill@@UAE_NXZ
	DD	FLAT:?SetDefenseStateSkill@ioSkill@@UAEXPAVioBaseChar@@@Z
	DD	FLAT:?GetDefenseSkillBreakeType@ioSkill@@UBE?AW4DefenseBreakType@@XZ
	DD	FLAT:?HasBuff@ioSkill@@UBE_NH@Z
	DD	FLAT:?GetBuffType@ioSkill@@UAEHH@Z
	DD	FLAT:?IsEnableReserve@ioSkill@@UBE_NXZ
	DD	FLAT:?IsSkillMotionEnd@ioAreaWeaponControl2Skill@@UBE_NKPAVioBaseChar@@@Z
	DD	FLAT:?IsCharSkipState@ioSkill@@UBE?AW4SkillCharColType@@XZ
	DD	FLAT:?IsEntityCollisionSkipState@ioSkill@@UBE_NXZ
	DD	FLAT:?GetSkillEndNextJumpAmt@ioSkill@@UBEMXZ
	DD	FLAT:?GetSkillEndNextLandRate@ioSkill@@UBEMXZ
	DD	FLAT:?GetSkillEndNextJumpMustEnable@ioSkill@@UAE?AW4SkillEndJumpType@@XZ
	DD	FLAT:?IsEndState@ioSkill@@UBE_NXZ
	DD	FLAT:?IsAttackEndState@ioNormalSkill@@UBE_NXZ
	DD	FLAT:?IsJumpState@ioSkill@@UBE_NXZ
	DD	FLAT:?IsDownState@ioSkill@@UBE_NXZ
	DD	FLAT:?IsNoDropState@ioSkill@@UBE_NXZ
	DD	FLAT:?IsCanSendControl@ioSkill@@UBE_NXZ
	DD	FLAT:?IsSkipState@ioSkill@@UBE_NXZ
	DD	FLAT:?GetSkillMoveRate@ioSkill@@UBEMXZ
	DD	FLAT:?SetSkillGrapplingState@ioSkill@@UAE_NPAVioBaseChar@@ABVioHashString@@@Z
	DD	FLAT:?GetGrapplingTargetPos@ioSkill@@UAE?AUD3DXVECTOR3@@PAVioBaseChar@@0@Z
	DD	FLAT:?GetGrapplingTargetPos@ioSkill@@UAE?AUD3DXVECTOR3@@PAVioBaseChar@@@Z
	DD	FLAT:?EnableChangeGrapplingTargetPos@ioSkill@@UBE_NXZ
	DD	FLAT:?GetSkillWoundGrapplingInfo@ioSkill@@UAE?AUGrapplingSkillWoundedInfo@@XZ
	DD	FLAT:?SetCreateWeaponDependency@ioSkill@@UAEXPAVioBaseChar@@PAVioPlayStage@@@Z
	DD	FLAT:?SetNextSkillState@ioSkill@@UAEXPAVioBaseChar@@PAVioWeapon@@@Z
	DD	FLAT:?OnSkillStart@ioAreaWeaponControl2Skill@@UAE_NPAVioBaseChar@@@Z
	DD	FLAT:?OnProcessState@ioAreaWeaponControl2Skill@@UAEXPAVioBaseChar@@PAVioPlayStage@@@Z
	DD	FLAT:?OnSkillEndByWounded@ioSkill@@UAEXPAVioBaseChar@@@Z
	DD	FLAT:?OnSkillEnd@ioAreaWeaponControl2Skill@@UAEXPAVioBaseChar@@@Z
	DD	FLAT:?OnProcessNotUseSkill@ioSkill@@UAEXPAVioBaseChar@@PAVioPlayStage@@@Z
	DD	FLAT:?OnSkillItemRelease@ioSkill@@UAEXPAVioBaseChar@@@Z
	DD	FLAT:?ApplyAttributeToWeapon@ioSkill@@UAEXPAVioWeapon@@PAVioPlayStage@@@Z
	DD	FLAT:?ApplyExtraSkillInfo@ioAreaWeaponControl2Skill@@UAEXPAVioBaseChar@@PAVioPlayStage@@AAVSP2Packet@@@Z
	DD	FLAT:?ApplyEquipSlotSkillExtraInfo@ioSkill@@UAEXPAVioBaseChar@@PAVioPlayStage@@AAVSP2Packet@@@Z
	DD	FLAT:?ApplyExtraPassiveSkillInfo@ioSkill@@UAEXPAVioBaseChar@@PAVioPlayStage@@AAVSP2Packet@@@Z
	DD	FLAT:?StartPreDelayEffect@ioAreaWeaponControl2Skill@@UAEXPAVioBaseChar@@@Z
	DD	FLAT:?EndPreDelayEffect@ioAreaWeaponControl2Skill@@UAEXPAVioBaseChar@@@Z
	DD	FLAT:?IsUseAutoTargetValue@ioSkill@@UAE_NXZ
	DD	FLAT:?IsAutoTargetDownState@ioSkill@@UAE_NXZ
	DD	FLAT:?CheckUseBuff@ioSkill@@UAE_NPAVioBaseChar@@@Z
	DD	FLAT:?CheckUseItemMesh@ioAreaWeaponControl2Skill@@UAE_NXZ
	DD	FLAT:?CheckUseActiveCount@ioSkill@@UAE_NXZ
	DD	FLAT:?CheckAniRotate@ioSkill@@UAEXPAVioBaseChar@@@Z
	DD	FLAT:?IsEnableDashCheck@ioSkill@@UAE_NPAVioBaseChar@@@Z
	DD	FLAT:?IsEnableMultiActive@ioSkill@@UAE_NPAVioBaseChar@@@Z
	DD	FLAT:?IsInvisibleBottomCircle@ioSkill@@UAE_NPAVioBaseChar@@@Z
	DD	FLAT:?GetAutoTargetValue@ioSkill@@UAEXAAM00@Z
	DD	FLAT:?IsCanJumpingSkill@ioSkill@@UBE_NXZ
	DD	FLAT:?IsCanJumpingSkillOnBlowWound@ioSkill@@UBE_NXZ
	DD	FLAT:?IsCanDownSkill@ioSkill@@UBE_NXZ
	DD	FLAT:?IsCanBlowWoundSkill@ioSkill@@UBE_NXZ
	DD	FLAT:?IsCanWoundSkill@ioSkill@@UBE_NXZ
	DD	FLAT:?GetSkillGravityRate@ioSkill@@UAEMXZ
	DD	FLAT:?GetSkillMotionName@ioSkill@@UBEABVioHashString@@XZ
	DD	FLAT:?HasSkillMotion@ioSkill@@UBE_NXZ
	DD	FLAT:?GetSkillMotionRate@ioSkill@@UBEMXZ
	DD	FLAT:?IsPreDelayProtect@ioSkill@@UBE_NXZ
	DD	FLAT:?GetPreDelayAniName@ioSkill@@UBEABVioHashString@@XZ
	DD	FLAT:?GetPreDelayTime@ioSkill@@UBEKXZ
	DD	FLAT:?GetPreDelayOwnerEffect@ioSkill@@UBEABVioHashString@@XZ
	DD	FLAT:?GetPreDelayOtherEffect@ioSkill@@UBEABVioHashString@@XZ
	DD	FLAT:?SetCancelSkill@ioSkill@@UAEXPAVioBaseChar@@@Z
	DD	FLAT:?ClearAirJump@ioSkill@@MAEXXZ
	DD	FLAT:?SetAirJump@ioSkill@@MAEXPAVioBaseChar@@HM@Z
	DD	FLAT:?CheckAirJump@ioSkill@@MAEXPAVioBaseChar@@@Z
	DD	FLAT:?UseActiveCount@ioSkill@@UAE_NPAVioBaseChar@@@Z
	DD	FLAT:?GetMaxActiveCount@ioSkill@@UAEHPAVioBaseChar@@@Z
	DD	FLAT:?GetCurActiveCount@ioSkill@@UAEHPAVioBaseChar@@@Z
	DD	FLAT:?HideHPGauge@ioSkill@@UAE_NXZ
	DD	FLAT:?SetInfoByApplyWeapon@ioSkill@@UAEXPAVioBaseChar@@0K_N@Z
	DD	FLAT:?SetCollisionByApplySkill@ioSkill@@UAEXXZ
	DD	FLAT:?SetChargingRateForWeapon@ioSkill@@UAEXPAVioWeapon@@@Z
	DD	FLAT:?CheckExceptionCamera@ioSkill@@UAE_NXZ
	DD	FLAT:?GetExceptionCameraPos@ioSkill@@UAE?AUD3DXVECTOR3@@PAVioBaseChar@@@Z
	DD	FLAT:?IsFixedExceptionCamera@ioSkill@@UAE_NXZ
	DD	FLAT:?IsUseActiveCnt@ioSkill@@UBE_NXZ
	DD	FLAT:?GetMaxActiveCnt@ioSkill@@UBEHPAVioBaseChar@@@Z
	DD	FLAT:?GetCurActiveCnt@ioSkill@@UBEHPAVioBaseChar@@@Z
	DD	FLAT:??_EioAreaWeaponControl2Skill@@UAEPAXI@Z
	DD	FLAT:?StartPreDelayAnimation@ioNormalSkill@@MAE_NPAVioBaseChar@@@Z
	DD	FLAT:?SetNormalSkill@ioNormalSkill@@MAEXPAVioBaseChar@@@Z
CONST	ENDS
;	COMDAT xdata$x
xdata$x	SEGMENT
__ehfuncinfo$??0ioAreaWeaponControl2Skill@@QAE@XZ DD 019930522H
	DD	0eH
	DD	FLAT:__unwindtable$??0ioAreaWeaponControl2Skill@@QAE@XZ
	DD	2 DUP(00H)
	DD	2 DUP(00H)
	DD	00H
	DD	01H
__unwindtable$??0ioAreaWeaponControl2Skill@@QAE@XZ DD 0ffffffffH
	DD	FLAT:__unwindfunclet$??0ioAreaWeaponControl2Skill@@QAE@XZ$0
	DD	00H
	DD	FLAT:__unwindfunclet$??0ioAreaWeaponControl2Skill@@QAE@XZ$1
	DD	01H
	DD	FLAT:__unwindfunclet$??0ioAreaWeaponControl2Skill@@QAE@XZ$2
	DD	02H
	DD	FLAT:__unwindfunclet$??0ioAreaWeaponControl2Skill@@QAE@XZ$3
	DD	03H
	DD	FLAT:__unwindfunclet$??0ioAreaWeaponControl2Skill@@QAE@XZ$4
	DD	04H
	DD	FLAT:__unwindfunclet$??0ioAreaWeaponControl2Skill@@QAE@XZ$5
	DD	05H
	DD	FLAT:__unwindfunclet$??0ioAreaWeaponControl2Skill@@QAE@XZ$6
	DD	06H
	DD	FLAT:__unwindfunclet$??0ioAreaWeaponControl2Skill@@QAE@XZ$7
	DD	07H
	DD	FLAT:__unwindfunclet$??0ioAreaWeaponControl2Skill@@QAE@XZ$8
	DD	08H
	DD	FLAT:__unwindfunclet$??0ioAreaWeaponControl2Skill@@QAE@XZ$9
	DD	09H
	DD	FLAT:__unwindfunclet$??0ioAreaWeaponControl2Skill@@QAE@XZ$10
	DD	0aH
	DD	FLAT:__unwindfunclet$??0ioAreaWeaponControl2Skill@@QAE@XZ$11
	DD	0bH
	DD	FLAT:__unwindfunclet$??0ioAreaWeaponControl2Skill@@QAE@XZ$12
	DD	0cH
	DD	FLAT:__unwindfunclet$??0ioAreaWeaponControl2Skill@@QAE@XZ$13
; Function compile flags: /Ogsp
; File d:\lost saga for developer\youtube\tutorial\source\src\lsclient\ioareaweaponcontrol2skill.cpp
xdata$x	ENDS
;	COMDAT ??0ioAreaWeaponControl2Skill@@QAE@XZ
_TEXT	SEGMENT
_this$ = -16						; size = 4
__$EHRec$ = -12						; size = 12
??0ioAreaWeaponControl2Skill@@QAE@XZ PROC		; ioAreaWeaponControl2Skill::ioAreaWeaponControl2Skill, COMDAT
; _this$ = ecx

; 11   : {

  00000	6a 04		 push	 4
  00002	b8 00 00 00 00	 mov	 eax, __ehhandler$??0ioAreaWeaponControl2Skill@@QAE@XZ
  00007	e8 00 00 00 00	 call	 __EH_prolog3
  0000c	8b f1		 mov	 esi, ecx
  0000e	89 75 f0	 mov	 DWORD PTR _this$[ebp], esi
  00011	e8 00 00 00 00	 call	 ??0ioNormalSkill@@QAE@XZ ; ioNormalSkill::ioNormalSkill
  00016	8b 3d 00 00 00
	00		 mov	 edi, DWORD PTR __imp_??0ioHashString@@QAE@XZ
  0001c	33 db		 xor	 ebx, ebx
  0001e	8d 8e 68 0f 00
	00		 lea	 ecx, DWORD PTR [esi+3944]
  00024	89 5d fc	 mov	 DWORD PTR __$EHRec$[ebp+8], ebx
  00027	c7 06 00 00 00
	00		 mov	 DWORD PTR [esi], OFFSET ??_7ioAreaWeaponControl2Skill@@6B@
  0002d	ff d7		 call	 edi
  0002f	8d 8e 80 0f 00
	00		 lea	 ecx, DWORD PTR [esi+3968]
  00035	c6 45 fc 01	 mov	 BYTE PTR __$EHRec$[ebp+8], 1
  00039	ff d7		 call	 edi
  0003b	8d 8e 9c 0f 00
	00		 lea	 ecx, DWORD PTR [esi+3996]
  00041	c6 45 fc 02	 mov	 BYTE PTR __$EHRec$[ebp+8], 2
  00045	ff d7		 call	 edi
  00047	8d 8e ac 0f 00
	00		 lea	 ecx, DWORD PTR [esi+4012]
  0004d	c6 45 fc 03	 mov	 BYTE PTR __$EHRec$[ebp+8], 3
  00051	ff d7		 call	 edi
  00053	8d 8e bc 0f 00
	00		 lea	 ecx, DWORD PTR [esi+4028]
  00059	c6 45 fc 04	 mov	 BYTE PTR __$EHRec$[ebp+8], 4
  0005d	ff d7		 call	 edi
  0005f	8d 8e d0 0f 00
	00		 lea	 ecx, DWORD PTR [esi+4048]
  00065	c6 45 fc 05	 mov	 BYTE PTR __$EHRec$[ebp+8], 5
  00069	ff d7		 call	 edi
  0006b	8d 8e e0 0f 00
	00		 lea	 ecx, DWORD PTR [esi+4064]
  00071	c6 45 fc 06	 mov	 BYTE PTR __$EHRec$[ebp+8], 6
  00075	ff d7		 call	 edi
  00077	8d 8e 08 10 00
	00		 lea	 ecx, DWORD PTR [esi+4104]
  0007d	c6 45 fc 07	 mov	 BYTE PTR __$EHRec$[ebp+8], 7
  00081	ff d7		 call	 edi
  00083	8d 8e 1c 10 00
	00		 lea	 ecx, DWORD PTR [esi+4124]
  00089	c6 45 fc 08	 mov	 BYTE PTR __$EHRec$[ebp+8], 8
  0008d	e8 00 00 00 00	 call	 ??0?$CEncrypt@K@@QAE@XZ	; CEncrypt<unsigned long>::CEncrypt<unsigned long>
  00092	8d 8e 6c 10 00
	00		 lea	 ecx, DWORD PTR [esi+4204]
  00098	c6 45 fc 09	 mov	 BYTE PTR __$EHRec$[ebp+8], 9
  0009c	e8 00 00 00 00	 call	 ??0?$CEncrypt@_N@@QAE@XZ ; CEncrypt<bool>::CEncrypt<bool>
  000a1	8d 8e 9c 10 00
	00		 lea	 ecx, DWORD PTR [esi+4252]
  000a7	c6 45 fc 0a	 mov	 BYTE PTR __$EHRec$[ebp+8], 10 ; 0000000aH
  000ab	e8 00 00 00 00	 call	 ??0?$CEncrypt@M@@QAE@XZ	; CEncrypt<float>::CEncrypt<float>
  000b0	8d 8e cc 10 00
	00		 lea	 ecx, DWORD PTR [esi+4300]
  000b6	c6 45 fc 0b	 mov	 BYTE PTR __$EHRec$[ebp+8], 11 ; 0000000bH
  000ba	e8 00 00 00 00	 call	 ??0?$CEncrypt@K@@QAE@XZ	; CEncrypt<unsigned long>::CEncrypt<unsigned long>
  000bf	8d 8e 00 11 00
	00		 lea	 ecx, DWORD PTR [esi+4352]
  000c5	c6 45 fc 0c	 mov	 BYTE PTR __$EHRec$[ebp+8], 12 ; 0000000cH
  000c9	e8 00 00 00 00	 call	 ??0?$CEncrypt@M@@QAE@XZ	; CEncrypt<float>::CEncrypt<float>
  000ce	8d 8e 30 11 00
	00		 lea	 ecx, DWORD PTR [esi+4400]
  000d4	c6 45 fc 0d	 mov	 BYTE PTR __$EHRec$[ebp+8], 13 ; 0000000dH
  000d8	e8 00 00 00 00	 call	 ??0?$CEncrypt@K@@QAE@XZ	; CEncrypt<unsigned long>::CEncrypt<unsigned long>

; 12   : 	m_ControlState = RS_NONE;
; 13   : 	m_AreaWeaponState = AS_DELAY;
; 14   : 
; 15   : 	m_dwLoopStartTime = 0;
; 16   : 	m_dwEndAniStartTime = 0;
; 17   : 	m_dwEndAniEndTime = 0;
; 18   : 	m_dwAreaWeaponIndex = 0;
; 19   : 	m_bSetHandMesh = false;
; 20   : 
; 21   : 	m_fHeight = 0.0f;

  000dd	0f 57 c0	 xorps	 xmm0, xmm0
  000e0	89 9e 58 0f 00
	00		 mov	 DWORD PTR [esi+3928], ebx
  000e6	89 9e 5c 0f 00
	00		 mov	 DWORD PTR [esi+3932], ebx
  000ec	89 9e 78 0f 00
	00		 mov	 DWORD PTR [esi+3960], ebx
  000f2	89 9e 94 0f 00
	00		 mov	 DWORD PTR [esi+3988], ebx
  000f8	89 9e 98 0f 00
	00		 mov	 DWORD PTR [esi+3992], ebx
  000fe	89 9e 18 10 00
	00		 mov	 DWORD PTR [esi+4120], ebx
  00104	88 9e 0a 0f 00
	00		 mov	 BYTE PTR [esi+3850], bl
  0010a	f3 0f 11 86 58
	10 00 00	 movss	 DWORD PTR [esi+4184], xmm0

; 22   : 	m_bSetUpKey = false;

  00112	66 89 9e 68 10
	00 00		 mov	 WORD PTR [esi+4200], bx

; 23   : 	m_bSetDownKey = false;
; 24   : }

  00119	8b c6		 mov	 eax, esi
  0011b	e8 00 00 00 00	 call	 __EH_epilog3
  00120	c3		 ret	 0
_TEXT	ENDS
;	COMDAT text$x
text$x	SEGMENT
__unwindfunclet$??0ioAreaWeaponControl2Skill@@QAE@XZ$0:
  00000	8b 4d f0	 mov	 ecx, DWORD PTR _this$[ebp]
  00003	e9 00 00 00 00	 jmp	 ??1ioNormalSkill@@UAE@XZ ; ioNormalSkill::~ioNormalSkill
__unwindfunclet$??0ioAreaWeaponControl2Skill@@QAE@XZ$1:
  00008	8b 4d f0	 mov	 ecx, DWORD PTR _this$[ebp]
  0000b	81 c1 68 0f 00
	00		 add	 ecx, 3944		; 00000f68H
  00011	ff 25 00 00 00
	00		 jmp	 DWORD PTR __imp_??1ioHashString@@QAE@XZ
__unwindfunclet$??0ioAreaWeaponControl2Skill@@QAE@XZ$2:
  00017	8b 4d f0	 mov	 ecx, DWORD PTR _this$[ebp]
  0001a	81 c1 80 0f 00
	00		 add	 ecx, 3968		; 00000f80H
  00020	ff 25 00 00 00
	00		 jmp	 DWORD PTR __imp_??1ioHashString@@QAE@XZ
__unwindfunclet$??0ioAreaWeaponControl2Skill@@QAE@XZ$3:
  00026	8b 4d f0	 mov	 ecx, DWORD PTR _this$[ebp]
  00029	81 c1 9c 0f 00
	00		 add	 ecx, 3996		; 00000f9cH
  0002f	ff 25 00 00 00
	00		 jmp	 DWORD PTR __imp_??1ioHashString@@QAE@XZ
__unwindfunclet$??0ioAreaWeaponControl2Skill@@QAE@XZ$4:
  00035	8b 4d f0	 mov	 ecx, DWORD PTR _this$[ebp]
  00038	81 c1 ac 0f 00
	00		 add	 ecx, 4012		; 00000facH
  0003e	ff 25 00 00 00
	00		 jmp	 DWORD PTR __imp_??1ioHashString@@QAE@XZ
__unwindfunclet$??0ioAreaWeaponControl2Skill@@QAE@XZ$5:
  00044	8b 4d f0	 mov	 ecx, DWORD PTR _this$[ebp]
  00047	81 c1 bc 0f 00
	00		 add	 ecx, 4028		; 00000fbcH
  0004d	ff 25 00 00 00
	00		 jmp	 DWORD PTR __imp_??1ioHashString@@QAE@XZ
__unwindfunclet$??0ioAreaWeaponControl2Skill@@QAE@XZ$6:
  00053	8b 4d f0	 mov	 ecx, DWORD PTR _this$[ebp]
  00056	81 c1 d0 0f 00
	00		 add	 ecx, 4048		; 00000fd0H
  0005c	ff 25 00 00 00
	00		 jmp	 DWORD PTR __imp_??1ioHashString@@QAE@XZ
__unwindfunclet$??0ioAreaWeaponControl2Skill@@QAE@XZ$7:
  00062	8b 4d f0	 mov	 ecx, DWORD PTR _this$[ebp]
  00065	81 c1 e0 0f 00
	00		 add	 ecx, 4064		; 00000fe0H
  0006b	ff 25 00 00 00
	00		 jmp	 DWORD PTR __imp_??1ioHashString@@QAE@XZ
__unwindfunclet$??0ioAreaWeaponControl2Skill@@QAE@XZ$8:
  00071	8b 4d f0	 mov	 ecx, DWORD PTR _this$[ebp]
  00074	81 c1 08 10 00
	00		 add	 ecx, 4104		; 00001008H
  0007a	ff 25 00 00 00
	00		 jmp	 DWORD PTR __imp_??1ioHashString@@QAE@XZ
__unwindfunclet$??0ioAreaWeaponControl2Skill@@QAE@XZ$9:
  00080	8b 4d f0	 mov	 ecx, DWORD PTR _this$[ebp]
  00083	81 c1 1c 10 00
	00		 add	 ecx, 4124		; 0000101cH
  00089	e9 00 00 00 00	 jmp	 ??1?$CEncrypt@K@@UAE@XZ	; CEncrypt<unsigned long>::~CEncrypt<unsigned long>
__unwindfunclet$??0ioAreaWeaponControl2Skill@@QAE@XZ$10:
  0008e	8b 4d f0	 mov	 ecx, DWORD PTR _this$[ebp]
  00091	81 c1 6c 10 00
	00		 add	 ecx, 4204		; 0000106cH
  00097	e9 00 00 00 00	 jmp	 ??1?$CEncrypt@_N@@UAE@XZ ; CEncrypt<bool>::~CEncrypt<bool>
__unwindfunclet$??0ioAreaWeaponControl2Skill@@QAE@XZ$11:
  0009c	8b 4d f0	 mov	 ecx, DWORD PTR _this$[ebp]
  0009f	81 c1 9c 10 00
	00		 add	 ecx, 4252		; 0000109cH
  000a5	e9 00 00 00 00	 jmp	 ??1?$CEncrypt@M@@UAE@XZ	; CEncrypt<float>::~CEncrypt<float>
__unwindfunclet$??0ioAreaWeaponControl2Skill@@QAE@XZ$12:
  000aa	8b 4d f0	 mov	 ecx, DWORD PTR _this$[ebp]
  000ad	81 c1 cc 10 00
	00		 add	 ecx, 4300		; 000010ccH
  000b3	e9 00 00 00 00	 jmp	 ??1?$CEncrypt@K@@UAE@XZ	; CEncrypt<unsigned long>::~CEncrypt<unsigned long>
__unwindfunclet$??0ioAreaWeaponControl2Skill@@QAE@XZ$13:
  000b8	8b 4d f0	 mov	 ecx, DWORD PTR _this$[ebp]
  000bb	81 c1 00 11 00
	00		 add	 ecx, 4352		; 00001100H
  000c1	e9 00 00 00 00	 jmp	 ??1?$CEncrypt@M@@UAE@XZ	; CEncrypt<float>::~CEncrypt<float>
__ehhandler$??0ioAreaWeaponControl2Skill@@QAE@XZ:
  000c6	8b 54 24 08	 mov	 edx, DWORD PTR [esp+8]
  000ca	8d 42 0c	 lea	 eax, DWORD PTR [edx+12]
  000cd	8b 4a ec	 mov	 ecx, DWORD PTR [edx-20]
  000d0	33 c8		 xor	 ecx, eax
  000d2	e8 00 00 00 00	 call	 @__security_check_cookie@4
  000d7	b8 00 00 00 00	 mov	 eax, OFFSET __ehfuncinfo$??0ioAreaWeaponControl2Skill@@QAE@XZ
  000dc	e9 00 00 00 00	 jmp	 ___CxxFrameHandler3
text$x	ENDS
??0ioAreaWeaponControl2Skill@@QAE@XZ ENDP		; ioAreaWeaponControl2Skill::ioAreaWeaponControl2Skill
; Function compile flags: /Ogsp
; File d:\lost saga for developer\youtube\tutorial\source\src\lsclient\ioskill.h
;	COMDAT ?GetDefenseSkillBreakeType@ioSkill@@UBE?AW4DefenseBreakType@@XZ
_TEXT	SEGMENT
?GetDefenseSkillBreakeType@ioSkill@@UBE?AW4DefenseBreakType@@XZ PROC ; ioSkill::GetDefenseSkillBreakeType, COMDAT
; _this$ = ecx

; 327  : 	virtual DefenseBreakType GetDefenseSkillBreakeType() const { return m_eDefenseSkillBreakType; }

  00000	8b 81 30 0e 00
	00		 mov	 eax, DWORD PTR [ecx+3632]
  00006	c3		 ret	 0
?GetDefenseSkillBreakeType@ioSkill@@UBE?AW4DefenseBreakType@@XZ ENDP ; ioSkill::GetDefenseSkillBreakeType
; Function compile flags: /Ogsp
_TEXT	ENDS
;	COMDAT ?GetSkillEndNextJumpAmt@ioSkill@@UBEMXZ
_TEXT	SEGMENT
?GetSkillEndNextJumpAmt@ioSkill@@UBEMXZ PROC		; ioSkill::GetSkillEndNextJumpAmt, COMDAT
; _this$ = ecx

; 335  : 	virtual float GetSkillEndNextJumpAmt() const { return m_fSkillEndNextJumpAmt; }

  00000	d9 81 4c 05 00
	00		 fld	 DWORD PTR [ecx+1356]
  00006	c3		 ret	 0
?GetSkillEndNextJumpAmt@ioSkill@@UBEMXZ ENDP		; ioSkill::GetSkillEndNextJumpAmt
; Function compile flags: /Ogsp
_TEXT	ENDS
;	COMDAT ?GetSkillEndNextLandRate@ioSkill@@UBEMXZ
_TEXT	SEGMENT
?GetSkillEndNextLandRate@ioSkill@@UBEMXZ PROC		; ioSkill::GetSkillEndNextLandRate, COMDAT
; _this$ = ecx

; 336  : 	virtual float GetSkillEndNextLandRate() const { return m_fSkillEndNextLandRate; }

  00000	d9 81 50 05 00
	00		 fld	 DWORD PTR [ecx+1360]
  00006	c3		 ret	 0
?GetSkillEndNextLandRate@ioSkill@@UBEMXZ ENDP		; ioSkill::GetSkillEndNextLandRate
; Function compile flags: /Ogsp
_TEXT	ENDS
;	COMDAT ?GetSkillEndNextJumpMustEnable@ioSkill@@UAE?AW4SkillEndJumpType@@XZ
_TEXT	SEGMENT
?GetSkillEndNextJumpMustEnable@ioSkill@@UAE?AW4SkillEndJumpType@@XZ PROC ; ioSkill::GetSkillEndNextJumpMustEnable, COMDAT
; _this$ = ecx

; 337  : 	virtual SkillEndJumpType GetSkillEndNextJumpMustEnable(){ return SEJT_DEFAULT; }

  00000	33 c0		 xor	 eax, eax
  00002	c3		 ret	 0
?GetSkillEndNextJumpMustEnable@ioSkill@@UAE?AW4SkillEndJumpType@@XZ ENDP ; ioSkill::GetSkillEndNextJumpMustEnable
; Function compile flags: /Ogsp
_TEXT	ENDS
;	COMDAT ?EnableChangeGrapplingTargetPos@ioSkill@@UBE_NXZ
_TEXT	SEGMENT
?EnableChangeGrapplingTargetPos@ioSkill@@UBE_NXZ PROC	; ioSkill::EnableChangeGrapplingTargetPos, COMDAT
; _this$ = ecx

; 355  : 	virtual bool EnableChangeGrapplingTargetPos() const { return m_bChangeGrapplingTargetPos; }

  00000	8a 81 40 09 00
	00		 mov	 al, BYTE PTR [ecx+2368]
  00006	c3		 ret	 0
?EnableChangeGrapplingTargetPos@ioSkill@@UBE_NXZ ENDP	; ioSkill::EnableChangeGrapplingTargetPos
; Function compile flags: /Ogsp
_TEXT	ENDS
;	COMDAT ?IsInvisibleBottomCircle@ioSkill@@UAE_NPAVioBaseChar@@@Z
_TEXT	SEGMENT
_pChar$ = 8						; size = 4
?IsInvisibleBottomCircle@ioSkill@@UAE_NPAVioBaseChar@@@Z PROC ; ioSkill::IsInvisibleBottomCircle, COMDAT
; _this$ = ecx

; 393  : 	virtual bool IsInvisibleBottomCircle( ioBaseChar *pChar ) { return false; }

  00000	32 c0		 xor	 al, al
  00002	c2 04 00	 ret	 4
?IsInvisibleBottomCircle@ioSkill@@UAE_NPAVioBaseChar@@@Z ENDP ; ioSkill::IsInvisibleBottomCircle
; Function compile flags: /Ogsp
_TEXT	ENDS
;	COMDAT ?IsUseActiveCnt@ioSkill@@UBE_NXZ
_TEXT	SEGMENT
?IsUseActiveCnt@ioSkill@@UBE_NXZ PROC			; ioSkill::IsUseActiveCnt, COMDAT
; _this$ = ecx

; 544  : 	virtual bool IsUseActiveCnt() const { return false; }

  00000	32 c0		 xor	 al, al
  00002	c3		 ret	 0
?IsUseActiveCnt@ioSkill@@UBE_NXZ ENDP			; ioSkill::IsUseActiveCnt
; Function compile flags: /Ogsp
_TEXT	ENDS
;	COMDAT ?GetMaxActiveCnt@ioSkill@@UBEHPAVioBaseChar@@@Z
_TEXT	SEGMENT
_pChar$ = 8						; size = 4
?GetMaxActiveCnt@ioSkill@@UBEHPAVioBaseChar@@@Z PROC	; ioSkill::GetMaxActiveCnt, COMDAT
; _this$ = ecx

; 545  : 	virtual int GetMaxActiveCnt( ioBaseChar *pChar ) const { return 0; }

  00000	33 c0		 xor	 eax, eax
  00002	c2 04 00	 ret	 4
?GetMaxActiveCnt@ioSkill@@UBEHPAVioBaseChar@@@Z ENDP	; ioSkill::GetMaxActiveCnt
; Function compile flags: /Ogsp
_TEXT	ENDS
;	COMDAT ?GetCurActiveCnt@ioSkill@@UBEHPAVioBaseChar@@@Z
_TEXT	SEGMENT
_pChar$ = 8						; size = 4
?GetCurActiveCnt@ioSkill@@UBEHPAVioBaseChar@@@Z PROC	; ioSkill::GetCurActiveCnt, COMDAT
; _this$ = ecx

; 546  : 	virtual int GetCurActiveCnt( ioBaseChar *pChar ) const { return 0; }

  00000	33 c0		 xor	 eax, eax
  00002	c2 04 00	 ret	 4
?GetCurActiveCnt@ioSkill@@UBEHPAVioBaseChar@@@Z ENDP	; ioSkill::GetCurActiveCnt
_TEXT	ENDS
PUBLIC	_rkLoader$GSCopy$
PUBLIC	__$ArrayPad$
EXTRN	__imp_??4ioHashString@@QAEAAV0@PBD@Z:PROC
EXTRN	?LoadProperty@ioNormalSkill@@UAEXAAVioINILoader@@@Z:PROC ; ioNormalSkill::LoadProperty
; Function compile flags: /Ogsp
; File d:\lost saga for developer\youtube\tutorial\source\src\lsclient\ioareaweaponcontrol2skill.cpp
;	COMDAT ?LoadProperty@ioAreaWeaponControl2Skill@@UAEXAAVioINILoader@@@Z
_TEXT	SEGMENT
tv17471 = -308						; size = 4
_rkLoader$GSCopy$ = -304				; size = 4
_szBuf$ = -300						; size = 260
__k$537349 = -40					; size = 32
__k$536848 = -32					; size = 23
__k$536723 = -32					; size = 23
__k$535331 = -32					; size = 22
__k$536593 = -28					; size = 17
__k$536085 = -28					; size = 17
__k$537098 = -24					; size = 15
__k$536973 = -24					; size = 15
__k$536460 = -24					; size = 14
__k$536400 = -24					; size = 15
__k$536301 = -24					; size = 16
__k$536051 = -24					; size = 16
__k$535848 = -24					; size = 16
__k$535723 = -24					; size = 14
__k$535598 = -24					; size = 13
__k$535456 = -24					; size = 14
__k$535206 = -24					; size = 14
__k$535146 = -24					; size = 15
__k$537223 = -20					; size = 10
__$ArrayPad$ = -4					; size = 4
_rkLoader$ = 8						; size = 4
?LoadProperty@ioAreaWeaponControl2Skill@@UAEXAAVioINILoader@@@Z PROC ; ioAreaWeaponControl2Skill::LoadProperty, COMDAT
; _this$ = ecx

; 68   : {

  00000	55		 push	 ebp
  00001	8b ec		 mov	 ebp, esp
  00003	81 ec 34 01 00
	00		 sub	 esp, 308		; 00000134H
  00009	a1 00 00 00 00	 mov	 eax, DWORD PTR ___security_cookie
  0000e	33 c5		 xor	 eax, ebp
  00010	89 45 fc	 mov	 DWORD PTR __$ArrayPad$[ebp], eax
  00013	8b 45 08	 mov	 eax, DWORD PTR _rkLoader$[ebp]
  00016	53		 push	 ebx
  00017	56		 push	 esi
  00018	57		 push	 edi

; 69   : 	ioNormalSkill::LoadProperty( rkLoader );

  00019	50		 push	 eax
  0001a	8b f1		 mov	 esi, ecx

; 99   : 
; 100  : 	// AreaWeapon
; 101  : 	rkLoader.LoadString_e( "area_weapon_name", "", szBuf, MAX_PATH );

  0001c	89 85 d0 fe ff
	ff		 mov	 DWORD PTR _rkLoader$GSCopy$[ebp], eax
  00022	e8 00 00 00 00	 call	 ?LoadProperty@ioNormalSkill@@UAEXAAVioINILoader@@@Z ; ioNormalSkill::LoadProperty
  00027	6a 03		 push	 3
  00029	c7 45 e8 81 83
	84 9a		 mov	 DWORD PTR __k$535146[ebp], -1702591615 ; 9a848381H
  00030	c7 45 ec b2 8d
	85 83		 mov	 DWORD PTR __k$535146[ebp+4], -2088399438 ; 83858db2H
  00037	c7 45 f0 80 8d
	9f 83		 mov	 DWORD PTR __k$535146[ebp+8], -2086695552 ; 839f8d80H
  0003e	66 c7 45 f4 82
	82		 mov	 WORD PTR __k$535146[ebp+12], 33410 ; 00008282H
  00044	8d 45 e8	 lea	 eax, DWORD PTR __k$535146[ebp]
  00047	c6 45 f6 00	 mov	 BYTE PTR __k$535146[ebp+14], 0
  0004b	59		 pop	 ecx
$LL106@LoadProper:

; 70   : 
; 71   : 	char szBuf[MAX_PATH];
; 72   : 
; 73   : 	// Animation
; 74   : 	rkLoader.LoadString_e( "loop_animation", "", szBuf, MAX_PATH );

  0004c	81 30 ed ec eb
	ea		 xor	 DWORD PTR [eax], -353637139 ; eaebecedH
  00052	83 c0 04	 add	 eax, 4
  00055	49		 dec	 ecx
  00056	75 f4		 jne	 SHORT $LL106@LoadProper
  00058	6a 0c		 push	 12			; 0000000cH
  0005a	58		 pop	 eax
$LL103@LoadProper:
  0005b	8b c8		 mov	 ecx, eax
  0005d	81 e1 03 00 00
	80		 and	 ecx, -2147483645	; 80000003H
  00063	79 05		 jns	 SHORT $LN2095@LoadProper
  00065	49		 dec	 ecx
  00066	83 c9 fc	 or	 ecx, -4			; fffffffcH
  00069	41		 inc	 ecx
$LN2095@LoadProper:
  0006a	b2 ed		 mov	 dl, -19			; ffffffedH
  0006c	2a d1		 sub	 dl, cl
  0006e	30 54 05 e8	 xor	 BYTE PTR __k$535146[ebp+eax], dl
  00072	40		 inc	 eax
  00073	83 f8 0e	 cmp	 eax, 14			; 0000000eH
  00076	7c e3		 jl	 SHORT $LL103@LoadProper
  00078	8b 8d d0 fe ff
	ff		 mov	 ecx, DWORD PTR _rkLoader$GSCopy$[ebp]
  0007e	8b 3d 00 00 00
	00		 mov	 edi, DWORD PTR __imp_?LoadStringA@ioINILoader@@QAEXPBD0PADH@Z
  00084	68 04 01 00 00	 push	 260			; 00000104H
  00089	8d 85 d4 fe ff
	ff		 lea	 eax, DWORD PTR _szBuf$[ebp]
  0008f	50		 push	 eax
  00090	68 00 00 00 00	 push	 OFFSET ??_C@_00CNPNBAHC@?$AA@
  00095	8d 45 e8	 lea	 eax, DWORD PTR __k$535146[ebp]
  00098	50		 push	 eax
  00099	ff d7		 call	 edi

; 75   : 	m_LoopAnimation = szBuf;

  0009b	8b 1d 00 00 00
	00		 mov	 ebx, DWORD PTR __imp_??4ioHashString@@QAEAAV0@PBD@Z
  000a1	8d 85 d4 fe ff
	ff		 lea	 eax, DWORD PTR _szBuf$[ebp]
  000a7	50		 push	 eax
  000a8	8d 8e 68 0f 00
	00		 lea	 ecx, DWORD PTR [esi+3944]
  000ae	ff d3		 call	 ebx
  000b0	6a 03		 push	 3

; 76   : 	m_dwLoopTime = rkLoader.LoadInt_e( "loop_duration", 0 );

  000b2	c7 45 e8 81 83
	84 9a		 mov	 DWORD PTR __k$535206[ebp], -1702591615 ; 9a848381H
  000b9	c7 45 ec b2 88
	9e 98		 mov	 DWORD PTR __k$535206[ebp+4], -1734440782 ; 989e88b2H
  000c0	c7 45 f0 8c 98
	82 85		 mov	 DWORD PTR __k$535206[ebp+8], -2055038836 ; 8582988cH
  000c7	8d 45 e8	 lea	 eax, DWORD PTR __k$535206[ebp]
  000ca	66 c7 45 f4 83
	00		 mov	 WORD PTR __k$535206[ebp+12], 131 ; 00000083H
  000d0	59		 pop	 ecx
$LL212@LoadProper:
  000d1	81 30 ed ec eb
	ea		 xor	 DWORD PTR [eax], -353637139 ; eaebecedH
  000d7	83 c0 04	 add	 eax, 4
  000da	49		 dec	 ecx
  000db	75 f4		 jne	 SHORT $LL212@LoadProper
  000dd	80 75 f4 ed	 xor	 BYTE PTR __k$535206[ebp+12], -19 ; ffffffedH
  000e1	51		 push	 ecx
  000e2	8b 8d d0 fe ff
	ff		 mov	 ecx, DWORD PTR _rkLoader$GSCopy$[ebp]
  000e8	8d 45 e8	 lea	 eax, DWORD PTR __k$535206[ebp]
  000eb	50		 push	 eax
  000ec	ff 15 00 00 00
	00		 call	 DWORD PTR __imp_?LoadInt@ioINILoader@@QAEHPBDH@Z
  000f2	6a 05		 push	 5
  000f4	89 86 7c 0f 00
	00		 mov	 DWORD PTR [esi+3964], eax

; 77   : 	m_dwLoopProtectDuration = rkLoader.LoadInt_e( "loop_protect_duration", 0 );

  000fa	c7 45 e0 81 83
	84 9a		 mov	 DWORD PTR __k$535331[ebp], -1702591615 ; 9a848381H
  00101	c7 45 e4 b2 9c
	99 85		 mov	 DWORD PTR __k$535331[ebp+4], -2053530446 ; 85999cb2H
  00108	c7 45 e8 99 89
	88 9e		 mov	 DWORD PTR __k$535331[ebp+8], -1635219047 ; 9e888999H
  0010f	c7 45 ec b2 88
	9e 98		 mov	 DWORD PTR __k$535331[ebp+12], -1734440782 ; 989e88b2H
  00116	c7 45 f0 8c 98
	82 85		 mov	 DWORD PTR __k$535331[ebp+16], -2055038836 ; 8582988cH
  0011d	8d 45 e0	 lea	 eax, DWORD PTR __k$535331[ebp]
  00120	66 c7 45 f4 83
	00		 mov	 WORD PTR __k$535331[ebp+20], 131 ; 00000083H
  00126	59		 pop	 ecx
$LL318@LoadProper:
  00127	81 30 ed ec eb
	ea		 xor	 DWORD PTR [eax], -353637139 ; eaebecedH
  0012d	83 c0 04	 add	 eax, 4
  00130	49		 dec	 ecx
  00131	75 f4		 jne	 SHORT $LL318@LoadProper
  00133	80 75 f4 ed	 xor	 BYTE PTR __k$535331[ebp+20], -19 ; ffffffedH
  00137	51		 push	 ecx
  00138	8b 8d d0 fe ff
	ff		 mov	 ecx, DWORD PTR _rkLoader$GSCopy$[ebp]
  0013e	8d 45 e0	 lea	 eax, DWORD PTR __k$535331[ebp]
  00141	50		 push	 eax
  00142	ff 15 00 00 00
	00		 call	 DWORD PTR __imp_?LoadInt@ioINILoader@@QAEHPBDH@Z
  00148	6a 03		 push	 3
  0014a	89 86 60 0f 00
	00		 mov	 DWORD PTR [esi+3936], eax

; 78   : 
; 79   : 	rkLoader.LoadString_e( "end_animation", "", szBuf, MAX_PATH );

  00150	c7 45 e8 88 82
	8f b5		 mov	 DWORD PTR __k$535456[ebp], -1248886136 ; b58f8288H
  00157	c7 45 ec 8c 82
	82 87		 mov	 DWORD PTR __k$535456[ebp+4], -2021490036 ; 8782828cH
  0015e	c7 45 f0 8c 98
	82 85		 mov	 DWORD PTR __k$535456[ebp+8], -2055038836 ; 8582988cH
  00165	8d 45 e8	 lea	 eax, DWORD PTR __k$535456[ebp]
  00168	66 c7 45 f4 83
	00		 mov	 WORD PTR __k$535456[ebp+12], 131 ; 00000083H
  0016e	59		 pop	 ecx
$LL424@LoadProper:
  0016f	81 30 ed ec eb
	ea		 xor	 DWORD PTR [eax], -353637139 ; eaebecedH
  00175	83 c0 04	 add	 eax, 4
  00178	49		 dec	 ecx
  00179	75 f4		 jne	 SHORT $LL424@LoadProper
  0017b	8b 8d d0 fe ff
	ff		 mov	 ecx, DWORD PTR _rkLoader$GSCopy$[ebp]
  00181	80 75 f4 ed	 xor	 BYTE PTR __k$535456[ebp+12], -19 ; ffffffedH
  00185	68 04 01 00 00	 push	 260			; 00000104H
  0018a	8d 85 d4 fe ff
	ff		 lea	 eax, DWORD PTR _szBuf$[ebp]
  00190	50		 push	 eax
  00191	68 00 00 00 00	 push	 OFFSET ??_C@_00CNPNBAHC@?$AA@
  00196	8d 45 e8	 lea	 eax, DWORD PTR __k$535456[ebp]
  00199	50		 push	 eax
  0019a	ff d7		 call	 edi

; 80   : 	m_EndAnimation = szBuf;

  0019c	8d 85 d4 fe ff
	ff		 lea	 eax, DWORD PTR _szBuf$[ebp]
  001a2	50		 push	 eax
  001a3	8d 8e 80 0f 00
	00		 lea	 ecx, DWORD PTR [esi+3968]
  001a9	ff d3		 call	 ebx

; 81   : 	m_fEndAniRate = rkLoader.LoadFloat_e( "end_ani_rate", FLOAT1 );

  001ab	b8 01 00 00 00	 mov	 eax, 1
  001b0	6a 03		 push	 3
  001b2	c7 45 e8 88 82
	8f b5		 mov	 DWORD PTR __k$535598[ebp], -1248886136 ; b58f8288H
  001b9	c7 45 ec 8c 82
	82 b5		 mov	 DWORD PTR __k$535598[ebp+4], -1249738100 ; b582828cH
  001c0	c7 45 f0 9f 8d
	9f 8f		 mov	 DWORD PTR __k$535598[ebp+8], -1885368929 ; 8f9f8d9fH
  001c7	8d 4d e8	 lea	 ecx, DWORD PTR __k$535598[ebp]
  001ca	c6 45 f4 00	 mov	 BYTE PTR __k$535598[ebp+12], 0
  001ce	5a		 pop	 edx
$LL532@LoadProper:
  001cf	81 31 ed ec eb
	ea		 xor	 DWORD PTR [ecx], -353637139 ; eaebecedH
  001d5	83 c1 04	 add	 ecx, 4
  001d8	4a		 dec	 edx
  001d9	75 f4		 jne	 SHORT $LL532@LoadProper
  001db	89 85 cc fe ff
	ff		 mov	 DWORD PTR tv17471[ebp], eax
  001e1	db 85 cc fe ff
	ff		 fild	 DWORD PTR tv17471[ebp]
  001e7	85 c0		 test	 eax, eax
  001e9	79 06		 jns	 SHORT $LN2096@LoadProper
  001eb	d8 05 00 00 00
	00		 fadd	 DWORD PTR __real@4f800000
$LN2096@LoadProper:
  001f1	51		 push	 ecx
  001f2	8b 8d d0 fe ff
	ff		 mov	 ecx, DWORD PTR _rkLoader$GSCopy$[ebp]
  001f8	d9 1c 24	 fstp	 DWORD PTR [esp]
  001fb	8d 45 e8	 lea	 eax, DWORD PTR __k$535598[ebp]
  001fe	50		 push	 eax
  001ff	ff 15 00 00 00
	00		 call	 DWORD PTR __imp_?LoadFloat@ioINILoader@@QAEMPBDM@Z
  00205	d9 9e 90 0f 00
	00		 fstp	 DWORD PTR [esi+3984]
  0020b	6a 03		 push	 3

; 82   : 
; 83   : 	// MagicCircle
; 84   : 	m_fOffSet = rkLoader.LoadFloat_e( "circle_offset", 0.0f );

  0020d	c7 45 e8 8e 85
	99 89		 mov	 DWORD PTR __k$535723[ebp], -1986427506 ; 8999858eH
  00214	c7 45 ec 81 89
	b4 85		 mov	 DWORD PTR __k$535723[ebp+4], -2051765887 ; 85b48981H
  0021b	c7 45 f0 8b 8a
	98 8f		 mov	 DWORD PTR __k$535723[ebp+8], -1885828469 ; 8f988a8bH
  00222	8d 45 e8	 lea	 eax, DWORD PTR __k$535723[ebp]
  00225	66 c7 45 f4 99
	00		 mov	 WORD PTR __k$535723[ebp+12], 153 ; 00000099H
  0022b	59		 pop	 ecx
$LL638@LoadProper:
  0022c	81 30 ed ec eb
	ea		 xor	 DWORD PTR [eax], -353637139 ; eaebecedH
  00232	83 c0 04	 add	 eax, 4
  00235	49		 dec	 ecx
  00236	75 f4		 jne	 SHORT $LL638@LoadProper
  00238	0f 57 c0	 xorps	 xmm0, xmm0
  0023b	80 75 f4 ed	 xor	 BYTE PTR __k$535723[ebp+12], -19 ; ffffffedH
  0023f	51		 push	 ecx
  00240	8b 8d d0 fe ff
	ff		 mov	 ecx, DWORD PTR _rkLoader$GSCopy$[ebp]
  00246	8d 45 e8	 lea	 eax, DWORD PTR __k$535723[ebp]
  00249	f3 0f 11 04 24	 movss	 DWORD PTR [esp], xmm0
  0024e	50		 push	 eax
  0024f	ff 15 00 00 00
	00		 call	 DWORD PTR __imp_?LoadFloat@ioINILoader@@QAEMPBDM@Z
  00255	d9 9e cc 0f 00
	00		 fstp	 DWORD PTR [esi+4044]
  0025b	6a 03		 push	 3

; 85   : 	m_dwCircleDuration = rkLoader.LoadInt_e( "circle_duration", 0 );

  0025d	c7 45 e8 8e 85
	99 89		 mov	 DWORD PTR __k$535848[ebp], -1986427506 ; 8999858eH
  00264	c7 45 ec 81 89
	b4 8e		 mov	 DWORD PTR __k$535848[ebp+4], -1900770943 ; 8eb48981H
  0026b	c7 45 f0 98 9e
	8a 9e		 mov	 DWORD PTR __k$535848[ebp+8], -1635082600 ; 9e8a9e98H
  00272	8d 45 e8	 lea	 eax, DWORD PTR __k$535848[ebp]
  00275	c7 45 f4 84 83
	85 00		 mov	 DWORD PTR __k$535848[ebp+12], 8749956 ; 00858384H
  0027c	59		 pop	 ecx
$LL744@LoadProper:
  0027d	81 30 ed ec eb
	ea		 xor	 DWORD PTR [eax], -353637139 ; eaebecedH
  00283	83 c0 04	 add	 eax, 4
  00286	49		 dec	 ecx
  00287	75 f4		 jne	 SHORT $LL744@LoadProper
  00289	6a 0c		 push	 12			; 0000000cH
  0028b	58		 pop	 eax
$LL741@LoadProper:
  0028c	8b c8		 mov	 ecx, eax
  0028e	81 e1 03 00 00
	80		 and	 ecx, -2147483645	; 80000003H
  00294	79 05		 jns	 SHORT $LN2097@LoadProper
  00296	49		 dec	 ecx
  00297	83 c9 fc	 or	 ecx, -4			; fffffffcH
  0029a	41		 inc	 ecx
$LN2097@LoadProper:
  0029b	b2 ed		 mov	 dl, -19			; ffffffedH
  0029d	2a d1		 sub	 dl, cl
  0029f	30 54 05 e8	 xor	 BYTE PTR __k$535848[ebp+eax], dl
  002a3	40		 inc	 eax
  002a4	83 f8 0f	 cmp	 eax, 15			; 0000000fH
  002a7	7c e3		 jl	 SHORT $LL741@LoadProper
  002a9	8b 8d d0 fe ff
	ff		 mov	 ecx, DWORD PTR _rkLoader$GSCopy$[ebp]
  002af	6a 00		 push	 0
  002b1	8d 45 e8	 lea	 eax, DWORD PTR __k$535848[ebp]
  002b4	50		 push	 eax
  002b5	ff 15 00 00 00
	00		 call	 DWORD PTR __imp_?LoadInt@ioINILoader@@QAEHPBDH@Z
  002bb	6a 03		 push	 3
  002bd	89 86 f4 0f 00
	00		 mov	 DWORD PTR [esi+4084], eax

; 86   : 
; 87   : 	rkLoader.LoadString_e( "red_team_circle", "", szBuf, MAX_PATH );

  002c3	c7 45 e8 9f 89
	8f b5		 mov	 DWORD PTR __k$536051[ebp], -1248884321 ; b58f899fH
  002ca	c7 45 ec 99 89
	8a 87		 mov	 DWORD PTR __k$536051[ebp+4], -2020963943 ; 878a8999H
  002d1	c7 45 f0 b2 8f
	82 98		 mov	 DWORD PTR __k$536051[ebp+8], -1736273998 ; 98828fb2H
  002d8	8d 45 e8	 lea	 eax, DWORD PTR __k$536051[ebp]
  002db	c7 45 f4 8e 80
	8e 00		 mov	 DWORD PTR __k$536051[ebp+12], 9339022 ; 008e808eH
  002e2	59		 pop	 ecx
$LL850@LoadProper:
  002e3	81 30 ed ec eb
	ea		 xor	 DWORD PTR [eax], -353637139 ; eaebecedH
  002e9	83 c0 04	 add	 eax, 4
  002ec	49		 dec	 ecx
  002ed	75 f4		 jne	 SHORT $LL850@LoadProper
  002ef	6a 0c		 push	 12			; 0000000cH
  002f1	58		 pop	 eax
$LL847@LoadProper:
  002f2	8b c8		 mov	 ecx, eax
  002f4	81 e1 03 00 00
	80		 and	 ecx, -2147483645	; 80000003H
  002fa	79 05		 jns	 SHORT $LN2098@LoadProper
  002fc	49		 dec	 ecx
  002fd	83 c9 fc	 or	 ecx, -4			; fffffffcH
  00300	41		 inc	 ecx
$LN2098@LoadProper:
  00301	b2 ed		 mov	 dl, -19			; ffffffedH
  00303	2a d1		 sub	 dl, cl
  00305	30 54 05 e8	 xor	 BYTE PTR __k$536051[ebp+eax], dl
  00309	40		 inc	 eax
  0030a	83 f8 0f	 cmp	 eax, 15			; 0000000fH
  0030d	7c e3		 jl	 SHORT $LL847@LoadProper
  0030f	8b 8d d0 fe ff
	ff		 mov	 ecx, DWORD PTR _rkLoader$GSCopy$[ebp]
  00315	68 04 01 00 00	 push	 260			; 00000104H
  0031a	8d 85 d4 fe ff
	ff		 lea	 eax, DWORD PTR _szBuf$[ebp]
  00320	50		 push	 eax
  00321	68 00 00 00 00	 push	 OFFSET ??_C@_00CNPNBAHC@?$AA@
  00326	8d 45 e8	 lea	 eax, DWORD PTR __k$536051[ebp]
  00329	50		 push	 eax
  0032a	ff d7		 call	 edi

; 88   : 	m_RedCircle = szBuf;

  0032c	8d 85 d4 fe ff
	ff		 lea	 eax, DWORD PTR _szBuf$[ebp]
  00332	50		 push	 eax
  00333	8d 8e d0 0f 00
	00		 lea	 ecx, DWORD PTR [esi+4048]
  00339	ff d3		 call	 ebx
  0033b	6a 04		 push	 4

; 89   : 	rkLoader.LoadString_e( "blue_team_circle", "", szBuf, MAX_PATH );

  0033d	c7 45 e4 8f 80
	9e 8f		 mov	 DWORD PTR __k$536085[ebp], -1885437809 ; 8f9e808fH
  00344	c7 45 e8 b2 98
	8e 8b		 mov	 DWORD PTR __k$536085[ebp+4], -1953589070 ; 8b8e98b2H
  0034b	c7 45 ec 80 b3
	88 83		 mov	 DWORD PTR __k$536085[ebp+8], -2088193152 ; 8388b380H
  00352	c7 45 f0 9f 8f
	87 8f		 mov	 DWORD PTR __k$536085[ebp+12], -1886941281 ; 8f878f9fH
  00359	8d 45 e4	 lea	 eax, DWORD PTR __k$536085[ebp]
  0035c	c6 45 f4 00	 mov	 BYTE PTR __k$536085[ebp+16], 0
  00360	59		 pop	 ecx
$LL956@LoadProper:
  00361	81 30 ed ec eb
	ea		 xor	 DWORD PTR [eax], -353637139 ; eaebecedH
  00367	83 c0 04	 add	 eax, 4
  0036a	49		 dec	 ecx
  0036b	75 f4		 jne	 SHORT $LL956@LoadProper
  0036d	8b 8d d0 fe ff
	ff		 mov	 ecx, DWORD PTR _rkLoader$GSCopy$[ebp]
  00373	68 04 01 00 00	 push	 260			; 00000104H
  00378	8d 85 d4 fe ff
	ff		 lea	 eax, DWORD PTR _szBuf$[ebp]
  0037e	50		 push	 eax
  0037f	68 00 00 00 00	 push	 OFFSET ??_C@_00CNPNBAHC@?$AA@
  00384	8d 45 e4	 lea	 eax, DWORD PTR __k$536085[ebp]
  00387	50		 push	 eax
  00388	ff d7		 call	 edi

; 90   : 	m_BlueCircle = szBuf;

  0038a	8d 85 d4 fe ff
	ff		 lea	 eax, DWORD PTR _szBuf$[ebp]
  00390	50		 push	 eax
  00391	8d 8e e0 0f 00
	00		 lea	 ecx, DWORD PTR [esi+4064]
  00397	ff d3		 call	 ebx
  00399	6a 03		 push	 3

; 91   : 
; 92   : 	// HandMesh
; 93   : 	rkLoader.LoadString_e( "start_hand_mesh", "", szBuf, MAX_PATH );

  0039b	c7 45 e8 9e 98
	8a 98		 mov	 DWORD PTR __k$536301[ebp], -1735747426 ; 988a989eH
  003a2	c7 45 ec 99 b3
	83 8b		 mov	 DWORD PTR __k$536301[ebp+4], -1954303079 ; 8b83b399H
  003a9	c7 45 f0 83 88
	b4 87		 mov	 DWORD PTR __k$536301[ebp+8], -2018211709 ; 87b48883H
  003b0	8d 45 e8	 lea	 eax, DWORD PTR __k$536301[ebp]
  003b3	c7 45 f4 88 9f
	83 00		 mov	 DWORD PTR __k$536301[ebp+12], 8626056 ; 00839f88H
  003ba	59		 pop	 ecx
$LL1062@LoadProper:
  003bb	81 30 ed ec eb
	ea		 xor	 DWORD PTR [eax], -353637139 ; eaebecedH
  003c1	83 c0 04	 add	 eax, 4
  003c4	49		 dec	 ecx
  003c5	75 f4		 jne	 SHORT $LL1062@LoadProper
  003c7	6a 0c		 push	 12			; 0000000cH
  003c9	58		 pop	 eax
$LL1059@LoadProper:
  003ca	8b c8		 mov	 ecx, eax
  003cc	81 e1 03 00 00
	80		 and	 ecx, -2147483645	; 80000003H
  003d2	79 05		 jns	 SHORT $LN2099@LoadProper
  003d4	49		 dec	 ecx
  003d5	83 c9 fc	 or	 ecx, -4			; fffffffcH
  003d8	41		 inc	 ecx
$LN2099@LoadProper:
  003d9	b2 ed		 mov	 dl, -19			; ffffffedH
  003db	2a d1		 sub	 dl, cl
  003dd	30 54 05 e8	 xor	 BYTE PTR __k$536301[ebp+eax], dl
  003e1	40		 inc	 eax
  003e2	83 f8 0f	 cmp	 eax, 15			; 0000000fH
  003e5	7c e3		 jl	 SHORT $LL1059@LoadProper
  003e7	8b 8d d0 fe ff
	ff		 mov	 ecx, DWORD PTR _rkLoader$GSCopy$[ebp]
  003ed	68 04 01 00 00	 push	 260			; 00000104H
  003f2	8d 85 d4 fe ff
	ff		 lea	 eax, DWORD PTR _szBuf$[ebp]
  003f8	50		 push	 eax
  003f9	68 00 00 00 00	 push	 OFFSET ??_C@_00CNPNBAHC@?$AA@
  003fe	8d 45 e8	 lea	 eax, DWORD PTR __k$536301[ebp]
  00401	50		 push	 eax
  00402	ff d7		 call	 edi

; 94   : 	m_StartHandMesh = szBuf;

  00404	8d 85 d4 fe ff
	ff		 lea	 eax, DWORD PTR _szBuf$[ebp]
  0040a	50		 push	 eax
  0040b	8d 8e 9c 0f 00
	00		 lea	 ecx, DWORD PTR [esi+3996]
  00411	ff d3		 call	 ebx
  00413	6a 03		 push	 3

; 95   : 	rkLoader.LoadString_e( "loop_hand_mesh", "", szBuf, MAX_PATH );

  00415	c7 45 e8 81 83
	84 9a		 mov	 DWORD PTR __k$536400[ebp], -1702591615 ; 9a848381H
  0041c	c7 45 ec b2 84
	8a 84		 mov	 DWORD PTR __k$536400[ebp+4], -2071296846 ; 848a84b2H
  00423	c7 45 f0 89 b3
	86 8f		 mov	 DWORD PTR __k$536400[ebp+8], -1886997623 ; 8f86b389H
  0042a	66 c7 45 f4 9e
	84		 mov	 WORD PTR __k$536400[ebp+12], 33950 ; 0000849eH
  00430	8d 45 e8	 lea	 eax, DWORD PTR __k$536400[ebp]
  00433	c6 45 f6 00	 mov	 BYTE PTR __k$536400[ebp+14], 0
  00437	59		 pop	 ecx
$LL1168@LoadProper:
  00438	81 30 ed ec eb
	ea		 xor	 DWORD PTR [eax], -353637139 ; eaebecedH
  0043e	83 c0 04	 add	 eax, 4
  00441	49		 dec	 ecx
  00442	75 f4		 jne	 SHORT $LL1168@LoadProper
  00444	6a 0c		 push	 12			; 0000000cH
  00446	58		 pop	 eax
$LL1165@LoadProper:
  00447	8b c8		 mov	 ecx, eax
  00449	81 e1 03 00 00
	80		 and	 ecx, -2147483645	; 80000003H
  0044f	79 05		 jns	 SHORT $LN2100@LoadProper
  00451	49		 dec	 ecx
  00452	83 c9 fc	 or	 ecx, -4			; fffffffcH
  00455	41		 inc	 ecx
$LN2100@LoadProper:
  00456	b2 ed		 mov	 dl, -19			; ffffffedH
  00458	2a d1		 sub	 dl, cl
  0045a	30 54 05 e8	 xor	 BYTE PTR __k$536400[ebp+eax], dl
  0045e	40		 inc	 eax
  0045f	83 f8 0e	 cmp	 eax, 14			; 0000000eH
  00462	7c e3		 jl	 SHORT $LL1165@LoadProper
  00464	8b 8d d0 fe ff
	ff		 mov	 ecx, DWORD PTR _rkLoader$GSCopy$[ebp]
  0046a	68 04 01 00 00	 push	 260			; 00000104H
  0046f	8d 85 d4 fe ff
	ff		 lea	 eax, DWORD PTR _szBuf$[ebp]
  00475	50		 push	 eax
  00476	68 00 00 00 00	 push	 OFFSET ??_C@_00CNPNBAHC@?$AA@
  0047b	8d 45 e8	 lea	 eax, DWORD PTR __k$536400[ebp]
  0047e	50		 push	 eax
  0047f	ff d7		 call	 edi

; 96   : 	m_LoopHandMesh = szBuf;

  00481	8d 85 d4 fe ff
	ff		 lea	 eax, DWORD PTR _szBuf$[ebp]
  00487	50		 push	 eax
  00488	8d 8e ac 0f 00
	00		 lea	 ecx, DWORD PTR [esi+4012]
  0048e	ff d3		 call	 ebx
  00490	6a 03		 push	 3

; 97   : 	rkLoader.LoadString_e( "end_hand_mesh", "", szBuf, MAX_PATH );

  00492	c7 45 e8 88 82
	8f b5		 mov	 DWORD PTR __k$536460[ebp], -1248886136 ; b58f8288H
  00499	c7 45 ec 85 8d
	85 8e		 mov	 DWORD PTR __k$536460[ebp+4], -1903850107 ; 8e858d85H
  004a0	c7 45 f0 b2 81
	8e 99		 mov	 DWORD PTR __k$536460[ebp+8], -1718713934 ; 998e81b2H
  004a7	8d 45 e8	 lea	 eax, DWORD PTR __k$536460[ebp]
  004aa	66 c7 45 f4 85
	00		 mov	 WORD PTR __k$536460[ebp+12], 133 ; 00000085H
  004b0	59		 pop	 ecx
$LL1274@LoadProper:
  004b1	81 30 ed ec eb
	ea		 xor	 DWORD PTR [eax], -353637139 ; eaebecedH
  004b7	83 c0 04	 add	 eax, 4
  004ba	49		 dec	 ecx
  004bb	75 f4		 jne	 SHORT $LL1274@LoadProper
  004bd	8b 8d d0 fe ff
	ff		 mov	 ecx, DWORD PTR _rkLoader$GSCopy$[ebp]
  004c3	80 75 f4 ed	 xor	 BYTE PTR __k$536460[ebp+12], -19 ; ffffffedH
  004c7	68 04 01 00 00	 push	 260			; 00000104H
  004cc	8d 85 d4 fe ff
	ff		 lea	 eax, DWORD PTR _szBuf$[ebp]
  004d2	50		 push	 eax
  004d3	68 00 00 00 00	 push	 OFFSET ??_C@_00CNPNBAHC@?$AA@
  004d8	8d 45 e8	 lea	 eax, DWORD PTR __k$536460[ebp]
  004db	50		 push	 eax
  004dc	ff d7		 call	 edi

; 98   : 	m_EndHandMesh = szBuf;

  004de	8d 85 d4 fe ff
	ff		 lea	 eax, DWORD PTR _szBuf$[ebp]
  004e4	50		 push	 eax
  004e5	8d 8e bc 0f 00
	00		 lea	 ecx, DWORD PTR [esi+4028]
  004eb	ff d3		 call	 ebx
  004ed	6a 04		 push	 4

; 99   : 
; 100  : 	// AreaWeapon
; 101  : 	rkLoader.LoadString_e( "area_weapon_name", "", szBuf, MAX_PATH );

  004ef	c7 45 e4 8c 9e
	8e 8b		 mov	 DWORD PTR __k$536593[ebp], -1953587572 ; 8b8e9e8cH
  004f6	c7 45 e8 b2 9b
	8e 8b		 mov	 DWORD PTR __k$536593[ebp+4], -1953588302 ; 8b8e9bb2H
  004fd	c7 45 ec 9d 83
	85 b5		 mov	 DWORD PTR __k$536593[ebp+8], -1249541219 ; b585839dH
  00504	c7 45 f0 83 8d
	86 8f		 mov	 DWORD PTR __k$536593[ebp+12], -1887007357 ; 8f868d83H
  0050b	8d 45 e4	 lea	 eax, DWORD PTR __k$536593[ebp]
  0050e	c6 45 f4 00	 mov	 BYTE PTR __k$536593[ebp+16], 0
  00512	59		 pop	 ecx
$LL1380@LoadProper:
  00513	81 30 ed ec eb
	ea		 xor	 DWORD PTR [eax], -353637139 ; eaebecedH
  00519	83 c0 04	 add	 eax, 4
  0051c	49		 dec	 ecx
  0051d	75 f4		 jne	 SHORT $LL1380@LoadProper
  0051f	8b 8d d0 fe ff
	ff		 mov	 ecx, DWORD PTR _rkLoader$GSCopy$[ebp]
  00525	68 04 01 00 00	 push	 260			; 00000104H
  0052a	8d 85 d4 fe ff
	ff		 lea	 eax, DWORD PTR _szBuf$[ebp]
  00530	50		 push	 eax
  00531	68 00 00 00 00	 push	 OFFSET ??_C@_00CNPNBAHC@?$AA@
  00536	8d 45 e4	 lea	 eax, DWORD PTR __k$536593[ebp]
  00539	50		 push	 eax
  0053a	ff d7		 call	 edi

; 102  : 	m_AreaWeaponName = szBuf;

  0053c	8d 85 d4 fe ff
	ff		 lea	 eax, DWORD PTR _szBuf$[ebp]
  00542	50		 push	 eax
  00543	8d 8e 08 10 00
	00		 lea	 ecx, DWORD PTR [esi+4104]
  00549	ff d3		 call	 ebx
  0054b	6a 05		 push	 5

; 103  : 
; 104  : 	m_fMoveSpeed = rkLoader.LoadFloat_e( "area_weapon_move_speed", 0.0f );

  0054d	c7 45 e0 8c 9e
	8e 8b		 mov	 DWORD PTR __k$536723[ebp], -1953587572 ; 8b8e9e8cH
  00554	c7 45 e4 b2 9b
	8e 8b		 mov	 DWORD PTR __k$536723[ebp+4], -1953588302 ; 8b8e9bb2H
  0055b	c7 45 e8 9d 83
	85 b5		 mov	 DWORD PTR __k$536723[ebp+8], -1249541219 ; b585839dH
  00562	c7 45 ec 80 83
	9d 8f		 mov	 DWORD PTR __k$536723[ebp+12], -1885502592 ; 8f9d8380H
  00569	c7 45 f0 b2 9f
	9b 8f		 mov	 DWORD PTR __k$536723[ebp+16], -1885626446 ; 8f9b9fb2H
  00570	66 c7 45 f4 88
	88		 mov	 WORD PTR __k$536723[ebp+20], 34952 ; 00008888H
  00576	8d 45 e0	 lea	 eax, DWORD PTR __k$536723[ebp]
  00579	c6 45 f6 00	 mov	 BYTE PTR __k$536723[ebp+22], 0
  0057d	59		 pop	 ecx
  0057e	bf ed ec eb ea	 mov	 edi, -353637139		; eaebecedH
$LL1486@LoadProper:
  00583	31 38		 xor	 DWORD PTR [eax], edi
  00585	83 c0 04	 add	 eax, 4
  00588	49		 dec	 ecx
  00589	75 f8		 jne	 SHORT $LL1486@LoadProper
  0058b	6a 14		 push	 20			; 00000014H
  0058d	58		 pop	 eax
$LL1483@LoadProper:
  0058e	8b c8		 mov	 ecx, eax
  00590	81 e1 03 00 00
	80		 and	 ecx, -2147483645	; 80000003H
  00596	79 05		 jns	 SHORT $LN2101@LoadProper
  00598	49		 dec	 ecx
  00599	83 c9 fc	 or	 ecx, -4			; fffffffcH
  0059c	41		 inc	 ecx
$LN2101@LoadProper:
  0059d	b2 ed		 mov	 dl, -19			; ffffffedH
  0059f	2a d1		 sub	 dl, cl
  005a1	30 54 05 e0	 xor	 BYTE PTR __k$536723[ebp+eax], dl
  005a5	40		 inc	 eax
  005a6	83 f8 16	 cmp	 eax, 22			; 00000016H
  005a9	7c e3		 jl	 SHORT $LL1483@LoadProper
  005ab	0f 57 c0	 xorps	 xmm0, xmm0
  005ae	8b 9d d0 fe ff
	ff		 mov	 ebx, DWORD PTR _rkLoader$GSCopy$[ebp]
  005b4	51		 push	 ecx
  005b5	8d 45 e0	 lea	 eax, DWORD PTR __k$536723[ebp]
  005b8	f3 0f 11 04 24	 movss	 DWORD PTR [esp], xmm0
  005bd	50		 push	 eax
  005be	8b cb		 mov	 ecx, ebx
  005c0	ff 15 00 00 00
	00		 call	 DWORD PTR __imp_?LoadFloat@ioINILoader@@QAEMPBDM@Z
  005c6	d9 9e 50 10 00
	00		 fstp	 DWORD PTR [esi+4176]
  005cc	6a 05		 push	 5

; 105  : 	m_fMoveRange = rkLoader.LoadFloat_e( "area_weapon_move_range", 0.0f );

  005ce	c7 45 e0 8c 9e
	8e 8b		 mov	 DWORD PTR __k$536848[ebp], -1953587572 ; 8b8e9e8cH
  005d5	c7 45 e4 b2 9b
	8e 8b		 mov	 DWORD PTR __k$536848[ebp+4], -1953588302 ; 8b8e9bb2H
  005dc	c7 45 e8 9d 83
	85 b5		 mov	 DWORD PTR __k$536848[ebp+8], -1249541219 ; b585839dH
  005e3	c7 45 ec 80 83
	9d 8f		 mov	 DWORD PTR __k$536848[ebp+12], -1885502592 ; 8f9d8380H
  005ea	c7 45 f0 b2 9e
	8a 84		 mov	 DWORD PTR __k$536848[ebp+16], -2071290190 ; 848a9eb2H
  005f1	66 c7 45 f4 8a
	89		 mov	 WORD PTR __k$536848[ebp+20], 35210 ; 0000898aH
  005f7	8d 45 e0	 lea	 eax, DWORD PTR __k$536848[ebp]
  005fa	c6 45 f6 00	 mov	 BYTE PTR __k$536848[ebp+22], 0
  005fe	59		 pop	 ecx
$LL1592@LoadProper:
  005ff	31 38		 xor	 DWORD PTR [eax], edi
  00601	83 c0 04	 add	 eax, 4
  00604	49		 dec	 ecx
  00605	75 f8		 jne	 SHORT $LL1592@LoadProper
  00607	6a 14		 push	 20			; 00000014H
  00609	58		 pop	 eax
$LL1589@LoadProper:
  0060a	8b c8		 mov	 ecx, eax
  0060c	81 e1 03 00 00
	80		 and	 ecx, -2147483645	; 80000003H
  00612	79 05		 jns	 SHORT $LN2102@LoadProper
  00614	49		 dec	 ecx
  00615	83 c9 fc	 or	 ecx, -4			; fffffffcH
  00618	41		 inc	 ecx
$LN2102@LoadProper:
  00619	b2 ed		 mov	 dl, -19			; ffffffedH
  0061b	2a d1		 sub	 dl, cl
  0061d	30 54 05 e0	 xor	 BYTE PTR __k$536848[ebp+eax], dl
  00621	40		 inc	 eax
  00622	83 f8 16	 cmp	 eax, 22			; 00000016H
  00625	7c e3		 jl	 SHORT $LL1589@LoadProper
  00627	0f 57 c0	 xorps	 xmm0, xmm0
  0062a	51		 push	 ecx
  0062b	8d 45 e0	 lea	 eax, DWORD PTR __k$536848[ebp]
  0062e	f3 0f 11 04 24	 movss	 DWORD PTR [esp], xmm0
  00633	50		 push	 eax
  00634	8b cb		 mov	 ecx, ebx
  00636	ff 15 00 00 00
	00		 call	 DWORD PTR __imp_?LoadFloat@ioINILoader@@QAEMPBDM@Z
  0063c	d9 9e 54 10 00
	00		 fstp	 DWORD PTR [esi+4180]
  00642	6a 03		 push	 3

; 106  : 
; 107  : 	// Skill Gauge
; 108  : 	m_bDisableGrowth	= rkLoader.LoadBool_e( "disable_growth", false );

  00644	c7 45 e8 89 85
	98 8b		 mov	 DWORD PTR __k$536973[ebp], -1952938615 ; 8b988589H
  0064b	c7 45 ec 8f 80
	8e b5		 mov	 DWORD PTR __k$536973[ebp+4], -1248952177 ; b58e808fH
  00652	c7 45 f0 8a 9e
	84 9d		 mov	 DWORD PTR __k$536973[ebp+8], -1652253046 ; 9d849e8aH
  00659	66 c7 45 f4 99
	84		 mov	 WORD PTR __k$536973[ebp+12], 33945 ; 00008499H
  0065f	8d 45 e8	 lea	 eax, DWORD PTR __k$536973[ebp]
  00662	c6 45 f6 00	 mov	 BYTE PTR __k$536973[ebp+14], 0
  00666	59		 pop	 ecx
$LL1698@LoadProper:
  00667	31 38		 xor	 DWORD PTR [eax], edi
  00669	83 c0 04	 add	 eax, 4
  0066c	49		 dec	 ecx
  0066d	75 f8		 jne	 SHORT $LL1698@LoadProper
  0066f	6a 0c		 push	 12			; 0000000cH
  00671	58		 pop	 eax
$LL1695@LoadProper:
  00672	8b c8		 mov	 ecx, eax
  00674	81 e1 03 00 00
	80		 and	 ecx, -2147483645	; 80000003H
  0067a	79 05		 jns	 SHORT $LN2103@LoadProper
  0067c	49		 dec	 ecx
  0067d	83 c9 fc	 or	 ecx, -4			; fffffffcH
  00680	41		 inc	 ecx
$LN2103@LoadProper:
  00681	b2 ed		 mov	 dl, -19			; ffffffedH
  00683	2a d1		 sub	 dl, cl
  00685	30 54 05 e8	 xor	 BYTE PTR __k$536973[ebp+eax], dl
  00689	40		 inc	 eax
  0068a	83 f8 0e	 cmp	 eax, 14			; 0000000eH
  0068d	7c e3		 jl	 SHORT $LL1695@LoadProper
  0068f	6a 00		 push	 0
  00691	8d 45 e8	 lea	 eax, DWORD PTR __k$536973[ebp]
  00694	50		 push	 eax
  00695	8b cb		 mov	 ecx, ebx
  00697	ff 15 00 00 00
	00		 call	 DWORD PTR __imp_?LoadBool@ioINILoader@@QAE_NPBD_N@Z
  0069d	0f b6 c0	 movzx	 eax, al
  006a0	50		 push	 eax
  006a1	8d 8e 6c 10 00
	00		 lea	 ecx, DWORD PTR [esi+4204]
  006a7	e8 00 00 00 00	 call	 ??4?$CEncrypt@_N@@QAE_N_N@Z ; CEncrypt<bool>::operator=
  006ac	6a 03		 push	 3

; 109  : 	m_fGuagePerTic		= rkLoader.LoadFloat_e( "gauge_per_tick", 0.0f );

  006ae	c7 45 e8 8a 8d
	9e 8d		 mov	 DWORD PTR __k$537098[ebp], -1918988918 ; 8d9e8d8aH
  006b5	c7 45 ec 88 b3
	9b 8f		 mov	 DWORD PTR __k$537098[ebp+4], -1885621368 ; 8f9bb388H
  006bc	c7 45 f0 9f b3
	9f 83		 mov	 DWORD PTR __k$537098[ebp+8], -2086685793 ; 839fb39fH
  006c3	66 c7 45 f4 8e
	87		 mov	 WORD PTR __k$537098[ebp+12], 34702 ; 0000878eH
  006c9	8d 45 e8	 lea	 eax, DWORD PTR __k$537098[ebp]
  006cc	c6 45 f6 00	 mov	 BYTE PTR __k$537098[ebp+14], 0
  006d0	59		 pop	 ecx
$LL1804@LoadProper:
  006d1	31 38		 xor	 DWORD PTR [eax], edi
  006d3	83 c0 04	 add	 eax, 4
  006d6	49		 dec	 ecx
  006d7	75 f8		 jne	 SHORT $LL1804@LoadProper
  006d9	6a 0c		 push	 12			; 0000000cH
  006db	58		 pop	 eax
$LL1801@LoadProper:
  006dc	8b c8		 mov	 ecx, eax
  006de	81 e1 03 00 00
	80		 and	 ecx, -2147483645	; 80000003H
  006e4	79 05		 jns	 SHORT $LN2104@LoadProper
  006e6	49		 dec	 ecx
  006e7	83 c9 fc	 or	 ecx, -4			; fffffffcH
  006ea	41		 inc	 ecx
$LN2104@LoadProper:
  006eb	b2 ed		 mov	 dl, -19			; ffffffedH
  006ed	2a d1		 sub	 dl, cl
  006ef	30 54 05 e8	 xor	 BYTE PTR __k$537098[ebp+eax], dl
  006f3	40		 inc	 eax
  006f4	83 f8 0e	 cmp	 eax, 14			; 0000000eH
  006f7	7c e3		 jl	 SHORT $LL1801@LoadProper
  006f9	0f 57 c0	 xorps	 xmm0, xmm0
  006fc	51		 push	 ecx
  006fd	8d 45 e8	 lea	 eax, DWORD PTR __k$537098[ebp]
  00700	f3 0f 11 04 24	 movss	 DWORD PTR [esp], xmm0
  00705	50		 push	 eax
  00706	8b cb		 mov	 ecx, ebx
  00708	ff 15 00 00 00
	00		 call	 DWORD PTR __imp_?LoadFloat@ioINILoader@@QAEMPBDM@Z
  0070e	51		 push	 ecx
  0070f	8d 8e 9c 10 00
	00		 lea	 ecx, DWORD PTR [esi+4252]
  00715	d9 1c 24	 fstp	 DWORD PTR [esp]
  00718	e8 00 00 00 00	 call	 ??4?$CEncrypt@M@@QAEMM@Z ; CEncrypt<float>::operator=
  0071d	dd d8		 fstp	 ST(0)
  0071f	6a 02		 push	 2

; 110  : 	m_dwTicTime			= (DWORD)rkLoader.LoadInt_e( "tick_time", 0 );

  00721	c7 45 ec 99 85
	88 81		 mov	 DWORD PTR __k$537223[ebp], -2121759335 ; 81888599H
  00728	c7 45 f0 b2 98
	82 87		 mov	 DWORD PTR __k$537223[ebp+4], -2021484366 ; 878298b2H
  0072f	8d 45 ec	 lea	 eax, DWORD PTR __k$537223[ebp]
  00732	66 c7 45 f4 88
	00		 mov	 WORD PTR __k$537223[ebp+8], 136 ; 00000088H
  00738	59		 pop	 ecx
$LL1910@LoadProper:
  00739	31 38		 xor	 DWORD PTR [eax], edi
  0073b	83 c0 04	 add	 eax, 4
  0073e	49		 dec	 ecx
  0073f	75 f8		 jne	 SHORT $LL1910@LoadProper
  00741	80 75 f4 ed	 xor	 BYTE PTR __k$537223[ebp+8], -19 ; ffffffedH
  00745	51		 push	 ecx
  00746	8d 45 ec	 lea	 eax, DWORD PTR __k$537223[ebp]
  00749	8b cb		 mov	 ecx, ebx
  0074b	8b 1d 00 00 00
	00		 mov	 ebx, DWORD PTR __imp_?LoadInt@ioINILoader@@QAEHPBDH@Z
  00751	50		 push	 eax
  00752	ff d3		 call	 ebx
  00754	50		 push	 eax
  00755	8d 8e cc 10 00
	00		 lea	 ecx, DWORD PTR [esi+4300]
  0075b	e8 00 00 00 00	 call	 ??4?$CEncrypt@K@@QAEKK@Z ; CEncrypt<unsigned long>::operator=
  00760	6a 07		 push	 7

; 111  : 
; 112  : 	m_dwSkillEndLiveAreaWeapon = (DWORD)rkLoader.LoadInt_e( "skill_end_live_time_area_weapon", 0 );

  00762	c7 45 d8 9e 87
	82 86		 mov	 DWORD PTR __k$537349[ebp], -2038265954 ; 8682879eH
  00769	c7 45 dc 81 b3
	8e 84		 mov	 DWORD PTR __k$537349[ebp+4], -2071022719 ; 848eb381H
  00770	c7 45 e0 89 b3
	87 83		 mov	 DWORD PTR __k$537349[ebp+8], -2088258679 ; 8387b389H
  00777	c7 45 e4 9b 89
	b4 9e		 mov	 DWORD PTR __k$537349[ebp+12], -1632335461 ; 9eb4899bH
  0077e	c7 45 e8 84 81
	8e b5		 mov	 DWORD PTR __k$537349[ebp+16], -1248951932 ; b58e8184H
  00785	c7 45 ec 8c 9e
	8e 8b		 mov	 DWORD PTR __k$537349[ebp+20], -1953587572 ; 8b8e9e8cH
  0078c	c7 45 f0 b2 9b
	8e 8b		 mov	 DWORD PTR __k$537349[ebp+24], -1953588302 ; 8b8e9bb2H
  00793	8d 45 d8	 lea	 eax, DWORD PTR __k$537349[ebp]
  00796	c7 45 f4 9d 83
	85 00		 mov	 DWORD PTR __k$537349[ebp+28], 8749981 ; 0085839dH
  0079d	59		 pop	 ecx
$LL2016@LoadProper:
  0079e	31 38		 xor	 DWORD PTR [eax], edi
  007a0	83 c0 04	 add	 eax, 4
  007a3	49		 dec	 ecx
  007a4	75 f8		 jne	 SHORT $LL2016@LoadProper
  007a6	6a 1c		 push	 28			; 0000001cH
  007a8	5f		 pop	 edi
$LL2013@LoadProper:
  007a9	8b c7		 mov	 eax, edi
  007ab	25 03 00 00 80	 and	 eax, -2147483645	; 80000003H
  007b0	79 05		 jns	 SHORT $LN2105@LoadProper
  007b2	48		 dec	 eax
  007b3	83 c8 fc	 or	 eax, -4			; fffffffcH
  007b6	40		 inc	 eax
$LN2105@LoadProper:
  007b7	b1 ed		 mov	 cl, -19			; ffffffedH
  007b9	2a c8		 sub	 cl, al
  007bb	30 4c 3d d8	 xor	 BYTE PTR __k$537349[ebp+edi], cl
  007bf	47		 inc	 edi
  007c0	83 ff 1f	 cmp	 edi, 31			; 0000001fH
  007c3	7c e4		 jl	 SHORT $LL2013@LoadProper
  007c5	8b 8d d0 fe ff
	ff		 mov	 ecx, DWORD PTR _rkLoader$GSCopy$[ebp]
  007cb	6a 00		 push	 0
  007cd	8d 45 d8	 lea	 eax, DWORD PTR __k$537349[ebp]
  007d0	50		 push	 eax
  007d1	ff d3		 call	 ebx
  007d3	50		 push	 eax
  007d4	8d 8e 1c 10 00
	00		 lea	 ecx, DWORD PTR [esi+4124]
  007da	e8 00 00 00 00	 call	 ??4?$CEncrypt@K@@QAEKK@Z ; CEncrypt<unsigned long>::operator=

; 113  : }

  007df	8b 4d fc	 mov	 ecx, DWORD PTR __$ArrayPad$[ebp]
  007e2	5f		 pop	 edi
  007e3	5e		 pop	 esi
  007e4	33 cd		 xor	 ecx, ebp
  007e6	5b		 pop	 ebx
  007e7	e8 00 00 00 00	 call	 @__security_check_cookie@4
  007ec	c9		 leave
  007ed	c2 04 00	 ret	 4
?LoadProperty@ioAreaWeaponControl2Skill@@UAEXAAVioINILoader@@@Z ENDP ; ioAreaWeaponControl2Skill::LoadProperty
; Function compile flags: /Ogsp
_TEXT	ENDS
;	COMDAT ?IsProtected@ioAreaWeaponControl2Skill@@UBE_NH@Z
_TEXT	SEGMENT
_value$537538 = -1					; size = 1
_iDefenseBreakType$ = 8					; size = 4
?IsProtected@ioAreaWeaponControl2Skill@@UBE_NH@Z PROC	; ioAreaWeaponControl2Skill::IsProtected, COMDAT
; _this$ = ecx

; 121  : {

  00000	55		 push	 ebp
  00001	8b ec		 mov	 ebp, esp
  00003	51		 push	 ecx
  00004	56		 push	 esi
  00005	8b f1		 mov	 esi, ecx

; 122  : 	if( m_bDisableSkillProtect )

  00007	8d 45 ff	 lea	 eax, DWORD PTR _value$537538[ebp]
  0000a	50		 push	 eax
  0000b	8d 8e a8 00 00
	00		 lea	 ecx, DWORD PTR [esi+168]
  00011	e8 00 00 00 00	 call	 ?DecryptValueToPool@?$CEncrypt@_N@@QAEXPA_N@Z ; CEncrypt<bool>::DecryptValueToPool
  00016	80 7d ff 00	 cmp	 BYTE PTR _value$537538[ebp], 0

; 123  : 		return false;

  0001a	75 59		 jne	 SHORT $LN2@IsProtecte

; 124  : 
; 125  : 	if( DBT_NONE != (DefenseBreakType)m_ProtectCancelType )

  0001c	8b 86 a4 00 00
	00		 mov	 eax, DWORD PTR [esi+164]
  00022	85 c0		 test	 eax, eax
  00024	74 05		 je	 SHORT $LN8@IsProtecte

; 126  : 	{
; 127  : 		if( iDefenseBreakType == m_ProtectCancelType )   // 스킬 무적 파괴

  00026	39 45 08	 cmp	 DWORD PTR _iDefenseBreakType$[ebp], eax

; 128  : 			return false;

  00029	74 4a		 je	 SHORT $LN2@IsProtecte
$LN8@IsProtecte:

; 129  : 	}
; 130  : 
; 131  : 	if( IsPreDelayProtect() )

  0002b	8b 06		 mov	 eax, DWORD PTR [esi]
  0002d	8b ce		 mov	 ecx, esi
  0002f	ff 90 2c 01 00
	00		 call	 DWORD PTR [eax+300]
  00035	84 c0		 test	 al, al
  00037	74 0d		 je	 SHORT $LN6@IsProtecte

; 132  : 	{
; 133  : 		if( m_dwPreDelayStartTime != 0 )

  00039	83 be 20 02 00
	00 00		 cmp	 DWORD PTR [esi+544], 0
  00040	74 04		 je	 SHORT $LN6@IsProtecte
$LN15@IsProtecte:

; 134  : 			return true;

  00042	b0 01		 mov	 al, 1
  00044	eb 31		 jmp	 SHORT $LN1@IsProtecte
$LN6@IsProtecte:

; 135  : 	}
; 136  : 
; 137  : 	DWORD dwCurTime = FRAMEGETTIME();

  00046	ff 15 00 00 00
	00		 call	 DWORD PTR __imp_?GetSingleton@ioFrameTimer@@SAAAV1@XZ
  0004c	8b c8		 mov	 ecx, eax
  0004e	ff 15 00 00 00
	00		 call	 DWORD PTR __imp_?GetLoopSec@ioFrameTimer@@QBEKXZ

; 138  : 
; 139  : 	if( m_ControlState == RS_ACTION )

  00054	8b 8e 58 0f 00
	00		 mov	 ecx, DWORD PTR [esi+3928]
  0005a	83 f9 01	 cmp	 ecx, 1

; 140  : 		return true;

  0005d	74 e3		 je	 SHORT $LN15@IsProtecte

; 141  : 
; 142  : 	if( m_ControlState == RS_LOOP )

  0005f	83 f9 02	 cmp	 ecx, 2
  00062	75 11		 jne	 SHORT $LN2@IsProtecte

; 143  : 	{
; 144  : 		if( m_dwLoopProtectDuration == 0 )

  00064	83 be 60 0f 00
	00 00		 cmp	 DWORD PTR [esi+3936], 0

; 145  : 			return true;

  0006b	74 d5		 je	 SHORT $LN15@IsProtecte

; 146  : 
; 147  : 		if( m_dwProtectTime > dwCurTime )

  0006d	39 86 64 0f 00
	00		 cmp	 DWORD PTR [esi+3940], eax

; 148  : 			return true;

  00073	77 cd		 ja	 SHORT $LN15@IsProtecte
$LN2@IsProtecte:

; 149  : 	}
; 150  : 	
; 151  : 	if( m_ControlState == RS_END )

  00075	32 c0		 xor	 al, al
$LN1@IsProtecte:
  00077	5e		 pop	 esi

; 152  : 		return false;
; 153  : 
; 154  : 	return false;
; 155  : }

  00078	c9		 leave
  00079	c2 04 00	 ret	 4
?IsProtected@ioAreaWeaponControl2Skill@@UBE_NH@Z ENDP	; ioAreaWeaponControl2Skill::IsProtected
_TEXT	ENDS
PUBLIC	__real@41f0000000000000
PUBLIC	_pChar$GSCopy$
PUBLIC	?SetActionState@ioAreaWeaponControl2Skill@@IAEXPAVioBaseChar@@@Z ; ioAreaWeaponControl2Skill::SetActionState
EXTRN	?AttachEffect@ioBaseChar@@QAEPAVioEffect@@ABVioHashString@@PAVioEntityEvent@@_N@Z:PROC ; ioBaseChar::AttachEffect
EXTRN	__imp_?GetAnimationFullTime@ioEntityGroup@@QAEMH@Z:PROC
EXTRN	__imp_?SetActionAni@ioEntityGroup@@QAE_NHMMMMMM_N0@Z:PROC
EXTRN	__imp_?GetAnimationIdx@ioEntityGroup@@QAEHABVioHashString@@@Z:PROC
EXTRN	__imp_??0ioHashString@@QAE@ABV0@@Z:PROC
;	COMDAT __real@41f0000000000000
; File d:\lost saga for developer\youtube\tutorial\source\src\lsclient\encryptvalue.h
CONST	SEGMENT
__real@41f0000000000000 DQ 041f0000000000000r	; 4.29497e+009
CONST	ENDS
;	COMDAT xdata$x
xdata$x	SEGMENT
__unwindtable$?SetActionState@ioAreaWeaponControl2Skill@@IAEXPAVioBaseChar@@@Z DD 0ffffffffH
	DD	FLAT:__unwindfunclet$?SetActionState@ioAreaWeaponControl2Skill@@IAEXPAVioBaseChar@@@Z$0
	DD	00H
	DD	FLAT:__unwindfunclet$?SetActionState@ioAreaWeaponControl2Skill@@IAEXPAVioBaseChar@@@Z$1
__ehfuncinfo$?SetActionState@ioAreaWeaponControl2Skill@@IAEXPAVioBaseChar@@@Z DD 019930522H
	DD	02H
	DD	FLAT:__unwindtable$?SetActionState@ioAreaWeaponControl2Skill@@IAEXPAVioBaseChar@@@Z
	DD	2 DUP(00H)
	DD	2 DUP(00H)
	DD	00H
	DD	01H
; Function compile flags: /Ogsp
; File d:\lost saga for developer\youtube\tutorial\source\src\lsclient\ioareaweaponcontrol2skill.cpp
xdata$x	ENDS
;	COMDAT ?SetActionState@ioAreaWeaponControl2Skill@@IAEXPAVioBaseChar@@@Z
_TEXT	SEGMENT
$T537699 = -80						; size = 16
_pChar$GSCopy$ = -64					; size = 4
_szSkillMotion$ = -60					; size = 16
_iCurSkillAniID$ = -44					; size = 4
tv1188 = -40						; size = 4
tv1185 = -40						; size = 4
tv1183 = -40						; size = 4
_value$537552 = -36					; size = 4
_value$537547 = -36					; size = 4
_fTimeRate$ = -36					; size = 4
_fAniRate$ = -36					; size = 4
tv1201 = -32						; size = 4
tv1196 = -32						; size = 4
tv1181 = -32						; size = 4
tv1179 = -32						; size = 4
tv1161 = -32						; size = 4
$T537698 = -32						; size = 4
_value$537714 = -32					; size = 4
$T537576 = -32						; size = 4
_szEncEventType$537599 = -28				; size = 7
__$EHRec$ = -12						; size = 12
_pChar$ = 8						; size = 4
?SetActionState@ioAreaWeaponControl2Skill@@IAEXPAVioBaseChar@@@Z PROC ; ioAreaWeaponControl2Skill::SetActionState, COMDAT
; _this$ = ecx

; 460  : {

  00000	6a 44		 push	 68			; 00000044H
  00002	b8 00 00 00 00	 mov	 eax, __ehhandler$?SetActionState@ioAreaWeaponControl2Skill@@IAEXPAVioBaseChar@@@Z
  00007	e8 00 00 00 00	 call	 __EH_prolog3_GS
  0000c	8b 5d 08	 mov	 ebx, DWORD PTR _pChar$[ebp]
  0000f	8b f1		 mov	 esi, ecx

; 461  : 	m_dwMotionStartTime = FRAMEGETTIME();
; 462  : 	m_dwMotionEndTime = m_dwMotionStartTime;
; 463  : 
; 464  : 	ioEntityGroup *pGrp = pChar->GetGroup();
; 465  : 	ioHashString szSkillMotion = GetSkillMotionName();
; 466  : 
; 467  : 	int iCurSkillAniID = pGrp->GetAnimationIdx( szSkillMotion );

  00011	89 5d c0	 mov	 DWORD PTR _pChar$GSCopy$[ebp], ebx
  00014	ff 15 00 00 00
	00		 call	 DWORD PTR __imp_?GetSingleton@ioFrameTimer@@SAAAV1@XZ
  0001a	8b c8		 mov	 ecx, eax
  0001c	ff 15 00 00 00
	00		 call	 DWORD PTR __imp_?GetLoopSec@ioFrameTimer@@QBEKXZ
  00022	89 45 dc	 mov	 DWORD PTR _value$537547[ebp], eax
  00025	8d 45 dc	 lea	 eax, DWORD PTR _value$537547[ebp]
  00028	50		 push	 eax
  00029	8d 8e a8 02 00
	00		 lea	 ecx, DWORD PTR [esi+680]
  0002f	e8 00 00 00 00	 call	 ?EncryptValueToPool@?$CEncrypt@K@@AAEXPBD@Z ; CEncrypt<unsigned long>::EncryptValueToPool
  00034	8d 45 dc	 lea	 eax, DWORD PTR _value$537552[ebp]
  00037	50		 push	 eax
  00038	8d 8e a8 02 00
	00		 lea	 ecx, DWORD PTR [esi+680]
  0003e	e8 00 00 00 00	 call	 ?DecryptValueToPool@?$CEncrypt@K@@QAEXPAK@Z ; CEncrypt<unsigned long>::DecryptValueToPool
  00043	8b 45 dc	 mov	 eax, DWORD PTR _value$537552[ebp]
  00046	89 86 d8 02 00
	00		 mov	 DWORD PTR [esi+728], eax
  0004c	8b 06		 mov	 eax, DWORD PTR [esi]
  0004e	8b 5b 04	 mov	 ebx, DWORD PTR [ebx+4]
  00051	8b ce		 mov	 ecx, esi
  00053	ff 90 20 01 00
	00		 call	 DWORD PTR [eax+288]
  00059	50		 push	 eax
  0005a	8d 4d c4	 lea	 ecx, DWORD PTR _szSkillMotion$[ebp]
  0005d	ff 15 00 00 00
	00		 call	 DWORD PTR __imp_??0ioHashString@@QAE@ABV0@@Z
  00063	83 65 fc 00	 and	 DWORD PTR __$EHRec$[ebp+8], 0
  00067	8d 45 c4	 lea	 eax, DWORD PTR _szSkillMotion$[ebp]
  0006a	50		 push	 eax
  0006b	8b cb		 mov	 ecx, ebx
  0006d	ff 15 00 00 00
	00		 call	 DWORD PTR __imp_?GetAnimationIdx@ioEntityGroup@@QAEHABVioHashString@@@Z
  00073	89 45 d4	 mov	 DWORD PTR _iCurSkillAniID$[ebp], eax

; 468  : 	if( iCurSkillAniID == -1 )	return;

  00076	83 f8 ff	 cmp	 eax, -1
  00079	75 11		 jne	 SHORT $LN2@SetActionS
  0007b	09 45 fc	 or	 DWORD PTR __$EHRec$[ebp+8], eax
  0007e	8d 4d c4	 lea	 ecx, DWORD PTR _szSkillMotion$[ebp]
  00081	ff 15 00 00 00
	00		 call	 DWORD PTR __imp_??1ioHashString@@QAE@XZ
  00087	e9 15 02 00 00	 jmp	 $LN3@SetActionS
$LN2@SetActionS:

; 469  : 
; 470  : 	float fAniRate = GetSkillMotionRate();

  0008c	8b 06		 mov	 eax, DWORD PTR [esi]
  0008e	8b ce		 mov	 ecx, esi
  00090	ff 90 28 01 00
	00		 call	 DWORD PTR [eax+296]
  00096	d9 5d dc	 fstp	 DWORD PTR _fAniRate$[ebp]

; 471  : 
; 472  : 	float fTimeRate = fAniRate * m_fExtraAniRate;

  00099	d9 86 68 03 00
	00		 fld	 DWORD PTR [esi+872]
  0009f	d8 4d dc	 fmul	 DWORD PTR _fAniRate$[ebp]
  000a2	d9 5d dc	 fstp	 DWORD PTR _fTimeRate$[ebp]

; 473  : 	
; 474  : 	pGrp->ClearAllLoopAni( FLOAT100, true );

  000a5	b8 64 00 00 00	 mov	 eax, 100		; 00000064H
  000aa	89 45 e0	 mov	 DWORD PTR tv1201[ebp], eax
  000ad	db 45 e0	 fild	 DWORD PTR tv1201[ebp]
  000b0	6a 01		 push	 1
  000b2	85 c0		 test	 eax, eax
  000b4	79 06		 jns	 SHORT $LN138@SetActionS
  000b6	d8 05 00 00 00
	00		 fadd	 DWORD PTR __real@4f800000
$LN138@SetActionS:
  000bc	51		 push	 ecx
  000bd	8b cb		 mov	 ecx, ebx
  000bf	d9 1c 24	 fstp	 DWORD PTR [esp]
  000c2	ff 15 00 00 00
	00		 call	 DWORD PTR __imp_?ClearAllLoopAni@ioEntityGroup@@QAEXM_N@Z

; 475  : 	pGrp->ClearAllActionAni( FLOAT100, true );

  000c8	b8 64 00 00 00	 mov	 eax, 100		; 00000064H
  000cd	89 45 e0	 mov	 DWORD PTR tv1196[ebp], eax
  000d0	db 45 e0	 fild	 DWORD PTR tv1196[ebp]
  000d3	6a 01		 push	 1
  000d5	85 c0		 test	 eax, eax
  000d7	79 06		 jns	 SHORT $LN139@SetActionS
  000d9	d8 05 00 00 00
	00		 fadd	 DWORD PTR __real@4f800000
$LN139@SetActionS:
  000df	51		 push	 ecx
  000e0	8b cb		 mov	 ecx, ebx
  000e2	d9 1c 24	 fstp	 DWORD PTR [esp]
  000e5	ff 15 00 00 00
	00		 call	 DWORD PTR __imp_?ClearAllActionAni@ioEntityGroup@@QAEXM_N@Z

; 476  : 	pGrp->SetActionAni( iCurSkillAniID, FLOAT100, FLOAT100, FLOAT1, FLOAT1/fTimeRate );

  000eb	b8 01 00 00 00	 mov	 eax, 1
  000f0	8b c8		 mov	 ecx, eax
  000f2	b8 01 00 00 00	 mov	 eax, 1
  000f7	8b d0		 mov	 edx, eax
  000f9	b8 64 00 00 00	 mov	 eax, 100		; 00000064H
  000fe	89 45 e0	 mov	 DWORD PTR $T537576[ebp], eax
  00101	b8 64 00 00 00	 mov	 eax, 100		; 00000064H
  00106	0f 57 c0	 xorps	 xmm0, xmm0
  00109	6a 01		 push	 1
  0010b	6a 00		 push	 0
  0010d	83 ec 18	 sub	 esp, 24			; 00000018H
  00110	89 4d d8	 mov	 DWORD PTR tv1188[ebp], ecx
  00113	db 45 d8	 fild	 DWORD PTR tv1188[ebp]
  00116	f3 0f 11 44 24
	14		 movss	 DWORD PTR [esp+20], xmm0
  0011c	f3 0f 11 44 24
	10		 movss	 DWORD PTR [esp+16], xmm0
  00122	85 c9		 test	 ecx, ecx
  00124	79 06		 jns	 SHORT $LN140@SetActionS
  00126	d8 05 00 00 00
	00		 fadd	 DWORD PTR __real@4f800000
$LN140@SetActionS:
  0012c	d8 75 dc	 fdiv	 DWORD PTR _fTimeRate$[ebp]
  0012f	d9 5d d8	 fstp	 DWORD PTR tv1185[ebp]
  00132	d9 45 d8	 fld	 DWORD PTR tv1185[ebp]
  00135	d9 5c 24 0c	 fstp	 DWORD PTR [esp+12]
  00139	89 55 d8	 mov	 DWORD PTR tv1183[ebp], edx
  0013c	db 45 d8	 fild	 DWORD PTR tv1183[ebp]
  0013f	85 d2		 test	 edx, edx
  00141	79 06		 jns	 SHORT $LN141@SetActionS
  00143	d8 05 00 00 00
	00		 fadd	 DWORD PTR __real@4f800000
$LN141@SetActionS:
  00149	8b 4d e0	 mov	 ecx, DWORD PTR $T537576[ebp]
  0014c	d9 5c 24 08	 fstp	 DWORD PTR [esp+8]
  00150	db 45 e0	 fild	 DWORD PTR $T537576[ebp]
  00153	85 c9		 test	 ecx, ecx
  00155	79 06		 jns	 SHORT $LN142@SetActionS
  00157	d8 05 00 00 00
	00		 fadd	 DWORD PTR __real@4f800000
$LN142@SetActionS:
  0015d	d9 5c 24 04	 fstp	 DWORD PTR [esp+4]
  00161	89 45 e0	 mov	 DWORD PTR tv1179[ebp], eax
  00164	db 45 e0	 fild	 DWORD PTR tv1179[ebp]
  00167	85 c0		 test	 eax, eax
  00169	79 06		 jns	 SHORT $LN143@SetActionS
  0016b	d8 05 00 00 00
	00		 fadd	 DWORD PTR __real@4f800000
$LN143@SetActionS:
  00171	d9 1c 24	 fstp	 DWORD PTR [esp]
  00174	ff 75 d4	 push	 DWORD PTR _iCurSkillAniID$[ebp]
  00177	8b cb		 mov	 ecx, ebx
  00179	ff 15 00 00 00
	00		 call	 DWORD PTR __imp_?SetActionAni@ioEntityGroup@@QAE_NHMMMMMM_N0@Z

; 477  : 	
; 478  : 
; 479  : 	m_dwMotionEndTime += pGrp->GetAnimationFullTime( iCurSkillAniID )*fTimeRate;

  0017f	ff 75 d4	 push	 DWORD PTR _iCurSkillAniID$[ebp]
  00182	8b cb		 mov	 ecx, ebx
  00184	ff 15 00 00 00
	00		 call	 DWORD PTR __imp_?GetAnimationFullTime@ioEntityGroup@@QAEMH@Z
  0018a	d8 4d dc	 fmul	 DWORD PTR _fTimeRate$[ebp]
  0018d	8b 86 d8 02 00
	00		 mov	 eax, DWORD PTR [esi+728]
  00193	db 86 d8 02 00
	00		 fild	 DWORD PTR [esi+728]
  00199	85 c0		 test	 eax, eax
  0019b	79 06		 jns	 SHORT $LN144@SetActionS
  0019d	dc 05 00 00 00
	00		 fadd	 QWORD PTR __real@41f0000000000000
$LN144@SetActionS:
  001a3	de c1		 faddp	 ST(1), ST(0)
  001a5	e8 00 00 00 00	 call	 __ftol2

; 480  : 
; 481  : 	DWORD dwCreateTime = pGrp->GetAnimationEventTime_e( iCurSkillAniID, "fire_s" ) * fTimeRate;

  001aa	6a 04		 push	 4
  001ac	c7 45 e4 8b 85
	99 8f		 mov	 DWORD PTR _szEncEventType$537599[ebp], -1885764213 ; 8f99858bH
  001b3	81 75 e4 ed ec
	eb ea		 xor	 DWORD PTR _szEncEventType$537599[ebp], -353637139 ; eaebecedH
  001ba	89 86 d8 02 00
	00		 mov	 DWORD PTR [esi+728], eax
  001c0	66 c7 45 e8 b2
	9f		 mov	 WORD PTR _szEncEventType$537599[ebp+4], 40882 ; 00009fb2H
  001c6	c6 45 ea 00	 mov	 BYTE PTR _szEncEventType$537599[ebp+6], 0
  001ca	5f		 pop	 edi
$LL125@SetActionS:
  001cb	8b c7		 mov	 eax, edi
  001cd	25 03 00 00 80	 and	 eax, -2147483645	; 80000003H
  001d2	79 05		 jns	 SHORT $LN145@SetActionS
  001d4	48		 dec	 eax
  001d5	83 c8 fc	 or	 eax, -4			; fffffffcH
  001d8	40		 inc	 eax
$LN145@SetActionS:
  001d9	b1 ed		 mov	 cl, -19			; ffffffedH
  001db	2a c8		 sub	 cl, al
  001dd	30 4c 3d e4	 xor	 BYTE PTR _szEncEventType$537599[ebp+edi], cl
  001e1	47		 inc	 edi
  001e2	83 ff 06	 cmp	 edi, 6
  001e5	7c e4		 jl	 SHORT $LL125@SetActionS
  001e7	8d 45 e4	 lea	 eax, DWORD PTR _szEncEventType$537599[ebp]
  001ea	50		 push	 eax
  001eb	8d 4d b0	 lea	 ecx, DWORD PTR $T537699[ebp]
  001ee	ff 15 00 00 00
	00		 call	 DWORD PTR __imp_??0ioHashString@@QAE@PBD@Z
  001f4	8d 45 b0	 lea	 eax, DWORD PTR $T537699[ebp]
  001f7	50		 push	 eax
  001f8	ff 75 d4	 push	 DWORD PTR _iCurSkillAniID$[ebp]
  001fb	8b cb		 mov	 ecx, ebx
  001fd	c6 45 fc 01	 mov	 BYTE PTR __$EHRec$[ebp+8], 1
  00201	ff 15 00 00 00
	00		 call	 DWORD PTR __imp_?GetAnimationEventTime@ioEntityGroup@@QAEMHABVioHashString@@@Z
  00207	d9 5d e0	 fstp	 DWORD PTR $T537698[ebp]
  0020a	8b 3d 00 00 00
	00		 mov	 edi, DWORD PTR __imp_??1ioHashString@@QAE@XZ
  00210	8d 4d b0	 lea	 ecx, DWORD PTR $T537699[ebp]
  00213	c6 45 fc 00	 mov	 BYTE PTR __$EHRec$[ebp+8], 0
  00217	ff d7		 call	 edi
  00219	d9 45 e0	 fld	 DWORD PTR $T537698[ebp]
  0021c	d8 4d dc	 fmul	 DWORD PTR _fTimeRate$[ebp]
  0021f	e8 00 00 00 00	 call	 __ftol2
  00224	8b d8		 mov	 ebx, eax

; 482  : 	m_dwCreateAreaWeaponTime = m_dwMotionStartTime + dwCreateTime;

  00226	8d 45 e0	 lea	 eax, DWORD PTR _value$537714[ebp]
  00229	50		 push	 eax
  0022a	8d 8e a8 02 00
	00		 lea	 ecx, DWORD PTR [esi+680]
  00230	e8 00 00 00 00	 call	 ?DecryptValueToPool@?$CEncrypt@K@@QAEXPAK@Z ; CEncrypt<unsigned long>::DecryptValueToPool
  00235	8b 45 e0	 mov	 eax, DWORD PTR _value$537714[ebp]

; 483  : 
; 484  : 	m_ControlState = RS_ACTION;
; 485  : 
; 486  : 	pChar->AttachEffect( m_SkillEffectName );

  00238	8b 4d c0	 mov	 ecx, DWORD PTR _pChar$GSCopy$[ebp]
  0023b	03 c3		 add	 eax, ebx
  0023d	89 86 4c 10 00
	00		 mov	 DWORD PTR [esi+4172], eax
  00243	33 c0		 xor	 eax, eax
  00245	40		 inc	 eax
  00246	50		 push	 eax
  00247	89 86 58 0f 00
	00		 mov	 DWORD PTR [esi+3928], eax
  0024d	6a 00		 push	 0
  0024f	8d 86 b8 01 00
	00		 lea	 eax, DWORD PTR [esi+440]
  00255	50		 push	 eax
  00256	e8 00 00 00 00	 call	 ?AttachEffect@ioBaseChar@@QAEPAVioEffect@@ABVioHashString@@PAVioEntityEvent@@_N@Z ; ioBaseChar::AttachEffect

; 487  : 
; 488  : 	// 사용 아이템 처리
; 489  : 	if( !m_bSetHandMesh && m_bUseItemMesh && !m_StartHandMesh.IsEmpty() )

  0025b	80 be 0a 0f 00
	00 00		 cmp	 BYTE PTR [esi+3850], 0
  00262	75 34		 jne	 SHORT $LN1@SetActionS
  00264	80 be 08 0f 00
	00 00		 cmp	 BYTE PTR [esi+3848], 0
  0026b	74 2b		 je	 SHORT $LN1@SetActionS
  0026d	8d 9e 9c 0f 00
	00		 lea	 ebx, DWORD PTR [esi+3996]
  00273	8b cb		 mov	 ecx, ebx
  00275	ff 15 00 00 00
	00		 call	 DWORD PTR __imp_?IsEmpty@ioHashString@@QBE_NXZ
  0027b	84 c0		 test	 al, al
  0027d	75 19		 jne	 SHORT $LN1@SetActionS

; 490  : 	{
; 491  : 		pChar->ChangeSkillWeaponMesh( this, m_StartHandMesh, m_bVisibleEquipMesh );

  0027f	0f b6 86 09 0f
	00 00		 movzx	 eax, BYTE PTR [esi+3849]
  00286	8b 4d c0	 mov	 ecx, DWORD PTR _pChar$GSCopy$[ebp]
  00289	50		 push	 eax
  0028a	53		 push	 ebx
  0028b	56		 push	 esi
  0028c	e8 00 00 00 00	 call	 ?ChangeSkillWeaponMesh@ioBaseChar@@QAE_NPAVioSkill@@ABVioHashString@@_N@Z ; ioBaseChar::ChangeSkillWeaponMesh

; 492  : 		m_bSetHandMesh = true;

  00291	c6 86 0a 0f 00
	00 01		 mov	 BYTE PTR [esi+3850], 1
$LN1@SetActionS:

; 493  : 	}
; 494  : }

  00298	83 4d fc ff	 or	 DWORD PTR __$EHRec$[ebp+8], -1
  0029c	8d 4d c4	 lea	 ecx, DWORD PTR _szSkillMotion$[ebp]
  0029f	ff d7		 call	 edi
$LN3@SetActionS:
  002a1	e8 00 00 00 00	 call	 __EH_epilog3_GS
  002a6	c2 04 00	 ret	 4
_TEXT	ENDS
;	COMDAT text$x
text$x	SEGMENT
__unwindfunclet$?SetActionState@ioAreaWeaponControl2Skill@@IAEXPAVioBaseChar@@@Z$0:
  00000	8d 4d c4	 lea	 ecx, DWORD PTR _szSkillMotion$[ebp]
  00003	ff 25 00 00 00
	00		 jmp	 DWORD PTR __imp_??1ioHashString@@QAE@XZ
__unwindfunclet$?SetActionState@ioAreaWeaponControl2Skill@@IAEXPAVioBaseChar@@@Z$1:
  00009	8d 4d b0	 lea	 ecx, DWORD PTR $T537699[ebp]
  0000c	ff 25 00 00 00
	00		 jmp	 DWORD PTR __imp_??1ioHashString@@QAE@XZ
__ehhandler$?SetActionState@ioAreaWeaponControl2Skill@@IAEXPAVioBaseChar@@@Z:
  00012	8b 54 24 08	 mov	 edx, DWORD PTR [esp+8]
  00016	8d 42 0c	 lea	 eax, DWORD PTR [edx+12]
  00019	8b 4a ac	 mov	 ecx, DWORD PTR [edx-84]
  0001c	33 c8		 xor	 ecx, eax
  0001e	e8 00 00 00 00	 call	 @__security_check_cookie@4
  00023	8b 4a fc	 mov	 ecx, DWORD PTR [edx-4]
  00026	33 c8		 xor	 ecx, eax
  00028	e8 00 00 00 00	 call	 @__security_check_cookie@4
  0002d	b8 00 00 00 00	 mov	 eax, OFFSET __ehfuncinfo$?SetActionState@ioAreaWeaponControl2Skill@@IAEXPAVioBaseChar@@@Z
  00032	e9 00 00 00 00	 jmp	 ___CxxFrameHandler3
text$x	ENDS
?SetActionState@ioAreaWeaponControl2Skill@@IAEXPAVioBaseChar@@@Z ENDP ; ioAreaWeaponControl2Skill::SetActionState
PUBLIC	__real@00000000
PUBLIC	_pChar$GSCopy$
PUBLIC	__$ArrayPad$
PUBLIC	?CreateAreaWeapon@ioAreaWeaponControl2Skill@@IAEXPAVioBaseChar@@PAVioPlayStage@@@Z ; ioAreaWeaponControl2Skill::CreateAreaWeapon
EXTRN	??6SP2Packet@@QAEAAV0@ABUD3DXQUATERNION@@@Z:PROC ; SP2Packet::operator<<
EXTRN	?GetMagicCirclePos@ioBaseGUISupport@@QBE?AUD3DXVECTOR3@@M_N@Z:PROC ; ioBaseGUISupport::GetMagicCirclePos
;	COMDAT __real@00000000
; File d:\lost saga for developer\youtube\tutorial\source\src\lsclient\ioskill.h
CONST	SEGMENT
__real@00000000 DD 000000000r			; 0
CONST	ENDS
;	COMDAT xdata$x
xdata$x	SEGMENT
__unwindtable$?CreateAreaWeapon@ioAreaWeaponControl2Skill@@IAEXPAVioBaseChar@@PAVioPlayStage@@@Z DD 0ffffffffH
	DD	FLAT:__unwindfunclet$?CreateAreaWeapon@ioAreaWeaponControl2Skill@@IAEXPAVioBaseChar@@PAVioPlayStage@@@Z$0
	DD	0ffffffffH
	DD	FLAT:__unwindfunclet$?CreateAreaWeapon@ioAreaWeaponControl2Skill@@IAEXPAVioBaseChar@@PAVioPlayStage@@@Z$1
__ehfuncinfo$?CreateAreaWeapon@ioAreaWeaponControl2Skill@@IAEXPAVioBaseChar@@PAVioPlayStage@@@Z DD 019930522H
	DD	02H
	DD	FLAT:__unwindtable$?CreateAreaWeapon@ioAreaWeaponControl2Skill@@IAEXPAVioBaseChar@@PAVioPlayStage@@@Z
	DD	2 DUP(00H)
	DD	2 DUP(00H)
	DD	00H
	DD	01H
; Function compile flags: /Ogsp
; File d:\lost saga for developer\youtube\tutorial\source\src\lsclient\ioareaweaponcontrol2skill.cpp
xdata$x	ENDS
;	COMDAT ?CreateAreaWeapon@ioAreaWeaponControl2Skill@@IAEXPAVioBaseChar@@PAVioPlayStage@@@Z
_TEXT	SEGMENT
_qtRot$531102 = -32856					; size = 16
tv248 = -32840						; size = 4
_value$537753 = -32836					; size = 1
_pArea$531103 = -32836					; size = 4
tv253 = -32832						; size = 4
_fCurOffSet$531099 = -32832				; size = 4
tv254 = -32828						; size = 4
_pChar$GSCopy$ = -32828					; size = 4
_kPacket$531107 = -32824				; size = 32792
$T537740 = -32						; size = 16
$T531101 = -28						; size = 12
__$ArrayPad$ = -16					; size = 4
__$EHRec$ = -12						; size = 12
_pChar$ = 8						; size = 4
_pStage$ = 12						; size = 4
?CreateAreaWeapon@ioAreaWeaponControl2Skill@@IAEXPAVioBaseChar@@PAVioPlayStage@@@Z PROC ; ioAreaWeaponControl2Skill::CreateAreaWeapon, COMDAT
; _this$ = ecx

; 497  : {

  00000	55		 push	 ebp
  00001	8b ec		 mov	 ebp, esp
  00003	6a ff		 push	 -1
  00005	68 00 00 00 00	 push	 __ehhandler$?CreateAreaWeapon@ioAreaWeaponControl2Skill@@IAEXPAVioBaseChar@@PAVioPlayStage@@@Z
  0000a	64 a1 00 00 00
	00		 mov	 eax, DWORD PTR fs:0
  00010	50		 push	 eax
  00011	b8 4c 80 00 00	 mov	 eax, 32844		; 0000804cH
  00016	e8 00 00 00 00	 call	 __chkstk
  0001b	a1 00 00 00 00	 mov	 eax, DWORD PTR ___security_cookie
  00020	33 c5		 xor	 eax, ebp
  00022	89 45 f0	 mov	 DWORD PTR __$ArrayPad$[ebp], eax
  00025	53		 push	 ebx
  00026	56		 push	 esi
  00027	57		 push	 edi
  00028	50		 push	 eax
  00029	8d 45 f4	 lea	 eax, DWORD PTR __$EHRec$[ebp]
  0002c	64 a3 00 00 00
	00		 mov	 DWORD PTR fs:0, eax
  00032	8b 75 08	 mov	 esi, DWORD PTR _pChar$[ebp]
  00035	8b d9		 mov	 ebx, ecx

; 498  : 	if( m_AreaWeaponName.IsEmpty() ) return;

  00037	8d 8b 08 10 00
	00		 lea	 ecx, DWORD PTR [ebx+4104]

; 520  : 		{
; 521  : 			m_dwAreaWeaponIndex = pArea->GetAreaWeaponIndex();

  0003d	89 b5 c4 7f ff
	ff		 mov	 DWORD PTR _pChar$GSCopy$[ebp], esi
  00043	ff 15 00 00 00
	00		 call	 DWORD PTR __imp_?IsEmpty@ioHashString@@QBE_NXZ
  00049	84 c0		 test	 al, al
  0004b	0f 85 dc 01 00
	00		 jne	 $LN1@CreateArea

; 499  : 
; 500  : 	if( pChar->IsNeedProcess() )

  00051	8b 06		 mov	 eax, DWORD PTR [esi]
  00053	8b ce		 mov	 ecx, esi
  00055	ff 90 00 01 00
	00		 call	 DWORD PTR [eax+256]
  0005b	84 c0		 test	 al, al
  0005d	0f 84 ca 01 00
	00		 je	 $LN1@CreateArea

; 501  : 	{
; 502  : 		if( m_dwCircleDuration == 0 )

  00063	83 bb f4 0f 00
	00 00		 cmp	 DWORD PTR [ebx+4084], 0
  0006a	75 79		 jne	 SHORT $LN4@CreateArea

; 503  : 		{
; 504  : 			float fCurOffSet = GetOwnerItem()->GetMagicCircleOffSet();

  0006c	8b 83 a4 02 00
	00		 mov	 eax, DWORD PTR [ebx+676]
  00072	f3 0f 10 80 b4
	04 00 00	 movss	 xmm0, DWORD PTR [eax+1204]

; 505  : 			if( fCurOffSet == 0.0f )

  0007a	0f 2e 05 00 00
	00 00		 ucomiss xmm0, DWORD PTR __real@00000000
  00081	9f		 lahf
  00082	f3 0f 11 85 c0
	7f ff ff	 movss	 DWORD PTR _fCurOffSet$531099[ebp], xmm0
  0008a	f6 c4 44	 test	 ah, 68			; 00000044H
  0008d	7a 10		 jp	 SHORT $LN3@CreateArea

; 506  : 				fCurOffSet = m_fOffSet;

  0008f	f3 0f 10 83 cc
	0f 00 00	 movss	 xmm0, DWORD PTR [ebx+4044]
  00097	f3 0f 11 85 c0
	7f ff ff	 movss	 DWORD PTR _fCurOffSet$531099[ebp], xmm0
$LN3@CreateArea:

; 507  : 
; 508  : 			m_vCreatePos = pChar->GetMagicCirclePos( fCurOffSet, m_bCircleNoChangeY );

  0009f	8d 85 bc 7f ff
	ff		 lea	 eax, DWORD PTR _value$537753[ebp]
  000a5	50		 push	 eax
  000a6	8d 8b 24 06 00
	00		 lea	 ecx, DWORD PTR [ebx+1572]
  000ac	e8 00 00 00 00	 call	 ?DecryptValueToPool@?$CEncrypt@_N@@QAEXPA_N@Z ; CEncrypt<bool>::DecryptValueToPool
  000b1	ff b5 bc 7f ff
	ff		 push	 DWORD PTR _value$537753[ebp]
  000b7	f3 0f 10 85 c0
	7f ff ff	 movss	 xmm0, DWORD PTR _fCurOffSet$531099[ebp]
  000bf	51		 push	 ecx
  000c0	8d 45 e4	 lea	 eax, DWORD PTR $T531101[ebp]
  000c3	f3 0f 11 04 24	 movss	 DWORD PTR [esp], xmm0
  000c8	50		 push	 eax
  000c9	8d 8e cc 01 00
	00		 lea	 ecx, DWORD PTR [esi+460]
  000cf	e8 00 00 00 00	 call	 ?GetMagicCirclePos@ioBaseGUISupport@@QBE?AUD3DXVECTOR3@@M_N@Z ; ioBaseGUISupport::GetMagicCirclePos
  000d4	8d bb fc 0f 00
	00		 lea	 edi, DWORD PTR [ebx+4092]
  000da	8b f0		 mov	 esi, eax
  000dc	a5		 movsd
  000dd	a5		 movsd
  000de	a5		 movsd
  000df	8b b5 c4 7f ff
	ff		 mov	 esi, DWORD PTR _pChar$GSCopy$[ebp]
$LN4@CreateArea:

; 509  : 		}
; 510  : 
; 511  : 		D3DXQUATERNION qtRot = pChar->GetTargetRot();

  000e5	81 c6 a4 06 00
	00		 add	 esi, 1700		; 000006a4H
  000eb	8d bd a8 7f ff
	ff		 lea	 edi, DWORD PTR _qtRot$531102[ebp]
  000f1	a5		 movsd
  000f2	a5		 movsd
  000f3	a5		 movsd

; 512  : 		ioAreaWeapon *pArea = g_AreaWeaponMgr.CreateAreaWeapon( pChar->GetCharName(),
; 513  : 																"",
; 514  : 																GetName(),
; 515  : 																m_AreaWeaponName,
; 516  : 																m_vCreatePos,
; 517  : 																qtRot,
; 518  : 																ioAreaWeapon::CT_NORMAL );

  000f4	68 00 00 00 00	 push	 OFFSET ??_C@_00CNPNBAHC@?$AA@
  000f9	8d 4d e0	 lea	 ecx, DWORD PTR $T537740[ebp]
  000fc	a5		 movsd
  000fd	ff 15 00 00 00
	00		 call	 DWORD PTR __imp_??0ioHashString@@QAE@PBD@Z
  00103	8b b5 c4 7f ff
	ff		 mov	 esi, DWORD PTR _pChar$GSCopy$[ebp]
  00109	83 65 fc 00	 and	 DWORD PTR __$EHRec$[ebp+8], 0
  0010d	6a 00		 push	 0
  0010f	8d bd a8 7f ff
	ff		 lea	 edi, DWORD PTR _qtRot$531102[ebp]
  00115	57		 push	 edi
  00116	8d 83 fc 0f 00
	00		 lea	 eax, DWORD PTR [ebx+4092]
  0011c	50		 push	 eax
  0011d	8d 4b 24	 lea	 ecx, DWORD PTR [ebx+36]
  00120	8d bb 08 10 00
	00		 lea	 edi, DWORD PTR [ebx+4104]
  00126	57		 push	 edi
  00127	89 85 b8 7f ff
	ff		 mov	 DWORD PTR tv248[ebp], eax
  0012d	51		 push	 ecx
  0012e	8d 45 e0	 lea	 eax, DWORD PTR $T537740[ebp]
  00131	8d 96 d4 02 00
	00		 lea	 edx, DWORD PTR [esi+724]
  00137	50		 push	 eax
  00138	52		 push	 edx
  00139	89 8d c0 7f ff
	ff		 mov	 DWORD PTR tv253[ebp], ecx
  0013f	89 95 c4 7f ff
	ff		 mov	 DWORD PTR tv254[ebp], edx
  00145	e8 00 00 00 00	 call	 ?GetSingleton@ioAreaWeaponManager@@SAAAV1@XZ ; ioAreaWeaponManager::GetSingleton
  0014a	8b c8		 mov	 ecx, eax
  0014c	e8 00 00 00 00	 call	 ?CreateAreaWeapon@ioAreaWeaponManager@@QAEPAVioAreaWeapon@@ABVioHashString@@000ABUD3DXVECTOR3@@ABUD3DXQUATERNION@@H@Z ; ioAreaWeaponManager::CreateAreaWeapon
  00151	83 4d fc ff	 or	 DWORD PTR __$EHRec$[ebp+8], -1
  00155	8d 4d e0	 lea	 ecx, DWORD PTR $T537740[ebp]
  00158	89 85 bc 7f ff
	ff		 mov	 DWORD PTR _pArea$531103[ebp], eax
  0015e	ff 15 00 00 00
	00		 call	 DWORD PTR __imp_??1ioHashString@@QAE@XZ

; 519  : 		if( pArea )

  00164	8b 85 bc 7f ff
	ff		 mov	 eax, DWORD PTR _pArea$531103[ebp]
  0016a	85 c0		 test	 eax, eax
  0016c	0f 84 bb 00 00
	00		 je	 $LN1@CreateArea

; 520  : 		{
; 521  : 			m_dwAreaWeaponIndex = pArea->GetAreaWeaponIndex();

  00172	8b 40 14	 mov	 eax, DWORD PTR [eax+20]
  00175	89 83 18 10 00
	00		 mov	 DWORD PTR [ebx+4120], eax

; 522  : 
; 523  : 			//UPD로 생성 상황 동기화 맞춰줄것
; 524  : 			if( pChar->IsNeedSendNetwork() )

  0017b	8b 06		 mov	 eax, DWORD PTR [esi]
  0017d	8b ce		 mov	 ecx, esi
  0017f	ff 90 04 01 00
	00		 call	 DWORD PTR [eax+260]
  00185	84 c0		 test	 al, al
  00187	0f 84 a0 00 00
	00		 je	 $LN1@CreateArea

; 525  : 			{
; 526  : 				SP2Packet kPacket( CUPK_SKILL_EXTRA_INFO );

  0018d	68 39 41 00 00	 push	 16697			; 00004139H
  00192	8d 8d c8 7f ff
	ff		 lea	 ecx, DWORD PTR _kPacket$531107[ebp]
  00198	e8 00 00 00 00	 call	 ??0SP2Packet@@QAE@K@Z	; SP2Packet::SP2Packet

; 527  : 				kPacket << pChar->GetCharName();

  0019d	ff b5 c4 7f ff
	ff		 push	 DWORD PTR tv254[ebp]
  001a3	8d 8d c8 7f ff
	ff		 lea	 ecx, DWORD PTR _kPacket$531107[ebp]
  001a9	c7 45 fc 01 00
	00 00		 mov	 DWORD PTR __$EHRec$[ebp+8], 1
  001b0	e8 00 00 00 00	 call	 ??6SP2Packet@@QAEAAV0@ABVioHashString@@@Z ; SP2Packet::operator<<

; 528  : 				kPacket << GetName();

  001b5	ff b5 c0 7f ff
	ff		 push	 DWORD PTR tv253[ebp]
  001bb	8d 8d c8 7f ff
	ff		 lea	 ecx, DWORD PTR _kPacket$531107[ebp]
  001c1	e8 00 00 00 00	 call	 ??6SP2Packet@@QAEAAV0@ABVioHashString@@@Z ; SP2Packet::operator<<

; 529  : 
; 530  : 				kPacket << SS_CREATE;

  001c6	33 f6		 xor	 esi, esi
  001c8	56		 push	 esi
  001c9	8d 8d c8 7f ff
	ff		 lea	 ecx, DWORD PTR _kPacket$531107[ebp]
  001cf	e8 00 00 00 00	 call	 ??6SP2Packet@@QAEAAV0@H@Z ; SP2Packet::operator<<

; 531  : 				kPacket << m_AreaWeaponName;

  001d4	57		 push	 edi
  001d5	8d 8d c8 7f ff
	ff		 lea	 ecx, DWORD PTR _kPacket$531107[ebp]
  001db	e8 00 00 00 00	 call	 ??6SP2Packet@@QAEAAV0@ABVioHashString@@@Z ; SP2Packet::operator<<

; 532  : 				kPacket << m_vCreatePos;

  001e0	ff b5 b8 7f ff
	ff		 push	 DWORD PTR tv248[ebp]
  001e6	8d 8d c8 7f ff
	ff		 lea	 ecx, DWORD PTR _kPacket$531107[ebp]
  001ec	e8 00 00 00 00	 call	 ??6SP2Packet@@QAEAAV0@ABUD3DXVECTOR3@@@Z ; SP2Packet::operator<<

; 533  : 				kPacket << qtRot;

  001f1	8d 85 a8 7f ff
	ff		 lea	 eax, DWORD PTR _qtRot$531102[ebp]
  001f7	50		 push	 eax
  001f8	8d 8d c8 7f ff
	ff		 lea	 ecx, DWORD PTR _kPacket$531107[ebp]
  001fe	e8 00 00 00 00	 call	 ??6SP2Packet@@QAEAAV0@ABUD3DXQUATERNION@@@Z ; SP2Packet::operator<<

; 534  : 				kPacket << (int)ioAreaWeapon::CT_NORMAL;

  00203	56		 push	 esi
  00204	8d 8d c8 7f ff
	ff		 lea	 ecx, DWORD PTR _kPacket$531107[ebp]
  0020a	e8 00 00 00 00	 call	 ??6SP2Packet@@QAEAAV0@H@Z ; SP2Packet::operator<<

; 535  : 				P2PNetwork::SendToAllPlayingUser( kPacket );

  0020f	8d 85 c8 7f ff
	ff		 lea	 eax, DWORD PTR _kPacket$531107[ebp]
  00215	56		 push	 esi
  00216	50		 push	 eax
  00217	e8 00 00 00 00	 call	 ?SendToAllPlayingUser@P2PNetwork@@YAXAAVSP2Packet@@PAVioBaseChar@@@Z ; P2PNetwork::SendToAllPlayingUser

; 536  : 			}

  0021c	83 4d fc ff	 or	 DWORD PTR __$EHRec$[ebp+8], -1
  00220	59		 pop	 ecx
  00221	59		 pop	 ecx
  00222	8d 8d c8 7f ff
	ff		 lea	 ecx, DWORD PTR _kPacket$531107[ebp]
  00228	e8 00 00 00 00	 call	 ??1SP2Packet@@UAE@XZ	; SP2Packet::~SP2Packet
$LN1@CreateArea:

; 537  : 		}
; 538  : 	}
; 539  : }

  0022d	8b 4d f4	 mov	 ecx, DWORD PTR __$EHRec$[ebp]
  00230	64 89 0d 00 00
	00 00		 mov	 DWORD PTR fs:0, ecx
  00237	59		 pop	 ecx
  00238	5f		 pop	 edi
  00239	5e		 pop	 esi
  0023a	5b		 pop	 ebx
  0023b	8b 4d f0	 mov	 ecx, DWORD PTR __$ArrayPad$[ebp]
  0023e	33 cd		 xor	 ecx, ebp
  00240	e8 00 00 00 00	 call	 @__security_check_cookie@4
  00245	c9		 leave
  00246	c2 08 00	 ret	 8
_TEXT	ENDS
;	COMDAT text$x
text$x	SEGMENT
__unwindfunclet$?CreateAreaWeapon@ioAreaWeaponControl2Skill@@IAEXPAVioBaseChar@@PAVioPlayStage@@@Z$0:
  00000	8d 4d e0	 lea	 ecx, DWORD PTR $T537740[ebp]
  00003	ff 25 00 00 00
	00		 jmp	 DWORD PTR __imp_??1ioHashString@@QAE@XZ
__unwindfunclet$?CreateAreaWeapon@ioAreaWeaponControl2Skill@@IAEXPAVioBaseChar@@PAVioPlayStage@@@Z$1:
  00009	8d 8d c8 7f ff
	ff		 lea	 ecx, DWORD PTR _kPacket$531107[ebp]
  0000f	e9 00 00 00 00	 jmp	 ??1SP2Packet@@UAE@XZ	; SP2Packet::~SP2Packet
__ehhandler$?CreateAreaWeapon@ioAreaWeaponControl2Skill@@IAEXPAVioBaseChar@@PAVioPlayStage@@@Z:
  00014	8b 54 24 08	 mov	 edx, DWORD PTR [esp+8]
  00018	8d 42 0c	 lea	 eax, DWORD PTR [edx+12]
  0001b	8b 8a a4 7f ff
	ff		 mov	 ecx, DWORD PTR [edx-32860]
  00021	33 c8		 xor	 ecx, eax
  00023	e8 00 00 00 00	 call	 @__security_check_cookie@4
  00028	8b 4a fc	 mov	 ecx, DWORD PTR [edx-4]
  0002b	33 c8		 xor	 ecx, eax
  0002d	e8 00 00 00 00	 call	 @__security_check_cookie@4
  00032	b8 00 00 00 00	 mov	 eax, OFFSET __ehfuncinfo$?CreateAreaWeapon@ioAreaWeaponControl2Skill@@IAEXPAVioBaseChar@@PAVioPlayStage@@@Z
  00037	e9 00 00 00 00	 jmp	 ___CxxFrameHandler3
text$x	ENDS
?CreateAreaWeapon@ioAreaWeaponControl2Skill@@IAEXPAVioBaseChar@@PAVioPlayStage@@@Z ENDP ; ioAreaWeaponControl2Skill::CreateAreaWeapon
PUBLIC	?DestroyAreaWeapon@ioAreaWeaponControl2Skill@@IAEXXZ ; ioAreaWeaponControl2Skill::DestroyAreaWeapon
EXTRN	?DestroyAreaWeapon@ioAreaWeaponManager@@QAEXK@Z:PROC ; ioAreaWeaponManager::DestroyAreaWeapon
EXTRN	?SetLiveTime@ioAreaWeapon@@QAEXK@Z:PROC		; ioAreaWeapon::SetLiveTime
EXTRN	?SetCurLiveTime@ioAreaWeapon@@QAEXK@Z:PROC	; ioAreaWeapon::SetCurLiveTime
; Function compile flags: /Ogsp
;	COMDAT ?DestroyAreaWeapon@ioAreaWeaponControl2Skill@@IAEXXZ
_TEXT	SEGMENT
_value$537788 = -4					; size = 4
_value$537792 = -4					; size = 4
?DestroyAreaWeapon@ioAreaWeaponControl2Skill@@IAEXXZ PROC ; ioAreaWeaponControl2Skill::DestroyAreaWeapon, COMDAT
; _this$ = ecx

; 542  : {

  00000	55		 push	 ebp
  00001	8b ec		 mov	 ebp, esp
  00003	51		 push	 ecx
  00004	53		 push	 ebx
  00005	56		 push	 esi
  00006	57		 push	 edi
  00007	8b f1		 mov	 esi, ecx

; 543  : 	if( m_dwAreaWeaponIndex == 0 )

  00009	33 ff		 xor	 edi, edi
  0000b	39 be 18 10 00
	00		 cmp	 DWORD PTR [esi+4120], edi
  00011	74 5a		 je	 SHORT $LN1@DestroyAre

; 544  : 		return;
; 545  : 
; 546  : 	if( m_dwSkillEndLiveAreaWeapon > 0 )

  00013	8d 45 fc	 lea	 eax, DWORD PTR _value$537788[ebp]
  00016	8d 8e 1c 10 00
	00		 lea	 ecx, DWORD PTR [esi+4124]
  0001c	50		 push	 eax
  0001d	e8 00 00 00 00	 call	 ?DecryptValueToPool@?$CEncrypt@K@@QAEXPAK@Z ; CEncrypt<unsigned long>::DecryptValueToPool

; 547  : 	{
; 548  : 		ioAreaWeapon *pArea = g_AreaWeaponMgr.FindAreaWeaponByIndex( m_dwAreaWeaponIndex );

  00022	ff b6 18 10 00
	00		 push	 DWORD PTR [esi+4120]
  00028	e8 00 00 00 00	 call	 ?GetSingleton@ioAreaWeaponManager@@SAAAV1@XZ ; ioAreaWeaponManager::GetSingleton
  0002d	8b c8		 mov	 ecx, eax
  0002f	39 7d fc	 cmp	 DWORD PTR _value$537788[ebp], edi
  00032	76 2e		 jbe	 SHORT $LN3@DestroyAre
  00034	e8 00 00 00 00	 call	 ?FindAreaWeaponByIndex@ioAreaWeaponManager@@QAEPAVioAreaWeapon@@K@Z ; ioAreaWeaponManager::FindAreaWeaponByIndex
  00039	8b d8		 mov	 ebx, eax

; 549  : 		if( pArea )

  0003b	3b df		 cmp	 ebx, edi
  0003d	74 2e		 je	 SHORT $LN1@DestroyAre

; 550  : 		{
; 551  : 			pArea->SetCurLiveTime( 0 );

  0003f	57		 push	 edi
  00040	8b cb		 mov	 ecx, ebx
  00042	e8 00 00 00 00	 call	 ?SetCurLiveTime@ioAreaWeapon@@QAEXK@Z ; ioAreaWeapon::SetCurLiveTime

; 552  : 			pArea->SetLiveTime( m_dwSkillEndLiveAreaWeapon );

  00047	8d 45 fc	 lea	 eax, DWORD PTR _value$537792[ebp]
  0004a	50		 push	 eax
  0004b	8d 8e 1c 10 00
	00		 lea	 ecx, DWORD PTR [esi+4124]
  00051	e8 00 00 00 00	 call	 ?DecryptValueToPool@?$CEncrypt@K@@QAEXPAK@Z ; CEncrypt<unsigned long>::DecryptValueToPool
  00056	ff 75 fc	 push	 DWORD PTR _value$537792[ebp]
  00059	8b cb		 mov	 ecx, ebx
  0005b	e8 00 00 00 00	 call	 ?SetLiveTime@ioAreaWeapon@@QAEXK@Z ; ioAreaWeapon::SetLiveTime

; 553  : 			m_dwAreaWeaponIndex = 0;
; 554  : 		}
; 555  : 	}
; 556  : 	else

  00060	eb 05		 jmp	 SHORT $LN11@DestroyAre
$LN3@DestroyAre:

; 557  : 	{
; 558  : 		g_AreaWeaponMgr.DestroyAreaWeapon( m_dwAreaWeaponIndex );

  00062	e8 00 00 00 00	 call	 ?DestroyAreaWeapon@ioAreaWeaponManager@@QAEXK@Z ; ioAreaWeaponManager::DestroyAreaWeapon
$LN11@DestroyAre:

; 559  : 		m_dwAreaWeaponIndex = 0;

  00067	89 be 18 10 00
	00		 mov	 DWORD PTR [esi+4120], edi
$LN1@DestroyAre:
  0006d	5f		 pop	 edi
  0006e	5e		 pop	 esi
  0006f	5b		 pop	 ebx

; 560  : 	}
; 561  : 	
; 562  : }

  00070	c9		 leave
  00071	c3		 ret	 0
?DestroyAreaWeapon@ioAreaWeaponControl2Skill@@IAEXXZ ENDP ; ioAreaWeaponControl2Skill::DestroyAreaWeapon
_TEXT	ENDS
PUBLIC	?SetEndState@ioAreaWeaponControl2Skill@@IAEXPAVioBaseChar@@@Z ; ioAreaWeaponControl2Skill::SetEndState
; Function compile flags: /Ogsp
;	COMDAT ?SetEndState@ioAreaWeaponControl2Skill@@IAEXPAVioBaseChar@@@Z
_TEXT	SEGMENT
tv298 = -12						; size = 4
tv293 = -12						; size = 4
tv276 = -12						; size = 4
tv274 = -12						; size = 4
tv239 = -12						; size = 4
$T537818 = -12						; size = 4
tv283 = -8						; size = 4
tv280 = -8						; size = 4
tv278 = -8						; size = 4
_iCurSkillAniID$ = -4					; size = 4
_pChar$ = 8						; size = 4
?SetEndState@ioAreaWeaponControl2Skill@@IAEXPAVioBaseChar@@@Z PROC ; ioAreaWeaponControl2Skill::SetEndState, COMDAT
; _this$ = ecx

; 600  : {

  00000	55		 push	 ebp
  00001	8b ec		 mov	 ebp, esp
  00003	83 ec 0c	 sub	 esp, 12			; 0000000cH
  00006	53		 push	 ebx
  00007	56		 push	 esi
  00008	8b f1		 mov	 esi, ecx
  0000a	57		 push	 edi

; 601  : 	m_ControlState = RS_END;

  0000b	c7 86 58 0f 00
	00 03 00 00 00	 mov	 DWORD PTR [esi+3928], 3

; 602  : 	m_dwEndAniStartTime = FRAMEGETTIME();

  00015	ff 15 00 00 00
	00		 call	 DWORD PTR __imp_?GetSingleton@ioFrameTimer@@SAAAV1@XZ
  0001b	8b c8		 mov	 ecx, eax
  0001d	ff 15 00 00 00
	00		 call	 DWORD PTR __imp_?GetLoopSec@ioFrameTimer@@QBEKXZ
  00023	89 86 94 0f 00
	00		 mov	 DWORD PTR [esi+3988], eax

; 603  : 	m_dwEndAniEndTime = m_dwEndAniStartTime;

  00029	89 86 98 0f 00
	00		 mov	 DWORD PTR [esi+3992], eax

; 604  : 
; 605  : 	ioEntityGroup *pGrp = pChar->GetGroup();

  0002f	8b 45 08	 mov	 eax, DWORD PTR _pChar$[ebp]
  00032	8b 58 04	 mov	 ebx, DWORD PTR [eax+4]

; 606  : 	int iCurSkillAniID = pGrp->GetAnimationIdx( m_EndAnimation );

  00035	8d 86 80 0f 00
	00		 lea	 eax, DWORD PTR [esi+3968]
  0003b	50		 push	 eax
  0003c	8b cb		 mov	 ecx, ebx
  0003e	ff 15 00 00 00
	00		 call	 DWORD PTR __imp_?GetAnimationIdx@ioEntityGroup@@QAEHABVioHashString@@@Z
  00044	89 45 fc	 mov	 DWORD PTR _iCurSkillAniID$[ebp], eax

; 607  : 	if( iCurSkillAniID == -1 )	return;

  00047	83 f8 ff	 cmp	 eax, -1
  0004a	0f 84 8b 01 00
	00		 je	 $LN5@SetEndStat

; 608  : 
; 609  : 	pGrp->ClearAllLoopAni( FLOAT100, true );

  00050	b8 64 00 00 00	 mov	 eax, 100		; 00000064H
  00055	89 45 f4	 mov	 DWORD PTR tv298[ebp], eax
  00058	db 45 f4	 fild	 DWORD PTR tv298[ebp]
  0005b	6a 01		 push	 1
  0005d	85 c0		 test	 eax, eax
  0005f	79 06		 jns	 SHORT $LN23@SetEndStat
  00061	d8 05 00 00 00
	00		 fadd	 DWORD PTR __real@4f800000
$LN23@SetEndStat:
  00067	51		 push	 ecx
  00068	8b cb		 mov	 ecx, ebx
  0006a	d9 1c 24	 fstp	 DWORD PTR [esp]
  0006d	ff 15 00 00 00
	00		 call	 DWORD PTR __imp_?ClearAllLoopAni@ioEntityGroup@@QAEXM_N@Z

; 610  : 	pGrp->ClearAllActionAni( FLOAT100, true );

  00073	b8 64 00 00 00	 mov	 eax, 100		; 00000064H
  00078	89 45 f4	 mov	 DWORD PTR tv293[ebp], eax
  0007b	db 45 f4	 fild	 DWORD PTR tv293[ebp]
  0007e	6a 01		 push	 1
  00080	85 c0		 test	 eax, eax
  00082	79 06		 jns	 SHORT $LN24@SetEndStat
  00084	d8 05 00 00 00
	00		 fadd	 DWORD PTR __real@4f800000
$LN24@SetEndStat:
  0008a	51		 push	 ecx
  0008b	8b cb		 mov	 ecx, ebx
  0008d	d9 1c 24	 fstp	 DWORD PTR [esp]
  00090	ff 15 00 00 00
	00		 call	 DWORD PTR __imp_?ClearAllActionAni@ioEntityGroup@@QAEXM_N@Z

; 611  : 	pGrp->SetActionAni( iCurSkillAniID, FLOAT100, FLOAT100, FLOAT1, FLOAT1/m_fEndAniRate );

  00096	b8 01 00 00 00	 mov	 eax, 1
  0009b	8b c8		 mov	 ecx, eax
  0009d	b8 01 00 00 00	 mov	 eax, 1
  000a2	8b d0		 mov	 edx, eax
  000a4	b8 64 00 00 00	 mov	 eax, 100		; 00000064H
  000a9	89 45 f4	 mov	 DWORD PTR $T537818[ebp], eax
  000ac	b8 64 00 00 00	 mov	 eax, 100		; 00000064H
  000b1	0f 57 c0	 xorps	 xmm0, xmm0
  000b4	6a 01		 push	 1
  000b6	6a 00		 push	 0
  000b8	83 ec 18	 sub	 esp, 24			; 00000018H
  000bb	89 4d f8	 mov	 DWORD PTR tv283[ebp], ecx
  000be	db 45 f8	 fild	 DWORD PTR tv283[ebp]
  000c1	f3 0f 11 44 24
	14		 movss	 DWORD PTR [esp+20], xmm0
  000c7	f3 0f 11 44 24
	10		 movss	 DWORD PTR [esp+16], xmm0
  000cd	85 c9		 test	 ecx, ecx
  000cf	79 06		 jns	 SHORT $LN25@SetEndStat
  000d1	d8 05 00 00 00
	00		 fadd	 DWORD PTR __real@4f800000
$LN25@SetEndStat:
  000d7	d8 b6 90 0f 00
	00		 fdiv	 DWORD PTR [esi+3984]
  000dd	d9 5d f8	 fstp	 DWORD PTR tv280[ebp]
  000e0	d9 45 f8	 fld	 DWORD PTR tv280[ebp]
  000e3	d9 5c 24 0c	 fstp	 DWORD PTR [esp+12]
  000e7	89 55 f8	 mov	 DWORD PTR tv278[ebp], edx
  000ea	db 45 f8	 fild	 DWORD PTR tv278[ebp]
  000ed	85 d2		 test	 edx, edx
  000ef	79 06		 jns	 SHORT $LN26@SetEndStat
  000f1	d8 05 00 00 00
	00		 fadd	 DWORD PTR __real@4f800000
$LN26@SetEndStat:
  000f7	8b 4d f4	 mov	 ecx, DWORD PTR $T537818[ebp]
  000fa	d9 5c 24 08	 fstp	 DWORD PTR [esp+8]
  000fe	db 45 f4	 fild	 DWORD PTR $T537818[ebp]
  00101	85 c9		 test	 ecx, ecx
  00103	79 06		 jns	 SHORT $LN27@SetEndStat
  00105	d8 05 00 00 00
	00		 fadd	 DWORD PTR __real@4f800000
$LN27@SetEndStat:
  0010b	89 45 f4	 mov	 DWORD PTR tv274[ebp], eax
  0010e	d9 5c 24 04	 fstp	 DWORD PTR [esp+4]
  00112	db 45 f4	 fild	 DWORD PTR tv274[ebp]
  00115	85 c0		 test	 eax, eax
  00117	79 06		 jns	 SHORT $LN28@SetEndStat
  00119	d8 05 00 00 00
	00		 fadd	 DWORD PTR __real@4f800000
$LN28@SetEndStat:
  0011f	d9 1c 24	 fstp	 DWORD PTR [esp]
  00122	ff 75 fc	 push	 DWORD PTR _iCurSkillAniID$[ebp]
  00125	8b cb		 mov	 ecx, ebx
  00127	ff 15 00 00 00
	00		 call	 DWORD PTR __imp_?SetActionAni@ioEntityGroup@@QAE_NHMMMMMM_N0@Z

; 612  : 	
; 613  : 	m_dwEndAniEndTime += pGrp->GetAnimationFullTime( iCurSkillAniID ) * m_fEndAniRate;

  0012d	ff 75 fc	 push	 DWORD PTR _iCurSkillAniID$[ebp]
  00130	8b cb		 mov	 ecx, ebx
  00132	ff 15 00 00 00
	00		 call	 DWORD PTR __imp_?GetAnimationFullTime@ioEntityGroup@@QAEMH@Z
  00138	d8 8e 90 0f 00
	00		 fmul	 DWORD PTR [esi+3984]
  0013e	8b 86 98 0f 00
	00		 mov	 eax, DWORD PTR [esi+3992]
  00144	db 86 98 0f 00
	00		 fild	 DWORD PTR [esi+3992]
  0014a	85 c0		 test	 eax, eax
  0014c	79 06		 jns	 SHORT $LN29@SetEndStat
  0014e	dc 05 00 00 00
	00		 fadd	 QWORD PTR __real@41f0000000000000
$LN29@SetEndStat:
  00154	de c1		 faddp	 ST(1), ST(0)
  00156	e8 00 00 00 00	 call	 __ftol2

; 614  : 
; 615  : 	if( m_bSetHandMesh )

  0015b	80 be 0a 0f 00
	00 00		 cmp	 BYTE PTR [esi+3850], 0
  00162	89 86 98 0f 00
	00		 mov	 DWORD PTR [esi+3992], eax
  00168	74 36		 je	 SHORT $LN31@SetEndStat

; 616  : 	{
; 617  : 		if( !m_LoopHandMesh.IsEmpty() )

  0016a	8d be ac 0f 00
	00		 lea	 edi, DWORD PTR [esi+4012]
  00170	8b cf		 mov	 ecx, edi
  00172	ff 15 00 00 00
	00		 call	 DWORD PTR __imp_?IsEmpty@ioHashString@@QBE_NXZ
  00178	84 c0		 test	 al, al
  0017a	75 14		 jne	 SHORT $LN21@SetEndStat

; 618  : 		{
; 619  : 			pChar->RestoreSkillWeaponMesh( this, m_LoopHandMesh, m_bVisibleEquipMesh );

  0017c	0f b6 86 09 0f
	00 00		 movzx	 eax, BYTE PTR [esi+3849]
  00183	8b 4d 08	 mov	 ecx, DWORD PTR _pChar$[ebp]
  00186	6a 00		 push	 0
  00188	50		 push	 eax
  00189	57		 push	 edi
  0018a	56		 push	 esi
  0018b	e8 00 00 00 00	 call	 ?RestoreSkillWeaponMesh@ioBaseChar@@QAE_NPAVioSkill@@ABVioHashString@@_N2@Z ; ioBaseChar::RestoreSkillWeaponMesh
$LN21@SetEndStat:

; 620  : 		}
; 621  : 		m_bSetHandMesh = false;

  00190	c6 86 0a 0f 00
	00 00		 mov	 BYTE PTR [esi+3850], 0

; 622  : 	}
; 623  : 
; 624  : 	// 사용 아이템 처리
; 625  : 	if( !m_bSetHandMesh && m_bUseItemMesh && !m_EndHandMesh.IsEmpty() )

  00197	80 be 0a 0f 00
	00 00		 cmp	 BYTE PTR [esi+3850], 0
  0019e	75 34		 jne	 SHORT $LN1@SetEndStat
$LN31@SetEndStat:
  001a0	80 be 08 0f 00
	00 00		 cmp	 BYTE PTR [esi+3848], 0
  001a7	74 2b		 je	 SHORT $LN1@SetEndStat
  001a9	8d be bc 0f 00
	00		 lea	 edi, DWORD PTR [esi+4028]
  001af	8b cf		 mov	 ecx, edi
  001b1	ff 15 00 00 00
	00		 call	 DWORD PTR __imp_?IsEmpty@ioHashString@@QBE_NXZ
  001b7	84 c0		 test	 al, al
  001b9	75 19		 jne	 SHORT $LN1@SetEndStat

; 626  : 	{
; 627  : 		pChar->ChangeSkillWeaponMesh( this, m_EndHandMesh, m_bVisibleEquipMesh );

  001bb	0f b6 86 09 0f
	00 00		 movzx	 eax, BYTE PTR [esi+3849]
  001c2	8b 4d 08	 mov	 ecx, DWORD PTR _pChar$[ebp]
  001c5	50		 push	 eax
  001c6	57		 push	 edi
  001c7	56		 push	 esi
  001c8	e8 00 00 00 00	 call	 ?ChangeSkillWeaponMesh@ioBaseChar@@QAE_NPAVioSkill@@ABVioHashString@@_N@Z ; ioBaseChar::ChangeSkillWeaponMesh

; 628  : 		m_bSetHandMesh = true;

  001cd	c6 86 0a 0f 00
	00 01		 mov	 BYTE PTR [esi+3850], 1
$LN1@SetEndStat:

; 629  : 	}
; 630  : 
; 631  : 	DestroyAreaWeapon();

  001d4	8b ce		 mov	 ecx, esi
  001d6	e8 00 00 00 00	 call	 ?DestroyAreaWeapon@ioAreaWeaponControl2Skill@@IAEXXZ ; ioAreaWeaponControl2Skill::DestroyAreaWeapon
$LN5@SetEndStat:
  001db	5f		 pop	 edi
  001dc	5e		 pop	 esi
  001dd	5b		 pop	 ebx

; 632  : }

  001de	c9		 leave
  001df	c2 04 00	 ret	 4
?SetEndState@ioAreaWeaponControl2Skill@@IAEXPAVioBaseChar@@@Z ENDP ; ioAreaWeaponControl2Skill::SetEndState
_TEXT	ENDS
PUBLIC	__real@0000000000000000
PUBLIC	_pStage$GSCopy$
PUBLIC	_pChar$GSCopy$
PUBLIC	__$ArrayPad$
PUBLIC	?ProcessControl@ioAreaWeaponControl2Skill@@IAEXPAVioBaseChar@@PAVioPlayStage@@@Z ; ioAreaWeaponControl2Skill::ProcessControl
EXTRN	?SetTargetRotToTargetPos@ioBaseChar@@QAEXABUD3DXVECTOR3@@_N1@Z:PROC ; ioBaseChar::SetTargetRotToTargetPos
EXTRN	?SetAreaPosition@ioAreaWeapon@@QAEXABUD3DXVECTOR3@@PAVioPlayStage@@@Z:PROC ; ioAreaWeapon::SetAreaPosition
EXTRN	?GetMidHeightByRate@ioGameEntity@@QBEMM@Z:PROC	; ioGameEntity::GetMidHeightByRate
EXTRN	_D3DXVec3Normalize@8:PROC
EXTRN	?GetMapHeight@ioPlayStage@@QAEMMMPBVioGameEntity@@_NM1@Z:PROC ; ioPlayStage::GetMapHeight
EXTRN	__imp_?GetSecPerFrame@ioFrameTimer@@QBEMXZ:PROC
;	COMDAT __real@0000000000000000
; File d:\lost saga for developer\youtube\tutorial\source\src\lsclient\stdafx.h
CONST	SEGMENT
__real@0000000000000000 DQ 00000000000000000r	; 0
; Function compile flags: /Ogsp
; File d:\lost saga for developer\youtube\tutorial\source\src\lsclient\ioareaweaponcontrol2skill.cpp
CONST	ENDS
;	COMDAT ?ProcessControl@ioAreaWeaponControl2Skill@@IAEXPAVioBaseChar@@PAVioPlayStage@@@Z
_TEXT	SEGMENT
_vPrePos$531209 = -84					; size = 12
$T531221 = -72						; size = 12
_pAreaWeapon$ = -60					; size = 4
_pStage$GSCopy$ = -56					; size = 4
_vCreatePos$531215 = -52				; size = 12
_vPos$531211 = -52					; size = 12
tv318 = -48						; size = 8
tv648 = -44						; size = 4
_pChar$GSCopy$ = -40					; size = 4
_value$537899 = -33					; size = 1
_value$537859 = -33					; size = 1
tv839 = -32						; size = 4
tv831 = -32						; size = 4
tv723 = -32						; size = 4
tv717 = -32						; size = 4
tv712 = -32						; size = 4
tv707 = -32						; size = 4
$T537908 = -32						; size = 4
$T537849 = -32						; size = 4
_fMapHeight$531223 = -32				; size = 4
_fMapHeight$531213 = -32				; size = 4
_vDiff$531217 = -28					; size = 12
_vCurPos$531210 = -16					; size = 12
__$ArrayPad$ = -4					; size = 4
_pChar$ = 8						; size = 4
_pStage$ = 12						; size = 4
?ProcessControl@ioAreaWeaponControl2Skill@@IAEXPAVioBaseChar@@PAVioPlayStage@@@Z PROC ; ioAreaWeaponControl2Skill::ProcessControl, COMDAT
; _this$ = ecx

; 750  : {

  00000	55		 push	 ebp
  00001	8b ec		 mov	 ebp, esp
  00003	83 ec 54	 sub	 esp, 84			; 00000054H
  00006	a1 00 00 00 00	 mov	 eax, DWORD PTR ___security_cookie
  0000b	33 c5		 xor	 eax, ebp
  0000d	89 45 fc	 mov	 DWORD PTR __$ArrayPad$[ebp], eax
  00010	8b 45 08	 mov	 eax, DWORD PTR _pChar$[ebp]
  00013	53		 push	 ebx
  00014	8b d9		 mov	 ebx, ecx
  00016	8b 4d 0c	 mov	 ecx, DWORD PTR _pStage$[ebp]

; 818  : 		{
; 819  : 			m_fHeight -= m_fMoveSpeed * g_FrameTimer.GetSecPerFrame();

  00019	89 45 d8	 mov	 DWORD PTR _pChar$GSCopy$[ebp], eax
  0001c	89 4d c8	 mov	 DWORD PTR _pStage$GSCopy$[ebp], ecx
  0001f	85 c0		 test	 eax, eax
  00021	0f 84 3e 04 00
	00		 je	 $LN10@ProcessCon

; 751  : 	if( !pChar )
; 752  : 		return;
; 753  : 
; 754  : 	if( !pStage )

  00027	85 c9		 test	 ecx, ecx
  00029	0f 84 36 04 00
	00		 je	 $LN10@ProcessCon

; 755  : 		return;
; 756  : 
; 757  : 	if( m_dwAreaWeaponIndex == 0 )

  0002f	8b 83 18 10 00
	00		 mov	 eax, DWORD PTR [ebx+4120]
  00035	85 c0		 test	 eax, eax
  00037	0f 84 28 04 00
	00		 je	 $LN10@ProcessCon

; 758  : 		return;
; 759  : 
; 760  : 	ioAreaWeapon *pAreaWeapon = g_AreaWeaponMgr.FindAreaWeaponByIndex( m_dwAreaWeaponIndex );

  0003d	50		 push	 eax
  0003e	e8 00 00 00 00	 call	 ?GetSingleton@ioAreaWeaponManager@@SAAAV1@XZ ; ioAreaWeaponManager::GetSingleton
  00043	8b c8		 mov	 ecx, eax
  00045	e8 00 00 00 00	 call	 ?FindAreaWeaponByIndex@ioAreaWeaponManager@@QAEPAVioAreaWeapon@@K@Z ; ioAreaWeaponManager::FindAreaWeaponByIndex
  0004a	89 45 c4	 mov	 DWORD PTR _pAreaWeapon$[ebp], eax

; 761  : 	if( !pAreaWeapon )

  0004d	85 c0		 test	 eax, eax
  0004f	75 0b		 jne	 SHORT $LN11@ProcessCon

; 762  : 	{
; 763  : 		m_dwAreaWeaponIndex = 0;

  00051	21 83 18 10 00
	00		 and	 DWORD PTR [ebx+4120], eax

; 764  : 		return;

  00057	e9 09 04 00 00	 jmp	 $LN10@ProcessCon
$LN11@ProcessCon:

; 765  : 	}
; 766  : 
; 767  : 	if( m_AreaWeaponState == AS_MOVE && m_fMoveSpeed > 0.0f )

  0005c	83 bb 5c 0f 00
	00 01		 cmp	 DWORD PTR [ebx+3932], 1
  00063	0f 85 fc 03 00
	00		 jne	 $LN10@ProcessCon
  00069	f3 0f 10 83 50
	10 00 00	 movss	 xmm0, DWORD PTR [ebx+4176]
  00071	0f 2f 05 00 00
	00 00		 comiss	 xmm0, DWORD PTR __real@00000000
  00078	0f 86 e7 03 00
	00		 jbe	 $LN10@ProcessCon

; 768  : 	{
; 769  : 		D3DXVECTOR3 vPrePos, vCurPos, vPos;
; 770  : 		vPos = m_vMoveDir;

  0007e	56		 push	 esi
  0007f	57		 push	 edi
  00080	8d b3 5c 10 00
	00		 lea	 esi, DWORD PTR [ebx+4188]
  00086	8d 7d cc	 lea	 edi, DWORD PTR _vPos$531211[ebp]
  00089	a5		 movsd
  0008a	a5		 movsd
  0008b	a5		 movsd

; 771  : 		vPos *= m_fMoveSpeed * g_FrameTimer.GetSecPerFrame();

  0008c	ff 15 00 00 00
	00		 call	 DWORD PTR __imp_?GetSingleton@ioFrameTimer@@SAAAV1@XZ
  00092	8b c8		 mov	 ecx, eax
  00094	ff 15 00 00 00
	00		 call	 DWORD PTR __imp_?GetSecPerFrame@ioFrameTimer@@QBEMXZ

; 772  : 
; 773  : 		vPrePos = vCurPos = pAreaWeapon->GetStartPos();

  0009a	8b 45 c4	 mov	 eax, DWORD PTR _pAreaWeapon$[ebp]
  0009d	d8 8b 50 10 00
	00		 fmul	 DWORD PTR [ebx+4176]
  000a3	f3 0f 10 45 cc	 movss	 xmm0, DWORD PTR _vPos$531211[ebp]
  000a8	0f 5a c0	 cvtps2pd xmm0, xmm0
  000ab	8d b0 4c 01 00
	00		 lea	 esi, DWORD PTR [eax+332]
  000b1	d9 5d e0	 fstp	 DWORD PTR $T537849[ebp]
  000b4	f3 0f 10 4d e0	 movss	 xmm1, DWORD PTR $T537849[ebp]
  000b9	f3 0f 10 55 e0	 movss	 xmm2, DWORD PTR $T537849[ebp]
  000be	f3 0f 10 5d e0	 movss	 xmm3, DWORD PTR $T537849[ebp]
  000c3	0f 5a c9	 cvtps2pd xmm1, xmm1
  000c6	f2 0f 59 c1	 mulsd	 xmm0, xmm1
  000ca	f3 0f 10 4d d0	 movss	 xmm1, DWORD PTR _vPos$531211[ebp+4]
  000cf	8d 7d f0	 lea	 edi, DWORD PTR _vCurPos$531210[ebp]
  000d2	a5		 movsd
  000d3	a5		 movsd
  000d4	a5		 movsd
  000d5	66 0f 5a c0	 cvtpd2ps xmm0, xmm0
  000d9	0f 5a c9	 cvtps2pd xmm1, xmm1
  000dc	0f 5a d2	 cvtps2pd xmm2, xmm2
  000df	f2 0f 59 ca	 mulsd	 xmm1, xmm2
  000e3	f3 0f 10 55 d4	 movss	 xmm2, DWORD PTR _vPos$531211[ebp+8]

; 774  : 		vCurPos += vPos;

  000e8	f3 0f 5a c0	 cvtss2sd xmm0, xmm0
  000ec	0f 5a db	 cvtps2pd xmm3, xmm3
  000ef	0f 5a d2	 cvtps2pd xmm2, xmm2
  000f2	f2 0f 59 d3	 mulsd	 xmm2, xmm3
  000f6	f3 0f 10 5d f0	 movss	 xmm3, DWORD PTR _vCurPos$531210[ebp]
  000fb	66 0f 5a c9	 cvtpd2ps xmm1, xmm1
  000ff	0f 5a db	 cvtps2pd xmm3, xmm3
  00102	f2 0f 58 c3	 addsd	 xmm0, xmm3
  00106	66 0f 5a c0	 cvtpd2ps xmm0, xmm0
  0010a	f3 0f 11 45 f0	 movss	 DWORD PTR _vCurPos$531210[ebp], xmm0
  0010f	0f 57 c0	 xorps	 xmm0, xmm0
  00112	f3 0f 5a c1	 cvtss2sd xmm0, xmm1
  00116	f3 0f 10 4d f4	 movss	 xmm1, DWORD PTR _vCurPos$531210[ebp+4]
  0011b	8d b0 4c 01 00
	00		 lea	 esi, DWORD PTR [eax+332]
  00121	8d 7d ac	 lea	 edi, DWORD PTR _vPrePos$531209[ebp]
  00124	a5		 movsd
  00125	0f 5a c9	 cvtps2pd xmm1, xmm1
  00128	f2 0f 58 c1	 addsd	 xmm0, xmm1
  0012c	f3 0f 10 4d f8	 movss	 xmm1, DWORD PTR _vCurPos$531210[ebp+8]
  00131	66 0f 5a c0	 cvtpd2ps xmm0, xmm0
  00135	f3 0f 11 45 f4	 movss	 DWORD PTR _vCurPos$531210[ebp+4], xmm0
  0013a	0f 57 c0	 xorps	 xmm0, xmm0
  0013d	a5		 movsd
  0013e	66 0f 5a d2	 cvtpd2ps xmm2, xmm2
  00142	f3 0f 5a c2	 cvtss2sd xmm0, xmm2
  00146	0f 5a c9	 cvtps2pd xmm1, xmm1

; 775  : 
; 776  : 		if( !m_bCircleNoChangeY )

  00149	8d 45 df	 lea	 eax, DWORD PTR _value$537859[ebp]
  0014c	f2 0f 58 c1	 addsd	 xmm0, xmm1
  00150	66 0f 5a c0	 cvtpd2ps xmm0, xmm0
  00154	8d 8b 24 06 00
	00		 lea	 ecx, DWORD PTR [ebx+1572]
  0015a	50		 push	 eax
  0015b	a5		 movsd
  0015c	f3 0f 11 45 f8	 movss	 DWORD PTR _vCurPos$531210[ebp+8], xmm0
  00161	e8 00 00 00 00	 call	 ?DecryptValueToPool@?$CEncrypt@_N@@QAEXPA_N@Z ; CEncrypt<bool>::DecryptValueToPool
  00166	80 7d df 00	 cmp	 BYTE PTR _value$537859[ebp], 0
  0016a	75 47		 jne	 SHORT $LN8@ProcessCon

; 777  : 		{
; 778  : 			float fMapHeight = pStage->GetMapHeight( vCurPos.x, vCurPos.z, pChar, false );

  0016c	0f 57 c0	 xorps	 xmm0, xmm0
  0016f	6a 00		 push	 0
  00171	51		 push	 ecx
  00172	f3 0f 11 04 24	 movss	 DWORD PTR [esp], xmm0
  00177	f3 0f 10 45 f8	 movss	 xmm0, DWORD PTR _vCurPos$531210[ebp+8]
  0017c	6a 00		 push	 0
  0017e	ff 75 d8	 push	 DWORD PTR _pChar$GSCopy$[ebp]
  00181	51		 push	 ecx
  00182	51		 push	 ecx
  00183	8b 4d c8	 mov	 ecx, DWORD PTR _pStage$GSCopy$[ebp]
  00186	f3 0f 11 44 24
	04		 movss	 DWORD PTR [esp+4], xmm0
  0018c	f3 0f 10 45 f0	 movss	 xmm0, DWORD PTR _vCurPos$531210[ebp]
  00191	f3 0f 11 04 24	 movss	 DWORD PTR [esp], xmm0
  00196	e8 00 00 00 00	 call	 ?GetMapHeight@ioPlayStage@@QAEMMMPBVioGameEntity@@_NM1@Z ; ioPlayStage::GetMapHeight
  0019b	d9 5d e0	 fstp	 DWORD PTR _fMapHeight$531213[ebp]

; 779  : 			if( fMapHeight > 0.0f )

  0019e	d9 ee		 fldz
  001a0	d9 45 e0	 fld	 DWORD PTR _fMapHeight$531213[ebp]
  001a3	df f1		 fcomip	 ST(1)
  001a5	dd d8		 fstp	 ST(0)
  001a7	76 0a		 jbe	 SHORT $LN8@ProcessCon

; 780  : 				vCurPos.y = fMapHeight;

  001a9	f3 0f 10 45 e0	 movss	 xmm0, DWORD PTR _fMapHeight$531213[ebp]
  001ae	f3 0f 11 45 f4	 movss	 DWORD PTR _vCurPos$531210[ebp+4], xmm0
$LN8@ProcessCon:

; 781  : 		}
; 782  : 
; 783  : 		D3DXVECTOR3 vCreatePos = m_vCreatePos;
; 784  : 		D3DXVECTOR3 vCurXZ = vCurPos;
; 785  : 
; 786  : 		vCreatePos.y = 0.0f;
; 787  : 		vCurXZ.y = 0.0f;
; 788  : 
; 789  : 		D3DXVECTOR3 vDiff = vCurXZ - vCreatePos;

  001b3	f3 0f 10 45 f0	 movss	 xmm0, DWORD PTR _vCurPos$531210[ebp]
  001b8	f3 0f 10 55 f8	 movss	 xmm2, DWORD PTR _vCurPos$531210[ebp+8]
  001bd	8d b3 fc 0f 00
	00		 lea	 esi, DWORD PTR [ebx+4092]
  001c3	8d 7d cc	 lea	 edi, DWORD PTR _vCreatePos$531215[ebp]
  001c6	a5		 movsd
  001c7	0f 5a c0	 cvtps2pd xmm0, xmm0
  001ca	a5		 movsd
  001cb	a5		 movsd
  001cc	f3 0f 10 4d cc	 movss	 xmm1, DWORD PTR _vCreatePos$531215[ebp]
  001d1	f3 0f 10 5d d4	 movss	 xmm3, DWORD PTR _vCreatePos$531215[ebp+8]
  001d6	0f 5a c9	 cvtps2pd xmm1, xmm1
  001d9	f2 0f 5c c1	 subsd	 xmm0, xmm1
  001dd	0f 57 c9	 xorps	 xmm1, xmm1
  001e0	66 0f 5a c8	 cvtpd2ps xmm1, xmm0
  001e4	0f 57 c0	 xorps	 xmm0, xmm0
  001e7	f2 0f 5c c0	 subsd	 xmm0, xmm0
  001eb	66 0f 5a c0	 cvtpd2ps xmm0, xmm0
  001ef	f3 0f 11 45 e8	 movss	 DWORD PTR _vDiff$531217[ebp+4], xmm0
  001f4	f3 0f 11 4d e4	 movss	 DWORD PTR _vDiff$531217[ebp], xmm1
  001f9	0f 5a d2	 cvtps2pd xmm2, xmm2
  001fc	f3 0f 5a c0	 cvtss2sd xmm0, xmm0

; 790  : 
; 791  : 		if( D3DXVec3Length( &vDiff ) > m_fMoveRange )

  00200	f2 0f 59 c0	 mulsd	 xmm0, xmm0
  00204	0f 5a c9	 cvtps2pd xmm1, xmm1
  00207	0f 5a db	 cvtps2pd xmm3, xmm3
  0020a	f2 0f 5c d3	 subsd	 xmm2, xmm3
  0020e	66 0f 5a d2	 cvtpd2ps xmm2, xmm2
  00212	f2 0f 59 c9	 mulsd	 xmm1, xmm1
  00216	f2 0f 58 c8	 addsd	 xmm1, xmm0
  0021a	f3 0f 11 55 ec	 movss	 DWORD PTR _vDiff$531217[ebp+8], xmm2
  0021f	0f 57 c0	 xorps	 xmm0, xmm0
  00222	f3 0f 5a d2	 cvtss2sd xmm2, xmm2
  00226	f2 0f 59 d2	 mulsd	 xmm2, xmm2
  0022a	f2 0f 58 ca	 addsd	 xmm1, xmm2
  0022e	66 0f 5a c1	 cvtpd2ps xmm0, xmm1
  00232	f3 0f 10 8b 54
	10 00 00	 movss	 xmm1, DWORD PTR [ebx+4180]
  0023a	0f 5a c0	 cvtps2pd xmm0, xmm0
  0023d	f2 0f 51 c0	 sqrtsd	 xmm0, xmm0
  00241	66 0f 5a c0	 cvtpd2ps xmm0, xmm0
  00245	f3 0f 5a c0	 cvtss2sd xmm0, xmm0
  00249	0f 5a c9	 cvtps2pd xmm1, xmm1
  0024c	66 0f 2f c1	 comisd	 xmm0, xmm1
  00250	0f 86 16 01 00
	00		 jbe	 $LN55@ProcessCon

; 792  : 		{
; 793  : 			D3DXVec3Normalize( &vDiff, &vDiff );

  00256	8d 45 e4	 lea	 eax, DWORD PTR _vDiff$531217[ebp]
  00259	50		 push	 eax
  0025a	50		 push	 eax
  0025b	e8 00 00 00 00	 call	 _D3DXVec3Normalize@8

; 794  : 			vDiff *= m_fMoveRange;

  00260	f3 0f 10 83 54
	10 00 00	 movss	 xmm0, DWORD PTR [ebx+4180]
  00268	f3 0f 10 4d e4	 movss	 xmm1, DWORD PTR _vDiff$531217[ebp]

; 795  : 
; 796  : 			float fCurHeight = vCurPos.y;
; 797  : 			vCurPos = vCreatePos + vDiff;

  0026d	f3 0f 10 65 cc	 movss	 xmm4, DWORD PTR _vCreatePos$531215[ebp]
  00272	0f 5a c9	 cvtps2pd xmm1, xmm1
  00275	0f 5a d0	 cvtps2pd xmm2, xmm0
  00278	f2 0f 59 ca	 mulsd	 xmm1, xmm2
  0027c	f3 0f 10 55 e8	 movss	 xmm2, DWORD PTR _vDiff$531217[ebp+4]
  00281	66 0f 5a c9	 cvtpd2ps xmm1, xmm1
  00285	f3 0f 11 4d e4	 movss	 DWORD PTR _vDiff$531217[ebp], xmm1
  0028a	f3 0f 5a c9	 cvtss2sd xmm1, xmm1
  0028e	0f 5a d8	 cvtps2pd xmm3, xmm0
  00291	0f 5a d2	 cvtps2pd xmm2, xmm2
  00294	f2 0f 59 d3	 mulsd	 xmm2, xmm3
  00298	f3 0f 10 5d ec	 movss	 xmm3, DWORD PTR _vDiff$531217[ebp+8]
  0029d	0f 5a e4	 cvtps2pd xmm4, xmm4
  002a0	f2 0f 58 cc	 addsd	 xmm1, xmm4
  002a4	66 0f 5a c9	 cvtpd2ps xmm1, xmm1
  002a8	f3 0f 11 4d b8	 movss	 DWORD PTR $T531221[ebp], xmm1
  002ad	0f 57 c9	 xorps	 xmm1, xmm1
  002b0	66 0f 5a d2	 cvtpd2ps xmm2, xmm2
  002b4	f3 0f 5a ca	 cvtss2sd xmm1, xmm2
  002b8	f2 0f 58 0d 00
	00 00 00	 addsd	 xmm1, QWORD PTR __real@0000000000000000
  002c0	66 0f 5a c9	 cvtpd2ps xmm1, xmm1
  002c4	f3 0f 11 4d bc	 movss	 DWORD PTR $T531221[ebp+4], xmm1
  002c9	0f 5a db	 cvtps2pd xmm3, xmm3
  002cc	0f 5a c0	 cvtps2pd xmm0, xmm0
  002cf	f3 0f 11 55 e8	 movss	 DWORD PTR _vDiff$531217[ebp+4], xmm2
  002d4	f3 0f 10 55 d4	 movss	 xmm2, DWORD PTR _vCreatePos$531215[ebp+8]
  002d9	f2 0f 59 d8	 mulsd	 xmm3, xmm0
  002dd	f3 0f 10 45 f4	 movss	 xmm0, DWORD PTR _vCurPos$531210[ebp+4]
  002e2	0f 57 c9	 xorps	 xmm1, xmm1
  002e5	66 0f 5a db	 cvtpd2ps xmm3, xmm3
  002e9	f3 0f 5a cb	 cvtss2sd xmm1, xmm3
  002ed	0f 5a d2	 cvtps2pd xmm2, xmm2
  002f0	f2 0f 58 ca	 addsd	 xmm1, xmm2
  002f4	66 0f 5a c9	 cvtpd2ps xmm1, xmm1
  002f8	f3 0f 11 4d c0	 movss	 DWORD PTR $T531221[ebp+8], xmm1
  002fd	8d 75 b8	 lea	 esi, DWORD PTR $T531221[ebp]
  00300	8d 7d f0	 lea	 edi, DWORD PTR _vCurPos$531210[ebp]
  00303	a5		 movsd
  00304	a5		 movsd

; 798  : 			vCurPos.y = fCurHeight;
; 799  : 
; 800  : 			if( !m_bCircleNoChangeY )

  00305	8d 45 df	 lea	 eax, DWORD PTR _value$537899[ebp]
  00308	a5		 movsd
  00309	50		 push	 eax
  0030a	8d 8b 24 06 00
	00		 lea	 ecx, DWORD PTR [ebx+1572]
  00310	f3 0f 11 5d ec	 movss	 DWORD PTR _vDiff$531217[ebp+8], xmm3
  00315	f3 0f 11 45 f4	 movss	 DWORD PTR _vCurPos$531210[ebp+4], xmm0
  0031a	e8 00 00 00 00	 call	 ?DecryptValueToPool@?$CEncrypt@_N@@QAEXPA_N@Z ; CEncrypt<bool>::DecryptValueToPool
  0031f	80 7d df 00	 cmp	 BYTE PTR _value$537899[ebp], 0
  00323	75 47		 jne	 SHORT $LN55@ProcessCon

; 801  : 			{
; 802  : 				float fMapHeight = pStage->GetMapHeight( vCurPos.x, vCurPos.z, pChar, false );

  00325	0f 57 c0	 xorps	 xmm0, xmm0
  00328	6a 00		 push	 0
  0032a	51		 push	 ecx
  0032b	f3 0f 11 04 24	 movss	 DWORD PTR [esp], xmm0
  00330	f3 0f 10 45 f8	 movss	 xmm0, DWORD PTR _vCurPos$531210[ebp+8]
  00335	6a 00		 push	 0
  00337	ff 75 d8	 push	 DWORD PTR _pChar$GSCopy$[ebp]
  0033a	51		 push	 ecx
  0033b	51		 push	 ecx
  0033c	8b 4d c8	 mov	 ecx, DWORD PTR _pStage$GSCopy$[ebp]
  0033f	f3 0f 11 44 24
	04		 movss	 DWORD PTR [esp+4], xmm0
  00345	f3 0f 10 45 f0	 movss	 xmm0, DWORD PTR _vCurPos$531210[ebp]
  0034a	f3 0f 11 04 24	 movss	 DWORD PTR [esp], xmm0
  0034f	e8 00 00 00 00	 call	 ?GetMapHeight@ioPlayStage@@QAEMMMPBVioGameEntity@@_NM1@Z ; ioPlayStage::GetMapHeight
  00354	d9 5d e0	 fstp	 DWORD PTR _fMapHeight$531223[ebp]

; 803  : 				if( fMapHeight > 0.0f )

  00357	d9 ee		 fldz
  00359	d9 45 e0	 fld	 DWORD PTR _fMapHeight$531223[ebp]
  0035c	df f1		 fcomip	 ST(1)
  0035e	dd d8		 fstp	 ST(0)
  00360	76 0a		 jbe	 SHORT $LN55@ProcessCon

; 804  : 					vCurPos.y = fMapHeight;

  00362	f3 0f 10 45 e0	 movss	 xmm0, DWORD PTR _fMapHeight$531223[ebp]
  00367	f3 0f 11 45 f4	 movss	 DWORD PTR _vCurPos$531210[ebp+4], xmm0
$LN55@ProcessCon:

; 805  : 			}
; 806  : 		}
; 807  : 
; 808  : 		float fGapHeight = fabs( vPrePos.y - vCurPos.y );

  0036c	d9 45 b0	 fld	 DWORD PTR _vPrePos$531209[ebp+4]
  0036f	d8 65 f4	 fsub	 DWORD PTR _vCurPos$531210[ebp+4]
  00372	d9 5d e0	 fstp	 DWORD PTR $T537908[ebp]

; 809  : 		if( fGapHeight > pChar->GetMidHeightByRate() )

  00375	b8 05 00 00 00	 mov	 eax, 5
  0037a	8b c8		 mov	 ecx, eax
  0037c	b8 0a 00 00 00	 mov	 eax, 10			; 0000000aH
  00381	d9 45 e0	 fld	 DWORD PTR $T537908[ebp]
  00384	d9 e1		 fabs
  00386	d9 5d e0	 fstp	 DWORD PTR tv723[ebp]
  00389	d9 45 e0	 fld	 DWORD PTR tv723[ebp]
  0038c	89 4d e0	 mov	 DWORD PTR tv717[ebp], ecx
  0038f	d9 5d d4	 fstp	 DWORD PTR tv648[ebp]
  00392	db 45 e0	 fild	 DWORD PTR tv717[ebp]
  00395	85 c9		 test	 ecx, ecx
  00397	79 06		 jns	 SHORT $LN56@ProcessCon
  00399	d8 05 00 00 00
	00		 fadd	 DWORD PTR __real@4f800000
$LN56@ProcessCon:
  0039f	89 45 e0	 mov	 DWORD PTR tv712[ebp], eax
  003a2	db 45 e0	 fild	 DWORD PTR tv712[ebp]
  003a5	85 c0		 test	 eax, eax
  003a7	79 06		 jns	 SHORT $LN57@ProcessCon
  003a9	d8 05 00 00 00
	00		 fadd	 DWORD PTR __real@4f800000
$LN57@ProcessCon:
  003af	de f9		 fdivp	 ST(1), ST(0)
  003b1	51		 push	 ecx
  003b2	8b 4d d8	 mov	 ecx, DWORD PTR _pChar$GSCopy$[ebp]
  003b5	d9 5d e0	 fstp	 DWORD PTR tv707[ebp]
  003b8	d9 45 e0	 fld	 DWORD PTR tv707[ebp]
  003bb	d9 1c 24	 fstp	 DWORD PTR [esp]
  003be	e8 00 00 00 00	 call	 ?GetMidHeightByRate@ioGameEntity@@QBEMM@Z ; ioGameEntity::GetMidHeightByRate
  003c3	d9 45 d4	 fld	 DWORD PTR tv648[ebp]
  003c6	df f1		 fcomip	 ST(1)
  003c8	dd d8		 fstp	 ST(0)
  003ca	76 09		 jbe	 SHORT $LN4@ProcessCon

; 810  : 			vCurPos = vPrePos;

  003cc	8d 75 ac	 lea	 esi, DWORD PTR _vPrePos$531209[ebp]
  003cf	8d 7d f0	 lea	 edi, DWORD PTR _vCurPos$531210[ebp]
  003d2	a5		 movsd
  003d3	a5		 movsd
  003d4	a5		 movsd
$LN4@ProcessCon:

; 811  : 
; 812  : 		if( m_bSetUpKey )

  003d5	80 bb 68 10 00
	00 00		 cmp	 BYTE PTR [ebx+4200], 0
  003dc	5f		 pop	 edi
  003dd	5e		 pop	 esi
  003de	74 2b		 je	 SHORT $LN3@ProcessCon

; 813  : 		{
; 814  : 			m_fHeight += m_fMoveSpeed * g_FrameTimer.GetSecPerFrame();

  003e0	ff 15 00 00 00
	00		 call	 DWORD PTR __imp_?GetSingleton@ioFrameTimer@@SAAAV1@XZ
  003e6	8b c8		 mov	 ecx, eax
  003e8	ff 15 00 00 00
	00		 call	 DWORD PTR __imp_?GetSecPerFrame@ioFrameTimer@@QBEMXZ
  003ee	d8 8b 50 10 00
	00		 fmul	 DWORD PTR [ebx+4176]
  003f4	d8 83 58 10 00
	00		 fadd	 DWORD PTR [ebx+4184]
  003fa	d9 5d e0	 fstp	 DWORD PTR tv831[ebp]
  003fd	d9 45 e0	 fld	 DWORD PTR tv831[ebp]
  00400	d9 9b 58 10 00
	00		 fstp	 DWORD PTR [ebx+4184]

; 815  : 			vCurPos.y = m_fHeight;

  00406	d9 45 e0	 fld	 DWORD PTR tv831[ebp]
  00409	eb 38		 jmp	 SHORT $LN58@ProcessCon
$LN3@ProcessCon:

; 816  : 		}
; 817  : 		else if( m_bSetDownKey )

  0040b	80 bb 69 10 00
	00 00		 cmp	 BYTE PTR [ebx+4201], 0
  00412	74 32		 je	 SHORT $LN1@ProcessCon

; 818  : 		{
; 819  : 			m_fHeight -= m_fMoveSpeed * g_FrameTimer.GetSecPerFrame();

  00414	d9 83 58 10 00
	00		 fld	 DWORD PTR [ebx+4184]
  0041a	dd 5d d0	 fstp	 QWORD PTR tv318[ebp]
  0041d	ff 15 00 00 00
	00		 call	 DWORD PTR __imp_?GetSingleton@ioFrameTimer@@SAAAV1@XZ
  00423	8b c8		 mov	 ecx, eax
  00425	ff 15 00 00 00
	00		 call	 DWORD PTR __imp_?GetSecPerFrame@ioFrameTimer@@QBEMXZ
  0042b	d8 8b 50 10 00
	00		 fmul	 DWORD PTR [ebx+4176]
  00431	dc 6d d0	 fsubr	 QWORD PTR tv318[ebp]
  00434	d9 5d e0	 fstp	 DWORD PTR tv839[ebp]
  00437	d9 45 e0	 fld	 DWORD PTR tv839[ebp]
  0043a	d9 9b 58 10 00
	00		 fstp	 DWORD PTR [ebx+4184]

; 820  : 			vCurPos.y = m_fHeight;

  00440	d9 45 e0	 fld	 DWORD PTR tv839[ebp]
$LN58@ProcessCon:
  00443	d9 5d f4	 fstp	 DWORD PTR _vCurPos$531210[ebp+4]
$LN1@ProcessCon:

; 821  : 		}
; 822  : 
; 823  : 		pAreaWeapon->SetAreaPosition( vCurPos, pStage );

  00446	ff 75 c8	 push	 DWORD PTR _pStage$GSCopy$[ebp]
  00449	8b 4d c4	 mov	 ecx, DWORD PTR _pAreaWeapon$[ebp]
  0044c	8d 45 f0	 lea	 eax, DWORD PTR _vCurPos$531210[ebp]
  0044f	50		 push	 eax
  00450	e8 00 00 00 00	 call	 ?SetAreaPosition@ioAreaWeapon@@QAEXABUD3DXVECTOR3@@PAVioPlayStage@@@Z ; ioAreaWeapon::SetAreaPosition

; 824  : 
; 825  : 		//
; 826  : 		pChar->SetTargetRotToTargetPos( vCurPos, true, false );

  00455	8b 4d d8	 mov	 ecx, DWORD PTR _pChar$GSCopy$[ebp]
  00458	6a 00		 push	 0
  0045a	6a 01		 push	 1
  0045c	8d 45 f0	 lea	 eax, DWORD PTR _vCurPos$531210[ebp]
  0045f	50		 push	 eax
  00460	e8 00 00 00 00	 call	 ?SetTargetRotToTargetPos@ioBaseChar@@QAEXABUD3DXVECTOR3@@_N1@Z ; ioBaseChar::SetTargetRotToTargetPos
$LN10@ProcessCon:

; 827  : 	}
; 828  : }

  00465	8b 4d fc	 mov	 ecx, DWORD PTR __$ArrayPad$[ebp]
  00468	33 cd		 xor	 ecx, ebp
  0046a	5b		 pop	 ebx
  0046b	e8 00 00 00 00	 call	 @__security_check_cookie@4
  00470	c9		 leave
  00471	c2 08 00	 ret	 8
?ProcessControl@ioAreaWeaponControl2Skill@@IAEXPAVioBaseChar@@PAVioPlayStage@@@Z ENDP ; ioAreaWeaponControl2Skill::ProcessControl
_TEXT	ENDS
PUBLIC	??0?$CEncrypt@K@@QAE@ABV0@@Z			; CEncrypt<unsigned long>::CEncrypt<unsigned long>
;	COMDAT xdata$x
; File d:\lost saga for developer\youtube\tutorial\source\src\lsclient\encryptvalue.h
xdata$x	SEGMENT
__unwindtable$??0?$CEncrypt@K@@QAE@ABV0@@Z DD 0ffffffffH
	DD	FLAT:__unwindfunclet$??0?$CEncrypt@K@@QAE@ABV0@@Z$0
__ehfuncinfo$??0?$CEncrypt@K@@QAE@ABV0@@Z DD 019930522H
	DD	01H
	DD	FLAT:__unwindtable$??0?$CEncrypt@K@@QAE@ABV0@@Z
	DD	2 DUP(00H)
	DD	2 DUP(00H)
	DD	00H
	DD	01H
; Function compile flags: /Ogsp
xdata$x	ENDS
;	COMDAT ??0?$CEncrypt@K@@QAE@ABV0@@Z
_TEXT	SEGMENT
_this$ = -16						; size = 4
__$EHRec$ = -12						; size = 12
_value$537937 = 8					; size = 4
_value$537932 = 8					; size = 4
_inValue$ = 8						; size = 4
??0?$CEncrypt@K@@QAE@ABV0@@Z PROC			; CEncrypt<unsigned long>::CEncrypt<unsigned long>, COMDAT
; _this$ = ecx

; 120  : 	CEncrypt( const CEncrypt<type> &inValue )   // 선언과 동시에 값을 대입하기 위해서

  00000	6a 04		 push	 4
  00002	b8 00 00 00 00	 mov	 eax, __ehhandler$??0?$CEncrypt@K@@QAE@ABV0@@Z
  00007	e8 00 00 00 00	 call	 __EH_prolog3
  0000c	8b f1		 mov	 esi, ecx
  0000e	89 75 f0	 mov	 DWORD PTR _this$[ebp], esi
  00011	8d 4e 0c	 lea	 ecx, DWORD PTR [esi+12]
  00014	c7 06 00 00 00
	00		 mov	 DWORD PTR [esi], OFFSET ??_7?$CEncrypt@K@@6B@
  0001a	e8 00 00 00 00	 call	 ??0ccddaabb@@QAE@XZ	; ccddaabb::ccddaabb
  0001f	83 65 fc 00	 and	 DWORD PTR __$EHRec$[ebp+8], 0

; 121  : 	{
; 122  : 		Init();

  00023	8b ce		 mov	 ecx, esi
  00025	e8 00 00 00 00	 call	 ?Init@?$CEncrypt@K@@AAEXXZ ; CEncrypt<unsigned long>::Init

; 123  : 		*this = inValue;

  0002a	8b 4d 08	 mov	 ecx, DWORD PTR _inValue$[ebp]
  0002d	8d 45 08	 lea	 eax, DWORD PTR _value$537932[ebp]
  00030	50		 push	 eax
  00031	e8 00 00 00 00	 call	 ?DecryptValueToPool@?$CEncrypt@K@@QAEXPAK@Z ; CEncrypt<unsigned long>::DecryptValueToPool
  00036	8b 45 08	 mov	 eax, DWORD PTR _value$537932[ebp]
  00039	89 45 08	 mov	 DWORD PTR _value$537937[ebp], eax
  0003c	8d 45 08	 lea	 eax, DWORD PTR _value$537937[ebp]
  0003f	50		 push	 eax
  00040	8b ce		 mov	 ecx, esi
  00042	e8 00 00 00 00	 call	 ?EncryptValueToPool@?$CEncrypt@K@@AAEXPBD@Z ; CEncrypt<unsigned long>::EncryptValueToPool

; 124  : 	}

  00047	8b c6		 mov	 eax, esi
  00049	e8 00 00 00 00	 call	 __EH_epilog3
  0004e	c2 04 00	 ret	 4
_TEXT	ENDS
;	COMDAT text$x
text$x	SEGMENT
__unwindfunclet$??0?$CEncrypt@K@@QAE@ABV0@@Z$0:
  00000	8b 4d f0	 mov	 ecx, DWORD PTR _this$[ebp]
  00003	83 c1 0c	 add	 ecx, 12			; 0000000cH
  00006	e9 00 00 00 00	 jmp	 ??1ccddaabb@@UAE@XZ	; ccddaabb::~ccddaabb
__ehhandler$??0?$CEncrypt@K@@QAE@ABV0@@Z:
  0000b	8b 54 24 08	 mov	 edx, DWORD PTR [esp+8]
  0000f	8d 42 0c	 lea	 eax, DWORD PTR [edx+12]
  00012	8b 4a ec	 mov	 ecx, DWORD PTR [edx-20]
  00015	33 c8		 xor	 ecx, eax
  00017	e8 00 00 00 00	 call	 @__security_check_cookie@4
  0001c	b8 00 00 00 00	 mov	 eax, OFFSET __ehfuncinfo$??0?$CEncrypt@K@@QAE@ABV0@@Z
  00021	e9 00 00 00 00	 jmp	 ___CxxFrameHandler3
text$x	ENDS
??0?$CEncrypt@K@@QAE@ABV0@@Z ENDP			; CEncrypt<unsigned long>::CEncrypt<unsigned long>
PUBLIC	??0?$CEncrypt@_N@@QAE@ABV0@@Z			; CEncrypt<bool>::CEncrypt<bool>
;	COMDAT xdata$x
xdata$x	SEGMENT
__unwindtable$??0?$CEncrypt@_N@@QAE@ABV0@@Z DD 0ffffffffH
	DD	FLAT:__unwindfunclet$??0?$CEncrypt@_N@@QAE@ABV0@@Z$0
__ehfuncinfo$??0?$CEncrypt@_N@@QAE@ABV0@@Z DD 019930522H
	DD	01H
	DD	FLAT:__unwindtable$??0?$CEncrypt@_N@@QAE@ABV0@@Z
	DD	2 DUP(00H)
	DD	2 DUP(00H)
	DD	00H
	DD	01H
; Function compile flags: /Ogsp
xdata$x	ENDS
;	COMDAT ??0?$CEncrypt@_N@@QAE@ABV0@@Z
_TEXT	SEGMENT
_this$ = -16						; size = 4
__$EHRec$ = -12						; size = 12
_inValue$ = 8						; size = 4
_value$537956 = 11					; size = 1
_value$537951 = 11					; size = 1
??0?$CEncrypt@_N@@QAE@ABV0@@Z PROC			; CEncrypt<bool>::CEncrypt<bool>, COMDAT
; _this$ = ecx

; 120  : 	CEncrypt( const CEncrypt<type> &inValue )   // 선언과 동시에 값을 대입하기 위해서

  00000	6a 04		 push	 4
  00002	b8 00 00 00 00	 mov	 eax, __ehhandler$??0?$CEncrypt@_N@@QAE@ABV0@@Z
  00007	e8 00 00 00 00	 call	 __EH_prolog3
  0000c	8b f1		 mov	 esi, ecx
  0000e	89 75 f0	 mov	 DWORD PTR _this$[ebp], esi
  00011	8d 4e 0c	 lea	 ecx, DWORD PTR [esi+12]
  00014	c7 06 00 00 00
	00		 mov	 DWORD PTR [esi], OFFSET ??_7?$CEncrypt@_N@@6B@
  0001a	e8 00 00 00 00	 call	 ??0ccddaabb@@QAE@XZ	; ccddaabb::ccddaabb
  0001f	83 65 fc 00	 and	 DWORD PTR __$EHRec$[ebp+8], 0

; 121  : 	{
; 122  : 		Init();

  00023	8b ce		 mov	 ecx, esi
  00025	e8 00 00 00 00	 call	 ?Init@?$CEncrypt@_N@@AAEXXZ ; CEncrypt<bool>::Init

; 123  : 		*this = inValue;

  0002a	8b 4d 08	 mov	 ecx, DWORD PTR _inValue$[ebp]
  0002d	8d 45 0b	 lea	 eax, DWORD PTR _value$537951[ebp]
  00030	50		 push	 eax
  00031	e8 00 00 00 00	 call	 ?DecryptValueToPool@?$CEncrypt@_N@@QAEXPA_N@Z ; CEncrypt<bool>::DecryptValueToPool
  00036	8a 45 0b	 mov	 al, BYTE PTR _value$537951[ebp]
  00039	88 45 0b	 mov	 BYTE PTR _value$537956[ebp], al
  0003c	8d 45 0b	 lea	 eax, DWORD PTR _value$537956[ebp]
  0003f	50		 push	 eax
  00040	8b ce		 mov	 ecx, esi
  00042	e8 00 00 00 00	 call	 ?EncryptValueToPool@?$CEncrypt@_N@@AAEXPBD@Z ; CEncrypt<bool>::EncryptValueToPool

; 124  : 	}

  00047	8b c6		 mov	 eax, esi
  00049	e8 00 00 00 00	 call	 __EH_epilog3
  0004e	c2 04 00	 ret	 4
_TEXT	ENDS
;	COMDAT text$x
text$x	SEGMENT
__unwindfunclet$??0?$CEncrypt@_N@@QAE@ABV0@@Z$0:
  00000	8b 4d f0	 mov	 ecx, DWORD PTR _this$[ebp]
  00003	83 c1 0c	 add	 ecx, 12			; 0000000cH
  00006	e9 00 00 00 00	 jmp	 ??1ccddaabb@@UAE@XZ	; ccddaabb::~ccddaabb
__ehhandler$??0?$CEncrypt@_N@@QAE@ABV0@@Z:
  0000b	8b 54 24 08	 mov	 edx, DWORD PTR [esp+8]
  0000f	8d 42 0c	 lea	 eax, DWORD PTR [edx+12]
  00012	8b 4a ec	 mov	 ecx, DWORD PTR [edx-20]
  00015	33 c8		 xor	 ecx, eax
  00017	e8 00 00 00 00	 call	 @__security_check_cookie@4
  0001c	b8 00 00 00 00	 mov	 eax, OFFSET __ehfuncinfo$??0?$CEncrypt@_N@@QAE@ABV0@@Z
  00021	e9 00 00 00 00	 jmp	 ___CxxFrameHandler3
text$x	ENDS
??0?$CEncrypt@_N@@QAE@ABV0@@Z ENDP			; CEncrypt<bool>::CEncrypt<bool>
PUBLIC	?GetTeam@ioPlayEntity@@QBE?AW4TeamType@@XZ	; ioPlayEntity::GetTeam
; Function compile flags: /Ogsp
; File d:\lost saga for developer\youtube\tutorial\source\src\lsclient\ioplayentity.h
;	COMDAT ?GetTeam@ioPlayEntity@@QBE?AW4TeamType@@XZ
_TEXT	SEGMENT
_value$537969 = -4					; size = 4
?GetTeam@ioPlayEntity@@QBE?AW4TeamType@@XZ PROC		; ioPlayEntity::GetTeam, COMDAT
; _this$ = ecx

; 107  : 	inline TeamType GetTeam() const { return m_TeamType; }

  00000	55		 push	 ebp
  00001	8b ec		 mov	 ebp, esp
  00003	51		 push	 ecx
  00004	8d 45 fc	 lea	 eax, DWORD PTR _value$537969[ebp]
  00007	50		 push	 eax
  00008	81 c1 90 00 00
	00		 add	 ecx, 144		; 00000090H
  0000e	e8 00 00 00 00	 call	 ?DecryptValueToPool@?$CEncrypt@W4TeamType@@@@QAEXPAW4TeamType@@@Z ; CEncrypt<enum TeamType>::DecryptValueToPool
  00013	8b 45 fc	 mov	 eax, DWORD PTR _value$537969[ebp]
  00016	c9		 leave
  00017	c3		 ret	 0
?GetTeam@ioPlayEntity@@QBE?AW4TeamType@@XZ ENDP		; ioPlayEntity::GetTeam
; Function compile flags: /Ogsp
; File d:\lost saga for developer\youtube\tutorial\source\src\lsclient\ioskill.h
_TEXT	ENDS
;	COMDAT ?IsCanJumpingSkill@ioSkill@@UBE_NXZ
_TEXT	SEGMENT
_value$537976 = -1					; size = 1
?IsCanJumpingSkill@ioSkill@@UBE_NXZ PROC		; ioSkill::IsCanJumpingSkill, COMDAT
; _this$ = ecx

; 431  : 	virtual bool IsCanJumpingSkill() const { return m_bEnableJumpingSkill; }

  00000	55		 push	 ebp
  00001	8b ec		 mov	 ebp, esp
  00003	51		 push	 ecx
  00004	8d 45 ff	 lea	 eax, DWORD PTR _value$537976[ebp]
  00007	50		 push	 eax
  00008	81 c1 9c 03 00
	00		 add	 ecx, 924		; 0000039cH
  0000e	e8 00 00 00 00	 call	 ?DecryptValueToPool@?$CEncrypt@_N@@QAEXPA_N@Z ; CEncrypt<bool>::DecryptValueToPool
  00013	8a 45 ff	 mov	 al, BYTE PTR _value$537976[ebp]
  00016	c9		 leave
  00017	c3		 ret	 0
?IsCanJumpingSkill@ioSkill@@UBE_NXZ ENDP		; ioSkill::IsCanJumpingSkill
; Function compile flags: /Ogsp
_TEXT	ENDS
;	COMDAT ?IsCanJumpingSkillOnBlowWound@ioSkill@@UBE_NXZ
_TEXT	SEGMENT
_value$537983 = -1					; size = 1
?IsCanJumpingSkillOnBlowWound@ioSkill@@UBE_NXZ PROC	; ioSkill::IsCanJumpingSkillOnBlowWound, COMDAT
; _this$ = ecx

; 432  : 	virtual bool IsCanJumpingSkillOnBlowWound() const { return m_bEnableJumpingSkillOnBlowWound; }

  00000	55		 push	 ebp
  00001	8b ec		 mov	 ebp, esp
  00003	51		 push	 ecx
  00004	8d 45 ff	 lea	 eax, DWORD PTR _value$537983[ebp]
  00007	50		 push	 eax
  00008	81 c1 cc 03 00
	00		 add	 ecx, 972		; 000003ccH
  0000e	e8 00 00 00 00	 call	 ?DecryptValueToPool@?$CEncrypt@_N@@QAEXPA_N@Z ; CEncrypt<bool>::DecryptValueToPool
  00013	8a 45 ff	 mov	 al, BYTE PTR _value$537983[ebp]
  00016	c9		 leave
  00017	c3		 ret	 0
?IsCanJumpingSkillOnBlowWound@ioSkill@@UBE_NXZ ENDP	; ioSkill::IsCanJumpingSkillOnBlowWound
; Function compile flags: /Ogsp
_TEXT	ENDS
;	COMDAT ?IsCanDownSkill@ioSkill@@UBE_NXZ
_TEXT	SEGMENT
_value$537990 = -1					; size = 1
?IsCanDownSkill@ioSkill@@UBE_NXZ PROC			; ioSkill::IsCanDownSkill, COMDAT
; _this$ = ecx

; 437  : 	virtual bool IsCanDownSkill() const { return m_bEnableDownSkill; }

  00000	55		 push	 ebp
  00001	8b ec		 mov	 ebp, esp
  00003	51		 push	 ecx
  00004	8d 45 ff	 lea	 eax, DWORD PTR _value$537990[ebp]
  00007	50		 push	 eax
  00008	81 c1 5c 04 00
	00		 add	 ecx, 1116		; 0000045cH
  0000e	e8 00 00 00 00	 call	 ?DecryptValueToPool@?$CEncrypt@_N@@QAEXPA_N@Z ; CEncrypt<bool>::DecryptValueToPool
  00013	8a 45 ff	 mov	 al, BYTE PTR _value$537990[ebp]
  00016	c9		 leave
  00017	c3		 ret	 0
?IsCanDownSkill@ioSkill@@UBE_NXZ ENDP			; ioSkill::IsCanDownSkill
; Function compile flags: /Ogsp
_TEXT	ENDS
;	COMDAT ?IsCanBlowWoundSkill@ioSkill@@UBE_NXZ
_TEXT	SEGMENT
_value$537997 = -1					; size = 1
?IsCanBlowWoundSkill@ioSkill@@UBE_NXZ PROC		; ioSkill::IsCanBlowWoundSkill, COMDAT
; _this$ = ecx

; 440  : 	virtual bool IsCanBlowWoundSkill() const { return m_bEnableBlowWoundSkill; }

  00000	55		 push	 ebp
  00001	8b ec		 mov	 ebp, esp
  00003	51		 push	 ecx
  00004	8d 45 ff	 lea	 eax, DWORD PTR _value$537997[ebp]
  00007	50		 push	 eax
  00008	81 c1 8c 04 00
	00		 add	 ecx, 1164		; 0000048cH
  0000e	e8 00 00 00 00	 call	 ?DecryptValueToPool@?$CEncrypt@_N@@QAEXPA_N@Z ; CEncrypt<bool>::DecryptValueToPool
  00013	8a 45 ff	 mov	 al, BYTE PTR _value$537997[ebp]
  00016	c9		 leave
  00017	c3		 ret	 0
?IsCanBlowWoundSkill@ioSkill@@UBE_NXZ ENDP		; ioSkill::IsCanBlowWoundSkill
; Function compile flags: /Ogsp
_TEXT	ENDS
;	COMDAT ?IsCanWoundSkill@ioSkill@@UBE_NXZ
_TEXT	SEGMENT
_value$538004 = -1					; size = 1
?IsCanWoundSkill@ioSkill@@UBE_NXZ PROC			; ioSkill::IsCanWoundSkill, COMDAT
; _this$ = ecx

; 446  : 	virtual bool IsCanWoundSkill() const { return m_bEnableWoundSkill; }

  00000	55		 push	 ebp
  00001	8b ec		 mov	 ebp, esp
  00003	51		 push	 ecx
  00004	8d 45 ff	 lea	 eax, DWORD PTR _value$538004[ebp]
  00007	50		 push	 eax
  00008	81 c1 54 05 00
	00		 add	 ecx, 1364		; 00000554H
  0000e	e8 00 00 00 00	 call	 ?DecryptValueToPool@?$CEncrypt@_N@@QAEXPA_N@Z ; CEncrypt<bool>::DecryptValueToPool
  00013	8a 45 ff	 mov	 al, BYTE PTR _value$538004[ebp]
  00016	c9		 leave
  00017	c3		 ret	 0
?IsCanWoundSkill@ioSkill@@UBE_NXZ ENDP			; ioSkill::IsCanWoundSkill
_TEXT	ENDS
PUBLIC	??0?$CEncrypt@M@@QAE@ABM@Z			; CEncrypt<float>::CEncrypt<float>
;	COMDAT xdata$x
; File d:\lost saga for developer\youtube\tutorial\source\src\lsclient\encryptvalue.h
xdata$x	SEGMENT
__unwindtable$??0?$CEncrypt@M@@QAE@ABM@Z DD 0ffffffffH
	DD	FLAT:__unwindfunclet$??0?$CEncrypt@M@@QAE@ABM@Z$0
__ehfuncinfo$??0?$CEncrypt@M@@QAE@ABM@Z DD 019930522H
	DD	01H
	DD	FLAT:__unwindtable$??0?$CEncrypt@M@@QAE@ABM@Z
	DD	2 DUP(00H)
	DD	2 DUP(00H)
	DD	00H
	DD	01H
; Function compile flags: /Ogsp
xdata$x	ENDS
;	COMDAT ??0?$CEncrypt@M@@QAE@ABM@Z
_TEXT	SEGMENT
_this$ = -16						; size = 4
__$EHRec$ = -12						; size = 12
_value$538012 = 8					; size = 4
_inValue$ = 8						; size = 4
??0?$CEncrypt@M@@QAE@ABM@Z PROC				; CEncrypt<float>::CEncrypt<float>, COMDAT
; _this$ = ecx

; 114  : 	CEncrypt( const type &inValue )        // 선언과 동시에 값을 대입하기 위해서

  00000	6a 04		 push	 4
  00002	b8 00 00 00 00	 mov	 eax, __ehhandler$??0?$CEncrypt@M@@QAE@ABM@Z
  00007	e8 00 00 00 00	 call	 __EH_prolog3
  0000c	8b f1		 mov	 esi, ecx
  0000e	89 75 f0	 mov	 DWORD PTR _this$[ebp], esi
  00011	8d 4e 0c	 lea	 ecx, DWORD PTR [esi+12]
  00014	c7 06 00 00 00
	00		 mov	 DWORD PTR [esi], OFFSET ??_7?$CEncrypt@M@@6B@
  0001a	e8 00 00 00 00	 call	 ??0ccddaabb@@QAE@XZ	; ccddaabb::ccddaabb
  0001f	83 65 fc 00	 and	 DWORD PTR __$EHRec$[ebp+8], 0

; 115  : 	{
; 116  : 		Init();

  00023	8b ce		 mov	 ecx, esi
  00025	e8 00 00 00 00	 call	 ?Init@?$CEncrypt@M@@AAEXXZ ; CEncrypt<float>::Init

; 117  : 		*this = inValue;

  0002a	8b 45 08	 mov	 eax, DWORD PTR _inValue$[ebp]
  0002d	f3 0f 10 00	 movss	 xmm0, DWORD PTR [eax]
  00031	8d 45 08	 lea	 eax, DWORD PTR _value$538012[ebp]
  00034	50		 push	 eax
  00035	8b ce		 mov	 ecx, esi
  00037	f3 0f 11 45 08	 movss	 DWORD PTR _value$538012[ebp], xmm0
  0003c	e8 00 00 00 00	 call	 ?EncryptValueToPool@?$CEncrypt@M@@AAEXPBD@Z ; CEncrypt<float>::EncryptValueToPool

; 118  : 	}

  00041	8b c6		 mov	 eax, esi
  00043	e8 00 00 00 00	 call	 __EH_epilog3
  00048	c2 04 00	 ret	 4
_TEXT	ENDS
;	COMDAT text$x
text$x	SEGMENT
__unwindfunclet$??0?$CEncrypt@M@@QAE@ABM@Z$0:
  00000	8b 4d f0	 mov	 ecx, DWORD PTR _this$[ebp]
  00003	83 c1 0c	 add	 ecx, 12			; 0000000cH
  00006	e9 00 00 00 00	 jmp	 ??1ccddaabb@@UAE@XZ	; ccddaabb::~ccddaabb
__ehhandler$??0?$CEncrypt@M@@QAE@ABM@Z:
  0000b	8b 54 24 08	 mov	 edx, DWORD PTR [esp+8]
  0000f	8d 42 0c	 lea	 eax, DWORD PTR [edx+12]
  00012	8b 4a ec	 mov	 ecx, DWORD PTR [edx-20]
  00015	33 c8		 xor	 ecx, eax
  00017	e8 00 00 00 00	 call	 @__security_check_cookie@4
  0001c	b8 00 00 00 00	 mov	 eax, OFFSET __ehfuncinfo$??0?$CEncrypt@M@@QAE@ABM@Z
  00021	e9 00 00 00 00	 jmp	 ___CxxFrameHandler3
text$x	ENDS
??0?$CEncrypt@M@@QAE@ABM@Z ENDP				; CEncrypt<float>::CEncrypt<float>
PUBLIC	??0?$CEncrypt@M@@QAE@ABV0@@Z			; CEncrypt<float>::CEncrypt<float>
;	COMDAT xdata$x
xdata$x	SEGMENT
__unwindtable$??0?$CEncrypt@M@@QAE@ABV0@@Z DD 0ffffffffH
	DD	FLAT:__unwindfunclet$??0?$CEncrypt@M@@QAE@ABV0@@Z$0
__ehfuncinfo$??0?$CEncrypt@M@@QAE@ABV0@@Z DD 019930522H
	DD	01H
	DD	FLAT:__unwindtable$??0?$CEncrypt@M@@QAE@ABV0@@Z
	DD	2 DUP(00H)
	DD	2 DUP(00H)
	DD	00H
	DD	01H
; Function compile flags: /Ogsp
xdata$x	ENDS
;	COMDAT ??0?$CEncrypt@M@@QAE@ABV0@@Z
_TEXT	SEGMENT
_this$ = -16						; size = 4
__$EHRec$ = -12						; size = 12
_value$538031 = 8					; size = 4
_value$538026 = 8					; size = 4
_inValue$ = 8						; size = 4
??0?$CEncrypt@M@@QAE@ABV0@@Z PROC			; CEncrypt<float>::CEncrypt<float>, COMDAT
; _this$ = ecx

; 120  : 	CEncrypt( const CEncrypt<type> &inValue )   // 선언과 동시에 값을 대입하기 위해서

  00000	6a 04		 push	 4
  00002	b8 00 00 00 00	 mov	 eax, __ehhandler$??0?$CEncrypt@M@@QAE@ABV0@@Z
  00007	e8 00 00 00 00	 call	 __EH_prolog3
  0000c	8b f1		 mov	 esi, ecx
  0000e	89 75 f0	 mov	 DWORD PTR _this$[ebp], esi
  00011	8d 4e 0c	 lea	 ecx, DWORD PTR [esi+12]
  00014	c7 06 00 00 00
	00		 mov	 DWORD PTR [esi], OFFSET ??_7?$CEncrypt@M@@6B@
  0001a	e8 00 00 00 00	 call	 ??0ccddaabb@@QAE@XZ	; ccddaabb::ccddaabb
  0001f	83 65 fc 00	 and	 DWORD PTR __$EHRec$[ebp+8], 0

; 121  : 	{
; 122  : 		Init();

  00023	8b ce		 mov	 ecx, esi
  00025	e8 00 00 00 00	 call	 ?Init@?$CEncrypt@M@@AAEXXZ ; CEncrypt<float>::Init

; 123  : 		*this = inValue;

  0002a	8b 4d 08	 mov	 ecx, DWORD PTR _inValue$[ebp]
  0002d	8d 45 08	 lea	 eax, DWORD PTR _value$538026[ebp]
  00030	50		 push	 eax
  00031	e8 00 00 00 00	 call	 ?DecryptValueToPool@?$CEncrypt@M@@QAEXPAM@Z ; CEncrypt<float>::DecryptValueToPool
  00036	f3 0f 10 45 08	 movss	 xmm0, DWORD PTR _value$538026[ebp]
  0003b	8d 45 08	 lea	 eax, DWORD PTR _value$538031[ebp]
  0003e	50		 push	 eax
  0003f	8b ce		 mov	 ecx, esi
  00041	f3 0f 11 45 08	 movss	 DWORD PTR _value$538031[ebp], xmm0
  00046	e8 00 00 00 00	 call	 ?EncryptValueToPool@?$CEncrypt@M@@AAEXPBD@Z ; CEncrypt<float>::EncryptValueToPool

; 124  : 	}

  0004b	8b c6		 mov	 eax, esi
  0004d	e8 00 00 00 00	 call	 __EH_epilog3
  00052	c2 04 00	 ret	 4
_TEXT	ENDS
;	COMDAT text$x
text$x	SEGMENT
__unwindfunclet$??0?$CEncrypt@M@@QAE@ABV0@@Z$0:
  00000	8b 4d f0	 mov	 ecx, DWORD PTR _this$[ebp]
  00003	83 c1 0c	 add	 ecx, 12			; 0000000cH
  00006	e9 00 00 00 00	 jmp	 ??1ccddaabb@@UAE@XZ	; ccddaabb::~ccddaabb
__ehhandler$??0?$CEncrypt@M@@QAE@ABV0@@Z:
  0000b	8b 54 24 08	 mov	 edx, DWORD PTR [esp+8]
  0000f	8d 42 0c	 lea	 eax, DWORD PTR [edx+12]
  00012	8b 4a ec	 mov	 ecx, DWORD PTR [edx-20]
  00015	33 c8		 xor	 ecx, eax
  00017	e8 00 00 00 00	 call	 @__security_check_cookie@4
  0001c	b8 00 00 00 00	 mov	 eax, OFFSET __ehfuncinfo$??0?$CEncrypt@M@@QAE@ABV0@@Z
  00021	e9 00 00 00 00	 jmp	 ___CxxFrameHandler3
text$x	ENDS
??0?$CEncrypt@M@@QAE@ABV0@@Z ENDP			; CEncrypt<float>::CEncrypt<float>
PUBLIC	??0ioAreaWeaponControl2Skill@@QAE@ABV0@@Z	; ioAreaWeaponControl2Skill::ioAreaWeaponControl2Skill
EXTRN	??0ioNormalSkill@@QAE@ABV0@@Z:PROC		; ioNormalSkill::ioNormalSkill
;	COMDAT xdata$x
; File c:\program files (x86)\microsoft directx sdk (june 2010)\include\d3dx9math.h
xdata$x	SEGMENT
__ehfuncinfo$??0ioAreaWeaponControl2Skill@@QAE@ABV0@@Z DD 019930522H
	DD	0eH
	DD	FLAT:__unwindtable$??0ioAreaWeaponControl2Skill@@QAE@ABV0@@Z
	DD	2 DUP(00H)
	DD	2 DUP(00H)
	DD	00H
	DD	01H
__unwindtable$??0ioAreaWeaponControl2Skill@@QAE@ABV0@@Z DD 0ffffffffH
	DD	FLAT:__unwindfunclet$??0ioAreaWeaponControl2Skill@@QAE@ABV0@@Z$0
	DD	00H
	DD	FLAT:__unwindfunclet$??0ioAreaWeaponControl2Skill@@QAE@ABV0@@Z$1
	DD	01H
	DD	FLAT:__unwindfunclet$??0ioAreaWeaponControl2Skill@@QAE@ABV0@@Z$2
	DD	02H
	DD	FLAT:__unwindfunclet$??0ioAreaWeaponControl2Skill@@QAE@ABV0@@Z$3
	DD	03H
	DD	FLAT:__unwindfunclet$??0ioAreaWeaponControl2Skill@@QAE@ABV0@@Z$4
	DD	04H
	DD	FLAT:__unwindfunclet$??0ioAreaWeaponControl2Skill@@QAE@ABV0@@Z$5
	DD	05H
	DD	FLAT:__unwindfunclet$??0ioAreaWeaponControl2Skill@@QAE@ABV0@@Z$6
	DD	06H
	DD	FLAT:__unwindfunclet$??0ioAreaWeaponControl2Skill@@QAE@ABV0@@Z$7
	DD	07H
	DD	FLAT:__unwindfunclet$??0ioAreaWeaponControl2Skill@@QAE@ABV0@@Z$8
	DD	08H
	DD	FLAT:__unwindfunclet$??0ioAreaWeaponControl2Skill@@QAE@ABV0@@Z$9
	DD	09H
	DD	FLAT:__unwindfunclet$??0ioAreaWeaponControl2Skill@@QAE@ABV0@@Z$10
	DD	0aH
	DD	FLAT:__unwindfunclet$??0ioAreaWeaponControl2Skill@@QAE@ABV0@@Z$11
	DD	0bH
	DD	FLAT:__unwindfunclet$??0ioAreaWeaponControl2Skill@@QAE@ABV0@@Z$12
	DD	0cH
	DD	FLAT:__unwindfunclet$??0ioAreaWeaponControl2Skill@@QAE@ABV0@@Z$13
; Function compile flags: /Ogsp
; File d:\lost saga for developer\youtube\tutorial\source\src\lsclient\ioareaweaponcontrol2skill.cpp
xdata$x	ENDS
;	COMDAT ??0ioAreaWeaponControl2Skill@@QAE@ABV0@@Z
_TEXT	SEGMENT
_this$ = -16						; size = 4
__$EHRec$ = -12						; size = 12
_rhs$ = 8						; size = 4
??0ioAreaWeaponControl2Skill@@QAE@ABV0@@Z PROC		; ioAreaWeaponControl2Skill::ioAreaWeaponControl2Skill, COMDAT
; _this$ = ecx

; 47   : {

  00000	6a 04		 push	 4
  00002	b8 00 00 00 00	 mov	 eax, __ehhandler$??0ioAreaWeaponControl2Skill@@QAE@ABV0@@Z
  00007	e8 00 00 00 00	 call	 __EH_prolog3
  0000c	8b f1		 mov	 esi, ecx
  0000e	89 75 f0	 mov	 DWORD PTR _this$[ebp], esi
  00011	8b 7d 08	 mov	 edi, DWORD PTR _rhs$[ebp]
  00014	57		 push	 edi
  00015	e8 00 00 00 00	 call	 ??0ioNormalSkill@@QAE@ABV0@@Z ; ioNormalSkill::ioNormalSkill
  0001a	8b 1d 00 00 00
	00		 mov	 ebx, DWORD PTR __imp_??0ioHashString@@QAE@ABV0@@Z
  00020	83 65 fc 00	 and	 DWORD PTR __$EHRec$[ebp+8], 0
  00024	c7 06 00 00 00
	00		 mov	 DWORD PTR [esi], OFFSET ??_7ioAreaWeaponControl2Skill@@6B@
  0002a	8b 87 60 0f 00
	00		 mov	 eax, DWORD PTR [edi+3936]
  00030	89 86 60 0f 00
	00		 mov	 DWORD PTR [esi+3936], eax
  00036	8d 87 68 0f 00
	00		 lea	 eax, DWORD PTR [edi+3944]
  0003c	50		 push	 eax
  0003d	8d 8e 68 0f 00
	00		 lea	 ecx, DWORD PTR [esi+3944]
  00043	ff d3		 call	 ebx
  00045	8b 87 7c 0f 00
	00		 mov	 eax, DWORD PTR [edi+3964]
  0004b	89 86 7c 0f 00
	00		 mov	 DWORD PTR [esi+3964], eax
  00051	8d 87 80 0f 00
	00		 lea	 eax, DWORD PTR [edi+3968]
  00057	50		 push	 eax
  00058	8d 8e 80 0f 00
	00		 lea	 ecx, DWORD PTR [esi+3968]
  0005e	c6 45 fc 01	 mov	 BYTE PTR __$EHRec$[ebp+8], 1
  00062	ff d3		 call	 ebx
  00064	d9 87 90 0f 00
	00		 fld	 DWORD PTR [edi+3984]
  0006a	8d 87 9c 0f 00
	00		 lea	 eax, DWORD PTR [edi+3996]
  00070	d9 9e 90 0f 00
	00		 fstp	 DWORD PTR [esi+3984]
  00076	50		 push	 eax
  00077	8d 8e 9c 0f 00
	00		 lea	 ecx, DWORD PTR [esi+3996]
  0007d	c6 45 fc 02	 mov	 BYTE PTR __$EHRec$[ebp+8], 2
  00081	ff d3		 call	 ebx
  00083	8d 87 ac 0f 00
	00		 lea	 eax, DWORD PTR [edi+4012]
  00089	50		 push	 eax
  0008a	8d 8e ac 0f 00
	00		 lea	 ecx, DWORD PTR [esi+4012]
  00090	c6 45 fc 03	 mov	 BYTE PTR __$EHRec$[ebp+8], 3
  00094	ff d3		 call	 ebx
  00096	8d 87 bc 0f 00
	00		 lea	 eax, DWORD PTR [edi+4028]
  0009c	50		 push	 eax
  0009d	8d 8e bc 0f 00
	00		 lea	 ecx, DWORD PTR [esi+4028]
  000a3	c6 45 fc 04	 mov	 BYTE PTR __$EHRec$[ebp+8], 4
  000a7	ff d3		 call	 ebx
  000a9	d9 87 cc 0f 00
	00		 fld	 DWORD PTR [edi+4044]
  000af	8d 87 d0 0f 00
	00		 lea	 eax, DWORD PTR [edi+4048]
  000b5	d9 9e cc 0f 00
	00		 fstp	 DWORD PTR [esi+4044]
  000bb	50		 push	 eax
  000bc	8d 8e d0 0f 00
	00		 lea	 ecx, DWORD PTR [esi+4048]
  000c2	c6 45 fc 05	 mov	 BYTE PTR __$EHRec$[ebp+8], 5
  000c6	ff d3		 call	 ebx
  000c8	8d 87 e0 0f 00
	00		 lea	 eax, DWORD PTR [edi+4064]
  000ce	50		 push	 eax
  000cf	8d 8e e0 0f 00
	00		 lea	 ecx, DWORD PTR [esi+4064]
  000d5	c6 45 fc 06	 mov	 BYTE PTR __$EHRec$[ebp+8], 6
  000d9	ff d3		 call	 ebx
  000db	8b 87 f4 0f 00
	00		 mov	 eax, DWORD PTR [edi+4084]
  000e1	89 86 f4 0f 00
	00		 mov	 DWORD PTR [esi+4084], eax
  000e7	8d 87 08 10 00
	00		 lea	 eax, DWORD PTR [edi+4104]
  000ed	50		 push	 eax
  000ee	8d 8e 08 10 00
	00		 lea	 ecx, DWORD PTR [esi+4104]
  000f4	c6 45 fc 07	 mov	 BYTE PTR __$EHRec$[ebp+8], 7
  000f8	ff d3		 call	 ebx
  000fa	8d 87 1c 10 00
	00		 lea	 eax, DWORD PTR [edi+4124]
  00100	50		 push	 eax
  00101	8d 8e 1c 10 00
	00		 lea	 ecx, DWORD PTR [esi+4124]
  00107	c6 45 fc 08	 mov	 BYTE PTR __$EHRec$[ebp+8], 8
  0010b	e8 00 00 00 00	 call	 ??0?$CEncrypt@K@@QAE@ABV0@@Z ; CEncrypt<unsigned long>::CEncrypt<unsigned long>
  00110	d9 87 50 10 00
	00		 fld	 DWORD PTR [edi+4176]
  00116	d9 9e 50 10 00
	00		 fstp	 DWORD PTR [esi+4176]
  0011c	8d 87 6c 10 00
	00		 lea	 eax, DWORD PTR [edi+4204]
  00122	d9 87 54 10 00
	00		 fld	 DWORD PTR [edi+4180]
  00128	50		 push	 eax
  00129	8d 8e 6c 10 00
	00		 lea	 ecx, DWORD PTR [esi+4204]
  0012f	d9 9e 54 10 00
	00		 fstp	 DWORD PTR [esi+4180]
  00135	c6 45 fc 09	 mov	 BYTE PTR __$EHRec$[ebp+8], 9
  00139	e8 00 00 00 00	 call	 ??0?$CEncrypt@_N@@QAE@ABV0@@Z ; CEncrypt<bool>::CEncrypt<bool>
  0013e	c6 45 fc 0a	 mov	 BYTE PTR __$EHRec$[ebp+8], 10 ; 0000000aH
  00142	8d 87 9c 10 00
	00		 lea	 eax, DWORD PTR [edi+4252]
  00148	50		 push	 eax
  00149	8d 8e 9c 10 00
	00		 lea	 ecx, DWORD PTR [esi+4252]
  0014f	e8 00 00 00 00	 call	 ??0?$CEncrypt@M@@QAE@ABV0@@Z ; CEncrypt<float>::CEncrypt<float>
  00154	81 c7 cc 10 00
	00		 add	 edi, 4300		; 000010ccH
  0015a	57		 push	 edi
  0015b	8d 8e cc 10 00
	00		 lea	 ecx, DWORD PTR [esi+4300]
  00161	c6 45 fc 0b	 mov	 BYTE PTR __$EHRec$[ebp+8], 11 ; 0000000bH
  00165	e8 00 00 00 00	 call	 ??0?$CEncrypt@K@@QAE@ABV0@@Z ; CEncrypt<unsigned long>::CEncrypt<unsigned long>
  0016a	8d 8e 00 11 00
	00		 lea	 ecx, DWORD PTR [esi+4352]
  00170	c6 45 fc 0c	 mov	 BYTE PTR __$EHRec$[ebp+8], 12 ; 0000000cH
  00174	e8 00 00 00 00	 call	 ??0?$CEncrypt@M@@QAE@XZ	; CEncrypt<float>::CEncrypt<float>
  00179	8d 8e 30 11 00
	00		 lea	 ecx, DWORD PTR [esi+4400]
  0017f	c6 45 fc 0d	 mov	 BYTE PTR __$EHRec$[ebp+8], 13 ; 0000000dH
  00183	e8 00 00 00 00	 call	 ??0?$CEncrypt@K@@QAE@XZ	; CEncrypt<unsigned long>::CEncrypt<unsigned long>

; 48   : 	m_ControlState = RS_NONE;
; 49   : 	m_AreaWeaponState = AS_DELAY;
; 50   : 
; 51   : 	m_dwLoopStartTime = 0;
; 52   : 	m_dwEndAniStartTime = 0;
; 53   : 	m_dwEndAniEndTime = 0;
; 54   : 	m_dwAreaWeaponIndex = 0;
; 55   : 	m_bSetHandMesh = false;
; 56   : 
; 57   : 	m_fHeight = 0.0f;

  00188	0f 57 c0	 xorps	 xmm0, xmm0
  0018b	33 c0		 xor	 eax, eax
  0018d	89 86 58 0f 00
	00		 mov	 DWORD PTR [esi+3928], eax
  00193	89 86 5c 0f 00
	00		 mov	 DWORD PTR [esi+3932], eax
  00199	89 86 78 0f 00
	00		 mov	 DWORD PTR [esi+3960], eax
  0019f	89 86 94 0f 00
	00		 mov	 DWORD PTR [esi+3988], eax
  001a5	89 86 98 0f 00
	00		 mov	 DWORD PTR [esi+3992], eax
  001ab	89 86 18 10 00
	00		 mov	 DWORD PTR [esi+4120], eax
  001b1	88 86 0a 0f 00
	00		 mov	 BYTE PTR [esi+3850], al

; 58   : 	m_bSetUpKey = false;

  001b7	66 89 86 68 10
	00 00		 mov	 WORD PTR [esi+4200], ax
  001be	f3 0f 11 86 58
	10 00 00	 movss	 DWORD PTR [esi+4184], xmm0

; 59   : 	m_bSetDownKey = false;
; 60   : }

  001c6	8b c6		 mov	 eax, esi
  001c8	e8 00 00 00 00	 call	 __EH_epilog3
  001cd	c2 04 00	 ret	 4
_TEXT	ENDS
;	COMDAT text$x
text$x	SEGMENT
__unwindfunclet$??0ioAreaWeaponControl2Skill@@QAE@ABV0@@Z$0:
  00000	8b 4d f0	 mov	 ecx, DWORD PTR _this$[ebp]
  00003	e9 00 00 00 00	 jmp	 ??1ioNormalSkill@@UAE@XZ ; ioNormalSkill::~ioNormalSkill
__unwindfunclet$??0ioAreaWeaponControl2Skill@@QAE@ABV0@@Z$1:
  00008	8b 4d f0	 mov	 ecx, DWORD PTR _this$[ebp]
  0000b	81 c1 68 0f 00
	00		 add	 ecx, 3944		; 00000f68H
  00011	ff 25 00 00 00
	00		 jmp	 DWORD PTR __imp_??1ioHashString@@QAE@XZ
__unwindfunclet$??0ioAreaWeaponControl2Skill@@QAE@ABV0@@Z$2:
  00017	8b 4d f0	 mov	 ecx, DWORD PTR _this$[ebp]
  0001a	81 c1 80 0f 00
	00		 add	 ecx, 3968		; 00000f80H
  00020	ff 25 00 00 00
	00		 jmp	 DWORD PTR __imp_??1ioHashString@@QAE@XZ
__unwindfunclet$??0ioAreaWeaponControl2Skill@@QAE@ABV0@@Z$3:
  00026	8b 4d f0	 mov	 ecx, DWORD PTR _this$[ebp]
  00029	81 c1 9c 0f 00
	00		 add	 ecx, 3996		; 00000f9cH
  0002f	ff 25 00 00 00
	00		 jmp	 DWORD PTR __imp_??1ioHashString@@QAE@XZ
__unwindfunclet$??0ioAreaWeaponControl2Skill@@QAE@ABV0@@Z$4:
  00035	8b 4d f0	 mov	 ecx, DWORD PTR _this$[ebp]
  00038	81 c1 ac 0f 00
	00		 add	 ecx, 4012		; 00000facH
  0003e	ff 25 00 00 00
	00		 jmp	 DWORD PTR __imp_??1ioHashString@@QAE@XZ
__unwindfunclet$??0ioAreaWeaponControl2Skill@@QAE@ABV0@@Z$5:
  00044	8b 4d f0	 mov	 ecx, DWORD PTR _this$[ebp]
  00047	81 c1 bc 0f 00
	00		 add	 ecx, 4028		; 00000fbcH
  0004d	ff 25 00 00 00
	00		 jmp	 DWORD PTR __imp_??1ioHashString@@QAE@XZ
__unwindfunclet$??0ioAreaWeaponControl2Skill@@QAE@ABV0@@Z$6:
  00053	8b 4d f0	 mov	 ecx, DWORD PTR _this$[ebp]
  00056	81 c1 d0 0f 00
	00		 add	 ecx, 4048		; 00000fd0H
  0005c	ff 25 00 00 00
	00		 jmp	 DWORD PTR __imp_??1ioHashString@@QAE@XZ
__unwindfunclet$??0ioAreaWeaponControl2Skill@@QAE@ABV0@@Z$7:
  00062	8b 4d f0	 mov	 ecx, DWORD PTR _this$[ebp]
  00065	81 c1 e0 0f 00
	00		 add	 ecx, 4064		; 00000fe0H
  0006b	ff 25 00 00 00
	00		 jmp	 DWORD PTR __imp_??1ioHashString@@QAE@XZ
__unwindfunclet$??0ioAreaWeaponControl2Skill@@QAE@ABV0@@Z$8:
  00071	8b 4d f0	 mov	 ecx, DWORD PTR _this$[ebp]
  00074	81 c1 08 10 00
	00		 add	 ecx, 4104		; 00001008H
  0007a	ff 25 00 00 00
	00		 jmp	 DWORD PTR __imp_??1ioHashString@@QAE@XZ
__unwindfunclet$??0ioAreaWeaponControl2Skill@@QAE@ABV0@@Z$9:
  00080	8b 4d f0	 mov	 ecx, DWORD PTR _this$[ebp]
  00083	81 c1 1c 10 00
	00		 add	 ecx, 4124		; 0000101cH
  00089	e9 00 00 00 00	 jmp	 ??1?$CEncrypt@K@@UAE@XZ	; CEncrypt<unsigned long>::~CEncrypt<unsigned long>
__unwindfunclet$??0ioAreaWeaponControl2Skill@@QAE@ABV0@@Z$10:
  0008e	8b 4d f0	 mov	 ecx, DWORD PTR _this$[ebp]
  00091	81 c1 6c 10 00
	00		 add	 ecx, 4204		; 0000106cH
  00097	e9 00 00 00 00	 jmp	 ??1?$CEncrypt@_N@@UAE@XZ ; CEncrypt<bool>::~CEncrypt<bool>
__unwindfunclet$??0ioAreaWeaponControl2Skill@@QAE@ABV0@@Z$11:
  0009c	8b 4d f0	 mov	 ecx, DWORD PTR _this$[ebp]
  0009f	81 c1 9c 10 00
	00		 add	 ecx, 4252		; 0000109cH
  000a5	e9 00 00 00 00	 jmp	 ??1?$CEncrypt@M@@UAE@XZ	; CEncrypt<float>::~CEncrypt<float>
__unwindfunclet$??0ioAreaWeaponControl2Skill@@QAE@ABV0@@Z$12:
  000aa	8b 4d f0	 mov	 ecx, DWORD PTR _this$[ebp]
  000ad	81 c1 cc 10 00
	00		 add	 ecx, 4300		; 000010ccH
  000b3	e9 00 00 00 00	 jmp	 ??1?$CEncrypt@K@@UAE@XZ	; CEncrypt<unsigned long>::~CEncrypt<unsigned long>
__unwindfunclet$??0ioAreaWeaponControl2Skill@@QAE@ABV0@@Z$13:
  000b8	8b 4d f0	 mov	 ecx, DWORD PTR _this$[ebp]
  000bb	81 c1 00 11 00
	00		 add	 ecx, 4352		; 00001100H
  000c1	e9 00 00 00 00	 jmp	 ??1?$CEncrypt@M@@UAE@XZ	; CEncrypt<float>::~CEncrypt<float>
__ehhandler$??0ioAreaWeaponControl2Skill@@QAE@ABV0@@Z:
  000c6	8b 54 24 08	 mov	 edx, DWORD PTR [esp+8]
  000ca	8d 42 0c	 lea	 eax, DWORD PTR [edx+12]
  000cd	8b 4a ec	 mov	 ecx, DWORD PTR [edx-20]
  000d0	33 c8		 xor	 ecx, eax
  000d2	e8 00 00 00 00	 call	 @__security_check_cookie@4
  000d7	b8 00 00 00 00	 mov	 eax, OFFSET __ehfuncinfo$??0ioAreaWeaponControl2Skill@@QAE@ABV0@@Z
  000dc	e9 00 00 00 00	 jmp	 ___CxxFrameHandler3
text$x	ENDS
??0ioAreaWeaponControl2Skill@@QAE@ABV0@@Z ENDP		; ioAreaWeaponControl2Skill::ioAreaWeaponControl2Skill
PUBLIC	??1ioAreaWeaponControl2Skill@@UAE@XZ		; ioAreaWeaponControl2Skill::~ioAreaWeaponControl2Skill
;	COMDAT xdata$x
; File d:\lost saga for developer\youtube\tutorial\source\src\lsclient\encryptvalue.h
xdata$x	SEGMENT
__ehfuncinfo$??1ioAreaWeaponControl2Skill@@UAE@XZ DD 019930522H
	DD	0fH
	DD	FLAT:__unwindtable$??1ioAreaWeaponControl2Skill@@UAE@XZ
	DD	2 DUP(00H)
	DD	2 DUP(00H)
	DD	00H
	DD	01H
__unwindtable$??1ioAreaWeaponControl2Skill@@UAE@XZ DD 0ffffffffH
	DD	FLAT:__unwindfunclet$??1ioAreaWeaponControl2Skill@@UAE@XZ$0
	DD	00H
	DD	FLAT:__unwindfunclet$??1ioAreaWeaponControl2Skill@@UAE@XZ$1
	DD	01H
	DD	FLAT:__unwindfunclet$??1ioAreaWeaponControl2Skill@@UAE@XZ$2
	DD	02H
	DD	FLAT:__unwindfunclet$??1ioAreaWeaponControl2Skill@@UAE@XZ$3
	DD	03H
	DD	FLAT:__unwindfunclet$??1ioAreaWeaponControl2Skill@@UAE@XZ$4
	DD	04H
	DD	FLAT:__unwindfunclet$??1ioAreaWeaponControl2Skill@@UAE@XZ$5
	DD	05H
	DD	FLAT:__unwindfunclet$??1ioAreaWeaponControl2Skill@@UAE@XZ$6
	DD	06H
	DD	FLAT:__unwindfunclet$??1ioAreaWeaponControl2Skill@@UAE@XZ$7
	DD	07H
	DD	FLAT:__unwindfunclet$??1ioAreaWeaponControl2Skill@@UAE@XZ$8
	DD	08H
	DD	FLAT:__unwindfunclet$??1ioAreaWeaponControl2Skill@@UAE@XZ$9
	DD	09H
	DD	FLAT:__unwindfunclet$??1ioAreaWeaponControl2Skill@@UAE@XZ$10
	DD	0aH
	DD	FLAT:__unwindfunclet$??1ioAreaWeaponControl2Skill@@UAE@XZ$11
	DD	0bH
	DD	FLAT:__unwindfunclet$??1ioAreaWeaponControl2Skill@@UAE@XZ$12
	DD	0cH
	DD	FLAT:__unwindfunclet$??1ioAreaWeaponControl2Skill@@UAE@XZ$13
	DD	0dH
	DD	FLAT:__unwindfunclet$??1ioAreaWeaponControl2Skill@@UAE@XZ$14
; Function compile flags: /Ogsp
; File d:\lost saga for developer\youtube\tutorial\source\src\lsclient\ioareaweaponcontrol2skill.cpp
xdata$x	ENDS
;	COMDAT ??1ioAreaWeaponControl2Skill@@UAE@XZ
_TEXT	SEGMENT
_this$ = -16						; size = 4
__$EHRec$ = -12						; size = 12
??1ioAreaWeaponControl2Skill@@UAE@XZ PROC		; ioAreaWeaponControl2Skill::~ioAreaWeaponControl2Skill, COMDAT
; _this$ = ecx

; 63   : {

  00000	6a 04		 push	 4
  00002	b8 00 00 00 00	 mov	 eax, __ehhandler$??1ioAreaWeaponControl2Skill@@UAE@XZ
  00007	e8 00 00 00 00	 call	 __EH_prolog3
  0000c	8b f1		 mov	 esi, ecx
  0000e	89 75 f0	 mov	 DWORD PTR _this$[ebp], esi
  00011	c7 06 00 00 00
	00		 mov	 DWORD PTR [esi], OFFSET ??_7ioAreaWeaponControl2Skill@@6B@
  00017	c7 45 fc 0e 00
	00 00		 mov	 DWORD PTR __$EHRec$[ebp+8], 14 ; 0000000eH

; 64   : 	DestroyAreaWeapon();

  0001e	e8 00 00 00 00	 call	 ?DestroyAreaWeapon@ioAreaWeaponControl2Skill@@IAEXXZ ; ioAreaWeaponControl2Skill::DestroyAreaWeapon

; 65   : }

  00023	bf 00 00 00 00	 mov	 edi, OFFSET ??_7?$CEncrypt@K@@6B@
  00028	8d 8e 3c 11 00
	00		 lea	 ecx, DWORD PTR [esi+4412]
  0002e	c6 45 fc 0d	 mov	 BYTE PTR __$EHRec$[ebp+8], 13 ; 0000000dH
  00032	89 be 30 11 00
	00		 mov	 DWORD PTR [esi+4400], edi
  00038	e8 00 00 00 00	 call	 ??1ccddaabb@@UAE@XZ	; ccddaabb::~ccddaabb
  0003d	bb 00 00 00 00	 mov	 ebx, OFFSET ??_7?$CEncrypt@M@@6B@
  00042	8d 8e 0c 11 00
	00		 lea	 ecx, DWORD PTR [esi+4364]
  00048	c6 45 fc 0c	 mov	 BYTE PTR __$EHRec$[ebp+8], 12 ; 0000000cH
  0004c	89 9e 00 11 00
	00		 mov	 DWORD PTR [esi+4352], ebx
  00052	e8 00 00 00 00	 call	 ??1ccddaabb@@UAE@XZ	; ccddaabb::~ccddaabb
  00057	8d 8e d8 10 00
	00		 lea	 ecx, DWORD PTR [esi+4312]
  0005d	c6 45 fc 0b	 mov	 BYTE PTR __$EHRec$[ebp+8], 11 ; 0000000bH
  00061	89 be cc 10 00
	00		 mov	 DWORD PTR [esi+4300], edi
  00067	e8 00 00 00 00	 call	 ??1ccddaabb@@UAE@XZ	; ccddaabb::~ccddaabb
  0006c	8d 8e a8 10 00
	00		 lea	 ecx, DWORD PTR [esi+4264]
  00072	c6 45 fc 0a	 mov	 BYTE PTR __$EHRec$[ebp+8], 10 ; 0000000aH
  00076	89 9e 9c 10 00
	00		 mov	 DWORD PTR [esi+4252], ebx
  0007c	e8 00 00 00 00	 call	 ??1ccddaabb@@UAE@XZ	; ccddaabb::~ccddaabb
  00081	8d 8e 78 10 00
	00		 lea	 ecx, DWORD PTR [esi+4216]
  00087	c6 45 fc 09	 mov	 BYTE PTR __$EHRec$[ebp+8], 9
  0008b	c7 86 6c 10 00
	00 00 00 00 00	 mov	 DWORD PTR [esi+4204], OFFSET ??_7?$CEncrypt@_N@@6B@
  00095	e8 00 00 00 00	 call	 ??1ccddaabb@@UAE@XZ	; ccddaabb::~ccddaabb
  0009a	8d 8e 28 10 00
	00		 lea	 ecx, DWORD PTR [esi+4136]
  000a0	c6 45 fc 08	 mov	 BYTE PTR __$EHRec$[ebp+8], 8
  000a4	89 be 1c 10 00
	00		 mov	 DWORD PTR [esi+4124], edi
  000aa	e8 00 00 00 00	 call	 ??1ccddaabb@@UAE@XZ	; ccddaabb::~ccddaabb
  000af	8b 3d 00 00 00
	00		 mov	 edi, DWORD PTR __imp_??1ioHashString@@QAE@XZ
  000b5	8d 8e 08 10 00
	00		 lea	 ecx, DWORD PTR [esi+4104]
  000bb	c6 45 fc 07	 mov	 BYTE PTR __$EHRec$[ebp+8], 7
  000bf	ff d7		 call	 edi
  000c1	8d 8e e0 0f 00
	00		 lea	 ecx, DWORD PTR [esi+4064]
  000c7	c6 45 fc 06	 mov	 BYTE PTR __$EHRec$[ebp+8], 6
  000cb	ff d7		 call	 edi
  000cd	8d 8e d0 0f 00
	00		 lea	 ecx, DWORD PTR [esi+4048]
  000d3	c6 45 fc 05	 mov	 BYTE PTR __$EHRec$[ebp+8], 5
  000d7	ff d7		 call	 edi
  000d9	8d 8e bc 0f 00
	00		 lea	 ecx, DWORD PTR [esi+4028]
  000df	c6 45 fc 04	 mov	 BYTE PTR __$EHRec$[ebp+8], 4
  000e3	ff d7		 call	 edi
  000e5	8d 8e ac 0f 00
	00		 lea	 ecx, DWORD PTR [esi+4012]
  000eb	c6 45 fc 03	 mov	 BYTE PTR __$EHRec$[ebp+8], 3
  000ef	ff d7		 call	 edi
  000f1	8d 8e 9c 0f 00
	00		 lea	 ecx, DWORD PTR [esi+3996]
  000f7	c6 45 fc 02	 mov	 BYTE PTR __$EHRec$[ebp+8], 2
  000fb	ff d7		 call	 edi
  000fd	8d 8e 80 0f 00
	00		 lea	 ecx, DWORD PTR [esi+3968]
  00103	c6 45 fc 01	 mov	 BYTE PTR __$EHRec$[ebp+8], 1
  00107	ff d7		 call	 edi
  00109	8d 8e 68 0f 00
	00		 lea	 ecx, DWORD PTR [esi+3944]
  0010f	c6 45 fc 00	 mov	 BYTE PTR __$EHRec$[ebp+8], 0
  00113	ff d7		 call	 edi
  00115	83 4d fc ff	 or	 DWORD PTR __$EHRec$[ebp+8], -1
  00119	8b ce		 mov	 ecx, esi
  0011b	e8 00 00 00 00	 call	 ??1ioNormalSkill@@UAE@XZ ; ioNormalSkill::~ioNormalSkill
  00120	e8 00 00 00 00	 call	 __EH_epilog3
  00125	c3		 ret	 0
_TEXT	ENDS
;	COMDAT text$x
text$x	SEGMENT
__unwindfunclet$??1ioAreaWeaponControl2Skill@@UAE@XZ$0:
  00000	8b 4d f0	 mov	 ecx, DWORD PTR _this$[ebp]
  00003	e9 00 00 00 00	 jmp	 ??1ioNormalSkill@@UAE@XZ ; ioNormalSkill::~ioNormalSkill
__unwindfunclet$??1ioAreaWeaponControl2Skill@@UAE@XZ$1:
  00008	8b 4d f0	 mov	 ecx, DWORD PTR _this$[ebp]
  0000b	81 c1 68 0f 00
	00		 add	 ecx, 3944		; 00000f68H
  00011	ff 25 00 00 00
	00		 jmp	 DWORD PTR __imp_??1ioHashString@@QAE@XZ
__unwindfunclet$??1ioAreaWeaponControl2Skill@@UAE@XZ$2:
  00017	8b 4d f0	 mov	 ecx, DWORD PTR _this$[ebp]
  0001a	81 c1 80 0f 00
	00		 add	 ecx, 3968		; 00000f80H
  00020	ff 25 00 00 00
	00		 jmp	 DWORD PTR __imp_??1ioHashString@@QAE@XZ
__unwindfunclet$??1ioAreaWeaponControl2Skill@@UAE@XZ$3:
  00026	8b 4d f0	 mov	 ecx, DWORD PTR _this$[ebp]
  00029	81 c1 9c 0f 00
	00		 add	 ecx, 3996		; 00000f9cH
  0002f	ff 25 00 00 00
	00		 jmp	 DWORD PTR __imp_??1ioHashString@@QAE@XZ
__unwindfunclet$??1ioAreaWeaponControl2Skill@@UAE@XZ$4:
  00035	8b 4d f0	 mov	 ecx, DWORD PTR _this$[ebp]
  00038	81 c1 ac 0f 00
	00		 add	 ecx, 4012		; 00000facH
  0003e	ff 25 00 00 00
	00		 jmp	 DWORD PTR __imp_??1ioHashString@@QAE@XZ
__unwindfunclet$??1ioAreaWeaponControl2Skill@@UAE@XZ$5:
  00044	8b 4d f0	 mov	 ecx, DWORD PTR _this$[ebp]
  00047	81 c1 bc 0f 00
	00		 add	 ecx, 4028		; 00000fbcH
  0004d	ff 25 00 00 00
	00		 jmp	 DWORD PTR __imp_??1ioHashString@@QAE@XZ
__unwindfunclet$??1ioAreaWeaponControl2Skill@@UAE@XZ$6:
  00053	8b 4d f0	 mov	 ecx, DWORD PTR _this$[ebp]
  00056	81 c1 d0 0f 00
	00		 add	 ecx, 4048		; 00000fd0H
  0005c	ff 25 00 00 00
	00		 jmp	 DWORD PTR __imp_??1ioHashString@@QAE@XZ
__unwindfunclet$??1ioAreaWeaponControl2Skill@@UAE@XZ$7:
  00062	8b 4d f0	 mov	 ecx, DWORD PTR _this$[ebp]
  00065	81 c1 e0 0f 00
	00		 add	 ecx, 4064		; 00000fe0H
  0006b	ff 25 00 00 00
	00		 jmp	 DWORD PTR __imp_??1ioHashString@@QAE@XZ
__unwindfunclet$??1ioAreaWeaponControl2Skill@@UAE@XZ$8:
  00071	8b 4d f0	 mov	 ecx, DWORD PTR _this$[ebp]
  00074	81 c1 08 10 00
	00		 add	 ecx, 4104		; 00001008H
  0007a	ff 25 00 00 00
	00		 jmp	 DWORD PTR __imp_??1ioHashString@@QAE@XZ
__unwindfunclet$??1ioAreaWeaponControl2Skill@@UAE@XZ$9:
  00080	8b 4d f0	 mov	 ecx, DWORD PTR _this$[ebp]
  00083	81 c1 1c 10 00
	00		 add	 ecx, 4124		; 0000101cH
  00089	e9 00 00 00 00	 jmp	 ??1?$CEncrypt@K@@UAE@XZ	; CEncrypt<unsigned long>::~CEncrypt<unsigned long>
__unwindfunclet$??1ioAreaWeaponControl2Skill@@UAE@XZ$10:
  0008e	8b 4d f0	 mov	 ecx, DWORD PTR _this$[ebp]
  00091	81 c1 6c 10 00
	00		 add	 ecx, 4204		; 0000106cH
  00097	e9 00 00 00 00	 jmp	 ??1?$CEncrypt@_N@@UAE@XZ ; CEncrypt<bool>::~CEncrypt<bool>
__unwindfunclet$??1ioAreaWeaponControl2Skill@@UAE@XZ$11:
  0009c	8b 4d f0	 mov	 ecx, DWORD PTR _this$[ebp]
  0009f	81 c1 9c 10 00
	00		 add	 ecx, 4252		; 0000109cH
  000a5	e9 00 00 00 00	 jmp	 ??1?$CEncrypt@M@@UAE@XZ	; CEncrypt<float>::~CEncrypt<float>
__unwindfunclet$??1ioAreaWeaponControl2Skill@@UAE@XZ$12:
  000aa	8b 4d f0	 mov	 ecx, DWORD PTR _this$[ebp]
  000ad	81 c1 cc 10 00
	00		 add	 ecx, 4300		; 000010ccH
  000b3	e9 00 00 00 00	 jmp	 ??1?$CEncrypt@K@@UAE@XZ	; CEncrypt<unsigned long>::~CEncrypt<unsigned long>
__unwindfunclet$??1ioAreaWeaponControl2Skill@@UAE@XZ$13:
  000b8	8b 4d f0	 mov	 ecx, DWORD PTR _this$[ebp]
  000bb	81 c1 00 11 00
	00		 add	 ecx, 4352		; 00001100H
  000c1	e9 00 00 00 00	 jmp	 ??1?$CEncrypt@M@@UAE@XZ	; CEncrypt<float>::~CEncrypt<float>
__unwindfunclet$??1ioAreaWeaponControl2Skill@@UAE@XZ$14:
  000c6	8b 4d f0	 mov	 ecx, DWORD PTR _this$[ebp]
  000c9	81 c1 30 11 00
	00		 add	 ecx, 4400		; 00001130H
  000cf	e9 00 00 00 00	 jmp	 ??1?$CEncrypt@K@@UAE@XZ	; CEncrypt<unsigned long>::~CEncrypt<unsigned long>
__ehhandler$??1ioAreaWeaponControl2Skill@@UAE@XZ:
  000d4	8b 54 24 08	 mov	 edx, DWORD PTR [esp+8]
  000d8	8d 42 0c	 lea	 eax, DWORD PTR [edx+12]
  000db	8b 4a ec	 mov	 ecx, DWORD PTR [edx-20]
  000de	33 c8		 xor	 ecx, eax
  000e0	e8 00 00 00 00	 call	 @__security_check_cookie@4
  000e5	b8 00 00 00 00	 mov	 eax, OFFSET __ehfuncinfo$??1ioAreaWeaponControl2Skill@@UAE@XZ
  000ea	e9 00 00 00 00	 jmp	 ___CxxFrameHandler3
text$x	ENDS
??1ioAreaWeaponControl2Skill@@UAE@XZ ENDP		; ioAreaWeaponControl2Skill::~ioAreaWeaponControl2Skill
EXTRN	??2@YAPAXI@Z:PROC				; operator new
;	COMDAT xdata$x
xdata$x	SEGMENT
__unwindtable$?Clone@ioAreaWeaponControl2Skill@@UAEPAVioSkill@@XZ DD 0ffffffffH
	DD	FLAT:__unwindfunclet$?Clone@ioAreaWeaponControl2Skill@@UAEPAVioSkill@@XZ$0
__ehfuncinfo$?Clone@ioAreaWeaponControl2Skill@@UAEPAVioSkill@@XZ DD 019930522H
	DD	01H
	DD	FLAT:__unwindtable$?Clone@ioAreaWeaponControl2Skill@@UAEPAVioSkill@@XZ
	DD	2 DUP(00H)
	DD	2 DUP(00H)
	DD	00H
	DD	01H
; Function compile flags: /Ogsp
xdata$x	ENDS
;	COMDAT ?Clone@ioAreaWeaponControl2Skill@@UAEPAVioSkill@@XZ
_TEXT	SEGMENT
$T538124 = -16						; size = 4
__$EHRec$ = -12						; size = 12
?Clone@ioAreaWeaponControl2Skill@@UAEPAVioSkill@@XZ PROC ; ioAreaWeaponControl2Skill::Clone, COMDAT
; _this$ = ecx

; 116  : {

  00000	6a 04		 push	 4
  00002	b8 00 00 00 00	 mov	 eax, __ehhandler$?Clone@ioAreaWeaponControl2Skill@@UAEPAVioSkill@@XZ
  00007	e8 00 00 00 00	 call	 __EH_prolog3
  0000c	8b f1		 mov	 esi, ecx

; 117  : 	return new ioAreaWeaponControl2Skill( *this );

  0000e	68 60 11 00 00	 push	 4448			; 00001160H
  00013	e8 00 00 00 00	 call	 ??2@YAPAXI@Z		; operator new
  00018	59		 pop	 ecx
  00019	8b c8		 mov	 ecx, eax
  0001b	89 4d f0	 mov	 DWORD PTR $T538124[ebp], ecx
  0001e	33 c0		 xor	 eax, eax
  00020	89 45 fc	 mov	 DWORD PTR __$EHRec$[ebp+8], eax
  00023	3b c8		 cmp	 ecx, eax
  00025	74 06		 je	 SHORT $LN3@Clone
  00027	56		 push	 esi
  00028	e8 00 00 00 00	 call	 ??0ioAreaWeaponControl2Skill@@QAE@ABV0@@Z ; ioAreaWeaponControl2Skill::ioAreaWeaponControl2Skill
$LN3@Clone:

; 118  : }

  0002d	e8 00 00 00 00	 call	 __EH_epilog3
  00032	c3		 ret	 0
_TEXT	ENDS
;	COMDAT text$x
text$x	SEGMENT
__unwindfunclet$?Clone@ioAreaWeaponControl2Skill@@UAEPAVioSkill@@XZ$0:
  00000	ff 75 f0	 push	 DWORD PTR $T538124[ebp]
  00003	e8 00 00 00 00	 call	 ??3@YAXPAX@Z		; operator delete
  00008	59		 pop	 ecx
  00009	c3		 ret	 0
__ehhandler$?Clone@ioAreaWeaponControl2Skill@@UAEPAVioSkill@@XZ:
  0000a	8b 54 24 08	 mov	 edx, DWORD PTR [esp+8]
  0000e	8d 42 0c	 lea	 eax, DWORD PTR [edx+12]
  00011	8b 4a ec	 mov	 ecx, DWORD PTR [edx-20]
  00014	33 c8		 xor	 ecx, eax
  00016	e8 00 00 00 00	 call	 @__security_check_cookie@4
  0001b	b8 00 00 00 00	 mov	 eax, OFFSET __ehfuncinfo$?Clone@ioAreaWeaponControl2Skill@@UAEPAVioSkill@@XZ
  00020	e9 00 00 00 00	 jmp	 ___CxxFrameHandler3
text$x	ENDS
?Clone@ioAreaWeaponControl2Skill@@UAEPAVioSkill@@XZ ENDP ; ioAreaWeaponControl2Skill::Clone
PUBLIC	_pChar$GSCopy$
EXTRN	?GetValue@ioGrowthNormalUpInfo@@QAEMPAVioPlayStage@@@Z:PROC ; ioGrowthNormalUpInfo::GetValue
EXTRN	?GetGrowthUpInfoByType@ioSkill@@QAEPAVioGrowthUpInfo@@HABVioHashString@@@Z:PROC ; ioSkill::GetGrowthUpInfoByType
EXTRN	?SetSkillNameChatBubble@ioSkill@@IAEXPAVioBaseChar@@@Z:PROC ; ioSkill::SetSkillNameChatBubble
EXTRN	?CheckSkillDesc@ioSkill@@IAEXPAVioBaseChar@@@Z:PROC ; ioSkill::CheckSkillDesc
EXTRN	?SetAutoTargetTrackingEndTime@ioBaseChar@@QAEXK@Z:PROC ; ioBaseChar::SetAutoTargetTrackingEndTime
EXTRN	?SetAutoTarget@ioBaseChar@@QAEXW4AutoTargetType@@@Z:PROC ; ioBaseChar::SetAutoTarget
EXTRN	?GetUniqueID@ioMapEffect@@QBEKXZ:PROC		; ioMapEffect::GetUniqueID
EXTRN	?CreateMapEffectBySkill@ioBaseChar@@QAEPAVioMapEffect@@ABVioHashString@@ABUD3DXVECTOR3@@AAU4@@Z:PROC ; ioBaseChar::CreateMapEffectBySkill
EXTRN	?GetSingleConvertTeam@ioBaseChar@@QAE?AW4TeamType@@XZ:PROC ; ioBaseChar::GetSingleConvertTeam
EXTRN	?ShowWeaponItemMesh@ioBaseChar@@QAEX_N0@Z:PROC	; ioBaseChar::ShowWeaponItemMesh
EXTRN	?SetCameraBuff@ioSkill@@IAEXPAVioBaseChar@@@Z:PROC ; ioSkill::SetCameraBuff
EXTRN	?SetSkillProtection@ioBaseChar@@QAEXXZ:PROC	; ioBaseChar::SetSkillProtection
;	COMDAT xdata$x
; File d:\lost saga for developer\youtube\tutorial\source\src\lsclient\iobasechar.h
xdata$x	SEGMENT
__unwindtable$?OnSkillStart@ioAreaWeaponControl2Skill@@UAE_NPAVioBaseChar@@@Z DD 0ffffffffH
	DD	FLAT:__unwindfunclet$?OnSkillStart@ioAreaWeaponControl2Skill@@UAE_NPAVioBaseChar@@@Z$0
	DD	00H
	DD	FLAT:__unwindfunclet$?OnSkillStart@ioAreaWeaponControl2Skill@@UAE_NPAVioBaseChar@@@Z$3
	DD	0ffffffffH
	DD	FLAT:__unwindfunclet$?OnSkillStart@ioAreaWeaponControl2Skill@@UAE_NPAVioBaseChar@@@Z$1
	DD	02H
	DD	FLAT:__unwindfunclet$?OnSkillStart@ioAreaWeaponControl2Skill@@UAE_NPAVioBaseChar@@@Z$2
__ehfuncinfo$?OnSkillStart@ioAreaWeaponControl2Skill@@UAE_NPAVioBaseChar@@@Z DD 019930522H
	DD	04H
	DD	FLAT:__unwindtable$?OnSkillStart@ioAreaWeaponControl2Skill@@UAE_NPAVioBaseChar@@@Z
	DD	2 DUP(00H)
	DD	2 DUP(00H)
	DD	00H
	DD	01H
; Function compile flags: /Ogsp
; File d:\lost saga for developer\youtube\tutorial\source\src\lsclient\ioareaweaponcontrol2skill.cpp
xdata$x	ENDS
;	COMDAT ?OnSkillStart@ioAreaWeaponControl2Skill@@UAE_NPAVioBaseChar@@@Z
_TEXT	SEGMENT
_szPreDelay$530990 = -204				; size = 16
$T538138 = -200						; size = 12
$T538336 = -188						; size = 16
$T538139 = -184						; size = 12
tv1614 = -172						; size = 4
$T538137 = -168						; size = 12
$T530966 = -168						; size = 12
tv1743 = -156						; size = 4
tv1607 = -156						; size = 4
tv1721 = -152						; size = 4
tv1709 = -152						; size = 4
tv1701 = -152						; size = 4
_value$538439 = -152					; size = 4
$T538148 = -148						; size = 4
_pChar$GSCopy$ = -144					; size = 4
$T538432 = -144						; size = 4
$T538142 = -144						; size = 4
_value$538163 = -140					; size = 4
_value$538158 = -140					; size = 4
_pStage$531005 = -140					; size = 4
_pGrp$530988 = -140					; size = 4
_fCurOffSet$ = -140					; size = 4
_value$538380 = -133					; size = 1
_value$538351 = -133					; size = 1
_value$538177 = -132					; size = 1
tv1731 = -132						; size = 4
tv1705 = -132						; size = 4
_value$538436 = -132					; size = 4
_value$538414 = -132					; size = 4
_value$538410 = -132					; size = 4
_value$538403 = -132					; size = 4
_value$538389 = -132					; size = 4
_value$538376 = -132					; size = 4
_value$538363 = -132					; size = 4
_value$538371 = -132					; size = 4
$T538335 = -132						; size = 4
_value$538188 = -132					; size = 4
_value$538203 = -132					; size = 4
$T538143 = -132						; size = 4
_dwPreDelay$530998 = -132				; size = 4
_iAniID$530991 = -132					; size = 4
_dwPreDelayTime$ = -132					; size = 4
$T531014 = -128						; size = 48
$T531015 = -80						; size = 48
_szEncEventType$538236 = -32				; size = 11
$T538140 = -32						; size = 12
$T530970 = -32						; size = 12
__$EHRec$ = -12						; size = 12
_pChar$ = 8						; size = 4
?OnSkillStart@ioAreaWeaponControl2Skill@@UAE_NPAVioBaseChar@@@Z PROC ; ioAreaWeaponControl2Skill::OnSkillStart, COMDAT
; _this$ = ecx

; 184  : {

  00000	68 c0 00 00 00	 push	 192			; 000000c0H
  00005	b8 00 00 00 00	 mov	 eax, __ehhandler$?OnSkillStart@ioAreaWeaponControl2Skill@@UAE_NPAVioBaseChar@@@Z
  0000a	e8 00 00 00 00	 call	 __EH_prolog3_GS
  0000f	8b 7d 08	 mov	 edi, DWORD PTR _pChar$[ebp]
  00012	8b d9		 mov	 ebx, ecx

; 323  : 			m_fTicGaugeRateByGrowth = FLOAT1 + ( m_fTicGaugeRateByGrowth/FLOAT100 );

  00014	33 f6		 xor	 esi, esi
  00016	89 b5 6c ff ff
	ff		 mov	 DWORD PTR $T538148[ebp], esi
  0001c	8b 03		 mov	 eax, DWORD PTR [ebx]
  0001e	89 bd 70 ff ff
	ff		 mov	 DWORD PTR _pChar$GSCopy$[ebp], edi
  00024	ff 90 24 01 00
	00		 call	 DWORD PTR [eax+292]
  0002a	84 c0		 test	 al, al
  0002c	0f 84 3f 07 00
	00		 je	 $LN26@OnSkillSta
$LN25@OnSkillSta:

; 185  : 	if( !HasSkillMotion() )
; 186  : 		return false;
; 187  : 
; 188  : 	pChar->SetSkillProtection();

  00032	8b cf		 mov	 ecx, edi
  00034	e8 00 00 00 00	 call	 ?SetSkillProtection@ioBaseChar@@QAEXXZ ; ioBaseChar::SetSkillProtection

; 189  : 
; 190  : 	m_dwEnableSwitchTime = 0;

  00039	89 b3 5c 03 00
	00		 mov	 DWORD PTR [ebx+860], esi

; 191  : 	m_dwEnableSemiSwitchTime = 0;

  0003f	89 b3 64 03 00
	00		 mov	 DWORD PTR [ebx+868], esi

; 192  : 
; 193  : 	if( m_dwSwitchSkill > 0 )

  00045	39 b3 58 03 00
	00		 cmp	 DWORD PTR [ebx+856], esi
  0004b	76 1a		 jbe	 SHORT $LN24@OnSkillSta

; 194  : 		m_dwEnableSwitchTime = FRAMEGETTIME() + m_dwSwitchSkill;

  0004d	ff 15 00 00 00
	00		 call	 DWORD PTR __imp_?GetSingleton@ioFrameTimer@@SAAAV1@XZ
  00053	8b c8		 mov	 ecx, eax
  00055	ff 15 00 00 00
	00		 call	 DWORD PTR __imp_?GetLoopSec@ioFrameTimer@@QBEKXZ
  0005b	03 83 58 03 00
	00		 add	 eax, DWORD PTR [ebx+856]
  00061	89 83 5c 03 00
	00		 mov	 DWORD PTR [ebx+860], eax
$LN24@OnSkillSta:

; 195  : 	if( m_dwSemiSwitchSkill > 0 )

  00067	39 b3 60 03 00
	00		 cmp	 DWORD PTR [ebx+864], esi
  0006d	76 1a		 jbe	 SHORT $LN23@OnSkillSta

; 196  : 		m_dwEnableSemiSwitchTime = FRAMEGETTIME() + m_dwSemiSwitchSkill;

  0006f	ff 15 00 00 00
	00		 call	 DWORD PTR __imp_?GetSingleton@ioFrameTimer@@SAAAV1@XZ
  00075	8b c8		 mov	 ecx, eax
  00077	ff 15 00 00 00
	00		 call	 DWORD PTR __imp_?GetLoopSec@ioFrameTimer@@QBEKXZ
  0007d	03 83 60 03 00
	00		 add	 eax, DWORD PTR [ebx+864]
  00083	89 83 64 03 00
	00		 mov	 DWORD PTR [ebx+868], eax
$LN23@OnSkillSta:

; 197  : 
; 198  : 	m_dwSkillStartTime = FRAMEGETTIME();

  00089	ff 15 00 00 00
	00		 call	 DWORD PTR __imp_?GetSingleton@ioFrameTimer@@SAAAV1@XZ
  0008f	8b c8		 mov	 ecx, eax
  00091	ff 15 00 00 00
	00		 call	 DWORD PTR __imp_?GetLoopSec@ioFrameTimer@@QBEKXZ
  00097	89 85 74 ff ff
	ff		 mov	 DWORD PTR _value$538158[ebp], eax
  0009d	8d 85 74 ff ff
	ff		 lea	 eax, DWORD PTR _value$538158[ebp]
  000a3	50		 push	 eax
  000a4	8d 8b 94 0e 00
	00		 lea	 ecx, DWORD PTR [ebx+3732]
  000aa	e8 00 00 00 00	 call	 ?EncryptValueToPool@?$CEncrypt@K@@AAEXPBD@Z ; CEncrypt<unsigned long>::EncryptValueToPool

; 199  : 
; 200  : 	m_ControlState = RS_NONE;
; 201  : 	m_AreaWeaponState = AS_DELAY;
; 202  : 
; 203  : 	m_dwMotionStartTime = 0;

  000af	8d 85 74 ff ff
	ff		 lea	 eax, DWORD PTR _value$538163[ebp]
  000b5	50		 push	 eax
  000b6	8d 8b a8 02 00
	00		 lea	 ecx, DWORD PTR [ebx+680]
  000bc	89 b3 58 0f 00
	00		 mov	 DWORD PTR [ebx+3928], esi
  000c2	89 b3 5c 0f 00
	00		 mov	 DWORD PTR [ebx+3932], esi
  000c8	89 b5 74 ff ff
	ff		 mov	 DWORD PTR _value$538163[ebp], esi
  000ce	e8 00 00 00 00	 call	 ?EncryptValueToPool@?$CEncrypt@K@@AAEXPBD@Z ; CEncrypt<unsigned long>::EncryptValueToPool

; 204  : 	m_dwLoopStartTime = 0;
; 205  : 	m_dwEndAniStartTime = 0;
; 206  : 
; 207  : 	m_dwProtectTime = 0;
; 208  : 	m_bSetHandMesh = false;
; 209  : 
; 210  : 	m_dwAreaWeaponIndex = 0;
; 211  : 	m_vMoveDir = D3DXVECTOR3( 0.0f, 0.0f, 0.0f );

  000d3	0f 57 c0	 xorps	 xmm0, xmm0
  000d6	89 b3 78 0f 00
	00		 mov	 DWORD PTR [ebx+3960], esi
  000dc	89 b3 94 0f 00
	00		 mov	 DWORD PTR [ebx+3988], esi
  000e2	89 b3 64 0f 00
	00		 mov	 DWORD PTR [ebx+3940], esi
  000e8	89 b3 18 10 00
	00		 mov	 DWORD PTR [ebx+4120], esi
  000ee	f3 0f 11 85 58
	ff ff ff	 movss	 DWORD PTR $T530966[ebp], xmm0
  000f6	f3 0f 11 85 5c
	ff ff ff	 movss	 DWORD PTR $T530966[ebp+4], xmm0
  000fe	f3 0f 11 85 60
	ff ff ff	 movss	 DWORD PTR $T530966[ebp+8], xmm0
  00106	8d bb 5c 10 00
	00		 lea	 edi, DWORD PTR [ebx+4188]
  0010c	8d b5 58 ff ff
	ff		 lea	 esi, DWORD PTR $T530966[ebp]
  00112	a5		 movsd
  00113	a5		 movsd
  00114	a5		 movsd

; 212  : 
; 213  : 	m_fHeight = 0.0f;
; 214  : 	m_bSetUpKey = false;
; 215  : 	m_bSetDownKey = false;
; 216  : 
; 217  : 	SetCameraBuff( pChar );

  00115	8b b5 70 ff ff
	ff		 mov	 esi, DWORD PTR _pChar$GSCopy$[ebp]
  0011b	56		 push	 esi
  0011c	8b cb		 mov	 ecx, ebx
  0011e	c6 83 0a 0f 00
	00 00		 mov	 BYTE PTR [ebx+3850], 0
  00125	f3 0f 11 83 58
	10 00 00	 movss	 DWORD PTR [ebx+4184], xmm0
  0012d	66 c7 83 68 10
	00 00 00 00	 mov	 WORD PTR [ebx+4200], 0
  00136	e8 00 00 00 00	 call	 ?SetCameraBuff@ioSkill@@IAEXPAVioBaseChar@@@Z ; ioSkill::SetCameraBuff

; 218  : 
; 219  : 	// 기본 무기 손에서 제거
; 220  : 	if( m_bUseItemMesh )

  0013b	80 bb 08 0f 00
	00 00		 cmp	 BYTE PTR [ebx+3848], 0
  00142	74 0b		 je	 SHORT $LN22@OnSkillSta

; 221  : 	{
; 222  : 		pChar->ShowWeaponItemMesh( false );

  00144	6a 00		 push	 0
  00146	6a 00		 push	 0
  00148	8b ce		 mov	 ecx, esi
  0014a	e8 00 00 00 00	 call	 ?ShowWeaponItemMesh@ioBaseChar@@QAEX_N0@Z ; ioBaseChar::ShowWeaponItemMesh
$LN22@OnSkillSta:

; 223  : 	}
; 224  : 
; 225  : 	// MagicCircle
; 226  : 	float fCurOffSet = GetOwnerItem()->GetMagicCircleOffSet();

  0014f	8b 83 a4 02 00
	00		 mov	 eax, DWORD PTR [ebx+676]
  00155	f3 0f 10 80 b4
	04 00 00	 movss	 xmm0, DWORD PTR [eax+1204]

; 227  : 	if( fCurOffSet == 0.0f )

  0015d	0f 2e 05 00 00
	00 00		 ucomiss xmm0, DWORD PTR __real@00000000
  00164	9f		 lahf
  00165	f3 0f 11 85 74
	ff ff ff	 movss	 DWORD PTR _fCurOffSet$[ebp], xmm0
  0016d	f6 c4 44	 test	 ah, 68			; 00000044H
  00170	7a 10		 jp	 SHORT $LN21@OnSkillSta

; 228  : 		fCurOffSet = m_fOffSet;

  00172	f3 0f 10 83 cc
	0f 00 00	 movss	 xmm0, DWORD PTR [ebx+4044]
  0017a	f3 0f 11 85 74
	ff ff ff	 movss	 DWORD PTR _fCurOffSet$[ebp], xmm0
$LN21@OnSkillSta:

; 229  : 
; 230  : 	m_vCreatePos = pChar->GetMagicCirclePos( fCurOffSet, m_bCircleNoChangeY );

  00182	8d 85 7c ff ff
	ff		 lea	 eax, DWORD PTR _value$538177[ebp]
  00188	50		 push	 eax
  00189	8d 8b 24 06 00
	00		 lea	 ecx, DWORD PTR [ebx+1572]
  0018f	e8 00 00 00 00	 call	 ?DecryptValueToPool@?$CEncrypt@_N@@QAEXPA_N@Z ; CEncrypt<bool>::DecryptValueToPool
  00194	ff b5 7c ff ff
	ff		 push	 DWORD PTR _value$538177[ebp]
  0019a	f3 0f 10 85 74
	ff ff ff	 movss	 xmm0, DWORD PTR _fCurOffSet$[ebp]
  001a2	51		 push	 ecx
  001a3	8d 45 e0	 lea	 eax, DWORD PTR $T530970[ebp]
  001a6	f3 0f 11 04 24	 movss	 DWORD PTR [esp], xmm0
  001ab	50		 push	 eax
  001ac	8d 8e cc 01 00
	00		 lea	 ecx, DWORD PTR [esi+460]
  001b2	e8 00 00 00 00	 call	 ?GetMagicCirclePos@ioBaseGUISupport@@QBE?AUD3DXVECTOR3@@M_N@Z ; ioBaseGUISupport::GetMagicCirclePos
  001b7	8d bb fc 0f 00
	00		 lea	 edi, DWORD PTR [ebx+4092]
  001bd	8b f0		 mov	 esi, eax
  001bf	a5		 movsd
  001c0	a5		 movsd
  001c1	a5		 movsd

; 231  : 	m_fHeight = m_vCreatePos.y;

  001c2	d9 83 00 10 00
	00		 fld	 DWORD PTR [ebx+4096]
  001c8	d9 9b 58 10 00
	00		 fstp	 DWORD PTR [ebx+4184]

; 232  : 	
; 233  : 	ioMapEffect *pMapEffect = NULL;
; 234  : 	if( m_dwCircleDuration > 0 )
; 235  : 	{
; 236  : 		if( pChar->GetTeam() == TEAM_RED )

  001ce	8b b5 70 ff ff
	ff		 mov	 esi, DWORD PTR _pChar$GSCopy$[ebp]
  001d4	33 ff		 xor	 edi, edi
  001d6	39 bb f4 0f 00
	00		 cmp	 DWORD PTR [ebx+4084], edi
  001dc	0f 86 f7 00 00
	00		 jbe	 $LN14@OnSkillSta
  001e2	8d 85 7c ff ff
	ff		 lea	 eax, DWORD PTR _value$538188[ebp]
  001e8	50		 push	 eax
  001e9	8d 8e 90 00 00
	00		 lea	 ecx, DWORD PTR [esi+144]
  001ef	e8 00 00 00 00	 call	 ?DecryptValueToPool@?$CEncrypt@W4TeamType@@@@QAEXPAW4TeamType@@@Z ; CEncrypt<enum TeamType>::DecryptValueToPool
  001f4	83 bd 7c ff ff
	ff 01		 cmp	 DWORD PTR _value$538188[ebp], 1
  001fb	75 2d		 jne	 SHORT $LN19@OnSkillSta

; 237  : 		{
; 238  : 			pMapEffect = pChar->CreateMapEffectBySkill( m_RedCircle, m_vCreatePos );

  001fd	f3 0f 10 05 00
	00 00 00	 movss	 xmm0, DWORD PTR __real@3f800000
  00205	f3 0f 11 85 58
	ff ff ff	 movss	 DWORD PTR $T538137[ebp], xmm0
  0020d	f3 0f 11 85 5c
	ff ff ff	 movss	 DWORD PTR $T538137[ebp+4], xmm0
  00215	f3 0f 11 85 60
	ff ff ff	 movss	 DWORD PTR $T538137[ebp+8], xmm0
  0021d	8d 85 58 ff ff
	ff		 lea	 eax, DWORD PTR $T538137[ebp]
  00223	8b ce		 mov	 ecx, esi
  00225	e9 99 00 00 00	 jmp	 $LN245@OnSkillSta
$LN19@OnSkillSta:

; 239  : 		}
; 240  : 		else if( pChar->GetTeam() == TEAM_BLUE )

  0022a	8d 85 7c ff ff
	ff		 lea	 eax, DWORD PTR _value$538203[ebp]
  00230	50		 push	 eax
  00231	8d 8e 90 00 00
	00		 lea	 ecx, DWORD PTR [esi+144]
  00237	e8 00 00 00 00	 call	 ?DecryptValueToPool@?$CEncrypt@W4TeamType@@@@QAEXPAW4TeamType@@@Z ; CEncrypt<enum TeamType>::DecryptValueToPool
  0023c	83 bd 7c ff ff
	ff 02		 cmp	 DWORD PTR _value$538203[ebp], 2

; 241  : 		{
; 242  : 			pMapEffect = pChar->CreateMapEffectBySkill( m_BlueCircle, m_vCreatePos );

  00243	8b ce		 mov	 ecx, esi
  00245	75 28		 jne	 SHORT $LN17@OnSkillSta
  00247	f3 0f 10 05 00
	00 00 00	 movss	 xmm0, DWORD PTR __real@3f800000
  0024f	f3 0f 11 85 38
	ff ff ff	 movss	 DWORD PTR $T538138[ebp], xmm0
  00257	f3 0f 11 85 3c
	ff ff ff	 movss	 DWORD PTR $T538138[ebp+4], xmm0
  0025f	f3 0f 11 85 40
	ff ff ff	 movss	 DWORD PTR $T538138[ebp+8], xmm0
  00267	8d 85 38 ff ff
	ff		 lea	 eax, DWORD PTR $T538138[ebp]

; 243  : 		}
; 244  : 		else

  0026d	eb 32		 jmp	 SHORT $LN242@OnSkillSta
$LN17@OnSkillSta:

; 245  : 		{
; 246  : 			if( pChar->GetSingleConvertTeam() == TEAM_BLUE )

  0026f	e8 00 00 00 00	 call	 ?GetSingleConvertTeam@ioBaseChar@@QAE?AW4TeamType@@XZ ; ioBaseChar::GetSingleConvertTeam

; 247  : 				pMapEffect = pChar->CreateMapEffectBySkill( m_BlueCircle, m_vCreatePos );

  00274	f3 0f 10 05 00
	00 00 00	 movss	 xmm0, DWORD PTR __real@3f800000
  0027c	8b ce		 mov	 ecx, esi
  0027e	83 f8 02	 cmp	 eax, 2
  00281	75 2e		 jne	 SHORT $LN15@OnSkillSta
  00283	f3 0f 11 85 48
	ff ff ff	 movss	 DWORD PTR $T538139[ebp], xmm0
  0028b	f3 0f 11 85 4c
	ff ff ff	 movss	 DWORD PTR $T538139[ebp+4], xmm0
  00293	f3 0f 11 85 50
	ff ff ff	 movss	 DWORD PTR $T538139[ebp+8], xmm0
  0029b	8d 85 48 ff ff
	ff		 lea	 eax, DWORD PTR $T538139[ebp]
$LN242@OnSkillSta:
  002a1	50		 push	 eax
  002a2	8d 83 fc 0f 00
	00		 lea	 eax, DWORD PTR [ebx+4092]
  002a8	50		 push	 eax
  002a9	8d 83 e0 0f 00
	00		 lea	 eax, DWORD PTR [ebx+4064]

; 248  : 			else

  002af	eb 20		 jmp	 SHORT $LN244@OnSkillSta
$LN15@OnSkillSta:

; 249  : 				pMapEffect = pChar->CreateMapEffectBySkill( m_RedCircle, m_vCreatePos );

  002b1	f3 0f 11 45 e0	 movss	 DWORD PTR $T538140[ebp], xmm0
  002b6	f3 0f 11 45 e4	 movss	 DWORD PTR $T538140[ebp+4], xmm0
  002bb	f3 0f 11 45 e8	 movss	 DWORD PTR $T538140[ebp+8], xmm0
  002c0	8d 45 e0	 lea	 eax, DWORD PTR $T538140[ebp]
$LN245@OnSkillSta:
  002c3	50		 push	 eax
  002c4	8d 83 fc 0f 00
	00		 lea	 eax, DWORD PTR [ebx+4092]
  002ca	50		 push	 eax
  002cb	8d 83 d0 0f 00
	00		 lea	 eax, DWORD PTR [ebx+4048]
$LN244@OnSkillSta:
  002d1	50		 push	 eax
  002d2	e8 00 00 00 00	 call	 ?CreateMapEffectBySkill@ioBaseChar@@QAEPAVioMapEffect@@ABVioHashString@@ABUD3DXVECTOR3@@AAU4@@Z ; ioBaseChar::CreateMapEffectBySkill
  002d7	8b f8		 mov	 edi, eax
$LN14@OnSkillSta:

; 250  : 		}
; 251  : 	}
; 252  : 
; 253  : 	DWORD dwPreDelayTime = GetPreDelayTime();

  002d9	8b 03		 mov	 eax, DWORD PTR [ebx]
  002db	8b cb		 mov	 ecx, ebx
  002dd	ff 90 34 01 00
	00		 call	 DWORD PTR [eax+308]
  002e3	89 85 7c ff ff
	ff		 mov	 DWORD PTR _dwPreDelayTime$[ebp], eax

; 254  : 
; 255  : 	if( pMapEffect )

  002e9	85 ff		 test	 edi, edi
  002eb	74 2d		 je	 SHORT $LN13@OnSkillSta

; 256  : 	{
; 257  : 		m_dwCurMapEffect = pMapEffect->GetUniqueID();

  002ed	8b cf		 mov	 ecx, edi
  002ef	e8 00 00 00 00	 call	 ?GetUniqueID@ioMapEffect@@QBEKXZ ; ioMapEffect::GetUniqueID
  002f4	89 83 f0 0f 00
	00		 mov	 DWORD PTR [ebx+4080], eax

; 258  : 		m_dwCircleEnd = FRAMEGETTIME() + dwPreDelayTime + m_dwCircleDuration;

  002fa	ff 15 00 00 00
	00		 call	 DWORD PTR __imp_?GetSingleton@ioFrameTimer@@SAAAV1@XZ
  00300	8b c8		 mov	 ecx, eax
  00302	ff 15 00 00 00
	00		 call	 DWORD PTR __imp_?GetLoopSec@ioFrameTimer@@QBEKXZ
  00308	03 83 f4 0f 00
	00		 add	 eax, DWORD PTR [ebx+4084]
  0030e	03 85 7c ff ff
	ff		 add	 eax, DWORD PTR _dwPreDelayTime$[ebp]
  00314	89 83 f8 0f 00
	00		 mov	 DWORD PTR [ebx+4088], eax
$LN13@OnSkillSta:

; 259  : 	}
; 260  : 
; 261  : 
; 262  : 	if( !StartPreDelayAnimation( pChar ) )	// Delay Animation이 없다

  0031a	8b 03		 mov	 eax, DWORD PTR [ebx]
  0031c	56		 push	 esi
  0031d	8b cb		 mov	 ecx, ebx
  0031f	ff 90 88 01 00
	00		 call	 DWORD PTR [eax+392]
  00325	84 c0		 test	 al, al
  00327	75 1f		 jne	 SHORT $LN12@OnSkillSta

; 263  : 	{
; 264  : 		m_dwPreDelayStartTime = 0;
; 265  : 		EndPreDelayEffect( pChar );

  00329	8b 03		 mov	 eax, DWORD PTR [ebx]
  0032b	83 a3 20 02 00
	00 00		 and	 DWORD PTR [ebx+544], 0
  00332	56		 push	 esi
  00333	8b cb		 mov	 ecx, ebx
  00335	ff 90 dc 00 00
	00		 call	 DWORD PTR [eax+220]

; 266  : 		SetActionState( pChar );

  0033b	56		 push	 esi
  0033c	8b cb		 mov	 ecx, ebx
  0033e	e8 00 00 00 00	 call	 ?SetActionState@ioAreaWeaponControl2Skill@@IAEXPAVioBaseChar@@@Z ; ioAreaWeaponControl2Skill::SetActionState

; 267  : 	}
; 268  : 	else

  00343	e9 45 01 00 00	 jmp	 $LN6@OnSkillSta
$LN12@OnSkillSta:

; 269  : 	{
; 270  : 		DWORD dwTrackingTime = 0;
; 271  : 		ioEntityGroup *pGrp = pChar->GetGroup();

  00348	8b 46 04	 mov	 eax, DWORD PTR [esi+4]
  0034b	33 ff		 xor	 edi, edi
  0034d	89 85 74 ff ff
	ff		 mov	 DWORD PTR _pGrp$530988[ebp], eax

; 272  : 		if( pGrp )

  00353	85 c0		 test	 eax, eax
  00355	0f 84 e5 00 00
	00		 je	 $LN10@OnSkillSta

; 273  : 		{
; 274  : 			ioHashString szPreDelay = GetPreDelayAniName();

  0035b	8b 03		 mov	 eax, DWORD PTR [ebx]
  0035d	8b cb		 mov	 ecx, ebx
  0035f	ff 90 30 01 00
	00		 call	 DWORD PTR [eax+304]
  00365	50		 push	 eax
  00366	8d 8d 34 ff ff
	ff		 lea	 ecx, DWORD PTR _szPreDelay$530990[ebp]
  0036c	ff 15 00 00 00
	00		 call	 DWORD PTR __imp_??0ioHashString@@QAE@ABV0@@Z

; 275  : 
; 276  : 			int iAniID = pGrp->GetAnimationIdx( szPreDelay );

  00372	8b 8d 74 ff ff
	ff		 mov	 ecx, DWORD PTR _pGrp$530988[ebp]
  00378	21 7d fc	 and	 DWORD PTR __$EHRec$[ebp+8], edi
  0037b	8d 85 34 ff ff
	ff		 lea	 eax, DWORD PTR _szPreDelay$530990[ebp]
  00381	50		 push	 eax
  00382	ff 15 00 00 00
	00		 call	 DWORD PTR __imp_?GetAnimationIdx@ioEntityGroup@@QAEHABVioHashString@@@Z
  00388	89 85 7c ff ff
	ff		 mov	 DWORD PTR _iAniID$530991[ebp], eax

; 277  : 			if( iAniID != -1 )

  0038e	83 f8 ff	 cmp	 eax, -1
  00391	0f 84 99 00 00
	00		 je	 $LN9@OnSkillSta

; 278  : 				dwTrackingTime = pGrp->GetAnimationEventTime_e( iAniID, "tracking_e" );

  00397	6a 02		 push	 2
  00399	c7 45 e0 99 9e
	8a 89		 mov	 DWORD PTR _szEncEventType$538236[ebp], -1987404135 ; 898a9e99H
  003a0	c7 45 e4 86 85
	85 8d		 mov	 DWORD PTR _szEncEventType$538236[ebp+4], -1920629370 ; 8d858586H
  003a7	66 c7 45 e8 b2
	89		 mov	 WORD PTR _szEncEventType$538236[ebp+8], 35250 ; 000089b2H
  003ad	8d 45 e0	 lea	 eax, DWORD PTR _szEncEventType$538236[ebp]
  003b0	c6 45 ea 00	 mov	 BYTE PTR _szEncEventType$538236[ebp+10], 0
  003b4	59		 pop	 ecx
$LL171@OnSkillSta:
  003b5	81 30 ed ec eb
	ea		 xor	 DWORD PTR [eax], -353637139 ; eaebecedH
  003bb	83 c0 04	 add	 eax, 4
  003be	49		 dec	 ecx
  003bf	75 f4		 jne	 SHORT $LL171@OnSkillSta
  003c1	6a 08		 push	 8
  003c3	5f		 pop	 edi
$LL168@OnSkillSta:
  003c4	8b c7		 mov	 eax, edi
  003c6	25 03 00 00 80	 and	 eax, -2147483645	; 80000003H
  003cb	79 05		 jns	 SHORT $LN236@OnSkillSta
  003cd	48		 dec	 eax
  003ce	83 c8 fc	 or	 eax, -4			; fffffffcH
  003d1	40		 inc	 eax
$LN236@OnSkillSta:
  003d2	b1 ed		 mov	 cl, -19			; ffffffedH
  003d4	2a c8		 sub	 cl, al
  003d6	30 4c 3d e0	 xor	 BYTE PTR _szEncEventType$538236[ebp+edi], cl
  003da	47		 inc	 edi
  003db	83 ff 0a	 cmp	 edi, 10			; 0000000aH
  003de	7c e4		 jl	 SHORT $LL168@OnSkillSta
  003e0	8d 45 e0	 lea	 eax, DWORD PTR _szEncEventType$538236[ebp]
  003e3	50		 push	 eax
  003e4	8d 8d 44 ff ff
	ff		 lea	 ecx, DWORD PTR $T538336[ebp]
  003ea	ff 15 00 00 00
	00		 call	 DWORD PTR __imp_??0ioHashString@@QAE@PBD@Z
  003f0	8b 8d 74 ff ff
	ff		 mov	 ecx, DWORD PTR _pGrp$530988[ebp]
  003f6	8d 85 44 ff ff
	ff		 lea	 eax, DWORD PTR $T538336[ebp]
  003fc	50		 push	 eax
  003fd	ff b5 7c ff ff
	ff		 push	 DWORD PTR _iAniID$530991[ebp]
  00403	c6 45 fc 01	 mov	 BYTE PTR __$EHRec$[ebp+8], 1
  00407	ff 15 00 00 00
	00		 call	 DWORD PTR __imp_?GetAnimationEventTime@ioEntityGroup@@QAEMHABVioHashString@@@Z
  0040d	d9 9d 7c ff ff
	ff		 fstp	 DWORD PTR $T538335[ebp]
  00413	8d 8d 44 ff ff
	ff		 lea	 ecx, DWORD PTR $T538336[ebp]
  00419	c6 45 fc 00	 mov	 BYTE PTR __$EHRec$[ebp+8], 0
  0041d	ff 15 00 00 00
	00		 call	 DWORD PTR __imp_??1ioHashString@@QAE@XZ
  00423	d9 85 7c ff ff
	ff		 fld	 DWORD PTR $T538335[ebp]
  00429	e8 00 00 00 00	 call	 __ftol2
  0042e	8b f8		 mov	 edi, eax
$LN9@OnSkillSta:

; 279  : 		}

  00430	83 4d fc ff	 or	 DWORD PTR __$EHRec$[ebp+8], -1
  00434	8d 8d 34 ff ff
	ff		 lea	 ecx, DWORD PTR _szPreDelay$530990[ebp]
  0043a	ff 15 00 00 00
	00		 call	 DWORD PTR __imp_??1ioHashString@@QAE@XZ
$LN10@OnSkillSta:

; 280  : 
; 281  : 		DWORD dwPreDelay = GetPreDelayTime();

  00440	8b 03		 mov	 eax, DWORD PTR [ebx]
  00442	8b cb		 mov	 ecx, ebx
  00444	ff 90 34 01 00
	00		 call	 DWORD PTR [eax+308]
  0044a	89 85 7c ff ff
	ff		 mov	 DWORD PTR _dwPreDelay$530998[ebp], eax

; 282  : 
; 283  : 		if( dwTrackingTime > 0 )
; 284  : 			dwTrackingTime += FRAMEGETTIME();

  00450	ff 15 00 00 00
	00		 call	 DWORD PTR __imp_?GetSingleton@ioFrameTimer@@SAAAV1@XZ
  00456	8b c8		 mov	 ecx, eax
  00458	ff 15 00 00 00
	00		 call	 DWORD PTR __imp_?GetLoopSec@ioFrameTimer@@QBEKXZ
  0045e	85 ff		 test	 edi, edi
  00460	74 04		 je	 SHORT $LN8@OnSkillSta
  00462	03 f8		 add	 edi, eax

; 285  : 		else

  00464	eb 08		 jmp	 SHORT $LN7@OnSkillSta
$LN8@OnSkillSta:

; 286  : 			dwTrackingTime = FRAMEGETTIME() + dwPreDelay;

  00466	8b f8		 mov	 edi, eax
  00468	03 bd 7c ff ff
	ff		 add	 edi, DWORD PTR _dwPreDelay$530998[ebp]
$LN7@OnSkillSta:

; 287  : 
; 288  : 		if( IsUseAutoTargetValue() )

  0046e	8b 03		 mov	 eax, DWORD PTR [ebx]
  00470	8b cb		 mov	 ecx, ebx
  00472	ff 90 e0 00 00
	00		 call	 DWORD PTR [eax+224]
  00478	84 c0		 test	 al, al
  0047a	74 11		 je	 SHORT $LN6@OnSkillSta

; 289  : 		{
; 290  : 			pChar->SetAutoTarget( ATT_SKILL );

  0047c	6a 04		 push	 4
  0047e	8b ce		 mov	 ecx, esi
  00480	e8 00 00 00 00	 call	 ?SetAutoTarget@ioBaseChar@@QAEXW4AutoTargetType@@@Z ; ioBaseChar::SetAutoTarget

; 291  : 			pChar->SetAutoTargetTrackingEndTime( dwTrackingTime );

  00485	57		 push	 edi
  00486	8b ce		 mov	 ecx, esi
  00488	e8 00 00 00 00	 call	 ?SetAutoTargetTrackingEndTime@ioBaseChar@@QAEXK@Z ; ioBaseChar::SetAutoTargetTrackingEndTime
$LN6@OnSkillSta:

; 292  : 		}
; 293  : 	}
; 294  : 
; 295  : 	CheckSkillDesc( pChar );

  0048d	56		 push	 esi
  0048e	8b cb		 mov	 ecx, ebx
  00490	e8 00 00 00 00	 call	 ?CheckSkillDesc@ioSkill@@IAEXPAVioBaseChar@@@Z ; ioSkill::CheckSkillDesc

; 296  : 
; 297  : 	if( m_bInitJumpPower )

  00495	8d 85 7b ff ff
	ff		 lea	 eax, DWORD PTR _value$538351[ebp]
  0049b	50		 push	 eax
  0049c	8d 8b f4 05 00
	00		 lea	 ecx, DWORD PTR [ebx+1524]
  004a2	e8 00 00 00 00	 call	 ?DecryptValueToPool@?$CEncrypt@_N@@QAEXPA_N@Z ; CEncrypt<bool>::DecryptValueToPool
  004a7	80 bd 7b ff ff
	ff 00		 cmp	 BYTE PTR _value$538351[ebp], 0
  004ae	74 25		 je	 SHORT $LN180@OnSkillSta

; 298  : 	{
; 299  : 		pChar->SetCurJumpPowerAmt( 0.0f );

  004b0	0f 57 c0	 xorps	 xmm0, xmm0

; 300  : 		pChar->SetGravityAmt( 0.0f );

  004b3	8d 85 7c ff ff
	ff		 lea	 eax, DWORD PTR _value$538363[ebp]
  004b9	50		 push	 eax
  004ba	8d 8e e8 0b 00
	00		 lea	 ecx, DWORD PTR [esi+3048]
  004c0	f3 0f 11 86 90
	0e 00 00	 movss	 DWORD PTR [esi+3728], xmm0
  004c8	f3 0f 11 85 7c
	ff ff ff	 movss	 DWORD PTR _value$538363[ebp], xmm0
  004d0	e8 00 00 00 00	 call	 ?EncryptValueToPool@?$CEncrypt@M@@AAEXPBD@Z ; CEncrypt<float>::EncryptValueToPool
$LN180@OnSkillSta:

; 301  : 	}
; 302  : 
; 303  : 	SetSkillNameChatBubble( pChar );

  004d5	56		 push	 esi
  004d6	8b cb		 mov	 ecx, ebx
  004d8	e8 00 00 00 00	 call	 ?SetSkillNameChatBubble@ioSkill@@IAEXPAVioBaseChar@@@Z ; ioSkill::SetSkillNameChatBubble

; 304  : 
; 305  : 	// 스킬 게이지
; 306  : 	m_dwCheckTime			= FRAMEGETTIME();

  004dd	ff 15 00 00 00
	00		 call	 DWORD PTR __imp_?GetSingleton@ioFrameTimer@@SAAAV1@XZ
  004e3	8b c8		 mov	 ecx, eax
  004e5	ff 15 00 00 00
	00		 call	 DWORD PTR __imp_?GetLoopSec@ioFrameTimer@@QBEKXZ
  004eb	89 83 fc 10 00
	00		 mov	 DWORD PTR [ebx+4348], eax

; 307  : 	m_fTicGaugeRateByGrowth	= FLOAT1;

  004f1	b8 01 00 00 00	 mov	 eax, 1
  004f6	89 85 64 ff ff
	ff		 mov	 DWORD PTR tv1743[ebp], eax
  004fc	db 85 64 ff ff
	ff		 fild	 DWORD PTR tv1743[ebp]
  00502	85 c0		 test	 eax, eax
  00504	79 06		 jns	 SHORT $LN237@OnSkillSta
  00506	d8 05 00 00 00
	00		 fadd	 DWORD PTR __real@4f800000
$LN237@OnSkillSta:
  0050c	8d 85 7c ff ff
	ff		 lea	 eax, DWORD PTR _value$538371[ebp]
  00512	d9 9d 7c ff ff
	ff		 fstp	 DWORD PTR _value$538371[ebp]
  00518	8d bb 00 11 00
	00		 lea	 edi, DWORD PTR [ebx+4352]
  0051e	50		 push	 eax
  0051f	8b cf		 mov	 ecx, edi
  00521	e8 00 00 00 00	 call	 ?EncryptValueToPool@?$CEncrypt@M@@AAEXPBD@Z ; CEncrypt<float>::EncryptValueToPool

; 308  : 	m_dwTicTimeByGrowth		= 0;

  00526	83 a5 7c ff ff
	ff 00		 and	 DWORD PTR _value$538376[ebp], 0
  0052d	8d 85 7c ff ff
	ff		 lea	 eax, DWORD PTR _value$538376[ebp]
  00533	8d 8b 30 11 00
	00		 lea	 ecx, DWORD PTR [ebx+4400]
  00539	50		 push	 eax
  0053a	89 8d 64 ff ff
	ff		 mov	 DWORD PTR tv1607[ebp], ecx
  00540	e8 00 00 00 00	 call	 ?EncryptValueToPool@?$CEncrypt@K@@AAEXPBD@Z ; CEncrypt<unsigned long>::EncryptValueToPool

; 309  : 
; 310  : 	// 성장관련 요소 추가.
; 311  : 	if( !m_bDisableGrowth )

  00545	8d 85 7b ff ff
	ff		 lea	 eax, DWORD PTR _value$538380[ebp]
  0054b	50		 push	 eax
  0054c	8d 8b 6c 10 00
	00		 lea	 ecx, DWORD PTR [ebx+4204]
  00552	e8 00 00 00 00	 call	 ?DecryptValueToPool@?$CEncrypt@_N@@QAEXPA_N@Z ; CEncrypt<bool>::DecryptValueToPool
  00557	80 bd 7b ff ff
	ff 00		 cmp	 BYTE PTR _value$538380[ebp], 0
  0055e	0f 85 0b 02 00
	00		 jne	 $LN1@OnSkillSta

; 312  : 	{
; 313  : 		ioPlayStage *pStage = pChar->GetCreator();

  00564	8b 86 44 03 00
	00		 mov	 eax, DWORD PTR [esi+836]
  0056a	89 85 74 ff ff
	ff		 mov	 DWORD PTR _pStage$531005[ebp], eax

; 314  : 		if( pStage )

  00570	85 c0		 test	 eax, eax
  00572	0f 84 f7 01 00
	00		 je	 $LN1@OnSkillSta

; 315  : 		{
; 316  : 			ioGrowthNormalUpInfo *pUpInfo = NULL;
; 317  : 
; 318  : 			pUpInfo = ToNormalUpInfo( GetGrowthUpInfoByType(GT_SKILL_COOL_TIME, pChar->GetCharName()) );

  00578	81 c6 d4 02 00
	00		 add	 esi, 724		; 000002d4H
  0057e	56		 push	 esi
  0057f	6a 08		 push	 8
  00581	8b cb		 mov	 ecx, ebx
  00583	89 b5 54 ff ff
	ff		 mov	 DWORD PTR tv1614[ebp], esi
  00589	e8 00 00 00 00	 call	 ?GetGrowthUpInfoByType@ioSkill@@QAEPAVioGrowthUpInfo@@HABVioHashString@@@Z ; ioSkill::GetGrowthUpInfoByType
  0058e	50		 push	 eax
  0058f	e8 00 00 00 00	 call	 ?ToNormalUpInfo@@YAPAVioGrowthNormalUpInfo@@PAVioGrowthUpInfo@@@Z ; ToNormalUpInfo
  00594	59		 pop	 ecx

; 319  : 			if( pUpInfo )

  00595	85 c0		 test	 eax, eax
  00597	74 21		 je	 SHORT $LN194@OnSkillSta

; 320  : 				m_fTicGaugeRateByGrowth = pUpInfo->GetValue(pStage);

  00599	ff b5 74 ff ff
	ff		 push	 DWORD PTR _pStage$531005[ebp]
  0059f	8b c8		 mov	 ecx, eax
  005a1	e8 00 00 00 00	 call	 ?GetValue@ioGrowthNormalUpInfo@@QAEMPAVioPlayStage@@@Z ; ioGrowthNormalUpInfo::GetValue
  005a6	d9 9d 7c ff ff
	ff		 fstp	 DWORD PTR _value$538389[ebp]
  005ac	8d 85 7c ff ff
	ff		 lea	 eax, DWORD PTR _value$538389[ebp]
  005b2	50		 push	 eax
  005b3	8b cf		 mov	 ecx, edi
  005b5	e8 00 00 00 00	 call	 ?EncryptValueToPool@?$CEncrypt@M@@AAEXPBD@Z ; CEncrypt<float>::EncryptValueToPool
$LN194@OnSkillSta:

; 321  : 
; 322  : 			m_fTicGaugeRateByGrowth = min( m_fTicGaugeRateByGrowth, FLOAT100 );

  005ba	b8 64 00 00 00	 mov	 eax, 100		; 00000064H
  005bf	89 85 7c ff ff
	ff		 mov	 DWORD PTR tv1731[ebp], eax
  005c5	db 85 7c ff ff
	ff		 fild	 DWORD PTR tv1731[ebp]
  005cb	85 c0		 test	 eax, eax
  005cd	79 06		 jns	 SHORT $LN238@OnSkillSta
  005cf	d8 05 00 00 00
	00		 fadd	 DWORD PTR __real@4f800000
$LN238@OnSkillSta:
  005d5	8d 85 7c ff ff
	ff		 lea	 eax, DWORD PTR _value$538403[ebp]
  005db	d9 9d 70 ff ff
	ff		 fstp	 DWORD PTR $T538142[ebp]
  005e1	50		 push	 eax
  005e2	8b cf		 mov	 ecx, edi
  005e4	e8 00 00 00 00	 call	 ?DecryptValueToPool@?$CEncrypt@M@@QAEXPAM@Z ; CEncrypt<float>::DecryptValueToPool
  005e9	d9 85 7c ff ff
	ff		 fld	 DWORD PTR _value$538403[ebp]
  005ef	d9 85 70 ff ff
	ff		 fld	 DWORD PTR $T538142[ebp]
  005f5	df f1		 fcomip	 ST(1)
  005f7	dd d8		 fstp	 ST(0)
  005f9	76 1c		 jbe	 SHORT $LN28@OnSkillSta
  005fb	57		 push	 edi
  005fc	8d 4d 80	 lea	 ecx, DWORD PTR $T531014[ebp]
  005ff	e8 00 00 00 00	 call	 ??0?$CEncrypt@M@@QAE@ABV0@@Z ; CEncrypt<float>::CEncrypt<float>
  00604	c7 45 fc 02 00
	00 00		 mov	 DWORD PTR __$EHRec$[ebp+8], 2
  0060b	c7 85 6c ff ff
	ff 01 00 00 00	 mov	 DWORD PTR $T538148[ebp], 1
  00615	eb 41		 jmp	 SHORT $LN29@OnSkillSta
$LN28@OnSkillSta:
  00617	b8 64 00 00 00	 mov	 eax, 100		; 00000064H
  0061c	89 85 68 ff ff
	ff		 mov	 DWORD PTR tv1721[ebp], eax
  00622	db 85 68 ff ff
	ff		 fild	 DWORD PTR tv1721[ebp]
  00628	85 c0		 test	 eax, eax
  0062a	79 06		 jns	 SHORT $LN239@OnSkillSta
  0062c	d8 05 00 00 00
	00		 fadd	 DWORD PTR __real@4f800000
$LN239@OnSkillSta:
  00632	8d 85 7c ff ff
	ff		 lea	 eax, DWORD PTR $T538143[ebp]
  00638	d9 9d 7c ff ff
	ff		 fstp	 DWORD PTR $T538143[ebp]
  0063e	50		 push	 eax
  0063f	8d 4d b0	 lea	 ecx, DWORD PTR $T531015[ebp]
  00642	e8 00 00 00 00	 call	 ??0?$CEncrypt@M@@QAE@ABM@Z ; CEncrypt<float>::CEncrypt<float>
  00647	c7 45 fc 03 00
	00 00		 mov	 DWORD PTR __$EHRec$[ebp+8], 3
  0064e	c7 85 6c ff ff
	ff 02 00 00 00	 mov	 DWORD PTR $T538148[ebp], 2
$LN29@OnSkillSta:
  00658	8d 8d 7c ff ff
	ff		 lea	 ecx, DWORD PTR _value$538410[ebp]
  0065e	51		 push	 ecx
  0065f	8b c8		 mov	 ecx, eax
  00661	e8 00 00 00 00	 call	 ?DecryptValueToPool@?$CEncrypt@M@@QAEXPAM@Z ; CEncrypt<float>::DecryptValueToPool
  00666	f3 0f 10 85 7c
	ff ff ff	 movss	 xmm0, DWORD PTR _value$538410[ebp]
  0066e	8d 85 7c ff ff
	ff		 lea	 eax, DWORD PTR _value$538414[ebp]
  00674	50		 push	 eax
  00675	8b cf		 mov	 ecx, edi
  00677	f3 0f 11 85 7c
	ff ff ff	 movss	 DWORD PTR _value$538414[ebp], xmm0
  0067f	e8 00 00 00 00	 call	 ?EncryptValueToPool@?$CEncrypt@M@@AAEXPBD@Z ; CEncrypt<float>::EncryptValueToPool
  00684	f6 85 6c ff ff
	ff 02		 test	 BYTE PTR $T538148[ebp], 2
  0068b	c7 45 fc 02 00
	00 00		 mov	 DWORD PTR __$EHRec$[ebp+8], 2
  00692	be 00 00 00 00	 mov	 esi, OFFSET ??_7?$CEncrypt@M@@6B@
  00697	74 12		 je	 SHORT $LN35@OnSkillSta
  00699	83 a5 6c ff ff
	ff fd		 and	 DWORD PTR $T538148[ebp], -3 ; fffffffdH
  006a0	8d 4d bc	 lea	 ecx, DWORD PTR $T531015[ebp+12]
  006a3	89 75 b0	 mov	 DWORD PTR $T531015[ebp], esi
  006a6	e8 00 00 00 00	 call	 ??1ccddaabb@@UAE@XZ	; ccddaabb::~ccddaabb
$LN35@OnSkillSta:
  006ab	83 4d fc ff	 or	 DWORD PTR __$EHRec$[ebp+8], -1
  006af	f6 85 6c ff ff
	ff 01		 test	 BYTE PTR $T538148[ebp], 1
  006b6	74 0b		 je	 SHORT $LN36@OnSkillSta
  006b8	8d 4d 8c	 lea	 ecx, DWORD PTR $T531014[ebp+12]
  006bb	89 75 80	 mov	 DWORD PTR $T531014[ebp], esi
  006be	e8 00 00 00 00	 call	 ??1ccddaabb@@UAE@XZ	; ccddaabb::~ccddaabb
$LN36@OnSkillSta:

; 323  : 			m_fTicGaugeRateByGrowth = FLOAT1 + ( m_fTicGaugeRateByGrowth/FLOAT100 );

  006c3	b8 64 00 00 00	 mov	 eax, 100		; 00000064H
  006c8	8b f0		 mov	 esi, eax
  006ca	b8 01 00 00 00	 mov	 eax, 1
  006cf	89 85 70 ff ff
	ff		 mov	 DWORD PTR $T538432[ebp], eax
  006d5	8d 85 7c ff ff
	ff		 lea	 eax, DWORD PTR _value$538436[ebp]
  006db	50		 push	 eax
  006dc	8b cf		 mov	 ecx, edi
  006de	e8 00 00 00 00	 call	 ?DecryptValueToPool@?$CEncrypt@M@@QAEXPAM@Z ; CEncrypt<float>::DecryptValueToPool
  006e3	d9 85 7c ff ff
	ff		 fld	 DWORD PTR _value$538436[ebp]
  006e9	89 b5 68 ff ff
	ff		 mov	 DWORD PTR tv1709[ebp], esi
  006ef	db 85 68 ff ff
	ff		 fild	 DWORD PTR tv1709[ebp]
  006f5	85 f6		 test	 esi, esi
  006f7	79 06		 jns	 SHORT $LN240@OnSkillSta
  006f9	d8 05 00 00 00
	00		 fadd	 DWORD PTR __real@4f800000
$LN240@OnSkillSta:
  006ff	de f9		 fdivp	 ST(1), ST(0)
  00701	8b 85 70 ff ff
	ff		 mov	 eax, DWORD PTR $T538432[ebp]
  00707	d9 9d 7c ff ff
	ff		 fstp	 DWORD PTR tv1705[ebp]
  0070d	d9 85 7c ff ff
	ff		 fld	 DWORD PTR tv1705[ebp]
  00713	db 85 70 ff ff
	ff		 fild	 DWORD PTR $T538432[ebp]
  00719	85 c0		 test	 eax, eax
  0071b	79 06		 jns	 SHORT $LN241@OnSkillSta
  0071d	d8 05 00 00 00
	00		 fadd	 DWORD PTR __real@4f800000
$LN241@OnSkillSta:
  00723	de c1		 faddp	 ST(1), ST(0)
  00725	8d 85 68 ff ff
	ff		 lea	 eax, DWORD PTR _value$538439[ebp]
  0072b	50		 push	 eax
  0072c	8b cf		 mov	 ecx, edi
  0072e	d9 9d 68 ff ff
	ff		 fstp	 DWORD PTR _value$538439[ebp]
  00734	e8 00 00 00 00	 call	 ?EncryptValueToPool@?$CEncrypt@M@@AAEXPBD@Z ; CEncrypt<float>::EncryptValueToPool

; 324  : 
; 325  : 
; 326  : 			pUpInfo = ToNormalUpInfo( GetGrowthUpInfoByType(GT_BUFF_TIC_TIME, pChar->GetCharName()) );

  00739	ff b5 54 ff ff
	ff		 push	 DWORD PTR tv1614[ebp]
  0073f	8b cb		 mov	 ecx, ebx
  00741	6a 10		 push	 16			; 00000010H
  00743	e8 00 00 00 00	 call	 ?GetGrowthUpInfoByType@ioSkill@@QAEPAVioGrowthUpInfo@@HABVioHashString@@@Z ; ioSkill::GetGrowthUpInfoByType
  00748	50		 push	 eax
  00749	e8 00 00 00 00	 call	 ?ToNormalUpInfo@@YAPAVioGrowthNormalUpInfo@@PAVioGrowthUpInfo@@@Z ; ToNormalUpInfo
  0074e	59		 pop	 ecx

; 327  : 			if( pUpInfo )

  0074f	85 c0		 test	 eax, eax
  00751	74 1c		 je	 SHORT $LN1@OnSkillSta

; 328  : 				m_dwTicTimeByGrowth = pUpInfo->GetValue(pStage);			

  00753	ff b5 74 ff ff
	ff		 push	 DWORD PTR _pStage$531005[ebp]
  00759	8b c8		 mov	 ecx, eax
  0075b	e8 00 00 00 00	 call	 ?GetValue@ioGrowthNormalUpInfo@@QAEMPAVioPlayStage@@@Z ; ioGrowthNormalUpInfo::GetValue
  00760	51		 push	 ecx
  00761	8b 8d 64 ff ff
	ff		 mov	 ecx, DWORD PTR tv1607[ebp]
  00767	d9 1c 24	 fstp	 DWORD PTR [esp]
  0076a	e8 00 00 00 00	 call	 ??4?$CEncrypt@K@@QAEKM@Z ; CEncrypt<unsigned long>::operator=
$LN1@OnSkillSta:

; 329  : 		}
; 330  : 	}
; 331  : 
; 332  : 	return true;

  0076f	b0 01		 mov	 al, 1
$LN26@OnSkillSta:

; 333  : }

  00771	e8 00 00 00 00	 call	 __EH_epilog3_GS
  00776	c2 04 00	 ret	 4
_TEXT	ENDS
;	COMDAT text$x
text$x	SEGMENT
__unwindfunclet$?OnSkillStart@ioAreaWeaponControl2Skill@@UAE_NPAVioBaseChar@@@Z$0:
  00000	8d 8d 34 ff ff
	ff		 lea	 ecx, DWORD PTR _szPreDelay$530990[ebp]
  00006	ff 25 00 00 00
	00		 jmp	 DWORD PTR __imp_??1ioHashString@@QAE@XZ
__unwindfunclet$?OnSkillStart@ioAreaWeaponControl2Skill@@UAE_NPAVioBaseChar@@@Z$3:
  0000c	8d 8d 44 ff ff
	ff		 lea	 ecx, DWORD PTR $T538336[ebp]
  00012	ff 25 00 00 00
	00		 jmp	 DWORD PTR __imp_??1ioHashString@@QAE@XZ
__unwindfunclet$?OnSkillStart@ioAreaWeaponControl2Skill@@UAE_NPAVioBaseChar@@@Z$1:
  00018	8b 85 6c ff ff
	ff		 mov	 eax, DWORD PTR $T538148[ebp]
  0001e	83 e0 01	 and	 eax, 1
  00021	0f 84 0f 00 00
	00		 je	 $LN32@OnSkillSta
  00027	83 a5 6c ff ff
	ff fe		 and	 DWORD PTR $T538148[ebp], -2 ; fffffffeH
  0002e	8d 4d 80	 lea	 ecx, DWORD PTR $T531014[ebp]
  00031	e9 00 00 00 00	 jmp	 ??1?$CEncrypt@M@@UAE@XZ	; CEncrypt<float>::~CEncrypt<float>
$LN32@OnSkillSta:
  00036	c3		 ret	 0
__unwindfunclet$?OnSkillStart@ioAreaWeaponControl2Skill@@UAE_NPAVioBaseChar@@@Z$2:
  00037	8b 85 6c ff ff
	ff		 mov	 eax, DWORD PTR $T538148[ebp]
  0003d	83 e0 02	 and	 eax, 2
  00040	0f 84 0f 00 00
	00		 je	 $LN34@OnSkillSta
  00046	83 a5 6c ff ff
	ff fd		 and	 DWORD PTR $T538148[ebp], -3 ; fffffffdH
  0004d	8d 4d b0	 lea	 ecx, DWORD PTR $T531015[ebp]
  00050	e9 00 00 00 00	 jmp	 ??1?$CEncrypt@M@@UAE@XZ	; CEncrypt<float>::~CEncrypt<float>
$LN34@OnSkillSta:
  00055	c3		 ret	 0
__ehhandler$?OnSkillStart@ioAreaWeaponControl2Skill@@UAE_NPAVioBaseChar@@@Z:
  00056	8b 54 24 08	 mov	 edx, DWORD PTR [esp+8]
  0005a	8d 42 0c	 lea	 eax, DWORD PTR [edx+12]
  0005d	8b 8a 30 ff ff
	ff		 mov	 ecx, DWORD PTR [edx-208]
  00063	33 c8		 xor	 ecx, eax
  00065	e8 00 00 00 00	 call	 @__security_check_cookie@4
  0006a	8b 4a fc	 mov	 ecx, DWORD PTR [edx-4]
  0006d	33 c8		 xor	 ecx, eax
  0006f	e8 00 00 00 00	 call	 @__security_check_cookie@4
  00074	b8 00 00 00 00	 mov	 eax, OFFSET __ehfuncinfo$?OnSkillStart@ioAreaWeaponControl2Skill@@UAE_NPAVioBaseChar@@@Z
  00079	e9 00 00 00 00	 jmp	 ___CxxFrameHandler3
text$x	ENDS
?OnSkillStart@ioAreaWeaponControl2Skill@@UAE_NPAVioBaseChar@@@Z ENDP ; ioAreaWeaponControl2Skill::OnSkillStart
EXTRN	?ReduceNeedGaugeBySkill@ioBaseChar@@QAEMPAVioSkill@@M@Z:PROC ; ioBaseChar::ReduceNeedGaugeBySkill
EXTRN	?GetNeedGauge@ioSkill@@QAEMABVioHashString@@@Z:PROC ; ioSkill::GetNeedGauge
EXTRN	?ReduceCurSkillGaugeBySkill@ioBaseChar@@QAEMPAVioItem@@M@Z:PROC ; ioBaseChar::ReduceCurSkillGaugeBySkill
EXTRN	?DestroyMagicCircle@ioBaseGUISupport@@QAEXXZ:PROC ; ioBaseGUISupport::DestroyMagicCircle
EXTRN	?EndMapEffect@ioBaseChar@@QAEXK_N@Z:PROC	; ioBaseChar::EndMapEffect
; Function compile flags: /Ogsp
;	COMDAT ?OnProcessState@ioAreaWeaponControl2Skill@@UAEXPAVioBaseChar@@PAVioPlayStage@@@Z
_TEXT	SEGMENT
_dwPreDelayTime$ = -20					; size = 4
_value$538504 = -16					; size = 4
_value$538497 = -16					; size = 4
_fCurTicGauge$ = -16					; size = 4
_value$538481 = -12					; size = 4
_value$538489 = -12					; size = 4
_value$538493 = -8					; size = 4
_value$538485 = -8					; size = 4
_dwCurTime$ = -4					; size = 4
_pChar$ = 8						; size = 4
_pStage$ = 12						; size = 4
?OnProcessState@ioAreaWeaponControl2Skill@@UAEXPAVioBaseChar@@PAVioPlayStage@@@Z PROC ; ioAreaWeaponControl2Skill::OnProcessState, COMDAT
; _this$ = ecx

; 336  : {

  00000	55		 push	 ebp
  00001	8b ec		 mov	 ebp, esp
  00003	83 ec 14	 sub	 esp, 20			; 00000014H
  00006	53		 push	 ebx
  00007	56		 push	 esi
  00008	57		 push	 edi
  00009	8b f1		 mov	 esi, ecx

; 337  : 	DWORD dwCurTime = FRAMEGETTIME();

  0000b	ff 15 00 00 00
	00		 call	 DWORD PTR __imp_?GetSingleton@ioFrameTimer@@SAAAV1@XZ
  00011	8b c8		 mov	 ecx, eax
  00013	ff 15 00 00 00
	00		 call	 DWORD PTR __imp_?GetLoopSec@ioFrameTimer@@QBEKXZ
  00019	8b f8		 mov	 edi, eax

; 338  : 	DWORD dwPreDelayTime = GetPreDelayTime();

  0001b	8b 06		 mov	 eax, DWORD PTR [esi]
  0001d	8b ce		 mov	 ecx, esi
  0001f	89 7d fc	 mov	 DWORD PTR _dwCurTime$[ebp], edi
  00022	ff 90 34 01 00
	00		 call	 DWORD PTR [eax+308]
  00028	89 45 ec	 mov	 DWORD PTR _dwPreDelayTime$[ebp], eax

; 339  : 
; 340  : 	float fCurTicGauge = m_fGuagePerTic / m_fTicGaugeRateByGrowth;

  0002b	8d 45 f4	 lea	 eax, DWORD PTR _value$538481[ebp]
  0002e	50		 push	 eax
  0002f	8d 8e 00 11 00
	00		 lea	 ecx, DWORD PTR [esi+4352]
  00035	e8 00 00 00 00	 call	 ?DecryptValueToPool@?$CEncrypt@M@@QAEXPAM@Z ; CEncrypt<float>::DecryptValueToPool
  0003a	8d 45 f8	 lea	 eax, DWORD PTR _value$538485[ebp]
  0003d	50		 push	 eax
  0003e	8d 8e 9c 10 00
	00		 lea	 ecx, DWORD PTR [esi+4252]
  00044	e8 00 00 00 00	 call	 ?DecryptValueToPool@?$CEncrypt@M@@QAEXPAM@Z ; CEncrypt<float>::DecryptValueToPool
  00049	f3 0f 10 45 f8	 movss	 xmm0, DWORD PTR _value$538485[ebp]
  0004e	f3 0f 10 4d f4	 movss	 xmm1, DWORD PTR _value$538481[ebp]

; 341  : 	int iTickGap = (int)( dwCurTime - m_dwCheckTime );

  00053	2b be fc 10 00
	00		 sub	 edi, DWORD PTR [esi+4348]
  00059	0f 5a c0	 cvtps2pd xmm0, xmm0
  0005c	0f 5a c9	 cvtps2pd xmm1, xmm1

; 342  : 	int iCurTicTime = m_dwTicTime + m_dwTicTimeByGrowth;

  0005f	8d 45 f4	 lea	 eax, DWORD PTR _value$538489[ebp]
  00062	f2 0f 5e c1	 divsd	 xmm0, xmm1
  00066	66 0f 5a c0	 cvtpd2ps xmm0, xmm0
  0006a	50		 push	 eax
  0006b	8d 8e 30 11 00
	00		 lea	 ecx, DWORD PTR [esi+4400]
  00071	f3 0f 11 45 f0	 movss	 DWORD PTR _fCurTicGauge$[ebp], xmm0
  00076	e8 00 00 00 00	 call	 ?DecryptValueToPool@?$CEncrypt@K@@QAEXPAK@Z ; CEncrypt<unsigned long>::DecryptValueToPool
  0007b	8d 45 f8	 lea	 eax, DWORD PTR _value$538493[ebp]
  0007e	50		 push	 eax
  0007f	8d 8e cc 10 00
	00		 lea	 ecx, DWORD PTR [esi+4300]
  00085	e8 00 00 00 00	 call	 ?DecryptValueToPool@?$CEncrypt@K@@QAEXPAK@Z ; CEncrypt<unsigned long>::DecryptValueToPool
  0008a	8b 45 f4	 mov	 eax, DWORD PTR _value$538489[ebp]
  0008d	8b 4d f8	 mov	 ecx, DWORD PTR _value$538493[ebp]
  00090	8d 1c 01	 lea	 ebx, DWORD PTR [ecx+eax]

; 343  : 
; 344  : 	// MagicCircle
; 345  : 	if( m_dwCircleEnd > 0 && m_dwCircleEnd < dwCurTime )

  00093	8b 86 f8 0f 00
	00		 mov	 eax, DWORD PTR [esi+4088]
  00099	85 c0		 test	 eax, eax
  0009b	74 2a		 je	 SHORT $LN34@OnProcessS
  0009d	3b 45 fc	 cmp	 eax, DWORD PTR _dwCurTime$[ebp]
  000a0	73 25		 jae	 SHORT $LN34@OnProcessS

; 346  : 	{
; 347  : 		//DestroyMapEffect
; 348  : 		pChar->EndMapEffect( m_dwCurMapEffect );

  000a2	8b 4d 08	 mov	 ecx, DWORD PTR _pChar$[ebp]
  000a5	6a 01		 push	 1
  000a7	ff b6 f0 0f 00
	00		 push	 DWORD PTR [esi+4080]
  000ad	e8 00 00 00 00	 call	 ?EndMapEffect@ioBaseChar@@QAEXK_N@Z ; ioBaseChar::EndMapEffect

; 349  : 		pChar->DestroyMagicCircle();

  000b2	8b 4d 08	 mov	 ecx, DWORD PTR _pChar$[ebp]
  000b5	81 c1 cc 01 00
	00		 add	 ecx, 460		; 000001ccH
  000bb	e8 00 00 00 00	 call	 ?DestroyMagicCircle@ioBaseGUISupport@@QAEXXZ ; ioBaseGUISupport::DestroyMagicCircle

; 350  : 		m_dwCircleEnd = 0;

  000c0	83 a6 f8 0f 00
	00 00		 and	 DWORD PTR [esi+4088], 0
$LN34@OnProcessS:

; 351  : 	}
; 352  : 
; 353  : 	switch( m_ControlState )

  000c7	8b 86 58 0f 00
	00		 mov	 eax, DWORD PTR [esi+3928]
  000cd	83 e8 00	 sub	 eax, 0
  000d0	0f 84 2a 01 00
	00		 je	 $LN12@OnProcessS
  000d6	48		 dec	 eax
  000d7	0f 84 9a 00 00
	00		 je	 $LN10@OnProcessS
  000dd	48		 dec	 eax
  000de	0f 85 4c 01 00
	00		 jne	 $LN11@OnProcessS

; 377  : 	case RS_LOOP:
; 378  : 		// AreaWeapon
; 379  : 		if( iTickGap >= iCurTicTime )

  000e4	3b fb		 cmp	 edi, ebx
  000e6	7c 3a		 jl	 SHORT $LN35@OnProcessS

; 380  : 		{
; 381  : 			m_dwCheckTime = dwCurTime - ( iTickGap - iCurTicTime );
; 382  : 
; 383  : 			if( fCurTicGauge != 0.0f )

  000e8	f3 0f 10 45 f0	 movss	 xmm0, DWORD PTR _fCurTicGauge$[ebp]
  000ed	2b df		 sub	 ebx, edi
  000ef	03 5d fc	 add	 ebx, DWORD PTR _dwCurTime$[ebp]
  000f2	0f 2e 05 00 00
	00 00		 ucomiss xmm0, DWORD PTR __real@00000000
  000f9	9f		 lahf
  000fa	89 9e fc 10 00
	00		 mov	 DWORD PTR [esi+4348], ebx
  00100	f6 c4 44	 test	 ah, 68			; 00000044H
  00103	7b 1d		 jnp	 SHORT $LN35@OnProcessS

; 384  : 			{
; 385  : 				if( pChar->ReduceCurSkillGaugeBySkill( GetOwnerItem(), fCurTicGauge ) <= 0.0f )

  00105	8b 86 a4 02 00
	00		 mov	 eax, DWORD PTR [esi+676]
  0010b	51		 push	 ecx
  0010c	8b 4d 08	 mov	 ecx, DWORD PTR _pChar$[ebp]
  0010f	f3 0f 11 04 24	 movss	 DWORD PTR [esp], xmm0
  00114	50		 push	 eax
  00115	e8 00 00 00 00	 call	 ?ReduceCurSkillGaugeBySkill@ioBaseChar@@QAEMPAVioItem@@M@Z ; ioBaseChar::ReduceCurSkillGaugeBySkill
  0011a	d9 ee		 fldz
  0011c	df f1		 fcomip	 ST(1)
  0011e	dd d8		 fstp	 ST(0)

; 386  : 				{
; 387  : 					SetEndState( pChar );
; 388  : 					return;

  00120	73 46		 jae	 SHORT $LN39@OnProcessS
$LN35@OnProcessS:

; 389  : 				}
; 390  : 			}
; 391  : 		}
; 392  : 
; 393  : 		if( m_dwLoopStartTime > 0 )

  00122	83 be 78 0f 00
	00 00		 cmp	 DWORD PTR [esi+3960], 0
  00129	76 17		 jbe	 SHORT $LN38@OnProcessS

; 394  : 		{
; 395  : 			CheckControl( pChar );

  0012b	ff 75 08	 push	 DWORD PTR _pChar$[ebp]
  0012e	8b ce		 mov	 ecx, esi
  00130	e8 00 00 00 00	 call	 ?CheckControl@ioAreaWeaponControl2Skill@@IAEXPAVioBaseChar@@@Z ; ioAreaWeaponControl2Skill::CheckControl

; 396  : 			ProcessControl( pChar, pStage );

  00135	ff 75 0c	 push	 DWORD PTR _pStage$[ebp]
  00138	8b ce		 mov	 ecx, esi
  0013a	ff 75 08	 push	 DWORD PTR _pChar$[ebp]
  0013d	e8 00 00 00 00	 call	 ?ProcessControl@ioAreaWeaponControl2Skill@@IAEXPAVioBaseChar@@PAVioPlayStage@@@Z ; ioAreaWeaponControl2Skill::ProcessControl
$LN38@OnProcessS:

; 397  : 		}
; 398  : 
; 399  : 		if( m_dwLoopStartTime > 0 && m_dwLoopStartTime+m_dwLoopTime < dwCurTime )

  00142	8b 86 78 0f 00
	00		 mov	 eax, DWORD PTR [esi+3960]
  00148	85 c0		 test	 eax, eax
  0014a	0f 84 e0 00 00
	00		 je	 $LN11@OnProcessS
  00150	8b 8e 7c 0f 00
	00		 mov	 ecx, DWORD PTR [esi+3964]
  00156	03 c8		 add	 ecx, eax
  00158	3b 4d fc	 cmp	 ecx, DWORD PTR _dwCurTime$[ebp]
  0015b	0f 83 cf 00 00
	00		 jae	 $LN11@OnProcessS

; 400  : 		{
; 401  : 			m_dwLoopStartTime = 0;

  00161	83 a6 78 0f 00
	00 00		 and	 DWORD PTR [esi+3960], 0
$LN39@OnProcessS:

; 402  : 			SetEndState( pChar );

  00168	ff 75 08	 push	 DWORD PTR _pChar$[ebp]
  0016b	8b ce		 mov	 ecx, esi
  0016d	e8 00 00 00 00	 call	 ?SetEndState@ioAreaWeaponControl2Skill@@IAEXPAVioBaseChar@@@Z ; ioAreaWeaponControl2Skill::SetEndState

; 403  : 		}
; 404  : 		break;

  00172	e9 b9 00 00 00	 jmp	 $LN11@OnProcessS
$LN10@OnProcessS:

; 361  : 		}
; 362  : 		break;
; 363  : 	case RS_ACTION:
; 364  : 		if( m_dwMotionStartTime > 0 && m_dwMotionEndTime < dwCurTime )

  00177	8d 45 f0	 lea	 eax, DWORD PTR _value$538497[ebp]
  0017a	50		 push	 eax
  0017b	8d 8e a8 02 00
	00		 lea	 ecx, DWORD PTR [esi+680]
  00181	e8 00 00 00 00	 call	 ?DecryptValueToPool@?$CEncrypt@K@@QAEXPAK@Z ; CEncrypt<unsigned long>::DecryptValueToPool
  00186	83 7d f0 00	 cmp	 DWORD PTR _value$538497[ebp], 0
  0018a	0f 86 a0 00 00
	00		 jbe	 $LN11@OnProcessS
  00190	8b 4d fc	 mov	 ecx, DWORD PTR _dwCurTime$[ebp]
  00193	39 8e d8 02 00
	00		 cmp	 DWORD PTR [esi+728], ecx
  00199	0f 83 91 00 00
	00		 jae	 $LN11@OnProcessS

; 365  : 		{
; 366  : 			if( m_dwCreateAreaWeaponTime > 0 && m_dwCreateAreaWeaponTime < dwCurTime )

  0019f	8b 86 4c 10 00
	00		 mov	 eax, DWORD PTR [esi+4172]
  001a5	85 c0		 test	 eax, eax
  001a7	74 35		 je	 SHORT $LN37@OnProcessS
  001a9	3b c1		 cmp	 eax, ecx
  001ab	73 31		 jae	 SHORT $LN37@OnProcessS

; 367  : 			{
; 368  : 				CreateAreaWeapon( pChar, pStage );

  001ad	ff 75 0c	 push	 DWORD PTR _pStage$[ebp]
  001b0	8b 5d 08	 mov	 ebx, DWORD PTR _pChar$[ebp]
  001b3	53		 push	 ebx
  001b4	8b ce		 mov	 ecx, esi
  001b6	e8 00 00 00 00	 call	 ?CreateAreaWeapon@ioAreaWeaponControl2Skill@@IAEXPAVioBaseChar@@PAVioPlayStage@@@Z ; ioAreaWeaponControl2Skill::CreateAreaWeapon

; 369  : 				pChar->ReduceNeedGaugeBySkill( this, GetNeedGauge(pChar->GetCharName()) );

  001bb	8d 83 d4 02 00
	00		 lea	 eax, DWORD PTR [ebx+724]
  001c1	50		 push	 eax
  001c2	8b ce		 mov	 ecx, esi
  001c4	e8 00 00 00 00	 call	 ?GetNeedGauge@ioSkill@@QAEMABVioHashString@@@Z ; ioSkill::GetNeedGauge
  001c9	51		 push	 ecx
  001ca	d9 1c 24	 fstp	 DWORD PTR [esp]
  001cd	56		 push	 esi
  001ce	8b cb		 mov	 ecx, ebx
  001d0	e8 00 00 00 00	 call	 ?ReduceNeedGaugeBySkill@ioBaseChar@@QAEMPAVioSkill@@M@Z ; ioBaseChar::ReduceNeedGaugeBySkill
  001d5	dd d8		 fstp	 ST(0)

; 370  : 				m_bReduceGauge = true;

  001d7	c6 86 50 03 00
	00 01		 mov	 BYTE PTR [esi+848], 1
$LN37@OnProcessS:

; 371  : 			}
; 372  : 
; 373  : 			m_dwMotionStartTime = 0;

  001de	83 65 f0 00	 and	 DWORD PTR _value$538504[ebp], 0
  001e2	8d 45 f0	 lea	 eax, DWORD PTR _value$538504[ebp]
  001e5	50		 push	 eax
  001e6	8d 8e a8 02 00
	00		 lea	 ecx, DWORD PTR [esi+680]
  001ec	e8 00 00 00 00	 call	 ?EncryptValueToPool@?$CEncrypt@K@@AAEXPBD@Z ; CEncrypt<unsigned long>::EncryptValueToPool

; 374  : 			SetLoopState( pChar, pStage );

  001f1	ff 75 0c	 push	 DWORD PTR _pStage$[ebp]
  001f4	8b ce		 mov	 ecx, esi
  001f6	ff 75 08	 push	 DWORD PTR _pChar$[ebp]
  001f9	e8 00 00 00 00	 call	 ?SetLoopState@ioAreaWeaponControl2Skill@@IAEXPAVioBaseChar@@PAVioPlayStage@@@Z ; ioAreaWeaponControl2Skill::SetLoopState

; 375  : 		}
; 376  : 		break;

  001fe	eb 30		 jmp	 SHORT $LN11@OnProcessS
$LN12@OnProcessS:

; 354  : 	{
; 355  : 	case RS_NONE:
; 356  : 		if( m_dwPreDelayStartTime > 0 && m_dwPreDelayStartTime + dwPreDelayTime < dwCurTime )

  00200	8b 8e 20 02 00
	00		 mov	 ecx, DWORD PTR [esi+544]
  00206	85 c9		 test	 ecx, ecx
  00208	74 26		 je	 SHORT $LN11@OnProcessS
  0020a	03 4d ec	 add	 ecx, DWORD PTR _dwPreDelayTime$[ebp]
  0020d	3b 4d fc	 cmp	 ecx, DWORD PTR _dwCurTime$[ebp]
  00210	73 1e		 jae	 SHORT $LN11@OnProcessS

; 357  : 		{
; 358  : 			m_dwPreDelayStartTime = 0;
; 359  : 			EndPreDelayEffect( pChar );

  00212	ff 75 08	 push	 DWORD PTR _pChar$[ebp]
  00215	8b 06		 mov	 eax, DWORD PTR [esi]
  00217	83 a6 20 02 00
	00 00		 and	 DWORD PTR [esi+544], 0
  0021e	8b ce		 mov	 ecx, esi
  00220	ff 90 dc 00 00
	00		 call	 DWORD PTR [eax+220]

; 360  : 			SetActionState( pChar );

  00226	ff 75 08	 push	 DWORD PTR _pChar$[ebp]
  00229	8b ce		 mov	 ecx, esi
  0022b	e8 00 00 00 00	 call	 ?SetActionState@ioAreaWeaponControl2Skill@@IAEXPAVioBaseChar@@@Z ; ioAreaWeaponControl2Skill::SetActionState
$LN11@OnProcessS:
  00230	5f		 pop	 edi
  00231	5e		 pop	 esi
  00232	5b		 pop	 ebx

; 405  : 	case RS_END:
; 406  : 		break;
; 407  : 	}
; 408  : }

  00233	c9		 leave
  00234	c2 08 00	 ret	 8
?OnProcessState@ioAreaWeaponControl2Skill@@UAEXPAVioBaseChar@@PAVioPlayStage@@@Z ENDP ; ioAreaWeaponControl2Skill::OnProcessState
_TEXT	ENDS
EXTRN	?OnSkillEnd@ioNormalSkill@@UAEXPAVioBaseChar@@@Z:PROC ; ioNormalSkill::OnSkillEnd
EXTRN	?EndEffect@ioBaseChar@@QAEXABVioHashString@@_N1@Z:PROC ; ioBaseChar::EndEffect
EXTRN	?EndCameraBuff@ioSkill@@IAEXPAVioBaseChar@@@Z:PROC ; ioSkill::EndCameraBuff
; Function compile flags: /Ogsp
;	COMDAT ?OnSkillEnd@ioAreaWeaponControl2Skill@@UAEXPAVioBaseChar@@@Z
_TEXT	SEGMENT
_value$538520 = 8					; size = 4
_pOwner$ = 8						; size = 4
?OnSkillEnd@ioAreaWeaponControl2Skill@@UAEXPAVioBaseChar@@@Z PROC ; ioAreaWeaponControl2Skill::OnSkillEnd, COMDAT
; _this$ = ecx

; 411  : {

  00000	55		 push	 ebp
  00001	8b ec		 mov	 ebp, esp
  00003	53		 push	 ebx
  00004	56		 push	 esi
  00005	8b f1		 mov	 esi, ecx

; 412  : 	// 기본무기 장착
; 413  : 	if( m_bUseItemMesh )

  00007	33 db		 xor	 ebx, ebx
  00009	57		 push	 edi
  0000a	8b 7d 08	 mov	 edi, DWORD PTR _pOwner$[ebp]
  0000d	38 9e 08 0f 00
	00		 cmp	 BYTE PTR [esi+3848], bl
  00013	74 0a		 je	 SHORT $LN4@OnSkillEnd

; 414  : 	{
; 415  : 		pOwner->ShowWeaponItemMesh( true );

  00015	53		 push	 ebx
  00016	6a 01		 push	 1
  00018	8b cf		 mov	 ecx, edi
  0001a	e8 00 00 00 00	 call	 ?ShowWeaponItemMesh@ioBaseChar@@QAEX_N0@Z ; ioBaseChar::ShowWeaponItemMesh
$LN4@OnSkillEnd:

; 416  : 	}
; 417  : 
; 418  : 	// 스킬 중간 동작에 사용된 메쉬들 제거
; 419  : 	m_bSetHandMesh = false;
; 420  : 
; 421  : 	if( !m_StartHandMesh.IsEmpty() )

  0001f	8d 8e 9c 0f 00
	00		 lea	 ecx, DWORD PTR [esi+3996]
  00025	88 9e 0a 0f 00
	00		 mov	 BYTE PTR [esi+3850], bl
  0002b	ff 15 00 00 00
	00		 call	 DWORD PTR __imp_?IsEmpty@ioHashString@@QBE_NXZ
  00031	84 c0		 test	 al, al
  00033	75 18		 jne	 SHORT $LN3@OnSkillEnd

; 422  : 		pOwner->RestoreSkillWeaponMesh( this, m_StartHandMesh, m_bVisibleEquipMesh );

  00035	0f b6 86 09 0f
	00 00		 movzx	 eax, BYTE PTR [esi+3849]
  0003c	53		 push	 ebx
  0003d	50		 push	 eax
  0003e	8d 86 9c 0f 00
	00		 lea	 eax, DWORD PTR [esi+3996]
  00044	50		 push	 eax
  00045	56		 push	 esi
  00046	8b cf		 mov	 ecx, edi
  00048	e8 00 00 00 00	 call	 ?RestoreSkillWeaponMesh@ioBaseChar@@QAE_NPAVioSkill@@ABVioHashString@@_N2@Z ; ioBaseChar::RestoreSkillWeaponMesh
$LN3@OnSkillEnd:

; 423  : 
; 424  : 	if( !m_LoopHandMesh.IsEmpty() )

  0004d	8d 8e ac 0f 00
	00		 lea	 ecx, DWORD PTR [esi+4012]
  00053	ff 15 00 00 00
	00		 call	 DWORD PTR __imp_?IsEmpty@ioHashString@@QBE_NXZ
  00059	84 c0		 test	 al, al
  0005b	75 18		 jne	 SHORT $LN2@OnSkillEnd

; 425  : 		pOwner->RestoreSkillWeaponMesh( this, m_LoopHandMesh, m_bVisibleEquipMesh );

  0005d	0f b6 86 09 0f
	00 00		 movzx	 eax, BYTE PTR [esi+3849]
  00064	53		 push	 ebx
  00065	50		 push	 eax
  00066	8d 86 ac 0f 00
	00		 lea	 eax, DWORD PTR [esi+4012]
  0006c	50		 push	 eax
  0006d	56		 push	 esi
  0006e	8b cf		 mov	 ecx, edi
  00070	e8 00 00 00 00	 call	 ?RestoreSkillWeaponMesh@ioBaseChar@@QAE_NPAVioSkill@@ABVioHashString@@_N2@Z ; ioBaseChar::RestoreSkillWeaponMesh
$LN2@OnSkillEnd:

; 426  : 
; 427  : 	if( !m_EndHandMesh.IsEmpty() )

  00075	8d 8e bc 0f 00
	00		 lea	 ecx, DWORD PTR [esi+4028]
  0007b	ff 15 00 00 00
	00		 call	 DWORD PTR __imp_?IsEmpty@ioHashString@@QBE_NXZ
  00081	84 c0		 test	 al, al
  00083	75 18		 jne	 SHORT $LN1@OnSkillEnd

; 428  : 		pOwner->RestoreSkillWeaponMesh( this, m_EndHandMesh, m_bVisibleEquipMesh );

  00085	0f b6 86 09 0f
	00 00		 movzx	 eax, BYTE PTR [esi+3849]
  0008c	53		 push	 ebx
  0008d	50		 push	 eax
  0008e	8d 86 bc 0f 00
	00		 lea	 eax, DWORD PTR [esi+4028]
  00094	50		 push	 eax
  00095	56		 push	 esi
  00096	8b cf		 mov	 ecx, edi
  00098	e8 00 00 00 00	 call	 ?RestoreSkillWeaponMesh@ioBaseChar@@QAE_NPAVioSkill@@ABVioHashString@@_N2@Z ; ioBaseChar::RestoreSkillWeaponMesh
$LN1@OnSkillEnd:

; 429  : 
; 430  : 	// Ani
; 431  : 	m_dwMotionStartTime = 0;

  0009d	8d 45 08	 lea	 eax, DWORD PTR _value$538520[ebp]
  000a0	50		 push	 eax
  000a1	8d 8e a8 02 00
	00		 lea	 ecx, DWORD PTR [esi+680]
  000a7	89 5d 08	 mov	 DWORD PTR _value$538520[ebp], ebx
  000aa	e8 00 00 00 00	 call	 ?EncryptValueToPool@?$CEncrypt@K@@AAEXPBD@Z ; CEncrypt<unsigned long>::EncryptValueToPool

; 432  : 	m_dwLoopStartTime = 0;
; 433  : 	m_dwEndAniStartTime = 0;
; 434  : 
; 435  : 	//DestroyMapEffect
; 436  : 	pOwner->EndMapEffect( m_dwCurMapEffect );

  000af	6a 01		 push	 1
  000b1	ff b6 f0 0f 00
	00		 push	 DWORD PTR [esi+4080]
  000b7	8b cf		 mov	 ecx, edi
  000b9	89 9e 78 0f 00
	00		 mov	 DWORD PTR [esi+3960], ebx
  000bf	89 9e 94 0f 00
	00		 mov	 DWORD PTR [esi+3988], ebx
  000c5	e8 00 00 00 00	 call	 ?EndMapEffect@ioBaseChar@@QAEXK_N@Z ; ioBaseChar::EndMapEffect

; 437  : 	pOwner->DestroyMagicCircle();

  000ca	8d 8f cc 01 00
	00		 lea	 ecx, DWORD PTR [edi+460]
  000d0	e8 00 00 00 00	 call	 ?DestroyMagicCircle@ioBaseGUISupport@@QAEXXZ ; ioBaseGUISupport::DestroyMagicCircle

; 438  : 
; 439  : 	//AreaDestroy
; 440  : 	DestroyAreaWeapon();

  000d5	8b ce		 mov	 ecx, esi
  000d7	e8 00 00 00 00	 call	 ?DestroyAreaWeapon@ioAreaWeaponControl2Skill@@IAEXXZ ; ioAreaWeaponControl2Skill::DestroyAreaWeapon

; 441  : 
; 442  : 	EndCameraBuff( pOwner );

  000dc	57		 push	 edi
  000dd	8b ce		 mov	 ecx, esi
  000df	e8 00 00 00 00	 call	 ?EndCameraBuff@ioSkill@@IAEXPAVioBaseChar@@@Z ; ioSkill::EndCameraBuff

; 443  : 
; 444  : 	pOwner->EndEffect( m_SkillEffectName, false );

  000e4	6a 01		 push	 1
  000e6	53		 push	 ebx
  000e7	8d 86 b8 01 00
	00		 lea	 eax, DWORD PTR [esi+440]
  000ed	50		 push	 eax
  000ee	8b cf		 mov	 ecx, edi
  000f0	e8 00 00 00 00	 call	 ?EndEffect@ioBaseChar@@QAEXABVioHashString@@_N1@Z ; ioBaseChar::EndEffect

; 445  : 
; 446  : 	ioNormalSkill::OnSkillEnd( pOwner );

  000f5	57		 push	 edi
  000f6	8b ce		 mov	 ecx, esi
  000f8	e8 00 00 00 00	 call	 ?OnSkillEnd@ioNormalSkill@@UAEXPAVioBaseChar@@@Z ; ioNormalSkill::OnSkillEnd
  000fd	5f		 pop	 edi
  000fe	5e		 pop	 esi
  000ff	5b		 pop	 ebx

; 447  : }

  00100	5d		 pop	 ebp
  00101	c2 04 00	 ret	 4
?OnSkillEnd@ioAreaWeaponControl2Skill@@UAEXPAVioBaseChar@@@Z ENDP ; ioAreaWeaponControl2Skill::OnSkillEnd
; Function compile flags: /Ogsp
_TEXT	ENDS
;	COMDAT ??_GioAreaWeaponControl2Skill@@UAEPAXI@Z
_TEXT	SEGMENT
___flags$ = 8						; size = 4
??_GioAreaWeaponControl2Skill@@UAEPAXI@Z PROC		; ioAreaWeaponControl2Skill::`scalar deleting destructor', COMDAT
; _this$ = ecx
  00000	55		 push	 ebp
  00001	8b ec		 mov	 ebp, esp
  00003	56		 push	 esi
  00004	8b f1		 mov	 esi, ecx
  00006	e8 00 00 00 00	 call	 ??1ioAreaWeaponControl2Skill@@UAE@XZ ; ioAreaWeaponControl2Skill::~ioAreaWeaponControl2Skill
  0000b	f6 45 08 01	 test	 BYTE PTR ___flags$[ebp], 1
  0000f	74 07		 je	 SHORT $LN1@scalar@4
  00011	56		 push	 esi
  00012	e8 00 00 00 00	 call	 ??3@YAXPAX@Z		; operator delete
  00017	59		 pop	 ecx
$LN1@scalar@4:
  00018	8b c6		 mov	 eax, esi
  0001a	5e		 pop	 esi
  0001b	5d		 pop	 ebp
  0001c	c2 04 00	 ret	 4
??_GioAreaWeaponControl2Skill@@UAEPAXI@Z ENDP		; ioAreaWeaponControl2Skill::`scalar deleting destructor'
_TEXT	ENDS
END
