; Listing generated by Microsoft (R) Optimizing Compiler Version 16.00.30319.01 

	TITLE	D:\Lost Saga For Developer\Youtube\Tutorial\Source\src\LSClient\ioAreaWeapon.cpp
	.686P
	.XMM
	include listing.inc
	.model	flat

INCLUDELIB MSVCRT
INCLUDELIB OLDNAMES

PUBLIC	?_EEM_DS@?$deque@UD3DXVECTOR3@@V?$allocator@UD3DXVECTOR3@@@std@@@std@@2HB ; std::deque<D3DXVECTOR3,std::allocator<D3DXVECTOR3> >::_EEM_DS
;	COMDAT ?_EEM_DS@?$deque@UD3DXVECTOR3@@V?$allocator@UD3DXVECTOR3@@@std@@@std@@2HB
CONST	SEGMENT
?_EEM_DS@?$deque@UD3DXVECTOR3@@V?$allocator@UD3DXVECTOR3@@@std@@@std@@2HB DD 01H ; std::deque<D3DXVECTOR3,std::allocator<D3DXVECTOR3> >::_EEM_DS
CONST	ENDS
PUBLIC	?return1@@YAIXZ					; return1
; Function compile flags: /Ogsp
; File d:\lost saga for developer\youtube\tutorial\source\src\lsclient\stdafx.h
;	COMDAT ?return1@@YAIXZ
_TEXT	SEGMENT
?return1@@YAIXZ PROC					; return1, COMDAT

; 17   : 	__forceinline unsigned int return1() { __asm mov eax, 1 };

  00000	b8 01 00 00 00	 mov	 eax, 1
  00005	c3		 ret	 0
?return1@@YAIXZ ENDP					; return1
_TEXT	ENDS
PUBLIC	?return5@@YAIXZ					; return5
; Function compile flags: /Ogsp
;	COMDAT ?return5@@YAIXZ
_TEXT	SEGMENT
?return5@@YAIXZ PROC					; return5, COMDAT

; 18   : 	__forceinline unsigned int return5() { __asm mov eax, 5 };

  00000	b8 05 00 00 00	 mov	 eax, 5
  00005	c3		 ret	 0
?return5@@YAIXZ ENDP					; return5
_TEXT	ENDS
PUBLIC	?return10@@YAIXZ				; return10
; Function compile flags: /Ogsp
;	COMDAT ?return10@@YAIXZ
_TEXT	SEGMENT
?return10@@YAIXZ PROC					; return10, COMDAT

; 21   : 	__forceinline unsigned int return10() { __asm mov eax, 10 };

  00000	b8 0a 00 00 00	 mov	 eax, 10			; 0000000aH
  00005	c3		 ret	 0
?return10@@YAIXZ ENDP					; return10
_TEXT	ENDS
PUBLIC	?return100@@YAIXZ				; return100
; Function compile flags: /Ogsp
;	COMDAT ?return100@@YAIXZ
_TEXT	SEGMENT
?return100@@YAIXZ PROC					; return100, COMDAT

; 25   : 	__forceinline unsigned int return100() { __asm mov eax, 100 };

  00000	b8 64 00 00 00	 mov	 eax, 100		; 00000064H
  00005	c3		 ret	 0
?return100@@YAIXZ ENDP					; return100
_TEXT	ENDS
PUBLIC	?return360@@YAIXZ				; return360
; Function compile flags: /Ogsp
;	COMDAT ?return360@@YAIXZ
_TEXT	SEGMENT
?return360@@YAIXZ PROC					; return360, COMDAT

; 27   : 	__forceinline unsigned int return360() { __asm mov eax, 360 };

  00000	b8 68 01 00 00	 mov	 eax, 360		; 00000168H
  00005	c3		 ret	 0
?return360@@YAIXZ ENDP					; return360
_TEXT	ENDS
PUBLIC	?return1000@@YAIXZ				; return1000
; Function compile flags: /Ogsp
;	COMDAT ?return1000@@YAIXZ
_TEXT	SEGMENT
?return1000@@YAIXZ PROC					; return1000, COMDAT

; 29   : 	__forceinline unsigned int return1000() { __asm mov eax, 1000 };

  00000	b8 e8 03 00 00	 mov	 eax, 1000		; 000003e8H
  00005	c3		 ret	 0
?return1000@@YAIXZ ENDP					; return1000
_TEXT	ENDS
PUBLIC	?GetState@ioBaseChar@@QBE?AW4CharState@@XZ	; ioBaseChar::GetState
; Function compile flags: /Ogsp
; File d:\lost saga for developer\youtube\tutorial\source\src\lsclient\iobasechar.h
;	COMDAT ?GetState@ioBaseChar@@QBE?AW4CharState@@XZ
_TEXT	SEGMENT
?GetState@ioBaseChar@@QBE?AW4CharState@@XZ PROC		; ioBaseChar::GetState, COMDAT
; _this$ = ecx

; 2156 : 	inline CharState GetState() const { return m_CharState; }	

  00000	8a 81 10 03 00
	00		 mov	 al, BYTE PTR [ecx+784]
  00006	c3		 ret	 0
?GetState@ioBaseChar@@QBE?AW4CharState@@XZ ENDP		; ioBaseChar::GetState
_TEXT	ENDS
PUBLIC	?GetCharName@ioBaseChar@@QBEABVioHashString@@XZ	; ioBaseChar::GetCharName
; Function compile flags: /Ogsp
;	COMDAT ?GetCharName@ioBaseChar@@QBEABVioHashString@@XZ
_TEXT	SEGMENT
?GetCharName@ioBaseChar@@QBEABVioHashString@@XZ PROC	; ioBaseChar::GetCharName, COMDAT
; _this$ = ecx

; 2594 : 	inline const ioHashString& GetCharName() const { return m_Name; }

  00000	8d 81 d4 02 00
	00		 lea	 eax, DWORD PTR [ecx+724]
  00006	c3		 ret	 0
?GetCharName@ioBaseChar@@QBEABVioHashString@@XZ ENDP	; ioBaseChar::GetCharName
_TEXT	ENDS
PUBLIC	?GetMoveDir@ioBaseChar@@QBEABUD3DXVECTOR3@@XZ	; ioBaseChar::GetMoveDir
; Function compile flags: /Ogsp
;	COMDAT ?GetMoveDir@ioBaseChar@@QBEABUD3DXVECTOR3@@XZ
_TEXT	SEGMENT
?GetMoveDir@ioBaseChar@@QBEABUD3DXVECTOR3@@XZ PROC	; ioBaseChar::GetMoveDir, COMDAT
; _this$ = ecx

; 2596 : 	inline const D3DXVECTOR3& GetMoveDir() const { return m_vMoveDir; }

  00000	8d 81 b4 06 00
	00		 lea	 eax, DWORD PTR [ecx+1716]
  00006	c3		 ret	 0
?GetMoveDir@ioBaseChar@@QBEABUD3DXVECTOR3@@XZ ENDP	; ioBaseChar::GetMoveDir
_TEXT	ENDS
PUBLIC	?GetTargetRot@ioBaseChar@@QBEABUD3DXQUATERNION@@XZ ; ioBaseChar::GetTargetRot
; Function compile flags: /Ogsp
;	COMDAT ?GetTargetRot@ioBaseChar@@QBEABUD3DXQUATERNION@@XZ
_TEXT	SEGMENT
?GetTargetRot@ioBaseChar@@QBEABUD3DXQUATERNION@@XZ PROC	; ioBaseChar::GetTargetRot, COMDAT
; _this$ = ecx

; 2599 : 	inline const D3DXQUATERNION& GetTargetRot() const { return m_qtTargetRot; }

  00000	8d 81 a4 06 00
	00		 lea	 eax, DWORD PTR [ecx+1700]
  00006	c3		 ret	 0
?GetTargetRot@ioBaseChar@@QBEABUD3DXQUATERNION@@XZ ENDP	; ioBaseChar::GetTargetRot
_TEXT	ENDS
PUBLIC	_fabsf
EXTRN	__fltused:DWORD
; Function compile flags: /Ogsp
; File c:\program files (x86)\microsoft visual studio 10.0\vc\include\math.h
;	COMDAT _fabsf
_TEXT	SEGMENT
tv129 = 8						; size = 4
__X$ = 8						; size = 4
_fabsf	PROC						; COMDAT

; 395  :         {return ((float)fabs((double)_X)); }

  00000	55		 push	 ebp
  00001	8b ec		 mov	 ebp, esp
  00003	d9 45 08	 fld	 DWORD PTR __X$[ebp]
  00006	d9 e1		 fabs
  00008	d9 5d 08	 fstp	 DWORD PTR tv129[ebp]
  0000b	d9 45 08	 fld	 DWORD PTR tv129[ebp]
  0000e	5d		 pop	 ebp
  0000f	c3		 ret	 0
_fabsf	ENDP
_TEXT	ENDS
PUBLIC	_acosf
EXTRN	__CIacos:PROC
; Function compile flags: /Ogsp
;	COMDAT _acosf
_TEXT	SEGMENT
tv69 = 8						; size = 4
__X$ = 8						; size = 4
_acosf	PROC						; COMDAT

; 400  :         {return ((float)acos((double)_X)); }

  00000	55		 push	 ebp
  00001	8b ec		 mov	 ebp, esp
  00003	d9 45 08	 fld	 DWORD PTR __X$[ebp]
  00006	e8 00 00 00 00	 call	 __CIacos
  0000b	d9 5d 08	 fstp	 DWORD PTR tv69[ebp]
  0000e	d9 45 08	 fld	 DWORD PTR tv69[ebp]
  00011	5d		 pop	 ebp
  00012	c3		 ret	 0
_acosf	ENDP
_TEXT	ENDS
PUBLIC	_cosf
EXTRN	__CIcos:PROC
; Function compile flags: /Ogsp
;	COMDAT _cosf
_TEXT	SEGMENT
tv69 = 8						; size = 4
__X$ = 8						; size = 4
_cosf	PROC						; COMDAT

; 410  :         {return ((float)cos((double)_X)); }

  00000	55		 push	 ebp
  00001	8b ec		 mov	 ebp, esp
  00003	d9 45 08	 fld	 DWORD PTR __X$[ebp]
  00006	e8 00 00 00 00	 call	 __CIcos
  0000b	d9 5d 08	 fstp	 DWORD PTR tv69[ebp]
  0000e	d9 45 08	 fld	 DWORD PTR tv69[ebp]
  00011	5d		 pop	 ebp
  00012	c3		 ret	 0
_cosf	ENDP
_TEXT	ENDS
PUBLIC	_sqrtf
EXTRN	__CIsqrt:PROC
; Function compile flags: /Ogsp
;	COMDAT _sqrtf
_TEXT	SEGMENT
tv69 = 8						; size = 4
__X$ = 8						; size = 4
_sqrtf	PROC						; COMDAT

; 434  :         {return ((float)sqrt((double)_X)); }

  00000	55		 push	 ebp
  00001	8b ec		 mov	 ebp, esp
  00003	d9 45 08	 fld	 DWORD PTR __X$[ebp]
  00006	e8 00 00 00 00	 call	 __CIsqrt
  0000b	d9 5d 08	 fstp	 DWORD PTR tv69[ebp]
  0000e	d9 45 08	 fld	 DWORD PTR tv69[ebp]
  00011	5d		 pop	 ebp
  00012	c3		 ret	 0
_sqrtf	ENDP
_TEXT	ENDS
PUBLIC	?fabs@@YAMM@Z					; fabs
; Function compile flags: /Ogsp
;	COMDAT ?fabs@@YAMM@Z
_TEXT	SEGMENT
tv131 = 8						; size = 4
__X$ = 8						; size = 4
?fabs@@YAMM@Z PROC					; fabs, COMDAT

; 518  :         {return (fabsf(_X)); }

  00000	55		 push	 ebp
  00001	8b ec		 mov	 ebp, esp
  00003	d9 45 08	 fld	 DWORD PTR __X$[ebp]
  00006	d9 e1		 fabs
  00008	d9 5d 08	 fstp	 DWORD PTR tv131[ebp]
  0000b	d9 45 08	 fld	 DWORD PTR tv131[ebp]
  0000e	5d		 pop	 ebp
  0000f	c3		 ret	 0
?fabs@@YAMM@Z ENDP					; fabs
_TEXT	ENDS
PUBLIC	?GetRandomSeed@ioBaseChar@@QBEKXZ		; ioBaseChar::GetRandomSeed
; Function compile flags: /Ogsp
; File d:\lost saga for developer\youtube\tutorial\source\src\lsclient\iobasechar.h
;	COMDAT ?GetRandomSeed@ioBaseChar@@QBEKXZ
_TEXT	SEGMENT
?GetRandomSeed@ioBaseChar@@QBEKXZ PROC			; ioBaseChar::GetRandomSeed, COMDAT
; _this$ = ecx

; 3372 : 	inline DWORD GetRandomSeed() const { return m_dwRandomSeed; }

  00000	8b 81 74 16 00
	00		 mov	 eax, DWORD PTR [ecx+5748]
  00006	c3		 ret	 0
?GetRandomSeed@ioBaseChar@@QBEKXZ ENDP			; ioBaseChar::GetRandomSeed
_TEXT	ENDS
PUBLIC	??_7bad_alloc@std@@6B@				; std::bad_alloc::`vftable'
PUBLIC	??0bad_alloc@std@@QAE@PBD@Z			; std::bad_alloc::bad_alloc
PUBLIC	??_R4bad_alloc@std@@6B@				; std::bad_alloc::`RTTI Complete Object Locator'
PUBLIC	??_R0?AVbad_alloc@std@@@8			; std::bad_alloc `RTTI Type Descriptor'
PUBLIC	??_R3bad_alloc@std@@8				; std::bad_alloc::`RTTI Class Hierarchy Descriptor'
PUBLIC	??_R2bad_alloc@std@@8				; std::bad_alloc::`RTTI Base Class Array'
PUBLIC	??_R1A@?0A@EA@bad_alloc@std@@8			; std::bad_alloc::`RTTI Base Class Descriptor at (0,-1,0,64)'
PUBLIC	??_R1A@?0A@EA@exception@std@@8			; std::exception::`RTTI Base Class Descriptor at (0,-1,0,64)'
PUBLIC	??_R0?AVexception@std@@@8			; std::exception `RTTI Type Descriptor'
PUBLIC	??_R3exception@std@@8				; std::exception::`RTTI Class Hierarchy Descriptor'
PUBLIC	??_R2exception@std@@8				; std::exception::`RTTI Base Class Array'
EXTRN	__imp_??0exception@std@@QAE@ABQBD@Z:PROC
EXTRN	??_7type_info@@6B@:QWORD			; type_info::`vftable'
EXTRN	??_Ebad_alloc@std@@UAEPAXI@Z:PROC		; std::bad_alloc::`vector deleting destructor'
EXTRN	?what@exception@std@@UBEPBDXZ:PROC		; std::exception::what
;	COMDAT ??_R2exception@std@@8
; File c:\program files (x86)\microsoft visual studio 10.0\vc\include\exception
rdata$r	SEGMENT
??_R2exception@std@@8 DD FLAT:??_R1A@?0A@EA@exception@std@@8 ; std::exception::`RTTI Base Class Array'
rdata$r	ENDS
;	COMDAT ??_R3exception@std@@8
rdata$r	SEGMENT
??_R3exception@std@@8 DD 00H				; std::exception::`RTTI Class Hierarchy Descriptor'
	DD	00H
	DD	01H
	DD	FLAT:??_R2exception@std@@8
rdata$r	ENDS
;	COMDAT ??_R0?AVexception@std@@@8
_DATA	SEGMENT
??_R0?AVexception@std@@@8 DD FLAT:??_7type_info@@6B@	; std::exception `RTTI Type Descriptor'
	DD	00H
	DB	'.?AVexception@std@@', 00H
_DATA	ENDS
;	COMDAT ??_R1A@?0A@EA@exception@std@@8
rdata$r	SEGMENT
??_R1A@?0A@EA@exception@std@@8 DD FLAT:??_R0?AVexception@std@@@8 ; std::exception::`RTTI Base Class Descriptor at (0,-1,0,64)'
	DD	00H
	DD	00H
	DD	0ffffffffH
	DD	00H
	DD	040H
	DD	FLAT:??_R3exception@std@@8
rdata$r	ENDS
;	COMDAT ??_R1A@?0A@EA@bad_alloc@std@@8
rdata$r	SEGMENT
??_R1A@?0A@EA@bad_alloc@std@@8 DD FLAT:??_R0?AVbad_alloc@std@@@8 ; std::bad_alloc::`RTTI Base Class Descriptor at (0,-1,0,64)'
	DD	01H
	DD	00H
	DD	0ffffffffH
	DD	00H
	DD	040H
	DD	FLAT:??_R3bad_alloc@std@@8
rdata$r	ENDS
;	COMDAT ??_R2bad_alloc@std@@8
rdata$r	SEGMENT
??_R2bad_alloc@std@@8 DD FLAT:??_R1A@?0A@EA@bad_alloc@std@@8 ; std::bad_alloc::`RTTI Base Class Array'
	DD	FLAT:??_R1A@?0A@EA@exception@std@@8
rdata$r	ENDS
;	COMDAT ??_R3bad_alloc@std@@8
rdata$r	SEGMENT
??_R3bad_alloc@std@@8 DD 00H				; std::bad_alloc::`RTTI Class Hierarchy Descriptor'
	DD	00H
	DD	02H
	DD	FLAT:??_R2bad_alloc@std@@8
rdata$r	ENDS
;	COMDAT ??_R0?AVbad_alloc@std@@@8
_DATA	SEGMENT
??_R0?AVbad_alloc@std@@@8 DD FLAT:??_7type_info@@6B@	; std::bad_alloc `RTTI Type Descriptor'
	DD	00H
	DB	'.?AVbad_alloc@std@@', 00H
_DATA	ENDS
;	COMDAT ??_R4bad_alloc@std@@6B@
rdata$r	SEGMENT
??_R4bad_alloc@std@@6B@ DD 00H				; std::bad_alloc::`RTTI Complete Object Locator'
	DD	00H
	DD	00H
	DD	FLAT:??_R0?AVbad_alloc@std@@@8
	DD	FLAT:??_R3bad_alloc@std@@8
rdata$r	ENDS
;	COMDAT ??_7bad_alloc@std@@6B@
CONST	SEGMENT
??_7bad_alloc@std@@6B@ DD FLAT:??_R4bad_alloc@std@@6B@	; std::bad_alloc::`vftable'
	DD	FLAT:??_Ebad_alloc@std@@UAEPAXI@Z
	DD	FLAT:?what@exception@std@@UBEPBDXZ
; Function compile flags: /Ogsp
CONST	ENDS
;	COMDAT ??0bad_alloc@std@@QAE@PBD@Z
_TEXT	SEGMENT
__Message$ = 8						; size = 4
??0bad_alloc@std@@QAE@PBD@Z PROC			; std::bad_alloc::bad_alloc, COMDAT
; _this$ = ecx

; 345  : 		{	// construct from message string

  00000	55		 push	 ebp
  00001	8b ec		 mov	 ebp, esp
  00003	56		 push	 esi
  00004	8d 45 08	 lea	 eax, DWORD PTR __Message$[ebp]
  00007	50		 push	 eax
  00008	8b f1		 mov	 esi, ecx
  0000a	ff 15 00 00 00
	00		 call	 DWORD PTR __imp_??0exception@std@@QAE@ABQBD@Z
  00010	c7 06 00 00 00
	00		 mov	 DWORD PTR [esi], OFFSET ??_7bad_alloc@std@@6B@

; 346  : 		}

  00016	8b c6		 mov	 eax, esi
  00018	5e		 pop	 esi
  00019	5d		 pop	 ebp
  0001a	c2 04 00	 ret	 4
??0bad_alloc@std@@QAE@PBD@Z ENDP			; std::bad_alloc::bad_alloc
_TEXT	ENDS
PUBLIC	??1bad_alloc@std@@UAE@XZ			; std::bad_alloc::~bad_alloc
EXTRN	__imp_??1exception@std@@UAE@XZ:PROC
; Function compile flags: /Ogsp
;	COMDAT ??1bad_alloc@std@@UAE@XZ
_TEXT	SEGMENT
??1bad_alloc@std@@UAE@XZ PROC				; std::bad_alloc::~bad_alloc, COMDAT
; _this$ = ecx

; 354  : 		{	// destroy the object

  00000	c7 01 00 00 00
	00		 mov	 DWORD PTR [ecx], OFFSET ??_7bad_alloc@std@@6B@

; 355  : 		}

  00006	ff 25 00 00 00
	00		 jmp	 DWORD PTR __imp_??1exception@std@@UAE@XZ
??1bad_alloc@std@@UAE@XZ ENDP				; std::bad_alloc::~bad_alloc
_TEXT	ENDS
EXTRN	??3@YAXPAX@Z:PROC				; operator delete
; Function compile flags: /Ogsp
;	COMDAT ??_Gbad_alloc@std@@UAEPAXI@Z
_TEXT	SEGMENT
___flags$ = 8						; size = 4
??_Gbad_alloc@std@@UAEPAXI@Z PROC			; std::bad_alloc::`scalar deleting destructor', COMDAT
; _this$ = ecx
  00000	55		 push	 ebp
  00001	8b ec		 mov	 ebp, esp
  00003	56		 push	 esi
  00004	8b f1		 mov	 esi, ecx
  00006	c7 06 00 00 00
	00		 mov	 DWORD PTR [esi], OFFSET ??_7bad_alloc@std@@6B@
  0000c	ff 15 00 00 00
	00		 call	 DWORD PTR __imp_??1exception@std@@UAE@XZ
  00012	f6 45 08 01	 test	 BYTE PTR ___flags$[ebp], 1
  00016	74 07		 je	 SHORT $LN1@scalar
  00018	56		 push	 esi
  00019	e8 00 00 00 00	 call	 ??3@YAXPAX@Z		; operator delete
  0001e	59		 pop	 ecx
$LN1@scalar:
  0001f	8b c6		 mov	 eax, esi
  00021	5e		 pop	 esi
  00022	5d		 pop	 ebp
  00023	c2 04 00	 ret	 4
??_Gbad_alloc@std@@UAEPAXI@Z ENDP			; std::bad_alloc::`scalar deleting destructor'
_TEXT	ENDS
PUBLIC	??2@YAPAXIPAX@Z					; operator new
; Function compile flags: /Ogsp
; File c:\program files (x86)\microsoft visual studio 10.0\vc\include\new
;	COMDAT ??2@YAPAXIPAX@Z
_TEXT	SEGMENT
___formal$ = 8						; size = 4
__Where$ = 12						; size = 4
??2@YAPAXIPAX@Z PROC					; operator new, COMDAT

; 56   : 	{	// construct array with placement at _Where

  00000	55		 push	 ebp
  00001	8b ec		 mov	 ebp, esp

; 57   : 	return (_Where);

  00003	8b 45 0c	 mov	 eax, DWORD PTR __Where$[ebp]

; 58   : 	}

  00006	5d		 pop	 ebp
  00007	c3		 ret	 0
??2@YAPAXIPAX@Z ENDP					; operator new
_TEXT	ENDS
PUBLIC	??3@YAXPAX0@Z					; operator delete
; Function compile flags: /Ogsp
;	COMDAT ??3@YAXPAX0@Z
_TEXT	SEGMENT
___formal$ = 8						; size = 4
___formal$ = 12						; size = 4
??3@YAXPAX0@Z PROC					; operator delete, COMDAT

; 62   : 	}

  00000	c3		 ret	 0
??3@YAXPAX0@Z ENDP					; operator delete
_TEXT	ENDS
PUBLIC	?GetCreator@ioBaseChar@@QAEPAVioPlayStage@@XZ	; ioBaseChar::GetCreator
; Function compile flags: /Ogsp
; File d:\lost saga for developer\youtube\tutorial\source\src\lsclient\iobasechar.h
;	COMDAT ?GetCreator@ioBaseChar@@QAEPAVioPlayStage@@XZ
_TEXT	SEGMENT
?GetCreator@ioBaseChar@@QAEPAVioPlayStage@@XZ PROC	; ioBaseChar::GetCreator, COMDAT
; _this$ = ecx

; 4013 : 	inline ioPlayStage* GetCreator() { return m_pCreator; }

  00000	8b 81 44 03 00
	00		 mov	 eax, DWORD PTR [ecx+836]
  00006	c3		 ret	 0
?GetCreator@ioBaseChar@@QAEPAVioPlayStage@@XZ ENDP	; ioBaseChar::GetCreator
_TEXT	ENDS
PUBLIC	?GetBaseCharList@ioPlayStage@@QBEABV?$vector@PAVioBaseChar@@V?$allocator@PAVioBaseChar@@@std@@@std@@XZ ; ioPlayStage::GetBaseCharList
; Function compile flags: /Ogsp
; File d:\lost saga for developer\youtube\tutorial\source\src\lsclient\ioplaystage.h
;	COMDAT ?GetBaseCharList@ioPlayStage@@QBEABV?$vector@PAVioBaseChar@@V?$allocator@PAVioBaseChar@@@std@@@std@@XZ
_TEXT	SEGMENT
?GetBaseCharList@ioPlayStage@@QBEABV?$vector@PAVioBaseChar@@V?$allocator@PAVioBaseChar@@@std@@@std@@XZ PROC ; ioPlayStage::GetBaseCharList, COMDAT
; _this$ = ecx

; 755  : 	const BaseCharList& GetBaseCharList() const { return m_BaseCharList; }

  00000	8d 41 2c	 lea	 eax, DWORD PTR [ecx+44]
  00003	c3		 ret	 0
?GetBaseCharList@ioPlayStage@@QBEABV?$vector@PAVioBaseChar@@V?$allocator@PAVioBaseChar@@@std@@@std@@XZ ENDP ; ioPlayStage::GetBaseCharList
_TEXT	ENDS
PUBLIC	?_Adopt@_Iterator_base0@std@@QAEXPBX@Z		; std::_Iterator_base0::_Adopt
; Function compile flags: /Ogsp
; File c:\program files (x86)\microsoft visual studio 10.0\vc\include\xutility
;	COMDAT ?_Adopt@_Iterator_base0@std@@QAEXPBX@Z
_TEXT	SEGMENT
___formal$ = 8						; size = 4
?_Adopt@_Iterator_base0@std@@QAEXPBX@Z PROC		; std::_Iterator_base0::_Adopt, COMDAT
; _this$ = ecx

; 49   : 		}

  00000	c2 04 00	 ret	 4
?_Adopt@_Iterator_base0@std@@QAEXPBX@Z ENDP		; std::_Iterator_base0::_Adopt
_TEXT	ENDS
PUBLIC	??0D3DXVECTOR3@@QAE@XZ				; D3DXVECTOR3::D3DXVECTOR3
; Function compile flags: /Ogsp
; File c:\program files (x86)\microsoft directx sdk (june 2010)\include\d3dx9math.h
;	COMDAT ??0D3DXVECTOR3@@QAE@XZ
_TEXT	SEGMENT
??0D3DXVECTOR3@@QAE@XZ PROC				; D3DXVECTOR3::D3DXVECTOR3, COMDAT
; _this$ = ecx

; 165  :     D3DXVECTOR3() {};

  00000	8b c1		 mov	 eax, ecx
  00002	c3		 ret	 0
??0D3DXVECTOR3@@QAE@XZ ENDP				; D3DXVECTOR3::D3DXVECTOR3
_TEXT	ENDS
PUBLIC	??0D3DXQUATERNION@@QAE@XZ			; D3DXQUATERNION::D3DXQUATERNION
; Function compile flags: /Ogsp
;	COMDAT ??0D3DXQUATERNION@@QAE@XZ
_TEXT	SEGMENT
??0D3DXQUATERNION@@QAE@XZ PROC				; D3DXQUATERNION::D3DXQUATERNION, COMDAT
; _this$ = ecx

; 429  :     D3DXQUATERNION() {}

  00000	8b c1		 mov	 eax, ecx
  00002	c3		 ret	 0
??0D3DXQUATERNION@@QAE@XZ ENDP				; D3DXQUATERNION::D3DXQUATERNION
_TEXT	ENDS
PUBLIC	??0D3DXVECTOR3@@QAE@MMM@Z			; D3DXVECTOR3::D3DXVECTOR3
; Function compile flags: /Ogsp
; File c:\program files (x86)\microsoft directx sdk (june 2010)\include\d3dx9math.inl
;	COMDAT ??0D3DXVECTOR3@@QAE@MMM@Z
_TEXT	SEGMENT
_fx$ = 8						; size = 4
_fy$ = 12						; size = 4
_fz$ = 16						; size = 4
??0D3DXVECTOR3@@QAE@MMM@Z PROC				; D3DXVECTOR3::D3DXVECTOR3, COMDAT
; _this$ = ecx

; 303  : {

  00000	55		 push	 ebp
  00001	8b ec		 mov	 ebp, esp

; 304  :     x = fx;

  00003	f3 0f 10 45 08	 movss	 xmm0, DWORD PTR _fx$[ebp]
  00008	8b c1		 mov	 eax, ecx
  0000a	f3 0f 11 00	 movss	 DWORD PTR [eax], xmm0

; 305  :     y = fy;

  0000e	f3 0f 10 45 0c	 movss	 xmm0, DWORD PTR _fy$[ebp]
  00013	f3 0f 11 40 04	 movss	 DWORD PTR [eax+4], xmm0

; 306  :     z = fz;

  00018	f3 0f 10 45 10	 movss	 xmm0, DWORD PTR _fz$[ebp]
  0001d	f3 0f 11 40 08	 movss	 DWORD PTR [eax+8], xmm0

; 307  : }

  00022	5d		 pop	 ebp
  00023	c2 0c 00	 ret	 12			; 0000000cH
??0D3DXVECTOR3@@QAE@MMM@Z ENDP				; D3DXVECTOR3::D3DXVECTOR3
_TEXT	ENDS
PUBLIC	??YD3DXVECTOR3@@QAEAAU0@ABU0@@Z			; D3DXVECTOR3::operator+=
; Function compile flags: /Ogsp
;	COMDAT ??YD3DXVECTOR3@@QAEAAU0@ABU0@@Z
_TEXT	SEGMENT
_v$ = 8							; size = 4
??YD3DXVECTOR3@@QAEAAU0@ABU0@@Z PROC			; D3DXVECTOR3::operator+=, COMDAT
; _this$ = ecx

; 327  : {

  00000	55		 push	 ebp
  00001	8b ec		 mov	 ebp, esp
  00003	8b c1		 mov	 eax, ecx

; 328  :     x += v.x;

  00005	8b 4d 08	 mov	 ecx, DWORD PTR _v$[ebp]
  00008	f3 0f 10 01	 movss	 xmm0, DWORD PTR [ecx]
  0000c	f3 0f 10 08	 movss	 xmm1, DWORD PTR [eax]
  00010	0f 5a c0	 cvtps2pd xmm0, xmm0
  00013	0f 5a c9	 cvtps2pd xmm1, xmm1
  00016	f2 0f 58 c1	 addsd	 xmm0, xmm1

; 329  :     y += v.y;

  0001a	f3 0f 10 48 04	 movss	 xmm1, DWORD PTR [eax+4]
  0001f	66 0f 5a c0	 cvtpd2ps xmm0, xmm0
  00023	f3 0f 11 00	 movss	 DWORD PTR [eax], xmm0
  00027	f3 0f 10 41 04	 movss	 xmm0, DWORD PTR [ecx+4]
  0002c	0f 5a c0	 cvtps2pd xmm0, xmm0
  0002f	0f 5a c9	 cvtps2pd xmm1, xmm1
  00032	f2 0f 58 c1	 addsd	 xmm0, xmm1

; 330  :     z += v.z;

  00036	f3 0f 10 48 08	 movss	 xmm1, DWORD PTR [eax+8]
  0003b	66 0f 5a c0	 cvtpd2ps xmm0, xmm0
  0003f	f3 0f 11 40 04	 movss	 DWORD PTR [eax+4], xmm0
  00044	f3 0f 10 41 08	 movss	 xmm0, DWORD PTR [ecx+8]
  00049	0f 5a c0	 cvtps2pd xmm0, xmm0
  0004c	0f 5a c9	 cvtps2pd xmm1, xmm1
  0004f	f2 0f 58 c1	 addsd	 xmm0, xmm1
  00053	66 0f 5a c0	 cvtpd2ps xmm0, xmm0
  00057	f3 0f 11 40 08	 movss	 DWORD PTR [eax+8], xmm0

; 331  :     return *this;
; 332  : }

  0005c	5d		 pop	 ebp
  0005d	c2 04 00	 ret	 4
??YD3DXVECTOR3@@QAEAAU0@ABU0@@Z ENDP			; D3DXVECTOR3::operator+=
_TEXT	ENDS
PUBLIC	??ZD3DXVECTOR3@@QAEAAU0@ABU0@@Z			; D3DXVECTOR3::operator-=
; Function compile flags: /Ogsp
;	COMDAT ??ZD3DXVECTOR3@@QAEAAU0@ABU0@@Z
_TEXT	SEGMENT
_v$ = 8							; size = 4
??ZD3DXVECTOR3@@QAEAAU0@ABU0@@Z PROC			; D3DXVECTOR3::operator-=, COMDAT
; _this$ = ecx

; 336  : {

  00000	55		 push	 ebp
  00001	8b ec		 mov	 ebp, esp
  00003	8b c1		 mov	 eax, ecx

; 337  :     x -= v.x;

  00005	8b 4d 08	 mov	 ecx, DWORD PTR _v$[ebp]
  00008	f3 0f 10 09	 movss	 xmm1, DWORD PTR [ecx]
  0000c	f3 0f 10 00	 movss	 xmm0, DWORD PTR [eax]
  00010	0f 5a c0	 cvtps2pd xmm0, xmm0
  00013	0f 5a c9	 cvtps2pd xmm1, xmm1
  00016	f2 0f 5c c1	 subsd	 xmm0, xmm1
  0001a	66 0f 5a c0	 cvtpd2ps xmm0, xmm0
  0001e	f3 0f 11 00	 movss	 DWORD PTR [eax], xmm0

; 338  :     y -= v.y;

  00022	f3 0f 10 49 04	 movss	 xmm1, DWORD PTR [ecx+4]
  00027	f3 0f 10 40 04	 movss	 xmm0, DWORD PTR [eax+4]
  0002c	0f 5a c0	 cvtps2pd xmm0, xmm0
  0002f	0f 5a c9	 cvtps2pd xmm1, xmm1
  00032	f2 0f 5c c1	 subsd	 xmm0, xmm1
  00036	66 0f 5a c0	 cvtpd2ps xmm0, xmm0
  0003a	f3 0f 11 40 04	 movss	 DWORD PTR [eax+4], xmm0

; 339  :     z -= v.z;

  0003f	f3 0f 10 40 08	 movss	 xmm0, DWORD PTR [eax+8]
  00044	f3 0f 10 49 08	 movss	 xmm1, DWORD PTR [ecx+8]
  00049	0f 5a c0	 cvtps2pd xmm0, xmm0
  0004c	0f 5a c9	 cvtps2pd xmm1, xmm1
  0004f	f2 0f 5c c1	 subsd	 xmm0, xmm1
  00053	66 0f 5a c0	 cvtpd2ps xmm0, xmm0
  00057	f3 0f 11 40 08	 movss	 DWORD PTR [eax+8], xmm0

; 340  :     return *this;
; 341  : }

  0005c	5d		 pop	 ebp
  0005d	c2 04 00	 ret	 4
??ZD3DXVECTOR3@@QAEAAU0@ABU0@@Z ENDP			; D3DXVECTOR3::operator-=
_TEXT	ENDS
PUBLIC	??XD3DXVECTOR3@@QAEAAU0@M@Z			; D3DXVECTOR3::operator*=
; Function compile flags: /Ogsp
;	COMDAT ??XD3DXVECTOR3@@QAEAAU0@M@Z
_TEXT	SEGMENT
_f$ = 8							; size = 4
??XD3DXVECTOR3@@QAEAAU0@M@Z PROC			; D3DXVECTOR3::operator*=, COMDAT
; _this$ = ecx

; 345  : {

  00000	55		 push	 ebp
  00001	8b ec		 mov	 ebp, esp

; 346  :     x *= f;

  00003	f3 0f 10 4d 08	 movss	 xmm1, DWORD PTR _f$[ebp]
  00008	8b c1		 mov	 eax, ecx
  0000a	f3 0f 10 00	 movss	 xmm0, DWORD PTR [eax]
  0000e	0f 5a c0	 cvtps2pd xmm0, xmm0
  00011	0f 5a c9	 cvtps2pd xmm1, xmm1
  00014	f2 0f 59 c1	 mulsd	 xmm0, xmm1

; 347  :     y *= f;

  00018	f3 0f 10 4d 08	 movss	 xmm1, DWORD PTR _f$[ebp]
  0001d	66 0f 5a c0	 cvtpd2ps xmm0, xmm0
  00021	f3 0f 11 00	 movss	 DWORD PTR [eax], xmm0
  00025	f3 0f 10 40 04	 movss	 xmm0, DWORD PTR [eax+4]
  0002a	0f 5a c0	 cvtps2pd xmm0, xmm0
  0002d	0f 5a c9	 cvtps2pd xmm1, xmm1
  00030	f2 0f 59 c1	 mulsd	 xmm0, xmm1

; 348  :     z *= f;

  00034	f3 0f 10 48 08	 movss	 xmm1, DWORD PTR [eax+8]
  00039	66 0f 5a c0	 cvtpd2ps xmm0, xmm0
  0003d	f3 0f 11 40 04	 movss	 DWORD PTR [eax+4], xmm0
  00042	f3 0f 10 45 08	 movss	 xmm0, DWORD PTR _f$[ebp]
  00047	0f 5a c0	 cvtps2pd xmm0, xmm0
  0004a	0f 5a c9	 cvtps2pd xmm1, xmm1
  0004d	f2 0f 59 c1	 mulsd	 xmm0, xmm1
  00051	f2 0f 5a c0	 cvtsd2ss xmm0, xmm0
  00055	f3 0f 11 40 08	 movss	 DWORD PTR [eax+8], xmm0

; 349  :     return *this;
; 350  : }

  0005a	5d		 pop	 ebp
  0005b	c2 04 00	 ret	 4
??XD3DXVECTOR3@@QAEAAU0@M@Z ENDP			; D3DXVECTOR3::operator*=
_TEXT	ENDS
PUBLIC	__mask@@NegFloat@
PUBLIC	??GD3DXVECTOR3@@QBE?AU0@XZ			; D3DXVECTOR3::operator-
;	COMDAT __mask@@NegFloat@
CONST	SEGMENT
__mask@@NegFloat@ DB 00H, 00H, 00H, 080H, 00H, 00H, 00H, 080H, 00H, 00H, 00H
	DB	080H, 00H, 00H, 00H, 080H
; Function compile flags: /Ogsp
CONST	ENDS
;	COMDAT ??GD3DXVECTOR3@@QBE?AU0@XZ
_TEXT	SEGMENT
___$ReturnUdt$ = 8					; size = 4
??GD3DXVECTOR3@@QBE?AU0@XZ PROC				; D3DXVECTOR3::operator-, COMDAT
; _this$ = ecx

; 372  : {

  00000	55		 push	 ebp
  00001	8b ec		 mov	 ebp, esp

; 373  :     return D3DXVECTOR3(-x, -y, -z);

  00003	f3 0f 10 05 00
	00 00 00	 movss	 xmm0, DWORD PTR __mask@@NegFloat@
  0000b	8b 45 08	 mov	 eax, DWORD PTR ___$ReturnUdt$[ebp]
  0000e	f3 0f 10 09	 movss	 xmm1, DWORD PTR [ecx]
  00012	0f 57 c8	 xorps	 xmm1, xmm0
  00015	f3 0f 11 08	 movss	 DWORD PTR [eax], xmm1
  00019	f3 0f 10 49 04	 movss	 xmm1, DWORD PTR [ecx+4]
  0001e	0f 57 c8	 xorps	 xmm1, xmm0
  00021	f3 0f 11 48 04	 movss	 DWORD PTR [eax+4], xmm1
  00026	f3 0f 10 49 08	 movss	 xmm1, DWORD PTR [ecx+8]
  0002b	0f 57 c8	 xorps	 xmm1, xmm0
  0002e	f3 0f 11 48 08	 movss	 DWORD PTR [eax+8], xmm1

; 374  : }

  00033	5d		 pop	 ebp
  00034	c2 04 00	 ret	 4
??GD3DXVECTOR3@@QBE?AU0@XZ ENDP				; D3DXVECTOR3::operator-
_TEXT	ENDS
PUBLIC	??HD3DXVECTOR3@@QBE?AU0@ABU0@@Z			; D3DXVECTOR3::operator+
; Function compile flags: /Ogsp
;	COMDAT ??HD3DXVECTOR3@@QBE?AU0@ABU0@@Z
_TEXT	SEGMENT
___$ReturnUdt$ = 8					; size = 4
_v$ = 12						; size = 4
??HD3DXVECTOR3@@QBE?AU0@ABU0@@Z PROC			; D3DXVECTOR3::operator+, COMDAT
; _this$ = ecx

; 380  : {

  00000	55		 push	 ebp
  00001	8b ec		 mov	 ebp, esp

; 381  :     return D3DXVECTOR3(x + v.x, y + v.y, z + v.z);

  00003	8b 55 0c	 mov	 edx, DWORD PTR _v$[ebp]
  00006	f3 0f 10 02	 movss	 xmm0, DWORD PTR [edx]
  0000a	f3 0f 10 09	 movss	 xmm1, DWORD PTR [ecx]
  0000e	8b 45 08	 mov	 eax, DWORD PTR ___$ReturnUdt$[ebp]
  00011	0f 5a c0	 cvtps2pd xmm0, xmm0
  00014	0f 5a c9	 cvtps2pd xmm1, xmm1
  00017	f2 0f 58 c1	 addsd	 xmm0, xmm1
  0001b	f3 0f 10 49 04	 movss	 xmm1, DWORD PTR [ecx+4]
  00020	66 0f 5a c0	 cvtpd2ps xmm0, xmm0
  00024	f3 0f 11 00	 movss	 DWORD PTR [eax], xmm0
  00028	f3 0f 10 42 04	 movss	 xmm0, DWORD PTR [edx+4]
  0002d	0f 5a c0	 cvtps2pd xmm0, xmm0
  00030	0f 5a c9	 cvtps2pd xmm1, xmm1
  00033	f2 0f 58 c1	 addsd	 xmm0, xmm1
  00037	f3 0f 10 49 08	 movss	 xmm1, DWORD PTR [ecx+8]
  0003c	66 0f 5a c0	 cvtpd2ps xmm0, xmm0
  00040	f3 0f 11 40 04	 movss	 DWORD PTR [eax+4], xmm0
  00045	f3 0f 10 42 08	 movss	 xmm0, DWORD PTR [edx+8]
  0004a	0f 5a c0	 cvtps2pd xmm0, xmm0
  0004d	0f 5a c9	 cvtps2pd xmm1, xmm1
  00050	f2 0f 58 c1	 addsd	 xmm0, xmm1
  00054	66 0f 5a c0	 cvtpd2ps xmm0, xmm0
  00058	f3 0f 11 40 08	 movss	 DWORD PTR [eax+8], xmm0

; 382  : }

  0005d	5d		 pop	 ebp
  0005e	c2 08 00	 ret	 8
??HD3DXVECTOR3@@QBE?AU0@ABU0@@Z ENDP			; D3DXVECTOR3::operator+
_TEXT	ENDS
PUBLIC	??GD3DXVECTOR3@@QBE?AU0@ABU0@@Z			; D3DXVECTOR3::operator-
; Function compile flags: /Ogsp
;	COMDAT ??GD3DXVECTOR3@@QBE?AU0@ABU0@@Z
_TEXT	SEGMENT
___$ReturnUdt$ = 8					; size = 4
_v$ = 12						; size = 4
??GD3DXVECTOR3@@QBE?AU0@ABU0@@Z PROC			; D3DXVECTOR3::operator-, COMDAT
; _this$ = ecx

; 386  : {

  00000	55		 push	 ebp
  00001	8b ec		 mov	 ebp, esp

; 387  :     return D3DXVECTOR3(x - v.x, y - v.y, z - v.z);

  00003	8b 55 0c	 mov	 edx, DWORD PTR _v$[ebp]
  00006	f3 0f 10 01	 movss	 xmm0, DWORD PTR [ecx]
  0000a	f3 0f 10 0a	 movss	 xmm1, DWORD PTR [edx]
  0000e	8b 45 08	 mov	 eax, DWORD PTR ___$ReturnUdt$[ebp]
  00011	0f 5a c0	 cvtps2pd xmm0, xmm0
  00014	0f 5a c9	 cvtps2pd xmm1, xmm1
  00017	f2 0f 5c c1	 subsd	 xmm0, xmm1
  0001b	f3 0f 10 4a 04	 movss	 xmm1, DWORD PTR [edx+4]
  00020	66 0f 5a c0	 cvtpd2ps xmm0, xmm0
  00024	f3 0f 11 00	 movss	 DWORD PTR [eax], xmm0
  00028	f3 0f 10 41 04	 movss	 xmm0, DWORD PTR [ecx+4]
  0002d	0f 5a c0	 cvtps2pd xmm0, xmm0
  00030	0f 5a c9	 cvtps2pd xmm1, xmm1
  00033	f2 0f 5c c1	 subsd	 xmm0, xmm1
  00037	f3 0f 10 4a 08	 movss	 xmm1, DWORD PTR [edx+8]
  0003c	66 0f 5a c0	 cvtpd2ps xmm0, xmm0
  00040	f3 0f 11 40 04	 movss	 DWORD PTR [eax+4], xmm0
  00045	f3 0f 10 41 08	 movss	 xmm0, DWORD PTR [ecx+8]
  0004a	0f 5a c0	 cvtps2pd xmm0, xmm0
  0004d	0f 5a c9	 cvtps2pd xmm1, xmm1
  00050	f2 0f 5c c1	 subsd	 xmm0, xmm1
  00054	66 0f 5a c0	 cvtpd2ps xmm0, xmm0
  00058	f3 0f 11 40 08	 movss	 DWORD PTR [eax+8], xmm0

; 388  : }

  0005d	5d		 pop	 ebp
  0005e	c2 08 00	 ret	 8
??GD3DXVECTOR3@@QBE?AU0@ABU0@@Z ENDP			; D3DXVECTOR3::operator-
_TEXT	ENDS
PUBLIC	??DD3DXVECTOR3@@QBE?AU0@M@Z			; D3DXVECTOR3::operator*
; Function compile flags: /Ogsp
;	COMDAT ??DD3DXVECTOR3@@QBE?AU0@M@Z
_TEXT	SEGMENT
___$ReturnUdt$ = 8					; size = 4
_f$ = 12						; size = 4
??DD3DXVECTOR3@@QBE?AU0@M@Z PROC			; D3DXVECTOR3::operator*, COMDAT
; _this$ = ecx

; 392  : {

  00000	55		 push	 ebp
  00001	8b ec		 mov	 ebp, esp

; 393  :     return D3DXVECTOR3(x * f, y * f, z * f);

  00003	f3 0f 10 4d 0c	 movss	 xmm1, DWORD PTR _f$[ebp]
  00008	f3 0f 10 01	 movss	 xmm0, DWORD PTR [ecx]
  0000c	8b 45 08	 mov	 eax, DWORD PTR ___$ReturnUdt$[ebp]
  0000f	0f 5a c0	 cvtps2pd xmm0, xmm0
  00012	0f 5a c9	 cvtps2pd xmm1, xmm1
  00015	f2 0f 59 c1	 mulsd	 xmm0, xmm1
  00019	f3 0f 10 4d 0c	 movss	 xmm1, DWORD PTR _f$[ebp]
  0001e	66 0f 5a c0	 cvtpd2ps xmm0, xmm0
  00022	f3 0f 11 00	 movss	 DWORD PTR [eax], xmm0
  00026	f3 0f 10 41 04	 movss	 xmm0, DWORD PTR [ecx+4]
  0002b	0f 5a c0	 cvtps2pd xmm0, xmm0
  0002e	0f 5a c9	 cvtps2pd xmm1, xmm1
  00031	f2 0f 59 c1	 mulsd	 xmm0, xmm1
  00035	f3 0f 10 4d 0c	 movss	 xmm1, DWORD PTR _f$[ebp]
  0003a	66 0f 5a c0	 cvtpd2ps xmm0, xmm0
  0003e	f3 0f 11 40 04	 movss	 DWORD PTR [eax+4], xmm0
  00043	f3 0f 10 41 08	 movss	 xmm0, DWORD PTR [ecx+8]
  00048	0f 5a c0	 cvtps2pd xmm0, xmm0
  0004b	0f 5a c9	 cvtps2pd xmm1, xmm1
  0004e	f2 0f 59 c1	 mulsd	 xmm0, xmm1
  00052	66 0f 5a c0	 cvtpd2ps xmm0, xmm0
  00056	f3 0f 11 40 08	 movss	 DWORD PTR [eax+8], xmm0

; 394  : }

  0005b	5d		 pop	 ebp
  0005c	c2 08 00	 ret	 8
??DD3DXVECTOR3@@QBE?AU0@M@Z ENDP			; D3DXVECTOR3::operator*
_TEXT	ENDS
PUBLIC	??8D3DXVECTOR3@@QBEHABU0@@Z			; D3DXVECTOR3::operator==
; Function compile flags: /Ogsp
;	COMDAT ??8D3DXVECTOR3@@QBEHABU0@@Z
_TEXT	SEGMENT
_v$ = 8							; size = 4
??8D3DXVECTOR3@@QBEHABU0@@Z PROC			; D3DXVECTOR3::operator==, COMDAT
; _this$ = ecx

; 413  : {

  00000	55		 push	 ebp
  00001	8b ec		 mov	 ebp, esp

; 414  :     return x == v.x && y == v.y && z == v.z;

  00003	8b 55 08	 mov	 edx, DWORD PTR _v$[ebp]
  00006	f3 0f 10 01	 movss	 xmm0, DWORD PTR [ecx]
  0000a	f3 0f 10 0a	 movss	 xmm1, DWORD PTR [edx]
  0000e	0f 5a c0	 cvtps2pd xmm0, xmm0
  00011	0f 5a c9	 cvtps2pd xmm1, xmm1
  00014	66 0f 2e c1	 ucomisd xmm0, xmm1
  00018	9f		 lahf
  00019	f6 c4 44	 test	 ah, 68			; 00000044H
  0001c	7a 39		 jp	 SHORT $LN3@operator
  0001e	f3 0f 10 41 04	 movss	 xmm0, DWORD PTR [ecx+4]
  00023	f3 0f 10 4a 04	 movss	 xmm1, DWORD PTR [edx+4]
  00028	0f 5a c0	 cvtps2pd xmm0, xmm0
  0002b	0f 5a c9	 cvtps2pd xmm1, xmm1
  0002e	66 0f 2e c1	 ucomisd xmm0, xmm1
  00032	9f		 lahf
  00033	f6 c4 44	 test	 ah, 68			; 00000044H
  00036	7a 1f		 jp	 SHORT $LN3@operator
  00038	f3 0f 10 41 08	 movss	 xmm0, DWORD PTR [ecx+8]
  0003d	f3 0f 10 4a 08	 movss	 xmm1, DWORD PTR [edx+8]
  00042	0f 5a c0	 cvtps2pd xmm0, xmm0
  00045	0f 5a c9	 cvtps2pd xmm1, xmm1
  00048	66 0f 2e c1	 ucomisd xmm0, xmm1
  0004c	9f		 lahf
  0004d	f6 c4 44	 test	 ah, 68			; 00000044H
  00050	7a 05		 jp	 SHORT $LN3@operator
  00052	33 c0		 xor	 eax, eax
  00054	40		 inc	 eax
  00055	eb 02		 jmp	 SHORT $LN4@operator
$LN3@operator:
  00057	33 c0		 xor	 eax, eax
$LN4@operator:

; 415  : }

  00059	5d		 pop	 ebp
  0005a	c2 04 00	 ret	 4
??8D3DXVECTOR3@@QBEHABU0@@Z ENDP			; D3DXVECTOR3::operator==
_TEXT	ENDS
PUBLIC	??9D3DXVECTOR3@@QBEHABU0@@Z			; D3DXVECTOR3::operator!=
; Function compile flags: /Ogsp
;	COMDAT ??9D3DXVECTOR3@@QBEHABU0@@Z
_TEXT	SEGMENT
_v$ = 8							; size = 4
??9D3DXVECTOR3@@QBEHABU0@@Z PROC			; D3DXVECTOR3::operator!=, COMDAT
; _this$ = ecx

; 419  : {

  00000	55		 push	 ebp
  00001	8b ec		 mov	 ebp, esp

; 420  :     return x != v.x || y != v.y || z != v.z;

  00003	8b 55 08	 mov	 edx, DWORD PTR _v$[ebp]
  00006	f3 0f 10 01	 movss	 xmm0, DWORD PTR [ecx]
  0000a	f3 0f 10 0a	 movss	 xmm1, DWORD PTR [edx]
  0000e	0f 5a c0	 cvtps2pd xmm0, xmm0
  00011	0f 5a c9	 cvtps2pd xmm1, xmm1
  00014	66 0f 2e c1	 ucomisd xmm0, xmm1
  00018	9f		 lahf
  00019	f6 c4 44	 test	 ah, 68			; 00000044H
  0001c	7a 38		 jp	 SHORT $LN3@operator@2
  0001e	f3 0f 10 41 04	 movss	 xmm0, DWORD PTR [ecx+4]
  00023	f3 0f 10 4a 04	 movss	 xmm1, DWORD PTR [edx+4]
  00028	0f 5a c0	 cvtps2pd xmm0, xmm0
  0002b	0f 5a c9	 cvtps2pd xmm1, xmm1
  0002e	66 0f 2e c1	 ucomisd xmm0, xmm1
  00032	9f		 lahf
  00033	f6 c4 44	 test	 ah, 68			; 00000044H
  00036	7a 1e		 jp	 SHORT $LN3@operator@2
  00038	f3 0f 10 41 08	 movss	 xmm0, DWORD PTR [ecx+8]
  0003d	f3 0f 10 4a 08	 movss	 xmm1, DWORD PTR [edx+8]
  00042	0f 5a c0	 cvtps2pd xmm0, xmm0
  00045	0f 5a c9	 cvtps2pd xmm1, xmm1
  00048	66 0f 2e c1	 ucomisd xmm0, xmm1
  0004c	9f		 lahf
  0004d	f6 c4 44	 test	 ah, 68			; 00000044H
  00050	7a 04		 jp	 SHORT $LN3@operator@2
  00052	33 c0		 xor	 eax, eax
  00054	eb 03		 jmp	 SHORT $LN4@operator@2
$LN3@operator@2:
  00056	33 c0		 xor	 eax, eax
  00058	40		 inc	 eax
$LN4@operator@2:

; 421  : }

  00059	5d		 pop	 ebp
  0005a	c2 04 00	 ret	 4
??9D3DXVECTOR3@@QBEHABU0@@Z ENDP			; D3DXVECTOR3::operator!=
_TEXT	ENDS
PUBLIC	?D3DXVec3Length@@YAMPBUD3DXVECTOR3@@@Z		; D3DXVec3Length
; Function compile flags: /Ogsp
;	COMDAT ?D3DXVec3Length@@YAMPBUD3DXVECTOR3@@@Z
_TEXT	SEGMENT
tv169 = 8						; size = 4
tv160 = 8						; size = 4
_pV$ = 8						; size = 4
?D3DXVec3Length@@YAMPBUD3DXVECTOR3@@@Z PROC		; D3DXVec3Length, COMDAT

; 1710 : {

  00000	55		 push	 ebp
  00001	8b ec		 mov	 ebp, esp

; 1711 : #ifdef D3DX_DEBUG
; 1712 :     if(!pV)
; 1713 :         return 0.0f;
; 1714 : #endif
; 1715 : 
; 1716 : #ifdef __cplusplus
; 1717 :     return sqrtf(pV->x * pV->x + pV->y * pV->y + pV->z * pV->z);

  00003	8b 45 08	 mov	 eax, DWORD PTR _pV$[ebp]
  00006	d9 40 04	 fld	 DWORD PTR [eax+4]
  00009	d9 00		 fld	 DWORD PTR [eax]
  0000b	d9 40 08	 fld	 DWORD PTR [eax+8]
  0000e	d9 c1		 fld	 ST(1)
  00010	de ca		 fmulp	 ST(2), ST(0)
  00012	d9 c2		 fld	 ST(2)
  00014	de cb		 fmulp	 ST(3), ST(0)
  00016	d9 c9		 fxch	 ST(1)
  00018	de c2		 faddp	 ST(2), ST(0)
  0001a	d9 c0		 fld	 ST(0)
  0001c	de c9		 fmulp	 ST(1), ST(0)
  0001e	de c1		 faddp	 ST(1), ST(0)
  00020	d9 5d 08	 fstp	 DWORD PTR tv169[ebp]
  00023	d9 45 08	 fld	 DWORD PTR tv169[ebp]
  00026	e8 00 00 00 00	 call	 __CIsqrt
  0002b	d9 5d 08	 fstp	 DWORD PTR tv160[ebp]
  0002e	d9 45 08	 fld	 DWORD PTR tv160[ebp]

; 1718 : #else
; 1719 :     return (FLOAT) sqrt(pV->x * pV->x + pV->y * pV->y + pV->z * pV->z);
; 1720 : #endif
; 1721 : }

  00031	5d		 pop	 ebp
  00032	c3		 ret	 0
?D3DXVec3Length@@YAMPBUD3DXVECTOR3@@@Z ENDP		; D3DXVec3Length
_TEXT	ENDS
PUBLIC	?D3DXVec3LengthSq@@YAMPBUD3DXVECTOR3@@@Z	; D3DXVec3LengthSq
; Function compile flags: /Ogsp
;	COMDAT ?D3DXVec3LengthSq@@YAMPBUD3DXVECTOR3@@@Z
_TEXT	SEGMENT
tv165 = 8						; size = 4
_pV$ = 8						; size = 4
?D3DXVec3LengthSq@@YAMPBUD3DXVECTOR3@@@Z PROC		; D3DXVec3LengthSq, COMDAT

; 1725 : {

  00000	55		 push	 ebp
  00001	8b ec		 mov	 ebp, esp

; 1726 : #ifdef D3DX_DEBUG
; 1727 :     if(!pV)
; 1728 :         return 0.0f;
; 1729 : #endif
; 1730 : 
; 1731 :     return pV->x * pV->x + pV->y * pV->y + pV->z * pV->z;

  00003	8b 45 08	 mov	 eax, DWORD PTR _pV$[ebp]
  00006	d9 40 04	 fld	 DWORD PTR [eax+4]
  00009	d9 00		 fld	 DWORD PTR [eax]
  0000b	d9 40 08	 fld	 DWORD PTR [eax+8]
  0000e	d9 c1		 fld	 ST(1)
  00010	de ca		 fmulp	 ST(2), ST(0)
  00012	d9 c2		 fld	 ST(2)
  00014	de cb		 fmulp	 ST(3), ST(0)
  00016	d9 c9		 fxch	 ST(1)
  00018	de c2		 faddp	 ST(2), ST(0)
  0001a	d9 c0		 fld	 ST(0)
  0001c	de c9		 fmulp	 ST(1), ST(0)
  0001e	de c1		 faddp	 ST(1), ST(0)
  00020	d9 5d 08	 fstp	 DWORD PTR tv165[ebp]
  00023	d9 45 08	 fld	 DWORD PTR tv165[ebp]

; 1732 : }

  00026	5d		 pop	 ebp
  00027	c3		 ret	 0
?D3DXVec3LengthSq@@YAMPBUD3DXVECTOR3@@@Z ENDP		; D3DXVec3LengthSq
_TEXT	ENDS
PUBLIC	?D3DXVec3Dot@@YAMPBUD3DXVECTOR3@@0@Z		; D3DXVec3Dot
; Function compile flags: /Ogsp
;	COMDAT ?D3DXVec3Dot@@YAMPBUD3DXVECTOR3@@0@Z
_TEXT	SEGMENT
tv188 = 8						; size = 4
_pV1$ = 8						; size = 4
_pV2$ = 12						; size = 4
?D3DXVec3Dot@@YAMPBUD3DXVECTOR3@@0@Z PROC		; D3DXVec3Dot, COMDAT

; 1736 : {

  00000	55		 push	 ebp
  00001	8b ec		 mov	 ebp, esp

; 1737 : #ifdef D3DX_DEBUG
; 1738 :     if(!pV1 || !pV2)
; 1739 :         return 0.0f;
; 1740 : #endif
; 1741 : 
; 1742 :     return pV1->x * pV2->x + pV1->y * pV2->y + pV1->z * pV2->z;

  00003	8b 45 08	 mov	 eax, DWORD PTR _pV1$[ebp]
  00006	8b 4d 0c	 mov	 ecx, DWORD PTR _pV2$[ebp]
  00009	d9 40 04	 fld	 DWORD PTR [eax+4]
  0000c	d8 49 04	 fmul	 DWORD PTR [ecx+4]
  0000f	d9 00		 fld	 DWORD PTR [eax]
  00011	d8 09		 fmul	 DWORD PTR [ecx]
  00013	de c1		 faddp	 ST(1), ST(0)
  00015	d9 40 08	 fld	 DWORD PTR [eax+8]
  00018	d8 49 08	 fmul	 DWORD PTR [ecx+8]
  0001b	de c1		 faddp	 ST(1), ST(0)
  0001d	d9 5d 08	 fstp	 DWORD PTR tv188[ebp]
  00020	d9 45 08	 fld	 DWORD PTR tv188[ebp]

; 1743 : }

  00023	5d		 pop	 ebp
  00024	c3		 ret	 0
?D3DXVec3Dot@@YAMPBUD3DXVECTOR3@@0@Z ENDP		; D3DXVec3Dot
_TEXT	ENDS
PUBLIC	?D3DXVec3Cross@@YAPAUD3DXVECTOR3@@PAU1@PBU1@1@Z	; D3DXVec3Cross
; Function compile flags: /Ogsp
;	COMDAT ?D3DXVec3Cross@@YAPAUD3DXVECTOR3@@PAU1@PBU1@1@Z
_TEXT	SEGMENT
_v$ = -12						; size = 12
_pOut$ = 8						; size = 4
_pV1$ = 12						; size = 4
_pV2$ = 16						; size = 4
?D3DXVec3Cross@@YAPAUD3DXVECTOR3@@PAU1@PBU1@1@Z PROC	; D3DXVec3Cross, COMDAT

; 1747 : {

  00000	55		 push	 ebp
  00001	8b ec		 mov	 ebp, esp
  00003	83 ec 0c	 sub	 esp, 12			; 0000000cH

; 1757 :     v.z = pV1->x * pV2->y - pV1->y * pV2->x;
; 1758 : 
; 1759 :     *pOut = v;

  00006	56		 push	 esi
  00007	57		 push	 edi

; 1748 :     D3DXVECTOR3 v;
; 1749 : 
; 1750 : #ifdef D3DX_DEBUG
; 1751 :     if(!pOut || !pV1 || !pV2)
; 1752 :         return NULL;
; 1753 : #endif
; 1754 : 
; 1755 :     v.x = pV1->y * pV2->z - pV1->z * pV2->y;

  00008	8b 45 0c	 mov	 eax, DWORD PTR _pV1$[ebp]
  0000b	f3 0f 10 40 04	 movss	 xmm0, DWORD PTR [eax+4]
  00010	f3 0f 10 50 08	 movss	 xmm2, DWORD PTR [eax+8]
  00015	8b 4d 10	 mov	 ecx, DWORD PTR _pV2$[ebp]
  00018	f3 0f 10 49 08	 movss	 xmm1, DWORD PTR [ecx+8]
  0001d	f3 0f 10 59 04	 movss	 xmm3, DWORD PTR [ecx+4]
  00022	0f 5a e8	 cvtps2pd xmm5, xmm0
  00025	0f 5a e1	 cvtps2pd xmm4, xmm1
  00028	0f 5a f2	 cvtps2pd xmm6, xmm2
  0002b	f2 0f 59 e5	 mulsd	 xmm4, xmm5

; 1756 :     v.y = pV1->z * pV2->x - pV1->x * pV2->z;

  0002f	0f 5a d2	 cvtps2pd xmm2, xmm2
  00032	0f 5a c9	 cvtps2pd xmm1, xmm1
  00035	0f 5a eb	 cvtps2pd xmm5, xmm3
  00038	f2 0f 59 ee	 mulsd	 xmm5, xmm6
  0003c	f2 0f 5c e5	 subsd	 xmm4, xmm5
  00040	f3 0f 10 28	 movss	 xmm5, DWORD PTR [eax]

; 1757 :     v.z = pV1->x * pV2->y - pV1->y * pV2->x;
; 1758 : 
; 1759 :     *pOut = v;

  00044	8b 45 08	 mov	 eax, DWORD PTR _pOut$[ebp]
  00047	66 0f 5a e4	 cvtpd2ps xmm4, xmm4
  0004b	f3 0f 11 65 f4	 movss	 DWORD PTR _v$[ebp], xmm4
  00050	f3 0f 10 21	 movss	 xmm4, DWORD PTR [ecx]
  00054	0f 5a f4	 cvtps2pd xmm6, xmm4
  00057	f2 0f 59 f2	 mulsd	 xmm6, xmm2
  0005b	0f 5a d5	 cvtps2pd xmm2, xmm5
  0005e	f2 0f 59 d1	 mulsd	 xmm2, xmm1
  00062	f2 0f 5c f2	 subsd	 xmm6, xmm2
  00066	66 0f 5a ce	 cvtpd2ps xmm1, xmm6
  0006a	f3 0f 11 4d f8	 movss	 DWORD PTR _v$[ebp+4], xmm1
  0006f	0f 5a c0	 cvtps2pd xmm0, xmm0
  00072	0f 5a d3	 cvtps2pd xmm2, xmm3
  00075	0f 5a cd	 cvtps2pd xmm1, xmm5
  00078	f2 0f 59 ca	 mulsd	 xmm1, xmm2
  0007c	8d 75 f4	 lea	 esi, DWORD PTR _v$[ebp]
  0007f	8b f8		 mov	 edi, eax
  00081	0f 5a d4	 cvtps2pd xmm2, xmm4
  00084	f2 0f 59 d0	 mulsd	 xmm2, xmm0
  00088	f2 0f 5c ca	 subsd	 xmm1, xmm2
  0008c	66 0f 5a c1	 cvtpd2ps xmm0, xmm1
  00090	f3 0f 11 45 fc	 movss	 DWORD PTR _v$[ebp+8], xmm0
  00095	a5		 movsd
  00096	a5		 movsd
  00097	a5		 movsd
  00098	5f		 pop	 edi
  00099	5e		 pop	 esi

; 1760 :     return pOut;
; 1761 : }

  0009a	c9		 leave
  0009b	c3		 ret	 0
?D3DXVec3Cross@@YAPAUD3DXVECTOR3@@PAU1@PBU1@1@Z ENDP	; D3DXVec3Cross
_TEXT	ENDS
PUBLIC	??_R0?AVioWeapon@@@8				; ioWeapon `RTTI Type Descriptor'
PUBLIC	??_R0?AVioAreaEffectWeapon@@@8			; ioAreaEffectWeapon `RTTI Type Descriptor'
PUBLIC	?ToAreaEffectWeapon@@YAPAVioAreaEffectWeapon@@PAVioWeapon@@@Z ; ToAreaEffectWeapon
EXTRN	___RTDynamicCast:PROC
;	COMDAT ??_R0?AVioWeapon@@@8
; File d:\lost saga for developer\youtube\tutorial\source\src\lsclient\ioareaeffectweapon.h
_DATA	SEGMENT
??_R0?AVioWeapon@@@8 DD FLAT:??_7type_info@@6B@		; ioWeapon `RTTI Type Descriptor'
	DD	00H
	DB	'.?AVioWeapon@@', 00H
_DATA	ENDS
;	COMDAT ??_R0?AVioAreaEffectWeapon@@@8
_DATA	SEGMENT
??_R0?AVioAreaEffectWeapon@@@8 DD FLAT:??_7type_info@@6B@ ; ioAreaEffectWeapon `RTTI Type Descriptor'
	DD	00H
	DB	'.?AVioAreaEffectWeapon@@', 00H
; Function compile flags: /Ogsp
_DATA	ENDS
;	COMDAT ?ToAreaEffectWeapon@@YAPAVioAreaEffectWeapon@@PAVioWeapon@@@Z
_TEXT	SEGMENT
_pWeapon$ = 8						; size = 4
?ToAreaEffectWeapon@@YAPAVioAreaEffectWeapon@@PAVioWeapon@@@Z PROC ; ToAreaEffectWeapon, COMDAT

; 97   : {

  00000	55		 push	 ebp
  00001	8b ec		 mov	 ebp, esp
  00003	56		 push	 esi

; 98   : 	if( !pWeapon || pWeapon->GetType() != ioWeapon::WT_AREA_EFFECT )

  00004	8b 75 08	 mov	 esi, DWORD PTR _pWeapon$[ebp]
  00007	85 f6		 test	 esi, esi
  00009	74 28		 je	 SHORT $LN1@ToAreaEffe
  0000b	8b 06		 mov	 eax, DWORD PTR [esi]
  0000d	8b ce		 mov	 ecx, esi
  0000f	ff 90 10 01 00
	00		 call	 DWORD PTR [eax+272]
  00015	83 f8 1a	 cmp	 eax, 26			; 0000001aH
  00018	75 19		 jne	 SHORT $LN1@ToAreaEffe

; 100  : 
; 101  : 	return dynamic_cast< ioAreaEffectWeapon* >( pWeapon );

  0001a	6a 00		 push	 0
  0001c	68 00 00 00 00	 push	 OFFSET ??_R0?AVioAreaEffectWeapon@@@8
  00021	68 00 00 00 00	 push	 OFFSET ??_R0?AVioWeapon@@@8
  00026	6a 00		 push	 0
  00028	56		 push	 esi
  00029	e8 00 00 00 00	 call	 ___RTDynamicCast
  0002e	83 c4 14	 add	 esp, 20			; 00000014H
  00031	eb 02		 jmp	 SHORT $LN3@ToAreaEffe
$LN1@ToAreaEffe:

; 99   : 		return NULL;

  00033	33 c0		 xor	 eax, eax
$LN3@ToAreaEffe:
  00035	5e		 pop	 esi

; 102  : }

  00036	5d		 pop	 ebp
  00037	c3		 ret	 0
?ToAreaEffectWeapon@@YAPAVioAreaEffectWeapon@@PAVioWeapon@@@Z ENDP ; ToAreaEffectWeapon
_TEXT	ENDS
PUBLIC	?GetCloseOrderType@ioCloseOrderBuff@@QBE?AW4CloseOrderType@1@XZ ; ioCloseOrderBuff::GetCloseOrderType
; Function compile flags: /Ogsp
; File d:\lost saga for developer\youtube\tutorial\source\src\lsclient\ioetcbuff.h
;	COMDAT ?GetCloseOrderType@ioCloseOrderBuff@@QBE?AW4CloseOrderType@1@XZ
_TEXT	SEGMENT
?GetCloseOrderType@ioCloseOrderBuff@@QBE?AW4CloseOrderType@1@XZ PROC ; ioCloseOrderBuff::GetCloseOrderType, COMDAT
; _this$ = ecx

; 452  : 	inline CloseOrderType GetCloseOrderType() const { return m_eCloseOrderType; }

  00000	8b 81 e0 09 00
	00		 mov	 eax, DWORD PTR [ecx+2528]
  00006	c3		 ret	 0
?GetCloseOrderType@ioCloseOrderBuff@@QBE?AW4CloseOrderType@1@XZ ENDP ; ioCloseOrderBuff::GetCloseOrderType
_TEXT	ENDS
PUBLIC	?GetType@ioGrowthUpInfo@@QBE?AW4GrowthType@@XZ	; ioGrowthUpInfo::GetType
; Function compile flags: /Ogsp
; File d:\lost saga for developer\youtube\tutorial\source\src\lsclient\iogrowthupinfo.h
;	COMDAT ?GetType@ioGrowthUpInfo@@QBE?AW4GrowthType@@XZ
_TEXT	SEGMENT
?GetType@ioGrowthUpInfo@@QBE?AW4GrowthType@@XZ PROC	; ioGrowthUpInfo::GetType, COMDAT
; _this$ = ecx

; 23   : 	inline GrowthType GetType() const { return m_GrowthType; }

  00000	8b 41 04	 mov	 eax, DWORD PTR [ecx+4]
  00003	c3		 ret	 0
?GetType@ioGrowthUpInfo@@QBE?AW4GrowthType@@XZ ENDP	; ioGrowthUpInfo::GetType
_TEXT	ENDS
PUBLIC	??_R0?AVioGrowthUpInfo@@@8			; ioGrowthUpInfo `RTTI Type Descriptor'
PUBLIC	??_R0?AVioGrowthNormalUpInfo@@@8		; ioGrowthNormalUpInfo `RTTI Type Descriptor'
PUBLIC	?ToNormalUpInfo@@YAPAVioGrowthNormalUpInfo@@PAVioGrowthUpInfo@@@Z ; ToNormalUpInfo
;	COMDAT ??_R0?AVioGrowthUpInfo@@@8
_DATA	SEGMENT
??_R0?AVioGrowthUpInfo@@@8 DD FLAT:??_7type_info@@6B@	; ioGrowthUpInfo `RTTI Type Descriptor'
	DD	00H
	DB	'.?AVioGrowthUpInfo@@', 00H
_DATA	ENDS
;	COMDAT ??_R0?AVioGrowthNormalUpInfo@@@8
_DATA	SEGMENT
??_R0?AVioGrowthNormalUpInfo@@@8 DD FLAT:??_7type_info@@6B@ ; ioGrowthNormalUpInfo `RTTI Type Descriptor'
	DD	00H
	DB	'.?AVioGrowthNormalUpInfo@@', 00H
; Function compile flags: /Ogsp
_DATA	ENDS
;	COMDAT ?ToNormalUpInfo@@YAPAVioGrowthNormalUpInfo@@PAVioGrowthUpInfo@@@Z
_TEXT	SEGMENT
_pUpInfo$ = 8						; size = 4
?ToNormalUpInfo@@YAPAVioGrowthNormalUpInfo@@PAVioGrowthUpInfo@@@Z PROC ; ToNormalUpInfo, COMDAT

; 59   : {

  00000	55		 push	 ebp
  00001	8b ec		 mov	 ebp, esp

; 60   : 	if( !pUpInfo || pUpInfo->GetType() == GT_NONE )

  00003	8b 4d 08	 mov	 ecx, DWORD PTR _pUpInfo$[ebp]
  00006	85 c9		 test	 ecx, ecx
  00008	74 39		 je	 SHORT $LN6@ToNormalUp
  0000a	8b 41 04	 mov	 eax, DWORD PTR [ecx+4]
  0000d	85 c0		 test	 eax, eax
  0000f	74 32		 je	 SHORT $LN6@ToNormalUp

; 62   : 
; 63   : 	if( pUpInfo->GetType() == GT_CHAR_ATTACK || pUpInfo->GetType() == GT_SKILL_ATTACK )

  00011	83 f8 01	 cmp	 eax, 1
  00014	74 2d		 je	 SHORT $LN6@ToNormalUp
  00016	83 f8 07	 cmp	 eax, 7
  00019	74 28		 je	 SHORT $LN6@ToNormalUp

; 64   : 		return NULL;
; 65   : 	if( pUpInfo->GetType() == GT_BLOW_PUSH )

  0001b	83 f8 1e	 cmp	 eax, 30			; 0000001eH

; 66   : 		return NULL;

  0001e	74 23		 je	 SHORT $LN6@ToNormalUp

; 67   : 	if( pUpInfo->GetType() == GT_TELEPORT_ANI_RATE )

  00020	83 f8 20	 cmp	 eax, 32			; 00000020H

; 68   : 		return NULL;

  00023	74 1e		 je	 SHORT $LN6@ToNormalUp

; 69   : 	if( pUpInfo->GetType() == GT_SKILL_ATTACK_FORCE )

  00025	83 f8 1c	 cmp	 eax, 28			; 0000001cH

; 70   : 		return NULL;

  00028	74 19		 je	 SHORT $LN6@ToNormalUp

; 71   : 
; 72   : 	return dynamic_cast< ioGrowthNormalUpInfo* >( pUpInfo );

  0002a	6a 00		 push	 0
  0002c	68 00 00 00 00	 push	 OFFSET ??_R0?AVioGrowthNormalUpInfo@@@8
  00031	68 00 00 00 00	 push	 OFFSET ??_R0?AVioGrowthUpInfo@@@8
  00036	6a 00		 push	 0
  00038	51		 push	 ecx
  00039	e8 00 00 00 00	 call	 ___RTDynamicCast
  0003e	83 c4 14	 add	 esp, 20			; 00000014H

; 73   : }

  00041	5d		 pop	 ebp
  00042	c3		 ret	 0
$LN6@ToNormalUp:

; 61   : 		return NULL;

  00043	33 c0		 xor	 eax, eax

; 73   : }

  00045	5d		 pop	 ebp
  00046	c3		 ret	 0
?ToNormalUpInfo@@YAPAVioGrowthNormalUpInfo@@PAVioGrowthUpInfo@@@Z ENDP ; ToNormalUpInfo
_TEXT	ENDS
PUBLIC	?SetAreaRotation@ioAreaWeapon@@QAEXABUD3DXQUATERNION@@@Z ; ioAreaWeapon::SetAreaRotation
; Function compile flags: /Ogsp
; File d:\lost saga for developer\youtube\tutorial\source\src\lsclient\ioareaweapon.cpp
;	COMDAT ?SetAreaRotation@ioAreaWeapon@@QAEXABUD3DXQUATERNION@@@Z
_TEXT	SEGMENT
_qtTargetRot$ = 8					; size = 4
?SetAreaRotation@ioAreaWeapon@@QAEXABUD3DXQUATERNION@@@Z PROC ; ioAreaWeapon::SetAreaRotation, COMDAT
; _this$ = ecx

; 869  : {

  00000	55		 push	 ebp
  00001	8b ec		 mov	 ebp, esp
  00003	56		 push	 esi

; 870  : 	m_qtRotate = qtTargetRot;

  00004	8b 75 08	 mov	 esi, DWORD PTR _qtTargetRot$[ebp]
  00007	57		 push	 edi
  00008	8d b9 30 01 00
	00		 lea	 edi, DWORD PTR [ecx+304]
  0000e	a5		 movsd
  0000f	a5		 movsd
  00010	a5		 movsd
  00011	a5		 movsd
  00012	5f		 pop	 edi
  00013	5e		 pop	 esi

; 871  : }

  00014	5d		 pop	 ebp
  00015	c2 04 00	 ret	 4
?SetAreaRotation@ioAreaWeapon@@QAEXABUD3DXQUATERNION@@@Z ENDP ; ioAreaWeapon::SetAreaRotation
_TEXT	ENDS
PUBLIC	?SetAreaDirection@ioAreaWeapon@@QAEXABUD3DXVECTOR3@@@Z ; ioAreaWeapon::SetAreaDirection
; Function compile flags: /Ogsp
;	COMDAT ?SetAreaDirection@ioAreaWeapon@@QAEXABUD3DXVECTOR3@@@Z
_TEXT	SEGMENT
_vDir$ = 8						; size = 4
?SetAreaDirection@ioAreaWeapon@@QAEXABUD3DXVECTOR3@@@Z PROC ; ioAreaWeapon::SetAreaDirection, COMDAT
; _this$ = ecx

; 874  : {

  00000	55		 push	 ebp
  00001	8b ec		 mov	 ebp, esp
  00003	56		 push	 esi

; 875  : 	m_vAreaMoveDir = vDir;

  00004	8b 75 08	 mov	 esi, DWORD PTR _vDir$[ebp]
  00007	57		 push	 edi
  00008	8d b9 c8 05 00
	00		 lea	 edi, DWORD PTR [ecx+1480]
  0000e	a5		 movsd
  0000f	a5		 movsd
  00010	a5		 movsd
  00011	5f		 pop	 edi
  00012	5e		 pop	 esi

; 876  : }

  00013	5d		 pop	 ebp
  00014	c2 04 00	 ret	 4
?SetAreaDirection@ioAreaWeapon@@QAEXABUD3DXVECTOR3@@@Z ENDP ; ioAreaWeapon::SetAreaDirection
_TEXT	ENDS
PUBLIC	?IsCreateByStruct@ioAreaWeapon@@QAE_NXZ		; ioAreaWeapon::IsCreateByStruct
; Function compile flags: /Ogsp
;	COMDAT ?IsCreateByStruct@ioAreaWeapon@@QAE_NXZ
_TEXT	SEGMENT
?IsCreateByStruct@ioAreaWeapon@@QAE_NXZ PROC		; ioAreaWeapon::IsCreateByStruct, COMDAT
; _this$ = ecx

; 2360 : 	if( m_CreateType == CT_STRUCT )

  00000	83 b9 2c 02 00
	00 01		 cmp	 DWORD PTR [ecx+556], 1
  00007	0f 94 c0	 sete	 al

; 2361 : 		return true;
; 2362 : 
; 2363 : 	return false;
; 2364 : }

  0000a	c3		 ret	 0
?IsCreateByStruct@ioAreaWeapon@@QAE_NXZ ENDP		; ioAreaWeapon::IsCreateByStruct
_TEXT	ENDS
PUBLIC	__real@4f800000
PUBLIC	__$ArrayPad$
PUBLIC	?CheckAreaAttack@ioAreaWeapon@@IAEXPAVioPlayStage@@_N@Z ; ioAreaWeapon::CheckAreaAttack
EXTRN	?SetCollisionDir@ioAreaEffectWeapon@@QAEXAAUD3DXVECTOR3@@@Z:PROC ; ioAreaEffectWeapon::SetCollisionDir
EXTRN	?UpdateCollisionList@ioAreaEffectWeapon@@QAEXAAV?$vector@PAVioBaseChar@@V?$allocator@PAVioBaseChar@@@std@@@std@@_N@Z:PROC ; ioAreaEffectWeapon::UpdateCollisionList
EXTRN	?SetPosition@ioWeapon@@QAEXABUD3DXVECTOR3@@@Z:PROC ; ioWeapon::SetPosition
EXTRN	__imp_??D@YA?AUD3DXVECTOR3@@ABUD3DXQUATERNION@@ABU0@@Z:PROC
EXTRN	?FindWeapon@ioWeaponManager@@QAEPAVioWeapon@@PAVioBaseChar@@K@Z:PROC ; ioWeaponManager::FindWeapon
EXTRN	?GetSingleton@ioWeaponManager@@SAAAV1@XZ:PROC	; ioWeaponManager::GetSingleton
EXTRN	?GetBaseChar@ioPlayStage@@QAEPAVioBaseChar@@ABVioHashString@@@Z:PROC ; ioPlayStage::GetBaseChar
EXTRN	___security_cookie:DWORD
EXTRN	@__security_check_cookie@4:PROC
;	COMDAT __real@4f800000
; File c:\program files (x86)\microsoft directx sdk (june 2010)\include\d3dx9math.inl
CONST	SEGMENT
__real@4f800000 DD 04f800000r			; 4.29497e+009
; Function compile flags: /Ogsp
; File d:\lost saga for developer\youtube\tutorial\source\src\lsclient\ioareaweapon.cpp
CONST	ENDS
;	COMDAT ?CheckAreaAttack@ioAreaWeapon@@IAEXPAVioPlayStage@@_N@Z
_TEXT	SEGMENT
tv221 = -36						; size = 4
tv217 = -36						; size = 4
_pAreaEffectWeapon$631976 = -32				; size = 4
$T631980 = -28						; size = 12
$T631979 = -16						; size = 12
__$ArrayPad$ = -4					; size = 4
_pStage$ = 8						; size = 4
_bRefresh$ = 12						; size = 1
?CheckAreaAttack@ioAreaWeapon@@IAEXPAVioPlayStage@@_N@Z PROC ; ioAreaWeapon::CheckAreaAttack, COMDAT
; _this$ = ecx

; 2596 : {

  00000	55		 push	 ebp
  00001	8b ec		 mov	 ebp, esp
  00003	83 ec 24	 sub	 esp, 36			; 00000024H
  00006	a1 00 00 00 00	 mov	 eax, DWORD PTR ___security_cookie
  0000b	33 c5		 xor	 eax, ebp
  0000d	89 45 fc	 mov	 DWORD PTR __$ArrayPad$[ebp], eax
  00010	53		 push	 ebx
  00011	8b d9		 mov	 ebx, ecx

; 2597 : 	if( m_AreaType == AT_INOUT )

  00013	8b 83 30 02 00
	00		 mov	 eax, DWORD PTR [ebx+560]
  00019	8b 4d 08	 mov	 ecx, DWORD PTR _pStage$[ebp]
  0001c	83 f8 02	 cmp	 eax, 2
  0001f	0f 84 e9 00 00
	00		 je	 $LN5@CheckAreaA

; 2598 : 		return;
; 2599 : 
; 2600 : 	switch( m_AreaType )

  00025	48		 dec	 eax
  00026	48		 dec	 eax
  00027	0f 84 e1 00 00
	00		 je	 $LN5@CheckAreaA
  0002d	83 e8 03	 sub	 eax, 3
  00030	0f 84 d8 00 00
	00		 je	 $LN5@CheckAreaA

; 2601 : 	{
; 2602 : 	case AT_INOUT:
; 2603 : 	case AT_ATTACK:
; 2604 : 		return;
; 2605 : 	}
; 2606 : 
; 2607 : 	if( m_AreaWeaponState != AWS_ACTION )

  00036	83 7b 50 01	 cmp	 DWORD PTR [ebx+80], 1
  0003a	0f 85 ce 00 00
	00		 jne	 $LN5@CheckAreaA

; 2608 : 		return;
; 2609 : 
; 2610 : 	if( m_dwWeaponBaseIndex == 0 )

  00040	83 bb f8 07 00
	00 00		 cmp	 DWORD PTR [ebx+2040], 0
  00047	0f 84 c1 00 00
	00		 je	 $LN5@CheckAreaA

; 2611 : 		return;
; 2612 : 
; 2613 : 	ioBaseChar *pOwner = pStage->GetBaseChar(m_OwnerName);

  0004d	56		 push	 esi
  0004e	8d 43 54	 lea	 eax, DWORD PTR [ebx+84]
  00051	50		 push	 eax
  00052	e8 00 00 00 00	 call	 ?GetBaseChar@ioPlayStage@@QAEPAVioBaseChar@@ABVioHashString@@@Z ; ioPlayStage::GetBaseChar
  00057	8b f0		 mov	 esi, eax

; 2614 : 	if( pOwner )

  00059	85 f6		 test	 esi, esi
  0005b	0f 84 ac 00 00
	00		 je	 $LN17@CheckAreaA

; 2615 : 	{
; 2616 : 		ioWeapon *pWeapon = g_WeaponMgr.FindWeapon( pOwner, m_dwWeaponBaseIndex );

  00061	ff b3 f8 07 00
	00		 push	 DWORD PTR [ebx+2040]
  00067	56		 push	 esi
  00068	e8 00 00 00 00	 call	 ?GetSingleton@ioWeaponManager@@SAAAV1@XZ ; ioWeaponManager::GetSingleton
  0006d	8b c8		 mov	 ecx, eax
  0006f	e8 00 00 00 00	 call	 ?FindWeapon@ioWeaponManager@@QAEPAVioWeapon@@PAVioBaseChar@@K@Z ; ioWeaponManager::FindWeapon

; 2617 : 		ioAreaEffectWeapon *pAreaEffectWeapon = ToAreaEffectWeapon(pWeapon);

  00074	50		 push	 eax
  00075	e8 00 00 00 00	 call	 ?ToAreaEffectWeapon@@YAPAVioAreaEffectWeapon@@PAVioWeapon@@@Z ; ToAreaEffectWeapon
  0007a	59		 pop	 ecx
  0007b	89 45 e0	 mov	 DWORD PTR _pAreaEffectWeapon$631976[ebp], eax

; 2618 : 		if( pAreaEffectWeapon )

  0007e	85 c0		 test	 eax, eax
  00080	0f 84 87 00 00
	00		 je	 $LN17@CheckAreaA

; 2619 : 		{
; 2620 : 			m_qtRotate = pOwner->GetTargetRot();

  00086	57		 push	 edi
  00087	81 c6 a4 06 00
	00		 add	 esi, 1700		; 000006a4H
  0008d	8d 8b 30 01 00
	00		 lea	 ecx, DWORD PTR [ebx+304]
  00093	8b f9		 mov	 edi, ecx
  00095	a5		 movsd
  00096	a5		 movsd
  00097	a5		 movsd
  00098	a5		 movsd

; 2621 : 			m_vAreaMoveDir = m_qtRotate * D3DXVECTOR3( 0.0f, 0.0f, -FLOAT1 );

  00099	b8 01 00 00 00	 mov	 eax, 1
  0009e	0f 57 c0	 xorps	 xmm0, xmm0
  000a1	89 45 dc	 mov	 DWORD PTR tv221[ebp], eax
  000a4	db 45 dc	 fild	 DWORD PTR tv221[ebp]
  000a7	f3 0f 11 45 f0	 movss	 DWORD PTR $T631979[ebp], xmm0
  000ac	f3 0f 11 45 f4	 movss	 DWORD PTR $T631979[ebp+4], xmm0
  000b1	85 c0		 test	 eax, eax
  000b3	79 06		 jns	 SHORT $LN18@CheckAreaA
  000b5	d8 05 00 00 00
	00		 fadd	 DWORD PTR __real@4f800000
$LN18@CheckAreaA:
  000bb	8d 45 f0	 lea	 eax, DWORD PTR $T631979[ebp]
  000be	d9 e0		 fchs
  000c0	50		 push	 eax
  000c1	d9 5d f8	 fstp	 DWORD PTR $T631979[ebp+8]
  000c4	51		 push	 ecx
  000c5	8d 45 e4	 lea	 eax, DWORD PTR $T631980[ebp]
  000c8	50		 push	 eax
  000c9	ff 15 00 00 00
	00		 call	 DWORD PTR __imp_??D@YA?AUD3DXVECTOR3@@ABUD3DXQUATERNION@@ABU0@@Z

; 2622 : 
; 2623 : 			pAreaEffectWeapon->SetPosition( m_vStartPos );

  000cf	8b 4d e0	 mov	 ecx, DWORD PTR _pAreaEffectWeapon$631976[ebp]
  000d2	8d bb c8 05 00
	00		 lea	 edi, DWORD PTR [ebx+1480]
  000d8	8b f0		 mov	 esi, eax
  000da	89 7d dc	 mov	 DWORD PTR tv217[ebp], edi
  000dd	a5		 movsd
  000de	a5		 movsd
  000df	83 c4 0c	 add	 esp, 12			; 0000000cH
  000e2	8d 83 4c 01 00
	00		 lea	 eax, DWORD PTR [ebx+332]
  000e8	50		 push	 eax
  000e9	a5		 movsd
  000ea	e8 00 00 00 00	 call	 ?SetPosition@ioWeapon@@QAEXABUD3DXVECTOR3@@@Z ; ioWeapon::SetPosition

; 2624 : 			pAreaEffectWeapon->UpdateCollisionList( m_vNewTargetList, bRefresh );

  000ef	ff 75 0c	 push	 DWORD PTR _bRefresh$[ebp]
  000f2	8b 4d e0	 mov	 ecx, DWORD PTR _pAreaEffectWeapon$631976[ebp]
  000f5	81 c3 98 07 00
	00		 add	 ebx, 1944		; 00000798H
  000fb	53		 push	 ebx
  000fc	e8 00 00 00 00	 call	 ?UpdateCollisionList@ioAreaEffectWeapon@@QAEXAAV?$vector@PAVioBaseChar@@V?$allocator@PAVioBaseChar@@@std@@@std@@_N@Z ; ioAreaEffectWeapon::UpdateCollisionList

; 2625 : 			pAreaEffectWeapon->SetCollisionDir( m_vAreaMoveDir );

  00101	ff 75 dc	 push	 DWORD PTR tv217[ebp]
  00104	8b 4d e0	 mov	 ecx, DWORD PTR _pAreaEffectWeapon$631976[ebp]
  00107	e8 00 00 00 00	 call	 ?SetCollisionDir@ioAreaEffectWeapon@@QAEXAAUD3DXVECTOR3@@@Z ; ioAreaEffectWeapon::SetCollisionDir
  0010c	5f		 pop	 edi
$LN17@CheckAreaA:
  0010d	5e		 pop	 esi
$LN5@CheckAreaA:

; 2626 : 		}
; 2627 : 	}
; 2628 : }

  0010e	8b 4d fc	 mov	 ecx, DWORD PTR __$ArrayPad$[ebp]
  00111	33 cd		 xor	 ecx, ebp
  00113	5b		 pop	 ebx
  00114	e8 00 00 00 00	 call	 @__security_check_cookie@4
  00119	c9		 leave
  0011a	c2 08 00	 ret	 8
?CheckAreaAttack@ioAreaWeapon@@IAEXPAVioPlayStage@@_N@Z ENDP ; ioAreaWeapon::CheckAreaAttack
_TEXT	ENDS
PUBLIC	_pStage$GSCopy$
PUBLIC	?ApplySubInfo@ioAreaWeapon@@QAEXAAVSP2Packet@@PAVioPlayStage@@@Z ; ioAreaWeapon::ApplySubInfo
EXTRN	__imp_??1ioHashString@@QAE@XZ:PROC
EXTRN	??5SP2Packet@@QAEAAV0@AAUD3DXVECTOR3@@@Z:PROC	; SP2Packet::operator>>
EXTRN	__imp_?IsEmpty@ioHashString@@QBE_NXZ:PROC
EXTRN	??6SP2Packet@@QAEAAV0@ABVioHashString@@@Z:PROC	; SP2Packet::operator<<
EXTRN	__imp_??0ioHashString@@QAE@XZ:PROC
EXTRN	??5SP2Packet@@QAEAAV0@AAH@Z:PROC		; SP2Packet::operator>>
EXTRN	___CxxFrameHandler3:PROC
EXTRN	__EH_epilog3_GS:PROC
EXTRN	__EH_prolog3_GS:PROC
;	COMDAT xdata$x
; File c:\program files (x86)\microsoft directx sdk (june 2010)\include\d3dx9math.h
xdata$x	SEGMENT
__unwindtable$?ApplySubInfo@ioAreaWeapon@@QAEXAAVSP2Packet@@PAVioPlayStage@@@Z DD 0ffffffffH
	DD	FLAT:__unwindfunclet$?ApplySubInfo@ioAreaWeapon@@QAEXAAVSP2Packet@@PAVioPlayStage@@@Z$0
__ehfuncinfo$?ApplySubInfo@ioAreaWeapon@@QAEXAAVSP2Packet@@PAVioPlayStage@@@Z DD 019930522H
	DD	01H
	DD	FLAT:__unwindtable$?ApplySubInfo@ioAreaWeapon@@QAEXAAVSP2Packet@@PAVioPlayStage@@@Z
	DD	2 DUP(00H)
	DD	2 DUP(00H)
	DD	00H
	DD	01H
; Function compile flags: /Ogsp
; File d:\lost saga for developer\youtube\tutorial\source\src\lsclient\ioareaweapon.cpp
xdata$x	ENDS
;	COMDAT ?ApplySubInfo@ioAreaWeapon@@QAEXAAVSP2Packet@@PAVioPlayStage@@@Z
_TEXT	SEGMENT
_szTargetName$632294 = -60				; size = 16
_pStage$GSCopy$ = -44					; size = 4
_iSubType$ = -40					; size = 4
_iCurTargetCnt$632289 = -36				; size = 4
_i$632290 = -32						; size = 4
_vPos$632298 = -28					; size = 12
__$EHRec$ = -12						; size = 12
_rkPacket$ = 8						; size = 4
_pStage$ = 12						; size = 4
?ApplySubInfo@ioAreaWeapon@@QAEXAAVSP2Packet@@PAVioPlayStage@@@Z PROC ; ioAreaWeapon::ApplySubInfo, COMDAT
; _this$ = ecx

; 3253 : {

  00000	6a 30		 push	 48			; 00000030H
  00002	b8 00 00 00 00	 mov	 eax, __ehhandler$?ApplySubInfo@ioAreaWeapon@@QAEXAAVSP2Packet@@PAVioPlayStage@@@Z
  00007	e8 00 00 00 00	 call	 __EH_prolog3_GS

; 3271 : 					if( pTarget )

  0000c	8b 45 0c	 mov	 eax, DWORD PTR _pStage$[ebp]
  0000f	8b 7d 08	 mov	 edi, DWORD PTR _rkPacket$[ebp]
  00012	89 45 d4	 mov	 DWORD PTR _pStage$GSCopy$[ebp], eax
  00015	8d 45 d8	 lea	 eax, DWORD PTR _iSubType$[ebp]
  00018	50		 push	 eax
  00019	8b cf		 mov	 ecx, edi
  0001b	e8 00 00 00 00	 call	 ??5SP2Packet@@QAEAAV0@AAH@Z ; SP2Packet::operator>>
  00020	83 7d d8 00	 cmp	 DWORD PTR _iSubType$[ebp], 0
  00024	75 7a		 jne	 SHORT $LN3@ApplySubIn

; 3254 : 	int iSubType;
; 3255 : 	rkPacket >> iSubType;
; 3256 : 
; 3257 : 	switch( iSubType )
; 3258 : 	{
; 3259 : 	case ASST_POINT_TO_POINT:
; 3260 : 		{		
; 3261 : 			int iCurTargetCnt;
; 3262 : 			rkPacket >> iCurTargetCnt;

  00026	8d 45 dc	 lea	 eax, DWORD PTR _iCurTargetCnt$632289[ebp]
  00029	50		 push	 eax
  0002a	8b cf		 mov	 ecx, edi
  0002c	e8 00 00 00 00	 call	 ??5SP2Packet@@QAEAAV0@AAH@Z ; SP2Packet::operator>>

; 3263 : 
; 3264 : 			for( int i = 0; i < iCurTargetCnt; ++i )

  00031	83 65 e0 00	 and	 DWORD PTR _i$632290[ebp], 0
  00035	83 7d dc 00	 cmp	 DWORD PTR _iCurTargetCnt$632289[ebp], 0
  00039	7e 65		 jle	 SHORT $LN3@ApplySubIn
$LN5@ApplySubIn:

; 3265 : 			{
; 3266 : 				ioHashString szTargetName;

  0003b	8d 4d c4	 lea	 ecx, DWORD PTR _szTargetName$632294[ebp]
  0003e	ff 15 00 00 00
	00		 call	 DWORD PTR __imp_??0ioHashString@@QAE@XZ
  00044	83 65 fc 00	 and	 DWORD PTR __$EHRec$[ebp+8], 0

; 3267 : 				rkPacket << szTargetName;

  00048	8d 45 c4	 lea	 eax, DWORD PTR _szTargetName$632294[ebp]
  0004b	50		 push	 eax
  0004c	8b cf		 mov	 ecx, edi
  0004e	e8 00 00 00 00	 call	 ??6SP2Packet@@QAEAAV0@ABVioHashString@@@Z ; SP2Packet::operator<<

; 3268 : 				if( !szTargetName.IsEmpty() )

  00053	8d 4d c4	 lea	 ecx, DWORD PTR _szTargetName$632294[ebp]
  00056	ff 15 00 00 00
	00		 call	 DWORD PTR __imp_?IsEmpty@ioHashString@@QBE_NXZ
  0005c	84 c0		 test	 al, al
  0005e	75 28		 jne	 SHORT $LN1@ApplySubIn

; 3269 : 				{
; 3270 : 					ioBaseChar *pTarget = pStage->GetBaseChar( szTargetName );

  00060	8b 4d d4	 mov	 ecx, DWORD PTR _pStage$GSCopy$[ebp]
  00063	8d 45 c4	 lea	 eax, DWORD PTR _szTargetName$632294[ebp]
  00066	50		 push	 eax
  00067	e8 00 00 00 00	 call	 ?GetBaseChar@ioPlayStage@@QAEPAVioBaseChar@@ABVioHashString@@@Z ; ioPlayStage::GetBaseChar
  0006c	8b f0		 mov	 esi, eax

; 3271 : 					if( pTarget )

  0006e	85 f6		 test	 esi, esi
  00070	74 16		 je	 SHORT $LN1@ApplySubIn

; 3272 : 					{	
; 3273 : 						D3DXVECTOR3 vPos;
; 3274 : 						rkPacket >> vPos;

  00072	8d 45 e4	 lea	 eax, DWORD PTR _vPos$632298[ebp]
  00075	50		 push	 eax
  00076	8b cf		 mov	 ecx, edi
  00078	e8 00 00 00 00	 call	 ??5SP2Packet@@QAEAAV0@AAUD3DXVECTOR3@@@Z ; SP2Packet::operator>>

; 3275 : 						pTarget->SetWorldPosition(vPos);

  0007d	8b 06		 mov	 eax, DWORD PTR [esi]
  0007f	8d 4d e4	 lea	 ecx, DWORD PTR _vPos$632298[ebp]
  00082	51		 push	 ecx
  00083	8b ce		 mov	 ecx, esi
  00085	ff 50 44	 call	 DWORD PTR [eax+68]
$LN1@ApplySubIn:

; 3276 : 					}
; 3277 : 				}				
; 3278 : 			}

  00088	83 4d fc ff	 or	 DWORD PTR __$EHRec$[ebp+8], -1
  0008c	8d 4d c4	 lea	 ecx, DWORD PTR _szTargetName$632294[ebp]
  0008f	ff 15 00 00 00
	00		 call	 DWORD PTR __imp_??1ioHashString@@QAE@XZ
  00095	ff 45 e0	 inc	 DWORD PTR _i$632290[ebp]
  00098	8b 45 e0	 mov	 eax, DWORD PTR _i$632290[ebp]
  0009b	3b 45 dc	 cmp	 eax, DWORD PTR _iCurTargetCnt$632289[ebp]
  0009e	7c 9b		 jl	 SHORT $LN5@ApplySubIn
$LN3@ApplySubIn:

; 3279 : 		}
; 3280 : 	}
; 3281 : }

  000a0	e8 00 00 00 00	 call	 __EH_epilog3_GS
  000a5	c2 08 00	 ret	 8
_TEXT	ENDS
;	COMDAT text$x
text$x	SEGMENT
__unwindfunclet$?ApplySubInfo@ioAreaWeapon@@QAEXAAVSP2Packet@@PAVioPlayStage@@@Z$0:
  00000	8d 4d c4	 lea	 ecx, DWORD PTR _szTargetName$632294[ebp]
  00003	ff 25 00 00 00
	00		 jmp	 DWORD PTR __imp_??1ioHashString@@QAE@XZ
__ehhandler$?ApplySubInfo@ioAreaWeapon@@QAEXAAVSP2Packet@@PAVioPlayStage@@@Z:
  00009	8b 54 24 08	 mov	 edx, DWORD PTR [esp+8]
  0000d	8d 42 0c	 lea	 eax, DWORD PTR [edx+12]
  00010	8b 4a c0	 mov	 ecx, DWORD PTR [edx-64]
  00013	33 c8		 xor	 ecx, eax
  00015	e8 00 00 00 00	 call	 @__security_check_cookie@4
  0001a	8b 4a fc	 mov	 ecx, DWORD PTR [edx-4]
  0001d	33 c8		 xor	 ecx, eax
  0001f	e8 00 00 00 00	 call	 @__security_check_cookie@4
  00024	b8 00 00 00 00	 mov	 eax, OFFSET __ehfuncinfo$?ApplySubInfo@ioAreaWeapon@@QAEXAAVSP2Packet@@PAVioPlayStage@@@Z
  00029	e9 00 00 00 00	 jmp	 ___CxxFrameHandler3
text$x	ENDS
?ApplySubInfo@ioAreaWeapon@@QAEXAAVSP2Packet@@PAVioPlayStage@@@Z ENDP ; ioAreaWeapon::ApplySubInfo
PUBLIC	?CheckLiveAreaInChar@ioAreaWeapon@@IAE_NPAVioBaseChar@@PAVioPlayStage@@@Z ; ioAreaWeapon::CheckLiveAreaInChar
EXTRN	__imp_??1ioOrientBox@@QAE@XZ:PROC
EXTRN	__imp_?SetBoxByMinMax@ioOrientBox@@QAEXABUD3DXVECTOR3@@0@Z:PROC
EXTRN	__imp_??0ioOrientBox@@QAE@XZ:PROC
;	COMDAT xdata$x
; File c:\program files (x86)\microsoft directx sdk (june 2010)\include\d3dx9math.h
xdata$x	SEGMENT
__unwindtable$?CheckLiveAreaInChar@ioAreaWeapon@@IAE_NPAVioBaseChar@@PAVioPlayStage@@@Z DD 0ffffffffH
	DD	FLAT:__unwindfunclet$?CheckLiveAreaInChar@ioAreaWeapon@@IAE_NPAVioBaseChar@@PAVioPlayStage@@@Z$0
__ehfuncinfo$?CheckLiveAreaInChar@ioAreaWeapon@@IAE_NPAVioBaseChar@@PAVioPlayStage@@@Z DD 019930522H
	DD	01H
	DD	FLAT:__unwindtable$?CheckLiveAreaInChar@ioAreaWeapon@@IAE_NPAVioBaseChar@@PAVioPlayStage@@@Z
	DD	2 DUP(00H)
	DD	2 DUP(00H)
	DD	00H
	DD	01H
; Function compile flags: /Ogsp
; File d:\lost saga for developer\youtube\tutorial\source\src\lsclient\ioareaweapon.cpp
xdata$x	ENDS
;	COMDAT ?CheckLiveAreaInChar@ioAreaWeapon@@IAE_NPAVioBaseChar@@PAVioPlayStage@@@Z
_TEXT	SEGMENT
_kBuffBox$ = -84					; size = 68
__$EHRec$ = -12						; size = 12
_pChar$ = 8						; size = 4
_pStage$ = 12						; size = 4
?CheckLiveAreaInChar@ioAreaWeapon@@IAE_NPAVioBaseChar@@PAVioPlayStage@@@Z PROC ; ioAreaWeapon::CheckLiveAreaInChar, COMDAT
; _this$ = ecx

; 3284 : {

  00000	6a 48		 push	 72			; 00000048H
  00002	b8 00 00 00 00	 mov	 eax, __ehhandler$?CheckLiveAreaInChar@ioAreaWeapon@@IAE_NPAVioBaseChar@@PAVioPlayStage@@@Z
  00007	e8 00 00 00 00	 call	 __EH_prolog3_GS
  0000c	8b 75 08	 mov	 esi, DWORD PTR _pChar$[ebp]

; 3285 : 	if( !pChar ) return false;

  0000f	33 db		 xor	 ebx, ebx
  00011	8b f9		 mov	 edi, ecx
  00013	3b f3		 cmp	 esi, ebx
  00015	75 04		 jne	 SHORT $LN3@CheckLiveA
$LN11@CheckLiveA:
  00017	32 c0		 xor	 al, al
  00019	eb 53		 jmp	 SHORT $LN4@CheckLiveA
$LN3@CheckLiveA:

; 3286 : 	if( !pStage ) return false;

  0001b	39 5d 0c	 cmp	 DWORD PTR _pStage$[ebp], ebx
  0001e	74 f7		 je	 SHORT $LN11@CheckLiveA

; 3287 : 
; 3288 : 	D3DXVECTOR3 vTargetPos = pChar->GetWorldPosition();

  00020	8b 06		 mov	 eax, DWORD PTR [esi]
  00022	8b ce		 mov	 ecx, esi
  00024	ff 50 70	 call	 DWORD PTR [eax+112]

; 3289 : 
; 3290 : 	//  
; 3291 : 	ioOrientBox kBuffBox;

  00027	8d 4d ac	 lea	 ecx, DWORD PTR _kBuffBox$[ebp]
  0002a	ff 15 00 00 00
	00		 call	 DWORD PTR __imp_??0ioOrientBox@@QAE@XZ

; 3292 : 	kBuffBox.SetBoxByMinMax( m_vMinLivePos, m_vMaxLivePos );

  00030	8d 87 34 07 00
	00		 lea	 eax, DWORD PTR [edi+1844]
  00036	50		 push	 eax
  00037	81 c7 28 07 00
	00		 add	 edi, 1832		; 00000728H
  0003d	57		 push	 edi
  0003e	8d 4d ac	 lea	 ecx, DWORD PTR _kBuffBox$[ebp]
  00041	89 5d fc	 mov	 DWORD PTR __$EHRec$[ebp+8], ebx
  00044	ff 15 00 00 00
	00		 call	 DWORD PTR __imp_?SetBoxByMinMax@ioOrientBox@@QAEXABUD3DXVECTOR3@@0@Z

; 3293 : 
; 3294 : 	D3DXVECTOR3 vCollisionPoint;
; 3295 : 	if( pChar->IsWoundedCollision( kBuffBox ) )

  0004a	8b 06		 mov	 eax, DWORD PTR [esi]
  0004c	53		 push	 ebx
  0004d	8d 4d ac	 lea	 ecx, DWORD PTR _kBuffBox$[ebp]
  00050	51		 push	 ecx
  00051	8b ce		 mov	 ecx, esi
  00053	ff 90 90 00 00
	00		 call	 DWORD PTR [eax+144]
  00059	84 c0		 test	 al, al
  0005b	74 02		 je	 SHORT $LN9@CheckLiveA
  0005d	b3 01		 mov	 bl, 1
$LN9@CheckLiveA:

; 3296 : 		return true;

  0005f	83 4d fc ff	 or	 DWORD PTR __$EHRec$[ebp+8], -1
  00063	8d 4d ac	 lea	 ecx, DWORD PTR _kBuffBox$[ebp]
  00066	ff 15 00 00 00
	00		 call	 DWORD PTR __imp_??1ioOrientBox@@QAE@XZ
  0006c	8a c3		 mov	 al, bl
$LN4@CheckLiveA:

; 3297 : 
; 3298 : 	return false;
; 3299 : }

  0006e	e8 00 00 00 00	 call	 __EH_epilog3_GS
  00073	c2 08 00	 ret	 8
_TEXT	ENDS
;	COMDAT text$x
text$x	SEGMENT
__unwindfunclet$?CheckLiveAreaInChar@ioAreaWeapon@@IAE_NPAVioBaseChar@@PAVioPlayStage@@@Z$0:
  00000	8d 4d ac	 lea	 ecx, DWORD PTR _kBuffBox$[ebp]
  00003	ff 25 00 00 00
	00		 jmp	 DWORD PTR __imp_??1ioOrientBox@@QAE@XZ
__ehhandler$?CheckLiveAreaInChar@ioAreaWeapon@@IAE_NPAVioBaseChar@@PAVioPlayStage@@@Z:
  00009	8b 54 24 08	 mov	 edx, DWORD PTR [esp+8]
  0000d	8d 42 0c	 lea	 eax, DWORD PTR [edx+12]
  00010	8b 4a a8	 mov	 ecx, DWORD PTR [edx-88]
  00013	33 c8		 xor	 ecx, eax
  00015	e8 00 00 00 00	 call	 @__security_check_cookie@4
  0001a	8b 4a fc	 mov	 ecx, DWORD PTR [edx-4]
  0001d	33 c8		 xor	 ecx, eax
  0001f	e8 00 00 00 00	 call	 @__security_check_cookie@4
  00024	b8 00 00 00 00	 mov	 eax, OFFSET __ehfuncinfo$?CheckLiveAreaInChar@ioAreaWeapon@@IAE_NPAVioBaseChar@@PAVioPlayStage@@@Z
  00029	e9 00 00 00 00	 jmp	 ___CxxFrameHandler3
text$x	ENDS
?CheckLiveAreaInChar@ioAreaWeapon@@IAE_NPAVioBaseChar@@PAVioPlayStage@@@Z ENDP ; ioAreaWeapon::CheckLiveAreaInChar
PUBLIC	?CheckLiveAreaInAreaWeapon@ioAreaWeapon@@IAE_NPAVioPlayStage@@@Z ; ioAreaWeapon::CheckLiveAreaInAreaWeapon
;	COMDAT xdata$x
xdata$x	SEGMENT
__unwindtable$?CheckLiveAreaInAreaWeapon@ioAreaWeapon@@IAE_NPAVioPlayStage@@@Z DD 0ffffffffH
	DD	FLAT:__unwindfunclet$?CheckLiveAreaInAreaWeapon@ioAreaWeapon@@IAE_NPAVioPlayStage@@@Z$0
__ehfuncinfo$?CheckLiveAreaInAreaWeapon@ioAreaWeapon@@IAE_NPAVioPlayStage@@@Z DD 019930522H
	DD	01H
	DD	FLAT:__unwindtable$?CheckLiveAreaInAreaWeapon@ioAreaWeapon@@IAE_NPAVioPlayStage@@@Z
	DD	2 DUP(00H)
	DD	2 DUP(00H)
	DD	00H
	DD	01H
; Function compile flags: /Ogsp
xdata$x	ENDS
;	COMDAT ?CheckLiveAreaInAreaWeapon@ioAreaWeapon@@IAE_NPAVioPlayStage@@@Z
_TEXT	SEGMENT
_kBuffBox$ = -84					; size = 68
__$EHRec$ = -12						; size = 12
_pStage$ = 8						; size = 4
?CheckLiveAreaInAreaWeapon@ioAreaWeapon@@IAE_NPAVioPlayStage@@@Z PROC ; ioAreaWeapon::CheckLiveAreaInAreaWeapon, COMDAT
; _this$ = ecx

; 3302 : {

  00000	6a 48		 push	 72			; 00000048H
  00002	b8 00 00 00 00	 mov	 eax, __ehhandler$?CheckLiveAreaInAreaWeapon@ioAreaWeapon@@IAE_NPAVioPlayStage@@@Z
  00007	e8 00 00 00 00	 call	 __EH_prolog3_GS
  0000c	8b f1		 mov	 esi, ecx

; 3303 : 	//  
; 3304 : 	ioOrientBox kBuffBox;

  0000e	8d 4d ac	 lea	 ecx, DWORD PTR _kBuffBox$[ebp]
  00011	ff 15 00 00 00
	00		 call	 DWORD PTR __imp_??0ioOrientBox@@QAE@XZ
  00017	83 65 fc 00	 and	 DWORD PTR __$EHRec$[ebp+8], 0

; 3305 : 	kBuffBox.SetBoxByMinMax( m_vMinLivePos, m_vMaxLivePos );

  0001b	8d 86 34 07 00
	00		 lea	 eax, DWORD PTR [esi+1844]
  00021	50		 push	 eax
  00022	8d be 28 07 00
	00		 lea	 edi, DWORD PTR [esi+1832]
  00028	57		 push	 edi
  00029	8d 4d ac	 lea	 ecx, DWORD PTR _kBuffBox$[ebp]
  0002c	ff 15 00 00 00
	00		 call	 DWORD PTR __imp_?SetBoxByMinMax@ioOrientBox@@QAEXABUD3DXVECTOR3@@0@Z

; 3306 : 
; 3307 : 	//  
; 3308 : 	if( !COMPARE( m_vStartPos.x, m_vMinLivePos.x, m_vMaxLivePos.z ) )

  00032	f3 0f 10 8e 4c
	01 00 00	 movss	 xmm1, DWORD PTR [esi+332]
  0003a	f3 0f 10 17	 movss	 xmm2, DWORD PTR [edi]
  0003e	0f 57 c0	 xorps	 xmm0, xmm0
  00041	0f 5a c1	 cvtps2pd xmm0, xmm1
  00044	0f 5a d2	 cvtps2pd xmm2, xmm2
  00047	66 0f 2f c2	 comisd	 xmm0, xmm2
  0004b	0f 82 80 00 00
	00		 jb	 $LN5@CheckLiveA@2
  00051	f3 0f 10 86 3c
	07 00 00	 movss	 xmm0, DWORD PTR [esi+1852]
  00059	0f 5a c9	 cvtps2pd xmm1, xmm1
  0005c	0f 5a d0	 cvtps2pd xmm2, xmm0
  0005f	66 0f 2f d1	 comisd	 xmm2, xmm1
  00063	76 6c		 jbe	 SHORT $LN5@CheckLiveA@2

; 3310 : 
; 3311 : 	//  
; 3312 : 	if( !COMPARE( m_vStartPos.y, m_vMinLivePos.y, m_vMaxLivePos.y ) )

  00065	f3 0f 10 8e 50
	01 00 00	 movss	 xmm1, DWORD PTR [esi+336]
  0006d	f3 0f 10 9e 2c
	07 00 00	 movss	 xmm3, DWORD PTR [esi+1836]
  00075	0f 57 d2	 xorps	 xmm2, xmm2
  00078	0f 5a d1	 cvtps2pd xmm2, xmm1
  0007b	0f 5a db	 cvtps2pd xmm3, xmm3
  0007e	66 0f 2f d3	 comisd	 xmm2, xmm3
  00082	72 4d		 jb	 SHORT $LN5@CheckLiveA@2
  00084	f3 0f 10 96 38
	07 00 00	 movss	 xmm2, DWORD PTR [esi+1848]
  0008c	0f 5a c9	 cvtps2pd xmm1, xmm1
  0008f	0f 5a d2	 cvtps2pd xmm2, xmm2
  00092	66 0f 2f d1	 comisd	 xmm2, xmm1
  00096	76 39		 jbe	 SHORT $LN5@CheckLiveA@2

; 3313 : 		return false;
; 3314 : 
; 3315 : 	//  
; 3316 : 	if( !COMPARE( m_vStartPos.z, m_vMinLivePos.z, m_vMaxLivePos.z ) )

  00098	f3 0f 10 8e 54
	01 00 00	 movss	 xmm1, DWORD PTR [esi+340]
  000a0	f3 0f 10 9e 30
	07 00 00	 movss	 xmm3, DWORD PTR [esi+1840]
  000a8	0f 5a d1	 cvtps2pd xmm2, xmm1
  000ab	0f 5a db	 cvtps2pd xmm3, xmm3
  000ae	66 0f 2f d3	 comisd	 xmm2, xmm3
  000b2	72 1d		 jb	 SHORT $LN5@CheckLiveA@2
  000b4	0f 5a c9	 cvtps2pd xmm1, xmm1
  000b7	0f 5a c0	 cvtps2pd xmm0, xmm0
  000ba	66 0f 2f c1	 comisd	 xmm0, xmm1
  000be	76 11		 jbe	 SHORT $LN5@CheckLiveA@2

; 3317 : 		return false;
; 3318 : 
; 3319 : 	return true;

  000c0	83 4d fc ff	 or	 DWORD PTR __$EHRec$[ebp+8], -1
  000c4	8d 4d ac	 lea	 ecx, DWORD PTR _kBuffBox$[ebp]
  000c7	ff 15 00 00 00
	00		 call	 DWORD PTR __imp_??1ioOrientBox@@QAE@XZ
  000cd	b0 01		 mov	 al, 1
  000cf	eb 0f		 jmp	 SHORT $LN7@CheckLiveA@2
$LN5@CheckLiveA@2:

; 3309 : 		return false;

  000d1	83 4d fc ff	 or	 DWORD PTR __$EHRec$[ebp+8], -1
  000d5	8d 4d ac	 lea	 ecx, DWORD PTR _kBuffBox$[ebp]
  000d8	ff 15 00 00 00
	00		 call	 DWORD PTR __imp_??1ioOrientBox@@QAE@XZ
  000de	32 c0		 xor	 al, al
$LN7@CheckLiveA@2:

; 3320 : }

  000e0	e8 00 00 00 00	 call	 __EH_epilog3_GS
  000e5	c2 04 00	 ret	 4
_TEXT	ENDS
;	COMDAT text$x
text$x	SEGMENT
__unwindfunclet$?CheckLiveAreaInAreaWeapon@ioAreaWeapon@@IAE_NPAVioPlayStage@@@Z$0:
  00000	8d 4d ac	 lea	 ecx, DWORD PTR _kBuffBox$[ebp]
  00003	ff 25 00 00 00
	00		 jmp	 DWORD PTR __imp_??1ioOrientBox@@QAE@XZ
__ehhandler$?CheckLiveAreaInAreaWeapon@ioAreaWeapon@@IAE_NPAVioPlayStage@@@Z:
  00009	8b 54 24 08	 mov	 edx, DWORD PTR [esp+8]
  0000d	8d 42 0c	 lea	 eax, DWORD PTR [edx+12]
  00010	8b 4a a8	 mov	 ecx, DWORD PTR [edx-88]
  00013	33 c8		 xor	 ecx, eax
  00015	e8 00 00 00 00	 call	 @__security_check_cookie@4
  0001a	8b 4a fc	 mov	 ecx, DWORD PTR [edx-4]
  0001d	33 c8		 xor	 ecx, eax
  0001f	e8 00 00 00 00	 call	 @__security_check_cookie@4
  00024	b8 00 00 00 00	 mov	 eax, OFFSET __ehfuncinfo$?CheckLiveAreaInAreaWeapon@ioAreaWeapon@@IAE_NPAVioPlayStage@@@Z
  00029	e9 00 00 00 00	 jmp	 ___CxxFrameHandler3
text$x	ENDS
?CheckLiveAreaInAreaWeapon@ioAreaWeapon@@IAE_NPAVioPlayStage@@@Z ENDP ; ioAreaWeapon::CheckLiveAreaInAreaWeapon
PUBLIC	?SetUsedTrace@ioAreaWeapon@@QAEX_N@Z		; ioAreaWeapon::SetUsedTrace
; Function compile flags: /Ogsp
;	COMDAT ?SetUsedTrace@ioAreaWeapon@@QAEX_N@Z
_TEXT	SEGMENT
_bUsed$ = 8						; size = 1
?SetUsedTrace@ioAreaWeapon@@QAEX_N@Z PROC		; ioAreaWeapon::SetUsedTrace, COMDAT
; _this$ = ecx

; 3328 : {

  00000	55		 push	 ebp
  00001	8b ec		 mov	 ebp, esp

; 3329 : 	m_bUsedTrace = bUsed;

  00003	8a 45 08	 mov	 al, BYTE PTR _bUsed$[ebp]
  00006	88 81 48 06 00
	00		 mov	 BYTE PTR [ecx+1608], al

; 3330 : }

  0000c	5d		 pop	 ebp
  0000d	c2 04 00	 ret	 4
?SetUsedTrace@ioAreaWeapon@@QAEX_N@Z ENDP		; ioAreaWeapon::SetUsedTrace
_TEXT	ENDS
PUBLIC	?SetAreaWeaponMapIndex@ioAreaWeapon@@QAEXK@Z	; ioAreaWeapon::SetAreaWeaponMapIndex
; Function compile flags: /Ogsp
;	COMDAT ?SetAreaWeaponMapIndex@ioAreaWeapon@@QAEXK@Z
_TEXT	SEGMENT
_dwIndex$ = 8						; size = 4
?SetAreaWeaponMapIndex@ioAreaWeapon@@QAEXK@Z PROC	; ioAreaWeapon::SetAreaWeaponMapIndex, COMDAT
; _this$ = ecx

; 3333 : {

  00000	55		 push	 ebp
  00001	8b ec		 mov	 ebp, esp

; 3334 : 	m_dwAreaWeaponMapIndex = dwIndex;

  00003	8b 45 08	 mov	 eax, DWORD PTR _dwIndex$[ebp]
  00006	89 41 18	 mov	 DWORD PTR [ecx+24], eax

; 3335 : }

  00009	5d		 pop	 ebp
  0000a	c2 04 00	 ret	 4
?SetAreaWeaponMapIndex@ioAreaWeapon@@QAEXK@Z ENDP	; ioAreaWeapon::SetAreaWeaponMapIndex
_TEXT	ENDS
PUBLIC	?SetTraceTarget@ioAreaWeapon@@QAEXABVioHashString@@@Z ; ioAreaWeapon::SetTraceTarget
EXTRN	__imp_??4ioHashString@@QAEAAV0@ABV0@@Z:PROC
; Function compile flags: /Ogsp
;	COMDAT ?SetTraceTarget@ioAreaWeapon@@QAEXABVioHashString@@@Z
_TEXT	SEGMENT
_szName$ = 8						; size = 4
?SetTraceTarget@ioAreaWeapon@@QAEXABVioHashString@@@Z PROC ; ioAreaWeapon::SetTraceTarget, COMDAT
; _this$ = ecx

; 3338 : {

  00000	55		 push	 ebp
  00001	8b ec		 mov	 ebp, esp

; 3339 : 	m_TraceTarget = szName;

  00003	81 c1 b4 06 00
	00		 add	 ecx, 1716		; 000006b4H

; 3340 : }

  00009	5d		 pop	 ebp

; 3339 : 	m_TraceTarget = szName;

  0000a	ff 25 00 00 00
	00		 jmp	 DWORD PTR __imp_??4ioHashString@@QAEAAV0@ABV0@@Z
?SetTraceTarget@ioAreaWeapon@@QAEXABVioHashString@@@Z ENDP ; ioAreaWeapon::SetTraceTarget
_TEXT	ENDS
PUBLIC	?SetCreateWeaponIndex@ioAreaWeapon@@QAEXK@Z	; ioAreaWeapon::SetCreateWeaponIndex
; Function compile flags: /Ogsp
;	COMDAT ?SetCreateWeaponIndex@ioAreaWeapon@@QAEXK@Z
_TEXT	SEGMENT
_dwIndex$ = 8						; size = 4
?SetCreateWeaponIndex@ioAreaWeapon@@QAEXK@Z PROC	; ioAreaWeapon::SetCreateWeaponIndex, COMDAT
; _this$ = ecx

; 3364 : {

  00000	55		 push	 ebp
  00001	8b ec		 mov	 ebp, esp

; 3365 : 	m_dwCreateWeaponIndex = dwIndex;

  00003	8b 45 08	 mov	 eax, DWORD PTR _dwIndex$[ebp]
  00006	89 41 1c	 mov	 DWORD PTR [ecx+28], eax

; 3366 : }

  00009	5d		 pop	 ebp
  0000a	c2 04 00	 ret	 4
?SetCreateWeaponIndex@ioAreaWeapon@@QAEXK@Z ENDP	; ioAreaWeapon::SetCreateWeaponIndex
_TEXT	ENDS
PUBLIC	??0tagGenerateInfo@@QAE@XZ			; tagGenerateInfo::tagGenerateInfo
; Function compile flags: /Ogsp
;	COMDAT ??0tagGenerateInfo@@QAE@XZ
_TEXT	SEGMENT
??0tagGenerateInfo@@QAE@XZ PROC				; tagGenerateInfo::tagGenerateInfo, COMDAT
; _this$ = ecx
  00000	8b c1		 mov	 eax, ecx
  00002	c3		 ret	 0
??0tagGenerateInfo@@QAE@XZ ENDP				; tagGenerateInfo::tagGenerateInfo
_TEXT	ENDS
PUBLIC	??1RefreshCollisionInfo@ioAreaWeapon@@QAE@XZ	; ioAreaWeapon::RefreshCollisionInfo::~RefreshCollisionInfo
; Function compile flags: /Ogsp
;	COMDAT ??1RefreshCollisionInfo@ioAreaWeapon@@QAE@XZ
_TEXT	SEGMENT
??1RefreshCollisionInfo@ioAreaWeapon@@QAE@XZ PROC	; ioAreaWeapon::RefreshCollisionInfo::~RefreshCollisionInfo, COMDAT
; _this$ = ecx
  00000	ff 25 00 00 00
	00		 jmp	 DWORD PTR __imp_??1ioHashString@@QAE@XZ
??1RefreshCollisionInfo@ioAreaWeapon@@QAE@XZ ENDP	; ioAreaWeapon::RefreshCollisionInfo::~RefreshCollisionInfo
_TEXT	ENDS
PUBLIC	?empty@?$vector@VioHashString@@V?$allocator@VioHashString@@@std@@@std@@QBE_NXZ ; std::vector<ioHashString,std::allocator<ioHashString> >::empty
; Function compile flags: /Ogsp
; File c:\program files (x86)\microsoft visual studio 10.0\vc\include\vector
;	COMDAT ?empty@?$vector@VioHashString@@V?$allocator@VioHashString@@@std@@@std@@QBE_NXZ
_TEXT	SEGMENT
?empty@?$vector@VioHashString@@V?$allocator@VioHashString@@@std@@@std@@QBE_NXZ PROC ; std::vector<ioHashString,std::allocator<ioHashString> >::empty, COMDAT
; _this$ = ecx

; 889  : 		return (this->_Myfirst == this->_Mylast);

  00000	8b 01		 mov	 eax, DWORD PTR [ecx]
  00002	2b 41 04	 sub	 eax, DWORD PTR [ecx+4]
  00005	f7 d8		 neg	 eax
  00007	1b c0		 sbb	 eax, eax
  00009	40		 inc	 eax

; 890  : 		}

  0000a	c3		 ret	 0
?empty@?$vector@VioHashString@@V?$allocator@VioHashString@@@std@@@std@@QBE_NXZ ENDP ; std::vector<ioHashString,std::allocator<ioHashString> >::empty
_TEXT	ENDS
PUBLIC	??A?$vector@VioHashString@@V?$allocator@VioHashString@@@std@@@std@@QAEAAVioHashString@@I@Z ; std::vector<ioHashString,std::allocator<ioHashString> >::operator[]
; Function compile flags: /Ogsp
;	COMDAT ??A?$vector@VioHashString@@V?$allocator@VioHashString@@@std@@@std@@QAEAAVioHashString@@I@Z
_TEXT	SEGMENT
__Pos$ = 8						; size = 4
??A?$vector@VioHashString@@V?$allocator@VioHashString@@@std@@@std@@QAEAAVioHashString@@I@Z PROC ; std::vector<ioHashString,std::allocator<ioHashString> >::operator[], COMDAT
; _this$ = ecx

; 928  : 		{	// subscript mutable sequence

  00000	55		 push	 ebp
  00001	8b ec		 mov	 ebp, esp

; 929  :  #if _ITERATOR_DEBUG_LEVEL == 2
; 930  : 		if (size() <= _Pos)
; 931  : 			{	// report error
; 932  : 			_DEBUG_ERROR("vector subscript out of range");
; 933  : 			_SCL_SECURE_OUT_OF_RANGE;
; 934  : 			}
; 935  : 
; 936  :  #elif _ITERATOR_DEBUG_LEVEL == 1
; 937  : 		_SCL_SECURE_VALIDATE_RANGE(_Pos < size());
; 938  :  #endif /* _ITERATOR_DEBUG_LEVEL */
; 939  : 
; 940  : 		return (*(this->_Myfirst + _Pos));

  00003	8b 45 08	 mov	 eax, DWORD PTR __Pos$[ebp]
  00006	c1 e0 04	 shl	 eax, 4
  00009	03 01		 add	 eax, DWORD PTR [ecx]

; 941  : 		}

  0000b	5d		 pop	 ebp
  0000c	c2 04 00	 ret	 4
??A?$vector@VioHashString@@V?$allocator@VioHashString@@@std@@@std@@QAEAAVioHashString@@I@Z ENDP ; std::vector<ioHashString,std::allocator<ioHashString> >::operator[]
_TEXT	ENDS
PUBLIC	??A?$vector@UD3DXVECTOR3@@V?$allocator@UD3DXVECTOR3@@@std@@@std@@QAEAAUD3DXVECTOR3@@I@Z ; std::vector<D3DXVECTOR3,std::allocator<D3DXVECTOR3> >::operator[]
; Function compile flags: /Ogsp
;	COMDAT ??A?$vector@UD3DXVECTOR3@@V?$allocator@UD3DXVECTOR3@@@std@@@std@@QAEAAUD3DXVECTOR3@@I@Z
_TEXT	SEGMENT
__Pos$ = 8						; size = 4
??A?$vector@UD3DXVECTOR3@@V?$allocator@UD3DXVECTOR3@@@std@@@std@@QAEAAUD3DXVECTOR3@@I@Z PROC ; std::vector<D3DXVECTOR3,std::allocator<D3DXVECTOR3> >::operator[], COMDAT
; _this$ = ecx

; 928  : 		{	// subscript mutable sequence

  00000	55		 push	 ebp
  00001	8b ec		 mov	 ebp, esp

; 929  :  #if _ITERATOR_DEBUG_LEVEL == 2
; 930  : 		if (size() <= _Pos)
; 931  : 			{	// report error
; 932  : 			_DEBUG_ERROR("vector subscript out of range");
; 933  : 			_SCL_SECURE_OUT_OF_RANGE;
; 934  : 			}
; 935  : 
; 936  :  #elif _ITERATOR_DEBUG_LEVEL == 1
; 937  : 		_SCL_SECURE_VALIDATE_RANGE(_Pos < size());
; 938  :  #endif /* _ITERATOR_DEBUG_LEVEL */
; 939  : 
; 940  : 		return (*(this->_Myfirst + _Pos));

  00003	8b 45 08	 mov	 eax, DWORD PTR __Pos$[ebp]
  00006	6b c0 0c	 imul	 eax, 12			; 0000000cH
  00009	03 01		 add	 eax, DWORD PTR [ecx]

; 941  : 		}

  0000b	5d		 pop	 ebp
  0000c	c2 04 00	 ret	 4
??A?$vector@UD3DXVECTOR3@@V?$allocator@UD3DXVECTOR3@@@std@@@std@@QAEAAUD3DXVECTOR3@@I@Z ENDP ; std::vector<D3DXVECTOR3,std::allocator<D3DXVECTOR3> >::operator[]
_TEXT	ENDS
PUBLIC	?size@?$vector@UChangeMoveInfo@@V?$allocator@UChangeMoveInfo@@@std@@@std@@QBEIXZ ; std::vector<ChangeMoveInfo,std::allocator<ChangeMoveInfo> >::size
; Function compile flags: /Ogsp
;	COMDAT ?size@?$vector@UChangeMoveInfo@@V?$allocator@UChangeMoveInfo@@@std@@@std@@QBEIXZ
_TEXT	SEGMENT
?size@?$vector@UChangeMoveInfo@@V?$allocator@UChangeMoveInfo@@@std@@@std@@QBEIXZ PROC ; std::vector<ChangeMoveInfo,std::allocator<ChangeMoveInfo> >::size, COMDAT
; _this$ = ecx

; 879  : 		return (this->_Mylast - this->_Myfirst);

  00000	8b 41 04	 mov	 eax, DWORD PTR [ecx+4]
  00003	2b 01		 sub	 eax, DWORD PTR [ecx]
  00005	c1 f8 04	 sar	 eax, 4

; 880  : 		}

  00008	c3		 ret	 0
?size@?$vector@UChangeMoveInfo@@V?$allocator@UChangeMoveInfo@@@std@@@std@@QBEIXZ ENDP ; std::vector<ChangeMoveInfo,std::allocator<ChangeMoveInfo> >::size
_TEXT	ENDS
PUBLIC	?empty@?$vector@UChangeMoveInfo@@V?$allocator@UChangeMoveInfo@@@std@@@std@@QBE_NXZ ; std::vector<ChangeMoveInfo,std::allocator<ChangeMoveInfo> >::empty
; Function compile flags: /Ogsp
;	COMDAT ?empty@?$vector@UChangeMoveInfo@@V?$allocator@UChangeMoveInfo@@@std@@@std@@QBE_NXZ
_TEXT	SEGMENT
?empty@?$vector@UChangeMoveInfo@@V?$allocator@UChangeMoveInfo@@@std@@@std@@QBE_NXZ PROC ; std::vector<ChangeMoveInfo,std::allocator<ChangeMoveInfo> >::empty, COMDAT
; _this$ = ecx

; 889  : 		return (this->_Myfirst == this->_Mylast);

  00000	8b 01		 mov	 eax, DWORD PTR [ecx]
  00002	2b 41 04	 sub	 eax, DWORD PTR [ecx+4]
  00005	f7 d8		 neg	 eax
  00007	1b c0		 sbb	 eax, eax
  00009	40		 inc	 eax

; 890  : 		}

  0000a	c3		 ret	 0
?empty@?$vector@UChangeMoveInfo@@V?$allocator@UChangeMoveInfo@@@std@@@std@@QBE_NXZ ENDP ; std::vector<ChangeMoveInfo,std::allocator<ChangeMoveInfo> >::empty
_TEXT	ENDS
PUBLIC	?size@?$vector@PAVioBaseChar@@V?$allocator@PAVioBaseChar@@@std@@@std@@QBEIXZ ; std::vector<ioBaseChar *,std::allocator<ioBaseChar *> >::size
; Function compile flags: /Ogsp
;	COMDAT ?size@?$vector@PAVioBaseChar@@V?$allocator@PAVioBaseChar@@@std@@@std@@QBEIXZ
_TEXT	SEGMENT
?size@?$vector@PAVioBaseChar@@V?$allocator@PAVioBaseChar@@@std@@@std@@QBEIXZ PROC ; std::vector<ioBaseChar *,std::allocator<ioBaseChar *> >::size, COMDAT
; _this$ = ecx

; 879  : 		return (this->_Mylast - this->_Myfirst);

  00000	8b 41 04	 mov	 eax, DWORD PTR [ecx+4]
  00003	2b 01		 sub	 eax, DWORD PTR [ecx]
  00005	c1 f8 02	 sar	 eax, 2

; 880  : 		}

  00008	c3		 ret	 0
?size@?$vector@PAVioBaseChar@@V?$allocator@PAVioBaseChar@@@std@@@std@@QBEIXZ ENDP ; std::vector<ioBaseChar *,std::allocator<ioBaseChar *> >::size
_TEXT	ENDS
PUBLIC	??A?$vector@PAVioBaseChar@@V?$allocator@PAVioBaseChar@@@std@@@std@@QAEAAPAVioBaseChar@@I@Z ; std::vector<ioBaseChar *,std::allocator<ioBaseChar *> >::operator[]
; Function compile flags: /Ogsp
;	COMDAT ??A?$vector@PAVioBaseChar@@V?$allocator@PAVioBaseChar@@@std@@@std@@QAEAAPAVioBaseChar@@I@Z
_TEXT	SEGMENT
__Pos$ = 8						; size = 4
??A?$vector@PAVioBaseChar@@V?$allocator@PAVioBaseChar@@@std@@@std@@QAEAAPAVioBaseChar@@I@Z PROC ; std::vector<ioBaseChar *,std::allocator<ioBaseChar *> >::operator[], COMDAT
; _this$ = ecx

; 928  : 		{	// subscript mutable sequence

  00000	55		 push	 ebp
  00001	8b ec		 mov	 ebp, esp

; 929  :  #if _ITERATOR_DEBUG_LEVEL == 2
; 930  : 		if (size() <= _Pos)
; 931  : 			{	// report error
; 932  : 			_DEBUG_ERROR("vector subscript out of range");
; 933  : 			_SCL_SECURE_OUT_OF_RANGE;
; 934  : 			}
; 935  : 
; 936  :  #elif _ITERATOR_DEBUG_LEVEL == 1
; 937  : 		_SCL_SECURE_VALIDATE_RANGE(_Pos < size());
; 938  :  #endif /* _ITERATOR_DEBUG_LEVEL */
; 939  : 
; 940  : 		return (*(this->_Myfirst + _Pos));

  00003	8b 01		 mov	 eax, DWORD PTR [ecx]
  00005	8b 4d 08	 mov	 ecx, DWORD PTR __Pos$[ebp]
  00008	8d 04 88	 lea	 eax, DWORD PTR [eax+ecx*4]

; 941  : 		}

  0000b	5d		 pop	 ebp
  0000c	c2 04 00	 ret	 4
??A?$vector@PAVioBaseChar@@V?$allocator@PAVioBaseChar@@@std@@@std@@QAEAAPAVioBaseChar@@I@Z ENDP ; std::vector<ioBaseChar *,std::allocator<ioBaseChar *> >::operator[]
_TEXT	ENDS
PUBLIC	?empty@?$vector@UtagGenerateInfo@@V?$allocator@UtagGenerateInfo@@@std@@@std@@QBE_NXZ ; std::vector<tagGenerateInfo,std::allocator<tagGenerateInfo> >::empty
; Function compile flags: /Ogsp
;	COMDAT ?empty@?$vector@UtagGenerateInfo@@V?$allocator@UtagGenerateInfo@@@std@@@std@@QBE_NXZ
_TEXT	SEGMENT
?empty@?$vector@UtagGenerateInfo@@V?$allocator@UtagGenerateInfo@@@std@@@std@@QBE_NXZ PROC ; std::vector<tagGenerateInfo,std::allocator<tagGenerateInfo> >::empty, COMDAT
; _this$ = ecx

; 889  : 		return (this->_Myfirst == this->_Mylast);

  00000	8b 01		 mov	 eax, DWORD PTR [ecx]
  00002	2b 41 04	 sub	 eax, DWORD PTR [ecx+4]
  00005	f7 d8		 neg	 eax
  00007	1b c0		 sbb	 eax, eax
  00009	40		 inc	 eax

; 890  : 		}

  0000a	c3		 ret	 0
?empty@?$vector@UtagGenerateInfo@@V?$allocator@UtagGenerateInfo@@@std@@@std@@QBE_NXZ ENDP ; std::vector<tagGenerateInfo,std::allocator<tagGenerateInfo> >::empty
_TEXT	ENDS
PUBLIC	?size@?$vector@URefreshCollisionInfo@ioAreaWeapon@@V?$allocator@URefreshCollisionInfo@ioAreaWeapon@@@std@@@std@@QBEIXZ ; std::vector<ioAreaWeapon::RefreshCollisionInfo,std::allocator<ioAreaWeapon::RefreshCollisionInfo> >::size
; Function compile flags: /Ogsp
;	COMDAT ?size@?$vector@URefreshCollisionInfo@ioAreaWeapon@@V?$allocator@URefreshCollisionInfo@ioAreaWeapon@@@std@@@std@@QBEIXZ
_TEXT	SEGMENT
?size@?$vector@URefreshCollisionInfo@ioAreaWeapon@@V?$allocator@URefreshCollisionInfo@ioAreaWeapon@@@std@@@std@@QBEIXZ PROC ; std::vector<ioAreaWeapon::RefreshCollisionInfo,std::allocator<ioAreaWeapon::RefreshCollisionInfo> >::size, COMDAT
; _this$ = ecx

; 879  : 		return (this->_Mylast - this->_Myfirst);

  00000	8b 41 04	 mov	 eax, DWORD PTR [ecx+4]
  00003	2b 01		 sub	 eax, DWORD PTR [ecx]
  00005	6a 14		 push	 20			; 00000014H
  00007	99		 cdq
  00008	59		 pop	 ecx
  00009	f7 f9		 idiv	 ecx

; 880  : 		}

  0000b	c3		 ret	 0
?size@?$vector@URefreshCollisionInfo@ioAreaWeapon@@V?$allocator@URefreshCollisionInfo@ioAreaWeapon@@@std@@@std@@QBEIXZ ENDP ; std::vector<ioAreaWeapon::RefreshCollisionInfo,std::allocator<ioAreaWeapon::RefreshCollisionInfo> >::size
_TEXT	ENDS
PUBLIC	??A?$vector@URefreshCollisionInfo@ioAreaWeapon@@V?$allocator@URefreshCollisionInfo@ioAreaWeapon@@@std@@@std@@QAEAAURefreshCollisionInfo@ioAreaWeapon@@I@Z ; std::vector<ioAreaWeapon::RefreshCollisionInfo,std::allocator<ioAreaWeapon::RefreshCollisionInfo> >::operator[]
; Function compile flags: /Ogsp
;	COMDAT ??A?$vector@URefreshCollisionInfo@ioAreaWeapon@@V?$allocator@URefreshCollisionInfo@ioAreaWeapon@@@std@@@std@@QAEAAURefreshCollisionInfo@ioAreaWeapon@@I@Z
_TEXT	SEGMENT
__Pos$ = 8						; size = 4
??A?$vector@URefreshCollisionInfo@ioAreaWeapon@@V?$allocator@URefreshCollisionInfo@ioAreaWeapon@@@std@@@std@@QAEAAURefreshCollisionInfo@ioAreaWeapon@@I@Z PROC ; std::vector<ioAreaWeapon::RefreshCollisionInfo,std::allocator<ioAreaWeapon::RefreshCollisionInfo> >::operator[], COMDAT
; _this$ = ecx

; 928  : 		{	// subscript mutable sequence

  00000	55		 push	 ebp
  00001	8b ec		 mov	 ebp, esp

; 929  :  #if _ITERATOR_DEBUG_LEVEL == 2
; 930  : 		if (size() <= _Pos)
; 931  : 			{	// report error
; 932  : 			_DEBUG_ERROR("vector subscript out of range");
; 933  : 			_SCL_SECURE_OUT_OF_RANGE;
; 934  : 			}
; 935  : 
; 936  :  #elif _ITERATOR_DEBUG_LEVEL == 1
; 937  : 		_SCL_SECURE_VALIDATE_RANGE(_Pos < size());
; 938  :  #endif /* _ITERATOR_DEBUG_LEVEL */
; 939  : 
; 940  : 		return (*(this->_Myfirst + _Pos));

  00003	8b 45 08	 mov	 eax, DWORD PTR __Pos$[ebp]
  00006	6b c0 14	 imul	 eax, 20			; 00000014H
  00009	03 01		 add	 eax, DWORD PTR [ecx]

; 941  : 		}

  0000b	5d		 pop	 ebp
  0000c	c2 04 00	 ret	 4
??A?$vector@URefreshCollisionInfo@ioAreaWeapon@@V?$allocator@URefreshCollisionInfo@ioAreaWeapon@@@std@@@std@@QAEAAURefreshCollisionInfo@ioAreaWeapon@@I@Z ENDP ; std::vector<ioAreaWeapon::RefreshCollisionInfo,std::allocator<ioAreaWeapon::RefreshCollisionInfo> >::operator[]
_TEXT	ENDS
PUBLIC	??0?$_Vector_const_iterator@V?$_Vector_val@PAVioBaseChar@@V?$allocator@PAVioBaseChar@@@std@@@std@@@std@@QAE@XZ ; std::_Vector_const_iterator<std::_Vector_val<ioBaseChar *,std::allocator<ioBaseChar *> > >::_Vector_const_iterator<std::_Vector_val<ioBaseChar *,std::allocator<ioBaseChar *> > >
; Function compile flags: /Ogsp
;	COMDAT ??0?$_Vector_const_iterator@V?$_Vector_val@PAVioBaseChar@@V?$allocator@PAVioBaseChar@@@std@@@std@@@std@@QAE@XZ
_TEXT	SEGMENT
??0?$_Vector_const_iterator@V?$_Vector_val@PAVioBaseChar@@V?$allocator@PAVioBaseChar@@@std@@@std@@@std@@QAE@XZ PROC ; std::_Vector_const_iterator<std::_Vector_val<ioBaseChar *,std::allocator<ioBaseChar *> > >::_Vector_const_iterator<std::_Vector_val<ioBaseChar *,std::allocator<ioBaseChar *> > >, COMDAT
; _this$ = ecx

; 40   : 		{	// construct with null pointer

  00000	8b c1		 mov	 eax, ecx
  00002	83 20 00	 and	 DWORD PTR [eax], 0

; 41   : 		}

  00005	c3		 ret	 0
??0?$_Vector_const_iterator@V?$_Vector_val@PAVioBaseChar@@V?$allocator@PAVioBaseChar@@@std@@@std@@@std@@QAE@XZ ENDP ; std::_Vector_const_iterator<std::_Vector_val<ioBaseChar *,std::allocator<ioBaseChar *> > >::_Vector_const_iterator<std::_Vector_val<ioBaseChar *,std::allocator<ioBaseChar *> > >
_TEXT	ENDS
PUBLIC	??D?$_Vector_const_iterator@V?$_Vector_val@PAVioBaseChar@@V?$allocator@PAVioBaseChar@@@std@@@std@@@std@@QBEABQAVioBaseChar@@XZ ; std::_Vector_const_iterator<std::_Vector_val<ioBaseChar *,std::allocator<ioBaseChar *> > >::operator*
; Function compile flags: /Ogsp
;	COMDAT ??D?$_Vector_const_iterator@V?$_Vector_val@PAVioBaseChar@@V?$allocator@PAVioBaseChar@@@std@@@std@@@std@@QBEABQAVioBaseChar@@XZ
_TEXT	SEGMENT
??D?$_Vector_const_iterator@V?$_Vector_val@PAVioBaseChar@@V?$allocator@PAVioBaseChar@@@std@@@std@@@std@@QBEABQAVioBaseChar@@XZ PROC ; std::_Vector_const_iterator<std::_Vector_val<ioBaseChar *,std::allocator<ioBaseChar *> > >::operator*, COMDAT
; _this$ = ecx

; 64   :  #if _ITERATOR_DEBUG_LEVEL == 2
; 65   : 		if (this->_Getcont() == 0
; 66   : 			|| this->_Ptr == 0
; 67   : 			|| this->_Ptr < ((_Myvec *)this->_Getcont())->_Myfirst
; 68   : 			|| ((_Myvec *)this->_Getcont())->_Mylast <= this->_Ptr)
; 69   : 			{	// report error
; 70   : 			_DEBUG_ERROR("vector iterator not dereferencable");
; 71   : 			_SCL_SECURE_OUT_OF_RANGE;
; 72   : 			}
; 73   : 
; 74   :  #elif _ITERATOR_DEBUG_LEVEL == 1
; 75   : 		_SCL_SECURE_VALIDATE(this->_Getcont() != 0);
; 76   : 		_SCL_SECURE_VALIDATE_RANGE(
; 77   : 			this->_Ptr != 0
; 78   : 			&& ((_Myvec *)this->_Getcont())->_Myfirst <= this->_Ptr
; 79   : 			&& this->_Ptr < ((_Myvec *)this->_Getcont())->_Mylast);
; 80   :  #endif /* _ITERATOR_DEBUG_LEVEL */
; 81   : 
; 82   : 		__analysis_assume(this->_Ptr != 0);
; 83   : 
; 84   : 		return (*this->_Ptr);

  00000	8b 01		 mov	 eax, DWORD PTR [ecx]

; 85   : 		}

  00002	c3		 ret	 0
??D?$_Vector_const_iterator@V?$_Vector_val@PAVioBaseChar@@V?$allocator@PAVioBaseChar@@@std@@@std@@@std@@QBEABQAVioBaseChar@@XZ ENDP ; std::_Vector_const_iterator<std::_Vector_val<ioBaseChar *,std::allocator<ioBaseChar *> > >::operator*
_TEXT	ENDS
PUBLIC	??E?$_Vector_const_iterator@V?$_Vector_val@PAVioBaseChar@@V?$allocator@PAVioBaseChar@@@std@@@std@@@std@@QAEAAV01@XZ ; std::_Vector_const_iterator<std::_Vector_val<ioBaseChar *,std::allocator<ioBaseChar *> > >::operator++
; Function compile flags: /Ogsp
;	COMDAT ??E?$_Vector_const_iterator@V?$_Vector_val@PAVioBaseChar@@V?$allocator@PAVioBaseChar@@@std@@@std@@@std@@QAEAAV01@XZ
_TEXT	SEGMENT
??E?$_Vector_const_iterator@V?$_Vector_val@PAVioBaseChar@@V?$allocator@PAVioBaseChar@@@std@@@std@@@std@@QAEAAV01@XZ PROC ; std::_Vector_const_iterator<std::_Vector_val<ioBaseChar *,std::allocator<ioBaseChar *> > >::operator++, COMDAT
; _this$ = ecx

; 93   : 		{	// preincrement

  00000	8b c1		 mov	 eax, ecx

; 94   :  #if _ITERATOR_DEBUG_LEVEL == 2
; 95   : 		if (this->_Getcont() == 0
; 96   : 			|| this->_Ptr == 0
; 97   : 			|| ((_Myvec *)this->_Getcont())->_Mylast <= this->_Ptr)
; 98   : 			{	// report error
; 99   : 			_DEBUG_ERROR("vector iterator not incrementable");
; 100  : 			_SCL_SECURE_OUT_OF_RANGE;
; 101  : 			}
; 102  : 
; 103  :  #elif _ITERATOR_DEBUG_LEVEL == 1
; 104  : 		_SCL_SECURE_VALIDATE(this->_Getcont() != 0);
; 105  : 		_SCL_SECURE_VALIDATE_RANGE(
; 106  : 			this->_Ptr != 0
; 107  : 			&& this->_Ptr < ((_Myvec *)this->_Getcont())->_Mylast);
; 108  :  #endif /* _ITERATOR_DEBUG_LEVEL */
; 109  : 
; 110  : 		++this->_Ptr;

  00002	83 00 04	 add	 DWORD PTR [eax], 4

; 111  : 		return (*this);
; 112  : 		}

  00005	c3		 ret	 0
??E?$_Vector_const_iterator@V?$_Vector_val@PAVioBaseChar@@V?$allocator@PAVioBaseChar@@@std@@@std@@@std@@QAEAAV01@XZ ENDP ; std::_Vector_const_iterator<std::_Vector_val<ioBaseChar *,std::allocator<ioBaseChar *> > >::operator++
_TEXT	ENDS
PUBLIC	?capacity@?$vector@VioHashString@@V?$allocator@VioHashString@@@std@@@std@@QBEIXZ ; std::vector<ioHashString,std::allocator<ioHashString> >::capacity
; Function compile flags: /Ogsp
;	COMDAT ?capacity@?$vector@VioHashString@@V?$allocator@VioHashString@@@std@@@std@@QBEIXZ
_TEXT	SEGMENT
?capacity@?$vector@VioHashString@@V?$allocator@VioHashString@@@std@@@std@@QBEIXZ PROC ; std::vector<ioHashString,std::allocator<ioHashString> >::capacity, COMDAT
; _this$ = ecx

; 777  : 		return (this->_Myend - this->_Myfirst);

  00000	8b 41 08	 mov	 eax, DWORD PTR [ecx+8]
  00003	2b 01		 sub	 eax, DWORD PTR [ecx]
  00005	c1 f8 04	 sar	 eax, 4

; 778  : 		}

  00008	c3		 ret	 0
?capacity@?$vector@VioHashString@@V?$allocator@VioHashString@@@std@@@std@@QBEIXZ ENDP ; std::vector<ioHashString,std::allocator<ioHashString> >::capacity
_TEXT	ENDS
PUBLIC	?_Inside@?$vector@VioHashString@@V?$allocator@VioHashString@@@std@@@std@@IBE_NPBVioHashString@@@Z ; std::vector<ioHashString,std::allocator<ioHashString> >::_Inside
; Function compile flags: /Ogsp
;	COMDAT ?_Inside@?$vector@VioHashString@@V?$allocator@VioHashString@@@std@@@std@@IBE_NPBVioHashString@@@Z
_TEXT	SEGMENT
__Ptr$ = 8						; size = 4
?_Inside@?$vector@VioHashString@@V?$allocator@VioHashString@@@std@@@std@@IBE_NPBVioHashString@@@Z PROC ; std::vector<ioHashString,std::allocator<ioHashString> >::_Inside, COMDAT
; _this$ = ecx

; 1285 : 		{	// test if _Ptr points inside vector

  00000	55		 push	 ebp
  00001	8b ec		 mov	 ebp, esp

; 1286 : 		return (_Ptr < this->_Mylast && this->_Myfirst <= _Ptr);

  00003	8b 45 08	 mov	 eax, DWORD PTR __Ptr$[ebp]
  00006	3b 41 04	 cmp	 eax, DWORD PTR [ecx+4]
  00009	73 09		 jae	 SHORT $LN3@Inside
  0000b	39 01		 cmp	 DWORD PTR [ecx], eax
  0000d	77 05		 ja	 SHORT $LN3@Inside
  0000f	33 c0		 xor	 eax, eax
  00011	40		 inc	 eax
  00012	eb 02		 jmp	 SHORT $LN4@Inside
$LN3@Inside:
  00014	33 c0		 xor	 eax, eax
$LN4@Inside:

; 1287 : 		}

  00016	5d		 pop	 ebp
  00017	c2 04 00	 ret	 4
?_Inside@?$vector@VioHashString@@V?$allocator@VioHashString@@@std@@@std@@IBE_NPBVioHashString@@@Z ENDP ; std::vector<ioHashString,std::allocator<ioHashString> >::_Inside
_TEXT	ENDS
PUBLIC	?_Orphan_range@?$vector@VioHashString@@V?$allocator@VioHashString@@@std@@@std@@IBEXPAVioHashString@@0@Z ; std::vector<ioHashString,std::allocator<ioHashString> >::_Orphan_range
; Function compile flags: /Ogsp
;	COMDAT ?_Orphan_range@?$vector@VioHashString@@V?$allocator@VioHashString@@@std@@@std@@IBEXPAVioHashString@@0@Z
_TEXT	SEGMENT
___formal$ = 8						; size = 4
___formal$ = 12						; size = 4
?_Orphan_range@?$vector@VioHashString@@V?$allocator@VioHashString@@@std@@@std@@IBEXPAVioHashString@@0@Z PROC ; std::vector<ioHashString,std::allocator<ioHashString> >::_Orphan_range, COMDAT
; _this$ = ecx

; 1454 : 		}

  00000	c2 08 00	 ret	 8
?_Orphan_range@?$vector@VioHashString@@V?$allocator@VioHashString@@@std@@@std@@IBEXPAVioHashString@@0@Z ENDP ; std::vector<ioHashString,std::allocator<ioHashString> >::_Orphan_range
_TEXT	ENDS
PUBLIC	?_Inside@?$vector@UD3DXVECTOR3@@V?$allocator@UD3DXVECTOR3@@@std@@@std@@IBE_NPBUD3DXVECTOR3@@@Z ; std::vector<D3DXVECTOR3,std::allocator<D3DXVECTOR3> >::_Inside
; Function compile flags: /Ogsp
;	COMDAT ?_Inside@?$vector@UD3DXVECTOR3@@V?$allocator@UD3DXVECTOR3@@@std@@@std@@IBE_NPBUD3DXVECTOR3@@@Z
_TEXT	SEGMENT
__Ptr$ = 8						; size = 4
?_Inside@?$vector@UD3DXVECTOR3@@V?$allocator@UD3DXVECTOR3@@@std@@@std@@IBE_NPBUD3DXVECTOR3@@@Z PROC ; std::vector<D3DXVECTOR3,std::allocator<D3DXVECTOR3> >::_Inside, COMDAT
; _this$ = ecx

; 1285 : 		{	// test if _Ptr points inside vector

  00000	55		 push	 ebp
  00001	8b ec		 mov	 ebp, esp

; 1286 : 		return (_Ptr < this->_Mylast && this->_Myfirst <= _Ptr);

  00003	8b 45 08	 mov	 eax, DWORD PTR __Ptr$[ebp]
  00006	3b 41 04	 cmp	 eax, DWORD PTR [ecx+4]
  00009	73 09		 jae	 SHORT $LN3@Inside@2
  0000b	39 01		 cmp	 DWORD PTR [ecx], eax
  0000d	77 05		 ja	 SHORT $LN3@Inside@2
  0000f	33 c0		 xor	 eax, eax
  00011	40		 inc	 eax
  00012	eb 02		 jmp	 SHORT $LN4@Inside@2
$LN3@Inside@2:
  00014	33 c0		 xor	 eax, eax
$LN4@Inside@2:

; 1287 : 		}

  00016	5d		 pop	 ebp
  00017	c2 04 00	 ret	 4
?_Inside@?$vector@UD3DXVECTOR3@@V?$allocator@UD3DXVECTOR3@@@std@@@std@@IBE_NPBUD3DXVECTOR3@@@Z ENDP ; std::vector<D3DXVECTOR3,std::allocator<D3DXVECTOR3> >::_Inside
_TEXT	ENDS
PUBLIC	?_Orphan_range@?$vector@UD3DXVECTOR3@@V?$allocator@UD3DXVECTOR3@@@std@@@std@@IBEXPAUD3DXVECTOR3@@0@Z ; std::vector<D3DXVECTOR3,std::allocator<D3DXVECTOR3> >::_Orphan_range
; Function compile flags: /Ogsp
;	COMDAT ?_Orphan_range@?$vector@UD3DXVECTOR3@@V?$allocator@UD3DXVECTOR3@@@std@@@std@@IBEXPAUD3DXVECTOR3@@0@Z
_TEXT	SEGMENT
___formal$ = 8						; size = 4
___formal$ = 12						; size = 4
?_Orphan_range@?$vector@UD3DXVECTOR3@@V?$allocator@UD3DXVECTOR3@@@std@@@std@@IBEXPAUD3DXVECTOR3@@0@Z PROC ; std::vector<D3DXVECTOR3,std::allocator<D3DXVECTOR3> >::_Orphan_range, COMDAT
; _this$ = ecx

; 1454 : 		}

  00000	c2 08 00	 ret	 8
?_Orphan_range@?$vector@UD3DXVECTOR3@@V?$allocator@UD3DXVECTOR3@@@std@@@std@@IBEXPAUD3DXVECTOR3@@0@Z ENDP ; std::vector<D3DXVECTOR3,std::allocator<D3DXVECTOR3> >::_Orphan_range
_TEXT	ENDS
PUBLIC	??1?$_Vector_val@UD3DXVECTOR3@@V?$allocator@UD3DXVECTOR3@@@std@@@std@@QAE@XZ ; std::_Vector_val<D3DXVECTOR3,std::allocator<D3DXVECTOR3> >::~_Vector_val<D3DXVECTOR3,std::allocator<D3DXVECTOR3> >
; Function compile flags: /Ogsp
;	COMDAT ??1?$_Vector_val@UD3DXVECTOR3@@V?$allocator@UD3DXVECTOR3@@@std@@@std@@QAE@XZ
_TEXT	SEGMENT
??1?$_Vector_val@UD3DXVECTOR3@@V?$allocator@UD3DXVECTOR3@@@std@@@std@@QAE@XZ PROC ; std::_Vector_val<D3DXVECTOR3,std::allocator<D3DXVECTOR3> >::~_Vector_val<D3DXVECTOR3,std::allocator<D3DXVECTOR3> >, COMDAT
; _this$ = ecx

; 434  : 		}

  00000	c3		 ret	 0
??1?$_Vector_val@UD3DXVECTOR3@@V?$allocator@UD3DXVECTOR3@@@std@@@std@@QAE@XZ ENDP ; std::_Vector_val<D3DXVECTOR3,std::allocator<D3DXVECTOR3> >::~_Vector_val<D3DXVECTOR3,std::allocator<D3DXVECTOR3> >
_TEXT	ENDS
PUBLIC	??0?$allocator@UD3DXVECTOR3@@@std@@QAE@XZ	; std::allocator<D3DXVECTOR3>::allocator<D3DXVECTOR3>
; Function compile flags: /Ogsp
; File c:\program files (x86)\microsoft visual studio 10.0\vc\include\xmemory
;	COMDAT ??0?$allocator@UD3DXVECTOR3@@@std@@QAE@XZ
_TEXT	SEGMENT
??0?$allocator@UD3DXVECTOR3@@@std@@QAE@XZ PROC		; std::allocator<D3DXVECTOR3>::allocator<D3DXVECTOR3>, COMDAT
; _this$ = ecx

; 161  : 	_ALLOCATOR() _THROW0()

  00000	8b c1		 mov	 eax, ecx

; 162  : 		{	// construct default allocator (do nothing)
; 163  : 		}

  00002	c3		 ret	 0
??0?$allocator@UD3DXVECTOR3@@@std@@QAE@XZ ENDP		; std::allocator<D3DXVECTOR3>::allocator<D3DXVECTOR3>
_TEXT	ENDS
PUBLIC	?Init@?$CEncrypt@W4TeamType@@@@AAEXXZ		; CEncrypt<enum TeamType>::Init
EXTRN	?Setup@ccddaabb@@QAEXPBDHH@Z:PROC		; ccddaabb::Setup
EXTRN	__imp__rand:PROC
EXTRN	__imp__timeGetTime@0:PROC
EXTRN	__imp__GetCurrentProcessId@0:PROC
; Function compile flags: /Ogsp
; File d:\lost saga for developer\youtube\tutorial\source\src\lsclient\encryptvalue.h
;	COMDAT ?Init@?$CEncrypt@W4TeamType@@@@AAEXXZ
_TEXT	SEGMENT
_pid$ = -8						; size = 4
_tick$ = -4						; size = 4
?Init@?$CEncrypt@W4TeamType@@@@AAEXXZ PROC		; CEncrypt<enum TeamType>::Init, COMDAT
; _this$ = ecx

; 73   : 	{

  00000	55		 push	 ebp
  00001	8b ec		 mov	 ebp, esp
  00003	51		 push	 ecx
  00004	51		 push	 ecx
  00005	53		 push	 ebx
  00006	56		 push	 esi
  00007	57		 push	 edi
  00008	8b f1		 mov	 esi, ecx

; 74   : 		DWORD pid = GetCurrentProcessId();

  0000a	ff 15 00 00 00
	00		 call	 DWORD PTR __imp__GetCurrentProcessId@0
  00010	89 45 f8	 mov	 DWORD PTR _pid$[ebp], eax

; 75   : 		DWORD tick = timeGetTime();

  00013	ff 15 00 00 00
	00		 call	 DWORD PTR __imp__timeGetTime@0

; 76   : 		m_ValueSize    = sizeof(type);
; 77   : 		m_MemPoolPos   = (unsigned short)( rand()+pid+tick )%(MAX_MEM_POOL-m_ValueSize);

  00019	8b 3d 00 00 00
	00		 mov	 edi, DWORD PTR __imp__rand
  0001f	89 45 fc	 mov	 DWORD PTR _tick$[ebp], eax
  00022	6a 04		 push	 4
  00024	58		 pop	 eax
  00025	66 89 46 06	 mov	 WORD PTR [esi+6], ax
  00029	ff d7		 call	 edi
  0002b	03 45 f8	 add	 eax, DWORD PTR _pid$[ebp]
  0002e	0f b7 4e 06	 movzx	 ecx, WORD PTR [esi+6]
  00032	03 45 fc	 add	 eax, DWORD PTR _tick$[ebp]
  00035	6a 0c		 push	 12			; 0000000cH
  00037	0f b7 c0	 movzx	 eax, ax
  0003a	5b		 pop	 ebx
  0003b	99		 cdq
  0003c	2b d9		 sub	 ebx, ecx
  0003e	f7 fb		 idiv	 ebx
  00040	66 89 56 04	 mov	 WORD PTR [esi+4], dx

; 78   : 		m_EncryptSeed  = (char)( rand()+pid+tick )%256;

  00044	ff d7		 call	 edi
  00046	02 45 f8	 add	 al, BYTE PTR _pid$[ebp]
  00049	02 45 fc	 add	 al, BYTE PTR _tick$[ebp]
  0004c	0f be c0	 movsx	 eax, al
  0004f	25 ff 00 00 80	 and	 eax, -2147483393	; 800000ffH
  00054	79 07		 jns	 SHORT $LN8@Init
  00056	48		 dec	 eax
  00057	0d 00 ff ff ff	 or	 eax, -256		; ffffff00H
  0005c	40		 inc	 eax
$LN8@Init:
  0005d	88 46 08	 mov	 BYTE PTR [esi+8], al

; 79   : 
; 80   : 		for (int i = 0; i < MAX_MEM_POOL ; i++)

  00060	33 db		 xor	 ebx, ebx
$LL3@Init:

; 81   : 			m_MemPool[i] = (char)( rand()+pid+tick )%256; // 

  00062	ff d7		 call	 edi
  00064	02 45 f8	 add	 al, BYTE PTR _pid$[ebp]
  00067	02 45 fc	 add	 al, BYTE PTR _tick$[ebp]
  0006a	0f be c0	 movsx	 eax, al
  0006d	25 ff 00 00 80	 and	 eax, -2147483393	; 800000ffH
  00072	79 07		 jns	 SHORT $LN9@Init
  00074	48		 dec	 eax
  00075	0d 00 ff ff ff	 or	 eax, -256		; ffffff00H
  0007a	40		 inc	 eax
$LN9@Init:
  0007b	88 44 1e 1c	 mov	 BYTE PTR [esi+ebx+28], al
  0007f	43		 inc	 ebx
  00080	83 fb 0c	 cmp	 ebx, 12			; 0000000cH
  00083	7c dd		 jl	 SHORT $LL3@Init

; 82   : 
; 83   : 		//UJ 130913, : szKey  
; 84   : 		//char szKey[ccddaabb::KEY_SIZE];//="";
; 85   : 		//for (int i = 0; i < ccddaabb::KEY_SIZE  ; i++)
; 86   : 		//	szKey[i] = (char)( rand()+pid+tick )%256; // 
; 87   : 		m_RC5.Setup( NULL, pid, tick );

  00085	ff 75 fc	 push	 DWORD PTR _tick$[ebp]
  00088	8d 4e 0c	 lea	 ecx, DWORD PTR [esi+12]
  0008b	ff 75 f8	 push	 DWORD PTR _pid$[ebp]
  0008e	6a 00		 push	 0
  00090	e8 00 00 00 00	 call	 ?Setup@ccddaabb@@QAEXPBDHH@Z ; ccddaabb::Setup
  00095	5f		 pop	 edi
  00096	5e		 pop	 esi
  00097	5b		 pop	 ebx

; 88   : 
; 89   : #ifdef _NOTUSE
; 90   : 		m_value        = 0;
; 91   : 		EncryptValueToPool((char*)&m_value);
; 92   : 		Debug();
; 93   : #endif
; 94   : 	}

  00098	c9		 leave
  00099	c3		 ret	 0
?Init@?$CEncrypt@W4TeamType@@@@AAEXXZ ENDP		; CEncrypt<enum TeamType>::Init
_TEXT	ENDS
PUBLIC	?capacity@?$vector@UChangeMoveInfo@@V?$allocator@UChangeMoveInfo@@@std@@@std@@QBEIXZ ; std::vector<ChangeMoveInfo,std::allocator<ChangeMoveInfo> >::capacity
; Function compile flags: /Ogsp
; File c:\program files (x86)\microsoft visual studio 10.0\vc\include\vector
;	COMDAT ?capacity@?$vector@UChangeMoveInfo@@V?$allocator@UChangeMoveInfo@@@std@@@std@@QBEIXZ
_TEXT	SEGMENT
?capacity@?$vector@UChangeMoveInfo@@V?$allocator@UChangeMoveInfo@@@std@@@std@@QBEIXZ PROC ; std::vector<ChangeMoveInfo,std::allocator<ChangeMoveInfo> >::capacity, COMDAT
; _this$ = ecx

; 777  : 		return (this->_Myend - this->_Myfirst);

  00000	8b 41 08	 mov	 eax, DWORD PTR [ecx+8]
  00003	2b 01		 sub	 eax, DWORD PTR [ecx]
  00005	c1 f8 04	 sar	 eax, 4

; 778  : 		}

  00008	c3		 ret	 0
?capacity@?$vector@UChangeMoveInfo@@V?$allocator@UChangeMoveInfo@@@std@@@std@@QBEIXZ ENDP ; std::vector<ChangeMoveInfo,std::allocator<ChangeMoveInfo> >::capacity
_TEXT	ENDS
PUBLIC	?_Inside@?$vector@UChangeMoveInfo@@V?$allocator@UChangeMoveInfo@@@std@@@std@@IBE_NPBUChangeMoveInfo@@@Z ; std::vector<ChangeMoveInfo,std::allocator<ChangeMoveInfo> >::_Inside
; Function compile flags: /Ogsp
;	COMDAT ?_Inside@?$vector@UChangeMoveInfo@@V?$allocator@UChangeMoveInfo@@@std@@@std@@IBE_NPBUChangeMoveInfo@@@Z
_TEXT	SEGMENT
__Ptr$ = 8						; size = 4
?_Inside@?$vector@UChangeMoveInfo@@V?$allocator@UChangeMoveInfo@@@std@@@std@@IBE_NPBUChangeMoveInfo@@@Z PROC ; std::vector<ChangeMoveInfo,std::allocator<ChangeMoveInfo> >::_Inside, COMDAT
; _this$ = ecx

; 1285 : 		{	// test if _Ptr points inside vector

  00000	55		 push	 ebp
  00001	8b ec		 mov	 ebp, esp

; 1286 : 		return (_Ptr < this->_Mylast && this->_Myfirst <= _Ptr);

  00003	8b 45 08	 mov	 eax, DWORD PTR __Ptr$[ebp]
  00006	3b 41 04	 cmp	 eax, DWORD PTR [ecx+4]
  00009	73 09		 jae	 SHORT $LN3@Inside@3
  0000b	39 01		 cmp	 DWORD PTR [ecx], eax
  0000d	77 05		 ja	 SHORT $LN3@Inside@3
  0000f	33 c0		 xor	 eax, eax
  00011	40		 inc	 eax
  00012	eb 02		 jmp	 SHORT $LN4@Inside@3
$LN3@Inside@3:
  00014	33 c0		 xor	 eax, eax
$LN4@Inside@3:

; 1287 : 		}

  00016	5d		 pop	 ebp
  00017	c2 04 00	 ret	 4
?_Inside@?$vector@UChangeMoveInfo@@V?$allocator@UChangeMoveInfo@@@std@@@std@@IBE_NPBUChangeMoveInfo@@@Z ENDP ; std::vector<ChangeMoveInfo,std::allocator<ChangeMoveInfo> >::_Inside
_TEXT	ENDS
PUBLIC	??_C@_0BD@OLBABOEK@vector?$DMT?$DO?5too?5long?$AA@ ; `string'
PUBLIC	?_Xlen@?$vector@UChangeMoveInfo@@V?$allocator@UChangeMoveInfo@@@std@@@std@@IBEXXZ ; std::vector<ChangeMoveInfo,std::allocator<ChangeMoveInfo> >::_Xlen
EXTRN	__imp_?_Xlength_error@std@@YAXPBD@Z:PROC
;	COMDAT ??_C@_0BD@OLBABOEK@vector?$DMT?$DO?5too?5long?$AA@
CONST	SEGMENT
??_C@_0BD@OLBABOEK@vector?$DMT?$DO?5too?5long?$AA@ DB 'vector<T> too long'
	DB	00H						; `string'
; Function compile flags: /Ogsp
CONST	ENDS
;	COMDAT ?_Xlen@?$vector@UChangeMoveInfo@@V?$allocator@UChangeMoveInfo@@@std@@@std@@IBEXXZ
_TEXT	SEGMENT
?_Xlen@?$vector@UChangeMoveInfo@@V?$allocator@UChangeMoveInfo@@@std@@@std@@IBEXXZ PROC ; std::vector<ChangeMoveInfo,std::allocator<ChangeMoveInfo> >::_Xlen, COMDAT
; _this$ = ecx

; 1427 : 		_Xlength_error("vector<T> too long");

  00000	68 00 00 00 00	 push	 OFFSET ??_C@_0BD@OLBABOEK@vector?$DMT?$DO?5too?5long?$AA@
  00005	ff 15 00 00 00
	00		 call	 DWORD PTR __imp_?_Xlength_error@std@@YAXPBD@Z
$LN4@Xlen:
$LN3@Xlen:
  0000b	cc		 int	 3
?_Xlen@?$vector@UChangeMoveInfo@@V?$allocator@UChangeMoveInfo@@@std@@@std@@IBEXXZ ENDP ; std::vector<ChangeMoveInfo,std::allocator<ChangeMoveInfo> >::_Xlen
_TEXT	ENDS
PUBLIC	?_Orphan_range@?$vector@UChangeMoveInfo@@V?$allocator@UChangeMoveInfo@@@std@@@std@@IBEXPAUChangeMoveInfo@@0@Z ; std::vector<ChangeMoveInfo,std::allocator<ChangeMoveInfo> >::_Orphan_range
; Function compile flags: /Ogsp
;	COMDAT ?_Orphan_range@?$vector@UChangeMoveInfo@@V?$allocator@UChangeMoveInfo@@@std@@@std@@IBEXPAUChangeMoveInfo@@0@Z
_TEXT	SEGMENT
___formal$ = 8						; size = 4
___formal$ = 12						; size = 4
?_Orphan_range@?$vector@UChangeMoveInfo@@V?$allocator@UChangeMoveInfo@@@std@@@std@@IBEXPAUChangeMoveInfo@@0@Z PROC ; std::vector<ChangeMoveInfo,std::allocator<ChangeMoveInfo> >::_Orphan_range, COMDAT
; _this$ = ecx

; 1454 : 		}

  00000	c2 08 00	 ret	 8
?_Orphan_range@?$vector@UChangeMoveInfo@@V?$allocator@UChangeMoveInfo@@@std@@@std@@IBEXPAUChangeMoveInfo@@0@Z ENDP ; std::vector<ChangeMoveInfo,std::allocator<ChangeMoveInfo> >::_Orphan_range
_TEXT	ENDS
PUBLIC	??1?$_Vector_val@UChangeMoveInfo@@V?$allocator@UChangeMoveInfo@@@std@@@std@@QAE@XZ ; std::_Vector_val<ChangeMoveInfo,std::allocator<ChangeMoveInfo> >::~_Vector_val<ChangeMoveInfo,std::allocator<ChangeMoveInfo> >
; Function compile flags: /Ogsp
;	COMDAT ??1?$_Vector_val@UChangeMoveInfo@@V?$allocator@UChangeMoveInfo@@@std@@@std@@QAE@XZ
_TEXT	SEGMENT
??1?$_Vector_val@UChangeMoveInfo@@V?$allocator@UChangeMoveInfo@@@std@@@std@@QAE@XZ PROC ; std::_Vector_val<ChangeMoveInfo,std::allocator<ChangeMoveInfo> >::~_Vector_val<ChangeMoveInfo,std::allocator<ChangeMoveInfo> >, COMDAT
; _this$ = ecx

; 434  : 		}

  00000	c3		 ret	 0
??1?$_Vector_val@UChangeMoveInfo@@V?$allocator@UChangeMoveInfo@@@std@@@std@@QAE@XZ ENDP ; std::_Vector_val<ChangeMoveInfo,std::allocator<ChangeMoveInfo> >::~_Vector_val<ChangeMoveInfo,std::allocator<ChangeMoveInfo> >
_TEXT	ENDS
PUBLIC	??0?$allocator@UChangeMoveInfo@@@std@@QAE@XZ	; std::allocator<ChangeMoveInfo>::allocator<ChangeMoveInfo>
; Function compile flags: /Ogsp
; File c:\program files (x86)\microsoft visual studio 10.0\vc\include\xmemory
;	COMDAT ??0?$allocator@UChangeMoveInfo@@@std@@QAE@XZ
_TEXT	SEGMENT
??0?$allocator@UChangeMoveInfo@@@std@@QAE@XZ PROC	; std::allocator<ChangeMoveInfo>::allocator<ChangeMoveInfo>, COMDAT
; _this$ = ecx

; 161  : 	_ALLOCATOR() _THROW0()

  00000	8b c1		 mov	 eax, ecx

; 162  : 		{	// construct default allocator (do nothing)
; 163  : 		}

  00002	c3		 ret	 0
??0?$allocator@UChangeMoveInfo@@@std@@QAE@XZ ENDP	; std::allocator<ChangeMoveInfo>::allocator<ChangeMoveInfo>
_TEXT	ENDS
PUBLIC	??0?$allocator@UChangeMoveInfo@@@std@@QAE@ABV01@@Z ; std::allocator<ChangeMoveInfo>::allocator<ChangeMoveInfo>
; Function compile flags: /Ogsp
;	COMDAT ??0?$allocator@UChangeMoveInfo@@@std@@QAE@ABV01@@Z
_TEXT	SEGMENT
___formal$ = 8						; size = 4
??0?$allocator@UChangeMoveInfo@@@std@@QAE@ABV01@@Z PROC	; std::allocator<ChangeMoveInfo>::allocator<ChangeMoveInfo>, COMDAT
; _this$ = ecx

; 165  : 	_ALLOCATOR(const _ALLOCATOR<_Ty>&) _THROW0()

  00000	8b c1		 mov	 eax, ecx

; 166  : 		{	// construct by copying (do nothing)
; 167  : 		}

  00002	c2 04 00	 ret	 4
??0?$allocator@UChangeMoveInfo@@@std@@QAE@ABV01@@Z ENDP	; std::allocator<ChangeMoveInfo>::allocator<ChangeMoveInfo>
_TEXT	ENDS
PUBLIC	?deallocate@?$allocator@UChangeMoveInfo@@@std@@QAEXPAUChangeMoveInfo@@I@Z ; std::allocator<ChangeMoveInfo>::deallocate
; Function compile flags: /Ogsp
;	COMDAT ?deallocate@?$allocator@UChangeMoveInfo@@@std@@QAEXPAUChangeMoveInfo@@I@Z
_TEXT	SEGMENT
__Ptr$ = 8						; size = 4
___formal$ = 12						; size = 4
?deallocate@?$allocator@UChangeMoveInfo@@@std@@QAEXPAUChangeMoveInfo@@I@Z PROC ; std::allocator<ChangeMoveInfo>::deallocate, COMDAT
; _this$ = ecx

; 181  : 		{	// deallocate object at _Ptr, ignore size

  00000	55		 push	 ebp
  00001	8b ec		 mov	 ebp, esp

; 182  : 		::operator delete(_Ptr);

  00003	ff 75 08	 push	 DWORD PTR __Ptr$[ebp]
  00006	e8 00 00 00 00	 call	 ??3@YAXPAX@Z		; operator delete
  0000b	59		 pop	 ecx

; 183  : 		}

  0000c	5d		 pop	 ebp
  0000d	c2 08 00	 ret	 8
?deallocate@?$allocator@UChangeMoveInfo@@@std@@QAEXPAUChangeMoveInfo@@I@Z ENDP ; std::allocator<ChangeMoveInfo>::deallocate
_TEXT	ENDS
PUBLIC	?_Inside@?$vector@PAVioBaseChar@@V?$allocator@PAVioBaseChar@@@std@@@std@@IBE_NPBQAVioBaseChar@@@Z ; std::vector<ioBaseChar *,std::allocator<ioBaseChar *> >::_Inside
; Function compile flags: /Ogsp
; File c:\program files (x86)\microsoft visual studio 10.0\vc\include\vector
;	COMDAT ?_Inside@?$vector@PAVioBaseChar@@V?$allocator@PAVioBaseChar@@@std@@@std@@IBE_NPBQAVioBaseChar@@@Z
_TEXT	SEGMENT
__Ptr$ = 8						; size = 4
?_Inside@?$vector@PAVioBaseChar@@V?$allocator@PAVioBaseChar@@@std@@@std@@IBE_NPBQAVioBaseChar@@@Z PROC ; std::vector<ioBaseChar *,std::allocator<ioBaseChar *> >::_Inside, COMDAT
; _this$ = ecx

; 1285 : 		{	// test if _Ptr points inside vector

  00000	55		 push	 ebp
  00001	8b ec		 mov	 ebp, esp

; 1286 : 		return (_Ptr < this->_Mylast && this->_Myfirst <= _Ptr);

  00003	8b 45 08	 mov	 eax, DWORD PTR __Ptr$[ebp]
  00006	3b 41 04	 cmp	 eax, DWORD PTR [ecx+4]
  00009	73 09		 jae	 SHORT $LN3@Inside@4
  0000b	39 01		 cmp	 DWORD PTR [ecx], eax
  0000d	77 05		 ja	 SHORT $LN3@Inside@4
  0000f	33 c0		 xor	 eax, eax
  00011	40		 inc	 eax
  00012	eb 02		 jmp	 SHORT $LN4@Inside@4
$LN3@Inside@4:
  00014	33 c0		 xor	 eax, eax
$LN4@Inside@4:

; 1287 : 		}

  00016	5d		 pop	 ebp
  00017	c2 04 00	 ret	 4
?_Inside@?$vector@PAVioBaseChar@@V?$allocator@PAVioBaseChar@@@std@@@std@@IBE_NPBQAVioBaseChar@@@Z ENDP ; std::vector<ioBaseChar *,std::allocator<ioBaseChar *> >::_Inside
_TEXT	ENDS
PUBLIC	?_Orphan_range@?$vector@PAVioBaseChar@@V?$allocator@PAVioBaseChar@@@std@@@std@@IBEXPAPAVioBaseChar@@0@Z ; std::vector<ioBaseChar *,std::allocator<ioBaseChar *> >::_Orphan_range
; Function compile flags: /Ogsp
;	COMDAT ?_Orphan_range@?$vector@PAVioBaseChar@@V?$allocator@PAVioBaseChar@@@std@@@std@@IBEXPAPAVioBaseChar@@0@Z
_TEXT	SEGMENT
___formal$ = 8						; size = 4
___formal$ = 12						; size = 4
?_Orphan_range@?$vector@PAVioBaseChar@@V?$allocator@PAVioBaseChar@@@std@@@std@@IBEXPAPAVioBaseChar@@0@Z PROC ; std::vector<ioBaseChar *,std::allocator<ioBaseChar *> >::_Orphan_range, COMDAT
; _this$ = ecx

; 1454 : 		}

  00000	c2 08 00	 ret	 8
?_Orphan_range@?$vector@PAVioBaseChar@@V?$allocator@PAVioBaseChar@@@std@@@std@@IBEXPAPAVioBaseChar@@0@Z ENDP ; std::vector<ioBaseChar *,std::allocator<ioBaseChar *> >::_Orphan_range
_TEXT	ENDS
PUBLIC	??1?$_Vector_val@PAVioBaseChar@@V?$allocator@PAVioBaseChar@@@std@@@std@@QAE@XZ ; std::_Vector_val<ioBaseChar *,std::allocator<ioBaseChar *> >::~_Vector_val<ioBaseChar *,std::allocator<ioBaseChar *> >
; Function compile flags: /Ogsp
;	COMDAT ??1?$_Vector_val@PAVioBaseChar@@V?$allocator@PAVioBaseChar@@@std@@@std@@QAE@XZ
_TEXT	SEGMENT
??1?$_Vector_val@PAVioBaseChar@@V?$allocator@PAVioBaseChar@@@std@@@std@@QAE@XZ PROC ; std::_Vector_val<ioBaseChar *,std::allocator<ioBaseChar *> >::~_Vector_val<ioBaseChar *,std::allocator<ioBaseChar *> >, COMDAT
; _this$ = ecx

; 434  : 		}

  00000	c3		 ret	 0
??1?$_Vector_val@PAVioBaseChar@@V?$allocator@PAVioBaseChar@@@std@@@std@@QAE@XZ ENDP ; std::_Vector_val<ioBaseChar *,std::allocator<ioBaseChar *> >::~_Vector_val<ioBaseChar *,std::allocator<ioBaseChar *> >
_TEXT	ENDS
PUBLIC	??0?$allocator@PAVioBaseChar@@@std@@QAE@XZ	; std::allocator<ioBaseChar *>::allocator<ioBaseChar *>
; Function compile flags: /Ogsp
; File c:\program files (x86)\microsoft visual studio 10.0\vc\include\xmemory
;	COMDAT ??0?$allocator@PAVioBaseChar@@@std@@QAE@XZ
_TEXT	SEGMENT
??0?$allocator@PAVioBaseChar@@@std@@QAE@XZ PROC		; std::allocator<ioBaseChar *>::allocator<ioBaseChar *>, COMDAT
; _this$ = ecx

; 161  : 	_ALLOCATOR() _THROW0()

  00000	8b c1		 mov	 eax, ecx

; 162  : 		{	// construct default allocator (do nothing)
; 163  : 		}

  00002	c3		 ret	 0
??0?$allocator@PAVioBaseChar@@@std@@QAE@XZ ENDP		; std::allocator<ioBaseChar *>::allocator<ioBaseChar *>
_TEXT	ENDS
PUBLIC	?_Inside@?$vector@UtagGenerateInfo@@V?$allocator@UtagGenerateInfo@@@std@@@std@@IBE_NPBUtagGenerateInfo@@@Z ; std::vector<tagGenerateInfo,std::allocator<tagGenerateInfo> >::_Inside
; Function compile flags: /Ogsp
; File c:\program files (x86)\microsoft visual studio 10.0\vc\include\vector
;	COMDAT ?_Inside@?$vector@UtagGenerateInfo@@V?$allocator@UtagGenerateInfo@@@std@@@std@@IBE_NPBUtagGenerateInfo@@@Z
_TEXT	SEGMENT
__Ptr$ = 8						; size = 4
?_Inside@?$vector@UtagGenerateInfo@@V?$allocator@UtagGenerateInfo@@@std@@@std@@IBE_NPBUtagGenerateInfo@@@Z PROC ; std::vector<tagGenerateInfo,std::allocator<tagGenerateInfo> >::_Inside, COMDAT
; _this$ = ecx

; 1285 : 		{	// test if _Ptr points inside vector

  00000	55		 push	 ebp
  00001	8b ec		 mov	 ebp, esp

; 1286 : 		return (_Ptr < this->_Mylast && this->_Myfirst <= _Ptr);

  00003	8b 45 08	 mov	 eax, DWORD PTR __Ptr$[ebp]
  00006	3b 41 04	 cmp	 eax, DWORD PTR [ecx+4]
  00009	73 09		 jae	 SHORT $LN3@Inside@5
  0000b	39 01		 cmp	 DWORD PTR [ecx], eax
  0000d	77 05		 ja	 SHORT $LN3@Inside@5
  0000f	33 c0		 xor	 eax, eax
  00011	40		 inc	 eax
  00012	eb 02		 jmp	 SHORT $LN4@Inside@5
$LN3@Inside@5:
  00014	33 c0		 xor	 eax, eax
$LN4@Inside@5:

; 1287 : 		}

  00016	5d		 pop	 ebp
  00017	c2 04 00	 ret	 4
?_Inside@?$vector@UtagGenerateInfo@@V?$allocator@UtagGenerateInfo@@@std@@@std@@IBE_NPBUtagGenerateInfo@@@Z ENDP ; std::vector<tagGenerateInfo,std::allocator<tagGenerateInfo> >::_Inside
_TEXT	ENDS
PUBLIC	?_Orphan_range@?$vector@UtagGenerateInfo@@V?$allocator@UtagGenerateInfo@@@std@@@std@@IBEXPAUtagGenerateInfo@@0@Z ; std::vector<tagGenerateInfo,std::allocator<tagGenerateInfo> >::_Orphan_range
; Function compile flags: /Ogsp
;	COMDAT ?_Orphan_range@?$vector@UtagGenerateInfo@@V?$allocator@UtagGenerateInfo@@@std@@@std@@IBEXPAUtagGenerateInfo@@0@Z
_TEXT	SEGMENT
___formal$ = 8						; size = 4
___formal$ = 12						; size = 4
?_Orphan_range@?$vector@UtagGenerateInfo@@V?$allocator@UtagGenerateInfo@@@std@@@std@@IBEXPAUtagGenerateInfo@@0@Z PROC ; std::vector<tagGenerateInfo,std::allocator<tagGenerateInfo> >::_Orphan_range, COMDAT
; _this$ = ecx

; 1454 : 		}

  00000	c2 08 00	 ret	 8
?_Orphan_range@?$vector@UtagGenerateInfo@@V?$allocator@UtagGenerateInfo@@@std@@@std@@IBEXPAUtagGenerateInfo@@0@Z ENDP ; std::vector<tagGenerateInfo,std::allocator<tagGenerateInfo> >::_Orphan_range
_TEXT	ENDS
PUBLIC	??1?$_Vector_val@UtagGenerateInfo@@V?$allocator@UtagGenerateInfo@@@std@@@std@@QAE@XZ ; std::_Vector_val<tagGenerateInfo,std::allocator<tagGenerateInfo> >::~_Vector_val<tagGenerateInfo,std::allocator<tagGenerateInfo> >
; Function compile flags: /Ogsp
;	COMDAT ??1?$_Vector_val@UtagGenerateInfo@@V?$allocator@UtagGenerateInfo@@@std@@@std@@QAE@XZ
_TEXT	SEGMENT
??1?$_Vector_val@UtagGenerateInfo@@V?$allocator@UtagGenerateInfo@@@std@@@std@@QAE@XZ PROC ; std::_Vector_val<tagGenerateInfo,std::allocator<tagGenerateInfo> >::~_Vector_val<tagGenerateInfo,std::allocator<tagGenerateInfo> >, COMDAT
; _this$ = ecx

; 434  : 		}

  00000	c3		 ret	 0
??1?$_Vector_val@UtagGenerateInfo@@V?$allocator@UtagGenerateInfo@@@std@@@std@@QAE@XZ ENDP ; std::_Vector_val<tagGenerateInfo,std::allocator<tagGenerateInfo> >::~_Vector_val<tagGenerateInfo,std::allocator<tagGenerateInfo> >
_TEXT	ENDS
PUBLIC	??0?$allocator@UtagGenerateInfo@@@std@@QAE@XZ	; std::allocator<tagGenerateInfo>::allocator<tagGenerateInfo>
; Function compile flags: /Ogsp
; File c:\program files (x86)\microsoft visual studio 10.0\vc\include\xmemory
;	COMDAT ??0?$allocator@UtagGenerateInfo@@@std@@QAE@XZ
_TEXT	SEGMENT
??0?$allocator@UtagGenerateInfo@@@std@@QAE@XZ PROC	; std::allocator<tagGenerateInfo>::allocator<tagGenerateInfo>, COMDAT
; _this$ = ecx

; 161  : 	_ALLOCATOR() _THROW0()

  00000	8b c1		 mov	 eax, ecx

; 162  : 		{	// construct default allocator (do nothing)
; 163  : 		}

  00002	c3		 ret	 0
??0?$allocator@UtagGenerateInfo@@@std@@QAE@XZ ENDP	; std::allocator<tagGenerateInfo>::allocator<tagGenerateInfo>
_TEXT	ENDS
PUBLIC	?_Inside@?$vector@URefreshCollisionInfo@ioAreaWeapon@@V?$allocator@URefreshCollisionInfo@ioAreaWeapon@@@std@@@std@@IBE_NPBURefreshCollisionInfo@ioAreaWeapon@@@Z ; std::vector<ioAreaWeapon::RefreshCollisionInfo,std::allocator<ioAreaWeapon::RefreshCollisionInfo> >::_Inside
; Function compile flags: /Ogsp
; File c:\program files (x86)\microsoft visual studio 10.0\vc\include\vector
;	COMDAT ?_Inside@?$vector@URefreshCollisionInfo@ioAreaWeapon@@V?$allocator@URefreshCollisionInfo@ioAreaWeapon@@@std@@@std@@IBE_NPBURefreshCollisionInfo@ioAreaWeapon@@@Z
_TEXT	SEGMENT
__Ptr$ = 8						; size = 4
?_Inside@?$vector@URefreshCollisionInfo@ioAreaWeapon@@V?$allocator@URefreshCollisionInfo@ioAreaWeapon@@@std@@@std@@IBE_NPBURefreshCollisionInfo@ioAreaWeapon@@@Z PROC ; std::vector<ioAreaWeapon::RefreshCollisionInfo,std::allocator<ioAreaWeapon::RefreshCollisionInfo> >::_Inside, COMDAT
; _this$ = ecx

; 1285 : 		{	// test if _Ptr points inside vector

  00000	55		 push	 ebp
  00001	8b ec		 mov	 ebp, esp

; 1286 : 		return (_Ptr < this->_Mylast && this->_Myfirst <= _Ptr);

  00003	8b 45 08	 mov	 eax, DWORD PTR __Ptr$[ebp]
  00006	3b 41 04	 cmp	 eax, DWORD PTR [ecx+4]
  00009	73 09		 jae	 SHORT $LN3@Inside@6
  0000b	39 01		 cmp	 DWORD PTR [ecx], eax
  0000d	77 05		 ja	 SHORT $LN3@Inside@6
  0000f	33 c0		 xor	 eax, eax
  00011	40		 inc	 eax
  00012	eb 02		 jmp	 SHORT $LN4@Inside@6
$LN3@Inside@6:
  00014	33 c0		 xor	 eax, eax
$LN4@Inside@6:

; 1287 : 		}

  00016	5d		 pop	 ebp
  00017	c2 04 00	 ret	 4
?_Inside@?$vector@URefreshCollisionInfo@ioAreaWeapon@@V?$allocator@URefreshCollisionInfo@ioAreaWeapon@@@std@@@std@@IBE_NPBURefreshCollisionInfo@ioAreaWeapon@@@Z ENDP ; std::vector<ioAreaWeapon::RefreshCollisionInfo,std::allocator<ioAreaWeapon::RefreshCollisionInfo> >::_Inside
_TEXT	ENDS
PUBLIC	?_Orphan_range@?$vector@URefreshCollisionInfo@ioAreaWeapon@@V?$allocator@URefreshCollisionInfo@ioAreaWeapon@@@std@@@std@@IBEXPAURefreshCollisionInfo@ioAreaWeapon@@0@Z ; std::vector<ioAreaWeapon::RefreshCollisionInfo,std::allocator<ioAreaWeapon::RefreshCollisionInfo> >::_Orphan_range
; Function compile flags: /Ogsp
;	COMDAT ?_Orphan_range@?$vector@URefreshCollisionInfo@ioAreaWeapon@@V?$allocator@URefreshCollisionInfo@ioAreaWeapon@@@std@@@std@@IBEXPAURefreshCollisionInfo@ioAreaWeapon@@0@Z
_TEXT	SEGMENT
___formal$ = 8						; size = 4
___formal$ = 12						; size = 4
?_Orphan_range@?$vector@URefreshCollisionInfo@ioAreaWeapon@@V?$allocator@URefreshCollisionInfo@ioAreaWeapon@@@std@@@std@@IBEXPAURefreshCollisionInfo@ioAreaWeapon@@0@Z PROC ; std::vector<ioAreaWeapon::RefreshCollisionInfo,std::allocator<ioAreaWeapon::RefreshCollisionInfo> >::_Orphan_range, COMDAT
; _this$ = ecx

; 1454 : 		}

  00000	c2 08 00	 ret	 8
?_Orphan_range@?$vector@URefreshCollisionInfo@ioAreaWeapon@@V?$allocator@URefreshCollisionInfo@ioAreaWeapon@@@std@@@std@@IBEXPAURefreshCollisionInfo@ioAreaWeapon@@0@Z ENDP ; std::vector<ioAreaWeapon::RefreshCollisionInfo,std::allocator<ioAreaWeapon::RefreshCollisionInfo> >::_Orphan_range
_TEXT	ENDS
PUBLIC	??1?$_Vector_val@URefreshCollisionInfo@ioAreaWeapon@@V?$allocator@URefreshCollisionInfo@ioAreaWeapon@@@std@@@std@@QAE@XZ ; std::_Vector_val<ioAreaWeapon::RefreshCollisionInfo,std::allocator<ioAreaWeapon::RefreshCollisionInfo> >::~_Vector_val<ioAreaWeapon::RefreshCollisionInfo,std::allocator<ioAreaWeapon::RefreshCollisionInfo> >
; Function compile flags: /Ogsp
;	COMDAT ??1?$_Vector_val@URefreshCollisionInfo@ioAreaWeapon@@V?$allocator@URefreshCollisionInfo@ioAreaWeapon@@@std@@@std@@QAE@XZ
_TEXT	SEGMENT
??1?$_Vector_val@URefreshCollisionInfo@ioAreaWeapon@@V?$allocator@URefreshCollisionInfo@ioAreaWeapon@@@std@@@std@@QAE@XZ PROC ; std::_Vector_val<ioAreaWeapon::RefreshCollisionInfo,std::allocator<ioAreaWeapon::RefreshCollisionInfo> >::~_Vector_val<ioAreaWeapon::RefreshCollisionInfo,std::allocator<ioAreaWeapon::RefreshCollisionInfo> >, COMDAT
; _this$ = ecx

; 434  : 		}

  00000	c3		 ret	 0
??1?$_Vector_val@URefreshCollisionInfo@ioAreaWeapon@@V?$allocator@URefreshCollisionInfo@ioAreaWeapon@@@std@@@std@@QAE@XZ ENDP ; std::_Vector_val<ioAreaWeapon::RefreshCollisionInfo,std::allocator<ioAreaWeapon::RefreshCollisionInfo> >::~_Vector_val<ioAreaWeapon::RefreshCollisionInfo,std::allocator<ioAreaWeapon::RefreshCollisionInfo> >
_TEXT	ENDS
PUBLIC	??0?$allocator@URefreshCollisionInfo@ioAreaWeapon@@@std@@QAE@XZ ; std::allocator<ioAreaWeapon::RefreshCollisionInfo>::allocator<ioAreaWeapon::RefreshCollisionInfo>
; Function compile flags: /Ogsp
; File c:\program files (x86)\microsoft visual studio 10.0\vc\include\xmemory
;	COMDAT ??0?$allocator@URefreshCollisionInfo@ioAreaWeapon@@@std@@QAE@XZ
_TEXT	SEGMENT
??0?$allocator@URefreshCollisionInfo@ioAreaWeapon@@@std@@QAE@XZ PROC ; std::allocator<ioAreaWeapon::RefreshCollisionInfo>::allocator<ioAreaWeapon::RefreshCollisionInfo>, COMDAT
; _this$ = ecx

; 161  : 	_ALLOCATOR() _THROW0()

  00000	8b c1		 mov	 eax, ecx

; 162  : 		{	// construct default allocator (do nothing)
; 163  : 		}

  00002	c3		 ret	 0
??0?$allocator@URefreshCollisionInfo@ioAreaWeapon@@@std@@QAE@XZ ENDP ; std::allocator<ioAreaWeapon::RefreshCollisionInfo>::allocator<ioAreaWeapon::RefreshCollisionInfo>
_TEXT	ENDS
PUBLIC	??0?$_Vector_const_iterator@V?$_Vector_val@VioHashString@@V?$allocator@VioHashString@@@std@@@std@@@std@@QAE@XZ ; std::_Vector_const_iterator<std::_Vector_val<ioHashString,std::allocator<ioHashString> > >::_Vector_const_iterator<std::_Vector_val<ioHashString,std::allocator<ioHashString> > >
; Function compile flags: /Ogsp
; File c:\program files (x86)\microsoft visual studio 10.0\vc\include\vector
;	COMDAT ??0?$_Vector_const_iterator@V?$_Vector_val@VioHashString@@V?$allocator@VioHashString@@@std@@@std@@@std@@QAE@XZ
_TEXT	SEGMENT
??0?$_Vector_const_iterator@V?$_Vector_val@VioHashString@@V?$allocator@VioHashString@@@std@@@std@@@std@@QAE@XZ PROC ; std::_Vector_const_iterator<std::_Vector_val<ioHashString,std::allocator<ioHashString> > >::_Vector_const_iterator<std::_Vector_val<ioHashString,std::allocator<ioHashString> > >, COMDAT
; _this$ = ecx

; 40   : 		{	// construct with null pointer

  00000	8b c1		 mov	 eax, ecx
  00002	83 20 00	 and	 DWORD PTR [eax], 0

; 41   : 		}

  00005	c3		 ret	 0
??0?$_Vector_const_iterator@V?$_Vector_val@VioHashString@@V?$allocator@VioHashString@@@std@@@std@@@std@@QAE@XZ ENDP ; std::_Vector_const_iterator<std::_Vector_val<ioHashString,std::allocator<ioHashString> > >::_Vector_const_iterator<std::_Vector_val<ioHashString,std::allocator<ioHashString> > >
_TEXT	ENDS
PUBLIC	??D?$_Vector_const_iterator@V?$_Vector_val@UChangeMoveInfo@@V?$allocator@UChangeMoveInfo@@@std@@@std@@@std@@QBEABUChangeMoveInfo@@XZ ; std::_Vector_const_iterator<std::_Vector_val<ChangeMoveInfo,std::allocator<ChangeMoveInfo> > >::operator*
; Function compile flags: /Ogsp
;	COMDAT ??D?$_Vector_const_iterator@V?$_Vector_val@UChangeMoveInfo@@V?$allocator@UChangeMoveInfo@@@std@@@std@@@std@@QBEABUChangeMoveInfo@@XZ
_TEXT	SEGMENT
??D?$_Vector_const_iterator@V?$_Vector_val@UChangeMoveInfo@@V?$allocator@UChangeMoveInfo@@@std@@@std@@@std@@QBEABUChangeMoveInfo@@XZ PROC ; std::_Vector_const_iterator<std::_Vector_val<ChangeMoveInfo,std::allocator<ChangeMoveInfo> > >::operator*, COMDAT
; _this$ = ecx

; 64   :  #if _ITERATOR_DEBUG_LEVEL == 2
; 65   : 		if (this->_Getcont() == 0
; 66   : 			|| this->_Ptr == 0
; 67   : 			|| this->_Ptr < ((_Myvec *)this->_Getcont())->_Myfirst
; 68   : 			|| ((_Myvec *)this->_Getcont())->_Mylast <= this->_Ptr)
; 69   : 			{	// report error
; 70   : 			_DEBUG_ERROR("vector iterator not dereferencable");
; 71   : 			_SCL_SECURE_OUT_OF_RANGE;
; 72   : 			}
; 73   : 
; 74   :  #elif _ITERATOR_DEBUG_LEVEL == 1
; 75   : 		_SCL_SECURE_VALIDATE(this->_Getcont() != 0);
; 76   : 		_SCL_SECURE_VALIDATE_RANGE(
; 77   : 			this->_Ptr != 0
; 78   : 			&& ((_Myvec *)this->_Getcont())->_Myfirst <= this->_Ptr
; 79   : 			&& this->_Ptr < ((_Myvec *)this->_Getcont())->_Mylast);
; 80   :  #endif /* _ITERATOR_DEBUG_LEVEL */
; 81   : 
; 82   : 		__analysis_assume(this->_Ptr != 0);
; 83   : 
; 84   : 		return (*this->_Ptr);

  00000	8b 01		 mov	 eax, DWORD PTR [ecx]

; 85   : 		}

  00002	c3		 ret	 0
??D?$_Vector_const_iterator@V?$_Vector_val@UChangeMoveInfo@@V?$allocator@UChangeMoveInfo@@@std@@@std@@@std@@QBEABUChangeMoveInfo@@XZ ENDP ; std::_Vector_const_iterator<std::_Vector_val<ChangeMoveInfo,std::allocator<ChangeMoveInfo> > >::operator*
_TEXT	ENDS
PUBLIC	??E?$_Vector_const_iterator@V?$_Vector_val@UChangeMoveInfo@@V?$allocator@UChangeMoveInfo@@@std@@@std@@@std@@QAEAAV01@XZ ; std::_Vector_const_iterator<std::_Vector_val<ChangeMoveInfo,std::allocator<ChangeMoveInfo> > >::operator++
; Function compile flags: /Ogsp
;	COMDAT ??E?$_Vector_const_iterator@V?$_Vector_val@UChangeMoveInfo@@V?$allocator@UChangeMoveInfo@@@std@@@std@@@std@@QAEAAV01@XZ
_TEXT	SEGMENT
??E?$_Vector_const_iterator@V?$_Vector_val@UChangeMoveInfo@@V?$allocator@UChangeMoveInfo@@@std@@@std@@@std@@QAEAAV01@XZ PROC ; std::_Vector_const_iterator<std::_Vector_val<ChangeMoveInfo,std::allocator<ChangeMoveInfo> > >::operator++, COMDAT
; _this$ = ecx

; 93   : 		{	// preincrement

  00000	8b c1		 mov	 eax, ecx

; 94   :  #if _ITERATOR_DEBUG_LEVEL == 2
; 95   : 		if (this->_Getcont() == 0
; 96   : 			|| this->_Ptr == 0
; 97   : 			|| ((_Myvec *)this->_Getcont())->_Mylast <= this->_Ptr)
; 98   : 			{	// report error
; 99   : 			_DEBUG_ERROR("vector iterator not incrementable");
; 100  : 			_SCL_SECURE_OUT_OF_RANGE;
; 101  : 			}
; 102  : 
; 103  :  #elif _ITERATOR_DEBUG_LEVEL == 1
; 104  : 		_SCL_SECURE_VALIDATE(this->_Getcont() != 0);
; 105  : 		_SCL_SECURE_VALIDATE_RANGE(
; 106  : 			this->_Ptr != 0
; 107  : 			&& this->_Ptr < ((_Myvec *)this->_Getcont())->_Mylast);
; 108  :  #endif /* _ITERATOR_DEBUG_LEVEL */
; 109  : 
; 110  : 		++this->_Ptr;

  00002	83 00 10	 add	 DWORD PTR [eax], 16	; 00000010H

; 111  : 		return (*this);
; 112  : 		}

  00005	c3		 ret	 0
??E?$_Vector_const_iterator@V?$_Vector_val@UChangeMoveInfo@@V?$allocator@UChangeMoveInfo@@@std@@@std@@@std@@QAEAAV01@XZ ENDP ; std::_Vector_const_iterator<std::_Vector_val<ChangeMoveInfo,std::allocator<ChangeMoveInfo> > >::operator++
_TEXT	ENDS
PUBLIC	??0?$_Vector_const_iterator@V?$_Vector_val@PAVioBaseChar@@V?$allocator@PAVioBaseChar@@@std@@@std@@@std@@QAE@PAPAVioBaseChar@@PBU_Container_base0@1@@Z ; std::_Vector_const_iterator<std::_Vector_val<ioBaseChar *,std::allocator<ioBaseChar *> > >::_Vector_const_iterator<std::_Vector_val<ioBaseChar *,std::allocator<ioBaseChar *> > >
; Function compile flags: /Ogsp
;	COMDAT ??0?$_Vector_const_iterator@V?$_Vector_val@PAVioBaseChar@@V?$allocator@PAVioBaseChar@@@std@@@std@@@std@@QAE@PAPAVioBaseChar@@PBU_Container_base0@1@@Z
_TEXT	SEGMENT
__Parg$ = 8						; size = 4
__Pvector$ = 12						; size = 4
??0?$_Vector_const_iterator@V?$_Vector_val@PAVioBaseChar@@V?$allocator@PAVioBaseChar@@@std@@@std@@@std@@QAE@PAPAVioBaseChar@@PBU_Container_base0@1@@Z PROC ; std::_Vector_const_iterator<std::_Vector_val<ioBaseChar *,std::allocator<ioBaseChar *> > >::_Vector_const_iterator<std::_Vector_val<ioBaseChar *,std::allocator<ioBaseChar *> > >, COMDAT
; _this$ = ecx

; 45   : 		{	// construct with pointer _Parg

  00000	55		 push	 ebp
  00001	8b ec		 mov	 ebp, esp
  00003	8b c1		 mov	 eax, ecx
  00005	8b 4d 08	 mov	 ecx, DWORD PTR __Parg$[ebp]
  00008	89 08		 mov	 DWORD PTR [eax], ecx

; 46   : 		this->_Adopt(_Pvector);
; 47   : 		}

  0000a	5d		 pop	 ebp
  0000b	c2 08 00	 ret	 8
??0?$_Vector_const_iterator@V?$_Vector_val@PAVioBaseChar@@V?$allocator@PAVioBaseChar@@@std@@@std@@@std@@QAE@PAPAVioBaseChar@@PBU_Container_base0@1@@Z ENDP ; std::_Vector_const_iterator<std::_Vector_val<ioBaseChar *,std::allocator<ioBaseChar *> > >::_Vector_const_iterator<std::_Vector_val<ioBaseChar *,std::allocator<ioBaseChar *> > >
_TEXT	ENDS
PUBLIC	??D?$_Vector_const_iterator@V?$_Vector_val@UtagGenerateInfo@@V?$allocator@UtagGenerateInfo@@@std@@@std@@@std@@QBEABUtagGenerateInfo@@XZ ; std::_Vector_const_iterator<std::_Vector_val<tagGenerateInfo,std::allocator<tagGenerateInfo> > >::operator*
; Function compile flags: /Ogsp
;	COMDAT ??D?$_Vector_const_iterator@V?$_Vector_val@UtagGenerateInfo@@V?$allocator@UtagGenerateInfo@@@std@@@std@@@std@@QBEABUtagGenerateInfo@@XZ
_TEXT	SEGMENT
??D?$_Vector_const_iterator@V?$_Vector_val@UtagGenerateInfo@@V?$allocator@UtagGenerateInfo@@@std@@@std@@@std@@QBEABUtagGenerateInfo@@XZ PROC ; std::_Vector_const_iterator<std::_Vector_val<tagGenerateInfo,std::allocator<tagGenerateInfo> > >::operator*, COMDAT
; _this$ = ecx

; 64   :  #if _ITERATOR_DEBUG_LEVEL == 2
; 65   : 		if (this->_Getcont() == 0
; 66   : 			|| this->_Ptr == 0
; 67   : 			|| this->_Ptr < ((_Myvec *)this->_Getcont())->_Myfirst
; 68   : 			|| ((_Myvec *)this->_Getcont())->_Mylast <= this->_Ptr)
; 69   : 			{	// report error
; 70   : 			_DEBUG_ERROR("vector iterator not dereferencable");
; 71   : 			_SCL_SECURE_OUT_OF_RANGE;
; 72   : 			}
; 73   : 
; 74   :  #elif _ITERATOR_DEBUG_LEVEL == 1
; 75   : 		_SCL_SECURE_VALIDATE(this->_Getcont() != 0);
; 76   : 		_SCL_SECURE_VALIDATE_RANGE(
; 77   : 			this->_Ptr != 0
; 78   : 			&& ((_Myvec *)this->_Getcont())->_Myfirst <= this->_Ptr
; 79   : 			&& this->_Ptr < ((_Myvec *)this->_Getcont())->_Mylast);
; 80   :  #endif /* _ITERATOR_DEBUG_LEVEL */
; 81   : 
; 82   : 		__analysis_assume(this->_Ptr != 0);
; 83   : 
; 84   : 		return (*this->_Ptr);

  00000	8b 01		 mov	 eax, DWORD PTR [ecx]

; 85   : 		}

  00002	c3		 ret	 0
??D?$_Vector_const_iterator@V?$_Vector_val@UtagGenerateInfo@@V?$allocator@UtagGenerateInfo@@@std@@@std@@@std@@QBEABUtagGenerateInfo@@XZ ENDP ; std::_Vector_const_iterator<std::_Vector_val<tagGenerateInfo,std::allocator<tagGenerateInfo> > >::operator*
_TEXT	ENDS
PUBLIC	?capacity@?$vector@UD3DXVECTOR3@@V?$allocator@UD3DXVECTOR3@@@std@@@std@@QBEIXZ ; std::vector<D3DXVECTOR3,std::allocator<D3DXVECTOR3> >::capacity
; Function compile flags: /Ogsp
;	COMDAT ?capacity@?$vector@UD3DXVECTOR3@@V?$allocator@UD3DXVECTOR3@@@std@@@std@@QBEIXZ
_TEXT	SEGMENT
?capacity@?$vector@UD3DXVECTOR3@@V?$allocator@UD3DXVECTOR3@@@std@@@std@@QBEIXZ PROC ; std::vector<D3DXVECTOR3,std::allocator<D3DXVECTOR3> >::capacity, COMDAT
; _this$ = ecx

; 777  : 		return (this->_Myend - this->_Myfirst);

  00000	8b 41 08	 mov	 eax, DWORD PTR [ecx+8]
  00003	2b 01		 sub	 eax, DWORD PTR [ecx]
  00005	6a 0c		 push	 12			; 0000000cH
  00007	99		 cdq
  00008	59		 pop	 ecx
  00009	f7 f9		 idiv	 ecx

; 778  : 		}

  0000b	c3		 ret	 0
?capacity@?$vector@UD3DXVECTOR3@@V?$allocator@UD3DXVECTOR3@@@std@@@std@@QBEIXZ ENDP ; std::vector<D3DXVECTOR3,std::allocator<D3DXVECTOR3> >::capacity
_TEXT	ENDS
PUBLIC	?size@?$vector@UD3DXVECTOR3@@V?$allocator@UD3DXVECTOR3@@@std@@@std@@QBEIXZ ; std::vector<D3DXVECTOR3,std::allocator<D3DXVECTOR3> >::size
; Function compile flags: /Ogsp
;	COMDAT ?size@?$vector@UD3DXVECTOR3@@V?$allocator@UD3DXVECTOR3@@@std@@@std@@QBEIXZ
_TEXT	SEGMENT
?size@?$vector@UD3DXVECTOR3@@V?$allocator@UD3DXVECTOR3@@@std@@@std@@QBEIXZ PROC ; std::vector<D3DXVECTOR3,std::allocator<D3DXVECTOR3> >::size, COMDAT
; _this$ = ecx

; 879  : 		return (this->_Mylast - this->_Myfirst);

  00000	8b 41 04	 mov	 eax, DWORD PTR [ecx+4]
  00003	2b 01		 sub	 eax, DWORD PTR [ecx]
  00005	6a 0c		 push	 12			; 0000000cH
  00007	99		 cdq
  00008	59		 pop	 ecx
  00009	f7 f9		 idiv	 ecx

; 880  : 		}

  0000b	c3		 ret	 0
?size@?$vector@UD3DXVECTOR3@@V?$allocator@UD3DXVECTOR3@@@std@@@std@@QBEIXZ ENDP ; std::vector<D3DXVECTOR3,std::allocator<D3DXVECTOR3> >::size
_TEXT	ENDS
PUBLIC	?_Xlen@?$vector@UD3DXVECTOR3@@V?$allocator@UD3DXVECTOR3@@@std@@@std@@IBEXXZ ; std::vector<D3DXVECTOR3,std::allocator<D3DXVECTOR3> >::_Xlen
; Function compile flags: /Ogsp
;	COMDAT ?_Xlen@?$vector@UD3DXVECTOR3@@V?$allocator@UD3DXVECTOR3@@@std@@@std@@IBEXXZ
_TEXT	SEGMENT
?_Xlen@?$vector@UD3DXVECTOR3@@V?$allocator@UD3DXVECTOR3@@@std@@@std@@IBEXXZ PROC ; std::vector<D3DXVECTOR3,std::allocator<D3DXVECTOR3> >::_Xlen, COMDAT
; _this$ = ecx

; 1427 : 		_Xlength_error("vector<T> too long");

  00000	68 00 00 00 00	 push	 OFFSET ??_C@_0BD@OLBABOEK@vector?$DMT?$DO?5too?5long?$AA@
  00005	ff 15 00 00 00
	00		 call	 DWORD PTR __imp_?_Xlength_error@std@@YAXPBD@Z
$LN4@Xlen@2:
$LN3@Xlen@2:
  0000b	cc		 int	 3
?_Xlen@?$vector@UD3DXVECTOR3@@V?$allocator@UD3DXVECTOR3@@@std@@@std@@IBEXXZ ENDP ; std::vector<D3DXVECTOR3,std::allocator<D3DXVECTOR3> >::_Xlen
_TEXT	ENDS
PUBLIC	??0?$allocator@UD3DXVECTOR3@@@std@@QAE@ABV01@@Z	; std::allocator<D3DXVECTOR3>::allocator<D3DXVECTOR3>
; Function compile flags: /Ogsp
; File c:\program files (x86)\microsoft visual studio 10.0\vc\include\xmemory
;	COMDAT ??0?$allocator@UD3DXVECTOR3@@@std@@QAE@ABV01@@Z
_TEXT	SEGMENT
___formal$ = 8						; size = 4
??0?$allocator@UD3DXVECTOR3@@@std@@QAE@ABV01@@Z PROC	; std::allocator<D3DXVECTOR3>::allocator<D3DXVECTOR3>, COMDAT
; _this$ = ecx

; 165  : 	_ALLOCATOR(const _ALLOCATOR<_Ty>&) _THROW0()

  00000	8b c1		 mov	 eax, ecx

; 166  : 		{	// construct by copying (do nothing)
; 167  : 		}

  00002	c2 04 00	 ret	 4
??0?$allocator@UD3DXVECTOR3@@@std@@QAE@ABV01@@Z ENDP	; std::allocator<D3DXVECTOR3>::allocator<D3DXVECTOR3>
_TEXT	ENDS
PUBLIC	?deallocate@?$allocator@UD3DXVECTOR3@@@std@@QAEXPAUD3DXVECTOR3@@I@Z ; std::allocator<D3DXVECTOR3>::deallocate
; Function compile flags: /Ogsp
;	COMDAT ?deallocate@?$allocator@UD3DXVECTOR3@@@std@@QAEXPAUD3DXVECTOR3@@I@Z
_TEXT	SEGMENT
__Ptr$ = 8						; size = 4
___formal$ = 12						; size = 4
?deallocate@?$allocator@UD3DXVECTOR3@@@std@@QAEXPAUD3DXVECTOR3@@I@Z PROC ; std::allocator<D3DXVECTOR3>::deallocate, COMDAT
; _this$ = ecx

; 181  : 		{	// deallocate object at _Ptr, ignore size

  00000	55		 push	 ebp
  00001	8b ec		 mov	 ebp, esp

; 182  : 		::operator delete(_Ptr);

  00003	ff 75 08	 push	 DWORD PTR __Ptr$[ebp]
  00006	e8 00 00 00 00	 call	 ??3@YAXPAX@Z		; operator delete
  0000b	59		 pop	 ecx

; 183  : 		}

  0000c	5d		 pop	 ebp
  0000d	c2 08 00	 ret	 8
?deallocate@?$allocator@UD3DXVECTOR3@@@std@@QAEXPAUD3DXVECTOR3@@I@Z ENDP ; std::allocator<D3DXVECTOR3>::deallocate
_TEXT	ENDS
PUBLIC	?max_size@?$allocator@UChangeMoveInfo@@@std@@QBEIXZ ; std::allocator<ChangeMoveInfo>::max_size
; Function compile flags: /Ogsp
;	COMDAT ?max_size@?$allocator@UChangeMoveInfo@@@std@@QBEIXZ
_TEXT	SEGMENT
?max_size@?$allocator@UChangeMoveInfo@@@std@@QBEIXZ PROC ; std::allocator<ChangeMoveInfo>::max_size, COMDAT
; _this$ = ecx

; 218  : 		_SIZT _Count = (_SIZT)(-1) / sizeof (_Ty);
; 219  : 		return (0 < _Count ? _Count : 1);

  00000	b8 ff ff ff 0f	 mov	 eax, 268435455		; 0fffffffH

; 220  : 		}

  00005	c3		 ret	 0
?max_size@?$allocator@UChangeMoveInfo@@@std@@QBEIXZ ENDP ; std::allocator<ChangeMoveInfo>::max_size
_TEXT	ENDS
PUBLIC	?capacity@?$vector@PAVioBaseChar@@V?$allocator@PAVioBaseChar@@@std@@@std@@QBEIXZ ; std::vector<ioBaseChar *,std::allocator<ioBaseChar *> >::capacity
; Function compile flags: /Ogsp
; File c:\program files (x86)\microsoft visual studio 10.0\vc\include\vector
;	COMDAT ?capacity@?$vector@PAVioBaseChar@@V?$allocator@PAVioBaseChar@@@std@@@std@@QBEIXZ
_TEXT	SEGMENT
?capacity@?$vector@PAVioBaseChar@@V?$allocator@PAVioBaseChar@@@std@@@std@@QBEIXZ PROC ; std::vector<ioBaseChar *,std::allocator<ioBaseChar *> >::capacity, COMDAT
; _this$ = ecx

; 777  : 		return (this->_Myend - this->_Myfirst);

  00000	8b 41 08	 mov	 eax, DWORD PTR [ecx+8]
  00003	2b 01		 sub	 eax, DWORD PTR [ecx]
  00005	c1 f8 02	 sar	 eax, 2

; 778  : 		}

  00008	c3		 ret	 0
?capacity@?$vector@PAVioBaseChar@@V?$allocator@PAVioBaseChar@@@std@@@std@@QBEIXZ ENDP ; std::vector<ioBaseChar *,std::allocator<ioBaseChar *> >::capacity
_TEXT	ENDS
PUBLIC	?_Xlen@?$vector@PAVioBaseChar@@V?$allocator@PAVioBaseChar@@@std@@@std@@IBEXXZ ; std::vector<ioBaseChar *,std::allocator<ioBaseChar *> >::_Xlen
; Function compile flags: /Ogsp
;	COMDAT ?_Xlen@?$vector@PAVioBaseChar@@V?$allocator@PAVioBaseChar@@@std@@@std@@IBEXXZ
_TEXT	SEGMENT
?_Xlen@?$vector@PAVioBaseChar@@V?$allocator@PAVioBaseChar@@@std@@@std@@IBEXXZ PROC ; std::vector<ioBaseChar *,std::allocator<ioBaseChar *> >::_Xlen, COMDAT
; _this$ = ecx

; 1427 : 		_Xlength_error("vector<T> too long");

  00000	68 00 00 00 00	 push	 OFFSET ??_C@_0BD@OLBABOEK@vector?$DMT?$DO?5too?5long?$AA@
  00005	ff 15 00 00 00
	00		 call	 DWORD PTR __imp_?_Xlength_error@std@@YAXPBD@Z
$LN4@Xlen@3:
$LN3@Xlen@3:
  0000b	cc		 int	 3
?_Xlen@?$vector@PAVioBaseChar@@V?$allocator@PAVioBaseChar@@@std@@@std@@IBEXXZ ENDP ; std::vector<ioBaseChar *,std::allocator<ioBaseChar *> >::_Xlen
_TEXT	ENDS
PUBLIC	??0?$allocator@PAVioBaseChar@@@std@@QAE@ABV01@@Z ; std::allocator<ioBaseChar *>::allocator<ioBaseChar *>
; Function compile flags: /Ogsp
; File c:\program files (x86)\microsoft visual studio 10.0\vc\include\xmemory
;	COMDAT ??0?$allocator@PAVioBaseChar@@@std@@QAE@ABV01@@Z
_TEXT	SEGMENT
___formal$ = 8						; size = 4
??0?$allocator@PAVioBaseChar@@@std@@QAE@ABV01@@Z PROC	; std::allocator<ioBaseChar *>::allocator<ioBaseChar *>, COMDAT
; _this$ = ecx

; 165  : 	_ALLOCATOR(const _ALLOCATOR<_Ty>&) _THROW0()

  00000	8b c1		 mov	 eax, ecx

; 166  : 		{	// construct by copying (do nothing)
; 167  : 		}

  00002	c2 04 00	 ret	 4
??0?$allocator@PAVioBaseChar@@@std@@QAE@ABV01@@Z ENDP	; std::allocator<ioBaseChar *>::allocator<ioBaseChar *>
_TEXT	ENDS
PUBLIC	?deallocate@?$allocator@PAVioBaseChar@@@std@@QAEXPAPAVioBaseChar@@I@Z ; std::allocator<ioBaseChar *>::deallocate
; Function compile flags: /Ogsp
;	COMDAT ?deallocate@?$allocator@PAVioBaseChar@@@std@@QAEXPAPAVioBaseChar@@I@Z
_TEXT	SEGMENT
__Ptr$ = 8						; size = 4
___formal$ = 12						; size = 4
?deallocate@?$allocator@PAVioBaseChar@@@std@@QAEXPAPAVioBaseChar@@I@Z PROC ; std::allocator<ioBaseChar *>::deallocate, COMDAT
; _this$ = ecx

; 181  : 		{	// deallocate object at _Ptr, ignore size

  00000	55		 push	 ebp
  00001	8b ec		 mov	 ebp, esp

; 182  : 		::operator delete(_Ptr);

  00003	ff 75 08	 push	 DWORD PTR __Ptr$[ebp]
  00006	e8 00 00 00 00	 call	 ??3@YAXPAX@Z		; operator delete
  0000b	59		 pop	 ecx

; 183  : 		}

  0000c	5d		 pop	 ebp
  0000d	c2 08 00	 ret	 8
?deallocate@?$allocator@PAVioBaseChar@@@std@@QAEXPAPAVioBaseChar@@I@Z ENDP ; std::allocator<ioBaseChar *>::deallocate
_TEXT	ENDS
PUBLIC	?capacity@?$vector@UtagGenerateInfo@@V?$allocator@UtagGenerateInfo@@@std@@@std@@QBEIXZ ; std::vector<tagGenerateInfo,std::allocator<tagGenerateInfo> >::capacity
; Function compile flags: /Ogsp
; File c:\program files (x86)\microsoft visual studio 10.0\vc\include\vector
;	COMDAT ?capacity@?$vector@UtagGenerateInfo@@V?$allocator@UtagGenerateInfo@@@std@@@std@@QBEIXZ
_TEXT	SEGMENT
?capacity@?$vector@UtagGenerateInfo@@V?$allocator@UtagGenerateInfo@@@std@@@std@@QBEIXZ PROC ; std::vector<tagGenerateInfo,std::allocator<tagGenerateInfo> >::capacity, COMDAT
; _this$ = ecx

; 777  : 		return (this->_Myend - this->_Myfirst);

  00000	8b 41 08	 mov	 eax, DWORD PTR [ecx+8]
  00003	2b 01		 sub	 eax, DWORD PTR [ecx]
  00005	6a 14		 push	 20			; 00000014H
  00007	99		 cdq
  00008	59		 pop	 ecx
  00009	f7 f9		 idiv	 ecx

; 778  : 		}

  0000b	c3		 ret	 0
?capacity@?$vector@UtagGenerateInfo@@V?$allocator@UtagGenerateInfo@@@std@@@std@@QBEIXZ ENDP ; std::vector<tagGenerateInfo,std::allocator<tagGenerateInfo> >::capacity
_TEXT	ENDS
PUBLIC	?size@?$vector@UtagGenerateInfo@@V?$allocator@UtagGenerateInfo@@@std@@@std@@QBEIXZ ; std::vector<tagGenerateInfo,std::allocator<tagGenerateInfo> >::size
; Function compile flags: /Ogsp
;	COMDAT ?size@?$vector@UtagGenerateInfo@@V?$allocator@UtagGenerateInfo@@@std@@@std@@QBEIXZ
_TEXT	SEGMENT
?size@?$vector@UtagGenerateInfo@@V?$allocator@UtagGenerateInfo@@@std@@@std@@QBEIXZ PROC ; std::vector<tagGenerateInfo,std::allocator<tagGenerateInfo> >::size, COMDAT
; _this$ = ecx

; 879  : 		return (this->_Mylast - this->_Myfirst);

  00000	8b 41 04	 mov	 eax, DWORD PTR [ecx+4]
  00003	2b 01		 sub	 eax, DWORD PTR [ecx]
  00005	6a 14		 push	 20			; 00000014H
  00007	99		 cdq
  00008	59		 pop	 ecx
  00009	f7 f9		 idiv	 ecx

; 880  : 		}

  0000b	c3		 ret	 0
?size@?$vector@UtagGenerateInfo@@V?$allocator@UtagGenerateInfo@@@std@@@std@@QBEIXZ ENDP ; std::vector<tagGenerateInfo,std::allocator<tagGenerateInfo> >::size
_TEXT	ENDS
PUBLIC	?_Xlen@?$vector@UtagGenerateInfo@@V?$allocator@UtagGenerateInfo@@@std@@@std@@IBEXXZ ; std::vector<tagGenerateInfo,std::allocator<tagGenerateInfo> >::_Xlen
; Function compile flags: /Ogsp
;	COMDAT ?_Xlen@?$vector@UtagGenerateInfo@@V?$allocator@UtagGenerateInfo@@@std@@@std@@IBEXXZ
_TEXT	SEGMENT
?_Xlen@?$vector@UtagGenerateInfo@@V?$allocator@UtagGenerateInfo@@@std@@@std@@IBEXXZ PROC ; std::vector<tagGenerateInfo,std::allocator<tagGenerateInfo> >::_Xlen, COMDAT
; _this$ = ecx

; 1427 : 		_Xlength_error("vector<T> too long");

  00000	68 00 00 00 00	 push	 OFFSET ??_C@_0BD@OLBABOEK@vector?$DMT?$DO?5too?5long?$AA@
  00005	ff 15 00 00 00
	00		 call	 DWORD PTR __imp_?_Xlength_error@std@@YAXPBD@Z
$LN4@Xlen@4:
$LN3@Xlen@4:
  0000b	cc		 int	 3
?_Xlen@?$vector@UtagGenerateInfo@@V?$allocator@UtagGenerateInfo@@@std@@@std@@IBEXXZ ENDP ; std::vector<tagGenerateInfo,std::allocator<tagGenerateInfo> >::_Xlen
_TEXT	ENDS
PUBLIC	??0?$allocator@UtagGenerateInfo@@@std@@QAE@ABV01@@Z ; std::allocator<tagGenerateInfo>::allocator<tagGenerateInfo>
; Function compile flags: /Ogsp
; File c:\program files (x86)\microsoft visual studio 10.0\vc\include\xmemory
;	COMDAT ??0?$allocator@UtagGenerateInfo@@@std@@QAE@ABV01@@Z
_TEXT	SEGMENT
___formal$ = 8						; size = 4
??0?$allocator@UtagGenerateInfo@@@std@@QAE@ABV01@@Z PROC ; std::allocator<tagGenerateInfo>::allocator<tagGenerateInfo>, COMDAT
; _this$ = ecx

; 165  : 	_ALLOCATOR(const _ALLOCATOR<_Ty>&) _THROW0()

  00000	8b c1		 mov	 eax, ecx

; 166  : 		{	// construct by copying (do nothing)
; 167  : 		}

  00002	c2 04 00	 ret	 4
??0?$allocator@UtagGenerateInfo@@@std@@QAE@ABV01@@Z ENDP ; std::allocator<tagGenerateInfo>::allocator<tagGenerateInfo>
_TEXT	ENDS
PUBLIC	?deallocate@?$allocator@UtagGenerateInfo@@@std@@QAEXPAUtagGenerateInfo@@I@Z ; std::allocator<tagGenerateInfo>::deallocate
; Function compile flags: /Ogsp
;	COMDAT ?deallocate@?$allocator@UtagGenerateInfo@@@std@@QAEXPAUtagGenerateInfo@@I@Z
_TEXT	SEGMENT
__Ptr$ = 8						; size = 4
___formal$ = 12						; size = 4
?deallocate@?$allocator@UtagGenerateInfo@@@std@@QAEXPAUtagGenerateInfo@@I@Z PROC ; std::allocator<tagGenerateInfo>::deallocate, COMDAT
; _this$ = ecx

; 181  : 		{	// deallocate object at _Ptr, ignore size

  00000	55		 push	 ebp
  00001	8b ec		 mov	 ebp, esp

; 182  : 		::operator delete(_Ptr);

  00003	ff 75 08	 push	 DWORD PTR __Ptr$[ebp]
  00006	e8 00 00 00 00	 call	 ??3@YAXPAX@Z		; operator delete
  0000b	59		 pop	 ecx

; 183  : 		}

  0000c	5d		 pop	 ebp
  0000d	c2 08 00	 ret	 8
?deallocate@?$allocator@UtagGenerateInfo@@@std@@QAEXPAUtagGenerateInfo@@I@Z ENDP ; std::allocator<tagGenerateInfo>::deallocate
_TEXT	ENDS
PUBLIC	?capacity@?$vector@URefreshCollisionInfo@ioAreaWeapon@@V?$allocator@URefreshCollisionInfo@ioAreaWeapon@@@std@@@std@@QBEIXZ ; std::vector<ioAreaWeapon::RefreshCollisionInfo,std::allocator<ioAreaWeapon::RefreshCollisionInfo> >::capacity
; Function compile flags: /Ogsp
; File c:\program files (x86)\microsoft visual studio 10.0\vc\include\vector
;	COMDAT ?capacity@?$vector@URefreshCollisionInfo@ioAreaWeapon@@V?$allocator@URefreshCollisionInfo@ioAreaWeapon@@@std@@@std@@QBEIXZ
_TEXT	SEGMENT
?capacity@?$vector@URefreshCollisionInfo@ioAreaWeapon@@V?$allocator@URefreshCollisionInfo@ioAreaWeapon@@@std@@@std@@QBEIXZ PROC ; std::vector<ioAreaWeapon::RefreshCollisionInfo,std::allocator<ioAreaWeapon::RefreshCollisionInfo> >::capacity, COMDAT
; _this$ = ecx

; 777  : 		return (this->_Myend - this->_Myfirst);

  00000	8b 41 08	 mov	 eax, DWORD PTR [ecx+8]
  00003	2b 01		 sub	 eax, DWORD PTR [ecx]
  00005	6a 14		 push	 20			; 00000014H
  00007	99		 cdq
  00008	59		 pop	 ecx
  00009	f7 f9		 idiv	 ecx

; 778  : 		}

  0000b	c3		 ret	 0
?capacity@?$vector@URefreshCollisionInfo@ioAreaWeapon@@V?$allocator@URefreshCollisionInfo@ioAreaWeapon@@@std@@@std@@QBEIXZ ENDP ; std::vector<ioAreaWeapon::RefreshCollisionInfo,std::allocator<ioAreaWeapon::RefreshCollisionInfo> >::capacity
_TEXT	ENDS
PUBLIC	?_Xlen@?$vector@URefreshCollisionInfo@ioAreaWeapon@@V?$allocator@URefreshCollisionInfo@ioAreaWeapon@@@std@@@std@@IBEXXZ ; std::vector<ioAreaWeapon::RefreshCollisionInfo,std::allocator<ioAreaWeapon::RefreshCollisionInfo> >::_Xlen
; Function compile flags: /Ogsp
;	COMDAT ?_Xlen@?$vector@URefreshCollisionInfo@ioAreaWeapon@@V?$allocator@URefreshCollisionInfo@ioAreaWeapon@@@std@@@std@@IBEXXZ
_TEXT	SEGMENT
?_Xlen@?$vector@URefreshCollisionInfo@ioAreaWeapon@@V?$allocator@URefreshCollisionInfo@ioAreaWeapon@@@std@@@std@@IBEXXZ PROC ; std::vector<ioAreaWeapon::RefreshCollisionInfo,std::allocator<ioAreaWeapon::RefreshCollisionInfo> >::_Xlen, COMDAT
; _this$ = ecx

; 1427 : 		_Xlength_error("vector<T> too long");

  00000	68 00 00 00 00	 push	 OFFSET ??_C@_0BD@OLBABOEK@vector?$DMT?$DO?5too?5long?$AA@
  00005	ff 15 00 00 00
	00		 call	 DWORD PTR __imp_?_Xlength_error@std@@YAXPBD@Z
$LN4@Xlen@5:
$LN3@Xlen@5:
  0000b	cc		 int	 3
?_Xlen@?$vector@URefreshCollisionInfo@ioAreaWeapon@@V?$allocator@URefreshCollisionInfo@ioAreaWeapon@@@std@@@std@@IBEXXZ ENDP ; std::vector<ioAreaWeapon::RefreshCollisionInfo,std::allocator<ioAreaWeapon::RefreshCollisionInfo> >::_Xlen
_TEXT	ENDS
PUBLIC	??0?$allocator@URefreshCollisionInfo@ioAreaWeapon@@@std@@QAE@ABV01@@Z ; std::allocator<ioAreaWeapon::RefreshCollisionInfo>::allocator<ioAreaWeapon::RefreshCollisionInfo>
; Function compile flags: /Ogsp
; File c:\program files (x86)\microsoft visual studio 10.0\vc\include\xmemory
;	COMDAT ??0?$allocator@URefreshCollisionInfo@ioAreaWeapon@@@std@@QAE@ABV01@@Z
_TEXT	SEGMENT
___formal$ = 8						; size = 4
??0?$allocator@URefreshCollisionInfo@ioAreaWeapon@@@std@@QAE@ABV01@@Z PROC ; std::allocator<ioAreaWeapon::RefreshCollisionInfo>::allocator<ioAreaWeapon::RefreshCollisionInfo>, COMDAT
; _this$ = ecx

; 165  : 	_ALLOCATOR(const _ALLOCATOR<_Ty>&) _THROW0()

  00000	8b c1		 mov	 eax, ecx

; 166  : 		{	// construct by copying (do nothing)
; 167  : 		}

  00002	c2 04 00	 ret	 4
??0?$allocator@URefreshCollisionInfo@ioAreaWeapon@@@std@@QAE@ABV01@@Z ENDP ; std::allocator<ioAreaWeapon::RefreshCollisionInfo>::allocator<ioAreaWeapon::RefreshCollisionInfo>
_TEXT	ENDS
PUBLIC	?deallocate@?$allocator@URefreshCollisionInfo@ioAreaWeapon@@@std@@QAEXPAURefreshCollisionInfo@ioAreaWeapon@@I@Z ; std::allocator<ioAreaWeapon::RefreshCollisionInfo>::deallocate
; Function compile flags: /Ogsp
;	COMDAT ?deallocate@?$allocator@URefreshCollisionInfo@ioAreaWeapon@@@std@@QAEXPAURefreshCollisionInfo@ioAreaWeapon@@I@Z
_TEXT	SEGMENT
__Ptr$ = 8						; size = 4
___formal$ = 12						; size = 4
?deallocate@?$allocator@URefreshCollisionInfo@ioAreaWeapon@@@std@@QAEXPAURefreshCollisionInfo@ioAreaWeapon@@I@Z PROC ; std::allocator<ioAreaWeapon::RefreshCollisionInfo>::deallocate, COMDAT
; _this$ = ecx

; 181  : 		{	// deallocate object at _Ptr, ignore size

  00000	55		 push	 ebp
  00001	8b ec		 mov	 ebp, esp

; 182  : 		::operator delete(_Ptr);

  00003	ff 75 08	 push	 DWORD PTR __Ptr$[ebp]
  00006	e8 00 00 00 00	 call	 ??3@YAXPAX@Z		; operator delete
  0000b	59		 pop	 ecx

; 183  : 		}

  0000c	5d		 pop	 ebp
  0000d	c2 08 00	 ret	 8
?deallocate@?$allocator@URefreshCollisionInfo@ioAreaWeapon@@@std@@QAEXPAURefreshCollisionInfo@ioAreaWeapon@@I@Z ENDP ; std::allocator<ioAreaWeapon::RefreshCollisionInfo>::deallocate
_TEXT	ENDS
PUBLIC	??0?$_Vector_const_iterator@V?$_Vector_val@UChangeMoveInfo@@V?$allocator@UChangeMoveInfo@@@std@@@std@@@std@@QAE@PAUChangeMoveInfo@@PBU_Container_base0@1@@Z ; std::_Vector_const_iterator<std::_Vector_val<ChangeMoveInfo,std::allocator<ChangeMoveInfo> > >::_Vector_const_iterator<std::_Vector_val<ChangeMoveInfo,std::allocator<ChangeMoveInfo> > >
; Function compile flags: /Ogsp
; File c:\program files (x86)\microsoft visual studio 10.0\vc\include\vector
;	COMDAT ??0?$_Vector_const_iterator@V?$_Vector_val@UChangeMoveInfo@@V?$allocator@UChangeMoveInfo@@@std@@@std@@@std@@QAE@PAUChangeMoveInfo@@PBU_Container_base0@1@@Z
_TEXT	SEGMENT
__Parg$ = 8						; size = 4
__Pvector$ = 12						; size = 4
??0?$_Vector_const_iterator@V?$_Vector_val@UChangeMoveInfo@@V?$allocator@UChangeMoveInfo@@@std@@@std@@@std@@QAE@PAUChangeMoveInfo@@PBU_Container_base0@1@@Z PROC ; std::_Vector_const_iterator<std::_Vector_val<ChangeMoveInfo,std::allocator<ChangeMoveInfo> > >::_Vector_const_iterator<std::_Vector_val<ChangeMoveInfo,std::allocator<ChangeMoveInfo> > >, COMDAT
; _this$ = ecx

; 45   : 		{	// construct with pointer _Parg

  00000	55		 push	 ebp
  00001	8b ec		 mov	 ebp, esp
  00003	8b c1		 mov	 eax, ecx
  00005	8b 4d 08	 mov	 ecx, DWORD PTR __Parg$[ebp]
  00008	89 08		 mov	 DWORD PTR [eax], ecx

; 46   : 		this->_Adopt(_Pvector);
; 47   : 		}

  0000a	5d		 pop	 ebp
  0000b	c2 08 00	 ret	 8
??0?$_Vector_const_iterator@V?$_Vector_val@UChangeMoveInfo@@V?$allocator@UChangeMoveInfo@@@std@@@std@@@std@@QAE@PAUChangeMoveInfo@@PBU_Container_base0@1@@Z ENDP ; std::_Vector_const_iterator<std::_Vector_val<ChangeMoveInfo,std::allocator<ChangeMoveInfo> > >::_Vector_const_iterator<std::_Vector_val<ChangeMoveInfo,std::allocator<ChangeMoveInfo> > >
_TEXT	ENDS
PUBLIC	?_Compat@?$_Vector_const_iterator@V?$_Vector_val@UChangeMoveInfo@@V?$allocator@UChangeMoveInfo@@@std@@@std@@@std@@QBEXABV12@@Z ; std::_Vector_const_iterator<std::_Vector_val<ChangeMoveInfo,std::allocator<ChangeMoveInfo> > >::_Compat
; Function compile flags: /Ogsp
;	COMDAT ?_Compat@?$_Vector_const_iterator@V?$_Vector_val@UChangeMoveInfo@@V?$allocator@UChangeMoveInfo@@@std@@@std@@@std@@QBEXABV12@@Z
_TEXT	SEGMENT
___formal$ = 8						; size = 4
?_Compat@?$_Vector_const_iterator@V?$_Vector_val@UChangeMoveInfo@@V?$allocator@UChangeMoveInfo@@@std@@@std@@@std@@QBEXABV12@@Z PROC ; std::_Vector_const_iterator<std::_Vector_val<ChangeMoveInfo,std::allocator<ChangeMoveInfo> > >::_Compat, COMDAT
; _this$ = ecx

; 253  : 		}

  00000	c2 04 00	 ret	 4
?_Compat@?$_Vector_const_iterator@V?$_Vector_val@UChangeMoveInfo@@V?$allocator@UChangeMoveInfo@@@std@@@std@@@std@@QBEXABV12@@Z ENDP ; std::_Vector_const_iterator<std::_Vector_val<ChangeMoveInfo,std::allocator<ChangeMoveInfo> > >::_Compat
_TEXT	ENDS
PUBLIC	?_Compat@?$_Vector_const_iterator@V?$_Vector_val@PAVioBaseChar@@V?$allocator@PAVioBaseChar@@@std@@@std@@@std@@QBEXABV12@@Z ; std::_Vector_const_iterator<std::_Vector_val<ioBaseChar *,std::allocator<ioBaseChar *> > >::_Compat
; Function compile flags: /Ogsp
;	COMDAT ?_Compat@?$_Vector_const_iterator@V?$_Vector_val@PAVioBaseChar@@V?$allocator@PAVioBaseChar@@@std@@@std@@@std@@QBEXABV12@@Z
_TEXT	SEGMENT
___formal$ = 8						; size = 4
?_Compat@?$_Vector_const_iterator@V?$_Vector_val@PAVioBaseChar@@V?$allocator@PAVioBaseChar@@@std@@@std@@@std@@QBEXABV12@@Z PROC ; std::_Vector_const_iterator<std::_Vector_val<ioBaseChar *,std::allocator<ioBaseChar *> > >::_Compat, COMDAT
; _this$ = ecx

; 253  : 		}

  00000	c2 04 00	 ret	 4
?_Compat@?$_Vector_const_iterator@V?$_Vector_val@PAVioBaseChar@@V?$allocator@PAVioBaseChar@@@std@@@std@@@std@@QBEXABV12@@Z ENDP ; std::_Vector_const_iterator<std::_Vector_val<ioBaseChar *,std::allocator<ioBaseChar *> > >::_Compat
_TEXT	ENDS
PUBLIC	??0?$_Vector_const_iterator@V?$_Vector_val@UtagGenerateInfo@@V?$allocator@UtagGenerateInfo@@@std@@@std@@@std@@QAE@PAUtagGenerateInfo@@PBU_Container_base0@1@@Z ; std::_Vector_const_iterator<std::_Vector_val<tagGenerateInfo,std::allocator<tagGenerateInfo> > >::_Vector_const_iterator<std::_Vector_val<tagGenerateInfo,std::allocator<tagGenerateInfo> > >
; Function compile flags: /Ogsp
;	COMDAT ??0?$_Vector_const_iterator@V?$_Vector_val@UtagGenerateInfo@@V?$allocator@UtagGenerateInfo@@@std@@@std@@@std@@QAE@PAUtagGenerateInfo@@PBU_Container_base0@1@@Z
_TEXT	SEGMENT
__Parg$ = 8						; size = 4
__Pvector$ = 12						; size = 4
??0?$_Vector_const_iterator@V?$_Vector_val@UtagGenerateInfo@@V?$allocator@UtagGenerateInfo@@@std@@@std@@@std@@QAE@PAUtagGenerateInfo@@PBU_Container_base0@1@@Z PROC ; std::_Vector_const_iterator<std::_Vector_val<tagGenerateInfo,std::allocator<tagGenerateInfo> > >::_Vector_const_iterator<std::_Vector_val<tagGenerateInfo,std::allocator<tagGenerateInfo> > >, COMDAT
; _this$ = ecx

; 45   : 		{	// construct with pointer _Parg

  00000	55		 push	 ebp
  00001	8b ec		 mov	 ebp, esp
  00003	8b c1		 mov	 eax, ecx
  00005	8b 4d 08	 mov	 ecx, DWORD PTR __Parg$[ebp]
  00008	89 08		 mov	 DWORD PTR [eax], ecx

; 46   : 		this->_Adopt(_Pvector);
; 47   : 		}

  0000a	5d		 pop	 ebp
  0000b	c2 08 00	 ret	 8
??0?$_Vector_const_iterator@V?$_Vector_val@UtagGenerateInfo@@V?$allocator@UtagGenerateInfo@@@std@@@std@@@std@@QAE@PAUtagGenerateInfo@@PBU_Container_base0@1@@Z ENDP ; std::_Vector_const_iterator<std::_Vector_val<tagGenerateInfo,std::allocator<tagGenerateInfo> > >::_Vector_const_iterator<std::_Vector_val<tagGenerateInfo,std::allocator<tagGenerateInfo> > >
_TEXT	ENDS
PUBLIC	?_Compat@?$_Vector_const_iterator@V?$_Vector_val@UtagGenerateInfo@@V?$allocator@UtagGenerateInfo@@@std@@@std@@@std@@QBEXABV12@@Z ; std::_Vector_const_iterator<std::_Vector_val<tagGenerateInfo,std::allocator<tagGenerateInfo> > >::_Compat
; Function compile flags: /Ogsp
;	COMDAT ?_Compat@?$_Vector_const_iterator@V?$_Vector_val@UtagGenerateInfo@@V?$allocator@UtagGenerateInfo@@@std@@@std@@@std@@QBEXABV12@@Z
_TEXT	SEGMENT
___formal$ = 8						; size = 4
?_Compat@?$_Vector_const_iterator@V?$_Vector_val@UtagGenerateInfo@@V?$allocator@UtagGenerateInfo@@@std@@@std@@@std@@QBEXABV12@@Z PROC ; std::_Vector_const_iterator<std::_Vector_val<tagGenerateInfo,std::allocator<tagGenerateInfo> > >::_Compat, COMDAT
; _this$ = ecx

; 253  : 		}

  00000	c2 04 00	 ret	 4
?_Compat@?$_Vector_const_iterator@V?$_Vector_val@UtagGenerateInfo@@V?$allocator@UtagGenerateInfo@@@std@@@std@@@std@@QBEXABV12@@Z ENDP ; std::_Vector_const_iterator<std::_Vector_val<tagGenerateInfo,std::allocator<tagGenerateInfo> > >::_Compat
_TEXT	ENDS
PUBLIC	?max_size@?$allocator@UD3DXVECTOR3@@@std@@QBEIXZ ; std::allocator<D3DXVECTOR3>::max_size
; Function compile flags: /Ogsp
; File c:\program files (x86)\microsoft visual studio 10.0\vc\include\xmemory
;	COMDAT ?max_size@?$allocator@UD3DXVECTOR3@@@std@@QBEIXZ
_TEXT	SEGMENT
?max_size@?$allocator@UD3DXVECTOR3@@@std@@QBEIXZ PROC	; std::allocator<D3DXVECTOR3>::max_size, COMDAT
; _this$ = ecx

; 218  : 		_SIZT _Count = (_SIZT)(-1) / sizeof (_Ty);
; 219  : 		return (0 < _Count ? _Count : 1);

  00000	b8 55 55 55 15	 mov	 eax, 357913941		; 15555555H

; 220  : 		}

  00005	c3		 ret	 0
?max_size@?$allocator@UD3DXVECTOR3@@@std@@QBEIXZ ENDP	; std::allocator<D3DXVECTOR3>::max_size
_TEXT	ENDS
PUBLIC	?max_size@?$allocator@PAVioBaseChar@@@std@@QBEIXZ ; std::allocator<ioBaseChar *>::max_size
; Function compile flags: /Ogsp
;	COMDAT ?max_size@?$allocator@PAVioBaseChar@@@std@@QBEIXZ
_TEXT	SEGMENT
?max_size@?$allocator@PAVioBaseChar@@@std@@QBEIXZ PROC	; std::allocator<ioBaseChar *>::max_size, COMDAT
; _this$ = ecx

; 218  : 		_SIZT _Count = (_SIZT)(-1) / sizeof (_Ty);
; 219  : 		return (0 < _Count ? _Count : 1);

  00000	b8 ff ff ff 3f	 mov	 eax, 1073741823		; 3fffffffH

; 220  : 		}

  00005	c3		 ret	 0
?max_size@?$allocator@PAVioBaseChar@@@std@@QBEIXZ ENDP	; std::allocator<ioBaseChar *>::max_size
_TEXT	ENDS
PUBLIC	?max_size@?$allocator@UtagGenerateInfo@@@std@@QBEIXZ ; std::allocator<tagGenerateInfo>::max_size
; Function compile flags: /Ogsp
;	COMDAT ?max_size@?$allocator@UtagGenerateInfo@@@std@@QBEIXZ
_TEXT	SEGMENT
?max_size@?$allocator@UtagGenerateInfo@@@std@@QBEIXZ PROC ; std::allocator<tagGenerateInfo>::max_size, COMDAT
; _this$ = ecx

; 218  : 		_SIZT _Count = (_SIZT)(-1) / sizeof (_Ty);
; 219  : 		return (0 < _Count ? _Count : 1);

  00000	b8 cc cc cc 0c	 mov	 eax, 214748364		; 0cccccccH

; 220  : 		}

  00005	c3		 ret	 0
?max_size@?$allocator@UtagGenerateInfo@@@std@@QBEIXZ ENDP ; std::allocator<tagGenerateInfo>::max_size
_TEXT	ENDS
PUBLIC	?max_size@?$allocator@URefreshCollisionInfo@ioAreaWeapon@@@std@@QBEIXZ ; std::allocator<ioAreaWeapon::RefreshCollisionInfo>::max_size
; Function compile flags: /Ogsp
;	COMDAT ?max_size@?$allocator@URefreshCollisionInfo@ioAreaWeapon@@@std@@QBEIXZ
_TEXT	SEGMENT
?max_size@?$allocator@URefreshCollisionInfo@ioAreaWeapon@@@std@@QBEIXZ PROC ; std::allocator<ioAreaWeapon::RefreshCollisionInfo>::max_size, COMDAT
; _this$ = ecx

; 218  : 		_SIZT _Count = (_SIZT)(-1) / sizeof (_Ty);
; 219  : 		return (0 < _Count ? _Count : 1);

  00000	b8 cc cc cc 0c	 mov	 eax, 214748364		; 0cccccccH

; 220  : 		}

  00005	c3		 ret	 0
?max_size@?$allocator@URefreshCollisionInfo@ioAreaWeapon@@@std@@QBEIXZ ENDP ; std::allocator<ioAreaWeapon::RefreshCollisionInfo>::max_size
_TEXT	ENDS
PUBLIC	??0?$_Vector_const_iterator@V?$_Vector_val@UD3DXVECTOR3@@V?$allocator@UD3DXVECTOR3@@@std@@@std@@@std@@QAE@PAUD3DXVECTOR3@@PBU_Container_base0@1@@Z ; std::_Vector_const_iterator<std::_Vector_val<D3DXVECTOR3,std::allocator<D3DXVECTOR3> > >::_Vector_const_iterator<std::_Vector_val<D3DXVECTOR3,std::allocator<D3DXVECTOR3> > >
; Function compile flags: /Ogsp
; File c:\program files (x86)\microsoft visual studio 10.0\vc\include\vector
;	COMDAT ??0?$_Vector_const_iterator@V?$_Vector_val@UD3DXVECTOR3@@V?$allocator@UD3DXVECTOR3@@@std@@@std@@@std@@QAE@PAUD3DXVECTOR3@@PBU_Container_base0@1@@Z
_TEXT	SEGMENT
__Parg$ = 8						; size = 4
__Pvector$ = 12						; size = 4
??0?$_Vector_const_iterator@V?$_Vector_val@UD3DXVECTOR3@@V?$allocator@UD3DXVECTOR3@@@std@@@std@@@std@@QAE@PAUD3DXVECTOR3@@PBU_Container_base0@1@@Z PROC ; std::_Vector_const_iterator<std::_Vector_val<D3DXVECTOR3,std::allocator<D3DXVECTOR3> > >::_Vector_const_iterator<std::_Vector_val<D3DXVECTOR3,std::allocator<D3DXVECTOR3> > >, COMDAT
; _this$ = ecx

; 45   : 		{	// construct with pointer _Parg

  00000	55		 push	 ebp
  00001	8b ec		 mov	 ebp, esp
  00003	8b c1		 mov	 eax, ecx
  00005	8b 4d 08	 mov	 ecx, DWORD PTR __Parg$[ebp]
  00008	89 08		 mov	 DWORD PTR [eax], ecx

; 46   : 		this->_Adopt(_Pvector);
; 47   : 		}

  0000a	5d		 pop	 ebp
  0000b	c2 08 00	 ret	 8
??0?$_Vector_const_iterator@V?$_Vector_val@UD3DXVECTOR3@@V?$allocator@UD3DXVECTOR3@@@std@@@std@@@std@@QAE@PAUD3DXVECTOR3@@PBU_Container_base0@1@@Z ENDP ; std::_Vector_const_iterator<std::_Vector_val<D3DXVECTOR3,std::allocator<D3DXVECTOR3> > >::_Vector_const_iterator<std::_Vector_val<D3DXVECTOR3,std::allocator<D3DXVECTOR3> > >
_TEXT	ENDS
PUBLIC	??0?$_Vector_const_iterator@V?$_Vector_val@URefreshCollisionInfo@ioAreaWeapon@@V?$allocator@URefreshCollisionInfo@ioAreaWeapon@@@std@@@std@@@std@@QAE@PAURefreshCollisionInfo@ioAreaWeapon@@PBU_Container_base0@1@@Z ; std::_Vector_const_iterator<std::_Vector_val<ioAreaWeapon::RefreshCollisionInfo,std::allocator<ioAreaWeapon::RefreshCollisionInfo> > >::_Vector_const_iterator<std::_Vector_val<ioAreaWeapon::RefreshCollisionInfo,std::allocator<ioAreaWeapon::RefreshCollisionInfo> > >
; Function compile flags: /Ogsp
;	COMDAT ??0?$_Vector_const_iterator@V?$_Vector_val@URefreshCollisionInfo@ioAreaWeapon@@V?$allocator@URefreshCollisionInfo@ioAreaWeapon@@@std@@@std@@@std@@QAE@PAURefreshCollisionInfo@ioAreaWeapon@@PBU_Container_base0@1@@Z
_TEXT	SEGMENT
__Parg$ = 8						; size = 4
__Pvector$ = 12						; size = 4
??0?$_Vector_const_iterator@V?$_Vector_val@URefreshCollisionInfo@ioAreaWeapon@@V?$allocator@URefreshCollisionInfo@ioAreaWeapon@@@std@@@std@@@std@@QAE@PAURefreshCollisionInfo@ioAreaWeapon@@PBU_Container_base0@1@@Z PROC ; std::_Vector_const_iterator<std::_Vector_val<ioAreaWeapon::RefreshCollisionInfo,std::allocator<ioAreaWeapon::RefreshCollisionInfo> > >::_Vector_const_iterator<std::_Vector_val<ioAreaWeapon::RefreshCollisionInfo,std::allocator<ioAreaWeapon::RefreshCollisionInfo> > >, COMDAT
; _this$ = ecx

; 45   : 		{	// construct with pointer _Parg

  00000	55		 push	 ebp
  00001	8b ec		 mov	 ebp, esp
  00003	8b c1		 mov	 eax, ecx
  00005	8b 4d 08	 mov	 ecx, DWORD PTR __Parg$[ebp]
  00008	89 08		 mov	 DWORD PTR [eax], ecx

; 46   : 		this->_Adopt(_Pvector);
; 47   : 		}

  0000a	5d		 pop	 ebp
  0000b	c2 08 00	 ret	 8
??0?$_Vector_const_iterator@V?$_Vector_val@URefreshCollisionInfo@ioAreaWeapon@@V?$allocator@URefreshCollisionInfo@ioAreaWeapon@@@std@@@std@@@std@@QAE@PAURefreshCollisionInfo@ioAreaWeapon@@PBU_Container_base0@1@@Z ENDP ; std::_Vector_const_iterator<std::_Vector_val<ioAreaWeapon::RefreshCollisionInfo,std::allocator<ioAreaWeapon::RefreshCollisionInfo> > >::_Vector_const_iterator<std::_Vector_val<ioAreaWeapon::RefreshCollisionInfo,std::allocator<ioAreaWeapon::RefreshCollisionInfo> > >
_TEXT	ENDS
PUBLIC	?_Compat@?$_Vector_const_iterator@V?$_Vector_val@UD3DXVECTOR3@@V?$allocator@UD3DXVECTOR3@@@std@@@std@@@std@@QBEXABV12@@Z ; std::_Vector_const_iterator<std::_Vector_val<D3DXVECTOR3,std::allocator<D3DXVECTOR3> > >::_Compat
; Function compile flags: /Ogsp
;	COMDAT ?_Compat@?$_Vector_const_iterator@V?$_Vector_val@UD3DXVECTOR3@@V?$allocator@UD3DXVECTOR3@@@std@@@std@@@std@@QBEXABV12@@Z
_TEXT	SEGMENT
___formal$ = 8						; size = 4
?_Compat@?$_Vector_const_iterator@V?$_Vector_val@UD3DXVECTOR3@@V?$allocator@UD3DXVECTOR3@@@std@@@std@@@std@@QBEXABV12@@Z PROC ; std::_Vector_const_iterator<std::_Vector_val<D3DXVECTOR3,std::allocator<D3DXVECTOR3> > >::_Compat, COMDAT
; _this$ = ecx

; 253  : 		}

  00000	c2 04 00	 ret	 4
?_Compat@?$_Vector_const_iterator@V?$_Vector_val@UD3DXVECTOR3@@V?$allocator@UD3DXVECTOR3@@@std@@@std@@@std@@QBEXABV12@@Z ENDP ; std::_Vector_const_iterator<std::_Vector_val<D3DXVECTOR3,std::allocator<D3DXVECTOR3> > >::_Compat
_TEXT	ENDS
PUBLIC	?_Compat@?$_Vector_const_iterator@V?$_Vector_val@URefreshCollisionInfo@ioAreaWeapon@@V?$allocator@URefreshCollisionInfo@ioAreaWeapon@@@std@@@std@@@std@@QBEXABV12@@Z ; std::_Vector_const_iterator<std::_Vector_val<ioAreaWeapon::RefreshCollisionInfo,std::allocator<ioAreaWeapon::RefreshCollisionInfo> > >::_Compat
; Function compile flags: /Ogsp
;	COMDAT ?_Compat@?$_Vector_const_iterator@V?$_Vector_val@URefreshCollisionInfo@ioAreaWeapon@@V?$allocator@URefreshCollisionInfo@ioAreaWeapon@@@std@@@std@@@std@@QBEXABV12@@Z
_TEXT	SEGMENT
___formal$ = 8						; size = 4
?_Compat@?$_Vector_const_iterator@V?$_Vector_val@URefreshCollisionInfo@ioAreaWeapon@@V?$allocator@URefreshCollisionInfo@ioAreaWeapon@@@std@@@std@@@std@@QBEXABV12@@Z PROC ; std::_Vector_const_iterator<std::_Vector_val<ioAreaWeapon::RefreshCollisionInfo,std::allocator<ioAreaWeapon::RefreshCollisionInfo> > >::_Compat, COMDAT
; _this$ = ecx

; 253  : 		}

  00000	c2 04 00	 ret	 4
?_Compat@?$_Vector_const_iterator@V?$_Vector_val@URefreshCollisionInfo@ioAreaWeapon@@V?$allocator@URefreshCollisionInfo@ioAreaWeapon@@@std@@@std@@@std@@QBEXABV12@@Z ENDP ; std::_Vector_const_iterator<std::_Vector_val<ioAreaWeapon::RefreshCollisionInfo,std::allocator<ioAreaWeapon::RefreshCollisionInfo> > >::_Compat
_TEXT	ENDS
PUBLIC	__real@3f91df46a2526c7a
PUBLIC	??$DEGtoRAD@M@@YAMM@Z				; DEGtoRAD<float>
;	COMDAT __real@3f91df46a2526c7a
; File d:\lost saga for developer\youtube\tutorial\source\src\lsclient\veryoftenusedefine.h
CONST	SEGMENT
__real@3f91df46a2526c7a DQ 03f91df46a2526c7ar	; 0.0174533
; Function compile flags: /Ogsp
CONST	ENDS
;	COMDAT ??$DEGtoRAD@M@@YAMM@Z
_TEXT	SEGMENT
tv129 = 8						; size = 4
_val$ = 8						; size = 4
??$DEGtoRAD@M@@YAMM@Z PROC				; DEGtoRAD<float>, COMDAT

; 20   : type  DEGtoRAD (type val) {return (type) (val * 0.0174532925199);}

  00000	55		 push	 ebp
  00001	8b ec		 mov	 ebp, esp
  00003	d9 45 08	 fld	 DWORD PTR _val$[ebp]
  00006	dc 0d 00 00 00
	00		 fmul	 QWORD PTR __real@3f91df46a2526c7a
  0000c	d9 5d 08	 fstp	 DWORD PTR tv129[ebp]
  0000f	d9 45 08	 fld	 DWORD PTR tv129[ebp]
  00012	5d		 pop	 ebp
  00013	c3		 ret	 0
??$DEGtoRAD@M@@YAMM@Z ENDP				; DEGtoRAD<float>
_TEXT	ENDS
PUBLIC	??$addressof@VioHashString@@@std@@YAPAVioHashString@@AAV1@@Z ; std::addressof<ioHashString>
; Function compile flags: /Ogsp
; File c:\program files (x86)\microsoft visual studio 10.0\vc\include\xmemory
;	COMDAT ??$addressof@VioHashString@@@std@@YAPAVioHashString@@AAV1@@Z
_TEXT	SEGMENT
__Val$ = 8						; size = 4
??$addressof@VioHashString@@@std@@YAPAVioHashString@@AAV1@@Z PROC ; std::addressof<ioHashString>, COMDAT

; 110  : 	{	// return address of _Val

  00000	55		 push	 ebp
  00001	8b ec		 mov	 ebp, esp

; 111  : 	return ((_Ty *) &(char&)_Val);

  00003	8b 45 08	 mov	 eax, DWORD PTR __Val$[ebp]

; 112  : 	}

  00006	5d		 pop	 ebp
  00007	c3		 ret	 0
??$addressof@VioHashString@@@std@@YAPAVioHashString@@AAV1@@Z ENDP ; std::addressof<ioHashString>
_TEXT	ENDS
PUBLIC	??$forward@VioHashString@@@std@@YA$$QAVioHashString@@AAV1@@Z ; std::forward<ioHashString>
; Function compile flags: /Ogsp
; File c:\program files (x86)\microsoft visual studio 10.0\vc\include\utility
;	COMDAT ??$forward@VioHashString@@@std@@YA$$QAVioHashString@@AAV1@@Z
_TEXT	SEGMENT
__Arg$ = 8						; size = 4
??$forward@VioHashString@@@std@@YA$$QAVioHashString@@AAV1@@Z PROC ; std::forward<ioHashString>, COMDAT

; 78   : 	{	// forward _Arg, given explicitly specified type parameter

  00000	55		 push	 ebp
  00001	8b ec		 mov	 ebp, esp

; 79   : 	return ((_Ty&&)_Arg);

  00003	8b 45 08	 mov	 eax, DWORD PTR __Arg$[ebp]

; 80   : 	}

  00006	5d		 pop	 ebp
  00007	c3		 ret	 0
??$forward@VioHashString@@@std@@YA$$QAVioHashString@@AAV1@@Z ENDP ; std::forward<ioHashString>
_TEXT	ENDS
PUBLIC	??$addressof@$$CBVioHashString@@@std@@YAPBVioHashString@@ABV1@@Z ; std::addressof<ioHashString const >
; Function compile flags: /Ogsp
; File c:\program files (x86)\microsoft visual studio 10.0\vc\include\xmemory
;	COMDAT ??$addressof@$$CBVioHashString@@@std@@YAPBVioHashString@@ABV1@@Z
_TEXT	SEGMENT
__Val$ = 8						; size = 4
??$addressof@$$CBVioHashString@@@std@@YAPBVioHashString@@ABV1@@Z PROC ; std::addressof<ioHashString const >, COMDAT

; 110  : 	{	// return address of _Val

  00000	55		 push	 ebp
  00001	8b ec		 mov	 ebp, esp

; 111  : 	return ((_Ty *) &(char&)_Val);

  00003	8b 45 08	 mov	 eax, DWORD PTR __Val$[ebp]

; 112  : 	}

  00006	5d		 pop	 ebp
  00007	c3		 ret	 0
??$addressof@$$CBVioHashString@@@std@@YAPBVioHashString@@ABV1@@Z ENDP ; std::addressof<ioHashString const >
_TEXT	ENDS
PUBLIC	??$addressof@$$CBUD3DXVECTOR3@@@std@@YAPBUD3DXVECTOR3@@ABU1@@Z ; std::addressof<D3DXVECTOR3 const >
; Function compile flags: /Ogsp
;	COMDAT ??$addressof@$$CBUD3DXVECTOR3@@@std@@YAPBUD3DXVECTOR3@@ABU1@@Z
_TEXT	SEGMENT
__Val$ = 8						; size = 4
??$addressof@$$CBUD3DXVECTOR3@@@std@@YAPBUD3DXVECTOR3@@ABU1@@Z PROC ; std::addressof<D3DXVECTOR3 const >, COMDAT

; 110  : 	{	// return address of _Val

  00000	55		 push	 ebp
  00001	8b ec		 mov	 ebp, esp

; 111  : 	return ((_Ty *) &(char&)_Val);

  00003	8b 45 08	 mov	 eax, DWORD PTR __Val$[ebp]

; 112  : 	}

  00006	5d		 pop	 ebp
  00007	c3		 ret	 0
??$addressof@$$CBUD3DXVECTOR3@@@std@@YAPBUD3DXVECTOR3@@ABU1@@Z ENDP ; std::addressof<D3DXVECTOR3 const >
_TEXT	ENDS
PUBLIC	??$addressof@$$CBUChangeMoveInfo@@@std@@YAPBUChangeMoveInfo@@ABU1@@Z ; std::addressof<ChangeMoveInfo const >
; Function compile flags: /Ogsp
;	COMDAT ??$addressof@$$CBUChangeMoveInfo@@@std@@YAPBUChangeMoveInfo@@ABU1@@Z
_TEXT	SEGMENT
__Val$ = 8						; size = 4
??$addressof@$$CBUChangeMoveInfo@@@std@@YAPBUChangeMoveInfo@@ABU1@@Z PROC ; std::addressof<ChangeMoveInfo const >, COMDAT

; 110  : 	{	// return address of _Val

  00000	55		 push	 ebp
  00001	8b ec		 mov	 ebp, esp

; 111  : 	return ((_Ty *) &(char&)_Val);

  00003	8b 45 08	 mov	 eax, DWORD PTR __Val$[ebp]

; 112  : 	}

  00006	5d		 pop	 ebp
  00007	c3		 ret	 0
??$addressof@$$CBUChangeMoveInfo@@@std@@YAPBUChangeMoveInfo@@ABU1@@Z ENDP ; std::addressof<ChangeMoveInfo const >
_TEXT	ENDS
PUBLIC	??$addressof@QAVioBaseChar@@@std@@YAPBQAVioBaseChar@@ABQAV1@@Z ; std::addressof<ioBaseChar * const>
; Function compile flags: /Ogsp
;	COMDAT ??$addressof@QAVioBaseChar@@@std@@YAPBQAVioBaseChar@@ABQAV1@@Z
_TEXT	SEGMENT
__Val$ = 8						; size = 4
??$addressof@QAVioBaseChar@@@std@@YAPBQAVioBaseChar@@ABQAV1@@Z PROC ; std::addressof<ioBaseChar * const>, COMDAT

; 110  : 	{	// return address of _Val

  00000	55		 push	 ebp
  00001	8b ec		 mov	 ebp, esp

; 111  : 	return ((_Ty *) &(char&)_Val);

  00003	8b 45 08	 mov	 eax, DWORD PTR __Val$[ebp]

; 112  : 	}

  00006	5d		 pop	 ebp
  00007	c3		 ret	 0
??$addressof@QAVioBaseChar@@@std@@YAPBQAVioBaseChar@@ABQAV1@@Z ENDP ; std::addressof<ioBaseChar * const>
_TEXT	ENDS
PUBLIC	??$addressof@$$CBUtagGenerateInfo@@@std@@YAPBUtagGenerateInfo@@ABU1@@Z ; std::addressof<tagGenerateInfo const >
; Function compile flags: /Ogsp
;	COMDAT ??$addressof@$$CBUtagGenerateInfo@@@std@@YAPBUtagGenerateInfo@@ABU1@@Z
_TEXT	SEGMENT
__Val$ = 8						; size = 4
??$addressof@$$CBUtagGenerateInfo@@@std@@YAPBUtagGenerateInfo@@ABU1@@Z PROC ; std::addressof<tagGenerateInfo const >, COMDAT

; 110  : 	{	// return address of _Val

  00000	55		 push	 ebp
  00001	8b ec		 mov	 ebp, esp

; 111  : 	return ((_Ty *) &(char&)_Val);

  00003	8b 45 08	 mov	 eax, DWORD PTR __Val$[ebp]

; 112  : 	}

  00006	5d		 pop	 ebp
  00007	c3		 ret	 0
??$addressof@$$CBUtagGenerateInfo@@@std@@YAPBUtagGenerateInfo@@ABU1@@Z ENDP ; std::addressof<tagGenerateInfo const >
_TEXT	ENDS
PUBLIC	??$addressof@$$CBURefreshCollisionInfo@ioAreaWeapon@@@std@@YAPBURefreshCollisionInfo@ioAreaWeapon@@ABU12@@Z ; std::addressof<ioAreaWeapon::RefreshCollisionInfo const >
; Function compile flags: /Ogsp
;	COMDAT ??$addressof@$$CBURefreshCollisionInfo@ioAreaWeapon@@@std@@YAPBURefreshCollisionInfo@ioAreaWeapon@@ABU12@@Z
_TEXT	SEGMENT
__Val$ = 8						; size = 4
??$addressof@$$CBURefreshCollisionInfo@ioAreaWeapon@@@std@@YAPBURefreshCollisionInfo@ioAreaWeapon@@ABU12@@Z PROC ; std::addressof<ioAreaWeapon::RefreshCollisionInfo const >, COMDAT

; 110  : 	{	// return address of _Val

  00000	55		 push	 ebp
  00001	8b ec		 mov	 ebp, esp

; 111  : 	return ((_Ty *) &(char&)_Val);

  00003	8b 45 08	 mov	 eax, DWORD PTR __Val$[ebp]

; 112  : 	}

  00006	5d		 pop	 ebp
  00007	c3		 ret	 0
??$addressof@$$CBURefreshCollisionInfo@ioAreaWeapon@@@std@@YAPBURefreshCollisionInfo@ioAreaWeapon@@ABU12@@Z ENDP ; std::addressof<ioAreaWeapon::RefreshCollisionInfo const >
_TEXT	ENDS
PUBLIC	__TI2?AVbad_alloc@std@@
PUBLIC	??$_Allocate@UChangeMoveInfo@@@std@@YAPAUChangeMoveInfo@@IPAU1@@Z ; std::_Allocate<ChangeMoveInfo>
PUBLIC	__CTA2?AVbad_alloc@std@@
PUBLIC	__CT??_R0?AVbad_alloc@std@@@8??0bad_alloc@std@@QAE@ABV01@@Z12
PUBLIC	??0bad_alloc@std@@QAE@ABV01@@Z			; std::bad_alloc::bad_alloc
PUBLIC	__CT??_R0?AVexception@std@@@8??0exception@std@@QAE@ABV01@@Z12
EXTRN	??2@YAPAXI@Z:PROC				; operator new
EXTRN	__CxxThrowException@8:PROC
EXTRN	??0exception@std@@QAE@ABV01@@Z:PROC		; std::exception::exception
;	COMDAT __CT??_R0?AVexception@std@@@8??0exception@std@@QAE@ABV01@@Z12
; File c:\program files (x86)\microsoft visual studio 10.0\vc\include\exception
xdata$x	SEGMENT
__CT??_R0?AVexception@std@@@8??0exception@std@@QAE@ABV01@@Z12 DD 00H
	DD	FLAT:??_R0?AVexception@std@@@8
	DD	00H
	DD	0ffffffffH
	ORG $+4
	DD	0cH
	DD	FLAT:??0exception@std@@QAE@ABV01@@Z
xdata$x	ENDS
;	COMDAT __CT??_R0?AVbad_alloc@std@@@8??0bad_alloc@std@@QAE@ABV01@@Z12
xdata$x	SEGMENT
__CT??_R0?AVbad_alloc@std@@@8??0bad_alloc@std@@QAE@ABV01@@Z12 DD 00H
	DD	FLAT:??_R0?AVbad_alloc@std@@@8
	DD	00H
	DD	0ffffffffH
	ORG $+4
	DD	0cH
	DD	FLAT:??0bad_alloc@std@@QAE@ABV01@@Z
xdata$x	ENDS
;	COMDAT __CTA2?AVbad_alloc@std@@
xdata$x	SEGMENT
__CTA2?AVbad_alloc@std@@ DD 02H
	DD	FLAT:__CT??_R0?AVbad_alloc@std@@@8??0bad_alloc@std@@QAE@ABV01@@Z12
	DD	FLAT:__CT??_R0?AVexception@std@@@8??0exception@std@@QAE@ABV01@@Z12
xdata$x	ENDS
;	COMDAT __TI2?AVbad_alloc@std@@
xdata$x	SEGMENT
__TI2?AVbad_alloc@std@@ DD 00H
	DD	FLAT:??1bad_alloc@std@@UAE@XZ
	DD	00H
	DD	FLAT:__CTA2?AVbad_alloc@std@@
; Function compile flags: /Ogsp
; File c:\program files (x86)\microsoft visual studio 10.0\vc\include\xmemory
xdata$x	ENDS
;	COMDAT ??$_Allocate@UChangeMoveInfo@@@std@@YAPAUChangeMoveInfo@@IPAU1@@Z
_TEXT	SEGMENT
$T648474 = -12						; size = 12
$T648479 = 8						; size = 4
__Count$ = 8						; size = 4
___formal$ = 12						; size = 4
??$_Allocate@UChangeMoveInfo@@@std@@YAPAUChangeMoveInfo@@IPAU1@@Z PROC ; std::_Allocate<ChangeMoveInfo>, COMDAT

; 30   : 	{	// allocate storage for _Count elements of type _Ty

  00000	55		 push	 ebp
  00001	8b ec		 mov	 ebp, esp

; 31   : 	void *_Ptr = 0;
; 32   : 
; 33   : 	if (_Count <= 0)

  00003	8b 4d 08	 mov	 ecx, DWORD PTR __Count$[ebp]
  00006	83 ec 0c	 sub	 esp, 12			; 0000000cH
  00009	33 c0		 xor	 eax, eax
  0000b	85 c9		 test	 ecx, ecx

; 34   : 		_Count = 0;
; 35   : 	else if (((_SIZT)(-1) / sizeof (_Ty) < _Count)

  0000d	74 3c		 je	 SHORT $LN5@Allocate

; 36   : 		|| (_Ptr = ::operator new(_Count * sizeof (_Ty))) == 0)

  0000f	81 f9 ff ff ff
	0f		 cmp	 ecx, 268435455		; 0fffffffH
  00015	77 0e		 ja	 SHORT $LN1@Allocate
  00017	c1 e1 04	 shl	 ecx, 4
  0001a	51		 push	 ecx
  0001b	e8 00 00 00 00	 call	 ??2@YAPAXI@Z		; operator new
  00020	59		 pop	 ecx
  00021	85 c0		 test	 eax, eax

; 38   : 
; 39   : 	return ((_Ty _FARQ *)_Ptr);

  00023	75 26		 jne	 SHORT $LN5@Allocate
$LN1@Allocate:

; 37   : 		_THROW_NCEE(bad_alloc, 0);

  00025	83 65 08 00	 and	 DWORD PTR $T648479[ebp], 0
  00029	8d 45 08	 lea	 eax, DWORD PTR $T648479[ebp]
  0002c	50		 push	 eax
  0002d	8d 4d f4	 lea	 ecx, DWORD PTR $T648474[ebp]
  00030	ff 15 00 00 00
	00		 call	 DWORD PTR __imp_??0exception@std@@QAE@ABQBD@Z
  00036	68 00 00 00 00	 push	 OFFSET __TI2?AVbad_alloc@std@@
  0003b	8d 45 f4	 lea	 eax, DWORD PTR $T648474[ebp]
  0003e	50		 push	 eax
  0003f	c7 45 f4 00 00
	00 00		 mov	 DWORD PTR $T648474[ebp], OFFSET ??_7bad_alloc@std@@6B@
  00046	e8 00 00 00 00	 call	 __CxxThrowException@8
$LN10@Allocate:
$LN5@Allocate:

; 40   : 	}

  0004b	c9		 leave
  0004c	c3		 ret	 0
$LN9@Allocate:
??$_Allocate@UChangeMoveInfo@@@std@@YAPAUChangeMoveInfo@@IPAU1@@Z ENDP ; std::_Allocate<ChangeMoveInfo>
_TEXT	ENDS
PUBLIC	??$_Allocate@UD3DXVECTOR3@@@std@@YAPAUD3DXVECTOR3@@IPAU1@@Z ; std::_Allocate<D3DXVECTOR3>
; Function compile flags: /Ogsp
;	COMDAT ??$_Allocate@UD3DXVECTOR3@@@std@@YAPAUD3DXVECTOR3@@IPAU1@@Z
_TEXT	SEGMENT
$T648484 = -12						; size = 12
$T648488 = 8						; size = 4
__Count$ = 8						; size = 4
___formal$ = 12						; size = 4
??$_Allocate@UD3DXVECTOR3@@@std@@YAPAUD3DXVECTOR3@@IPAU1@@Z PROC ; std::_Allocate<D3DXVECTOR3>, COMDAT

; 30   : 	{	// allocate storage for _Count elements of type _Ty

  00000	55		 push	 ebp
  00001	8b ec		 mov	 ebp, esp

; 31   : 	void *_Ptr = 0;
; 32   : 
; 33   : 	if (_Count <= 0)

  00003	8b 4d 08	 mov	 ecx, DWORD PTR __Count$[ebp]
  00006	83 ec 0c	 sub	 esp, 12			; 0000000cH
  00009	33 c0		 xor	 eax, eax
  0000b	85 c9		 test	 ecx, ecx

; 34   : 		_Count = 0;
; 35   : 	else if (((_SIZT)(-1) / sizeof (_Ty) < _Count)

  0000d	74 3c		 je	 SHORT $LN5@Allocate@2

; 36   : 		|| (_Ptr = ::operator new(_Count * sizeof (_Ty))) == 0)

  0000f	81 f9 55 55 55
	15		 cmp	 ecx, 357913941		; 15555555H
  00015	77 0e		 ja	 SHORT $LN1@Allocate@2
  00017	6b c9 0c	 imul	 ecx, 12			; 0000000cH
  0001a	51		 push	 ecx
  0001b	e8 00 00 00 00	 call	 ??2@YAPAXI@Z		; operator new
  00020	59		 pop	 ecx
  00021	85 c0		 test	 eax, eax

; 38   : 
; 39   : 	return ((_Ty _FARQ *)_Ptr);

  00023	75 26		 jne	 SHORT $LN5@Allocate@2
$LN1@Allocate@2:

; 37   : 		_THROW_NCEE(bad_alloc, 0);

  00025	83 65 08 00	 and	 DWORD PTR $T648488[ebp], 0
  00029	8d 45 08	 lea	 eax, DWORD PTR $T648488[ebp]
  0002c	50		 push	 eax
  0002d	8d 4d f4	 lea	 ecx, DWORD PTR $T648484[ebp]
  00030	ff 15 00 00 00
	00		 call	 DWORD PTR __imp_??0exception@std@@QAE@ABQBD@Z
  00036	68 00 00 00 00	 push	 OFFSET __TI2?AVbad_alloc@std@@
  0003b	8d 45 f4	 lea	 eax, DWORD PTR $T648484[ebp]
  0003e	50		 push	 eax
  0003f	c7 45 f4 00 00
	00 00		 mov	 DWORD PTR $T648484[ebp], OFFSET ??_7bad_alloc@std@@6B@
  00046	e8 00 00 00 00	 call	 __CxxThrowException@8
$LN10@Allocate@2:
$LN5@Allocate@2:

; 40   : 	}

  0004b	c9		 leave
  0004c	c3		 ret	 0
$LN9@Allocate@2:
??$_Allocate@UD3DXVECTOR3@@@std@@YAPAUD3DXVECTOR3@@IPAU1@@Z ENDP ; std::_Allocate<D3DXVECTOR3>
_TEXT	ENDS
PUBLIC	??$_Allocate@PAVioBaseChar@@@std@@YAPAPAVioBaseChar@@IPAPAV1@@Z ; std::_Allocate<ioBaseChar *>
; Function compile flags: /Ogsp
;	COMDAT ??$_Allocate@PAVioBaseChar@@@std@@YAPAPAVioBaseChar@@IPAPAV1@@Z
_TEXT	SEGMENT
$T648493 = -12						; size = 12
$T648497 = 8						; size = 4
__Count$ = 8						; size = 4
___formal$ = 12						; size = 4
??$_Allocate@PAVioBaseChar@@@std@@YAPAPAVioBaseChar@@IPAPAV1@@Z PROC ; std::_Allocate<ioBaseChar *>, COMDAT

; 30   : 	{	// allocate storage for _Count elements of type _Ty

  00000	55		 push	 ebp
  00001	8b ec		 mov	 ebp, esp

; 31   : 	void *_Ptr = 0;
; 32   : 
; 33   : 	if (_Count <= 0)

  00003	8b 4d 08	 mov	 ecx, DWORD PTR __Count$[ebp]
  00006	83 ec 0c	 sub	 esp, 12			; 0000000cH
  00009	33 c0		 xor	 eax, eax
  0000b	85 c9		 test	 ecx, ecx

; 34   : 		_Count = 0;
; 35   : 	else if (((_SIZT)(-1) / sizeof (_Ty) < _Count)

  0000d	74 3e		 je	 SHORT $LN5@Allocate@3

; 36   : 		|| (_Ptr = ::operator new(_Count * sizeof (_Ty))) == 0)

  0000f	81 f9 ff ff ff
	3f		 cmp	 ecx, 1073741823		; 3fffffffH
  00015	77 10		 ja	 SHORT $LN1@Allocate@3
  00017	8b c1		 mov	 eax, ecx
  00019	c1 e0 02	 shl	 eax, 2
  0001c	50		 push	 eax
  0001d	e8 00 00 00 00	 call	 ??2@YAPAXI@Z		; operator new
  00022	59		 pop	 ecx
  00023	85 c0		 test	 eax, eax

; 38   : 
; 39   : 	return ((_Ty _FARQ *)_Ptr);

  00025	75 26		 jne	 SHORT $LN5@Allocate@3
$LN1@Allocate@3:

; 37   : 		_THROW_NCEE(bad_alloc, 0);

  00027	83 65 08 00	 and	 DWORD PTR $T648497[ebp], 0
  0002b	8d 45 08	 lea	 eax, DWORD PTR $T648497[ebp]
  0002e	50		 push	 eax
  0002f	8d 4d f4	 lea	 ecx, DWORD PTR $T648493[ebp]
  00032	ff 15 00 00 00
	00		 call	 DWORD PTR __imp_??0exception@std@@QAE@ABQBD@Z
  00038	68 00 00 00 00	 push	 OFFSET __TI2?AVbad_alloc@std@@
  0003d	8d 45 f4	 lea	 eax, DWORD PTR $T648493[ebp]
  00040	50		 push	 eax
  00041	c7 45 f4 00 00
	00 00		 mov	 DWORD PTR $T648493[ebp], OFFSET ??_7bad_alloc@std@@6B@
  00048	e8 00 00 00 00	 call	 __CxxThrowException@8
$LN10@Allocate@3:
$LN5@Allocate@3:

; 40   : 	}

  0004d	c9		 leave
  0004e	c3		 ret	 0
$LN9@Allocate@3:
??$_Allocate@PAVioBaseChar@@@std@@YAPAPAVioBaseChar@@IPAPAV1@@Z ENDP ; std::_Allocate<ioBaseChar *>
_TEXT	ENDS
PUBLIC	??$_Allocate@UtagGenerateInfo@@@std@@YAPAUtagGenerateInfo@@IPAU1@@Z ; std::_Allocate<tagGenerateInfo>
; Function compile flags: /Ogsp
;	COMDAT ??$_Allocate@UtagGenerateInfo@@@std@@YAPAUtagGenerateInfo@@IPAU1@@Z
_TEXT	SEGMENT
$T648502 = -12						; size = 12
$T648506 = 8						; size = 4
__Count$ = 8						; size = 4
___formal$ = 12						; size = 4
??$_Allocate@UtagGenerateInfo@@@std@@YAPAUtagGenerateInfo@@IPAU1@@Z PROC ; std::_Allocate<tagGenerateInfo>, COMDAT

; 30   : 	{	// allocate storage for _Count elements of type _Ty

  00000	55		 push	 ebp
  00001	8b ec		 mov	 ebp, esp

; 31   : 	void *_Ptr = 0;
; 32   : 
; 33   : 	if (_Count <= 0)

  00003	8b 4d 08	 mov	 ecx, DWORD PTR __Count$[ebp]
  00006	83 ec 0c	 sub	 esp, 12			; 0000000cH
  00009	33 c0		 xor	 eax, eax
  0000b	85 c9		 test	 ecx, ecx

; 34   : 		_Count = 0;
; 35   : 	else if (((_SIZT)(-1) / sizeof (_Ty) < _Count)

  0000d	74 3c		 je	 SHORT $LN5@Allocate@4

; 36   : 		|| (_Ptr = ::operator new(_Count * sizeof (_Ty))) == 0)

  0000f	81 f9 cc cc cc
	0c		 cmp	 ecx, 214748364		; 0cccccccH
  00015	77 0e		 ja	 SHORT $LN1@Allocate@4
  00017	6b c9 14	 imul	 ecx, 20			; 00000014H
  0001a	51		 push	 ecx
  0001b	e8 00 00 00 00	 call	 ??2@YAPAXI@Z		; operator new
  00020	59		 pop	 ecx
  00021	85 c0		 test	 eax, eax

; 38   : 
; 39   : 	return ((_Ty _FARQ *)_Ptr);

  00023	75 26		 jne	 SHORT $LN5@Allocate@4
$LN1@Allocate@4:

; 37   : 		_THROW_NCEE(bad_alloc, 0);

  00025	83 65 08 00	 and	 DWORD PTR $T648506[ebp], 0
  00029	8d 45 08	 lea	 eax, DWORD PTR $T648506[ebp]
  0002c	50		 push	 eax
  0002d	8d 4d f4	 lea	 ecx, DWORD PTR $T648502[ebp]
  00030	ff 15 00 00 00
	00		 call	 DWORD PTR __imp_??0exception@std@@QAE@ABQBD@Z
  00036	68 00 00 00 00	 push	 OFFSET __TI2?AVbad_alloc@std@@
  0003b	8d 45 f4	 lea	 eax, DWORD PTR $T648502[ebp]
  0003e	50		 push	 eax
  0003f	c7 45 f4 00 00
	00 00		 mov	 DWORD PTR $T648502[ebp], OFFSET ??_7bad_alloc@std@@6B@
  00046	e8 00 00 00 00	 call	 __CxxThrowException@8
$LN10@Allocate@4:
$LN5@Allocate@4:

; 40   : 	}

  0004b	c9		 leave
  0004c	c3		 ret	 0
$LN9@Allocate@4:
??$_Allocate@UtagGenerateInfo@@@std@@YAPAUtagGenerateInfo@@IPAU1@@Z ENDP ; std::_Allocate<tagGenerateInfo>
_TEXT	ENDS
PUBLIC	??$_Allocate@URefreshCollisionInfo@ioAreaWeapon@@@std@@YAPAURefreshCollisionInfo@ioAreaWeapon@@IPAU12@@Z ; std::_Allocate<ioAreaWeapon::RefreshCollisionInfo>
; Function compile flags: /Ogsp
;	COMDAT ??$_Allocate@URefreshCollisionInfo@ioAreaWeapon@@@std@@YAPAURefreshCollisionInfo@ioAreaWeapon@@IPAU12@@Z
_TEXT	SEGMENT
$T648511 = -12						; size = 12
$T648515 = 8						; size = 4
__Count$ = 8						; size = 4
___formal$ = 12						; size = 4
??$_Allocate@URefreshCollisionInfo@ioAreaWeapon@@@std@@YAPAURefreshCollisionInfo@ioAreaWeapon@@IPAU12@@Z PROC ; std::_Allocate<ioAreaWeapon::RefreshCollisionInfo>, COMDAT

; 30   : 	{	// allocate storage for _Count elements of type _Ty

  00000	55		 push	 ebp
  00001	8b ec		 mov	 ebp, esp

; 31   : 	void *_Ptr = 0;
; 32   : 
; 33   : 	if (_Count <= 0)

  00003	8b 4d 08	 mov	 ecx, DWORD PTR __Count$[ebp]
  00006	83 ec 0c	 sub	 esp, 12			; 0000000cH
  00009	33 c0		 xor	 eax, eax
  0000b	85 c9		 test	 ecx, ecx

; 34   : 		_Count = 0;
; 35   : 	else if (((_SIZT)(-1) / sizeof (_Ty) < _Count)

  0000d	74 3c		 je	 SHORT $LN5@Allocate@5

; 36   : 		|| (_Ptr = ::operator new(_Count * sizeof (_Ty))) == 0)

  0000f	81 f9 cc cc cc
	0c		 cmp	 ecx, 214748364		; 0cccccccH
  00015	77 0e		 ja	 SHORT $LN1@Allocate@5
  00017	6b c9 14	 imul	 ecx, 20			; 00000014H
  0001a	51		 push	 ecx
  0001b	e8 00 00 00 00	 call	 ??2@YAPAXI@Z		; operator new
  00020	59		 pop	 ecx
  00021	85 c0		 test	 eax, eax

; 38   : 
; 39   : 	return ((_Ty _FARQ *)_Ptr);

  00023	75 26		 jne	 SHORT $LN5@Allocate@5
$LN1@Allocate@5:

; 37   : 		_THROW_NCEE(bad_alloc, 0);

  00025	83 65 08 00	 and	 DWORD PTR $T648515[ebp], 0
  00029	8d 45 08	 lea	 eax, DWORD PTR $T648515[ebp]
  0002c	50		 push	 eax
  0002d	8d 4d f4	 lea	 ecx, DWORD PTR $T648511[ebp]
  00030	ff 15 00 00 00
	00		 call	 DWORD PTR __imp_??0exception@std@@QAE@ABQBD@Z
  00036	68 00 00 00 00	 push	 OFFSET __TI2?AVbad_alloc@std@@
  0003b	8d 45 f4	 lea	 eax, DWORD PTR $T648511[ebp]
  0003e	50		 push	 eax
  0003f	c7 45 f4 00 00
	00 00		 mov	 DWORD PTR $T648511[ebp], OFFSET ??_7bad_alloc@std@@6B@
  00046	e8 00 00 00 00	 call	 __CxxThrowException@8
$LN10@Allocate@5:
$LN5@Allocate@5:

; 40   : 	}

  0004b	c9		 leave
  0004c	c3		 ret	 0
$LN9@Allocate@5:
??$_Allocate@URefreshCollisionInfo@ioAreaWeapon@@@std@@YAPAURefreshCollisionInfo@ioAreaWeapon@@IPAU12@@Z ENDP ; std::_Allocate<ioAreaWeapon::RefreshCollisionInfo>
_TEXT	ENDS
PUBLIC	?construct@?$allocator@VioHashString@@@std@@QAEXPAVioHashString@@$$QAV3@@Z ; std::allocator<ioHashString>::construct
EXTRN	__imp_??0ioHashString@@QAE@ABV0@@Z:PROC
EXTRN	__EH_epilog3:PROC
EXTRN	__EH_prolog3:PROC
;	COMDAT xdata$x
; File c:\program files (x86)\microsoft visual studio 10.0\vc\include\utility
xdata$x	SEGMENT
__unwindtable$?construct@?$allocator@VioHashString@@@std@@QAEXPAVioHashString@@$$QAV3@@Z DD 0ffffffffH
	DD	FLAT:__unwindfunclet$?construct@?$allocator@VioHashString@@@std@@QAEXPAVioHashString@@$$QAV3@@Z$0
__ehfuncinfo$?construct@?$allocator@VioHashString@@@std@@QAEXPAVioHashString@@$$QAV3@@Z DD 019930522H
	DD	01H
	DD	FLAT:__unwindtable$?construct@?$allocator@VioHashString@@@std@@QAEXPAVioHashString@@$$QAV3@@Z
	DD	2 DUP(00H)
	DD	2 DUP(00H)
	DD	00H
	DD	01H
; Function compile flags: /Ogsp
; File c:\program files (x86)\microsoft visual studio 10.0\vc\include\xmemory
xdata$x	ENDS
;	COMDAT ?construct@?$allocator@VioHashString@@@std@@QAEXPAVioHashString@@$$QAV3@@Z
_TEXT	SEGMENT
$T648521 = -16						; size = 4
__$EHRec$ = -12						; size = 12
__Ptr$ = 8						; size = 4
__Val$ = 12						; size = 4
?construct@?$allocator@VioHashString@@@std@@QAEXPAVioHashString@@$$QAV3@@Z PROC ; std::allocator<ioHashString>::construct, COMDAT
; _this$ = ecx

; 201  : 		{	// construct object at _Ptr with value _Val

  00000	6a 04		 push	 4
  00002	b8 00 00 00 00	 mov	 eax, __ehhandler$?construct@?$allocator@VioHashString@@@std@@QAEXPAVioHashString@@$$QAV3@@Z
  00007	e8 00 00 00 00	 call	 __EH_prolog3

; 202  : 		::new ((void _FARQ *)_Ptr) _Ty(_STD forward<_Ty>(_Val));

  0000c	8b 4d 08	 mov	 ecx, DWORD PTR __Ptr$[ebp]
  0000f	89 4d f0	 mov	 DWORD PTR $T648521[ebp], ecx
  00012	83 65 fc 00	 and	 DWORD PTR __$EHRec$[ebp+8], 0
  00016	85 c9		 test	 ecx, ecx
  00018	74 09		 je	 SHORT $LN3@construct
  0001a	ff 75 0c	 push	 DWORD PTR __Val$[ebp]
  0001d	ff 15 00 00 00
	00		 call	 DWORD PTR __imp_??0ioHashString@@QAE@ABV0@@Z
$LN3@construct:

; 203  : 		}

  00023	e8 00 00 00 00	 call	 __EH_epilog3
  00028	c2 08 00	 ret	 8
_TEXT	ENDS
;	COMDAT text$x
text$x	SEGMENT
__unwindfunclet$?construct@?$allocator@VioHashString@@@std@@QAEXPAVioHashString@@$$QAV3@@Z$0:
  00000	ff 75 08	 push	 DWORD PTR __Ptr$[ebp]
  00003	ff 75 f0	 push	 DWORD PTR $T648521[ebp]
  00006	e8 00 00 00 00	 call	 ??3@YAXPAX0@Z		; operator delete
  0000b	59		 pop	 ecx
  0000c	59		 pop	 ecx
  0000d	c3		 ret	 0
__ehhandler$?construct@?$allocator@VioHashString@@@std@@QAEXPAVioHashString@@$$QAV3@@Z:
  0000e	8b 54 24 08	 mov	 edx, DWORD PTR [esp+8]
  00012	8d 42 0c	 lea	 eax, DWORD PTR [edx+12]
  00015	8b 4a ec	 mov	 ecx, DWORD PTR [edx-20]
  00018	33 c8		 xor	 ecx, eax
  0001a	e8 00 00 00 00	 call	 @__security_check_cookie@4
  0001f	b8 00 00 00 00	 mov	 eax, OFFSET __ehfuncinfo$?construct@?$allocator@VioHashString@@@std@@QAEXPAVioHashString@@$$QAV3@@Z
  00024	e9 00 00 00 00	 jmp	 ___CxxFrameHandler3
text$x	ENDS
?construct@?$allocator@VioHashString@@@std@@QAEXPAVioHashString@@$$QAV3@@Z ENDP ; std::allocator<ioHashString>::construct
PUBLIC	??G?$_Vector_const_iterator@V?$_Vector_val@UChangeMoveInfo@@V?$allocator@UChangeMoveInfo@@@std@@@std@@@std@@QBEHABV01@@Z ; std::_Vector_const_iterator<std::_Vector_val<ChangeMoveInfo,std::allocator<ChangeMoveInfo> > >::operator-
; Function compile flags: /Ogsp
; File c:\program files (x86)\microsoft visual studio 10.0\vc\include\vector
;	COMDAT ??G?$_Vector_const_iterator@V?$_Vector_val@UChangeMoveInfo@@V?$allocator@UChangeMoveInfo@@@std@@@std@@@std@@QBEHABV01@@Z
_TEXT	SEGMENT
__Right$ = 8						; size = 4
??G?$_Vector_const_iterator@V?$_Vector_val@UChangeMoveInfo@@V?$allocator@UChangeMoveInfo@@@std@@@std@@@std@@QBEHABV01@@Z PROC ; std::_Vector_const_iterator<std::_Vector_val<ChangeMoveInfo,std::allocator<ChangeMoveInfo> > >::operator-, COMDAT
; _this$ = ecx

; 190  : 		{	// return difference of iterators

  00000	55		 push	 ebp
  00001	8b ec		 mov	 ebp, esp

; 191  : 		_Compat(_Right);
; 192  : 		return (this->_Ptr - _Right._Ptr);

  00003	8b 01		 mov	 eax, DWORD PTR [ecx]
  00005	8b 4d 08	 mov	 ecx, DWORD PTR __Right$[ebp]
  00008	2b 01		 sub	 eax, DWORD PTR [ecx]
  0000a	c1 f8 04	 sar	 eax, 4

; 193  : 		}

  0000d	5d		 pop	 ebp
  0000e	c2 04 00	 ret	 4
??G?$_Vector_const_iterator@V?$_Vector_val@UChangeMoveInfo@@V?$allocator@UChangeMoveInfo@@@std@@@std@@@std@@QBEHABV01@@Z ENDP ; std::_Vector_const_iterator<std::_Vector_val<ChangeMoveInfo,std::allocator<ChangeMoveInfo> > >::operator-
_TEXT	ENDS
PUBLIC	??$_Find@PAVioHashString@@V1@@std@@YAPAVioHashString@@PAV1@0ABV1@@Z ; std::_Find<ioHashString *,ioHashString>
EXTRN	__imp_??8ioHashString@@QBE_NABV0@@Z:PROC
; Function compile flags: /Ogsp
; File c:\program files (x86)\microsoft visual studio 10.0\vc\include\algorithm
;	COMDAT ??$_Find@PAVioHashString@@V1@@std@@YAPAVioHashString@@PAV1@0ABV1@@Z
_TEXT	SEGMENT
__First$ = 8						; size = 4
__Last$ = 12						; size = 4
__Val$ = 16						; size = 4
??$_Find@PAVioHashString@@V1@@std@@YAPAVioHashString@@PAV1@0ABV1@@Z PROC ; std::_Find<ioHashString *,ioHashString>, COMDAT

; 39   : 	{	// find first matching _Val

  00000	55		 push	 ebp
  00001	8b ec		 mov	 ebp, esp
  00003	56		 push	 esi

; 40   : 	for (; _First != _Last; ++_First)

  00004	8b 75 08	 mov	 esi, DWORD PTR __First$[ebp]
  00007	eb 12		 jmp	 SHORT $LN10@Find
$LL4@Find:

; 41   : 		if (*_First == _Val)

  00009	ff 75 10	 push	 DWORD PTR __Val$[ebp]
  0000c	8b ce		 mov	 ecx, esi
  0000e	ff 15 00 00 00
	00		 call	 DWORD PTR __imp_??8ioHashString@@QBE_NABV0@@Z
  00014	84 c0		 test	 al, al
  00016	75 08		 jne	 SHORT $LN8@Find

; 40   : 	for (; _First != _Last; ++_First)

  00018	83 c6 10	 add	 esi, 16			; 00000010H
$LN10@Find:
  0001b	3b 75 0c	 cmp	 esi, DWORD PTR __Last$[ebp]
  0001e	75 e9		 jne	 SHORT $LL4@Find
$LN8@Find:

; 42   : 			break;
; 43   : 	return (_First);

  00020	8b c6		 mov	 eax, esi
  00022	5e		 pop	 esi

; 44   : 	}

  00023	5d		 pop	 ebp
  00024	c3		 ret	 0
??$_Find@PAVioHashString@@V1@@std@@YAPAVioHashString@@PAV1@0ABV1@@Z ENDP ; std::_Find<ioHashString *,ioHashString>
_TEXT	ENDS
PUBLIC	??$forward@AAUD3DXVECTOR3@@@std@@YAAAUD3DXVECTOR3@@AAU1@@Z ; std::forward<D3DXVECTOR3 &>
; Function compile flags: /Ogsp
; File c:\program files (x86)\microsoft visual studio 10.0\vc\include\utility
;	COMDAT ??$forward@AAUD3DXVECTOR3@@@std@@YAAAUD3DXVECTOR3@@AAU1@@Z
_TEXT	SEGMENT
__Arg$ = 8						; size = 4
??$forward@AAUD3DXVECTOR3@@@std@@YAAAUD3DXVECTOR3@@AAU1@@Z PROC ; std::forward<D3DXVECTOR3 &>, COMDAT

; 78   : 	{	// forward _Arg, given explicitly specified type parameter

  00000	55		 push	 ebp
  00001	8b ec		 mov	 ebp, esp

; 79   : 	return ((_Ty&&)_Arg);

  00003	8b 45 08	 mov	 eax, DWORD PTR __Arg$[ebp]

; 80   : 	}

  00006	5d		 pop	 ebp
  00007	c3		 ret	 0
??$forward@AAUD3DXVECTOR3@@@std@@YAAAUD3DXVECTOR3@@AAU1@@Z ENDP ; std::forward<D3DXVECTOR3 &>
_TEXT	ENDS
PUBLIC	??$construct@AAUD3DXVECTOR3@@@?$allocator@UD3DXVECTOR3@@@std@@QAEXPAUD3DXVECTOR3@@AAU2@@Z ; std::allocator<D3DXVECTOR3>::construct<D3DXVECTOR3 &>
; Function compile flags: /Ogsp
; File c:\program files (x86)\microsoft visual studio 10.0\vc\include\xmemory
;	COMDAT ??$construct@AAUD3DXVECTOR3@@@?$allocator@UD3DXVECTOR3@@@std@@QAEXPAUD3DXVECTOR3@@AAU2@@Z
_TEXT	SEGMENT
__Ptr$ = 8						; size = 4
__Val$ = 12						; size = 4
??$construct@AAUD3DXVECTOR3@@@?$allocator@UD3DXVECTOR3@@@std@@QAEXPAUD3DXVECTOR3@@AAU2@@Z PROC ; std::allocator<D3DXVECTOR3>::construct<D3DXVECTOR3 &>, COMDAT
; _this$ = ecx

; 206  : 		void construct(pointer _Ptr, _Other&& _Val)

  00000	55		 push	 ebp
  00001	8b ec		 mov	 ebp, esp
  00003	57		 push	 edi

; 207  : 		{	// construct object at _Ptr with value _Val
; 208  : 		::new ((void _FARQ *)_Ptr) _Ty(_STD forward<_Other>(_Val));

  00004	8b 7d 08	 mov	 edi, DWORD PTR __Ptr$[ebp]
  00007	85 ff		 test	 edi, edi
  00009	74 08		 je	 SHORT $LN3@construct@2
  0000b	56		 push	 esi
  0000c	8b 75 0c	 mov	 esi, DWORD PTR __Val$[ebp]
  0000f	a5		 movsd
  00010	a5		 movsd
  00011	a5		 movsd
  00012	5e		 pop	 esi
$LN3@construct@2:
  00013	5f		 pop	 edi

; 209  : 		}

  00014	5d		 pop	 ebp
  00015	c2 08 00	 ret	 8
??$construct@AAUD3DXVECTOR3@@@?$allocator@UD3DXVECTOR3@@@std@@QAEXPAUD3DXVECTOR3@@AAU2@@Z ENDP ; std::allocator<D3DXVECTOR3>::construct<D3DXVECTOR3 &>
_TEXT	ENDS
PUBLIC	??$forward@ABUD3DXVECTOR3@@@std@@YAABUD3DXVECTOR3@@ABU1@@Z ; std::forward<D3DXVECTOR3 const &>
; Function compile flags: /Ogsp
; File c:\program files (x86)\microsoft visual studio 10.0\vc\include\utility
;	COMDAT ??$forward@ABUD3DXVECTOR3@@@std@@YAABUD3DXVECTOR3@@ABU1@@Z
_TEXT	SEGMENT
__Arg$ = 8						; size = 4
??$forward@ABUD3DXVECTOR3@@@std@@YAABUD3DXVECTOR3@@ABU1@@Z PROC ; std::forward<D3DXVECTOR3 const &>, COMDAT

; 78   : 	{	// forward _Arg, given explicitly specified type parameter

  00000	55		 push	 ebp
  00001	8b ec		 mov	 ebp, esp

; 79   : 	return ((_Ty&&)_Arg);

  00003	8b 45 08	 mov	 eax, DWORD PTR __Arg$[ebp]

; 80   : 	}

  00006	5d		 pop	 ebp
  00007	c3		 ret	 0
??$forward@ABUD3DXVECTOR3@@@std@@YAABUD3DXVECTOR3@@ABU1@@Z ENDP ; std::forward<D3DXVECTOR3 const &>
_TEXT	ENDS
PUBLIC	??$forward@AAUChangeMoveInfo@@@std@@YAAAUChangeMoveInfo@@AAU1@@Z ; std::forward<ChangeMoveInfo &>
; Function compile flags: /Ogsp
;	COMDAT ??$forward@AAUChangeMoveInfo@@@std@@YAAAUChangeMoveInfo@@AAU1@@Z
_TEXT	SEGMENT
__Arg$ = 8						; size = 4
??$forward@AAUChangeMoveInfo@@@std@@YAAAUChangeMoveInfo@@AAU1@@Z PROC ; std::forward<ChangeMoveInfo &>, COMDAT

; 78   : 	{	// forward _Arg, given explicitly specified type parameter

  00000	55		 push	 ebp
  00001	8b ec		 mov	 ebp, esp

; 79   : 	return ((_Ty&&)_Arg);

  00003	8b 45 08	 mov	 eax, DWORD PTR __Arg$[ebp]

; 80   : 	}

  00006	5d		 pop	 ebp
  00007	c3		 ret	 0
??$forward@AAUChangeMoveInfo@@@std@@YAAAUChangeMoveInfo@@AAU1@@Z ENDP ; std::forward<ChangeMoveInfo &>
_TEXT	ENDS
PUBLIC	??$construct@AAUChangeMoveInfo@@@?$allocator@UChangeMoveInfo@@@std@@QAEXPAUChangeMoveInfo@@AAU2@@Z ; std::allocator<ChangeMoveInfo>::construct<ChangeMoveInfo &>
; Function compile flags: /Ogsp
; File c:\program files (x86)\microsoft visual studio 10.0\vc\include\xmemory
;	COMDAT ??$construct@AAUChangeMoveInfo@@@?$allocator@UChangeMoveInfo@@@std@@QAEXPAUChangeMoveInfo@@AAU2@@Z
_TEXT	SEGMENT
__Ptr$ = 8						; size = 4
__Val$ = 12						; size = 4
??$construct@AAUChangeMoveInfo@@@?$allocator@UChangeMoveInfo@@@std@@QAEXPAUChangeMoveInfo@@AAU2@@Z PROC ; std::allocator<ChangeMoveInfo>::construct<ChangeMoveInfo &>, COMDAT
; _this$ = ecx

; 206  : 		void construct(pointer _Ptr, _Other&& _Val)

  00000	55		 push	 ebp
  00001	8b ec		 mov	 ebp, esp
  00003	57		 push	 edi

; 207  : 		{	// construct object at _Ptr with value _Val
; 208  : 		::new ((void _FARQ *)_Ptr) _Ty(_STD forward<_Other>(_Val));

  00004	8b 7d 08	 mov	 edi, DWORD PTR __Ptr$[ebp]
  00007	85 ff		 test	 edi, edi
  00009	74 09		 je	 SHORT $LN3@construct@3
  0000b	56		 push	 esi
  0000c	8b 75 0c	 mov	 esi, DWORD PTR __Val$[ebp]
  0000f	a5		 movsd
  00010	a5		 movsd
  00011	a5		 movsd
  00012	a5		 movsd
  00013	5e		 pop	 esi
$LN3@construct@3:
  00014	5f		 pop	 edi

; 209  : 		}

  00015	5d		 pop	 ebp
  00016	c2 08 00	 ret	 8
??$construct@AAUChangeMoveInfo@@@?$allocator@UChangeMoveInfo@@@std@@QAEXPAUChangeMoveInfo@@AAU2@@Z ENDP ; std::allocator<ChangeMoveInfo>::construct<ChangeMoveInfo &>
_TEXT	ENDS
PUBLIC	??$forward@ABUChangeMoveInfo@@@std@@YAABUChangeMoveInfo@@ABU1@@Z ; std::forward<ChangeMoveInfo const &>
; Function compile flags: /Ogsp
; File c:\program files (x86)\microsoft visual studio 10.0\vc\include\utility
;	COMDAT ??$forward@ABUChangeMoveInfo@@@std@@YAABUChangeMoveInfo@@ABU1@@Z
_TEXT	SEGMENT
__Arg$ = 8						; size = 4
??$forward@ABUChangeMoveInfo@@@std@@YAABUChangeMoveInfo@@ABU1@@Z PROC ; std::forward<ChangeMoveInfo const &>, COMDAT

; 78   : 	{	// forward _Arg, given explicitly specified type parameter

  00000	55		 push	 ebp
  00001	8b ec		 mov	 ebp, esp

; 79   : 	return ((_Ty&&)_Arg);

  00003	8b 45 08	 mov	 eax, DWORD PTR __Arg$[ebp]

; 80   : 	}

  00006	5d		 pop	 ebp
  00007	c3		 ret	 0
??$forward@ABUChangeMoveInfo@@@std@@YAABUChangeMoveInfo@@ABU1@@Z ENDP ; std::forward<ChangeMoveInfo const &>
_TEXT	ENDS
PUBLIC	??$forward@AAPAVioBaseChar@@@std@@YAAAPAVioBaseChar@@AAPAV1@@Z ; std::forward<ioBaseChar * &>
; Function compile flags: /Ogsp
;	COMDAT ??$forward@AAPAVioBaseChar@@@std@@YAAAPAVioBaseChar@@AAPAV1@@Z
_TEXT	SEGMENT
__Arg$ = 8						; size = 4
??$forward@AAPAVioBaseChar@@@std@@YAAAPAVioBaseChar@@AAPAV1@@Z PROC ; std::forward<ioBaseChar * &>, COMDAT

; 78   : 	{	// forward _Arg, given explicitly specified type parameter

  00000	55		 push	 ebp
  00001	8b ec		 mov	 ebp, esp

; 79   : 	return ((_Ty&&)_Arg);

  00003	8b 45 08	 mov	 eax, DWORD PTR __Arg$[ebp]

; 80   : 	}

  00006	5d		 pop	 ebp
  00007	c3		 ret	 0
??$forward@AAPAVioBaseChar@@@std@@YAAAPAVioBaseChar@@AAPAV1@@Z ENDP ; std::forward<ioBaseChar * &>
_TEXT	ENDS
PUBLIC	??$construct@AAPAVioBaseChar@@@?$allocator@PAVioBaseChar@@@std@@QAEXPAPAVioBaseChar@@AAPAV2@@Z ; std::allocator<ioBaseChar *>::construct<ioBaseChar * &>
; Function compile flags: /Ogsp
; File c:\program files (x86)\microsoft visual studio 10.0\vc\include\xmemory
;	COMDAT ??$construct@AAPAVioBaseChar@@@?$allocator@PAVioBaseChar@@@std@@QAEXPAPAVioBaseChar@@AAPAV2@@Z
_TEXT	SEGMENT
__Ptr$ = 8						; size = 4
__Val$ = 12						; size = 4
??$construct@AAPAVioBaseChar@@@?$allocator@PAVioBaseChar@@@std@@QAEXPAPAVioBaseChar@@AAPAV2@@Z PROC ; std::allocator<ioBaseChar *>::construct<ioBaseChar * &>, COMDAT
; _this$ = ecx

; 206  : 		void construct(pointer _Ptr, _Other&& _Val)

  00000	55		 push	 ebp
  00001	8b ec		 mov	 ebp, esp

; 207  : 		{	// construct object at _Ptr with value _Val
; 208  : 		::new ((void _FARQ *)_Ptr) _Ty(_STD forward<_Other>(_Val));

  00003	8b 45 08	 mov	 eax, DWORD PTR __Ptr$[ebp]
  00006	85 c0		 test	 eax, eax
  00008	74 07		 je	 SHORT $LN3@construct@4
  0000a	8b 4d 0c	 mov	 ecx, DWORD PTR __Val$[ebp]
  0000d	8b 09		 mov	 ecx, DWORD PTR [ecx]
  0000f	89 08		 mov	 DWORD PTR [eax], ecx
$LN3@construct@4:

; 209  : 		}

  00011	5d		 pop	 ebp
  00012	c2 08 00	 ret	 8
??$construct@AAPAVioBaseChar@@@?$allocator@PAVioBaseChar@@@std@@QAEXPAPAVioBaseChar@@AAPAV2@@Z ENDP ; std::allocator<ioBaseChar *>::construct<ioBaseChar * &>
_TEXT	ENDS
PUBLIC	??$forward@ABQAVioBaseChar@@@std@@YAABQAVioBaseChar@@ABQAV1@@Z ; std::forward<ioBaseChar * const &>
; Function compile flags: /Ogsp
; File c:\program files (x86)\microsoft visual studio 10.0\vc\include\utility
;	COMDAT ??$forward@ABQAVioBaseChar@@@std@@YAABQAVioBaseChar@@ABQAV1@@Z
_TEXT	SEGMENT
__Arg$ = 8						; size = 4
??$forward@ABQAVioBaseChar@@@std@@YAABQAVioBaseChar@@ABQAV1@@Z PROC ; std::forward<ioBaseChar * const &>, COMDAT

; 78   : 	{	// forward _Arg, given explicitly specified type parameter

  00000	55		 push	 ebp
  00001	8b ec		 mov	 ebp, esp

; 79   : 	return ((_Ty&&)_Arg);

  00003	8b 45 08	 mov	 eax, DWORD PTR __Arg$[ebp]

; 80   : 	}

  00006	5d		 pop	 ebp
  00007	c3		 ret	 0
??$forward@ABQAVioBaseChar@@@std@@YAABQAVioBaseChar@@ABQAV1@@Z ENDP ; std::forward<ioBaseChar * const &>
_TEXT	ENDS
PUBLIC	??$_Ptr_cat@PAVioBaseChar@@PAV1@@std@@YA?AU_Scalar_ptr_iterator_tag@0@PAPAVioBaseChar@@0@Z ; std::_Ptr_cat<ioBaseChar *,ioBaseChar *>
; Function compile flags: /Ogsp
; File c:\program files (x86)\microsoft visual studio 10.0\vc\include\xutility
;	COMDAT ??$_Ptr_cat@PAVioBaseChar@@PAV1@@std@@YA?AU_Scalar_ptr_iterator_tag@0@PAPAVioBaseChar@@0@Z
_TEXT	SEGMENT
__Cat$ = -1						; size = 1
___formal$ = 8						; size = 4
___formal$ = 12						; size = 4
??$_Ptr_cat@PAVioBaseChar@@PAV1@@std@@YA?AU_Scalar_ptr_iterator_tag@0@PAPAVioBaseChar@@0@Z PROC ; std::_Ptr_cat<ioBaseChar *,ioBaseChar *>, COMDAT

; 516  : 	{	// return pointer category from pointers

  00000	55		 push	 ebp
  00001	8b ec		 mov	 ebp, esp
  00003	51		 push	 ecx

; 517  : 	typename _Ptr_cat_helper<_Elem1, _Elem2>::_Type _Cat;
; 518  : 	return (_Cat);

  00004	8a 45 ff	 mov	 al, BYTE PTR __Cat$[ebp]

; 519  : 	}

  00007	c9		 leave
  00008	c3		 ret	 0
??$_Ptr_cat@PAVioBaseChar@@PAV1@@std@@YA?AU_Scalar_ptr_iterator_tag@0@PAPAVioBaseChar@@0@Z ENDP ; std::_Ptr_cat<ioBaseChar *,ioBaseChar *>
_TEXT	ENDS
PUBLIC	??$_Move@PAPAVioBaseChar@@PAPAV1@@std@@YAPAPAVioBaseChar@@PAPAV1@00U_Scalar_ptr_iterator_tag@0@@Z ; std::_Move<ioBaseChar * *,ioBaseChar * *>
EXTRN	__imp__memmove:PROC
; Function compile flags: /Ogsp
;	COMDAT ??$_Move@PAPAVioBaseChar@@PAPAV1@@std@@YAPAPAVioBaseChar@@PAPAV1@00U_Scalar_ptr_iterator_tag@0@@Z
_TEXT	SEGMENT
__First$ = 8						; size = 4
__Last$ = 12						; size = 4
__Dest$ = 16						; size = 4
___formal$ = 20						; size = 1
??$_Move@PAPAVioBaseChar@@PAPAV1@@std@@YAPAPAVioBaseChar@@PAPAV1@00U_Scalar_ptr_iterator_tag@0@@Z PROC ; std::_Move<ioBaseChar * *,ioBaseChar * *>, COMDAT

; 2522 : 	{	// move [_First, _Last) to [_Dest, ...), pointers to scalars

  00000	55		 push	 ebp
  00001	8b ec		 mov	 ebp, esp
  00003	56		 push	 esi

; 2523 : 	ptrdiff_t _Count = _Last - _First;

  00004	8b 75 0c	 mov	 esi, DWORD PTR __Last$[ebp]
  00007	2b 75 08	 sub	 esi, DWORD PTR __First$[ebp]
  0000a	57		 push	 edi

; 2524 : 	_CSTD memmove(&*_Dest, &*_First,
; 2525 : 		_Count * sizeof (*_First));

  0000b	8b 7d 10	 mov	 edi, DWORD PTR __Dest$[ebp]
  0000e	c1 fe 02	 sar	 esi, 2
  00011	c1 e6 02	 shl	 esi, 2
  00014	56		 push	 esi
  00015	ff 75 08	 push	 DWORD PTR __First$[ebp]
  00018	57		 push	 edi
  00019	ff 15 00 00 00
	00		 call	 DWORD PTR __imp__memmove
  0001f	83 c4 0c	 add	 esp, 12			; 0000000cH

; 2526 : 	return (_Dest + _Count);

  00022	8d 04 3e	 lea	 eax, DWORD PTR [esi+edi]
  00025	5f		 pop	 edi
  00026	5e		 pop	 esi

; 2527 : 	}

  00027	5d		 pop	 ebp
  00028	c3		 ret	 0
??$_Move@PAPAVioBaseChar@@PAPAV1@@std@@YAPAPAVioBaseChar@@PAPAV1@00U_Scalar_ptr_iterator_tag@0@@Z ENDP ; std::_Move<ioBaseChar * *,ioBaseChar * *>
_TEXT	ENDS
PUBLIC	??$forward@AAUtagGenerateInfo@@@std@@YAAAUtagGenerateInfo@@AAU1@@Z ; std::forward<tagGenerateInfo &>
; Function compile flags: /Ogsp
; File c:\program files (x86)\microsoft visual studio 10.0\vc\include\utility
;	COMDAT ??$forward@AAUtagGenerateInfo@@@std@@YAAAUtagGenerateInfo@@AAU1@@Z
_TEXT	SEGMENT
__Arg$ = 8						; size = 4
??$forward@AAUtagGenerateInfo@@@std@@YAAAUtagGenerateInfo@@AAU1@@Z PROC ; std::forward<tagGenerateInfo &>, COMDAT

; 78   : 	{	// forward _Arg, given explicitly specified type parameter

  00000	55		 push	 ebp
  00001	8b ec		 mov	 ebp, esp

; 79   : 	return ((_Ty&&)_Arg);

  00003	8b 45 08	 mov	 eax, DWORD PTR __Arg$[ebp]

; 80   : 	}

  00006	5d		 pop	 ebp
  00007	c3		 ret	 0
??$forward@AAUtagGenerateInfo@@@std@@YAAAUtagGenerateInfo@@AAU1@@Z ENDP ; std::forward<tagGenerateInfo &>
_TEXT	ENDS
PUBLIC	??$construct@AAUtagGenerateInfo@@@?$allocator@UtagGenerateInfo@@@std@@QAEXPAUtagGenerateInfo@@AAU2@@Z ; std::allocator<tagGenerateInfo>::construct<tagGenerateInfo &>
; Function compile flags: /Ogsp
; File c:\program files (x86)\microsoft visual studio 10.0\vc\include\xmemory
;	COMDAT ??$construct@AAUtagGenerateInfo@@@?$allocator@UtagGenerateInfo@@@std@@QAEXPAUtagGenerateInfo@@AAU2@@Z
_TEXT	SEGMENT
__Ptr$ = 8						; size = 4
__Val$ = 12						; size = 4
??$construct@AAUtagGenerateInfo@@@?$allocator@UtagGenerateInfo@@@std@@QAEXPAUtagGenerateInfo@@AAU2@@Z PROC ; std::allocator<tagGenerateInfo>::construct<tagGenerateInfo &>, COMDAT
; _this$ = ecx

; 206  : 		void construct(pointer _Ptr, _Other&& _Val)

  00000	55		 push	 ebp
  00001	8b ec		 mov	 ebp, esp
  00003	57		 push	 edi

; 207  : 		{	// construct object at _Ptr with value _Val
; 208  : 		::new ((void _FARQ *)_Ptr) _Ty(_STD forward<_Other>(_Val));

  00004	8b 7d 08	 mov	 edi, DWORD PTR __Ptr$[ebp]
  00007	85 ff		 test	 edi, edi
  00009	74 0a		 je	 SHORT $LN3@construct@5
  0000b	56		 push	 esi
  0000c	8b 75 0c	 mov	 esi, DWORD PTR __Val$[ebp]
  0000f	6a 05		 push	 5
  00011	59		 pop	 ecx
  00012	f3 a5		 rep movsd
  00014	5e		 pop	 esi
$LN3@construct@5:
  00015	5f		 pop	 edi

; 209  : 		}

  00016	5d		 pop	 ebp
  00017	c2 08 00	 ret	 8
??$construct@AAUtagGenerateInfo@@@?$allocator@UtagGenerateInfo@@@std@@QAEXPAUtagGenerateInfo@@AAU2@@Z ENDP ; std::allocator<tagGenerateInfo>::construct<tagGenerateInfo &>
_TEXT	ENDS
PUBLIC	??$forward@ABUtagGenerateInfo@@@std@@YAABUtagGenerateInfo@@ABU1@@Z ; std::forward<tagGenerateInfo const &>
; Function compile flags: /Ogsp
; File c:\program files (x86)\microsoft visual studio 10.0\vc\include\utility
;	COMDAT ??$forward@ABUtagGenerateInfo@@@std@@YAABUtagGenerateInfo@@ABU1@@Z
_TEXT	SEGMENT
__Arg$ = 8						; size = 4
??$forward@ABUtagGenerateInfo@@@std@@YAABUtagGenerateInfo@@ABU1@@Z PROC ; std::forward<tagGenerateInfo const &>, COMDAT

; 78   : 	{	// forward _Arg, given explicitly specified type parameter

  00000	55		 push	 ebp
  00001	8b ec		 mov	 ebp, esp

; 79   : 	return ((_Ty&&)_Arg);

  00003	8b 45 08	 mov	 eax, DWORD PTR __Arg$[ebp]

; 80   : 	}

  00006	5d		 pop	 ebp
  00007	c3		 ret	 0
??$forward@ABUtagGenerateInfo@@@std@@YAABUtagGenerateInfo@@ABU1@@Z ENDP ; std::forward<tagGenerateInfo const &>
_TEXT	ENDS
PUBLIC	??$_Ptr_cat@UtagGenerateInfo@@U1@@std@@YA?AU_Nonscalar_ptr_iterator_tag@0@PAUtagGenerateInfo@@0@Z ; std::_Ptr_cat<tagGenerateInfo,tagGenerateInfo>
; Function compile flags: /Ogsp
; File c:\program files (x86)\microsoft visual studio 10.0\vc\include\xutility
;	COMDAT ??$_Ptr_cat@UtagGenerateInfo@@U1@@std@@YA?AU_Nonscalar_ptr_iterator_tag@0@PAUtagGenerateInfo@@0@Z
_TEXT	SEGMENT
__Cat$ = -1						; size = 1
___formal$ = 8						; size = 4
___formal$ = 12						; size = 4
??$_Ptr_cat@UtagGenerateInfo@@U1@@std@@YA?AU_Nonscalar_ptr_iterator_tag@0@PAUtagGenerateInfo@@0@Z PROC ; std::_Ptr_cat<tagGenerateInfo,tagGenerateInfo>, COMDAT

; 516  : 	{	// return pointer category from pointers

  00000	55		 push	 ebp
  00001	8b ec		 mov	 ebp, esp
  00003	51		 push	 ecx

; 517  : 	typename _Ptr_cat_helper<_Elem1, _Elem2>::_Type _Cat;
; 518  : 	return (_Cat);

  00004	8a 45 ff	 mov	 al, BYTE PTR __Cat$[ebp]

; 519  : 	}

  00007	c9		 leave
  00008	c3		 ret	 0
??$_Ptr_cat@UtagGenerateInfo@@U1@@std@@YA?AU_Nonscalar_ptr_iterator_tag@0@PAUtagGenerateInfo@@0@Z ENDP ; std::_Ptr_cat<tagGenerateInfo,tagGenerateInfo>
_TEXT	ENDS
PUBLIC	??$forward@AAURefreshCollisionInfo@ioAreaWeapon@@@std@@YAAAURefreshCollisionInfo@ioAreaWeapon@@AAU12@@Z ; std::forward<ioAreaWeapon::RefreshCollisionInfo &>
; Function compile flags: /Ogsp
; File c:\program files (x86)\microsoft visual studio 10.0\vc\include\utility
;	COMDAT ??$forward@AAURefreshCollisionInfo@ioAreaWeapon@@@std@@YAAAURefreshCollisionInfo@ioAreaWeapon@@AAU12@@Z
_TEXT	SEGMENT
__Arg$ = 8						; size = 4
??$forward@AAURefreshCollisionInfo@ioAreaWeapon@@@std@@YAAAURefreshCollisionInfo@ioAreaWeapon@@AAU12@@Z PROC ; std::forward<ioAreaWeapon::RefreshCollisionInfo &>, COMDAT

; 78   : 	{	// forward _Arg, given explicitly specified type parameter

  00000	55		 push	 ebp
  00001	8b ec		 mov	 ebp, esp

; 79   : 	return ((_Ty&&)_Arg);

  00003	8b 45 08	 mov	 eax, DWORD PTR __Arg$[ebp]

; 80   : 	}

  00006	5d		 pop	 ebp
  00007	c3		 ret	 0
??$forward@AAURefreshCollisionInfo@ioAreaWeapon@@@std@@YAAAURefreshCollisionInfo@ioAreaWeapon@@AAU12@@Z ENDP ; std::forward<ioAreaWeapon::RefreshCollisionInfo &>
_TEXT	ENDS
PUBLIC	??$forward@ABURefreshCollisionInfo@ioAreaWeapon@@@std@@YAABURefreshCollisionInfo@ioAreaWeapon@@ABU12@@Z ; std::forward<ioAreaWeapon::RefreshCollisionInfo const &>
; Function compile flags: /Ogsp
;	COMDAT ??$forward@ABURefreshCollisionInfo@ioAreaWeapon@@@std@@YAABURefreshCollisionInfo@ioAreaWeapon@@ABU12@@Z
_TEXT	SEGMENT
__Arg$ = 8						; size = 4
??$forward@ABURefreshCollisionInfo@ioAreaWeapon@@@std@@YAABURefreshCollisionInfo@ioAreaWeapon@@ABU12@@Z PROC ; std::forward<ioAreaWeapon::RefreshCollisionInfo const &>, COMDAT

; 78   : 	{	// forward _Arg, given explicitly specified type parameter

  00000	55		 push	 ebp
  00001	8b ec		 mov	 ebp, esp

; 79   : 	return ((_Ty&&)_Arg);

  00003	8b 45 08	 mov	 eax, DWORD PTR __Arg$[ebp]

; 80   : 	}

  00006	5d		 pop	 ebp
  00007	c3		 ret	 0
??$forward@ABURefreshCollisionInfo@ioAreaWeapon@@@std@@YAABURefreshCollisionInfo@ioAreaWeapon@@ABU12@@Z ENDP ; std::forward<ioAreaWeapon::RefreshCollisionInfo const &>
_TEXT	ENDS
PUBLIC	??$_Ptr_cat@UD3DXVECTOR3@@U1@@std@@YA?AU_Nonscalar_ptr_iterator_tag@0@PAUD3DXVECTOR3@@0@Z ; std::_Ptr_cat<D3DXVECTOR3,D3DXVECTOR3>
; Function compile flags: /Ogsp
; File c:\program files (x86)\microsoft visual studio 10.0\vc\include\xutility
;	COMDAT ??$_Ptr_cat@UD3DXVECTOR3@@U1@@std@@YA?AU_Nonscalar_ptr_iterator_tag@0@PAUD3DXVECTOR3@@0@Z
_TEXT	SEGMENT
__Cat$ = -1						; size = 1
___formal$ = 8						; size = 4
___formal$ = 12						; size = 4
??$_Ptr_cat@UD3DXVECTOR3@@U1@@std@@YA?AU_Nonscalar_ptr_iterator_tag@0@PAUD3DXVECTOR3@@0@Z PROC ; std::_Ptr_cat<D3DXVECTOR3,D3DXVECTOR3>, COMDAT

; 516  : 	{	// return pointer category from pointers

  00000	55		 push	 ebp
  00001	8b ec		 mov	 ebp, esp
  00003	51		 push	 ecx

; 517  : 	typename _Ptr_cat_helper<_Elem1, _Elem2>::_Type _Cat;
; 518  : 	return (_Cat);

  00004	8a 45 ff	 mov	 al, BYTE PTR __Cat$[ebp]

; 519  : 	}

  00007	c9		 leave
  00008	c3		 ret	 0
??$_Ptr_cat@UD3DXVECTOR3@@U1@@std@@YA?AU_Nonscalar_ptr_iterator_tag@0@PAUD3DXVECTOR3@@0@Z ENDP ; std::_Ptr_cat<D3DXVECTOR3,D3DXVECTOR3>
_TEXT	ENDS
PUBLIC	??$_Ptr_cat@UChangeMoveInfo@@U1@@std@@YA?AU_Nonscalar_ptr_iterator_tag@0@PAUChangeMoveInfo@@0@Z ; std::_Ptr_cat<ChangeMoveInfo,ChangeMoveInfo>
; Function compile flags: /Ogsp
;	COMDAT ??$_Ptr_cat@UChangeMoveInfo@@U1@@std@@YA?AU_Nonscalar_ptr_iterator_tag@0@PAUChangeMoveInfo@@0@Z
_TEXT	SEGMENT
__Cat$ = -1						; size = 1
___formal$ = 8						; size = 4
___formal$ = 12						; size = 4
??$_Ptr_cat@UChangeMoveInfo@@U1@@std@@YA?AU_Nonscalar_ptr_iterator_tag@0@PAUChangeMoveInfo@@0@Z PROC ; std::_Ptr_cat<ChangeMoveInfo,ChangeMoveInfo>, COMDAT

; 516  : 	{	// return pointer category from pointers

  00000	55		 push	 ebp
  00001	8b ec		 mov	 ebp, esp
  00003	51		 push	 ecx

; 517  : 	typename _Ptr_cat_helper<_Elem1, _Elem2>::_Type _Cat;
; 518  : 	return (_Cat);

  00004	8a 45 ff	 mov	 al, BYTE PTR __Cat$[ebp]

; 519  : 	}

  00007	c9		 leave
  00008	c3		 ret	 0
??$_Ptr_cat@UChangeMoveInfo@@U1@@std@@YA?AU_Nonscalar_ptr_iterator_tag@0@PAUChangeMoveInfo@@0@Z ENDP ; std::_Ptr_cat<ChangeMoveInfo,ChangeMoveInfo>
_TEXT	ENDS
PUBLIC	??$_Destroy_range@V?$allocator@PAVioBaseChar@@@std@@@std@@YAXPAPAVioBaseChar@@0AAV?$allocator@PAVioBaseChar@@@0@U_Scalar_ptr_iterator_tag@0@@Z ; std::_Destroy_range<std::allocator<ioBaseChar *> >
; Function compile flags: /Ogsp
; File c:\program files (x86)\microsoft visual studio 10.0\vc\include\xmemory
;	COMDAT ??$_Destroy_range@V?$allocator@PAVioBaseChar@@@std@@@std@@YAXPAPAVioBaseChar@@0AAV?$allocator@PAVioBaseChar@@@0@U_Scalar_ptr_iterator_tag@0@@Z
_TEXT	SEGMENT
__First$ = 8						; size = 4
__Last$ = 12						; size = 4
__Al$ = 16						; size = 4
___formal$ = 20						; size = 1
??$_Destroy_range@V?$allocator@PAVioBaseChar@@@std@@@std@@YAXPAPAVioBaseChar@@0AAV?$allocator@PAVioBaseChar@@@0@U_Scalar_ptr_iterator_tag@0@@Z PROC ; std::_Destroy_range<std::allocator<ioBaseChar *> >, COMDAT

; 105  : 	}

  00000	c3		 ret	 0
??$_Destroy_range@V?$allocator@PAVioBaseChar@@@std@@@std@@YAXPAPAVioBaseChar@@0AAV?$allocator@PAVioBaseChar@@@0@U_Scalar_ptr_iterator_tag@0@@Z ENDP ; std::_Destroy_range<std::allocator<ioBaseChar *> >
_TEXT	ENDS
PUBLIC	??$_Ptr_cat@URefreshCollisionInfo@ioAreaWeapon@@U12@@std@@YA?AU_Nonscalar_ptr_iterator_tag@0@PAURefreshCollisionInfo@ioAreaWeapon@@0@Z ; std::_Ptr_cat<ioAreaWeapon::RefreshCollisionInfo,ioAreaWeapon::RefreshCollisionInfo>
; Function compile flags: /Ogsp
; File c:\program files (x86)\microsoft visual studio 10.0\vc\include\xutility
;	COMDAT ??$_Ptr_cat@URefreshCollisionInfo@ioAreaWeapon@@U12@@std@@YA?AU_Nonscalar_ptr_iterator_tag@0@PAURefreshCollisionInfo@ioAreaWeapon@@0@Z
_TEXT	SEGMENT
__Cat$ = -1						; size = 1
___formal$ = 8						; size = 4
___formal$ = 12						; size = 4
??$_Ptr_cat@URefreshCollisionInfo@ioAreaWeapon@@U12@@std@@YA?AU_Nonscalar_ptr_iterator_tag@0@PAURefreshCollisionInfo@ioAreaWeapon@@0@Z PROC ; std::_Ptr_cat<ioAreaWeapon::RefreshCollisionInfo,ioAreaWeapon::RefreshCollisionInfo>, COMDAT

; 516  : 	{	// return pointer category from pointers

  00000	55		 push	 ebp
  00001	8b ec		 mov	 ebp, esp
  00003	51		 push	 ecx

; 517  : 	typename _Ptr_cat_helper<_Elem1, _Elem2>::_Type _Cat;
; 518  : 	return (_Cat);

  00004	8a 45 ff	 mov	 al, BYTE PTR __Cat$[ebp]

; 519  : 	}

  00007	c9		 leave
  00008	c3		 ret	 0
??$_Ptr_cat@URefreshCollisionInfo@ioAreaWeapon@@U12@@std@@YA?AU_Nonscalar_ptr_iterator_tag@0@PAURefreshCollisionInfo@ioAreaWeapon@@0@Z ENDP ; std::_Ptr_cat<ioAreaWeapon::RefreshCollisionInfo,ioAreaWeapon::RefreshCollisionInfo>
_TEXT	ENDS
PUBLIC	??$_Construct@UD3DXVECTOR3@@ABU1@@std@@YAXPAUD3DXVECTOR3@@ABU1@@Z ; std::_Construct<D3DXVECTOR3,D3DXVECTOR3 const &>
; Function compile flags: /Ogsp
; File c:\program files (x86)\microsoft visual studio 10.0\vc\include\xmemory
;	COMDAT ??$_Construct@UD3DXVECTOR3@@ABU1@@std@@YAXPAUD3DXVECTOR3@@ABU1@@Z
_TEXT	SEGMENT
__Ptr$ = 8						; size = 4
__Val$ = 12						; size = 4
??$_Construct@UD3DXVECTOR3@@ABU1@@std@@YAXPAUD3DXVECTOR3@@ABU1@@Z PROC ; std::_Construct<D3DXVECTOR3,D3DXVECTOR3 const &>, COMDAT

; 46   : 	{	// construct object at _Ptr with value _Val

  00000	55		 push	 ebp
  00001	8b ec		 mov	 ebp, esp
  00003	57		 push	 edi

; 47   : 	void _FARQ *_Vptr = _Ptr;
; 48   : 	::new (_Vptr) _Ty1(_STD forward<_Ty2>(_Val));

  00004	8b 7d 08	 mov	 edi, DWORD PTR __Ptr$[ebp]
  00007	85 ff		 test	 edi, edi
  00009	74 08		 je	 SHORT $LN3@Construct
  0000b	56		 push	 esi
  0000c	8b 75 0c	 mov	 esi, DWORD PTR __Val$[ebp]
  0000f	a5		 movsd
  00010	a5		 movsd
  00011	a5		 movsd
  00012	5e		 pop	 esi
$LN3@Construct:
  00013	5f		 pop	 edi

; 49   : 	}

  00014	5d		 pop	 ebp
  00015	c3		 ret	 0
??$_Construct@UD3DXVECTOR3@@ABU1@@std@@YAXPAUD3DXVECTOR3@@ABU1@@Z ENDP ; std::_Construct<D3DXVECTOR3,D3DXVECTOR3 const &>
_TEXT	ENDS
PUBLIC	??$_Construct@UChangeMoveInfo@@ABU1@@std@@YAXPAUChangeMoveInfo@@ABU1@@Z ; std::_Construct<ChangeMoveInfo,ChangeMoveInfo const &>
; Function compile flags: /Ogsp
;	COMDAT ??$_Construct@UChangeMoveInfo@@ABU1@@std@@YAXPAUChangeMoveInfo@@ABU1@@Z
_TEXT	SEGMENT
__Ptr$ = 8						; size = 4
__Val$ = 12						; size = 4
??$_Construct@UChangeMoveInfo@@ABU1@@std@@YAXPAUChangeMoveInfo@@ABU1@@Z PROC ; std::_Construct<ChangeMoveInfo,ChangeMoveInfo const &>, COMDAT

; 46   : 	{	// construct object at _Ptr with value _Val

  00000	55		 push	 ebp
  00001	8b ec		 mov	 ebp, esp
  00003	57		 push	 edi

; 47   : 	void _FARQ *_Vptr = _Ptr;
; 48   : 	::new (_Vptr) _Ty1(_STD forward<_Ty2>(_Val));

  00004	8b 7d 08	 mov	 edi, DWORD PTR __Ptr$[ebp]
  00007	85 ff		 test	 edi, edi
  00009	74 09		 je	 SHORT $LN3@Construct@2
  0000b	56		 push	 esi
  0000c	8b 75 0c	 mov	 esi, DWORD PTR __Val$[ebp]
  0000f	a5		 movsd
  00010	a5		 movsd
  00011	a5		 movsd
  00012	a5		 movsd
  00013	5e		 pop	 esi
$LN3@Construct@2:
  00014	5f		 pop	 edi

; 49   : 	}

  00015	5d		 pop	 ebp
  00016	c3		 ret	 0
??$_Construct@UChangeMoveInfo@@ABU1@@std@@YAXPAUChangeMoveInfo@@ABU1@@Z ENDP ; std::_Construct<ChangeMoveInfo,ChangeMoveInfo const &>
_TEXT	ENDS
PUBLIC	??$_Construct@PAVioBaseChar@@ABQAV1@@std@@YAXPAPAVioBaseChar@@ABQAV1@@Z ; std::_Construct<ioBaseChar *,ioBaseChar * const &>
; Function compile flags: /Ogsp
;	COMDAT ??$_Construct@PAVioBaseChar@@ABQAV1@@std@@YAXPAPAVioBaseChar@@ABQAV1@@Z
_TEXT	SEGMENT
__Ptr$ = 8						; size = 4
__Val$ = 12						; size = 4
??$_Construct@PAVioBaseChar@@ABQAV1@@std@@YAXPAPAVioBaseChar@@ABQAV1@@Z PROC ; std::_Construct<ioBaseChar *,ioBaseChar * const &>, COMDAT

; 46   : 	{	// construct object at _Ptr with value _Val

  00000	55		 push	 ebp
  00001	8b ec		 mov	 ebp, esp

; 47   : 	void _FARQ *_Vptr = _Ptr;
; 48   : 	::new (_Vptr) _Ty1(_STD forward<_Ty2>(_Val));

  00003	8b 45 08	 mov	 eax, DWORD PTR __Ptr$[ebp]
  00006	85 c0		 test	 eax, eax
  00008	74 07		 je	 SHORT $LN3@Construct@3
  0000a	8b 4d 0c	 mov	 ecx, DWORD PTR __Val$[ebp]
  0000d	8b 09		 mov	 ecx, DWORD PTR [ecx]
  0000f	89 08		 mov	 DWORD PTR [eax], ecx
$LN3@Construct@3:

; 49   : 	}

  00011	5d		 pop	 ebp
  00012	c3		 ret	 0
??$_Construct@PAVioBaseChar@@ABQAV1@@std@@YAXPAPAVioBaseChar@@ABQAV1@@Z ENDP ; std::_Construct<ioBaseChar *,ioBaseChar * const &>
_TEXT	ENDS
PUBLIC	??$_Construct@UtagGenerateInfo@@ABU1@@std@@YAXPAUtagGenerateInfo@@ABU1@@Z ; std::_Construct<tagGenerateInfo,tagGenerateInfo const &>
; Function compile flags: /Ogsp
;	COMDAT ??$_Construct@UtagGenerateInfo@@ABU1@@std@@YAXPAUtagGenerateInfo@@ABU1@@Z
_TEXT	SEGMENT
__Ptr$ = 8						; size = 4
__Val$ = 12						; size = 4
??$_Construct@UtagGenerateInfo@@ABU1@@std@@YAXPAUtagGenerateInfo@@ABU1@@Z PROC ; std::_Construct<tagGenerateInfo,tagGenerateInfo const &>, COMDAT

; 46   : 	{	// construct object at _Ptr with value _Val

  00000	55		 push	 ebp
  00001	8b ec		 mov	 ebp, esp
  00003	57		 push	 edi

; 47   : 	void _FARQ *_Vptr = _Ptr;
; 48   : 	::new (_Vptr) _Ty1(_STD forward<_Ty2>(_Val));

  00004	8b 7d 08	 mov	 edi, DWORD PTR __Ptr$[ebp]
  00007	85 ff		 test	 edi, edi
  00009	74 0a		 je	 SHORT $LN3@Construct@4
  0000b	56		 push	 esi
  0000c	8b 75 0c	 mov	 esi, DWORD PTR __Val$[ebp]
  0000f	6a 05		 push	 5
  00011	59		 pop	 ecx
  00012	f3 a5		 rep movsd
  00014	5e		 pop	 esi
$LN3@Construct@4:
  00015	5f		 pop	 edi

; 49   : 	}

  00016	5d		 pop	 ebp
  00017	c3		 ret	 0
??$_Construct@UtagGenerateInfo@@ABU1@@std@@YAXPAUtagGenerateInfo@@ABU1@@Z ENDP ; std::_Construct<tagGenerateInfo,tagGenerateInfo const &>
_TEXT	ENDS
PUBLIC	??0RefreshCollisionInfo@ioAreaWeapon@@QAE@ABU01@@Z ; ioAreaWeapon::RefreshCollisionInfo::RefreshCollisionInfo
; Function compile flags: /Ogsp
;	COMDAT ??0RefreshCollisionInfo@ioAreaWeapon@@QAE@ABU01@@Z
_TEXT	SEGMENT
___that$ = 8						; size = 4
??0RefreshCollisionInfo@ioAreaWeapon@@QAE@ABU01@@Z PROC	; ioAreaWeapon::RefreshCollisionInfo::RefreshCollisionInfo, COMDAT
; _this$ = ecx
  00000	55		 push	 ebp
  00001	8b ec		 mov	 ebp, esp
  00003	56		 push	 esi
  00004	57		 push	 edi
  00005	8b 7d 08	 mov	 edi, DWORD PTR ___that$[ebp]
  00008	57		 push	 edi
  00009	8b f1		 mov	 esi, ecx
  0000b	ff 15 00 00 00
	00		 call	 DWORD PTR __imp_??0ioHashString@@QAE@ABV0@@Z
  00011	8b 47 10	 mov	 eax, DWORD PTR [edi+16]
  00014	89 46 10	 mov	 DWORD PTR [esi+16], eax
  00017	5f		 pop	 edi
  00018	8b c6		 mov	 eax, esi
  0001a	5e		 pop	 esi
  0001b	5d		 pop	 ebp
  0001c	c2 04 00	 ret	 4
??0RefreshCollisionInfo@ioAreaWeapon@@QAE@ABU01@@Z ENDP	; ioAreaWeapon::RefreshCollisionInfo::RefreshCollisionInfo
_TEXT	ENDS
PUBLIC	??4RefreshCollisionInfo@ioAreaWeapon@@QAEAAU01@ABU01@@Z ; ioAreaWeapon::RefreshCollisionInfo::operator=
; Function compile flags: /Ogsp
;	COMDAT ??4RefreshCollisionInfo@ioAreaWeapon@@QAEAAU01@ABU01@@Z
_TEXT	SEGMENT
___that$ = 8						; size = 4
??4RefreshCollisionInfo@ioAreaWeapon@@QAEAAU01@ABU01@@Z PROC ; ioAreaWeapon::RefreshCollisionInfo::operator=, COMDAT
; _this$ = ecx
  00000	55		 push	 ebp
  00001	8b ec		 mov	 ebp, esp
  00003	56		 push	 esi
  00004	57		 push	 edi
  00005	8b 7d 08	 mov	 edi, DWORD PTR ___that$[ebp]
  00008	57		 push	 edi
  00009	8b f1		 mov	 esi, ecx
  0000b	ff 15 00 00 00
	00		 call	 DWORD PTR __imp_??4ioHashString@@QAEAAV0@ABV0@@Z
  00011	8b 47 10	 mov	 eax, DWORD PTR [edi+16]
  00014	89 46 10	 mov	 DWORD PTR [esi+16], eax
  00017	5f		 pop	 edi
  00018	8b c6		 mov	 eax, esi
  0001a	5e		 pop	 esi
  0001b	5d		 pop	 ebp
  0001c	c2 04 00	 ret	 4
??4RefreshCollisionInfo@ioAreaWeapon@@QAEAAU01@ABU01@@Z ENDP ; ioAreaWeapon::RefreshCollisionInfo::operator=
_TEXT	ENDS
PUBLIC	?_Rechecked@?$_Vector_iterator@V?$_Vector_val@VioHashString@@V?$allocator@VioHashString@@@std@@@std@@@std@@QAEAAV12@PAVioHashString@@@Z ; std::_Vector_iterator<std::_Vector_val<ioHashString,std::allocator<ioHashString> > >::_Rechecked
; Function compile flags: /Ogsp
; File c:\program files (x86)\microsoft visual studio 10.0\vc\include\vector
;	COMDAT ?_Rechecked@?$_Vector_iterator@V?$_Vector_val@VioHashString@@V?$allocator@VioHashString@@@std@@@std@@@std@@QAEAAV12@PAVioHashString@@@Z
_TEXT	SEGMENT
__Right$ = 8						; size = 4
?_Rechecked@?$_Vector_iterator@V?$_Vector_val@VioHashString@@V?$allocator@VioHashString@@@std@@@std@@@std@@QAEAAV12@PAVioHashString@@@Z PROC ; std::_Vector_iterator<std::_Vector_val<ioHashString,std::allocator<ioHashString> > >::_Rechecked, COMDAT
; _this$ = ecx

; 310  : 		{	// reset from unchecked iterator

  00000	55		 push	 ebp
  00001	8b ec		 mov	 ebp, esp
  00003	8b c1		 mov	 eax, ecx

; 311  : 		this->_Ptr = _Right;

  00005	8b 4d 08	 mov	 ecx, DWORD PTR __Right$[ebp]
  00008	89 08		 mov	 DWORD PTR [eax], ecx

; 312  : 		return (*this);
; 313  : 		}

  0000a	5d		 pop	 ebp
  0000b	c2 04 00	 ret	 4
?_Rechecked@?$_Vector_iterator@V?$_Vector_val@VioHashString@@V?$allocator@VioHashString@@@std@@@std@@@std@@QAEAAV12@PAVioHashString@@@Z ENDP ; std::_Vector_iterator<std::_Vector_val<ioHashString,std::allocator<ioHashString> > >::_Rechecked
_TEXT	ENDS
PUBLIC	?_Unchecked@?$_Vector_iterator@V?$_Vector_val@VioHashString@@V?$allocator@VioHashString@@@std@@@std@@@std@@QBEPAVioHashString@@XZ ; std::_Vector_iterator<std::_Vector_val<ioHashString,std::allocator<ioHashString> > >::_Unchecked
; Function compile flags: /Ogsp
;	COMDAT ?_Unchecked@?$_Vector_iterator@V?$_Vector_val@VioHashString@@V?$allocator@VioHashString@@@std@@@std@@@std@@QBEPAVioHashString@@XZ
_TEXT	SEGMENT
?_Unchecked@?$_Vector_iterator@V?$_Vector_val@VioHashString@@V?$allocator@VioHashString@@@std@@@std@@@std@@QBEPAVioHashString@@XZ PROC ; std::_Vector_iterator<std::_Vector_val<ioHashString,std::allocator<ioHashString> > >::_Unchecked, COMDAT
; _this$ = ecx

; 317  : 		return (_Unchecked_type(this->_Ptr));

  00000	8b 01		 mov	 eax, DWORD PTR [ecx]

; 318  : 		}

  00002	c3		 ret	 0
?_Unchecked@?$_Vector_iterator@V?$_Vector_val@VioHashString@@V?$allocator@VioHashString@@@std@@@std@@@std@@QBEPAVioHashString@@XZ ENDP ; std::_Vector_iterator<std::_Vector_val<ioHashString,std::allocator<ioHashString> > >::_Unchecked
_TEXT	ENDS
PUBLIC	?_Unchecked@?$_Vector_iterator@V?$_Vector_val@UChangeMoveInfo@@V?$allocator@UChangeMoveInfo@@@std@@@std@@@std@@QBEPAUChangeMoveInfo@@XZ ; std::_Vector_iterator<std::_Vector_val<ChangeMoveInfo,std::allocator<ChangeMoveInfo> > >::_Unchecked
; Function compile flags: /Ogsp
;	COMDAT ?_Unchecked@?$_Vector_iterator@V?$_Vector_val@UChangeMoveInfo@@V?$allocator@UChangeMoveInfo@@@std@@@std@@@std@@QBEPAUChangeMoveInfo@@XZ
_TEXT	SEGMENT
?_Unchecked@?$_Vector_iterator@V?$_Vector_val@UChangeMoveInfo@@V?$allocator@UChangeMoveInfo@@@std@@@std@@@std@@QBEPAUChangeMoveInfo@@XZ PROC ; std::_Vector_iterator<std::_Vector_val<ChangeMoveInfo,std::allocator<ChangeMoveInfo> > >::_Unchecked, COMDAT
; _this$ = ecx

; 317  : 		return (_Unchecked_type(this->_Ptr));

  00000	8b 01		 mov	 eax, DWORD PTR [ecx]

; 318  : 		}

  00002	c3		 ret	 0
?_Unchecked@?$_Vector_iterator@V?$_Vector_val@UChangeMoveInfo@@V?$allocator@UChangeMoveInfo@@@std@@@std@@@std@@QBEPAUChangeMoveInfo@@XZ ENDP ; std::_Vector_iterator<std::_Vector_val<ChangeMoveInfo,std::allocator<ChangeMoveInfo> > >::_Unchecked
_TEXT	ENDS
PUBLIC	??$_Val_type@PAVioHashString@@@std@@YAPAVioHashString@@PAV1@@Z ; std::_Val_type<ioHashString *>
; Function compile flags: /Ogsp
; File c:\program files (x86)\microsoft visual studio 10.0\vc\include\xutility
;	COMDAT ??$_Val_type@PAVioHashString@@@std@@YAPAVioHashString@@PAV1@@Z
_TEXT	SEGMENT
___formal$ = 8						; size = 4
??$_Val_type@PAVioHashString@@@std@@YAPAVioHashString@@PAV1@@Z PROC ; std::_Val_type<ioHashString *>, COMDAT

; 790  : 	return (0);

  00000	33 c0		 xor	 eax, eax

; 791  : 	}

  00002	c3		 ret	 0
??$_Val_type@PAVioHashString@@@std@@YAPAVioHashString@@PAV1@@Z ENDP ; std::_Val_type<ioHashString *>
_TEXT	ENDS
PUBLIC	??$_Ptr_cat@V?$_Vector_const_iterator@V?$_Vector_val@UChangeMoveInfo@@V?$allocator@UChangeMoveInfo@@@std@@@std@@@std@@PAUChangeMoveInfo@@@std@@YA?AU_Nonscalar_ptr_iterator_tag@0@AAV?$_Vector_const_iterator@V?$_Vector_val@UChangeMoveInfo@@V?$allocator@UChangeMoveInfo@@@std@@@std@@@0@AAPAUChangeMoveInfo@@@Z ; std::_Ptr_cat<std::_Vector_const_iterator<std::_Vector_val<ChangeMoveInfo,std::allocator<ChangeMoveInfo> > >,ChangeMoveInfo *>
; Function compile flags: /Ogsp
;	COMDAT ??$_Ptr_cat@V?$_Vector_const_iterator@V?$_Vector_val@UChangeMoveInfo@@V?$allocator@UChangeMoveInfo@@@std@@@std@@@std@@PAUChangeMoveInfo@@@std@@YA?AU_Nonscalar_ptr_iterator_tag@0@AAV?$_Vector_const_iterator@V?$_Vector_val@UChangeMoveInfo@@V?$allocator@UChangeMoveInfo@@@std@@@std@@@0@AAPAUChangeMoveInfo@@@Z
_TEXT	SEGMENT
__Cat$ = -1						; size = 1
___formal$ = 8						; size = 4
___formal$ = 12						; size = 4
??$_Ptr_cat@V?$_Vector_const_iterator@V?$_Vector_val@UChangeMoveInfo@@V?$allocator@UChangeMoveInfo@@@std@@@std@@@std@@PAUChangeMoveInfo@@@std@@YA?AU_Nonscalar_ptr_iterator_tag@0@AAV?$_Vector_const_iterator@V?$_Vector_val@UChangeMoveInfo@@V?$allocator@UChangeMoveInfo@@@std@@@std@@@0@AAPAUChangeMoveInfo@@@Z PROC ; std::_Ptr_cat<std::_Vector_const_iterator<std::_Vector_val<ChangeMoveInfo,std::allocator<ChangeMoveInfo> > >,ChangeMoveInfo *>, COMDAT

; 485  : 	{	// return pointer category from arbitrary arguments

  00000	55		 push	 ebp
  00001	8b ec		 mov	 ebp, esp
  00003	51		 push	 ecx

; 486  : 	_Nonscalar_ptr_iterator_tag _Cat;
; 487  : 	return (_Cat);

  00004	8a 45 ff	 mov	 al, BYTE PTR __Cat$[ebp]

; 488  : 	}

  00007	c9		 leave
  00008	c3		 ret	 0
??$_Ptr_cat@V?$_Vector_const_iterator@V?$_Vector_val@UChangeMoveInfo@@V?$allocator@UChangeMoveInfo@@@std@@@std@@@std@@PAUChangeMoveInfo@@@std@@YA?AU_Nonscalar_ptr_iterator_tag@0@AAV?$_Vector_const_iterator@V?$_Vector_val@UChangeMoveInfo@@V?$allocator@UChangeMoveInfo@@@std@@@std@@@0@AAPAUChangeMoveInfo@@@Z ENDP ; std::_Ptr_cat<std::_Vector_const_iterator<std::_Vector_val<ChangeMoveInfo,std::allocator<ChangeMoveInfo> > >,ChangeMoveInfo *>
_TEXT	ENDS
PUBLIC	??$_Val_type@PAUChangeMoveInfo@@@std@@YAPAUChangeMoveInfo@@PAU1@@Z ; std::_Val_type<ChangeMoveInfo *>
; Function compile flags: /Ogsp
;	COMDAT ??$_Val_type@PAUChangeMoveInfo@@@std@@YAPAUChangeMoveInfo@@PAU1@@Z
_TEXT	SEGMENT
___formal$ = 8						; size = 4
??$_Val_type@PAUChangeMoveInfo@@@std@@YAPAUChangeMoveInfo@@PAU1@@Z PROC ; std::_Val_type<ChangeMoveInfo *>, COMDAT

; 790  : 	return (0);

  00000	33 c0		 xor	 eax, eax

; 791  : 	}

  00002	c3		 ret	 0
??$_Val_type@PAUChangeMoveInfo@@@std@@YAPAUChangeMoveInfo@@PAU1@@Z ENDP ; std::_Val_type<ChangeMoveInfo *>
_TEXT	ENDS
PUBLIC	??$move@AAUtagGenerateInfo@@@std@@YA$$QAUtagGenerateInfo@@AAU1@@Z ; std::move<tagGenerateInfo &>
; Function compile flags: /Ogsp
; File c:\program files (x86)\microsoft visual studio 10.0\vc\include\utility
;	COMDAT ??$move@AAUtagGenerateInfo@@@std@@YA$$QAUtagGenerateInfo@@AAU1@@Z
_TEXT	SEGMENT
__Arg$ = 8						; size = 4
??$move@AAUtagGenerateInfo@@@std@@YA$$QAUtagGenerateInfo@@AAU1@@Z PROC ; std::move<tagGenerateInfo &>, COMDAT

; 86   : 	{	// forward _Arg as movable

  00000	55		 push	 ebp
  00001	8b ec		 mov	 ebp, esp

; 87   : 	return ((typename tr1::_Remove_reference<_Ty>::_Type&&)_Arg);

  00003	8b 45 08	 mov	 eax, DWORD PTR __Arg$[ebp]

; 88   : 	}

  00006	5d		 pop	 ebp
  00007	c3		 ret	 0
??$move@AAUtagGenerateInfo@@@std@@YA$$QAUtagGenerateInfo@@AAU1@@Z ENDP ; std::move<tagGenerateInfo &>
_TEXT	ENDS
PUBLIC	??$move@AAUD3DXVECTOR3@@@std@@YA$$QAUD3DXVECTOR3@@AAU1@@Z ; std::move<D3DXVECTOR3 &>
; Function compile flags: /Ogsp
;	COMDAT ??$move@AAUD3DXVECTOR3@@@std@@YA$$QAUD3DXVECTOR3@@AAU1@@Z
_TEXT	SEGMENT
__Arg$ = 8						; size = 4
??$move@AAUD3DXVECTOR3@@@std@@YA$$QAUD3DXVECTOR3@@AAU1@@Z PROC ; std::move<D3DXVECTOR3 &>, COMDAT

; 86   : 	{	// forward _Arg as movable

  00000	55		 push	 ebp
  00001	8b ec		 mov	 ebp, esp

; 87   : 	return ((typename tr1::_Remove_reference<_Ty>::_Type&&)_Arg);

  00003	8b 45 08	 mov	 eax, DWORD PTR __Arg$[ebp]

; 88   : 	}

  00006	5d		 pop	 ebp
  00007	c3		 ret	 0
??$move@AAUD3DXVECTOR3@@@std@@YA$$QAUD3DXVECTOR3@@AAU1@@Z ENDP ; std::move<D3DXVECTOR3 &>
_TEXT	ENDS
PUBLIC	??$move@AAUChangeMoveInfo@@@std@@YA$$QAUChangeMoveInfo@@AAU1@@Z ; std::move<ChangeMoveInfo &>
; Function compile flags: /Ogsp
;	COMDAT ??$move@AAUChangeMoveInfo@@@std@@YA$$QAUChangeMoveInfo@@AAU1@@Z
_TEXT	SEGMENT
__Arg$ = 8						; size = 4
??$move@AAUChangeMoveInfo@@@std@@YA$$QAUChangeMoveInfo@@AAU1@@Z PROC ; std::move<ChangeMoveInfo &>, COMDAT

; 86   : 	{	// forward _Arg as movable

  00000	55		 push	 ebp
  00001	8b ec		 mov	 ebp, esp

; 87   : 	return ((typename tr1::_Remove_reference<_Ty>::_Type&&)_Arg);

  00003	8b 45 08	 mov	 eax, DWORD PTR __Arg$[ebp]

; 88   : 	}

  00006	5d		 pop	 ebp
  00007	c3		 ret	 0
??$move@AAUChangeMoveInfo@@@std@@YA$$QAUChangeMoveInfo@@AAU1@@Z ENDP ; std::move<ChangeMoveInfo &>
_TEXT	ENDS
PUBLIC	??$move@AAURefreshCollisionInfo@ioAreaWeapon@@@std@@YA$$QAURefreshCollisionInfo@ioAreaWeapon@@AAU12@@Z ; std::move<ioAreaWeapon::RefreshCollisionInfo &>
; Function compile flags: /Ogsp
;	COMDAT ??$move@AAURefreshCollisionInfo@ioAreaWeapon@@@std@@YA$$QAURefreshCollisionInfo@ioAreaWeapon@@AAU12@@Z
_TEXT	SEGMENT
__Arg$ = 8						; size = 4
??$move@AAURefreshCollisionInfo@ioAreaWeapon@@@std@@YA$$QAURefreshCollisionInfo@ioAreaWeapon@@AAU12@@Z PROC ; std::move<ioAreaWeapon::RefreshCollisionInfo &>, COMDAT

; 86   : 	{	// forward _Arg as movable

  00000	55		 push	 ebp
  00001	8b ec		 mov	 ebp, esp

; 87   : 	return ((typename tr1::_Remove_reference<_Ty>::_Type&&)_Arg);

  00003	8b 45 08	 mov	 eax, DWORD PTR __Arg$[ebp]

; 88   : 	}

  00006	5d		 pop	 ebp
  00007	c3		 ret	 0
??$move@AAURefreshCollisionInfo@ioAreaWeapon@@@std@@YA$$QAURefreshCollisionInfo@ioAreaWeapon@@AAU12@@Z ENDP ; std::move<ioAreaWeapon::RefreshCollisionInfo &>
_TEXT	ENDS
PUBLIC	??$_Val_type@PAUD3DXVECTOR3@@@std@@YAPAUD3DXVECTOR3@@PAU1@@Z ; std::_Val_type<D3DXVECTOR3 *>
; Function compile flags: /Ogsp
; File c:\program files (x86)\microsoft visual studio 10.0\vc\include\xutility
;	COMDAT ??$_Val_type@PAUD3DXVECTOR3@@@std@@YAPAUD3DXVECTOR3@@PAU1@@Z
_TEXT	SEGMENT
___formal$ = 8						; size = 4
??$_Val_type@PAUD3DXVECTOR3@@@std@@YAPAUD3DXVECTOR3@@PAU1@@Z PROC ; std::_Val_type<D3DXVECTOR3 *>, COMDAT

; 790  : 	return (0);

  00000	33 c0		 xor	 eax, eax

; 791  : 	}

  00002	c3		 ret	 0
??$_Val_type@PAUD3DXVECTOR3@@@std@@YAPAUD3DXVECTOR3@@PAU1@@Z ENDP ; std::_Val_type<D3DXVECTOR3 *>
_TEXT	ENDS
PUBLIC	??$_Val_type@PAPAVioBaseChar@@@std@@YAPAPAVioBaseChar@@PAPAV1@@Z ; std::_Val_type<ioBaseChar * *>
; Function compile flags: /Ogsp
;	COMDAT ??$_Val_type@PAPAVioBaseChar@@@std@@YAPAPAVioBaseChar@@PAPAV1@@Z
_TEXT	SEGMENT
___formal$ = 8						; size = 4
??$_Val_type@PAPAVioBaseChar@@@std@@YAPAPAVioBaseChar@@PAPAV1@@Z PROC ; std::_Val_type<ioBaseChar * *>, COMDAT

; 790  : 	return (0);

  00000	33 c0		 xor	 eax, eax

; 791  : 	}

  00002	c3		 ret	 0
??$_Val_type@PAPAVioBaseChar@@@std@@YAPAPAVioBaseChar@@PAPAV1@@Z ENDP ; std::_Val_type<ioBaseChar * *>
_TEXT	ENDS
PUBLIC	??$_Uninit_move@PAVioBaseChar@@PAV1@PAV1@@std@@YAPAPAVioBaseChar@@PAPAV1@00AAV?$allocator@PAVioBaseChar@@@0@0U_Scalar_ptr_iterator_tag@0@@Z ; std::_Uninit_move<ioBaseChar *,ioBaseChar *,ioBaseChar *>
; Function compile flags: /Ogsp
; File c:\program files (x86)\microsoft visual studio 10.0\vc\include\memory
;	COMDAT ??$_Uninit_move@PAVioBaseChar@@PAV1@PAV1@@std@@YAPAPAVioBaseChar@@PAPAV1@00AAV?$allocator@PAVioBaseChar@@@0@0U_Scalar_ptr_iterator_tag@0@@Z
_TEXT	SEGMENT
__First$ = 8						; size = 4
__Last$ = 12						; size = 4
__Dest$ = 16						; size = 4
___formal$ = 20						; size = 4
___formal$ = 24						; size = 4
___formal$ = 28						; size = 1
??$_Uninit_move@PAVioBaseChar@@PAV1@PAV1@@std@@YAPAPAVioBaseChar@@PAPAV1@00AAV?$allocator@PAVioBaseChar@@@0@0U_Scalar_ptr_iterator_tag@0@@Z PROC ; std::_Uninit_move<ioBaseChar *,ioBaseChar *,ioBaseChar *>, COMDAT

; 456  : 	{	// move [_First, _Last) to raw _Dest, scalar type

  00000	55		 push	 ebp
  00001	8b ec		 mov	 ebp, esp
  00003	56		 push	 esi

; 457  : 	_DEBUG_RANGE(_First, _Last);
; 458  : 	_DEBUG_POINTER(_Dest);
; 459  : 	size_t _Count = (size_t)(_Last - _First);

  00004	8b 75 0c	 mov	 esi, DWORD PTR __Last$[ebp]
  00007	2b 75 08	 sub	 esi, DWORD PTR __First$[ebp]
  0000a	c1 fe 02	 sar	 esi, 2

; 460  : 	return ((_Ty2 *)_CSTD memmove(&*_Dest, &*_First,
; 461  : 		_Count * sizeof (*_First)) + _Count);	// NB: non-overlapping move

  0000d	c1 e6 02	 shl	 esi, 2
  00010	56		 push	 esi
  00011	ff 75 08	 push	 DWORD PTR __First$[ebp]
  00014	ff 75 10	 push	 DWORD PTR __Dest$[ebp]
  00017	ff 15 00 00 00
	00		 call	 DWORD PTR __imp__memmove
  0001d	83 c4 0c	 add	 esp, 12			; 0000000cH
  00020	03 c6		 add	 eax, esi
  00022	5e		 pop	 esi

; 462  : 	}

  00023	5d		 pop	 ebp
  00024	c3		 ret	 0
??$_Uninit_move@PAVioBaseChar@@PAV1@PAV1@@std@@YAPAPAVioBaseChar@@PAPAV1@00AAV?$allocator@PAVioBaseChar@@@0@0U_Scalar_ptr_iterator_tag@0@@Z ENDP ; std::_Uninit_move<ioBaseChar *,ioBaseChar *,ioBaseChar *>
_TEXT	ENDS
PUBLIC	??$_Val_type@PAUtagGenerateInfo@@@std@@YAPAUtagGenerateInfo@@PAU1@@Z ; std::_Val_type<tagGenerateInfo *>
; Function compile flags: /Ogsp
; File c:\program files (x86)\microsoft visual studio 10.0\vc\include\xutility
;	COMDAT ??$_Val_type@PAUtagGenerateInfo@@@std@@YAPAUtagGenerateInfo@@PAU1@@Z
_TEXT	SEGMENT
___formal$ = 8						; size = 4
??$_Val_type@PAUtagGenerateInfo@@@std@@YAPAUtagGenerateInfo@@PAU1@@Z PROC ; std::_Val_type<tagGenerateInfo *>, COMDAT

; 790  : 	return (0);

  00000	33 c0		 xor	 eax, eax

; 791  : 	}

  00002	c3		 ret	 0
??$_Val_type@PAUtagGenerateInfo@@@std@@YAPAUtagGenerateInfo@@PAU1@@Z ENDP ; std::_Val_type<tagGenerateInfo *>
_TEXT	ENDS
PUBLIC	??$_Val_type@PAURefreshCollisionInfo@ioAreaWeapon@@@std@@YAPAURefreshCollisionInfo@ioAreaWeapon@@PAU12@@Z ; std::_Val_type<ioAreaWeapon::RefreshCollisionInfo *>
; Function compile flags: /Ogsp
;	COMDAT ??$_Val_type@PAURefreshCollisionInfo@ioAreaWeapon@@@std@@YAPAURefreshCollisionInfo@ioAreaWeapon@@PAU12@@Z
_TEXT	SEGMENT
___formal$ = 8						; size = 4
??$_Val_type@PAURefreshCollisionInfo@ioAreaWeapon@@@std@@YAPAURefreshCollisionInfo@ioAreaWeapon@@PAU12@@Z PROC ; std::_Val_type<ioAreaWeapon::RefreshCollisionInfo *>, COMDAT

; 790  : 	return (0);

  00000	33 c0		 xor	 eax, eax

; 791  : 	}

  00002	c3		 ret	 0
??$_Val_type@PAURefreshCollisionInfo@ioAreaWeapon@@@std@@YAPAURefreshCollisionInfo@ioAreaWeapon@@PAU12@@Z ENDP ; std::_Val_type<ioAreaWeapon::RefreshCollisionInfo *>
_TEXT	ENDS
PUBLIC	??$_Unchecked@PAUChangeMoveInfo@@@std@@YAPAUChangeMoveInfo@@PAU1@@Z ; std::_Unchecked<ChangeMoveInfo *>
; Function compile flags: /Ogsp
;	COMDAT ??$_Unchecked@PAUChangeMoveInfo@@@std@@YAPAUChangeMoveInfo@@PAU1@@Z
_TEXT	SEGMENT
__Src$ = 8						; size = 4
??$_Unchecked@PAUChangeMoveInfo@@@std@@YAPAUChangeMoveInfo@@PAU1@@Z PROC ; std::_Unchecked<ChangeMoveInfo *>, COMDAT

; 266  : 	{	// construct unchecked from checked, generic

  00000	55		 push	 ebp
  00001	8b ec		 mov	 ebp, esp

; 267  : 	return (_Src);

  00003	8b 45 08	 mov	 eax, DWORD PTR __Src$[ebp]

; 268  : 	}

  00006	5d		 pop	 ebp
  00007	c3		 ret	 0
??$_Unchecked@PAUChangeMoveInfo@@@std@@YAPAUChangeMoveInfo@@PAU1@@Z ENDP ; std::_Unchecked<ChangeMoveInfo *>
_TEXT	ENDS
PUBLIC	??$_Dist_type@PAUChangeMoveInfo@@@std@@YAPAHPAUChangeMoveInfo@@@Z ; std::_Dist_type<ChangeMoveInfo *>
; Function compile flags: /Ogsp
;	COMDAT ??$_Dist_type@PAUChangeMoveInfo@@@std@@YAPAHPAUChangeMoveInfo@@@Z
_TEXT	SEGMENT
___formal$ = 8						; size = 4
??$_Dist_type@PAUChangeMoveInfo@@@std@@YAPAHPAUChangeMoveInfo@@@Z PROC ; std::_Dist_type<ChangeMoveInfo *>, COMDAT

; 850  : 	return (0);

  00000	33 c0		 xor	 eax, eax

; 851  : 	}

  00002	c3		 ret	 0
??$_Dist_type@PAUChangeMoveInfo@@@std@@YAPAHPAUChangeMoveInfo@@@Z ENDP ; std::_Dist_type<ChangeMoveInfo *>
_TEXT	ENDS
PUBLIC	??$_Destroy@UD3DXVECTOR3@@@std@@YAXPAUD3DXVECTOR3@@@Z ; std::_Destroy<D3DXVECTOR3>
; Function compile flags: /Ogsp
; File c:\program files (x86)\microsoft visual studio 10.0\vc\include\xmemory
;	COMDAT ??$_Destroy@UD3DXVECTOR3@@@std@@YAXPAUD3DXVECTOR3@@@Z
_TEXT	SEGMENT
__Ptr$ = 8						; size = 4
??$_Destroy@UD3DXVECTOR3@@@std@@YAXPAUD3DXVECTOR3@@@Z PROC ; std::_Destroy<D3DXVECTOR3>, COMDAT

; 63   : 	_Ptr->~_Ty();
; 64   : 	}

  00000	c3		 ret	 0
??$_Destroy@UD3DXVECTOR3@@@std@@YAXPAUD3DXVECTOR3@@@Z ENDP ; std::_Destroy<D3DXVECTOR3>
_TEXT	ENDS
PUBLIC	??$_Destroy@UChangeMoveInfo@@@std@@YAXPAUChangeMoveInfo@@@Z ; std::_Destroy<ChangeMoveInfo>
; Function compile flags: /Ogsp
;	COMDAT ??$_Destroy@UChangeMoveInfo@@@std@@YAXPAUChangeMoveInfo@@@Z
_TEXT	SEGMENT
__Ptr$ = 8						; size = 4
??$_Destroy@UChangeMoveInfo@@@std@@YAXPAUChangeMoveInfo@@@Z PROC ; std::_Destroy<ChangeMoveInfo>, COMDAT

; 63   : 	_Ptr->~_Ty();
; 64   : 	}

  00000	c3		 ret	 0
??$_Destroy@UChangeMoveInfo@@@std@@YAXPAUChangeMoveInfo@@@Z ENDP ; std::_Destroy<ChangeMoveInfo>
_TEXT	ENDS
PUBLIC	??$_Destroy@UtagGenerateInfo@@@std@@YAXPAUtagGenerateInfo@@@Z ; std::_Destroy<tagGenerateInfo>
; Function compile flags: /Ogsp
;	COMDAT ??$_Destroy@UtagGenerateInfo@@@std@@YAXPAUtagGenerateInfo@@@Z
_TEXT	SEGMENT
__Ptr$ = 8						; size = 4
??$_Destroy@UtagGenerateInfo@@@std@@YAXPAUtagGenerateInfo@@@Z PROC ; std::_Destroy<tagGenerateInfo>, COMDAT

; 63   : 	_Ptr->~_Ty();
; 64   : 	}

  00000	c3		 ret	 0
??$_Destroy@UtagGenerateInfo@@@std@@YAXPAUtagGenerateInfo@@@Z ENDP ; std::_Destroy<tagGenerateInfo>
_TEXT	ENDS
PUBLIC	??_GRefreshCollisionInfo@ioAreaWeapon@@QAEPAXI@Z ; ioAreaWeapon::RefreshCollisionInfo::`scalar deleting destructor'
; Function compile flags: /Ogsp
;	COMDAT ??_GRefreshCollisionInfo@ioAreaWeapon@@QAEPAXI@Z
_TEXT	SEGMENT
___flags$ = 8						; size = 4
??_GRefreshCollisionInfo@ioAreaWeapon@@QAEPAXI@Z PROC	; ioAreaWeapon::RefreshCollisionInfo::`scalar deleting destructor', COMDAT
; _this$ = ecx
  00000	55		 push	 ebp
  00001	8b ec		 mov	 ebp, esp
  00003	56		 push	 esi
  00004	8b f1		 mov	 esi, ecx
  00006	ff 15 00 00 00
	00		 call	 DWORD PTR __imp_??1ioHashString@@QAE@XZ
  0000c	f6 45 08 01	 test	 BYTE PTR ___flags$[ebp], 1
  00010	74 07		 je	 SHORT $LN1@scalar@2
  00012	56		 push	 esi
  00013	e8 00 00 00 00	 call	 ??3@YAXPAX@Z		; operator delete
  00018	59		 pop	 ecx
$LN1@scalar@2:
  00019	8b c6		 mov	 eax, esi
  0001b	5e		 pop	 esi
  0001c	5d		 pop	 ebp
  0001d	c2 04 00	 ret	 4
??_GRefreshCollisionInfo@ioAreaWeapon@@QAEPAXI@Z ENDP	; ioAreaWeapon::RefreshCollisionInfo::`scalar deleting destructor'
_TEXT	ENDS
PUBLIC	??$forward@AAPAUChangeMoveInfo@@@std@@YAAAPAUChangeMoveInfo@@AAPAU1@@Z ; std::forward<ChangeMoveInfo * &>
; Function compile flags: /Ogsp
; File c:\program files (x86)\microsoft visual studio 10.0\vc\include\utility
;	COMDAT ??$forward@AAPAUChangeMoveInfo@@@std@@YAAAPAUChangeMoveInfo@@AAPAU1@@Z
_TEXT	SEGMENT
__Arg$ = 8						; size = 4
??$forward@AAPAUChangeMoveInfo@@@std@@YAAAPAUChangeMoveInfo@@AAPAU1@@Z PROC ; std::forward<ChangeMoveInfo * &>, COMDAT

; 78   : 	{	// forward _Arg, given explicitly specified type parameter

  00000	55		 push	 ebp
  00001	8b ec		 mov	 ebp, esp

; 79   : 	return ((_Ty&&)_Arg);

  00003	8b 45 08	 mov	 eax, DWORD PTR __Arg$[ebp]

; 80   : 	}

  00006	5d		 pop	 ebp
  00007	c3		 ret	 0
??$forward@AAPAUChangeMoveInfo@@@std@@YAAAPAUChangeMoveInfo@@AAPAU1@@Z ENDP ; std::forward<ChangeMoveInfo * &>
_TEXT	ENDS
PUBLIC	??$?0AAPAUChangeMoveInfo@@AAPAU0@@?$_Pair_base@PAUChangeMoveInfo@@PAU1@@std@@QAE@AAPAUChangeMoveInfo@@0@Z ; std::_Pair_base<ChangeMoveInfo *,ChangeMoveInfo *>::_Pair_base<ChangeMoveInfo *,ChangeMoveInfo *><ChangeMoveInfo * &,ChangeMoveInfo * &>
; Function compile flags: /Ogsp
;	COMDAT ??$?0AAPAUChangeMoveInfo@@AAPAU0@@?$_Pair_base@PAUChangeMoveInfo@@PAU1@@std@@QAE@AAPAUChangeMoveInfo@@0@Z
_TEXT	SEGMENT
__Val1$ = 8						; size = 4
__Val2$ = 12						; size = 4
??$?0AAPAUChangeMoveInfo@@AAPAU0@@?$_Pair_base@PAUChangeMoveInfo@@PAU1@@std@@QAE@AAPAUChangeMoveInfo@@0@Z PROC ; std::_Pair_base<ChangeMoveInfo *,ChangeMoveInfo *>::_Pair_base<ChangeMoveInfo *,ChangeMoveInfo *><ChangeMoveInfo * &,ChangeMoveInfo * &>, COMDAT
; _this$ = ecx

; 163  : 		{	// construct from moved values

  00000	55		 push	 ebp
  00001	8b ec		 mov	 ebp, esp
  00003	8b c1		 mov	 eax, ecx
  00005	8b 4d 08	 mov	 ecx, DWORD PTR __Val1$[ebp]
  00008	8b 09		 mov	 ecx, DWORD PTR [ecx]
  0000a	89 08		 mov	 DWORD PTR [eax], ecx
  0000c	8b 4d 0c	 mov	 ecx, DWORD PTR __Val2$[ebp]
  0000f	8b 09		 mov	 ecx, DWORD PTR [ecx]
  00011	89 48 04	 mov	 DWORD PTR [eax+4], ecx

; 164  : 		}

  00014	5d		 pop	 ebp
  00015	c2 08 00	 ret	 8
??$?0AAPAUChangeMoveInfo@@AAPAU0@@?$_Pair_base@PAUChangeMoveInfo@@PAU1@@std@@QAE@AAPAUChangeMoveInfo@@0@Z ENDP ; std::_Pair_base<ChangeMoveInfo *,ChangeMoveInfo *>::_Pair_base<ChangeMoveInfo *,ChangeMoveInfo *><ChangeMoveInfo * &,ChangeMoveInfo * &>
_TEXT	ENDS
PUBLIC	??$_Move@AAUChangeMoveInfo@@@std@@YA$$QAUChangeMoveInfo@@AAU1@@Z ; std::_Move<ChangeMoveInfo &>
; Function compile flags: /Ogsp
;	COMDAT ??$_Move@AAUChangeMoveInfo@@@std@@YA$$QAUChangeMoveInfo@@AAU1@@Z
_TEXT	SEGMENT
__Arg$ = 8						; size = 4
??$_Move@AAUChangeMoveInfo@@@std@@YA$$QAUChangeMoveInfo@@AAU1@@Z PROC ; std::_Move<ChangeMoveInfo &>, COMDAT

; 94   : 	{	// forward _Arg as movable

  00000	55		 push	 ebp
  00001	8b ec		 mov	 ebp, esp

; 95   : 	return ((typename tr1::_Remove_reference<_Ty>::_Type&&)_Arg);

  00003	8b 45 08	 mov	 eax, DWORD PTR __Arg$[ebp]

; 96   : 	}

  00006	5d		 pop	 ebp
  00007	c3		 ret	 0
??$_Move@AAUChangeMoveInfo@@@std@@YA$$QAUChangeMoveInfo@@AAU1@@Z ENDP ; std::_Move<ChangeMoveInfo &>
_TEXT	ENDS
PUBLIC	??$forward@UChangeMoveInfo@@@std@@YA$$QAUChangeMoveInfo@@AAU1@@Z ; std::forward<ChangeMoveInfo>
; Function compile flags: /Ogsp
;	COMDAT ??$forward@UChangeMoveInfo@@@std@@YA$$QAUChangeMoveInfo@@AAU1@@Z
_TEXT	SEGMENT
__Arg$ = 8						; size = 4
??$forward@UChangeMoveInfo@@@std@@YA$$QAUChangeMoveInfo@@AAU1@@Z PROC ; std::forward<ChangeMoveInfo>, COMDAT

; 78   : 	{	// forward _Arg, given explicitly specified type parameter

  00000	55		 push	 ebp
  00001	8b ec		 mov	 ebp, esp

; 79   : 	return ((_Ty&&)_Arg);

  00003	8b 45 08	 mov	 eax, DWORD PTR __Arg$[ebp]

; 80   : 	}

  00006	5d		 pop	 ebp
  00007	c3		 ret	 0
??$forward@UChangeMoveInfo@@@std@@YA$$QAUChangeMoveInfo@@AAU1@@Z ENDP ; std::forward<ChangeMoveInfo>
_TEXT	ENDS
PUBLIC	??$forward@UD3DXVECTOR3@@@std@@YA$$QAUD3DXVECTOR3@@AAU1@@Z ; std::forward<D3DXVECTOR3>
; Function compile flags: /Ogsp
;	COMDAT ??$forward@UD3DXVECTOR3@@@std@@YA$$QAUD3DXVECTOR3@@AAU1@@Z
_TEXT	SEGMENT
__Arg$ = 8						; size = 4
??$forward@UD3DXVECTOR3@@@std@@YA$$QAUD3DXVECTOR3@@AAU1@@Z PROC ; std::forward<D3DXVECTOR3>, COMDAT

; 78   : 	{	// forward _Arg, given explicitly specified type parameter

  00000	55		 push	 ebp
  00001	8b ec		 mov	 ebp, esp

; 79   : 	return ((_Ty&&)_Arg);

  00003	8b 45 08	 mov	 eax, DWORD PTR __Arg$[ebp]

; 80   : 	}

  00006	5d		 pop	 ebp
  00007	c3		 ret	 0
??$forward@UD3DXVECTOR3@@@std@@YA$$QAUD3DXVECTOR3@@AAU1@@Z ENDP ; std::forward<D3DXVECTOR3>
_TEXT	ENDS
PUBLIC	??$forward@UtagGenerateInfo@@@std@@YA$$QAUtagGenerateInfo@@AAU1@@Z ; std::forward<tagGenerateInfo>
; Function compile flags: /Ogsp
;	COMDAT ??$forward@UtagGenerateInfo@@@std@@YA$$QAUtagGenerateInfo@@AAU1@@Z
_TEXT	SEGMENT
__Arg$ = 8						; size = 4
??$forward@UtagGenerateInfo@@@std@@YA$$QAUtagGenerateInfo@@AAU1@@Z PROC ; std::forward<tagGenerateInfo>, COMDAT

; 78   : 	{	// forward _Arg, given explicitly specified type parameter

  00000	55		 push	 ebp
  00001	8b ec		 mov	 ebp, esp

; 79   : 	return ((_Ty&&)_Arg);

  00003	8b 45 08	 mov	 eax, DWORD PTR __Arg$[ebp]

; 80   : 	}

  00006	5d		 pop	 ebp
  00007	c3		 ret	 0
??$forward@UtagGenerateInfo@@@std@@YA$$QAUtagGenerateInfo@@AAU1@@Z ENDP ; std::forward<tagGenerateInfo>
_TEXT	ENDS
PUBLIC	??$forward@URefreshCollisionInfo@ioAreaWeapon@@@std@@YA$$QAURefreshCollisionInfo@ioAreaWeapon@@AAU12@@Z ; std::forward<ioAreaWeapon::RefreshCollisionInfo>
; Function compile flags: /Ogsp
;	COMDAT ??$forward@URefreshCollisionInfo@ioAreaWeapon@@@std@@YA$$QAURefreshCollisionInfo@ioAreaWeapon@@AAU12@@Z
_TEXT	SEGMENT
__Arg$ = 8						; size = 4
??$forward@URefreshCollisionInfo@ioAreaWeapon@@@std@@YA$$QAURefreshCollisionInfo@ioAreaWeapon@@AAU12@@Z PROC ; std::forward<ioAreaWeapon::RefreshCollisionInfo>, COMDAT

; 78   : 	{	// forward _Arg, given explicitly specified type parameter

  00000	55		 push	 ebp
  00001	8b ec		 mov	 ebp, esp

; 79   : 	return ((_Ty&&)_Arg);

  00003	8b 45 08	 mov	 eax, DWORD PTR __Arg$[ebp]

; 80   : 	}

  00006	5d		 pop	 ebp
  00007	c3		 ret	 0
??$forward@URefreshCollisionInfo@ioAreaWeapon@@@std@@YA$$QAURefreshCollisionInfo@ioAreaWeapon@@AAU12@@Z ENDP ; std::forward<ioAreaWeapon::RefreshCollisionInfo>
_TEXT	ENDS
PUBLIC	??$_Move_backward@PAUChangeMoveInfo@@PAU1@@std@@YAPAUChangeMoveInfo@@PAU1@00U_Nonscalar_ptr_iterator_tag@0@@Z ; std::_Move_backward<ChangeMoveInfo *,ChangeMoveInfo *>
; Function compile flags: /Ogsp
; File c:\program files (x86)\microsoft visual studio 10.0\vc\include\xutility
;	COMDAT ??$_Move_backward@PAUChangeMoveInfo@@PAU1@@std@@YAPAUChangeMoveInfo@@PAU1@00U_Nonscalar_ptr_iterator_tag@0@@Z
_TEXT	SEGMENT
__First$ = 8						; size = 4
__Last$ = 12						; size = 4
__Dest$ = 16						; size = 4
___formal$ = 20						; size = 1
??$_Move_backward@PAUChangeMoveInfo@@PAU1@@std@@YAPAUChangeMoveInfo@@PAU1@00U_Nonscalar_ptr_iterator_tag@0@@Z PROC ; std::_Move_backward<ChangeMoveInfo *,ChangeMoveInfo *>, COMDAT

; 2617 : 	{	// move [_First, _Last) backwards to [..., _Dest), arbitrary iterators

  00000	55		 push	 ebp
  00001	8b ec		 mov	 ebp, esp

; 2618 : 	while (_First != _Last)

  00003	8b 45 0c	 mov	 eax, DWORD PTR __Last$[ebp]
  00006	39 45 08	 cmp	 DWORD PTR __First$[ebp], eax
  00009	74 19		 je	 SHORT $LN9@Move_backw
  0000b	56		 push	 esi
  0000c	57		 push	 edi
$LL2@Move_backw:

; 2619 : 		*--_Dest = _STD move(*--_Last);

  0000d	83 6d 10 10	 sub	 DWORD PTR __Dest$[ebp], 16 ; 00000010H
  00011	8b 7d 10	 mov	 edi, DWORD PTR __Dest$[ebp]
  00014	83 e8 10	 sub	 eax, 16			; 00000010H
  00017	8b f0		 mov	 esi, eax
  00019	a5		 movsd
  0001a	a5		 movsd
  0001b	a5		 movsd
  0001c	a5		 movsd
  0001d	3b 45 08	 cmp	 eax, DWORD PTR __First$[ebp]
  00020	75 eb		 jne	 SHORT $LL2@Move_backw
  00022	5f		 pop	 edi
  00023	5e		 pop	 esi
$LN9@Move_backw:

; 2620 : 	return (_Dest);

  00024	8b 45 10	 mov	 eax, DWORD PTR __Dest$[ebp]

; 2621 : 	}

  00027	5d		 pop	 ebp
  00028	c3		 ret	 0
??$_Move_backward@PAUChangeMoveInfo@@PAU1@@std@@YAPAUChangeMoveInfo@@PAU1@00U_Nonscalar_ptr_iterator_tag@0@@Z ENDP ; std::_Move_backward<ChangeMoveInfo *,ChangeMoveInfo *>
_TEXT	ENDS
PUBLIC	?_DECSTR@@YAXPADH@Z				; _DECSTR
; Function compile flags: /Ogsp
; File d:\lost saga for developer\youtube\tutorial\source\src\lsclient\stringprotect.h
;	COMDAT ?_DECSTR@@YAXPADH@Z
_TEXT	SEGMENT
_s$ = 8							; size = 4
_l$ = 12						; size = 4
?_DECSTR@@YAXPADH@Z PROC				; _DECSTR, COMDAT

; 40   : __forceinline void _DECSTR(char* s, int l){int i=0,l4=(l-1)/4,*p=(int*)s;s[l-1]=0;for(;i<l4;++i)*(p++)^=0xEAEBECED;for(i=l4*4;i<l-1;++i)s[i]^=0xED-i%4;}

  00000	55		 push	 ebp
  00001	8b ec		 mov	 ebp, esp
  00003	8b 4d 0c	 mov	 ecx, DWORD PTR _l$[ebp]
  00006	56		 push	 esi
  00007	8b 75 08	 mov	 esi, DWORD PTR _s$[ebp]
  0000a	57		 push	 edi
  0000b	8d 79 ff	 lea	 edi, DWORD PTR [ecx-1]
  0000e	8b c7		 mov	 eax, edi
  00010	99		 cdq
  00011	83 e2 03	 and	 edx, 3
  00014	03 c2		 add	 eax, edx
  00016	c1 f8 02	 sar	 eax, 2
  00019	8b d6		 mov	 edx, esi
  0001b	c6 44 0e ff 00	 mov	 BYTE PTR [esi+ecx-1], 0
  00020	85 c0		 test	 eax, eax
  00022	7e 0e		 jle	 SHORT $LN4@DECSTR
  00024	8b c8		 mov	 ecx, eax
$LL6@DECSTR:
  00026	81 32 ed ec eb
	ea		 xor	 DWORD PTR [edx], -353637139 ; eaebecedH
  0002c	83 c2 04	 add	 edx, 4
  0002f	49		 dec	 ecx
  00030	75 f4		 jne	 SHORT $LL6@DECSTR
$LN4@DECSTR:
  00032	c1 e0 02	 shl	 eax, 2
  00035	eb 17		 jmp	 SHORT $LN14@DECSTR
$LL3@DECSTR:
  00037	8b c8		 mov	 ecx, eax
  00039	81 e1 03 00 00
	80		 and	 ecx, -2147483645	; 80000003H
  0003f	79 05		 jns	 SHORT $LN13@DECSTR
  00041	49		 dec	 ecx
  00042	83 c9 fc	 or	 ecx, -4			; fffffffcH
  00045	41		 inc	 ecx
$LN13@DECSTR:
  00046	b2 ed		 mov	 dl, -19			; ffffffedH
  00048	2a d1		 sub	 dl, cl
  0004a	30 14 30	 xor	 BYTE PTR [eax+esi], dl
  0004d	40		 inc	 eax
$LN14@DECSTR:
  0004e	3b c7		 cmp	 eax, edi
  00050	7c e5		 jl	 SHORT $LL3@DECSTR
  00052	5f		 pop	 edi
  00053	5e		 pop	 esi
  00054	5d		 pop	 ebp
  00055	c3		 ret	 0
?_DECSTR@@YAXPADH@Z ENDP				; _DECSTR
_TEXT	ENDS
PUBLIC	?return57@@YAIXZ				; return57
; Function compile flags: /Ogsp
; File d:\lost saga for developer\youtube\tutorial\source\src\lsclient\veryoftenusedefine.h
;	COMDAT ?return57@@YAIXZ
_TEXT	SEGMENT
?return57@@YAIXZ PROC					; return57, COMDAT

; 15   : __forceinline unsigned int return57() { __asm mov eax, 57 };

  00000	b8 39 00 00 00	 mov	 eax, 57			; 00000039H
  00005	c3		 ret	 0
?return57@@YAIXZ ENDP					; return57
_TEXT	ENDS
PUBLIC	?Init@WeaponInfo@@QAEXXZ			; WeaponInfo::Init
; Function compile flags: /Ogsp
; File d:\lost saga for developer\youtube\tutorial\source\src\lsclient\ioattackattribute.h
;	COMDAT ?Init@WeaponInfo@@QAEXXZ
_TEXT	SEGMENT
?Init@WeaponInfo@@QAEXXZ PROC				; WeaponInfo::Init, COMDAT
; _this$ = ecx

; 71   : 		m_iWeaponIdx = 0;

  00000	33 c0		 xor	 eax, eax
  00002	89 01		 mov	 DWORD PTR [ecx], eax

; 72   : 		m_iResistanceIdx = 0;

  00004	89 41 04	 mov	 DWORD PTR [ecx+4], eax

; 73   : 
; 74   : 		m_dwWoundedDuration = 0;

  00007	89 41 18	 mov	 DWORD PTR [ecx+24], eax

; 75   : 		m_dwCallTime = 0;

  0000a	89 41 1c	 mov	 DWORD PTR [ecx+28], eax

; 76   : 
; 77   : 		m_bWoundedLoopAni = false;

  0000d	88 41 20	 mov	 BYTE PTR [ecx+32], al

; 78   : 
; 79   : 		m_dwDuration = 0;

  00010	89 41 24	 mov	 DWORD PTR [ecx+36], eax

; 80   : 	}

  00013	c3		 ret	 0
?Init@WeaponInfo@@QAEXXZ ENDP				; WeaponInfo::Init
_TEXT	ENDS
PUBLIC	??1WeaponInfo@@QAE@XZ				; WeaponInfo::~WeaponInfo
; Function compile flags: /Ogsp
;	COMDAT ??1WeaponInfo@@QAE@XZ
_TEXT	SEGMENT
??1WeaponInfo@@QAE@XZ PROC				; WeaponInfo::~WeaponInfo, COMDAT
; _this$ = ecx
  00000	83 c1 08	 add	 ecx, 8
  00003	ff 25 00 00 00
	00		 jmp	 DWORD PTR __imp_??1ioHashString@@QAE@XZ
