; Listing generated by Microsoft (R) Optimizing Compiler Version 16.00.30319.01 

	TITLE	D:\Lost Saga For Developer\Youtube\Tutorial\Source\src\LSClient\ioAreaEffectWeapon.cpp
	.686P
	.XMM
	include listing.inc
	.model	flat

INCLUDELIB MSVCRT
INCLUDELIB OLDNAMES

PUBLIC	?_EEM_DS@?$deque@UD3DXVECTOR3@@V?$allocator@UD3DXVECTOR3@@@std@@@std@@2HB ; std::deque<D3DXVECTOR3,std::allocator<D3DXVECTOR3> >::_EEM_DS
PUBLIC	?m_ActionStopType@ioAreaEffectWeapon@@2W4ActionStopType@@A ; ioAreaEffectWeapon::m_ActionStopType
PUBLIC	?m_DieActionStopType@ioAreaEffectWeapon@@2W4ActionStopType@@A ; ioAreaEffectWeapon::m_DieActionStopType
_BSS	SEGMENT
?m_ActionStopType@ioAreaEffectWeapon@@2W4ActionStopType@@A DD 01H DUP (?) ; ioAreaEffectWeapon::m_ActionStopType
?m_DieActionStopType@ioAreaEffectWeapon@@2W4ActionStopType@@A DD 01H DUP (?) ; ioAreaEffectWeapon::m_DieActionStopType
_BSS	ENDS
;	COMDAT ?_EEM_DS@?$deque@UD3DXVECTOR3@@V?$allocator@UD3DXVECTOR3@@@std@@@std@@2HB
CONST	SEGMENT
?_EEM_DS@?$deque@UD3DXVECTOR3@@V?$allocator@UD3DXVECTOR3@@@std@@@std@@2HB DD 01H ; std::deque<D3DXVECTOR3,std::allocator<D3DXVECTOR3> >::_EEM_DS
CONST	ENDS
PUBLIC	??0stWantCheckList@ioAreaEffectWeapon@@QAE@XZ	; ioAreaEffectWeapon::stWantCheckList::stWantCheckList
EXTRN	__imp_??0ioHashString@@QAE@XZ:PROC
; Function compile flags: /Ogsp
; File d:\lost saga for developer\youtube\tutorial\source\src\lsclient\ioareaeffectweapon.h
;	COMDAT ??0stWantCheckList@ioAreaEffectWeapon@@QAE@XZ
_TEXT	SEGMENT
??0stWantCheckList@ioAreaEffectWeapon@@QAE@XZ PROC	; ioAreaEffectWeapon::stWantCheckList::stWantCheckList, COMDAT
; _this$ = ecx

; 16   : 		stWantCheckList()

  00000	56		 push	 esi
  00001	8b f1		 mov	 esi, ecx
  00003	ff 15 00 00 00
	00		 call	 DWORD PTR __imp_??0ioHashString@@QAE@XZ

; 17   : 		{
; 18   : 			m_bTested = false;

  00009	c6 46 10 00	 mov	 BYTE PTR [esi+16], 0

; 19   : 		}

  0000d	8b c6		 mov	 eax, esi
  0000f	5e		 pop	 esi
  00010	c3		 ret	 0
??0stWantCheckList@ioAreaEffectWeapon@@QAE@XZ ENDP	; ioAreaEffectWeapon::stWantCheckList::stWantCheckList
_TEXT	ENDS
PUBLIC	?return1@@YAIXZ					; return1
; Function compile flags: /Ogsp
; File d:\lost saga for developer\youtube\tutorial\source\src\lsclient\stdafx.h
;	COMDAT ?return1@@YAIXZ
_TEXT	SEGMENT
?return1@@YAIXZ PROC					; return1, COMDAT

; 17   : 	__forceinline unsigned int return1() { __asm mov eax, 1 };

  00000	b8 01 00 00 00	 mov	 eax, 1
  00005	c3		 ret	 0
?return1@@YAIXZ ENDP					; return1
_TEXT	ENDS
PUBLIC	?return5@@YAIXZ					; return5
; Function compile flags: /Ogsp
;	COMDAT ?return5@@YAIXZ
_TEXT	SEGMENT
?return5@@YAIXZ PROC					; return5, COMDAT

; 18   : 	__forceinline unsigned int return5() { __asm mov eax, 5 };

  00000	b8 05 00 00 00	 mov	 eax, 5
  00005	c3		 ret	 0
?return5@@YAIXZ ENDP					; return5
_TEXT	ENDS
PUBLIC	?return10@@YAIXZ				; return10
; Function compile flags: /Ogsp
;	COMDAT ?return10@@YAIXZ
_TEXT	SEGMENT
?return10@@YAIXZ PROC					; return10, COMDAT

; 21   : 	__forceinline unsigned int return10() { __asm mov eax, 10 };

  00000	b8 0a 00 00 00	 mov	 eax, 10			; 0000000aH
  00005	c3		 ret	 0
?return10@@YAIXZ ENDP					; return10
_TEXT	ENDS
PUBLIC	?return360@@YAIXZ				; return360
; Function compile flags: /Ogsp
;	COMDAT ?return360@@YAIXZ
_TEXT	SEGMENT
?return360@@YAIXZ PROC					; return360, COMDAT

; 27   : 	__forceinline unsigned int return360() { __asm mov eax, 360 };

  00000	b8 68 01 00 00	 mov	 eax, 360		; 00000168H
  00005	c3		 ret	 0
?return360@@YAIXZ ENDP					; return360
_TEXT	ENDS
PUBLIC	?GetCharName@ioBaseChar@@QBEABVioHashString@@XZ	; ioBaseChar::GetCharName
; Function compile flags: /Ogsp
; File d:\lost saga for developer\youtube\tutorial\source\src\lsclient\iobasechar.h
;	COMDAT ?GetCharName@ioBaseChar@@QBEABVioHashString@@XZ
_TEXT	SEGMENT
?GetCharName@ioBaseChar@@QBEABVioHashString@@XZ PROC	; ioBaseChar::GetCharName, COMDAT
; _this$ = ecx

; 2594 : 	inline const ioHashString& GetCharName() const { return m_Name; }

  00000	8d 81 d4 02 00
	00		 lea	 eax, DWORD PTR [ecx+724]
  00006	c3		 ret	 0
?GetCharName@ioBaseChar@@QBEABVioHashString@@XZ ENDP	; ioBaseChar::GetCharName
_TEXT	ENDS
PUBLIC	_cosf
EXTRN	__fltused:DWORD
EXTRN	__CIcos:PROC
; Function compile flags: /Ogsp
; File c:\program files (x86)\microsoft visual studio 10.0\vc\include\math.h
;	COMDAT _cosf
_TEXT	SEGMENT
tv69 = 8						; size = 4
__X$ = 8						; size = 4
_cosf	PROC						; COMDAT

; 410  :         {return ((float)cos((double)_X)); }

  00000	55		 push	 ebp
  00001	8b ec		 mov	 ebp, esp
  00003	d9 45 08	 fld	 DWORD PTR __X$[ebp]
  00006	e8 00 00 00 00	 call	 __CIcos
  0000b	d9 5d 08	 fstp	 DWORD PTR tv69[ebp]
  0000e	d9 45 08	 fld	 DWORD PTR tv69[ebp]
  00011	5d		 pop	 ebp
  00012	c3		 ret	 0
_cosf	ENDP
_TEXT	ENDS
PUBLIC	??_7bad_alloc@std@@6B@				; std::bad_alloc::`vftable'
PUBLIC	??0bad_alloc@std@@QAE@PBD@Z			; std::bad_alloc::bad_alloc
PUBLIC	??_R4bad_alloc@std@@6B@				; std::bad_alloc::`RTTI Complete Object Locator'
PUBLIC	??_R0?AVbad_alloc@std@@@8			; std::bad_alloc `RTTI Type Descriptor'
PUBLIC	??_R3bad_alloc@std@@8				; std::bad_alloc::`RTTI Class Hierarchy Descriptor'
PUBLIC	??_R2bad_alloc@std@@8				; std::bad_alloc::`RTTI Base Class Array'
PUBLIC	??_R1A@?0A@EA@bad_alloc@std@@8			; std::bad_alloc::`RTTI Base Class Descriptor at (0,-1,0,64)'
PUBLIC	??_R1A@?0A@EA@exception@std@@8			; std::exception::`RTTI Base Class Descriptor at (0,-1,0,64)'
PUBLIC	??_R0?AVexception@std@@@8			; std::exception `RTTI Type Descriptor'
PUBLIC	??_R3exception@std@@8				; std::exception::`RTTI Class Hierarchy Descriptor'
PUBLIC	??_R2exception@std@@8				; std::exception::`RTTI Base Class Array'
EXTRN	__imp_??0exception@std@@QAE@ABQBD@Z:PROC
EXTRN	??_7type_info@@6B@:QWORD			; type_info::`vftable'
EXTRN	??_Ebad_alloc@std@@UAEPAXI@Z:PROC		; std::bad_alloc::`vector deleting destructor'
EXTRN	?what@exception@std@@UBEPBDXZ:PROC		; std::exception::what
;	COMDAT ??_R2exception@std@@8
; File c:\program files (x86)\microsoft visual studio 10.0\vc\include\exception
rdata$r	SEGMENT
??_R2exception@std@@8 DD FLAT:??_R1A@?0A@EA@exception@std@@8 ; std::exception::`RTTI Base Class Array'
rdata$r	ENDS
;	COMDAT ??_R3exception@std@@8
rdata$r	SEGMENT
??_R3exception@std@@8 DD 00H				; std::exception::`RTTI Class Hierarchy Descriptor'
	DD	00H
	DD	01H
	DD	FLAT:??_R2exception@std@@8
rdata$r	ENDS
;	COMDAT ??_R0?AVexception@std@@@8
_DATA	SEGMENT
??_R0?AVexception@std@@@8 DD FLAT:??_7type_info@@6B@	; std::exception `RTTI Type Descriptor'
	DD	00H
	DB	'.?AVexception@std@@', 00H
_DATA	ENDS
;	COMDAT ??_R1A@?0A@EA@exception@std@@8
rdata$r	SEGMENT
??_R1A@?0A@EA@exception@std@@8 DD FLAT:??_R0?AVexception@std@@@8 ; std::exception::`RTTI Base Class Descriptor at (0,-1,0,64)'
	DD	00H
	DD	00H
	DD	0ffffffffH
	DD	00H
	DD	040H
	DD	FLAT:??_R3exception@std@@8
rdata$r	ENDS
;	COMDAT ??_R1A@?0A@EA@bad_alloc@std@@8
rdata$r	SEGMENT
??_R1A@?0A@EA@bad_alloc@std@@8 DD FLAT:??_R0?AVbad_alloc@std@@@8 ; std::bad_alloc::`RTTI Base Class Descriptor at (0,-1,0,64)'
	DD	01H
	DD	00H
	DD	0ffffffffH
	DD	00H
	DD	040H
	DD	FLAT:??_R3bad_alloc@std@@8
rdata$r	ENDS
;	COMDAT ??_R2bad_alloc@std@@8
rdata$r	SEGMENT
??_R2bad_alloc@std@@8 DD FLAT:??_R1A@?0A@EA@bad_alloc@std@@8 ; std::bad_alloc::`RTTI Base Class Array'
	DD	FLAT:??_R1A@?0A@EA@exception@std@@8
rdata$r	ENDS
;	COMDAT ??_R3bad_alloc@std@@8
rdata$r	SEGMENT
??_R3bad_alloc@std@@8 DD 00H				; std::bad_alloc::`RTTI Class Hierarchy Descriptor'
	DD	00H
	DD	02H
	DD	FLAT:??_R2bad_alloc@std@@8
rdata$r	ENDS
;	COMDAT ??_R0?AVbad_alloc@std@@@8
_DATA	SEGMENT
??_R0?AVbad_alloc@std@@@8 DD FLAT:??_7type_info@@6B@	; std::bad_alloc `RTTI Type Descriptor'
	DD	00H
	DB	'.?AVbad_alloc@std@@', 00H
_DATA	ENDS
;	COMDAT ??_R4bad_alloc@std@@6B@
rdata$r	SEGMENT
??_R4bad_alloc@std@@6B@ DD 00H				; std::bad_alloc::`RTTI Complete Object Locator'
	DD	00H
	DD	00H
	DD	FLAT:??_R0?AVbad_alloc@std@@@8
	DD	FLAT:??_R3bad_alloc@std@@8
rdata$r	ENDS
;	COMDAT ??_7bad_alloc@std@@6B@
CONST	SEGMENT
??_7bad_alloc@std@@6B@ DD FLAT:??_R4bad_alloc@std@@6B@	; std::bad_alloc::`vftable'
	DD	FLAT:??_Ebad_alloc@std@@UAEPAXI@Z
	DD	FLAT:?what@exception@std@@UBEPBDXZ
; Function compile flags: /Ogsp
CONST	ENDS
;	COMDAT ??0bad_alloc@std@@QAE@PBD@Z
_TEXT	SEGMENT
__Message$ = 8						; size = 4
??0bad_alloc@std@@QAE@PBD@Z PROC			; std::bad_alloc::bad_alloc, COMDAT
; _this$ = ecx

; 345  : 		{	// construct from message string

  00000	55		 push	 ebp
  00001	8b ec		 mov	 ebp, esp
  00003	56		 push	 esi
  00004	8d 45 08	 lea	 eax, DWORD PTR __Message$[ebp]
  00007	50		 push	 eax
  00008	8b f1		 mov	 esi, ecx
  0000a	ff 15 00 00 00
	00		 call	 DWORD PTR __imp_??0exception@std@@QAE@ABQBD@Z
  00010	c7 06 00 00 00
	00		 mov	 DWORD PTR [esi], OFFSET ??_7bad_alloc@std@@6B@

; 346  : 		}

  00016	8b c6		 mov	 eax, esi
  00018	5e		 pop	 esi
  00019	5d		 pop	 ebp
  0001a	c2 04 00	 ret	 4
??0bad_alloc@std@@QAE@PBD@Z ENDP			; std::bad_alloc::bad_alloc
_TEXT	ENDS
PUBLIC	??1bad_alloc@std@@UAE@XZ			; std::bad_alloc::~bad_alloc
EXTRN	__imp_??1exception@std@@UAE@XZ:PROC
; Function compile flags: /Ogsp
;	COMDAT ??1bad_alloc@std@@UAE@XZ
_TEXT	SEGMENT
??1bad_alloc@std@@UAE@XZ PROC				; std::bad_alloc::~bad_alloc, COMDAT
; _this$ = ecx

; 354  : 		{	// destroy the object

  00000	c7 01 00 00 00
	00		 mov	 DWORD PTR [ecx], OFFSET ??_7bad_alloc@std@@6B@

; 355  : 		}

  00006	ff 25 00 00 00
	00		 jmp	 DWORD PTR __imp_??1exception@std@@UAE@XZ
??1bad_alloc@std@@UAE@XZ ENDP				; std::bad_alloc::~bad_alloc
_TEXT	ENDS
EXTRN	??3@YAXPAX@Z:PROC				; operator delete
; Function compile flags: /Ogsp
;	COMDAT ??_Gbad_alloc@std@@UAEPAXI@Z
_TEXT	SEGMENT
___flags$ = 8						; size = 4
??_Gbad_alloc@std@@UAEPAXI@Z PROC			; std::bad_alloc::`scalar deleting destructor', COMDAT
; _this$ = ecx
  00000	55		 push	 ebp
  00001	8b ec		 mov	 ebp, esp
  00003	56		 push	 esi
  00004	8b f1		 mov	 esi, ecx
  00006	c7 06 00 00 00
	00		 mov	 DWORD PTR [esi], OFFSET ??_7bad_alloc@std@@6B@
  0000c	ff 15 00 00 00
	00		 call	 DWORD PTR __imp_??1exception@std@@UAE@XZ
  00012	f6 45 08 01	 test	 BYTE PTR ___flags$[ebp], 1
  00016	74 07		 je	 SHORT $LN1@scalar
  00018	56		 push	 esi
  00019	e8 00 00 00 00	 call	 ??3@YAXPAX@Z		; operator delete
  0001e	59		 pop	 ecx
$LN1@scalar:
  0001f	8b c6		 mov	 eax, esi
  00021	5e		 pop	 esi
  00022	5d		 pop	 ebp
  00023	c2 04 00	 ret	 4
??_Gbad_alloc@std@@UAEPAXI@Z ENDP			; std::bad_alloc::`scalar deleting destructor'
_TEXT	ENDS
PUBLIC	??2@YAPAXIPAX@Z					; operator new
; Function compile flags: /Ogsp
; File c:\program files (x86)\microsoft visual studio 10.0\vc\include\new
;	COMDAT ??2@YAPAXIPAX@Z
_TEXT	SEGMENT
___formal$ = 8						; size = 4
__Where$ = 12						; size = 4
??2@YAPAXIPAX@Z PROC					; operator new, COMDAT

; 56   : 	{	// construct array with placement at _Where

  00000	55		 push	 ebp
  00001	8b ec		 mov	 ebp, esp

; 57   : 	return (_Where);

  00003	8b 45 0c	 mov	 eax, DWORD PTR __Where$[ebp]

; 58   : 	}

  00006	5d		 pop	 ebp
  00007	c3		 ret	 0
??2@YAPAXIPAX@Z ENDP					; operator new
_TEXT	ENDS
PUBLIC	??3@YAXPAX0@Z					; operator delete
; Function compile flags: /Ogsp
;	COMDAT ??3@YAXPAX0@Z
_TEXT	SEGMENT
___formal$ = 8						; size = 4
___formal$ = 12						; size = 4
??3@YAXPAX0@Z PROC					; operator delete, COMDAT

; 62   : 	}

  00000	c3		 ret	 0
??3@YAXPAX0@Z ENDP					; operator delete
_TEXT	ENDS
PUBLIC	?SetStartPosition@ioAreaEffectWeapon@@UAEXABUD3DXVECTOR3@@PAVioPlayStage@@@Z ; ioAreaEffectWeapon::SetStartPosition
EXTRN	?SetPosition@ioWeapon@@QAEXABUD3DXVECTOR3@@@Z:PROC ; ioWeapon::SetPosition
; Function compile flags: /Ogsp
; File d:\lost saga for developer\youtube\tutorial\source\src\lsclient\ioareaeffectweapon.cpp
;	COMDAT ?SetStartPosition@ioAreaEffectWeapon@@UAEXABUD3DXVECTOR3@@PAVioPlayStage@@@Z
_TEXT	SEGMENT
_vPos$ = 8						; size = 4
_pStage$ = 12						; size = 4
?SetStartPosition@ioAreaEffectWeapon@@UAEXABUD3DXVECTOR3@@PAVioPlayStage@@@Z PROC ; ioAreaEffectWeapon::SetStartPosition, COMDAT
; _this$ = ecx

; 64   : {

  00000	55		 push	 ebp
  00001	8b ec		 mov	 ebp, esp

; 65   : 	SetPosition( vPos );

  00003	ff 75 08	 push	 DWORD PTR _vPos$[ebp]
  00006	e8 00 00 00 00	 call	 ?SetPosition@ioWeapon@@QAEXABUD3DXVECTOR3@@@Z ; ioWeapon::SetPosition

; 66   : }

  0000b	5d		 pop	 ebp
  0000c	c2 08 00	 ret	 8
?SetStartPosition@ioAreaEffectWeapon@@UAEXABUD3DXVECTOR3@@PAVioPlayStage@@@Z ENDP ; ioAreaEffectWeapon::SetStartPosition
_TEXT	ENDS
PUBLIC	?SetCollisionDir@ioAreaEffectWeapon@@QAEXAAUD3DXVECTOR3@@@Z ; ioAreaEffectWeapon::SetCollisionDir
; Function compile flags: /Ogsp
;	COMDAT ?SetCollisionDir@ioAreaEffectWeapon@@QAEXAAUD3DXVECTOR3@@@Z
_TEXT	SEGMENT
_vDir$ = 8						; size = 4
?SetCollisionDir@ioAreaEffectWeapon@@QAEXAAUD3DXVECTOR3@@@Z PROC ; ioAreaEffectWeapon::SetCollisionDir, COMDAT
; _this$ = ecx

; 69   : {

  00000	55		 push	 ebp
  00001	8b ec		 mov	 ebp, esp
  00003	56		 push	 esi

; 70   : 	m_vCollisionDir = vDir;

  00004	8b 75 08	 mov	 esi, DWORD PTR _vDir$[ebp]
  00007	57		 push	 edi
  00008	8d b9 dc 09 00
	00		 lea	 edi, DWORD PTR [ecx+2524]
  0000e	a5		 movsd
  0000f	a5		 movsd
  00010	a5		 movsd
  00011	5f		 pop	 edi
  00012	5e		 pop	 esi

; 71   : }

  00013	5d		 pop	 ebp
  00014	c2 04 00	 ret	 4
?SetCollisionDir@ioAreaEffectWeapon@@QAEXAAUD3DXVECTOR3@@@Z ENDP ; ioAreaEffectWeapon::SetCollisionDir
_TEXT	ENDS
PUBLIC	?GetAttackDir@ioAreaEffectWeapon@@UBE?AUD3DXVECTOR3@@PBVioPlayEntity@@@Z ; ioAreaEffectWeapon::GetAttackDir
; Function compile flags: /Ogsp
;	COMDAT ?GetAttackDir@ioAreaEffectWeapon@@UBE?AUD3DXVECTOR3@@PBVioPlayEntity@@@Z
_TEXT	SEGMENT
___$ReturnUdt$ = 8					; size = 4
_pEntity$ = 12						; size = 4
?GetAttackDir@ioAreaEffectWeapon@@UBE?AUD3DXVECTOR3@@PBVioPlayEntity@@@Z PROC ; ioAreaEffectWeapon::GetAttackDir, COMDAT
; _this$ = ecx

; 74   : {

  00000	55		 push	 ebp
  00001	8b ec		 mov	 ebp, esp

; 75   : 	return m_vCollisionDir;

  00003	8b 45 08	 mov	 eax, DWORD PTR ___$ReturnUdt$[ebp]
  00006	56		 push	 esi
  00007	57		 push	 edi
  00008	8d b1 dc 09 00
	00		 lea	 esi, DWORD PTR [ecx+2524]
  0000e	8b f8		 mov	 edi, eax
  00010	a5		 movsd
  00011	a5		 movsd
  00012	a5		 movsd
  00013	5f		 pop	 edi
  00014	5e		 pop	 esi

; 76   : }

  00015	5d		 pop	 ebp
  00016	c2 08 00	 ret	 8
?GetAttackDir@ioAreaEffectWeapon@@UBE?AUD3DXVECTOR3@@PBVioPlayEntity@@@Z ENDP ; ioAreaEffectWeapon::GetAttackDir
_TEXT	ENDS
PUBLIC	?SetCollisionWoundType@ioAreaEffectWeapon@@QAEXHH@Z ; ioAreaEffectWeapon::SetCollisionWoundType
; Function compile flags: /Ogsp
;	COMDAT ?SetCollisionWoundType@ioAreaEffectWeapon@@QAEXHH@Z
_TEXT	SEGMENT
_iColType$ = 8						; size = 4
_iWoundType$ = 12					; size = 4
?SetCollisionWoundType@ioAreaEffectWeapon@@QAEXHH@Z PROC ; ioAreaEffectWeapon::SetCollisionWoundType, COMDAT
; _this$ = ecx

; 79   : {

  00000	55		 push	 ebp
  00001	8b ec		 mov	 ebp, esp

; 80   : 	m_TargetColType = (TargetColType)iColType;

  00003	8b 45 08	 mov	 eax, DWORD PTR _iColType$[ebp]
  00006	89 81 a4 08 00
	00		 mov	 DWORD PTR [ecx+2212], eax

; 81   : 	m_TargetWoundType = (TargetWoundType)iWoundType;

  0000c	8b 45 0c	 mov	 eax, DWORD PTR _iWoundType$[ebp]
  0000f	89 81 a8 08 00
	00		 mov	 DWORD PTR [ecx+2216], eax

; 82   : }

  00015	5d		 pop	 ebp
  00016	c2 08 00	 ret	 8
?SetCollisionWoundType@ioAreaEffectWeapon@@QAEXHH@Z ENDP ; ioAreaEffectWeapon::SetCollisionWoundType
_TEXT	ENDS
PUBLIC	?UpdatePosition@ioAreaEffectWeapon@@QAEXABUD3DXVECTOR3@@@Z ; ioAreaEffectWeapon::UpdatePosition
; Function compile flags: /Ogsp
;	COMDAT ?UpdatePosition@ioAreaEffectWeapon@@QAEXABUD3DXVECTOR3@@@Z
_TEXT	SEGMENT
_vPos$ = 8						; size = 4
?UpdatePosition@ioAreaEffectWeapon@@QAEXABUD3DXVECTOR3@@@Z PROC ; ioAreaEffectWeapon::UpdatePosition, COMDAT
; _this$ = ecx

; 85   : {

  00000	55		 push	 ebp
  00001	8b ec		 mov	 ebp, esp

; 87   : }

  00003	5d		 pop	 ebp

; 86   : 	SetPosition( vPos );

  00004	e9 00 00 00 00	 jmp	 ?SetPosition@ioWeapon@@QAEXABUD3DXVECTOR3@@@Z ; ioWeapon::SetPosition
?UpdatePosition@ioAreaEffectWeapon@@QAEXABUD3DXVECTOR3@@@Z ENDP ; ioAreaEffectWeapon::UpdatePosition
_TEXT	ENDS
PUBLIC	??1stWantCheckList@ioAreaEffectWeapon@@QAE@XZ	; ioAreaEffectWeapon::stWantCheckList::~stWantCheckList
EXTRN	__imp_??1ioHashString@@QAE@XZ:PROC
; Function compile flags: /Ogsp
;	COMDAT ??1stWantCheckList@ioAreaEffectWeapon@@QAE@XZ
_TEXT	SEGMENT
??1stWantCheckList@ioAreaEffectWeapon@@QAE@XZ PROC	; ioAreaEffectWeapon::stWantCheckList::~stWantCheckList, COMDAT
; _this$ = ecx
  00000	ff 25 00 00 00
	00		 jmp	 DWORD PTR __imp_??1ioHashString@@QAE@XZ
??1stWantCheckList@ioAreaEffectWeapon@@QAE@XZ ENDP	; ioAreaEffectWeapon::stWantCheckList::~stWantCheckList
_TEXT	ENDS
PUBLIC	?GetType@ioAreaEffectWeapon@@UBE?AW4WeaponType@ioWeapon@@XZ ; ioAreaEffectWeapon::GetType
; Function compile flags: /Ogsp
;	COMDAT ?GetType@ioAreaEffectWeapon@@UBE?AW4WeaponType@ioWeapon@@XZ
_TEXT	SEGMENT
?GetType@ioAreaEffectWeapon@@UBE?AW4WeaponType@ioWeapon@@XZ PROC ; ioAreaEffectWeapon::GetType, COMDAT
; _this$ = ecx

; 127  : 	return WT_AREA_EFFECT;

  00000	6a 1a		 push	 26			; 0000001aH
  00002	58		 pop	 eax

; 128  : }

  00003	c3		 ret	 0
?GetType@ioAreaEffectWeapon@@UBE?AW4WeaponType@ioWeapon@@XZ ENDP ; ioAreaEffectWeapon::GetType
_TEXT	ENDS
PUBLIC	?GetActionStopType@ioAreaEffectWeapon@@UBE?AW4ActionStopType@@XZ ; ioAreaEffectWeapon::GetActionStopType
; Function compile flags: /Ogsp
;	COMDAT ?GetActionStopType@ioAreaEffectWeapon@@UBE?AW4ActionStopType@@XZ
_TEXT	SEGMENT
?GetActionStopType@ioAreaEffectWeapon@@UBE?AW4ActionStopType@@XZ PROC ; ioAreaEffectWeapon::GetActionStopType, COMDAT
; _this$ = ecx

; 132  : 	return m_ActionStopType;

  00000	a1 00 00 00 00	 mov	 eax, DWORD PTR ?m_ActionStopType@ioAreaEffectWeapon@@2W4ActionStopType@@A ; ioAreaEffectWeapon::m_ActionStopType

; 133  : }

  00005	c3		 ret	 0
?GetActionStopType@ioAreaEffectWeapon@@UBE?AW4ActionStopType@@XZ ENDP ; ioAreaEffectWeapon::GetActionStopType
_TEXT	ENDS
PUBLIC	?GetDieActionStopType@ioAreaEffectWeapon@@UBE?AW4ActionStopType@@XZ ; ioAreaEffectWeapon::GetDieActionStopType
; Function compile flags: /Ogsp
;	COMDAT ?GetDieActionStopType@ioAreaEffectWeapon@@UBE?AW4ActionStopType@@XZ
_TEXT	SEGMENT
?GetDieActionStopType@ioAreaEffectWeapon@@UBE?AW4ActionStopType@@XZ PROC ; ioAreaEffectWeapon::GetDieActionStopType, COMDAT
; _this$ = ecx

; 137  : 	return m_DieActionStopType;

  00000	a1 00 00 00 00	 mov	 eax, DWORD PTR ?m_DieActionStopType@ioAreaEffectWeapon@@2W4ActionStopType@@A ; ioAreaEffectWeapon::m_DieActionStopType

; 138  : }

  00005	c3		 ret	 0
?GetDieActionStopType@ioAreaEffectWeapon@@UBE?AW4ActionStopType@@XZ ENDP ; ioAreaEffectWeapon::GetDieActionStopType
_TEXT	ENDS
PUBLIC	?Process@ioAreaEffectWeapon@@UAEXMPAVioPlayStage@@@Z ; ioAreaEffectWeapon::Process
EXTRN	__imp_?GetLoopSec@ioFrameTimer@@QBEKXZ:PROC
EXTRN	__imp_?GetSingleton@ioFrameTimer@@SAAAV1@XZ:PROC
; Function compile flags: /Ogsp
;	COMDAT ?Process@ioAreaEffectWeapon@@UAEXMPAVioPlayStage@@@Z
_TEXT	SEGMENT
_fTimePerSec$ = 8					; size = 4
_pStage$ = 12						; size = 4
?Process@ioAreaEffectWeapon@@UAEXMPAVioPlayStage@@@Z PROC ; ioAreaEffectWeapon::Process, COMDAT
; _this$ = ecx

; 141  : {

  00000	55		 push	 ebp
  00001	8b ec		 mov	 ebp, esp
  00003	56		 push	 esi
  00004	57		 push	 edi
  00005	8b f1		 mov	 esi, ecx

; 142  : 	DWORD dwCurTime = FRAMEGETTIME();

  00007	ff 15 00 00 00
	00		 call	 DWORD PTR __imp_?GetSingleton@ioFrameTimer@@SAAAV1@XZ
  0000d	8b c8		 mov	 ecx, eax
  0000f	ff 15 00 00 00
	00		 call	 DWORD PTR __imp_?GetLoopSec@ioFrameTimer@@QBEKXZ
  00015	8b f8		 mov	 edi, eax

; 143  : 
; 144  : 	if( !CheckPiercing() )

  00017	8b 06		 mov	 eax, DWORD PTR [esi]
  00019	6a 00		 push	 0
  0001b	8b ce		 mov	 ecx, esi
  0001d	ff 90 48 01 00
	00		 call	 DWORD PTR [eax+328]
  00023	84 c0		 test	 al, al
  00025	74 3e		 je	 SHORT $LN1@Process

; 145  : 		return;
; 146  : 
; 147  : 	UpdateWorldAttackBox( fTimePerSec, false );

  00027	f3 0f 10 45 08	 movss	 xmm0, DWORD PTR _fTimePerSec$[ebp]
  0002c	8b 06		 mov	 eax, DWORD PTR [esi]
  0002e	6a 00		 push	 0
  00030	51		 push	 ecx
  00031	8b ce		 mov	 ecx, esi
  00033	f3 0f 11 04 24	 movss	 DWORD PTR [esp], xmm0
  00038	ff 90 38 01 00
	00		 call	 DWORD PTR [eax+312]

; 148  : 
; 149  : 	if ( m_bEndAreaAttack )

  0003e	80 be 38 0a 00
	00 00		 cmp	 BYTE PTR [esi+2616], 0
  00045	74 1e		 je	 SHORT $LN1@Process

; 150  : 	{
; 151  : 		if( m_dwLiveTime > 1 && m_dwCreatedTime + m_dwLiveTime < dwCurTime )

  00047	8b 86 d8 04 00
	00		 mov	 eax, DWORD PTR [esi+1240]
  0004d	83 f8 01	 cmp	 eax, 1
  00050	76 13		 jbe	 SHORT $LN1@Process
  00052	8b 8e d4 04 00
	00		 mov	 ecx, DWORD PTR [esi+1236]
  00058	03 c8		 add	 ecx, eax
  0005a	3b cf		 cmp	 ecx, edi
  0005c	73 07		 jae	 SHORT $LN1@Process

; 152  : 			SetWeaponDead();

  0005e	8b 06		 mov	 eax, DWORD PTR [esi]
  00060	8b ce		 mov	 ecx, esi
  00062	ff 50 4c	 call	 DWORD PTR [eax+76]
$LN1@Process:
  00065	5f		 pop	 edi
  00066	5e		 pop	 esi

; 153  : 	}
; 154  : }

  00067	5d		 pop	 ebp
  00068	c2 08 00	 ret	 8
?Process@ioAreaEffectWeapon@@UAEXMPAVioPlayStage@@@Z ENDP ; ioAreaEffectWeapon::Process
_TEXT	ENDS
PUBLIC	?_Adopt@_Iterator_base0@std@@QAEXPBX@Z		; std::_Iterator_base0::_Adopt
; Function compile flags: /Ogsp
; File c:\program files (x86)\microsoft visual studio 10.0\vc\include\xutility
;	COMDAT ?_Adopt@_Iterator_base0@std@@QAEXPBX@Z
_TEXT	SEGMENT
___formal$ = 8						; size = 4
?_Adopt@_Iterator_base0@std@@QAEXPBX@Z PROC		; std::_Iterator_base0::_Adopt, COMDAT
; _this$ = ecx

; 49   : 		}

  00000	c2 04 00	 ret	 4
?_Adopt@_Iterator_base0@std@@QAEXPBX@Z ENDP		; std::_Iterator_base0::_Adopt
_TEXT	ENDS
PUBLIC	?GetLocalAttackBox@ioAreaEffectWeapon@@UBEABVioOrientBox@@XZ ; ioAreaEffectWeapon::GetLocalAttackBox
; Function compile flags: /Ogsp
; File d:\lost saga for developer\youtube\tutorial\source\src\lsclient\ioareaeffectweapon.cpp
;	COMDAT ?GetLocalAttackBox@ioAreaEffectWeapon@@UBEABVioOrientBox@@XZ
_TEXT	SEGMENT
?GetLocalAttackBox@ioAreaEffectWeapon@@UBEABVioOrientBox@@XZ PROC ; ioAreaEffectWeapon::GetLocalAttackBox, COMDAT
; _this$ = ecx

; 365  : 	return m_LocalAttackBox;

  00000	8d 81 e8 09 00
	00		 lea	 eax, DWORD PTR [ecx+2536]

; 366  : }

  00006	c3		 ret	 0
?GetLocalAttackBox@ioAreaEffectWeapon@@UBEABVioOrientBox@@XZ ENDP ; ioAreaEffectWeapon::GetLocalAttackBox
_TEXT	ENDS
PUBLIC	??A?$vector@VioHashString@@V?$allocator@VioHashString@@@std@@@std@@QAEAAVioHashString@@I@Z ; std::vector<ioHashString,std::allocator<ioHashString> >::operator[]
; Function compile flags: /Ogsp
; File c:\program files (x86)\microsoft visual studio 10.0\vc\include\vector
;	COMDAT ??A?$vector@VioHashString@@V?$allocator@VioHashString@@@std@@@std@@QAEAAVioHashString@@I@Z
_TEXT	SEGMENT
__Pos$ = 8						; size = 4
??A?$vector@VioHashString@@V?$allocator@VioHashString@@@std@@@std@@QAEAAVioHashString@@I@Z PROC ; std::vector<ioHashString,std::allocator<ioHashString> >::operator[], COMDAT
; _this$ = ecx

; 928  : 		{	// subscript mutable sequence

  00000	55		 push	 ebp
  00001	8b ec		 mov	 ebp, esp

; 929  :  #if _ITERATOR_DEBUG_LEVEL == 2
; 930  : 		if (size() <= _Pos)
; 931  : 			{	// report error
; 932  : 			_DEBUG_ERROR("vector subscript out of range");
; 933  : 			_SCL_SECURE_OUT_OF_RANGE;
; 934  : 			}
; 935  : 
; 936  :  #elif _ITERATOR_DEBUG_LEVEL == 1
; 937  : 		_SCL_SECURE_VALIDATE_RANGE(_Pos < size());
; 938  :  #endif /* _ITERATOR_DEBUG_LEVEL */
; 939  : 
; 940  : 		return (*(this->_Myfirst + _Pos));

  00003	8b 45 08	 mov	 eax, DWORD PTR __Pos$[ebp]
  00006	c1 e0 04	 shl	 eax, 4
  00009	03 01		 add	 eax, DWORD PTR [ecx]

; 941  : 		}

  0000b	5d		 pop	 ebp
  0000c	c2 04 00	 ret	 4
??A?$vector@VioHashString@@V?$allocator@VioHashString@@@std@@@std@@QAEAAVioHashString@@I@Z ENDP ; std::vector<ioHashString,std::allocator<ioHashString> >::operator[]
_TEXT	ENDS
PUBLIC	?empty@?$vector@PAVioBaseChar@@V?$allocator@PAVioBaseChar@@@std@@@std@@QBE_NXZ ; std::vector<ioBaseChar *,std::allocator<ioBaseChar *> >::empty
; Function compile flags: /Ogsp
;	COMDAT ?empty@?$vector@PAVioBaseChar@@V?$allocator@PAVioBaseChar@@@std@@@std@@QBE_NXZ
_TEXT	SEGMENT
?empty@?$vector@PAVioBaseChar@@V?$allocator@PAVioBaseChar@@@std@@@std@@QBE_NXZ PROC ; std::vector<ioBaseChar *,std::allocator<ioBaseChar *> >::empty, COMDAT
; _this$ = ecx

; 889  : 		return (this->_Myfirst == this->_Mylast);

  00000	8b 01		 mov	 eax, DWORD PTR [ecx]
  00002	2b 41 04	 sub	 eax, DWORD PTR [ecx+4]
  00005	f7 d8		 neg	 eax
  00007	1b c0		 sbb	 eax, eax
  00009	40		 inc	 eax

; 890  : 		}

  0000a	c3		 ret	 0
?empty@?$vector@PAVioBaseChar@@V?$allocator@PAVioBaseChar@@@std@@@std@@QBE_NXZ ENDP ; std::vector<ioBaseChar *,std::allocator<ioBaseChar *> >::empty
_TEXT	ENDS
PUBLIC	?size@?$vector@UstWantCheckList@ioAreaEffectWeapon@@V?$allocator@UstWantCheckList@ioAreaEffectWeapon@@@std@@@std@@QBEIXZ ; std::vector<ioAreaEffectWeapon::stWantCheckList,std::allocator<ioAreaEffectWeapon::stWantCheckList> >::size
; Function compile flags: /Ogsp
;	COMDAT ?size@?$vector@UstWantCheckList@ioAreaEffectWeapon@@V?$allocator@UstWantCheckList@ioAreaEffectWeapon@@@std@@@std@@QBEIXZ
_TEXT	SEGMENT
?size@?$vector@UstWantCheckList@ioAreaEffectWeapon@@V?$allocator@UstWantCheckList@ioAreaEffectWeapon@@@std@@@std@@QBEIXZ PROC ; std::vector<ioAreaEffectWeapon::stWantCheckList,std::allocator<ioAreaEffectWeapon::stWantCheckList> >::size, COMDAT
; _this$ = ecx

; 879  : 		return (this->_Mylast - this->_Myfirst);

  00000	8b 41 04	 mov	 eax, DWORD PTR [ecx+4]
  00003	2b 01		 sub	 eax, DWORD PTR [ecx]
  00005	6a 14		 push	 20			; 00000014H
  00007	99		 cdq
  00008	59		 pop	 ecx
  00009	f7 f9		 idiv	 ecx

; 880  : 		}

  0000b	c3		 ret	 0
?size@?$vector@UstWantCheckList@ioAreaEffectWeapon@@V?$allocator@UstWantCheckList@ioAreaEffectWeapon@@@std@@@std@@QBEIXZ ENDP ; std::vector<ioAreaEffectWeapon::stWantCheckList,std::allocator<ioAreaEffectWeapon::stWantCheckList> >::size
_TEXT	ENDS
PUBLIC	??A?$vector@UstWantCheckList@ioAreaEffectWeapon@@V?$allocator@UstWantCheckList@ioAreaEffectWeapon@@@std@@@std@@QAEAAUstWantCheckList@ioAreaEffectWeapon@@I@Z ; std::vector<ioAreaEffectWeapon::stWantCheckList,std::allocator<ioAreaEffectWeapon::stWantCheckList> >::operator[]
; Function compile flags: /Ogsp
;	COMDAT ??A?$vector@UstWantCheckList@ioAreaEffectWeapon@@V?$allocator@UstWantCheckList@ioAreaEffectWeapon@@@std@@@std@@QAEAAUstWantCheckList@ioAreaEffectWeapon@@I@Z
_TEXT	SEGMENT
__Pos$ = 8						; size = 4
??A?$vector@UstWantCheckList@ioAreaEffectWeapon@@V?$allocator@UstWantCheckList@ioAreaEffectWeapon@@@std@@@std@@QAEAAUstWantCheckList@ioAreaEffectWeapon@@I@Z PROC ; std::vector<ioAreaEffectWeapon::stWantCheckList,std::allocator<ioAreaEffectWeapon::stWantCheckList> >::operator[], COMDAT
; _this$ = ecx

; 928  : 		{	// subscript mutable sequence

  00000	55		 push	 ebp
  00001	8b ec		 mov	 ebp, esp

; 929  :  #if _ITERATOR_DEBUG_LEVEL == 2
; 930  : 		if (size() <= _Pos)
; 931  : 			{	// report error
; 932  : 			_DEBUG_ERROR("vector subscript out of range");
; 933  : 			_SCL_SECURE_OUT_OF_RANGE;
; 934  : 			}
; 935  : 
; 936  :  #elif _ITERATOR_DEBUG_LEVEL == 1
; 937  : 		_SCL_SECURE_VALIDATE_RANGE(_Pos < size());
; 938  :  #endif /* _ITERATOR_DEBUG_LEVEL */
; 939  : 
; 940  : 		return (*(this->_Myfirst + _Pos));

  00003	8b 45 08	 mov	 eax, DWORD PTR __Pos$[ebp]
  00006	6b c0 14	 imul	 eax, 20			; 00000014H
  00009	03 01		 add	 eax, DWORD PTR [ecx]

; 941  : 		}

  0000b	5d		 pop	 ebp
  0000c	c2 04 00	 ret	 4
??A?$vector@UstWantCheckList@ioAreaEffectWeapon@@V?$allocator@UstWantCheckList@ioAreaEffectWeapon@@@std@@@std@@QAEAAUstWantCheckList@ioAreaEffectWeapon@@I@Z ENDP ; std::vector<ioAreaEffectWeapon::stWantCheckList,std::allocator<ioAreaEffectWeapon::stWantCheckList> >::operator[]
_TEXT	ENDS
PUBLIC	?_Inside@?$vector@VioHashString@@V?$allocator@VioHashString@@@std@@@std@@IBE_NPBVioHashString@@@Z ; std::vector<ioHashString,std::allocator<ioHashString> >::_Inside
; Function compile flags: /Ogsp
;	COMDAT ?_Inside@?$vector@VioHashString@@V?$allocator@VioHashString@@@std@@@std@@IBE_NPBVioHashString@@@Z
_TEXT	SEGMENT
__Ptr$ = 8						; size = 4
?_Inside@?$vector@VioHashString@@V?$allocator@VioHashString@@@std@@@std@@IBE_NPBVioHashString@@@Z PROC ; std::vector<ioHashString,std::allocator<ioHashString> >::_Inside, COMDAT
; _this$ = ecx

; 1285 : 		{	// test if _Ptr points inside vector

  00000	55		 push	 ebp
  00001	8b ec		 mov	 ebp, esp

; 1286 : 		return (_Ptr < this->_Mylast && this->_Myfirst <= _Ptr);

  00003	8b 45 08	 mov	 eax, DWORD PTR __Ptr$[ebp]
  00006	3b 41 04	 cmp	 eax, DWORD PTR [ecx+4]
  00009	73 09		 jae	 SHORT $LN3@Inside
  0000b	39 01		 cmp	 DWORD PTR [ecx], eax
  0000d	77 05		 ja	 SHORT $LN3@Inside
  0000f	33 c0		 xor	 eax, eax
  00011	40		 inc	 eax
  00012	eb 02		 jmp	 SHORT $LN4@Inside
$LN3@Inside:
  00014	33 c0		 xor	 eax, eax
$LN4@Inside:

; 1287 : 		}

  00016	5d		 pop	 ebp
  00017	c2 04 00	 ret	 4
?_Inside@?$vector@VioHashString@@V?$allocator@VioHashString@@@std@@@std@@IBE_NPBVioHashString@@@Z ENDP ; std::vector<ioHashString,std::allocator<ioHashString> >::_Inside
_TEXT	ENDS
PUBLIC	?_Orphan_range@?$vector@VioHashString@@V?$allocator@VioHashString@@@std@@@std@@IBEXPAVioHashString@@0@Z ; std::vector<ioHashString,std::allocator<ioHashString> >::_Orphan_range
; Function compile flags: /Ogsp
;	COMDAT ?_Orphan_range@?$vector@VioHashString@@V?$allocator@VioHashString@@@std@@@std@@IBEXPAVioHashString@@0@Z
_TEXT	SEGMENT
___formal$ = 8						; size = 4
___formal$ = 12						; size = 4
?_Orphan_range@?$vector@VioHashString@@V?$allocator@VioHashString@@@std@@@std@@IBEXPAVioHashString@@0@Z PROC ; std::vector<ioHashString,std::allocator<ioHashString> >::_Orphan_range, COMDAT
; _this$ = ecx

; 1454 : 		}

  00000	c2 08 00	 ret	 8
?_Orphan_range@?$vector@VioHashString@@V?$allocator@VioHashString@@@std@@@std@@IBEXPAVioHashString@@0@Z ENDP ; std::vector<ioHashString,std::allocator<ioHashString> >::_Orphan_range
_TEXT	ENDS
PUBLIC	?_Nextnode@?$_List_val@PAVioPlayEntity@@V?$allocator@PAVioPlayEntity@@@std@@@std@@SAAAPAU_Node@?$_List_nod@PAVioPlayEntity@@V?$allocator@PAVioPlayEntity@@@std@@@2@PAU342@@Z ; std::_List_val<ioPlayEntity *,std::allocator<ioPlayEntity *> >::_Nextnode
; Function compile flags: /Ogsp
; File c:\program files (x86)\microsoft visual studio 10.0\vc\include\list
;	COMDAT ?_Nextnode@?$_List_val@PAVioPlayEntity@@V?$allocator@PAVioPlayEntity@@@std@@@std@@SAAAPAU_Node@?$_List_nod@PAVioPlayEntity@@V?$allocator@PAVioPlayEntity@@@std@@@2@PAU342@@Z
_TEXT	SEGMENT
__Pnode$ = 8						; size = 4
?_Nextnode@?$_List_val@PAVioPlayEntity@@V?$allocator@PAVioPlayEntity@@@std@@@std@@SAAAPAU_Node@?$_List_nod@PAVioPlayEntity@@V?$allocator@PAVioPlayEntity@@@std@@@2@PAU342@@Z PROC ; std::_List_val<ioPlayEntity *,std::allocator<ioPlayEntity *> >::_Nextnode, COMDAT

; 560  : 		{	// return reference to successor pointer in node

  00000	55		 push	 ebp
  00001	8b ec		 mov	 ebp, esp

; 561  : 		return ((_Nodepref)(*_Pnode)._Next);

  00003	8b 45 08	 mov	 eax, DWORD PTR __Pnode$[ebp]

; 562  : 		}

  00006	5d		 pop	 ebp
  00007	c3		 ret	 0
?_Nextnode@?$_List_val@PAVioPlayEntity@@V?$allocator@PAVioPlayEntity@@@std@@@std@@SAAAPAU_Node@?$_List_nod@PAVioPlayEntity@@V?$allocator@PAVioPlayEntity@@@std@@@2@PAU342@@Z ENDP ; std::_List_val<ioPlayEntity *,std::allocator<ioPlayEntity *> >::_Nextnode
_TEXT	ENDS
PUBLIC	?_Myval@?$_List_val@PAVioPlayEntity@@V?$allocator@PAVioPlayEntity@@@std@@@std@@SAAAPAVioPlayEntity@@PAU_Node@?$_List_nod@PAVioPlayEntity@@V?$allocator@PAVioPlayEntity@@@std@@@2@@Z ; std::_List_val<ioPlayEntity *,std::allocator<ioPlayEntity *> >::_Myval
; Function compile flags: /Ogsp
;	COMDAT ?_Myval@?$_List_val@PAVioPlayEntity@@V?$allocator@PAVioPlayEntity@@@std@@@std@@SAAAPAVioPlayEntity@@PAU_Node@?$_List_nod@PAVioPlayEntity@@V?$allocator@PAVioPlayEntity@@@std@@@2@@Z
_TEXT	SEGMENT
__Pnode$ = 8						; size = 4
?_Myval@?$_List_val@PAVioPlayEntity@@V?$allocator@PAVioPlayEntity@@@std@@@std@@SAAAPAVioPlayEntity@@PAU_Node@?$_List_nod@PAVioPlayEntity@@V?$allocator@PAVioPlayEntity@@@std@@@2@@Z PROC ; std::_List_val<ioPlayEntity *,std::allocator<ioPlayEntity *> >::_Myval, COMDAT

; 570  : 		{	// return reference to value in node

  00000	55		 push	 ebp
  00001	8b ec		 mov	 ebp, esp

; 571  : 		return ((reference)(*_Pnode)._Myval);

  00003	8b 45 08	 mov	 eax, DWORD PTR __Pnode$[ebp]
  00006	83 c0 08	 add	 eax, 8

; 572  : 		}

  00009	5d		 pop	 ebp
  0000a	c3		 ret	 0
?_Myval@?$_List_val@PAVioPlayEntity@@V?$allocator@PAVioPlayEntity@@@std@@@std@@SAAAPAVioPlayEntity@@PAU_Node@?$_List_nod@PAVioPlayEntity@@V?$allocator@PAVioPlayEntity@@@std@@@2@@Z ENDP ; std::_List_val<ioPlayEntity *,std::allocator<ioPlayEntity *> >::_Myval
_TEXT	ENDS
PUBLIC	??0?$allocator@PAVioPlayEntity@@@std@@QAE@XZ	; std::allocator<ioPlayEntity *>::allocator<ioPlayEntity *>
; Function compile flags: /Ogsp
; File c:\program files (x86)\microsoft visual studio 10.0\vc\include\xmemory
;	COMDAT ??0?$allocator@PAVioPlayEntity@@@std@@QAE@XZ
_TEXT	SEGMENT
??0?$allocator@PAVioPlayEntity@@@std@@QAE@XZ PROC	; std::allocator<ioPlayEntity *>::allocator<ioPlayEntity *>, COMDAT
; _this$ = ecx

; 161  : 	_ALLOCATOR() _THROW0()

  00000	8b c1		 mov	 eax, ecx

; 162  : 		{	// construct default allocator (do nothing)
; 163  : 		}

  00002	c3		 ret	 0
??0?$allocator@PAVioPlayEntity@@@std@@QAE@XZ ENDP	; std::allocator<ioPlayEntity *>::allocator<ioPlayEntity *>
_TEXT	ENDS
PUBLIC	?_Inside@?$vector@UstWantCheckList@ioAreaEffectWeapon@@V?$allocator@UstWantCheckList@ioAreaEffectWeapon@@@std@@@std@@IBE_NPBUstWantCheckList@ioAreaEffectWeapon@@@Z ; std::vector<ioAreaEffectWeapon::stWantCheckList,std::allocator<ioAreaEffectWeapon::stWantCheckList> >::_Inside
; Function compile flags: /Ogsp
; File c:\program files (x86)\microsoft visual studio 10.0\vc\include\vector
;	COMDAT ?_Inside@?$vector@UstWantCheckList@ioAreaEffectWeapon@@V?$allocator@UstWantCheckList@ioAreaEffectWeapon@@@std@@@std@@IBE_NPBUstWantCheckList@ioAreaEffectWeapon@@@Z
_TEXT	SEGMENT
__Ptr$ = 8						; size = 4
?_Inside@?$vector@UstWantCheckList@ioAreaEffectWeapon@@V?$allocator@UstWantCheckList@ioAreaEffectWeapon@@@std@@@std@@IBE_NPBUstWantCheckList@ioAreaEffectWeapon@@@Z PROC ; std::vector<ioAreaEffectWeapon::stWantCheckList,std::allocator<ioAreaEffectWeapon::stWantCheckList> >::_Inside, COMDAT
; _this$ = ecx

; 1285 : 		{	// test if _Ptr points inside vector

  00000	55		 push	 ebp
  00001	8b ec		 mov	 ebp, esp

; 1286 : 		return (_Ptr < this->_Mylast && this->_Myfirst <= _Ptr);

  00003	8b 45 08	 mov	 eax, DWORD PTR __Ptr$[ebp]
  00006	3b 41 04	 cmp	 eax, DWORD PTR [ecx+4]
  00009	73 09		 jae	 SHORT $LN3@Inside@2
  0000b	39 01		 cmp	 DWORD PTR [ecx], eax
  0000d	77 05		 ja	 SHORT $LN3@Inside@2
  0000f	33 c0		 xor	 eax, eax
  00011	40		 inc	 eax
  00012	eb 02		 jmp	 SHORT $LN4@Inside@2
$LN3@Inside@2:
  00014	33 c0		 xor	 eax, eax
$LN4@Inside@2:

; 1287 : 		}

  00016	5d		 pop	 ebp
  00017	c2 04 00	 ret	 4
?_Inside@?$vector@UstWantCheckList@ioAreaEffectWeapon@@V?$allocator@UstWantCheckList@ioAreaEffectWeapon@@@std@@@std@@IBE_NPBUstWantCheckList@ioAreaEffectWeapon@@@Z ENDP ; std::vector<ioAreaEffectWeapon::stWantCheckList,std::allocator<ioAreaEffectWeapon::stWantCheckList> >::_Inside
_TEXT	ENDS
PUBLIC	?_Orphan_range@?$vector@UstWantCheckList@ioAreaEffectWeapon@@V?$allocator@UstWantCheckList@ioAreaEffectWeapon@@@std@@@std@@IBEXPAUstWantCheckList@ioAreaEffectWeapon@@0@Z ; std::vector<ioAreaEffectWeapon::stWantCheckList,std::allocator<ioAreaEffectWeapon::stWantCheckList> >::_Orphan_range
; Function compile flags: /Ogsp
;	COMDAT ?_Orphan_range@?$vector@UstWantCheckList@ioAreaEffectWeapon@@V?$allocator@UstWantCheckList@ioAreaEffectWeapon@@@std@@@std@@IBEXPAUstWantCheckList@ioAreaEffectWeapon@@0@Z
_TEXT	SEGMENT
___formal$ = 8						; size = 4
___formal$ = 12						; size = 4
?_Orphan_range@?$vector@UstWantCheckList@ioAreaEffectWeapon@@V?$allocator@UstWantCheckList@ioAreaEffectWeapon@@@std@@@std@@IBEXPAUstWantCheckList@ioAreaEffectWeapon@@0@Z PROC ; std::vector<ioAreaEffectWeapon::stWantCheckList,std::allocator<ioAreaEffectWeapon::stWantCheckList> >::_Orphan_range, COMDAT
; _this$ = ecx

; 1454 : 		}

  00000	c2 08 00	 ret	 8
?_Orphan_range@?$vector@UstWantCheckList@ioAreaEffectWeapon@@V?$allocator@UstWantCheckList@ioAreaEffectWeapon@@@std@@@std@@IBEXPAUstWantCheckList@ioAreaEffectWeapon@@0@Z ENDP ; std::vector<ioAreaEffectWeapon::stWantCheckList,std::allocator<ioAreaEffectWeapon::stWantCheckList> >::_Orphan_range
_TEXT	ENDS
PUBLIC	??1?$_Vector_val@UstWantCheckList@ioAreaEffectWeapon@@V?$allocator@UstWantCheckList@ioAreaEffectWeapon@@@std@@@std@@QAE@XZ ; std::_Vector_val<ioAreaEffectWeapon::stWantCheckList,std::allocator<ioAreaEffectWeapon::stWantCheckList> >::~_Vector_val<ioAreaEffectWeapon::stWantCheckList,std::allocator<ioAreaEffectWeapon::stWantCheckList> >
; Function compile flags: /Ogsp
;	COMDAT ??1?$_Vector_val@UstWantCheckList@ioAreaEffectWeapon@@V?$allocator@UstWantCheckList@ioAreaEffectWeapon@@@std@@@std@@QAE@XZ
_TEXT	SEGMENT
??1?$_Vector_val@UstWantCheckList@ioAreaEffectWeapon@@V?$allocator@UstWantCheckList@ioAreaEffectWeapon@@@std@@@std@@QAE@XZ PROC ; std::_Vector_val<ioAreaEffectWeapon::stWantCheckList,std::allocator<ioAreaEffectWeapon::stWantCheckList> >::~_Vector_val<ioAreaEffectWeapon::stWantCheckList,std::allocator<ioAreaEffectWeapon::stWantCheckList> >, COMDAT
; _this$ = ecx

; 434  : 		}

  00000	c3		 ret	 0
??1?$_Vector_val@UstWantCheckList@ioAreaEffectWeapon@@V?$allocator@UstWantCheckList@ioAreaEffectWeapon@@@std@@@std@@QAE@XZ ENDP ; std::_Vector_val<ioAreaEffectWeapon::stWantCheckList,std::allocator<ioAreaEffectWeapon::stWantCheckList> >::~_Vector_val<ioAreaEffectWeapon::stWantCheckList,std::allocator<ioAreaEffectWeapon::stWantCheckList> >
_TEXT	ENDS
PUBLIC	??0?$allocator@UstWantCheckList@ioAreaEffectWeapon@@@std@@QAE@XZ ; std::allocator<ioAreaEffectWeapon::stWantCheckList>::allocator<ioAreaEffectWeapon::stWantCheckList>
; Function compile flags: /Ogsp
; File c:\program files (x86)\microsoft visual studio 10.0\vc\include\xmemory
;	COMDAT ??0?$allocator@UstWantCheckList@ioAreaEffectWeapon@@@std@@QAE@XZ
_TEXT	SEGMENT
??0?$allocator@UstWantCheckList@ioAreaEffectWeapon@@@std@@QAE@XZ PROC ; std::allocator<ioAreaEffectWeapon::stWantCheckList>::allocator<ioAreaEffectWeapon::stWantCheckList>, COMDAT
; _this$ = ecx

; 161  : 	_ALLOCATOR() _THROW0()

  00000	8b c1		 mov	 eax, ecx

; 162  : 		{	// construct default allocator (do nothing)
; 163  : 		}

  00002	c3		 ret	 0
??0?$allocator@UstWantCheckList@ioAreaEffectWeapon@@@std@@QAE@XZ ENDP ; std::allocator<ioAreaEffectWeapon::stWantCheckList>::allocator<ioAreaEffectWeapon::stWantCheckList>
_TEXT	ENDS
PUBLIC	??D?$_Vector_const_iterator@V?$_Vector_val@PAVioBaseChar@@V?$allocator@PAVioBaseChar@@@std@@@std@@@std@@QBEABQAVioBaseChar@@XZ ; std::_Vector_const_iterator<std::_Vector_val<ioBaseChar *,std::allocator<ioBaseChar *> > >::operator*
; Function compile flags: /Ogsp
; File c:\program files (x86)\microsoft visual studio 10.0\vc\include\vector
;	COMDAT ??D?$_Vector_const_iterator@V?$_Vector_val@PAVioBaseChar@@V?$allocator@PAVioBaseChar@@@std@@@std@@@std@@QBEABQAVioBaseChar@@XZ
_TEXT	SEGMENT
??D?$_Vector_const_iterator@V?$_Vector_val@PAVioBaseChar@@V?$allocator@PAVioBaseChar@@@std@@@std@@@std@@QBEABQAVioBaseChar@@XZ PROC ; std::_Vector_const_iterator<std::_Vector_val<ioBaseChar *,std::allocator<ioBaseChar *> > >::operator*, COMDAT
; _this$ = ecx

; 64   :  #if _ITERATOR_DEBUG_LEVEL == 2
; 65   : 		if (this->_Getcont() == 0
; 66   : 			|| this->_Ptr == 0
; 67   : 			|| this->_Ptr < ((_Myvec *)this->_Getcont())->_Myfirst
; 68   : 			|| ((_Myvec *)this->_Getcont())->_Mylast <= this->_Ptr)
; 69   : 			{	// report error
; 70   : 			_DEBUG_ERROR("vector iterator not dereferencable");
; 71   : 			_SCL_SECURE_OUT_OF_RANGE;
; 72   : 			}
; 73   : 
; 74   :  #elif _ITERATOR_DEBUG_LEVEL == 1
; 75   : 		_SCL_SECURE_VALIDATE(this->_Getcont() != 0);
; 76   : 		_SCL_SECURE_VALIDATE_RANGE(
; 77   : 			this->_Ptr != 0
; 78   : 			&& ((_Myvec *)this->_Getcont())->_Myfirst <= this->_Ptr
; 79   : 			&& this->_Ptr < ((_Myvec *)this->_Getcont())->_Mylast);
; 80   :  #endif /* _ITERATOR_DEBUG_LEVEL */
; 81   : 
; 82   : 		__analysis_assume(this->_Ptr != 0);
; 83   : 
; 84   : 		return (*this->_Ptr);

  00000	8b 01		 mov	 eax, DWORD PTR [ecx]

; 85   : 		}

  00002	c3		 ret	 0
??D?$_Vector_const_iterator@V?$_Vector_val@PAVioBaseChar@@V?$allocator@PAVioBaseChar@@@std@@@std@@@std@@QBEABQAVioBaseChar@@XZ ENDP ; std::_Vector_const_iterator<std::_Vector_val<ioBaseChar *,std::allocator<ioBaseChar *> > >::operator*
_TEXT	ENDS
PUBLIC	??E?$_Vector_const_iterator@V?$_Vector_val@PAVioBaseChar@@V?$allocator@PAVioBaseChar@@@std@@@std@@@std@@QAEAAV01@XZ ; std::_Vector_const_iterator<std::_Vector_val<ioBaseChar *,std::allocator<ioBaseChar *> > >::operator++
; Function compile flags: /Ogsp
;	COMDAT ??E?$_Vector_const_iterator@V?$_Vector_val@PAVioBaseChar@@V?$allocator@PAVioBaseChar@@@std@@@std@@@std@@QAEAAV01@XZ
_TEXT	SEGMENT
??E?$_Vector_const_iterator@V?$_Vector_val@PAVioBaseChar@@V?$allocator@PAVioBaseChar@@@std@@@std@@@std@@QAEAAV01@XZ PROC ; std::_Vector_const_iterator<std::_Vector_val<ioBaseChar *,std::allocator<ioBaseChar *> > >::operator++, COMDAT
; _this$ = ecx

; 93   : 		{	// preincrement

  00000	8b c1		 mov	 eax, ecx

; 94   :  #if _ITERATOR_DEBUG_LEVEL == 2
; 95   : 		if (this->_Getcont() == 0
; 96   : 			|| this->_Ptr == 0
; 97   : 			|| ((_Myvec *)this->_Getcont())->_Mylast <= this->_Ptr)
; 98   : 			{	// report error
; 99   : 			_DEBUG_ERROR("vector iterator not incrementable");
; 100  : 			_SCL_SECURE_OUT_OF_RANGE;
; 101  : 			}
; 102  : 
; 103  :  #elif _ITERATOR_DEBUG_LEVEL == 1
; 104  : 		_SCL_SECURE_VALIDATE(this->_Getcont() != 0);
; 105  : 		_SCL_SECURE_VALIDATE_RANGE(
; 106  : 			this->_Ptr != 0
; 107  : 			&& this->_Ptr < ((_Myvec *)this->_Getcont())->_Mylast);
; 108  :  #endif /* _ITERATOR_DEBUG_LEVEL */
; 109  : 
; 110  : 		++this->_Ptr;

  00002	83 00 04	 add	 DWORD PTR [eax], 4

; 111  : 		return (*this);
; 112  : 		}

  00005	c3		 ret	 0
??E?$_Vector_const_iterator@V?$_Vector_val@PAVioBaseChar@@V?$allocator@PAVioBaseChar@@@std@@@std@@@std@@QAEAAV01@XZ ENDP ; std::_Vector_const_iterator<std::_Vector_val<ioBaseChar *,std::allocator<ioBaseChar *> > >::operator++
_TEXT	ENDS
PUBLIC	??8?$_List_const_iterator@V?$_List_val@PAVioPlayEntity@@V?$allocator@PAVioPlayEntity@@@std@@@std@@@std@@QBE_NABV01@@Z ; std::_List_const_iterator<std::_List_val<ioPlayEntity *,std::allocator<ioPlayEntity *> > >::operator==
; Function compile flags: /Ogsp
; File c:\program files (x86)\microsoft visual studio 10.0\vc\include\list
;	COMDAT ??8?$_List_const_iterator@V?$_List_val@PAVioPlayEntity@@V?$allocator@PAVioPlayEntity@@@std@@@std@@@std@@QBE_NABV01@@Z
_TEXT	SEGMENT
__Right$ = 8						; size = 4
??8?$_List_const_iterator@V?$_List_val@PAVioPlayEntity@@V?$allocator@PAVioPlayEntity@@@std@@@std@@@std@@QBE_NABV01@@Z PROC ; std::_List_const_iterator<std::_List_val<ioPlayEntity *,std::allocator<ioPlayEntity *> > >::operator==, COMDAT
; _this$ = ecx

; 281  : 		{	// test for iterator equality

  00000	55		 push	 ebp
  00001	8b ec		 mov	 ebp, esp

; 282  :  #if _ITERATOR_DEBUG_LEVEL == 2
; 283  : 		if (this->_Getcont() == 0
; 284  : 			|| this->_Getcont() != _Right._Getcont())
; 285  : 			{	// report error
; 286  : 			_DEBUG_ERROR("list iterators incompatible");
; 287  : 			_SCL_SECURE_INVALID_ARGUMENT;
; 288  : 			}
; 289  : 
; 290  :  #elif _ITERATOR_DEBUG_LEVEL == 1
; 291  : 		_SCL_SECURE_VALIDATE(this->_Getcont() != 0
; 292  : 			&& this->_Getcont() == _Right._Getcont());
; 293  :  #endif /* _ITERATOR_DEBUG_LEVEL */
; 294  : 
; 295  : 		return (this->_Ptr == _Right._Ptr);

  00003	8b 01		 mov	 eax, DWORD PTR [ecx]
  00005	8b 4d 08	 mov	 ecx, DWORD PTR __Right$[ebp]
  00008	2b 01		 sub	 eax, DWORD PTR [ecx]
  0000a	f7 d8		 neg	 eax
  0000c	1b c0		 sbb	 eax, eax
  0000e	40		 inc	 eax

; 296  : 		}

  0000f	5d		 pop	 ebp
  00010	c2 04 00	 ret	 4
??8?$_List_const_iterator@V?$_List_val@PAVioPlayEntity@@V?$allocator@PAVioPlayEntity@@@std@@@std@@@std@@QBE_NABV01@@Z ENDP ; std::_List_const_iterator<std::_List_val<ioPlayEntity *,std::allocator<ioPlayEntity *> > >::operator==
_TEXT	ENDS
PUBLIC	??0?$_List_unchecked_const_iterator@V?$_List_val@PAVioPlayEntity@@V?$allocator@PAVioPlayEntity@@@std@@@std@@U_Iterator_base0@2@@std@@QAE@XZ ; std::_List_unchecked_const_iterator<std::_List_val<ioPlayEntity *,std::allocator<ioPlayEntity *> >,std::_Iterator_base0>::_List_unchecked_const_iterator<std::_List_val<ioPlayEntity *,std::allocator<ioPlayEntity *> >,std::_Iterator_base0>
; Function compile flags: /Ogsp
;	COMDAT ??0?$_List_unchecked_const_iterator@V?$_List_val@PAVioPlayEntity@@V?$allocator@PAVioPlayEntity@@@std@@@std@@U_Iterator_base0@2@@std@@QAE@XZ
_TEXT	SEGMENT
??0?$_List_unchecked_const_iterator@V?$_List_val@PAVioPlayEntity@@V?$allocator@PAVioPlayEntity@@@std@@@std@@U_Iterator_base0@2@@std@@QAE@XZ PROC ; std::_List_unchecked_const_iterator<std::_List_val<ioPlayEntity *,std::allocator<ioPlayEntity *> >,std::_Iterator_base0>::_List_unchecked_const_iterator<std::_List_val<ioPlayEntity *,std::allocator<ioPlayEntity *> >,std::_Iterator_base0>, COMDAT
; _this$ = ecx

; 36   : 		{	// construct with null node pointer

  00000	8b c1		 mov	 eax, ecx
  00002	83 20 00	 and	 DWORD PTR [eax], 0

; 37   : 		}

  00005	c3		 ret	 0
??0?$_List_unchecked_const_iterator@V?$_List_val@PAVioPlayEntity@@V?$allocator@PAVioPlayEntity@@@std@@@std@@U_Iterator_base0@2@@std@@QAE@XZ ENDP ; std::_List_unchecked_const_iterator<std::_List_val<ioPlayEntity *,std::allocator<ioPlayEntity *> >,std::_Iterator_base0>::_List_unchecked_const_iterator<std::_List_val<ioPlayEntity *,std::allocator<ioPlayEntity *> >,std::_Iterator_base0>
_TEXT	ENDS
PUBLIC	?capacity@?$vector@VioHashString@@V?$allocator@VioHashString@@@std@@@std@@QBEIXZ ; std::vector<ioHashString,std::allocator<ioHashString> >::capacity
; Function compile flags: /Ogsp
; File c:\program files (x86)\microsoft visual studio 10.0\vc\include\vector
;	COMDAT ?capacity@?$vector@VioHashString@@V?$allocator@VioHashString@@@std@@@std@@QBEIXZ
_TEXT	SEGMENT
?capacity@?$vector@VioHashString@@V?$allocator@VioHashString@@@std@@@std@@QBEIXZ PROC ; std::vector<ioHashString,std::allocator<ioHashString> >::capacity, COMDAT
; _this$ = ecx

; 777  : 		return (this->_Myend - this->_Myfirst);

  00000	8b 41 08	 mov	 eax, DWORD PTR [ecx+8]
  00003	2b 01		 sub	 eax, DWORD PTR [ecx]
  00005	c1 f8 04	 sar	 eax, 4

; 778  : 		}

  00008	c3		 ret	 0
?capacity@?$vector@VioHashString@@V?$allocator@VioHashString@@@std@@@std@@QBEIXZ ENDP ; std::vector<ioHashString,std::allocator<ioHashString> >::capacity
_TEXT	ENDS
PUBLIC	?_Prevnode@?$_List_val@PAVioPlayEntity@@V?$allocator@PAVioPlayEntity@@@std@@@std@@SAAAPAU_Node@?$_List_nod@PAVioPlayEntity@@V?$allocator@PAVioPlayEntity@@@std@@@2@PAU342@@Z ; std::_List_val<ioPlayEntity *,std::allocator<ioPlayEntity *> >::_Prevnode
; Function compile flags: /Ogsp
; File c:\program files (x86)\microsoft visual studio 10.0\vc\include\list
;	COMDAT ?_Prevnode@?$_List_val@PAVioPlayEntity@@V?$allocator@PAVioPlayEntity@@@std@@@std@@SAAAPAU_Node@?$_List_nod@PAVioPlayEntity@@V?$allocator@PAVioPlayEntity@@@std@@@2@PAU342@@Z
_TEXT	SEGMENT
__Pnode$ = 8						; size = 4
?_Prevnode@?$_List_val@PAVioPlayEntity@@V?$allocator@PAVioPlayEntity@@@std@@@std@@SAAAPAU_Node@?$_List_nod@PAVioPlayEntity@@V?$allocator@PAVioPlayEntity@@@std@@@2@PAU342@@Z PROC ; std::_List_val<ioPlayEntity *,std::allocator<ioPlayEntity *> >::_Prevnode, COMDAT

; 565  : 		{	// return reference to predecessor pointer in node

  00000	55		 push	 ebp
  00001	8b ec		 mov	 ebp, esp

; 566  : 		return ((_Nodepref)(*_Pnode)._Prev);

  00003	8b 45 08	 mov	 eax, DWORD PTR __Pnode$[ebp]
  00006	83 c0 04	 add	 eax, 4

; 567  : 		}

  00009	5d		 pop	 ebp
  0000a	c3		 ret	 0
?_Prevnode@?$_List_val@PAVioPlayEntity@@V?$allocator@PAVioPlayEntity@@@std@@@std@@SAAAPAU_Node@?$_List_nod@PAVioPlayEntity@@V?$allocator@PAVioPlayEntity@@@std@@@2@PAU342@@Z ENDP ; std::_List_val<ioPlayEntity *,std::allocator<ioPlayEntity *> >::_Prevnode
_TEXT	ENDS
PUBLIC	??0?$allocator@PAVioPlayEntity@@@std@@QAE@ABV01@@Z ; std::allocator<ioPlayEntity *>::allocator<ioPlayEntity *>
; Function compile flags: /Ogsp
; File c:\program files (x86)\microsoft visual studio 10.0\vc\include\xmemory
;	COMDAT ??0?$allocator@PAVioPlayEntity@@@std@@QAE@ABV01@@Z
_TEXT	SEGMENT
___formal$ = 8						; size = 4
??0?$allocator@PAVioPlayEntity@@@std@@QAE@ABV01@@Z PROC	; std::allocator<ioPlayEntity *>::allocator<ioPlayEntity *>, COMDAT
; _this$ = ecx

; 165  : 	_ALLOCATOR(const _ALLOCATOR<_Ty>&) _THROW0()

  00000	8b c1		 mov	 eax, ecx

; 166  : 		{	// construct by copying (do nothing)
; 167  : 		}

  00002	c2 04 00	 ret	 4
??0?$allocator@PAVioPlayEntity@@@std@@QAE@ABV01@@Z ENDP	; std::allocator<ioPlayEntity *>::allocator<ioPlayEntity *>
_TEXT	ENDS
PUBLIC	?deallocate@?$allocator@U_Node@?$_List_nod@PAVioPlayEntity@@V?$allocator@PAVioPlayEntity@@@std@@@std@@@std@@QAEXPAU_Node@?$_List_nod@PAVioPlayEntity@@V?$allocator@PAVioPlayEntity@@@std@@@2@I@Z ; std::allocator<std::_List_nod<ioPlayEntity *,std::allocator<ioPlayEntity *> >::_Node>::deallocate
; Function compile flags: /Ogsp
;	COMDAT ?deallocate@?$allocator@U_Node@?$_List_nod@PAVioPlayEntity@@V?$allocator@PAVioPlayEntity@@@std@@@std@@@std@@QAEXPAU_Node@?$_List_nod@PAVioPlayEntity@@V?$allocator@PAVioPlayEntity@@@std@@@2@I@Z
_TEXT	SEGMENT
__Ptr$ = 8						; size = 4
___formal$ = 12						; size = 4
?deallocate@?$allocator@U_Node@?$_List_nod@PAVioPlayEntity@@V?$allocator@PAVioPlayEntity@@@std@@@std@@@std@@QAEXPAU_Node@?$_List_nod@PAVioPlayEntity@@V?$allocator@PAVioPlayEntity@@@std@@@2@I@Z PROC ; std::allocator<std::_List_nod<ioPlayEntity *,std::allocator<ioPlayEntity *> >::_Node>::deallocate, COMDAT
; _this$ = ecx

; 181  : 		{	// deallocate object at _Ptr, ignore size

  00000	55		 push	 ebp
  00001	8b ec		 mov	 ebp, esp

; 182  : 		::operator delete(_Ptr);

  00003	ff 75 08	 push	 DWORD PTR __Ptr$[ebp]
  00006	e8 00 00 00 00	 call	 ??3@YAXPAX@Z		; operator delete
  0000b	59		 pop	 ecx

; 183  : 		}

  0000c	5d		 pop	 ebp
  0000d	c2 08 00	 ret	 8
?deallocate@?$allocator@U_Node@?$_List_nod@PAVioPlayEntity@@V?$allocator@PAVioPlayEntity@@@std@@@std@@@std@@QAEXPAU_Node@?$_List_nod@PAVioPlayEntity@@V?$allocator@PAVioPlayEntity@@@std@@@2@I@Z ENDP ; std::allocator<std::_List_nod<ioPlayEntity *,std::allocator<ioPlayEntity *> >::_Node>::deallocate
_TEXT	ENDS
PUBLIC	?capacity@?$vector@UstWantCheckList@ioAreaEffectWeapon@@V?$allocator@UstWantCheckList@ioAreaEffectWeapon@@@std@@@std@@QBEIXZ ; std::vector<ioAreaEffectWeapon::stWantCheckList,std::allocator<ioAreaEffectWeapon::stWantCheckList> >::capacity
; Function compile flags: /Ogsp
; File c:\program files (x86)\microsoft visual studio 10.0\vc\include\vector
;	COMDAT ?capacity@?$vector@UstWantCheckList@ioAreaEffectWeapon@@V?$allocator@UstWantCheckList@ioAreaEffectWeapon@@@std@@@std@@QBEIXZ
_TEXT	SEGMENT
?capacity@?$vector@UstWantCheckList@ioAreaEffectWeapon@@V?$allocator@UstWantCheckList@ioAreaEffectWeapon@@@std@@@std@@QBEIXZ PROC ; std::vector<ioAreaEffectWeapon::stWantCheckList,std::allocator<ioAreaEffectWeapon::stWantCheckList> >::capacity, COMDAT
; _this$ = ecx

; 777  : 		return (this->_Myend - this->_Myfirst);

  00000	8b 41 08	 mov	 eax, DWORD PTR [ecx+8]
  00003	2b 01		 sub	 eax, DWORD PTR [ecx]
  00005	6a 14		 push	 20			; 00000014H
  00007	99		 cdq
  00008	59		 pop	 ecx
  00009	f7 f9		 idiv	 ecx

; 778  : 		}

  0000b	c3		 ret	 0
?capacity@?$vector@UstWantCheckList@ioAreaEffectWeapon@@V?$allocator@UstWantCheckList@ioAreaEffectWeapon@@@std@@@std@@QBEIXZ ENDP ; std::vector<ioAreaEffectWeapon::stWantCheckList,std::allocator<ioAreaEffectWeapon::stWantCheckList> >::capacity
_TEXT	ENDS
PUBLIC	??_C@_0BD@OLBABOEK@vector?$DMT?$DO?5too?5long?$AA@ ; `string'
PUBLIC	?_Xlen@?$vector@UstWantCheckList@ioAreaEffectWeapon@@V?$allocator@UstWantCheckList@ioAreaEffectWeapon@@@std@@@std@@IBEXXZ ; std::vector<ioAreaEffectWeapon::stWantCheckList,std::allocator<ioAreaEffectWeapon::stWantCheckList> >::_Xlen
EXTRN	__imp_?_Xlength_error@std@@YAXPBD@Z:PROC
;	COMDAT ??_C@_0BD@OLBABOEK@vector?$DMT?$DO?5too?5long?$AA@
CONST	SEGMENT
??_C@_0BD@OLBABOEK@vector?$DMT?$DO?5too?5long?$AA@ DB 'vector<T> too long'
	DB	00H						; `string'
; Function compile flags: /Ogsp
CONST	ENDS
;	COMDAT ?_Xlen@?$vector@UstWantCheckList@ioAreaEffectWeapon@@V?$allocator@UstWantCheckList@ioAreaEffectWeapon@@@std@@@std@@IBEXXZ
_TEXT	SEGMENT
?_Xlen@?$vector@UstWantCheckList@ioAreaEffectWeapon@@V?$allocator@UstWantCheckList@ioAreaEffectWeapon@@@std@@@std@@IBEXXZ PROC ; std::vector<ioAreaEffectWeapon::stWantCheckList,std::allocator<ioAreaEffectWeapon::stWantCheckList> >::_Xlen, COMDAT
; _this$ = ecx

; 1427 : 		_Xlength_error("vector<T> too long");

  00000	68 00 00 00 00	 push	 OFFSET ??_C@_0BD@OLBABOEK@vector?$DMT?$DO?5too?5long?$AA@
  00005	ff 15 00 00 00
	00		 call	 DWORD PTR __imp_?_Xlength_error@std@@YAXPBD@Z
$LN4@Xlen:
$LN3@Xlen:
  0000b	cc		 int	 3
?_Xlen@?$vector@UstWantCheckList@ioAreaEffectWeapon@@V?$allocator@UstWantCheckList@ioAreaEffectWeapon@@@std@@@std@@IBEXXZ ENDP ; std::vector<ioAreaEffectWeapon::stWantCheckList,std::allocator<ioAreaEffectWeapon::stWantCheckList> >::_Xlen
_TEXT	ENDS
PUBLIC	??0?$allocator@UstWantCheckList@ioAreaEffectWeapon@@@std@@QAE@ABV01@@Z ; std::allocator<ioAreaEffectWeapon::stWantCheckList>::allocator<ioAreaEffectWeapon::stWantCheckList>
; Function compile flags: /Ogsp
; File c:\program files (x86)\microsoft visual studio 10.0\vc\include\xmemory
;	COMDAT ??0?$allocator@UstWantCheckList@ioAreaEffectWeapon@@@std@@QAE@ABV01@@Z
_TEXT	SEGMENT
___formal$ = 8						; size = 4
??0?$allocator@UstWantCheckList@ioAreaEffectWeapon@@@std@@QAE@ABV01@@Z PROC ; std::allocator<ioAreaEffectWeapon::stWantCheckList>::allocator<ioAreaEffectWeapon::stWantCheckList>, COMDAT
; _this$ = ecx

; 165  : 	_ALLOCATOR(const _ALLOCATOR<_Ty>&) _THROW0()

  00000	8b c1		 mov	 eax, ecx

; 166  : 		{	// construct by copying (do nothing)
; 167  : 		}

  00002	c2 04 00	 ret	 4
??0?$allocator@UstWantCheckList@ioAreaEffectWeapon@@@std@@QAE@ABV01@@Z ENDP ; std::allocator<ioAreaEffectWeapon::stWantCheckList>::allocator<ioAreaEffectWeapon::stWantCheckList>
_TEXT	ENDS
PUBLIC	?deallocate@?$allocator@UstWantCheckList@ioAreaEffectWeapon@@@std@@QAEXPAUstWantCheckList@ioAreaEffectWeapon@@I@Z ; std::allocator<ioAreaEffectWeapon::stWantCheckList>::deallocate
; Function compile flags: /Ogsp
;	COMDAT ?deallocate@?$allocator@UstWantCheckList@ioAreaEffectWeapon@@@std@@QAEXPAUstWantCheckList@ioAreaEffectWeapon@@I@Z
_TEXT	SEGMENT
__Ptr$ = 8						; size = 4
___formal$ = 12						; size = 4
?deallocate@?$allocator@UstWantCheckList@ioAreaEffectWeapon@@@std@@QAEXPAUstWantCheckList@ioAreaEffectWeapon@@I@Z PROC ; std::allocator<ioAreaEffectWeapon::stWantCheckList>::deallocate, COMDAT
; _this$ = ecx

; 181  : 		{	// deallocate object at _Ptr, ignore size

  00000	55		 push	 ebp
  00001	8b ec		 mov	 ebp, esp

; 182  : 		::operator delete(_Ptr);

  00003	ff 75 08	 push	 DWORD PTR __Ptr$[ebp]
  00006	e8 00 00 00 00	 call	 ??3@YAXPAX@Z		; operator delete
  0000b	59		 pop	 ecx

; 183  : 		}

  0000c	5d		 pop	 ebp
  0000d	c2 08 00	 ret	 8
?deallocate@?$allocator@UstWantCheckList@ioAreaEffectWeapon@@@std@@QAEXPAUstWantCheckList@ioAreaEffectWeapon@@I@Z ENDP ; std::allocator<ioAreaEffectWeapon::stWantCheckList>::deallocate
_TEXT	ENDS
PUBLIC	??0?$_Vector_const_iterator@V?$_Vector_val@PAVioBaseChar@@V?$allocator@PAVioBaseChar@@@std@@@std@@@std@@QAE@PAPAVioBaseChar@@PBU_Container_base0@1@@Z ; std::_Vector_const_iterator<std::_Vector_val<ioBaseChar *,std::allocator<ioBaseChar *> > >::_Vector_const_iterator<std::_Vector_val<ioBaseChar *,std::allocator<ioBaseChar *> > >
; Function compile flags: /Ogsp
; File c:\program files (x86)\microsoft visual studio 10.0\vc\include\vector
;	COMDAT ??0?$_Vector_const_iterator@V?$_Vector_val@PAVioBaseChar@@V?$allocator@PAVioBaseChar@@@std@@@std@@@std@@QAE@PAPAVioBaseChar@@PBU_Container_base0@1@@Z
_TEXT	SEGMENT
__Parg$ = 8						; size = 4
__Pvector$ = 12						; size = 4
??0?$_Vector_const_iterator@V?$_Vector_val@PAVioBaseChar@@V?$allocator@PAVioBaseChar@@@std@@@std@@@std@@QAE@PAPAVioBaseChar@@PBU_Container_base0@1@@Z PROC ; std::_Vector_const_iterator<std::_Vector_val<ioBaseChar *,std::allocator<ioBaseChar *> > >::_Vector_const_iterator<std::_Vector_val<ioBaseChar *,std::allocator<ioBaseChar *> > >, COMDAT
; _this$ = ecx

; 45   : 		{	// construct with pointer _Parg

  00000	55		 push	 ebp
  00001	8b ec		 mov	 ebp, esp
  00003	8b c1		 mov	 eax, ecx
  00005	8b 4d 08	 mov	 ecx, DWORD PTR __Parg$[ebp]
  00008	89 08		 mov	 DWORD PTR [eax], ecx

; 46   : 		this->_Adopt(_Pvector);
; 47   : 		}

  0000a	5d		 pop	 ebp
  0000b	c2 08 00	 ret	 8
??0?$_Vector_const_iterator@V?$_Vector_val@PAVioBaseChar@@V?$allocator@PAVioBaseChar@@@std@@@std@@@std@@QAE@PAPAVioBaseChar@@PBU_Container_base0@1@@Z ENDP ; std::_Vector_const_iterator<std::_Vector_val<ioBaseChar *,std::allocator<ioBaseChar *> > >::_Vector_const_iterator<std::_Vector_val<ioBaseChar *,std::allocator<ioBaseChar *> > >
_TEXT	ENDS
PUBLIC	?_Compat@?$_Vector_const_iterator@V?$_Vector_val@PAVioBaseChar@@V?$allocator@PAVioBaseChar@@@std@@@std@@@std@@QBEXABV12@@Z ; std::_Vector_const_iterator<std::_Vector_val<ioBaseChar *,std::allocator<ioBaseChar *> > >::_Compat
; Function compile flags: /Ogsp
;	COMDAT ?_Compat@?$_Vector_const_iterator@V?$_Vector_val@PAVioBaseChar@@V?$allocator@PAVioBaseChar@@@std@@@std@@@std@@QBEXABV12@@Z
_TEXT	SEGMENT
___formal$ = 8						; size = 4
?_Compat@?$_Vector_const_iterator@V?$_Vector_val@PAVioBaseChar@@V?$allocator@PAVioBaseChar@@@std@@@std@@@std@@QBEXABV12@@Z PROC ; std::_Vector_const_iterator<std::_Vector_val<ioBaseChar *,std::allocator<ioBaseChar *> > >::_Compat, COMDAT
; _this$ = ecx

; 253  : 		}

  00000	c2 04 00	 ret	 4
?_Compat@?$_Vector_const_iterator@V?$_Vector_val@PAVioBaseChar@@V?$allocator@PAVioBaseChar@@@std@@@std@@@std@@QBEXABV12@@Z ENDP ; std::_Vector_const_iterator<std::_Vector_val<ioBaseChar *,std::allocator<ioBaseChar *> > >::_Compat
_TEXT	ENDS
PUBLIC	??0?$_List_unchecked_const_iterator@V?$_List_val@PAVioPlayEntity@@V?$allocator@PAVioPlayEntity@@@std@@@std@@U_Iterator_base0@2@@std@@QAE@PAU_Node@?$_List_nod@PAVioPlayEntity@@V?$allocator@PAVioPlayEntity@@@std@@@1@PBV?$_List_val@PAVioPlayEntity@@V?$allocator@PAVioPlayEntity@@@std@@@1@@Z ; std::_List_unchecked_const_iterator<std::_List_val<ioPlayEntity *,std::allocator<ioPlayEntity *> >,std::_Iterator_base0>::_List_unchecked_const_iterator<std::_List_val<ioPlayEntity *,std::allocator<ioPlayEntity *> >,std::_Iterator_base0>
; Function compile flags: /Ogsp
; File c:\program files (x86)\microsoft visual studio 10.0\vc\include\list
;	COMDAT ??0?$_List_unchecked_const_iterator@V?$_List_val@PAVioPlayEntity@@V?$allocator@PAVioPlayEntity@@@std@@@std@@U_Iterator_base0@2@@std@@QAE@PAU_Node@?$_List_nod@PAVioPlayEntity@@V?$allocator@PAVioPlayEntity@@@std@@@1@PBV?$_List_val@PAVioPlayEntity@@V?$allocator@PAVioPlayEntity@@@std@@@1@@Z
_TEXT	SEGMENT
__Pnode$ = 8						; size = 4
__Plist$ = 12						; size = 4
??0?$_List_unchecked_const_iterator@V?$_List_val@PAVioPlayEntity@@V?$allocator@PAVioPlayEntity@@@std@@@std@@U_Iterator_base0@2@@std@@QAE@PAU_Node@?$_List_nod@PAVioPlayEntity@@V?$allocator@PAVioPlayEntity@@@std@@@1@PBV?$_List_val@PAVioPlayEntity@@V?$allocator@PAVioPlayEntity@@@std@@@1@@Z PROC ; std::_List_unchecked_const_iterator<std::_List_val<ioPlayEntity *,std::allocator<ioPlayEntity *> >,std::_Iterator_base0>::_List_unchecked_const_iterator<std::_List_val<ioPlayEntity *,std::allocator<ioPlayEntity *> >,std::_Iterator_base0>, COMDAT
; _this$ = ecx

; 41   : 		{	// construct with node pointer _Pnode

  00000	55		 push	 ebp
  00001	8b ec		 mov	 ebp, esp
  00003	8b c1		 mov	 eax, ecx
  00005	8b 4d 08	 mov	 ecx, DWORD PTR __Pnode$[ebp]
  00008	89 08		 mov	 DWORD PTR [eax], ecx

; 42   : 		this->_Adopt(_Plist);
; 43   : 		}

  0000a	5d		 pop	 ebp
  0000b	c2 08 00	 ret	 8
??0?$_List_unchecked_const_iterator@V?$_List_val@PAVioPlayEntity@@V?$allocator@PAVioPlayEntity@@@std@@@std@@U_Iterator_base0@2@@std@@QAE@PAU_Node@?$_List_nod@PAVioPlayEntity@@V?$allocator@PAVioPlayEntity@@@std@@@1@PBV?$_List_val@PAVioPlayEntity@@V?$allocator@PAVioPlayEntity@@@std@@@1@@Z ENDP ; std::_List_unchecked_const_iterator<std::_List_val<ioPlayEntity *,std::allocator<ioPlayEntity *> >,std::_Iterator_base0>::_List_unchecked_const_iterator<std::_List_val<ioPlayEntity *,std::allocator<ioPlayEntity *> >,std::_Iterator_base0>
_TEXT	ENDS
PUBLIC	?_Mynode@?$_List_unchecked_const_iterator@V?$_List_val@PAVioPlayEntity@@V?$allocator@PAVioPlayEntity@@@std@@@std@@U_Iterator_base0@2@@std@@QBEPAU_Node@?$_List_nod@PAVioPlayEntity@@V?$allocator@PAVioPlayEntity@@@std@@@2@XZ ; std::_List_unchecked_const_iterator<std::_List_val<ioPlayEntity *,std::allocator<ioPlayEntity *> >,std::_Iterator_base0>::_Mynode
; Function compile flags: /Ogsp
;	COMDAT ?_Mynode@?$_List_unchecked_const_iterator@V?$_List_val@PAVioPlayEntity@@V?$allocator@PAVioPlayEntity@@@std@@@std@@U_Iterator_base0@2@@std@@QBEPAU_Node@?$_List_nod@PAVioPlayEntity@@V?$allocator@PAVioPlayEntity@@@std@@@2@XZ
_TEXT	SEGMENT
?_Mynode@?$_List_unchecked_const_iterator@V?$_List_val@PAVioPlayEntity@@V?$allocator@PAVioPlayEntity@@@std@@@std@@U_Iterator_base0@2@@std@@QBEPAU_Node@?$_List_nod@PAVioPlayEntity@@V?$allocator@PAVioPlayEntity@@@std@@@2@XZ PROC ; std::_List_unchecked_const_iterator<std::_List_val<ioPlayEntity *,std::allocator<ioPlayEntity *> >,std::_Iterator_base0>::_Mynode, COMDAT
; _this$ = ecx

; 93   : 		return (_Ptr);

  00000	8b 01		 mov	 eax, DWORD PTR [ecx]

; 94   : 		}

  00002	c3		 ret	 0
?_Mynode@?$_List_unchecked_const_iterator@V?$_List_val@PAVioPlayEntity@@V?$allocator@PAVioPlayEntity@@@std@@@std@@U_Iterator_base0@2@@std@@QBEPAU_Node@?$_List_nod@PAVioPlayEntity@@V?$allocator@PAVioPlayEntity@@@std@@@2@XZ ENDP ; std::_List_unchecked_const_iterator<std::_List_val<ioPlayEntity *,std::allocator<ioPlayEntity *> >,std::_Iterator_base0>::_Mynode
_TEXT	ENDS
PUBLIC	?max_size@?$allocator@UstWantCheckList@ioAreaEffectWeapon@@@std@@QBEIXZ ; std::allocator<ioAreaEffectWeapon::stWantCheckList>::max_size
; Function compile flags: /Ogsp
; File c:\program files (x86)\microsoft visual studio 10.0\vc\include\xmemory
;	COMDAT ?max_size@?$allocator@UstWantCheckList@ioAreaEffectWeapon@@@std@@QBEIXZ
_TEXT	SEGMENT
?max_size@?$allocator@UstWantCheckList@ioAreaEffectWeapon@@@std@@QBEIXZ PROC ; std::allocator<ioAreaEffectWeapon::stWantCheckList>::max_size, COMDAT
; _this$ = ecx

; 218  : 		_SIZT _Count = (_SIZT)(-1) / sizeof (_Ty);
; 219  : 		return (0 < _Count ? _Count : 1);

  00000	b8 cc cc cc 0c	 mov	 eax, 214748364		; 0cccccccH

; 220  : 		}

  00005	c3		 ret	 0
?max_size@?$allocator@UstWantCheckList@ioAreaEffectWeapon@@@std@@QBEIXZ ENDP ; std::allocator<ioAreaEffectWeapon::stWantCheckList>::max_size
_TEXT	ENDS
PUBLIC	?max_size@?$allocator@PAVioPlayEntity@@@std@@QBEIXZ ; std::allocator<ioPlayEntity *>::max_size
; Function compile flags: /Ogsp
;	COMDAT ?max_size@?$allocator@PAVioPlayEntity@@@std@@QBEIXZ
_TEXT	SEGMENT
?max_size@?$allocator@PAVioPlayEntity@@@std@@QBEIXZ PROC ; std::allocator<ioPlayEntity *>::max_size, COMDAT
; _this$ = ecx

; 218  : 		_SIZT _Count = (_SIZT)(-1) / sizeof (_Ty);
; 219  : 		return (0 < _Count ? _Count : 1);

  00000	b8 ff ff ff 3f	 mov	 eax, 1073741823		; 3fffffffH

; 220  : 		}

  00005	c3		 ret	 0
?max_size@?$allocator@PAVioPlayEntity@@@std@@QBEIXZ ENDP ; std::allocator<ioPlayEntity *>::max_size
_TEXT	ENDS
PUBLIC	??$addressof@$$CBVioHashString@@@std@@YAPBVioHashString@@ABV1@@Z ; std::addressof<ioHashString const >
; Function compile flags: /Ogsp
;	COMDAT ??$addressof@$$CBVioHashString@@@std@@YAPBVioHashString@@ABV1@@Z
_TEXT	SEGMENT
__Val$ = 8						; size = 4
??$addressof@$$CBVioHashString@@@std@@YAPBVioHashString@@ABV1@@Z PROC ; std::addressof<ioHashString const >, COMDAT

; 110  : 	{	// return address of _Val

  00000	55		 push	 ebp
  00001	8b ec		 mov	 ebp, esp

; 111  : 	return ((_Ty *) &(char&)_Val);

  00003	8b 45 08	 mov	 eax, DWORD PTR __Val$[ebp]

; 112  : 	}

  00006	5d		 pop	 ebp
  00007	c3		 ret	 0
??$addressof@$$CBVioHashString@@@std@@YAPBVioHashString@@ABV1@@Z ENDP ; std::addressof<ioHashString const >
_TEXT	ENDS
PUBLIC	??$addressof@$$CBUstWantCheckList@ioAreaEffectWeapon@@@std@@YAPBUstWantCheckList@ioAreaEffectWeapon@@ABU12@@Z ; std::addressof<ioAreaEffectWeapon::stWantCheckList const >
; Function compile flags: /Ogsp
;	COMDAT ??$addressof@$$CBUstWantCheckList@ioAreaEffectWeapon@@@std@@YAPBUstWantCheckList@ioAreaEffectWeapon@@ABU12@@Z
_TEXT	SEGMENT
__Val$ = 8						; size = 4
??$addressof@$$CBUstWantCheckList@ioAreaEffectWeapon@@@std@@YAPBUstWantCheckList@ioAreaEffectWeapon@@ABU12@@Z PROC ; std::addressof<ioAreaEffectWeapon::stWantCheckList const >, COMDAT

; 110  : 	{	// return address of _Val

  00000	55		 push	 ebp
  00001	8b ec		 mov	 ebp, esp

; 111  : 	return ((_Ty *) &(char&)_Val);

  00003	8b 45 08	 mov	 eax, DWORD PTR __Val$[ebp]

; 112  : 	}

  00006	5d		 pop	 ebp
  00007	c3		 ret	 0
??$addressof@$$CBUstWantCheckList@ioAreaEffectWeapon@@@std@@YAPBUstWantCheckList@ioAreaEffectWeapon@@ABU12@@Z ENDP ; std::addressof<ioAreaEffectWeapon::stWantCheckList const >
_TEXT	ENDS
PUBLIC	??$addressof@PAVioPlayEntity@@@std@@YAPAPAVioPlayEntity@@AAPAV1@@Z ; std::addressof<ioPlayEntity *>
; Function compile flags: /Ogsp
;	COMDAT ??$addressof@PAVioPlayEntity@@@std@@YAPAPAVioPlayEntity@@AAPAV1@@Z
_TEXT	SEGMENT
__Val$ = 8						; size = 4
??$addressof@PAVioPlayEntity@@@std@@YAPAPAVioPlayEntity@@AAPAV1@@Z PROC ; std::addressof<ioPlayEntity *>, COMDAT

; 110  : 	{	// return address of _Val

  00000	55		 push	 ebp
  00001	8b ec		 mov	 ebp, esp

; 111  : 	return ((_Ty *) &(char&)_Val);

  00003	8b 45 08	 mov	 eax, DWORD PTR __Val$[ebp]

; 112  : 	}

  00006	5d		 pop	 ebp
  00007	c3		 ret	 0
??$addressof@PAVioPlayEntity@@@std@@YAPAPAVioPlayEntity@@AAPAV1@@Z ENDP ; std::addressof<ioPlayEntity *>
_TEXT	ENDS
PUBLIC	??$?0PAVioPlayEntity@@@?$allocator@U_Node@?$_List_nod@PAVioPlayEntity@@V?$allocator@PAVioPlayEntity@@@std@@@std@@@std@@QAE@ABV?$allocator@PAVioPlayEntity@@@1@@Z ; std::allocator<std::_List_nod<ioPlayEntity *,std::allocator<ioPlayEntity *> >::_Node>::allocator<std::_List_nod<ioPlayEntity *,std::allocator<ioPlayEntity *> >::_Node><ioPlayEntity *>
; Function compile flags: /Ogsp
;	COMDAT ??$?0PAVioPlayEntity@@@?$allocator@U_Node@?$_List_nod@PAVioPlayEntity@@V?$allocator@PAVioPlayEntity@@@std@@@std@@@std@@QAE@ABV?$allocator@PAVioPlayEntity@@@1@@Z
_TEXT	SEGMENT
___formal$ = 8						; size = 4
??$?0PAVioPlayEntity@@@?$allocator@U_Node@?$_List_nod@PAVioPlayEntity@@V?$allocator@PAVioPlayEntity@@@std@@@std@@@std@@QAE@ABV?$allocator@PAVioPlayEntity@@@1@@Z PROC ; std::allocator<std::_List_nod<ioPlayEntity *,std::allocator<ioPlayEntity *> >::_Node>::allocator<std::_List_nod<ioPlayEntity *,std::allocator<ioPlayEntity *> >::_Node><ioPlayEntity *>, COMDAT
; _this$ = ecx

; 170  : 		_ALLOCATOR(const _ALLOCATOR<_Other>&) _THROW0()

  00000	8b c1		 mov	 eax, ecx

; 171  : 		{	// construct from a related allocator (do nothing)
; 172  : 		}

  00002	c2 04 00	 ret	 4
??$?0PAVioPlayEntity@@@?$allocator@U_Node@?$_List_nod@PAVioPlayEntity@@V?$allocator@PAVioPlayEntity@@@std@@@std@@@std@@QAE@ABV?$allocator@PAVioPlayEntity@@@1@@Z ENDP ; std::allocator<std::_List_nod<ioPlayEntity *,std::allocator<ioPlayEntity *> >::_Node>::allocator<std::_List_nod<ioPlayEntity *,std::allocator<ioPlayEntity *> >::_Node><ioPlayEntity *>
_TEXT	ENDS
PUBLIC	__TI2?AVbad_alloc@std@@
PUBLIC	??$_Allocate@U_Node@?$_List_nod@PAVioPlayEntity@@V?$allocator@PAVioPlayEntity@@@std@@@std@@@std@@YAPAU_Node@?$_List_nod@PAVioPlayEntity@@V?$allocator@PAVioPlayEntity@@@std@@@0@IPAU120@@Z ; std::_Allocate<std::_List_nod<ioPlayEntity *,std::allocator<ioPlayEntity *> >::_Node>
PUBLIC	__CTA2?AVbad_alloc@std@@
PUBLIC	__CT??_R0?AVbad_alloc@std@@@8??0bad_alloc@std@@QAE@ABV01@@Z12
PUBLIC	??0bad_alloc@std@@QAE@ABV01@@Z			; std::bad_alloc::bad_alloc
PUBLIC	__CT??_R0?AVexception@std@@@8??0exception@std@@QAE@ABV01@@Z12
EXTRN	??2@YAPAXI@Z:PROC				; operator new
EXTRN	__CxxThrowException@8:PROC
EXTRN	??0exception@std@@QAE@ABV01@@Z:PROC		; std::exception::exception
;	COMDAT __CT??_R0?AVexception@std@@@8??0exception@std@@QAE@ABV01@@Z12
; File c:\program files (x86)\microsoft visual studio 10.0\vc\include\exception
xdata$x	SEGMENT
__CT??_R0?AVexception@std@@@8??0exception@std@@QAE@ABV01@@Z12 DD 00H
	DD	FLAT:??_R0?AVexception@std@@@8
	DD	00H
	DD	0ffffffffH
	ORG $+4
	DD	0cH
	DD	FLAT:??0exception@std@@QAE@ABV01@@Z
xdata$x	ENDS
;	COMDAT __CT??_R0?AVbad_alloc@std@@@8??0bad_alloc@std@@QAE@ABV01@@Z12
xdata$x	SEGMENT
__CT??_R0?AVbad_alloc@std@@@8??0bad_alloc@std@@QAE@ABV01@@Z12 DD 00H
	DD	FLAT:??_R0?AVbad_alloc@std@@@8
	DD	00H
	DD	0ffffffffH
	ORG $+4
	DD	0cH
	DD	FLAT:??0bad_alloc@std@@QAE@ABV01@@Z
xdata$x	ENDS
;	COMDAT __CTA2?AVbad_alloc@std@@
xdata$x	SEGMENT
__CTA2?AVbad_alloc@std@@ DD 02H
	DD	FLAT:__CT??_R0?AVbad_alloc@std@@@8??0bad_alloc@std@@QAE@ABV01@@Z12
	DD	FLAT:__CT??_R0?AVexception@std@@@8??0exception@std@@QAE@ABV01@@Z12
xdata$x	ENDS
;	COMDAT __TI2?AVbad_alloc@std@@
xdata$x	SEGMENT
__TI2?AVbad_alloc@std@@ DD 00H
	DD	FLAT:??1bad_alloc@std@@UAE@XZ
	DD	00H
	DD	FLAT:__CTA2?AVbad_alloc@std@@
; Function compile flags: /Ogsp
; File c:\program files (x86)\microsoft visual studio 10.0\vc\include\xmemory
xdata$x	ENDS
;	COMDAT ??$_Allocate@U_Node@?$_List_nod@PAVioPlayEntity@@V?$allocator@PAVioPlayEntity@@@std@@@std@@@std@@YAPAU_Node@?$_List_nod@PAVioPlayEntity@@V?$allocator@PAVioPlayEntity@@@std@@@0@IPAU120@@Z
_TEXT	SEGMENT
$T533532 = -12						; size = 12
$T533537 = 8						; size = 4
__Count$ = 8						; size = 4
___formal$ = 12						; size = 4
??$_Allocate@U_Node@?$_List_nod@PAVioPlayEntity@@V?$allocator@PAVioPlayEntity@@@std@@@std@@@std@@YAPAU_Node@?$_List_nod@PAVioPlayEntity@@V?$allocator@PAVioPlayEntity@@@std@@@0@IPAU120@@Z PROC ; std::_Allocate<std::_List_nod<ioPlayEntity *,std::allocator<ioPlayEntity *> >::_Node>, COMDAT

; 30   : 	{	// allocate storage for _Count elements of type _Ty

  00000	55		 push	 ebp
  00001	8b ec		 mov	 ebp, esp

; 31   : 	void *_Ptr = 0;
; 32   : 
; 33   : 	if (_Count <= 0)

  00003	8b 4d 08	 mov	 ecx, DWORD PTR __Count$[ebp]
  00006	83 ec 0c	 sub	 esp, 12			; 0000000cH
  00009	33 c0		 xor	 eax, eax
  0000b	85 c9		 test	 ecx, ecx

; 34   : 		_Count = 0;
; 35   : 	else if (((_SIZT)(-1) / sizeof (_Ty) < _Count)

  0000d	74 3c		 je	 SHORT $LN5@Allocate

; 36   : 		|| (_Ptr = ::operator new(_Count * sizeof (_Ty))) == 0)

  0000f	81 f9 55 55 55
	15		 cmp	 ecx, 357913941		; 15555555H
  00015	77 0e		 ja	 SHORT $LN1@Allocate
  00017	6b c9 0c	 imul	 ecx, 12			; 0000000cH
  0001a	51		 push	 ecx
  0001b	e8 00 00 00 00	 call	 ??2@YAPAXI@Z		; operator new
  00020	59		 pop	 ecx
  00021	85 c0		 test	 eax, eax

; 38   : 
; 39   : 	return ((_Ty _FARQ *)_Ptr);

  00023	75 26		 jne	 SHORT $LN5@Allocate
$LN1@Allocate:

; 37   : 		_THROW_NCEE(bad_alloc, 0);

  00025	83 65 08 00	 and	 DWORD PTR $T533537[ebp], 0
  00029	8d 45 08	 lea	 eax, DWORD PTR $T533537[ebp]
  0002c	50		 push	 eax
  0002d	8d 4d f4	 lea	 ecx, DWORD PTR $T533532[ebp]
  00030	ff 15 00 00 00
	00		 call	 DWORD PTR __imp_??0exception@std@@QAE@ABQBD@Z
  00036	68 00 00 00 00	 push	 OFFSET __TI2?AVbad_alloc@std@@
  0003b	8d 45 f4	 lea	 eax, DWORD PTR $T533532[ebp]
  0003e	50		 push	 eax
  0003f	c7 45 f4 00 00
	00 00		 mov	 DWORD PTR $T533532[ebp], OFFSET ??_7bad_alloc@std@@6B@
  00046	e8 00 00 00 00	 call	 __CxxThrowException@8
$LN10@Allocate:
$LN5@Allocate:

; 40   : 	}

  0004b	c9		 leave
  0004c	c3		 ret	 0
$LN9@Allocate:
??$_Allocate@U_Node@?$_List_nod@PAVioPlayEntity@@V?$allocator@PAVioPlayEntity@@@std@@@std@@@std@@YAPAU_Node@?$_List_nod@PAVioPlayEntity@@V?$allocator@PAVioPlayEntity@@@std@@@0@IPAU120@@Z ENDP ; std::_Allocate<std::_List_nod<ioPlayEntity *,std::allocator<ioPlayEntity *> >::_Node>
_TEXT	ENDS
PUBLIC	??$_Allocate@UstWantCheckList@ioAreaEffectWeapon@@@std@@YAPAUstWantCheckList@ioAreaEffectWeapon@@IPAU12@@Z ; std::_Allocate<ioAreaEffectWeapon::stWantCheckList>
; Function compile flags: /Ogsp
;	COMDAT ??$_Allocate@UstWantCheckList@ioAreaEffectWeapon@@@std@@YAPAUstWantCheckList@ioAreaEffectWeapon@@IPAU12@@Z
_TEXT	SEGMENT
$T533542 = -12						; size = 12
$T533546 = 8						; size = 4
__Count$ = 8						; size = 4
___formal$ = 12						; size = 4
??$_Allocate@UstWantCheckList@ioAreaEffectWeapon@@@std@@YAPAUstWantCheckList@ioAreaEffectWeapon@@IPAU12@@Z PROC ; std::_Allocate<ioAreaEffectWeapon::stWantCheckList>, COMDAT

; 30   : 	{	// allocate storage for _Count elements of type _Ty

  00000	55		 push	 ebp
  00001	8b ec		 mov	 ebp, esp

; 31   : 	void *_Ptr = 0;
; 32   : 
; 33   : 	if (_Count <= 0)

  00003	8b 4d 08	 mov	 ecx, DWORD PTR __Count$[ebp]
  00006	83 ec 0c	 sub	 esp, 12			; 0000000cH
  00009	33 c0		 xor	 eax, eax
  0000b	85 c9		 test	 ecx, ecx

; 34   : 		_Count = 0;
; 35   : 	else if (((_SIZT)(-1) / sizeof (_Ty) < _Count)

  0000d	74 3c		 je	 SHORT $LN5@Allocate@2

; 36   : 		|| (_Ptr = ::operator new(_Count * sizeof (_Ty))) == 0)

  0000f	81 f9 cc cc cc
	0c		 cmp	 ecx, 214748364		; 0cccccccH
  00015	77 0e		 ja	 SHORT $LN1@Allocate@2
  00017	6b c9 14	 imul	 ecx, 20			; 00000014H
  0001a	51		 push	 ecx
  0001b	e8 00 00 00 00	 call	 ??2@YAPAXI@Z		; operator new
  00020	59		 pop	 ecx
  00021	85 c0		 test	 eax, eax

; 38   : 
; 39   : 	return ((_Ty _FARQ *)_Ptr);

  00023	75 26		 jne	 SHORT $LN5@Allocate@2
$LN1@Allocate@2:

; 37   : 		_THROW_NCEE(bad_alloc, 0);

  00025	83 65 08 00	 and	 DWORD PTR $T533546[ebp], 0
  00029	8d 45 08	 lea	 eax, DWORD PTR $T533546[ebp]
  0002c	50		 push	 eax
  0002d	8d 4d f4	 lea	 ecx, DWORD PTR $T533542[ebp]
  00030	ff 15 00 00 00
	00		 call	 DWORD PTR __imp_??0exception@std@@QAE@ABQBD@Z
  00036	68 00 00 00 00	 push	 OFFSET __TI2?AVbad_alloc@std@@
  0003b	8d 45 f4	 lea	 eax, DWORD PTR $T533542[ebp]
  0003e	50		 push	 eax
  0003f	c7 45 f4 00 00
	00 00		 mov	 DWORD PTR $T533542[ebp], OFFSET ??_7bad_alloc@std@@6B@
  00046	e8 00 00 00 00	 call	 __CxxThrowException@8
$LN10@Allocate@2:
$LN5@Allocate@2:

; 40   : 	}

  0004b	c9		 leave
  0004c	c3		 ret	 0
$LN9@Allocate@2:
??$_Allocate@UstWantCheckList@ioAreaEffectWeapon@@@std@@YAPAUstWantCheckList@ioAreaEffectWeapon@@IPAU12@@Z ENDP ; std::_Allocate<ioAreaEffectWeapon::stWantCheckList>
_TEXT	ENDS
PUBLIC	??$forward@AAUstWantCheckList@ioAreaEffectWeapon@@@std@@YAAAUstWantCheckList@ioAreaEffectWeapon@@AAU12@@Z ; std::forward<ioAreaEffectWeapon::stWantCheckList &>
; Function compile flags: /Ogsp
; File c:\program files (x86)\microsoft visual studio 10.0\vc\include\utility
;	COMDAT ??$forward@AAUstWantCheckList@ioAreaEffectWeapon@@@std@@YAAAUstWantCheckList@ioAreaEffectWeapon@@AAU12@@Z
_TEXT	SEGMENT
__Arg$ = 8						; size = 4
??$forward@AAUstWantCheckList@ioAreaEffectWeapon@@@std@@YAAAUstWantCheckList@ioAreaEffectWeapon@@AAU12@@Z PROC ; std::forward<ioAreaEffectWeapon::stWantCheckList &>, COMDAT

; 78   : 	{	// forward _Arg, given explicitly specified type parameter

  00000	55		 push	 ebp
  00001	8b ec		 mov	 ebp, esp

; 79   : 	return ((_Ty&&)_Arg);

  00003	8b 45 08	 mov	 eax, DWORD PTR __Arg$[ebp]

; 80   : 	}

  00006	5d		 pop	 ebp
  00007	c3		 ret	 0
??$forward@AAUstWantCheckList@ioAreaEffectWeapon@@@std@@YAAAUstWantCheckList@ioAreaEffectWeapon@@AAU12@@Z ENDP ; std::forward<ioAreaEffectWeapon::stWantCheckList &>
_TEXT	ENDS
PUBLIC	??$forward@ABUstWantCheckList@ioAreaEffectWeapon@@@std@@YAABUstWantCheckList@ioAreaEffectWeapon@@ABU12@@Z ; std::forward<ioAreaEffectWeapon::stWantCheckList const &>
; Function compile flags: /Ogsp
;	COMDAT ??$forward@ABUstWantCheckList@ioAreaEffectWeapon@@@std@@YAABUstWantCheckList@ioAreaEffectWeapon@@ABU12@@Z
_TEXT	SEGMENT
__Arg$ = 8						; size = 4
??$forward@ABUstWantCheckList@ioAreaEffectWeapon@@@std@@YAABUstWantCheckList@ioAreaEffectWeapon@@ABU12@@Z PROC ; std::forward<ioAreaEffectWeapon::stWantCheckList const &>, COMDAT

; 78   : 	{	// forward _Arg, given explicitly specified type parameter

  00000	55		 push	 ebp
  00001	8b ec		 mov	 ebp, esp

; 79   : 	return ((_Ty&&)_Arg);

  00003	8b 45 08	 mov	 eax, DWORD PTR __Arg$[ebp]

; 80   : 	}

  00006	5d		 pop	 ebp
  00007	c3		 ret	 0
??$forward@ABUstWantCheckList@ioAreaEffectWeapon@@@std@@YAABUstWantCheckList@ioAreaEffectWeapon@@ABU12@@Z ENDP ; std::forward<ioAreaEffectWeapon::stWantCheckList const &>
_TEXT	ENDS
PUBLIC	??$forward@ABQAVioPlayEntity@@@std@@YAABQAVioPlayEntity@@ABQAV1@@Z ; std::forward<ioPlayEntity * const &>
; Function compile flags: /Ogsp
;	COMDAT ??$forward@ABQAVioPlayEntity@@@std@@YAABQAVioPlayEntity@@ABQAV1@@Z
_TEXT	SEGMENT
__Arg$ = 8						; size = 4
??$forward@ABQAVioPlayEntity@@@std@@YAABQAVioPlayEntity@@ABQAV1@@Z PROC ; std::forward<ioPlayEntity * const &>, COMDAT

; 78   : 	{	// forward _Arg, given explicitly specified type parameter

  00000	55		 push	 ebp
  00001	8b ec		 mov	 ebp, esp

; 79   : 	return ((_Ty&&)_Arg);

  00003	8b 45 08	 mov	 eax, DWORD PTR __Arg$[ebp]

; 80   : 	}

  00006	5d		 pop	 ebp
  00007	c3		 ret	 0
??$forward@ABQAVioPlayEntity@@@std@@YAABQAVioPlayEntity@@ABQAV1@@Z ENDP ; std::forward<ioPlayEntity * const &>
_TEXT	ENDS
PUBLIC	??$_Ptr_cat@UstWantCheckList@ioAreaEffectWeapon@@U12@@std@@YA?AU_Nonscalar_ptr_iterator_tag@0@PAUstWantCheckList@ioAreaEffectWeapon@@0@Z ; std::_Ptr_cat<ioAreaEffectWeapon::stWantCheckList,ioAreaEffectWeapon::stWantCheckList>
; Function compile flags: /Ogsp
; File c:\program files (x86)\microsoft visual studio 10.0\vc\include\xutility
;	COMDAT ??$_Ptr_cat@UstWantCheckList@ioAreaEffectWeapon@@U12@@std@@YA?AU_Nonscalar_ptr_iterator_tag@0@PAUstWantCheckList@ioAreaEffectWeapon@@0@Z
_TEXT	SEGMENT
__Cat$ = -1						; size = 1
___formal$ = 8						; size = 4
___formal$ = 12						; size = 4
??$_Ptr_cat@UstWantCheckList@ioAreaEffectWeapon@@U12@@std@@YA?AU_Nonscalar_ptr_iterator_tag@0@PAUstWantCheckList@ioAreaEffectWeapon@@0@Z PROC ; std::_Ptr_cat<ioAreaEffectWeapon::stWantCheckList,ioAreaEffectWeapon::stWantCheckList>, COMDAT

; 516  : 	{	// return pointer category from pointers

  00000	55		 push	 ebp
  00001	8b ec		 mov	 ebp, esp
  00003	51		 push	 ecx

; 517  : 	typename _Ptr_cat_helper<_Elem1, _Elem2>::_Type _Cat;
; 518  : 	return (_Cat);

  00004	8a 45 ff	 mov	 al, BYTE PTR __Cat$[ebp]

; 519  : 	}

  00007	c9		 leave
  00008	c3		 ret	 0
??$_Ptr_cat@UstWantCheckList@ioAreaEffectWeapon@@U12@@std@@YA?AU_Nonscalar_ptr_iterator_tag@0@PAUstWantCheckList@ioAreaEffectWeapon@@0@Z ENDP ; std::_Ptr_cat<ioAreaEffectWeapon::stWantCheckList,ioAreaEffectWeapon::stWantCheckList>
_TEXT	ENDS
PUBLIC	??$_Construct@PAVioPlayEntity@@ABQAV1@@std@@YAXPAPAVioPlayEntity@@ABQAV1@@Z ; std::_Construct<ioPlayEntity *,ioPlayEntity * const &>
; Function compile flags: /Ogsp
; File c:\program files (x86)\microsoft visual studio 10.0\vc\include\xmemory
;	COMDAT ??$_Construct@PAVioPlayEntity@@ABQAV1@@std@@YAXPAPAVioPlayEntity@@ABQAV1@@Z
_TEXT	SEGMENT
__Ptr$ = 8						; size = 4
__Val$ = 12						; size = 4
??$_Construct@PAVioPlayEntity@@ABQAV1@@std@@YAXPAPAVioPlayEntity@@ABQAV1@@Z PROC ; std::_Construct<ioPlayEntity *,ioPlayEntity * const &>, COMDAT

; 46   : 	{	// construct object at _Ptr with value _Val

  00000	55		 push	 ebp
  00001	8b ec		 mov	 ebp, esp

; 47   : 	void _FARQ *_Vptr = _Ptr;
; 48   : 	::new (_Vptr) _Ty1(_STD forward<_Ty2>(_Val));

  00003	8b 45 08	 mov	 eax, DWORD PTR __Ptr$[ebp]
  00006	85 c0		 test	 eax, eax
  00008	74 07		 je	 SHORT $LN3@Construct
  0000a	8b 4d 0c	 mov	 ecx, DWORD PTR __Val$[ebp]
  0000d	8b 09		 mov	 ecx, DWORD PTR [ecx]
  0000f	89 08		 mov	 DWORD PTR [eax], ecx
$LN3@Construct:

; 49   : 	}

  00011	5d		 pop	 ebp
  00012	c3		 ret	 0
??$_Construct@PAVioPlayEntity@@ABQAV1@@std@@YAXPAPAVioPlayEntity@@ABQAV1@@Z ENDP ; std::_Construct<ioPlayEntity *,ioPlayEntity * const &>
_TEXT	ENDS
PUBLIC	??$_Destroy@U_Node@?$_List_nod@PAVioPlayEntity@@V?$allocator@PAVioPlayEntity@@@std@@@std@@@std@@YAXPAU_Node@?$_List_nod@PAVioPlayEntity@@V?$allocator@PAVioPlayEntity@@@std@@@0@@Z ; std::_Destroy<std::_List_nod<ioPlayEntity *,std::allocator<ioPlayEntity *> >::_Node>
; Function compile flags: /Ogsp
;	COMDAT ??$_Destroy@U_Node@?$_List_nod@PAVioPlayEntity@@V?$allocator@PAVioPlayEntity@@@std@@@std@@@std@@YAXPAU_Node@?$_List_nod@PAVioPlayEntity@@V?$allocator@PAVioPlayEntity@@@std@@@0@@Z
_TEXT	SEGMENT
__Ptr$ = 8						; size = 4
??$_Destroy@U_Node@?$_List_nod@PAVioPlayEntity@@V?$allocator@PAVioPlayEntity@@@std@@@std@@@std@@YAXPAU_Node@?$_List_nod@PAVioPlayEntity@@V?$allocator@PAVioPlayEntity@@@std@@@0@@Z PROC ; std::_Destroy<std::_List_nod<ioPlayEntity *,std::allocator<ioPlayEntity *> >::_Node>, COMDAT

; 63   : 	_Ptr->~_Ty();
; 64   : 	}

  00000	c3		 ret	 0
??$_Destroy@U_Node@?$_List_nod@PAVioPlayEntity@@V?$allocator@PAVioPlayEntity@@@std@@@std@@@std@@YAXPAU_Node@?$_List_nod@PAVioPlayEntity@@V?$allocator@PAVioPlayEntity@@@std@@@0@@Z ENDP ; std::_Destroy<std::_List_nod<ioPlayEntity *,std::allocator<ioPlayEntity *> >::_Node>
_TEXT	ENDS
PUBLIC	??0stWantCheckList@ioAreaEffectWeapon@@QAE@ABU01@@Z ; ioAreaEffectWeapon::stWantCheckList::stWantCheckList
EXTRN	__imp_??0ioHashString@@QAE@ABV0@@Z:PROC
; Function compile flags: /Ogsp
;	COMDAT ??0stWantCheckList@ioAreaEffectWeapon@@QAE@ABU01@@Z
_TEXT	SEGMENT
___that$ = 8						; size = 4
??0stWantCheckList@ioAreaEffectWeapon@@QAE@ABU01@@Z PROC ; ioAreaEffectWeapon::stWantCheckList::stWantCheckList, COMDAT
; _this$ = ecx
  00000	55		 push	 ebp
  00001	8b ec		 mov	 ebp, esp
  00003	56		 push	 esi
  00004	57		 push	 edi
  00005	8b 7d 08	 mov	 edi, DWORD PTR ___that$[ebp]
  00008	57		 push	 edi
  00009	8b f1		 mov	 esi, ecx
  0000b	ff 15 00 00 00
	00		 call	 DWORD PTR __imp_??0ioHashString@@QAE@ABV0@@Z
  00011	8a 47 10	 mov	 al, BYTE PTR [edi+16]
  00014	88 46 10	 mov	 BYTE PTR [esi+16], al
  00017	5f		 pop	 edi
  00018	8b c6		 mov	 eax, esi
  0001a	5e		 pop	 esi
  0001b	5d		 pop	 ebp
  0001c	c2 04 00	 ret	 4
??0stWantCheckList@ioAreaEffectWeapon@@QAE@ABU01@@Z ENDP ; ioAreaEffectWeapon::stWantCheckList::stWantCheckList
_TEXT	ENDS
PUBLIC	??$_Val_type@PAVioHashString@@@std@@YAPAVioHashString@@PAV1@@Z ; std::_Val_type<ioHashString *>
; Function compile flags: /Ogsp
; File c:\program files (x86)\microsoft visual studio 10.0\vc\include\xutility
;	COMDAT ??$_Val_type@PAVioHashString@@@std@@YAPAVioHashString@@PAV1@@Z
_TEXT	SEGMENT
___formal$ = 8						; size = 4
??$_Val_type@PAVioHashString@@@std@@YAPAVioHashString@@PAV1@@Z PROC ; std::_Val_type<ioHashString *>, COMDAT

; 790  : 	return (0);

  00000	33 c0		 xor	 eax, eax

; 791  : 	}

  00002	c3		 ret	 0
??$_Val_type@PAVioHashString@@@std@@YAPAVioHashString@@PAV1@@Z ENDP ; std::_Val_type<ioHashString *>
_TEXT	ENDS
PUBLIC	??$_Val_type@PAUstWantCheckList@ioAreaEffectWeapon@@@std@@YAPAUstWantCheckList@ioAreaEffectWeapon@@PAU12@@Z ; std::_Val_type<ioAreaEffectWeapon::stWantCheckList *>
; Function compile flags: /Ogsp
;	COMDAT ??$_Val_type@PAUstWantCheckList@ioAreaEffectWeapon@@@std@@YAPAUstWantCheckList@ioAreaEffectWeapon@@PAU12@@Z
_TEXT	SEGMENT
___formal$ = 8						; size = 4
??$_Val_type@PAUstWantCheckList@ioAreaEffectWeapon@@@std@@YAPAUstWantCheckList@ioAreaEffectWeapon@@PAU12@@Z PROC ; std::_Val_type<ioAreaEffectWeapon::stWantCheckList *>, COMDAT

; 790  : 	return (0);

  00000	33 c0		 xor	 eax, eax

; 791  : 	}

  00002	c3		 ret	 0
??$_Val_type@PAUstWantCheckList@ioAreaEffectWeapon@@@std@@YAPAUstWantCheckList@ioAreaEffectWeapon@@PAU12@@Z ENDP ; std::_Val_type<ioAreaEffectWeapon::stWantCheckList *>
_TEXT	ENDS
PUBLIC	??_GstWantCheckList@ioAreaEffectWeapon@@QAEPAXI@Z ; ioAreaEffectWeapon::stWantCheckList::`scalar deleting destructor'
; Function compile flags: /Ogsp
;	COMDAT ??_GstWantCheckList@ioAreaEffectWeapon@@QAEPAXI@Z
_TEXT	SEGMENT
___flags$ = 8						; size = 4
??_GstWantCheckList@ioAreaEffectWeapon@@QAEPAXI@Z PROC	; ioAreaEffectWeapon::stWantCheckList::`scalar deleting destructor', COMDAT
; _this$ = ecx
  00000	55		 push	 ebp
  00001	8b ec		 mov	 ebp, esp
  00003	56		 push	 esi
  00004	8b f1		 mov	 esi, ecx
  00006	ff 15 00 00 00
	00		 call	 DWORD PTR __imp_??1ioHashString@@QAE@XZ
  0000c	f6 45 08 01	 test	 BYTE PTR ___flags$[ebp], 1
  00010	74 07		 je	 SHORT $LN1@scalar@2
  00012	56		 push	 esi
  00013	e8 00 00 00 00	 call	 ??3@YAXPAX@Z		; operator delete
  00018	59		 pop	 ecx
$LN1@scalar@2:
  00019	8b c6		 mov	 eax, esi
  0001b	5e		 pop	 esi
  0001c	5d		 pop	 ebp
  0001d	c2 04 00	 ret	 4
??_GstWantCheckList@ioAreaEffectWeapon@@QAEPAXI@Z ENDP	; ioAreaEffectWeapon::stWantCheckList::`scalar deleting destructor'
_TEXT	ENDS
PUBLIC	??$forward@VioHashString@@@std@@YA$$QAVioHashString@@AAV1@@Z ; std::forward<ioHashString>
; Function compile flags: /Ogsp
; File c:\program files (x86)\microsoft visual studio 10.0\vc\include\utility
;	COMDAT ??$forward@VioHashString@@@std@@YA$$QAVioHashString@@AAV1@@Z
_TEXT	SEGMENT
__Arg$ = 8						; size = 4
??$forward@VioHashString@@@std@@YA$$QAVioHashString@@AAV1@@Z PROC ; std::forward<ioHashString>, COMDAT

; 78   : 	{	// forward _Arg, given explicitly specified type parameter

  00000	55		 push	 ebp
  00001	8b ec		 mov	 ebp, esp

; 79   : 	return ((_Ty&&)_Arg);

  00003	8b 45 08	 mov	 eax, DWORD PTR __Arg$[ebp]

; 80   : 	}

  00006	5d		 pop	 ebp
  00007	c3		 ret	 0
??$forward@VioHashString@@@std@@YA$$QAVioHashString@@AAV1@@Z ENDP ; std::forward<ioHashString>
_TEXT	ENDS
PUBLIC	??$forward@UstWantCheckList@ioAreaEffectWeapon@@@std@@YA$$QAUstWantCheckList@ioAreaEffectWeapon@@AAU12@@Z ; std::forward<ioAreaEffectWeapon::stWantCheckList>
; Function compile flags: /Ogsp
;	COMDAT ??$forward@UstWantCheckList@ioAreaEffectWeapon@@@std@@YA$$QAUstWantCheckList@ioAreaEffectWeapon@@AAU12@@Z
_TEXT	SEGMENT
__Arg$ = 8						; size = 4
??$forward@UstWantCheckList@ioAreaEffectWeapon@@@std@@YA$$QAUstWantCheckList@ioAreaEffectWeapon@@AAU12@@Z PROC ; std::forward<ioAreaEffectWeapon::stWantCheckList>, COMDAT

; 78   : 	{	// forward _Arg, given explicitly specified type parameter

  00000	55		 push	 ebp
  00001	8b ec		 mov	 ebp, esp

; 79   : 	return ((_Ty&&)_Arg);

  00003	8b 45 08	 mov	 eax, DWORD PTR __Arg$[ebp]

; 80   : 	}

  00006	5d		 pop	 ebp
  00007	c3		 ret	 0
??$forward@UstWantCheckList@ioAreaEffectWeapon@@@std@@YA$$QAUstWantCheckList@ioAreaEffectWeapon@@AAU12@@Z ENDP ; std::forward<ioAreaEffectWeapon::stWantCheckList>
_TEXT	ENDS
PUBLIC	??0D3DXVECTOR3@@QAE@XZ				; D3DXVECTOR3::D3DXVECTOR3
; Function compile flags: /Ogsp
; File c:\program files (x86)\microsoft directx sdk (june 2010)\include\d3dx9math.h
;	COMDAT ??0D3DXVECTOR3@@QAE@XZ
_TEXT	SEGMENT
??0D3DXVECTOR3@@QAE@XZ PROC				; D3DXVECTOR3::D3DXVECTOR3, COMDAT
; _this$ = ecx

; 165  :     D3DXVECTOR3() {};

  00000	8b c1		 mov	 eax, ecx
  00002	c3		 ret	 0
??0D3DXVECTOR3@@QAE@XZ ENDP				; D3DXVECTOR3::D3DXVECTOR3
_TEXT	ENDS
PUBLIC	??0D3DXVECTOR3@@QAE@MMM@Z			; D3DXVECTOR3::D3DXVECTOR3
; Function compile flags: /Ogsp
; File c:\program files (x86)\microsoft directx sdk (june 2010)\include\d3dx9math.inl
;	COMDAT ??0D3DXVECTOR3@@QAE@MMM@Z
_TEXT	SEGMENT
_fx$ = 8						; size = 4
_fy$ = 12						; size = 4
_fz$ = 16						; size = 4
??0D3DXVECTOR3@@QAE@MMM@Z PROC				; D3DXVECTOR3::D3DXVECTOR3, COMDAT
; _this$ = ecx

; 303  : {

  00000	55		 push	 ebp
  00001	8b ec		 mov	 ebp, esp

; 304  :     x = fx;

  00003	f3 0f 10 45 08	 movss	 xmm0, DWORD PTR _fx$[ebp]
  00008	8b c1		 mov	 eax, ecx
  0000a	f3 0f 11 00	 movss	 DWORD PTR [eax], xmm0

; 305  :     y = fy;

  0000e	f3 0f 10 45 0c	 movss	 xmm0, DWORD PTR _fy$[ebp]
  00013	f3 0f 11 40 04	 movss	 DWORD PTR [eax+4], xmm0

; 306  :     z = fz;

  00018	f3 0f 10 45 10	 movss	 xmm0, DWORD PTR _fz$[ebp]
  0001d	f3 0f 11 40 08	 movss	 DWORD PTR [eax+8], xmm0

; 307  : }

  00022	5d		 pop	 ebp
  00023	c2 0c 00	 ret	 12			; 0000000cH
??0D3DXVECTOR3@@QAE@MMM@Z ENDP				; D3DXVECTOR3::D3DXVECTOR3
_TEXT	ENDS
PUBLIC	??YD3DXVECTOR3@@QAEAAU0@ABU0@@Z			; D3DXVECTOR3::operator+=
; Function compile flags: /Ogsp
;	COMDAT ??YD3DXVECTOR3@@QAEAAU0@ABU0@@Z
_TEXT	SEGMENT
_v$ = 8							; size = 4
??YD3DXVECTOR3@@QAEAAU0@ABU0@@Z PROC			; D3DXVECTOR3::operator+=, COMDAT
; _this$ = ecx

; 327  : {

  00000	55		 push	 ebp
  00001	8b ec		 mov	 ebp, esp
  00003	8b c1		 mov	 eax, ecx

; 328  :     x += v.x;

  00005	8b 4d 08	 mov	 ecx, DWORD PTR _v$[ebp]
  00008	f3 0f 10 01	 movss	 xmm0, DWORD PTR [ecx]
  0000c	f3 0f 10 08	 movss	 xmm1, DWORD PTR [eax]
  00010	0f 5a c0	 cvtps2pd xmm0, xmm0
  00013	0f 5a c9	 cvtps2pd xmm1, xmm1
  00016	f2 0f 58 c1	 addsd	 xmm0, xmm1

; 329  :     y += v.y;

  0001a	f3 0f 10 48 04	 movss	 xmm1, DWORD PTR [eax+4]
  0001f	66 0f 5a c0	 cvtpd2ps xmm0, xmm0
  00023	f3 0f 11 00	 movss	 DWORD PTR [eax], xmm0
  00027	f3 0f 10 41 04	 movss	 xmm0, DWORD PTR [ecx+4]
  0002c	0f 5a c0	 cvtps2pd xmm0, xmm0
  0002f	0f 5a c9	 cvtps2pd xmm1, xmm1
  00032	f2 0f 58 c1	 addsd	 xmm0, xmm1

; 330  :     z += v.z;

  00036	f3 0f 10 48 08	 movss	 xmm1, DWORD PTR [eax+8]
  0003b	66 0f 5a c0	 cvtpd2ps xmm0, xmm0
  0003f	f3 0f 11 40 04	 movss	 DWORD PTR [eax+4], xmm0
  00044	f3 0f 10 41 08	 movss	 xmm0, DWORD PTR [ecx+8]
  00049	0f 5a c0	 cvtps2pd xmm0, xmm0
  0004c	0f 5a c9	 cvtps2pd xmm1, xmm1
  0004f	f2 0f 58 c1	 addsd	 xmm0, xmm1
  00053	66 0f 5a c0	 cvtpd2ps xmm0, xmm0
  00057	f3 0f 11 40 08	 movss	 DWORD PTR [eax+8], xmm0

; 331  :     return *this;
; 332  : }

  0005c	5d		 pop	 ebp
  0005d	c2 04 00	 ret	 4
??YD3DXVECTOR3@@QAEAAU0@ABU0@@Z ENDP			; D3DXVECTOR3::operator+=
_TEXT	ENDS
PUBLIC	??ZD3DXVECTOR3@@QAEAAU0@ABU0@@Z			; D3DXVECTOR3::operator-=
; Function compile flags: /Ogsp
;	COMDAT ??ZD3DXVECTOR3@@QAEAAU0@ABU0@@Z
_TEXT	SEGMENT
_v$ = 8							; size = 4
??ZD3DXVECTOR3@@QAEAAU0@ABU0@@Z PROC			; D3DXVECTOR3::operator-=, COMDAT
; _this$ = ecx

; 336  : {

  00000	55		 push	 ebp
  00001	8b ec		 mov	 ebp, esp
  00003	8b c1		 mov	 eax, ecx

; 337  :     x -= v.x;

  00005	8b 4d 08	 mov	 ecx, DWORD PTR _v$[ebp]
  00008	f3 0f 10 09	 movss	 xmm1, DWORD PTR [ecx]
  0000c	f3 0f 10 00	 movss	 xmm0, DWORD PTR [eax]
  00010	0f 5a c0	 cvtps2pd xmm0, xmm0
  00013	0f 5a c9	 cvtps2pd xmm1, xmm1
  00016	f2 0f 5c c1	 subsd	 xmm0, xmm1
  0001a	66 0f 5a c0	 cvtpd2ps xmm0, xmm0
  0001e	f3 0f 11 00	 movss	 DWORD PTR [eax], xmm0

; 338  :     y -= v.y;

  00022	f3 0f 10 49 04	 movss	 xmm1, DWORD PTR [ecx+4]
  00027	f3 0f 10 40 04	 movss	 xmm0, DWORD PTR [eax+4]
  0002c	0f 5a c0	 cvtps2pd xmm0, xmm0
  0002f	0f 5a c9	 cvtps2pd xmm1, xmm1
  00032	f2 0f 5c c1	 subsd	 xmm0, xmm1
  00036	66 0f 5a c0	 cvtpd2ps xmm0, xmm0
  0003a	f3 0f 11 40 04	 movss	 DWORD PTR [eax+4], xmm0

; 339  :     z -= v.z;

  0003f	f3 0f 10 40 08	 movss	 xmm0, DWORD PTR [eax+8]
  00044	f3 0f 10 49 08	 movss	 xmm1, DWORD PTR [ecx+8]
  00049	0f 5a c0	 cvtps2pd xmm0, xmm0
  0004c	0f 5a c9	 cvtps2pd xmm1, xmm1
  0004f	f2 0f 5c c1	 subsd	 xmm0, xmm1
  00053	66 0f 5a c0	 cvtpd2ps xmm0, xmm0
  00057	f3 0f 11 40 08	 movss	 DWORD PTR [eax+8], xmm0

; 340  :     return *this;
; 341  : }

  0005c	5d		 pop	 ebp
  0005d	c2 04 00	 ret	 4
??ZD3DXVECTOR3@@QAEAAU0@ABU0@@Z ENDP			; D3DXVECTOR3::operator-=
_TEXT	ENDS
PUBLIC	??GD3DXVECTOR3@@QBE?AU0@ABU0@@Z			; D3DXVECTOR3::operator-
; Function compile flags: /Ogsp
;	COMDAT ??GD3DXVECTOR3@@QBE?AU0@ABU0@@Z
_TEXT	SEGMENT
___$ReturnUdt$ = 8					; size = 4
_v$ = 12						; size = 4
??GD3DXVECTOR3@@QBE?AU0@ABU0@@Z PROC			; D3DXVECTOR3::operator-, COMDAT
; _this$ = ecx

; 386  : {

  00000	55		 push	 ebp
  00001	8b ec		 mov	 ebp, esp

; 387  :     return D3DXVECTOR3(x - v.x, y - v.y, z - v.z);

  00003	8b 55 0c	 mov	 edx, DWORD PTR _v$[ebp]
  00006	f3 0f 10 01	 movss	 xmm0, DWORD PTR [ecx]
  0000a	f3 0f 10 0a	 movss	 xmm1, DWORD PTR [edx]
  0000e	8b 45 08	 mov	 eax, DWORD PTR ___$ReturnUdt$[ebp]
  00011	0f 5a c0	 cvtps2pd xmm0, xmm0
  00014	0f 5a c9	 cvtps2pd xmm1, xmm1
  00017	f2 0f 5c c1	 subsd	 xmm0, xmm1
  0001b	f3 0f 10 4a 04	 movss	 xmm1, DWORD PTR [edx+4]
  00020	66 0f 5a c0	 cvtpd2ps xmm0, xmm0
  00024	f3 0f 11 00	 movss	 DWORD PTR [eax], xmm0
  00028	f3 0f 10 41 04	 movss	 xmm0, DWORD PTR [ecx+4]
  0002d	0f 5a c0	 cvtps2pd xmm0, xmm0
  00030	0f 5a c9	 cvtps2pd xmm1, xmm1
  00033	f2 0f 5c c1	 subsd	 xmm0, xmm1
  00037	f3 0f 10 4a 08	 movss	 xmm1, DWORD PTR [edx+8]
  0003c	66 0f 5a c0	 cvtpd2ps xmm0, xmm0
  00040	f3 0f 11 40 04	 movss	 DWORD PTR [eax+4], xmm0
  00045	f3 0f 10 41 08	 movss	 xmm0, DWORD PTR [ecx+8]
  0004a	0f 5a c0	 cvtps2pd xmm0, xmm0
  0004d	0f 5a c9	 cvtps2pd xmm1, xmm1
  00050	f2 0f 5c c1	 subsd	 xmm0, xmm1
  00054	66 0f 5a c0	 cvtpd2ps xmm0, xmm0
  00058	f3 0f 11 40 08	 movss	 DWORD PTR [eax+8], xmm0

; 388  : }

  0005d	5d		 pop	 ebp
  0005e	c2 08 00	 ret	 8
??GD3DXVECTOR3@@QBE?AU0@ABU0@@Z ENDP			; D3DXVECTOR3::operator-
_TEXT	ENDS
PUBLIC	??DD3DXVECTOR3@@QBE?AU0@M@Z			; D3DXVECTOR3::operator*
; Function compile flags: /Ogsp
;	COMDAT ??DD3DXVECTOR3@@QBE?AU0@M@Z
_TEXT	SEGMENT
___$ReturnUdt$ = 8					; size = 4
_f$ = 12						; size = 4
??DD3DXVECTOR3@@QBE?AU0@M@Z PROC			; D3DXVECTOR3::operator*, COMDAT
; _this$ = ecx

; 392  : {

  00000	55		 push	 ebp
  00001	8b ec		 mov	 ebp, esp

; 393  :     return D3DXVECTOR3(x * f, y * f, z * f);

  00003	f3 0f 10 4d 0c	 movss	 xmm1, DWORD PTR _f$[ebp]
  00008	f3 0f 10 01	 movss	 xmm0, DWORD PTR [ecx]
  0000c	8b 45 08	 mov	 eax, DWORD PTR ___$ReturnUdt$[ebp]
  0000f	0f 5a c0	 cvtps2pd xmm0, xmm0
  00012	0f 5a c9	 cvtps2pd xmm1, xmm1
  00015	f2 0f 59 c1	 mulsd	 xmm0, xmm1
  00019	f3 0f 10 4d 0c	 movss	 xmm1, DWORD PTR _f$[ebp]
  0001e	66 0f 5a c0	 cvtpd2ps xmm0, xmm0
  00022	f3 0f 11 00	 movss	 DWORD PTR [eax], xmm0
  00026	f3 0f 10 41 04	 movss	 xmm0, DWORD PTR [ecx+4]
  0002b	0f 5a c0	 cvtps2pd xmm0, xmm0
  0002e	0f 5a c9	 cvtps2pd xmm1, xmm1
  00031	f2 0f 59 c1	 mulsd	 xmm0, xmm1
  00035	f3 0f 10 4d 0c	 movss	 xmm1, DWORD PTR _f$[ebp]
  0003a	66 0f 5a c0	 cvtpd2ps xmm0, xmm0
  0003e	f3 0f 11 40 04	 movss	 DWORD PTR [eax+4], xmm0
  00043	f3 0f 10 41 08	 movss	 xmm0, DWORD PTR [ecx+8]
  00048	0f 5a c0	 cvtps2pd xmm0, xmm0
  0004b	0f 5a c9	 cvtps2pd xmm1, xmm1
  0004e	f2 0f 59 c1	 mulsd	 xmm0, xmm1
  00052	66 0f 5a c0	 cvtpd2ps xmm0, xmm0
  00056	f3 0f 11 40 08	 movss	 DWORD PTR [eax+8], xmm0

; 394  : }

  0005b	5d		 pop	 ebp
  0005c	c2 08 00	 ret	 8
??DD3DXVECTOR3@@QBE?AU0@M@Z ENDP			; D3DXVECTOR3::operator*
_TEXT	ENDS
PUBLIC	?D3DXVec3LengthSq@@YAMPBUD3DXVECTOR3@@@Z	; D3DXVec3LengthSq
; Function compile flags: /Ogsp
;	COMDAT ?D3DXVec3LengthSq@@YAMPBUD3DXVECTOR3@@@Z
_TEXT	SEGMENT
tv165 = 8						; size = 4
_pV$ = 8						; size = 4
?D3DXVec3LengthSq@@YAMPBUD3DXVECTOR3@@@Z PROC		; D3DXVec3LengthSq, COMDAT

; 1725 : {

  00000	55		 push	 ebp
  00001	8b ec		 mov	 ebp, esp

; 1726 : #ifdef D3DX_DEBUG
; 1727 :     if(!pV)
; 1728 :         return 0.0f;
; 1729 : #endif
; 1730 : 
; 1731 :     return pV->x * pV->x + pV->y * pV->y + pV->z * pV->z;

  00003	8b 45 08	 mov	 eax, DWORD PTR _pV$[ebp]
  00006	d9 40 04	 fld	 DWORD PTR [eax+4]
  00009	d9 00		 fld	 DWORD PTR [eax]
  0000b	d9 40 08	 fld	 DWORD PTR [eax+8]
  0000e	d9 c1		 fld	 ST(1)
  00010	de ca		 fmulp	 ST(2), ST(0)
  00012	d9 c2		 fld	 ST(2)
  00014	de cb		 fmulp	 ST(3), ST(0)
  00016	d9 c9		 fxch	 ST(1)
  00018	de c2		 faddp	 ST(2), ST(0)
  0001a	d9 c0		 fld	 ST(0)
  0001c	de c9		 fmulp	 ST(1), ST(0)
  0001e	de c1		 faddp	 ST(1), ST(0)
  00020	d9 5d 08	 fstp	 DWORD PTR tv165[ebp]
  00023	d9 45 08	 fld	 DWORD PTR tv165[ebp]

; 1732 : }

  00026	5d		 pop	 ebp
  00027	c3		 ret	 0
?D3DXVec3LengthSq@@YAMPBUD3DXVECTOR3@@@Z ENDP		; D3DXVec3LengthSq
_TEXT	ENDS
PUBLIC	?D3DXVec3Dot@@YAMPBUD3DXVECTOR3@@0@Z		; D3DXVec3Dot
; Function compile flags: /Ogsp
;	COMDAT ?D3DXVec3Dot@@YAMPBUD3DXVECTOR3@@0@Z
_TEXT	SEGMENT
tv188 = 8						; size = 4
_pV1$ = 8						; size = 4
_pV2$ = 12						; size = 4
?D3DXVec3Dot@@YAMPBUD3DXVECTOR3@@0@Z PROC		; D3DXVec3Dot, COMDAT

; 1736 : {

  00000	55		 push	 ebp
  00001	8b ec		 mov	 ebp, esp

; 1737 : #ifdef D3DX_DEBUG
; 1738 :     if(!pV1 || !pV2)
; 1739 :         return 0.0f;
; 1740 : #endif
; 1741 : 
; 1742 :     return pV1->x * pV2->x + pV1->y * pV2->y + pV1->z * pV2->z;

  00003	8b 45 08	 mov	 eax, DWORD PTR _pV1$[ebp]
  00006	8b 4d 0c	 mov	 ecx, DWORD PTR _pV2$[ebp]
  00009	d9 40 04	 fld	 DWORD PTR [eax+4]
  0000c	d8 49 04	 fmul	 DWORD PTR [ecx+4]
  0000f	d9 00		 fld	 DWORD PTR [eax]
  00011	d8 09		 fmul	 DWORD PTR [ecx]
  00013	de c1		 faddp	 ST(1), ST(0)
  00015	d9 40 08	 fld	 DWORD PTR [eax+8]
  00018	d8 49 08	 fmul	 DWORD PTR [ecx+8]
  0001b	de c1		 faddp	 ST(1), ST(0)
  0001d	d9 5d 08	 fstp	 DWORD PTR tv188[ebp]
  00020	d9 45 08	 fld	 DWORD PTR tv188[ebp]

; 1743 : }

  00023	5d		 pop	 ebp
  00024	c3		 ret	 0
?D3DXVec3Dot@@YAMPBUD3DXVECTOR3@@0@Z ENDP		; D3DXVec3Dot
_TEXT	ENDS
PUBLIC	?_DECSTR@@YAXPADH@Z				; _DECSTR
; Function compile flags: /Ogsp
; File d:\lost saga for developer\youtube\tutorial\source\src\lsclient\stringprotect.h
;	COMDAT ?_DECSTR@@YAXPADH@Z
_TEXT	SEGMENT
_s$ = 8							; size = 4
_l$ = 12						; size = 4
?_DECSTR@@YAXPADH@Z PROC				; _DECSTR, COMDAT

; 40   : __forceinline void _DECSTR(char* s, int l){int i=0,l4=(l-1)/4,*p=(int*)s;s[l-1]=0;for(;i<l4;++i)*(p++)^=0xEAEBECED;for(i=l4*4;i<l-1;++i)s[i]^=0xED-i%4;}

  00000	55		 push	 ebp
  00001	8b ec		 mov	 ebp, esp
  00003	8b 4d 0c	 mov	 ecx, DWORD PTR _l$[ebp]
  00006	56		 push	 esi
  00007	8b 75 08	 mov	 esi, DWORD PTR _s$[ebp]
  0000a	57		 push	 edi
  0000b	8d 79 ff	 lea	 edi, DWORD PTR [ecx-1]
  0000e	8b c7		 mov	 eax, edi
  00010	99		 cdq
  00011	83 e2 03	 and	 edx, 3
  00014	03 c2		 add	 eax, edx
  00016	c1 f8 02	 sar	 eax, 2
  00019	8b d6		 mov	 edx, esi
  0001b	c6 44 0e ff 00	 mov	 BYTE PTR [esi+ecx-1], 0
  00020	85 c0		 test	 eax, eax
  00022	7e 0e		 jle	 SHORT $LN4@DECSTR
  00024	8b c8		 mov	 ecx, eax
$LL6@DECSTR:
  00026	81 32 ed ec eb
	ea		 xor	 DWORD PTR [edx], -353637139 ; eaebecedH
  0002c	83 c2 04	 add	 edx, 4
  0002f	49		 dec	 ecx
  00030	75 f4		 jne	 SHORT $LL6@DECSTR
$LN4@DECSTR:
  00032	c1 e0 02	 shl	 eax, 2
  00035	eb 17		 jmp	 SHORT $LN14@DECSTR
$LL3@DECSTR:
  00037	8b c8		 mov	 ecx, eax
  00039	81 e1 03 00 00
	80		 and	 ecx, -2147483645	; 80000003H
  0003f	79 05		 jns	 SHORT $LN13@DECSTR
  00041	49		 dec	 ecx
  00042	83 c9 fc	 or	 ecx, -4			; fffffffcH
  00045	41		 inc	 ecx
$LN13@DECSTR:
  00046	b2 ed		 mov	 dl, -19			; ffffffedH
  00048	2a d1		 sub	 dl, cl
  0004a	30 14 30	 xor	 BYTE PTR [eax+esi], dl
  0004d	40		 inc	 eax
$LN14@DECSTR:
  0004e	3b c7		 cmp	 eax, edi
  00050	7c e5		 jl	 SHORT $LL3@DECSTR
  00052	5f		 pop	 edi
  00053	5e		 pop	 esi
  00054	5d		 pop	 ebp
  00055	c3		 ret	 0
?_DECSTR@@YAXPADH@Z ENDP				; _DECSTR
_TEXT	ENDS
PUBLIC	??_R0?AVioGameEntity@@@8			; ioGameEntity `RTTI Type Descriptor'
PUBLIC	??_R0?AVioPlayEntity@@@8			; ioPlayEntity `RTTI Type Descriptor'
PUBLIC	?ToPlayEntity@@YAPAVioPlayEntity@@PAVioGameEntity@@@Z ; ToPlayEntity
EXTRN	___RTDynamicCast:PROC
;	COMDAT ??_R0?AVioGameEntity@@@8
; File d:\lost saga for developer\youtube\tutorial\source\src\lsclient\ioplayentity.h
_DATA	SEGMENT
??_R0?AVioGameEntity@@@8 DD FLAT:??_7type_info@@6B@	; ioGameEntity `RTTI Type Descriptor'
	DD	00H
	DB	'.?AVioGameEntity@@', 00H
_DATA	ENDS
;	COMDAT ??_R0?AVioPlayEntity@@@8
_DATA	SEGMENT
??_R0?AVioPlayEntity@@@8 DD FLAT:??_7type_info@@6B@	; ioPlayEntity `RTTI Type Descriptor'
	DD	00H
	DB	'.?AVioPlayEntity@@', 00H
; Function compile flags: /Ogsp
_DATA	ENDS
;	COMDAT ?ToPlayEntity@@YAPAVioPlayEntity@@PAVioGameEntity@@@Z
_TEXT	SEGMENT
_pObj$ = 8						; size = 4
?ToPlayEntity@@YAPAVioPlayEntity@@PAVioGameEntity@@@Z PROC ; ToPlayEntity, COMDAT

; 121  : {

  00000	55		 push	 ebp
  00001	8b ec		 mov	 ebp, esp
  00003	56		 push	 esi

; 122  : 	if( !pObj || pObj->GetTypeID() != ioGameEntity::GET_PLAY_ENTITY )

  00004	8b 75 08	 mov	 esi, DWORD PTR _pObj$[ebp]
  00007	85 f6		 test	 esi, esi
  00009	74 25		 je	 SHORT $LN1@ToPlayEnti
  0000b	8b 06		 mov	 eax, DWORD PTR [esi]
  0000d	8b ce		 mov	 ecx, esi
  0000f	ff 50 10	 call	 DWORD PTR [eax+16]
  00012	83 f8 01	 cmp	 eax, 1
  00015	75 19		 jne	 SHORT $LN1@ToPlayEnti

; 124  : 
; 125  : 	return dynamic_cast< ioPlayEntity* >( pObj );

  00017	6a 00		 push	 0
  00019	68 00 00 00 00	 push	 OFFSET ??_R0?AVioPlayEntity@@@8
  0001e	68 00 00 00 00	 push	 OFFSET ??_R0?AVioGameEntity@@@8
  00023	6a 00		 push	 0
  00025	56		 push	 esi
  00026	e8 00 00 00 00	 call	 ___RTDynamicCast
  0002b	83 c4 14	 add	 esp, 20			; 00000014H
  0002e	eb 02		 jmp	 SHORT $LN3@ToPlayEnti
$LN1@ToPlayEnti:

; 123  : 		return NULL;

  00030	33 c0		 xor	 eax, eax
$LN3@ToPlayEnti:
  00032	5e		 pop	 esi

; 126  : }

  00033	5d		 pop	 ebp
  00034	c3		 ret	 0
?ToPlayEntity@@YAPAVioPlayEntity@@PAVioGameEntity@@@Z ENDP ; ToPlayEntity
_TEXT	ENDS
PUBLIC	?IsLive@ioWeapon@@QBE_NXZ			; ioWeapon::IsLive
; Function compile flags: /Ogsp
; File d:\lost saga for developer\youtube\tutorial\source\src\lsclient\ioweapon.h
;	COMDAT ?IsLive@ioWeapon@@QBE_NXZ
_TEXT	SEGMENT
?IsLive@ioWeapon@@QBE_NXZ PROC				; ioWeapon::IsLive, COMDAT
; _this$ = ecx

; 533  : 	inline bool IsLive() const { return m_bLive; }

  00000	8a 81 82 05 00
	00		 mov	 al, BYTE PTR [ecx+1410]
  00006	c3		 ret	 0
?IsLive@ioWeapon@@QBE_NXZ ENDP				; ioWeapon::IsLive
_TEXT	ENDS
PUBLIC	?size@?$vector@VioHashString@@V?$allocator@VioHashString@@@std@@@std@@QBEIXZ ; std::vector<ioHashString,std::allocator<ioHashString> >::size
; Function compile flags: /Ogsp
; File c:\program files (x86)\microsoft visual studio 10.0\vc\include\vector
;	COMDAT ?size@?$vector@VioHashString@@V?$allocator@VioHashString@@@std@@@std@@QBEIXZ
_TEXT	SEGMENT
?size@?$vector@VioHashString@@V?$allocator@VioHashString@@@std@@@std@@QBEIXZ PROC ; std::vector<ioHashString,std::allocator<ioHashString> >::size, COMDAT
; _this$ = ecx

; 879  : 		return (this->_Mylast - this->_Myfirst);

  00000	8b 41 04	 mov	 eax, DWORD PTR [ecx+4]
  00003	2b 01		 sub	 eax, DWORD PTR [ecx]
  00005	c1 f8 04	 sar	 eax, 4

; 880  : 		}

  00008	c3		 ret	 0
?size@?$vector@VioHashString@@V?$allocator@VioHashString@@@std@@@std@@QBEIXZ ENDP ; std::vector<ioHashString,std::allocator<ioHashString> >::size
_TEXT	ENDS
PUBLIC	??_7?$CEncrypt@M@@6B@				; CEncrypt<float>::`vftable'
PUBLIC	??1?$CEncrypt@M@@UAE@XZ				; CEncrypt<float>::~CEncrypt<float>
PUBLIC	??_R4?$CEncrypt@M@@6B@				; CEncrypt<float>::`RTTI Complete Object Locator'
PUBLIC	??_R0?AV?$CEncrypt@M@@@8			; CEncrypt<float> `RTTI Type Descriptor'
PUBLIC	??_R3?$CEncrypt@M@@8				; CEncrypt<float>::`RTTI Class Hierarchy Descriptor'
PUBLIC	??_R2?$CEncrypt@M@@8				; CEncrypt<float>::`RTTI Base Class Array'
PUBLIC	??_R1A@?0A@EA@?$CEncrypt@M@@8			; CEncrypt<float>::`RTTI Base Class Descriptor at (0,-1,0,64)'
EXTRN	??1ccddaabb@@UAE@XZ:PROC			; ccddaabb::~ccddaabb
EXTRN	??_E?$CEncrypt@M@@UAEPAXI@Z:PROC		; CEncrypt<float>::`vector deleting destructor'
;	COMDAT ??_R1A@?0A@EA@?$CEncrypt@M@@8
; File d:\lost saga for developer\youtube\tutorial\source\src\lsclient\encryptvalue.h
rdata$r	SEGMENT
??_R1A@?0A@EA@?$CEncrypt@M@@8 DD FLAT:??_R0?AV?$CEncrypt@M@@@8 ; CEncrypt<float>::`RTTI Base Class Descriptor at (0,-1,0,64)'
	DD	00H
	DD	00H
	DD	0ffffffffH
	DD	00H
	DD	040H
	DD	FLAT:??_R3?$CEncrypt@M@@8
rdata$r	ENDS
;	COMDAT ??_R2?$CEncrypt@M@@8
rdata$r	SEGMENT
??_R2?$CEncrypt@M@@8 DD FLAT:??_R1A@?0A@EA@?$CEncrypt@M@@8 ; CEncrypt<float>::`RTTI Base Class Array'
rdata$r	ENDS
;	COMDAT ??_R3?$CEncrypt@M@@8
rdata$r	SEGMENT
??_R3?$CEncrypt@M@@8 DD 00H				; CEncrypt<float>::`RTTI Class Hierarchy Descriptor'
	DD	00H
	DD	01H
	DD	FLAT:??_R2?$CEncrypt@M@@8
rdata$r	ENDS
;	COMDAT ??_R0?AV?$CEncrypt@M@@@8
_DATA	SEGMENT
??_R0?AV?$CEncrypt@M@@@8 DD FLAT:??_7type_info@@6B@	; CEncrypt<float> `RTTI Type Descriptor'
	DD	00H
	DB	'.?AV?$CEncrypt@M@@', 00H
_DATA	ENDS
;	COMDAT ??_R4?$CEncrypt@M@@6B@
rdata$r	SEGMENT
??_R4?$CEncrypt@M@@6B@ DD 00H				; CEncrypt<float>::`RTTI Complete Object Locator'
	DD	00H
	DD	00H
	DD	FLAT:??_R0?AV?$CEncrypt@M@@@8
	DD	FLAT:??_R3?$CEncrypt@M@@8
rdata$r	ENDS
;	COMDAT ??_7?$CEncrypt@M@@6B@
CONST	SEGMENT
??_7?$CEncrypt@M@@6B@ DD FLAT:??_R4?$CEncrypt@M@@6B@	; CEncrypt<float>::`vftable'
	DD	FLAT:??_E?$CEncrypt@M@@UAEPAXI@Z
; Function compile flags: /Ogsp
CONST	ENDS
;	COMDAT ??1?$CEncrypt@M@@UAE@XZ
_TEXT	SEGMENT
??1?$CEncrypt@M@@UAE@XZ PROC				; CEncrypt<float>::~CEncrypt<float>, COMDAT
; _this$ = ecx

; 127  : 	{

  00000	c7 01 00 00 00
	00		 mov	 DWORD PTR [ecx], OFFSET ??_7?$CEncrypt@M@@6B@

; 128  : 	}

  00006	83 c1 0c	 add	 ecx, 12			; 0000000cH
  00009	e9 00 00 00 00	 jmp	 ??1ccddaabb@@UAE@XZ	; ccddaabb::~ccddaabb
??1?$CEncrypt@M@@UAE@XZ ENDP				; CEncrypt<float>::~CEncrypt<float>
; Function compile flags: /Ogsp
_TEXT	ENDS
;	COMDAT ??_G?$CEncrypt@M@@UAEPAXI@Z
_TEXT	SEGMENT
___flags$ = 8						; size = 4
??_G?$CEncrypt@M@@UAEPAXI@Z PROC			; CEncrypt<float>::`scalar deleting destructor', COMDAT
; _this$ = ecx
  00000	55		 push	 ebp
  00001	8b ec		 mov	 ebp, esp
  00003	56		 push	 esi
  00004	8b f1		 mov	 esi, ecx
  00006	8d 4e 0c	 lea	 ecx, DWORD PTR [esi+12]
  00009	c7 06 00 00 00
	00		 mov	 DWORD PTR [esi], OFFSET ??_7?$CEncrypt@M@@6B@
  0000f	e8 00 00 00 00	 call	 ??1ccddaabb@@UAE@XZ	; ccddaabb::~ccddaabb
  00014	f6 45 08 01	 test	 BYTE PTR ___flags$[ebp], 1
  00018	74 07		 je	 SHORT $LN1@scalar@3
  0001a	56		 push	 esi
  0001b	e8 00 00 00 00	 call	 ??3@YAXPAX@Z		; operator delete
  00020	59		 pop	 ecx
$LN1@scalar@3:
  00021	8b c6		 mov	 eax, esi
  00023	5e		 pop	 esi
  00024	5d		 pop	 ebp
  00025	c2 04 00	 ret	 4
??_G?$CEncrypt@M@@UAEPAXI@Z ENDP			; CEncrypt<float>::`scalar deleting destructor'
_TEXT	ENDS
PUBLIC	??1?$_Vector_val@VioHashString@@V?$allocator@VioHashString@@@std@@@std@@QAE@XZ ; std::_Vector_val<ioHashString,std::allocator<ioHashString> >::~_Vector_val<ioHashString,std::allocator<ioHashString> >
; Function compile flags: /Ogsp
; File c:\program files (x86)\microsoft visual studio 10.0\vc\include\vector
;	COMDAT ??1?$_Vector_val@VioHashString@@V?$allocator@VioHashString@@@std@@@std@@QAE@XZ
_TEXT	SEGMENT
??1?$_Vector_val@VioHashString@@V?$allocator@VioHashString@@@std@@@std@@QAE@XZ PROC ; std::_Vector_val<ioHashString,std::allocator<ioHashString> >::~_Vector_val<ioHashString,std::allocator<ioHashString> >, COMDAT
; _this$ = ecx

; 434  : 		}

  00000	c3		 ret	 0
??1?$_Vector_val@VioHashString@@V?$allocator@VioHashString@@@std@@@std@@QAE@XZ ENDP ; std::_Vector_val<ioHashString,std::allocator<ioHashString> >::~_Vector_val<ioHashString,std::allocator<ioHashString> >
_TEXT	ENDS
PUBLIC	??0?$allocator@VioHashString@@@std@@QAE@XZ	; std::allocator<ioHashString>::allocator<ioHashString>
; Function compile flags: /Ogsp
; File c:\program files (x86)\microsoft visual studio 10.0\vc\include\xmemory
;	COMDAT ??0?$allocator@VioHashString@@@std@@QAE@XZ
_TEXT	SEGMENT
??0?$allocator@VioHashString@@@std@@QAE@XZ PROC		; std::allocator<ioHashString>::allocator<ioHashString>, COMDAT
; _this$ = ecx

; 161  : 	_ALLOCATOR() _THROW0()

  00000	8b c1		 mov	 eax, ecx

; 162  : 		{	// construct default allocator (do nothing)
; 163  : 		}

  00002	c3		 ret	 0
??0?$allocator@VioHashString@@@std@@QAE@XZ ENDP		; std::allocator<ioHashString>::allocator<ioHashString>
_TEXT	ENDS
PUBLIC	??0?$allocator@VioHashString@@@std@@QAE@ABV01@@Z ; std::allocator<ioHashString>::allocator<ioHashString>
; Function compile flags: /Ogsp
;	COMDAT ??0?$allocator@VioHashString@@@std@@QAE@ABV01@@Z
_TEXT	SEGMENT
___formal$ = 8						; size = 4
??0?$allocator@VioHashString@@@std@@QAE@ABV01@@Z PROC	; std::allocator<ioHashString>::allocator<ioHashString>, COMDAT
; _this$ = ecx

; 165  : 	_ALLOCATOR(const _ALLOCATOR<_Ty>&) _THROW0()

  00000	8b c1		 mov	 eax, ecx

; 166  : 		{	// construct by copying (do nothing)
; 167  : 		}

  00002	c2 04 00	 ret	 4
??0?$allocator@VioHashString@@@std@@QAE@ABV01@@Z ENDP	; std::allocator<ioHashString>::allocator<ioHashString>
_TEXT	ENDS
PUBLIC	?EncryptValueToPool@?$CEncrypt@M@@AAEXPBD@Z	; CEncrypt<float>::EncryptValueToPool
EXTRN	?EncryptByte@ccddaabb@@QAEXPBDPADH@Z:PROC	; ccddaabb::EncryptByte
; Function compile flags: /Ogsp
; File d:\lost saga for developer\youtube\tutorial\source\src\lsclient\encryptvalue.h
;	COMDAT ?EncryptValueToPool@?$CEncrypt@M@@AAEXPBD@Z
_TEXT	SEGMENT
_value$ = 8						; size = 4
?EncryptValueToPool@?$CEncrypt@M@@AAEXPBD@Z PROC	; CEncrypt<float>::EncryptValueToPool, COMDAT
; _this$ = ecx

; 67   : 	{

  00000	55		 push	 ebp
  00001	8b ec		 mov	 ebp, esp

; 68   : 		m_RC5.EncryptByte( value, m_MemPool, max(m_ValueSize, DEFAULT_ENCRYPT) );

  00003	0f b7 41 06	 movzx	 eax, WORD PTR [ecx+6]
  00007	83 f8 04	 cmp	 eax, 4
  0000a	77 03		 ja	 SHORT $LN4@EncryptVal
  0000c	6a 04		 push	 4
  0000e	58		 pop	 eax
$LN4@EncryptVal:
  0000f	50		 push	 eax
  00010	8d 41 1c	 lea	 eax, DWORD PTR [ecx+28]
  00013	50		 push	 eax
  00014	ff 75 08	 push	 DWORD PTR _value$[ebp]
  00017	83 c1 0c	 add	 ecx, 12			; 0000000cH
  0001a	e8 00 00 00 00	 call	 ?EncryptByte@ccddaabb@@QAEXPBDPADH@Z ; ccddaabb::EncryptByte

; 69   : 		
; 70   : 	}

  0001f	5d		 pop	 ebp
  00020	c2 04 00	 ret	 4
?EncryptValueToPool@?$CEncrypt@M@@AAEXPBD@Z ENDP	; CEncrypt<float>::EncryptValueToPool
_TEXT	ENDS
PUBLIC	?Init@?$CEncrypt@M@@AAEXXZ			; CEncrypt<float>::Init
EXTRN	?Setup@ccddaabb@@QAEXPBDHH@Z:PROC		; ccddaabb::Setup
EXTRN	__imp__rand:PROC
EXTRN	__imp__timeGetTime@0:PROC
EXTRN	__imp__GetCurrentProcessId@0:PROC
; Function compile flags: /Ogsp
;	COMDAT ?Init@?$CEncrypt@M@@AAEXXZ
_TEXT	SEGMENT
_pid$ = -8						; size = 4
_tick$ = -4						; size = 4
?Init@?$CEncrypt@M@@AAEXXZ PROC				; CEncrypt<float>::Init, COMDAT
; _this$ = ecx

; 73   : 	{

  00000	55		 push	 ebp
  00001	8b ec		 mov	 ebp, esp
  00003	51		 push	 ecx
  00004	51		 push	 ecx
  00005	53		 push	 ebx
  00006	56		 push	 esi
  00007	57		 push	 edi
  00008	8b f1		 mov	 esi, ecx

; 74   : 		DWORD pid = GetCurrentProcessId();

  0000a	ff 15 00 00 00
	00		 call	 DWORD PTR __imp__GetCurrentProcessId@0
  00010	89 45 f8	 mov	 DWORD PTR _pid$[ebp], eax

; 75   : 		DWORD tick = timeGetTime();

  00013	ff 15 00 00 00
	00		 call	 DWORD PTR __imp__timeGetTime@0

; 76   : 		m_ValueSize    = sizeof(type);
; 77   : 		m_MemPoolPos   = (unsigned short)( rand()+pid+tick )%(MAX_MEM_POOL-m_ValueSize);

  00019	8b 3d 00 00 00
	00		 mov	 edi, DWORD PTR __imp__rand
  0001f	89 45 fc	 mov	 DWORD PTR _tick$[ebp], eax
  00022	6a 04		 push	 4
  00024	58		 pop	 eax
  00025	66 89 46 06	 mov	 WORD PTR [esi+6], ax
  00029	ff d7		 call	 edi
  0002b	03 45 f8	 add	 eax, DWORD PTR _pid$[ebp]
  0002e	0f b7 4e 06	 movzx	 ecx, WORD PTR [esi+6]
  00032	03 45 fc	 add	 eax, DWORD PTR _tick$[ebp]
  00035	6a 0c		 push	 12			; 0000000cH
  00037	0f b7 c0	 movzx	 eax, ax
  0003a	5b		 pop	 ebx
  0003b	99		 cdq
  0003c	2b d9		 sub	 ebx, ecx
  0003e	f7 fb		 idiv	 ebx
  00040	66 89 56 04	 mov	 WORD PTR [esi+4], dx

; 78   : 		m_EncryptSeed  = (char)( rand()+pid+tick )%256;

  00044	ff d7		 call	 edi
  00046	02 45 f8	 add	 al, BYTE PTR _pid$[ebp]
  00049	02 45 fc	 add	 al, BYTE PTR _tick$[ebp]
  0004c	0f be c0	 movsx	 eax, al
  0004f	25 ff 00 00 80	 and	 eax, -2147483393	; 800000ffH
  00054	79 07		 jns	 SHORT $LN8@Init
  00056	48		 dec	 eax
  00057	0d 00 ff ff ff	 or	 eax, -256		; ffffff00H
  0005c	40		 inc	 eax
$LN8@Init:
  0005d	88 46 08	 mov	 BYTE PTR [esi+8], al

; 79   : 
; 80   : 		for (int i = 0; i < MAX_MEM_POOL ; i++)

  00060	33 db		 xor	 ebx, ebx
$LL3@Init:

; 81   : 			m_MemPool[i] = (char)( rand()+pid+tick )%256; // 

  00062	ff d7		 call	 edi
  00064	02 45 f8	 add	 al, BYTE PTR _pid$[ebp]
  00067	02 45 fc	 add	 al, BYTE PTR _tick$[ebp]
  0006a	0f be c0	 movsx	 eax, al
  0006d	25 ff 00 00 80	 and	 eax, -2147483393	; 800000ffH
  00072	79 07		 jns	 SHORT $LN9@Init
  00074	48		 dec	 eax
  00075	0d 00 ff ff ff	 or	 eax, -256		; ffffff00H
  0007a	40		 inc	 eax
$LN9@Init:
  0007b	88 44 1e 1c	 mov	 BYTE PTR [esi+ebx+28], al
  0007f	43		 inc	 ebx
  00080	83 fb 0c	 cmp	 ebx, 12			; 0000000cH
  00083	7c dd		 jl	 SHORT $LL3@Init

; 82   : 
; 83   : 		//UJ 130913, : szKey  
; 84   : 		//char szKey[ccddaabb::KEY_SIZE];//="";
; 85   : 		//for (int i = 0; i < ccddaabb::KEY_SIZE  ; i++)
; 86   : 		//	szKey[i] = (char)( rand()+pid+tick )%256; // 
; 87   : 		m_RC5.Setup( NULL, pid, tick );

  00085	ff 75 fc	 push	 DWORD PTR _tick$[ebp]
  00088	8d 4e 0c	 lea	 ecx, DWORD PTR [esi+12]
  0008b	ff 75 f8	 push	 DWORD PTR _pid$[ebp]
  0008e	6a 00		 push	 0
  00090	e8 00 00 00 00	 call	 ?Setup@ccddaabb@@QAEXPBDHH@Z ; ccddaabb::Setup
  00095	5f		 pop	 edi
  00096	5e		 pop	 esi
  00097	5b		 pop	 ebx

; 88   : 
; 89   : #ifdef _NOTUSE
; 90   : 		m_value        = 0;
; 91   : 		EncryptValueToPool((char*)&m_value);
; 92   : 		Debug();
; 93   : #endif
; 94   : 	}

  00098	c9		 leave
  00099	c3		 ret	 0
?Init@?$CEncrypt@M@@AAEXXZ ENDP				; CEncrypt<float>::Init
_TEXT	ENDS
PUBLIC	?DecryptValueToPool@?$CEncrypt@M@@QAEXPAM@Z	; CEncrypt<float>::DecryptValueToPool
EXTRN	?DecryptByte@ccddaabb@@QBEXPBDPADH@Z:PROC	; ccddaabb::DecryptByte
; Function compile flags: /Ogsp
;	COMDAT ?DecryptValueToPool@?$CEncrypt@M@@QAEXPAM@Z
_TEXT	SEGMENT
_value$ = 8						; size = 4
?DecryptValueToPool@?$CEncrypt@M@@QAEXPAM@Z PROC	; CEncrypt<float>::DecryptValueToPool, COMDAT
; _this$ = ecx

; 1648 : 	{

  00000	55		 push	 ebp
  00001	8b ec		 mov	 ebp, esp
  00003	56		 push	 esi

; 1649 : 		m_RC5.DecryptByte( m_MemPool, m_TempMem, 4 );

  00004	8d 71 28	 lea	 esi, DWORD PTR [ecx+40]
  00007	6a 04		 push	 4
  00009	8d 41 1c	 lea	 eax, DWORD PTR [ecx+28]
  0000c	56		 push	 esi
  0000d	50		 push	 eax
  0000e	83 c1 0c	 add	 ecx, 12			; 0000000cH
  00011	e8 00 00 00 00	 call	 ?DecryptByte@ccddaabb@@QBEXPBDPADH@Z ; ccddaabb::DecryptByte

; 1650 : 		*value = *((float*)m_TempMem);

  00016	d9 06		 fld	 DWORD PTR [esi]
  00018	8b 45 08	 mov	 eax, DWORD PTR _value$[ebp]
  0001b	d9 18		 fstp	 DWORD PTR [eax]
  0001d	5e		 pop	 esi

; 1651 : 	}

  0001e	5d		 pop	 ebp
  0001f	c2 04 00	 ret	 4
?DecryptValueToPool@?$CEncrypt@M@@QAEXPAM@Z ENDP	; CEncrypt<float>::DecryptValueToPool
_TEXT	ENDS
PUBLIC	?_Xlen@?$vector@VioHashString@@V?$allocator@VioHashString@@@std@@@std@@IBEXXZ ; std::vector<ioHashString,std::allocator<ioHashString> >::_Xlen
; Function compile flags: /Ogsp
; File c:\program files (x86)\microsoft visual studio 10.0\vc\include\vector
;	COMDAT ?_Xlen@?$vector@VioHashString@@V?$allocator@VioHashString@@@std@@@std@@IBEXXZ
_TEXT	SEGMENT
?_Xlen@?$vector@VioHashString@@V?$allocator@VioHashString@@@std@@@std@@IBEXXZ PROC ; std::vector<ioHashString,std::allocator<ioHashString> >::_Xlen, COMDAT
; _this$ = ecx

; 1427 : 		_Xlength_error("vector<T> too long");

  00000	68 00 00 00 00	 push	 OFFSET ??_C@_0BD@OLBABOEK@vector?$DMT?$DO?5too?5long?$AA@
  00005	ff 15 00 00 00
	00		 call	 DWORD PTR __imp_?_Xlength_error@std@@YAXPBD@Z
$LN4@Xlen@2:
$LN3@Xlen@2:
  0000b	cc		 int	 3
?_Xlen@?$vector@VioHashString@@V?$allocator@VioHashString@@@std@@@std@@IBEXXZ ENDP ; std::vector<ioHashString,std::allocator<ioHashString> >::_Xlen
_TEXT	ENDS
PUBLIC	?deallocate@?$allocator@VioHashString@@@std@@QAEXPAVioHashString@@I@Z ; std::allocator<ioHashString>::deallocate
; Function compile flags: /Ogsp
; File c:\program files (x86)\microsoft visual studio 10.0\vc\include\xmemory
;	COMDAT ?deallocate@?$allocator@VioHashString@@@std@@QAEXPAVioHashString@@I@Z
_TEXT	SEGMENT
__Ptr$ = 8						; size = 4
___formal$ = 12						; size = 4
?deallocate@?$allocator@VioHashString@@@std@@QAEXPAVioHashString@@I@Z PROC ; std::allocator<ioHashString>::deallocate, COMDAT
; _this$ = ecx

; 181  : 		{	// deallocate object at _Ptr, ignore size

  00000	55		 push	 ebp
  00001	8b ec		 mov	 ebp, esp

; 182  : 		::operator delete(_Ptr);

  00003	ff 75 08	 push	 DWORD PTR __Ptr$[ebp]
  00006	e8 00 00 00 00	 call	 ??3@YAXPAX@Z		; operator delete
  0000b	59		 pop	 ecx

; 183  : 		}

  0000c	5d		 pop	 ebp
  0000d	c2 08 00	 ret	 8
?deallocate@?$allocator@VioHashString@@@std@@QAEXPAVioHashString@@I@Z ENDP ; std::allocator<ioHashString>::deallocate
_TEXT	ENDS
PUBLIC	??0?$_Vector_const_iterator@V?$_Vector_val@VioHashString@@V?$allocator@VioHashString@@@std@@@std@@@std@@QAE@PAVioHashString@@PBU_Container_base0@1@@Z ; std::_Vector_const_iterator<std::_Vector_val<ioHashString,std::allocator<ioHashString> > >::_Vector_const_iterator<std::_Vector_val<ioHashString,std::allocator<ioHashString> > >
; Function compile flags: /Ogsp
; File c:\program files (x86)\microsoft visual studio 10.0\vc\include\vector
;	COMDAT ??0?$_Vector_const_iterator@V?$_Vector_val@VioHashString@@V?$allocator@VioHashString@@@std@@@std@@@std@@QAE@PAVioHashString@@PBU_Container_base0@1@@Z
_TEXT	SEGMENT
__Parg$ = 8						; size = 4
__Pvector$ = 12						; size = 4
??0?$_Vector_const_iterator@V?$_Vector_val@VioHashString@@V?$allocator@VioHashString@@@std@@@std@@@std@@QAE@PAVioHashString@@PBU_Container_base0@1@@Z PROC ; std::_Vector_const_iterator<std::_Vector_val<ioHashString,std::allocator<ioHashString> > >::_Vector_const_iterator<std::_Vector_val<ioHashString,std::allocator<ioHashString> > >, COMDAT
; _this$ = ecx

; 45   : 		{	// construct with pointer _Parg

  00000	55		 push	 ebp
  00001	8b ec		 mov	 ebp, esp
  00003	8b c1		 mov	 eax, ecx
  00005	8b 4d 08	 mov	 ecx, DWORD PTR __Parg$[ebp]
  00008	89 08		 mov	 DWORD PTR [eax], ecx

; 46   : 		this->_Adopt(_Pvector);
; 47   : 		}

  0000a	5d		 pop	 ebp
  0000b	c2 08 00	 ret	 8
??0?$_Vector_const_iterator@V?$_Vector_val@VioHashString@@V?$allocator@VioHashString@@@std@@@std@@@std@@QAE@PAVioHashString@@PBU_Container_base0@1@@Z ENDP ; std::_Vector_const_iterator<std::_Vector_val<ioHashString,std::allocator<ioHashString> > >::_Vector_const_iterator<std::_Vector_val<ioHashString,std::allocator<ioHashString> > >
_TEXT	ENDS
PUBLIC	??0?$_Vector_iterator@V?$_Vector_val@VioHashString@@V?$allocator@VioHashString@@@std@@@std@@@std@@QAE@PAVioHashString@@PBU_Container_base0@1@@Z ; std::_Vector_iterator<std::_Vector_val<ioHashString,std::allocator<ioHashString> > >::_Vector_iterator<std::_Vector_val<ioHashString,std::allocator<ioHashString> > >
; Function compile flags: /Ogsp
;	COMDAT ??0?$_Vector_iterator@V?$_Vector_val@VioHashString@@V?$allocator@VioHashString@@@std@@@std@@@std@@QAE@PAVioHashString@@PBU_Container_base0@1@@Z
_TEXT	SEGMENT
__Parg$ = 8						; size = 4
__Pvector$ = 12						; size = 4
??0?$_Vector_iterator@V?$_Vector_val@VioHashString@@V?$allocator@VioHashString@@@std@@@std@@@std@@QAE@PAVioHashString@@PBU_Container_base0@1@@Z PROC ; std::_Vector_iterator<std::_Vector_val<ioHashString,std::allocator<ioHashString> > >::_Vector_iterator<std::_Vector_val<ioHashString,std::allocator<ioHashString> > >, COMDAT
; _this$ = ecx

; 304  : 		{	// construct with pointer _Parg

  00000	55		 push	 ebp
  00001	8b ec		 mov	 ebp, esp
  00003	8b c1		 mov	 eax, ecx
  00005	8b 4d 08	 mov	 ecx, DWORD PTR __Parg$[ebp]
  00008	89 08		 mov	 DWORD PTR [eax], ecx

; 305  : 		}

  0000a	5d		 pop	 ebp
  0000b	c2 08 00	 ret	 8
??0?$_Vector_iterator@V?$_Vector_val@VioHashString@@V?$allocator@VioHashString@@@std@@@std@@@std@@QAE@PAVioHashString@@PBU_Container_base0@1@@Z ENDP ; std::_Vector_iterator<std::_Vector_val<ioHashString,std::allocator<ioHashString> > >::_Vector_iterator<std::_Vector_val<ioHashString,std::allocator<ioHashString> > >
_TEXT	ENDS
PUBLIC	?max_size@?$allocator@VioHashString@@@std@@QBEIXZ ; std::allocator<ioHashString>::max_size
; Function compile flags: /Ogsp
; File c:\program files (x86)\microsoft visual studio 10.0\vc\include\xmemory
;	COMDAT ?max_size@?$allocator@VioHashString@@@std@@QBEIXZ
_TEXT	SEGMENT
?max_size@?$allocator@VioHashString@@@std@@QBEIXZ PROC	; std::allocator<ioHashString>::max_size, COMDAT
; _this$ = ecx

; 218  : 		_SIZT _Count = (_SIZT)(-1) / sizeof (_Ty);
; 219  : 		return (0 < _Count ? _Count : 1);

  00000	b8 ff ff ff 0f	 mov	 eax, 268435455		; 0fffffffH

; 220  : 		}

  00005	c3		 ret	 0
?max_size@?$allocator@VioHashString@@@std@@QBEIXZ ENDP	; std::allocator<ioHashString>::max_size
_TEXT	ENDS
PUBLIC	?_Compat@?$_Vector_const_iterator@V?$_Vector_val@VioHashString@@V?$allocator@VioHashString@@@std@@@std@@@std@@QBEXABV12@@Z ; std::_Vector_const_iterator<std::_Vector_val<ioHashString,std::allocator<ioHashString> > >::_Compat
; Function compile flags: /Ogsp
; File c:\program files (x86)\microsoft visual studio 10.0\vc\include\vector
;	COMDAT ?_Compat@?$_Vector_const_iterator@V?$_Vector_val@VioHashString@@V?$allocator@VioHashString@@@std@@@std@@@std@@QBEXABV12@@Z
_TEXT	SEGMENT
___formal$ = 8						; size = 4
?_Compat@?$_Vector_const_iterator@V?$_Vector_val@VioHashString@@V?$allocator@VioHashString@@@std@@@std@@@std@@QBEXABV12@@Z PROC ; std::_Vector_const_iterator<std::_Vector_val<ioHashString,std::allocator<ioHashString> > >::_Compat, COMDAT
; _this$ = ecx

; 253  : 		}

  00000	c2 04 00	 ret	 4
?_Compat@?$_Vector_const_iterator@V?$_Vector_val@VioHashString@@V?$allocator@VioHashString@@@std@@@std@@@std@@QBEXABV12@@Z ENDP ; std::_Vector_const_iterator<std::_Vector_val<ioHashString,std::allocator<ioHashString> > >::_Compat
_TEXT	ENDS
PUBLIC	??$_Allocate@VioHashString@@@std@@YAPAVioHashString@@IPAV1@@Z ; std::_Allocate<ioHashString>
; Function compile flags: /Ogsp
; File c:\program files (x86)\microsoft visual studio 10.0\vc\include\xmemory
;	COMDAT ??$_Allocate@VioHashString@@@std@@YAPAVioHashString@@IPAV1@@Z
_TEXT	SEGMENT
$T533702 = -12						; size = 12
$T533706 = 8						; size = 4
__Count$ = 8						; size = 4
___formal$ = 12						; size = 4
??$_Allocate@VioHashString@@@std@@YAPAVioHashString@@IPAV1@@Z PROC ; std::_Allocate<ioHashString>, COMDAT

; 30   : 	{	// allocate storage for _Count elements of type _Ty

  00000	55		 push	 ebp
  00001	8b ec		 mov	 ebp, esp

; 31   : 	void *_Ptr = 0;
; 32   : 
; 33   : 	if (_Count <= 0)

  00003	8b 4d 08	 mov	 ecx, DWORD PTR __Count$[ebp]
  00006	83 ec 0c	 sub	 esp, 12			; 0000000cH
  00009	33 c0		 xor	 eax, eax
  0000b	85 c9		 test	 ecx, ecx

; 34   : 		_Count = 0;
; 35   : 	else if (((_SIZT)(-1) / sizeof (_Ty) < _Count)

  0000d	74 3c		 je	 SHORT $LN5@Allocate@3

; 36   : 		|| (_Ptr = ::operator new(_Count * sizeof (_Ty))) == 0)

  0000f	81 f9 ff ff ff
	0f		 cmp	 ecx, 268435455		; 0fffffffH
  00015	77 0e		 ja	 SHORT $LN1@Allocate@3
  00017	c1 e1 04	 shl	 ecx, 4
  0001a	51		 push	 ecx
  0001b	e8 00 00 00 00	 call	 ??2@YAPAXI@Z		; operator new
  00020	59		 pop	 ecx
  00021	85 c0		 test	 eax, eax

; 38   : 
; 39   : 	return ((_Ty _FARQ *)_Ptr);

  00023	75 26		 jne	 SHORT $LN5@Allocate@3
$LN1@Allocate@3:

; 37   : 		_THROW_NCEE(bad_alloc, 0);

  00025	83 65 08 00	 and	 DWORD PTR $T533706[ebp], 0
  00029	8d 45 08	 lea	 eax, DWORD PTR $T533706[ebp]
  0002c	50		 push	 eax
  0002d	8d 4d f4	 lea	 ecx, DWORD PTR $T533702[ebp]
  00030	ff 15 00 00 00
	00		 call	 DWORD PTR __imp_??0exception@std@@QAE@ABQBD@Z
  00036	68 00 00 00 00	 push	 OFFSET __TI2?AVbad_alloc@std@@
  0003b	8d 45 f4	 lea	 eax, DWORD PTR $T533702[ebp]
  0003e	50		 push	 eax
  0003f	c7 45 f4 00 00
	00 00		 mov	 DWORD PTR $T533702[ebp], OFFSET ??_7bad_alloc@std@@6B@
  00046	e8 00 00 00 00	 call	 __CxxThrowException@8
$LN10@Allocate@3:
$LN5@Allocate@3:

; 40   : 	}

  0004b	c9		 leave
  0004c	c3		 ret	 0
$LN9@Allocate@3:
??$_Allocate@VioHashString@@@std@@YAPAVioHashString@@IPAV1@@Z ENDP ; std::_Allocate<ioHashString>
_TEXT	ENDS
EXTRN	__imp_??0exception@std@@QAE@ABV01@@Z:PROC
; Function compile flags: /Ogsp
;	COMDAT ??0bad_alloc@std@@QAE@ABV01@@Z
_TEXT	SEGMENT
___that$ = 8						; size = 4
??0bad_alloc@std@@QAE@ABV01@@Z PROC			; std::bad_alloc::bad_alloc, COMDAT
; _this$ = ecx
  00000	55		 push	 ebp
  00001	8b ec		 mov	 ebp, esp
  00003	56		 push	 esi
  00004	ff 75 08	 push	 DWORD PTR ___that$[ebp]
  00007	8b f1		 mov	 esi, ecx
  00009	ff 15 00 00 00
	00		 call	 DWORD PTR __imp_??0exception@std@@QAE@ABV01@@Z
  0000f	c7 06 00 00 00
	00		 mov	 DWORD PTR [esi], OFFSET ??_7bad_alloc@std@@6B@
  00015	8b c6		 mov	 eax, esi
  00017	5e		 pop	 esi
  00018	5d		 pop	 ebp
  00019	c2 04 00	 ret	 4
??0bad_alloc@std@@QAE@ABV01@@Z ENDP			; std::bad_alloc::bad_alloc
_TEXT	ENDS
PUBLIC	??$forward@ABVioHashString@@@std@@YAABVioHashString@@ABV1@@Z ; std::forward<ioHashString const &>
; Function compile flags: /Ogsp
; File c:\program files (x86)\microsoft visual studio 10.0\vc\include\utility
;	COMDAT ??$forward@ABVioHashString@@@std@@YAABVioHashString@@ABV1@@Z
_TEXT	SEGMENT
__Arg$ = 8						; size = 4
??$forward@ABVioHashString@@@std@@YAABVioHashString@@ABV1@@Z PROC ; std::forward<ioHashString const &>, COMDAT

; 78   : 	{	// forward _Arg, given explicitly specified type parameter

  00000	55		 push	 ebp
  00001	8b ec		 mov	 ebp, esp

; 79   : 	return ((_Ty&&)_Arg);

  00003	8b 45 08	 mov	 eax, DWORD PTR __Arg$[ebp]

; 80   : 	}

  00006	5d		 pop	 ebp
  00007	c3		 ret	 0
??$forward@ABVioHashString@@@std@@YAABVioHashString@@ABV1@@Z ENDP ; std::forward<ioHashString const &>
_TEXT	ENDS
PUBLIC	??$forward@AAVioHashString@@@std@@YAAAVioHashString@@AAV1@@Z ; std::forward<ioHashString &>
; Function compile flags: /Ogsp
;	COMDAT ??$forward@AAVioHashString@@@std@@YAAAVioHashString@@AAV1@@Z
_TEXT	SEGMENT
__Arg$ = 8						; size = 4
??$forward@AAVioHashString@@@std@@YAAAVioHashString@@AAV1@@Z PROC ; std::forward<ioHashString &>, COMDAT

; 78   : 	{	// forward _Arg, given explicitly specified type parameter

  00000	55		 push	 ebp
  00001	8b ec		 mov	 ebp, esp

; 79   : 	return ((_Ty&&)_Arg);

  00003	8b 45 08	 mov	 eax, DWORD PTR __Arg$[ebp]

; 80   : 	}

  00006	5d		 pop	 ebp
  00007	c3		 ret	 0
??$forward@AAVioHashString@@@std@@YAAAVioHashString@@AAV1@@Z ENDP ; std::forward<ioHashString &>
_TEXT	ENDS
PUBLIC	??$_Ptr_cat@VioHashString@@V1@@std@@YA?AU_Nonscalar_ptr_iterator_tag@0@PAVioHashString@@0@Z ; std::_Ptr_cat<ioHashString,ioHashString>
; Function compile flags: /Ogsp
; File c:\program files (x86)\microsoft visual studio 10.0\vc\include\xutility
;	COMDAT ??$_Ptr_cat@VioHashString@@V1@@std@@YA?AU_Nonscalar_ptr_iterator_tag@0@PAVioHashString@@0@Z
_TEXT	SEGMENT
__Cat$ = -1						; size = 1
___formal$ = 8						; size = 4
___formal$ = 12						; size = 4
??$_Ptr_cat@VioHashString@@V1@@std@@YA?AU_Nonscalar_ptr_iterator_tag@0@PAVioHashString@@0@Z PROC ; std::_Ptr_cat<ioHashString,ioHashString>, COMDAT

; 516  : 	{	// return pointer category from pointers

  00000	55		 push	 ebp
  00001	8b ec		 mov	 ebp, esp
  00003	51		 push	 ecx

; 517  : 	typename _Ptr_cat_helper<_Elem1, _Elem2>::_Type _Cat;
; 518  : 	return (_Cat);

  00004	8a 45 ff	 mov	 al, BYTE PTR __Cat$[ebp]

; 519  : 	}

  00007	c9		 leave
  00008	c3		 ret	 0
??$_Ptr_cat@VioHashString@@V1@@std@@YA?AU_Nonscalar_ptr_iterator_tag@0@PAVioHashString@@0@Z ENDP ; std::_Ptr_cat<ioHashString,ioHashString>
_TEXT	ENDS
PUBLIC	??$move@AAVioHashString@@@std@@YA$$QAVioHashString@@AAV1@@Z ; std::move<ioHashString &>
; Function compile flags: /Ogsp
; File c:\program files (x86)\microsoft visual studio 10.0\vc\include\utility
;	COMDAT ??$move@AAVioHashString@@@std@@YA$$QAVioHashString@@AAV1@@Z
_TEXT	SEGMENT
__Arg$ = 8						; size = 4
??$move@AAVioHashString@@@std@@YA$$QAVioHashString@@AAV1@@Z PROC ; std::move<ioHashString &>, COMDAT

; 86   : 	{	// forward _Arg as movable

  00000	55		 push	 ebp
  00001	8b ec		 mov	 ebp, esp

; 87   : 	return ((typename tr1::_Remove_reference<_Ty>::_Type&&)_Arg);

  00003	8b 45 08	 mov	 eax, DWORD PTR __Arg$[ebp]

; 88   : 	}

  00006	5d		 pop	 ebp
  00007	c3		 ret	 0
??$move@AAVioHashString@@@std@@YA$$QAVioHashString@@AAV1@@Z ENDP ; std::move<ioHashString &>
_TEXT	ENDS
PUBLIC	??_GioHashString@@QAEPAXI@Z			; ioHashString::`scalar deleting destructor'
; Function compile flags: /Ogsp
;	COMDAT ??_GioHashString@@QAEPAXI@Z
_TEXT	SEGMENT
___flags$ = 8						; size = 4
??_GioHashString@@QAEPAXI@Z PROC			; ioHashString::`scalar deleting destructor', COMDAT
; _this$ = ecx
  00000	55		 push	 ebp
  00001	8b ec		 mov	 ebp, esp
  00003	56		 push	 esi
  00004	8b f1		 mov	 esi, ecx
  00006	ff 15 00 00 00
	00		 call	 DWORD PTR __imp_??1ioHashString@@QAE@XZ
  0000c	f6 45 08 01	 test	 BYTE PTR ___flags$[ebp], 1
  00010	74 07		 je	 SHORT $LN1@scalar@4
  00012	56		 push	 esi
  00013	e8 00 00 00 00	 call	 ??3@YAXPAX@Z		; operator delete
  00018	59		 pop	 ecx
$LN1@scalar@4:
  00019	8b c6		 mov	 eax, esi
  0001b	5e		 pop	 esi
  0001c	5d		 pop	 ebp
  0001d	c2 04 00	 ret	 4
??_GioHashString@@QAEPAXI@Z ENDP			; ioHashString::`scalar deleting destructor'
_TEXT	ENDS
PUBLIC	??$_Construct@VioHashString@@ABV1@@std@@YAXPAVioHashString@@ABV1@@Z ; std::_Construct<ioHashString,ioHashString const &>
EXTRN	___CxxFrameHandler3:PROC
EXTRN	@__security_check_cookie@4:PROC
EXTRN	__EH_epilog3:PROC
EXTRN	__EH_prolog3:PROC
;	COMDAT xdata$x
xdata$x	SEGMENT
__unwindtable$??$_Construct@VioHashString@@ABV1@@std@@YAXPAVioHashString@@ABV1@@Z DD 0ffffffffH
	DD	FLAT:__unwindfunclet$??$_Construct@VioHashString@@ABV1@@std@@YAXPAVioHashString@@ABV1@@Z$0
__ehfuncinfo$??$_Construct@VioHashString@@ABV1@@std@@YAXPAVioHashString@@ABV1@@Z DD 019930522H
	DD	01H
	DD	FLAT:__unwindtable$??$_Construct@VioHashString@@ABV1@@std@@YAXPAVioHashString@@ABV1@@Z
	DD	2 DUP(00H)
	DD	2 DUP(00H)
	DD	00H
	DD	01H
; Function compile flags: /Ogsp
; File c:\program files (x86)\microsoft visual studio 10.0\vc\include\xmemory
xdata$x	ENDS
;	COMDAT ??$_Construct@VioHashString@@ABV1@@std@@YAXPAVioHashString@@ABV1@@Z
_TEXT	SEGMENT
$T533725 = -16						; size = 4
__$EHRec$ = -12						; size = 12
__Vptr$ = 8						; size = 4
__Ptr$ = 8						; size = 4
__Val$ = 12						; size = 4
??$_Construct@VioHashString@@ABV1@@std@@YAXPAVioHashString@@ABV1@@Z PROC ; std::_Construct<ioHashString,ioHashString const &>, COMDAT

; 46   : 	{	// construct object at _Ptr with value _Val

  00000	6a 04		 push	 4
  00002	b8 00 00 00 00	 mov	 eax, __ehhandler$??$_Construct@VioHashString@@ABV1@@std@@YAXPAVioHashString@@ABV1@@Z
  00007	e8 00 00 00 00	 call	 __EH_prolog3

; 47   : 	void _FARQ *_Vptr = _Ptr;

  0000c	8b 4d 08	 mov	 ecx, DWORD PTR __Ptr$[ebp]
  0000f	89 4d 08	 mov	 DWORD PTR __Vptr$[ebp], ecx

; 48   : 	::new (_Vptr) _Ty1(_STD forward<_Ty2>(_Val));

  00012	89 4d f0	 mov	 DWORD PTR $T533725[ebp], ecx
  00015	83 65 fc 00	 and	 DWORD PTR __$EHRec$[ebp+8], 0
  00019	85 c9		 test	 ecx, ecx
  0001b	74 09		 je	 SHORT $LN3@Construct@2
  0001d	ff 75 0c	 push	 DWORD PTR __Val$[ebp]
  00020	ff 15 00 00 00
	00		 call	 DWORD PTR __imp_??0ioHashString@@QAE@ABV0@@Z
$LN3@Construct@2:

; 49   : 	}

  00026	e8 00 00 00 00	 call	 __EH_epilog3
  0002b	c3		 ret	 0
_TEXT	ENDS
;	COMDAT text$x
text$x	SEGMENT
__unwindfunclet$??$_Construct@VioHashString@@ABV1@@std@@YAXPAVioHashString@@ABV1@@Z$0:
  00000	ff 75 08	 push	 DWORD PTR __Vptr$[ebp]
  00003	ff 75 f0	 push	 DWORD PTR $T533725[ebp]
  00006	e8 00 00 00 00	 call	 ??3@YAXPAX0@Z		; operator delete
  0000b	59		 pop	 ecx
  0000c	59		 pop	 ecx
  0000d	c3		 ret	 0
__ehhandler$??$_Construct@VioHashString@@ABV1@@std@@YAXPAVioHashString@@ABV1@@Z:
  0000e	8b 54 24 08	 mov	 edx, DWORD PTR [esp+8]
  00012	8d 42 0c	 lea	 eax, DWORD PTR [edx+12]
  00015	8b 4a ec	 mov	 ecx, DWORD PTR [edx-20]
  00018	33 c8		 xor	 ecx, eax
  0001a	e8 00 00 00 00	 call	 @__security_check_cookie@4
  0001f	b8 00 00 00 00	 mov	 eax, OFFSET __ehfuncinfo$??$_Construct@VioHashString@@ABV1@@std@@YAXPAVioHashString@@ABV1@@Z
  00024	e9 00 00 00 00	 jmp	 ___CxxFrameHandler3
text$x	ENDS
??$_Construct@VioHashString@@ABV1@@std@@YAXPAVioHashString@@ABV1@@Z ENDP ; std::_Construct<ioHashString,ioHashString const &>
PUBLIC	??_R0?AVioBaseChar@@@8				; ioBaseChar `RTTI Type Descriptor'
PUBLIC	?ToBaseChar@@YAPAVioBaseChar@@PAVioGameEntity@@@Z ; ToBaseChar
;	COMDAT ??_R0?AVioBaseChar@@@8
; File d:\lost saga for developer\youtube\tutorial\source\src\lsclient\iobasechar.h
_DATA	SEGMENT
??_R0?AVioBaseChar@@@8 DD FLAT:??_7type_info@@6B@	; ioBaseChar `RTTI Type Descriptor'
	DD	00H
	DB	'.?AVioBaseChar@@', 00H
; Function compile flags: /Ogsp
_DATA	ENDS
;	COMDAT ?ToBaseChar@@YAPAVioBaseChar@@PAVioGameEntity@@@Z
_TEXT	SEGMENT
_pObj$ = 8						; size = 4
?ToBaseChar@@YAPAVioBaseChar@@PAVioGameEntity@@@Z PROC	; ToBaseChar, COMDAT

; 4326 : {

  00000	55		 push	 ebp
  00001	8b ec		 mov	 ebp, esp
  00003	56		 push	 esi

; 4327 : 	ioPlayEntity *pPlay = ToPlayEntity( pObj );

  00004	ff 75 08	 push	 DWORD PTR _pObj$[ebp]
  00007	e8 00 00 00 00	 call	 ?ToPlayEntity@@YAPAVioPlayEntity@@PAVioGameEntity@@@Z ; ToPlayEntity
  0000c	8b f0		 mov	 esi, eax
  0000e	59		 pop	 ecx

; 4328 : 	if( !pPlay || pPlay->GetSubType() != ioPlayEntity::PST_CHAR )

  0000f	85 f6		 test	 esi, esi
  00011	74 25		 je	 SHORT $LN1@ToBaseChar
  00013	8b 06		 mov	 eax, DWORD PTR [esi]
  00015	8b ce		 mov	 ecx, esi
  00017	ff 90 a4 00 00
	00		 call	 DWORD PTR [eax+164]
  0001d	85 c0		 test	 eax, eax
  0001f	75 17		 jne	 SHORT $LN1@ToBaseChar

; 4330 : 
; 4331 : 	return dynamic_cast< ioBaseChar* >( pPlay );

  00021	50		 push	 eax
  00022	68 00 00 00 00	 push	 OFFSET ??_R0?AVioBaseChar@@@8
  00027	68 00 00 00 00	 push	 OFFSET ??_R0?AVioPlayEntity@@@8
  0002c	50		 push	 eax
  0002d	56		 push	 esi
  0002e	e8 00 00 00 00	 call	 ___RTDynamicCast
  00033	83 c4 14	 add	 esp, 20			; 00000014H
  00036	eb 02		 jmp	 SHORT $LN3@ToBaseChar
$LN1@ToBaseChar:

; 4329 : 		return NULL;

  00038	33 c0		 xor	 eax, eax
$LN3@ToBaseChar:
  0003a	5e		 pop	 esi

; 4332 : }

  0003b	5d		 pop	 ebp
  0003c	c3		 ret	 0
?ToBaseChar@@YAPAVioBaseChar@@PAVioGameEntity@@@Z ENDP	; ToBaseChar
_TEXT	ENDS
PUBLIC	?UpdateWorldAttackBox@ioAreaEffectWeapon@@MAEXM_N@Z ; ioAreaEffectWeapon::UpdateWorldAttackBox
EXTRN	__imp_?Transform@ioOrientBox@@QAEXABUD3DXVECTOR3@@0ABUD3DXQUATERNION@@@Z:PROC
EXTRN	__imp_?UNIT_ALL@ioMath@@2UD3DXVECTOR3@@A:BYTE
EXTRN	?GetOrientation@ioWeapon@@QBEABUD3DXQUATERNION@@XZ:PROC ; ioWeapon::GetOrientation
EXTRN	__imp_?IsNull@ioOrientBox@@QBE_NXZ:PROC
EXTRN	__imp_?SetExtents@ioOrientBox@@QAEXHM@Z:PROC
EXTRN	__imp_?GetExtents@ioOrientBox@@QBEMH@Z:PROC
EXTRN	__imp_?SetNull@ioOrientBox@@QAEXXZ:PROC
; Function compile flags: /Ogsp
; File d:\lost saga for developer\youtube\tutorial\source\src\lsclient\ioareaeffectweapon.cpp
;	COMDAT ?UpdateWorldAttackBox@ioAreaEffectWeapon@@MAEXM_N@Z
_TEXT	SEGMENT
tv304 = -8						; size = 4
tv310 = -4						; size = 4
tv294 = -4						; size = 4
_fTimePerSec$ = 8					; size = 4
tv298 = 12						; size = 4
_fMapCollisionRate$ = 12				; size = 4
_bSetNull$ = 12						; size = 1
?UpdateWorldAttackBox@ioAreaEffectWeapon@@MAEXM_N@Z PROC ; ioAreaEffectWeapon::UpdateWorldAttackBox, COMDAT
; _this$ = ecx

; 340  : {

  00000	55		 push	 ebp
  00001	8b ec		 mov	 ebp, esp
  00003	51		 push	 ecx
  00004	51		 push	 ecx
  00005	53		 push	 ebx
  00006	8b d9		 mov	 ebx, ecx

; 341  : 	if( !IsLive() && bSetNull )

  00008	80 bb 82 05 00
	00 00		 cmp	 BYTE PTR [ebx+1410], 0
  0000f	56		 push	 esi
  00010	75 21		 jne	 SHORT $LN2@UpdateWorl
  00012	80 7d 0c 00	 cmp	 BYTE PTR _bSetNull$[ebp], 0
  00016	74 1b		 je	 SHORT $LN2@UpdateWorl

; 342  : 	{
; 343  : 		m_WorldAttackBox.SetNull();

  00018	8b 35 00 00 00
	00		 mov	 esi, DWORD PTR __imp_?SetNull@ioOrientBox@@QAEXXZ
  0001e	8d 8b e8 04 00
	00		 lea	 ecx, DWORD PTR [ebx+1256]
  00024	ff d6		 call	 esi

; 344  : 		m_WorldAttackBoxForMap.SetNull();

  00026	8d 8b 2c 05 00
	00		 lea	 ecx, DWORD PTR [ebx+1324]
  0002c	ff d6		 call	 esi

; 345  : 		return;

  0002e	e9 f8 00 00 00	 jmp	 $LN1@UpdateWorl
$LN2@UpdateWorl:

; 346  : 	}
; 347  : 
; 348  : 	m_WorldAttackBox = GetLocalAttackBox();

  00033	8b 03		 mov	 eax, DWORD PTR [ebx]
  00035	57		 push	 edi
  00036	ff 90 00 01 00
	00		 call	 DWORD PTR [eax+256]
  0003c	6a 11		 push	 17			; 00000011H
  0003e	59		 pop	 ecx
  0003f	8b f0		 mov	 esi, eax
  00041	8d bb e8 04 00
	00		 lea	 edi, DWORD PTR [ebx+1256]
  00047	f3 a5		 rep movsd

; 349  : 	m_WorldAttackBoxForMap = m_WorldAttackBox;

  00049	6a 11		 push	 17			; 00000011H
  0004b	8b f0		 mov	 esi, eax

; 350  : 
; 351  : 	float fMapCollisionRate = GetAttribute()->m_fMapCollisionBoxRate;

  0004d	8b 03		 mov	 eax, DWORD PTR [ebx]
  0004f	59		 pop	 ecx
  00050	8d bb 2c 05 00
	00		 lea	 edi, DWORD PTR [ebx+1324]
  00056	f3 a5		 rep movsd
  00058	8b cb		 mov	 ecx, ebx
  0005a	ff 90 3c 01 00
	00		 call	 DWORD PTR [eax+316]

; 352  : 	m_WorldAttackBoxForMap.SetExtents( 0, m_WorldAttackBox.GetExtents(0)*fMapCollisionRate );

  00060	6a 00		 push	 0
  00062	d9 80 a8 01 00
	00		 fld	 DWORD PTR [eax+424]
  00068	8d 8b e8 04 00
	00		 lea	 ecx, DWORD PTR [ebx+1256]
  0006e	d9 5d 0c	 fstp	 DWORD PTR _fMapCollisionRate$[ebp]
  00071	ff 15 00 00 00
	00		 call	 DWORD PTR __imp_?GetExtents@ioOrientBox@@QBEMH@Z
  00077	d8 4d 0c	 fmul	 DWORD PTR _fMapCollisionRate$[ebp]
  0007a	8b 35 00 00 00
	00		 mov	 esi, DWORD PTR __imp_?SetExtents@ioOrientBox@@QAEXHM@Z
  00080	51		 push	 ecx
  00081	8d 8b 2c 05 00
	00		 lea	 ecx, DWORD PTR [ebx+1324]
  00087	d9 5d fc	 fstp	 DWORD PTR tv310[ebp]
  0008a	d9 45 fc	 fld	 DWORD PTR tv310[ebp]
  0008d	89 4d fc	 mov	 DWORD PTR tv294[ebp], ecx
  00090	d9 1c 24	 fstp	 DWORD PTR [esp]
  00093	6a 00		 push	 0
  00095	ff d6		 call	 esi

; 353  : 	m_WorldAttackBoxForMap.SetExtents( 1, m_WorldAttackBox.GetExtents(1)*fMapCollisionRate );

  00097	6a 01		 push	 1
  00099	8d 8b e8 04 00
	00		 lea	 ecx, DWORD PTR [ebx+1256]
  0009f	ff 15 00 00 00
	00		 call	 DWORD PTR __imp_?GetExtents@ioOrientBox@@QBEMH@Z
  000a5	d8 4d 0c	 fmul	 DWORD PTR _fMapCollisionRate$[ebp]
  000a8	51		 push	 ecx
  000a9	8b 4d fc	 mov	 ecx, DWORD PTR tv294[ebp]
  000ac	d9 5d f8	 fstp	 DWORD PTR tv304[ebp]
  000af	d9 45 f8	 fld	 DWORD PTR tv304[ebp]
  000b2	d9 1c 24	 fstp	 DWORD PTR [esp]
  000b5	6a 01		 push	 1
  000b7	ff d6		 call	 esi

; 354  : 	m_WorldAttackBoxForMap.SetExtents( 2, m_WorldAttackBox.GetExtents(2)*fMapCollisionRate );

  000b9	6a 02		 push	 2
  000bb	8d 8b e8 04 00
	00		 lea	 ecx, DWORD PTR [ebx+1256]
  000c1	ff 15 00 00 00
	00		 call	 DWORD PTR __imp_?GetExtents@ioOrientBox@@QBEMH@Z
  000c7	d8 4d 0c	 fmul	 DWORD PTR _fMapCollisionRate$[ebp]
  000ca	51		 push	 ecx
  000cb	8b 4d fc	 mov	 ecx, DWORD PTR tv294[ebp]
  000ce	d9 5d 0c	 fstp	 DWORD PTR tv298[ebp]
  000d1	d9 45 0c	 fld	 DWORD PTR tv298[ebp]
  000d4	d9 1c 24	 fstp	 DWORD PTR [esp]
  000d7	6a 02		 push	 2
  000d9	ff d6		 call	 esi

; 355  : 
; 356  : 	if( !m_WorldAttackBox.IsNull() )

  000db	8d 8b e8 04 00
	00		 lea	 ecx, DWORD PTR [ebx+1256]
  000e1	ff 15 00 00 00
	00		 call	 DWORD PTR __imp_?IsNull@ioOrientBox@@QBE_NXZ
  000e7	84 c0		 test	 al, al
  000e9	75 3f		 jne	 SHORT $LN7@UpdateWorl

; 357  : 	{
; 358  : 		m_WorldAttackBox.Transform( GetPosition(), ioMath::UNIT_ALL, GetOrientation() );

  000eb	8b cb		 mov	 ecx, ebx
  000ed	e8 00 00 00 00	 call	 ?GetOrientation@ioWeapon@@QBEABUD3DXQUATERNION@@XZ ; ioWeapon::GetOrientation
  000f2	50		 push	 eax
  000f3	ff 35 00 00 00
	00		 push	 DWORD PTR __imp_?UNIT_ALL@ioMath@@2UD3DXVECTOR3@@A
  000f9	8b 03		 mov	 eax, DWORD PTR [ebx]
  000fb	8b cb		 mov	 ecx, ebx
  000fd	ff 50 70	 call	 DWORD PTR [eax+112]
  00100	8b 35 00 00 00
	00		 mov	 esi, DWORD PTR __imp_?Transform@ioOrientBox@@QAEXABUD3DXVECTOR3@@0ABUD3DXQUATERNION@@@Z
  00106	50		 push	 eax
  00107	8d 8b e8 04 00
	00		 lea	 ecx, DWORD PTR [ebx+1256]
  0010d	ff d6		 call	 esi

; 359  : 		m_WorldAttackBoxForMap.Transform( GetPosition(), ioMath::UNIT_ALL, GetOrientation() );

  0010f	8b cb		 mov	 ecx, ebx
  00111	e8 00 00 00 00	 call	 ?GetOrientation@ioWeapon@@QBEABUD3DXQUATERNION@@XZ ; ioWeapon::GetOrientation
  00116	50		 push	 eax
  00117	ff 35 00 00 00
	00		 push	 DWORD PTR __imp_?UNIT_ALL@ioMath@@2UD3DXVECTOR3@@A
  0011d	8b 03		 mov	 eax, DWORD PTR [ebx]
  0011f	8b cb		 mov	 ecx, ebx
  00121	ff 50 70	 call	 DWORD PTR [eax+112]
  00124	8b 4d fc	 mov	 ecx, DWORD PTR tv294[ebp]
  00127	50		 push	 eax
  00128	ff d6		 call	 esi
$LN7@UpdateWorl:
  0012a	5f		 pop	 edi
$LN1@UpdateWorl:
  0012b	5e		 pop	 esi
  0012c	5b		 pop	 ebx

; 360  : 	}
; 361  : }

  0012d	c9		 leave
  0012e	c2 08 00	 ret	 8
?UpdateWorldAttackBox@ioAreaEffectWeapon@@MAEXM_N@Z ENDP ; ioAreaEffectWeapon::UpdateWorldAttackBox
_TEXT	ENDS
PUBLIC	?IsExistTarget@ioAreaEffectWeapon@@IAE_NABVioHashString@@@Z ; ioAreaEffectWeapon::IsExistTarget
EXTRN	__imp_??8ioHashString@@QBE_NABV0@@Z:PROC
; Function compile flags: /Ogsp
;	COMDAT ?IsExistTarget@ioAreaEffectWeapon@@IAE_NABVioHashString@@@Z
_TEXT	SEGMENT
_i$531406 = -4						; size = 4
_szName$ = 8						; size = 4
?IsExistTarget@ioAreaEffectWeapon@@IAE_NABVioHashString@@@Z PROC ; ioAreaEffectWeapon::IsExistTarget, COMDAT
; _this$ = ecx

; 385  : {

  00000	55		 push	 ebp
  00001	8b ec		 mov	 ebp, esp
  00003	51		 push	 ecx
  00004	53		 push	 ebx
  00005	56		 push	 esi
  00006	57		 push	 edi
  00007	8b f9		 mov	 edi, ecx

; 386  : 	int iCnt = m_vNewTargetList.size();

  00009	8b b7 b0 08 00
	00		 mov	 esi, DWORD PTR [edi+2224]
  0000f	2b b7 ac 08 00
	00		 sub	 esi, DWORD PTR [edi+2220]

; 387  : 	for( int i=0; i < iCnt; ++i )

  00015	33 db		 xor	 ebx, ebx
  00017	c1 fe 04	 sar	 esi, 4
  0001a	89 5d fc	 mov	 DWORD PTR _i$531406[ebp], ebx
  0001d	3b f3		 cmp	 esi, ebx
  0001f	7e 20		 jle	 SHORT $LN2@IsExistTar
$LL4@IsExistTar:
  00021	8b 8f ac 08 00
	00		 mov	 ecx, DWORD PTR [edi+2220]

; 388  : 	{
; 389  : 		if( m_vNewTargetList[i] == szName )

  00027	ff 75 08	 push	 DWORD PTR _szName$[ebp]
  0002a	03 cb		 add	 ecx, ebx
  0002c	ff 15 00 00 00
	00		 call	 DWORD PTR __imp_??8ioHashString@@QBE_NABV0@@Z
  00032	84 c0		 test	 al, al
  00034	75 14		 jne	 SHORT $LN12@IsExistTar

; 387  : 	for( int i=0; i < iCnt; ++i )

  00036	ff 45 fc	 inc	 DWORD PTR _i$531406[ebp]
  00039	83 c3 10	 add	 ebx, 16			; 00000010H
  0003c	39 75 fc	 cmp	 DWORD PTR _i$531406[ebp], esi
  0003f	7c e0		 jl	 SHORT $LL4@IsExistTar
$LN2@IsExistTar:

; 391  : 	}
; 392  : 
; 393  : 	return false;

  00041	32 c0		 xor	 al, al
$LN5@IsExistTar:
  00043	5f		 pop	 edi
  00044	5e		 pop	 esi
  00045	5b		 pop	 ebx

; 394  : }

  00046	c9		 leave
  00047	c2 04 00	 ret	 4
$LN12@IsExistTar:

; 390  : 			return true;

  0004a	b0 01		 mov	 al, 1
  0004c	eb f5		 jmp	 SHORT $LN5@IsExistTar
?IsExistTarget@ioAreaEffectWeapon@@IAE_NABVioHashString@@@Z ENDP ; ioAreaEffectWeapon::IsExistTarget
_TEXT	ENDS
PUBLIC	??H?$CEncrypt@M@@QAEMABM@Z			; CEncrypt<float>::operator+
; Function compile flags: /Ogsp
; File d:\lost saga for developer\youtube\tutorial\source\src\lsclient\encryptvalue.h
;	COMDAT ??H?$CEncrypt@M@@QAEMABM@Z
_TEXT	SEGMENT
_value$ = -4						; size = 4
tv130 = 8						; size = 4
_inValue$ = 8						; size = 4
??H?$CEncrypt@M@@QAEMABM@Z PROC				; CEncrypt<float>::operator+, COMDAT
; _this$ = ecx

; 1675 : 	{	

  00000	55		 push	 ebp
  00001	8b ec		 mov	 ebp, esp
  00003	51		 push	 ecx

; 1676 : 		type value;
; 1677 : 		DecryptValueToPool(&value);

  00004	8d 45 fc	 lea	 eax, DWORD PTR _value$[ebp]
  00007	50		 push	 eax
  00008	e8 00 00 00 00	 call	 ?DecryptValueToPool@?$CEncrypt@M@@QAEXPAM@Z ; CEncrypt<float>::DecryptValueToPool

; 1678 : #ifdef _NOTUSE
; 1679 : 		Debug();
; 1680 : #endif
; 1681 : 		return value + inValue;

  0000d	8b 45 08	 mov	 eax, DWORD PTR _inValue$[ebp]
  00010	d9 00		 fld	 DWORD PTR [eax]
  00012	d8 45 fc	 fadd	 DWORD PTR _value$[ebp]
  00015	d9 5d 08	 fstp	 DWORD PTR tv130[ebp]
  00018	d9 45 08	 fld	 DWORD PTR tv130[ebp]

; 1682 : 	}

  0001b	c9		 leave
  0001c	c2 04 00	 ret	 4
??H?$CEncrypt@M@@QAEMABM@Z ENDP				; CEncrypt<float>::operator+
_TEXT	ENDS
PUBLIC	??D?$CEncrypt@M@@QAEMABM@Z			; CEncrypt<float>::operator*
; Function compile flags: /Ogsp
;	COMDAT ??D?$CEncrypt@M@@QAEMABM@Z
_TEXT	SEGMENT
_value$ = -4						; size = 4
tv130 = 8						; size = 4
_inValue$ = 8						; size = 4
??D?$CEncrypt@M@@QAEMABM@Z PROC				; CEncrypt<float>::operator*, COMDAT
; _this$ = ecx

; 1685 : 	{	

  00000	55		 push	 ebp
  00001	8b ec		 mov	 ebp, esp
  00003	51		 push	 ecx

; 1686 : 		type value;
; 1687 : 		DecryptValueToPool(&value);

  00004	8d 45 fc	 lea	 eax, DWORD PTR _value$[ebp]
  00007	50		 push	 eax
  00008	e8 00 00 00 00	 call	 ?DecryptValueToPool@?$CEncrypt@M@@QAEXPAM@Z ; CEncrypt<float>::DecryptValueToPool

; 1688 : #ifdef _NOTUSE
; 1689 : 		Debug();
; 1690 : #endif
; 1691 : 		return value * inValue;

  0000d	8b 45 08	 mov	 eax, DWORD PTR _inValue$[ebp]
  00010	d9 00		 fld	 DWORD PTR [eax]
  00012	d8 4d fc	 fmul	 DWORD PTR _value$[ebp]
  00015	d9 5d 08	 fstp	 DWORD PTR tv130[ebp]
  00018	d9 45 08	 fld	 DWORD PTR tv130[ebp]

; 1692 : 	}

  0001b	c9		 leave
  0001c	c2 04 00	 ret	 4
??D?$CEncrypt@M@@QAEMABM@Z ENDP				; CEncrypt<float>::operator*
_TEXT	ENDS
PUBLIC	??8?$CEncrypt@M@@QAE_NABM@Z			; CEncrypt<float>::operator==
; Function compile flags: /Ogsp
;	COMDAT ??8?$CEncrypt@M@@QAE_NABM@Z
_TEXT	SEGMENT
_value$ = -4						; size = 4
_inValue$ = 8						; size = 4
??8?$CEncrypt@M@@QAE_NABM@Z PROC			; CEncrypt<float>::operator==, COMDAT
; _this$ = ecx

; 1781 : 	{

  00000	55		 push	 ebp
  00001	8b ec		 mov	 ebp, esp
  00003	51		 push	 ecx

; 1782 : 		type value;
; 1783 : 		DecryptValueToPool(&value);

  00004	8d 45 fc	 lea	 eax, DWORD PTR _value$[ebp]
  00007	50		 push	 eax
  00008	e8 00 00 00 00	 call	 ?DecryptValueToPool@?$CEncrypt@M@@QAEXPAM@Z ; CEncrypt<float>::DecryptValueToPool

; 1784 : #ifdef _NOTUSE
; 1785 : 		Debug();
; 1786 : #endif
; 1787 : 		return (value == inValue);

  0000d	8b 45 08	 mov	 eax, DWORD PTR _inValue$[ebp]
  00010	f3 0f 10 08	 movss	 xmm1, DWORD PTR [eax]
  00014	f3 0f 10 45 fc	 movss	 xmm0, DWORD PTR _value$[ebp]
  00019	0f 5a c0	 cvtps2pd xmm0, xmm0
  0001c	0f 5a c9	 cvtps2pd xmm1, xmm1
  0001f	66 0f 2e c1	 ucomisd xmm0, xmm1
  00023	9f		 lahf
  00024	f6 c4 44	 test	 ah, 68			; 00000044H
  00027	7a 05		 jp	 SHORT $LN3@operator
  00029	33 c0		 xor	 eax, eax
  0002b	40		 inc	 eax
  0002c	eb 02		 jmp	 SHORT $LN4@operator
$LN3@operator:
  0002e	33 c0		 xor	 eax, eax
$LN4@operator:

; 1788 : 	} 

  00030	c9		 leave
  00031	c2 04 00	 ret	 4
??8?$CEncrypt@M@@QAE_NABM@Z ENDP			; CEncrypt<float>::operator==
_TEXT	ENDS
PUBLIC	??D?$_Vector_iterator@V?$_Vector_val@PAVioBaseChar@@V?$allocator@PAVioBaseChar@@@std@@@std@@@std@@QBEAAPAVioBaseChar@@XZ ; std::_Vector_iterator<std::_Vector_val<ioBaseChar *,std::allocator<ioBaseChar *> > >::operator*
; Function compile flags: /Ogsp
; File c:\program files (x86)\microsoft visual studio 10.0\vc\include\vector
;	COMDAT ??D?$_Vector_iterator@V?$_Vector_val@PAVioBaseChar@@V?$allocator@PAVioBaseChar@@@std@@@std@@@std@@QBEAAPAVioBaseChar@@XZ
_TEXT	SEGMENT
??D?$_Vector_iterator@V?$_Vector_val@PAVioBaseChar@@V?$allocator@PAVioBaseChar@@@std@@@std@@@std@@QBEAAPAVioBaseChar@@XZ PROC ; std::_Vector_iterator<std::_Vector_val<ioBaseChar *,std::allocator<ioBaseChar *> > >::operator*, COMDAT
; _this$ = ecx

; 322  : 		return ((reference)**(_Mybase *)this);

  00000	8b 01		 mov	 eax, DWORD PTR [ecx]

; 323  : 		}

  00002	c3		 ret	 0
??D?$_Vector_iterator@V?$_Vector_val@PAVioBaseChar@@V?$allocator@PAVioBaseChar@@@std@@@std@@@std@@QBEAAPAVioBaseChar@@XZ ENDP ; std::_Vector_iterator<std::_Vector_val<ioBaseChar *,std::allocator<ioBaseChar *> > >::operator*
_TEXT	ENDS
PUBLIC	??E?$_Vector_iterator@V?$_Vector_val@PAVioBaseChar@@V?$allocator@PAVioBaseChar@@@std@@@std@@@std@@QAEAAV01@XZ ; std::_Vector_iterator<std::_Vector_val<ioBaseChar *,std::allocator<ioBaseChar *> > >::operator++
; Function compile flags: /Ogsp
;	COMDAT ??E?$_Vector_iterator@V?$_Vector_val@PAVioBaseChar@@V?$allocator@PAVioBaseChar@@@std@@@std@@@std@@QAEAAV01@XZ
_TEXT	SEGMENT
??E?$_Vector_iterator@V?$_Vector_val@PAVioBaseChar@@V?$allocator@PAVioBaseChar@@@std@@@std@@@std@@QAEAAV01@XZ PROC ; std::_Vector_iterator<std::_Vector_val<ioBaseChar *,std::allocator<ioBaseChar *> > >::operator++, COMDAT
; _this$ = ecx

; 331  : 		{	// preincrement

  00000	8b c1		 mov	 eax, ecx

; 332  : 		++*(_Mybase *)this;

  00002	83 00 04	 add	 DWORD PTR [eax], 4

; 333  : 		return (*this);
; 334  : 		}

  00005	c3		 ret	 0
??E?$_Vector_iterator@V?$_Vector_val@PAVioBaseChar@@V?$allocator@PAVioBaseChar@@@std@@@std@@@std@@QAEAAV01@XZ ENDP ; std::_Vector_iterator<std::_Vector_val<ioBaseChar *,std::allocator<ioBaseChar *> > >::operator++
_TEXT	ENDS
PUBLIC	??0?$_List_const_iterator@V?$_List_val@PAVioPlayEntity@@V?$allocator@PAVioPlayEntity@@@std@@@std@@@std@@QAE@XZ ; std::_List_const_iterator<std::_List_val<ioPlayEntity *,std::allocator<ioPlayEntity *> > >::_List_const_iterator<std::_List_val<ioPlayEntity *,std::allocator<ioPlayEntity *> > >
; Function compile flags: /Ogsp
; File c:\program files (x86)\microsoft visual studio 10.0\vc\include\list
;	COMDAT ??0?$_List_const_iterator@V?$_List_val@PAVioPlayEntity@@V?$allocator@PAVioPlayEntity@@@std@@@std@@@std@@QAE@XZ
_TEXT	SEGMENT
??0?$_List_const_iterator@V?$_List_val@PAVioPlayEntity@@V?$allocator@PAVioPlayEntity@@@std@@@std@@@std@@QAE@XZ PROC ; std::_List_const_iterator<std::_List_val<ioPlayEntity *,std::allocator<ioPlayEntity *> > >::_List_const_iterator<std::_List_val<ioPlayEntity *,std::allocator<ioPlayEntity *> > >, COMDAT
; _this$ = ecx

; 179  : 		{	// construct with null node pointer

  00000	8b c1		 mov	 eax, ecx
  00002	83 20 00	 and	 DWORD PTR [eax], 0

; 180  : 		}

  00005	c3		 ret	 0
??0?$_List_const_iterator@V?$_List_val@PAVioPlayEntity@@V?$allocator@PAVioPlayEntity@@@std@@@std@@@std@@QAE@XZ ENDP ; std::_List_const_iterator<std::_List_val<ioPlayEntity *,std::allocator<ioPlayEntity *> > >::_List_const_iterator<std::_List_val<ioPlayEntity *,std::allocator<ioPlayEntity *> > >
_TEXT	ENDS
PUBLIC	??D?$_List_const_iterator@V?$_List_val@PAVioPlayEntity@@V?$allocator@PAVioPlayEntity@@@std@@@std@@@std@@QBEABQAVioPlayEntity@@XZ ; std::_List_const_iterator<std::_List_val<ioPlayEntity *,std::allocator<ioPlayEntity *> > >::operator*
; Function compile flags: /Ogsp
;	COMDAT ??D?$_List_const_iterator@V?$_List_val@PAVioPlayEntity@@V?$allocator@PAVioPlayEntity@@@std@@@std@@@std@@QBEABQAVioPlayEntity@@XZ
_TEXT	SEGMENT
??D?$_List_const_iterator@V?$_List_val@PAVioPlayEntity@@V?$allocator@PAVioPlayEntity@@@std@@@std@@@std@@QBEABQAVioPlayEntity@@XZ PROC ; std::_List_const_iterator<std::_List_val<ioPlayEntity *,std::allocator<ioPlayEntity *> > >::operator*, COMDAT
; _this$ = ecx

; 202  :  #if _ITERATOR_DEBUG_LEVEL == 2
; 203  : 		if (this->_Getcont() == 0
; 204  : 			|| this->_Ptr == 0
; 205  : 			|| this->_Ptr == ((_Mylist *)this->_Getcont())->_Myhead)
; 206  : 			{	// report error
; 207  : 			_DEBUG_ERROR("list iterator not dereferencable");
; 208  : 			_SCL_SECURE_OUT_OF_RANGE;
; 209  : 			}
; 210  : 
; 211  :  #elif _ITERATOR_DEBUG_LEVEL == 1
; 212  : 		_SCL_SECURE_VALIDATE(this->_Getcont() != 0 && this->_Ptr != 0);
; 213  : 		_SCL_SECURE_VALIDATE_RANGE(this->_Ptr !=
; 214  : 			((_Mylist *)this->_Getcont())->_Myhead);
; 215  :  #endif /* _ITERATOR_DEBUG_LEVEL */
; 216  : 
; 217  : 		return (_Mylist::_Myval(this->_Ptr));

  00000	8b 01		 mov	 eax, DWORD PTR [ecx]
  00002	83 c0 08	 add	 eax, 8

; 218  : 		}

  00005	c3		 ret	 0
??D?$_List_const_iterator@V?$_List_val@PAVioPlayEntity@@V?$allocator@PAVioPlayEntity@@@std@@@std@@@std@@QBEABQAVioPlayEntity@@XZ ENDP ; std::_List_const_iterator<std::_List_val<ioPlayEntity *,std::allocator<ioPlayEntity *> > >::operator*
_TEXT	ENDS
PUBLIC	??E?$_List_const_iterator@V?$_List_val@PAVioPlayEntity@@V?$allocator@PAVioPlayEntity@@@std@@@std@@@std@@QAEAAV01@XZ ; std::_List_const_iterator<std::_List_val<ioPlayEntity *,std::allocator<ioPlayEntity *> > >::operator++
; Function compile flags: /Ogsp
;	COMDAT ??E?$_List_const_iterator@V?$_List_val@PAVioPlayEntity@@V?$allocator@PAVioPlayEntity@@@std@@@std@@@std@@QAEAAV01@XZ
_TEXT	SEGMENT
??E?$_List_const_iterator@V?$_List_val@PAVioPlayEntity@@V?$allocator@PAVioPlayEntity@@@std@@@std@@@std@@QAEAAV01@XZ PROC ; std::_List_const_iterator<std::_List_val<ioPlayEntity *,std::allocator<ioPlayEntity *> > >::operator++, COMDAT
; _this$ = ecx

; 221  : 		{	// preincrement

  00000	8b c1		 mov	 eax, ecx

; 222  :  #if _ITERATOR_DEBUG_LEVEL == 2
; 223  : 		if (this->_Getcont() == 0
; 224  : 			|| this->_Ptr == 0
; 225  : 			|| this->_Ptr == ((_Mylist *)this->_Getcont())->_Myhead)
; 226  : 			{	// report error
; 227  : 			_DEBUG_ERROR("list iterator not incrementable");
; 228  : 			_SCL_SECURE_OUT_OF_RANGE;
; 229  : 			}
; 230  : 
; 231  :  #elif _ITERATOR_DEBUG_LEVEL == 1
; 232  : 		_SCL_SECURE_VALIDATE(this->_Getcont() != 0 && this->_Ptr != 0);
; 233  : 		_SCL_SECURE_VALIDATE_RANGE(this->_Ptr !=
; 234  : 			((_Mylist *)this->_Getcont())->_Myhead);
; 235  :  #endif /* _ITERATOR_DEBUG_LEVEL */
; 236  : 
; 237  : 		this->_Ptr = _Mylist::_Nextnode(this->_Ptr);

  00002	8b 08		 mov	 ecx, DWORD PTR [eax]
  00004	8b 09		 mov	 ecx, DWORD PTR [ecx]
  00006	89 08		 mov	 DWORD PTR [eax], ecx

; 238  : 		return (*this);
; 239  : 		}

  00008	c3		 ret	 0
??E?$_List_const_iterator@V?$_List_val@PAVioPlayEntity@@V?$allocator@PAVioPlayEntity@@@std@@@std@@@std@@QAEAAV01@XZ ENDP ; std::_List_const_iterator<std::_List_val<ioPlayEntity *,std::allocator<ioPlayEntity *> > >::operator++
_TEXT	ENDS
PUBLIC	??9?$_List_const_iterator@V?$_List_val@PAVioPlayEntity@@V?$allocator@PAVioPlayEntity@@@std@@@std@@@std@@QBE_NABV01@@Z ; std::_List_const_iterator<std::_List_val<ioPlayEntity *,std::allocator<ioPlayEntity *> > >::operator!=
; Function compile flags: /Ogsp
;	COMDAT ??9?$_List_const_iterator@V?$_List_val@PAVioPlayEntity@@V?$allocator@PAVioPlayEntity@@@std@@@std@@@std@@QBE_NABV01@@Z
_TEXT	SEGMENT
__Right$ = 8						; size = 4
??9?$_List_const_iterator@V?$_List_val@PAVioPlayEntity@@V?$allocator@PAVioPlayEntity@@@std@@@std@@@std@@QBE_NABV01@@Z PROC ; std::_List_const_iterator<std::_List_val<ioPlayEntity *,std::allocator<ioPlayEntity *> > >::operator!=, COMDAT
; _this$ = ecx

; 299  : 		{	// test for iterator inequality

  00000	55		 push	 ebp
  00001	8b ec		 mov	 ebp, esp

; 300  : 		return (!(*this == _Right));

  00003	8b 01		 mov	 eax, DWORD PTR [ecx]
  00005	8b 55 08	 mov	 edx, DWORD PTR __Right$[ebp]
  00008	33 c9		 xor	 ecx, ecx
  0000a	3b 02		 cmp	 eax, DWORD PTR [edx]
  0000c	0f 95 c0	 setne	 al

; 301  : 		}

  0000f	5d		 pop	 ebp
  00010	c2 04 00	 ret	 4
??9?$_List_const_iterator@V?$_List_val@PAVioPlayEntity@@V?$allocator@PAVioPlayEntity@@@std@@@std@@@std@@QBE_NABV01@@Z ENDP ; std::_List_const_iterator<std::_List_val<ioPlayEntity *,std::allocator<ioPlayEntity *> > >::operator!=
_TEXT	ENDS
PUBLIC	??1?$_List_val@PAVioPlayEntity@@V?$allocator@PAVioPlayEntity@@@std@@@std@@QAE@XZ ; std::_List_val<ioPlayEntity *,std::allocator<ioPlayEntity *> >::~_List_val<ioPlayEntity *,std::allocator<ioPlayEntity *> >
; Function compile flags: /Ogsp
;	COMDAT ??1?$_List_val@PAVioPlayEntity@@V?$allocator@PAVioPlayEntity@@@std@@@std@@QAE@XZ
_TEXT	SEGMENT
??1?$_List_val@PAVioPlayEntity@@V?$allocator@PAVioPlayEntity@@@std@@@std@@QAE@XZ PROC ; std::_List_val<ioPlayEntity *,std::allocator<ioPlayEntity *> >::~_List_val<ioPlayEntity *,std::allocator<ioPlayEntity *> >, COMDAT
; _this$ = ecx

; 502  : 		this->_Alnod.deallocate(this->_Myhead, 1);

  00000	ff 31		 push	 DWORD PTR [ecx]
  00002	e8 00 00 00 00	 call	 ??3@YAXPAX@Z		; operator delete
  00007	59		 pop	 ecx

; 503  : 		}

  00008	c3		 ret	 0
??1?$_List_val@PAVioPlayEntity@@V?$allocator@PAVioPlayEntity@@@std@@@std@@QAE@XZ ENDP ; std::_List_val<ioPlayEntity *,std::allocator<ioPlayEntity *> >::~_List_val<ioPlayEntity *,std::allocator<ioPlayEntity *> >
_TEXT	ENDS
PUBLIC	??0?$_Vector_val@UstWantCheckList@ioAreaEffectWeapon@@V?$allocator@UstWantCheckList@ioAreaEffectWeapon@@@std@@@std@@QAE@V?$allocator@UstWantCheckList@ioAreaEffectWeapon@@@1@@Z ; std::_Vector_val<ioAreaEffectWeapon::stWantCheckList,std::allocator<ioAreaEffectWeapon::stWantCheckList> >::_Vector_val<ioAreaEffectWeapon::stWantCheckList,std::allocator<ioAreaEffectWeapon::stWantCheckList> >
; Function compile flags: /Ogsp
; File c:\program files (x86)\microsoft visual studio 10.0\vc\include\vector
;	COMDAT ??0?$_Vector_val@UstWantCheckList@ioAreaEffectWeapon@@V?$allocator@UstWantCheckList@ioAreaEffectWeapon@@@std@@@std@@QAE@V?$allocator@UstWantCheckList@ioAreaEffectWeapon@@@1@@Z
_TEXT	SEGMENT
__Al$ = 8						; size = 1
??0?$_Vector_val@UstWantCheckList@ioAreaEffectWeapon@@V?$allocator@UstWantCheckList@ioAreaEffectWeapon@@@std@@@std@@QAE@V?$allocator@UstWantCheckList@ioAreaEffectWeapon@@@1@@Z PROC ; std::_Vector_val<ioAreaEffectWeapon::stWantCheckList,std::allocator<ioAreaEffectWeapon::stWantCheckList> >::_Vector_val<ioAreaEffectWeapon::stWantCheckList,std::allocator<ioAreaEffectWeapon::stWantCheckList> >, COMDAT
; _this$ = ecx

; 426  : 		{	// construct allocator from _Al

  00000	8b c1		 mov	 eax, ecx

; 427  : 		_Myfirst = 0;

  00002	33 c9		 xor	 ecx, ecx
  00004	89 08		 mov	 DWORD PTR [eax], ecx

; 428  : 		_Mylast = 0;

  00006	89 48 04	 mov	 DWORD PTR [eax+4], ecx

; 429  : 		_Myend = 0;

  00009	89 48 08	 mov	 DWORD PTR [eax+8], ecx

; 430  : 		}

  0000c	c2 04 00	 ret	 4
??0?$_Vector_val@UstWantCheckList@ioAreaEffectWeapon@@V?$allocator@UstWantCheckList@ioAreaEffectWeapon@@@std@@@std@@QAE@V?$allocator@UstWantCheckList@ioAreaEffectWeapon@@@1@@Z ENDP ; std::_Vector_val<ioAreaEffectWeapon::stWantCheckList,std::allocator<ioAreaEffectWeapon::stWantCheckList> >::_Vector_val<ioAreaEffectWeapon::stWantCheckList,std::allocator<ioAreaEffectWeapon::stWantCheckList> >
_TEXT	ENDS
PUBLIC	??0?$_Vector_iterator@V?$_Vector_val@PAVioBaseChar@@V?$allocator@PAVioBaseChar@@@std@@@std@@@std@@QAE@PAPAVioBaseChar@@PBU_Container_base0@1@@Z ; std::_Vector_iterator<std::_Vector_val<ioBaseChar *,std::allocator<ioBaseChar *> > >::_Vector_iterator<std::_Vector_val<ioBaseChar *,std::allocator<ioBaseChar *> > >
; Function compile flags: /Ogsp
;	COMDAT ??0?$_Vector_iterator@V?$_Vector_val@PAVioBaseChar@@V?$allocator@PAVioBaseChar@@@std@@@std@@@std@@QAE@PAPAVioBaseChar@@PBU_Container_base0@1@@Z
_TEXT	SEGMENT
__Parg$ = 8						; size = 4
__Pvector$ = 12						; size = 4
??0?$_Vector_iterator@V?$_Vector_val@PAVioBaseChar@@V?$allocator@PAVioBaseChar@@@std@@@std@@@std@@QAE@PAPAVioBaseChar@@PBU_Container_base0@1@@Z PROC ; std::_Vector_iterator<std::_Vector_val<ioBaseChar *,std::allocator<ioBaseChar *> > >::_Vector_iterator<std::_Vector_val<ioBaseChar *,std::allocator<ioBaseChar *> > >, COMDAT
; _this$ = ecx

; 304  : 		{	// construct with pointer _Parg

  00000	55		 push	 ebp
  00001	8b ec		 mov	 ebp, esp
  00003	8b c1		 mov	 eax, ecx
  00005	8b 4d 08	 mov	 ecx, DWORD PTR __Parg$[ebp]
  00008	89 08		 mov	 DWORD PTR [eax], ecx

; 305  : 		}

  0000a	5d		 pop	 ebp
  0000b	c2 08 00	 ret	 8
??0?$_Vector_iterator@V?$_Vector_val@PAVioBaseChar@@V?$allocator@PAVioBaseChar@@@std@@@std@@@std@@QAE@PAPAVioBaseChar@@PBU_Container_base0@1@@Z ENDP ; std::_Vector_iterator<std::_Vector_val<ioBaseChar *,std::allocator<ioBaseChar *> > >::_Vector_iterator<std::_Vector_val<ioBaseChar *,std::allocator<ioBaseChar *> > >
_TEXT	ENDS
PUBLIC	??8?$_Vector_const_iterator@V?$_Vector_val@PAVioBaseChar@@V?$allocator@PAVioBaseChar@@@std@@@std@@@std@@QBE_NABV01@@Z ; std::_Vector_const_iterator<std::_Vector_val<ioBaseChar *,std::allocator<ioBaseChar *> > >::operator==
; Function compile flags: /Ogsp
;	COMDAT ??8?$_Vector_const_iterator@V?$_Vector_val@PAVioBaseChar@@V?$allocator@PAVioBaseChar@@@std@@@std@@@std@@QBE_NABV01@@Z
_TEXT	SEGMENT
__Right$ = 8						; size = 4
??8?$_Vector_const_iterator@V?$_Vector_val@PAVioBaseChar@@V?$allocator@PAVioBaseChar@@@std@@@std@@@std@@QBE_NABV01@@Z PROC ; std::_Vector_const_iterator<std::_Vector_val<ioBaseChar *,std::allocator<ioBaseChar *> > >::operator==, COMDAT
; _this$ = ecx

; 201  : 		{	// test for iterator equality

  00000	55		 push	 ebp
  00001	8b ec		 mov	 ebp, esp

; 202  : 		_Compat(_Right);
; 203  : 		return (this->_Ptr == _Right._Ptr);

  00003	8b 01		 mov	 eax, DWORD PTR [ecx]
  00005	8b 4d 08	 mov	 ecx, DWORD PTR __Right$[ebp]
  00008	2b 01		 sub	 eax, DWORD PTR [ecx]
  0000a	f7 d8		 neg	 eax
  0000c	1b c0		 sbb	 eax, eax
  0000e	40		 inc	 eax

; 204  : 		}

  0000f	5d		 pop	 ebp
  00010	c2 04 00	 ret	 4
??8?$_Vector_const_iterator@V?$_Vector_val@PAVioBaseChar@@V?$allocator@PAVioBaseChar@@@std@@@std@@@std@@QBE_NABV01@@Z ENDP ; std::_Vector_const_iterator<std::_Vector_val<ioBaseChar *,std::allocator<ioBaseChar *> > >::operator==
_TEXT	ENDS
PUBLIC	??0?$_List_const_iterator@V?$_List_val@PAVioPlayEntity@@V?$allocator@PAVioPlayEntity@@@std@@@std@@@std@@QAE@PAU_Node@?$_List_nod@PAVioPlayEntity@@V?$allocator@PAVioPlayEntity@@@std@@@1@PBV?$_List_val@PAVioPlayEntity@@V?$allocator@PAVioPlayEntity@@@std@@@1@@Z ; std::_List_const_iterator<std::_List_val<ioPlayEntity *,std::allocator<ioPlayEntity *> > >::_List_const_iterator<std::_List_val<ioPlayEntity *,std::allocator<ioPlayEntity *> > >
; Function compile flags: /Ogsp
; File c:\program files (x86)\microsoft visual studio 10.0\vc\include\list
;	COMDAT ??0?$_List_const_iterator@V?$_List_val@PAVioPlayEntity@@V?$allocator@PAVioPlayEntity@@@std@@@std@@@std@@QAE@PAU_Node@?$_List_nod@PAVioPlayEntity@@V?$allocator@PAVioPlayEntity@@@std@@@1@PBV?$_List_val@PAVioPlayEntity@@V?$allocator@PAVioPlayEntity@@@std@@@1@@Z
_TEXT	SEGMENT
__Pnode$ = 8						; size = 4
__Plist$ = 12						; size = 4
??0?$_List_const_iterator@V?$_List_val@PAVioPlayEntity@@V?$allocator@PAVioPlayEntity@@@std@@@std@@@std@@QAE@PAU_Node@?$_List_nod@PAVioPlayEntity@@V?$allocator@PAVioPlayEntity@@@std@@@1@PBV?$_List_val@PAVioPlayEntity@@V?$allocator@PAVioPlayEntity@@@std@@@1@@Z PROC ; std::_List_const_iterator<std::_List_val<ioPlayEntity *,std::allocator<ioPlayEntity *> > >::_List_const_iterator<std::_List_val<ioPlayEntity *,std::allocator<ioPlayEntity *> > >, COMDAT
; _this$ = ecx

; 184  : 		{	// construct with node pointer _Pnode

  00000	55		 push	 ebp
  00001	8b ec		 mov	 ebp, esp
  00003	8b c1		 mov	 eax, ecx
  00005	8b 4d 08	 mov	 ecx, DWORD PTR __Pnode$[ebp]
  00008	89 08		 mov	 DWORD PTR [eax], ecx

; 185  : 		}

  0000a	5d		 pop	 ebp
  0000b	c2 08 00	 ret	 8
??0?$_List_const_iterator@V?$_List_val@PAVioPlayEntity@@V?$allocator@PAVioPlayEntity@@@std@@@std@@@std@@QAE@PAU_Node@?$_List_nod@PAVioPlayEntity@@V?$allocator@PAVioPlayEntity@@@std@@@1@PBV?$_List_val@PAVioPlayEntity@@V?$allocator@PAVioPlayEntity@@@std@@@1@@Z ENDP ; std::_List_const_iterator<std::_List_val<ioPlayEntity *,std::allocator<ioPlayEntity *> > >::_List_const_iterator<std::_List_val<ioPlayEntity *,std::allocator<ioPlayEntity *> > >
_TEXT	ENDS
PUBLIC	??0?$_List_nod@PAVioPlayEntity@@V?$allocator@PAVioPlayEntity@@@std@@@std@@QAE@V?$allocator@PAVioPlayEntity@@@1@@Z ; std::_List_nod<ioPlayEntity *,std::allocator<ioPlayEntity *> >::_List_nod<ioPlayEntity *,std::allocator<ioPlayEntity *> >
; Function compile flags: /Ogsp
;	COMDAT ??0?$_List_nod@PAVioPlayEntity@@V?$allocator@PAVioPlayEntity@@@std@@@std@@QAE@V?$allocator@PAVioPlayEntity@@@1@@Z
_TEXT	SEGMENT
__Al$ = 8						; size = 1
??0?$_List_nod@PAVioPlayEntity@@V?$allocator@PAVioPlayEntity@@@std@@@std@@QAE@V?$allocator@PAVioPlayEntity@@@1@@Z PROC ; std::_List_nod<ioPlayEntity *,std::allocator<ioPlayEntity *> >::_List_nod<ioPlayEntity *,std::allocator<ioPlayEntity *> >, COMDAT
; _this$ = ecx

; 438  : 		{	// construct allocators from _Al

  00000	8b c1		 mov	 eax, ecx

; 439  : 		}

  00002	c2 04 00	 ret	 4
??0?$_List_nod@PAVioPlayEntity@@V?$allocator@PAVioPlayEntity@@@std@@@std@@QAE@V?$allocator@PAVioPlayEntity@@@1@@Z ENDP ; std::_List_nod<ioPlayEntity *,std::allocator<ioPlayEntity *> >::_List_nod<ioPlayEntity *,std::allocator<ioPlayEntity *> >
_TEXT	ENDS
PUBLIC	?allocate@?$allocator@U_Node@?$_List_nod@PAVioPlayEntity@@V?$allocator@PAVioPlayEntity@@@std@@@std@@@std@@QAEPAU_Node@?$_List_nod@PAVioPlayEntity@@V?$allocator@PAVioPlayEntity@@@std@@@2@I@Z ; std::allocator<std::_List_nod<ioPlayEntity *,std::allocator<ioPlayEntity *> >::_Node>::allocate
; Function compile flags: /Ogsp
; File c:\program files (x86)\microsoft visual studio 10.0\vc\include\xmemory
;	COMDAT ?allocate@?$allocator@U_Node@?$_List_nod@PAVioPlayEntity@@V?$allocator@PAVioPlayEntity@@@std@@@std@@@std@@QAEPAU_Node@?$_List_nod@PAVioPlayEntity@@V?$allocator@PAVioPlayEntity@@@std@@@2@I@Z
_TEXT	SEGMENT
__Count$ = 8						; size = 4
?allocate@?$allocator@U_Node@?$_List_nod@PAVioPlayEntity@@V?$allocator@PAVioPlayEntity@@@std@@@std@@@std@@QAEPAU_Node@?$_List_nod@PAVioPlayEntity@@V?$allocator@PAVioPlayEntity@@@std@@@2@I@Z PROC ; std::allocator<std::_List_nod<ioPlayEntity *,std::allocator<ioPlayEntity *> >::_Node>::allocate, COMDAT
; _this$ = ecx

; 186  : 		{	// allocate array of _Count elements

  00000	55		 push	 ebp
  00001	8b ec		 mov	 ebp, esp

; 187  : 		return (_Allocate(_Count, (pointer)0));

  00003	6a 00		 push	 0
  00005	ff 75 08	 push	 DWORD PTR __Count$[ebp]
  00008	e8 00 00 00 00	 call	 ??$_Allocate@U_Node@?$_List_nod@PAVioPlayEntity@@V?$allocator@PAVioPlayEntity@@@std@@@std@@@std@@YAPAU_Node@?$_List_nod@PAVioPlayEntity@@V?$allocator@PAVioPlayEntity@@@std@@@0@IPAU120@@Z ; std::_Allocate<std::_List_nod<ioPlayEntity *,std::allocator<ioPlayEntity *> >::_Node>
  0000d	59		 pop	 ecx
  0000e	59		 pop	 ecx

; 188  : 		}

  0000f	5d		 pop	 ebp
  00010	c2 04 00	 ret	 4
?allocate@?$allocator@U_Node@?$_List_nod@PAVioPlayEntity@@V?$allocator@PAVioPlayEntity@@@std@@@std@@@std@@QAEPAU_Node@?$_List_nod@PAVioPlayEntity@@V?$allocator@PAVioPlayEntity@@@std@@@2@I@Z ENDP ; std::allocator<std::_List_nod<ioPlayEntity *,std::allocator<ioPlayEntity *> >::_Node>::allocate
_TEXT	ENDS
PUBLIC	?max_size@?$vector@UstWantCheckList@ioAreaEffectWeapon@@V?$allocator@UstWantCheckList@ioAreaEffectWeapon@@@std@@@std@@QBEIXZ ; std::vector<ioAreaEffectWeapon::stWantCheckList,std::allocator<ioAreaEffectWeapon::stWantCheckList> >::max_size
; Function compile flags: /Ogsp
; File c:\program files (x86)\microsoft visual studio 10.0\vc\include\vector
;	COMDAT ?max_size@?$vector@UstWantCheckList@ioAreaEffectWeapon@@V?$allocator@UstWantCheckList@ioAreaEffectWeapon@@@std@@@std@@QBEIXZ
_TEXT	SEGMENT
?max_size@?$vector@UstWantCheckList@ioAreaEffectWeapon@@V?$allocator@UstWantCheckList@ioAreaEffectWeapon@@@std@@@std@@QBEIXZ PROC ; std::vector<ioAreaEffectWeapon::stWantCheckList,std::allocator<ioAreaEffectWeapon::stWantCheckList> >::max_size, COMDAT
; _this$ = ecx

; 884  : 		return (this->_Alval.max_size());

  00000	b8 cc cc cc 0c	 mov	 eax, 214748364		; 0cccccccH

; 885  : 		}

  00005	c3		 ret	 0
?max_size@?$vector@UstWantCheckList@ioAreaEffectWeapon@@V?$allocator@UstWantCheckList@ioAreaEffectWeapon@@@std@@@std@@QBEIXZ ENDP ; std::vector<ioAreaEffectWeapon::stWantCheckList,std::allocator<ioAreaEffectWeapon::stWantCheckList> >::max_size
_TEXT	ENDS
PUBLIC	?_Grow_to@?$vector@UstWantCheckList@ioAreaEffectWeapon@@V?$allocator@UstWantCheckList@ioAreaEffectWeapon@@@std@@@std@@IBEII@Z ; std::vector<ioAreaEffectWeapon::stWantCheckList,std::allocator<ioAreaEffectWeapon::stWantCheckList> >::_Grow_to
; Function compile flags: /Ogsp
;	COMDAT ?_Grow_to@?$vector@UstWantCheckList@ioAreaEffectWeapon@@V?$allocator@UstWantCheckList@ioAreaEffectWeapon@@@std@@@std@@IBEII@Z
_TEXT	SEGMENT
__Count$ = 8						; size = 4
?_Grow_to@?$vector@UstWantCheckList@ioAreaEffectWeapon@@V?$allocator@UstWantCheckList@ioAreaEffectWeapon@@@std@@@std@@IBEII@Z PROC ; std::vector<ioAreaEffectWeapon::stWantCheckList,std::allocator<ioAreaEffectWeapon::stWantCheckList> >::_Grow_to, COMDAT
; _this$ = ecx

; 1274 : 		{	// grow by 50% or at least to _Count

  00000	55		 push	 ebp
  00001	8b ec		 mov	 ebp, esp

; 1275 : 		size_type _Capacity = capacity();

  00003	8b 41 08	 mov	 eax, DWORD PTR [ecx+8]
  00006	2b 01		 sub	 eax, DWORD PTR [ecx]
  00008	6a 14		 push	 20			; 00000014H
  0000a	99		 cdq
  0000b	59		 pop	 ecx
  0000c	f7 f9		 idiv	 ecx

; 1276 : 
; 1277 : 		_Capacity = max_size() - _Capacity / 2 < _Capacity
; 1278 : 			? 0 : _Capacity + _Capacity / 2;	// try to grow by 50%

  0000e	ba cc cc cc 0c	 mov	 edx, 214748364		; 0cccccccH
  00013	8b c8		 mov	 ecx, eax
  00015	d1 e9		 shr	 ecx, 1
  00017	2b d1		 sub	 edx, ecx
  00019	3b d0		 cmp	 edx, eax
  0001b	73 04		 jae	 SHORT $LN4@Grow_to
  0001d	33 c0		 xor	 eax, eax
  0001f	eb 02		 jmp	 SHORT $LN5@Grow_to
$LN4@Grow_to:
  00021	03 c1		 add	 eax, ecx
$LN5@Grow_to:

; 1279 : 		if (_Capacity < _Count)

  00023	3b 45 08	 cmp	 eax, DWORD PTR __Count$[ebp]

; 1280 : 			_Capacity = _Count;

  00026	0f 42 45 08	 cmovb	 eax, DWORD PTR __Count$[ebp]

; 1281 : 		return (_Capacity);
; 1282 : 		}

  0002a	5d		 pop	 ebp
  0002b	c2 04 00	 ret	 4
?_Grow_to@?$vector@UstWantCheckList@ioAreaEffectWeapon@@V?$allocator@UstWantCheckList@ioAreaEffectWeapon@@@std@@@std@@IBEII@Z ENDP ; std::vector<ioAreaEffectWeapon::stWantCheckList,std::allocator<ioAreaEffectWeapon::stWantCheckList> >::_Grow_to
_TEXT	ENDS
PUBLIC	??0?$_List_iterator@V?$_List_val@PAVioPlayEntity@@V?$allocator@PAVioPlayEntity@@@std@@@std@@@std@@QAE@PAU_Node@?$_List_nod@PAVioPlayEntity@@V?$allocator@PAVioPlayEntity@@@std@@@1@PBV?$_List_val@PAVioPlayEntity@@V?$allocator@PAVioPlayEntity@@@std@@@1@@Z ; std::_List_iterator<std::_List_val<ioPlayEntity *,std::allocator<ioPlayEntity *> > >::_List_iterator<std::_List_val<ioPlayEntity *,std::allocator<ioPlayEntity *> > >
; Function compile flags: /Ogsp
; File c:\program files (x86)\microsoft visual studio 10.0\vc\include\list
;	COMDAT ??0?$_List_iterator@V?$_List_val@PAVioPlayEntity@@V?$allocator@PAVioPlayEntity@@@std@@@std@@@std@@QAE@PAU_Node@?$_List_nod@PAVioPlayEntity@@V?$allocator@PAVioPlayEntity@@@std@@@1@PBV?$_List_val@PAVioPlayEntity@@V?$allocator@PAVioPlayEntity@@@std@@@1@@Z
_TEXT	SEGMENT
__Pnode$ = 8						; size = 4
__Plist$ = 12						; size = 4
??0?$_List_iterator@V?$_List_val@PAVioPlayEntity@@V?$allocator@PAVioPlayEntity@@@std@@@std@@@std@@QAE@PAU_Node@?$_List_nod@PAVioPlayEntity@@V?$allocator@PAVioPlayEntity@@@std@@@1@PBV?$_List_val@PAVioPlayEntity@@V?$allocator@PAVioPlayEntity@@@std@@@1@@Z PROC ; std::_List_iterator<std::_List_val<ioPlayEntity *,std::allocator<ioPlayEntity *> > >::_List_iterator<std::_List_val<ioPlayEntity *,std::allocator<ioPlayEntity *> > >, COMDAT
; _this$ = ecx

; 342  : 		{	// construct with node pointer _Pnode

  00000	55		 push	 ebp
  00001	8b ec		 mov	 ebp, esp
  00003	8b c1		 mov	 eax, ecx
  00005	8b 4d 08	 mov	 ecx, DWORD PTR __Pnode$[ebp]
  00008	89 08		 mov	 DWORD PTR [eax], ecx

; 343  : 		}

  0000a	5d		 pop	 ebp
  0000b	c2 08 00	 ret	 8
??0?$_List_iterator@V?$_List_val@PAVioPlayEntity@@V?$allocator@PAVioPlayEntity@@@std@@@std@@@std@@QAE@PAU_Node@?$_List_nod@PAVioPlayEntity@@V?$allocator@PAVioPlayEntity@@@std@@@1@PBV?$_List_val@PAVioPlayEntity@@V?$allocator@PAVioPlayEntity@@@std@@@1@@Z ENDP ; std::_List_iterator<std::_List_val<ioPlayEntity *,std::allocator<ioPlayEntity *> > >::_List_iterator<std::_List_val<ioPlayEntity *,std::allocator<ioPlayEntity *> > >
_TEXT	ENDS
PUBLIC	?max_size@?$list@PAVioPlayEntity@@V?$allocator@PAVioPlayEntity@@@std@@@std@@QBEIXZ ; std::list<ioPlayEntity *,std::allocator<ioPlayEntity *> >::max_size
; Function compile flags: /Ogsp
;	COMDAT ?max_size@?$list@PAVioPlayEntity@@V?$allocator@PAVioPlayEntity@@@std@@@std@@QBEIXZ
_TEXT	SEGMENT
?max_size@?$list@PAVioPlayEntity@@V?$allocator@PAVioPlayEntity@@@std@@@std@@QBEIXZ PROC ; std::list<ioPlayEntity *,std::allocator<ioPlayEntity *> >::max_size, COMDAT
; _this$ = ecx

; 882  : 		return (this->_Alval.max_size());

  00000	b8 ff ff ff 3f	 mov	 eax, 1073741823		; 3fffffffH

; 883  : 		}

  00005	c3		 ret	 0
?max_size@?$list@PAVioPlayEntity@@V?$allocator@PAVioPlayEntity@@@std@@@std@@QBEIXZ ENDP ; std::list<ioPlayEntity *,std::allocator<ioPlayEntity *> >::max_size
_TEXT	ENDS
PUBLIC	?allocate@?$allocator@UstWantCheckList@ioAreaEffectWeapon@@@std@@QAEPAUstWantCheckList@ioAreaEffectWeapon@@I@Z ; std::allocator<ioAreaEffectWeapon::stWantCheckList>::allocate
; Function compile flags: /Ogsp
; File c:\program files (x86)\microsoft visual studio 10.0\vc\include\xmemory
;	COMDAT ?allocate@?$allocator@UstWantCheckList@ioAreaEffectWeapon@@@std@@QAEPAUstWantCheckList@ioAreaEffectWeapon@@I@Z
_TEXT	SEGMENT
__Count$ = 8						; size = 4
?allocate@?$allocator@UstWantCheckList@ioAreaEffectWeapon@@@std@@QAEPAUstWantCheckList@ioAreaEffectWeapon@@I@Z PROC ; std::allocator<ioAreaEffectWeapon::stWantCheckList>::allocate, COMDAT
; _this$ = ecx

; 186  : 		{	// allocate array of _Count elements

  00000	55		 push	 ebp
  00001	8b ec		 mov	 ebp, esp

; 187  : 		return (_Allocate(_Count, (pointer)0));

  00003	6a 00		 push	 0
  00005	ff 75 08	 push	 DWORD PTR __Count$[ebp]
  00008	e8 00 00 00 00	 call	 ??$_Allocate@UstWantCheckList@ioAreaEffectWeapon@@@std@@YAPAUstWantCheckList@ioAreaEffectWeapon@@IPAU12@@Z ; std::_Allocate<ioAreaEffectWeapon::stWantCheckList>
  0000d	59		 pop	 ecx
  0000e	59		 pop	 ecx

; 188  : 		}

  0000f	5d		 pop	 ebp
  00010	c2 04 00	 ret	 4
?allocate@?$allocator@UstWantCheckList@ioAreaEffectWeapon@@@std@@QAEPAUstWantCheckList@ioAreaEffectWeapon@@I@Z ENDP ; std::allocator<ioAreaEffectWeapon::stWantCheckList>::allocate
_TEXT	ENDS
PUBLIC	__$ArrayPad$
PUBLIC	??$LoadBool_e@$0BJ@@ioINILoader@@QAE_NAAY0BJ@$$CBD_N@Z ; ioINILoader::LoadBool_e<25>
EXTRN	__imp_?LoadBool@ioINILoader@@QAE_NPBD_N@Z:PROC
EXTRN	___security_cookie:DWORD
; Function compile flags: /Ogsp
; File d:\lost saga for developer\youtube\tutorial\source\src\io3dengine\ioiniloader.h
;	COMDAT ??$LoadBool_e@$0BJ@@ioINILoader@@QAE_NAAY0BJ@$$CBD_N@Z
_TEXT	SEGMENT
__k$ = -36						; size = 25
__$ArrayPad$ = -4					; size = 4
_k$ = 8							; size = 4
_b$ = 12						; size = 1
??$LoadBool_e@$0BJ@@ioINILoader@@QAE_NAAY0BJ@$$CBD_N@Z PROC ; ioINILoader::LoadBool_e<25>, COMDAT
; _this$ = ecx

; 101  : 	{

  00000	55		 push	 ebp
  00001	8b ec		 mov	 ebp, esp
  00003	83 ec 24	 sub	 esp, 36			; 00000024H
  00006	a1 00 00 00 00	 mov	 eax, DWORD PTR ___security_cookie
  0000b	33 c5		 xor	 eax, ebp
  0000d	89 45 fc	 mov	 DWORD PTR __$ArrayPad$[ebp], eax
  00010	8b 45 08	 mov	 eax, DWORD PTR _k$[ebp]

; 102  : 		_ENCSTR(k, _k);

  00013	8a 10		 mov	 dl, BYTE PTR [eax]
  00015	53		 push	 ebx
  00016	56		 push	 esi
  00017	8b f1		 mov	 esi, ecx
  00019	84 d2		 test	 dl, dl
  0001b	0f 84 5f 02 00
	00		 je	 $LN96@LoadBool_e
  00021	80 f2 ed	 xor	 dl, -19			; ffffffedH
  00024	88 55 dc	 mov	 BYTE PTR __k$[ebp], dl
  00027	8a 50 01	 mov	 dl, BYTE PTR [eax+1]
  0002a	84 d2		 test	 dl, dl
  0002c	0f 84 48 02 00
	00		 je	 $LN95@LoadBool_e
  00032	b1 ec		 mov	 cl, -20			; ffffffecH
  00034	32 d1		 xor	 dl, cl
  00036	88 55 dd	 mov	 BYTE PTR __k$[ebp+1], dl
  00039	8a 50 02	 mov	 dl, BYTE PTR [eax+2]
  0003c	84 d2		 test	 dl, dl
  0003e	0f 84 30 02 00
	00		 je	 $LN94@LoadBool_e
  00044	b3 eb		 mov	 bl, -21			; ffffffebH
  00046	32 d3		 xor	 dl, bl
  00048	88 55 de	 mov	 BYTE PTR __k$[ebp+2], dl
  0004b	8a 50 03	 mov	 dl, BYTE PTR [eax+3]
  0004e	84 d2		 test	 dl, dl
  00050	0f 84 18 02 00
	00		 je	 $LN93@LoadBool_e
  00056	80 f2 ea	 xor	 dl, -22			; ffffffeaH
  00059	88 55 df	 mov	 BYTE PTR __k$[ebp+3], dl
  0005c	8a 50 04	 mov	 dl, BYTE PTR [eax+4]
  0005f	84 d2		 test	 dl, dl
  00061	0f 84 01 02 00
	00		 je	 $LN92@LoadBool_e
  00067	80 f2 ed	 xor	 dl, -19			; ffffffedH
  0006a	88 55 e0	 mov	 BYTE PTR __k$[ebp+4], dl
  0006d	8a 50 05	 mov	 dl, BYTE PTR [eax+5]
  00070	84 d2		 test	 dl, dl
  00072	0f 84 eb 01 00
	00		 je	 $LN91@LoadBool_e
  00078	32 d1		 xor	 dl, cl
  0007a	88 55 e1	 mov	 BYTE PTR __k$[ebp+5], dl
  0007d	8a 50 06	 mov	 dl, BYTE PTR [eax+6]
  00080	84 d2		 test	 dl, dl
  00082	0f 84 d6 01 00
	00		 je	 $LN90@LoadBool_e
  00088	32 d3		 xor	 dl, bl
  0008a	88 55 e2	 mov	 BYTE PTR __k$[ebp+6], dl
  0008d	8a 50 07	 mov	 dl, BYTE PTR [eax+7]
  00090	84 d2		 test	 dl, dl
  00092	0f 84 c0 01 00
	00		 je	 $LN89@LoadBool_e
  00098	80 f2 ea	 xor	 dl, -22			; ffffffeaH
  0009b	88 55 e3	 mov	 BYTE PTR __k$[ebp+7], dl
  0009e	8a 50 08	 mov	 dl, BYTE PTR [eax+8]
  000a1	84 d2		 test	 dl, dl
  000a3	0f 84 a9 01 00
	00		 je	 $LN88@LoadBool_e
  000a9	80 f2 ed	 xor	 dl, -19			; ffffffedH
  000ac	88 55 e4	 mov	 BYTE PTR __k$[ebp+8], dl
  000af	8a 50 09	 mov	 dl, BYTE PTR [eax+9]
  000b2	84 d2		 test	 dl, dl
  000b4	0f 84 93 01 00
	00		 je	 $LN87@LoadBool_e
  000ba	32 d1		 xor	 dl, cl
  000bc	88 55 e5	 mov	 BYTE PTR __k$[ebp+9], dl
  000bf	8a 50 0a	 mov	 dl, BYTE PTR [eax+10]
  000c2	84 d2		 test	 dl, dl
  000c4	0f 84 7e 01 00
	00		 je	 $LN86@LoadBool_e
  000ca	32 d3		 xor	 dl, bl
  000cc	88 55 e6	 mov	 BYTE PTR __k$[ebp+10], dl
  000cf	8a 50 0b	 mov	 dl, BYTE PTR [eax+11]
  000d2	84 d2		 test	 dl, dl
  000d4	0f 84 68 01 00
	00		 je	 $LN85@LoadBool_e
  000da	80 f2 ea	 xor	 dl, -22			; ffffffeaH
  000dd	88 55 e7	 mov	 BYTE PTR __k$[ebp+11], dl
  000e0	8a 50 0c	 mov	 dl, BYTE PTR [eax+12]
  000e3	84 d2		 test	 dl, dl
  000e5	0f 84 51 01 00
	00		 je	 $LN84@LoadBool_e
  000eb	80 f2 ed	 xor	 dl, -19			; ffffffedH
  000ee	88 55 e8	 mov	 BYTE PTR __k$[ebp+12], dl
  000f1	8a 50 0d	 mov	 dl, BYTE PTR [eax+13]
  000f4	84 d2		 test	 dl, dl
  000f6	0f 84 3b 01 00
	00		 je	 $LN83@LoadBool_e
  000fc	32 d1		 xor	 dl, cl
  000fe	88 55 e9	 mov	 BYTE PTR __k$[ebp+13], dl
  00101	8a 50 0e	 mov	 dl, BYTE PTR [eax+14]
  00104	84 d2		 test	 dl, dl
  00106	0f 84 26 01 00
	00		 je	 $LN82@LoadBool_e
  0010c	32 d3		 xor	 dl, bl
  0010e	88 55 ea	 mov	 BYTE PTR __k$[ebp+14], dl
  00111	8a 50 0f	 mov	 dl, BYTE PTR [eax+15]
  00114	84 d2		 test	 dl, dl
  00116	0f 84 10 01 00
	00		 je	 $LN81@LoadBool_e
  0011c	80 f2 ea	 xor	 dl, -22			; ffffffeaH
  0011f	88 55 eb	 mov	 BYTE PTR __k$[ebp+15], dl
  00122	8a 50 10	 mov	 dl, BYTE PTR [eax+16]
  00125	84 d2		 test	 dl, dl
  00127	0f 84 f9 00 00
	00		 je	 $LN80@LoadBool_e
  0012d	80 f2 ed	 xor	 dl, -19			; ffffffedH
  00130	88 55 ec	 mov	 BYTE PTR __k$[ebp+16], dl
  00133	8a 50 11	 mov	 dl, BYTE PTR [eax+17]
  00136	84 d2		 test	 dl, dl
  00138	0f 84 e3 00 00
	00		 je	 $LN79@LoadBool_e
  0013e	32 d1		 xor	 dl, cl
  00140	88 55 ed	 mov	 BYTE PTR __k$[ebp+17], dl
  00143	8a 50 12	 mov	 dl, BYTE PTR [eax+18]
  00146	84 d2		 test	 dl, dl
  00148	0f 84 ce 00 00
	00		 je	 $LN78@LoadBool_e
  0014e	32 d3		 xor	 dl, bl
  00150	88 55 ee	 mov	 BYTE PTR __k$[ebp+18], dl
  00153	8a 50 13	 mov	 dl, BYTE PTR [eax+19]
  00156	84 d2		 test	 dl, dl
  00158	0f 84 b8 00 00
	00		 je	 $LN77@LoadBool_e
  0015e	80 f2 ea	 xor	 dl, -22			; ffffffeaH
  00161	88 55 ef	 mov	 BYTE PTR __k$[ebp+19], dl
  00164	8a 50 14	 mov	 dl, BYTE PTR [eax+20]
  00167	84 d2		 test	 dl, dl
  00169	0f 84 a1 00 00
	00		 je	 $LN76@LoadBool_e
  0016f	80 f2 ed	 xor	 dl, -19			; ffffffedH
  00172	88 55 f0	 mov	 BYTE PTR __k$[ebp+20], dl
  00175	8a 50 15	 mov	 dl, BYTE PTR [eax+21]
  00178	84 d2		 test	 dl, dl
  0017a	0f 84 8b 00 00
	00		 je	 $LN75@LoadBool_e
  00180	32 d1		 xor	 dl, cl
  00182	88 55 f1	 mov	 BYTE PTR __k$[ebp+21], dl
  00185	8a 50 16	 mov	 dl, BYTE PTR [eax+22]
  00188	84 d2		 test	 dl, dl
  0018a	74 7a		 je	 SHORT $LN74@LoadBool_e
  0018c	32 d3		 xor	 dl, bl
  0018e	88 55 f2	 mov	 BYTE PTR __k$[ebp+22], dl
  00191	8a 50 17	 mov	 dl, BYTE PTR [eax+23]
  00194	84 d2		 test	 dl, dl
  00196	74 68		 je	 SHORT $LN73@LoadBool_e
  00198	80 f2 ea	 xor	 dl, -22			; ffffffeaH
  0019b	80 78 18 00	 cmp	 BYTE PTR [eax+24], 0
  0019f	88 55 f3	 mov	 BYTE PTR __k$[ebp+23], dl
  001a2	0f 84 dc 00 00
	00		 je	 $LN1@LoadBool_e
  001a8	8a 50 19	 mov	 dl, BYTE PTR [eax+25]
  001ab	84 d2		 test	 dl, dl
  001ad	74 49		 je	 SHORT $LN71@LoadBool_e
  001af	32 d1		 xor	 dl, cl
  001b1	88 55 f5	 mov	 BYTE PTR __k$[ebp+25], dl
  001b4	8a 50 1a	 mov	 dl, BYTE PTR [eax+26]
  001b7	84 d2		 test	 dl, dl
  001b9	74 35		 je	 SHORT $LN70@LoadBool_e
  001bb	32 d3		 xor	 dl, bl
  001bd	88 55 f6	 mov	 BYTE PTR __k$[ebp+26], dl
  001c0	8a 50 1b	 mov	 dl, BYTE PTR [eax+27]
  001c3	84 d2		 test	 dl, dl
  001c5	74 20		 je	 SHORT $LN69@LoadBool_e
  001c7	8a 40 1c	 mov	 al, BYTE PTR [eax+28]
  001ca	80 f2 ea	 xor	 dl, -22			; ffffffeaH
  001cd	88 55 f7	 mov	 BYTE PTR __k$[ebp+27], dl
  001d0	84 c0		 test	 al, al
  001d2	74 0a		 je	 SHORT $LN68@LoadBool_e
  001d4	34 ed		 xor	 al, -19			; ffffffedH
  001d6	88 45 f8	 mov	 BYTE PTR __k$[ebp+28], al
  001d9	e9 a6 00 00 00	 jmp	 $LN1@LoadBool_e
$LN68@LoadBool_e:
  001de	c6 45 f8 ed	 mov	 BYTE PTR __k$[ebp+28], -19 ; ffffffedH
  001e2	e9 9d 00 00 00	 jmp	 $LN1@LoadBool_e
$LN69@LoadBool_e:
  001e7	c6 45 f7 ea	 mov	 BYTE PTR __k$[ebp+27], -22 ; ffffffeaH
  001eb	e9 94 00 00 00	 jmp	 $LN1@LoadBool_e
$LN70@LoadBool_e:
  001f0	88 5d f6	 mov	 BYTE PTR __k$[ebp+26], bl
  001f3	e9 8c 00 00 00	 jmp	 $LN1@LoadBool_e
$LN71@LoadBool_e:
  001f8	88 4d f5	 mov	 BYTE PTR __k$[ebp+25], cl
  001fb	e9 84 00 00 00	 jmp	 $LN1@LoadBool_e
$LN73@LoadBool_e:
  00200	c6 45 f3 ea	 mov	 BYTE PTR __k$[ebp+23], -22 ; ffffffeaH
  00204	eb 7e		 jmp	 SHORT $LN1@LoadBool_e
$LN74@LoadBool_e:
  00206	88 5d f2	 mov	 BYTE PTR __k$[ebp+22], bl
  00209	eb 79		 jmp	 SHORT $LN1@LoadBool_e
$LN75@LoadBool_e:
  0020b	88 4d f1	 mov	 BYTE PTR __k$[ebp+21], cl
  0020e	eb 74		 jmp	 SHORT $LN1@LoadBool_e
$LN76@LoadBool_e:
  00210	c6 45 f0 ed	 mov	 BYTE PTR __k$[ebp+20], -19 ; ffffffedH
  00214	eb 6e		 jmp	 SHORT $LN1@LoadBool_e
$LN77@LoadBool_e:
  00216	c6 45 ef ea	 mov	 BYTE PTR __k$[ebp+19], -22 ; ffffffeaH
  0021a	eb 68		 jmp	 SHORT $LN1@LoadBool_e
$LN78@LoadBool_e:
  0021c	88 5d ee	 mov	 BYTE PTR __k$[ebp+18], bl
  0021f	eb 63		 jmp	 SHORT $LN1@LoadBool_e
$LN79@LoadBool_e:
  00221	88 4d ed	 mov	 BYTE PTR __k$[ebp+17], cl
  00224	eb 5e		 jmp	 SHORT $LN1@LoadBool_e
$LN80@LoadBool_e:
  00226	c6 45 ec ed	 mov	 BYTE PTR __k$[ebp+16], -19 ; ffffffedH
  0022a	eb 58		 jmp	 SHORT $LN1@LoadBool_e
$LN81@LoadBool_e:
  0022c	c6 45 eb ea	 mov	 BYTE PTR __k$[ebp+15], -22 ; ffffffeaH
  00230	eb 52		 jmp	 SHORT $LN1@LoadBool_e
$LN82@LoadBool_e:
  00232	88 5d ea	 mov	 BYTE PTR __k$[ebp+14], bl
  00235	eb 4d		 jmp	 SHORT $LN1@LoadBool_e
$LN83@LoadBool_e:
  00237	88 4d e9	 mov	 BYTE PTR __k$[ebp+13], cl
  0023a	eb 48		 jmp	 SHORT $LN1@LoadBool_e
$LN84@LoadBool_e:
  0023c	c6 45 e8 ed	 mov	 BYTE PTR __k$[ebp+12], -19 ; ffffffedH
  00240	eb 42		 jmp	 SHORT $LN1@LoadBool_e
$LN85@LoadBool_e:
  00242	c6 45 e7 ea	 mov	 BYTE PTR __k$[ebp+11], -22 ; ffffffeaH
  00246	eb 3c		 jmp	 SHORT $LN1@LoadBool_e
$LN86@LoadBool_e:
  00248	88 5d e6	 mov	 BYTE PTR __k$[ebp+10], bl
  0024b	eb 37		 jmp	 SHORT $LN1@LoadBool_e
$LN87@LoadBool_e:
  0024d	88 4d e5	 mov	 BYTE PTR __k$[ebp+9], cl
  00250	eb 32		 jmp	 SHORT $LN1@LoadBool_e
$LN88@LoadBool_e:
  00252	c6 45 e4 ed	 mov	 BYTE PTR __k$[ebp+8], -19 ; ffffffedH
  00256	eb 2c		 jmp	 SHORT $LN1@LoadBool_e
$LN89@LoadBool_e:
  00258	c6 45 e3 ea	 mov	 BYTE PTR __k$[ebp+7], -22 ; ffffffeaH
  0025c	eb 26		 jmp	 SHORT $LN1@LoadBool_e
$LN90@LoadBool_e:
  0025e	88 5d e2	 mov	 BYTE PTR __k$[ebp+6], bl
  00261	eb 21		 jmp	 SHORT $LN1@LoadBool_e
$LN91@LoadBool_e:
  00263	88 4d e1	 mov	 BYTE PTR __k$[ebp+5], cl
  00266	eb 1c		 jmp	 SHORT $LN1@LoadBool_e
$LN92@LoadBool_e:
  00268	c6 45 e0 ed	 mov	 BYTE PTR __k$[ebp+4], -19 ; ffffffedH
  0026c	eb 16		 jmp	 SHORT $LN1@LoadBool_e
$LN93@LoadBool_e:
  0026e	c6 45 df ea	 mov	 BYTE PTR __k$[ebp+3], -22 ; ffffffeaH
  00272	eb 10		 jmp	 SHORT $LN1@LoadBool_e
$LN94@LoadBool_e:
  00274	c6 45 de eb	 mov	 BYTE PTR __k$[ebp+2], -21 ; ffffffebH
  00278	eb 0a		 jmp	 SHORT $LN1@LoadBool_e
$LN95@LoadBool_e:
  0027a	c6 45 dd ec	 mov	 BYTE PTR __k$[ebp+1], -20 ; ffffffecH
  0027e	eb 04		 jmp	 SHORT $LN1@LoadBool_e
$LN96@LoadBool_e:
  00280	c6 45 dc ed	 mov	 BYTE PTR __k$[ebp], -19	; ffffffedH
$LN1@LoadBool_e:
  00284	6a 06		 push	 6
  00286	8d 45 dc	 lea	 eax, DWORD PTR __k$[ebp]
  00289	c6 45 f4 00	 mov	 BYTE PTR __k$[ebp+24], 0
  0028d	5a		 pop	 edx
$LL104@LoadBool_e:
  0028e	81 30 ed ec eb
	ea		 xor	 DWORD PTR [eax], -353637139 ; eaebecedH
  00294	83 c0 04	 add	 eax, 4
  00297	4a		 dec	 edx
  00298	75 f4		 jne	 SHORT $LL104@LoadBool_e

; 103  : 		return LoadBool(_k, b);

  0029a	ff 75 0c	 push	 DWORD PTR _b$[ebp]
  0029d	8d 45 dc	 lea	 eax, DWORD PTR __k$[ebp]
  002a0	50		 push	 eax
  002a1	8b ce		 mov	 ecx, esi
  002a3	ff 15 00 00 00
	00		 call	 DWORD PTR __imp_?LoadBool@ioINILoader@@QAE_NPBD_N@Z

; 104  : 	}

  002a9	8b 4d fc	 mov	 ecx, DWORD PTR __$ArrayPad$[ebp]
  002ac	5e		 pop	 esi
  002ad	33 cd		 xor	 ecx, ebp
  002af	5b		 pop	 ebx
  002b0	e8 00 00 00 00	 call	 @__security_check_cookie@4
  002b5	c9		 leave
  002b6	c2 08 00	 ret	 8
??$LoadBool_e@$0BJ@@ioINILoader@@QAE_NAAY0BJ@$$CBD_N@Z ENDP ; ioINILoader::LoadBool_e<25>
_TEXT	ENDS
PUBLIC	__$ArrayPad$
PUBLIC	??$LoadBool_e@$0BA@@ioINILoader@@QAE_NAAY0BA@$$CBD_N@Z ; ioINILoader::LoadBool_e<16>
; Function compile flags: /Ogsp
;	COMDAT ??$LoadBool_e@$0BA@@ioINILoader@@QAE_NAAY0BA@$$CBD_N@Z
_TEXT	SEGMENT
__k$ = -24						; size = 16
__$ArrayPad$ = -4					; size = 4
_k$ = 8							; size = 4
_b$ = 12						; size = 1
??$LoadBool_e@$0BA@@ioINILoader@@QAE_NAAY0BA@$$CBD_N@Z PROC ; ioINILoader::LoadBool_e<16>, COMDAT
; _this$ = ecx

; 101  : 	{

  00000	55		 push	 ebp
  00001	8b ec		 mov	 ebp, esp
  00003	83 ec 18	 sub	 esp, 24			; 00000018H
  00006	a1 00 00 00 00	 mov	 eax, DWORD PTR ___security_cookie
  0000b	33 c5		 xor	 eax, ebp
  0000d	89 45 fc	 mov	 DWORD PTR __$ArrayPad$[ebp], eax
  00010	8b 45 08	 mov	 eax, DWORD PTR _k$[ebp]

; 102  : 		_ENCSTR(k, _k);

  00013	8a 10		 mov	 dl, BYTE PTR [eax]
  00015	56		 push	 esi
  00016	8b f1		 mov	 esi, ecx
  00018	84 d2		 test	 dl, dl
  0001a	0f 84 8c 01 00
	00		 je	 $LN96@LoadBool_e@2
  00020	80 f2 ed	 xor	 dl, -19			; ffffffedH
  00023	88 55 e8	 mov	 BYTE PTR __k$[ebp], dl
  00026	8a 50 01	 mov	 dl, BYTE PTR [eax+1]
  00029	84 d2		 test	 dl, dl
  0002b	0f 84 75 01 00
	00		 je	 $LN95@LoadBool_e@2
  00031	80 f2 ec	 xor	 dl, -20			; ffffffecH
  00034	88 55 e9	 mov	 BYTE PTR __k$[ebp+1], dl
  00037	8a 50 02	 mov	 dl, BYTE PTR [eax+2]
  0003a	84 d2		 test	 dl, dl
  0003c	0f 84 5e 01 00
	00		 je	 $LN94@LoadBool_e@2
  00042	b1 eb		 mov	 cl, -21			; ffffffebH
  00044	32 d1		 xor	 dl, cl
  00046	88 55 ea	 mov	 BYTE PTR __k$[ebp+2], dl
  00049	8a 50 03	 mov	 dl, BYTE PTR [eax+3]
  0004c	84 d2		 test	 dl, dl
  0004e	0f 84 46 01 00
	00		 je	 $LN93@LoadBool_e@2
  00054	80 f2 ea	 xor	 dl, -22			; ffffffeaH
  00057	88 55 eb	 mov	 BYTE PTR __k$[ebp+3], dl
  0005a	8a 50 04	 mov	 dl, BYTE PTR [eax+4]
  0005d	84 d2		 test	 dl, dl
  0005f	0f 84 2f 01 00
	00		 je	 $LN92@LoadBool_e@2
  00065	80 f2 ed	 xor	 dl, -19			; ffffffedH
  00068	88 55 ec	 mov	 BYTE PTR __k$[ebp+4], dl
  0006b	8a 50 05	 mov	 dl, BYTE PTR [eax+5]
  0006e	84 d2		 test	 dl, dl
  00070	0f 84 18 01 00
	00		 je	 $LN91@LoadBool_e@2
  00076	80 f2 ec	 xor	 dl, -20			; ffffffecH
  00079	88 55 ed	 mov	 BYTE PTR __k$[ebp+5], dl
  0007c	8a 50 06	 mov	 dl, BYTE PTR [eax+6]
  0007f	84 d2		 test	 dl, dl
  00081	0f 84 02 01 00
	00		 je	 $LN90@LoadBool_e@2
  00087	32 d1		 xor	 dl, cl
  00089	88 55 ee	 mov	 BYTE PTR __k$[ebp+6], dl
  0008c	8a 50 07	 mov	 dl, BYTE PTR [eax+7]
  0008f	84 d2		 test	 dl, dl
  00091	0f 84 ec 00 00
	00		 je	 $LN89@LoadBool_e@2
  00097	80 f2 ea	 xor	 dl, -22			; ffffffeaH
  0009a	88 55 ef	 mov	 BYTE PTR __k$[ebp+7], dl
  0009d	8a 50 08	 mov	 dl, BYTE PTR [eax+8]
  000a0	84 d2		 test	 dl, dl
  000a2	0f 84 d5 00 00
	00		 je	 $LN88@LoadBool_e@2
  000a8	80 f2 ed	 xor	 dl, -19			; ffffffedH
  000ab	88 55 f0	 mov	 BYTE PTR __k$[ebp+8], dl
  000ae	8a 50 09	 mov	 dl, BYTE PTR [eax+9]
  000b1	84 d2		 test	 dl, dl
  000b3	0f 84 be 00 00
	00		 je	 $LN87@LoadBool_e@2
  000b9	80 f2 ec	 xor	 dl, -20			; ffffffecH
  000bc	88 55 f1	 mov	 BYTE PTR __k$[ebp+9], dl
  000bf	8a 50 0a	 mov	 dl, BYTE PTR [eax+10]
  000c2	84 d2		 test	 dl, dl
  000c4	0f 84 a8 00 00
	00		 je	 $LN86@LoadBool_e@2
  000ca	32 d1		 xor	 dl, cl
  000cc	88 55 f2	 mov	 BYTE PTR __k$[ebp+10], dl
  000cf	8a 50 0b	 mov	 dl, BYTE PTR [eax+11]
  000d2	84 d2		 test	 dl, dl
  000d4	0f 84 92 00 00
	00		 je	 $LN85@LoadBool_e@2
  000da	80 f2 ea	 xor	 dl, -22			; ffffffeaH
  000dd	88 55 f3	 mov	 BYTE PTR __k$[ebp+11], dl
  000e0	8a 50 0c	 mov	 dl, BYTE PTR [eax+12]
  000e3	84 d2		 test	 dl, dl
  000e5	74 7f		 je	 SHORT $LN84@LoadBool_e@2
  000e7	80 f2 ed	 xor	 dl, -19			; ffffffedH
  000ea	88 55 f4	 mov	 BYTE PTR __k$[ebp+12], dl
  000ed	8a 50 0d	 mov	 dl, BYTE PTR [eax+13]
  000f0	84 d2		 test	 dl, dl
  000f2	74 6c		 je	 SHORT $LN83@LoadBool_e@2
  000f4	80 f2 ec	 xor	 dl, -20			; ffffffecH
  000f7	88 55 f5	 mov	 BYTE PTR __k$[ebp+13], dl
  000fa	8a 50 0e	 mov	 dl, BYTE PTR [eax+14]
  000fd	84 d2		 test	 dl, dl
  000ff	74 5a		 je	 SHORT $LN82@LoadBool_e@2
  00101	32 d1		 xor	 dl, cl
  00103	80 78 0f 00	 cmp	 BYTE PTR [eax+15], 0
  00107	88 55 f6	 mov	 BYTE PTR __k$[ebp+14], dl
  0010a	0f 84 a0 00 00
	00		 je	 $LN1@LoadBool_e@2
  00110	8a 50 10	 mov	 dl, BYTE PTR [eax+16]
  00113	84 d2		 test	 dl, dl
  00115	74 3e		 je	 SHORT $LN80@LoadBool_e@2
  00117	80 f2 ed	 xor	 dl, -19			; ffffffedH
  0011a	88 55 f8	 mov	 BYTE PTR __k$[ebp+16], dl
  0011d	8a 50 11	 mov	 dl, BYTE PTR [eax+17]
  00120	84 d2		 test	 dl, dl
  00122	74 2b		 je	 SHORT $LN79@LoadBool_e@2
  00124	80 f2 ec	 xor	 dl, -20			; ffffffecH
  00127	88 55 f9	 mov	 BYTE PTR __k$[ebp+17], dl
  0012a	8a 50 12	 mov	 dl, BYTE PTR [eax+18]
  0012d	84 d2		 test	 dl, dl
  0012f	74 19		 je	 SHORT $LN78@LoadBool_e@2
  00131	8a 40 13	 mov	 al, BYTE PTR [eax+19]
  00134	32 d1		 xor	 dl, cl
  00136	88 55 fa	 mov	 BYTE PTR __k$[ebp+18], dl
  00139	84 c0		 test	 al, al
  0013b	74 07		 je	 SHORT $LN77@LoadBool_e@2
  0013d	34 ea		 xor	 al, -22			; ffffffeaH
  0013f	88 45 fb	 mov	 BYTE PTR __k$[ebp+19], al
  00142	eb 6c		 jmp	 SHORT $LN1@LoadBool_e@2
$LN77@LoadBool_e@2:
  00144	c6 45 fb ea	 mov	 BYTE PTR __k$[ebp+19], -22 ; ffffffeaH
  00148	eb 66		 jmp	 SHORT $LN1@LoadBool_e@2
$LN78@LoadBool_e@2:
  0014a	88 4d fa	 mov	 BYTE PTR __k$[ebp+18], cl
  0014d	eb 61		 jmp	 SHORT $LN1@LoadBool_e@2
$LN79@LoadBool_e@2:
  0014f	c6 45 f9 ec	 mov	 BYTE PTR __k$[ebp+17], -20 ; ffffffecH
  00153	eb 5b		 jmp	 SHORT $LN1@LoadBool_e@2
$LN80@LoadBool_e@2:
  00155	c6 45 f8 ed	 mov	 BYTE PTR __k$[ebp+16], -19 ; ffffffedH
  00159	eb 55		 jmp	 SHORT $LN1@LoadBool_e@2
$LN82@LoadBool_e@2:
  0015b	88 4d f6	 mov	 BYTE PTR __k$[ebp+14], cl
  0015e	eb 50		 jmp	 SHORT $LN1@LoadBool_e@2
$LN83@LoadBool_e@2:
  00160	c6 45 f5 ec	 mov	 BYTE PTR __k$[ebp+13], -20 ; ffffffecH
  00164	eb 4a		 jmp	 SHORT $LN1@LoadBool_e@2
$LN84@LoadBool_e@2:
  00166	c6 45 f4 ed	 mov	 BYTE PTR __k$[ebp+12], -19 ; ffffffedH
  0016a	eb 44		 jmp	 SHORT $LN1@LoadBool_e@2
$LN85@LoadBool_e@2:
  0016c	c6 45 f3 ea	 mov	 BYTE PTR __k$[ebp+11], -22 ; ffffffeaH
  00170	eb 3e		 jmp	 SHORT $LN1@LoadBool_e@2
$LN86@LoadBool_e@2:
  00172	88 4d f2	 mov	 BYTE PTR __k$[ebp+10], cl
  00175	eb 39		 jmp	 SHORT $LN1@LoadBool_e@2
$LN87@LoadBool_e@2:
  00177	c6 45 f1 ec	 mov	 BYTE PTR __k$[ebp+9], -20 ; ffffffecH
  0017b	eb 33		 jmp	 SHORT $LN1@LoadBool_e@2
$LN88@LoadBool_e@2:
  0017d	c6 45 f0 ed	 mov	 BYTE PTR __k$[ebp+8], -19 ; ffffffedH
  00181	eb 2d		 jmp	 SHORT $LN1@LoadBool_e@2
$LN89@LoadBool_e@2:
  00183	c6 45 ef ea	 mov	 BYTE PTR __k$[ebp+7], -22 ; ffffffeaH
  00187	eb 27		 jmp	 SHORT $LN1@LoadBool_e@2
$LN90@LoadBool_e@2:
  00189	88 4d ee	 mov	 BYTE PTR __k$[ebp+6], cl
  0018c	eb 22		 jmp	 SHORT $LN1@LoadBool_e@2
$LN91@LoadBool_e@2:
  0018e	c6 45 ed ec	 mov	 BYTE PTR __k$[ebp+5], -20 ; ffffffecH
  00192	eb 1c		 jmp	 SHORT $LN1@LoadBool_e@2
$LN92@LoadBool_e@2:
  00194	c6 45 ec ed	 mov	 BYTE PTR __k$[ebp+4], -19 ; ffffffedH
  00198	eb 16		 jmp	 SHORT $LN1@LoadBool_e@2
$LN93@LoadBool_e@2:
  0019a	c6 45 eb ea	 mov	 BYTE PTR __k$[ebp+3], -22 ; ffffffeaH
  0019e	eb 10		 jmp	 SHORT $LN1@LoadBool_e@2
$LN94@LoadBool_e@2:
  001a0	c6 45 ea eb	 mov	 BYTE PTR __k$[ebp+2], -21 ; ffffffebH
  001a4	eb 0a		 jmp	 SHORT $LN1@LoadBool_e@2
$LN95@LoadBool_e@2:
  001a6	c6 45 e9 ec	 mov	 BYTE PTR __k$[ebp+1], -20 ; ffffffecH
  001aa	eb 04		 jmp	 SHORT $LN1@LoadBool_e@2
$LN96@LoadBool_e@2:
  001ac	c6 45 e8 ed	 mov	 BYTE PTR __k$[ebp], -19	; ffffffedH
$LN1@LoadBool_e@2:
  001b0	6a 03		 push	 3
  001b2	8d 45 e8	 lea	 eax, DWORD PTR __k$[ebp]
  001b5	c6 45 f7 00	 mov	 BYTE PTR __k$[ebp+15], 0
  001b9	5a		 pop	 edx
$LL104@LoadBool_e@2:
  001ba	81 30 ed ec eb
	ea		 xor	 DWORD PTR [eax], -353637139 ; eaebecedH
  001c0	83 c0 04	 add	 eax, 4
  001c3	4a		 dec	 edx
  001c4	75 f4		 jne	 SHORT $LL104@LoadBool_e@2
  001c6	6a 0c		 push	 12			; 0000000cH
  001c8	58		 pop	 eax
$LL101@LoadBool_e@2:
  001c9	8b c8		 mov	 ecx, eax
  001cb	81 e1 03 00 00
	80		 and	 ecx, -2147483645	; 80000003H
  001d1	79 05		 jns	 SHORT $LN111@LoadBool_e@2
  001d3	49		 dec	 ecx
  001d4	83 c9 fc	 or	 ecx, -4			; fffffffcH
  001d7	41		 inc	 ecx
$LN111@LoadBool_e@2:
  001d8	b2 ed		 mov	 dl, -19			; ffffffedH
  001da	2a d1		 sub	 dl, cl
  001dc	30 54 05 e8	 xor	 BYTE PTR __k$[ebp+eax], dl
  001e0	40		 inc	 eax
  001e1	83 f8 0f	 cmp	 eax, 15			; 0000000fH
  001e4	7c e3		 jl	 SHORT $LL101@LoadBool_e@2

; 103  : 		return LoadBool(_k, b);

  001e6	ff 75 0c	 push	 DWORD PTR _b$[ebp]
  001e9	8d 45 e8	 lea	 eax, DWORD PTR __k$[ebp]
  001ec	50		 push	 eax
  001ed	8b ce		 mov	 ecx, esi
  001ef	ff 15 00 00 00
	00		 call	 DWORD PTR __imp_?LoadBool@ioINILoader@@QAE_NPBD_N@Z

; 104  : 	}

  001f5	8b 4d fc	 mov	 ecx, DWORD PTR __$ArrayPad$[ebp]
  001f8	33 cd		 xor	 ecx, ebp
  001fa	5e		 pop	 esi
  001fb	e8 00 00 00 00	 call	 @__security_check_cookie@4
  00200	c9		 leave
  00201	c2 08 00	 ret	 8
??$LoadBool_e@$0BA@@ioINILoader@@QAE_NAAY0BA@$$CBD_N@Z ENDP ; ioINILoader::LoadBool_e<16>
_TEXT	ENDS
PUBLIC	??D?$CEncrypt@M@@QAEMABN@Z			; CEncrypt<float>::operator*
; Function compile flags: /Ogsp
; File d:\lost saga for developer\youtube\tutorial\source\src\lsclient\encryptvalue.h
;	COMDAT ??D?$CEncrypt@M@@QAEMABN@Z
_TEXT	SEGMENT
_value$ = -4						; size = 4
tv130 = 8						; size = 4
_inValue$ = 8						; size = 4
??D?$CEncrypt@M@@QAEMABN@Z PROC				; CEncrypt<float>::operator*, COMDAT
; _this$ = ecx

; 1881 : 	{

  00000	55		 push	 ebp
  00001	8b ec		 mov	 ebp, esp
  00003	51		 push	 ecx

; 1882 : 		type value;
; 1883 : 		DecryptValueToPool(&value);

  00004	8d 45 fc	 lea	 eax, DWORD PTR _value$[ebp]
  00007	50		 push	 eax
  00008	e8 00 00 00 00	 call	 ?DecryptValueToPool@?$CEncrypt@M@@QAEXPAM@Z ; CEncrypt<float>::DecryptValueToPool

; 1884 : #ifdef _NOTUSE
; 1885 : 		Debug();
; 1886 : #endif
; 1887 : 		return value * inValue;

  0000d	d9 45 fc	 fld	 DWORD PTR _value$[ebp]
  00010	8b 45 08	 mov	 eax, DWORD PTR _inValue$[ebp]
  00013	dc 08		 fmul	 QWORD PTR [eax]
  00015	d9 5d 08	 fstp	 DWORD PTR tv130[ebp]
  00018	d9 45 08	 fld	 DWORD PTR tv130[ebp]

; 1888 : 	}

  0001b	c9		 leave
  0001c	c2 04 00	 ret	 4
??D?$CEncrypt@M@@QAEMABN@Z ENDP				; CEncrypt<float>::operator*
_TEXT	ENDS
PUBLIC	?construct@?$allocator@PAVioPlayEntity@@@std@@QAEXPAPAVioPlayEntity@@ABQAV3@@Z ; std::allocator<ioPlayEntity *>::construct
; Function compile flags: /Ogsp
; File c:\program files (x86)\microsoft visual studio 10.0\vc\include\xmemory
;	COMDAT ?construct@?$allocator@PAVioPlayEntity@@@std@@QAEXPAPAVioPlayEntity@@ABQAV3@@Z
_TEXT	SEGMENT
__Ptr$ = 8						; size = 4
__Val$ = 12						; size = 4
?construct@?$allocator@PAVioPlayEntity@@@std@@QAEXPAPAVioPlayEntity@@ABQAV3@@Z PROC ; std::allocator<ioPlayEntity *>::construct, COMDAT
; _this$ = ecx

; 196  : 		{	// construct object at _Ptr with value _Val

  00000	55		 push	 ebp
  00001	8b ec		 mov	 ebp, esp

; 197  : 		_Construct(_Ptr, _Val);

  00003	8b 45 08	 mov	 eax, DWORD PTR __Ptr$[ebp]
  00006	85 c0		 test	 eax, eax
  00008	74 07		 je	 SHORT $LN5@construct
  0000a	8b 4d 0c	 mov	 ecx, DWORD PTR __Val$[ebp]
  0000d	8b 09		 mov	 ecx, DWORD PTR [ecx]
  0000f	89 08		 mov	 DWORD PTR [eax], ecx
$LN5@construct:

; 198  : 		}

  00011	5d		 pop	 ebp
  00012	c2 08 00	 ret	 8
?construct@?$allocator@PAVioPlayEntity@@@std@@QAEXPAPAVioPlayEntity@@ABQAV3@@Z ENDP ; std::allocator<ioPlayEntity *>::construct
_TEXT	ENDS
PUBLIC	?destroy@?$allocator@U_Node@?$_List_nod@PAVioPlayEntity@@V?$allocator@PAVioPlayEntity@@@std@@@std@@@std@@QAEXPAU_Node@?$_List_nod@PAVioPlayEntity@@V?$allocator@PAVioPlayEntity@@@std@@@2@@Z ; std::allocator<std::_List_nod<ioPlayEntity *,std::allocator<ioPlayEntity *> >::_Node>::destroy
; Function compile flags: /Ogsp
;	COMDAT ?destroy@?$allocator@U_Node@?$_List_nod@PAVioPlayEntity@@V?$allocator@PAVioPlayEntity@@@std@@@std@@@std@@QAEXPAU_Node@?$_List_nod@PAVioPlayEntity@@V?$allocator@PAVioPlayEntity@@@std@@@2@@Z
_TEXT	SEGMENT
__Ptr$ = 8						; size = 4
?destroy@?$allocator@U_Node@?$_List_nod@PAVioPlayEntity@@V?$allocator@PAVioPlayEntity@@@std@@@std@@@std@@QAEXPAU_Node@?$_List_nod@PAVioPlayEntity@@V?$allocator@PAVioPlayEntity@@@std@@@2@@Z PROC ; std::allocator<std::_List_nod<ioPlayEntity *,std::allocator<ioPlayEntity *> >::_Node>::destroy, COMDAT
; _this$ = ecx

; 213  : 		_Destroy(_Ptr);
; 214  : 		}

  00000	c2 04 00	 ret	 4
?destroy@?$allocator@U_Node@?$_List_nod@PAVioPlayEntity@@V?$allocator@PAVioPlayEntity@@@std@@@std@@@std@@QAEXPAU_Node@?$_List_nod@PAVioPlayEntity@@V?$allocator@PAVioPlayEntity@@@std@@@2@@Z ENDP ; std::allocator<std::_List_nod<ioPlayEntity *,std::allocator<ioPlayEntity *> >::_Node>::destroy
_TEXT	ENDS
PUBLIC	??$construct@AAVioHashString@@@?$allocator@VioHashString@@@std@@QAEXPAVioHashString@@AAV2@@Z ; std::allocator<ioHashString>::construct<ioHashString &>
;	COMDAT xdata$x
; File c:\program files (x86)\microsoft visual studio 10.0\vc\include\utility
xdata$x	SEGMENT
__unwindtable$??$construct@AAVioHashString@@@?$allocator@VioHashString@@@std@@QAEXPAVioHashString@@AAV2@@Z DD 0ffffffffH
	DD	FLAT:__unwindfunclet$??$construct@AAVioHashString@@@?$allocator@VioHashString@@@std@@QAEXPAVioHashString@@AAV2@@Z$0
__ehfuncinfo$??$construct@AAVioHashString@@@?$allocator@VioHashString@@@std@@QAEXPAVioHashString@@AAV2@@Z DD 019930522H
	DD	01H
	DD	FLAT:__unwindtable$??$construct@AAVioHashString@@@?$allocator@VioHashString@@@std@@QAEXPAVioHashString@@AAV2@@Z
	DD	2 DUP(00H)
	DD	2 DUP(00H)
	DD	00H
	DD	01H
; Function compile flags: /Ogsp
; File c:\program files (x86)\microsoft visual studio 10.0\vc\include\xmemory
xdata$x	ENDS
;	COMDAT ??$construct@AAVioHashString@@@?$allocator@VioHashString@@@std@@QAEXPAVioHashString@@AAV2@@Z
_TEXT	SEGMENT
$T534006 = -16						; size = 4
__$EHRec$ = -12						; size = 12
__Ptr$ = 8						; size = 4
__Val$ = 12						; size = 4
??$construct@AAVioHashString@@@?$allocator@VioHashString@@@std@@QAEXPAVioHashString@@AAV2@@Z PROC ; std::allocator<ioHashString>::construct<ioHashString &>, COMDAT
; _this$ = ecx

; 206  : 		void construct(pointer _Ptr, _Other&& _Val)

  00000	6a 04		 push	 4
  00002	b8 00 00 00 00	 mov	 eax, __ehhandler$??$construct@AAVioHashString@@@?$allocator@VioHashString@@@std@@QAEXPAVioHashString@@AAV2@@Z
  00007	e8 00 00 00 00	 call	 __EH_prolog3

; 207  : 		{	// construct object at _Ptr with value _Val
; 208  : 		::new ((void _FARQ *)_Ptr) _Ty(_STD forward<_Other>(_Val));

  0000c	8b 4d 08	 mov	 ecx, DWORD PTR __Ptr$[ebp]
  0000f	89 4d f0	 mov	 DWORD PTR $T534006[ebp], ecx
  00012	83 65 fc 00	 and	 DWORD PTR __$EHRec$[ebp+8], 0
  00016	85 c9		 test	 ecx, ecx
  00018	74 09		 je	 SHORT $LN3@construct@2
  0001a	ff 75 0c	 push	 DWORD PTR __Val$[ebp]
  0001d	ff 15 00 00 00
	00		 call	 DWORD PTR __imp_??0ioHashString@@QAE@ABV0@@Z
$LN3@construct@2:

; 209  : 		}

  00023	e8 00 00 00 00	 call	 __EH_epilog3
  00028	c2 08 00	 ret	 8
_TEXT	ENDS
;	COMDAT text$x
text$x	SEGMENT
__unwindfunclet$??$construct@AAVioHashString@@@?$allocator@VioHashString@@@std@@QAEXPAVioHashString@@AAV2@@Z$0:
  00000	ff 75 08	 push	 DWORD PTR __Ptr$[ebp]
  00003	ff 75 f0	 push	 DWORD PTR $T534006[ebp]
  00006	e8 00 00 00 00	 call	 ??3@YAXPAX0@Z		; operator delete
  0000b	59		 pop	 ecx
  0000c	59		 pop	 ecx
  0000d	c3		 ret	 0
__ehhandler$??$construct@AAVioHashString@@@?$allocator@VioHashString@@@std@@QAEXPAVioHashString@@AAV2@@Z:
  0000e	8b 54 24 08	 mov	 edx, DWORD PTR [esp+8]
  00012	8d 42 0c	 lea	 eax, DWORD PTR [edx+12]
  00015	8b 4a ec	 mov	 ecx, DWORD PTR [edx-20]
  00018	33 c8		 xor	 ecx, eax
  0001a	e8 00 00 00 00	 call	 @__security_check_cookie@4
  0001f	b8 00 00 00 00	 mov	 eax, OFFSET __ehfuncinfo$??$construct@AAVioHashString@@@?$allocator@VioHashString@@@std@@QAEXPAVioHashString@@AAV2@@Z
  00024	e9 00 00 00 00	 jmp	 ___CxxFrameHandler3
text$x	ENDS
??$construct@AAVioHashString@@@?$allocator@VioHashString@@@std@@QAEXPAVioHashString@@AAV2@@Z ENDP ; std::allocator<ioHashString>::construct<ioHashString &>
PUBLIC	??$construct@AAUstWantCheckList@ioAreaEffectWeapon@@@?$allocator@UstWantCheckList@ioAreaEffectWeapon@@@std@@QAEXPAUstWantCheckList@ioAreaEffectWeapon@@AAU23@@Z ; std::allocator<ioAreaEffectWeapon::stWantCheckList>::construct<ioAreaEffectWeapon::stWantCheckList &>
;	COMDAT xdata$x
; File d:\lost saga for developer\youtube\tutorial\source\src\lsclient\encryptvalue.h
xdata$x	SEGMENT
__unwindtable$??$construct@AAUstWantCheckList@ioAreaEffectWeapon@@@?$allocator@UstWantCheckList@ioAreaEffectWeapon@@@std@@QAEXPAUstWantCheckList@ioAreaEffectWeapon@@AAU23@@Z DD 0ffffffffH
	DD	FLAT:__unwindfunclet$??$construct@AAUstWantCheckList@ioAreaEffectWeapon@@@?$allocator@UstWantCheckList@ioAreaEffectWeapon@@@std@@QAEXPAUstWantCheckList@ioAreaEffectWeapon@@AAU23@@Z$0
__ehfuncinfo$??$construct@AAUstWantCheckList@ioAreaEffectWeapon@@@?$allocator@UstWantCheckList@ioAreaEffectWeapon@@@std@@QAEXPAUstWantCheckList@ioAreaEffectWeapon@@AAU23@@Z DD 019930522H
	DD	01H
	DD	FLAT:__unwindtable$??$construct@AAUstWantCheckList@ioAreaEffectWeapon@@@?$allocator@UstWantCheckList@ioAreaEffectWeapon@@@std@@QAEXPAUstWantCheckList@ioAreaEffectWeapon@@AAU23@@Z
	DD	2 DUP(00H)
	DD	2 DUP(00H)
	DD	00H
	DD	01H
; Function compile flags: /Ogsp
; File c:\program files (x86)\microsoft visual studio 10.0\vc\include\xmemory
xdata$x	ENDS
;	COMDAT ??$construct@AAUstWantCheckList@ioAreaEffectWeapon@@@?$allocator@UstWantCheckList@ioAreaEffectWeapon@@@std@@QAEXPAUstWantCheckList@ioAreaEffectWeapon@@AAU23@@Z
_TEXT	SEGMENT
$T534025 = -16						; size = 4
__$EHRec$ = -12						; size = 12
__Ptr$ = 8						; size = 4
__Val$ = 12						; size = 4
??$construct@AAUstWantCheckList@ioAreaEffectWeapon@@@?$allocator@UstWantCheckList@ioAreaEffectWeapon@@@std@@QAEXPAUstWantCheckList@ioAreaEffectWeapon@@AAU23@@Z PROC ; std::allocator<ioAreaEffectWeapon::stWantCheckList>::construct<ioAreaEffectWeapon::stWantCheckList &>, COMDAT
; _this$ = ecx

; 206  : 		void construct(pointer _Ptr, _Other&& _Val)

  00000	6a 04		 push	 4
  00002	b8 00 00 00 00	 mov	 eax, __ehhandler$??$construct@AAUstWantCheckList@ioAreaEffectWeapon@@@?$allocator@UstWantCheckList@ioAreaEffectWeapon@@@std@@QAEXPAUstWantCheckList@ioAreaEffectWeapon@@AAU23@@Z
  00007	e8 00 00 00 00	 call	 __EH_prolog3

; 207  : 		{	// construct object at _Ptr with value _Val
; 208  : 		::new ((void _FARQ *)_Ptr) _Ty(_STD forward<_Other>(_Val));

  0000c	8b 75 08	 mov	 esi, DWORD PTR __Ptr$[ebp]
  0000f	89 75 f0	 mov	 DWORD PTR $T534025[ebp], esi
  00012	83 65 fc 00	 and	 DWORD PTR __$EHRec$[ebp+8], 0
  00016	85 f6		 test	 esi, esi
  00018	74 12		 je	 SHORT $LN3@construct@3
  0001a	8b 7d 0c	 mov	 edi, DWORD PTR __Val$[ebp]
  0001d	57		 push	 edi
  0001e	8b ce		 mov	 ecx, esi
  00020	ff 15 00 00 00
	00		 call	 DWORD PTR __imp_??0ioHashString@@QAE@ABV0@@Z
  00026	8a 47 10	 mov	 al, BYTE PTR [edi+16]
  00029	88 46 10	 mov	 BYTE PTR [esi+16], al
$LN3@construct@3:

; 209  : 		}

  0002c	e8 00 00 00 00	 call	 __EH_epilog3
  00031	c2 08 00	 ret	 8
_TEXT	ENDS
;	COMDAT text$x
text$x	SEGMENT
__unwindfunclet$??$construct@AAUstWantCheckList@ioAreaEffectWeapon@@@?$allocator@UstWantCheckList@ioAreaEffectWeapon@@@std@@QAEXPAUstWantCheckList@ioAreaEffectWeapon@@AAU23@@Z$0:
  00000	ff 75 08	 push	 DWORD PTR __Ptr$[ebp]
  00003	ff 75 f0	 push	 DWORD PTR $T534025[ebp]
  00006	e8 00 00 00 00	 call	 ??3@YAXPAX0@Z		; operator delete
  0000b	59		 pop	 ecx
  0000c	59		 pop	 ecx
  0000d	c3		 ret	 0
__ehhandler$??$construct@AAUstWantCheckList@ioAreaEffectWeapon@@@?$allocator@UstWantCheckList@ioAreaEffectWeapon@@@std@@QAEXPAUstWantCheckList@ioAreaEffectWeapon@@AAU23@@Z:
  0000e	8b 54 24 08	 mov	 edx, DWORD PTR [esp+8]
  00012	8d 42 0c	 lea	 eax, DWORD PTR [edx+12]
  00015	8b 4a ec	 mov	 ecx, DWORD PTR [edx-20]
  00018	33 c8		 xor	 ecx, eax
  0001a	e8 00 00 00 00	 call	 @__security_check_cookie@4
  0001f	b8 00 00 00 00	 mov	 eax, OFFSET __ehfuncinfo$??$construct@AAUstWantCheckList@ioAreaEffectWeapon@@@?$allocator@UstWantCheckList@ioAreaEffectWeapon@@@std@@QAEXPAUstWantCheckList@ioAreaEffectWeapon@@AAU23@@Z
  00024	e9 00 00 00 00	 jmp	 ___CxxFrameHandler3
text$x	ENDS
??$construct@AAUstWantCheckList@ioAreaEffectWeapon@@@?$allocator@UstWantCheckList@ioAreaEffectWeapon@@@std@@QAEXPAUstWantCheckList@ioAreaEffectWeapon@@AAU23@@Z ENDP ; std::allocator<ioAreaEffectWeapon::stWantCheckList>::construct<ioAreaEffectWeapon::stWantCheckList &>
PUBLIC	??$_Construct@UstWantCheckList@ioAreaEffectWeapon@@ABU12@@std@@YAXPAUstWantCheckList@ioAreaEffectWeapon@@ABU12@@Z ; std::_Construct<ioAreaEffectWeapon::stWantCheckList,ioAreaEffectWeapon::stWantCheckList const &>
;	COMDAT xdata$x
; File d:\lost saga for developer\youtube\tutorial\source\src\lsclient\encryptvalue.h
xdata$x	SEGMENT
__unwindtable$??$_Construct@UstWantCheckList@ioAreaEffectWeapon@@ABU12@@std@@YAXPAUstWantCheckList@ioAreaEffectWeapon@@ABU12@@Z DD 0ffffffffH
	DD	FLAT:__unwindfunclet$??$_Construct@UstWantCheckList@ioAreaEffectWeapon@@ABU12@@std@@YAXPAUstWantCheckList@ioAreaEffectWeapon@@ABU12@@Z$0
__ehfuncinfo$??$_Construct@UstWantCheckList@ioAreaEffectWeapon@@ABU12@@std@@YAXPAUstWantCheckList@ioAreaEffectWeapon@@ABU12@@Z DD 019930522H
	DD	01H
	DD	FLAT:__unwindtable$??$_Construct@UstWantCheckList@ioAreaEffectWeapon@@ABU12@@std@@YAXPAUstWantCheckList@ioAreaEffectWeapon@@ABU12@@Z
	DD	2 DUP(00H)
	DD	2 DUP(00H)
	DD	00H
	DD	01H
; Function compile flags: /Ogsp
; File c:\program files (x86)\microsoft visual studio 10.0\vc\include\xmemory
xdata$x	ENDS
;	COMDAT ??$_Construct@UstWantCheckList@ioAreaEffectWeapon@@ABU12@@std@@YAXPAUstWantCheckList@ioAreaEffectWeapon@@ABU12@@Z
_TEXT	SEGMENT
$T534048 = -16						; size = 4
__$EHRec$ = -12						; size = 12
__Vptr$ = 8						; size = 4
__Ptr$ = 8						; size = 4
__Val$ = 12						; size = 4
??$_Construct@UstWantCheckList@ioAreaEffectWeapon@@ABU12@@std@@YAXPAUstWantCheckList@ioAreaEffectWeapon@@ABU12@@Z PROC ; std::_Construct<ioAreaEffectWeapon::stWantCheckList,ioAreaEffectWeapon::stWantCheckList const &>, COMDAT

; 46   : 	{	// construct object at _Ptr with value _Val

  00000	6a 04		 push	 4
  00002	b8 00 00 00 00	 mov	 eax, __ehhandler$??$_Construct@UstWantCheckList@ioAreaEffectWeapon@@ABU12@@std@@YAXPAUstWantCheckList@ioAreaEffectWeapon@@ABU12@@Z
  00007	e8 00 00 00 00	 call	 __EH_prolog3

; 47   : 	void _FARQ *_Vptr = _Ptr;

  0000c	8b 75 08	 mov	 esi, DWORD PTR __Ptr$[ebp]
  0000f	89 75 08	 mov	 DWORD PTR __Vptr$[ebp], esi

; 48   : 	::new (_Vptr) _Ty1(_STD forward<_Ty2>(_Val));

  00012	89 75 f0	 mov	 DWORD PTR $T534048[ebp], esi
  00015	83 65 fc 00	 and	 DWORD PTR __$EHRec$[ebp+8], 0
  00019	85 f6		 test	 esi, esi
  0001b	74 12		 je	 SHORT $LN3@Construct@3
  0001d	8b 7d 0c	 mov	 edi, DWORD PTR __Val$[ebp]
  00020	57		 push	 edi
  00021	8b ce		 mov	 ecx, esi
  00023	ff 15 00 00 00
	00		 call	 DWORD PTR __imp_??0ioHashString@@QAE@ABV0@@Z
  00029	8a 47 10	 mov	 al, BYTE PTR [edi+16]
  0002c	88 46 10	 mov	 BYTE PTR [esi+16], al
$LN3@Construct@3:

; 49   : 	}

  0002f	e8 00 00 00 00	 call	 __EH_epilog3
  00034	c3		 ret	 0
_TEXT	ENDS
;	COMDAT text$x
text$x	SEGMENT
__unwindfunclet$??$_Construct@UstWantCheckList@ioAreaEffectWeapon@@ABU12@@std@@YAXPAUstWantCheckList@ioAreaEffectWeapon@@ABU12@@Z$0:
  00000	ff 75 08	 push	 DWORD PTR __Vptr$[ebp]
  00003	ff 75 f0	 push	 DWORD PTR $T534048[ebp]
  00006	e8 00 00 00 00	 call	 ??3@YAXPAX0@Z		; operator delete
  0000b	59		 pop	 ecx
  0000c	59		 pop	 ecx
  0000d	c3		 ret	 0
__ehhandler$??$_Construct@UstWantCheckList@ioAreaEffectWeapon@@ABU12@@std@@YAXPAUstWantCheckList@ioAreaEffectWeapon@@ABU12@@Z:
  0000e	8b 54 24 08	 mov	 edx, DWORD PTR [esp+8]
  00012	8d 42 0c	 lea	 eax, DWORD PTR [edx+12]
  00015	8b 4a ec	 mov	 ecx, DWORD PTR [edx-20]
  00018	33 c8		 xor	 ecx, eax
  0001a	e8 00 00 00 00	 call	 @__security_check_cookie@4
  0001f	b8 00 00 00 00	 mov	 eax, OFFSET __ehfuncinfo$??$_Construct@UstWantCheckList@ioAreaEffectWeapon@@ABU12@@std@@YAXPAUstWantCheckList@ioAreaEffectWeapon@@ABU12@@Z
  00024	e9 00 00 00 00	 jmp	 ___CxxFrameHandler3
text$x	ENDS
??$_Construct@UstWantCheckList@ioAreaEffectWeapon@@ABU12@@std@@YAXPAUstWantCheckList@ioAreaEffectWeapon@@ABU12@@Z ENDP ; std::_Construct<ioAreaEffectWeapon::stWantCheckList,ioAreaEffectWeapon::stWantCheckList const &>
PUBLIC	??$_Destroy@UstWantCheckList@ioAreaEffectWeapon@@@std@@YAXPAUstWantCheckList@ioAreaEffectWeapon@@@Z ; std::_Destroy<ioAreaEffectWeapon::stWantCheckList>
; Function compile flags: /Ogsp
;	COMDAT ??$_Destroy@UstWantCheckList@ioAreaEffectWeapon@@@std@@YAXPAUstWantCheckList@ioAreaEffectWeapon@@@Z
_TEXT	SEGMENT
__Ptr$ = 8						; size = 4
??$_Destroy@UstWantCheckList@ioAreaEffectWeapon@@@std@@YAXPAUstWantCheckList@ioAreaEffectWeapon@@@Z PROC ; std::_Destroy<ioAreaEffectWeapon::stWantCheckList>, COMDAT

; 62   : 	{	// destroy object at _Ptr

  00000	55		 push	 ebp
  00001	8b ec		 mov	 ebp, esp

; 63   : 	_Ptr->~_Ty();

  00003	8b 4d 08	 mov	 ecx, DWORD PTR __Ptr$[ebp]

; 64   : 	}

  00006	5d		 pop	 ebp

; 63   : 	_Ptr->~_Ty();

  00007	ff 25 00 00 00
	00		 jmp	 DWORD PTR __imp_??1ioHashString@@QAE@XZ
??$_Destroy@UstWantCheckList@ioAreaEffectWeapon@@@std@@YAXPAUstWantCheckList@ioAreaEffectWeapon@@@Z ENDP ; std::_Destroy<ioAreaEffectWeapon::stWantCheckList>
_TEXT	ENDS
PUBLIC	?construct@?$allocator@VioHashString@@@std@@QAEXPAVioHashString@@$$QAV3@@Z ; std::allocator<ioHashString>::construct
;	COMDAT xdata$x
; File c:\program files (x86)\microsoft visual studio 10.0\vc\include\utility
xdata$x	SEGMENT
__unwindtable$?construct@?$allocator@VioHashString@@@std@@QAEXPAVioHashString@@$$QAV3@@Z DD 0ffffffffH
	DD	FLAT:__unwindfunclet$?construct@?$allocator@VioHashString@@@std@@QAEXPAVioHashString@@$$QAV3@@Z$0
__ehfuncinfo$?construct@?$allocator@VioHashString@@@std@@QAEXPAVioHashString@@$$QAV3@@Z DD 019930522H
	DD	01H
	DD	FLAT:__unwindtable$?construct@?$allocator@VioHashString@@@std@@QAEXPAVioHashString@@$$QAV3@@Z
	DD	2 DUP(00H)
	DD	2 DUP(00H)
	DD	00H
	DD	01H
; Function compile flags: /Ogsp
; File c:\program files (x86)\microsoft visual studio 10.0\vc\include\xmemory
xdata$x	ENDS
;	COMDAT ?construct@?$allocator@VioHashString@@@std@@QAEXPAVioHashString@@$$QAV3@@Z
_TEXT	SEGMENT
$T534084 = -16						; size = 4
__$EHRec$ = -12						; size = 12
__Ptr$ = 8						; size = 4
__Val$ = 12						; size = 4
?construct@?$allocator@VioHashString@@@std@@QAEXPAVioHashString@@$$QAV3@@Z PROC ; std::allocator<ioHashString>::construct, COMDAT
; _this$ = ecx

; 201  : 		{	// construct object at _Ptr with value _Val

  00000	6a 04		 push	 4
  00002	b8 00 00 00 00	 mov	 eax, __ehhandler$?construct@?$allocator@VioHashString@@@std@@QAEXPAVioHashString@@$$QAV3@@Z
  00007	e8 00 00 00 00	 call	 __EH_prolog3

; 202  : 		::new ((void _FARQ *)_Ptr) _Ty(_STD forward<_Ty>(_Val));

  0000c	8b 4d 08	 mov	 ecx, DWORD PTR __Ptr$[ebp]
  0000f	89 4d f0	 mov	 DWORD PTR $T534084[ebp], ecx
  00012	83 65 fc 00	 and	 DWORD PTR __$EHRec$[ebp+8], 0
  00016	85 c9		 test	 ecx, ecx
  00018	74 09		 je	 SHORT $LN3@construct@4
  0001a	ff 75 0c	 push	 DWORD PTR __Val$[ebp]
  0001d	ff 15 00 00 00
	00		 call	 DWORD PTR __imp_??0ioHashString@@QAE@ABV0@@Z
$LN3@construct@4:

; 203  : 		}

  00023	e8 00 00 00 00	 call	 __EH_epilog3
  00028	c2 08 00	 ret	 8
_TEXT	ENDS
;	COMDAT text$x
text$x	SEGMENT
__unwindfunclet$?construct@?$allocator@VioHashString@@@std@@QAEXPAVioHashString@@$$QAV3@@Z$0:
  00000	ff 75 08	 push	 DWORD PTR __Ptr$[ebp]
  00003	ff 75 f0	 push	 DWORD PTR $T534084[ebp]
  00006	e8 00 00 00 00	 call	 ??3@YAXPAX0@Z		; operator delete
  0000b	59		 pop	 ecx
  0000c	59		 pop	 ecx
  0000d	c3		 ret	 0
__ehhandler$?construct@?$allocator@VioHashString@@@std@@QAEXPAVioHashString@@$$QAV3@@Z:
  0000e	8b 54 24 08	 mov	 edx, DWORD PTR [esp+8]
  00012	8d 42 0c	 lea	 eax, DWORD PTR [edx+12]
  00015	8b 4a ec	 mov	 ecx, DWORD PTR [edx-20]
  00018	33 c8		 xor	 ecx, eax
  0001a	e8 00 00 00 00	 call	 @__security_check_cookie@4
  0001f	b8 00 00 00 00	 mov	 eax, OFFSET __ehfuncinfo$?construct@?$allocator@VioHashString@@@std@@QAEXPAVioHashString@@$$QAV3@@Z
  00024	e9 00 00 00 00	 jmp	 ___CxxFrameHandler3
text$x	ENDS
?construct@?$allocator@VioHashString@@@std@@QAEXPAVioHashString@@$$QAV3@@Z ENDP ; std::allocator<ioHashString>::construct
PUBLIC	?construct@?$allocator@UstWantCheckList@ioAreaEffectWeapon@@@std@@QAEXPAUstWantCheckList@ioAreaEffectWeapon@@$$QAU34@@Z ; std::allocator<ioAreaEffectWeapon::stWantCheckList>::construct
;	COMDAT xdata$x
; File d:\lost saga for developer\youtube\tutorial\source\src\lsclient\encryptvalue.h
xdata$x	SEGMENT
__unwindtable$?construct@?$allocator@UstWantCheckList@ioAreaEffectWeapon@@@std@@QAEXPAUstWantCheckList@ioAreaEffectWeapon@@$$QAU34@@Z DD 0ffffffffH
	DD	FLAT:__unwindfunclet$?construct@?$allocator@UstWantCheckList@ioAreaEffectWeapon@@@std@@QAEXPAUstWantCheckList@ioAreaEffectWeapon@@$$QAU34@@Z$0
__ehfuncinfo$?construct@?$allocator@UstWantCheckList@ioAreaEffectWeapon@@@std@@QAEXPAUstWantCheckList@ioAreaEffectWeapon@@$$QAU34@@Z DD 019930522H
	DD	01H
	DD	FLAT:__unwindtable$?construct@?$allocator@UstWantCheckList@ioAreaEffectWeapon@@@std@@QAEXPAUstWantCheckList@ioAreaEffectWeapon@@$$QAU34@@Z
	DD	2 DUP(00H)
	DD	2 DUP(00H)
	DD	00H
	DD	01H
; Function compile flags: /Ogsp
; File c:\program files (x86)\microsoft visual studio 10.0\vc\include\xmemory
xdata$x	ENDS
;	COMDAT ?construct@?$allocator@UstWantCheckList@ioAreaEffectWeapon@@@std@@QAEXPAUstWantCheckList@ioAreaEffectWeapon@@$$QAU34@@Z
_TEXT	SEGMENT
$T534103 = -16						; size = 4
__$EHRec$ = -12						; size = 12
__Ptr$ = 8						; size = 4
__Val$ = 12						; size = 4
?construct@?$allocator@UstWantCheckList@ioAreaEffectWeapon@@@std@@QAEXPAUstWantCheckList@ioAreaEffectWeapon@@$$QAU34@@Z PROC ; std::allocator<ioAreaEffectWeapon::stWantCheckList>::construct, COMDAT
; _this$ = ecx

; 201  : 		{	// construct object at _Ptr with value _Val

  00000	6a 04		 push	 4
  00002	b8 00 00 00 00	 mov	 eax, __ehhandler$?construct@?$allocator@UstWantCheckList@ioAreaEffectWeapon@@@std@@QAEXPAUstWantCheckList@ioAreaEffectWeapon@@$$QAU34@@Z
  00007	e8 00 00 00 00	 call	 __EH_prolog3

; 202  : 		::new ((void _FARQ *)_Ptr) _Ty(_STD forward<_Ty>(_Val));

  0000c	8b 75 08	 mov	 esi, DWORD PTR __Ptr$[ebp]
  0000f	89 75 f0	 mov	 DWORD PTR $T534103[ebp], esi
  00012	83 65 fc 00	 and	 DWORD PTR __$EHRec$[ebp+8], 0
  00016	85 f6		 test	 esi, esi
  00018	74 12		 je	 SHORT $LN3@construct@5
  0001a	8b 7d 0c	 mov	 edi, DWORD PTR __Val$[ebp]
  0001d	57		 push	 edi
  0001e	8b ce		 mov	 ecx, esi
  00020	ff 15 00 00 00
	00		 call	 DWORD PTR __imp_??0ioHashString@@QAE@ABV0@@Z
  00026	8a 47 10	 mov	 al, BYTE PTR [edi+16]
  00029	88 46 10	 mov	 BYTE PTR [esi+16], al
$LN3@construct@5:

; 203  : 		}

  0002c	e8 00 00 00 00	 call	 __EH_epilog3
  00031	c2 08 00	 ret	 8
_TEXT	ENDS
;	COMDAT text$x
text$x	SEGMENT
__unwindfunclet$?construct@?$allocator@UstWantCheckList@ioAreaEffectWeapon@@@std@@QAEXPAUstWantCheckList@ioAreaEffectWeapon@@$$QAU34@@Z$0:
  00000	ff 75 08	 push	 DWORD PTR __Ptr$[ebp]
  00003	ff 75 f0	 push	 DWORD PTR $T534103[ebp]
  00006	e8 00 00 00 00	 call	 ??3@YAXPAX0@Z		; operator delete
  0000b	59		 pop	 ecx
  0000c	59		 pop	 ecx
  0000d	c3		 ret	 0
__ehhandler$?construct@?$allocator@UstWantCheckList@ioAreaEffectWeapon@@@std@@QAEXPAUstWantCheckList@ioAreaEffectWeapon@@$$QAU34@@Z:
  0000e	8b 54 24 08	 mov	 edx, DWORD PTR [esp+8]
  00012	8d 42 0c	 lea	 eax, DWORD PTR [edx+12]
  00015	8b 4a ec	 mov	 ecx, DWORD PTR [edx-20]
  00018	33 c8		 xor	 ecx, eax
  0001a	e8 00 00 00 00	 call	 @__security_check_cookie@4
  0001f	b8 00 00 00 00	 mov	 eax, OFFSET __ehfuncinfo$?construct@?$allocator@UstWantCheckList@ioAreaEffectWeapon@@@std@@QAEXPAUstWantCheckList@ioAreaEffectWeapon@@$$QAU34@@Z
  00024	e9 00 00 00 00	 jmp	 ___CxxFrameHandler3
text$x	ENDS
?construct@?$allocator@UstWantCheckList@ioAreaEffectWeapon@@@std@@QAEXPAUstWantCheckList@ioAreaEffectWeapon@@$$QAU34@@Z ENDP ; std::allocator<ioAreaEffectWeapon::stWantCheckList>::construct
PUBLIC	??0?$CEncrypt@M@@QAE@XZ				; CEncrypt<float>::CEncrypt<float>
EXTRN	??0ccddaabb@@QAE@XZ:PROC			; ccddaabb::ccddaabb
;	COMDAT xdata$x
; File d:\lost saga for developer\youtube\tutorial\source\src\lsclient\encryptvalue.h
xdata$x	SEGMENT
__unwindtable$??0?$CEncrypt@M@@QAE@XZ DD 0ffffffffH
	DD	FLAT:__unwindfunclet$??0?$CEncrypt@M@@QAE@XZ$0
__ehfuncinfo$??0?$CEncrypt@M@@QAE@XZ DD 019930522H
	DD	01H
	DD	FLAT:__unwindtable$??0?$CEncrypt@M@@QAE@XZ
	DD	2 DUP(00H)
	DD	2 DUP(00H)
	DD	00H
	DD	01H
; Function compile flags: /Ogsp
xdata$x	ENDS
;	COMDAT ??0?$CEncrypt@M@@QAE@XZ
_TEXT	SEGMENT
_this$ = -16						; size = 4
__$EHRec$ = -12						; size = 12
??0?$CEncrypt@M@@QAE@XZ PROC				; CEncrypt<float>::CEncrypt<float>, COMDAT
; _this$ = ecx

; 109  : 	CEncrypt()

  00000	6a 04		 push	 4
  00002	b8 00 00 00 00	 mov	 eax, __ehhandler$??0?$CEncrypt@M@@QAE@XZ
  00007	e8 00 00 00 00	 call	 __EH_prolog3
  0000c	8b f1		 mov	 esi, ecx
  0000e	89 75 f0	 mov	 DWORD PTR _this$[ebp], esi
  00011	8d 4e 0c	 lea	 ecx, DWORD PTR [esi+12]
  00014	c7 06 00 00 00
	00		 mov	 DWORD PTR [esi], OFFSET ??_7?$CEncrypt@M@@6B@
  0001a	e8 00 00 00 00	 call	 ??0ccddaabb@@QAE@XZ	; ccddaabb::ccddaabb
  0001f	83 65 fc 00	 and	 DWORD PTR __$EHRec$[ebp+8], 0

; 110  : 	{
; 111  : 		Init();

  00023	8b ce		 mov	 ecx, esi
  00025	e8 00 00 00 00	 call	 ?Init@?$CEncrypt@M@@AAEXXZ ; CEncrypt<float>::Init

; 112  : 	}

  0002a	8b c6		 mov	 eax, esi
  0002c	e8 00 00 00 00	 call	 __EH_epilog3
  00031	c3		 ret	 0
_TEXT	ENDS
;	COMDAT text$x
text$x	SEGMENT
__unwindfunclet$??0?$CEncrypt@M@@QAE@XZ$0:
  00000	8b 4d f0	 mov	 ecx, DWORD PTR _this$[ebp]
  00003	83 c1 0c	 add	 ecx, 12			; 0000000cH
  00006	e9 00 00 00 00	 jmp	 ??1ccddaabb@@UAE@XZ	; ccddaabb::~ccddaabb
__ehhandler$??0?$CEncrypt@M@@QAE@XZ:
  0000b	8b 54 24 08	 mov	 edx, DWORD PTR [esp+8]
  0000f	8d 42 0c	 lea	 eax, DWORD PTR [edx+12]
  00012	8b 4a ec	 mov	 ecx, DWORD PTR [edx-20]
  00015	33 c8		 xor	 ecx, eax
  00017	e8 00 00 00 00	 call	 @__security_check_cookie@4
  0001c	b8 00 00 00 00	 mov	 eax, OFFSET __ehfuncinfo$??0?$CEncrypt@M@@QAE@XZ
  00021	e9 00 00 00 00	 jmp	 ___CxxFrameHandler3
text$x	ENDS
??0?$CEncrypt@M@@QAE@XZ ENDP				; CEncrypt<float>::CEncrypt<float>
PUBLIC	??B?$CEncrypt@M@@QAEMXZ				; CEncrypt<float>::operator float
; Function compile flags: /Ogsp
;	COMDAT ??B?$CEncrypt@M@@QAEMXZ
_TEXT	SEGMENT
_value$ = -4						; size = 4
??B?$CEncrypt@M@@QAEMXZ PROC				; CEncrypt<float>::operator float, COMDAT
; _this$ = ecx

; 134  : 	{

  00000	55		 push	 ebp
  00001	8b ec		 mov	 ebp, esp
  00003	51		 push	 ecx

; 135  : 		type value;
; 136  : 		DecryptValueToPool(&value);

  00004	8d 45 fc	 lea	 eax, DWORD PTR _value$[ebp]
  00007	50		 push	 eax
  00008	e8 00 00 00 00	 call	 ?DecryptValueToPool@?$CEncrypt@M@@QAEXPAM@Z ; CEncrypt<float>::DecryptValueToPool

; 137  : 
; 138  : #ifdef _NOTUSE
; 139  : 		Debug();
; 140  : #endif
; 141  : 		return value;

  0000d	d9 45 fc	 fld	 DWORD PTR _value$[ebp]

; 142  : 	}

  00010	c9		 leave
  00011	c3		 ret	 0
??B?$CEncrypt@M@@QAEMXZ ENDP				; CEncrypt<float>::operator float
_TEXT	ENDS
PUBLIC	??B?$CEncrypt@M@@QBEMXZ				; CEncrypt<float>::operator float
; Function compile flags: /Ogsp
;	COMDAT ??B?$CEncrypt@M@@QBEMXZ
_TEXT	SEGMENT
_value$ = -4						; size = 4
??B?$CEncrypt@M@@QBEMXZ PROC				; CEncrypt<float>::operator float, COMDAT
; _this$ = ecx

; 145  : 	{

  00000	55		 push	 ebp
  00001	8b ec		 mov	 ebp, esp
  00003	51		 push	 ecx

; 146  : 		//UJ 130829, const    --start
; 147  : 		type value;
; 148  : 		CEncrypt<type>* pThis = const_cast<CEncrypt<type>*>(this);
; 149  : 		pThis->DecryptValueToPool(&value);

  00004	8d 45 fc	 lea	 eax, DWORD PTR _value$[ebp]
  00007	50		 push	 eax
  00008	e8 00 00 00 00	 call	 ?DecryptValueToPool@?$CEncrypt@M@@QAEXPAM@Z ; CEncrypt<float>::DecryptValueToPool

; 150  : 		//// const DecryptValueToPool     .
; 151  :  		//type value;
; 152  : 		//char szTempMem[MAX_ENCRYPT];
; 153  : 		//m_RC5.DecryptByte( m_MemPool, szTempMem, max(m_ValueSize, DEFAULT_ENCRYPT) );
; 154  : 		//memcpy( &value, szTempMem, m_ValueSize );
; 155  : 		//UJ --end
; 156  : 
; 157  : #ifdef _NOTUSE
; 158  : 		Debug();
; 159  : #endif
; 160  : 		return value;

  0000d	d9 45 fc	 fld	 DWORD PTR _value$[ebp]

; 161  : 	}

  00010	c9		 leave
  00011	c3		 ret	 0
??B?$CEncrypt@M@@QBEMXZ ENDP				; CEncrypt<float>::operator float
_TEXT	ENDS
PUBLIC	??4?$CEncrypt@M@@QAEMM@Z			; CEncrypt<float>::operator=
; Function compile flags: /Ogsp
;	COMDAT ??4?$CEncrypt@M@@QAEMM@Z
_TEXT	SEGMENT
_value$ = 8						; size = 4
_inValue$ = 8						; size = 4
??4?$CEncrypt@M@@QAEMM@Z PROC				; CEncrypt<float>::operator=, COMDAT
; _this$ = ecx

; 1654 : 	{	

  00000	55		 push	 ebp
  00001	8b ec		 mov	 ebp, esp

; 1655 : 		type value = inValue;

  00003	d9 45 08	 fld	 DWORD PTR _inValue$[ebp]

; 1656 : 		EncryptValueToPool((char*)&value);

  00006	8d 45 08	 lea	 eax, DWORD PTR _value$[ebp]
  00009	50		 push	 eax
  0000a	d9 5d 08	 fstp	 DWORD PTR _value$[ebp]
  0000d	e8 00 00 00 00	 call	 ?EncryptValueToPool@?$CEncrypt@M@@AAEXPBD@Z ; CEncrypt<float>::EncryptValueToPool

; 1657 : #ifdef _NOTUSE
; 1658 : 		m_value = inValue;
; 1659 : 		Debug();
; 1660 : #endif
; 1661 : 		return value;

  00012	d9 45 08	 fld	 DWORD PTR _value$[ebp]

; 1662 : 	}

  00015	5d		 pop	 ebp
  00016	c2 04 00	 ret	 4
??4?$CEncrypt@M@@QAEMM@Z ENDP				; CEncrypt<float>::operator=
_TEXT	ENDS
PUBLIC	??O?$CEncrypt@M@@QAE_NABM@Z			; CEncrypt<float>::operator>
; Function compile flags: /Ogsp
;	COMDAT ??O?$CEncrypt@M@@QAE_NABM@Z
_TEXT	SEGMENT
_value$ = -4						; size = 4
_inValue$ = 8						; size = 4
??O?$CEncrypt@M@@QAE_NABM@Z PROC			; CEncrypt<float>::operator>, COMDAT
; _this$ = ecx

; 1811 : 	{

  00000	55		 push	 ebp
  00001	8b ec		 mov	 ebp, esp
  00003	51		 push	 ecx

; 1812 : 		type value;
; 1813 : 		DecryptValueToPool(&value);

  00004	8d 45 fc	 lea	 eax, DWORD PTR _value$[ebp]
  00007	50		 push	 eax
  00008	e8 00 00 00 00	 call	 ?DecryptValueToPool@?$CEncrypt@M@@QAEXPAM@Z ; CEncrypt<float>::DecryptValueToPool

; 1814 : #ifdef _NOTUSE
; 1815 : 		Debug();
; 1816 : #endif
; 1817 : 		return (value > inValue);

  0000d	8b 45 08	 mov	 eax, DWORD PTR _inValue$[ebp]
  00010	f3 0f 10 08	 movss	 xmm1, DWORD PTR [eax]
  00014	f3 0f 10 45 fc	 movss	 xmm0, DWORD PTR _value$[ebp]
  00019	0f 5a c0	 cvtps2pd xmm0, xmm0
  0001c	0f 5a c9	 cvtps2pd xmm1, xmm1
  0001f	33 c0		 xor	 eax, eax
  00021	66 0f 2f c1	 comisd	 xmm0, xmm1
  00025	76 01		 jbe	 SHORT $LN4@operator@2
  00027	40		 inc	 eax
$LN4@operator@2:

; 1818 : 	}		

  00028	c9		 leave
  00029	c2 04 00	 ret	 4
??O?$CEncrypt@M@@QAE_NABM@Z ENDP			; CEncrypt<float>::operator>
_TEXT	ENDS
PUBLIC	?begin@?$vector@VioHashString@@V?$allocator@VioHashString@@@std@@@std@@QAE?AV?$_Vector_iterator@V?$_Vector_val@VioHashString@@V?$allocator@VioHashString@@@std@@@std@@@2@XZ ; std::vector<ioHashString,std::allocator<ioHashString> >::begin
; Function compile flags: /Ogsp
; File c:\program files (x86)\microsoft visual studio 10.0\vc\include\vector
;	COMDAT ?begin@?$vector@VioHashString@@V?$allocator@VioHashString@@@std@@@std@@QAE?AV?$_Vector_iterator@V?$_Vector_val@VioHashString@@V?$allocator@VioHashString@@@std@@@std@@@2@XZ
_TEXT	SEGMENT
___$ReturnUdt$ = 8					; size = 4
?begin@?$vector@VioHashString@@V?$allocator@VioHashString@@@std@@@std@@QAE?AV?$_Vector_iterator@V?$_Vector_val@VioHashString@@V?$allocator@VioHashString@@@std@@@std@@@2@XZ PROC ; std::vector<ioHashString,std::allocator<ioHashString> >::begin, COMDAT
; _this$ = ecx

; 781  : 		{	// return iterator for beginning of mutable sequence

  00000	55		 push	 ebp
  00001	8b ec		 mov	 ebp, esp

; 782  : 		return (iterator(this->_Myfirst, this));

  00003	8b 09		 mov	 ecx, DWORD PTR [ecx]
  00005	8b 45 08	 mov	 eax, DWORD PTR ___$ReturnUdt$[ebp]
  00008	89 08		 mov	 DWORD PTR [eax], ecx

; 783  : 		}

  0000a	5d		 pop	 ebp
  0000b	c2 04 00	 ret	 4
?begin@?$vector@VioHashString@@V?$allocator@VioHashString@@@std@@@std@@QAE?AV?$_Vector_iterator@V?$_Vector_val@VioHashString@@V?$allocator@VioHashString@@@std@@@std@@@2@XZ ENDP ; std::vector<ioHashString,std::allocator<ioHashString> >::begin
_TEXT	ENDS
PUBLIC	?end@?$vector@VioHashString@@V?$allocator@VioHashString@@@std@@@std@@QAE?AV?$_Vector_iterator@V?$_Vector_val@VioHashString@@V?$allocator@VioHashString@@@std@@@std@@@2@XZ ; std::vector<ioHashString,std::allocator<ioHashString> >::end
; Function compile flags: /Ogsp
;	COMDAT ?end@?$vector@VioHashString@@V?$allocator@VioHashString@@@std@@@std@@QAE?AV?$_Vector_iterator@V?$_Vector_val@VioHashString@@V?$allocator@VioHashString@@@std@@@std@@@2@XZ
_TEXT	SEGMENT
___$ReturnUdt$ = 8					; size = 4
?end@?$vector@VioHashString@@V?$allocator@VioHashString@@@std@@@std@@QAE?AV?$_Vector_iterator@V?$_Vector_val@VioHashString@@V?$allocator@VioHashString@@@std@@@std@@@2@XZ PROC ; std::vector<ioHashString,std::allocator<ioHashString> >::end, COMDAT
; _this$ = ecx

; 791  : 		{	// return iterator for end of mutable sequence

  00000	55		 push	 ebp
  00001	8b ec		 mov	 ebp, esp

; 792  : 		return (iterator(this->_Mylast, this));

  00003	8b 49 04	 mov	 ecx, DWORD PTR [ecx+4]
  00006	8b 45 08	 mov	 eax, DWORD PTR ___$ReturnUdt$[ebp]
  00009	89 08		 mov	 DWORD PTR [eax], ecx

; 793  : 		}

  0000b	5d		 pop	 ebp
  0000c	c2 04 00	 ret	 4
?end@?$vector@VioHashString@@V?$allocator@VioHashString@@@std@@@std@@QAE?AV?$_Vector_iterator@V?$_Vector_val@VioHashString@@V?$allocator@VioHashString@@@std@@@std@@@2@XZ ENDP ; std::vector<ioHashString,std::allocator<ioHashString> >::end
_TEXT	ENDS
PUBLIC	??0?$_Vector_val@VioHashString@@V?$allocator@VioHashString@@@std@@@std@@QAE@V?$allocator@VioHashString@@@1@@Z ; std::_Vector_val<ioHashString,std::allocator<ioHashString> >::_Vector_val<ioHashString,std::allocator<ioHashString> >
; Function compile flags: /Ogsp
;	COMDAT ??0?$_Vector_val@VioHashString@@V?$allocator@VioHashString@@@std@@@std@@QAE@V?$allocator@VioHashString@@@1@@Z
_TEXT	SEGMENT
__Al$ = 8						; size = 1
??0?$_Vector_val@VioHashString@@V?$allocator@VioHashString@@@std@@@std@@QAE@V?$allocator@VioHashString@@@1@@Z PROC ; std::_Vector_val<ioHashString,std::allocator<ioHashString> >::_Vector_val<ioHashString,std::allocator<ioHashString> >, COMDAT
; _this$ = ecx

; 426  : 		{	// construct allocator from _Al

  00000	8b c1		 mov	 eax, ecx

; 427  : 		_Myfirst = 0;

  00002	33 c9		 xor	 ecx, ecx
  00004	89 08		 mov	 DWORD PTR [eax], ecx

; 428  : 		_Mylast = 0;

  00006	89 48 04	 mov	 DWORD PTR [eax+4], ecx

; 429  : 		_Myend = 0;

  00009	89 48 08	 mov	 DWORD PTR [eax+8], ecx

; 430  : 		}

  0000c	c2 04 00	 ret	 4
??0?$_Vector_val@VioHashString@@V?$allocator@VioHashString@@@std@@@std@@QAE@V?$allocator@VioHashString@@@1@@Z ENDP ; std::_Vector_val<ioHashString,std::allocator<ioHashString> >::_Vector_val<ioHashString,std::allocator<ioHashString> >
_TEXT	ENDS
PUBLIC	?_Make_iter@?$vector@VioHashString@@V?$allocator@VioHashString@@@std@@@std@@QBE?AV?$_Vector_iterator@V?$_Vector_val@VioHashString@@V?$allocator@VioHashString@@@std@@@std@@@2@V?$_Vector_const_iterator@V?$_Vector_val@VioHashString@@V?$allocator@VioHashString@@@std@@@std@@@2@@Z ; std::vector<ioHashString,std::allocator<ioHashString> >::_Make_iter
; Function compile flags: /Ogsp
;	COMDAT ?_Make_iter@?$vector@VioHashString@@V?$allocator@VioHashString@@@std@@@std@@QBE?AV?$_Vector_iterator@V?$_Vector_val@VioHashString@@V?$allocator@VioHashString@@@std@@@std@@@2@V?$_Vector_const_iterator@V?$_Vector_val@VioHashString@@V?$allocator@VioHashString@@@std@@@std@@@2@@Z
_TEXT	SEGMENT
___$ReturnUdt$ = 8					; size = 4
__Where$ = 12						; size = 4
?_Make_iter@?$vector@VioHashString@@V?$allocator@VioHashString@@@std@@@std@@QBE?AV?$_Vector_iterator@V?$_Vector_val@VioHashString@@V?$allocator@VioHashString@@@std@@@std@@@2@V?$_Vector_const_iterator@V?$_Vector_val@VioHashString@@V?$allocator@VioHashString@@@std@@@std@@@2@@Z PROC ; std::vector<ioHashString,std::allocator<ioHashString> >::_Make_iter, COMDAT
; _this$ = ecx

; 801  : 		{	// make iterator from const_iterator

  00000	55		 push	 ebp
  00001	8b ec		 mov	 ebp, esp

; 802  : 		return (iterator(_Where._Ptr, this));

  00003	8b 45 08	 mov	 eax, DWORD PTR ___$ReturnUdt$[ebp]
  00006	8b 4d 0c	 mov	 ecx, DWORD PTR __Where$[ebp]
  00009	89 08		 mov	 DWORD PTR [eax], ecx

; 803  : 		}

  0000b	5d		 pop	 ebp
  0000c	c2 08 00	 ret	 8
?_Make_iter@?$vector@VioHashString@@V?$allocator@VioHashString@@@std@@@std@@QBE?AV?$_Vector_iterator@V?$_Vector_val@VioHashString@@V?$allocator@VioHashString@@@std@@@std@@@2@V?$_Vector_const_iterator@V?$_Vector_val@VioHashString@@V?$allocator@VioHashString@@@std@@@std@@@2@@Z ENDP ; std::vector<ioHashString,std::allocator<ioHashString> >::_Make_iter
_TEXT	ENDS
PUBLIC	?max_size@?$vector@VioHashString@@V?$allocator@VioHashString@@@std@@@std@@QBEIXZ ; std::vector<ioHashString,std::allocator<ioHashString> >::max_size
; Function compile flags: /Ogsp
;	COMDAT ?max_size@?$vector@VioHashString@@V?$allocator@VioHashString@@@std@@@std@@QBEIXZ
_TEXT	SEGMENT
?max_size@?$vector@VioHashString@@V?$allocator@VioHashString@@@std@@@std@@QBEIXZ PROC ; std::vector<ioHashString,std::allocator<ioHashString> >::max_size, COMDAT
; _this$ = ecx

; 884  : 		return (this->_Alval.max_size());

  00000	b8 ff ff ff 0f	 mov	 eax, 268435455		; 0fffffffH

; 885  : 		}

  00005	c3		 ret	 0
?max_size@?$vector@VioHashString@@V?$allocator@VioHashString@@@std@@@std@@QBEIXZ ENDP ; std::vector<ioHashString,std::allocator<ioHashString> >::max_size
_TEXT	ENDS
PUBLIC	?allocate@?$allocator@VioHashString@@@std@@QAEPAVioHashString@@I@Z ; std::allocator<ioHashString>::allocate
; Function compile flags: /Ogsp
; File c:\program files (x86)\microsoft visual studio 10.0\vc\include\xmemory
;	COMDAT ?allocate@?$allocator@VioHashString@@@std@@QAEPAVioHashString@@I@Z
_TEXT	SEGMENT
__Count$ = 8						; size = 4
?allocate@?$allocator@VioHashString@@@std@@QAEPAVioHashString@@I@Z PROC ; std::allocator<ioHashString>::allocate, COMDAT
; _this$ = ecx

; 186  : 		{	// allocate array of _Count elements

  00000	55		 push	 ebp
  00001	8b ec		 mov	 ebp, esp

; 187  : 		return (_Allocate(_Count, (pointer)0));

  00003	6a 00		 push	 0
  00005	ff 75 08	 push	 DWORD PTR __Count$[ebp]
  00008	e8 00 00 00 00	 call	 ??$_Allocate@VioHashString@@@std@@YAPAVioHashString@@IPAV1@@Z ; std::_Allocate<ioHashString>
  0000d	59		 pop	 ecx
  0000e	59		 pop	 ecx

; 188  : 		}

  0000f	5d		 pop	 ebp
  00010	c2 04 00	 ret	 4
?allocate@?$allocator@VioHashString@@@std@@QAEPAVioHashString@@I@Z ENDP ; std::allocator<ioHashString>::allocate
_TEXT	ENDS
PUBLIC	??8?$_Vector_const_iterator@V?$_Vector_val@VioHashString@@V?$allocator@VioHashString@@@std@@@std@@@std@@QBE_NABV01@@Z ; std::_Vector_const_iterator<std::_Vector_val<ioHashString,std::allocator<ioHashString> > >::operator==
; Function compile flags: /Ogsp
; File c:\program files (x86)\microsoft visual studio 10.0\vc\include\vector
;	COMDAT ??8?$_Vector_const_iterator@V?$_Vector_val@VioHashString@@V?$allocator@VioHashString@@@std@@@std@@@std@@QBE_NABV01@@Z
_TEXT	SEGMENT
__Right$ = 8						; size = 4
??8?$_Vector_const_iterator@V?$_Vector_val@VioHashString@@V?$allocator@VioHashString@@@std@@@std@@@std@@QBE_NABV01@@Z PROC ; std::_Vector_const_iterator<std::_Vector_val<ioHashString,std::allocator<ioHashString> > >::operator==, COMDAT
; _this$ = ecx

; 201  : 		{	// test for iterator equality

  00000	55		 push	 ebp
  00001	8b ec		 mov	 ebp, esp

; 202  : 		_Compat(_Right);
; 203  : 		return (this->_Ptr == _Right._Ptr);

  00003	8b 01		 mov	 eax, DWORD PTR [ecx]
  00005	8b 4d 08	 mov	 ecx, DWORD PTR __Right$[ebp]
  00008	2b 01		 sub	 eax, DWORD PTR [ecx]
  0000a	f7 d8		 neg	 eax
  0000c	1b c0		 sbb	 eax, eax
  0000e	40		 inc	 eax

; 204  : 		}

  0000f	5d		 pop	 ebp
  00010	c2 04 00	 ret	 4
??8?$_Vector_const_iterator@V?$_Vector_val@VioHashString@@V?$allocator@VioHashString@@@std@@@std@@@std@@QBE_NABV01@@Z ENDP ; std::_Vector_const_iterator<std::_Vector_val<ioHashString,std::allocator<ioHashString> > >::operator==
_TEXT	ENDS
PUBLIC	??$_Move@PAVioHashString@@PAV1@@std@@YAPAVioHashString@@PAV1@00U_Nonscalar_ptr_iterator_tag@0@@Z ; std::_Move<ioHashString *,ioHashString *>
EXTRN	__imp_??4ioHashString@@QAEAAV0@ABV0@@Z:PROC
; Function compile flags: /Ogsp
; File c:\program files (x86)\microsoft visual studio 10.0\vc\include\xutility
;	COMDAT ??$_Move@PAVioHashString@@PAV1@@std@@YAPAVioHashString@@PAV1@00U_Nonscalar_ptr_iterator_tag@0@@Z
_TEXT	SEGMENT
__First$ = 8						; size = 4
__Last$ = 12						; size = 4
__Dest$ = 16						; size = 4
___formal$ = 20						; size = 1
??$_Move@PAVioHashString@@PAV1@@std@@YAPAVioHashString@@PAV1@00U_Nonscalar_ptr_iterator_tag@0@@Z PROC ; std::_Move<ioHashString *,ioHashString *>, COMDAT

; 2512 : 	{	// move [_First, _Last) to [_Dest, ...), arbitrary iterators

  00000	55		 push	 ebp
  00001	8b ec		 mov	 ebp, esp
  00003	56		 push	 esi

; 2513 : 	for (; _First != _Last; ++_Dest, ++_First)

  00004	8b 75 08	 mov	 esi, DWORD PTR __First$[ebp]
  00007	eb 11		 jmp	 SHORT $LN11@Move
$LL3@Move:

; 2514 : 		*_Dest = _STD move(*_First);

  00009	8b 4d 10	 mov	 ecx, DWORD PTR __Dest$[ebp]
  0000c	56		 push	 esi
  0000d	ff 15 00 00 00
	00		 call	 DWORD PTR __imp_??4ioHashString@@QAEAAV0@ABV0@@Z
  00013	83 45 10 10	 add	 DWORD PTR __Dest$[ebp], 16 ; 00000010H
  00017	83 c6 10	 add	 esi, 16			; 00000010H
$LN11@Move:

; 2513 : 	for (; _First != _Last; ++_Dest, ++_First)

  0001a	3b 75 0c	 cmp	 esi, DWORD PTR __Last$[ebp]
  0001d	75 ea		 jne	 SHORT $LL3@Move

; 2515 : 	return (_Dest);

  0001f	8b 45 10	 mov	 eax, DWORD PTR __Dest$[ebp]
  00022	5e		 pop	 esi

; 2516 : 	}

  00023	5d		 pop	 ebp
  00024	c3		 ret	 0
??$_Move@PAVioHashString@@PAV1@@std@@YAPAVioHashString@@PAV1@00U_Nonscalar_ptr_iterator_tag@0@@Z ENDP ; std::_Move<ioHashString *,ioHashString *>
_TEXT	ENDS
PUBLIC	??$_Destroy@VioHashString@@@std@@YAXPAVioHashString@@@Z ; std::_Destroy<ioHashString>
; Function compile flags: /Ogsp
; File c:\program files (x86)\microsoft visual studio 10.0\vc\include\xmemory
;	COMDAT ??$_Destroy@VioHashString@@@std@@YAXPAVioHashString@@@Z
_TEXT	SEGMENT
__Ptr$ = 8						; size = 4
??$_Destroy@VioHashString@@@std@@YAXPAVioHashString@@@Z PROC ; std::_Destroy<ioHashString>, COMDAT

; 62   : 	{	// destroy object at _Ptr

  00000	55		 push	 ebp
  00001	8b ec		 mov	 ebp, esp

; 63   : 	_Ptr->~_Ty();

  00003	8b 4d 08	 mov	 ecx, DWORD PTR __Ptr$[ebp]

; 64   : 	}

  00006	5d		 pop	 ebp

; 63   : 	_Ptr->~_Ty();

  00007	ff 25 00 00 00
	00		 jmp	 DWORD PTR __imp_??1ioHashString@@QAE@XZ
??$_Destroy@VioHashString@@@std@@YAXPAVioHashString@@@Z ENDP ; std::_Destroy<ioHashString>
_TEXT	ENDS
PUBLIC	?construct@?$allocator@VioHashString@@@std@@QAEXPAVioHashString@@ABV3@@Z ; std::allocator<ioHashString>::construct
; Function compile flags: /Ogsp
;	COMDAT ?construct@?$allocator@VioHashString@@@std@@QAEXPAVioHashString@@ABV3@@Z
_TEXT	SEGMENT
__Ptr$ = 8						; size = 4
__Val$ = 12						; size = 4
?construct@?$allocator@VioHashString@@@std@@QAEXPAVioHashString@@ABV3@@Z PROC ; std::allocator<ioHashString>::construct, COMDAT
; _this$ = ecx

; 196  : 		{	// construct object at _Ptr with value _Val

  00000	55		 push	 ebp
  00001	8b ec		 mov	 ebp, esp

; 197  : 		_Construct(_Ptr, _Val);

  00003	ff 75 0c	 push	 DWORD PTR __Val$[ebp]
  00006	ff 75 08	 push	 DWORD PTR __Ptr$[ebp]
  00009	e8 00 00 00 00	 call	 ??$_Construct@VioHashString@@ABV1@@std@@YAXPAVioHashString@@ABV1@@Z ; std::_Construct<ioHashString,ioHashString const &>
  0000e	59		 pop	 ecx
  0000f	59		 pop	 ecx

; 198  : 		}

  00010	5d		 pop	 ebp
  00011	c2 08 00	 ret	 8
?construct@?$allocator@VioHashString@@@std@@QAEXPAVioHashString@@ABV3@@Z ENDP ; std::allocator<ioHashString>::construct
_TEXT	ENDS
PUBLIC	__$ArrayPad$
PUBLIC	?LoadProperty@ioAreaEffectWeapon@@UAEXAAVioINILoader@@@Z ; ioAreaEffectWeapon::LoadProperty
EXTRN	?LoadProperty@ioWeapon@@UAEXAAVioINILoader@@@Z:PROC ; ioWeapon::LoadProperty
; Function compile flags: /Ogsp
; File d:\lost saga for developer\youtube\tutorial\source\src\lsclient\ioareaeffectweapon.cpp
;	COMDAT ?LoadProperty@ioAreaEffectWeapon@@UAEXAAVioINILoader@@@Z
_TEXT	SEGMENT
__k$534254 = -36					; size = 25
__k$534379 = -28					; size = 16
__$ArrayPad$ = -4					; size = 4
_rkLoader$ = 8						; size = 4
?LoadProperty@ioAreaEffectWeapon@@UAEXAAVioINILoader@@@Z PROC ; ioAreaEffectWeapon::LoadProperty, COMDAT
; _this$ = ecx

; 38   : {

  00000	55		 push	 ebp
  00001	8b ec		 mov	 ebp, esp
  00003	83 ec 24	 sub	 esp, 36			; 00000024H
  00006	a1 00 00 00 00	 mov	 eax, DWORD PTR ___security_cookie
  0000b	33 c5		 xor	 eax, ebp
  0000d	89 45 fc	 mov	 DWORD PTR __$ArrayPad$[ebp], eax
  00010	53		 push	 ebx
  00011	56		 push	 esi
  00012	57		 push	 edi
  00013	8b 7d 08	 mov	 edi, DWORD PTR _rkLoader$[ebp]

; 39   : 	ioWeapon::LoadProperty( rkLoader );

  00016	57		 push	 edi
  00017	8b f1		 mov	 esi, ecx
  00019	e8 00 00 00 00	 call	 ?LoadProperty@ioWeapon@@UAEXAAVioINILoader@@@Z ; ioWeapon::LoadProperty

; 40   : 
; 41   : 	m_bCheckCollinsionOnlyOne = rkLoader.LoadBool_e("check_collision_only_one", false );

  0001e	6a 06		 push	 6
  00020	c7 45 dc 8e 84
	8e 89		 mov	 DWORD PTR __k$534254[ebp], -1987148658 ; 898e848eH
  00027	c7 45 e0 86 b3
	88 85		 mov	 DWORD PTR __k$534254[ebp+4], -2054638714 ; 8588b386H
  0002e	c7 45 e4 81 80
	82 99		 mov	 DWORD PTR __k$534254[ebp+8], -1719500671 ; 99828081H
  00035	c7 45 e8 84 83
	85 b5		 mov	 DWORD PTR __k$534254[ebp+12], -1249541244 ; b5858384H
  0003c	c7 45 ec 82 82
	87 93		 mov	 DWORD PTR __k$534254[ebp+16], -1819835774 ; 93878282H
  00043	c7 45 f0 b2 83
	85 8f		 mov	 DWORD PTR __k$534254[ebp+20], -1887075406 ; 8f8583b2H
  0004a	8d 45 dc	 lea	 eax, DWORD PTR __k$534254[ebp]
  0004d	c6 45 f4 00	 mov	 BYTE PTR __k$534254[ebp+24], 0
  00051	59		 pop	 ecx
$LL106@LoadProper:
  00052	81 30 ed ec eb
	ea		 xor	 DWORD PTR [eax], -353637139 ; eaebecedH
  00058	83 c0 04	 add	 eax, 4
  0005b	49		 dec	 ecx
  0005c	75 f4		 jne	 SHORT $LL106@LoadProper
  0005e	8b 1d 00 00 00
	00		 mov	 ebx, DWORD PTR __imp_?LoadBool@ioINILoader@@QAE_NPBD_N@Z
  00064	51		 push	 ecx
  00065	8d 45 dc	 lea	 eax, DWORD PTR __k$534254[ebp]
  00068	50		 push	 eax
  00069	8b cf		 mov	 ecx, edi
  0006b	ff d3		 call	 ebx
  0006d	6a 03		 push	 3
  0006f	88 86 39 0a 00
	00		 mov	 BYTE PTR [esi+2617], al

; 42   : 
; 43   : 	m_bEndAreaAttack = rkLoader.LoadBool_e( "end_area_attack", false );

  00075	c7 45 e4 88 82
	8f b5		 mov	 DWORD PTR __k$534379[ebp], -1248886136 ; b58f8288H
  0007c	c7 45 e8 8c 9e
	8e 8b		 mov	 DWORD PTR __k$534379[ebp+4], -1953587572 ; 8b8e9e8cH
  00083	c7 45 ec b2 8d
	9f 9e		 mov	 DWORD PTR __k$534379[ebp+8], -1633710670 ; 9e9f8db2H
  0008a	8d 45 e4	 lea	 eax, DWORD PTR __k$534379[ebp]
  0008d	c7 45 f0 8c 8f
	80 00		 mov	 DWORD PTR __k$534379[ebp+12], 8425356 ; 00808f8cH
  00094	59		 pop	 ecx
$LL212@LoadProper:
  00095	81 30 ed ec eb
	ea		 xor	 DWORD PTR [eax], -353637139 ; eaebecedH
  0009b	83 c0 04	 add	 eax, 4
  0009e	49		 dec	 ecx
  0009f	75 f4		 jne	 SHORT $LL212@LoadProper
  000a1	6a 0c		 push	 12			; 0000000cH
  000a3	58		 pop	 eax
$LL209@LoadProper:
  000a4	8b c8		 mov	 ecx, eax
  000a6	81 e1 03 00 00
	80		 and	 ecx, -2147483645	; 80000003H
  000ac	79 05		 jns	 SHORT $LN223@LoadProper
  000ae	49		 dec	 ecx
  000af	83 c9 fc	 or	 ecx, -4			; fffffffcH
  000b2	41		 inc	 ecx
$LN223@LoadProper:
  000b3	b2 ed		 mov	 dl, -19			; ffffffedH
  000b5	2a d1		 sub	 dl, cl
  000b7	30 54 05 e4	 xor	 BYTE PTR __k$534379[ebp+eax], dl
  000bb	40		 inc	 eax
  000bc	83 f8 0f	 cmp	 eax, 15			; 0000000fH
  000bf	7c e3		 jl	 SHORT $LL209@LoadProper
  000c1	6a 00		 push	 0
  000c3	8d 45 e4	 lea	 eax, DWORD PTR __k$534379[ebp]
  000c6	50		 push	 eax
  000c7	8b cf		 mov	 ecx, edi
  000c9	ff d3		 call	 ebx

; 44   : }

  000cb	8b 4d fc	 mov	 ecx, DWORD PTR __$ArrayPad$[ebp]
  000ce	5f		 pop	 edi
  000cf	88 86 38 0a 00
	00		 mov	 BYTE PTR [esi+2616], al
  000d5	5e		 pop	 esi
  000d6	33 cd		 xor	 ecx, ebp
  000d8	5b		 pop	 ebx
  000d9	e8 00 00 00 00	 call	 @__security_check_cookie@4
  000de	c9		 leave
  000df	c2 04 00	 ret	 4
?LoadProperty@ioAreaEffectWeapon@@UAEXAAVioINILoader@@@Z ENDP ; ioAreaEffectWeapon::LoadProperty
_TEXT	ENDS
PUBLIC	?SetAreaValue@ioAreaEffectWeapon@@QAEXMMMMMM@Z	; ioAreaEffectWeapon::SetAreaValue
; Function compile flags: /Ogsp
;	COMDAT ?SetAreaValue@ioAreaEffectWeapon@@QAEXMMMMMM@Z
_TEXT	SEGMENT
_value$534504 = -4					; size = 4
_fRange$ = 8						; size = 4
_value$534524 = 12					; size = 4
_value$534520 = 12					; size = 4
_value$534516 = 12					; size = 4
_value$534512 = 12					; size = 4
_value$534508 = 12					; size = 4
_fInRange$ = 12						; size = 4
_fAngle$ = 16						; size = 4
_fUpHeight$ = 20					; size = 4
_fUnderHeight$ = 24					; size = 4
_fWidth$ = 28						; size = 4
?SetAreaValue@ioAreaEffectWeapon@@QAEXMMMMMM@Z PROC	; ioAreaEffectWeapon::SetAreaValue, COMDAT
; _this$ = ecx

; 47   : {

  00000	55		 push	 ebp
  00001	8b ec		 mov	 ebp, esp
  00003	51		 push	 ecx

; 48   : 	m_fCollisionRange = fRange;

  00004	f3 0f 10 45 08	 movss	 xmm0, DWORD PTR _fRange$[ebp]
  00009	53		 push	 ebx
  0000a	56		 push	 esi
  0000b	57		 push	 edi
  0000c	8b f1		 mov	 esi, ecx
  0000e	8d 45 fc	 lea	 eax, DWORD PTR _value$534504[ebp]
  00011	50		 push	 eax
  00012	8d 8e bc 08 00
	00		 lea	 ecx, DWORD PTR [esi+2236]
  00018	f3 0f 11 45 fc	 movss	 DWORD PTR _value$534504[ebp], xmm0
  0001d	e8 00 00 00 00	 call	 ?EncryptValueToPool@?$CEncrypt@M@@AAEXPBD@Z ; CEncrypt<float>::EncryptValueToPool

; 49   : 	m_fCollisionInRange = fInRange;

  00022	f3 0f 10 45 0c	 movss	 xmm0, DWORD PTR _fInRange$[ebp]
  00027	8d 45 0c	 lea	 eax, DWORD PTR _value$534508[ebp]
  0002a	50		 push	 eax
  0002b	8d 8e ec 08 00
	00		 lea	 ecx, DWORD PTR [esi+2284]
  00031	f3 0f 11 45 0c	 movss	 DWORD PTR _value$534508[ebp], xmm0
  00036	e8 00 00 00 00	 call	 ?EncryptValueToPool@?$CEncrypt@M@@AAEXPBD@Z ; CEncrypt<float>::EncryptValueToPool

; 50   : 	m_fAreaAngle = fAngle;

  0003b	f3 0f 10 45 10	 movss	 xmm0, DWORD PTR _fAngle$[ebp]
  00040	8d 45 0c	 lea	 eax, DWORD PTR _value$534512[ebp]
  00043	50		 push	 eax
  00044	8d 8e 1c 09 00
	00		 lea	 ecx, DWORD PTR [esi+2332]
  0004a	f3 0f 11 45 0c	 movss	 DWORD PTR _value$534512[ebp], xmm0
  0004f	e8 00 00 00 00	 call	 ?EncryptValueToPool@?$CEncrypt@M@@AAEXPBD@Z ; CEncrypt<float>::EncryptValueToPool

; 51   : 
; 52   : 	m_fUpHeight    = fUpHeight;

  00054	f3 0f 10 45 14	 movss	 xmm0, DWORD PTR _fUpHeight$[ebp]
  00059	8d 45 0c	 lea	 eax, DWORD PTR _value$534516[ebp]
  0005c	50		 push	 eax
  0005d	8d 8e 4c 09 00
	00		 lea	 ecx, DWORD PTR [esi+2380]
  00063	f3 0f 11 45 0c	 movss	 DWORD PTR _value$534516[ebp], xmm0
  00068	e8 00 00 00 00	 call	 ?EncryptValueToPool@?$CEncrypt@M@@AAEXPBD@Z ; CEncrypt<float>::EncryptValueToPool

; 53   : 	m_fUnderHeight = fUnderHeight;

  0006d	f3 0f 10 45 18	 movss	 xmm0, DWORD PTR _fUnderHeight$[ebp]
  00072	8d 45 0c	 lea	 eax, DWORD PTR _value$534520[ebp]
  00075	50		 push	 eax
  00076	8d 8e 7c 09 00
	00		 lea	 ecx, DWORD PTR [esi+2428]
  0007c	f3 0f 11 45 0c	 movss	 DWORD PTR _value$534520[ebp], xmm0
  00081	e8 00 00 00 00	 call	 ?EncryptValueToPool@?$CEncrypt@M@@AAEXPBD@Z ; CEncrypt<float>::EncryptValueToPool

; 54   : 	m_fWidth       = fWidth;

  00086	f3 0f 10 45 1c	 movss	 xmm0, DWORD PTR _fWidth$[ebp]
  0008b	8d 45 0c	 lea	 eax, DWORD PTR _value$534524[ebp]
  0008e	50		 push	 eax
  0008f	8d 8e ac 09 00
	00		 lea	 ecx, DWORD PTR [esi+2476]
  00095	f3 0f 11 45 0c	 movss	 DWORD PTR _value$534524[ebp], xmm0
  0009a	e8 00 00 00 00	 call	 ?EncryptValueToPool@?$CEncrypt@M@@AAEXPBD@Z ; CEncrypt<float>::EncryptValueToPool

; 55   : 
; 56   : 	m_LocalAttackBox.SetExtents( 0, fRange );

  0009f	f3 0f 10 45 08	 movss	 xmm0, DWORD PTR _fRange$[ebp]
  000a4	8b 3d 00 00 00
	00		 mov	 edi, DWORD PTR __imp_?SetExtents@ioOrientBox@@QAEXHM@Z
  000aa	51		 push	 ecx
  000ab	f3 0f 11 04 24	 movss	 DWORD PTR [esp], xmm0
  000b0	6a 00		 push	 0
  000b2	8d 8e e8 09 00
	00		 lea	 ecx, DWORD PTR [esi+2536]
  000b8	ff d7		 call	 edi

; 57   : 	m_LocalAttackBox.SetExtents( 1, fRange );

  000ba	f3 0f 10 45 08	 movss	 xmm0, DWORD PTR _fRange$[ebp]
  000bf	51		 push	 ecx
  000c0	f3 0f 11 04 24	 movss	 DWORD PTR [esp], xmm0
  000c5	6a 01		 push	 1
  000c7	8d 8e e8 09 00
	00		 lea	 ecx, DWORD PTR [esi+2536]
  000cd	ff d7		 call	 edi

; 58   : 	m_LocalAttackBox.SetExtents( 2, fRange );

  000cf	f3 0f 10 45 08	 movss	 xmm0, DWORD PTR _fRange$[ebp]
  000d4	51		 push	 ecx
  000d5	f3 0f 11 04 24	 movss	 DWORD PTR [esp], xmm0
  000da	6a 02		 push	 2
  000dc	8d 8e e8 09 00
	00		 lea	 ecx, DWORD PTR [esi+2536]
  000e2	ff d7		 call	 edi

; 59   : 
; 60   : 	UpdateWorldAttackBox( 0.0f, false );

  000e4	0f 57 c0	 xorps	 xmm0, xmm0
  000e7	8b 06		 mov	 eax, DWORD PTR [esi]
  000e9	6a 00		 push	 0
  000eb	51		 push	 ecx
  000ec	8b ce		 mov	 ecx, esi
  000ee	f3 0f 11 04 24	 movss	 DWORD PTR [esp], xmm0
  000f3	ff 90 38 01 00
	00		 call	 DWORD PTR [eax+312]
  000f9	5f		 pop	 edi
  000fa	5e		 pop	 esi
  000fb	5b		 pop	 ebx

; 61   : }

  000fc	c9		 leave
  000fd	c2 18 00	 ret	 24			; 00000018H
?SetAreaValue@ioAreaEffectWeapon@@QAEXMMMMMM@Z ENDP	; ioAreaEffectWeapon::SetAreaValue
_TEXT	ENDS
PUBLIC	?UpdateRange@ioAreaEffectWeapon@@QAEXMM@Z	; ioAreaEffectWeapon::UpdateRange
; Function compile flags: /Ogsp
;	COMDAT ?UpdateRange@ioAreaEffectWeapon@@QAEXMM@Z
_TEXT	SEGMENT
_value$534537 = 8					; size = 4
_value$534533 = 8					; size = 4
_fRange$ = 8						; size = 4
_fInRange$ = 12						; size = 4
?UpdateRange@ioAreaEffectWeapon@@QAEXMM@Z PROC		; ioAreaEffectWeapon::UpdateRange, COMDAT
; _this$ = ecx

; 90   : {

  00000	55		 push	 ebp
  00001	8b ec		 mov	 ebp, esp

; 91   : 	m_fCollisionRange = fRange;

  00003	f3 0f 10 45 08	 movss	 xmm0, DWORD PTR _fRange$[ebp]
  00008	56		 push	 esi
  00009	8b f1		 mov	 esi, ecx
  0000b	8d 45 08	 lea	 eax, DWORD PTR _value$534533[ebp]
  0000e	50		 push	 eax
  0000f	8d 8e bc 08 00
	00		 lea	 ecx, DWORD PTR [esi+2236]
  00015	f3 0f 11 45 08	 movss	 DWORD PTR _value$534533[ebp], xmm0
  0001a	e8 00 00 00 00	 call	 ?EncryptValueToPool@?$CEncrypt@M@@AAEXPBD@Z ; CEncrypt<float>::EncryptValueToPool

; 92   : 	m_fCollisionInRange = fInRange;

  0001f	f3 0f 10 45 0c	 movss	 xmm0, DWORD PTR _fInRange$[ebp]
  00024	8d 45 08	 lea	 eax, DWORD PTR _value$534537[ebp]
  00027	50		 push	 eax
  00028	8d 8e ec 08 00
	00		 lea	 ecx, DWORD PTR [esi+2284]
  0002e	f3 0f 11 45 08	 movss	 DWORD PTR _value$534537[ebp], xmm0
  00033	e8 00 00 00 00	 call	 ?EncryptValueToPool@?$CEncrypt@M@@AAEXPBD@Z ; CEncrypt<float>::EncryptValueToPool
  00038	5e		 pop	 esi

; 93   : }

  00039	5d		 pop	 ebp
  0003a	c2 08 00	 ret	 8
?UpdateRange@ioAreaEffectWeapon@@QAEXMM@Z ENDP		; ioAreaEffectWeapon::UpdateRange
_TEXT	ENDS
PUBLIC	__real@0000000000000000
PUBLIC	__real@4f800000
PUBLIC	_pEntity$GSCopy$
PUBLIC	?CheckCollisionBox@ioAreaEffectWeapon@@QAE_NPAVioPlayEntity@@@Z ; ioAreaEffectWeapon::CheckCollisionBox
EXTRN	__imp_??1ioOrientBox@@QAE@XZ:PROC
EXTRN	__imp_?SetCenter@ioOrientBox@@QAEXABUD3DXVECTOR3@@@Z:PROC
EXTRN	__imp_?SetBoxByMinMax@ioOrientBox@@QAEXABUD3DXVECTOR3@@0@Z:PROC
EXTRN	__imp_??0ioOrientBox@@QAE@XZ:PROC
EXTRN	__imp_?GetCenter@ioOrientBox@@QBEABUD3DXVECTOR3@@XZ:PROC
EXTRN	?GetWorldAttackBox@ioWeapon@@QBEABVioOrientBox@@_N@Z:PROC ; ioWeapon::GetWorldAttackBox
EXTRN	?GetOwner@ioWeapon@@QBEPAVioBaseChar@@XZ:PROC	; ioWeapon::GetOwner
EXTRN	__EH_epilog3_GS:PROC
EXTRN	__EH_prolog3_GS:PROC
;	COMDAT __real@0000000000000000
; File d:\lost saga for developer\youtube\tutorial\source\src\lsclient\encryptvalue.h
CONST	SEGMENT
__real@0000000000000000 DQ 00000000000000000r	; 0
CONST	ENDS
;	COMDAT __real@4f800000
CONST	SEGMENT
__real@4f800000 DD 04f800000r			; 4.29497e+009
CONST	ENDS
;	COMDAT xdata$x
xdata$x	SEGMENT
__unwindtable$?CheckCollisionBox@ioAreaEffectWeapon@@QAE_NPAVioPlayEntity@@@Z DD 0ffffffffH
	DD	FLAT:__unwindfunclet$?CheckCollisionBox@ioAreaEffectWeapon@@QAE_NPAVioPlayEntity@@@Z$0
__ehfuncinfo$?CheckCollisionBox@ioAreaEffectWeapon@@QAE_NPAVioPlayEntity@@@Z DD 019930522H
	DD	01H
	DD	FLAT:__unwindtable$?CheckCollisionBox@ioAreaEffectWeapon@@QAE_NPAVioPlayEntity@@@Z
	DD	2 DUP(00H)
	DD	2 DUP(00H)
	DD	00H
	DD	01H
; Function compile flags: /Ogsp
; File d:\lost saga for developer\youtube\tutorial\source\src\lsclient\ioareaeffectweapon.cpp
xdata$x	ENDS
;	COMDAT ?CheckCollisionBox@ioAreaEffectWeapon@@QAE_NPAVioPlayEntity@@@Z
_TEXT	SEGMENT
_pOwnerChar$ = -152					; size = 4
_pEntity$GSCopy$ = -148					; size = 4
tv672 = -144						; size = 4
tv680 = -140						; size = 4
_value$534660 = -140					; size = 4
tv676 = -136						; size = 4
$T534542 = -136						; size = 4
$T534541 = -136						; size = 4
tv806 = -132						; size = 4
tv802 = -132						; size = 4
tv798 = -132						; size = 4
_value$534594 = -132					; size = 4
$T534546 = -132						; size = 4
$T534545 = -132						; size = 4
tv827 = -128						; size = 4
_value$534598 = -128					; size = 4
$T534599 = -128						; size = 4
$T534587 = -128						; size = 4
_value$534562 = -128					; size = 4
$T534543 = -128						; size = 4
tv835 = -124						; size = 4
tv831 = -124						; size = 4
tv772 = -124						; size = 4
tv768 = -124						; size = 4
tv764 = -124						; size = 4
tv761 = -124						; size = 4
tv751 = -124						; size = 4
tv747 = -124						; size = 4
tv743 = -124						; size = 4
tv740 = -124						; size = 4
_value$534652 = -124					; size = 4
_value$534656 = -124					; size = 4
_value$534636 = -124					; size = 4
$T534615 = -124						; size = 4
_value$534640 = -124					; size = 4
_value$534611 = -124					; size = 4
_kBuffBox$ = -120					; size = 68
_vMin$ = -52						; size = 12
_vMax$ = -40						; size = 12
_vCenter$ = -28						; size = 12
__$EHRec$ = -12						; size = 12
_pEntity$ = 8						; size = 4
?CheckCollisionBox@ioAreaEffectWeapon@@QAE_NPAVioPlayEntity@@@Z PROC ; ioAreaEffectWeapon::CheckCollisionBox, COMDAT
; _this$ = ecx

; 289  : {

  00000	68 8c 00 00 00	 push	 140			; 0000008cH
  00005	b8 00 00 00 00	 mov	 eax, __ehhandler$?CheckCollisionBox@ioAreaEffectWeapon@@QAE_NPAVioPlayEntity@@@Z
  0000a	e8 00 00 00 00	 call	 __EH_prolog3_GS
  0000f	8b 45 08	 mov	 eax, DWORD PTR _pEntity$[ebp]

; 290  : 	if( m_fUpHeight == 0.0f && m_fUnderHeight == 0.0f )

  00012	0f 57 c0	 xorps	 xmm0, xmm0
  00015	8b d9		 mov	 ebx, ecx
  00017	89 85 6c ff ff
	ff		 mov	 DWORD PTR _pEntity$GSCopy$[ebp], eax
  0001d	8d 85 78 ff ff
	ff		 lea	 eax, DWORD PTR $T534541[ebp]
  00023	8d 8b 4c 09 00
	00		 lea	 ecx, DWORD PTR [ebx+2380]
  00029	50		 push	 eax
  0002a	f3 0f 11 85 78
	ff ff ff	 movss	 DWORD PTR $T534541[ebp], xmm0
  00032	89 8d 70 ff ff
	ff		 mov	 DWORD PTR tv672[ebp], ecx
  00038	e8 00 00 00 00	 call	 ??8?$CEncrypt@M@@QAE_NABM@Z ; CEncrypt<float>::operator==
  0003d	84 c0		 test	 al, al
  0003f	74 2b		 je	 SHORT $LN5@CheckColli
  00041	0f 57 c0	 xorps	 xmm0, xmm0
  00044	8d 85 78 ff ff
	ff		 lea	 eax, DWORD PTR $T534542[ebp]
  0004a	50		 push	 eax
  0004b	8d 8b 7c 09 00
	00		 lea	 ecx, DWORD PTR [ebx+2428]
  00051	f3 0f 11 85 78
	ff ff ff	 movss	 DWORD PTR $T534542[ebp], xmm0
  00059	e8 00 00 00 00	 call	 ??8?$CEncrypt@M@@QAE_NABM@Z ; CEncrypt<float>::operator==
  0005e	84 c0		 test	 al, al
  00060	74 0a		 je	 SHORT $LN5@CheckColli
$LN71@CheckColli:

; 291  : 		return false;

  00062	32 c0		 xor	 al, al
$LN6@CheckColli:

; 335  : 
; 336  : 	return true;
; 337  : }

  00064	e8 00 00 00 00	 call	 __EH_epilog3_GS
  00069	c2 04 00	 ret	 4
$LN5@CheckColli:

; 292  : 
; 293  : 	if( m_fWidth == 0.0f )

  0006c	0f 57 c0	 xorps	 xmm0, xmm0
  0006f	8d 45 80	 lea	 eax, DWORD PTR $T534543[ebp]
  00072	8d 8b ac 09 00
	00		 lea	 ecx, DWORD PTR [ebx+2476]
  00078	50		 push	 eax
  00079	f3 0f 11 45 80	 movss	 DWORD PTR $T534543[ebp], xmm0
  0007e	89 8d 78 ff ff
	ff		 mov	 DWORD PTR tv676[ebp], ecx
  00084	e8 00 00 00 00	 call	 ??8?$CEncrypt@M@@QAE_NABM@Z ; CEncrypt<float>::operator==
  00089	84 c0		 test	 al, al

; 294  : 		return false;

  0008b	75 d5		 jne	 SHORT $LN71@CheckColli

; 295  : 
; 296  : 	ioBaseChar *pOwnerChar = GetOwner();

  0008d	8b cb		 mov	 ecx, ebx
  0008f	e8 00 00 00 00	 call	 ?GetOwner@ioWeapon@@QBEPAVioBaseChar@@XZ ; ioWeapon::GetOwner
  00094	89 85 68 ff ff
	ff		 mov	 DWORD PTR _pOwnerChar$[ebp], eax

; 297  : 	if( !pOwnerChar )

  0009a	85 c0		 test	 eax, eax

; 298  : 		return false;

  0009c	74 c4		 je	 SHORT $LN71@CheckColli

; 299  : 
; 300  : 	D3DXVECTOR3 vCenter = GetWorldAttackBox().GetCenter();

  0009e	6a 00		 push	 0
  000a0	8b cb		 mov	 ecx, ebx
  000a2	e8 00 00 00 00	 call	 ?GetWorldAttackBox@ioWeapon@@QBEABVioOrientBox@@_N@Z ; ioWeapon::GetWorldAttackBox
  000a7	8b c8		 mov	 ecx, eax
  000a9	ff 15 00 00 00
	00		 call	 DWORD PTR __imp_?GetCenter@ioOrientBox@@QBEABUD3DXVECTOR3@@XZ
  000af	8b f0		 mov	 esi, eax
  000b1	8d 7d e4	 lea	 edi, DWORD PTR _vCenter$[ebp]
  000b4	a5		 movsd
  000b5	a5		 movsd
  000b6	a5		 movsd

; 301  : 
; 302  : 	//  center vPos       .
; 303  : 	// /2.0f *FLOAT05 
; 304  : 	vCenter += m_vCollisionDir * m_fCollisionRange * FLOAT05; 

  000b7	b8 05 00 00 00	 mov	 eax, 5
  000bc	8b f0		 mov	 esi, eax
  000be	b8 0a 00 00 00	 mov	 eax, 10			; 0000000aH
  000c3	8b f8		 mov	 edi, eax
  000c5	8d 45 80	 lea	 eax, DWORD PTR _value$534562[ebp]
  000c8	8d 8b bc 08 00
	00		 lea	 ecx, DWORD PTR [ebx+2236]
  000ce	50		 push	 eax
  000cf	89 8d 74 ff ff
	ff		 mov	 DWORD PTR tv680[ebp], ecx
  000d5	e8 00 00 00 00	 call	 ?DecryptValueToPool@?$CEncrypt@M@@QAEXPAM@Z ; CEncrypt<float>::DecryptValueToPool
  000da	f3 0f 10 83 dc
	09 00 00	 movss	 xmm0, DWORD PTR [ebx+2524]
  000e2	f3 0f 10 4d 80	 movss	 xmm1, DWORD PTR _value$534562[ebp]
  000e7	f3 0f 10 55 80	 movss	 xmm2, DWORD PTR _value$534562[ebp]
  000ec	f3 0f 10 5d 80	 movss	 xmm3, DWORD PTR _value$534562[ebp]
  000f1	0f 5a c9	 cvtps2pd xmm1, xmm1
  000f4	0f 5a c0	 cvtps2pd xmm0, xmm0
  000f7	f2 0f 59 c1	 mulsd	 xmm0, xmm1
  000fb	f3 0f 10 8b e0
	09 00 00	 movss	 xmm1, DWORD PTR [ebx+2528]
  00103	0f 5a d2	 cvtps2pd xmm2, xmm2
  00106	0f 5a c9	 cvtps2pd xmm1, xmm1
  00109	f2 0f 59 ca	 mulsd	 xmm1, xmm2
  0010d	f3 0f 10 93 e4
	09 00 00	 movss	 xmm2, DWORD PTR [ebx+2532]
  00115	0f 5a d2	 cvtps2pd xmm2, xmm2
  00118	0f 5a db	 cvtps2pd xmm3, xmm3
  0011b	f2 0f 59 d3	 mulsd	 xmm2, xmm3
  0011f	89 75 84	 mov	 DWORD PTR tv835[ebp], esi
  00122	db 45 84	 fild	 DWORD PTR tv835[ebp]
  00125	66 0f 5a c0	 cvtpd2ps xmm0, xmm0
  00129	66 0f 5a c9	 cvtpd2ps xmm1, xmm1
  0012d	66 0f 5a d2	 cvtpd2ps xmm2, xmm2
  00131	85 f6		 test	 esi, esi
  00133	79 06		 jns	 SHORT $LN63@CheckColli
  00135	d8 05 00 00 00
	00		 fadd	 DWORD PTR __real@4f800000
$LN63@CheckColli:
  0013b	89 7d 84	 mov	 DWORD PTR tv831[ebp], edi
  0013e	db 45 84	 fild	 DWORD PTR tv831[ebp]
  00141	85 ff		 test	 edi, edi
  00143	79 06		 jns	 SHORT $LN64@CheckColli
  00145	d8 05 00 00 00
	00		 fadd	 DWORD PTR __real@4f800000
$LN64@CheckColli:
  0014b	de f9		 fdivp	 ST(1), ST(0)
  0014d	f3 0f 5a c0	 cvtss2sd xmm0, xmm0
  00151	f3 0f 5a c9	 cvtss2sd xmm1, xmm1
  00155	f3 0f 5a d2	 cvtss2sd xmm2, xmm2

; 305  : 	// /2.0f  * FLOAT05 
; 306  : 	D3DXVECTOR3 vOffset( 0.0f, ( ( m_fUpHeight + m_fUnderHeight ) * FLOAT05 ) - m_fUpHeight, 0.0f );

  00159	8d 85 7c ff ff
	ff		 lea	 eax, DWORD PTR _value$534594[ebp]
  0015f	81 c3 7c 09 00
	00		 add	 ebx, 2428		; 0000097cH
  00165	50		 push	 eax
  00166	8b cb		 mov	 ecx, ebx
  00168	d9 5d 80	 fstp	 DWORD PTR tv827[ebp]
  0016b	d9 45 80	 fld	 DWORD PTR tv827[ebp]
  0016e	d9 5d 80	 fstp	 DWORD PTR $T534587[ebp]
  00171	f3 0f 10 5d 80	 movss	 xmm3, DWORD PTR $T534587[ebp]
  00176	0f 5a db	 cvtps2pd xmm3, xmm3
  00179	f2 0f 59 c3	 mulsd	 xmm0, xmm3
  0017d	f3 0f 10 5d 80	 movss	 xmm3, DWORD PTR $T534587[ebp]
  00182	66 0f 5a c0	 cvtpd2ps xmm0, xmm0
  00186	0f 5a db	 cvtps2pd xmm3, xmm3
  00189	f2 0f 59 cb	 mulsd	 xmm1, xmm3
  0018d	f3 0f 10 5d 80	 movss	 xmm3, DWORD PTR $T534587[ebp]
  00192	f3 0f 5a c0	 cvtss2sd xmm0, xmm0
  00196	0f 5a db	 cvtps2pd xmm3, xmm3
  00199	f2 0f 59 d3	 mulsd	 xmm2, xmm3
  0019d	f3 0f 10 5d e4	 movss	 xmm3, DWORD PTR _vCenter$[ebp]
  001a2	0f 5a db	 cvtps2pd xmm3, xmm3
  001a5	f2 0f 58 c3	 addsd	 xmm0, xmm3
  001a9	66 0f 5a c0	 cvtpd2ps xmm0, xmm0
  001ad	f3 0f 11 45 e4	 movss	 DWORD PTR _vCenter$[ebp], xmm0
  001b2	f3 0f 10 45 e8	 movss	 xmm0, DWORD PTR _vCenter$[ebp+4]
  001b7	0f 5a c0	 cvtps2pd xmm0, xmm0
  001ba	66 0f 5a c9	 cvtpd2ps xmm1, xmm1
  001be	f3 0f 5a c9	 cvtss2sd xmm1, xmm1
  001c2	f2 0f 58 c1	 addsd	 xmm0, xmm1
  001c6	66 0f 5a c0	 cvtpd2ps xmm0, xmm0
  001ca	f3 0f 11 45 e8	 movss	 DWORD PTR _vCenter$[ebp+4], xmm0
  001cf	f3 0f 10 45 ec	 movss	 xmm0, DWORD PTR _vCenter$[ebp+8]
  001d4	66 0f 5a d2	 cvtpd2ps xmm2, xmm2
  001d8	0f 5a c0	 cvtps2pd xmm0, xmm0
  001db	0f 57 c9	 xorps	 xmm1, xmm1
  001de	f3 0f 5a ca	 cvtss2sd xmm1, xmm2
  001e2	f2 0f 58 c1	 addsd	 xmm0, xmm1
  001e6	66 0f 5a c0	 cvtpd2ps xmm0, xmm0
  001ea	f3 0f 11 45 ec	 movss	 DWORD PTR _vCenter$[ebp+8], xmm0
  001ef	e8 00 00 00 00	 call	 ?DecryptValueToPool@?$CEncrypt@M@@QAEXPAM@Z ; CEncrypt<float>::DecryptValueToPool
  001f4	8b 8d 70 ff ff
	ff		 mov	 ecx, DWORD PTR tv672[ebp]
  001fa	8d 45 80	 lea	 eax, DWORD PTR _value$534598[ebp]
  001fd	50		 push	 eax
  001fe	e8 00 00 00 00	 call	 ?DecryptValueToPool@?$CEncrypt@M@@QAEXPAM@Z ; CEncrypt<float>::DecryptValueToPool
  00203	d9 45 80	 fld	 DWORD PTR _value$534598[ebp]
  00206	d8 85 7c ff ff
	ff		 fadd	 DWORD PTR _value$534594[ebp]
  0020c	d9 5d 80	 fstp	 DWORD PTR $T534599[ebp]
  0020f	b8 05 00 00 00	 mov	 eax, 5
  00214	8b f0		 mov	 esi, eax
  00216	b8 0a 00 00 00	 mov	 eax, 10			; 0000000aH
  0021b	8b 8d 70 ff ff
	ff		 mov	 ecx, DWORD PTR tv672[ebp]
  00221	8b f8		 mov	 edi, eax
  00223	8d 45 84	 lea	 eax, DWORD PTR _value$534611[ebp]
  00226	50		 push	 eax
  00227	e8 00 00 00 00	 call	 ?DecryptValueToPool@?$CEncrypt@M@@QAEXPAM@Z ; CEncrypt<float>::DecryptValueToPool
  0022c	89 b5 7c ff ff
	ff		 mov	 DWORD PTR tv806[ebp], esi
  00232	db 85 7c ff ff
	ff		 fild	 DWORD PTR tv806[ebp]
  00238	85 f6		 test	 esi, esi
  0023a	79 06		 jns	 SHORT $LN65@CheckColli
  0023c	d8 05 00 00 00
	00		 fadd	 DWORD PTR __real@4f800000
$LN65@CheckColli:
  00242	89 bd 7c ff ff
	ff		 mov	 DWORD PTR tv802[ebp], edi
  00248	db 85 7c ff ff
	ff		 fild	 DWORD PTR tv802[ebp]
  0024e	85 ff		 test	 edi, edi
  00250	79 06		 jns	 SHORT $LN66@CheckColli
  00252	d8 05 00 00 00
	00		 fadd	 DWORD PTR __real@4f800000
$LN66@CheckColli:
  00258	de f9		 fdivp	 ST(1), ST(0)

; 307  : 	vCenter -= vOffset;

  0025a	f3 0f 10 45 e4	 movss	 xmm0, DWORD PTR _vCenter$[ebp]
  0025f	0f 5a c8	 cvtps2pd xmm1, xmm0
  00262	f2 0f 5c 0d 00
	00 00 00	 subsd	 xmm1, QWORD PTR __real@0000000000000000
  0026a	66 0f 5a c9	 cvtpd2ps xmm1, xmm1
  0026e	f3 0f 11 4d e4	 movss	 DWORD PTR _vCenter$[ebp], xmm1
  00273	f3 0f 10 4d e8	 movss	 xmm1, DWORD PTR _vCenter$[ebp+4]
  00278	0f 5a c9	 cvtps2pd xmm1, xmm1
  0027b	0f 57 c0	 xorps	 xmm0, xmm0

; 308  : 
; 309  : 	//   2  .    2
; 310  : 	D3DXVECTOR3 vMin, vMax;
; 311  : 	vMin = vMax = vCenter;

  0027e	8d 75 e4	 lea	 esi, DWORD PTR _vCenter$[ebp]
  00281	8d 7d d8	 lea	 edi, DWORD PTR _vMax$[ebp]
  00284	d9 9d 7c ff ff
	ff		 fstp	 DWORD PTR tv798[ebp]
  0028a	d9 85 7c ff ff
	ff		 fld	 DWORD PTR tv798[ebp]
  00290	d8 4d 80	 fmul	 DWORD PTR $T534599[ebp]
  00293	d8 65 84	 fsub	 DWORD PTR _value$534611[ebp]
  00296	d9 5d 84	 fstp	 DWORD PTR $T534615[ebp]
  00299	f3 0f 10 55 84	 movss	 xmm2, DWORD PTR $T534615[ebp]
  0029e	0f 5a d2	 cvtps2pd xmm2, xmm2
  002a1	f2 0f 5c ca	 subsd	 xmm1, xmm2
  002a5	66 0f 5a c9	 cvtpd2ps xmm1, xmm1
  002a9	f3 0f 11 4d e8	 movss	 DWORD PTR _vCenter$[ebp+4], xmm1
  002ae	f3 0f 10 4d ec	 movss	 xmm1, DWORD PTR _vCenter$[ebp+8]
  002b3	0f 5a c9	 cvtps2pd xmm1, xmm1
  002b6	f2 0f 5c 0d 00
	00 00 00	 subsd	 xmm1, QWORD PTR __real@0000000000000000
  002be	66 0f 5a c1	 cvtpd2ps xmm0, xmm1
  002c2	f3 0f 11 45 ec	 movss	 DWORD PTR _vCenter$[ebp+8], xmm0
  002c7	a5		 movsd
  002c8	a5		 movsd
  002c9	a5		 movsd
  002ca	8d 75 e4	 lea	 esi, DWORD PTR _vCenter$[ebp]
  002cd	8d 7d cc	 lea	 edi, DWORD PTR _vMin$[ebp]
  002d0	a5		 movsd
  002d1	a5		 movsd
  002d2	a5		 movsd

; 312  : 	// /2.0f  * FLOAT05 
; 313  : 	vMin.x -= ( m_fWidth * FLOAT05 );

  002d3	b8 05 00 00 00	 mov	 eax, 5
  002d8	8b c8		 mov	 ecx, eax
  002da	b8 0a 00 00 00	 mov	 eax, 10			; 0000000aH
  002df	89 4d 84	 mov	 DWORD PTR tv772[ebp], ecx
  002e2	db 45 84	 fild	 DWORD PTR tv772[ebp]
  002e5	85 c9		 test	 ecx, ecx
  002e7	79 06		 jns	 SHORT $LN67@CheckColli
  002e9	d8 05 00 00 00
	00		 fadd	 DWORD PTR __real@4f800000
$LN67@CheckColli:
  002ef	89 45 84	 mov	 DWORD PTR tv768[ebp], eax
  002f2	db 45 84	 fild	 DWORD PTR tv768[ebp]
  002f5	85 c0		 test	 eax, eax
  002f7	79 06		 jns	 SHORT $LN68@CheckColli
  002f9	d8 05 00 00 00
	00		 fadd	 DWORD PTR __real@4f800000
$LN68@CheckColli:
  002ff	de f9		 fdivp	 ST(1), ST(0)
  00301	8b 8d 78 ff ff
	ff		 mov	 ecx, DWORD PTR tv676[ebp]
  00307	8d 45 84	 lea	 eax, DWORD PTR _value$534636[ebp]
  0030a	50		 push	 eax
  0030b	d9 5d 84	 fstp	 DWORD PTR tv764[ebp]
  0030e	d9 45 84	 fld	 DWORD PTR tv764[ebp]
  00311	d9 9d 7c ff ff
	ff		 fstp	 DWORD PTR $T534545[ebp]
  00317	e8 00 00 00 00	 call	 ?DecryptValueToPool@?$CEncrypt@M@@QAEXPAM@Z ; CEncrypt<float>::DecryptValueToPool
  0031c	d9 45 cc	 fld	 DWORD PTR _vMin$[ebp]
  0031f	d9 45 84	 fld	 DWORD PTR _value$534636[ebp]

; 314  : 	vMin.y -= m_fUnderHeight;

  00322	8d 45 84	 lea	 eax, DWORD PTR _value$534640[ebp]
  00325	d8 8d 7c ff ff
	ff		 fmul	 DWORD PTR $T534545[ebp]
  0032b	50		 push	 eax
  0032c	8b cb		 mov	 ecx, ebx
  0032e	d9 5d 84	 fstp	 DWORD PTR tv761[ebp]
  00331	d8 65 84	 fsub	 DWORD PTR tv761[ebp]
  00334	d9 5d cc	 fstp	 DWORD PTR _vMin$[ebp]
  00337	e8 00 00 00 00	 call	 ?DecryptValueToPool@?$CEncrypt@M@@QAEXPAM@Z ; CEncrypt<float>::DecryptValueToPool
  0033c	f3 0f 10 45 d0	 movss	 xmm0, DWORD PTR _vMin$[ebp+4]
  00341	f3 0f 10 4d 84	 movss	 xmm1, DWORD PTR _value$534640[ebp]
  00346	0f 5a c0	 cvtps2pd xmm0, xmm0
  00349	0f 5a c9	 cvtps2pd xmm1, xmm1
  0034c	f2 0f 5c c1	 subsd	 xmm0, xmm1
  00350	66 0f 5a c0	 cvtpd2ps xmm0, xmm0
  00354	f3 0f 11 45 d0	 movss	 DWORD PTR _vMin$[ebp+4], xmm0

; 315  : 	vMax.x += ( m_fWidth * FLOAT05 );

  00359	b8 05 00 00 00	 mov	 eax, 5
  0035e	8b c8		 mov	 ecx, eax
  00360	b8 0a 00 00 00	 mov	 eax, 10			; 0000000aH
  00365	89 4d 84	 mov	 DWORD PTR tv751[ebp], ecx
  00368	db 45 84	 fild	 DWORD PTR tv751[ebp]
  0036b	85 c9		 test	 ecx, ecx
  0036d	79 06		 jns	 SHORT $LN69@CheckColli
  0036f	d8 05 00 00 00
	00		 fadd	 DWORD PTR __real@4f800000
$LN69@CheckColli:
  00375	89 45 84	 mov	 DWORD PTR tv747[ebp], eax
  00378	db 45 84	 fild	 DWORD PTR tv747[ebp]
  0037b	85 c0		 test	 eax, eax
  0037d	79 06		 jns	 SHORT $LN70@CheckColli
  0037f	d8 05 00 00 00
	00		 fadd	 DWORD PTR __real@4f800000
$LN70@CheckColli:
  00385	de f9		 fdivp	 ST(1), ST(0)
  00387	8b 8d 78 ff ff
	ff		 mov	 ecx, DWORD PTR tv676[ebp]
  0038d	8d 45 84	 lea	 eax, DWORD PTR _value$534652[ebp]
  00390	50		 push	 eax
  00391	d9 5d 84	 fstp	 DWORD PTR tv743[ebp]
  00394	d9 45 84	 fld	 DWORD PTR tv743[ebp]
  00397	d9 9d 7c ff ff
	ff		 fstp	 DWORD PTR $T534546[ebp]
  0039d	e8 00 00 00 00	 call	 ?DecryptValueToPool@?$CEncrypt@M@@QAEXPAM@Z ; CEncrypt<float>::DecryptValueToPool
  003a2	d9 45 84	 fld	 DWORD PTR _value$534652[ebp]
  003a5	d8 8d 7c ff ff
	ff		 fmul	 DWORD PTR $T534546[ebp]

; 316  : 	vMax.y += m_fUpHeight;

  003ab	8b 8d 70 ff ff
	ff		 mov	 ecx, DWORD PTR tv672[ebp]
  003b1	8d 45 84	 lea	 eax, DWORD PTR _value$534656[ebp]
  003b4	50		 push	 eax
  003b5	d9 5d 84	 fstp	 DWORD PTR tv740[ebp]
  003b8	d9 45 84	 fld	 DWORD PTR tv740[ebp]
  003bb	d8 45 d8	 fadd	 DWORD PTR _vMax$[ebp]
  003be	d9 5d d8	 fstp	 DWORD PTR _vMax$[ebp]
  003c1	e8 00 00 00 00	 call	 ?DecryptValueToPool@?$CEncrypt@M@@QAEXPAM@Z ; CEncrypt<float>::DecryptValueToPool
  003c6	f3 0f 10 4d dc	 movss	 xmm1, DWORD PTR _vMax$[ebp+4]
  003cb	f3 0f 10 45 84	 movss	 xmm0, DWORD PTR _value$534656[ebp]

; 317  : 	vMax.z += m_fCollisionRange;

  003d0	8b 8d 74 ff ff
	ff		 mov	 ecx, DWORD PTR tv680[ebp]
  003d6	0f 5a c0	 cvtps2pd xmm0, xmm0
  003d9	0f 5a c9	 cvtps2pd xmm1, xmm1
  003dc	8d 85 74 ff ff
	ff		 lea	 eax, DWORD PTR _value$534660[ebp]
  003e2	f2 0f 58 c1	 addsd	 xmm0, xmm1
  003e6	66 0f 5a c0	 cvtpd2ps xmm0, xmm0
  003ea	50		 push	 eax
  003eb	f3 0f 11 45 dc	 movss	 DWORD PTR _vMax$[ebp+4], xmm0
  003f0	e8 00 00 00 00	 call	 ?DecryptValueToPool@?$CEncrypt@M@@QAEXPAM@Z ; CEncrypt<float>::DecryptValueToPool
  003f5	f3 0f 10 4d e0	 movss	 xmm1, DWORD PTR _vMax$[ebp+8]
  003fa	f3 0f 10 85 74
	ff ff ff	 movss	 xmm0, DWORD PTR _value$534660[ebp]
  00402	0f 5a c0	 cvtps2pd xmm0, xmm0
  00405	0f 5a c9	 cvtps2pd xmm1, xmm1
  00408	f2 0f 58 c1	 addsd	 xmm0, xmm1
  0040c	66 0f 5a c0	 cvtpd2ps xmm0, xmm0

; 318  : 
; 319  : 	//  
; 320  : 	ioOrientBox kBuffBox;

  00410	8d 4d 88	 lea	 ecx, DWORD PTR _kBuffBox$[ebp]
  00413	f3 0f 11 45 e0	 movss	 DWORD PTR _vMax$[ebp+8], xmm0
  00418	ff 15 00 00 00
	00		 call	 DWORD PTR __imp_??0ioOrientBox@@QAE@XZ
  0041e	83 65 fc 00	 and	 DWORD PTR __$EHRec$[ebp+8], 0

; 321  : 	kBuffBox.SetBoxByMinMax( vMin, vMax );

  00422	8d 45 d8	 lea	 eax, DWORD PTR _vMax$[ebp]
  00425	50		 push	 eax
  00426	8d 45 cc	 lea	 eax, DWORD PTR _vMin$[ebp]
  00429	50		 push	 eax
  0042a	8d 4d 88	 lea	 ecx, DWORD PTR _kBuffBox$[ebp]
  0042d	ff 15 00 00 00
	00		 call	 DWORD PTR __imp_?SetBoxByMinMax@ioOrientBox@@QAEXABUD3DXVECTOR3@@0@Z

; 322  : 	//    
; 323  : 	kBuffBox.Transform( vCenter, ioMath::UNIT_ALL, pOwnerChar->GetWorldOrientation() );

  00433	8b 8d 68 ff ff
	ff		 mov	 ecx, DWORD PTR _pOwnerChar$[ebp]
  00439	8b 01		 mov	 eax, DWORD PTR [ecx]
  0043b	ff 50 74	 call	 DWORD PTR [eax+116]
  0043e	50		 push	 eax
  0043f	ff 35 00 00 00
	00		 push	 DWORD PTR __imp_?UNIT_ALL@ioMath@@2UD3DXVECTOR3@@A
  00445	8d 45 e4	 lea	 eax, DWORD PTR _vCenter$[ebp]
  00448	50		 push	 eax
  00449	8d 4d 88	 lea	 ecx, DWORD PTR _kBuffBox$[ebp]
  0044c	ff 15 00 00 00
	00		 call	 DWORD PTR __imp_?Transform@ioOrientBox@@QAEXABUD3DXVECTOR3@@0ABUD3DXQUATERNION@@@Z

; 324  : 	//      pos 
; 325  : 	kBuffBox.SetCenter( vCenter );

  00452	8d 45 e4	 lea	 eax, DWORD PTR _vCenter$[ebp]
  00455	50		 push	 eax
  00456	8d 4d 88	 lea	 ecx, DWORD PTR _kBuffBox$[ebp]
  00459	ff 15 00 00 00
	00		 call	 DWORD PTR __imp_?SetCenter@ioOrientBox@@QAEXABUD3DXVECTOR3@@@Z

; 326  : #ifndef SHIPPING
; 327  : 	kBuffBox.GetVertices( ioBaseChar::m_vRangeBoxArrayForTest );
; 328  : #endif
; 329  : 
; 330  : 	if( !pEntity )

  0045f	8b 8d 6c ff ff
	ff		 mov	 ecx, DWORD PTR _pEntity$GSCopy$[ebp]
  00465	85 c9		 test	 ecx, ecx
  00467	75 12		 jne	 SHORT $LN2@CheckColli

; 331  : 		return false;

  00469	83 4d fc ff	 or	 DWORD PTR __$EHRec$[ebp+8], -1
  0046d	8d 4d 88	 lea	 ecx, DWORD PTR _kBuffBox$[ebp]
  00470	ff 15 00 00 00
	00		 call	 DWORD PTR __imp_??1ioOrientBox@@QAE@XZ
  00476	e9 e7 fb ff ff	 jmp	 $LN71@CheckColli
$LN2@CheckColli:

; 332  : 
; 333  : 	if( !pEntity->IsWoundedCollision( kBuffBox ) )

  0047b	8b 01		 mov	 eax, DWORD PTR [ecx]
  0047d	6a 00		 push	 0
  0047f	8d 55 88	 lea	 edx, DWORD PTR _kBuffBox$[ebp]
  00482	52		 push	 edx
  00483	ff 90 90 00 00
	00		 call	 DWORD PTR [eax+144]
  00489	84 c0		 test	 al, al
  0048b	75 16		 jne	 SHORT $LN1@CheckColli
  0048d	32 db		 xor	 bl, bl
$LN61@CheckColli:

; 334  : 		return false;

  0048f	83 4d fc ff	 or	 DWORD PTR __$EHRec$[ebp+8], -1
  00493	8d 4d 88	 lea	 ecx, DWORD PTR _kBuffBox$[ebp]
  00496	ff 15 00 00 00
	00		 call	 DWORD PTR __imp_??1ioOrientBox@@QAE@XZ
  0049c	8a c3		 mov	 al, bl
  0049e	e9 c1 fb ff ff	 jmp	 $LN6@CheckColli
$LN1@CheckColli:
  004a3	b3 01		 mov	 bl, 1
  004a5	eb e8		 jmp	 SHORT $LN61@CheckColli
_TEXT	ENDS
;	COMDAT text$x
text$x	SEGMENT
__unwindfunclet$?CheckCollisionBox@ioAreaEffectWeapon@@QAE_NPAVioPlayEntity@@@Z$0:
  00000	8d 4d 88	 lea	 ecx, DWORD PTR _kBuffBox$[ebp]
  00003	ff 25 00 00 00
	00		 jmp	 DWORD PTR __imp_??1ioOrientBox@@QAE@XZ
__ehhandler$?CheckCollisionBox@ioAreaEffectWeapon@@QAE_NPAVioPlayEntity@@@Z:
  00009	8b 54 24 08	 mov	 edx, DWORD PTR [esp+8]
  0000d	8d 42 0c	 lea	 eax, DWORD PTR [edx+12]
  00010	8b 8a 64 ff ff
	ff		 mov	 ecx, DWORD PTR [edx-156]
  00016	33 c8		 xor	 ecx, eax
  00018	e8 00 00 00 00	 call	 @__security_check_cookie@4
  0001d	8b 4a fc	 mov	 ecx, DWORD PTR [edx-4]
  00020	33 c8		 xor	 ecx, eax
  00022	e8 00 00 00 00	 call	 @__security_check_cookie@4
  00027	b8 00 00 00 00	 mov	 eax, OFFSET __ehfuncinfo$?CheckCollisionBox@ioAreaEffectWeapon@@QAE_NPAVioPlayEntity@@@Z
  0002c	e9 00 00 00 00	 jmp	 ___CxxFrameHandler3
text$x	ENDS
?CheckCollisionBox@ioAreaEffectWeapon@@QAE_NPAVioPlayEntity@@@Z ENDP ; ioAreaEffectWeapon::CheckCollisionBox
PUBLIC	?begin@?$vector@PAVioBaseChar@@V?$allocator@PAVioBaseChar@@@std@@@std@@QAE?AV?$_Vector_iterator@V?$_Vector_val@PAVioBaseChar@@V?$allocator@PAVioBaseChar@@@std@@@std@@@2@XZ ; std::vector<ioBaseChar *,std::allocator<ioBaseChar *> >::begin
; Function compile flags: /Ogsp
; File c:\program files (x86)\microsoft visual studio 10.0\vc\include\vector
;	COMDAT ?begin@?$vector@PAVioBaseChar@@V?$allocator@PAVioBaseChar@@@std@@@std@@QAE?AV?$_Vector_iterator@V?$_Vector_val@PAVioBaseChar@@V?$allocator@PAVioBaseChar@@@std@@@std@@@2@XZ
_TEXT	SEGMENT
___$ReturnUdt$ = 8					; size = 4
?begin@?$vector@PAVioBaseChar@@V?$allocator@PAVioBaseChar@@@std@@@std@@QAE?AV?$_Vector_iterator@V?$_Vector_val@PAVioBaseChar@@V?$allocator@PAVioBaseChar@@@std@@@std@@@2@XZ PROC ; std::vector<ioBaseChar *,std::allocator<ioBaseChar *> >::begin, COMDAT
; _this$ = ecx

; 781  : 		{	// return iterator for beginning of mutable sequence

  00000	55		 push	 ebp
  00001	8b ec		 mov	 ebp, esp

; 782  : 		return (iterator(this->_Myfirst, this));

  00003	8b 09		 mov	 ecx, DWORD PTR [ecx]
  00005	8b 45 08	 mov	 eax, DWORD PTR ___$ReturnUdt$[ebp]
  00008	89 08		 mov	 DWORD PTR [eax], ecx

; 783  : 		}

  0000a	5d		 pop	 ebp
  0000b	c2 04 00	 ret	 4
?begin@?$vector@PAVioBaseChar@@V?$allocator@PAVioBaseChar@@@std@@@std@@QAE?AV?$_Vector_iterator@V?$_Vector_val@PAVioBaseChar@@V?$allocator@PAVioBaseChar@@@std@@@std@@@2@XZ ENDP ; std::vector<ioBaseChar *,std::allocator<ioBaseChar *> >::begin
_TEXT	ENDS
PUBLIC	?end@?$vector@PAVioBaseChar@@V?$allocator@PAVioBaseChar@@@std@@@std@@QAE?AV?$_Vector_iterator@V?$_Vector_val@PAVioBaseChar@@V?$allocator@PAVioBaseChar@@@std@@@std@@@2@XZ ; std::vector<ioBaseChar *,std::allocator<ioBaseChar *> >::end
; Function compile flags: /Ogsp
;	COMDAT ?end@?$vector@PAVioBaseChar@@V?$allocator@PAVioBaseChar@@@std@@@std@@QAE?AV?$_Vector_iterator@V?$_Vector_val@PAVioBaseChar@@V?$allocator@PAVioBaseChar@@@std@@@std@@@2@XZ
_TEXT	SEGMENT
___$ReturnUdt$ = 8					; size = 4
?end@?$vector@PAVioBaseChar@@V?$allocator@PAVioBaseChar@@@std@@@std@@QAE?AV?$_Vector_iterator@V?$_Vector_val@PAVioBaseChar@@V?$allocator@PAVioBaseChar@@@std@@@std@@@2@XZ PROC ; std::vector<ioBaseChar *,std::allocator<ioBaseChar *> >::end, COMDAT
; _this$ = ecx

; 791  : 		{	// return iterator for end of mutable sequence

  00000	55		 push	 ebp
  00001	8b ec		 mov	 ebp, esp

; 792  : 		return (iterator(this->_Mylast, this));

  00003	8b 49 04	 mov	 ecx, DWORD PTR [ecx+4]
  00006	8b 45 08	 mov	 eax, DWORD PTR ___$ReturnUdt$[ebp]
  00009	89 08		 mov	 DWORD PTR [eax], ecx

; 793  : 		}

  0000b	5d		 pop	 ebp
  0000c	c2 04 00	 ret	 4
?end@?$vector@PAVioBaseChar@@V?$allocator@PAVioBaseChar@@@std@@@std@@QAE?AV?$_Vector_iterator@V?$_Vector_val@PAVioBaseChar@@V?$allocator@PAVioBaseChar@@@std@@@std@@@2@XZ ENDP ; std::vector<ioBaseChar *,std::allocator<ioBaseChar *> >::end
_TEXT	ENDS
PUBLIC	?begin@?$list@PAVioPlayEntity@@V?$allocator@PAVioPlayEntity@@@std@@@std@@QBE?AV?$_List_const_iterator@V?$_List_val@PAVioPlayEntity@@V?$allocator@PAVioPlayEntity@@@std@@@std@@@2@XZ ; std::list<ioPlayEntity *,std::allocator<ioPlayEntity *> >::begin
; Function compile flags: /Ogsp
; File c:\program files (x86)\microsoft visual studio 10.0\vc\include\list
;	COMDAT ?begin@?$list@PAVioPlayEntity@@V?$allocator@PAVioPlayEntity@@@std@@@std@@QBE?AV?$_List_const_iterator@V?$_List_val@PAVioPlayEntity@@V?$allocator@PAVioPlayEntity@@@std@@@std@@@2@XZ
_TEXT	SEGMENT
___$ReturnUdt$ = 8					; size = 4
?begin@?$list@PAVioPlayEntity@@V?$allocator@PAVioPlayEntity@@@std@@@std@@QBE?AV?$_List_const_iterator@V?$_List_val@PAVioPlayEntity@@V?$allocator@PAVioPlayEntity@@@std@@@std@@@2@XZ PROC ; std::list<ioPlayEntity *,std::allocator<ioPlayEntity *> >::begin, COMDAT
; _this$ = ecx

; 786  : 		{	// return iterator for beginning of nonmutable sequence

  00000	55		 push	 ebp
  00001	8b ec		 mov	 ebp, esp

; 787  : 		return (const_iterator(this->_Nextnode(this->_Myhead), this));

  00003	8b 01		 mov	 eax, DWORD PTR [ecx]
  00005	8b 08		 mov	 ecx, DWORD PTR [eax]
  00007	8b 45 08	 mov	 eax, DWORD PTR ___$ReturnUdt$[ebp]
  0000a	89 08		 mov	 DWORD PTR [eax], ecx

; 788  : 		}

  0000c	5d		 pop	 ebp
  0000d	c2 04 00	 ret	 4
?begin@?$list@PAVioPlayEntity@@V?$allocator@PAVioPlayEntity@@@std@@@std@@QBE?AV?$_List_const_iterator@V?$_List_val@PAVioPlayEntity@@V?$allocator@PAVioPlayEntity@@@std@@@std@@@2@XZ ENDP ; std::list<ioPlayEntity *,std::allocator<ioPlayEntity *> >::begin
_TEXT	ENDS
PUBLIC	?end@?$list@PAVioPlayEntity@@V?$allocator@PAVioPlayEntity@@@std@@@std@@QBE?AV?$_List_const_iterator@V?$_List_val@PAVioPlayEntity@@V?$allocator@PAVioPlayEntity@@@std@@@std@@@2@XZ ; std::list<ioPlayEntity *,std::allocator<ioPlayEntity *> >::end
; Function compile flags: /Ogsp
;	COMDAT ?end@?$list@PAVioPlayEntity@@V?$allocator@PAVioPlayEntity@@@std@@@std@@QBE?AV?$_List_const_iterator@V?$_List_val@PAVioPlayEntity@@V?$allocator@PAVioPlayEntity@@@std@@@std@@@2@XZ
_TEXT	SEGMENT
___$ReturnUdt$ = 8					; size = 4
?end@?$list@PAVioPlayEntity@@V?$allocator@PAVioPlayEntity@@@std@@@std@@QBE?AV?$_List_const_iterator@V?$_List_val@PAVioPlayEntity@@V?$allocator@PAVioPlayEntity@@@std@@@std@@@2@XZ PROC ; std::list<ioPlayEntity *,std::allocator<ioPlayEntity *> >::end, COMDAT
; _this$ = ecx

; 796  : 		{	// return iterator for end of nonmutable sequence

  00000	55		 push	 ebp
  00001	8b ec		 mov	 ebp, esp

; 797  : 		return (const_iterator(this->_Myhead, this));

  00003	8b 09		 mov	 ecx, DWORD PTR [ecx]
  00005	8b 45 08	 mov	 eax, DWORD PTR ___$ReturnUdt$[ebp]
  00008	89 08		 mov	 DWORD PTR [eax], ecx

; 798  : 		}

  0000a	5d		 pop	 ebp
  0000b	c2 04 00	 ret	 4
?end@?$list@PAVioPlayEntity@@V?$allocator@PAVioPlayEntity@@@std@@@std@@QBE?AV?$_List_const_iterator@V?$_List_val@PAVioPlayEntity@@V?$allocator@PAVioPlayEntity@@@std@@@std@@@2@XZ ENDP ; std::list<ioPlayEntity *,std::allocator<ioPlayEntity *> >::end
_TEXT	ENDS
PUBLIC	??0?$vector@UstWantCheckList@ioAreaEffectWeapon@@V?$allocator@UstWantCheckList@ioAreaEffectWeapon@@@std@@@std@@QAE@XZ ; std::vector<ioAreaEffectWeapon::stWantCheckList,std::allocator<ioAreaEffectWeapon::stWantCheckList> >::vector<ioAreaEffectWeapon::stWantCheckList,std::allocator<ioAreaEffectWeapon::stWantCheckList> >
; Function compile flags: /Ogsp
; File c:\program files (x86)\microsoft visual studio 10.0\vc\include\vector
;	COMDAT ??0?$vector@UstWantCheckList@ioAreaEffectWeapon@@V?$allocator@UstWantCheckList@ioAreaEffectWeapon@@@std@@@std@@QAE@XZ
_TEXT	SEGMENT
??0?$vector@UstWantCheckList@ioAreaEffectWeapon@@V?$allocator@UstWantCheckList@ioAreaEffectWeapon@@@std@@@std@@QAE@XZ PROC ; std::vector<ioAreaEffectWeapon::stWantCheckList,std::allocator<ioAreaEffectWeapon::stWantCheckList> >::vector<ioAreaEffectWeapon::stWantCheckList,std::allocator<ioAreaEffectWeapon::stWantCheckList> >, COMDAT
; _this$ = ecx

; 507  : 		{	// construct empty vector

  00000	8b c1		 mov	 eax, ecx
  00002	33 c9		 xor	 ecx, ecx
  00004	89 08		 mov	 DWORD PTR [eax], ecx
  00006	89 48 04	 mov	 DWORD PTR [eax+4], ecx
  00009	89 48 08	 mov	 DWORD PTR [eax+8], ecx

; 508  : 		}

  0000c	c3		 ret	 0
??0?$vector@UstWantCheckList@ioAreaEffectWeapon@@V?$allocator@UstWantCheckList@ioAreaEffectWeapon@@@std@@@std@@QAE@XZ ENDP ; std::vector<ioAreaEffectWeapon::stWantCheckList,std::allocator<ioAreaEffectWeapon::stWantCheckList> >::vector<ioAreaEffectWeapon::stWantCheckList,std::allocator<ioAreaEffectWeapon::stWantCheckList> >
_TEXT	ENDS
PUBLIC	??9?$_Vector_const_iterator@V?$_Vector_val@PAVioBaseChar@@V?$allocator@PAVioBaseChar@@@std@@@std@@@std@@QBE_NABV01@@Z ; std::_Vector_const_iterator<std::_Vector_val<ioBaseChar *,std::allocator<ioBaseChar *> > >::operator!=
; Function compile flags: /Ogsp
;	COMDAT ??9?$_Vector_const_iterator@V?$_Vector_val@PAVioBaseChar@@V?$allocator@PAVioBaseChar@@@std@@@std@@@std@@QBE_NABV01@@Z
_TEXT	SEGMENT
__Right$ = 8						; size = 4
??9?$_Vector_const_iterator@V?$_Vector_val@PAVioBaseChar@@V?$allocator@PAVioBaseChar@@@std@@@std@@@std@@QBE_NABV01@@Z PROC ; std::_Vector_const_iterator<std::_Vector_val<ioBaseChar *,std::allocator<ioBaseChar *> > >::operator!=, COMDAT
; _this$ = ecx

; 207  : 		{	// test for iterator inequality

  00000	55		 push	 ebp
  00001	8b ec		 mov	 ebp, esp

; 208  : 		return (!(*this == _Right));

  00003	8b 01		 mov	 eax, DWORD PTR [ecx]
  00005	8b 55 08	 mov	 edx, DWORD PTR __Right$[ebp]
  00008	33 c9		 xor	 ecx, ecx
  0000a	3b 02		 cmp	 eax, DWORD PTR [edx]
  0000c	0f 95 c0	 setne	 al

; 209  : 		}

  0000f	5d		 pop	 ebp
  00010	c2 04 00	 ret	 4
??9?$_Vector_const_iterator@V?$_Vector_val@PAVioBaseChar@@V?$allocator@PAVioBaseChar@@@std@@@std@@@std@@QBE_NABV01@@Z ENDP ; std::_Vector_const_iterator<std::_Vector_val<ioBaseChar *,std::allocator<ioBaseChar *> > >::operator!=
_TEXT	ENDS
PUBLIC	?end@?$list@PAVioPlayEntity@@V?$allocator@PAVioPlayEntity@@@std@@@std@@QAE?AV?$_List_iterator@V?$_List_val@PAVioPlayEntity@@V?$allocator@PAVioPlayEntity@@@std@@@std@@@2@XZ ; std::list<ioPlayEntity *,std::allocator<ioPlayEntity *> >::end
; Function compile flags: /Ogsp
; File c:\program files (x86)\microsoft visual studio 10.0\vc\include\list
;	COMDAT ?end@?$list@PAVioPlayEntity@@V?$allocator@PAVioPlayEntity@@@std@@@std@@QAE?AV?$_List_iterator@V?$_List_val@PAVioPlayEntity@@V?$allocator@PAVioPlayEntity@@@std@@@std@@@2@XZ
_TEXT	SEGMENT
___$ReturnUdt$ = 8					; size = 4
?end@?$list@PAVioPlayEntity@@V?$allocator@PAVioPlayEntity@@@std@@@std@@QAE?AV?$_List_iterator@V?$_List_val@PAVioPlayEntity@@V?$allocator@PAVioPlayEntity@@@std@@@std@@@2@XZ PROC ; std::list<ioPlayEntity *,std::allocator<ioPlayEntity *> >::end, COMDAT
; _this$ = ecx

; 791  : 		{	// return iterator for end of mutable sequence

  00000	55		 push	 ebp
  00001	8b ec		 mov	 ebp, esp

; 792  : 		return (iterator(this->_Myhead, this));

  00003	8b 09		 mov	 ecx, DWORD PTR [ecx]
  00005	8b 45 08	 mov	 eax, DWORD PTR ___$ReturnUdt$[ebp]
  00008	89 08		 mov	 DWORD PTR [eax], ecx

; 793  : 		}

  0000a	5d		 pop	 ebp
  0000b	c2 04 00	 ret	 4
?end@?$list@PAVioPlayEntity@@V?$allocator@PAVioPlayEntity@@@std@@@std@@QAE?AV?$_List_iterator@V?$_List_val@PAVioPlayEntity@@V?$allocator@PAVioPlayEntity@@@std@@@std@@@2@XZ ENDP ; std::list<ioPlayEntity *,std::allocator<ioPlayEntity *> >::end
_TEXT	ENDS
PUBLIC	??0?$_List_val@PAVioPlayEntity@@V?$allocator@PAVioPlayEntity@@@std@@@std@@QAE@V?$allocator@PAVioPlayEntity@@@1@@Z ; std::_List_val<ioPlayEntity *,std::allocator<ioPlayEntity *> >::_List_val<ioPlayEntity *,std::allocator<ioPlayEntity *> >
; Function compile flags: /Ogsp
;	COMDAT ??0?$_List_val@PAVioPlayEntity@@V?$allocator@PAVioPlayEntity@@@std@@@std@@QAE@V?$allocator@PAVioPlayEntity@@@1@@Z
_TEXT	SEGMENT
$T534858 = -16						; size = 12
$T534842 = -4						; size = 4
__Al$ = 8						; size = 1
??0?$_List_val@PAVioPlayEntity@@V?$allocator@PAVioPlayEntity@@@std@@@std@@QAE@V?$allocator@PAVioPlayEntity@@@1@@Z PROC ; std::_List_val<ioPlayEntity *,std::allocator<ioPlayEntity *> >::_List_val<ioPlayEntity *,std::allocator<ioPlayEntity *> >, COMDAT
; _this$ = ecx

; 493  : 		{	// construct base, and allocator from _Al

  00000	55		 push	 ebp
  00001	8b ec		 mov	 ebp, esp
  00003	83 ec 10	 sub	 esp, 16			; 00000010H
  00006	56		 push	 esi
  00007	8b f1		 mov	 esi, ecx

; 494  : 		this->_Mysize = 0;

  00009	83 66 04 00	 and	 DWORD PTR [esi+4], 0

; 495  : 		this->_Myhead = this->_Alnod.allocate(1);

  0000d	6a 0c		 push	 12			; 0000000cH
  0000f	e8 00 00 00 00	 call	 ??2@YAPAXI@Z		; operator new
  00014	59		 pop	 ecx
  00015	85 c0		 test	 eax, eax
  00017	74 10		 je	 SHORT $LN13@List_val
  00019	89 06		 mov	 DWORD PTR [esi], eax

; 496  : 		this->_Nextnode(this->_Myhead) = this->_Myhead;

  0001b	89 00		 mov	 DWORD PTR [eax], eax

; 497  : 		this->_Prevnode(this->_Myhead) = this->_Myhead;

  0001d	8b 06		 mov	 eax, DWORD PTR [esi]
  0001f	89 40 04	 mov	 DWORD PTR [eax+4], eax

; 498  : 		}

  00022	8b c6		 mov	 eax, esi
  00024	5e		 pop	 esi
  00025	c9		 leave
  00026	c2 04 00	 ret	 4

; 495  : 		this->_Myhead = this->_Alnod.allocate(1);

$LN13@List_val:
  00029	83 65 fc 00	 and	 DWORD PTR $T534842[ebp], 0
  0002d	8d 45 fc	 lea	 eax, DWORD PTR $T534842[ebp]
  00030	50		 push	 eax
  00031	8d 4d f0	 lea	 ecx, DWORD PTR $T534858[ebp]
  00034	ff 15 00 00 00
	00		 call	 DWORD PTR __imp_??0exception@std@@QAE@ABQBD@Z
  0003a	68 00 00 00 00	 push	 OFFSET __TI2?AVbad_alloc@std@@
  0003f	8d 45 f0	 lea	 eax, DWORD PTR $T534858[ebp]
  00042	50		 push	 eax
  00043	c7 45 f0 00 00
	00 00		 mov	 DWORD PTR $T534858[ebp], OFFSET ??_7bad_alloc@std@@6B@
  0004a	e8 00 00 00 00	 call	 __CxxThrowException@8
$LN29@List_val:
$LN28@List_val:
  0004f	cc		 int	 3
??0?$_List_val@PAVioPlayEntity@@V?$allocator@PAVioPlayEntity@@@std@@@std@@QAE@V?$allocator@PAVioPlayEntity@@@1@@Z ENDP ; std::_List_val<ioPlayEntity *,std::allocator<ioPlayEntity *> >::_List_val<ioPlayEntity *,std::allocator<ioPlayEntity *> >
_TEXT	ENDS
PUBLIC	?_Grow_to@?$vector@VioHashString@@V?$allocator@VioHashString@@@std@@@std@@IBEII@Z ; std::vector<ioHashString,std::allocator<ioHashString> >::_Grow_to
; Function compile flags: /Ogsp
; File c:\program files (x86)\microsoft visual studio 10.0\vc\include\vector
;	COMDAT ?_Grow_to@?$vector@VioHashString@@V?$allocator@VioHashString@@@std@@@std@@IBEII@Z
_TEXT	SEGMENT
__Count$ = 8						; size = 4
?_Grow_to@?$vector@VioHashString@@V?$allocator@VioHashString@@@std@@@std@@IBEII@Z PROC ; std::vector<ioHashString,std::allocator<ioHashString> >::_Grow_to, COMDAT
; _this$ = ecx

; 1274 : 		{	// grow by 50% or at least to _Count

  00000	55		 push	 ebp
  00001	8b ec		 mov	 ebp, esp

; 1275 : 		size_type _Capacity = capacity();

  00003	8b 41 08	 mov	 eax, DWORD PTR [ecx+8]
  00006	2b 01		 sub	 eax, DWORD PTR [ecx]

; 1276 : 
; 1277 : 		_Capacity = max_size() - _Capacity / 2 < _Capacity
; 1278 : 			? 0 : _Capacity + _Capacity / 2;	// try to grow by 50%

  00008	ba ff ff ff 0f	 mov	 edx, 268435455		; 0fffffffH
  0000d	c1 f8 04	 sar	 eax, 4
  00010	8b c8		 mov	 ecx, eax
  00012	d1 e9		 shr	 ecx, 1
  00014	2b d1		 sub	 edx, ecx
  00016	3b d0		 cmp	 edx, eax
  00018	73 04		 jae	 SHORT $LN4@Grow_to@2
  0001a	33 c0		 xor	 eax, eax
  0001c	eb 02		 jmp	 SHORT $LN5@Grow_to@2
$LN4@Grow_to@2:
  0001e	03 c1		 add	 eax, ecx
$LN5@Grow_to@2:

; 1279 : 		if (_Capacity < _Count)

  00020	3b 45 08	 cmp	 eax, DWORD PTR __Count$[ebp]

; 1280 : 			_Capacity = _Count;

  00023	0f 42 45 08	 cmovb	 eax, DWORD PTR __Count$[ebp]

; 1281 : 		return (_Capacity);
; 1282 : 		}

  00027	5d		 pop	 ebp
  00028	c2 04 00	 ret	 4
?_Grow_to@?$vector@VioHashString@@V?$allocator@VioHashString@@@std@@@std@@IBEII@Z ENDP ; std::vector<ioHashString,std::allocator<ioHashString> >::_Grow_to
_TEXT	ENDS
PUBLIC	??_C@_0BB@MOGOBHAF@list?$DMT?$DO?5too?5long?$AA@ ; `string'
PUBLIC	?_Incsize@?$list@PAVioPlayEntity@@V?$allocator@PAVioPlayEntity@@@std@@@std@@QAEXI@Z ; std::list<ioPlayEntity *,std::allocator<ioPlayEntity *> >::_Incsize
;	COMDAT ??_C@_0BB@MOGOBHAF@list?$DMT?$DO?5too?5long?$AA@
; File c:\program files (x86)\microsoft visual studio 10.0\vc\include\xmemory
CONST	SEGMENT
??_C@_0BB@MOGOBHAF@list?$DMT?$DO?5too?5long?$AA@ DB 'list<T> too long', 00H ; `string'
; Function compile flags: /Ogsp
; File c:\program files (x86)\microsoft visual studio 10.0\vc\include\list
CONST	ENDS
;	COMDAT ?_Incsize@?$list@PAVioPlayEntity@@V?$allocator@PAVioPlayEntity@@@std@@@std@@QAEXI@Z
_TEXT	SEGMENT
__Count$ = 8						; size = 4
?_Incsize@?$list@PAVioPlayEntity@@V?$allocator@PAVioPlayEntity@@@std@@@std@@QAEXI@Z PROC ; std::list<ioPlayEntity *,std::allocator<ioPlayEntity *> >::_Incsize, COMDAT
; _this$ = ecx

; 1519 : 		{	// alter element count, with checking

  00000	55		 push	 ebp
  00001	8b ec		 mov	 ebp, esp

; 1520 : 		if (max_size() - this->_Mysize - 1 < _Count)

  00003	8b 41 04	 mov	 eax, DWORD PTR [ecx+4]
  00006	8b 55 08	 mov	 edx, DWORD PTR __Count$[ebp]
  00009	56		 push	 esi
  0000a	be fe ff ff 3f	 mov	 esi, 1073741822		; 3ffffffeH
  0000f	2b f0		 sub	 esi, eax
  00011	3b f2		 cmp	 esi, edx
  00013	5e		 pop	 esi
  00014	73 0b		 jae	 SHORT $LN1@Incsize

; 1521 : 			_Xlength_error("list<T> too long");

  00016	68 00 00 00 00	 push	 OFFSET ??_C@_0BB@MOGOBHAF@list?$DMT?$DO?5too?5long?$AA@
  0001b	ff 15 00 00 00
	00		 call	 DWORD PTR __imp_?_Xlength_error@std@@YAXPBD@Z
$LN11@Incsize:
$LN1@Incsize:

; 1522 : 		this->_Mysize += _Count;

  00021	03 c2		 add	 eax, edx
  00023	89 41 04	 mov	 DWORD PTR [ecx+4], eax

; 1523 : 		}

  00026	5d		 pop	 ebp
  00027	c2 04 00	 ret	 4
$LN10@Incsize:
?_Incsize@?$list@PAVioPlayEntity@@V?$allocator@PAVioPlayEntity@@@std@@@std@@QAEXI@Z ENDP ; std::list<ioPlayEntity *,std::allocator<ioPlayEntity *> >::_Incsize
_TEXT	ENDS
PUBLIC	??$_Cons_val@V?$allocator@VioHashString@@@std@@VioHashString@@AAV3@@std@@YAXAAV?$allocator@VioHashString@@@0@PAVioHashString@@AAV2@@Z ; std::_Cons_val<std::allocator<ioHashString>,ioHashString,ioHashString &>
; Function compile flags: /Ogsp
; File c:\program files (x86)\microsoft visual studio 10.0\vc\include\xmemory
;	COMDAT ??$_Cons_val@V?$allocator@VioHashString@@@std@@VioHashString@@AAV3@@std@@YAXAAV?$allocator@VioHashString@@@0@PAVioHashString@@AAV2@@Z
_TEXT	SEGMENT
__Alval$ = 8						; size = 4
__Pdest$ = 12						; size = 4
__Src$ = 16						; size = 4
??$_Cons_val@V?$allocator@VioHashString@@@std@@VioHashString@@AAV3@@std@@YAXAAV?$allocator@VioHashString@@@0@PAVioHashString@@AAV2@@Z PROC ; std::_Cons_val<std::allocator<ioHashString>,ioHashString,ioHashString &>, COMDAT

; 279  : 	{	// construct using allocator

  00000	55		 push	 ebp
  00001	8b ec		 mov	 ebp, esp

; 280  : 	_Alval.construct(_Pdest, _STD forward<_Ty2>(_Src));

  00003	ff 75 10	 push	 DWORD PTR __Src$[ebp]
  00006	8b 4d 08	 mov	 ecx, DWORD PTR __Alval$[ebp]
  00009	ff 75 0c	 push	 DWORD PTR __Pdest$[ebp]
  0000c	e8 00 00 00 00	 call	 ??$construct@AAVioHashString@@@?$allocator@VioHashString@@@std@@QAEXPAVioHashString@@AAV2@@Z ; std::allocator<ioHashString>::construct<ioHashString &>

; 281  : 	}

  00011	5d		 pop	 ebp
  00012	c3		 ret	 0
??$_Cons_val@V?$allocator@VioHashString@@@std@@VioHashString@@AAV3@@std@@YAXAAV?$allocator@VioHashString@@@0@PAVioHashString@@AAV2@@Z ENDP ; std::_Cons_val<std::allocator<ioHashString>,ioHashString,ioHashString &>
_TEXT	ENDS
PUBLIC	??$_Cons_val@V?$allocator@UstWantCheckList@ioAreaEffectWeapon@@@std@@UstWantCheckList@ioAreaEffectWeapon@@AAU34@@std@@YAXAAV?$allocator@UstWantCheckList@ioAreaEffectWeapon@@@0@PAUstWantCheckList@ioAreaEffectWeapon@@AAU23@@Z ; std::_Cons_val<std::allocator<ioAreaEffectWeapon::stWantCheckList>,ioAreaEffectWeapon::stWantCheckList,ioAreaEffectWeapon::stWantCheckList &>
; Function compile flags: /Ogsp
;	COMDAT ??$_Cons_val@V?$allocator@UstWantCheckList@ioAreaEffectWeapon@@@std@@UstWantCheckList@ioAreaEffectWeapon@@AAU34@@std@@YAXAAV?$allocator@UstWantCheckList@ioAreaEffectWeapon@@@0@PAUstWantCheckList@ioAreaEffectWeapon@@AAU23@@Z
_TEXT	SEGMENT
__Alval$ = 8						; size = 4
__Pdest$ = 12						; size = 4
__Src$ = 16						; size = 4
??$_Cons_val@V?$allocator@UstWantCheckList@ioAreaEffectWeapon@@@std@@UstWantCheckList@ioAreaEffectWeapon@@AAU34@@std@@YAXAAV?$allocator@UstWantCheckList@ioAreaEffectWeapon@@@0@PAUstWantCheckList@ioAreaEffectWeapon@@AAU23@@Z PROC ; std::_Cons_val<std::allocator<ioAreaEffectWeapon::stWantCheckList>,ioAreaEffectWeapon::stWantCheckList,ioAreaEffectWeapon::stWantCheckList &>, COMDAT

; 279  : 	{	// construct using allocator

  00000	55		 push	 ebp
  00001	8b ec		 mov	 ebp, esp

; 280  : 	_Alval.construct(_Pdest, _STD forward<_Ty2>(_Src));

  00003	ff 75 10	 push	 DWORD PTR __Src$[ebp]
  00006	8b 4d 08	 mov	 ecx, DWORD PTR __Alval$[ebp]
  00009	ff 75 0c	 push	 DWORD PTR __Pdest$[ebp]
  0000c	e8 00 00 00 00	 call	 ??$construct@AAUstWantCheckList@ioAreaEffectWeapon@@@?$allocator@UstWantCheckList@ioAreaEffectWeapon@@@std@@QAEXPAUstWantCheckList@ioAreaEffectWeapon@@AAU23@@Z ; std::allocator<ioAreaEffectWeapon::stWantCheckList>::construct<ioAreaEffectWeapon::stWantCheckList &>

; 281  : 	}

  00011	5d		 pop	 ebp
  00012	c3		 ret	 0
??$_Cons_val@V?$allocator@UstWantCheckList@ioAreaEffectWeapon@@@std@@UstWantCheckList@ioAreaEffectWeapon@@AAU34@@std@@YAXAAV?$allocator@UstWantCheckList@ioAreaEffectWeapon@@@0@PAUstWantCheckList@ioAreaEffectWeapon@@AAU23@@Z ENDP ; std::_Cons_val<std::allocator<ioAreaEffectWeapon::stWantCheckList>,ioAreaEffectWeapon::stWantCheckList,ioAreaEffectWeapon::stWantCheckList &>
_TEXT	ENDS
PUBLIC	??$_Dest_val@V?$allocator@U_Node@?$_List_nod@PAVioPlayEntity@@V?$allocator@PAVioPlayEntity@@@std@@@std@@@std@@U_Node@?$_List_nod@PAVioPlayEntity@@V?$allocator@PAVioPlayEntity@@@std@@@2@@std@@YAXAAV?$allocator@U_Node@?$_List_nod@PAVioPlayEntity@@V?$allocator@PAVioPlayEntity@@@std@@@std@@@0@PAU_Node@?$_List_nod@PAVioPlayEntity@@V?$allocator@PAVioPlayEntity@@@std@@@0@@Z ; std::_Dest_val<std::allocator<std::_List_nod<ioPlayEntity *,std::allocator<ioPlayEntity *> >::_Node>,std::_List_nod<ioPlayEntity *,std::allocator<ioPlayEntity *> >::_Node>
; Function compile flags: /Ogsp
;	COMDAT ??$_Dest_val@V?$allocator@U_Node@?$_List_nod@PAVioPlayEntity@@V?$allocator@PAVioPlayEntity@@@std@@@std@@@std@@U_Node@?$_List_nod@PAVioPlayEntity@@V?$allocator@PAVioPlayEntity@@@std@@@2@@std@@YAXAAV?$allocator@U_Node@?$_List_nod@PAVioPlayEntity@@V?$allocator@PAVioPlayEntity@@@std@@@std@@@0@PAU_Node@?$_List_nod@PAVioPlayEntity@@V?$allocator@PAVioPlayEntity@@@std@@@0@@Z
_TEXT	SEGMENT
__Alval$ = 8						; size = 4
__Pdest$ = 12						; size = 4
??$_Dest_val@V?$allocator@U_Node@?$_List_nod@PAVioPlayEntity@@V?$allocator@PAVioPlayEntity@@@std@@@std@@@std@@U_Node@?$_List_nod@PAVioPlayEntity@@V?$allocator@PAVioPlayEntity@@@std@@@2@@std@@YAXAAV?$allocator@U_Node@?$_List_nod@PAVioPlayEntity@@V?$allocator@PAVioPlayEntity@@@std@@@std@@@0@PAU_Node@?$_List_nod@PAVioPlayEntity@@V?$allocator@PAVioPlayEntity@@@std@@@0@@Z PROC ; std::_Dest_val<std::allocator<std::_List_nod<ioPlayEntity *,std::allocator<ioPlayEntity *> >::_Node>,std::_List_nod<ioPlayEntity *,std::allocator<ioPlayEntity *> >::_Node>, COMDAT

; 287  : 	_Alval.destroy(_Pdest);
; 288  : 	}

  00000	c3		 ret	 0
??$_Dest_val@V?$allocator@U_Node@?$_List_nod@PAVioPlayEntity@@V?$allocator@PAVioPlayEntity@@@std@@@std@@@std@@U_Node@?$_List_nod@PAVioPlayEntity@@V?$allocator@PAVioPlayEntity@@@std@@@2@@std@@YAXAAV?$allocator@U_Node@?$_List_nod@PAVioPlayEntity@@V?$allocator@PAVioPlayEntity@@@std@@@std@@@0@PAU_Node@?$_List_nod@PAVioPlayEntity@@V?$allocator@PAVioPlayEntity@@@std@@@0@@Z ENDP ; std::_Dest_val<std::allocator<std::_List_nod<ioPlayEntity *,std::allocator<ioPlayEntity *> >::_Node>,std::_List_nod<ioPlayEntity *,std::allocator<ioPlayEntity *> >::_Node>
_TEXT	ENDS
PUBLIC	??$_Cons_val@V?$allocator@PAVioPlayEntity@@@std@@PAVioPlayEntity@@ABQAV3@@std@@YAXAAV?$allocator@PAVioPlayEntity@@@0@PAPAVioPlayEntity@@ABQAV2@@Z ; std::_Cons_val<std::allocator<ioPlayEntity *>,ioPlayEntity *,ioPlayEntity * const &>
; Function compile flags: /Ogsp
;	COMDAT ??$_Cons_val@V?$allocator@PAVioPlayEntity@@@std@@PAVioPlayEntity@@ABQAV3@@std@@YAXAAV?$allocator@PAVioPlayEntity@@@0@PAPAVioPlayEntity@@ABQAV2@@Z
_TEXT	SEGMENT
__Alval$ = 8						; size = 4
__Pdest$ = 12						; size = 4
__Src$ = 16						; size = 4
??$_Cons_val@V?$allocator@PAVioPlayEntity@@@std@@PAVioPlayEntity@@ABQAV3@@std@@YAXAAV?$allocator@PAVioPlayEntity@@@0@PAPAVioPlayEntity@@ABQAV2@@Z PROC ; std::_Cons_val<std::allocator<ioPlayEntity *>,ioPlayEntity *,ioPlayEntity * const &>, COMDAT

; 279  : 	{	// construct using allocator

  00000	55		 push	 ebp
  00001	8b ec		 mov	 ebp, esp

; 280  : 	_Alval.construct(_Pdest, _STD forward<_Ty2>(_Src));

  00003	8b 45 0c	 mov	 eax, DWORD PTR __Pdest$[ebp]
  00006	85 c0		 test	 eax, eax
  00008	74 07		 je	 SHORT $LN9@Cons_val
  0000a	8b 4d 10	 mov	 ecx, DWORD PTR __Src$[ebp]
  0000d	8b 09		 mov	 ecx, DWORD PTR [ecx]
  0000f	89 08		 mov	 DWORD PTR [eax], ecx
$LN9@Cons_val:

; 281  : 	}

  00011	5d		 pop	 ebp
  00012	c3		 ret	 0
??$_Cons_val@V?$allocator@PAVioPlayEntity@@@std@@PAVioPlayEntity@@ABQAV3@@std@@YAXAAV?$allocator@PAVioPlayEntity@@@0@PAPAVioPlayEntity@@ABQAV2@@Z ENDP ; std::_Cons_val<std::allocator<ioPlayEntity *>,ioPlayEntity *,ioPlayEntity * const &>
_TEXT	ENDS
PUBLIC	?construct@?$allocator@UstWantCheckList@ioAreaEffectWeapon@@@std@@QAEXPAUstWantCheckList@ioAreaEffectWeapon@@ABU34@@Z ; std::allocator<ioAreaEffectWeapon::stWantCheckList>::construct
; Function compile flags: /Ogsp
;	COMDAT ?construct@?$allocator@UstWantCheckList@ioAreaEffectWeapon@@@std@@QAEXPAUstWantCheckList@ioAreaEffectWeapon@@ABU34@@Z
_TEXT	SEGMENT
__Ptr$ = 8						; size = 4
__Val$ = 12						; size = 4
?construct@?$allocator@UstWantCheckList@ioAreaEffectWeapon@@@std@@QAEXPAUstWantCheckList@ioAreaEffectWeapon@@ABU34@@Z PROC ; std::allocator<ioAreaEffectWeapon::stWantCheckList>::construct, COMDAT
; _this$ = ecx

; 196  : 		{	// construct object at _Ptr with value _Val

  00000	55		 push	 ebp
  00001	8b ec		 mov	 ebp, esp

; 197  : 		_Construct(_Ptr, _Val);

  00003	ff 75 0c	 push	 DWORD PTR __Val$[ebp]
  00006	ff 75 08	 push	 DWORD PTR __Ptr$[ebp]
  00009	e8 00 00 00 00	 call	 ??$_Construct@UstWantCheckList@ioAreaEffectWeapon@@ABU12@@std@@YAXPAUstWantCheckList@ioAreaEffectWeapon@@ABU12@@Z ; std::_Construct<ioAreaEffectWeapon::stWantCheckList,ioAreaEffectWeapon::stWantCheckList const &>
  0000e	59		 pop	 ecx
  0000f	59		 pop	 ecx

; 198  : 		}

  00010	5d		 pop	 ebp
  00011	c2 08 00	 ret	 8
?construct@?$allocator@UstWantCheckList@ioAreaEffectWeapon@@@std@@QAEXPAUstWantCheckList@ioAreaEffectWeapon@@ABU34@@Z ENDP ; std::allocator<ioAreaEffectWeapon::stWantCheckList>::construct
_TEXT	ENDS
PUBLIC	?destroy@?$allocator@UstWantCheckList@ioAreaEffectWeapon@@@std@@QAEXPAUstWantCheckList@ioAreaEffectWeapon@@@Z ; std::allocator<ioAreaEffectWeapon::stWantCheckList>::destroy
; Function compile flags: /Ogsp
;	COMDAT ?destroy@?$allocator@UstWantCheckList@ioAreaEffectWeapon@@@std@@QAEXPAUstWantCheckList@ioAreaEffectWeapon@@@Z
_TEXT	SEGMENT
__Ptr$ = 8						; size = 4
?destroy@?$allocator@UstWantCheckList@ioAreaEffectWeapon@@@std@@QAEXPAUstWantCheckList@ioAreaEffectWeapon@@@Z PROC ; std::allocator<ioAreaEffectWeapon::stWantCheckList>::destroy, COMDAT
; _this$ = ecx

; 212  : 		{	// destroy object at _Ptr

  00000	55		 push	 ebp
  00001	8b ec		 mov	 ebp, esp

; 213  : 		_Destroy(_Ptr);

  00003	8b 4d 08	 mov	 ecx, DWORD PTR __Ptr$[ebp]
  00006	ff 15 00 00 00
	00		 call	 DWORD PTR __imp_??1ioHashString@@QAE@XZ

; 214  : 		}

  0000c	5d		 pop	 ebp
  0000d	c2 04 00	 ret	 4
?destroy@?$allocator@UstWantCheckList@ioAreaEffectWeapon@@@std@@QAEXPAUstWantCheckList@ioAreaEffectWeapon@@@Z ENDP ; std::allocator<ioAreaEffectWeapon::stWantCheckList>::destroy
_TEXT	ENDS
PUBLIC	??$_Cons_val@V?$allocator@VioHashString@@@std@@VioHashString@@V3@@std@@YAXAAV?$allocator@VioHashString@@@0@PAVioHashString@@$$QAV2@@Z ; std::_Cons_val<std::allocator<ioHashString>,ioHashString,ioHashString>
; Function compile flags: /Ogsp
;	COMDAT ??$_Cons_val@V?$allocator@VioHashString@@@std@@VioHashString@@V3@@std@@YAXAAV?$allocator@VioHashString@@@0@PAVioHashString@@$$QAV2@@Z
_TEXT	SEGMENT
__Alval$ = 8						; size = 4
__Pdest$ = 12						; size = 4
__Src$ = 16						; size = 4
??$_Cons_val@V?$allocator@VioHashString@@@std@@VioHashString@@V3@@std@@YAXAAV?$allocator@VioHashString@@@0@PAVioHashString@@$$QAV2@@Z PROC ; std::_Cons_val<std::allocator<ioHashString>,ioHashString,ioHashString>, COMDAT

; 279  : 	{	// construct using allocator

  00000	55		 push	 ebp
  00001	8b ec		 mov	 ebp, esp

; 280  : 	_Alval.construct(_Pdest, _STD forward<_Ty2>(_Src));

  00003	ff 75 10	 push	 DWORD PTR __Src$[ebp]
  00006	8b 4d 08	 mov	 ecx, DWORD PTR __Alval$[ebp]
  00009	ff 75 0c	 push	 DWORD PTR __Pdest$[ebp]
  0000c	e8 00 00 00 00	 call	 ?construct@?$allocator@VioHashString@@@std@@QAEXPAVioHashString@@$$QAV3@@Z ; std::allocator<ioHashString>::construct

; 281  : 	}

  00011	5d		 pop	 ebp
  00012	c3		 ret	 0
??$_Cons_val@V?$allocator@VioHashString@@@std@@VioHashString@@V3@@std@@YAXAAV?$allocator@VioHashString@@@0@PAVioHashString@@$$QAV2@@Z ENDP ; std::_Cons_val<std::allocator<ioHashString>,ioHashString,ioHashString>
_TEXT	ENDS
PUBLIC	??$_Cons_val@V?$allocator@UstWantCheckList@ioAreaEffectWeapon@@@std@@UstWantCheckList@ioAreaEffectWeapon@@U34@@std@@YAXAAV?$allocator@UstWantCheckList@ioAreaEffectWeapon@@@0@PAUstWantCheckList@ioAreaEffectWeapon@@$$QAU23@@Z ; std::_Cons_val<std::allocator<ioAreaEffectWeapon::stWantCheckList>,ioAreaEffectWeapon::stWantCheckList,ioAreaEffectWeapon::stWantCheckList>
; Function compile flags: /Ogsp
;	COMDAT ??$_Cons_val@V?$allocator@UstWantCheckList@ioAreaEffectWeapon@@@std@@UstWantCheckList@ioAreaEffectWeapon@@U34@@std@@YAXAAV?$allocator@UstWantCheckList@ioAreaEffectWeapon@@@0@PAUstWantCheckList@ioAreaEffectWeapon@@$$QAU23@@Z
_TEXT	SEGMENT
__Alval$ = 8						; size = 4
__Pdest$ = 12						; size = 4
__Src$ = 16						; size = 4
??$_Cons_val@V?$allocator@UstWantCheckList@ioAreaEffectWeapon@@@std@@UstWantCheckList@ioAreaEffectWeapon@@U34@@std@@YAXAAV?$allocator@UstWantCheckList@ioAreaEffectWeapon@@@0@PAUstWantCheckList@ioAreaEffectWeapon@@$$QAU23@@Z PROC ; std::_Cons_val<std::allocator<ioAreaEffectWeapon::stWantCheckList>,ioAreaEffectWeapon::stWantCheckList,ioAreaEffectWeapon::stWantCheckList>, COMDAT

; 279  : 	{	// construct using allocator

  00000	55		 push	 ebp
  00001	8b ec		 mov	 ebp, esp

; 280  : 	_Alval.construct(_Pdest, _STD forward<_Ty2>(_Src));

  00003	ff 75 10	 push	 DWORD PTR __Src$[ebp]
  00006	8b 4d 08	 mov	 ecx, DWORD PTR __Alval$[ebp]
  00009	ff 75 0c	 push	 DWORD PTR __Pdest$[ebp]
  0000c	e8 00 00 00 00	 call	 ?construct@?$allocator@UstWantCheckList@ioAreaEffectWeapon@@@std@@QAEXPAUstWantCheckList@ioAreaEffectWeapon@@$$QAU34@@Z ; std::allocator<ioAreaEffectWeapon::stWantCheckList>::construct

; 281  : 	}

  00011	5d		 pop	 ebp
  00012	c3		 ret	 0
??$_Cons_val@V?$allocator@UstWantCheckList@ioAreaEffectWeapon@@@std@@UstWantCheckList@ioAreaEffectWeapon@@U34@@std@@YAXAAV?$allocator@UstWantCheckList@ioAreaEffectWeapon@@@0@PAUstWantCheckList@ioAreaEffectWeapon@@$$QAU23@@Z ENDP ; std::_Cons_val<std::allocator<ioAreaEffectWeapon::stWantCheckList>,ioAreaEffectWeapon::stWantCheckList,ioAreaEffectWeapon::stWantCheckList>
_TEXT	ENDS
PUBLIC	??0?$vector@VioHashString@@V?$allocator@VioHashString@@@std@@@std@@QAE@XZ ; std::vector<ioHashString,std::allocator<ioHashString> >::vector<ioHashString,std::allocator<ioHashString> >
; Function compile flags: /Ogsp
; File c:\program files (x86)\microsoft visual studio 10.0\vc\include\vector
;	COMDAT ??0?$vector@VioHashString@@V?$allocator@VioHashString@@@std@@@std@@QAE@XZ
_TEXT	SEGMENT
??0?$vector@VioHashString@@V?$allocator@VioHashString@@@std@@@std@@QAE@XZ PROC ; std::vector<ioHashString,std::allocator<ioHashString> >::vector<ioHashString,std::allocator<ioHashString> >, COMDAT
; _this$ = ecx

; 507  : 		{	// construct empty vector

  00000	8b c1		 mov	 eax, ecx
  00002	33 c9		 xor	 ecx, ecx
  00004	89 08		 mov	 DWORD PTR [eax], ecx
  00006	89 48 04	 mov	 DWORD PTR [eax+4], ecx
  00009	89 48 08	 mov	 DWORD PTR [eax+8], ecx

; 508  : 		}

  0000c	c3		 ret	 0
??0?$vector@VioHashString@@V?$allocator@VioHashString@@@std@@@std@@QAE@XZ ENDP ; std::vector<ioHashString,std::allocator<ioHashString> >::vector<ioHashString,std::allocator<ioHashString> >
_TEXT	ENDS
PUBLIC	??0?$CEncrypt@M@@QAE@ABM@Z			; CEncrypt<float>::CEncrypt<float>
;	COMDAT xdata$x
; File d:\lost saga for developer\youtube\tutorial\source\src\lsclient\encryptvalue.h
xdata$x	SEGMENT
__unwindtable$??0?$CEncrypt@M@@QAE@ABM@Z DD 0ffffffffH
	DD	FLAT:__unwindfunclet$??0?$CEncrypt@M@@QAE@ABM@Z$0
__ehfuncinfo$??0?$CEncrypt@M@@QAE@ABM@Z DD 019930522H
	DD	01H
	DD	FLAT:__unwindtable$??0?$CEncrypt@M@@QAE@ABM@Z
	DD	2 DUP(00H)
	DD	2 DUP(00H)
	DD	00H
	DD	01H
; Function compile flags: /Ogsp
xdata$x	ENDS
;	COMDAT ??0?$CEncrypt@M@@QAE@ABM@Z
_TEXT	SEGMENT
_this$ = -16						; size = 4
__$EHRec$ = -12						; size = 12
_value$535040 = 8					; size = 4
_inValue$ = 8						; size = 4
??0?$CEncrypt@M@@QAE@ABM@Z PROC				; CEncrypt<float>::CEncrypt<float>, COMDAT
; _this$ = ecx

; 114  : 	CEncrypt( const type &inValue )        //     

  00000	6a 04		 push	 4
  00002	b8 00 00 00 00	 mov	 eax, __ehhandler$??0?$CEncrypt@M@@QAE@ABM@Z
  00007	e8 00 00 00 00	 call	 __EH_prolog3
  0000c	8b f1		 mov	 esi, ecx
  0000e	89 75 f0	 mov	 DWORD PTR _this$[ebp], esi
  00011	8d 4e 0c	 lea	 ecx, DWORD PTR [esi+12]
  00014	c7 06 00 00 00
	00		 mov	 DWORD PTR [esi], OFFSET ??_7?$CEncrypt@M@@6B@
  0001a	e8 00 00 00 00	 call	 ??0ccddaabb@@QAE@XZ	; ccddaabb::ccddaabb
  0001f	83 65 fc 00	 and	 DWORD PTR __$EHRec$[ebp+8], 0

; 115  : 	{
; 116  : 		Init();

  00023	8b ce		 mov	 ecx, esi
  00025	e8 00 00 00 00	 call	 ?Init@?$CEncrypt@M@@AAEXXZ ; CEncrypt<float>::Init

; 117  : 		*this = inValue;

  0002a	8b 45 08	 mov	 eax, DWORD PTR _inValue$[ebp]
  0002d	f3 0f 10 00	 movss	 xmm0, DWORD PTR [eax]
  00031	8d 45 08	 lea	 eax, DWORD PTR _value$535040[ebp]
  00034	50		 push	 eax
  00035	8b ce		 mov	 ecx, esi
  00037	f3 0f 11 45 08	 movss	 DWORD PTR _value$535040[ebp], xmm0
  0003c	e8 00 00 00 00	 call	 ?EncryptValueToPool@?$CEncrypt@M@@AAEXPBD@Z ; CEncrypt<float>::EncryptValueToPool

; 118  : 	}

  00041	8b c6		 mov	 eax, esi
  00043	e8 00 00 00 00	 call	 __EH_epilog3
  00048	c2 04 00	 ret	 4
_TEXT	ENDS
;	COMDAT text$x
text$x	SEGMENT
__unwindfunclet$??0?$CEncrypt@M@@QAE@ABM@Z$0:
  00000	8b 4d f0	 mov	 ecx, DWORD PTR _this$[ebp]
  00003	83 c1 0c	 add	 ecx, 12			; 0000000cH
  00006	e9 00 00 00 00	 jmp	 ??1ccddaabb@@UAE@XZ	; ccddaabb::~ccddaabb
__ehhandler$??0?$CEncrypt@M@@QAE@ABM@Z:
  0000b	8b 54 24 08	 mov	 edx, DWORD PTR [esp+8]
  0000f	8d 42 0c	 lea	 eax, DWORD PTR [edx+12]
  00012	8b 4a ec	 mov	 ecx, DWORD PTR [edx-20]
  00015	33 c8		 xor	 ecx, eax
  00017	e8 00 00 00 00	 call	 @__security_check_cookie@4
  0001c	b8 00 00 00 00	 mov	 eax, OFFSET __ehfuncinfo$??0?$CEncrypt@M@@QAE@ABM@Z
  00021	e9 00 00 00 00	 jmp	 ___CxxFrameHandler3
text$x	ENDS
??0?$CEncrypt@M@@QAE@ABM@Z ENDP				; CEncrypt<float>::CEncrypt<float>
PUBLIC	??0?$CEncrypt@M@@QAE@ABV0@@Z			; CEncrypt<float>::CEncrypt<float>
;	COMDAT xdata$x
xdata$x	SEGMENT
__unwindtable$??0?$CEncrypt@M@@QAE@ABV0@@Z DD 0ffffffffH
	DD	FLAT:__unwindfunclet$??0?$CEncrypt@M@@QAE@ABV0@@Z$0
__ehfuncinfo$??0?$CEncrypt@M@@QAE@ABV0@@Z DD 019930522H
	DD	01H
	DD	FLAT:__unwindtable$??0?$CEncrypt@M@@QAE@ABV0@@Z
	DD	2 DUP(00H)
	DD	2 DUP(00H)
	DD	00H
	DD	01H
; Function compile flags: /Ogsp
xdata$x	ENDS
;	COMDAT ??0?$CEncrypt@M@@QAE@ABV0@@Z
_TEXT	SEGMENT
_this$ = -16						; size = 4
__$EHRec$ = -12						; size = 12
_value$535059 = 8					; size = 4
_value$535054 = 8					; size = 4
_inValue$ = 8						; size = 4
??0?$CEncrypt@M@@QAE@ABV0@@Z PROC			; CEncrypt<float>::CEncrypt<float>, COMDAT
; _this$ = ecx

; 120  : 	CEncrypt( const CEncrypt<type> &inValue )   //     

  00000	6a 04		 push	 4
  00002	b8 00 00 00 00	 mov	 eax, __ehhandler$??0?$CEncrypt@M@@QAE@ABV0@@Z
  00007	e8 00 00 00 00	 call	 __EH_prolog3
  0000c	8b f1		 mov	 esi, ecx
  0000e	89 75 f0	 mov	 DWORD PTR _this$[ebp], esi
  00011	8d 4e 0c	 lea	 ecx, DWORD PTR [esi+12]
  00014	c7 06 00 00 00
	00		 mov	 DWORD PTR [esi], OFFSET ??_7?$CEncrypt@M@@6B@
  0001a	e8 00 00 00 00	 call	 ??0ccddaabb@@QAE@XZ	; ccddaabb::ccddaabb
  0001f	83 65 fc 00	 and	 DWORD PTR __$EHRec$[ebp+8], 0

; 121  : 	{
; 122  : 		Init();

  00023	8b ce		 mov	 ecx, esi
  00025	e8 00 00 00 00	 call	 ?Init@?$CEncrypt@M@@AAEXXZ ; CEncrypt<float>::Init

; 123  : 		*this = inValue;

  0002a	8b 4d 08	 mov	 ecx, DWORD PTR _inValue$[ebp]
  0002d	8d 45 08	 lea	 eax, DWORD PTR _value$535054[ebp]
  00030	50		 push	 eax
  00031	e8 00 00 00 00	 call	 ?DecryptValueToPool@?$CEncrypt@M@@QAEXPAM@Z ; CEncrypt<float>::DecryptValueToPool
  00036	f3 0f 10 45 08	 movss	 xmm0, DWORD PTR _value$535054[ebp]
  0003b	8d 45 08	 lea	 eax, DWORD PTR _value$535059[ebp]
  0003e	50		 push	 eax
  0003f	8b ce		 mov	 ecx, esi
  00041	f3 0f 11 45 08	 movss	 DWORD PTR _value$535059[ebp], xmm0
  00046	e8 00 00 00 00	 call	 ?EncryptValueToPool@?$CEncrypt@M@@AAEXPBD@Z ; CEncrypt<float>::EncryptValueToPool

; 124  : 	}

  0004b	8b c6		 mov	 eax, esi
  0004d	e8 00 00 00 00	 call	 __EH_epilog3
  00052	c2 04 00	 ret	 4
_TEXT	ENDS
;	COMDAT text$x
text$x	SEGMENT
__unwindfunclet$??0?$CEncrypt@M@@QAE@ABV0@@Z$0:
  00000	8b 4d f0	 mov	 ecx, DWORD PTR _this$[ebp]
  00003	83 c1 0c	 add	 ecx, 12			; 0000000cH
  00006	e9 00 00 00 00	 jmp	 ??1ccddaabb@@UAE@XZ	; ccddaabb::~ccddaabb
__ehhandler$??0?$CEncrypt@M@@QAE@ABV0@@Z:
  0000b	8b 54 24 08	 mov	 edx, DWORD PTR [esp+8]
  0000f	8d 42 0c	 lea	 eax, DWORD PTR [edx+12]
  00012	8b 4a ec	 mov	 ecx, DWORD PTR [edx-20]
  00015	33 c8		 xor	 ecx, eax
  00017	e8 00 00 00 00	 call	 @__security_check_cookie@4
  0001c	b8 00 00 00 00	 mov	 eax, OFFSET __ehfuncinfo$??0?$CEncrypt@M@@QAE@ABV0@@Z
  00021	e9 00 00 00 00	 jmp	 ___CxxFrameHandler3
text$x	ENDS
??0?$CEncrypt@M@@QAE@ABV0@@Z ENDP			; CEncrypt<float>::CEncrypt<float>
PUBLIC	??9?$_Vector_const_iterator@V?$_Vector_val@VioHashString@@V?$allocator@VioHashString@@@std@@@std@@@std@@QBE_NABV01@@Z ; std::_Vector_const_iterator<std::_Vector_val<ioHashString,std::allocator<ioHashString> > >::operator!=
; Function compile flags: /Ogsp
; File c:\program files (x86)\microsoft visual studio 10.0\vc\include\vector
;	COMDAT ??9?$_Vector_const_iterator@V?$_Vector_val@VioHashString@@V?$allocator@VioHashString@@@std@@@std@@@std@@QBE_NABV01@@Z
_TEXT	SEGMENT
__Right$ = 8						; size = 4
??9?$_Vector_const_iterator@V?$_Vector_val@VioHashString@@V?$allocator@VioHashString@@@std@@@std@@@std@@QBE_NABV01@@Z PROC ; std::_Vector_const_iterator<std::_Vector_val<ioHashString,std::allocator<ioHashString> > >::operator!=, COMDAT
; _this$ = ecx

; 207  : 		{	// test for iterator inequality

  00000	55		 push	 ebp
  00001	8b ec		 mov	 ebp, esp

; 208  : 		return (!(*this == _Right));

  00003	8b 01		 mov	 eax, DWORD PTR [ecx]
  00005	8b 55 08	 mov	 edx, DWORD PTR __Right$[ebp]
  00008	33 c9		 xor	 ecx, ecx
  0000a	3b 02		 cmp	 eax, DWORD PTR [edx]
  0000c	0f 95 c0	 setne	 al

; 209  : 		}

  0000f	5d		 pop	 ebp
  00010	c2 04 00	 ret	 4
??9?$_Vector_const_iterator@V?$_Vector_val@VioHashString@@V?$allocator@VioHashString@@@std@@@std@@@std@@QBE_NABV01@@Z ENDP ; std::_Vector_const_iterator<std::_Vector_val<ioHashString,std::allocator<ioHashString> > >::operator!=
_TEXT	ENDS
PUBLIC	??$_Move@PAVioHashString@@PAV1@@std@@YAPAVioHashString@@PAV1@00@Z ; std::_Move<ioHashString *,ioHashString *>
; Function compile flags: /Ogsp
; File c:\program files (x86)\microsoft visual studio 10.0\vc\include\xutility
;	COMDAT ??$_Move@PAVioHashString@@PAV1@@std@@YAPAVioHashString@@PAV1@00@Z
_TEXT	SEGMENT
__Cat$535082 = -4					; size = 1
__First$ = 8						; size = 4
__Last$ = 12						; size = 4
__Dest$ = 16						; size = 4
??$_Move@PAVioHashString@@PAV1@@std@@YAPAVioHashString@@PAV1@00@Z PROC ; std::_Move<ioHashString *,ioHashString *>, COMDAT

; 2533 : 	{	// move [_First, _Last) to [_Dest, ...), unchecked

  00000	55		 push	 ebp
  00001	8b ec		 mov	 ebp, esp
  00003	51		 push	 ecx

; 2534 : 	return (_Move(_First, _Last,
; 2535 : 		_Dest, _Ptr_cat(_First, _Dest)));

  00004	ff 75 fc	 push	 DWORD PTR __Cat$535082[ebp]
  00007	ff 75 10	 push	 DWORD PTR __Dest$[ebp]
  0000a	ff 75 0c	 push	 DWORD PTR __Last$[ebp]
  0000d	ff 75 08	 push	 DWORD PTR __First$[ebp]
  00010	e8 00 00 00 00	 call	 ??$_Move@PAVioHashString@@PAV1@@std@@YAPAVioHashString@@PAV1@00U_Nonscalar_ptr_iterator_tag@0@@Z ; std::_Move<ioHashString *,ioHashString *>
  00015	83 c4 10	 add	 esp, 16			; 00000010H

; 2536 : 	}

  00018	c9		 leave
  00019	c3		 ret	 0
??$_Move@PAVioHashString@@PAV1@@std@@YAPAVioHashString@@PAV1@00@Z ENDP ; std::_Move<ioHashString *,ioHashString *>
_TEXT	ENDS
PUBLIC	?destroy@?$allocator@VioHashString@@@std@@QAEXPAVioHashString@@@Z ; std::allocator<ioHashString>::destroy
; Function compile flags: /Ogsp
; File c:\program files (x86)\microsoft visual studio 10.0\vc\include\xmemory
;	COMDAT ?destroy@?$allocator@VioHashString@@@std@@QAEXPAVioHashString@@@Z
_TEXT	SEGMENT
__Ptr$ = 8						; size = 4
?destroy@?$allocator@VioHashString@@@std@@QAEXPAVioHashString@@@Z PROC ; std::allocator<ioHashString>::destroy, COMDAT
; _this$ = ecx

; 212  : 		{	// destroy object at _Ptr

  00000	55		 push	 ebp
  00001	8b ec		 mov	 ebp, esp

; 213  : 		_Destroy(_Ptr);

  00003	8b 4d 08	 mov	 ecx, DWORD PTR __Ptr$[ebp]
  00006	ff 15 00 00 00
	00		 call	 DWORD PTR __imp_??1ioHashString@@QAE@XZ

; 214  : 		}

  0000c	5d		 pop	 ebp
  0000d	c2 04 00	 ret	 4
?destroy@?$allocator@VioHashString@@@std@@QAEXPAVioHashString@@@Z ENDP ; std::allocator<ioHashString>::destroy
_TEXT	ENDS
PUBLIC	??$_Cons_val@V?$allocator@VioHashString@@@std@@VioHashString@@ABV3@@std@@YAXAAV?$allocator@VioHashString@@@0@PAVioHashString@@ABV2@@Z ; std::_Cons_val<std::allocator<ioHashString>,ioHashString,ioHashString const &>
; Function compile flags: /Ogsp
;	COMDAT ??$_Cons_val@V?$allocator@VioHashString@@@std@@VioHashString@@ABV3@@std@@YAXAAV?$allocator@VioHashString@@@0@PAVioHashString@@ABV2@@Z
_TEXT	SEGMENT
__Alval$ = 8						; size = 4
__Pdest$ = 12						; size = 4
__Src$ = 16						; size = 4
??$_Cons_val@V?$allocator@VioHashString@@@std@@VioHashString@@ABV3@@std@@YAXAAV?$allocator@VioHashString@@@0@PAVioHashString@@ABV2@@Z PROC ; std::_Cons_val<std::allocator<ioHashString>,ioHashString,ioHashString const &>, COMDAT

; 279  : 	{	// construct using allocator

  00000	55		 push	 ebp
  00001	8b ec		 mov	 ebp, esp

; 280  : 	_Alval.construct(_Pdest, _STD forward<_Ty2>(_Src));

  00003	ff 75 10	 push	 DWORD PTR __Src$[ebp]
  00006	ff 75 0c	 push	 DWORD PTR __Pdest$[ebp]
  00009	e8 00 00 00 00	 call	 ??$_Construct@VioHashString@@ABV1@@std@@YAXPAVioHashString@@ABV1@@Z ; std::_Construct<ioHashString,ioHashString const &>
  0000e	59		 pop	 ecx
  0000f	59		 pop	 ecx

; 281  : 	}

  00010	5d		 pop	 ebp
  00011	c3		 ret	 0
??$_Cons_val@V?$allocator@VioHashString@@@std@@VioHashString@@ABV3@@std@@YAXAAV?$allocator@VioHashString@@@0@PAVioHashString@@ABV2@@Z ENDP ; std::_Cons_val<std::allocator<ioHashString>,ioHashString,ioHashString const &>
_TEXT	ENDS
PUBLIC	?IsAlreadyBlocked@ioAreaEffectWeapon@@QBE_NPAVioPlayEntity@@@Z ; ioAreaEffectWeapon::IsAlreadyBlocked
; Function compile flags: /Ogsp
; File d:\lost saga for developer\youtube\tutorial\source\src\lsclient\ioareaeffectweapon.cpp
;	COMDAT ?IsAlreadyBlocked@ioAreaEffectWeapon@@QBE_NPAVioPlayEntity@@@Z
_TEXT	SEGMENT
_pEntity$ = 8						; size = 4
?IsAlreadyBlocked@ioAreaEffectWeapon@@QBE_NPAVioPlayEntity@@@Z PROC ; ioAreaEffectWeapon::IsAlreadyBlocked, COMDAT
; _this$ = ecx

; 369  : {

  00000	55		 push	 ebp
  00001	8b ec		 mov	 ebp, esp

; 370  : 	BlockEntityList::const_iterator iter;
; 371  : 	for( iter=m_vBlockEntityList.begin() ; iter!=m_vBlockEntityList.end() ; ++iter )

  00003	8b 89 2c 0a 00
	00		 mov	 ecx, DWORD PTR [ecx+2604]
  00009	8b 01		 mov	 eax, DWORD PTR [ecx]
  0000b	eb 0a		 jmp	 SHORT $LN44@IsAlreadyB
$LL21@IsAlreadyB:

; 372  : 	{
; 373  : 		if( *iter == pEntity )

  0000d	8b 50 08	 mov	 edx, DWORD PTR [eax+8]
  00010	3b 55 08	 cmp	 edx, DWORD PTR _pEntity$[ebp]
  00013	74 0c		 je	 SHORT $LN42@IsAlreadyB

; 370  : 	BlockEntityList::const_iterator iter;
; 371  : 	for( iter=m_vBlockEntityList.begin() ; iter!=m_vBlockEntityList.end() ; ++iter )

  00015	8b 00		 mov	 eax, DWORD PTR [eax]
$LN44@IsAlreadyB:
  00017	3b c1		 cmp	 eax, ecx
  00019	75 f2		 jne	 SHORT $LL21@IsAlreadyB

; 375  : 	}
; 376  : 	return false;

  0001b	32 c0		 xor	 al, al
$LN5@IsAlreadyB:

; 377  : }

  0001d	5d		 pop	 ebp
  0001e	c2 04 00	 ret	 4
$LN42@IsAlreadyB:

; 374  : 			return true;

  00021	b0 01		 mov	 al, 1
  00023	eb f8		 jmp	 SHORT $LN5@IsAlreadyB
?IsAlreadyBlocked@ioAreaEffectWeapon@@QBE_NPAVioPlayEntity@@@Z ENDP ; ioAreaEffectWeapon::IsAlreadyBlocked
_TEXT	ENDS
PUBLIC	??0?$list@PAVioPlayEntity@@V?$allocator@PAVioPlayEntity@@@std@@@std@@QAE@XZ ; std::list<ioPlayEntity *,std::allocator<ioPlayEntity *> >::list<ioPlayEntity *,std::allocator<ioPlayEntity *> >
; Function compile flags: /Ogsp
; File c:\program files (x86)\microsoft visual studio 10.0\vc\include\list
;	COMDAT ??0?$list@PAVioPlayEntity@@V?$allocator@PAVioPlayEntity@@@std@@@std@@QAE@XZ
_TEXT	SEGMENT
$T535207 = -4						; size = 4
$T535202 = -4						; size = 4
??0?$list@PAVioPlayEntity@@V?$allocator@PAVioPlayEntity@@@std@@@std@@QAE@XZ PROC ; std::list<ioPlayEntity *,std::allocator<ioPlayEntity *> >::list<ioPlayEntity *,std::allocator<ioPlayEntity *> >, COMDAT
; _this$ = ecx

; 607  : 		{	// construct empty list

  00000	55		 push	 ebp
  00001	8b ec		 mov	 ebp, esp
  00003	51		 push	 ecx
  00004	56		 push	 esi
  00005	51		 push	 ecx
  00006	89 65 fc	 mov	 DWORD PTR $T535202[ebp], esp
  00009	8b f1		 mov	 esi, ecx
  0000b	89 65 fc	 mov	 DWORD PTR $T535207[ebp], esp
  0000e	e8 00 00 00 00	 call	 ??0?$_List_val@PAVioPlayEntity@@V?$allocator@PAVioPlayEntity@@@std@@@std@@QAE@V?$allocator@PAVioPlayEntity@@@1@@Z ; std::_List_val<ioPlayEntity *,std::allocator<ioPlayEntity *> >::_List_val<ioPlayEntity *,std::allocator<ioPlayEntity *> >

; 608  : 		}

  00013	8b c6		 mov	 eax, esi
  00015	5e		 pop	 esi
  00016	c9		 leave
  00017	c3		 ret	 0
??0?$list@PAVioPlayEntity@@V?$allocator@PAVioPlayEntity@@@std@@@std@@QAE@XZ ENDP ; std::list<ioPlayEntity *,std::allocator<ioPlayEntity *> >::list<ioPlayEntity *,std::allocator<ioPlayEntity *> >
_TEXT	ENDS
PUBLIC	?clear@?$list@PAVioPlayEntity@@V?$allocator@PAVioPlayEntity@@@std@@@std@@QAEXXZ ; std::list<ioPlayEntity *,std::allocator<ioPlayEntity *> >::clear
; Function compile flags: /Ogsp
;	COMDAT ?clear@?$list@PAVioPlayEntity@@V?$allocator@PAVioPlayEntity@@@std@@@std@@QAEXXZ
_TEXT	SEGMENT
?clear@?$list@PAVioPlayEntity@@V?$allocator@PAVioPlayEntity@@@std@@@std@@QAEXXZ PROC ; std::list<ioPlayEntity *,std::allocator<ioPlayEntity *> >::clear, COMDAT
; _this$ = ecx

; 1096 : 		{	// erase all

  00000	56		 push	 esi
  00001	8b f1		 mov	 esi, ecx

; 1097 :  #if _ITERATOR_DEBUG_LEVEL == 2
; 1098 : 		this->_Orphan_ptr(*this, 0);
; 1099 :  #endif /* _ITERATOR_DEBUG_LEVEL == 2 */
; 1100 : 
; 1101 : 		_Nodeptr _Pnext;
; 1102 : 		_Nodeptr _Pnode = this->_Nextnode(this->_Myhead);

  00003	8b 06		 mov	 eax, DWORD PTR [esi]
  00005	8b 08		 mov	 ecx, DWORD PTR [eax]

; 1103 : 		this->_Nextnode(this->_Myhead) = this->_Myhead;

  00007	89 00		 mov	 DWORD PTR [eax], eax

; 1104 : 		this->_Prevnode(this->_Myhead) = this->_Myhead;

  00009	8b 06		 mov	 eax, DWORD PTR [esi]
  0000b	89 40 04	 mov	 DWORD PTR [eax+4], eax

; 1105 : 		this->_Mysize = 0;

  0000e	83 66 04 00	 and	 DWORD PTR [esi+4], 0

; 1106 : 
; 1107 : 		for (; _Pnode != this->_Myhead; _Pnode = _Pnext)

  00012	3b 0e		 cmp	 ecx, DWORD PTR [esi]
  00014	74 11		 je	 SHORT $LN1@clear
  00016	57		 push	 edi
$LL3@clear:

; 1108 : 			{	// delete an element
; 1109 : 			_Pnext = this->_Nextnode(_Pnode);

  00017	8b 39		 mov	 edi, DWORD PTR [ecx]

; 1110 : 
; 1111 : 			_Dest_val(this->_Alnod, _Pnode);
; 1112 : 			this->_Alnod.deallocate(_Pnode, 1);

  00019	51		 push	 ecx
  0001a	e8 00 00 00 00	 call	 ??3@YAXPAX@Z		; operator delete
  0001f	59		 pop	 ecx
  00020	8b cf		 mov	 ecx, edi
  00022	3b 3e		 cmp	 edi, DWORD PTR [esi]
  00024	75 f1		 jne	 SHORT $LL3@clear
  00026	5f		 pop	 edi
$LN1@clear:
  00027	5e		 pop	 esi

; 1113 : 			}
; 1114 : 		}

  00028	c3		 ret	 0
?clear@?$list@PAVioPlayEntity@@V?$allocator@PAVioPlayEntity@@@std@@@std@@QAEXXZ ENDP ; std::list<ioPlayEntity *,std::allocator<ioPlayEntity *> >::clear
_TEXT	ENDS
PUBLIC	?_Buynode@?$_List_val@PAVioPlayEntity@@V?$allocator@PAVioPlayEntity@@@std@@@std@@QAEPAU_Node@?$_List_nod@PAVioPlayEntity@@V?$allocator@PAVioPlayEntity@@@std@@@2@PAU342@0ABQAVioPlayEntity@@@Z ; std::_List_val<ioPlayEntity *,std::allocator<ioPlayEntity *> >::_Buynode
; Function compile flags: /Ogsp
;	COMDAT ?_Buynode@?$_List_val@PAVioPlayEntity@@V?$allocator@PAVioPlayEntity@@@std@@@std@@QAEPAU_Node@?$_List_nod@PAVioPlayEntity@@V?$allocator@PAVioPlayEntity@@@std@@@2@PAU342@0ABQAVioPlayEntity@@@Z
_TEXT	SEGMENT
$T535274 = -12						; size = 12
$T535257 = 8						; size = 4
__Next$ = 8						; size = 4
__Prev$ = 12						; size = 4
__Val$ = 16						; size = 4
?_Buynode@?$_List_val@PAVioPlayEntity@@V?$allocator@PAVioPlayEntity@@@std@@@std@@QAEPAU_Node@?$_List_nod@PAVioPlayEntity@@V?$allocator@PAVioPlayEntity@@@std@@@2@PAU342@0ABQAVioPlayEntity@@@Z PROC ; std::_List_val<ioPlayEntity *,std::allocator<ioPlayEntity *> >::_Buynode, COMDAT
; _this$ = ecx

; 507  : 		{	// allocate a node and set links and value

  00000	55		 push	 ebp
  00001	8b ec		 mov	 ebp, esp
  00003	83 ec 0c	 sub	 esp, 12			; 0000000cH

; 508  : 		_Nodeptr _Pnode = this->_Alnod.allocate(1);

  00006	6a 0c		 push	 12			; 0000000cH
  00008	e8 00 00 00 00	 call	 ??2@YAPAXI@Z		; operator new
  0000d	59		 pop	 ecx
  0000e	85 c0		 test	 eax, eax
  00010	74 1d		 je	 SHORT $LN10@Buynode

; 509  : 
; 510  : 		_TRY_BEGIN
; 511  : 		this->_Nextnode(_Pnode) = _Next;

  00012	8b 4d 08	 mov	 ecx, DWORD PTR __Next$[ebp]
  00015	89 08		 mov	 DWORD PTR [eax], ecx

; 512  : 		this->_Prevnode(_Pnode) = _Prev;

  00017	8b 4d 0c	 mov	 ecx, DWORD PTR __Prev$[ebp]
  0001a	89 48 04	 mov	 DWORD PTR [eax+4], ecx

; 513  : 		_Cons_val(this->_Alval, _STD addressof(this->_Myval(_Pnode)), _Val);

  0001d	8d 48 08	 lea	 ecx, DWORD PTR [eax+8]
  00020	85 c9		 test	 ecx, ecx
  00022	74 07		 je	 SHORT $LN2@Buynode
  00024	8b 55 10	 mov	 edx, DWORD PTR __Val$[ebp]
  00027	8b 12		 mov	 edx, DWORD PTR [edx]
  00029	89 11		 mov	 DWORD PTR [ecx], edx
$LN2@Buynode:

; 514  : 		_CATCH_ALL
; 515  : 		this->_Alnod.deallocate(_Pnode, 1);
; 516  : 		_RERAISE;
; 517  : 		_CATCH_END
; 518  : 
; 519  : 		return (_Pnode);
; 520  : 		}

  0002b	c9		 leave
  0002c	c2 0c 00	 ret	 12			; 0000000cH

; 508  : 		_Nodeptr _Pnode = this->_Alnod.allocate(1);

$LN10@Buynode:
  0002f	83 65 08 00	 and	 DWORD PTR $T535257[ebp], 0
  00033	8d 45 08	 lea	 eax, DWORD PTR $T535257[ebp]
  00036	50		 push	 eax
  00037	8d 4d f4	 lea	 ecx, DWORD PTR $T535274[ebp]
  0003a	ff 15 00 00 00
	00		 call	 DWORD PTR __imp_??0exception@std@@QAE@ABQBD@Z
  00040	68 00 00 00 00	 push	 OFFSET __TI2?AVbad_alloc@std@@
  00045	8d 45 f4	 lea	 eax, DWORD PTR $T535274[ebp]
  00048	50		 push	 eax
  00049	c7 45 f4 00 00
	00 00		 mov	 DWORD PTR $T535274[ebp], OFFSET ??_7bad_alloc@std@@6B@
  00050	e8 00 00 00 00	 call	 __CxxThrowException@8
$LN46@Buynode:
$LN45@Buynode:
  00055	cc		 int	 3
?_Buynode@?$_List_val@PAVioPlayEntity@@V?$allocator@PAVioPlayEntity@@@std@@@std@@QAEPAU_Node@?$_List_nod@PAVioPlayEntity@@V?$allocator@PAVioPlayEntity@@@std@@@2@PAU342@0ABQAVioPlayEntity@@@Z ENDP ; std::_List_val<ioPlayEntity *,std::allocator<ioPlayEntity *> >::_Buynode
_TEXT	ENDS
PUBLIC	__real@3f91df46a2526c7a
PUBLIC	___$ReturnUdt$GSCopy$
PUBLIC	??$DEGtoRAD@V?$CEncrypt@M@@@@YA?AV?$CEncrypt@M@@V0@@Z ; DEGtoRAD<CEncrypt<float> >
;	COMDAT __real@3f91df46a2526c7a
; File d:\lost saga for developer\youtube\tutorial\source\src\lsclient\encryptvalue.h
CONST	SEGMENT
__real@3f91df46a2526c7a DQ 03f91df46a2526c7ar	; 0.0174533
CONST	ENDS
;	COMDAT xdata$x
xdata$x	SEGMENT
__unwindtable$??$DEGtoRAD@V?$CEncrypt@M@@@@YA?AV?$CEncrypt@M@@V0@@Z DD 0ffffffffH
	DD	FLAT:__unwindfunclet$??$DEGtoRAD@V?$CEncrypt@M@@@@YA?AV?$CEncrypt@M@@V0@@Z$1
	DD	00H
	DD	FLAT:__unwindfunclet$??$DEGtoRAD@V?$CEncrypt@M@@@@YA?AV?$CEncrypt@M@@V0@@Z$0
__ehfuncinfo$??$DEGtoRAD@V?$CEncrypt@M@@@@YA?AV?$CEncrypt@M@@V0@@Z DD 019930522H
	DD	02H
	DD	FLAT:__unwindtable$??$DEGtoRAD@V?$CEncrypt@M@@@@YA?AV?$CEncrypt@M@@V0@@Z
	DD	2 DUP(00H)
	DD	2 DUP(00H)
	DD	00H
	DD	01H
; Function compile flags: /Ogsp
; File d:\lost saga for developer\youtube\tutorial\source\src\lsclient\veryoftenusedefine.h
xdata$x	ENDS
;	COMDAT ??$DEGtoRAD@V?$CEncrypt@M@@@@YA?AV?$CEncrypt@M@@V0@@Z
_TEXT	SEGMENT
___$ReturnUdt$GSCopy$ = -24				; size = 4
$T535364 = -20						; size = 4
$T535368 = -16						; size = 4
__$EHRec$ = -12						; size = 12
___$ReturnUdt$ = 8					; size = 4
_val$ = 12						; size = 48
??$DEGtoRAD@V?$CEncrypt@M@@@@YA?AV?$CEncrypt@M@@V0@@Z PROC ; DEGtoRAD<CEncrypt<float> >, COMDAT

; 20   : type  DEGtoRAD (type val) {return (type) (val * 0.0174532925199);}

  00000	6a 0c		 push	 12			; 0000000cH
  00002	b8 00 00 00 00	 mov	 eax, __ehhandler$??$DEGtoRAD@V?$CEncrypt@M@@@@YA?AV?$CEncrypt@M@@V0@@Z
  00007	e8 00 00 00 00	 call	 __EH_prolog3
  0000c	8b 7d 08	 mov	 edi, DWORD PTR ___$ReturnUdt$[ebp]
  0000f	83 65 f0 00	 and	 DWORD PTR $T535368[ebp], 0
  00013	89 7d e8	 mov	 DWORD PTR ___$ReturnUdt$GSCopy$[ebp], edi
  00016	6a 04		 push	 4
  00018	8d 45 34	 lea	 eax, DWORD PTR _val$[ebp+40]
  0001b	50		 push	 eax
  0001c	33 f6		 xor	 esi, esi
  0001e	8d 45 28	 lea	 eax, DWORD PTR _val$[ebp+28]
  00021	46		 inc	 esi
  00022	50		 push	 eax
  00023	8d 4d 18	 lea	 ecx, DWORD PTR _val$[ebp+12]
  00026	89 75 fc	 mov	 DWORD PTR __$EHRec$[ebp+8], esi
  00029	e8 00 00 00 00	 call	 ?DecryptByte@ccddaabb@@QBEXPBDPADH@Z ; ccddaabb::DecryptByte
  0002e	f3 0f 10 45 34	 movss	 xmm0, DWORD PTR _val$[ebp+40]
  00033	0f 5a c0	 cvtps2pd xmm0, xmm0
  00036	f2 0f 59 05 00
	00 00 00	 mulsd	 xmm0, QWORD PTR __real@3f91df46a2526c7a
  0003e	8d 45 ec	 lea	 eax, DWORD PTR $T535364[ebp]
  00041	66 0f 5a c0	 cvtpd2ps xmm0, xmm0
  00045	50		 push	 eax
  00046	8b cf		 mov	 ecx, edi
  00048	f3 0f 11 45 ec	 movss	 DWORD PTR $T535364[ebp], xmm0
  0004d	e8 00 00 00 00	 call	 ??0?$CEncrypt@M@@QAE@ABM@Z ; CEncrypt<float>::CEncrypt<float>
  00052	8d 4d 18	 lea	 ecx, DWORD PTR _val$[ebp+12]
  00055	89 75 f0	 mov	 DWORD PTR $T535368[ebp], esi
  00058	c6 45 fc 00	 mov	 BYTE PTR __$EHRec$[ebp+8], 0
  0005c	c7 45 0c 00 00
	00 00		 mov	 DWORD PTR _val$[ebp], OFFSET ??_7?$CEncrypt@M@@6B@
  00063	e8 00 00 00 00	 call	 ??1ccddaabb@@UAE@XZ	; ccddaabb::~ccddaabb
  00068	8b c7		 mov	 eax, edi
  0006a	e8 00 00 00 00	 call	 __EH_epilog3
  0006f	c3		 ret	 0
_TEXT	ENDS
;	COMDAT text$x
text$x	SEGMENT
__unwindfunclet$??$DEGtoRAD@V?$CEncrypt@M@@@@YA?AV?$CEncrypt@M@@V0@@Z$0:
  00000	8d 4d 0c	 lea	 ecx, DWORD PTR _val$[ebp]
  00003	e9 00 00 00 00	 jmp	 ??1?$CEncrypt@M@@UAE@XZ	; CEncrypt<float>::~CEncrypt<float>
__unwindfunclet$??$DEGtoRAD@V?$CEncrypt@M@@@@YA?AV?$CEncrypt@M@@V0@@Z$1:
  00008	8b 45 f0	 mov	 eax, DWORD PTR $T535368[ebp]
  0000b	83 e0 01	 and	 eax, 1
  0000e	0f 84 0c 00 00
	00		 je	 $LN5@DEGtoRAD
  00014	83 65 f0 fe	 and	 DWORD PTR $T535368[ebp], -2 ; fffffffeH
  00018	8b 4d e8	 mov	 ecx, DWORD PTR ___$ReturnUdt$GSCopy$[ebp]
  0001b	e9 00 00 00 00	 jmp	 ??1?$CEncrypt@M@@UAE@XZ	; CEncrypt<float>::~CEncrypt<float>
$LN5@DEGtoRAD:
  00020	c3		 ret	 0
__ehhandler$??$DEGtoRAD@V?$CEncrypt@M@@@@YA?AV?$CEncrypt@M@@V0@@Z:
  00021	8b 54 24 08	 mov	 edx, DWORD PTR [esp+8]
  00025	8d 42 0c	 lea	 eax, DWORD PTR [edx+12]
  00028	8b 4a e4	 mov	 ecx, DWORD PTR [edx-28]
  0002b	33 c8		 xor	 ecx, eax
  0002d	e8 00 00 00 00	 call	 @__security_check_cookie@4
  00032	b8 00 00 00 00	 mov	 eax, OFFSET __ehfuncinfo$??$DEGtoRAD@V?$CEncrypt@M@@@@YA?AV?$CEncrypt@M@@V0@@Z
  00037	e9 00 00 00 00	 jmp	 ___CxxFrameHandler3
text$x	ENDS
??$DEGtoRAD@V?$CEncrypt@M@@@@YA?AV?$CEncrypt@M@@V0@@Z ENDP ; DEGtoRAD<CEncrypt<float> >
PUBLIC	??$_Cons_val@V?$allocator@UstWantCheckList@ioAreaEffectWeapon@@@std@@UstWantCheckList@ioAreaEffectWeapon@@ABU34@@std@@YAXAAV?$allocator@UstWantCheckList@ioAreaEffectWeapon@@@0@PAUstWantCheckList@ioAreaEffectWeapon@@ABU23@@Z ; std::_Cons_val<std::allocator<ioAreaEffectWeapon::stWantCheckList>,ioAreaEffectWeapon::stWantCheckList,ioAreaEffectWeapon::stWantCheckList const &>
; Function compile flags: /Ogsp
; File c:\program files (x86)\microsoft visual studio 10.0\vc\include\xmemory
;	COMDAT ??$_Cons_val@V?$allocator@UstWantCheckList@ioAreaEffectWeapon@@@std@@UstWantCheckList@ioAreaEffectWeapon@@ABU34@@std@@YAXAAV?$allocator@UstWantCheckList@ioAreaEffectWeapon@@@0@PAUstWantCheckList@ioAreaEffectWeapon@@ABU23@@Z
_TEXT	SEGMENT
__Alval$ = 8						; size = 4
__Pdest$ = 12						; size = 4
__Src$ = 16						; size = 4
??$_Cons_val@V?$allocator@UstWantCheckList@ioAreaEffectWeapon@@@std@@UstWantCheckList@ioAreaEffectWeapon@@ABU34@@std@@YAXAAV?$allocator@UstWantCheckList@ioAreaEffectWeapon@@@0@PAUstWantCheckList@ioAreaEffectWeapon@@ABU23@@Z PROC ; std::_Cons_val<std::allocator<ioAreaEffectWeapon::stWantCheckList>,ioAreaEffectWeapon::stWantCheckList,ioAreaEffectWeapon::stWantCheckList const &>, COMDAT

; 279  : 	{	// construct using allocator

  00000	55		 push	 ebp
  00001	8b ec		 mov	 ebp, esp

; 280  : 	_Alval.construct(_Pdest, _STD forward<_Ty2>(_Src));

  00003	ff 75 10	 push	 DWORD PTR __Src$[ebp]
  00006	ff 75 0c	 push	 DWORD PTR __Pdest$[ebp]
  00009	e8 00 00 00 00	 call	 ??$_Construct@UstWantCheckList@ioAreaEffectWeapon@@ABU12@@std@@YAXPAUstWantCheckList@ioAreaEffectWeapon@@ABU12@@Z ; std::_Construct<ioAreaEffectWeapon::stWantCheckList,ioAreaEffectWeapon::stWantCheckList const &>
  0000e	59		 pop	 ecx
  0000f	59		 pop	 ecx

; 281  : 	}

  00010	5d		 pop	 ebp
  00011	c3		 ret	 0
??$_Cons_val@V?$allocator@UstWantCheckList@ioAreaEffectWeapon@@@std@@UstWantCheckList@ioAreaEffectWeapon@@ABU34@@std@@YAXAAV?$allocator@UstWantCheckList@ioAreaEffectWeapon@@@0@PAUstWantCheckList@ioAreaEffectWeapon@@ABU23@@Z ENDP ; std::_Cons_val<std::allocator<ioAreaEffectWeapon::stWantCheckList>,ioAreaEffectWeapon::stWantCheckList,ioAreaEffectWeapon::stWantCheckList const &>
_TEXT	ENDS
PUBLIC	??$_Dest_val@V?$allocator@UstWantCheckList@ioAreaEffectWeapon@@@std@@UstWantCheckList@ioAreaEffectWeapon@@@std@@YAXAAV?$allocator@UstWantCheckList@ioAreaEffectWeapon@@@0@PAUstWantCheckList@ioAreaEffectWeapon@@@Z ; std::_Dest_val<std::allocator<ioAreaEffectWeapon::stWantCheckList>,ioAreaEffectWeapon::stWantCheckList>
; Function compile flags: /Ogsp
;	COMDAT ??$_Dest_val@V?$allocator@UstWantCheckList@ioAreaEffectWeapon@@@std@@UstWantCheckList@ioAreaEffectWeapon@@@std@@YAXAAV?$allocator@UstWantCheckList@ioAreaEffectWeapon@@@0@PAUstWantCheckList@ioAreaEffectWeapon@@@Z
_TEXT	SEGMENT
__Alval$ = 8						; size = 4
__Pdest$ = 12						; size = 4
??$_Dest_val@V?$allocator@UstWantCheckList@ioAreaEffectWeapon@@@std@@UstWantCheckList@ioAreaEffectWeapon@@@std@@YAXAAV?$allocator@UstWantCheckList@ioAreaEffectWeapon@@@0@PAUstWantCheckList@ioAreaEffectWeapon@@@Z PROC ; std::_Dest_val<std::allocator<ioAreaEffectWeapon::stWantCheckList>,ioAreaEffectWeapon::stWantCheckList>, COMDAT

; 286  : 	{	// destroy using allocator

  00000	55		 push	 ebp
  00001	8b ec		 mov	 ebp, esp

; 287  : 	_Alval.destroy(_Pdest);

  00003	8b 4d 0c	 mov	 ecx, DWORD PTR __Pdest$[ebp]

; 288  : 	}

  00006	5d		 pop	 ebp

; 287  : 	_Alval.destroy(_Pdest);

  00007	ff 25 00 00 00
	00		 jmp	 DWORD PTR __imp_??1ioHashString@@QAE@XZ
??$_Dest_val@V?$allocator@UstWantCheckList@ioAreaEffectWeapon@@@std@@UstWantCheckList@ioAreaEffectWeapon@@@std@@YAXAAV?$allocator@UstWantCheckList@ioAreaEffectWeapon@@@0@PAUstWantCheckList@ioAreaEffectWeapon@@@Z ENDP ; std::_Dest_val<std::allocator<ioAreaEffectWeapon::stWantCheckList>,ioAreaEffectWeapon::stWantCheckList>
_TEXT	ENDS
PUBLIC	??$_Dest_val@V?$allocator@VioHashString@@@std@@VioHashString@@@std@@YAXAAV?$allocator@VioHashString@@@0@PAVioHashString@@@Z ; std::_Dest_val<std::allocator<ioHashString>,ioHashString>
; Function compile flags: /Ogsp
;	COMDAT ??$_Dest_val@V?$allocator@VioHashString@@@std@@VioHashString@@@std@@YAXAAV?$allocator@VioHashString@@@0@PAVioHashString@@@Z
_TEXT	SEGMENT
__Alval$ = 8						; size = 4
__Pdest$ = 12						; size = 4
??$_Dest_val@V?$allocator@VioHashString@@@std@@VioHashString@@@std@@YAXAAV?$allocator@VioHashString@@@0@PAVioHashString@@@Z PROC ; std::_Dest_val<std::allocator<ioHashString>,ioHashString>, COMDAT

; 286  : 	{	// destroy using allocator

  00000	55		 push	 ebp
  00001	8b ec		 mov	 ebp, esp

; 287  : 	_Alval.destroy(_Pdest);

  00003	8b 4d 0c	 mov	 ecx, DWORD PTR __Pdest$[ebp]

; 288  : 	}

  00006	5d		 pop	 ebp

; 287  : 	_Alval.destroy(_Pdest);

  00007	ff 25 00 00 00
	00		 jmp	 DWORD PTR __imp_??1ioHashString@@QAE@XZ
??$_Dest_val@V?$allocator@VioHashString@@@std@@VioHashString@@@std@@YAXAAV?$allocator@VioHashString@@@0@PAVioHashString@@@Z ENDP ; std::_Dest_val<std::allocator<ioHashString>,ioHashString>
_TEXT	ENDS
PUBLIC	_pEntity$GSCopy$
PUBLIC	?CheckCollisionSphere@ioAreaEffectWeapon@@QAE_NPAVioPlayEntity@@@Z ; ioAreaEffectWeapon::CheckCollisionSphere
EXTRN	_D3DXVec3Normalize@8:PROC
;	COMDAT xdata$x
; File c:\program files (x86)\microsoft directx sdk (june 2010)\include\d3dx9math.inl
xdata$x	SEGMENT
__unwindtable$?CheckCollisionSphere@ioAreaEffectWeapon@@QAE_NPAVioPlayEntity@@@Z DD 0ffffffffH
	DD	FLAT:__unwindfunclet$?CheckCollisionSphere@ioAreaEffectWeapon@@QAE_NPAVioPlayEntity@@@Z$1
__ehfuncinfo$?CheckCollisionSphere@ioAreaEffectWeapon@@QAE_NPAVioPlayEntity@@@Z DD 019930522H
	DD	01H
	DD	FLAT:__unwindtable$?CheckCollisionSphere@ioAreaEffectWeapon@@QAE_NPAVioPlayEntity@@@Z
	DD	2 DUP(00H)
	DD	2 DUP(00H)
	DD	00H
	DD	01H
; Function compile flags: /Ogsp
; File d:\lost saga for developer\youtube\tutorial\source\src\lsclient\ioareaeffectweapon.cpp
xdata$x	ENDS
;	COMDAT ?CheckCollisionSphere@ioAreaEffectWeapon@@QAE_NPAVioPlayEntity@@@Z
_TEXT	SEGMENT
_pEntity$GSCopy$ = -108					; size = 4
$T535455 = -108						; size = 4
tv373 = -104						; size = 4
tv369 = -104						; size = 4
tv365 = -104						; size = 4
tv352 = -104						; size = 4
$T535489 = -104						; size = 4
_value$535464 = -104					; size = 4
$T535456 = -104						; size = 4
_fHalfCosine$ = -104					; size = 4
$T531173 = -100						; size = 48
_vPoint$ = -52						; size = 12
_vPos$ = -40						; size = 12
_vDir$ = -28						; size = 12
__$EHRec$ = -12						; size = 12
_pEntity$ = 8						; size = 4
?CheckCollisionSphere@ioAreaEffectWeapon@@QAE_NPAVioPlayEntity@@@Z PROC ; ioAreaEffectWeapon::CheckCollisionSphere, COMDAT
; _this$ = ecx

; 204  : {

  00000	6a 60		 push	 96			; 00000060H
  00002	b8 00 00 00 00	 mov	 eax, __ehhandler$?CheckCollisionSphere@ioAreaEffectWeapon@@QAE_NPAVioPlayEntity@@@Z
  00007	e8 00 00 00 00	 call	 __EH_prolog3_GS
  0000c	8b 45 08	 mov	 eax, DWORD PTR _pEntity$[ebp]

; 205  : 	D3DXVECTOR3 vPos = GetWorldAttackBox().GetCenter();

  0000f	6a 00		 push	 0
  00011	8b d9		 mov	 ebx, ecx

; 206  : 
; 207  : 	D3DXVECTOR3 vPoint;
; 208  : 	if( !pEntity->CheckSpherePoint( vPos, m_fCollisionRange, vPoint ) )
; 209  : 		return false;
; 210  : 
; 211  : 	D3DXVECTOR3 vDir = vPoint - vPos;

  00013	89 45 94	 mov	 DWORD PTR _pEntity$GSCopy$[ebp], eax
  00016	e8 00 00 00 00	 call	 ?GetWorldAttackBox@ioWeapon@@QBEABVioOrientBox@@_N@Z ; ioWeapon::GetWorldAttackBox
  0001b	8b c8		 mov	 ecx, eax
  0001d	ff 15 00 00 00
	00		 call	 DWORD PTR __imp_?GetCenter@ioOrientBox@@QBEABUD3DXVECTOR3@@XZ
  00023	8b f0		 mov	 esi, eax
  00025	8d 7d d8	 lea	 edi, DWORD PTR _vPos$[ebp]
  00028	a5		 movsd
  00029	a5		 movsd
  0002a	8d 45 98	 lea	 eax, DWORD PTR _value$535464[ebp]
  0002d	50		 push	 eax
  0002e	8d 8b bc 08 00
	00		 lea	 ecx, DWORD PTR [ebx+2236]
  00034	a5		 movsd
  00035	e8 00 00 00 00	 call	 ?DecryptValueToPool@?$CEncrypt@M@@QAEXPAM@Z ; CEncrypt<float>::DecryptValueToPool
  0003a	8b 4d 94	 mov	 ecx, DWORD PTR _pEntity$GSCopy$[ebp]
  0003d	f3 0f 10 45 98	 movss	 xmm0, DWORD PTR _value$535464[ebp]
  00042	8b 01		 mov	 eax, DWORD PTR [ecx]
  00044	8d 55 cc	 lea	 edx, DWORD PTR _vPoint$[ebp]
  00047	52		 push	 edx
  00048	51		 push	 ecx
  00049	8d 55 d8	 lea	 edx, DWORD PTR _vPos$[ebp]
  0004c	f3 0f 11 04 24	 movss	 DWORD PTR [esp], xmm0
  00051	52		 push	 edx
  00052	ff 90 9c 00 00
	00		 call	 DWORD PTR [eax+156]
  00058	84 c0		 test	 al, al
  0005a	0f 84 55 01 00
	00		 je	 $LN1@CheckColli@2
  00060	f3 0f 10 45 cc	 movss	 xmm0, DWORD PTR _vPoint$[ebp]
  00065	f3 0f 10 4d d8	 movss	 xmm1, DWORD PTR _vPos$[ebp]
  0006a	f3 0f 10 55 dc	 movss	 xmm2, DWORD PTR _vPos$[ebp+4]
  0006f	f3 0f 10 5d e0	 movss	 xmm3, DWORD PTR _vPos$[ebp+8]
  00074	0f 5a c9	 cvtps2pd xmm1, xmm1
  00077	0f 5a c0	 cvtps2pd xmm0, xmm0
  0007a	f2 0f 5c c1	 subsd	 xmm0, xmm1
  0007e	f3 0f 10 4d d0	 movss	 xmm1, DWORD PTR _vPoint$[ebp+4]
  00083	0f 5a d2	 cvtps2pd xmm2, xmm2
  00086	0f 5a c9	 cvtps2pd xmm1, xmm1
  00089	f2 0f 5c ca	 subsd	 xmm1, xmm2
  0008d	f3 0f 10 55 d4	 movss	 xmm2, DWORD PTR _vPoint$[ebp+8]

; 212  : 	D3DXVec3Normalize( &vDir, &vDir );

  00092	8d 45 e4	 lea	 eax, DWORD PTR _vDir$[ebp]
  00095	0f 5a d2	 cvtps2pd xmm2, xmm2
  00098	0f 5a db	 cvtps2pd xmm3, xmm3
  0009b	50		 push	 eax
  0009c	f2 0f 5c d3	 subsd	 xmm2, xmm3
  000a0	66 0f 5a c0	 cvtpd2ps xmm0, xmm0
  000a4	66 0f 5a c9	 cvtpd2ps xmm1, xmm1
  000a8	66 0f 5a d2	 cvtpd2ps xmm2, xmm2
  000ac	50		 push	 eax
  000ad	f3 0f 11 45 e4	 movss	 DWORD PTR _vDir$[ebp], xmm0
  000b2	f3 0f 11 4d e8	 movss	 DWORD PTR _vDir$[ebp+4], xmm1
  000b7	f3 0f 11 55 ec	 movss	 DWORD PTR _vDir$[ebp+8], xmm2
  000bc	e8 00 00 00 00	 call	 _D3DXVec3Normalize@8

; 213  : 
; 214  : 	float fHalfCosine = cosf( DEGtoRAD( m_fAreaAngle ) * FLOAT05 );

  000c1	b8 05 00 00 00	 mov	 eax, 5
  000c6	8b c8		 mov	 ecx, eax
  000c8	b8 0a 00 00 00	 mov	 eax, 10			; 0000000aH
  000cd	89 4d 98	 mov	 DWORD PTR tv373[ebp], ecx
  000d0	db 45 98	 fild	 DWORD PTR tv373[ebp]
  000d3	85 c9		 test	 ecx, ecx
  000d5	79 06		 jns	 SHORT $LN27@CheckColli@2
  000d7	d8 05 00 00 00
	00		 fadd	 DWORD PTR __real@4f800000
$LN27@CheckColli@2:
  000dd	89 45 98	 mov	 DWORD PTR tv369[ebp], eax
  000e0	db 45 98	 fild	 DWORD PTR tv369[ebp]
  000e3	85 c0		 test	 eax, eax
  000e5	79 06		 jns	 SHORT $LN28@CheckColli@2
  000e7	d8 05 00 00 00
	00		 fadd	 DWORD PTR __real@4f800000
$LN28@CheckColli@2:
  000ed	de f9		 fdivp	 ST(1), ST(0)
  000ef	8d 45 98	 lea	 eax, DWORD PTR $T535456[ebp]
  000f2	50		 push	 eax
  000f3	83 ec 30	 sub	 esp, 48			; 00000030H
  000f6	8d 83 1c 09 00
	00		 lea	 eax, DWORD PTR [ebx+2332]
  000fc	8b cc		 mov	 ecx, esp
  000fe	89 65 94	 mov	 DWORD PTR $T535455[ebp], esp
  00101	50		 push	 eax
  00102	d9 5d 98	 fstp	 DWORD PTR tv365[ebp]
  00105	d9 45 98	 fld	 DWORD PTR tv365[ebp]
  00108	d9 5d 98	 fstp	 DWORD PTR $T535456[ebp]
  0010b	e8 00 00 00 00	 call	 ??0?$CEncrypt@M@@QAE@ABV0@@Z ; CEncrypt<float>::CEncrypt<float>
  00110	8d 45 9c	 lea	 eax, DWORD PTR $T531173[ebp]
  00113	50		 push	 eax
  00114	e8 00 00 00 00	 call	 ??$DEGtoRAD@V?$CEncrypt@M@@@@YA?AV?$CEncrypt@M@@V0@@Z ; DEGtoRAD<CEncrypt<float> >
  00119	83 c4 34	 add	 esp, 52			; 00000034H
  0011c	83 65 fc 00	 and	 DWORD PTR __$EHRec$[ebp+8], 0
  00120	8b c8		 mov	 ecx, eax
  00122	e8 00 00 00 00	 call	 ??D?$CEncrypt@M@@QAEMABM@Z ; CEncrypt<float>::operator*
  00127	d9 5d 98	 fstp	 DWORD PTR $T535489[ebp]
  0012a	d9 45 98	 fld	 DWORD PTR $T535489[ebp]
  0012d	e8 00 00 00 00	 call	 __CIcos
  00132	d9 5d 98	 fstp	 DWORD PTR tv352[ebp]
  00135	d9 45 98	 fld	 DWORD PTR tv352[ebp]
  00138	83 4d fc ff	 or	 DWORD PTR __$EHRec$[ebp+8], -1
  0013c	8d 4d a8	 lea	 ecx, DWORD PTR $T531173[ebp+12]
  0013f	d9 5d 98	 fstp	 DWORD PTR _fHalfCosine$[ebp]
  00142	c7 45 9c 00 00
	00 00		 mov	 DWORD PTR $T531173[ebp], OFFSET ??_7?$CEncrypt@M@@6B@
  00149	e8 00 00 00 00	 call	 ??1ccddaabb@@UAE@XZ	; ccddaabb::~ccddaabb

; 215  : 	if( D3DXVec3Dot( &m_vCollisionDir, &vDir ) >= fHalfCosine )

  0014e	f3 0f 10 83 e0
	09 00 00	 movss	 xmm0, DWORD PTR [ebx+2528]
  00156	f3 0f 10 4d e8	 movss	 xmm1, DWORD PTR _vDir$[ebp+4]
  0015b	f3 0f 10 93 dc
	09 00 00	 movss	 xmm2, DWORD PTR [ebx+2524]
  00163	0f 5a c9	 cvtps2pd xmm1, xmm1
  00166	0f 5a c0	 cvtps2pd xmm0, xmm0
  00169	f2 0f 59 c1	 mulsd	 xmm0, xmm1
  0016d	f3 0f 10 4d e4	 movss	 xmm1, DWORD PTR _vDir$[ebp]
  00172	0f 5a c9	 cvtps2pd xmm1, xmm1
  00175	0f 5a d2	 cvtps2pd xmm2, xmm2
  00178	f2 0f 59 ca	 mulsd	 xmm1, xmm2
  0017c	f3 0f 10 55 ec	 movss	 xmm2, DWORD PTR _vDir$[ebp+8]
  00181	f2 0f 58 c1	 addsd	 xmm0, xmm1
  00185	f3 0f 10 8b e4
	09 00 00	 movss	 xmm1, DWORD PTR [ebx+2532]
  0018d	0f 5a c9	 cvtps2pd xmm1, xmm1
  00190	0f 5a d2	 cvtps2pd xmm2, xmm2
  00193	f2 0f 59 ca	 mulsd	 xmm1, xmm2
  00197	f2 0f 58 c1	 addsd	 xmm0, xmm1
  0019b	f3 0f 10 4d 98	 movss	 xmm1, DWORD PTR _fHalfCosine$[ebp]
  001a0	66 0f 5a c0	 cvtpd2ps xmm0, xmm0
  001a4	f3 0f 5a c0	 cvtss2sd xmm0, xmm0
  001a8	0f 5a c9	 cvtps2pd xmm1, xmm1
  001ab	66 0f 2f c1	 comisd	 xmm0, xmm1
  001af	72 04		 jb	 SHORT $LN1@CheckColli@2

; 216  : 		return true;

  001b1	b0 01		 mov	 al, 1
  001b3	eb 02		 jmp	 SHORT $LN3@CheckColli@2
$LN1@CheckColli@2:

; 217  : 
; 218  : 	return false;

  001b5	32 c0		 xor	 al, al
$LN3@CheckColli@2:

; 219  : }

  001b7	e8 00 00 00 00	 call	 __EH_epilog3_GS
  001bc	c2 04 00	 ret	 4
_TEXT	ENDS
;	COMDAT text$x
text$x	SEGMENT
__unwindfunclet$?CheckCollisionSphere@ioAreaEffectWeapon@@QAE_NPAVioPlayEntity@@@Z$1:
  00000	8d 4d 9c	 lea	 ecx, DWORD PTR $T531173[ebp]
  00003	e9 00 00 00 00	 jmp	 ??1?$CEncrypt@M@@UAE@XZ	; CEncrypt<float>::~CEncrypt<float>
__ehhandler$?CheckCollisionSphere@ioAreaEffectWeapon@@QAE_NPAVioPlayEntity@@@Z:
  00008	8b 54 24 08	 mov	 edx, DWORD PTR [esp+8]
  0000c	8d 42 0c	 lea	 eax, DWORD PTR [edx+12]
  0000f	8b 4a 90	 mov	 ecx, DWORD PTR [edx-112]
  00012	33 c8		 xor	 ecx, eax
  00014	e8 00 00 00 00	 call	 @__security_check_cookie@4
  00019	8b 4a fc	 mov	 ecx, DWORD PTR [edx-4]
  0001c	33 c8		 xor	 ecx, eax
  0001e	e8 00 00 00 00	 call	 @__security_check_cookie@4
  00023	b8 00 00 00 00	 mov	 eax, OFFSET __ehfuncinfo$?CheckCollisionSphere@ioAreaEffectWeapon@@QAE_NPAVioPlayEntity@@@Z
  00028	e9 00 00 00 00	 jmp	 ___CxxFrameHandler3
text$x	ENDS
?CheckCollisionSphere@ioAreaEffectWeapon@@QAE_NPAVioPlayEntity@@@Z ENDP ; ioAreaEffectWeapon::CheckCollisionSphere
PUBLIC	__real@00000000
PUBLIC	_pEntity$GSCopy$
PUBLIC	?CheckCollisionCylinder@ioAreaEffectWeapon@@QAE_NPAVioPlayEntity@@@Z ; ioAreaEffectWeapon::CheckCollisionCylinder
EXTRN	__imp_??1ioCylinder@@QAE@XZ:PROC
EXTRN	__imp_?GetCenter@ioCylinder@@QBEABUD3DXVECTOR3@@XZ:PROC
EXTRN	__imp_??0ioCylinder@@QAE@ABUD3DXVECTOR3@@0M@Z:PROC
;	COMDAT __real@00000000
; File c:\program files (x86)\microsoft directx sdk (june 2010)\include\d3dx9math.inl
CONST	SEGMENT
__real@00000000 DD 000000000r			; 0
CONST	ENDS
;	COMDAT xdata$x
xdata$x	SEGMENT
__unwindtable$?CheckCollisionCylinder@ioAreaEffectWeapon@@QAE_NPAVioPlayEntity@@@Z DD 0ffffffffH
	DD	FLAT:__unwindfunclet$?CheckCollisionCylinder@ioAreaEffectWeapon@@QAE_NPAVioPlayEntity@@@Z$0
	DD	00H
	DD	FLAT:__unwindfunclet$?CheckCollisionCylinder@ioAreaEffectWeapon@@QAE_NPAVioPlayEntity@@@Z$1
	DD	01H
	DD	FLAT:__unwindfunclet$?CheckCollisionCylinder@ioAreaEffectWeapon@@QAE_NPAVioPlayEntity@@@Z$3
__ehfuncinfo$?CheckCollisionCylinder@ioAreaEffectWeapon@@QAE_NPAVioPlayEntity@@@Z DD 019930522H
	DD	03H
	DD	FLAT:__unwindtable$?CheckCollisionCylinder@ioAreaEffectWeapon@@QAE_NPAVioPlayEntity@@@Z
	DD	2 DUP(00H)
	DD	2 DUP(00H)
	DD	00H
	DD	01H
; Function compile flags: /Ogsp
; File d:\lost saga for developer\youtube\tutorial\source\src\lsclient\ioareaeffectweapon.cpp
xdata$x	ENDS
;	COMDAT ?CheckCollisionCylinder@ioAreaEffectWeapon@@QAE_NPAVioPlayEntity@@@Z
_TEXT	SEGMENT
_pEntity$GSCopy$ = -268					; size = 4
_value$535593 = -268					; size = 4
_value$535597 = -268					; size = 4
_value$535601 = -264					; size = 4
_value$535589 = -264					; size = 4
$T535519 = -264						; size = 4
_fHalfCosine$ = -264					; size = 4
_fInRangeSq$ = -264					; size = 4
tv616 = -260						; size = 8
tv494 = -256						; size = 4
tv414 = -256						; size = 4
$T535621 = -256						; size = 4
_value$535609 = -256					; size = 4
$T535520 = -256						; size = 4
tv157 = -256						; size = 4
tv144 = -256						; size = 4
tv132 = -256						; size = 4
_fRangeSq$ = -256					; size = 4
_value$535568 = -252					; size = 4
_value$535564 = -252					; size = 4
_value$535560 = -252					; size = 4
_value$535556 = -252					; size = 4
_value$535544 = -252					; size = 4
_value$535540 = -252					; size = 4
_value$535536 = -252					; size = 4
_fTargetDist$ = -252					; size = 4
$T535512 = -252						; size = 4
$T535511 = -252						; size = 4
$T531210 = -248						; size = 48
_kBuffBox$ = -200					; size = 68
_kCylinder$ = -132					; size = 32
_vCollisionPoint$ = -100				; size = 12
_vMin$ = -88						; size = 12
_vTop$ = -76						; size = 12
_vBottom$ = -64						; size = 12
_vMax$ = -52						; size = 12
_vCenter$ = -40						; size = 12
_vDiff1$ = -28						; size = 12
__$EHRec$ = -12						; size = 12
_pEntity$ = 8						; size = 4
?CheckCollisionCylinder@ioAreaEffectWeapon@@QAE_NPAVioPlayEntity@@@Z PROC ; ioAreaEffectWeapon::CheckCollisionCylinder, COMDAT
; _this$ = ecx

; 222  : {

  00000	68 00 01 00 00	 push	 256			; 00000100H
  00005	b8 00 00 00 00	 mov	 eax, __ehhandler$?CheckCollisionCylinder@ioAreaEffectWeapon@@QAE_NPAVioPlayEntity@@@Z
  0000a	e8 00 00 00 00	 call	 __EH_prolog3_GS
  0000f	8b 45 08	 mov	 eax, DWORD PTR _pEntity$[ebp]

; 223  : 	if( m_fUpHeight == 0.0f && m_fUnderHeight == 0.0f )

  00012	0f 57 c0	 xorps	 xmm0, xmm0

; 273  : 
; 274  : 	//   
; 275  : 	float fHalfCosine = cosf( DEGtoRAD( m_fAreaAngle ) * FLOAT05 );

  00015	89 85 f4 fe ff
	ff		 mov	 DWORD PTR _pEntity$GSCopy$[ebp], eax
  0001b	8b d9		 mov	 ebx, ecx
  0001d	8d 85 04 ff ff
	ff		 lea	 eax, DWORD PTR $T535511[ebp]
  00023	8d 8b 4c 09 00
	00		 lea	 ecx, DWORD PTR [ebx+2380]
  00029	50		 push	 eax
  0002a	f3 0f 11 85 04
	ff ff ff	 movss	 DWORD PTR $T535511[ebp], xmm0
  00032	e8 00 00 00 00	 call	 ??8?$CEncrypt@M@@QAE_NABM@Z ; CEncrypt<float>::operator==
  00037	84 c0		 test	 al, al
  00039	74 2b		 je	 SHORT $LN6@CheckColli@3

; 223  : 	if( m_fUpHeight == 0.0f && m_fUnderHeight == 0.0f )

  0003b	0f 57 c0	 xorps	 xmm0, xmm0
  0003e	8d 85 04 ff ff
	ff		 lea	 eax, DWORD PTR $T535512[ebp]
  00044	50		 push	 eax
  00045	8d 8b 7c 09 00
	00		 lea	 ecx, DWORD PTR [ebx+2428]
  0004b	f3 0f 11 85 04
	ff ff ff	 movss	 DWORD PTR $T535512[ebp], xmm0
  00053	e8 00 00 00 00	 call	 ??8?$CEncrypt@M@@QAE_NABM@Z ; CEncrypt<float>::operator==
  00058	84 c0		 test	 al, al
  0005a	74 0a		 je	 SHORT $LN6@CheckColli@3
$LN72@CheckColli@3:

; 224  : 		return false;

  0005c	32 c0		 xor	 al, al
$LN7@CheckColli@3:

; 283  : 		return true;
; 284  : 
; 285  : 	return false;
; 286  : }

  0005e	e8 00 00 00 00	 call	 __EH_epilog3_GS
  00063	c2 04 00	 ret	 4
$LN6@CheckColli@3:

; 225  : 
; 226  : 	D3DXVECTOR3 vCenter = GetWorldAttackBox().GetCenter();

  00066	6a 00		 push	 0
  00068	8b cb		 mov	 ecx, ebx
  0006a	e8 00 00 00 00	 call	 ?GetWorldAttackBox@ioWeapon@@QBEABVioOrientBox@@_N@Z ; ioWeapon::GetWorldAttackBox
  0006f	8b c8		 mov	 ecx, eax
  00071	ff 15 00 00 00
	00		 call	 DWORD PTR __imp_?GetCenter@ioOrientBox@@QBEABUD3DXVECTOR3@@XZ
  00077	8b f0		 mov	 esi, eax
  00079	8d 7d d8	 lea	 edi, DWORD PTR _vCenter$[ebp]
  0007c	a5		 movsd
  0007d	a5		 movsd
  0007e	a5		 movsd

; 227  : 
; 228  : 	D3DXVECTOR3 vTop, vBottom;
; 229  : 	vTop = vBottom = vCenter;

  0007f	8d 75 d8	 lea	 esi, DWORD PTR _vCenter$[ebp]
  00082	8d 7d c0	 lea	 edi, DWORD PTR _vBottom$[ebp]
  00085	a5		 movsd
  00086	a5		 movsd
  00087	a5		 movsd
  00088	8d 75 d8	 lea	 esi, DWORD PTR _vCenter$[ebp]
  0008b	8d 7d b4	 lea	 edi, DWORD PTR _vTop$[ebp]
  0008e	a5		 movsd
  0008f	a5		 movsd

; 230  : 	vTop.y += m_fUpHeight;

  00090	8d 85 04 ff ff
	ff		 lea	 eax, DWORD PTR _value$535536[ebp]
  00096	50		 push	 eax
  00097	8d 8b 4c 09 00
	00		 lea	 ecx, DWORD PTR [ebx+2380]
  0009d	a5		 movsd
  0009e	e8 00 00 00 00	 call	 ?DecryptValueToPool@?$CEncrypt@M@@QAEXPAM@Z ; CEncrypt<float>::DecryptValueToPool
  000a3	f3 0f 10 4d b8	 movss	 xmm1, DWORD PTR _vTop$[ebp+4]
  000a8	f3 0f 10 85 04
	ff ff ff	 movss	 xmm0, DWORD PTR _value$535536[ebp]
  000b0	0f 5a c0	 cvtps2pd xmm0, xmm0
  000b3	0f 5a c9	 cvtps2pd xmm1, xmm1

; 231  : 	vBottom.y -= m_fUnderHeight;

  000b6	8d 85 04 ff ff
	ff		 lea	 eax, DWORD PTR _value$535540[ebp]
  000bc	f2 0f 58 c1	 addsd	 xmm0, xmm1
  000c0	66 0f 5a c0	 cvtpd2ps xmm0, xmm0
  000c4	50		 push	 eax
  000c5	8d 8b 7c 09 00
	00		 lea	 ecx, DWORD PTR [ebx+2428]
  000cb	f3 0f 11 45 b8	 movss	 DWORD PTR _vTop$[ebp+4], xmm0
  000d0	e8 00 00 00 00	 call	 ?DecryptValueToPool@?$CEncrypt@M@@QAEXPAM@Z ; CEncrypt<float>::DecryptValueToPool
  000d5	f3 0f 10 45 c4	 movss	 xmm0, DWORD PTR _vBottom$[ebp+4]
  000da	f3 0f 10 8d 04
	ff ff ff	 movss	 xmm1, DWORD PTR _value$535540[ebp]
  000e2	0f 5a c0	 cvtps2pd xmm0, xmm0
  000e5	0f 5a c9	 cvtps2pd xmm1, xmm1

; 232  : 	ioCylinder kCylinder( vTop, vBottom, m_fCollisionRange );

  000e8	8d 85 04 ff ff
	ff		 lea	 eax, DWORD PTR _value$535544[ebp]
  000ee	f2 0f 5c c1	 subsd	 xmm0, xmm1
  000f2	66 0f 5a c0	 cvtpd2ps xmm0, xmm0
  000f6	8d 8b bc 08 00
	00		 lea	 ecx, DWORD PTR [ebx+2236]
  000fc	50		 push	 eax
  000fd	f3 0f 11 45 c4	 movss	 DWORD PTR _vBottom$[ebp+4], xmm0
  00102	e8 00 00 00 00	 call	 ?DecryptValueToPool@?$CEncrypt@M@@QAEXPAM@Z ; CEncrypt<float>::DecryptValueToPool
  00107	f3 0f 10 85 04
	ff ff ff	 movss	 xmm0, DWORD PTR _value$535544[ebp]
  0010f	51		 push	 ecx
  00110	f3 0f 11 04 24	 movss	 DWORD PTR [esp], xmm0
  00115	8d 45 c0	 lea	 eax, DWORD PTR _vBottom$[ebp]
  00118	50		 push	 eax
  00119	8d 45 b4	 lea	 eax, DWORD PTR _vTop$[ebp]
  0011c	50		 push	 eax
  0011d	8d 8d 7c ff ff
	ff		 lea	 ecx, DWORD PTR _kCylinder$[ebp]
  00123	ff 15 00 00 00
	00		 call	 DWORD PTR __imp_??0ioCylinder@@QAE@ABUD3DXVECTOR3@@0M@Z
  00129	83 65 fc 00	 and	 DWORD PTR __$EHRec$[ebp+8], 0

; 233  : 	vCenter = kCylinder.GetCenter();

  0012d	8d 8d 7c ff ff
	ff		 lea	 ecx, DWORD PTR _kCylinder$[ebp]
  00133	ff 15 00 00 00
	00		 call	 DWORD PTR __imp_?GetCenter@ioCylinder@@QBEABUD3DXVECTOR3@@XZ
  00139	8b f0		 mov	 esi, eax
  0013b	8d 7d d8	 lea	 edi, DWORD PTR _vCenter$[ebp]
  0013e	a5		 movsd
  0013f	a5		 movsd
  00140	a5		 movsd

; 234  : 
; 235  : 
; 236  : 	//   2  .    2
; 237  : 	D3DXVECTOR3 vMin, vMax;
; 238  : 	vMax = vTop;

  00141	8d 75 b4	 lea	 esi, DWORD PTR _vTop$[ebp]
  00144	8d 7d cc	 lea	 edi, DWORD PTR _vMax$[ebp]
  00147	a5		 movsd
  00148	a5		 movsd
  00149	a5		 movsd

; 239  : 	vMin = vBottom;

  0014a	8d 75 c0	 lea	 esi, DWORD PTR _vBottom$[ebp]
  0014d	8d 7d a8	 lea	 edi, DWORD PTR _vMin$[ebp]
  00150	a5		 movsd
  00151	a5		 movsd

; 240  : 
; 241  : 	vMax.x += m_fCollisionRange;

  00152	8d 85 04 ff ff
	ff		 lea	 eax, DWORD PTR _value$535556[ebp]
  00158	50		 push	 eax
  00159	8d 8b bc 08 00
	00		 lea	 ecx, DWORD PTR [ebx+2236]
  0015f	a5		 movsd
  00160	e8 00 00 00 00	 call	 ?DecryptValueToPool@?$CEncrypt@M@@QAEXPAM@Z ; CEncrypt<float>::DecryptValueToPool
  00165	f3 0f 10 85 04
	ff ff ff	 movss	 xmm0, DWORD PTR _value$535556[ebp]
  0016d	f3 0f 10 4d cc	 movss	 xmm1, DWORD PTR _vMax$[ebp]
  00172	0f 5a c0	 cvtps2pd xmm0, xmm0
  00175	0f 5a c9	 cvtps2pd xmm1, xmm1

; 242  : 	vMax.z -= m_fCollisionRange;

  00178	8d 85 04 ff ff
	ff		 lea	 eax, DWORD PTR _value$535560[ebp]
  0017e	f2 0f 58 c1	 addsd	 xmm0, xmm1
  00182	66 0f 5a c0	 cvtpd2ps xmm0, xmm0
  00186	50		 push	 eax
  00187	8d 8b bc 08 00
	00		 lea	 ecx, DWORD PTR [ebx+2236]
  0018d	f3 0f 11 45 cc	 movss	 DWORD PTR _vMax$[ebp], xmm0
  00192	e8 00 00 00 00	 call	 ?DecryptValueToPool@?$CEncrypt@M@@QAEXPAM@Z ; CEncrypt<float>::DecryptValueToPool
  00197	f3 0f 10 45 d4	 movss	 xmm0, DWORD PTR _vMax$[ebp+8]
  0019c	f3 0f 10 8d 04
	ff ff ff	 movss	 xmm1, DWORD PTR _value$535560[ebp]
  001a4	0f 5a c0	 cvtps2pd xmm0, xmm0
  001a7	0f 5a c9	 cvtps2pd xmm1, xmm1

; 243  : 
; 244  : 	vMin.x -= m_fCollisionRange;

  001aa	8d 85 04 ff ff
	ff		 lea	 eax, DWORD PTR _value$535564[ebp]
  001b0	f2 0f 5c c1	 subsd	 xmm0, xmm1
  001b4	66 0f 5a c0	 cvtpd2ps xmm0, xmm0
  001b8	50		 push	 eax
  001b9	8d 8b bc 08 00
	00		 lea	 ecx, DWORD PTR [ebx+2236]
  001bf	f3 0f 11 45 d4	 movss	 DWORD PTR _vMax$[ebp+8], xmm0
  001c4	e8 00 00 00 00	 call	 ?DecryptValueToPool@?$CEncrypt@M@@QAEXPAM@Z ; CEncrypt<float>::DecryptValueToPool
  001c9	f3 0f 10 45 a8	 movss	 xmm0, DWORD PTR _vMin$[ebp]
  001ce	f3 0f 10 8d 04
	ff ff ff	 movss	 xmm1, DWORD PTR _value$535564[ebp]
  001d6	0f 5a c0	 cvtps2pd xmm0, xmm0
  001d9	0f 5a c9	 cvtps2pd xmm1, xmm1

; 245  : 	vMin.z += m_fCollisionRange;

  001dc	8d 85 04 ff ff
	ff		 lea	 eax, DWORD PTR _value$535568[ebp]
  001e2	f2 0f 5c c1	 subsd	 xmm0, xmm1
  001e6	66 0f 5a c0	 cvtpd2ps xmm0, xmm0
  001ea	50		 push	 eax
  001eb	8d 8b bc 08 00
	00		 lea	 ecx, DWORD PTR [ebx+2236]
  001f1	f3 0f 11 45 a8	 movss	 DWORD PTR _vMin$[ebp], xmm0
  001f6	e8 00 00 00 00	 call	 ?DecryptValueToPool@?$CEncrypt@M@@QAEXPAM@Z ; CEncrypt<float>::DecryptValueToPool
  001fb	f3 0f 10 4d b0	 movss	 xmm1, DWORD PTR _vMin$[ebp+8]
  00200	f3 0f 10 85 04
	ff ff ff	 movss	 xmm0, DWORD PTR _value$535568[ebp]
  00208	0f 5a c0	 cvtps2pd xmm0, xmm0
  0020b	0f 5a c9	 cvtps2pd xmm1, xmm1
  0020e	f2 0f 58 c1	 addsd	 xmm0, xmm1
  00212	66 0f 5a c0	 cvtpd2ps xmm0, xmm0

; 246  : 
; 247  : 	//  
; 248  : 	ioOrientBox kBuffBox;

  00216	8d 8d 38 ff ff
	ff		 lea	 ecx, DWORD PTR _kBuffBox$[ebp]
  0021c	f3 0f 11 45 b0	 movss	 DWORD PTR _vMin$[ebp+8], xmm0
  00221	ff 15 00 00 00
	00		 call	 DWORD PTR __imp_??0ioOrientBox@@QAE@XZ

; 249  : 	kBuffBox.SetBoxByMinMax( vMin, vMax );

  00227	8d 45 cc	 lea	 eax, DWORD PTR _vMax$[ebp]
  0022a	50		 push	 eax
  0022b	8d 45 a8	 lea	 eax, DWORD PTR _vMin$[ebp]
  0022e	50		 push	 eax
  0022f	8d 8d 38 ff ff
	ff		 lea	 ecx, DWORD PTR _kBuffBox$[ebp]
  00235	c6 45 fc 01	 mov	 BYTE PTR __$EHRec$[ebp+8], 1
  00239	ff 15 00 00 00
	00		 call	 DWORD PTR __imp_?SetBoxByMinMax@ioOrientBox@@QAEXABUD3DXVECTOR3@@0@Z

; 250  : 
; 251  : 	#ifndef SHIPPING
; 252  : 	kBuffBox.GetVertices( ioBaseChar::m_vRangeBoxArrayForTest );
; 253  : 	#endif
; 254  : 
; 255  : 
; 256  : 	D3DXVECTOR3 vCollisionPoint;
; 257  : 	if( !pEntity->CheckCylinderPoint( kCylinder, vCenter, vCollisionPoint ) )

  0023f	8b 8d f4 fe ff
	ff		 mov	 ecx, DWORD PTR _pEntity$GSCopy$[ebp]
  00245	8b 01		 mov	 eax, DWORD PTR [ecx]
  00247	8d 55 9c	 lea	 edx, DWORD PTR _vCollisionPoint$[ebp]
  0024a	52		 push	 edx
  0024b	8d 55 d8	 lea	 edx, DWORD PTR _vCenter$[ebp]
  0024e	52		 push	 edx
  0024f	8d 95 7c ff ff
	ff		 lea	 edx, DWORD PTR _kCylinder$[ebp]
  00255	52		 push	 edx
  00256	ff 90 a0 00 00
	00		 call	 DWORD PTR [eax+160]
  0025c	84 c0		 test	 al, al
  0025e	75 25		 jne	 SHORT $LN5@CheckColli@3
$LN73@CheckColli@3:

; 258  : 		return false;

  00260	8d 8d 38 ff ff
	ff		 lea	 ecx, DWORD PTR _kBuffBox$[ebp]
  00266	c6 45 fc 00	 mov	 BYTE PTR __$EHRec$[ebp+8], 0
  0026a	ff 15 00 00 00
	00		 call	 DWORD PTR __imp_??1ioOrientBox@@QAE@XZ
  00270	83 4d fc ff	 or	 DWORD PTR __$EHRec$[ebp+8], -1
  00274	8d 8d 7c ff ff
	ff		 lea	 ecx, DWORD PTR _kCylinder$[ebp]
  0027a	ff 15 00 00 00
	00		 call	 DWORD PTR __imp_??1ioCylinder@@QAE@XZ
  00280	e9 d7 fd ff ff	 jmp	 $LN72@CheckColli@3
$LN5@CheckColli@3:

; 259  : 
; 260  : 	//   
; 261  : 	D3DXVECTOR3 vDiff1 = vCollisionPoint - vCenter;

  00285	f3 0f 10 45 9c	 movss	 xmm0, DWORD PTR _vCollisionPoint$[ebp]
  0028a	f3 0f 10 4d d8	 movss	 xmm1, DWORD PTR _vCenter$[ebp]
  0028f	f3 0f 10 55 e0	 movss	 xmm2, DWORD PTR _vCenter$[ebp+8]
  00294	0f 5a c0	 cvtps2pd xmm0, xmm0
  00297	0f 5a c9	 cvtps2pd xmm1, xmm1
  0029a	f2 0f 5c c1	 subsd	 xmm0, xmm1
  0029e	f3 0f 10 4d a4	 movss	 xmm1, DWORD PTR _vCollisionPoint$[ebp+8]
  002a3	66 0f 5a c0	 cvtpd2ps xmm0, xmm0
  002a7	f3 0f 11 45 e4	 movss	 DWORD PTR _vDiff1$[ebp], xmm0
  002ac	0f 5a d2	 cvtps2pd xmm2, xmm2

; 262  : 	vDiff1.y = 0.0f;
; 263  : 
; 264  : 	float fTargetDist = D3DXVec3LengthSq( &vDiff1 );

  002af	f3 0f 5a c0	 cvtss2sd xmm0, xmm0
  002b3	0f 5a c9	 cvtps2pd xmm1, xmm1
  002b6	f2 0f 5c ca	 subsd	 xmm1, xmm2
  002ba	0f 57 d2	 xorps	 xmm2, xmm2
  002bd	f2 0f 59 c0	 mulsd	 xmm0, xmm0
  002c1	f2 0f 11 85 fc
	fe ff ff	 movsd	 QWORD PTR tv616[ebp], xmm0
  002c9	0f 57 c0	 xorps	 xmm0, xmm0
  002cc	66 0f 5a c9	 cvtpd2ps xmm1, xmm1
  002d0	f3 0f 11 55 e8	 movss	 DWORD PTR _vDiff1$[ebp+4], xmm2
  002d5	f2 0f 10 95 fc
	fe ff ff	 movsd	 xmm2, QWORD PTR tv616[ebp]
  002dd	f3 0f 11 4d ec	 movss	 DWORD PTR _vDiff1$[ebp+8], xmm1
  002e2	f2 0f 59 c0	 mulsd	 xmm0, xmm0
  002e6	f2 0f 58 d0	 addsd	 xmm2, xmm0
  002ea	f3 0f 5a c9	 cvtss2sd xmm1, xmm1
  002ee	f2 0f 59 c9	 mulsd	 xmm1, xmm1

; 265  : 	float fRangeSq = m_fCollisionRange * m_fCollisionRange;

  002f2	8d 85 f8 fe ff
	ff		 lea	 eax, DWORD PTR _value$535589[ebp]
  002f8	f2 0f 58 d1	 addsd	 xmm2, xmm1
  002fc	0f 57 c0	 xorps	 xmm0, xmm0
  002ff	66 0f 5a c2	 cvtpd2ps xmm0, xmm2
  00303	50		 push	 eax
  00304	8d 8b bc 08 00
	00		 lea	 ecx, DWORD PTR [ebx+2236]
  0030a	f3 0f 11 85 04
	ff ff ff	 movss	 DWORD PTR _fTargetDist$[ebp], xmm0
  00312	e8 00 00 00 00	 call	 ?DecryptValueToPool@?$CEncrypt@M@@QAEXPAM@Z ; CEncrypt<float>::DecryptValueToPool
  00317	8d 85 f4 fe ff
	ff		 lea	 eax, DWORD PTR _value$535593[ebp]
  0031d	50		 push	 eax
  0031e	8d 8b bc 08 00
	00		 lea	 ecx, DWORD PTR [ebx+2236]
  00324	e8 00 00 00 00	 call	 ?DecryptValueToPool@?$CEncrypt@M@@QAEXPAM@Z ; CEncrypt<float>::DecryptValueToPool
  00329	f3 0f 10 85 f4
	fe ff ff	 movss	 xmm0, DWORD PTR _value$535593[ebp]
  00331	f3 0f 10 8d f8
	fe ff ff	 movss	 xmm1, DWORD PTR _value$535589[ebp]
  00339	0f 5a c0	 cvtps2pd xmm0, xmm0
  0033c	0f 5a c9	 cvtps2pd xmm1, xmm1

; 266  : 	float fInRangeSq = m_fCollisionInRange * m_fCollisionInRange;

  0033f	8d 85 f4 fe ff
	ff		 lea	 eax, DWORD PTR _value$535597[ebp]
  00345	f2 0f 59 c1	 mulsd	 xmm0, xmm1
  00349	66 0f 5a c0	 cvtpd2ps xmm0, xmm0
  0034d	50		 push	 eax
  0034e	8d 8b ec 08 00
	00		 lea	 ecx, DWORD PTR [ebx+2284]
  00354	f3 0f 11 85 00
	ff ff ff	 movss	 DWORD PTR _fRangeSq$[ebp], xmm0
  0035c	e8 00 00 00 00	 call	 ?DecryptValueToPool@?$CEncrypt@M@@QAEXPAM@Z ; CEncrypt<float>::DecryptValueToPool
  00361	8d 85 f8 fe ff
	ff		 lea	 eax, DWORD PTR _value$535601[ebp]
  00367	50		 push	 eax
  00368	8d 8b ec 08 00
	00		 lea	 ecx, DWORD PTR [ebx+2284]
  0036e	e8 00 00 00 00	 call	 ?DecryptValueToPool@?$CEncrypt@M@@QAEXPAM@Z ; CEncrypt<float>::DecryptValueToPool
  00373	f3 0f 10 85 f8
	fe ff ff	 movss	 xmm0, DWORD PTR _value$535601[ebp]
  0037b	f3 0f 10 8d f4
	fe ff ff	 movss	 xmm1, DWORD PTR _value$535597[ebp]
  00383	0f 5a c0	 cvtps2pd xmm0, xmm0
  00386	0f 5a c9	 cvtps2pd xmm1, xmm1
  00389	f2 0f 59 c1	 mulsd	 xmm0, xmm1

; 267  : 
; 268  : 	if( fTargetDist > fRangeSq )

  0038d	f3 0f 10 8d 00
	ff ff ff	 movss	 xmm1, DWORD PTR _fRangeSq$[ebp]
  00395	66 0f 5a c0	 cvtpd2ps xmm0, xmm0
  00399	f3 0f 11 85 f8
	fe ff ff	 movss	 DWORD PTR _fInRangeSq$[ebp], xmm0
  003a1	f3 0f 10 85 04
	ff ff ff	 movss	 xmm0, DWORD PTR _fTargetDist$[ebp]
  003a9	0f 5a c0	 cvtps2pd xmm0, xmm0
  003ac	0f 5a c9	 cvtps2pd xmm1, xmm1
  003af	66 0f 2f c1	 comisd	 xmm0, xmm1

; 269  : 		return false;

  003b3	0f 87 a7 fe ff
	ff		 ja	 $LN73@CheckColli@3

; 270  : 
; 271  : 	if( m_fCollisionInRange > 0.0f && fTargetDist < fInRangeSq )

  003b9	8d 85 00 ff ff
	ff		 lea	 eax, DWORD PTR _value$535609[ebp]
  003bf	50		 push	 eax
  003c0	8d 8b ec 08 00
	00		 lea	 ecx, DWORD PTR [ebx+2284]
  003c6	e8 00 00 00 00	 call	 ?DecryptValueToPool@?$CEncrypt@M@@QAEXPAM@Z ; CEncrypt<float>::DecryptValueToPool
  003cb	f3 0f 10 85 00
	ff ff ff	 movss	 xmm0, DWORD PTR _value$535609[ebp]
  003d3	0f 2f 05 00 00
	00 00		 comiss	 xmm0, DWORD PTR __real@00000000
  003da	76 20		 jbe	 SHORT $LN3@CheckColli@3
  003dc	f3 0f 10 85 04
	ff ff ff	 movss	 xmm0, DWORD PTR _fTargetDist$[ebp]
  003e4	f3 0f 10 8d f8
	fe ff ff	 movss	 xmm1, DWORD PTR _fInRangeSq$[ebp]
  003ec	0f 5a c0	 cvtps2pd xmm0, xmm0
  003ef	0f 5a c9	 cvtps2pd xmm1, xmm1
  003f2	66 0f 2f c8	 comisd	 xmm1, xmm0

; 272  : 		return false;

  003f6	0f 87 64 fe ff
	ff		 ja	 $LN73@CheckColli@3
$LN3@CheckColli@3:

; 273  : 
; 274  : 	//   
; 275  : 	float fHalfCosine = cosf( DEGtoRAD( m_fAreaAngle ) * FLOAT05 );

  003fc	b8 05 00 00 00	 mov	 eax, 5
  00401	8b c8		 mov	 ecx, eax
  00403	b8 0a 00 00 00	 mov	 eax, 10			; 0000000aH
  00408	89 8d 00 ff ff
	ff		 mov	 DWORD PTR tv494[ebp], ecx
  0040e	db 85 00 ff ff
	ff		 fild	 DWORD PTR tv494[ebp]
  00414	85 c9		 test	 ecx, ecx
  00416	79 06		 jns	 SHORT $LN70@CheckColli@3
  00418	d8 05 00 00 00
	00		 fadd	 DWORD PTR __real@4f800000
$LN70@CheckColli@3:
  0041e	89 85 00 ff ff
	ff		 mov	 DWORD PTR tv414[ebp], eax
  00424	db 85 00 ff ff
	ff		 fild	 DWORD PTR tv414[ebp]
  0042a	85 c0		 test	 eax, eax
  0042c	79 06		 jns	 SHORT $LN71@CheckColli@3
  0042e	d8 05 00 00 00
	00		 fadd	 DWORD PTR __real@4f800000
$LN71@CheckColli@3:
  00434	de f9		 fdivp	 ST(1), ST(0)
  00436	8d 85 00 ff ff
	ff		 lea	 eax, DWORD PTR $T535520[ebp]
  0043c	50		 push	 eax
  0043d	83 ec 30	 sub	 esp, 48			; 00000030H
  00440	8d 83 1c 09 00
	00		 lea	 eax, DWORD PTR [ebx+2332]
  00446	8b cc		 mov	 ecx, esp
  00448	89 a5 f8 fe ff
	ff		 mov	 DWORD PTR $T535519[ebp], esp
  0044e	50		 push	 eax
  0044f	d9 9d 00 ff ff
	ff		 fstp	 DWORD PTR tv157[ebp]
  00455	d9 85 00 ff ff
	ff		 fld	 DWORD PTR tv157[ebp]
  0045b	d9 9d 00 ff ff
	ff		 fstp	 DWORD PTR $T535520[ebp]
  00461	e8 00 00 00 00	 call	 ??0?$CEncrypt@M@@QAE@ABV0@@Z ; CEncrypt<float>::CEncrypt<float>
  00466	8d 85 08 ff ff
	ff		 lea	 eax, DWORD PTR $T531210[ebp]
  0046c	50		 push	 eax
  0046d	e8 00 00 00 00	 call	 ??$DEGtoRAD@V?$CEncrypt@M@@@@YA?AV?$CEncrypt@M@@V0@@Z ; DEGtoRAD<CEncrypt<float> >
  00472	83 c4 34	 add	 esp, 52			; 00000034H
  00475	8b c8		 mov	 ecx, eax
  00477	c6 45 fc 02	 mov	 BYTE PTR __$EHRec$[ebp+8], 2
  0047b	e8 00 00 00 00	 call	 ??D?$CEncrypt@M@@QAEMABM@Z ; CEncrypt<float>::operator*
  00480	d9 9d 00 ff ff
	ff		 fstp	 DWORD PTR $T535621[ebp]
  00486	d9 85 00 ff ff
	ff		 fld	 DWORD PTR $T535621[ebp]
  0048c	e8 00 00 00 00	 call	 __CIcos
  00491	d9 9d 00 ff ff
	ff		 fstp	 DWORD PTR tv144[ebp]
  00497	d9 85 00 ff ff
	ff		 fld	 DWORD PTR tv144[ebp]
  0049d	8d 8d 14 ff ff
	ff		 lea	 ecx, DWORD PTR $T531210[ebp+12]
  004a3	d9 9d f8 fe ff
	ff		 fstp	 DWORD PTR _fHalfCosine$[ebp]
  004a9	c6 45 fc 01	 mov	 BYTE PTR __$EHRec$[ebp+8], 1
  004ad	c7 85 08 ff ff
	ff 00 00 00 00	 mov	 DWORD PTR $T531210[ebp], OFFSET ??_7?$CEncrypt@M@@6B@
  004b7	e8 00 00 00 00	 call	 ??1ccddaabb@@UAE@XZ	; ccddaabb::~ccddaabb

; 276  : 	D3DXVec3Normalize( &vDiff1, &vDiff1 );

  004bc	8d 45 e4	 lea	 eax, DWORD PTR _vDiff1$[ebp]
  004bf	50		 push	 eax
  004c0	50		 push	 eax
  004c1	e8 00 00 00 00	 call	 _D3DXVec3Normalize@8

; 277  : 
; 278  : 	if( D3DXVec3Dot( &m_vCollisionDir, &vDiff1 ) < fHalfCosine )

  004c6	d9 83 e0 09 00
	00		 fld	 DWORD PTR [ebx+2528]
  004cc	d8 4d e8	 fmul	 DWORD PTR _vDiff1$[ebp+4]
  004cf	d9 83 dc 09 00
	00		 fld	 DWORD PTR [ebx+2524]
  004d5	d8 4d e4	 fmul	 DWORD PTR _vDiff1$[ebp]
  004d8	de c1		 faddp	 ST(1), ST(0)
  004da	d9 83 e4 09 00
	00		 fld	 DWORD PTR [ebx+2532]
  004e0	d8 4d ec	 fmul	 DWORD PTR _vDiff1$[ebp+8]
  004e3	de c1		 faddp	 ST(1), ST(0)
  004e5	d9 9d 00 ff ff
	ff		 fstp	 DWORD PTR tv132[ebp]
  004eb	d9 85 00 ff ff
	ff		 fld	 DWORD PTR tv132[ebp]
  004f1	d9 85 f8 fe ff
	ff		 fld	 DWORD PTR _fHalfCosine$[ebp]
  004f7	df f1		 fcomip	 ST(1)
  004f9	dd d8		 fstp	 ST(0)
  004fb	76 29		 jbe	 SHORT $LN2@CheckColli@3
$LN1@CheckColli@3:
  004fd	32 db		 xor	 bl, bl
$LN67@CheckColli@3:

; 279  : 		return false;

  004ff	8d 8d 38 ff ff
	ff		 lea	 ecx, DWORD PTR _kBuffBox$[ebp]
  00505	c6 45 fc 00	 mov	 BYTE PTR __$EHRec$[ebp+8], 0
  00509	ff 15 00 00 00
	00		 call	 DWORD PTR __imp_??1ioOrientBox@@QAE@XZ
  0050f	83 4d fc ff	 or	 DWORD PTR __$EHRec$[ebp+8], -1
  00513	8d 8d 7c ff ff
	ff		 lea	 ecx, DWORD PTR _kCylinder$[ebp]
  00519	ff 15 00 00 00
	00		 call	 DWORD PTR __imp_??1ioCylinder@@QAE@XZ
  0051f	8a c3		 mov	 al, bl
  00521	e9 38 fb ff ff	 jmp	 $LN7@CheckColli@3
$LN2@CheckColli@3:

; 280  : 
; 281  : 	//  
; 282  : 	if( vCollisionPoint.y >= vBottom.y && vCollisionPoint.y <= vTop.y )

  00526	f3 0f 10 45 a0	 movss	 xmm0, DWORD PTR _vCollisionPoint$[ebp+4]
  0052b	f3 0f 10 4d c4	 movss	 xmm1, DWORD PTR _vBottom$[ebp+4]
  00530	0f 5a c0	 cvtps2pd xmm0, xmm0
  00533	0f 5a c9	 cvtps2pd xmm1, xmm1
  00536	66 0f 2f c1	 comisd	 xmm0, xmm1
  0053a	72 c1		 jb	 SHORT $LN1@CheckColli@3
  0053c	f3 0f 10 45 a0	 movss	 xmm0, DWORD PTR _vCollisionPoint$[ebp+4]
  00541	f3 0f 10 4d b8	 movss	 xmm1, DWORD PTR _vTop$[ebp+4]
  00546	0f 5a c0	 cvtps2pd xmm0, xmm0
  00549	0f 5a c9	 cvtps2pd xmm1, xmm1
  0054c	66 0f 2f c8	 comisd	 xmm1, xmm0
  00550	72 ab		 jb	 SHORT $LN1@CheckColli@3
  00552	b3 01		 mov	 bl, 1
  00554	eb a9		 jmp	 SHORT $LN67@CheckColli@3
_TEXT	ENDS
;	COMDAT text$x
text$x	SEGMENT
__unwindfunclet$?CheckCollisionCylinder@ioAreaEffectWeapon@@QAE_NPAVioPlayEntity@@@Z$0:
  00000	8d 8d 7c ff ff
	ff		 lea	 ecx, DWORD PTR _kCylinder$[ebp]
  00006	ff 25 00 00 00
	00		 jmp	 DWORD PTR __imp_??1ioCylinder@@QAE@XZ
__unwindfunclet$?CheckCollisionCylinder@ioAreaEffectWeapon@@QAE_NPAVioPlayEntity@@@Z$1:
  0000c	8d 8d 38 ff ff
	ff		 lea	 ecx, DWORD PTR _kBuffBox$[ebp]
  00012	ff 25 00 00 00
	00		 jmp	 DWORD PTR __imp_??1ioOrientBox@@QAE@XZ
__unwindfunclet$?CheckCollisionCylinder@ioAreaEffectWeapon@@QAE_NPAVioPlayEntity@@@Z$3:
  00018	8d 8d 08 ff ff
	ff		 lea	 ecx, DWORD PTR $T531210[ebp]
  0001e	e9 00 00 00 00	 jmp	 ??1?$CEncrypt@M@@UAE@XZ	; CEncrypt<float>::~CEncrypt<float>
__ehhandler$?CheckCollisionCylinder@ioAreaEffectWeapon@@QAE_NPAVioPlayEntity@@@Z:
  00023	8b 54 24 08	 mov	 edx, DWORD PTR [esp+8]
  00027	8d 42 0c	 lea	 eax, DWORD PTR [edx+12]
  0002a	8b 8a f0 fe ff
	ff		 mov	 ecx, DWORD PTR [edx-272]
  00030	33 c8		 xor	 ecx, eax
  00032	e8 00 00 00 00	 call	 @__security_check_cookie@4
  00037	8b 4a fc	 mov	 ecx, DWORD PTR [edx-4]
  0003a	33 c8		 xor	 ecx, eax
  0003c	e8 00 00 00 00	 call	 @__security_check_cookie@4
  00041	b8 00 00 00 00	 mov	 eax, OFFSET __ehfuncinfo$?CheckCollisionCylinder@ioAreaEffectWeapon@@QAE_NPAVioPlayEntity@@@Z
  00046	e9 00 00 00 00	 jmp	 ___CxxFrameHandler3
text$x	ENDS
?CheckCollisionCylinder@ioAreaEffectWeapon@@QAE_NPAVioPlayEntity@@@Z ENDP ; ioAreaEffectWeapon::CheckCollisionCylinder
PUBLIC	?_Insert@?$list@PAVioPlayEntity@@V?$allocator@PAVioPlayEntity@@@std@@@std@@QAEXV?$_List_const_iterator@V?$_List_val@PAVioPlayEntity@@V?$allocator@PAVioPlayEntity@@@std@@@std@@@2@ABQAVioPlayEntity@@@Z ; std::list<ioPlayEntity *,std::allocator<ioPlayEntity *> >::_Insert
; Function compile flags: /Ogsp
; File c:\program files (x86)\microsoft visual studio 10.0\vc\include\list
;	COMDAT ?_Insert@?$list@PAVioPlayEntity@@V?$allocator@PAVioPlayEntity@@@std@@@std@@QAEXV?$_List_const_iterator@V?$_List_val@PAVioPlayEntity@@V?$allocator@PAVioPlayEntity@@@std@@@std@@@2@ABQAVioPlayEntity@@@Z
_TEXT	SEGMENT
__Where$ = 8						; size = 4
__Val$ = 12						; size = 4
?_Insert@?$list@PAVioPlayEntity@@V?$allocator@PAVioPlayEntity@@@std@@@std@@QAEXV?$_List_const_iterator@V?$_List_val@PAVioPlayEntity@@V?$allocator@PAVioPlayEntity@@@std@@@std@@@2@ABQAVioPlayEntity@@@Z PROC ; std::list<ioPlayEntity *,std::allocator<ioPlayEntity *> >::_Insert, COMDAT
; _this$ = ecx

; 967  : 		{	// insert _Val at _Where

  00000	55		 push	 ebp
  00001	8b ec		 mov	 ebp, esp

; 968  :  #if _ITERATOR_DEBUG_LEVEL == 2
; 969  : 		if (_Where._Getcont() != this)
; 970  : 			_DEBUG_ERROR("list insert iterator outside range");
; 971  :  #endif /* _ITERATOR_DEBUG_LEVEL == 2 */
; 972  : 
; 973  : 		_Nodeptr _Pnode = _Where._Mynode();
; 974  : 		_Nodeptr _Newnode =
; 975  : 			this->_Buynode(_Pnode, this->_Prevnode(_Pnode), _Val);

  00003	8b 45 08	 mov	 eax, DWORD PTR __Where$[ebp]
  00006	53		 push	 ebx
  00007	56		 push	 esi
  00008	57		 push	 edi
  00009	ff 75 0c	 push	 DWORD PTR __Val$[ebp]
  0000c	8d 78 04	 lea	 edi, DWORD PTR [eax+4]
  0000f	ff 37		 push	 DWORD PTR [edi]
  00011	8b d9		 mov	 ebx, ecx
  00013	50		 push	 eax
  00014	e8 00 00 00 00	 call	 ?_Buynode@?$_List_val@PAVioPlayEntity@@V?$allocator@PAVioPlayEntity@@@std@@@std@@QAEPAU_Node@?$_List_nod@PAVioPlayEntity@@V?$allocator@PAVioPlayEntity@@@std@@@2@PAU342@0ABQAVioPlayEntity@@@Z ; std::_List_val<ioPlayEntity *,std::allocator<ioPlayEntity *> >::_Buynode

; 976  : 		_Incsize(1);

  00019	6a 01		 push	 1
  0001b	8b cb		 mov	 ecx, ebx
  0001d	8b f0		 mov	 esi, eax
  0001f	e8 00 00 00 00	 call	 ?_Incsize@?$list@PAVioPlayEntity@@V?$allocator@PAVioPlayEntity@@@std@@@std@@QAEXI@Z ; std::list<ioPlayEntity *,std::allocator<ioPlayEntity *> >::_Incsize

; 977  : 		this->_Prevnode(_Pnode) = _Newnode;

  00024	89 37		 mov	 DWORD PTR [edi], esi

; 978  : 		this->_Nextnode(this->_Prevnode(_Newnode)) = _Newnode;

  00026	8b 46 04	 mov	 eax, DWORD PTR [esi+4]
  00029	5f		 pop	 edi
  0002a	89 30		 mov	 DWORD PTR [eax], esi
  0002c	5e		 pop	 esi
  0002d	5b		 pop	 ebx

; 979  : 		}

  0002e	5d		 pop	 ebp
  0002f	c2 08 00	 ret	 8
?_Insert@?$list@PAVioPlayEntity@@V?$allocator@PAVioPlayEntity@@@std@@@std@@QAEXV?$_List_const_iterator@V?$_List_val@PAVioPlayEntity@@V?$allocator@PAVioPlayEntity@@@std@@@std@@@2@ABQAVioPlayEntity@@@Z ENDP ; std::list<ioPlayEntity *,std::allocator<ioPlayEntity *> >::_Insert
_TEXT	ENDS
PUBLIC	?_Tidy@?$list@PAVioPlayEntity@@V?$allocator@PAVioPlayEntity@@@std@@@std@@QAEXXZ ; std::list<ioPlayEntity *,std::allocator<ioPlayEntity *> >::_Tidy
; Function compile flags: /Ogsp
;	COMDAT ?_Tidy@?$list@PAVioPlayEntity@@V?$allocator@PAVioPlayEntity@@@std@@@std@@QAEXXZ
_TEXT	SEGMENT
?_Tidy@?$list@PAVioPlayEntity@@V?$allocator@PAVioPlayEntity@@@std@@@std@@QAEXXZ PROC ; std::list<ioPlayEntity *,std::allocator<ioPlayEntity *> >::_Tidy, COMDAT
; _this$ = ecx

; 1497 : 		clear();

  00000	e9 00 00 00 00	 jmp	 ?clear@?$list@PAVioPlayEntity@@V?$allocator@PAVioPlayEntity@@@std@@@std@@QAEXXZ ; std::list<ioPlayEntity *,std::allocator<ioPlayEntity *> >::clear
?_Tidy@?$list@PAVioPlayEntity@@V?$allocator@PAVioPlayEntity@@@std@@@std@@QAEXXZ ENDP ; std::list<ioPlayEntity *,std::allocator<ioPlayEntity *> >::_Tidy
_TEXT	ENDS
PUBLIC	??$_Destroy_range@V?$allocator@UstWantCheckList@ioAreaEffectWeapon@@@std@@@std@@YAXPAUstWantCheckList@ioAreaEffectWeapon@@0AAV?$allocator@UstWantCheckList@ioAreaEffectWeapon@@@0@U_Nonscalar_ptr_iterator_tag@0@@Z ; std::_Destroy_range<std::allocator<ioAreaEffectWeapon::stWantCheckList> >
; Function compile flags: /Ogsp
; File c:\program files (x86)\microsoft visual studio 10.0\vc\include\xmemory
;	COMDAT ??$_Destroy_range@V?$allocator@UstWantCheckList@ioAreaEffectWeapon@@@std@@@std@@YAXPAUstWantCheckList@ioAreaEffectWeapon@@0AAV?$allocator@UstWantCheckList@ioAreaEffectWeapon@@@0@U_Nonscalar_ptr_iterator_tag@0@@Z
_TEXT	SEGMENT
__First$ = 8						; size = 4
__Last$ = 12						; size = 4
__Al$ = 16						; size = 4
___formal$ = 20						; size = 1
??$_Destroy_range@V?$allocator@UstWantCheckList@ioAreaEffectWeapon@@@std@@@std@@YAXPAUstWantCheckList@ioAreaEffectWeapon@@0AAV?$allocator@UstWantCheckList@ioAreaEffectWeapon@@@0@U_Nonscalar_ptr_iterator_tag@0@@Z PROC ; std::_Destroy_range<std::allocator<ioAreaEffectWeapon::stWantCheckList> >, COMDAT

; 95   : 	{	// destroy [_First, _Last), arbitrary type

  00000	55		 push	 ebp
  00001	8b ec		 mov	 ebp, esp
  00003	56		 push	 esi

; 96   : 	for (; _First != _Last; ++_First)

  00004	8b 75 08	 mov	 esi, DWORD PTR __First$[ebp]
  00007	eb 0b		 jmp	 SHORT $LN20@Destroy_ra
$LL3@Destroy_ra:

; 97   : 		_Dest_val(_Al, _First);

  00009	8b ce		 mov	 ecx, esi
  0000b	ff 15 00 00 00
	00		 call	 DWORD PTR __imp_??1ioHashString@@QAE@XZ
  00011	83 c6 14	 add	 esi, 20			; 00000014H
$LN20@Destroy_ra:

; 96   : 	for (; _First != _Last; ++_First)

  00014	3b 75 0c	 cmp	 esi, DWORD PTR __Last$[ebp]
  00017	75 f0		 jne	 SHORT $LL3@Destroy_ra
  00019	5e		 pop	 esi

; 98   : 	}

  0001a	5d		 pop	 ebp
  0001b	c3		 ret	 0
??$_Destroy_range@V?$allocator@UstWantCheckList@ioAreaEffectWeapon@@@std@@@std@@YAXPAUstWantCheckList@ioAreaEffectWeapon@@0AAV?$allocator@UstWantCheckList@ioAreaEffectWeapon@@@0@U_Nonscalar_ptr_iterator_tag@0@@Z ENDP ; std::_Destroy_range<std::allocator<ioAreaEffectWeapon::stWantCheckList> >
_TEXT	ENDS
PUBLIC	??$_Uninit_move@PAVioHashString@@PAV1@V?$allocator@VioHashString@@@std@@V1@@std@@YAPAVioHashString@@PAV1@00AAV?$allocator@VioHashString@@@0@0U_Nonscalar_ptr_iterator_tag@0@@Z ; std::_Uninit_move<ioHashString *,ioHashString *,std::allocator<ioHashString>,ioHashString>
EXTRN	__EH_prolog3_catch:PROC
;	COMDAT xdata$x
; File c:\program files (x86)\microsoft visual studio 10.0\vc\include\vector
xdata$x	SEGMENT
__catchsym$??$_Uninit_move@PAVioHashString@@PAV1@V?$allocator@VioHashString@@@std@@V1@@std@@YAPAVioHashString@@PAV1@00AAV?$allocator@VioHashString@@@0@0U_Nonscalar_ptr_iterator_tag@0@@Z$2 DD 040H
	DD	00H
	DD	00H
	DD	FLAT:__catch$??$_Uninit_move@PAVioHashString@@PAV1@V?$allocator@VioHashString@@@std@@V1@@std@@YAPAVioHashString@@PAV1@00AAV?$allocator@VioHashString@@@0@0U_Nonscalar_ptr_iterator_tag@0@@Z$0
__unwindtable$??$_Uninit_move@PAVioHashString@@PAV1@V?$allocator@VioHashString@@@std@@V1@@std@@YAPAVioHashString@@PAV1@00AAV?$allocator@VioHashString@@@0@0U_Nonscalar_ptr_iterator_tag@0@@Z DD 0ffffffffH
	DD	00H
	DD	0ffffffffH
	DD	00H
__tryblocktable$??$_Uninit_move@PAVioHashString@@PAV1@V?$allocator@VioHashString@@@std@@V1@@std@@YAPAVioHashString@@PAV1@00AAV?$allocator@VioHashString@@@0@0U_Nonscalar_ptr_iterator_tag@0@@Z DD 00H
	DD	00H
	DD	01H
	DD	01H
	DD	FLAT:__catchsym$??$_Uninit_move@PAVioHashString@@PAV1@V?$allocator@VioHashString@@@std@@V1@@std@@YAPAVioHashString@@PAV1@00AAV?$allocator@VioHashString@@@0@0U_Nonscalar_ptr_iterator_tag@0@@Z$2
__ehfuncinfo$??$_Uninit_move@PAVioHashString@@PAV1@V?$allocator@VioHashString@@@std@@V1@@std@@YAPAVioHashString@@PAV1@00AAV?$allocator@VioHashString@@@0@0U_Nonscalar_ptr_iterator_tag@0@@Z DD 019930522H
	DD	02H
	DD	FLAT:__unwindtable$??$_Uninit_move@PAVioHashString@@PAV1@V?$allocator@VioHashString@@@std@@V1@@std@@YAPAVioHashString@@PAV1@00AAV?$allocator@VioHashString@@@0@0U_Nonscalar_ptr_iterator_tag@0@@Z
	DD	01H
	DD	FLAT:__tryblocktable$??$_Uninit_move@PAVioHashString@@PAV1@V?$allocator@VioHashString@@@std@@V1@@std@@YAPAVioHashString@@PAV1@00AAV?$allocator@VioHashString@@@0@0U_Nonscalar_ptr_iterator_tag@0@@Z
	DD	2 DUP(00H)
	DD	00H
	DD	01H
; Function compile flags: /Ogsp
; File c:\program files (x86)\microsoft visual studio 10.0\vc\include\memory
xdata$x	ENDS
;	COMDAT ??$_Uninit_move@PAVioHashString@@PAV1@V?$allocator@VioHashString@@@std@@V1@@std@@YAPAVioHashString@@PAV1@00AAV?$allocator@VioHashString@@@0@0U_Nonscalar_ptr_iterator_tag@0@@Z
_TEXT	SEGMENT
__Next$ = -20						; size = 4
__$EHRec$ = -16						; size = 16
__First$ = 8						; size = 4
__Last$ = 12						; size = 4
__Dest$ = 16						; size = 4
__Al$ = 20						; size = 4
___formal$ = 24						; size = 4
___formal$ = 28						; size = 1
??$_Uninit_move@PAVioHashString@@PAV1@V?$allocator@VioHashString@@@std@@V1@@std@@YAPAVioHashString@@PAV1@00AAV?$allocator@VioHashString@@@0@0U_Nonscalar_ptr_iterator_tag@0@@Z PROC ; std::_Uninit_move<ioHashString *,ioHashString *,std::allocator<ioHashString>,ioHashString>, COMDAT

; 424  : 	{	// move [_First, _Last) to raw _Dest, using _Al, arbitrary type

  00000	6a 08		 push	 8
  00002	b8 00 00 00 00	 mov	 eax, __ehhandler$??$_Uninit_move@PAVioHashString@@PAV1@V?$allocator@VioHashString@@@std@@V1@@std@@YAPAVioHashString@@PAV1@00AAV?$allocator@VioHashString@@@0@0U_Nonscalar_ptr_iterator_tag@0@@Z
  00007	e8 00 00 00 00	 call	 __EH_prolog3_catch

; 425  : 	_DEBUG_RANGE(_First, _Last);
; 426  : 	_DEBUG_POINTER(_Dest);
; 427  : 	_FwdIt _Next = _Dest;

  0000c	8b 45 10	 mov	 eax, DWORD PTR __Dest$[ebp]

; 428  : 
; 429  : 	_TRY_BEGIN

  0000f	83 65 fc 00	 and	 DWORD PTR __$EHRec$[ebp+12], 0
  00013	8b 75 08	 mov	 esi, DWORD PTR __First$[ebp]
  00016	89 45 ec	 mov	 DWORD PTR __Next$[ebp], eax
$LL6@Uninit_mov:

; 430  : 	for (; _First != _Last; ++_Dest, ++_First)

  00019	3b 75 0c	 cmp	 esi, DWORD PTR __Last$[ebp]
  0001c	74 33		 je	 SHORT $LN4@Uninit_mov

; 431  : 		_Cons_val(_Al, _Dest, (_Valty &&)*_First);

  0001e	8b 4d 14	 mov	 ecx, DWORD PTR __Al$[ebp]
  00021	56		 push	 esi
  00022	ff 75 10	 push	 DWORD PTR __Dest$[ebp]
  00025	e8 00 00 00 00	 call	 ?construct@?$allocator@VioHashString@@@std@@QAEXPAVioHashString@@$$QAV3@@Z ; std::allocator<ioHashString>::construct
  0002a	83 45 10 10	 add	 DWORD PTR __Dest$[ebp], 16 ; 00000010H
  0002e	83 c6 10	 add	 esi, 16			; 00000010H
  00031	eb e6		 jmp	 SHORT $LL6@Uninit_mov
__catch$??$_Uninit_move@PAVioHashString@@PAV1@V?$allocator@VioHashString@@@std@@V1@@std@@YAPAVioHashString@@PAV1@00AAV?$allocator@VioHashString@@@0@0U_Nonscalar_ptr_iterator_tag@0@@Z$0:

; 432  : 	_CATCH_ALL
; 433  : 	for (; _Next != _Dest; ++_Next)

  00033	8b 75 ec	 mov	 esi, DWORD PTR __Next$[ebp]
  00036	eb 0b		 jmp	 SHORT $LN33@Uninit_mov
$LL3@Uninit_mov:

; 434  : 		_Dest_val(_Al, _Next);

  00038	8b ce		 mov	 ecx, esi
  0003a	ff 15 00 00 00
	00		 call	 DWORD PTR __imp_??1ioHashString@@QAE@XZ
  00040	83 c6 10	 add	 esi, 16			; 00000010H
$LN33@Uninit_mov:

; 432  : 	_CATCH_ALL
; 433  : 	for (; _Next != _Dest; ++_Next)

  00043	3b 75 10	 cmp	 esi, DWORD PTR __Dest$[ebp]
  00046	75 f0		 jne	 SHORT $LL3@Uninit_mov

; 435  : 	_RERAISE;

  00048	6a 00		 push	 0
  0004a	6a 00		 push	 0
  0004c	e8 00 00 00 00	 call	 __CxxThrowException@8
$LN34@Uninit_mov:
$LN4@Uninit_mov:

; 436  : 	_CATCH_END
; 437  : 	return (_Dest);

  00051	8b 45 10	 mov	 eax, DWORD PTR __Dest$[ebp]

; 438  : 	}

  00054	e8 00 00 00 00	 call	 __EH_epilog3
  00059	c3		 ret	 0
$LN32@Uninit_mov:
_TEXT	ENDS
;	COMDAT text$x
text$x	SEGMENT
__ehhandler$??$_Uninit_move@PAVioHashString@@PAV1@V?$allocator@VioHashString@@@std@@V1@@std@@YAPAVioHashString@@PAV1@00AAV?$allocator@VioHashString@@@0@0U_Nonscalar_ptr_iterator_tag@0@@Z:
  00000	8b 54 24 08	 mov	 edx, DWORD PTR [esp+8]
  00004	8d 42 0c	 lea	 eax, DWORD PTR [edx+12]
  00007	8b 4a e8	 mov	 ecx, DWORD PTR [edx-24]
  0000a	33 c8		 xor	 ecx, eax
  0000c	e8 00 00 00 00	 call	 @__security_check_cookie@4
  00011	b8 00 00 00 00	 mov	 eax, OFFSET __ehfuncinfo$??$_Uninit_move@PAVioHashString@@PAV1@V?$allocator@VioHashString@@@std@@V1@@std@@YAPAVioHashString@@PAV1@00AAV?$allocator@VioHashString@@@0@0U_Nonscalar_ptr_iterator_tag@0@@Z
  00016	e9 00 00 00 00	 jmp	 ___CxxFrameHandler3
text$x	ENDS
??$_Uninit_move@PAVioHashString@@PAV1@V?$allocator@VioHashString@@@std@@V1@@std@@YAPAVioHashString@@PAV1@00AAV?$allocator@VioHashString@@@0@0U_Nonscalar_ptr_iterator_tag@0@@Z ENDP ; std::_Uninit_move<ioHashString *,ioHashString *,std::allocator<ioHashString>,ioHashString>
PUBLIC	??$_Uninit_move@PAUstWantCheckList@ioAreaEffectWeapon@@PAU12@V?$allocator@UstWantCheckList@ioAreaEffectWeapon@@@std@@U12@@std@@YAPAUstWantCheckList@ioAreaEffectWeapon@@PAU12@00AAV?$allocator@UstWantCheckList@ioAreaEffectWeapon@@@0@0U_Nonscalar_ptr_iterator_tag@0@@Z ; std::_Uninit_move<ioAreaEffectWeapon::stWantCheckList *,ioAreaEffectWeapon::stWantCheckList *,std::allocator<ioAreaEffectWeapon::stWantCheckList>,ioAreaEffectWeapon::stWantCheckList>
;	COMDAT xdata$x
; File d:\lost saga for developer\youtube\tutorial\source\src\lsclient\ioareaeffectweapon.cpp
xdata$x	SEGMENT
__catchsym$??$_Uninit_move@PAUstWantCheckList@ioAreaEffectWeapon@@PAU12@V?$allocator@UstWantCheckList@ioAreaEffectWeapon@@@std@@U12@@std@@YAPAUstWantCheckList@ioAreaEffectWeapon@@PAU12@00AAV?$allocator@UstWantCheckList@ioAreaEffectWeapon@@@0@0U_Nonscalar_ptr_iterator_tag@0@@Z$3 DD 040H
	DD	00H
	DD	00H
	DD	FLAT:__catch$??$_Uninit_move@PAUstWantCheckList@ioAreaEffectWeapon@@PAU12@V?$allocator@UstWantCheckList@ioAreaEffectWeapon@@@std@@U12@@std@@YAPAUstWantCheckList@ioAreaEffectWeapon@@PAU12@00AAV?$allocator@UstWantCheckList@ioAreaEffectWeapon@@@0@0U_Nonscalar_ptr_iterator_tag@0@@Z$0
__unwindtable$??$_Uninit_move@PAUstWantCheckList@ioAreaEffectWeapon@@PAU12@V?$allocator@UstWantCheckList@ioAreaEffectWeapon@@@std@@U12@@std@@YAPAUstWantCheckList@ioAreaEffectWeapon@@PAU12@00AAV?$allocator@UstWantCheckList@ioAreaEffectWeapon@@@0@0U_Nonscalar_ptr_iterator_tag@0@@Z DD 0ffffffffH
	DD	00H
	DD	0ffffffffH
	DD	00H
__tryblocktable$??$_Uninit_move@PAUstWantCheckList@ioAreaEffectWeapon@@PAU12@V?$allocator@UstWantCheckList@ioAreaEffectWeapon@@@std@@U12@@std@@YAPAUstWantCheckList@ioAreaEffectWeapon@@PAU12@00AAV?$allocator@UstWantCheckList@ioAreaEffectWeapon@@@0@0U_Nonscalar_ptr_iterator_tag@0@@Z DD 00H
	DD	00H
	DD	01H
	DD	01H
	DD	FLAT:__catchsym$??$_Uninit_move@PAUstWantCheckList@ioAreaEffectWeapon@@PAU12@V?$allocator@UstWantCheckList@ioAreaEffectWeapon@@@std@@U12@@std@@YAPAUstWantCheckList@ioAreaEffectWeapon@@PAU12@00AAV?$allocator@UstWantCheckList@ioAreaEffectWeapon@@@0@0U_Nonscalar_ptr_iterator_tag@0@@Z$3
__ehfuncinfo$??$_Uninit_move@PAUstWantCheckList@ioAreaEffectWeapon@@PAU12@V?$allocator@UstWantCheckList@ioAreaEffectWeapon@@@std@@U12@@std@@YAPAUstWantCheckList@ioAreaEffectWeapon@@PAU12@00AAV?$allocator@UstWantCheckList@ioAreaEffectWeapon@@@0@0U_Nonscalar_ptr_iterator_tag@0@@Z DD 019930522H
	DD	02H
	DD	FLAT:__unwindtable$??$_Uninit_move@PAUstWantCheckList@ioAreaEffectWeapon@@PAU12@V?$allocator@UstWantCheckList@ioAreaEffectWeapon@@@std@@U12@@std@@YAPAUstWantCheckList@ioAreaEffectWeapon@@PAU12@00AAV?$allocator@UstWantCheckList@ioAreaEffectWeapon@@@0@0U_Nonscalar_ptr_iterator_tag@0@@Z
	DD	01H
	DD	FLAT:__tryblocktable$??$_Uninit_move@PAUstWantCheckList@ioAreaEffectWeapon@@PAU12@V?$allocator@UstWantCheckList@ioAreaEffectWeapon@@@std@@U12@@std@@YAPAUstWantCheckList@ioAreaEffectWeapon@@PAU12@00AAV?$allocator@UstWantCheckList@ioAreaEffectWeapon@@@0@0U_Nonscalar_ptr_iterator_tag@0@@Z
	DD	2 DUP(00H)
	DD	00H
	DD	01H
; Function compile flags: /Ogsp
; File c:\program files (x86)\microsoft visual studio 10.0\vc\include\memory
xdata$x	ENDS
;	COMDAT ??$_Uninit_move@PAUstWantCheckList@ioAreaEffectWeapon@@PAU12@V?$allocator@UstWantCheckList@ioAreaEffectWeapon@@@std@@U12@@std@@YAPAUstWantCheckList@ioAreaEffectWeapon@@PAU12@00AAV?$allocator@UstWantCheckList@ioAreaEffectWeapon@@@0@0U_Nonscalar_ptr_iterator_tag@0@@Z
_TEXT	SEGMENT
__Next$ = -20						; size = 4
__$EHRec$ = -16						; size = 16
__First$ = 8						; size = 4
__Last$ = 12						; size = 4
__Dest$ = 16						; size = 4
__Al$ = 20						; size = 4
___formal$ = 24						; size = 4
___formal$ = 28						; size = 1
??$_Uninit_move@PAUstWantCheckList@ioAreaEffectWeapon@@PAU12@V?$allocator@UstWantCheckList@ioAreaEffectWeapon@@@std@@U12@@std@@YAPAUstWantCheckList@ioAreaEffectWeapon@@PAU12@00AAV?$allocator@UstWantCheckList@ioAreaEffectWeapon@@@0@0U_Nonscalar_ptr_iterator_tag@0@@Z PROC ; std::_Uninit_move<ioAreaEffectWeapon::stWantCheckList *,ioAreaEffectWeapon::stWantCheckList *,std::allocator<ioAreaEffectWeapon::stWantCheckList>,ioAreaEffectWeapon::stWantCheckList>, COMDAT

; 424  : 	{	// move [_First, _Last) to raw _Dest, using _Al, arbitrary type

  00000	6a 08		 push	 8
  00002	b8 00 00 00 00	 mov	 eax, __ehhandler$??$_Uninit_move@PAUstWantCheckList@ioAreaEffectWeapon@@PAU12@V?$allocator@UstWantCheckList@ioAreaEffectWeapon@@@std@@U12@@std@@YAPAUstWantCheckList@ioAreaEffectWeapon@@PAU12@00AAV?$allocator@UstWantCheckList@ioAreaEffectWeapon@@@0@0U_Nonscalar_ptr_iterator_tag@0@@Z
  00007	e8 00 00 00 00	 call	 __EH_prolog3_catch

; 425  : 	_DEBUG_RANGE(_First, _Last);
; 426  : 	_DEBUG_POINTER(_Dest);
; 427  : 	_FwdIt _Next = _Dest;

  0000c	8b 45 10	 mov	 eax, DWORD PTR __Dest$[ebp]

; 428  : 
; 429  : 	_TRY_BEGIN

  0000f	83 65 fc 00	 and	 DWORD PTR __$EHRec$[ebp+12], 0
  00013	8b 75 08	 mov	 esi, DWORD PTR __First$[ebp]
  00016	89 45 ec	 mov	 DWORD PTR __Next$[ebp], eax
$LL6@Uninit_mov@2:

; 430  : 	for (; _First != _Last; ++_Dest, ++_First)

  00019	3b 75 0c	 cmp	 esi, DWORD PTR __Last$[ebp]
  0001c	74 33		 je	 SHORT $LN4@Uninit_mov@2

; 431  : 		_Cons_val(_Al, _Dest, (_Valty &&)*_First);

  0001e	8b 4d 14	 mov	 ecx, DWORD PTR __Al$[ebp]
  00021	56		 push	 esi
  00022	ff 75 10	 push	 DWORD PTR __Dest$[ebp]
  00025	e8 00 00 00 00	 call	 ?construct@?$allocator@UstWantCheckList@ioAreaEffectWeapon@@@std@@QAEXPAUstWantCheckList@ioAreaEffectWeapon@@$$QAU34@@Z ; std::allocator<ioAreaEffectWeapon::stWantCheckList>::construct
  0002a	83 45 10 14	 add	 DWORD PTR __Dest$[ebp], 20 ; 00000014H
  0002e	83 c6 14	 add	 esi, 20			; 00000014H
  00031	eb e6		 jmp	 SHORT $LL6@Uninit_mov@2
__catch$??$_Uninit_move@PAUstWantCheckList@ioAreaEffectWeapon@@PAU12@V?$allocator@UstWantCheckList@ioAreaEffectWeapon@@@std@@U12@@std@@YAPAUstWantCheckList@ioAreaEffectWeapon@@PAU12@00AAV?$allocator@UstWantCheckList@ioAreaEffectWeapon@@@0@0U_Nonscalar_ptr_iterator_tag@0@@Z$0:

; 432  : 	_CATCH_ALL
; 433  : 	for (; _Next != _Dest; ++_Next)

  00033	8b 75 ec	 mov	 esi, DWORD PTR __Next$[ebp]
  00036	eb 0b		 jmp	 SHORT $LN36@Uninit_mov@2
$LL3@Uninit_mov@2:

; 434  : 		_Dest_val(_Al, _Next);

  00038	8b ce		 mov	 ecx, esi
  0003a	ff 15 00 00 00
	00		 call	 DWORD PTR __imp_??1ioHashString@@QAE@XZ
  00040	83 c6 14	 add	 esi, 20			; 00000014H
$LN36@Uninit_mov@2:

; 432  : 	_CATCH_ALL
; 433  : 	for (; _Next != _Dest; ++_Next)

  00043	3b 75 10	 cmp	 esi, DWORD PTR __Dest$[ebp]
  00046	75 f0		 jne	 SHORT $LL3@Uninit_mov@2

; 435  : 	_RERAISE;

  00048	6a 00		 push	 0
  0004a	6a 00		 push	 0
  0004c	e8 00 00 00 00	 call	 __CxxThrowException@8
$LN37@Uninit_mov@2:
$LN4@Uninit_mov@2:

; 436  : 	_CATCH_END
; 437  : 	return (_Dest);

  00051	8b 45 10	 mov	 eax, DWORD PTR __Dest$[ebp]

; 438  : 	}

  00054	e8 00 00 00 00	 call	 __EH_epilog3
  00059	c3		 ret	 0
$LN35@Uninit_mov@2:
_TEXT	ENDS
;	COMDAT text$x
text$x	SEGMENT
__ehhandler$??$_Uninit_move@PAUstWantCheckList@ioAreaEffectWeapon@@PAU12@V?$allocator@UstWantCheckList@ioAreaEffectWeapon@@@std@@U12@@std@@YAPAUstWantCheckList@ioAreaEffectWeapon@@PAU12@00AAV?$allocator@UstWantCheckList@ioAreaEffectWeapon@@@0@0U_Nonscalar_ptr_iterator_tag@0@@Z:
  00000	8b 54 24 08	 mov	 edx, DWORD PTR [esp+8]
  00004	8d 42 0c	 lea	 eax, DWORD PTR [edx+12]
  00007	8b 4a e8	 mov	 ecx, DWORD PTR [edx-24]
  0000a	33 c8		 xor	 ecx, eax
  0000c	e8 00 00 00 00	 call	 @__security_check_cookie@4
  00011	b8 00 00 00 00	 mov	 eax, OFFSET __ehfuncinfo$??$_Uninit_move@PAUstWantCheckList@ioAreaEffectWeapon@@PAU12@V?$allocator@UstWantCheckList@ioAreaEffectWeapon@@@std@@U12@@std@@YAPAUstWantCheckList@ioAreaEffectWeapon@@PAU12@00AAV?$allocator@UstWantCheckList@ioAreaEffectWeapon@@@0@0U_Nonscalar_ptr_iterator_tag@0@@Z
  00016	e9 00 00 00 00	 jmp	 ___CxxFrameHandler3
text$x	ENDS
??$_Uninit_move@PAUstWantCheckList@ioAreaEffectWeapon@@PAU12@V?$allocator@UstWantCheckList@ioAreaEffectWeapon@@@std@@U12@@std@@YAPAUstWantCheckList@ioAreaEffectWeapon@@PAU12@00AAV?$allocator@UstWantCheckList@ioAreaEffectWeapon@@@0@0U_Nonscalar_ptr_iterator_tag@0@@Z ENDP ; std::_Uninit_move<ioAreaEffectWeapon::stWantCheckList *,ioAreaEffectWeapon::stWantCheckList *,std::allocator<ioAreaEffectWeapon::stWantCheckList>,ioAreaEffectWeapon::stWantCheckList>
PUBLIC	??$_Destroy_range@V?$allocator@VioHashString@@@std@@@std@@YAXPAVioHashString@@0AAV?$allocator@VioHashString@@@0@U_Nonscalar_ptr_iterator_tag@0@@Z ; std::_Destroy_range<std::allocator<ioHashString> >
; Function compile flags: /Ogsp
; File c:\program files (x86)\microsoft visual studio 10.0\vc\include\xmemory
;	COMDAT ??$_Destroy_range@V?$allocator@VioHashString@@@std@@@std@@YAXPAVioHashString@@0AAV?$allocator@VioHashString@@@0@U_Nonscalar_ptr_iterator_tag@0@@Z
_TEXT	SEGMENT
__First$ = 8						; size = 4
__Last$ = 12						; size = 4
__Al$ = 16						; size = 4
___formal$ = 20						; size = 1
??$_Destroy_range@V?$allocator@VioHashString@@@std@@@std@@YAXPAVioHashString@@0AAV?$allocator@VioHashString@@@0@U_Nonscalar_ptr_iterator_tag@0@@Z PROC ; std::_Destroy_range<std::allocator<ioHashString> >, COMDAT

; 95   : 	{	// destroy [_First, _Last), arbitrary type

  00000	55		 push	 ebp
  00001	8b ec		 mov	 ebp, esp
  00003	56		 push	 esi

; 96   : 	for (; _First != _Last; ++_First)

  00004	8b 75 08	 mov	 esi, DWORD PTR __First$[ebp]
  00007	eb 0b		 jmp	 SHORT $LN17@Destroy_ra@2
$LL3@Destroy_ra@2:

; 97   : 		_Dest_val(_Al, _First);

  00009	8b ce		 mov	 ecx, esi
  0000b	ff 15 00 00 00
	00		 call	 DWORD PTR __imp_??1ioHashString@@QAE@XZ
  00011	83 c6 10	 add	 esi, 16			; 00000010H
$LN17@Destroy_ra@2:

; 96   : 	for (; _First != _Last; ++_First)

  00014	3b 75 0c	 cmp	 esi, DWORD PTR __Last$[ebp]
  00017	75 f0		 jne	 SHORT $LL3@Destroy_ra@2
  00019	5e		 pop	 esi

; 98   : 	}

  0001a	5d		 pop	 ebp
  0001b	c3		 ret	 0
??$_Destroy_range@V?$allocator@VioHashString@@@std@@@std@@YAXPAVioHashString@@0AAV?$allocator@VioHashString@@@0@U_Nonscalar_ptr_iterator_tag@0@@Z ENDP ; std::_Destroy_range<std::allocator<ioHashString> >
_TEXT	ENDS
PUBLIC	??1?$list@PAVioPlayEntity@@V?$allocator@PAVioPlayEntity@@@std@@@std@@QAE@XZ ; std::list<ioPlayEntity *,std::allocator<ioPlayEntity *> >::~list<ioPlayEntity *,std::allocator<ioPlayEntity *> >
; Function compile flags: /Ogsp
; File c:\program files (x86)\microsoft visual studio 10.0\vc\include\list
;	COMDAT ??1?$list@PAVioPlayEntity@@V?$allocator@PAVioPlayEntity@@@std@@@std@@QAE@XZ
_TEXT	SEGMENT
??1?$list@PAVioPlayEntity@@V?$allocator@PAVioPlayEntity@@@std@@@std@@QAE@XZ PROC ; std::list<ioPlayEntity *,std::allocator<ioPlayEntity *> >::~list<ioPlayEntity *,std::allocator<ioPlayEntity *> >, COMDAT
; _this$ = ecx

; 769  : 		{	// destroy the object

  00000	56		 push	 esi
  00001	8b f1		 mov	 esi, ecx

; 770  : 		_Tidy();

  00003	e8 00 00 00 00	 call	 ?clear@?$list@PAVioPlayEntity@@V?$allocator@PAVioPlayEntity@@@std@@@std@@QAEXXZ ; std::list<ioPlayEntity *,std::allocator<ioPlayEntity *> >::clear

; 771  : 		}

  00008	ff 36		 push	 DWORD PTR [esi]
  0000a	e8 00 00 00 00	 call	 ??3@YAXPAX@Z		; operator delete
  0000f	59		 pop	 ecx
  00010	5e		 pop	 esi
  00011	c3		 ret	 0
??1?$list@PAVioPlayEntity@@V?$allocator@PAVioPlayEntity@@@std@@@std@@QAE@XZ ENDP ; std::list<ioPlayEntity *,std::allocator<ioPlayEntity *> >::~list<ioPlayEntity *,std::allocator<ioPlayEntity *> >
_TEXT	ENDS
PUBLIC	?push_back@?$list@PAVioPlayEntity@@V?$allocator@PAVioPlayEntity@@@std@@@std@@QAEXABQAVioPlayEntity@@@Z ; std::list<ioPlayEntity *,std::allocator<ioPlayEntity *> >::push_back
; Function compile flags: /Ogsp
;	COMDAT ?push_back@?$list@PAVioPlayEntity@@V?$allocator@PAVioPlayEntity@@@std@@@std@@QAEXABQAVioPlayEntity@@@Z
_TEXT	SEGMENT
__Val$ = 8						; size = 4
?push_back@?$list@PAVioPlayEntity@@V?$allocator@PAVioPlayEntity@@@std@@@std@@QAEXABQAVioPlayEntity@@@Z PROC ; std::list<ioPlayEntity *,std::allocator<ioPlayEntity *> >::push_back, COMDAT
; _this$ = ecx

; 926  : 		{	// insert element at end

  00000	55		 push	 ebp
  00001	8b ec		 mov	 ebp, esp

; 927  : 		_Insert(end(), _Val);

  00003	ff 75 08	 push	 DWORD PTR __Val$[ebp]
  00006	8b 01		 mov	 eax, DWORD PTR [ecx]
  00008	50		 push	 eax
  00009	e8 00 00 00 00	 call	 ?_Insert@?$list@PAVioPlayEntity@@V?$allocator@PAVioPlayEntity@@@std@@@std@@QAEXV?$_List_const_iterator@V?$_List_val@PAVioPlayEntity@@V?$allocator@PAVioPlayEntity@@@std@@@std@@@2@ABQAVioPlayEntity@@@Z ; std::list<ioPlayEntity *,std::allocator<ioPlayEntity *> >::_Insert

; 928  : 		}

  0000e	5d		 pop	 ebp
  0000f	c2 04 00	 ret	 4
?push_back@?$list@PAVioPlayEntity@@V?$allocator@PAVioPlayEntity@@@std@@@std@@QAEXABQAVioPlayEntity@@@Z ENDP ; std::list<ioPlayEntity *,std::allocator<ioPlayEntity *> >::push_back
_TEXT	ENDS
PUBLIC	??$_Destroy_range@V?$allocator@UstWantCheckList@ioAreaEffectWeapon@@@std@@@std@@YAXPAUstWantCheckList@ioAreaEffectWeapon@@0AAV?$allocator@UstWantCheckList@ioAreaEffectWeapon@@@0@@Z ; std::_Destroy_range<std::allocator<ioAreaEffectWeapon::stWantCheckList> >
; Function compile flags: /Ogsp
; File c:\program files (x86)\microsoft visual studio 10.0\vc\include\xmemory
;	COMDAT ??$_Destroy_range@V?$allocator@UstWantCheckList@ioAreaEffectWeapon@@@std@@@std@@YAXPAUstWantCheckList@ioAreaEffectWeapon@@0AAV?$allocator@UstWantCheckList@ioAreaEffectWeapon@@@0@@Z
_TEXT	SEGMENT
__First$ = 8						; size = 4
__Last$ = 12						; size = 4
__Al$ = 16						; size = 4
??$_Destroy_range@V?$allocator@UstWantCheckList@ioAreaEffectWeapon@@@std@@@std@@YAXPAUstWantCheckList@ioAreaEffectWeapon@@0AAV?$allocator@UstWantCheckList@ioAreaEffectWeapon@@@0@@Z PROC ; std::_Destroy_range<std::allocator<ioAreaEffectWeapon::stWantCheckList> >, COMDAT

; 87   : 	{	// destroy [_First, _Last)

  00000	55		 push	 ebp
  00001	8b ec		 mov	 ebp, esp
  00003	56		 push	 esi

; 88   : 	_Destroy_range(_First, _Last, _Al, _Ptr_cat(_First, _Last));

  00004	8b 75 08	 mov	 esi, DWORD PTR __First$[ebp]
  00007	eb 0b		 jmp	 SHORT $LN24@Destroy_ra@3
$LL7@Destroy_ra@3:
  00009	8b ce		 mov	 ecx, esi
  0000b	ff 15 00 00 00
	00		 call	 DWORD PTR __imp_??1ioHashString@@QAE@XZ
  00011	83 c6 14	 add	 esi, 20			; 00000014H
$LN24@Destroy_ra@3:
  00014	3b 75 0c	 cmp	 esi, DWORD PTR __Last$[ebp]
  00017	75 f0		 jne	 SHORT $LL7@Destroy_ra@3
  00019	5e		 pop	 esi

; 89   : 	}

  0001a	5d		 pop	 ebp
  0001b	c3		 ret	 0
??$_Destroy_range@V?$allocator@UstWantCheckList@ioAreaEffectWeapon@@@std@@@std@@YAXPAUstWantCheckList@ioAreaEffectWeapon@@0AAV?$allocator@UstWantCheckList@ioAreaEffectWeapon@@@0@@Z ENDP ; std::_Destroy_range<std::allocator<ioAreaEffectWeapon::stWantCheckList> >
_TEXT	ENDS
PUBLIC	??$_Uninitialized_move@PAVioHashString@@PAV1@V?$allocator@VioHashString@@@std@@@std@@YAPAVioHashString@@PAV1@00AAV?$allocator@VioHashString@@@0@@Z ; std::_Uninitialized_move<ioHashString *,ioHashString *,std::allocator<ioHashString> >
; Function compile flags: /Ogsp
; File c:\program files (x86)\microsoft visual studio 10.0\vc\include\memory
;	COMDAT ??$_Uninitialized_move@PAVioHashString@@PAV1@V?$allocator@VioHashString@@@std@@@std@@YAPAVioHashString@@PAV1@00AAV?$allocator@VioHashString@@@0@@Z
_TEXT	SEGMENT
__Cat$536001 = -4					; size = 1
__First$ = 8						; size = 4
__Last$ = 12						; size = 4
__Dest$ = 16						; size = 4
__Al$ = 20						; size = 4
??$_Uninitialized_move@PAVioHashString@@PAV1@V?$allocator@VioHashString@@@std@@@std@@YAPAVioHashString@@PAV1@00AAV?$allocator@VioHashString@@@0@@Z PROC ; std::_Uninitialized_move<ioHashString *,ioHashString *,std::allocator<ioHashString> >, COMDAT

; 469  : 	{	// move [_First, _Last) to raw _Dest, using _Al

  00000	55		 push	 ebp
  00001	8b ec		 mov	 ebp, esp
  00003	51		 push	 ecx

; 470  : 	return (_Uninit_move(_First, _Last, _Dest, _Al,
; 471  : 		_Val_type(_First), _Ptr_cat(_First, _Dest)));

  00004	ff 75 fc	 push	 DWORD PTR __Cat$536001[ebp]
  00007	6a 00		 push	 0
  00009	ff 75 14	 push	 DWORD PTR __Al$[ebp]
  0000c	ff 75 10	 push	 DWORD PTR __Dest$[ebp]
  0000f	ff 75 0c	 push	 DWORD PTR __Last$[ebp]
  00012	ff 75 08	 push	 DWORD PTR __First$[ebp]
  00015	e8 00 00 00 00	 call	 ??$_Uninit_move@PAVioHashString@@PAV1@V?$allocator@VioHashString@@@std@@V1@@std@@YAPAVioHashString@@PAV1@00AAV?$allocator@VioHashString@@@0@0U_Nonscalar_ptr_iterator_tag@0@@Z ; std::_Uninit_move<ioHashString *,ioHashString *,std::allocator<ioHashString>,ioHashString>
  0001a	83 c4 18	 add	 esp, 24			; 00000018H

; 472  : 	}

  0001d	c9		 leave
  0001e	c3		 ret	 0
??$_Uninitialized_move@PAVioHashString@@PAV1@V?$allocator@VioHashString@@@std@@@std@@YAPAVioHashString@@PAV1@00AAV?$allocator@VioHashString@@@0@@Z ENDP ; std::_Uninitialized_move<ioHashString *,ioHashString *,std::allocator<ioHashString> >
_TEXT	ENDS
PUBLIC	??$_Uninitialized_move@PAUstWantCheckList@ioAreaEffectWeapon@@PAU12@V?$allocator@UstWantCheckList@ioAreaEffectWeapon@@@std@@@std@@YAPAUstWantCheckList@ioAreaEffectWeapon@@PAU12@00AAV?$allocator@UstWantCheckList@ioAreaEffectWeapon@@@0@@Z ; std::_Uninitialized_move<ioAreaEffectWeapon::stWantCheckList *,ioAreaEffectWeapon::stWantCheckList *,std::allocator<ioAreaEffectWeapon::stWantCheckList> >
; Function compile flags: /Ogsp
;	COMDAT ??$_Uninitialized_move@PAUstWantCheckList@ioAreaEffectWeapon@@PAU12@V?$allocator@UstWantCheckList@ioAreaEffectWeapon@@@std@@@std@@YAPAUstWantCheckList@ioAreaEffectWeapon@@PAU12@00AAV?$allocator@UstWantCheckList@ioAreaEffectWeapon@@@0@@Z
_TEXT	SEGMENT
__Cat$536011 = -4					; size = 1
__First$ = 8						; size = 4
__Last$ = 12						; size = 4
__Dest$ = 16						; size = 4
__Al$ = 20						; size = 4
??$_Uninitialized_move@PAUstWantCheckList@ioAreaEffectWeapon@@PAU12@V?$allocator@UstWantCheckList@ioAreaEffectWeapon@@@std@@@std@@YAPAUstWantCheckList@ioAreaEffectWeapon@@PAU12@00AAV?$allocator@UstWantCheckList@ioAreaEffectWeapon@@@0@@Z PROC ; std::_Uninitialized_move<ioAreaEffectWeapon::stWantCheckList *,ioAreaEffectWeapon::stWantCheckList *,std::allocator<ioAreaEffectWeapon::stWantCheckList> >, COMDAT

; 469  : 	{	// move [_First, _Last) to raw _Dest, using _Al

  00000	55		 push	 ebp
  00001	8b ec		 mov	 ebp, esp
  00003	51		 push	 ecx

; 470  : 	return (_Uninit_move(_First, _Last, _Dest, _Al,
; 471  : 		_Val_type(_First), _Ptr_cat(_First, _Dest)));

  00004	ff 75 fc	 push	 DWORD PTR __Cat$536011[ebp]
  00007	6a 00		 push	 0
  00009	ff 75 14	 push	 DWORD PTR __Al$[ebp]
  0000c	ff 75 10	 push	 DWORD PTR __Dest$[ebp]
  0000f	ff 75 0c	 push	 DWORD PTR __Last$[ebp]
  00012	ff 75 08	 push	 DWORD PTR __First$[ebp]
  00015	e8 00 00 00 00	 call	 ??$_Uninit_move@PAUstWantCheckList@ioAreaEffectWeapon@@PAU12@V?$allocator@UstWantCheckList@ioAreaEffectWeapon@@@std@@U12@@std@@YAPAUstWantCheckList@ioAreaEffectWeapon@@PAU12@00AAV?$allocator@UstWantCheckList@ioAreaEffectWeapon@@@0@0U_Nonscalar_ptr_iterator_tag@0@@Z ; std::_Uninit_move<ioAreaEffectWeapon::stWantCheckList *,ioAreaEffectWeapon::stWantCheckList *,std::allocator<ioAreaEffectWeapon::stWantCheckList>,ioAreaEffectWeapon::stWantCheckList>
  0001a	83 c4 18	 add	 esp, 24			; 00000018H

; 472  : 	}

  0001d	c9		 leave
  0001e	c3		 ret	 0
??$_Uninitialized_move@PAUstWantCheckList@ioAreaEffectWeapon@@PAU12@V?$allocator@UstWantCheckList@ioAreaEffectWeapon@@@std@@@std@@YAPAUstWantCheckList@ioAreaEffectWeapon@@PAU12@00AAV?$allocator@UstWantCheckList@ioAreaEffectWeapon@@@0@@Z ENDP ; std::_Uninitialized_move<ioAreaEffectWeapon::stWantCheckList *,ioAreaEffectWeapon::stWantCheckList *,std::allocator<ioAreaEffectWeapon::stWantCheckList> >
_TEXT	ENDS
PUBLIC	??$_Destroy_range@V?$allocator@VioHashString@@@std@@@std@@YAXPAVioHashString@@0AAV?$allocator@VioHashString@@@0@@Z ; std::_Destroy_range<std::allocator<ioHashString> >
; Function compile flags: /Ogsp
; File c:\program files (x86)\microsoft visual studio 10.0\vc\include\xmemory
;	COMDAT ??$_Destroy_range@V?$allocator@VioHashString@@@std@@@std@@YAXPAVioHashString@@0AAV?$allocator@VioHashString@@@0@@Z
_TEXT	SEGMENT
__First$ = 8						; size = 4
__Last$ = 12						; size = 4
__Al$ = 16						; size = 4
??$_Destroy_range@V?$allocator@VioHashString@@@std@@@std@@YAXPAVioHashString@@0AAV?$allocator@VioHashString@@@0@@Z PROC ; std::_Destroy_range<std::allocator<ioHashString> >, COMDAT

; 87   : 	{	// destroy [_First, _Last)

  00000	55		 push	 ebp
  00001	8b ec		 mov	 ebp, esp
  00003	56		 push	 esi

; 88   : 	_Destroy_range(_First, _Last, _Al, _Ptr_cat(_First, _Last));

  00004	8b 75 08	 mov	 esi, DWORD PTR __First$[ebp]
  00007	eb 0b		 jmp	 SHORT $LN21@Destroy_ra@4
$LL7@Destroy_ra@4:
  00009	8b ce		 mov	 ecx, esi
  0000b	ff 15 00 00 00
	00		 call	 DWORD PTR __imp_??1ioHashString@@QAE@XZ
  00011	83 c6 10	 add	 esi, 16			; 00000010H
$LN21@Destroy_ra@4:
  00014	3b 75 0c	 cmp	 esi, DWORD PTR __Last$[ebp]
  00017	75 f0		 jne	 SHORT $LL7@Destroy_ra@4
  00019	5e		 pop	 esi

; 89   : 	}

  0001a	5d		 pop	 ebp
  0001b	c3		 ret	 0
??$_Destroy_range@V?$allocator@VioHashString@@@std@@@std@@YAXPAVioHashString@@0AAV?$allocator@VioHashString@@@0@@Z ENDP ; std::_Destroy_range<std::allocator<ioHashString> >
_TEXT	ENDS
PUBLIC	?AddBlockEntity@ioAreaEffectWeapon@@QAEXPAVioPlayEntity@@@Z ; ioAreaEffectWeapon::AddBlockEntity
; Function compile flags: /Ogsp
; File d:\lost saga for developer\youtube\tutorial\source\src\lsclient\ioareaeffectweapon.cpp
;	COMDAT ?AddBlockEntity@ioAreaEffectWeapon@@QAEXPAVioPlayEntity@@@Z
_TEXT	SEGMENT
_pEntity$ = 8						; size = 4
?AddBlockEntity@ioAreaEffectWeapon@@QAEXPAVioPlayEntity@@@Z PROC ; ioAreaEffectWeapon::AddBlockEntity, COMDAT
; _this$ = ecx

; 380  : {

  00000	55		 push	 ebp
  00001	8b ec		 mov	 ebp, esp

; 381  : 	m_vBlockEntityList.push_back( pEntity );

  00003	81 c1 2c 0a 00
	00		 add	 ecx, 2604		; 00000a2cH
  00009	8b 01		 mov	 eax, DWORD PTR [ecx]
  0000b	8d 55 08	 lea	 edx, DWORD PTR _pEntity$[ebp]
  0000e	52		 push	 edx
  0000f	50		 push	 eax
  00010	e8 00 00 00 00	 call	 ?_Insert@?$list@PAVioPlayEntity@@V?$allocator@PAVioPlayEntity@@@std@@@std@@QAEXV?$_List_const_iterator@V?$_List_val@PAVioPlayEntity@@V?$allocator@PAVioPlayEntity@@@std@@@std@@@2@ABQAVioPlayEntity@@@Z ; std::list<ioPlayEntity *,std::allocator<ioPlayEntity *> >::_Insert

; 382  : }

  00015	5d		 pop	 ebp
  00016	c2 04 00	 ret	 4
?AddBlockEntity@ioAreaEffectWeapon@@QAEXPAVioPlayEntity@@@Z ENDP ; ioAreaEffectWeapon::AddBlockEntity
_TEXT	ENDS
PUBLIC	?_Destroy@?$vector@UstWantCheckList@ioAreaEffectWeapon@@V?$allocator@UstWantCheckList@ioAreaEffectWeapon@@@std@@@std@@IAEXPAUstWantCheckList@ioAreaEffectWeapon@@0@Z ; std::vector<ioAreaEffectWeapon::stWantCheckList,std::allocator<ioAreaEffectWeapon::stWantCheckList> >::_Destroy
; Function compile flags: /Ogsp
; File c:\program files (x86)\microsoft visual studio 10.0\vc\include\vector
;	COMDAT ?_Destroy@?$vector@UstWantCheckList@ioAreaEffectWeapon@@V?$allocator@UstWantCheckList@ioAreaEffectWeapon@@@std@@@std@@IAEXPAUstWantCheckList@ioAreaEffectWeapon@@0@Z
_TEXT	SEGMENT
__First$ = 8						; size = 4
__Last$ = 12						; size = 4
?_Destroy@?$vector@UstWantCheckList@ioAreaEffectWeapon@@V?$allocator@UstWantCheckList@ioAreaEffectWeapon@@@std@@@std@@IAEXPAUstWantCheckList@ioAreaEffectWeapon@@0@Z PROC ; std::vector<ioAreaEffectWeapon::stWantCheckList,std::allocator<ioAreaEffectWeapon::stWantCheckList> >::_Destroy, COMDAT
; _this$ = ecx

; 1269 : 		{	// destroy [_First, _Last) using allocator

  00000	55		 push	 ebp
  00001	8b ec		 mov	 ebp, esp
  00003	56		 push	 esi

; 1270 : 		_Destroy_range(_First, _Last, this->_Alval);

  00004	8b 75 08	 mov	 esi, DWORD PTR __First$[ebp]
  00007	eb 0b		 jmp	 SHORT $LN26@Destroy
$LL9@Destroy:
  00009	8b ce		 mov	 ecx, esi
  0000b	ff 15 00 00 00
	00		 call	 DWORD PTR __imp_??1ioHashString@@QAE@XZ
  00011	83 c6 14	 add	 esi, 20			; 00000014H
$LN26@Destroy:
  00014	3b 75 0c	 cmp	 esi, DWORD PTR __Last$[ebp]
  00017	75 f0		 jne	 SHORT $LL9@Destroy
  00019	5e		 pop	 esi

; 1271 : 		}

  0001a	5d		 pop	 ebp
  0001b	c2 08 00	 ret	 8
?_Destroy@?$vector@UstWantCheckList@ioAreaEffectWeapon@@V?$allocator@UstWantCheckList@ioAreaEffectWeapon@@@std@@@std@@IAEXPAUstWantCheckList@ioAreaEffectWeapon@@0@Z ENDP ; std::vector<ioAreaEffectWeapon::stWantCheckList,std::allocator<ioAreaEffectWeapon::stWantCheckList> >::_Destroy
_TEXT	ENDS
PUBLIC	??$_Umove@PAVioHashString@@@?$vector@VioHashString@@V?$allocator@VioHashString@@@std@@@std@@IAEPAVioHashString@@PAV2@00@Z ; std::vector<ioHashString,std::allocator<ioHashString> >::_Umove<ioHashString *>
; Function compile flags: /Ogsp
;	COMDAT ??$_Umove@PAVioHashString@@@?$vector@VioHashString@@V?$allocator@VioHashString@@@std@@@std@@IAEPAVioHashString@@PAV2@00@Z
_TEXT	SEGMENT
__First$ = 8						; size = 4
__Last$ = 12						; size = 4
__Ptr$ = 16						; size = 4
??$_Umove@PAVioHashString@@@?$vector@VioHashString@@V?$allocator@VioHashString@@@std@@@std@@IAEPAVioHashString@@PAV2@00@Z PROC ; std::vector<ioHashString,std::allocator<ioHashString> >::_Umove<ioHashString *>, COMDAT
; _this$ = ecx

; 1322 : 		pointer _Umove(_Iter _First, _Iter _Last, pointer _Ptr)

  00000	55		 push	 ebp
  00001	8b ec		 mov	 ebp, esp

; 1323 : 		{	// move initializing [_First, _Last), using allocator
; 1324 : 		return (_Uninitialized_move(_First, _Last,
; 1325 : 			_Ptr, this->_Alval));

  00003	83 c1 0c	 add	 ecx, 12			; 0000000cH
  00006	51		 push	 ecx
  00007	ff 75 10	 push	 DWORD PTR __Ptr$[ebp]
  0000a	ff 75 0c	 push	 DWORD PTR __Last$[ebp]
  0000d	ff 75 08	 push	 DWORD PTR __First$[ebp]
  00010	e8 00 00 00 00	 call	 ??$_Uninitialized_move@PAVioHashString@@PAV1@V?$allocator@VioHashString@@@std@@@std@@YAPAVioHashString@@PAV1@00AAV?$allocator@VioHashString@@@0@@Z ; std::_Uninitialized_move<ioHashString *,ioHashString *,std::allocator<ioHashString> >
  00015	83 c4 10	 add	 esp, 16			; 00000010H

; 1326 : 		}

  00018	5d		 pop	 ebp
  00019	c2 0c 00	 ret	 12			; 0000000cH
??$_Umove@PAVioHashString@@@?$vector@VioHashString@@V?$allocator@VioHashString@@@std@@@std@@IAEPAVioHashString@@PAV2@00@Z ENDP ; std::vector<ioHashString,std::allocator<ioHashString> >::_Umove<ioHashString *>
_TEXT	ENDS
PUBLIC	??$_Umove@PAUstWantCheckList@ioAreaEffectWeapon@@@?$vector@UstWantCheckList@ioAreaEffectWeapon@@V?$allocator@UstWantCheckList@ioAreaEffectWeapon@@@std@@@std@@IAEPAUstWantCheckList@ioAreaEffectWeapon@@PAU23@00@Z ; std::vector<ioAreaEffectWeapon::stWantCheckList,std::allocator<ioAreaEffectWeapon::stWantCheckList> >::_Umove<ioAreaEffectWeapon::stWantCheckList *>
; Function compile flags: /Ogsp
;	COMDAT ??$_Umove@PAUstWantCheckList@ioAreaEffectWeapon@@@?$vector@UstWantCheckList@ioAreaEffectWeapon@@V?$allocator@UstWantCheckList@ioAreaEffectWeapon@@@std@@@std@@IAEPAUstWantCheckList@ioAreaEffectWeapon@@PAU23@00@Z
_TEXT	SEGMENT
__First$ = 8						; size = 4
__Last$ = 12						; size = 4
__Ptr$ = 16						; size = 4
??$_Umove@PAUstWantCheckList@ioAreaEffectWeapon@@@?$vector@UstWantCheckList@ioAreaEffectWeapon@@V?$allocator@UstWantCheckList@ioAreaEffectWeapon@@@std@@@std@@IAEPAUstWantCheckList@ioAreaEffectWeapon@@PAU23@00@Z PROC ; std::vector<ioAreaEffectWeapon::stWantCheckList,std::allocator<ioAreaEffectWeapon::stWantCheckList> >::_Umove<ioAreaEffectWeapon::stWantCheckList *>, COMDAT
; _this$ = ecx

; 1322 : 		pointer _Umove(_Iter _First, _Iter _Last, pointer _Ptr)

  00000	55		 push	 ebp
  00001	8b ec		 mov	 ebp, esp

; 1323 : 		{	// move initializing [_First, _Last), using allocator
; 1324 : 		return (_Uninitialized_move(_First, _Last,
; 1325 : 			_Ptr, this->_Alval));

  00003	83 c1 0c	 add	 ecx, 12			; 0000000cH
  00006	51		 push	 ecx
  00007	ff 75 10	 push	 DWORD PTR __Ptr$[ebp]
  0000a	ff 75 0c	 push	 DWORD PTR __Last$[ebp]
  0000d	ff 75 08	 push	 DWORD PTR __First$[ebp]
  00010	e8 00 00 00 00	 call	 ??$_Uninitialized_move@PAUstWantCheckList@ioAreaEffectWeapon@@PAU12@V?$allocator@UstWantCheckList@ioAreaEffectWeapon@@@std@@@std@@YAPAUstWantCheckList@ioAreaEffectWeapon@@PAU12@00AAV?$allocator@UstWantCheckList@ioAreaEffectWeapon@@@0@@Z ; std::_Uninitialized_move<ioAreaEffectWeapon::stWantCheckList *,ioAreaEffectWeapon::stWantCheckList *,std::allocator<ioAreaEffectWeapon::stWantCheckList> >
  00015	83 c4 10	 add	 esp, 16			; 00000010H

; 1326 : 		}

  00018	5d		 pop	 ebp
  00019	c2 0c 00	 ret	 12			; 0000000cH
??$_Umove@PAUstWantCheckList@ioAreaEffectWeapon@@@?$vector@UstWantCheckList@ioAreaEffectWeapon@@V?$allocator@UstWantCheckList@ioAreaEffectWeapon@@@std@@@std@@IAEPAUstWantCheckList@ioAreaEffectWeapon@@PAU23@00@Z ENDP ; std::vector<ioAreaEffectWeapon::stWantCheckList,std::allocator<ioAreaEffectWeapon::stWantCheckList> >::_Umove<ioAreaEffectWeapon::stWantCheckList *>
_TEXT	ENDS
PUBLIC	?_Destroy@?$vector@VioHashString@@V?$allocator@VioHashString@@@std@@@std@@IAEXPAVioHashString@@0@Z ; std::vector<ioHashString,std::allocator<ioHashString> >::_Destroy
; Function compile flags: /Ogsp
;	COMDAT ?_Destroy@?$vector@VioHashString@@V?$allocator@VioHashString@@@std@@@std@@IAEXPAVioHashString@@0@Z
_TEXT	SEGMENT
__First$ = 8						; size = 4
__Last$ = 12						; size = 4
?_Destroy@?$vector@VioHashString@@V?$allocator@VioHashString@@@std@@@std@@IAEXPAVioHashString@@0@Z PROC ; std::vector<ioHashString,std::allocator<ioHashString> >::_Destroy, COMDAT
; _this$ = ecx

; 1269 : 		{	// destroy [_First, _Last) using allocator

  00000	55		 push	 ebp
  00001	8b ec		 mov	 ebp, esp
  00003	56		 push	 esi

; 1270 : 		_Destroy_range(_First, _Last, this->_Alval);

  00004	8b 75 08	 mov	 esi, DWORD PTR __First$[ebp]
  00007	eb 0b		 jmp	 SHORT $LN23@Destroy@2
$LL9@Destroy@2:
  00009	8b ce		 mov	 ecx, esi
  0000b	ff 15 00 00 00
	00		 call	 DWORD PTR __imp_??1ioHashString@@QAE@XZ
  00011	83 c6 10	 add	 esi, 16			; 00000010H
$LN23@Destroy@2:
  00014	3b 75 0c	 cmp	 esi, DWORD PTR __Last$[ebp]
  00017	75 f0		 jne	 SHORT $LL9@Destroy@2
  00019	5e		 pop	 esi

; 1271 : 		}

  0001a	5d		 pop	 ebp
  0001b	c2 08 00	 ret	 8
?_Destroy@?$vector@VioHashString@@V?$allocator@VioHashString@@@std@@@std@@IAEXPAVioHashString@@0@Z ENDP ; std::vector<ioHashString,std::allocator<ioHashString> >::_Destroy
_TEXT	ENDS
PUBLIC	?IsCollision@ioAreaEffectWeapon@@UAE_NPAVioPlayEntity@@_N@Z ; ioAreaEffectWeapon::IsCollision
EXTRN	?SetProtectWound@ioBaseChar@@QAEXH@Z:PROC	; ioBaseChar::SetProtectWound
EXTRN	?CheckBlockEmoticonType@ioBaseChar@@QAEHXZ:PROC	; ioBaseChar::CheckBlockEmoticonType
EXTRN	?IsStateProtect@ioBaseChar@@QAE_NW4AttackSide@@W4DefenseBreakType@@@Z:PROC ; ioBaseChar::IsStateProtect
EXTRN	?GetDefenseBreakType@ioWeapon@@QBE?AW4DefenseBreakType@@XZ:PROC ; ioWeapon::GetDefenseBreakType
EXTRN	?IsProtectState@ioBaseChar@@QAE_NXZ:PROC	; ioBaseChar::IsProtectState
; Function compile flags: /Ogsp
; File d:\lost saga for developer\youtube\tutorial\source\src\lsclient\ioareaeffectweapon.cpp
;	COMDAT ?IsCollision@ioAreaEffectWeapon@@UAE_NPAVioPlayEntity@@_N@Z
_TEXT	SEGMENT
tv335 = -8						; size = 4
_bCollision$ = -1					; size = 1
_pChar$ = 8						; size = 4
_pEntity$ = 8						; size = 4
_bMapCollision$ = 12					; size = 1
?IsCollision@ioAreaEffectWeapon@@UAE_NPAVioPlayEntity@@_N@Z PROC ; ioAreaEffectWeapon::IsCollision, COMDAT
; _this$ = ecx

; 157  : {

  00000	55		 push	 ebp
  00001	8b ec		 mov	 ebp, esp
  00003	51		 push	 ecx
  00004	51		 push	 ecx
  00005	56		 push	 esi
  00006	8b f1		 mov	 esi, ecx

; 158  : 	DWORD dwCurTime = FRAMEGETTIME();

  00008	ff 15 00 00 00
	00		 call	 DWORD PTR __imp_?GetSingleton@ioFrameTimer@@SAAAV1@XZ
  0000e	8b c8		 mov	 ecx, eax
  00010	ff 15 00 00 00
	00		 call	 DWORD PTR __imp_?GetLoopSec@ioFrameTimer@@QBEKXZ

; 159  : 
; 160  : 	//  SD   
; 161  : 	if( m_dwLiveTime > 1 && m_dwCreatedTime + m_dwLiveTime < dwCurTime )

  00016	8b 8e d8 04 00
	00		 mov	 ecx, DWORD PTR [esi+1240]
  0001c	83 f9 01	 cmp	 ecx, 1
  0001f	76 13		 jbe	 SHORT $LN11@IsCollisio
  00021	8b 96 d4 04 00
	00		 mov	 edx, DWORD PTR [esi+1236]
  00027	03 d1		 add	 edx, ecx
  00029	3b d0		 cmp	 edx, eax
  0002b	73 07		 jae	 SHORT $LN11@IsCollisio

; 162  : 	{
; 163  : 		return false;

  0002d	32 c0		 xor	 al, al
  0002f	e9 10 01 00 00	 jmp	 $LN12@IsCollisio
$LN11@IsCollisio:
  00034	53		 push	 ebx

; 164  : 	}
; 165  : 
; 166  : 	bool bCollision = false;
; 167  : 
; 168  : 	ioBaseChar *pChar = ToBaseChar(pEntity);

  00035	ff 75 08	 push	 DWORD PTR _pEntity$[ebp]
  00038	c6 45 ff 00	 mov	 BYTE PTR _bCollision$[ebp], 0
  0003c	e8 00 00 00 00	 call	 ?ToBaseChar@@YAPAVioBaseChar@@PAVioGameEntity@@@Z ; ToBaseChar
  00041	8b d8		 mov	 ebx, eax
  00043	59		 pop	 ecx
  00044	89 5d 08	 mov	 DWORD PTR _pChar$[ebp], ebx

; 169  : 	if( pChar && IsExistTarget(pChar->GetCharName()) )

  00047	85 db		 test	 ebx, ebx
  00049	74 16		 je	 SHORT $LN31@IsCollisio
  0004b	8d 83 d4 02 00
	00		 lea	 eax, DWORD PTR [ebx+724]
  00051	50		 push	 eax
  00052	8b ce		 mov	 ecx, esi
  00054	e8 00 00 00 00	 call	 ?IsExistTarget@ioAreaEffectWeapon@@IAE_NABVioHashString@@@Z ; ioAreaEffectWeapon::IsExistTarget
  00059	84 c0		 test	 al, al
  0005b	74 04		 je	 SHORT $LN31@IsCollisio

; 170  : 		bCollision = true;

  0005d	c6 45 ff 01	 mov	 BYTE PTR _bCollision$[ebp], 1
$LN31@IsCollisio:

; 171  : 
; 172  : 	// ( by  )
; 173  : 	if( m_bCheckCollinsionOnlyOne && bCollision && pChar)

  00061	80 be 39 0a 00
	00 00		 cmp	 BYTE PTR [esi+2617], 0
  00068	57		 push	 edi
  00069	74 7d		 je	 SHORT $LN6@IsCollisio
  0006b	80 7d ff 00	 cmp	 BYTE PTR _bCollision$[ebp], 0
  0006f	0f 84 ca 00 00
	00		 je	 $LN32@IsCollisio
  00075	85 db		 test	 ebx, ebx
  00077	74 6f		 je	 SHORT $LN6@IsCollisio

; 174  : 	{
; 175  : 		for( size_t i = 0; i < m_vWantCheckList.size(); i++ )

  00079	8b 8e 94 08 00
	00		 mov	 ecx, DWORD PTR [esi+2196]
  0007f	8b 86 98 08 00
	00		 mov	 eax, DWORD PTR [esi+2200]
  00085	2b c1		 sub	 eax, ecx
  00087	6a 14		 push	 20			; 00000014H
  00089	99		 cdq
  0008a	5b		 pop	 ebx
  0008b	f7 fb		 idiv	 ebx
  0008d	8b 5d 08	 mov	 ebx, DWORD PTR _pChar$[ebp]
  00090	33 ff		 xor	 edi, edi
  00092	85 c0		 test	 eax, eax
  00094	74 52		 je	 SHORT $LN6@IsCollisio
  00096	21 7d f8	 and	 DWORD PTR tv335[ebp], edi
$LL8@IsCollisio:

; 176  : 		{
; 177  : 			if( m_vWantCheckList[i].m_stName == pChar->GetCharName() )

  00099	03 4d f8	 add	 ecx, DWORD PTR tv335[ebp]
  0009c	8d 83 d4 02 00
	00		 lea	 eax, DWORD PTR [ebx+724]
  000a2	50		 push	 eax
  000a3	ff 15 00 00 00
	00		 call	 DWORD PTR __imp_??8ioHashString@@QBE_NABV0@@Z
  000a9	84 c0		 test	 al, al
  000ab	75 22		 jne	 SHORT $LN27@IsCollisio

; 174  : 	{
; 175  : 		for( size_t i = 0; i < m_vWantCheckList.size(); i++ )

  000ad	8b 8e 94 08 00
	00		 mov	 ecx, DWORD PTR [esi+2196]
  000b3	8b 86 98 08 00
	00		 mov	 eax, DWORD PTR [esi+2200]
  000b9	2b c1		 sub	 eax, ecx
  000bb	6a 14		 push	 20			; 00000014H
  000bd	99		 cdq
  000be	5b		 pop	 ebx
  000bf	f7 fb		 idiv	 ebx
  000c1	83 45 f8 14	 add	 DWORD PTR tv335[ebp], 20 ; 00000014H

; 176  : 		{
; 177  : 			if( m_vWantCheckList[i].m_stName == pChar->GetCharName() )

  000c5	8b 5d 08	 mov	 ebx, DWORD PTR _pChar$[ebp]
  000c8	47		 inc	 edi
  000c9	3b f8		 cmp	 edi, eax
  000cb	72 cc		 jb	 SHORT $LL8@IsCollisio
  000cd	eb 19		 jmp	 SHORT $LN6@IsCollisio
$LN27@IsCollisio:

; 178  : 			{
; 179  : 				if( m_vWantCheckList[i].m_bTested )

  000cf	8b 86 94 08 00
	00		 mov	 eax, DWORD PTR [esi+2196]
  000d5	6b ff 14	 imul	 edi, 20			; 00000014H
  000d8	8d 7c 07 10	 lea	 edi, DWORD PTR [edi+eax+16]
  000dc	80 3f 00	 cmp	 BYTE PTR [edi], 0
  000df	74 04		 je	 SHORT $LN4@IsCollisio

; 180  : 					return false;

  000e1	32 c0		 xor	 al, al
  000e3	eb 5d		 jmp	 SHORT $LN34@IsCollisio
$LN4@IsCollisio:

; 181  : 
; 182  : 				m_vWantCheckList[i].m_bTested = true;

  000e5	c6 07 01	 mov	 BYTE PTR [edi], 1
$LN6@IsCollisio:

; 183  : 				break;
; 184  : 			}
; 185  : 		}
; 186  : 	}
; 187  : 
; 188  : 	if( bCollision && pChar && (pChar->IsProtectState() || pChar->IsStateProtect(AS_NONE, GetDefenseBreakType() )) )

  000e8	80 7d ff 00	 cmp	 BYTE PTR _bCollision$[ebp], 0
  000ec	74 51		 je	 SHORT $LN32@IsCollisio
  000ee	85 db		 test	 ebx, ebx
  000f0	74 4d		 je	 SHORT $LN32@IsCollisio
  000f2	8b cb		 mov	 ecx, ebx
  000f4	e8 00 00 00 00	 call	 ?IsProtectState@ioBaseChar@@QAE_NXZ ; ioBaseChar::IsProtectState
  000f9	84 c0		 test	 al, al
  000fb	75 15		 jne	 SHORT $LN2@IsCollisio
  000fd	8b ce		 mov	 ecx, esi
  000ff	e8 00 00 00 00	 call	 ?GetDefenseBreakType@ioWeapon@@QBE?AW4DefenseBreakType@@XZ ; ioWeapon::GetDefenseBreakType
  00104	50		 push	 eax
  00105	6a 00		 push	 0
  00107	8b cb		 mov	 ecx, ebx
  00109	e8 00 00 00 00	 call	 ?IsStateProtect@ioBaseChar@@QAE_NW4AttackSide@@W4DefenseBreakType@@@Z ; ioBaseChar::IsStateProtect
  0010e	84 c0		 test	 al, al
  00110	74 2d		 je	 SHORT $LN32@IsCollisio
$LN2@IsCollisio:

; 189  : 	{
; 190  : 		int iType = pChar->CheckBlockEmoticonType();

  00112	8b cb		 mov	 ecx, ebx
  00114	e8 00 00 00 00	 call	 ?CheckBlockEmoticonType@ioBaseChar@@QAEHXZ ; ioBaseChar::CheckBlockEmoticonType
  00119	8b f8		 mov	 edi, eax

; 191  : 		if( iType >= 0 && !IsAlreadyBlocked( pChar ) )

  0011b	85 ff		 test	 edi, edi
  0011d	78 1c		 js	 SHORT $LN1@IsCollisio
  0011f	53		 push	 ebx
  00120	8b ce		 mov	 ecx, esi
  00122	e8 00 00 00 00	 call	 ?IsAlreadyBlocked@ioAreaEffectWeapon@@QBE_NPAVioPlayEntity@@@Z ; ioAreaEffectWeapon::IsAlreadyBlocked
  00127	84 c0		 test	 al, al
  00129	75 10		 jne	 SHORT $LN1@IsCollisio

; 192  : 		{
; 193  : 			AddBlockEntity( pChar );

  0012b	53		 push	 ebx
  0012c	8b ce		 mov	 ecx, esi
  0012e	e8 00 00 00 00	 call	 ?AddBlockEntity@ioAreaEffectWeapon@@QAEXPAVioPlayEntity@@@Z ; ioAreaEffectWeapon::AddBlockEntity

; 194  : 			pChar->SetProtectWound( iType );

  00133	57		 push	 edi
  00134	8b cb		 mov	 ecx, ebx
  00136	e8 00 00 00 00	 call	 ?SetProtectWound@ioBaseChar@@QAEXH@Z ; ioBaseChar::SetProtectWound
$LN1@IsCollisio:

; 195  : 		}
; 196  : 
; 197  : 		bCollision = false;

  0013b	c6 45 ff 00	 mov	 BYTE PTR _bCollision$[ebp], 0
$LN32@IsCollisio:

; 198  : 	}
; 199  : 
; 200  : 	return bCollision;

  0013f	8a 45 ff	 mov	 al, BYTE PTR _bCollision$[ebp]
$LN34@IsCollisio:
  00142	5f		 pop	 edi
  00143	5b		 pop	 ebx
$LN12@IsCollisio:
  00144	5e		 pop	 esi

; 201  : }

  00145	c9		 leave
  00146	c2 08 00	 ret	 8
?IsCollision@ioAreaEffectWeapon@@UAE_NPAVioPlayEntity@@_N@Z ENDP ; ioAreaEffectWeapon::IsCollision
_TEXT	ENDS
PUBLIC	?_Tidy@?$vector@UstWantCheckList@ioAreaEffectWeapon@@V?$allocator@UstWantCheckList@ioAreaEffectWeapon@@@std@@@std@@IAEXXZ ; std::vector<ioAreaEffectWeapon::stWantCheckList,std::allocator<ioAreaEffectWeapon::stWantCheckList> >::_Tidy
EXTRN	__imp_?_Orphan_all@_Container_base0@std@@QAEXXZ:PROC
; Function compile flags: /Ogsp
; File c:\program files (x86)\microsoft visual studio 10.0\vc\include\vector
;	COMDAT ?_Tidy@?$vector@UstWantCheckList@ioAreaEffectWeapon@@V?$allocator@UstWantCheckList@ioAreaEffectWeapon@@@std@@@std@@IAEXXZ
_TEXT	SEGMENT
?_Tidy@?$vector@UstWantCheckList@ioAreaEffectWeapon@@V?$allocator@UstWantCheckList@ioAreaEffectWeapon@@@std@@@std@@IAEXXZ PROC ; std::vector<ioAreaEffectWeapon::stWantCheckList,std::allocator<ioAreaEffectWeapon::stWantCheckList> >::_Tidy, COMDAT
; _this$ = ecx

; 1301 : 		{	// free all storage

  00000	56		 push	 esi
  00001	8b f1		 mov	 esi, ecx

; 1302 : 		if (this->_Myfirst != 0)

  00003	83 3e 00	 cmp	 DWORD PTR [esi], 0
  00006	74 28		 je	 SHORT $LN27@Tidy

; 1303 : 			{	// something to free, destroy and deallocate it
; 1304 : 			this->_Orphan_all();

  00008	53		 push	 ebx
  00009	57		 push	 edi
  0000a	ff 15 00 00 00
	00		 call	 DWORD PTR __imp_?_Orphan_all@_Container_base0@std@@QAEXXZ

; 1305 : 			_Destroy(this->_Myfirst, this->_Mylast);

  00010	8b 5e 04	 mov	 ebx, DWORD PTR [esi+4]
  00013	8b 3e		 mov	 edi, DWORD PTR [esi]
  00015	eb 0b		 jmp	 SHORT $LN31@Tidy
$LL12@Tidy:
  00017	8b cf		 mov	 ecx, edi
  00019	ff 15 00 00 00
	00		 call	 DWORD PTR __imp_??1ioHashString@@QAE@XZ
  0001f	83 c7 14	 add	 edi, 20			; 00000014H
$LN31@Tidy:
  00022	3b fb		 cmp	 edi, ebx
  00024	75 f1		 jne	 SHORT $LL12@Tidy

; 1306 : 			this->_Alval.deallocate(this->_Myfirst,
; 1307 : 				this->_Myend - this->_Myfirst);

  00026	ff 36		 push	 DWORD PTR [esi]
  00028	e8 00 00 00 00	 call	 ??3@YAXPAX@Z		; operator delete
  0002d	59		 pop	 ecx
  0002e	5f		 pop	 edi
  0002f	5b		 pop	 ebx
$LN27@Tidy:

; 1308 : 			}
; 1309 : 		this->_Myfirst = 0;

  00030	33 c0		 xor	 eax, eax
  00032	89 06		 mov	 DWORD PTR [esi], eax

; 1310 : 		this->_Mylast = 0;

  00034	89 46 04	 mov	 DWORD PTR [esi+4], eax

; 1311 : 		this->_Myend = 0;

  00037	89 46 08	 mov	 DWORD PTR [esi+8], eax
  0003a	5e		 pop	 esi

; 1312 : 		}

  0003b	c3		 ret	 0
?_Tidy@?$vector@UstWantCheckList@ioAreaEffectWeapon@@V?$allocator@UstWantCheckList@ioAreaEffectWeapon@@@std@@@std@@IAEXXZ ENDP ; std::vector<ioAreaEffectWeapon::stWantCheckList,std::allocator<ioAreaEffectWeapon::stWantCheckList> >::_Tidy
_TEXT	ENDS
PUBLIC	?reserve@?$vector@VioHashString@@V?$allocator@VioHashString@@@std@@@std@@QAEXI@Z ; std::vector<ioHashString,std::allocator<ioHashString> >::reserve
;	COMDAT xdata$x
; File c:\program files (x86)\microsoft visual studio 10.0\vc\include\xmemory
xdata$x	SEGMENT
__catchsym$?reserve@?$vector@VioHashString@@V?$allocator@VioHashString@@@std@@@std@@QAEXI@Z$2 DD 040H
	DD	00H
	DD	00H
	DD	FLAT:__catch$?reserve@?$vector@VioHashString@@V?$allocator@VioHashString@@@std@@@std@@QAEXI@Z$0
__unwindtable$?reserve@?$vector@VioHashString@@V?$allocator@VioHashString@@@std@@@std@@QAEXI@Z DD 0ffffffffH
	DD	00H
	DD	0ffffffffH
	DD	00H
__tryblocktable$?reserve@?$vector@VioHashString@@V?$allocator@VioHashString@@@std@@@std@@QAEXI@Z DD 00H
	DD	00H
	DD	01H
	DD	01H
	DD	FLAT:__catchsym$?reserve@?$vector@VioHashString@@V?$allocator@VioHashString@@@std@@@std@@QAEXI@Z$2
__ehfuncinfo$?reserve@?$vector@VioHashString@@V?$allocator@VioHashString@@@std@@@std@@QAEXI@Z DD 019930522H
	DD	02H
	DD	FLAT:__unwindtable$?reserve@?$vector@VioHashString@@V?$allocator@VioHashString@@@std@@@std@@QAEXI@Z
	DD	01H
	DD	FLAT:__tryblocktable$?reserve@?$vector@VioHashString@@V?$allocator@VioHashString@@@std@@@std@@QAEXI@Z
	DD	2 DUP(00H)
	DD	00H
	DD	01H
; Function compile flags: /Ogsp
; File c:\program files (x86)\microsoft visual studio 10.0\vc\include\vector
xdata$x	ENDS
;	COMDAT ?reserve@?$vector@VioHashString@@V?$allocator@VioHashString@@@std@@@std@@QAEXI@Z
_TEXT	SEGMENT
tv300 = -24						; size = 4
__Ptr$531785 = -20					; size = 4
__$EHRec$ = -16						; size = 16
$T536544 = 8						; size = 4
__Count$ = 8						; size = 4
?reserve@?$vector@VioHashString@@V?$allocator@VioHashString@@@std@@@std@@QAEXI@Z PROC ; std::vector<ioHashString,std::allocator<ioHashString> >::reserve, COMDAT
; _this$ = ecx

; 746  : 		{	// determine new minimum length of allocated storage

  00000	6a 0c		 push	 12			; 0000000cH
  00002	b8 00 00 00 00	 mov	 eax, __ehhandler$?reserve@?$vector@VioHashString@@V?$allocator@VioHashString@@@std@@@std@@QAEXI@Z
  00007	e8 00 00 00 00	 call	 __EH_prolog3_catch
  0000c	8b f1		 mov	 esi, ecx

; 747  : 		if (max_size() < _Count)

  0000e	8b 5d 08	 mov	 ebx, DWORD PTR __Count$[ebp]
  00011	81 fb ff ff ff
	0f		 cmp	 ebx, 268435455		; 0fffffffH
  00017	76 0b		 jbe	 SHORT $LN5@reserve

; 748  : 			_Xlen();	// result too long

  00019	68 00 00 00 00	 push	 OFFSET ??_C@_0BD@OLBABOEK@vector?$DMT?$DO?5too?5long?$AA@
  0001e	ff 15 00 00 00
	00		 call	 DWORD PTR __imp_?_Xlength_error@std@@YAXPBD@Z
$LN59@reserve:
$LN5@reserve:

; 749  : 		else if (capacity() < _Count)

  00024	8b 46 08	 mov	 eax, DWORD PTR [esi+8]
  00027	2b 06		 sub	 eax, DWORD PTR [esi]
  00029	c1 f8 04	 sar	 eax, 4
  0002c	3b c3		 cmp	 eax, ebx
  0002e	73 7a		 jae	 SHORT $LN3@reserve

; 750  : 			{	// not enough room, reallocate
; 751  : 			pointer _Ptr = this->_Alval.allocate(_Count);

  00030	6a 00		 push	 0
  00032	53		 push	 ebx
  00033	e8 00 00 00 00	 call	 ??$_Allocate@VioHashString@@@std@@YAPAVioHashString@@IPAV1@@Z ; std::_Allocate<ioHashString>

; 752  : 
; 753  : 			_TRY_BEGIN
; 754  : 			_Umove(this->_Myfirst, this->_Mylast, _Ptr);

  00038	8b 0e		 mov	 ecx, DWORD PTR [esi]
  0003a	83 65 fc 00	 and	 DWORD PTR __$EHRec$[ebp+12], 0
  0003e	8d 56 0c	 lea	 edx, DWORD PTR [esi+12]
  00041	52		 push	 edx
  00042	89 45 ec	 mov	 DWORD PTR __Ptr$531785[ebp], eax
  00045	ff 75 ec	 push	 DWORD PTR __Ptr$531785[ebp]
  00048	8b 46 04	 mov	 eax, DWORD PTR [esi+4]
  0004b	50		 push	 eax
  0004c	51		 push	 ecx
  0004d	e8 00 00 00 00	 call	 ??$_Uninitialized_move@PAVioHashString@@PAV1@V?$allocator@VioHashString@@@std@@@std@@YAPAVioHashString@@PAV1@00AAV?$allocator@VioHashString@@@0@@Z ; std::_Uninitialized_move<ioHashString *,ioHashString *,std::allocator<ioHashString> >

; 758  : 			_CATCH_END
; 759  : 
; 760  : 			size_type _Size = size();

  00052	8b 4e 04	 mov	 ecx, DWORD PTR [esi+4]
  00055	8b 06		 mov	 eax, DWORD PTR [esi]
  00057	83 4d fc ff	 or	 DWORD PTR __$EHRec$[ebp+12], -1
  0005b	8b f9		 mov	 edi, ecx
  0005d	83 c4 18	 add	 esp, 24			; 00000018H
  00060	2b f8		 sub	 edi, eax
  00062	89 4d e8	 mov	 DWORD PTR tv300[ebp], ecx
  00065	85 c0		 test	 eax, eax
  00067	74 24		 je	 SHORT $LN51@reserve

; 761  : 			if (this->_Myfirst != 0)
; 762  : 				{	// destroy and deallocate old array
; 763  : 				_Destroy(this->_Myfirst, this->_Mylast);

  00069	89 45 08	 mov	 DWORD PTR $T536544[ebp], eax
  0006c	3b c1		 cmp	 eax, ecx
  0006e	74 15		 je	 SHORT $LN37@reserve
$LN39@reserve:
  00070	8b 4d 08	 mov	 ecx, DWORD PTR $T536544[ebp]
  00073	ff 15 00 00 00
	00		 call	 DWORD PTR __imp_??1ioHashString@@QAE@XZ
  00079	83 45 08 10	 add	 DWORD PTR $T536544[ebp], 16 ; 00000010H
  0007d	8b 45 08	 mov	 eax, DWORD PTR $T536544[ebp]
  00080	3b 45 e8	 cmp	 eax, DWORD PTR tv300[ebp]
  00083	75 eb		 jne	 SHORT $LN39@reserve
$LN37@reserve:

; 764  : 				this->_Alval.deallocate(this->_Myfirst,
; 765  : 					this->_Myend - this->_Myfirst);

  00085	ff 36		 push	 DWORD PTR [esi]
  00087	e8 00 00 00 00	 call	 ??3@YAXPAX@Z		; operator delete
  0008c	59		 pop	 ecx
$LN51@reserve:

; 766  : 				}
; 767  : 
; 768  : 			this->_Orphan_all();

  0008d	8b ce		 mov	 ecx, esi
  0008f	ff 15 00 00 00
	00		 call	 DWORD PTR __imp_?_Orphan_all@_Container_base0@std@@QAEXXZ

; 769  : 			this->_Myend = _Ptr + _Count;

  00095	8b 45 ec	 mov	 eax, DWORD PTR __Ptr$531785[ebp]
  00098	c1 e3 04	 shl	 ebx, 4
  0009b	03 d8		 add	 ebx, eax

; 770  : 			this->_Mylast = _Ptr + _Size;

  0009d	83 e7 f0	 and	 edi, -16		; fffffff0H
  000a0	03 f8		 add	 edi, eax
  000a2	89 5e 08	 mov	 DWORD PTR [esi+8], ebx
  000a5	89 7e 04	 mov	 DWORD PTR [esi+4], edi

; 771  : 			this->_Myfirst = _Ptr;

  000a8	89 06		 mov	 DWORD PTR [esi], eax
$LN3@reserve:

; 772  : 			}
; 773  : 		}

  000aa	e8 00 00 00 00	 call	 __EH_epilog3
  000af	c2 04 00	 ret	 4
__catch$?reserve@?$vector@VioHashString@@V?$allocator@VioHashString@@@std@@@std@@QAEXI@Z$0:

; 755  : 			_CATCH_ALL
; 756  : 			this->_Alval.deallocate(_Ptr, _Count);

  000b2	ff 75 ec	 push	 DWORD PTR __Ptr$531785[ebp]
  000b5	e8 00 00 00 00	 call	 ??3@YAXPAX@Z		; operator delete
  000ba	59		 pop	 ecx

; 757  : 			_RERAISE;

  000bb	6a 00		 push	 0
  000bd	6a 00		 push	 0
  000bf	e8 00 00 00 00	 call	 __CxxThrowException@8
$LN60@reserve:
$LN58@reserve:
  000c4	cc		 int	 3
_TEXT	ENDS
;	COMDAT text$x
text$x	SEGMENT
__ehhandler$?reserve@?$vector@VioHashString@@V?$allocator@VioHashString@@@std@@@std@@QAEXI@Z:
  00000	8b 54 24 08	 mov	 edx, DWORD PTR [esp+8]
  00004	8d 42 0c	 lea	 eax, DWORD PTR [edx+12]
  00007	8b 4a e4	 mov	 ecx, DWORD PTR [edx-28]
  0000a	33 c8		 xor	 ecx, eax
  0000c	e8 00 00 00 00	 call	 @__security_check_cookie@4
  00011	b8 00 00 00 00	 mov	 eax, OFFSET __ehfuncinfo$?reserve@?$vector@VioHashString@@V?$allocator@VioHashString@@@std@@@std@@QAEXI@Z
  00016	e9 00 00 00 00	 jmp	 ___CxxFrameHandler3
text$x	ENDS
?reserve@?$vector@VioHashString@@V?$allocator@VioHashString@@@std@@@std@@QAEXI@Z ENDP ; std::vector<ioHashString,std::allocator<ioHashString> >::reserve
PUBLIC	?reserve@?$vector@UstWantCheckList@ioAreaEffectWeapon@@V?$allocator@UstWantCheckList@ioAreaEffectWeapon@@@std@@@std@@QAEXI@Z ; std::vector<ioAreaEffectWeapon::stWantCheckList,std::allocator<ioAreaEffectWeapon::stWantCheckList> >::reserve
;	COMDAT xdata$x
; File c:\program files (x86)\microsoft visual studio 10.0\vc\include\xmemory
xdata$x	SEGMENT
__catchsym$?reserve@?$vector@UstWantCheckList@ioAreaEffectWeapon@@V?$allocator@UstWantCheckList@ioAreaEffectWeapon@@@std@@@std@@QAEXI@Z$3 DD 040H
	DD	00H
	DD	00H
	DD	FLAT:__catch$?reserve@?$vector@UstWantCheckList@ioAreaEffectWeapon@@V?$allocator@UstWantCheckList@ioAreaEffectWeapon@@@std@@@std@@QAEXI@Z$0
__unwindtable$?reserve@?$vector@UstWantCheckList@ioAreaEffectWeapon@@V?$allocator@UstWantCheckList@ioAreaEffectWeapon@@@std@@@std@@QAEXI@Z DD 0ffffffffH
	DD	00H
	DD	0ffffffffH
	DD	00H
__tryblocktable$?reserve@?$vector@UstWantCheckList@ioAreaEffectWeapon@@V?$allocator@UstWantCheckList@ioAreaEffectWeapon@@@std@@@std@@QAEXI@Z DD 00H
	DD	00H
	DD	01H
	DD	01H
	DD	FLAT:__catchsym$?reserve@?$vector@UstWantCheckList@ioAreaEffectWeapon@@V?$allocator@UstWantCheckList@ioAreaEffectWeapon@@@std@@@std@@QAEXI@Z$3
__ehfuncinfo$?reserve@?$vector@UstWantCheckList@ioAreaEffectWeapon@@V?$allocator@UstWantCheckList@ioAreaEffectWeapon@@@std@@@std@@QAEXI@Z DD 019930522H
	DD	02H
	DD	FLAT:__unwindtable$?reserve@?$vector@UstWantCheckList@ioAreaEffectWeapon@@V?$allocator@UstWantCheckList@ioAreaEffectWeapon@@@std@@@std@@QAEXI@Z
	DD	01H
	DD	FLAT:__tryblocktable$?reserve@?$vector@UstWantCheckList@ioAreaEffectWeapon@@V?$allocator@UstWantCheckList@ioAreaEffectWeapon@@@std@@@std@@QAEXI@Z
	DD	2 DUP(00H)
	DD	00H
	DD	01H
; Function compile flags: /Ogsp
; File c:\program files (x86)\microsoft visual studio 10.0\vc\include\vector
xdata$x	ENDS
;	COMDAT ?reserve@?$vector@UstWantCheckList@ioAreaEffectWeapon@@V?$allocator@UstWantCheckList@ioAreaEffectWeapon@@@std@@@std@@QAEXI@Z
_TEXT	SEGMENT
__Ptr$531859 = -24					; size = 4
$T536716 = -20						; size = 4
__$EHRec$ = -16						; size = 16
__Count$ = 8						; size = 4
?reserve@?$vector@UstWantCheckList@ioAreaEffectWeapon@@V?$allocator@UstWantCheckList@ioAreaEffectWeapon@@@std@@@std@@QAEXI@Z PROC ; std::vector<ioAreaEffectWeapon::stWantCheckList,std::allocator<ioAreaEffectWeapon::stWantCheckList> >::reserve, COMDAT
; _this$ = ecx

; 746  : 		{	// determine new minimum length of allocated storage

  00000	6a 0c		 push	 12			; 0000000cH
  00002	b8 00 00 00 00	 mov	 eax, __ehhandler$?reserve@?$vector@UstWantCheckList@ioAreaEffectWeapon@@V?$allocator@UstWantCheckList@ioAreaEffectWeapon@@@std@@@std@@QAEXI@Z
  00007	e8 00 00 00 00	 call	 __EH_prolog3_catch
  0000c	8b f1		 mov	 esi, ecx

; 747  : 		if (max_size() < _Count)

  0000e	81 7d 08 cc cc
	cc 0c		 cmp	 DWORD PTR __Count$[ebp], 214748364 ; 0cccccccH
  00015	76 0b		 jbe	 SHORT $LN5@reserve@2

; 748  : 			_Xlen();	// result too long

  00017	68 00 00 00 00	 push	 OFFSET ??_C@_0BD@OLBABOEK@vector?$DMT?$DO?5too?5long?$AA@
  0001c	ff 15 00 00 00
	00		 call	 DWORD PTR __imp_?_Xlength_error@std@@YAXPBD@Z
$LN62@reserve@2:
$LN5@reserve@2:

; 749  : 		else if (capacity() < _Count)

  00022	8b 46 08	 mov	 eax, DWORD PTR [esi+8]
  00025	2b 06		 sub	 eax, DWORD PTR [esi]
  00027	6a 14		 push	 20			; 00000014H
  00029	99		 cdq
  0002a	59		 pop	 ecx
  0002b	f7 f9		 idiv	 ecx
  0002d	3b 45 08	 cmp	 eax, DWORD PTR __Count$[ebp]
  00030	0f 83 81 00 00
	00		 jae	 $LN3@reserve@2

; 750  : 			{	// not enough room, reallocate
; 751  : 			pointer _Ptr = this->_Alval.allocate(_Count);

  00036	6a 00		 push	 0
  00038	ff 75 08	 push	 DWORD PTR __Count$[ebp]
  0003b	e8 00 00 00 00	 call	 ??$_Allocate@UstWantCheckList@ioAreaEffectWeapon@@@std@@YAPAUstWantCheckList@ioAreaEffectWeapon@@IPAU12@@Z ; std::_Allocate<ioAreaEffectWeapon::stWantCheckList>

; 752  : 
; 753  : 			_TRY_BEGIN
; 754  : 			_Umove(this->_Myfirst, this->_Mylast, _Ptr);

  00040	8b 0e		 mov	 ecx, DWORD PTR [esi]
  00042	83 65 fc 00	 and	 DWORD PTR __$EHRec$[ebp+12], 0
  00046	8d 56 0c	 lea	 edx, DWORD PTR [esi+12]
  00049	52		 push	 edx
  0004a	89 45 e8	 mov	 DWORD PTR __Ptr$531859[ebp], eax
  0004d	ff 75 e8	 push	 DWORD PTR __Ptr$531859[ebp]
  00050	8b 46 04	 mov	 eax, DWORD PTR [esi+4]
  00053	50		 push	 eax
  00054	51		 push	 ecx
  00055	e8 00 00 00 00	 call	 ??$_Uninitialized_move@PAUstWantCheckList@ioAreaEffectWeapon@@PAU12@V?$allocator@UstWantCheckList@ioAreaEffectWeapon@@@std@@@std@@YAPAUstWantCheckList@ioAreaEffectWeapon@@PAU12@00AAV?$allocator@UstWantCheckList@ioAreaEffectWeapon@@@0@@Z ; std::_Uninitialized_move<ioAreaEffectWeapon::stWantCheckList *,ioAreaEffectWeapon::stWantCheckList *,std::allocator<ioAreaEffectWeapon::stWantCheckList> >

; 758  : 			_CATCH_END
; 759  : 
; 760  : 			size_type _Size = size();

  0005a	8b 5e 04	 mov	 ebx, DWORD PTR [esi+4]
  0005d	8b 0e		 mov	 ecx, DWORD PTR [esi]
  0005f	83 c4 18	 add	 esp, 24			; 00000018H
  00062	8b c3		 mov	 eax, ebx
  00064	2b c1		 sub	 eax, ecx
  00066	6a 14		 push	 20			; 00000014H
  00068	99		 cdq
  00069	5f		 pop	 edi
  0006a	f7 ff		 idiv	 edi
  0006c	83 4d fc ff	 or	 DWORD PTR __$EHRec$[ebp+12], -1
  00070	8b f8		 mov	 edi, eax
  00072	85 c9		 test	 ecx, ecx
  00074	74 21		 je	 SHORT $LN54@reserve@2

; 761  : 			if (this->_Myfirst != 0)
; 762  : 				{	// destroy and deallocate old array
; 763  : 				_Destroy(this->_Myfirst, this->_Mylast);

  00076	89 4d ec	 mov	 DWORD PTR $T536716[ebp], ecx
  00079	3b cb		 cmp	 ecx, ebx
  0007b	74 12		 je	 SHORT $LN37@reserve@2
$LN39@reserve@2:
  0007d	8b 4d ec	 mov	 ecx, DWORD PTR $T536716[ebp]
  00080	ff 15 00 00 00
	00		 call	 DWORD PTR __imp_??1ioHashString@@QAE@XZ
  00086	83 45 ec 14	 add	 DWORD PTR $T536716[ebp], 20 ; 00000014H
  0008a	39 5d ec	 cmp	 DWORD PTR $T536716[ebp], ebx
  0008d	75 ee		 jne	 SHORT $LN39@reserve@2
$LN37@reserve@2:

; 764  : 				this->_Alval.deallocate(this->_Myfirst,
; 765  : 					this->_Myend - this->_Myfirst);

  0008f	ff 36		 push	 DWORD PTR [esi]
  00091	e8 00 00 00 00	 call	 ??3@YAXPAX@Z		; operator delete
  00096	59		 pop	 ecx
$LN54@reserve@2:

; 766  : 				}
; 767  : 
; 768  : 			this->_Orphan_all();

  00097	8b ce		 mov	 ecx, esi
  00099	ff 15 00 00 00
	00		 call	 DWORD PTR __imp_?_Orphan_all@_Container_base0@std@@QAEXXZ

; 769  : 			this->_Myend = _Ptr + _Count;
; 770  : 			this->_Mylast = _Ptr + _Size;

  0009f	6b ff 14	 imul	 edi, 20			; 00000014H
  000a2	8b 45 08	 mov	 eax, DWORD PTR __Count$[ebp]
  000a5	8b 4d e8	 mov	 ecx, DWORD PTR __Ptr$531859[ebp]
  000a8	6b c0 14	 imul	 eax, 20			; 00000014H
  000ab	03 c1		 add	 eax, ecx
  000ad	03 f9		 add	 edi, ecx
  000af	89 46 08	 mov	 DWORD PTR [esi+8], eax
  000b2	89 7e 04	 mov	 DWORD PTR [esi+4], edi

; 771  : 			this->_Myfirst = _Ptr;

  000b5	89 0e		 mov	 DWORD PTR [esi], ecx
$LN3@reserve@2:

; 772  : 			}
; 773  : 		}

  000b7	e8 00 00 00 00	 call	 __EH_epilog3
  000bc	c2 04 00	 ret	 4
__catch$?reserve@?$vector@UstWantCheckList@ioAreaEffectWeapon@@V?$allocator@UstWantCheckList@ioAreaEffectWeapon@@@std@@@std@@QAEXI@Z$0:

; 755  : 			_CATCH_ALL
; 756  : 			this->_Alval.deallocate(_Ptr, _Count);

  000bf	ff 75 e8	 push	 DWORD PTR __Ptr$531859[ebp]
  000c2	e8 00 00 00 00	 call	 ??3@YAXPAX@Z		; operator delete
  000c7	59		 pop	 ecx

; 757  : 			_RERAISE;

  000c8	6a 00		 push	 0
  000ca	6a 00		 push	 0
  000cc	e8 00 00 00 00	 call	 __CxxThrowException@8
$LN63@reserve@2:
$LN61@reserve@2:
  000d1	cc		 int	 3
_TEXT	ENDS
;	COMDAT text$x
text$x	SEGMENT
__ehhandler$?reserve@?$vector@UstWantCheckList@ioAreaEffectWeapon@@V?$allocator@UstWantCheckList@ioAreaEffectWeapon@@@std@@@std@@QAEXI@Z:
  00000	8b 54 24 08	 mov	 edx, DWORD PTR [esp+8]
  00004	8d 42 0c	 lea	 eax, DWORD PTR [edx+12]
  00007	8b 4a e4	 mov	 ecx, DWORD PTR [edx-28]
  0000a	33 c8		 xor	 ecx, eax
  0000c	e8 00 00 00 00	 call	 @__security_check_cookie@4
  00011	b8 00 00 00 00	 mov	 eax, OFFSET __ehfuncinfo$?reserve@?$vector@UstWantCheckList@ioAreaEffectWeapon@@V?$allocator@UstWantCheckList@ioAreaEffectWeapon@@@std@@@std@@QAEXI@Z
  00016	e9 00 00 00 00	 jmp	 ___CxxFrameHandler3
text$x	ENDS
?reserve@?$vector@UstWantCheckList@ioAreaEffectWeapon@@V?$allocator@UstWantCheckList@ioAreaEffectWeapon@@@std@@@std@@QAEXI@Z ENDP ; std::vector<ioAreaEffectWeapon::stWantCheckList,std::allocator<ioAreaEffectWeapon::stWantCheckList> >::reserve
PUBLIC	?erase@?$vector@VioHashString@@V?$allocator@VioHashString@@@std@@@std@@QAE?AV?$_Vector_iterator@V?$_Vector_val@VioHashString@@V?$allocator@VioHashString@@@std@@@std@@@2@V?$_Vector_const_iterator@V?$_Vector_val@VioHashString@@V?$allocator@VioHashString@@@std@@@std@@@2@0@Z ; std::vector<ioHashString,std::allocator<ioHashString> >::erase
; Function compile flags: /Ogsp
;	COMDAT ?erase@?$vector@VioHashString@@V?$allocator@VioHashString@@@std@@@std@@QAE?AV?$_Vector_iterator@V?$_Vector_val@VioHashString@@V?$allocator@VioHashString@@@std@@@std@@@2@V?$_Vector_const_iterator@V?$_Vector_val@VioHashString@@V?$allocator@VioHashString@@@std@@@std@@@2@0@Z
_TEXT	SEGMENT
$T536915 = -4						; size = 4
___$ReturnUdt$ = 8					; size = 4
__First_arg$ = 12					; size = 4
__Cat$536860 = 16					; size = 1
__Last_arg$ = 16					; size = 4
?erase@?$vector@VioHashString@@V?$allocator@VioHashString@@@std@@@std@@QAE?AV?$_Vector_iterator@V?$_Vector_val@VioHashString@@V?$allocator@VioHashString@@@std@@@std@@@2@V?$_Vector_const_iterator@V?$_Vector_val@VioHashString@@V?$allocator@VioHashString@@@std@@@std@@@2@0@Z PROC ; std::vector<ioHashString,std::allocator<ioHashString> >::erase, COMDAT
; _this$ = ecx

; 1190 : 		{	// erase [_First, _Last)

  00000	55		 push	 ebp
  00001	8b ec		 mov	 ebp, esp
  00003	51		 push	 ecx

; 1191 : 		iterator _First = _Make_iter(_First_arg);

  00004	8b 45 08	 mov	 eax, DWORD PTR ___$ReturnUdt$[ebp]
  00007	56		 push	 esi
  00008	8b f1		 mov	 esi, ecx
  0000a	8b 4d 0c	 mov	 ecx, DWORD PTR __First_arg$[ebp]
  0000d	89 08		 mov	 DWORD PTR [eax], ecx

; 1192 : 		iterator _Last = _Make_iter(_Last_arg);
; 1193 : 
; 1194 : 		if (_First != _Last)

  0000f	3b 4d 10	 cmp	 ecx, DWORD PTR __Last_arg$[ebp]
  00012	74 38		 je	 SHORT $LN1@erase

; 1195 : 			{	// worth doing, copy down over hole
; 1196 :  #if _ITERATOR_DEBUG_LEVEL == 2
; 1197 : 			if (_Last < _First || _VICONT(_First) != this
; 1198 : 				|| _VIPTR(_First) < this->_Myfirst
; 1199 : 				|| this->_Mylast < _VIPTR(_Last))
; 1200 : 				_DEBUG_ERROR("vector erase iterator outside range");
; 1201 : 			pointer _Ptr = _Move(_VIPTR(_Last), this->_Mylast,
; 1202 : 				_VIPTR(_First));
; 1203 : 			_Orphan_range(_VIPTR(_First), this->_Mylast);
; 1204 : 
; 1205 :  #else /* _ITERATOR_DEBUG_LEVEL == 2 */
; 1206 : 			pointer _Ptr = _Move(_VIPTR(_Last), this->_Mylast,
; 1207 : 				_VIPTR(_First));

  00014	8b 46 04	 mov	 eax, DWORD PTR [esi+4]
  00017	53		 push	 ebx
  00018	57		 push	 edi
  00019	ff 75 10	 push	 DWORD PTR __Cat$536860[ebp]
  0001c	51		 push	 ecx
  0001d	50		 push	 eax
  0001e	ff 75 10	 push	 DWORD PTR __Last_arg$[ebp]
  00021	e8 00 00 00 00	 call	 ??$_Move@PAVioHashString@@PAV1@@std@@YAPAVioHashString@@PAV1@00U_Nonscalar_ptr_iterator_tag@0@@Z ; std::_Move<ioHashString *,ioHashString *>

; 1208 :  #endif /* _ITERATOR_DEBUG_LEVEL == 2 */
; 1209 : 
; 1210 : 			_Destroy(_Ptr, this->_Mylast);

  00026	8b 7e 04	 mov	 edi, DWORD PTR [esi+4]
  00029	8b d8		 mov	 ebx, eax
  0002b	83 c4 10	 add	 esp, 16			; 00000010H
  0002e	89 5d fc	 mov	 DWORD PTR $T536915[ebp], ebx
  00031	3b df		 cmp	 ebx, edi
  00033	74 12		 je	 SHORT $LN36@erase
$LL52@erase:
  00035	8b 4d fc	 mov	 ecx, DWORD PTR $T536915[ebp]
  00038	ff 15 00 00 00
	00		 call	 DWORD PTR __imp_??1ioHashString@@QAE@XZ
  0003e	83 45 fc 10	 add	 DWORD PTR $T536915[ebp], 16 ; 00000010H
  00042	39 7d fc	 cmp	 DWORD PTR $T536915[ebp], edi
  00045	75 ee		 jne	 SHORT $LL52@erase
$LN36@erase:

; 1211 : 			this->_Mylast = _Ptr;

  00047	5f		 pop	 edi
  00048	89 5e 04	 mov	 DWORD PTR [esi+4], ebx
  0004b	5b		 pop	 ebx
$LN1@erase:

; 1212 : 			}
; 1213 : 		return (_First);

  0004c	8b 45 08	 mov	 eax, DWORD PTR ___$ReturnUdt$[ebp]
  0004f	5e		 pop	 esi

; 1214 : 		}

  00050	c9		 leave
  00051	c2 0c 00	 ret	 12			; 0000000cH
?erase@?$vector@VioHashString@@V?$allocator@VioHashString@@@std@@@std@@QAE?AV?$_Vector_iterator@V?$_Vector_val@VioHashString@@V?$allocator@VioHashString@@@std@@@std@@@2@V?$_Vector_const_iterator@V?$_Vector_val@VioHashString@@V?$allocator@VioHashString@@@std@@@std@@@2@0@Z ENDP ; std::vector<ioHashString,std::allocator<ioHashString> >::erase
_TEXT	ENDS
PUBLIC	?_Tidy@?$vector@VioHashString@@V?$allocator@VioHashString@@@std@@@std@@IAEXXZ ; std::vector<ioHashString,std::allocator<ioHashString> >::_Tidy
; Function compile flags: /Ogsp
;	COMDAT ?_Tidy@?$vector@VioHashString@@V?$allocator@VioHashString@@@std@@@std@@IAEXXZ
_TEXT	SEGMENT
?_Tidy@?$vector@VioHashString@@V?$allocator@VioHashString@@@std@@@std@@IAEXXZ PROC ; std::vector<ioHashString,std::allocator<ioHashString> >::_Tidy, COMDAT
; _this$ = ecx

; 1301 : 		{	// free all storage

  00000	56		 push	 esi
  00001	8b f1		 mov	 esi, ecx

; 1302 : 		if (this->_Myfirst != 0)

  00003	83 3e 00	 cmp	 DWORD PTR [esi], 0
  00006	74 28		 je	 SHORT $LN24@Tidy@2

; 1303 : 			{	// something to free, destroy and deallocate it
; 1304 : 			this->_Orphan_all();

  00008	53		 push	 ebx
  00009	57		 push	 edi
  0000a	ff 15 00 00 00
	00		 call	 DWORD PTR __imp_?_Orphan_all@_Container_base0@std@@QAEXXZ

; 1305 : 			_Destroy(this->_Myfirst, this->_Mylast);

  00010	8b 5e 04	 mov	 ebx, DWORD PTR [esi+4]
  00013	8b 3e		 mov	 edi, DWORD PTR [esi]
  00015	eb 0b		 jmp	 SHORT $LN28@Tidy@2
$LL12@Tidy@2:
  00017	8b cf		 mov	 ecx, edi
  00019	ff 15 00 00 00
	00		 call	 DWORD PTR __imp_??1ioHashString@@QAE@XZ
  0001f	83 c7 10	 add	 edi, 16			; 00000010H
$LN28@Tidy@2:
  00022	3b fb		 cmp	 edi, ebx
  00024	75 f1		 jne	 SHORT $LL12@Tidy@2

; 1306 : 			this->_Alval.deallocate(this->_Myfirst,
; 1307 : 				this->_Myend - this->_Myfirst);

  00026	ff 36		 push	 DWORD PTR [esi]
  00028	e8 00 00 00 00	 call	 ??3@YAXPAX@Z		; operator delete
  0002d	59		 pop	 ecx
  0002e	5f		 pop	 edi
  0002f	5b		 pop	 ebx
$LN24@Tidy@2:

; 1308 : 			}
; 1309 : 		this->_Myfirst = 0;

  00030	33 c0		 xor	 eax, eax
  00032	89 06		 mov	 DWORD PTR [esi], eax

; 1310 : 		this->_Mylast = 0;

  00034	89 46 04	 mov	 DWORD PTR [esi+4], eax

; 1311 : 		this->_Myend = 0;

  00037	89 46 08	 mov	 DWORD PTR [esi+8], eax
  0003a	5e		 pop	 esi

; 1312 : 		}

  0003b	c3		 ret	 0
?_Tidy@?$vector@VioHashString@@V?$allocator@VioHashString@@@std@@@std@@IAEXXZ ENDP ; std::vector<ioHashString,std::allocator<ioHashString> >::_Tidy
_TEXT	ENDS
PUBLIC	??1?$vector@UstWantCheckList@ioAreaEffectWeapon@@V?$allocator@UstWantCheckList@ioAreaEffectWeapon@@@std@@@std@@QAE@XZ ; std::vector<ioAreaEffectWeapon::stWantCheckList,std::allocator<ioAreaEffectWeapon::stWantCheckList> >::~vector<ioAreaEffectWeapon::stWantCheckList,std::allocator<ioAreaEffectWeapon::stWantCheckList> >
; Function compile flags: /Ogsp
;	COMDAT ??1?$vector@UstWantCheckList@ioAreaEffectWeapon@@V?$allocator@UstWantCheckList@ioAreaEffectWeapon@@@std@@@std@@QAE@XZ
_TEXT	SEGMENT
??1?$vector@UstWantCheckList@ioAreaEffectWeapon@@V?$allocator@UstWantCheckList@ioAreaEffectWeapon@@@std@@@std@@QAE@XZ PROC ; std::vector<ioAreaEffectWeapon::stWantCheckList,std::allocator<ioAreaEffectWeapon::stWantCheckList> >::~vector<ioAreaEffectWeapon::stWantCheckList,std::allocator<ioAreaEffectWeapon::stWantCheckList> >, COMDAT
; _this$ = ecx

; 705  : 		_Tidy();

  00000	e9 00 00 00 00	 jmp	 ?_Tidy@?$vector@UstWantCheckList@ioAreaEffectWeapon@@V?$allocator@UstWantCheckList@ioAreaEffectWeapon@@@std@@@std@@IAEXXZ ; std::vector<ioAreaEffectWeapon::stWantCheckList,std::allocator<ioAreaEffectWeapon::stWantCheckList> >::_Tidy
??1?$vector@UstWantCheckList@ioAreaEffectWeapon@@V?$allocator@UstWantCheckList@ioAreaEffectWeapon@@@std@@@std@@QAE@XZ ENDP ; std::vector<ioAreaEffectWeapon::stWantCheckList,std::allocator<ioAreaEffectWeapon::stWantCheckList> >::~vector<ioAreaEffectWeapon::stWantCheckList,std::allocator<ioAreaEffectWeapon::stWantCheckList> >
_TEXT	ENDS
PUBLIC	?_Reserve@?$vector@VioHashString@@V?$allocator@VioHashString@@@std@@@std@@IAEXI@Z ; std::vector<ioHashString,std::allocator<ioHashString> >::_Reserve
; Function compile flags: /Ogsp
;	COMDAT ?_Reserve@?$vector@VioHashString@@V?$allocator@VioHashString@@@std@@@std@@IAEXI@Z
_TEXT	SEGMENT
__Count$ = 8						; size = 4
?_Reserve@?$vector@VioHashString@@V?$allocator@VioHashString@@@std@@@std@@IAEXI@Z PROC ; std::vector<ioHashString,std::allocator<ioHashString> >::_Reserve, COMDAT
; _this$ = ecx

; 1290 : 		{	// ensure room for _Count new elements, grow exponentially

  00000	55		 push	 ebp
  00001	8b ec		 mov	 ebp, esp
  00003	56		 push	 esi
  00004	8b f1		 mov	 esi, ecx

; 1291 : 		size_type _Size = size();

  00006	8b 0e		 mov	 ecx, DWORD PTR [esi]
  00008	8b 46 04	 mov	 eax, DWORD PTR [esi+4]
  0000b	2b c1		 sub	 eax, ecx

; 1292 : 		if (max_size() - _Count < _Size)

  0000d	ba ff ff ff 0f	 mov	 edx, 268435455		; 0fffffffH
  00012	2b 55 08	 sub	 edx, DWORD PTR __Count$[ebp]
  00015	c1 f8 04	 sar	 eax, 4
  00018	3b d0		 cmp	 edx, eax
  0001a	73 0b		 jae	 SHORT $LN4@Reserve

; 1293 : 			_Xlen();

  0001c	68 00 00 00 00	 push	 OFFSET ??_C@_0BD@OLBABOEK@vector?$DMT?$DO?5too?5long?$AA@
  00021	ff 15 00 00 00
	00		 call	 DWORD PTR __imp_?_Xlength_error@std@@YAXPBD@Z
$LN21@Reserve:
$LN4@Reserve:

; 1294 : 		else if ((_Size += _Count) <= capacity())

  00027	8b 56 08	 mov	 edx, DWORD PTR [esi+8]
  0002a	03 45 08	 add	 eax, DWORD PTR __Count$[ebp]
  0002d	2b d1		 sub	 edx, ecx
  0002f	c1 fa 04	 sar	 edx, 4
  00032	3b c2		 cmp	 eax, edx
  00034	76 10		 jbe	 SHORT $LN1@Reserve

; 1295 : 			;
; 1296 : 		else
; 1297 : 			reserve(_Grow_to(_Size));

  00036	50		 push	 eax
  00037	8b ce		 mov	 ecx, esi
  00039	e8 00 00 00 00	 call	 ?_Grow_to@?$vector@VioHashString@@V?$allocator@VioHashString@@@std@@@std@@IBEII@Z ; std::vector<ioHashString,std::allocator<ioHashString> >::_Grow_to
  0003e	50		 push	 eax
  0003f	8b ce		 mov	 ecx, esi
  00041	e8 00 00 00 00	 call	 ?reserve@?$vector@VioHashString@@V?$allocator@VioHashString@@@std@@@std@@QAEXI@Z ; std::vector<ioHashString,std::allocator<ioHashString> >::reserve
$LN1@Reserve:
  00046	5e		 pop	 esi

; 1298 : 		}

  00047	5d		 pop	 ebp
  00048	c2 04 00	 ret	 4
$LN20@Reserve:
?_Reserve@?$vector@VioHashString@@V?$allocator@VioHashString@@@std@@@std@@IAEXI@Z ENDP ; std::vector<ioHashString,std::allocator<ioHashString> >::_Reserve
_TEXT	ENDS
PUBLIC	?_Reserve@?$vector@UstWantCheckList@ioAreaEffectWeapon@@V?$allocator@UstWantCheckList@ioAreaEffectWeapon@@@std@@@std@@IAEXI@Z ; std::vector<ioAreaEffectWeapon::stWantCheckList,std::allocator<ioAreaEffectWeapon::stWantCheckList> >::_Reserve
; Function compile flags: /Ogsp
;	COMDAT ?_Reserve@?$vector@UstWantCheckList@ioAreaEffectWeapon@@V?$allocator@UstWantCheckList@ioAreaEffectWeapon@@@std@@@std@@IAEXI@Z
_TEXT	SEGMENT
__Count$ = 8						; size = 4
?_Reserve@?$vector@UstWantCheckList@ioAreaEffectWeapon@@V?$allocator@UstWantCheckList@ioAreaEffectWeapon@@@std@@@std@@IAEXI@Z PROC ; std::vector<ioAreaEffectWeapon::stWantCheckList,std::allocator<ioAreaEffectWeapon::stWantCheckList> >::_Reserve, COMDAT
; _this$ = ecx

; 1290 : 		{	// ensure room for _Count new elements, grow exponentially

  00000	55		 push	 ebp
  00001	8b ec		 mov	 ebp, esp
  00003	56		 push	 esi
  00004	8b f1		 mov	 esi, ecx

; 1291 : 		size_type _Size = size();

  00006	8b 0e		 mov	 ecx, DWORD PTR [esi]
  00008	8b 46 04	 mov	 eax, DWORD PTR [esi+4]
  0000b	2b c1		 sub	 eax, ecx
  0000d	57		 push	 edi
  0000e	99		 cdq
  0000f	6a 14		 push	 20			; 00000014H
  00011	5f		 pop	 edi
  00012	f7 ff		 idiv	 edi
  00014	8b f8		 mov	 edi, eax

; 1292 : 		if (max_size() - _Count < _Size)

  00016	b8 cc cc cc 0c	 mov	 eax, 214748364		; 0cccccccH
  0001b	2b 45 08	 sub	 eax, DWORD PTR __Count$[ebp]
  0001e	3b c7		 cmp	 eax, edi
  00020	73 0b		 jae	 SHORT $LN4@Reserve@2

; 1293 : 			_Xlen();

  00022	68 00 00 00 00	 push	 OFFSET ??_C@_0BD@OLBABOEK@vector?$DMT?$DO?5too?5long?$AA@
  00027	ff 15 00 00 00
	00		 call	 DWORD PTR __imp_?_Xlength_error@std@@YAXPBD@Z
$LN21@Reserve@2:
$LN4@Reserve@2:

; 1294 : 		else if ((_Size += _Count) <= capacity())

  0002d	8b 46 08	 mov	 eax, DWORD PTR [esi+8]
  00030	2b c1		 sub	 eax, ecx
  00032	6a 14		 push	 20			; 00000014H
  00034	99		 cdq
  00035	59		 pop	 ecx
  00036	f7 f9		 idiv	 ecx
  00038	03 7d 08	 add	 edi, DWORD PTR __Count$[ebp]
  0003b	3b f8		 cmp	 edi, eax
  0003d	76 10		 jbe	 SHORT $LN1@Reserve@2

; 1295 : 			;
; 1296 : 		else
; 1297 : 			reserve(_Grow_to(_Size));

  0003f	57		 push	 edi
  00040	8b ce		 mov	 ecx, esi
  00042	e8 00 00 00 00	 call	 ?_Grow_to@?$vector@UstWantCheckList@ioAreaEffectWeapon@@V?$allocator@UstWantCheckList@ioAreaEffectWeapon@@@std@@@std@@IBEII@Z ; std::vector<ioAreaEffectWeapon::stWantCheckList,std::allocator<ioAreaEffectWeapon::stWantCheckList> >::_Grow_to
  00047	50		 push	 eax
  00048	8b ce		 mov	 ecx, esi
  0004a	e8 00 00 00 00	 call	 ?reserve@?$vector@UstWantCheckList@ioAreaEffectWeapon@@V?$allocator@UstWantCheckList@ioAreaEffectWeapon@@@std@@@std@@QAEXI@Z ; std::vector<ioAreaEffectWeapon::stWantCheckList,std::allocator<ioAreaEffectWeapon::stWantCheckList> >::reserve
$LN1@Reserve@2:
  0004f	5f		 pop	 edi
  00050	5e		 pop	 esi

; 1298 : 		}

  00051	5d		 pop	 ebp
  00052	c2 04 00	 ret	 4
$LN20@Reserve@2:
?_Reserve@?$vector@UstWantCheckList@ioAreaEffectWeapon@@V?$allocator@UstWantCheckList@ioAreaEffectWeapon@@@std@@@std@@IAEXI@Z ENDP ; std::vector<ioAreaEffectWeapon::stWantCheckList,std::allocator<ioAreaEffectWeapon::stWantCheckList> >::_Reserve
_TEXT	ENDS
PUBLIC	??1?$vector@VioHashString@@V?$allocator@VioHashString@@@std@@@std@@QAE@XZ ; std::vector<ioHashString,std::allocator<ioHashString> >::~vector<ioHashString,std::allocator<ioHashString> >
; Function compile flags: /Ogsp
;	COMDAT ??1?$vector@VioHashString@@V?$allocator@VioHashString@@@std@@@std@@QAE@XZ
_TEXT	SEGMENT
??1?$vector@VioHashString@@V?$allocator@VioHashString@@@std@@@std@@QAE@XZ PROC ; std::vector<ioHashString,std::allocator<ioHashString> >::~vector<ioHashString,std::allocator<ioHashString> >, COMDAT
; _this$ = ecx

; 705  : 		_Tidy();

  00000	e9 00 00 00 00	 jmp	 ?_Tidy@?$vector@VioHashString@@V?$allocator@VioHashString@@@std@@@std@@IAEXXZ ; std::vector<ioHashString,std::allocator<ioHashString> >::_Tidy
??1?$vector@VioHashString@@V?$allocator@VioHashString@@@std@@@std@@QAE@XZ ENDP ; std::vector<ioHashString,std::allocator<ioHashString> >::~vector<ioHashString,std::allocator<ioHashString> >
_TEXT	ENDS
PUBLIC	?clear@?$vector@VioHashString@@V?$allocator@VioHashString@@@std@@@std@@QAEXXZ ; std::vector<ioHashString,std::allocator<ioHashString> >::clear
; Function compile flags: /Ogsp
;	COMDAT ?clear@?$vector@VioHashString@@V?$allocator@VioHashString@@@std@@@std@@QAEXXZ
_TEXT	SEGMENT
$T537148 = -4						; size = 4
?clear@?$vector@VioHashString@@V?$allocator@VioHashString@@@std@@@std@@QAEXXZ PROC ; std::vector<ioHashString,std::allocator<ioHashString> >::clear, COMDAT
; _this$ = ecx

; 1217 : 		{	// erase all

  00000	55		 push	 ebp
  00001	8b ec		 mov	 ebp, esp
  00003	51		 push	 ecx

; 1218 : 		erase(begin(), end());

  00004	8b 41 04	 mov	 eax, DWORD PTR [ecx+4]
  00007	8b 11		 mov	 edx, DWORD PTR [ecx]
  00009	50		 push	 eax
  0000a	52		 push	 edx
  0000b	8d 45 fc	 lea	 eax, DWORD PTR $T537148[ebp]
  0000e	50		 push	 eax
  0000f	e8 00 00 00 00	 call	 ?erase@?$vector@VioHashString@@V?$allocator@VioHashString@@@std@@@std@@QAE?AV?$_Vector_iterator@V?$_Vector_val@VioHashString@@V?$allocator@VioHashString@@@std@@@std@@@2@V?$_Vector_const_iterator@V?$_Vector_val@VioHashString@@V?$allocator@VioHashString@@@std@@@std@@@2@0@Z ; std::vector<ioHashString,std::allocator<ioHashString> >::erase

; 1219 : 		}

  00014	c9		 leave
  00015	c3		 ret	 0
?clear@?$vector@VioHashString@@V?$allocator@VioHashString@@@std@@@std@@QAEXXZ ENDP ; std::vector<ioHashString,std::allocator<ioHashString> >::clear
_TEXT	ENDS
PUBLIC	??_7ioAreaEffectWeapon@@6B@			; ioAreaEffectWeapon::`vftable'
PUBLIC	??0ioAreaEffectWeapon@@QAE@PAVioBaseChar@@PBUWeaponAttribute@@@Z ; ioAreaEffectWeapon::ioAreaEffectWeapon
PUBLIC	??_R4ioAreaEffectWeapon@@6B@			; ioAreaEffectWeapon::`RTTI Complete Object Locator'
PUBLIC	??_R0?AVioAreaEffectWeapon@@@8			; ioAreaEffectWeapon `RTTI Type Descriptor'
PUBLIC	??_R3ioAreaEffectWeapon@@8			; ioAreaEffectWeapon::`RTTI Class Hierarchy Descriptor'
PUBLIC	??_R2ioAreaEffectWeapon@@8			; ioAreaEffectWeapon::`RTTI Base Class Array'
PUBLIC	??_R1A@?0A@EA@ioAreaEffectWeapon@@8		; ioAreaEffectWeapon::`RTTI Base Class Descriptor at (0,-1,0,64)'
PUBLIC	??_R1A@?0A@EA@ioWeapon@@8			; ioWeapon::`RTTI Base Class Descriptor at (0,-1,0,64)'
PUBLIC	??_R0?AVioWeapon@@@8				; ioWeapon `RTTI Type Descriptor'
PUBLIC	??_R3ioWeapon@@8				; ioWeapon::`RTTI Class Hierarchy Descriptor'
PUBLIC	??_R2ioWeapon@@8				; ioWeapon::`RTTI Base Class Array'
EXTRN	??1ioWeapon@@UAE@XZ:PROC			; ioWeapon::~ioWeapon
EXTRN	?SetPeculiarity@ioWeapon@@QAEXK@Z:PROC		; ioWeapon::SetPeculiarity
EXTRN	??0ioWeapon@@QAE@PAVioBaseChar@@PBUWeaponAttribute@@@Z:PROC ; ioWeapon::ioWeapon
EXTRN	?IsAlreadyCollisioned@ioWeapon@@UAE_NPAVioPlayEntity@@@Z:PROC ; ioWeapon::IsAlreadyCollisioned
EXTRN	?AddCollisionEntity@ioWeapon@@UAEXPAVioPlayEntity@@@Z:PROC ; ioWeapon::AddCollisionEntity
EXTRN	?SetOwnerDamageRate@ioWeapon@@UAEXM@Z:PROC	; ioWeapon::SetOwnerDamageRate
EXTRN	?SetOwnerChargeDamageRate@ioWeapon@@UAEXM@Z:PROC ; ioWeapon::SetOwnerChargeDamageRate
EXTRN	?SetOwnerChargeForceRate@ioWeapon@@UAEXM@Z:PROC	; ioWeapon::SetOwnerChargeForceRate
EXTRN	?SetOwnerChargeRangeRate@ioWeapon@@UAEXM@Z:PROC	; ioWeapon::SetOwnerChargeRangeRate
EXTRN	?SetOwnerChargeSpeedRate@ioWeapon@@UAEXM@Z:PROC	; ioWeapon::SetOwnerChargeSpeedRate
EXTRN	?SetOwnerChargeBlowRate@ioWeapon@@UAEXM@Z:PROC	; ioWeapon::SetOwnerChargeBlowRate
EXTRN	?SetOwnerChargeFloatRate@ioWeapon@@UAEXM@Z:PROC	; ioWeapon::SetOwnerChargeFloatRate
EXTRN	?SetOwnerChargeScaleRate@ioWeapon@@UAEXM@Z:PROC	; ioWeapon::SetOwnerChargeScaleRate
EXTRN	?SetOwnerChargeExplosionRate@ioWeapon@@UAEXM@Z:PROC ; ioWeapon::SetOwnerChargeExplosionRate
EXTRN	?SetOwnerChargeWoundedTimeRate@ioWeapon@@UAEXM@Z:PROC ; ioWeapon::SetOwnerChargeWoundedTimeRate
EXTRN	?SetOwnerChargeLiveTimeRate@ioWeapon@@UAEXM@Z:PROC ; ioWeapon::SetOwnerChargeLiveTimeRate
EXTRN	?SetOwnerChargeBuffLiveTimeRate@ioWeapon@@UAEXM@Z:PROC ; ioWeapon::SetOwnerChargeBuffLiveTimeRate
EXTRN	?SetWeaponIndex@ioWeapon@@UAEXK@Z:PROC		; ioWeapon::SetWeaponIndex
EXTRN	?SetGrapplingTargetName@ioWeapon@@UAEXABVioHashString@@@Z:PROC ; ioWeapon::SetGrapplingTargetName
EXTRN	?SetCreateItem@ioWeapon@@UAEXABVioHashString@@@Z:PROC ; ioWeapon::SetCreateItem
EXTRN	?SetTeam@ioWeapon@@UAEXPAVioPlayStage@@W4TeamType@@@Z:PROC ; ioWeapon::SetTeam
EXTRN	?CallReserveAreaWeapon@ioWeapon@@UAEXXZ:PROC	; ioWeapon::CallReserveAreaWeapon
EXTRN	?SetWeaponDead@ioWeapon@@UAEXXZ:PROC		; ioWeapon::SetWeaponDead
EXTRN	?PlayExplosionSound@ioWeapon@@UAEXXZ:PROC	; ioWeapon::PlayExplosionSound
EXTRN	?PlayWoundedSound@ioWeapon@@UAEXPAVioPlayEntity@@@Z:PROC ; ioWeapon::PlayWoundedSound
EXTRN	?PlayDefensedSound@ioWeapon@@UAEXPAVioPlayEntity@@@Z:PROC ; ioWeapon::PlayDefensedSound
EXTRN	?PlayLoopSound@ioWeapon@@UAEXXZ:PROC		; ioWeapon::PlayLoopSound
EXTRN	?StopLoopSound@ioWeapon@@UAEXXZ:PROC		; ioWeapon::StopLoopSound
EXTRN	?GetTargetAirBuffList@ioWeapon@@UBEABV?$vector@UBuffInfoStruct@@V?$allocator@UBuffInfoStruct@@@std@@@std@@XZ:PROC ; ioWeapon::GetTargetAirBuffList
EXTRN	?GetTargetBuffList@ioWeapon@@UBEABV?$vector@UBuffInfoStruct@@V?$allocator@UBuffInfoStruct@@@std@@@std@@XZ:PROC ; ioWeapon::GetTargetBuffList
EXTRN	?GetTargetDownBuffList@ioWeapon@@UBEABV?$vector@UBuffInfoStruct@@V?$allocator@UBuffInfoStruct@@@std@@@std@@XZ:PROC ; ioWeapon::GetTargetDownBuffList
EXTRN	?GetPosition@ioWeapon@@UBEABUD3DXVECTOR3@@XZ:PROC ; ioWeapon::GetPosition
EXTRN	?GetBlowType@ioWeapon@@UBE?AW4BlowTargetType@@XZ:PROC ; ioWeapon::GetBlowType
EXTRN	?GetPushPower@ioWeapon@@UBEMM@Z:PROC		; ioWeapon::GetPushPower
EXTRN	?GetBlowPower@ioWeapon@@UBEMM@Z:PROC		; ioWeapon::GetBlowPower
EXTRN	?GetAirPushPower@ioWeapon@@UBEMM@Z:PROC		; ioWeapon::GetAirPushPower
EXTRN	?GetAirBlowPower@ioWeapon@@UBEMM@Z:PROC		; ioWeapon::GetAirBlowPower
EXTRN	?GetDefensePushPower@ioWeapon@@UBEMM@Z:PROC	; ioWeapon::GetDefensePushPower
EXTRN	?GetCollisionEnableTime@ioWeapon@@UBEKXZ:PROC	; ioWeapon::GetCollisionEnableTime
EXTRN	?SetSylphid@ioWeapon@@UAEHXZ:PROC		; ioWeapon::SetSylphid
EXTRN	?ApplyExtraReserveWeaponByWeaponInfo@ioWeapon@@UAEXPAV1@@Z:PROC ; ioWeapon::ApplyExtraReserveWeaponByWeaponInfo
EXTRN	?InitResource@ioWeapon@@UAE_NXZ:PROC		; ioWeapon::InitResource
EXTRN	?DestroyResource@ioWeapon@@UAEXPAVioPlayStage@@@Z:PROC ; ioWeapon::DestroyResource
EXTRN	?SetResistanceAttr@ioWeapon@@UAEXH@Z:PROC	; ioWeapon::SetResistanceAttr
EXTRN	?SetStartCollisionBox@ioWeapon@@UAEXXZ:PROC	; ioWeapon::SetStartCollisionBox
EXTRN	?SetLiveTime@ioWeapon@@UAEXK@Z:PROC		; ioWeapon::SetLiveTime
EXTRN	?SetMoveDir@ioWeapon@@UAEXABUD3DXVECTOR3@@@Z:PROC ; ioWeapon::SetMoveDir
EXTRN	?SetMoveSpeed@ioWeapon@@UAEXM@Z:PROC		; ioWeapon::SetMoveSpeed
EXTRN	?SetFloatPower@ioWeapon@@UAEXM@Z:PROC		; ioWeapon::SetFloatPower
EXTRN	?TestMapCollision@ioWeapon@@UAE_NPAVioOpcodeShape@@PAVioPlayStage@@PBUD3DXMATRIX@@@Z:PROC ; ioWeapon::TestMapCollision
EXTRN	?CheckPreCollision@ioWeapon@@UAEXPAVioPlayEntity@@PAVioPlayStage@@@Z:PROC ; ioWeapon::CheckPreCollision
EXTRN	?CheckStructAndDummy@ioWeapon@@UAEXPAVioPlayEntity@@PAVioPlayStage@@@Z:PROC ; ioWeapon::CheckStructAndDummy
EXTRN	?GetDamage@ioWeapon@@UAEMPAVioPlayEntity@@@Z:PROC ; ioWeapon::GetDamage
EXTRN	?GetBaseDamage@ioWeapon@@UAEMPAVioPlayEntity@@@Z:PROC ; ioWeapon::GetBaseDamage
EXTRN	?GetPushAngle@ioWeapon@@UBEMXZ:PROC		; ioWeapon::GetPushAngle
EXTRN	?IsResistanceMagic@ioWeapon@@UAEHPAVioBaseChar@@@Z:PROC ; ioWeapon::IsResistanceMagic
EXTRN	?IsResistanceBomb@ioWeapon@@UAEHPAVioBaseChar@@@Z:PROC ; ioWeapon::IsResistanceBomb
EXTRN	?IsCanMineExplosion@ioWeapon@@UAE_NXZ:PROC	; ioWeapon::IsCanMineExplosion
EXTRN	?CheckGrapplingState@ioWeapon@@UAE?AW4GrapplingType@@XZ:PROC ; ioWeapon::CheckGrapplingState
EXTRN	?CheckCurAttribute@ioWeapon@@UAEXPBVioPlayEntity@@@Z:PROC ; ioWeapon::CheckCurAttribute
EXTRN	?CheckItemNotDrop@ioWeapon@@UAE_NPAVioBaseChar@@@Z:PROC ; ioWeapon::CheckItemNotDrop
EXTRN	?GetWorldAttackBoxList@ioWeapon@@UAEXAAV?$vector@VioOrientBox@@V?$allocator@VioOrientBox@@@std@@@std@@@Z:PROC ; ioWeapon::GetWorldAttackBoxList
EXTRN	?GetLiveTime@ioWeapon@@UAEKXZ:PROC		; ioWeapon::GetLiveTime
EXTRN	?GetMoveDir@ioWeapon@@UAE?AUD3DXVECTOR3@@XZ:PROC ; ioWeapon::GetMoveDir
EXTRN	?CheckWeaponCollision@ioWeapon@@UAEXXZ:PROC	; ioWeapon::CheckWeaponCollision
EXTRN	?GetRefreshDuration@ioWeapon@@UAEKXZ:PROC	; ioWeapon::GetRefreshDuration
EXTRN	?GetIgnoreDuration@ioWeapon@@UAEKXZ:PROC	; ioWeapon::GetIgnoreDuration
EXTRN	?GetIgnoreTimeTypeDuration@ioWeapon@@UAEKXZ:PROC ; ioWeapon::GetIgnoreTimeTypeDuration
EXTRN	?GetIgnoreTimeType@ioWeapon@@UAEKXZ:PROC	; ioWeapon::GetIgnoreTimeType
EXTRN	?ApplyWeaponSync@ioWeapon@@UAEXAAVSP2Packet@@PAVioPlayStage@@@Z:PROC ; ioWeapon::ApplyWeaponSync
EXTRN	?IsSkillDependency@ioWeapon@@UAE_NABVioHashString@@@Z:PROC ; ioWeapon::IsSkillDependency
EXTRN	?SetSkillDependencyAction@ioWeapon@@UAEXXZ:PROC	; ioWeapon::SetSkillDependencyAction
EXTRN	?GetAttribute@ioWeapon@@MBEPBUWeaponAttribute@@XZ:PROC ; ioWeapon::GetAttribute
EXTRN	?CalcFinalDamage@ioWeapon@@MAEMXZ:PROC		; ioWeapon::CalcFinalDamage
EXTRN	?CalcFinalBoundDamage@ioWeapon@@MAEMXZ:PROC	; ioWeapon::CalcFinalBoundDamage
EXTRN	?CheckPiercing@ioWeapon@@MAE_N_N@Z:PROC		; ioWeapon::CheckPiercing
EXTRN	?ClearCollisionList@ioWeapon@@MAEXXZ:PROC	; ioWeapon::ClearCollisionList
EXTRN	?CheckCreateWeaponList@ioWeapon@@MAEXXZ:PROC	; ioWeapon::CheckCreateWeaponList
EXTRN	?CreateCollisionAreaWeapon@ioWeapon@@MAEXXZ:PROC ; ioWeapon::CreateCollisionAreaWeapon
EXTRN	?SetMapCollision@ioWeapon@@UAEXXZ:PROC		; ioWeapon::SetMapCollision
EXTRN	?IsIgnoreMapCollision@ioWeapon@@UBE_NXZ:PROC	; ioWeapon::IsIgnoreMapCollision
EXTRN	?IsIgnoreTestMapCollision@ioWeapon@@UBE_NXZ:PROC ; ioWeapon::IsIgnoreTestMapCollision
EXTRN	?IsIgnoreMapCollisionEffect@ioWeapon@@UBE_NXZ:PROC ; ioWeapon::IsIgnoreMapCollisionEffect
EXTRN	?AddEffectEvent@ioWeapon@@MAEXPAVioEffect@@@Z:PROC ; ioWeapon::AddEffectEvent
EXTRN	??_EioAreaEffectWeapon@@UAEPAXI@Z:PROC		; ioAreaEffectWeapon::`vector deleting destructor'
;	COMDAT ??_R2ioWeapon@@8
; File c:\program files (x86)\microsoft directx sdk (june 2010)\include\d3dx9math.inl
rdata$r	SEGMENT
??_R2ioWeapon@@8 DD FLAT:??_R1A@?0A@EA@ioWeapon@@8	; ioWeapon::`RTTI Base Class Array'
rdata$r	ENDS
;	COMDAT ??_R3ioWeapon@@8
rdata$r	SEGMENT
??_R3ioWeapon@@8 DD 00H					; ioWeapon::`RTTI Class Hierarchy Descriptor'
	DD	00H
	DD	01H
	DD	FLAT:??_R2ioWeapon@@8
rdata$r	ENDS
;	COMDAT ??_R0?AVioWeapon@@@8
_DATA	SEGMENT
??_R0?AVioWeapon@@@8 DD FLAT:??_7type_info@@6B@		; ioWeapon `RTTI Type Descriptor'
	DD	00H
	DB	'.?AVioWeapon@@', 00H
_DATA	ENDS
;	COMDAT ??_R1A@?0A@EA@ioWeapon@@8
rdata$r	SEGMENT
??_R1A@?0A@EA@ioWeapon@@8 DD FLAT:??_R0?AVioWeapon@@@8	; ioWeapon::`RTTI Base Class Descriptor at (0,-1,0,64)'
	DD	00H
	DD	00H
	DD	0ffffffffH
	DD	00H
	DD	040H
	DD	FLAT:??_R3ioWeapon@@8
rdata$r	ENDS
;	COMDAT ??_R1A@?0A@EA@ioAreaEffectWeapon@@8
rdata$r	SEGMENT
??_R1A@?0A@EA@ioAreaEffectWeapon@@8 DD FLAT:??_R0?AVioAreaEffectWeapon@@@8 ; ioAreaEffectWeapon::`RTTI Base Class Descriptor at (0,-1,0,64)'
	DD	01H
	DD	00H
	DD	0ffffffffH
	DD	00H
	DD	040H
	DD	FLAT:??_R3ioAreaEffectWeapon@@8
rdata$r	ENDS
;	COMDAT ??_R2ioAreaEffectWeapon@@8
rdata$r	SEGMENT
??_R2ioAreaEffectWeapon@@8 DD FLAT:??_R1A@?0A@EA@ioAreaEffectWeapon@@8 ; ioAreaEffectWeapon::`RTTI Base Class Array'
	DD	FLAT:??_R1A@?0A@EA@ioWeapon@@8
rdata$r	ENDS
;	COMDAT ??_R3ioAreaEffectWeapon@@8
rdata$r	SEGMENT
??_R3ioAreaEffectWeapon@@8 DD 00H			; ioAreaEffectWeapon::`RTTI Class Hierarchy Descriptor'
	DD	00H
	DD	02H
	DD	FLAT:??_R2ioAreaEffectWeapon@@8
rdata$r	ENDS
;	COMDAT ??_R0?AVioAreaEffectWeapon@@@8
_DATA	SEGMENT
??_R0?AVioAreaEffectWeapon@@@8 DD FLAT:??_7type_info@@6B@ ; ioAreaEffectWeapon `RTTI Type Descriptor'
	DD	00H
	DB	'.?AVioAreaEffectWeapon@@', 00H
_DATA	ENDS
;	COMDAT ??_R4ioAreaEffectWeapon@@6B@
rdata$r	SEGMENT
??_R4ioAreaEffectWeapon@@6B@ DD 00H			; ioAreaEffectWeapon::`RTTI Complete Object Locator'
	DD	00H
	DD	00H
	DD	FLAT:??_R0?AVioAreaEffectWeapon@@@8
	DD	FLAT:??_R3ioAreaEffectWeapon@@8
rdata$r	ENDS
;	COMDAT ??_7ioAreaEffectWeapon@@6B@
CONST	SEGMENT
??_7ioAreaEffectWeapon@@6B@ DD FLAT:??_R4ioAreaEffectWeapon@@6B@ ; ioAreaEffectWeapon::`vftable'
	DD	FLAT:?IsAlreadyCollisioned@ioWeapon@@UAE_NPAVioPlayEntity@@@Z
	DD	FLAT:?AddCollisionEntity@ioWeapon@@UAEXPAVioPlayEntity@@@Z
	DD	FLAT:?SetOwnerDamageRate@ioWeapon@@UAEXM@Z
	DD	FLAT:?SetOwnerChargeDamageRate@ioWeapon@@UAEXM@Z
	DD	FLAT:?SetOwnerChargeForceRate@ioWeapon@@UAEXM@Z
	DD	FLAT:?SetOwnerChargeRangeRate@ioWeapon@@UAEXM@Z
	DD	FLAT:?SetOwnerChargeSpeedRate@ioWeapon@@UAEXM@Z
	DD	FLAT:?SetOwnerChargeBlowRate@ioWeapon@@UAEXM@Z
	DD	FLAT:?SetOwnerChargeFloatRate@ioWeapon@@UAEXM@Z
	DD	FLAT:?SetOwnerChargeScaleRate@ioWeapon@@UAEXM@Z
	DD	FLAT:?SetOwnerChargeExplosionRate@ioWeapon@@UAEXM@Z
	DD	FLAT:?SetOwnerChargeWoundedTimeRate@ioWeapon@@UAEXM@Z
	DD	FLAT:?SetOwnerChargeLiveTimeRate@ioWeapon@@UAEXM@Z
	DD	FLAT:?SetOwnerChargeBuffLiveTimeRate@ioWeapon@@UAEXM@Z
	DD	FLAT:?SetWeaponIndex@ioWeapon@@UAEXK@Z
	DD	FLAT:?SetGrapplingTargetName@ioWeapon@@UAEXABVioHashString@@@Z
	DD	FLAT:?SetCreateItem@ioWeapon@@UAEXABVioHashString@@@Z
	DD	FLAT:?SetTeam@ioWeapon@@UAEXPAVioPlayStage@@W4TeamType@@@Z
	DD	FLAT:?CallReserveAreaWeapon@ioWeapon@@UAEXXZ
	DD	FLAT:?SetWeaponDead@ioWeapon@@UAEXXZ
	DD	FLAT:?PlayExplosionSound@ioWeapon@@UAEXXZ
	DD	FLAT:?PlayWoundedSound@ioWeapon@@UAEXPAVioPlayEntity@@@Z
	DD	FLAT:?PlayDefensedSound@ioWeapon@@UAEXPAVioPlayEntity@@@Z
	DD	FLAT:?PlayLoopSound@ioWeapon@@UAEXXZ
	DD	FLAT:?StopLoopSound@ioWeapon@@UAEXXZ
	DD	FLAT:?GetTargetAirBuffList@ioWeapon@@UBEABV?$vector@UBuffInfoStruct@@V?$allocator@UBuffInfoStruct@@@std@@@std@@XZ
	DD	FLAT:?GetTargetBuffList@ioWeapon@@UBEABV?$vector@UBuffInfoStruct@@V?$allocator@UBuffInfoStruct@@@std@@@std@@XZ
	DD	FLAT:?GetTargetDownBuffList@ioWeapon@@UBEABV?$vector@UBuffInfoStruct@@V?$allocator@UBuffInfoStruct@@@std@@@std@@XZ
	DD	FLAT:?GetPosition@ioWeapon@@UBEABUD3DXVECTOR3@@XZ
	DD	FLAT:?GetBlowType@ioWeapon@@UBE?AW4BlowTargetType@@XZ
	DD	FLAT:?GetPushPower@ioWeapon@@UBEMM@Z
	DD	FLAT:?GetBlowPower@ioWeapon@@UBEMM@Z
	DD	FLAT:?GetAirPushPower@ioWeapon@@UBEMM@Z
	DD	FLAT:?GetAirBlowPower@ioWeapon@@UBEMM@Z
	DD	FLAT:?GetDefensePushPower@ioWeapon@@UBEMM@Z
	DD	FLAT:?GetCollisionEnableTime@ioWeapon@@UBEKXZ
	DD	FLAT:?SetSylphid@ioWeapon@@UAEHXZ
	DD	FLAT:?ApplyExtraReserveWeaponByWeaponInfo@ioWeapon@@UAEXPAV1@@Z
	DD	FLAT:?InitResource@ioWeapon@@UAE_NXZ
	DD	FLAT:?DestroyResource@ioWeapon@@UAEXPAVioPlayStage@@@Z
	DD	FLAT:?LoadProperty@ioAreaEffectWeapon@@UAEXAAVioINILoader@@@Z
	DD	FLAT:?SetResistanceAttr@ioWeapon@@UAEXH@Z
	DD	FLAT:?SetStartCollisionBox@ioWeapon@@UAEXXZ
	DD	FLAT:?SetLiveTime@ioWeapon@@UAEXK@Z
	DD	FLAT:?SetMoveDir@ioWeapon@@UAEXABUD3DXVECTOR3@@@Z
	DD	FLAT:?SetMoveSpeed@ioWeapon@@UAEXM@Z
	DD	FLAT:?SetFloatPower@ioWeapon@@UAEXM@Z
	DD	FLAT:?SetStartPosition@ioAreaEffectWeapon@@UAEXABUD3DXVECTOR3@@PAVioPlayStage@@@Z
	DD	FLAT:?Process@ioAreaEffectWeapon@@UAEXMPAVioPlayStage@@@Z
	DD	FLAT:?IsCollision@ioAreaEffectWeapon@@UAE_NPAVioPlayEntity@@_N@Z
	DD	FLAT:?TestMapCollision@ioWeapon@@UAE_NPAVioOpcodeShape@@PAVioPlayStage@@PBUD3DXMATRIX@@@Z
	DD	FLAT:?CheckPreCollision@ioWeapon@@UAEXPAVioPlayEntity@@PAVioPlayStage@@@Z
	DD	FLAT:?CheckStructAndDummy@ioWeapon@@UAEXPAVioPlayEntity@@PAVioPlayStage@@@Z
	DD	FLAT:?GetDamage@ioWeapon@@UAEMPAVioPlayEntity@@@Z
	DD	FLAT:?GetBaseDamage@ioWeapon@@UAEMPAVioPlayEntity@@@Z
	DD	FLAT:?GetPushAngle@ioWeapon@@UBEMXZ
	DD	FLAT:?IsResistanceMagic@ioWeapon@@UAEHPAVioBaseChar@@@Z
	DD	FLAT:?IsResistanceBomb@ioWeapon@@UAEHPAVioBaseChar@@@Z
	DD	FLAT:?IsCanMineExplosion@ioWeapon@@UAE_NXZ
	DD	FLAT:?CheckGrapplingState@ioWeapon@@UAE?AW4GrapplingType@@XZ
	DD	FLAT:?CheckCurAttribute@ioWeapon@@UAEXPBVioPlayEntity@@@Z
	DD	FLAT:?CheckItemNotDrop@ioWeapon@@UAE_NPAVioBaseChar@@@Z
	DD	FLAT:?GetWorldAttackBoxList@ioWeapon@@UAEXAAV?$vector@VioOrientBox@@V?$allocator@VioOrientBox@@@std@@@std@@@Z
	DD	FLAT:?GetAttackDir@ioAreaEffectWeapon@@UBE?AUD3DXVECTOR3@@PBVioPlayEntity@@@Z
	DD	FLAT:?GetLocalAttackBox@ioAreaEffectWeapon@@UBEABVioOrientBox@@XZ
	DD	FLAT:?GetLiveTime@ioWeapon@@UAEKXZ
	DD	FLAT:?GetMoveDir@ioWeapon@@UAE?AUD3DXVECTOR3@@XZ
	DD	FLAT:?CheckWeaponCollision@ioWeapon@@UAEXXZ
	DD	FLAT:?GetType@ioAreaEffectWeapon@@UBE?AW4WeaponType@ioWeapon@@XZ
	DD	FLAT:?GetActionStopType@ioAreaEffectWeapon@@UBE?AW4ActionStopType@@XZ
	DD	FLAT:?GetDieActionStopType@ioAreaEffectWeapon@@UBE?AW4ActionStopType@@XZ
	DD	FLAT:?GetRefreshDuration@ioWeapon@@UAEKXZ
	DD	FLAT:?GetIgnoreDuration@ioWeapon@@UAEKXZ
	DD	FLAT:?GetIgnoreTimeTypeDuration@ioWeapon@@UAEKXZ
	DD	FLAT:?GetIgnoreTimeType@ioWeapon@@UAEKXZ
	DD	FLAT:?ApplyWeaponSync@ioWeapon@@UAEXAAVSP2Packet@@PAVioPlayStage@@@Z
	DD	FLAT:?IsSkillDependency@ioWeapon@@UAE_NABVioHashString@@@Z
	DD	FLAT:?SetSkillDependencyAction@ioWeapon@@UAEXXZ
	DD	FLAT:?UpdateWorldAttackBox@ioAreaEffectWeapon@@MAEXM_N@Z
	DD	FLAT:?GetAttribute@ioWeapon@@MBEPBUWeaponAttribute@@XZ
	DD	FLAT:?CalcFinalDamage@ioWeapon@@MAEMXZ
	DD	FLAT:?CalcFinalBoundDamage@ioWeapon@@MAEMXZ
	DD	FLAT:?CheckPiercing@ioWeapon@@MAE_N_N@Z
	DD	FLAT:?ClearCollisionList@ioWeapon@@MAEXXZ
	DD	FLAT:?CheckCreateWeaponList@ioWeapon@@MAEXXZ
	DD	FLAT:?CreateCollisionAreaWeapon@ioWeapon@@MAEXXZ
	DD	FLAT:?SetMapCollision@ioWeapon@@UAEXXZ
	DD	FLAT:?IsIgnoreMapCollision@ioWeapon@@UBE_NXZ
	DD	FLAT:?IsIgnoreTestMapCollision@ioWeapon@@UBE_NXZ
	DD	FLAT:?IsIgnoreMapCollisionEffect@ioWeapon@@UBE_NXZ
	DD	FLAT:?AddEffectEvent@ioWeapon@@MAEXPAVioEffect@@@Z
	DD	FLAT:??_EioAreaEffectWeapon@@UAEPAXI@Z
CONST	ENDS
;	COMDAT xdata$x
xdata$x	SEGMENT
__ehfuncinfo$??0ioAreaEffectWeapon@@QAE@PAVioBaseChar@@PBUWeaponAttribute@@@Z DD 019930522H
	DD	0bH
	DD	FLAT:__unwindtable$??0ioAreaEffectWeapon@@QAE@PAVioBaseChar@@PBUWeaponAttribute@@@Z
	DD	2 DUP(00H)
	DD	2 DUP(00H)
	DD	00H
	DD	01H
__unwindtable$??0ioAreaEffectWeapon@@QAE@PAVioBaseChar@@PBUWeaponAttribute@@@Z DD 0ffffffffH
	DD	FLAT:__unwindfunclet$??0ioAreaEffectWeapon@@QAE@PAVioBaseChar@@PBUWeaponAttribute@@@Z$0
	DD	00H
	DD	FLAT:__unwindfunclet$??0ioAreaEffectWeapon@@QAE@PAVioBaseChar@@PBUWeaponAttribute@@@Z$1
	DD	01H
	DD	FLAT:__unwindfunclet$??0ioAreaEffectWeapon@@QAE@PAVioBaseChar@@PBUWeaponAttribute@@@Z$2
	DD	02H
	DD	FLAT:__unwindfunclet$??0ioAreaEffectWeapon@@QAE@PAVioBaseChar@@PBUWeaponAttribute@@@Z$3
	DD	03H
	DD	FLAT:__unwindfunclet$??0ioAreaEffectWeapon@@QAE@PAVioBaseChar@@PBUWeaponAttribute@@@Z$4
	DD	04H
	DD	FLAT:__unwindfunclet$??0ioAreaEffectWeapon@@QAE@PAVioBaseChar@@PBUWeaponAttribute@@@Z$5
	DD	05H
	DD	FLAT:__unwindfunclet$??0ioAreaEffectWeapon@@QAE@PAVioBaseChar@@PBUWeaponAttribute@@@Z$6
	DD	06H
	DD	FLAT:__unwindfunclet$??0ioAreaEffectWeapon@@QAE@PAVioBaseChar@@PBUWeaponAttribute@@@Z$7
	DD	07H
	DD	FLAT:__unwindfunclet$??0ioAreaEffectWeapon@@QAE@PAVioBaseChar@@PBUWeaponAttribute@@@Z$8
	DD	08H
	DD	FLAT:__unwindfunclet$??0ioAreaEffectWeapon@@QAE@PAVioBaseChar@@PBUWeaponAttribute@@@Z$9
	DD	09H
	DD	FLAT:__unwindfunclet$??0ioAreaEffectWeapon@@QAE@PAVioBaseChar@@PBUWeaponAttribute@@@Z$10
; Function compile flags: /Ogsp
; File d:\lost saga for developer\youtube\tutorial\source\src\lsclient\ioareaeffectweapon.cpp
xdata$x	ENDS
;	COMDAT ??0ioAreaEffectWeapon@@QAE@PAVioBaseChar@@PBUWeaponAttribute@@@Z
_TEXT	SEGMENT
$T530897 = -28						; size = 12
_this$ = -16						; size = 4
__$EHRec$ = -12						; size = 12
_pOwner$ = 8						; size = 4
tv372 = 12						; size = 4
tv359 = 12						; size = 4
_value$537306 = 12					; size = 4
_value$537302 = 12					; size = 4
_value$537298 = 12					; size = 4
_value$537294 = 12					; size = 4
_value$537286 = 12					; size = 4
_value$537282 = 12					; size = 4
$T537272 = 12						; size = 4
$T537274 = 12						; size = 4
_pAttr$ = 12						; size = 4
??0ioAreaEffectWeapon@@QAE@PAVioBaseChar@@PBUWeaponAttribute@@@Z PROC ; ioAreaEffectWeapon::ioAreaEffectWeapon, COMDAT
; _this$ = ecx

; 15   : {

  00000	6a 10		 push	 16			; 00000010H
  00002	b8 00 00 00 00	 mov	 eax, __ehhandler$??0ioAreaEffectWeapon@@QAE@PAVioBaseChar@@PBUWeaponAttribute@@@Z
  00007	e8 00 00 00 00	 call	 __EH_prolog3
  0000c	8b d9		 mov	 ebx, ecx
  0000e	89 5d f0	 mov	 DWORD PTR _this$[ebp], ebx
  00011	ff 75 0c	 push	 DWORD PTR _pAttr$[ebp]
  00014	ff 75 08	 push	 DWORD PTR _pOwner$[ebp]
  00017	e8 00 00 00 00	 call	 ??0ioWeapon@@QAE@PAVioBaseChar@@PBUWeaponAttribute@@@Z ; ioWeapon::ioWeapon
  0001c	33 c9		 xor	 ecx, ecx
  0001e	c7 03 00 00 00
	00		 mov	 DWORD PTR [ebx], OFFSET ??_7ioAreaEffectWeapon@@6B@
  00024	89 4d fc	 mov	 DWORD PTR __$EHRec$[ebp+8], ecx
  00027	89 8b 94 08 00
	00		 mov	 DWORD PTR [ebx+2196], ecx
  0002d	89 8b 98 08 00
	00		 mov	 DWORD PTR [ebx+2200], ecx
  00033	89 8b 9c 08 00
	00		 mov	 DWORD PTR [ebx+2204], ecx
  00039	89 8b ac 08 00
	00		 mov	 DWORD PTR [ebx+2220], ecx
  0003f	89 8b b0 08 00
	00		 mov	 DWORD PTR [ebx+2224], ecx
  00045	89 8b b4 08 00
	00		 mov	 DWORD PTR [ebx+2228], ecx
  0004b	8d 8b bc 08 00
	00		 lea	 ecx, DWORD PTR [ebx+2236]
  00051	c6 45 fc 02	 mov	 BYTE PTR __$EHRec$[ebp+8], 2
  00055	e8 00 00 00 00	 call	 ??0?$CEncrypt@M@@QAE@XZ	; CEncrypt<float>::CEncrypt<float>
  0005a	8d 8b ec 08 00
	00		 lea	 ecx, DWORD PTR [ebx+2284]
  00060	c6 45 fc 03	 mov	 BYTE PTR __$EHRec$[ebp+8], 3
  00064	e8 00 00 00 00	 call	 ??0?$CEncrypt@M@@QAE@XZ	; CEncrypt<float>::CEncrypt<float>
  00069	8d 8b 1c 09 00
	00		 lea	 ecx, DWORD PTR [ebx+2332]
  0006f	c6 45 fc 04	 mov	 BYTE PTR __$EHRec$[ebp+8], 4
  00073	e8 00 00 00 00	 call	 ??0?$CEncrypt@M@@QAE@XZ	; CEncrypt<float>::CEncrypt<float>
  00078	8d 8b 4c 09 00
	00		 lea	 ecx, DWORD PTR [ebx+2380]
  0007e	c6 45 fc 05	 mov	 BYTE PTR __$EHRec$[ebp+8], 5
  00082	e8 00 00 00 00	 call	 ??0?$CEncrypt@M@@QAE@XZ	; CEncrypt<float>::CEncrypt<float>
  00087	8d 8b 7c 09 00
	00		 lea	 ecx, DWORD PTR [ebx+2428]
  0008d	c6 45 fc 06	 mov	 BYTE PTR __$EHRec$[ebp+8], 6
  00091	e8 00 00 00 00	 call	 ??0?$CEncrypt@M@@QAE@XZ	; CEncrypt<float>::CEncrypt<float>
  00096	8d 8b ac 09 00
	00		 lea	 ecx, DWORD PTR [ebx+2476]
  0009c	c6 45 fc 07	 mov	 BYTE PTR __$EHRec$[ebp+8], 7
  000a0	e8 00 00 00 00	 call	 ??0?$CEncrypt@M@@QAE@XZ	; CEncrypt<float>::CEncrypt<float>
  000a5	8d 8b e8 09 00
	00		 lea	 ecx, DWORD PTR [ebx+2536]
  000ab	c6 45 fc 08	 mov	 BYTE PTR __$EHRec$[ebp+8], 8
  000af	ff 15 00 00 00
	00		 call	 DWORD PTR __imp_??0ioOrientBox@@QAE@XZ
  000b5	8d 8b 2c 0a 00
	00		 lea	 ecx, DWORD PTR [ebx+2604]
  000bb	51		 push	 ecx
  000bc	89 65 0c	 mov	 DWORD PTR $T537274[ebp], esp
  000bf	c6 45 fc 09	 mov	 BYTE PTR __$EHRec$[ebp+8], 9
  000c3	89 65 0c	 mov	 DWORD PTR $T537272[ebp], esp
  000c6	e8 00 00 00 00	 call	 ??0?$_List_val@PAVioPlayEntity@@V?$allocator@PAVioPlayEntity@@@std@@@std@@QAE@V?$allocator@PAVioPlayEntity@@@1@@Z ; std::_List_val<ioPlayEntity *,std::allocator<ioPlayEntity *> >::_List_val<ioPlayEntity *,std::allocator<ioPlayEntity *> >

; 16   : 	SetPeculiarity( WP_DEF_NO_SOUND );

  000cb	68 80 00 00 00	 push	 128			; 00000080H
  000d0	8b cb		 mov	 ecx, ebx
  000d2	c6 45 fc 0a	 mov	 BYTE PTR __$EHRec$[ebp+8], 10 ; 0000000aH
  000d6	e8 00 00 00 00	 call	 ?SetPeculiarity@ioWeapon@@QAEXK@Z ; ioWeapon::SetPeculiarity

; 17   : 
; 18   : 	m_TargetColType = TCT_CYLINDER;
; 19   : 	m_TargetWoundType = TWT_ALL;
; 20   : 
; 21   : 	m_fCollisionRange = 0.0f;

  000db	0f 57 c0	 xorps	 xmm0, xmm0
  000de	8d 45 0c	 lea	 eax, DWORD PTR _value$537282[ebp]
  000e1	50		 push	 eax
  000e2	8d 8b bc 08 00
	00		 lea	 ecx, DWORD PTR [ebx+2236]
  000e8	c7 83 a4 08 00
	00 02 00 00 00	 mov	 DWORD PTR [ebx+2212], 2
  000f2	c7 83 a8 08 00
	00 01 00 00 00	 mov	 DWORD PTR [ebx+2216], 1
  000fc	f3 0f 11 45 0c	 movss	 DWORD PTR _value$537282[ebp], xmm0
  00101	e8 00 00 00 00	 call	 ?EncryptValueToPool@?$CEncrypt@M@@AAEXPBD@Z ; CEncrypt<float>::EncryptValueToPool

; 22   : 	m_fCollisionInRange = 0.0f;

  00106	0f 57 c0	 xorps	 xmm0, xmm0
  00109	8d 45 0c	 lea	 eax, DWORD PTR _value$537286[ebp]
  0010c	50		 push	 eax
  0010d	8d 8b ec 08 00
	00		 lea	 ecx, DWORD PTR [ebx+2284]
  00113	f3 0f 11 45 0c	 movss	 DWORD PTR _value$537286[ebp], xmm0
  00118	e8 00 00 00 00	 call	 ?EncryptValueToPool@?$CEncrypt@M@@AAEXPBD@Z ; CEncrypt<float>::EncryptValueToPool

; 23   : 
; 24   : 	m_fAreaAngle = FLOAT360;

  0011d	b8 68 01 00 00	 mov	 eax, 360		; 00000168H
  00122	89 45 0c	 mov	 DWORD PTR tv372[ebp], eax
  00125	db 45 0c	 fild	 DWORD PTR tv372[ebp]
  00128	85 c0		 test	 eax, eax
  0012a	79 06		 jns	 SHORT $LN56@ioAreaEffe
  0012c	d8 05 00 00 00
	00		 fadd	 DWORD PTR __real@4f800000
$LN56@ioAreaEffe:
  00132	8d 45 0c	 lea	 eax, DWORD PTR _value$537294[ebp]
  00135	d9 5d 0c	 fstp	 DWORD PTR _value$537294[ebp]
  00138	50		 push	 eax
  00139	8d 8b 1c 09 00
	00		 lea	 ecx, DWORD PTR [ebx+2332]
  0013f	e8 00 00 00 00	 call	 ?EncryptValueToPool@?$CEncrypt@M@@AAEXPBD@Z ; CEncrypt<float>::EncryptValueToPool

; 25   : 	m_fUpHeight = 0.0f;

  00144	0f 57 c0	 xorps	 xmm0, xmm0
  00147	8d 45 0c	 lea	 eax, DWORD PTR _value$537298[ebp]
  0014a	50		 push	 eax
  0014b	8d 8b 4c 09 00
	00		 lea	 ecx, DWORD PTR [ebx+2380]
  00151	f3 0f 11 45 0c	 movss	 DWORD PTR _value$537298[ebp], xmm0
  00156	e8 00 00 00 00	 call	 ?EncryptValueToPool@?$CEncrypt@M@@AAEXPBD@Z ; CEncrypt<float>::EncryptValueToPool

; 26   : 	m_fUnderHeight = 0.0f;

  0015b	0f 57 c0	 xorps	 xmm0, xmm0
  0015e	8d 45 0c	 lea	 eax, DWORD PTR _value$537302[ebp]
  00161	50		 push	 eax
  00162	8d 8b 7c 09 00
	00		 lea	 ecx, DWORD PTR [ebx+2428]
  00168	f3 0f 11 45 0c	 movss	 DWORD PTR _value$537302[ebp], xmm0
  0016d	e8 00 00 00 00	 call	 ?EncryptValueToPool@?$CEncrypt@M@@AAEXPBD@Z ; CEncrypt<float>::EncryptValueToPool

; 27   : 	m_fWidth = 0.0f;

  00172	0f 57 c0	 xorps	 xmm0, xmm0
  00175	8d 45 0c	 lea	 eax, DWORD PTR _value$537306[ebp]
  00178	50		 push	 eax
  00179	8d 8b ac 09 00
	00		 lea	 ecx, DWORD PTR [ebx+2476]
  0017f	f3 0f 11 45 0c	 movss	 DWORD PTR _value$537306[ebp], xmm0
  00184	e8 00 00 00 00	 call	 ?EncryptValueToPool@?$CEncrypt@M@@AAEXPBD@Z ; CEncrypt<float>::EncryptValueToPool

; 28   : 
; 29   : 	m_vCollisionDir = D3DXVECTOR3( 0.0f, 0.0f, -FLOAT1 );

  00189	b8 01 00 00 00	 mov	 eax, 1
  0018e	0f 57 c0	 xorps	 xmm0, xmm0
  00191	89 45 0c	 mov	 DWORD PTR tv359[ebp], eax
  00194	db 45 0c	 fild	 DWORD PTR tv359[ebp]
  00197	f3 0f 11 45 e4	 movss	 DWORD PTR $T530897[ebp], xmm0
  0019c	f3 0f 11 45 e8	 movss	 DWORD PTR $T530897[ebp+4], xmm0
  001a1	85 c0		 test	 eax, eax
  001a3	79 06		 jns	 SHORT $LN57@ioAreaEffe
  001a5	d8 05 00 00 00
	00		 fadd	 DWORD PTR __real@4f800000
$LN57@ioAreaEffe:
  001ab	d9 e0		 fchs
  001ad	8d bb dc 09 00
	00		 lea	 edi, DWORD PTR [ebx+2524]
  001b3	d9 5d ec	 fstp	 DWORD PTR $T530897[ebp+8]
  001b6	8d 75 e4	 lea	 esi, DWORD PTR $T530897[ebp]
  001b9	a5		 movsd
  001ba	a5		 movsd
  001bb	a5		 movsd

; 30   : }

  001bc	8b c3		 mov	 eax, ebx
  001be	e8 00 00 00 00	 call	 __EH_epilog3
  001c3	c2 08 00	 ret	 8
_TEXT	ENDS
;	COMDAT text$x
text$x	SEGMENT
__unwindfunclet$??0ioAreaEffectWeapon@@QAE@PAVioBaseChar@@PBUWeaponAttribute@@@Z$0:
  00000	8b 4d f0	 mov	 ecx, DWORD PTR _this$[ebp]
  00003	e9 00 00 00 00	 jmp	 ??1ioWeapon@@UAE@XZ	; ioWeapon::~ioWeapon
__unwindfunclet$??0ioAreaEffectWeapon@@QAE@PAVioBaseChar@@PBUWeaponAttribute@@@Z$1:
  00008	8b 4d f0	 mov	 ecx, DWORD PTR _this$[ebp]
  0000b	81 c1 94 08 00
	00		 add	 ecx, 2196		; 00000894H
  00011	e9 00 00 00 00	 jmp	 ??1?$vector@UstWantCheckList@ioAreaEffectWeapon@@V?$allocator@UstWantCheckList@ioAreaEffectWeapon@@@std@@@std@@QAE@XZ ; std::vector<ioAreaEffectWeapon::stWantCheckList,std::allocator<ioAreaEffectWeapon::stWantCheckList> >::~vector<ioAreaEffectWeapon::stWantCheckList,std::allocator<ioAreaEffectWeapon::stWantCheckList> >
__unwindfunclet$??0ioAreaEffectWeapon@@QAE@PAVioBaseChar@@PBUWeaponAttribute@@@Z$2:
  00016	8b 4d f0	 mov	 ecx, DWORD PTR _this$[ebp]
  00019	81 c1 ac 08 00
	00		 add	 ecx, 2220		; 000008acH
  0001f	e9 00 00 00 00	 jmp	 ??1?$vector@VioHashString@@V?$allocator@VioHashString@@@std@@@std@@QAE@XZ ; std::vector<ioHashString,std::allocator<ioHashString> >::~vector<ioHashString,std::allocator<ioHashString> >
__unwindfunclet$??0ioAreaEffectWeapon@@QAE@PAVioBaseChar@@PBUWeaponAttribute@@@Z$3:
  00024	8b 4d f0	 mov	 ecx, DWORD PTR _this$[ebp]
  00027	81 c1 bc 08 00
	00		 add	 ecx, 2236		; 000008bcH
  0002d	e9 00 00 00 00	 jmp	 ??1?$CEncrypt@M@@UAE@XZ	; CEncrypt<float>::~CEncrypt<float>
__unwindfunclet$??0ioAreaEffectWeapon@@QAE@PAVioBaseChar@@PBUWeaponAttribute@@@Z$4:
  00032	8b 4d f0	 mov	 ecx, DWORD PTR _this$[ebp]
  00035	81 c1 ec 08 00
	00		 add	 ecx, 2284		; 000008ecH
  0003b	e9 00 00 00 00	 jmp	 ??1?$CEncrypt@M@@UAE@XZ	; CEncrypt<float>::~CEncrypt<float>
__unwindfunclet$??0ioAreaEffectWeapon@@QAE@PAVioBaseChar@@PBUWeaponAttribute@@@Z$5:
  00040	8b 4d f0	 mov	 ecx, DWORD PTR _this$[ebp]
  00043	81 c1 1c 09 00
	00		 add	 ecx, 2332		; 0000091cH
  00049	e9 00 00 00 00	 jmp	 ??1?$CEncrypt@M@@UAE@XZ	; CEncrypt<float>::~CEncrypt<float>
__unwindfunclet$??0ioAreaEffectWeapon@@QAE@PAVioBaseChar@@PBUWeaponAttribute@@@Z$6:
  0004e	8b 4d f0	 mov	 ecx, DWORD PTR _this$[ebp]
  00051	81 c1 4c 09 00
	00		 add	 ecx, 2380		; 0000094cH
  00057	e9 00 00 00 00	 jmp	 ??1?$CEncrypt@M@@UAE@XZ	; CEncrypt<float>::~CEncrypt<float>
__unwindfunclet$??0ioAreaEffectWeapon@@QAE@PAVioBaseChar@@PBUWeaponAttribute@@@Z$7:
  0005c	8b 4d f0	 mov	 ecx, DWORD PTR _this$[ebp]
  0005f	81 c1 7c 09 00
	00		 add	 ecx, 2428		; 0000097cH
  00065	e9 00 00 00 00	 jmp	 ??1?$CEncrypt@M@@UAE@XZ	; CEncrypt<float>::~CEncrypt<float>
__unwindfunclet$??0ioAreaEffectWeapon@@QAE@PAVioBaseChar@@PBUWeaponAttribute@@@Z$8:
  0006a	8b 4d f0	 mov	 ecx, DWORD PTR _this$[ebp]
  0006d	81 c1 ac 09 00
	00		 add	 ecx, 2476		; 000009acH
  00073	e9 00 00 00 00	 jmp	 ??1?$CEncrypt@M@@UAE@XZ	; CEncrypt<float>::~CEncrypt<float>
__unwindfunclet$??0ioAreaEffectWeapon@@QAE@PAVioBaseChar@@PBUWeaponAttribute@@@Z$9:
  00078	8b 4d f0	 mov	 ecx, DWORD PTR _this$[ebp]
  0007b	81 c1 e8 09 00
	00		 add	 ecx, 2536		; 000009e8H
  00081	ff 25 00 00 00
	00		 jmp	 DWORD PTR __imp_??1ioOrientBox@@QAE@XZ
__unwindfunclet$??0ioAreaEffectWeapon@@QAE@PAVioBaseChar@@PBUWeaponAttribute@@@Z$10:
  00087	8b 4d f0	 mov	 ecx, DWORD PTR _this$[ebp]
  0008a	81 c1 2c 0a 00
	00		 add	 ecx, 2604		; 00000a2cH
  00090	e9 00 00 00 00	 jmp	 ??1?$list@PAVioPlayEntity@@V?$allocator@PAVioPlayEntity@@@std@@@std@@QAE@XZ ; std::list<ioPlayEntity *,std::allocator<ioPlayEntity *> >::~list<ioPlayEntity *,std::allocator<ioPlayEntity *> >
__ehhandler$??0ioAreaEffectWeapon@@QAE@PAVioBaseChar@@PBUWeaponAttribute@@@Z:
  00095	8b 54 24 08	 mov	 edx, DWORD PTR [esp+8]
  00099	8d 42 0c	 lea	 eax, DWORD PTR [edx+12]
  0009c	8b 4a e0	 mov	 ecx, DWORD PTR [edx-32]
  0009f	33 c8		 xor	 ecx, eax
  000a1	e8 00 00 00 00	 call	 @__security_check_cookie@4
  000a6	b8 00 00 00 00	 mov	 eax, OFFSET __ehfuncinfo$??0ioAreaEffectWeapon@@QAE@PAVioBaseChar@@PBUWeaponAttribute@@@Z
  000ab	e9 00 00 00 00	 jmp	 ___CxxFrameHandler3
text$x	ENDS
??0ioAreaEffectWeapon@@QAE@PAVioBaseChar@@PBUWeaponAttribute@@@Z ENDP ; ioAreaEffectWeapon::ioAreaEffectWeapon
PUBLIC	??1ioAreaEffectWeapon@@UAE@XZ			; ioAreaEffectWeapon::~ioAreaEffectWeapon
;	COMDAT xdata$x
; File c:\program files (x86)\microsoft visual studio 10.0\vc\include\vector
xdata$x	SEGMENT
__ehfuncinfo$??1ioAreaEffectWeapon@@UAE@XZ DD 019930522H
	DD	0bH
	DD	FLAT:__unwindtable$??1ioAreaEffectWeapon@@UAE@XZ
	DD	2 DUP(00H)
	DD	2 DUP(00H)
	DD	00H
	DD	01H
__unwindtable$??1ioAreaEffectWeapon@@UAE@XZ DD 0ffffffffH
	DD	FLAT:__unwindfunclet$??1ioAreaEffectWeapon@@UAE@XZ$0
	DD	00H
	DD	FLAT:__unwindfunclet$??1ioAreaEffectWeapon@@UAE@XZ$1
	DD	01H
	DD	FLAT:__unwindfunclet$??1ioAreaEffectWeapon@@UAE@XZ$2
	DD	02H
	DD	FLAT:__unwindfunclet$??1ioAreaEffectWeapon@@UAE@XZ$3
	DD	03H
	DD	FLAT:__unwindfunclet$??1ioAreaEffectWeapon@@UAE@XZ$4
	DD	04H
	DD	FLAT:__unwindfunclet$??1ioAreaEffectWeapon@@UAE@XZ$5
	DD	05H
	DD	FLAT:__unwindfunclet$??1ioAreaEffectWeapon@@UAE@XZ$6
	DD	06H
	DD	FLAT:__unwindfunclet$??1ioAreaEffectWeapon@@UAE@XZ$7
	DD	07H
	DD	FLAT:__unwindfunclet$??1ioAreaEffectWeapon@@UAE@XZ$8
	DD	08H
	DD	FLAT:__unwindfunclet$??1ioAreaEffectWeapon@@UAE@XZ$9
	DD	09H
	DD	FLAT:__unwindfunclet$??1ioAreaEffectWeapon@@UAE@XZ$10
; Function compile flags: /Ogsp
; File d:\lost saga for developer\youtube\tutorial\source\src\lsclient\ioareaeffectweapon.cpp
xdata$x	ENDS
;	COMDAT ??1ioAreaEffectWeapon@@UAE@XZ
_TEXT	SEGMENT
_this$ = -16						; size = 4
__$EHRec$ = -12						; size = 12
??1ioAreaEffectWeapon@@UAE@XZ PROC			; ioAreaEffectWeapon::~ioAreaEffectWeapon, COMDAT
; _this$ = ecx

; 33   : {

  00000	6a 04		 push	 4
  00002	b8 00 00 00 00	 mov	 eax, __ehhandler$??1ioAreaEffectWeapon@@UAE@XZ
  00007	e8 00 00 00 00	 call	 __EH_prolog3
  0000c	8b f1		 mov	 esi, ecx
  0000e	89 75 f0	 mov	 DWORD PTR _this$[ebp], esi
  00011	c7 06 00 00 00
	00		 mov	 DWORD PTR [esi], OFFSET ??_7ioAreaEffectWeapon@@6B@
  00017	c7 45 fc 0a 00
	00 00		 mov	 DWORD PTR __$EHRec$[ebp+8], 10 ; 0000000aH

; 34   : 	StopLoopSound();

  0001e	e8 00 00 00 00	 call	 ?StopLoopSound@ioWeapon@@UAEXXZ ; ioWeapon::StopLoopSound

; 35   : }

  00023	8d 8e 2c 0a 00
	00		 lea	 ecx, DWORD PTR [esi+2604]
  00029	e8 00 00 00 00	 call	 ?clear@?$list@PAVioPlayEntity@@V?$allocator@PAVioPlayEntity@@@std@@@std@@QAEXXZ ; std::list<ioPlayEntity *,std::allocator<ioPlayEntity *> >::clear
  0002e	ff b6 2c 0a 00
	00		 push	 DWORD PTR [esi+2604]
  00034	e8 00 00 00 00	 call	 ??3@YAXPAX@Z		; operator delete
  00039	59		 pop	 ecx
  0003a	8d 8e e8 09 00
	00		 lea	 ecx, DWORD PTR [esi+2536]
  00040	c6 45 fc 08	 mov	 BYTE PTR __$EHRec$[ebp+8], 8
  00044	ff 15 00 00 00
	00		 call	 DWORD PTR __imp_??1ioOrientBox@@QAE@XZ
  0004a	bf 00 00 00 00	 mov	 edi, OFFSET ??_7?$CEncrypt@M@@6B@
  0004f	8d 8e b8 09 00
	00		 lea	 ecx, DWORD PTR [esi+2488]
  00055	c6 45 fc 07	 mov	 BYTE PTR __$EHRec$[ebp+8], 7
  00059	89 be ac 09 00
	00		 mov	 DWORD PTR [esi+2476], edi
  0005f	e8 00 00 00 00	 call	 ??1ccddaabb@@UAE@XZ	; ccddaabb::~ccddaabb
  00064	8d 8e 88 09 00
	00		 lea	 ecx, DWORD PTR [esi+2440]
  0006a	c6 45 fc 06	 mov	 BYTE PTR __$EHRec$[ebp+8], 6
  0006e	89 be 7c 09 00
	00		 mov	 DWORD PTR [esi+2428], edi
  00074	e8 00 00 00 00	 call	 ??1ccddaabb@@UAE@XZ	; ccddaabb::~ccddaabb
  00079	8d 8e 58 09 00
	00		 lea	 ecx, DWORD PTR [esi+2392]
  0007f	c6 45 fc 05	 mov	 BYTE PTR __$EHRec$[ebp+8], 5
  00083	89 be 4c 09 00
	00		 mov	 DWORD PTR [esi+2380], edi
  00089	e8 00 00 00 00	 call	 ??1ccddaabb@@UAE@XZ	; ccddaabb::~ccddaabb
  0008e	8d 8e 28 09 00
	00		 lea	 ecx, DWORD PTR [esi+2344]
  00094	c6 45 fc 04	 mov	 BYTE PTR __$EHRec$[ebp+8], 4
  00098	89 be 1c 09 00
	00		 mov	 DWORD PTR [esi+2332], edi
  0009e	e8 00 00 00 00	 call	 ??1ccddaabb@@UAE@XZ	; ccddaabb::~ccddaabb
  000a3	8d 8e f8 08 00
	00		 lea	 ecx, DWORD PTR [esi+2296]
  000a9	c6 45 fc 03	 mov	 BYTE PTR __$EHRec$[ebp+8], 3
  000ad	89 be ec 08 00
	00		 mov	 DWORD PTR [esi+2284], edi
  000b3	e8 00 00 00 00	 call	 ??1ccddaabb@@UAE@XZ	; ccddaabb::~ccddaabb
  000b8	8d 8e c8 08 00
	00		 lea	 ecx, DWORD PTR [esi+2248]
  000be	c6 45 fc 02	 mov	 BYTE PTR __$EHRec$[ebp+8], 2
  000c2	89 be bc 08 00
	00		 mov	 DWORD PTR [esi+2236], edi
  000c8	e8 00 00 00 00	 call	 ??1ccddaabb@@UAE@XZ	; ccddaabb::~ccddaabb
  000cd	8d 8e ac 08 00
	00		 lea	 ecx, DWORD PTR [esi+2220]
  000d3	c6 45 fc 01	 mov	 BYTE PTR __$EHRec$[ebp+8], 1
  000d7	e8 00 00 00 00	 call	 ?_Tidy@?$vector@VioHashString@@V?$allocator@VioHashString@@@std@@@std@@IAEXXZ ; std::vector<ioHashString,std::allocator<ioHashString> >::_Tidy
  000dc	8d 8e 94 08 00
	00		 lea	 ecx, DWORD PTR [esi+2196]
  000e2	c6 45 fc 00	 mov	 BYTE PTR __$EHRec$[ebp+8], 0
  000e6	e8 00 00 00 00	 call	 ?_Tidy@?$vector@UstWantCheckList@ioAreaEffectWeapon@@V?$allocator@UstWantCheckList@ioAreaEffectWeapon@@@std@@@std@@IAEXXZ ; std::vector<ioAreaEffectWeapon::stWantCheckList,std::allocator<ioAreaEffectWeapon::stWantCheckList> >::_Tidy
  000eb	83 4d fc ff	 or	 DWORD PTR __$EHRec$[ebp+8], -1
  000ef	8b ce		 mov	 ecx, esi
  000f1	e8 00 00 00 00	 call	 ??1ioWeapon@@UAE@XZ	; ioWeapon::~ioWeapon
  000f6	e8 00 00 00 00	 call	 __EH_epilog3
  000fb	c3		 ret	 0
_TEXT	ENDS
;	COMDAT text$x
text$x	SEGMENT
__unwindfunclet$??1ioAreaEffectWeapon@@UAE@XZ$0:
  00000	8b 4d f0	 mov	 ecx, DWORD PTR _this$[ebp]
  00003	e9 00 00 00 00	 jmp	 ??1ioWeapon@@UAE@XZ	; ioWeapon::~ioWeapon
__unwindfunclet$??1ioAreaEffectWeapon@@UAE@XZ$1:
  00008	8b 4d f0	 mov	 ecx, DWORD PTR _this$[ebp]
  0000b	81 c1 94 08 00
	00		 add	 ecx, 2196		; 00000894H
  00011	e9 00 00 00 00	 jmp	 ??1?$vector@UstWantCheckList@ioAreaEffectWeapon@@V?$allocator@UstWantCheckList@ioAreaEffectWeapon@@@std@@@std@@QAE@XZ ; std::vector<ioAreaEffectWeapon::stWantCheckList,std::allocator<ioAreaEffectWeapon::stWantCheckList> >::~vector<ioAreaEffectWeapon::stWantCheckList,std::allocator<ioAreaEffectWeapon::stWantCheckList> >
__unwindfunclet$??1ioAreaEffectWeapon@@UAE@XZ$2:
  00016	8b 4d f0	 mov	 ecx, DWORD PTR _this$[ebp]
  00019	81 c1 ac 08 00
	00		 add	 ecx, 2220		; 000008acH
  0001f	e9 00 00 00 00	 jmp	 ??1?$vector@VioHashString@@V?$allocator@VioHashString@@@std@@@std@@QAE@XZ ; std::vector<ioHashString,std::allocator<ioHashString> >::~vector<ioHashString,std::allocator<ioHashString> >
__unwindfunclet$??1ioAreaEffectWeapon@@UAE@XZ$3:
  00024	8b 4d f0	 mov	 ecx, DWORD PTR _this$[ebp]
  00027	81 c1 bc 08 00
	00		 add	 ecx, 2236		; 000008bcH
  0002d	e9 00 00 00 00	 jmp	 ??1?$CEncrypt@M@@UAE@XZ	; CEncrypt<float>::~CEncrypt<float>
__unwindfunclet$??1ioAreaEffectWeapon@@UAE@XZ$4:
  00032	8b 4d f0	 mov	 ecx, DWORD PTR _this$[ebp]
  00035	81 c1 ec 08 00
	00		 add	 ecx, 2284		; 000008ecH
  0003b	e9 00 00 00 00	 jmp	 ??1?$CEncrypt@M@@UAE@XZ	; CEncrypt<float>::~CEncrypt<float>
__unwindfunclet$??1ioAreaEffectWeapon@@UAE@XZ$5:
  00040	8b 4d f0	 mov	 ecx, DWORD PTR _this$[ebp]
  00043	81 c1 1c 09 00
	00		 add	 ecx, 2332		; 0000091cH
  00049	e9 00 00 00 00	 jmp	 ??1?$CEncrypt@M@@UAE@XZ	; CEncrypt<float>::~CEncrypt<float>
__unwindfunclet$??1ioAreaEffectWeapon@@UAE@XZ$6:
  0004e	8b 4d f0	 mov	 ecx, DWORD PTR _this$[ebp]
  00051	81 c1 4c 09 00
	00		 add	 ecx, 2380		; 0000094cH
  00057	e9 00 00 00 00	 jmp	 ??1?$CEncrypt@M@@UAE@XZ	; CEncrypt<float>::~CEncrypt<float>
__unwindfunclet$??1ioAreaEffectWeapon@@UAE@XZ$7:
  0005c	8b 4d f0	 mov	 ecx, DWORD PTR _this$[ebp]
  0005f	81 c1 7c 09 00
	00		 add	 ecx, 2428		; 0000097cH
  00065	e9 00 00 00 00	 jmp	 ??1?$CEncrypt@M@@UAE@XZ	; CEncrypt<float>::~CEncrypt<float>
__unwindfunclet$??1ioAreaEffectWeapon@@UAE@XZ$8:
  0006a	8b 4d f0	 mov	 ecx, DWORD PTR _this$[ebp]
  0006d	81 c1 ac 09 00
	00		 add	 ecx, 2476		; 000009acH
  00073	e9 00 00 00 00	 jmp	 ??1?$CEncrypt@M@@UAE@XZ	; CEncrypt<float>::~CEncrypt<float>
__unwindfunclet$??1ioAreaEffectWeapon@@UAE@XZ$9:
  00078	8b 4d f0	 mov	 ecx, DWORD PTR _this$[ebp]
  0007b	81 c1 e8 09 00
	00		 add	 ecx, 2536		; 000009e8H
  00081	ff 25 00 00 00
	00		 jmp	 DWORD PTR __imp_??1ioOrientBox@@QAE@XZ
__unwindfunclet$??1ioAreaEffectWeapon@@UAE@XZ$10:
  00087	8b 4d f0	 mov	 ecx, DWORD PTR _this$[ebp]
  0008a	81 c1 2c 0a 00
	00		 add	 ecx, 2604		; 00000a2cH
  00090	e9 00 00 00 00	 jmp	 ??1?$list@PAVioPlayEntity@@V?$allocator@PAVioPlayEntity@@@std@@@std@@QAE@XZ ; std::list<ioPlayEntity *,std::allocator<ioPlayEntity *> >::~list<ioPlayEntity *,std::allocator<ioPlayEntity *> >
__ehhandler$??1ioAreaEffectWeapon@@UAE@XZ:
  00095	8b 54 24 08	 mov	 edx, DWORD PTR [esp+8]
  00099	8d 42 0c	 lea	 eax, DWORD PTR [edx+12]
  0009c	8b 4a ec	 mov	 ecx, DWORD PTR [edx-20]
  0009f	33 c8		 xor	 ecx, eax
  000a1	e8 00 00 00 00	 call	 @__security_check_cookie@4
  000a6	b8 00 00 00 00	 mov	 eax, OFFSET __ehfuncinfo$??1ioAreaEffectWeapon@@UAE@XZ
  000ab	e9 00 00 00 00	 jmp	 ___CxxFrameHandler3
text$x	ENDS
??1ioAreaEffectWeapon@@UAE@XZ ENDP			; ioAreaEffectWeapon::~ioAreaEffectWeapon
PUBLIC	?push_back@?$vector@VioHashString@@V?$allocator@VioHashString@@@std@@@std@@QAEXABVioHashString@@@Z ; std::vector<ioHashString,std::allocator<ioHashString> >::push_back
; Function compile flags: /Ogsp
; File c:\program files (x86)\microsoft visual studio 10.0\vc\include\vector
;	COMDAT ?push_back@?$vector@VioHashString@@V?$allocator@VioHashString@@@std@@@std@@QAEXABVioHashString@@@Z
_TEXT	SEGMENT
__Val$ = 8						; size = 4
?push_back@?$vector@VioHashString@@V?$allocator@VioHashString@@@std@@@std@@QAEXABVioHashString@@@Z PROC ; std::vector<ioHashString,std::allocator<ioHashString> >::push_back, COMDAT
; _this$ = ecx

; 976  : 		{	// insert element at end

  00000	55		 push	 ebp
  00001	8b ec		 mov	 ebp, esp
  00003	56		 push	 esi
  00004	8b f1		 mov	 esi, ecx

; 977  : 		if (_Inside(_STD addressof(_Val)))

  00006	8b 46 04	 mov	 eax, DWORD PTR [esi+4]
  00009	57		 push	 edi
  0000a	8b 7d 08	 mov	 edi, DWORD PTR __Val$[ebp]
  0000d	3b f8		 cmp	 edi, eax
  0000f	73 29		 jae	 SHORT $LN4@push_back
  00011	8b 0e		 mov	 ecx, DWORD PTR [esi]
  00013	3b cf		 cmp	 ecx, edi
  00015	77 23		 ja	 SHORT $LN4@push_back

; 978  : 			{	// push back an element
; 979  : 			size_type _Idx = _STD addressof(_Val) - this->_Myfirst;

  00017	2b f9		 sub	 edi, ecx

; 980  : 			if (this->_Mylast == this->_Myend)

  00019	3b 46 08	 cmp	 eax, DWORD PTR [esi+8]
  0001c	75 09		 jne	 SHORT $LN3@push_back

; 981  : 				_Reserve(1);

  0001e	6a 01		 push	 1
  00020	8b ce		 mov	 ecx, esi
  00022	e8 00 00 00 00	 call	 ?_Reserve@?$vector@VioHashString@@V?$allocator@VioHashString@@@std@@@std@@IAEXI@Z ; std::vector<ioHashString,std::allocator<ioHashString> >::_Reserve
$LN3@push_back:

; 982  : 			_Orphan_range(this->_Mylast, this->_Mylast);
; 983  : 			_Cons_val(this->_Alval,
; 984  : 				this->_Mylast,
; 985  : 				this->_Myfirst[_Idx]);

  00027	83 e7 f0	 and	 edi, -16		; fffffff0H
  0002a	03 3e		 add	 edi, DWORD PTR [esi]
  0002c	8d 4e 0c	 lea	 ecx, DWORD PTR [esi+12]
  0002f	57		 push	 edi
  00030	ff 76 04	 push	 DWORD PTR [esi+4]
  00033	e8 00 00 00 00	 call	 ??$construct@AAVioHashString@@@?$allocator@VioHashString@@@std@@QAEXPAVioHashString@@AAV2@@Z ; std::allocator<ioHashString>::construct<ioHashString &>

; 986  : 			++this->_Mylast;
; 987  : 			}
; 988  : 		else

  00038	eb 19		 jmp	 SHORT $LN30@push_back
$LN4@push_back:

; 989  : 			{	// push back a non-element
; 990  : 			if (this->_Mylast == this->_Myend)

  0003a	3b 46 08	 cmp	 eax, DWORD PTR [esi+8]
  0003d	75 09		 jne	 SHORT $LN1@push_back

; 991  : 				_Reserve(1);

  0003f	6a 01		 push	 1
  00041	8b ce		 mov	 ecx, esi
  00043	e8 00 00 00 00	 call	 ?_Reserve@?$vector@VioHashString@@V?$allocator@VioHashString@@@std@@@std@@IAEXI@Z ; std::vector<ioHashString,std::allocator<ioHashString> >::_Reserve
$LN1@push_back:

; 992  : 			_Orphan_range(this->_Mylast, this->_Mylast);
; 993  : 			_Cons_val(this->_Alval,
; 994  : 				this->_Mylast,
; 995  : 				_Val);

  00048	57		 push	 edi
  00049	ff 76 04	 push	 DWORD PTR [esi+4]
  0004c	e8 00 00 00 00	 call	 ??$_Construct@VioHashString@@ABV1@@std@@YAXPAVioHashString@@ABV1@@Z ; std::_Construct<ioHashString,ioHashString const &>
  00051	59		 pop	 ecx
  00052	59		 pop	 ecx
$LN30@push_back:

; 996  : 			++this->_Mylast;

  00053	83 46 04 10	 add	 DWORD PTR [esi+4], 16	; 00000010H
  00057	5f		 pop	 edi
  00058	5e		 pop	 esi

; 997  : 			}
; 998  : 		}

  00059	5d		 pop	 ebp
  0005a	c2 04 00	 ret	 4
?push_back@?$vector@VioHashString@@V?$allocator@VioHashString@@@std@@@std@@QAEXABVioHashString@@@Z ENDP ; std::vector<ioHashString,std::allocator<ioHashString> >::push_back
_TEXT	ENDS
PUBLIC	?push_back@?$vector@UstWantCheckList@ioAreaEffectWeapon@@V?$allocator@UstWantCheckList@ioAreaEffectWeapon@@@std@@@std@@QAEXABUstWantCheckList@ioAreaEffectWeapon@@@Z ; std::vector<ioAreaEffectWeapon::stWantCheckList,std::allocator<ioAreaEffectWeapon::stWantCheckList> >::push_back
; Function compile flags: /Ogsp
;	COMDAT ?push_back@?$vector@UstWantCheckList@ioAreaEffectWeapon@@V?$allocator@UstWantCheckList@ioAreaEffectWeapon@@@std@@@std@@QAEXABUstWantCheckList@ioAreaEffectWeapon@@@Z
_TEXT	SEGMENT
__Val$ = 8						; size = 4
?push_back@?$vector@UstWantCheckList@ioAreaEffectWeapon@@V?$allocator@UstWantCheckList@ioAreaEffectWeapon@@@std@@@std@@QAEXABUstWantCheckList@ioAreaEffectWeapon@@@Z PROC ; std::vector<ioAreaEffectWeapon::stWantCheckList,std::allocator<ioAreaEffectWeapon::stWantCheckList> >::push_back, COMDAT
; _this$ = ecx

; 976  : 		{	// insert element at end

  00000	55		 push	 ebp
  00001	8b ec		 mov	 ebp, esp
  00003	56		 push	 esi
  00004	8b f1		 mov	 esi, ecx

; 977  : 		if (_Inside(_STD addressof(_Val)))

  00006	8b 4e 04	 mov	 ecx, DWORD PTR [esi+4]
  00009	57		 push	 edi
  0000a	8b 7d 08	 mov	 edi, DWORD PTR __Val$[ebp]
  0000d	3b f9		 cmp	 edi, ecx
  0000f	73 33		 jae	 SHORT $LN4@push_back@2
  00011	8b 16		 mov	 edx, DWORD PTR [esi]
  00013	3b d7		 cmp	 edx, edi
  00015	77 2d		 ja	 SHORT $LN4@push_back@2

; 978  : 			{	// push back an element
; 979  : 			size_type _Idx = _STD addressof(_Val) - this->_Myfirst;

  00017	8b c7		 mov	 eax, edi
  00019	2b c2		 sub	 eax, edx
  0001b	6a 14		 push	 20			; 00000014H
  0001d	99		 cdq
  0001e	5f		 pop	 edi
  0001f	f7 ff		 idiv	 edi
  00021	8b f8		 mov	 edi, eax

; 980  : 			if (this->_Mylast == this->_Myend)

  00023	3b 4e 08	 cmp	 ecx, DWORD PTR [esi+8]
  00026	75 09		 jne	 SHORT $LN3@push_back@2

; 981  : 				_Reserve(1);

  00028	6a 01		 push	 1
  0002a	8b ce		 mov	 ecx, esi
  0002c	e8 00 00 00 00	 call	 ?_Reserve@?$vector@UstWantCheckList@ioAreaEffectWeapon@@V?$allocator@UstWantCheckList@ioAreaEffectWeapon@@@std@@@std@@IAEXI@Z ; std::vector<ioAreaEffectWeapon::stWantCheckList,std::allocator<ioAreaEffectWeapon::stWantCheckList> >::_Reserve
$LN3@push_back@2:

; 982  : 			_Orphan_range(this->_Mylast, this->_Mylast);
; 983  : 			_Cons_val(this->_Alval,
; 984  : 				this->_Mylast,
; 985  : 				this->_Myfirst[_Idx]);

  00031	6b ff 14	 imul	 edi, 20			; 00000014H
  00034	03 3e		 add	 edi, DWORD PTR [esi]
  00036	8d 4e 0c	 lea	 ecx, DWORD PTR [esi+12]
  00039	57		 push	 edi
  0003a	ff 76 04	 push	 DWORD PTR [esi+4]
  0003d	e8 00 00 00 00	 call	 ??$construct@AAUstWantCheckList@ioAreaEffectWeapon@@@?$allocator@UstWantCheckList@ioAreaEffectWeapon@@@std@@QAEXPAUstWantCheckList@ioAreaEffectWeapon@@AAU23@@Z ; std::allocator<ioAreaEffectWeapon::stWantCheckList>::construct<ioAreaEffectWeapon::stWantCheckList &>

; 986  : 			++this->_Mylast;
; 987  : 			}
; 988  : 		else

  00042	eb 19		 jmp	 SHORT $LN30@push_back@2
$LN4@push_back@2:

; 989  : 			{	// push back a non-element
; 990  : 			if (this->_Mylast == this->_Myend)

  00044	3b 4e 08	 cmp	 ecx, DWORD PTR [esi+8]
  00047	75 09		 jne	 SHORT $LN1@push_back@2

; 991  : 				_Reserve(1);

  00049	6a 01		 push	 1
  0004b	8b ce		 mov	 ecx, esi
  0004d	e8 00 00 00 00	 call	 ?_Reserve@?$vector@UstWantCheckList@ioAreaEffectWeapon@@V?$allocator@UstWantCheckList@ioAreaEffectWeapon@@@std@@@std@@IAEXI@Z ; std::vector<ioAreaEffectWeapon::stWantCheckList,std::allocator<ioAreaEffectWeapon::stWantCheckList> >::_Reserve
$LN1@push_back@2:

; 992  : 			_Orphan_range(this->_Mylast, this->_Mylast);
; 993  : 			_Cons_val(this->_Alval,
; 994  : 				this->_Mylast,
; 995  : 				_Val);

  00052	57		 push	 edi
  00053	ff 76 04	 push	 DWORD PTR [esi+4]
  00056	e8 00 00 00 00	 call	 ??$_Construct@UstWantCheckList@ioAreaEffectWeapon@@ABU12@@std@@YAXPAUstWantCheckList@ioAreaEffectWeapon@@ABU12@@Z ; std::_Construct<ioAreaEffectWeapon::stWantCheckList,ioAreaEffectWeapon::stWantCheckList const &>
  0005b	59		 pop	 ecx
  0005c	59		 pop	 ecx
$LN30@push_back@2:

; 996  : 			++this->_Mylast;

  0005d	83 46 04 14	 add	 DWORD PTR [esi+4], 20	; 00000014H
  00061	5f		 pop	 edi
  00062	5e		 pop	 esi

; 997  : 			}
; 998  : 		}

  00063	5d		 pop	 ebp
  00064	c2 04 00	 ret	 4
?push_back@?$vector@UstWantCheckList@ioAreaEffectWeapon@@V?$allocator@UstWantCheckList@ioAreaEffectWeapon@@@std@@@std@@QAEXABUstWantCheckList@ioAreaEffectWeapon@@@Z ENDP ; std::vector<ioAreaEffectWeapon::stWantCheckList,std::allocator<ioAreaEffectWeapon::stWantCheckList> >::push_back
; Function compile flags: /Ogsp
_TEXT	ENDS
;	COMDAT ??_GioAreaEffectWeapon@@UAEPAXI@Z
_TEXT	SEGMENT
___flags$ = 8						; size = 4
??_GioAreaEffectWeapon@@UAEPAXI@Z PROC			; ioAreaEffectWeapon::`scalar deleting destructor', COMDAT
; _this$ = ecx
  00000	55		 push	 ebp
  00001	8b ec		 mov	 ebp, esp
  00003	56		 push	 esi
  00004	8b f1		 mov	 esi, ecx
  00006	e8 00 00 00 00	 call	 ??1ioAreaEffectWeapon@@UAE@XZ ; ioAreaEffectWeapon::~ioAreaEffectWeapon
  0000b	f6 45 08 01	 test	 BYTE PTR ___flags$[ebp], 1
  0000f	74 07		 je	 SHORT $LN1@scalar@5
  00011	56		 push	 esi
  00012	e8 00 00 00 00	 call	 ??3@YAXPAX@Z		; operator delete
  00017	59		 pop	 ecx
$LN1@scalar@5:
  00018	8b c6		 mov	 eax, esi
  0001a	5e		 pop	 esi
  0001b	5d		 pop	 ebp
  0001c	c2 04 00	 ret	 4
??_GioAreaEffectWeapon@@UAEPAXI@Z ENDP			; ioAreaEffectWeapon::`scalar deleting destructor'
_TEXT	ENDS
PUBLIC	?UpdateCollisionList@ioAreaEffectWeapon@@QAEXAAV?$vector@PAVioBaseChar@@V?$allocator@PAVioBaseChar@@@std@@@std@@_N@Z ; ioAreaEffectWeapon::UpdateCollisionList
;	COMDAT xdata$x
xdata$x	SEGMENT
__unwindtable$?UpdateCollisionList@ioAreaEffectWeapon@@QAEXAAV?$vector@PAVioBaseChar@@V?$allocator@PAVioBaseChar@@@std@@@std@@_N@Z DD 0ffffffffH
	DD	FLAT:__unwindfunclet$?UpdateCollisionList@ioAreaEffectWeapon@@QAEXAAV?$vector@PAVioBaseChar@@V?$allocator@PAVioBaseChar@@@std@@@std@@_N@Z$0
	DD	00H
	DD	FLAT:__unwindfunclet$?UpdateCollisionList@ioAreaEffectWeapon@@QAEXAAV?$vector@PAVioBaseChar@@V?$allocator@PAVioBaseChar@@@std@@@std@@_N@Z$1
__ehfuncinfo$?UpdateCollisionList@ioAreaEffectWeapon@@QAEXAAV?$vector@PAVioBaseChar@@V?$allocator@PAVioBaseChar@@@std@@@std@@_N@Z DD 019930522H
	DD	02H
	DD	FLAT:__unwindtable$?UpdateCollisionList@ioAreaEffectWeapon@@QAEXAAV?$vector@PAVioBaseChar@@V?$allocator@PAVioBaseChar@@@std@@@std@@_N@Z
	DD	2 DUP(00H)
	DD	2 DUP(00H)
	DD	00H
	DD	01H
; Function compile flags: /Ogsp
; File d:\lost saga for developer\youtube\tutorial\source\src\lsclient\ioareaeffectweapon.cpp
xdata$x	ENDS
;	COMDAT ?UpdateCollisionList@ioAreaEffectWeapon@@QAEXAAV?$vector@PAVioBaseChar@@V?$allocator@PAVioBaseChar@@@std@@@std@@_N@Z
_TEXT	SEGMENT
_stInfo$531116 = -48					; size = 20
_szName$531115 = -28					; size = 16
__$EHRec$ = -12						; size = 12
_rkCharList$ = 8					; size = 4
$T537572 = 12						; size = 4
_iter$ = 12						; size = 4
_bRefresh$ = 12						; size = 1
?UpdateCollisionList@ioAreaEffectWeapon@@QAEXAAV?$vector@PAVioBaseChar@@V?$allocator@PAVioBaseChar@@@std@@@std@@_N@Z PROC ; ioAreaEffectWeapon::UpdateCollisionList, COMDAT
; _this$ = ecx

; 96   : {

  00000	6a 24		 push	 36			; 00000024H
  00002	b8 00 00 00 00	 mov	 eax, __ehhandler$?UpdateCollisionList@ioAreaEffectWeapon@@QAEXAAV?$vector@PAVioBaseChar@@V?$allocator@PAVioBaseChar@@@std@@@std@@_N@Z
  00007	e8 00 00 00 00	 call	 __EH_prolog3
  0000c	8b d9		 mov	 ebx, ecx

; 97   : 	if( bRefresh )

  0000e	80 7d 0c 00	 cmp	 BYTE PTR _bRefresh$[ebp], 0
  00012	74 08		 je	 SHORT $LN5@UpdateColl

; 98   : 	{
; 99   : 		ClearCollisionList();

  00014	8b 03		 mov	 eax, DWORD PTR [ebx]
  00016	ff 90 4c 01 00
	00		 call	 DWORD PTR [eax+332]
$LN5@UpdateColl:

; 100  : 	}
; 101  : 
; 102  : 	m_vNewTargetList.clear();

  0001c	8b 83 b0 08 00
	00		 mov	 eax, DWORD PTR [ebx+2224]
  00022	8b 8b ac 08 00
	00		 mov	 ecx, DWORD PTR [ebx+2220]
  00028	50		 push	 eax
  00029	51		 push	 ecx
  0002a	8d 45 0c	 lea	 eax, DWORD PTR $T537572[ebp]
  0002d	50		 push	 eax
  0002e	8d 8b ac 08 00
	00		 lea	 ecx, DWORD PTR [ebx+2220]
  00034	e8 00 00 00 00	 call	 ?erase@?$vector@VioHashString@@V?$allocator@VioHashString@@@std@@@std@@QAE?AV?$_Vector_iterator@V?$_Vector_val@VioHashString@@V?$allocator@VioHashString@@@std@@@std@@@2@V?$_Vector_const_iterator@V?$_Vector_val@VioHashString@@V?$allocator@VioHashString@@@std@@@std@@@2@0@Z ; std::vector<ioHashString,std::allocator<ioHashString> >::erase

; 103  : 
; 104  : 	if( rkCharList.empty() )

  00039	8b 45 08	 mov	 eax, DWORD PTR _rkCharList$[ebp]
  0003c	8b 08		 mov	 ecx, DWORD PTR [eax]
  0003e	8b 50 04	 mov	 edx, DWORD PTR [eax+4]
  00041	3b ca		 cmp	 ecx, edx
  00043	0f 84 83 00 00
	00		 je	 $LN2@UpdateColl

; 105  : 		return;
; 106  : 
; 107  : 	BaseCharList::iterator iter = rkCharList.begin();
; 108  : 	while( iter != rkCharList.end() )

  00049	8b 3d 00 00 00
	00		 mov	 edi, DWORD PTR __imp_??1ioHashString@@QAE@XZ
  0004f	89 4d 0c	 mov	 DWORD PTR _iter$[ebp], ecx
$LN3@UpdateColl:

; 109  : 	{
; 110  : 		ioBaseChar *pChar = (*iter);

  00052	8b 4d 0c	 mov	 ecx, DWORD PTR _iter$[ebp]
  00055	8b 09		 mov	 ecx, DWORD PTR [ecx]

; 111  : 		if( pChar )

  00057	85 c9		 test	 ecx, ecx
  00059	74 65		 je	 SHORT $LN1@UpdateColl

; 112  : 		{
; 113  : 			ioHashString szName = pChar->GetCharName();

  0005b	81 c1 d4 02 00
	00		 add	 ecx, 724		; 000002d4H
  00061	51		 push	 ecx
  00062	8d 4d e4	 lea	 ecx, DWORD PTR _szName$531115[ebp]
  00065	ff 15 00 00 00
	00		 call	 DWORD PTR __imp_??0ioHashString@@QAE@ABV0@@Z
  0006b	83 65 fc 00	 and	 DWORD PTR __$EHRec$[ebp+8], 0

; 114  : 			m_vNewTargetList.push_back( szName );

  0006f	8d 45 e4	 lea	 eax, DWORD PTR _szName$531115[ebp]
  00072	50		 push	 eax
  00073	8d 8b ac 08 00
	00		 lea	 ecx, DWORD PTR [ebx+2220]
  00079	e8 00 00 00 00	 call	 ?push_back@?$vector@VioHashString@@V?$allocator@VioHashString@@@std@@@std@@QAEXABVioHashString@@@Z ; std::vector<ioHashString,std::allocator<ioHashString> >::push_back

; 115  : 
; 116  : 			stWantCheckList stInfo;

  0007e	8d 4d d0	 lea	 ecx, DWORD PTR _stInfo$531116[ebp]
  00081	ff 15 00 00 00
	00		 call	 DWORD PTR __imp_??0ioHashString@@QAE@XZ
  00087	c6 45 e0 00	 mov	 BYTE PTR _stInfo$531116[ebp+16], 0

; 117  : 			stInfo.m_stName = szName;

  0008b	8d 45 e4	 lea	 eax, DWORD PTR _szName$531115[ebp]
  0008e	50		 push	 eax
  0008f	8d 4d d0	 lea	 ecx, DWORD PTR _stInfo$531116[ebp]
  00092	c6 45 fc 01	 mov	 BYTE PTR __$EHRec$[ebp+8], 1
  00096	ff 15 00 00 00
	00		 call	 DWORD PTR __imp_??4ioHashString@@QAEAAV0@ABV0@@Z

; 118  : 			m_vWantCheckList.push_back( stInfo );

  0009c	8d 45 d0	 lea	 eax, DWORD PTR _stInfo$531116[ebp]
  0009f	50		 push	 eax
  000a0	8d 8b 94 08 00
	00		 lea	 ecx, DWORD PTR [ebx+2196]
  000a6	e8 00 00 00 00	 call	 ?push_back@?$vector@UstWantCheckList@ioAreaEffectWeapon@@V?$allocator@UstWantCheckList@ioAreaEffectWeapon@@@std@@@std@@QAEXABUstWantCheckList@ioAreaEffectWeapon@@@Z ; std::vector<ioAreaEffectWeapon::stWantCheckList,std::allocator<ioAreaEffectWeapon::stWantCheckList> >::push_back

; 119  : 		}

  000ab	8d 4d d0	 lea	 ecx, DWORD PTR _stInfo$531116[ebp]
  000ae	c6 45 fc 00	 mov	 BYTE PTR __$EHRec$[ebp+8], 0
  000b2	ff d7		 call	 edi
  000b4	83 4d fc ff	 or	 DWORD PTR __$EHRec$[ebp+8], -1
  000b8	8d 4d e4	 lea	 ecx, DWORD PTR _szName$531115[ebp]
  000bb	ff d7		 call	 edi
  000bd	8b 45 08	 mov	 eax, DWORD PTR _rkCharList$[ebp]
$LN1@UpdateColl:

; 120  : 
; 121  : 		++iter;

  000c0	83 45 0c 04	 add	 DWORD PTR _iter$[ebp], 4
  000c4	8b 4d 0c	 mov	 ecx, DWORD PTR _iter$[ebp]
  000c7	3b 48 04	 cmp	 ecx, DWORD PTR [eax+4]
  000ca	75 86		 jne	 SHORT $LN3@UpdateColl
$LN2@UpdateColl:

; 122  : 	}
; 123  : }

  000cc	e8 00 00 00 00	 call	 __EH_epilog3
  000d1	c2 08 00	 ret	 8
_TEXT	ENDS
;	COMDAT text$x
text$x	SEGMENT
__unwindfunclet$?UpdateCollisionList@ioAreaEffectWeapon@@QAEXAAV?$vector@PAVioBaseChar@@V?$allocator@PAVioBaseChar@@@std@@@std@@_N@Z$0:
  00000	8d 4d e4	 lea	 ecx, DWORD PTR _szName$531115[ebp]
  00003	ff 25 00 00 00
	00		 jmp	 DWORD PTR __imp_??1ioHashString@@QAE@XZ
__unwindfunclet$?UpdateCollisionList@ioAreaEffectWeapon@@QAEXAAV?$vector@PAVioBaseChar@@V?$allocator@PAVioBaseChar@@@std@@@std@@_N@Z$1:
  00009	8d 4d d0	 lea	 ecx, DWORD PTR _stInfo$531116[ebp]
  0000c	e9 00 00 00 00	 jmp	 ??1stWantCheckList@ioAreaEffectWeapon@@QAE@XZ
__ehhandler$?UpdateCollisionList@ioAreaEffectWeapon@@QAEXAAV?$vector@PAVioBaseChar@@V?$allocator@PAVioBaseChar@@@std@@@std@@_N@Z:
  00011	8b 54 24 08	 mov	 edx, DWORD PTR [esp+8]
  00015	8d 42 0c	 lea	 eax, DWORD PTR [edx+12]
  00018	8b 4a cc	 mov	 ecx, DWORD PTR [edx-52]
  0001b	33 c8		 xor	 ecx, eax
  0001d	e8 00 00 00 00	 call	 @__security_check_cookie@4
  00022	b8 00 00 00 00	 mov	 eax, OFFSET __ehfuncinfo$?UpdateCollisionList@ioAreaEffectWeapon@@QAEXAAV?$vector@PAVioBaseChar@@V?$allocator@PAVioBaseChar@@@std@@@std@@_N@Z
  00027	e9 00 00 00 00	 jmp	 ___CxxFrameHandler3
text$x	ENDS
?UpdateCollisionList@ioAreaEffectWeapon@@QAEXAAV?$vector@PAVioBaseChar@@V?$allocator@PAVioBaseChar@@@std@@@std@@_N@Z ENDP ; ioAreaEffectWeapon::UpdateCollisionList
END
