; Listing generated by Microsoft (R) Optimizing Compiler Version 16.00.30319.01 

	TITLE	D:\Lost Saga For Developer\Youtube\Tutorial\Source\src\LSClient\ioAttachWeapon.cpp
	.686P
	.XMM
	include listing.inc
	.model	flat

INCLUDELIB MSVCRT
INCLUDELIB OLDNAMES

PUBLIC	?_EEM_DS@?$deque@UD3DXVECTOR3@@V?$allocator@UD3DXVECTOR3@@@std@@@std@@2HB ; std::deque<D3DXVECTOR3,std::allocator<D3DXVECTOR3> >::_EEM_DS
PUBLIC	?m_ActionStopType@ioAttachWeapon@@2W4ActionStopType@@A ; ioAttachWeapon::m_ActionStopType
PUBLIC	?m_DieActionStopType@ioAttachWeapon@@2W4ActionStopType@@A ; ioAttachWeapon::m_DieActionStopType
_BSS	SEGMENT
?m_ActionStopType@ioAttachWeapon@@2W4ActionStopType@@A DD 01H DUP (?) ; ioAttachWeapon::m_ActionStopType
?m_DieActionStopType@ioAttachWeapon@@2W4ActionStopType@@A DD 01H DUP (?) ; ioAttachWeapon::m_DieActionStopType
_BSS	ENDS
;	COMDAT ?_EEM_DS@?$deque@UD3DXVECTOR3@@V?$allocator@UD3DXVECTOR3@@@std@@@std@@2HB
CONST	SEGMENT
?_EEM_DS@?$deque@UD3DXVECTOR3@@V?$allocator@UD3DXVECTOR3@@@std@@@std@@2HB DD 01H ; std::deque<D3DXVECTOR3,std::allocator<D3DXVECTOR3> >::_EEM_DS
CONST	ENDS
PUBLIC	?return1@@YAIXZ					; return1
; Function compile flags: /Ogsp
; File d:\lost saga for developer\youtube\tutorial\source\src\lsclient\stdafx.h
;	COMDAT ?return1@@YAIXZ
_TEXT	SEGMENT
?return1@@YAIXZ PROC					; return1, COMDAT

; 17   : 	__forceinline unsigned int return1() { __asm mov eax, 1 };

  00000	b8 01 00 00 00	 mov	 eax, 1
  00005	c3		 ret	 0
?return1@@YAIXZ ENDP					; return1
_TEXT	ENDS
PUBLIC	?return5@@YAIXZ					; return5
; Function compile flags: /Ogsp
;	COMDAT ?return5@@YAIXZ
_TEXT	SEGMENT
?return5@@YAIXZ PROC					; return5, COMDAT

; 18   : 	__forceinline unsigned int return5() { __asm mov eax, 5 };

  00000	b8 05 00 00 00	 mov	 eax, 5
  00005	c3		 ret	 0
?return5@@YAIXZ ENDP					; return5
_TEXT	ENDS
PUBLIC	?return10@@YAIXZ				; return10
; Function compile flags: /Ogsp
;	COMDAT ?return10@@YAIXZ
_TEXT	SEGMENT
?return10@@YAIXZ PROC					; return10, COMDAT

; 21   : 	__forceinline unsigned int return10() { __asm mov eax, 10 };

  00000	b8 0a 00 00 00	 mov	 eax, 10			; 0000000aH
  00005	c3		 ret	 0
?return10@@YAIXZ ENDP					; return10
_TEXT	ENDS
PUBLIC	?return1000@@YAIXZ				; return1000
; Function compile flags: /Ogsp
;	COMDAT ?return1000@@YAIXZ
_TEXT	SEGMENT
?return1000@@YAIXZ PROC					; return1000, COMDAT

; 29   : 	__forceinline unsigned int return1000() { __asm mov eax, 1000 };

  00000	b8 e8 03 00 00	 mov	 eax, 1000		; 000003e8H
  00005	c3		 ret	 0
?return1000@@YAIXZ ENDP					; return1000
_TEXT	ENDS
PUBLIC	?GetBlowStopMotionState@ioBaseChar@@QBE_NXZ	; ioBaseChar::GetBlowStopMotionState
; Function compile flags: /Ogsp
; File d:\lost saga for developer\youtube\tutorial\source\src\lsclient\iobasechar.h
;	COMDAT ?GetBlowStopMotionState@ioBaseChar@@QBE_NXZ
_TEXT	SEGMENT
?GetBlowStopMotionState@ioBaseChar@@QBE_NXZ PROC	; ioBaseChar::GetBlowStopMotionState, COMDAT
; _this$ = ecx

; 1566 : 	inline bool GetBlowStopMotionState() const { return m_bBlowStopMotion; }

  00000	8a 81 c7 15 00
	00		 mov	 al, BYTE PTR [ecx+5575]
  00006	c3		 ret	 0
?GetBlowStopMotionState@ioBaseChar@@QBE_NXZ ENDP	; ioBaseChar::GetBlowStopMotionState
_TEXT	ENDS
PUBLIC	?GetBlowFrozenState@ioBaseChar@@QBE_NXZ		; ioBaseChar::GetBlowFrozenState
; Function compile flags: /Ogsp
;	COMDAT ?GetBlowFrozenState@ioBaseChar@@QBE_NXZ
_TEXT	SEGMENT
?GetBlowFrozenState@ioBaseChar@@QBE_NXZ PROC		; ioBaseChar::GetBlowFrozenState, COMDAT
; _this$ = ecx

; 1571 : 	inline bool GetBlowFrozenState() const { return m_bBlowFrozenState; }

  00000	8a 81 c5 15 00
	00		 mov	 al, BYTE PTR [ecx+5573]
  00006	c3		 ret	 0
?GetBlowFrozenState@ioBaseChar@@QBE_NXZ ENDP		; ioBaseChar::GetBlowFrozenState
_TEXT	ENDS
PUBLIC	?GetState@ioBaseChar@@QBE?AW4CharState@@XZ	; ioBaseChar::GetState
; Function compile flags: /Ogsp
;	COMDAT ?GetState@ioBaseChar@@QBE?AW4CharState@@XZ
_TEXT	SEGMENT
?GetState@ioBaseChar@@QBE?AW4CharState@@XZ PROC		; ioBaseChar::GetState, COMDAT
; _this$ = ecx

; 2156 : 	inline CharState GetState() const { return m_CharState; }	

  00000	8a 81 10 03 00
	00		 mov	 al, BYTE PTR [ecx+784]
  00006	c3		 ret	 0
?GetState@ioBaseChar@@QBE?AW4CharState@@XZ ENDP		; ioBaseChar::GetState
_TEXT	ENDS
PUBLIC	_acosf
EXTRN	__fltused:DWORD
EXTRN	__CIacos:PROC
; Function compile flags: /Ogsp
; File c:\program files (x86)\microsoft visual studio 10.0\vc\include\math.h
;	COMDAT _acosf
_TEXT	SEGMENT
tv69 = 8						; size = 4
__X$ = 8						; size = 4
_acosf	PROC						; COMDAT

; 400  :         {return ((float)acos((double)_X)); }

  00000	55		 push	 ebp
  00001	8b ec		 mov	 ebp, esp
  00003	d9 45 08	 fld	 DWORD PTR __X$[ebp]
  00006	e8 00 00 00 00	 call	 __CIacos
  0000b	d9 5d 08	 fstp	 DWORD PTR tv69[ebp]
  0000e	d9 45 08	 fld	 DWORD PTR tv69[ebp]
  00011	5d		 pop	 ebp
  00012	c3		 ret	 0
_acosf	ENDP
_TEXT	ENDS
PUBLIC	?GetCharName@ioBaseChar@@QBEABVioHashString@@XZ	; ioBaseChar::GetCharName
; Function compile flags: /Ogsp
; File d:\lost saga for developer\youtube\tutorial\source\src\lsclient\iobasechar.h
;	COMDAT ?GetCharName@ioBaseChar@@QBEABVioHashString@@XZ
_TEXT	SEGMENT
?GetCharName@ioBaseChar@@QBEABVioHashString@@XZ PROC	; ioBaseChar::GetCharName, COMDAT
; _this$ = ecx

; 2594 : 	inline const ioHashString& GetCharName() const { return m_Name; }

  00000	8d 81 d4 02 00
	00		 lea	 eax, DWORD PTR [ecx+724]
  00006	c3		 ret	 0
?GetCharName@ioBaseChar@@QBEABVioHashString@@XZ ENDP	; ioBaseChar::GetCharName
_TEXT	ENDS
PUBLIC	?GetMoveDir@ioBaseChar@@QBEABUD3DXVECTOR3@@XZ	; ioBaseChar::GetMoveDir
; Function compile flags: /Ogsp
;	COMDAT ?GetMoveDir@ioBaseChar@@QBEABUD3DXVECTOR3@@XZ
_TEXT	SEGMENT
?GetMoveDir@ioBaseChar@@QBEABUD3DXVECTOR3@@XZ PROC	; ioBaseChar::GetMoveDir, COMDAT
; _this$ = ecx

; 2596 : 	inline const D3DXVECTOR3& GetMoveDir() const { return m_vMoveDir; }

  00000	8d 81 b4 06 00
	00		 lea	 eax, DWORD PTR [ecx+1716]
  00006	c3		 ret	 0
?GetMoveDir@ioBaseChar@@QBEABUD3DXVECTOR3@@XZ ENDP	; ioBaseChar::GetMoveDir
_TEXT	ENDS
PUBLIC	?GetTargetRot@ioBaseChar@@QBEABUD3DXQUATERNION@@XZ ; ioBaseChar::GetTargetRot
; Function compile flags: /Ogsp
;	COMDAT ?GetTargetRot@ioBaseChar@@QBEABUD3DXQUATERNION@@XZ
_TEXT	SEGMENT
?GetTargetRot@ioBaseChar@@QBEABUD3DXQUATERNION@@XZ PROC	; ioBaseChar::GetTargetRot, COMDAT
; _this$ = ecx

; 2599 : 	inline const D3DXQUATERNION& GetTargetRot() const { return m_qtTargetRot; }

  00000	8d 81 a4 06 00
	00		 lea	 eax, DWORD PTR [ecx+1700]
  00006	c3		 ret	 0
?GetTargetRot@ioBaseChar@@QBEABUD3DXQUATERNION@@XZ ENDP	; ioBaseChar::GetTargetRot
_TEXT	ENDS
PUBLIC	_sqrtf
EXTRN	__CIsqrt:PROC
; Function compile flags: /Ogsp
; File c:\program files (x86)\microsoft visual studio 10.0\vc\include\math.h
;	COMDAT _sqrtf
_TEXT	SEGMENT
tv69 = 8						; size = 4
__X$ = 8						; size = 4
_sqrtf	PROC						; COMDAT

; 434  :         {return ((float)sqrt((double)_X)); }

  00000	55		 push	 ebp
  00001	8b ec		 mov	 ebp, esp
  00003	d9 45 08	 fld	 DWORD PTR __X$[ebp]
  00006	e8 00 00 00 00	 call	 __CIsqrt
  0000b	d9 5d 08	 fstp	 DWORD PTR tv69[ebp]
  0000e	d9 45 08	 fld	 DWORD PTR tv69[ebp]
  00011	5d		 pop	 ebp
  00012	c3		 ret	 0
_sqrtf	ENDP
_TEXT	ENDS
PUBLIC	?acos@@YAMM@Z					; acos
; Function compile flags: /Ogsp
;	COMDAT ?acos@@YAMM@Z
_TEXT	SEGMENT
tv73 = 8						; size = 4
__X$ = 8						; size = 4
?acos@@YAMM@Z PROC					; acos, COMDAT

; 502  :         {return (acosf(_X)); }

  00000	55		 push	 ebp
  00001	8b ec		 mov	 ebp, esp
  00003	d9 45 08	 fld	 DWORD PTR __X$[ebp]
  00006	e8 00 00 00 00	 call	 __CIacos
  0000b	d9 5d 08	 fstp	 DWORD PTR tv73[ebp]
  0000e	d9 45 08	 fld	 DWORD PTR tv73[ebp]
  00011	5d		 pop	 ebp
  00012	c3		 ret	 0
?acos@@YAMM@Z ENDP					; acos
_TEXT	ENDS
PUBLIC	??_7bad_alloc@std@@6B@				; std::bad_alloc::`vftable'
PUBLIC	??0bad_alloc@std@@QAE@PBD@Z			; std::bad_alloc::bad_alloc
PUBLIC	??_R4bad_alloc@std@@6B@				; std::bad_alloc::`RTTI Complete Object Locator'
PUBLIC	??_R0?AVbad_alloc@std@@@8			; std::bad_alloc `RTTI Type Descriptor'
PUBLIC	??_R3bad_alloc@std@@8				; std::bad_alloc::`RTTI Class Hierarchy Descriptor'
PUBLIC	??_R2bad_alloc@std@@8				; std::bad_alloc::`RTTI Base Class Array'
PUBLIC	??_R1A@?0A@EA@bad_alloc@std@@8			; std::bad_alloc::`RTTI Base Class Descriptor at (0,-1,0,64)'
PUBLIC	??_R1A@?0A@EA@exception@std@@8			; std::exception::`RTTI Base Class Descriptor at (0,-1,0,64)'
PUBLIC	??_R0?AVexception@std@@@8			; std::exception `RTTI Type Descriptor'
PUBLIC	??_R3exception@std@@8				; std::exception::`RTTI Class Hierarchy Descriptor'
PUBLIC	??_R2exception@std@@8				; std::exception::`RTTI Base Class Array'
EXTRN	__imp_??0exception@std@@QAE@ABQBD@Z:PROC
EXTRN	??_7type_info@@6B@:QWORD			; type_info::`vftable'
EXTRN	??_Ebad_alloc@std@@UAEPAXI@Z:PROC		; std::bad_alloc::`vector deleting destructor'
EXTRN	?what@exception@std@@UBEPBDXZ:PROC		; std::exception::what
;	COMDAT ??_R2exception@std@@8
; File c:\program files (x86)\microsoft visual studio 10.0\vc\include\exception
rdata$r	SEGMENT
??_R2exception@std@@8 DD FLAT:??_R1A@?0A@EA@exception@std@@8 ; std::exception::`RTTI Base Class Array'
rdata$r	ENDS
;	COMDAT ??_R3exception@std@@8
rdata$r	SEGMENT
??_R3exception@std@@8 DD 00H				; std::exception::`RTTI Class Hierarchy Descriptor'
	DD	00H
	DD	01H
	DD	FLAT:??_R2exception@std@@8
rdata$r	ENDS
;	COMDAT ??_R0?AVexception@std@@@8
_DATA	SEGMENT
??_R0?AVexception@std@@@8 DD FLAT:??_7type_info@@6B@	; std::exception `RTTI Type Descriptor'
	DD	00H
	DB	'.?AVexception@std@@', 00H
_DATA	ENDS
;	COMDAT ??_R1A@?0A@EA@exception@std@@8
rdata$r	SEGMENT
??_R1A@?0A@EA@exception@std@@8 DD FLAT:??_R0?AVexception@std@@@8 ; std::exception::`RTTI Base Class Descriptor at (0,-1,0,64)'
	DD	00H
	DD	00H
	DD	0ffffffffH
	DD	00H
	DD	040H
	DD	FLAT:??_R3exception@std@@8
rdata$r	ENDS
;	COMDAT ??_R1A@?0A@EA@bad_alloc@std@@8
rdata$r	SEGMENT
??_R1A@?0A@EA@bad_alloc@std@@8 DD FLAT:??_R0?AVbad_alloc@std@@@8 ; std::bad_alloc::`RTTI Base Class Descriptor at (0,-1,0,64)'
	DD	01H
	DD	00H
	DD	0ffffffffH
	DD	00H
	DD	040H
	DD	FLAT:??_R3bad_alloc@std@@8
rdata$r	ENDS
;	COMDAT ??_R2bad_alloc@std@@8
rdata$r	SEGMENT
??_R2bad_alloc@std@@8 DD FLAT:??_R1A@?0A@EA@bad_alloc@std@@8 ; std::bad_alloc::`RTTI Base Class Array'
	DD	FLAT:??_R1A@?0A@EA@exception@std@@8
rdata$r	ENDS
;	COMDAT ??_R3bad_alloc@std@@8
rdata$r	SEGMENT
??_R3bad_alloc@std@@8 DD 00H				; std::bad_alloc::`RTTI Class Hierarchy Descriptor'
	DD	00H
	DD	02H
	DD	FLAT:??_R2bad_alloc@std@@8
rdata$r	ENDS
;	COMDAT ??_R0?AVbad_alloc@std@@@8
_DATA	SEGMENT
??_R0?AVbad_alloc@std@@@8 DD FLAT:??_7type_info@@6B@	; std::bad_alloc `RTTI Type Descriptor'
	DD	00H
	DB	'.?AVbad_alloc@std@@', 00H
_DATA	ENDS
;	COMDAT ??_R4bad_alloc@std@@6B@
rdata$r	SEGMENT
??_R4bad_alloc@std@@6B@ DD 00H				; std::bad_alloc::`RTTI Complete Object Locator'
	DD	00H
	DD	00H
	DD	FLAT:??_R0?AVbad_alloc@std@@@8
	DD	FLAT:??_R3bad_alloc@std@@8
rdata$r	ENDS
;	COMDAT ??_7bad_alloc@std@@6B@
CONST	SEGMENT
??_7bad_alloc@std@@6B@ DD FLAT:??_R4bad_alloc@std@@6B@	; std::bad_alloc::`vftable'
	DD	FLAT:??_Ebad_alloc@std@@UAEPAXI@Z
	DD	FLAT:?what@exception@std@@UBEPBDXZ
; Function compile flags: /Ogsp
CONST	ENDS
;	COMDAT ??0bad_alloc@std@@QAE@PBD@Z
_TEXT	SEGMENT
__Message$ = 8						; size = 4
??0bad_alloc@std@@QAE@PBD@Z PROC			; std::bad_alloc::bad_alloc, COMDAT
; _this$ = ecx

; 345  : 		{	// construct from message string

  00000	55		 push	 ebp
  00001	8b ec		 mov	 ebp, esp
  00003	56		 push	 esi
  00004	8d 45 08	 lea	 eax, DWORD PTR __Message$[ebp]
  00007	50		 push	 eax
  00008	8b f1		 mov	 esi, ecx
  0000a	ff 15 00 00 00
	00		 call	 DWORD PTR __imp_??0exception@std@@QAE@ABQBD@Z
  00010	c7 06 00 00 00
	00		 mov	 DWORD PTR [esi], OFFSET ??_7bad_alloc@std@@6B@

; 346  : 		}

  00016	8b c6		 mov	 eax, esi
  00018	5e		 pop	 esi
  00019	5d		 pop	 ebp
  0001a	c2 04 00	 ret	 4
??0bad_alloc@std@@QAE@PBD@Z ENDP			; std::bad_alloc::bad_alloc
_TEXT	ENDS
PUBLIC	??1bad_alloc@std@@UAE@XZ			; std::bad_alloc::~bad_alloc
EXTRN	__imp_??1exception@std@@UAE@XZ:PROC
; Function compile flags: /Ogsp
;	COMDAT ??1bad_alloc@std@@UAE@XZ
_TEXT	SEGMENT
??1bad_alloc@std@@UAE@XZ PROC				; std::bad_alloc::~bad_alloc, COMDAT
; _this$ = ecx

; 354  : 		{	// destroy the object

  00000	c7 01 00 00 00
	00		 mov	 DWORD PTR [ecx], OFFSET ??_7bad_alloc@std@@6B@

; 355  : 		}

  00006	ff 25 00 00 00
	00		 jmp	 DWORD PTR __imp_??1exception@std@@UAE@XZ
??1bad_alloc@std@@UAE@XZ ENDP				; std::bad_alloc::~bad_alloc
_TEXT	ENDS
EXTRN	??3@YAXPAX@Z:PROC				; operator delete
; Function compile flags: /Ogsp
;	COMDAT ??_Gbad_alloc@std@@UAEPAXI@Z
_TEXT	SEGMENT
___flags$ = 8						; size = 4
??_Gbad_alloc@std@@UAEPAXI@Z PROC			; std::bad_alloc::`scalar deleting destructor', COMDAT
; _this$ = ecx
  00000	55		 push	 ebp
  00001	8b ec		 mov	 ebp, esp
  00003	56		 push	 esi
  00004	8b f1		 mov	 esi, ecx
  00006	c7 06 00 00 00
	00		 mov	 DWORD PTR [esi], OFFSET ??_7bad_alloc@std@@6B@
  0000c	ff 15 00 00 00
	00		 call	 DWORD PTR __imp_??1exception@std@@UAE@XZ
  00012	f6 45 08 01	 test	 BYTE PTR ___flags$[ebp], 1
  00016	74 07		 je	 SHORT $LN1@scalar
  00018	56		 push	 esi
  00019	e8 00 00 00 00	 call	 ??3@YAXPAX@Z		; operator delete
  0001e	59		 pop	 ecx
$LN1@scalar:
  0001f	8b c6		 mov	 eax, esi
  00021	5e		 pop	 esi
  00022	5d		 pop	 ebp
  00023	c2 04 00	 ret	 4
??_Gbad_alloc@std@@UAEPAXI@Z ENDP			; std::bad_alloc::`scalar deleting destructor'
_TEXT	ENDS
PUBLIC	??2@YAPAXIPAX@Z					; operator new
; Function compile flags: /Ogsp
; File c:\program files (x86)\microsoft visual studio 10.0\vc\include\new
;	COMDAT ??2@YAPAXIPAX@Z
_TEXT	SEGMENT
___formal$ = 8						; size = 4
__Where$ = 12						; size = 4
??2@YAPAXIPAX@Z PROC					; operator new, COMDAT

; 56   : 	{	// construct array with placement at _Where

  00000	55		 push	 ebp
  00001	8b ec		 mov	 ebp, esp

; 57   : 	return (_Where);

  00003	8b 45 0c	 mov	 eax, DWORD PTR __Where$[ebp]

; 58   : 	}

  00006	5d		 pop	 ebp
  00007	c3		 ret	 0
??2@YAPAXIPAX@Z ENDP					; operator new
_TEXT	ENDS
PUBLIC	??3@YAXPAX0@Z					; operator delete
; Function compile flags: /Ogsp
;	COMDAT ??3@YAXPAX0@Z
_TEXT	SEGMENT
___formal$ = 8						; size = 4
___formal$ = 12						; size = 4
??3@YAXPAX0@Z PROC					; operator delete, COMDAT

; 62   : 	}

  00000	c3		 ret	 0
??3@YAXPAX0@Z ENDP					; operator delete
_TEXT	ENDS
PUBLIC	?_Adopt@_Iterator_base0@std@@QAEXPBX@Z		; std::_Iterator_base0::_Adopt
; Function compile flags: /Ogsp
; File c:\program files (x86)\microsoft visual studio 10.0\vc\include\xutility
;	COMDAT ?_Adopt@_Iterator_base0@std@@QAEXPBX@Z
_TEXT	SEGMENT
___formal$ = 8						; size = 4
?_Adopt@_Iterator_base0@std@@QAEXPBX@Z PROC		; std::_Iterator_base0::_Adopt, COMDAT
; _this$ = ecx

; 49   : 		}

  00000	c2 04 00	 ret	 4
?_Adopt@_Iterator_base0@std@@QAEXPBX@Z ENDP		; std::_Iterator_base0::_Adopt
_TEXT	ENDS
PUBLIC	?DestroyResource@ioAttachWeapon@@UAEXPAVioPlayStage@@@Z ; ioAttachWeapon::DestroyResource
EXTRN	__imp_?DestroyEffect@ioEffectFactory@@QAEXPAVioEffect@@@Z:PROC
EXTRN	__imp_?GetSingleton@ioEffectFactory@@SAAAV1@XZ:PROC
; Function compile flags: /Ogsp
; File d:\lost saga for developer\youtube\tutorial\source\src\lsclient\ioattachweapon.cpp
;	COMDAT ?DestroyResource@ioAttachWeapon@@UAEXPAVioPlayStage@@@Z
_TEXT	SEGMENT
_pStage$ = 8						; size = 4
?DestroyResource@ioAttachWeapon@@UAEXPAVioPlayStage@@@Z PROC ; ioAttachWeapon::DestroyResource, COMDAT
; _this$ = ecx

; 101  : {

  00000	56		 push	 esi

; 102  : 	if( m_pFireBall )

  00001	8d b1 60 0a 00
	00		 lea	 esi, DWORD PTR [ecx+2656]
  00007	8b 06		 mov	 eax, DWORD PTR [esi]
  00009	85 c0		 test	 eax, eax
  0000b	74 12		 je	 SHORT $LN1@DestroyRes

; 103  : 	{
; 104  : 		g_EffectFactory.DestroyEffect( m_pFireBall );

  0000d	50		 push	 eax
  0000e	ff 15 00 00 00
	00		 call	 DWORD PTR __imp_?GetSingleton@ioEffectFactory@@SAAAV1@XZ
  00014	8b c8		 mov	 ecx, eax
  00016	ff 15 00 00 00
	00		 call	 DWORD PTR __imp_?DestroyEffect@ioEffectFactory@@QAEXPAVioEffect@@@Z

; 105  : 		m_pFireBall = NULL;

  0001c	83 26 00	 and	 DWORD PTR [esi], 0
$LN1@DestroyRes:
  0001f	5e		 pop	 esi

; 106  : 	}
; 107  : }

  00020	c2 04 00	 ret	 4
?DestroyResource@ioAttachWeapon@@UAEXPAVioPlayStage@@@Z ENDP ; ioAttachWeapon::DestroyResource
_TEXT	ENDS
PUBLIC	?SetLiveTime@ioAttachWeapon@@UAEXK@Z		; ioAttachWeapon::SetLiveTime
; Function compile flags: /Ogsp
;	COMDAT ?SetLiveTime@ioAttachWeapon@@UAEXK@Z
_TEXT	SEGMENT
_dwTime$ = 8						; size = 4
?SetLiveTime@ioAttachWeapon@@UAEXK@Z PROC		; ioAttachWeapon::SetLiveTime, COMDAT
; _this$ = ecx

; 111  : }

  00000	c2 04 00	 ret	 4
?SetLiveTime@ioAttachWeapon@@UAEXK@Z ENDP		; ioAttachWeapon::SetLiveTime
_TEXT	ENDS
PUBLIC	?GetLocalAttackBox@ioAttachWeapon@@UBEABVioOrientBox@@XZ ; ioAttachWeapon::GetLocalAttackBox
EXTRN	?GetLocalAttackBox@ioWeapon@@UBEABVioOrientBox@@XZ:PROC ; ioWeapon::GetLocalAttackBox
EXTRN	__imp_?GetCollisionBox@ioEffect@@QBEABVioOrientBox@@XZ:PROC
; Function compile flags: /Ogsp
;	COMDAT ?GetLocalAttackBox@ioAttachWeapon@@UBEABVioOrientBox@@XZ
_TEXT	SEGMENT
?GetLocalAttackBox@ioAttachWeapon@@UBEABVioOrientBox@@XZ PROC ; ioAttachWeapon::GetLocalAttackBox, COMDAT
; _this$ = ecx

; 188  : 	if( m_pFireBall )

  00000	8b 81 60 0a 00
	00		 mov	 eax, DWORD PTR [ecx+2656]
  00006	85 c0		 test	 eax, eax
  00008	74 08		 je	 SHORT $LN1@GetLocalAt

; 189  : 		return m_pFireBall->GetCollisionBox();

  0000a	8b c8		 mov	 ecx, eax
  0000c	ff 25 00 00 00
	00		 jmp	 DWORD PTR __imp_?GetCollisionBox@ioEffect@@QBEABVioOrientBox@@XZ
$LN1@GetLocalAt:

; 190  : 
; 191  : 	return ioWeapon::GetLocalAttackBox();

  00012	e9 00 00 00 00	 jmp	 ?GetLocalAttackBox@ioWeapon@@UBEABVioOrientBox@@XZ ; ioWeapon::GetLocalAttackBox
?GetLocalAttackBox@ioAttachWeapon@@UBEABVioOrientBox@@XZ ENDP ; ioAttachWeapon::GetLocalAttackBox
_TEXT	ENDS
PUBLIC	?GetCollisionEnableTime@ioAttachWeapon@@UBEKXZ	; ioAttachWeapon::GetCollisionEnableTime
; Function compile flags: /Ogsp
;	COMDAT ?GetCollisionEnableTime@ioAttachWeapon@@UBEKXZ
_TEXT	SEGMENT
?GetCollisionEnableTime@ioAttachWeapon@@UBEKXZ PROC	; ioAttachWeapon::GetCollisionEnableTime, COMDAT
; _this$ = ecx

; 237  : {

  00000	56		 push	 esi
  00001	8b f1		 mov	 esi, ecx

; 238  : 	if( m_State != TS_MOVE )

  00003	83 be 94 08 00
	00 00		 cmp	 DWORD PTR [esi+2196], 0
  0000a	74 08		 je	 SHORT $LN1@GetCollisi

; 239  : 		return m_dwCreatedTime;

  0000c	8b 86 d4 04 00
	00		 mov	 eax, DWORD PTR [esi+1236]
  00012	5e		 pop	 esi

; 242  : }

  00013	c3		 ret	 0
$LN1@GetCollisi:

; 240  : 
; 241  : 	return m_dwCreatedTime + GetAttribute()->m_dwCollisionDelay;

  00014	8b 06		 mov	 eax, DWORD PTR [esi]
  00016	ff 90 3c 01 00
	00		 call	 DWORD PTR [eax+316]
  0001c	8b 80 c4 01 00
	00		 mov	 eax, DWORD PTR [eax+452]
  00022	03 86 d4 04 00
	00		 add	 eax, DWORD PTR [esi+1236]
  00028	5e		 pop	 esi

; 242  : }

  00029	c3		 ret	 0
?GetCollisionEnableTime@ioAttachWeapon@@UBEKXZ ENDP	; ioAttachWeapon::GetCollisionEnableTime
_TEXT	ENDS
PUBLIC	?GetType@ioAttachWeapon@@UBE?AW4WeaponType@ioWeapon@@XZ ; ioAttachWeapon::GetType
; Function compile flags: /Ogsp
;	COMDAT ?GetType@ioAttachWeapon@@UBE?AW4WeaponType@ioWeapon@@XZ
_TEXT	SEGMENT
?GetType@ioAttachWeapon@@UBE?AW4WeaponType@ioWeapon@@XZ PROC ; ioAttachWeapon::GetType, COMDAT
; _this$ = ecx

; 246  : 	return WT_ATTACH_WEAPON;

  00000	6a 53		 push	 83			; 00000053H
  00002	58		 pop	 eax

; 247  : }

  00003	c3		 ret	 0
?GetType@ioAttachWeapon@@UBE?AW4WeaponType@ioWeapon@@XZ ENDP ; ioAttachWeapon::GetType
_TEXT	ENDS
PUBLIC	?GetActionStopType@ioAttachWeapon@@UBE?AW4ActionStopType@@XZ ; ioAttachWeapon::GetActionStopType
; Function compile flags: /Ogsp
;	COMDAT ?GetActionStopType@ioAttachWeapon@@UBE?AW4ActionStopType@@XZ
_TEXT	SEGMENT
?GetActionStopType@ioAttachWeapon@@UBE?AW4ActionStopType@@XZ PROC ; ioAttachWeapon::GetActionStopType, COMDAT
; _this$ = ecx

; 251  : 	return m_ActionStopType;

  00000	a1 00 00 00 00	 mov	 eax, DWORD PTR ?m_ActionStopType@ioAttachWeapon@@2W4ActionStopType@@A ; ioAttachWeapon::m_ActionStopType

; 252  : }

  00005	c3		 ret	 0
?GetActionStopType@ioAttachWeapon@@UBE?AW4ActionStopType@@XZ ENDP ; ioAttachWeapon::GetActionStopType
_TEXT	ENDS
PUBLIC	?GetDieActionStopType@ioAttachWeapon@@UBE?AW4ActionStopType@@XZ ; ioAttachWeapon::GetDieActionStopType
; Function compile flags: /Ogsp
;	COMDAT ?GetDieActionStopType@ioAttachWeapon@@UBE?AW4ActionStopType@@XZ
_TEXT	SEGMENT
?GetDieActionStopType@ioAttachWeapon@@UBE?AW4ActionStopType@@XZ PROC ; ioAttachWeapon::GetDieActionStopType, COMDAT
; _this$ = ecx

; 256  : 	return m_DieActionStopType;

  00000	a1 00 00 00 00	 mov	 eax, DWORD PTR ?m_DieActionStopType@ioAttachWeapon@@2W4ActionStopType@@A ; ioAttachWeapon::m_DieActionStopType

; 257  : }

  00005	c3		 ret	 0
?GetDieActionStopType@ioAttachWeapon@@UBE?AW4ActionStopType@@XZ ENDP ; ioAttachWeapon::GetDieActionStopType
_TEXT	ENDS
PUBLIC	__real@00000000
PUBLIC	?GetMoveSpeed@ioAttachWeapon@@IAEMXZ		; ioAttachWeapon::GetMoveSpeed
;	COMDAT __real@00000000
CONST	SEGMENT
__real@00000000 DD 000000000r			; 0
; Function compile flags: /Ogsp
CONST	ENDS
;	COMDAT ?GetMoveSpeed@ioAttachWeapon@@IAEMXZ
_TEXT	SEGMENT
?GetMoveSpeed@ioAttachWeapon@@IAEMXZ PROC		; ioAttachWeapon::GetMoveSpeed, COMDAT
; _this$ = ecx

; 290  : {

  00000	56		 push	 esi
  00001	8b f1		 mov	 esi, ecx

; 291  : 	if( m_fCurMoveSpeed == 0.0f )

  00003	f3 0f 10 86 a8
	08 00 00	 movss	 xmm0, DWORD PTR [esi+2216]
  0000b	0f 2e 05 00 00
	00 00		 ucomiss xmm0, DWORD PTR __real@00000000
  00012	9f		 lahf
  00013	f6 c4 44	 test	 ah, 68			; 00000044H
  00016	7a 14		 jp	 SHORT $LN1@GetMoveSpe

; 292  : 		m_fCurMoveSpeed = GetAttribute()->m_fMoveSpeed;

  00018	8b 06		 mov	 eax, DWORD PTR [esi]
  0001a	ff 90 3c 01 00
	00		 call	 DWORD PTR [eax+316]
  00020	d9 80 98 01 00
	00		 fld	 DWORD PTR [eax+408]
  00026	d9 9e a8 08 00
	00		 fstp	 DWORD PTR [esi+2216]
$LN1@GetMoveSpe:

; 293  : 
; 294  : 	return m_fCurMoveSpeed;

  0002c	d9 86 a8 08 00
	00		 fld	 DWORD PTR [esi+2216]
  00032	5e		 pop	 esi

; 295  : }

  00033	c3		 ret	 0
?GetMoveSpeed@ioAttachWeapon@@IAEMXZ ENDP		; ioAttachWeapon::GetMoveSpeed
_TEXT	ENDS
PUBLIC	?CheckDownTargetState@ioAttachWeapon@@IAE_NPAVioBaseChar@@@Z ; ioAttachWeapon::CheckDownTargetState
EXTRN	?IsApplyDownState@ioBaseChar@@QAE_N_N@Z:PROC	; ioBaseChar::IsApplyDownState
EXTRN	?IsFloatingState@ioBaseChar@@QBE_NXZ:PROC	; ioBaseChar::IsFloatingState
; Function compile flags: /Ogsp
;	COMDAT ?CheckDownTargetState@ioAttachWeapon@@IAE_NPAVioBaseChar@@@Z
_TEXT	SEGMENT
_pTarget$ = 8						; size = 4
?CheckDownTargetState@ioAttachWeapon@@IAE_NPAVioBaseChar@@@Z PROC ; ioAttachWeapon::CheckDownTargetState, COMDAT
; _this$ = ecx

; 496  : {

  00000	55		 push	 ebp
  00001	8b ec		 mov	 ebp, esp

; 497  : 	if( !pTarget ) return false;

  00003	8b 4d 08	 mov	 ecx, DWORD PTR _pTarget$[ebp]
  00006	33 d2		 xor	 edx, edx
  00008	3b ca		 cmp	 ecx, edx
  0000a	74 23		 je	 SHORT $LN1@CheckDownT

; 498  : 
; 499  : 	CharState eState = pTarget->GetState();

  0000c	8a 81 10 03 00
	00		 mov	 al, BYTE PTR [ecx+784]

; 500  : 
; 501  : 	if( eState == CS_FROZEN && pTarget->GetBlowFrozenState() )

  00012	3c 17		 cmp	 al, 23			; 00000017H
  00014	75 0c		 jne	 SHORT $LN6@CheckDownT
  00016	38 91 c5 15 00
	00		 cmp	 BYTE PTR [ecx+5573], dl
$LN17@CheckDownT:
  0001c	74 11		 je	 SHORT $LN1@CheckDownT
$LN16@CheckDownT:

; 502  : 		return true;

  0001e	b0 01		 mov	 al, 1
  00020	eb 0f		 jmp	 SHORT $LN8@CheckDownT
$LN6@CheckDownT:

; 503  : 
; 504  : 	if( eState == CS_BLOW_WOUNDED && !pTarget->IsFloatingState() )

  00022	3c 0c		 cmp	 al, 12			; 0000000cH
  00024	75 0f		 jne	 SHORT $LN5@CheckDownT
$LN19@CheckDownT:
  00026	e8 00 00 00 00	 call	 ?IsFloatingState@ioBaseChar@@QBE_NXZ ; ioBaseChar::IsFloatingState
  0002b	84 c0		 test	 al, al
  0002d	74 ef		 je	 SHORT $LN16@CheckDownT
$LN1@CheckDownT:

; 518  : 
; 519  : 	return false;

  0002f	32 c0		 xor	 al, al
$LN8@CheckDownT:

; 520  : }

  00031	5d		 pop	 ebp
  00032	c2 04 00	 ret	 4
$LN5@CheckDownT:

; 505  : 		return true;
; 506  : 
; 507  : 	if( eState == CS_BOUND_BLOW_WOUNDED && !pTarget->IsFloatingState() )

  00035	3c 31		 cmp	 al, 49			; 00000031H

; 508  : 		return true;

  00037	74 ed		 je	 SHORT $LN19@CheckDownT

; 509  : 
; 510  : 	if( eState == CS_ETC_STATE && pTarget->IsApplyDownState(false) )

  00039	3c 0f		 cmp	 al, 15			; 0000000fH
  0003b	75 0a		 jne	 SHORT $LN3@CheckDownT
$LN18@CheckDownT:
  0003d	52		 push	 edx
  0003e	e8 00 00 00 00	 call	 ?IsApplyDownState@ioBaseChar@@QAE_N_N@Z ; ioBaseChar::IsApplyDownState
  00043	84 c0		 test	 al, al

; 511  : 		return true;

  00045	eb d5		 jmp	 SHORT $LN17@CheckDownT
$LN3@CheckDownT:

; 512  : 
; 513  : 	if( eState == CS_USING_SKILL && pTarget->IsApplyDownState(false) )

  00047	3c 07		 cmp	 al, 7

; 514  : 		return true;

  00049	74 f2		 je	 SHORT $LN18@CheckDownT

; 515  : 
; 516  : 	if( eState == CS_STOP_MOTION && pTarget->GetBlowStopMotionState() )

  0004b	3c 26		 cmp	 al, 38			; 00000026H
  0004d	75 e0		 jne	 SHORT $LN1@CheckDownT
  0004f	38 91 c7 15 00
	00		 cmp	 BYTE PTR [ecx+5575], dl

; 517  : 		return true;

  00055	eb c5		 jmp	 SHORT $LN17@CheckDownT
?CheckDownTargetState@ioAttachWeapon@@IAE_NPAVioBaseChar@@@Z ENDP ; ioAttachWeapon::CheckDownTargetState
_TEXT	ENDS
PUBLIC	??A?$vector@VioHashString@@V?$allocator@VioHashString@@@std@@@std@@QAEAAVioHashString@@I@Z ; std::vector<ioHashString,std::allocator<ioHashString> >::operator[]
; Function compile flags: /Ogsp
; File c:\program files (x86)\microsoft visual studio 10.0\vc\include\vector
;	COMDAT ??A?$vector@VioHashString@@V?$allocator@VioHashString@@@std@@@std@@QAEAAVioHashString@@I@Z
_TEXT	SEGMENT
__Pos$ = 8						; size = 4
??A?$vector@VioHashString@@V?$allocator@VioHashString@@@std@@@std@@QAEAAVioHashString@@I@Z PROC ; std::vector<ioHashString,std::allocator<ioHashString> >::operator[], COMDAT
; _this$ = ecx

; 928  : 		{	// subscript mutable sequence

  00000	55		 push	 ebp
  00001	8b ec		 mov	 ebp, esp

; 929  :  #if _ITERATOR_DEBUG_LEVEL == 2
; 930  : 		if (size() <= _Pos)
; 931  : 			{	// report error
; 932  : 			_DEBUG_ERROR("vector subscript out of range");
; 933  : 			_SCL_SECURE_OUT_OF_RANGE;
; 934  : 			}
; 935  : 
; 936  :  #elif _ITERATOR_DEBUG_LEVEL == 1
; 937  : 		_SCL_SECURE_VALIDATE_RANGE(_Pos < size());
; 938  :  #endif /* _ITERATOR_DEBUG_LEVEL */
; 939  : 
; 940  : 		return (*(this->_Myfirst + _Pos));

  00003	8b 45 08	 mov	 eax, DWORD PTR __Pos$[ebp]
  00006	c1 e0 04	 shl	 eax, 4
  00009	03 01		 add	 eax, DWORD PTR [ecx]

; 941  : 		}

  0000b	5d		 pop	 ebp
  0000c	c2 04 00	 ret	 4
??A?$vector@VioHashString@@V?$allocator@VioHashString@@@std@@@std@@QAEAAVioHashString@@I@Z ENDP ; std::vector<ioHashString,std::allocator<ioHashString> >::operator[]
_TEXT	ENDS
PUBLIC	?empty@?$vector@UChangeDirInfo@@V?$allocator@UChangeDirInfo@@@std@@@std@@QBE_NXZ ; std::vector<ChangeDirInfo,std::allocator<ChangeDirInfo> >::empty
; Function compile flags: /Ogsp
;	COMDAT ?empty@?$vector@UChangeDirInfo@@V?$allocator@UChangeDirInfo@@@std@@@std@@QBE_NXZ
_TEXT	SEGMENT
?empty@?$vector@UChangeDirInfo@@V?$allocator@UChangeDirInfo@@@std@@@std@@QBE_NXZ PROC ; std::vector<ChangeDirInfo,std::allocator<ChangeDirInfo> >::empty, COMDAT
; _this$ = ecx

; 889  : 		return (this->_Myfirst == this->_Mylast);

  00000	8b 01		 mov	 eax, DWORD PTR [ecx]
  00002	2b 41 04	 sub	 eax, DWORD PTR [ecx+4]
  00005	f7 d8		 neg	 eax
  00007	1b c0		 sbb	 eax, eax
  00009	40		 inc	 eax

; 890  : 		}

  0000a	c3		 ret	 0
?empty@?$vector@UChangeDirInfo@@V?$allocator@UChangeDirInfo@@@std@@@std@@QBE_NXZ ENDP ; std::vector<ChangeDirInfo,std::allocator<ChangeDirInfo> >::empty
_TEXT	ENDS
PUBLIC	??A?$vector@UChangeDirInfo@@V?$allocator@UChangeDirInfo@@@std@@@std@@QAEAAUChangeDirInfo@@I@Z ; std::vector<ChangeDirInfo,std::allocator<ChangeDirInfo> >::operator[]
; Function compile flags: /Ogsp
;	COMDAT ??A?$vector@UChangeDirInfo@@V?$allocator@UChangeDirInfo@@@std@@@std@@QAEAAUChangeDirInfo@@I@Z
_TEXT	SEGMENT
__Pos$ = 8						; size = 4
??A?$vector@UChangeDirInfo@@V?$allocator@UChangeDirInfo@@@std@@@std@@QAEAAUChangeDirInfo@@I@Z PROC ; std::vector<ChangeDirInfo,std::allocator<ChangeDirInfo> >::operator[], COMDAT
; _this$ = ecx

; 928  : 		{	// subscript mutable sequence

  00000	55		 push	 ebp
  00001	8b ec		 mov	 ebp, esp

; 929  :  #if _ITERATOR_DEBUG_LEVEL == 2
; 930  : 		if (size() <= _Pos)
; 931  : 			{	// report error
; 932  : 			_DEBUG_ERROR("vector subscript out of range");
; 933  : 			_SCL_SECURE_OUT_OF_RANGE;
; 934  : 			}
; 935  : 
; 936  :  #elif _ITERATOR_DEBUG_LEVEL == 1
; 937  : 		_SCL_SECURE_VALIDATE_RANGE(_Pos < size());
; 938  :  #endif /* _ITERATOR_DEBUG_LEVEL */
; 939  : 
; 940  : 		return (*(this->_Myfirst + _Pos));

  00003	8b 45 08	 mov	 eax, DWORD PTR __Pos$[ebp]
  00006	6b c0 1c	 imul	 eax, 28			; 0000001cH
  00009	03 01		 add	 eax, DWORD PTR [ecx]

; 941  : 		}

  0000b	5d		 pop	 ebp
  0000c	c2 04 00	 ret	 4
??A?$vector@UChangeDirInfo@@V?$allocator@UChangeDirInfo@@@std@@@std@@QAEAAUChangeDirInfo@@I@Z ENDP ; std::vector<ChangeDirInfo,std::allocator<ChangeDirInfo> >::operator[]
_TEXT	ENDS
PUBLIC	?_Inside@?$vector@VioHashString@@V?$allocator@VioHashString@@@std@@@std@@IBE_NPBVioHashString@@@Z ; std::vector<ioHashString,std::allocator<ioHashString> >::_Inside
; Function compile flags: /Ogsp
;	COMDAT ?_Inside@?$vector@VioHashString@@V?$allocator@VioHashString@@@std@@@std@@IBE_NPBVioHashString@@@Z
_TEXT	SEGMENT
__Ptr$ = 8						; size = 4
?_Inside@?$vector@VioHashString@@V?$allocator@VioHashString@@@std@@@std@@IBE_NPBVioHashString@@@Z PROC ; std::vector<ioHashString,std::allocator<ioHashString> >::_Inside, COMDAT
; _this$ = ecx

; 1285 : 		{	// test if _Ptr points inside vector

  00000	55		 push	 ebp
  00001	8b ec		 mov	 ebp, esp

; 1286 : 		return (_Ptr < this->_Mylast && this->_Myfirst <= _Ptr);

  00003	8b 45 08	 mov	 eax, DWORD PTR __Ptr$[ebp]
  00006	3b 41 04	 cmp	 eax, DWORD PTR [ecx+4]
  00009	73 09		 jae	 SHORT $LN3@Inside
  0000b	39 01		 cmp	 DWORD PTR [ecx], eax
  0000d	77 05		 ja	 SHORT $LN3@Inside
  0000f	33 c0		 xor	 eax, eax
  00011	40		 inc	 eax
  00012	eb 02		 jmp	 SHORT $LN4@Inside
$LN3@Inside:
  00014	33 c0		 xor	 eax, eax
$LN4@Inside:

; 1287 : 		}

  00016	5d		 pop	 ebp
  00017	c2 04 00	 ret	 4
?_Inside@?$vector@VioHashString@@V?$allocator@VioHashString@@@std@@@std@@IBE_NPBVioHashString@@@Z ENDP ; std::vector<ioHashString,std::allocator<ioHashString> >::_Inside
_TEXT	ENDS
PUBLIC	?_Orphan_range@?$vector@VioHashString@@V?$allocator@VioHashString@@@std@@@std@@IBEXPAVioHashString@@0@Z ; std::vector<ioHashString,std::allocator<ioHashString> >::_Orphan_range
; Function compile flags: /Ogsp
;	COMDAT ?_Orphan_range@?$vector@VioHashString@@V?$allocator@VioHashString@@@std@@@std@@IBEXPAVioHashString@@0@Z
_TEXT	SEGMENT
___formal$ = 8						; size = 4
___formal$ = 12						; size = 4
?_Orphan_range@?$vector@VioHashString@@V?$allocator@VioHashString@@@std@@@std@@IBEXPAVioHashString@@0@Z PROC ; std::vector<ioHashString,std::allocator<ioHashString> >::_Orphan_range, COMDAT
; _this$ = ecx

; 1454 : 		}

  00000	c2 08 00	 ret	 8
?_Orphan_range@?$vector@VioHashString@@V?$allocator@VioHashString@@@std@@@std@@IBEXPAVioHashString@@0@Z ENDP ; std::vector<ioHashString,std::allocator<ioHashString> >::_Orphan_range
_TEXT	ENDS
PUBLIC	?capacity@?$vector@UChangeDirInfo@@V?$allocator@UChangeDirInfo@@@std@@@std@@QBEIXZ ; std::vector<ChangeDirInfo,std::allocator<ChangeDirInfo> >::capacity
; Function compile flags: /Ogsp
;	COMDAT ?capacity@?$vector@UChangeDirInfo@@V?$allocator@UChangeDirInfo@@@std@@@std@@QBEIXZ
_TEXT	SEGMENT
?capacity@?$vector@UChangeDirInfo@@V?$allocator@UChangeDirInfo@@@std@@@std@@QBEIXZ PROC ; std::vector<ChangeDirInfo,std::allocator<ChangeDirInfo> >::capacity, COMDAT
; _this$ = ecx

; 777  : 		return (this->_Myend - this->_Myfirst);

  00000	8b 41 08	 mov	 eax, DWORD PTR [ecx+8]
  00003	2b 01		 sub	 eax, DWORD PTR [ecx]
  00005	6a 1c		 push	 28			; 0000001cH
  00007	99		 cdq
  00008	59		 pop	 ecx
  00009	f7 f9		 idiv	 ecx

; 778  : 		}

  0000b	c3		 ret	 0
?capacity@?$vector@UChangeDirInfo@@V?$allocator@UChangeDirInfo@@@std@@@std@@QBEIXZ ENDP ; std::vector<ChangeDirInfo,std::allocator<ChangeDirInfo> >::capacity
_TEXT	ENDS
PUBLIC	?size@?$vector@UChangeDirInfo@@V?$allocator@UChangeDirInfo@@@std@@@std@@QBEIXZ ; std::vector<ChangeDirInfo,std::allocator<ChangeDirInfo> >::size
; Function compile flags: /Ogsp
;	COMDAT ?size@?$vector@UChangeDirInfo@@V?$allocator@UChangeDirInfo@@@std@@@std@@QBEIXZ
_TEXT	SEGMENT
?size@?$vector@UChangeDirInfo@@V?$allocator@UChangeDirInfo@@@std@@@std@@QBEIXZ PROC ; std::vector<ChangeDirInfo,std::allocator<ChangeDirInfo> >::size, COMDAT
; _this$ = ecx

; 879  : 		return (this->_Mylast - this->_Myfirst);

  00000	8b 41 04	 mov	 eax, DWORD PTR [ecx+4]
  00003	2b 01		 sub	 eax, DWORD PTR [ecx]
  00005	6a 1c		 push	 28			; 0000001cH
  00007	99		 cdq
  00008	59		 pop	 ecx
  00009	f7 f9		 idiv	 ecx

; 880  : 		}

  0000b	c3		 ret	 0
?size@?$vector@UChangeDirInfo@@V?$allocator@UChangeDirInfo@@@std@@@std@@QBEIXZ ENDP ; std::vector<ChangeDirInfo,std::allocator<ChangeDirInfo> >::size
_TEXT	ENDS
PUBLIC	?_Inside@?$vector@UChangeDirInfo@@V?$allocator@UChangeDirInfo@@@std@@@std@@IBE_NPBUChangeDirInfo@@@Z ; std::vector<ChangeDirInfo,std::allocator<ChangeDirInfo> >::_Inside
; Function compile flags: /Ogsp
;	COMDAT ?_Inside@?$vector@UChangeDirInfo@@V?$allocator@UChangeDirInfo@@@std@@@std@@IBE_NPBUChangeDirInfo@@@Z
_TEXT	SEGMENT
__Ptr$ = 8						; size = 4
?_Inside@?$vector@UChangeDirInfo@@V?$allocator@UChangeDirInfo@@@std@@@std@@IBE_NPBUChangeDirInfo@@@Z PROC ; std::vector<ChangeDirInfo,std::allocator<ChangeDirInfo> >::_Inside, COMDAT
; _this$ = ecx

; 1285 : 		{	// test if _Ptr points inside vector

  00000	55		 push	 ebp
  00001	8b ec		 mov	 ebp, esp

; 1286 : 		return (_Ptr < this->_Mylast && this->_Myfirst <= _Ptr);

  00003	8b 45 08	 mov	 eax, DWORD PTR __Ptr$[ebp]
  00006	3b 41 04	 cmp	 eax, DWORD PTR [ecx+4]
  00009	73 09		 jae	 SHORT $LN3@Inside@2
  0000b	39 01		 cmp	 DWORD PTR [ecx], eax
  0000d	77 05		 ja	 SHORT $LN3@Inside@2
  0000f	33 c0		 xor	 eax, eax
  00011	40		 inc	 eax
  00012	eb 02		 jmp	 SHORT $LN4@Inside@2
$LN3@Inside@2:
  00014	33 c0		 xor	 eax, eax
$LN4@Inside@2:

; 1287 : 		}

  00016	5d		 pop	 ebp
  00017	c2 04 00	 ret	 4
?_Inside@?$vector@UChangeDirInfo@@V?$allocator@UChangeDirInfo@@@std@@@std@@IBE_NPBUChangeDirInfo@@@Z ENDP ; std::vector<ChangeDirInfo,std::allocator<ChangeDirInfo> >::_Inside
_TEXT	ENDS
PUBLIC	??_C@_0BD@OLBABOEK@vector?$DMT?$DO?5too?5long?$AA@ ; `string'
PUBLIC	?_Xlen@?$vector@UChangeDirInfo@@V?$allocator@UChangeDirInfo@@@std@@@std@@IBEXXZ ; std::vector<ChangeDirInfo,std::allocator<ChangeDirInfo> >::_Xlen
EXTRN	__imp_?_Xlength_error@std@@YAXPBD@Z:PROC
;	COMDAT ??_C@_0BD@OLBABOEK@vector?$DMT?$DO?5too?5long?$AA@
CONST	SEGMENT
??_C@_0BD@OLBABOEK@vector?$DMT?$DO?5too?5long?$AA@ DB 'vector<T> too long'
	DB	00H						; `string'
; Function compile flags: /Ogsp
CONST	ENDS
;	COMDAT ?_Xlen@?$vector@UChangeDirInfo@@V?$allocator@UChangeDirInfo@@@std@@@std@@IBEXXZ
_TEXT	SEGMENT
?_Xlen@?$vector@UChangeDirInfo@@V?$allocator@UChangeDirInfo@@@std@@@std@@IBEXXZ PROC ; std::vector<ChangeDirInfo,std::allocator<ChangeDirInfo> >::_Xlen, COMDAT
; _this$ = ecx

; 1427 : 		_Xlength_error("vector<T> too long");

  00000	68 00 00 00 00	 push	 OFFSET ??_C@_0BD@OLBABOEK@vector?$DMT?$DO?5too?5long?$AA@
  00005	ff 15 00 00 00
	00		 call	 DWORD PTR __imp_?_Xlength_error@std@@YAXPBD@Z
$LN4@Xlen:
$LN3@Xlen:
  0000b	cc		 int	 3
?_Xlen@?$vector@UChangeDirInfo@@V?$allocator@UChangeDirInfo@@@std@@@std@@IBEXXZ ENDP ; std::vector<ChangeDirInfo,std::allocator<ChangeDirInfo> >::_Xlen
_TEXT	ENDS
PUBLIC	?_Orphan_range@?$vector@UChangeDirInfo@@V?$allocator@UChangeDirInfo@@@std@@@std@@IBEXPAUChangeDirInfo@@0@Z ; std::vector<ChangeDirInfo,std::allocator<ChangeDirInfo> >::_Orphan_range
; Function compile flags: /Ogsp
;	COMDAT ?_Orphan_range@?$vector@UChangeDirInfo@@V?$allocator@UChangeDirInfo@@@std@@@std@@IBEXPAUChangeDirInfo@@0@Z
_TEXT	SEGMENT
___formal$ = 8						; size = 4
___formal$ = 12						; size = 4
?_Orphan_range@?$vector@UChangeDirInfo@@V?$allocator@UChangeDirInfo@@@std@@@std@@IBEXPAUChangeDirInfo@@0@Z PROC ; std::vector<ChangeDirInfo,std::allocator<ChangeDirInfo> >::_Orphan_range, COMDAT
; _this$ = ecx

; 1454 : 		}

  00000	c2 08 00	 ret	 8
?_Orphan_range@?$vector@UChangeDirInfo@@V?$allocator@UChangeDirInfo@@@std@@@std@@IBEXPAUChangeDirInfo@@0@Z ENDP ; std::vector<ChangeDirInfo,std::allocator<ChangeDirInfo> >::_Orphan_range
_TEXT	ENDS
PUBLIC	??1?$_Vector_val@UChangeDirInfo@@V?$allocator@UChangeDirInfo@@@std@@@std@@QAE@XZ ; std::_Vector_val<ChangeDirInfo,std::allocator<ChangeDirInfo> >::~_Vector_val<ChangeDirInfo,std::allocator<ChangeDirInfo> >
; Function compile flags: /Ogsp
;	COMDAT ??1?$_Vector_val@UChangeDirInfo@@V?$allocator@UChangeDirInfo@@@std@@@std@@QAE@XZ
_TEXT	SEGMENT
??1?$_Vector_val@UChangeDirInfo@@V?$allocator@UChangeDirInfo@@@std@@@std@@QAE@XZ PROC ; std::_Vector_val<ChangeDirInfo,std::allocator<ChangeDirInfo> >::~_Vector_val<ChangeDirInfo,std::allocator<ChangeDirInfo> >, COMDAT
; _this$ = ecx

; 434  : 		}

  00000	c3		 ret	 0
??1?$_Vector_val@UChangeDirInfo@@V?$allocator@UChangeDirInfo@@@std@@@std@@QAE@XZ ENDP ; std::_Vector_val<ChangeDirInfo,std::allocator<ChangeDirInfo> >::~_Vector_val<ChangeDirInfo,std::allocator<ChangeDirInfo> >
_TEXT	ENDS
PUBLIC	??0?$allocator@UChangeDirInfo@@@std@@QAE@XZ	; std::allocator<ChangeDirInfo>::allocator<ChangeDirInfo>
; Function compile flags: /Ogsp
; File c:\program files (x86)\microsoft visual studio 10.0\vc\include\xmemory
;	COMDAT ??0?$allocator@UChangeDirInfo@@@std@@QAE@XZ
_TEXT	SEGMENT
??0?$allocator@UChangeDirInfo@@@std@@QAE@XZ PROC	; std::allocator<ChangeDirInfo>::allocator<ChangeDirInfo>, COMDAT
; _this$ = ecx

; 161  : 	_ALLOCATOR() _THROW0()

  00000	8b c1		 mov	 eax, ecx

; 162  : 		{	// construct default allocator (do nothing)
; 163  : 		}

  00002	c3		 ret	 0
??0?$allocator@UChangeDirInfo@@@std@@QAE@XZ ENDP	; std::allocator<ChangeDirInfo>::allocator<ChangeDirInfo>
_TEXT	ENDS
PUBLIC	?deallocate@?$allocator@UChangeDirInfo@@@std@@QAEXPAUChangeDirInfo@@I@Z ; std::allocator<ChangeDirInfo>::deallocate
; Function compile flags: /Ogsp
;	COMDAT ?deallocate@?$allocator@UChangeDirInfo@@@std@@QAEXPAUChangeDirInfo@@I@Z
_TEXT	SEGMENT
__Ptr$ = 8						; size = 4
___formal$ = 12						; size = 4
?deallocate@?$allocator@UChangeDirInfo@@@std@@QAEXPAUChangeDirInfo@@I@Z PROC ; std::allocator<ChangeDirInfo>::deallocate, COMDAT
; _this$ = ecx

; 181  : 		{	// deallocate object at _Ptr, ignore size

  00000	55		 push	 ebp
  00001	8b ec		 mov	 ebp, esp

; 182  : 		::operator delete(_Ptr);

  00003	ff 75 08	 push	 DWORD PTR __Ptr$[ebp]
  00006	e8 00 00 00 00	 call	 ??3@YAXPAX@Z		; operator delete
  0000b	59		 pop	 ecx

; 183  : 		}

  0000c	5d		 pop	 ebp
  0000d	c2 08 00	 ret	 8
?deallocate@?$allocator@UChangeDirInfo@@@std@@QAEXPAUChangeDirInfo@@I@Z ENDP ; std::allocator<ChangeDirInfo>::deallocate
_TEXT	ENDS
PUBLIC	?capacity@?$vector@VioHashString@@V?$allocator@VioHashString@@@std@@@std@@QBEIXZ ; std::vector<ioHashString,std::allocator<ioHashString> >::capacity
; Function compile flags: /Ogsp
; File c:\program files (x86)\microsoft visual studio 10.0\vc\include\vector
;	COMDAT ?capacity@?$vector@VioHashString@@V?$allocator@VioHashString@@@std@@@std@@QBEIXZ
_TEXT	SEGMENT
?capacity@?$vector@VioHashString@@V?$allocator@VioHashString@@@std@@@std@@QBEIXZ PROC ; std::vector<ioHashString,std::allocator<ioHashString> >::capacity, COMDAT
; _this$ = ecx

; 777  : 		return (this->_Myend - this->_Myfirst);

  00000	8b 41 08	 mov	 eax, DWORD PTR [ecx+8]
  00003	2b 01		 sub	 eax, DWORD PTR [ecx]
  00005	c1 f8 04	 sar	 eax, 4

; 778  : 		}

  00008	c3		 ret	 0
?capacity@?$vector@VioHashString@@V?$allocator@VioHashString@@@std@@@std@@QBEIXZ ENDP ; std::vector<ioHashString,std::allocator<ioHashString> >::capacity
_TEXT	ENDS
PUBLIC	??0?$allocator@UChangeDirInfo@@@std@@QAE@ABV01@@Z ; std::allocator<ChangeDirInfo>::allocator<ChangeDirInfo>
; Function compile flags: /Ogsp
; File c:\program files (x86)\microsoft visual studio 10.0\vc\include\xmemory
;	COMDAT ??0?$allocator@UChangeDirInfo@@@std@@QAE@ABV01@@Z
_TEXT	SEGMENT
___formal$ = 8						; size = 4
??0?$allocator@UChangeDirInfo@@@std@@QAE@ABV01@@Z PROC	; std::allocator<ChangeDirInfo>::allocator<ChangeDirInfo>, COMDAT
; _this$ = ecx

; 165  : 	_ALLOCATOR(const _ALLOCATOR<_Ty>&) _THROW0()

  00000	8b c1		 mov	 eax, ecx

; 166  : 		{	// construct by copying (do nothing)
; 167  : 		}

  00002	c2 04 00	 ret	 4
??0?$allocator@UChangeDirInfo@@@std@@QAE@ABV01@@Z ENDP	; std::allocator<ChangeDirInfo>::allocator<ChangeDirInfo>
_TEXT	ENDS
PUBLIC	?max_size@?$allocator@UChangeDirInfo@@@std@@QBEIXZ ; std::allocator<ChangeDirInfo>::max_size
; Function compile flags: /Ogsp
;	COMDAT ?max_size@?$allocator@UChangeDirInfo@@@std@@QBEIXZ
_TEXT	SEGMENT
?max_size@?$allocator@UChangeDirInfo@@@std@@QBEIXZ PROC	; std::allocator<ChangeDirInfo>::max_size, COMDAT
; _this$ = ecx

; 218  : 		_SIZT _Count = (_SIZT)(-1) / sizeof (_Ty);
; 219  : 		return (0 < _Count ? _Count : 1);

  00000	b8 49 92 24 09	 mov	 eax, 153391689		; 09249249H

; 220  : 		}

  00005	c3		 ret	 0
?max_size@?$allocator@UChangeDirInfo@@@std@@QBEIXZ ENDP	; std::allocator<ChangeDirInfo>::max_size
_TEXT	ENDS
PUBLIC	??0?$_Vector_const_iterator@V?$_Vector_val@UChangeDirInfo@@V?$allocator@UChangeDirInfo@@@std@@@std@@@std@@QAE@PAUChangeDirInfo@@PBU_Container_base0@1@@Z ; std::_Vector_const_iterator<std::_Vector_val<ChangeDirInfo,std::allocator<ChangeDirInfo> > >::_Vector_const_iterator<std::_Vector_val<ChangeDirInfo,std::allocator<ChangeDirInfo> > >
; Function compile flags: /Ogsp
; File c:\program files (x86)\microsoft visual studio 10.0\vc\include\vector
;	COMDAT ??0?$_Vector_const_iterator@V?$_Vector_val@UChangeDirInfo@@V?$allocator@UChangeDirInfo@@@std@@@std@@@std@@QAE@PAUChangeDirInfo@@PBU_Container_base0@1@@Z
_TEXT	SEGMENT
__Parg$ = 8						; size = 4
__Pvector$ = 12						; size = 4
??0?$_Vector_const_iterator@V?$_Vector_val@UChangeDirInfo@@V?$allocator@UChangeDirInfo@@@std@@@std@@@std@@QAE@PAUChangeDirInfo@@PBU_Container_base0@1@@Z PROC ; std::_Vector_const_iterator<std::_Vector_val<ChangeDirInfo,std::allocator<ChangeDirInfo> > >::_Vector_const_iterator<std::_Vector_val<ChangeDirInfo,std::allocator<ChangeDirInfo> > >, COMDAT
; _this$ = ecx

; 45   : 		{	// construct with pointer _Parg

  00000	55		 push	 ebp
  00001	8b ec		 mov	 ebp, esp
  00003	8b c1		 mov	 eax, ecx
  00005	8b 4d 08	 mov	 ecx, DWORD PTR __Parg$[ebp]
  00008	89 08		 mov	 DWORD PTR [eax], ecx

; 46   : 		this->_Adopt(_Pvector);
; 47   : 		}

  0000a	5d		 pop	 ebp
  0000b	c2 08 00	 ret	 8
??0?$_Vector_const_iterator@V?$_Vector_val@UChangeDirInfo@@V?$allocator@UChangeDirInfo@@@std@@@std@@@std@@QAE@PAUChangeDirInfo@@PBU_Container_base0@1@@Z ENDP ; std::_Vector_const_iterator<std::_Vector_val<ChangeDirInfo,std::allocator<ChangeDirInfo> > >::_Vector_const_iterator<std::_Vector_val<ChangeDirInfo,std::allocator<ChangeDirInfo> > >
_TEXT	ENDS
PUBLIC	?_Compat@?$_Vector_const_iterator@V?$_Vector_val@UChangeDirInfo@@V?$allocator@UChangeDirInfo@@@std@@@std@@@std@@QBEXABV12@@Z ; std::_Vector_const_iterator<std::_Vector_val<ChangeDirInfo,std::allocator<ChangeDirInfo> > >::_Compat
; Function compile flags: /Ogsp
;	COMDAT ?_Compat@?$_Vector_const_iterator@V?$_Vector_val@UChangeDirInfo@@V?$allocator@UChangeDirInfo@@@std@@@std@@@std@@QBEXABV12@@Z
_TEXT	SEGMENT
___formal$ = 8						; size = 4
?_Compat@?$_Vector_const_iterator@V?$_Vector_val@UChangeDirInfo@@V?$allocator@UChangeDirInfo@@@std@@@std@@@std@@QBEXABV12@@Z PROC ; std::_Vector_const_iterator<std::_Vector_val<ChangeDirInfo,std::allocator<ChangeDirInfo> > >::_Compat, COMDAT
; _this$ = ecx

; 253  : 		}

  00000	c2 04 00	 ret	 4
?_Compat@?$_Vector_const_iterator@V?$_Vector_val@UChangeDirInfo@@V?$allocator@UChangeDirInfo@@@std@@@std@@@std@@QBEXABV12@@Z ENDP ; std::_Vector_const_iterator<std::_Vector_val<ChangeDirInfo,std::allocator<ChangeDirInfo> > >::_Compat
_TEXT	ENDS
PUBLIC	__real@3f91df46a2526c7a
PUBLIC	??$DEGtoRAD@M@@YAMM@Z				; DEGtoRAD<float>
;	COMDAT __real@3f91df46a2526c7a
; File d:\lost saga for developer\youtube\tutorial\source\src\lsclient\veryoftenusedefine.h
CONST	SEGMENT
__real@3f91df46a2526c7a DQ 03f91df46a2526c7ar	; 0.0174533
; Function compile flags: /Ogsp
CONST	ENDS
;	COMDAT ??$DEGtoRAD@M@@YAMM@Z
_TEXT	SEGMENT
tv129 = 8						; size = 4
_val$ = 8						; size = 4
??$DEGtoRAD@M@@YAMM@Z PROC				; DEGtoRAD<float>, COMDAT

; 20   : type  DEGtoRAD (type val) {return (type) (val * 0.0174532925199);}

  00000	55		 push	 ebp
  00001	8b ec		 mov	 ebp, esp
  00003	d9 45 08	 fld	 DWORD PTR _val$[ebp]
  00006	dc 0d 00 00 00
	00		 fmul	 QWORD PTR __real@3f91df46a2526c7a
  0000c	d9 5d 08	 fstp	 DWORD PTR tv129[ebp]
  0000f	d9 45 08	 fld	 DWORD PTR tv129[ebp]
  00012	5d		 pop	 ebp
  00013	c3		 ret	 0
??$DEGtoRAD@M@@YAMM@Z ENDP				; DEGtoRAD<float>
_TEXT	ENDS
PUBLIC	??$addressof@$$CBVioHashString@@@std@@YAPBVioHashString@@ABV1@@Z ; std::addressof<ioHashString const >
; Function compile flags: /Ogsp
; File c:\program files (x86)\microsoft visual studio 10.0\vc\include\xmemory
;	COMDAT ??$addressof@$$CBVioHashString@@@std@@YAPBVioHashString@@ABV1@@Z
_TEXT	SEGMENT
__Val$ = 8						; size = 4
??$addressof@$$CBVioHashString@@@std@@YAPBVioHashString@@ABV1@@Z PROC ; std::addressof<ioHashString const >, COMDAT

; 110  : 	{	// return address of _Val

  00000	55		 push	 ebp
  00001	8b ec		 mov	 ebp, esp

; 111  : 	return ((_Ty *) &(char&)_Val);

  00003	8b 45 08	 mov	 eax, DWORD PTR __Val$[ebp]

; 112  : 	}

  00006	5d		 pop	 ebp
  00007	c3		 ret	 0
??$addressof@$$CBVioHashString@@@std@@YAPBVioHashString@@ABV1@@Z ENDP ; std::addressof<ioHashString const >
_TEXT	ENDS
PUBLIC	??$addressof@$$CBUChangeDirInfo@@@std@@YAPBUChangeDirInfo@@ABU1@@Z ; std::addressof<ChangeDirInfo const >
; Function compile flags: /Ogsp
;	COMDAT ??$addressof@$$CBUChangeDirInfo@@@std@@YAPBUChangeDirInfo@@ABU1@@Z
_TEXT	SEGMENT
__Val$ = 8						; size = 4
??$addressof@$$CBUChangeDirInfo@@@std@@YAPBUChangeDirInfo@@ABU1@@Z PROC ; std::addressof<ChangeDirInfo const >, COMDAT

; 110  : 	{	// return address of _Val

  00000	55		 push	 ebp
  00001	8b ec		 mov	 ebp, esp

; 111  : 	return ((_Ty *) &(char&)_Val);

  00003	8b 45 08	 mov	 eax, DWORD PTR __Val$[ebp]

; 112  : 	}

  00006	5d		 pop	 ebp
  00007	c3		 ret	 0
??$addressof@$$CBUChangeDirInfo@@@std@@YAPBUChangeDirInfo@@ABU1@@Z ENDP ; std::addressof<ChangeDirInfo const >
_TEXT	ENDS
PUBLIC	__TI2?AVbad_alloc@std@@
PUBLIC	??$_Allocate@UChangeDirInfo@@@std@@YAPAUChangeDirInfo@@IPAU1@@Z ; std::_Allocate<ChangeDirInfo>
PUBLIC	__CTA2?AVbad_alloc@std@@
PUBLIC	__CT??_R0?AVbad_alloc@std@@@8??0bad_alloc@std@@QAE@ABV01@@Z12
PUBLIC	??0bad_alloc@std@@QAE@ABV01@@Z			; std::bad_alloc::bad_alloc
PUBLIC	__CT??_R0?AVexception@std@@@8??0exception@std@@QAE@ABV01@@Z12
EXTRN	??2@YAPAXI@Z:PROC				; operator new
EXTRN	__CxxThrowException@8:PROC
EXTRN	??0exception@std@@QAE@ABV01@@Z:PROC		; std::exception::exception
;	COMDAT __CT??_R0?AVexception@std@@@8??0exception@std@@QAE@ABV01@@Z12
; File c:\program files (x86)\microsoft visual studio 10.0\vc\include\exception
xdata$x	SEGMENT
__CT??_R0?AVexception@std@@@8??0exception@std@@QAE@ABV01@@Z12 DD 00H
	DD	FLAT:??_R0?AVexception@std@@@8
	DD	00H
	DD	0ffffffffH
	ORG $+4
	DD	0cH
	DD	FLAT:??0exception@std@@QAE@ABV01@@Z
xdata$x	ENDS
;	COMDAT __CT??_R0?AVbad_alloc@std@@@8??0bad_alloc@std@@QAE@ABV01@@Z12
xdata$x	SEGMENT
__CT??_R0?AVbad_alloc@std@@@8??0bad_alloc@std@@QAE@ABV01@@Z12 DD 00H
	DD	FLAT:??_R0?AVbad_alloc@std@@@8
	DD	00H
	DD	0ffffffffH
	ORG $+4
	DD	0cH
	DD	FLAT:??0bad_alloc@std@@QAE@ABV01@@Z
xdata$x	ENDS
;	COMDAT __CTA2?AVbad_alloc@std@@
xdata$x	SEGMENT
__CTA2?AVbad_alloc@std@@ DD 02H
	DD	FLAT:__CT??_R0?AVbad_alloc@std@@@8??0bad_alloc@std@@QAE@ABV01@@Z12
	DD	FLAT:__CT??_R0?AVexception@std@@@8??0exception@std@@QAE@ABV01@@Z12
xdata$x	ENDS
;	COMDAT __TI2?AVbad_alloc@std@@
xdata$x	SEGMENT
__TI2?AVbad_alloc@std@@ DD 00H
	DD	FLAT:??1bad_alloc@std@@UAE@XZ
	DD	00H
	DD	FLAT:__CTA2?AVbad_alloc@std@@
; Function compile flags: /Ogsp
; File c:\program files (x86)\microsoft visual studio 10.0\vc\include\xmemory
xdata$x	ENDS
;	COMDAT ??$_Allocate@UChangeDirInfo@@@std@@YAPAUChangeDirInfo@@IPAU1@@Z
_TEXT	SEGMENT
$T535790 = -12						; size = 12
$T535795 = 8						; size = 4
__Count$ = 8						; size = 4
___formal$ = 12						; size = 4
??$_Allocate@UChangeDirInfo@@@std@@YAPAUChangeDirInfo@@IPAU1@@Z PROC ; std::_Allocate<ChangeDirInfo>, COMDAT

; 30   : 	{	// allocate storage for _Count elements of type _Ty

  00000	55		 push	 ebp
  00001	8b ec		 mov	 ebp, esp

; 31   : 	void *_Ptr = 0;
; 32   : 
; 33   : 	if (_Count <= 0)

  00003	8b 4d 08	 mov	 ecx, DWORD PTR __Count$[ebp]
  00006	83 ec 0c	 sub	 esp, 12			; 0000000cH
  00009	33 c0		 xor	 eax, eax
  0000b	85 c9		 test	 ecx, ecx

; 34   : 		_Count = 0;
; 35   : 	else if (((_SIZT)(-1) / sizeof (_Ty) < _Count)

  0000d	74 3c		 je	 SHORT $LN5@Allocate

; 36   : 		|| (_Ptr = ::operator new(_Count * sizeof (_Ty))) == 0)

  0000f	81 f9 49 92 24
	09		 cmp	 ecx, 153391689		; 09249249H
  00015	77 0e		 ja	 SHORT $LN1@Allocate
  00017	6b c9 1c	 imul	 ecx, 28			; 0000001cH
  0001a	51		 push	 ecx
  0001b	e8 00 00 00 00	 call	 ??2@YAPAXI@Z		; operator new
  00020	59		 pop	 ecx
  00021	85 c0		 test	 eax, eax

; 38   : 
; 39   : 	return ((_Ty _FARQ *)_Ptr);

  00023	75 26		 jne	 SHORT $LN5@Allocate
$LN1@Allocate:

; 37   : 		_THROW_NCEE(bad_alloc, 0);

  00025	83 65 08 00	 and	 DWORD PTR $T535795[ebp], 0
  00029	8d 45 08	 lea	 eax, DWORD PTR $T535795[ebp]
  0002c	50		 push	 eax
  0002d	8d 4d f4	 lea	 ecx, DWORD PTR $T535790[ebp]
  00030	ff 15 00 00 00
	00		 call	 DWORD PTR __imp_??0exception@std@@QAE@ABQBD@Z
  00036	68 00 00 00 00	 push	 OFFSET __TI2?AVbad_alloc@std@@
  0003b	8d 45 f4	 lea	 eax, DWORD PTR $T535790[ebp]
  0003e	50		 push	 eax
  0003f	c7 45 f4 00 00
	00 00		 mov	 DWORD PTR $T535790[ebp], OFFSET ??_7bad_alloc@std@@6B@
  00046	e8 00 00 00 00	 call	 __CxxThrowException@8
$LN10@Allocate:
$LN5@Allocate:

; 40   : 	}

  0004b	c9		 leave
  0004c	c3		 ret	 0
$LN9@Allocate:
??$_Allocate@UChangeDirInfo@@@std@@YAPAUChangeDirInfo@@IPAU1@@Z ENDP ; std::_Allocate<ChangeDirInfo>
_TEXT	ENDS
PUBLIC	??G?$_Vector_const_iterator@V?$_Vector_val@UChangeDirInfo@@V?$allocator@UChangeDirInfo@@@std@@@std@@@std@@QBEHABV01@@Z ; std::_Vector_const_iterator<std::_Vector_val<ChangeDirInfo,std::allocator<ChangeDirInfo> > >::operator-
; Function compile flags: /Ogsp
; File c:\program files (x86)\microsoft visual studio 10.0\vc\include\vector
;	COMDAT ??G?$_Vector_const_iterator@V?$_Vector_val@UChangeDirInfo@@V?$allocator@UChangeDirInfo@@@std@@@std@@@std@@QBEHABV01@@Z
_TEXT	SEGMENT
__Right$ = 8						; size = 4
??G?$_Vector_const_iterator@V?$_Vector_val@UChangeDirInfo@@V?$allocator@UChangeDirInfo@@@std@@@std@@@std@@QBEHABV01@@Z PROC ; std::_Vector_const_iterator<std::_Vector_val<ChangeDirInfo,std::allocator<ChangeDirInfo> > >::operator-, COMDAT
; _this$ = ecx

; 190  : 		{	// return difference of iterators

  00000	55		 push	 ebp
  00001	8b ec		 mov	 ebp, esp

; 191  : 		_Compat(_Right);
; 192  : 		return (this->_Ptr - _Right._Ptr);

  00003	8b 01		 mov	 eax, DWORD PTR [ecx]
  00005	8b 4d 08	 mov	 ecx, DWORD PTR __Right$[ebp]
  00008	2b 01		 sub	 eax, DWORD PTR [ecx]
  0000a	6a 1c		 push	 28			; 0000001cH
  0000c	99		 cdq
  0000d	59		 pop	 ecx
  0000e	f7 f9		 idiv	 ecx

; 193  : 		}

  00010	5d		 pop	 ebp
  00011	c2 04 00	 ret	 4
??G?$_Vector_const_iterator@V?$_Vector_val@UChangeDirInfo@@V?$allocator@UChangeDirInfo@@@std@@@std@@@std@@QBEHABV01@@Z ENDP ; std::_Vector_const_iterator<std::_Vector_val<ChangeDirInfo,std::allocator<ChangeDirInfo> > >::operator-
_TEXT	ENDS
PUBLIC	??$forward@AAUChangeDirInfo@@@std@@YAAAUChangeDirInfo@@AAU1@@Z ; std::forward<ChangeDirInfo &>
; Function compile flags: /Ogsp
; File c:\program files (x86)\microsoft visual studio 10.0\vc\include\utility
;	COMDAT ??$forward@AAUChangeDirInfo@@@std@@YAAAUChangeDirInfo@@AAU1@@Z
_TEXT	SEGMENT
__Arg$ = 8						; size = 4
??$forward@AAUChangeDirInfo@@@std@@YAAAUChangeDirInfo@@AAU1@@Z PROC ; std::forward<ChangeDirInfo &>, COMDAT

; 78   : 	{	// forward _Arg, given explicitly specified type parameter

  00000	55		 push	 ebp
  00001	8b ec		 mov	 ebp, esp

; 79   : 	return ((_Ty&&)_Arg);

  00003	8b 45 08	 mov	 eax, DWORD PTR __Arg$[ebp]

; 80   : 	}

  00006	5d		 pop	 ebp
  00007	c3		 ret	 0
??$forward@AAUChangeDirInfo@@@std@@YAAAUChangeDirInfo@@AAU1@@Z ENDP ; std::forward<ChangeDirInfo &>
_TEXT	ENDS
PUBLIC	??$construct@AAUChangeDirInfo@@@?$allocator@UChangeDirInfo@@@std@@QAEXPAUChangeDirInfo@@AAU2@@Z ; std::allocator<ChangeDirInfo>::construct<ChangeDirInfo &>
; Function compile flags: /Ogsp
; File c:\program files (x86)\microsoft visual studio 10.0\vc\include\xmemory
;	COMDAT ??$construct@AAUChangeDirInfo@@@?$allocator@UChangeDirInfo@@@std@@QAEXPAUChangeDirInfo@@AAU2@@Z
_TEXT	SEGMENT
__Ptr$ = 8						; size = 4
__Val$ = 12						; size = 4
??$construct@AAUChangeDirInfo@@@?$allocator@UChangeDirInfo@@@std@@QAEXPAUChangeDirInfo@@AAU2@@Z PROC ; std::allocator<ChangeDirInfo>::construct<ChangeDirInfo &>, COMDAT
; _this$ = ecx

; 206  : 		void construct(pointer _Ptr, _Other&& _Val)

  00000	55		 push	 ebp
  00001	8b ec		 mov	 ebp, esp
  00003	57		 push	 edi

; 207  : 		{	// construct object at _Ptr with value _Val
; 208  : 		::new ((void _FARQ *)_Ptr) _Ty(_STD forward<_Other>(_Val));

  00004	8b 7d 08	 mov	 edi, DWORD PTR __Ptr$[ebp]
  00007	85 ff		 test	 edi, edi
  00009	74 0a		 je	 SHORT $LN3@construct
  0000b	56		 push	 esi
  0000c	8b 75 0c	 mov	 esi, DWORD PTR __Val$[ebp]
  0000f	6a 07		 push	 7
  00011	59		 pop	 ecx
  00012	f3 a5		 rep movsd
  00014	5e		 pop	 esi
$LN3@construct:
  00015	5f		 pop	 edi

; 209  : 		}

  00016	5d		 pop	 ebp
  00017	c2 08 00	 ret	 8
??$construct@AAUChangeDirInfo@@@?$allocator@UChangeDirInfo@@@std@@QAEXPAUChangeDirInfo@@AAU2@@Z ENDP ; std::allocator<ChangeDirInfo>::construct<ChangeDirInfo &>
_TEXT	ENDS
PUBLIC	??$forward@ABUChangeDirInfo@@@std@@YAABUChangeDirInfo@@ABU1@@Z ; std::forward<ChangeDirInfo const &>
; Function compile flags: /Ogsp
; File c:\program files (x86)\microsoft visual studio 10.0\vc\include\utility
;	COMDAT ??$forward@ABUChangeDirInfo@@@std@@YAABUChangeDirInfo@@ABU1@@Z
_TEXT	SEGMENT
__Arg$ = 8						; size = 4
??$forward@ABUChangeDirInfo@@@std@@YAABUChangeDirInfo@@ABU1@@Z PROC ; std::forward<ChangeDirInfo const &>, COMDAT

; 78   : 	{	// forward _Arg, given explicitly specified type parameter

  00000	55		 push	 ebp
  00001	8b ec		 mov	 ebp, esp

; 79   : 	return ((_Ty&&)_Arg);

  00003	8b 45 08	 mov	 eax, DWORD PTR __Arg$[ebp]

; 80   : 	}

  00006	5d		 pop	 ebp
  00007	c3		 ret	 0
??$forward@ABUChangeDirInfo@@@std@@YAABUChangeDirInfo@@ABU1@@Z ENDP ; std::forward<ChangeDirInfo const &>
_TEXT	ENDS
PUBLIC	??$_Ptr_cat@UChangeDirInfo@@U1@@std@@YA?AU_Nonscalar_ptr_iterator_tag@0@PAUChangeDirInfo@@0@Z ; std::_Ptr_cat<ChangeDirInfo,ChangeDirInfo>
; Function compile flags: /Ogsp
; File c:\program files (x86)\microsoft visual studio 10.0\vc\include\xutility
;	COMDAT ??$_Ptr_cat@UChangeDirInfo@@U1@@std@@YA?AU_Nonscalar_ptr_iterator_tag@0@PAUChangeDirInfo@@0@Z
_TEXT	SEGMENT
__Cat$ = -1						; size = 1
___formal$ = 8						; size = 4
___formal$ = 12						; size = 4
??$_Ptr_cat@UChangeDirInfo@@U1@@std@@YA?AU_Nonscalar_ptr_iterator_tag@0@PAUChangeDirInfo@@0@Z PROC ; std::_Ptr_cat<ChangeDirInfo,ChangeDirInfo>, COMDAT

; 516  : 	{	// return pointer category from pointers

  00000	55		 push	 ebp
  00001	8b ec		 mov	 ebp, esp
  00003	51		 push	 ecx

; 517  : 	typename _Ptr_cat_helper<_Elem1, _Elem2>::_Type _Cat;
; 518  : 	return (_Cat);

  00004	8a 45 ff	 mov	 al, BYTE PTR __Cat$[ebp]

; 519  : 	}

  00007	c9		 leave
  00008	c3		 ret	 0
??$_Ptr_cat@UChangeDirInfo@@U1@@std@@YA?AU_Nonscalar_ptr_iterator_tag@0@PAUChangeDirInfo@@0@Z ENDP ; std::_Ptr_cat<ChangeDirInfo,ChangeDirInfo>
_TEXT	ENDS
PUBLIC	??$_Construct@UChangeDirInfo@@ABU1@@std@@YAXPAUChangeDirInfo@@ABU1@@Z ; std::_Construct<ChangeDirInfo,ChangeDirInfo const &>
; Function compile flags: /Ogsp
; File c:\program files (x86)\microsoft visual studio 10.0\vc\include\xmemory
;	COMDAT ??$_Construct@UChangeDirInfo@@ABU1@@std@@YAXPAUChangeDirInfo@@ABU1@@Z
_TEXT	SEGMENT
__Ptr$ = 8						; size = 4
__Val$ = 12						; size = 4
??$_Construct@UChangeDirInfo@@ABU1@@std@@YAXPAUChangeDirInfo@@ABU1@@Z PROC ; std::_Construct<ChangeDirInfo,ChangeDirInfo const &>, COMDAT

; 46   : 	{	// construct object at _Ptr with value _Val

  00000	55		 push	 ebp
  00001	8b ec		 mov	 ebp, esp
  00003	57		 push	 edi

; 47   : 	void _FARQ *_Vptr = _Ptr;
; 48   : 	::new (_Vptr) _Ty1(_STD forward<_Ty2>(_Val));

  00004	8b 7d 08	 mov	 edi, DWORD PTR __Ptr$[ebp]
  00007	85 ff		 test	 edi, edi
  00009	74 0a		 je	 SHORT $LN3@Construct
  0000b	56		 push	 esi
  0000c	8b 75 0c	 mov	 esi, DWORD PTR __Val$[ebp]
  0000f	6a 07		 push	 7
  00011	59		 pop	 ecx
  00012	f3 a5		 rep movsd
  00014	5e		 pop	 esi
$LN3@Construct:
  00015	5f		 pop	 edi

; 49   : 	}

  00016	5d		 pop	 ebp
  00017	c3		 ret	 0
??$_Construct@UChangeDirInfo@@ABU1@@std@@YAXPAUChangeDirInfo@@ABU1@@Z ENDP ; std::_Construct<ChangeDirInfo,ChangeDirInfo const &>
_TEXT	ENDS
PUBLIC	?_Unchecked@?$_Vector_iterator@V?$_Vector_val@UChangeDirInfo@@V?$allocator@UChangeDirInfo@@@std@@@std@@@std@@QBEPAUChangeDirInfo@@XZ ; std::_Vector_iterator<std::_Vector_val<ChangeDirInfo,std::allocator<ChangeDirInfo> > >::_Unchecked
; Function compile flags: /Ogsp
; File c:\program files (x86)\microsoft visual studio 10.0\vc\include\vector
;	COMDAT ?_Unchecked@?$_Vector_iterator@V?$_Vector_val@UChangeDirInfo@@V?$allocator@UChangeDirInfo@@@std@@@std@@@std@@QBEPAUChangeDirInfo@@XZ
_TEXT	SEGMENT
?_Unchecked@?$_Vector_iterator@V?$_Vector_val@UChangeDirInfo@@V?$allocator@UChangeDirInfo@@@std@@@std@@@std@@QBEPAUChangeDirInfo@@XZ PROC ; std::_Vector_iterator<std::_Vector_val<ChangeDirInfo,std::allocator<ChangeDirInfo> > >::_Unchecked, COMDAT
; _this$ = ecx

; 317  : 		return (_Unchecked_type(this->_Ptr));

  00000	8b 01		 mov	 eax, DWORD PTR [ecx]

; 318  : 		}

  00002	c3		 ret	 0
?_Unchecked@?$_Vector_iterator@V?$_Vector_val@UChangeDirInfo@@V?$allocator@UChangeDirInfo@@@std@@@std@@@std@@QBEPAUChangeDirInfo@@XZ ENDP ; std::_Vector_iterator<std::_Vector_val<ChangeDirInfo,std::allocator<ChangeDirInfo> > >::_Unchecked
_TEXT	ENDS
PUBLIC	??0D3DXVECTOR3@@QAE@XZ				; D3DXVECTOR3::D3DXVECTOR3
; Function compile flags: /Ogsp
; File c:\program files (x86)\microsoft directx sdk (june 2010)\include\d3dx9math.h
;	COMDAT ??0D3DXVECTOR3@@QAE@XZ
_TEXT	SEGMENT
??0D3DXVECTOR3@@QAE@XZ PROC				; D3DXVECTOR3::D3DXVECTOR3, COMDAT
; _this$ = ecx

; 165  :     D3DXVECTOR3() {};

  00000	8b c1		 mov	 eax, ecx
  00002	c3		 ret	 0
??0D3DXVECTOR3@@QAE@XZ ENDP				; D3DXVECTOR3::D3DXVECTOR3
_TEXT	ENDS
PUBLIC	??$_Val_type@PAUChangeDirInfo@@@std@@YAPAUChangeDirInfo@@PAU1@@Z ; std::_Val_type<ChangeDirInfo *>
; Function compile flags: /Ogsp
; File c:\program files (x86)\microsoft visual studio 10.0\vc\include\xutility
;	COMDAT ??$_Val_type@PAUChangeDirInfo@@@std@@YAPAUChangeDirInfo@@PAU1@@Z
_TEXT	SEGMENT
___formal$ = 8						; size = 4
??$_Val_type@PAUChangeDirInfo@@@std@@YAPAUChangeDirInfo@@PAU1@@Z PROC ; std::_Val_type<ChangeDirInfo *>, COMDAT

; 790  : 	return (0);

  00000	33 c0		 xor	 eax, eax

; 791  : 	}

  00002	c3		 ret	 0
??$_Val_type@PAUChangeDirInfo@@@std@@YAPAUChangeDirInfo@@PAU1@@Z ENDP ; std::_Val_type<ChangeDirInfo *>
_TEXT	ENDS
PUBLIC	??$move@AAUChangeDirInfo@@@std@@YA$$QAUChangeDirInfo@@AAU1@@Z ; std::move<ChangeDirInfo &>
; Function compile flags: /Ogsp
; File c:\program files (x86)\microsoft visual studio 10.0\vc\include\utility
;	COMDAT ??$move@AAUChangeDirInfo@@@std@@YA$$QAUChangeDirInfo@@AAU1@@Z
_TEXT	SEGMENT
__Arg$ = 8						; size = 4
??$move@AAUChangeDirInfo@@@std@@YA$$QAUChangeDirInfo@@AAU1@@Z PROC ; std::move<ChangeDirInfo &>, COMDAT

; 86   : 	{	// forward _Arg as movable

  00000	55		 push	 ebp
  00001	8b ec		 mov	 ebp, esp

; 87   : 	return ((typename tr1::_Remove_reference<_Ty>::_Type&&)_Arg);

  00003	8b 45 08	 mov	 eax, DWORD PTR __Arg$[ebp]

; 88   : 	}

  00006	5d		 pop	 ebp
  00007	c3		 ret	 0
??$move@AAUChangeDirInfo@@@std@@YA$$QAUChangeDirInfo@@AAU1@@Z ENDP ; std::move<ChangeDirInfo &>
_TEXT	ENDS
PUBLIC	??$_Val_type@PAVioHashString@@@std@@YAPAVioHashString@@PAV1@@Z ; std::_Val_type<ioHashString *>
; Function compile flags: /Ogsp
; File c:\program files (x86)\microsoft visual studio 10.0\vc\include\xutility
;	COMDAT ??$_Val_type@PAVioHashString@@@std@@YAPAVioHashString@@PAV1@@Z
_TEXT	SEGMENT
___formal$ = 8						; size = 4
??$_Val_type@PAVioHashString@@@std@@YAPAVioHashString@@PAV1@@Z PROC ; std::_Val_type<ioHashString *>, COMDAT

; 790  : 	return (0);

  00000	33 c0		 xor	 eax, eax

; 791  : 	}

  00002	c3		 ret	 0
??$_Val_type@PAVioHashString@@@std@@YAPAVioHashString@@PAV1@@Z ENDP ; std::_Val_type<ioHashString *>
_TEXT	ENDS
PUBLIC	??0D3DXQUATERNION@@QAE@XZ			; D3DXQUATERNION::D3DXQUATERNION
; Function compile flags: /Ogsp
; File c:\program files (x86)\microsoft directx sdk (june 2010)\include\d3dx9math.h
;	COMDAT ??0D3DXQUATERNION@@QAE@XZ
_TEXT	SEGMENT
??0D3DXQUATERNION@@QAE@XZ PROC				; D3DXQUATERNION::D3DXQUATERNION, COMDAT
; _this$ = ecx

; 429  :     D3DXQUATERNION() {}

  00000	8b c1		 mov	 eax, ecx
  00002	c3		 ret	 0
??0D3DXQUATERNION@@QAE@XZ ENDP				; D3DXQUATERNION::D3DXQUATERNION
_TEXT	ENDS
PUBLIC	??$_Unchecked@PAUChangeDirInfo@@@std@@YAPAUChangeDirInfo@@PAU1@@Z ; std::_Unchecked<ChangeDirInfo *>
; Function compile flags: /Ogsp
; File c:\program files (x86)\microsoft visual studio 10.0\vc\include\xutility
;	COMDAT ??$_Unchecked@PAUChangeDirInfo@@@std@@YAPAUChangeDirInfo@@PAU1@@Z
_TEXT	SEGMENT
__Src$ = 8						; size = 4
??$_Unchecked@PAUChangeDirInfo@@@std@@YAPAUChangeDirInfo@@PAU1@@Z PROC ; std::_Unchecked<ChangeDirInfo *>, COMDAT

; 266  : 	{	// construct unchecked from checked, generic

  00000	55		 push	 ebp
  00001	8b ec		 mov	 ebp, esp

; 267  : 	return (_Src);

  00003	8b 45 08	 mov	 eax, DWORD PTR __Src$[ebp]

; 268  : 	}

  00006	5d		 pop	 ebp
  00007	c3		 ret	 0
??$_Unchecked@PAUChangeDirInfo@@@std@@YAPAUChangeDirInfo@@PAU1@@Z ENDP ; std::_Unchecked<ChangeDirInfo *>
_TEXT	ENDS
PUBLIC	??$_Dist_type@PAUChangeDirInfo@@@std@@YAPAHPAUChangeDirInfo@@@Z ; std::_Dist_type<ChangeDirInfo *>
; Function compile flags: /Ogsp
;	COMDAT ??$_Dist_type@PAUChangeDirInfo@@@std@@YAPAHPAUChangeDirInfo@@@Z
_TEXT	SEGMENT
___formal$ = 8						; size = 4
??$_Dist_type@PAUChangeDirInfo@@@std@@YAPAHPAUChangeDirInfo@@@Z PROC ; std::_Dist_type<ChangeDirInfo *>, COMDAT

; 850  : 	return (0);

  00000	33 c0		 xor	 eax, eax

; 851  : 	}

  00002	c3		 ret	 0
??$_Dist_type@PAUChangeDirInfo@@@std@@YAPAHPAUChangeDirInfo@@@Z ENDP ; std::_Dist_type<ChangeDirInfo *>
_TEXT	ENDS
PUBLIC	??$_Destroy@UChangeDirInfo@@@std@@YAXPAUChangeDirInfo@@@Z ; std::_Destroy<ChangeDirInfo>
; Function compile flags: /Ogsp
; File c:\program files (x86)\microsoft visual studio 10.0\vc\include\xmemory
;	COMDAT ??$_Destroy@UChangeDirInfo@@@std@@YAXPAUChangeDirInfo@@@Z
_TEXT	SEGMENT
__Ptr$ = 8						; size = 4
??$_Destroy@UChangeDirInfo@@@std@@YAXPAUChangeDirInfo@@@Z PROC ; std::_Destroy<ChangeDirInfo>, COMDAT

; 63   : 	_Ptr->~_Ty();
; 64   : 	}

  00000	c3		 ret	 0
??$_Destroy@UChangeDirInfo@@@std@@YAXPAUChangeDirInfo@@@Z ENDP ; std::_Destroy<ChangeDirInfo>
_TEXT	ENDS
PUBLIC	??$forward@AAPAUChangeDirInfo@@@std@@YAAAPAUChangeDirInfo@@AAPAU1@@Z ; std::forward<ChangeDirInfo * &>
; Function compile flags: /Ogsp
; File c:\program files (x86)\microsoft visual studio 10.0\vc\include\utility
;	COMDAT ??$forward@AAPAUChangeDirInfo@@@std@@YAAAPAUChangeDirInfo@@AAPAU1@@Z
_TEXT	SEGMENT
__Arg$ = 8						; size = 4
??$forward@AAPAUChangeDirInfo@@@std@@YAAAPAUChangeDirInfo@@AAPAU1@@Z PROC ; std::forward<ChangeDirInfo * &>, COMDAT

; 78   : 	{	// forward _Arg, given explicitly specified type parameter

  00000	55		 push	 ebp
  00001	8b ec		 mov	 ebp, esp

; 79   : 	return ((_Ty&&)_Arg);

  00003	8b 45 08	 mov	 eax, DWORD PTR __Arg$[ebp]

; 80   : 	}

  00006	5d		 pop	 ebp
  00007	c3		 ret	 0
??$forward@AAPAUChangeDirInfo@@@std@@YAAAPAUChangeDirInfo@@AAPAU1@@Z ENDP ; std::forward<ChangeDirInfo * &>
_TEXT	ENDS
PUBLIC	??$?0AAPAUChangeDirInfo@@AAPAU0@@?$_Pair_base@PAUChangeDirInfo@@PAU1@@std@@QAE@AAPAUChangeDirInfo@@0@Z ; std::_Pair_base<ChangeDirInfo *,ChangeDirInfo *>::_Pair_base<ChangeDirInfo *,ChangeDirInfo *><ChangeDirInfo * &,ChangeDirInfo * &>
; Function compile flags: /Ogsp
;	COMDAT ??$?0AAPAUChangeDirInfo@@AAPAU0@@?$_Pair_base@PAUChangeDirInfo@@PAU1@@std@@QAE@AAPAUChangeDirInfo@@0@Z
_TEXT	SEGMENT
__Val1$ = 8						; size = 4
__Val2$ = 12						; size = 4
??$?0AAPAUChangeDirInfo@@AAPAU0@@?$_Pair_base@PAUChangeDirInfo@@PAU1@@std@@QAE@AAPAUChangeDirInfo@@0@Z PROC ; std::_Pair_base<ChangeDirInfo *,ChangeDirInfo *>::_Pair_base<ChangeDirInfo *,ChangeDirInfo *><ChangeDirInfo * &,ChangeDirInfo * &>, COMDAT
; _this$ = ecx

; 163  : 		{	// construct from moved values

  00000	55		 push	 ebp
  00001	8b ec		 mov	 ebp, esp
  00003	8b c1		 mov	 eax, ecx
  00005	8b 4d 08	 mov	 ecx, DWORD PTR __Val1$[ebp]
  00008	8b 09		 mov	 ecx, DWORD PTR [ecx]
  0000a	89 08		 mov	 DWORD PTR [eax], ecx
  0000c	8b 4d 0c	 mov	 ecx, DWORD PTR __Val2$[ebp]
  0000f	8b 09		 mov	 ecx, DWORD PTR [ecx]
  00011	89 48 04	 mov	 DWORD PTR [eax+4], ecx

; 164  : 		}

  00014	5d		 pop	 ebp
  00015	c2 08 00	 ret	 8
??$?0AAPAUChangeDirInfo@@AAPAU0@@?$_Pair_base@PAUChangeDirInfo@@PAU1@@std@@QAE@AAPAUChangeDirInfo@@0@Z ENDP ; std::_Pair_base<ChangeDirInfo *,ChangeDirInfo *>::_Pair_base<ChangeDirInfo *,ChangeDirInfo *><ChangeDirInfo * &,ChangeDirInfo * &>
_TEXT	ENDS
PUBLIC	??$_Move@AAUChangeDirInfo@@@std@@YA$$QAUChangeDirInfo@@AAU1@@Z ; std::_Move<ChangeDirInfo &>
; Function compile flags: /Ogsp
;	COMDAT ??$_Move@AAUChangeDirInfo@@@std@@YA$$QAUChangeDirInfo@@AAU1@@Z
_TEXT	SEGMENT
__Arg$ = 8						; size = 4
??$_Move@AAUChangeDirInfo@@@std@@YA$$QAUChangeDirInfo@@AAU1@@Z PROC ; std::_Move<ChangeDirInfo &>, COMDAT

; 94   : 	{	// forward _Arg as movable

  00000	55		 push	 ebp
  00001	8b ec		 mov	 ebp, esp

; 95   : 	return ((typename tr1::_Remove_reference<_Ty>::_Type&&)_Arg);

  00003	8b 45 08	 mov	 eax, DWORD PTR __Arg$[ebp]

; 96   : 	}

  00006	5d		 pop	 ebp
  00007	c3		 ret	 0
??$_Move@AAUChangeDirInfo@@@std@@YA$$QAUChangeDirInfo@@AAU1@@Z ENDP ; std::_Move<ChangeDirInfo &>
_TEXT	ENDS
PUBLIC	??$forward@UChangeDirInfo@@@std@@YA$$QAUChangeDirInfo@@AAU1@@Z ; std::forward<ChangeDirInfo>
; Function compile flags: /Ogsp
;	COMDAT ??$forward@UChangeDirInfo@@@std@@YA$$QAUChangeDirInfo@@AAU1@@Z
_TEXT	SEGMENT
__Arg$ = 8						; size = 4
??$forward@UChangeDirInfo@@@std@@YA$$QAUChangeDirInfo@@AAU1@@Z PROC ; std::forward<ChangeDirInfo>, COMDAT

; 78   : 	{	// forward _Arg, given explicitly specified type parameter

  00000	55		 push	 ebp
  00001	8b ec		 mov	 ebp, esp

; 79   : 	return ((_Ty&&)_Arg);

  00003	8b 45 08	 mov	 eax, DWORD PTR __Arg$[ebp]

; 80   : 	}

  00006	5d		 pop	 ebp
  00007	c3		 ret	 0
??$forward@UChangeDirInfo@@@std@@YA$$QAUChangeDirInfo@@AAU1@@Z ENDP ; std::forward<ChangeDirInfo>
_TEXT	ENDS
PUBLIC	??0D3DXVECTOR3@@QAE@MMM@Z			; D3DXVECTOR3::D3DXVECTOR3
; Function compile flags: /Ogsp
; File c:\program files (x86)\microsoft directx sdk (june 2010)\include\d3dx9math.inl
;	COMDAT ??0D3DXVECTOR3@@QAE@MMM@Z
_TEXT	SEGMENT
_fx$ = 8						; size = 4
_fy$ = 12						; size = 4
_fz$ = 16						; size = 4
??0D3DXVECTOR3@@QAE@MMM@Z PROC				; D3DXVECTOR3::D3DXVECTOR3, COMDAT
; _this$ = ecx

; 303  : {

  00000	55		 push	 ebp
  00001	8b ec		 mov	 ebp, esp

; 304  :     x = fx;

  00003	f3 0f 10 45 08	 movss	 xmm0, DWORD PTR _fx$[ebp]
  00008	8b c1		 mov	 eax, ecx
  0000a	f3 0f 11 00	 movss	 DWORD PTR [eax], xmm0

; 305  :     y = fy;

  0000e	f3 0f 10 45 0c	 movss	 xmm0, DWORD PTR _fy$[ebp]
  00013	f3 0f 11 40 04	 movss	 DWORD PTR [eax+4], xmm0

; 306  :     z = fz;

  00018	f3 0f 10 45 10	 movss	 xmm0, DWORD PTR _fz$[ebp]
  0001d	f3 0f 11 40 08	 movss	 DWORD PTR [eax+8], xmm0

; 307  : }

  00022	5d		 pop	 ebp
  00023	c2 0c 00	 ret	 12			; 0000000cH
??0D3DXVECTOR3@@QAE@MMM@Z ENDP				; D3DXVECTOR3::D3DXVECTOR3
_TEXT	ENDS
PUBLIC	??$forward@VioHashString@@@std@@YA$$QAVioHashString@@AAV1@@Z ; std::forward<ioHashString>
; Function compile flags: /Ogsp
; File c:\program files (x86)\microsoft visual studio 10.0\vc\include\utility
;	COMDAT ??$forward@VioHashString@@@std@@YA$$QAVioHashString@@AAV1@@Z
_TEXT	SEGMENT
__Arg$ = 8						; size = 4
??$forward@VioHashString@@@std@@YA$$QAVioHashString@@AAV1@@Z PROC ; std::forward<ioHashString>, COMDAT

; 78   : 	{	// forward _Arg, given explicitly specified type parameter

  00000	55		 push	 ebp
  00001	8b ec		 mov	 ebp, esp

; 79   : 	return ((_Ty&&)_Arg);

  00003	8b 45 08	 mov	 eax, DWORD PTR __Arg$[ebp]

; 80   : 	}

  00006	5d		 pop	 ebp
  00007	c3		 ret	 0
??$forward@VioHashString@@@std@@YA$$QAVioHashString@@AAV1@@Z ENDP ; std::forward<ioHashString>
_TEXT	ENDS
PUBLIC	??$_Move_backward@PAUChangeDirInfo@@PAU1@@std@@YAPAUChangeDirInfo@@PAU1@00U_Nonscalar_ptr_iterator_tag@0@@Z ; std::_Move_backward<ChangeDirInfo *,ChangeDirInfo *>
; Function compile flags: /Ogsp
; File c:\program files (x86)\microsoft visual studio 10.0\vc\include\xutility
;	COMDAT ??$_Move_backward@PAUChangeDirInfo@@PAU1@@std@@YAPAUChangeDirInfo@@PAU1@00U_Nonscalar_ptr_iterator_tag@0@@Z
_TEXT	SEGMENT
__First$ = 8						; size = 4
__Last$ = 12						; size = 4
__Dest$ = 16						; size = 4
___formal$ = 20						; size = 1
??$_Move_backward@PAUChangeDirInfo@@PAU1@@std@@YAPAUChangeDirInfo@@PAU1@00U_Nonscalar_ptr_iterator_tag@0@@Z PROC ; std::_Move_backward<ChangeDirInfo *,ChangeDirInfo *>, COMDAT

; 2617 : 	{	// move [_First, _Last) backwards to [..., _Dest), arbitrary iterators

  00000	55		 push	 ebp
  00001	8b ec		 mov	 ebp, esp

; 2618 : 	while (_First != _Last)

  00003	8b 45 0c	 mov	 eax, DWORD PTR __Last$[ebp]
  00006	39 45 08	 cmp	 DWORD PTR __First$[ebp], eax
  00009	74 1a		 je	 SHORT $LN9@Move_backw
  0000b	56		 push	 esi
  0000c	57		 push	 edi
$LL2@Move_backw:

; 2619 : 		*--_Dest = _STD move(*--_Last);

  0000d	83 6d 10 1c	 sub	 DWORD PTR __Dest$[ebp], 28 ; 0000001cH
  00011	8b 7d 10	 mov	 edi, DWORD PTR __Dest$[ebp]
  00014	83 e8 1c	 sub	 eax, 28			; 0000001cH
  00017	6a 07		 push	 7
  00019	59		 pop	 ecx
  0001a	8b f0		 mov	 esi, eax
  0001c	f3 a5		 rep movsd
  0001e	3b 45 08	 cmp	 eax, DWORD PTR __First$[ebp]
  00021	75 ea		 jne	 SHORT $LL2@Move_backw
  00023	5f		 pop	 edi
  00024	5e		 pop	 esi
$LN9@Move_backw:

; 2620 : 	return (_Dest);

  00025	8b 45 10	 mov	 eax, DWORD PTR __Dest$[ebp]

; 2621 : 	}

  00028	5d		 pop	 ebp
  00029	c3		 ret	 0
??$_Move_backward@PAUChangeDirInfo@@PAU1@@std@@YAPAUChangeDirInfo@@PAU1@00U_Nonscalar_ptr_iterator_tag@0@@Z ENDP ; std::_Move_backward<ChangeDirInfo *,ChangeDirInfo *>
_TEXT	ENDS
PUBLIC	__mask@@NegFloat@
PUBLIC	??GD3DXVECTOR3@@QBE?AU0@XZ			; D3DXVECTOR3::operator-
;	COMDAT __mask@@NegFloat@
; File c:\program files (x86)\microsoft directx sdk (june 2010)\include\d3dx9math.inl
CONST	SEGMENT
__mask@@NegFloat@ DB 00H, 00H, 00H, 080H, 00H, 00H, 00H, 080H, 00H, 00H, 00H
	DB	080H, 00H, 00H, 00H, 080H
; Function compile flags: /Ogsp
CONST	ENDS
;	COMDAT ??GD3DXVECTOR3@@QBE?AU0@XZ
_TEXT	SEGMENT
___$ReturnUdt$ = 8					; size = 4
??GD3DXVECTOR3@@QBE?AU0@XZ PROC				; D3DXVECTOR3::operator-, COMDAT
; _this$ = ecx

; 372  : {

  00000	55		 push	 ebp
  00001	8b ec		 mov	 ebp, esp

; 373  :     return D3DXVECTOR3(-x, -y, -z);

  00003	f3 0f 10 05 00
	00 00 00	 movss	 xmm0, DWORD PTR __mask@@NegFloat@
  0000b	8b 45 08	 mov	 eax, DWORD PTR ___$ReturnUdt$[ebp]
  0000e	f3 0f 10 09	 movss	 xmm1, DWORD PTR [ecx]
  00012	0f 57 c8	 xorps	 xmm1, xmm0
  00015	f3 0f 11 08	 movss	 DWORD PTR [eax], xmm1
  00019	f3 0f 10 49 04	 movss	 xmm1, DWORD PTR [ecx+4]
  0001e	0f 57 c8	 xorps	 xmm1, xmm0
  00021	f3 0f 11 48 04	 movss	 DWORD PTR [eax+4], xmm1
  00026	f3 0f 10 49 08	 movss	 xmm1, DWORD PTR [ecx+8]
  0002b	0f 57 c8	 xorps	 xmm1, xmm0
  0002e	f3 0f 11 48 08	 movss	 DWORD PTR [eax+8], xmm1

; 374  : }

  00033	5d		 pop	 ebp
  00034	c2 04 00	 ret	 4
??GD3DXVECTOR3@@QBE?AU0@XZ ENDP				; D3DXVECTOR3::operator-
_TEXT	ENDS
PUBLIC	??HD3DXVECTOR3@@QBE?AU0@ABU0@@Z			; D3DXVECTOR3::operator+
; Function compile flags: /Ogsp
;	COMDAT ??HD3DXVECTOR3@@QBE?AU0@ABU0@@Z
_TEXT	SEGMENT
___$ReturnUdt$ = 8					; size = 4
_v$ = 12						; size = 4
??HD3DXVECTOR3@@QBE?AU0@ABU0@@Z PROC			; D3DXVECTOR3::operator+, COMDAT
; _this$ = ecx

; 380  : {

  00000	55		 push	 ebp
  00001	8b ec		 mov	 ebp, esp

; 381  :     return D3DXVECTOR3(x + v.x, y + v.y, z + v.z);

  00003	8b 55 0c	 mov	 edx, DWORD PTR _v$[ebp]
  00006	f3 0f 10 02	 movss	 xmm0, DWORD PTR [edx]
  0000a	f3 0f 10 09	 movss	 xmm1, DWORD PTR [ecx]
  0000e	8b 45 08	 mov	 eax, DWORD PTR ___$ReturnUdt$[ebp]
  00011	0f 5a c0	 cvtps2pd xmm0, xmm0
  00014	0f 5a c9	 cvtps2pd xmm1, xmm1
  00017	f2 0f 58 c1	 addsd	 xmm0, xmm1
  0001b	f3 0f 10 49 04	 movss	 xmm1, DWORD PTR [ecx+4]
  00020	66 0f 5a c0	 cvtpd2ps xmm0, xmm0
  00024	f3 0f 11 00	 movss	 DWORD PTR [eax], xmm0
  00028	f3 0f 10 42 04	 movss	 xmm0, DWORD PTR [edx+4]
  0002d	0f 5a c0	 cvtps2pd xmm0, xmm0
  00030	0f 5a c9	 cvtps2pd xmm1, xmm1
  00033	f2 0f 58 c1	 addsd	 xmm0, xmm1
  00037	f3 0f 10 49 08	 movss	 xmm1, DWORD PTR [ecx+8]
  0003c	66 0f 5a c0	 cvtpd2ps xmm0, xmm0
  00040	f3 0f 11 40 04	 movss	 DWORD PTR [eax+4], xmm0
  00045	f3 0f 10 42 08	 movss	 xmm0, DWORD PTR [edx+8]
  0004a	0f 5a c0	 cvtps2pd xmm0, xmm0
  0004d	0f 5a c9	 cvtps2pd xmm1, xmm1
  00050	f2 0f 58 c1	 addsd	 xmm0, xmm1
  00054	66 0f 5a c0	 cvtpd2ps xmm0, xmm0
  00058	f3 0f 11 40 08	 movss	 DWORD PTR [eax+8], xmm0

; 382  : }

  0005d	5d		 pop	 ebp
  0005e	c2 08 00	 ret	 8
??HD3DXVECTOR3@@QBE?AU0@ABU0@@Z ENDP			; D3DXVECTOR3::operator+
_TEXT	ENDS
PUBLIC	??GD3DXVECTOR3@@QBE?AU0@ABU0@@Z			; D3DXVECTOR3::operator-
; Function compile flags: /Ogsp
;	COMDAT ??GD3DXVECTOR3@@QBE?AU0@ABU0@@Z
_TEXT	SEGMENT
___$ReturnUdt$ = 8					; size = 4
_v$ = 12						; size = 4
??GD3DXVECTOR3@@QBE?AU0@ABU0@@Z PROC			; D3DXVECTOR3::operator-, COMDAT
; _this$ = ecx

; 386  : {

  00000	55		 push	 ebp
  00001	8b ec		 mov	 ebp, esp

; 387  :     return D3DXVECTOR3(x - v.x, y - v.y, z - v.z);

  00003	8b 55 0c	 mov	 edx, DWORD PTR _v$[ebp]
  00006	f3 0f 10 01	 movss	 xmm0, DWORD PTR [ecx]
  0000a	f3 0f 10 0a	 movss	 xmm1, DWORD PTR [edx]
  0000e	8b 45 08	 mov	 eax, DWORD PTR ___$ReturnUdt$[ebp]
  00011	0f 5a c0	 cvtps2pd xmm0, xmm0
  00014	0f 5a c9	 cvtps2pd xmm1, xmm1
  00017	f2 0f 5c c1	 subsd	 xmm0, xmm1
  0001b	f3 0f 10 4a 04	 movss	 xmm1, DWORD PTR [edx+4]
  00020	66 0f 5a c0	 cvtpd2ps xmm0, xmm0
  00024	f3 0f 11 00	 movss	 DWORD PTR [eax], xmm0
  00028	f3 0f 10 41 04	 movss	 xmm0, DWORD PTR [ecx+4]
  0002d	0f 5a c0	 cvtps2pd xmm0, xmm0
  00030	0f 5a c9	 cvtps2pd xmm1, xmm1
  00033	f2 0f 5c c1	 subsd	 xmm0, xmm1
  00037	f3 0f 10 4a 08	 movss	 xmm1, DWORD PTR [edx+8]
  0003c	66 0f 5a c0	 cvtpd2ps xmm0, xmm0
  00040	f3 0f 11 40 04	 movss	 DWORD PTR [eax+4], xmm0
  00045	f3 0f 10 41 08	 movss	 xmm0, DWORD PTR [ecx+8]
  0004a	0f 5a c0	 cvtps2pd xmm0, xmm0
  0004d	0f 5a c9	 cvtps2pd xmm1, xmm1
  00050	f2 0f 5c c1	 subsd	 xmm0, xmm1
  00054	66 0f 5a c0	 cvtpd2ps xmm0, xmm0
  00058	f3 0f 11 40 08	 movss	 DWORD PTR [eax+8], xmm0

; 388  : }

  0005d	5d		 pop	 ebp
  0005e	c2 08 00	 ret	 8
??GD3DXVECTOR3@@QBE?AU0@ABU0@@Z ENDP			; D3DXVECTOR3::operator-
_TEXT	ENDS
PUBLIC	??DD3DXVECTOR3@@QBE?AU0@M@Z			; D3DXVECTOR3::operator*
; Function compile flags: /Ogsp
;	COMDAT ??DD3DXVECTOR3@@QBE?AU0@M@Z
_TEXT	SEGMENT
___$ReturnUdt$ = 8					; size = 4
_f$ = 12						; size = 4
??DD3DXVECTOR3@@QBE?AU0@M@Z PROC			; D3DXVECTOR3::operator*, COMDAT
; _this$ = ecx

; 392  : {

  00000	55		 push	 ebp
  00001	8b ec		 mov	 ebp, esp

; 393  :     return D3DXVECTOR3(x * f, y * f, z * f);

  00003	f3 0f 10 4d 0c	 movss	 xmm1, DWORD PTR _f$[ebp]
  00008	f3 0f 10 01	 movss	 xmm0, DWORD PTR [ecx]
  0000c	8b 45 08	 mov	 eax, DWORD PTR ___$ReturnUdt$[ebp]
  0000f	0f 5a c0	 cvtps2pd xmm0, xmm0
  00012	0f 5a c9	 cvtps2pd xmm1, xmm1
  00015	f2 0f 59 c1	 mulsd	 xmm0, xmm1
  00019	f3 0f 10 4d 0c	 movss	 xmm1, DWORD PTR _f$[ebp]
  0001e	66 0f 5a c0	 cvtpd2ps xmm0, xmm0
  00022	f3 0f 11 00	 movss	 DWORD PTR [eax], xmm0
  00026	f3 0f 10 41 04	 movss	 xmm0, DWORD PTR [ecx+4]
  0002b	0f 5a c0	 cvtps2pd xmm0, xmm0
  0002e	0f 5a c9	 cvtps2pd xmm1, xmm1
  00031	f2 0f 59 c1	 mulsd	 xmm0, xmm1
  00035	f3 0f 10 4d 0c	 movss	 xmm1, DWORD PTR _f$[ebp]
  0003a	66 0f 5a c0	 cvtpd2ps xmm0, xmm0
  0003e	f3 0f 11 40 04	 movss	 DWORD PTR [eax+4], xmm0
  00043	f3 0f 10 41 08	 movss	 xmm0, DWORD PTR [ecx+8]
  00048	0f 5a c0	 cvtps2pd xmm0, xmm0
  0004b	0f 5a c9	 cvtps2pd xmm1, xmm1
  0004e	f2 0f 59 c1	 mulsd	 xmm0, xmm1
  00052	66 0f 5a c0	 cvtpd2ps xmm0, xmm0
  00056	f3 0f 11 40 08	 movss	 DWORD PTR [eax+8], xmm0

; 394  : }

  0005b	5d		 pop	 ebp
  0005c	c2 08 00	 ret	 8
??DD3DXVECTOR3@@QBE?AU0@M@Z ENDP			; D3DXVECTOR3::operator*
_TEXT	ENDS
PUBLIC	??9D3DXVECTOR3@@QBEHABU0@@Z			; D3DXVECTOR3::operator!=
; Function compile flags: /Ogsp
;	COMDAT ??9D3DXVECTOR3@@QBEHABU0@@Z
_TEXT	SEGMENT
_v$ = 8							; size = 4
??9D3DXVECTOR3@@QBEHABU0@@Z PROC			; D3DXVECTOR3::operator!=, COMDAT
; _this$ = ecx

; 419  : {

  00000	55		 push	 ebp
  00001	8b ec		 mov	 ebp, esp

; 420  :     return x != v.x || y != v.y || z != v.z;

  00003	8b 55 08	 mov	 edx, DWORD PTR _v$[ebp]
  00006	f3 0f 10 01	 movss	 xmm0, DWORD PTR [ecx]
  0000a	f3 0f 10 0a	 movss	 xmm1, DWORD PTR [edx]
  0000e	0f 5a c0	 cvtps2pd xmm0, xmm0
  00011	0f 5a c9	 cvtps2pd xmm1, xmm1
  00014	66 0f 2e c1	 ucomisd xmm0, xmm1
  00018	9f		 lahf
  00019	f6 c4 44	 test	 ah, 68			; 00000044H
  0001c	7a 38		 jp	 SHORT $LN3@operator
  0001e	f3 0f 10 41 04	 movss	 xmm0, DWORD PTR [ecx+4]
  00023	f3 0f 10 4a 04	 movss	 xmm1, DWORD PTR [edx+4]
  00028	0f 5a c0	 cvtps2pd xmm0, xmm0
  0002b	0f 5a c9	 cvtps2pd xmm1, xmm1
  0002e	66 0f 2e c1	 ucomisd xmm0, xmm1
  00032	9f		 lahf
  00033	f6 c4 44	 test	 ah, 68			; 00000044H
  00036	7a 1e		 jp	 SHORT $LN3@operator
  00038	f3 0f 10 41 08	 movss	 xmm0, DWORD PTR [ecx+8]
  0003d	f3 0f 10 4a 08	 movss	 xmm1, DWORD PTR [edx+8]
  00042	0f 5a c0	 cvtps2pd xmm0, xmm0
  00045	0f 5a c9	 cvtps2pd xmm1, xmm1
  00048	66 0f 2e c1	 ucomisd xmm0, xmm1
  0004c	9f		 lahf
  0004d	f6 c4 44	 test	 ah, 68			; 00000044H
  00050	7a 04		 jp	 SHORT $LN3@operator
  00052	33 c0		 xor	 eax, eax
  00054	eb 03		 jmp	 SHORT $LN4@operator
$LN3@operator:
  00056	33 c0		 xor	 eax, eax
  00058	40		 inc	 eax
$LN4@operator:

; 421  : }

  00059	5d		 pop	 ebp
  0005a	c2 04 00	 ret	 4
??9D3DXVECTOR3@@QBEHABU0@@Z ENDP			; D3DXVECTOR3::operator!=
_TEXT	ENDS
PUBLIC	?D3DXVec3Length@@YAMPBUD3DXVECTOR3@@@Z		; D3DXVec3Length
; Function compile flags: /Ogsp
;	COMDAT ?D3DXVec3Length@@YAMPBUD3DXVECTOR3@@@Z
_TEXT	SEGMENT
tv169 = 8						; size = 4
tv160 = 8						; size = 4
_pV$ = 8						; size = 4
?D3DXVec3Length@@YAMPBUD3DXVECTOR3@@@Z PROC		; D3DXVec3Length, COMDAT

; 1710 : {

  00000	55		 push	 ebp
  00001	8b ec		 mov	 ebp, esp

; 1711 : #ifdef D3DX_DEBUG
; 1712 :     if(!pV)
; 1713 :         return 0.0f;
; 1714 : #endif
; 1715 : 
; 1716 : #ifdef __cplusplus
; 1717 :     return sqrtf(pV->x * pV->x + pV->y * pV->y + pV->z * pV->z);

  00003	8b 45 08	 mov	 eax, DWORD PTR _pV$[ebp]
  00006	d9 40 04	 fld	 DWORD PTR [eax+4]
  00009	d9 00		 fld	 DWORD PTR [eax]
  0000b	d9 40 08	 fld	 DWORD PTR [eax+8]
  0000e	d9 c1		 fld	 ST(1)
  00010	de ca		 fmulp	 ST(2), ST(0)
  00012	d9 c2		 fld	 ST(2)
  00014	de cb		 fmulp	 ST(3), ST(0)
  00016	d9 c9		 fxch	 ST(1)
  00018	de c2		 faddp	 ST(2), ST(0)
  0001a	d9 c0		 fld	 ST(0)
  0001c	de c9		 fmulp	 ST(1), ST(0)
  0001e	de c1		 faddp	 ST(1), ST(0)
  00020	d9 5d 08	 fstp	 DWORD PTR tv169[ebp]
  00023	d9 45 08	 fld	 DWORD PTR tv169[ebp]
  00026	e8 00 00 00 00	 call	 __CIsqrt
  0002b	d9 5d 08	 fstp	 DWORD PTR tv160[ebp]
  0002e	d9 45 08	 fld	 DWORD PTR tv160[ebp]

; 1718 : #else
; 1719 :     return (FLOAT) sqrt(pV->x * pV->x + pV->y * pV->y + pV->z * pV->z);
; 1720 : #endif
; 1721 : }

  00031	5d		 pop	 ebp
  00032	c3		 ret	 0
?D3DXVec3Length@@YAMPBUD3DXVECTOR3@@@Z ENDP		; D3DXVec3Length
_TEXT	ENDS
PUBLIC	?D3DXVec3LengthSq@@YAMPBUD3DXVECTOR3@@@Z	; D3DXVec3LengthSq
; Function compile flags: /Ogsp
;	COMDAT ?D3DXVec3LengthSq@@YAMPBUD3DXVECTOR3@@@Z
_TEXT	SEGMENT
tv165 = 8						; size = 4
_pV$ = 8						; size = 4
?D3DXVec3LengthSq@@YAMPBUD3DXVECTOR3@@@Z PROC		; D3DXVec3LengthSq, COMDAT

; 1725 : {

  00000	55		 push	 ebp
  00001	8b ec		 mov	 ebp, esp

; 1726 : #ifdef D3DX_DEBUG
; 1727 :     if(!pV)
; 1728 :         return 0.0f;
; 1729 : #endif
; 1730 : 
; 1731 :     return pV->x * pV->x + pV->y * pV->y + pV->z * pV->z;

  00003	8b 45 08	 mov	 eax, DWORD PTR _pV$[ebp]
  00006	d9 40 04	 fld	 DWORD PTR [eax+4]
  00009	d9 00		 fld	 DWORD PTR [eax]
  0000b	d9 40 08	 fld	 DWORD PTR [eax+8]
  0000e	d9 c1		 fld	 ST(1)
  00010	de ca		 fmulp	 ST(2), ST(0)
  00012	d9 c2		 fld	 ST(2)
  00014	de cb		 fmulp	 ST(3), ST(0)
  00016	d9 c9		 fxch	 ST(1)
  00018	de c2		 faddp	 ST(2), ST(0)
  0001a	d9 c0		 fld	 ST(0)
  0001c	de c9		 fmulp	 ST(1), ST(0)
  0001e	de c1		 faddp	 ST(1), ST(0)
  00020	d9 5d 08	 fstp	 DWORD PTR tv165[ebp]
  00023	d9 45 08	 fld	 DWORD PTR tv165[ebp]

; 1732 : }

  00026	5d		 pop	 ebp
  00027	c3		 ret	 0
?D3DXVec3LengthSq@@YAMPBUD3DXVECTOR3@@@Z ENDP		; D3DXVec3LengthSq
_TEXT	ENDS
PUBLIC	?D3DXVec3Dot@@YAMPBUD3DXVECTOR3@@0@Z		; D3DXVec3Dot
; Function compile flags: /Ogsp
;	COMDAT ?D3DXVec3Dot@@YAMPBUD3DXVECTOR3@@0@Z
_TEXT	SEGMENT
tv188 = 8						; size = 4
_pV1$ = 8						; size = 4
_pV2$ = 12						; size = 4
?D3DXVec3Dot@@YAMPBUD3DXVECTOR3@@0@Z PROC		; D3DXVec3Dot, COMDAT

; 1736 : {

  00000	55		 push	 ebp
  00001	8b ec		 mov	 ebp, esp

; 1737 : #ifdef D3DX_DEBUG
; 1738 :     if(!pV1 || !pV2)
; 1739 :         return 0.0f;
; 1740 : #endif
; 1741 : 
; 1742 :     return pV1->x * pV2->x + pV1->y * pV2->y + pV1->z * pV2->z;

  00003	8b 45 08	 mov	 eax, DWORD PTR _pV1$[ebp]
  00006	8b 4d 0c	 mov	 ecx, DWORD PTR _pV2$[ebp]
  00009	d9 40 04	 fld	 DWORD PTR [eax+4]
  0000c	d8 49 04	 fmul	 DWORD PTR [ecx+4]
  0000f	d9 00		 fld	 DWORD PTR [eax]
  00011	d8 09		 fmul	 DWORD PTR [ecx]
  00013	de c1		 faddp	 ST(1), ST(0)
  00015	d9 40 08	 fld	 DWORD PTR [eax+8]
  00018	d8 49 08	 fmul	 DWORD PTR [ecx+8]
  0001b	de c1		 faddp	 ST(1), ST(0)
  0001d	d9 5d 08	 fstp	 DWORD PTR tv188[ebp]
  00020	d9 45 08	 fld	 DWORD PTR tv188[ebp]

; 1743 : }

  00023	5d		 pop	 ebp
  00024	c3		 ret	 0
?D3DXVec3Dot@@YAMPBUD3DXVECTOR3@@0@Z ENDP		; D3DXVec3Dot
_TEXT	ENDS
PUBLIC	?D3DXVec3Cross@@YAPAUD3DXVECTOR3@@PAU1@PBU1@1@Z	; D3DXVec3Cross
; Function compile flags: /Ogsp
;	COMDAT ?D3DXVec3Cross@@YAPAUD3DXVECTOR3@@PAU1@PBU1@1@Z
_TEXT	SEGMENT
_v$ = -12						; size = 12
_pOut$ = 8						; size = 4
_pV1$ = 12						; size = 4
_pV2$ = 16						; size = 4
?D3DXVec3Cross@@YAPAUD3DXVECTOR3@@PAU1@PBU1@1@Z PROC	; D3DXVec3Cross, COMDAT

; 1747 : {

  00000	55		 push	 ebp
  00001	8b ec		 mov	 ebp, esp
  00003	83 ec 0c	 sub	 esp, 12			; 0000000cH

; 1757 :     v.z = pV1->x * pV2->y - pV1->y * pV2->x;
; 1758 : 
; 1759 :     *pOut = v;

  00006	56		 push	 esi
  00007	57		 push	 edi

; 1748 :     D3DXVECTOR3 v;
; 1749 : 
; 1750 : #ifdef D3DX_DEBUG
; 1751 :     if(!pOut || !pV1 || !pV2)
; 1752 :         return NULL;
; 1753 : #endif
; 1754 : 
; 1755 :     v.x = pV1->y * pV2->z - pV1->z * pV2->y;

  00008	8b 45 0c	 mov	 eax, DWORD PTR _pV1$[ebp]
  0000b	f3 0f 10 40 04	 movss	 xmm0, DWORD PTR [eax+4]
  00010	f3 0f 10 50 08	 movss	 xmm2, DWORD PTR [eax+8]
  00015	8b 4d 10	 mov	 ecx, DWORD PTR _pV2$[ebp]
  00018	f3 0f 10 49 08	 movss	 xmm1, DWORD PTR [ecx+8]
  0001d	f3 0f 10 59 04	 movss	 xmm3, DWORD PTR [ecx+4]
  00022	0f 5a e8	 cvtps2pd xmm5, xmm0
  00025	0f 5a e1	 cvtps2pd xmm4, xmm1
  00028	0f 5a f2	 cvtps2pd xmm6, xmm2
  0002b	f2 0f 59 e5	 mulsd	 xmm4, xmm5

; 1756 :     v.y = pV1->z * pV2->x - pV1->x * pV2->z;

  0002f	0f 5a d2	 cvtps2pd xmm2, xmm2
  00032	0f 5a c9	 cvtps2pd xmm1, xmm1
  00035	0f 5a eb	 cvtps2pd xmm5, xmm3
  00038	f2 0f 59 ee	 mulsd	 xmm5, xmm6
  0003c	f2 0f 5c e5	 subsd	 xmm4, xmm5
  00040	f3 0f 10 28	 movss	 xmm5, DWORD PTR [eax]

; 1757 :     v.z = pV1->x * pV2->y - pV1->y * pV2->x;
; 1758 : 
; 1759 :     *pOut = v;

  00044	8b 45 08	 mov	 eax, DWORD PTR _pOut$[ebp]
  00047	66 0f 5a e4	 cvtpd2ps xmm4, xmm4
  0004b	f3 0f 11 65 f4	 movss	 DWORD PTR _v$[ebp], xmm4
  00050	f3 0f 10 21	 movss	 xmm4, DWORD PTR [ecx]
  00054	0f 5a f4	 cvtps2pd xmm6, xmm4
  00057	f2 0f 59 f2	 mulsd	 xmm6, xmm2
  0005b	0f 5a d5	 cvtps2pd xmm2, xmm5
  0005e	f2 0f 59 d1	 mulsd	 xmm2, xmm1
  00062	f2 0f 5c f2	 subsd	 xmm6, xmm2
  00066	66 0f 5a ce	 cvtpd2ps xmm1, xmm6
  0006a	f3 0f 11 4d f8	 movss	 DWORD PTR _v$[ebp+4], xmm1
  0006f	0f 5a c0	 cvtps2pd xmm0, xmm0
  00072	0f 5a d3	 cvtps2pd xmm2, xmm3
  00075	0f 5a cd	 cvtps2pd xmm1, xmm5
  00078	f2 0f 59 ca	 mulsd	 xmm1, xmm2
  0007c	8d 75 f4	 lea	 esi, DWORD PTR _v$[ebp]
  0007f	8b f8		 mov	 edi, eax
  00081	0f 5a d4	 cvtps2pd xmm2, xmm4
  00084	f2 0f 59 d0	 mulsd	 xmm2, xmm0
  00088	f2 0f 5c ca	 subsd	 xmm1, xmm2
  0008c	66 0f 5a c1	 cvtpd2ps xmm0, xmm1
  00090	f3 0f 11 45 fc	 movss	 DWORD PTR _v$[ebp+8], xmm0
  00095	a5		 movsd
  00096	a5		 movsd
  00097	a5		 movsd
  00098	5f		 pop	 edi
  00099	5e		 pop	 esi

; 1760 :     return pOut;
; 1761 : }

  0009a	c9		 leave
  0009b	c3		 ret	 0
?D3DXVec3Cross@@YAPAUD3DXVECTOR3@@PAU1@PBU1@1@Z ENDP	; D3DXVec3Cross
_TEXT	ENDS
PUBLIC	?_DECSTR@@YAXPADH@Z				; _DECSTR
; Function compile flags: /Ogsp
; File d:\lost saga for developer\youtube\tutorial\source\src\lsclient\stringprotect.h
;	COMDAT ?_DECSTR@@YAXPADH@Z
_TEXT	SEGMENT
_s$ = 8							; size = 4
_l$ = 12						; size = 4
?_DECSTR@@YAXPADH@Z PROC				; _DECSTR, COMDAT

; 40   : __forceinline void _DECSTR(char* s, int l){int i=0,l4=(l-1)/4,*p=(int*)s;s[l-1]=0;for(;i<l4;++i)*(p++)^=0xEAEBECED;for(i=l4*4;i<l-1;++i)s[i]^=0xED-i%4;}

  00000	55		 push	 ebp
  00001	8b ec		 mov	 ebp, esp
  00003	8b 4d 0c	 mov	 ecx, DWORD PTR _l$[ebp]
  00006	56		 push	 esi
  00007	8b 75 08	 mov	 esi, DWORD PTR _s$[ebp]
  0000a	57		 push	 edi
  0000b	8d 79 ff	 lea	 edi, DWORD PTR [ecx-1]
  0000e	8b c7		 mov	 eax, edi
  00010	99		 cdq
  00011	83 e2 03	 and	 edx, 3
  00014	03 c2		 add	 eax, edx
  00016	c1 f8 02	 sar	 eax, 2
  00019	8b d6		 mov	 edx, esi
  0001b	c6 44 0e ff 00	 mov	 BYTE PTR [esi+ecx-1], 0
  00020	85 c0		 test	 eax, eax
  00022	7e 0e		 jle	 SHORT $LN4@DECSTR
  00024	8b c8		 mov	 ecx, eax
$LL6@DECSTR:
  00026	81 32 ed ec eb
	ea		 xor	 DWORD PTR [edx], -353637139 ; eaebecedH
  0002c	83 c2 04	 add	 edx, 4
  0002f	49		 dec	 ecx
  00030	75 f4		 jne	 SHORT $LL6@DECSTR
$LN4@DECSTR:
  00032	c1 e0 02	 shl	 eax, 2
  00035	eb 17		 jmp	 SHORT $LN14@DECSTR
$LL3@DECSTR:
  00037	8b c8		 mov	 ecx, eax
  00039	81 e1 03 00 00
	80		 and	 ecx, -2147483645	; 80000003H
  0003f	79 05		 jns	 SHORT $LN13@DECSTR
  00041	49		 dec	 ecx
  00042	83 c9 fc	 or	 ecx, -4			; fffffffcH
  00045	41		 inc	 ecx
$LN13@DECSTR:
  00046	b2 ed		 mov	 dl, -19			; ffffffedH
  00048	2a d1		 sub	 dl, cl
  0004a	30 14 30	 xor	 BYTE PTR [eax+esi], dl
  0004d	40		 inc	 eax
$LN14@DECSTR:
  0004e	3b c7		 cmp	 eax, edi
  00050	7c e5		 jl	 SHORT $LL3@DECSTR
  00052	5f		 pop	 edi
  00053	5e		 pop	 esi
  00054	5d		 pop	 ebp
  00055	c3		 ret	 0
?_DECSTR@@YAXPADH@Z ENDP				; _DECSTR
_TEXT	ENDS
PUBLIC	?return57@@YAIXZ				; return57
; Function compile flags: /Ogsp
; File d:\lost saga for developer\youtube\tutorial\source\src\lsclient\veryoftenusedefine.h
;	COMDAT ?return57@@YAIXZ
_TEXT	SEGMENT
?return57@@YAIXZ PROC					; return57, COMDAT

; 15   : __forceinline unsigned int return57() { __asm mov eax, 57 };

  00000	b8 39 00 00 00	 mov	 eax, 57			; 00000039H
  00005	c3		 ret	 0
?return57@@YAIXZ ENDP					; return57
_TEXT	ENDS
PUBLIC	?GetGroup@ioGameEntity@@QBEPAVioEntityGroup@@XZ	; ioGameEntity::GetGroup
; Function compile flags: /Ogsp
; File d:\lost saga for developer\youtube\tutorial\source\src\lsclient\iogameentity.h
;	COMDAT ?GetGroup@ioGameEntity@@QBEPAVioEntityGroup@@XZ
_TEXT	SEGMENT
?GetGroup@ioGameEntity@@QBEPAVioEntityGroup@@XZ PROC	; ioGameEntity::GetGroup, COMDAT
; _this$ = ecx

; 166  : 	inline ioEntityGroup* GetGroup() const { return m_pGroup; }

  00000	8b 41 04	 mov	 eax, DWORD PTR [ecx+4]
  00003	c3		 ret	 0
?GetGroup@ioGameEntity@@QBEPAVioEntityGroup@@XZ ENDP	; ioGameEntity::GetGroup
_TEXT	ENDS
PUBLIC	??_R0?AVioGameEntity@@@8			; ioGameEntity `RTTI Type Descriptor'
PUBLIC	??_R0?AVioPlayEntity@@@8			; ioPlayEntity `RTTI Type Descriptor'
PUBLIC	?ToPlayEntity@@YAPAVioPlayEntity@@PAVioGameEntity@@@Z ; ToPlayEntity
EXTRN	___RTDynamicCast:PROC
;	COMDAT ??_R0?AVioGameEntity@@@8
; File d:\lost saga for developer\youtube\tutorial\source\src\lsclient\ioplayentity.h
_DATA	SEGMENT
??_R0?AVioGameEntity@@@8 DD FLAT:??_7type_info@@6B@	; ioGameEntity `RTTI Type Descriptor'
	DD	00H
	DB	'.?AVioGameEntity@@', 00H
_DATA	ENDS
;	COMDAT ??_R0?AVioPlayEntity@@@8
_DATA	SEGMENT
??_R0?AVioPlayEntity@@@8 DD FLAT:??_7type_info@@6B@	; ioPlayEntity `RTTI Type Descriptor'
	DD	00H
	DB	'.?AVioPlayEntity@@', 00H
; Function compile flags: /Ogsp
_DATA	ENDS
;	COMDAT ?ToPlayEntity@@YAPAVioPlayEntity@@PAVioGameEntity@@@Z
_TEXT	SEGMENT
_pObj$ = 8						; size = 4
?ToPlayEntity@@YAPAVioPlayEntity@@PAVioGameEntity@@@Z PROC ; ToPlayEntity, COMDAT

; 121  : {

  00000	55		 push	 ebp
  00001	8b ec		 mov	 ebp, esp
  00003	56		 push	 esi

; 122  : 	if( !pObj || pObj->GetTypeID() != ioGameEntity::GET_PLAY_ENTITY )

  00004	8b 75 08	 mov	 esi, DWORD PTR _pObj$[ebp]
  00007	85 f6		 test	 esi, esi
  00009	74 25		 je	 SHORT $LN1@ToPlayEnti
  0000b	8b 06		 mov	 eax, DWORD PTR [esi]
  0000d	8b ce		 mov	 ecx, esi
  0000f	ff 50 10	 call	 DWORD PTR [eax+16]
  00012	83 f8 01	 cmp	 eax, 1
  00015	75 19		 jne	 SHORT $LN1@ToPlayEnti

; 124  : 
; 125  : 	return dynamic_cast< ioPlayEntity* >( pObj );

  00017	6a 00		 push	 0
  00019	68 00 00 00 00	 push	 OFFSET ??_R0?AVioPlayEntity@@@8
  0001e	68 00 00 00 00	 push	 OFFSET ??_R0?AVioGameEntity@@@8
  00023	6a 00		 push	 0
  00025	56		 push	 esi
  00026	e8 00 00 00 00	 call	 ___RTDynamicCast
  0002b	83 c4 14	 add	 esp, 20			; 00000014H
  0002e	eb 02		 jmp	 SHORT $LN3@ToPlayEnti
$LN1@ToPlayEnti:

; 123  : 		return NULL;

  00030	33 c0		 xor	 eax, eax
$LN3@ToPlayEnti:
  00032	5e		 pop	 esi

; 126  : }

  00033	5d		 pop	 ebp
  00034	c3		 ret	 0
?ToPlayEntity@@YAPAVioPlayEntity@@PAVioGameEntity@@@Z ENDP ; ToPlayEntity
_TEXT	ENDS
PUBLIC	??0ChangeDirInfo@@QAE@XZ			; ChangeDirInfo::ChangeDirInfo
EXTRN	__imp_?VEC3_ZERO@ioMath@@2UD3DXVECTOR3@@A:BYTE
; Function compile flags: /Ogsp
; File d:\lost saga for developer\youtube\tutorial\source\src\lsclient\ioweapon.h
;	COMDAT ??0ChangeDirInfo@@QAE@XZ
_TEXT	SEGMENT
??0ChangeDirInfo@@QAE@XZ PROC				; ChangeDirInfo::ChangeDirInfo, COMDAT
; _this$ = ecx

; 34   : 	{
; 35   : 		m_fChangeRange	= 0.0f;

  00000	0f 57 c0	 xorps	 xmm0, xmm0
  00003	56		 push	 esi
  00004	8b c1		 mov	 eax, ecx
  00006	57		 push	 edi
  00007	f3 0f 11 00	 movss	 DWORD PTR [eax], xmm0

; 36   : 		m_fChangeSpeed	= 0.0f;

  0000b	f3 0f 11 40 04	 movss	 DWORD PTR [eax+4], xmm0

; 37   : 		m_fChangeAngleH	= 0.0f;

  00010	f3 0f 11 40 08	 movss	 DWORD PTR [eax+8], xmm0

; 38   : 		m_fChangeAngleV	= 0.0f;

  00015	f3 0f 11 40 0c	 movss	 DWORD PTR [eax+12], xmm0

; 39   : 		m_vFireOffset	= ioMath::VEC3_ZERO;

  0001a	8b 35 00 00 00
	00		 mov	 esi, DWORD PTR __imp_?VEC3_ZERO@ioMath@@2UD3DXVECTOR3@@A
  00020	8d 78 10	 lea	 edi, DWORD PTR [eax+16]
  00023	a5		 movsd
  00024	a5		 movsd
  00025	a5		 movsd
  00026	5f		 pop	 edi
  00027	5e		 pop	 esi

; 40   : 	}

  00028	c3		 ret	 0
??0ChangeDirInfo@@QAE@XZ ENDP				; ChangeDirInfo::ChangeDirInfo
_TEXT	ENDS
PUBLIC	??RChangeDirSort@@QBE_NABUChangeDirInfo@@0@Z	; ChangeDirSort::operator()
; Function compile flags: /Ogsp
;	COMDAT ??RChangeDirSort@@QBE_NABUChangeDirInfo@@0@Z
_TEXT	SEGMENT
_lhs$ = 8						; size = 4
_rhs$ = 12						; size = 4
??RChangeDirSort@@QBE_NABUChangeDirInfo@@0@Z PROC	; ChangeDirSort::operator(), COMDAT
; _this$ = ecx

; 49   : 	{

  00000	55		 push	 ebp
  00001	8b ec		 mov	 ebp, esp

; 50   : 		if( lhs.m_fChangeRange < rhs.m_fChangeRange )

  00003	8b 4d 08	 mov	 ecx, DWORD PTR _lhs$[ebp]
  00006	8b 55 0c	 mov	 edx, DWORD PTR _rhs$[ebp]
  00009	f3 0f 10 01	 movss	 xmm0, DWORD PTR [ecx]
  0000d	f3 0f 10 0a	 movss	 xmm1, DWORD PTR [edx]
  00011	0f 5a d0	 cvtps2pd xmm2, xmm0
  00014	0f 5a d9	 cvtps2pd xmm3, xmm1
  00017	66 0f 2f da	 comisd	 xmm3, xmm2
  0001b	76 04		 jbe	 SHORT $LN4@operator@2
$LN7@operator@2:

; 51   : 		{
; 52   : 			return true;

  0001d	b0 01		 mov	 al, 1
  0001f	eb 28		 jmp	 SHORT $LN5@operator@2
$LN4@operator@2:

; 53   : 		}
; 54   : 		else if( lhs.m_fChangeRange == rhs.m_fChangeRange )

  00021	0f 5a c0	 cvtps2pd xmm0, xmm0
  00024	0f 5a c9	 cvtps2pd xmm1, xmm1
  00027	66 0f 2e c1	 ucomisd xmm0, xmm1
  0002b	9f		 lahf
  0002c	f6 c4 44	 test	 ah, 68			; 00000044H
  0002f	7a 16		 jp	 SHORT $LN1@operator@2

; 55   : 		{
; 56   : 			if( lhs.m_fChangeAngleV < rhs.m_fChangeAngleV )

  00031	f3 0f 10 41 0c	 movss	 xmm0, DWORD PTR [ecx+12]
  00036	f3 0f 10 4a 0c	 movss	 xmm1, DWORD PTR [edx+12]
  0003b	0f 5a c0	 cvtps2pd xmm0, xmm0
  0003e	0f 5a c9	 cvtps2pd xmm1, xmm1
  00041	66 0f 2f c8	 comisd	 xmm1, xmm0

; 57   : 				return true;

  00045	77 d6		 ja	 SHORT $LN7@operator@2
$LN1@operator@2:

; 58   : 		}
; 59   : 		return false;

  00047	32 c0		 xor	 al, al
$LN5@operator@2:

; 60   : 	}

  00049	5d		 pop	 ebp
  0004a	c2 08 00	 ret	 8
??RChangeDirSort@@QBE_NABUChangeDirInfo@@0@Z ENDP	; ChangeDirSort::operator()
_TEXT	ENDS
PUBLIC	?GetParentSceneNode@ioWeapon@@QBEPAVioSceneNode@@XZ ; ioWeapon::GetParentSceneNode
; Function compile flags: /Ogsp
;	COMDAT ?GetParentSceneNode@ioWeapon@@QBEPAVioSceneNode@@XZ
_TEXT	SEGMENT
?GetParentSceneNode@ioWeapon@@QBEPAVioSceneNode@@XZ PROC ; ioWeapon::GetParentSceneNode, COMDAT
; _this$ = ecx

; 797  : 	ioSceneNode* GetParentSceneNode() const { return m_pSceneNode; }

  00000	8b 41 04	 mov	 eax, DWORD PTR [ecx+4]
  00003	c3		 ret	 0
?GetParentSceneNode@ioWeapon@@QBEPAVioSceneNode@@XZ ENDP ; ioWeapon::GetParentSceneNode
_TEXT	ENDS
PUBLIC	?size@?$vector@VioHashString@@V?$allocator@VioHashString@@@std@@@std@@QBEIXZ ; std::vector<ioHashString,std::allocator<ioHashString> >::size
; Function compile flags: /Ogsp
; File c:\program files (x86)\microsoft visual studio 10.0\vc\include\vector
;	COMDAT ?size@?$vector@VioHashString@@V?$allocator@VioHashString@@@std@@@std@@QBEIXZ
_TEXT	SEGMENT
?size@?$vector@VioHashString@@V?$allocator@VioHashString@@@std@@@std@@QBEIXZ PROC ; std::vector<ioHashString,std::allocator<ioHashString> >::size, COMDAT
; _this$ = ecx

; 879  : 		return (this->_Mylast - this->_Myfirst);

  00000	8b 41 04	 mov	 eax, DWORD PTR [ecx+4]
  00003	2b 01		 sub	 eax, DWORD PTR [ecx]
  00005	c1 f8 04	 sar	 eax, 4

; 880  : 		}

  00008	c3		 ret	 0
?size@?$vector@VioHashString@@V?$allocator@VioHashString@@@std@@@std@@QBEIXZ ENDP ; std::vector<ioHashString,std::allocator<ioHashString> >::size
_TEXT	ENDS
PUBLIC	??_7?$CEncrypt@M@@6B@				; CEncrypt<float>::`vftable'
PUBLIC	??1?$CEncrypt@M@@UAE@XZ				; CEncrypt<float>::~CEncrypt<float>
PUBLIC	??_R4?$CEncrypt@M@@6B@				; CEncrypt<float>::`RTTI Complete Object Locator'
PUBLIC	??_R0?AV?$CEncrypt@M@@@8			; CEncrypt<float> `RTTI Type Descriptor'
PUBLIC	??_R3?$CEncrypt@M@@8				; CEncrypt<float>::`RTTI Class Hierarchy Descriptor'
PUBLIC	??_R2?$CEncrypt@M@@8				; CEncrypt<float>::`RTTI Base Class Array'
PUBLIC	??_R1A@?0A@EA@?$CEncrypt@M@@8			; CEncrypt<float>::`RTTI Base Class Descriptor at (0,-1,0,64)'
EXTRN	??1ccddaabb@@UAE@XZ:PROC			; ccddaabb::~ccddaabb
EXTRN	??_E?$CEncrypt@M@@UAEPAXI@Z:PROC		; CEncrypt<float>::`vector deleting destructor'
;	COMDAT ??_R1A@?0A@EA@?$CEncrypt@M@@8
; File d:\lost saga for developer\youtube\tutorial\source\src\lsclient\encryptvalue.h
rdata$r	SEGMENT
??_R1A@?0A@EA@?$CEncrypt@M@@8 DD FLAT:??_R0?AV?$CEncrypt@M@@@8 ; CEncrypt<float>::`RTTI Base Class Descriptor at (0,-1,0,64)'
	DD	00H
	DD	00H
	DD	0ffffffffH
	DD	00H
	DD	040H
	DD	FLAT:??_R3?$CEncrypt@M@@8
rdata$r	ENDS
;	COMDAT ??_R2?$CEncrypt@M@@8
rdata$r	SEGMENT
??_R2?$CEncrypt@M@@8 DD FLAT:??_R1A@?0A@EA@?$CEncrypt@M@@8 ; CEncrypt<float>::`RTTI Base Class Array'
rdata$r	ENDS
;	COMDAT ??_R3?$CEncrypt@M@@8
rdata$r	SEGMENT
??_R3?$CEncrypt@M@@8 DD 00H				; CEncrypt<float>::`RTTI Class Hierarchy Descriptor'
	DD	00H
	DD	01H
	DD	FLAT:??_R2?$CEncrypt@M@@8
rdata$r	ENDS
;	COMDAT ??_R0?AV?$CEncrypt@M@@@8
_DATA	SEGMENT
??_R0?AV?$CEncrypt@M@@@8 DD FLAT:??_7type_info@@6B@	; CEncrypt<float> `RTTI Type Descriptor'
	DD	00H
	DB	'.?AV?$CEncrypt@M@@', 00H
_DATA	ENDS
;	COMDAT ??_R4?$CEncrypt@M@@6B@
rdata$r	SEGMENT
??_R4?$CEncrypt@M@@6B@ DD 00H				; CEncrypt<float>::`RTTI Complete Object Locator'
	DD	00H
	DD	00H
	DD	FLAT:??_R0?AV?$CEncrypt@M@@@8
	DD	FLAT:??_R3?$CEncrypt@M@@8
rdata$r	ENDS
;	COMDAT ??_7?$CEncrypt@M@@6B@
CONST	SEGMENT
??_7?$CEncrypt@M@@6B@ DD FLAT:??_R4?$CEncrypt@M@@6B@	; CEncrypt<float>::`vftable'
	DD	FLAT:??_E?$CEncrypt@M@@UAEPAXI@Z
; Function compile flags: /Ogsp
CONST	ENDS
;	COMDAT ??1?$CEncrypt@M@@UAE@XZ
_TEXT	SEGMENT
??1?$CEncrypt@M@@UAE@XZ PROC				; CEncrypt<float>::~CEncrypt<float>, COMDAT
; _this$ = ecx

; 127  : 	{

  00000	c7 01 00 00 00
	00		 mov	 DWORD PTR [ecx], OFFSET ??_7?$CEncrypt@M@@6B@

; 128  : 	}

  00006	83 c1 0c	 add	 ecx, 12			; 0000000cH
  00009	e9 00 00 00 00	 jmp	 ??1ccddaabb@@UAE@XZ	; ccddaabb::~ccddaabb
??1?$CEncrypt@M@@UAE@XZ ENDP				; CEncrypt<float>::~CEncrypt<float>
_TEXT	ENDS
PUBLIC	??_7?$CEncrypt@K@@6B@				; CEncrypt<unsigned long>::`vftable'
PUBLIC	??1?$CEncrypt@K@@UAE@XZ				; CEncrypt<unsigned long>::~CEncrypt<unsigned long>
PUBLIC	??_R4?$CEncrypt@K@@6B@				; CEncrypt<unsigned long>::`RTTI Complete Object Locator'
PUBLIC	??_R0?AV?$CEncrypt@K@@@8			; CEncrypt<unsigned long> `RTTI Type Descriptor'
PUBLIC	??_R3?$CEncrypt@K@@8				; CEncrypt<unsigned long>::`RTTI Class Hierarchy Descriptor'
PUBLIC	??_R2?$CEncrypt@K@@8				; CEncrypt<unsigned long>::`RTTI Base Class Array'
PUBLIC	??_R1A@?0A@EA@?$CEncrypt@K@@8			; CEncrypt<unsigned long>::`RTTI Base Class Descriptor at (0,-1,0,64)'
EXTRN	??_E?$CEncrypt@K@@UAEPAXI@Z:PROC		; CEncrypt<unsigned long>::`vector deleting destructor'
;	COMDAT ??_R1A@?0A@EA@?$CEncrypt@K@@8
rdata$r	SEGMENT
??_R1A@?0A@EA@?$CEncrypt@K@@8 DD FLAT:??_R0?AV?$CEncrypt@K@@@8 ; CEncrypt<unsigned long>::`RTTI Base Class Descriptor at (0,-1,0,64)'
	DD	00H
	DD	00H
	DD	0ffffffffH
	DD	00H
	DD	040H
	DD	FLAT:??_R3?$CEncrypt@K@@8
rdata$r	ENDS
;	COMDAT ??_R2?$CEncrypt@K@@8
rdata$r	SEGMENT
??_R2?$CEncrypt@K@@8 DD FLAT:??_R1A@?0A@EA@?$CEncrypt@K@@8 ; CEncrypt<unsigned long>::`RTTI Base Class Array'
rdata$r	ENDS
;	COMDAT ??_R3?$CEncrypt@K@@8
rdata$r	SEGMENT
??_R3?$CEncrypt@K@@8 DD 00H				; CEncrypt<unsigned long>::`RTTI Class Hierarchy Descriptor'
	DD	00H
	DD	01H
	DD	FLAT:??_R2?$CEncrypt@K@@8
rdata$r	ENDS
;	COMDAT ??_R0?AV?$CEncrypt@K@@@8
_DATA	SEGMENT
??_R0?AV?$CEncrypt@K@@@8 DD FLAT:??_7type_info@@6B@	; CEncrypt<unsigned long> `RTTI Type Descriptor'
	DD	00H
	DB	'.?AV?$CEncrypt@K@@', 00H
_DATA	ENDS
;	COMDAT ??_R4?$CEncrypt@K@@6B@
rdata$r	SEGMENT
??_R4?$CEncrypt@K@@6B@ DD 00H				; CEncrypt<unsigned long>::`RTTI Complete Object Locator'
	DD	00H
	DD	00H
	DD	FLAT:??_R0?AV?$CEncrypt@K@@@8
	DD	FLAT:??_R3?$CEncrypt@K@@8
rdata$r	ENDS
;	COMDAT ??_7?$CEncrypt@K@@6B@
CONST	SEGMENT
??_7?$CEncrypt@K@@6B@ DD FLAT:??_R4?$CEncrypt@K@@6B@	; CEncrypt<unsigned long>::`vftable'
	DD	FLAT:??_E?$CEncrypt@K@@UAEPAXI@Z
; Function compile flags: /Ogsp
CONST	ENDS
;	COMDAT ??1?$CEncrypt@K@@UAE@XZ
_TEXT	SEGMENT
??1?$CEncrypt@K@@UAE@XZ PROC				; CEncrypt<unsigned long>::~CEncrypt<unsigned long>, COMDAT
; _this$ = ecx

; 127  : 	{

  00000	c7 01 00 00 00
	00		 mov	 DWORD PTR [ecx], OFFSET ??_7?$CEncrypt@K@@6B@

; 128  : 	}

  00006	83 c1 0c	 add	 ecx, 12			; 0000000cH
  00009	e9 00 00 00 00	 jmp	 ??1ccddaabb@@UAE@XZ	; ccddaabb::~ccddaabb
??1?$CEncrypt@K@@UAE@XZ ENDP				; CEncrypt<unsigned long>::~CEncrypt<unsigned long>
_TEXT	ENDS
PUBLIC	??_7?$CEncrypt@_N@@6B@				; CEncrypt<bool>::`vftable'
PUBLIC	??1?$CEncrypt@_N@@UAE@XZ			; CEncrypt<bool>::~CEncrypt<bool>
PUBLIC	??_R4?$CEncrypt@_N@@6B@				; CEncrypt<bool>::`RTTI Complete Object Locator'
PUBLIC	??_R0?AV?$CEncrypt@_N@@@8			; CEncrypt<bool> `RTTI Type Descriptor'
PUBLIC	??_R3?$CEncrypt@_N@@8				; CEncrypt<bool>::`RTTI Class Hierarchy Descriptor'
PUBLIC	??_R2?$CEncrypt@_N@@8				; CEncrypt<bool>::`RTTI Base Class Array'
PUBLIC	??_R1A@?0A@EA@?$CEncrypt@_N@@8			; CEncrypt<bool>::`RTTI Base Class Descriptor at (0,-1,0,64)'
EXTRN	??_E?$CEncrypt@_N@@UAEPAXI@Z:PROC		; CEncrypt<bool>::`vector deleting destructor'
;	COMDAT ??_R1A@?0A@EA@?$CEncrypt@_N@@8
rdata$r	SEGMENT
??_R1A@?0A@EA@?$CEncrypt@_N@@8 DD FLAT:??_R0?AV?$CEncrypt@_N@@@8 ; CEncrypt<bool>::`RTTI Base Class Descriptor at (0,-1,0,64)'
	DD	00H
	DD	00H
	DD	0ffffffffH
	DD	00H
	DD	040H
	DD	FLAT:??_R3?$CEncrypt@_N@@8
rdata$r	ENDS
;	COMDAT ??_R2?$CEncrypt@_N@@8
rdata$r	SEGMENT
??_R2?$CEncrypt@_N@@8 DD FLAT:??_R1A@?0A@EA@?$CEncrypt@_N@@8 ; CEncrypt<bool>::`RTTI Base Class Array'
rdata$r	ENDS
;	COMDAT ??_R3?$CEncrypt@_N@@8
rdata$r	SEGMENT
??_R3?$CEncrypt@_N@@8 DD 00H				; CEncrypt<bool>::`RTTI Class Hierarchy Descriptor'
	DD	00H
	DD	01H
	DD	FLAT:??_R2?$CEncrypt@_N@@8
rdata$r	ENDS
;	COMDAT ??_R0?AV?$CEncrypt@_N@@@8
_DATA	SEGMENT
??_R0?AV?$CEncrypt@_N@@@8 DD FLAT:??_7type_info@@6B@	; CEncrypt<bool> `RTTI Type Descriptor'
	DD	00H
	DB	'.?AV?$CEncrypt@_N@@', 00H
_DATA	ENDS
;	COMDAT ??_R4?$CEncrypt@_N@@6B@
rdata$r	SEGMENT
??_R4?$CEncrypt@_N@@6B@ DD 00H				; CEncrypt<bool>::`RTTI Complete Object Locator'
	DD	00H
	DD	00H
	DD	FLAT:??_R0?AV?$CEncrypt@_N@@@8
	DD	FLAT:??_R3?$CEncrypt@_N@@8
rdata$r	ENDS
;	COMDAT ??_7?$CEncrypt@_N@@6B@
CONST	SEGMENT
??_7?$CEncrypt@_N@@6B@ DD FLAT:??_R4?$CEncrypt@_N@@6B@	; CEncrypt<bool>::`vftable'
	DD	FLAT:??_E?$CEncrypt@_N@@UAEPAXI@Z
; Function compile flags: /Ogsp
CONST	ENDS
;	COMDAT ??1?$CEncrypt@_N@@UAE@XZ
_TEXT	SEGMENT
??1?$CEncrypt@_N@@UAE@XZ PROC				; CEncrypt<bool>::~CEncrypt<bool>, COMDAT
; _this$ = ecx

; 127  : 	{

  00000	c7 01 00 00 00
	00		 mov	 DWORD PTR [ecx], OFFSET ??_7?$CEncrypt@_N@@6B@

; 128  : 	}

  00006	83 c1 0c	 add	 ecx, 12			; 0000000cH
  00009	e9 00 00 00 00	 jmp	 ??1ccddaabb@@UAE@XZ	; ccddaabb::~ccddaabb
??1?$CEncrypt@_N@@UAE@XZ ENDP				; CEncrypt<bool>::~CEncrypt<bool>
; Function compile flags: /Ogsp
_TEXT	ENDS
;	COMDAT ??_G?$CEncrypt@M@@UAEPAXI@Z
_TEXT	SEGMENT
___flags$ = 8						; size = 4
??_G?$CEncrypt@M@@UAEPAXI@Z PROC			; CEncrypt<float>::`scalar deleting destructor', COMDAT
; _this$ = ecx
  00000	55		 push	 ebp
  00001	8b ec		 mov	 ebp, esp
  00003	56		 push	 esi
  00004	8b f1		 mov	 esi, ecx
  00006	8d 4e 0c	 lea	 ecx, DWORD PTR [esi+12]
  00009	c7 06 00 00 00
	00		 mov	 DWORD PTR [esi], OFFSET ??_7?$CEncrypt@M@@6B@
  0000f	e8 00 00 00 00	 call	 ??1ccddaabb@@UAE@XZ	; ccddaabb::~ccddaabb
  00014	f6 45 08 01	 test	 BYTE PTR ___flags$[ebp], 1
  00018	74 07		 je	 SHORT $LN1@scalar@2
  0001a	56		 push	 esi
  0001b	e8 00 00 00 00	 call	 ??3@YAXPAX@Z		; operator delete
  00020	59		 pop	 ecx
$LN1@scalar@2:
  00021	8b c6		 mov	 eax, esi
  00023	5e		 pop	 esi
  00024	5d		 pop	 ebp
  00025	c2 04 00	 ret	 4
??_G?$CEncrypt@M@@UAEPAXI@Z ENDP			; CEncrypt<float>::`scalar deleting destructor'
; Function compile flags: /Ogsp
_TEXT	ENDS
;	COMDAT ??_G?$CEncrypt@K@@UAEPAXI@Z
_TEXT	SEGMENT
___flags$ = 8						; size = 4
??_G?$CEncrypt@K@@UAEPAXI@Z PROC			; CEncrypt<unsigned long>::`scalar deleting destructor', COMDAT
; _this$ = ecx
  00000	55		 push	 ebp
  00001	8b ec		 mov	 ebp, esp
  00003	56		 push	 esi
  00004	8b f1		 mov	 esi, ecx
  00006	8d 4e 0c	 lea	 ecx, DWORD PTR [esi+12]
  00009	c7 06 00 00 00
	00		 mov	 DWORD PTR [esi], OFFSET ??_7?$CEncrypt@K@@6B@
  0000f	e8 00 00 00 00	 call	 ??1ccddaabb@@UAE@XZ	; ccddaabb::~ccddaabb
  00014	f6 45 08 01	 test	 BYTE PTR ___flags$[ebp], 1
  00018	74 07		 je	 SHORT $LN1@scalar@3
  0001a	56		 push	 esi
  0001b	e8 00 00 00 00	 call	 ??3@YAXPAX@Z		; operator delete
  00020	59		 pop	 ecx
$LN1@scalar@3:
  00021	8b c6		 mov	 eax, esi
  00023	5e		 pop	 esi
  00024	5d		 pop	 ebp
  00025	c2 04 00	 ret	 4
??_G?$CEncrypt@K@@UAEPAXI@Z ENDP			; CEncrypt<unsigned long>::`scalar deleting destructor'
; Function compile flags: /Ogsp
_TEXT	ENDS
;	COMDAT ??_G?$CEncrypt@_N@@UAEPAXI@Z
_TEXT	SEGMENT
___flags$ = 8						; size = 4
??_G?$CEncrypt@_N@@UAEPAXI@Z PROC			; CEncrypt<bool>::`scalar deleting destructor', COMDAT
; _this$ = ecx
  00000	55		 push	 ebp
  00001	8b ec		 mov	 ebp, esp
  00003	56		 push	 esi
  00004	8b f1		 mov	 esi, ecx
  00006	8d 4e 0c	 lea	 ecx, DWORD PTR [esi+12]
  00009	c7 06 00 00 00
	00		 mov	 DWORD PTR [esi], OFFSET ??_7?$CEncrypt@_N@@6B@
  0000f	e8 00 00 00 00	 call	 ??1ccddaabb@@UAE@XZ	; ccddaabb::~ccddaabb
  00014	f6 45 08 01	 test	 BYTE PTR ___flags$[ebp], 1
  00018	74 07		 je	 SHORT $LN1@scalar@4
  0001a	56		 push	 esi
  0001b	e8 00 00 00 00	 call	 ??3@YAXPAX@Z		; operator delete
  00020	59		 pop	 ecx
$LN1@scalar@4:
  00021	8b c6		 mov	 eax, esi
  00023	5e		 pop	 esi
  00024	5d		 pop	 ebp
  00025	c2 04 00	 ret	 4
??_G?$CEncrypt@_N@@UAEPAXI@Z ENDP			; CEncrypt<bool>::`scalar deleting destructor'
_TEXT	ENDS
PUBLIC	??1?$_Vector_val@VioHashString@@V?$allocator@VioHashString@@@std@@@std@@QAE@XZ ; std::_Vector_val<ioHashString,std::allocator<ioHashString> >::~_Vector_val<ioHashString,std::allocator<ioHashString> >
; Function compile flags: /Ogsp
; File c:\program files (x86)\microsoft visual studio 10.0\vc\include\vector
;	COMDAT ??1?$_Vector_val@VioHashString@@V?$allocator@VioHashString@@@std@@@std@@QAE@XZ
_TEXT	SEGMENT
??1?$_Vector_val@VioHashString@@V?$allocator@VioHashString@@@std@@@std@@QAE@XZ PROC ; std::_Vector_val<ioHashString,std::allocator<ioHashString> >::~_Vector_val<ioHashString,std::allocator<ioHashString> >, COMDAT
; _this$ = ecx

; 434  : 		}

  00000	c3		 ret	 0
??1?$_Vector_val@VioHashString@@V?$allocator@VioHashString@@@std@@@std@@QAE@XZ ENDP ; std::_Vector_val<ioHashString,std::allocator<ioHashString> >::~_Vector_val<ioHashString,std::allocator<ioHashString> >
_TEXT	ENDS
PUBLIC	??0?$allocator@VioHashString@@@std@@QAE@XZ	; std::allocator<ioHashString>::allocator<ioHashString>
; Function compile flags: /Ogsp
; File c:\program files (x86)\microsoft visual studio 10.0\vc\include\xmemory
;	COMDAT ??0?$allocator@VioHashString@@@std@@QAE@XZ
_TEXT	SEGMENT
??0?$allocator@VioHashString@@@std@@QAE@XZ PROC		; std::allocator<ioHashString>::allocator<ioHashString>, COMDAT
; _this$ = ecx

; 161  : 	_ALLOCATOR() _THROW0()

  00000	8b c1		 mov	 eax, ecx

; 162  : 		{	// construct default allocator (do nothing)
; 163  : 		}

  00002	c3		 ret	 0
??0?$allocator@VioHashString@@@std@@QAE@XZ ENDP		; std::allocator<ioHashString>::allocator<ioHashString>
_TEXT	ENDS
PUBLIC	??0?$allocator@VioHashString@@@std@@QAE@ABV01@@Z ; std::allocator<ioHashString>::allocator<ioHashString>
; Function compile flags: /Ogsp
;	COMDAT ??0?$allocator@VioHashString@@@std@@QAE@ABV01@@Z
_TEXT	SEGMENT
___formal$ = 8						; size = 4
??0?$allocator@VioHashString@@@std@@QAE@ABV01@@Z PROC	; std::allocator<ioHashString>::allocator<ioHashString>, COMDAT
; _this$ = ecx

; 165  : 	_ALLOCATOR(const _ALLOCATOR<_Ty>&) _THROW0()

  00000	8b c1		 mov	 eax, ecx

; 166  : 		{	// construct by copying (do nothing)
; 167  : 		}

  00002	c2 04 00	 ret	 4
??0?$allocator@VioHashString@@@std@@QAE@ABV01@@Z ENDP	; std::allocator<ioHashString>::allocator<ioHashString>
_TEXT	ENDS
PUBLIC	?EncryptValueToPool@?$CEncrypt@M@@AAEXPBD@Z	; CEncrypt<float>::EncryptValueToPool
EXTRN	?EncryptByte@ccddaabb@@QAEXPBDPADH@Z:PROC	; ccddaabb::EncryptByte
; Function compile flags: /Ogsp
; File d:\lost saga for developer\youtube\tutorial\source\src\lsclient\encryptvalue.h
;	COMDAT ?EncryptValueToPool@?$CEncrypt@M@@AAEXPBD@Z
_TEXT	SEGMENT
_value$ = 8						; size = 4
?EncryptValueToPool@?$CEncrypt@M@@AAEXPBD@Z PROC	; CEncrypt<float>::EncryptValueToPool, COMDAT
; _this$ = ecx

; 67   : 	{

  00000	55		 push	 ebp
  00001	8b ec		 mov	 ebp, esp

; 68   : 		m_RC5.EncryptByte( value, m_MemPool, max(m_ValueSize, DEFAULT_ENCRYPT) );

  00003	0f b7 41 06	 movzx	 eax, WORD PTR [ecx+6]
  00007	83 f8 04	 cmp	 eax, 4
  0000a	77 03		 ja	 SHORT $LN4@EncryptVal
  0000c	6a 04		 push	 4
  0000e	58		 pop	 eax
$LN4@EncryptVal:
  0000f	50		 push	 eax
  00010	8d 41 1c	 lea	 eax, DWORD PTR [ecx+28]
  00013	50		 push	 eax
  00014	ff 75 08	 push	 DWORD PTR _value$[ebp]
  00017	83 c1 0c	 add	 ecx, 12			; 0000000cH
  0001a	e8 00 00 00 00	 call	 ?EncryptByte@ccddaabb@@QAEXPBDPADH@Z ; ccddaabb::EncryptByte

; 69   : 		
; 70   : 	}

  0001f	5d		 pop	 ebp
  00020	c2 04 00	 ret	 4
?EncryptValueToPool@?$CEncrypt@M@@AAEXPBD@Z ENDP	; CEncrypt<float>::EncryptValueToPool
_TEXT	ENDS
PUBLIC	?Init@?$CEncrypt@M@@AAEXXZ			; CEncrypt<float>::Init
EXTRN	?Setup@ccddaabb@@QAEXPBDHH@Z:PROC		; ccddaabb::Setup
EXTRN	__imp__rand:PROC
EXTRN	__imp__timeGetTime@0:PROC
EXTRN	__imp__GetCurrentProcessId@0:PROC
; Function compile flags: /Ogsp
;	COMDAT ?Init@?$CEncrypt@M@@AAEXXZ
_TEXT	SEGMENT
_pid$ = -8						; size = 4
_tick$ = -4						; size = 4
?Init@?$CEncrypt@M@@AAEXXZ PROC				; CEncrypt<float>::Init, COMDAT
; _this$ = ecx

; 73   : 	{

  00000	55		 push	 ebp
  00001	8b ec		 mov	 ebp, esp
  00003	51		 push	 ecx
  00004	51		 push	 ecx
  00005	53		 push	 ebx
  00006	56		 push	 esi
  00007	57		 push	 edi
  00008	8b f1		 mov	 esi, ecx

; 74   : 		DWORD pid = GetCurrentProcessId();

  0000a	ff 15 00 00 00
	00		 call	 DWORD PTR __imp__GetCurrentProcessId@0
  00010	89 45 f8	 mov	 DWORD PTR _pid$[ebp], eax

; 75   : 		DWORD tick = timeGetTime();

  00013	ff 15 00 00 00
	00		 call	 DWORD PTR __imp__timeGetTime@0

; 76   : 		m_ValueSize    = sizeof(type);
; 77   : 		m_MemPoolPos   = (unsigned short)( rand()+pid+tick )%(MAX_MEM_POOL-m_ValueSize);

  00019	8b 3d 00 00 00
	00		 mov	 edi, DWORD PTR __imp__rand
  0001f	89 45 fc	 mov	 DWORD PTR _tick$[ebp], eax
  00022	6a 04		 push	 4
  00024	58		 pop	 eax
  00025	66 89 46 06	 mov	 WORD PTR [esi+6], ax
  00029	ff d7		 call	 edi
  0002b	03 45 f8	 add	 eax, DWORD PTR _pid$[ebp]
  0002e	0f b7 4e 06	 movzx	 ecx, WORD PTR [esi+6]
  00032	03 45 fc	 add	 eax, DWORD PTR _tick$[ebp]
  00035	6a 0c		 push	 12			; 0000000cH
  00037	0f b7 c0	 movzx	 eax, ax
  0003a	5b		 pop	 ebx
  0003b	99		 cdq
  0003c	2b d9		 sub	 ebx, ecx
  0003e	f7 fb		 idiv	 ebx
  00040	66 89 56 04	 mov	 WORD PTR [esi+4], dx

; 78   : 		m_EncryptSeed  = (char)( rand()+pid+tick )%256;

  00044	ff d7		 call	 edi
  00046	02 45 f8	 add	 al, BYTE PTR _pid$[ebp]
  00049	02 45 fc	 add	 al, BYTE PTR _tick$[ebp]
  0004c	0f be c0	 movsx	 eax, al
  0004f	25 ff 00 00 80	 and	 eax, -2147483393	; 800000ffH
  00054	79 07		 jns	 SHORT $LN8@Init
  00056	48		 dec	 eax
  00057	0d 00 ff ff ff	 or	 eax, -256		; ffffff00H
  0005c	40		 inc	 eax
$LN8@Init:
  0005d	88 46 08	 mov	 BYTE PTR [esi+8], al

; 79   : 
; 80   : 		for (int i = 0; i < MAX_MEM_POOL ; i++)

  00060	33 db		 xor	 ebx, ebx
$LL3@Init:

; 81   : 			m_MemPool[i] = (char)( rand()+pid+tick )%256; // 

  00062	ff d7		 call	 edi
  00064	02 45 f8	 add	 al, BYTE PTR _pid$[ebp]
  00067	02 45 fc	 add	 al, BYTE PTR _tick$[ebp]
  0006a	0f be c0	 movsx	 eax, al
  0006d	25 ff 00 00 80	 and	 eax, -2147483393	; 800000ffH
  00072	79 07		 jns	 SHORT $LN9@Init
  00074	48		 dec	 eax
  00075	0d 00 ff ff ff	 or	 eax, -256		; ffffff00H
  0007a	40		 inc	 eax
$LN9@Init:
  0007b	88 44 1e 1c	 mov	 BYTE PTR [esi+ebx+28], al
  0007f	43		 inc	 ebx
  00080	83 fb 0c	 cmp	 ebx, 12			; 0000000cH
  00083	7c dd		 jl	 SHORT $LL3@Init

; 82   : 
; 83   : 		//UJ 130913, : szKey  
; 84   : 		//char szKey[ccddaabb::KEY_SIZE];//="";
; 85   : 		//for (int i = 0; i < ccddaabb::KEY_SIZE  ; i++)
; 86   : 		//	szKey[i] = (char)( rand()+pid+tick )%256; // 
; 87   : 		m_RC5.Setup( NULL, pid, tick );

  00085	ff 75 fc	 push	 DWORD PTR _tick$[ebp]
  00088	8d 4e 0c	 lea	 ecx, DWORD PTR [esi+12]
  0008b	ff 75 f8	 push	 DWORD PTR _pid$[ebp]
  0008e	6a 00		 push	 0
  00090	e8 00 00 00 00	 call	 ?Setup@ccddaabb@@QAEXPBDHH@Z ; ccddaabb::Setup
  00095	5f		 pop	 edi
  00096	5e		 pop	 esi
  00097	5b		 pop	 ebx

; 88   : 
; 89   : #ifdef _NOTUSE
; 90   : 		m_value        = 0;
; 91   : 		EncryptValueToPool((char*)&m_value);
; 92   : 		Debug();
; 93   : #endif
; 94   : 	}

  00098	c9		 leave
  00099	c3		 ret	 0
?Init@?$CEncrypt@M@@AAEXXZ ENDP				; CEncrypt<float>::Init
_TEXT	ENDS
PUBLIC	?DecryptValueToPool@?$CEncrypt@M@@QAEXPAM@Z	; CEncrypt<float>::DecryptValueToPool
EXTRN	?DecryptByte@ccddaabb@@QBEXPBDPADH@Z:PROC	; ccddaabb::DecryptByte
; Function compile flags: /Ogsp
;	COMDAT ?DecryptValueToPool@?$CEncrypt@M@@QAEXPAM@Z
_TEXT	SEGMENT
_value$ = 8						; size = 4
?DecryptValueToPool@?$CEncrypt@M@@QAEXPAM@Z PROC	; CEncrypt<float>::DecryptValueToPool, COMDAT
; _this$ = ecx

; 1648 : 	{

  00000	55		 push	 ebp
  00001	8b ec		 mov	 ebp, esp
  00003	56		 push	 esi

; 1649 : 		m_RC5.DecryptByte( m_MemPool, m_TempMem, 4 );

  00004	8d 71 28	 lea	 esi, DWORD PTR [ecx+40]
  00007	6a 04		 push	 4
  00009	8d 41 1c	 lea	 eax, DWORD PTR [ecx+28]
  0000c	56		 push	 esi
  0000d	50		 push	 eax
  0000e	83 c1 0c	 add	 ecx, 12			; 0000000cH
  00011	e8 00 00 00 00	 call	 ?DecryptByte@ccddaabb@@QBEXPBDPADH@Z ; ccddaabb::DecryptByte

; 1650 : 		*value = *((float*)m_TempMem);

  00016	d9 06		 fld	 DWORD PTR [esi]
  00018	8b 45 08	 mov	 eax, DWORD PTR _value$[ebp]
  0001b	d9 18		 fstp	 DWORD PTR [eax]
  0001d	5e		 pop	 esi

; 1651 : 	}

  0001e	5d		 pop	 ebp
  0001f	c2 04 00	 ret	 4
?DecryptValueToPool@?$CEncrypt@M@@QAEXPAM@Z ENDP	; CEncrypt<float>::DecryptValueToPool
_TEXT	ENDS
PUBLIC	?EncryptValueToPool@?$CEncrypt@K@@AAEXPBD@Z	; CEncrypt<unsigned long>::EncryptValueToPool
; Function compile flags: /Ogsp
;	COMDAT ?EncryptValueToPool@?$CEncrypt@K@@AAEXPBD@Z
_TEXT	SEGMENT
_value$ = 8						; size = 4
?EncryptValueToPool@?$CEncrypt@K@@AAEXPBD@Z PROC	; CEncrypt<unsigned long>::EncryptValueToPool, COMDAT
; _this$ = ecx

; 67   : 	{

  00000	55		 push	 ebp
  00001	8b ec		 mov	 ebp, esp

; 68   : 		m_RC5.EncryptByte( value, m_MemPool, max(m_ValueSize, DEFAULT_ENCRYPT) );

  00003	0f b7 41 06	 movzx	 eax, WORD PTR [ecx+6]
  00007	83 f8 04	 cmp	 eax, 4
  0000a	77 03		 ja	 SHORT $LN4@EncryptVal@2
  0000c	6a 04		 push	 4
  0000e	58		 pop	 eax
$LN4@EncryptVal@2:
  0000f	50		 push	 eax
  00010	8d 41 1c	 lea	 eax, DWORD PTR [ecx+28]
  00013	50		 push	 eax
  00014	ff 75 08	 push	 DWORD PTR _value$[ebp]
  00017	83 c1 0c	 add	 ecx, 12			; 0000000cH
  0001a	e8 00 00 00 00	 call	 ?EncryptByte@ccddaabb@@QAEXPBDPADH@Z ; ccddaabb::EncryptByte

; 69   : 		
; 70   : 	}

  0001f	5d		 pop	 ebp
  00020	c2 04 00	 ret	 4
?EncryptValueToPool@?$CEncrypt@K@@AAEXPBD@Z ENDP	; CEncrypt<unsigned long>::EncryptValueToPool
_TEXT	ENDS
PUBLIC	?Init@?$CEncrypt@K@@AAEXXZ			; CEncrypt<unsigned long>::Init
; Function compile flags: /Ogsp
;	COMDAT ?Init@?$CEncrypt@K@@AAEXXZ
_TEXT	SEGMENT
_pid$ = -8						; size = 4
_tick$ = -4						; size = 4
?Init@?$CEncrypt@K@@AAEXXZ PROC				; CEncrypt<unsigned long>::Init, COMDAT
; _this$ = ecx

; 73   : 	{

  00000	55		 push	 ebp
  00001	8b ec		 mov	 ebp, esp
  00003	51		 push	 ecx
  00004	51		 push	 ecx
  00005	53		 push	 ebx
  00006	56		 push	 esi
  00007	57		 push	 edi
  00008	8b f1		 mov	 esi, ecx

; 74   : 		DWORD pid = GetCurrentProcessId();

  0000a	ff 15 00 00 00
	00		 call	 DWORD PTR __imp__GetCurrentProcessId@0
  00010	89 45 f8	 mov	 DWORD PTR _pid$[ebp], eax

; 75   : 		DWORD tick = timeGetTime();

  00013	ff 15 00 00 00
	00		 call	 DWORD PTR __imp__timeGetTime@0

; 76   : 		m_ValueSize    = sizeof(type);
; 77   : 		m_MemPoolPos   = (unsigned short)( rand()+pid+tick )%(MAX_MEM_POOL-m_ValueSize);

  00019	8b 3d 00 00 00
	00		 mov	 edi, DWORD PTR __imp__rand
  0001f	89 45 fc	 mov	 DWORD PTR _tick$[ebp], eax
  00022	6a 04		 push	 4
  00024	58		 pop	 eax
  00025	66 89 46 06	 mov	 WORD PTR [esi+6], ax
  00029	ff d7		 call	 edi
  0002b	03 45 f8	 add	 eax, DWORD PTR _pid$[ebp]
  0002e	0f b7 4e 06	 movzx	 ecx, WORD PTR [esi+6]
  00032	03 45 fc	 add	 eax, DWORD PTR _tick$[ebp]
  00035	6a 0c		 push	 12			; 0000000cH
  00037	0f b7 c0	 movzx	 eax, ax
  0003a	5b		 pop	 ebx
  0003b	99		 cdq
  0003c	2b d9		 sub	 ebx, ecx
  0003e	f7 fb		 idiv	 ebx
  00040	66 89 56 04	 mov	 WORD PTR [esi+4], dx

; 78   : 		m_EncryptSeed  = (char)( rand()+pid+tick )%256;

  00044	ff d7		 call	 edi
  00046	02 45 f8	 add	 al, BYTE PTR _pid$[ebp]
  00049	02 45 fc	 add	 al, BYTE PTR _tick$[ebp]
  0004c	0f be c0	 movsx	 eax, al
  0004f	25 ff 00 00 80	 and	 eax, -2147483393	; 800000ffH
  00054	79 07		 jns	 SHORT $LN8@Init@2
  00056	48		 dec	 eax
  00057	0d 00 ff ff ff	 or	 eax, -256		; ffffff00H
  0005c	40		 inc	 eax
$LN8@Init@2:
  0005d	88 46 08	 mov	 BYTE PTR [esi+8], al

; 79   : 
; 80   : 		for (int i = 0; i < MAX_MEM_POOL ; i++)

  00060	33 db		 xor	 ebx, ebx
$LL3@Init@2:

; 81   : 			m_MemPool[i] = (char)( rand()+pid+tick )%256; // 

  00062	ff d7		 call	 edi
  00064	02 45 f8	 add	 al, BYTE PTR _pid$[ebp]
  00067	02 45 fc	 add	 al, BYTE PTR _tick$[ebp]
  0006a	0f be c0	 movsx	 eax, al
  0006d	25 ff 00 00 80	 and	 eax, -2147483393	; 800000ffH
  00072	79 07		 jns	 SHORT $LN9@Init@2
  00074	48		 dec	 eax
  00075	0d 00 ff ff ff	 or	 eax, -256		; ffffff00H
  0007a	40		 inc	 eax
$LN9@Init@2:
  0007b	88 44 1e 1c	 mov	 BYTE PTR [esi+ebx+28], al
  0007f	43		 inc	 ebx
  00080	83 fb 0c	 cmp	 ebx, 12			; 0000000cH
  00083	7c dd		 jl	 SHORT $LL3@Init@2

; 82   : 
; 83   : 		//UJ 130913, : szKey  
; 84   : 		//char szKey[ccddaabb::KEY_SIZE];//="";
; 85   : 		//for (int i = 0; i < ccddaabb::KEY_SIZE  ; i++)
; 86   : 		//	szKey[i] = (char)( rand()+pid+tick )%256; // 
; 87   : 		m_RC5.Setup( NULL, pid, tick );

  00085	ff 75 fc	 push	 DWORD PTR _tick$[ebp]
  00088	8d 4e 0c	 lea	 ecx, DWORD PTR [esi+12]
  0008b	ff 75 f8	 push	 DWORD PTR _pid$[ebp]
  0008e	6a 00		 push	 0
  00090	e8 00 00 00 00	 call	 ?Setup@ccddaabb@@QAEXPBDHH@Z ; ccddaabb::Setup
  00095	5f		 pop	 edi
  00096	5e		 pop	 esi
  00097	5b		 pop	 ebx

; 88   : 
; 89   : #ifdef _NOTUSE
; 90   : 		m_value        = 0;
; 91   : 		EncryptValueToPool((char*)&m_value);
; 92   : 		Debug();
; 93   : #endif
; 94   : 	}

  00098	c9		 leave
  00099	c3		 ret	 0
?Init@?$CEncrypt@K@@AAEXXZ ENDP				; CEncrypt<unsigned long>::Init
_TEXT	ENDS
PUBLIC	?DecryptValueToPool@?$CEncrypt@K@@QAEXPAK@Z	; CEncrypt<unsigned long>::DecryptValueToPool
; Function compile flags: /Ogsp
;	COMDAT ?DecryptValueToPool@?$CEncrypt@K@@QAEXPAK@Z
_TEXT	SEGMENT
_value$ = 8						; size = 4
?DecryptValueToPool@?$CEncrypt@K@@QAEXPAK@Z PROC	; CEncrypt<unsigned long>::DecryptValueToPool, COMDAT
; _this$ = ecx

; 1256 : 	{

  00000	55		 push	 ebp
  00001	8b ec		 mov	 ebp, esp
  00003	56		 push	 esi

; 1257 : 		m_RC5.DecryptByte( m_MemPool, m_TempMem, 4 );

  00004	8d 71 28	 lea	 esi, DWORD PTR [ecx+40]
  00007	6a 04		 push	 4
  00009	8d 41 1c	 lea	 eax, DWORD PTR [ecx+28]
  0000c	56		 push	 esi
  0000d	50		 push	 eax
  0000e	83 c1 0c	 add	 ecx, 12			; 0000000cH
  00011	e8 00 00 00 00	 call	 ?DecryptByte@ccddaabb@@QBEXPBDPADH@Z ; ccddaabb::DecryptByte

; 1258 : 		*value = *((DWORD*)m_TempMem);

  00016	8b 06		 mov	 eax, DWORD PTR [esi]
  00018	8b 4d 08	 mov	 ecx, DWORD PTR _value$[ebp]
  0001b	89 01		 mov	 DWORD PTR [ecx], eax
  0001d	5e		 pop	 esi

; 1259 : 	}

  0001e	5d		 pop	 ebp
  0001f	c2 04 00	 ret	 4
?DecryptValueToPool@?$CEncrypt@K@@QAEXPAK@Z ENDP	; CEncrypt<unsigned long>::DecryptValueToPool
_TEXT	ENDS
PUBLIC	?EncryptValueToPool@?$CEncrypt@_N@@AAEXPBD@Z	; CEncrypt<bool>::EncryptValueToPool
; Function compile flags: /Ogsp
;	COMDAT ?EncryptValueToPool@?$CEncrypt@_N@@AAEXPBD@Z
_TEXT	SEGMENT
_value$ = 8						; size = 4
?EncryptValueToPool@?$CEncrypt@_N@@AAEXPBD@Z PROC	; CEncrypt<bool>::EncryptValueToPool, COMDAT
; _this$ = ecx

; 67   : 	{

  00000	55		 push	 ebp
  00001	8b ec		 mov	 ebp, esp

; 68   : 		m_RC5.EncryptByte( value, m_MemPool, max(m_ValueSize, DEFAULT_ENCRYPT) );

  00003	0f b7 41 06	 movzx	 eax, WORD PTR [ecx+6]
  00007	83 f8 04	 cmp	 eax, 4
  0000a	77 03		 ja	 SHORT $LN4@EncryptVal@3
  0000c	6a 04		 push	 4
  0000e	58		 pop	 eax
$LN4@EncryptVal@3:
  0000f	50		 push	 eax
  00010	8d 41 1c	 lea	 eax, DWORD PTR [ecx+28]
  00013	50		 push	 eax
  00014	ff 75 08	 push	 DWORD PTR _value$[ebp]
  00017	83 c1 0c	 add	 ecx, 12			; 0000000cH
  0001a	e8 00 00 00 00	 call	 ?EncryptByte@ccddaabb@@QAEXPBDPADH@Z ; ccddaabb::EncryptByte

; 69   : 		
; 70   : 	}

  0001f	5d		 pop	 ebp
  00020	c2 04 00	 ret	 4
?EncryptValueToPool@?$CEncrypt@_N@@AAEXPBD@Z ENDP	; CEncrypt<bool>::EncryptValueToPool
_TEXT	ENDS
PUBLIC	?Init@?$CEncrypt@_N@@AAEXXZ			; CEncrypt<bool>::Init
; Function compile flags: /Ogsp
;	COMDAT ?Init@?$CEncrypt@_N@@AAEXXZ
_TEXT	SEGMENT
_pid$ = -8						; size = 4
_tick$ = -4						; size = 4
?Init@?$CEncrypt@_N@@AAEXXZ PROC			; CEncrypt<bool>::Init, COMDAT
; _this$ = ecx

; 73   : 	{

  00000	55		 push	 ebp
  00001	8b ec		 mov	 ebp, esp
  00003	51		 push	 ecx
  00004	51		 push	 ecx
  00005	53		 push	 ebx
  00006	56		 push	 esi
  00007	57		 push	 edi
  00008	8b f1		 mov	 esi, ecx

; 74   : 		DWORD pid = GetCurrentProcessId();

  0000a	ff 15 00 00 00
	00		 call	 DWORD PTR __imp__GetCurrentProcessId@0
  00010	89 45 f8	 mov	 DWORD PTR _pid$[ebp], eax

; 75   : 		DWORD tick = timeGetTime();

  00013	ff 15 00 00 00
	00		 call	 DWORD PTR __imp__timeGetTime@0

; 76   : 		m_ValueSize    = sizeof(type);
; 77   : 		m_MemPoolPos   = (unsigned short)( rand()+pid+tick )%(MAX_MEM_POOL-m_ValueSize);

  00019	8b 3d 00 00 00
	00		 mov	 edi, DWORD PTR __imp__rand
  0001f	89 45 fc	 mov	 DWORD PTR _tick$[ebp], eax
  00022	33 c0		 xor	 eax, eax
  00024	40		 inc	 eax
  00025	66 89 46 06	 mov	 WORD PTR [esi+6], ax
  00029	ff d7		 call	 edi
  0002b	03 45 f8	 add	 eax, DWORD PTR _pid$[ebp]
  0002e	0f b7 4e 06	 movzx	 ecx, WORD PTR [esi+6]
  00032	03 45 fc	 add	 eax, DWORD PTR _tick$[ebp]
  00035	6a 0c		 push	 12			; 0000000cH
  00037	0f b7 c0	 movzx	 eax, ax
  0003a	5b		 pop	 ebx
  0003b	99		 cdq
  0003c	2b d9		 sub	 ebx, ecx
  0003e	f7 fb		 idiv	 ebx
  00040	66 89 56 04	 mov	 WORD PTR [esi+4], dx

; 78   : 		m_EncryptSeed  = (char)( rand()+pid+tick )%256;

  00044	ff d7		 call	 edi
  00046	02 45 f8	 add	 al, BYTE PTR _pid$[ebp]
  00049	02 45 fc	 add	 al, BYTE PTR _tick$[ebp]
  0004c	0f be c0	 movsx	 eax, al
  0004f	25 ff 00 00 80	 and	 eax, -2147483393	; 800000ffH
  00054	79 07		 jns	 SHORT $LN8@Init@3
  00056	48		 dec	 eax
  00057	0d 00 ff ff ff	 or	 eax, -256		; ffffff00H
  0005c	40		 inc	 eax
$LN8@Init@3:
  0005d	88 46 08	 mov	 BYTE PTR [esi+8], al

; 79   : 
; 80   : 		for (int i = 0; i < MAX_MEM_POOL ; i++)

  00060	33 db		 xor	 ebx, ebx
$LL3@Init@3:

; 81   : 			m_MemPool[i] = (char)( rand()+pid+tick )%256; // 

  00062	ff d7		 call	 edi
  00064	02 45 f8	 add	 al, BYTE PTR _pid$[ebp]
  00067	02 45 fc	 add	 al, BYTE PTR _tick$[ebp]
  0006a	0f be c0	 movsx	 eax, al
  0006d	25 ff 00 00 80	 and	 eax, -2147483393	; 800000ffH
  00072	79 07		 jns	 SHORT $LN9@Init@3
  00074	48		 dec	 eax
  00075	0d 00 ff ff ff	 or	 eax, -256		; ffffff00H
  0007a	40		 inc	 eax
$LN9@Init@3:
  0007b	88 44 1e 1c	 mov	 BYTE PTR [esi+ebx+28], al
  0007f	43		 inc	 ebx
  00080	83 fb 0c	 cmp	 ebx, 12			; 0000000cH
  00083	7c dd		 jl	 SHORT $LL3@Init@3

; 82   : 
; 83   : 		//UJ 130913, : szKey  
; 84   : 		//char szKey[ccddaabb::KEY_SIZE];//="";
; 85   : 		//for (int i = 0; i < ccddaabb::KEY_SIZE  ; i++)
; 86   : 		//	szKey[i] = (char)( rand()+pid+tick )%256; // 
; 87   : 		m_RC5.Setup( NULL, pid, tick );

  00085	ff 75 fc	 push	 DWORD PTR _tick$[ebp]
  00088	8d 4e 0c	 lea	 ecx, DWORD PTR [esi+12]
  0008b	ff 75 f8	 push	 DWORD PTR _pid$[ebp]
  0008e	6a 00		 push	 0
  00090	e8 00 00 00 00	 call	 ?Setup@ccddaabb@@QAEXPBDHH@Z ; ccddaabb::Setup
  00095	5f		 pop	 edi
  00096	5e		 pop	 esi
  00097	5b		 pop	 ebx

; 88   : 
; 89   : #ifdef _NOTUSE
; 90   : 		m_value        = 0;
; 91   : 		EncryptValueToPool((char*)&m_value);
; 92   : 		Debug();
; 93   : #endif
; 94   : 	}

  00098	c9		 leave
  00099	c3		 ret	 0
?Init@?$CEncrypt@_N@@AAEXXZ ENDP			; CEncrypt<bool>::Init
_TEXT	ENDS
PUBLIC	?DecryptValueToPool@?$CEncrypt@_N@@QAEXPA_N@Z	; CEncrypt<bool>::DecryptValueToPool
; Function compile flags: /Ogsp
;	COMDAT ?DecryptValueToPool@?$CEncrypt@_N@@QAEXPA_N@Z
_TEXT	SEGMENT
_value$ = 8						; size = 4
?DecryptValueToPool@?$CEncrypt@_N@@QAEXPA_N@Z PROC	; CEncrypt<bool>::DecryptValueToPool, COMDAT
; _this$ = ecx

; 219  : 	{

  00000	55		 push	 ebp
  00001	8b ec		 mov	 ebp, esp
  00003	56		 push	 esi

; 220  : 		m_RC5.DecryptByte( m_MemPool, m_TempMem, 4 );

  00004	8d 71 28	 lea	 esi, DWORD PTR [ecx+40]
  00007	6a 04		 push	 4
  00009	8d 41 1c	 lea	 eax, DWORD PTR [ecx+28]
  0000c	56		 push	 esi
  0000d	50		 push	 eax
  0000e	83 c1 0c	 add	 ecx, 12			; 0000000cH
  00011	e8 00 00 00 00	 call	 ?DecryptByte@ccddaabb@@QBEXPBDPADH@Z ; ccddaabb::DecryptByte

; 221  : 		*value = *((bool*)m_TempMem);

  00016	8a 06		 mov	 al, BYTE PTR [esi]
  00018	8b 4d 08	 mov	 ecx, DWORD PTR _value$[ebp]
  0001b	88 01		 mov	 BYTE PTR [ecx], al
  0001d	5e		 pop	 esi

; 222  : 	}

  0001e	5d		 pop	 ebp
  0001f	c2 04 00	 ret	 4
?DecryptValueToPool@?$CEncrypt@_N@@QAEXPA_N@Z ENDP	; CEncrypt<bool>::DecryptValueToPool
_TEXT	ENDS
PUBLIC	?_Xlen@?$vector@VioHashString@@V?$allocator@VioHashString@@@std@@@std@@IBEXXZ ; std::vector<ioHashString,std::allocator<ioHashString> >::_Xlen
; Function compile flags: /Ogsp
; File c:\program files (x86)\microsoft visual studio 10.0\vc\include\vector
;	COMDAT ?_Xlen@?$vector@VioHashString@@V?$allocator@VioHashString@@@std@@@std@@IBEXXZ
_TEXT	SEGMENT
?_Xlen@?$vector@VioHashString@@V?$allocator@VioHashString@@@std@@@std@@IBEXXZ PROC ; std::vector<ioHashString,std::allocator<ioHashString> >::_Xlen, COMDAT
; _this$ = ecx

; 1427 : 		_Xlength_error("vector<T> too long");

  00000	68 00 00 00 00	 push	 OFFSET ??_C@_0BD@OLBABOEK@vector?$DMT?$DO?5too?5long?$AA@
  00005	ff 15 00 00 00
	00		 call	 DWORD PTR __imp_?_Xlength_error@std@@YAXPBD@Z
$LN4@Xlen@2:
$LN3@Xlen@2:
  0000b	cc		 int	 3
?_Xlen@?$vector@VioHashString@@V?$allocator@VioHashString@@@std@@@std@@IBEXXZ ENDP ; std::vector<ioHashString,std::allocator<ioHashString> >::_Xlen
_TEXT	ENDS
PUBLIC	?deallocate@?$allocator@VioHashString@@@std@@QAEXPAVioHashString@@I@Z ; std::allocator<ioHashString>::deallocate
; Function compile flags: /Ogsp
; File c:\program files (x86)\microsoft visual studio 10.0\vc\include\xmemory
;	COMDAT ?deallocate@?$allocator@VioHashString@@@std@@QAEXPAVioHashString@@I@Z
_TEXT	SEGMENT
__Ptr$ = 8						; size = 4
___formal$ = 12						; size = 4
?deallocate@?$allocator@VioHashString@@@std@@QAEXPAVioHashString@@I@Z PROC ; std::allocator<ioHashString>::deallocate, COMDAT
; _this$ = ecx

; 181  : 		{	// deallocate object at _Ptr, ignore size

  00000	55		 push	 ebp
  00001	8b ec		 mov	 ebp, esp

; 182  : 		::operator delete(_Ptr);

  00003	ff 75 08	 push	 DWORD PTR __Ptr$[ebp]
  00006	e8 00 00 00 00	 call	 ??3@YAXPAX@Z		; operator delete
  0000b	59		 pop	 ecx

; 183  : 		}

  0000c	5d		 pop	 ebp
  0000d	c2 08 00	 ret	 8
?deallocate@?$allocator@VioHashString@@@std@@QAEXPAVioHashString@@I@Z ENDP ; std::allocator<ioHashString>::deallocate
_TEXT	ENDS
PUBLIC	?max_size@?$allocator@VioHashString@@@std@@QBEIXZ ; std::allocator<ioHashString>::max_size
; Function compile flags: /Ogsp
;	COMDAT ?max_size@?$allocator@VioHashString@@@std@@QBEIXZ
_TEXT	SEGMENT
?max_size@?$allocator@VioHashString@@@std@@QBEIXZ PROC	; std::allocator<ioHashString>::max_size, COMDAT
; _this$ = ecx

; 218  : 		_SIZT _Count = (_SIZT)(-1) / sizeof (_Ty);
; 219  : 		return (0 < _Count ? _Count : 1);

  00000	b8 ff ff ff 0f	 mov	 eax, 268435455		; 0fffffffH

; 220  : 		}

  00005	c3		 ret	 0
?max_size@?$allocator@VioHashString@@@std@@QBEIXZ ENDP	; std::allocator<ioHashString>::max_size
_TEXT	ENDS
PUBLIC	??$_Allocate@VioHashString@@@std@@YAPAVioHashString@@IPAV1@@Z ; std::_Allocate<ioHashString>
; Function compile flags: /Ogsp
;	COMDAT ??$_Allocate@VioHashString@@@std@@YAPAVioHashString@@IPAV1@@Z
_TEXT	SEGMENT
$T536065 = -12						; size = 12
$T536069 = 8						; size = 4
__Count$ = 8						; size = 4
___formal$ = 12						; size = 4
??$_Allocate@VioHashString@@@std@@YAPAVioHashString@@IPAV1@@Z PROC ; std::_Allocate<ioHashString>, COMDAT

; 30   : 	{	// allocate storage for _Count elements of type _Ty

  00000	55		 push	 ebp
  00001	8b ec		 mov	 ebp, esp

; 31   : 	void *_Ptr = 0;
; 32   : 
; 33   : 	if (_Count <= 0)

  00003	8b 4d 08	 mov	 ecx, DWORD PTR __Count$[ebp]
  00006	83 ec 0c	 sub	 esp, 12			; 0000000cH
  00009	33 c0		 xor	 eax, eax
  0000b	85 c9		 test	 ecx, ecx

; 34   : 		_Count = 0;
; 35   : 	else if (((_SIZT)(-1) / sizeof (_Ty) < _Count)

  0000d	74 3c		 je	 SHORT $LN5@Allocate@2

; 36   : 		|| (_Ptr = ::operator new(_Count * sizeof (_Ty))) == 0)

  0000f	81 f9 ff ff ff
	0f		 cmp	 ecx, 268435455		; 0fffffffH
  00015	77 0e		 ja	 SHORT $LN1@Allocate@2
  00017	c1 e1 04	 shl	 ecx, 4
  0001a	51		 push	 ecx
  0001b	e8 00 00 00 00	 call	 ??2@YAPAXI@Z		; operator new
  00020	59		 pop	 ecx
  00021	85 c0		 test	 eax, eax

; 38   : 
; 39   : 	return ((_Ty _FARQ *)_Ptr);

  00023	75 26		 jne	 SHORT $LN5@Allocate@2
$LN1@Allocate@2:

; 37   : 		_THROW_NCEE(bad_alloc, 0);

  00025	83 65 08 00	 and	 DWORD PTR $T536069[ebp], 0
  00029	8d 45 08	 lea	 eax, DWORD PTR $T536069[ebp]
  0002c	50		 push	 eax
  0002d	8d 4d f4	 lea	 ecx, DWORD PTR $T536065[ebp]
  00030	ff 15 00 00 00
	00		 call	 DWORD PTR __imp_??0exception@std@@QAE@ABQBD@Z
  00036	68 00 00 00 00	 push	 OFFSET __TI2?AVbad_alloc@std@@
  0003b	8d 45 f4	 lea	 eax, DWORD PTR $T536065[ebp]
  0003e	50		 push	 eax
  0003f	c7 45 f4 00 00
	00 00		 mov	 DWORD PTR $T536065[ebp], OFFSET ??_7bad_alloc@std@@6B@
  00046	e8 00 00 00 00	 call	 __CxxThrowException@8
$LN10@Allocate@2:
$LN5@Allocate@2:

; 40   : 	}

  0004b	c9		 leave
  0004c	c3		 ret	 0
$LN9@Allocate@2:
??$_Allocate@VioHashString@@@std@@YAPAVioHashString@@IPAV1@@Z ENDP ; std::_Allocate<ioHashString>
_TEXT	ENDS
EXTRN	__imp_??0exception@std@@QAE@ABV01@@Z:PROC
; Function compile flags: /Ogsp
;	COMDAT ??0bad_alloc@std@@QAE@ABV01@@Z
_TEXT	SEGMENT
___that$ = 8						; size = 4
??0bad_alloc@std@@QAE@ABV01@@Z PROC			; std::bad_alloc::bad_alloc, COMDAT
; _this$ = ecx
  00000	55		 push	 ebp
  00001	8b ec		 mov	 ebp, esp
  00003	56		 push	 esi
  00004	ff 75 08	 push	 DWORD PTR ___that$[ebp]
  00007	8b f1		 mov	 esi, ecx
  00009	ff 15 00 00 00
	00		 call	 DWORD PTR __imp_??0exception@std@@QAE@ABV01@@Z
  0000f	c7 06 00 00 00
	00		 mov	 DWORD PTR [esi], OFFSET ??_7bad_alloc@std@@6B@
  00015	8b c6		 mov	 eax, esi
  00017	5e		 pop	 esi
  00018	5d		 pop	 ebp
  00019	c2 04 00	 ret	 4
??0bad_alloc@std@@QAE@ABV01@@Z ENDP			; std::bad_alloc::bad_alloc
_TEXT	ENDS
PUBLIC	??$forward@ABVioHashString@@@std@@YAABVioHashString@@ABV1@@Z ; std::forward<ioHashString const &>
; Function compile flags: /Ogsp
; File c:\program files (x86)\microsoft visual studio 10.0\vc\include\utility
;	COMDAT ??$forward@ABVioHashString@@@std@@YAABVioHashString@@ABV1@@Z
_TEXT	SEGMENT
__Arg$ = 8						; size = 4
??$forward@ABVioHashString@@@std@@YAABVioHashString@@ABV1@@Z PROC ; std::forward<ioHashString const &>, COMDAT

; 78   : 	{	// forward _Arg, given explicitly specified type parameter

  00000	55		 push	 ebp
  00001	8b ec		 mov	 ebp, esp

; 79   : 	return ((_Ty&&)_Arg);

  00003	8b 45 08	 mov	 eax, DWORD PTR __Arg$[ebp]

; 80   : 	}

  00006	5d		 pop	 ebp
  00007	c3		 ret	 0
??$forward@ABVioHashString@@@std@@YAABVioHashString@@ABV1@@Z ENDP ; std::forward<ioHashString const &>
_TEXT	ENDS
PUBLIC	??$forward@AAVioHashString@@@std@@YAAAVioHashString@@AAV1@@Z ; std::forward<ioHashString &>
; Function compile flags: /Ogsp
;	COMDAT ??$forward@AAVioHashString@@@std@@YAAAVioHashString@@AAV1@@Z
_TEXT	SEGMENT
__Arg$ = 8						; size = 4
??$forward@AAVioHashString@@@std@@YAAAVioHashString@@AAV1@@Z PROC ; std::forward<ioHashString &>, COMDAT

; 78   : 	{	// forward _Arg, given explicitly specified type parameter

  00000	55		 push	 ebp
  00001	8b ec		 mov	 ebp, esp

; 79   : 	return ((_Ty&&)_Arg);

  00003	8b 45 08	 mov	 eax, DWORD PTR __Arg$[ebp]

; 80   : 	}

  00006	5d		 pop	 ebp
  00007	c3		 ret	 0
??$forward@AAVioHashString@@@std@@YAAAVioHashString@@AAV1@@Z ENDP ; std::forward<ioHashString &>
_TEXT	ENDS
PUBLIC	??$_Ptr_cat@VioHashString@@V1@@std@@YA?AU_Nonscalar_ptr_iterator_tag@0@PAVioHashString@@0@Z ; std::_Ptr_cat<ioHashString,ioHashString>
; Function compile flags: /Ogsp
; File c:\program files (x86)\microsoft visual studio 10.0\vc\include\xutility
;	COMDAT ??$_Ptr_cat@VioHashString@@V1@@std@@YA?AU_Nonscalar_ptr_iterator_tag@0@PAVioHashString@@0@Z
_TEXT	SEGMENT
__Cat$ = -1						; size = 1
___formal$ = 8						; size = 4
___formal$ = 12						; size = 4
??$_Ptr_cat@VioHashString@@V1@@std@@YA?AU_Nonscalar_ptr_iterator_tag@0@PAVioHashString@@0@Z PROC ; std::_Ptr_cat<ioHashString,ioHashString>, COMDAT

; 516  : 	{	// return pointer category from pointers

  00000	55		 push	 ebp
  00001	8b ec		 mov	 ebp, esp
  00003	51		 push	 ecx

; 517  : 	typename _Ptr_cat_helper<_Elem1, _Elem2>::_Type _Cat;
; 518  : 	return (_Cat);

  00004	8a 45 ff	 mov	 al, BYTE PTR __Cat$[ebp]

; 519  : 	}

  00007	c9		 leave
  00008	c3		 ret	 0
??$_Ptr_cat@VioHashString@@V1@@std@@YA?AU_Nonscalar_ptr_iterator_tag@0@PAVioHashString@@0@Z ENDP ; std::_Ptr_cat<ioHashString,ioHashString>
_TEXT	ENDS
PUBLIC	??_GioHashString@@QAEPAXI@Z			; ioHashString::`scalar deleting destructor'
EXTRN	__imp_??1ioHashString@@QAE@XZ:PROC
; Function compile flags: /Ogsp
;	COMDAT ??_GioHashString@@QAEPAXI@Z
_TEXT	SEGMENT
___flags$ = 8						; size = 4
??_GioHashString@@QAEPAXI@Z PROC			; ioHashString::`scalar deleting destructor', COMDAT
; _this$ = ecx
  00000	55		 push	 ebp
  00001	8b ec		 mov	 ebp, esp
  00003	56		 push	 esi
  00004	8b f1		 mov	 esi, ecx
  00006	ff 15 00 00 00
	00		 call	 DWORD PTR __imp_??1ioHashString@@QAE@XZ
  0000c	f6 45 08 01	 test	 BYTE PTR ___flags$[ebp], 1
  00010	74 07		 je	 SHORT $LN1@scalar@5
  00012	56		 push	 esi
  00013	e8 00 00 00 00	 call	 ??3@YAXPAX@Z		; operator delete
  00018	59		 pop	 ecx
$LN1@scalar@5:
  00019	8b c6		 mov	 eax, esi
  0001b	5e		 pop	 esi
  0001c	5d		 pop	 ebp
  0001d	c2 04 00	 ret	 4
??_GioHashString@@QAEPAXI@Z ENDP			; ioHashString::`scalar deleting destructor'
_TEXT	ENDS
PUBLIC	??$_Construct@VioHashString@@ABV1@@std@@YAXPAVioHashString@@ABV1@@Z ; std::_Construct<ioHashString,ioHashString const &>
EXTRN	__imp_??0ioHashString@@QAE@ABV0@@Z:PROC
EXTRN	___CxxFrameHandler3:PROC
EXTRN	@__security_check_cookie@4:PROC
EXTRN	__EH_epilog3:PROC
EXTRN	__EH_prolog3:PROC
;	COMDAT xdata$x
; File c:\program files (x86)\microsoft visual studio 10.0\vc\include\utility
xdata$x	SEGMENT
__unwindtable$??$_Construct@VioHashString@@ABV1@@std@@YAXPAVioHashString@@ABV1@@Z DD 0ffffffffH
	DD	FLAT:__unwindfunclet$??$_Construct@VioHashString@@ABV1@@std@@YAXPAVioHashString@@ABV1@@Z$0
__ehfuncinfo$??$_Construct@VioHashString@@ABV1@@std@@YAXPAVioHashString@@ABV1@@Z DD 019930522H
	DD	01H
	DD	FLAT:__unwindtable$??$_Construct@VioHashString@@ABV1@@std@@YAXPAVioHashString@@ABV1@@Z
	DD	2 DUP(00H)
	DD	2 DUP(00H)
	DD	00H
	DD	01H
; Function compile flags: /Ogsp
; File c:\program files (x86)\microsoft visual studio 10.0\vc\include\xmemory
xdata$x	ENDS
;	COMDAT ??$_Construct@VioHashString@@ABV1@@std@@YAXPAVioHashString@@ABV1@@Z
_TEXT	SEGMENT
$T536086 = -16						; size = 4
__$EHRec$ = -12						; size = 12
__Vptr$ = 8						; size = 4
__Ptr$ = 8						; size = 4
__Val$ = 12						; size = 4
??$_Construct@VioHashString@@ABV1@@std@@YAXPAVioHashString@@ABV1@@Z PROC ; std::_Construct<ioHashString,ioHashString const &>, COMDAT

; 46   : 	{	// construct object at _Ptr with value _Val

  00000	6a 04		 push	 4
  00002	b8 00 00 00 00	 mov	 eax, __ehhandler$??$_Construct@VioHashString@@ABV1@@std@@YAXPAVioHashString@@ABV1@@Z
  00007	e8 00 00 00 00	 call	 __EH_prolog3

; 47   : 	void _FARQ *_Vptr = _Ptr;

  0000c	8b 4d 08	 mov	 ecx, DWORD PTR __Ptr$[ebp]
  0000f	89 4d 08	 mov	 DWORD PTR __Vptr$[ebp], ecx

; 48   : 	::new (_Vptr) _Ty1(_STD forward<_Ty2>(_Val));

  00012	89 4d f0	 mov	 DWORD PTR $T536086[ebp], ecx
  00015	83 65 fc 00	 and	 DWORD PTR __$EHRec$[ebp+8], 0
  00019	85 c9		 test	 ecx, ecx
  0001b	74 09		 je	 SHORT $LN3@Construct@2
  0001d	ff 75 0c	 push	 DWORD PTR __Val$[ebp]
  00020	ff 15 00 00 00
	00		 call	 DWORD PTR __imp_??0ioHashString@@QAE@ABV0@@Z
$LN3@Construct@2:

; 49   : 	}

  00026	e8 00 00 00 00	 call	 __EH_epilog3
  0002b	c3		 ret	 0
_TEXT	ENDS
;	COMDAT text$x
text$x	SEGMENT
__unwindfunclet$??$_Construct@VioHashString@@ABV1@@std@@YAXPAVioHashString@@ABV1@@Z$0:
  00000	ff 75 08	 push	 DWORD PTR __Vptr$[ebp]
  00003	ff 75 f0	 push	 DWORD PTR $T536086[ebp]
  00006	e8 00 00 00 00	 call	 ??3@YAXPAX0@Z		; operator delete
  0000b	59		 pop	 ecx
  0000c	59		 pop	 ecx
  0000d	c3		 ret	 0
__ehhandler$??$_Construct@VioHashString@@ABV1@@std@@YAXPAVioHashString@@ABV1@@Z:
  0000e	8b 54 24 08	 mov	 edx, DWORD PTR [esp+8]
  00012	8d 42 0c	 lea	 eax, DWORD PTR [edx+12]
  00015	8b 4a ec	 mov	 ecx, DWORD PTR [edx-20]
  00018	33 c8		 xor	 ecx, eax
  0001a	e8 00 00 00 00	 call	 @__security_check_cookie@4
  0001f	b8 00 00 00 00	 mov	 eax, OFFSET __ehfuncinfo$??$_Construct@VioHashString@@ABV1@@std@@YAXPAVioHashString@@ABV1@@Z
  00024	e9 00 00 00 00	 jmp	 ___CxxFrameHandler3
text$x	ENDS
??$_Construct@VioHashString@@ABV1@@std@@YAXPAVioHashString@@ABV1@@Z ENDP ; std::_Construct<ioHashString,ioHashString const &>
PUBLIC	??_R0?AVioBaseChar@@@8				; ioBaseChar `RTTI Type Descriptor'
PUBLIC	?ToBaseChar@@YAPAVioBaseChar@@PAVioGameEntity@@@Z ; ToBaseChar
;	COMDAT ??_R0?AVioBaseChar@@@8
; File d:\lost saga for developer\youtube\tutorial\source\src\lsclient\iobasechar.h
_DATA	SEGMENT
??_R0?AVioBaseChar@@@8 DD FLAT:??_7type_info@@6B@	; ioBaseChar `RTTI Type Descriptor'
	DD	00H
	DB	'.?AVioBaseChar@@', 00H
; Function compile flags: /Ogsp
_DATA	ENDS
;	COMDAT ?ToBaseChar@@YAPAVioBaseChar@@PAVioGameEntity@@@Z
_TEXT	SEGMENT
_pObj$ = 8						; size = 4
?ToBaseChar@@YAPAVioBaseChar@@PAVioGameEntity@@@Z PROC	; ToBaseChar, COMDAT

; 4326 : {

  00000	55		 push	 ebp
  00001	8b ec		 mov	 ebp, esp
  00003	56		 push	 esi

; 4327 : 	ioPlayEntity *pPlay = ToPlayEntity( pObj );

  00004	ff 75 08	 push	 DWORD PTR _pObj$[ebp]
  00007	e8 00 00 00 00	 call	 ?ToPlayEntity@@YAPAVioPlayEntity@@PAVioGameEntity@@@Z ; ToPlayEntity
  0000c	8b f0		 mov	 esi, eax
  0000e	59		 pop	 ecx

; 4328 : 	if( !pPlay || pPlay->GetSubType() != ioPlayEntity::PST_CHAR )

  0000f	85 f6		 test	 esi, esi
  00011	74 25		 je	 SHORT $LN1@ToBaseChar
  00013	8b 06		 mov	 eax, DWORD PTR [esi]
  00015	8b ce		 mov	 ecx, esi
  00017	ff 90 a4 00 00
	00		 call	 DWORD PTR [eax+164]
  0001d	85 c0		 test	 eax, eax
  0001f	75 17		 jne	 SHORT $LN1@ToBaseChar

; 4330 : 
; 4331 : 	return dynamic_cast< ioBaseChar* >( pPlay );

  00021	50		 push	 eax
  00022	68 00 00 00 00	 push	 OFFSET ??_R0?AVioBaseChar@@@8
  00027	68 00 00 00 00	 push	 OFFSET ??_R0?AVioPlayEntity@@@8
  0002c	50		 push	 eax
  0002d	56		 push	 esi
  0002e	e8 00 00 00 00	 call	 ___RTDynamicCast
  00033	83 c4 14	 add	 esp, 20			; 00000014H
  00036	eb 02		 jmp	 SHORT $LN3@ToBaseChar
$LN1@ToBaseChar:

; 4329 : 		return NULL;

  00038	33 c0		 xor	 eax, eax
$LN3@ToBaseChar:
  0003a	5e		 pop	 esi

; 4332 : }

  0003b	5d		 pop	 ebp
  0003c	c3		 ret	 0
?ToBaseChar@@YAPAVioBaseChar@@PAVioGameEntity@@@Z ENDP	; ToBaseChar
_TEXT	ENDS
PUBLIC	__$ArrayPad$
PUBLIC	?SetMoveDir@ioAttachWeapon@@UAEXABUD3DXVECTOR3@@@Z ; ioAttachWeapon::SetMoveDir
EXTRN	?SetOrientation@ioWeapon@@QAEXABUD3DXQUATERNION@@@Z:PROC ; ioWeapon::SetOrientation
EXTRN	__imp_?CalcDirectionQuaternion@ioMath@@SAXAAUD3DXQUATERNION@@ABUD3DXVECTOR3@@@Z:PROC
EXTRN	___security_cookie:DWORD
; Function compile flags: /Ogsp
; File d:\lost saga for developer\youtube\tutorial\source\src\lsclient\ioattachweapon.cpp
;	COMDAT ?SetMoveDir@ioAttachWeapon@@UAEXABUD3DXVECTOR3@@@Z
_TEXT	SEGMENT
_qtRot$ = -32						; size = 16
$T531722 = -16						; size = 12
__$ArrayPad$ = -4					; size = 4
_vDir$ = 8						; size = 4
?SetMoveDir@ioAttachWeapon@@UAEXABUD3DXVECTOR3@@@Z PROC	; ioAttachWeapon::SetMoveDir, COMDAT
; _this$ = ecx

; 114  : {

  00000	55		 push	 ebp
  00001	8b ec		 mov	 ebp, esp
  00003	83 ec 20	 sub	 esp, 32			; 00000020H
  00006	a1 00 00 00 00	 mov	 eax, DWORD PTR ___security_cookie
  0000b	33 c5		 xor	 eax, ebp
  0000d	89 45 fc	 mov	 DWORD PTR __$ArrayPad$[ebp], eax
  00010	8b 45 08	 mov	 eax, DWORD PTR _vDir$[ebp]
  00013	53		 push	 ebx
  00014	56		 push	 esi
  00015	57		 push	 edi
  00016	8b d9		 mov	 ebx, ecx

; 115  : 	m_vMoveDir = vDir;

  00018	8b f0		 mov	 esi, eax
  0001a	8d bb 10 0a 00
	00		 lea	 edi, DWORD PTR [ebx+2576]
  00020	a5		 movsd
  00021	a5		 movsd
  00022	a5		 movsd

; 116  : 
; 117  : 	D3DXQUATERNION qtRot;
; 118  : 	ioMath::CalcDirectionQuaternion( qtRot, -vDir );

  00023	f3 0f 10 08	 movss	 xmm1, DWORD PTR [eax]
  00027	f3 0f 10 05 00
	00 00 00	 movss	 xmm0, DWORD PTR __mask@@NegFloat@
  0002f	0f 57 c8	 xorps	 xmm1, xmm0
  00032	f3 0f 11 4d f0	 movss	 DWORD PTR $T531722[ebp], xmm1
  00037	f3 0f 10 48 04	 movss	 xmm1, DWORD PTR [eax+4]
  0003c	0f 57 c8	 xorps	 xmm1, xmm0
  0003f	f3 0f 11 4d f4	 movss	 DWORD PTR $T531722[ebp+4], xmm1
  00044	f3 0f 10 48 08	 movss	 xmm1, DWORD PTR [eax+8]
  00049	8d 45 f0	 lea	 eax, DWORD PTR $T531722[ebp]
  0004c	50		 push	 eax
  0004d	8d 45 e0	 lea	 eax, DWORD PTR _qtRot$[ebp]
  00050	0f 57 c8	 xorps	 xmm1, xmm0
  00053	50		 push	 eax
  00054	f3 0f 11 4d f8	 movss	 DWORD PTR $T531722[ebp+8], xmm1
  00059	ff 15 00 00 00
	00		 call	 DWORD PTR __imp_?CalcDirectionQuaternion@ioMath@@SAXAAUD3DXQUATERNION@@ABUD3DXVECTOR3@@@Z
  0005f	59		 pop	 ecx
  00060	59		 pop	 ecx

; 119  : 	SetOrientation( qtRot );

  00061	8d 45 e0	 lea	 eax, DWORD PTR _qtRot$[ebp]
  00064	50		 push	 eax
  00065	8b cb		 mov	 ecx, ebx
  00067	e8 00 00 00 00	 call	 ?SetOrientation@ioWeapon@@QAEXABUD3DXQUATERNION@@@Z ; ioWeapon::SetOrientation

; 120  : }

  0006c	8b 4d fc	 mov	 ecx, DWORD PTR __$ArrayPad$[ebp]
  0006f	5f		 pop	 edi
  00070	5e		 pop	 esi
  00071	33 cd		 xor	 ecx, ebp
  00073	5b		 pop	 ebx
  00074	e8 00 00 00 00	 call	 @__security_check_cookie@4
  00079	c9		 leave
  0007a	c2 04 00	 ret	 4
?SetMoveDir@ioAttachWeapon@@UAEXABUD3DXVECTOR3@@@Z ENDP	; ioAttachWeapon::SetMoveDir
_TEXT	ENDS
PUBLIC	__real@4f800000
PUBLIC	?SetStartPosition@ioAttachWeapon@@UAEXABUD3DXVECTOR3@@PAVioPlayStage@@@Z ; ioAttachWeapon::SetStartPosition
EXTRN	__imp_??D@YA?AUD3DXVECTOR3@@ABUD3DXQUATERNION@@ABU0@@Z:PROC
EXTRN	?SetPosition@ioWeapon@@QAEXABUD3DXVECTOR3@@@Z:PROC ; ioWeapon::SetPosition
EXTRN	?GetOwner@ioWeapon@@QBEPAVioBaseChar@@XZ:PROC	; ioWeapon::GetOwner
EXTRN	__imp_?HasLinkedSystem@ioEffect@@QBE_NXZ:PROC
EXTRN	__imp_?IsEmpty@ioHashString@@QBE_NXZ:PROC
EXTRN	__imp_?GetSkeletonName@ioEffect@@QBE?AVioHashString@@XZ:PROC
EXTRN	__EH_epilog3_GS:PROC
EXTRN	__EH_prolog3_GS:PROC
;	COMDAT __real@4f800000
; File d:\lost saga for developer\youtube\tutorial\source\src\lsclient\iobasechar.h
CONST	SEGMENT
__real@4f800000 DD 04f800000r			; 4.29497e+009
CONST	ENDS
;	COMDAT xdata$x
xdata$x	SEGMENT
__unwindtable$?SetStartPosition@ioAttachWeapon@@UAEXABUD3DXVECTOR3@@PAVioPlayStage@@@Z DD 0ffffffffH
	DD	FLAT:__unwindfunclet$?SetStartPosition@ioAttachWeapon@@UAEXABUD3DXVECTOR3@@PAVioPlayStage@@@Z$0
__ehfuncinfo$?SetStartPosition@ioAttachWeapon@@UAEXABUD3DXVECTOR3@@PAVioPlayStage@@@Z DD 019930522H
	DD	01H
	DD	FLAT:__unwindtable$?SetStartPosition@ioAttachWeapon@@UAEXABUD3DXVECTOR3@@PAVioPlayStage@@@Z
	DD	2 DUP(00H)
	DD	2 DUP(00H)
	DD	00H
	DD	01H
; Function compile flags: /Ogsp
; File d:\lost saga for developer\youtube\tutorial\source\src\lsclient\ioattachweapon.cpp
xdata$x	ENDS
;	COMDAT ?SetStartPosition@ioAttachWeapon@@UAEXABUD3DXVECTOR3@@PAVioPlayStage@@@Z
_TEXT	SEGMENT
tv297 = -76						; size = 4
tv278 = -76						; size = 4
$T536137 = -76						; size = 4
$T536133 = -69						; size = 1
$T531736 = -68						; size = 12
$T536134 = -56						; size = 16
$T531733 = -52						; size = 12
$T531735 = -40						; size = 12
$T531732 = -28						; size = 12
__$EHRec$ = -12						; size = 12
_vPos$ = 8						; size = 4
_pStage$ = 12						; size = 4
?SetStartPosition@ioAttachWeapon@@UAEXABUD3DXVECTOR3@@PAVioPlayStage@@@Z PROC ; ioAttachWeapon::SetStartPosition, COMDAT
; _this$ = ecx

; 123  : {

  00000	6a 40		 push	 64			; 00000040H
  00002	b8 00 00 00 00	 mov	 eax, __ehhandler$?SetStartPosition@ioAttachWeapon@@UAEXABUD3DXVECTOR3@@PAVioPlayStage@@@Z
  00007	e8 00 00 00 00	 call	 __EH_prolog3_GS
  0000c	83 65 b4 00	 and	 DWORD PTR $T536137[ebp], 0
  00010	8b 75 08	 mov	 esi, DWORD PTR _vPos$[ebp]
  00013	8b d9		 mov	 ebx, ecx

; 124  : 	if( m_pFireBall && m_pFireBall->GetSkeletonName().IsEmpty() && m_pFireBall->HasLinkedSystem() )

  00015	8b 8b 60 0a 00
	00		 mov	 ecx, DWORD PTR [ebx+2656]
  0001b	85 c9		 test	 ecx, ecx
  0001d	74 35		 je	 SHORT $LN4@SetStartPo
  0001f	8d 45 c8	 lea	 eax, DWORD PTR $T536134[ebp]
  00022	50		 push	 eax
  00023	ff 15 00 00 00
	00		 call	 DWORD PTR __imp_?GetSkeletonName@ioEffect@@QBE?AVioHashString@@XZ
  00029	83 65 fc 00	 and	 DWORD PTR __$EHRec$[ebp+8], 0
  0002d	8b c8		 mov	 ecx, eax
  0002f	c7 45 b4 01 00
	00 00		 mov	 DWORD PTR $T536137[ebp], 1
  00036	ff 15 00 00 00
	00		 call	 DWORD PTR __imp_?IsEmpty@ioHashString@@QBE_NXZ
  0003c	84 c0		 test	 al, al
  0003e	74 14		 je	 SHORT $LN4@SetStartPo
  00040	8b 8b 60 0a 00
	00		 mov	 ecx, DWORD PTR [ebx+2656]
  00046	ff 15 00 00 00
	00		 call	 DWORD PTR __imp_?HasLinkedSystem@ioEffect@@QBE_NXZ
  0004c	c6 45 bb 01	 mov	 BYTE PTR $T536133[ebp], 1
  00050	84 c0		 test	 al, al
  00052	75 04		 jne	 SHORT $LN5@SetStartPo
$LN4@SetStartPo:
  00054	c6 45 bb 00	 mov	 BYTE PTR $T536133[ebp], 0
$LN5@SetStartPo:
  00058	83 4d fc ff	 or	 DWORD PTR __$EHRec$[ebp+8], -1
  0005c	f6 45 b4 01	 test	 BYTE PTR $T536137[ebp], 1
  00060	74 09		 je	 SHORT $LN8@SetStartPo
  00062	8d 4d c8	 lea	 ecx, DWORD PTR $T536134[ebp]
  00065	ff 15 00 00 00
	00		 call	 DWORD PTR __imp_??1ioHashString@@QAE@XZ
$LN8@SetStartPo:
  0006b	80 7d bb 00	 cmp	 BYTE PTR $T536133[ebp], 0
  0006f	74 3d		 je	 SHORT $LN1@SetStartPo

; 125  : 	{
; 126  : 		m_vMoveDir = GetOwner()->GetTargetRot() * D3DXVECTOR3( 0.0f, 0.0f, -FLOAT1 );

  00071	b8 01 00 00 00	 mov	 eax, 1
  00076	0f 57 c0	 xorps	 xmm0, xmm0
  00079	89 45 b4	 mov	 DWORD PTR tv297[ebp], eax
  0007c	db 45 b4	 fild	 DWORD PTR tv297[ebp]
  0007f	f3 0f 11 45 e4	 movss	 DWORD PTR $T531732[ebp], xmm0
  00084	f3 0f 11 45 e8	 movss	 DWORD PTR $T531732[ebp+4], xmm0
  00089	85 c0		 test	 eax, eax
  0008b	79 06		 jns	 SHORT $LN27@SetStartPo
  0008d	d8 05 00 00 00
	00		 fadd	 DWORD PTR __real@4f800000
$LN27@SetStartPo:
  00093	d9 e0		 fchs
  00095	8b cb		 mov	 ecx, ebx
  00097	d9 5d ec	 fstp	 DWORD PTR $T531732[ebp+8]
  0009a	e8 00 00 00 00	 call	 ?GetOwner@ioWeapon@@QBEPAVioBaseChar@@XZ ; ioWeapon::GetOwner
  0009f	8d 4d e4	 lea	 ecx, DWORD PTR $T531732[ebp]
  000a2	05 a4 06 00 00	 add	 eax, 1700		; 000006a4H
  000a7	51		 push	 ecx
  000a8	50		 push	 eax
  000a9	8d 45 cc	 lea	 eax, DWORD PTR $T531733[ebp]

; 127  : 		SetOrientation( GetOwner()->GetTargetRot() );
; 128  : 		return;

  000ac	eb 43		 jmp	 SHORT $LN29@SetStartPo
$LN1@SetStartPo:

; 129  : 	}
; 130  : 
; 131  : 	SetPosition( vPos );

  000ae	56		 push	 esi
  000af	8b cb		 mov	 ecx, ebx
  000b1	e8 00 00 00 00	 call	 ?SetPosition@ioWeapon@@QAEXABUD3DXVECTOR3@@@Z ; ioWeapon::SetPosition

; 132  : 	m_vMoveDir = GetOwner()->GetTargetRot() * D3DXVECTOR3( 0.0f, 0.0f, -FLOAT1 );

  000b6	b8 01 00 00 00	 mov	 eax, 1
  000bb	0f 57 c0	 xorps	 xmm0, xmm0
  000be	89 45 b4	 mov	 DWORD PTR tv278[ebp], eax
  000c1	db 45 b4	 fild	 DWORD PTR tv278[ebp]
  000c4	f3 0f 11 45 d8	 movss	 DWORD PTR $T531735[ebp], xmm0
  000c9	f3 0f 11 45 dc	 movss	 DWORD PTR $T531735[ebp+4], xmm0
  000ce	85 c0		 test	 eax, eax
  000d0	79 06		 jns	 SHORT $LN28@SetStartPo
  000d2	d8 05 00 00 00
	00		 fadd	 DWORD PTR __real@4f800000
$LN28@SetStartPo:
  000d8	d9 e0		 fchs
  000da	8b cb		 mov	 ecx, ebx
  000dc	d9 5d e0	 fstp	 DWORD PTR $T531735[ebp+8]
  000df	e8 00 00 00 00	 call	 ?GetOwner@ioWeapon@@QBEPAVioBaseChar@@XZ ; ioWeapon::GetOwner
  000e4	8d 4d d8	 lea	 ecx, DWORD PTR $T531735[ebp]
  000e7	05 a4 06 00 00	 add	 eax, 1700		; 000006a4H
  000ec	51		 push	 ecx
  000ed	50		 push	 eax
  000ee	8d 45 bc	 lea	 eax, DWORD PTR $T531736[ebp]
$LN29@SetStartPo:
  000f1	50		 push	 eax
  000f2	ff 15 00 00 00
	00		 call	 DWORD PTR __imp_??D@YA?AUD3DXVECTOR3@@ABUD3DXQUATERNION@@ABU0@@Z
  000f8	8b f0		 mov	 esi, eax
  000fa	8d bb 10 0a 00
	00		 lea	 edi, DWORD PTR [ebx+2576]
  00100	a5		 movsd
  00101	a5		 movsd
  00102	83 c4 0c	 add	 esp, 12			; 0000000cH

; 133  : 	SetOrientation( GetOwner()->GetTargetRot() );

  00105	8b cb		 mov	 ecx, ebx
  00107	a5		 movsd
  00108	e8 00 00 00 00	 call	 ?GetOwner@ioWeapon@@QBEPAVioBaseChar@@XZ ; ioWeapon::GetOwner
  0010d	05 a4 06 00 00	 add	 eax, 1700		; 000006a4H
  00112	50		 push	 eax
  00113	8b cb		 mov	 ecx, ebx
  00115	e8 00 00 00 00	 call	 ?SetOrientation@ioWeapon@@QAEXABUD3DXQUATERNION@@@Z ; ioWeapon::SetOrientation

; 134  : }

  0011a	e8 00 00 00 00	 call	 __EH_epilog3_GS
  0011f	c2 08 00	 ret	 8
_TEXT	ENDS
;	COMDAT text$x
text$x	SEGMENT
__unwindfunclet$?SetStartPosition@ioAttachWeapon@@UAEXABUD3DXVECTOR3@@PAVioPlayStage@@@Z$0:
  00000	8b 45 b4	 mov	 eax, DWORD PTR $T536137[ebp]
  00003	83 e0 01	 and	 eax, 1
  00006	0f 84 0d 00 00
	00		 je	 $LN7@SetStartPo
  0000c	83 65 b4 fe	 and	 DWORD PTR $T536137[ebp], -2 ; fffffffeH
  00010	8d 4d c8	 lea	 ecx, DWORD PTR $T536134[ebp]
  00013	ff 25 00 00 00
	00		 jmp	 DWORD PTR __imp_??1ioHashString@@QAE@XZ
$LN7@SetStartPo:
  00019	c3		 ret	 0
__ehhandler$?SetStartPosition@ioAttachWeapon@@UAEXABUD3DXVECTOR3@@PAVioPlayStage@@@Z:
  0001a	8b 54 24 08	 mov	 edx, DWORD PTR [esp+8]
  0001e	8d 42 0c	 lea	 eax, DWORD PTR [edx+12]
  00021	8b 4a b0	 mov	 ecx, DWORD PTR [edx-80]
  00024	33 c8		 xor	 ecx, eax
  00026	e8 00 00 00 00	 call	 @__security_check_cookie@4
  0002b	8b 4a fc	 mov	 ecx, DWORD PTR [edx-4]
  0002e	33 c8		 xor	 ecx, eax
  00030	e8 00 00 00 00	 call	 @__security_check_cookie@4
  00035	b8 00 00 00 00	 mov	 eax, OFFSET __ehfuncinfo$?SetStartPosition@ioAttachWeapon@@UAEXABUD3DXVECTOR3@@PAVioPlayStage@@@Z
  0003a	e9 00 00 00 00	 jmp	 ___CxxFrameHandler3
text$x	ENDS
?SetStartPosition@ioAttachWeapon@@UAEXABUD3DXVECTOR3@@PAVioPlayStage@@@Z ENDP ; ioAttachWeapon::SetStartPosition
PUBLIC	__real@0000000000000000
PUBLIC	__$ArrayPad$
PUBLIC	?Process@ioAttachWeapon@@UAEXMPAVioPlayStage@@@Z ; ioAttachWeapon::Process
EXTRN	?CreateMapEffect@ioPlayStage@@QAEPAVioMapEffect@@ABVioHashString@@ABUD3DXVECTOR3@@1@Z:PROC ; ioPlayStage::CreateMapEffect
EXTRN	?GetWeaponEndEffect@ioWeapon@@QBEABVioHashString@@XZ:PROC ; ioWeapon::GetWeaponEndEffect
EXTRN	?GetScale@ioWeapon@@QBEABUD3DXVECTOR3@@XZ:PROC	; ioWeapon::GetScale
EXTRN	__imp_?GetLoopSec@ioFrameTimer@@QBEKXZ:PROC
EXTRN	__imp_?GetSingleton@ioFrameTimer@@SAAAV1@XZ:PROC
;	COMDAT __real@0000000000000000
; File d:\lost saga for developer\youtube\tutorial\source\src\lsclient\stdafx.h
CONST	SEGMENT
__real@0000000000000000 DQ 00000000000000000r	; 0
; Function compile flags: /Ogsp
; File d:\lost saga for developer\youtube\tutorial\source\src\lsclient\ioattachweapon.cpp
CONST	ENDS
;	COMDAT ?Process@ioAttachWeapon@@UAEXMPAVioPlayStage@@@Z
_TEXT	SEGMENT
_qt$ = -48						; size = 16
$T531754 = -32						; size = 12
_vLook$ = -32						; size = 12
tv598 = -20						; size = 4
tv595 = -20						; size = 4
tv529 = -20						; size = 4
tv526 = -20						; size = 4
_pOwner$ = -20						; size = 4
_vPos$ = -16						; size = 12
__$ArrayPad$ = -4					; size = 4
_fTimePerSec$ = 8					; size = 4
_pStage$ = 12						; size = 4
?Process@ioAttachWeapon@@UAEXMPAVioPlayStage@@@Z PROC	; ioAttachWeapon::Process, COMDAT
; _this$ = ecx

; 137  : {

  00000	55		 push	 ebp
  00001	8b ec		 mov	 ebp, esp
  00003	83 ec 30	 sub	 esp, 48			; 00000030H
  00006	a1 00 00 00 00	 mov	 eax, DWORD PTR ___security_cookie
  0000b	33 c5		 xor	 eax, ebp
  0000d	89 45 fc	 mov	 DWORD PTR __$ArrayPad$[ebp], eax
  00010	53		 push	 ebx
  00011	56		 push	 esi
  00012	8b 75 0c	 mov	 esi, DWORD PTR _pStage$[ebp]
  00015	57		 push	 edi
  00016	8b d9		 mov	 ebx, ecx

; 138  : 	//    Weapon .
; 139  : 	if( m_dwCreatedTime + GetLiveTime() < FRAMEGETTIME() )

  00018	ff 15 00 00 00
	00		 call	 DWORD PTR __imp_?GetSingleton@ioFrameTimer@@SAAAV1@XZ
  0001e	8b c8		 mov	 ecx, eax
  00020	ff 15 00 00 00
	00		 call	 DWORD PTR __imp_?GetLoopSec@ioFrameTimer@@QBEKXZ
  00026	8b f8		 mov	 edi, eax
  00028	8b 03		 mov	 eax, DWORD PTR [ebx]
  0002a	8b cb		 mov	 ecx, ebx
  0002c	ff 90 04 01 00
	00		 call	 DWORD PTR [eax+260]
  00032	03 83 d4 04 00
	00		 add	 eax, DWORD PTR [ebx+1236]
  00038	3b c7		 cmp	 eax, edi
  0003a	73 7f		 jae	 SHORT $LN5@Process

; 140  : 	{
; 141  : 		UpdateWorldAttackBox( fTimePerSec, false );

  0003c	f3 0f 10 45 08	 movss	 xmm0, DWORD PTR _fTimePerSec$[ebp]
  00041	8b 03		 mov	 eax, DWORD PTR [ebx]
  00043	6a 00		 push	 0
  00045	51		 push	 ecx
  00046	8b cb		 mov	 ecx, ebx
  00048	f3 0f 11 04 24	 movss	 DWORD PTR [esp], xmm0
  0004d	ff 90 38 01 00
	00		 call	 DWORD PTR [eax+312]

; 142  : 
; 143  : 		if( m_pFireBall )

  00053	83 bb 60 0a 00
	00 00		 cmp	 DWORD PTR [ebx+2656], 0
  0005a	74 30		 je	 SHORT $LN4@Process

; 144  : 			m_pFireBall->Update( fTimePerSec * FLOAT1000 );

  0005c	b8 e8 03 00 00	 mov	 eax, 1000		; 000003e8H
  00061	8b 8b 60 0a 00
	00		 mov	 ecx, DWORD PTR [ebx+2656]
  00067	83 c1 14	 add	 ecx, 20			; 00000014H
  0006a	8b 11		 mov	 edx, DWORD PTR [ecx]
  0006c	89 45 ec	 mov	 DWORD PTR tv598[ebp], eax
  0006f	db 45 ec	 fild	 DWORD PTR tv598[ebp]
  00072	85 c0		 test	 eax, eax
  00074	79 06		 jns	 SHORT $LN28@Process
  00076	d8 05 00 00 00
	00		 fadd	 DWORD PTR __real@4f800000
$LN28@Process:
  0007c	d8 4d 08	 fmul	 DWORD PTR _fTimePerSec$[ebp]
  0007f	51		 push	 ecx
  00080	d9 5d ec	 fstp	 DWORD PTR tv595[ebp]
  00083	d9 45 ec	 fld	 DWORD PTR tv595[ebp]
  00086	d9 1c 24	 fstp	 DWORD PTR [esp]
  00089	ff 52 40	 call	 DWORD PTR [edx+64]
$LN4@Process:

; 145  : 
; 146  : 		if( pStage )

  0008c	85 f6		 test	 esi, esi
  0008e	74 1f		 je	 SHORT $LN3@Process

; 147  : 			pStage->CreateMapEffect( GetWeaponEndEffect(), GetPosition(), GetScale() );

  00090	8b cb		 mov	 ecx, ebx
  00092	e8 00 00 00 00	 call	 ?GetScale@ioWeapon@@QBEABUD3DXVECTOR3@@XZ ; ioWeapon::GetScale
  00097	50		 push	 eax
  00098	8b 03		 mov	 eax, DWORD PTR [ebx]
  0009a	8b cb		 mov	 ecx, ebx
  0009c	ff 50 70	 call	 DWORD PTR [eax+112]
  0009f	50		 push	 eax
  000a0	8b cb		 mov	 ecx, ebx
  000a2	e8 00 00 00 00	 call	 ?GetWeaponEndEffect@ioWeapon@@QBEABVioHashString@@XZ ; ioWeapon::GetWeaponEndEffect
  000a7	50		 push	 eax
  000a8	8b ce		 mov	 ecx, esi
  000aa	e8 00 00 00 00	 call	 ?CreateMapEffect@ioPlayStage@@QAEPAVioMapEffect@@ABVioHashString@@ABUD3DXVECTOR3@@1@Z ; ioPlayStage::CreateMapEffect
$LN3@Process:

; 148  : 		SetWeaponDead();

  000af	8b 03		 mov	 eax, DWORD PTR [ebx]
  000b1	8b cb		 mov	 ecx, ebx
  000b3	ff 50 4c	 call	 DWORD PTR [eax+76]

; 149  : 		return;

  000b6	e9 72 01 00 00	 jmp	 $LN1@Process
$LN5@Process:

; 150  : 	}
; 151  : 
; 152  : 	ioBaseChar *pOwner = GetOwner();

  000bb	8b cb		 mov	 ecx, ebx
  000bd	e8 00 00 00 00	 call	 ?GetOwner@ioWeapon@@QBEPAVioBaseChar@@XZ ; ioWeapon::GetOwner
  000c2	89 45 ec	 mov	 DWORD PTR _pOwner$[ebp], eax

; 153  : 	if( !pOwner )

  000c5	85 c0		 test	 eax, eax

; 154  : 	{
; 155  : 		SetWeaponDead();
; 156  : 		return;

  000c7	74 e6		 je	 SHORT $LN3@Process

; 157  : 	}
; 158  : 	D3DXQUATERNION qt = pOwner->GetWorldOrientation();

  000c9	8b 10		 mov	 edx, DWORD PTR [eax]
  000cb	8b c8		 mov	 ecx, eax
  000cd	ff 52 74	 call	 DWORD PTR [edx+116]

; 159  : 	D3DXVECTOR3 vLook = pOwner->GetMoveDir();

  000d0	8b 4d ec	 mov	 ecx, DWORD PTR _pOwner$[ebp]
  000d3	8b f0		 mov	 esi, eax
  000d5	8d 7d d0	 lea	 edi, DWORD PTR _qt$[ebp]
  000d8	a5		 movsd
  000d9	a5		 movsd
  000da	a5		 movsd
  000db	a5		 movsd

; 160  : 	D3DXVECTOR3 vPos = pOwner->GetWorldPosition();

  000dc	8b 01		 mov	 eax, DWORD PTR [ecx]
  000de	8d b1 b4 06 00
	00		 lea	 esi, DWORD PTR [ecx+1716]
  000e4	8d 7d e0	 lea	 edi, DWORD PTR _vLook$[ebp]
  000e7	a5		 movsd
  000e8	a5		 movsd
  000e9	a5		 movsd
  000ea	ff 50 70	 call	 DWORD PTR [eax+112]

; 161  : 
; 162  : 	vPos = vPos + vLook*m_fOff_Look + D3DXVECTOR3( 0, m_fOff_Y, 0 );

  000ed	f3 0f 10 83 dc
	0a 00 00	 movss	 xmm0, DWORD PTR [ebx+2780]
  000f5	f3 0f 10 55 e0	 movss	 xmm2, DWORD PTR _vLook$[ebp]
  000fa	f3 0f 10 8b d8
	0a 00 00	 movss	 xmm1, DWORD PTR [ebx+2776]
  00102	0f 5a e0	 cvtps2pd xmm4, xmm0
  00105	0f 5a d8	 cvtps2pd xmm3, xmm0
  00108	0f 5a d2	 cvtps2pd xmm2, xmm2
  0010b	f2 0f 59 d3	 mulsd	 xmm2, xmm3
  0010f	f3 0f 10 5d e4	 movss	 xmm3, DWORD PTR _vLook$[ebp+4]
  00114	8b f0		 mov	 esi, eax
  00116	8d 7d f0	 lea	 edi, DWORD PTR _vPos$[ebp]
  00119	a5		 movsd
  0011a	a5		 movsd
  0011b	0f 5a db	 cvtps2pd xmm3, xmm3
  0011e	f2 0f 59 dc	 mulsd	 xmm3, xmm4
  00122	f3 0f 10 65 e8	 movss	 xmm4, DWORD PTR _vLook$[ebp+8]
  00127	0f 5a e4	 cvtps2pd xmm4, xmm4
  0012a	a5		 movsd
  0012b	0f 5a c0	 cvtps2pd xmm0, xmm0
  0012e	f2 0f 59 e0	 mulsd	 xmm4, xmm0
  00132	66 0f 5a d2	 cvtpd2ps xmm2, xmm2
  00136	f3 0f 5a d2	 cvtss2sd xmm2, xmm2
  0013a	0f 57 c0	 xorps	 xmm0, xmm0
  0013d	66 0f 5a c4	 cvtpd2ps xmm0, xmm4
  00141	f3 0f 10 65 f0	 movss	 xmm4, DWORD PTR _vPos$[ebp]
  00146	0f 5a e4	 cvtps2pd xmm4, xmm4
  00149	f2 0f 58 e2	 addsd	 xmm4, xmm2
  0014d	0f 57 d2	 xorps	 xmm2, xmm2
  00150	66 0f 5a d4	 cvtpd2ps xmm2, xmm4
  00154	f3 0f 10 65 f4	 movss	 xmm4, DWORD PTR _vPos$[ebp+4]
  00159	0f 5a d2	 cvtps2pd xmm2, xmm2
  0015c	f2 0f 58 15 00
	00 00 00	 addsd	 xmm2, QWORD PTR __real@0000000000000000
  00164	66 0f 5a db	 cvtpd2ps xmm3, xmm3
  00168	f3 0f 5a db	 cvtss2sd xmm3, xmm3
  0016c	66 0f 5a d2	 cvtpd2ps xmm2, xmm2
  00170	0f 5a c9	 cvtps2pd xmm1, xmm1
  00173	0f 5a e4	 cvtps2pd xmm4, xmm4
  00176	f2 0f 58 e3	 addsd	 xmm4, xmm3
  0017a	f3 0f 11 55 e0	 movss	 DWORD PTR $T531754[ebp], xmm2
  0017f	66 0f 5a dc	 cvtpd2ps xmm3, xmm4
  00183	f3 0f 10 65 f8	 movss	 xmm4, DWORD PTR _vPos$[ebp+8]
  00188	0f 5a c0	 cvtps2pd xmm0, xmm0
  0018b	0f 5a d3	 cvtps2pd xmm2, xmm3
  0018e	f2 0f 58 d1	 addsd	 xmm2, xmm1
  00192	66 0f 5a ca	 cvtpd2ps xmm1, xmm2
  00196	f3 0f 11 4d e4	 movss	 DWORD PTR $T531754[ebp+4], xmm1
  0019b	0f 5a e4	 cvtps2pd xmm4, xmm4
  0019e	f2 0f 58 e0	 addsd	 xmm4, xmm0
  001a2	0f 57 c9	 xorps	 xmm1, xmm1
  001a5	66 0f 5a e4	 cvtpd2ps xmm4, xmm4
  001a9	f3 0f 5a cc	 cvtss2sd xmm1, xmm4
  001ad	f2 0f 58 0d 00
	00 00 00	 addsd	 xmm1, QWORD PTR __real@0000000000000000
  001b5	66 0f 5a c1	 cvtpd2ps xmm0, xmm1
  001b9	f3 0f 11 45 e8	 movss	 DWORD PTR $T531754[ebp+8], xmm0
  001be	8d 75 e0	 lea	 esi, DWORD PTR $T531754[ebp]
  001c1	8d 7d f0	 lea	 edi, DWORD PTR _vPos$[ebp]
  001c4	a5		 movsd
  001c5	a5		 movsd

; 163  : 	SetOrientation( qt );

  001c6	8d 45 d0	 lea	 eax, DWORD PTR _qt$[ebp]
  001c9	50		 push	 eax
  001ca	8b cb		 mov	 ecx, ebx
  001cc	a5		 movsd
  001cd	e8 00 00 00 00	 call	 ?SetOrientation@ioWeapon@@QAEXABUD3DXQUATERNION@@@Z ; ioWeapon::SetOrientation

; 164  : 	SetPosition( vPos );

  001d2	8d 45 f0	 lea	 eax, DWORD PTR _vPos$[ebp]
  001d5	50		 push	 eax
  001d6	8b cb		 mov	 ecx, ebx
  001d8	e8 00 00 00 00	 call	 ?SetPosition@ioWeapon@@QAEXABUD3DXVECTOR3@@@Z ; ioWeapon::SetPosition

; 165  : 
; 166  : 
; 167  : 	UpdateWorldAttackBox( fTimePerSec, false );

  001dd	f3 0f 10 45 08	 movss	 xmm0, DWORD PTR _fTimePerSec$[ebp]
  001e2	8b 03		 mov	 eax, DWORD PTR [ebx]
  001e4	6a 00		 push	 0
  001e6	51		 push	 ecx
  001e7	8b cb		 mov	 ecx, ebx
  001e9	f3 0f 11 04 24	 movss	 DWORD PTR [esp], xmm0
  001ee	ff 90 38 01 00
	00		 call	 DWORD PTR [eax+312]

; 168  : 
; 169  : 
; 170  : 	/*switch( m_State )
; 171  : 	{
; 172  : 	case TS_MOVE:
; 173  : 		OnMove( pStage, fTimePerSec );
; 174  : 		break;
; 175  : 	case TS_TRACING:
; 176  : 		OnTracing( pStage, fTimePerSec );
; 177  : 		break;
; 178  : 	}*/
; 179  : 
; 180  : 	if( m_pFireBall )

  001f4	83 bb 60 0a 00
	00 00		 cmp	 DWORD PTR [ebx+2656], 0
  001fb	74 30		 je	 SHORT $LN1@Process

; 181  : 	{
; 182  : 		m_pFireBall->Update( fTimePerSec * FLOAT1000 );

  001fd	b8 e8 03 00 00	 mov	 eax, 1000		; 000003e8H
  00202	8b 8b 60 0a 00
	00		 mov	 ecx, DWORD PTR [ebx+2656]
  00208	83 c1 14	 add	 ecx, 20			; 00000014H
  0020b	8b 11		 mov	 edx, DWORD PTR [ecx]
  0020d	89 45 ec	 mov	 DWORD PTR tv529[ebp], eax
  00210	db 45 ec	 fild	 DWORD PTR tv529[ebp]
  00213	85 c0		 test	 eax, eax
  00215	79 06		 jns	 SHORT $LN29@Process
  00217	d8 05 00 00 00
	00		 fadd	 DWORD PTR __real@4f800000
$LN29@Process:
  0021d	d8 4d 08	 fmul	 DWORD PTR _fTimePerSec$[ebp]
  00220	51		 push	 ecx
  00221	d9 5d ec	 fstp	 DWORD PTR tv526[ebp]
  00224	d9 45 ec	 fld	 DWORD PTR tv526[ebp]
  00227	d9 1c 24	 fstp	 DWORD PTR [esp]
  0022a	ff 52 40	 call	 DWORD PTR [edx+64]
$LN1@Process:

; 183  : 	}
; 184  : }

  0022d	8b 4d fc	 mov	 ecx, DWORD PTR __$ArrayPad$[ebp]
  00230	5f		 pop	 edi
  00231	5e		 pop	 esi
  00232	33 cd		 xor	 ecx, ebp
  00234	5b		 pop	 ebx
  00235	e8 00 00 00 00	 call	 @__security_check_cookie@4
  0023a	c9		 leave
  0023b	c2 08 00	 ret	 8
?Process@ioAttachWeapon@@UAEXMPAVioPlayStage@@@Z ENDP	; ioAttachWeapon::Process
_TEXT	ENDS
PUBLIC	_this$GSCopy$
PUBLIC	?CreateFireBall@ioAttachWeapon@@IAE_NABVioHashString@@@Z ; ioAttachWeapon::CreateFireBall
EXTRN	__imp_??D@YA?AUD3DXVECTOR3@@ABU0@0@Z:PROC
EXTRN	__imp_?GetBiped@ioEntityGroup@@QAEPAVioBiped@@ABVioHashString@@@Z:PROC
EXTRN	__imp_?GetFirstLinkOffset@ioEffect@@QAE_NAAVioHashString@@AAUD3DXVECTOR3@@AAUD3DXQUATERNION@@@Z:PROC
EXTRN	__imp_??0ioHashString@@QAE@XZ:PROC
EXTRN	__imp_?CreateEffect@ioEffectFactory@@QAEPAVioEffect@@ABVioHashString@@@Z:PROC
;	COMDAT xdata$x
; File c:\program files (x86)\microsoft directx sdk (june 2010)\include\d3dx9math.inl
xdata$x	SEGMENT
__unwindtable$?CreateFireBall@ioAttachWeapon@@IAE_NABVioHashString@@@Z DD 0ffffffffH
	DD	FLAT:__unwindfunclet$?CreateFireBall@ioAttachWeapon@@IAE_NABVioHashString@@@Z$0
	DD	00H
	DD	FLAT:__unwindfunclet$?CreateFireBall@ioAttachWeapon@@IAE_NABVioHashString@@@Z$1
__ehfuncinfo$?CreateFireBall@ioAttachWeapon@@IAE_NABVioHashString@@@Z DD 019930522H
	DD	02H
	DD	FLAT:__unwindtable$?CreateFireBall@ioAttachWeapon@@IAE_NABVioHashString@@@Z
	DD	2 DUP(00H)
	DD	2 DUP(00H)
	DD	00H
	DD	01H
; Function compile flags: /Ogsp
; File d:\lost saga for developer\youtube\tutorial\source\src\lsclient\ioattachweapon.cpp
xdata$x	ENDS
;	COMDAT ?CreateFireBall@ioAttachWeapon@@IAE_NABVioHashString@@@Z
_TEXT	SEGMENT
_qtLinkRotOffset$ = -100				; size = 16
_szLinkBiped$ = -84					; size = 16
$T536256 = -68						; size = 4
_this$GSCopy$ = -64					; size = 4
$T536250 = -57						; size = 1
$T536251 = -56						; size = 16
$T531815 = -52						; size = 12
_vLinkPosOffset$ = -40					; size = 12
$T531816 = -28						; size = 12
$T531814 = -28						; size = 12
$T531813 = -28						; size = 12
$T531812 = -28						; size = 12
__$EHRec$ = -12						; size = 12
_szFileName$ = 8					; size = 4
?CreateFireBall@ioAttachWeapon@@IAE_NABVioHashString@@@Z PROC ; ioAttachWeapon::CreateFireBall, COMDAT
; _this$ = ecx

; 260  : {

  00000	6a 58		 push	 88			; 00000058H
  00002	b8 00 00 00 00	 mov	 eax, __ehhandler$?CreateFireBall@ioAttachWeapon@@IAE_NABVioHashString@@@Z
  00007	e8 00 00 00 00	 call	 __EH_prolog3_GS
  0000c	8b 7d 08	 mov	 edi, DWORD PTR _szFileName$[ebp]
  0000f	83 65 bc 00	 and	 DWORD PTR $T536256[ebp], 0
  00013	8b f1		 mov	 esi, ecx

; 277  : 		{
; 278  : 			vLinkPosOffset = pLinked->GetDerivedOrientation() * vLinkPosOffset + pLinked->GetDerivedPosition();

  00015	89 75 c0	 mov	 DWORD PTR _this$GSCopy$[ebp], esi
  00018	e8 00 00 00 00	 call	 ?GetOwner@ioWeapon@@QBEPAVioBaseChar@@XZ ; ioWeapon::GetOwner
  0001d	8b d8		 mov	 ebx, eax
  0001f	85 db		 test	 ebx, ebx
  00021	75 07		 jne	 SHORT $LN4@CreateFire
$LN33@CreateFire:

; 261  : 	ioBaseChar *pOwner = GetOwner();
; 262  : 	if( !pOwner )	return false;

  00023	32 c0		 xor	 al, al
  00025	e9 fd 01 00 00	 jmp	 $LN5@CreateFire
$LN4@CreateFire:

; 263  : 
; 264  : 	m_pFireBall = g_EffectFactory.CreateEffect( szFileName );

  0002a	57		 push	 edi
  0002b	ff 15 00 00 00
	00		 call	 DWORD PTR __imp_?GetSingleton@ioEffectFactory@@SAAAV1@XZ
  00031	8b c8		 mov	 ecx, eax
  00033	ff 15 00 00 00
	00		 call	 DWORD PTR __imp_?CreateEffect@ioEffectFactory@@QAEPAVioEffect@@ABVioHashString@@@Z
  00039	89 86 60 0a 00
	00		 mov	 DWORD PTR [esi+2656], eax

; 265  : 	if( !m_pFireBall )	return false;

  0003f	85 c0		 test	 eax, eax
  00041	74 e0		 je	 SHORT $LN33@CreateFire

; 266  : 
; 267  : 	GetParentSceneNode()->AttachObject( m_pFireBall );

  00043	8b 4e 04	 mov	 ecx, DWORD PTR [esi+4]
  00046	8b 11		 mov	 edx, DWORD PTR [ecx]
  00048	83 c0 14	 add	 eax, 20			; 00000014H
  0004b	50		 push	 eax
  0004c	ff 92 ac 00 00
	00		 call	 DWORD PTR [edx+172]

; 268  : 
; 269  : 	ioHashString szLinkBiped;

  00052	8d 4d ac	 lea	 ecx, DWORD PTR _szLinkBiped$[ebp]
  00055	ff 15 00 00 00
	00		 call	 DWORD PTR __imp_??0ioHashString@@QAE@XZ

; 270  : 	D3DXVECTOR3 vLinkPosOffset;
; 271  : 	D3DXQUATERNION qtLinkRotOffset;
; 272  : 
; 273  : 	if( m_pFireBall->GetSkeletonName().IsEmpty() && m_pFireBall->GetFirstLinkOffset(szLinkBiped, vLinkPosOffset, qtLinkRotOffset ) )

  0005b	8b 8e 60 0a 00
	00		 mov	 ecx, DWORD PTR [esi+2656]
  00061	83 65 fc 00	 and	 DWORD PTR __$EHRec$[ebp+8], 0
  00065	8d 45 c8	 lea	 eax, DWORD PTR $T536251[ebp]
  00068	50		 push	 eax
  00069	ff 15 00 00 00
	00		 call	 DWORD PTR __imp_?GetSkeletonName@ioEffect@@QBE?AVioHashString@@XZ
  0006f	8b c8		 mov	 ecx, eax
  00071	c6 45 fc 01	 mov	 BYTE PTR __$EHRec$[ebp+8], 1
  00075	c7 45 bc 01 00
	00 00		 mov	 DWORD PTR $T536256[ebp], 1
  0007c	ff 15 00 00 00
	00		 call	 DWORD PTR __imp_?IsEmpty@ioHashString@@QBE_NXZ
  00082	84 c0		 test	 al, al
  00084	74 20		 je	 SHORT $LN9@CreateFire
  00086	8b 8e 60 0a 00
	00		 mov	 ecx, DWORD PTR [esi+2656]
  0008c	8d 45 9c	 lea	 eax, DWORD PTR _qtLinkRotOffset$[ebp]
  0008f	50		 push	 eax
  00090	8d 45 d8	 lea	 eax, DWORD PTR _vLinkPosOffset$[ebp]
  00093	50		 push	 eax
  00094	8d 45 ac	 lea	 eax, DWORD PTR _szLinkBiped$[ebp]
  00097	50		 push	 eax
  00098	ff 15 00 00 00
	00		 call	 DWORD PTR __imp_?GetFirstLinkOffset@ioEffect@@QAE_NAAVioHashString@@AAUD3DXVECTOR3@@AAUD3DXQUATERNION@@@Z
  0009e	c6 45 c7 01	 mov	 BYTE PTR $T536250[ebp], 1
  000a2	84 c0		 test	 al, al
  000a4	75 04		 jne	 SHORT $LN10@CreateFire
$LN9@CreateFire:
  000a6	c6 45 c7 00	 mov	 BYTE PTR $T536250[ebp], 0
$LN10@CreateFire:
  000aa	83 65 fc 00	 and	 DWORD PTR __$EHRec$[ebp+8], 0
  000ae	8d 4d c8	 lea	 ecx, DWORD PTR $T536251[ebp]
  000b1	ff 15 00 00 00
	00		 call	 DWORD PTR __imp_??1ioHashString@@QAE@XZ
  000b7	80 7d c7 00	 cmp	 BYTE PTR $T536250[ebp], 0
  000bb	0f 84 47 01 00
	00		 je	 $LN1@CreateFire

; 274  : 	{
; 275  : 		ioBiped *pLinked = pOwner->GetGroup()->GetBiped( szLinkBiped );

  000c1	8b 4b 04	 mov	 ecx, DWORD PTR [ebx+4]
  000c4	8d 45 ac	 lea	 eax, DWORD PTR _szLinkBiped$[ebp]
  000c7	50		 push	 eax
  000c8	ff 15 00 00 00
	00		 call	 DWORD PTR __imp_?GetBiped@ioEntityGroup@@QAEPAVioBiped@@ABVioHashString@@@Z
  000ce	8b f8		 mov	 edi, eax

; 276  : 		if( pLinked )

  000d0	85 ff		 test	 edi, edi
  000d2	0f 84 30 01 00
	00		 je	 $LN1@CreateFire

; 277  : 		{
; 278  : 			vLinkPosOffset = pLinked->GetDerivedOrientation() * vLinkPosOffset + pLinked->GetDerivedPosition();

  000d8	8b 07		 mov	 eax, DWORD PTR [edi]
  000da	8b cf		 mov	 ecx, edi
  000dc	ff 50 7c	 call	 DWORD PTR [eax+124]
  000df	8b f0		 mov	 esi, eax
  000e1	8d 45 d8	 lea	 eax, DWORD PTR _vLinkPosOffset$[ebp]
  000e4	50		 push	 eax
  000e5	8b 07		 mov	 eax, DWORD PTR [edi]
  000e7	8b cf		 mov	 ecx, edi
  000e9	ff 50 78	 call	 DWORD PTR [eax+120]
  000ec	50		 push	 eax
  000ed	8d 45 e4	 lea	 eax, DWORD PTR $T531812[ebp]
  000f0	50		 push	 eax
  000f1	ff 15 00 00 00
	00		 call	 DWORD PTR __imp_??D@YA?AUD3DXVECTOR3@@ABUD3DXQUATERNION@@ABU0@@Z
  000f7	f3 0f 10 06	 movss	 xmm0, DWORD PTR [esi]
  000fb	f3 0f 10 08	 movss	 xmm1, DWORD PTR [eax]
  000ff	f3 0f 10 50 04	 movss	 xmm2, DWORD PTR [eax+4]
  00104	f3 0f 10 58 08	 movss	 xmm3, DWORD PTR [eax+8]
  00109	0f 5a c9	 cvtps2pd xmm1, xmm1
  0010c	0f 5a c0	 cvtps2pd xmm0, xmm0
  0010f	f2 0f 58 c1	 addsd	 xmm0, xmm1
  00113	f3 0f 10 4e 04	 movss	 xmm1, DWORD PTR [esi+4]
  00118	0f 5a d2	 cvtps2pd xmm2, xmm2
  0011b	0f 5a c9	 cvtps2pd xmm1, xmm1
  0011e	f2 0f 58 ca	 addsd	 xmm1, xmm2
  00122	f3 0f 10 56 08	 movss	 xmm2, DWORD PTR [esi+8]
  00127	0f 5a d2	 cvtps2pd xmm2, xmm2
  0012a	0f 5a db	 cvtps2pd xmm3, xmm3
  0012d	f2 0f 58 d3	 addsd	 xmm2, xmm3
  00131	66 0f 5a c0	 cvtpd2ps xmm0, xmm0
  00135	f3 0f 11 45 e4	 movss	 DWORD PTR $T531813[ebp], xmm0
  0013a	66 0f 5a c9	 cvtpd2ps xmm1, xmm1
  0013e	f3 0f 11 4d e8	 movss	 DWORD PTR $T531813[ebp+4], xmm1
  00143	66 0f 5a d2	 cvtpd2ps xmm2, xmm2
  00147	f3 0f 11 55 ec	 movss	 DWORD PTR $T531813[ebp+8], xmm2
  0014c	8d 75 e4	 lea	 esi, DWORD PTR $T531813[ebp]
  0014f	8d 7d d8	 lea	 edi, DWORD PTR _vLinkPosOffset$[ebp]
  00152	a5		 movsd
  00153	a5		 movsd
  00154	a5		 movsd

; 279  : 			vLinkPosOffset = vLinkPosOffset * pOwner->GetWorldScale();

  00155	8b 03		 mov	 eax, DWORD PTR [ebx]
  00157	83 c4 0c	 add	 esp, 12			; 0000000cH
  0015a	8b cb		 mov	 ecx, ebx
  0015c	ff 50 78	 call	 DWORD PTR [eax+120]
  0015f	50		 push	 eax
  00160	8d 45 d8	 lea	 eax, DWORD PTR _vLinkPosOffset$[ebp]
  00163	50		 push	 eax
  00164	8d 45 e4	 lea	 eax, DWORD PTR $T531814[ebp]
  00167	50		 push	 eax
  00168	ff 15 00 00 00
	00		 call	 DWORD PTR __imp_??D@YA?AUD3DXVECTOR3@@ABU0@0@Z
  0016e	8b f0		 mov	 esi, eax
  00170	8d 7d d8	 lea	 edi, DWORD PTR _vLinkPosOffset$[ebp]
  00173	a5		 movsd
  00174	a5		 movsd
  00175	a5		 movsd

; 280  : 			vLinkPosOffset = pOwner->GetWorldOrientation() * vLinkPosOffset + pOwner->GetWorldPosition();

  00176	8b 03		 mov	 eax, DWORD PTR [ebx]
  00178	83 c4 0c	 add	 esp, 12			; 0000000cH
  0017b	8b cb		 mov	 ecx, ebx
  0017d	ff 50 70	 call	 DWORD PTR [eax+112]
  00180	8b f0		 mov	 esi, eax
  00182	8d 45 d8	 lea	 eax, DWORD PTR _vLinkPosOffset$[ebp]
  00185	50		 push	 eax
  00186	8b 03		 mov	 eax, DWORD PTR [ebx]
  00188	8b cb		 mov	 ecx, ebx
  0018a	ff 50 74	 call	 DWORD PTR [eax+116]
  0018d	50		 push	 eax
  0018e	8d 45 cc	 lea	 eax, DWORD PTR $T531815[ebp]
  00191	50		 push	 eax
  00192	ff 15 00 00 00
	00		 call	 DWORD PTR __imp_??D@YA?AUD3DXVECTOR3@@ABUD3DXQUATERNION@@ABU0@@Z
  00198	f3 0f 10 06	 movss	 xmm0, DWORD PTR [esi]
  0019c	f3 0f 10 08	 movss	 xmm1, DWORD PTR [eax]
  001a0	f3 0f 10 50 04	 movss	 xmm2, DWORD PTR [eax+4]
  001a5	0f 5a c9	 cvtps2pd xmm1, xmm1
  001a8	0f 5a c0	 cvtps2pd xmm0, xmm0
  001ab	f2 0f 58 c1	 addsd	 xmm0, xmm1
  001af	f3 0f 10 4e 04	 movss	 xmm1, DWORD PTR [esi+4]
  001b4	0f 5a c9	 cvtps2pd xmm1, xmm1
  001b7	0f 5a d2	 cvtps2pd xmm2, xmm2
  001ba	f2 0f 58 ca	 addsd	 xmm1, xmm2
  001be	83 c4 0c	 add	 esp, 12			; 0000000cH
  001c1	66 0f 5a c0	 cvtpd2ps xmm0, xmm0
  001c5	66 0f 5a c9	 cvtpd2ps xmm1, xmm1
  001c9	f3 0f 10 56 08	 movss	 xmm2, DWORD PTR [esi+8]
  001ce	f3 0f 10 58 08	 movss	 xmm3, DWORD PTR [eax+8]

; 281  : 			SetPosition( vLinkPosOffset );

  001d3	8b 4d c0	 mov	 ecx, DWORD PTR _this$GSCopy$[ebp]
  001d6	0f 5a d2	 cvtps2pd xmm2, xmm2
  001d9	0f 5a db	 cvtps2pd xmm3, xmm3
  001dc	f2 0f 58 d3	 addsd	 xmm2, xmm3
  001e0	f3 0f 11 45 e4	 movss	 DWORD PTR $T531816[ebp], xmm0
  001e5	f3 0f 11 4d e8	 movss	 DWORD PTR $T531816[ebp+4], xmm1
  001ea	66 0f 5a d2	 cvtpd2ps xmm2, xmm2
  001ee	f3 0f 11 55 ec	 movss	 DWORD PTR $T531816[ebp+8], xmm2
  001f3	8d 75 e4	 lea	 esi, DWORD PTR $T531816[ebp]
  001f6	8d 7d d8	 lea	 edi, DWORD PTR _vLinkPosOffset$[ebp]
  001f9	a5		 movsd
  001fa	a5		 movsd
  001fb	8d 45 d8	 lea	 eax, DWORD PTR _vLinkPosOffset$[ebp]
  001fe	50		 push	 eax
  001ff	a5		 movsd
  00200	e8 00 00 00 00	 call	 ?SetPosition@ioWeapon@@QAEXABUD3DXVECTOR3@@@Z ; ioWeapon::SetPosition
  00205	8b 75 c0	 mov	 esi, DWORD PTR _this$GSCopy$[ebp]
$LN1@CreateFire:

; 282  : 		}
; 283  : 	}
; 284  : 
; 285  : 	AddEffectEvent( m_pFireBall );

  00208	ff b6 60 0a 00
	00		 push	 DWORD PTR [esi+2656]
  0020e	8b 06		 mov	 eax, DWORD PTR [esi]
  00210	8b ce		 mov	 ecx, esi
  00212	ff 90 68 01 00
	00		 call	 DWORD PTR [eax+360]

; 286  : 	return true;

  00218	83 4d fc ff	 or	 DWORD PTR __$EHRec$[ebp+8], -1
  0021c	8d 4d ac	 lea	 ecx, DWORD PTR _szLinkBiped$[ebp]
  0021f	ff 15 00 00 00
	00		 call	 DWORD PTR __imp_??1ioHashString@@QAE@XZ
  00225	b0 01		 mov	 al, 1
$LN5@CreateFire:

; 287  : }

  00227	e8 00 00 00 00	 call	 __EH_epilog3_GS
  0022c	c2 04 00	 ret	 4
_TEXT	ENDS
;	COMDAT text$x
text$x	SEGMENT
__unwindfunclet$?CreateFireBall@ioAttachWeapon@@IAE_NABVioHashString@@@Z$0:
  00000	8d 4d ac	 lea	 ecx, DWORD PTR _szLinkBiped$[ebp]
  00003	ff 25 00 00 00
	00		 jmp	 DWORD PTR __imp_??1ioHashString@@QAE@XZ
__unwindfunclet$?CreateFireBall@ioAttachWeapon@@IAE_NABVioHashString@@@Z$1:
  00009	8b 45 bc	 mov	 eax, DWORD PTR $T536256[ebp]
  0000c	83 e0 01	 and	 eax, 1
  0000f	0f 84 0d 00 00
	00		 je	 $LN13@CreateFire
  00015	83 65 bc fe	 and	 DWORD PTR $T536256[ebp], -2 ; fffffffeH
  00019	8d 4d c8	 lea	 ecx, DWORD PTR $T536251[ebp]
  0001c	ff 25 00 00 00
	00		 jmp	 DWORD PTR __imp_??1ioHashString@@QAE@XZ
$LN13@CreateFire:
  00022	c3		 ret	 0
__ehhandler$?CreateFireBall@ioAttachWeapon@@IAE_NABVioHashString@@@Z:
  00023	8b 54 24 08	 mov	 edx, DWORD PTR [esp+8]
  00027	8d 42 0c	 lea	 eax, DWORD PTR [edx+12]
  0002a	8b 4a 98	 mov	 ecx, DWORD PTR [edx-104]
  0002d	33 c8		 xor	 ecx, eax
  0002f	e8 00 00 00 00	 call	 @__security_check_cookie@4
  00034	8b 4a fc	 mov	 ecx, DWORD PTR [edx-4]
  00037	33 c8		 xor	 ecx, eax
  00039	e8 00 00 00 00	 call	 @__security_check_cookie@4
  0003e	b8 00 00 00 00	 mov	 eax, OFFSET __ehfuncinfo$?CreateFireBall@ioAttachWeapon@@IAE_NABVioHashString@@@Z
  00043	e9 00 00 00 00	 jmp	 ___CxxFrameHandler3
text$x	ENDS
?CreateFireBall@ioAttachWeapon@@IAE_NABVioHashString@@@Z ENDP ; ioAttachWeapon::CreateFireBall
PUBLIC	_this$GSCopy$
PUBLIC	__$ArrayPad$
PUBLIC	?RotateMoveDir@ioAttachWeapon@@IAEXMM@Z		; ioAttachWeapon::RotateMoveDir
EXTRN	_D3DXQuaternionRotationAxis@12:PROC
EXTRN	__imp_?UNIT_Y@ioMath@@2UD3DXVECTOR3@@A:BYTE
EXTRN	__imp_?ArrangeHead@ioMath@@SAMM@Z:PROC
; Function compile flags: /Ogsp
;	COMDAT ?RotateMoveDir@ioAttachWeapon@@IAEXMM@Z
_TEXT	SEGMENT
tv408 = -64						; size = 4
_v$536343 = -60						; size = 12
_qtRot$ = -48						; size = 16
_this$GSCopy$ = -32					; size = 4
$T531848 = -28						; size = 12
$T531847 = -28						; size = 12
$T531843 = -28						; size = 12
_vAxis$531845 = -16					; size = 12
__$ArrayPad$ = -4					; size = 4
_fAngleH$ = 8						; size = 4
_fAngleV$ = 12						; size = 4
?RotateMoveDir@ioAttachWeapon@@IAEXMM@Z PROC		; ioAttachWeapon::RotateMoveDir, COMDAT
; _this$ = ecx

; 314  : {

  00000	55		 push	 ebp
  00001	8b ec		 mov	 ebp, esp
  00003	83 ec 40	 sub	 esp, 64			; 00000040H
  00006	a1 00 00 00 00	 mov	 eax, DWORD PTR ___security_cookie
  0000b	33 c5		 xor	 eax, ebp
  0000d	89 45 fc	 mov	 DWORD PTR __$ArrayPad$[ebp], eax

; 315  : 	fAngleH = ioMath::ArrangeHead( fAngleH );

  00010	f3 0f 10 45 08	 movss	 xmm0, DWORD PTR _fAngleH$[ebp]
  00015	53		 push	 ebx
  00016	56		 push	 esi
  00017	57		 push	 edi
  00018	8b d9		 mov	 ebx, ecx
  0001a	51		 push	 ecx

; 331  : 	{
; 332  : 		D3DXVECTOR3 vAxis;
; 333  : 		D3DXVec3Cross( &vAxis, &m_vMoveDir, &D3DXVECTOR3( 0.0f, -FLOAT1, 0.0f ) );

  0001b	89 5d e0	 mov	 DWORD PTR _this$GSCopy$[ebp], ebx
  0001e	f3 0f 11 04 24	 movss	 DWORD PTR [esp], xmm0
  00023	ff 15 00 00 00
	00		 call	 DWORD PTR __imp_?ArrangeHead@ioMath@@SAMM@Z
  00029	d9 5d 08	 fstp	 DWORD PTR _fAngleH$[ebp]
  0002c	f3 0f 10 45 0c	 movss	 xmm0, DWORD PTR _fAngleV$[ebp]
  00031	f3 0f 11 04 24	 movss	 DWORD PTR [esp], xmm0
  00036	ff 15 00 00 00
	00		 call	 DWORD PTR __imp_?ArrangeHead@ioMath@@SAMM@Z
  0003c	d9 5d 0c	 fstp	 DWORD PTR _fAngleV$[ebp]
  0003f	d9 ee		 fldz
  00041	59		 pop	 ecx
  00042	d9 45 08	 fld	 DWORD PTR _fAngleH$[ebp]
  00045	df e9		 fucomip ST(1)
  00047	dd d8		 fstp	 ST(0)
  00049	9f		 lahf
  0004a	f6 c4 44	 test	 ah, 68			; 00000044H
  0004d	7b 61		 jnp	 SHORT $LN2@RotateMove

; 316  : 	fAngleV = ioMath::ArrangeHead( fAngleV );
; 317  : 
; 318  : 	D3DXQUATERNION qtRot;
; 319  : 
; 320  : 	// horizon
; 321  : 	if( fAngleH != 0.0f )
; 322  : 	{
; 323  : 		D3DXQuaternionRotationAxis( &qtRot, &ioMath::UNIT_Y, DEGtoRAD(fAngleH) );

  0004f	f3 0f 10 45 08	 movss	 xmm0, DWORD PTR _fAngleH$[ebp]
  00054	0f 5a c0	 cvtps2pd xmm0, xmm0
  00057	f2 0f 59 05 00
	00 00 00	 mulsd	 xmm0, QWORD PTR __real@3f91df46a2526c7a
  0005f	51		 push	 ecx
  00060	f2 0f 5a c0	 cvtsd2ss xmm0, xmm0
  00064	f3 0f 11 04 24	 movss	 DWORD PTR [esp], xmm0
  00069	ff 35 00 00 00
	00		 push	 DWORD PTR __imp_?UNIT_Y@ioMath@@2UD3DXVECTOR3@@A
  0006f	8d 45 d0	 lea	 eax, DWORD PTR _qtRot$[ebp]
  00072	50		 push	 eax
  00073	e8 00 00 00 00	 call	 _D3DXQuaternionRotationAxis@12

; 324  : 		m_vMoveDir = qtRot * m_vMoveDir;

  00078	8d bb 10 0a 00
	00		 lea	 edi, DWORD PTR [ebx+2576]
  0007e	57		 push	 edi
  0007f	8d 45 d0	 lea	 eax, DWORD PTR _qtRot$[ebp]
  00082	50		 push	 eax
  00083	8d 45 e4	 lea	 eax, DWORD PTR $T531843[ebp]
  00086	50		 push	 eax
  00087	ff 15 00 00 00
	00		 call	 DWORD PTR __imp_??D@YA?AUD3DXVECTOR3@@ABUD3DXQUATERNION@@ABU0@@Z

; 325  : 
; 326  : 		GetParentSceneNode()->Rotate( ioMath::UNIT_Y, fAngleH );

  0008d	8b 4b 04	 mov	 ecx, DWORD PTR [ebx+4]
  00090	f3 0f 10 45 08	 movss	 xmm0, DWORD PTR _fAngleH$[ebp]
  00095	8b f0		 mov	 esi, eax
  00097	a5		 movsd
  00098	83 c4 0c	 add	 esp, 12			; 0000000cH
  0009b	a5		 movsd
  0009c	6a 01		 push	 1
  0009e	51		 push	 ecx
  0009f	a5		 movsd
  000a0	8b 01		 mov	 eax, DWORD PTR [ecx]
  000a2	f3 0f 11 04 24	 movss	 DWORD PTR [esp], xmm0
  000a7	ff 35 00 00 00
	00		 push	 DWORD PTR __imp_?UNIT_Y@ioMath@@2UD3DXVECTOR3@@A
  000ad	ff 50 50	 call	 DWORD PTR [eax+80]
$LN2@RotateMove:

; 327  : 	}
; 328  : 
; 329  : 	// vertical
; 330  : 	if( fAngleV != 0.0f )

  000b0	f3 0f 10 65 0c	 movss	 xmm4, DWORD PTR _fAngleV$[ebp]
  000b5	0f 2e 25 00 00
	00 00		 ucomiss xmm4, DWORD PTR __real@00000000
  000bc	9f		 lahf
  000bd	f6 c4 44	 test	 ah, 68			; 00000044H
  000c0	0f 8b f8 00 00
	00		 jnp	 $LN1@RotateMove

; 331  : 	{
; 332  : 		D3DXVECTOR3 vAxis;
; 333  : 		D3DXVec3Cross( &vAxis, &m_vMoveDir, &D3DXVECTOR3( 0.0f, -FLOAT1, 0.0f ) );

  000c6	b8 01 00 00 00	 mov	 eax, 1
  000cb	89 45 c0	 mov	 DWORD PTR tv408[ebp], eax
  000ce	db 45 c0	 fild	 DWORD PTR tv408[ebp]
  000d1	85 c0		 test	 eax, eax
  000d3	79 06		 jns	 SHORT $LN25@RotateMove
  000d5	d8 05 00 00 00
	00		 fadd	 DWORD PTR __real@4f800000
$LN25@RotateMove:
  000db	f3 0f 10 83 14
	0a 00 00	 movss	 xmm0, DWORD PTR [ebx+2580]
  000e3	d9 e0		 fchs
  000e5	f3 0f 10 93 18
	0a 00 00	 movss	 xmm2, DWORD PTR [ebx+2584]
  000ed	d9 5d e8	 fstp	 DWORD PTR $T531847[ebp+4]
  000f0	f3 0f 10 6d e8	 movss	 xmm5, DWORD PTR $T531847[ebp+4]
  000f5	0f 5a c8	 cvtps2pd xmm1, xmm0
  000f8	0f 57 c0	 xorps	 xmm0, xmm0
  000fb	0f 5a da	 cvtps2pd xmm3, xmm2
  000fe	f2 0f 59 c8	 mulsd	 xmm1, xmm0
  00102	81 c3 10 0a 00
	00		 add	 ebx, 2576		; 00000a10H
  00108	0f 5a ed	 cvtps2pd xmm5, xmm5
  0010b	f2 0f 59 dd	 mulsd	 xmm3, xmm5
  0010f	66 0f 28 e9	 movapd	 xmm5, xmm1
  00113	f2 0f 5c eb	 subsd	 xmm5, xmm3
  00117	0f 57 db	 xorps	 xmm3, xmm3
  0011a	f2 0f 5a dd	 cvtsd2ss xmm3, xmm5
  0011e	f3 0f 11 5d c4	 movss	 DWORD PTR _v$536343[ebp], xmm3
  00123	f3 0f 10 1b	 movss	 xmm3, DWORD PTR [ebx]
  00127	0f 5a d2	 cvtps2pd xmm2, xmm2
  0012a	f2 0f 59 d0	 mulsd	 xmm2, xmm0
  0012e	0f 5a eb	 cvtps2pd xmm5, xmm3
  00131	f2 0f 59 e8	 mulsd	 xmm5, xmm0
  00135	f2 0f 5c d5	 subsd	 xmm2, xmm5
  00139	66 0f 5a c2	 cvtpd2ps xmm0, xmm2
  0013d	f3 0f 10 55 e8	 movss	 xmm2, DWORD PTR $T531847[ebp+4]
  00142	f3 0f 11 45 c8	 movss	 DWORD PTR _v$536343[ebp+4], xmm0
  00147	0f 5a d2	 cvtps2pd xmm2, xmm2
  0014a	8d 75 c4	 lea	 esi, DWORD PTR _v$536343[ebp]
  0014d	8d 7d f0	 lea	 edi, DWORD PTR _vAxis$531845[ebp]
  00150	0f 5a c3	 cvtps2pd xmm0, xmm3
  00153	f2 0f 59 c2	 mulsd	 xmm0, xmm2
  00157	f2 0f 5c c1	 subsd	 xmm0, xmm1
  0015b	66 0f 5a c0	 cvtpd2ps xmm0, xmm0
  0015f	f3 0f 11 45 cc	 movss	 DWORD PTR _v$536343[ebp+8], xmm0
  00164	a5		 movsd

; 334  : 		D3DXQuaternionRotationAxis( &qtRot, &vAxis, DEGtoRAD(fAngleV) );

  00165	0f 5a c4	 cvtps2pd xmm0, xmm4
  00168	f2 0f 59 05 00
	00 00 00	 mulsd	 xmm0, QWORD PTR __real@3f91df46a2526c7a
  00170	51		 push	 ecx
  00171	66 0f 5a c0	 cvtpd2ps xmm0, xmm0
  00175	f3 0f 11 04 24	 movss	 DWORD PTR [esp], xmm0
  0017a	8d 45 f0	 lea	 eax, DWORD PTR _vAxis$531845[ebp]
  0017d	a5		 movsd
  0017e	50		 push	 eax
  0017f	8d 45 d0	 lea	 eax, DWORD PTR _qtRot$[ebp]
  00182	50		 push	 eax
  00183	a5		 movsd
  00184	e8 00 00 00 00	 call	 _D3DXQuaternionRotationAxis@12

; 335  : 		m_vMoveDir = qtRot * m_vMoveDir;

  00189	53		 push	 ebx
  0018a	8d 45 d0	 lea	 eax, DWORD PTR _qtRot$[ebp]
  0018d	50		 push	 eax
  0018e	8d 45 e4	 lea	 eax, DWORD PTR $T531848[ebp]
  00191	50		 push	 eax
  00192	ff 15 00 00 00
	00		 call	 DWORD PTR __imp_??D@YA?AUD3DXVECTOR3@@ABUD3DXQUATERNION@@ABU0@@Z

; 336  : 
; 337  : 		GetParentSceneNode()->Rotate( vAxis, fAngleV );

  00198	f3 0f 10 45 0c	 movss	 xmm0, DWORD PTR _fAngleV$[ebp]
  0019d	8b f0		 mov	 esi, eax
  0019f	8b 45 e0	 mov	 eax, DWORD PTR _this$GSCopy$[ebp]
  001a2	8b 48 04	 mov	 ecx, DWORD PTR [eax+4]
  001a5	8b fb		 mov	 edi, ebx
  001a7	a5		 movsd
  001a8	83 c4 0c	 add	 esp, 12			; 0000000cH
  001ab	a5		 movsd
  001ac	6a 01		 push	 1
  001ae	51		 push	 ecx
  001af	8d 55 f0	 lea	 edx, DWORD PTR _vAxis$531845[ebp]
  001b2	a5		 movsd
  001b3	8b 01		 mov	 eax, DWORD PTR [ecx]
  001b5	f3 0f 11 04 24	 movss	 DWORD PTR [esp], xmm0
  001ba	52		 push	 edx
  001bb	ff 50 50	 call	 DWORD PTR [eax+80]
$LN1@RotateMove:

; 338  : 	}
; 339  : }

  001be	8b 4d fc	 mov	 ecx, DWORD PTR __$ArrayPad$[ebp]
  001c1	5f		 pop	 edi
  001c2	5e		 pop	 esi
  001c3	33 cd		 xor	 ecx, ebp
  001c5	5b		 pop	 ebx
  001c6	e8 00 00 00 00	 call	 @__security_check_cookie@4
  001cb	c9		 leave
  001cc	c2 08 00	 ret	 8
?RotateMoveDir@ioAttachWeapon@@IAEXMM@Z ENDP		; ioAttachWeapon::RotateMoveDir
_TEXT	ENDS
PUBLIC	??D?$CEncrypt@M@@QAEMABM@Z			; CEncrypt<float>::operator*
; Function compile flags: /Ogsp
; File d:\lost saga for developer\youtube\tutorial\source\src\lsclient\encryptvalue.h
;	COMDAT ??D?$CEncrypt@M@@QAEMABM@Z
_TEXT	SEGMENT
_value$ = -4						; size = 4
tv130 = 8						; size = 4
_inValue$ = 8						; size = 4
??D?$CEncrypt@M@@QAEMABM@Z PROC				; CEncrypt<float>::operator*, COMDAT
; _this$ = ecx

; 1685 : 	{	

  00000	55		 push	 ebp
  00001	8b ec		 mov	 ebp, esp
  00003	51		 push	 ecx

; 1686 : 		type value;
; 1687 : 		DecryptValueToPool(&value);

  00004	8d 45 fc	 lea	 eax, DWORD PTR _value$[ebp]
  00007	50		 push	 eax
  00008	e8 00 00 00 00	 call	 ?DecryptValueToPool@?$CEncrypt@M@@QAEXPAM@Z ; CEncrypt<float>::DecryptValueToPool

; 1688 : #ifdef _NOTUSE
; 1689 : 		Debug();
; 1690 : #endif
; 1691 : 		return value * inValue;

  0000d	8b 45 08	 mov	 eax, DWORD PTR _inValue$[ebp]
  00010	d9 00		 fld	 DWORD PTR [eax]
  00012	d8 4d fc	 fmul	 DWORD PTR _value$[ebp]
  00015	d9 5d 08	 fstp	 DWORD PTR tv130[ebp]
  00018	d9 45 08	 fld	 DWORD PTR tv130[ebp]

; 1692 : 	}

  0001b	c9		 leave
  0001c	c2 04 00	 ret	 4
??D?$CEncrypt@M@@QAEMABM@Z ENDP				; CEncrypt<float>::operator*
_TEXT	ENDS
PUBLIC	?max_size@?$vector@UChangeDirInfo@@V?$allocator@UChangeDirInfo@@@std@@@std@@QBEIXZ ; std::vector<ChangeDirInfo,std::allocator<ChangeDirInfo> >::max_size
; Function compile flags: /Ogsp
; File c:\program files (x86)\microsoft visual studio 10.0\vc\include\vector
;	COMDAT ?max_size@?$vector@UChangeDirInfo@@V?$allocator@UChangeDirInfo@@@std@@@std@@QBEIXZ
_TEXT	SEGMENT
?max_size@?$vector@UChangeDirInfo@@V?$allocator@UChangeDirInfo@@@std@@@std@@QBEIXZ PROC ; std::vector<ChangeDirInfo,std::allocator<ChangeDirInfo> >::max_size, COMDAT
; _this$ = ecx

; 884  : 		return (this->_Alval.max_size());

  00000	b8 49 92 24 09	 mov	 eax, 153391689		; 09249249H

; 885  : 		}

  00005	c3		 ret	 0
?max_size@?$vector@UChangeDirInfo@@V?$allocator@UChangeDirInfo@@@std@@@std@@QBEIXZ ENDP ; std::vector<ChangeDirInfo,std::allocator<ChangeDirInfo> >::max_size
_TEXT	ENDS
PUBLIC	??0?$_Vector_val@UChangeDirInfo@@V?$allocator@UChangeDirInfo@@@std@@@std@@QAE@V?$allocator@UChangeDirInfo@@@1@@Z ; std::_Vector_val<ChangeDirInfo,std::allocator<ChangeDirInfo> >::_Vector_val<ChangeDirInfo,std::allocator<ChangeDirInfo> >
; Function compile flags: /Ogsp
;	COMDAT ??0?$_Vector_val@UChangeDirInfo@@V?$allocator@UChangeDirInfo@@@std@@@std@@QAE@V?$allocator@UChangeDirInfo@@@1@@Z
_TEXT	SEGMENT
__Al$ = 8						; size = 1
??0?$_Vector_val@UChangeDirInfo@@V?$allocator@UChangeDirInfo@@@std@@@std@@QAE@V?$allocator@UChangeDirInfo@@@1@@Z PROC ; std::_Vector_val<ChangeDirInfo,std::allocator<ChangeDirInfo> >::_Vector_val<ChangeDirInfo,std::allocator<ChangeDirInfo> >, COMDAT
; _this$ = ecx

; 426  : 		{	// construct allocator from _Al

  00000	8b c1		 mov	 eax, ecx

; 427  : 		_Myfirst = 0;

  00002	33 c9		 xor	 ecx, ecx
  00004	89 08		 mov	 DWORD PTR [eax], ecx

; 428  : 		_Mylast = 0;

  00006	89 48 04	 mov	 DWORD PTR [eax+4], ecx

; 429  : 		_Myend = 0;

  00009	89 48 08	 mov	 DWORD PTR [eax+8], ecx

; 430  : 		}

  0000c	c2 04 00	 ret	 4
??0?$_Vector_val@UChangeDirInfo@@V?$allocator@UChangeDirInfo@@@std@@@std@@QAE@V?$allocator@UChangeDirInfo@@@1@@Z ENDP ; std::_Vector_val<ChangeDirInfo,std::allocator<ChangeDirInfo> >::_Vector_val<ChangeDirInfo,std::allocator<ChangeDirInfo> >
_TEXT	ENDS
PUBLIC	?allocate@?$allocator@UChangeDirInfo@@@std@@QAEPAUChangeDirInfo@@I@Z ; std::allocator<ChangeDirInfo>::allocate
; Function compile flags: /Ogsp
; File c:\program files (x86)\microsoft visual studio 10.0\vc\include\xmemory
;	COMDAT ?allocate@?$allocator@UChangeDirInfo@@@std@@QAEPAUChangeDirInfo@@I@Z
_TEXT	SEGMENT
__Count$ = 8						; size = 4
?allocate@?$allocator@UChangeDirInfo@@@std@@QAEPAUChangeDirInfo@@I@Z PROC ; std::allocator<ChangeDirInfo>::allocate, COMDAT
; _this$ = ecx

; 186  : 		{	// allocate array of _Count elements

  00000	55		 push	 ebp
  00001	8b ec		 mov	 ebp, esp

; 187  : 		return (_Allocate(_Count, (pointer)0));

  00003	6a 00		 push	 0
  00005	ff 75 08	 push	 DWORD PTR __Count$[ebp]
  00008	e8 00 00 00 00	 call	 ??$_Allocate@UChangeDirInfo@@@std@@YAPAUChangeDirInfo@@IPAU1@@Z ; std::_Allocate<ChangeDirInfo>
  0000d	59		 pop	 ecx
  0000e	59		 pop	 ecx

; 188  : 		}

  0000f	5d		 pop	 ebp
  00010	c2 04 00	 ret	 4
?allocate@?$allocator@UChangeDirInfo@@@std@@QAEPAUChangeDirInfo@@I@Z ENDP ; std::allocator<ChangeDirInfo>::allocate
_TEXT	ENDS
PUBLIC	??0?$_Vector_iterator@V?$_Vector_val@UChangeDirInfo@@V?$allocator@UChangeDirInfo@@@std@@@std@@@std@@QAE@PAUChangeDirInfo@@PBU_Container_base0@1@@Z ; std::_Vector_iterator<std::_Vector_val<ChangeDirInfo,std::allocator<ChangeDirInfo> > >::_Vector_iterator<std::_Vector_val<ChangeDirInfo,std::allocator<ChangeDirInfo> > >
; Function compile flags: /Ogsp
; File c:\program files (x86)\microsoft visual studio 10.0\vc\include\vector
;	COMDAT ??0?$_Vector_iterator@V?$_Vector_val@UChangeDirInfo@@V?$allocator@UChangeDirInfo@@@std@@@std@@@std@@QAE@PAUChangeDirInfo@@PBU_Container_base0@1@@Z
_TEXT	SEGMENT
__Parg$ = 8						; size = 4
__Pvector$ = 12						; size = 4
??0?$_Vector_iterator@V?$_Vector_val@UChangeDirInfo@@V?$allocator@UChangeDirInfo@@@std@@@std@@@std@@QAE@PAUChangeDirInfo@@PBU_Container_base0@1@@Z PROC ; std::_Vector_iterator<std::_Vector_val<ChangeDirInfo,std::allocator<ChangeDirInfo> > >::_Vector_iterator<std::_Vector_val<ChangeDirInfo,std::allocator<ChangeDirInfo> > >, COMDAT
; _this$ = ecx

; 304  : 		{	// construct with pointer _Parg

  00000	55		 push	 ebp
  00001	8b ec		 mov	 ebp, esp
  00003	8b c1		 mov	 eax, ecx
  00005	8b 4d 08	 mov	 ecx, DWORD PTR __Parg$[ebp]
  00008	89 08		 mov	 DWORD PTR [eax], ecx

; 305  : 		}

  0000a	5d		 pop	 ebp
  0000b	c2 08 00	 ret	 8
??0?$_Vector_iterator@V?$_Vector_val@UChangeDirInfo@@V?$allocator@UChangeDirInfo@@@std@@@std@@@std@@QAE@PAUChangeDirInfo@@PBU_Container_base0@1@@Z ENDP ; std::_Vector_iterator<std::_Vector_val<ChangeDirInfo,std::allocator<ChangeDirInfo> > >::_Vector_iterator<std::_Vector_val<ChangeDirInfo,std::allocator<ChangeDirInfo> > >
_TEXT	ENDS
PUBLIC	?_Grow_to@?$vector@UChangeDirInfo@@V?$allocator@UChangeDirInfo@@@std@@@std@@IBEII@Z ; std::vector<ChangeDirInfo,std::allocator<ChangeDirInfo> >::_Grow_to
; Function compile flags: /Ogsp
;	COMDAT ?_Grow_to@?$vector@UChangeDirInfo@@V?$allocator@UChangeDirInfo@@@std@@@std@@IBEII@Z
_TEXT	SEGMENT
__Count$ = 8						; size = 4
?_Grow_to@?$vector@UChangeDirInfo@@V?$allocator@UChangeDirInfo@@@std@@@std@@IBEII@Z PROC ; std::vector<ChangeDirInfo,std::allocator<ChangeDirInfo> >::_Grow_to, COMDAT
; _this$ = ecx

; 1274 : 		{	// grow by 50% or at least to _Count

  00000	55		 push	 ebp
  00001	8b ec		 mov	 ebp, esp

; 1275 : 		size_type _Capacity = capacity();

  00003	8b 41 08	 mov	 eax, DWORD PTR [ecx+8]
  00006	2b 01		 sub	 eax, DWORD PTR [ecx]
  00008	6a 1c		 push	 28			; 0000001cH
  0000a	99		 cdq
  0000b	59		 pop	 ecx
  0000c	f7 f9		 idiv	 ecx

; 1276 : 
; 1277 : 		_Capacity = max_size() - _Capacity / 2 < _Capacity
; 1278 : 			? 0 : _Capacity + _Capacity / 2;	// try to grow by 50%

  0000e	ba 49 92 24 09	 mov	 edx, 153391689		; 09249249H
  00013	8b c8		 mov	 ecx, eax
  00015	d1 e9		 shr	 ecx, 1
  00017	2b d1		 sub	 edx, ecx
  00019	3b d0		 cmp	 edx, eax
  0001b	73 04		 jae	 SHORT $LN4@Grow_to
  0001d	33 c0		 xor	 eax, eax
  0001f	eb 02		 jmp	 SHORT $LN5@Grow_to
$LN4@Grow_to:
  00021	03 c1		 add	 eax, ecx
$LN5@Grow_to:

; 1279 : 		if (_Capacity < _Count)

  00023	3b 45 08	 cmp	 eax, DWORD PTR __Count$[ebp]

; 1280 : 			_Capacity = _Count;

  00026	0f 42 45 08	 cmovb	 eax, DWORD PTR __Count$[ebp]

; 1281 : 		return (_Capacity);
; 1282 : 		}

  0002a	5d		 pop	 ebp
  0002b	c2 04 00	 ret	 4
?_Grow_to@?$vector@UChangeDirInfo@@V?$allocator@UChangeDirInfo@@@std@@@std@@IBEII@Z ENDP ; std::vector<ChangeDirInfo,std::allocator<ChangeDirInfo> >::_Grow_to
_TEXT	ENDS
PUBLIC	??8?$_Vector_const_iterator@V?$_Vector_val@UChangeDirInfo@@V?$allocator@UChangeDirInfo@@@std@@@std@@@std@@QBE_NABV01@@Z ; std::_Vector_const_iterator<std::_Vector_val<ChangeDirInfo,std::allocator<ChangeDirInfo> > >::operator==
; Function compile flags: /Ogsp
;	COMDAT ??8?$_Vector_const_iterator@V?$_Vector_val@UChangeDirInfo@@V?$allocator@UChangeDirInfo@@@std@@@std@@@std@@QBE_NABV01@@Z
_TEXT	SEGMENT
__Right$ = 8						; size = 4
??8?$_Vector_const_iterator@V?$_Vector_val@UChangeDirInfo@@V?$allocator@UChangeDirInfo@@@std@@@std@@@std@@QBE_NABV01@@Z PROC ; std::_Vector_const_iterator<std::_Vector_val<ChangeDirInfo,std::allocator<ChangeDirInfo> > >::operator==, COMDAT
; _this$ = ecx

; 201  : 		{	// test for iterator equality

  00000	55		 push	 ebp
  00001	8b ec		 mov	 ebp, esp

; 202  : 		_Compat(_Right);
; 203  : 		return (this->_Ptr == _Right._Ptr);

  00003	8b 01		 mov	 eax, DWORD PTR [ecx]
  00005	8b 4d 08	 mov	 ecx, DWORD PTR __Right$[ebp]
  00008	2b 01		 sub	 eax, DWORD PTR [ecx]
  0000a	f7 d8		 neg	 eax
  0000c	1b c0		 sbb	 eax, eax
  0000e	40		 inc	 eax

; 204  : 		}

  0000f	5d		 pop	 ebp
  00010	c2 04 00	 ret	 4
??8?$_Vector_const_iterator@V?$_Vector_val@UChangeDirInfo@@V?$allocator@UChangeDirInfo@@@std@@@std@@@std@@QBE_NABV01@@Z ENDP ; std::_Vector_const_iterator<std::_Vector_val<ChangeDirInfo,std::allocator<ChangeDirInfo> > >::operator==
_TEXT	ENDS
PUBLIC	__$ArrayPad$
PUBLIC	??$LoadInt_e@$09@ioINILoader@@QAEHAAY09$$CBDH@Z	; ioINILoader::LoadInt_e<10>
EXTRN	__imp_?LoadInt@ioINILoader@@QAEHPBDH@Z:PROC
; Function compile flags: /Ogsp
; File d:\lost saga for developer\youtube\tutorial\source\src\io3dengine\ioiniloader.h
;	COMDAT ??$LoadInt_e@$09@ioINILoader@@QAEHAAY09$$CBDH@Z
_TEXT	SEGMENT
__k$ = -20						; size = 10
__$ArrayPad$ = -4					; size = 4
_k$ = 8							; size = 4
_i$ = 12						; size = 4
??$LoadInt_e@$09@ioINILoader@@QAEHAAY09$$CBDH@Z PROC	; ioINILoader::LoadInt_e<10>, COMDAT
; _this$ = ecx

; 118  : 	{

  00000	55		 push	 ebp
  00001	8b ec		 mov	 ebp, esp
  00003	83 ec 14	 sub	 esp, 20			; 00000014H
  00006	a1 00 00 00 00	 mov	 eax, DWORD PTR ___security_cookie
  0000b	33 c5		 xor	 eax, ebp
  0000d	89 45 fc	 mov	 DWORD PTR __$ArrayPad$[ebp], eax
  00010	8b 45 08	 mov	 eax, DWORD PTR _k$[ebp]

; 119  : 		_ENCSTR(k, _k);

  00013	8a 10		 mov	 dl, BYTE PTR [eax]
  00015	84 d2		 test	 dl, dl
  00017	0f 84 0d 01 00
	00		 je	 $LN96@LoadInt_e
  0001d	80 f2 ed	 xor	 dl, -19			; ffffffedH
  00020	88 55 ec	 mov	 BYTE PTR __k$[ebp], dl
  00023	8a 50 01	 mov	 dl, BYTE PTR [eax+1]
  00026	84 d2		 test	 dl, dl
  00028	0f 84 f6 00 00
	00		 je	 $LN95@LoadInt_e
  0002e	80 f2 ec	 xor	 dl, -20			; ffffffecH
  00031	88 55 ed	 mov	 BYTE PTR __k$[ebp+1], dl
  00034	8a 50 02	 mov	 dl, BYTE PTR [eax+2]
  00037	84 d2		 test	 dl, dl
  00039	0f 84 df 00 00
	00		 je	 $LN94@LoadInt_e
  0003f	80 f2 eb	 xor	 dl, -21			; ffffffebH
  00042	88 55 ee	 mov	 BYTE PTR __k$[ebp+2], dl
  00045	8a 50 03	 mov	 dl, BYTE PTR [eax+3]
  00048	84 d2		 test	 dl, dl
  0004a	0f 84 c8 00 00
	00		 je	 $LN93@LoadInt_e
  00050	80 f2 ea	 xor	 dl, -22			; ffffffeaH
  00053	88 55 ef	 mov	 BYTE PTR __k$[ebp+3], dl
  00056	8a 50 04	 mov	 dl, BYTE PTR [eax+4]
  00059	84 d2		 test	 dl, dl
  0005b	0f 84 b1 00 00
	00		 je	 $LN92@LoadInt_e
  00061	80 f2 ed	 xor	 dl, -19			; ffffffedH
  00064	88 55 f0	 mov	 BYTE PTR __k$[ebp+4], dl
  00067	8a 50 05	 mov	 dl, BYTE PTR [eax+5]
  0006a	84 d2		 test	 dl, dl
  0006c	0f 84 9a 00 00
	00		 je	 $LN91@LoadInt_e
  00072	80 f2 ec	 xor	 dl, -20			; ffffffecH
  00075	88 55 f1	 mov	 BYTE PTR __k$[ebp+5], dl
  00078	8a 50 06	 mov	 dl, BYTE PTR [eax+6]
  0007b	84 d2		 test	 dl, dl
  0007d	0f 84 83 00 00
	00		 je	 $LN90@LoadInt_e
  00083	80 f2 eb	 xor	 dl, -21			; ffffffebH
  00086	88 55 f2	 mov	 BYTE PTR __k$[ebp+6], dl
  00089	8a 50 07	 mov	 dl, BYTE PTR [eax+7]
  0008c	84 d2		 test	 dl, dl
  0008e	74 70		 je	 SHORT $LN89@LoadInt_e
  00090	80 f2 ea	 xor	 dl, -22			; ffffffeaH
  00093	88 55 f3	 mov	 BYTE PTR __k$[ebp+7], dl
  00096	8a 50 08	 mov	 dl, BYTE PTR [eax+8]
  00099	84 d2		 test	 dl, dl
  0009b	74 5d		 je	 SHORT $LN88@LoadInt_e
  0009d	80 f2 ed	 xor	 dl, -19			; ffffffedH
  000a0	80 78 09 00	 cmp	 BYTE PTR [eax+9], 0
  000a4	88 55 f4	 mov	 BYTE PTR __k$[ebp+8], dl
  000a7	0f 84 81 00 00
	00		 je	 $LN1@LoadInt_e
  000ad	8a 50 0a	 mov	 dl, BYTE PTR [eax+10]
  000b0	84 d2		 test	 dl, dl
  000b2	74 40		 je	 SHORT $LN86@LoadInt_e
  000b4	80 f2 eb	 xor	 dl, -21			; ffffffebH
  000b7	88 55 f6	 mov	 BYTE PTR __k$[ebp+10], dl
  000ba	8a 50 0b	 mov	 dl, BYTE PTR [eax+11]
  000bd	84 d2		 test	 dl, dl
  000bf	74 2d		 je	 SHORT $LN85@LoadInt_e
  000c1	80 f2 ea	 xor	 dl, -22			; ffffffeaH
  000c4	88 55 f7	 mov	 BYTE PTR __k$[ebp+11], dl
  000c7	8a 50 0c	 mov	 dl, BYTE PTR [eax+12]
  000ca	84 d2		 test	 dl, dl
  000cc	74 1a		 je	 SHORT $LN84@LoadInt_e
  000ce	8a 40 0d	 mov	 al, BYTE PTR [eax+13]
  000d1	80 f2 ed	 xor	 dl, -19			; ffffffedH
  000d4	88 55 f8	 mov	 BYTE PTR __k$[ebp+12], dl
  000d7	84 c0		 test	 al, al
  000d9	74 07		 je	 SHORT $LN83@LoadInt_e
  000db	34 ec		 xor	 al, -20			; ffffffecH
  000dd	88 45 f9	 mov	 BYTE PTR __k$[ebp+13], al
  000e0	eb 4c		 jmp	 SHORT $LN1@LoadInt_e
$LN83@LoadInt_e:
  000e2	c6 45 f9 ec	 mov	 BYTE PTR __k$[ebp+13], -20 ; ffffffecH
  000e6	eb 46		 jmp	 SHORT $LN1@LoadInt_e
$LN84@LoadInt_e:
  000e8	c6 45 f8 ed	 mov	 BYTE PTR __k$[ebp+12], -19 ; ffffffedH
  000ec	eb 40		 jmp	 SHORT $LN1@LoadInt_e
$LN85@LoadInt_e:
  000ee	c6 45 f7 ea	 mov	 BYTE PTR __k$[ebp+11], -22 ; ffffffeaH
  000f2	eb 3a		 jmp	 SHORT $LN1@LoadInt_e
$LN86@LoadInt_e:
  000f4	c6 45 f6 eb	 mov	 BYTE PTR __k$[ebp+10], -21 ; ffffffebH
  000f8	eb 34		 jmp	 SHORT $LN1@LoadInt_e
$LN88@LoadInt_e:
  000fa	c6 45 f4 ed	 mov	 BYTE PTR __k$[ebp+8], -19 ; ffffffedH
  000fe	eb 2e		 jmp	 SHORT $LN1@LoadInt_e
$LN89@LoadInt_e:
  00100	c6 45 f3 ea	 mov	 BYTE PTR __k$[ebp+7], -22 ; ffffffeaH
  00104	eb 28		 jmp	 SHORT $LN1@LoadInt_e
$LN90@LoadInt_e:
  00106	c6 45 f2 eb	 mov	 BYTE PTR __k$[ebp+6], -21 ; ffffffebH
  0010a	eb 22		 jmp	 SHORT $LN1@LoadInt_e
$LN91@LoadInt_e:
  0010c	c6 45 f1 ec	 mov	 BYTE PTR __k$[ebp+5], -20 ; ffffffecH
  00110	eb 1c		 jmp	 SHORT $LN1@LoadInt_e
$LN92@LoadInt_e:
  00112	c6 45 f0 ed	 mov	 BYTE PTR __k$[ebp+4], -19 ; ffffffedH
  00116	eb 16		 jmp	 SHORT $LN1@LoadInt_e
$LN93@LoadInt_e:
  00118	c6 45 ef ea	 mov	 BYTE PTR __k$[ebp+3], -22 ; ffffffeaH
  0011c	eb 10		 jmp	 SHORT $LN1@LoadInt_e
$LN94@LoadInt_e:
  0011e	c6 45 ee eb	 mov	 BYTE PTR __k$[ebp+2], -21 ; ffffffebH
  00122	eb 0a		 jmp	 SHORT $LN1@LoadInt_e
$LN95@LoadInt_e:
  00124	c6 45 ed ec	 mov	 BYTE PTR __k$[ebp+1], -20 ; ffffffecH
  00128	eb 04		 jmp	 SHORT $LN1@LoadInt_e
$LN96@LoadInt_e:
  0012a	c6 45 ec ed	 mov	 BYTE PTR __k$[ebp], -19	; ffffffedH
$LN1@LoadInt_e:
  0012e	6a 02		 push	 2
  00130	8d 45 ec	 lea	 eax, DWORD PTR __k$[ebp]
  00133	c6 45 f5 00	 mov	 BYTE PTR __k$[ebp+9], 0
  00137	5a		 pop	 edx
$LL104@LoadInt_e:
  00138	81 30 ed ec eb
	ea		 xor	 DWORD PTR [eax], -353637139 ; eaebecedH
  0013e	83 c0 04	 add	 eax, 4
  00141	4a		 dec	 edx
  00142	75 f4		 jne	 SHORT $LL104@LoadInt_e

; 120  : 		return LoadInt(_k, i);

  00144	ff 75 0c	 push	 DWORD PTR _i$[ebp]
  00147	80 75 f4 ed	 xor	 BYTE PTR __k$[ebp+8], -19 ; ffffffedH
  0014b	8d 45 ec	 lea	 eax, DWORD PTR __k$[ebp]
  0014e	50		 push	 eax
  0014f	ff 15 00 00 00
	00		 call	 DWORD PTR __imp_?LoadInt@ioINILoader@@QAEHPBDH@Z

; 121  : 	}

  00155	8b 4d fc	 mov	 ecx, DWORD PTR __$ArrayPad$[ebp]
  00158	33 cd		 xor	 ecx, ebp
  0015a	e8 00 00 00 00	 call	 @__security_check_cookie@4
  0015f	c9		 leave
  00160	c2 08 00	 ret	 8
??$LoadInt_e@$09@ioINILoader@@QAEHAAY09$$CBDH@Z ENDP	; ioINILoader::LoadInt_e<10>
_TEXT	ENDS
PUBLIC	__$ArrayPad$
PUBLIC	??$LoadInt_e@$0BC@@ioINILoader@@QAEHAAY0BC@$$CBDH@Z ; ioINILoader::LoadInt_e<18>
; Function compile flags: /Ogsp
;	COMDAT ??$LoadInt_e@$0BC@@ioINILoader@@QAEHAAY0BC@$$CBDH@Z
_TEXT	SEGMENT
__k$ = -28						; size = 18
__$ArrayPad$ = -4					; size = 4
_k$ = 8							; size = 4
_i$ = 12						; size = 4
??$LoadInt_e@$0BC@@ioINILoader@@QAEHAAY0BC@$$CBDH@Z PROC ; ioINILoader::LoadInt_e<18>, COMDAT
; _this$ = ecx

; 118  : 	{

  00000	55		 push	 ebp
  00001	8b ec		 mov	 ebp, esp
  00003	83 ec 1c	 sub	 esp, 28			; 0000001cH
  00006	a1 00 00 00 00	 mov	 eax, DWORD PTR ___security_cookie
  0000b	33 c5		 xor	 eax, ebp
  0000d	89 45 fc	 mov	 DWORD PTR __$ArrayPad$[ebp], eax
  00010	8b 45 08	 mov	 eax, DWORD PTR _k$[ebp]

; 119  : 		_ENCSTR(k, _k);

  00013	8a 10		 mov	 dl, BYTE PTR [eax]
  00015	56		 push	 esi
  00016	8b f1		 mov	 esi, ecx
  00018	84 d2		 test	 dl, dl
  0001a	0f 84 be 01 00
	00		 je	 $LN96@LoadInt_e@2
  00020	80 f2 ed	 xor	 dl, -19			; ffffffedH
  00023	88 55 e4	 mov	 BYTE PTR __k$[ebp], dl
  00026	8a 50 01	 mov	 dl, BYTE PTR [eax+1]
  00029	84 d2		 test	 dl, dl
  0002b	0f 84 a7 01 00
	00		 je	 $LN95@LoadInt_e@2
  00031	80 f2 ec	 xor	 dl, -20			; ffffffecH
  00034	88 55 e5	 mov	 BYTE PTR __k$[ebp+1], dl
  00037	8a 50 02	 mov	 dl, BYTE PTR [eax+2]
  0003a	84 d2		 test	 dl, dl
  0003c	0f 84 90 01 00
	00		 je	 $LN94@LoadInt_e@2
  00042	b1 eb		 mov	 cl, -21			; ffffffebH
  00044	32 d1		 xor	 dl, cl
  00046	88 55 e6	 mov	 BYTE PTR __k$[ebp+2], dl
  00049	8a 50 03	 mov	 dl, BYTE PTR [eax+3]
  0004c	84 d2		 test	 dl, dl
  0004e	0f 84 78 01 00
	00		 je	 $LN93@LoadInt_e@2
  00054	80 f2 ea	 xor	 dl, -22			; ffffffeaH
  00057	88 55 e7	 mov	 BYTE PTR __k$[ebp+3], dl
  0005a	8a 50 04	 mov	 dl, BYTE PTR [eax+4]
  0005d	84 d2		 test	 dl, dl
  0005f	0f 84 61 01 00
	00		 je	 $LN92@LoadInt_e@2
  00065	80 f2 ed	 xor	 dl, -19			; ffffffedH
  00068	88 55 e8	 mov	 BYTE PTR __k$[ebp+4], dl
  0006b	8a 50 05	 mov	 dl, BYTE PTR [eax+5]
  0006e	84 d2		 test	 dl, dl
  00070	0f 84 4a 01 00
	00		 je	 $LN91@LoadInt_e@2
  00076	80 f2 ec	 xor	 dl, -20			; ffffffecH
  00079	88 55 e9	 mov	 BYTE PTR __k$[ebp+5], dl
  0007c	8a 50 06	 mov	 dl, BYTE PTR [eax+6]
  0007f	84 d2		 test	 dl, dl
  00081	0f 84 34 01 00
	00		 je	 $LN90@LoadInt_e@2
  00087	32 d1		 xor	 dl, cl
  00089	88 55 ea	 mov	 BYTE PTR __k$[ebp+6], dl
  0008c	8a 50 07	 mov	 dl, BYTE PTR [eax+7]
  0008f	84 d2		 test	 dl, dl
  00091	0f 84 1e 01 00
	00		 je	 $LN89@LoadInt_e@2
  00097	80 f2 ea	 xor	 dl, -22			; ffffffeaH
  0009a	88 55 eb	 mov	 BYTE PTR __k$[ebp+7], dl
  0009d	8a 50 08	 mov	 dl, BYTE PTR [eax+8]
  000a0	84 d2		 test	 dl, dl
  000a2	0f 84 07 01 00
	00		 je	 $LN88@LoadInt_e@2
  000a8	80 f2 ed	 xor	 dl, -19			; ffffffedH
  000ab	88 55 ec	 mov	 BYTE PTR __k$[ebp+8], dl
  000ae	8a 50 09	 mov	 dl, BYTE PTR [eax+9]
  000b1	84 d2		 test	 dl, dl
  000b3	0f 84 f0 00 00
	00		 je	 $LN87@LoadInt_e@2
  000b9	80 f2 ec	 xor	 dl, -20			; ffffffecH
  000bc	88 55 ed	 mov	 BYTE PTR __k$[ebp+9], dl
  000bf	8a 50 0a	 mov	 dl, BYTE PTR [eax+10]
  000c2	84 d2		 test	 dl, dl
  000c4	0f 84 da 00 00
	00		 je	 $LN86@LoadInt_e@2
  000ca	32 d1		 xor	 dl, cl
  000cc	88 55 ee	 mov	 BYTE PTR __k$[ebp+10], dl
  000cf	8a 50 0b	 mov	 dl, BYTE PTR [eax+11]
  000d2	84 d2		 test	 dl, dl
  000d4	0f 84 c4 00 00
	00		 je	 $LN85@LoadInt_e@2
  000da	80 f2 ea	 xor	 dl, -22			; ffffffeaH
  000dd	88 55 ef	 mov	 BYTE PTR __k$[ebp+11], dl
  000e0	8a 50 0c	 mov	 dl, BYTE PTR [eax+12]
  000e3	84 d2		 test	 dl, dl
  000e5	0f 84 ad 00 00
	00		 je	 $LN84@LoadInt_e@2
  000eb	80 f2 ed	 xor	 dl, -19			; ffffffedH
  000ee	88 55 f0	 mov	 BYTE PTR __k$[ebp+12], dl
  000f1	8a 50 0d	 mov	 dl, BYTE PTR [eax+13]
  000f4	84 d2		 test	 dl, dl
  000f6	0f 84 96 00 00
	00		 je	 $LN83@LoadInt_e@2
  000fc	80 f2 ec	 xor	 dl, -20			; ffffffecH
  000ff	88 55 f1	 mov	 BYTE PTR __k$[ebp+13], dl
  00102	8a 50 0e	 mov	 dl, BYTE PTR [eax+14]
  00105	84 d2		 test	 dl, dl
  00107	0f 84 80 00 00
	00		 je	 $LN82@LoadInt_e@2
  0010d	32 d1		 xor	 dl, cl
  0010f	88 55 f2	 mov	 BYTE PTR __k$[ebp+14], dl
  00112	8a 50 0f	 mov	 dl, BYTE PTR [eax+15]
  00115	84 d2		 test	 dl, dl
  00117	74 6e		 je	 SHORT $LN81@LoadInt_e@2
  00119	80 f2 ea	 xor	 dl, -22			; ffffffeaH
  0011c	88 55 f3	 mov	 BYTE PTR __k$[ebp+15], dl
  0011f	8a 50 10	 mov	 dl, BYTE PTR [eax+16]
  00122	84 d2		 test	 dl, dl
  00124	74 5b		 je	 SHORT $LN80@LoadInt_e@2
  00126	80 f2 ed	 xor	 dl, -19			; ffffffedH
  00129	80 78 11 00	 cmp	 BYTE PTR [eax+17], 0
  0012d	88 55 f4	 mov	 BYTE PTR __k$[ebp+16], dl
  00130	0f 84 ac 00 00
	00		 je	 $LN1@LoadInt_e@2
  00136	8a 50 12	 mov	 dl, BYTE PTR [eax+18]
  00139	84 d2		 test	 dl, dl
  0013b	74 3f		 je	 SHORT $LN78@LoadInt_e@2
  0013d	32 d1		 xor	 dl, cl
  0013f	88 55 f6	 mov	 BYTE PTR __k$[ebp+18], dl
  00142	8a 50 13	 mov	 dl, BYTE PTR [eax+19]
  00145	84 d2		 test	 dl, dl
  00147	74 2d		 je	 SHORT $LN77@LoadInt_e@2
  00149	80 f2 ea	 xor	 dl, -22			; ffffffeaH
  0014c	88 55 f7	 mov	 BYTE PTR __k$[ebp+19], dl
  0014f	8a 50 14	 mov	 dl, BYTE PTR [eax+20]
  00152	84 d2		 test	 dl, dl
  00154	74 1a		 je	 SHORT $LN76@LoadInt_e@2
  00156	8a 40 15	 mov	 al, BYTE PTR [eax+21]
  00159	80 f2 ed	 xor	 dl, -19			; ffffffedH
  0015c	88 55 f8	 mov	 BYTE PTR __k$[ebp+20], dl
  0015f	84 c0		 test	 al, al
  00161	74 07		 je	 SHORT $LN75@LoadInt_e@2
  00163	34 ec		 xor	 al, -20			; ffffffecH
  00165	88 45 f9	 mov	 BYTE PTR __k$[ebp+21], al
  00168	eb 78		 jmp	 SHORT $LN1@LoadInt_e@2
$LN75@LoadInt_e@2:
  0016a	c6 45 f9 ec	 mov	 BYTE PTR __k$[ebp+21], -20 ; ffffffecH
  0016e	eb 72		 jmp	 SHORT $LN1@LoadInt_e@2
$LN76@LoadInt_e@2:
  00170	c6 45 f8 ed	 mov	 BYTE PTR __k$[ebp+20], -19 ; ffffffedH
  00174	eb 6c		 jmp	 SHORT $LN1@LoadInt_e@2
$LN77@LoadInt_e@2:
  00176	c6 45 f7 ea	 mov	 BYTE PTR __k$[ebp+19], -22 ; ffffffeaH
  0017a	eb 66		 jmp	 SHORT $LN1@LoadInt_e@2
$LN78@LoadInt_e@2:
  0017c	88 4d f6	 mov	 BYTE PTR __k$[ebp+18], cl
  0017f	eb 61		 jmp	 SHORT $LN1@LoadInt_e@2
$LN80@LoadInt_e@2:
  00181	c6 45 f4 ed	 mov	 BYTE PTR __k$[ebp+16], -19 ; ffffffedH
  00185	eb 5b		 jmp	 SHORT $LN1@LoadInt_e@2
$LN81@LoadInt_e@2:
  00187	c6 45 f3 ea	 mov	 BYTE PTR __k$[ebp+15], -22 ; ffffffeaH
  0018b	eb 55		 jmp	 SHORT $LN1@LoadInt_e@2
$LN82@LoadInt_e@2:
  0018d	88 4d f2	 mov	 BYTE PTR __k$[ebp+14], cl
  00190	eb 50		 jmp	 SHORT $LN1@LoadInt_e@2
$LN83@LoadInt_e@2:
  00192	c6 45 f1 ec	 mov	 BYTE PTR __k$[ebp+13], -20 ; ffffffecH
  00196	eb 4a		 jmp	 SHORT $LN1@LoadInt_e@2
$LN84@LoadInt_e@2:
  00198	c6 45 f0 ed	 mov	 BYTE PTR __k$[ebp+12], -19 ; ffffffedH
  0019c	eb 44		 jmp	 SHORT $LN1@LoadInt_e@2
$LN85@LoadInt_e@2:
  0019e	c6 45 ef ea	 mov	 BYTE PTR __k$[ebp+11], -22 ; ffffffeaH
  001a2	eb 3e		 jmp	 SHORT $LN1@LoadInt_e@2
$LN86@LoadInt_e@2:
  001a4	88 4d ee	 mov	 BYTE PTR __k$[ebp+10], cl
  001a7	eb 39		 jmp	 SHORT $LN1@LoadInt_e@2
$LN87@LoadInt_e@2:
  001a9	c6 45 ed ec	 mov	 BYTE PTR __k$[ebp+9], -20 ; ffffffecH
  001ad	eb 33		 jmp	 SHORT $LN1@LoadInt_e@2
$LN88@LoadInt_e@2:
  001af	c6 45 ec ed	 mov	 BYTE PTR __k$[ebp+8], -19 ; ffffffedH
  001b3	eb 2d		 jmp	 SHORT $LN1@LoadInt_e@2
$LN89@LoadInt_e@2:
  001b5	c6 45 eb ea	 mov	 BYTE PTR __k$[ebp+7], -22 ; ffffffeaH
  001b9	eb 27		 jmp	 SHORT $LN1@LoadInt_e@2
$LN90@LoadInt_e@2:
  001bb	88 4d ea	 mov	 BYTE PTR __k$[ebp+6], cl
  001be	eb 22		 jmp	 SHORT $LN1@LoadInt_e@2
$LN91@LoadInt_e@2:
  001c0	c6 45 e9 ec	 mov	 BYTE PTR __k$[ebp+5], -20 ; ffffffecH
  001c4	eb 1c		 jmp	 SHORT $LN1@LoadInt_e@2
$LN92@LoadInt_e@2:
  001c6	c6 45 e8 ed	 mov	 BYTE PTR __k$[ebp+4], -19 ; ffffffedH
  001ca	eb 16		 jmp	 SHORT $LN1@LoadInt_e@2
$LN93@LoadInt_e@2:
  001cc	c6 45 e7 ea	 mov	 BYTE PTR __k$[ebp+3], -22 ; ffffffeaH
  001d0	eb 10		 jmp	 SHORT $LN1@LoadInt_e@2
$LN94@LoadInt_e@2:
  001d2	c6 45 e6 eb	 mov	 BYTE PTR __k$[ebp+2], -21 ; ffffffebH
  001d6	eb 0a		 jmp	 SHORT $LN1@LoadInt_e@2
$LN95@LoadInt_e@2:
  001d8	c6 45 e5 ec	 mov	 BYTE PTR __k$[ebp+1], -20 ; ffffffecH
  001dc	eb 04		 jmp	 SHORT $LN1@LoadInt_e@2
$LN96@LoadInt_e@2:
  001de	c6 45 e4 ed	 mov	 BYTE PTR __k$[ebp], -19	; ffffffedH
$LN1@LoadInt_e@2:
  001e2	6a 04		 push	 4
  001e4	8d 45 e4	 lea	 eax, DWORD PTR __k$[ebp]
  001e7	c6 45 f5 00	 mov	 BYTE PTR __k$[ebp+17], 0
  001eb	5a		 pop	 edx
$LL104@LoadInt_e@2:
  001ec	81 30 ed ec eb
	ea		 xor	 DWORD PTR [eax], -353637139 ; eaebecedH
  001f2	83 c0 04	 add	 eax, 4
  001f5	4a		 dec	 edx
  001f6	75 f4		 jne	 SHORT $LL104@LoadInt_e@2

; 120  : 		return LoadInt(_k, i);

  001f8	ff 75 0c	 push	 DWORD PTR _i$[ebp]
  001fb	80 75 f4 ed	 xor	 BYTE PTR __k$[ebp+16], -19 ; ffffffedH
  001ff	8d 45 e4	 lea	 eax, DWORD PTR __k$[ebp]
  00202	50		 push	 eax
  00203	8b ce		 mov	 ecx, esi
  00205	ff 15 00 00 00
	00		 call	 DWORD PTR __imp_?LoadInt@ioINILoader@@QAEHPBDH@Z

; 121  : 	}

  0020b	8b 4d fc	 mov	 ecx, DWORD PTR __$ArrayPad$[ebp]
  0020e	33 cd		 xor	 ecx, ebp
  00210	5e		 pop	 esi
  00211	e8 00 00 00 00	 call	 @__security_check_cookie@4
  00216	c9		 leave
  00217	c2 08 00	 ret	 8
??$LoadInt_e@$0BC@@ioINILoader@@QAEHAAY0BC@$$CBDH@Z ENDP ; ioINILoader::LoadInt_e<18>
_TEXT	ENDS
PUBLIC	__$ArrayPad$
PUBLIC	??$LoadFloat_e@$0M@@ioINILoader@@QAEMAAY0M@$$CBDM@Z ; ioINILoader::LoadFloat_e<12>
EXTRN	__imp_?LoadFloat@ioINILoader@@QAEMPBDM@Z:PROC
; Function compile flags: /Ogsp
;	COMDAT ??$LoadFloat_e@$0M@@ioINILoader@@QAEMAAY0M@$$CBDM@Z
_TEXT	SEGMENT
__k$ = -20						; size = 12
__$ArrayPad$ = -4					; size = 4
_k$ = 8							; size = 4
_f$ = 12						; size = 4
??$LoadFloat_e@$0M@@ioINILoader@@QAEMAAY0M@$$CBDM@Z PROC ; ioINILoader::LoadFloat_e<12>, COMDAT
; _this$ = ecx

; 135  : 	{

  00000	55		 push	 ebp
  00001	8b ec		 mov	 ebp, esp
  00003	83 ec 14	 sub	 esp, 20			; 00000014H
  00006	a1 00 00 00 00	 mov	 eax, DWORD PTR ___security_cookie
  0000b	33 c5		 xor	 eax, ebp
  0000d	89 45 fc	 mov	 DWORD PTR __$ArrayPad$[ebp], eax
  00010	8b 45 08	 mov	 eax, DWORD PTR _k$[ebp]

; 136  : 		_ENCSTR(k, _k);

  00013	8a 10		 mov	 dl, BYTE PTR [eax]
  00015	56		 push	 esi
  00016	8b f1		 mov	 esi, ecx
  00018	84 d2		 test	 dl, dl
  0001a	0f 84 32 01 00
	00		 je	 $LN96@LoadFloat_
  00020	80 f2 ed	 xor	 dl, -19			; ffffffedH
  00023	88 55 ec	 mov	 BYTE PTR __k$[ebp], dl
  00026	8a 50 01	 mov	 dl, BYTE PTR [eax+1]
  00029	84 d2		 test	 dl, dl
  0002b	0f 84 1b 01 00
	00		 je	 $LN95@LoadFloat_
  00031	80 f2 ec	 xor	 dl, -20			; ffffffecH
  00034	88 55 ed	 mov	 BYTE PTR __k$[ebp+1], dl
  00037	8a 50 02	 mov	 dl, BYTE PTR [eax+2]
  0003a	84 d2		 test	 dl, dl
  0003c	0f 84 04 01 00
	00		 je	 $LN94@LoadFloat_
  00042	b1 eb		 mov	 cl, -21			; ffffffebH
  00044	32 d1		 xor	 dl, cl
  00046	88 55 ee	 mov	 BYTE PTR __k$[ebp+2], dl
  00049	8a 50 03	 mov	 dl, BYTE PTR [eax+3]
  0004c	84 d2		 test	 dl, dl
  0004e	0f 84 ec 00 00
	00		 je	 $LN93@LoadFloat_
  00054	80 f2 ea	 xor	 dl, -22			; ffffffeaH
  00057	88 55 ef	 mov	 BYTE PTR __k$[ebp+3], dl
  0005a	8a 50 04	 mov	 dl, BYTE PTR [eax+4]
  0005d	84 d2		 test	 dl, dl
  0005f	0f 84 d5 00 00
	00		 je	 $LN92@LoadFloat_
  00065	80 f2 ed	 xor	 dl, -19			; ffffffedH
  00068	88 55 f0	 mov	 BYTE PTR __k$[ebp+4], dl
  0006b	8a 50 05	 mov	 dl, BYTE PTR [eax+5]
  0006e	84 d2		 test	 dl, dl
  00070	0f 84 be 00 00
	00		 je	 $LN91@LoadFloat_
  00076	80 f2 ec	 xor	 dl, -20			; ffffffecH
  00079	88 55 f1	 mov	 BYTE PTR __k$[ebp+5], dl
  0007c	8a 50 06	 mov	 dl, BYTE PTR [eax+6]
  0007f	84 d2		 test	 dl, dl
  00081	0f 84 a8 00 00
	00		 je	 $LN90@LoadFloat_
  00087	32 d1		 xor	 dl, cl
  00089	88 55 f2	 mov	 BYTE PTR __k$[ebp+6], dl
  0008c	8a 50 07	 mov	 dl, BYTE PTR [eax+7]
  0008f	84 d2		 test	 dl, dl
  00091	0f 84 92 00 00
	00		 je	 $LN89@LoadFloat_
  00097	80 f2 ea	 xor	 dl, -22			; ffffffeaH
  0009a	88 55 f3	 mov	 BYTE PTR __k$[ebp+7], dl
  0009d	8a 50 08	 mov	 dl, BYTE PTR [eax+8]
  000a0	84 d2		 test	 dl, dl
  000a2	74 7f		 je	 SHORT $LN88@LoadFloat_
  000a4	80 f2 ed	 xor	 dl, -19			; ffffffedH
  000a7	88 55 f4	 mov	 BYTE PTR __k$[ebp+8], dl
  000aa	8a 50 09	 mov	 dl, BYTE PTR [eax+9]
  000ad	84 d2		 test	 dl, dl
  000af	74 6c		 je	 SHORT $LN87@LoadFloat_
  000b1	80 f2 ec	 xor	 dl, -20			; ffffffecH
  000b4	88 55 f5	 mov	 BYTE PTR __k$[ebp+9], dl
  000b7	8a 50 0a	 mov	 dl, BYTE PTR [eax+10]
  000ba	84 d2		 test	 dl, dl
  000bc	74 5a		 je	 SHORT $LN86@LoadFloat_
  000be	32 d1		 xor	 dl, cl
  000c0	80 78 0b 00	 cmp	 BYTE PTR [eax+11], 0
  000c4	88 55 f6	 mov	 BYTE PTR __k$[ebp+10], dl
  000c7	0f 84 89 00 00
	00		 je	 $LN1@LoadFloat_
  000cd	8a 50 0c	 mov	 dl, BYTE PTR [eax+12]
  000d0	84 d2		 test	 dl, dl
  000d2	74 3e		 je	 SHORT $LN84@LoadFloat_
  000d4	80 f2 ed	 xor	 dl, -19			; ffffffedH
  000d7	88 55 f8	 mov	 BYTE PTR __k$[ebp+12], dl
  000da	8a 50 0d	 mov	 dl, BYTE PTR [eax+13]
  000dd	84 d2		 test	 dl, dl
  000df	74 2b		 je	 SHORT $LN83@LoadFloat_
  000e1	80 f2 ec	 xor	 dl, -20			; ffffffecH
  000e4	88 55 f9	 mov	 BYTE PTR __k$[ebp+13], dl
  000e7	8a 50 0e	 mov	 dl, BYTE PTR [eax+14]
  000ea	84 d2		 test	 dl, dl
  000ec	74 19		 je	 SHORT $LN82@LoadFloat_
  000ee	8a 40 0f	 mov	 al, BYTE PTR [eax+15]
  000f1	32 d1		 xor	 dl, cl
  000f3	88 55 fa	 mov	 BYTE PTR __k$[ebp+14], dl
  000f6	84 c0		 test	 al, al
  000f8	74 07		 je	 SHORT $LN81@LoadFloat_
  000fa	34 ea		 xor	 al, -22			; ffffffeaH
  000fc	88 45 fb	 mov	 BYTE PTR __k$[ebp+15], al
  000ff	eb 55		 jmp	 SHORT $LN1@LoadFloat_
$LN81@LoadFloat_:
  00101	c6 45 fb ea	 mov	 BYTE PTR __k$[ebp+15], -22 ; ffffffeaH
  00105	eb 4f		 jmp	 SHORT $LN1@LoadFloat_
$LN82@LoadFloat_:
  00107	88 4d fa	 mov	 BYTE PTR __k$[ebp+14], cl
  0010a	eb 4a		 jmp	 SHORT $LN1@LoadFloat_
$LN83@LoadFloat_:
  0010c	c6 45 f9 ec	 mov	 BYTE PTR __k$[ebp+13], -20 ; ffffffecH
  00110	eb 44		 jmp	 SHORT $LN1@LoadFloat_
$LN84@LoadFloat_:
  00112	c6 45 f8 ed	 mov	 BYTE PTR __k$[ebp+12], -19 ; ffffffedH
  00116	eb 3e		 jmp	 SHORT $LN1@LoadFloat_
$LN86@LoadFloat_:
  00118	88 4d f6	 mov	 BYTE PTR __k$[ebp+10], cl
  0011b	eb 39		 jmp	 SHORT $LN1@LoadFloat_
$LN87@LoadFloat_:
  0011d	c6 45 f5 ec	 mov	 BYTE PTR __k$[ebp+9], -20 ; ffffffecH
  00121	eb 33		 jmp	 SHORT $LN1@LoadFloat_
$LN88@LoadFloat_:
  00123	c6 45 f4 ed	 mov	 BYTE PTR __k$[ebp+8], -19 ; ffffffedH
  00127	eb 2d		 jmp	 SHORT $LN1@LoadFloat_
$LN89@LoadFloat_:
  00129	c6 45 f3 ea	 mov	 BYTE PTR __k$[ebp+7], -22 ; ffffffeaH
  0012d	eb 27		 jmp	 SHORT $LN1@LoadFloat_
$LN90@LoadFloat_:
  0012f	88 4d f2	 mov	 BYTE PTR __k$[ebp+6], cl
  00132	eb 22		 jmp	 SHORT $LN1@LoadFloat_
$LN91@LoadFloat_:
  00134	c6 45 f1 ec	 mov	 BYTE PTR __k$[ebp+5], -20 ; ffffffecH
  00138	eb 1c		 jmp	 SHORT $LN1@LoadFloat_
$LN92@LoadFloat_:
  0013a	c6 45 f0 ed	 mov	 BYTE PTR __k$[ebp+4], -19 ; ffffffedH
  0013e	eb 16		 jmp	 SHORT $LN1@LoadFloat_
$LN93@LoadFloat_:
  00140	c6 45 ef ea	 mov	 BYTE PTR __k$[ebp+3], -22 ; ffffffeaH
  00144	eb 10		 jmp	 SHORT $LN1@LoadFloat_
$LN94@LoadFloat_:
  00146	c6 45 ee eb	 mov	 BYTE PTR __k$[ebp+2], -21 ; ffffffebH
  0014a	eb 0a		 jmp	 SHORT $LN1@LoadFloat_
$LN95@LoadFloat_:
  0014c	c6 45 ed ec	 mov	 BYTE PTR __k$[ebp+1], -20 ; ffffffecH
  00150	eb 04		 jmp	 SHORT $LN1@LoadFloat_
$LN96@LoadFloat_:
  00152	c6 45 ec ed	 mov	 BYTE PTR __k$[ebp], -19	; ffffffedH
$LN1@LoadFloat_:
  00156	6a 02		 push	 2
  00158	8d 45 ec	 lea	 eax, DWORD PTR __k$[ebp]
  0015b	c6 45 f7 00	 mov	 BYTE PTR __k$[ebp+11], 0
  0015f	5a		 pop	 edx
$LL104@LoadFloat_:
  00160	81 30 ed ec eb
	ea		 xor	 DWORD PTR [eax], -353637139 ; eaebecedH
  00166	83 c0 04	 add	 eax, 4
  00169	4a		 dec	 edx
  0016a	75 f4		 jne	 SHORT $LL104@LoadFloat_
  0016c	6a 08		 push	 8
  0016e	58		 pop	 eax
$LL101@LoadFloat_:
  0016f	8b c8		 mov	 ecx, eax
  00171	81 e1 03 00 00
	80		 and	 ecx, -2147483645	; 80000003H
  00177	79 05		 jns	 SHORT $LN111@LoadFloat_
  00179	49		 dec	 ecx
  0017a	83 c9 fc	 or	 ecx, -4			; fffffffcH
  0017d	41		 inc	 ecx
$LN111@LoadFloat_:
  0017e	b2 ed		 mov	 dl, -19			; ffffffedH
  00180	2a d1		 sub	 dl, cl
  00182	30 54 05 ec	 xor	 BYTE PTR __k$[ebp+eax], dl
  00186	40		 inc	 eax
  00187	83 f8 0b	 cmp	 eax, 11			; 0000000bH
  0018a	7c e3		 jl	 SHORT $LL101@LoadFloat_

; 137  : 		return LoadFloat(_k, f);

  0018c	f3 0f 10 45 0c	 movss	 xmm0, DWORD PTR _f$[ebp]
  00191	51		 push	 ecx
  00192	8d 45 ec	 lea	 eax, DWORD PTR __k$[ebp]
  00195	f3 0f 11 04 24	 movss	 DWORD PTR [esp], xmm0
  0019a	50		 push	 eax
  0019b	8b ce		 mov	 ecx, esi
  0019d	ff 15 00 00 00
	00		 call	 DWORD PTR __imp_?LoadFloat@ioINILoader@@QAEMPBDM@Z

; 138  : 	}

  001a3	8b 4d fc	 mov	 ecx, DWORD PTR __$ArrayPad$[ebp]
  001a6	33 cd		 xor	 ecx, ebp
  001a8	5e		 pop	 esi
  001a9	e8 00 00 00 00	 call	 @__security_check_cookie@4
  001ae	c9		 leave
  001af	c2 08 00	 ret	 8
??$LoadFloat_e@$0M@@ioINILoader@@QAEMAAY0M@$$CBDM@Z ENDP ; ioINILoader::LoadFloat_e<12>
_TEXT	ENDS
PUBLIC	__$ArrayPad$
PUBLIC	??$LoadFloat_e@$0BD@@ioINILoader@@QAEMAAY0BD@$$CBDM@Z ; ioINILoader::LoadFloat_e<19>
; Function compile flags: /Ogsp
;	COMDAT ??$LoadFloat_e@$0BD@@ioINILoader@@QAEMAAY0BD@$$CBDM@Z
_TEXT	SEGMENT
__k$ = -28						; size = 19
__$ArrayPad$ = -4					; size = 4
_k$ = 8							; size = 4
_f$ = 12						; size = 4
??$LoadFloat_e@$0BD@@ioINILoader@@QAEMAAY0BD@$$CBDM@Z PROC ; ioINILoader::LoadFloat_e<19>, COMDAT
; _this$ = ecx

; 135  : 	{

  00000	55		 push	 ebp
  00001	8b ec		 mov	 ebp, esp
  00003	83 ec 1c	 sub	 esp, 28			; 0000001cH
  00006	a1 00 00 00 00	 mov	 eax, DWORD PTR ___security_cookie
  0000b	33 c5		 xor	 eax, ebp
  0000d	89 45 fc	 mov	 DWORD PTR __$ArrayPad$[ebp], eax
  00010	8b 45 08	 mov	 eax, DWORD PTR _k$[ebp]

; 136  : 		_ENCSTR(k, _k);

  00013	8a 10		 mov	 dl, BYTE PTR [eax]
  00015	56		 push	 esi
  00016	8b f1		 mov	 esi, ecx
  00018	84 d2		 test	 dl, dl
  0001a	0f 84 cf 01 00
	00		 je	 $LN96@LoadFloat_@2
  00020	80 f2 ed	 xor	 dl, -19			; ffffffedH
  00023	88 55 e4	 mov	 BYTE PTR __k$[ebp], dl
  00026	8a 50 01	 mov	 dl, BYTE PTR [eax+1]
  00029	84 d2		 test	 dl, dl
  0002b	0f 84 b8 01 00
	00		 je	 $LN95@LoadFloat_@2
  00031	b1 ec		 mov	 cl, -20			; ffffffecH
  00033	32 d1		 xor	 dl, cl
  00035	88 55 e5	 mov	 BYTE PTR __k$[ebp+1], dl
  00038	8a 50 02	 mov	 dl, BYTE PTR [eax+2]
  0003b	84 d2		 test	 dl, dl
  0003d	0f 84 a0 01 00
	00		 je	 $LN94@LoadFloat_@2
  00043	80 f2 eb	 xor	 dl, -21			; ffffffebH
  00046	88 55 e6	 mov	 BYTE PTR __k$[ebp+2], dl
  00049	8a 50 03	 mov	 dl, BYTE PTR [eax+3]
  0004c	84 d2		 test	 dl, dl
  0004e	0f 84 89 01 00
	00		 je	 $LN93@LoadFloat_@2
  00054	80 f2 ea	 xor	 dl, -22			; ffffffeaH
  00057	88 55 e7	 mov	 BYTE PTR __k$[ebp+3], dl
  0005a	8a 50 04	 mov	 dl, BYTE PTR [eax+4]
  0005d	84 d2		 test	 dl, dl
  0005f	0f 84 72 01 00
	00		 je	 $LN92@LoadFloat_@2
  00065	80 f2 ed	 xor	 dl, -19			; ffffffedH
  00068	88 55 e8	 mov	 BYTE PTR __k$[ebp+4], dl
  0006b	8a 50 05	 mov	 dl, BYTE PTR [eax+5]
  0006e	84 d2		 test	 dl, dl
  00070	0f 84 5c 01 00
	00		 je	 $LN91@LoadFloat_@2
  00076	32 d1		 xor	 dl, cl
  00078	88 55 e9	 mov	 BYTE PTR __k$[ebp+5], dl
  0007b	8a 50 06	 mov	 dl, BYTE PTR [eax+6]
  0007e	84 d2		 test	 dl, dl
  00080	0f 84 46 01 00
	00		 je	 $LN90@LoadFloat_@2
  00086	80 f2 eb	 xor	 dl, -21			; ffffffebH
  00089	88 55 ea	 mov	 BYTE PTR __k$[ebp+6], dl
  0008c	8a 50 07	 mov	 dl, BYTE PTR [eax+7]
  0008f	84 d2		 test	 dl, dl
  00091	0f 84 2f 01 00
	00		 je	 $LN89@LoadFloat_@2
  00097	80 f2 ea	 xor	 dl, -22			; ffffffeaH
  0009a	88 55 eb	 mov	 BYTE PTR __k$[ebp+7], dl
  0009d	8a 50 08	 mov	 dl, BYTE PTR [eax+8]
  000a0	84 d2		 test	 dl, dl
  000a2	0f 84 18 01 00
	00		 je	 $LN88@LoadFloat_@2
  000a8	80 f2 ed	 xor	 dl, -19			; ffffffedH
  000ab	88 55 ec	 mov	 BYTE PTR __k$[ebp+8], dl
  000ae	8a 50 09	 mov	 dl, BYTE PTR [eax+9]
  000b1	84 d2		 test	 dl, dl
  000b3	0f 84 02 01 00
	00		 je	 $LN87@LoadFloat_@2
  000b9	32 d1		 xor	 dl, cl
  000bb	88 55 ed	 mov	 BYTE PTR __k$[ebp+9], dl
  000be	8a 50 0a	 mov	 dl, BYTE PTR [eax+10]
  000c1	84 d2		 test	 dl, dl
  000c3	0f 84 ec 00 00
	00		 je	 $LN86@LoadFloat_@2
  000c9	80 f2 eb	 xor	 dl, -21			; ffffffebH
  000cc	88 55 ee	 mov	 BYTE PTR __k$[ebp+10], dl
  000cf	8a 50 0b	 mov	 dl, BYTE PTR [eax+11]
  000d2	84 d2		 test	 dl, dl
  000d4	0f 84 d5 00 00
	00		 je	 $LN85@LoadFloat_@2
  000da	80 f2 ea	 xor	 dl, -22			; ffffffeaH
  000dd	88 55 ef	 mov	 BYTE PTR __k$[ebp+11], dl
  000e0	8a 50 0c	 mov	 dl, BYTE PTR [eax+12]
  000e3	84 d2		 test	 dl, dl
  000e5	0f 84 be 00 00
	00		 je	 $LN84@LoadFloat_@2
  000eb	80 f2 ed	 xor	 dl, -19			; ffffffedH
  000ee	88 55 f0	 mov	 BYTE PTR __k$[ebp+12], dl
  000f1	8a 50 0d	 mov	 dl, BYTE PTR [eax+13]
  000f4	84 d2		 test	 dl, dl
  000f6	0f 84 a8 00 00
	00		 je	 $LN83@LoadFloat_@2
  000fc	32 d1		 xor	 dl, cl
  000fe	88 55 f1	 mov	 BYTE PTR __k$[ebp+13], dl
  00101	8a 50 0e	 mov	 dl, BYTE PTR [eax+14]
  00104	84 d2		 test	 dl, dl
  00106	0f 84 92 00 00
	00		 je	 $LN82@LoadFloat_@2
  0010c	80 f2 eb	 xor	 dl, -21			; ffffffebH
  0010f	88 55 f2	 mov	 BYTE PTR __k$[ebp+14], dl
  00112	8a 50 0f	 mov	 dl, BYTE PTR [eax+15]
  00115	84 d2		 test	 dl, dl
  00117	74 7f		 je	 SHORT $LN81@LoadFloat_@2
  00119	80 f2 ea	 xor	 dl, -22			; ffffffeaH
  0011c	88 55 f3	 mov	 BYTE PTR __k$[ebp+15], dl
  0011f	8a 50 10	 mov	 dl, BYTE PTR [eax+16]
  00122	84 d2		 test	 dl, dl
  00124	74 6c		 je	 SHORT $LN80@LoadFloat_@2
  00126	80 f2 ed	 xor	 dl, -19			; ffffffedH
  00129	88 55 f4	 mov	 BYTE PTR __k$[ebp+16], dl
  0012c	8a 50 11	 mov	 dl, BYTE PTR [eax+17]
  0012f	84 d2		 test	 dl, dl
  00131	74 5a		 je	 SHORT $LN79@LoadFloat_@2
  00133	32 d1		 xor	 dl, cl
  00135	80 78 12 00	 cmp	 BYTE PTR [eax+18], 0
  00139	88 55 f5	 mov	 BYTE PTR __k$[ebp+17], dl
  0013c	0f 84 b1 00 00
	00		 je	 $LN1@LoadFloat_@2
  00142	8a 50 13	 mov	 dl, BYTE PTR [eax+19]
  00145	84 d2		 test	 dl, dl
  00147	74 3e		 je	 SHORT $LN77@LoadFloat_@2
  00149	80 f2 ea	 xor	 dl, -22			; ffffffeaH
  0014c	88 55 f7	 mov	 BYTE PTR __k$[ebp+19], dl
  0014f	8a 50 14	 mov	 dl, BYTE PTR [eax+20]
  00152	84 d2		 test	 dl, dl
  00154	74 2b		 je	 SHORT $LN76@LoadFloat_@2
  00156	80 f2 ed	 xor	 dl, -19			; ffffffedH
  00159	88 55 f8	 mov	 BYTE PTR __k$[ebp+20], dl
  0015c	8a 50 15	 mov	 dl, BYTE PTR [eax+21]
  0015f	84 d2		 test	 dl, dl
  00161	74 19		 je	 SHORT $LN75@LoadFloat_@2
  00163	8a 40 16	 mov	 al, BYTE PTR [eax+22]
  00166	32 d1		 xor	 dl, cl
  00168	88 55 f9	 mov	 BYTE PTR __k$[ebp+21], dl
  0016b	84 c0		 test	 al, al
  0016d	74 07		 je	 SHORT $LN74@LoadFloat_@2
  0016f	34 eb		 xor	 al, -21			; ffffffebH
  00171	88 45 fa	 mov	 BYTE PTR __k$[ebp+22], al
  00174	eb 7d		 jmp	 SHORT $LN1@LoadFloat_@2
$LN74@LoadFloat_@2:
  00176	c6 45 fa eb	 mov	 BYTE PTR __k$[ebp+22], -21 ; ffffffebH
  0017a	eb 77		 jmp	 SHORT $LN1@LoadFloat_@2
$LN75@LoadFloat_@2:
  0017c	88 4d f9	 mov	 BYTE PTR __k$[ebp+21], cl
  0017f	eb 72		 jmp	 SHORT $LN1@LoadFloat_@2
$LN76@LoadFloat_@2:
  00181	c6 45 f8 ed	 mov	 BYTE PTR __k$[ebp+20], -19 ; ffffffedH
  00185	eb 6c		 jmp	 SHORT $LN1@LoadFloat_@2
$LN77@LoadFloat_@2:
  00187	c6 45 f7 ea	 mov	 BYTE PTR __k$[ebp+19], -22 ; ffffffeaH
  0018b	eb 66		 jmp	 SHORT $LN1@LoadFloat_@2
$LN79@LoadFloat_@2:
  0018d	88 4d f5	 mov	 BYTE PTR __k$[ebp+17], cl
  00190	eb 61		 jmp	 SHORT $LN1@LoadFloat_@2
$LN80@LoadFloat_@2:
  00192	c6 45 f4 ed	 mov	 BYTE PTR __k$[ebp+16], -19 ; ffffffedH
  00196	eb 5b		 jmp	 SHORT $LN1@LoadFloat_@2
$LN81@LoadFloat_@2:
  00198	c6 45 f3 ea	 mov	 BYTE PTR __k$[ebp+15], -22 ; ffffffeaH
  0019c	eb 55		 jmp	 SHORT $LN1@LoadFloat_@2
$LN82@LoadFloat_@2:
  0019e	c6 45 f2 eb	 mov	 BYTE PTR __k$[ebp+14], -21 ; ffffffebH
  001a2	eb 4f		 jmp	 SHORT $LN1@LoadFloat_@2
$LN83@LoadFloat_@2:
  001a4	88 4d f1	 mov	 BYTE PTR __k$[ebp+13], cl
  001a7	eb 4a		 jmp	 SHORT $LN1@LoadFloat_@2
$LN84@LoadFloat_@2:
  001a9	c6 45 f0 ed	 mov	 BYTE PTR __k$[ebp+12], -19 ; ffffffedH
  001ad	eb 44		 jmp	 SHORT $LN1@LoadFloat_@2
$LN85@LoadFloat_@2:
  001af	c6 45 ef ea	 mov	 BYTE PTR __k$[ebp+11], -22 ; ffffffeaH
  001b3	eb 3e		 jmp	 SHORT $LN1@LoadFloat_@2
$LN86@LoadFloat_@2:
  001b5	c6 45 ee eb	 mov	 BYTE PTR __k$[ebp+10], -21 ; ffffffebH
  001b9	eb 38		 jmp	 SHORT $LN1@LoadFloat_@2
$LN87@LoadFloat_@2:
  001bb	88 4d ed	 mov	 BYTE PTR __k$[ebp+9], cl
  001be	eb 33		 jmp	 SHORT $LN1@LoadFloat_@2
$LN88@LoadFloat_@2:
  001c0	c6 45 ec ed	 mov	 BYTE PTR __k$[ebp+8], -19 ; ffffffedH
  001c4	eb 2d		 jmp	 SHORT $LN1@LoadFloat_@2
$LN89@LoadFloat_@2:
  001c6	c6 45 eb ea	 mov	 BYTE PTR __k$[ebp+7], -22 ; ffffffeaH
  001ca	eb 27		 jmp	 SHORT $LN1@LoadFloat_@2
$LN90@LoadFloat_@2:
  001cc	c6 45 ea eb	 mov	 BYTE PTR __k$[ebp+6], -21 ; ffffffebH
  001d0	eb 21		 jmp	 SHORT $LN1@LoadFloat_@2
$LN91@LoadFloat_@2:
  001d2	88 4d e9	 mov	 BYTE PTR __k$[ebp+5], cl
  001d5	eb 1c		 jmp	 SHORT $LN1@LoadFloat_@2
$LN92@LoadFloat_@2:
  001d7	c6 45 e8 ed	 mov	 BYTE PTR __k$[ebp+4], -19 ; ffffffedH
  001db	eb 16		 jmp	 SHORT $LN1@LoadFloat_@2
$LN93@LoadFloat_@2:
  001dd	c6 45 e7 ea	 mov	 BYTE PTR __k$[ebp+3], -22 ; ffffffeaH
  001e1	eb 10		 jmp	 SHORT $LN1@LoadFloat_@2
$LN94@LoadFloat_@2:
  001e3	c6 45 e6 eb	 mov	 BYTE PTR __k$[ebp+2], -21 ; ffffffebH
  001e7	eb 0a		 jmp	 SHORT $LN1@LoadFloat_@2
$LN95@LoadFloat_@2:
  001e9	c6 45 e5 ec	 mov	 BYTE PTR __k$[ebp+1], -20 ; ffffffecH
  001ed	eb 04		 jmp	 SHORT $LN1@LoadFloat_@2
$LN96@LoadFloat_@2:
  001ef	c6 45 e4 ed	 mov	 BYTE PTR __k$[ebp], -19	; ffffffedH
$LN1@LoadFloat_@2:
  001f3	6a 04		 push	 4
  001f5	8d 45 e4	 lea	 eax, DWORD PTR __k$[ebp]
  001f8	c6 45 f6 00	 mov	 BYTE PTR __k$[ebp+18], 0
  001fc	5a		 pop	 edx
$LL104@LoadFloat_@2:
  001fd	81 30 ed ec eb
	ea		 xor	 DWORD PTR [eax], -353637139 ; eaebecedH
  00203	83 c0 04	 add	 eax, 4
  00206	4a		 dec	 edx
  00207	75 f4		 jne	 SHORT $LL104@LoadFloat_@2
  00209	6a 10		 push	 16			; 00000010H
  0020b	58		 pop	 eax
$LL101@LoadFloat_@2:
  0020c	8b c8		 mov	 ecx, eax
  0020e	81 e1 03 00 00
	80		 and	 ecx, -2147483645	; 80000003H
  00214	79 05		 jns	 SHORT $LN111@LoadFloat_@2
  00216	49		 dec	 ecx
  00217	83 c9 fc	 or	 ecx, -4			; fffffffcH
  0021a	41		 inc	 ecx
$LN111@LoadFloat_@2:
  0021b	b2 ed		 mov	 dl, -19			; ffffffedH
  0021d	2a d1		 sub	 dl, cl
  0021f	30 54 05 e4	 xor	 BYTE PTR __k$[ebp+eax], dl
  00223	40		 inc	 eax
  00224	83 f8 12	 cmp	 eax, 18			; 00000012H
  00227	7c e3		 jl	 SHORT $LL101@LoadFloat_@2

; 137  : 		return LoadFloat(_k, f);

  00229	f3 0f 10 45 0c	 movss	 xmm0, DWORD PTR _f$[ebp]
  0022e	51		 push	 ecx
  0022f	8d 45 e4	 lea	 eax, DWORD PTR __k$[ebp]
  00232	f3 0f 11 04 24	 movss	 DWORD PTR [esp], xmm0
  00237	50		 push	 eax
  00238	8b ce		 mov	 ecx, esi
  0023a	ff 15 00 00 00
	00		 call	 DWORD PTR __imp_?LoadFloat@ioINILoader@@QAEMPBDM@Z

; 138  : 	}

  00240	8b 4d fc	 mov	 ecx, DWORD PTR __$ArrayPad$[ebp]
  00243	33 cd		 xor	 ecx, ebp
  00245	5e		 pop	 esi
  00246	e8 00 00 00 00	 call	 @__security_check_cookie@4
  0024b	c9		 leave
  0024c	c2 08 00	 ret	 8
??$LoadFloat_e@$0BD@@ioINILoader@@QAEMAAY0BD@$$CBDM@Z ENDP ; ioINILoader::LoadFloat_e<19>
_TEXT	ENDS
PUBLIC	__$ArrayPad$
PUBLIC	??$LoadInt_e@$0P@@ioINILoader@@QAEHAAY0P@$$CBDH@Z ; ioINILoader::LoadInt_e<15>
; Function compile flags: /Ogsp
;	COMDAT ??$LoadInt_e@$0P@@ioINILoader@@QAEHAAY0P@$$CBDH@Z
_TEXT	SEGMENT
__k$ = -24						; size = 15
__$ArrayPad$ = -4					; size = 4
_k$ = 8							; size = 4
_i$ = 12						; size = 4
??$LoadInt_e@$0P@@ioINILoader@@QAEHAAY0P@$$CBDH@Z PROC	; ioINILoader::LoadInt_e<15>, COMDAT
; _this$ = ecx

; 118  : 	{

  00000	55		 push	 ebp
  00001	8b ec		 mov	 ebp, esp
  00003	83 ec 18	 sub	 esp, 24			; 00000018H
  00006	a1 00 00 00 00	 mov	 eax, DWORD PTR ___security_cookie
  0000b	33 c5		 xor	 eax, ebp
  0000d	89 45 fc	 mov	 DWORD PTR __$ArrayPad$[ebp], eax
  00010	8b 45 08	 mov	 eax, DWORD PTR _k$[ebp]

; 119  : 		_ENCSTR(k, _k);

  00013	8a 10		 mov	 dl, BYTE PTR [eax]
  00015	56		 push	 esi
  00016	8b f1		 mov	 esi, ecx
  00018	84 d2		 test	 dl, dl
  0001a	0f 84 75 01 00
	00		 je	 $LN96@LoadInt_e@3
  00020	80 f2 ed	 xor	 dl, -19			; ffffffedH
  00023	88 55 e8	 mov	 BYTE PTR __k$[ebp], dl
  00026	8a 50 01	 mov	 dl, BYTE PTR [eax+1]
  00029	84 d2		 test	 dl, dl
  0002b	0f 84 5e 01 00
	00		 je	 $LN95@LoadInt_e@3
  00031	b1 ec		 mov	 cl, -20			; ffffffecH
  00033	32 d1		 xor	 dl, cl
  00035	88 55 e9	 mov	 BYTE PTR __k$[ebp+1], dl
  00038	8a 50 02	 mov	 dl, BYTE PTR [eax+2]
  0003b	84 d2		 test	 dl, dl
  0003d	0f 84 46 01 00
	00		 je	 $LN94@LoadInt_e@3
  00043	80 f2 eb	 xor	 dl, -21			; ffffffebH
  00046	88 55 ea	 mov	 BYTE PTR __k$[ebp+2], dl
  00049	8a 50 03	 mov	 dl, BYTE PTR [eax+3]
  0004c	84 d2		 test	 dl, dl
  0004e	0f 84 2f 01 00
	00		 je	 $LN93@LoadInt_e@3
  00054	80 f2 ea	 xor	 dl, -22			; ffffffeaH
  00057	88 55 eb	 mov	 BYTE PTR __k$[ebp+3], dl
  0005a	8a 50 04	 mov	 dl, BYTE PTR [eax+4]
  0005d	84 d2		 test	 dl, dl
  0005f	0f 84 18 01 00
	00		 je	 $LN92@LoadInt_e@3
  00065	80 f2 ed	 xor	 dl, -19			; ffffffedH
  00068	88 55 ec	 mov	 BYTE PTR __k$[ebp+4], dl
  0006b	8a 50 05	 mov	 dl, BYTE PTR [eax+5]
  0006e	84 d2		 test	 dl, dl
  00070	0f 84 02 01 00
	00		 je	 $LN91@LoadInt_e@3
  00076	32 d1		 xor	 dl, cl
  00078	88 55 ed	 mov	 BYTE PTR __k$[ebp+5], dl
  0007b	8a 50 06	 mov	 dl, BYTE PTR [eax+6]
  0007e	84 d2		 test	 dl, dl
  00080	0f 84 ec 00 00
	00		 je	 $LN90@LoadInt_e@3
  00086	80 f2 eb	 xor	 dl, -21			; ffffffebH
  00089	88 55 ee	 mov	 BYTE PTR __k$[ebp+6], dl
  0008c	8a 50 07	 mov	 dl, BYTE PTR [eax+7]
  0008f	84 d2		 test	 dl, dl
  00091	0f 84 d5 00 00
	00		 je	 $LN89@LoadInt_e@3
  00097	80 f2 ea	 xor	 dl, -22			; ffffffeaH
  0009a	88 55 ef	 mov	 BYTE PTR __k$[ebp+7], dl
  0009d	8a 50 08	 mov	 dl, BYTE PTR [eax+8]
  000a0	84 d2		 test	 dl, dl
  000a2	0f 84 be 00 00
	00		 je	 $LN88@LoadInt_e@3
  000a8	80 f2 ed	 xor	 dl, -19			; ffffffedH
  000ab	88 55 f0	 mov	 BYTE PTR __k$[ebp+8], dl
  000ae	8a 50 09	 mov	 dl, BYTE PTR [eax+9]
  000b1	84 d2		 test	 dl, dl
  000b3	0f 84 a8 00 00
	00		 je	 $LN87@LoadInt_e@3
  000b9	32 d1		 xor	 dl, cl
  000bb	88 55 f1	 mov	 BYTE PTR __k$[ebp+9], dl
  000be	8a 50 0a	 mov	 dl, BYTE PTR [eax+10]
  000c1	84 d2		 test	 dl, dl
  000c3	0f 84 92 00 00
	00		 je	 $LN86@LoadInt_e@3
  000c9	80 f2 eb	 xor	 dl, -21			; ffffffebH
  000cc	88 55 f2	 mov	 BYTE PTR __k$[ebp+10], dl
  000cf	8a 50 0b	 mov	 dl, BYTE PTR [eax+11]
  000d2	84 d2		 test	 dl, dl
  000d4	74 7f		 je	 SHORT $LN85@LoadInt_e@3
  000d6	80 f2 ea	 xor	 dl, -22			; ffffffeaH
  000d9	88 55 f3	 mov	 BYTE PTR __k$[ebp+11], dl
  000dc	8a 50 0c	 mov	 dl, BYTE PTR [eax+12]
  000df	84 d2		 test	 dl, dl
  000e1	74 6c		 je	 SHORT $LN84@LoadInt_e@3
  000e3	80 f2 ed	 xor	 dl, -19			; ffffffedH
  000e6	88 55 f4	 mov	 BYTE PTR __k$[ebp+12], dl
  000e9	8a 50 0d	 mov	 dl, BYTE PTR [eax+13]
  000ec	84 d2		 test	 dl, dl
  000ee	74 5a		 je	 SHORT $LN83@LoadInt_e@3
  000f0	32 d1		 xor	 dl, cl
  000f2	80 78 0e 00	 cmp	 BYTE PTR [eax+14], 0
  000f6	88 55 f5	 mov	 BYTE PTR __k$[ebp+13], dl
  000f9	0f 84 9a 00 00
	00		 je	 $LN1@LoadInt_e@3
  000ff	8a 50 0f	 mov	 dl, BYTE PTR [eax+15]
  00102	84 d2		 test	 dl, dl
  00104	74 3e		 je	 SHORT $LN81@LoadInt_e@3
  00106	80 f2 ea	 xor	 dl, -22			; ffffffeaH
  00109	88 55 f7	 mov	 BYTE PTR __k$[ebp+15], dl
  0010c	8a 50 10	 mov	 dl, BYTE PTR [eax+16]
  0010f	84 d2		 test	 dl, dl
  00111	74 2b		 je	 SHORT $LN80@LoadInt_e@3
  00113	80 f2 ed	 xor	 dl, -19			; ffffffedH
  00116	88 55 f8	 mov	 BYTE PTR __k$[ebp+16], dl
  00119	8a 50 11	 mov	 dl, BYTE PTR [eax+17]
  0011c	84 d2		 test	 dl, dl
  0011e	74 19		 je	 SHORT $LN79@LoadInt_e@3
  00120	8a 40 12	 mov	 al, BYTE PTR [eax+18]
  00123	32 d1		 xor	 dl, cl
  00125	88 55 f9	 mov	 BYTE PTR __k$[ebp+17], dl
  00128	84 c0		 test	 al, al
  0012a	74 07		 je	 SHORT $LN78@LoadInt_e@3
  0012c	34 eb		 xor	 al, -21			; ffffffebH
  0012e	88 45 fa	 mov	 BYTE PTR __k$[ebp+18], al
  00131	eb 66		 jmp	 SHORT $LN1@LoadInt_e@3
$LN78@LoadInt_e@3:
  00133	c6 45 fa eb	 mov	 BYTE PTR __k$[ebp+18], -21 ; ffffffebH
  00137	eb 60		 jmp	 SHORT $LN1@LoadInt_e@3
$LN79@LoadInt_e@3:
  00139	88 4d f9	 mov	 BYTE PTR __k$[ebp+17], cl
  0013c	eb 5b		 jmp	 SHORT $LN1@LoadInt_e@3
$LN80@LoadInt_e@3:
  0013e	c6 45 f8 ed	 mov	 BYTE PTR __k$[ebp+16], -19 ; ffffffedH
  00142	eb 55		 jmp	 SHORT $LN1@LoadInt_e@3
$LN81@LoadInt_e@3:
  00144	c6 45 f7 ea	 mov	 BYTE PTR __k$[ebp+15], -22 ; ffffffeaH
  00148	eb 4f		 jmp	 SHORT $LN1@LoadInt_e@3
$LN83@LoadInt_e@3:
  0014a	88 4d f5	 mov	 BYTE PTR __k$[ebp+13], cl
  0014d	eb 4a		 jmp	 SHORT $LN1@LoadInt_e@3
$LN84@LoadInt_e@3:
  0014f	c6 45 f4 ed	 mov	 BYTE PTR __k$[ebp+12], -19 ; ffffffedH
  00153	eb 44		 jmp	 SHORT $LN1@LoadInt_e@3
$LN85@LoadInt_e@3:
  00155	c6 45 f3 ea	 mov	 BYTE PTR __k$[ebp+11], -22 ; ffffffeaH
  00159	eb 3e		 jmp	 SHORT $LN1@LoadInt_e@3
$LN86@LoadInt_e@3:
  0015b	c6 45 f2 eb	 mov	 BYTE PTR __k$[ebp+10], -21 ; ffffffebH
  0015f	eb 38		 jmp	 SHORT $LN1@LoadInt_e@3
$LN87@LoadInt_e@3:
  00161	88 4d f1	 mov	 BYTE PTR __k$[ebp+9], cl
  00164	eb 33		 jmp	 SHORT $LN1@LoadInt_e@3
$LN88@LoadInt_e@3:
  00166	c6 45 f0 ed	 mov	 BYTE PTR __k$[ebp+8], -19 ; ffffffedH
  0016a	eb 2d		 jmp	 SHORT $LN1@LoadInt_e@3
$LN89@LoadInt_e@3:
  0016c	c6 45 ef ea	 mov	 BYTE PTR __k$[ebp+7], -22 ; ffffffeaH
  00170	eb 27		 jmp	 SHORT $LN1@LoadInt_e@3
$LN90@LoadInt_e@3:
  00172	c6 45 ee eb	 mov	 BYTE PTR __k$[ebp+6], -21 ; ffffffebH
  00176	eb 21		 jmp	 SHORT $LN1@LoadInt_e@3
$LN91@LoadInt_e@3:
  00178	88 4d ed	 mov	 BYTE PTR __k$[ebp+5], cl
  0017b	eb 1c		 jmp	 SHORT $LN1@LoadInt_e@3
$LN92@LoadInt_e@3:
  0017d	c6 45 ec ed	 mov	 BYTE PTR __k$[ebp+4], -19 ; ffffffedH
  00181	eb 16		 jmp	 SHORT $LN1@LoadInt_e@3
$LN93@LoadInt_e@3:
  00183	c6 45 eb ea	 mov	 BYTE PTR __k$[ebp+3], -22 ; ffffffeaH
  00187	eb 10		 jmp	 SHORT $LN1@LoadInt_e@3
$LN94@LoadInt_e@3:
  00189	c6 45 ea eb	 mov	 BYTE PTR __k$[ebp+2], -21 ; ffffffebH
  0018d	eb 0a		 jmp	 SHORT $LN1@LoadInt_e@3
$LN95@LoadInt_e@3:
  0018f	c6 45 e9 ec	 mov	 BYTE PTR __k$[ebp+1], -20 ; ffffffecH
  00193	eb 04		 jmp	 SHORT $LN1@LoadInt_e@3
$LN96@LoadInt_e@3:
  00195	c6 45 e8 ed	 mov	 BYTE PTR __k$[ebp], -19	; ffffffedH
$LN1@LoadInt_e@3:
  00199	6a 03		 push	 3
  0019b	8d 45 e8	 lea	 eax, DWORD PTR __k$[ebp]
  0019e	c6 45 f6 00	 mov	 BYTE PTR __k$[ebp+14], 0
  001a2	5a		 pop	 edx
$LL104@LoadInt_e@3:
  001a3	81 30 ed ec eb
	ea		 xor	 DWORD PTR [eax], -353637139 ; eaebecedH
  001a9	83 c0 04	 add	 eax, 4
  001ac	4a		 dec	 edx
  001ad	75 f4		 jne	 SHORT $LL104@LoadInt_e@3
  001af	6a 0c		 push	 12			; 0000000cH
  001b1	58		 pop	 eax
$LL101@LoadInt_e@3:
  001b2	8b c8		 mov	 ecx, eax
  001b4	81 e1 03 00 00
	80		 and	 ecx, -2147483645	; 80000003H
  001ba	79 05		 jns	 SHORT $LN111@LoadInt_e@3
  001bc	49		 dec	 ecx
  001bd	83 c9 fc	 or	 ecx, -4			; fffffffcH
  001c0	41		 inc	 ecx
$LN111@LoadInt_e@3:
  001c1	b2 ed		 mov	 dl, -19			; ffffffedH
  001c3	2a d1		 sub	 dl, cl
  001c5	30 54 05 e8	 xor	 BYTE PTR __k$[ebp+eax], dl
  001c9	40		 inc	 eax
  001ca	83 f8 0e	 cmp	 eax, 14			; 0000000eH
  001cd	7c e3		 jl	 SHORT $LL101@LoadInt_e@3

; 120  : 		return LoadInt(_k, i);

  001cf	ff 75 0c	 push	 DWORD PTR _i$[ebp]
  001d2	8d 45 e8	 lea	 eax, DWORD PTR __k$[ebp]
  001d5	50		 push	 eax
  001d6	8b ce		 mov	 ecx, esi
  001d8	ff 15 00 00 00
	00		 call	 DWORD PTR __imp_?LoadInt@ioINILoader@@QAEHPBDH@Z

; 121  : 	}

  001de	8b 4d fc	 mov	 ecx, DWORD PTR __$ArrayPad$[ebp]
  001e1	33 cd		 xor	 ecx, ebp
  001e3	5e		 pop	 esi
  001e4	e8 00 00 00 00	 call	 @__security_check_cookie@4
  001e9	c9		 leave
  001ea	c2 08 00	 ret	 8
??$LoadInt_e@$0P@@ioINILoader@@QAEHAAY0P@$$CBDH@Z ENDP	; ioINILoader::LoadInt_e<15>
_TEXT	ENDS
PUBLIC	__$ArrayPad$
PUBLIC	??$LoadFloat_e@$0BA@@ioINILoader@@QAEMAAY0BA@$$CBDM@Z ; ioINILoader::LoadFloat_e<16>
; Function compile flags: /Ogsp
;	COMDAT ??$LoadFloat_e@$0BA@@ioINILoader@@QAEMAAY0BA@$$CBDM@Z
_TEXT	SEGMENT
__k$ = -24						; size = 16
__$ArrayPad$ = -4					; size = 4
_k$ = 8							; size = 4
_f$ = 12						; size = 4
??$LoadFloat_e@$0BA@@ioINILoader@@QAEMAAY0BA@$$CBDM@Z PROC ; ioINILoader::LoadFloat_e<16>, COMDAT
; _this$ = ecx

; 135  : 	{

  00000	55		 push	 ebp
  00001	8b ec		 mov	 ebp, esp
  00003	83 ec 18	 sub	 esp, 24			; 00000018H
  00006	a1 00 00 00 00	 mov	 eax, DWORD PTR ___security_cookie
  0000b	33 c5		 xor	 eax, ebp
  0000d	89 45 fc	 mov	 DWORD PTR __$ArrayPad$[ebp], eax
  00010	8b 45 08	 mov	 eax, DWORD PTR _k$[ebp]

; 136  : 		_ENCSTR(k, _k);

  00013	8a 10		 mov	 dl, BYTE PTR [eax]
  00015	56		 push	 esi
  00016	8b f1		 mov	 esi, ecx
  00018	84 d2		 test	 dl, dl
  0001a	0f 84 8c 01 00
	00		 je	 $LN96@LoadFloat_@3
  00020	80 f2 ed	 xor	 dl, -19			; ffffffedH
  00023	88 55 e8	 mov	 BYTE PTR __k$[ebp], dl
  00026	8a 50 01	 mov	 dl, BYTE PTR [eax+1]
  00029	84 d2		 test	 dl, dl
  0002b	0f 84 75 01 00
	00		 je	 $LN95@LoadFloat_@3
  00031	80 f2 ec	 xor	 dl, -20			; ffffffecH
  00034	88 55 e9	 mov	 BYTE PTR __k$[ebp+1], dl
  00037	8a 50 02	 mov	 dl, BYTE PTR [eax+2]
  0003a	84 d2		 test	 dl, dl
  0003c	0f 84 5e 01 00
	00		 je	 $LN94@LoadFloat_@3
  00042	b1 eb		 mov	 cl, -21			; ffffffebH
  00044	32 d1		 xor	 dl, cl
  00046	88 55 ea	 mov	 BYTE PTR __k$[ebp+2], dl
  00049	8a 50 03	 mov	 dl, BYTE PTR [eax+3]
  0004c	84 d2		 test	 dl, dl
  0004e	0f 84 46 01 00
	00		 je	 $LN93@LoadFloat_@3
  00054	80 f2 ea	 xor	 dl, -22			; ffffffeaH
  00057	88 55 eb	 mov	 BYTE PTR __k$[ebp+3], dl
  0005a	8a 50 04	 mov	 dl, BYTE PTR [eax+4]
  0005d	84 d2		 test	 dl, dl
  0005f	0f 84 2f 01 00
	00		 je	 $LN92@LoadFloat_@3
  00065	80 f2 ed	 xor	 dl, -19			; ffffffedH
  00068	88 55 ec	 mov	 BYTE PTR __k$[ebp+4], dl
  0006b	8a 50 05	 mov	 dl, BYTE PTR [eax+5]
  0006e	84 d2		 test	 dl, dl
  00070	0f 84 18 01 00
	00		 je	 $LN91@LoadFloat_@3
  00076	80 f2 ec	 xor	 dl, -20			; ffffffecH
  00079	88 55 ed	 mov	 BYTE PTR __k$[ebp+5], dl
  0007c	8a 50 06	 mov	 dl, BYTE PTR [eax+6]
  0007f	84 d2		 test	 dl, dl
  00081	0f 84 02 01 00
	00		 je	 $LN90@LoadFloat_@3
  00087	32 d1		 xor	 dl, cl
  00089	88 55 ee	 mov	 BYTE PTR __k$[ebp+6], dl
  0008c	8a 50 07	 mov	 dl, BYTE PTR [eax+7]
  0008f	84 d2		 test	 dl, dl
  00091	0f 84 ec 00 00
	00		 je	 $LN89@LoadFloat_@3
  00097	80 f2 ea	 xor	 dl, -22			; ffffffeaH
  0009a	88 55 ef	 mov	 BYTE PTR __k$[ebp+7], dl
  0009d	8a 50 08	 mov	 dl, BYTE PTR [eax+8]
  000a0	84 d2		 test	 dl, dl
  000a2	0f 84 d5 00 00
	00		 je	 $LN88@LoadFloat_@3
  000a8	80 f2 ed	 xor	 dl, -19			; ffffffedH
  000ab	88 55 f0	 mov	 BYTE PTR __k$[ebp+8], dl
  000ae	8a 50 09	 mov	 dl, BYTE PTR [eax+9]
  000b1	84 d2		 test	 dl, dl
  000b3	0f 84 be 00 00
	00		 je	 $LN87@LoadFloat_@3
  000b9	80 f2 ec	 xor	 dl, -20			; ffffffecH
  000bc	88 55 f1	 mov	 BYTE PTR __k$[ebp+9], dl
  000bf	8a 50 0a	 mov	 dl, BYTE PTR [eax+10]
  000c2	84 d2		 test	 dl, dl
  000c4	0f 84 a8 00 00
	00		 je	 $LN86@LoadFloat_@3
  000ca	32 d1		 xor	 dl, cl
  000cc	88 55 f2	 mov	 BYTE PTR __k$[ebp+10], dl
  000cf	8a 50 0b	 mov	 dl, BYTE PTR [eax+11]
  000d2	84 d2		 test	 dl, dl
  000d4	0f 84 92 00 00
	00		 je	 $LN85@LoadFloat_@3
  000da	80 f2 ea	 xor	 dl, -22			; ffffffeaH
  000dd	88 55 f3	 mov	 BYTE PTR __k$[ebp+11], dl
  000e0	8a 50 0c	 mov	 dl, BYTE PTR [eax+12]
  000e3	84 d2		 test	 dl, dl
  000e5	74 7f		 je	 SHORT $LN84@LoadFloat_@3
  000e7	80 f2 ed	 xor	 dl, -19			; ffffffedH
  000ea	88 55 f4	 mov	 BYTE PTR __k$[ebp+12], dl
  000ed	8a 50 0d	 mov	 dl, BYTE PTR [eax+13]
  000f0	84 d2		 test	 dl, dl
  000f2	74 6c		 je	 SHORT $LN83@LoadFloat_@3
  000f4	80 f2 ec	 xor	 dl, -20			; ffffffecH
  000f7	88 55 f5	 mov	 BYTE PTR __k$[ebp+13], dl
  000fa	8a 50 0e	 mov	 dl, BYTE PTR [eax+14]
  000fd	84 d2		 test	 dl, dl
  000ff	74 5a		 je	 SHORT $LN82@LoadFloat_@3
  00101	32 d1		 xor	 dl, cl
  00103	80 78 0f 00	 cmp	 BYTE PTR [eax+15], 0
  00107	88 55 f6	 mov	 BYTE PTR __k$[ebp+14], dl
  0010a	0f 84 a0 00 00
	00		 je	 $LN1@LoadFloat_@3
  00110	8a 50 10	 mov	 dl, BYTE PTR [eax+16]
  00113	84 d2		 test	 dl, dl
  00115	74 3e		 je	 SHORT $LN80@LoadFloat_@3
  00117	80 f2 ed	 xor	 dl, -19			; ffffffedH
  0011a	88 55 f8	 mov	 BYTE PTR __k$[ebp+16], dl
  0011d	8a 50 11	 mov	 dl, BYTE PTR [eax+17]
  00120	84 d2		 test	 dl, dl
  00122	74 2b		 je	 SHORT $LN79@LoadFloat_@3
  00124	80 f2 ec	 xor	 dl, -20			; ffffffecH
  00127	88 55 f9	 mov	 BYTE PTR __k$[ebp+17], dl
  0012a	8a 50 12	 mov	 dl, BYTE PTR [eax+18]
  0012d	84 d2		 test	 dl, dl
  0012f	74 19		 je	 SHORT $LN78@LoadFloat_@3
  00131	8a 40 13	 mov	 al, BYTE PTR [eax+19]
  00134	32 d1		 xor	 dl, cl
  00136	88 55 fa	 mov	 BYTE PTR __k$[ebp+18], dl
  00139	84 c0		 test	 al, al
  0013b	74 07		 je	 SHORT $LN77@LoadFloat_@3
  0013d	34 ea		 xor	 al, -22			; ffffffeaH
  0013f	88 45 fb	 mov	 BYTE PTR __k$[ebp+19], al
  00142	eb 6c		 jmp	 SHORT $LN1@LoadFloat_@3
$LN77@LoadFloat_@3:
  00144	c6 45 fb ea	 mov	 BYTE PTR __k$[ebp+19], -22 ; ffffffeaH
  00148	eb 66		 jmp	 SHORT $LN1@LoadFloat_@3
$LN78@LoadFloat_@3:
  0014a	88 4d fa	 mov	 BYTE PTR __k$[ebp+18], cl
  0014d	eb 61		 jmp	 SHORT $LN1@LoadFloat_@3
$LN79@LoadFloat_@3:
  0014f	c6 45 f9 ec	 mov	 BYTE PTR __k$[ebp+17], -20 ; ffffffecH
  00153	eb 5b		 jmp	 SHORT $LN1@LoadFloat_@3
$LN80@LoadFloat_@3:
  00155	c6 45 f8 ed	 mov	 BYTE PTR __k$[ebp+16], -19 ; ffffffedH
  00159	eb 55		 jmp	 SHORT $LN1@LoadFloat_@3
$LN82@LoadFloat_@3:
  0015b	88 4d f6	 mov	 BYTE PTR __k$[ebp+14], cl
  0015e	eb 50		 jmp	 SHORT $LN1@LoadFloat_@3
$LN83@LoadFloat_@3:
  00160	c6 45 f5 ec	 mov	 BYTE PTR __k$[ebp+13], -20 ; ffffffecH
  00164	eb 4a		 jmp	 SHORT $LN1@LoadFloat_@3
$LN84@LoadFloat_@3:
  00166	c6 45 f4 ed	 mov	 BYTE PTR __k$[ebp+12], -19 ; ffffffedH
  0016a	eb 44		 jmp	 SHORT $LN1@LoadFloat_@3
$LN85@LoadFloat_@3:
  0016c	c6 45 f3 ea	 mov	 BYTE PTR __k$[ebp+11], -22 ; ffffffeaH
  00170	eb 3e		 jmp	 SHORT $LN1@LoadFloat_@3
$LN86@LoadFloat_@3:
  00172	88 4d f2	 mov	 BYTE PTR __k$[ebp+10], cl
  00175	eb 39		 jmp	 SHORT $LN1@LoadFloat_@3
$LN87@LoadFloat_@3:
  00177	c6 45 f1 ec	 mov	 BYTE PTR __k$[ebp+9], -20 ; ffffffecH
  0017b	eb 33		 jmp	 SHORT $LN1@LoadFloat_@3
$LN88@LoadFloat_@3:
  0017d	c6 45 f0 ed	 mov	 BYTE PTR __k$[ebp+8], -19 ; ffffffedH
  00181	eb 2d		 jmp	 SHORT $LN1@LoadFloat_@3
$LN89@LoadFloat_@3:
  00183	c6 45 ef ea	 mov	 BYTE PTR __k$[ebp+7], -22 ; ffffffeaH
  00187	eb 27		 jmp	 SHORT $LN1@LoadFloat_@3
$LN90@LoadFloat_@3:
  00189	88 4d ee	 mov	 BYTE PTR __k$[ebp+6], cl
  0018c	eb 22		 jmp	 SHORT $LN1@LoadFloat_@3
$LN91@LoadFloat_@3:
  0018e	c6 45 ed ec	 mov	 BYTE PTR __k$[ebp+5], -20 ; ffffffecH
  00192	eb 1c		 jmp	 SHORT $LN1@LoadFloat_@3
$LN92@LoadFloat_@3:
  00194	c6 45 ec ed	 mov	 BYTE PTR __k$[ebp+4], -19 ; ffffffedH
  00198	eb 16		 jmp	 SHORT $LN1@LoadFloat_@3
$LN93@LoadFloat_@3:
  0019a	c6 45 eb ea	 mov	 BYTE PTR __k$[ebp+3], -22 ; ffffffeaH
  0019e	eb 10		 jmp	 SHORT $LN1@LoadFloat_@3
$LN94@LoadFloat_@3:
  001a0	c6 45 ea eb	 mov	 BYTE PTR __k$[ebp+2], -21 ; ffffffebH
  001a4	eb 0a		 jmp	 SHORT $LN1@LoadFloat_@3
$LN95@LoadFloat_@3:
  001a6	c6 45 e9 ec	 mov	 BYTE PTR __k$[ebp+1], -20 ; ffffffecH
  001aa	eb 04		 jmp	 SHORT $LN1@LoadFloat_@3
$LN96@LoadFloat_@3:
  001ac	c6 45 e8 ed	 mov	 BYTE PTR __k$[ebp], -19	; ffffffedH
$LN1@LoadFloat_@3:
  001b0	6a 03		 push	 3
  001b2	8d 45 e8	 lea	 eax, DWORD PTR __k$[ebp]
  001b5	c6 45 f7 00	 mov	 BYTE PTR __k$[ebp+15], 0
  001b9	5a		 pop	 edx
$LL104@LoadFloat_@3:
  001ba	81 30 ed ec eb
	ea		 xor	 DWORD PTR [eax], -353637139 ; eaebecedH
  001c0	83 c0 04	 add	 eax, 4
  001c3	4a		 dec	 edx
  001c4	75 f4		 jne	 SHORT $LL104@LoadFloat_@3
  001c6	6a 0c		 push	 12			; 0000000cH
  001c8	58		 pop	 eax
$LL101@LoadFloat_@3:
  001c9	8b c8		 mov	 ecx, eax
  001cb	81 e1 03 00 00
	80		 and	 ecx, -2147483645	; 80000003H
  001d1	79 05		 jns	 SHORT $LN111@LoadFloat_@3
  001d3	49		 dec	 ecx
  001d4	83 c9 fc	 or	 ecx, -4			; fffffffcH
  001d7	41		 inc	 ecx
$LN111@LoadFloat_@3:
  001d8	b2 ed		 mov	 dl, -19			; ffffffedH
  001da	2a d1		 sub	 dl, cl
  001dc	30 54 05 e8	 xor	 BYTE PTR __k$[ebp+eax], dl
  001e0	40		 inc	 eax
  001e1	83 f8 0f	 cmp	 eax, 15			; 0000000fH
  001e4	7c e3		 jl	 SHORT $LL101@LoadFloat_@3

; 137  : 		return LoadFloat(_k, f);

  001e6	f3 0f 10 45 0c	 movss	 xmm0, DWORD PTR _f$[ebp]
  001eb	51		 push	 ecx
  001ec	8d 45 e8	 lea	 eax, DWORD PTR __k$[ebp]
  001ef	f3 0f 11 04 24	 movss	 DWORD PTR [esp], xmm0
  001f4	50		 push	 eax
  001f5	8b ce		 mov	 ecx, esi
  001f7	ff 15 00 00 00
	00		 call	 DWORD PTR __imp_?LoadFloat@ioINILoader@@QAEMPBDM@Z

; 138  : 	}

  001fd	8b 4d fc	 mov	 ecx, DWORD PTR __$ArrayPad$[ebp]
  00200	33 cd		 xor	 ecx, ebp
  00202	5e		 pop	 esi
  00203	e8 00 00 00 00	 call	 @__security_check_cookie@4
  00208	c9		 leave
  00209	c2 08 00	 ret	 8
??$LoadFloat_e@$0BA@@ioINILoader@@QAEMAAY0BA@$$CBDM@Z ENDP ; ioINILoader::LoadFloat_e<16>
_TEXT	ENDS
PUBLIC	__$ArrayPad$
PUBLIC	??$LoadFloat_e@$0BG@@ioINILoader@@QAEMAAY0BG@$$CBDM@Z ; ioINILoader::LoadFloat_e<22>
; Function compile flags: /Ogsp
;	COMDAT ??$LoadFloat_e@$0BG@@ioINILoader@@QAEMAAY0BG@$$CBDM@Z
_TEXT	SEGMENT
__k$ = -32						; size = 22
__$ArrayPad$ = -4					; size = 4
_k$ = 8							; size = 4
_f$ = 12						; size = 4
??$LoadFloat_e@$0BG@@ioINILoader@@QAEMAAY0BG@$$CBDM@Z PROC ; ioINILoader::LoadFloat_e<22>, COMDAT
; _this$ = ecx

; 135  : 	{

  00000	55		 push	 ebp
  00001	8b ec		 mov	 ebp, esp
  00003	83 ec 20	 sub	 esp, 32			; 00000020H
  00006	a1 00 00 00 00	 mov	 eax, DWORD PTR ___security_cookie
  0000b	33 c5		 xor	 eax, ebp
  0000d	89 45 fc	 mov	 DWORD PTR __$ArrayPad$[ebp], eax
  00010	8b 45 08	 mov	 eax, DWORD PTR _k$[ebp]

; 136  : 		_ENCSTR(k, _k);

  00013	8a 10		 mov	 dl, BYTE PTR [eax]
  00015	53		 push	 ebx
  00016	56		 push	 esi
  00017	8b f1		 mov	 esi, ecx
  00019	84 d2		 test	 dl, dl
  0001b	0f 84 15 02 00
	00		 je	 $LN96@LoadFloat_@4
  00021	80 f2 ed	 xor	 dl, -19			; ffffffedH
  00024	88 55 e0	 mov	 BYTE PTR __k$[ebp], dl
  00027	8a 50 01	 mov	 dl, BYTE PTR [eax+1]
  0002a	84 d2		 test	 dl, dl
  0002c	0f 84 fe 01 00
	00		 je	 $LN95@LoadFloat_@4
  00032	80 f2 ec	 xor	 dl, -20			; ffffffecH
  00035	88 55 e1	 mov	 BYTE PTR __k$[ebp+1], dl
  00038	8a 50 02	 mov	 dl, BYTE PTR [eax+2]
  0003b	84 d2		 test	 dl, dl
  0003d	0f 84 e7 01 00
	00		 je	 $LN94@LoadFloat_@4
  00043	b1 eb		 mov	 cl, -21			; ffffffebH
  00045	32 d1		 xor	 dl, cl
  00047	88 55 e2	 mov	 BYTE PTR __k$[ebp+2], dl
  0004a	8a 50 03	 mov	 dl, BYTE PTR [eax+3]
  0004d	84 d2		 test	 dl, dl
  0004f	0f 84 cf 01 00
	00		 je	 $LN93@LoadFloat_@4
  00055	b3 ea		 mov	 bl, -22			; ffffffeaH
  00057	32 d3		 xor	 dl, bl
  00059	88 55 e3	 mov	 BYTE PTR __k$[ebp+3], dl
  0005c	8a 50 04	 mov	 dl, BYTE PTR [eax+4]
  0005f	84 d2		 test	 dl, dl
  00061	0f 84 b7 01 00
	00		 je	 $LN92@LoadFloat_@4
  00067	80 f2 ed	 xor	 dl, -19			; ffffffedH
  0006a	88 55 e4	 mov	 BYTE PTR __k$[ebp+4], dl
  0006d	8a 50 05	 mov	 dl, BYTE PTR [eax+5]
  00070	84 d2		 test	 dl, dl
  00072	0f 84 a0 01 00
	00		 je	 $LN91@LoadFloat_@4
  00078	80 f2 ec	 xor	 dl, -20			; ffffffecH
  0007b	88 55 e5	 mov	 BYTE PTR __k$[ebp+5], dl
  0007e	8a 50 06	 mov	 dl, BYTE PTR [eax+6]
  00081	84 d2		 test	 dl, dl
  00083	0f 84 8a 01 00
	00		 je	 $LN90@LoadFloat_@4
  00089	32 d1		 xor	 dl, cl
  0008b	88 55 e6	 mov	 BYTE PTR __k$[ebp+6], dl
  0008e	8a 50 07	 mov	 dl, BYTE PTR [eax+7]
  00091	84 d2		 test	 dl, dl
  00093	0f 84 75 01 00
	00		 je	 $LN89@LoadFloat_@4
  00099	32 d3		 xor	 dl, bl
  0009b	88 55 e7	 mov	 BYTE PTR __k$[ebp+7], dl
  0009e	8a 50 08	 mov	 dl, BYTE PTR [eax+8]
  000a1	84 d2		 test	 dl, dl
  000a3	0f 84 5f 01 00
	00		 je	 $LN88@LoadFloat_@4
  000a9	80 f2 ed	 xor	 dl, -19			; ffffffedH
  000ac	88 55 e8	 mov	 BYTE PTR __k$[ebp+8], dl
  000af	8a 50 09	 mov	 dl, BYTE PTR [eax+9]
  000b2	84 d2		 test	 dl, dl
  000b4	0f 84 48 01 00
	00		 je	 $LN87@LoadFloat_@4
  000ba	80 f2 ec	 xor	 dl, -20			; ffffffecH
  000bd	88 55 e9	 mov	 BYTE PTR __k$[ebp+9], dl
  000c0	8a 50 0a	 mov	 dl, BYTE PTR [eax+10]
  000c3	84 d2		 test	 dl, dl
  000c5	0f 84 32 01 00
	00		 je	 $LN86@LoadFloat_@4
  000cb	32 d1		 xor	 dl, cl
  000cd	88 55 ea	 mov	 BYTE PTR __k$[ebp+10], dl
  000d0	8a 50 0b	 mov	 dl, BYTE PTR [eax+11]
  000d3	84 d2		 test	 dl, dl
  000d5	0f 84 1d 01 00
	00		 je	 $LN85@LoadFloat_@4
  000db	32 d3		 xor	 dl, bl
  000dd	88 55 eb	 mov	 BYTE PTR __k$[ebp+11], dl
  000e0	8a 50 0c	 mov	 dl, BYTE PTR [eax+12]
  000e3	84 d2		 test	 dl, dl
  000e5	0f 84 07 01 00
	00		 je	 $LN84@LoadFloat_@4
  000eb	80 f2 ed	 xor	 dl, -19			; ffffffedH
  000ee	88 55 ec	 mov	 BYTE PTR __k$[ebp+12], dl
  000f1	8a 50 0d	 mov	 dl, BYTE PTR [eax+13]
  000f4	84 d2		 test	 dl, dl
  000f6	0f 84 f0 00 00
	00		 je	 $LN83@LoadFloat_@4
  000fc	80 f2 ec	 xor	 dl, -20			; ffffffecH
  000ff	88 55 ed	 mov	 BYTE PTR __k$[ebp+13], dl
  00102	8a 50 0e	 mov	 dl, BYTE PTR [eax+14]
  00105	84 d2		 test	 dl, dl
  00107	0f 84 da 00 00
	00		 je	 $LN82@LoadFloat_@4
  0010d	32 d1		 xor	 dl, cl
  0010f	88 55 ee	 mov	 BYTE PTR __k$[ebp+14], dl
  00112	8a 50 0f	 mov	 dl, BYTE PTR [eax+15]
  00115	84 d2		 test	 dl, dl
  00117	0f 84 c5 00 00
	00		 je	 $LN81@LoadFloat_@4
  0011d	32 d3		 xor	 dl, bl
  0011f	88 55 ef	 mov	 BYTE PTR __k$[ebp+15], dl
  00122	8a 50 10	 mov	 dl, BYTE PTR [eax+16]
  00125	84 d2		 test	 dl, dl
  00127	0f 84 af 00 00
	00		 je	 $LN80@LoadFloat_@4
  0012d	80 f2 ed	 xor	 dl, -19			; ffffffedH
  00130	88 55 f0	 mov	 BYTE PTR __k$[ebp+16], dl
  00133	8a 50 11	 mov	 dl, BYTE PTR [eax+17]
  00136	84 d2		 test	 dl, dl
  00138	0f 84 98 00 00
	00		 je	 $LN79@LoadFloat_@4
  0013e	80 f2 ec	 xor	 dl, -20			; ffffffecH
  00141	88 55 f1	 mov	 BYTE PTR __k$[ebp+17], dl
  00144	8a 50 12	 mov	 dl, BYTE PTR [eax+18]
  00147	84 d2		 test	 dl, dl
  00149	0f 84 82 00 00
	00		 je	 $LN78@LoadFloat_@4
  0014f	32 d1		 xor	 dl, cl
  00151	88 55 f2	 mov	 BYTE PTR __k$[ebp+18], dl
  00154	8a 50 13	 mov	 dl, BYTE PTR [eax+19]
  00157	84 d2		 test	 dl, dl
  00159	74 71		 je	 SHORT $LN77@LoadFloat_@4
  0015b	32 d3		 xor	 dl, bl
  0015d	88 55 f3	 mov	 BYTE PTR __k$[ebp+19], dl
  00160	8a 50 14	 mov	 dl, BYTE PTR [eax+20]
  00163	84 d2		 test	 dl, dl
  00165	74 5f		 je	 SHORT $LN76@LoadFloat_@4
  00167	80 f2 ed	 xor	 dl, -19			; ffffffedH
  0016a	80 78 15 00	 cmp	 BYTE PTR [eax+21], 0
  0016e	88 55 f4	 mov	 BYTE PTR __k$[ebp+20], dl
  00171	0f 84 c3 00 00
	00		 je	 $LN1@LoadFloat_@4
  00177	8a 50 16	 mov	 dl, BYTE PTR [eax+22]
  0017a	84 d2		 test	 dl, dl
  0017c	74 43		 je	 SHORT $LN74@LoadFloat_@4
  0017e	32 d1		 xor	 dl, cl
  00180	88 55 f6	 mov	 BYTE PTR __k$[ebp+22], dl
  00183	8a 50 17	 mov	 dl, BYTE PTR [eax+23]
  00186	84 d2		 test	 dl, dl
  00188	74 32		 je	 SHORT $LN73@LoadFloat_@4
  0018a	32 d3		 xor	 dl, bl
  0018c	88 55 f7	 mov	 BYTE PTR __k$[ebp+23], dl
  0018f	8a 50 18	 mov	 dl, BYTE PTR [eax+24]
  00192	84 d2		 test	 dl, dl
  00194	74 20		 je	 SHORT $LN72@LoadFloat_@4
  00196	8a 40 19	 mov	 al, BYTE PTR [eax+25]
  00199	80 f2 ed	 xor	 dl, -19			; ffffffedH
  0019c	88 55 f8	 mov	 BYTE PTR __k$[ebp+24], dl
  0019f	84 c0		 test	 al, al
  001a1	74 0a		 je	 SHORT $LN71@LoadFloat_@4
  001a3	34 ec		 xor	 al, -20			; ffffffecH
  001a5	88 45 f9	 mov	 BYTE PTR __k$[ebp+25], al
  001a8	e9 8d 00 00 00	 jmp	 $LN1@LoadFloat_@4
$LN71@LoadFloat_@4:
  001ad	c6 45 f9 ec	 mov	 BYTE PTR __k$[ebp+25], -20 ; ffffffecH
  001b1	e9 84 00 00 00	 jmp	 $LN1@LoadFloat_@4
$LN72@LoadFloat_@4:
  001b6	c6 45 f8 ed	 mov	 BYTE PTR __k$[ebp+24], -19 ; ffffffedH
  001ba	eb 7e		 jmp	 SHORT $LN1@LoadFloat_@4
$LN73@LoadFloat_@4:
  001bc	88 5d f7	 mov	 BYTE PTR __k$[ebp+23], bl
  001bf	eb 79		 jmp	 SHORT $LN1@LoadFloat_@4
$LN74@LoadFloat_@4:
  001c1	88 4d f6	 mov	 BYTE PTR __k$[ebp+22], cl
  001c4	eb 74		 jmp	 SHORT $LN1@LoadFloat_@4
$LN76@LoadFloat_@4:
  001c6	c6 45 f4 ed	 mov	 BYTE PTR __k$[ebp+20], -19 ; ffffffedH
  001ca	eb 6e		 jmp	 SHORT $LN1@LoadFloat_@4
$LN77@LoadFloat_@4:
  001cc	88 5d f3	 mov	 BYTE PTR __k$[ebp+19], bl
  001cf	eb 69		 jmp	 SHORT $LN1@LoadFloat_@4
$LN78@LoadFloat_@4:
  001d1	88 4d f2	 mov	 BYTE PTR __k$[ebp+18], cl
  001d4	eb 64		 jmp	 SHORT $LN1@LoadFloat_@4
$LN79@LoadFloat_@4:
  001d6	c6 45 f1 ec	 mov	 BYTE PTR __k$[ebp+17], -20 ; ffffffecH
  001da	eb 5e		 jmp	 SHORT $LN1@LoadFloat_@4
$LN80@LoadFloat_@4:
  001dc	c6 45 f0 ed	 mov	 BYTE PTR __k$[ebp+16], -19 ; ffffffedH
  001e0	eb 58		 jmp	 SHORT $LN1@LoadFloat_@4
$LN81@LoadFloat_@4:
  001e2	88 5d ef	 mov	 BYTE PTR __k$[ebp+15], bl
  001e5	eb 53		 jmp	 SHORT $LN1@LoadFloat_@4
$LN82@LoadFloat_@4:
  001e7	88 4d ee	 mov	 BYTE PTR __k$[ebp+14], cl
  001ea	eb 4e		 jmp	 SHORT $LN1@LoadFloat_@4
$LN83@LoadFloat_@4:
  001ec	c6 45 ed ec	 mov	 BYTE PTR __k$[ebp+13], -20 ; ffffffecH
  001f0	eb 48		 jmp	 SHORT $LN1@LoadFloat_@4
$LN84@LoadFloat_@4:
  001f2	c6 45 ec ed	 mov	 BYTE PTR __k$[ebp+12], -19 ; ffffffedH
  001f6	eb 42		 jmp	 SHORT $LN1@LoadFloat_@4
$LN85@LoadFloat_@4:
  001f8	88 5d eb	 mov	 BYTE PTR __k$[ebp+11], bl
  001fb	eb 3d		 jmp	 SHORT $LN1@LoadFloat_@4
$LN86@LoadFloat_@4:
  001fd	88 4d ea	 mov	 BYTE PTR __k$[ebp+10], cl
  00200	eb 38		 jmp	 SHORT $LN1@LoadFloat_@4
$LN87@LoadFloat_@4:
  00202	c6 45 e9 ec	 mov	 BYTE PTR __k$[ebp+9], -20 ; ffffffecH
  00206	eb 32		 jmp	 SHORT $LN1@LoadFloat_@4
$LN88@LoadFloat_@4:
  00208	c6 45 e8 ed	 mov	 BYTE PTR __k$[ebp+8], -19 ; ffffffedH
  0020c	eb 2c		 jmp	 SHORT $LN1@LoadFloat_@4
$LN89@LoadFloat_@4:
  0020e	88 5d e7	 mov	 BYTE PTR __k$[ebp+7], bl
  00211	eb 27		 jmp	 SHORT $LN1@LoadFloat_@4
$LN90@LoadFloat_@4:
  00213	88 4d e6	 mov	 BYTE PTR __k$[ebp+6], cl
  00216	eb 22		 jmp	 SHORT $LN1@LoadFloat_@4
$LN91@LoadFloat_@4:
  00218	c6 45 e5 ec	 mov	 BYTE PTR __k$[ebp+5], -20 ; ffffffecH
  0021c	eb 1c		 jmp	 SHORT $LN1@LoadFloat_@4
$LN92@LoadFloat_@4:
  0021e	c6 45 e4 ed	 mov	 BYTE PTR __k$[ebp+4], -19 ; ffffffedH
  00222	eb 16		 jmp	 SHORT $LN1@LoadFloat_@4
$LN93@LoadFloat_@4:
  00224	c6 45 e3 ea	 mov	 BYTE PTR __k$[ebp+3], -22 ; ffffffeaH
  00228	eb 10		 jmp	 SHORT $LN1@LoadFloat_@4
$LN94@LoadFloat_@4:
  0022a	c6 45 e2 eb	 mov	 BYTE PTR __k$[ebp+2], -21 ; ffffffebH
  0022e	eb 0a		 jmp	 SHORT $LN1@LoadFloat_@4
$LN95@LoadFloat_@4:
  00230	c6 45 e1 ec	 mov	 BYTE PTR __k$[ebp+1], -20 ; ffffffecH
  00234	eb 04		 jmp	 SHORT $LN1@LoadFloat_@4
$LN96@LoadFloat_@4:
  00236	c6 45 e0 ed	 mov	 BYTE PTR __k$[ebp], -19	; ffffffedH
$LN1@LoadFloat_@4:
  0023a	6a 05		 push	 5
  0023c	8d 45 e0	 lea	 eax, DWORD PTR __k$[ebp]
  0023f	c6 45 f5 00	 mov	 BYTE PTR __k$[ebp+21], 0
  00243	5a		 pop	 edx
$LL104@LoadFloat_@4:
  00244	81 30 ed ec eb
	ea		 xor	 DWORD PTR [eax], -353637139 ; eaebecedH
  0024a	83 c0 04	 add	 eax, 4
  0024d	4a		 dec	 edx
  0024e	75 f4		 jne	 SHORT $LL104@LoadFloat_@4

; 137  : 		return LoadFloat(_k, f);

  00250	f3 0f 10 45 0c	 movss	 xmm0, DWORD PTR _f$[ebp]
  00255	80 75 f4 ed	 xor	 BYTE PTR __k$[ebp+20], -19 ; ffffffedH
  00259	51		 push	 ecx
  0025a	8d 45 e0	 lea	 eax, DWORD PTR __k$[ebp]
  0025d	f3 0f 11 04 24	 movss	 DWORD PTR [esp], xmm0
  00262	50		 push	 eax
  00263	8b ce		 mov	 ecx, esi
  00265	ff 15 00 00 00
	00		 call	 DWORD PTR __imp_?LoadFloat@ioINILoader@@QAEMPBDM@Z

; 138  : 	}

  0026b	8b 4d fc	 mov	 ecx, DWORD PTR __$ArrayPad$[ebp]
  0026e	5e		 pop	 esi
  0026f	33 cd		 xor	 ecx, ebp
  00271	5b		 pop	 ebx
  00272	e8 00 00 00 00	 call	 @__security_check_cookie@4
  00277	c9		 leave
  00278	c2 08 00	 ret	 8
??$LoadFloat_e@$0BG@@ioINILoader@@QAEMAAY0BG@$$CBDM@Z ENDP ; ioINILoader::LoadFloat_e<22>
_TEXT	ENDS
PUBLIC	__$ArrayPad$
PUBLIC	??$LoadFloat_e@$0BL@@ioINILoader@@QAEMAAY0BL@$$CBDM@Z ; ioINILoader::LoadFloat_e<27>
; Function compile flags: /Ogsp
;	COMDAT ??$LoadFloat_e@$0BL@@ioINILoader@@QAEMAAY0BL@$$CBDM@Z
_TEXT	SEGMENT
__k$ = -36						; size = 27
__$ArrayPad$ = -4					; size = 4
_k$ = 8							; size = 4
_f$ = 12						; size = 4
??$LoadFloat_e@$0BL@@ioINILoader@@QAEMAAY0BL@$$CBDM@Z PROC ; ioINILoader::LoadFloat_e<27>, COMDAT
; _this$ = ecx

; 135  : 	{

  00000	55		 push	 ebp
  00001	8b ec		 mov	 ebp, esp
  00003	83 ec 24	 sub	 esp, 36			; 00000024H
  00006	a1 00 00 00 00	 mov	 eax, DWORD PTR ___security_cookie
  0000b	33 c5		 xor	 eax, ebp
  0000d	89 45 fc	 mov	 DWORD PTR __$ArrayPad$[ebp], eax
  00010	8b 45 08	 mov	 eax, DWORD PTR _k$[ebp]

; 136  : 		_ENCSTR(k, _k);

  00013	8a 10		 mov	 dl, BYTE PTR [eax]
  00015	53		 push	 ebx
  00016	56		 push	 esi
  00017	8b f1		 mov	 esi, ecx
  00019	84 d2		 test	 dl, dl
  0001b	0f 84 91 02 00
	00		 je	 $LN96@LoadFloat_@5
  00021	80 f2 ed	 xor	 dl, -19			; ffffffedH
  00024	88 55 dc	 mov	 BYTE PTR __k$[ebp], dl
  00027	8a 50 01	 mov	 dl, BYTE PTR [eax+1]
  0002a	84 d2		 test	 dl, dl
  0002c	0f 84 7a 02 00
	00		 je	 $LN95@LoadFloat_@5
  00032	b1 ec		 mov	 cl, -20			; ffffffecH
  00034	32 d1		 xor	 dl, cl
  00036	88 55 dd	 mov	 BYTE PTR __k$[ebp+1], dl
  00039	8a 50 02	 mov	 dl, BYTE PTR [eax+2]
  0003c	84 d2		 test	 dl, dl
  0003e	0f 84 62 02 00
	00		 je	 $LN94@LoadFloat_@5
  00044	80 f2 eb	 xor	 dl, -21			; ffffffebH
  00047	88 55 de	 mov	 BYTE PTR __k$[ebp+2], dl
  0004a	8a 50 03	 mov	 dl, BYTE PTR [eax+3]
  0004d	84 d2		 test	 dl, dl
  0004f	0f 84 4b 02 00
	00		 je	 $LN93@LoadFloat_@5
  00055	b3 ea		 mov	 bl, -22			; ffffffeaH
  00057	32 d3		 xor	 dl, bl
  00059	88 55 df	 mov	 BYTE PTR __k$[ebp+3], dl
  0005c	8a 50 04	 mov	 dl, BYTE PTR [eax+4]
  0005f	84 d2		 test	 dl, dl
  00061	0f 84 33 02 00
	00		 je	 $LN92@LoadFloat_@5
  00067	80 f2 ed	 xor	 dl, -19			; ffffffedH
  0006a	88 55 e0	 mov	 BYTE PTR __k$[ebp+4], dl
  0006d	8a 50 05	 mov	 dl, BYTE PTR [eax+5]
  00070	84 d2		 test	 dl, dl
  00072	0f 84 1d 02 00
	00		 je	 $LN91@LoadFloat_@5
  00078	32 d1		 xor	 dl, cl
  0007a	88 55 e1	 mov	 BYTE PTR __k$[ebp+5], dl
  0007d	8a 50 06	 mov	 dl, BYTE PTR [eax+6]
  00080	84 d2		 test	 dl, dl
  00082	0f 84 07 02 00
	00		 je	 $LN90@LoadFloat_@5
  00088	80 f2 eb	 xor	 dl, -21			; ffffffebH
  0008b	88 55 e2	 mov	 BYTE PTR __k$[ebp+6], dl
  0008e	8a 50 07	 mov	 dl, BYTE PTR [eax+7]
  00091	84 d2		 test	 dl, dl
  00093	0f 84 f1 01 00
	00		 je	 $LN89@LoadFloat_@5
  00099	32 d3		 xor	 dl, bl
  0009b	88 55 e3	 mov	 BYTE PTR __k$[ebp+7], dl
  0009e	8a 50 08	 mov	 dl, BYTE PTR [eax+8]
  000a1	84 d2		 test	 dl, dl
  000a3	0f 84 db 01 00
	00		 je	 $LN88@LoadFloat_@5
  000a9	80 f2 ed	 xor	 dl, -19			; ffffffedH
  000ac	88 55 e4	 mov	 BYTE PTR __k$[ebp+8], dl
  000af	8a 50 09	 mov	 dl, BYTE PTR [eax+9]
  000b2	84 d2		 test	 dl, dl
  000b4	0f 84 c5 01 00
	00		 je	 $LN87@LoadFloat_@5
  000ba	32 d1		 xor	 dl, cl
  000bc	88 55 e5	 mov	 BYTE PTR __k$[ebp+9], dl
  000bf	8a 50 0a	 mov	 dl, BYTE PTR [eax+10]
  000c2	84 d2		 test	 dl, dl
  000c4	0f 84 af 01 00
	00		 je	 $LN86@LoadFloat_@5
  000ca	80 f2 eb	 xor	 dl, -21			; ffffffebH
  000cd	88 55 e6	 mov	 BYTE PTR __k$[ebp+10], dl
  000d0	8a 50 0b	 mov	 dl, BYTE PTR [eax+11]
  000d3	84 d2		 test	 dl, dl
  000d5	0f 84 99 01 00
	00		 je	 $LN85@LoadFloat_@5
  000db	32 d3		 xor	 dl, bl
  000dd	88 55 e7	 mov	 BYTE PTR __k$[ebp+11], dl
  000e0	8a 50 0c	 mov	 dl, BYTE PTR [eax+12]
  000e3	84 d2		 test	 dl, dl
  000e5	0f 84 83 01 00
	00		 je	 $LN84@LoadFloat_@5
  000eb	80 f2 ed	 xor	 dl, -19			; ffffffedH
  000ee	88 55 e8	 mov	 BYTE PTR __k$[ebp+12], dl
  000f1	8a 50 0d	 mov	 dl, BYTE PTR [eax+13]
  000f4	84 d2		 test	 dl, dl
  000f6	0f 84 6d 01 00
	00		 je	 $LN83@LoadFloat_@5
  000fc	32 d1		 xor	 dl, cl
  000fe	88 55 e9	 mov	 BYTE PTR __k$[ebp+13], dl
  00101	8a 50 0e	 mov	 dl, BYTE PTR [eax+14]
  00104	84 d2		 test	 dl, dl
  00106	0f 84 57 01 00
	00		 je	 $LN82@LoadFloat_@5
  0010c	80 f2 eb	 xor	 dl, -21			; ffffffebH
  0010f	88 55 ea	 mov	 BYTE PTR __k$[ebp+14], dl
  00112	8a 50 0f	 mov	 dl, BYTE PTR [eax+15]
  00115	84 d2		 test	 dl, dl
  00117	0f 84 41 01 00
	00		 je	 $LN81@LoadFloat_@5
  0011d	32 d3		 xor	 dl, bl
  0011f	88 55 eb	 mov	 BYTE PTR __k$[ebp+15], dl
  00122	8a 50 10	 mov	 dl, BYTE PTR [eax+16]
  00125	84 d2		 test	 dl, dl
  00127	0f 84 2b 01 00
	00		 je	 $LN80@LoadFloat_@5
  0012d	80 f2 ed	 xor	 dl, -19			; ffffffedH
  00130	88 55 ec	 mov	 BYTE PTR __k$[ebp+16], dl
  00133	8a 50 11	 mov	 dl, BYTE PTR [eax+17]
  00136	84 d2		 test	 dl, dl
  00138	0f 84 15 01 00
	00		 je	 $LN79@LoadFloat_@5
  0013e	32 d1		 xor	 dl, cl
  00140	88 55 ed	 mov	 BYTE PTR __k$[ebp+17], dl
  00143	8a 50 12	 mov	 dl, BYTE PTR [eax+18]
  00146	84 d2		 test	 dl, dl
  00148	0f 84 ff 00 00
	00		 je	 $LN78@LoadFloat_@5
  0014e	80 f2 eb	 xor	 dl, -21			; ffffffebH
  00151	88 55 ee	 mov	 BYTE PTR __k$[ebp+18], dl
  00154	8a 50 13	 mov	 dl, BYTE PTR [eax+19]
  00157	84 d2		 test	 dl, dl
  00159	0f 84 e9 00 00
	00		 je	 $LN77@LoadFloat_@5
  0015f	32 d3		 xor	 dl, bl
  00161	88 55 ef	 mov	 BYTE PTR __k$[ebp+19], dl
  00164	8a 50 14	 mov	 dl, BYTE PTR [eax+20]
  00167	84 d2		 test	 dl, dl
  00169	0f 84 d3 00 00
	00		 je	 $LN76@LoadFloat_@5
  0016f	80 f2 ed	 xor	 dl, -19			; ffffffedH
  00172	88 55 f0	 mov	 BYTE PTR __k$[ebp+20], dl
  00175	8a 50 15	 mov	 dl, BYTE PTR [eax+21]
  00178	84 d2		 test	 dl, dl
  0017a	0f 84 bd 00 00
	00		 je	 $LN75@LoadFloat_@5
  00180	32 d1		 xor	 dl, cl
  00182	88 55 f1	 mov	 BYTE PTR __k$[ebp+21], dl
  00185	8a 50 16	 mov	 dl, BYTE PTR [eax+22]
  00188	84 d2		 test	 dl, dl
  0018a	0f 84 a7 00 00
	00		 je	 $LN74@LoadFloat_@5
  00190	80 f2 eb	 xor	 dl, -21			; ffffffebH
  00193	88 55 f2	 mov	 BYTE PTR __k$[ebp+22], dl
  00196	8a 50 17	 mov	 dl, BYTE PTR [eax+23]
  00199	84 d2		 test	 dl, dl
  0019b	0f 84 91 00 00
	00		 je	 $LN73@LoadFloat_@5
  001a1	32 d3		 xor	 dl, bl
  001a3	88 55 f3	 mov	 BYTE PTR __k$[ebp+23], dl
  001a6	8a 50 18	 mov	 dl, BYTE PTR [eax+24]
  001a9	84 d2		 test	 dl, dl
  001ab	74 7c		 je	 SHORT $LN72@LoadFloat_@5
  001ad	80 f2 ed	 xor	 dl, -19			; ffffffedH
  001b0	88 55 f4	 mov	 BYTE PTR __k$[ebp+24], dl
  001b3	8a 50 19	 mov	 dl, BYTE PTR [eax+25]
  001b6	84 d2		 test	 dl, dl
  001b8	74 67		 je	 SHORT $LN71@LoadFloat_@5
  001ba	32 d1		 xor	 dl, cl
  001bc	80 78 1a 00	 cmp	 BYTE PTR [eax+26], 0
  001c0	88 55 f5	 mov	 BYTE PTR __k$[ebp+25], dl
  001c3	0f 84 ed 00 00
	00		 je	 $LN1@LoadFloat_@5
  001c9	8a 50 1b	 mov	 dl, BYTE PTR [eax+27]
  001cc	84 d2		 test	 dl, dl
  001ce	74 49		 je	 SHORT $LN69@LoadFloat_@5
  001d0	32 d3		 xor	 dl, bl
  001d2	88 55 f7	 mov	 BYTE PTR __k$[ebp+27], dl
  001d5	8a 50 1c	 mov	 dl, BYTE PTR [eax+28]
  001d8	84 d2		 test	 dl, dl
  001da	74 34		 je	 SHORT $LN68@LoadFloat_@5
  001dc	80 f2 ed	 xor	 dl, -19			; ffffffedH
  001df	88 55 f8	 mov	 BYTE PTR __k$[ebp+28], dl
  001e2	8a 50 1d	 mov	 dl, BYTE PTR [eax+29]
  001e5	84 d2		 test	 dl, dl
  001e7	74 1f		 je	 SHORT $LN67@LoadFloat_@5
  001e9	8a 40 1e	 mov	 al, BYTE PTR [eax+30]
  001ec	32 d1		 xor	 dl, cl
  001ee	88 55 f9	 mov	 BYTE PTR __k$[ebp+29], dl
  001f1	84 c0		 test	 al, al
  001f3	74 0a		 je	 SHORT $LN66@LoadFloat_@5
  001f5	34 eb		 xor	 al, -21			; ffffffebH
  001f7	88 45 fa	 mov	 BYTE PTR __k$[ebp+30], al
  001fa	e9 b7 00 00 00	 jmp	 $LN1@LoadFloat_@5
$LN66@LoadFloat_@5:
  001ff	c6 45 fa eb	 mov	 BYTE PTR __k$[ebp+30], -21 ; ffffffebH
  00203	e9 ae 00 00 00	 jmp	 $LN1@LoadFloat_@5
$LN67@LoadFloat_@5:
  00208	88 4d f9	 mov	 BYTE PTR __k$[ebp+29], cl
  0020b	e9 a6 00 00 00	 jmp	 $LN1@LoadFloat_@5
$LN68@LoadFloat_@5:
  00210	c6 45 f8 ed	 mov	 BYTE PTR __k$[ebp+28], -19 ; ffffffedH
  00214	e9 9d 00 00 00	 jmp	 $LN1@LoadFloat_@5
$LN69@LoadFloat_@5:
  00219	88 5d f7	 mov	 BYTE PTR __k$[ebp+27], bl
  0021c	e9 95 00 00 00	 jmp	 $LN1@LoadFloat_@5
$LN71@LoadFloat_@5:
  00221	88 4d f5	 mov	 BYTE PTR __k$[ebp+25], cl
  00224	e9 8d 00 00 00	 jmp	 $LN1@LoadFloat_@5
$LN72@LoadFloat_@5:
  00229	c6 45 f4 ed	 mov	 BYTE PTR __k$[ebp+24], -19 ; ffffffedH
  0022d	e9 84 00 00 00	 jmp	 $LN1@LoadFloat_@5
$LN73@LoadFloat_@5:
  00232	88 5d f3	 mov	 BYTE PTR __k$[ebp+23], bl
  00235	eb 7f		 jmp	 SHORT $LN1@LoadFloat_@5
$LN74@LoadFloat_@5:
  00237	c6 45 f2 eb	 mov	 BYTE PTR __k$[ebp+22], -21 ; ffffffebH
  0023b	eb 79		 jmp	 SHORT $LN1@LoadFloat_@5
$LN75@LoadFloat_@5:
  0023d	88 4d f1	 mov	 BYTE PTR __k$[ebp+21], cl
  00240	eb 74		 jmp	 SHORT $LN1@LoadFloat_@5
$LN76@LoadFloat_@5:
  00242	c6 45 f0 ed	 mov	 BYTE PTR __k$[ebp+20], -19 ; ffffffedH
  00246	eb 6e		 jmp	 SHORT $LN1@LoadFloat_@5
$LN77@LoadFloat_@5:
  00248	88 5d ef	 mov	 BYTE PTR __k$[ebp+19], bl
  0024b	eb 69		 jmp	 SHORT $LN1@LoadFloat_@5
$LN78@LoadFloat_@5:
  0024d	c6 45 ee eb	 mov	 BYTE PTR __k$[ebp+18], -21 ; ffffffebH
  00251	eb 63		 jmp	 SHORT $LN1@LoadFloat_@5
$LN79@LoadFloat_@5:
  00253	88 4d ed	 mov	 BYTE PTR __k$[ebp+17], cl
  00256	eb 5e		 jmp	 SHORT $LN1@LoadFloat_@5
$LN80@LoadFloat_@5:
  00258	c6 45 ec ed	 mov	 BYTE PTR __k$[ebp+16], -19 ; ffffffedH
  0025c	eb 58		 jmp	 SHORT $LN1@LoadFloat_@5
$LN81@LoadFloat_@5:
  0025e	88 5d eb	 mov	 BYTE PTR __k$[ebp+15], bl
  00261	eb 53		 jmp	 SHORT $LN1@LoadFloat_@5
$LN82@LoadFloat_@5:
  00263	c6 45 ea eb	 mov	 BYTE PTR __k$[ebp+14], -21 ; ffffffebH
  00267	eb 4d		 jmp	 SHORT $LN1@LoadFloat_@5
$LN83@LoadFloat_@5:
  00269	88 4d e9	 mov	 BYTE PTR __k$[ebp+13], cl
  0026c	eb 48		 jmp	 SHORT $LN1@LoadFloat_@5
$LN84@LoadFloat_@5:
  0026e	c6 45 e8 ed	 mov	 BYTE PTR __k$[ebp+12], -19 ; ffffffedH
  00272	eb 42		 jmp	 SHORT $LN1@LoadFloat_@5
$LN85@LoadFloat_@5:
  00274	88 5d e7	 mov	 BYTE PTR __k$[ebp+11], bl
  00277	eb 3d		 jmp	 SHORT $LN1@LoadFloat_@5
$LN86@LoadFloat_@5:
  00279	c6 45 e6 eb	 mov	 BYTE PTR __k$[ebp+10], -21 ; ffffffebH
  0027d	eb 37		 jmp	 SHORT $LN1@LoadFloat_@5
$LN87@LoadFloat_@5:
  0027f	88 4d e5	 mov	 BYTE PTR __k$[ebp+9], cl
  00282	eb 32		 jmp	 SHORT $LN1@LoadFloat_@5
$LN88@LoadFloat_@5:
  00284	c6 45 e4 ed	 mov	 BYTE PTR __k$[ebp+8], -19 ; ffffffedH
  00288	eb 2c		 jmp	 SHORT $LN1@LoadFloat_@5
$LN89@LoadFloat_@5:
  0028a	88 5d e3	 mov	 BYTE PTR __k$[ebp+7], bl
  0028d	eb 27		 jmp	 SHORT $LN1@LoadFloat_@5
$LN90@LoadFloat_@5:
  0028f	c6 45 e2 eb	 mov	 BYTE PTR __k$[ebp+6], -21 ; ffffffebH
  00293	eb 21		 jmp	 SHORT $LN1@LoadFloat_@5
$LN91@LoadFloat_@5:
  00295	88 4d e1	 mov	 BYTE PTR __k$[ebp+5], cl
  00298	eb 1c		 jmp	 SHORT $LN1@LoadFloat_@5
$LN92@LoadFloat_@5:
  0029a	c6 45 e0 ed	 mov	 BYTE PTR __k$[ebp+4], -19 ; ffffffedH
  0029e	eb 16		 jmp	 SHORT $LN1@LoadFloat_@5
$LN93@LoadFloat_@5:
  002a0	c6 45 df ea	 mov	 BYTE PTR __k$[ebp+3], -22 ; ffffffeaH
  002a4	eb 10		 jmp	 SHORT $LN1@LoadFloat_@5
$LN94@LoadFloat_@5:
  002a6	c6 45 de eb	 mov	 BYTE PTR __k$[ebp+2], -21 ; ffffffebH
  002aa	eb 0a		 jmp	 SHORT $LN1@LoadFloat_@5
$LN95@LoadFloat_@5:
  002ac	c6 45 dd ec	 mov	 BYTE PTR __k$[ebp+1], -20 ; ffffffecH
  002b0	eb 04		 jmp	 SHORT $LN1@LoadFloat_@5
$LN96@LoadFloat_@5:
  002b2	c6 45 dc ed	 mov	 BYTE PTR __k$[ebp], -19	; ffffffedH
$LN1@LoadFloat_@5:
  002b6	6a 06		 push	 6
  002b8	8d 45 dc	 lea	 eax, DWORD PTR __k$[ebp]
  002bb	c6 45 f6 00	 mov	 BYTE PTR __k$[ebp+26], 0
  002bf	5a		 pop	 edx
$LL104@LoadFloat_@5:
  002c0	81 30 ed ec eb
	ea		 xor	 DWORD PTR [eax], -353637139 ; eaebecedH
  002c6	83 c0 04	 add	 eax, 4
  002c9	4a		 dec	 edx
  002ca	75 f4		 jne	 SHORT $LL104@LoadFloat_@5
  002cc	6a 18		 push	 24			; 00000018H
  002ce	58		 pop	 eax
$LL101@LoadFloat_@5:
  002cf	8b c8		 mov	 ecx, eax
  002d1	81 e1 03 00 00
	80		 and	 ecx, -2147483645	; 80000003H
  002d7	79 05		 jns	 SHORT $LN111@LoadFloat_@5
  002d9	49		 dec	 ecx
  002da	83 c9 fc	 or	 ecx, -4			; fffffffcH
  002dd	41		 inc	 ecx
$LN111@LoadFloat_@5:
  002de	b2 ed		 mov	 dl, -19			; ffffffedH
  002e0	2a d1		 sub	 dl, cl
  002e2	30 54 05 dc	 xor	 BYTE PTR __k$[ebp+eax], dl
  002e6	40		 inc	 eax
  002e7	83 f8 1a	 cmp	 eax, 26			; 0000001aH
  002ea	7c e3		 jl	 SHORT $LL101@LoadFloat_@5

; 137  : 		return LoadFloat(_k, f);

  002ec	f3 0f 10 45 0c	 movss	 xmm0, DWORD PTR _f$[ebp]
  002f1	51		 push	 ecx
  002f2	8d 45 dc	 lea	 eax, DWORD PTR __k$[ebp]
  002f5	f3 0f 11 04 24	 movss	 DWORD PTR [esp], xmm0
  002fa	50		 push	 eax
  002fb	8b ce		 mov	 ecx, esi
  002fd	ff 15 00 00 00
	00		 call	 DWORD PTR __imp_?LoadFloat@ioINILoader@@QAEMPBDM@Z

; 138  : 	}

  00303	8b 4d fc	 mov	 ecx, DWORD PTR __$ArrayPad$[ebp]
  00306	5e		 pop	 esi
  00307	33 cd		 xor	 ecx, ebp
  00309	5b		 pop	 ebx
  0030a	e8 00 00 00 00	 call	 @__security_check_cookie@4
  0030f	c9		 leave
  00310	c2 08 00	 ret	 8
??$LoadFloat_e@$0BL@@ioINILoader@@QAEMAAY0BL@$$CBDM@Z ENDP ; ioINILoader::LoadFloat_e<27>
_TEXT	ENDS
PUBLIC	__$ArrayPad$
PUBLIC	??$LoadBool_e@$0BE@@ioINILoader@@QAE_NAAY0BE@$$CBD_N@Z ; ioINILoader::LoadBool_e<20>
EXTRN	__imp_?LoadBool@ioINILoader@@QAE_NPBD_N@Z:PROC
; Function compile flags: /Ogsp
;	COMDAT ??$LoadBool_e@$0BE@@ioINILoader@@QAE_NAAY0BE@$$CBD_N@Z
_TEXT	SEGMENT
__k$ = -28						; size = 20
__$ArrayPad$ = -4					; size = 4
_k$ = 8							; size = 4
_b$ = 12						; size = 1
??$LoadBool_e@$0BE@@ioINILoader@@QAE_NAAY0BE@$$CBD_N@Z PROC ; ioINILoader::LoadBool_e<20>, COMDAT
; _this$ = ecx

; 101  : 	{

  00000	55		 push	 ebp
  00001	8b ec		 mov	 ebp, esp
  00003	83 ec 1c	 sub	 esp, 28			; 0000001cH
  00006	a1 00 00 00 00	 mov	 eax, DWORD PTR ___security_cookie
  0000b	33 c5		 xor	 eax, ebp
  0000d	89 45 fc	 mov	 DWORD PTR __$ArrayPad$[ebp], eax
  00010	8b 45 08	 mov	 eax, DWORD PTR _k$[ebp]

; 102  : 		_ENCSTR(k, _k);

  00013	8a 10		 mov	 dl, BYTE PTR [eax]
  00015	53		 push	 ebx
  00016	56		 push	 esi
  00017	8b f1		 mov	 esi, ecx
  00019	84 d2		 test	 dl, dl
  0001b	0f 84 dd 01 00
	00		 je	 $LN96@LoadBool_e
  00021	80 f2 ed	 xor	 dl, -19			; ffffffedH
  00024	88 55 e4	 mov	 BYTE PTR __k$[ebp], dl
  00027	8a 50 01	 mov	 dl, BYTE PTR [eax+1]
  0002a	84 d2		 test	 dl, dl
  0002c	0f 84 c6 01 00
	00		 je	 $LN95@LoadBool_e
  00032	b3 ec		 mov	 bl, -20			; ffffffecH
  00034	32 d3		 xor	 dl, bl
  00036	88 55 e5	 mov	 BYTE PTR __k$[ebp+1], dl
  00039	8a 50 02	 mov	 dl, BYTE PTR [eax+2]
  0003c	84 d2		 test	 dl, dl
  0003e	0f 84 ae 01 00
	00		 je	 $LN94@LoadBool_e
  00044	b1 eb		 mov	 cl, -21			; ffffffebH
  00046	32 d1		 xor	 dl, cl
  00048	88 55 e6	 mov	 BYTE PTR __k$[ebp+2], dl
  0004b	8a 50 03	 mov	 dl, BYTE PTR [eax+3]
  0004e	84 d2		 test	 dl, dl
  00050	0f 84 96 01 00
	00		 je	 $LN93@LoadBool_e
  00056	80 f2 ea	 xor	 dl, -22			; ffffffeaH
  00059	88 55 e7	 mov	 BYTE PTR __k$[ebp+3], dl
  0005c	8a 50 04	 mov	 dl, BYTE PTR [eax+4]
  0005f	84 d2		 test	 dl, dl
  00061	0f 84 7f 01 00
	00		 je	 $LN92@LoadBool_e
  00067	80 f2 ed	 xor	 dl, -19			; ffffffedH
  0006a	88 55 e8	 mov	 BYTE PTR __k$[ebp+4], dl
  0006d	8a 50 05	 mov	 dl, BYTE PTR [eax+5]
  00070	84 d2		 test	 dl, dl
  00072	0f 84 69 01 00
	00		 je	 $LN91@LoadBool_e
  00078	32 d3		 xor	 dl, bl
  0007a	88 55 e9	 mov	 BYTE PTR __k$[ebp+5], dl
  0007d	8a 50 06	 mov	 dl, BYTE PTR [eax+6]
  00080	84 d2		 test	 dl, dl
  00082	0f 84 54 01 00
	00		 je	 $LN90@LoadBool_e
  00088	32 d1		 xor	 dl, cl
  0008a	88 55 ea	 mov	 BYTE PTR __k$[ebp+6], dl
  0008d	8a 50 07	 mov	 dl, BYTE PTR [eax+7]
  00090	84 d2		 test	 dl, dl
  00092	0f 84 3e 01 00
	00		 je	 $LN89@LoadBool_e
  00098	80 f2 ea	 xor	 dl, -22			; ffffffeaH
  0009b	88 55 eb	 mov	 BYTE PTR __k$[ebp+7], dl
  0009e	8a 50 08	 mov	 dl, BYTE PTR [eax+8]
  000a1	84 d2		 test	 dl, dl
  000a3	0f 84 27 01 00
	00		 je	 $LN88@LoadBool_e
  000a9	80 f2 ed	 xor	 dl, -19			; ffffffedH
  000ac	88 55 ec	 mov	 BYTE PTR __k$[ebp+8], dl
  000af	8a 50 09	 mov	 dl, BYTE PTR [eax+9]
  000b2	84 d2		 test	 dl, dl
  000b4	0f 84 11 01 00
	00		 je	 $LN87@LoadBool_e
  000ba	32 d3		 xor	 dl, bl
  000bc	88 55 ed	 mov	 BYTE PTR __k$[ebp+9], dl
  000bf	8a 50 0a	 mov	 dl, BYTE PTR [eax+10]
  000c2	84 d2		 test	 dl, dl
  000c4	0f 84 fc 00 00
	00		 je	 $LN86@LoadBool_e
  000ca	32 d1		 xor	 dl, cl
  000cc	88 55 ee	 mov	 BYTE PTR __k$[ebp+10], dl
  000cf	8a 50 0b	 mov	 dl, BYTE PTR [eax+11]
  000d2	84 d2		 test	 dl, dl
  000d4	0f 84 e6 00 00
	00		 je	 $LN85@LoadBool_e
  000da	80 f2 ea	 xor	 dl, -22			; ffffffeaH
  000dd	88 55 ef	 mov	 BYTE PTR __k$[ebp+11], dl
  000e0	8a 50 0c	 mov	 dl, BYTE PTR [eax+12]
  000e3	84 d2		 test	 dl, dl
  000e5	0f 84 cf 00 00
	00		 je	 $LN84@LoadBool_e
  000eb	80 f2 ed	 xor	 dl, -19			; ffffffedH
  000ee	88 55 f0	 mov	 BYTE PTR __k$[ebp+12], dl
  000f1	8a 50 0d	 mov	 dl, BYTE PTR [eax+13]
  000f4	84 d2		 test	 dl, dl
  000f6	0f 84 b9 00 00
	00		 je	 $LN83@LoadBool_e
  000fc	32 d3		 xor	 dl, bl
  000fe	88 55 f1	 mov	 BYTE PTR __k$[ebp+13], dl
  00101	8a 50 0e	 mov	 dl, BYTE PTR [eax+14]
  00104	84 d2		 test	 dl, dl
  00106	0f 84 a4 00 00
	00		 je	 $LN82@LoadBool_e
  0010c	32 d1		 xor	 dl, cl
  0010e	88 55 f2	 mov	 BYTE PTR __k$[ebp+14], dl
  00111	8a 50 0f	 mov	 dl, BYTE PTR [eax+15]
  00114	84 d2		 test	 dl, dl
  00116	0f 84 8e 00 00
	00		 je	 $LN81@LoadBool_e
  0011c	80 f2 ea	 xor	 dl, -22			; ffffffeaH
  0011f	88 55 f3	 mov	 BYTE PTR __k$[ebp+15], dl
  00122	8a 50 10	 mov	 dl, BYTE PTR [eax+16]
  00125	84 d2		 test	 dl, dl
  00127	74 7b		 je	 SHORT $LN80@LoadBool_e
  00129	80 f2 ed	 xor	 dl, -19			; ffffffedH
  0012c	88 55 f4	 mov	 BYTE PTR __k$[ebp+16], dl
  0012f	8a 50 11	 mov	 dl, BYTE PTR [eax+17]
  00132	84 d2		 test	 dl, dl
  00134	74 69		 je	 SHORT $LN79@LoadBool_e
  00136	32 d3		 xor	 dl, bl
  00138	88 55 f5	 mov	 BYTE PTR __k$[ebp+17], dl
  0013b	8a 50 12	 mov	 dl, BYTE PTR [eax+18]
  0013e	84 d2		 test	 dl, dl
  00140	74 58		 je	 SHORT $LN78@LoadBool_e
  00142	32 d1		 xor	 dl, cl
  00144	80 78 13 00	 cmp	 BYTE PTR [eax+19], 0
  00148	88 55 f6	 mov	 BYTE PTR __k$[ebp+18], dl
  0014b	0f 84 b1 00 00
	00		 je	 $LN1@LoadBool_e
  00151	8a 50 14	 mov	 dl, BYTE PTR [eax+20]
  00154	84 d2		 test	 dl, dl
  00156	74 3c		 je	 SHORT $LN76@LoadBool_e
  00158	80 f2 ed	 xor	 dl, -19			; ffffffedH
  0015b	88 55 f8	 mov	 BYTE PTR __k$[ebp+20], dl
  0015e	8a 50 15	 mov	 dl, BYTE PTR [eax+21]
  00161	84 d2		 test	 dl, dl
  00163	74 2a		 je	 SHORT $LN75@LoadBool_e
  00165	32 d3		 xor	 dl, bl
  00167	88 55 f9	 mov	 BYTE PTR __k$[ebp+21], dl
  0016a	8a 50 16	 mov	 dl, BYTE PTR [eax+22]
  0016d	84 d2		 test	 dl, dl
  0016f	74 19		 je	 SHORT $LN74@LoadBool_e
  00171	8a 40 17	 mov	 al, BYTE PTR [eax+23]
  00174	32 d1		 xor	 dl, cl
  00176	88 55 fa	 mov	 BYTE PTR __k$[ebp+22], dl
  00179	84 c0		 test	 al, al
  0017b	74 07		 je	 SHORT $LN73@LoadBool_e
  0017d	34 ea		 xor	 al, -22			; ffffffeaH
  0017f	88 45 fb	 mov	 BYTE PTR __k$[ebp+23], al
  00182	eb 7e		 jmp	 SHORT $LN1@LoadBool_e
$LN73@LoadBool_e:
  00184	c6 45 fb ea	 mov	 BYTE PTR __k$[ebp+23], -22 ; ffffffeaH
  00188	eb 78		 jmp	 SHORT $LN1@LoadBool_e
$LN74@LoadBool_e:
  0018a	88 4d fa	 mov	 BYTE PTR __k$[ebp+22], cl
  0018d	eb 73		 jmp	 SHORT $LN1@LoadBool_e
$LN75@LoadBool_e:
  0018f	88 5d f9	 mov	 BYTE PTR __k$[ebp+21], bl
  00192	eb 6e		 jmp	 SHORT $LN1@LoadBool_e
$LN76@LoadBool_e:
  00194	c6 45 f8 ed	 mov	 BYTE PTR __k$[ebp+20], -19 ; ffffffedH
  00198	eb 68		 jmp	 SHORT $LN1@LoadBool_e
$LN78@LoadBool_e:
  0019a	88 4d f6	 mov	 BYTE PTR __k$[ebp+18], cl
  0019d	eb 63		 jmp	 SHORT $LN1@LoadBool_e
$LN79@LoadBool_e:
  0019f	88 5d f5	 mov	 BYTE PTR __k$[ebp+17], bl
  001a2	eb 5e		 jmp	 SHORT $LN1@LoadBool_e
$LN80@LoadBool_e:
  001a4	c6 45 f4 ed	 mov	 BYTE PTR __k$[ebp+16], -19 ; ffffffedH
  001a8	eb 58		 jmp	 SHORT $LN1@LoadBool_e
$LN81@LoadBool_e:
  001aa	c6 45 f3 ea	 mov	 BYTE PTR __k$[ebp+15], -22 ; ffffffeaH
  001ae	eb 52		 jmp	 SHORT $LN1@LoadBool_e
$LN82@LoadBool_e:
  001b0	88 4d f2	 mov	 BYTE PTR __k$[ebp+14], cl
  001b3	eb 4d		 jmp	 SHORT $LN1@LoadBool_e
$LN83@LoadBool_e:
  001b5	88 5d f1	 mov	 BYTE PTR __k$[ebp+13], bl
  001b8	eb 48		 jmp	 SHORT $LN1@LoadBool_e
$LN84@LoadBool_e:
  001ba	c6 45 f0 ed	 mov	 BYTE PTR __k$[ebp+12], -19 ; ffffffedH
  001be	eb 42		 jmp	 SHORT $LN1@LoadBool_e
$LN85@LoadBool_e:
  001c0	c6 45 ef ea	 mov	 BYTE PTR __k$[ebp+11], -22 ; ffffffeaH
  001c4	eb 3c		 jmp	 SHORT $LN1@LoadBool_e
$LN86@LoadBool_e:
  001c6	88 4d ee	 mov	 BYTE PTR __k$[ebp+10], cl
  001c9	eb 37		 jmp	 SHORT $LN1@LoadBool_e
$LN87@LoadBool_e:
  001cb	88 5d ed	 mov	 BYTE PTR __k$[ebp+9], bl
  001ce	eb 32		 jmp	 SHORT $LN1@LoadBool_e
$LN88@LoadBool_e:
  001d0	c6 45 ec ed	 mov	 BYTE PTR __k$[ebp+8], -19 ; ffffffedH
  001d4	eb 2c		 jmp	 SHORT $LN1@LoadBool_e
$LN89@LoadBool_e:
  001d6	c6 45 eb ea	 mov	 BYTE PTR __k$[ebp+7], -22 ; ffffffeaH
  001da	eb 26		 jmp	 SHORT $LN1@LoadBool_e
$LN90@LoadBool_e:
  001dc	88 4d ea	 mov	 BYTE PTR __k$[ebp+6], cl
  001df	eb 21		 jmp	 SHORT $LN1@LoadBool_e
$LN91@LoadBool_e:
  001e1	88 5d e9	 mov	 BYTE PTR __k$[ebp+5], bl
  001e4	eb 1c		 jmp	 SHORT $LN1@LoadBool_e
$LN92@LoadBool_e:
  001e6	c6 45 e8 ed	 mov	 BYTE PTR __k$[ebp+4], -19 ; ffffffedH
  001ea	eb 16		 jmp	 SHORT $LN1@LoadBool_e
$LN93@LoadBool_e:
  001ec	c6 45 e7 ea	 mov	 BYTE PTR __k$[ebp+3], -22 ; ffffffeaH
  001f0	eb 10		 jmp	 SHORT $LN1@LoadBool_e
$LN94@LoadBool_e:
  001f2	c6 45 e6 eb	 mov	 BYTE PTR __k$[ebp+2], -21 ; ffffffebH
  001f6	eb 0a		 jmp	 SHORT $LN1@LoadBool_e
$LN95@LoadBool_e:
  001f8	c6 45 e5 ec	 mov	 BYTE PTR __k$[ebp+1], -20 ; ffffffecH
  001fc	eb 04		 jmp	 SHORT $LN1@LoadBool_e
$LN96@LoadBool_e:
  001fe	c6 45 e4 ed	 mov	 BYTE PTR __k$[ebp], -19	; ffffffedH
$LN1@LoadBool_e:
  00202	6a 04		 push	 4
  00204	8d 45 e4	 lea	 eax, DWORD PTR __k$[ebp]
  00207	c6 45 f7 00	 mov	 BYTE PTR __k$[ebp+19], 0
  0020b	5a		 pop	 edx
$LL104@LoadBool_e:
  0020c	81 30 ed ec eb
	ea		 xor	 DWORD PTR [eax], -353637139 ; eaebecedH
  00212	83 c0 04	 add	 eax, 4
  00215	4a		 dec	 edx
  00216	75 f4		 jne	 SHORT $LL104@LoadBool_e
  00218	6a 10		 push	 16			; 00000010H
  0021a	58		 pop	 eax
$LL101@LoadBool_e:
  0021b	8b c8		 mov	 ecx, eax
  0021d	81 e1 03 00 00
	80		 and	 ecx, -2147483645	; 80000003H
  00223	79 05		 jns	 SHORT $LN111@LoadBool_e
  00225	49		 dec	 ecx
  00226	83 c9 fc	 or	 ecx, -4			; fffffffcH
  00229	41		 inc	 ecx
$LN111@LoadBool_e:
  0022a	b2 ed		 mov	 dl, -19			; ffffffedH
  0022c	2a d1		 sub	 dl, cl
  0022e	30 54 05 e4	 xor	 BYTE PTR __k$[ebp+eax], dl
  00232	40		 inc	 eax
  00233	83 f8 13	 cmp	 eax, 19			; 00000013H
  00236	7c e3		 jl	 SHORT $LL101@LoadBool_e

; 103  : 		return LoadBool(_k, b);

  00238	ff 75 0c	 push	 DWORD PTR _b$[ebp]
  0023b	8d 45 e4	 lea	 eax, DWORD PTR __k$[ebp]
  0023e	50		 push	 eax
  0023f	8b ce		 mov	 ecx, esi
  00241	ff 15 00 00 00
	00		 call	 DWORD PTR __imp_?LoadBool@ioINILoader@@QAE_NPBD_N@Z

; 104  : 	}

  00247	8b 4d fc	 mov	 ecx, DWORD PTR __$ArrayPad$[ebp]
  0024a	5e		 pop	 esi
  0024b	33 cd		 xor	 ecx, ebp
  0024d	5b		 pop	 ebx
  0024e	e8 00 00 00 00	 call	 @__security_check_cookie@4
  00253	c9		 leave
  00254	c2 08 00	 ret	 8
??$LoadBool_e@$0BE@@ioINILoader@@QAE_NAAY0BE@$$CBD_N@Z ENDP ; ioINILoader::LoadBool_e<20>
_TEXT	ENDS
PUBLIC	__$ArrayPad$
PUBLIC	??$LoadFloat_e@$08@ioINILoader@@QAEMAAY08$$CBDM@Z ; ioINILoader::LoadFloat_e<9>
; Function compile flags: /Ogsp
;	COMDAT ??$LoadFloat_e@$08@ioINILoader@@QAEMAAY08$$CBDM@Z
_TEXT	SEGMENT
__k$ = -20						; size = 9
__$ArrayPad$ = -4					; size = 4
_k$ = 8							; size = 4
_f$ = 12						; size = 4
??$LoadFloat_e@$08@ioINILoader@@QAEMAAY08$$CBDM@Z PROC	; ioINILoader::LoadFloat_e<9>, COMDAT
; _this$ = ecx

; 135  : 	{

  00000	55		 push	 ebp
  00001	8b ec		 mov	 ebp, esp
  00003	83 ec 14	 sub	 esp, 20			; 00000014H
  00006	a1 00 00 00 00	 mov	 eax, DWORD PTR ___security_cookie
  0000b	33 c5		 xor	 eax, ebp
  0000d	89 45 fc	 mov	 DWORD PTR __$ArrayPad$[ebp], eax
  00010	8b 45 08	 mov	 eax, DWORD PTR _k$[ebp]

; 136  : 		_ENCSTR(k, _k);

  00013	8a 10		 mov	 dl, BYTE PTR [eax]
  00015	84 d2		 test	 dl, dl
  00017	0f 84 ee 00 00
	00		 je	 $LN96@LoadFloat_@6
  0001d	80 f2 ed	 xor	 dl, -19			; ffffffedH
  00020	88 55 ec	 mov	 BYTE PTR __k$[ebp], dl
  00023	8a 50 01	 mov	 dl, BYTE PTR [eax+1]
  00026	84 d2		 test	 dl, dl
  00028	0f 84 d7 00 00
	00		 je	 $LN95@LoadFloat_@6
  0002e	80 f2 ec	 xor	 dl, -20			; ffffffecH
  00031	88 55 ed	 mov	 BYTE PTR __k$[ebp+1], dl
  00034	8a 50 02	 mov	 dl, BYTE PTR [eax+2]
  00037	84 d2		 test	 dl, dl
  00039	0f 84 c0 00 00
	00		 je	 $LN94@LoadFloat_@6
  0003f	80 f2 eb	 xor	 dl, -21			; ffffffebH
  00042	88 55 ee	 mov	 BYTE PTR __k$[ebp+2], dl
  00045	8a 50 03	 mov	 dl, BYTE PTR [eax+3]
  00048	84 d2		 test	 dl, dl
  0004a	0f 84 a9 00 00
	00		 je	 $LN93@LoadFloat_@6
  00050	80 f2 ea	 xor	 dl, -22			; ffffffeaH
  00053	88 55 ef	 mov	 BYTE PTR __k$[ebp+3], dl
  00056	8a 50 04	 mov	 dl, BYTE PTR [eax+4]
  00059	84 d2		 test	 dl, dl
  0005b	0f 84 92 00 00
	00		 je	 $LN92@LoadFloat_@6
  00061	80 f2 ed	 xor	 dl, -19			; ffffffedH
  00064	88 55 f0	 mov	 BYTE PTR __k$[ebp+4], dl
  00067	8a 50 05	 mov	 dl, BYTE PTR [eax+5]
  0006a	84 d2		 test	 dl, dl
  0006c	74 7f		 je	 SHORT $LN91@LoadFloat_@6
  0006e	80 f2 ec	 xor	 dl, -20			; ffffffecH
  00071	88 55 f1	 mov	 BYTE PTR __k$[ebp+5], dl
  00074	8a 50 06	 mov	 dl, BYTE PTR [eax+6]
  00077	84 d2		 test	 dl, dl
  00079	74 6c		 je	 SHORT $LN90@LoadFloat_@6
  0007b	80 f2 eb	 xor	 dl, -21			; ffffffebH
  0007e	88 55 f2	 mov	 BYTE PTR __k$[ebp+6], dl
  00081	8a 50 07	 mov	 dl, BYTE PTR [eax+7]
  00084	84 d2		 test	 dl, dl
  00086	74 59		 je	 SHORT $LN89@LoadFloat_@6
  00088	80 f2 ea	 xor	 dl, -22			; ffffffeaH
  0008b	80 78 08 00	 cmp	 BYTE PTR [eax+8], 0
  0008f	88 55 f3	 mov	 BYTE PTR __k$[ebp+7], dl
  00092	74 7b		 je	 SHORT $LN1@LoadFloat_@6
  00094	8a 50 09	 mov	 dl, BYTE PTR [eax+9]
  00097	84 d2		 test	 dl, dl
  00099	74 40		 je	 SHORT $LN87@LoadFloat_@6
  0009b	80 f2 ec	 xor	 dl, -20			; ffffffecH
  0009e	88 55 f5	 mov	 BYTE PTR __k$[ebp+9], dl
  000a1	8a 50 0a	 mov	 dl, BYTE PTR [eax+10]
  000a4	84 d2		 test	 dl, dl
  000a6	74 2d		 je	 SHORT $LN86@LoadFloat_@6
  000a8	80 f2 eb	 xor	 dl, -21			; ffffffebH
  000ab	88 55 f6	 mov	 BYTE PTR __k$[ebp+10], dl
  000ae	8a 50 0b	 mov	 dl, BYTE PTR [eax+11]
  000b1	84 d2		 test	 dl, dl
  000b3	74 1a		 je	 SHORT $LN85@LoadFloat_@6
  000b5	8a 40 0c	 mov	 al, BYTE PTR [eax+12]
  000b8	80 f2 ea	 xor	 dl, -22			; ffffffeaH
  000bb	88 55 f7	 mov	 BYTE PTR __k$[ebp+11], dl
  000be	84 c0		 test	 al, al
  000c0	74 07		 je	 SHORT $LN84@LoadFloat_@6
  000c2	34 ed		 xor	 al, -19			; ffffffedH
  000c4	88 45 f8	 mov	 BYTE PTR __k$[ebp+12], al
  000c7	eb 46		 jmp	 SHORT $LN1@LoadFloat_@6
$LN84@LoadFloat_@6:
  000c9	c6 45 f8 ed	 mov	 BYTE PTR __k$[ebp+12], -19 ; ffffffedH
  000cd	eb 40		 jmp	 SHORT $LN1@LoadFloat_@6
$LN85@LoadFloat_@6:
  000cf	c6 45 f7 ea	 mov	 BYTE PTR __k$[ebp+11], -22 ; ffffffeaH
  000d3	eb 3a		 jmp	 SHORT $LN1@LoadFloat_@6
$LN86@LoadFloat_@6:
  000d5	c6 45 f6 eb	 mov	 BYTE PTR __k$[ebp+10], -21 ; ffffffebH
  000d9	eb 34		 jmp	 SHORT $LN1@LoadFloat_@6
$LN87@LoadFloat_@6:
  000db	c6 45 f5 ec	 mov	 BYTE PTR __k$[ebp+9], -20 ; ffffffecH
  000df	eb 2e		 jmp	 SHORT $LN1@LoadFloat_@6
$LN89@LoadFloat_@6:
  000e1	c6 45 f3 ea	 mov	 BYTE PTR __k$[ebp+7], -22 ; ffffffeaH
  000e5	eb 28		 jmp	 SHORT $LN1@LoadFloat_@6
$LN90@LoadFloat_@6:
  000e7	c6 45 f2 eb	 mov	 BYTE PTR __k$[ebp+6], -21 ; ffffffebH
  000eb	eb 22		 jmp	 SHORT $LN1@LoadFloat_@6
$LN91@LoadFloat_@6:
  000ed	c6 45 f1 ec	 mov	 BYTE PTR __k$[ebp+5], -20 ; ffffffecH
  000f1	eb 1c		 jmp	 SHORT $LN1@LoadFloat_@6
$LN92@LoadFloat_@6:
  000f3	c6 45 f0 ed	 mov	 BYTE PTR __k$[ebp+4], -19 ; ffffffedH
  000f7	eb 16		 jmp	 SHORT $LN1@LoadFloat_@6
$LN93@LoadFloat_@6:
  000f9	c6 45 ef ea	 mov	 BYTE PTR __k$[ebp+3], -22 ; ffffffeaH
  000fd	eb 10		 jmp	 SHORT $LN1@LoadFloat_@6
$LN94@LoadFloat_@6:
  000ff	c6 45 ee eb	 mov	 BYTE PTR __k$[ebp+2], -21 ; ffffffebH
  00103	eb 0a		 jmp	 SHORT $LN1@LoadFloat_@6
$LN95@LoadFloat_@6:
  00105	c6 45 ed ec	 mov	 BYTE PTR __k$[ebp+1], -20 ; ffffffecH
  00109	eb 04		 jmp	 SHORT $LN1@LoadFloat_@6
$LN96@LoadFloat_@6:
  0010b	c6 45 ec ed	 mov	 BYTE PTR __k$[ebp], -19	; ffffffedH
$LN1@LoadFloat_@6:
  0010f	6a 02		 push	 2
  00111	8d 45 ec	 lea	 eax, DWORD PTR __k$[ebp]
  00114	c6 45 f4 00	 mov	 BYTE PTR __k$[ebp+8], 0
  00118	5a		 pop	 edx
$LL104@LoadFloat_@6:
  00119	81 30 ed ec eb
	ea		 xor	 DWORD PTR [eax], -353637139 ; eaebecedH
  0011f	83 c0 04	 add	 eax, 4
  00122	4a		 dec	 edx
  00123	75 f4		 jne	 SHORT $LL104@LoadFloat_@6

; 137  : 		return LoadFloat(_k, f);

  00125	f3 0f 10 45 0c	 movss	 xmm0, DWORD PTR _f$[ebp]
  0012a	51		 push	 ecx
  0012b	8d 45 ec	 lea	 eax, DWORD PTR __k$[ebp]
  0012e	f3 0f 11 04 24	 movss	 DWORD PTR [esp], xmm0
  00133	50		 push	 eax
  00134	ff 15 00 00 00
	00		 call	 DWORD PTR __imp_?LoadFloat@ioINILoader@@QAEMPBDM@Z

; 138  : 	}

  0013a	8b 4d fc	 mov	 ecx, DWORD PTR __$ArrayPad$[ebp]
  0013d	33 cd		 xor	 ecx, ebp
  0013f	e8 00 00 00 00	 call	 @__security_check_cookie@4
  00144	c9		 leave
  00145	c2 08 00	 ret	 8
??$LoadFloat_e@$08@ioINILoader@@QAEMAAY08$$CBDM@Z ENDP	; ioINILoader::LoadFloat_e<9>
_TEXT	ENDS
PUBLIC	__$ArrayPad$
PUBLIC	??$LoadInt_e@$0BA@@ioINILoader@@QAEHAAY0BA@$$CBDH@Z ; ioINILoader::LoadInt_e<16>
; Function compile flags: /Ogsp
;	COMDAT ??$LoadInt_e@$0BA@@ioINILoader@@QAEHAAY0BA@$$CBDH@Z
_TEXT	SEGMENT
__k$ = -24						; size = 16
__$ArrayPad$ = -4					; size = 4
_k$ = 8							; size = 4
_i$ = 12						; size = 4
??$LoadInt_e@$0BA@@ioINILoader@@QAEHAAY0BA@$$CBDH@Z PROC ; ioINILoader::LoadInt_e<16>, COMDAT
; _this$ = ecx

; 118  : 	{

  00000	55		 push	 ebp
  00001	8b ec		 mov	 ebp, esp
  00003	83 ec 18	 sub	 esp, 24			; 00000018H
  00006	a1 00 00 00 00	 mov	 eax, DWORD PTR ___security_cookie
  0000b	33 c5		 xor	 eax, ebp
  0000d	89 45 fc	 mov	 DWORD PTR __$ArrayPad$[ebp], eax
  00010	8b 45 08	 mov	 eax, DWORD PTR _k$[ebp]

; 119  : 		_ENCSTR(k, _k);

  00013	8a 10		 mov	 dl, BYTE PTR [eax]
  00015	56		 push	 esi
  00016	8b f1		 mov	 esi, ecx
  00018	84 d2		 test	 dl, dl
  0001a	0f 84 8c 01 00
	00		 je	 $LN96@LoadInt_e@4
  00020	80 f2 ed	 xor	 dl, -19			; ffffffedH
  00023	88 55 e8	 mov	 BYTE PTR __k$[ebp], dl
  00026	8a 50 01	 mov	 dl, BYTE PTR [eax+1]
  00029	84 d2		 test	 dl, dl
  0002b	0f 84 75 01 00
	00		 je	 $LN95@LoadInt_e@4
  00031	80 f2 ec	 xor	 dl, -20			; ffffffecH
  00034	88 55 e9	 mov	 BYTE PTR __k$[ebp+1], dl
  00037	8a 50 02	 mov	 dl, BYTE PTR [eax+2]
  0003a	84 d2		 test	 dl, dl
  0003c	0f 84 5e 01 00
	00		 je	 $LN94@LoadInt_e@4
  00042	b1 eb		 mov	 cl, -21			; ffffffebH
  00044	32 d1		 xor	 dl, cl
  00046	88 55 ea	 mov	 BYTE PTR __k$[ebp+2], dl
  00049	8a 50 03	 mov	 dl, BYTE PTR [eax+3]
  0004c	84 d2		 test	 dl, dl
  0004e	0f 84 46 01 00
	00		 je	 $LN93@LoadInt_e@4
  00054	80 f2 ea	 xor	 dl, -22			; ffffffeaH
  00057	88 55 eb	 mov	 BYTE PTR __k$[ebp+3], dl
  0005a	8a 50 04	 mov	 dl, BYTE PTR [eax+4]
  0005d	84 d2		 test	 dl, dl
  0005f	0f 84 2f 01 00
	00		 je	 $LN92@LoadInt_e@4
  00065	80 f2 ed	 xor	 dl, -19			; ffffffedH
  00068	88 55 ec	 mov	 BYTE PTR __k$[ebp+4], dl
  0006b	8a 50 05	 mov	 dl, BYTE PTR [eax+5]
  0006e	84 d2		 test	 dl, dl
  00070	0f 84 18 01 00
	00		 je	 $LN91@LoadInt_e@4
  00076	80 f2 ec	 xor	 dl, -20			; ffffffecH
  00079	88 55 ed	 mov	 BYTE PTR __k$[ebp+5], dl
  0007c	8a 50 06	 mov	 dl, BYTE PTR [eax+6]
  0007f	84 d2		 test	 dl, dl
  00081	0f 84 02 01 00
	00		 je	 $LN90@LoadInt_e@4
  00087	32 d1		 xor	 dl, cl
  00089	88 55 ee	 mov	 BYTE PTR __k$[ebp+6], dl
  0008c	8a 50 07	 mov	 dl, BYTE PTR [eax+7]
  0008f	84 d2		 test	 dl, dl
  00091	0f 84 ec 00 00
	00		 je	 $LN89@LoadInt_e@4
  00097	80 f2 ea	 xor	 dl, -22			; ffffffeaH
  0009a	88 55 ef	 mov	 BYTE PTR __k$[ebp+7], dl
  0009d	8a 50 08	 mov	 dl, BYTE PTR [eax+8]
  000a0	84 d2		 test	 dl, dl
  000a2	0f 84 d5 00 00
	00		 je	 $LN88@LoadInt_e@4
  000a8	80 f2 ed	 xor	 dl, -19			; ffffffedH
  000ab	88 55 f0	 mov	 BYTE PTR __k$[ebp+8], dl
  000ae	8a 50 09	 mov	 dl, BYTE PTR [eax+9]
  000b1	84 d2		 test	 dl, dl
  000b3	0f 84 be 00 00
	00		 je	 $LN87@LoadInt_e@4
  000b9	80 f2 ec	 xor	 dl, -20			; ffffffecH
  000bc	88 55 f1	 mov	 BYTE PTR __k$[ebp+9], dl
  000bf	8a 50 0a	 mov	 dl, BYTE PTR [eax+10]
  000c2	84 d2		 test	 dl, dl
  000c4	0f 84 a8 00 00
	00		 je	 $LN86@LoadInt_e@4
  000ca	32 d1		 xor	 dl, cl
  000cc	88 55 f2	 mov	 BYTE PTR __k$[ebp+10], dl
  000cf	8a 50 0b	 mov	 dl, BYTE PTR [eax+11]
  000d2	84 d2		 test	 dl, dl
  000d4	0f 84 92 00 00
	00		 je	 $LN85@LoadInt_e@4
  000da	80 f2 ea	 xor	 dl, -22			; ffffffeaH
  000dd	88 55 f3	 mov	 BYTE PTR __k$[ebp+11], dl
  000e0	8a 50 0c	 mov	 dl, BYTE PTR [eax+12]
  000e3	84 d2		 test	 dl, dl
  000e5	74 7f		 je	 SHORT $LN84@LoadInt_e@4
  000e7	80 f2 ed	 xor	 dl, -19			; ffffffedH
  000ea	88 55 f4	 mov	 BYTE PTR __k$[ebp+12], dl
  000ed	8a 50 0d	 mov	 dl, BYTE PTR [eax+13]
  000f0	84 d2		 test	 dl, dl
  000f2	74 6c		 je	 SHORT $LN83@LoadInt_e@4
  000f4	80 f2 ec	 xor	 dl, -20			; ffffffecH
  000f7	88 55 f5	 mov	 BYTE PTR __k$[ebp+13], dl
  000fa	8a 50 0e	 mov	 dl, BYTE PTR [eax+14]
  000fd	84 d2		 test	 dl, dl
  000ff	74 5a		 je	 SHORT $LN82@LoadInt_e@4
  00101	32 d1		 xor	 dl, cl
  00103	80 78 0f 00	 cmp	 BYTE PTR [eax+15], 0
  00107	88 55 f6	 mov	 BYTE PTR __k$[ebp+14], dl
  0010a	0f 84 a0 00 00
	00		 je	 $LN1@LoadInt_e@4
  00110	8a 50 10	 mov	 dl, BYTE PTR [eax+16]
  00113	84 d2		 test	 dl, dl
  00115	74 3e		 je	 SHORT $LN80@LoadInt_e@4
  00117	80 f2 ed	 xor	 dl, -19			; ffffffedH
  0011a	88 55 f8	 mov	 BYTE PTR __k$[ebp+16], dl
  0011d	8a 50 11	 mov	 dl, BYTE PTR [eax+17]
  00120	84 d2		 test	 dl, dl
  00122	74 2b		 je	 SHORT $LN79@LoadInt_e@4
  00124	80 f2 ec	 xor	 dl, -20			; ffffffecH
  00127	88 55 f9	 mov	 BYTE PTR __k$[ebp+17], dl
  0012a	8a 50 12	 mov	 dl, BYTE PTR [eax+18]
  0012d	84 d2		 test	 dl, dl
  0012f	74 19		 je	 SHORT $LN78@LoadInt_e@4
  00131	8a 40 13	 mov	 al, BYTE PTR [eax+19]
  00134	32 d1		 xor	 dl, cl
  00136	88 55 fa	 mov	 BYTE PTR __k$[ebp+18], dl
  00139	84 c0		 test	 al, al
  0013b	74 07		 je	 SHORT $LN77@LoadInt_e@4
  0013d	34 ea		 xor	 al, -22			; ffffffeaH
  0013f	88 45 fb	 mov	 BYTE PTR __k$[ebp+19], al
  00142	eb 6c		 jmp	 SHORT $LN1@LoadInt_e@4
$LN77@LoadInt_e@4:
  00144	c6 45 fb ea	 mov	 BYTE PTR __k$[ebp+19], -22 ; ffffffeaH
  00148	eb 66		 jmp	 SHORT $LN1@LoadInt_e@4
$LN78@LoadInt_e@4:
  0014a	88 4d fa	 mov	 BYTE PTR __k$[ebp+18], cl
  0014d	eb 61		 jmp	 SHORT $LN1@LoadInt_e@4
$LN79@LoadInt_e@4:
  0014f	c6 45 f9 ec	 mov	 BYTE PTR __k$[ebp+17], -20 ; ffffffecH
  00153	eb 5b		 jmp	 SHORT $LN1@LoadInt_e@4
$LN80@LoadInt_e@4:
  00155	c6 45 f8 ed	 mov	 BYTE PTR __k$[ebp+16], -19 ; ffffffedH
  00159	eb 55		 jmp	 SHORT $LN1@LoadInt_e@4
$LN82@LoadInt_e@4:
  0015b	88 4d f6	 mov	 BYTE PTR __k$[ebp+14], cl
  0015e	eb 50		 jmp	 SHORT $LN1@LoadInt_e@4
$LN83@LoadInt_e@4:
  00160	c6 45 f5 ec	 mov	 BYTE PTR __k$[ebp+13], -20 ; ffffffecH
  00164	eb 4a		 jmp	 SHORT $LN1@LoadInt_e@4
$LN84@LoadInt_e@4:
  00166	c6 45 f4 ed	 mov	 BYTE PTR __k$[ebp+12], -19 ; ffffffedH
  0016a	eb 44		 jmp	 SHORT $LN1@LoadInt_e@4
$LN85@LoadInt_e@4:
  0016c	c6 45 f3 ea	 mov	 BYTE PTR __k$[ebp+11], -22 ; ffffffeaH
  00170	eb 3e		 jmp	 SHORT $LN1@LoadInt_e@4
$LN86@LoadInt_e@4:
  00172	88 4d f2	 mov	 BYTE PTR __k$[ebp+10], cl
  00175	eb 39		 jmp	 SHORT $LN1@LoadInt_e@4
$LN87@LoadInt_e@4:
  00177	c6 45 f1 ec	 mov	 BYTE PTR __k$[ebp+9], -20 ; ffffffecH
  0017b	eb 33		 jmp	 SHORT $LN1@LoadInt_e@4
$LN88@LoadInt_e@4:
  0017d	c6 45 f0 ed	 mov	 BYTE PTR __k$[ebp+8], -19 ; ffffffedH
  00181	eb 2d		 jmp	 SHORT $LN1@LoadInt_e@4
$LN89@LoadInt_e@4:
  00183	c6 45 ef ea	 mov	 BYTE PTR __k$[ebp+7], -22 ; ffffffeaH
  00187	eb 27		 jmp	 SHORT $LN1@LoadInt_e@4
$LN90@LoadInt_e@4:
  00189	88 4d ee	 mov	 BYTE PTR __k$[ebp+6], cl
  0018c	eb 22		 jmp	 SHORT $LN1@LoadInt_e@4
$LN91@LoadInt_e@4:
  0018e	c6 45 ed ec	 mov	 BYTE PTR __k$[ebp+5], -20 ; ffffffecH
  00192	eb 1c		 jmp	 SHORT $LN1@LoadInt_e@4
$LN92@LoadInt_e@4:
  00194	c6 45 ec ed	 mov	 BYTE PTR __k$[ebp+4], -19 ; ffffffedH
  00198	eb 16		 jmp	 SHORT $LN1@LoadInt_e@4
$LN93@LoadInt_e@4:
  0019a	c6 45 eb ea	 mov	 BYTE PTR __k$[ebp+3], -22 ; ffffffeaH
  0019e	eb 10		 jmp	 SHORT $LN1@LoadInt_e@4
$LN94@LoadInt_e@4:
  001a0	c6 45 ea eb	 mov	 BYTE PTR __k$[ebp+2], -21 ; ffffffebH
  001a4	eb 0a		 jmp	 SHORT $LN1@LoadInt_e@4
$LN95@LoadInt_e@4:
  001a6	c6 45 e9 ec	 mov	 BYTE PTR __k$[ebp+1], -20 ; ffffffecH
  001aa	eb 04		 jmp	 SHORT $LN1@LoadInt_e@4
$LN96@LoadInt_e@4:
  001ac	c6 45 e8 ed	 mov	 BYTE PTR __k$[ebp], -19	; ffffffedH
$LN1@LoadInt_e@4:
  001b0	6a 03		 push	 3
  001b2	8d 45 e8	 lea	 eax, DWORD PTR __k$[ebp]
  001b5	c6 45 f7 00	 mov	 BYTE PTR __k$[ebp+15], 0
  001b9	5a		 pop	 edx
$LL104@LoadInt_e@4:
  001ba	81 30 ed ec eb
	ea		 xor	 DWORD PTR [eax], -353637139 ; eaebecedH
  001c0	83 c0 04	 add	 eax, 4
  001c3	4a		 dec	 edx
  001c4	75 f4		 jne	 SHORT $LL104@LoadInt_e@4
  001c6	6a 0c		 push	 12			; 0000000cH
  001c8	58		 pop	 eax
$LL101@LoadInt_e@4:
  001c9	8b c8		 mov	 ecx, eax
  001cb	81 e1 03 00 00
	80		 and	 ecx, -2147483645	; 80000003H
  001d1	79 05		 jns	 SHORT $LN111@LoadInt_e@4
  001d3	49		 dec	 ecx
  001d4	83 c9 fc	 or	 ecx, -4			; fffffffcH
  001d7	41		 inc	 ecx
$LN111@LoadInt_e@4:
  001d8	b2 ed		 mov	 dl, -19			; ffffffedH
  001da	2a d1		 sub	 dl, cl
  001dc	30 54 05 e8	 xor	 BYTE PTR __k$[ebp+eax], dl
  001e0	40		 inc	 eax
  001e1	83 f8 0f	 cmp	 eax, 15			; 0000000fH
  001e4	7c e3		 jl	 SHORT $LL101@LoadInt_e@4

; 120  : 		return LoadInt(_k, i);

  001e6	ff 75 0c	 push	 DWORD PTR _i$[ebp]
  001e9	8d 45 e8	 lea	 eax, DWORD PTR __k$[ebp]
  001ec	50		 push	 eax
  001ed	8b ce		 mov	 ecx, esi
  001ef	ff 15 00 00 00
	00		 call	 DWORD PTR __imp_?LoadInt@ioINILoader@@QAEHPBDH@Z

; 121  : 	}

  001f5	8b 4d fc	 mov	 ecx, DWORD PTR __$ArrayPad$[ebp]
  001f8	33 cd		 xor	 ecx, ebp
  001fa	5e		 pop	 esi
  001fb	e8 00 00 00 00	 call	 @__security_check_cookie@4
  00200	c9		 leave
  00201	c2 08 00	 ret	 8
??$LoadInt_e@$0BA@@ioINILoader@@QAEHAAY0BA@$$CBDH@Z ENDP ; ioINILoader::LoadInt_e<16>
_TEXT	ENDS
PUBLIC	__real@3fd2ee0d320154cb
PUBLIC	__real@41f0000000000000
PUBLIC	??$RADtoDEG@M@@YAMM@Z				; RADtoDEG<float>
;	COMDAT __real@3fd2ee0d320154cb
; File d:\lost saga for developer\youtube\tutorial\source\src\lsclient\veryoftenusedefine.h
CONST	SEGMENT
__real@3fd2ee0d320154cb DQ 03fd2ee0d320154cbr	; 0.29578
CONST	ENDS
;	COMDAT __real@41f0000000000000
CONST	SEGMENT
__real@41f0000000000000 DQ 041f0000000000000r	; 4.29497e+009
; Function compile flags: /Ogsp
CONST	ENDS
;	COMDAT ??$RADtoDEG@M@@YAMM@Z
_TEXT	SEGMENT
tv130 = -4						; size = 4
tv75 = 8						; size = 4
_val$ = 8						; size = 4
??$RADtoDEG@M@@YAMM@Z PROC				; RADtoDEG<float>, COMDAT

; 18   : type  RADtoDEG (type val) {return (type) (val * (return57() + 0.2957795132)); }

  00000	55		 push	 ebp
  00001	8b ec		 mov	 ebp, esp
  00003	51		 push	 ecx
  00004	b8 39 00 00 00	 mov	 eax, 57			; 00000039H
  00009	89 45 fc	 mov	 DWORD PTR tv130[ebp], eax
  0000c	db 45 fc	 fild	 DWORD PTR tv130[ebp]
  0000f	85 c0		 test	 eax, eax
  00011	79 06		 jns	 SHORT $LN5@RADtoDEG
  00013	dc 05 00 00 00
	00		 fadd	 QWORD PTR __real@41f0000000000000
$LN5@RADtoDEG:
  00019	dc 05 00 00 00
	00		 fadd	 QWORD PTR __real@3fd2ee0d320154cb
  0001f	d8 4d 08	 fmul	 DWORD PTR _val$[ebp]
  00022	d9 5d 08	 fstp	 DWORD PTR tv75[ebp]
  00025	d9 45 08	 fld	 DWORD PTR tv75[ebp]
  00028	c9		 leave
  00029	c3		 ret	 0
??$RADtoDEG@M@@YAMM@Z ENDP				; RADtoDEG<float>
_TEXT	ENDS
PUBLIC	??$_Cons_val@V?$allocator@UChangeDirInfo@@@std@@UChangeDirInfo@@AAU3@@std@@YAXAAV?$allocator@UChangeDirInfo@@@0@PAUChangeDirInfo@@AAU2@@Z ; std::_Cons_val<std::allocator<ChangeDirInfo>,ChangeDirInfo,ChangeDirInfo &>
; Function compile flags: /Ogsp
; File c:\program files (x86)\microsoft visual studio 10.0\vc\include\xmemory
;	COMDAT ??$_Cons_val@V?$allocator@UChangeDirInfo@@@std@@UChangeDirInfo@@AAU3@@std@@YAXAAV?$allocator@UChangeDirInfo@@@0@PAUChangeDirInfo@@AAU2@@Z
_TEXT	SEGMENT
__Alval$ = 8						; size = 4
__Pdest$ = 12						; size = 4
__Src$ = 16						; size = 4
??$_Cons_val@V?$allocator@UChangeDirInfo@@@std@@UChangeDirInfo@@AAU3@@std@@YAXAAV?$allocator@UChangeDirInfo@@@0@PAUChangeDirInfo@@AAU2@@Z PROC ; std::_Cons_val<std::allocator<ChangeDirInfo>,ChangeDirInfo,ChangeDirInfo &>, COMDAT

; 279  : 	{	// construct using allocator

  00000	55		 push	 ebp
  00001	8b ec		 mov	 ebp, esp
  00003	57		 push	 edi

; 280  : 	_Alval.construct(_Pdest, _STD forward<_Ty2>(_Src));

  00004	8b 7d 0c	 mov	 edi, DWORD PTR __Pdest$[ebp]
  00007	85 ff		 test	 edi, edi
  00009	74 0a		 je	 SHORT $LN7@Cons_val
  0000b	56		 push	 esi
  0000c	8b 75 10	 mov	 esi, DWORD PTR __Src$[ebp]
  0000f	6a 07		 push	 7
  00011	59		 pop	 ecx
  00012	f3 a5		 rep movsd
  00014	5e		 pop	 esi
$LN7@Cons_val:
  00015	5f		 pop	 edi

; 281  : 	}

  00016	5d		 pop	 ebp
  00017	c3		 ret	 0
??$_Cons_val@V?$allocator@UChangeDirInfo@@@std@@UChangeDirInfo@@AAU3@@std@@YAXAAV?$allocator@UChangeDirInfo@@@0@PAUChangeDirInfo@@AAU2@@Z ENDP ; std::_Cons_val<std::allocator<ChangeDirInfo>,ChangeDirInfo,ChangeDirInfo &>
_TEXT	ENDS
PUBLIC	?construct@?$allocator@UChangeDirInfo@@@std@@QAEXPAUChangeDirInfo@@ABU3@@Z ; std::allocator<ChangeDirInfo>::construct
; Function compile flags: /Ogsp
;	COMDAT ?construct@?$allocator@UChangeDirInfo@@@std@@QAEXPAUChangeDirInfo@@ABU3@@Z
_TEXT	SEGMENT
__Ptr$ = 8						; size = 4
__Val$ = 12						; size = 4
?construct@?$allocator@UChangeDirInfo@@@std@@QAEXPAUChangeDirInfo@@ABU3@@Z PROC ; std::allocator<ChangeDirInfo>::construct, COMDAT
; _this$ = ecx

; 196  : 		{	// construct object at _Ptr with value _Val

  00000	55		 push	 ebp
  00001	8b ec		 mov	 ebp, esp
  00003	57		 push	 edi

; 197  : 		_Construct(_Ptr, _Val);

  00004	8b 7d 08	 mov	 edi, DWORD PTR __Ptr$[ebp]
  00007	85 ff		 test	 edi, edi
  00009	74 0a		 je	 SHORT $LN5@construct@2
  0000b	56		 push	 esi
  0000c	8b 75 0c	 mov	 esi, DWORD PTR __Val$[ebp]
  0000f	6a 07		 push	 7
  00011	59		 pop	 ecx
  00012	f3 a5		 rep movsd
  00014	5e		 pop	 esi
$LN5@construct@2:
  00015	5f		 pop	 edi

; 198  : 		}

  00016	5d		 pop	 ebp
  00017	c2 08 00	 ret	 8
?construct@?$allocator@UChangeDirInfo@@@std@@QAEXPAUChangeDirInfo@@ABU3@@Z ENDP ; std::allocator<ChangeDirInfo>::construct
_TEXT	ENDS
PUBLIC	??G?$_Vector_iterator@V?$_Vector_val@UChangeDirInfo@@V?$allocator@UChangeDirInfo@@@std@@@std@@@std@@QBEHABV?$_Vector_const_iterator@V?$_Vector_val@UChangeDirInfo@@V?$allocator@UChangeDirInfo@@@std@@@std@@@1@@Z ; std::_Vector_iterator<std::_Vector_val<ChangeDirInfo,std::allocator<ChangeDirInfo> > >::operator-
; Function compile flags: /Ogsp
; File c:\program files (x86)\microsoft visual studio 10.0\vc\include\vector
;	COMDAT ??G?$_Vector_iterator@V?$_Vector_val@UChangeDirInfo@@V?$allocator@UChangeDirInfo@@@std@@@std@@@std@@QBEHABV?$_Vector_const_iterator@V?$_Vector_val@UChangeDirInfo@@V?$allocator@UChangeDirInfo@@@std@@@std@@@1@@Z
_TEXT	SEGMENT
__Right$ = 8						; size = 4
??G?$_Vector_iterator@V?$_Vector_val@UChangeDirInfo@@V?$allocator@UChangeDirInfo@@@std@@@std@@@std@@QBEHABV?$_Vector_const_iterator@V?$_Vector_val@UChangeDirInfo@@V?$allocator@UChangeDirInfo@@@std@@@std@@@1@@Z PROC ; std::_Vector_iterator<std::_Vector_val<ChangeDirInfo,std::allocator<ChangeDirInfo> > >::operator-, COMDAT
; _this$ = ecx

; 380  : 		{	// return difference of iterators

  00000	55		 push	 ebp
  00001	8b ec		 mov	 ebp, esp

; 381  : 		return (*(_Mybase *)this - _Right);

  00003	8b 01		 mov	 eax, DWORD PTR [ecx]
  00005	8b 4d 08	 mov	 ecx, DWORD PTR __Right$[ebp]
  00008	2b 01		 sub	 eax, DWORD PTR [ecx]
  0000a	6a 1c		 push	 28			; 0000001cH
  0000c	99		 cdq
  0000d	59		 pop	 ecx
  0000e	f7 f9		 idiv	 ecx

; 382  : 		}

  00010	5d		 pop	 ebp
  00011	c2 04 00	 ret	 4
??G?$_Vector_iterator@V?$_Vector_val@UChangeDirInfo@@V?$allocator@UChangeDirInfo@@@std@@@std@@@std@@QBEHABV?$_Vector_const_iterator@V?$_Vector_val@UChangeDirInfo@@V?$allocator@UChangeDirInfo@@@std@@@std@@@1@@Z ENDP ; std::_Vector_iterator<std::_Vector_val<ChangeDirInfo,std::allocator<ChangeDirInfo> > >::operator-
_TEXT	ENDS
PUBLIC	??$_Unchecked@V?$_Vector_val@UChangeDirInfo@@V?$allocator@UChangeDirInfo@@@std@@@std@@@std@@YAPAUChangeDirInfo@@V?$_Vector_iterator@V?$_Vector_val@UChangeDirInfo@@V?$allocator@UChangeDirInfo@@@std@@@std@@@0@@Z ; std::_Unchecked<std::_Vector_val<ChangeDirInfo,std::allocator<ChangeDirInfo> > >
; Function compile flags: /Ogsp
;	COMDAT ??$_Unchecked@V?$_Vector_val@UChangeDirInfo@@V?$allocator@UChangeDirInfo@@@std@@@std@@@std@@YAPAUChangeDirInfo@@V?$_Vector_iterator@V?$_Vector_val@UChangeDirInfo@@V?$allocator@UChangeDirInfo@@@std@@@std@@@0@@Z
_TEXT	SEGMENT
__Iter$ = 8						; size = 4
??$_Unchecked@V?$_Vector_val@UChangeDirInfo@@V?$allocator@UChangeDirInfo@@@std@@@std@@@std@@YAPAUChangeDirInfo@@V?$_Vector_iterator@V?$_Vector_val@UChangeDirInfo@@V?$allocator@UChangeDirInfo@@@std@@@std@@@0@@Z PROC ; std::_Unchecked<std::_Vector_val<ChangeDirInfo,std::allocator<ChangeDirInfo> > >, COMDAT

; 393  : 	{	// convert to unchecked

  00000	55		 push	 ebp
  00001	8b ec		 mov	 ebp, esp

; 394  : 	return (_Iter._Unchecked());

  00003	8b 45 08	 mov	 eax, DWORD PTR __Iter$[ebp]

; 395  : 	}

  00006	5d		 pop	 ebp
  00007	c3		 ret	 0
??$_Unchecked@V?$_Vector_val@UChangeDirInfo@@V?$allocator@UChangeDirInfo@@@std@@@std@@@std@@YAPAUChangeDirInfo@@V?$_Vector_iterator@V?$_Vector_val@UChangeDirInfo@@V?$allocator@UChangeDirInfo@@@std@@@std@@@0@@Z ENDP ; std::_Unchecked<std::_Vector_val<ChangeDirInfo,std::allocator<ChangeDirInfo> > >
_TEXT	ENDS
PUBLIC	??$construct@AAVioHashString@@@?$allocator@VioHashString@@@std@@QAEXPAVioHashString@@AAV2@@Z ; std::allocator<ioHashString>::construct<ioHashString &>
;	COMDAT xdata$x
; File c:\program files (x86)\microsoft visual studio 10.0\vc\include\utility
xdata$x	SEGMENT
__unwindtable$??$construct@AAVioHashString@@@?$allocator@VioHashString@@@std@@QAEXPAVioHashString@@AAV2@@Z DD 0ffffffffH
	DD	FLAT:__unwindfunclet$??$construct@AAVioHashString@@@?$allocator@VioHashString@@@std@@QAEXPAVioHashString@@AAV2@@Z$0
__ehfuncinfo$??$construct@AAVioHashString@@@?$allocator@VioHashString@@@std@@QAEXPAVioHashString@@AAV2@@Z DD 019930522H
	DD	01H
	DD	FLAT:__unwindtable$??$construct@AAVioHashString@@@?$allocator@VioHashString@@@std@@QAEXPAVioHashString@@AAV2@@Z
	DD	2 DUP(00H)
	DD	2 DUP(00H)
	DD	00H
	DD	01H
; Function compile flags: /Ogsp
; File c:\program files (x86)\microsoft visual studio 10.0\vc\include\xmemory
xdata$x	ENDS
;	COMDAT ??$construct@AAVioHashString@@@?$allocator@VioHashString@@@std@@QAEXPAVioHashString@@AAV2@@Z
_TEXT	SEGMENT
$T536730 = -16						; size = 4
__$EHRec$ = -12						; size = 12
__Ptr$ = 8						; size = 4
__Val$ = 12						; size = 4
??$construct@AAVioHashString@@@?$allocator@VioHashString@@@std@@QAEXPAVioHashString@@AAV2@@Z PROC ; std::allocator<ioHashString>::construct<ioHashString &>, COMDAT
; _this$ = ecx

; 206  : 		void construct(pointer _Ptr, _Other&& _Val)

  00000	6a 04		 push	 4
  00002	b8 00 00 00 00	 mov	 eax, __ehhandler$??$construct@AAVioHashString@@@?$allocator@VioHashString@@@std@@QAEXPAVioHashString@@AAV2@@Z
  00007	e8 00 00 00 00	 call	 __EH_prolog3

; 207  : 		{	// construct object at _Ptr with value _Val
; 208  : 		::new ((void _FARQ *)_Ptr) _Ty(_STD forward<_Other>(_Val));

  0000c	8b 4d 08	 mov	 ecx, DWORD PTR __Ptr$[ebp]
  0000f	89 4d f0	 mov	 DWORD PTR $T536730[ebp], ecx
  00012	83 65 fc 00	 and	 DWORD PTR __$EHRec$[ebp+8], 0
  00016	85 c9		 test	 ecx, ecx
  00018	74 09		 je	 SHORT $LN3@construct@3
  0001a	ff 75 0c	 push	 DWORD PTR __Val$[ebp]
  0001d	ff 15 00 00 00
	00		 call	 DWORD PTR __imp_??0ioHashString@@QAE@ABV0@@Z
$LN3@construct@3:

; 209  : 		}

  00023	e8 00 00 00 00	 call	 __EH_epilog3
  00028	c2 08 00	 ret	 8
_TEXT	ENDS
;	COMDAT text$x
text$x	SEGMENT
__unwindfunclet$??$construct@AAVioHashString@@@?$allocator@VioHashString@@@std@@QAEXPAVioHashString@@AAV2@@Z$0:
  00000	ff 75 08	 push	 DWORD PTR __Ptr$[ebp]
  00003	ff 75 f0	 push	 DWORD PTR $T536730[ebp]
  00006	e8 00 00 00 00	 call	 ??3@YAXPAX0@Z		; operator delete
  0000b	59		 pop	 ecx
  0000c	59		 pop	 ecx
  0000d	c3		 ret	 0
__ehhandler$??$construct@AAVioHashString@@@?$allocator@VioHashString@@@std@@QAEXPAVioHashString@@AAV2@@Z:
  0000e	8b 54 24 08	 mov	 edx, DWORD PTR [esp+8]
  00012	8d 42 0c	 lea	 eax, DWORD PTR [edx+12]
  00015	8b 4a ec	 mov	 ecx, DWORD PTR [edx-20]
  00018	33 c8		 xor	 ecx, eax
  0001a	e8 00 00 00 00	 call	 @__security_check_cookie@4
  0001f	b8 00 00 00 00	 mov	 eax, OFFSET __ehfuncinfo$??$construct@AAVioHashString@@@?$allocator@VioHashString@@@std@@QAEXPAVioHashString@@AAV2@@Z
  00024	e9 00 00 00 00	 jmp	 ___CxxFrameHandler3
text$x	ENDS
??$construct@AAVioHashString@@@?$allocator@VioHashString@@@std@@QAEXPAVioHashString@@AAV2@@Z ENDP ; std::allocator<ioHashString>::construct<ioHashString &>
PUBLIC	??$_Move@PAUChangeDirInfo@@PAU1@@std@@YAPAUChangeDirInfo@@PAU1@00U_Nonscalar_ptr_iterator_tag@0@@Z ; std::_Move<ChangeDirInfo *,ChangeDirInfo *>
; Function compile flags: /Ogsp
; File c:\program files (x86)\microsoft visual studio 10.0\vc\include\xutility
;	COMDAT ??$_Move@PAUChangeDirInfo@@PAU1@@std@@YAPAUChangeDirInfo@@PAU1@00U_Nonscalar_ptr_iterator_tag@0@@Z
_TEXT	SEGMENT
__First$ = 8						; size = 4
__Last$ = 12						; size = 4
__Dest$ = 16						; size = 4
___formal$ = 20						; size = 1
??$_Move@PAUChangeDirInfo@@PAU1@@std@@YAPAUChangeDirInfo@@PAU1@00U_Nonscalar_ptr_iterator_tag@0@@Z PROC ; std::_Move<ChangeDirInfo *,ChangeDirInfo *>, COMDAT

; 2512 : 	{	// move [_First, _Last) to [_Dest, ...), arbitrary iterators

  00000	55		 push	 ebp
  00001	8b ec		 mov	 ebp, esp

; 2513 : 	for (; _First != _Last; ++_Dest, ++_First)

  00003	8b 45 08	 mov	 eax, DWORD PTR __First$[ebp]
  00006	3b 45 0c	 cmp	 eax, DWORD PTR __Last$[ebp]
  00009	74 1a		 je	 SHORT $LN10@Move
  0000b	56		 push	 esi
  0000c	57		 push	 edi
$LL3@Move:

; 2514 : 		*_Dest = _STD move(*_First);

  0000d	8b 7d 10	 mov	 edi, DWORD PTR __Dest$[ebp]
  00010	83 45 10 1c	 add	 DWORD PTR __Dest$[ebp], 28 ; 0000001cH
  00014	8b f0		 mov	 esi, eax
  00016	6a 07		 push	 7
  00018	83 c0 1c	 add	 eax, 28			; 0000001cH
  0001b	59		 pop	 ecx
  0001c	f3 a5		 rep movsd
  0001e	3b 45 0c	 cmp	 eax, DWORD PTR __Last$[ebp]
  00021	75 ea		 jne	 SHORT $LL3@Move
  00023	5f		 pop	 edi
  00024	5e		 pop	 esi
$LN10@Move:

; 2515 : 	return (_Dest);

  00025	8b 45 10	 mov	 eax, DWORD PTR __Dest$[ebp]

; 2516 : 	}

  00028	5d		 pop	 ebp
  00029	c3		 ret	 0
??$_Move@PAUChangeDirInfo@@PAU1@@std@@YAPAUChangeDirInfo@@PAU1@00U_Nonscalar_ptr_iterator_tag@0@@Z ENDP ; std::_Move<ChangeDirInfo *,ChangeDirInfo *>
_TEXT	ENDS
PUBLIC	?destroy@?$allocator@UChangeDirInfo@@@std@@QAEXPAUChangeDirInfo@@@Z ; std::allocator<ChangeDirInfo>::destroy
; Function compile flags: /Ogsp
; File c:\program files (x86)\microsoft visual studio 10.0\vc\include\xmemory
;	COMDAT ?destroy@?$allocator@UChangeDirInfo@@@std@@QAEXPAUChangeDirInfo@@@Z
_TEXT	SEGMENT
__Ptr$ = 8						; size = 4
?destroy@?$allocator@UChangeDirInfo@@@std@@QAEXPAUChangeDirInfo@@@Z PROC ; std::allocator<ChangeDirInfo>::destroy, COMDAT
; _this$ = ecx

; 213  : 		_Destroy(_Ptr);
; 214  : 		}

  00000	c2 04 00	 ret	 4
?destroy@?$allocator@UChangeDirInfo@@@std@@QAEXPAUChangeDirInfo@@@Z ENDP ; std::allocator<ChangeDirInfo>::destroy
_TEXT	ENDS
PUBLIC	??$?0AAPAUChangeDirInfo@@AAPAU0@@?$pair@PAUChangeDirInfo@@PAU1@@std@@QAE@AAPAUChangeDirInfo@@0@Z ; std::pair<ChangeDirInfo *,ChangeDirInfo *>::pair<ChangeDirInfo *,ChangeDirInfo *><ChangeDirInfo * &,ChangeDirInfo * &>
; Function compile flags: /Ogsp
; File c:\program files (x86)\microsoft visual studio 10.0\vc\include\utility
;	COMDAT ??$?0AAPAUChangeDirInfo@@AAPAU0@@?$pair@PAUChangeDirInfo@@PAU1@@std@@QAE@AAPAUChangeDirInfo@@0@Z
_TEXT	SEGMENT
__Val1$ = 8						; size = 4
__Val2$ = 12						; size = 4
??$?0AAPAUChangeDirInfo@@AAPAU0@@?$pair@PAUChangeDirInfo@@PAU1@@std@@QAE@AAPAUChangeDirInfo@@0@Z PROC ; std::pair<ChangeDirInfo *,ChangeDirInfo *>::pair<ChangeDirInfo *,ChangeDirInfo *><ChangeDirInfo * &,ChangeDirInfo * &>, COMDAT
; _this$ = ecx

; 247  : 		{	// construct from moved values

  00000	55		 push	 ebp
  00001	8b ec		 mov	 ebp, esp
  00003	8b c1		 mov	 eax, ecx
  00005	8b 4d 08	 mov	 ecx, DWORD PTR __Val1$[ebp]
  00008	8b 09		 mov	 ecx, DWORD PTR [ecx]
  0000a	89 08		 mov	 DWORD PTR [eax], ecx
  0000c	8b 4d 0c	 mov	 ecx, DWORD PTR __Val2$[ebp]
  0000f	8b 09		 mov	 ecx, DWORD PTR [ecx]
  00011	89 48 04	 mov	 DWORD PTR [eax+4], ecx

; 248  : 		}

  00014	5d		 pop	 ebp
  00015	c2 08 00	 ret	 8
??$?0AAPAUChangeDirInfo@@AAPAU0@@?$pair@PAUChangeDirInfo@@PAU1@@std@@QAE@AAPAUChangeDirInfo@@0@Z ENDP ; std::pair<ChangeDirInfo *,ChangeDirInfo *>::pair<ChangeDirInfo *,ChangeDirInfo *><ChangeDirInfo * &,ChangeDirInfo * &>
_TEXT	ENDS
PUBLIC	?construct@?$allocator@VioHashString@@@std@@QAEXPAVioHashString@@$$QAV3@@Z ; std::allocator<ioHashString>::construct
;	COMDAT xdata$x
xdata$x	SEGMENT
__unwindtable$?construct@?$allocator@VioHashString@@@std@@QAEXPAVioHashString@@$$QAV3@@Z DD 0ffffffffH
	DD	FLAT:__unwindfunclet$?construct@?$allocator@VioHashString@@@std@@QAEXPAVioHashString@@$$QAV3@@Z$0
__ehfuncinfo$?construct@?$allocator@VioHashString@@@std@@QAEXPAVioHashString@@$$QAV3@@Z DD 019930522H
	DD	01H
	DD	FLAT:__unwindtable$?construct@?$allocator@VioHashString@@@std@@QAEXPAVioHashString@@$$QAV3@@Z
	DD	2 DUP(00H)
	DD	2 DUP(00H)
	DD	00H
	DD	01H
; Function compile flags: /Ogsp
; File c:\program files (x86)\microsoft visual studio 10.0\vc\include\xmemory
xdata$x	ENDS
;	COMDAT ?construct@?$allocator@VioHashString@@@std@@QAEXPAVioHashString@@$$QAV3@@Z
_TEXT	SEGMENT
$T536784 = -16						; size = 4
__$EHRec$ = -12						; size = 12
__Ptr$ = 8						; size = 4
__Val$ = 12						; size = 4
?construct@?$allocator@VioHashString@@@std@@QAEXPAVioHashString@@$$QAV3@@Z PROC ; std::allocator<ioHashString>::construct, COMDAT
; _this$ = ecx

; 201  : 		{	// construct object at _Ptr with value _Val

  00000	6a 04		 push	 4
  00002	b8 00 00 00 00	 mov	 eax, __ehhandler$?construct@?$allocator@VioHashString@@@std@@QAEXPAVioHashString@@$$QAV3@@Z
  00007	e8 00 00 00 00	 call	 __EH_prolog3

; 202  : 		::new ((void _FARQ *)_Ptr) _Ty(_STD forward<_Ty>(_Val));

  0000c	8b 4d 08	 mov	 ecx, DWORD PTR __Ptr$[ebp]
  0000f	89 4d f0	 mov	 DWORD PTR $T536784[ebp], ecx
  00012	83 65 fc 00	 and	 DWORD PTR __$EHRec$[ebp+8], 0
  00016	85 c9		 test	 ecx, ecx
  00018	74 09		 je	 SHORT $LN3@construct@4
  0001a	ff 75 0c	 push	 DWORD PTR __Val$[ebp]
  0001d	ff 15 00 00 00
	00		 call	 DWORD PTR __imp_??0ioHashString@@QAE@ABV0@@Z
$LN3@construct@4:

; 203  : 		}

  00023	e8 00 00 00 00	 call	 __EH_epilog3
  00028	c2 08 00	 ret	 8
_TEXT	ENDS
;	COMDAT text$x
text$x	SEGMENT
__unwindfunclet$?construct@?$allocator@VioHashString@@@std@@QAEXPAVioHashString@@$$QAV3@@Z$0:
  00000	ff 75 08	 push	 DWORD PTR __Ptr$[ebp]
  00003	ff 75 f0	 push	 DWORD PTR $T536784[ebp]
  00006	e8 00 00 00 00	 call	 ??3@YAXPAX0@Z		; operator delete
  0000b	59		 pop	 ecx
  0000c	59		 pop	 ecx
  0000d	c3		 ret	 0
__ehhandler$?construct@?$allocator@VioHashString@@@std@@QAEXPAVioHashString@@$$QAV3@@Z:
  0000e	8b 54 24 08	 mov	 edx, DWORD PTR [esp+8]
  00012	8d 42 0c	 lea	 eax, DWORD PTR [edx+12]
  00015	8b 4a ec	 mov	 ecx, DWORD PTR [edx-20]
  00018	33 c8		 xor	 ecx, eax
  0001a	e8 00 00 00 00	 call	 @__security_check_cookie@4
  0001f	b8 00 00 00 00	 mov	 eax, OFFSET __ehfuncinfo$?construct@?$allocator@VioHashString@@@std@@QAEXPAVioHashString@@$$QAV3@@Z
  00024	e9 00 00 00 00	 jmp	 ___CxxFrameHandler3
text$x	ENDS
?construct@?$allocator@VioHashString@@@std@@QAEXPAVioHashString@@$$QAV3@@Z ENDP ; std::allocator<ioHashString>::construct
PUBLIC	?construct@?$allocator@UChangeDirInfo@@@std@@QAEXPAUChangeDirInfo@@$$QAU3@@Z ; std::allocator<ChangeDirInfo>::construct
; Function compile flags: /Ogsp
;	COMDAT ?construct@?$allocator@UChangeDirInfo@@@std@@QAEXPAUChangeDirInfo@@$$QAU3@@Z
_TEXT	SEGMENT
__Ptr$ = 8						; size = 4
__Val$ = 12						; size = 4
?construct@?$allocator@UChangeDirInfo@@@std@@QAEXPAUChangeDirInfo@@$$QAU3@@Z PROC ; std::allocator<ChangeDirInfo>::construct, COMDAT
; _this$ = ecx

; 201  : 		{	// construct object at _Ptr with value _Val

  00000	55		 push	 ebp
  00001	8b ec		 mov	 ebp, esp
  00003	57		 push	 edi

; 202  : 		::new ((void _FARQ *)_Ptr) _Ty(_STD forward<_Ty>(_Val));

  00004	8b 7d 08	 mov	 edi, DWORD PTR __Ptr$[ebp]
  00007	85 ff		 test	 edi, edi
  00009	74 0a		 je	 SHORT $LN3@construct@5
  0000b	56		 push	 esi
  0000c	8b 75 0c	 mov	 esi, DWORD PTR __Val$[ebp]
  0000f	6a 07		 push	 7
  00011	59		 pop	 ecx
  00012	f3 a5		 rep movsd
  00014	5e		 pop	 esi
$LN3@construct@5:
  00015	5f		 pop	 edi

; 203  : 		}

  00016	5d		 pop	 ebp
  00017	c2 08 00	 ret	 8
?construct@?$allocator@UChangeDirInfo@@@std@@QAEXPAUChangeDirInfo@@$$QAU3@@Z ENDP ; std::allocator<ChangeDirInfo>::construct
_TEXT	ENDS
PUBLIC	??$swap@UChangeDirInfo@@@std@@YAXAAUChangeDirInfo@@0@Z ; std::swap<ChangeDirInfo>
; Function compile flags: /Ogsp
; File c:\program files (x86)\microsoft visual studio 10.0\vc\include\utility
;	COMDAT ??$swap@UChangeDirInfo@@@std@@YAXAAUChangeDirInfo@@0@Z
_TEXT	SEGMENT
__Tmp$ = -28						; size = 28
__Left$ = 8						; size = 4
__Right$ = 12						; size = 4
??$swap@UChangeDirInfo@@@std@@YAXAAUChangeDirInfo@@0@Z PROC ; std::swap<ChangeDirInfo>, COMDAT

; 101  : 	{	// exchange values stored at _Left and _Right

  00000	55		 push	 ebp
  00001	8b ec		 mov	 ebp, esp
  00003	83 ec 1c	 sub	 esp, 28			; 0000001cH
  00006	56		 push	 esi

; 102  : 	_Ty _Tmp = _Move(_Left);

  00007	8b 75 08	 mov	 esi, DWORD PTR __Left$[ebp]
  0000a	57		 push	 edi
  0000b	6a 07		 push	 7
  0000d	59		 pop	 ecx

; 103  : 	_Left = _Move(_Right);

  0000e	6a 07		 push	 7
  00010	8d 7d e4	 lea	 edi, DWORD PTR __Tmp$[ebp]
  00013	f3 a5		 rep movsd
  00015	8b 75 0c	 mov	 esi, DWORD PTR __Right$[ebp]
  00018	8b 7d 08	 mov	 edi, DWORD PTR __Left$[ebp]
  0001b	59		 pop	 ecx
  0001c	f3 a5		 rep movsd

; 104  : 	_Right = _Move(_Tmp);

  0001e	8b 7d 0c	 mov	 edi, DWORD PTR __Right$[ebp]
  00021	6a 07		 push	 7
  00023	59		 pop	 ecx
  00024	8d 75 e4	 lea	 esi, DWORD PTR __Tmp$[ebp]
  00027	f3 a5		 rep movsd
  00029	5f		 pop	 edi
  0002a	5e		 pop	 esi

; 105  : 	}

  0002b	c9		 leave
  0002c	c3		 ret	 0
??$swap@UChangeDirInfo@@@std@@YAXAAUChangeDirInfo@@0@Z ENDP ; std::swap<ChangeDirInfo>
_TEXT	ENDS
PUBLIC	??$_Move_backward@PAUChangeDirInfo@@PAU1@@std@@YAPAUChangeDirInfo@@PAU1@00@Z ; std::_Move_backward<ChangeDirInfo *,ChangeDirInfo *>
; Function compile flags: /Ogsp
; File c:\program files (x86)\microsoft visual studio 10.0\vc\include\xutility
;	COMDAT ??$_Move_backward@PAUChangeDirInfo@@PAU1@@std@@YAPAUChangeDirInfo@@PAU1@00@Z
_TEXT	SEGMENT
__Cat$536830 = -4					; size = 1
__First$ = 8						; size = 4
__Last$ = 12						; size = 4
__Dest$ = 16						; size = 4
??$_Move_backward@PAUChangeDirInfo@@PAU1@@std@@YAPAUChangeDirInfo@@PAU1@00@Z PROC ; std::_Move_backward<ChangeDirInfo *,ChangeDirInfo *>, COMDAT

; 2638 : 	{	// move [_First, _Last) backwards to [..., _Dest), unchecked

  00000	55		 push	 ebp
  00001	8b ec		 mov	 ebp, esp
  00003	51		 push	 ecx

; 2639 : 	return (_Move_backward(_First, _Last,
; 2640 : 		_Dest, _Ptr_cat(_First, _Dest)));

  00004	ff 75 fc	 push	 DWORD PTR __Cat$536830[ebp]
  00007	ff 75 10	 push	 DWORD PTR __Dest$[ebp]
  0000a	ff 75 0c	 push	 DWORD PTR __Last$[ebp]
  0000d	ff 75 08	 push	 DWORD PTR __First$[ebp]
  00010	e8 00 00 00 00	 call	 ??$_Move_backward@PAUChangeDirInfo@@PAU1@@std@@YAPAUChangeDirInfo@@PAU1@00U_Nonscalar_ptr_iterator_tag@0@@Z ; std::_Move_backward<ChangeDirInfo *,ChangeDirInfo *>
  00015	83 c4 10	 add	 esp, 16			; 00000010H

; 2641 : 	}

  00018	c9		 leave
  00019	c3		 ret	 0
??$_Move_backward@PAUChangeDirInfo@@PAU1@@std@@YAPAUChangeDirInfo@@PAU1@00@Z ENDP ; std::_Move_backward<ChangeDirInfo *,ChangeDirInfo *>
_TEXT	ENDS
PUBLIC	??$_Push_heap@PAUChangeDirInfo@@HU1@VChangeDirSort@@@std@@YAXPAUChangeDirInfo@@HH$$QAU1@VChangeDirSort@@@Z ; std::_Push_heap<ChangeDirInfo *,int,ChangeDirInfo,ChangeDirSort>
; Function compile flags: /Ogsp
; File c:\program files (x86)\microsoft visual studio 10.0\vc\include\algorithm
;	COMDAT ??$_Push_heap@PAUChangeDirInfo@@HU1@VChangeDirSort@@@std@@YAXPAUChangeDirInfo@@HH$$QAU1@VChangeDirSort@@@Z
_TEXT	SEGMENT
__First$ = 8						; size = 4
__Hole$ = 12						; size = 4
__Top$ = 16						; size = 4
__Val$ = 20						; size = 4
__Pred$ = 24						; size = 1
??$_Push_heap@PAUChangeDirInfo@@HU1@VChangeDirSort@@@std@@YAXPAUChangeDirInfo@@HH$$QAU1@VChangeDirSort@@@Z PROC ; std::_Push_heap<ChangeDirInfo *,int,ChangeDirInfo,ChangeDirSort>, COMDAT

; 2455 : 	{	// percolate _Hole to _Top or where _Val belongs, using operator<

  00000	55		 push	 ebp
  00001	8b ec		 mov	 ebp, esp
  00003	53		 push	 ebx

; 2456 : 	for (_Diff _Idx = (_Hole - 1) / 2;
; 2457 : 		_Top < _Hole && _DEBUG_LT_PRED(_Pred, *(_First + _Idx), _Val);
; 2458 : 		_Idx = (_Hole - 1) / 2)

  00004	8b 5d 08	 mov	 ebx, DWORD PTR __First$[ebp]
  00007	56		 push	 esi
  00008	57		 push	 edi
  00009	8b 7d 0c	 mov	 edi, DWORD PTR __Hole$[ebp]
  0000c	8d 47 ff	 lea	 eax, DWORD PTR [edi-1]
  0000f	99		 cdq
  00010	2b c2		 sub	 eax, edx
  00012	8b d0		 mov	 edx, eax
  00014	d1 fa		 sar	 edx, 1
  00016	eb 5a		 jmp	 SHORT $LN19@Push_heap
$LL3@Push_heap:
  00018	8b 4d 14	 mov	 ecx, DWORD PTR __Val$[ebp]
  0001b	f3 0f 10 09	 movss	 xmm1, DWORD PTR [ecx]
  0001f	8b f2		 mov	 esi, edx
  00021	6b f6 1c	 imul	 esi, 28			; 0000001cH
  00024	03 f3		 add	 esi, ebx
  00026	f3 0f 10 06	 movss	 xmm0, DWORD PTR [esi]
  0002a	0f 5a d0	 cvtps2pd xmm2, xmm0
  0002d	0f 5a d9	 cvtps2pd xmm3, xmm1
  00030	66 0f 2f da	 comisd	 xmm3, xmm2
  00034	77 26		 ja	 SHORT $LN18@Push_heap
  00036	0f 5a c0	 cvtps2pd xmm0, xmm0
  00039	0f 5a c9	 cvtps2pd xmm1, xmm1
  0003c	66 0f 2e c1	 ucomisd xmm0, xmm1
  00040	9f		 lahf
  00041	f6 c4 44	 test	 ah, 68			; 00000044H
  00044	7a 31		 jp	 SHORT $LN6@Push_heap
  00046	f3 0f 10 46 0c	 movss	 xmm0, DWORD PTR [esi+12]
  0004b	f3 0f 10 49 0c	 movss	 xmm1, DWORD PTR [ecx+12]
  00050	0f 5a c0	 cvtps2pd xmm0, xmm0
  00053	0f 5a c9	 cvtps2pd xmm1, xmm1
  00056	66 0f 2f c8	 comisd	 xmm1, xmm0
  0005a	76 1b		 jbe	 SHORT $LN6@Push_heap
$LN18@Push_heap:

; 2459 : 		{	// move _Hole up to parent
; 2460 : 		*(_First + _Hole) = _Move(*(_First + _Idx));

  0005c	6b ff 1c	 imul	 edi, 28			; 0000001cH
  0005f	03 fb		 add	 edi, ebx
  00061	6a 07		 push	 7
  00063	59		 pop	 ecx
  00064	8d 42 ff	 lea	 eax, DWORD PTR [edx-1]
  00067	f3 a5		 rep movsd

; 2461 : 		_Hole = _Idx;

  00069	8b fa		 mov	 edi, edx
  0006b	99		 cdq
  0006c	2b c2		 sub	 eax, edx
  0006e	d1 f8		 sar	 eax, 1
  00070	8b d0		 mov	 edx, eax
$LN19@Push_heap:

; 2456 : 	for (_Diff _Idx = (_Hole - 1) / 2;
; 2457 : 		_Top < _Hole && _DEBUG_LT_PRED(_Pred, *(_First + _Idx), _Val);
; 2458 : 		_Idx = (_Hole - 1) / 2)

  00072	39 7d 10	 cmp	 DWORD PTR __Top$[ebp], edi
  00075	7c a1		 jl	 SHORT $LL3@Push_heap
$LN6@Push_heap:

; 2462 : 		}
; 2463 : 
; 2464 : 	*(_First + _Hole) = _Move(_Val);	// drop _Val into final hole

  00077	8b 75 14	 mov	 esi, DWORD PTR __Val$[ebp]
  0007a	6b ff 1c	 imul	 edi, 28			; 0000001cH
  0007d	6a 07		 push	 7
  0007f	59		 pop	 ecx
  00080	03 fb		 add	 edi, ebx
  00082	f3 a5		 rep movsd
  00084	5f		 pop	 edi
  00085	5e		 pop	 esi
  00086	5b		 pop	 ebx

; 2465 : 	}

  00087	5d		 pop	 ebp
  00088	c3		 ret	 0
??$_Push_heap@PAUChangeDirInfo@@HU1@VChangeDirSort@@@std@@YAXPAUChangeDirInfo@@HH$$QAU1@VChangeDirSort@@@Z ENDP ; std::_Push_heap<ChangeDirInfo *,int,ChangeDirInfo,ChangeDirSort>
_TEXT	ENDS
PUBLIC	??0?$CEncrypt@M@@QAE@XZ				; CEncrypt<float>::CEncrypt<float>
EXTRN	??0ccddaabb@@QAE@XZ:PROC			; ccddaabb::ccddaabb
;	COMDAT xdata$x
; File d:\lost saga for developer\youtube\tutorial\source\src\lsclient\encryptvalue.h
xdata$x	SEGMENT
__unwindtable$??0?$CEncrypt@M@@QAE@XZ DD 0ffffffffH
	DD	FLAT:__unwindfunclet$??0?$CEncrypt@M@@QAE@XZ$0
__ehfuncinfo$??0?$CEncrypt@M@@QAE@XZ DD 019930522H
	DD	01H
	DD	FLAT:__unwindtable$??0?$CEncrypt@M@@QAE@XZ
	DD	2 DUP(00H)
	DD	2 DUP(00H)
	DD	00H
	DD	01H
; Function compile flags: /Ogsp
xdata$x	ENDS
;	COMDAT ??0?$CEncrypt@M@@QAE@XZ
_TEXT	SEGMENT
_this$ = -16						; size = 4
__$EHRec$ = -12						; size = 12
??0?$CEncrypt@M@@QAE@XZ PROC				; CEncrypt<float>::CEncrypt<float>, COMDAT
; _this$ = ecx

; 109  : 	CEncrypt()

  00000	6a 04		 push	 4
  00002	b8 00 00 00 00	 mov	 eax, __ehhandler$??0?$CEncrypt@M@@QAE@XZ
  00007	e8 00 00 00 00	 call	 __EH_prolog3
  0000c	8b f1		 mov	 esi, ecx
  0000e	89 75 f0	 mov	 DWORD PTR _this$[ebp], esi
  00011	8d 4e 0c	 lea	 ecx, DWORD PTR [esi+12]
  00014	c7 06 00 00 00
	00		 mov	 DWORD PTR [esi], OFFSET ??_7?$CEncrypt@M@@6B@
  0001a	e8 00 00 00 00	 call	 ??0ccddaabb@@QAE@XZ	; ccddaabb::ccddaabb
  0001f	83 65 fc 00	 and	 DWORD PTR __$EHRec$[ebp+8], 0

; 110  : 	{
; 111  : 		Init();

  00023	8b ce		 mov	 ecx, esi
  00025	e8 00 00 00 00	 call	 ?Init@?$CEncrypt@M@@AAEXXZ ; CEncrypt<float>::Init

; 112  : 	}

  0002a	8b c6		 mov	 eax, esi
  0002c	e8 00 00 00 00	 call	 __EH_epilog3
  00031	c3		 ret	 0
_TEXT	ENDS
;	COMDAT text$x
text$x	SEGMENT
__unwindfunclet$??0?$CEncrypt@M@@QAE@XZ$0:
  00000	8b 4d f0	 mov	 ecx, DWORD PTR _this$[ebp]
  00003	83 c1 0c	 add	 ecx, 12			; 0000000cH
  00006	e9 00 00 00 00	 jmp	 ??1ccddaabb@@UAE@XZ	; ccddaabb::~ccddaabb
__ehhandler$??0?$CEncrypt@M@@QAE@XZ:
  0000b	8b 54 24 08	 mov	 edx, DWORD PTR [esp+8]
  0000f	8d 42 0c	 lea	 eax, DWORD PTR [edx+12]
  00012	8b 4a ec	 mov	 ecx, DWORD PTR [edx-20]
  00015	33 c8		 xor	 ecx, eax
  00017	e8 00 00 00 00	 call	 @__security_check_cookie@4
  0001c	b8 00 00 00 00	 mov	 eax, OFFSET __ehfuncinfo$??0?$CEncrypt@M@@QAE@XZ
  00021	e9 00 00 00 00	 jmp	 ___CxxFrameHandler3
text$x	ENDS
??0?$CEncrypt@M@@QAE@XZ ENDP				; CEncrypt<float>::CEncrypt<float>
PUBLIC	??B?$CEncrypt@M@@QAEMXZ				; CEncrypt<float>::operator float
; Function compile flags: /Ogsp
;	COMDAT ??B?$CEncrypt@M@@QAEMXZ
_TEXT	SEGMENT
_value$ = -4						; size = 4
??B?$CEncrypt@M@@QAEMXZ PROC				; CEncrypt<float>::operator float, COMDAT
; _this$ = ecx

; 134  : 	{

  00000	55		 push	 ebp
  00001	8b ec		 mov	 ebp, esp
  00003	51		 push	 ecx

; 135  : 		type value;
; 136  : 		DecryptValueToPool(&value);

  00004	8d 45 fc	 lea	 eax, DWORD PTR _value$[ebp]
  00007	50		 push	 eax
  00008	e8 00 00 00 00	 call	 ?DecryptValueToPool@?$CEncrypt@M@@QAEXPAM@Z ; CEncrypt<float>::DecryptValueToPool

; 137  : 
; 138  : #ifdef _NOTUSE
; 139  : 		Debug();
; 140  : #endif
; 141  : 		return value;

  0000d	d9 45 fc	 fld	 DWORD PTR _value$[ebp]

; 142  : 	}

  00010	c9		 leave
  00011	c3		 ret	 0
??B?$CEncrypt@M@@QAEMXZ ENDP				; CEncrypt<float>::operator float
_TEXT	ENDS
PUBLIC	??4?$CEncrypt@M@@QAEMM@Z			; CEncrypt<float>::operator=
; Function compile flags: /Ogsp
;	COMDAT ??4?$CEncrypt@M@@QAEMM@Z
_TEXT	SEGMENT
_value$ = 8						; size = 4
_inValue$ = 8						; size = 4
??4?$CEncrypt@M@@QAEMM@Z PROC				; CEncrypt<float>::operator=, COMDAT
; _this$ = ecx

; 1654 : 	{	

  00000	55		 push	 ebp
  00001	8b ec		 mov	 ebp, esp

; 1655 : 		type value = inValue;

  00003	d9 45 08	 fld	 DWORD PTR _inValue$[ebp]

; 1656 : 		EncryptValueToPool((char*)&value);

  00006	8d 45 08	 lea	 eax, DWORD PTR _value$[ebp]
  00009	50		 push	 eax
  0000a	d9 5d 08	 fstp	 DWORD PTR _value$[ebp]
  0000d	e8 00 00 00 00	 call	 ?EncryptValueToPool@?$CEncrypt@M@@AAEXPBD@Z ; CEncrypt<float>::EncryptValueToPool

; 1657 : #ifdef _NOTUSE
; 1658 : 		m_value = inValue;
; 1659 : 		Debug();
; 1660 : #endif
; 1661 : 		return value;

  00012	d9 45 08	 fld	 DWORD PTR _value$[ebp]

; 1662 : 	}

  00015	5d		 pop	 ebp
  00016	c2 04 00	 ret	 4
??4?$CEncrypt@M@@QAEMM@Z ENDP				; CEncrypt<float>::operator=
_TEXT	ENDS
PUBLIC	??O?$CEncrypt@M@@QAE_NABM@Z			; CEncrypt<float>::operator>
; Function compile flags: /Ogsp
;	COMDAT ??O?$CEncrypt@M@@QAE_NABM@Z
_TEXT	SEGMENT
_value$ = -4						; size = 4
_inValue$ = 8						; size = 4
??O?$CEncrypt@M@@QAE_NABM@Z PROC			; CEncrypt<float>::operator>, COMDAT
; _this$ = ecx

; 1811 : 	{

  00000	55		 push	 ebp
  00001	8b ec		 mov	 ebp, esp
  00003	51		 push	 ecx

; 1812 : 		type value;
; 1813 : 		DecryptValueToPool(&value);

  00004	8d 45 fc	 lea	 eax, DWORD PTR _value$[ebp]
  00007	50		 push	 eax
  00008	e8 00 00 00 00	 call	 ?DecryptValueToPool@?$CEncrypt@M@@QAEXPAM@Z ; CEncrypt<float>::DecryptValueToPool

; 1814 : #ifdef _NOTUSE
; 1815 : 		Debug();
; 1816 : #endif
; 1817 : 		return (value > inValue);

  0000d	8b 45 08	 mov	 eax, DWORD PTR _inValue$[ebp]
  00010	f3 0f 10 08	 movss	 xmm1, DWORD PTR [eax]
  00014	f3 0f 10 45 fc	 movss	 xmm0, DWORD PTR _value$[ebp]
  00019	0f 5a c0	 cvtps2pd xmm0, xmm0
  0001c	0f 5a c9	 cvtps2pd xmm1, xmm1
  0001f	33 c0		 xor	 eax, eax
  00021	66 0f 2f c1	 comisd	 xmm0, xmm1
  00025	76 01		 jbe	 SHORT $LN4@operator@3
  00027	40		 inc	 eax
$LN4@operator@3:

; 1818 : 	}		

  00028	c9		 leave
  00029	c2 04 00	 ret	 4
??O?$CEncrypt@M@@QAE_NABM@Z ENDP			; CEncrypt<float>::operator>
_TEXT	ENDS
PUBLIC	??0?$CEncrypt@K@@QAE@XZ				; CEncrypt<unsigned long>::CEncrypt<unsigned long>
;	COMDAT xdata$x
xdata$x	SEGMENT
__unwindtable$??0?$CEncrypt@K@@QAE@XZ DD 0ffffffffH
	DD	FLAT:__unwindfunclet$??0?$CEncrypt@K@@QAE@XZ$0
__ehfuncinfo$??0?$CEncrypt@K@@QAE@XZ DD 019930522H
	DD	01H
	DD	FLAT:__unwindtable$??0?$CEncrypt@K@@QAE@XZ
	DD	2 DUP(00H)
	DD	2 DUP(00H)
	DD	00H
	DD	01H
; Function compile flags: /Ogsp
xdata$x	ENDS
;	COMDAT ??0?$CEncrypt@K@@QAE@XZ
_TEXT	SEGMENT
_this$ = -16						; size = 4
__$EHRec$ = -12						; size = 12
??0?$CEncrypt@K@@QAE@XZ PROC				; CEncrypt<unsigned long>::CEncrypt<unsigned long>, COMDAT
; _this$ = ecx

; 109  : 	CEncrypt()

  00000	6a 04		 push	 4
  00002	b8 00 00 00 00	 mov	 eax, __ehhandler$??0?$CEncrypt@K@@QAE@XZ
  00007	e8 00 00 00 00	 call	 __EH_prolog3
  0000c	8b f1		 mov	 esi, ecx
  0000e	89 75 f0	 mov	 DWORD PTR _this$[ebp], esi
  00011	8d 4e 0c	 lea	 ecx, DWORD PTR [esi+12]
  00014	c7 06 00 00 00
	00		 mov	 DWORD PTR [esi], OFFSET ??_7?$CEncrypt@K@@6B@
  0001a	e8 00 00 00 00	 call	 ??0ccddaabb@@QAE@XZ	; ccddaabb::ccddaabb
  0001f	83 65 fc 00	 and	 DWORD PTR __$EHRec$[ebp+8], 0

; 110  : 	{
; 111  : 		Init();

  00023	8b ce		 mov	 ecx, esi
  00025	e8 00 00 00 00	 call	 ?Init@?$CEncrypt@K@@AAEXXZ ; CEncrypt<unsigned long>::Init

; 112  : 	}

  0002a	8b c6		 mov	 eax, esi
  0002c	e8 00 00 00 00	 call	 __EH_epilog3
  00031	c3		 ret	 0
_TEXT	ENDS
;	COMDAT text$x
text$x	SEGMENT
__unwindfunclet$??0?$CEncrypt@K@@QAE@XZ$0:
  00000	8b 4d f0	 mov	 ecx, DWORD PTR _this$[ebp]
  00003	83 c1 0c	 add	 ecx, 12			; 0000000cH
  00006	e9 00 00 00 00	 jmp	 ??1ccddaabb@@UAE@XZ	; ccddaabb::~ccddaabb
__ehhandler$??0?$CEncrypt@K@@QAE@XZ:
  0000b	8b 54 24 08	 mov	 edx, DWORD PTR [esp+8]
  0000f	8d 42 0c	 lea	 eax, DWORD PTR [edx+12]
  00012	8b 4a ec	 mov	 ecx, DWORD PTR [edx-20]
  00015	33 c8		 xor	 ecx, eax
  00017	e8 00 00 00 00	 call	 @__security_check_cookie@4
  0001c	b8 00 00 00 00	 mov	 eax, OFFSET __ehfuncinfo$??0?$CEncrypt@K@@QAE@XZ
  00021	e9 00 00 00 00	 jmp	 ___CxxFrameHandler3
text$x	ENDS
??0?$CEncrypt@K@@QAE@XZ ENDP				; CEncrypt<unsigned long>::CEncrypt<unsigned long>
PUBLIC	??B?$CEncrypt@K@@QAEKXZ				; CEncrypt<unsigned long>::operator unsigned long
; Function compile flags: /Ogsp
;	COMDAT ??B?$CEncrypt@K@@QAEKXZ
_TEXT	SEGMENT
_value$ = -4						; size = 4
??B?$CEncrypt@K@@QAEKXZ PROC				; CEncrypt<unsigned long>::operator unsigned long, COMDAT
; _this$ = ecx

; 134  : 	{

  00000	55		 push	 ebp
  00001	8b ec		 mov	 ebp, esp
  00003	51		 push	 ecx

; 135  : 		type value;
; 136  : 		DecryptValueToPool(&value);

  00004	8d 45 fc	 lea	 eax, DWORD PTR _value$[ebp]
  00007	50		 push	 eax
  00008	e8 00 00 00 00	 call	 ?DecryptValueToPool@?$CEncrypt@K@@QAEXPAK@Z ; CEncrypt<unsigned long>::DecryptValueToPool

; 137  : 
; 138  : #ifdef _NOTUSE
; 139  : 		Debug();
; 140  : #endif
; 141  : 		return value;

  0000d	8b 45 fc	 mov	 eax, DWORD PTR _value$[ebp]

; 142  : 	}

  00010	c9		 leave
  00011	c3		 ret	 0
??B?$CEncrypt@K@@QAEKXZ ENDP				; CEncrypt<unsigned long>::operator unsigned long
_TEXT	ENDS
PUBLIC	??4?$CEncrypt@K@@QAEKH@Z			; CEncrypt<unsigned long>::operator=
; Function compile flags: /Ogsp
;	COMDAT ??4?$CEncrypt@K@@QAEKH@Z
_TEXT	SEGMENT
_value$ = 8						; size = 4
_inValue$ = 8						; size = 4
??4?$CEncrypt@K@@QAEKH@Z PROC				; CEncrypt<unsigned long>::operator=, COMDAT
; _this$ = ecx

; 843  : 	{

  00000	55		 push	 ebp
  00001	8b ec		 mov	 ebp, esp

; 844  : 		type value = inValue;

  00003	8b 45 08	 mov	 eax, DWORD PTR _inValue$[ebp]
  00006	89 45 08	 mov	 DWORD PTR _value$[ebp], eax

; 845  : 		EncryptValueToPool((char*)&value);

  00009	8d 45 08	 lea	 eax, DWORD PTR _value$[ebp]
  0000c	50		 push	 eax
  0000d	e8 00 00 00 00	 call	 ?EncryptValueToPool@?$CEncrypt@K@@AAEXPBD@Z ; CEncrypt<unsigned long>::EncryptValueToPool

; 846  : #ifdef _NOTUSE
; 847  : 		m_value = inValue;
; 848  : 		Debug();
; 849  : #endif
; 850  : 		return value;

  00012	8b 45 08	 mov	 eax, DWORD PTR _value$[ebp]

; 851  : 	}

  00015	5d		 pop	 ebp
  00016	c2 04 00	 ret	 4
??4?$CEncrypt@K@@QAEKH@Z ENDP				; CEncrypt<unsigned long>::operator=
_TEXT	ENDS
PUBLIC	??4?$CEncrypt@K@@QAEKK@Z			; CEncrypt<unsigned long>::operator=
; Function compile flags: /Ogsp
;	COMDAT ??4?$CEncrypt@K@@QAEKK@Z
_TEXT	SEGMENT
_value$ = 8						; size = 4
_inValue$ = 8						; size = 4
??4?$CEncrypt@K@@QAEKK@Z PROC				; CEncrypt<unsigned long>::operator=, COMDAT
; _this$ = ecx

; 1262 : 	{

  00000	55		 push	 ebp
  00001	8b ec		 mov	 ebp, esp

; 1263 : 		
; 1264 : 		type value = inValue;

  00003	8b 45 08	 mov	 eax, DWORD PTR _inValue$[ebp]
  00006	89 45 08	 mov	 DWORD PTR _value$[ebp], eax

; 1265 : 		EncryptValueToPool((char*)&value);

  00009	8d 45 08	 lea	 eax, DWORD PTR _value$[ebp]
  0000c	50		 push	 eax
  0000d	e8 00 00 00 00	 call	 ?EncryptValueToPool@?$CEncrypt@K@@AAEXPBD@Z ; CEncrypt<unsigned long>::EncryptValueToPool

; 1266 : #ifdef _NOTUSE
; 1267 : 		m_value = inValue;
; 1268 : 		Debug();
; 1269 : #endif
; 1270 : 		return value;

  00012	8b 45 08	 mov	 eax, DWORD PTR _value$[ebp]

; 1271 : 	}

  00015	5d		 pop	 ebp
  00016	c2 04 00	 ret	 4
??4?$CEncrypt@K@@QAEKK@Z ENDP				; CEncrypt<unsigned long>::operator=
_TEXT	ENDS
PUBLIC	??0?$CEncrypt@_N@@QAE@XZ			; CEncrypt<bool>::CEncrypt<bool>
;	COMDAT xdata$x
xdata$x	SEGMENT
__unwindtable$??0?$CEncrypt@_N@@QAE@XZ DD 0ffffffffH
	DD	FLAT:__unwindfunclet$??0?$CEncrypt@_N@@QAE@XZ$0
__ehfuncinfo$??0?$CEncrypt@_N@@QAE@XZ DD 019930522H
	DD	01H
	DD	FLAT:__unwindtable$??0?$CEncrypt@_N@@QAE@XZ
	DD	2 DUP(00H)
	DD	2 DUP(00H)
	DD	00H
	DD	01H
; Function compile flags: /Ogsp
xdata$x	ENDS
;	COMDAT ??0?$CEncrypt@_N@@QAE@XZ
_TEXT	SEGMENT
_this$ = -16						; size = 4
__$EHRec$ = -12						; size = 12
??0?$CEncrypt@_N@@QAE@XZ PROC				; CEncrypt<bool>::CEncrypt<bool>, COMDAT
; _this$ = ecx

; 109  : 	CEncrypt()

  00000	6a 04		 push	 4
  00002	b8 00 00 00 00	 mov	 eax, __ehhandler$??0?$CEncrypt@_N@@QAE@XZ
  00007	e8 00 00 00 00	 call	 __EH_prolog3
  0000c	8b f1		 mov	 esi, ecx
  0000e	89 75 f0	 mov	 DWORD PTR _this$[ebp], esi
  00011	8d 4e 0c	 lea	 ecx, DWORD PTR [esi+12]
  00014	c7 06 00 00 00
	00		 mov	 DWORD PTR [esi], OFFSET ??_7?$CEncrypt@_N@@6B@
  0001a	e8 00 00 00 00	 call	 ??0ccddaabb@@QAE@XZ	; ccddaabb::ccddaabb
  0001f	83 65 fc 00	 and	 DWORD PTR __$EHRec$[ebp+8], 0

; 110  : 	{
; 111  : 		Init();

  00023	8b ce		 mov	 ecx, esi
  00025	e8 00 00 00 00	 call	 ?Init@?$CEncrypt@_N@@AAEXXZ ; CEncrypt<bool>::Init

; 112  : 	}

  0002a	8b c6		 mov	 eax, esi
  0002c	e8 00 00 00 00	 call	 __EH_epilog3
  00031	c3		 ret	 0
_TEXT	ENDS
;	COMDAT text$x
text$x	SEGMENT
__unwindfunclet$??0?$CEncrypt@_N@@QAE@XZ$0:
  00000	8b 4d f0	 mov	 ecx, DWORD PTR _this$[ebp]
  00003	83 c1 0c	 add	 ecx, 12			; 0000000cH
  00006	e9 00 00 00 00	 jmp	 ??1ccddaabb@@UAE@XZ	; ccddaabb::~ccddaabb
__ehhandler$??0?$CEncrypt@_N@@QAE@XZ:
  0000b	8b 54 24 08	 mov	 edx, DWORD PTR [esp+8]
  0000f	8d 42 0c	 lea	 eax, DWORD PTR [edx+12]
  00012	8b 4a ec	 mov	 ecx, DWORD PTR [edx-20]
  00015	33 c8		 xor	 ecx, eax
  00017	e8 00 00 00 00	 call	 @__security_check_cookie@4
  0001c	b8 00 00 00 00	 mov	 eax, OFFSET __ehfuncinfo$??0?$CEncrypt@_N@@QAE@XZ
  00021	e9 00 00 00 00	 jmp	 ___CxxFrameHandler3
text$x	ENDS
??0?$CEncrypt@_N@@QAE@XZ ENDP				; CEncrypt<bool>::CEncrypt<bool>
PUBLIC	??B?$CEncrypt@_N@@QAE_NXZ			; CEncrypt<bool>::operator bool
; Function compile flags: /Ogsp
;	COMDAT ??B?$CEncrypt@_N@@QAE_NXZ
_TEXT	SEGMENT
_value$ = -1						; size = 1
??B?$CEncrypt@_N@@QAE_NXZ PROC				; CEncrypt<bool>::operator bool, COMDAT
; _this$ = ecx

; 134  : 	{

  00000	55		 push	 ebp
  00001	8b ec		 mov	 ebp, esp
  00003	51		 push	 ecx

; 135  : 		type value;
; 136  : 		DecryptValueToPool(&value);

  00004	8d 45 ff	 lea	 eax, DWORD PTR _value$[ebp]
  00007	50		 push	 eax
  00008	e8 00 00 00 00	 call	 ?DecryptValueToPool@?$CEncrypt@_N@@QAEXPA_N@Z ; CEncrypt<bool>::DecryptValueToPool

; 137  : 
; 138  : #ifdef _NOTUSE
; 139  : 		Debug();
; 140  : #endif
; 141  : 		return value;

  0000d	8a 45 ff	 mov	 al, BYTE PTR _value$[ebp]

; 142  : 	}

  00010	c9		 leave
  00011	c3		 ret	 0
??B?$CEncrypt@_N@@QAE_NXZ ENDP				; CEncrypt<bool>::operator bool
_TEXT	ENDS
PUBLIC	??4?$CEncrypt@_N@@QAE_N_N@Z			; CEncrypt<bool>::operator=
; Function compile flags: /Ogsp
;	COMDAT ??4?$CEncrypt@_N@@QAE_N_N@Z
_TEXT	SEGMENT
_inValue$ = 8						; size = 1
_value$ = 11						; size = 1
??4?$CEncrypt@_N@@QAE_N_N@Z PROC			; CEncrypt<bool>::operator=, COMDAT
; _this$ = ecx

; 225  : 	{

  00000	55		 push	 ebp
  00001	8b ec		 mov	 ebp, esp

; 226  : 		type value = inValue;

  00003	8a 45 08	 mov	 al, BYTE PTR _inValue$[ebp]
  00006	88 45 0b	 mov	 BYTE PTR _value$[ebp], al

; 227  : 		EncryptValueToPool((char*)&value);

  00009	8d 45 0b	 lea	 eax, DWORD PTR _value$[ebp]
  0000c	50		 push	 eax
  0000d	e8 00 00 00 00	 call	 ?EncryptValueToPool@?$CEncrypt@_N@@AAEXPBD@Z ; CEncrypt<bool>::EncryptValueToPool

; 228  : #ifdef _NOTUSE
; 229  : 		m_value = inValue;
; 230  : 		Debug();
; 231  : #endif
; 232  : 		return value;

  00012	8a 45 0b	 mov	 al, BYTE PTR _value$[ebp]

; 233  : 	}

  00015	5d		 pop	 ebp
  00016	c2 04 00	 ret	 4
??4?$CEncrypt@_N@@QAE_N_N@Z ENDP			; CEncrypt<bool>::operator=
_TEXT	ENDS
PUBLIC	??0?$_Vector_val@VioHashString@@V?$allocator@VioHashString@@@std@@@std@@QAE@V?$allocator@VioHashString@@@1@@Z ; std::_Vector_val<ioHashString,std::allocator<ioHashString> >::_Vector_val<ioHashString,std::allocator<ioHashString> >
; Function compile flags: /Ogsp
; File c:\program files (x86)\microsoft visual studio 10.0\vc\include\vector
;	COMDAT ??0?$_Vector_val@VioHashString@@V?$allocator@VioHashString@@@std@@@std@@QAE@V?$allocator@VioHashString@@@1@@Z
_TEXT	SEGMENT
__Al$ = 8						; size = 1
??0?$_Vector_val@VioHashString@@V?$allocator@VioHashString@@@std@@@std@@QAE@V?$allocator@VioHashString@@@1@@Z PROC ; std::_Vector_val<ioHashString,std::allocator<ioHashString> >::_Vector_val<ioHashString,std::allocator<ioHashString> >, COMDAT
; _this$ = ecx

; 426  : 		{	// construct allocator from _Al

  00000	8b c1		 mov	 eax, ecx

; 427  : 		_Myfirst = 0;

  00002	33 c9		 xor	 ecx, ecx
  00004	89 08		 mov	 DWORD PTR [eax], ecx

; 428  : 		_Mylast = 0;

  00006	89 48 04	 mov	 DWORD PTR [eax+4], ecx

; 429  : 		_Myend = 0;

  00009	89 48 08	 mov	 DWORD PTR [eax+8], ecx

; 430  : 		}

  0000c	c2 04 00	 ret	 4
??0?$_Vector_val@VioHashString@@V?$allocator@VioHashString@@@std@@@std@@QAE@V?$allocator@VioHashString@@@1@@Z ENDP ; std::_Vector_val<ioHashString,std::allocator<ioHashString> >::_Vector_val<ioHashString,std::allocator<ioHashString> >
_TEXT	ENDS
PUBLIC	?max_size@?$vector@VioHashString@@V?$allocator@VioHashString@@@std@@@std@@QBEIXZ ; std::vector<ioHashString,std::allocator<ioHashString> >::max_size
; Function compile flags: /Ogsp
;	COMDAT ?max_size@?$vector@VioHashString@@V?$allocator@VioHashString@@@std@@@std@@QBEIXZ
_TEXT	SEGMENT
?max_size@?$vector@VioHashString@@V?$allocator@VioHashString@@@std@@@std@@QBEIXZ PROC ; std::vector<ioHashString,std::allocator<ioHashString> >::max_size, COMDAT
; _this$ = ecx

; 884  : 		return (this->_Alval.max_size());

  00000	b8 ff ff ff 0f	 mov	 eax, 268435455		; 0fffffffH

; 885  : 		}

  00005	c3		 ret	 0
?max_size@?$vector@VioHashString@@V?$allocator@VioHashString@@@std@@@std@@QBEIXZ ENDP ; std::vector<ioHashString,std::allocator<ioHashString> >::max_size
_TEXT	ENDS
PUBLIC	?allocate@?$allocator@VioHashString@@@std@@QAEPAVioHashString@@I@Z ; std::allocator<ioHashString>::allocate
; Function compile flags: /Ogsp
; File c:\program files (x86)\microsoft visual studio 10.0\vc\include\xmemory
;	COMDAT ?allocate@?$allocator@VioHashString@@@std@@QAEPAVioHashString@@I@Z
_TEXT	SEGMENT
__Count$ = 8						; size = 4
?allocate@?$allocator@VioHashString@@@std@@QAEPAVioHashString@@I@Z PROC ; std::allocator<ioHashString>::allocate, COMDAT
; _this$ = ecx

; 186  : 		{	// allocate array of _Count elements

  00000	55		 push	 ebp
  00001	8b ec		 mov	 ebp, esp

; 187  : 		return (_Allocate(_Count, (pointer)0));

  00003	6a 00		 push	 0
  00005	ff 75 08	 push	 DWORD PTR __Count$[ebp]
  00008	e8 00 00 00 00	 call	 ??$_Allocate@VioHashString@@@std@@YAPAVioHashString@@IPAV1@@Z ; std::_Allocate<ioHashString>
  0000d	59		 pop	 ecx
  0000e	59		 pop	 ecx

; 188  : 		}

  0000f	5d		 pop	 ebp
  00010	c2 04 00	 ret	 4
?allocate@?$allocator@VioHashString@@@std@@QAEPAVioHashString@@I@Z ENDP ; std::allocator<ioHashString>::allocate
_TEXT	ENDS
PUBLIC	??$_Destroy@VioHashString@@@std@@YAXPAVioHashString@@@Z ; std::_Destroy<ioHashString>
; Function compile flags: /Ogsp
;	COMDAT ??$_Destroy@VioHashString@@@std@@YAXPAVioHashString@@@Z
_TEXT	SEGMENT
__Ptr$ = 8						; size = 4
??$_Destroy@VioHashString@@@std@@YAXPAVioHashString@@@Z PROC ; std::_Destroy<ioHashString>, COMDAT

; 62   : 	{	// destroy object at _Ptr

  00000	55		 push	 ebp
  00001	8b ec		 mov	 ebp, esp

; 63   : 	_Ptr->~_Ty();

  00003	8b 4d 08	 mov	 ecx, DWORD PTR __Ptr$[ebp]

; 64   : 	}

  00006	5d		 pop	 ebp

; 63   : 	_Ptr->~_Ty();

  00007	ff 25 00 00 00
	00		 jmp	 DWORD PTR __imp_??1ioHashString@@QAE@XZ
??$_Destroy@VioHashString@@@std@@YAXPAVioHashString@@@Z ENDP ; std::_Destroy<ioHashString>
_TEXT	ENDS
PUBLIC	?construct@?$allocator@VioHashString@@@std@@QAEXPAVioHashString@@ABV3@@Z ; std::allocator<ioHashString>::construct
; Function compile flags: /Ogsp
;	COMDAT ?construct@?$allocator@VioHashString@@@std@@QAEXPAVioHashString@@ABV3@@Z
_TEXT	SEGMENT
__Ptr$ = 8						; size = 4
__Val$ = 12						; size = 4
?construct@?$allocator@VioHashString@@@std@@QAEXPAVioHashString@@ABV3@@Z PROC ; std::allocator<ioHashString>::construct, COMDAT
; _this$ = ecx

; 196  : 		{	// construct object at _Ptr with value _Val

  00000	55		 push	 ebp
  00001	8b ec		 mov	 ebp, esp

; 197  : 		_Construct(_Ptr, _Val);

  00003	ff 75 0c	 push	 DWORD PTR __Val$[ebp]
  00006	ff 75 08	 push	 DWORD PTR __Ptr$[ebp]
  00009	e8 00 00 00 00	 call	 ??$_Construct@VioHashString@@ABV1@@std@@YAXPAVioHashString@@ABV1@@Z ; std::_Construct<ioHashString,ioHashString const &>
  0000e	59		 pop	 ecx
  0000f	59		 pop	 ecx

; 198  : 		}

  00010	5d		 pop	 ebp
  00011	c2 08 00	 ret	 8
?construct@?$allocator@VioHashString@@@std@@QAEXPAVioHashString@@ABV3@@Z ENDP ; std::allocator<ioHashString>::construct
_TEXT	ENDS
PUBLIC	?InitResource@ioAttachWeapon@@UAE_NXZ		; ioAttachWeapon::InitResource
EXTRN	?InitResource@ioWeapon@@UAE_NXZ:PROC		; ioWeapon::InitResource
; Function compile flags: /Ogsp
; File d:\lost saga for developer\youtube\tutorial\source\src\lsclient\ioattachweapon.cpp
;	COMDAT ?InitResource@ioAttachWeapon@@UAE_NXZ
_TEXT	SEGMENT
?InitResource@ioAttachWeapon@@UAE_NXZ PROC		; ioAttachWeapon::InitResource, COMDAT
; _this$ = ecx

; 90   : {

  00000	56		 push	 esi
  00001	8b f1		 mov	 esi, ecx

; 91   : 	if( ioWeapon::InitResource() )

  00003	e8 00 00 00 00	 call	 ?InitResource@ioWeapon@@UAE_NXZ ; ioWeapon::InitResource
  00008	84 c0		 test	 al, al
  0000a	74 25		 je	 SHORT $LN1@InitResour

; 92   : 	{
; 93   : 		DestroyResource();

  0000c	8b 06		 mov	 eax, DWORD PTR [esi]
  0000e	6a 00		 push	 0
  00010	8b ce		 mov	 ecx, esi
  00012	ff 90 9c 00 00
	00		 call	 DWORD PTR [eax+156]

; 94   : 		return CreateFireBall( GetAttribute()->m_WeaponEffect );

  00018	8b 06		 mov	 eax, DWORD PTR [esi]
  0001a	8b ce		 mov	 ecx, esi
  0001c	ff 90 3c 01 00
	00		 call	 DWORD PTR [eax+316]
  00022	05 34 01 00 00	 add	 eax, 308		; 00000134H
  00027	50		 push	 eax
  00028	8b ce		 mov	 ecx, esi
  0002a	e8 00 00 00 00	 call	 ?CreateFireBall@ioAttachWeapon@@IAE_NABVioHashString@@@Z ; ioAttachWeapon::CreateFireBall
  0002f	5e		 pop	 esi

; 98   : }

  00030	c3		 ret	 0
$LN1@InitResour:

; 95   : 	}
; 96   : 
; 97   : 	return false;

  00031	32 c0		 xor	 al, al
  00033	5e		 pop	 esi

; 98   : }

  00034	c3		 ret	 0
?InitResource@ioAttachWeapon@@UAE_NXZ ENDP		; ioAttachWeapon::InitResource
_TEXT	ENDS
PUBLIC	_pStage$GSCopy$
PUBLIC	__$ArrayPad$
PUBLIC	?OnTracing@ioAttachWeapon@@IAEXPAVioPlayStage@@M@Z ; ioAttachWeapon::OnTracing
EXTRN	__imp_?UNIT_X@ioMath@@2UD3DXVECTOR3@@A:BYTE
EXTRN	_D3DXVec3Normalize@8:PROC
EXTRN	?GetMidPositionByRate@ioGameEntity@@QBE?AUD3DXVECTOR3@@M@Z:PROC ; ioGameEntity::GetMidPositionByRate
EXTRN	?IsEnableTarget@ioBaseChar@@QAE_N_N0@Z:PROC	; ioBaseChar::IsEnableTarget
EXTRN	?IsSystemState@ioBaseChar@@QAE_NXZ:PROC		; ioBaseChar::IsSystemState
; Function compile flags: /Ogsp
;	COMDAT ?OnTracing@ioAttachWeapon@@IAEXPAVioPlayStage@@M@Z
_TEXT	SEGMENT
$T531906 = -244						; size = 12
_v$537204 = -232					; size = 12
_v$537181 = -220					; size = 12
_v$537158 = -208					; size = 12
$T531913 = -196						; size = 12
_v$537247 = -184					; size = 12
_vPreDir$531907 = -172					; size = 12
_value$537038 = -160					; size = 4
tv2535 = -156						; size = 4
tv2527 = -156						; size = 4
tv2421 = -156						; size = 4
_pOwner$ = -152						; size = 4
_value$537059 = -148					; size = 4
_value$537002 = -148					; size = 4
_pStage$GSCopy$ = -144					; size = 4
_value$537087 = -144					; size = 4
_value$537006 = -144					; size = 4
tv2744 = -140						; size = 4
tv2740 = -140						; size = 4
tv2694 = -140						; size = 4
tv2690 = -140						; size = 4
tv2650 = -140						; size = 4
_value$537266 = -140					; size = 4
_value$537042 = -140					; size = 4
tv2620 = -136						; size = 4
_fTimeGap$531888 = -136					; size = 4
tv2736 = -132						; size = 4
tv2685 = -132						; size = 4
_value$536974 = -132					; size = 4
_value$536941 = -132					; size = 4
_fPosRate$531903 = -132					; size = 4
_fRangeSq$531885 = -132					; size = 4
tv2639 = -128						; size = 4
tv2630 = -128						; size = 4
tv2626 = -128						; size = 4
tv2614 = -128						; size = 4
tv2412 = -128						; size = 4
_fGapAngle$531929 = -128				; size = 4
_fCos$531914 = -128					; size = 4
_fCurLoopTimePerSec$531891 = -128			; size = 4
$T531905 = -124						; size = 12
_vAxis$531934 = -112					; size = 12
$T531923 = -100						; size = 12
$T531925 = -88						; size = 12
$T531926 = -76						; size = 12
_vAxis2$531921 = -64					; size = 12
$T531937 = -52						; size = 12
$T531935 = -52						; size = 12
_vCurForce$531908 = -40					; size = 12
$T531883 = -40						; size = 12
_vAxis1$531920 = -28					; size = 12
_vPos$531875 = -28					; size = 12
_vDiff$531882 = -16					; size = 12
_vLength$531877 = -16					; size = 12
__$ArrayPad$ = -4					; size = 4
_pStage$ = 8						; size = 4
_fTimePerSec$ = 12					; size = 4
?OnTracing@ioAttachWeapon@@IAEXPAVioPlayStage@@M@Z PROC	; ioAttachWeapon::OnTracing, COMDAT
; _this$ = ecx

; 366  : {

  00000	55		 push	 ebp
  00001	8b ec		 mov	 ebp, esp
  00003	81 ec f4 00 00
	00		 sub	 esp, 244		; 000000f4H
  00009	a1 00 00 00 00	 mov	 eax, DWORD PTR ___security_cookie
  0000e	33 c5		 xor	 eax, ebp
  00010	89 45 fc	 mov	 DWORD PTR __$ArrayPad$[ebp], eax
  00013	8b 45 08	 mov	 eax, DWORD PTR _pStage$[ebp]
  00016	53		 push	 ebx
  00017	8b d9		 mov	 ebx, ecx

; 387  : 		{
; 388  : 			D3DXVECTOR3 vPos = pOwner->GetMidPositionByRate();

  00019	89 85 70 ff ff
	ff		 mov	 DWORD PTR _pStage$GSCopy$[ebp], eax
  0001f	85 c0		 test	 eax, eax
  00021	0f 84 e0 0b 00
	00		 je	 $LN21@OnTracing

; 367  : 	if( !pStage )
; 368  : 		return;
; 369  : 
; 370  : 	DWORD dwCurTime = FRAMEGETTIME();

  00027	56		 push	 esi
  00028	57		 push	 edi
  00029	ff 15 00 00 00
	00		 call	 DWORD PTR __imp_?GetSingleton@ioFrameTimer@@SAAAV1@XZ
  0002f	8b c8		 mov	 ecx, eax
  00031	ff 15 00 00 00
	00		 call	 DWORD PTR __imp_?GetLoopSec@ioFrameTimer@@QBEKXZ

; 371  : 	ioBaseChar *pOwner = GetOwner();

  00037	8b cb		 mov	 ecx, ebx
  00039	8b f0		 mov	 esi, eax
  0003b	e8 00 00 00 00	 call	 ?GetOwner@ioWeapon@@QBEPAVioBaseChar@@XZ ; ioWeapon::GetOwner
  00040	8b f8		 mov	 edi, eax
  00042	89 bd 68 ff ff
	ff		 mov	 DWORD PTR _pOwner$[ebp], edi

; 372  : 
; 373  : 	bool bTracing = true;
; 374  : 	if( pOwner )

  00048	85 ff		 test	 edi, edi
  0004a	0f 84 09 0b 00
	00		 je	 $LN173@OnTracing

; 375  : 	{
; 376  : 		if( pOwner->IsSystemState() || !pOwner->IsEnableTarget() ) 

  00050	8b cf		 mov	 ecx, edi
  00052	e8 00 00 00 00	 call	 ?IsSystemState@ioBaseChar@@QAE_NXZ ; ioBaseChar::IsSystemState
  00057	84 c0		 test	 al, al
  00059	0f 85 fa 0a 00
	00		 jne	 $LN173@OnTracing
  0005f	6a 01		 push	 1
  00061	6a 01		 push	 1
  00063	8b cf		 mov	 ecx, edi
  00065	e8 00 00 00 00	 call	 ?IsEnableTarget@ioBaseChar@@QAE_N_N0@Z ; ioBaseChar::IsEnableTarget
  0006a	84 c0		 test	 al, al

; 377  : 		{
; 378  : 			bTracing  = false;
; 379  : 		}
; 380  : 
; 381  : 		if( bTracing && m_dwTraceEndTime < dwCurTime )

  0006c	0f 84 e7 0a 00
	00		 je	 $LN173@OnTracing
  00072	39 b3 5c 0a 00
	00		 cmp	 DWORD PTR [ebx+2652], esi

; 382  : 		{
; 383  : 			bTracing = false;
; 384  : 		}
; 385  : 
; 386  : 		if( bTracing && m_fTraceEndRange > 0.0f )

  00078	0f 82 db 0a 00
	00		 jb	 $LN173@OnTracing
  0007e	8d 85 7c ff ff
	ff		 lea	 eax, DWORD PTR _value$536941[ebp]
  00084	50		 push	 eax
  00085	8d 8b d4 09 00
	00		 lea	 ecx, DWORD PTR [ebx+2516]
  0008b	e8 00 00 00 00	 call	 ?DecryptValueToPool@?$CEncrypt@M@@QAEXPAM@Z ; CEncrypt<float>::DecryptValueToPool
  00090	f3 0f 10 85 7c
	ff ff ff	 movss	 xmm0, DWORD PTR _value$536941[ebp]
  00098	0f 2f 05 00 00
	00 00		 comiss	 xmm0, DWORD PTR __real@00000000
  0009f	0f 86 46 01 00
	00		 jbe	 $LN171@OnTracing

; 387  : 		{
; 388  : 			D3DXVECTOR3 vPos = pOwner->GetMidPositionByRate();

  000a5	b8 05 00 00 00	 mov	 eax, 5
  000aa	8b c8		 mov	 ecx, eax
  000ac	b8 0a 00 00 00	 mov	 eax, 10			; 0000000aH
  000b1	89 8d 74 ff ff
	ff		 mov	 DWORD PTR tv2744[ebp], ecx
  000b7	db 85 74 ff ff
	ff		 fild	 DWORD PTR tv2744[ebp]
  000bd	85 c9		 test	 ecx, ecx
  000bf	79 06		 jns	 SHORT $LN177@OnTracing
  000c1	d8 05 00 00 00
	00		 fadd	 DWORD PTR __real@4f800000
$LN177@OnTracing:
  000c7	89 85 74 ff ff
	ff		 mov	 DWORD PTR tv2740[ebp], eax
  000cd	db 85 74 ff ff
	ff		 fild	 DWORD PTR tv2740[ebp]
  000d3	85 c0		 test	 eax, eax
  000d5	79 06		 jns	 SHORT $LN178@OnTracing
  000d7	d8 05 00 00 00
	00		 fadd	 DWORD PTR __real@4f800000
$LN178@OnTracing:
  000dd	de f9		 fdivp	 ST(1), ST(0)
  000df	51		 push	 ecx
  000e0	8d 45 e4	 lea	 eax, DWORD PTR _vPos$531875[ebp]
  000e3	8b cf		 mov	 ecx, edi
  000e5	d9 9d 7c ff ff
	ff		 fstp	 DWORD PTR tv2736[ebp]
  000eb	d9 85 7c ff ff
	ff		 fld	 DWORD PTR tv2736[ebp]
  000f1	d9 1c 24	 fstp	 DWORD PTR [esp]
  000f4	50		 push	 eax
  000f5	e8 00 00 00 00	 call	 ?GetMidPositionByRate@ioGameEntity@@QBE?AUD3DXVECTOR3@@M@Z ; ioGameEntity::GetMidPositionByRate

; 389  : 			D3DXVECTOR3 vLength = vPos - GetPosition();

  000fa	8b 03		 mov	 eax, DWORD PTR [ebx]
  000fc	8b cb		 mov	 ecx, ebx
  000fe	ff 50 70	 call	 DWORD PTR [eax+112]
  00101	f3 0f 10 08	 movss	 xmm1, DWORD PTR [eax]
  00105	f3 0f 10 45 e4	 movss	 xmm0, DWORD PTR _vPos$531875[ebp]
  0010a	0f 5a c0	 cvtps2pd xmm0, xmm0
  0010d	0f 5a c9	 cvtps2pd xmm1, xmm1
  00110	f2 0f 5c c1	 subsd	 xmm0, xmm1
  00114	f3 0f 10 48 04	 movss	 xmm1, DWORD PTR [eax+4]
  00119	66 0f 5a c0	 cvtpd2ps xmm0, xmm0
  0011d	f3 0f 11 45 f0	 movss	 DWORD PTR _vLength$531877[ebp], xmm0
  00122	f3 0f 10 45 e8	 movss	 xmm0, DWORD PTR _vPos$531875[ebp+4]
  00127	0f 5a c0	 cvtps2pd xmm0, xmm0
  0012a	0f 5a c9	 cvtps2pd xmm1, xmm1
  0012d	f2 0f 5c c1	 subsd	 xmm0, xmm1
  00131	f3 0f 10 48 08	 movss	 xmm1, DWORD PTR [eax+8]
  00136	66 0f 5a c0	 cvtpd2ps xmm0, xmm0
  0013a	f3 0f 11 45 f4	 movss	 DWORD PTR _vLength$531877[ebp+4], xmm0
  0013f	f3 0f 10 45 ec	 movss	 xmm0, DWORD PTR _vPos$531875[ebp+8]
  00144	0f 5a c0	 cvtps2pd xmm0, xmm0
  00147	0f 5a c9	 cvtps2pd xmm1, xmm1

; 390  : 			float fLength = D3DXVec3Length( &vLength );
; 391  : 			if( fLength <= m_fTraceEndRange )

  0014a	8d 85 7c ff ff
	ff		 lea	 eax, DWORD PTR _value$536974[ebp]
  00150	f2 0f 5c c1	 subsd	 xmm0, xmm1
  00154	66 0f 5a c0	 cvtpd2ps xmm0, xmm0
  00158	50		 push	 eax
  00159	8d 8b d4 09 00
	00		 lea	 ecx, DWORD PTR [ebx+2516]
  0015f	f3 0f 11 45 f8	 movss	 DWORD PTR _vLength$531877[ebp+8], xmm0
  00164	e8 00 00 00 00	 call	 ?DecryptValueToPool@?$CEncrypt@M@@QAEXPAM@Z ; CEncrypt<float>::DecryptValueToPool
  00169	f3 0f 10 45 f0	 movss	 xmm0, DWORD PTR _vLength$531877[ebp]
  0016e	f3 0f 10 4d f4	 movss	 xmm1, DWORD PTR _vLength$531877[ebp+4]
  00173	f3 0f 10 55 f8	 movss	 xmm2, DWORD PTR _vLength$531877[ebp+8]
  00178	0f 5a c0	 cvtps2pd xmm0, xmm0
  0017b	f2 0f 59 c0	 mulsd	 xmm0, xmm0
  0017f	0f 5a c9	 cvtps2pd xmm1, xmm1
  00182	f2 0f 59 c9	 mulsd	 xmm1, xmm1
  00186	f2 0f 58 c8	 addsd	 xmm1, xmm0
  0018a	0f 57 c0	 xorps	 xmm0, xmm0
  0018d	0f 5a d2	 cvtps2pd xmm2, xmm2
  00190	f2 0f 59 d2	 mulsd	 xmm2, xmm2
  00194	f2 0f 58 ca	 addsd	 xmm1, xmm2
  00198	f2 0f 5a c1	 cvtsd2ss xmm0, xmm1
  0019c	f3 0f 10 8d 7c
	ff ff ff	 movss	 xmm1, DWORD PTR _value$536974[ebp]
  001a4	0f 5a c0	 cvtps2pd xmm0, xmm0
  001a7	f2 0f 51 c0	 sqrtsd	 xmm0, xmm0
  001ab	66 0f 5a c0	 cvtpd2ps xmm0, xmm0
  001af	f3 0f 5a c0	 cvtss2sd xmm0, xmm0
  001b3	0f 5a c9	 cvtps2pd xmm1, xmm1
  001b6	66 0f 2f c8	 comisd	 xmm1, xmm0
  001ba	72 2f		 jb	 SHORT $LN171@OnTracing

; 392  : 			{
; 393  : 				pStage->CreateMapEffect( GetWeaponEndEffect(), GetPosition(), GetScale() );

  001bc	8b cb		 mov	 ecx, ebx
  001be	e8 00 00 00 00	 call	 ?GetScale@ioWeapon@@QBEABUD3DXVECTOR3@@XZ ; ioWeapon::GetScale
  001c3	50		 push	 eax
  001c4	8b 03		 mov	 eax, DWORD PTR [ebx]
  001c6	8b cb		 mov	 ecx, ebx
  001c8	ff 50 70	 call	 DWORD PTR [eax+112]
  001cb	50		 push	 eax
  001cc	8b cb		 mov	 ecx, ebx
  001ce	e8 00 00 00 00	 call	 ?GetWeaponEndEffect@ioWeapon@@QBEABVioHashString@@XZ ; ioWeapon::GetWeaponEndEffect
  001d3	8b 8d 70 ff ff
	ff		 mov	 ecx, DWORD PTR _pStage$GSCopy$[ebp]
  001d9	50		 push	 eax
  001da	e8 00 00 00 00	 call	 ?CreateMapEffect@ioPlayStage@@QAEPAVioMapEffect@@ABVioHashString@@ABUD3DXVECTOR3@@1@Z ; ioPlayStage::CreateMapEffect

; 394  : 				SetWeaponDead();

  001df	8b 03		 mov	 eax, DWORD PTR [ebx]
  001e1	8b cb		 mov	 ecx, ebx
  001e3	ff 50 4c	 call	 DWORD PTR [eax+76]

; 395  : 				return;

  001e6	e9 1a 0a 00 00	 jmp	 $LN175@OnTracing
$LN171@OnTracing:

; 396  : 			}
; 397  : 		}
; 398  : 
; 399  : 		if( bTracing )
; 400  : 		{
; 401  : 			m_vPrePos = GetPosition();

  001eb	8b 03		 mov	 eax, DWORD PTR [ebx]
  001ed	8b cb		 mov	 ecx, ebx
  001ef	ff 50 70	 call	 DWORD PTR [eax+112]
  001f2	8d bb 04 0a 00
	00		 lea	 edi, DWORD PTR [ebx+2564]
  001f8	8b f0		 mov	 esi, eax
  001fa	a5		 movsd
  001fb	a5		 movsd
  001fc	a5		 movsd

; 402  : 			D3DXVECTOR3 vDiff = pOwner->GetMidPositionByRate() - m_vPrePos;

  001fd	b8 05 00 00 00	 mov	 eax, 5
  00202	8b c8		 mov	 ecx, eax
  00204	b8 0a 00 00 00	 mov	 eax, 10			; 0000000aH
  00209	89 8d 74 ff ff
	ff		 mov	 DWORD PTR tv2694[ebp], ecx
  0020f	db 85 74 ff ff
	ff		 fild	 DWORD PTR tv2694[ebp]
  00215	85 c9		 test	 ecx, ecx
  00217	79 06		 jns	 SHORT $LN179@OnTracing
  00219	d8 05 00 00 00
	00		 fadd	 DWORD PTR __real@4f800000
$LN179@OnTracing:
  0021f	89 85 74 ff ff
	ff		 mov	 DWORD PTR tv2690[ebp], eax
  00225	db 85 74 ff ff
	ff		 fild	 DWORD PTR tv2690[ebp]
  0022b	85 c0		 test	 eax, eax
  0022d	79 06		 jns	 SHORT $LN180@OnTracing
  0022f	d8 05 00 00 00
	00		 fadd	 DWORD PTR __real@4f800000
$LN180@OnTracing:
  00235	de f9		 fdivp	 ST(1), ST(0)
  00237	51		 push	 ecx
  00238	8b 8d 68 ff ff
	ff		 mov	 ecx, DWORD PTR _pOwner$[ebp]
  0023e	8d 45 d8	 lea	 eax, DWORD PTR $T531883[ebp]
  00241	d9 9d 7c ff ff
	ff		 fstp	 DWORD PTR tv2685[ebp]
  00247	d9 85 7c ff ff
	ff		 fld	 DWORD PTR tv2685[ebp]
  0024d	d9 1c 24	 fstp	 DWORD PTR [esp]
  00250	50		 push	 eax
  00251	e8 00 00 00 00	 call	 ?GetMidPositionByRate@ioGameEntity@@QBE?AUD3DXVECTOR3@@M@Z ; ioGameEntity::GetMidPositionByRate
  00256	f3 0f 10 40 04	 movss	 xmm0, DWORD PTR [eax+4]
  0025b	f3 0f 10 8b 08
	0a 00 00	 movss	 xmm1, DWORD PTR [ebx+2568]
  00263	f3 0f 10 93 0c
	0a 00 00	 movss	 xmm2, DWORD PTR [ebx+2572]
  0026b	f3 0f 10 9b 04
	0a 00 00	 movss	 xmm3, DWORD PTR [ebx+2564]
  00273	0f 5a c0	 cvtps2pd xmm0, xmm0
  00276	0f 5a c9	 cvtps2pd xmm1, xmm1
  00279	f2 0f 5c c1	 subsd	 xmm0, xmm1
  0027d	f3 0f 10 48 08	 movss	 xmm1, DWORD PTR [eax+8]
  00282	0f 5a d2	 cvtps2pd xmm2, xmm2
  00285	0f 5a c9	 cvtps2pd xmm1, xmm1
  00288	f2 0f 5c ca	 subsd	 xmm1, xmm2
  0028c	f3 0f 10 10	 movss	 xmm2, DWORD PTR [eax]
  00290	66 0f 5a c0	 cvtpd2ps xmm0, xmm0
  00294	0f 5a d2	 cvtps2pd xmm2, xmm2
  00297	f3 0f 11 45 f4	 movss	 DWORD PTR _vDiff$531882[ebp+4], xmm0
  0029c	0f 5a db	 cvtps2pd xmm3, xmm3
  0029f	f2 0f 5c d3	 subsd	 xmm2, xmm3
  002a3	66 0f 5a d2	 cvtpd2ps xmm2, xmm2
  002a7	66 0f 5a c9	 cvtpd2ps xmm1, xmm1

; 403  : 
; 404  : 			float fRangeSq = D3DXVec3LengthSq( & vDiff );

  002ab	f3 0f 5a c0	 cvtss2sd xmm0, xmm0
  002af	f3 0f 11 55 f0	 movss	 DWORD PTR _vDiff$531882[ebp], xmm2
  002b4	f3 0f 11 4d f8	 movss	 DWORD PTR _vDiff$531882[ebp+8], xmm1
  002b9	f2 0f 59 c0	 mulsd	 xmm0, xmm0
  002bd	f3 0f 5a d2	 cvtss2sd xmm2, xmm2
  002c1	f3 0f 5a c9	 cvtss2sd xmm1, xmm1
  002c5	f2 0f 59 d2	 mulsd	 xmm2, xmm2
  002c9	f2 0f 58 c2	 addsd	 xmm0, xmm2
  002cd	f2 0f 59 c9	 mulsd	 xmm1, xmm1

; 405  : 			if( fRangeSq < m_fTraceRange * m_fTraceRange )

  002d1	8d 85 6c ff ff
	ff		 lea	 eax, DWORD PTR _value$537002[ebp]
  002d7	f2 0f 58 c1	 addsd	 xmm0, xmm1
  002db	66 0f 5a c0	 cvtpd2ps xmm0, xmm0
  002df	50		 push	 eax
  002e0	8d 8b 74 09 00
	00		 lea	 ecx, DWORD PTR [ebx+2420]
  002e6	f3 0f 11 85 7c
	ff ff ff	 movss	 DWORD PTR _fRangeSq$531885[ebp], xmm0
  002ee	e8 00 00 00 00	 call	 ?DecryptValueToPool@?$CEncrypt@M@@QAEXPAM@Z ; CEncrypt<float>::DecryptValueToPool
  002f3	8d 85 70 ff ff
	ff		 lea	 eax, DWORD PTR _value$537006[ebp]
  002f9	50		 push	 eax
  002fa	8d 8b 74 09 00
	00		 lea	 ecx, DWORD PTR [ebx+2420]
  00300	e8 00 00 00 00	 call	 ?DecryptValueToPool@?$CEncrypt@M@@QAEXPAM@Z ; CEncrypt<float>::DecryptValueToPool
  00305	f3 0f 10 8d 70
	ff ff ff	 movss	 xmm1, DWORD PTR _value$537006[ebp]
  0030d	f3 0f 10 95 6c
	ff ff ff	 movss	 xmm2, DWORD PTR _value$537002[ebp]
  00315	f3 0f 10 85 7c
	ff ff ff	 movss	 xmm0, DWORD PTR _fRangeSq$531885[ebp]
  0031d	0f 5a c9	 cvtps2pd xmm1, xmm1
  00320	0f 5a d2	 cvtps2pd xmm2, xmm2
  00323	f2 0f 59 ca	 mulsd	 xmm1, xmm2
  00327	66 0f 5a c9	 cvtpd2ps xmm1, xmm1
  0032b	0f 5a c0	 cvtps2pd xmm0, xmm0
  0032e	f3 0f 5a c9	 cvtss2sd xmm1, xmm1
  00332	66 0f 2f c8	 comisd	 xmm1, xmm0
  00336	0f 86 1d 08 00
	00		 jbe	 $LN173@OnTracing

; 406  : 			{
; 407  : 				float fTimeGap = fTimePerSec * FLOAT1000;

  0033c	b8 e8 03 00 00	 mov	 eax, 1000		; 000003e8H
  00341	89 85 74 ff ff
	ff		 mov	 DWORD PTR tv2650[ebp], eax
  00347	db 85 74 ff ff
	ff		 fild	 DWORD PTR tv2650[ebp]
  0034d	85 c0		 test	 eax, eax
  0034f	79 06		 jns	 SHORT $LN181@OnTracing
  00351	d8 05 00 00 00
	00		 fadd	 DWORD PTR __real@4f800000
$LN181@OnTracing:
  00357	d8 4d 0c	 fmul	 DWORD PTR _fTimePerSec$[ebp]
  0035a	d9 9d 78 ff ff
	ff		 fstp	 DWORD PTR _fTimeGap$531888[ebp]

; 408  : 				float fCurLoopTimeGap;
; 409  : 				float fCurLoopTimePerSec;
; 410  : 				while( fTimeGap > 0.0f )

  00360	d9 ee		 fldz
  00362	d9 85 78 ff ff
	ff		 fld	 DWORD PTR _fTimeGap$531888[ebp]
  00368	df f1		 fcomip	 ST(1)
  0036a	dd d8		 fstp	 ST(0)
  0036c	0f 86 e7 07 00
	00		 jbe	 $LN173@OnTracing
$LL11@OnTracing:

; 411  : 				{
; 412  : 					if( fTimeGap > FLOAT10 )

  00372	b8 0a 00 00 00	 mov	 eax, 10			; 0000000aH
  00377	d9 85 78 ff ff
	ff		 fld	 DWORD PTR _fTimeGap$531888[ebp]
  0037d	89 45 80	 mov	 DWORD PTR tv2639[ebp], eax
  00380	db 45 80	 fild	 DWORD PTR tv2639[ebp]
  00383	85 c0		 test	 eax, eax
  00385	79 06		 jns	 SHORT $LN182@OnTracing
  00387	d8 05 00 00 00
	00		 fadd	 DWORD PTR __real@4f800000
$LN182@OnTracing:
  0038d	d9 c9		 fxch	 ST(1)
  0038f	df f1		 fcomip	 ST(1)
  00391	dd d8		 fstp	 ST(0)
  00393	76 61		 jbe	 SHORT $LN9@OnTracing

; 413  : 					{
; 414  : 						fCurLoopTimeGap = FLOAT10;

  00395	b8 0a 00 00 00	 mov	 eax, 10			; 0000000aH

; 415  : 						fCurLoopTimePerSec = FLOAT10 / FLOAT1000;

  0039a	b8 0a 00 00 00	 mov	 eax, 10			; 0000000aH
  0039f	8b c8		 mov	 ecx, eax
  003a1	b8 e8 03 00 00	 mov	 eax, 1000		; 000003e8H
  003a6	89 4d 80	 mov	 DWORD PTR tv2630[ebp], ecx
  003a9	db 45 80	 fild	 DWORD PTR tv2630[ebp]
  003ac	85 c9		 test	 ecx, ecx
  003ae	79 06		 jns	 SHORT $LN183@OnTracing
  003b0	d8 05 00 00 00
	00		 fadd	 DWORD PTR __real@4f800000
$LN183@OnTracing:
  003b6	89 45 80	 mov	 DWORD PTR tv2626[ebp], eax
  003b9	db 45 80	 fild	 DWORD PTR tv2626[ebp]
  003bc	85 c0		 test	 eax, eax
  003be	79 06		 jns	 SHORT $LN184@OnTracing
  003c0	d8 05 00 00 00
	00		 fadd	 DWORD PTR __real@4f800000
$LN184@OnTracing:
  003c6	de f9		 fdivp	 ST(1), ST(0)
  003c8	d9 5d 80	 fstp	 DWORD PTR _fCurLoopTimePerSec$531891[ebp]

; 416  : 
; 417  : 						fTimeGap -= FLOAT10;

  003cb	b8 0a 00 00 00	 mov	 eax, 10			; 0000000aH
  003d0	d9 85 78 ff ff
	ff		 fld	 DWORD PTR _fTimeGap$531888[ebp]
  003d6	89 85 78 ff ff
	ff		 mov	 DWORD PTR tv2620[ebp], eax
  003dc	db 85 78 ff ff
	ff		 fild	 DWORD PTR tv2620[ebp]
  003e2	85 c0		 test	 eax, eax
  003e4	79 06		 jns	 SHORT $LN185@OnTracing
  003e6	d8 05 00 00 00
	00		 fadd	 DWORD PTR __real@4f800000
$LN185@OnTracing:
  003ec	de e9		 fsubp	 ST(1), ST(0)
  003ee	d9 9d 78 ff ff
	ff		 fstp	 DWORD PTR _fTimeGap$531888[ebp]

; 418  : 					}
; 419  : 					else

  003f4	eb 2b		 jmp	 SHORT $LN8@OnTracing
$LN9@OnTracing:

; 420  : 					{
; 421  : 						fCurLoopTimeGap = fTimeGap;
; 422  : 						fCurLoopTimePerSec = fTimeGap / FLOAT1000;

  003f6	b8 e8 03 00 00	 mov	 eax, 1000		; 000003e8H
  003fb	d9 85 78 ff ff
	ff		 fld	 DWORD PTR _fTimeGap$531888[ebp]
  00401	89 45 80	 mov	 DWORD PTR tv2614[ebp], eax
  00404	db 45 80	 fild	 DWORD PTR tv2614[ebp]
  00407	85 c0		 test	 eax, eax
  00409	79 06		 jns	 SHORT $LN186@OnTracing
  0040b	d8 05 00 00 00
	00		 fadd	 DWORD PTR __real@4f800000
$LN186@OnTracing:
  00411	de f9		 fdivp	 ST(1), ST(0)

; 423  : 
; 424  : 						fTimeGap = 0.0f;

  00413	0f 57 c0	 xorps	 xmm0, xmm0
  00416	f3 0f 11 85 78
	ff ff ff	 movss	 DWORD PTR _fTimeGap$531888[ebp], xmm0
  0041e	d9 5d 80	 fstp	 DWORD PTR _fCurLoopTimePerSec$531891[ebp]
$LN8@OnTracing:

; 425  : 					}
; 426  : 
; 427  : 					float fPosRate = m_fTargetTracePosRate;

  00421	8d 85 60 ff ff
	ff		 lea	 eax, DWORD PTR _value$537038[ebp]
  00427	50		 push	 eax
  00428	8d 8b b4 08 00
	00		 lea	 ecx, DWORD PTR [ebx+2228]
  0042e	e8 00 00 00 00	 call	 ?DecryptValueToPool@?$CEncrypt@M@@QAEXPAM@Z ; CEncrypt<float>::DecryptValueToPool
  00433	f3 0f 10 85 60
	ff ff ff	 movss	 xmm0, DWORD PTR _value$537038[ebp]

; 428  : 					if( CheckDownTargetState( pOwner ) )

  0043b	ff b5 68 ff ff
	ff		 push	 DWORD PTR _pOwner$[ebp]
  00441	8b cb		 mov	 ecx, ebx
  00443	f3 0f 11 85 7c
	ff ff ff	 movss	 DWORD PTR _fPosRate$531903[ebp], xmm0
  0044b	e8 00 00 00 00	 call	 ?CheckDownTargetState@ioAttachWeapon@@IAE_NPAVioBaseChar@@@Z ; ioAttachWeapon::CheckDownTargetState
  00450	84 c0		 test	 al, al
  00452	74 22		 je	 SHORT $LN7@OnTracing

; 429  : 						fPosRate = m_fDownTargetTracePosRate;

  00454	8d 85 74 ff ff
	ff		 lea	 eax, DWORD PTR _value$537042[ebp]
  0045a	50		 push	 eax
  0045b	8d 8b e4 08 00
	00		 lea	 ecx, DWORD PTR [ebx+2276]
  00461	e8 00 00 00 00	 call	 ?DecryptValueToPool@?$CEncrypt@M@@QAEXPAM@Z ; CEncrypt<float>::DecryptValueToPool
  00466	f3 0f 10 85 74
	ff ff ff	 movss	 xmm0, DWORD PTR _value$537042[ebp]
  0046e	f3 0f 11 85 7c
	ff ff ff	 movss	 DWORD PTR _fPosRate$531903[ebp], xmm0
$LN7@OnTracing:

; 430  : 
; 431  : 					vDiff = pOwner->GetMidPositionByRate(fPosRate) - GetPosition();

  00476	8b 03		 mov	 eax, DWORD PTR [ebx]
  00478	8b cb		 mov	 ecx, ebx
  0047a	ff 50 70	 call	 DWORD PTR [eax+112]
  0047d	f3 0f 10 85 7c
	ff ff ff	 movss	 xmm0, DWORD PTR _fPosRate$531903[ebp]
  00485	51		 push	 ecx
  00486	8b 8d 68 ff ff
	ff		 mov	 ecx, DWORD PTR _pOwner$[ebp]
  0048c	8b f0		 mov	 esi, eax
  0048e	8d 45 84	 lea	 eax, DWORD PTR $T531905[ebp]
  00491	f3 0f 11 04 24	 movss	 DWORD PTR [esp], xmm0
  00496	50		 push	 eax
  00497	e8 00 00 00 00	 call	 ?GetMidPositionByRate@ioGameEntity@@QBE?AUD3DXVECTOR3@@M@Z ; ioGameEntity::GetMidPositionByRate
  0049c	f3 0f 10 00	 movss	 xmm0, DWORD PTR [eax]
  004a0	f3 0f 10 0e	 movss	 xmm1, DWORD PTR [esi]
  004a4	0f 5a c0	 cvtps2pd xmm0, xmm0
  004a7	0f 5a c9	 cvtps2pd xmm1, xmm1
  004aa	f2 0f 5c c1	 subsd	 xmm0, xmm1
  004ae	f3 0f 10 4e 04	 movss	 xmm1, DWORD PTR [esi+4]
  004b3	66 0f 5a c0	 cvtpd2ps xmm0, xmm0
  004b7	f3 0f 11 85 0c
	ff ff ff	 movss	 DWORD PTR $T531906[ebp], xmm0
  004bf	f3 0f 10 40 04	 movss	 xmm0, DWORD PTR [eax+4]
  004c4	0f 5a c0	 cvtps2pd xmm0, xmm0
  004c7	0f 5a c9	 cvtps2pd xmm1, xmm1
  004ca	f2 0f 5c c1	 subsd	 xmm0, xmm1
  004ce	f3 0f 10 4e 08	 movss	 xmm1, DWORD PTR [esi+8]
  004d3	66 0f 5a c0	 cvtpd2ps xmm0, xmm0
  004d7	f3 0f 11 85 10
	ff ff ff	 movss	 DWORD PTR $T531906[ebp+4], xmm0
  004df	f3 0f 10 40 08	 movss	 xmm0, DWORD PTR [eax+8]
  004e4	0f 5a c0	 cvtps2pd xmm0, xmm0
  004e7	0f 5a c9	 cvtps2pd xmm1, xmm1
  004ea	f2 0f 5c c1	 subsd	 xmm0, xmm1
  004ee	66 0f 5a c0	 cvtpd2ps xmm0, xmm0
  004f2	f3 0f 11 85 14
	ff ff ff	 movss	 DWORD PTR $T531906[ebp+8], xmm0
  004fa	8d b5 0c ff ff
	ff		 lea	 esi, DWORD PTR $T531906[ebp]
  00500	8d 7d f0	 lea	 edi, DWORD PTR _vDiff$531882[ebp]
  00503	a5		 movsd

; 432  : 					D3DXVec3Normalize( &vDiff, &vDiff );

  00504	8d 45 f0	 lea	 eax, DWORD PTR _vDiff$531882[ebp]
  00507	a5		 movsd
  00508	50		 push	 eax
  00509	50		 push	 eax
  0050a	a5		 movsd
  0050b	e8 00 00 00 00	 call	 _D3DXVec3Normalize@8

; 433  : 
; 434  : 					D3DXVECTOR3 vPreDir = m_vMoveDir;

  00510	8d b3 10 0a 00
	00		 lea	 esi, DWORD PTR [ebx+2576]
  00516	8d bd 54 ff ff
	ff		 lea	 edi, DWORD PTR _vPreDir$531907[ebp]
  0051c	a5		 movsd
  0051d	a5		 movsd

; 435  : 					D3DXVECTOR3 vCurForce = m_vMoveDir * m_fTraceSpeed * fCurLoopTimePerSec;

  0051e	8d 85 6c ff ff
	ff		 lea	 eax, DWORD PTR _value$537059[ebp]
  00524	50		 push	 eax
  00525	8d 8b 44 09 00
	00		 lea	 ecx, DWORD PTR [ebx+2372]
  0052b	a5		 movsd
  0052c	e8 00 00 00 00	 call	 ?DecryptValueToPool@?$CEncrypt@M@@QAEXPAM@Z ; CEncrypt<float>::DecryptValueToPool
  00531	f3 0f 10 8d 6c
	ff ff ff	 movss	 xmm1, DWORD PTR _value$537059[ebp]
  00539	f3 0f 10 95 6c
	ff ff ff	 movss	 xmm2, DWORD PTR _value$537059[ebp]
  00541	f3 0f 10 9d 6c
	ff ff ff	 movss	 xmm3, DWORD PTR _value$537059[ebp]
  00549	0f 5a c9	 cvtps2pd xmm1, xmm1
  0054c	8d bb 10 0a 00
	00		 lea	 edi, DWORD PTR [ebx+2576]
  00552	f3 0f 10 07	 movss	 xmm0, DWORD PTR [edi]
  00556	0f 5a c0	 cvtps2pd xmm0, xmm0
  00559	f2 0f 59 c1	 mulsd	 xmm0, xmm1
  0055d	f3 0f 10 4f 04	 movss	 xmm1, DWORD PTR [edi+4]
  00562	0f 5a d2	 cvtps2pd xmm2, xmm2
  00565	0f 5a c9	 cvtps2pd xmm1, xmm1
  00568	f2 0f 59 ca	 mulsd	 xmm1, xmm2
  0056c	f3 0f 10 57 08	 movss	 xmm2, DWORD PTR [edi+8]
  00571	66 0f 5a c0	 cvtpd2ps xmm0, xmm0
  00575	0f 5a db	 cvtps2pd xmm3, xmm3
  00578	f3 0f 5a c0	 cvtss2sd xmm0, xmm0
  0057c	0f 5a d2	 cvtps2pd xmm2, xmm2
  0057f	f2 0f 59 d3	 mulsd	 xmm2, xmm3
  00583	f3 0f 10 5d 80	 movss	 xmm3, DWORD PTR _fCurLoopTimePerSec$531891[ebp]
  00588	0f 5a db	 cvtps2pd xmm3, xmm3
  0058b	f2 0f 59 c3	 mulsd	 xmm0, xmm3
  0058f	66 0f 5a c0	 cvtpd2ps xmm0, xmm0
  00593	f3 0f 11 45 d8	 movss	 DWORD PTR _vCurForce$531908[ebp], xmm0
  00598	66 0f 5a c9	 cvtpd2ps xmm1, xmm1
  0059c	0f 57 c0	 xorps	 xmm0, xmm0
  0059f	f3 0f 5a c1	 cvtss2sd xmm0, xmm1
  005a3	f3 0f 10 4d 80	 movss	 xmm1, DWORD PTR _fCurLoopTimePerSec$531891[ebp]
  005a8	0f 5a c9	 cvtps2pd xmm1, xmm1
  005ab	f2 0f 59 c1	 mulsd	 xmm0, xmm1
  005af	66 0f 5a d2	 cvtpd2ps xmm2, xmm2
  005b3	66 0f 5a c0	 cvtpd2ps xmm0, xmm0
  005b7	f3 0f 10 4d 80	 movss	 xmm1, DWORD PTR _fCurLoopTimePerSec$531891[ebp]
  005bc	f3 0f 11 45 dc	 movss	 DWORD PTR _vCurForce$531908[ebp+4], xmm0
  005c1	0f 57 c0	 xorps	 xmm0, xmm0
  005c4	f3 0f 5a c2	 cvtss2sd xmm0, xmm2
  005c8	0f 5a c9	 cvtps2pd xmm1, xmm1

; 436  : 					m_vMoveDir = vCurForce + (vDiff * m_fTraceRotSpeed * fCurLoopTimePerSec);

  005cb	8d 85 70 ff ff
	ff		 lea	 eax, DWORD PTR _value$537087[ebp]
  005d1	f2 0f 59 c1	 mulsd	 xmm0, xmm1
  005d5	66 0f 5a c0	 cvtpd2ps xmm0, xmm0
  005d9	50		 push	 eax
  005da	8d 8b a4 09 00
	00		 lea	 ecx, DWORD PTR [ebx+2468]
  005e0	f3 0f 11 45 e0	 movss	 DWORD PTR _vCurForce$531908[ebp+8], xmm0
  005e5	e8 00 00 00 00	 call	 ?DecryptValueToPool@?$CEncrypt@M@@QAEXPAM@Z ; CEncrypt<float>::DecryptValueToPool
  005ea	f3 0f 10 85 70
	ff ff ff	 movss	 xmm0, DWORD PTR _value$537087[ebp]
  005f2	f3 0f 10 4d f0	 movss	 xmm1, DWORD PTR _vDiff$531882[ebp]
  005f7	f3 0f 10 95 70
	ff ff ff	 movss	 xmm2, DWORD PTR _value$537087[ebp]
  005ff	f3 0f 10 9d 70
	ff ff ff	 movss	 xmm3, DWORD PTR _value$537087[ebp]
  00607	0f 5a c0	 cvtps2pd xmm0, xmm0
  0060a	0f 5a c9	 cvtps2pd xmm1, xmm1
  0060d	f2 0f 59 c1	 mulsd	 xmm0, xmm1
  00611	f3 0f 10 4d f4	 movss	 xmm1, DWORD PTR _vDiff$531882[ebp+4]
  00616	f2 0f 5a c0	 cvtsd2ss xmm0, xmm0
  0061a	0f 5a c9	 cvtps2pd xmm1, xmm1
  0061d	0f 5a d2	 cvtps2pd xmm2, xmm2
  00620	f2 0f 59 ca	 mulsd	 xmm1, xmm2
  00624	f3 0f 10 55 f8	 movss	 xmm2, DWORD PTR _vDiff$531882[ebp+8]
  00629	f3 0f 5a c0	 cvtss2sd xmm0, xmm0
  0062d	0f 5a db	 cvtps2pd xmm3, xmm3
  00630	0f 5a d2	 cvtps2pd xmm2, xmm2
  00633	f2 0f 59 d3	 mulsd	 xmm2, xmm3
  00637	f3 0f 10 5d 80	 movss	 xmm3, DWORD PTR _fCurLoopTimePerSec$531891[ebp]
  0063c	0f 5a db	 cvtps2pd xmm3, xmm3
  0063f	f2 0f 59 c3	 mulsd	 xmm0, xmm3
  00643	f3 0f 10 5d 80	 movss	 xmm3, DWORD PTR _fCurLoopTimePerSec$531891[ebp]
  00648	66 0f 5a c9	 cvtpd2ps xmm1, xmm1
  0064c	f2 0f 5a c0	 cvtsd2ss xmm0, xmm0
  00650	f3 0f 5a c9	 cvtss2sd xmm1, xmm1
  00654	0f 5a db	 cvtps2pd xmm3, xmm3
  00657	f2 0f 59 cb	 mulsd	 xmm1, xmm3
  0065b	f3 0f 10 5d 80	 movss	 xmm3, DWORD PTR _fCurLoopTimePerSec$531891[ebp]
  00660	f3 0f 5a c0	 cvtss2sd xmm0, xmm0
  00664	66 0f 5a d2	 cvtpd2ps xmm2, xmm2
  00668	0f 5a db	 cvtps2pd xmm3, xmm3
  0066b	f3 0f 5a d2	 cvtss2sd xmm2, xmm2
  0066f	f2 0f 59 d3	 mulsd	 xmm2, xmm3
  00673	f3 0f 10 5d d8	 movss	 xmm3, DWORD PTR _vCurForce$531908[ebp]
  00678	66 0f 5a c9	 cvtpd2ps xmm1, xmm1
  0067c	0f 5a db	 cvtps2pd xmm3, xmm3
  0067f	f2 0f 58 c3	 addsd	 xmm0, xmm3
  00683	f2 0f 5a c0	 cvtsd2ss xmm0, xmm0
  00687	f3 0f 11 85 3c
	ff ff ff	 movss	 DWORD PTR $T531913[ebp], xmm0
  0068f	0f 57 c0	 xorps	 xmm0, xmm0
  00692	f3 0f 5a c1	 cvtss2sd xmm0, xmm1
  00696	f3 0f 10 4d dc	 movss	 xmm1, DWORD PTR _vCurForce$531908[ebp+4]
  0069b	0f 5a c9	 cvtps2pd xmm1, xmm1
  0069e	f2 0f 58 c1	 addsd	 xmm0, xmm1
  006a2	f3 0f 10 4d e0	 movss	 xmm1, DWORD PTR _vCurForce$531908[ebp+8]
  006a7	66 0f 5a c0	 cvtpd2ps xmm0, xmm0
  006ab	f3 0f 11 85 40
	ff ff ff	 movss	 DWORD PTR $T531913[ebp+4], xmm0
  006b3	0f 57 c0	 xorps	 xmm0, xmm0
  006b6	66 0f 5a d2	 cvtpd2ps xmm2, xmm2
  006ba	f3 0f 5a c2	 cvtss2sd xmm0, xmm2
  006be	0f 5a c9	 cvtps2pd xmm1, xmm1
  006c1	f2 0f 58 c1	 addsd	 xmm0, xmm1
  006c5	66 0f 5a c0	 cvtpd2ps xmm0, xmm0
  006c9	f3 0f 11 85 44
	ff ff ff	 movss	 DWORD PTR $T531913[ebp+8], xmm0
  006d1	8d b5 3c ff ff
	ff		 lea	 esi, DWORD PTR $T531913[ebp]
  006d7	a5		 movsd
  006d8	a5		 movsd
  006d9	a5		 movsd

; 437  : 
; 438  : 					D3DXVec3Normalize( &m_vMoveDir, &m_vMoveDir );

  006da	8d b3 10 0a 00
	00		 lea	 esi, DWORD PTR [ebx+2576]
  006e0	56		 push	 esi
  006e1	56		 push	 esi
  006e2	e8 00 00 00 00	 call	 _D3DXVec3Normalize@8

; 439  : 
; 440  : 					float fCos = D3DXVec3Dot( &vPreDir, &m_vMoveDir );

  006e7	d9 85 58 ff ff
	ff		 fld	 DWORD PTR _vPreDir$531907[ebp+4]
  006ed	d8 4e 04	 fmul	 DWORD PTR [esi+4]
  006f0	d9 06		 fld	 DWORD PTR [esi]
  006f2	d8 8d 54 ff ff
	ff		 fmul	 DWORD PTR _vPreDir$531907[ebp]
  006f8	de c1		 faddp	 ST(1), ST(0)
  006fa	d9 85 5c ff ff
	ff		 fld	 DWORD PTR _vPreDir$531907[ebp+8]
  00700	d8 4e 08	 fmul	 DWORD PTR [esi+8]
  00703	de c1		 faddp	 ST(1), ST(0)
  00705	d9 5d 80	 fstp	 DWORD PTR _fCos$531914[ebp]

; 441  : 					// 0 
; 442  : 					if( fCos >= FLOAT1 )

  00708	b8 01 00 00 00	 mov	 eax, 1
  0070d	d9 45 80	 fld	 DWORD PTR _fCos$531914[ebp]
  00710	89 85 64 ff ff
	ff		 mov	 DWORD PTR tv2535[ebp], eax
  00716	db 85 64 ff ff
	ff		 fild	 DWORD PTR tv2535[ebp]
  0071c	85 c0		 test	 eax, eax
  0071e	79 06		 jns	 SHORT $LN187@OnTracing
  00720	d8 05 00 00 00
	00		 fadd	 DWORD PTR __real@4f800000
$LN187@OnTracing:
  00726	d9 c9		 fxch	 ST(1)
  00728	df f1		 fcomip	 ST(1)
  0072a	dd d8		 fstp	 ST(0)
  0072c	0f 83 12 04 00
	00		 jae	 $LN1@OnTracing

; 443  : 					{
; 444  : 						//  
; 445  : 					}
; 446  : 					else if( fCos <= -FLOAT1 ) // 180 

  00732	b8 01 00 00 00	 mov	 eax, 1
  00737	d9 45 80	 fld	 DWORD PTR _fCos$531914[ebp]
  0073a	89 85 64 ff ff
	ff		 mov	 DWORD PTR tv2527[ebp], eax
  00740	db 85 64 ff ff
	ff		 fild	 DWORD PTR tv2527[ebp]
  00746	85 c0		 test	 eax, eax
  00748	79 06		 jns	 SHORT $LN188@OnTracing
  0074a	d8 05 00 00 00
	00		 fadd	 DWORD PTR __real@4f800000
$LN188@OnTracing:
  00750	d9 e0		 fchs
  00752	df f1		 fcomip	 ST(1)
  00754	dd d8		 fstp	 ST(0)
  00756	0f 82 e3 02 00
	00		 jb	 $LN4@OnTracing

; 447  : 					{
; 448  : 						D3DXVECTOR3 vAxis1, vAxis2;
; 449  : 						if( m_vMoveDir != ioMath::UNIT_Y )

  0075c	8b 0d 00 00 00
	00		 mov	 ecx, DWORD PTR __imp_?UNIT_Y@ioMath@@2UD3DXVECTOR3@@A
  00762	f3 0f 10 36	 movss	 xmm6, DWORD PTR [esi]
  00766	f3 0f 10 01	 movss	 xmm0, DWORD PTR [ecx]
  0076a	0f 57 c9	 xorps	 xmm1, xmm1
  0076d	0f 5a ce	 cvtps2pd xmm1, xmm6
  00770	0f 5a c0	 cvtps2pd xmm0, xmm0
  00773	66 0f 2e c8	 ucomisd xmm1, xmm0
  00777	9f		 lahf
  00778	f6 c4 44	 test	 ah, 68			; 00000044H
  0077b	7a 38		 jp	 SHORT $LN113@OnTracing
  0077d	f3 0f 10 46 04	 movss	 xmm0, DWORD PTR [esi+4]
  00782	f3 0f 10 49 04	 movss	 xmm1, DWORD PTR [ecx+4]
  00787	0f 5a c0	 cvtps2pd xmm0, xmm0
  0078a	0f 5a c9	 cvtps2pd xmm1, xmm1
  0078d	66 0f 2e c1	 ucomisd xmm0, xmm1
  00791	9f		 lahf
  00792	f6 c4 44	 test	 ah, 68			; 00000044H
  00795	7a 1e		 jp	 SHORT $LN113@OnTracing
  00797	f3 0f 10 46 08	 movss	 xmm0, DWORD PTR [esi+8]
  0079c	f3 0f 10 49 08	 movss	 xmm1, DWORD PTR [ecx+8]
  007a1	0f 5a c0	 cvtps2pd xmm0, xmm0
  007a4	0f 5a c9	 cvtps2pd xmm1, xmm1
  007a7	66 0f 2e c1	 ucomisd xmm0, xmm1
  007ab	9f		 lahf
  007ac	f6 c4 44	 test	 ah, 68			; 00000044H
  007af	0f 8b b5 00 00
	00		 jnp	 $LN3@OnTracing
$LN113@OnTracing:

; 450  : 						{
; 451  : 							D3DXVec3Cross( &vAxis1, &m_vMoveDir, &ioMath::UNIT_Y );

  007b5	f3 0f 10 51 08	 movss	 xmm2, DWORD PTR [ecx+8]
  007ba	f3 0f 10 5e 08	 movss	 xmm3, DWORD PTR [esi+8]
  007bf	f3 0f 10 46 04	 movss	 xmm0, DWORD PTR [esi+4]
  007c4	f3 0f 10 61 04	 movss	 xmm4, DWORD PTR [ecx+4]
  007c9	0f 5a ea	 cvtps2pd xmm5, xmm2
  007cc	0f 5a c8	 cvtps2pd xmm1, xmm0
  007cf	f2 0f 59 cd	 mulsd	 xmm1, xmm5
  007d3	0f 5a fc	 cvtps2pd xmm7, xmm4
  007d6	0f 5a d2	 cvtps2pd xmm2, xmm2
  007d9	0f 5a c0	 cvtps2pd xmm0, xmm0
  007dc	0f 5a eb	 cvtps2pd xmm5, xmm3
  007df	f2 0f 59 ef	 mulsd	 xmm5, xmm7
  007e3	f2 0f 5c cd	 subsd	 xmm1, xmm5
  007e7	0f 5a e4	 cvtps2pd xmm4, xmm4
  007ea	66 0f 5a c9	 cvtpd2ps xmm1, xmm1
  007ee	f3 0f 11 8d 30
	ff ff ff	 movss	 DWORD PTR _v$537158[ebp], xmm1
  007f6	8d b5 30 ff ff
	ff		 lea	 esi, DWORD PTR _v$537158[ebp]
  007fc	0f 5a eb	 cvtps2pd xmm5, xmm3
  007ff	f3 0f 10 19	 movss	 xmm3, DWORD PTR [ecx]
  00803	0f 5a fb	 cvtps2pd xmm7, xmm3
  00806	f2 0f 59 ef	 mulsd	 xmm5, xmm7
  0080a	0f 5a db	 cvtps2pd xmm3, xmm3
  0080d	f2 0f 59 c3	 mulsd	 xmm0, xmm3

; 452  : 							D3DXVec3Normalize( &vAxis1, &-vAxis1 );

  00811	8d 45 9c	 lea	 eax, DWORD PTR $T531923[ebp]
  00814	0f 5a fe	 cvtps2pd xmm7, xmm6
  00817	f2 0f 59 fa	 mulsd	 xmm7, xmm2
  0081b	f2 0f 5c ef	 subsd	 xmm5, xmm7
  0081f	0f 57 d2	 xorps	 xmm2, xmm2
  00822	66 0f 5a d5	 cvtpd2ps xmm2, xmm5
  00826	f3 0f 11 95 34
	ff ff ff	 movss	 DWORD PTR _v$537158[ebp+4], xmm2
  0082e	0f 5a ee	 cvtps2pd xmm5, xmm6
  00831	f2 0f 59 ec	 mulsd	 xmm5, xmm4
  00835	f2 0f 5c e8	 subsd	 xmm5, xmm0
  00839	f3 0f 10 05 00
	00 00 00	 movss	 xmm0, DWORD PTR __mask@@NegFloat@
  00841	66 0f 5a dd	 cvtpd2ps xmm3, xmm5
  00845	f3 0f 11 9d 38
	ff ff ff	 movss	 DWORD PTR _v$537158[ebp+8], xmm3
  0084d	0f 57 c8	 xorps	 xmm1, xmm0
  00850	0f 57 d0	 xorps	 xmm2, xmm0
  00853	0f 57 d8	 xorps	 xmm3, xmm0
  00856	f3 0f 11 4d 9c	 movss	 DWORD PTR $T531923[ebp], xmm1
  0085b	f3 0f 11 55 a0	 movss	 DWORD PTR $T531923[ebp+4], xmm2
  00860	f3 0f 11 5d a4	 movss	 DWORD PTR $T531923[ebp+8], xmm3

; 453  : 						}
; 454  : 						else

  00865	e9 b5 00 00 00	 jmp	 $LN190@OnTracing
$LN3@OnTracing:

; 455  : 						{
; 456  : 							D3DXVec3Cross( &vAxis1, &m_vMoveDir, &ioMath::UNIT_X );

  0086a	a1 00 00 00 00	 mov	 eax, DWORD PTR __imp_?UNIT_X@ioMath@@2UD3DXVECTOR3@@A
  0086f	f3 0f 10 50 08	 movss	 xmm2, DWORD PTR [eax+8]
  00874	f3 0f 10 60 04	 movss	 xmm4, DWORD PTR [eax+4]
  00879	f3 0f 10 46 04	 movss	 xmm0, DWORD PTR [esi+4]
  0087e	f3 0f 10 5e 08	 movss	 xmm3, DWORD PTR [esi+8]
  00883	0f 5a ea	 cvtps2pd xmm5, xmm2
  00886	0f 5a c8	 cvtps2pd xmm1, xmm0
  00889	0f 5a fc	 cvtps2pd xmm7, xmm4
  0088c	f2 0f 59 cd	 mulsd	 xmm1, xmm5
  00890	0f 5a d2	 cvtps2pd xmm2, xmm2
  00893	0f 5a e4	 cvtps2pd xmm4, xmm4
  00896	0f 5a eb	 cvtps2pd xmm5, xmm3
  00899	f2 0f 59 ef	 mulsd	 xmm5, xmm7
  0089d	f2 0f 5c cd	 subsd	 xmm1, xmm5
  008a1	f3 0f 10 28	 movss	 xmm5, DWORD PTR [eax]
  008a5	0f 5a fd	 cvtps2pd xmm7, xmm5
  008a8	0f 5a db	 cvtps2pd xmm3, xmm3
  008ab	f2 0f 59 df	 mulsd	 xmm3, xmm7
  008af	0f 5a c0	 cvtps2pd xmm0, xmm0
  008b2	66 0f 5a c9	 cvtpd2ps xmm1, xmm1
  008b6	f3 0f 11 8d 24
	ff ff ff	 movss	 DWORD PTR _v$537181[ebp], xmm1
  008be	0f 5a fe	 cvtps2pd xmm7, xmm6
  008c1	f2 0f 59 fa	 mulsd	 xmm7, xmm2
  008c5	f2 0f 5c df	 subsd	 xmm3, xmm7
  008c9	0f 57 d2	 xorps	 xmm2, xmm2
  008cc	66 0f 5a d3	 cvtpd2ps xmm2, xmm3
  008d0	f3 0f 11 95 28
	ff ff ff	 movss	 DWORD PTR _v$537181[ebp+4], xmm2
  008d8	8d b5 24 ff ff
	ff		 lea	 esi, DWORD PTR _v$537181[ebp]

; 457  : 							D3DXVec3Normalize( &vAxis1, &-vAxis1 );

  008de	8d 45 a8	 lea	 eax, DWORD PTR $T531925[ebp]
  008e1	0f 5a de	 cvtps2pd xmm3, xmm6
  008e4	f2 0f 59 dc	 mulsd	 xmm3, xmm4
  008e8	0f 5a e5	 cvtps2pd xmm4, xmm5
  008eb	f2 0f 59 c4	 mulsd	 xmm0, xmm4
  008ef	f2 0f 5c d8	 subsd	 xmm3, xmm0
  008f3	f3 0f 10 05 00
	00 00 00	 movss	 xmm0, DWORD PTR __mask@@NegFloat@
  008fb	66 0f 5a db	 cvtpd2ps xmm3, xmm3
  008ff	f3 0f 11 9d 2c
	ff ff ff	 movss	 DWORD PTR _v$537181[ebp+8], xmm3
  00907	0f 57 c8	 xorps	 xmm1, xmm0
  0090a	0f 57 d0	 xorps	 xmm2, xmm0
  0090d	0f 57 d8	 xorps	 xmm3, xmm0
  00910	f3 0f 11 4d a8	 movss	 DWORD PTR $T531925[ebp], xmm1
  00915	f3 0f 11 55 ac	 movss	 DWORD PTR $T531925[ebp+4], xmm2
  0091a	f3 0f 11 5d b0	 movss	 DWORD PTR $T531925[ebp+8], xmm3
$LN190@OnTracing:

; 455  : 						{
; 456  : 							D3DXVec3Cross( &vAxis1, &m_vMoveDir, &ioMath::UNIT_X );

  0091f	8d 7d e4	 lea	 edi, DWORD PTR _vAxis1$531920[ebp]
  00922	a5		 movsd

; 457  : 							D3DXVec3Normalize( &vAxis1, &-vAxis1 );

  00923	50		 push	 eax
  00924	a5		 movsd
  00925	8d 45 e4	 lea	 eax, DWORD PTR _vAxis1$531920[ebp]
  00928	50		 push	 eax
  00929	a5		 movsd
  0092a	e8 00 00 00 00	 call	 _D3DXVec3Normalize@8

; 458  : 						}
; 459  : 
; 460  : 						D3DXVec3Cross( &vAxis2, &m_vMoveDir, &vAxis1 );

  0092f	f3 0f 10 83 14
	0a 00 00	 movss	 xmm0, DWORD PTR [ebx+2580]
  00937	f3 0f 10 4d ec	 movss	 xmm1, DWORD PTR _vAxis1$531920[ebp+8]
  0093c	f3 0f 10 93 18
	0a 00 00	 movss	 xmm2, DWORD PTR [ebx+2584]
  00944	0f 5a d8	 cvtps2pd xmm3, xmm0
  00947	0f 5a e2	 cvtps2pd xmm4, xmm2
  0094a	0f 5a c9	 cvtps2pd xmm1, xmm1
  0094d	f2 0f 59 cb	 mulsd	 xmm1, xmm3
  00951	f3 0f 10 5d e8	 movss	 xmm3, DWORD PTR _vAxis1$531920[ebp+4]
  00956	0f 5a db	 cvtps2pd xmm3, xmm3
  00959	f2 0f 59 dc	 mulsd	 xmm3, xmm4
  0095d	f3 0f 10 65 e4	 movss	 xmm4, DWORD PTR _vAxis1$531920[ebp]
  00962	f2 0f 5c cb	 subsd	 xmm1, xmm3
  00966	f3 0f 10 9b 10
	0a 00 00	 movss	 xmm3, DWORD PTR [ebx+2576]
  0096e	0f 5a e4	 cvtps2pd xmm4, xmm4
  00971	0f 5a d2	 cvtps2pd xmm2, xmm2
  00974	f2 0f 59 d4	 mulsd	 xmm2, xmm4
  00978	f3 0f 10 65 ec	 movss	 xmm4, DWORD PTR _vAxis1$531920[ebp+8]
  0097d	0f 5a eb	 cvtps2pd xmm5, xmm3
  00980	0f 5a e4	 cvtps2pd xmm4, xmm4
  00983	f2 0f 59 e5	 mulsd	 xmm4, xmm5
  00987	f2 0f 5c d4	 subsd	 xmm2, xmm4
  0098b	f3 0f 10 65 e8	 movss	 xmm4, DWORD PTR _vAxis1$531920[ebp+4]
  00990	0f 5a db	 cvtps2pd xmm3, xmm3
  00993	0f 5a e4	 cvtps2pd xmm4, xmm4
  00996	f2 0f 59 e3	 mulsd	 xmm4, xmm3
  0099a	f3 0f 10 5d e4	 movss	 xmm3, DWORD PTR _vAxis1$531920[ebp]
  0099f	0f 5a db	 cvtps2pd xmm3, xmm3
  009a2	0f 5a c0	 cvtps2pd xmm0, xmm0
  009a5	f2 0f 59 c3	 mulsd	 xmm0, xmm3
  009a9	f2 0f 5c e0	 subsd	 xmm4, xmm0

; 461  : 						D3DXVec3Normalize( &vAxis2, &-vAxis2 );

  009ad	f3 0f 10 05 00
	00 00 00	 movss	 xmm0, DWORD PTR __mask@@NegFloat@
  009b5	0f 57 db	 xorps	 xmm3, xmm3
  009b8	f2 0f 5a c9	 cvtsd2ss xmm1, xmm1
  009bc	f3 0f 11 8d 18
	ff ff ff	 movss	 DWORD PTR _v$537204[ebp], xmm1
  009c4	66 0f 5a d2	 cvtpd2ps xmm2, xmm2
  009c8	f3 0f 11 95 1c
	ff ff ff	 movss	 DWORD PTR _v$537204[ebp+4], xmm2
  009d0	f2 0f 5a dc	 cvtsd2ss xmm3, xmm4
  009d4	f3 0f 11 9d 20
	ff ff ff	 movss	 DWORD PTR _v$537204[ebp+8], xmm3
  009dc	8d b5 18 ff ff
	ff		 lea	 esi, DWORD PTR _v$537204[ebp]
  009e2	8d 7d c0	 lea	 edi, DWORD PTR _vAxis2$531921[ebp]
  009e5	a5		 movsd
  009e6	8d 45 b4	 lea	 eax, DWORD PTR $T531926[ebp]
  009e9	a5		 movsd
  009ea	50		 push	 eax
  009eb	8d 45 c0	 lea	 eax, DWORD PTR _vAxis2$531921[ebp]
  009ee	0f 57 c8	 xorps	 xmm1, xmm0
  009f1	0f 57 d0	 xorps	 xmm2, xmm0
  009f4	0f 57 d8	 xorps	 xmm3, xmm0
  009f7	50		 push	 eax
  009f8	a5		 movsd
  009f9	f3 0f 11 4d b4	 movss	 DWORD PTR $T531926[ebp], xmm1
  009fe	f3 0f 11 55 b8	 movss	 DWORD PTR $T531926[ebp+4], xmm2
  00a03	f3 0f 11 5d bc	 movss	 DWORD PTR $T531926[ebp+8], xmm3
  00a08	e8 00 00 00 00	 call	 _D3DXVec3Normalize@8

; 462  : 
; 463  : 						GetParentSceneNode()->Rotate( vAxis2, FLOAT1 );

  00a0d	8b 4b 04	 mov	 ecx, DWORD PTR [ebx+4]
  00a10	b8 01 00 00 00	 mov	 eax, 1
  00a15	8b 11		 mov	 edx, DWORD PTR [ecx]
  00a17	89 85 64 ff ff
	ff		 mov	 DWORD PTR tv2421[ebp], eax
  00a1d	db 85 64 ff ff
	ff		 fild	 DWORD PTR tv2421[ebp]
  00a23	6a 01		 push	 1
  00a25	85 c0		 test	 eax, eax
  00a27	79 06		 jns	 SHORT $LN189@OnTracing
  00a29	d8 05 00 00 00
	00		 fadd	 DWORD PTR __real@4f800000
$LN189@OnTracing:
  00a2f	51		 push	 ecx
  00a30	8d 45 c0	 lea	 eax, DWORD PTR _vAxis2$531921[ebp]
  00a33	d9 1c 24	 fstp	 DWORD PTR [esp]
  00a36	50		 push	 eax
  00a37	ff 52 50	 call	 DWORD PTR [edx+80]

; 464  : 					}
; 465  : 					else // 

  00a3a	e9 05 01 00 00	 jmp	 $LN1@OnTracing
$LN4@OnTracing:

; 466  : 					{
; 467  : 						float fGapAngle = RADtoDEG( acos( fCos ) );

  00a3f	d9 45 80	 fld	 DWORD PTR _fCos$531914[ebp]
  00a42	e8 00 00 00 00	 call	 __CIacos
  00a47	d9 5d 80	 fstp	 DWORD PTR tv2412[ebp]
  00a4a	d9 45 80	 fld	 DWORD PTR tv2412[ebp]
  00a4d	51		 push	 ecx
  00a4e	d9 1c 24	 fstp	 DWORD PTR [esp]
  00a51	e8 00 00 00 00	 call	 ??$RADtoDEG@M@@YAMM@Z	; RADtoDEG<float>

; 468  : 
; 469  : 						D3DXVECTOR3 vAxis;
; 470  : 						D3DXVec3Cross( &vAxis, &vDiff, &m_vMoveDir );

  00a56	f3 0f 10 46 08	 movss	 xmm0, DWORD PTR [esi+8]
  00a5b	d9 5d 80	 fstp	 DWORD PTR _fGapAngle$531929[ebp]
  00a5e	f3 0f 10 5e 04	 movss	 xmm3, DWORD PTR [esi+4]
  00a63	f3 0f 10 4d f4	 movss	 xmm1, DWORD PTR _vDiff$531882[ebp+4]
  00a68	0f 5a d0	 cvtps2pd xmm2, xmm0
  00a6b	0f 5a e3	 cvtps2pd xmm4, xmm3
  00a6e	0f 5a c9	 cvtps2pd xmm1, xmm1
  00a71	f2 0f 59 ca	 mulsd	 xmm1, xmm2
  00a75	f3 0f 10 55 f8	 movss	 xmm2, DWORD PTR _vDiff$531882[ebp+8]
  00a7a	0f 5a d2	 cvtps2pd xmm2, xmm2
  00a7d	f2 0f 59 d4	 mulsd	 xmm2, xmm4
  00a81	f3 0f 10 26	 movss	 xmm4, DWORD PTR [esi]
  00a85	f2 0f 5c ca	 subsd	 xmm1, xmm2
  00a89	f3 0f 10 55 f8	 movss	 xmm2, DWORD PTR _vDiff$531882[ebp+8]
  00a8e	0f 5a d2	 cvtps2pd xmm2, xmm2
  00a91	0f 5a ec	 cvtps2pd xmm5, xmm4
  00a94	f2 0f 59 d5	 mulsd	 xmm2, xmm5
  00a98	f3 0f 10 6d f0	 movss	 xmm5, DWORD PTR _vDiff$531882[ebp]
  00a9d	0f 5a c0	 cvtps2pd xmm0, xmm0
  00aa0	0f 5a ed	 cvtps2pd xmm5, xmm5
  00aa3	f2 0f 59 c5	 mulsd	 xmm0, xmm5
  00aa7	f2 0f 5c d0	 subsd	 xmm2, xmm0
  00aab	0f 5a e4	 cvtps2pd xmm4, xmm4
  00aae	f2 0f 5a c9	 cvtsd2ss xmm1, xmm1
  00ab2	f3 0f 11 8d 48
	ff ff ff	 movss	 DWORD PTR _v$537247[ebp], xmm1
  00aba	f2 0f 5a d2	 cvtsd2ss xmm2, xmm2
  00abe	0f 5a c3	 cvtps2pd xmm0, xmm3
  00ac1	f3 0f 10 5d f0	 movss	 xmm3, DWORD PTR _vDiff$531882[ebp]
  00ac6	0f 5a db	 cvtps2pd xmm3, xmm3
  00ac9	f2 0f 59 c3	 mulsd	 xmm0, xmm3
  00acd	f3 0f 10 5d f4	 movss	 xmm3, DWORD PTR _vDiff$531882[ebp+4]
  00ad2	0f 5a db	 cvtps2pd xmm3, xmm3
  00ad5	f2 0f 59 dc	 mulsd	 xmm3, xmm4
  00ad9	f2 0f 5c c3	 subsd	 xmm0, xmm3
  00add	f3 0f 11 95 4c
	ff ff ff	 movss	 DWORD PTR _v$537247[ebp+4], xmm2
  00ae5	8d b5 48 ff ff
	ff		 lea	 esi, DWORD PTR _v$537247[ebp]
  00aeb	8d 7d 90	 lea	 edi, DWORD PTR _vAxis$531934[ebp]
  00aee	59		 pop	 ecx
  00aef	66 0f 5a d8	 cvtpd2ps xmm3, xmm0

; 471  : 						D3DXVec3Normalize( &vAxis, &-vAxis );

  00af3	f3 0f 10 05 00
	00 00 00	 movss	 xmm0, DWORD PTR __mask@@NegFloat@
  00afb	f3 0f 11 9d 50
	ff ff ff	 movss	 DWORD PTR _v$537247[ebp+8], xmm3
  00b03	a5		 movsd
  00b04	8d 45 cc	 lea	 eax, DWORD PTR $T531935[ebp]
  00b07	a5		 movsd
  00b08	50		 push	 eax
  00b09	8d 45 90	 lea	 eax, DWORD PTR _vAxis$531934[ebp]
  00b0c	0f 57 c8	 xorps	 xmm1, xmm0
  00b0f	0f 57 d0	 xorps	 xmm2, xmm0
  00b12	0f 57 d8	 xorps	 xmm3, xmm0
  00b15	50		 push	 eax
  00b16	a5		 movsd
  00b17	f3 0f 11 4d cc	 movss	 DWORD PTR $T531935[ebp], xmm1
  00b1c	f3 0f 11 55 d0	 movss	 DWORD PTR $T531935[ebp+4], xmm2
  00b21	f3 0f 11 5d d4	 movss	 DWORD PTR $T531935[ebp+8], xmm3
  00b26	e8 00 00 00 00	 call	 _D3DXVec3Normalize@8

; 472  : 
; 473  : 						GetParentSceneNode()->Rotate( vAxis, fGapAngle );

  00b2b	8b 4b 04	 mov	 ecx, DWORD PTR [ebx+4]
  00b2e	f3 0f 10 45 80	 movss	 xmm0, DWORD PTR _fGapAngle$531929[ebp]
  00b33	8b 01		 mov	 eax, DWORD PTR [ecx]
  00b35	6a 01		 push	 1
  00b37	51		 push	 ecx
  00b38	8d 55 90	 lea	 edx, DWORD PTR _vAxis$531934[ebp]
  00b3b	f3 0f 11 04 24	 movss	 DWORD PTR [esp], xmm0
  00b40	52		 push	 edx
  00b41	ff 50 50	 call	 DWORD PTR [eax+80]
$LN1@OnTracing:

; 408  : 				float fCurLoopTimeGap;
; 409  : 				float fCurLoopTimePerSec;
; 410  : 				while( fTimeGap > 0.0f )

  00b44	f3 0f 10 85 78
	ff ff ff	 movss	 xmm0, DWORD PTR _fTimeGap$531888[ebp]
  00b4c	0f 2f 05 00 00
	00 00		 comiss	 xmm0, DWORD PTR __real@00000000
  00b53	0f 87 19 f8 ff
	ff		 ja	 $LL11@OnTracing
$LN173@OnTracing:

; 474  : 					}
; 475  : 				}
; 476  : 			}
; 477  : 		}
; 478  : 	}
; 479  : 
; 480  : 	float fMoveDist = m_fTraceSpeed * fTimePerSec;

  00b59	8d 85 74 ff ff
	ff		 lea	 eax, DWORD PTR _value$537266[ebp]
  00b5f	50		 push	 eax
  00b60	8d 8b 44 09 00
	00		 lea	 ecx, DWORD PTR [ebx+2372]
  00b66	e8 00 00 00 00	 call	 ?DecryptValueToPool@?$CEncrypt@M@@QAEXPAM@Z ; CEncrypt<float>::DecryptValueToPool
  00b6b	f3 0f 10 85 74
	ff ff ff	 movss	 xmm0, DWORD PTR _value$537266[ebp]
  00b73	f3 0f 10 4d 0c	 movss	 xmm1, DWORD PTR _fTimePerSec$[ebp]

; 481  : 	GetParentSceneNode()->Translate( m_vMoveDir * fMoveDist );

  00b78	8b 4b 04	 mov	 ecx, DWORD PTR [ebx+4]
  00b7b	0f 5a c9	 cvtps2pd xmm1, xmm1
  00b7e	0f 5a c0	 cvtps2pd xmm0, xmm0
  00b81	f2 0f 59 c1	 mulsd	 xmm0, xmm1
  00b85	f3 0f 10 8b 10
	0a 00 00	 movss	 xmm1, DWORD PTR [ebx+2576]
  00b8d	0f 5a c9	 cvtps2pd xmm1, xmm1
  00b90	66 0f 5a c0	 cvtpd2ps xmm0, xmm0
  00b94	0f 57 d2	 xorps	 xmm2, xmm2
  00b97	f3 0f 5a d0	 cvtss2sd xmm2, xmm0
  00b9b	f2 0f 59 ca	 mulsd	 xmm1, xmm2
  00b9f	66 0f 5a c9	 cvtpd2ps xmm1, xmm1
  00ba3	f3 0f 11 4d cc	 movss	 DWORD PTR $T531937[ebp], xmm1
  00ba8	f3 0f 10 8b 14
	0a 00 00	 movss	 xmm1, DWORD PTR [ebx+2580]
  00bb0	0f 5a c9	 cvtps2pd xmm1, xmm1
  00bb3	0f 57 d2	 xorps	 xmm2, xmm2
  00bb6	f3 0f 5a d0	 cvtss2sd xmm2, xmm0
  00bba	f2 0f 59 ca	 mulsd	 xmm1, xmm2
  00bbe	66 0f 5a c9	 cvtpd2ps xmm1, xmm1
  00bc2	f3 0f 5a c0	 cvtss2sd xmm0, xmm0
  00bc6	f3 0f 11 4d d0	 movss	 DWORD PTR $T531937[ebp+4], xmm1
  00bcb	f3 0f 10 8b 18
	0a 00 00	 movss	 xmm1, DWORD PTR [ebx+2584]
  00bd3	0f 5a c9	 cvtps2pd xmm1, xmm1
  00bd6	f2 0f 59 c8	 mulsd	 xmm1, xmm0
  00bda	6a 01		 push	 1
  00bdc	66 0f 5a c1	 cvtpd2ps xmm0, xmm1
  00be0	8d 55 cc	 lea	 edx, DWORD PTR $T531937[ebp]
  00be3	f3 0f 11 45 d4	 movss	 DWORD PTR $T531937[ebp+8], xmm0
  00be8	8b 01		 mov	 eax, DWORD PTR [ecx]
  00bea	52		 push	 edx
  00beb	ff 50 3c	 call	 DWORD PTR [eax+60]

; 482  : 
; 483  : 	UpdateWorldAttackBox( fTimePerSec, false );

  00bee	f3 0f 10 45 0c	 movss	 xmm0, DWORD PTR _fTimePerSec$[ebp]
  00bf3	8b 03		 mov	 eax, DWORD PTR [ebx]
  00bf5	6a 00		 push	 0
  00bf7	51		 push	 ecx
  00bf8	8b cb		 mov	 ecx, ebx
  00bfa	f3 0f 11 04 24	 movss	 DWORD PTR [esp], xmm0
  00bff	ff 90 38 01 00
	00		 call	 DWORD PTR [eax+312]
$LN175@OnTracing:
  00c05	5f		 pop	 edi
  00c06	5e		 pop	 esi
$LN21@OnTracing:

; 484  : }

  00c07	8b 4d fc	 mov	 ecx, DWORD PTR __$ArrayPad$[ebp]
  00c0a	33 cd		 xor	 ecx, ebp
  00c0c	5b		 pop	 ebx
  00c0d	e8 00 00 00 00	 call	 @__security_check_cookie@4
  00c12	c9		 leave
  00c13	c2 08 00	 ret	 8
?OnTracing@ioAttachWeapon@@IAEXPAVioPlayStage@@M@Z ENDP	; ioAttachWeapon::OnTracing
_TEXT	ENDS
PUBLIC	?SetTraceState@ioAttachWeapon@@IAEXPAVioPlayStage@@@Z ; ioAttachWeapon::SetTraceState
; Function compile flags: /Ogsp
;	COMDAT ?SetTraceState@ioAttachWeapon@@IAEXPAVioPlayStage@@@Z
_TEXT	SEGMENT
_value$537315 = 8					; size = 4
_pStage$ = 8						; size = 4
?SetTraceState@ioAttachWeapon@@IAEXPAVioPlayStage@@@Z PROC ; ioAttachWeapon::SetTraceState, COMDAT
; _this$ = ecx

; 487  : {

  00000	55		 push	 ebp
  00001	8b ec		 mov	 ebp, esp

; 488  : 	if( !pStage )

  00003	83 7d 08 00	 cmp	 DWORD PTR _pStage$[ebp], 0
  00007	56		 push	 esi
  00008	8b f1		 mov	 esi, ecx
  0000a	74 30		 je	 SHORT $LN2@SetTraceSt

; 489  : 		return;
; 490  : 
; 491  : 	m_State = TS_TRACING;
; 492  : 	m_dwTraceEndTime = FRAMEGETTIME() + m_dwTraceDuration;

  0000c	8d 45 08	 lea	 eax, DWORD PTR _value$537315[ebp]
  0000f	50		 push	 eax
  00010	8d 8e 2c 0a 00
	00		 lea	 ecx, DWORD PTR [esi+2604]
  00016	c7 86 94 08 00
	00 01 00 00 00	 mov	 DWORD PTR [esi+2196], 1
  00020	e8 00 00 00 00	 call	 ?DecryptValueToPool@?$CEncrypt@K@@QAEXPAK@Z ; CEncrypt<unsigned long>::DecryptValueToPool
  00025	ff 15 00 00 00
	00		 call	 DWORD PTR __imp_?GetSingleton@ioFrameTimer@@SAAAV1@XZ
  0002b	8b c8		 mov	 ecx, eax
  0002d	ff 15 00 00 00
	00		 call	 DWORD PTR __imp_?GetLoopSec@ioFrameTimer@@QBEKXZ
  00033	03 45 08	 add	 eax, DWORD PTR _value$537315[ebp]
  00036	89 86 5c 0a 00
	00		 mov	 DWORD PTR [esi+2652], eax
$LN2@SetTraceSt:
  0003c	5e		 pop	 esi

; 493  : }

  0003d	5d		 pop	 ebp
  0003e	c2 04 00	 ret	 4
?SetTraceState@ioAttachWeapon@@IAEXPAVioPlayStage@@@Z ENDP ; ioAttachWeapon::SetTraceState
_TEXT	ENDS
PUBLIC	??0?$vector@UChangeDirInfo@@V?$allocator@UChangeDirInfo@@@std@@@std@@QAE@XZ ; std::vector<ChangeDirInfo,std::allocator<ChangeDirInfo> >::vector<ChangeDirInfo,std::allocator<ChangeDirInfo> >
; Function compile flags: /Ogsp
; File c:\program files (x86)\microsoft visual studio 10.0\vc\include\vector
;	COMDAT ??0?$vector@UChangeDirInfo@@V?$allocator@UChangeDirInfo@@@std@@@std@@QAE@XZ
_TEXT	SEGMENT
??0?$vector@UChangeDirInfo@@V?$allocator@UChangeDirInfo@@@std@@@std@@QAE@XZ PROC ; std::vector<ChangeDirInfo,std::allocator<ChangeDirInfo> >::vector<ChangeDirInfo,std::allocator<ChangeDirInfo> >, COMDAT
; _this$ = ecx

; 507  : 		{	// construct empty vector

  00000	8b c1		 mov	 eax, ecx
  00002	33 c9		 xor	 ecx, ecx
  00004	89 08		 mov	 DWORD PTR [eax], ecx
  00006	89 48 04	 mov	 DWORD PTR [eax+4], ecx
  00009	89 48 08	 mov	 DWORD PTR [eax+8], ecx

; 508  : 		}

  0000c	c3		 ret	 0
??0?$vector@UChangeDirInfo@@V?$allocator@UChangeDirInfo@@@std@@@std@@QAE@XZ ENDP ; std::vector<ChangeDirInfo,std::allocator<ChangeDirInfo> >::vector<ChangeDirInfo,std::allocator<ChangeDirInfo> >
_TEXT	ENDS
PUBLIC	?begin@?$vector@UChangeDirInfo@@V?$allocator@UChangeDirInfo@@@std@@@std@@QAE?AV?$_Vector_iterator@V?$_Vector_val@UChangeDirInfo@@V?$allocator@UChangeDirInfo@@@std@@@std@@@2@XZ ; std::vector<ChangeDirInfo,std::allocator<ChangeDirInfo> >::begin
; Function compile flags: /Ogsp
;	COMDAT ?begin@?$vector@UChangeDirInfo@@V?$allocator@UChangeDirInfo@@@std@@@std@@QAE?AV?$_Vector_iterator@V?$_Vector_val@UChangeDirInfo@@V?$allocator@UChangeDirInfo@@@std@@@std@@@2@XZ
_TEXT	SEGMENT
___$ReturnUdt$ = 8					; size = 4
?begin@?$vector@UChangeDirInfo@@V?$allocator@UChangeDirInfo@@@std@@@std@@QAE?AV?$_Vector_iterator@V?$_Vector_val@UChangeDirInfo@@V?$allocator@UChangeDirInfo@@@std@@@std@@@2@XZ PROC ; std::vector<ChangeDirInfo,std::allocator<ChangeDirInfo> >::begin, COMDAT
; _this$ = ecx

; 781  : 		{	// return iterator for beginning of mutable sequence

  00000	55		 push	 ebp
  00001	8b ec		 mov	 ebp, esp

; 782  : 		return (iterator(this->_Myfirst, this));

  00003	8b 09		 mov	 ecx, DWORD PTR [ecx]
  00005	8b 45 08	 mov	 eax, DWORD PTR ___$ReturnUdt$[ebp]
  00008	89 08		 mov	 DWORD PTR [eax], ecx

; 783  : 		}

  0000a	5d		 pop	 ebp
  0000b	c2 04 00	 ret	 4
?begin@?$vector@UChangeDirInfo@@V?$allocator@UChangeDirInfo@@@std@@@std@@QAE?AV?$_Vector_iterator@V?$_Vector_val@UChangeDirInfo@@V?$allocator@UChangeDirInfo@@@std@@@std@@@2@XZ ENDP ; std::vector<ChangeDirInfo,std::allocator<ChangeDirInfo> >::begin
_TEXT	ENDS
PUBLIC	?end@?$vector@UChangeDirInfo@@V?$allocator@UChangeDirInfo@@@std@@@std@@QAE?AV?$_Vector_iterator@V?$_Vector_val@UChangeDirInfo@@V?$allocator@UChangeDirInfo@@@std@@@std@@@2@XZ ; std::vector<ChangeDirInfo,std::allocator<ChangeDirInfo> >::end
; Function compile flags: /Ogsp
;	COMDAT ?end@?$vector@UChangeDirInfo@@V?$allocator@UChangeDirInfo@@@std@@@std@@QAE?AV?$_Vector_iterator@V?$_Vector_val@UChangeDirInfo@@V?$allocator@UChangeDirInfo@@@std@@@std@@@2@XZ
_TEXT	SEGMENT
___$ReturnUdt$ = 8					; size = 4
?end@?$vector@UChangeDirInfo@@V?$allocator@UChangeDirInfo@@@std@@@std@@QAE?AV?$_Vector_iterator@V?$_Vector_val@UChangeDirInfo@@V?$allocator@UChangeDirInfo@@@std@@@std@@@2@XZ PROC ; std::vector<ChangeDirInfo,std::allocator<ChangeDirInfo> >::end, COMDAT
; _this$ = ecx

; 791  : 		{	// return iterator for end of mutable sequence

  00000	55		 push	 ebp
  00001	8b ec		 mov	 ebp, esp

; 792  : 		return (iterator(this->_Mylast, this));

  00003	8b 49 04	 mov	 ecx, DWORD PTR [ecx+4]
  00006	8b 45 08	 mov	 eax, DWORD PTR ___$ReturnUdt$[ebp]
  00009	89 08		 mov	 DWORD PTR [eax], ecx

; 793  : 		}

  0000b	5d		 pop	 ebp
  0000c	c2 04 00	 ret	 4
?end@?$vector@UChangeDirInfo@@V?$allocator@UChangeDirInfo@@@std@@@std@@QAE?AV?$_Vector_iterator@V?$_Vector_val@UChangeDirInfo@@V?$allocator@UChangeDirInfo@@@std@@@std@@@2@XZ ENDP ; std::vector<ChangeDirInfo,std::allocator<ChangeDirInfo> >::end
_TEXT	ENDS
PUBLIC	?_Make_iter@?$vector@UChangeDirInfo@@V?$allocator@UChangeDirInfo@@@std@@@std@@QBE?AV?$_Vector_iterator@V?$_Vector_val@UChangeDirInfo@@V?$allocator@UChangeDirInfo@@@std@@@std@@@2@V?$_Vector_const_iterator@V?$_Vector_val@UChangeDirInfo@@V?$allocator@UChangeDirInfo@@@std@@@std@@@2@@Z ; std::vector<ChangeDirInfo,std::allocator<ChangeDirInfo> >::_Make_iter
; Function compile flags: /Ogsp
;	COMDAT ?_Make_iter@?$vector@UChangeDirInfo@@V?$allocator@UChangeDirInfo@@@std@@@std@@QBE?AV?$_Vector_iterator@V?$_Vector_val@UChangeDirInfo@@V?$allocator@UChangeDirInfo@@@std@@@std@@@2@V?$_Vector_const_iterator@V?$_Vector_val@UChangeDirInfo@@V?$allocator@UChangeDirInfo@@@std@@@std@@@2@@Z
_TEXT	SEGMENT
___$ReturnUdt$ = 8					; size = 4
__Where$ = 12						; size = 4
?_Make_iter@?$vector@UChangeDirInfo@@V?$allocator@UChangeDirInfo@@@std@@@std@@QBE?AV?$_Vector_iterator@V?$_Vector_val@UChangeDirInfo@@V?$allocator@UChangeDirInfo@@@std@@@std@@@2@V?$_Vector_const_iterator@V?$_Vector_val@UChangeDirInfo@@V?$allocator@UChangeDirInfo@@@std@@@std@@@2@@Z PROC ; std::vector<ChangeDirInfo,std::allocator<ChangeDirInfo> >::_Make_iter, COMDAT
; _this$ = ecx

; 801  : 		{	// make iterator from const_iterator

  00000	55		 push	 ebp
  00001	8b ec		 mov	 ebp, esp

; 802  : 		return (iterator(_Where._Ptr, this));

  00003	8b 45 08	 mov	 eax, DWORD PTR ___$ReturnUdt$[ebp]
  00006	8b 4d 0c	 mov	 ecx, DWORD PTR __Where$[ebp]
  00009	89 08		 mov	 DWORD PTR [eax], ecx

; 803  : 		}

  0000b	5d		 pop	 ebp
  0000c	c2 08 00	 ret	 8
?_Make_iter@?$vector@UChangeDirInfo@@V?$allocator@UChangeDirInfo@@@std@@@std@@QBE?AV?$_Vector_iterator@V?$_Vector_val@UChangeDirInfo@@V?$allocator@UChangeDirInfo@@@std@@@std@@@2@V?$_Vector_const_iterator@V?$_Vector_val@UChangeDirInfo@@V?$allocator@UChangeDirInfo@@@std@@@std@@@2@@Z ENDP ; std::vector<ChangeDirInfo,std::allocator<ChangeDirInfo> >::_Make_iter
_TEXT	ENDS
PUBLIC	?_Grow_to@?$vector@VioHashString@@V?$allocator@VioHashString@@@std@@@std@@IBEII@Z ; std::vector<ioHashString,std::allocator<ioHashString> >::_Grow_to
; Function compile flags: /Ogsp
;	COMDAT ?_Grow_to@?$vector@VioHashString@@V?$allocator@VioHashString@@@std@@@std@@IBEII@Z
_TEXT	SEGMENT
__Count$ = 8						; size = 4
?_Grow_to@?$vector@VioHashString@@V?$allocator@VioHashString@@@std@@@std@@IBEII@Z PROC ; std::vector<ioHashString,std::allocator<ioHashString> >::_Grow_to, COMDAT
; _this$ = ecx

; 1274 : 		{	// grow by 50% or at least to _Count

  00000	55		 push	 ebp
  00001	8b ec		 mov	 ebp, esp

; 1275 : 		size_type _Capacity = capacity();

  00003	8b 41 08	 mov	 eax, DWORD PTR [ecx+8]
  00006	2b 01		 sub	 eax, DWORD PTR [ecx]

; 1276 : 
; 1277 : 		_Capacity = max_size() - _Capacity / 2 < _Capacity
; 1278 : 			? 0 : _Capacity + _Capacity / 2;	// try to grow by 50%

  00008	ba ff ff ff 0f	 mov	 edx, 268435455		; 0fffffffH
  0000d	c1 f8 04	 sar	 eax, 4
  00010	8b c8		 mov	 ecx, eax
  00012	d1 e9		 shr	 ecx, 1
  00014	2b d1		 sub	 edx, ecx
  00016	3b d0		 cmp	 edx, eax
  00018	73 04		 jae	 SHORT $LN4@Grow_to@2
  0001a	33 c0		 xor	 eax, eax
  0001c	eb 02		 jmp	 SHORT $LN5@Grow_to@2
$LN4@Grow_to@2:
  0001e	03 c1		 add	 eax, ecx
$LN5@Grow_to@2:

; 1279 : 		if (_Capacity < _Count)

  00020	3b 45 08	 cmp	 eax, DWORD PTR __Count$[ebp]

; 1280 : 			_Capacity = _Count;

  00023	0f 42 45 08	 cmovb	 eax, DWORD PTR __Count$[ebp]

; 1281 : 		return (_Capacity);
; 1282 : 		}

  00027	5d		 pop	 ebp
  00028	c2 04 00	 ret	 4
?_Grow_to@?$vector@VioHashString@@V?$allocator@VioHashString@@@std@@@std@@IBEII@Z ENDP ; std::vector<ioHashString,std::allocator<ioHashString> >::_Grow_to
_TEXT	ENDS
PUBLIC	??9?$_Vector_const_iterator@V?$_Vector_val@UChangeDirInfo@@V?$allocator@UChangeDirInfo@@@std@@@std@@@std@@QBE_NABV01@@Z ; std::_Vector_const_iterator<std::_Vector_val<ChangeDirInfo,std::allocator<ChangeDirInfo> > >::operator!=
; Function compile flags: /Ogsp
;	COMDAT ??9?$_Vector_const_iterator@V?$_Vector_val@UChangeDirInfo@@V?$allocator@UChangeDirInfo@@@std@@@std@@@std@@QBE_NABV01@@Z
_TEXT	SEGMENT
__Right$ = 8						; size = 4
??9?$_Vector_const_iterator@V?$_Vector_val@UChangeDirInfo@@V?$allocator@UChangeDirInfo@@@std@@@std@@@std@@QBE_NABV01@@Z PROC ; std::_Vector_const_iterator<std::_Vector_val<ChangeDirInfo,std::allocator<ChangeDirInfo> > >::operator!=, COMDAT
; _this$ = ecx

; 207  : 		{	// test for iterator inequality

  00000	55		 push	 ebp
  00001	8b ec		 mov	 ebp, esp

; 208  : 		return (!(*this == _Right));

  00003	8b 01		 mov	 eax, DWORD PTR [ecx]
  00005	8b 55 08	 mov	 edx, DWORD PTR __Right$[ebp]
  00008	33 c9		 xor	 ecx, ecx
  0000a	3b 02		 cmp	 eax, DWORD PTR [edx]
  0000c	0f 95 c0	 setne	 al

; 209  : 		}

  0000f	5d		 pop	 ebp
  00010	c2 04 00	 ret	 4
??9?$_Vector_const_iterator@V?$_Vector_val@UChangeDirInfo@@V?$allocator@UChangeDirInfo@@@std@@@std@@@std@@QBE_NABV01@@Z ENDP ; std::_Vector_const_iterator<std::_Vector_val<ChangeDirInfo,std::allocator<ChangeDirInfo> > >::operator!=
_TEXT	ENDS
PUBLIC	??$_Cons_val@V?$allocator@VioHashString@@@std@@VioHashString@@AAV3@@std@@YAXAAV?$allocator@VioHashString@@@0@PAVioHashString@@AAV2@@Z ; std::_Cons_val<std::allocator<ioHashString>,ioHashString,ioHashString &>
; Function compile flags: /Ogsp
; File c:\program files (x86)\microsoft visual studio 10.0\vc\include\xmemory
;	COMDAT ??$_Cons_val@V?$allocator@VioHashString@@@std@@VioHashString@@AAV3@@std@@YAXAAV?$allocator@VioHashString@@@0@PAVioHashString@@AAV2@@Z
_TEXT	SEGMENT
__Alval$ = 8						; size = 4
__Pdest$ = 12						; size = 4
__Src$ = 16						; size = 4
??$_Cons_val@V?$allocator@VioHashString@@@std@@VioHashString@@AAV3@@std@@YAXAAV?$allocator@VioHashString@@@0@PAVioHashString@@AAV2@@Z PROC ; std::_Cons_val<std::allocator<ioHashString>,ioHashString,ioHashString &>, COMDAT

; 279  : 	{	// construct using allocator

  00000	55		 push	 ebp
  00001	8b ec		 mov	 ebp, esp

; 280  : 	_Alval.construct(_Pdest, _STD forward<_Ty2>(_Src));

  00003	ff 75 10	 push	 DWORD PTR __Src$[ebp]
  00006	8b 4d 08	 mov	 ecx, DWORD PTR __Alval$[ebp]
  00009	ff 75 0c	 push	 DWORD PTR __Pdest$[ebp]
  0000c	e8 00 00 00 00	 call	 ??$construct@AAVioHashString@@@?$allocator@VioHashString@@@std@@QAEXPAVioHashString@@AAV2@@Z ; std::allocator<ioHashString>::construct<ioHashString &>

; 281  : 	}

  00011	5d		 pop	 ebp
  00012	c3		 ret	 0
??$_Cons_val@V?$allocator@VioHashString@@@std@@VioHashString@@AAV3@@std@@YAXAAV?$allocator@VioHashString@@@0@PAVioHashString@@AAV2@@Z ENDP ; std::_Cons_val<std::allocator<ioHashString>,ioHashString,ioHashString &>
_TEXT	ENDS
PUBLIC	??$_Cons_val@V?$allocator@UChangeDirInfo@@@std@@UChangeDirInfo@@ABU3@@std@@YAXAAV?$allocator@UChangeDirInfo@@@0@PAUChangeDirInfo@@ABU2@@Z ; std::_Cons_val<std::allocator<ChangeDirInfo>,ChangeDirInfo,ChangeDirInfo const &>
; Function compile flags: /Ogsp
;	COMDAT ??$_Cons_val@V?$allocator@UChangeDirInfo@@@std@@UChangeDirInfo@@ABU3@@std@@YAXAAV?$allocator@UChangeDirInfo@@@0@PAUChangeDirInfo@@ABU2@@Z
_TEXT	SEGMENT
__Alval$ = 8						; size = 4
__Pdest$ = 12						; size = 4
__Src$ = 16						; size = 4
??$_Cons_val@V?$allocator@UChangeDirInfo@@@std@@UChangeDirInfo@@ABU3@@std@@YAXAAV?$allocator@UChangeDirInfo@@@0@PAUChangeDirInfo@@ABU2@@Z PROC ; std::_Cons_val<std::allocator<ChangeDirInfo>,ChangeDirInfo,ChangeDirInfo const &>, COMDAT

; 279  : 	{	// construct using allocator

  00000	55		 push	 ebp
  00001	8b ec		 mov	 ebp, esp
  00003	57		 push	 edi

; 280  : 	_Alval.construct(_Pdest, _STD forward<_Ty2>(_Src));

  00004	8b 7d 0c	 mov	 edi, DWORD PTR __Pdest$[ebp]
  00007	85 ff		 test	 edi, edi
  00009	74 0a		 je	 SHORT $LN9@Cons_val@2
  0000b	56		 push	 esi
  0000c	8b 75 10	 mov	 esi, DWORD PTR __Src$[ebp]
  0000f	6a 07		 push	 7
  00011	59		 pop	 ecx
  00012	f3 a5		 rep movsd
  00014	5e		 pop	 esi
$LN9@Cons_val@2:
  00015	5f		 pop	 edi

; 281  : 	}

  00016	5d		 pop	 ebp
  00017	c3		 ret	 0
??$_Cons_val@V?$allocator@UChangeDirInfo@@@std@@UChangeDirInfo@@ABU3@@std@@YAXAAV?$allocator@UChangeDirInfo@@@0@PAUChangeDirInfo@@ABU2@@Z ENDP ; std::_Cons_val<std::allocator<ChangeDirInfo>,ChangeDirInfo,ChangeDirInfo const &>
_TEXT	ENDS
PUBLIC	??$_Move@PAUChangeDirInfo@@PAU1@@std@@YAPAUChangeDirInfo@@PAU1@00@Z ; std::_Move<ChangeDirInfo *,ChangeDirInfo *>
; Function compile flags: /Ogsp
; File c:\program files (x86)\microsoft visual studio 10.0\vc\include\xutility
;	COMDAT ??$_Move@PAUChangeDirInfo@@PAU1@@std@@YAPAUChangeDirInfo@@PAU1@00@Z
_TEXT	SEGMENT
__Cat$537471 = -4					; size = 1
__First$ = 8						; size = 4
__Last$ = 12						; size = 4
__Dest$ = 16						; size = 4
??$_Move@PAUChangeDirInfo@@PAU1@@std@@YAPAUChangeDirInfo@@PAU1@00@Z PROC ; std::_Move<ChangeDirInfo *,ChangeDirInfo *>, COMDAT

; 2533 : 	{	// move [_First, _Last) to [_Dest, ...), unchecked

  00000	55		 push	 ebp
  00001	8b ec		 mov	 ebp, esp
  00003	51		 push	 ecx

; 2534 : 	return (_Move(_First, _Last,
; 2535 : 		_Dest, _Ptr_cat(_First, _Dest)));

  00004	ff 75 fc	 push	 DWORD PTR __Cat$537471[ebp]
  00007	ff 75 10	 push	 DWORD PTR __Dest$[ebp]
  0000a	ff 75 0c	 push	 DWORD PTR __Last$[ebp]
  0000d	ff 75 08	 push	 DWORD PTR __First$[ebp]
  00010	e8 00 00 00 00	 call	 ??$_Move@PAUChangeDirInfo@@PAU1@@std@@YAPAUChangeDirInfo@@PAU1@00U_Nonscalar_ptr_iterator_tag@0@@Z ; std::_Move<ChangeDirInfo *,ChangeDirInfo *>
  00015	83 c4 10	 add	 esp, 16			; 00000010H

; 2536 : 	}

  00018	c9		 leave
  00019	c3		 ret	 0
??$_Move@PAUChangeDirInfo@@PAU1@@std@@YAPAUChangeDirInfo@@PAU1@00@Z ENDP ; std::_Move<ChangeDirInfo *,ChangeDirInfo *>
_TEXT	ENDS
PUBLIC	??$_Dest_val@V?$allocator@UChangeDirInfo@@@std@@UChangeDirInfo@@@std@@YAXAAV?$allocator@UChangeDirInfo@@@0@PAUChangeDirInfo@@@Z ; std::_Dest_val<std::allocator<ChangeDirInfo>,ChangeDirInfo>
; Function compile flags: /Ogsp
; File c:\program files (x86)\microsoft visual studio 10.0\vc\include\xmemory
;	COMDAT ??$_Dest_val@V?$allocator@UChangeDirInfo@@@std@@UChangeDirInfo@@@std@@YAXAAV?$allocator@UChangeDirInfo@@@0@PAUChangeDirInfo@@@Z
_TEXT	SEGMENT
__Alval$ = 8						; size = 4
__Pdest$ = 12						; size = 4
??$_Dest_val@V?$allocator@UChangeDirInfo@@@std@@UChangeDirInfo@@@std@@YAXAAV?$allocator@UChangeDirInfo@@@0@PAUChangeDirInfo@@@Z PROC ; std::_Dest_val<std::allocator<ChangeDirInfo>,ChangeDirInfo>, COMDAT

; 287  : 	_Alval.destroy(_Pdest);
; 288  : 	}

  00000	c3		 ret	 0
??$_Dest_val@V?$allocator@UChangeDirInfo@@@std@@UChangeDirInfo@@@std@@YAXAAV?$allocator@UChangeDirInfo@@@0@PAUChangeDirInfo@@@Z ENDP ; std::_Dest_val<std::allocator<ChangeDirInfo>,ChangeDirInfo>
_TEXT	ENDS
PUBLIC	??$iter_swap@PAUChangeDirInfo@@PAU1@@std@@YAXPAUChangeDirInfo@@0@Z ; std::iter_swap<ChangeDirInfo *,ChangeDirInfo *>
; Function compile flags: /Ogsp
; File c:\program files (x86)\microsoft visual studio 10.0\vc\include\xutility
;	COMDAT ??$iter_swap@PAUChangeDirInfo@@PAU1@@std@@YAXPAUChangeDirInfo@@0@Z
_TEXT	SEGMENT
__Left$ = 8						; size = 4
__Right$ = 12						; size = 4
??$iter_swap@PAUChangeDirInfo@@PAU1@@std@@YAXPAUChangeDirInfo@@0@Z PROC ; std::iter_swap<ChangeDirInfo *,ChangeDirInfo *>, COMDAT

; 2133 : 	{	// swap *_Left and *_Right

  00000	55		 push	 ebp
  00001	8b ec		 mov	 ebp, esp

; 2135 : 	}

  00003	5d		 pop	 ebp

; 2134 : 	swap(*_Left, *_Right);

  00004	e9 00 00 00 00	 jmp	 ??$swap@UChangeDirInfo@@@std@@YAXAAUChangeDirInfo@@0@Z ; std::swap<ChangeDirInfo>
??$iter_swap@PAUChangeDirInfo@@PAU1@@std@@YAXPAUChangeDirInfo@@0@Z ENDP ; std::iter_swap<ChangeDirInfo *,ChangeDirInfo *>
_TEXT	ENDS
PUBLIC	??$_Insertion_sort1@PAUChangeDirInfo@@VChangeDirSort@@U1@@std@@YAXPAUChangeDirInfo@@0VChangeDirSort@@0@Z ; std::_Insertion_sort1<ChangeDirInfo *,ChangeDirSort,ChangeDirInfo>
; Function compile flags: /Ogsp
; File c:\program files (x86)\microsoft visual studio 10.0\vc\include\algorithm
;	COMDAT ??$_Insertion_sort1@PAUChangeDirInfo@@VChangeDirSort@@U1@@std@@YAXPAUChangeDirInfo@@0VChangeDirSort@@0@Z
_TEXT	SEGMENT
__Val$534932 = -32					; size = 28
__Next1$534931 = -4					; size = 4
__Cat$537512 = 8					; size = 1
__First$ = 8						; size = 4
__Last$ = 12						; size = 4
__Pred$ = 16						; size = 1
___formal$ = 20						; size = 4
??$_Insertion_sort1@PAUChangeDirInfo@@VChangeDirSort@@U1@@std@@YAXPAUChangeDirInfo@@0VChangeDirSort@@0@Z PROC ; std::_Insertion_sort1<ChangeDirInfo *,ChangeDirSort,ChangeDirInfo>, COMDAT

; 3650 : 	{	// insertion sort [_First, _Last), using _Pred

  00000	55		 push	 ebp
  00001	8b ec		 mov	 ebp, esp

; 3651 : 	if (_First != _Last)

  00003	8b 55 08	 mov	 edx, DWORD PTR __First$[ebp]
  00006	83 ec 20	 sub	 esp, 32			; 00000020H
  00009	3b 55 0c	 cmp	 edx, DWORD PTR __Last$[ebp]
  0000c	0f 84 e1 00 00
	00		 je	 $LN6@Insertion_

; 3652 : 		for (_BidIt _Next = _First; ++_Next != _Last; )

  00012	53		 push	 ebx
  00013	8d 5a 1c	 lea	 ebx, DWORD PTR [edx+28]
  00016	3b 5d 0c	 cmp	 ebx, DWORD PTR __Last$[ebp]
  00019	0f 84 d3 00 00
	00		 je	 $LN40@Insertion_
  0001f	56		 push	 esi
  00020	57		 push	 edi
  00021	eb 03		 jmp	 SHORT $LN7@Insertion_
$LL39@Insertion_:
  00023	8b 55 08	 mov	 edx, DWORD PTR __First$[ebp]
$LN7@Insertion_:

; 3653 : 			{	// order next element
; 3654 : 			_BidIt _Next1 = _Next;
; 3655 : 			_Ty _Val = _Move(*_Next);
; 3656 : 
; 3657 : 			if (_DEBUG_LT_PRED(_Pred, _Val, *_First))

  00026	f3 0f 10 02	 movss	 xmm0, DWORD PTR [edx]
  0002a	6a 07		 push	 7
  0002c	59		 pop	 ecx
  0002d	8b f3		 mov	 esi, ebx
  0002f	8d 7d e0	 lea	 edi, DWORD PTR __Val$534932[ebp]
  00032	f3 a5		 rep movsd
  00034	f3 0f 10 4d e0	 movss	 xmm1, DWORD PTR __Val$534932[ebp]
  00039	0f 5a d1	 cvtps2pd xmm2, xmm1
  0003c	0f 5a d8	 cvtps2pd xmm3, xmm0
  0003f	66 0f 2f da	 comisd	 xmm3, xmm2
  00043	89 5d fc	 mov	 DWORD PTR __Next1$534931[ebp], ebx
  00046	77 29		 ja	 SHORT $LN37@Insertion_
  00048	0f 57 d2	 xorps	 xmm2, xmm2
  0004b	0f 5a d1	 cvtps2pd xmm2, xmm1
  0004e	0f 5a c0	 cvtps2pd xmm0, xmm0
  00051	66 0f 2e d0	 ucomisd xmm2, xmm0
  00055	9f		 lahf
  00056	f6 c4 44	 test	 ah, 68			; 00000044H
  00059	7a 2c		 jp	 SHORT $LN5@Insertion_
  0005b	f3 0f 10 45 ec	 movss	 xmm0, DWORD PTR __Val$534932[ebp+12]
  00060	f3 0f 10 52 0c	 movss	 xmm2, DWORD PTR [edx+12]
  00065	0f 5a c0	 cvtps2pd xmm0, xmm0
  00068	0f 5a d2	 cvtps2pd xmm2, xmm2
  0006b	66 0f 2f d0	 comisd	 xmm2, xmm0
  0006f	76 16		 jbe	 SHORT $LN5@Insertion_
$LN37@Insertion_:

; 3658 : 				{	// found new earliest element, move to front
; 3659 : 				_Move_backward(_First, _Next, ++_Next1);

  00071	ff 75 08	 push	 DWORD PTR __Cat$537512[ebp]
  00074	8d 43 1c	 lea	 eax, DWORD PTR [ebx+28]
  00077	50		 push	 eax
  00078	53		 push	 ebx
  00079	52		 push	 edx
  0007a	e8 00 00 00 00	 call	 ??$_Move_backward@PAUChangeDirInfo@@PAU1@@std@@YAPAUChangeDirInfo@@PAU1@00U_Nonscalar_ptr_iterator_tag@0@@Z ; std::_Move_backward<ChangeDirInfo *,ChangeDirInfo *>

; 3660 : 				*_First = _Move(_Val);

  0007f	8b 7d 08	 mov	 edi, DWORD PTR __First$[ebp]
  00082	83 c4 10	 add	 esp, 16			; 00000010H

; 3661 : 				}
; 3662 : 			else

  00085	eb 55		 jmp	 SHORT $LN42@Insertion_
$LN5@Insertion_:

; 3663 : 				{	// look for insertion point after first
; 3664 : 				for (_BidIt _First1 = _Next1;

  00087	8b d3		 mov	 edx, ebx
$LL3@Insertion_:

; 3665 : 					_DEBUG_LT_PRED(_Pred, _Val, *--_First1);
; 3666 : 					_Next1 = _First1)

  00089	83 ea 1c	 sub	 edx, 28			; 0000001cH
  0008c	f3 0f 10 02	 movss	 xmm0, DWORD PTR [edx]
  00090	0f 57 d2	 xorps	 xmm2, xmm2
  00093	f3 0f 5a d1	 cvtss2sd xmm2, xmm1
  00097	0f 5a d8	 cvtps2pd xmm3, xmm0
  0009a	66 0f 2f da	 comisd	 xmm3, xmm2
  0009e	77 2a		 ja	 SHORT $LN38@Insertion_
  000a0	0f 57 d2	 xorps	 xmm2, xmm2
  000a3	f3 0f 5a d1	 cvtss2sd xmm2, xmm1
  000a7	0f 5a c0	 cvtps2pd xmm0, xmm0
  000aa	66 0f 2e d0	 ucomisd xmm2, xmm0
  000ae	9f		 lahf
  000af	f6 c4 44	 test	 ah, 68			; 00000044H
  000b2	7a 25		 jp	 SHORT $LN25@Insertion_
  000b4	f3 0f 10 45 ec	 movss	 xmm0, DWORD PTR __Val$534932[ebp+12]
  000b9	f3 0f 10 52 0c	 movss	 xmm2, DWORD PTR [edx+12]
  000be	0f 5a c0	 cvtps2pd xmm0, xmm0
  000c1	0f 5a d2	 cvtps2pd xmm2, xmm2
  000c4	66 0f 2f d0	 comisd	 xmm2, xmm0
  000c8	76 0f		 jbe	 SHORT $LN25@Insertion_
$LN38@Insertion_:

; 3667 : 					*_Next1 = _Move(*_First1);	// move hole down

  000ca	8b 7d fc	 mov	 edi, DWORD PTR __Next1$534931[ebp]
  000cd	6a 07		 push	 7
  000cf	59		 pop	 ecx
  000d0	8b f2		 mov	 esi, edx
  000d2	f3 a5		 rep movsd
  000d4	89 55 fc	 mov	 DWORD PTR __Next1$534931[ebp], edx
  000d7	eb b0		 jmp	 SHORT $LL3@Insertion_

; 3665 : 					_DEBUG_LT_PRED(_Pred, _Val, *--_First1);
; 3666 : 					_Next1 = _First1)

$LN25@Insertion_:

; 3668 : 				*_Next1 = _Move(_Val);	// insert element in hole

  000d9	8b 7d fc	 mov	 edi, DWORD PTR __Next1$534931[ebp]
$LN42@Insertion_:
  000dc	6a 07		 push	 7
  000de	83 c3 1c	 add	 ebx, 28			; 0000001cH
  000e1	59		 pop	 ecx
  000e2	8d 75 e0	 lea	 esi, DWORD PTR __Val$534932[ebp]
  000e5	f3 a5		 rep movsd
  000e7	3b 5d 0c	 cmp	 ebx, DWORD PTR __Last$[ebp]
  000ea	0f 85 33 ff ff
	ff		 jne	 $LL39@Insertion_
  000f0	5f		 pop	 edi
  000f1	5e		 pop	 esi
$LN40@Insertion_:
  000f2	5b		 pop	 ebx
$LN6@Insertion_:

; 3669 : 				}
; 3670 : 			}
; 3671 : 	}

  000f3	c9		 leave
  000f4	c3		 ret	 0
??$_Insertion_sort1@PAUChangeDirInfo@@VChangeDirSort@@U1@@std@@YAXPAUChangeDirInfo@@0VChangeDirSort@@0@Z ENDP ; std::_Insertion_sort1<ChangeDirInfo *,ChangeDirSort,ChangeDirInfo>
_TEXT	ENDS
PUBLIC	??$_Cons_val@V?$allocator@UChangeDirInfo@@@std@@UChangeDirInfo@@U3@@std@@YAXAAV?$allocator@UChangeDirInfo@@@0@PAUChangeDirInfo@@$$QAU2@@Z ; std::_Cons_val<std::allocator<ChangeDirInfo>,ChangeDirInfo,ChangeDirInfo>
; Function compile flags: /Ogsp
; File c:\program files (x86)\microsoft visual studio 10.0\vc\include\xmemory
;	COMDAT ??$_Cons_val@V?$allocator@UChangeDirInfo@@@std@@UChangeDirInfo@@U3@@std@@YAXAAV?$allocator@UChangeDirInfo@@@0@PAUChangeDirInfo@@$$QAU2@@Z
_TEXT	SEGMENT
__Alval$ = 8						; size = 4
__Pdest$ = 12						; size = 4
__Src$ = 16						; size = 4
??$_Cons_val@V?$allocator@UChangeDirInfo@@@std@@UChangeDirInfo@@U3@@std@@YAXAAV?$allocator@UChangeDirInfo@@@0@PAUChangeDirInfo@@$$QAU2@@Z PROC ; std::_Cons_val<std::allocator<ChangeDirInfo>,ChangeDirInfo,ChangeDirInfo>, COMDAT

; 279  : 	{	// construct using allocator

  00000	55		 push	 ebp
  00001	8b ec		 mov	 ebp, esp
  00003	57		 push	 edi

; 280  : 	_Alval.construct(_Pdest, _STD forward<_Ty2>(_Src));

  00004	8b 7d 0c	 mov	 edi, DWORD PTR __Pdest$[ebp]
  00007	85 ff		 test	 edi, edi
  00009	74 0a		 je	 SHORT $LN7@Cons_val@3
  0000b	56		 push	 esi
  0000c	8b 75 10	 mov	 esi, DWORD PTR __Src$[ebp]
  0000f	6a 07		 push	 7
  00011	59		 pop	 ecx
  00012	f3 a5		 rep movsd
  00014	5e		 pop	 esi
$LN7@Cons_val@3:
  00015	5f		 pop	 edi

; 281  : 	}

  00016	5d		 pop	 ebp
  00017	c3		 ret	 0
??$_Cons_val@V?$allocator@UChangeDirInfo@@@std@@UChangeDirInfo@@U3@@std@@YAXAAV?$allocator@UChangeDirInfo@@@0@PAUChangeDirInfo@@$$QAU2@@Z ENDP ; std::_Cons_val<std::allocator<ChangeDirInfo>,ChangeDirInfo,ChangeDirInfo>
_TEXT	ENDS
PUBLIC	??$_Cons_val@V?$allocator@VioHashString@@@std@@VioHashString@@V3@@std@@YAXAAV?$allocator@VioHashString@@@0@PAVioHashString@@$$QAV2@@Z ; std::_Cons_val<std::allocator<ioHashString>,ioHashString,ioHashString>
; Function compile flags: /Ogsp
;	COMDAT ??$_Cons_val@V?$allocator@VioHashString@@@std@@VioHashString@@V3@@std@@YAXAAV?$allocator@VioHashString@@@0@PAVioHashString@@$$QAV2@@Z
_TEXT	SEGMENT
__Alval$ = 8						; size = 4
__Pdest$ = 12						; size = 4
__Src$ = 16						; size = 4
??$_Cons_val@V?$allocator@VioHashString@@@std@@VioHashString@@V3@@std@@YAXAAV?$allocator@VioHashString@@@0@PAVioHashString@@$$QAV2@@Z PROC ; std::_Cons_val<std::allocator<ioHashString>,ioHashString,ioHashString>, COMDAT

; 279  : 	{	// construct using allocator

  00000	55		 push	 ebp
  00001	8b ec		 mov	 ebp, esp

; 280  : 	_Alval.construct(_Pdest, _STD forward<_Ty2>(_Src));

  00003	ff 75 10	 push	 DWORD PTR __Src$[ebp]
  00006	8b 4d 08	 mov	 ecx, DWORD PTR __Alval$[ebp]
  00009	ff 75 0c	 push	 DWORD PTR __Pdest$[ebp]
  0000c	e8 00 00 00 00	 call	 ?construct@?$allocator@VioHashString@@@std@@QAEXPAVioHashString@@$$QAV3@@Z ; std::allocator<ioHashString>::construct

; 281  : 	}

  00011	5d		 pop	 ebp
  00012	c3		 ret	 0
??$_Cons_val@V?$allocator@VioHashString@@@std@@VioHashString@@V3@@std@@YAXAAV?$allocator@VioHashString@@@0@PAVioHashString@@$$QAV2@@Z ENDP ; std::_Cons_val<std::allocator<ioHashString>,ioHashString,ioHashString>
_TEXT	ENDS
PUBLIC	??$_Med3@PAUChangeDirInfo@@VChangeDirSort@@@std@@YAXPAUChangeDirInfo@@00VChangeDirSort@@@Z ; std::_Med3<ChangeDirInfo *,ChangeDirSort>
; Function compile flags: /Ogsp
; File c:\program files (x86)\microsoft visual studio 10.0\vc\include\algorithm
;	COMDAT ??$_Med3@PAUChangeDirInfo@@VChangeDirSort@@@std@@YAXPAUChangeDirInfo@@00VChangeDirSort@@@Z
_TEXT	SEGMENT
__First$ = 8						; size = 4
__Mid$ = 12						; size = 4
__Last$ = 16						; size = 4
__Pred$ = 20						; size = 1
??$_Med3@PAUChangeDirInfo@@VChangeDirSort@@@std@@YAXPAUChangeDirInfo@@00VChangeDirSort@@@Z PROC ; std::_Med3<ChangeDirInfo *,ChangeDirSort>, COMDAT

; 3683 : 	{	// sort median of three elements to middle

  00000	55		 push	 ebp
  00001	8b ec		 mov	 ebp, esp
  00003	56		 push	 esi

; 3684 : 	if (_DEBUG_LT_PRED(_Pred, *_Mid, *_First))

  00004	8b 75 0c	 mov	 esi, DWORD PTR __Mid$[ebp]
  00007	f3 0f 10 06	 movss	 xmm0, DWORD PTR [esi]
  0000b	57		 push	 edi
  0000c	8b 7d 08	 mov	 edi, DWORD PTR __First$[ebp]
  0000f	f3 0f 10 0f	 movss	 xmm1, DWORD PTR [edi]
  00013	0f 5a d0	 cvtps2pd xmm2, xmm0
  00016	0f 5a d9	 cvtps2pd xmm3, xmm1
  00019	66 0f 2f da	 comisd	 xmm3, xmm2
  0001d	77 26		 ja	 SHORT $LN30@Med3
  0001f	0f 5a c0	 cvtps2pd xmm0, xmm0
  00022	0f 5a c9	 cvtps2pd xmm1, xmm1
  00025	66 0f 2e c1	 ucomisd xmm0, xmm1
  00029	9f		 lahf
  0002a	f6 c4 44	 test	 ah, 68			; 00000044H
  0002d	7a 1f		 jp	 SHORT $LN12@Med3
  0002f	f3 0f 10 46 0c	 movss	 xmm0, DWORD PTR [esi+12]
  00034	f3 0f 10 4f 0c	 movss	 xmm1, DWORD PTR [edi+12]
  00039	0f 5a c0	 cvtps2pd xmm0, xmm0
  0003c	0f 5a c9	 cvtps2pd xmm1, xmm1
  0003f	66 0f 2f c8	 comisd	 xmm1, xmm0
  00043	76 09		 jbe	 SHORT $LN12@Med3
$LN30@Med3:

; 3685 : 		_STD iter_swap(_Mid, _First);

  00045	57		 push	 edi
  00046	56		 push	 esi
  00047	e8 00 00 00 00	 call	 ??$swap@UChangeDirInfo@@@std@@YAXAAUChangeDirInfo@@0@Z ; std::swap<ChangeDirInfo>
  0004c	59		 pop	 ecx
  0004d	59		 pop	 ecx
$LN12@Med3:

; 3686 : 	if (_DEBUG_LT_PRED(_Pred, *_Last, *_Mid))

  0004e	8b 4d 10	 mov	 ecx, DWORD PTR __Last$[ebp]
  00051	f3 0f 10 01	 movss	 xmm0, DWORD PTR [ecx]
  00055	f3 0f 10 0e	 movss	 xmm1, DWORD PTR [esi]
  00059	0f 5a d0	 cvtps2pd xmm2, xmm0
  0005c	0f 5a d9	 cvtps2pd xmm3, xmm1
  0005f	66 0f 2f da	 comisd	 xmm3, xmm2
  00063	77 26		 ja	 SHORT $LN31@Med3
  00065	0f 5a c0	 cvtps2pd xmm0, xmm0
  00068	0f 5a c9	 cvtps2pd xmm1, xmm1
  0006b	66 0f 2e c1	 ucomisd xmm0, xmm1
  0006f	9f		 lahf
  00070	f6 c4 44	 test	 ah, 68			; 00000044H
  00073	7a 1f		 jp	 SHORT $LN20@Med3
  00075	f3 0f 10 41 0c	 movss	 xmm0, DWORD PTR [ecx+12]
  0007a	f3 0f 10 4e 0c	 movss	 xmm1, DWORD PTR [esi+12]
  0007f	0f 5a c0	 cvtps2pd xmm0, xmm0
  00082	0f 5a c9	 cvtps2pd xmm1, xmm1
  00085	66 0f 2f c8	 comisd	 xmm1, xmm0
  00089	76 09		 jbe	 SHORT $LN20@Med3
$LN31@Med3:

; 3687 : 		_STD iter_swap(_Last, _Mid);

  0008b	56		 push	 esi
  0008c	51		 push	 ecx
  0008d	e8 00 00 00 00	 call	 ??$swap@UChangeDirInfo@@@std@@YAXAAUChangeDirInfo@@0@Z ; std::swap<ChangeDirInfo>
  00092	59		 pop	 ecx
  00093	59		 pop	 ecx
$LN20@Med3:

; 3688 : 	if (_DEBUG_LT_PRED(_Pred, *_Mid, *_First))

  00094	f3 0f 10 06	 movss	 xmm0, DWORD PTR [esi]
  00098	f3 0f 10 0f	 movss	 xmm1, DWORD PTR [edi]
  0009c	0f 5a d0	 cvtps2pd xmm2, xmm0
  0009f	0f 5a d9	 cvtps2pd xmm3, xmm1
  000a2	66 0f 2f da	 comisd	 xmm3, xmm2
  000a6	77 26		 ja	 SHORT $LN32@Med3
  000a8	0f 5a c0	 cvtps2pd xmm0, xmm0
  000ab	0f 5a c9	 cvtps2pd xmm1, xmm1
  000ae	66 0f 2e c1	 ucomisd xmm0, xmm1
  000b2	9f		 lahf
  000b3	f6 c4 44	 test	 ah, 68			; 00000044H
  000b6	7a 1f		 jp	 SHORT $LN28@Med3
  000b8	f3 0f 10 46 0c	 movss	 xmm0, DWORD PTR [esi+12]
  000bd	f3 0f 10 4f 0c	 movss	 xmm1, DWORD PTR [edi+12]
  000c2	0f 5a c0	 cvtps2pd xmm0, xmm0
  000c5	0f 5a c9	 cvtps2pd xmm1, xmm1
  000c8	66 0f 2f c8	 comisd	 xmm1, xmm0
  000cc	76 09		 jbe	 SHORT $LN28@Med3
$LN32@Med3:

; 3689 : 		_STD iter_swap(_Mid, _First);

  000ce	57		 push	 edi
  000cf	56		 push	 esi
  000d0	e8 00 00 00 00	 call	 ??$swap@UChangeDirInfo@@@std@@YAXAAUChangeDirInfo@@0@Z ; std::swap<ChangeDirInfo>
  000d5	59		 pop	 ecx
  000d6	59		 pop	 ecx
$LN28@Med3:
  000d7	5f		 pop	 edi
  000d8	5e		 pop	 esi

; 3690 : 	}

  000d9	5d		 pop	 ebp
  000da	c3		 ret	 0
??$_Med3@PAUChangeDirInfo@@VChangeDirSort@@@std@@YAXPAUChangeDirInfo@@00VChangeDirSort@@@Z ENDP ; std::_Med3<ChangeDirInfo *,ChangeDirSort>
_TEXT	ENDS
PUBLIC	??$_Adjust_heap@PAUChangeDirInfo@@HU1@VChangeDirSort@@@std@@YAXPAUChangeDirInfo@@HH$$QAU1@VChangeDirSort@@@Z ; std::_Adjust_heap<ChangeDirInfo *,int,ChangeDirInfo,ChangeDirSort>
; Function compile flags: /Ogsp
;	COMDAT ??$_Adjust_heap@PAUChangeDirInfo@@HU1@VChangeDirSort@@@std@@YAXPAUChangeDirInfo@@HH$$QAU1@VChangeDirSort@@@Z
_TEXT	SEGMENT
__First$ = 8						; size = 4
__Top$ = 12						; size = 4
__Hole$ = 12						; size = 4
__Bottom$ = 16						; size = 4
__Val$ = 20						; size = 4
__Pred$ = 24						; size = 1
??$_Adjust_heap@PAUChangeDirInfo@@HU1@VChangeDirSort@@@std@@YAXPAUChangeDirInfo@@HH$$QAU1@VChangeDirSort@@@Z PROC ; std::_Adjust_heap<ChangeDirInfo *,int,ChangeDirInfo,ChangeDirSort>, COMDAT

; 2565 : 	{	// percolate _Hole to _Bottom, then push _Val, using _Pred

  00000	55		 push	 ebp
  00001	8b ec		 mov	 ebp, esp
  00003	53		 push	 ebx

; 2566 : 	_Diff _Top = _Hole;
; 2567 : 	_Diff _Idx = 2 * _Hole + 2;
; 2568 : 
; 2569 : 	for (; _Idx < _Bottom; _Idx = 2 * _Idx + 2)

  00004	8b 5d 08	 mov	 ebx, DWORD PTR __First$[ebp]
  00007	56		 push	 esi
  00008	57		 push	 edi
  00009	8b 7d 0c	 mov	 edi, DWORD PTR __Hole$[ebp]
  0000c	89 7d 0c	 mov	 DWORD PTR __Top$[ebp], edi
  0000f	8d 54 3f 02	 lea	 edx, DWORD PTR [edi+edi+2]
  00013	eb 5a		 jmp	 SHORT $LN25@Adjust_hea
$LL5@Adjust_hea:

; 2570 : 		{	// move _Hole down to larger child
; 2571 : 		if (_DEBUG_LT_PRED(_Pred, *(_First + _Idx), *(_First + (_Idx - 1))))

  00015	8b ca		 mov	 ecx, edx
  00017	6b c9 1c	 imul	 ecx, 28			; 0000001cH
  0001a	03 cb		 add	 ecx, ebx
  0001c	f3 0f 10 01	 movss	 xmm0, DWORD PTR [ecx]
  00020	f3 0f 10 49 e4	 movss	 xmm1, DWORD PTR [ecx-28]
  00025	0f 5a d0	 cvtps2pd xmm2, xmm0
  00028	0f 5a d9	 cvtps2pd xmm3, xmm1
  0002b	66 0f 2f da	 comisd	 xmm3, xmm2
  0002f	77 26		 ja	 SHORT $LN22@Adjust_hea
  00031	0f 5a c0	 cvtps2pd xmm0, xmm0
  00034	0f 5a c9	 cvtps2pd xmm1, xmm1
  00037	66 0f 2e c1	 ucomisd xmm0, xmm1
  0003b	9f		 lahf
  0003c	f6 c4 44	 test	 ah, 68			; 00000044H
  0003f	7a 17		 jp	 SHORT $LN23@Adjust_hea
  00041	f3 0f 10 41 0c	 movss	 xmm0, DWORD PTR [ecx+12]
  00046	f3 0f 10 49 f0	 movss	 xmm1, DWORD PTR [ecx-16]
  0004b	0f 5a c0	 cvtps2pd xmm0, xmm0
  0004e	0f 5a c9	 cvtps2pd xmm1, xmm1
  00051	66 0f 2f c8	 comisd	 xmm1, xmm0
  00055	76 01		 jbe	 SHORT $LN23@Adjust_hea
$LN22@Adjust_hea:

; 2572 : 			--_Idx;

  00057	4a		 dec	 edx
$LN23@Adjust_hea:

; 2573 : 		*(_First + _Hole) = _Move(*(_First + _Idx));

  00058	8b f2		 mov	 esi, edx
  0005a	6b ff 1c	 imul	 edi, 28			; 0000001cH
  0005d	6b f6 1c	 imul	 esi, 28			; 0000001cH
  00060	03 f3		 add	 esi, ebx
  00062	6a 07		 push	 7
  00064	03 fb		 add	 edi, ebx
  00066	59		 pop	 ecx
  00067	f3 a5		 rep movsd

; 2574 : 		_Hole = _Idx;

  00069	8b fa		 mov	 edi, edx
  0006b	8d 54 12 02	 lea	 edx, DWORD PTR [edx+edx+2]
$LN25@Adjust_hea:

; 2566 : 	_Diff _Top = _Hole;
; 2567 : 	_Diff _Idx = 2 * _Hole + 2;
; 2568 : 
; 2569 : 	for (; _Idx < _Bottom; _Idx = 2 * _Idx + 2)

  0006f	8b 45 10	 mov	 eax, DWORD PTR __Bottom$[ebp]
  00072	3b d0		 cmp	 edx, eax
  00074	7c 9f		 jl	 SHORT $LL5@Adjust_hea

; 2575 : 		}
; 2576 : 
; 2577 : 	if (_Idx == _Bottom)

  00076	75 16		 jne	 SHORT $LN1@Adjust_hea

; 2578 : 		{	// only child at bottom, move _Hole down to it
; 2579 : 		*(_First + _Hole) = _Move(*(_First + (_Bottom - 1)));

  00078	8b c8		 mov	 ecx, eax
  0007a	6b ff 1c	 imul	 edi, 28			; 0000001cH
  0007d	6b c9 1c	 imul	 ecx, 28			; 0000001cH
  00080	8d 74 19 e4	 lea	 esi, DWORD PTR [ecx+ebx-28]
  00084	6a 07		 push	 7
  00086	03 fb		 add	 edi, ebx
  00088	59		 pop	 ecx
  00089	f3 a5		 rep movsd

; 2580 : 		_Hole = _Bottom - 1;

  0008b	8d 78 ff	 lea	 edi, DWORD PTR [eax-1]
$LN1@Adjust_hea:

; 2581 : 		}
; 2582 : 	_Push_heap(_First, _Hole, _Top, _Move(_Val), _Pred);

  0008e	ff 75 18	 push	 DWORD PTR __Pred$[ebp]
  00091	ff 75 14	 push	 DWORD PTR __Val$[ebp]
  00094	ff 75 0c	 push	 DWORD PTR __Top$[ebp]
  00097	57		 push	 edi
  00098	53		 push	 ebx
  00099	e8 00 00 00 00	 call	 ??$_Push_heap@PAUChangeDirInfo@@HU1@VChangeDirSort@@@std@@YAXPAUChangeDirInfo@@HH$$QAU1@VChangeDirSort@@@Z ; std::_Push_heap<ChangeDirInfo *,int,ChangeDirInfo,ChangeDirSort>
  0009e	83 c4 14	 add	 esp, 20			; 00000014H
  000a1	5f		 pop	 edi
  000a2	5e		 pop	 esi
  000a3	5b		 pop	 ebx

; 2583 : 	}

  000a4	5d		 pop	 ebp
  000a5	c3		 ret	 0
??$_Adjust_heap@PAUChangeDirInfo@@HU1@VChangeDirSort@@@std@@YAXPAUChangeDirInfo@@HH$$QAU1@VChangeDirSort@@@Z ENDP ; std::_Adjust_heap<ChangeDirInfo *,int,ChangeDirInfo,ChangeDirSort>
_TEXT	ENDS
PUBLIC	??$_Pop_heap@PAUChangeDirInfo@@HU1@VChangeDirSort@@@std@@YAXPAUChangeDirInfo@@00$$QAU1@VChangeDirSort@@PAH@Z ; std::_Pop_heap<ChangeDirInfo *,int,ChangeDirInfo,ChangeDirSort>
; Function compile flags: /Ogsp
;	COMDAT ??$_Pop_heap@PAUChangeDirInfo@@HU1@VChangeDirSort@@@std@@YAXPAUChangeDirInfo@@00$$QAU1@VChangeDirSort@@PAH@Z
_TEXT	SEGMENT
__First$ = 8						; size = 4
__Last$ = 12						; size = 4
__Dest$ = 16						; size = 4
__Val$ = 20						; size = 4
__Pred$ = 24						; size = 1
___formal$ = 28						; size = 4
??$_Pop_heap@PAUChangeDirInfo@@HU1@VChangeDirSort@@@std@@YAXPAUChangeDirInfo@@00$$QAU1@VChangeDirSort@@PAH@Z PROC ; std::_Pop_heap<ChangeDirInfo *,int,ChangeDirInfo,ChangeDirSort>, COMDAT

; 2591 : 	{	// pop *_First to *_Dest and reheap, using _Pred

  00000	55		 push	 ebp
  00001	8b ec		 mov	 ebp, esp

; 2592 : 	*_Dest = _Move(*_First);
; 2593 : 	_Adjust_heap(_First, _Diff(0), _Diff(_Last - _First),
; 2594 : 		_Move(_Val), _Pred);

  00003	8b 45 0c	 mov	 eax, DWORD PTR __Last$[ebp]
  00006	2b 45 08	 sub	 eax, DWORD PTR __First$[ebp]
  00009	56		 push	 esi
  0000a	8b 75 08	 mov	 esi, DWORD PTR __First$[ebp]
  0000d	57		 push	 edi
  0000e	8b 7d 10	 mov	 edi, DWORD PTR __Dest$[ebp]
  00011	6a 07		 push	 7
  00013	59		 pop	 ecx
  00014	ff 75 18	 push	 DWORD PTR __Pred$[ebp]
  00017	f3 a5		 rep movsd
  00019	ff 75 14	 push	 DWORD PTR __Val$[ebp]
  0001c	99		 cdq
  0001d	6a 1c		 push	 28			; 0000001cH
  0001f	59		 pop	 ecx
  00020	f7 f9		 idiv	 ecx
  00022	50		 push	 eax
  00023	6a 00		 push	 0
  00025	ff 75 08	 push	 DWORD PTR __First$[ebp]
  00028	e8 00 00 00 00	 call	 ??$_Adjust_heap@PAUChangeDirInfo@@HU1@VChangeDirSort@@@std@@YAXPAUChangeDirInfo@@HH$$QAU1@VChangeDirSort@@@Z ; std::_Adjust_heap<ChangeDirInfo *,int,ChangeDirInfo,ChangeDirSort>
  0002d	83 c4 14	 add	 esp, 20			; 00000014H
  00030	5f		 pop	 edi
  00031	5e		 pop	 esi

; 2595 : 	}

  00032	5d		 pop	 ebp
  00033	c3		 ret	 0
??$_Pop_heap@PAUChangeDirInfo@@HU1@VChangeDirSort@@@std@@YAXPAUChangeDirInfo@@00$$QAU1@VChangeDirSort@@PAH@Z ENDP ; std::_Pop_heap<ChangeDirInfo *,int,ChangeDirInfo,ChangeDirSort>
_TEXT	ENDS
PUBLIC	??0?$vector@VioHashString@@V?$allocator@VioHashString@@@std@@@std@@QAE@XZ ; std::vector<ioHashString,std::allocator<ioHashString> >::vector<ioHashString,std::allocator<ioHashString> >
; Function compile flags: /Ogsp
; File c:\program files (x86)\microsoft visual studio 10.0\vc\include\vector
;	COMDAT ??0?$vector@VioHashString@@V?$allocator@VioHashString@@@std@@@std@@QAE@XZ
_TEXT	SEGMENT
??0?$vector@VioHashString@@V?$allocator@VioHashString@@@std@@@std@@QAE@XZ PROC ; std::vector<ioHashString,std::allocator<ioHashString> >::vector<ioHashString,std::allocator<ioHashString> >, COMDAT
; _this$ = ecx

; 507  : 		{	// construct empty vector

  00000	8b c1		 mov	 eax, ecx
  00002	33 c9		 xor	 ecx, ecx
  00004	89 08		 mov	 DWORD PTR [eax], ecx
  00006	89 48 04	 mov	 DWORD PTR [eax+4], ecx
  00009	89 48 08	 mov	 DWORD PTR [eax+8], ecx

; 508  : 		}

  0000c	c3		 ret	 0
??0?$vector@VioHashString@@V?$allocator@VioHashString@@@std@@@std@@QAE@XZ ENDP ; std::vector<ioHashString,std::allocator<ioHashString> >::vector<ioHashString,std::allocator<ioHashString> >
_TEXT	ENDS
PUBLIC	?destroy@?$allocator@VioHashString@@@std@@QAEXPAVioHashString@@@Z ; std::allocator<ioHashString>::destroy
; Function compile flags: /Ogsp
; File c:\program files (x86)\microsoft visual studio 10.0\vc\include\xmemory
;	COMDAT ?destroy@?$allocator@VioHashString@@@std@@QAEXPAVioHashString@@@Z
_TEXT	SEGMENT
__Ptr$ = 8						; size = 4
?destroy@?$allocator@VioHashString@@@std@@QAEXPAVioHashString@@@Z PROC ; std::allocator<ioHashString>::destroy, COMDAT
; _this$ = ecx

; 212  : 		{	// destroy object at _Ptr

  00000	55		 push	 ebp
  00001	8b ec		 mov	 ebp, esp

; 213  : 		_Destroy(_Ptr);

  00003	8b 4d 08	 mov	 ecx, DWORD PTR __Ptr$[ebp]
  00006	ff 15 00 00 00
	00		 call	 DWORD PTR __imp_??1ioHashString@@QAE@XZ

; 214  : 		}

  0000c	5d		 pop	 ebp
  0000d	c2 04 00	 ret	 4
?destroy@?$allocator@VioHashString@@@std@@QAEXPAVioHashString@@@Z ENDP ; std::allocator<ioHashString>::destroy
_TEXT	ENDS
PUBLIC	??$_Cons_val@V?$allocator@VioHashString@@@std@@VioHashString@@ABV3@@std@@YAXAAV?$allocator@VioHashString@@@0@PAVioHashString@@ABV2@@Z ; std::_Cons_val<std::allocator<ioHashString>,ioHashString,ioHashString const &>
; Function compile flags: /Ogsp
;	COMDAT ??$_Cons_val@V?$allocator@VioHashString@@@std@@VioHashString@@ABV3@@std@@YAXAAV?$allocator@VioHashString@@@0@PAVioHashString@@ABV2@@Z
_TEXT	SEGMENT
__Alval$ = 8						; size = 4
__Pdest$ = 12						; size = 4
__Src$ = 16						; size = 4
??$_Cons_val@V?$allocator@VioHashString@@@std@@VioHashString@@ABV3@@std@@YAXAAV?$allocator@VioHashString@@@0@PAVioHashString@@ABV2@@Z PROC ; std::_Cons_val<std::allocator<ioHashString>,ioHashString,ioHashString const &>, COMDAT

; 279  : 	{	// construct using allocator

  00000	55		 push	 ebp
  00001	8b ec		 mov	 ebp, esp

; 280  : 	_Alval.construct(_Pdest, _STD forward<_Ty2>(_Src));

  00003	ff 75 10	 push	 DWORD PTR __Src$[ebp]
  00006	ff 75 0c	 push	 DWORD PTR __Pdest$[ebp]
  00009	e8 00 00 00 00	 call	 ??$_Construct@VioHashString@@ABV1@@std@@YAXPAVioHashString@@ABV1@@Z ; std::_Construct<ioHashString,ioHashString const &>
  0000e	59		 pop	 ecx
  0000f	59		 pop	 ecx

; 281  : 	}

  00010	5d		 pop	 ebp
  00011	c3		 ret	 0
??$_Cons_val@V?$allocator@VioHashString@@@std@@VioHashString@@ABV3@@std@@YAXAAV?$allocator@VioHashString@@@0@PAVioHashString@@ABV2@@Z ENDP ; std::_Cons_val<std::allocator<ioHashString>,ioHashString,ioHashString const &>
_TEXT	ENDS
PUBLIC	??$_Destroy_range@V?$allocator@UChangeDirInfo@@@std@@@std@@YAXPAUChangeDirInfo@@0AAV?$allocator@UChangeDirInfo@@@0@U_Nonscalar_ptr_iterator_tag@0@@Z ; std::_Destroy_range<std::allocator<ChangeDirInfo> >
; Function compile flags: /Ogsp
;	COMDAT ??$_Destroy_range@V?$allocator@UChangeDirInfo@@@std@@@std@@YAXPAUChangeDirInfo@@0AAV?$allocator@UChangeDirInfo@@@0@U_Nonscalar_ptr_iterator_tag@0@@Z
_TEXT	SEGMENT
__First$ = 8						; size = 4
__Last$ = 12						; size = 4
__Al$ = 16						; size = 4
___formal$ = 20						; size = 1
??$_Destroy_range@V?$allocator@UChangeDirInfo@@@std@@@std@@YAXPAUChangeDirInfo@@0AAV?$allocator@UChangeDirInfo@@@0@U_Nonscalar_ptr_iterator_tag@0@@Z PROC ; std::_Destroy_range<std::allocator<ChangeDirInfo> >, COMDAT

; 96   : 	for (; _First != _Last; ++_First)
; 97   : 		_Dest_val(_Al, _First);
; 98   : 	}

  00000	c3		 ret	 0
??$_Destroy_range@V?$allocator@UChangeDirInfo@@@std@@@std@@YAXPAUChangeDirInfo@@0AAV?$allocator@UChangeDirInfo@@@0@U_Nonscalar_ptr_iterator_tag@0@@Z ENDP ; std::_Destroy_range<std::allocator<ChangeDirInfo> >
_TEXT	ENDS
PUBLIC	??$_Insertion_sort@PAUChangeDirInfo@@VChangeDirSort@@@std@@YAXPAUChangeDirInfo@@0VChangeDirSort@@@Z ; std::_Insertion_sort<ChangeDirInfo *,ChangeDirSort>
; Function compile flags: /Ogsp
; File c:\program files (x86)\microsoft visual studio 10.0\vc\include\algorithm
;	COMDAT ??$_Insertion_sort@PAUChangeDirInfo@@VChangeDirSort@@@std@@YAXPAUChangeDirInfo@@0VChangeDirSort@@@Z
_TEXT	SEGMENT
__First$ = 8						; size = 4
__Last$ = 12						; size = 4
__Pred$ = 16						; size = 1
??$_Insertion_sort@PAUChangeDirInfo@@VChangeDirSort@@@std@@YAXPAUChangeDirInfo@@0VChangeDirSort@@@Z PROC ; std::_Insertion_sort<ChangeDirInfo *,ChangeDirSort>, COMDAT

; 3676 : 	{	// insertion sort [_First, _Last), using _Pred

  00000	55		 push	 ebp
  00001	8b ec		 mov	 ebp, esp

; 3677 : 	_Insertion_sort1(_First, _Last, _Pred, _Val_type(_First));

  00003	6a 00		 push	 0
  00005	ff 75 10	 push	 DWORD PTR __Pred$[ebp]
  00008	ff 75 0c	 push	 DWORD PTR __Last$[ebp]
  0000b	ff 75 08	 push	 DWORD PTR __First$[ebp]
  0000e	e8 00 00 00 00	 call	 ??$_Insertion_sort1@PAUChangeDirInfo@@VChangeDirSort@@U1@@std@@YAXPAUChangeDirInfo@@0VChangeDirSort@@0@Z ; std::_Insertion_sort1<ChangeDirInfo *,ChangeDirSort,ChangeDirInfo>
  00013	83 c4 10	 add	 esp, 16			; 00000010H

; 3678 : 	}

  00016	5d		 pop	 ebp
  00017	c3		 ret	 0
??$_Insertion_sort@PAUChangeDirInfo@@VChangeDirSort@@@std@@YAXPAUChangeDirInfo@@0VChangeDirSort@@@Z ENDP ; std::_Insertion_sort<ChangeDirInfo *,ChangeDirSort>
_TEXT	ENDS
PUBLIC	??$_Uninit_move@PAUChangeDirInfo@@PAU1@V?$allocator@UChangeDirInfo@@@std@@U1@@std@@YAPAUChangeDirInfo@@PAU1@00AAV?$allocator@UChangeDirInfo@@@0@0U_Nonscalar_ptr_iterator_tag@0@@Z ; std::_Uninit_move<ChangeDirInfo *,ChangeDirInfo *,std::allocator<ChangeDirInfo>,ChangeDirInfo>
; Function compile flags: /Ogsp
; File c:\program files (x86)\microsoft visual studio 10.0\vc\include\memory
;	COMDAT ??$_Uninit_move@PAUChangeDirInfo@@PAU1@V?$allocator@UChangeDirInfo@@@std@@U1@@std@@YAPAUChangeDirInfo@@PAU1@00AAV?$allocator@UChangeDirInfo@@@0@0U_Nonscalar_ptr_iterator_tag@0@@Z
_TEXT	SEGMENT
__First$ = 8						; size = 4
__Last$ = 12						; size = 4
__Dest$ = 16						; size = 4
__Al$ = 20						; size = 4
___formal$ = 24						; size = 4
___formal$ = 28						; size = 1
??$_Uninit_move@PAUChangeDirInfo@@PAU1@V?$allocator@UChangeDirInfo@@@std@@U1@@std@@YAPAUChangeDirInfo@@PAU1@00AAV?$allocator@UChangeDirInfo@@@0@0U_Nonscalar_ptr_iterator_tag@0@@Z PROC ; std::_Uninit_move<ChangeDirInfo *,ChangeDirInfo *,std::allocator<ChangeDirInfo>,ChangeDirInfo>, COMDAT

; 424  : 	{	// move [_First, _Last) to raw _Dest, using _Al, arbitrary type

  00000	55		 push	 ebp
  00001	8b ec		 mov	 ebp, esp
  00003	56		 push	 esi

; 425  : 	_DEBUG_RANGE(_First, _Last);
; 426  : 	_DEBUG_POINTER(_Dest);
; 427  : 	_FwdIt _Next = _Dest;
; 428  : 
; 429  : 	_TRY_BEGIN
; 430  : 	for (; _First != _Last; ++_Dest, ++_First)

  00004	8b 75 08	 mov	 esi, DWORD PTR __First$[ebp]
  00007	eb 16		 jmp	 SHORT $LN24@Uninit_mov
$LL6@Uninit_mov:

; 431  : 		_Cons_val(_Al, _Dest, (_Valty &&)*_First);

  00009	56		 push	 esi
  0000a	ff 75 10	 push	 DWORD PTR __Dest$[ebp]
  0000d	ff 75 14	 push	 DWORD PTR __Al$[ebp]
  00010	e8 00 00 00 00	 call	 ??$_Cons_val@V?$allocator@UChangeDirInfo@@@std@@UChangeDirInfo@@U3@@std@@YAXAAV?$allocator@UChangeDirInfo@@@0@PAUChangeDirInfo@@$$QAU2@@Z ; std::_Cons_val<std::allocator<ChangeDirInfo>,ChangeDirInfo,ChangeDirInfo>
  00015	83 45 10 1c	 add	 DWORD PTR __Dest$[ebp], 28 ; 0000001cH
  00019	83 c4 0c	 add	 esp, 12			; 0000000cH
  0001c	83 c6 1c	 add	 esi, 28			; 0000001cH
$LN24@Uninit_mov:

; 425  : 	_DEBUG_RANGE(_First, _Last);
; 426  : 	_DEBUG_POINTER(_Dest);
; 427  : 	_FwdIt _Next = _Dest;
; 428  : 
; 429  : 	_TRY_BEGIN
; 430  : 	for (; _First != _Last; ++_Dest, ++_First)

  0001f	3b 75 0c	 cmp	 esi, DWORD PTR __Last$[ebp]
  00022	75 e5		 jne	 SHORT $LL6@Uninit_mov

; 432  : 	_CATCH_ALL
; 433  : 	for (; _Next != _Dest; ++_Next)
; 434  : 		_Dest_val(_Al, _Next);
; 435  : 	_RERAISE;
; 436  : 	_CATCH_END
; 437  : 	return (_Dest);

  00024	8b 45 10	 mov	 eax, DWORD PTR __Dest$[ebp]
  00027	5e		 pop	 esi

; 438  : 	}

  00028	5d		 pop	 ebp
  00029	c3		 ret	 0
??$_Uninit_move@PAUChangeDirInfo@@PAU1@V?$allocator@UChangeDirInfo@@@std@@U1@@std@@YAPAUChangeDirInfo@@PAU1@00AAV?$allocator@UChangeDirInfo@@@0@0U_Nonscalar_ptr_iterator_tag@0@@Z ENDP ; std::_Uninit_move<ChangeDirInfo *,ChangeDirInfo *,std::allocator<ChangeDirInfo>,ChangeDirInfo>
_TEXT	ENDS
PUBLIC	??$_Median@PAUChangeDirInfo@@VChangeDirSort@@@std@@YAXPAUChangeDirInfo@@00VChangeDirSort@@@Z ; std::_Median<ChangeDirInfo *,ChangeDirSort>
; Function compile flags: /Ogsp
; File c:\program files (x86)\microsoft visual studio 10.0\vc\include\algorithm
;	COMDAT ??$_Median@PAUChangeDirInfo@@VChangeDirSort@@@std@@YAXPAUChangeDirInfo@@00VChangeDirSort@@@Z
_TEXT	SEGMENT
tv200 = 8						; size = 4
__First$ = 8						; size = 4
__Mid$ = 12						; size = 4
tv203 = 16						; size = 4
__Last$ = 16						; size = 4
__Pred$ = 20						; size = 1
??$_Median@PAUChangeDirInfo@@VChangeDirSort@@@std@@YAXPAUChangeDirInfo@@00VChangeDirSort@@@Z PROC ; std::_Median<ChangeDirInfo *,ChangeDirSort>, COMDAT

; 3695 : 	{	// sort median element to middle

  00000	55		 push	 ebp
  00001	8b ec		 mov	 ebp, esp

; 3696 : 	if (40 < _Last - _First)

  00003	8b 4d 08	 mov	 ecx, DWORD PTR __First$[ebp]
  00006	53		 push	 ebx
  00007	8b 5d 10	 mov	 ebx, DWORD PTR __Last$[ebp]
  0000a	56		 push	 esi
  0000b	8b c3		 mov	 eax, ebx
  0000d	2b c1		 sub	 eax, ecx
  0000f	6a 1c		 push	 28			; 0000001cH
  00011	99		 cdq
  00012	5e		 pop	 esi
  00013	f7 fe		 idiv	 esi
  00015	83 f8 28	 cmp	 eax, 40			; 00000028H
  00018	7e 68		 jle	 SHORT $LN2@Median

; 3697 : 		{	// median of nine
; 3698 : 		size_t _Step = (_Last - _First + 1) / 8;

  0001a	40		 inc	 eax
  0001b	99		 cdq
  0001c	83 e2 07	 and	 edx, 7
  0001f	03 c2		 add	 eax, edx
  00021	57		 push	 edi

; 3699 : 		_Med3(_First, _First + _Step, _First + 2 * _Step, _Pred);

  00022	ff 75 14	 push	 DWORD PTR __Pred$[ebp]
  00025	c1 f8 03	 sar	 eax, 3
  00028	8b f8		 mov	 edi, eax
  0002a	8b f0		 mov	 esi, eax
  0002c	6b ff 38	 imul	 edi, 56			; 00000038H
  0002f	6b f6 1c	 imul	 esi, 28			; 0000001cH
  00032	8d 14 0f	 lea	 edx, DWORD PTR [edi+ecx]
  00035	8d 04 0e	 lea	 eax, DWORD PTR [esi+ecx]
  00038	52		 push	 edx
  00039	50		 push	 eax
  0003a	51		 push	 ecx
  0003b	89 45 08	 mov	 DWORD PTR tv200[ebp], eax
  0003e	e8 00 00 00 00	 call	 ??$_Med3@PAUChangeDirInfo@@VChangeDirSort@@@std@@YAXPAUChangeDirInfo@@00VChangeDirSort@@@Z ; std::_Med3<ChangeDirInfo *,ChangeDirSort>

; 3700 : 		_Med3(_Mid - _Step, _Mid, _Mid + _Step, _Pred);

  00043	8b 45 0c	 mov	 eax, DWORD PTR __Mid$[ebp]
  00046	ff 75 14	 push	 DWORD PTR __Pred$[ebp]
  00049	8d 0c 06	 lea	 ecx, DWORD PTR [esi+eax]
  0004c	51		 push	 ecx
  0004d	50		 push	 eax
  0004e	2b c6		 sub	 eax, esi
  00050	50		 push	 eax
  00051	e8 00 00 00 00	 call	 ??$_Med3@PAUChangeDirInfo@@VChangeDirSort@@@std@@YAXPAUChangeDirInfo@@00VChangeDirSort@@@Z ; std::_Med3<ChangeDirInfo *,ChangeDirSort>

; 3701 : 		_Med3(_Last - 2 * _Step, _Last - _Step, _Last, _Pred);

  00056	ff 75 14	 push	 DWORD PTR __Pred$[ebp]
  00059	89 5d 10	 mov	 DWORD PTR tv203[ebp], ebx
  0005c	29 75 10	 sub	 DWORD PTR tv203[ebp], esi
  0005f	53		 push	 ebx
  00060	ff 75 10	 push	 DWORD PTR tv203[ebp]
  00063	2b df		 sub	 ebx, edi
  00065	53		 push	 ebx
  00066	e8 00 00 00 00	 call	 ??$_Med3@PAUChangeDirInfo@@VChangeDirSort@@@std@@YAXPAUChangeDirInfo@@00VChangeDirSort@@@Z ; std::_Med3<ChangeDirInfo *,ChangeDirSort>

; 3702 : 		_Med3(_First + _Step, _Mid, _Last - _Step, _Pred);

  0006b	ff 75 14	 push	 DWORD PTR __Pred$[ebp]
  0006e	ff 75 10	 push	 DWORD PTR tv203[ebp]
  00071	ff 75 0c	 push	 DWORD PTR __Mid$[ebp]
  00074	ff 75 08	 push	 DWORD PTR tv200[ebp]
  00077	e8 00 00 00 00	 call	 ??$_Med3@PAUChangeDirInfo@@VChangeDirSort@@@std@@YAXPAUChangeDirInfo@@00VChangeDirSort@@@Z ; std::_Med3<ChangeDirInfo *,ChangeDirSort>
  0007c	83 c4 40	 add	 esp, 64			; 00000040H
  0007f	5f		 pop	 edi

; 3703 : 		}
; 3704 : 	else

  00080	eb 10		 jmp	 SHORT $LN1@Median
$LN2@Median:

; 3705 : 		_Med3(_First, _Mid, _Last, _Pred);

  00082	ff 75 14	 push	 DWORD PTR __Pred$[ebp]
  00085	53		 push	 ebx
  00086	ff 75 0c	 push	 DWORD PTR __Mid$[ebp]
  00089	51		 push	 ecx
  0008a	e8 00 00 00 00	 call	 ??$_Med3@PAUChangeDirInfo@@VChangeDirSort@@@std@@YAXPAUChangeDirInfo@@00VChangeDirSort@@@Z ; std::_Med3<ChangeDirInfo *,ChangeDirSort>
  0008f	83 c4 10	 add	 esp, 16			; 00000010H
$LN1@Median:
  00092	5e		 pop	 esi
  00093	5b		 pop	 ebx

; 3706 : 	}

  00094	5d		 pop	 ebp
  00095	c3		 ret	 0
??$_Median@PAUChangeDirInfo@@VChangeDirSort@@@std@@YAXPAUChangeDirInfo@@00VChangeDirSort@@@Z ENDP ; std::_Median<ChangeDirInfo *,ChangeDirSort>
_TEXT	ENDS
PUBLIC	??$_Make_heap@PAUChangeDirInfo@@HU1@VChangeDirSort@@@std@@YAXPAUChangeDirInfo@@0VChangeDirSort@@PAH0@Z ; std::_Make_heap<ChangeDirInfo *,int,ChangeDirInfo,ChangeDirSort>
; Function compile flags: /Ogsp
;	COMDAT ??$_Make_heap@PAUChangeDirInfo@@HU1@VChangeDirSort@@@std@@YAXPAUChangeDirInfo@@0VChangeDirSort@@PAH0@Z
_TEXT	SEGMENT
__Val$534897 = -32					; size = 28
__Bottom$ = -4						; size = 4
__First$ = 8						; size = 4
tv149 = 12						; size = 4
__Last$ = 12						; size = 4
__Pred$ = 16						; size = 1
___formal$ = 20						; size = 4
___formal$ = 24						; size = 4
??$_Make_heap@PAUChangeDirInfo@@HU1@VChangeDirSort@@@std@@YAXPAUChangeDirInfo@@0VChangeDirSort@@PAH0@Z PROC ; std::_Make_heap<ChangeDirInfo *,int,ChangeDirInfo,ChangeDirSort>, COMDAT

; 2658 : 	{	// make nontrivial [_First, _Last) into a heap, using _Pred

  00000	55		 push	 ebp
  00001	8b ec		 mov	 ebp, esp
  00003	83 ec 20	 sub	 esp, 32			; 00000020H

; 2659 : 	_Diff _Bottom = _Last - _First;

  00006	8b 45 0c	 mov	 eax, DWORD PTR __Last$[ebp]
  00009	2b 45 08	 sub	 eax, DWORD PTR __First$[ebp]
  0000c	53		 push	 ebx
  0000d	99		 cdq
  0000e	6a 1c		 push	 28			; 0000001cH
  00010	59		 pop	 ecx
  00011	f7 f9		 idiv	 ecx
  00013	89 45 fc	 mov	 DWORD PTR __Bottom$[ebp], eax

; 2660 : 	for (_Diff _Hole = _Bottom / 2; 0 < _Hole; )

  00016	99		 cdq
  00017	2b c2		 sub	 eax, edx
  00019	8b d8		 mov	 ebx, eax
  0001b	d1 fb		 sar	 ebx, 1
  0001d	85 db		 test	 ebx, ebx
  0001f	7e 3a		 jle	 SHORT $LN1@Make_heap

; 2659 : 	_Diff _Bottom = _Last - _First;

  00021	56		 push	 esi
  00022	8b f3		 mov	 esi, ebx
  00024	6b f6 1c	 imul	 esi, 28			; 0000001cH
  00027	03 75 08	 add	 esi, DWORD PTR __First$[ebp]
  0002a	57		 push	 edi
  0002b	eb 03		 jmp	 SHORT $LN2@Make_heap
$LL11@Make_heap:
  0002d	8b 75 0c	 mov	 esi, DWORD PTR tv149[ebp]
$LN2@Make_heap:

; 2661 : 		{	// reheap top half, bottom to top
; 2662 : 		--_Hole;
; 2663 : 		_Ty _Val = _Move(*(_First + _Hole));

  00030	6a 07		 push	 7
  00032	59		 pop	 ecx

; 2664 : 		_Adjust_heap(_First, _Hole, _Bottom,
; 2665 : 			_Move(_Val), _Pred);

  00033	ff 75 10	 push	 DWORD PTR __Pred$[ebp]
  00036	8d 45 e0	 lea	 eax, DWORD PTR __Val$534897[ebp]
  00039	50		 push	 eax
  0003a	ff 75 fc	 push	 DWORD PTR __Bottom$[ebp]
  0003d	4b		 dec	 ebx
  0003e	83 ee 1c	 sub	 esi, 28			; 0000001cH
  00041	53		 push	 ebx
  00042	ff 75 08	 push	 DWORD PTR __First$[ebp]
  00045	8d 7d e0	 lea	 edi, DWORD PTR __Val$534897[ebp]
  00048	89 75 0c	 mov	 DWORD PTR tv149[ebp], esi
  0004b	f3 a5		 rep movsd
  0004d	e8 00 00 00 00	 call	 ??$_Adjust_heap@PAUChangeDirInfo@@HU1@VChangeDirSort@@@std@@YAXPAUChangeDirInfo@@HH$$QAU1@VChangeDirSort@@@Z ; std::_Adjust_heap<ChangeDirInfo *,int,ChangeDirInfo,ChangeDirSort>
  00052	83 c4 14	 add	 esp, 20			; 00000014H
  00055	85 db		 test	 ebx, ebx
  00057	7f d4		 jg	 SHORT $LL11@Make_heap
  00059	5f		 pop	 edi
  0005a	5e		 pop	 esi
$LN1@Make_heap:
  0005b	5b		 pop	 ebx

; 2666 : 		}
; 2667 : 	}

  0005c	c9		 leave
  0005d	c3		 ret	 0
??$_Make_heap@PAUChangeDirInfo@@HU1@VChangeDirSort@@@std@@YAXPAUChangeDirInfo@@0VChangeDirSort@@PAH0@Z ENDP ; std::_Make_heap<ChangeDirInfo *,int,ChangeDirInfo,ChangeDirSort>
_TEXT	ENDS
PUBLIC	??$_Pop_heap_0@PAUChangeDirInfo@@U1@VChangeDirSort@@@std@@YAXPAUChangeDirInfo@@0VChangeDirSort@@0@Z ; std::_Pop_heap_0<ChangeDirInfo *,ChangeDirInfo,ChangeDirSort>
; Function compile flags: /Ogsp
;	COMDAT ??$_Pop_heap_0@PAUChangeDirInfo@@U1@VChangeDirSort@@@std@@YAXPAUChangeDirInfo@@0VChangeDirSort@@0@Z
_TEXT	SEGMENT
__Val$ = -28						; size = 28
__First$ = 8						; size = 4
__Last$ = 12						; size = 4
__Pred$ = 16						; size = 1
___formal$ = 20						; size = 4
??$_Pop_heap_0@PAUChangeDirInfo@@U1@VChangeDirSort@@@std@@YAXPAUChangeDirInfo@@0VChangeDirSort@@0@Z PROC ; std::_Pop_heap_0<ChangeDirInfo *,ChangeDirInfo,ChangeDirSort>, COMDAT

; 2601 : 	{	// pop *_First to *(_Last - 1) and reheap, using _Pred

  00000	55		 push	 ebp
  00001	8b ec		 mov	 ebp, esp

; 2602 : 	_Ty _Val = _Move(*(_Last - 1));

  00003	8b 45 0c	 mov	 eax, DWORD PTR __Last$[ebp]
  00006	83 ec 1c	 sub	 esp, 28			; 0000001cH
  00009	56		 push	 esi
  0000a	57		 push	 edi
  0000b	6a 07		 push	 7
  0000d	59		 pop	 ecx
  0000e	83 c0 e4	 add	 eax, -28		; ffffffe4H

; 2603 : 	_Pop_heap(_First, _Last - 1, _Last - 1,
; 2604 : 		_Move(_Val), _Pred, _Dist_type(_First));

  00011	6a 00		 push	 0
  00013	ff 75 10	 push	 DWORD PTR __Pred$[ebp]
  00016	8b f0		 mov	 esi, eax
  00018	8d 7d e4	 lea	 edi, DWORD PTR __Val$[ebp]
  0001b	f3 a5		 rep movsd
  0001d	8d 4d e4	 lea	 ecx, DWORD PTR __Val$[ebp]
  00020	51		 push	 ecx
  00021	50		 push	 eax
  00022	50		 push	 eax
  00023	ff 75 08	 push	 DWORD PTR __First$[ebp]
  00026	e8 00 00 00 00	 call	 ??$_Pop_heap@PAUChangeDirInfo@@HU1@VChangeDirSort@@@std@@YAXPAUChangeDirInfo@@00$$QAU1@VChangeDirSort@@PAH@Z ; std::_Pop_heap<ChangeDirInfo *,int,ChangeDirInfo,ChangeDirSort>
  0002b	83 c4 18	 add	 esp, 24			; 00000018H
  0002e	5f		 pop	 edi
  0002f	5e		 pop	 esi

; 2605 : 	}

  00030	c9		 leave
  00031	c3		 ret	 0
??$_Pop_heap_0@PAUChangeDirInfo@@U1@VChangeDirSort@@@std@@YAXPAUChangeDirInfo@@0VChangeDirSort@@0@Z ENDP ; std::_Pop_heap_0<ChangeDirInfo *,ChangeDirInfo,ChangeDirSort>
_TEXT	ENDS
PUBLIC	??$_Dest_val@V?$allocator@VioHashString@@@std@@VioHashString@@@std@@YAXAAV?$allocator@VioHashString@@@0@PAVioHashString@@@Z ; std::_Dest_val<std::allocator<ioHashString>,ioHashString>
; Function compile flags: /Ogsp
; File c:\program files (x86)\microsoft visual studio 10.0\vc\include\xmemory
;	COMDAT ??$_Dest_val@V?$allocator@VioHashString@@@std@@VioHashString@@@std@@YAXAAV?$allocator@VioHashString@@@0@PAVioHashString@@@Z
_TEXT	SEGMENT
__Alval$ = 8						; size = 4
__Pdest$ = 12						; size = 4
??$_Dest_val@V?$allocator@VioHashString@@@std@@VioHashString@@@std@@YAXAAV?$allocator@VioHashString@@@0@PAVioHashString@@@Z PROC ; std::_Dest_val<std::allocator<ioHashString>,ioHashString>, COMDAT

; 286  : 	{	// destroy using allocator

  00000	55		 push	 ebp
  00001	8b ec		 mov	 ebp, esp

; 287  : 	_Alval.destroy(_Pdest);

  00003	8b 4d 0c	 mov	 ecx, DWORD PTR __Pdest$[ebp]

; 288  : 	}

  00006	5d		 pop	 ebp

; 287  : 	_Alval.destroy(_Pdest);

  00007	ff 25 00 00 00
	00		 jmp	 DWORD PTR __imp_??1ioHashString@@QAE@XZ
??$_Dest_val@V?$allocator@VioHashString@@@std@@VioHashString@@@std@@YAXAAV?$allocator@VioHashString@@@0@PAVioHashString@@@Z ENDP ; std::_Dest_val<std::allocator<ioHashString>,ioHashString>
_TEXT	ENDS
PUBLIC	??$_Destroy_range@V?$allocator@UChangeDirInfo@@@std@@@std@@YAXPAUChangeDirInfo@@0AAV?$allocator@UChangeDirInfo@@@0@@Z ; std::_Destroy_range<std::allocator<ChangeDirInfo> >
; Function compile flags: /Ogsp
;	COMDAT ??$_Destroy_range@V?$allocator@UChangeDirInfo@@@std@@@std@@YAXPAUChangeDirInfo@@0AAV?$allocator@UChangeDirInfo@@@0@@Z
_TEXT	SEGMENT
__First$ = 8						; size = 4
__Last$ = 12						; size = 4
__Al$ = 16						; size = 4
??$_Destroy_range@V?$allocator@UChangeDirInfo@@@std@@@std@@YAXPAUChangeDirInfo@@0AAV?$allocator@UChangeDirInfo@@@0@@Z PROC ; std::_Destroy_range<std::allocator<ChangeDirInfo> >, COMDAT

; 88   : 	_Destroy_range(_First, _Last, _Al, _Ptr_cat(_First, _Last));
; 89   : 	}

  00000	c3		 ret	 0
??$_Destroy_range@V?$allocator@UChangeDirInfo@@@std@@@std@@YAXPAUChangeDirInfo@@0AAV?$allocator@UChangeDirInfo@@@0@@Z ENDP ; std::_Destroy_range<std::allocator<ChangeDirInfo> >
_TEXT	ENDS
PUBLIC	??$_Uninitialized_move@PAUChangeDirInfo@@PAU1@V?$allocator@UChangeDirInfo@@@std@@@std@@YAPAUChangeDirInfo@@PAU1@00AAV?$allocator@UChangeDirInfo@@@0@@Z ; std::_Uninitialized_move<ChangeDirInfo *,ChangeDirInfo *,std::allocator<ChangeDirInfo> >
; Function compile flags: /Ogsp
; File c:\program files (x86)\microsoft visual studio 10.0\vc\include\memory
;	COMDAT ??$_Uninitialized_move@PAUChangeDirInfo@@PAU1@V?$allocator@UChangeDirInfo@@@std@@@std@@YAPAUChangeDirInfo@@PAU1@00AAV?$allocator@UChangeDirInfo@@@0@@Z
_TEXT	SEGMENT
__Cat$537823 = -4					; size = 1
__First$ = 8						; size = 4
__Last$ = 12						; size = 4
__Dest$ = 16						; size = 4
__Al$ = 20						; size = 4
??$_Uninitialized_move@PAUChangeDirInfo@@PAU1@V?$allocator@UChangeDirInfo@@@std@@@std@@YAPAUChangeDirInfo@@PAU1@00AAV?$allocator@UChangeDirInfo@@@0@@Z PROC ; std::_Uninitialized_move<ChangeDirInfo *,ChangeDirInfo *,std::allocator<ChangeDirInfo> >, COMDAT

; 469  : 	{	// move [_First, _Last) to raw _Dest, using _Al

  00000	55		 push	 ebp
  00001	8b ec		 mov	 ebp, esp
  00003	51		 push	 ecx

; 470  : 	return (_Uninit_move(_First, _Last, _Dest, _Al,
; 471  : 		_Val_type(_First), _Ptr_cat(_First, _Dest)));

  00004	ff 75 fc	 push	 DWORD PTR __Cat$537823[ebp]
  00007	6a 00		 push	 0
  00009	ff 75 14	 push	 DWORD PTR __Al$[ebp]
  0000c	ff 75 10	 push	 DWORD PTR __Dest$[ebp]
  0000f	ff 75 0c	 push	 DWORD PTR __Last$[ebp]
  00012	ff 75 08	 push	 DWORD PTR __First$[ebp]
  00015	e8 00 00 00 00	 call	 ??$_Uninit_move@PAUChangeDirInfo@@PAU1@V?$allocator@UChangeDirInfo@@@std@@U1@@std@@YAPAUChangeDirInfo@@PAU1@00AAV?$allocator@UChangeDirInfo@@@0@0U_Nonscalar_ptr_iterator_tag@0@@Z ; std::_Uninit_move<ChangeDirInfo *,ChangeDirInfo *,std::allocator<ChangeDirInfo>,ChangeDirInfo>
  0001a	83 c4 18	 add	 esp, 24			; 00000018H

; 472  : 	}

  0001d	c9		 leave
  0001e	c3		 ret	 0
??$_Uninitialized_move@PAUChangeDirInfo@@PAU1@V?$allocator@UChangeDirInfo@@@std@@@std@@YAPAUChangeDirInfo@@PAU1@00AAV?$allocator@UChangeDirInfo@@@0@@Z ENDP ; std::_Uninitialized_move<ChangeDirInfo *,ChangeDirInfo *,std::allocator<ChangeDirInfo> >
_TEXT	ENDS
PUBLIC	??$_Unguarded_partition@PAUChangeDirInfo@@VChangeDirSort@@@std@@YA?AU?$pair@PAUChangeDirInfo@@PAU1@@0@PAUChangeDirInfo@@0VChangeDirSort@@@Z ; std::_Unguarded_partition<ChangeDirInfo *,ChangeDirSort>
; Function compile flags: /Ogsp
; File c:\program files (x86)\microsoft visual studio 10.0\vc\include\algorithm
;	COMDAT ??$_Unguarded_partition@PAUChangeDirInfo@@VChangeDirSort@@@std@@YA?AU?$pair@PAUChangeDirInfo@@PAU1@@0@PAUChangeDirInfo@@0VChangeDirSort@@@Z
_TEXT	SEGMENT
tv426 = -8						; size = 4
__Glast$ = -4						; size = 4
___$ReturnUdt$ = 8					; size = 4
__First$ = 12						; size = 4
__Last$ = 16						; size = 4
__Pred$ = 20						; size = 1
??$_Unguarded_partition@PAUChangeDirInfo@@VChangeDirSort@@@std@@YA?AU?$pair@PAUChangeDirInfo@@PAU1@@0@PAUChangeDirInfo@@0VChangeDirSort@@@Z PROC ; std::_Unguarded_partition<ChangeDirInfo *,ChangeDirSort>, COMDAT

; 3712 : 	{	// partition [_First, _Last), using _Pred

  00000	55		 push	 ebp
  00001	8b ec		 mov	 ebp, esp
  00003	51		 push	 ecx
  00004	51		 push	 ecx

; 3713 : 	_RanIt _Mid = _First + (_Last - _First) / 2;

  00005	8b 4d 10	 mov	 ecx, DWORD PTR __Last$[ebp]
  00008	53		 push	 ebx
  00009	56		 push	 esi
  0000a	57		 push	 edi
  0000b	8b 7d 0c	 mov	 edi, DWORD PTR __First$[ebp]
  0000e	8b c1		 mov	 eax, ecx
  00010	2b c7		 sub	 eax, edi
  00012	6a 1c		 push	 28			; 0000001cH
  00014	5e		 pop	 esi
  00015	99		 cdq
  00016	f7 fe		 idiv	 esi

; 3714 : 	_Median(_First, _Mid, _Last - 1, _Pred);

  00018	ff 75 14	 push	 DWORD PTR __Pred$[ebp]
  0001b	83 c1 e4	 add	 ecx, -28		; ffffffe4H
  0001e	51		 push	 ecx
  0001f	99		 cdq
  00020	2b c2		 sub	 eax, edx
  00022	8b f0		 mov	 esi, eax
  00024	d1 fe		 sar	 esi, 1
  00026	6b f6 1c	 imul	 esi, 28			; 0000001cH
  00029	03 f7		 add	 esi, edi
  0002b	56		 push	 esi
  0002c	57		 push	 edi
  0002d	e8 00 00 00 00	 call	 ??$_Median@PAUChangeDirInfo@@VChangeDirSort@@@std@@YAXPAUChangeDirInfo@@00VChangeDirSort@@@Z ; std::_Median<ChangeDirInfo *,ChangeDirSort>
  00032	83 c4 10	 add	 esp, 16			; 00000010H

; 3715 : 	_RanIt _Pfirst = _Mid;
; 3716 : 	_RanIt _Plast = _Pfirst + 1;

  00035	8d 5e 1c	 lea	 ebx, DWORD PTR [esi+28]
  00038	eb 76		 jmp	 SHORT $LN132@Unguarded_
$LL27@Unguarded_:

; 3717 : 
; 3718 : 	while (_First < _Pfirst
; 3719 : 		&& !_DEBUG_LT_PRED(_Pred, *(_Pfirst - 1), *_Pfirst)
; 3720 : 		&& !_Pred(*_Pfirst, *(_Pfirst - 1)))

  0003a	f3 0f 10 46 e4	 movss	 xmm0, DWORD PTR [esi-28]
  0003f	f3 0f 10 0e	 movss	 xmm1, DWORD PTR [esi]
  00043	0f 5a d0	 cvtps2pd xmm2, xmm0
  00046	0f 5a d9	 cvtps2pd xmm3, xmm1
  00049	66 0f 2f da	 comisd	 xmm3, xmm2
  0004d	77 65		 ja	 SHORT $LN120@Unguarded_
  0004f	0f 57 d2	 xorps	 xmm2, xmm2
  00052	0f 57 db	 xorps	 xmm3, xmm3
  00055	0f 5a d0	 cvtps2pd xmm2, xmm0
  00058	0f 5a d9	 cvtps2pd xmm3, xmm1
  0005b	66 0f 2e d3	 ucomisd xmm2, xmm3
  0005f	9f		 lahf
  00060	f6 c4 44	 test	 ah, 68			; 00000044H
  00063	7a 16		 jp	 SHORT $LN30@Unguarded_
  00065	f3 0f 10 56 f0	 movss	 xmm2, DWORD PTR [esi-16]
  0006a	f3 0f 10 5e 0c	 movss	 xmm3, DWORD PTR [esi+12]
  0006f	0f 5a d2	 cvtps2pd xmm2, xmm2
  00072	0f 5a db	 cvtps2pd xmm3, xmm3
  00075	66 0f 2f da	 comisd	 xmm3, xmm2
  00079	77 39		 ja	 SHORT $LN120@Unguarded_
$LN30@Unguarded_:
  0007b	0f 5a d1	 cvtps2pd xmm2, xmm1
  0007e	0f 5a d8	 cvtps2pd xmm3, xmm0
  00081	66 0f 2f da	 comisd	 xmm3, xmm2
  00085	77 2d		 ja	 SHORT $LN120@Unguarded_
  00087	0f 5a c9	 cvtps2pd xmm1, xmm1
  0008a	0f 5a c0	 cvtps2pd xmm0, xmm0
  0008d	66 0f 2e c8	 ucomisd xmm1, xmm0
  00091	9f		 lahf
  00092	f6 c4 44	 test	 ah, 68			; 00000044H
  00095	7a 16		 jp	 SHORT $LN36@Unguarded_
  00097	f3 0f 10 46 0c	 movss	 xmm0, DWORD PTR [esi+12]
  0009c	f3 0f 10 4e f0	 movss	 xmm1, DWORD PTR [esi-16]
  000a1	0f 5a c0	 cvtps2pd xmm0, xmm0
  000a4	0f 5a c9	 cvtps2pd xmm1, xmm1
  000a7	66 0f 2f c8	 comisd	 xmm1, xmm0
  000ab	77 07		 ja	 SHORT $LN120@Unguarded_
$LN36@Unguarded_:

; 3721 : 		--_Pfirst;

  000ad	83 c6 e4	 add	 esi, -28		; ffffffe4H
$LN132@Unguarded_:

; 3717 : 
; 3718 : 	while (_First < _Pfirst
; 3719 : 		&& !_DEBUG_LT_PRED(_Pred, *(_Pfirst - 1), *_Pfirst)
; 3720 : 		&& !_Pred(*_Pfirst, *(_Pfirst - 1)))

  000b0	3b fe		 cmp	 edi, esi
  000b2	72 86		 jb	 SHORT $LL27@Unguarded_
$LN120@Unguarded_:

; 3722 : 	while (_Plast < _Last
; 3723 : 		&& !_DEBUG_LT_PRED(_Pred, *_Plast, *_Pfirst)
; 3724 : 		&& !_Pred(*_Pfirst, *_Plast))

  000b4	3b 5d 10	 cmp	 ebx, DWORD PTR __Last$[ebp]
  000b7	0f 83 8b 00 00
	00		 jae	 $LN124@Unguarded_
  000bd	f3 0f 10 0e	 movss	 xmm1, DWORD PTR [esi]
$LL25@Unguarded_:
  000c1	f3 0f 10 03	 movss	 xmm0, DWORD PTR [ebx]
  000c5	0f 57 db	 xorps	 xmm3, xmm3
  000c8	0f 5a d0	 cvtps2pd xmm2, xmm0
  000cb	f3 0f 5a d9	 cvtss2sd xmm3, xmm1
  000cf	66 0f 2f da	 comisd	 xmm3, xmm2
  000d3	77 73		 ja	 SHORT $LN124@Unguarded_
  000d5	0f 57 d2	 xorps	 xmm2, xmm2
  000d8	0f 57 db	 xorps	 xmm3, xmm3
  000db	0f 5a d0	 cvtps2pd xmm2, xmm0
  000de	f3 0f 5a d9	 cvtss2sd xmm3, xmm1
  000e2	66 0f 2e d3	 ucomisd xmm2, xmm3
  000e6	9f		 lahf
  000e7	f6 c4 44	 test	 ah, 68			; 00000044H
  000ea	7a 16		 jp	 SHORT $LN42@Unguarded_
  000ec	f3 0f 10 53 0c	 movss	 xmm2, DWORD PTR [ebx+12]
  000f1	f3 0f 10 5e 0c	 movss	 xmm3, DWORD PTR [esi+12]
  000f6	0f 5a d2	 cvtps2pd xmm2, xmm2
  000f9	0f 5a db	 cvtps2pd xmm3, xmm3
  000fc	66 0f 2f da	 comisd	 xmm3, xmm2
  00100	77 46		 ja	 SHORT $LN124@Unguarded_
$LN42@Unguarded_:
  00102	0f 57 d2	 xorps	 xmm2, xmm2
  00105	f3 0f 5a d1	 cvtss2sd xmm2, xmm1
  00109	0f 5a d8	 cvtps2pd xmm3, xmm0
  0010c	66 0f 2f da	 comisd	 xmm3, xmm2
  00110	77 36		 ja	 SHORT $LN124@Unguarded_
  00112	0f 57 d2	 xorps	 xmm2, xmm2
  00115	f3 0f 5a d1	 cvtss2sd xmm2, xmm1
  00119	0f 5a c0	 cvtps2pd xmm0, xmm0
  0011c	66 0f 2e d0	 ucomisd xmm2, xmm0
  00120	9f		 lahf
  00121	f6 c4 44	 test	 ah, 68			; 00000044H
  00124	7a 16		 jp	 SHORT $LN48@Unguarded_
  00126	f3 0f 10 46 0c	 movss	 xmm0, DWORD PTR [esi+12]
  0012b	f3 0f 10 53 0c	 movss	 xmm2, DWORD PTR [ebx+12]
  00130	0f 5a c0	 cvtps2pd xmm0, xmm0
  00133	0f 5a d2	 cvtps2pd xmm2, xmm2
  00136	66 0f 2f d0	 comisd	 xmm2, xmm0
  0013a	77 0c		 ja	 SHORT $LN124@Unguarded_
$LN48@Unguarded_:

; 3725 : 		++_Plast;

  0013c	83 c3 1c	 add	 ebx, 28			; 0000001cH
  0013f	3b 5d 10	 cmp	 ebx, DWORD PTR __Last$[ebp]
  00142	0f 82 79 ff ff
	ff		 jb	 $LL25@Unguarded_
$LN124@Unguarded_:

; 3726 : 
; 3727 : 	_RanIt _Gfirst = _Plast;

  00148	8b fb		 mov	 edi, ebx

; 3728 : 	_RanIt _Glast = _Pfirst;

  0014a	89 75 fc	 mov	 DWORD PTR __Glast$[ebp], esi

; 3729 : 
; 3730 : 	for (; ; )
; 3731 : 		{	// partition
; 3732 : 		for (; _Gfirst < _Last; ++_Gfirst)

  0014d	e9 83 00 00 00	 jmp	 $LN134@Unguarded_
$LL21@Unguarded_:

; 3733 : 			if (_DEBUG_LT_PRED(_Pred, *_Pfirst, *_Gfirst))

  00152	f3 0f 10 06	 movss	 xmm0, DWORD PTR [esi]
  00156	f3 0f 10 0f	 movss	 xmm1, DWORD PTR [edi]
  0015a	0f 5a d0	 cvtps2pd xmm2, xmm0
  0015d	0f 5a d9	 cvtps2pd xmm3, xmm1
  00160	66 0f 2f da	 comisd	 xmm3, xmm2
  00164	77 6c		 ja	 SHORT $LN20@Unguarded_
  00166	0f 57 d2	 xorps	 xmm2, xmm2
  00169	0f 57 db	 xorps	 xmm3, xmm3
  0016c	0f 5a d0	 cvtps2pd xmm2, xmm0
  0016f	0f 5a d9	 cvtps2pd xmm3, xmm1
  00172	66 0f 2e d3	 ucomisd xmm2, xmm3
  00176	9f		 lahf
  00177	f6 c4 44	 test	 ah, 68			; 00000044H
  0017a	7a 16		 jp	 SHORT $LN54@Unguarded_
  0017c	f3 0f 10 56 0c	 movss	 xmm2, DWORD PTR [esi+12]
  00181	f3 0f 10 5f 0c	 movss	 xmm3, DWORD PTR [edi+12]
  00186	0f 5a d2	 cvtps2pd xmm2, xmm2
  00189	0f 5a db	 cvtps2pd xmm3, xmm3
  0018c	66 0f 2f da	 comisd	 xmm3, xmm2
  00190	77 40		 ja	 SHORT $LN20@Unguarded_
$LN54@Unguarded_:

; 3734 : 				;
; 3735 : 			else if (_Pred(*_Gfirst, *_Pfirst))

  00192	0f 5a d1	 cvtps2pd xmm2, xmm1
  00195	0f 5a d8	 cvtps2pd xmm3, xmm0
  00198	66 0f 2f da	 comisd	 xmm3, xmm2
  0019c	77 40		 ja	 SHORT $LN130@Unguarded_
  0019e	0f 5a c9	 cvtps2pd xmm1, xmm1
  001a1	0f 5a c0	 cvtps2pd xmm0, xmm0
  001a4	66 0f 2e c8	 ucomisd xmm1, xmm0
  001a8	9f		 lahf
  001a9	f6 c4 44	 test	 ah, 68			; 00000044H
  001ac	7a 16		 jp	 SHORT $LN60@Unguarded_
  001ae	f3 0f 10 47 0c	 movss	 xmm0, DWORD PTR [edi+12]
  001b3	f3 0f 10 4e 0c	 movss	 xmm1, DWORD PTR [esi+12]
  001b8	0f 5a c0	 cvtps2pd xmm0, xmm0
  001bb	0f 5a c9	 cvtps2pd xmm1, xmm1
  001be	66 0f 2f c8	 comisd	 xmm1, xmm0
  001c2	77 1a		 ja	 SHORT $LN130@Unguarded_
$LN60@Unguarded_:

; 3736 : 				break;
; 3737 : 			else
; 3738 : 				_STD iter_swap(_Plast++, _Gfirst);

  001c4	8b c3		 mov	 eax, ebx
  001c6	57		 push	 edi
  001c7	83 c3 1c	 add	 ebx, 28			; 0000001cH
  001ca	50		 push	 eax
$LN135@Unguarded_:
  001cb	e8 00 00 00 00	 call	 ??$swap@UChangeDirInfo@@@std@@YAXAAUChangeDirInfo@@0@Z ; std::swap<ChangeDirInfo>
  001d0	59		 pop	 ecx
  001d1	59		 pop	 ecx
$LN20@Unguarded_:

; 3729 : 
; 3730 : 	for (; ; )
; 3731 : 		{	// partition
; 3732 : 		for (; _Gfirst < _Last; ++_Gfirst)

  001d2	83 c7 1c	 add	 edi, 28			; 0000001cH
$LN134@Unguarded_:
  001d5	3b 7d 10	 cmp	 edi, DWORD PTR __Last$[ebp]
  001d8	0f 82 74 ff ff
	ff		 jb	 $LL21@Unguarded_
$LN130@Unguarded_:

; 3739 : 		for (; _First < _Glast; --_Glast)

  001de	8b 45 0c	 mov	 eax, DWORD PTR __First$[ebp]
  001e1	3b 45 fc	 cmp	 eax, DWORD PTR __Glast$[ebp]
  001e4	0f 83 96 00 00
	00		 jae	 $LN131@Unguarded_
$LL129@Unguarded_:
  001ea	8b 55 fc	 mov	 edx, DWORD PTR __Glast$[ebp]

; 3740 : 			if (_DEBUG_LT_PRED(_Pred, *(_Glast - 1), *_Pfirst))

  001ed	f3 0f 10 0e	 movss	 xmm1, DWORD PTR [esi]
  001f1	8d 4a e4	 lea	 ecx, DWORD PTR [edx-28]
  001f4	f3 0f 10 01	 movss	 xmm0, DWORD PTR [ecx]
  001f8	0f 5a d0	 cvtps2pd xmm2, xmm0
  001fb	0f 5a d9	 cvtps2pd xmm3, xmm1
  001fe	66 0f 2f da	 comisd	 xmm3, xmm2
  00202	89 4d f8	 mov	 DWORD PTR tv426[ebp], ecx
  00205	77 6d		 ja	 SHORT $LN13@Unguarded_
  00207	0f 57 d2	 xorps	 xmm2, xmm2
  0020a	0f 57 db	 xorps	 xmm3, xmm3
  0020d	0f 5a d0	 cvtps2pd xmm2, xmm0
  00210	0f 5a d9	 cvtps2pd xmm3, xmm1
  00213	66 0f 2e d3	 ucomisd xmm2, xmm3
  00217	9f		 lahf
  00218	f6 c4 44	 test	 ah, 68			; 00000044H
  0021b	7a 16		 jp	 SHORT $LN68@Unguarded_
  0021d	f3 0f 10 52 f0	 movss	 xmm2, DWORD PTR [edx-16]
  00222	f3 0f 10 5e 0c	 movss	 xmm3, DWORD PTR [esi+12]
  00227	0f 5a d2	 cvtps2pd xmm2, xmm2
  0022a	0f 5a db	 cvtps2pd xmm3, xmm3
  0022d	66 0f 2f da	 comisd	 xmm3, xmm2
  00231	77 41		 ja	 SHORT $LN13@Unguarded_
$LN68@Unguarded_:

; 3741 : 				;
; 3742 : 			else if (_Pred(*_Pfirst, *(_Glast - 1)))

  00233	0f 5a d1	 cvtps2pd xmm2, xmm1
  00236	0f 5a d8	 cvtps2pd xmm3, xmm0
  00239	66 0f 2f da	 comisd	 xmm3, xmm2
  0023d	77 41		 ja	 SHORT $LN131@Unguarded_
  0023f	0f 5a c9	 cvtps2pd xmm1, xmm1
  00242	0f 5a c0	 cvtps2pd xmm0, xmm0
  00245	66 0f 2e c8	 ucomisd xmm1, xmm0
  00249	9f		 lahf
  0024a	f6 c4 44	 test	 ah, 68			; 00000044H
  0024d	7a 16		 jp	 SHORT $LN74@Unguarded_
  0024f	f3 0f 10 46 0c	 movss	 xmm0, DWORD PTR [esi+12]
  00254	f3 0f 10 4a f0	 movss	 xmm1, DWORD PTR [edx-16]
  00259	0f 5a c0	 cvtps2pd xmm0, xmm0
  0025c	0f 5a c9	 cvtps2pd xmm1, xmm1
  0025f	66 0f 2f c8	 comisd	 xmm1, xmm0
  00263	77 1b		 ja	 SHORT $LN131@Unguarded_
$LN74@Unguarded_:

; 3743 : 				break;
; 3744 : 			else
; 3745 : 				_STD iter_swap(--_Pfirst, _Glast - 1);

  00265	83 ee 1c	 sub	 esi, 28			; 0000001cH
  00268	51		 push	 ecx
  00269	56		 push	 esi
  0026a	e8 00 00 00 00	 call	 ??$swap@UChangeDirInfo@@@std@@YAXAAUChangeDirInfo@@0@Z ; std::swap<ChangeDirInfo>
  0026f	59		 pop	 ecx
  00270	59		 pop	 ecx
  00271	8b 4d f8	 mov	 ecx, DWORD PTR tv426[ebp]
$LN13@Unguarded_:

; 3739 : 		for (; _First < _Glast; --_Glast)

  00274	89 4d fc	 mov	 DWORD PTR __Glast$[ebp], ecx
  00277	39 4d 0c	 cmp	 DWORD PTR __First$[ebp], ecx
  0027a	0f 82 6a ff ff
	ff		 jb	 $LL129@Unguarded_
$LN131@Unguarded_:

; 3746 : 		if (_Glast == _First && _Gfirst == _Last)

  00280	8b 45 fc	 mov	 eax, DWORD PTR __Glast$[ebp]
  00283	3b 45 0c	 cmp	 eax, DWORD PTR __First$[ebp]
  00286	75 1f		 jne	 SHORT $LN6@Unguarded_
  00288	3b 7d 10	 cmp	 edi, DWORD PTR __Last$[ebp]
  0028b	74 50		 je	 SHORT $LN112@Unguarded_

; 3748 : 
; 3749 : 		if (_Glast == _First)
; 3750 : 			{	// no room at bottom, rotate pivot upward
; 3751 : 			if (_Plast != _Gfirst)

  0028d	3b df		 cmp	 ebx, edi
  0028f	74 09		 je	 SHORT $LN94@Unguarded_

; 3752 : 				_STD iter_swap(_Pfirst, _Plast);

  00291	53		 push	 ebx
  00292	56		 push	 esi
  00293	e8 00 00 00 00	 call	 ??$swap@UChangeDirInfo@@@std@@YAXAAUChangeDirInfo@@0@Z ; std::swap<ChangeDirInfo>
  00298	59		 pop	 ecx
  00299	59		 pop	 ecx
$LN94@Unguarded_:

; 3753 : 			++_Plast;
; 3754 : 			_STD iter_swap(_Pfirst++, _Gfirst++);

  0029a	57		 push	 edi
  0029b	56		 push	 esi
  0029c	83 c3 1c	 add	 ebx, 28			; 0000001cH
  0029f	83 c6 1c	 add	 esi, 28			; 0000001cH
  002a2	83 c7 1c	 add	 edi, 28			; 0000001cH
  002a5	eb 21		 jmp	 SHORT $LN133@Unguarded_
$LN6@Unguarded_:

; 3755 : 			}
; 3756 : 		else if (_Gfirst == _Last)
; 3757 : 			{	// no room at top, rotate pivot downward
; 3758 : 			if (--_Glast != --_Pfirst)

  002a7	83 6d fc 1c	 sub	 DWORD PTR __Glast$[ebp], 28 ; 0000001cH
  002ab	3b 7d 10	 cmp	 edi, DWORD PTR __Last$[ebp]
  002ae	75 24		 jne	 SHORT $LN3@Unguarded_
  002b0	83 ee 1c	 sub	 esi, 28			; 0000001cH
  002b3	39 75 fc	 cmp	 DWORD PTR __Glast$[ebp], esi
  002b6	74 0b		 je	 SHORT $LN98@Unguarded_

; 3759 : 				_STD iter_swap(_Glast, _Pfirst);

  002b8	56		 push	 esi
  002b9	ff 75 fc	 push	 DWORD PTR __Glast$[ebp]
  002bc	e8 00 00 00 00	 call	 ??$swap@UChangeDirInfo@@@std@@YAXAAUChangeDirInfo@@0@Z ; std::swap<ChangeDirInfo>
  002c1	59		 pop	 ecx
  002c2	59		 pop	 ecx
$LN98@Unguarded_:

; 3760 : 			_STD iter_swap(_Pfirst, --_Plast);

  002c3	83 eb 1c	 sub	 ebx, 28			; 0000001cH
  002c6	53		 push	 ebx
  002c7	56		 push	 esi
$LN133@Unguarded_:
  002c8	e8 00 00 00 00	 call	 ??$swap@UChangeDirInfo@@@std@@YAXAAUChangeDirInfo@@0@Z ; std::swap<ChangeDirInfo>
  002cd	59		 pop	 ecx
  002ce	59		 pop	 ecx

; 3761 : 			}
; 3762 : 		else

  002cf	e9 01 ff ff ff	 jmp	 $LN134@Unguarded_
$LN3@Unguarded_:

; 3763 : 			_STD iter_swap(_Gfirst++, --_Glast);

  002d4	ff 75 fc	 push	 DWORD PTR __Glast$[ebp]
  002d7	57		 push	 edi

; 3764 : 		}

  002d8	e9 ee fe ff ff	 jmp	 $LN135@Unguarded_
$LN112@Unguarded_:

; 3747 : 			return (_STD pair<_RanIt, _RanIt>(_Pfirst, _Plast));

  002dd	8b 45 08	 mov	 eax, DWORD PTR ___$ReturnUdt$[ebp]
  002e0	5f		 pop	 edi
  002e1	89 30		 mov	 DWORD PTR [eax], esi
  002e3	5e		 pop	 esi
  002e4	89 58 04	 mov	 DWORD PTR [eax+4], ebx
  002e7	5b		 pop	 ebx

; 3765 : 	}

  002e8	c9		 leave
  002e9	c3		 ret	 0
??$_Unguarded_partition@PAUChangeDirInfo@@VChangeDirSort@@@std@@YA?AU?$pair@PAUChangeDirInfo@@PAU1@@0@PAUChangeDirInfo@@0VChangeDirSort@@@Z ENDP ; std::_Unguarded_partition<ChangeDirInfo *,ChangeDirSort>
_TEXT	ENDS
PUBLIC	??$make_heap@PAUChangeDirInfo@@VChangeDirSort@@@std@@YAXPAUChangeDirInfo@@0VChangeDirSort@@@Z ; std::make_heap<ChangeDirInfo *,ChangeDirSort>
; Function compile flags: /Ogsp
;	COMDAT ??$make_heap@PAUChangeDirInfo@@VChangeDirSort@@@std@@YAXPAUChangeDirInfo@@0VChangeDirSort@@@Z
_TEXT	SEGMENT
__First$ = 8						; size = 4
__Last$ = 12						; size = 4
__Pred$ = 16						; size = 1
??$make_heap@PAUChangeDirInfo@@VChangeDirSort@@@std@@YAXPAUChangeDirInfo@@0VChangeDirSort@@@Z PROC ; std::make_heap<ChangeDirInfo *,ChangeDirSort>, COMDAT

; 2672 : 	{	// make [_First, _Last) into a heap, using _Pred

  00000	55		 push	 ebp
  00001	8b ec		 mov	 ebp, esp

; 2673 : 	_DEBUG_RANGE(_First, _Last);
; 2674 : 	_DEBUG_POINTER(_Pred);
; 2675 : 	if (1 < _Last - _First)

  00003	8b 45 0c	 mov	 eax, DWORD PTR __Last$[ebp]
  00006	2b 45 08	 sub	 eax, DWORD PTR __First$[ebp]
  00009	6a 1c		 push	 28			; 0000001cH
  0000b	99		 cdq
  0000c	59		 pop	 ecx
  0000d	f7 f9		 idiv	 ecx
  0000f	83 f8 01	 cmp	 eax, 1
  00012	7e 15		 jle	 SHORT $LN1@make_heap

; 2676 : 		_Make_heap(_Unchecked(_First), _Unchecked(_Last), _Pred,
; 2677 : 			_Dist_type(_First), _Val_type(_First));

  00014	6a 00		 push	 0
  00016	6a 00		 push	 0
  00018	ff 75 10	 push	 DWORD PTR __Pred$[ebp]
  0001b	ff 75 0c	 push	 DWORD PTR __Last$[ebp]
  0001e	ff 75 08	 push	 DWORD PTR __First$[ebp]
  00021	e8 00 00 00 00	 call	 ??$_Make_heap@PAUChangeDirInfo@@HU1@VChangeDirSort@@@std@@YAXPAUChangeDirInfo@@0VChangeDirSort@@PAH0@Z ; std::_Make_heap<ChangeDirInfo *,int,ChangeDirInfo,ChangeDirSort>
  00026	83 c4 14	 add	 esp, 20			; 00000014H
$LN1@make_heap:

; 2678 : 	}

  00029	5d		 pop	 ebp
  0002a	c3		 ret	 0
??$make_heap@PAUChangeDirInfo@@VChangeDirSort@@@std@@YAXPAUChangeDirInfo@@0VChangeDirSort@@@Z ENDP ; std::make_heap<ChangeDirInfo *,ChangeDirSort>
_TEXT	ENDS
PUBLIC	??$_Uninit_move@PAVioHashString@@PAV1@V?$allocator@VioHashString@@@std@@V1@@std@@YAPAVioHashString@@PAV1@00AAV?$allocator@VioHashString@@@0@0U_Nonscalar_ptr_iterator_tag@0@@Z ; std::_Uninit_move<ioHashString *,ioHashString *,std::allocator<ioHashString>,ioHashString>
EXTRN	__EH_prolog3_catch:PROC
;	COMDAT xdata$x
; File c:\program files (x86)\microsoft visual studio 10.0\vc\include\vector
xdata$x	SEGMENT
__catchsym$??$_Uninit_move@PAVioHashString@@PAV1@V?$allocator@VioHashString@@@std@@V1@@std@@YAPAVioHashString@@PAV1@00AAV?$allocator@VioHashString@@@0@0U_Nonscalar_ptr_iterator_tag@0@@Z$2 DD 040H
	DD	00H
	DD	00H
	DD	FLAT:__catch$??$_Uninit_move@PAVioHashString@@PAV1@V?$allocator@VioHashString@@@std@@V1@@std@@YAPAVioHashString@@PAV1@00AAV?$allocator@VioHashString@@@0@0U_Nonscalar_ptr_iterator_tag@0@@Z$0
__unwindtable$??$_Uninit_move@PAVioHashString@@PAV1@V?$allocator@VioHashString@@@std@@V1@@std@@YAPAVioHashString@@PAV1@00AAV?$allocator@VioHashString@@@0@0U_Nonscalar_ptr_iterator_tag@0@@Z DD 0ffffffffH
	DD	00H
	DD	0ffffffffH
	DD	00H
__tryblocktable$??$_Uninit_move@PAVioHashString@@PAV1@V?$allocator@VioHashString@@@std@@V1@@std@@YAPAVioHashString@@PAV1@00AAV?$allocator@VioHashString@@@0@0U_Nonscalar_ptr_iterator_tag@0@@Z DD 00H
	DD	00H
	DD	01H
	DD	01H
	DD	FLAT:__catchsym$??$_Uninit_move@PAVioHashString@@PAV1@V?$allocator@VioHashString@@@std@@V1@@std@@YAPAVioHashString@@PAV1@00AAV?$allocator@VioHashString@@@0@0U_Nonscalar_ptr_iterator_tag@0@@Z$2
__ehfuncinfo$??$_Uninit_move@PAVioHashString@@PAV1@V?$allocator@VioHashString@@@std@@V1@@std@@YAPAVioHashString@@PAV1@00AAV?$allocator@VioHashString@@@0@0U_Nonscalar_ptr_iterator_tag@0@@Z DD 019930522H
	DD	02H
	DD	FLAT:__unwindtable$??$_Uninit_move@PAVioHashString@@PAV1@V?$allocator@VioHashString@@@std@@V1@@std@@YAPAVioHashString@@PAV1@00AAV?$allocator@VioHashString@@@0@0U_Nonscalar_ptr_iterator_tag@0@@Z
	DD	01H
	DD	FLAT:__tryblocktable$??$_Uninit_move@PAVioHashString@@PAV1@V?$allocator@VioHashString@@@std@@V1@@std@@YAPAVioHashString@@PAV1@00AAV?$allocator@VioHashString@@@0@0U_Nonscalar_ptr_iterator_tag@0@@Z
	DD	2 DUP(00H)
	DD	00H
	DD	01H
; Function compile flags: /Ogsp
; File c:\program files (x86)\microsoft visual studio 10.0\vc\include\memory
xdata$x	ENDS
;	COMDAT ??$_Uninit_move@PAVioHashString@@PAV1@V?$allocator@VioHashString@@@std@@V1@@std@@YAPAVioHashString@@PAV1@00AAV?$allocator@VioHashString@@@0@0U_Nonscalar_ptr_iterator_tag@0@@Z
_TEXT	SEGMENT
__Next$ = -20						; size = 4
__$EHRec$ = -16						; size = 16
__First$ = 8						; size = 4
__Last$ = 12						; size = 4
__Dest$ = 16						; size = 4
__Al$ = 20						; size = 4
___formal$ = 24						; size = 4
___formal$ = 28						; size = 1
??$_Uninit_move@PAVioHashString@@PAV1@V?$allocator@VioHashString@@@std@@V1@@std@@YAPAVioHashString@@PAV1@00AAV?$allocator@VioHashString@@@0@0U_Nonscalar_ptr_iterator_tag@0@@Z PROC ; std::_Uninit_move<ioHashString *,ioHashString *,std::allocator<ioHashString>,ioHashString>, COMDAT

; 424  : 	{	// move [_First, _Last) to raw _Dest, using _Al, arbitrary type

  00000	6a 08		 push	 8
  00002	b8 00 00 00 00	 mov	 eax, __ehhandler$??$_Uninit_move@PAVioHashString@@PAV1@V?$allocator@VioHashString@@@std@@V1@@std@@YAPAVioHashString@@PAV1@00AAV?$allocator@VioHashString@@@0@0U_Nonscalar_ptr_iterator_tag@0@@Z
  00007	e8 00 00 00 00	 call	 __EH_prolog3_catch

; 425  : 	_DEBUG_RANGE(_First, _Last);
; 426  : 	_DEBUG_POINTER(_Dest);
; 427  : 	_FwdIt _Next = _Dest;

  0000c	8b 45 10	 mov	 eax, DWORD PTR __Dest$[ebp]

; 428  : 
; 429  : 	_TRY_BEGIN

  0000f	83 65 fc 00	 and	 DWORD PTR __$EHRec$[ebp+12], 0
  00013	8b 75 08	 mov	 esi, DWORD PTR __First$[ebp]
  00016	89 45 ec	 mov	 DWORD PTR __Next$[ebp], eax
$LL6@Uninit_mov@2:

; 430  : 	for (; _First != _Last; ++_Dest, ++_First)

  00019	3b 75 0c	 cmp	 esi, DWORD PTR __Last$[ebp]
  0001c	74 33		 je	 SHORT $LN4@Uninit_mov@2

; 431  : 		_Cons_val(_Al, _Dest, (_Valty &&)*_First);

  0001e	8b 4d 14	 mov	 ecx, DWORD PTR __Al$[ebp]
  00021	56		 push	 esi
  00022	ff 75 10	 push	 DWORD PTR __Dest$[ebp]
  00025	e8 00 00 00 00	 call	 ?construct@?$allocator@VioHashString@@@std@@QAEXPAVioHashString@@$$QAV3@@Z ; std::allocator<ioHashString>::construct
  0002a	83 45 10 10	 add	 DWORD PTR __Dest$[ebp], 16 ; 00000010H
  0002e	83 c6 10	 add	 esi, 16			; 00000010H
  00031	eb e6		 jmp	 SHORT $LL6@Uninit_mov@2
__catch$??$_Uninit_move@PAVioHashString@@PAV1@V?$allocator@VioHashString@@@std@@V1@@std@@YAPAVioHashString@@PAV1@00AAV?$allocator@VioHashString@@@0@0U_Nonscalar_ptr_iterator_tag@0@@Z$0:

; 432  : 	_CATCH_ALL
; 433  : 	for (; _Next != _Dest; ++_Next)

  00033	8b 75 ec	 mov	 esi, DWORD PTR __Next$[ebp]
  00036	eb 0b		 jmp	 SHORT $LN33@Uninit_mov@2
$LL3@Uninit_mov@2:

; 434  : 		_Dest_val(_Al, _Next);

  00038	8b ce		 mov	 ecx, esi
  0003a	ff 15 00 00 00
	00		 call	 DWORD PTR __imp_??1ioHashString@@QAE@XZ
  00040	83 c6 10	 add	 esi, 16			; 00000010H
$LN33@Uninit_mov@2:

; 432  : 	_CATCH_ALL
; 433  : 	for (; _Next != _Dest; ++_Next)

  00043	3b 75 10	 cmp	 esi, DWORD PTR __Dest$[ebp]
  00046	75 f0		 jne	 SHORT $LL3@Uninit_mov@2

; 435  : 	_RERAISE;

  00048	6a 00		 push	 0
  0004a	6a 00		 push	 0
  0004c	e8 00 00 00 00	 call	 __CxxThrowException@8
$LN34@Uninit_mov@2:
$LN4@Uninit_mov@2:

; 436  : 	_CATCH_END
; 437  : 	return (_Dest);

  00051	8b 45 10	 mov	 eax, DWORD PTR __Dest$[ebp]

; 438  : 	}

  00054	e8 00 00 00 00	 call	 __EH_epilog3
  00059	c3		 ret	 0
$LN32@Uninit_mov@2:
_TEXT	ENDS
;	COMDAT text$x
text$x	SEGMENT
__ehhandler$??$_Uninit_move@PAVioHashString@@PAV1@V?$allocator@VioHashString@@@std@@V1@@std@@YAPAVioHashString@@PAV1@00AAV?$allocator@VioHashString@@@0@0U_Nonscalar_ptr_iterator_tag@0@@Z:
  00000	8b 54 24 08	 mov	 edx, DWORD PTR [esp+8]
  00004	8d 42 0c	 lea	 eax, DWORD PTR [edx+12]
  00007	8b 4a e8	 mov	 ecx, DWORD PTR [edx-24]
  0000a	33 c8		 xor	 ecx, eax
  0000c	e8 00 00 00 00	 call	 @__security_check_cookie@4
  00011	b8 00 00 00 00	 mov	 eax, OFFSET __ehfuncinfo$??$_Uninit_move@PAVioHashString@@PAV1@V?$allocator@VioHashString@@@std@@V1@@std@@YAPAVioHashString@@PAV1@00AAV?$allocator@VioHashString@@@0@0U_Nonscalar_ptr_iterator_tag@0@@Z
  00016	e9 00 00 00 00	 jmp	 ___CxxFrameHandler3
text$x	ENDS
??$_Uninit_move@PAVioHashString@@PAV1@V?$allocator@VioHashString@@@std@@V1@@std@@YAPAVioHashString@@PAV1@00AAV?$allocator@VioHashString@@@0@0U_Nonscalar_ptr_iterator_tag@0@@Z ENDP ; std::_Uninit_move<ioHashString *,ioHashString *,std::allocator<ioHashString>,ioHashString>
PUBLIC	??$_Pop_heap@PAUChangeDirInfo@@VChangeDirSort@@@std@@YAXPAUChangeDirInfo@@0VChangeDirSort@@@Z ; std::_Pop_heap<ChangeDirInfo *,ChangeDirSort>
; Function compile flags: /Ogsp
; File c:\program files (x86)\microsoft visual studio 10.0\vc\include\algorithm
;	COMDAT ??$_Pop_heap@PAUChangeDirInfo@@VChangeDirSort@@@std@@YAXPAUChangeDirInfo@@0VChangeDirSort@@@Z
_TEXT	SEGMENT
__First$ = 8						; size = 4
__Last$ = 12						; size = 4
__Pred$ = 16						; size = 1
??$_Pop_heap@PAUChangeDirInfo@@VChangeDirSort@@@std@@YAXPAUChangeDirInfo@@0VChangeDirSort@@@Z PROC ; std::_Pop_heap<ChangeDirInfo *,ChangeDirSort>, COMDAT

; 2610 : 	{	// pop *_First to *(_Last - 1) and reheap, using _Pred

  00000	55		 push	 ebp
  00001	8b ec		 mov	 ebp, esp

; 2611 : 	_Pop_heap_0(_Unchecked(_First), _Unchecked(_Last), _Pred,
; 2612 : 		_Val_type(_First));

  00003	6a 00		 push	 0
  00005	ff 75 10	 push	 DWORD PTR __Pred$[ebp]
  00008	ff 75 0c	 push	 DWORD PTR __Last$[ebp]
  0000b	ff 75 08	 push	 DWORD PTR __First$[ebp]
  0000e	e8 00 00 00 00	 call	 ??$_Pop_heap_0@PAUChangeDirInfo@@U1@VChangeDirSort@@@std@@YAXPAUChangeDirInfo@@0VChangeDirSort@@0@Z ; std::_Pop_heap_0<ChangeDirInfo *,ChangeDirInfo,ChangeDirSort>
  00013	83 c4 10	 add	 esp, 16			; 00000010H

; 2613 : 	}

  00016	5d		 pop	 ebp
  00017	c3		 ret	 0
??$_Pop_heap@PAUChangeDirInfo@@VChangeDirSort@@@std@@YAXPAUChangeDirInfo@@0VChangeDirSort@@@Z ENDP ; std::_Pop_heap<ChangeDirInfo *,ChangeDirSort>
_TEXT	ENDS
PUBLIC	??$_Destroy_range@V?$allocator@VioHashString@@@std@@@std@@YAXPAVioHashString@@0AAV?$allocator@VioHashString@@@0@U_Nonscalar_ptr_iterator_tag@0@@Z ; std::_Destroy_range<std::allocator<ioHashString> >
; Function compile flags: /Ogsp
; File c:\program files (x86)\microsoft visual studio 10.0\vc\include\xmemory
;	COMDAT ??$_Destroy_range@V?$allocator@VioHashString@@@std@@@std@@YAXPAVioHashString@@0AAV?$allocator@VioHashString@@@0@U_Nonscalar_ptr_iterator_tag@0@@Z
_TEXT	SEGMENT
__First$ = 8						; size = 4
__Last$ = 12						; size = 4
__Al$ = 16						; size = 4
___formal$ = 20						; size = 1
??$_Destroy_range@V?$allocator@VioHashString@@@std@@@std@@YAXPAVioHashString@@0AAV?$allocator@VioHashString@@@0@U_Nonscalar_ptr_iterator_tag@0@@Z PROC ; std::_Destroy_range<std::allocator<ioHashString> >, COMDAT

; 95   : 	{	// destroy [_First, _Last), arbitrary type

  00000	55		 push	 ebp
  00001	8b ec		 mov	 ebp, esp
  00003	56		 push	 esi

; 96   : 	for (; _First != _Last; ++_First)

  00004	8b 75 08	 mov	 esi, DWORD PTR __First$[ebp]
  00007	eb 0b		 jmp	 SHORT $LN17@Destroy_ra
$LL3@Destroy_ra:

; 97   : 		_Dest_val(_Al, _First);

  00009	8b ce		 mov	 ecx, esi
  0000b	ff 15 00 00 00
	00		 call	 DWORD PTR __imp_??1ioHashString@@QAE@XZ
  00011	83 c6 10	 add	 esi, 16			; 00000010H
$LN17@Destroy_ra:

; 96   : 	for (; _First != _Last; ++_First)

  00014	3b 75 0c	 cmp	 esi, DWORD PTR __Last$[ebp]
  00017	75 f0		 jne	 SHORT $LL3@Destroy_ra
  00019	5e		 pop	 esi

; 98   : 	}

  0001a	5d		 pop	 ebp
  0001b	c3		 ret	 0
??$_Destroy_range@V?$allocator@VioHashString@@@std@@@std@@YAXPAVioHashString@@0AAV?$allocator@VioHashString@@@0@U_Nonscalar_ptr_iterator_tag@0@@Z ENDP ; std::_Destroy_range<std::allocator<ioHashString> >
_TEXT	ENDS
PUBLIC	?_Destroy@?$vector@UChangeDirInfo@@V?$allocator@UChangeDirInfo@@@std@@@std@@IAEXPAUChangeDirInfo@@0@Z ; std::vector<ChangeDirInfo,std::allocator<ChangeDirInfo> >::_Destroy
; Function compile flags: /Ogsp
; File c:\program files (x86)\microsoft visual studio 10.0\vc\include\vector
;	COMDAT ?_Destroy@?$vector@UChangeDirInfo@@V?$allocator@UChangeDirInfo@@@std@@@std@@IAEXPAUChangeDirInfo@@0@Z
_TEXT	SEGMENT
__First$ = 8						; size = 4
__Last$ = 12						; size = 4
?_Destroy@?$vector@UChangeDirInfo@@V?$allocator@UChangeDirInfo@@@std@@@std@@IAEXPAUChangeDirInfo@@0@Z PROC ; std::vector<ChangeDirInfo,std::allocator<ChangeDirInfo> >::_Destroy, COMDAT
; _this$ = ecx

; 1270 : 		_Destroy_range(_First, _Last, this->_Alval);
; 1271 : 		}

  00000	c2 08 00	 ret	 8
?_Destroy@?$vector@UChangeDirInfo@@V?$allocator@UChangeDirInfo@@@std@@@std@@IAEXPAUChangeDirInfo@@0@Z ENDP ; std::vector<ChangeDirInfo,std::allocator<ChangeDirInfo> >::_Destroy
_TEXT	ENDS
PUBLIC	?_Tidy@?$vector@UChangeDirInfo@@V?$allocator@UChangeDirInfo@@@std@@@std@@IAEXXZ ; std::vector<ChangeDirInfo,std::allocator<ChangeDirInfo> >::_Tidy
EXTRN	__imp_?_Orphan_all@_Container_base0@std@@QAEXXZ:PROC
; Function compile flags: /Ogsp
;	COMDAT ?_Tidy@?$vector@UChangeDirInfo@@V?$allocator@UChangeDirInfo@@@std@@@std@@IAEXXZ
_TEXT	SEGMENT
?_Tidy@?$vector@UChangeDirInfo@@V?$allocator@UChangeDirInfo@@@std@@@std@@IAEXXZ PROC ; std::vector<ChangeDirInfo,std::allocator<ChangeDirInfo> >::_Tidy, COMDAT
; _this$ = ecx

; 1301 : 		{	// free all storage

  00000	56		 push	 esi
  00001	8b f1		 mov	 esi, ecx

; 1302 : 		if (this->_Myfirst != 0)

  00003	83 3e 00	 cmp	 DWORD PTR [esi], 0
  00006	74 0e		 je	 SHORT $LN21@Tidy

; 1303 : 			{	// something to free, destroy and deallocate it
; 1304 : 			this->_Orphan_all();

  00008	ff 15 00 00 00
	00		 call	 DWORD PTR __imp_?_Orphan_all@_Container_base0@std@@QAEXXZ

; 1305 : 			_Destroy(this->_Myfirst, this->_Mylast);
; 1306 : 			this->_Alval.deallocate(this->_Myfirst,
; 1307 : 				this->_Myend - this->_Myfirst);

  0000e	ff 36		 push	 DWORD PTR [esi]
  00010	e8 00 00 00 00	 call	 ??3@YAXPAX@Z		; operator delete
  00015	59		 pop	 ecx
$LN21@Tidy:

; 1308 : 			}
; 1309 : 		this->_Myfirst = 0;

  00016	83 26 00	 and	 DWORD PTR [esi], 0

; 1310 : 		this->_Mylast = 0;

  00019	83 66 04 00	 and	 DWORD PTR [esi+4], 0

; 1311 : 		this->_Myend = 0;

  0001d	83 66 08 00	 and	 DWORD PTR [esi+8], 0
  00021	5e		 pop	 esi

; 1312 : 		}

  00022	c3		 ret	 0
?_Tidy@?$vector@UChangeDirInfo@@V?$allocator@UChangeDirInfo@@@std@@@std@@IAEXXZ ENDP ; std::vector<ChangeDirInfo,std::allocator<ChangeDirInfo> >::_Tidy
_TEXT	ENDS
PUBLIC	??$_Umove@PAUChangeDirInfo@@@?$vector@UChangeDirInfo@@V?$allocator@UChangeDirInfo@@@std@@@std@@IAEPAUChangeDirInfo@@PAU2@00@Z ; std::vector<ChangeDirInfo,std::allocator<ChangeDirInfo> >::_Umove<ChangeDirInfo *>
; Function compile flags: /Ogsp
;	COMDAT ??$_Umove@PAUChangeDirInfo@@@?$vector@UChangeDirInfo@@V?$allocator@UChangeDirInfo@@@std@@@std@@IAEPAUChangeDirInfo@@PAU2@00@Z
_TEXT	SEGMENT
__First$ = 8						; size = 4
__Last$ = 12						; size = 4
__Ptr$ = 16						; size = 4
??$_Umove@PAUChangeDirInfo@@@?$vector@UChangeDirInfo@@V?$allocator@UChangeDirInfo@@@std@@@std@@IAEPAUChangeDirInfo@@PAU2@00@Z PROC ; std::vector<ChangeDirInfo,std::allocator<ChangeDirInfo> >::_Umove<ChangeDirInfo *>, COMDAT
; _this$ = ecx

; 1322 : 		pointer _Umove(_Iter _First, _Iter _Last, pointer _Ptr)

  00000	55		 push	 ebp
  00001	8b ec		 mov	 ebp, esp

; 1323 : 		{	// move initializing [_First, _Last), using allocator
; 1324 : 		return (_Uninitialized_move(_First, _Last,
; 1325 : 			_Ptr, this->_Alval));

  00003	83 c1 0c	 add	 ecx, 12			; 0000000cH
  00006	51		 push	 ecx
  00007	ff 75 10	 push	 DWORD PTR __Ptr$[ebp]
  0000a	ff 75 0c	 push	 DWORD PTR __Last$[ebp]
  0000d	ff 75 08	 push	 DWORD PTR __First$[ebp]
  00010	e8 00 00 00 00	 call	 ??$_Uninitialized_move@PAUChangeDirInfo@@PAU1@V?$allocator@UChangeDirInfo@@@std@@@std@@YAPAUChangeDirInfo@@PAU1@00AAV?$allocator@UChangeDirInfo@@@0@@Z ; std::_Uninitialized_move<ChangeDirInfo *,ChangeDirInfo *,std::allocator<ChangeDirInfo> >
  00015	83 c4 10	 add	 esp, 16			; 00000010H

; 1326 : 		}

  00018	5d		 pop	 ebp
  00019	c2 0c 00	 ret	 12			; 0000000cH
??$_Umove@PAUChangeDirInfo@@@?$vector@UChangeDirInfo@@V?$allocator@UChangeDirInfo@@@std@@@std@@IAEPAUChangeDirInfo@@PAU2@00@Z ENDP ; std::vector<ChangeDirInfo,std::allocator<ChangeDirInfo> >::_Umove<ChangeDirInfo *>
_TEXT	ENDS
PUBLIC	??$_Uninitialized_move@PAVioHashString@@PAV1@V?$allocator@VioHashString@@@std@@@std@@YAPAVioHashString@@PAV1@00AAV?$allocator@VioHashString@@@0@@Z ; std::_Uninitialized_move<ioHashString *,ioHashString *,std::allocator<ioHashString> >
; Function compile flags: /Ogsp
; File c:\program files (x86)\microsoft visual studio 10.0\vc\include\memory
;	COMDAT ??$_Uninitialized_move@PAVioHashString@@PAV1@V?$allocator@VioHashString@@@std@@@std@@YAPAVioHashString@@PAV1@00AAV?$allocator@VioHashString@@@0@@Z
_TEXT	SEGMENT
__Cat$538253 = -4					; size = 1
__First$ = 8						; size = 4
__Last$ = 12						; size = 4
__Dest$ = 16						; size = 4
__Al$ = 20						; size = 4
??$_Uninitialized_move@PAVioHashString@@PAV1@V?$allocator@VioHashString@@@std@@@std@@YAPAVioHashString@@PAV1@00AAV?$allocator@VioHashString@@@0@@Z PROC ; std::_Uninitialized_move<ioHashString *,ioHashString *,std::allocator<ioHashString> >, COMDAT

; 469  : 	{	// move [_First, _Last) to raw _Dest, using _Al

  00000	55		 push	 ebp
  00001	8b ec		 mov	 ebp, esp
  00003	51		 push	 ecx

; 470  : 	return (_Uninit_move(_First, _Last, _Dest, _Al,
; 471  : 		_Val_type(_First), _Ptr_cat(_First, _Dest)));

  00004	ff 75 fc	 push	 DWORD PTR __Cat$538253[ebp]
  00007	6a 00		 push	 0
  00009	ff 75 14	 push	 DWORD PTR __Al$[ebp]
  0000c	ff 75 10	 push	 DWORD PTR __Dest$[ebp]
  0000f	ff 75 0c	 push	 DWORD PTR __Last$[ebp]
  00012	ff 75 08	 push	 DWORD PTR __First$[ebp]
  00015	e8 00 00 00 00	 call	 ??$_Uninit_move@PAVioHashString@@PAV1@V?$allocator@VioHashString@@@std@@V1@@std@@YAPAVioHashString@@PAV1@00AAV?$allocator@VioHashString@@@0@0U_Nonscalar_ptr_iterator_tag@0@@Z ; std::_Uninit_move<ioHashString *,ioHashString *,std::allocator<ioHashString>,ioHashString>
  0001a	83 c4 18	 add	 esp, 24			; 00000018H

; 472  : 	}

  0001d	c9		 leave
  0001e	c3		 ret	 0
??$_Uninitialized_move@PAVioHashString@@PAV1@V?$allocator@VioHashString@@@std@@@std@@YAPAVioHashString@@PAV1@00AAV?$allocator@VioHashString@@@0@@Z ENDP ; std::_Uninitialized_move<ioHashString *,ioHashString *,std::allocator<ioHashString> >
_TEXT	ENDS
PUBLIC	??$_Sort_heap@PAUChangeDirInfo@@VChangeDirSort@@@std@@YAXPAUChangeDirInfo@@0VChangeDirSort@@@Z ; std::_Sort_heap<ChangeDirInfo *,ChangeDirSort>
; Function compile flags: /Ogsp
; File c:\program files (x86)\microsoft visual studio 10.0\vc\include\algorithm
;	COMDAT ??$_Sort_heap@PAUChangeDirInfo@@VChangeDirSort@@@std@@YAXPAUChangeDirInfo@@0VChangeDirSort@@@Z
_TEXT	SEGMENT
__First$ = 8						; size = 4
__Last$ = 12						; size = 4
__Pred$ = 16						; size = 1
??$_Sort_heap@PAUChangeDirInfo@@VChangeDirSort@@@std@@YAXPAUChangeDirInfo@@0VChangeDirSort@@@Z PROC ; std::_Sort_heap<ChangeDirInfo *,ChangeDirSort>, COMDAT

; 2700 : 	{	// order heap by repeatedly popping, using _Pred

  00000	55		 push	 ebp
  00001	8b ec		 mov	 ebp, esp

; 2701 : 	for (; 1 < _Last - _First; --_Last)

  00003	8b 4d 0c	 mov	 ecx, DWORD PTR __Last$[ebp]
  00006	2b 4d 08	 sub	 ecx, DWORD PTR __First$[ebp]
  00009	57		 push	 edi
  0000a	8b c1		 mov	 eax, ecx
  0000c	6a 1c		 push	 28			; 0000001cH
  0000e	99		 cdq
  0000f	5f		 pop	 edi
  00010	f7 ff		 idiv	 edi
  00012	83 f8 01	 cmp	 eax, 1
  00015	7e 29		 jle	 SHORT $LN1@Sort_heap
  00017	8b f9		 mov	 edi, ecx
$LL3@Sort_heap:

; 2702 : 		_Pop_heap(_First, _Last, _Pred);

  00019	6a 00		 push	 0
  0001b	ff 75 10	 push	 DWORD PTR __Pred$[ebp]
  0001e	ff 75 0c	 push	 DWORD PTR __Last$[ebp]
  00021	ff 75 08	 push	 DWORD PTR __First$[ebp]
  00024	e8 00 00 00 00	 call	 ??$_Pop_heap_0@PAUChangeDirInfo@@U1@VChangeDirSort@@@std@@YAXPAUChangeDirInfo@@0VChangeDirSort@@0@Z ; std::_Pop_heap_0<ChangeDirInfo *,ChangeDirInfo,ChangeDirSort>
  00029	83 c4 10	 add	 esp, 16			; 00000010H
  0002c	83 ef 1c	 sub	 edi, 28			; 0000001cH
  0002f	8b c7		 mov	 eax, edi
  00031	6a 1c		 push	 28			; 0000001cH
  00033	99		 cdq
  00034	59		 pop	 ecx
  00035	f7 f9		 idiv	 ecx
  00037	83 6d 0c 1c	 sub	 DWORD PTR __Last$[ebp], 28 ; 0000001cH
  0003b	83 f8 01	 cmp	 eax, 1
  0003e	7f d9		 jg	 SHORT $LL3@Sort_heap
$LN1@Sort_heap:
  00040	5f		 pop	 edi

; 2703 : 	}

  00041	5d		 pop	 ebp
  00042	c3		 ret	 0
??$_Sort_heap@PAUChangeDirInfo@@VChangeDirSort@@@std@@YAXPAUChangeDirInfo@@0VChangeDirSort@@@Z ENDP ; std::_Sort_heap<ChangeDirInfo *,ChangeDirSort>
_TEXT	ENDS
PUBLIC	??$_Destroy_range@V?$allocator@VioHashString@@@std@@@std@@YAXPAVioHashString@@0AAV?$allocator@VioHashString@@@0@@Z ; std::_Destroy_range<std::allocator<ioHashString> >
; Function compile flags: /Ogsp
; File c:\program files (x86)\microsoft visual studio 10.0\vc\include\xmemory
;	COMDAT ??$_Destroy_range@V?$allocator@VioHashString@@@std@@@std@@YAXPAVioHashString@@0AAV?$allocator@VioHashString@@@0@@Z
_TEXT	SEGMENT
__First$ = 8						; size = 4
__Last$ = 12						; size = 4
__Al$ = 16						; size = 4
??$_Destroy_range@V?$allocator@VioHashString@@@std@@@std@@YAXPAVioHashString@@0AAV?$allocator@VioHashString@@@0@@Z PROC ; std::_Destroy_range<std::allocator<ioHashString> >, COMDAT

; 87   : 	{	// destroy [_First, _Last)

  00000	55		 push	 ebp
  00001	8b ec		 mov	 ebp, esp
  00003	56		 push	 esi

; 88   : 	_Destroy_range(_First, _Last, _Al, _Ptr_cat(_First, _Last));

  00004	8b 75 08	 mov	 esi, DWORD PTR __First$[ebp]
  00007	eb 0b		 jmp	 SHORT $LN21@Destroy_ra@2
$LL7@Destroy_ra@2:
  00009	8b ce		 mov	 ecx, esi
  0000b	ff 15 00 00 00
	00		 call	 DWORD PTR __imp_??1ioHashString@@QAE@XZ
  00011	83 c6 10	 add	 esi, 16			; 00000010H
$LN21@Destroy_ra@2:
  00014	3b 75 0c	 cmp	 esi, DWORD PTR __Last$[ebp]
  00017	75 f0		 jne	 SHORT $LL7@Destroy_ra@2
  00019	5e		 pop	 esi

; 89   : 	}

  0001a	5d		 pop	 ebp
  0001b	c3		 ret	 0
??$_Destroy_range@V?$allocator@VioHashString@@@std@@@std@@YAXPAVioHashString@@0AAV?$allocator@VioHashString@@@0@@Z ENDP ; std::_Destroy_range<std::allocator<ioHashString> >
_TEXT	ENDS
PUBLIC	??1?$vector@UChangeDirInfo@@V?$allocator@UChangeDirInfo@@@std@@@std@@QAE@XZ ; std::vector<ChangeDirInfo,std::allocator<ChangeDirInfo> >::~vector<ChangeDirInfo,std::allocator<ChangeDirInfo> >
; Function compile flags: /Ogsp
; File c:\program files (x86)\microsoft visual studio 10.0\vc\include\vector
;	COMDAT ??1?$vector@UChangeDirInfo@@V?$allocator@UChangeDirInfo@@@std@@@std@@QAE@XZ
_TEXT	SEGMENT
??1?$vector@UChangeDirInfo@@V?$allocator@UChangeDirInfo@@@std@@@std@@QAE@XZ PROC ; std::vector<ChangeDirInfo,std::allocator<ChangeDirInfo> >::~vector<ChangeDirInfo,std::allocator<ChangeDirInfo> >, COMDAT
; _this$ = ecx

; 705  : 		_Tidy();

  00000	e9 00 00 00 00	 jmp	 ?_Tidy@?$vector@UChangeDirInfo@@V?$allocator@UChangeDirInfo@@@std@@@std@@IAEXXZ ; std::vector<ChangeDirInfo,std::allocator<ChangeDirInfo> >::_Tidy
??1?$vector@UChangeDirInfo@@V?$allocator@UChangeDirInfo@@@std@@@std@@QAE@XZ ENDP ; std::vector<ChangeDirInfo,std::allocator<ChangeDirInfo> >::~vector<ChangeDirInfo,std::allocator<ChangeDirInfo> >
_TEXT	ENDS
PUBLIC	?reserve@?$vector@UChangeDirInfo@@V?$allocator@UChangeDirInfo@@@std@@@std@@QAEXI@Z ; std::vector<ChangeDirInfo,std::allocator<ChangeDirInfo> >::reserve
;	COMDAT xdata$x
; File c:\program files (x86)\microsoft visual studio 10.0\vc\include\xmemory
xdata$x	SEGMENT
__catchsym$?reserve@?$vector@UChangeDirInfo@@V?$allocator@UChangeDirInfo@@@std@@@std@@QAEXI@Z$2 DD 040H
	DD	00H
	DD	00H
	DD	FLAT:__catch$?reserve@?$vector@UChangeDirInfo@@V?$allocator@UChangeDirInfo@@@std@@@std@@QAEXI@Z$0
__unwindtable$?reserve@?$vector@UChangeDirInfo@@V?$allocator@UChangeDirInfo@@@std@@@std@@QAEXI@Z DD 0ffffffffH
	DD	00H
	DD	0ffffffffH
	DD	00H
__tryblocktable$?reserve@?$vector@UChangeDirInfo@@V?$allocator@UChangeDirInfo@@@std@@@std@@QAEXI@Z DD 00H
	DD	00H
	DD	01H
	DD	01H
	DD	FLAT:__catchsym$?reserve@?$vector@UChangeDirInfo@@V?$allocator@UChangeDirInfo@@@std@@@std@@QAEXI@Z$2
__ehfuncinfo$?reserve@?$vector@UChangeDirInfo@@V?$allocator@UChangeDirInfo@@@std@@@std@@QAEXI@Z DD 019930522H
	DD	02H
	DD	FLAT:__unwindtable$?reserve@?$vector@UChangeDirInfo@@V?$allocator@UChangeDirInfo@@@std@@@std@@QAEXI@Z
	DD	01H
	DD	FLAT:__tryblocktable$?reserve@?$vector@UChangeDirInfo@@V?$allocator@UChangeDirInfo@@@std@@@std@@QAEXI@Z
	DD	2 DUP(00H)
	DD	00H
	DD	01H
; Function compile flags: /Ogsp
; File c:\program files (x86)\microsoft visual studio 10.0\vc\include\vector
xdata$x	ENDS
;	COMDAT ?reserve@?$vector@UChangeDirInfo@@V?$allocator@UChangeDirInfo@@@std@@@std@@QAEXI@Z
_TEXT	SEGMENT
__$EHRec$ = -16						; size = 16
__Ptr$532050 = 8					; size = 4
__Count$ = 8						; size = 4
?reserve@?$vector@UChangeDirInfo@@V?$allocator@UChangeDirInfo@@@std@@@std@@QAEXI@Z PROC ; std::vector<ChangeDirInfo,std::allocator<ChangeDirInfo> >::reserve, COMDAT
; _this$ = ecx

; 746  : 		{	// determine new minimum length of allocated storage

  00000	6a 04		 push	 4
  00002	b8 00 00 00 00	 mov	 eax, __ehhandler$?reserve@?$vector@UChangeDirInfo@@V?$allocator@UChangeDirInfo@@@std@@@std@@QAEXI@Z
  00007	e8 00 00 00 00	 call	 __EH_prolog3_catch
  0000c	8b f1		 mov	 esi, ecx

; 747  : 		if (max_size() < _Count)

  0000e	8b 5d 08	 mov	 ebx, DWORD PTR __Count$[ebp]
  00011	81 fb 49 92 24
	09		 cmp	 ebx, 153391689		; 09249249H
  00017	76 0b		 jbe	 SHORT $LN5@reserve

; 748  : 			_Xlen();	// result too long

  00019	68 00 00 00 00	 push	 OFFSET ??_C@_0BD@OLBABOEK@vector?$DMT?$DO?5too?5long?$AA@
  0001e	ff 15 00 00 00
	00		 call	 DWORD PTR __imp_?_Xlength_error@std@@YAXPBD@Z
$LN56@reserve:
$LN5@reserve:

; 749  : 		else if (capacity() < _Count)

  00024	8b 46 08	 mov	 eax, DWORD PTR [esi+8]
  00027	2b 06		 sub	 eax, DWORD PTR [esi]
  00029	6a 1c		 push	 28			; 0000001cH
  0002b	99		 cdq
  0002c	59		 pop	 ecx
  0002d	f7 f9		 idiv	 ecx
  0002f	3b c3		 cmp	 eax, ebx
  00031	73 6b		 jae	 SHORT $LN3@reserve

; 750  : 			{	// not enough room, reallocate
; 751  : 			pointer _Ptr = this->_Alval.allocate(_Count);

  00033	6a 00		 push	 0
  00035	53		 push	 ebx
  00036	e8 00 00 00 00	 call	 ??$_Allocate@UChangeDirInfo@@@std@@YAPAUChangeDirInfo@@IPAU1@@Z ; std::_Allocate<ChangeDirInfo>

; 752  : 
; 753  : 			_TRY_BEGIN
; 754  : 			_Umove(this->_Myfirst, this->_Mylast, _Ptr);

  0003b	8b 0e		 mov	 ecx, DWORD PTR [esi]
  0003d	83 65 fc 00	 and	 DWORD PTR __$EHRec$[ebp+12], 0
  00041	8d 56 0c	 lea	 edx, DWORD PTR [esi+12]
  00044	52		 push	 edx
  00045	89 45 08	 mov	 DWORD PTR __Ptr$532050[ebp], eax
  00048	ff 75 08	 push	 DWORD PTR __Ptr$532050[ebp]
  0004b	8b 46 04	 mov	 eax, DWORD PTR [esi+4]
  0004e	50		 push	 eax
  0004f	51		 push	 ecx
  00050	e8 00 00 00 00	 call	 ??$_Uninitialized_move@PAUChangeDirInfo@@PAU1@V?$allocator@UChangeDirInfo@@@std@@@std@@YAPAUChangeDirInfo@@PAU1@00AAV?$allocator@UChangeDirInfo@@@0@@Z ; std::_Uninitialized_move<ChangeDirInfo *,ChangeDirInfo *,std::allocator<ChangeDirInfo> >

; 758  : 			_CATCH_END
; 759  : 
; 760  : 			size_type _Size = size();

  00055	8b 0e		 mov	 ecx, DWORD PTR [esi]
  00057	8b 46 04	 mov	 eax, DWORD PTR [esi+4]
  0005a	83 c4 18	 add	 esp, 24			; 00000018H
  0005d	2b c1		 sub	 eax, ecx
  0005f	6a 1c		 push	 28			; 0000001cH
  00061	99		 cdq
  00062	5f		 pop	 edi
  00063	f7 ff		 idiv	 edi
  00065	83 4d fc ff	 or	 DWORD PTR __$EHRec$[ebp+12], -1
  00069	8b f8		 mov	 edi, eax
  0006b	85 c9		 test	 ecx, ecx
  0006d	74 12		 je	 SHORT $LN48@reserve

; 761  : 			if (this->_Myfirst != 0)

  0006f	eb 03		 jmp	 SHORT $LN55@reserve

; 762  : 				{	// destroy and deallocate old array
; 763  : 				_Destroy(this->_Myfirst, this->_Mylast);

$LL39@reserve:
  00071	83 c1 1c	 add	 ecx, 28			; 0000001cH
$LN55@reserve:
  00074	3b 4e 04	 cmp	 ecx, DWORD PTR [esi+4]
  00077	75 f8		 jne	 SHORT $LL39@reserve

; 764  : 				this->_Alval.deallocate(this->_Myfirst,
; 765  : 					this->_Myend - this->_Myfirst);

  00079	ff 36		 push	 DWORD PTR [esi]
  0007b	e8 00 00 00 00	 call	 ??3@YAXPAX@Z		; operator delete
  00080	59		 pop	 ecx
$LN48@reserve:

; 766  : 				}
; 767  : 
; 768  : 			this->_Orphan_all();

  00081	8b ce		 mov	 ecx, esi
  00083	ff 15 00 00 00
	00		 call	 DWORD PTR __imp_?_Orphan_all@_Container_base0@std@@QAEXXZ

; 769  : 			this->_Myend = _Ptr + _Count;

  00089	6b db 1c	 imul	 ebx, 28			; 0000001cH

; 770  : 			this->_Mylast = _Ptr + _Size;

  0008c	6b ff 1c	 imul	 edi, 28			; 0000001cH
  0008f	8b 45 08	 mov	 eax, DWORD PTR __Ptr$532050[ebp]
  00092	03 d8		 add	 ebx, eax
  00094	03 f8		 add	 edi, eax
  00096	89 5e 08	 mov	 DWORD PTR [esi+8], ebx
  00099	89 7e 04	 mov	 DWORD PTR [esi+4], edi

; 771  : 			this->_Myfirst = _Ptr;

  0009c	89 06		 mov	 DWORD PTR [esi], eax
$LN3@reserve:

; 772  : 			}
; 773  : 		}

  0009e	e8 00 00 00 00	 call	 __EH_epilog3
  000a3	c2 04 00	 ret	 4
__catch$?reserve@?$vector@UChangeDirInfo@@V?$allocator@UChangeDirInfo@@@std@@@std@@QAEXI@Z$0:

; 755  : 			_CATCH_ALL
; 756  : 			this->_Alval.deallocate(_Ptr, _Count);

  000a6	ff 75 08	 push	 DWORD PTR __Ptr$532050[ebp]
  000a9	e8 00 00 00 00	 call	 ??3@YAXPAX@Z		; operator delete
  000ae	59		 pop	 ecx

; 757  : 			_RERAISE;

  000af	6a 00		 push	 0
  000b1	6a 00		 push	 0
  000b3	e8 00 00 00 00	 call	 __CxxThrowException@8
$LN57@reserve:
$LN54@reserve:
  000b8	cc		 int	 3
_TEXT	ENDS
;	COMDAT text$x
text$x	SEGMENT
__ehhandler$?reserve@?$vector@UChangeDirInfo@@V?$allocator@UChangeDirInfo@@@std@@@std@@QAEXI@Z:
  00000	8b 54 24 08	 mov	 edx, DWORD PTR [esp+8]
  00004	8d 42 0c	 lea	 eax, DWORD PTR [edx+12]
  00007	8b 4a ec	 mov	 ecx, DWORD PTR [edx-20]
  0000a	33 c8		 xor	 ecx, eax
  0000c	e8 00 00 00 00	 call	 @__security_check_cookie@4
  00011	b8 00 00 00 00	 mov	 eax, OFFSET __ehfuncinfo$?reserve@?$vector@UChangeDirInfo@@V?$allocator@UChangeDirInfo@@@std@@@std@@QAEXI@Z
  00016	e9 00 00 00 00	 jmp	 ___CxxFrameHandler3
text$x	ENDS
?reserve@?$vector@UChangeDirInfo@@V?$allocator@UChangeDirInfo@@@std@@@std@@QAEXI@Z ENDP ; std::vector<ChangeDirInfo,std::allocator<ChangeDirInfo> >::reserve
PUBLIC	?erase@?$vector@UChangeDirInfo@@V?$allocator@UChangeDirInfo@@@std@@@std@@QAE?AV?$_Vector_iterator@V?$_Vector_val@UChangeDirInfo@@V?$allocator@UChangeDirInfo@@@std@@@std@@@2@V?$_Vector_const_iterator@V?$_Vector_val@UChangeDirInfo@@V?$allocator@UChangeDirInfo@@@std@@@std@@@2@@Z ; std::vector<ChangeDirInfo,std::allocator<ChangeDirInfo> >::erase
; Function compile flags: /Ogsp
;	COMDAT ?erase@?$vector@UChangeDirInfo@@V?$allocator@UChangeDirInfo@@@std@@@std@@QAE?AV?$_Vector_iterator@V?$_Vector_val@UChangeDirInfo@@V?$allocator@UChangeDirInfo@@@std@@@std@@@2@V?$_Vector_const_iterator@V?$_Vector_val@UChangeDirInfo@@V?$allocator@UChangeDirInfo@@@std@@@std@@@2@@Z
_TEXT	SEGMENT
___$ReturnUdt$ = 8					; size = 4
__Cat$538487 = 12					; size = 1
__Where$ = 12						; size = 4
?erase@?$vector@UChangeDirInfo@@V?$allocator@UChangeDirInfo@@@std@@@std@@QAE?AV?$_Vector_iterator@V?$_Vector_val@UChangeDirInfo@@V?$allocator@UChangeDirInfo@@@std@@@std@@@2@V?$_Vector_const_iterator@V?$_Vector_val@UChangeDirInfo@@V?$allocator@UChangeDirInfo@@@std@@@std@@@2@@Z PROC ; std::vector<ChangeDirInfo,std::allocator<ChangeDirInfo> >::erase, COMDAT
; _this$ = ecx

; 1179 : 		{	// erase element at where

  00000	55		 push	 ebp
  00001	8b ec		 mov	 ebp, esp

; 1180 : 		_Move(_VIPTR(_Where) + 1, this->_Mylast,
; 1181 : 			_VIPTR(_Where));

  00003	8b 45 0c	 mov	 eax, DWORD PTR __Where$[ebp]
  00006	56		 push	 esi
  00007	ff 75 0c	 push	 DWORD PTR __Cat$538487[ebp]
  0000a	8b f1		 mov	 esi, ecx
  0000c	50		 push	 eax
  0000d	ff 76 04	 push	 DWORD PTR [esi+4]
  00010	83 c0 1c	 add	 eax, 28			; 0000001cH
  00013	50		 push	 eax
  00014	e8 00 00 00 00	 call	 ??$_Move@PAUChangeDirInfo@@PAU1@@std@@YAPAUChangeDirInfo@@PAU1@00U_Nonscalar_ptr_iterator_tag@0@@Z ; std::_Move<ChangeDirInfo *,ChangeDirInfo *>

; 1182 : 		_Destroy(this->_Mylast - 1, this->_Mylast);
; 1183 : 		--this->_Mylast;
; 1184 : 		return (_Make_iter(_Where));

  00019	8b 45 08	 mov	 eax, DWORD PTR ___$ReturnUdt$[ebp]
  0001c	8b 4d 0c	 mov	 ecx, DWORD PTR __Where$[ebp]
  0001f	83 c4 10	 add	 esp, 16			; 00000010H
  00022	83 46 04 e4	 add	 DWORD PTR [esi+4], -28	; ffffffe4H
  00026	89 08		 mov	 DWORD PTR [eax], ecx
  00028	5e		 pop	 esi

; 1185 : 		}

  00029	5d		 pop	 ebp
  0002a	c2 08 00	 ret	 8
?erase@?$vector@UChangeDirInfo@@V?$allocator@UChangeDirInfo@@@std@@@std@@QAE?AV?$_Vector_iterator@V?$_Vector_val@UChangeDirInfo@@V?$allocator@UChangeDirInfo@@@std@@@std@@@2@V?$_Vector_const_iterator@V?$_Vector_val@UChangeDirInfo@@V?$allocator@UChangeDirInfo@@@std@@@std@@@2@@Z ENDP ; std::vector<ChangeDirInfo,std::allocator<ChangeDirInfo> >::erase
_TEXT	ENDS
PUBLIC	?erase@?$vector@UChangeDirInfo@@V?$allocator@UChangeDirInfo@@@std@@@std@@QAE?AV?$_Vector_iterator@V?$_Vector_val@UChangeDirInfo@@V?$allocator@UChangeDirInfo@@@std@@@std@@@2@V?$_Vector_const_iterator@V?$_Vector_val@UChangeDirInfo@@V?$allocator@UChangeDirInfo@@@std@@@std@@@2@0@Z ; std::vector<ChangeDirInfo,std::allocator<ChangeDirInfo> >::erase
; Function compile flags: /Ogsp
;	COMDAT ?erase@?$vector@UChangeDirInfo@@V?$allocator@UChangeDirInfo@@@std@@@std@@QAE?AV?$_Vector_iterator@V?$_Vector_val@UChangeDirInfo@@V?$allocator@UChangeDirInfo@@@std@@@std@@@2@V?$_Vector_const_iterator@V?$_Vector_val@UChangeDirInfo@@V?$allocator@UChangeDirInfo@@@std@@@std@@@2@0@Z
_TEXT	SEGMENT
___$ReturnUdt$ = 8					; size = 4
__First_arg$ = 12					; size = 4
__Cat$538662 = 16					; size = 1
__Last_arg$ = 16					; size = 4
?erase@?$vector@UChangeDirInfo@@V?$allocator@UChangeDirInfo@@@std@@@std@@QAE?AV?$_Vector_iterator@V?$_Vector_val@UChangeDirInfo@@V?$allocator@UChangeDirInfo@@@std@@@std@@@2@V?$_Vector_const_iterator@V?$_Vector_val@UChangeDirInfo@@V?$allocator@UChangeDirInfo@@@std@@@std@@@2@0@Z PROC ; std::vector<ChangeDirInfo,std::allocator<ChangeDirInfo> >::erase, COMDAT
; _this$ = ecx

; 1190 : 		{	// erase [_First, _Last)

  00000	55		 push	 ebp
  00001	8b ec		 mov	 ebp, esp

; 1191 : 		iterator _First = _Make_iter(_First_arg);

  00003	8b 45 0c	 mov	 eax, DWORD PTR __First_arg$[ebp]
  00006	56		 push	 esi
  00007	57		 push	 edi
  00008	8b 7d 08	 mov	 edi, DWORD PTR ___$ReturnUdt$[ebp]
  0000b	8b f1		 mov	 esi, ecx
  0000d	89 07		 mov	 DWORD PTR [edi], eax

; 1192 : 		iterator _Last = _Make_iter(_Last_arg);
; 1193 : 
; 1194 : 		if (_First != _Last)

  0000f	3b 45 10	 cmp	 eax, DWORD PTR __Last_arg$[ebp]
  00012	74 16		 je	 SHORT $LN1@erase

; 1195 : 			{	// worth doing, copy down over hole
; 1196 :  #if _ITERATOR_DEBUG_LEVEL == 2
; 1197 : 			if (_Last < _First || _VICONT(_First) != this
; 1198 : 				|| _VIPTR(_First) < this->_Myfirst
; 1199 : 				|| this->_Mylast < _VIPTR(_Last))
; 1200 : 				_DEBUG_ERROR("vector erase iterator outside range");
; 1201 : 			pointer _Ptr = _Move(_VIPTR(_Last), this->_Mylast,
; 1202 : 				_VIPTR(_First));
; 1203 : 			_Orphan_range(_VIPTR(_First), this->_Mylast);
; 1204 : 
; 1205 :  #else /* _ITERATOR_DEBUG_LEVEL == 2 */
; 1206 : 			pointer _Ptr = _Move(_VIPTR(_Last), this->_Mylast,
; 1207 : 				_VIPTR(_First));

  00014	ff 75 10	 push	 DWORD PTR __Cat$538662[ebp]
  00017	8b 4e 04	 mov	 ecx, DWORD PTR [esi+4]
  0001a	50		 push	 eax
  0001b	51		 push	 ecx
  0001c	ff 75 10	 push	 DWORD PTR __Last_arg$[ebp]
  0001f	e8 00 00 00 00	 call	 ??$_Move@PAUChangeDirInfo@@PAU1@@std@@YAPAUChangeDirInfo@@PAU1@00U_Nonscalar_ptr_iterator_tag@0@@Z ; std::_Move<ChangeDirInfo *,ChangeDirInfo *>
  00024	83 c4 10	 add	 esp, 16			; 00000010H

; 1208 :  #endif /* _ITERATOR_DEBUG_LEVEL == 2 */
; 1209 : 
; 1210 : 			_Destroy(_Ptr, this->_Mylast);
; 1211 : 			this->_Mylast = _Ptr;

  00027	89 46 04	 mov	 DWORD PTR [esi+4], eax
$LN1@erase:

; 1212 : 			}
; 1213 : 		return (_First);

  0002a	8b c7		 mov	 eax, edi
  0002c	5f		 pop	 edi
  0002d	5e		 pop	 esi

; 1214 : 		}

  0002e	5d		 pop	 ebp
  0002f	c2 0c 00	 ret	 12			; 0000000cH
?erase@?$vector@UChangeDirInfo@@V?$allocator@UChangeDirInfo@@@std@@@std@@QAE?AV?$_Vector_iterator@V?$_Vector_val@UChangeDirInfo@@V?$allocator@UChangeDirInfo@@@std@@@std@@@2@V?$_Vector_const_iterator@V?$_Vector_val@UChangeDirInfo@@V?$allocator@UChangeDirInfo@@@std@@@std@@@2@0@Z ENDP ; std::vector<ChangeDirInfo,std::allocator<ChangeDirInfo> >::erase
_TEXT	ENDS
PUBLIC	?_Reserve@?$vector@UChangeDirInfo@@V?$allocator@UChangeDirInfo@@@std@@@std@@IAEXI@Z ; std::vector<ChangeDirInfo,std::allocator<ChangeDirInfo> >::_Reserve
; Function compile flags: /Ogsp
;	COMDAT ?_Reserve@?$vector@UChangeDirInfo@@V?$allocator@UChangeDirInfo@@@std@@@std@@IAEXI@Z
_TEXT	SEGMENT
__Count$ = 8						; size = 4
?_Reserve@?$vector@UChangeDirInfo@@V?$allocator@UChangeDirInfo@@@std@@@std@@IAEXI@Z PROC ; std::vector<ChangeDirInfo,std::allocator<ChangeDirInfo> >::_Reserve, COMDAT
; _this$ = ecx

; 1290 : 		{	// ensure room for _Count new elements, grow exponentially

  00000	55		 push	 ebp
  00001	8b ec		 mov	 ebp, esp
  00003	56		 push	 esi
  00004	8b f1		 mov	 esi, ecx

; 1291 : 		size_type _Size = size();

  00006	8b 0e		 mov	 ecx, DWORD PTR [esi]
  00008	8b 46 04	 mov	 eax, DWORD PTR [esi+4]
  0000b	2b c1		 sub	 eax, ecx
  0000d	57		 push	 edi
  0000e	99		 cdq
  0000f	6a 1c		 push	 28			; 0000001cH
  00011	5f		 pop	 edi
  00012	f7 ff		 idiv	 edi
  00014	8b f8		 mov	 edi, eax

; 1292 : 		if (max_size() - _Count < _Size)

  00016	b8 49 92 24 09	 mov	 eax, 153391689		; 09249249H
  0001b	2b 45 08	 sub	 eax, DWORD PTR __Count$[ebp]
  0001e	3b c7		 cmp	 eax, edi
  00020	73 0b		 jae	 SHORT $LN4@Reserve

; 1293 : 			_Xlen();

  00022	68 00 00 00 00	 push	 OFFSET ??_C@_0BD@OLBABOEK@vector?$DMT?$DO?5too?5long?$AA@
  00027	ff 15 00 00 00
	00		 call	 DWORD PTR __imp_?_Xlength_error@std@@YAXPBD@Z
$LN21@Reserve:
$LN4@Reserve:

; 1294 : 		else if ((_Size += _Count) <= capacity())

  0002d	8b 46 08	 mov	 eax, DWORD PTR [esi+8]
  00030	2b c1		 sub	 eax, ecx
  00032	6a 1c		 push	 28			; 0000001cH
  00034	99		 cdq
  00035	59		 pop	 ecx
  00036	f7 f9		 idiv	 ecx
  00038	03 7d 08	 add	 edi, DWORD PTR __Count$[ebp]
  0003b	3b f8		 cmp	 edi, eax
  0003d	76 10		 jbe	 SHORT $LN1@Reserve

; 1295 : 			;
; 1296 : 		else
; 1297 : 			reserve(_Grow_to(_Size));

  0003f	57		 push	 edi
  00040	8b ce		 mov	 ecx, esi
  00042	e8 00 00 00 00	 call	 ?_Grow_to@?$vector@UChangeDirInfo@@V?$allocator@UChangeDirInfo@@@std@@@std@@IBEII@Z ; std::vector<ChangeDirInfo,std::allocator<ChangeDirInfo> >::_Grow_to
  00047	50		 push	 eax
  00048	8b ce		 mov	 ecx, esi
  0004a	e8 00 00 00 00	 call	 ?reserve@?$vector@UChangeDirInfo@@V?$allocator@UChangeDirInfo@@@std@@@std@@QAEXI@Z ; std::vector<ChangeDirInfo,std::allocator<ChangeDirInfo> >::reserve
$LN1@Reserve:
  0004f	5f		 pop	 edi
  00050	5e		 pop	 esi

; 1298 : 		}

  00051	5d		 pop	 ebp
  00052	c2 04 00	 ret	 4
$LN20@Reserve:
?_Reserve@?$vector@UChangeDirInfo@@V?$allocator@UChangeDirInfo@@@std@@@std@@IAEXI@Z ENDP ; std::vector<ChangeDirInfo,std::allocator<ChangeDirInfo> >::_Reserve
_TEXT	ENDS
PUBLIC	??$_Umove@PAVioHashString@@@?$vector@VioHashString@@V?$allocator@VioHashString@@@std@@@std@@IAEPAVioHashString@@PAV2@00@Z ; std::vector<ioHashString,std::allocator<ioHashString> >::_Umove<ioHashString *>
; Function compile flags: /Ogsp
;	COMDAT ??$_Umove@PAVioHashString@@@?$vector@VioHashString@@V?$allocator@VioHashString@@@std@@@std@@IAEPAVioHashString@@PAV2@00@Z
_TEXT	SEGMENT
__First$ = 8						; size = 4
__Last$ = 12						; size = 4
__Ptr$ = 16						; size = 4
??$_Umove@PAVioHashString@@@?$vector@VioHashString@@V?$allocator@VioHashString@@@std@@@std@@IAEPAVioHashString@@PAV2@00@Z PROC ; std::vector<ioHashString,std::allocator<ioHashString> >::_Umove<ioHashString *>, COMDAT
; _this$ = ecx

; 1322 : 		pointer _Umove(_Iter _First, _Iter _Last, pointer _Ptr)

  00000	55		 push	 ebp
  00001	8b ec		 mov	 ebp, esp

; 1323 : 		{	// move initializing [_First, _Last), using allocator
; 1324 : 		return (_Uninitialized_move(_First, _Last,
; 1325 : 			_Ptr, this->_Alval));

  00003	83 c1 0c	 add	 ecx, 12			; 0000000cH
  00006	51		 push	 ecx
  00007	ff 75 10	 push	 DWORD PTR __Ptr$[ebp]
  0000a	ff 75 0c	 push	 DWORD PTR __Last$[ebp]
  0000d	ff 75 08	 push	 DWORD PTR __First$[ebp]
  00010	e8 00 00 00 00	 call	 ??$_Uninitialized_move@PAVioHashString@@PAV1@V?$allocator@VioHashString@@@std@@@std@@YAPAVioHashString@@PAV1@00AAV?$allocator@VioHashString@@@0@@Z ; std::_Uninitialized_move<ioHashString *,ioHashString *,std::allocator<ioHashString> >
  00015	83 c4 10	 add	 esp, 16			; 00000010H

; 1326 : 		}

  00018	5d		 pop	 ebp
  00019	c2 0c 00	 ret	 12			; 0000000cH
??$_Umove@PAVioHashString@@@?$vector@VioHashString@@V?$allocator@VioHashString@@@std@@@std@@IAEPAVioHashString@@PAV2@00@Z ENDP ; std::vector<ioHashString,std::allocator<ioHashString> >::_Umove<ioHashString *>
_TEXT	ENDS
PUBLIC	??$sort_heap@PAUChangeDirInfo@@VChangeDirSort@@@std@@YAXPAUChangeDirInfo@@0VChangeDirSort@@@Z ; std::sort_heap<ChangeDirInfo *,ChangeDirSort>
; Function compile flags: /Ogsp
; File c:\program files (x86)\microsoft visual studio 10.0\vc\include\algorithm
;	COMDAT ??$sort_heap@PAUChangeDirInfo@@VChangeDirSort@@@std@@YAXPAUChangeDirInfo@@0VChangeDirSort@@@Z
_TEXT	SEGMENT
__First$ = 8						; size = 4
__Last$ = 12						; size = 4
__Pred$ = 16						; size = 1
??$sort_heap@PAUChangeDirInfo@@VChangeDirSort@@@std@@YAXPAUChangeDirInfo@@0VChangeDirSort@@@Z PROC ; std::sort_heap<ChangeDirInfo *,ChangeDirSort>, COMDAT

; 2708 : 	{	// order heap by repeatedly popping, using _Pred

  00000	55		 push	 ebp
  00001	8b ec		 mov	 ebp, esp

; 2709 : 	_DEBUG_RANGE(_First, _Last);
; 2710 : 	_DEBUG_POINTER(_Pred);
; 2711 : 	_DEBUG_HEAP_PRED(_First, _Last, _Pred);
; 2712 : 	_Sort_heap(_Unchecked(_First), _Unchecked(_Last), _Pred);

  00003	ff 75 10	 push	 DWORD PTR __Pred$[ebp]
  00006	ff 75 0c	 push	 DWORD PTR __Last$[ebp]
  00009	ff 75 08	 push	 DWORD PTR __First$[ebp]
  0000c	e8 00 00 00 00	 call	 ??$_Sort_heap@PAUChangeDirInfo@@VChangeDirSort@@@std@@YAXPAUChangeDirInfo@@0VChangeDirSort@@@Z ; std::_Sort_heap<ChangeDirInfo *,ChangeDirSort>
  00011	83 c4 0c	 add	 esp, 12			; 0000000cH

; 2713 : 	}

  00014	5d		 pop	 ebp
  00015	c3		 ret	 0
??$sort_heap@PAUChangeDirInfo@@VChangeDirSort@@@std@@YAXPAUChangeDirInfo@@0VChangeDirSort@@@Z ENDP ; std::sort_heap<ChangeDirInfo *,ChangeDirSort>
_TEXT	ENDS
PUBLIC	?_Destroy@?$vector@VioHashString@@V?$allocator@VioHashString@@@std@@@std@@IAEXPAVioHashString@@0@Z ; std::vector<ioHashString,std::allocator<ioHashString> >::_Destroy
; Function compile flags: /Ogsp
; File c:\program files (x86)\microsoft visual studio 10.0\vc\include\vector
;	COMDAT ?_Destroy@?$vector@VioHashString@@V?$allocator@VioHashString@@@std@@@std@@IAEXPAVioHashString@@0@Z
_TEXT	SEGMENT
__First$ = 8						; size = 4
__Last$ = 12						; size = 4
?_Destroy@?$vector@VioHashString@@V?$allocator@VioHashString@@@std@@@std@@IAEXPAVioHashString@@0@Z PROC ; std::vector<ioHashString,std::allocator<ioHashString> >::_Destroy, COMDAT
; _this$ = ecx

; 1269 : 		{	// destroy [_First, _Last) using allocator

  00000	55		 push	 ebp
  00001	8b ec		 mov	 ebp, esp
  00003	56		 push	 esi

; 1270 : 		_Destroy_range(_First, _Last, this->_Alval);

  00004	8b 75 08	 mov	 esi, DWORD PTR __First$[ebp]
  00007	eb 0b		 jmp	 SHORT $LN23@Destroy
$LL9@Destroy:
  00009	8b ce		 mov	 ecx, esi
  0000b	ff 15 00 00 00
	00		 call	 DWORD PTR __imp_??1ioHashString@@QAE@XZ
  00011	83 c6 10	 add	 esi, 16			; 00000010H
$LN23@Destroy:
  00014	3b 75 0c	 cmp	 esi, DWORD PTR __Last$[ebp]
  00017	75 f0		 jne	 SHORT $LL9@Destroy
  00019	5e		 pop	 esi

; 1271 : 		}

  0001a	5d		 pop	 ebp
  0001b	c2 08 00	 ret	 8
?_Destroy@?$vector@VioHashString@@V?$allocator@VioHashString@@@std@@@std@@IAEXPAVioHashString@@0@Z ENDP ; std::vector<ioHashString,std::allocator<ioHashString> >::_Destroy
_TEXT	ENDS
PUBLIC	?CheckChangeDir@ioAttachWeapon@@IAEXXZ		; ioAttachWeapon::CheckChangeDir
; Function compile flags: /Ogsp
; File d:\lost saga for developer\youtube\tutorial\source\src\lsclient\ioattachweapon.cpp
;	COMDAT ?CheckChangeDir@ioAttachWeapon@@IAEXXZ
_TEXT	SEGMENT
$T538859 = -4						; size = 4
?CheckChangeDir@ioAttachWeapon@@IAEXXZ PROC		; ioAttachWeapon::CheckChangeDir, COMDAT
; _this$ = ecx

; 298  : {

  00000	55		 push	 ebp
  00001	8b ec		 mov	 ebp, esp
  00003	51		 push	 ecx
  00004	56		 push	 esi

; 299  : 	if( m_ChangeDirInfoList.empty() ) return;

  00005	8d b1 98 08 00
	00		 lea	 esi, DWORD PTR [ecx+2200]
  0000b	8b 06		 mov	 eax, DWORD PTR [esi]
  0000d	3b 46 04	 cmp	 eax, DWORD PTR [esi+4]
  00010	74 57		 je	 SHORT $LN2@CheckChang

; 300  : 
; 301  : 	float fChangeRange = m_ChangeDirInfoList[0].m_fChangeRange;
; 302  : 
; 303  : 	if( m_fCurMoveRange >= fChangeRange )

  00012	f3 0f 10 81 ac
	08 00 00	 movss	 xmm0, DWORD PTR [ecx+2220]
  0001a	f3 0f 10 08	 movss	 xmm1, DWORD PTR [eax]
  0001e	0f 5a c0	 cvtps2pd xmm0, xmm0
  00021	0f 5a c9	 cvtps2pd xmm1, xmm1
  00024	66 0f 2f c1	 comisd	 xmm0, xmm1
  00028	72 3f		 jb	 SHORT $LN2@CheckChang

; 304  : 	{
; 305  : 		if( m_ChangeDirInfoList[0].m_fChangeSpeed > 0.0f )

  0002a	f3 0f 10 40 04	 movss	 xmm0, DWORD PTR [eax+4]
  0002f	0f 2f 05 00 00
	00 00		 comiss	 xmm0, DWORD PTR __real@00000000
  00036	76 08		 jbe	 SHORT $LN1@CheckChang

; 306  : 			m_fCurMoveSpeed = m_ChangeDirInfoList[0].m_fChangeSpeed;

  00038	f3 0f 11 81 a8
	08 00 00	 movss	 DWORD PTR [ecx+2216], xmm0
$LN1@CheckChang:

; 307  : 
; 308  : 		RotateMoveDir( m_ChangeDirInfoList[0].m_fChangeAngleH, m_ChangeDirInfoList[0].m_fChangeAngleV );

  00040	f3 0f 10 40 0c	 movss	 xmm0, DWORD PTR [eax+12]
  00045	51		 push	 ecx
  00046	51		 push	 ecx
  00047	f3 0f 11 44 24
	04		 movss	 DWORD PTR [esp+4], xmm0
  0004d	f3 0f 10 40 08	 movss	 xmm0, DWORD PTR [eax+8]
  00052	f3 0f 11 04 24	 movss	 DWORD PTR [esp], xmm0
  00057	e8 00 00 00 00	 call	 ?RotateMoveDir@ioAttachWeapon@@IAEXMM@Z ; ioAttachWeapon::RotateMoveDir

; 309  : 		m_ChangeDirInfoList.erase( m_ChangeDirInfoList.begin() );

  0005c	ff 36		 push	 DWORD PTR [esi]
  0005e	8d 45 fc	 lea	 eax, DWORD PTR $T538859[ebp]
  00061	50		 push	 eax
  00062	8b ce		 mov	 ecx, esi
  00064	e8 00 00 00 00	 call	 ?erase@?$vector@UChangeDirInfo@@V?$allocator@UChangeDirInfo@@@std@@@std@@QAE?AV?$_Vector_iterator@V?$_Vector_val@UChangeDirInfo@@V?$allocator@UChangeDirInfo@@@std@@@std@@@2@V?$_Vector_const_iterator@V?$_Vector_val@UChangeDirInfo@@V?$allocator@UChangeDirInfo@@@std@@@std@@@2@@Z ; std::vector<ChangeDirInfo,std::allocator<ChangeDirInfo> >::erase
$LN2@CheckChang:
  00069	5e		 pop	 esi

; 310  : 	}
; 311  : }

  0006a	c9		 leave
  0006b	c3		 ret	 0
?CheckChangeDir@ioAttachWeapon@@IAEXXZ ENDP		; ioAttachWeapon::CheckChangeDir
_TEXT	ENDS
PUBLIC	__$ArrayPad$
PUBLIC	?OnMove@ioAttachWeapon@@IAEXPAVioPlayStage@@M@Z	; ioAttachWeapon::OnMove
; Function compile flags: /Ogsp
;	COMDAT ?OnMove@ioAttachWeapon@@IAEXPAVioPlayStage@@M@Z
_TEXT	SEGMENT
_value$538910 = -20					; size = 4
_fMoveDist$ = -20					; size = 4
$T531859 = -16						; size = 12
__$ArrayPad$ = -4					; size = 4
_pStage$ = 8						; size = 4
_fTimePerSec$ = 12					; size = 4
?OnMove@ioAttachWeapon@@IAEXPAVioPlayStage@@M@Z PROC	; ioAttachWeapon::OnMove, COMDAT
; _this$ = ecx

; 342  : {

  00000	55		 push	 ebp
  00001	8b ec		 mov	 ebp, esp
  00003	83 ec 14	 sub	 esp, 20			; 00000014H
  00006	a1 00 00 00 00	 mov	 eax, DWORD PTR ___security_cookie
  0000b	33 c5		 xor	 eax, ebp
  0000d	89 45 fc	 mov	 DWORD PTR __$ArrayPad$[ebp], eax

; 343  : 	if( !pStage )

  00010	83 7d 08 00	 cmp	 DWORD PTR _pStage$[ebp], 0
  00014	56		 push	 esi
  00015	8b f1		 mov	 esi, ecx
  00017	0f 84 b1 00 00
	00		 je	 $LN4@OnMove

; 344  : 		return;
; 345  : 
; 346  : 	DWORD dwCurTime = FRAMEGETTIME();

  0001d	57		 push	 edi
  0001e	ff 15 00 00 00
	00		 call	 DWORD PTR __imp_?GetSingleton@ioFrameTimer@@SAAAV1@XZ
  00024	8b c8		 mov	 ecx, eax
  00026	ff 15 00 00 00
	00		 call	 DWORD PTR __imp_?GetLoopSec@ioFrameTimer@@QBEKXZ
  0002c	8b f8		 mov	 edi, eax

; 347  : 	if( m_dwCreatedTime + m_dwTraceEnableTime < dwCurTime )

  0002e	8d 45 ec	 lea	 eax, DWORD PTR _value$538910[ebp]
  00031	50		 push	 eax
  00032	8d 8e 14 09 00
	00		 lea	 ecx, DWORD PTR [esi+2324]
  00038	e8 00 00 00 00	 call	 ?DecryptValueToPool@?$CEncrypt@K@@QAEXPAK@Z ; CEncrypt<unsigned long>::DecryptValueToPool
  0003d	8b 86 d4 04 00
	00		 mov	 eax, DWORD PTR [esi+1236]
  00043	03 45 ec	 add	 eax, DWORD PTR _value$538910[ebp]
  00046	3b c7		 cmp	 eax, edi
  00048	5f		 pop	 edi
  00049	73 17		 jae	 SHORT $LN1@OnMove

; 348  : 	{
; 349  : 		if( GetOwner() )

  0004b	8b ce		 mov	 ecx, esi
  0004d	e8 00 00 00 00	 call	 ?GetOwner@ioWeapon@@QBEPAVioBaseChar@@XZ ; ioWeapon::GetOwner
  00052	85 c0		 test	 eax, eax
  00054	74 0c		 je	 SHORT $LN1@OnMove

; 350  : 		{
; 351  : 			SetTraceState( pStage );

  00056	ff 75 08	 push	 DWORD PTR _pStage$[ebp]
  00059	8b ce		 mov	 ecx, esi
  0005b	e8 00 00 00 00	 call	 ?SetTraceState@ioAttachWeapon@@IAEXPAVioPlayStage@@@Z ; ioAttachWeapon::SetTraceState

; 352  : 			return;

  00060	eb 6c		 jmp	 SHORT $LN4@OnMove
$LN1@OnMove:

; 353  : 		}
; 354  : 	}
; 355  : 
; 356  : 	CheckChangeDir();

  00062	8b ce		 mov	 ecx, esi
  00064	e8 00 00 00 00	 call	 ?CheckChangeDir@ioAttachWeapon@@IAEXXZ ; ioAttachWeapon::CheckChangeDir

; 357  : 
; 358  : 	float fMoveDist = GetMoveSpeed() * fTimePerSec;

  00069	8b ce		 mov	 ecx, esi
  0006b	e8 00 00 00 00	 call	 ?GetMoveSpeed@ioAttachWeapon@@IAEMXZ ; ioAttachWeapon::GetMoveSpeed
  00070	d8 4d 0c	 fmul	 DWORD PTR _fTimePerSec$[ebp]

; 359  : 	GetParentSceneNode()->Translate( m_vMoveDir * fMoveDist );

  00073	8b 4e 04	 mov	 ecx, DWORD PTR [esi+4]
  00076	6a 01		 push	 1
  00078	d9 5d ec	 fstp	 DWORD PTR _fMoveDist$[ebp]
  0007b	8d 55 f0	 lea	 edx, DWORD PTR $T531859[ebp]
  0007e	d9 86 10 0a 00
	00		 fld	 DWORD PTR [esi+2576]
  00084	52		 push	 edx
  00085	d8 4d ec	 fmul	 DWORD PTR _fMoveDist$[ebp]
  00088	d9 5d f0	 fstp	 DWORD PTR $T531859[ebp]
  0008b	d9 86 14 0a 00
	00		 fld	 DWORD PTR [esi+2580]
  00091	d8 4d ec	 fmul	 DWORD PTR _fMoveDist$[ebp]
  00094	d9 5d f4	 fstp	 DWORD PTR $T531859[ebp+4]
  00097	d9 86 18 0a 00
	00		 fld	 DWORD PTR [esi+2584]
  0009d	d8 4d ec	 fmul	 DWORD PTR _fMoveDist$[ebp]
  000a0	d9 5d f8	 fstp	 DWORD PTR $T531859[ebp+8]
  000a3	8b 01		 mov	 eax, DWORD PTR [ecx]
  000a5	ff 50 3c	 call	 DWORD PTR [eax+60]

; 360  : 	m_fCurMoveRange += fMoveDist;

  000a8	d9 86 ac 08 00
	00		 fld	 DWORD PTR [esi+2220]
  000ae	d8 45 ec	 fadd	 DWORD PTR _fMoveDist$[ebp]

; 361  : 
; 362  : 	UpdateWorldAttackBox( fTimePerSec, false );

  000b1	f3 0f 10 45 0c	 movss	 xmm0, DWORD PTR _fTimePerSec$[ebp]
  000b6	8b 06		 mov	 eax, DWORD PTR [esi]
  000b8	6a 00		 push	 0
  000ba	51		 push	 ecx
  000bb	d9 9e ac 08 00
	00		 fstp	 DWORD PTR [esi+2220]
  000c1	8b ce		 mov	 ecx, esi
  000c3	f3 0f 11 04 24	 movss	 DWORD PTR [esp], xmm0
  000c8	ff 90 38 01 00
	00		 call	 DWORD PTR [eax+312]
$LN4@OnMove:

; 363  : }

  000ce	8b 4d fc	 mov	 ecx, DWORD PTR __$ArrayPad$[ebp]
  000d1	33 cd		 xor	 ecx, ebp
  000d3	5e		 pop	 esi
  000d4	e8 00 00 00 00	 call	 @__security_check_cookie@4
  000d9	c9		 leave
  000da	c2 08 00	 ret	 8
?OnMove@ioAttachWeapon@@IAEXPAVioPlayStage@@M@Z ENDP	; ioAttachWeapon::OnMove
_TEXT	ENDS
PUBLIC	?push_back@?$vector@UChangeDirInfo@@V?$allocator@UChangeDirInfo@@@std@@@std@@QAEXABUChangeDirInfo@@@Z ; std::vector<ChangeDirInfo,std::allocator<ChangeDirInfo> >::push_back
; Function compile flags: /Ogsp
; File c:\program files (x86)\microsoft visual studio 10.0\vc\include\vector
;	COMDAT ?push_back@?$vector@UChangeDirInfo@@V?$allocator@UChangeDirInfo@@@std@@@std@@QAEXABUChangeDirInfo@@@Z
_TEXT	SEGMENT
__Val$ = 8						; size = 4
?push_back@?$vector@UChangeDirInfo@@V?$allocator@UChangeDirInfo@@@std@@@std@@QAEXABUChangeDirInfo@@@Z PROC ; std::vector<ChangeDirInfo,std::allocator<ChangeDirInfo> >::push_back, COMDAT
; _this$ = ecx

; 976  : 		{	// insert element at end

  00000	55		 push	 ebp
  00001	8b ec		 mov	 ebp, esp
  00003	56		 push	 esi
  00004	8b f1		 mov	 esi, ecx

; 977  : 		if (_Inside(_STD addressof(_Val)))

  00006	8b 4e 04	 mov	 ecx, DWORD PTR [esi+4]
  00009	57		 push	 edi
  0000a	8b 7d 08	 mov	 edi, DWORD PTR __Val$[ebp]
  0000d	3b f9		 cmp	 edi, ecx
  0000f	73 34		 jae	 SHORT $LN4@push_back
  00011	8b 16		 mov	 edx, DWORD PTR [esi]
  00013	3b d7		 cmp	 edx, edi
  00015	77 2e		 ja	 SHORT $LN4@push_back

; 978  : 			{	// push back an element
; 979  : 			size_type _Idx = _STD addressof(_Val) - this->_Myfirst;

  00017	8b c7		 mov	 eax, edi
  00019	2b c2		 sub	 eax, edx
  0001b	6a 1c		 push	 28			; 0000001cH
  0001d	99		 cdq
  0001e	5f		 pop	 edi
  0001f	f7 ff		 idiv	 edi
  00021	8b f8		 mov	 edi, eax

; 980  : 			if (this->_Mylast == this->_Myend)

  00023	3b 4e 08	 cmp	 ecx, DWORD PTR [esi+8]
  00026	75 09		 jne	 SHORT $LN3@push_back

; 981  : 				_Reserve(1);

  00028	6a 01		 push	 1
  0002a	8b ce		 mov	 ecx, esi
  0002c	e8 00 00 00 00	 call	 ?_Reserve@?$vector@UChangeDirInfo@@V?$allocator@UChangeDirInfo@@@std@@@std@@IAEXI@Z ; std::vector<ChangeDirInfo,std::allocator<ChangeDirInfo> >::_Reserve
$LN3@push_back:

; 982  : 			_Orphan_range(this->_Mylast, this->_Mylast);
; 983  : 			_Cons_val(this->_Alval,
; 984  : 				this->_Mylast,
; 985  : 				this->_Myfirst[_Idx]);

  00031	6b ff 1c	 imul	 edi, 28			; 0000001cH
  00034	03 3e		 add	 edi, DWORD PTR [esi]
  00036	8d 46 0c	 lea	 eax, DWORD PTR [esi+12]
  00039	57		 push	 edi
  0003a	ff 76 04	 push	 DWORD PTR [esi+4]
  0003d	50		 push	 eax
  0003e	e8 00 00 00 00	 call	 ??$_Cons_val@V?$allocator@UChangeDirInfo@@@std@@UChangeDirInfo@@AAU3@@std@@YAXAAV?$allocator@UChangeDirInfo@@@0@PAUChangeDirInfo@@AAU2@@Z ; std::_Cons_val<std::allocator<ChangeDirInfo>,ChangeDirInfo,ChangeDirInfo &>

; 986  : 			++this->_Mylast;
; 987  : 			}
; 988  : 		else

  00043	eb 1b		 jmp	 SHORT $LN20@push_back
$LN4@push_back:

; 989  : 			{	// push back a non-element
; 990  : 			if (this->_Mylast == this->_Myend)

  00045	3b 4e 08	 cmp	 ecx, DWORD PTR [esi+8]
  00048	75 09		 jne	 SHORT $LN1@push_back

; 991  : 				_Reserve(1);

  0004a	6a 01		 push	 1
  0004c	8b ce		 mov	 ecx, esi
  0004e	e8 00 00 00 00	 call	 ?_Reserve@?$vector@UChangeDirInfo@@V?$allocator@UChangeDirInfo@@@std@@@std@@IAEXI@Z ; std::vector<ChangeDirInfo,std::allocator<ChangeDirInfo> >::_Reserve
$LN1@push_back:

; 992  : 			_Orphan_range(this->_Mylast, this->_Mylast);
; 993  : 			_Cons_val(this->_Alval,
; 994  : 				this->_Mylast,
; 995  : 				_Val);

  00053	57		 push	 edi
  00054	ff 76 04	 push	 DWORD PTR [esi+4]
  00057	8d 46 0c	 lea	 eax, DWORD PTR [esi+12]
  0005a	50		 push	 eax
  0005b	e8 00 00 00 00	 call	 ??$_Cons_val@V?$allocator@UChangeDirInfo@@@std@@UChangeDirInfo@@ABU3@@std@@YAXAAV?$allocator@UChangeDirInfo@@@0@PAUChangeDirInfo@@ABU2@@Z ; std::_Cons_val<std::allocator<ChangeDirInfo>,ChangeDirInfo,ChangeDirInfo const &>
$LN20@push_back:
  00060	83 c4 0c	 add	 esp, 12			; 0000000cH

; 996  : 			++this->_Mylast;

  00063	83 46 04 1c	 add	 DWORD PTR [esi+4], 28	; 0000001cH
  00067	5f		 pop	 edi
  00068	5e		 pop	 esi

; 997  : 			}
; 998  : 		}

  00069	5d		 pop	 ebp
  0006a	c2 04 00	 ret	 4
?push_back@?$vector@UChangeDirInfo@@V?$allocator@UChangeDirInfo@@@std@@@std@@QAEXABUChangeDirInfo@@@Z ENDP ; std::vector<ChangeDirInfo,std::allocator<ChangeDirInfo> >::push_back
_TEXT	ENDS
PUBLIC	?clear@?$vector@UChangeDirInfo@@V?$allocator@UChangeDirInfo@@@std@@@std@@QAEXXZ ; std::vector<ChangeDirInfo,std::allocator<ChangeDirInfo> >::clear
; Function compile flags: /Ogsp
;	COMDAT ?clear@?$vector@UChangeDirInfo@@V?$allocator@UChangeDirInfo@@@std@@@std@@QAEXXZ
_TEXT	SEGMENT
$T538957 = -4						; size = 4
?clear@?$vector@UChangeDirInfo@@V?$allocator@UChangeDirInfo@@@std@@@std@@QAEXXZ PROC ; std::vector<ChangeDirInfo,std::allocator<ChangeDirInfo> >::clear, COMDAT
; _this$ = ecx

; 1217 : 		{	// erase all

  00000	55		 push	 ebp
  00001	8b ec		 mov	 ebp, esp
  00003	51		 push	 ecx

; 1218 : 		erase(begin(), end());

  00004	8b 41 04	 mov	 eax, DWORD PTR [ecx+4]
  00007	8b 11		 mov	 edx, DWORD PTR [ecx]
  00009	50		 push	 eax
  0000a	52		 push	 edx
  0000b	8d 45 fc	 lea	 eax, DWORD PTR $T538957[ebp]
  0000e	50		 push	 eax
  0000f	e8 00 00 00 00	 call	 ?erase@?$vector@UChangeDirInfo@@V?$allocator@UChangeDirInfo@@@std@@@std@@QAE?AV?$_Vector_iterator@V?$_Vector_val@UChangeDirInfo@@V?$allocator@UChangeDirInfo@@@std@@@std@@@2@V?$_Vector_const_iterator@V?$_Vector_val@UChangeDirInfo@@V?$allocator@UChangeDirInfo@@@std@@@std@@@2@0@Z ; std::vector<ChangeDirInfo,std::allocator<ChangeDirInfo> >::erase

; 1219 : 		}

  00014	c9		 leave
  00015	c3		 ret	 0
?clear@?$vector@UChangeDirInfo@@V?$allocator@UChangeDirInfo@@@std@@@std@@QAEXXZ ENDP ; std::vector<ChangeDirInfo,std::allocator<ChangeDirInfo> >::clear
_TEXT	ENDS
PUBLIC	?reserve@?$vector@VioHashString@@V?$allocator@VioHashString@@@std@@@std@@QAEXI@Z ; std::vector<ioHashString,std::allocator<ioHashString> >::reserve
;	COMDAT xdata$x
; File c:\program files (x86)\microsoft visual studio 10.0\vc\include\xmemory
xdata$x	SEGMENT
__catchsym$?reserve@?$vector@VioHashString@@V?$allocator@VioHashString@@@std@@@std@@QAEXI@Z$2 DD 040H
	DD	00H
	DD	00H
	DD	FLAT:__catch$?reserve@?$vector@VioHashString@@V?$allocator@VioHashString@@@std@@@std@@QAEXI@Z$0
__unwindtable$?reserve@?$vector@VioHashString@@V?$allocator@VioHashString@@@std@@@std@@QAEXI@Z DD 0ffffffffH
	DD	00H
	DD	0ffffffffH
	DD	00H
__tryblocktable$?reserve@?$vector@VioHashString@@V?$allocator@VioHashString@@@std@@@std@@QAEXI@Z DD 00H
	DD	00H
	DD	01H
	DD	01H
	DD	FLAT:__catchsym$?reserve@?$vector@VioHashString@@V?$allocator@VioHashString@@@std@@@std@@QAEXI@Z$2
__ehfuncinfo$?reserve@?$vector@VioHashString@@V?$allocator@VioHashString@@@std@@@std@@QAEXI@Z DD 019930522H
	DD	02H
	DD	FLAT:__unwindtable$?reserve@?$vector@VioHashString@@V?$allocator@VioHashString@@@std@@@std@@QAEXI@Z
	DD	01H
	DD	FLAT:__tryblocktable$?reserve@?$vector@VioHashString@@V?$allocator@VioHashString@@@std@@@std@@QAEXI@Z
	DD	2 DUP(00H)
	DD	00H
	DD	01H
; Function compile flags: /Ogsp
; File c:\program files (x86)\microsoft visual studio 10.0\vc\include\vector
xdata$x	ENDS
;	COMDAT ?reserve@?$vector@VioHashString@@V?$allocator@VioHashString@@@std@@@std@@QAEXI@Z
_TEXT	SEGMENT
tv300 = -24						; size = 4
__Ptr$532269 = -20					; size = 4
__$EHRec$ = -16						; size = 16
$T539101 = 8						; size = 4
__Count$ = 8						; size = 4
?reserve@?$vector@VioHashString@@V?$allocator@VioHashString@@@std@@@std@@QAEXI@Z PROC ; std::vector<ioHashString,std::allocator<ioHashString> >::reserve, COMDAT
; _this$ = ecx

; 746  : 		{	// determine new minimum length of allocated storage

  00000	6a 0c		 push	 12			; 0000000cH
  00002	b8 00 00 00 00	 mov	 eax, __ehhandler$?reserve@?$vector@VioHashString@@V?$allocator@VioHashString@@@std@@@std@@QAEXI@Z
  00007	e8 00 00 00 00	 call	 __EH_prolog3_catch
  0000c	8b f1		 mov	 esi, ecx

; 747  : 		if (max_size() < _Count)

  0000e	8b 5d 08	 mov	 ebx, DWORD PTR __Count$[ebp]
  00011	81 fb ff ff ff
	0f		 cmp	 ebx, 268435455		; 0fffffffH
  00017	76 0b		 jbe	 SHORT $LN5@reserve@2

; 748  : 			_Xlen();	// result too long

  00019	68 00 00 00 00	 push	 OFFSET ??_C@_0BD@OLBABOEK@vector?$DMT?$DO?5too?5long?$AA@
  0001e	ff 15 00 00 00
	00		 call	 DWORD PTR __imp_?_Xlength_error@std@@YAXPBD@Z
$LN59@reserve@2:
$LN5@reserve@2:

; 749  : 		else if (capacity() < _Count)

  00024	8b 46 08	 mov	 eax, DWORD PTR [esi+8]
  00027	2b 06		 sub	 eax, DWORD PTR [esi]
  00029	c1 f8 04	 sar	 eax, 4
  0002c	3b c3		 cmp	 eax, ebx
  0002e	73 7a		 jae	 SHORT $LN3@reserve@2

; 750  : 			{	// not enough room, reallocate
; 751  : 			pointer _Ptr = this->_Alval.allocate(_Count);

  00030	6a 00		 push	 0
  00032	53		 push	 ebx
  00033	e8 00 00 00 00	 call	 ??$_Allocate@VioHashString@@@std@@YAPAVioHashString@@IPAV1@@Z ; std::_Allocate<ioHashString>

; 752  : 
; 753  : 			_TRY_BEGIN
; 754  : 			_Umove(this->_Myfirst, this->_Mylast, _Ptr);

  00038	8b 0e		 mov	 ecx, DWORD PTR [esi]
  0003a	83 65 fc 00	 and	 DWORD PTR __$EHRec$[ebp+12], 0
  0003e	8d 56 0c	 lea	 edx, DWORD PTR [esi+12]
  00041	52		 push	 edx
  00042	89 45 ec	 mov	 DWORD PTR __Ptr$532269[ebp], eax
  00045	ff 75 ec	 push	 DWORD PTR __Ptr$532269[ebp]
  00048	8b 46 04	 mov	 eax, DWORD PTR [esi+4]
  0004b	50		 push	 eax
  0004c	51		 push	 ecx
  0004d	e8 00 00 00 00	 call	 ??$_Uninitialized_move@PAVioHashString@@PAV1@V?$allocator@VioHashString@@@std@@@std@@YAPAVioHashString@@PAV1@00AAV?$allocator@VioHashString@@@0@@Z ; std::_Uninitialized_move<ioHashString *,ioHashString *,std::allocator<ioHashString> >

; 758  : 			_CATCH_END
; 759  : 
; 760  : 			size_type _Size = size();

  00052	8b 4e 04	 mov	 ecx, DWORD PTR [esi+4]
  00055	8b 06		 mov	 eax, DWORD PTR [esi]
  00057	83 4d fc ff	 or	 DWORD PTR __$EHRec$[ebp+12], -1
  0005b	8b f9		 mov	 edi, ecx
  0005d	83 c4 18	 add	 esp, 24			; 00000018H
  00060	2b f8		 sub	 edi, eax
  00062	89 4d e8	 mov	 DWORD PTR tv300[ebp], ecx
  00065	85 c0		 test	 eax, eax
  00067	74 24		 je	 SHORT $LN51@reserve@2

; 761  : 			if (this->_Myfirst != 0)
; 762  : 				{	// destroy and deallocate old array
; 763  : 				_Destroy(this->_Myfirst, this->_Mylast);

  00069	89 45 08	 mov	 DWORD PTR $T539101[ebp], eax
  0006c	3b c1		 cmp	 eax, ecx
  0006e	74 15		 je	 SHORT $LN37@reserve@2
$LN39@reserve@2:
  00070	8b 4d 08	 mov	 ecx, DWORD PTR $T539101[ebp]
  00073	ff 15 00 00 00
	00		 call	 DWORD PTR __imp_??1ioHashString@@QAE@XZ
  00079	83 45 08 10	 add	 DWORD PTR $T539101[ebp], 16 ; 00000010H
  0007d	8b 45 08	 mov	 eax, DWORD PTR $T539101[ebp]
  00080	3b 45 e8	 cmp	 eax, DWORD PTR tv300[ebp]
  00083	75 eb		 jne	 SHORT $LN39@reserve@2
$LN37@reserve@2:

; 764  : 				this->_Alval.deallocate(this->_Myfirst,
; 765  : 					this->_Myend - this->_Myfirst);

  00085	ff 36		 push	 DWORD PTR [esi]
  00087	e8 00 00 00 00	 call	 ??3@YAXPAX@Z		; operator delete
  0008c	59		 pop	 ecx
$LN51@reserve@2:

; 766  : 				}
; 767  : 
; 768  : 			this->_Orphan_all();

  0008d	8b ce		 mov	 ecx, esi
  0008f	ff 15 00 00 00
	00		 call	 DWORD PTR __imp_?_Orphan_all@_Container_base0@std@@QAEXXZ

; 769  : 			this->_Myend = _Ptr + _Count;

  00095	8b 45 ec	 mov	 eax, DWORD PTR __Ptr$532269[ebp]
  00098	c1 e3 04	 shl	 ebx, 4
  0009b	03 d8		 add	 ebx, eax

; 770  : 			this->_Mylast = _Ptr + _Size;

  0009d	83 e7 f0	 and	 edi, -16		; fffffff0H
  000a0	03 f8		 add	 edi, eax
  000a2	89 5e 08	 mov	 DWORD PTR [esi+8], ebx
  000a5	89 7e 04	 mov	 DWORD PTR [esi+4], edi

; 771  : 			this->_Myfirst = _Ptr;

  000a8	89 06		 mov	 DWORD PTR [esi], eax
$LN3@reserve@2:

; 772  : 			}
; 773  : 		}

  000aa	e8 00 00 00 00	 call	 __EH_epilog3
  000af	c2 04 00	 ret	 4
__catch$?reserve@?$vector@VioHashString@@V?$allocator@VioHashString@@@std@@@std@@QAEXI@Z$0:

; 755  : 			_CATCH_ALL
; 756  : 			this->_Alval.deallocate(_Ptr, _Count);

  000b2	ff 75 ec	 push	 DWORD PTR __Ptr$532269[ebp]
  000b5	e8 00 00 00 00	 call	 ??3@YAXPAX@Z		; operator delete
  000ba	59		 pop	 ecx

; 757  : 			_RERAISE;

  000bb	6a 00		 push	 0
  000bd	6a 00		 push	 0
  000bf	e8 00 00 00 00	 call	 __CxxThrowException@8
$LN60@reserve@2:
$LN58@reserve@2:
  000c4	cc		 int	 3
_TEXT	ENDS
;	COMDAT text$x
text$x	SEGMENT
__ehhandler$?reserve@?$vector@VioHashString@@V?$allocator@VioHashString@@@std@@@std@@QAEXI@Z:
  00000	8b 54 24 08	 mov	 edx, DWORD PTR [esp+8]
  00004	8d 42 0c	 lea	 eax, DWORD PTR [edx+12]
  00007	8b 4a e4	 mov	 ecx, DWORD PTR [edx-28]
  0000a	33 c8		 xor	 ecx, eax
  0000c	e8 00 00 00 00	 call	 @__security_check_cookie@4
  00011	b8 00 00 00 00	 mov	 eax, OFFSET __ehfuncinfo$?reserve@?$vector@VioHashString@@V?$allocator@VioHashString@@@std@@@std@@QAEXI@Z
  00016	e9 00 00 00 00	 jmp	 ___CxxFrameHandler3
text$x	ENDS
?reserve@?$vector@VioHashString@@V?$allocator@VioHashString@@@std@@@std@@QAEXI@Z ENDP ; std::vector<ioHashString,std::allocator<ioHashString> >::reserve
PUBLIC	??$_Sort@PAUChangeDirInfo@@HVChangeDirSort@@@std@@YAXPAUChangeDirInfo@@0HVChangeDirSort@@@Z ; std::_Sort<ChangeDirInfo *,int,ChangeDirSort>
; Function compile flags: /Ogsp
; File c:\program files (x86)\microsoft visual studio 10.0\vc\include\algorithm
;	COMDAT ??$_Sort@PAUChangeDirInfo@@HVChangeDirSort@@@std@@YAXPAUChangeDirInfo@@0HVChangeDirSort@@@Z
_TEXT	SEGMENT
__Mid$534460 = -8					; size = 8
__First$ = 8						; size = 4
__Last$ = 12						; size = 4
__Ideal$ = 16						; size = 4
__Pred$ = 20						; size = 1
??$_Sort@PAUChangeDirInfo@@HVChangeDirSort@@@std@@YAXPAUChangeDirInfo@@0HVChangeDirSort@@@Z PROC ; std::_Sort<ChangeDirInfo *,int,ChangeDirSort>, COMDAT

; 3771 : 	{	// order [_First, _Last), using _Pred

  00000	55		 push	 ebp
  00001	8b ec		 mov	 ebp, esp
  00003	51		 push	 ecx
  00004	51		 push	 ecx
  00005	53		 push	 ebx

; 3772 : 	_Diff _Count;
; 3773 : 	for (; _ISORT_MAX < (_Count = _Last - _First) && 0 < _Ideal; )

  00006	8b 5d 08	 mov	 ebx, DWORD PTR __First$[ebp]
  00009	57		 push	 edi
  0000a	8b 7d 0c	 mov	 edi, DWORD PTR __Last$[ebp]
  0000d	8b c7		 mov	 eax, edi
  0000f	2b c3		 sub	 eax, ebx
  00011	6a 1c		 push	 28			; 0000001cH
  00013	99		 cdq
  00014	59		 pop	 ecx
  00015	f7 f9		 idiv	 ecx
  00017	83 f8 20	 cmp	 eax, 32			; 00000020H
  0001a	0f 8e 9c 00 00
	00		 jle	 $LN22@Sort
  00020	56		 push	 esi
  00021	8b 75 10	 mov	 esi, DWORD PTR __Ideal$[ebp]
$LL7@Sort:
  00024	85 f6		 test	 esi, esi
  00026	7e 75		 jle	 SHORT $LN6@Sort

; 3774 : 		{	// divide and conquer by quicksort
; 3775 : 		_STD pair<_RanIt, _RanIt> _Mid =
; 3776 : 			_Unguarded_partition(_First, _Last, _Pred);

  00028	ff 75 14	 push	 DWORD PTR __Pred$[ebp]
  0002b	8d 45 f8	 lea	 eax, DWORD PTR __Mid$534460[ebp]
  0002e	57		 push	 edi
  0002f	53		 push	 ebx
  00030	50		 push	 eax
  00031	e8 00 00 00 00	 call	 ??$_Unguarded_partition@PAUChangeDirInfo@@VChangeDirSort@@@std@@YA?AU?$pair@PAUChangeDirInfo@@PAU1@@0@PAUChangeDirInfo@@0VChangeDirSort@@@Z ; std::_Unguarded_partition<ChangeDirInfo *,ChangeDirSort>

; 3777 : 		_Ideal /= 2, _Ideal += _Ideal / 2;	// allow 1.5 log2(N) divisions

  00036	8b c6		 mov	 eax, esi
  00038	99		 cdq
  00039	2b c2		 sub	 eax, edx
  0003b	d1 f8		 sar	 eax, 1
  0003d	8b f0		 mov	 esi, eax
  0003f	99		 cdq
  00040	2b c2		 sub	 eax, edx
  00042	d1 f8		 sar	 eax, 1
  00044	03 f0		 add	 esi, eax
  00046	83 c4 10	 add	 esp, 16			; 00000010H

; 3778 : 
; 3779 : 		if (_Mid.first - _First < _Last - _Mid.second)

  00049	8b c7		 mov	 eax, edi
  0004b	2b 45 fc	 sub	 eax, DWORD PTR __Mid$534460[ebp+4]
  0004e	6a 1c		 push	 28			; 0000001cH
  00050	99		 cdq
  00051	59		 pop	 ecx
  00052	f7 f9		 idiv	 ecx
  00054	6a 1c		 push	 28			; 0000001cH
  00056	8b c8		 mov	 ecx, eax
  00058	8b 45 f8	 mov	 eax, DWORD PTR __Mid$534460[ebp]
  0005b	2b c3		 sub	 eax, ebx
  0005d	5b		 pop	 ebx
  0005e	99		 cdq
  0005f	f7 fb		 idiv	 ebx

; 3780 : 			{	// loop on second half
; 3781 : 			_Sort(_First, _Mid.first, _Ideal, _Pred);

  00061	ff 75 14	 push	 DWORD PTR __Pred$[ebp]
  00064	56		 push	 esi
  00065	3b c1		 cmp	 eax, ecx
  00067	7d 13		 jge	 SHORT $LN5@Sort
  00069	ff 75 f8	 push	 DWORD PTR __Mid$534460[ebp]
  0006c	ff 75 08	 push	 DWORD PTR __First$[ebp]
  0006f	e8 00 00 00 00	 call	 ??$_Sort@PAUChangeDirInfo@@HVChangeDirSort@@@std@@YAXPAUChangeDirInfo@@0HVChangeDirSort@@@Z ; std::_Sort<ChangeDirInfo *,int,ChangeDirSort>

; 3782 : 			_First = _Mid.second;

  00074	8b 5d fc	 mov	 ebx, DWORD PTR __Mid$534460[ebp+4]
  00077	89 5d 08	 mov	 DWORD PTR __First$[ebp], ebx

; 3783 : 			}
; 3784 : 		else

  0007a	eb 0f		 jmp	 SHORT $LN23@Sort
$LN5@Sort:

; 3785 : 			{	// loop on first half
; 3786 : 			_Sort(_Mid.second, _Last, _Ideal, _Pred);

  0007c	57		 push	 edi
  0007d	ff 75 fc	 push	 DWORD PTR __Mid$534460[ebp+4]
  00080	e8 00 00 00 00	 call	 ??$_Sort@PAUChangeDirInfo@@HVChangeDirSort@@@std@@YAXPAUChangeDirInfo@@0HVChangeDirSort@@@Z ; std::_Sort<ChangeDirInfo *,int,ChangeDirSort>

; 3787 : 			_Last = _Mid.first;

  00085	8b 7d f8	 mov	 edi, DWORD PTR __Mid$534460[ebp]
  00088	8b 5d 08	 mov	 ebx, DWORD PTR __First$[ebp]
$LN23@Sort:

; 3772 : 	_Diff _Count;
; 3773 : 	for (; _ISORT_MAX < (_Count = _Last - _First) && 0 < _Ideal; )

  0008b	83 c4 10	 add	 esp, 16			; 00000010H
  0008e	8b c7		 mov	 eax, edi
  00090	2b c3		 sub	 eax, ebx
  00092	6a 1c		 push	 28			; 0000001cH
  00094	99		 cdq
  00095	59		 pop	 ecx
  00096	f7 f9		 idiv	 ecx
  00098	83 f8 20	 cmp	 eax, 32			; 00000020H
  0009b	7f 87		 jg	 SHORT $LL7@Sort
$LN6@Sort:
  0009d	5e		 pop	 esi

; 3788 : 			}
; 3789 : 		}
; 3790 : 
; 3791 : 	if (_ISORT_MAX < _Count)

  0009e	83 f8 20	 cmp	 eax, 32			; 00000020H
  000a1	7e 19		 jle	 SHORT $LN22@Sort

; 3792 : 		{	// heap sort if too many divisions
; 3793 : 		_STD make_heap(_First, _Last, _Pred);

  000a3	ff 75 14	 push	 DWORD PTR __Pred$[ebp]
  000a6	57		 push	 edi
  000a7	53		 push	 ebx
  000a8	e8 00 00 00 00	 call	 ??$make_heap@PAUChangeDirInfo@@VChangeDirSort@@@std@@YAXPAUChangeDirInfo@@0VChangeDirSort@@@Z ; std::make_heap<ChangeDirInfo *,ChangeDirSort>

; 3794 : 		_STD sort_heap(_First, _Last, _Pred);

  000ad	ff 75 14	 push	 DWORD PTR __Pred$[ebp]
  000b0	57		 push	 edi
  000b1	53		 push	 ebx
  000b2	e8 00 00 00 00	 call	 ??$_Sort_heap@PAUChangeDirInfo@@VChangeDirSort@@@std@@YAXPAUChangeDirInfo@@0VChangeDirSort@@@Z ; std::_Sort_heap<ChangeDirInfo *,ChangeDirSort>
  000b7	83 c4 18	 add	 esp, 24			; 00000018H
  000ba	eb 14		 jmp	 SHORT $LN16@Sort
$LN22@Sort:

; 3795 : 		}
; 3796 : 	else if (1 < _Count)

  000bc	83 f8 01	 cmp	 eax, 1
  000bf	7e 0f		 jle	 SHORT $LN16@Sort

; 3797 : 		_Insertion_sort(_First, _Last, _Pred);	// small

  000c1	6a 00		 push	 0
  000c3	ff 75 14	 push	 DWORD PTR __Pred$[ebp]
  000c6	57		 push	 edi
  000c7	53		 push	 ebx
  000c8	e8 00 00 00 00	 call	 ??$_Insertion_sort1@PAUChangeDirInfo@@VChangeDirSort@@U1@@std@@YAXPAUChangeDirInfo@@0VChangeDirSort@@0@Z ; std::_Insertion_sort1<ChangeDirInfo *,ChangeDirSort,ChangeDirInfo>
  000cd	83 c4 10	 add	 esp, 16			; 00000010H
$LN16@Sort:
  000d0	5f		 pop	 edi
  000d1	5b		 pop	 ebx

; 3798 : 	}

  000d2	c9		 leave
  000d3	c3		 ret	 0
??$_Sort@PAUChangeDirInfo@@HVChangeDirSort@@@std@@YAXPAUChangeDirInfo@@0HVChangeDirSort@@@Z ENDP ; std::_Sort<ChangeDirInfo *,int,ChangeDirSort>
_TEXT	ENDS
PUBLIC	?_Tidy@?$vector@VioHashString@@V?$allocator@VioHashString@@@std@@@std@@IAEXXZ ; std::vector<ioHashString,std::allocator<ioHashString> >::_Tidy
; Function compile flags: /Ogsp
; File c:\program files (x86)\microsoft visual studio 10.0\vc\include\vector
;	COMDAT ?_Tidy@?$vector@VioHashString@@V?$allocator@VioHashString@@@std@@@std@@IAEXXZ
_TEXT	SEGMENT
?_Tidy@?$vector@VioHashString@@V?$allocator@VioHashString@@@std@@@std@@IAEXXZ PROC ; std::vector<ioHashString,std::allocator<ioHashString> >::_Tidy, COMDAT
; _this$ = ecx

; 1301 : 		{	// free all storage

  00000	56		 push	 esi
  00001	8b f1		 mov	 esi, ecx

; 1302 : 		if (this->_Myfirst != 0)

  00003	83 3e 00	 cmp	 DWORD PTR [esi], 0
  00006	74 28		 je	 SHORT $LN24@Tidy@2

; 1303 : 			{	// something to free, destroy and deallocate it
; 1304 : 			this->_Orphan_all();

  00008	53		 push	 ebx
  00009	57		 push	 edi
  0000a	ff 15 00 00 00
	00		 call	 DWORD PTR __imp_?_Orphan_all@_Container_base0@std@@QAEXXZ

; 1305 : 			_Destroy(this->_Myfirst, this->_Mylast);

  00010	8b 5e 04	 mov	 ebx, DWORD PTR [esi+4]
  00013	8b 3e		 mov	 edi, DWORD PTR [esi]
  00015	eb 0b		 jmp	 SHORT $LN28@Tidy@2
$LL12@Tidy@2:
  00017	8b cf		 mov	 ecx, edi
  00019	ff 15 00 00 00
	00		 call	 DWORD PTR __imp_??1ioHashString@@QAE@XZ
  0001f	83 c7 10	 add	 edi, 16			; 00000010H
$LN28@Tidy@2:
  00022	3b fb		 cmp	 edi, ebx
  00024	75 f1		 jne	 SHORT $LL12@Tidy@2

; 1306 : 			this->_Alval.deallocate(this->_Myfirst,
; 1307 : 				this->_Myend - this->_Myfirst);

  00026	ff 36		 push	 DWORD PTR [esi]
  00028	e8 00 00 00 00	 call	 ??3@YAXPAX@Z		; operator delete
  0002d	59		 pop	 ecx
  0002e	5f		 pop	 edi
  0002f	5b		 pop	 ebx
$LN24@Tidy@2:

; 1308 : 			}
; 1309 : 		this->_Myfirst = 0;

  00030	33 c0		 xor	 eax, eax
  00032	89 06		 mov	 DWORD PTR [esi], eax

; 1310 : 		this->_Mylast = 0;

  00034	89 46 04	 mov	 DWORD PTR [esi+4], eax

; 1311 : 		this->_Myend = 0;

  00037	89 46 08	 mov	 DWORD PTR [esi+8], eax
  0003a	5e		 pop	 esi

; 1312 : 		}

  0003b	c3		 ret	 0
?_Tidy@?$vector@VioHashString@@V?$allocator@VioHashString@@@std@@@std@@IAEXXZ ENDP ; std::vector<ioHashString,std::allocator<ioHashString> >::_Tidy
_TEXT	ENDS
PUBLIC	?_Reserve@?$vector@VioHashString@@V?$allocator@VioHashString@@@std@@@std@@IAEXI@Z ; std::vector<ioHashString,std::allocator<ioHashString> >::_Reserve
; Function compile flags: /Ogsp
;	COMDAT ?_Reserve@?$vector@VioHashString@@V?$allocator@VioHashString@@@std@@@std@@IAEXI@Z
_TEXT	SEGMENT
__Count$ = 8						; size = 4
?_Reserve@?$vector@VioHashString@@V?$allocator@VioHashString@@@std@@@std@@IAEXI@Z PROC ; std::vector<ioHashString,std::allocator<ioHashString> >::_Reserve, COMDAT
; _this$ = ecx

; 1290 : 		{	// ensure room for _Count new elements, grow exponentially

  00000	55		 push	 ebp
  00001	8b ec		 mov	 ebp, esp
  00003	56		 push	 esi
  00004	8b f1		 mov	 esi, ecx

; 1291 : 		size_type _Size = size();

  00006	8b 0e		 mov	 ecx, DWORD PTR [esi]
  00008	8b 46 04	 mov	 eax, DWORD PTR [esi+4]
  0000b	2b c1		 sub	 eax, ecx

; 1292 : 		if (max_size() - _Count < _Size)

  0000d	ba ff ff ff 0f	 mov	 edx, 268435455		; 0fffffffH
  00012	2b 55 08	 sub	 edx, DWORD PTR __Count$[ebp]
  00015	c1 f8 04	 sar	 eax, 4
  00018	3b d0		 cmp	 edx, eax
  0001a	73 0b		 jae	 SHORT $LN4@Reserve@2

; 1293 : 			_Xlen();

  0001c	68 00 00 00 00	 push	 OFFSET ??_C@_0BD@OLBABOEK@vector?$DMT?$DO?5too?5long?$AA@
  00021	ff 15 00 00 00
	00		 call	 DWORD PTR __imp_?_Xlength_error@std@@YAXPBD@Z
$LN21@Reserve@2:
$LN4@Reserve@2:

; 1294 : 		else if ((_Size += _Count) <= capacity())

  00027	8b 56 08	 mov	 edx, DWORD PTR [esi+8]
  0002a	03 45 08	 add	 eax, DWORD PTR __Count$[ebp]
  0002d	2b d1		 sub	 edx, ecx
  0002f	c1 fa 04	 sar	 edx, 4
  00032	3b c2		 cmp	 eax, edx
  00034	76 10		 jbe	 SHORT $LN1@Reserve@2

; 1295 : 			;
; 1296 : 		else
; 1297 : 			reserve(_Grow_to(_Size));

  00036	50		 push	 eax
  00037	8b ce		 mov	 ecx, esi
  00039	e8 00 00 00 00	 call	 ?_Grow_to@?$vector@VioHashString@@V?$allocator@VioHashString@@@std@@@std@@IBEII@Z ; std::vector<ioHashString,std::allocator<ioHashString> >::_Grow_to
  0003e	50		 push	 eax
  0003f	8b ce		 mov	 ecx, esi
  00041	e8 00 00 00 00	 call	 ?reserve@?$vector@VioHashString@@V?$allocator@VioHashString@@@std@@@std@@QAEXI@Z ; std::vector<ioHashString,std::allocator<ioHashString> >::reserve
$LN1@Reserve@2:
  00046	5e		 pop	 esi

; 1298 : 		}

  00047	5d		 pop	 ebp
  00048	c2 04 00	 ret	 4
$LN20@Reserve@2:
?_Reserve@?$vector@VioHashString@@V?$allocator@VioHashString@@@std@@@std@@IAEXI@Z ENDP ; std::vector<ioHashString,std::allocator<ioHashString> >::_Reserve
_TEXT	ENDS
PUBLIC	??$sort@V?$_Vector_iterator@V?$_Vector_val@UChangeDirInfo@@V?$allocator@UChangeDirInfo@@@std@@@std@@@std@@VChangeDirSort@@@std@@YAXV?$_Vector_iterator@V?$_Vector_val@UChangeDirInfo@@V?$allocator@UChangeDirInfo@@@std@@@std@@@0@0VChangeDirSort@@@Z ; std::sort<std::_Vector_iterator<std::_Vector_val<ChangeDirInfo,std::allocator<ChangeDirInfo> > >,ChangeDirSort>
; Function compile flags: /Ogsp
; File c:\program files (x86)\microsoft visual studio 10.0\vc\include\algorithm
;	COMDAT ??$sort@V?$_Vector_iterator@V?$_Vector_val@UChangeDirInfo@@V?$allocator@UChangeDirInfo@@@std@@@std@@@std@@VChangeDirSort@@@std@@YAXV?$_Vector_iterator@V?$_Vector_val@UChangeDirInfo@@V?$allocator@UChangeDirInfo@@@std@@@std@@@0@0VChangeDirSort@@@Z
_TEXT	SEGMENT
__First$ = 8						; size = 4
__Last$ = 12						; size = 4
__Pred$ = 16						; size = 1
??$sort@V?$_Vector_iterator@V?$_Vector_val@UChangeDirInfo@@V?$allocator@UChangeDirInfo@@@std@@@std@@@std@@VChangeDirSort@@@std@@YAXV?$_Vector_iterator@V?$_Vector_val@UChangeDirInfo@@V?$allocator@UChangeDirInfo@@@std@@@std@@@0@0VChangeDirSort@@@Z PROC ; std::sort<std::_Vector_iterator<std::_Vector_val<ChangeDirInfo,std::allocator<ChangeDirInfo> > >,ChangeDirSort>, COMDAT

; 3803 : 	{	// order [_First, _Last), using _Pred

  00000	55		 push	 ebp
  00001	8b ec		 mov	 ebp, esp

; 3804 : 	_DEBUG_RANGE(_First, _Last);
; 3805 : 	_DEBUG_POINTER(_Pred);
; 3806 : 	_Sort(_Unchecked(_First), _Unchecked(_Last), _Last - _First, _Pred);

  00003	ff 75 10	 push	 DWORD PTR __Pred$[ebp]
  00006	8b 45 0c	 mov	 eax, DWORD PTR __Last$[ebp]
  00009	2b 45 08	 sub	 eax, DWORD PTR __First$[ebp]
  0000c	6a 1c		 push	 28			; 0000001cH
  0000e	59		 pop	 ecx
  0000f	99		 cdq
  00010	f7 f9		 idiv	 ecx
  00012	50		 push	 eax
  00013	ff 75 0c	 push	 DWORD PTR __Last$[ebp]
  00016	ff 75 08	 push	 DWORD PTR __First$[ebp]
  00019	e8 00 00 00 00	 call	 ??$_Sort@PAUChangeDirInfo@@HVChangeDirSort@@@std@@YAXPAUChangeDirInfo@@0HVChangeDirSort@@@Z ; std::_Sort<ChangeDirInfo *,int,ChangeDirSort>
  0001e	83 c4 10	 add	 esp, 16			; 00000010H

; 3807 : 	}

  00021	5d		 pop	 ebp
  00022	c3		 ret	 0
??$sort@V?$_Vector_iterator@V?$_Vector_val@UChangeDirInfo@@V?$allocator@UChangeDirInfo@@@std@@@std@@@std@@VChangeDirSort@@@std@@YAXV?$_Vector_iterator@V?$_Vector_val@UChangeDirInfo@@V?$allocator@UChangeDirInfo@@@std@@@std@@@0@0VChangeDirSort@@@Z ENDP ; std::sort<std::_Vector_iterator<std::_Vector_val<ChangeDirInfo,std::allocator<ChangeDirInfo> > >,ChangeDirSort>
_TEXT	ENDS
PUBLIC	??1?$vector@VioHashString@@V?$allocator@VioHashString@@@std@@@std@@QAE@XZ ; std::vector<ioHashString,std::allocator<ioHashString> >::~vector<ioHashString,std::allocator<ioHashString> >
; Function compile flags: /Ogsp
; File c:\program files (x86)\microsoft visual studio 10.0\vc\include\vector
;	COMDAT ??1?$vector@VioHashString@@V?$allocator@VioHashString@@@std@@@std@@QAE@XZ
_TEXT	SEGMENT
??1?$vector@VioHashString@@V?$allocator@VioHashString@@@std@@@std@@QAE@XZ PROC ; std::vector<ioHashString,std::allocator<ioHashString> >::~vector<ioHashString,std::allocator<ioHashString> >, COMDAT
; _this$ = ecx

; 705  : 		_Tidy();

  00000	e9 00 00 00 00	 jmp	 ?_Tidy@?$vector@VioHashString@@V?$allocator@VioHashString@@@std@@@std@@IAEXXZ ; std::vector<ioHashString,std::allocator<ioHashString> >::_Tidy
??1?$vector@VioHashString@@V?$allocator@VioHashString@@@std@@@std@@QAE@XZ ENDP ; std::vector<ioHashString,std::allocator<ioHashString> >::~vector<ioHashString,std::allocator<ioHashString> >
_TEXT	ENDS
PUBLIC	??_7ioAttachWeapon@@6B@				; ioAttachWeapon::`vftable'
PUBLIC	??0ioAttachWeapon@@QAE@PAVioBaseChar@@PBUWeaponAttribute@@@Z ; ioAttachWeapon::ioAttachWeapon
PUBLIC	??_R4ioAttachWeapon@@6B@			; ioAttachWeapon::`RTTI Complete Object Locator'
PUBLIC	??_R0?AVioAttachWeapon@@@8			; ioAttachWeapon `RTTI Type Descriptor'
PUBLIC	??_R3ioAttachWeapon@@8				; ioAttachWeapon::`RTTI Class Hierarchy Descriptor'
PUBLIC	??_R2ioAttachWeapon@@8				; ioAttachWeapon::`RTTI Base Class Array'
PUBLIC	??_R1A@?0A@EA@ioAttachWeapon@@8			; ioAttachWeapon::`RTTI Base Class Descriptor at (0,-1,0,64)'
PUBLIC	??_R1A@?0A@EA@ioWeapon@@8			; ioWeapon::`RTTI Base Class Descriptor at (0,-1,0,64)'
PUBLIC	??_R0?AVioWeapon@@@8				; ioWeapon `RTTI Type Descriptor'
PUBLIC	??_R3ioWeapon@@8				; ioWeapon::`RTTI Class Hierarchy Descriptor'
PUBLIC	??_R2ioWeapon@@8				; ioWeapon::`RTTI Base Class Array'
PUBLIC	?LoadProperty@ioAttachWeapon@@UAEXAAVioINILoader@@@Z ; ioAttachWeapon::LoadProperty
PUBLIC	?IsCollision@ioAttachWeapon@@UAE_NPAVioPlayEntity@@_N@Z ; ioAttachWeapon::IsCollision
EXTRN	__imp_??1ioOrientBox@@QAE@XZ:PROC
EXTRN	??1ioWeapon@@UAE@XZ:PROC			; ioWeapon::~ioWeapon
EXTRN	?SetPeculiarity@ioWeapon@@QAEXK@Z:PROC		; ioWeapon::SetPeculiarity
EXTRN	__imp_??0ioOrientBox@@QAE@XZ:PROC
EXTRN	??0ioWeapon@@QAE@PAVioBaseChar@@PBUWeaponAttribute@@@Z:PROC ; ioWeapon::ioWeapon
EXTRN	?IsAlreadyCollisioned@ioWeapon@@UAE_NPAVioPlayEntity@@@Z:PROC ; ioWeapon::IsAlreadyCollisioned
EXTRN	?AddCollisionEntity@ioWeapon@@UAEXPAVioPlayEntity@@@Z:PROC ; ioWeapon::AddCollisionEntity
EXTRN	?SetOwnerDamageRate@ioWeapon@@UAEXM@Z:PROC	; ioWeapon::SetOwnerDamageRate
EXTRN	?SetOwnerChargeDamageRate@ioWeapon@@UAEXM@Z:PROC ; ioWeapon::SetOwnerChargeDamageRate
EXTRN	?SetOwnerChargeForceRate@ioWeapon@@UAEXM@Z:PROC	; ioWeapon::SetOwnerChargeForceRate
EXTRN	?SetOwnerChargeRangeRate@ioWeapon@@UAEXM@Z:PROC	; ioWeapon::SetOwnerChargeRangeRate
EXTRN	?SetOwnerChargeSpeedRate@ioWeapon@@UAEXM@Z:PROC	; ioWeapon::SetOwnerChargeSpeedRate
EXTRN	?SetOwnerChargeBlowRate@ioWeapon@@UAEXM@Z:PROC	; ioWeapon::SetOwnerChargeBlowRate
EXTRN	?SetOwnerChargeFloatRate@ioWeapon@@UAEXM@Z:PROC	; ioWeapon::SetOwnerChargeFloatRate
EXTRN	?SetOwnerChargeScaleRate@ioWeapon@@UAEXM@Z:PROC	; ioWeapon::SetOwnerChargeScaleRate
EXTRN	?SetOwnerChargeExplosionRate@ioWeapon@@UAEXM@Z:PROC ; ioWeapon::SetOwnerChargeExplosionRate
EXTRN	?SetOwnerChargeWoundedTimeRate@ioWeapon@@UAEXM@Z:PROC ; ioWeapon::SetOwnerChargeWoundedTimeRate
EXTRN	?SetOwnerChargeLiveTimeRate@ioWeapon@@UAEXM@Z:PROC ; ioWeapon::SetOwnerChargeLiveTimeRate
EXTRN	?SetOwnerChargeBuffLiveTimeRate@ioWeapon@@UAEXM@Z:PROC ; ioWeapon::SetOwnerChargeBuffLiveTimeRate
EXTRN	?SetWeaponIndex@ioWeapon@@UAEXK@Z:PROC		; ioWeapon::SetWeaponIndex
EXTRN	?SetGrapplingTargetName@ioWeapon@@UAEXABVioHashString@@@Z:PROC ; ioWeapon::SetGrapplingTargetName
EXTRN	?SetCreateItem@ioWeapon@@UAEXABVioHashString@@@Z:PROC ; ioWeapon::SetCreateItem
EXTRN	?SetTeam@ioWeapon@@UAEXPAVioPlayStage@@W4TeamType@@@Z:PROC ; ioWeapon::SetTeam
EXTRN	?CallReserveAreaWeapon@ioWeapon@@UAEXXZ:PROC	; ioWeapon::CallReserveAreaWeapon
EXTRN	?SetWeaponDead@ioWeapon@@UAEXXZ:PROC		; ioWeapon::SetWeaponDead
EXTRN	?PlayExplosionSound@ioWeapon@@UAEXXZ:PROC	; ioWeapon::PlayExplosionSound
EXTRN	?PlayWoundedSound@ioWeapon@@UAEXPAVioPlayEntity@@@Z:PROC ; ioWeapon::PlayWoundedSound
EXTRN	?PlayDefensedSound@ioWeapon@@UAEXPAVioPlayEntity@@@Z:PROC ; ioWeapon::PlayDefensedSound
EXTRN	?PlayLoopSound@ioWeapon@@UAEXXZ:PROC		; ioWeapon::PlayLoopSound
EXTRN	?StopLoopSound@ioWeapon@@UAEXXZ:PROC		; ioWeapon::StopLoopSound
EXTRN	?GetTargetAirBuffList@ioWeapon@@UBEABV?$vector@UBuffInfoStruct@@V?$allocator@UBuffInfoStruct@@@std@@@std@@XZ:PROC ; ioWeapon::GetTargetAirBuffList
EXTRN	?GetTargetBuffList@ioWeapon@@UBEABV?$vector@UBuffInfoStruct@@V?$allocator@UBuffInfoStruct@@@std@@@std@@XZ:PROC ; ioWeapon::GetTargetBuffList
EXTRN	?GetTargetDownBuffList@ioWeapon@@UBEABV?$vector@UBuffInfoStruct@@V?$allocator@UBuffInfoStruct@@@std@@@std@@XZ:PROC ; ioWeapon::GetTargetDownBuffList
EXTRN	?GetPosition@ioWeapon@@UBEABUD3DXVECTOR3@@XZ:PROC ; ioWeapon::GetPosition
EXTRN	?GetBlowType@ioWeapon@@UBE?AW4BlowTargetType@@XZ:PROC ; ioWeapon::GetBlowType
EXTRN	?GetPushPower@ioWeapon@@UBEMM@Z:PROC		; ioWeapon::GetPushPower
EXTRN	?GetBlowPower@ioWeapon@@UBEMM@Z:PROC		; ioWeapon::GetBlowPower
EXTRN	?GetAirPushPower@ioWeapon@@UBEMM@Z:PROC		; ioWeapon::GetAirPushPower
EXTRN	?GetAirBlowPower@ioWeapon@@UBEMM@Z:PROC		; ioWeapon::GetAirBlowPower
EXTRN	?GetDefensePushPower@ioWeapon@@UBEMM@Z:PROC	; ioWeapon::GetDefensePushPower
EXTRN	?SetSylphid@ioWeapon@@UAEHXZ:PROC		; ioWeapon::SetSylphid
EXTRN	?ApplyExtraReserveWeaponByWeaponInfo@ioWeapon@@UAEXPAV1@@Z:PROC ; ioWeapon::ApplyExtraReserveWeaponByWeaponInfo
EXTRN	?SetResistanceAttr@ioWeapon@@UAEXH@Z:PROC	; ioWeapon::SetResistanceAttr
EXTRN	?SetStartCollisionBox@ioWeapon@@UAEXXZ:PROC	; ioWeapon::SetStartCollisionBox
EXTRN	?SetMoveSpeed@ioWeapon@@UAEXM@Z:PROC		; ioWeapon::SetMoveSpeed
EXTRN	?SetFloatPower@ioWeapon@@UAEXM@Z:PROC		; ioWeapon::SetFloatPower
EXTRN	?TestMapCollision@ioWeapon@@UAE_NPAVioOpcodeShape@@PAVioPlayStage@@PBUD3DXMATRIX@@@Z:PROC ; ioWeapon::TestMapCollision
EXTRN	?CheckPreCollision@ioWeapon@@UAEXPAVioPlayEntity@@PAVioPlayStage@@@Z:PROC ; ioWeapon::CheckPreCollision
EXTRN	?CheckStructAndDummy@ioWeapon@@UAEXPAVioPlayEntity@@PAVioPlayStage@@@Z:PROC ; ioWeapon::CheckStructAndDummy
EXTRN	?GetDamage@ioWeapon@@UAEMPAVioPlayEntity@@@Z:PROC ; ioWeapon::GetDamage
EXTRN	?GetBaseDamage@ioWeapon@@UAEMPAVioPlayEntity@@@Z:PROC ; ioWeapon::GetBaseDamage
EXTRN	?GetPushAngle@ioWeapon@@UBEMXZ:PROC		; ioWeapon::GetPushAngle
EXTRN	?IsResistanceMagic@ioWeapon@@UAEHPAVioBaseChar@@@Z:PROC ; ioWeapon::IsResistanceMagic
EXTRN	?IsResistanceBomb@ioWeapon@@UAEHPAVioBaseChar@@@Z:PROC ; ioWeapon::IsResistanceBomb
EXTRN	?IsCanMineExplosion@ioWeapon@@UAE_NXZ:PROC	; ioWeapon::IsCanMineExplosion
EXTRN	?CheckGrapplingState@ioWeapon@@UAE?AW4GrapplingType@@XZ:PROC ; ioWeapon::CheckGrapplingState
EXTRN	?CheckCurAttribute@ioWeapon@@UAEXPBVioPlayEntity@@@Z:PROC ; ioWeapon::CheckCurAttribute
EXTRN	?CheckItemNotDrop@ioWeapon@@UAE_NPAVioBaseChar@@@Z:PROC ; ioWeapon::CheckItemNotDrop
EXTRN	?GetWorldAttackBoxList@ioWeapon@@UAEXAAV?$vector@VioOrientBox@@V?$allocator@VioOrientBox@@@std@@@std@@@Z:PROC ; ioWeapon::GetWorldAttackBoxList
EXTRN	?GetAttackDir@ioWeapon@@UBE?AUD3DXVECTOR3@@PBVioPlayEntity@@@Z:PROC ; ioWeapon::GetAttackDir
EXTRN	?GetLiveTime@ioWeapon@@UAEKXZ:PROC		; ioWeapon::GetLiveTime
EXTRN	?GetMoveDir@ioWeapon@@UAE?AUD3DXVECTOR3@@XZ:PROC ; ioWeapon::GetMoveDir
EXTRN	?CheckWeaponCollision@ioWeapon@@UAEXXZ:PROC	; ioWeapon::CheckWeaponCollision
EXTRN	?GetRefreshDuration@ioWeapon@@UAEKXZ:PROC	; ioWeapon::GetRefreshDuration
EXTRN	?GetIgnoreDuration@ioWeapon@@UAEKXZ:PROC	; ioWeapon::GetIgnoreDuration
EXTRN	?GetIgnoreTimeTypeDuration@ioWeapon@@UAEKXZ:PROC ; ioWeapon::GetIgnoreTimeTypeDuration
EXTRN	?GetIgnoreTimeType@ioWeapon@@UAEKXZ:PROC	; ioWeapon::GetIgnoreTimeType
EXTRN	?ApplyWeaponSync@ioWeapon@@UAEXAAVSP2Packet@@PAVioPlayStage@@@Z:PROC ; ioWeapon::ApplyWeaponSync
EXTRN	?IsSkillDependency@ioWeapon@@UAE_NABVioHashString@@@Z:PROC ; ioWeapon::IsSkillDependency
EXTRN	?SetSkillDependencyAction@ioWeapon@@UAEXXZ:PROC	; ioWeapon::SetSkillDependencyAction
EXTRN	?UpdateWorldAttackBox@ioWeapon@@MAEXM_N@Z:PROC	; ioWeapon::UpdateWorldAttackBox
EXTRN	?GetAttribute@ioWeapon@@MBEPBUWeaponAttribute@@XZ:PROC ; ioWeapon::GetAttribute
EXTRN	?CalcFinalDamage@ioWeapon@@MAEMXZ:PROC		; ioWeapon::CalcFinalDamage
EXTRN	?CalcFinalBoundDamage@ioWeapon@@MAEMXZ:PROC	; ioWeapon::CalcFinalBoundDamage
EXTRN	?CheckPiercing@ioWeapon@@MAE_N_N@Z:PROC		; ioWeapon::CheckPiercing
EXTRN	?ClearCollisionList@ioWeapon@@MAEXXZ:PROC	; ioWeapon::ClearCollisionList
EXTRN	?CheckCreateWeaponList@ioWeapon@@MAEXXZ:PROC	; ioWeapon::CheckCreateWeaponList
EXTRN	?CreateCollisionAreaWeapon@ioWeapon@@MAEXXZ:PROC ; ioWeapon::CreateCollisionAreaWeapon
EXTRN	?SetMapCollision@ioWeapon@@UAEXXZ:PROC		; ioWeapon::SetMapCollision
EXTRN	?IsIgnoreMapCollision@ioWeapon@@UBE_NXZ:PROC	; ioWeapon::IsIgnoreMapCollision
EXTRN	?IsIgnoreTestMapCollision@ioWeapon@@UBE_NXZ:PROC ; ioWeapon::IsIgnoreTestMapCollision
EXTRN	?IsIgnoreMapCollisionEffect@ioWeapon@@UBE_NXZ:PROC ; ioWeapon::IsIgnoreMapCollisionEffect
EXTRN	?AddEffectEvent@ioWeapon@@MAEXPAVioEffect@@@Z:PROC ; ioWeapon::AddEffectEvent
EXTRN	??_EioAttachWeapon@@UAEPAXI@Z:PROC		; ioAttachWeapon::`vector deleting destructor'
;	COMDAT ??_R2ioWeapon@@8
; File c:\program files (x86)\microsoft visual studio 10.0\vc\include\xmemory
rdata$r	SEGMENT
??_R2ioWeapon@@8 DD FLAT:??_R1A@?0A@EA@ioWeapon@@8	; ioWeapon::`RTTI Base Class Array'
rdata$r	ENDS
;	COMDAT ??_R3ioWeapon@@8
rdata$r	SEGMENT
??_R3ioWeapon@@8 DD 00H					; ioWeapon::`RTTI Class Hierarchy Descriptor'
	DD	00H
	DD	01H
	DD	FLAT:??_R2ioWeapon@@8
rdata$r	ENDS
;	COMDAT ??_R0?AVioWeapon@@@8
_DATA	SEGMENT
??_R0?AVioWeapon@@@8 DD FLAT:??_7type_info@@6B@		; ioWeapon `RTTI Type Descriptor'
	DD	00H
	DB	'.?AVioWeapon@@', 00H
_DATA	ENDS
;	COMDAT ??_R1A@?0A@EA@ioWeapon@@8
rdata$r	SEGMENT
??_R1A@?0A@EA@ioWeapon@@8 DD FLAT:??_R0?AVioWeapon@@@8	; ioWeapon::`RTTI Base Class Descriptor at (0,-1,0,64)'
	DD	00H
	DD	00H
	DD	0ffffffffH
	DD	00H
	DD	040H
	DD	FLAT:??_R3ioWeapon@@8
rdata$r	ENDS
;	COMDAT ??_R1A@?0A@EA@ioAttachWeapon@@8
rdata$r	SEGMENT
??_R1A@?0A@EA@ioAttachWeapon@@8 DD FLAT:??_R0?AVioAttachWeapon@@@8 ; ioAttachWeapon::`RTTI Base Class Descriptor at (0,-1,0,64)'
	DD	01H
	DD	00H
	DD	0ffffffffH
	DD	00H
	DD	040H
	DD	FLAT:??_R3ioAttachWeapon@@8
rdata$r	ENDS
;	COMDAT ??_R2ioAttachWeapon@@8
rdata$r	SEGMENT
??_R2ioAttachWeapon@@8 DD FLAT:??_R1A@?0A@EA@ioAttachWeapon@@8 ; ioAttachWeapon::`RTTI Base Class Array'
	DD	FLAT:??_R1A@?0A@EA@ioWeapon@@8
rdata$r	ENDS
;	COMDAT ??_R3ioAttachWeapon@@8
rdata$r	SEGMENT
??_R3ioAttachWeapon@@8 DD 00H				; ioAttachWeapon::`RTTI Class Hierarchy Descriptor'
	DD	00H
	DD	02H
	DD	FLAT:??_R2ioAttachWeapon@@8
rdata$r	ENDS
;	COMDAT ??_R0?AVioAttachWeapon@@@8
_DATA	SEGMENT
??_R0?AVioAttachWeapon@@@8 DD FLAT:??_7type_info@@6B@	; ioAttachWeapon `RTTI Type Descriptor'
	DD	00H
	DB	'.?AVioAttachWeapon@@', 00H
_DATA	ENDS
;	COMDAT ??_R4ioAttachWeapon@@6B@
rdata$r	SEGMENT
??_R4ioAttachWeapon@@6B@ DD 00H				; ioAttachWeapon::`RTTI Complete Object Locator'
	DD	00H
	DD	00H
	DD	FLAT:??_R0?AVioAttachWeapon@@@8
	DD	FLAT:??_R3ioAttachWeapon@@8
rdata$r	ENDS
;	COMDAT ??_7ioAttachWeapon@@6B@
CONST	SEGMENT
??_7ioAttachWeapon@@6B@ DD FLAT:??_R4ioAttachWeapon@@6B@ ; ioAttachWeapon::`vftable'
	DD	FLAT:?IsAlreadyCollisioned@ioWeapon@@UAE_NPAVioPlayEntity@@@Z
	DD	FLAT:?AddCollisionEntity@ioWeapon@@UAEXPAVioPlayEntity@@@Z
	DD	FLAT:?SetOwnerDamageRate@ioWeapon@@UAEXM@Z
	DD	FLAT:?SetOwnerChargeDamageRate@ioWeapon@@UAEXM@Z
	DD	FLAT:?SetOwnerChargeForceRate@ioWeapon@@UAEXM@Z
	DD	FLAT:?SetOwnerChargeRangeRate@ioWeapon@@UAEXM@Z
	DD	FLAT:?SetOwnerChargeSpeedRate@ioWeapon@@UAEXM@Z
	DD	FLAT:?SetOwnerChargeBlowRate@ioWeapon@@UAEXM@Z
	DD	FLAT:?SetOwnerChargeFloatRate@ioWeapon@@UAEXM@Z
	DD	FLAT:?SetOwnerChargeScaleRate@ioWeapon@@UAEXM@Z
	DD	FLAT:?SetOwnerChargeExplosionRate@ioWeapon@@UAEXM@Z
	DD	FLAT:?SetOwnerChargeWoundedTimeRate@ioWeapon@@UAEXM@Z
	DD	FLAT:?SetOwnerChargeLiveTimeRate@ioWeapon@@UAEXM@Z
	DD	FLAT:?SetOwnerChargeBuffLiveTimeRate@ioWeapon@@UAEXM@Z
	DD	FLAT:?SetWeaponIndex@ioWeapon@@UAEXK@Z
	DD	FLAT:?SetGrapplingTargetName@ioWeapon@@UAEXABVioHashString@@@Z
	DD	FLAT:?SetCreateItem@ioWeapon@@UAEXABVioHashString@@@Z
	DD	FLAT:?SetTeam@ioWeapon@@UAEXPAVioPlayStage@@W4TeamType@@@Z
	DD	FLAT:?CallReserveAreaWeapon@ioWeapon@@UAEXXZ
	DD	FLAT:?SetWeaponDead@ioWeapon@@UAEXXZ
	DD	FLAT:?PlayExplosionSound@ioWeapon@@UAEXXZ
	DD	FLAT:?PlayWoundedSound@ioWeapon@@UAEXPAVioPlayEntity@@@Z
	DD	FLAT:?PlayDefensedSound@ioWeapon@@UAEXPAVioPlayEntity@@@Z
	DD	FLAT:?PlayLoopSound@ioWeapon@@UAEXXZ
	DD	FLAT:?StopLoopSound@ioWeapon@@UAEXXZ
	DD	FLAT:?GetTargetAirBuffList@ioWeapon@@UBEABV?$vector@UBuffInfoStruct@@V?$allocator@UBuffInfoStruct@@@std@@@std@@XZ
	DD	FLAT:?GetTargetBuffList@ioWeapon@@UBEABV?$vector@UBuffInfoStruct@@V?$allocator@UBuffInfoStruct@@@std@@@std@@XZ
	DD	FLAT:?GetTargetDownBuffList@ioWeapon@@UBEABV?$vector@UBuffInfoStruct@@V?$allocator@UBuffInfoStruct@@@std@@@std@@XZ
	DD	FLAT:?GetPosition@ioWeapon@@UBEABUD3DXVECTOR3@@XZ
	DD	FLAT:?GetBlowType@ioWeapon@@UBE?AW4BlowTargetType@@XZ
	DD	FLAT:?GetPushPower@ioWeapon@@UBEMM@Z
	DD	FLAT:?GetBlowPower@ioWeapon@@UBEMM@Z
	DD	FLAT:?GetAirPushPower@ioWeapon@@UBEMM@Z
	DD	FLAT:?GetAirBlowPower@ioWeapon@@UBEMM@Z
	DD	FLAT:?GetDefensePushPower@ioWeapon@@UBEMM@Z
	DD	FLAT:?GetCollisionEnableTime@ioAttachWeapon@@UBEKXZ
	DD	FLAT:?SetSylphid@ioWeapon@@UAEHXZ
	DD	FLAT:?ApplyExtraReserveWeaponByWeaponInfo@ioWeapon@@UAEXPAV1@@Z
	DD	FLAT:?InitResource@ioAttachWeapon@@UAE_NXZ
	DD	FLAT:?DestroyResource@ioAttachWeapon@@UAEXPAVioPlayStage@@@Z
	DD	FLAT:?LoadProperty@ioAttachWeapon@@UAEXAAVioINILoader@@@Z
	DD	FLAT:?SetResistanceAttr@ioWeapon@@UAEXH@Z
	DD	FLAT:?SetStartCollisionBox@ioWeapon@@UAEXXZ
	DD	FLAT:?SetLiveTime@ioAttachWeapon@@UAEXK@Z
	DD	FLAT:?SetMoveDir@ioAttachWeapon@@UAEXABUD3DXVECTOR3@@@Z
	DD	FLAT:?SetMoveSpeed@ioWeapon@@UAEXM@Z
	DD	FLAT:?SetFloatPower@ioWeapon@@UAEXM@Z
	DD	FLAT:?SetStartPosition@ioAttachWeapon@@UAEXABUD3DXVECTOR3@@PAVioPlayStage@@@Z
	DD	FLAT:?Process@ioAttachWeapon@@UAEXMPAVioPlayStage@@@Z
	DD	FLAT:?IsCollision@ioAttachWeapon@@UAE_NPAVioPlayEntity@@_N@Z
	DD	FLAT:?TestMapCollision@ioWeapon@@UAE_NPAVioOpcodeShape@@PAVioPlayStage@@PBUD3DXMATRIX@@@Z
	DD	FLAT:?CheckPreCollision@ioWeapon@@UAEXPAVioPlayEntity@@PAVioPlayStage@@@Z
	DD	FLAT:?CheckStructAndDummy@ioWeapon@@UAEXPAVioPlayEntity@@PAVioPlayStage@@@Z
	DD	FLAT:?GetDamage@ioWeapon@@UAEMPAVioPlayEntity@@@Z
	DD	FLAT:?GetBaseDamage@ioWeapon@@UAEMPAVioPlayEntity@@@Z
	DD	FLAT:?GetPushAngle@ioWeapon@@UBEMXZ
	DD	FLAT:?IsResistanceMagic@ioWeapon@@UAEHPAVioBaseChar@@@Z
	DD	FLAT:?IsResistanceBomb@ioWeapon@@UAEHPAVioBaseChar@@@Z
	DD	FLAT:?IsCanMineExplosion@ioWeapon@@UAE_NXZ
	DD	FLAT:?CheckGrapplingState@ioWeapon@@UAE?AW4GrapplingType@@XZ
	DD	FLAT:?CheckCurAttribute@ioWeapon@@UAEXPBVioPlayEntity@@@Z
	DD	FLAT:?CheckItemNotDrop@ioWeapon@@UAE_NPAVioBaseChar@@@Z
	DD	FLAT:?GetWorldAttackBoxList@ioWeapon@@UAEXAAV?$vector@VioOrientBox@@V?$allocator@VioOrientBox@@@std@@@std@@@Z
	DD	FLAT:?GetAttackDir@ioWeapon@@UBE?AUD3DXVECTOR3@@PBVioPlayEntity@@@Z
	DD	FLAT:?GetLocalAttackBox@ioAttachWeapon@@UBEABVioOrientBox@@XZ
	DD	FLAT:?GetLiveTime@ioWeapon@@UAEKXZ
	DD	FLAT:?GetMoveDir@ioWeapon@@UAE?AUD3DXVECTOR3@@XZ
	DD	FLAT:?CheckWeaponCollision@ioWeapon@@UAEXXZ
	DD	FLAT:?GetType@ioAttachWeapon@@UBE?AW4WeaponType@ioWeapon@@XZ
	DD	FLAT:?GetActionStopType@ioAttachWeapon@@UBE?AW4ActionStopType@@XZ
	DD	FLAT:?GetDieActionStopType@ioAttachWeapon@@UBE?AW4ActionStopType@@XZ
	DD	FLAT:?GetRefreshDuration@ioWeapon@@UAEKXZ
	DD	FLAT:?GetIgnoreDuration@ioWeapon@@UAEKXZ
	DD	FLAT:?GetIgnoreTimeTypeDuration@ioWeapon@@UAEKXZ
	DD	FLAT:?GetIgnoreTimeType@ioWeapon@@UAEKXZ
	DD	FLAT:?ApplyWeaponSync@ioWeapon@@UAEXAAVSP2Packet@@PAVioPlayStage@@@Z
	DD	FLAT:?IsSkillDependency@ioWeapon@@UAE_NABVioHashString@@@Z
	DD	FLAT:?SetSkillDependencyAction@ioWeapon@@UAEXXZ
	DD	FLAT:?UpdateWorldAttackBox@ioWeapon@@MAEXM_N@Z
	DD	FLAT:?GetAttribute@ioWeapon@@MBEPBUWeaponAttribute@@XZ
	DD	FLAT:?CalcFinalDamage@ioWeapon@@MAEMXZ
	DD	FLAT:?CalcFinalBoundDamage@ioWeapon@@MAEMXZ
	DD	FLAT:?CheckPiercing@ioWeapon@@MAE_N_N@Z
	DD	FLAT:?ClearCollisionList@ioWeapon@@MAEXXZ
	DD	FLAT:?CheckCreateWeaponList@ioWeapon@@MAEXXZ
	DD	FLAT:?CreateCollisionAreaWeapon@ioWeapon@@MAEXXZ
	DD	FLAT:?SetMapCollision@ioWeapon@@UAEXXZ
	DD	FLAT:?IsIgnoreMapCollision@ioWeapon@@UBE_NXZ
	DD	FLAT:?IsIgnoreTestMapCollision@ioWeapon@@UBE_NXZ
	DD	FLAT:?IsIgnoreMapCollisionEffect@ioWeapon@@UBE_NXZ
	DD	FLAT:?AddEffectEvent@ioWeapon@@MAEXPAVioEffect@@@Z
	DD	FLAT:??_EioAttachWeapon@@UAEPAXI@Z
CONST	ENDS
;	COMDAT xdata$x
xdata$x	SEGMENT
__ehfuncinfo$??0ioAttachWeapon@@QAE@PAVioBaseChar@@PBUWeaponAttribute@@@Z DD 019930522H
	DD	0eH
	DD	FLAT:__unwindtable$??0ioAttachWeapon@@QAE@PAVioBaseChar@@PBUWeaponAttribute@@@Z
	DD	2 DUP(00H)
	DD	2 DUP(00H)
	DD	00H
	DD	01H
__unwindtable$??0ioAttachWeapon@@QAE@PAVioBaseChar@@PBUWeaponAttribute@@@Z DD 0ffffffffH
	DD	FLAT:__unwindfunclet$??0ioAttachWeapon@@QAE@PAVioBaseChar@@PBUWeaponAttribute@@@Z$0
	DD	00H
	DD	FLAT:__unwindfunclet$??0ioAttachWeapon@@QAE@PAVioBaseChar@@PBUWeaponAttribute@@@Z$1
	DD	01H
	DD	FLAT:__unwindfunclet$??0ioAttachWeapon@@QAE@PAVioBaseChar@@PBUWeaponAttribute@@@Z$2
	DD	02H
	DD	FLAT:__unwindfunclet$??0ioAttachWeapon@@QAE@PAVioBaseChar@@PBUWeaponAttribute@@@Z$3
	DD	03H
	DD	FLAT:__unwindfunclet$??0ioAttachWeapon@@QAE@PAVioBaseChar@@PBUWeaponAttribute@@@Z$4
	DD	04H
	DD	FLAT:__unwindfunclet$??0ioAttachWeapon@@QAE@PAVioBaseChar@@PBUWeaponAttribute@@@Z$5
	DD	05H
	DD	FLAT:__unwindfunclet$??0ioAttachWeapon@@QAE@PAVioBaseChar@@PBUWeaponAttribute@@@Z$6
	DD	06H
	DD	FLAT:__unwindfunclet$??0ioAttachWeapon@@QAE@PAVioBaseChar@@PBUWeaponAttribute@@@Z$7
	DD	07H
	DD	FLAT:__unwindfunclet$??0ioAttachWeapon@@QAE@PAVioBaseChar@@PBUWeaponAttribute@@@Z$8
	DD	08H
	DD	FLAT:__unwindfunclet$??0ioAttachWeapon@@QAE@PAVioBaseChar@@PBUWeaponAttribute@@@Z$9
	DD	09H
	DD	FLAT:__unwindfunclet$??0ioAttachWeapon@@QAE@PAVioBaseChar@@PBUWeaponAttribute@@@Z$10
	DD	0aH
	DD	FLAT:__unwindfunclet$??0ioAttachWeapon@@QAE@PAVioBaseChar@@PBUWeaponAttribute@@@Z$11
	DD	0bH
	DD	FLAT:__unwindfunclet$??0ioAttachWeapon@@QAE@PAVioBaseChar@@PBUWeaponAttribute@@@Z$12
	DD	0cH
	DD	FLAT:__unwindfunclet$??0ioAttachWeapon@@QAE@PAVioBaseChar@@PBUWeaponAttribute@@@Z$13
; Function compile flags: /Ogsp
; File d:\lost saga for developer\youtube\tutorial\source\src\lsclient\ioattachweapon.cpp
xdata$x	ENDS
;	COMDAT ??0ioAttachWeapon@@QAE@PAVioBaseChar@@PBUWeaponAttribute@@@Z
_TEXT	SEGMENT
_this$ = -16						; size = 4
__$EHRec$ = -12						; size = 12
_pOwner$ = 8						; size = 4
_pAttr$ = 12						; size = 4
??0ioAttachWeapon@@QAE@PAVioBaseChar@@PBUWeaponAttribute@@@Z PROC ; ioAttachWeapon::ioAttachWeapon, COMDAT
; _this$ = ecx

; 15   : {

  00000	6a 04		 push	 4
  00002	b8 00 00 00 00	 mov	 eax, __ehhandler$??0ioAttachWeapon@@QAE@PAVioBaseChar@@PBUWeaponAttribute@@@Z
  00007	e8 00 00 00 00	 call	 __EH_prolog3
  0000c	8b f1		 mov	 esi, ecx
  0000e	89 75 f0	 mov	 DWORD PTR _this$[ebp], esi
  00011	ff 75 0c	 push	 DWORD PTR _pAttr$[ebp]
  00014	ff 75 08	 push	 DWORD PTR _pOwner$[ebp]
  00017	e8 00 00 00 00	 call	 ??0ioWeapon@@QAE@PAVioBaseChar@@PBUWeaponAttribute@@@Z ; ioWeapon::ioWeapon
  0001c	33 ff		 xor	 edi, edi
  0001e	c7 06 00 00 00
	00		 mov	 DWORD PTR [esi], OFFSET ??_7ioAttachWeapon@@6B@
  00024	89 7d fc	 mov	 DWORD PTR __$EHRec$[ebp+8], edi
  00027	89 be 98 08 00
	00		 mov	 DWORD PTR [esi+2200], edi
  0002d	89 be 9c 08 00
	00		 mov	 DWORD PTR [esi+2204], edi
  00033	89 be a0 08 00
	00		 mov	 DWORD PTR [esi+2208], edi
  00039	8d 8e b4 08 00
	00		 lea	 ecx, DWORD PTR [esi+2228]
  0003f	c6 45 fc 01	 mov	 BYTE PTR __$EHRec$[ebp+8], 1
  00043	e8 00 00 00 00	 call	 ??0?$CEncrypt@M@@QAE@XZ	; CEncrypt<float>::CEncrypt<float>
  00048	8d 8e e4 08 00
	00		 lea	 ecx, DWORD PTR [esi+2276]
  0004e	c6 45 fc 02	 mov	 BYTE PTR __$EHRec$[ebp+8], 2
  00052	e8 00 00 00 00	 call	 ??0?$CEncrypt@M@@QAE@XZ	; CEncrypt<float>::CEncrypt<float>
  00057	8d 8e 14 09 00
	00		 lea	 ecx, DWORD PTR [esi+2324]
  0005d	c6 45 fc 03	 mov	 BYTE PTR __$EHRec$[ebp+8], 3
  00061	e8 00 00 00 00	 call	 ??0?$CEncrypt@K@@QAE@XZ	; CEncrypt<unsigned long>::CEncrypt<unsigned long>
  00066	8d 8e 44 09 00
	00		 lea	 ecx, DWORD PTR [esi+2372]
  0006c	c6 45 fc 04	 mov	 BYTE PTR __$EHRec$[ebp+8], 4
  00070	e8 00 00 00 00	 call	 ??0?$CEncrypt@M@@QAE@XZ	; CEncrypt<float>::CEncrypt<float>
  00075	8d 8e 74 09 00
	00		 lea	 ecx, DWORD PTR [esi+2420]
  0007b	c6 45 fc 05	 mov	 BYTE PTR __$EHRec$[ebp+8], 5
  0007f	e8 00 00 00 00	 call	 ??0?$CEncrypt@M@@QAE@XZ	; CEncrypt<float>::CEncrypt<float>
  00084	8d 8e a4 09 00
	00		 lea	 ecx, DWORD PTR [esi+2468]
  0008a	c6 45 fc 06	 mov	 BYTE PTR __$EHRec$[ebp+8], 6
  0008e	e8 00 00 00 00	 call	 ??0?$CEncrypt@M@@QAE@XZ	; CEncrypt<float>::CEncrypt<float>
  00093	8d 8e d4 09 00
	00		 lea	 ecx, DWORD PTR [esi+2516]
  00099	c6 45 fc 07	 mov	 BYTE PTR __$EHRec$[ebp+8], 7
  0009d	e8 00 00 00 00	 call	 ??0?$CEncrypt@M@@QAE@XZ	; CEncrypt<float>::CEncrypt<float>
  000a2	8d 8e 1c 0a 00
	00		 lea	 ecx, DWORD PTR [esi+2588]
  000a8	c6 45 fc 08	 mov	 BYTE PTR __$EHRec$[ebp+8], 8
  000ac	ff 15 00 00 00
	00		 call	 DWORD PTR __imp_??0ioHashString@@QAE@XZ
  000b2	8d 8e 2c 0a 00
	00		 lea	 ecx, DWORD PTR [esi+2604]
  000b8	c6 45 fc 09	 mov	 BYTE PTR __$EHRec$[ebp+8], 9
  000bc	e8 00 00 00 00	 call	 ??0?$CEncrypt@K@@QAE@XZ	; CEncrypt<unsigned long>::CEncrypt<unsigned long>
  000c1	8d 8e 64 0a 00
	00		 lea	 ecx, DWORD PTR [esi+2660]
  000c7	c6 45 fc 0a	 mov	 BYTE PTR __$EHRec$[ebp+8], 10 ; 0000000aH
  000cb	ff 15 00 00 00
	00		 call	 DWORD PTR __imp_??0ioOrientBox@@QAE@XZ
  000d1	8d 8e a8 0a 00
	00		 lea	 ecx, DWORD PTR [esi+2728]
  000d7	c6 45 fc 0b	 mov	 BYTE PTR __$EHRec$[ebp+8], 11 ; 0000000bH
  000db	e8 00 00 00 00	 call	 ??0?$CEncrypt@_N@@QAE@XZ ; CEncrypt<bool>::CEncrypt<bool>
  000e0	89 be e4 0a 00
	00		 mov	 DWORD PTR [esi+2788], edi
  000e6	89 be e8 0a 00
	00		 mov	 DWORD PTR [esi+2792], edi
  000ec	89 be ec 0a 00
	00		 mov	 DWORD PTR [esi+2796], edi

; 16   : 	SetPeculiarity( WP_MISSILE_WEAPON | WP_DIVIDE_ACTION );

  000f2	68 02 01 00 00	 push	 258			; 00000102H
  000f7	8b ce		 mov	 ecx, esi
  000f9	c6 45 fc 0d	 mov	 BYTE PTR __$EHRec$[ebp+8], 13 ; 0000000dH
  000fd	e8 00 00 00 00	 call	 ?SetPeculiarity@ioWeapon@@QAEXK@Z ; ioWeapon::SetPeculiarity

; 17   : 
; 18   : 	m_pFireBall = NULL;
; 19   : 	m_State = TS_MOVE;
; 20   : 
; 21   : 	m_fCurMoveSpeed = 0.0f;

  00102	0f 57 c0	 xorps	 xmm0, xmm0
  00105	89 be 60 0a 00
	00		 mov	 DWORD PTR [esi+2656], edi
  0010b	89 be 94 08 00
	00		 mov	 DWORD PTR [esi+2196], edi
  00111	f3 0f 11 86 a8
	08 00 00	 movss	 DWORD PTR [esi+2216], xmm0

; 22   : 	m_fCurMoveRange = 0.0f;

  00119	f3 0f 11 86 ac
	08 00 00	 movss	 DWORD PTR [esi+2220], xmm0

; 23   : 
; 24   : 	m_dwTraceEndTime = 0;

  00121	89 be 5c 0a 00
	00		 mov	 DWORD PTR [esi+2652], edi

; 25   : }

  00127	8b c6		 mov	 eax, esi
  00129	e8 00 00 00 00	 call	 __EH_epilog3
  0012e	c2 08 00	 ret	 8
_TEXT	ENDS
;	COMDAT text$x
text$x	SEGMENT
__unwindfunclet$??0ioAttachWeapon@@QAE@PAVioBaseChar@@PBUWeaponAttribute@@@Z$0:
  00000	8b 4d f0	 mov	 ecx, DWORD PTR _this$[ebp]
  00003	e9 00 00 00 00	 jmp	 ??1ioWeapon@@UAE@XZ	; ioWeapon::~ioWeapon
__unwindfunclet$??0ioAttachWeapon@@QAE@PAVioBaseChar@@PBUWeaponAttribute@@@Z$1:
  00008	8b 4d f0	 mov	 ecx, DWORD PTR _this$[ebp]
  0000b	81 c1 98 08 00
	00		 add	 ecx, 2200		; 00000898H
  00011	e9 00 00 00 00	 jmp	 ??1?$vector@UChangeDirInfo@@V?$allocator@UChangeDirInfo@@@std@@@std@@QAE@XZ ; std::vector<ChangeDirInfo,std::allocator<ChangeDirInfo> >::~vector<ChangeDirInfo,std::allocator<ChangeDirInfo> >
__unwindfunclet$??0ioAttachWeapon@@QAE@PAVioBaseChar@@PBUWeaponAttribute@@@Z$2:
  00016	8b 4d f0	 mov	 ecx, DWORD PTR _this$[ebp]
  00019	81 c1 b4 08 00
	00		 add	 ecx, 2228		; 000008b4H
  0001f	e9 00 00 00 00	 jmp	 ??1?$CEncrypt@M@@UAE@XZ	; CEncrypt<float>::~CEncrypt<float>
__unwindfunclet$??0ioAttachWeapon@@QAE@PAVioBaseChar@@PBUWeaponAttribute@@@Z$3:
  00024	8b 4d f0	 mov	 ecx, DWORD PTR _this$[ebp]
  00027	81 c1 e4 08 00
	00		 add	 ecx, 2276		; 000008e4H
  0002d	e9 00 00 00 00	 jmp	 ??1?$CEncrypt@M@@UAE@XZ	; CEncrypt<float>::~CEncrypt<float>
__unwindfunclet$??0ioAttachWeapon@@QAE@PAVioBaseChar@@PBUWeaponAttribute@@@Z$4:
  00032	8b 4d f0	 mov	 ecx, DWORD PTR _this$[ebp]
  00035	81 c1 14 09 00
	00		 add	 ecx, 2324		; 00000914H
  0003b	e9 00 00 00 00	 jmp	 ??1?$CEncrypt@K@@UAE@XZ	; CEncrypt<unsigned long>::~CEncrypt<unsigned long>
__unwindfunclet$??0ioAttachWeapon@@QAE@PAVioBaseChar@@PBUWeaponAttribute@@@Z$5:
  00040	8b 4d f0	 mov	 ecx, DWORD PTR _this$[ebp]
  00043	81 c1 44 09 00
	00		 add	 ecx, 2372		; 00000944H
  00049	e9 00 00 00 00	 jmp	 ??1?$CEncrypt@M@@UAE@XZ	; CEncrypt<float>::~CEncrypt<float>
__unwindfunclet$??0ioAttachWeapon@@QAE@PAVioBaseChar@@PBUWeaponAttribute@@@Z$6:
  0004e	8b 4d f0	 mov	 ecx, DWORD PTR _this$[ebp]
  00051	81 c1 74 09 00
	00		 add	 ecx, 2420		; 00000974H
  00057	e9 00 00 00 00	 jmp	 ??1?$CEncrypt@M@@UAE@XZ	; CEncrypt<float>::~CEncrypt<float>
__unwindfunclet$??0ioAttachWeapon@@QAE@PAVioBaseChar@@PBUWeaponAttribute@@@Z$7:
  0005c	8b 4d f0	 mov	 ecx, DWORD PTR _this$[ebp]
  0005f	81 c1 a4 09 00
	00		 add	 ecx, 2468		; 000009a4H
  00065	e9 00 00 00 00	 jmp	 ??1?$CEncrypt@M@@UAE@XZ	; CEncrypt<float>::~CEncrypt<float>
__unwindfunclet$??0ioAttachWeapon@@QAE@PAVioBaseChar@@PBUWeaponAttribute@@@Z$8:
  0006a	8b 4d f0	 mov	 ecx, DWORD PTR _this$[ebp]
  0006d	81 c1 d4 09 00
	00		 add	 ecx, 2516		; 000009d4H
  00073	e9 00 00 00 00	 jmp	 ??1?$CEncrypt@M@@UAE@XZ	; CEncrypt<float>::~CEncrypt<float>
__unwindfunclet$??0ioAttachWeapon@@QAE@PAVioBaseChar@@PBUWeaponAttribute@@@Z$9:
  00078	8b 4d f0	 mov	 ecx, DWORD PTR _this$[ebp]
  0007b	81 c1 1c 0a 00
	00		 add	 ecx, 2588		; 00000a1cH
  00081	ff 25 00 00 00
	00		 jmp	 DWORD PTR __imp_??1ioHashString@@QAE@XZ
__unwindfunclet$??0ioAttachWeapon@@QAE@PAVioBaseChar@@PBUWeaponAttribute@@@Z$10:
  00087	8b 4d f0	 mov	 ecx, DWORD PTR _this$[ebp]
  0008a	81 c1 2c 0a 00
	00		 add	 ecx, 2604		; 00000a2cH
  00090	e9 00 00 00 00	 jmp	 ??1?$CEncrypt@K@@UAE@XZ	; CEncrypt<unsigned long>::~CEncrypt<unsigned long>
__unwindfunclet$??0ioAttachWeapon@@QAE@PAVioBaseChar@@PBUWeaponAttribute@@@Z$11:
  00095	8b 4d f0	 mov	 ecx, DWORD PTR _this$[ebp]
  00098	81 c1 64 0a 00
	00		 add	 ecx, 2660		; 00000a64H
  0009e	ff 25 00 00 00
	00		 jmp	 DWORD PTR __imp_??1ioOrientBox@@QAE@XZ
__unwindfunclet$??0ioAttachWeapon@@QAE@PAVioBaseChar@@PBUWeaponAttribute@@@Z$12:
  000a4	8b 4d f0	 mov	 ecx, DWORD PTR _this$[ebp]
  000a7	81 c1 a8 0a 00
	00		 add	 ecx, 2728		; 00000aa8H
  000ad	e9 00 00 00 00	 jmp	 ??1?$CEncrypt@_N@@UAE@XZ ; CEncrypt<bool>::~CEncrypt<bool>
__unwindfunclet$??0ioAttachWeapon@@QAE@PAVioBaseChar@@PBUWeaponAttribute@@@Z$13:
  000b2	8b 4d f0	 mov	 ecx, DWORD PTR _this$[ebp]
  000b5	81 c1 e4 0a 00
	00		 add	 ecx, 2788		; 00000ae4H
  000bb	e9 00 00 00 00	 jmp	 ??1?$vector@VioHashString@@V?$allocator@VioHashString@@@std@@@std@@QAE@XZ ; std::vector<ioHashString,std::allocator<ioHashString> >::~vector<ioHashString,std::allocator<ioHashString> >
__ehhandler$??0ioAttachWeapon@@QAE@PAVioBaseChar@@PBUWeaponAttribute@@@Z:
  000c0	8b 54 24 08	 mov	 edx, DWORD PTR [esp+8]
  000c4	8d 42 0c	 lea	 eax, DWORD PTR [edx+12]
  000c7	8b 4a ec	 mov	 ecx, DWORD PTR [edx-20]
  000ca	33 c8		 xor	 ecx, eax
  000cc	e8 00 00 00 00	 call	 @__security_check_cookie@4
  000d1	b8 00 00 00 00	 mov	 eax, OFFSET __ehfuncinfo$??0ioAttachWeapon@@QAE@PAVioBaseChar@@PBUWeaponAttribute@@@Z
  000d6	e9 00 00 00 00	 jmp	 ___CxxFrameHandler3
text$x	ENDS
??0ioAttachWeapon@@QAE@PAVioBaseChar@@PBUWeaponAttribute@@@Z ENDP ; ioAttachWeapon::ioAttachWeapon
PUBLIC	??_C@_0DG@EMJIDGMA@ioAttachWeapon?3?3?$HOioAttachWeapon?5@ ; `string'
PUBLIC	??1ioAttachWeapon@@UAE@XZ			; ioAttachWeapon::~ioAttachWeapon
EXTRN	__imp_?PrintTimeAndLog@CLog@@QAAXHPADZZ:PROC
EXTRN	__imp_?LOG@@3VCLog@@A:BYTE
;	COMDAT ??_C@_0DG@EMJIDGMA@ioAttachWeapon?3?3?$HOioAttachWeapon?5@
; File c:\program files (x86)\microsoft visual studio 10.0\vc\include\vector
CONST	SEGMENT
??_C@_0DG@EMJIDGMA@ioAttachWeapon?3?3?$HOioAttachWeapon?5@ DB 'ioAttachWe'
	DB	'apon::~ioAttachWeapon - UnReleased Resource', 00H ; `string'
CONST	ENDS
;	COMDAT xdata$x
xdata$x	SEGMENT
__ehfuncinfo$??1ioAttachWeapon@@UAE@XZ DD 019930522H
	DD	0eH
	DD	FLAT:__unwindtable$??1ioAttachWeapon@@UAE@XZ
	DD	2 DUP(00H)
	DD	2 DUP(00H)
	DD	00H
	DD	01H
__unwindtable$??1ioAttachWeapon@@UAE@XZ DD 0ffffffffH
	DD	FLAT:__unwindfunclet$??1ioAttachWeapon@@UAE@XZ$0
	DD	00H
	DD	FLAT:__unwindfunclet$??1ioAttachWeapon@@UAE@XZ$1
	DD	01H
	DD	FLAT:__unwindfunclet$??1ioAttachWeapon@@UAE@XZ$2
	DD	02H
	DD	FLAT:__unwindfunclet$??1ioAttachWeapon@@UAE@XZ$3
	DD	03H
	DD	FLAT:__unwindfunclet$??1ioAttachWeapon@@UAE@XZ$4
	DD	04H
	DD	FLAT:__unwindfunclet$??1ioAttachWeapon@@UAE@XZ$5
	DD	05H
	DD	FLAT:__unwindfunclet$??1ioAttachWeapon@@UAE@XZ$6
	DD	06H
	DD	FLAT:__unwindfunclet$??1ioAttachWeapon@@UAE@XZ$7
	DD	07H
	DD	FLAT:__unwindfunclet$??1ioAttachWeapon@@UAE@XZ$8
	DD	08H
	DD	FLAT:__unwindfunclet$??1ioAttachWeapon@@UAE@XZ$9
	DD	09H
	DD	FLAT:__unwindfunclet$??1ioAttachWeapon@@UAE@XZ$10
	DD	0aH
	DD	FLAT:__unwindfunclet$??1ioAttachWeapon@@UAE@XZ$11
	DD	0bH
	DD	FLAT:__unwindfunclet$??1ioAttachWeapon@@UAE@XZ$12
	DD	0cH
	DD	FLAT:__unwindfunclet$??1ioAttachWeapon@@UAE@XZ$13
; Function compile flags: /Ogsp
; File d:\lost saga for developer\youtube\tutorial\source\src\lsclient\ioattachweapon.cpp
xdata$x	ENDS
;	COMDAT ??1ioAttachWeapon@@UAE@XZ
_TEXT	SEGMENT
_this$ = -16						; size = 4
__$EHRec$ = -12						; size = 12
??1ioAttachWeapon@@UAE@XZ PROC				; ioAttachWeapon::~ioAttachWeapon, COMDAT
; _this$ = ecx

; 28   : {

  00000	6a 04		 push	 4
  00002	b8 00 00 00 00	 mov	 eax, __ehhandler$??1ioAttachWeapon@@UAE@XZ
  00007	e8 00 00 00 00	 call	 __EH_prolog3
  0000c	8b f1		 mov	 esi, ecx
  0000e	89 75 f0	 mov	 DWORD PTR _this$[ebp], esi
  00011	c7 06 00 00 00
	00		 mov	 DWORD PTR [esi], OFFSET ??_7ioAttachWeapon@@6B@

; 29   : 	if( m_pFireBall )

  00017	83 be 60 0a 00
	00 00		 cmp	 DWORD PTR [esi+2656], 0
  0001e	c7 45 fc 0d 00
	00 00		 mov	 DWORD PTR __$EHRec$[ebp+8], 13 ; 0000000dH
  00025	74 16		 je	 SHORT $LN1@ioAttachWe

; 30   : 	{
; 31   : 		LOG.PrintTimeAndLog( 0, "ioAttachWeapon::~ioAttachWeapon - UnReleased Resource" );

  00027	68 00 00 00 00	 push	 OFFSET ??_C@_0DG@EMJIDGMA@ioAttachWeapon?3?3?$HOioAttachWeapon?5@
  0002c	6a 00		 push	 0
  0002e	ff 35 00 00 00
	00		 push	 DWORD PTR __imp_?LOG@@3VCLog@@A
  00034	ff 15 00 00 00
	00		 call	 DWORD PTR __imp_?PrintTimeAndLog@CLog@@QAAXHPADZZ
  0003a	83 c4 0c	 add	 esp, 12			; 0000000cH
$LN1@ioAttachWe:

; 32   : 	}
; 33   : }

  0003d	8d 8e e4 0a 00
	00		 lea	 ecx, DWORD PTR [esi+2788]
  00043	c6 45 fc 0c	 mov	 BYTE PTR __$EHRec$[ebp+8], 12 ; 0000000cH
  00047	e8 00 00 00 00	 call	 ?_Tidy@?$vector@VioHashString@@V?$allocator@VioHashString@@@std@@@std@@IAEXXZ ; std::vector<ioHashString,std::allocator<ioHashString> >::_Tidy
  0004c	8d 8e b4 0a 00
	00		 lea	 ecx, DWORD PTR [esi+2740]
  00052	c6 45 fc 0b	 mov	 BYTE PTR __$EHRec$[ebp+8], 11 ; 0000000bH
  00056	c7 86 a8 0a 00
	00 00 00 00 00	 mov	 DWORD PTR [esi+2728], OFFSET ??_7?$CEncrypt@_N@@6B@
  00060	e8 00 00 00 00	 call	 ??1ccddaabb@@UAE@XZ	; ccddaabb::~ccddaabb
  00065	8d 8e 64 0a 00
	00		 lea	 ecx, DWORD PTR [esi+2660]
  0006b	c6 45 fc 0a	 mov	 BYTE PTR __$EHRec$[ebp+8], 10 ; 0000000aH
  0006f	ff 15 00 00 00
	00		 call	 DWORD PTR __imp_??1ioOrientBox@@QAE@XZ
  00075	bb 00 00 00 00	 mov	 ebx, OFFSET ??_7?$CEncrypt@K@@6B@
  0007a	8d 8e 38 0a 00
	00		 lea	 ecx, DWORD PTR [esi+2616]
  00080	c6 45 fc 09	 mov	 BYTE PTR __$EHRec$[ebp+8], 9
  00084	89 9e 2c 0a 00
	00		 mov	 DWORD PTR [esi+2604], ebx
  0008a	e8 00 00 00 00	 call	 ??1ccddaabb@@UAE@XZ	; ccddaabb::~ccddaabb
  0008f	8d 8e 1c 0a 00
	00		 lea	 ecx, DWORD PTR [esi+2588]
  00095	c6 45 fc 08	 mov	 BYTE PTR __$EHRec$[ebp+8], 8
  00099	ff 15 00 00 00
	00		 call	 DWORD PTR __imp_??1ioHashString@@QAE@XZ
  0009f	bf 00 00 00 00	 mov	 edi, OFFSET ??_7?$CEncrypt@M@@6B@
  000a4	8d 8e e0 09 00
	00		 lea	 ecx, DWORD PTR [esi+2528]
  000aa	c6 45 fc 07	 mov	 BYTE PTR __$EHRec$[ebp+8], 7
  000ae	89 be d4 09 00
	00		 mov	 DWORD PTR [esi+2516], edi
  000b4	e8 00 00 00 00	 call	 ??1ccddaabb@@UAE@XZ	; ccddaabb::~ccddaabb
  000b9	8d 8e b0 09 00
	00		 lea	 ecx, DWORD PTR [esi+2480]
  000bf	c6 45 fc 06	 mov	 BYTE PTR __$EHRec$[ebp+8], 6
  000c3	89 be a4 09 00
	00		 mov	 DWORD PTR [esi+2468], edi
  000c9	e8 00 00 00 00	 call	 ??1ccddaabb@@UAE@XZ	; ccddaabb::~ccddaabb
  000ce	8d 8e 80 09 00
	00		 lea	 ecx, DWORD PTR [esi+2432]
  000d4	c6 45 fc 05	 mov	 BYTE PTR __$EHRec$[ebp+8], 5
  000d8	89 be 74 09 00
	00		 mov	 DWORD PTR [esi+2420], edi
  000de	e8 00 00 00 00	 call	 ??1ccddaabb@@UAE@XZ	; ccddaabb::~ccddaabb
  000e3	8d 8e 50 09 00
	00		 lea	 ecx, DWORD PTR [esi+2384]
  000e9	c6 45 fc 04	 mov	 BYTE PTR __$EHRec$[ebp+8], 4
  000ed	89 be 44 09 00
	00		 mov	 DWORD PTR [esi+2372], edi
  000f3	e8 00 00 00 00	 call	 ??1ccddaabb@@UAE@XZ	; ccddaabb::~ccddaabb
  000f8	8d 8e 20 09 00
	00		 lea	 ecx, DWORD PTR [esi+2336]
  000fe	c6 45 fc 03	 mov	 BYTE PTR __$EHRec$[ebp+8], 3
  00102	89 9e 14 09 00
	00		 mov	 DWORD PTR [esi+2324], ebx
  00108	e8 00 00 00 00	 call	 ??1ccddaabb@@UAE@XZ	; ccddaabb::~ccddaabb
  0010d	8d 8e f0 08 00
	00		 lea	 ecx, DWORD PTR [esi+2288]
  00113	c6 45 fc 02	 mov	 BYTE PTR __$EHRec$[ebp+8], 2
  00117	89 be e4 08 00
	00		 mov	 DWORD PTR [esi+2276], edi
  0011d	e8 00 00 00 00	 call	 ??1ccddaabb@@UAE@XZ	; ccddaabb::~ccddaabb
  00122	8d 8e c0 08 00
	00		 lea	 ecx, DWORD PTR [esi+2240]
  00128	c6 45 fc 01	 mov	 BYTE PTR __$EHRec$[ebp+8], 1
  0012c	89 be b4 08 00
	00		 mov	 DWORD PTR [esi+2228], edi
  00132	e8 00 00 00 00	 call	 ??1ccddaabb@@UAE@XZ	; ccddaabb::~ccddaabb
  00137	8d 8e 98 08 00
	00		 lea	 ecx, DWORD PTR [esi+2200]
  0013d	c6 45 fc 00	 mov	 BYTE PTR __$EHRec$[ebp+8], 0
  00141	e8 00 00 00 00	 call	 ?_Tidy@?$vector@UChangeDirInfo@@V?$allocator@UChangeDirInfo@@@std@@@std@@IAEXXZ ; std::vector<ChangeDirInfo,std::allocator<ChangeDirInfo> >::_Tidy
  00146	83 4d fc ff	 or	 DWORD PTR __$EHRec$[ebp+8], -1
  0014a	8b ce		 mov	 ecx, esi
  0014c	e8 00 00 00 00	 call	 ??1ioWeapon@@UAE@XZ	; ioWeapon::~ioWeapon
  00151	e8 00 00 00 00	 call	 __EH_epilog3
  00156	c3		 ret	 0
_TEXT	ENDS
;	COMDAT text$x
text$x	SEGMENT
__unwindfunclet$??1ioAttachWeapon@@UAE@XZ$0:
  00000	8b 4d f0	 mov	 ecx, DWORD PTR _this$[ebp]
  00003	e9 00 00 00 00	 jmp	 ??1ioWeapon@@UAE@XZ	; ioWeapon::~ioWeapon
__unwindfunclet$??1ioAttachWeapon@@UAE@XZ$1:
  00008	8b 4d f0	 mov	 ecx, DWORD PTR _this$[ebp]
  0000b	81 c1 98 08 00
	00		 add	 ecx, 2200		; 00000898H
  00011	e9 00 00 00 00	 jmp	 ??1?$vector@UChangeDirInfo@@V?$allocator@UChangeDirInfo@@@std@@@std@@QAE@XZ ; std::vector<ChangeDirInfo,std::allocator<ChangeDirInfo> >::~vector<ChangeDirInfo,std::allocator<ChangeDirInfo> >
__unwindfunclet$??1ioAttachWeapon@@UAE@XZ$2:
  00016	8b 4d f0	 mov	 ecx, DWORD PTR _this$[ebp]
  00019	81 c1 b4 08 00
	00		 add	 ecx, 2228		; 000008b4H
  0001f	e9 00 00 00 00	 jmp	 ??1?$CEncrypt@M@@UAE@XZ	; CEncrypt<float>::~CEncrypt<float>
__unwindfunclet$??1ioAttachWeapon@@UAE@XZ$3:
  00024	8b 4d f0	 mov	 ecx, DWORD PTR _this$[ebp]
  00027	81 c1 e4 08 00
	00		 add	 ecx, 2276		; 000008e4H
  0002d	e9 00 00 00 00	 jmp	 ??1?$CEncrypt@M@@UAE@XZ	; CEncrypt<float>::~CEncrypt<float>
__unwindfunclet$??1ioAttachWeapon@@UAE@XZ$4:
  00032	8b 4d f0	 mov	 ecx, DWORD PTR _this$[ebp]
  00035	81 c1 14 09 00
	00		 add	 ecx, 2324		; 00000914H
  0003b	e9 00 00 00 00	 jmp	 ??1?$CEncrypt@K@@UAE@XZ	; CEncrypt<unsigned long>::~CEncrypt<unsigned long>
__unwindfunclet$??1ioAttachWeapon@@UAE@XZ$5:
  00040	8b 4d f0	 mov	 ecx, DWORD PTR _this$[ebp]
  00043	81 c1 44 09 00
	00		 add	 ecx, 2372		; 00000944H
  00049	e9 00 00 00 00	 jmp	 ??1?$CEncrypt@M@@UAE@XZ	; CEncrypt<float>::~CEncrypt<float>
__unwindfunclet$??1ioAttachWeapon@@UAE@XZ$6:
  0004e	8b 4d f0	 mov	 ecx, DWORD PTR _this$[ebp]
  00051	81 c1 74 09 00
	00		 add	 ecx, 2420		; 00000974H
  00057	e9 00 00 00 00	 jmp	 ??1?$CEncrypt@M@@UAE@XZ	; CEncrypt<float>::~CEncrypt<float>
__unwindfunclet$??1ioAttachWeapon@@UAE@XZ$7:
  0005c	8b 4d f0	 mov	 ecx, DWORD PTR _this$[ebp]
  0005f	81 c1 a4 09 00
	00		 add	 ecx, 2468		; 000009a4H
  00065	e9 00 00 00 00	 jmp	 ??1?$CEncrypt@M@@UAE@XZ	; CEncrypt<float>::~CEncrypt<float>
__unwindfunclet$??1ioAttachWeapon@@UAE@XZ$8:
  0006a	8b 4d f0	 mov	 ecx, DWORD PTR _this$[ebp]
  0006d	81 c1 d4 09 00
	00		 add	 ecx, 2516		; 000009d4H
  00073	e9 00 00 00 00	 jmp	 ??1?$CEncrypt@M@@UAE@XZ	; CEncrypt<float>::~CEncrypt<float>
__unwindfunclet$??1ioAttachWeapon@@UAE@XZ$9:
  00078	8b 4d f0	 mov	 ecx, DWORD PTR _this$[ebp]
  0007b	81 c1 1c 0a 00
	00		 add	 ecx, 2588		; 00000a1cH
  00081	ff 25 00 00 00
	00		 jmp	 DWORD PTR __imp_??1ioHashString@@QAE@XZ
__unwindfunclet$??1ioAttachWeapon@@UAE@XZ$10:
  00087	8b 4d f0	 mov	 ecx, DWORD PTR _this$[ebp]
  0008a	81 c1 2c 0a 00
	00		 add	 ecx, 2604		; 00000a2cH
  00090	e9 00 00 00 00	 jmp	 ??1?$CEncrypt@K@@UAE@XZ	; CEncrypt<unsigned long>::~CEncrypt<unsigned long>
__unwindfunclet$??1ioAttachWeapon@@UAE@XZ$11:
  00095	8b 4d f0	 mov	 ecx, DWORD PTR _this$[ebp]
  00098	81 c1 64 0a 00
	00		 add	 ecx, 2660		; 00000a64H
  0009e	ff 25 00 00 00
	00		 jmp	 DWORD PTR __imp_??1ioOrientBox@@QAE@XZ
__unwindfunclet$??1ioAttachWeapon@@UAE@XZ$12:
  000a4	8b 4d f0	 mov	 ecx, DWORD PTR _this$[ebp]
  000a7	81 c1 a8 0a 00
	00		 add	 ecx, 2728		; 00000aa8H
  000ad	e9 00 00 00 00	 jmp	 ??1?$CEncrypt@_N@@UAE@XZ ; CEncrypt<bool>::~CEncrypt<bool>
__unwindfunclet$??1ioAttachWeapon@@UAE@XZ$13:
  000b2	8b 4d f0	 mov	 ecx, DWORD PTR _this$[ebp]
  000b5	81 c1 e4 0a 00
	00		 add	 ecx, 2788		; 00000ae4H
  000bb	e9 00 00 00 00	 jmp	 ??1?$vector@VioHashString@@V?$allocator@VioHashString@@@std@@@std@@QAE@XZ ; std::vector<ioHashString,std::allocator<ioHashString> >::~vector<ioHashString,std::allocator<ioHashString> >
__ehhandler$??1ioAttachWeapon@@UAE@XZ:
  000c0	8b 54 24 08	 mov	 edx, DWORD PTR [esp+8]
  000c4	8d 42 0c	 lea	 eax, DWORD PTR [edx+12]
  000c7	8b 4a ec	 mov	 ecx, DWORD PTR [edx-20]
  000ca	33 c8		 xor	 ecx, eax
  000cc	e8 00 00 00 00	 call	 @__security_check_cookie@4
  000d1	b8 00 00 00 00	 mov	 eax, OFFSET __ehfuncinfo$??1ioAttachWeapon@@UAE@XZ
  000d6	e9 00 00 00 00	 jmp	 ___CxxFrameHandler3
text$x	ENDS
??1ioAttachWeapon@@UAE@XZ ENDP				; ioAttachWeapon::~ioAttachWeapon
PUBLIC	_rkLoader$GSCopy$
PUBLIC	__$ArrayPad$
EXTRN	__imp__wsprintfA:PROC
EXTRN	?LoadProperty@ioWeapon@@UAEXAAVioINILoader@@@Z:PROC ; ioWeapon::LoadProperty
EXTRN	_memset:PROC
; Function compile flags: /Ogsp
;	COMDAT ?LoadProperty@ioAttachWeapon@@UAEXAAVioINILoader@@@Z
_TEXT	SEGMENT
tv3149 = -344						; size = 4
tv15973 = -340						; size = 4
_value$540839 = -333					; size = 1
_rkLoader$GSCopy$ = -332				; size = 4
tv15892 = -328						; size = 4
tv15888 = -328						; size = 4
tv15884 = -328						; size = 4
tv13531 = -328						; size = 4
$T539535 = -328						; size = 1
_value$540709 = -328					; size = 4
_value$540578 = -328					; size = 4
_value$540440 = -328					; size = 4
_value$540311 = -328					; size = 4
_value$540181 = -328					; size = 4
_value$540051 = -328					; size = 4
_value$539921 = -328					; size = 4
_value$539791 = -328					; size = 4
_szBuf$ = -324						; size = 260
__k$540603 = -64					; size = 27
_kInfo$530958 = -64					; size = 28
__k$540726 = -32					; size = 20
__k$540466 = -32					; size = 22
__k$540068 = -32					; size = 19
__k$541231 = -28					; size = 15
__k$541106 = -28					; size = 16
__k$540328 = -28					; size = 16
__k$540198 = -28					; size = 15
__k$539782 = -28					; size = 18
___encStr$531419 = -28					; size = 17
___encStr$531267 = -28					; size = 17
___encStr$531115 = -28					; size = 15
___encStr$530962 = -28					; size = 15
__k$540856 = -24					; size = 12
__k$539938 = -24					; size = 12
__k$539808 = -24					; size = 12
__k$540981 = -20					; size = 9
__k$539553 = -20					; size = 10
__$ArrayPad$ = -4					; size = 4
_rkLoader$ = 8						; size = 4
?LoadProperty@ioAttachWeapon@@UAEXAAVioINILoader@@@Z PROC ; ioAttachWeapon::LoadProperty, COMDAT
; _this$ = ecx

; 36   : {

  00000	55		 push	 ebp
  00001	8b ec		 mov	 ebp, esp
  00003	81 ec 58 01 00
	00		 sub	 esp, 344		; 00000158H
  00009	a1 00 00 00 00	 mov	 eax, DWORD PTR ___security_cookie
  0000e	33 c5		 xor	 eax, ebp
  00010	89 45 fc	 mov	 DWORD PTR __$ArrayPad$[ebp], eax
  00013	8b 45 08	 mov	 eax, DWORD PTR _rkLoader$[ebp]
  00016	53		 push	 ebx
  00017	56		 push	 esi
  00018	57		 push	 edi

; 37   : 	ioWeapon::LoadProperty( rkLoader );

  00019	50		 push	 eax
  0001a	8b d9		 mov	 ebx, ecx

; 84   : 	}
; 85   : 
; 86   : 	std::sort( m_ChangeDirInfoList.begin(), m_ChangeDirInfoList.end(), ChangeDirSort() );

  0001c	89 85 b4 fe ff
	ff		 mov	 DWORD PTR _rkLoader$GSCopy$[ebp], eax
  00022	e8 00 00 00 00	 call	 ?LoadProperty@ioWeapon@@UAEXAAVioINILoader@@@Z ; ioWeapon::LoadProperty
  00027	68 03 01 00 00	 push	 259			; 00000103H
  0002c	8d 85 bd fe ff
	ff		 lea	 eax, DWORD PTR _szBuf$[ebp+1]
  00032	6a 00		 push	 0
  00034	50		 push	 eax
  00035	c6 85 bc fe ff
	ff 00		 mov	 BYTE PTR _szBuf$[ebp], 0
  0003c	e8 00 00 00 00	 call	 _memset
  00041	83 c4 0c	 add	 esp, 12			; 0000000cH
  00044	6a 02		 push	 2
  00046	c7 45 ec 81 85
	9d 8f		 mov	 DWORD PTR __k$539553[ebp], -1885502079 ; 8f9d8581H
  0004d	c7 45 f0 b2 98
	82 87		 mov	 DWORD PTR __k$539553[ebp+4], -2021484366 ; 878298b2H
  00054	8d 45 ec	 lea	 eax, DWORD PTR __k$539553[ebp]
  00057	66 c7 45 f4 88
	00		 mov	 WORD PTR __k$539553[ebp+8], 136 ; 00000088H
  0005d	59		 pop	 ecx
  0005e	be ed ec eb ea	 mov	 esi, -353637139		; eaebecedH
$LL506@LoadProper:

; 38   : 
; 39   : 	char szBuf[MAX_PATH] = "";
; 40   : 
; 41   : 	m_dwLiveTime = rkLoader.LoadInt_e( "live_time", 0 );

  00063	31 30		 xor	 DWORD PTR [eax], esi
  00065	83 c0 04	 add	 eax, 4
  00068	49		 dec	 ecx
  00069	75 f8		 jne	 SHORT $LL506@LoadProper
  0006b	8b 3d 00 00 00
	00		 mov	 edi, DWORD PTR __imp_?LoadInt@ioINILoader@@QAEHPBDH@Z
  00071	80 75 f4 ed	 xor	 BYTE PTR __k$539553[ebp+8], -19 ; ffffffedH
  00075	51		 push	 ecx
  00076	8b 8d b4 fe ff
	ff		 mov	 ecx, DWORD PTR _rkLoader$GSCopy$[ebp]
  0007c	8d 45 ec	 lea	 eax, DWORD PTR __k$539553[ebp]
  0007f	50		 push	 eax
  00080	ff d7		 call	 edi
  00082	6a 04		 push	 4
  00084	89 83 d8 04 00
	00		 mov	 DWORD PTR [ebx+1240], eax

; 42   : 
; 43   : 	// Tracing
; 44   : 	m_dwTraceEnableTime = rkLoader.LoadInt_e( "trace_enable_time", 0 );

  0008a	c7 45 e4 99 9e
	8a 89		 mov	 DWORD PTR __k$539782[ebp], -1987404135 ; 898a9e99H
  00091	c7 45 e8 88 b3
	8e 84		 mov	 DWORD PTR __k$539782[ebp+4], -2071022712 ; 848eb388H
  00098	c7 45 ec 8c 8e
	87 8f		 mov	 DWORD PTR __k$539782[ebp+8], -1886941556 ; 8f878e8cH
  0009f	c7 45 f0 b2 98
	82 87		 mov	 DWORD PTR __k$539782[ebp+12], -2021484366 ; 878298b2H
  000a6	8d 45 e4	 lea	 eax, DWORD PTR __k$539782[ebp]
  000a9	66 c7 45 f4 88
	00		 mov	 WORD PTR __k$539782[ebp+16], 136 ; 00000088H
  000af	59		 pop	 ecx
$LL612@LoadProper:
  000b0	31 30		 xor	 DWORD PTR [eax], esi
  000b2	83 c0 04	 add	 eax, 4
  000b5	49		 dec	 ecx
  000b6	75 f8		 jne	 SHORT $LL612@LoadProper
  000b8	80 75 f4 ed	 xor	 BYTE PTR __k$539782[ebp+16], -19 ; ffffffedH
  000bc	51		 push	 ecx
  000bd	8b 8d b4 fe ff
	ff		 mov	 ecx, DWORD PTR _rkLoader$GSCopy$[ebp]
  000c3	8d 45 e4	 lea	 eax, DWORD PTR __k$539782[ebp]
  000c6	50		 push	 eax
  000c7	ff d7		 call	 edi
  000c9	89 85 b8 fe ff
	ff		 mov	 DWORD PTR _value$539791[ebp], eax
  000cf	8d 85 b8 fe ff
	ff		 lea	 eax, DWORD PTR _value$539791[ebp]
  000d5	50		 push	 eax
  000d6	8d 8b 14 09 00
	00		 lea	 ecx, DWORD PTR [ebx+2324]
  000dc	e8 00 00 00 00	 call	 ?EncryptValueToPool@?$CEncrypt@K@@AAEXPBD@Z ; CEncrypt<unsigned long>::EncryptValueToPool
  000e1	6a 02		 push	 2

; 45   : 
; 46   : 	m_fTraceSpeed = rkLoader.LoadFloat_e( "trace_speed", 0.0f );

  000e3	c7 45 e8 99 9e
	8a 89		 mov	 DWORD PTR __k$539808[ebp], -1987404135 ; 898a9e99H
  000ea	c7 45 ec 88 b3
	98 9a		 mov	 DWORD PTR __k$539808[ebp+4], -1701268600 ; 9a98b388H
  000f1	8d 45 e8	 lea	 eax, DWORD PTR __k$539808[ebp]
  000f4	c7 45 f0 88 89
	8f 00		 mov	 DWORD PTR __k$539808[ebp+8], 9406856 ; 008f8988H
  000fb	59		 pop	 ecx
$LL720@LoadProper:
  000fc	31 30		 xor	 DWORD PTR [eax], esi
  000fe	83 c0 04	 add	 eax, 4
  00101	49		 dec	 ecx
  00102	75 f8		 jne	 SHORT $LL720@LoadProper
  00104	6a 08		 push	 8
  00106	58		 pop	 eax
$LL717@LoadProper:
  00107	8b c8		 mov	 ecx, eax
  00109	81 e1 03 00 00
	80		 and	 ecx, -2147483645	; 80000003H
  0010f	79 05		 jns	 SHORT $LN2035@LoadProper
  00111	49		 dec	 ecx
  00112	83 c9 fc	 or	 ecx, -4			; fffffffcH
  00115	41		 inc	 ecx
$LN2035@LoadProper:
  00116	b2 ed		 mov	 dl, -19			; ffffffedH
  00118	2a d1		 sub	 dl, cl
  0011a	30 54 05 e8	 xor	 BYTE PTR __k$539808[ebp+eax], dl
  0011e	40		 inc	 eax
  0011f	83 f8 0b	 cmp	 eax, 11			; 0000000bH
  00122	7c e3		 jl	 SHORT $LL717@LoadProper
  00124	0f 57 c0	 xorps	 xmm0, xmm0
  00127	51		 push	 ecx
  00128	8b 8d b4 fe ff
	ff		 mov	 ecx, DWORD PTR _rkLoader$GSCopy$[ebp]
  0012e	8d 45 e8	 lea	 eax, DWORD PTR __k$539808[ebp]
  00131	f3 0f 11 04 24	 movss	 DWORD PTR [esp], xmm0
  00136	50		 push	 eax
  00137	ff 15 00 00 00
	00		 call	 DWORD PTR __imp_?LoadFloat@ioINILoader@@QAEMPBDM@Z
  0013d	d9 9d b8 fe ff
	ff		 fstp	 DWORD PTR _value$539921[ebp]
  00143	8d 85 b8 fe ff
	ff		 lea	 eax, DWORD PTR _value$539921[ebp]
  00149	50		 push	 eax
  0014a	8d 8b 44 09 00
	00		 lea	 ecx, DWORD PTR [ebx+2372]
  00150	e8 00 00 00 00	 call	 ?EncryptValueToPool@?$CEncrypt@M@@AAEXPBD@Z ; CEncrypt<float>::EncryptValueToPool
  00155	6a 02		 push	 2

; 47   : 	m_fTraceRange = rkLoader.LoadFloat_e( "trace_range", 0.0f );

  00157	c7 45 e8 99 9e
	8a 89		 mov	 DWORD PTR __k$539938[ebp], -1987404135 ; 898a9e99H
  0015e	c7 45 ec 88 b3
	99 8b		 mov	 DWORD PTR __k$539938[ebp+4], -1952861304 ; 8b99b388H
  00165	8d 45 e8	 lea	 eax, DWORD PTR __k$539938[ebp]
  00168	c7 45 f0 83 8b
	8e 00		 mov	 DWORD PTR __k$539938[ebp+8], 9341827 ; 008e8b83H
  0016f	59		 pop	 ecx
$LL828@LoadProper:
  00170	31 30		 xor	 DWORD PTR [eax], esi
  00172	83 c0 04	 add	 eax, 4
  00175	49		 dec	 ecx
  00176	75 f8		 jne	 SHORT $LL828@LoadProper
  00178	6a 08		 push	 8
  0017a	58		 pop	 eax
$LL825@LoadProper:
  0017b	8b c8		 mov	 ecx, eax
  0017d	81 e1 03 00 00
	80		 and	 ecx, -2147483645	; 80000003H
  00183	79 05		 jns	 SHORT $LN2036@LoadProper
  00185	49		 dec	 ecx
  00186	83 c9 fc	 or	 ecx, -4			; fffffffcH
  00189	41		 inc	 ecx
$LN2036@LoadProper:
  0018a	b2 ed		 mov	 dl, -19			; ffffffedH
  0018c	2a d1		 sub	 dl, cl
  0018e	30 54 05 e8	 xor	 BYTE PTR __k$539938[ebp+eax], dl
  00192	40		 inc	 eax
  00193	83 f8 0b	 cmp	 eax, 11			; 0000000bH
  00196	7c e3		 jl	 SHORT $LL825@LoadProper
  00198	0f 57 c0	 xorps	 xmm0, xmm0
  0019b	51		 push	 ecx
  0019c	8b 8d b4 fe ff
	ff		 mov	 ecx, DWORD PTR _rkLoader$GSCopy$[ebp]
  001a2	8d 45 e8	 lea	 eax, DWORD PTR __k$539938[ebp]
  001a5	f3 0f 11 04 24	 movss	 DWORD PTR [esp], xmm0
  001aa	50		 push	 eax
  001ab	ff 15 00 00 00
	00		 call	 DWORD PTR __imp_?LoadFloat@ioINILoader@@QAEMPBDM@Z
  001b1	d9 9d b8 fe ff
	ff		 fstp	 DWORD PTR _value$540051[ebp]
  001b7	8d 85 b8 fe ff
	ff		 lea	 eax, DWORD PTR _value$540051[ebp]
  001bd	50		 push	 eax
  001be	8d 8b 74 09 00
	00		 lea	 ecx, DWORD PTR [ebx+2420]
  001c4	e8 00 00 00 00	 call	 ?EncryptValueToPool@?$CEncrypt@M@@AAEXPBD@Z ; CEncrypt<float>::EncryptValueToPool
  001c9	6a 04		 push	 4

; 48   : 	m_fTraceRotSpeed = rkLoader.LoadFloat_e( "trace_rotate_speed", 0.0f );

  001cb	c7 45 e0 99 9e
	8a 89		 mov	 DWORD PTR __k$540068[ebp], -1987404135 ; 898a9e99H
  001d2	c7 45 e4 88 b3
	99 85		 mov	 DWORD PTR __k$540068[ebp+4], -2053524600 ; 8599b388H
  001d9	c7 45 e8 99 8d
	9f 8f		 mov	 DWORD PTR __k$540068[ebp+8], -1885368935 ; 8f9f8d99H
  001e0	c7 45 ec b2 9f
	9b 8f		 mov	 DWORD PTR __k$540068[ebp+12], -1885626446 ; 8f9b9fb2H
  001e7	66 c7 45 f0 88
	88		 mov	 WORD PTR __k$540068[ebp+16], 34952 ; 00008888H
  001ed	8d 45 e0	 lea	 eax, DWORD PTR __k$540068[ebp]
  001f0	c6 45 f2 00	 mov	 BYTE PTR __k$540068[ebp+18], 0
  001f4	59		 pop	 ecx
$LL936@LoadProper:
  001f5	31 30		 xor	 DWORD PTR [eax], esi
  001f7	83 c0 04	 add	 eax, 4
  001fa	49		 dec	 ecx
  001fb	75 f8		 jne	 SHORT $LL936@LoadProper
  001fd	6a 10		 push	 16			; 00000010H
  001ff	58		 pop	 eax
$LL933@LoadProper:
  00200	8b c8		 mov	 ecx, eax
  00202	81 e1 03 00 00
	80		 and	 ecx, -2147483645	; 80000003H
  00208	79 05		 jns	 SHORT $LN2037@LoadProper
  0020a	49		 dec	 ecx
  0020b	83 c9 fc	 or	 ecx, -4			; fffffffcH
  0020e	41		 inc	 ecx
$LN2037@LoadProper:
  0020f	b2 ed		 mov	 dl, -19			; ffffffedH
  00211	2a d1		 sub	 dl, cl
  00213	30 54 05 e0	 xor	 BYTE PTR __k$540068[ebp+eax], dl
  00217	40		 inc	 eax
  00218	83 f8 12	 cmp	 eax, 18			; 00000012H
  0021b	7c e3		 jl	 SHORT $LL933@LoadProper
  0021d	0f 57 c0	 xorps	 xmm0, xmm0
  00220	51		 push	 ecx
  00221	8b 8d b4 fe ff
	ff		 mov	 ecx, DWORD PTR _rkLoader$GSCopy$[ebp]
  00227	8d 45 e0	 lea	 eax, DWORD PTR __k$540068[ebp]
  0022a	f3 0f 11 04 24	 movss	 DWORD PTR [esp], xmm0
  0022f	50		 push	 eax
  00230	ff 15 00 00 00
	00		 call	 DWORD PTR __imp_?LoadFloat@ioINILoader@@QAEMPBDM@Z
  00236	d9 9d b8 fe ff
	ff		 fstp	 DWORD PTR _value$540181[ebp]
  0023c	8d 85 b8 fe ff
	ff		 lea	 eax, DWORD PTR _value$540181[ebp]
  00242	50		 push	 eax
  00243	8d 8b a4 09 00
	00		 lea	 ecx, DWORD PTR [ebx+2468]
  00249	e8 00 00 00 00	 call	 ?EncryptValueToPool@?$CEncrypt@M@@AAEXPBD@Z ; CEncrypt<float>::EncryptValueToPool
  0024e	6a 03		 push	 3

; 49   : 	m_dwTraceDuration = (DWORD)rkLoader.LoadInt_e( "trace_duration", 0 );

  00250	c7 45 e4 99 9e
	8a 89		 mov	 DWORD PTR __k$540198[ebp], -1987404135 ; 898a9e99H
  00257	c7 45 e8 88 b3
	8f 9f		 mov	 DWORD PTR __k$540198[ebp+4], -1617972344 ; 9f8fb388H
  0025e	c7 45 ec 9f 8d
	9f 83		 mov	 DWORD PTR __k$540198[ebp+8], -2086695521 ; 839f8d9fH
  00265	66 c7 45 f0 82
	82		 mov	 WORD PTR __k$540198[ebp+12], 33410 ; 00008282H
  0026b	8d 45 e4	 lea	 eax, DWORD PTR __k$540198[ebp]
  0026e	c6 45 f2 00	 mov	 BYTE PTR __k$540198[ebp+14], 0
  00272	59		 pop	 ecx
$LL1044@LoadProper:
  00273	31 30		 xor	 DWORD PTR [eax], esi
  00275	83 c0 04	 add	 eax, 4
  00278	49		 dec	 ecx
  00279	75 f8		 jne	 SHORT $LL1044@LoadProper
  0027b	6a 0c		 push	 12			; 0000000cH
  0027d	58		 pop	 eax
$LL1041@LoadProper:
  0027e	8b c8		 mov	 ecx, eax
  00280	81 e1 03 00 00
	80		 and	 ecx, -2147483645	; 80000003H
  00286	79 05		 jns	 SHORT $LN2038@LoadProper
  00288	49		 dec	 ecx
  00289	83 c9 fc	 or	 ecx, -4			; fffffffcH
  0028c	41		 inc	 ecx
$LN2038@LoadProper:
  0028d	b2 ed		 mov	 dl, -19			; ffffffedH
  0028f	2a d1		 sub	 dl, cl
  00291	30 54 05 e4	 xor	 BYTE PTR __k$540198[ebp+eax], dl
  00295	40		 inc	 eax
  00296	83 f8 0e	 cmp	 eax, 14			; 0000000eH
  00299	7c e3		 jl	 SHORT $LL1041@LoadProper
  0029b	8b 8d b4 fe ff
	ff		 mov	 ecx, DWORD PTR _rkLoader$GSCopy$[ebp]
  002a1	6a 00		 push	 0
  002a3	8d 45 e4	 lea	 eax, DWORD PTR __k$540198[ebp]
  002a6	50		 push	 eax
  002a7	ff d7		 call	 edi
  002a9	89 85 b8 fe ff
	ff		 mov	 DWORD PTR _value$540311[ebp], eax
  002af	8d 85 b8 fe ff
	ff		 lea	 eax, DWORD PTR _value$540311[ebp]
  002b5	50		 push	 eax
  002b6	8d 8b 2c 0a 00
	00		 lea	 ecx, DWORD PTR [ebx+2604]
  002bc	e8 00 00 00 00	 call	 ?EncryptValueToPool@?$CEncrypt@K@@AAEXPBD@Z ; CEncrypt<unsigned long>::EncryptValueToPool
  002c1	6a 03		 push	 3

; 50   : 	m_fTraceEndRange = rkLoader.LoadFloat_e( "trace_end_range", 0.0f );

  002c3	c7 45 e4 99 9e
	8a 89		 mov	 DWORD PTR __k$540328[ebp], -1987404135 ; 898a9e99H
  002ca	c7 45 e8 88 b3
	8e 84		 mov	 DWORD PTR __k$540328[ebp+4], -2071022712 ; 848eb388H
  002d1	c7 45 ec 89 b3
	99 8b		 mov	 DWORD PTR __k$540328[ebp+8], -1952861303 ; 8b99b389H
  002d8	8d 45 e4	 lea	 eax, DWORD PTR __k$540328[ebp]
  002db	c7 45 f0 83 8b
	8e 00		 mov	 DWORD PTR __k$540328[ebp+12], 9341827 ; 008e8b83H
  002e2	59		 pop	 ecx
$LL1152@LoadProper:
  002e3	31 30		 xor	 DWORD PTR [eax], esi
  002e5	83 c0 04	 add	 eax, 4
  002e8	49		 dec	 ecx
  002e9	75 f8		 jne	 SHORT $LL1152@LoadProper
  002eb	6a 0c		 push	 12			; 0000000cH
  002ed	5f		 pop	 edi
$LL1149@LoadProper:
  002ee	8b c7		 mov	 eax, edi
  002f0	25 03 00 00 80	 and	 eax, -2147483645	; 80000003H
  002f5	79 05		 jns	 SHORT $LN2039@LoadProper
  002f7	48		 dec	 eax
  002f8	83 c8 fc	 or	 eax, -4			; fffffffcH
  002fb	40		 inc	 eax
$LN2039@LoadProper:
  002fc	b1 ed		 mov	 cl, -19			; ffffffedH
  002fe	2a c8		 sub	 cl, al
  00300	30 4c 3d e4	 xor	 BYTE PTR __k$540328[ebp+edi], cl
  00304	47		 inc	 edi
  00305	83 ff 0f	 cmp	 edi, 15			; 0000000fH
  00308	7c e4		 jl	 SHORT $LL1149@LoadProper
  0030a	0f 57 c0	 xorps	 xmm0, xmm0
  0030d	51		 push	 ecx
  0030e	8b 8d b4 fe ff
	ff		 mov	 ecx, DWORD PTR _rkLoader$GSCopy$[ebp]
  00314	8d 45 e4	 lea	 eax, DWORD PTR __k$540328[ebp]
  00317	f3 0f 11 04 24	 movss	 DWORD PTR [esp], xmm0
  0031c	50		 push	 eax
  0031d	ff 15 00 00 00
	00		 call	 DWORD PTR __imp_?LoadFloat@ioINILoader@@QAEMPBDM@Z
  00323	d9 9d b8 fe ff
	ff		 fstp	 DWORD PTR _value$540440[ebp]
  00329	8d 85 b8 fe ff
	ff		 lea	 eax, DWORD PTR _value$540440[ebp]
  0032f	50		 push	 eax
  00330	8d 8b d4 09 00
	00		 lea	 ecx, DWORD PTR [ebx+2516]
  00336	e8 00 00 00 00	 call	 ?EncryptValueToPool@?$CEncrypt@M@@AAEXPBD@Z ; CEncrypt<float>::EncryptValueToPool

; 51   : 
; 52   : 	m_fTargetTracePosRate = rkLoader.LoadFloat_e( "target_trace_pos_rate", FLOAT05 );

  0033b	b8 05 00 00 00	 mov	 eax, 5
  00340	8b d0		 mov	 edx, eax
  00342	b8 0a 00 00 00	 mov	 eax, 10			; 0000000aH
  00347	6a 05		 push	 5
  00349	8b f8		 mov	 edi, eax
  0034b	c7 45 e0 99 8d
	99 8d		 mov	 DWORD PTR __k$540466[ebp], -1919316583 ; 8d998d99H
  00352	c7 45 e4 88 98
	b4 9e		 mov	 DWORD PTR __k$540466[ebp+4], -1632331640 ; 9eb49888H
  00359	c7 45 e8 9f 8d
	88 8f		 mov	 DWORD PTR __k$540466[ebp+8], -1886876257 ; 8f888d9fH
  00360	c7 45 ec b2 9c
	84 99		 mov	 DWORD PTR __k$540466[ebp+12], -1719362382 ; 99849cb2H
  00367	c7 45 f0 b2 9e
	8a 9e		 mov	 DWORD PTR __k$540466[ebp+16], -1635082574 ; 9e8a9eb2H
  0036e	8d 4d e0	 lea	 ecx, DWORD PTR __k$540466[ebp]
  00371	66 c7 45 f4 88
	00		 mov	 WORD PTR __k$540466[ebp+20], 136 ; 00000088H
  00377	58		 pop	 eax
$LL1264@LoadProper:
  00378	31 31		 xor	 DWORD PTR [ecx], esi
  0037a	83 c1 04	 add	 ecx, 4
  0037d	48		 dec	 eax
  0037e	75 f8		 jne	 SHORT $LL1264@LoadProper
  00380	80 75 f4 ed	 xor	 BYTE PTR __k$540466[ebp+20], -19 ; ffffffedH
  00384	89 95 b8 fe ff
	ff		 mov	 DWORD PTR tv15892[ebp], edx
  0038a	db 85 b8 fe ff
	ff		 fild	 DWORD PTR tv15892[ebp]
  00390	85 d2		 test	 edx, edx
  00392	79 06		 jns	 SHORT $LN2040@LoadProper
  00394	d8 05 00 00 00
	00		 fadd	 DWORD PTR __real@4f800000
$LN2040@LoadProper:
  0039a	89 bd b8 fe ff
	ff		 mov	 DWORD PTR tv15888[ebp], edi
  003a0	db 85 b8 fe ff
	ff		 fild	 DWORD PTR tv15888[ebp]
  003a6	85 ff		 test	 edi, edi
  003a8	79 06		 jns	 SHORT $LN2041@LoadProper
  003aa	d8 05 00 00 00
	00		 fadd	 DWORD PTR __real@4f800000
$LN2041@LoadProper:
  003b0	de f9		 fdivp	 ST(1), ST(0)
  003b2	51		 push	 ecx
  003b3	8b 8d b4 fe ff
	ff		 mov	 ecx, DWORD PTR _rkLoader$GSCopy$[ebp]
  003b9	8d 45 e0	 lea	 eax, DWORD PTR __k$540466[ebp]
  003bc	d9 9d b8 fe ff
	ff		 fstp	 DWORD PTR tv15884[ebp]
  003c2	d9 85 b8 fe ff
	ff		 fld	 DWORD PTR tv15884[ebp]
  003c8	d9 1c 24	 fstp	 DWORD PTR [esp]
  003cb	50		 push	 eax
  003cc	ff 15 00 00 00
	00		 call	 DWORD PTR __imp_?LoadFloat@ioINILoader@@QAEMPBDM@Z
  003d2	d9 9d b8 fe ff
	ff		 fstp	 DWORD PTR _value$540578[ebp]
  003d8	8d 85 b8 fe ff
	ff		 lea	 eax, DWORD PTR _value$540578[ebp]
  003de	50		 push	 eax
  003df	8d 8b b4 08 00
	00		 lea	 ecx, DWORD PTR [ebx+2228]
  003e5	e8 00 00 00 00	 call	 ?EncryptValueToPool@?$CEncrypt@M@@AAEXPBD@Z ; CEncrypt<float>::EncryptValueToPool
  003ea	6a 06		 push	 6

; 53   : 	m_fDownTargetTracePosRate = rkLoader.LoadFloat_e( "down_target_trace_pos_rate", 0.0f );

  003ec	c7 45 c0 89 83
	9c 84		 mov	 DWORD PTR __k$540603[ebp], -2070117495 ; 849c8389H
  003f3	c7 45 c4 b2 98
	8a 98		 mov	 DWORD PTR __k$540603[ebp+4], -1735747406 ; 988a98b2H
  003fa	c7 45 c8 8a 89
	9f b5		 mov	 DWORD PTR __k$540603[ebp+8], -1247835766 ; b59f898aH
  00401	c7 45 cc 99 9e
	8a 89		 mov	 DWORD PTR __k$540603[ebp+12], -1987404135 ; 898a9e99H
  00408	c7 45 d0 88 b3
	9b 85		 mov	 DWORD PTR __k$540603[ebp+16], -2053393528 ; 859bb388H
  0040f	c7 45 d4 9e b3
	99 8b		 mov	 DWORD PTR __k$540603[ebp+20], -1952861282 ; 8b99b39eH
  00416	66 c7 45 d8 99
	89		 mov	 WORD PTR __k$540603[ebp+24], 35225 ; 00008999H
  0041c	8d 45 c0	 lea	 eax, DWORD PTR __k$540603[ebp]
  0041f	c6 45 da 00	 mov	 BYTE PTR __k$540603[ebp+26], 0
  00423	59		 pop	 ecx
$LL1372@LoadProper:
  00424	31 30		 xor	 DWORD PTR [eax], esi
  00426	83 c0 04	 add	 eax, 4
  00429	49		 dec	 ecx
  0042a	75 f8		 jne	 SHORT $LL1372@LoadProper
  0042c	6a 18		 push	 24			; 00000018H
  0042e	5f		 pop	 edi
$LL1369@LoadProper:
  0042f	8b c7		 mov	 eax, edi
  00431	25 03 00 00 80	 and	 eax, -2147483645	; 80000003H
  00436	79 05		 jns	 SHORT $LN2042@LoadProper
  00438	48		 dec	 eax
  00439	83 c8 fc	 or	 eax, -4			; fffffffcH
  0043c	40		 inc	 eax
$LN2042@LoadProper:
  0043d	b1 ed		 mov	 cl, -19			; ffffffedH
  0043f	2a c8		 sub	 cl, al
  00441	30 4c 3d c0	 xor	 BYTE PTR __k$540603[ebp+edi], cl
  00445	47		 inc	 edi
  00446	83 ff 1a	 cmp	 edi, 26			; 0000001aH
  00449	7c e4		 jl	 SHORT $LL1369@LoadProper
  0044b	0f 57 c0	 xorps	 xmm0, xmm0
  0044e	51		 push	 ecx
  0044f	8b 8d b4 fe ff
	ff		 mov	 ecx, DWORD PTR _rkLoader$GSCopy$[ebp]
  00455	8d 45 c0	 lea	 eax, DWORD PTR __k$540603[ebp]
  00458	f3 0f 11 04 24	 movss	 DWORD PTR [esp], xmm0
  0045d	50		 push	 eax
  0045e	ff 15 00 00 00
	00		 call	 DWORD PTR __imp_?LoadFloat@ioINILoader@@QAEMPBDM@Z
  00464	d9 9d b8 fe ff
	ff		 fstp	 DWORD PTR _value$540709[ebp]
  0046a	8d 85 b8 fe ff
	ff		 lea	 eax, DWORD PTR _value$540709[ebp]
  00470	50		 push	 eax
  00471	8d 8b e4 08 00
	00		 lea	 ecx, DWORD PTR [ebx+2276]
  00477	e8 00 00 00 00	 call	 ?EncryptValueToPool@?$CEncrypt@M@@AAEXPBD@Z ; CEncrypt<float>::EncryptValueToPool
  0047c	6a 04		 push	 4

; 54   : 
; 55   : 	m_bOnlyCharCollision	= rkLoader.LoadBool_e( "only_char_collision", false );

  0047e	c7 45 e0 82 82
	87 93		 mov	 DWORD PTR __k$540726[ebp], -1819835774 ; 93878282H
  00485	c7 45 e4 b2 8f
	83 8b		 mov	 DWORD PTR __k$540726[ebp+4], -1954312270 ; 8b838fb2H
  0048c	c7 45 e8 9f b3
	88 85		 mov	 DWORD PTR __k$540726[ebp+8], -2054638689 ; 8588b39fH
  00493	c7 45 ec 81 80
	82 99		 mov	 DWORD PTR __k$540726[ebp+12], -1719500671 ; 99828081H
  0049a	8d 45 e0	 lea	 eax, DWORD PTR __k$540726[ebp]
  0049d	c7 45 f0 84 83
	85 00		 mov	 DWORD PTR __k$540726[ebp+16], 8749956 ; 00858384H
  004a4	59		 pop	 ecx
$LL1480@LoadProper:
  004a5	31 30		 xor	 DWORD PTR [eax], esi
  004a7	83 c0 04	 add	 eax, 4
  004aa	49		 dec	 ecx
  004ab	75 f8		 jne	 SHORT $LL1480@LoadProper
  004ad	6a 10		 push	 16			; 00000010H
  004af	5f		 pop	 edi
$LL1477@LoadProper:
  004b0	8b c7		 mov	 eax, edi
  004b2	25 03 00 00 80	 and	 eax, -2147483645	; 80000003H
  004b7	79 05		 jns	 SHORT $LN2043@LoadProper
  004b9	48		 dec	 eax
  004ba	83 c8 fc	 or	 eax, -4			; fffffffcH
  004bd	40		 inc	 eax
$LN2043@LoadProper:
  004be	b1 ed		 mov	 cl, -19			; ffffffedH
  004c0	2a c8		 sub	 cl, al
  004c2	30 4c 3d e0	 xor	 BYTE PTR __k$540726[ebp+edi], cl
  004c6	47		 inc	 edi
  004c7	83 ff 13	 cmp	 edi, 19			; 00000013H
  004ca	7c e4		 jl	 SHORT $LL1477@LoadProper
  004cc	8b 8d b4 fe ff
	ff		 mov	 ecx, DWORD PTR _rkLoader$GSCopy$[ebp]
  004d2	6a 00		 push	 0
  004d4	8d 45 e0	 lea	 eax, DWORD PTR __k$540726[ebp]
  004d7	50		 push	 eax
  004d8	ff 15 00 00 00
	00		 call	 DWORD PTR __imp_?LoadBool@ioINILoader@@QAE_NPBD_N@Z
  004de	88 85 b3 fe ff
	ff		 mov	 BYTE PTR _value$540839[ebp], al
  004e4	8d 85 b3 fe ff
	ff		 lea	 eax, DWORD PTR _value$540839[ebp]
  004ea	50		 push	 eax
  004eb	8d 8b a8 0a 00
	00		 lea	 ecx, DWORD PTR [ebx+2728]
  004f1	e8 00 00 00 00	 call	 ?EncryptValueToPool@?$CEncrypt@_N@@AAEXPBD@Z ; CEncrypt<bool>::EncryptValueToPool
  004f6	6a 02		 push	 2

; 56   : 
; 57   : 	m_fOff_Look = rkLoader.LoadFloat_e("look_offset", 0.0f );

  004f8	c7 45 e8 81 83
	84 81		 mov	 DWORD PTR __k$540856[ebp], -2122022015 ; 81848381H
  004ff	c7 45 ec b2 83
	8d 8c		 mov	 DWORD PTR __k$540856[ebp+4], -1936882766 ; 8c8d83b2H
  00506	8d 45 e8	 lea	 eax, DWORD PTR __k$540856[ebp]
  00509	c7 45 f0 9e 89
	9f 00		 mov	 DWORD PTR __k$540856[ebp+8], 10455454 ; 009f899eH
  00510	59		 pop	 ecx
$LL1588@LoadProper:
  00511	31 30		 xor	 DWORD PTR [eax], esi
  00513	83 c0 04	 add	 eax, 4
  00516	49		 dec	 ecx
  00517	75 f8		 jne	 SHORT $LL1588@LoadProper
  00519	6a 08		 push	 8
  0051b	5f		 pop	 edi
$LL1585@LoadProper:
  0051c	8b c7		 mov	 eax, edi
  0051e	25 03 00 00 80	 and	 eax, -2147483645	; 80000003H
  00523	79 05		 jns	 SHORT $LN2044@LoadProper
  00525	48		 dec	 eax
  00526	83 c8 fc	 or	 eax, -4			; fffffffcH
  00529	40		 inc	 eax
$LN2044@LoadProper:
  0052a	b1 ed		 mov	 cl, -19			; ffffffedH
  0052c	2a c8		 sub	 cl, al
  0052e	30 4c 3d e8	 xor	 BYTE PTR __k$540856[ebp+edi], cl
  00532	47		 inc	 edi
  00533	83 ff 0b	 cmp	 edi, 11			; 0000000bH
  00536	7c e4		 jl	 SHORT $LL1585@LoadProper
  00538	0f 57 c0	 xorps	 xmm0, xmm0
  0053b	51		 push	 ecx
  0053c	8b 8d b4 fe ff
	ff		 mov	 ecx, DWORD PTR _rkLoader$GSCopy$[ebp]
  00542	8d 45 e8	 lea	 eax, DWORD PTR __k$540856[ebp]
  00545	f3 0f 11 04 24	 movss	 DWORD PTR [esp], xmm0
  0054a	50		 push	 eax
  0054b	ff 15 00 00 00
	00		 call	 DWORD PTR __imp_?LoadFloat@ioINILoader@@QAEMPBDM@Z
  00551	d9 9b dc 0a 00
	00		 fstp	 DWORD PTR [ebx+2780]
  00557	6a 02		 push	 2

; 58   : 	m_fOff_Y = rkLoader.LoadFloat_e("y_offset", 0.0f );

  00559	c7 45 ec 94 b3
	84 8c		 mov	 DWORD PTR __k$540981[ebp], -1937460332 ; 8c84b394H
  00560	c7 45 f0 8b 9f
	8e 9e		 mov	 DWORD PTR __k$540981[ebp+4], -1634820213 ; 9e8e9f8bH
  00567	8d 45 ec	 lea	 eax, DWORD PTR __k$540981[ebp]
  0056a	c6 45 f4 00	 mov	 BYTE PTR __k$540981[ebp+8], 0
  0056e	59		 pop	 ecx
$LL1694@LoadProper:
  0056f	31 30		 xor	 DWORD PTR [eax], esi
  00571	83 c0 04	 add	 eax, 4
  00574	49		 dec	 ecx
  00575	75 f8		 jne	 SHORT $LL1694@LoadProper
  00577	0f 57 c0	 xorps	 xmm0, xmm0
  0057a	51		 push	 ecx
  0057b	8b 8d b4 fe ff
	ff		 mov	 ecx, DWORD PTR _rkLoader$GSCopy$[ebp]
  00581	8d 45 ec	 lea	 eax, DWORD PTR __k$540981[ebp]
  00584	f3 0f 11 04 24	 movss	 DWORD PTR [esp], xmm0
  00589	50		 push	 eax
  0058a	ff 15 00 00 00
	00		 call	 DWORD PTR __imp_?LoadFloat@ioINILoader@@QAEMPBDM@Z
  00590	d9 9b d8 0a 00
	00		 fstp	 DWORD PTR [ebx+2776]
  00596	6a 03		 push	 3

; 59   : 	m_nAttachAllyCnt = rkLoader.LoadInt_e("ally_attach_cnt", 0);

  00598	c7 45 e4 8c 80
	87 93		 mov	 DWORD PTR __k$541106[ebp], -1819836276 ; 9387808cH
  0059f	c7 45 e8 b2 8d
	9f 9e		 mov	 DWORD PTR __k$541106[ebp+4], -1633710670 ; 9e9f8db2H
  005a6	c7 45 ec 8c 8f
	83 b5		 mov	 DWORD PTR __k$541106[ebp+8], -1249669236 ; b5838f8cH
  005ad	8d 45 e4	 lea	 eax, DWORD PTR __k$541106[ebp]
  005b0	c7 45 f0 8e 82
	9f 00		 mov	 DWORD PTR __k$541106[ebp+12], 10453646 ; 009f828eH
  005b7	59		 pop	 ecx
$LL1800@LoadProper:
  005b8	31 30		 xor	 DWORD PTR [eax], esi
  005ba	83 c0 04	 add	 eax, 4
  005bd	49		 dec	 ecx
  005be	75 f8		 jne	 SHORT $LL1800@LoadProper
  005c0	6a 0c		 push	 12			; 0000000cH
  005c2	5f		 pop	 edi
$LL1797@LoadProper:
  005c3	8b c7		 mov	 eax, edi
  005c5	25 03 00 00 80	 and	 eax, -2147483645	; 80000003H
  005ca	79 05		 jns	 SHORT $LN2045@LoadProper
  005cc	48		 dec	 eax
  005cd	83 c8 fc	 or	 eax, -4			; fffffffcH
  005d0	40		 inc	 eax
$LN2045@LoadProper:
  005d1	b1 ed		 mov	 cl, -19			; ffffffedH
  005d3	2a c8		 sub	 cl, al
  005d5	30 4c 3d e4	 xor	 BYTE PTR __k$541106[ebp+edi], cl
  005d9	47		 inc	 edi
  005da	83 ff 0f	 cmp	 edi, 15			; 0000000fH
  005dd	7c e4		 jl	 SHORT $LL1797@LoadProper
  005df	8b 8d b4 fe ff
	ff		 mov	 ecx, DWORD PTR _rkLoader$GSCopy$[ebp]
  005e5	8b 3d 00 00 00
	00		 mov	 edi, DWORD PTR __imp_?LoadInt@ioINILoader@@QAEHPBDH@Z
  005eb	6a 00		 push	 0
  005ed	8d 45 e4	 lea	 eax, DWORD PTR __k$541106[ebp]
  005f0	50		 push	 eax
  005f1	ff d7		 call	 edi
  005f3	6a 03		 push	 3
  005f5	89 83 e0 0a 00
	00		 mov	 DWORD PTR [ebx+2784], eax

; 60   : 
; 61   : 	int iCnt = rkLoader.LoadInt_e( "change_dir_cnt", 0 );

  005fb	c7 45 e4 8e 84
	8a 84		 mov	 DWORD PTR __k$541231[ebp], -2071296882 ; 848a848eH
  00602	c7 45 e8 8a 89
	b4 8e		 mov	 DWORD PTR __k$541231[ebp+4], -1900770934 ; 8eb4898aH
  00609	c7 45 ec 84 9e
	b4 89		 mov	 DWORD PTR __k$541231[ebp+8], -1984651644 ; 89b49e84H
  00610	66 c7 45 f0 83
	98		 mov	 WORD PTR __k$541231[ebp+12], 39043 ; 00009883H
  00616	8d 45 e4	 lea	 eax, DWORD PTR __k$541231[ebp]
  00619	c6 45 f2 00	 mov	 BYTE PTR __k$541231[ebp+14], 0
  0061d	59		 pop	 ecx
$LL1906@LoadProper:
  0061e	31 30		 xor	 DWORD PTR [eax], esi
  00620	83 c0 04	 add	 eax, 4
  00623	49		 dec	 ecx
  00624	75 f8		 jne	 SHORT $LL1906@LoadProper
  00626	6a 0c		 push	 12			; 0000000cH
  00628	5e		 pop	 esi
$LL1903@LoadProper:
  00629	8b c6		 mov	 eax, esi
  0062b	25 03 00 00 80	 and	 eax, -2147483645	; 80000003H
  00630	79 05		 jns	 SHORT $LN2046@LoadProper
  00632	48		 dec	 eax
  00633	83 c8 fc	 or	 eax, -4			; fffffffcH
  00636	40		 inc	 eax
$LN2046@LoadProper:
  00637	b1 ed		 mov	 cl, -19			; ffffffedH
  00639	2a c8		 sub	 cl, al
  0063b	30 4c 35 e4	 xor	 BYTE PTR __k$541231[ebp+esi], cl
  0063f	46		 inc	 esi
  00640	83 fe 0e	 cmp	 esi, 14			; 0000000eH
  00643	7c e4		 jl	 SHORT $LL1903@LoadProper
  00645	8b 8d b4 fe ff
	ff		 mov	 ecx, DWORD PTR _rkLoader$GSCopy$[ebp]
  0064b	6a 00		 push	 0
  0064d	8d 45 e4	 lea	 eax, DWORD PTR __k$541231[ebp]
  00650	50		 push	 eax
  00651	ff d7		 call	 edi
  00653	8b f8		 mov	 edi, eax

; 62   : 	if( iCnt <= 0 ) return;

  00655	85 ff		 test	 edi, edi
  00657	0f 8e 4e 02 00
	00		 jle	 $LN401@LoadProper

; 63   : 
; 64   : 	m_ChangeDirInfoList.clear();

  0065d	8d b3 98 08 00
	00		 lea	 esi, DWORD PTR [ebx+2200]
  00663	8b ce		 mov	 ecx, esi
  00665	89 b5 b8 fe ff
	ff		 mov	 DWORD PTR tv13531[ebp], esi
  0066b	e8 00 00 00 00	 call	 ?clear@?$vector@UChangeDirInfo@@V?$allocator@UChangeDirInfo@@@std@@@std@@QAEXXZ ; std::vector<ChangeDirInfo,std::allocator<ChangeDirInfo> >::clear

; 65   : 	m_ChangeDirInfoList.reserve( iCnt );

  00670	57		 push	 edi
  00671	8b ce		 mov	 ecx, esi
  00673	e8 00 00 00 00	 call	 ?reserve@?$vector@UChangeDirInfo@@V?$allocator@UChangeDirInfo@@@std@@@std@@QAEXI@Z ; std::vector<ChangeDirInfo,std::allocator<ChangeDirInfo> >::reserve

; 66   : 
; 67   : 	for( int i=0; i < iCnt; ++i )

  00678	85 ff		 test	 edi, edi
  0067a	0f 8e 0d 02 00
	00		 jle	 $LN397@LoadProper

; 63   : 
; 64   : 	m_ChangeDirInfoList.clear();

  00680	c7 85 ac fe ff
	ff 01 00 00 00	 mov	 DWORD PTR tv15973[ebp], 1
  0068a	89 bd a8 fe ff
	ff		 mov	 DWORD PTR tv3149[ebp], edi
$LL399@LoadProper:

; 68   : 	{
; 69   : 		ChangeDirInfo kInfo;

  00690	8b 35 00 00 00
	00		 mov	 esi, DWORD PTR __imp_?VEC3_ZERO@ioMath@@2UD3DXVECTOR3@@A
  00696	8d 7d d0	 lea	 edi, DWORD PTR _kInfo$530958[ebp+16]
  00699	a5		 movsd
  0069a	a5		 movsd
  0069b	6a 03		 push	 3
  0069d	a5		 movsd

; 70   : 
; 71   : 		wsprintf_e( szBuf, "change_range%d", i+1 );

  0069e	c7 45 e4 8e 84
	8a 84		 mov	 DWORD PTR ___encStr$530962[ebp], -2071296882 ; 848a848eH
  006a5	c7 45 e8 8a 89
	b4 98		 mov	 DWORD PTR ___encStr$530962[ebp+4], -1732998774 ; 98b4898aH
  006ac	c7 45 ec 8c 82
	8c 8f		 mov	 DWORD PTR ___encStr$530962[ebp+8], -1886616948 ; 8f8c828cH
  006b3	66 c7 45 f0 c8
	88		 mov	 WORD PTR ___encStr$530962[ebp+12], 35016 ; 000088c8H
  006b9	8d 45 e4	 lea	 eax, DWORD PTR ___encStr$530962[ebp]
  006bc	c6 45 f2 00	 mov	 BYTE PTR ___encStr$530962[ebp+14], 0
  006c0	59		 pop	 ecx
$LL1918@LoadProper:
  006c1	81 30 ed ec eb
	ea		 xor	 DWORD PTR [eax], -353637139 ; eaebecedH
  006c7	83 c0 04	 add	 eax, 4
  006ca	49		 dec	 ecx
  006cb	75 f4		 jne	 SHORT $LL1918@LoadProper
  006cd	6a 0c		 push	 12			; 0000000cH
  006cf	5e		 pop	 esi
$LL1915@LoadProper:
  006d0	8b c6		 mov	 eax, esi
  006d2	25 03 00 00 80	 and	 eax, -2147483645	; 80000003H
  006d7	79 05		 jns	 SHORT $LN2047@LoadProper
  006d9	48		 dec	 eax
  006da	83 c8 fc	 or	 eax, -4			; fffffffcH
  006dd	40		 inc	 eax
$LN2047@LoadProper:
  006de	b1 ed		 mov	 cl, -19			; ffffffedH
  006e0	2a c8		 sub	 cl, al
  006e2	30 4c 35 e4	 xor	 BYTE PTR ___encStr$530962[ebp+esi], cl
  006e6	46		 inc	 esi
  006e7	83 fe 0e	 cmp	 esi, 14			; 0000000eH
  006ea	7c e4		 jl	 SHORT $LL1915@LoadProper
  006ec	ff b5 ac fe ff
	ff		 push	 DWORD PTR tv15973[ebp]
  006f2	8b 35 00 00 00
	00		 mov	 esi, DWORD PTR __imp__wsprintfA
  006f8	8d 45 e4	 lea	 eax, DWORD PTR ___encStr$530962[ebp]
  006fb	50		 push	 eax
  006fc	8d 85 bc fe ff
	ff		 lea	 eax, DWORD PTR _szBuf$[ebp]
  00702	50		 push	 eax
  00703	ff d6		 call	 esi

; 72   : 		kInfo.m_fChangeRange = rkLoader.LoadFloat( szBuf, 0.0f );

  00705	0f 57 c0	 xorps	 xmm0, xmm0
  00708	59		 pop	 ecx
  00709	59		 pop	 ecx
  0070a	8b 8d b4 fe ff
	ff		 mov	 ecx, DWORD PTR _rkLoader$GSCopy$[ebp]
  00710	8d 85 bc fe ff
	ff		 lea	 eax, DWORD PTR _szBuf$[ebp]
  00716	f3 0f 11 04 24	 movss	 DWORD PTR [esp], xmm0
  0071b	50		 push	 eax
  0071c	ff 15 00 00 00
	00		 call	 DWORD PTR __imp_?LoadFloat@ioINILoader@@QAEMPBDM@Z
  00722	d9 5d c0	 fstp	 DWORD PTR _kInfo$530958[ebp]
  00725	6a 03		 push	 3

; 73   : 
; 74   : 		wsprintf_e( szBuf, "change_speed%d", i+1 );

  00727	c7 45 e4 8e 84
	8a 84		 mov	 DWORD PTR ___encStr$531115[ebp], -2071296882 ; 848a848eH
  0072e	c7 45 e8 8a 89
	b4 99		 mov	 DWORD PTR ___encStr$531115[ebp+4], -1716221558 ; 99b4898aH
  00735	c7 45 ec 9d 89
	8e 8e		 mov	 DWORD PTR ___encStr$531115[ebp+8], -1903261283 ; 8e8e899dH
  0073c	66 c7 45 f0 c8
	88		 mov	 WORD PTR ___encStr$531115[ebp+12], 35016 ; 000088c8H
  00742	8d 45 e4	 lea	 eax, DWORD PTR ___encStr$531115[ebp]
  00745	c6 45 f2 00	 mov	 BYTE PTR ___encStr$531115[ebp+14], 0
  00749	59		 pop	 ecx
  0074a	bf ed ec eb ea	 mov	 edi, -353637139		; eaebecedH
$LL1926@LoadProper:
  0074f	31 38		 xor	 DWORD PTR [eax], edi
  00751	83 c0 04	 add	 eax, 4
  00754	49		 dec	 ecx
  00755	75 f8		 jne	 SHORT $LL1926@LoadProper
  00757	6a 0c		 push	 12			; 0000000cH
  00759	58		 pop	 eax
$LL1923@LoadProper:
  0075a	8b c8		 mov	 ecx, eax
  0075c	81 e1 03 00 00
	80		 and	 ecx, -2147483645	; 80000003H
  00762	79 05		 jns	 SHORT $LN2048@LoadProper
  00764	49		 dec	 ecx
  00765	83 c9 fc	 or	 ecx, -4			; fffffffcH
  00768	41		 inc	 ecx
$LN2048@LoadProper:
  00769	b2 ed		 mov	 dl, -19			; ffffffedH
  0076b	2a d1		 sub	 dl, cl
  0076d	30 54 05 e4	 xor	 BYTE PTR ___encStr$531115[ebp+eax], dl
  00771	40		 inc	 eax
  00772	83 f8 0e	 cmp	 eax, 14			; 0000000eH
  00775	7c e3		 jl	 SHORT $LL1923@LoadProper
  00777	ff b5 ac fe ff
	ff		 push	 DWORD PTR tv15973[ebp]
  0077d	8d 45 e4	 lea	 eax, DWORD PTR ___encStr$531115[ebp]
  00780	50		 push	 eax
  00781	8d 85 bc fe ff
	ff		 lea	 eax, DWORD PTR _szBuf$[ebp]
  00787	50		 push	 eax
  00788	ff d6		 call	 esi

; 75   : 		kInfo.m_fChangeSpeed = rkLoader.LoadFloat( szBuf, 0.0f );

  0078a	0f 57 c0	 xorps	 xmm0, xmm0
  0078d	59		 pop	 ecx
  0078e	59		 pop	 ecx
  0078f	8b 8d b4 fe ff
	ff		 mov	 ecx, DWORD PTR _rkLoader$GSCopy$[ebp]
  00795	8d 85 bc fe ff
	ff		 lea	 eax, DWORD PTR _szBuf$[ebp]
  0079b	f3 0f 11 04 24	 movss	 DWORD PTR [esp], xmm0
  007a0	50		 push	 eax
  007a1	ff 15 00 00 00
	00		 call	 DWORD PTR __imp_?LoadFloat@ioINILoader@@QAEMPBDM@Z
  007a7	d9 5d c4	 fstp	 DWORD PTR _kInfo$530958[ebp+4]
  007aa	6a 04		 push	 4

; 76   : 
; 77   : 		wsprintf_e( szBuf, "change_angle_h%d", i+1 );

  007ac	c7 45 e4 8e 84
	8a 84		 mov	 DWORD PTR ___encStr$531267[ebp], -2071296882 ; 848a848eH
  007b3	c7 45 e8 8a 89
	b4 8b		 mov	 DWORD PTR ___encStr$531267[ebp+4], -1951102582 ; 8bb4898aH
  007ba	c7 45 ec 83 8b
	87 8f		 mov	 DWORD PTR ___encStr$531267[ebp+8], -1886942333 ; 8f878b83H
  007c1	c7 45 f0 b2 84
	ce 8e		 mov	 DWORD PTR ___encStr$531267[ebp+12], -1899068238 ; 8ece84b2H
  007c8	8d 45 e4	 lea	 eax, DWORD PTR ___encStr$531267[ebp]
  007cb	c6 45 f4 00	 mov	 BYTE PTR ___encStr$531267[ebp+16], 0
  007cf	59		 pop	 ecx
$LL1934@LoadProper:
  007d0	31 38		 xor	 DWORD PTR [eax], edi
  007d2	83 c0 04	 add	 eax, 4
  007d5	49		 dec	 ecx
  007d6	75 f8		 jne	 SHORT $LL1934@LoadProper
  007d8	ff b5 ac fe ff
	ff		 push	 DWORD PTR tv15973[ebp]
  007de	8d 45 e4	 lea	 eax, DWORD PTR ___encStr$531267[ebp]
  007e1	50		 push	 eax
  007e2	8d 85 bc fe ff
	ff		 lea	 eax, DWORD PTR _szBuf$[ebp]
  007e8	50		 push	 eax
  007e9	ff d6		 call	 esi

; 78   : 		kInfo.m_fChangeAngleH = rkLoader.LoadFloat( szBuf, 0.0f );

  007eb	0f 57 c0	 xorps	 xmm0, xmm0
  007ee	59		 pop	 ecx
  007ef	59		 pop	 ecx
  007f0	8b 8d b4 fe ff
	ff		 mov	 ecx, DWORD PTR _rkLoader$GSCopy$[ebp]
  007f6	8d 85 bc fe ff
	ff		 lea	 eax, DWORD PTR _szBuf$[ebp]
  007fc	f3 0f 11 04 24	 movss	 DWORD PTR [esp], xmm0
  00801	50		 push	 eax
  00802	ff 15 00 00 00
	00		 call	 DWORD PTR __imp_?LoadFloat@ioINILoader@@QAEMPBDM@Z
  00808	d9 5d c8	 fstp	 DWORD PTR _kInfo$530958[ebp+8]
  0080b	6a 04		 push	 4

; 79   : 
; 80   : 		wsprintf_e( szBuf, "change_angle_v%d", i+1 );

  0080d	c7 45 e4 8e 84
	8a 84		 mov	 DWORD PTR ___encStr$531419[ebp], -2071296882 ; 848a848eH
  00814	c7 45 e8 8a 89
	b4 8b		 mov	 DWORD PTR ___encStr$531419[ebp+4], -1951102582 ; 8bb4898aH
  0081b	c7 45 ec 83 8b
	87 8f		 mov	 DWORD PTR ___encStr$531419[ebp+8], -1886942333 ; 8f878b83H
  00822	c7 45 f0 b2 9a
	ce 8e		 mov	 DWORD PTR ___encStr$531419[ebp+12], -1899062606 ; 8ece9ab2H
  00829	8d 45 e4	 lea	 eax, DWORD PTR ___encStr$531419[ebp]
  0082c	c6 45 f4 00	 mov	 BYTE PTR ___encStr$531419[ebp+16], 0
  00830	59		 pop	 ecx
$LL1942@LoadProper:
  00831	31 38		 xor	 DWORD PTR [eax], edi
  00833	83 c0 04	 add	 eax, 4
  00836	49		 dec	 ecx
  00837	75 f8		 jne	 SHORT $LL1942@LoadProper
  00839	ff b5 ac fe ff
	ff		 push	 DWORD PTR tv15973[ebp]
  0083f	8d 45 e4	 lea	 eax, DWORD PTR ___encStr$531419[ebp]
  00842	50		 push	 eax
  00843	8d 85 bc fe ff
	ff		 lea	 eax, DWORD PTR _szBuf$[ebp]
  00849	50		 push	 eax
  0084a	ff d6		 call	 esi

; 81   : 		kInfo.m_fChangeAngleV = rkLoader.LoadFloat( szBuf, 0.0f );

  0084c	0f 57 c0	 xorps	 xmm0, xmm0
  0084f	59		 pop	 ecx
  00850	59		 pop	 ecx
  00851	8b 8d b4 fe ff
	ff		 mov	 ecx, DWORD PTR _rkLoader$GSCopy$[ebp]
  00857	8d 85 bc fe ff
	ff		 lea	 eax, DWORD PTR _szBuf$[ebp]
  0085d	f3 0f 11 04 24	 movss	 DWORD PTR [esp], xmm0
  00862	50		 push	 eax
  00863	ff 15 00 00 00
	00		 call	 DWORD PTR __imp_?LoadFloat@ioINILoader@@QAEMPBDM@Z
  00869	d9 5d cc	 fstp	 DWORD PTR _kInfo$530958[ebp+12]

; 82   : 
; 83   : 		m_ChangeDirInfoList.push_back( kInfo );

  0086c	8b 8d b8 fe ff
	ff		 mov	 ecx, DWORD PTR tv13531[ebp]
  00872	8d 45 c0	 lea	 eax, DWORD PTR _kInfo$530958[ebp]
  00875	50		 push	 eax
  00876	e8 00 00 00 00	 call	 ?push_back@?$vector@UChangeDirInfo@@V?$allocator@UChangeDirInfo@@@std@@@std@@QAEXABUChangeDirInfo@@@Z ; std::vector<ChangeDirInfo,std::allocator<ChangeDirInfo> >::push_back
  0087b	ff 85 ac fe ff
	ff		 inc	 DWORD PTR tv15973[ebp]
  00881	ff 8d a8 fe ff
	ff		 dec	 DWORD PTR tv3149[ebp]
  00887	0f 85 03 fe ff
	ff		 jne	 $LL399@LoadProper
$LN397@LoadProper:

; 84   : 	}
; 85   : 
; 86   : 	std::sort( m_ChangeDirInfoList.begin(), m_ChangeDirInfoList.end(), ChangeDirSort() );

  0088d	ff b5 b8 fe ff
	ff		 push	 DWORD PTR $T539535[ebp]
  00893	8b 9b 9c 08 00
	00		 mov	 ebx, DWORD PTR [ebx+2204]
  00899	8b 85 b8 fe ff
	ff		 mov	 eax, DWORD PTR tv13531[ebp]
  0089f	8b 00		 mov	 eax, DWORD PTR [eax]
  008a1	53		 push	 ebx
  008a2	50		 push	 eax
  008a3	e8 00 00 00 00	 call	 ??$sort@V?$_Vector_iterator@V?$_Vector_val@UChangeDirInfo@@V?$allocator@UChangeDirInfo@@@std@@@std@@@std@@VChangeDirSort@@@std@@YAXV?$_Vector_iterator@V?$_Vector_val@UChangeDirInfo@@V?$allocator@UChangeDirInfo@@@std@@@std@@@0@0VChangeDirSort@@@Z ; std::sort<std::_Vector_iterator<std::_Vector_val<ChangeDirInfo,std::allocator<ChangeDirInfo> > >,ChangeDirSort>
  008a8	83 c4 0c	 add	 esp, 12			; 0000000cH
$LN401@LoadProper:

; 87   : }

  008ab	8b 4d fc	 mov	 ecx, DWORD PTR __$ArrayPad$[ebp]
  008ae	5f		 pop	 edi
  008af	5e		 pop	 esi
  008b0	33 cd		 xor	 ecx, ebp
  008b2	5b		 pop	 ebx
  008b3	e8 00 00 00 00	 call	 @__security_check_cookie@4
  008b8	c9		 leave
  008b9	c2 04 00	 ret	 4
?LoadProperty@ioAttachWeapon@@UAEXAAVioINILoader@@@Z ENDP ; ioAttachWeapon::LoadProperty
_TEXT	ENDS
PUBLIC	?push_back@?$vector@VioHashString@@V?$allocator@VioHashString@@@std@@@std@@QAEXABVioHashString@@@Z ; std::vector<ioHashString,std::allocator<ioHashString> >::push_back
; Function compile flags: /Ogsp
; File c:\program files (x86)\microsoft visual studio 10.0\vc\include\vector
;	COMDAT ?push_back@?$vector@VioHashString@@V?$allocator@VioHashString@@@std@@@std@@QAEXABVioHashString@@@Z
_TEXT	SEGMENT
__Val$ = 8						; size = 4
?push_back@?$vector@VioHashString@@V?$allocator@VioHashString@@@std@@@std@@QAEXABVioHashString@@@Z PROC ; std::vector<ioHashString,std::allocator<ioHashString> >::push_back, COMDAT
; _this$ = ecx

; 976  : 		{	// insert element at end

  00000	55		 push	 ebp
  00001	8b ec		 mov	 ebp, esp
  00003	56		 push	 esi
  00004	8b f1		 mov	 esi, ecx

; 977  : 		if (_Inside(_STD addressof(_Val)))

  00006	8b 46 04	 mov	 eax, DWORD PTR [esi+4]
  00009	57		 push	 edi
  0000a	8b 7d 08	 mov	 edi, DWORD PTR __Val$[ebp]
  0000d	3b f8		 cmp	 edi, eax
  0000f	73 29		 jae	 SHORT $LN4@push_back@2
  00011	8b 0e		 mov	 ecx, DWORD PTR [esi]
  00013	3b cf		 cmp	 ecx, edi
  00015	77 23		 ja	 SHORT $LN4@push_back@2

; 978  : 			{	// push back an element
; 979  : 			size_type _Idx = _STD addressof(_Val) - this->_Myfirst;

  00017	2b f9		 sub	 edi, ecx

; 980  : 			if (this->_Mylast == this->_Myend)

  00019	3b 46 08	 cmp	 eax, DWORD PTR [esi+8]
  0001c	75 09		 jne	 SHORT $LN3@push_back@2

; 981  : 				_Reserve(1);

  0001e	6a 01		 push	 1
  00020	8b ce		 mov	 ecx, esi
  00022	e8 00 00 00 00	 call	 ?_Reserve@?$vector@VioHashString@@V?$allocator@VioHashString@@@std@@@std@@IAEXI@Z ; std::vector<ioHashString,std::allocator<ioHashString> >::_Reserve
$LN3@push_back@2:

; 982  : 			_Orphan_range(this->_Mylast, this->_Mylast);
; 983  : 			_Cons_val(this->_Alval,
; 984  : 				this->_Mylast,
; 985  : 				this->_Myfirst[_Idx]);

  00027	83 e7 f0	 and	 edi, -16		; fffffff0H
  0002a	03 3e		 add	 edi, DWORD PTR [esi]
  0002c	8d 4e 0c	 lea	 ecx, DWORD PTR [esi+12]
  0002f	57		 push	 edi
  00030	ff 76 04	 push	 DWORD PTR [esi+4]
  00033	e8 00 00 00 00	 call	 ??$construct@AAVioHashString@@@?$allocator@VioHashString@@@std@@QAEXPAVioHashString@@AAV2@@Z ; std::allocator<ioHashString>::construct<ioHashString &>

; 986  : 			++this->_Mylast;
; 987  : 			}
; 988  : 		else

  00038	eb 19		 jmp	 SHORT $LN30@push_back@2
$LN4@push_back@2:

; 989  : 			{	// push back a non-element
; 990  : 			if (this->_Mylast == this->_Myend)

  0003a	3b 46 08	 cmp	 eax, DWORD PTR [esi+8]
  0003d	75 09		 jne	 SHORT $LN1@push_back@2

; 991  : 				_Reserve(1);

  0003f	6a 01		 push	 1
  00041	8b ce		 mov	 ecx, esi
  00043	e8 00 00 00 00	 call	 ?_Reserve@?$vector@VioHashString@@V?$allocator@VioHashString@@@std@@@std@@IAEXI@Z ; std::vector<ioHashString,std::allocator<ioHashString> >::_Reserve
$LN1@push_back@2:

; 992  : 			_Orphan_range(this->_Mylast, this->_Mylast);
; 993  : 			_Cons_val(this->_Alval,
; 994  : 				this->_Mylast,
; 995  : 				_Val);

  00048	57		 push	 edi
  00049	ff 76 04	 push	 DWORD PTR [esi+4]
  0004c	e8 00 00 00 00	 call	 ??$_Construct@VioHashString@@ABV1@@std@@YAXPAVioHashString@@ABV1@@Z ; std::_Construct<ioHashString,ioHashString const &>
  00051	59		 pop	 ecx
  00052	59		 pop	 ecx
$LN30@push_back@2:

; 996  : 			++this->_Mylast;

  00053	83 46 04 10	 add	 DWORD PTR [esi+4], 16	; 00000010H
  00057	5f		 pop	 edi
  00058	5e		 pop	 esi

; 997  : 			}
; 998  : 		}

  00059	5d		 pop	 ebp
  0005a	c2 04 00	 ret	 4
?push_back@?$vector@VioHashString@@V?$allocator@VioHashString@@@std@@@std@@QAEXABVioHashString@@@Z ENDP ; std::vector<ioHashString,std::allocator<ioHashString> >::push_back
; Function compile flags: /Ogsp
_TEXT	ENDS
;	COMDAT ??_GioAttachWeapon@@UAEPAXI@Z
_TEXT	SEGMENT
___flags$ = 8						; size = 4
??_GioAttachWeapon@@UAEPAXI@Z PROC			; ioAttachWeapon::`scalar deleting destructor', COMDAT
; _this$ = ecx
  00000	55		 push	 ebp
  00001	8b ec		 mov	 ebp, esp
  00003	56		 push	 esi
  00004	8b f1		 mov	 esi, ecx
  00006	e8 00 00 00 00	 call	 ??1ioAttachWeapon@@UAE@XZ ; ioAttachWeapon::~ioAttachWeapon
  0000b	f6 45 08 01	 test	 BYTE PTR ___flags$[ebp], 1
  0000f	74 07		 je	 SHORT $LN1@scalar@6
  00011	56		 push	 esi
  00012	e8 00 00 00 00	 call	 ??3@YAXPAX@Z		; operator delete
  00017	59		 pop	 ecx
$LN1@scalar@6:
  00018	8b c6		 mov	 eax, esi
  0001a	5e		 pop	 esi
  0001b	5d		 pop	 ebp
  0001c	c2 04 00	 ret	 4
??_GioAttachWeapon@@UAEPAXI@Z ENDP			; ioAttachWeapon::`scalar deleting destructor'
_TEXT	ENDS
EXTRN	__imp_??8ioHashString@@QBE_NABV0@@Z:PROC
EXTRN	?GetWorldAttackBox@ioWeapon@@QBEABVioOrientBox@@_N@Z:PROC ; ioWeapon::GetWorldAttackBox
; Function compile flags: /Ogsp
; File d:\lost saga for developer\youtube\tutorial\source\src\lsclient\ioattachweapon.cpp
;	COMDAT ?IsCollision@ioAttachWeapon@@UAE_NPAVioPlayEntity@@_N@Z
_TEXT	SEGMENT
_pBaseChar$ = -4					; size = 4
_bCollision$ = 8					; size = 1
_pEntity$ = 8						; size = 4
_value$541591 = 11					; size = 1
_bMapCollision$ = 12					; size = 1
_i$531773 = 12						; size = 4
?IsCollision@ioAttachWeapon@@UAE_NPAVioPlayEntity@@_N@Z PROC ; ioAttachWeapon::IsCollision, COMDAT
; _this$ = ecx

; 195  : {

  00000	55		 push	 ebp
  00001	8b ec		 mov	 ebp, esp
  00003	51		 push	 ecx
  00004	53		 push	 ebx

; 196  : 	if( !pEntity )

  00005	8b 5d 08	 mov	 ebx, DWORD PTR _pEntity$[ebp]
  00008	57		 push	 edi
  00009	8b f9		 mov	 edi, ecx
  0000b	85 db		 test	 ebx, ebx
  0000d	75 07		 jne	 SHORT $LN11@IsCollisio
$LN32@IsCollisio:

; 197  : 		return false;

  0000f	32 c0		 xor	 al, al
  00011	e9 e4 00 00 00	 jmp	 $LN12@IsCollisio
$LN11@IsCollisio:

; 198  : 
; 199  : 	ioBaseChar *pTarget = ToBaseChar( pEntity );

  00016	53		 push	 ebx
  00017	e8 00 00 00 00	 call	 ?ToBaseChar@@YAPAVioBaseChar@@PAVioGameEntity@@@Z ; ToBaseChar
  0001c	59		 pop	 ecx

; 200  : 	if( !pTarget && m_bOnlyCharCollision )

  0001d	85 c0		 test	 eax, eax
  0001f	75 15		 jne	 SHORT $LN10@IsCollisio
  00021	8d 45 0b	 lea	 eax, DWORD PTR _value$541591[ebp]
  00024	50		 push	 eax
  00025	8d 8f a8 0a 00
	00		 lea	 ecx, DWORD PTR [edi+2728]
  0002b	e8 00 00 00 00	 call	 ?DecryptValueToPool@?$CEncrypt@_N@@QAEXPA_N@Z ; CEncrypt<bool>::DecryptValueToPool
  00030	80 7d 0b 00	 cmp	 BYTE PTR _value$541591[ebp], 0

; 201  : 		return false;

  00034	75 d9		 jne	 SHORT $LN32@IsCollisio
$LN10@IsCollisio:
  00036	56		 push	 esi

; 202  : 
; 203  : 	bool bCollision = pEntity->IsWoundedCollision( GetWorldAttackBox(bMapCollision) );

  00037	8b 33		 mov	 esi, DWORD PTR [ebx]
  00039	6a 00		 push	 0
  0003b	ff 75 0c	 push	 DWORD PTR _bMapCollision$[ebp]
  0003e	8b cf		 mov	 ecx, edi
  00040	e8 00 00 00 00	 call	 ?GetWorldAttackBox@ioWeapon@@QBEABVioOrientBox@@_N@Z ; ioWeapon::GetWorldAttackBox
  00045	50		 push	 eax
  00046	8b cb		 mov	 ecx, ebx
  00048	ff 96 90 00 00
	00		 call	 DWORD PTR [esi+144]
  0004e	88 45 08	 mov	 BYTE PTR _bCollision$[ebp], al

; 204  : 
; 205  : 	CheckPiercing( bCollision );

  00051	ff 75 08	 push	 DWORD PTR _bCollision$[ebp]
  00054	8b 07		 mov	 eax, DWORD PTR [edi]
  00056	8b cf		 mov	 ecx, edi
  00058	ff 90 48 01 00
	00		 call	 DWORD PTR [eax+328]

; 206  : 
; 207  : 	ioBaseChar *pBaseChar = ToBaseChar( pEntity );

  0005e	53		 push	 ebx
  0005f	e8 00 00 00 00	 call	 ?ToBaseChar@@YAPAVioBaseChar@@PAVioGameEntity@@@Z ; ToBaseChar

; 208  : 	if( m_nAttachAllyCnt && bCollision && pBaseChar )

  00064	33 db		 xor	 ebx, ebx
  00066	59		 pop	 ecx
  00067	89 45 fc	 mov	 DWORD PTR _pBaseChar$[ebp], eax
  0006a	39 9f e0 0a 00
	00		 cmp	 DWORD PTR [edi+2784], ebx
  00070	0f 84 80 00 00
	00		 je	 $LN29@IsCollisio
  00076	38 5d 08	 cmp	 BYTE PTR _bCollision$[ebp], bl
  00079	74 7b		 je	 SHORT $LN29@IsCollisio
  0007b	3b c3		 cmp	 eax, ebx
  0007d	74 77		 je	 SHORT $LN29@IsCollisio

; 209  : 	{
; 210  : 		bool bFind = false;
; 211  : 		for( int i =0; i < (int)m_vAttachName.size(); i++ )

  0007f	8b 87 e4 0a 00
	00		 mov	 eax, DWORD PTR [edi+2788]
  00085	8b 8f e8 0a 00
	00		 mov	 ecx, DWORD PTR [edi+2792]
  0008b	2b c8		 sub	 ecx, eax
  0008d	89 5d 0c	 mov	 DWORD PTR _i$531773[ebp], ebx
  00090	f7 c1 f0 ff ff
	ff		 test	 ecx, -16		; fffffff0H
  00096	7e 33		 jle	 SHORT $LN4@IsCollisio
$LL30@IsCollisio:

; 212  : 		{
; 213  : 			if( m_vAttachName[i] == pBaseChar->GetCharName() )

  00098	8b 55 fc	 mov	 edx, DWORD PTR _pBaseChar$[ebp]
  0009b	81 c2 d4 02 00
	00		 add	 edx, 724		; 000002d4H
  000a1	8d 0c 03	 lea	 ecx, DWORD PTR [ebx+eax]
  000a4	52		 push	 edx
  000a5	ff 15 00 00 00
	00		 call	 DWORD PTR __imp_??8ioHashString@@QBE_NABV0@@Z
  000ab	84 c0		 test	 al, al
  000ad	75 47		 jne	 SHORT $LN29@IsCollisio

; 209  : 	{
; 210  : 		bool bFind = false;
; 211  : 		for( int i =0; i < (int)m_vAttachName.size(); i++ )

  000af	8b 87 e4 0a 00
	00		 mov	 eax, DWORD PTR [edi+2788]
  000b5	8b 8f e8 0a 00
	00		 mov	 ecx, DWORD PTR [edi+2792]
  000bb	ff 45 0c	 inc	 DWORD PTR _i$531773[ebp]
  000be	2b c8		 sub	 ecx, eax
  000c0	c1 f9 04	 sar	 ecx, 4
  000c3	83 c3 10	 add	 ebx, 16			; 00000010H
  000c6	39 4d 0c	 cmp	 DWORD PTR _i$531773[ebp], ecx
  000c9	7c cd		 jl	 SHORT $LL30@IsCollisio
$LN4@IsCollisio:

; 214  : 			{
; 215  : 				bFind = true;
; 216  : 				break;
; 217  : 			}
; 218  : 		}
; 219  : 
; 220  : 		if( bFind )
; 221  : 		{
; 222  : 			return bCollision;
; 223  : 		}
; 224  : 		else if( (int)m_vAttachName.size() < m_nAttachAllyCnt )

  000cb	8b 87 e8 0a 00
	00		 mov	 eax, DWORD PTR [edi+2792]
  000d1	2b 87 e4 0a 00
	00		 sub	 eax, DWORD PTR [edi+2788]
  000d7	c1 f8 04	 sar	 eax, 4
  000da	3b 87 e0 0a 00
	00		 cmp	 eax, DWORD PTR [edi+2784]
  000e0	7d 1e		 jge	 SHORT $LN2@IsCollisio

; 225  : 		{
; 226  : 			m_vAttachName.push_back( pBaseChar->GetCharName() );

  000e2	8b 45 fc	 mov	 eax, DWORD PTR _pBaseChar$[ebp]
  000e5	05 d4 02 00 00	 add	 eax, 724		; 000002d4H
  000ea	50		 push	 eax
  000eb	8d 8f e4 0a 00
	00		 lea	 ecx, DWORD PTR [edi+2788]
  000f1	e8 00 00 00 00	 call	 ?push_back@?$vector@VioHashString@@V?$allocator@VioHashString@@@std@@@std@@QAEXABVioHashString@@@Z ; std::vector<ioHashString,std::allocator<ioHashString> >::push_back
$LN29@IsCollisio:

; 230  : 
; 231  : 	}
; 232  : 
; 233  : 	return bCollision;

  000f6	8a 45 08	 mov	 al, BYTE PTR _bCollision$[ebp]
$LN31@IsCollisio:
  000f9	5e		 pop	 esi
$LN12@IsCollisio:
  000fa	5f		 pop	 edi
  000fb	5b		 pop	 ebx

; 234  : }

  000fc	c9		 leave
  000fd	c2 08 00	 ret	 8
$LN2@IsCollisio:

; 227  : 		}
; 228  : 		else
; 229  : 			return false;

  00100	32 c0		 xor	 al, al
  00102	eb f5		 jmp	 SHORT $LN31@IsCollisio
?IsCollision@ioAttachWeapon@@UAE_NPAVioPlayEntity@@_N@Z ENDP ; ioAttachWeapon::IsCollision
_TEXT	ENDS
END
