; Listing generated by Microsoft (R) Optimizing Compiler Version 16.00.30319.01 

	TITLE	D:\Lost Saga For Developer\Youtube\Tutorial\Source\src\LSClient\ioAttachAeraWeapon.cpp
	.686P
	.XMM
	include listing.inc
	.model	flat

INCLUDELIB MSVCRT
INCLUDELIB OLDNAMES

PUBLIC	?_EEM_DS@?$deque@UD3DXVECTOR3@@V?$allocator@UD3DXVECTOR3@@@std@@@std@@2HB ; std::deque<D3DXVECTOR3,std::allocator<D3DXVECTOR3> >::_EEM_DS
PUBLIC	?m_ActionStopType@ioAttachAeraWeapon@@2W4ActionStopType@@A ; ioAttachAeraWeapon::m_ActionStopType
PUBLIC	?m_DieActionStopType@ioAttachAeraWeapon@@2W4ActionStopType@@A ; ioAttachAeraWeapon::m_DieActionStopType
_BSS	SEGMENT
?m_ActionStopType@ioAttachAeraWeapon@@2W4ActionStopType@@A DD 01H DUP (?) ; ioAttachAeraWeapon::m_ActionStopType
?m_DieActionStopType@ioAttachAeraWeapon@@2W4ActionStopType@@A DD 01H DUP (?) ; ioAttachAeraWeapon::m_DieActionStopType
_BSS	ENDS
;	COMDAT ?_EEM_DS@?$deque@UD3DXVECTOR3@@V?$allocator@UD3DXVECTOR3@@@std@@@std@@2HB
CONST	SEGMENT
?_EEM_DS@?$deque@UD3DXVECTOR3@@V?$allocator@UD3DXVECTOR3@@@std@@@std@@2HB DD 01H ; std::deque<D3DXVECTOR3,std::allocator<D3DXVECTOR3> >::_EEM_DS
CONST	ENDS
PUBLIC	?return1@@YAIXZ					; return1
; Function compile flags: /Ogsp
; File d:\lost saga for developer\youtube\tutorial\source\src\lsclient\stdafx.h
;	COMDAT ?return1@@YAIXZ
_TEXT	SEGMENT
?return1@@YAIXZ PROC					; return1, COMDAT

; 17   : 	__forceinline unsigned int return1() { __asm mov eax, 1 };

  00000	b8 01 00 00 00	 mov	 eax, 1
  00005	c3		 ret	 0
?return1@@YAIXZ ENDP					; return1
_TEXT	ENDS
PUBLIC	?return1000@@YAIXZ				; return1000
; Function compile flags: /Ogsp
;	COMDAT ?return1000@@YAIXZ
_TEXT	SEGMENT
?return1000@@YAIXZ PROC					; return1000, COMDAT

; 29   : 	__forceinline unsigned int return1000() { __asm mov eax, 1000 };

  00000	b8 e8 03 00 00	 mov	 eax, 1000		; 000003e8H
  00005	c3		 ret	 0
?return1000@@YAIXZ ENDP					; return1000
_TEXT	ENDS
PUBLIC	??_7ioAttachAeraWeapon@@6B@			; ioAttachAeraWeapon::`vftable'
PUBLIC	??0ioAttachAeraWeapon@@QAE@PAVioBaseChar@@PBUWeaponAttribute@@@Z ; ioAttachAeraWeapon::ioAttachAeraWeapon
PUBLIC	??_R4ioAttachAeraWeapon@@6B@			; ioAttachAeraWeapon::`RTTI Complete Object Locator'
PUBLIC	??_R0?AVioAttachAeraWeapon@@@8			; ioAttachAeraWeapon `RTTI Type Descriptor'
PUBLIC	??_R3ioAttachAeraWeapon@@8			; ioAttachAeraWeapon::`RTTI Class Hierarchy Descriptor'
PUBLIC	??_R2ioAttachAeraWeapon@@8			; ioAttachAeraWeapon::`RTTI Base Class Array'
PUBLIC	??_R1A@?0A@EA@ioAttachAeraWeapon@@8		; ioAttachAeraWeapon::`RTTI Base Class Descriptor at (0,-1,0,64)'
PUBLIC	??_R1A@?0A@EA@ioWeapon@@8			; ioWeapon::`RTTI Base Class Descriptor at (0,-1,0,64)'
PUBLIC	??_R0?AVioWeapon@@@8				; ioWeapon `RTTI Type Descriptor'
PUBLIC	??_R3ioWeapon@@8				; ioWeapon::`RTTI Class Hierarchy Descriptor'
PUBLIC	??_R2ioWeapon@@8				; ioWeapon::`RTTI Base Class Array'
PUBLIC	?SetWeaponDead@ioAttachAeraWeapon@@UAEXXZ	; ioAttachAeraWeapon::SetWeaponDead
PUBLIC	?InitResource@ioAttachAeraWeapon@@UAE_NXZ	; ioAttachAeraWeapon::InitResource
PUBLIC	?DestroyResource@ioAttachAeraWeapon@@UAEXPAVioPlayStage@@@Z ; ioAttachAeraWeapon::DestroyResource
PUBLIC	?LoadProperty@ioAttachAeraWeapon@@UAEXAAVioINILoader@@@Z ; ioAttachAeraWeapon::LoadProperty
PUBLIC	?Process@ioAttachAeraWeapon@@UAEXMPAVioPlayStage@@@Z ; ioAttachAeraWeapon::Process
PUBLIC	?GetType@ioAttachAeraWeapon@@UBE?AW4WeaponType@ioWeapon@@XZ ; ioAttachAeraWeapon::GetType
PUBLIC	?GetActionStopType@ioAttachAeraWeapon@@UBE?AW4ActionStopType@@XZ ; ioAttachAeraWeapon::GetActionStopType
PUBLIC	?GetDieActionStopType@ioAttachAeraWeapon@@UBE?AW4ActionStopType@@XZ ; ioAttachAeraWeapon::GetDieActionStopType
EXTRN	__imp_??1ioHashString@@QAE@XZ:PROC
EXTRN	??1ioWeapon@@UAE@XZ:PROC			; ioWeapon::~ioWeapon
EXTRN	__imp_??0ioHashString@@QAE@XZ:PROC
EXTRN	??0ioWeapon@@QAE@PAVioBaseChar@@PBUWeaponAttribute@@@Z:PROC ; ioWeapon::ioWeapon
EXTRN	___CxxFrameHandler3:PROC
EXTRN	@__security_check_cookie@4:PROC
EXTRN	__EH_epilog3:PROC
EXTRN	__EH_prolog3:PROC
EXTRN	??_7type_info@@6B@:QWORD			; type_info::`vftable'
EXTRN	?IsAlreadyCollisioned@ioWeapon@@UAE_NPAVioPlayEntity@@@Z:PROC ; ioWeapon::IsAlreadyCollisioned
EXTRN	?AddCollisionEntity@ioWeapon@@UAEXPAVioPlayEntity@@@Z:PROC ; ioWeapon::AddCollisionEntity
EXTRN	?SetOwnerDamageRate@ioWeapon@@UAEXM@Z:PROC	; ioWeapon::SetOwnerDamageRate
EXTRN	?SetOwnerChargeDamageRate@ioWeapon@@UAEXM@Z:PROC ; ioWeapon::SetOwnerChargeDamageRate
EXTRN	?SetOwnerChargeForceRate@ioWeapon@@UAEXM@Z:PROC	; ioWeapon::SetOwnerChargeForceRate
EXTRN	?SetOwnerChargeRangeRate@ioWeapon@@UAEXM@Z:PROC	; ioWeapon::SetOwnerChargeRangeRate
EXTRN	?SetOwnerChargeSpeedRate@ioWeapon@@UAEXM@Z:PROC	; ioWeapon::SetOwnerChargeSpeedRate
EXTRN	?SetOwnerChargeBlowRate@ioWeapon@@UAEXM@Z:PROC	; ioWeapon::SetOwnerChargeBlowRate
EXTRN	?SetOwnerChargeFloatRate@ioWeapon@@UAEXM@Z:PROC	; ioWeapon::SetOwnerChargeFloatRate
EXTRN	?SetOwnerChargeScaleRate@ioWeapon@@UAEXM@Z:PROC	; ioWeapon::SetOwnerChargeScaleRate
EXTRN	?SetOwnerChargeExplosionRate@ioWeapon@@UAEXM@Z:PROC ; ioWeapon::SetOwnerChargeExplosionRate
EXTRN	?SetOwnerChargeWoundedTimeRate@ioWeapon@@UAEXM@Z:PROC ; ioWeapon::SetOwnerChargeWoundedTimeRate
EXTRN	?SetOwnerChargeLiveTimeRate@ioWeapon@@UAEXM@Z:PROC ; ioWeapon::SetOwnerChargeLiveTimeRate
EXTRN	?SetOwnerChargeBuffLiveTimeRate@ioWeapon@@UAEXM@Z:PROC ; ioWeapon::SetOwnerChargeBuffLiveTimeRate
EXTRN	?SetWeaponIndex@ioWeapon@@UAEXK@Z:PROC		; ioWeapon::SetWeaponIndex
EXTRN	?SetGrapplingTargetName@ioWeapon@@UAEXABVioHashString@@@Z:PROC ; ioWeapon::SetGrapplingTargetName
EXTRN	?SetCreateItem@ioWeapon@@UAEXABVioHashString@@@Z:PROC ; ioWeapon::SetCreateItem
EXTRN	?SetTeam@ioWeapon@@UAEXPAVioPlayStage@@W4TeamType@@@Z:PROC ; ioWeapon::SetTeam
EXTRN	?CallReserveAreaWeapon@ioWeapon@@UAEXXZ:PROC	; ioWeapon::CallReserveAreaWeapon
EXTRN	?PlayExplosionSound@ioWeapon@@UAEXXZ:PROC	; ioWeapon::PlayExplosionSound
EXTRN	?PlayWoundedSound@ioWeapon@@UAEXPAVioPlayEntity@@@Z:PROC ; ioWeapon::PlayWoundedSound
EXTRN	?PlayDefensedSound@ioWeapon@@UAEXPAVioPlayEntity@@@Z:PROC ; ioWeapon::PlayDefensedSound
EXTRN	?PlayLoopSound@ioWeapon@@UAEXXZ:PROC		; ioWeapon::PlayLoopSound
EXTRN	?StopLoopSound@ioWeapon@@UAEXXZ:PROC		; ioWeapon::StopLoopSound
EXTRN	?GetTargetAirBuffList@ioWeapon@@UBEABV?$vector@UBuffInfoStruct@@V?$allocator@UBuffInfoStruct@@@std@@@std@@XZ:PROC ; ioWeapon::GetTargetAirBuffList
EXTRN	?GetTargetBuffList@ioWeapon@@UBEABV?$vector@UBuffInfoStruct@@V?$allocator@UBuffInfoStruct@@@std@@@std@@XZ:PROC ; ioWeapon::GetTargetBuffList
EXTRN	?GetTargetDownBuffList@ioWeapon@@UBEABV?$vector@UBuffInfoStruct@@V?$allocator@UBuffInfoStruct@@@std@@@std@@XZ:PROC ; ioWeapon::GetTargetDownBuffList
EXTRN	?GetPosition@ioWeapon@@UBEABUD3DXVECTOR3@@XZ:PROC ; ioWeapon::GetPosition
EXTRN	?GetBlowType@ioWeapon@@UBE?AW4BlowTargetType@@XZ:PROC ; ioWeapon::GetBlowType
EXTRN	?GetPushPower@ioWeapon@@UBEMM@Z:PROC		; ioWeapon::GetPushPower
EXTRN	?GetBlowPower@ioWeapon@@UBEMM@Z:PROC		; ioWeapon::GetBlowPower
EXTRN	?GetAirPushPower@ioWeapon@@UBEMM@Z:PROC		; ioWeapon::GetAirPushPower
EXTRN	?GetAirBlowPower@ioWeapon@@UBEMM@Z:PROC		; ioWeapon::GetAirBlowPower
EXTRN	?GetDefensePushPower@ioWeapon@@UBEMM@Z:PROC	; ioWeapon::GetDefensePushPower
EXTRN	?GetCollisionEnableTime@ioWeapon@@UBEKXZ:PROC	; ioWeapon::GetCollisionEnableTime
EXTRN	?SetSylphid@ioWeapon@@UAEHXZ:PROC		; ioWeapon::SetSylphid
EXTRN	?ApplyExtraReserveWeaponByWeaponInfo@ioWeapon@@UAEXPAV1@@Z:PROC ; ioWeapon::ApplyExtraReserveWeaponByWeaponInfo
EXTRN	?SetResistanceAttr@ioWeapon@@UAEXH@Z:PROC	; ioWeapon::SetResistanceAttr
EXTRN	?SetStartCollisionBox@ioWeapon@@UAEXXZ:PROC	; ioWeapon::SetStartCollisionBox
EXTRN	?SetLiveTime@ioWeapon@@UAEXK@Z:PROC		; ioWeapon::SetLiveTime
EXTRN	?SetMoveDir@ioWeapon@@UAEXABUD3DXVECTOR3@@@Z:PROC ; ioWeapon::SetMoveDir
EXTRN	?SetMoveSpeed@ioWeapon@@UAEXM@Z:PROC		; ioWeapon::SetMoveSpeed
EXTRN	?SetFloatPower@ioWeapon@@UAEXM@Z:PROC		; ioWeapon::SetFloatPower
EXTRN	?SetStartPosition@ioWeapon@@UAEXABUD3DXVECTOR3@@PAVioPlayStage@@@Z:PROC ; ioWeapon::SetStartPosition
EXTRN	?IsCollision@ioWeapon@@UAE_NPAVioPlayEntity@@_N@Z:PROC ; ioWeapon::IsCollision
EXTRN	?TestMapCollision@ioWeapon@@UAE_NPAVioOpcodeShape@@PAVioPlayStage@@PBUD3DXMATRIX@@@Z:PROC ; ioWeapon::TestMapCollision
EXTRN	?CheckPreCollision@ioWeapon@@UAEXPAVioPlayEntity@@PAVioPlayStage@@@Z:PROC ; ioWeapon::CheckPreCollision
EXTRN	?CheckStructAndDummy@ioWeapon@@UAEXPAVioPlayEntity@@PAVioPlayStage@@@Z:PROC ; ioWeapon::CheckStructAndDummy
EXTRN	?GetDamage@ioWeapon@@UAEMPAVioPlayEntity@@@Z:PROC ; ioWeapon::GetDamage
EXTRN	?GetBaseDamage@ioWeapon@@UAEMPAVioPlayEntity@@@Z:PROC ; ioWeapon::GetBaseDamage
EXTRN	?GetPushAngle@ioWeapon@@UBEMXZ:PROC		; ioWeapon::GetPushAngle
EXTRN	?IsResistanceMagic@ioWeapon@@UAEHPAVioBaseChar@@@Z:PROC ; ioWeapon::IsResistanceMagic
EXTRN	?IsResistanceBomb@ioWeapon@@UAEHPAVioBaseChar@@@Z:PROC ; ioWeapon::IsResistanceBomb
EXTRN	?IsCanMineExplosion@ioWeapon@@UAE_NXZ:PROC	; ioWeapon::IsCanMineExplosion
EXTRN	?CheckGrapplingState@ioWeapon@@UAE?AW4GrapplingType@@XZ:PROC ; ioWeapon::CheckGrapplingState
EXTRN	?CheckCurAttribute@ioWeapon@@UAEXPBVioPlayEntity@@@Z:PROC ; ioWeapon::CheckCurAttribute
EXTRN	?CheckItemNotDrop@ioWeapon@@UAE_NPAVioBaseChar@@@Z:PROC ; ioWeapon::CheckItemNotDrop
EXTRN	?GetWorldAttackBoxList@ioWeapon@@UAEXAAV?$vector@VioOrientBox@@V?$allocator@VioOrientBox@@@std@@@std@@@Z:PROC ; ioWeapon::GetWorldAttackBoxList
EXTRN	?GetAttackDir@ioWeapon@@UBE?AUD3DXVECTOR3@@PBVioPlayEntity@@@Z:PROC ; ioWeapon::GetAttackDir
EXTRN	?GetLocalAttackBox@ioWeapon@@UBEABVioOrientBox@@XZ:PROC ; ioWeapon::GetLocalAttackBox
EXTRN	?GetLiveTime@ioWeapon@@UAEKXZ:PROC		; ioWeapon::GetLiveTime
EXTRN	?GetMoveDir@ioWeapon@@UAE?AUD3DXVECTOR3@@XZ:PROC ; ioWeapon::GetMoveDir
EXTRN	?CheckWeaponCollision@ioWeapon@@UAEXXZ:PROC	; ioWeapon::CheckWeaponCollision
EXTRN	?GetRefreshDuration@ioWeapon@@UAEKXZ:PROC	; ioWeapon::GetRefreshDuration
EXTRN	?GetIgnoreDuration@ioWeapon@@UAEKXZ:PROC	; ioWeapon::GetIgnoreDuration
EXTRN	?GetIgnoreTimeTypeDuration@ioWeapon@@UAEKXZ:PROC ; ioWeapon::GetIgnoreTimeTypeDuration
EXTRN	?GetIgnoreTimeType@ioWeapon@@UAEKXZ:PROC	; ioWeapon::GetIgnoreTimeType
EXTRN	?ApplyWeaponSync@ioWeapon@@UAEXAAVSP2Packet@@PAVioPlayStage@@@Z:PROC ; ioWeapon::ApplyWeaponSync
EXTRN	?IsSkillDependency@ioWeapon@@UAE_NABVioHashString@@@Z:PROC ; ioWeapon::IsSkillDependency
EXTRN	?SetSkillDependencyAction@ioWeapon@@UAEXXZ:PROC	; ioWeapon::SetSkillDependencyAction
EXTRN	?UpdateWorldAttackBox@ioWeapon@@MAEXM_N@Z:PROC	; ioWeapon::UpdateWorldAttackBox
EXTRN	?GetAttribute@ioWeapon@@MBEPBUWeaponAttribute@@XZ:PROC ; ioWeapon::GetAttribute
EXTRN	?CalcFinalDamage@ioWeapon@@MAEMXZ:PROC		; ioWeapon::CalcFinalDamage
EXTRN	?CalcFinalBoundDamage@ioWeapon@@MAEMXZ:PROC	; ioWeapon::CalcFinalBoundDamage
EXTRN	?CheckPiercing@ioWeapon@@MAE_N_N@Z:PROC		; ioWeapon::CheckPiercing
EXTRN	?ClearCollisionList@ioWeapon@@MAEXXZ:PROC	; ioWeapon::ClearCollisionList
EXTRN	?CheckCreateWeaponList@ioWeapon@@MAEXXZ:PROC	; ioWeapon::CheckCreateWeaponList
EXTRN	?CreateCollisionAreaWeapon@ioWeapon@@MAEXXZ:PROC ; ioWeapon::CreateCollisionAreaWeapon
EXTRN	?SetMapCollision@ioWeapon@@UAEXXZ:PROC		; ioWeapon::SetMapCollision
EXTRN	?IsIgnoreMapCollision@ioWeapon@@UBE_NXZ:PROC	; ioWeapon::IsIgnoreMapCollision
EXTRN	?IsIgnoreTestMapCollision@ioWeapon@@UBE_NXZ:PROC ; ioWeapon::IsIgnoreTestMapCollision
EXTRN	?IsIgnoreMapCollisionEffect@ioWeapon@@UBE_NXZ:PROC ; ioWeapon::IsIgnoreMapCollisionEffect
EXTRN	?AddEffectEvent@ioWeapon@@MAEXPAVioEffect@@@Z:PROC ; ioWeapon::AddEffectEvent
EXTRN	??_EioAttachAeraWeapon@@UAEPAXI@Z:PROC		; ioAttachAeraWeapon::`vector deleting destructor'
;	COMDAT ??_R2ioWeapon@@8
; File d:\lost saga for developer\youtube\tutorial\source\src\lsclient\ioattachaeraweapon.cpp
rdata$r	SEGMENT
??_R2ioWeapon@@8 DD FLAT:??_R1A@?0A@EA@ioWeapon@@8	; ioWeapon::`RTTI Base Class Array'
rdata$r	ENDS
;	COMDAT ??_R3ioWeapon@@8
rdata$r	SEGMENT
??_R3ioWeapon@@8 DD 00H					; ioWeapon::`RTTI Class Hierarchy Descriptor'
	DD	00H
	DD	01H
	DD	FLAT:??_R2ioWeapon@@8
rdata$r	ENDS
;	COMDAT ??_R0?AVioWeapon@@@8
_DATA	SEGMENT
??_R0?AVioWeapon@@@8 DD FLAT:??_7type_info@@6B@		; ioWeapon `RTTI Type Descriptor'
	DD	00H
	DB	'.?AVioWeapon@@', 00H
_DATA	ENDS
;	COMDAT ??_R1A@?0A@EA@ioWeapon@@8
rdata$r	SEGMENT
??_R1A@?0A@EA@ioWeapon@@8 DD FLAT:??_R0?AVioWeapon@@@8	; ioWeapon::`RTTI Base Class Descriptor at (0,-1,0,64)'
	DD	00H
	DD	00H
	DD	0ffffffffH
	DD	00H
	DD	040H
	DD	FLAT:??_R3ioWeapon@@8
rdata$r	ENDS
;	COMDAT ??_R1A@?0A@EA@ioAttachAeraWeapon@@8
rdata$r	SEGMENT
??_R1A@?0A@EA@ioAttachAeraWeapon@@8 DD FLAT:??_R0?AVioAttachAeraWeapon@@@8 ; ioAttachAeraWeapon::`RTTI Base Class Descriptor at (0,-1,0,64)'
	DD	01H
	DD	00H
	DD	0ffffffffH
	DD	00H
	DD	040H
	DD	FLAT:??_R3ioAttachAeraWeapon@@8
rdata$r	ENDS
;	COMDAT ??_R2ioAttachAeraWeapon@@8
rdata$r	SEGMENT
??_R2ioAttachAeraWeapon@@8 DD FLAT:??_R1A@?0A@EA@ioAttachAeraWeapon@@8 ; ioAttachAeraWeapon::`RTTI Base Class Array'
	DD	FLAT:??_R1A@?0A@EA@ioWeapon@@8
rdata$r	ENDS
;	COMDAT ??_R3ioAttachAeraWeapon@@8
rdata$r	SEGMENT
??_R3ioAttachAeraWeapon@@8 DD 00H			; ioAttachAeraWeapon::`RTTI Class Hierarchy Descriptor'
	DD	00H
	DD	02H
	DD	FLAT:??_R2ioAttachAeraWeapon@@8
rdata$r	ENDS
;	COMDAT ??_R0?AVioAttachAeraWeapon@@@8
_DATA	SEGMENT
??_R0?AVioAttachAeraWeapon@@@8 DD FLAT:??_7type_info@@6B@ ; ioAttachAeraWeapon `RTTI Type Descriptor'
	DD	00H
	DB	'.?AVioAttachAeraWeapon@@', 00H
_DATA	ENDS
;	COMDAT ??_R4ioAttachAeraWeapon@@6B@
rdata$r	SEGMENT
??_R4ioAttachAeraWeapon@@6B@ DD 00H			; ioAttachAeraWeapon::`RTTI Complete Object Locator'
	DD	00H
	DD	00H
	DD	FLAT:??_R0?AVioAttachAeraWeapon@@@8
	DD	FLAT:??_R3ioAttachAeraWeapon@@8
rdata$r	ENDS
;	COMDAT ??_7ioAttachAeraWeapon@@6B@
CONST	SEGMENT
??_7ioAttachAeraWeapon@@6B@ DD FLAT:??_R4ioAttachAeraWeapon@@6B@ ; ioAttachAeraWeapon::`vftable'
	DD	FLAT:?IsAlreadyCollisioned@ioWeapon@@UAE_NPAVioPlayEntity@@@Z
	DD	FLAT:?AddCollisionEntity@ioWeapon@@UAEXPAVioPlayEntity@@@Z
	DD	FLAT:?SetOwnerDamageRate@ioWeapon@@UAEXM@Z
	DD	FLAT:?SetOwnerChargeDamageRate@ioWeapon@@UAEXM@Z
	DD	FLAT:?SetOwnerChargeForceRate@ioWeapon@@UAEXM@Z
	DD	FLAT:?SetOwnerChargeRangeRate@ioWeapon@@UAEXM@Z
	DD	FLAT:?SetOwnerChargeSpeedRate@ioWeapon@@UAEXM@Z
	DD	FLAT:?SetOwnerChargeBlowRate@ioWeapon@@UAEXM@Z
	DD	FLAT:?SetOwnerChargeFloatRate@ioWeapon@@UAEXM@Z
	DD	FLAT:?SetOwnerChargeScaleRate@ioWeapon@@UAEXM@Z
	DD	FLAT:?SetOwnerChargeExplosionRate@ioWeapon@@UAEXM@Z
	DD	FLAT:?SetOwnerChargeWoundedTimeRate@ioWeapon@@UAEXM@Z
	DD	FLAT:?SetOwnerChargeLiveTimeRate@ioWeapon@@UAEXM@Z
	DD	FLAT:?SetOwnerChargeBuffLiveTimeRate@ioWeapon@@UAEXM@Z
	DD	FLAT:?SetWeaponIndex@ioWeapon@@UAEXK@Z
	DD	FLAT:?SetGrapplingTargetName@ioWeapon@@UAEXABVioHashString@@@Z
	DD	FLAT:?SetCreateItem@ioWeapon@@UAEXABVioHashString@@@Z
	DD	FLAT:?SetTeam@ioWeapon@@UAEXPAVioPlayStage@@W4TeamType@@@Z
	DD	FLAT:?CallReserveAreaWeapon@ioWeapon@@UAEXXZ
	DD	FLAT:?SetWeaponDead@ioAttachAeraWeapon@@UAEXXZ
	DD	FLAT:?PlayExplosionSound@ioWeapon@@UAEXXZ
	DD	FLAT:?PlayWoundedSound@ioWeapon@@UAEXPAVioPlayEntity@@@Z
	DD	FLAT:?PlayDefensedSound@ioWeapon@@UAEXPAVioPlayEntity@@@Z
	DD	FLAT:?PlayLoopSound@ioWeapon@@UAEXXZ
	DD	FLAT:?StopLoopSound@ioWeapon@@UAEXXZ
	DD	FLAT:?GetTargetAirBuffList@ioWeapon@@UBEABV?$vector@UBuffInfoStruct@@V?$allocator@UBuffInfoStruct@@@std@@@std@@XZ
	DD	FLAT:?GetTargetBuffList@ioWeapon@@UBEABV?$vector@UBuffInfoStruct@@V?$allocator@UBuffInfoStruct@@@std@@@std@@XZ
	DD	FLAT:?GetTargetDownBuffList@ioWeapon@@UBEABV?$vector@UBuffInfoStruct@@V?$allocator@UBuffInfoStruct@@@std@@@std@@XZ
	DD	FLAT:?GetPosition@ioWeapon@@UBEABUD3DXVECTOR3@@XZ
	DD	FLAT:?GetBlowType@ioWeapon@@UBE?AW4BlowTargetType@@XZ
	DD	FLAT:?GetPushPower@ioWeapon@@UBEMM@Z
	DD	FLAT:?GetBlowPower@ioWeapon@@UBEMM@Z
	DD	FLAT:?GetAirPushPower@ioWeapon@@UBEMM@Z
	DD	FLAT:?GetAirBlowPower@ioWeapon@@UBEMM@Z
	DD	FLAT:?GetDefensePushPower@ioWeapon@@UBEMM@Z
	DD	FLAT:?GetCollisionEnableTime@ioWeapon@@UBEKXZ
	DD	FLAT:?SetSylphid@ioWeapon@@UAEHXZ
	DD	FLAT:?ApplyExtraReserveWeaponByWeaponInfo@ioWeapon@@UAEXPAV1@@Z
	DD	FLAT:?InitResource@ioAttachAeraWeapon@@UAE_NXZ
	DD	FLAT:?DestroyResource@ioAttachAeraWeapon@@UAEXPAVioPlayStage@@@Z
	DD	FLAT:?LoadProperty@ioAttachAeraWeapon@@UAEXAAVioINILoader@@@Z
	DD	FLAT:?SetResistanceAttr@ioWeapon@@UAEXH@Z
	DD	FLAT:?SetStartCollisionBox@ioWeapon@@UAEXXZ
	DD	FLAT:?SetLiveTime@ioWeapon@@UAEXK@Z
	DD	FLAT:?SetMoveDir@ioWeapon@@UAEXABUD3DXVECTOR3@@@Z
	DD	FLAT:?SetMoveSpeed@ioWeapon@@UAEXM@Z
	DD	FLAT:?SetFloatPower@ioWeapon@@UAEXM@Z
	DD	FLAT:?SetStartPosition@ioWeapon@@UAEXABUD3DXVECTOR3@@PAVioPlayStage@@@Z
	DD	FLAT:?Process@ioAttachAeraWeapon@@UAEXMPAVioPlayStage@@@Z
	DD	FLAT:?IsCollision@ioWeapon@@UAE_NPAVioPlayEntity@@_N@Z
	DD	FLAT:?TestMapCollision@ioWeapon@@UAE_NPAVioOpcodeShape@@PAVioPlayStage@@PBUD3DXMATRIX@@@Z
	DD	FLAT:?CheckPreCollision@ioWeapon@@UAEXPAVioPlayEntity@@PAVioPlayStage@@@Z
	DD	FLAT:?CheckStructAndDummy@ioWeapon@@UAEXPAVioPlayEntity@@PAVioPlayStage@@@Z
	DD	FLAT:?GetDamage@ioWeapon@@UAEMPAVioPlayEntity@@@Z
	DD	FLAT:?GetBaseDamage@ioWeapon@@UAEMPAVioPlayEntity@@@Z
	DD	FLAT:?GetPushAngle@ioWeapon@@UBEMXZ
	DD	FLAT:?IsResistanceMagic@ioWeapon@@UAEHPAVioBaseChar@@@Z
	DD	FLAT:?IsResistanceBomb@ioWeapon@@UAEHPAVioBaseChar@@@Z
	DD	FLAT:?IsCanMineExplosion@ioWeapon@@UAE_NXZ
	DD	FLAT:?CheckGrapplingState@ioWeapon@@UAE?AW4GrapplingType@@XZ
	DD	FLAT:?CheckCurAttribute@ioWeapon@@UAEXPBVioPlayEntity@@@Z
	DD	FLAT:?CheckItemNotDrop@ioWeapon@@UAE_NPAVioBaseChar@@@Z
	DD	FLAT:?GetWorldAttackBoxList@ioWeapon@@UAEXAAV?$vector@VioOrientBox@@V?$allocator@VioOrientBox@@@std@@@std@@@Z
	DD	FLAT:?GetAttackDir@ioWeapon@@UBE?AUD3DXVECTOR3@@PBVioPlayEntity@@@Z
	DD	FLAT:?GetLocalAttackBox@ioWeapon@@UBEABVioOrientBox@@XZ
	DD	FLAT:?GetLiveTime@ioWeapon@@UAEKXZ
	DD	FLAT:?GetMoveDir@ioWeapon@@UAE?AUD3DXVECTOR3@@XZ
	DD	FLAT:?CheckWeaponCollision@ioWeapon@@UAEXXZ
	DD	FLAT:?GetType@ioAttachAeraWeapon@@UBE?AW4WeaponType@ioWeapon@@XZ
	DD	FLAT:?GetActionStopType@ioAttachAeraWeapon@@UBE?AW4ActionStopType@@XZ
	DD	FLAT:?GetDieActionStopType@ioAttachAeraWeapon@@UBE?AW4ActionStopType@@XZ
	DD	FLAT:?GetRefreshDuration@ioWeapon@@UAEKXZ
	DD	FLAT:?GetIgnoreDuration@ioWeapon@@UAEKXZ
	DD	FLAT:?GetIgnoreTimeTypeDuration@ioWeapon@@UAEKXZ
	DD	FLAT:?GetIgnoreTimeType@ioWeapon@@UAEKXZ
	DD	FLAT:?ApplyWeaponSync@ioWeapon@@UAEXAAVSP2Packet@@PAVioPlayStage@@@Z
	DD	FLAT:?IsSkillDependency@ioWeapon@@UAE_NABVioHashString@@@Z
	DD	FLAT:?SetSkillDependencyAction@ioWeapon@@UAEXXZ
	DD	FLAT:?UpdateWorldAttackBox@ioWeapon@@MAEXM_N@Z
	DD	FLAT:?GetAttribute@ioWeapon@@MBEPBUWeaponAttribute@@XZ
	DD	FLAT:?CalcFinalDamage@ioWeapon@@MAEMXZ
	DD	FLAT:?CalcFinalBoundDamage@ioWeapon@@MAEMXZ
	DD	FLAT:?CheckPiercing@ioWeapon@@MAE_N_N@Z
	DD	FLAT:?ClearCollisionList@ioWeapon@@MAEXXZ
	DD	FLAT:?CheckCreateWeaponList@ioWeapon@@MAEXXZ
	DD	FLAT:?CreateCollisionAreaWeapon@ioWeapon@@MAEXXZ
	DD	FLAT:?SetMapCollision@ioWeapon@@UAEXXZ
	DD	FLAT:?IsIgnoreMapCollision@ioWeapon@@UBE_NXZ
	DD	FLAT:?IsIgnoreTestMapCollision@ioWeapon@@UBE_NXZ
	DD	FLAT:?IsIgnoreMapCollisionEffect@ioWeapon@@UBE_NXZ
	DD	FLAT:?AddEffectEvent@ioWeapon@@MAEXPAVioEffect@@@Z
	DD	FLAT:??_EioAttachAeraWeapon@@UAEPAXI@Z
CONST	ENDS
;	COMDAT xdata$x
xdata$x	SEGMENT
__unwindtable$??0ioAttachAeraWeapon@@QAE@PAVioBaseChar@@PBUWeaponAttribute@@@Z DD 0ffffffffH
	DD	FLAT:__unwindfunclet$??0ioAttachAeraWeapon@@QAE@PAVioBaseChar@@PBUWeaponAttribute@@@Z$0
	DD	00H
	DD	FLAT:__unwindfunclet$??0ioAttachAeraWeapon@@QAE@PAVioBaseChar@@PBUWeaponAttribute@@@Z$1
__ehfuncinfo$??0ioAttachAeraWeapon@@QAE@PAVioBaseChar@@PBUWeaponAttribute@@@Z DD 019930522H
	DD	02H
	DD	FLAT:__unwindtable$??0ioAttachAeraWeapon@@QAE@PAVioBaseChar@@PBUWeaponAttribute@@@Z
	DD	2 DUP(00H)
	DD	2 DUP(00H)
	DD	00H
	DD	01H
; Function compile flags: /Ogsp
xdata$x	ENDS
;	COMDAT ??0ioAttachAeraWeapon@@QAE@PAVioBaseChar@@PBUWeaponAttribute@@@Z
_TEXT	SEGMENT
_this$ = -16						; size = 4
__$EHRec$ = -12						; size = 12
_pOwner$ = 8						; size = 4
_pAttr$ = 12						; size = 4
??0ioAttachAeraWeapon@@QAE@PAVioBaseChar@@PBUWeaponAttribute@@@Z PROC ; ioAttachAeraWeapon::ioAttachAeraWeapon, COMDAT
; _this$ = ecx

; 12   : {

  00000	6a 04		 push	 4
  00002	b8 00 00 00 00	 mov	 eax, __ehhandler$??0ioAttachAeraWeapon@@QAE@PAVioBaseChar@@PBUWeaponAttribute@@@Z
  00007	e8 00 00 00 00	 call	 __EH_prolog3
  0000c	8b f1		 mov	 esi, ecx
  0000e	89 75 f0	 mov	 DWORD PTR _this$[ebp], esi
  00011	ff 75 0c	 push	 DWORD PTR _pAttr$[ebp]
  00014	ff 75 08	 push	 DWORD PTR _pOwner$[ebp]
  00017	e8 00 00 00 00	 call	 ??0ioWeapon@@QAE@PAVioBaseChar@@PBUWeaponAttribute@@@Z ; ioWeapon::ioWeapon
  0001c	8b 3d 00 00 00
	00		 mov	 edi, DWORD PTR __imp_??0ioHashString@@QAE@XZ
  00022	83 65 fc 00	 and	 DWORD PTR __$EHRec$[ebp+8], 0
  00026	8d 8e 98 08 00
	00		 lea	 ecx, DWORD PTR [esi+2200]
  0002c	c7 06 00 00 00
	00		 mov	 DWORD PTR [esi], OFFSET ??_7ioAttachAeraWeapon@@6B@
  00032	ff d7		 call	 edi
  00034	8d 8e a8 08 00
	00		 lea	 ecx, DWORD PTR [esi+2216]
  0003a	c6 45 fc 01	 mov	 BYTE PTR __$EHRec$[ebp+8], 1
  0003e	ff d7		 call	 edi

; 13   : 	m_pWeaponEffect = NULL;

  00040	83 a6 94 08 00
	00 00		 and	 DWORD PTR [esi+2196], 0

; 14   : 	m_bStartInit = false;

  00047	c6 86 b8 08 00
	00 00		 mov	 BYTE PTR [esi+2232], 0

; 15   : }

  0004e	8b c6		 mov	 eax, esi
  00050	e8 00 00 00 00	 call	 __EH_epilog3
  00055	c2 08 00	 ret	 8
_TEXT	ENDS
;	COMDAT text$x
text$x	SEGMENT
__unwindfunclet$??0ioAttachAeraWeapon@@QAE@PAVioBaseChar@@PBUWeaponAttribute@@@Z$0:
  00000	8b 4d f0	 mov	 ecx, DWORD PTR _this$[ebp]
  00003	e9 00 00 00 00	 jmp	 ??1ioWeapon@@UAE@XZ	; ioWeapon::~ioWeapon
__unwindfunclet$??0ioAttachAeraWeapon@@QAE@PAVioBaseChar@@PBUWeaponAttribute@@@Z$1:
  00008	8b 4d f0	 mov	 ecx, DWORD PTR _this$[ebp]
  0000b	81 c1 98 08 00
	00		 add	 ecx, 2200		; 00000898H
  00011	ff 25 00 00 00
	00		 jmp	 DWORD PTR __imp_??1ioHashString@@QAE@XZ
__ehhandler$??0ioAttachAeraWeapon@@QAE@PAVioBaseChar@@PBUWeaponAttribute@@@Z:
  00017	8b 54 24 08	 mov	 edx, DWORD PTR [esp+8]
  0001b	8d 42 0c	 lea	 eax, DWORD PTR [edx+12]
  0001e	8b 4a ec	 mov	 ecx, DWORD PTR [edx-20]
  00021	33 c8		 xor	 ecx, eax
  00023	e8 00 00 00 00	 call	 @__security_check_cookie@4
  00028	b8 00 00 00 00	 mov	 eax, OFFSET __ehfuncinfo$??0ioAttachAeraWeapon@@QAE@PAVioBaseChar@@PBUWeaponAttribute@@@Z
  0002d	e9 00 00 00 00	 jmp	 ___CxxFrameHandler3
text$x	ENDS
??0ioAttachAeraWeapon@@QAE@PAVioBaseChar@@PBUWeaponAttribute@@@Z ENDP ; ioAttachAeraWeapon::ioAttachAeraWeapon
PUBLIC	??1ioAttachAeraWeapon@@UAE@XZ			; ioAttachAeraWeapon::~ioAttachAeraWeapon
;	COMDAT xdata$x
xdata$x	SEGMENT
__unwindtable$??1ioAttachAeraWeapon@@UAE@XZ DD 0ffffffffH
	DD	FLAT:__unwindfunclet$??1ioAttachAeraWeapon@@UAE@XZ$0
	DD	00H
	DD	FLAT:__unwindfunclet$??1ioAttachAeraWeapon@@UAE@XZ$1
__ehfuncinfo$??1ioAttachAeraWeapon@@UAE@XZ DD 019930522H
	DD	02H
	DD	FLAT:__unwindtable$??1ioAttachAeraWeapon@@UAE@XZ
	DD	2 DUP(00H)
	DD	2 DUP(00H)
	DD	00H
	DD	01H
; Function compile flags: /Ogsp
xdata$x	ENDS
;	COMDAT ??1ioAttachAeraWeapon@@UAE@XZ
_TEXT	SEGMENT
_this$ = -16						; size = 4
__$EHRec$ = -12						; size = 12
??1ioAttachAeraWeapon@@UAE@XZ PROC			; ioAttachAeraWeapon::~ioAttachAeraWeapon, COMDAT
; _this$ = ecx

; 18   : {

  00000	6a 04		 push	 4
  00002	b8 00 00 00 00	 mov	 eax, __ehhandler$??1ioAttachAeraWeapon@@UAE@XZ
  00007	e8 00 00 00 00	 call	 __EH_prolog3
  0000c	8b f1		 mov	 esi, ecx
  0000e	89 75 f0	 mov	 DWORD PTR _this$[ebp], esi
  00011	c7 06 00 00 00
	00		 mov	 DWORD PTR [esi], OFFSET ??_7ioAttachAeraWeapon@@6B@

; 19   : }

  00017	8b 3d 00 00 00
	00		 mov	 edi, DWORD PTR __imp_??1ioHashString@@QAE@XZ
  0001d	8d 8e a8 08 00
	00		 lea	 ecx, DWORD PTR [esi+2216]
  00023	c7 45 fc 01 00
	00 00		 mov	 DWORD PTR __$EHRec$[ebp+8], 1
  0002a	ff d7		 call	 edi
  0002c	8d 8e 98 08 00
	00		 lea	 ecx, DWORD PTR [esi+2200]
  00032	c6 45 fc 00	 mov	 BYTE PTR __$EHRec$[ebp+8], 0
  00036	ff d7		 call	 edi
  00038	83 4d fc ff	 or	 DWORD PTR __$EHRec$[ebp+8], -1
  0003c	8b ce		 mov	 ecx, esi
  0003e	e8 00 00 00 00	 call	 ??1ioWeapon@@UAE@XZ	; ioWeapon::~ioWeapon
  00043	e8 00 00 00 00	 call	 __EH_epilog3
  00048	c3		 ret	 0
_TEXT	ENDS
;	COMDAT text$x
text$x	SEGMENT
__unwindfunclet$??1ioAttachAeraWeapon@@UAE@XZ$0:
  00000	8b 4d f0	 mov	 ecx, DWORD PTR _this$[ebp]
  00003	e9 00 00 00 00	 jmp	 ??1ioWeapon@@UAE@XZ	; ioWeapon::~ioWeapon
__unwindfunclet$??1ioAttachAeraWeapon@@UAE@XZ$1:
  00008	8b 4d f0	 mov	 ecx, DWORD PTR _this$[ebp]
  0000b	81 c1 98 08 00
	00		 add	 ecx, 2200		; 00000898H
  00011	ff 25 00 00 00
	00		 jmp	 DWORD PTR __imp_??1ioHashString@@QAE@XZ
__ehhandler$??1ioAttachAeraWeapon@@UAE@XZ:
  00017	8b 54 24 08	 mov	 edx, DWORD PTR [esp+8]
  0001b	8d 42 0c	 lea	 eax, DWORD PTR [edx+12]
  0001e	8b 4a ec	 mov	 ecx, DWORD PTR [edx-20]
  00021	33 c8		 xor	 ecx, eax
  00023	e8 00 00 00 00	 call	 @__security_check_cookie@4
  00028	b8 00 00 00 00	 mov	 eax, OFFSET __ehfuncinfo$??1ioAttachAeraWeapon@@UAE@XZ
  0002d	e9 00 00 00 00	 jmp	 ___CxxFrameHandler3
text$x	ENDS
??1ioAttachAeraWeapon@@UAE@XZ ENDP			; ioAttachAeraWeapon::~ioAttachAeraWeapon
EXTRN	__imp_?DestroyEffect@ioEffectFactory@@QAEXPAVioEffect@@@Z:PROC
EXTRN	__imp_?GetSingleton@ioEffectFactory@@SAAAV1@XZ:PROC
; Function compile flags: /Ogsp
;	COMDAT ?DestroyResource@ioAttachAeraWeapon@@UAEXPAVioPlayStage@@@Z
_TEXT	SEGMENT
_pStage$ = 8						; size = 4
?DestroyResource@ioAttachAeraWeapon@@UAEXPAVioPlayStage@@@Z PROC ; ioAttachAeraWeapon::DestroyResource, COMDAT
; _this$ = ecx

; 90   : {

  00000	56		 push	 esi

; 91   : 	if( m_pWeaponEffect )

  00001	8d b1 94 08 00
	00		 lea	 esi, DWORD PTR [ecx+2196]
  00007	8b 06		 mov	 eax, DWORD PTR [esi]
  00009	85 c0		 test	 eax, eax
  0000b	74 12		 je	 SHORT $LN1@DestroyRes

; 92   : 	{
; 93   : 		g_EffectFactory.DestroyEffect( m_pWeaponEffect );

  0000d	50		 push	 eax
  0000e	ff 15 00 00 00
	00		 call	 DWORD PTR __imp_?GetSingleton@ioEffectFactory@@SAAAV1@XZ
  00014	8b c8		 mov	 ecx, eax
  00016	ff 15 00 00 00
	00		 call	 DWORD PTR __imp_?DestroyEffect@ioEffectFactory@@QAEXPAVioEffect@@@Z

; 94   : 		m_pWeaponEffect = NULL;

  0001c	83 26 00	 and	 DWORD PTR [esi], 0
$LN1@DestroyRes:
  0001f	5e		 pop	 esi

; 95   : 	}
; 96   : }

  00020	c2 04 00	 ret	 4
?DestroyResource@ioAttachAeraWeapon@@UAEXPAVioPlayStage@@@Z ENDP ; ioAttachAeraWeapon::DestroyResource
; Function compile flags: /Ogsp
_TEXT	ENDS
;	COMDAT ?GetType@ioAttachAeraWeapon@@UBE?AW4WeaponType@ioWeapon@@XZ
_TEXT	SEGMENT
?GetType@ioAttachAeraWeapon@@UBE?AW4WeaponType@ioWeapon@@XZ PROC ; ioAttachAeraWeapon::GetType, COMDAT
; _this$ = ecx

; 132  : 	return WT_ATTACH_AREA;

  00000	6a 63		 push	 99			; 00000063H
  00002	58		 pop	 eax

; 133  : }

  00003	c3		 ret	 0
?GetType@ioAttachAeraWeapon@@UBE?AW4WeaponType@ioWeapon@@XZ ENDP ; ioAttachAeraWeapon::GetType
; Function compile flags: /Ogsp
_TEXT	ENDS
;	COMDAT ?GetActionStopType@ioAttachAeraWeapon@@UBE?AW4ActionStopType@@XZ
_TEXT	SEGMENT
?GetActionStopType@ioAttachAeraWeapon@@UBE?AW4ActionStopType@@XZ PROC ; ioAttachAeraWeapon::GetActionStopType, COMDAT
; _this$ = ecx

; 137  : 	return m_ActionStopType;

  00000	a1 00 00 00 00	 mov	 eax, DWORD PTR ?m_ActionStopType@ioAttachAeraWeapon@@2W4ActionStopType@@A ; ioAttachAeraWeapon::m_ActionStopType

; 138  : }

  00005	c3		 ret	 0
?GetActionStopType@ioAttachAeraWeapon@@UBE?AW4ActionStopType@@XZ ENDP ; ioAttachAeraWeapon::GetActionStopType
; Function compile flags: /Ogsp
_TEXT	ENDS
;	COMDAT ?GetDieActionStopType@ioAttachAeraWeapon@@UBE?AW4ActionStopType@@XZ
_TEXT	SEGMENT
?GetDieActionStopType@ioAttachAeraWeapon@@UBE?AW4ActionStopType@@XZ PROC ; ioAttachAeraWeapon::GetDieActionStopType, COMDAT
; _this$ = ecx

; 142  : 	return m_DieActionStopType;

  00000	a1 00 00 00 00	 mov	 eax, DWORD PTR ?m_DieActionStopType@ioAttachAeraWeapon@@2W4ActionStopType@@A ; ioAttachAeraWeapon::m_DieActionStopType

; 143  : }

  00005	c3		 ret	 0
?GetDieActionStopType@ioAttachAeraWeapon@@UBE?AW4ActionStopType@@XZ ENDP ; ioAttachAeraWeapon::GetDieActionStopType
_TEXT	ENDS
PUBLIC	_pStage$GSCopy$
PUBLIC	_this$GSCopy$
PUBLIC	__$ArrayPad$
PUBLIC	?ProcessAttachMove@ioAttachAeraWeapon@@IAEXMPAVioPlayStage@@@Z ; ioAttachAeraWeapon::ProcessAttachMove
EXTRN	?UpdateAttachAreaWeapon@ioWeapon@@IAEXPAVioPlayStage@@@Z:PROC ; ioWeapon::UpdateAttachAreaWeapon
EXTRN	?SetOrientation@ioWeapon@@QAEXABUD3DXQUATERNION@@@Z:PROC ; ioWeapon::SetOrientation
EXTRN	?SetPosition@ioWeapon@@QAEXABUD3DXVECTOR3@@@Z:PROC ; ioWeapon::SetPosition
EXTRN	?FindDummyChar@ioDummyCharManager@@QAEPAVioDummyChar@@PAVioBaseChar@@H@Z:PROC ; ioDummyCharManager::FindDummyChar
EXTRN	?GetSingleton@ioDummyCharManager@@SAAAV1@XZ:PROC ; ioDummyCharManager::GetSingleton
EXTRN	?GetOwner@ioWeapon@@QBEPAVioBaseChar@@XZ:PROC	; ioWeapon::GetOwner
EXTRN	___security_cookie:DWORD
; Function compile flags: /Ogsp
;	COMDAT ?ProcessAttachMove@ioAttachAeraWeapon@@IAEXMPAVioPlayStage@@@Z
_TEXT	SEGMENT
_qtRot$530603 = -40					; size = 16
_pStage$GSCopy$ = -24					; size = 4
_this$GSCopy$ = -20					; size = 4
_vPos$530604 = -16					; size = 12
__$ArrayPad$ = -4					; size = 4
_fTimePerSec$ = 8					; size = 4
_pStage$ = 12						; size = 4
?ProcessAttachMove@ioAttachAeraWeapon@@IAEXMPAVioPlayStage@@@Z PROC ; ioAttachAeraWeapon::ProcessAttachMove, COMDAT
; _this$ = ecx

; 146  : {

  00000	55		 push	 ebp
  00001	8b ec		 mov	 ebp, esp
  00003	83 ec 28	 sub	 esp, 40			; 00000028H
  00006	a1 00 00 00 00	 mov	 eax, DWORD PTR ___security_cookie
  0000b	33 c5		 xor	 eax, ebp
  0000d	89 45 fc	 mov	 DWORD PTR __$ArrayPad$[ebp], eax
  00010	8b 45 0c	 mov	 eax, DWORD PTR _pStage$[ebp]
  00013	56		 push	 esi
  00014	8b f1		 mov	 esi, ecx

; 153  : 		{
; 154  : 			D3DXQUATERNION qtRot = pDummy->GetWorldOrientation();

  00016	89 75 ec	 mov	 DWORD PTR _this$GSCopy$[ebp], esi
  00019	89 45 e8	 mov	 DWORD PTR _pStage$GSCopy$[ebp], eax
  0001c	e8 00 00 00 00	 call	 ?GetOwner@ioWeapon@@QBEPAVioBaseChar@@XZ ; ioWeapon::GetOwner
  00021	8b 8e 98 05 00
	00		 mov	 ecx, DWORD PTR [esi+1432]
  00027	85 c9		 test	 ecx, ecx
  00029	7e 5a		 jle	 SHORT $LN1@ProcessAtt

; 147  : 	ioBaseChar *pOwner = GetOwner();
; 148  : 
; 149  : 	if( m_iDummyIndex > 0 )
; 150  : 	{
; 151  : 		ioDummyChar *pDummy = g_DummyCharMgr.FindDummyChar( pOwner, m_iDummyIndex );

  0002b	53		 push	 ebx
  0002c	51		 push	 ecx
  0002d	50		 push	 eax
  0002e	e8 00 00 00 00	 call	 ?GetSingleton@ioDummyCharManager@@SAAAV1@XZ ; ioDummyCharManager::GetSingleton
  00033	8b c8		 mov	 ecx, eax
  00035	e8 00 00 00 00	 call	 ?FindDummyChar@ioDummyCharManager@@QAEPAVioDummyChar@@PAVioBaseChar@@H@Z ; ioDummyCharManager::FindDummyChar
  0003a	8b d8		 mov	 ebx, eax

; 152  : 		if( pDummy )

  0003c	85 db		 test	 ebx, ebx
  0003e	74 44		 je	 SHORT $LN5@ProcessAtt

; 153  : 		{
; 154  : 			D3DXQUATERNION qtRot = pDummy->GetWorldOrientation();

  00040	8b 03		 mov	 eax, DWORD PTR [ebx]
  00042	57		 push	 edi
  00043	8b cb		 mov	 ecx, ebx
  00045	ff 50 74	 call	 DWORD PTR [eax+116]
  00048	8b f0		 mov	 esi, eax

; 155  : 
; 156  : 			D3DXVECTOR3 vPos = pDummy->GetWorldPosition();

  0004a	8b 03		 mov	 eax, DWORD PTR [ebx]
  0004c	8d 7d d8	 lea	 edi, DWORD PTR _qtRot$530603[ebp]
  0004f	a5		 movsd
  00050	a5		 movsd
  00051	a5		 movsd
  00052	8b cb		 mov	 ecx, ebx
  00054	a5		 movsd
  00055	ff 50 70	 call	 DWORD PTR [eax+112]

; 157  : 
; 158  : 			SetPosition( vPos );

  00058	8b 4d ec	 mov	 ecx, DWORD PTR _this$GSCopy$[ebp]
  0005b	8b f0		 mov	 esi, eax
  0005d	8d 7d f0	 lea	 edi, DWORD PTR _vPos$530604[ebp]
  00060	a5		 movsd
  00061	a5		 movsd
  00062	8d 45 f0	 lea	 eax, DWORD PTR _vPos$530604[ebp]
  00065	50		 push	 eax
  00066	a5		 movsd
  00067	e8 00 00 00 00	 call	 ?SetPosition@ioWeapon@@QAEXABUD3DXVECTOR3@@@Z ; ioWeapon::SetPosition

; 159  : 			SetOrientation( qtRot );

  0006c	8b 4d ec	 mov	 ecx, DWORD PTR _this$GSCopy$[ebp]
  0006f	8d 45 d8	 lea	 eax, DWORD PTR _qtRot$530603[ebp]
  00072	50		 push	 eax
  00073	e8 00 00 00 00	 call	 ?SetOrientation@ioWeapon@@QAEXABUD3DXQUATERNION@@@Z ; ioWeapon::SetOrientation

; 160  : 		
; 161  : 			UpdateAttachAreaWeapon( pStage );

  00078	ff 75 e8	 push	 DWORD PTR _pStage$GSCopy$[ebp]
  0007b	8b 4d ec	 mov	 ecx, DWORD PTR _this$GSCopy$[ebp]
  0007e	e8 00 00 00 00	 call	 ?UpdateAttachAreaWeapon@ioWeapon@@IAEXPAVioPlayStage@@@Z ; ioWeapon::UpdateAttachAreaWeapon
  00083	5f		 pop	 edi
$LN5@ProcessAtt:
  00084	5b		 pop	 ebx
$LN1@ProcessAtt:

; 162  : 		}
; 163  : 	}
; 164  : }

  00085	8b 4d fc	 mov	 ecx, DWORD PTR __$ArrayPad$[ebp]
  00088	33 cd		 xor	 ecx, ebp
  0008a	5e		 pop	 esi
  0008b	e8 00 00 00 00	 call	 @__security_check_cookie@4
  00090	c9		 leave
  00091	c2 08 00	 ret	 8
?ProcessAttachMove@ioAttachAeraWeapon@@IAEXMPAVioPlayStage@@@Z ENDP ; ioAttachAeraWeapon::ProcessAttachMove
_TEXT	ENDS
PUBLIC	?CheckOwnerAttach@ioAttachAeraWeapon@@QAEX_N@Z	; ioAttachAeraWeapon::CheckOwnerAttach
; Function compile flags: /Ogsp
;	COMDAT ?CheckOwnerAttach@ioAttachAeraWeapon@@QAEX_N@Z
_TEXT	SEGMENT
_bAttach$ = 8						; size = 1
?CheckOwnerAttach@ioAttachAeraWeapon@@QAEX_N@Z PROC	; ioAttachAeraWeapon::CheckOwnerAttach, COMDAT
; _this$ = ecx

; 167  : {

  00000	55		 push	 ebp
  00001	8b ec		 mov	 ebp, esp

; 168  : 	m_bOwnerAttach = bAttach;

  00003	8a 45 08	 mov	 al, BYTE PTR _bAttach$[ebp]
  00006	88 81 b9 08 00
	00		 mov	 BYTE PTR [ecx+2233], al

; 169  : }

  0000c	5d		 pop	 ebp
  0000d	c2 04 00	 ret	 4
?CheckOwnerAttach@ioAttachAeraWeapon@@QAEX_N@Z ENDP	; ioAttachAeraWeapon::CheckOwnerAttach
_TEXT	ENDS
PUBLIC	?GetSingletonPtr@?$Singleton@VioWeaponManager@@@@SAPAVioWeaponManager@@XZ ; Singleton<ioWeaponManager>::GetSingletonPtr
EXTRN	?ms_Singleton@?$Singleton@VioWeaponManager@@@@1PAVioWeaponManager@@A:DWORD ; Singleton<ioWeaponManager>::ms_Singleton
; Function compile flags: /Ogsp
; File d:\lost saga for developer\youtube\tutorial\source\src\io3dengine\iosingleton.h
;	COMDAT ?GetSingletonPtr@?$Singleton@VioWeaponManager@@@@SAPAVioWeaponManager@@XZ
_TEXT	SEGMENT
?GetSingletonPtr@?$Singleton@VioWeaponManager@@@@SAPAVioWeaponManager@@XZ PROC ; Singleton<ioWeaponManager>::GetSingletonPtr, COMDAT

; 48   : 		return ( ms_Singleton );

  00000	a1 00 00 00 00	 mov	 eax, DWORD PTR ?ms_Singleton@?$Singleton@VioWeaponManager@@@@1PAVioWeaponManager@@A ; Singleton<ioWeaponManager>::ms_Singleton

; 49   : 	}

  00005	c3		 ret	 0
?GetSingletonPtr@?$Singleton@VioWeaponManager@@@@SAPAVioWeaponManager@@XZ ENDP ; Singleton<ioWeaponManager>::GetSingletonPtr
_TEXT	ENDS
PUBLIC	?GetSingletonPtr@?$Singleton@VioAreaWeaponManager@@@@SAPAVioAreaWeaponManager@@XZ ; Singleton<ioAreaWeaponManager>::GetSingletonPtr
EXTRN	?ms_Singleton@?$Singleton@VioAreaWeaponManager@@@@1PAVioAreaWeaponManager@@A:DWORD ; Singleton<ioAreaWeaponManager>::ms_Singleton
; Function compile flags: /Ogsp
;	COMDAT ?GetSingletonPtr@?$Singleton@VioAreaWeaponManager@@@@SAPAVioAreaWeaponManager@@XZ
_TEXT	SEGMENT
?GetSingletonPtr@?$Singleton@VioAreaWeaponManager@@@@SAPAVioAreaWeaponManager@@XZ PROC ; Singleton<ioAreaWeaponManager>::GetSingletonPtr, COMDAT

; 48   : 		return ( ms_Singleton );

  00000	a1 00 00 00 00	 mov	 eax, DWORD PTR ?ms_Singleton@?$Singleton@VioAreaWeaponManager@@@@1PAVioAreaWeaponManager@@A ; Singleton<ioAreaWeaponManager>::ms_Singleton

; 49   : 	}

  00005	c3		 ret	 0
?GetSingletonPtr@?$Singleton@VioAreaWeaponManager@@@@SAPAVioAreaWeaponManager@@XZ ENDP ; Singleton<ioAreaWeaponManager>::GetSingletonPtr
_TEXT	ENDS
PUBLIC	??0D3DXVECTOR3@@QAE@MMM@Z			; D3DXVECTOR3::D3DXVECTOR3
EXTRN	__fltused:DWORD
; Function compile flags: /Ogsp
; File c:\program files (x86)\microsoft directx sdk (june 2010)\include\d3dx9math.inl
;	COMDAT ??0D3DXVECTOR3@@QAE@MMM@Z
_TEXT	SEGMENT
_fx$ = 8						; size = 4
_fy$ = 12						; size = 4
_fz$ = 16						; size = 4
??0D3DXVECTOR3@@QAE@MMM@Z PROC				; D3DXVECTOR3::D3DXVECTOR3, COMDAT
; _this$ = ecx

; 303  : {

  00000	55		 push	 ebp
  00001	8b ec		 mov	 ebp, esp

; 304  :     x = fx;

  00003	f3 0f 10 45 08	 movss	 xmm0, DWORD PTR _fx$[ebp]
  00008	8b c1		 mov	 eax, ecx
  0000a	f3 0f 11 00	 movss	 DWORD PTR [eax], xmm0

; 305  :     y = fy;

  0000e	f3 0f 10 45 0c	 movss	 xmm0, DWORD PTR _fy$[ebp]
  00013	f3 0f 11 40 04	 movss	 DWORD PTR [eax+4], xmm0

; 306  :     z = fz;

  00018	f3 0f 10 45 10	 movss	 xmm0, DWORD PTR _fz$[ebp]
  0001d	f3 0f 11 40 08	 movss	 DWORD PTR [eax+8], xmm0

; 307  : }

  00022	5d		 pop	 ebp
  00023	c2 0c 00	 ret	 12			; 0000000cH
??0D3DXVECTOR3@@QAE@MMM@Z ENDP				; D3DXVECTOR3::D3DXVECTOR3
_TEXT	ENDS
PUBLIC	?_DECSTR@@YAXPADH@Z				; _DECSTR
; Function compile flags: /Ogsp
; File d:\lost saga for developer\youtube\tutorial\source\src\lsclient\stringprotect.h
;	COMDAT ?_DECSTR@@YAXPADH@Z
_TEXT	SEGMENT
_s$ = 8							; size = 4
_l$ = 12						; size = 4
?_DECSTR@@YAXPADH@Z PROC				; _DECSTR, COMDAT

; 40   : __forceinline void _DECSTR(char* s, int l){int i=0,l4=(l-1)/4,*p=(int*)s;s[l-1]=0;for(;i<l4;++i)*(p++)^=0xEAEBECED;for(i=l4*4;i<l-1;++i)s[i]^=0xED-i%4;}

  00000	55		 push	 ebp
  00001	8b ec		 mov	 ebp, esp
  00003	8b 4d 0c	 mov	 ecx, DWORD PTR _l$[ebp]
  00006	56		 push	 esi
  00007	8b 75 08	 mov	 esi, DWORD PTR _s$[ebp]
  0000a	57		 push	 edi
  0000b	8d 79 ff	 lea	 edi, DWORD PTR [ecx-1]
  0000e	8b c7		 mov	 eax, edi
  00010	99		 cdq
  00011	83 e2 03	 and	 edx, 3
  00014	03 c2		 add	 eax, edx
  00016	c1 f8 02	 sar	 eax, 2
  00019	8b d6		 mov	 edx, esi
  0001b	c6 44 0e ff 00	 mov	 BYTE PTR [esi+ecx-1], 0
  00020	85 c0		 test	 eax, eax
  00022	7e 0e		 jle	 SHORT $LN4@DECSTR
  00024	8b c8		 mov	 ecx, eax
$LL6@DECSTR:
  00026	81 32 ed ec eb
	ea		 xor	 DWORD PTR [edx], -353637139 ; eaebecedH
  0002c	83 c2 04	 add	 edx, 4
  0002f	49		 dec	 ecx
  00030	75 f4		 jne	 SHORT $LL6@DECSTR
$LN4@DECSTR:
  00032	c1 e0 02	 shl	 eax, 2
  00035	eb 17		 jmp	 SHORT $LN14@DECSTR
$LL3@DECSTR:
  00037	8b c8		 mov	 ecx, eax
  00039	81 e1 03 00 00
	80		 and	 ecx, -2147483645	; 80000003H
  0003f	79 05		 jns	 SHORT $LN13@DECSTR
  00041	49		 dec	 ecx
  00042	83 c9 fc	 or	 ecx, -4			; fffffffcH
  00045	41		 inc	 ecx
$LN13@DECSTR:
  00046	b2 ed		 mov	 dl, -19			; ffffffedH
  00048	2a d1		 sub	 dl, cl
  0004a	30 14 30	 xor	 BYTE PTR [eax+esi], dl
  0004d	40		 inc	 eax
$LN14@DECSTR:
  0004e	3b c7		 cmp	 eax, edi
  00050	7c e5		 jl	 SHORT $LL3@DECSTR
  00052	5f		 pop	 edi
  00053	5e		 pop	 esi
  00054	5d		 pop	 ebp
  00055	c3		 ret	 0
?_DECSTR@@YAXPADH@Z ENDP				; _DECSTR
_TEXT	ENDS
PUBLIC	?GetParentSceneNode@ioWeapon@@QBEPAVioSceneNode@@XZ ; ioWeapon::GetParentSceneNode
; Function compile flags: /Ogsp
; File d:\lost saga for developer\youtube\tutorial\source\src\lsclient\ioweapon.h
;	COMDAT ?GetParentSceneNode@ioWeapon@@QBEPAVioSceneNode@@XZ
_TEXT	SEGMENT
?GetParentSceneNode@ioWeapon@@QBEPAVioSceneNode@@XZ PROC ; ioWeapon::GetParentSceneNode, COMDAT
; _this$ = ecx

; 797  : 	ioSceneNode* GetParentSceneNode() const { return m_pSceneNode; }

  00000	8b 41 04	 mov	 eax, DWORD PTR [ecx+4]
  00003	c3		 ret	 0
?GetParentSceneNode@ioWeapon@@QBEPAVioSceneNode@@XZ ENDP ; ioWeapon::GetParentSceneNode
_TEXT	ENDS
PUBLIC	?DecryptValueToPool@?$CEncrypt@W4TeamType@@@@QAEXPAW4TeamType@@@Z ; CEncrypt<enum TeamType>::DecryptValueToPool
EXTRN	?DecryptByte@ccddaabb@@QBEXPBDPADH@Z:PROC	; ccddaabb::DecryptByte
; Function compile flags: /Ogsp
; File d:\lost saga for developer\youtube\tutorial\source\src\lsclient\encryptvalue.h
;	COMDAT ?DecryptValueToPool@?$CEncrypt@W4TeamType@@@@QAEXPAW4TeamType@@@Z
_TEXT	SEGMENT
_value$ = 8						; size = 4
?DecryptValueToPool@?$CEncrypt@W4TeamType@@@@QAEXPAW4TeamType@@@Z PROC ; CEncrypt<enum TeamType>::DecryptValueToPool, COMDAT
; _this$ = ecx

; 2959 : 	{

  00000	55		 push	 ebp
  00001	8b ec		 mov	 ebp, esp
  00003	56		 push	 esi

; 2960 : 		m_RC5.DecryptByte( m_MemPool, m_TempMem, sizeof(TeamType) );

  00004	8d 71 28	 lea	 esi, DWORD PTR [ecx+40]
  00007	6a 04		 push	 4
  00009	8d 41 1c	 lea	 eax, DWORD PTR [ecx+28]
  0000c	56		 push	 esi
  0000d	50		 push	 eax
  0000e	83 c1 0c	 add	 ecx, 12			; 0000000cH
  00011	e8 00 00 00 00	 call	 ?DecryptByte@ccddaabb@@QBEXPBDPADH@Z ; ccddaabb::DecryptByte

; 2961 : 		*value = *((TeamType*)m_TempMem);

  00016	8b 06		 mov	 eax, DWORD PTR [esi]
  00018	8b 4d 08	 mov	 ecx, DWORD PTR _value$[ebp]
  0001b	89 01		 mov	 DWORD PTR [ecx], eax
  0001d	5e		 pop	 esi

; 2962 : 	}

  0001e	5d		 pop	 ebp
  0001f	c2 04 00	 ret	 4
?DecryptValueToPool@?$CEncrypt@W4TeamType@@@@QAEXPAW4TeamType@@@Z ENDP ; CEncrypt<enum TeamType>::DecryptValueToPool
_TEXT	ENDS
EXTRN	??3@YAXPAX@Z:PROC				; operator delete
; Function compile flags: /Ogsp
;	COMDAT ??_GioAttachAeraWeapon@@UAEPAXI@Z
_TEXT	SEGMENT
___flags$ = 8						; size = 4
??_GioAttachAeraWeapon@@UAEPAXI@Z PROC			; ioAttachAeraWeapon::`scalar deleting destructor', COMDAT
; _this$ = ecx
  00000	55		 push	 ebp
  00001	8b ec		 mov	 ebp, esp
  00003	56		 push	 esi
  00004	8b f1		 mov	 esi, ecx
  00006	e8 00 00 00 00	 call	 ??1ioAttachAeraWeapon@@UAE@XZ ; ioAttachAeraWeapon::~ioAttachAeraWeapon
  0000b	f6 45 08 01	 test	 BYTE PTR ___flags$[ebp], 1
  0000f	74 07		 je	 SHORT $LN1@scalar
  00011	56		 push	 esi
  00012	e8 00 00 00 00	 call	 ??3@YAXPAX@Z		; operator delete
  00017	59		 pop	 ecx
$LN1@scalar:
  00018	8b c6		 mov	 eax, esi
  0001a	5e		 pop	 esi
  0001b	5d		 pop	 ebp
  0001c	c2 04 00	 ret	 4
??_GioAttachAeraWeapon@@UAEPAXI@Z ENDP			; ioAttachAeraWeapon::`scalar deleting destructor'
_TEXT	ENDS
PUBLIC	__real@4f800000
PUBLIC	__$ArrayPad$
PUBLIC	?CreateWeaponEffect@ioAttachAeraWeapon@@IAE_NABVioHashString@@@Z ; ioAttachAeraWeapon::CreateWeaponEffect
EXTRN	__imp_?CreateEffect@ioEffectFactory@@QAEPAVioEffect@@ABVioHashString@@@Z:PROC
;	COMDAT __real@4f800000
; File d:\lost saga for developer\youtube\tutorial\source\src\lsclient\ioweapon.h
CONST	SEGMENT
__real@4f800000 DD 04f800000r			; 4.29497e+009
; Function compile flags: /Ogsp
; File d:\lost saga for developer\youtube\tutorial\source\src\lsclient\ioattachaeraweapon.cpp
CONST	ENDS
;	COMDAT ?CreateWeaponEffect@ioAttachAeraWeapon@@IAE_NABVioHashString@@@Z
_TEXT	SEGMENT
tv246 = -20						; size = 4
tv243 = -20						; size = 4
tv240 = -20						; size = 4
_vScale$ = -16						; size = 12
__$ArrayPad$ = -4					; size = 4
_szFileName$ = 8					; size = 4
?CreateWeaponEffect@ioAttachAeraWeapon@@IAE_NABVioHashString@@@Z PROC ; ioAttachAeraWeapon::CreateWeaponEffect, COMDAT
; _this$ = ecx

; 70   : {

  00000	55		 push	 ebp
  00001	8b ec		 mov	 ebp, esp
  00003	83 ec 14	 sub	 esp, 20			; 00000014H
  00006	a1 00 00 00 00	 mov	 eax, DWORD PTR ___security_cookie
  0000b	33 c5		 xor	 eax, ebp
  0000d	89 45 fc	 mov	 DWORD PTR __$ArrayPad$[ebp], eax
  00010	56		 push	 esi
  00011	57		 push	 edi
  00012	8b 7d 08	 mov	 edi, DWORD PTR _szFileName$[ebp]
  00015	8b f1		 mov	 esi, ecx

; 71   : 	ioBaseChar *pOwner = GetOwner();

  00017	e8 00 00 00 00	 call	 ?GetOwner@ioWeapon@@QBEPAVioBaseChar@@XZ ; ioWeapon::GetOwner

; 72   : 	if( !pOwner )	

  0001c	85 c0		 test	 eax, eax
  0001e	75 07		 jne	 SHORT $LN2@CreateWeap
$LN22@CreateWeap:

; 73   : 		return false;

  00020	32 c0		 xor	 al, al
  00022	e9 a0 00 00 00	 jmp	 $LN3@CreateWeap
$LN2@CreateWeap:

; 74   : 
; 75   : 	m_pWeaponEffect = g_EffectFactory.CreateEffect( szFileName );

  00027	57		 push	 edi
  00028	ff 15 00 00 00
	00		 call	 DWORD PTR __imp_?GetSingleton@ioEffectFactory@@SAAAV1@XZ
  0002e	8b c8		 mov	 ecx, eax
  00030	ff 15 00 00 00
	00		 call	 DWORD PTR __imp_?CreateEffect@ioEffectFactory@@QAEPAVioEffect@@ABVioHashString@@@Z
  00036	89 86 94 08 00
	00		 mov	 DWORD PTR [esi+2196], eax

; 76   : 	if( !m_pWeaponEffect )	

  0003c	85 c0		 test	 eax, eax

; 77   : 		return false;

  0003e	74 e0		 je	 SHORT $LN22@CreateWeap

; 78   : 
; 79   : 	D3DXVECTOR3 vScale = D3DXVECTOR3( FLOAT1, FLOAT1, FLOAT1 );

  00040	b8 01 00 00 00	 mov	 eax, 1
  00045	8b c8		 mov	 ecx, eax
  00047	b8 01 00 00 00	 mov	 eax, 1
  0004c	8b d0		 mov	 edx, eax
  0004e	b8 01 00 00 00	 mov	 eax, 1
  00053	89 45 ec	 mov	 DWORD PTR tv246[ebp], eax
  00056	db 45 ec	 fild	 DWORD PTR tv246[ebp]
  00059	85 c0		 test	 eax, eax
  0005b	79 06		 jns	 SHORT $LN19@CreateWeap
  0005d	d8 05 00 00 00
	00		 fadd	 DWORD PTR __real@4f800000
$LN19@CreateWeap:
  00063	89 55 ec	 mov	 DWORD PTR tv243[ebp], edx
  00066	d9 5d f0	 fstp	 DWORD PTR _vScale$[ebp]
  00069	db 45 ec	 fild	 DWORD PTR tv243[ebp]
  0006c	85 d2		 test	 edx, edx
  0006e	79 06		 jns	 SHORT $LN20@CreateWeap
  00070	d8 05 00 00 00
	00		 fadd	 DWORD PTR __real@4f800000
$LN20@CreateWeap:
  00076	89 4d ec	 mov	 DWORD PTR tv240[ebp], ecx
  00079	d9 5d f4	 fstp	 DWORD PTR _vScale$[ebp+4]
  0007c	db 45 ec	 fild	 DWORD PTR tv240[ebp]
  0007f	85 c9		 test	 ecx, ecx
  00081	79 06		 jns	 SHORT $LN21@CreateWeap
  00083	d8 05 00 00 00
	00		 fadd	 DWORD PTR __real@4f800000
$LN21@CreateWeap:

; 80   : 
; 81   : 	GetParentSceneNode()->AttachObject( m_pWeaponEffect );

  00089	8b 86 94 08 00
	00		 mov	 eax, DWORD PTR [esi+2196]
  0008f	d9 5d f8	 fstp	 DWORD PTR _vScale$[ebp+8]
  00092	85 c0		 test	 eax, eax
  00094	74 05		 je	 SHORT $LN5@CreateWeap
  00096	83 c0 14	 add	 eax, 20			; 00000014H
  00099	eb 02		 jmp	 SHORT $LN6@CreateWeap
$LN5@CreateWeap:
  0009b	33 c0		 xor	 eax, eax
$LN6@CreateWeap:
  0009d	8b 4e 04	 mov	 ecx, DWORD PTR [esi+4]
  000a0	8b 11		 mov	 edx, DWORD PTR [ecx]
  000a2	50		 push	 eax
  000a3	ff 92 ac 00 00
	00		 call	 DWORD PTR [edx+172]

; 82   : 	GetParentSceneNode()->SetScale( vScale );

  000a9	8b 4e 04	 mov	 ecx, DWORD PTR [esi+4]
  000ac	8b 01		 mov	 eax, DWORD PTR [ecx]
  000ae	8d 55 f0	 lea	 edx, DWORD PTR _vScale$[ebp]
  000b1	52		 push	 edx
  000b2	ff 50 20	 call	 DWORD PTR [eax+32]

; 83   : 
; 84   : 	AddEffectEvent( m_pWeaponEffect );

  000b5	ff b6 94 08 00
	00		 push	 DWORD PTR [esi+2196]
  000bb	8b 06		 mov	 eax, DWORD PTR [esi]
  000bd	8b ce		 mov	 ecx, esi
  000bf	ff 90 68 01 00
	00		 call	 DWORD PTR [eax+360]

; 85   : 
; 86   : 	return true;

  000c5	b0 01		 mov	 al, 1
$LN3@CreateWeap:

; 87   : }

  000c7	8b 4d fc	 mov	 ecx, DWORD PTR __$ArrayPad$[ebp]
  000ca	5f		 pop	 edi
  000cb	33 cd		 xor	 ecx, ebp
  000cd	5e		 pop	 esi
  000ce	e8 00 00 00 00	 call	 @__security_check_cookie@4
  000d3	c9		 leave
  000d4	c2 04 00	 ret	 4
?CreateWeaponEffect@ioAttachAeraWeapon@@IAE_NABVioHashString@@@Z ENDP ; ioAttachAeraWeapon::CreateWeaponEffect
_TEXT	ENDS
EXTRN	?CreateAttachAreaWeapon@ioWeapon@@IAEXXZ:PROC	; ioWeapon::CreateAttachAreaWeapon
; Function compile flags: /Ogsp
;	COMDAT ?Process@ioAttachAeraWeapon@@UAEXMPAVioPlayStage@@@Z
_TEXT	SEGMENT
tv181 = -4						; size = 4
tv178 = -4						; size = 4
_fTimePerSec$ = 8					; size = 4
_pStage$ = 12						; size = 4
?Process@ioAttachAeraWeapon@@UAEXMPAVioPlayStage@@@Z PROC ; ioAttachAeraWeapon::Process, COMDAT
; _this$ = ecx

; 99   : {

  00000	55		 push	 ebp
  00001	8b ec		 mov	 ebp, esp
  00003	51		 push	 ecx
  00004	56		 push	 esi
  00005	8b f1		 mov	 esi, ecx

; 100  : 	if ( !m_bStartInit )

  00007	80 be b8 08 00
	00 00		 cmp	 BYTE PTR [esi+2232], 0
  0000e	57		 push	 edi
  0000f	75 0c		 jne	 SHORT $LN3@Process

; 101  : 	{
; 102  : 		CreateAttachAreaWeapon();

  00011	e8 00 00 00 00	 call	 ?CreateAttachAreaWeapon@ioWeapon@@IAEXXZ ; ioWeapon::CreateAttachAreaWeapon

; 103  : 		m_bStartInit = true;

  00016	c6 86 b8 08 00
	00 01		 mov	 BYTE PTR [esi+2232], 1
$LN3@Process:

; 104  : 	}
; 105  : 
; 106  : 	if( m_pWeaponEffect )

  0001d	8d 8e 94 08 00
	00		 lea	 ecx, DWORD PTR [esi+2196]
  00023	83 39 00	 cmp	 DWORD PTR [ecx], 0
  00026	74 2c		 je	 SHORT $LN2@Process

; 107  : 	{
; 108  : 		m_pWeaponEffect->Update( fTimePerSec * FLOAT1000 );

  00028	b8 e8 03 00 00	 mov	 eax, 1000		; 000003e8H
  0002d	8b 09		 mov	 ecx, DWORD PTR [ecx]
  0002f	83 c1 14	 add	 ecx, 20			; 00000014H
  00032	8b 11		 mov	 edx, DWORD PTR [ecx]
  00034	89 45 fc	 mov	 DWORD PTR tv181[ebp], eax
  00037	db 45 fc	 fild	 DWORD PTR tv181[ebp]
  0003a	85 c0		 test	 eax, eax
  0003c	79 06		 jns	 SHORT $LN8@Process
  0003e	d8 05 00 00 00
	00		 fadd	 DWORD PTR __real@4f800000
$LN8@Process:
  00044	d8 4d 08	 fmul	 DWORD PTR _fTimePerSec$[ebp]
  00047	51		 push	 ecx
  00048	d9 5d fc	 fstp	 DWORD PTR tv178[ebp]
  0004b	d9 45 fc	 fld	 DWORD PTR tv178[ebp]
  0004e	d9 1c 24	 fstp	 DWORD PTR [esp]
  00051	ff 52 40	 call	 DWORD PTR [edx+64]
$LN2@Process:

; 109  : 	}
; 110  : 
; 111  : 	if ( m_bOwnerAttach )

  00054	80 be b9 08 00
	00 00		 cmp	 BYTE PTR [esi+2233], 0
  0005b	74 15		 je	 SHORT $LN1@Process

; 112  : 	{
; 113  : 		ProcessAttachMove( fTimePerSec, pStage );

  0005d	ff 75 0c	 push	 DWORD PTR _pStage$[ebp]
  00060	f3 0f 10 45 08	 movss	 xmm0, DWORD PTR _fTimePerSec$[ebp]
  00065	51		 push	 ecx
  00066	8b ce		 mov	 ecx, esi
  00068	f3 0f 11 04 24	 movss	 DWORD PTR [esp], xmm0
  0006d	e8 00 00 00 00	 call	 ?ProcessAttachMove@ioAttachAeraWeapon@@IAEXMPAVioPlayStage@@@Z ; ioAttachAeraWeapon::ProcessAttachMove
$LN1@Process:
  00072	5f		 pop	 edi
  00073	5e		 pop	 esi

; 114  : 	}	
; 115  : }

  00074	c9		 leave
  00075	c2 08 00	 ret	 8
?Process@ioAttachAeraWeapon@@UAEXMPAVioPlayStage@@@Z ENDP ; ioAttachAeraWeapon::Process
_TEXT	ENDS
EXTRN	?DestroyAttachAreaWeapon@ioWeapon@@IAEXXZ:PROC	; ioWeapon::DestroyAttachAreaWeapon
EXTRN	?GetSingleton@ioAreaWeaponManager@@SAAAV1@XZ:PROC ; ioAreaWeaponManager::GetSingleton
EXTRN	?GetSingleton@ioWeaponManager@@SAAAV1@XZ:PROC	; ioWeaponManager::GetSingleton
EXTRN	?SetWeaponDead@ioWeapon@@UAEXXZ:PROC		; ioWeapon::SetWeaponDead
; Function compile flags: /Ogsp
;	COMDAT ?SetWeaponDead@ioAttachAeraWeapon@@UAEXXZ
_TEXT	SEGMENT
?SetWeaponDead@ioAttachAeraWeapon@@UAEXXZ PROC		; ioAttachAeraWeapon::SetWeaponDead, COMDAT
; _this$ = ecx

; 118  : {

  00000	56		 push	 esi
  00001	8b f1		 mov	 esi, ecx

; 119  : 	ioWeapon::SetWeaponDead();

  00003	e8 00 00 00 00	 call	 ?SetWeaponDead@ioWeapon@@UAEXXZ ; ioWeapon::SetWeaponDead

; 120  : 
; 121  : 	if ( g_WeaponMgr.GetSingletonPtr() && g_AreaWeaponMgr.GetSingletonPtr() )

  00008	e8 00 00 00 00	 call	 ?GetSingleton@ioWeaponManager@@SAAAV1@XZ ; ioWeaponManager::GetSingleton
  0000d	83 3d 00 00 00
	00 00		 cmp	 DWORD PTR ?ms_Singleton@?$Singleton@VioWeaponManager@@@@1PAVioWeaponManager@@A, 0 ; Singleton<ioWeaponManager>::ms_Singleton
  00014	74 20		 je	 SHORT $LN1@SetWeaponD
  00016	e8 00 00 00 00	 call	 ?GetSingleton@ioAreaWeaponManager@@SAAAV1@XZ ; ioAreaWeaponManager::GetSingleton
  0001b	83 3d 00 00 00
	00 00		 cmp	 DWORD PTR ?ms_Singleton@?$Singleton@VioAreaWeaponManager@@@@1PAVioAreaWeaponManager@@A, 0 ; Singleton<ioAreaWeaponManager>::ms_Singleton
  00022	74 12		 je	 SHORT $LN1@SetWeaponD

; 122  : 	{
; 123  : 		//  
; 124  : 		CheckCreateWeaponList();

  00024	8b 06		 mov	 eax, DWORD PTR [esi]
  00026	8b ce		 mov	 ecx, esi
  00028	ff 90 50 01 00
	00		 call	 DWORD PTR [eax+336]

; 125  : 		//  
; 126  : 		DestroyAttachAreaWeapon();

  0002e	8b ce		 mov	 ecx, esi
  00030	5e		 pop	 esi
  00031	e9 00 00 00 00	 jmp	 ?DestroyAttachAreaWeapon@ioWeapon@@IAEXXZ ; ioWeapon::DestroyAttachAreaWeapon
$LN1@SetWeaponD:
  00036	5e		 pop	 esi

; 127  : 	}
; 128  : }

  00037	c3		 ret	 0
?SetWeaponDead@ioAttachAeraWeapon@@UAEXXZ ENDP		; ioAttachAeraWeapon::SetWeaponDead
_TEXT	ENDS
PUBLIC	_this$GSCopy$
PUBLIC	__$ArrayPad$
PUBLIC	??$LoadString_e@$0BC@@ioINILoader@@QAEXAAY0BC@$$CBDAAY00$$CBDPADH@Z ; ioINILoader::LoadString_e<18>
EXTRN	__imp_?LoadStringA@ioINILoader@@QAEXPBD0PADH@Z:PROC
; Function compile flags: /Ogsp
; File d:\lost saga for developer\youtube\tutorial\source\src\io3dengine\ioiniloader.h
;	COMDAT ??$LoadString_e@$0BC@@ioINILoader@@QAEXAAY0BC@$$CBDAAY00$$CBDPADH@Z
_TEXT	SEGMENT
_this$GSCopy$ = -32					; size = 4
__k$ = -28						; size = 18
__$ArrayPad$ = -4					; size = 4
_k$ = 8							; size = 4
_d$ = 12						; size = 4
_b$ = 16						; size = 4
_i$ = 20						; size = 4
??$LoadString_e@$0BC@@ioINILoader@@QAEXAAY0BC@$$CBDAAY00$$CBDPADH@Z PROC ; ioINILoader::LoadString_e<18>, COMDAT
; _this$ = ecx

; 161  : 	{

  00000	55		 push	 ebp
  00001	8b ec		 mov	 ebp, esp
  00003	83 ec 20	 sub	 esp, 32			; 00000020H
  00006	a1 00 00 00 00	 mov	 eax, DWORD PTR ___security_cookie
  0000b	33 c5		 xor	 eax, ebp
  0000d	89 45 fc	 mov	 DWORD PTR __$ArrayPad$[ebp], eax
  00010	8b 45 08	 mov	 eax, DWORD PTR _k$[ebp]

; 162  : 		_ENCSTR(k, _k);

  00013	8a 10		 mov	 dl, BYTE PTR [eax]
  00015	56		 push	 esi
  00016	8b 75 0c	 mov	 esi, DWORD PTR _d$[ebp]
  00019	57		 push	 edi
  0001a	8b 7d 10	 mov	 edi, DWORD PTR _b$[ebp]
  0001d	89 4d e0	 mov	 DWORD PTR _this$GSCopy$[ebp], ecx
  00020	84 d2		 test	 dl, dl
  00022	0f 84 be 01 00
	00		 je	 $LN96@LoadString
  00028	80 f2 ed	 xor	 dl, -19			; ffffffedH
  0002b	88 55 e4	 mov	 BYTE PTR __k$[ebp], dl
  0002e	8a 50 01	 mov	 dl, BYTE PTR [eax+1]
  00031	84 d2		 test	 dl, dl
  00033	0f 84 a7 01 00
	00		 je	 $LN95@LoadString
  00039	80 f2 ec	 xor	 dl, -20			; ffffffecH
  0003c	88 55 e5	 mov	 BYTE PTR __k$[ebp+1], dl
  0003f	8a 50 02	 mov	 dl, BYTE PTR [eax+2]
  00042	84 d2		 test	 dl, dl
  00044	0f 84 90 01 00
	00		 je	 $LN94@LoadString
  0004a	b1 eb		 mov	 cl, -21			; ffffffebH
  0004c	32 d1		 xor	 dl, cl
  0004e	88 55 e6	 mov	 BYTE PTR __k$[ebp+2], dl
  00051	8a 50 03	 mov	 dl, BYTE PTR [eax+3]
  00054	84 d2		 test	 dl, dl
  00056	0f 84 78 01 00
	00		 je	 $LN93@LoadString
  0005c	80 f2 ea	 xor	 dl, -22			; ffffffeaH
  0005f	88 55 e7	 mov	 BYTE PTR __k$[ebp+3], dl
  00062	8a 50 04	 mov	 dl, BYTE PTR [eax+4]
  00065	84 d2		 test	 dl, dl
  00067	0f 84 61 01 00
	00		 je	 $LN92@LoadString
  0006d	80 f2 ed	 xor	 dl, -19			; ffffffedH
  00070	88 55 e8	 mov	 BYTE PTR __k$[ebp+4], dl
  00073	8a 50 05	 mov	 dl, BYTE PTR [eax+5]
  00076	84 d2		 test	 dl, dl
  00078	0f 84 4a 01 00
	00		 je	 $LN91@LoadString
  0007e	80 f2 ec	 xor	 dl, -20			; ffffffecH
  00081	88 55 e9	 mov	 BYTE PTR __k$[ebp+5], dl
  00084	8a 50 06	 mov	 dl, BYTE PTR [eax+6]
  00087	84 d2		 test	 dl, dl
  00089	0f 84 34 01 00
	00		 je	 $LN90@LoadString
  0008f	32 d1		 xor	 dl, cl
  00091	88 55 ea	 mov	 BYTE PTR __k$[ebp+6], dl
  00094	8a 50 07	 mov	 dl, BYTE PTR [eax+7]
  00097	84 d2		 test	 dl, dl
  00099	0f 84 1e 01 00
	00		 je	 $LN89@LoadString
  0009f	80 f2 ea	 xor	 dl, -22			; ffffffeaH
  000a2	88 55 eb	 mov	 BYTE PTR __k$[ebp+7], dl
  000a5	8a 50 08	 mov	 dl, BYTE PTR [eax+8]
  000a8	84 d2		 test	 dl, dl
  000aa	0f 84 07 01 00
	00		 je	 $LN88@LoadString
  000b0	80 f2 ed	 xor	 dl, -19			; ffffffedH
  000b3	88 55 ec	 mov	 BYTE PTR __k$[ebp+8], dl
  000b6	8a 50 09	 mov	 dl, BYTE PTR [eax+9]
  000b9	84 d2		 test	 dl, dl
  000bb	0f 84 f0 00 00
	00		 je	 $LN87@LoadString
  000c1	80 f2 ec	 xor	 dl, -20			; ffffffecH
  000c4	88 55 ed	 mov	 BYTE PTR __k$[ebp+9], dl
  000c7	8a 50 0a	 mov	 dl, BYTE PTR [eax+10]
  000ca	84 d2		 test	 dl, dl
  000cc	0f 84 da 00 00
	00		 je	 $LN86@LoadString
  000d2	32 d1		 xor	 dl, cl
  000d4	88 55 ee	 mov	 BYTE PTR __k$[ebp+10], dl
  000d7	8a 50 0b	 mov	 dl, BYTE PTR [eax+11]
  000da	84 d2		 test	 dl, dl
  000dc	0f 84 c4 00 00
	00		 je	 $LN85@LoadString
  000e2	80 f2 ea	 xor	 dl, -22			; ffffffeaH
  000e5	88 55 ef	 mov	 BYTE PTR __k$[ebp+11], dl
  000e8	8a 50 0c	 mov	 dl, BYTE PTR [eax+12]
  000eb	84 d2		 test	 dl, dl
  000ed	0f 84 ad 00 00
	00		 je	 $LN84@LoadString
  000f3	80 f2 ed	 xor	 dl, -19			; ffffffedH
  000f6	88 55 f0	 mov	 BYTE PTR __k$[ebp+12], dl
  000f9	8a 50 0d	 mov	 dl, BYTE PTR [eax+13]
  000fc	84 d2		 test	 dl, dl
  000fe	0f 84 96 00 00
	00		 je	 $LN83@LoadString
  00104	80 f2 ec	 xor	 dl, -20			; ffffffecH
  00107	88 55 f1	 mov	 BYTE PTR __k$[ebp+13], dl
  0010a	8a 50 0e	 mov	 dl, BYTE PTR [eax+14]
  0010d	84 d2		 test	 dl, dl
  0010f	0f 84 80 00 00
	00		 je	 $LN82@LoadString
  00115	32 d1		 xor	 dl, cl
  00117	88 55 f2	 mov	 BYTE PTR __k$[ebp+14], dl
  0011a	8a 50 0f	 mov	 dl, BYTE PTR [eax+15]
  0011d	84 d2		 test	 dl, dl
  0011f	74 6e		 je	 SHORT $LN81@LoadString
  00121	80 f2 ea	 xor	 dl, -22			; ffffffeaH
  00124	88 55 f3	 mov	 BYTE PTR __k$[ebp+15], dl
  00127	8a 50 10	 mov	 dl, BYTE PTR [eax+16]
  0012a	84 d2		 test	 dl, dl
  0012c	74 5b		 je	 SHORT $LN80@LoadString
  0012e	80 f2 ed	 xor	 dl, -19			; ffffffedH
  00131	80 78 11 00	 cmp	 BYTE PTR [eax+17], 0
  00135	88 55 f4	 mov	 BYTE PTR __k$[ebp+16], dl
  00138	0f 84 ac 00 00
	00		 je	 $LN111@LoadString
  0013e	8a 50 12	 mov	 dl, BYTE PTR [eax+18]
  00141	84 d2		 test	 dl, dl
  00143	74 3f		 je	 SHORT $LN78@LoadString
  00145	32 d1		 xor	 dl, cl
  00147	88 55 f6	 mov	 BYTE PTR __k$[ebp+18], dl
  0014a	8a 50 13	 mov	 dl, BYTE PTR [eax+19]
  0014d	84 d2		 test	 dl, dl
  0014f	74 2d		 je	 SHORT $LN77@LoadString
  00151	80 f2 ea	 xor	 dl, -22			; ffffffeaH
  00154	88 55 f7	 mov	 BYTE PTR __k$[ebp+19], dl
  00157	8a 50 14	 mov	 dl, BYTE PTR [eax+20]
  0015a	84 d2		 test	 dl, dl
  0015c	74 1a		 je	 SHORT $LN76@LoadString
  0015e	8a 40 15	 mov	 al, BYTE PTR [eax+21]
  00161	80 f2 ed	 xor	 dl, -19			; ffffffedH
  00164	88 55 f8	 mov	 BYTE PTR __k$[ebp+20], dl
  00167	84 c0		 test	 al, al
  00169	74 07		 je	 SHORT $LN75@LoadString
  0016b	34 ec		 xor	 al, -20			; ffffffecH
  0016d	88 45 f9	 mov	 BYTE PTR __k$[ebp+21], al
  00170	eb 78		 jmp	 SHORT $LN111@LoadString
$LN75@LoadString:
  00172	c6 45 f9 ec	 mov	 BYTE PTR __k$[ebp+21], -20 ; ffffffecH
  00176	eb 72		 jmp	 SHORT $LN111@LoadString
$LN76@LoadString:
  00178	c6 45 f8 ed	 mov	 BYTE PTR __k$[ebp+20], -19 ; ffffffedH
  0017c	eb 6c		 jmp	 SHORT $LN111@LoadString
$LN77@LoadString:
  0017e	c6 45 f7 ea	 mov	 BYTE PTR __k$[ebp+19], -22 ; ffffffeaH
  00182	eb 66		 jmp	 SHORT $LN111@LoadString
$LN78@LoadString:
  00184	88 4d f6	 mov	 BYTE PTR __k$[ebp+18], cl
  00187	eb 61		 jmp	 SHORT $LN111@LoadString
$LN80@LoadString:
  00189	c6 45 f4 ed	 mov	 BYTE PTR __k$[ebp+16], -19 ; ffffffedH
  0018d	eb 5b		 jmp	 SHORT $LN111@LoadString
$LN81@LoadString:
  0018f	c6 45 f3 ea	 mov	 BYTE PTR __k$[ebp+15], -22 ; ffffffeaH
  00193	eb 55		 jmp	 SHORT $LN111@LoadString
$LN82@LoadString:
  00195	88 4d f2	 mov	 BYTE PTR __k$[ebp+14], cl
  00198	eb 50		 jmp	 SHORT $LN111@LoadString
$LN83@LoadString:
  0019a	c6 45 f1 ec	 mov	 BYTE PTR __k$[ebp+13], -20 ; ffffffecH
  0019e	eb 4a		 jmp	 SHORT $LN111@LoadString
$LN84@LoadString:
  001a0	c6 45 f0 ed	 mov	 BYTE PTR __k$[ebp+12], -19 ; ffffffedH
  001a4	eb 44		 jmp	 SHORT $LN111@LoadString
$LN85@LoadString:
  001a6	c6 45 ef ea	 mov	 BYTE PTR __k$[ebp+11], -22 ; ffffffeaH
  001aa	eb 3e		 jmp	 SHORT $LN111@LoadString
$LN86@LoadString:
  001ac	88 4d ee	 mov	 BYTE PTR __k$[ebp+10], cl
  001af	eb 39		 jmp	 SHORT $LN111@LoadString
$LN87@LoadString:
  001b1	c6 45 ed ec	 mov	 BYTE PTR __k$[ebp+9], -20 ; ffffffecH
  001b5	eb 33		 jmp	 SHORT $LN111@LoadString
$LN88@LoadString:
  001b7	c6 45 ec ed	 mov	 BYTE PTR __k$[ebp+8], -19 ; ffffffedH
  001bb	eb 2d		 jmp	 SHORT $LN111@LoadString
$LN89@LoadString:
  001bd	c6 45 eb ea	 mov	 BYTE PTR __k$[ebp+7], -22 ; ffffffeaH
  001c1	eb 27		 jmp	 SHORT $LN111@LoadString
$LN90@LoadString:
  001c3	88 4d ea	 mov	 BYTE PTR __k$[ebp+6], cl
  001c6	eb 22		 jmp	 SHORT $LN111@LoadString
$LN91@LoadString:
  001c8	c6 45 e9 ec	 mov	 BYTE PTR __k$[ebp+5], -20 ; ffffffecH
  001cc	eb 1c		 jmp	 SHORT $LN111@LoadString
$LN92@LoadString:
  001ce	c6 45 e8 ed	 mov	 BYTE PTR __k$[ebp+4], -19 ; ffffffedH
  001d2	eb 16		 jmp	 SHORT $LN111@LoadString
$LN93@LoadString:
  001d4	c6 45 e7 ea	 mov	 BYTE PTR __k$[ebp+3], -22 ; ffffffeaH
  001d8	eb 10		 jmp	 SHORT $LN111@LoadString
$LN94@LoadString:
  001da	c6 45 e6 eb	 mov	 BYTE PTR __k$[ebp+2], -21 ; ffffffebH
  001de	eb 0a		 jmp	 SHORT $LN111@LoadString
$LN95@LoadString:
  001e0	c6 45 e5 ec	 mov	 BYTE PTR __k$[ebp+1], -20 ; ffffffecH
  001e4	eb 04		 jmp	 SHORT $LN111@LoadString
$LN96@LoadString:
  001e6	c6 45 e4 ed	 mov	 BYTE PTR __k$[ebp], -19	; ffffffedH
$LN111@LoadString:
  001ea	6a 04		 push	 4
  001ec	8d 45 e4	 lea	 eax, DWORD PTR __k$[ebp]
  001ef	c6 45 f5 00	 mov	 BYTE PTR __k$[ebp+17], 0
  001f3	5a		 pop	 edx
$LL104@LoadString:
  001f4	81 30 ed ec eb
	ea		 xor	 DWORD PTR [eax], -353637139 ; eaebecedH
  001fa	83 c0 04	 add	 eax, 4
  001fd	4a		 dec	 edx
  001fe	75 f4		 jne	 SHORT $LL104@LoadString

; 163  : 		LoadString(_k, d, b, i);

  00200	ff 75 14	 push	 DWORD PTR _i$[ebp]
  00203	8b 4d e0	 mov	 ecx, DWORD PTR _this$GSCopy$[ebp]
  00206	80 75 f4 ed	 xor	 BYTE PTR __k$[ebp+16], -19 ; ffffffedH
  0020a	57		 push	 edi
  0020b	56		 push	 esi
  0020c	8d 45 e4	 lea	 eax, DWORD PTR __k$[ebp]
  0020f	50		 push	 eax
  00210	ff 15 00 00 00
	00		 call	 DWORD PTR __imp_?LoadStringA@ioINILoader@@QAEXPBD0PADH@Z

; 164  : 	}

  00216	8b 4d fc	 mov	 ecx, DWORD PTR __$ArrayPad$[ebp]
  00219	5f		 pop	 edi
  0021a	33 cd		 xor	 ecx, ebp
  0021c	5e		 pop	 esi
  0021d	e8 00 00 00 00	 call	 @__security_check_cookie@4
  00222	c9		 leave
  00223	c2 10 00	 ret	 16			; 00000010H
??$LoadString_e@$0BC@@ioINILoader@@QAEXAAY0BC@$$CBDAAY00$$CBDPADH@Z ENDP ; ioINILoader::LoadString_e<18>
_TEXT	ENDS
PUBLIC	_this$GSCopy$
PUBLIC	__$ArrayPad$
PUBLIC	??$LoadString_e@$0BD@@ioINILoader@@QAEXAAY0BD@$$CBDAAY00$$CBDPADH@Z ; ioINILoader::LoadString_e<19>
; Function compile flags: /Ogsp
;	COMDAT ??$LoadString_e@$0BD@@ioINILoader@@QAEXAAY0BD@$$CBDAAY00$$CBDPADH@Z
_TEXT	SEGMENT
_this$GSCopy$ = -32					; size = 4
__k$ = -28						; size = 19
__$ArrayPad$ = -4					; size = 4
_k$ = 8							; size = 4
_d$ = 12						; size = 4
_b$ = 16						; size = 4
_i$ = 20						; size = 4
??$LoadString_e@$0BD@@ioINILoader@@QAEXAAY0BD@$$CBDAAY00$$CBDPADH@Z PROC ; ioINILoader::LoadString_e<19>, COMDAT
; _this$ = ecx

; 161  : 	{

  00000	55		 push	 ebp
  00001	8b ec		 mov	 ebp, esp
  00003	83 ec 20	 sub	 esp, 32			; 00000020H
  00006	a1 00 00 00 00	 mov	 eax, DWORD PTR ___security_cookie
  0000b	33 c5		 xor	 eax, ebp
  0000d	89 45 fc	 mov	 DWORD PTR __$ArrayPad$[ebp], eax
  00010	8b 45 08	 mov	 eax, DWORD PTR _k$[ebp]

; 162  : 		_ENCSTR(k, _k);

  00013	8a 10		 mov	 dl, BYTE PTR [eax]
  00015	56		 push	 esi
  00016	8b 75 0c	 mov	 esi, DWORD PTR _d$[ebp]
  00019	57		 push	 edi
  0001a	8b 7d 10	 mov	 edi, DWORD PTR _b$[ebp]
  0001d	89 4d e0	 mov	 DWORD PTR _this$GSCopy$[ebp], ecx
  00020	84 d2		 test	 dl, dl
  00022	0f 84 cf 01 00
	00		 je	 $LN96@LoadString@2
  00028	80 f2 ed	 xor	 dl, -19			; ffffffedH
  0002b	88 55 e4	 mov	 BYTE PTR __k$[ebp], dl
  0002e	8a 50 01	 mov	 dl, BYTE PTR [eax+1]
  00031	84 d2		 test	 dl, dl
  00033	0f 84 b8 01 00
	00		 je	 $LN95@LoadString@2
  00039	b1 ec		 mov	 cl, -20			; ffffffecH
  0003b	32 d1		 xor	 dl, cl
  0003d	88 55 e5	 mov	 BYTE PTR __k$[ebp+1], dl
  00040	8a 50 02	 mov	 dl, BYTE PTR [eax+2]
  00043	84 d2		 test	 dl, dl
  00045	0f 84 a0 01 00
	00		 je	 $LN94@LoadString@2
  0004b	80 f2 eb	 xor	 dl, -21			; ffffffebH
  0004e	88 55 e6	 mov	 BYTE PTR __k$[ebp+2], dl
  00051	8a 50 03	 mov	 dl, BYTE PTR [eax+3]
  00054	84 d2		 test	 dl, dl
  00056	0f 84 89 01 00
	00		 je	 $LN93@LoadString@2
  0005c	80 f2 ea	 xor	 dl, -22			; ffffffeaH
  0005f	88 55 e7	 mov	 BYTE PTR __k$[ebp+3], dl
  00062	8a 50 04	 mov	 dl, BYTE PTR [eax+4]
  00065	84 d2		 test	 dl, dl
  00067	0f 84 72 01 00
	00		 je	 $LN92@LoadString@2
  0006d	80 f2 ed	 xor	 dl, -19			; ffffffedH
  00070	88 55 e8	 mov	 BYTE PTR __k$[ebp+4], dl
  00073	8a 50 05	 mov	 dl, BYTE PTR [eax+5]
  00076	84 d2		 test	 dl, dl
  00078	0f 84 5c 01 00
	00		 je	 $LN91@LoadString@2
  0007e	32 d1		 xor	 dl, cl
  00080	88 55 e9	 mov	 BYTE PTR __k$[ebp+5], dl
  00083	8a 50 06	 mov	 dl, BYTE PTR [eax+6]
  00086	84 d2		 test	 dl, dl
  00088	0f 84 46 01 00
	00		 je	 $LN90@LoadString@2
  0008e	80 f2 eb	 xor	 dl, -21			; ffffffebH
  00091	88 55 ea	 mov	 BYTE PTR __k$[ebp+6], dl
  00094	8a 50 07	 mov	 dl, BYTE PTR [eax+7]
  00097	84 d2		 test	 dl, dl
  00099	0f 84 2f 01 00
	00		 je	 $LN89@LoadString@2
  0009f	80 f2 ea	 xor	 dl, -22			; ffffffeaH
  000a2	88 55 eb	 mov	 BYTE PTR __k$[ebp+7], dl
  000a5	8a 50 08	 mov	 dl, BYTE PTR [eax+8]
  000a8	84 d2		 test	 dl, dl
  000aa	0f 84 18 01 00
	00		 je	 $LN88@LoadString@2
  000b0	80 f2 ed	 xor	 dl, -19			; ffffffedH
  000b3	88 55 ec	 mov	 BYTE PTR __k$[ebp+8], dl
  000b6	8a 50 09	 mov	 dl, BYTE PTR [eax+9]
  000b9	84 d2		 test	 dl, dl
  000bb	0f 84 02 01 00
	00		 je	 $LN87@LoadString@2
  000c1	32 d1		 xor	 dl, cl
  000c3	88 55 ed	 mov	 BYTE PTR __k$[ebp+9], dl
  000c6	8a 50 0a	 mov	 dl, BYTE PTR [eax+10]
  000c9	84 d2		 test	 dl, dl
  000cb	0f 84 ec 00 00
	00		 je	 $LN86@LoadString@2
  000d1	80 f2 eb	 xor	 dl, -21			; ffffffebH
  000d4	88 55 ee	 mov	 BYTE PTR __k$[ebp+10], dl
  000d7	8a 50 0b	 mov	 dl, BYTE PTR [eax+11]
  000da	84 d2		 test	 dl, dl
  000dc	0f 84 d5 00 00
	00		 je	 $LN85@LoadString@2
  000e2	80 f2 ea	 xor	 dl, -22			; ffffffeaH
  000e5	88 55 ef	 mov	 BYTE PTR __k$[ebp+11], dl
  000e8	8a 50 0c	 mov	 dl, BYTE PTR [eax+12]
  000eb	84 d2		 test	 dl, dl
  000ed	0f 84 be 00 00
	00		 je	 $LN84@LoadString@2
  000f3	80 f2 ed	 xor	 dl, -19			; ffffffedH
  000f6	88 55 f0	 mov	 BYTE PTR __k$[ebp+12], dl
  000f9	8a 50 0d	 mov	 dl, BYTE PTR [eax+13]
  000fc	84 d2		 test	 dl, dl
  000fe	0f 84 a8 00 00
	00		 je	 $LN83@LoadString@2
  00104	32 d1		 xor	 dl, cl
  00106	88 55 f1	 mov	 BYTE PTR __k$[ebp+13], dl
  00109	8a 50 0e	 mov	 dl, BYTE PTR [eax+14]
  0010c	84 d2		 test	 dl, dl
  0010e	0f 84 92 00 00
	00		 je	 $LN82@LoadString@2
  00114	80 f2 eb	 xor	 dl, -21			; ffffffebH
  00117	88 55 f2	 mov	 BYTE PTR __k$[ebp+14], dl
  0011a	8a 50 0f	 mov	 dl, BYTE PTR [eax+15]
  0011d	84 d2		 test	 dl, dl
  0011f	74 7f		 je	 SHORT $LN81@LoadString@2
  00121	80 f2 ea	 xor	 dl, -22			; ffffffeaH
  00124	88 55 f3	 mov	 BYTE PTR __k$[ebp+15], dl
  00127	8a 50 10	 mov	 dl, BYTE PTR [eax+16]
  0012a	84 d2		 test	 dl, dl
  0012c	74 6c		 je	 SHORT $LN80@LoadString@2
  0012e	80 f2 ed	 xor	 dl, -19			; ffffffedH
  00131	88 55 f4	 mov	 BYTE PTR __k$[ebp+16], dl
  00134	8a 50 11	 mov	 dl, BYTE PTR [eax+17]
  00137	84 d2		 test	 dl, dl
  00139	74 5a		 je	 SHORT $LN79@LoadString@2
  0013b	32 d1		 xor	 dl, cl
  0013d	80 78 12 00	 cmp	 BYTE PTR [eax+18], 0
  00141	88 55 f5	 mov	 BYTE PTR __k$[ebp+17], dl
  00144	0f 84 b1 00 00
	00		 je	 $LN111@LoadString@2
  0014a	8a 50 13	 mov	 dl, BYTE PTR [eax+19]
  0014d	84 d2		 test	 dl, dl
  0014f	74 3e		 je	 SHORT $LN77@LoadString@2
  00151	80 f2 ea	 xor	 dl, -22			; ffffffeaH
  00154	88 55 f7	 mov	 BYTE PTR __k$[ebp+19], dl
  00157	8a 50 14	 mov	 dl, BYTE PTR [eax+20]
  0015a	84 d2		 test	 dl, dl
  0015c	74 2b		 je	 SHORT $LN76@LoadString@2
  0015e	80 f2 ed	 xor	 dl, -19			; ffffffedH
  00161	88 55 f8	 mov	 BYTE PTR __k$[ebp+20], dl
  00164	8a 50 15	 mov	 dl, BYTE PTR [eax+21]
  00167	84 d2		 test	 dl, dl
  00169	74 19		 je	 SHORT $LN75@LoadString@2
  0016b	8a 40 16	 mov	 al, BYTE PTR [eax+22]
  0016e	32 d1		 xor	 dl, cl
  00170	88 55 f9	 mov	 BYTE PTR __k$[ebp+21], dl
  00173	84 c0		 test	 al, al
  00175	74 07		 je	 SHORT $LN74@LoadString@2
  00177	34 eb		 xor	 al, -21			; ffffffebH
  00179	88 45 fa	 mov	 BYTE PTR __k$[ebp+22], al
  0017c	eb 7d		 jmp	 SHORT $LN111@LoadString@2
$LN74@LoadString@2:
  0017e	c6 45 fa eb	 mov	 BYTE PTR __k$[ebp+22], -21 ; ffffffebH
  00182	eb 77		 jmp	 SHORT $LN111@LoadString@2
$LN75@LoadString@2:
  00184	88 4d f9	 mov	 BYTE PTR __k$[ebp+21], cl
  00187	eb 72		 jmp	 SHORT $LN111@LoadString@2
$LN76@LoadString@2:
  00189	c6 45 f8 ed	 mov	 BYTE PTR __k$[ebp+20], -19 ; ffffffedH
  0018d	eb 6c		 jmp	 SHORT $LN111@LoadString@2
$LN77@LoadString@2:
  0018f	c6 45 f7 ea	 mov	 BYTE PTR __k$[ebp+19], -22 ; ffffffeaH
  00193	eb 66		 jmp	 SHORT $LN111@LoadString@2
$LN79@LoadString@2:
  00195	88 4d f5	 mov	 BYTE PTR __k$[ebp+17], cl
  00198	eb 61		 jmp	 SHORT $LN111@LoadString@2
$LN80@LoadString@2:
  0019a	c6 45 f4 ed	 mov	 BYTE PTR __k$[ebp+16], -19 ; ffffffedH
  0019e	eb 5b		 jmp	 SHORT $LN111@LoadString@2
$LN81@LoadString@2:
  001a0	c6 45 f3 ea	 mov	 BYTE PTR __k$[ebp+15], -22 ; ffffffeaH
  001a4	eb 55		 jmp	 SHORT $LN111@LoadString@2
$LN82@LoadString@2:
  001a6	c6 45 f2 eb	 mov	 BYTE PTR __k$[ebp+14], -21 ; ffffffebH
  001aa	eb 4f		 jmp	 SHORT $LN111@LoadString@2
$LN83@LoadString@2:
  001ac	88 4d f1	 mov	 BYTE PTR __k$[ebp+13], cl
  001af	eb 4a		 jmp	 SHORT $LN111@LoadString@2
$LN84@LoadString@2:
  001b1	c6 45 f0 ed	 mov	 BYTE PTR __k$[ebp+12], -19 ; ffffffedH
  001b5	eb 44		 jmp	 SHORT $LN111@LoadString@2
$LN85@LoadString@2:
  001b7	c6 45 ef ea	 mov	 BYTE PTR __k$[ebp+11], -22 ; ffffffeaH
  001bb	eb 3e		 jmp	 SHORT $LN111@LoadString@2
$LN86@LoadString@2:
  001bd	c6 45 ee eb	 mov	 BYTE PTR __k$[ebp+10], -21 ; ffffffebH
  001c1	eb 38		 jmp	 SHORT $LN111@LoadString@2
$LN87@LoadString@2:
  001c3	88 4d ed	 mov	 BYTE PTR __k$[ebp+9], cl
  001c6	eb 33		 jmp	 SHORT $LN111@LoadString@2
$LN88@LoadString@2:
  001c8	c6 45 ec ed	 mov	 BYTE PTR __k$[ebp+8], -19 ; ffffffedH
  001cc	eb 2d		 jmp	 SHORT $LN111@LoadString@2
$LN89@LoadString@2:
  001ce	c6 45 eb ea	 mov	 BYTE PTR __k$[ebp+7], -22 ; ffffffeaH
  001d2	eb 27		 jmp	 SHORT $LN111@LoadString@2
$LN90@LoadString@2:
  001d4	c6 45 ea eb	 mov	 BYTE PTR __k$[ebp+6], -21 ; ffffffebH
  001d8	eb 21		 jmp	 SHORT $LN111@LoadString@2
$LN91@LoadString@2:
  001da	88 4d e9	 mov	 BYTE PTR __k$[ebp+5], cl
  001dd	eb 1c		 jmp	 SHORT $LN111@LoadString@2
$LN92@LoadString@2:
  001df	c6 45 e8 ed	 mov	 BYTE PTR __k$[ebp+4], -19 ; ffffffedH
  001e3	eb 16		 jmp	 SHORT $LN111@LoadString@2
$LN93@LoadString@2:
  001e5	c6 45 e7 ea	 mov	 BYTE PTR __k$[ebp+3], -22 ; ffffffeaH
  001e9	eb 10		 jmp	 SHORT $LN111@LoadString@2
$LN94@LoadString@2:
  001eb	c6 45 e6 eb	 mov	 BYTE PTR __k$[ebp+2], -21 ; ffffffebH
  001ef	eb 0a		 jmp	 SHORT $LN111@LoadString@2
$LN95@LoadString@2:
  001f1	c6 45 e5 ec	 mov	 BYTE PTR __k$[ebp+1], -20 ; ffffffecH
  001f5	eb 04		 jmp	 SHORT $LN111@LoadString@2
$LN96@LoadString@2:
  001f7	c6 45 e4 ed	 mov	 BYTE PTR __k$[ebp], -19	; ffffffedH
$LN111@LoadString@2:
  001fb	6a 04		 push	 4
  001fd	8d 45 e4	 lea	 eax, DWORD PTR __k$[ebp]
  00200	c6 45 f6 00	 mov	 BYTE PTR __k$[ebp+18], 0
  00204	5a		 pop	 edx
$LL104@LoadString@2:
  00205	81 30 ed ec eb
	ea		 xor	 DWORD PTR [eax], -353637139 ; eaebecedH
  0020b	83 c0 04	 add	 eax, 4
  0020e	4a		 dec	 edx
  0020f	75 f4		 jne	 SHORT $LL104@LoadString@2
  00211	6a 10		 push	 16			; 00000010H
  00213	58		 pop	 eax
$LL101@LoadString@2:
  00214	8b c8		 mov	 ecx, eax
  00216	81 e1 03 00 00
	80		 and	 ecx, -2147483645	; 80000003H
  0021c	79 05		 jns	 SHORT $LN112@LoadString@2
  0021e	49		 dec	 ecx
  0021f	83 c9 fc	 or	 ecx, -4			; fffffffcH
  00222	41		 inc	 ecx
$LN112@LoadString@2:
  00223	b2 ed		 mov	 dl, -19			; ffffffedH
  00225	2a d1		 sub	 dl, cl
  00227	30 54 05 e4	 xor	 BYTE PTR __k$[ebp+eax], dl
  0022b	40		 inc	 eax
  0022c	83 f8 12	 cmp	 eax, 18			; 00000012H
  0022f	7c e3		 jl	 SHORT $LL101@LoadString@2

; 163  : 		LoadString(_k, d, b, i);

  00231	ff 75 14	 push	 DWORD PTR _i$[ebp]
  00234	8b 4d e0	 mov	 ecx, DWORD PTR _this$GSCopy$[ebp]
  00237	57		 push	 edi
  00238	56		 push	 esi
  00239	8d 45 e4	 lea	 eax, DWORD PTR __k$[ebp]
  0023c	50		 push	 eax
  0023d	ff 15 00 00 00
	00		 call	 DWORD PTR __imp_?LoadStringA@ioINILoader@@QAEXPBD0PADH@Z

; 164  : 	}

  00243	8b 4d fc	 mov	 ecx, DWORD PTR __$ArrayPad$[ebp]
  00246	5f		 pop	 edi
  00247	33 cd		 xor	 ecx, ebp
  00249	5e		 pop	 esi
  0024a	e8 00 00 00 00	 call	 @__security_check_cookie@4
  0024f	c9		 leave
  00250	c2 10 00	 ret	 16			; 00000010H
??$LoadString_e@$0BD@@ioINILoader@@QAEXAAY0BD@$$CBDAAY00$$CBDPADH@Z ENDP ; ioINILoader::LoadString_e<19>
_TEXT	ENDS
PUBLIC	??B?$CEncrypt@W4TeamType@@@@QBE?AW4TeamType@@XZ	; CEncrypt<enum TeamType>::operator enum TeamType
; Function compile flags: /Ogsp
; File d:\lost saga for developer\youtube\tutorial\source\src\lsclient\encryptvalue.h
;	COMDAT ??B?$CEncrypt@W4TeamType@@@@QBE?AW4TeamType@@XZ
_TEXT	SEGMENT
_value$ = -4						; size = 4
??B?$CEncrypt@W4TeamType@@@@QBE?AW4TeamType@@XZ PROC	; CEncrypt<enum TeamType>::operator enum TeamType, COMDAT
; _this$ = ecx

; 145  : 	{

  00000	55		 push	 ebp
  00001	8b ec		 mov	 ebp, esp
  00003	51		 push	 ecx

; 146  : 		//UJ 130829, const    --start
; 147  : 		type value;
; 148  : 		CEncrypt<type>* pThis = const_cast<CEncrypt<type>*>(this);
; 149  : 		pThis->DecryptValueToPool(&value);

  00004	8d 45 fc	 lea	 eax, DWORD PTR _value$[ebp]
  00007	50		 push	 eax
  00008	e8 00 00 00 00	 call	 ?DecryptValueToPool@?$CEncrypt@W4TeamType@@@@QAEXPAW4TeamType@@@Z ; CEncrypt<enum TeamType>::DecryptValueToPool

; 150  : 		//// const DecryptValueToPool     .
; 151  :  		//type value;
; 152  : 		//char szTempMem[MAX_ENCRYPT];
; 153  : 		//m_RC5.DecryptByte( m_MemPool, szTempMem, max(m_ValueSize, DEFAULT_ENCRYPT) );
; 154  : 		//memcpy( &value, szTempMem, m_ValueSize );
; 155  : 		//UJ --end
; 156  : 
; 157  : #ifdef _NOTUSE
; 158  : 		Debug();
; 159  : #endif
; 160  : 		return value;

  0000d	8b 45 fc	 mov	 eax, DWORD PTR _value$[ebp]

; 161  : 	}

  00010	c9		 leave
  00011	c3		 ret	 0
??B?$CEncrypt@W4TeamType@@@@QBE?AW4TeamType@@XZ ENDP	; CEncrypt<enum TeamType>::operator enum TeamType
_TEXT	ENDS
PUBLIC	??_C@_00CNPNBAHC@?$AA@				; `string'
PUBLIC	_rkLoader$GSCopy$
PUBLIC	__$ArrayPad$
EXTRN	__imp_??4ioHashString@@QAEAAV0@PBD@Z:PROC
EXTRN	?LoadProperty@ioWeapon@@UAEXAAVioINILoader@@@Z:PROC ; ioWeapon::LoadProperty
;	COMDAT ??_C@_00CNPNBAHC@?$AA@
; File d:\lost saga for developer\youtube\tutorial\source\src\lsclient\stringprotect.h
CONST	SEGMENT
??_C@_00CNPNBAHC@?$AA@ DB 00H				; `string'
; Function compile flags: /Ogsp
; File d:\lost saga for developer\youtube\tutorial\source\src\lsclient\ioattachaeraweapon.cpp
CONST	ENDS
;	COMDAT ?LoadProperty@ioAttachAeraWeapon@@UAEXAAVioINILoader@@@Z
_TEXT	SEGMENT
_rkLoader$GSCopy$ = -292				; size = 4
_szbuf$ = -288						; size = 260
__k$531596 = -28					; size = 19
__k$531459 = -28					; size = 18
__$ArrayPad$ = -4					; size = 4
_rkLoader$ = 8						; size = 4
?LoadProperty@ioAttachAeraWeapon@@UAEXAAVioINILoader@@@Z PROC ; ioAttachAeraWeapon::LoadProperty, COMDAT
; _this$ = ecx

; 22   : {

  00000	55		 push	 ebp
  00001	8b ec		 mov	 ebp, esp
  00003	81 ec 24 01 00
	00		 sub	 esp, 292		; 00000124H
  00009	a1 00 00 00 00	 mov	 eax, DWORD PTR ___security_cookie
  0000e	33 c5		 xor	 eax, ebp
  00010	89 45 fc	 mov	 DWORD PTR __$ArrayPad$[ebp], eax
  00013	53		 push	 ebx
  00014	56		 push	 esi
  00015	57		 push	 edi
  00016	8b 7d 08	 mov	 edi, DWORD PTR _rkLoader$[ebp]

; 23   : 	ioWeapon::LoadProperty( rkLoader );

  00019	57		 push	 edi
  0001a	8b f1		 mov	 esi, ecx

; 30   : 	//  
; 31   : 	rkLoader.LoadString_e( "weapon_effect_blue", "", szbuf, MAX_PATH );

  0001c	89 bd dc fe ff
	ff		 mov	 DWORD PTR _rkLoader$GSCopy$[ebp], edi
  00022	e8 00 00 00 00	 call	 ?LoadProperty@ioWeapon@@UAEXAAVioINILoader@@@Z ; ioWeapon::LoadProperty
  00027	6a 04		 push	 4
  00029	c7 45 e4 9a 89
	8a 9a		 mov	 DWORD PTR __k$531459[ebp], -1702196838 ; 9a8a899aH
  00030	c7 45 e8 82 82
	b4 8f		 mov	 DWORD PTR __k$531459[ebp+4], -1883995518 ; 8fb48282H
  00037	c7 45 ec 8b 8a
	8e 89		 mov	 DWORD PTR __k$531459[ebp+8], -1987147125 ; 898e8a8bH
  0003e	c7 45 f0 99 b3
	99 8f		 mov	 DWORD PTR __k$531459[ebp+12], -1885752423 ; 8f99b399H
  00045	8d 45 e4	 lea	 eax, DWORD PTR __k$531459[ebp]
  00048	66 c7 45 f4 89
	00		 mov	 WORD PTR __k$531459[ebp+16], 137 ; 00000089H
  0004e	59		 pop	 ecx
$LL106@LoadProper:

; 24   : 
; 25   : 	char szbuf[MAX_PATH];
; 26   : 
; 27   : 	//  
; 28   : 	rkLoader.LoadString_e( "weapon_effect_red", "", szbuf, MAX_PATH );

  0004f	81 30 ed ec eb
	ea		 xor	 DWORD PTR [eax], -353637139 ; eaebecedH
  00055	83 c0 04	 add	 eax, 4
  00058	49		 dec	 ecx
  00059	75 f4		 jne	 SHORT $LL106@LoadProper
  0005b	80 75 f4 ed	 xor	 BYTE PTR __k$531459[ebp+16], -19 ; ffffffedH
  0005f	68 04 01 00 00	 push	 260			; 00000104H
  00064	8d 85 e0 fe ff
	ff		 lea	 eax, DWORD PTR _szbuf$[ebp]
  0006a	50		 push	 eax
  0006b	68 00 00 00 00	 push	 OFFSET ??_C@_00CNPNBAHC@?$AA@
  00070	8d 45 e4	 lea	 eax, DWORD PTR __k$531459[ebp]
  00073	8b cf		 mov	 ecx, edi
  00075	8b 3d 00 00 00
	00		 mov	 edi, DWORD PTR __imp_?LoadStringA@ioINILoader@@QAEXPBD0PADH@Z
  0007b	50		 push	 eax
  0007c	ff d7		 call	 edi

; 29   : 	m_szWeaponRedEffect = szbuf;

  0007e	8b 1d 00 00 00
	00		 mov	 ebx, DWORD PTR __imp_??4ioHashString@@QAEAAV0@PBD@Z
  00084	8d 85 e0 fe ff
	ff		 lea	 eax, DWORD PTR _szbuf$[ebp]
  0008a	50		 push	 eax
  0008b	8d 8e 98 08 00
	00		 lea	 ecx, DWORD PTR [esi+2200]
  00091	ff d3		 call	 ebx
  00093	6a 04		 push	 4

; 30   : 	//  
; 31   : 	rkLoader.LoadString_e( "weapon_effect_blue", "", szbuf, MAX_PATH );

  00095	c7 45 e4 9a 89
	8a 9a		 mov	 DWORD PTR __k$531596[ebp], -1702196838 ; 9a8a899aH
  0009c	c7 45 e8 82 82
	b4 8f		 mov	 DWORD PTR __k$531596[ebp+4], -1883995518 ; 8fb48282H
  000a3	c7 45 ec 8b 8a
	8e 89		 mov	 DWORD PTR __k$531596[ebp+8], -1987147125 ; 898e8a8bH
  000aa	c7 45 f0 99 b3
	89 86		 mov	 DWORD PTR __k$531596[ebp+12], -2037795943 ; 8689b399H
  000b1	66 c7 45 f4 98
	89		 mov	 WORD PTR __k$531596[ebp+16], 35224 ; 00008998H
  000b7	8d 45 e4	 lea	 eax, DWORD PTR __k$531596[ebp]
  000ba	c6 45 f6 00	 mov	 BYTE PTR __k$531596[ebp+18], 0
  000be	59		 pop	 ecx
$LL212@LoadProper:
  000bf	81 30 ed ec eb
	ea		 xor	 DWORD PTR [eax], -353637139 ; eaebecedH
  000c5	83 c0 04	 add	 eax, 4
  000c8	49		 dec	 ecx
  000c9	75 f4		 jne	 SHORT $LL212@LoadProper
  000cb	6a 10		 push	 16			; 00000010H
  000cd	58		 pop	 eax
$LL209@LoadProper:
  000ce	8b c8		 mov	 ecx, eax
  000d0	81 e1 03 00 00
	80		 and	 ecx, -2147483645	; 80000003H
  000d6	79 05		 jns	 SHORT $LN223@LoadProper
  000d8	49		 dec	 ecx
  000d9	83 c9 fc	 or	 ecx, -4			; fffffffcH
  000dc	41		 inc	 ecx
$LN223@LoadProper:
  000dd	b2 ed		 mov	 dl, -19			; ffffffedH
  000df	2a d1		 sub	 dl, cl
  000e1	30 54 05 e4	 xor	 BYTE PTR __k$531596[ebp+eax], dl
  000e5	40		 inc	 eax
  000e6	83 f8 12	 cmp	 eax, 18			; 00000012H
  000e9	7c e3		 jl	 SHORT $LL209@LoadProper
  000eb	8b 8d dc fe ff
	ff		 mov	 ecx, DWORD PTR _rkLoader$GSCopy$[ebp]
  000f1	68 04 01 00 00	 push	 260			; 00000104H
  000f6	8d 85 e0 fe ff
	ff		 lea	 eax, DWORD PTR _szbuf$[ebp]
  000fc	50		 push	 eax
  000fd	68 00 00 00 00	 push	 OFFSET ??_C@_00CNPNBAHC@?$AA@
  00102	8d 45 e4	 lea	 eax, DWORD PTR __k$531596[ebp]
  00105	50		 push	 eax
  00106	ff d7		 call	 edi

; 32   : 	m_szWeaponBlueEffect = szbuf; 

  00108	8d 85 e0 fe ff
	ff		 lea	 eax, DWORD PTR _szbuf$[ebp]
  0010e	50		 push	 eax
  0010f	8d 8e a8 08 00
	00		 lea	 ecx, DWORD PTR [esi+2216]
  00115	ff d3		 call	 ebx

; 33   : 
; 34   : }

  00117	8b 4d fc	 mov	 ecx, DWORD PTR __$ArrayPad$[ebp]
  0011a	5f		 pop	 edi
  0011b	5e		 pop	 esi
  0011c	33 cd		 xor	 ecx, ebp
  0011e	5b		 pop	 ebx
  0011f	e8 00 00 00 00	 call	 @__security_check_cookie@4
  00124	c9		 leave
  00125	c2 04 00	 ret	 4
?LoadProperty@ioAttachAeraWeapon@@UAEXAAVioINILoader@@@Z ENDP ; ioAttachAeraWeapon::LoadProperty
_TEXT	ENDS
PUBLIC	?GetTeam@ioPlayEntity@@QBE?AW4TeamType@@XZ	; ioPlayEntity::GetTeam
; Function compile flags: /Ogsp
; File d:\lost saga for developer\youtube\tutorial\source\src\lsclient\ioplayentity.h
;	COMDAT ?GetTeam@ioPlayEntity@@QBE?AW4TeamType@@XZ
_TEXT	SEGMENT
_value$531709 = -4					; size = 4
?GetTeam@ioPlayEntity@@QBE?AW4TeamType@@XZ PROC		; ioPlayEntity::GetTeam, COMDAT
; _this$ = ecx

; 107  : 	inline TeamType GetTeam() const { return m_TeamType; }

  00000	55		 push	 ebp
  00001	8b ec		 mov	 ebp, esp
  00003	51		 push	 ecx
  00004	8d 45 fc	 lea	 eax, DWORD PTR _value$531709[ebp]
  00007	50		 push	 eax
  00008	81 c1 90 00 00
	00		 add	 ecx, 144		; 00000090H
  0000e	e8 00 00 00 00	 call	 ?DecryptValueToPool@?$CEncrypt@W4TeamType@@@@QAEXPAW4TeamType@@@Z ; CEncrypt<enum TeamType>::DecryptValueToPool
  00013	8b 45 fc	 mov	 eax, DWORD PTR _value$531709[ebp]
  00016	c9		 leave
  00017	c3		 ret	 0
?GetTeam@ioPlayEntity@@QBE?AW4TeamType@@XZ ENDP		; ioPlayEntity::GetTeam
_TEXT	ENDS
EXTRN	?GetSingleConvertTeam@ioBaseChar@@QAE?AW4TeamType@@XZ:PROC ; ioBaseChar::GetSingleConvertTeam
EXTRN	__imp_?IsEmpty@ioHashString@@QBE_NXZ:PROC
; Function compile flags: /Ogsp
; File d:\lost saga for developer\youtube\tutorial\source\src\lsclient\ioattachaeraweapon.cpp
;	COMDAT ?InitResource@ioAttachAeraWeapon@@UAE_NXZ
_TEXT	SEGMENT
_value$531734 = -4					; size = 4
_value$531722 = -4					; size = 4
?InitResource@ioAttachAeraWeapon@@UAE_NXZ PROC		; ioAttachAeraWeapon::InitResource, COMDAT
; _this$ = ecx

; 37   : {

  00000	55		 push	 ebp
  00001	8b ec		 mov	 ebp, esp
  00003	51		 push	 ecx
  00004	53		 push	 ebx
  00005	56		 push	 esi
  00006	8b f1		 mov	 esi, ecx

; 38   : 	DestroyResource();

  00008	8b 06		 mov	 eax, DWORD PTR [esi]
  0000a	6a 00		 push	 0
  0000c	ff 90 9c 00 00
	00		 call	 DWORD PTR [eax+156]

; 39   : 	ioBaseChar* pOwner = GetOwner();

  00012	8b ce		 mov	 ecx, esi
  00014	e8 00 00 00 00	 call	 ?GetOwner@ioWeapon@@QBEPAVioBaseChar@@XZ ; ioWeapon::GetOwner
  00019	8b d8		 mov	 ebx, eax

; 40   : 
; 41   : 	if ( !pOwner)

  0001b	85 db		 test	 ebx, ebx
  0001d	75 04		 jne	 SHORT $LN9@InitResour

; 42   : 		return false;

  0001f	32 c0		 xor	 al, al
  00021	eb 6b		 jmp	 SHORT $LN10@InitResour
$LN9@InitResour:
  00023	57		 push	 edi

; 43   : 
; 44   : 	if ( pOwner->GetTeam() == TEAM_BLUE )

  00024	8d 45 fc	 lea	 eax, DWORD PTR _value$531722[ebp]
  00027	50		 push	 eax
  00028	8d 8b 90 00 00
	00		 lea	 ecx, DWORD PTR [ebx+144]
  0002e	e8 00 00 00 00	 call	 ?DecryptValueToPool@?$CEncrypt@W4TeamType@@@@QAEXPAW4TeamType@@@Z ; CEncrypt<enum TeamType>::DecryptValueToPool
  00033	83 7d fc 02	 cmp	 DWORD PTR _value$531722[ebp], 2
  00037	75 15		 jne	 SHORT $LN8@InitResour

; 45   : 	{
; 46   : 		if( !m_szWeaponBlueEffect.IsEmpty() )

  00039	8d be a8 08 00
	00		 lea	 edi, DWORD PTR [esi+2216]
$LN22@InitResour:
  0003f	8b cf		 mov	 ecx, edi
  00041	ff 15 00 00 00
	00		 call	 DWORD PTR __imp_?IsEmpty@ioHashString@@QBE_NXZ
  00047	84 c0		 test	 al, al
  00049	75 40		 jne	 SHORT $LN1@InitResour

; 47   : 		{
; 48   : 			CreateWeaponEffect( m_szWeaponBlueEffect );

  0004b	57		 push	 edi

; 49   : 		}
; 50   : 	}

  0004c	eb 36		 jmp	 SHORT $LN20@InitResour
$LN8@InitResour:

; 51   : 	else if ( pOwner->GetTeam() == TEAM_RED )

  0004e	8d 45 fc	 lea	 eax, DWORD PTR _value$531734[ebp]
  00051	50		 push	 eax
  00052	8d 8b 90 00 00
	00		 lea	 ecx, DWORD PTR [ebx+144]
  00058	e8 00 00 00 00	 call	 ?DecryptValueToPool@?$CEncrypt@W4TeamType@@@@QAEXPAW4TeamType@@@Z ; CEncrypt<enum TeamType>::DecryptValueToPool
  0005d	83 7d fc 01	 cmp	 DWORD PTR _value$531734[ebp], 1
  00061	75 08		 jne	 SHORT $LN5@InitResour

; 52   : 	{
; 53   : 		if( !m_szWeaponRedEffect.IsEmpty() )

  00063	8d be 98 08 00
	00		 lea	 edi, DWORD PTR [esi+2200]

; 54   : 		{
; 55   : 			CreateWeaponEffect( m_szWeaponRedEffect );
; 56   : 		}
; 57   : 	}
; 58   : 	else 

  00069	eb d4		 jmp	 SHORT $LN22@InitResour
$LN5@InitResour:

; 59   : 	{
; 60   : 		if( pOwner->GetSingleConvertTeam() == TEAM_BLUE )

  0006b	8b cb		 mov	 ecx, ebx
  0006d	e8 00 00 00 00	 call	 ?GetSingleConvertTeam@ioBaseChar@@QAE?AW4TeamType@@XZ ; ioBaseChar::GetSingleConvertTeam
  00072	83 f8 02	 cmp	 eax, 2

; 61   : 			CreateWeaponEffect( m_szWeaponBlueEffect );

  00075	8d 86 a8 08 00
	00		 lea	 eax, DWORD PTR [esi+2216]
  0007b	74 06		 je	 SHORT $LN21@InitResour

; 62   : 		else
; 63   : 			CreateWeaponEffect( m_szWeaponRedEffect );

  0007d	8d 86 98 08 00
	00		 lea	 eax, DWORD PTR [esi+2200]
$LN21@InitResour:
  00083	50		 push	 eax
$LN20@InitResour:
  00084	8b ce		 mov	 ecx, esi
  00086	e8 00 00 00 00	 call	 ?CreateWeaponEffect@ioAttachAeraWeapon@@IAE_NABVioHashString@@@Z ; ioAttachAeraWeapon::CreateWeaponEffect
$LN1@InitResour:

; 64   : 	}
; 65   : 
; 66   : 	return true;

  0008b	b0 01		 mov	 al, 1
  0008d	5f		 pop	 edi
$LN10@InitResour:
  0008e	5e		 pop	 esi
  0008f	5b		 pop	 ebx

; 67   : }

  00090	c9		 leave
  00091	c3		 ret	 0
?InitResource@ioAttachAeraWeapon@@UAE_NXZ ENDP		; ioAttachAeraWeapon::InitResource
_TEXT	ENDS
END
