; Listing generated by Microsoft (R) Optimizing Compiler Version 16.00.30319.01 

	TITLE	D:\Lost Saga For Developer\Youtube\Tutorial\Source\src\LSClient\ioBallManager.cpp
	.686P
	.XMM
	include listing.inc
	.model	flat

INCLUDELIB MSVCRT
INCLUDELIB OLDNAMES

PUBLIC	?_EEM_DS@?$deque@UD3DXVECTOR3@@V?$allocator@UD3DXVECTOR3@@@std@@@std@@2HB ; std::deque<D3DXVECTOR3,std::allocator<D3DXVECTOR3> >::_EEM_DS
PUBLIC	?ms_Singleton@?$Singleton@VioBallManager@@@@1PAVioBallManager@@A ; Singleton<ioBallManager>::ms_Singleton
;	COMDAT ?ms_Singleton@?$Singleton@VioBallManager@@@@1PAVioBallManager@@A
_BSS	SEGMENT
?ms_Singleton@?$Singleton@VioBallManager@@@@1PAVioBallManager@@A DD 01H DUP (?) ; Singleton<ioBallManager>::ms_Singleton
_BSS	ENDS
;	COMDAT ?_EEM_DS@?$deque@UD3DXVECTOR3@@V?$allocator@UD3DXVECTOR3@@@std@@@std@@2HB
CONST	SEGMENT
?_EEM_DS@?$deque@UD3DXVECTOR3@@V?$allocator@UD3DXVECTOR3@@@std@@@std@@2HB DD 01H ; std::deque<D3DXVECTOR3,std::allocator<D3DXVECTOR3> >::_EEM_DS
CONST	ENDS
PUBLIC	??_7bad_alloc@std@@6B@				; std::bad_alloc::`vftable'
PUBLIC	??0bad_alloc@std@@QAE@PBD@Z			; std::bad_alloc::bad_alloc
PUBLIC	??_R4bad_alloc@std@@6B@				; std::bad_alloc::`RTTI Complete Object Locator'
PUBLIC	??_R0?AVbad_alloc@std@@@8			; std::bad_alloc `RTTI Type Descriptor'
PUBLIC	??_R3bad_alloc@std@@8				; std::bad_alloc::`RTTI Class Hierarchy Descriptor'
PUBLIC	??_R2bad_alloc@std@@8				; std::bad_alloc::`RTTI Base Class Array'
PUBLIC	??_R1A@?0A@EA@bad_alloc@std@@8			; std::bad_alloc::`RTTI Base Class Descriptor at (0,-1,0,64)'
PUBLIC	??_R1A@?0A@EA@exception@std@@8			; std::exception::`RTTI Base Class Descriptor at (0,-1,0,64)'
PUBLIC	??_R0?AVexception@std@@@8			; std::exception `RTTI Type Descriptor'
PUBLIC	??_R3exception@std@@8				; std::exception::`RTTI Class Hierarchy Descriptor'
PUBLIC	??_R2exception@std@@8				; std::exception::`RTTI Base Class Array'
EXTRN	__imp_??0exception@std@@QAE@ABQBD@Z:PROC
EXTRN	??_7type_info@@6B@:QWORD			; type_info::`vftable'
EXTRN	??_Ebad_alloc@std@@UAEPAXI@Z:PROC		; std::bad_alloc::`vector deleting destructor'
EXTRN	?what@exception@std@@UBEPBDXZ:PROC		; std::exception::what
;	COMDAT ??_R2exception@std@@8
; File c:\program files (x86)\microsoft visual studio 10.0\vc\include\exception
rdata$r	SEGMENT
??_R2exception@std@@8 DD FLAT:??_R1A@?0A@EA@exception@std@@8 ; std::exception::`RTTI Base Class Array'
rdata$r	ENDS
;	COMDAT ??_R3exception@std@@8
rdata$r	SEGMENT
??_R3exception@std@@8 DD 00H				; std::exception::`RTTI Class Hierarchy Descriptor'
	DD	00H
	DD	01H
	DD	FLAT:??_R2exception@std@@8
rdata$r	ENDS
;	COMDAT ??_R0?AVexception@std@@@8
_DATA	SEGMENT
??_R0?AVexception@std@@@8 DD FLAT:??_7type_info@@6B@	; std::exception `RTTI Type Descriptor'
	DD	00H
	DB	'.?AVexception@std@@', 00H
_DATA	ENDS
;	COMDAT ??_R1A@?0A@EA@exception@std@@8
rdata$r	SEGMENT
??_R1A@?0A@EA@exception@std@@8 DD FLAT:??_R0?AVexception@std@@@8 ; std::exception::`RTTI Base Class Descriptor at (0,-1,0,64)'
	DD	00H
	DD	00H
	DD	0ffffffffH
	DD	00H
	DD	040H
	DD	FLAT:??_R3exception@std@@8
rdata$r	ENDS
;	COMDAT ??_R1A@?0A@EA@bad_alloc@std@@8
rdata$r	SEGMENT
??_R1A@?0A@EA@bad_alloc@std@@8 DD FLAT:??_R0?AVbad_alloc@std@@@8 ; std::bad_alloc::`RTTI Base Class Descriptor at (0,-1,0,64)'
	DD	01H
	DD	00H
	DD	0ffffffffH
	DD	00H
	DD	040H
	DD	FLAT:??_R3bad_alloc@std@@8
rdata$r	ENDS
;	COMDAT ??_R2bad_alloc@std@@8
rdata$r	SEGMENT
??_R2bad_alloc@std@@8 DD FLAT:??_R1A@?0A@EA@bad_alloc@std@@8 ; std::bad_alloc::`RTTI Base Class Array'
	DD	FLAT:??_R1A@?0A@EA@exception@std@@8
rdata$r	ENDS
;	COMDAT ??_R3bad_alloc@std@@8
rdata$r	SEGMENT
??_R3bad_alloc@std@@8 DD 00H				; std::bad_alloc::`RTTI Class Hierarchy Descriptor'
	DD	00H
	DD	02H
	DD	FLAT:??_R2bad_alloc@std@@8
rdata$r	ENDS
;	COMDAT ??_R0?AVbad_alloc@std@@@8
_DATA	SEGMENT
??_R0?AVbad_alloc@std@@@8 DD FLAT:??_7type_info@@6B@	; std::bad_alloc `RTTI Type Descriptor'
	DD	00H
	DB	'.?AVbad_alloc@std@@', 00H
_DATA	ENDS
;	COMDAT ??_R4bad_alloc@std@@6B@
rdata$r	SEGMENT
??_R4bad_alloc@std@@6B@ DD 00H				; std::bad_alloc::`RTTI Complete Object Locator'
	DD	00H
	DD	00H
	DD	FLAT:??_R0?AVbad_alloc@std@@@8
	DD	FLAT:??_R3bad_alloc@std@@8
rdata$r	ENDS
;	COMDAT ??_7bad_alloc@std@@6B@
CONST	SEGMENT
??_7bad_alloc@std@@6B@ DD FLAT:??_R4bad_alloc@std@@6B@	; std::bad_alloc::`vftable'
	DD	FLAT:??_Ebad_alloc@std@@UAEPAXI@Z
	DD	FLAT:?what@exception@std@@UBEPBDXZ
; Function compile flags: /Ogsp
CONST	ENDS
;	COMDAT ??0bad_alloc@std@@QAE@PBD@Z
_TEXT	SEGMENT
__Message$ = 8						; size = 4
??0bad_alloc@std@@QAE@PBD@Z PROC			; std::bad_alloc::bad_alloc, COMDAT
; _this$ = ecx

; 345  : 		{	// construct from message string

  00000	55		 push	 ebp
  00001	8b ec		 mov	 ebp, esp
  00003	56		 push	 esi
  00004	8d 45 08	 lea	 eax, DWORD PTR __Message$[ebp]
  00007	50		 push	 eax
  00008	8b f1		 mov	 esi, ecx
  0000a	ff 15 00 00 00
	00		 call	 DWORD PTR __imp_??0exception@std@@QAE@ABQBD@Z
  00010	c7 06 00 00 00
	00		 mov	 DWORD PTR [esi], OFFSET ??_7bad_alloc@std@@6B@

; 346  : 		}

  00016	8b c6		 mov	 eax, esi
  00018	5e		 pop	 esi
  00019	5d		 pop	 ebp
  0001a	c2 04 00	 ret	 4
??0bad_alloc@std@@QAE@PBD@Z ENDP			; std::bad_alloc::bad_alloc
_TEXT	ENDS
PUBLIC	??1bad_alloc@std@@UAE@XZ			; std::bad_alloc::~bad_alloc
EXTRN	__imp_??1exception@std@@UAE@XZ:PROC
; Function compile flags: /Ogsp
;	COMDAT ??1bad_alloc@std@@UAE@XZ
_TEXT	SEGMENT
??1bad_alloc@std@@UAE@XZ PROC				; std::bad_alloc::~bad_alloc, COMDAT
; _this$ = ecx

; 354  : 		{	// destroy the object

  00000	c7 01 00 00 00
	00		 mov	 DWORD PTR [ecx], OFFSET ??_7bad_alloc@std@@6B@

; 355  : 		}

  00006	ff 25 00 00 00
	00		 jmp	 DWORD PTR __imp_??1exception@std@@UAE@XZ
??1bad_alloc@std@@UAE@XZ ENDP				; std::bad_alloc::~bad_alloc
_TEXT	ENDS
EXTRN	??3@YAXPAX@Z:PROC				; operator delete
; Function compile flags: /Ogsp
;	COMDAT ??_Gbad_alloc@std@@UAEPAXI@Z
_TEXT	SEGMENT
___flags$ = 8						; size = 4
??_Gbad_alloc@std@@UAEPAXI@Z PROC			; std::bad_alloc::`scalar deleting destructor', COMDAT
; _this$ = ecx
  00000	55		 push	 ebp
  00001	8b ec		 mov	 ebp, esp
  00003	56		 push	 esi
  00004	8b f1		 mov	 esi, ecx
  00006	c7 06 00 00 00
	00		 mov	 DWORD PTR [esi], OFFSET ??_7bad_alloc@std@@6B@
  0000c	ff 15 00 00 00
	00		 call	 DWORD PTR __imp_??1exception@std@@UAE@XZ
  00012	f6 45 08 01	 test	 BYTE PTR ___flags$[ebp], 1
  00016	74 07		 je	 SHORT $LN1@scalar
  00018	56		 push	 esi
  00019	e8 00 00 00 00	 call	 ??3@YAXPAX@Z		; operator delete
  0001e	59		 pop	 ecx
$LN1@scalar:
  0001f	8b c6		 mov	 eax, esi
  00021	5e		 pop	 esi
  00022	5d		 pop	 ebp
  00023	c2 04 00	 ret	 4
??_Gbad_alloc@std@@UAEPAXI@Z ENDP			; std::bad_alloc::`scalar deleting destructor'
_TEXT	ENDS
PUBLIC	??2@YAPAXIPAX@Z					; operator new
; Function compile flags: /Ogsp
; File c:\program files (x86)\microsoft visual studio 10.0\vc\include\new
;	COMDAT ??2@YAPAXIPAX@Z
_TEXT	SEGMENT
___formal$ = 8						; size = 4
__Where$ = 12						; size = 4
??2@YAPAXIPAX@Z PROC					; operator new, COMDAT

; 56   : 	{	// construct array with placement at _Where

  00000	55		 push	 ebp
  00001	8b ec		 mov	 ebp, esp

; 57   : 	return (_Where);

  00003	8b 45 0c	 mov	 eax, DWORD PTR __Where$[ebp]

; 58   : 	}

  00006	5d		 pop	 ebp
  00007	c3		 ret	 0
??2@YAPAXIPAX@Z ENDP					; operator new
_TEXT	ENDS
PUBLIC	??3@YAXPAX0@Z					; operator delete
; Function compile flags: /Ogsp
;	COMDAT ??3@YAXPAX0@Z
_TEXT	SEGMENT
___formal$ = 8						; size = 4
___formal$ = 12						; size = 4
??3@YAXPAX0@Z PROC					; operator delete, COMDAT

; 62   : 	}

  00000	c3		 ret	 0
??3@YAXPAX0@Z ENDP					; operator delete
_TEXT	ENDS
PUBLIC	??0?$Singleton@VioBallManager@@@@QAE@XZ		; Singleton<ioBallManager>::Singleton<ioBallManager>
; Function compile flags: /Ogsp
; File d:\lost saga for developer\youtube\tutorial\source\src\io3dengine\iosingleton.h
;	COMDAT ??0?$Singleton@VioBallManager@@@@QAE@XZ
_TEXT	SEGMENT
??0?$Singleton@VioBallManager@@@@QAE@XZ PROC		; Singleton<ioBallManager>::Singleton<ioBallManager>, COMDAT
; _this$ = ecx

; 27   : 	Singleton()

  00000	8b c1		 mov	 eax, ecx

; 28   : 	{
; 29   : 		assert( !ms_Singleton );
; 30   : 		int offset = (int)(T*)1 - (int)(Singleton <T>*)(T*)1;
; 31   : 		ms_Singleton = (T*)((int)this + offset);

  00002	8d 48 fc	 lea	 ecx, DWORD PTR [eax-4]
  00005	89 0d 00 00 00
	00		 mov	 DWORD PTR ?ms_Singleton@?$Singleton@VioBallManager@@@@1PAVioBallManager@@A, ecx ; Singleton<ioBallManager>::ms_Singleton

; 32   : 	}

  0000b	c3		 ret	 0
??0?$Singleton@VioBallManager@@@@QAE@XZ ENDP		; Singleton<ioBallManager>::Singleton<ioBallManager>
_TEXT	ENDS
PUBLIC	??1?$Singleton@VioBallManager@@@@QAE@XZ		; Singleton<ioBallManager>::~Singleton<ioBallManager>
; Function compile flags: /Ogsp
;	COMDAT ??1?$Singleton@VioBallManager@@@@QAE@XZ
_TEXT	SEGMENT
??1?$Singleton@VioBallManager@@@@QAE@XZ PROC		; Singleton<ioBallManager>::~Singleton<ioBallManager>, COMDAT
; _this$ = ecx

; 36   : 		assert( ms_Singleton );
; 37   : 		ms_Singleton = 0;

  00000	83 25 00 00 00
	00 00		 and	 DWORD PTR ?ms_Singleton@?$Singleton@VioBallManager@@@@1PAVioBallManager@@A, 0 ; Singleton<ioBallManager>::ms_Singleton

; 38   : 	}

  00007	c3		 ret	 0
??1?$Singleton@VioBallManager@@@@QAE@XZ ENDP		; Singleton<ioBallManager>::~Singleton<ioBallManager>
_TEXT	ENDS
PUBLIC	?GetSingleton@?$Singleton@VioBallManager@@@@SAAAVioBallManager@@XZ ; Singleton<ioBallManager>::GetSingleton
; Function compile flags: /Ogsp
;	COMDAT ?GetSingleton@?$Singleton@VioBallManager@@@@SAAAVioBallManager@@XZ
_TEXT	SEGMENT
?GetSingleton@?$Singleton@VioBallManager@@@@SAAAVioBallManager@@XZ PROC ; Singleton<ioBallManager>::GetSingleton, COMDAT

; 42   : 		assert( ms_Singleton );
; 43   : 		return (*ms_Singleton);

  00000	a1 00 00 00 00	 mov	 eax, DWORD PTR ?ms_Singleton@?$Singleton@VioBallManager@@@@1PAVioBallManager@@A ; Singleton<ioBallManager>::ms_Singleton

; 44   : 	}

  00005	c3		 ret	 0
?GetSingleton@?$Singleton@VioBallManager@@@@SAAAVioBallManager@@XZ ENDP ; Singleton<ioBallManager>::GetSingleton
_TEXT	ENDS
PUBLIC	??A?$vector@PAVioBall@@V?$allocator@PAVioBall@@@std@@@std@@QAEAAPAVioBall@@I@Z ; std::vector<ioBall *,std::allocator<ioBall *> >::operator[]
; Function compile flags: /Ogsp
; File c:\program files (x86)\microsoft visual studio 10.0\vc\include\vector
;	COMDAT ??A?$vector@PAVioBall@@V?$allocator@PAVioBall@@@std@@@std@@QAEAAPAVioBall@@I@Z
_TEXT	SEGMENT
__Pos$ = 8						; size = 4
??A?$vector@PAVioBall@@V?$allocator@PAVioBall@@@std@@@std@@QAEAAPAVioBall@@I@Z PROC ; std::vector<ioBall *,std::allocator<ioBall *> >::operator[], COMDAT
; _this$ = ecx

; 928  : 		{	// subscript mutable sequence

  00000	55		 push	 ebp
  00001	8b ec		 mov	 ebp, esp

; 929  :  #if _ITERATOR_DEBUG_LEVEL == 2
; 930  : 		if (size() <= _Pos)
; 931  : 			{	// report error
; 932  : 			_DEBUG_ERROR("vector subscript out of range");
; 933  : 			_SCL_SECURE_OUT_OF_RANGE;
; 934  : 			}
; 935  : 
; 936  :  #elif _ITERATOR_DEBUG_LEVEL == 1
; 937  : 		_SCL_SECURE_VALIDATE_RANGE(_Pos < size());
; 938  :  #endif /* _ITERATOR_DEBUG_LEVEL */
; 939  : 
; 940  : 		return (*(this->_Myfirst + _Pos));

  00003	8b 01		 mov	 eax, DWORD PTR [ecx]
  00005	8b 4d 08	 mov	 ecx, DWORD PTR __Pos$[ebp]
  00008	8d 04 88	 lea	 eax, DWORD PTR [eax+ecx*4]

; 941  : 		}

  0000b	5d		 pop	 ebp
  0000c	c2 04 00	 ret	 4
??A?$vector@PAVioBall@@V?$allocator@PAVioBall@@@std@@@std@@QAEAAPAVioBall@@I@Z ENDP ; std::vector<ioBall *,std::allocator<ioBall *> >::operator[]
_TEXT	ENDS
PUBLIC	?_Inside@?$vector@PAVioBall@@V?$allocator@PAVioBall@@@std@@@std@@IBE_NPBQAVioBall@@@Z ; std::vector<ioBall *,std::allocator<ioBall *> >::_Inside
; Function compile flags: /Ogsp
;	COMDAT ?_Inside@?$vector@PAVioBall@@V?$allocator@PAVioBall@@@std@@@std@@IBE_NPBQAVioBall@@@Z
_TEXT	SEGMENT
__Ptr$ = 8						; size = 4
?_Inside@?$vector@PAVioBall@@V?$allocator@PAVioBall@@@std@@@std@@IBE_NPBQAVioBall@@@Z PROC ; std::vector<ioBall *,std::allocator<ioBall *> >::_Inside, COMDAT
; _this$ = ecx

; 1285 : 		{	// test if _Ptr points inside vector

  00000	55		 push	 ebp
  00001	8b ec		 mov	 ebp, esp

; 1286 : 		return (_Ptr < this->_Mylast && this->_Myfirst <= _Ptr);

  00003	8b 45 08	 mov	 eax, DWORD PTR __Ptr$[ebp]
  00006	3b 41 04	 cmp	 eax, DWORD PTR [ecx+4]
  00009	73 09		 jae	 SHORT $LN3@Inside
  0000b	39 01		 cmp	 DWORD PTR [ecx], eax
  0000d	77 05		 ja	 SHORT $LN3@Inside
  0000f	33 c0		 xor	 eax, eax
  00011	40		 inc	 eax
  00012	eb 02		 jmp	 SHORT $LN4@Inside
$LN3@Inside:
  00014	33 c0		 xor	 eax, eax
$LN4@Inside:

; 1287 : 		}

  00016	5d		 pop	 ebp
  00017	c2 04 00	 ret	 4
?_Inside@?$vector@PAVioBall@@V?$allocator@PAVioBall@@@std@@@std@@IBE_NPBQAVioBall@@@Z ENDP ; std::vector<ioBall *,std::allocator<ioBall *> >::_Inside
_TEXT	ENDS
PUBLIC	?_Adopt@_Iterator_base0@std@@QAEXPBX@Z		; std::_Iterator_base0::_Adopt
; Function compile flags: /Ogsp
; File c:\program files (x86)\microsoft visual studio 10.0\vc\include\xutility
;	COMDAT ?_Adopt@_Iterator_base0@std@@QAEXPBX@Z
_TEXT	SEGMENT
___formal$ = 8						; size = 4
?_Adopt@_Iterator_base0@std@@QAEXPBX@Z PROC		; std::_Iterator_base0::_Adopt, COMDAT
; _this$ = ecx

; 49   : 		}

  00000	c2 04 00	 ret	 4
?_Adopt@_Iterator_base0@std@@QAEXPBX@Z ENDP		; std::_Iterator_base0::_Adopt
_TEXT	ENDS
PUBLIC	?_Orphan_range@?$vector@PAVioBall@@V?$allocator@PAVioBall@@@std@@@std@@IBEXPAPAVioBall@@0@Z ; std::vector<ioBall *,std::allocator<ioBall *> >::_Orphan_range
; Function compile flags: /Ogsp
; File c:\program files (x86)\microsoft visual studio 10.0\vc\include\vector
;	COMDAT ?_Orphan_range@?$vector@PAVioBall@@V?$allocator@PAVioBall@@@std@@@std@@IBEXPAPAVioBall@@0@Z
_TEXT	SEGMENT
___formal$ = 8						; size = 4
___formal$ = 12						; size = 4
?_Orphan_range@?$vector@PAVioBall@@V?$allocator@PAVioBall@@@std@@@std@@IBEXPAPAVioBall@@0@Z PROC ; std::vector<ioBall *,std::allocator<ioBall *> >::_Orphan_range, COMDAT
; _this$ = ecx

; 1454 : 		}

  00000	c2 08 00	 ret	 8
?_Orphan_range@?$vector@PAVioBall@@V?$allocator@PAVioBall@@@std@@@std@@IBEXPAPAVioBall@@0@Z ENDP ; std::vector<ioBall *,std::allocator<ioBall *> >::_Orphan_range
_TEXT	ENDS
PUBLIC	??1?$_Vector_val@PAVioBall@@V?$allocator@PAVioBall@@@std@@@std@@QAE@XZ ; std::_Vector_val<ioBall *,std::allocator<ioBall *> >::~_Vector_val<ioBall *,std::allocator<ioBall *> >
; Function compile flags: /Ogsp
;	COMDAT ??1?$_Vector_val@PAVioBall@@V?$allocator@PAVioBall@@@std@@@std@@QAE@XZ
_TEXT	SEGMENT
??1?$_Vector_val@PAVioBall@@V?$allocator@PAVioBall@@@std@@@std@@QAE@XZ PROC ; std::_Vector_val<ioBall *,std::allocator<ioBall *> >::~_Vector_val<ioBall *,std::allocator<ioBall *> >, COMDAT
; _this$ = ecx

; 434  : 		}

  00000	c3		 ret	 0
??1?$_Vector_val@PAVioBall@@V?$allocator@PAVioBall@@@std@@@std@@QAE@XZ ENDP ; std::_Vector_val<ioBall *,std::allocator<ioBall *> >::~_Vector_val<ioBall *,std::allocator<ioBall *> >
_TEXT	ENDS
PUBLIC	??0?$allocator@PAVioBall@@@std@@QAE@XZ		; std::allocator<ioBall *>::allocator<ioBall *>
; Function compile flags: /Ogsp
; File c:\program files (x86)\microsoft visual studio 10.0\vc\include\xmemory
;	COMDAT ??0?$allocator@PAVioBall@@@std@@QAE@XZ
_TEXT	SEGMENT
??0?$allocator@PAVioBall@@@std@@QAE@XZ PROC		; std::allocator<ioBall *>::allocator<ioBall *>, COMDAT
; _this$ = ecx

; 161  : 	_ALLOCATOR() _THROW0()

  00000	8b c1		 mov	 eax, ecx

; 162  : 		{	// construct default allocator (do nothing)
; 163  : 		}

  00002	c3		 ret	 0
??0?$allocator@PAVioBall@@@std@@QAE@XZ ENDP		; std::allocator<ioBall *>::allocator<ioBall *>
_TEXT	ENDS
PUBLIC	?capacity@?$vector@PAVioBall@@V?$allocator@PAVioBall@@@std@@@std@@QBEIXZ ; std::vector<ioBall *,std::allocator<ioBall *> >::capacity
; Function compile flags: /Ogsp
; File c:\program files (x86)\microsoft visual studio 10.0\vc\include\vector
;	COMDAT ?capacity@?$vector@PAVioBall@@V?$allocator@PAVioBall@@@std@@@std@@QBEIXZ
_TEXT	SEGMENT
?capacity@?$vector@PAVioBall@@V?$allocator@PAVioBall@@@std@@@std@@QBEIXZ PROC ; std::vector<ioBall *,std::allocator<ioBall *> >::capacity, COMDAT
; _this$ = ecx

; 777  : 		return (this->_Myend - this->_Myfirst);

  00000	8b 41 08	 mov	 eax, DWORD PTR [ecx+8]
  00003	2b 01		 sub	 eax, DWORD PTR [ecx]
  00005	c1 f8 02	 sar	 eax, 2

; 778  : 		}

  00008	c3		 ret	 0
?capacity@?$vector@PAVioBall@@V?$allocator@PAVioBall@@@std@@@std@@QBEIXZ ENDP ; std::vector<ioBall *,std::allocator<ioBall *> >::capacity
_TEXT	ENDS
PUBLIC	??_C@_0BD@OLBABOEK@vector?$DMT?$DO?5too?5long?$AA@ ; `string'
PUBLIC	?_Xlen@?$vector@PAVioBall@@V?$allocator@PAVioBall@@@std@@@std@@IBEXXZ ; std::vector<ioBall *,std::allocator<ioBall *> >::_Xlen
EXTRN	__imp_?_Xlength_error@std@@YAXPBD@Z:PROC
;	COMDAT ??_C@_0BD@OLBABOEK@vector?$DMT?$DO?5too?5long?$AA@
CONST	SEGMENT
??_C@_0BD@OLBABOEK@vector?$DMT?$DO?5too?5long?$AA@ DB 'vector<T> too long'
	DB	00H						; `string'
; Function compile flags: /Ogsp
CONST	ENDS
;	COMDAT ?_Xlen@?$vector@PAVioBall@@V?$allocator@PAVioBall@@@std@@@std@@IBEXXZ
_TEXT	SEGMENT
?_Xlen@?$vector@PAVioBall@@V?$allocator@PAVioBall@@@std@@@std@@IBEXXZ PROC ; std::vector<ioBall *,std::allocator<ioBall *> >::_Xlen, COMDAT
; _this$ = ecx

; 1427 : 		_Xlength_error("vector<T> too long");

  00000	68 00 00 00 00	 push	 OFFSET ??_C@_0BD@OLBABOEK@vector?$DMT?$DO?5too?5long?$AA@
  00005	ff 15 00 00 00
	00		 call	 DWORD PTR __imp_?_Xlength_error@std@@YAXPBD@Z
$LN4@Xlen:
$LN3@Xlen:
  0000b	cc		 int	 3
?_Xlen@?$vector@PAVioBall@@V?$allocator@PAVioBall@@@std@@@std@@IBEXXZ ENDP ; std::vector<ioBall *,std::allocator<ioBall *> >::_Xlen
_TEXT	ENDS
PUBLIC	??0?$allocator@PAVioBall@@@std@@QAE@ABV01@@Z	; std::allocator<ioBall *>::allocator<ioBall *>
; Function compile flags: /Ogsp
; File c:\program files (x86)\microsoft visual studio 10.0\vc\include\xmemory
;	COMDAT ??0?$allocator@PAVioBall@@@std@@QAE@ABV01@@Z
_TEXT	SEGMENT
___formal$ = 8						; size = 4
??0?$allocator@PAVioBall@@@std@@QAE@ABV01@@Z PROC	; std::allocator<ioBall *>::allocator<ioBall *>, COMDAT
; _this$ = ecx

; 165  : 	_ALLOCATOR(const _ALLOCATOR<_Ty>&) _THROW0()

  00000	8b c1		 mov	 eax, ecx

; 166  : 		{	// construct by copying (do nothing)
; 167  : 		}

  00002	c2 04 00	 ret	 4
??0?$allocator@PAVioBall@@@std@@QAE@ABV01@@Z ENDP	; std::allocator<ioBall *>::allocator<ioBall *>
_TEXT	ENDS
PUBLIC	?deallocate@?$allocator@PAVioBall@@@std@@QAEXPAPAVioBall@@I@Z ; std::allocator<ioBall *>::deallocate
; Function compile flags: /Ogsp
;	COMDAT ?deallocate@?$allocator@PAVioBall@@@std@@QAEXPAPAVioBall@@I@Z
_TEXT	SEGMENT
__Ptr$ = 8						; size = 4
___formal$ = 12						; size = 4
?deallocate@?$allocator@PAVioBall@@@std@@QAEXPAPAVioBall@@I@Z PROC ; std::allocator<ioBall *>::deallocate, COMDAT
; _this$ = ecx

; 181  : 		{	// deallocate object at _Ptr, ignore size

  00000	55		 push	 ebp
  00001	8b ec		 mov	 ebp, esp

; 182  : 		::operator delete(_Ptr);

  00003	ff 75 08	 push	 DWORD PTR __Ptr$[ebp]
  00006	e8 00 00 00 00	 call	 ??3@YAXPAX@Z		; operator delete
  0000b	59		 pop	 ecx

; 183  : 		}

  0000c	5d		 pop	 ebp
  0000d	c2 08 00	 ret	 8
?deallocate@?$allocator@PAVioBall@@@std@@QAEXPAPAVioBall@@I@Z ENDP ; std::allocator<ioBall *>::deallocate
_TEXT	ENDS
PUBLIC	?max_size@?$allocator@PAVioBall@@@std@@QBEIXZ	; std::allocator<ioBall *>::max_size
; Function compile flags: /Ogsp
;	COMDAT ?max_size@?$allocator@PAVioBall@@@std@@QBEIXZ
_TEXT	SEGMENT
?max_size@?$allocator@PAVioBall@@@std@@QBEIXZ PROC	; std::allocator<ioBall *>::max_size, COMDAT
; _this$ = ecx

; 218  : 		_SIZT _Count = (_SIZT)(-1) / sizeof (_Ty);
; 219  : 		return (0 < _Count ? _Count : 1);

  00000	b8 ff ff ff 3f	 mov	 eax, 1073741823		; 3fffffffH

; 220  : 		}

  00005	c3		 ret	 0
?max_size@?$allocator@PAVioBall@@@std@@QBEIXZ ENDP	; std::allocator<ioBall *>::max_size
_TEXT	ENDS
PUBLIC	??0?$_Vector_const_iterator@V?$_Vector_val@PAVioBall@@V?$allocator@PAVioBall@@@std@@@std@@@std@@QAE@PAPAVioBall@@PBU_Container_base0@1@@Z ; std::_Vector_const_iterator<std::_Vector_val<ioBall *,std::allocator<ioBall *> > >::_Vector_const_iterator<std::_Vector_val<ioBall *,std::allocator<ioBall *> > >
; Function compile flags: /Ogsp
; File c:\program files (x86)\microsoft visual studio 10.0\vc\include\vector
;	COMDAT ??0?$_Vector_const_iterator@V?$_Vector_val@PAVioBall@@V?$allocator@PAVioBall@@@std@@@std@@@std@@QAE@PAPAVioBall@@PBU_Container_base0@1@@Z
_TEXT	SEGMENT
__Parg$ = 8						; size = 4
__Pvector$ = 12						; size = 4
??0?$_Vector_const_iterator@V?$_Vector_val@PAVioBall@@V?$allocator@PAVioBall@@@std@@@std@@@std@@QAE@PAPAVioBall@@PBU_Container_base0@1@@Z PROC ; std::_Vector_const_iterator<std::_Vector_val<ioBall *,std::allocator<ioBall *> > >::_Vector_const_iterator<std::_Vector_val<ioBall *,std::allocator<ioBall *> > >, COMDAT
; _this$ = ecx

; 45   : 		{	// construct with pointer _Parg

  00000	55		 push	 ebp
  00001	8b ec		 mov	 ebp, esp
  00003	8b c1		 mov	 eax, ecx
  00005	8b 4d 08	 mov	 ecx, DWORD PTR __Parg$[ebp]
  00008	89 08		 mov	 DWORD PTR [eax], ecx

; 46   : 		this->_Adopt(_Pvector);
; 47   : 		}

  0000a	5d		 pop	 ebp
  0000b	c2 08 00	 ret	 8
??0?$_Vector_const_iterator@V?$_Vector_val@PAVioBall@@V?$allocator@PAVioBall@@@std@@@std@@@std@@QAE@PAPAVioBall@@PBU_Container_base0@1@@Z ENDP ; std::_Vector_const_iterator<std::_Vector_val<ioBall *,std::allocator<ioBall *> > >::_Vector_const_iterator<std::_Vector_val<ioBall *,std::allocator<ioBall *> > >
_TEXT	ENDS
PUBLIC	?_Compat@?$_Vector_const_iterator@V?$_Vector_val@PAVioBall@@V?$allocator@PAVioBall@@@std@@@std@@@std@@QBEXABV12@@Z ; std::_Vector_const_iterator<std::_Vector_val<ioBall *,std::allocator<ioBall *> > >::_Compat
; Function compile flags: /Ogsp
;	COMDAT ?_Compat@?$_Vector_const_iterator@V?$_Vector_val@PAVioBall@@V?$allocator@PAVioBall@@@std@@@std@@@std@@QBEXABV12@@Z
_TEXT	SEGMENT
___formal$ = 8						; size = 4
?_Compat@?$_Vector_const_iterator@V?$_Vector_val@PAVioBall@@V?$allocator@PAVioBall@@@std@@@std@@@std@@QBEXABV12@@Z PROC ; std::_Vector_const_iterator<std::_Vector_val<ioBall *,std::allocator<ioBall *> > >::_Compat, COMDAT
; _this$ = ecx

; 253  : 		}

  00000	c2 04 00	 ret	 4
?_Compat@?$_Vector_const_iterator@V?$_Vector_val@PAVioBall@@V?$allocator@PAVioBall@@@std@@@std@@@std@@QBEXABV12@@Z ENDP ; std::_Vector_const_iterator<std::_Vector_val<ioBall *,std::allocator<ioBall *> > >::_Compat
_TEXT	ENDS
PUBLIC	??$addressof@QAVioBall@@@std@@YAPBQAVioBall@@ABQAV1@@Z ; std::addressof<ioBall * const>
; Function compile flags: /Ogsp
; File c:\program files (x86)\microsoft visual studio 10.0\vc\include\xmemory
;	COMDAT ??$addressof@QAVioBall@@@std@@YAPBQAVioBall@@ABQAV1@@Z
_TEXT	SEGMENT
__Val$ = 8						; size = 4
??$addressof@QAVioBall@@@std@@YAPBQAVioBall@@ABQAV1@@Z PROC ; std::addressof<ioBall * const>, COMDAT

; 110  : 	{	// return address of _Val

  00000	55		 push	 ebp
  00001	8b ec		 mov	 ebp, esp

; 111  : 	return ((_Ty *) &(char&)_Val);

  00003	8b 45 08	 mov	 eax, DWORD PTR __Val$[ebp]

; 112  : 	}

  00006	5d		 pop	 ebp
  00007	c3		 ret	 0
??$addressof@QAVioBall@@@std@@YAPBQAVioBall@@ABQAV1@@Z ENDP ; std::addressof<ioBall * const>
_TEXT	ENDS
PUBLIC	__TI2?AVbad_alloc@std@@
PUBLIC	??$_Allocate@PAVioBall@@@std@@YAPAPAVioBall@@IPAPAV1@@Z ; std::_Allocate<ioBall *>
PUBLIC	__CTA2?AVbad_alloc@std@@
PUBLIC	__CT??_R0?AVbad_alloc@std@@@8??0bad_alloc@std@@QAE@ABV01@@Z12
PUBLIC	??0bad_alloc@std@@QAE@ABV01@@Z			; std::bad_alloc::bad_alloc
PUBLIC	__CT??_R0?AVexception@std@@@8??0exception@std@@QAE@ABV01@@Z12
EXTRN	??2@YAPAXI@Z:PROC				; operator new
EXTRN	__CxxThrowException@8:PROC
EXTRN	??0exception@std@@QAE@ABV01@@Z:PROC		; std::exception::exception
;	COMDAT __CT??_R0?AVexception@std@@@8??0exception@std@@QAE@ABV01@@Z12
; File c:\program files (x86)\microsoft visual studio 10.0\vc\include\exception
xdata$x	SEGMENT
__CT??_R0?AVexception@std@@@8??0exception@std@@QAE@ABV01@@Z12 DD 00H
	DD	FLAT:??_R0?AVexception@std@@@8
	DD	00H
	DD	0ffffffffH
	ORG $+4
	DD	0cH
	DD	FLAT:??0exception@std@@QAE@ABV01@@Z
xdata$x	ENDS
;	COMDAT __CT??_R0?AVbad_alloc@std@@@8??0bad_alloc@std@@QAE@ABV01@@Z12
xdata$x	SEGMENT
__CT??_R0?AVbad_alloc@std@@@8??0bad_alloc@std@@QAE@ABV01@@Z12 DD 00H
	DD	FLAT:??_R0?AVbad_alloc@std@@@8
	DD	00H
	DD	0ffffffffH
	ORG $+4
	DD	0cH
	DD	FLAT:??0bad_alloc@std@@QAE@ABV01@@Z
xdata$x	ENDS
;	COMDAT __CTA2?AVbad_alloc@std@@
xdata$x	SEGMENT
__CTA2?AVbad_alloc@std@@ DD 02H
	DD	FLAT:__CT??_R0?AVbad_alloc@std@@@8??0bad_alloc@std@@QAE@ABV01@@Z12
	DD	FLAT:__CT??_R0?AVexception@std@@@8??0exception@std@@QAE@ABV01@@Z12
xdata$x	ENDS
;	COMDAT __TI2?AVbad_alloc@std@@
xdata$x	SEGMENT
__TI2?AVbad_alloc@std@@ DD 00H
	DD	FLAT:??1bad_alloc@std@@UAE@XZ
	DD	00H
	DD	FLAT:__CTA2?AVbad_alloc@std@@
; Function compile flags: /Ogsp
; File c:\program files (x86)\microsoft visual studio 10.0\vc\include\xmemory
xdata$x	ENDS
;	COMDAT ??$_Allocate@PAVioBall@@@std@@YAPAPAVioBall@@IPAPAV1@@Z
_TEXT	SEGMENT
$T531757 = -12						; size = 12
$T531762 = 8						; size = 4
__Count$ = 8						; size = 4
___formal$ = 12						; size = 4
??$_Allocate@PAVioBall@@@std@@YAPAPAVioBall@@IPAPAV1@@Z PROC ; std::_Allocate<ioBall *>, COMDAT

; 30   : 	{	// allocate storage for _Count elements of type _Ty

  00000	55		 push	 ebp
  00001	8b ec		 mov	 ebp, esp

; 31   : 	void *_Ptr = 0;
; 32   : 
; 33   : 	if (_Count <= 0)

  00003	8b 4d 08	 mov	 ecx, DWORD PTR __Count$[ebp]
  00006	83 ec 0c	 sub	 esp, 12			; 0000000cH
  00009	33 c0		 xor	 eax, eax
  0000b	85 c9		 test	 ecx, ecx

; 34   : 		_Count = 0;
; 35   : 	else if (((_SIZT)(-1) / sizeof (_Ty) < _Count)

  0000d	74 3e		 je	 SHORT $LN5@Allocate

; 36   : 		|| (_Ptr = ::operator new(_Count * sizeof (_Ty))) == 0)

  0000f	81 f9 ff ff ff
	3f		 cmp	 ecx, 1073741823		; 3fffffffH
  00015	77 10		 ja	 SHORT $LN1@Allocate
  00017	8b c1		 mov	 eax, ecx
  00019	c1 e0 02	 shl	 eax, 2
  0001c	50		 push	 eax
  0001d	e8 00 00 00 00	 call	 ??2@YAPAXI@Z		; operator new
  00022	59		 pop	 ecx
  00023	85 c0		 test	 eax, eax

; 38   : 
; 39   : 	return ((_Ty _FARQ *)_Ptr);

  00025	75 26		 jne	 SHORT $LN5@Allocate
$LN1@Allocate:

; 37   : 		_THROW_NCEE(bad_alloc, 0);

  00027	83 65 08 00	 and	 DWORD PTR $T531762[ebp], 0
  0002b	8d 45 08	 lea	 eax, DWORD PTR $T531762[ebp]
  0002e	50		 push	 eax
  0002f	8d 4d f4	 lea	 ecx, DWORD PTR $T531757[ebp]
  00032	ff 15 00 00 00
	00		 call	 DWORD PTR __imp_??0exception@std@@QAE@ABQBD@Z
  00038	68 00 00 00 00	 push	 OFFSET __TI2?AVbad_alloc@std@@
  0003d	8d 45 f4	 lea	 eax, DWORD PTR $T531757[ebp]
  00040	50		 push	 eax
  00041	c7 45 f4 00 00
	00 00		 mov	 DWORD PTR $T531757[ebp], OFFSET ??_7bad_alloc@std@@6B@
  00048	e8 00 00 00 00	 call	 __CxxThrowException@8
$LN10@Allocate:
$LN5@Allocate:

; 40   : 	}

  0004d	c9		 leave
  0004e	c3		 ret	 0
$LN9@Allocate:
??$_Allocate@PAVioBall@@@std@@YAPAPAVioBall@@IPAPAV1@@Z ENDP ; std::_Allocate<ioBall *>
_TEXT	ENDS
PUBLIC	??$forward@AAPAVioBall@@@std@@YAAAPAVioBall@@AAPAV1@@Z ; std::forward<ioBall * &>
; Function compile flags: /Ogsp
; File c:\program files (x86)\microsoft visual studio 10.0\vc\include\utility
;	COMDAT ??$forward@AAPAVioBall@@@std@@YAAAPAVioBall@@AAPAV1@@Z
_TEXT	SEGMENT
__Arg$ = 8						; size = 4
??$forward@AAPAVioBall@@@std@@YAAAPAVioBall@@AAPAV1@@Z PROC ; std::forward<ioBall * &>, COMDAT

; 78   : 	{	// forward _Arg, given explicitly specified type parameter

  00000	55		 push	 ebp
  00001	8b ec		 mov	 ebp, esp

; 79   : 	return ((_Ty&&)_Arg);

  00003	8b 45 08	 mov	 eax, DWORD PTR __Arg$[ebp]

; 80   : 	}

  00006	5d		 pop	 ebp
  00007	c3		 ret	 0
??$forward@AAPAVioBall@@@std@@YAAAPAVioBall@@AAPAV1@@Z ENDP ; std::forward<ioBall * &>
_TEXT	ENDS
PUBLIC	??$construct@AAPAVioBall@@@?$allocator@PAVioBall@@@std@@QAEXPAPAVioBall@@AAPAV2@@Z ; std::allocator<ioBall *>::construct<ioBall * &>
; Function compile flags: /Ogsp
; File c:\program files (x86)\microsoft visual studio 10.0\vc\include\xmemory
;	COMDAT ??$construct@AAPAVioBall@@@?$allocator@PAVioBall@@@std@@QAEXPAPAVioBall@@AAPAV2@@Z
_TEXT	SEGMENT
__Ptr$ = 8						; size = 4
__Val$ = 12						; size = 4
??$construct@AAPAVioBall@@@?$allocator@PAVioBall@@@std@@QAEXPAPAVioBall@@AAPAV2@@Z PROC ; std::allocator<ioBall *>::construct<ioBall * &>, COMDAT
; _this$ = ecx

; 206  : 		void construct(pointer _Ptr, _Other&& _Val)

  00000	55		 push	 ebp
  00001	8b ec		 mov	 ebp, esp

; 207  : 		{	// construct object at _Ptr with value _Val
; 208  : 		::new ((void _FARQ *)_Ptr) _Ty(_STD forward<_Other>(_Val));

  00003	8b 45 08	 mov	 eax, DWORD PTR __Ptr$[ebp]
  00006	85 c0		 test	 eax, eax
  00008	74 07		 je	 SHORT $LN3@construct
  0000a	8b 4d 0c	 mov	 ecx, DWORD PTR __Val$[ebp]
  0000d	8b 09		 mov	 ecx, DWORD PTR [ecx]
  0000f	89 08		 mov	 DWORD PTR [eax], ecx
$LN3@construct:

; 209  : 		}

  00011	5d		 pop	 ebp
  00012	c2 08 00	 ret	 8
??$construct@AAPAVioBall@@@?$allocator@PAVioBall@@@std@@QAEXPAPAVioBall@@AAPAV2@@Z ENDP ; std::allocator<ioBall *>::construct<ioBall * &>
_TEXT	ENDS
PUBLIC	??$forward@ABQAVioBall@@@std@@YAABQAVioBall@@ABQAV1@@Z ; std::forward<ioBall * const &>
; Function compile flags: /Ogsp
; File c:\program files (x86)\microsoft visual studio 10.0\vc\include\utility
;	COMDAT ??$forward@ABQAVioBall@@@std@@YAABQAVioBall@@ABQAV1@@Z
_TEXT	SEGMENT
__Arg$ = 8						; size = 4
??$forward@ABQAVioBall@@@std@@YAABQAVioBall@@ABQAV1@@Z PROC ; std::forward<ioBall * const &>, COMDAT

; 78   : 	{	// forward _Arg, given explicitly specified type parameter

  00000	55		 push	 ebp
  00001	8b ec		 mov	 ebp, esp

; 79   : 	return ((_Ty&&)_Arg);

  00003	8b 45 08	 mov	 eax, DWORD PTR __Arg$[ebp]

; 80   : 	}

  00006	5d		 pop	 ebp
  00007	c3		 ret	 0
??$forward@ABQAVioBall@@@std@@YAABQAVioBall@@ABQAV1@@Z ENDP ; std::forward<ioBall * const &>
_TEXT	ENDS
PUBLIC	??$_Ptr_cat@PAVioBall@@PAV1@@std@@YA?AU_Scalar_ptr_iterator_tag@0@PAPAVioBall@@0@Z ; std::_Ptr_cat<ioBall *,ioBall *>
; Function compile flags: /Ogsp
; File c:\program files (x86)\microsoft visual studio 10.0\vc\include\xutility
;	COMDAT ??$_Ptr_cat@PAVioBall@@PAV1@@std@@YA?AU_Scalar_ptr_iterator_tag@0@PAPAVioBall@@0@Z
_TEXT	SEGMENT
__Cat$ = -1						; size = 1
___formal$ = 8						; size = 4
___formal$ = 12						; size = 4
??$_Ptr_cat@PAVioBall@@PAV1@@std@@YA?AU_Scalar_ptr_iterator_tag@0@PAPAVioBall@@0@Z PROC ; std::_Ptr_cat<ioBall *,ioBall *>, COMDAT

; 516  : 	{	// return pointer category from pointers

  00000	55		 push	 ebp
  00001	8b ec		 mov	 ebp, esp
  00003	51		 push	 ecx

; 517  : 	typename _Ptr_cat_helper<_Elem1, _Elem2>::_Type _Cat;
; 518  : 	return (_Cat);

  00004	8a 45 ff	 mov	 al, BYTE PTR __Cat$[ebp]

; 519  : 	}

  00007	c9		 leave
  00008	c3		 ret	 0
??$_Ptr_cat@PAVioBall@@PAV1@@std@@YA?AU_Scalar_ptr_iterator_tag@0@PAPAVioBall@@0@Z ENDP ; std::_Ptr_cat<ioBall *,ioBall *>
_TEXT	ENDS
PUBLIC	??$_Move@PAPAVioBall@@PAPAV1@@std@@YAPAPAVioBall@@PAPAV1@00U_Scalar_ptr_iterator_tag@0@@Z ; std::_Move<ioBall * *,ioBall * *>
EXTRN	__imp__memmove:PROC
; Function compile flags: /Ogsp
;	COMDAT ??$_Move@PAPAVioBall@@PAPAV1@@std@@YAPAPAVioBall@@PAPAV1@00U_Scalar_ptr_iterator_tag@0@@Z
_TEXT	SEGMENT
__First$ = 8						; size = 4
__Last$ = 12						; size = 4
__Dest$ = 16						; size = 4
___formal$ = 20						; size = 1
??$_Move@PAPAVioBall@@PAPAV1@@std@@YAPAPAVioBall@@PAPAV1@00U_Scalar_ptr_iterator_tag@0@@Z PROC ; std::_Move<ioBall * *,ioBall * *>, COMDAT

; 2522 : 	{	// move [_First, _Last) to [_Dest, ...), pointers to scalars

  00000	55		 push	 ebp
  00001	8b ec		 mov	 ebp, esp
  00003	56		 push	 esi

; 2523 : 	ptrdiff_t _Count = _Last - _First;

  00004	8b 75 0c	 mov	 esi, DWORD PTR __Last$[ebp]
  00007	2b 75 08	 sub	 esi, DWORD PTR __First$[ebp]
  0000a	57		 push	 edi

; 2524 : 	_CSTD memmove(&*_Dest, &*_First,
; 2525 : 		_Count * sizeof (*_First));

  0000b	8b 7d 10	 mov	 edi, DWORD PTR __Dest$[ebp]
  0000e	c1 fe 02	 sar	 esi, 2
  00011	c1 e6 02	 shl	 esi, 2
  00014	56		 push	 esi
  00015	ff 75 08	 push	 DWORD PTR __First$[ebp]
  00018	57		 push	 edi
  00019	ff 15 00 00 00
	00		 call	 DWORD PTR __imp__memmove
  0001f	83 c4 0c	 add	 esp, 12			; 0000000cH

; 2526 : 	return (_Dest + _Count);

  00022	8d 04 3e	 lea	 eax, DWORD PTR [esi+edi]
  00025	5f		 pop	 edi
  00026	5e		 pop	 esi

; 2527 : 	}

  00027	5d		 pop	 ebp
  00028	c3		 ret	 0
??$_Move@PAPAVioBall@@PAPAV1@@std@@YAPAPAVioBall@@PAPAV1@00U_Scalar_ptr_iterator_tag@0@@Z ENDP ; std::_Move<ioBall * *,ioBall * *>
_TEXT	ENDS
PUBLIC	??$_Destroy_range@V?$allocator@PAVioBall@@@std@@@std@@YAXPAPAVioBall@@0AAV?$allocator@PAVioBall@@@0@U_Scalar_ptr_iterator_tag@0@@Z ; std::_Destroy_range<std::allocator<ioBall *> >
; Function compile flags: /Ogsp
; File c:\program files (x86)\microsoft visual studio 10.0\vc\include\xmemory
;	COMDAT ??$_Destroy_range@V?$allocator@PAVioBall@@@std@@@std@@YAXPAPAVioBall@@0AAV?$allocator@PAVioBall@@@0@U_Scalar_ptr_iterator_tag@0@@Z
_TEXT	SEGMENT
__First$ = 8						; size = 4
__Last$ = 12						; size = 4
__Al$ = 16						; size = 4
___formal$ = 20						; size = 1
??$_Destroy_range@V?$allocator@PAVioBall@@@std@@@std@@YAXPAPAVioBall@@0AAV?$allocator@PAVioBall@@@0@U_Scalar_ptr_iterator_tag@0@@Z PROC ; std::_Destroy_range<std::allocator<ioBall *> >, COMDAT

; 105  : 	}

  00000	c3		 ret	 0
??$_Destroy_range@V?$allocator@PAVioBall@@@std@@@std@@YAXPAPAVioBall@@0AAV?$allocator@PAVioBall@@@0@U_Scalar_ptr_iterator_tag@0@@Z ENDP ; std::_Destroy_range<std::allocator<ioBall *> >
_TEXT	ENDS
PUBLIC	??$_Construct@PAVioBall@@ABQAV1@@std@@YAXPAPAVioBall@@ABQAV1@@Z ; std::_Construct<ioBall *,ioBall * const &>
; Function compile flags: /Ogsp
;	COMDAT ??$_Construct@PAVioBall@@ABQAV1@@std@@YAXPAPAVioBall@@ABQAV1@@Z
_TEXT	SEGMENT
__Ptr$ = 8						; size = 4
__Val$ = 12						; size = 4
??$_Construct@PAVioBall@@ABQAV1@@std@@YAXPAPAVioBall@@ABQAV1@@Z PROC ; std::_Construct<ioBall *,ioBall * const &>, COMDAT

; 46   : 	{	// construct object at _Ptr with value _Val

  00000	55		 push	 ebp
  00001	8b ec		 mov	 ebp, esp

; 47   : 	void _FARQ *_Vptr = _Ptr;
; 48   : 	::new (_Vptr) _Ty1(_STD forward<_Ty2>(_Val));

  00003	8b 45 08	 mov	 eax, DWORD PTR __Ptr$[ebp]
  00006	85 c0		 test	 eax, eax
  00008	74 07		 je	 SHORT $LN3@Construct
  0000a	8b 4d 0c	 mov	 ecx, DWORD PTR __Val$[ebp]
  0000d	8b 09		 mov	 ecx, DWORD PTR [ecx]
  0000f	89 08		 mov	 DWORD PTR [eax], ecx
$LN3@Construct:

; 49   : 	}

  00011	5d		 pop	 ebp
  00012	c3		 ret	 0
??$_Construct@PAVioBall@@ABQAV1@@std@@YAXPAPAVioBall@@ABQAV1@@Z ENDP ; std::_Construct<ioBall *,ioBall * const &>
_TEXT	ENDS
PUBLIC	??$_Val_type@PAPAVioBall@@@std@@YAPAPAVioBall@@PAPAV1@@Z ; std::_Val_type<ioBall * *>
; Function compile flags: /Ogsp
; File c:\program files (x86)\microsoft visual studio 10.0\vc\include\xutility
;	COMDAT ??$_Val_type@PAPAVioBall@@@std@@YAPAPAVioBall@@PAPAV1@@Z
_TEXT	SEGMENT
___formal$ = 8						; size = 4
??$_Val_type@PAPAVioBall@@@std@@YAPAPAVioBall@@PAPAV1@@Z PROC ; std::_Val_type<ioBall * *>, COMDAT

; 790  : 	return (0);

  00000	33 c0		 xor	 eax, eax

; 791  : 	}

  00002	c3		 ret	 0
??$_Val_type@PAPAVioBall@@@std@@YAPAPAVioBall@@PAPAV1@@Z ENDP ; std::_Val_type<ioBall * *>
_TEXT	ENDS
PUBLIC	??$_Uninit_move@PAVioBall@@PAV1@PAV1@@std@@YAPAPAVioBall@@PAPAV1@00AAV?$allocator@PAVioBall@@@0@0U_Scalar_ptr_iterator_tag@0@@Z ; std::_Uninit_move<ioBall *,ioBall *,ioBall *>
; Function compile flags: /Ogsp
; File c:\program files (x86)\microsoft visual studio 10.0\vc\include\memory
;	COMDAT ??$_Uninit_move@PAVioBall@@PAV1@PAV1@@std@@YAPAPAVioBall@@PAPAV1@00AAV?$allocator@PAVioBall@@@0@0U_Scalar_ptr_iterator_tag@0@@Z
_TEXT	SEGMENT
__First$ = 8						; size = 4
__Last$ = 12						; size = 4
__Dest$ = 16						; size = 4
___formal$ = 20						; size = 4
___formal$ = 24						; size = 4
___formal$ = 28						; size = 1
??$_Uninit_move@PAVioBall@@PAV1@PAV1@@std@@YAPAPAVioBall@@PAPAV1@00AAV?$allocator@PAVioBall@@@0@0U_Scalar_ptr_iterator_tag@0@@Z PROC ; std::_Uninit_move<ioBall *,ioBall *,ioBall *>, COMDAT

; 456  : 	{	// move [_First, _Last) to raw _Dest, scalar type

  00000	55		 push	 ebp
  00001	8b ec		 mov	 ebp, esp
  00003	56		 push	 esi

; 457  : 	_DEBUG_RANGE(_First, _Last);
; 458  : 	_DEBUG_POINTER(_Dest);
; 459  : 	size_t _Count = (size_t)(_Last - _First);

  00004	8b 75 0c	 mov	 esi, DWORD PTR __Last$[ebp]
  00007	2b 75 08	 sub	 esi, DWORD PTR __First$[ebp]
  0000a	c1 fe 02	 sar	 esi, 2

; 460  : 	return ((_Ty2 *)_CSTD memmove(&*_Dest, &*_First,
; 461  : 		_Count * sizeof (*_First)) + _Count);	// NB: non-overlapping move

  0000d	c1 e6 02	 shl	 esi, 2
  00010	56		 push	 esi
  00011	ff 75 08	 push	 DWORD PTR __First$[ebp]
  00014	ff 75 10	 push	 DWORD PTR __Dest$[ebp]
  00017	ff 15 00 00 00
	00		 call	 DWORD PTR __imp__memmove
  0001d	83 c4 0c	 add	 esp, 12			; 0000000cH
  00020	03 c6		 add	 eax, esi
  00022	5e		 pop	 esi

; 462  : 	}

  00023	5d		 pop	 ebp
  00024	c3		 ret	 0
??$_Uninit_move@PAVioBall@@PAV1@PAV1@@std@@YAPAPAVioBall@@PAPAV1@00AAV?$allocator@PAVioBall@@@0@0U_Scalar_ptr_iterator_tag@0@@Z ENDP ; std::_Uninit_move<ioBall *,ioBall *,ioBall *>
_TEXT	ENDS
PUBLIC	??0D3DXVECTOR3@@QAE@XZ				; D3DXVECTOR3::D3DXVECTOR3
; Function compile flags: /Ogsp
; File c:\program files (x86)\microsoft directx sdk (june 2010)\include\d3dx9math.h
;	COMDAT ??0D3DXVECTOR3@@QAE@XZ
_TEXT	SEGMENT
??0D3DXVECTOR3@@QAE@XZ PROC				; D3DXVECTOR3::D3DXVECTOR3, COMDAT
; _this$ = ecx

; 165  :     D3DXVECTOR3() {};

  00000	8b c1		 mov	 eax, ecx
  00002	c3		 ret	 0
??0D3DXVECTOR3@@QAE@XZ ENDP				; D3DXVECTOR3::D3DXVECTOR3
_TEXT	ENDS
PUBLIC	?GetArrayIndex@ioBall@@QBEHXZ			; ioBall::GetArrayIndex
; Function compile flags: /Ogsp
; File d:\lost saga for developer\youtube\tutorial\source\src\lsclient\ioball.h
;	COMDAT ?GetArrayIndex@ioBall@@QBEHXZ
_TEXT	SEGMENT
?GetArrayIndex@ioBall@@QBEHXZ PROC			; ioBall::GetArrayIndex, COMDAT
; _this$ = ecx

; 201  : 	inline int GetArrayIndex() const { return m_iArrayIndex; }

  00000	8b 81 d0 01 00
	00		 mov	 eax, DWORD PTR [ecx+464]
  00006	c3		 ret	 0
?GetArrayIndex@ioBall@@QBEHXZ ENDP			; ioBall::GetArrayIndex
_TEXT	ENDS
PUBLIC	?size@?$vector@PAVioBall@@V?$allocator@PAVioBall@@@std@@@std@@QBEIXZ ; std::vector<ioBall *,std::allocator<ioBall *> >::size
; Function compile flags: /Ogsp
; File c:\program files (x86)\microsoft visual studio 10.0\vc\include\vector
;	COMDAT ?size@?$vector@PAVioBall@@V?$allocator@PAVioBall@@@std@@@std@@QBEIXZ
_TEXT	SEGMENT
?size@?$vector@PAVioBall@@V?$allocator@PAVioBall@@@std@@@std@@QBEIXZ PROC ; std::vector<ioBall *,std::allocator<ioBall *> >::size, COMDAT
; _this$ = ecx

; 879  : 		return (this->_Mylast - this->_Myfirst);

  00000	8b 41 04	 mov	 eax, DWORD PTR [ecx+4]
  00003	2b 01		 sub	 eax, DWORD PTR [ecx]
  00005	c1 f8 02	 sar	 eax, 2

; 880  : 		}

  00008	c3		 ret	 0
?size@?$vector@PAVioBall@@V?$allocator@PAVioBall@@@std@@@std@@QBEIXZ ENDP ; std::vector<ioBall *,std::allocator<ioBall *> >::size
_TEXT	ENDS
EXTRN	__imp_??0exception@std@@QAE@ABV01@@Z:PROC
; Function compile flags: /Ogsp
;	COMDAT ??0bad_alloc@std@@QAE@ABV01@@Z
_TEXT	SEGMENT
___that$ = 8						; size = 4
??0bad_alloc@std@@QAE@ABV01@@Z PROC			; std::bad_alloc::bad_alloc, COMDAT
; _this$ = ecx
  00000	55		 push	 ebp
  00001	8b ec		 mov	 ebp, esp
  00003	56		 push	 esi
  00004	ff 75 08	 push	 DWORD PTR ___that$[ebp]
  00007	8b f1		 mov	 esi, ecx
  00009	ff 15 00 00 00
	00		 call	 DWORD PTR __imp_??0exception@std@@QAE@ABV01@@Z
  0000f	c7 06 00 00 00
	00		 mov	 DWORD PTR [esi], OFFSET ??_7bad_alloc@std@@6B@
  00015	8b c6		 mov	 eax, esi
  00017	5e		 pop	 esi
  00018	5d		 pop	 ebp
  00019	c2 04 00	 ret	 4
??0bad_alloc@std@@QAE@ABV01@@Z ENDP			; std::bad_alloc::bad_alloc
_TEXT	ENDS
PUBLIC	?GetSingleton@ioBallManager@@SAAAV1@XZ		; ioBallManager::GetSingleton
; Function compile flags: /Ogsp
; File d:\lost saga for developer\youtube\tutorial\source\src\lsclient\ioballmanager.cpp
;	COMDAT ?GetSingleton@ioBallManager@@SAAAV1@XZ
_TEXT	SEGMENT
?GetSingleton@ioBallManager@@SAAAV1@XZ PROC		; ioBallManager::GetSingleton, COMDAT

; 26   : 	return Singleton< ioBallManager >::GetSingleton();

  00000	a1 00 00 00 00	 mov	 eax, DWORD PTR ?ms_Singleton@?$Singleton@VioBallManager@@@@1PAVioBallManager@@A ; Singleton<ioBallManager>::ms_Singleton

; 27   : }

  00005	c3		 ret	 0
?GetSingleton@ioBallManager@@SAAAV1@XZ ENDP		; ioBallManager::GetSingleton
_TEXT	ENDS
PUBLIC	?GetBallStructInfo@ioBallManager@@QAEXAAVSP2Packet@@@Z ; ioBallManager::GetBallStructInfo
EXTRN	?GetBallStructInfo@ioBall@@QAEXAAVSP2Packet@@@Z:PROC ; ioBall::GetBallStructInfo
EXTRN	??6SP2Packet@@QAEAAV0@H@Z:PROC			; SP2Packet::operator<<
; Function compile flags: /Ogsp
;	COMDAT ?GetBallStructInfo@ioBallManager@@QAEXAAVSP2Packet@@@Z
_TEXT	SEGMENT
_rkPacket$ = 8						; size = 4
?GetBallStructInfo@ioBallManager@@QAEXAAVSP2Packet@@@Z PROC ; ioBallManager::GetBallStructInfo, COMDAT
; _this$ = ecx

; 45   : {

  00000	55		 push	 ebp
  00001	8b ec		 mov	 ebp, esp
  00003	53		 push	 ebx
  00004	56		 push	 esi
  00005	57		 push	 edi
  00006	8b f9		 mov	 edi, ecx

; 46   : 	int iBallCnt = m_vBallStructList.size();

  00008	8b 77 08	 mov	 esi, DWORD PTR [edi+8]
  0000b	2b 77 04	 sub	 esi, DWORD PTR [edi+4]

; 47   : 	rkPacket << iBallCnt;

  0000e	8b 4d 08	 mov	 ecx, DWORD PTR _rkPacket$[ebp]
  00011	c1 fe 02	 sar	 esi, 2
  00014	56		 push	 esi
  00015	e8 00 00 00 00	 call	 ??6SP2Packet@@QAEAAV0@H@Z ; SP2Packet::operator<<

; 48   : 	for( int i=0 ; i<iBallCnt ; i++ )

  0001a	33 db		 xor	 ebx, ebx
  0001c	85 f6		 test	 esi, esi
  0001e	7e 13		 jle	 SHORT $LN1@GetBallStr
$LL3@GetBallStr:

; 49   : 	{
; 50   : 		m_vBallStructList[i]->GetBallStructInfo( rkPacket );

  00020	8b 47 04	 mov	 eax, DWORD PTR [edi+4]
  00023	ff 75 08	 push	 DWORD PTR _rkPacket$[ebp]
  00026	8b 0c 98	 mov	 ecx, DWORD PTR [eax+ebx*4]
  00029	e8 00 00 00 00	 call	 ?GetBallStructInfo@ioBall@@QAEXAAVSP2Packet@@@Z ; ioBall::GetBallStructInfo
  0002e	43		 inc	 ebx
  0002f	3b de		 cmp	 ebx, esi
  00031	7c ed		 jl	 SHORT $LL3@GetBallStr
$LN1@GetBallStr:
  00033	5f		 pop	 edi
  00034	5e		 pop	 esi
  00035	5b		 pop	 ebx

; 51   : 	}
; 52   : }

  00036	5d		 pop	 ebp
  00037	c2 04 00	 ret	 4
?GetBallStructInfo@ioBallManager@@QAEXAAVSP2Packet@@@Z ENDP ; ioBallManager::GetBallStructInfo
_TEXT	ENDS
PUBLIC	?FindBallStruct@ioBallManager@@QAEPAVioBall@@H@Z ; ioBallManager::FindBallStruct
; Function compile flags: /Ogsp
;	COMDAT ?FindBallStruct@ioBallManager@@QAEPAVioBall@@H@Z
_TEXT	SEGMENT
_iArray$ = 8						; size = 4
?FindBallStruct@ioBallManager@@QAEPAVioBall@@H@Z PROC	; ioBallManager::FindBallStruct, COMDAT
; _this$ = ecx

; 113  : {

  00000	55		 push	 ebp
  00001	8b ec		 mov	 ebp, esp

; 114  : 	int iBallCnt = m_vBallStructList.size();

  00003	8b 41 08	 mov	 eax, DWORD PTR [ecx+8]
  00006	2b 41 04	 sub	 eax, DWORD PTR [ecx+4]
  00009	56		 push	 esi
  0000a	c1 f8 02	 sar	 eax, 2

; 115  : 	for( int i=0; i<iBallCnt; i++ )

  0000d	33 f6		 xor	 esi, esi
  0000f	57		 push	 edi
  00010	85 c0		 test	 eax, eax
  00012	7e 1a		 jle	 SHORT $LN2@FindBallSt

; 114  : 	int iBallCnt = m_vBallStructList.size();

  00014	8b 49 04	 mov	 ecx, DWORD PTR [ecx+4]
  00017	8b d1		 mov	 edx, ecx
$LL4@FindBallSt:

; 116  : 	{
; 117  : 		if( m_vBallStructList[i]->GetArrayIndex() == iArray )

  00019	8b 3a		 mov	 edi, DWORD PTR [edx]
  0001b	8b bf d0 01 00
	00		 mov	 edi, DWORD PTR [edi+464]
  00021	3b 7d 08	 cmp	 edi, DWORD PTR _iArray$[ebp]
  00024	74 10		 je	 SHORT $LN16@FindBallSt

; 115  : 	for( int i=0; i<iBallCnt; i++ )

  00026	46		 inc	 esi
  00027	83 c2 04	 add	 edx, 4
  0002a	3b f0		 cmp	 esi, eax
  0002c	7c eb		 jl	 SHORT $LL4@FindBallSt
$LN2@FindBallSt:

; 119  : 	}
; 120  : 
; 121  : 	return NULL;

  0002e	33 c0		 xor	 eax, eax
$LN5@FindBallSt:
  00030	5f		 pop	 edi
  00031	5e		 pop	 esi

; 122  : }

  00032	5d		 pop	 ebp
  00033	c2 04 00	 ret	 4
$LN16@FindBallSt:

; 118  : 			return m_vBallStructList[i];

  00036	8b 04 b1	 mov	 eax, DWORD PTR [ecx+esi*4]
  00039	eb f5		 jmp	 SHORT $LN5@FindBallSt
?FindBallStruct@ioBallManager@@QAEPAVioBall@@H@Z ENDP	; ioBallManager::FindBallStruct
_TEXT	ENDS
PUBLIC	?GetBallStruct@ioBallManager@@QAEPAVioBall@@H@Z	; ioBallManager::GetBallStruct
; Function compile flags: /Ogsp
;	COMDAT ?GetBallStruct@ioBallManager@@QAEPAVioBall@@H@Z
_TEXT	SEGMENT
_iIndex$ = 8						; size = 4
?GetBallStruct@ioBallManager@@QAEPAVioBall@@H@Z PROC	; ioBallManager::GetBallStruct, COMDAT
; _this$ = ecx

; 125  : {

  00000	55		 push	 ebp
  00001	8b ec		 mov	 ebp, esp

; 126  : 	if( (int)m_vBallStructList.size() > iIndex )

  00003	8b 51 08	 mov	 edx, DWORD PTR [ecx+8]
  00006	2b 51 04	 sub	 edx, DWORD PTR [ecx+4]
  00009	8b 45 08	 mov	 eax, DWORD PTR _iIndex$[ebp]
  0000c	c1 fa 02	 sar	 edx, 2
  0000f	3b d0		 cmp	 edx, eax
  00011	7e 08		 jle	 SHORT $LN1@GetBallStr@2

; 127  : 		return m_vBallStructList[iIndex];

  00013	8b 49 04	 mov	 ecx, DWORD PTR [ecx+4]
  00016	8b 04 81	 mov	 eax, DWORD PTR [ecx+eax*4]
  00019	eb 02		 jmp	 SHORT $LN2@GetBallStr@2
$LN1@GetBallStr@2:

; 128  : 
; 129  : 	return NULL;

  0001b	33 c0		 xor	 eax, eax
$LN2@GetBallStr@2:

; 130  : }

  0001d	5d		 pop	 ebp
  0001e	c2 04 00	 ret	 4
?GetBallStruct@ioBallManager@@QAEPAVioBall@@H@Z ENDP	; ioBallManager::GetBallStruct
_TEXT	ENDS
PUBLIC	?OnBallStructReposition@ioBallManager@@QAEXAAVSP2Packet@@@Z ; ioBallManager::OnBallStructReposition
EXTRN	?OnStructReposition@ioBall@@QAEXAAVSP2Packet@@@Z:PROC ; ioBall::OnStructReposition
EXTRN	??5SP2Packet@@QAEAAV0@AAH@Z:PROC		; SP2Packet::operator>>
; Function compile flags: /Ogsp
;	COMDAT ?OnBallStructReposition@ioBallManager@@QAEXAAVSP2Packet@@@Z
_TEXT	SEGMENT
_iArray$ = -4						; size = 4
_rkPacket$ = 8						; size = 4
?OnBallStructReposition@ioBallManager@@QAEXAAVSP2Packet@@@Z PROC ; ioBallManager::OnBallStructReposition, COMDAT
; _this$ = ecx

; 139  : {

  00000	55		 push	 ebp
  00001	8b ec		 mov	 ebp, esp
  00003	51		 push	 ecx
  00004	56		 push	 esi

; 140  : 	int iArray;
; 141  : 	rkPacket >> iArray;

  00005	8d 45 fc	 lea	 eax, DWORD PTR _iArray$[ebp]
  00008	8b f1		 mov	 esi, ecx
  0000a	8b 4d 08	 mov	 ecx, DWORD PTR _rkPacket$[ebp]
  0000d	50		 push	 eax
  0000e	e8 00 00 00 00	 call	 ??5SP2Packet@@QAEAAV0@AAH@Z ; SP2Packet::operator>>

; 142  : 
; 143  : 	ioBall *pBall = FindBallStruct( iArray );

  00013	ff 75 fc	 push	 DWORD PTR _iArray$[ebp]
  00016	8b ce		 mov	 ecx, esi
  00018	e8 00 00 00 00	 call	 ?FindBallStruct@ioBallManager@@QAEPAVioBall@@H@Z ; ioBallManager::FindBallStruct
  0001d	5e		 pop	 esi

; 144  : 	if( !pBall ) return;

  0001e	85 c0		 test	 eax, eax
  00020	74 0a		 je	 SHORT $LN2@OnBallStru

; 145  : 
; 146  : 	pBall->OnStructReposition( rkPacket );

  00022	ff 75 08	 push	 DWORD PTR _rkPacket$[ebp]
  00025	8b c8		 mov	 ecx, eax
  00027	e8 00 00 00 00	 call	 ?OnStructReposition@ioBall@@QAEXAAVSP2Packet@@@Z ; ioBall::OnStructReposition
$LN2@OnBallStru:

; 147  : }

  0002c	c9		 leave
  0002d	c2 04 00	 ret	 4
?OnBallStructReposition@ioBallManager@@QAEXAAVSP2Packet@@@Z ENDP ; ioBallManager::OnBallStructReposition
_TEXT	ENDS
PUBLIC	??0?$_Vector_val@PAVioBall@@V?$allocator@PAVioBall@@@std@@@std@@QAE@V?$allocator@PAVioBall@@@1@@Z ; std::_Vector_val<ioBall *,std::allocator<ioBall *> >::_Vector_val<ioBall *,std::allocator<ioBall *> >
; Function compile flags: /Ogsp
; File c:\program files (x86)\microsoft visual studio 10.0\vc\include\vector
;	COMDAT ??0?$_Vector_val@PAVioBall@@V?$allocator@PAVioBall@@@std@@@std@@QAE@V?$allocator@PAVioBall@@@1@@Z
_TEXT	SEGMENT
__Al$ = 8						; size = 1
??0?$_Vector_val@PAVioBall@@V?$allocator@PAVioBall@@@std@@@std@@QAE@V?$allocator@PAVioBall@@@1@@Z PROC ; std::_Vector_val<ioBall *,std::allocator<ioBall *> >::_Vector_val<ioBall *,std::allocator<ioBall *> >, COMDAT
; _this$ = ecx

; 426  : 		{	// construct allocator from _Al

  00000	8b c1		 mov	 eax, ecx

; 427  : 		_Myfirst = 0;

  00002	33 c9		 xor	 ecx, ecx
  00004	89 08		 mov	 DWORD PTR [eax], ecx

; 428  : 		_Mylast = 0;

  00006	89 48 04	 mov	 DWORD PTR [eax+4], ecx

; 429  : 		_Myend = 0;

  00009	89 48 08	 mov	 DWORD PTR [eax+8], ecx

; 430  : 		}

  0000c	c2 04 00	 ret	 4
??0?$_Vector_val@PAVioBall@@V?$allocator@PAVioBall@@@std@@@std@@QAE@V?$allocator@PAVioBall@@@1@@Z ENDP ; std::_Vector_val<ioBall *,std::allocator<ioBall *> >::_Vector_val<ioBall *,std::allocator<ioBall *> >
_TEXT	ENDS
PUBLIC	?max_size@?$vector@PAVioBall@@V?$allocator@PAVioBall@@@std@@@std@@QBEIXZ ; std::vector<ioBall *,std::allocator<ioBall *> >::max_size
; Function compile flags: /Ogsp
;	COMDAT ?max_size@?$vector@PAVioBall@@V?$allocator@PAVioBall@@@std@@@std@@QBEIXZ
_TEXT	SEGMENT
?max_size@?$vector@PAVioBall@@V?$allocator@PAVioBall@@@std@@@std@@QBEIXZ PROC ; std::vector<ioBall *,std::allocator<ioBall *> >::max_size, COMDAT
; _this$ = ecx

; 884  : 		return (this->_Alval.max_size());

  00000	b8 ff ff ff 3f	 mov	 eax, 1073741823		; 3fffffffH

; 885  : 		}

  00005	c3		 ret	 0
?max_size@?$vector@PAVioBall@@V?$allocator@PAVioBall@@@std@@@std@@QBEIXZ ENDP ; std::vector<ioBall *,std::allocator<ioBall *> >::max_size
_TEXT	ENDS
PUBLIC	?_Grow_to@?$vector@PAVioBall@@V?$allocator@PAVioBall@@@std@@@std@@IBEII@Z ; std::vector<ioBall *,std::allocator<ioBall *> >::_Grow_to
; Function compile flags: /Ogsp
;	COMDAT ?_Grow_to@?$vector@PAVioBall@@V?$allocator@PAVioBall@@@std@@@std@@IBEII@Z
_TEXT	SEGMENT
__Count$ = 8						; size = 4
?_Grow_to@?$vector@PAVioBall@@V?$allocator@PAVioBall@@@std@@@std@@IBEII@Z PROC ; std::vector<ioBall *,std::allocator<ioBall *> >::_Grow_to, COMDAT
; _this$ = ecx

; 1274 : 		{	// grow by 50% or at least to _Count

  00000	55		 push	 ebp
  00001	8b ec		 mov	 ebp, esp

; 1275 : 		size_type _Capacity = capacity();

  00003	8b 41 08	 mov	 eax, DWORD PTR [ecx+8]
  00006	2b 01		 sub	 eax, DWORD PTR [ecx]

; 1276 : 
; 1277 : 		_Capacity = max_size() - _Capacity / 2 < _Capacity
; 1278 : 			? 0 : _Capacity + _Capacity / 2;	// try to grow by 50%

  00008	ba ff ff ff 3f	 mov	 edx, 1073741823		; 3fffffffH
  0000d	c1 f8 02	 sar	 eax, 2
  00010	8b c8		 mov	 ecx, eax
  00012	d1 e9		 shr	 ecx, 1
  00014	2b d1		 sub	 edx, ecx
  00016	3b d0		 cmp	 edx, eax
  00018	73 04		 jae	 SHORT $LN4@Grow_to
  0001a	33 c0		 xor	 eax, eax
  0001c	eb 02		 jmp	 SHORT $LN5@Grow_to
$LN4@Grow_to:
  0001e	03 c1		 add	 eax, ecx
$LN5@Grow_to:

; 1279 : 		if (_Capacity < _Count)

  00020	3b 45 08	 cmp	 eax, DWORD PTR __Count$[ebp]

; 1280 : 			_Capacity = _Count;

  00023	0f 42 45 08	 cmovb	 eax, DWORD PTR __Count$[ebp]

; 1281 : 		return (_Capacity);
; 1282 : 		}

  00027	5d		 pop	 ebp
  00028	c2 04 00	 ret	 4
?_Grow_to@?$vector@PAVioBall@@V?$allocator@PAVioBall@@@std@@@std@@IBEII@Z ENDP ; std::vector<ioBall *,std::allocator<ioBall *> >::_Grow_to
_TEXT	ENDS
PUBLIC	??0?$_Vector_iterator@V?$_Vector_val@PAVioBall@@V?$allocator@PAVioBall@@@std@@@std@@@std@@QAE@PAPAVioBall@@PBU_Container_base0@1@@Z ; std::_Vector_iterator<std::_Vector_val<ioBall *,std::allocator<ioBall *> > >::_Vector_iterator<std::_Vector_val<ioBall *,std::allocator<ioBall *> > >
; Function compile flags: /Ogsp
;	COMDAT ??0?$_Vector_iterator@V?$_Vector_val@PAVioBall@@V?$allocator@PAVioBall@@@std@@@std@@@std@@QAE@PAPAVioBall@@PBU_Container_base0@1@@Z
_TEXT	SEGMENT
__Parg$ = 8						; size = 4
__Pvector$ = 12						; size = 4
??0?$_Vector_iterator@V?$_Vector_val@PAVioBall@@V?$allocator@PAVioBall@@@std@@@std@@@std@@QAE@PAPAVioBall@@PBU_Container_base0@1@@Z PROC ; std::_Vector_iterator<std::_Vector_val<ioBall *,std::allocator<ioBall *> > >::_Vector_iterator<std::_Vector_val<ioBall *,std::allocator<ioBall *> > >, COMDAT
; _this$ = ecx

; 304  : 		{	// construct with pointer _Parg

  00000	55		 push	 ebp
  00001	8b ec		 mov	 ebp, esp
  00003	8b c1		 mov	 eax, ecx
  00005	8b 4d 08	 mov	 ecx, DWORD PTR __Parg$[ebp]
  00008	89 08		 mov	 DWORD PTR [eax], ecx

; 305  : 		}

  0000a	5d		 pop	 ebp
  0000b	c2 08 00	 ret	 8
??0?$_Vector_iterator@V?$_Vector_val@PAVioBall@@V?$allocator@PAVioBall@@@std@@@std@@@std@@QAE@PAPAVioBall@@PBU_Container_base0@1@@Z ENDP ; std::_Vector_iterator<std::_Vector_val<ioBall *,std::allocator<ioBall *> > >::_Vector_iterator<std::_Vector_val<ioBall *,std::allocator<ioBall *> > >
_TEXT	ENDS
PUBLIC	?allocate@?$allocator@PAVioBall@@@std@@QAEPAPAVioBall@@I@Z ; std::allocator<ioBall *>::allocate
; Function compile flags: /Ogsp
; File c:\program files (x86)\microsoft visual studio 10.0\vc\include\xmemory
;	COMDAT ?allocate@?$allocator@PAVioBall@@@std@@QAEPAPAVioBall@@I@Z
_TEXT	SEGMENT
__Count$ = 8						; size = 4
?allocate@?$allocator@PAVioBall@@@std@@QAEPAPAVioBall@@I@Z PROC ; std::allocator<ioBall *>::allocate, COMDAT
; _this$ = ecx

; 186  : 		{	// allocate array of _Count elements

  00000	55		 push	 ebp
  00001	8b ec		 mov	 ebp, esp

; 187  : 		return (_Allocate(_Count, (pointer)0));

  00003	6a 00		 push	 0
  00005	ff 75 08	 push	 DWORD PTR __Count$[ebp]
  00008	e8 00 00 00 00	 call	 ??$_Allocate@PAVioBall@@@std@@YAPAPAVioBall@@IPAPAV1@@Z ; std::_Allocate<ioBall *>
  0000d	59		 pop	 ecx
  0000e	59		 pop	 ecx

; 188  : 		}

  0000f	5d		 pop	 ebp
  00010	c2 04 00	 ret	 4
?allocate@?$allocator@PAVioBall@@@std@@QAEPAPAVioBall@@I@Z ENDP ; std::allocator<ioBall *>::allocate
_TEXT	ENDS
PUBLIC	??8?$_Vector_const_iterator@V?$_Vector_val@PAVioBall@@V?$allocator@PAVioBall@@@std@@@std@@@std@@QBE_NABV01@@Z ; std::_Vector_const_iterator<std::_Vector_val<ioBall *,std::allocator<ioBall *> > >::operator==
; Function compile flags: /Ogsp
; File c:\program files (x86)\microsoft visual studio 10.0\vc\include\vector
;	COMDAT ??8?$_Vector_const_iterator@V?$_Vector_val@PAVioBall@@V?$allocator@PAVioBall@@@std@@@std@@@std@@QBE_NABV01@@Z
_TEXT	SEGMENT
__Right$ = 8						; size = 4
??8?$_Vector_const_iterator@V?$_Vector_val@PAVioBall@@V?$allocator@PAVioBall@@@std@@@std@@@std@@QBE_NABV01@@Z PROC ; std::_Vector_const_iterator<std::_Vector_val<ioBall *,std::allocator<ioBall *> > >::operator==, COMDAT
; _this$ = ecx

; 201  : 		{	// test for iterator equality

  00000	55		 push	 ebp
  00001	8b ec		 mov	 ebp, esp

; 202  : 		_Compat(_Right);
; 203  : 		return (this->_Ptr == _Right._Ptr);

  00003	8b 01		 mov	 eax, DWORD PTR [ecx]
  00005	8b 4d 08	 mov	 ecx, DWORD PTR __Right$[ebp]
  00008	2b 01		 sub	 eax, DWORD PTR [ecx]
  0000a	f7 d8		 neg	 eax
  0000c	1b c0		 sbb	 eax, eax
  0000e	40		 inc	 eax

; 204  : 		}

  0000f	5d		 pop	 ebp
  00010	c2 04 00	 ret	 4
??8?$_Vector_const_iterator@V?$_Vector_val@PAVioBall@@V?$allocator@PAVioBall@@@std@@@std@@@std@@QBE_NABV01@@Z ENDP ; std::_Vector_const_iterator<std::_Vector_val<ioBall *,std::allocator<ioBall *> > >::operator==
_TEXT	ENDS
PUBLIC	??$_Cons_val@V?$allocator@PAVioBall@@@std@@PAVioBall@@AAPAV3@@std@@YAXAAV?$allocator@PAVioBall@@@0@PAPAVioBall@@AAPAV2@@Z ; std::_Cons_val<std::allocator<ioBall *>,ioBall *,ioBall * &>
; Function compile flags: /Ogsp
; File c:\program files (x86)\microsoft visual studio 10.0\vc\include\xmemory
;	COMDAT ??$_Cons_val@V?$allocator@PAVioBall@@@std@@PAVioBall@@AAPAV3@@std@@YAXAAV?$allocator@PAVioBall@@@0@PAPAVioBall@@AAPAV2@@Z
_TEXT	SEGMENT
__Alval$ = 8						; size = 4
__Pdest$ = 12						; size = 4
__Src$ = 16						; size = 4
??$_Cons_val@V?$allocator@PAVioBall@@@std@@PAVioBall@@AAPAV3@@std@@YAXAAV?$allocator@PAVioBall@@@0@PAPAVioBall@@AAPAV2@@Z PROC ; std::_Cons_val<std::allocator<ioBall *>,ioBall *,ioBall * &>, COMDAT

; 279  : 	{	// construct using allocator

  00000	55		 push	 ebp
  00001	8b ec		 mov	 ebp, esp

; 280  : 	_Alval.construct(_Pdest, _STD forward<_Ty2>(_Src));

  00003	8b 45 0c	 mov	 eax, DWORD PTR __Pdest$[ebp]
  00006	85 c0		 test	 eax, eax
  00008	74 07		 je	 SHORT $LN7@Cons_val
  0000a	8b 4d 10	 mov	 ecx, DWORD PTR __Src$[ebp]
  0000d	8b 09		 mov	 ecx, DWORD PTR [ecx]
  0000f	89 08		 mov	 DWORD PTR [eax], ecx
$LN7@Cons_val:

; 281  : 	}

  00011	5d		 pop	 ebp
  00012	c3		 ret	 0
??$_Cons_val@V?$allocator@PAVioBall@@@std@@PAVioBall@@AAPAV3@@std@@YAXAAV?$allocator@PAVioBall@@@0@PAPAVioBall@@AAPAV2@@Z ENDP ; std::_Cons_val<std::allocator<ioBall *>,ioBall *,ioBall * &>
_TEXT	ENDS
PUBLIC	??$_Move@PAPAVioBall@@PAPAV1@@std@@YAPAPAVioBall@@PAPAV1@00@Z ; std::_Move<ioBall * *,ioBall * *>
; Function compile flags: /Ogsp
; File c:\program files (x86)\microsoft visual studio 10.0\vc\include\xutility
;	COMDAT ??$_Move@PAPAVioBall@@PAPAV1@@std@@YAPAPAVioBall@@PAPAV1@00@Z
_TEXT	SEGMENT
__Cat$531955 = -4					; size = 1
__First$ = 8						; size = 4
__Last$ = 12						; size = 4
__Dest$ = 16						; size = 4
??$_Move@PAPAVioBall@@PAPAV1@@std@@YAPAPAVioBall@@PAPAV1@00@Z PROC ; std::_Move<ioBall * *,ioBall * *>, COMDAT

; 2533 : 	{	// move [_First, _Last) to [_Dest, ...), unchecked

  00000	55		 push	 ebp
  00001	8b ec		 mov	 ebp, esp
  00003	51		 push	 ecx

; 2534 : 	return (_Move(_First, _Last,
; 2535 : 		_Dest, _Ptr_cat(_First, _Dest)));

  00004	ff 75 fc	 push	 DWORD PTR __Cat$531955[ebp]
  00007	ff 75 10	 push	 DWORD PTR __Dest$[ebp]
  0000a	ff 75 0c	 push	 DWORD PTR __Last$[ebp]
  0000d	ff 75 08	 push	 DWORD PTR __First$[ebp]
  00010	e8 00 00 00 00	 call	 ??$_Move@PAPAVioBall@@PAPAV1@@std@@YAPAPAVioBall@@PAPAV1@00U_Scalar_ptr_iterator_tag@0@@Z ; std::_Move<ioBall * *,ioBall * *>
  00015	83 c4 10	 add	 esp, 16			; 00000010H

; 2536 : 	}

  00018	c9		 leave
  00019	c3		 ret	 0
??$_Move@PAPAVioBall@@PAPAV1@@std@@YAPAPAVioBall@@PAPAV1@00@Z ENDP ; std::_Move<ioBall * *,ioBall * *>
_TEXT	ENDS
PUBLIC	??$_Destroy_range@V?$allocator@PAVioBall@@@std@@@std@@YAXPAPAVioBall@@0AAV?$allocator@PAVioBall@@@0@@Z ; std::_Destroy_range<std::allocator<ioBall *> >
; Function compile flags: /Ogsp
; File c:\program files (x86)\microsoft visual studio 10.0\vc\include\xmemory
;	COMDAT ??$_Destroy_range@V?$allocator@PAVioBall@@@std@@@std@@YAXPAPAVioBall@@0AAV?$allocator@PAVioBall@@@0@@Z
_TEXT	SEGMENT
__First$ = 8						; size = 4
__Last$ = 12						; size = 4
__Al$ = 16						; size = 4
??$_Destroy_range@V?$allocator@PAVioBall@@@std@@@std@@YAXPAPAVioBall@@0AAV?$allocator@PAVioBall@@@0@@Z PROC ; std::_Destroy_range<std::allocator<ioBall *> >, COMDAT

; 88   : 	_Destroy_range(_First, _Last, _Al, _Ptr_cat(_First, _Last));
; 89   : 	}

  00000	c3		 ret	 0
??$_Destroy_range@V?$allocator@PAVioBall@@@std@@@std@@YAXPAPAVioBall@@0AAV?$allocator@PAVioBall@@@0@@Z ENDP ; std::_Destroy_range<std::allocator<ioBall *> >
_TEXT	ENDS
PUBLIC	?construct@?$allocator@PAVioBall@@@std@@QAEXPAPAVioBall@@ABQAV3@@Z ; std::allocator<ioBall *>::construct
; Function compile flags: /Ogsp
;	COMDAT ?construct@?$allocator@PAVioBall@@@std@@QAEXPAPAVioBall@@ABQAV3@@Z
_TEXT	SEGMENT
__Ptr$ = 8						; size = 4
__Val$ = 12						; size = 4
?construct@?$allocator@PAVioBall@@@std@@QAEXPAPAVioBall@@ABQAV3@@Z PROC ; std::allocator<ioBall *>::construct, COMDAT
; _this$ = ecx

; 196  : 		{	// construct object at _Ptr with value _Val

  00000	55		 push	 ebp
  00001	8b ec		 mov	 ebp, esp

; 197  : 		_Construct(_Ptr, _Val);

  00003	8b 45 08	 mov	 eax, DWORD PTR __Ptr$[ebp]
  00006	85 c0		 test	 eax, eax
  00008	74 07		 je	 SHORT $LN5@construct@2
  0000a	8b 4d 0c	 mov	 ecx, DWORD PTR __Val$[ebp]
  0000d	8b 09		 mov	 ecx, DWORD PTR [ecx]
  0000f	89 08		 mov	 DWORD PTR [eax], ecx
$LN5@construct@2:

; 198  : 		}

  00011	5d		 pop	 ebp
  00012	c2 08 00	 ret	 8
?construct@?$allocator@PAVioBall@@@std@@QAEXPAPAVioBall@@ABQAV3@@Z ENDP ; std::allocator<ioBall *>::construct
_TEXT	ENDS
PUBLIC	??$_Uninitialized_move@PAPAVioBall@@PAPAV1@V?$allocator@PAVioBall@@@std@@@std@@YAPAPAVioBall@@PAPAV1@00AAV?$allocator@PAVioBall@@@0@@Z ; std::_Uninitialized_move<ioBall * *,ioBall * *,std::allocator<ioBall *> >
; Function compile flags: /Ogsp
; File c:\program files (x86)\microsoft visual studio 10.0\vc\include\memory
;	COMDAT ??$_Uninitialized_move@PAPAVioBall@@PAPAV1@V?$allocator@PAVioBall@@@std@@@std@@YAPAPAVioBall@@PAPAV1@00AAV?$allocator@PAVioBall@@@0@@Z
_TEXT	SEGMENT
__First$ = 8						; size = 4
__Last$ = 12						; size = 4
__Dest$ = 16						; size = 4
__Al$ = 20						; size = 4
??$_Uninitialized_move@PAPAVioBall@@PAPAV1@V?$allocator@PAVioBall@@@std@@@std@@YAPAPAVioBall@@PAPAV1@00AAV?$allocator@PAVioBall@@@0@@Z PROC ; std::_Uninitialized_move<ioBall * *,ioBall * *,std::allocator<ioBall *> >, COMDAT

; 469  : 	{	// move [_First, _Last) to raw _Dest, using _Al

  00000	55		 push	 ebp
  00001	8b ec		 mov	 ebp, esp
  00003	56		 push	 esi

; 470  : 	return (_Uninit_move(_First, _Last, _Dest, _Al,
; 471  : 		_Val_type(_First), _Ptr_cat(_First, _Dest)));

  00004	8b 75 0c	 mov	 esi, DWORD PTR __Last$[ebp]
  00007	2b 75 08	 sub	 esi, DWORD PTR __First$[ebp]
  0000a	c1 fe 02	 sar	 esi, 2
  0000d	c1 e6 02	 shl	 esi, 2
  00010	56		 push	 esi
  00011	ff 75 08	 push	 DWORD PTR __First$[ebp]
  00014	ff 75 10	 push	 DWORD PTR __Dest$[ebp]
  00017	ff 15 00 00 00
	00		 call	 DWORD PTR __imp__memmove
  0001d	83 c4 0c	 add	 esp, 12			; 0000000cH
  00020	03 c6		 add	 eax, esi
  00022	5e		 pop	 esi

; 472  : 	}

  00023	5d		 pop	 ebp
  00024	c3		 ret	 0
??$_Uninitialized_move@PAPAVioBall@@PAPAV1@V?$allocator@PAVioBall@@@std@@@std@@YAPAPAVioBall@@PAPAV1@00AAV?$allocator@PAVioBall@@@0@@Z ENDP ; std::_Uninitialized_move<ioBall * *,ioBall * *,std::allocator<ioBall *> >
_TEXT	ENDS
PUBLIC	?ApplyBallStructInfo@ioBallManager@@QAEXAAVSP2Packet@@@Z ; ioBallManager::ApplyBallStructInfo
EXTRN	__imp_??1ioHashString@@QAE@XZ:PROC
EXTRN	??5SP2Packet@@QAEAAV0@AAM@Z:PROC		; SP2Packet::operator>>
EXTRN	??5SP2Packet@@QAEAAV0@AAUD3DXVECTOR3@@@Z:PROC	; SP2Packet::operator>>
EXTRN	??5SP2Packet@@QAEAAV0@AAVioHashString@@@Z:PROC	; SP2Packet::operator>>
EXTRN	__imp_??0ioHashString@@QAE@XZ:PROC
EXTRN	?OnStructInfo@ioBall@@QAEXAAVSP2Packet@@@Z:PROC	; ioBall::OnStructInfo
EXTRN	___CxxFrameHandler3:PROC
EXTRN	@__security_check_cookie@4:PROC
EXTRN	__EH_epilog3_GS:PROC
EXTRN	__EH_prolog3_GS:PROC
;	COMDAT xdata$x
; File c:\program files (x86)\microsoft directx sdk (june 2010)\include\d3dx9math.h
xdata$x	SEGMENT
__unwindtable$?ApplyBallStructInfo@ioBallManager@@QAEXAAVSP2Packet@@@Z DD 0ffffffffH
	DD	FLAT:__unwindfunclet$?ApplyBallStructInfo@ioBallManager@@QAEXAAVSP2Packet@@@Z$0
__ehfuncinfo$?ApplyBallStructInfo@ioBallManager@@QAEXAAVSP2Packet@@@Z DD 019930522H
	DD	01H
	DD	FLAT:__unwindtable$?ApplyBallStructInfo@ioBallManager@@QAEXAAVSP2Packet@@@Z
	DD	2 DUP(00H)
	DD	2 DUP(00H)
	DD	00H
	DD	01H
; Function compile flags: /Ogsp
; File d:\lost saga for developer\youtube\tutorial\source\src\lsclient\ioballmanager.cpp
xdata$x	ENDS
;	COMDAT ?ApplyBallStructInfo@ioBallManager@@QAEXAAVSP2Packet@@@Z
_TEXT	SEGMENT
_szAttacker$530504 = -120				; size = 16
_fPower$530515 = -104					; size = 4
_iState$530498 = -100					; size = 4
_fSpeed$530508 = -96					; size = 4
_fDamage$530509 = -92					; size = 4
_fSpeed$530516 = -88					; size = 4
_fPower$530507 = -84					; size = 4
_iActionStop$530510 = -80				; size = 4
_iType$530497 = -76					; size = 4
_iArray$530493 = -72					; size = 4
_iBallCnt$ = -68					; size = 4
_vDir$530506 = -64					; size = 12
_vPos$530513 = -52					; size = 12
_vPos$530505 = -40					; size = 12
_vDir$530514 = -28					; size = 12
__$EHRec$ = -12						; size = 12
_rkPacket$ = 8						; size = 4
?ApplyBallStructInfo@ioBallManager@@QAEXAAVSP2Packet@@@Z PROC ; ioBallManager::ApplyBallStructInfo, COMDAT
; _this$ = ecx

; 55   : {

  00000	6a 6c		 push	 108			; 0000006cH
  00002	b8 00 00 00 00	 mov	 eax, __ehhandler$?ApplyBallStructInfo@ioBallManager@@QAEXAAVSP2Packet@@@Z
  00007	e8 00 00 00 00	 call	 __EH_prolog3_GS
  0000c	8b 75 08	 mov	 esi, DWORD PTR _rkPacket$[ebp]

; 56   : 	int iBallCnt;
; 57   : 	rkPacket >> iBallCnt;

  0000f	8d 45 bc	 lea	 eax, DWORD PTR _iBallCnt$[ebp]
  00012	8b f9		 mov	 edi, ecx
  00014	50		 push	 eax
  00015	8b ce		 mov	 ecx, esi
  00017	e8 00 00 00 00	 call	 ??5SP2Packet@@QAEAAV0@AAH@Z ; SP2Packet::operator>>

; 58   : 
; 59   : 	for( int i=0 ; i<iBallCnt ; i++ )

  0001c	33 db		 xor	 ebx, ebx
  0001e	39 5d bc	 cmp	 DWORD PTR _iBallCnt$[ebp], ebx
  00021	0f 8e e8 00 00
	00		 jle	 $LN7@ApplyBallS
$LL9@ApplyBallS:

; 60   : 	{
; 61   : 		int iArray;
; 62   : 		rkPacket >> iArray;

  00027	8d 45 b8	 lea	 eax, DWORD PTR _iArray$530493[ebp]
  0002a	50		 push	 eax
  0002b	8b ce		 mov	 ecx, esi
  0002d	e8 00 00 00 00	 call	 ??5SP2Packet@@QAEAAV0@AAH@Z ; SP2Packet::operator>>

; 63   : 
; 64   : 		ioBall *pBall = FindBallStruct( iArray );

  00032	ff 75 b8	 push	 DWORD PTR _iArray$530493[ebp]
  00035	8b cf		 mov	 ecx, edi
  00037	e8 00 00 00 00	 call	 ?FindBallStruct@ioBallManager@@QAEPAVioBall@@H@Z ; ioBallManager::FindBallStruct

; 65   : 		if( pBall )

  0003c	85 c0		 test	 eax, eax
  0003e	74 0d		 je	 SHORT $LN6@ApplyBallS

; 66   : 		{
; 67   : 			pBall->OnStructInfo( rkPacket );

  00040	56		 push	 esi
  00041	8b c8		 mov	 ecx, eax
  00043	e8 00 00 00 00	 call	 ?OnStructInfo@ioBall@@QAEXAAVSP2Packet@@@Z ; ioBall::OnStructInfo

; 68   : 		}
; 69   : 		else

  00048	e9 b8 00 00 00	 jmp	 $LN8@ApplyBallS
$LN6@ApplyBallS:

; 70   : 		{
; 71   : 			// 
; 72   : 			int iType;
; 73   : 			rkPacket >> iType;

  0004d	8d 45 b4	 lea	 eax, DWORD PTR _iType$530497[ebp]
  00050	50		 push	 eax
  00051	8b ce		 mov	 ecx, esi
  00053	e8 00 00 00 00	 call	 ??5SP2Packet@@QAEAAV0@AAH@Z ; SP2Packet::operator>>

; 74   : 
; 75   : 			int iState;
; 76   : 			rkPacket >> iState;

  00058	8d 45 9c	 lea	 eax, DWORD PTR _iState$530498[ebp]
  0005b	50		 push	 eax
  0005c	8b ce		 mov	 ecx, esi
  0005e	e8 00 00 00 00	 call	 ??5SP2Packet@@QAEAAV0@AAH@Z ; SP2Packet::operator>>

; 77   : 
; 78   : 			switch( iType )

  00063	8b 45 b4	 mov	 eax, DWORD PTR _iType$530497[ebp]
  00066	48		 dec	 eax
  00067	74 70		 je	 SHORT $LN1@ApplyBallS
  00069	48		 dec	 eax
  0006a	0f 85 95 00 00
	00		 jne	 $LN8@ApplyBallS

; 79   : 			{
; 80   : 			case BALL_KICK:
; 81   : 				{
; 82   : 					ioHashString szAttacker;

  00070	8d 4d 88	 lea	 ecx, DWORD PTR _szAttacker$530504[ebp]
  00073	ff 15 00 00 00
	00		 call	 DWORD PTR __imp_??0ioHashString@@QAE@XZ
  00079	83 65 fc 00	 and	 DWORD PTR __$EHRec$[ebp+8], 0

; 83   : 					rkPacket >> szAttacker;

  0007d	8d 45 88	 lea	 eax, DWORD PTR _szAttacker$530504[ebp]
  00080	50		 push	 eax
  00081	8b ce		 mov	 ecx, esi
  00083	e8 00 00 00 00	 call	 ??5SP2Packet@@QAEAAV0@AAVioHashString@@@Z ; SP2Packet::operator>>

; 84   : 
; 85   : 					D3DXVECTOR3 vPos;
; 86   : 					rkPacket >> vPos;

  00088	8d 45 d8	 lea	 eax, DWORD PTR _vPos$530505[ebp]
  0008b	50		 push	 eax
  0008c	8b ce		 mov	 ecx, esi
  0008e	e8 00 00 00 00	 call	 ??5SP2Packet@@QAEAAV0@AAUD3DXVECTOR3@@@Z ; SP2Packet::operator>>

; 87   : 
; 88   : 					D3DXVECTOR3 vDir;
; 89   : 					float fPower, fSpeed;
; 90   : 					rkPacket >> vDir >> fPower >> fSpeed;

  00093	8d 45 a0	 lea	 eax, DWORD PTR _fSpeed$530508[ebp]
  00096	50		 push	 eax
  00097	8d 45 ac	 lea	 eax, DWORD PTR _fPower$530507[ebp]
  0009a	50		 push	 eax
  0009b	8d 45 c0	 lea	 eax, DWORD PTR _vDir$530506[ebp]
  0009e	50		 push	 eax
  0009f	8b ce		 mov	 ecx, esi
  000a1	e8 00 00 00 00	 call	 ??5SP2Packet@@QAEAAV0@AAUD3DXVECTOR3@@@Z ; SP2Packet::operator>>
  000a6	8b c8		 mov	 ecx, eax
  000a8	e8 00 00 00 00	 call	 ??5SP2Packet@@QAEAAV0@AAM@Z ; SP2Packet::operator>>
  000ad	8b c8		 mov	 ecx, eax
  000af	e8 00 00 00 00	 call	 ??5SP2Packet@@QAEAAV0@AAM@Z ; SP2Packet::operator>>

; 91   : 
; 92   : 					float fDamage;
; 93   : 					rkPacket >> fDamage;

  000b4	8d 45 a4	 lea	 eax, DWORD PTR _fDamage$530509[ebp]
  000b7	50		 push	 eax
  000b8	8b ce		 mov	 ecx, esi
  000ba	e8 00 00 00 00	 call	 ??5SP2Packet@@QAEAAV0@AAM@Z ; SP2Packet::operator>>

; 94   : 					int iActionStop, iShakeCamera;
; 95   : 					rkPacket >> iActionStop, iShakeCamera;

  000bf	8d 45 b0	 lea	 eax, DWORD PTR _iActionStop$530510[ebp]
  000c2	50		 push	 eax
  000c3	8b ce		 mov	 ecx, esi
  000c5	e8 00 00 00 00	 call	 ??5SP2Packet@@QAEAAV0@AAH@Z ; SP2Packet::operator>>

; 96   : 				}

  000ca	83 4d fc ff	 or	 DWORD PTR __$EHRec$[ebp+8], -1
  000ce	8d 4d 88	 lea	 ecx, DWORD PTR _szAttacker$530504[ebp]
  000d1	ff 15 00 00 00
	00		 call	 DWORD PTR __imp_??1ioHashString@@QAE@XZ

; 97   : 				break;

  000d7	eb 2c		 jmp	 SHORT $LN8@ApplyBallS
$LN1@ApplyBallS:

; 98   : 			case BALL_INFO:
; 99   : 				D3DXVECTOR3 vPos;
; 100  : 				rkPacket >> vPos;

  000d9	8d 45 cc	 lea	 eax, DWORD PTR _vPos$530513[ebp]
  000dc	50		 push	 eax
  000dd	8b ce		 mov	 ecx, esi
  000df	e8 00 00 00 00	 call	 ??5SP2Packet@@QAEAAV0@AAUD3DXVECTOR3@@@Z ; SP2Packet::operator>>

; 101  : 
; 102  : 				D3DXVECTOR3 vDir;
; 103  : 				float fPower, fSpeed;
; 104  : 				rkPacket >> vDir >> fPower >> fSpeed;

  000e4	8d 45 a8	 lea	 eax, DWORD PTR _fSpeed$530516[ebp]
  000e7	50		 push	 eax
  000e8	8d 45 98	 lea	 eax, DWORD PTR _fPower$530515[ebp]
  000eb	50		 push	 eax
  000ec	8d 45 e4	 lea	 eax, DWORD PTR _vDir$530514[ebp]
  000ef	50		 push	 eax
  000f0	8b ce		 mov	 ecx, esi
  000f2	e8 00 00 00 00	 call	 ??5SP2Packet@@QAEAAV0@AAUD3DXVECTOR3@@@Z ; SP2Packet::operator>>
  000f7	8b c8		 mov	 ecx, eax
  000f9	e8 00 00 00 00	 call	 ??5SP2Packet@@QAEAAV0@AAM@Z ; SP2Packet::operator>>
  000fe	8b c8		 mov	 ecx, eax
  00100	e8 00 00 00 00	 call	 ??5SP2Packet@@QAEAAV0@AAM@Z ; SP2Packet::operator>>
$LN8@ApplyBallS:

; 58   : 
; 59   : 	for( int i=0 ; i<iBallCnt ; i++ )

  00105	43		 inc	 ebx
  00106	3b 5d bc	 cmp	 ebx, DWORD PTR _iBallCnt$[ebp]
  00109	0f 8c 18 ff ff
	ff		 jl	 $LL9@ApplyBallS
$LN7@ApplyBallS:

; 105  : 				break;
; 106  : 			}
; 107  : 
; 108  : 		}
; 109  : 	}
; 110  : }

  0010f	e8 00 00 00 00	 call	 __EH_epilog3_GS
  00114	c2 04 00	 ret	 4
_TEXT	ENDS
;	COMDAT text$x
text$x	SEGMENT
__unwindfunclet$?ApplyBallStructInfo@ioBallManager@@QAEXAAVSP2Packet@@@Z$0:
  00000	8d 4d 88	 lea	 ecx, DWORD PTR _szAttacker$530504[ebp]
  00003	ff 25 00 00 00
	00		 jmp	 DWORD PTR __imp_??1ioHashString@@QAE@XZ
__ehhandler$?ApplyBallStructInfo@ioBallManager@@QAEXAAVSP2Packet@@@Z:
  00009	8b 54 24 08	 mov	 edx, DWORD PTR [esp+8]
  0000d	8d 42 0c	 lea	 eax, DWORD PTR [edx+12]
  00010	8b 4a 84	 mov	 ecx, DWORD PTR [edx-124]
  00013	33 c8		 xor	 ecx, eax
  00015	e8 00 00 00 00	 call	 @__security_check_cookie@4
  0001a	8b 4a fc	 mov	 ecx, DWORD PTR [edx-4]
  0001d	33 c8		 xor	 ecx, eax
  0001f	e8 00 00 00 00	 call	 @__security_check_cookie@4
  00024	b8 00 00 00 00	 mov	 eax, OFFSET __ehfuncinfo$?ApplyBallStructInfo@ioBallManager@@QAEXAAVSP2Packet@@@Z
  00029	e9 00 00 00 00	 jmp	 ___CxxFrameHandler3
text$x	ENDS
?ApplyBallStructInfo@ioBallManager@@QAEXAAVSP2Packet@@@Z ENDP ; ioBallManager::ApplyBallStructInfo
PUBLIC	??0?$vector@PAVioBall@@V?$allocator@PAVioBall@@@std@@@std@@QAE@XZ ; std::vector<ioBall *,std::allocator<ioBall *> >::vector<ioBall *,std::allocator<ioBall *> >
; Function compile flags: /Ogsp
; File c:\program files (x86)\microsoft visual studio 10.0\vc\include\vector
;	COMDAT ??0?$vector@PAVioBall@@V?$allocator@PAVioBall@@@std@@@std@@QAE@XZ
_TEXT	SEGMENT
??0?$vector@PAVioBall@@V?$allocator@PAVioBall@@@std@@@std@@QAE@XZ PROC ; std::vector<ioBall *,std::allocator<ioBall *> >::vector<ioBall *,std::allocator<ioBall *> >, COMDAT
; _this$ = ecx

; 507  : 		{	// construct empty vector

  00000	8b c1		 mov	 eax, ecx
  00002	33 c9		 xor	 ecx, ecx
  00004	89 08		 mov	 DWORD PTR [eax], ecx
  00006	89 48 04	 mov	 DWORD PTR [eax+4], ecx
  00009	89 48 08	 mov	 DWORD PTR [eax+8], ecx

; 508  : 		}

  0000c	c3		 ret	 0
??0?$vector@PAVioBall@@V?$allocator@PAVioBall@@@std@@@std@@QAE@XZ ENDP ; std::vector<ioBall *,std::allocator<ioBall *> >::vector<ioBall *,std::allocator<ioBall *> >
_TEXT	ENDS
PUBLIC	?begin@?$vector@PAVioBall@@V?$allocator@PAVioBall@@@std@@@std@@QAE?AV?$_Vector_iterator@V?$_Vector_val@PAVioBall@@V?$allocator@PAVioBall@@@std@@@std@@@2@XZ ; std::vector<ioBall *,std::allocator<ioBall *> >::begin
; Function compile flags: /Ogsp
;	COMDAT ?begin@?$vector@PAVioBall@@V?$allocator@PAVioBall@@@std@@@std@@QAE?AV?$_Vector_iterator@V?$_Vector_val@PAVioBall@@V?$allocator@PAVioBall@@@std@@@std@@@2@XZ
_TEXT	SEGMENT
___$ReturnUdt$ = 8					; size = 4
?begin@?$vector@PAVioBall@@V?$allocator@PAVioBall@@@std@@@std@@QAE?AV?$_Vector_iterator@V?$_Vector_val@PAVioBall@@V?$allocator@PAVioBall@@@std@@@std@@@2@XZ PROC ; std::vector<ioBall *,std::allocator<ioBall *> >::begin, COMDAT
; _this$ = ecx

; 781  : 		{	// return iterator for beginning of mutable sequence

  00000	55		 push	 ebp
  00001	8b ec		 mov	 ebp, esp

; 782  : 		return (iterator(this->_Myfirst, this));

  00003	8b 09		 mov	 ecx, DWORD PTR [ecx]
  00005	8b 45 08	 mov	 eax, DWORD PTR ___$ReturnUdt$[ebp]
  00008	89 08		 mov	 DWORD PTR [eax], ecx

; 783  : 		}

  0000a	5d		 pop	 ebp
  0000b	c2 04 00	 ret	 4
?begin@?$vector@PAVioBall@@V?$allocator@PAVioBall@@@std@@@std@@QAE?AV?$_Vector_iterator@V?$_Vector_val@PAVioBall@@V?$allocator@PAVioBall@@@std@@@std@@@2@XZ ENDP ; std::vector<ioBall *,std::allocator<ioBall *> >::begin
_TEXT	ENDS
PUBLIC	?end@?$vector@PAVioBall@@V?$allocator@PAVioBall@@@std@@@std@@QAE?AV?$_Vector_iterator@V?$_Vector_val@PAVioBall@@V?$allocator@PAVioBall@@@std@@@std@@@2@XZ ; std::vector<ioBall *,std::allocator<ioBall *> >::end
; Function compile flags: /Ogsp
;	COMDAT ?end@?$vector@PAVioBall@@V?$allocator@PAVioBall@@@std@@@std@@QAE?AV?$_Vector_iterator@V?$_Vector_val@PAVioBall@@V?$allocator@PAVioBall@@@std@@@std@@@2@XZ
_TEXT	SEGMENT
___$ReturnUdt$ = 8					; size = 4
?end@?$vector@PAVioBall@@V?$allocator@PAVioBall@@@std@@@std@@QAE?AV?$_Vector_iterator@V?$_Vector_val@PAVioBall@@V?$allocator@PAVioBall@@@std@@@std@@@2@XZ PROC ; std::vector<ioBall *,std::allocator<ioBall *> >::end, COMDAT
; _this$ = ecx

; 791  : 		{	// return iterator for end of mutable sequence

  00000	55		 push	 ebp
  00001	8b ec		 mov	 ebp, esp

; 792  : 		return (iterator(this->_Mylast, this));

  00003	8b 49 04	 mov	 ecx, DWORD PTR [ecx+4]
  00006	8b 45 08	 mov	 eax, DWORD PTR ___$ReturnUdt$[ebp]
  00009	89 08		 mov	 DWORD PTR [eax], ecx

; 793  : 		}

  0000b	5d		 pop	 ebp
  0000c	c2 04 00	 ret	 4
?end@?$vector@PAVioBall@@V?$allocator@PAVioBall@@@std@@@std@@QAE?AV?$_Vector_iterator@V?$_Vector_val@PAVioBall@@V?$allocator@PAVioBall@@@std@@@std@@@2@XZ ENDP ; std::vector<ioBall *,std::allocator<ioBall *> >::end
_TEXT	ENDS
PUBLIC	?_Make_iter@?$vector@PAVioBall@@V?$allocator@PAVioBall@@@std@@@std@@QBE?AV?$_Vector_iterator@V?$_Vector_val@PAVioBall@@V?$allocator@PAVioBall@@@std@@@std@@@2@V?$_Vector_const_iterator@V?$_Vector_val@PAVioBall@@V?$allocator@PAVioBall@@@std@@@std@@@2@@Z ; std::vector<ioBall *,std::allocator<ioBall *> >::_Make_iter
; Function compile flags: /Ogsp
;	COMDAT ?_Make_iter@?$vector@PAVioBall@@V?$allocator@PAVioBall@@@std@@@std@@QBE?AV?$_Vector_iterator@V?$_Vector_val@PAVioBall@@V?$allocator@PAVioBall@@@std@@@std@@@2@V?$_Vector_const_iterator@V?$_Vector_val@PAVioBall@@V?$allocator@PAVioBall@@@std@@@std@@@2@@Z
_TEXT	SEGMENT
___$ReturnUdt$ = 8					; size = 4
__Where$ = 12						; size = 4
?_Make_iter@?$vector@PAVioBall@@V?$allocator@PAVioBall@@@std@@@std@@QBE?AV?$_Vector_iterator@V?$_Vector_val@PAVioBall@@V?$allocator@PAVioBall@@@std@@@std@@@2@V?$_Vector_const_iterator@V?$_Vector_val@PAVioBall@@V?$allocator@PAVioBall@@@std@@@std@@@2@@Z PROC ; std::vector<ioBall *,std::allocator<ioBall *> >::_Make_iter, COMDAT
; _this$ = ecx

; 801  : 		{	// make iterator from const_iterator

  00000	55		 push	 ebp
  00001	8b ec		 mov	 ebp, esp

; 802  : 		return (iterator(_Where._Ptr, this));

  00003	8b 45 08	 mov	 eax, DWORD PTR ___$ReturnUdt$[ebp]
  00006	8b 4d 0c	 mov	 ecx, DWORD PTR __Where$[ebp]
  00009	89 08		 mov	 DWORD PTR [eax], ecx

; 803  : 		}

  0000b	5d		 pop	 ebp
  0000c	c2 08 00	 ret	 8
?_Make_iter@?$vector@PAVioBall@@V?$allocator@PAVioBall@@@std@@@std@@QBE?AV?$_Vector_iterator@V?$_Vector_val@PAVioBall@@V?$allocator@PAVioBall@@@std@@@std@@@2@V?$_Vector_const_iterator@V?$_Vector_val@PAVioBall@@V?$allocator@PAVioBall@@@std@@@std@@@2@@Z ENDP ; std::vector<ioBall *,std::allocator<ioBall *> >::_Make_iter
_TEXT	ENDS
PUBLIC	?_Destroy@?$vector@PAVioBall@@V?$allocator@PAVioBall@@@std@@@std@@IAEXPAPAVioBall@@0@Z ; std::vector<ioBall *,std::allocator<ioBall *> >::_Destroy
; Function compile flags: /Ogsp
;	COMDAT ?_Destroy@?$vector@PAVioBall@@V?$allocator@PAVioBall@@@std@@@std@@IAEXPAPAVioBall@@0@Z
_TEXT	SEGMENT
__First$ = 8						; size = 4
__Last$ = 12						; size = 4
?_Destroy@?$vector@PAVioBall@@V?$allocator@PAVioBall@@@std@@@std@@IAEXPAPAVioBall@@0@Z PROC ; std::vector<ioBall *,std::allocator<ioBall *> >::_Destroy, COMDAT
; _this$ = ecx

; 1270 : 		_Destroy_range(_First, _Last, this->_Alval);
; 1271 : 		}

  00000	c2 08 00	 ret	 8
?_Destroy@?$vector@PAVioBall@@V?$allocator@PAVioBall@@@std@@@std@@IAEXPAPAVioBall@@0@Z ENDP ; std::vector<ioBall *,std::allocator<ioBall *> >::_Destroy
_TEXT	ENDS
PUBLIC	??9?$_Vector_const_iterator@V?$_Vector_val@PAVioBall@@V?$allocator@PAVioBall@@@std@@@std@@@std@@QBE_NABV01@@Z ; std::_Vector_const_iterator<std::_Vector_val<ioBall *,std::allocator<ioBall *> > >::operator!=
; Function compile flags: /Ogsp
;	COMDAT ??9?$_Vector_const_iterator@V?$_Vector_val@PAVioBall@@V?$allocator@PAVioBall@@@std@@@std@@@std@@QBE_NABV01@@Z
_TEXT	SEGMENT
__Right$ = 8						; size = 4
??9?$_Vector_const_iterator@V?$_Vector_val@PAVioBall@@V?$allocator@PAVioBall@@@std@@@std@@@std@@QBE_NABV01@@Z PROC ; std::_Vector_const_iterator<std::_Vector_val<ioBall *,std::allocator<ioBall *> > >::operator!=, COMDAT
; _this$ = ecx

; 207  : 		{	// test for iterator inequality

  00000	55		 push	 ebp
  00001	8b ec		 mov	 ebp, esp

; 208  : 		return (!(*this == _Right));

  00003	8b 01		 mov	 eax, DWORD PTR [ecx]
  00005	8b 55 08	 mov	 edx, DWORD PTR __Right$[ebp]
  00008	33 c9		 xor	 ecx, ecx
  0000a	3b 02		 cmp	 eax, DWORD PTR [edx]
  0000c	0f 95 c0	 setne	 al

; 209  : 		}

  0000f	5d		 pop	 ebp
  00010	c2 04 00	 ret	 4
??9?$_Vector_const_iterator@V?$_Vector_val@PAVioBall@@V?$allocator@PAVioBall@@@std@@@std@@@std@@QBE_NABV01@@Z ENDP ; std::_Vector_const_iterator<std::_Vector_val<ioBall *,std::allocator<ioBall *> > >::operator!=
_TEXT	ENDS
PUBLIC	??$_Cons_val@V?$allocator@PAVioBall@@@std@@PAVioBall@@ABQAV3@@std@@YAXAAV?$allocator@PAVioBall@@@0@PAPAVioBall@@ABQAV2@@Z ; std::_Cons_val<std::allocator<ioBall *>,ioBall *,ioBall * const &>
; Function compile flags: /Ogsp
; File c:\program files (x86)\microsoft visual studio 10.0\vc\include\xmemory
;	COMDAT ??$_Cons_val@V?$allocator@PAVioBall@@@std@@PAVioBall@@ABQAV3@@std@@YAXAAV?$allocator@PAVioBall@@@0@PAPAVioBall@@ABQAV2@@Z
_TEXT	SEGMENT
__Alval$ = 8						; size = 4
__Pdest$ = 12						; size = 4
__Src$ = 16						; size = 4
??$_Cons_val@V?$allocator@PAVioBall@@@std@@PAVioBall@@ABQAV3@@std@@YAXAAV?$allocator@PAVioBall@@@0@PAPAVioBall@@ABQAV2@@Z PROC ; std::_Cons_val<std::allocator<ioBall *>,ioBall *,ioBall * const &>, COMDAT

; 279  : 	{	// construct using allocator

  00000	55		 push	 ebp
  00001	8b ec		 mov	 ebp, esp

; 280  : 	_Alval.construct(_Pdest, _STD forward<_Ty2>(_Src));

  00003	8b 45 0c	 mov	 eax, DWORD PTR __Pdest$[ebp]
  00006	85 c0		 test	 eax, eax
  00008	74 07		 je	 SHORT $LN9@Cons_val@2
  0000a	8b 4d 10	 mov	 ecx, DWORD PTR __Src$[ebp]
  0000d	8b 09		 mov	 ecx, DWORD PTR [ecx]
  0000f	89 08		 mov	 DWORD PTR [eax], ecx
$LN9@Cons_val@2:

; 281  : 	}

  00011	5d		 pop	 ebp
  00012	c3		 ret	 0
??$_Cons_val@V?$allocator@PAVioBall@@@std@@PAVioBall@@ABQAV3@@std@@YAXAAV?$allocator@PAVioBall@@@0@PAPAVioBall@@ABQAV2@@Z ENDP ; std::_Cons_val<std::allocator<ioBall *>,ioBall *,ioBall * const &>
_TEXT	ENDS
PUBLIC	??$_Umove@PAPAVioBall@@@?$vector@PAVioBall@@V?$allocator@PAVioBall@@@std@@@std@@IAEPAPAVioBall@@PAPAV2@00@Z ; std::vector<ioBall *,std::allocator<ioBall *> >::_Umove<ioBall * *>
; Function compile flags: /Ogsp
; File c:\program files (x86)\microsoft visual studio 10.0\vc\include\vector
;	COMDAT ??$_Umove@PAPAVioBall@@@?$vector@PAVioBall@@V?$allocator@PAVioBall@@@std@@@std@@IAEPAPAVioBall@@PAPAV2@00@Z
_TEXT	SEGMENT
__First$ = 8						; size = 4
__Last$ = 12						; size = 4
__Ptr$ = 16						; size = 4
??$_Umove@PAPAVioBall@@@?$vector@PAVioBall@@V?$allocator@PAVioBall@@@std@@@std@@IAEPAPAVioBall@@PAPAV2@00@Z PROC ; std::vector<ioBall *,std::allocator<ioBall *> >::_Umove<ioBall * *>, COMDAT
; _this$ = ecx

; 1322 : 		pointer _Umove(_Iter _First, _Iter _Last, pointer _Ptr)

  00000	55		 push	 ebp
  00001	8b ec		 mov	 ebp, esp

; 1323 : 		{	// move initializing [_First, _Last), using allocator
; 1324 : 		return (_Uninitialized_move(_First, _Last,
; 1325 : 			_Ptr, this->_Alval));

  00003	83 c1 0c	 add	 ecx, 12			; 0000000cH
  00006	51		 push	 ecx
  00007	ff 75 10	 push	 DWORD PTR __Ptr$[ebp]
  0000a	ff 75 0c	 push	 DWORD PTR __Last$[ebp]
  0000d	ff 75 08	 push	 DWORD PTR __First$[ebp]
  00010	e8 00 00 00 00	 call	 ??$_Uninitialized_move@PAPAVioBall@@PAPAV1@V?$allocator@PAVioBall@@@std@@@std@@YAPAPAVioBall@@PAPAV1@00AAV?$allocator@PAVioBall@@@0@@Z ; std::_Uninitialized_move<ioBall * *,ioBall * *,std::allocator<ioBall *> >
  00015	83 c4 10	 add	 esp, 16			; 00000010H

; 1326 : 		}

  00018	5d		 pop	 ebp
  00019	c2 0c 00	 ret	 12			; 0000000cH
??$_Umove@PAPAVioBall@@@?$vector@PAVioBall@@V?$allocator@PAVioBall@@@std@@@std@@IAEPAPAVioBall@@PAPAV2@00@Z ENDP ; std::vector<ioBall *,std::allocator<ioBall *> >::_Umove<ioBall * *>
_TEXT	ENDS
PUBLIC	?erase@?$vector@PAVioBall@@V?$allocator@PAVioBall@@@std@@@std@@QAE?AV?$_Vector_iterator@V?$_Vector_val@PAVioBall@@V?$allocator@PAVioBall@@@std@@@std@@@2@V?$_Vector_const_iterator@V?$_Vector_val@PAVioBall@@V?$allocator@PAVioBall@@@std@@@std@@@2@0@Z ; std::vector<ioBall *,std::allocator<ioBall *> >::erase
; Function compile flags: /Ogsp
;	COMDAT ?erase@?$vector@PAVioBall@@V?$allocator@PAVioBall@@@std@@@std@@QAE?AV?$_Vector_iterator@V?$_Vector_val@PAVioBall@@V?$allocator@PAVioBall@@@std@@@std@@@2@V?$_Vector_const_iterator@V?$_Vector_val@PAVioBall@@V?$allocator@PAVioBall@@@std@@@std@@@2@0@Z
_TEXT	SEGMENT
___$ReturnUdt$ = 8					; size = 4
__First_arg$ = 12					; size = 4
__Cat$532256 = 16					; size = 1
__Last_arg$ = 16					; size = 4
?erase@?$vector@PAVioBall@@V?$allocator@PAVioBall@@@std@@@std@@QAE?AV?$_Vector_iterator@V?$_Vector_val@PAVioBall@@V?$allocator@PAVioBall@@@std@@@std@@@2@V?$_Vector_const_iterator@V?$_Vector_val@PAVioBall@@V?$allocator@PAVioBall@@@std@@@std@@@2@0@Z PROC ; std::vector<ioBall *,std::allocator<ioBall *> >::erase, COMDAT
; _this$ = ecx

; 1190 : 		{	// erase [_First, _Last)

  00000	55		 push	 ebp
  00001	8b ec		 mov	 ebp, esp

; 1191 : 		iterator _First = _Make_iter(_First_arg);

  00003	8b 45 0c	 mov	 eax, DWORD PTR __First_arg$[ebp]
  00006	56		 push	 esi
  00007	57		 push	 edi
  00008	8b 7d 08	 mov	 edi, DWORD PTR ___$ReturnUdt$[ebp]
  0000b	8b f1		 mov	 esi, ecx
  0000d	89 07		 mov	 DWORD PTR [edi], eax

; 1192 : 		iterator _Last = _Make_iter(_Last_arg);
; 1193 : 
; 1194 : 		if (_First != _Last)

  0000f	3b 45 10	 cmp	 eax, DWORD PTR __Last_arg$[ebp]
  00012	74 16		 je	 SHORT $LN1@erase

; 1195 : 			{	// worth doing, copy down over hole
; 1196 :  #if _ITERATOR_DEBUG_LEVEL == 2
; 1197 : 			if (_Last < _First || _VICONT(_First) != this
; 1198 : 				|| _VIPTR(_First) < this->_Myfirst
; 1199 : 				|| this->_Mylast < _VIPTR(_Last))
; 1200 : 				_DEBUG_ERROR("vector erase iterator outside range");
; 1201 : 			pointer _Ptr = _Move(_VIPTR(_Last), this->_Mylast,
; 1202 : 				_VIPTR(_First));
; 1203 : 			_Orphan_range(_VIPTR(_First), this->_Mylast);
; 1204 : 
; 1205 :  #else /* _ITERATOR_DEBUG_LEVEL == 2 */
; 1206 : 			pointer _Ptr = _Move(_VIPTR(_Last), this->_Mylast,
; 1207 : 				_VIPTR(_First));

  00014	ff 75 10	 push	 DWORD PTR __Cat$532256[ebp]
  00017	8b 4e 04	 mov	 ecx, DWORD PTR [esi+4]
  0001a	50		 push	 eax
  0001b	51		 push	 ecx
  0001c	ff 75 10	 push	 DWORD PTR __Last_arg$[ebp]
  0001f	e8 00 00 00 00	 call	 ??$_Move@PAPAVioBall@@PAPAV1@@std@@YAPAPAVioBall@@PAPAV1@00U_Scalar_ptr_iterator_tag@0@@Z ; std::_Move<ioBall * *,ioBall * *>
  00024	83 c4 10	 add	 esp, 16			; 00000010H

; 1208 :  #endif /* _ITERATOR_DEBUG_LEVEL == 2 */
; 1209 : 
; 1210 : 			_Destroy(_Ptr, this->_Mylast);
; 1211 : 			this->_Mylast = _Ptr;

  00027	89 46 04	 mov	 DWORD PTR [esi+4], eax
$LN1@erase:

; 1212 : 			}
; 1213 : 		return (_First);

  0002a	8b c7		 mov	 eax, edi
  0002c	5f		 pop	 edi
  0002d	5e		 pop	 esi

; 1214 : 		}

  0002e	5d		 pop	 ebp
  0002f	c2 0c 00	 ret	 12			; 0000000cH
?erase@?$vector@PAVioBall@@V?$allocator@PAVioBall@@@std@@@std@@QAE?AV?$_Vector_iterator@V?$_Vector_val@PAVioBall@@V?$allocator@PAVioBall@@@std@@@std@@@2@V?$_Vector_const_iterator@V?$_Vector_val@PAVioBall@@V?$allocator@PAVioBall@@@std@@@std@@@2@0@Z ENDP ; std::vector<ioBall *,std::allocator<ioBall *> >::erase
_TEXT	ENDS
PUBLIC	?_Tidy@?$vector@PAVioBall@@V?$allocator@PAVioBall@@@std@@@std@@IAEXXZ ; std::vector<ioBall *,std::allocator<ioBall *> >::_Tidy
EXTRN	__imp_?_Orphan_all@_Container_base0@std@@QAEXXZ:PROC
; Function compile flags: /Ogsp
;	COMDAT ?_Tidy@?$vector@PAVioBall@@V?$allocator@PAVioBall@@@std@@@std@@IAEXXZ
_TEXT	SEGMENT
?_Tidy@?$vector@PAVioBall@@V?$allocator@PAVioBall@@@std@@@std@@IAEXXZ PROC ; std::vector<ioBall *,std::allocator<ioBall *> >::_Tidy, COMDAT
; _this$ = ecx

; 1301 : 		{	// free all storage

  00000	56		 push	 esi
  00001	8b f1		 mov	 esi, ecx

; 1302 : 		if (this->_Myfirst != 0)

  00003	83 3e 00	 cmp	 DWORD PTR [esi], 0
  00006	74 0e		 je	 SHORT $LN12@Tidy

; 1303 : 			{	// something to free, destroy and deallocate it
; 1304 : 			this->_Orphan_all();

  00008	ff 15 00 00 00
	00		 call	 DWORD PTR __imp_?_Orphan_all@_Container_base0@std@@QAEXXZ

; 1305 : 			_Destroy(this->_Myfirst, this->_Mylast);
; 1306 : 			this->_Alval.deallocate(this->_Myfirst,
; 1307 : 				this->_Myend - this->_Myfirst);

  0000e	ff 36		 push	 DWORD PTR [esi]
  00010	e8 00 00 00 00	 call	 ??3@YAXPAX@Z		; operator delete
  00015	59		 pop	 ecx
$LN12@Tidy:

; 1308 : 			}
; 1309 : 		this->_Myfirst = 0;

  00016	83 26 00	 and	 DWORD PTR [esi], 0

; 1310 : 		this->_Mylast = 0;

  00019	83 66 04 00	 and	 DWORD PTR [esi+4], 0

; 1311 : 		this->_Myend = 0;

  0001d	83 66 08 00	 and	 DWORD PTR [esi+8], 0
  00021	5e		 pop	 esi

; 1312 : 		}

  00022	c3		 ret	 0
?_Tidy@?$vector@PAVioBall@@V?$allocator@PAVioBall@@@std@@@std@@IAEXXZ ENDP ; std::vector<ioBall *,std::allocator<ioBall *> >::_Tidy
_TEXT	ENDS
PUBLIC	?reserve@?$vector@PAVioBall@@V?$allocator@PAVioBall@@@std@@@std@@QAEXI@Z ; std::vector<ioBall *,std::allocator<ioBall *> >::reserve
; Function compile flags: /Ogsp
;	COMDAT ?reserve@?$vector@PAVioBall@@V?$allocator@PAVioBall@@@std@@@std@@QAEXI@Z
_TEXT	SEGMENT
__Count$ = 8						; size = 4
?reserve@?$vector@PAVioBall@@V?$allocator@PAVioBall@@@std@@@std@@QAEXI@Z PROC ; std::vector<ioBall *,std::allocator<ioBall *> >::reserve, COMDAT
; _this$ = ecx

; 746  : 		{	// determine new minimum length of allocated storage

  00000	55		 push	 ebp
  00001	8b ec		 mov	 ebp, esp

; 747  : 		if (max_size() < _Count)

  00003	81 7d 08 ff ff
	ff 3f		 cmp	 DWORD PTR __Count$[ebp], 1073741823 ; 3fffffffH
  0000a	56		 push	 esi
  0000b	8b f1		 mov	 esi, ecx
  0000d	76 0b		 jbe	 SHORT $LN5@reserve

; 748  : 			_Xlen();	// result too long

  0000f	68 00 00 00 00	 push	 OFFSET ??_C@_0BD@OLBABOEK@vector?$DMT?$DO?5too?5long?$AA@
  00014	ff 15 00 00 00
	00		 call	 DWORD PTR __imp_?_Xlength_error@std@@YAXPBD@Z
$LN43@reserve:
$LN5@reserve:

; 749  : 		else if (capacity() < _Count)

  0001a	8b 46 08	 mov	 eax, DWORD PTR [esi+8]
  0001d	2b 06		 sub	 eax, DWORD PTR [esi]
  0001f	c1 f8 02	 sar	 eax, 2
  00022	3b 45 08	 cmp	 eax, DWORD PTR __Count$[ebp]
  00025	73 52		 jae	 SHORT $LN3@reserve

; 750  : 			{	// not enough room, reallocate
; 751  : 			pointer _Ptr = this->_Alval.allocate(_Count);

  00027	53		 push	 ebx
  00028	57		 push	 edi
  00029	6a 00		 push	 0
  0002b	ff 75 08	 push	 DWORD PTR __Count$[ebp]
  0002e	e8 00 00 00 00	 call	 ??$_Allocate@PAVioBall@@@std@@YAPAPAVioBall@@IPAPAV1@@Z ; std::_Allocate<ioBall *>

; 752  : 
; 753  : 			_TRY_BEGIN
; 754  : 			_Umove(this->_Myfirst, this->_Mylast, _Ptr);

  00033	8b 0e		 mov	 ecx, DWORD PTR [esi]
  00035	8d 56 0c	 lea	 edx, DWORD PTR [esi+12]
  00038	52		 push	 edx
  00039	8b d8		 mov	 ebx, eax
  0003b	8b 46 04	 mov	 eax, DWORD PTR [esi+4]
  0003e	53		 push	 ebx
  0003f	50		 push	 eax
  00040	51		 push	 ecx
  00041	e8 00 00 00 00	 call	 ??$_Uninitialized_move@PAPAVioBall@@PAPAV1@V?$allocator@PAVioBall@@@std@@@std@@YAPAPAVioBall@@PAPAV1@00AAV?$allocator@PAVioBall@@@0@@Z ; std::_Uninitialized_move<ioBall * *,ioBall * *,std::allocator<ioBall *> >

; 755  : 			_CATCH_ALL
; 756  : 			this->_Alval.deallocate(_Ptr, _Count);
; 757  : 			_RERAISE;
; 758  : 			_CATCH_END
; 759  : 
; 760  : 			size_type _Size = size();

  00046	8b 06		 mov	 eax, DWORD PTR [esi]
  00048	8b 7e 04	 mov	 edi, DWORD PTR [esi+4]
  0004b	2b f8		 sub	 edi, eax
  0004d	83 c4 18	 add	 esp, 24			; 00000018H
  00050	c1 ff 02	 sar	 edi, 2

; 761  : 			if (this->_Myfirst != 0)

  00053	85 c0		 test	 eax, eax
  00055	74 07		 je	 SHORT $LN39@reserve

; 762  : 				{	// destroy and deallocate old array
; 763  : 				_Destroy(this->_Myfirst, this->_Mylast);
; 764  : 				this->_Alval.deallocate(this->_Myfirst,
; 765  : 					this->_Myend - this->_Myfirst);

  00057	50		 push	 eax
  00058	e8 00 00 00 00	 call	 ??3@YAXPAX@Z		; operator delete
  0005d	59		 pop	 ecx
$LN39@reserve:

; 766  : 				}
; 767  : 
; 768  : 			this->_Orphan_all();

  0005e	8b ce		 mov	 ecx, esi
  00060	ff 15 00 00 00
	00		 call	 DWORD PTR __imp_?_Orphan_all@_Container_base0@std@@QAEXXZ

; 769  : 			this->_Myend = _Ptr + _Count;

  00066	8b 45 08	 mov	 eax, DWORD PTR __Count$[ebp]
  00069	8d 04 83	 lea	 eax, DWORD PTR [ebx+eax*4]
  0006c	89 46 08	 mov	 DWORD PTR [esi+8], eax

; 770  : 			this->_Mylast = _Ptr + _Size;

  0006f	8d 04 bb	 lea	 eax, DWORD PTR [ebx+edi*4]
  00072	5f		 pop	 edi

; 771  : 			this->_Myfirst = _Ptr;

  00073	89 1e		 mov	 DWORD PTR [esi], ebx
  00075	89 46 04	 mov	 DWORD PTR [esi+4], eax
  00078	5b		 pop	 ebx
$LN3@reserve:
  00079	5e		 pop	 esi

; 772  : 			}
; 773  : 		}

  0007a	5d		 pop	 ebp
  0007b	c2 04 00	 ret	 4
$LN42@reserve:
?reserve@?$vector@PAVioBall@@V?$allocator@PAVioBall@@@std@@@std@@QAEXI@Z ENDP ; std::vector<ioBall *,std::allocator<ioBall *> >::reserve
_TEXT	ENDS
PUBLIC	??1?$vector@PAVioBall@@V?$allocator@PAVioBall@@@std@@@std@@QAE@XZ ; std::vector<ioBall *,std::allocator<ioBall *> >::~vector<ioBall *,std::allocator<ioBall *> >
; Function compile flags: /Ogsp
;	COMDAT ??1?$vector@PAVioBall@@V?$allocator@PAVioBall@@@std@@@std@@QAE@XZ
_TEXT	SEGMENT
??1?$vector@PAVioBall@@V?$allocator@PAVioBall@@@std@@@std@@QAE@XZ PROC ; std::vector<ioBall *,std::allocator<ioBall *> >::~vector<ioBall *,std::allocator<ioBall *> >, COMDAT
; _this$ = ecx

; 705  : 		_Tidy();

  00000	e9 00 00 00 00	 jmp	 ?_Tidy@?$vector@PAVioBall@@V?$allocator@PAVioBall@@@std@@@std@@IAEXXZ ; std::vector<ioBall *,std::allocator<ioBall *> >::_Tidy
??1?$vector@PAVioBall@@V?$allocator@PAVioBall@@@std@@@std@@QAE@XZ ENDP ; std::vector<ioBall *,std::allocator<ioBall *> >::~vector<ioBall *,std::allocator<ioBall *> >
_TEXT	ENDS
PUBLIC	?clear@?$vector@PAVioBall@@V?$allocator@PAVioBall@@@std@@@std@@QAEXXZ ; std::vector<ioBall *,std::allocator<ioBall *> >::clear
; Function compile flags: /Ogsp
;	COMDAT ?clear@?$vector@PAVioBall@@V?$allocator@PAVioBall@@@std@@@std@@QAEXXZ
_TEXT	SEGMENT
$T532418 = -4						; size = 4
?clear@?$vector@PAVioBall@@V?$allocator@PAVioBall@@@std@@@std@@QAEXXZ PROC ; std::vector<ioBall *,std::allocator<ioBall *> >::clear, COMDAT
; _this$ = ecx

; 1217 : 		{	// erase all

  00000	55		 push	 ebp
  00001	8b ec		 mov	 ebp, esp
  00003	51		 push	 ecx

; 1218 : 		erase(begin(), end());

  00004	8b 41 04	 mov	 eax, DWORD PTR [ecx+4]
  00007	8b 11		 mov	 edx, DWORD PTR [ecx]
  00009	50		 push	 eax
  0000a	52		 push	 edx
  0000b	8d 45 fc	 lea	 eax, DWORD PTR $T532418[ebp]
  0000e	50		 push	 eax
  0000f	e8 00 00 00 00	 call	 ?erase@?$vector@PAVioBall@@V?$allocator@PAVioBall@@@std@@@std@@QAE?AV?$_Vector_iterator@V?$_Vector_val@PAVioBall@@V?$allocator@PAVioBall@@@std@@@std@@@2@V?$_Vector_const_iterator@V?$_Vector_val@PAVioBall@@V?$allocator@PAVioBall@@@std@@@std@@@2@0@Z ; std::vector<ioBall *,std::allocator<ioBall *> >::erase

; 1219 : 		}

  00014	c9		 leave
  00015	c3		 ret	 0
?clear@?$vector@PAVioBall@@V?$allocator@PAVioBall@@@std@@@std@@QAEXXZ ENDP ; std::vector<ioBall *,std::allocator<ioBall *> >::clear
_TEXT	ENDS
PUBLIC	?_Reserve@?$vector@PAVioBall@@V?$allocator@PAVioBall@@@std@@@std@@IAEXI@Z ; std::vector<ioBall *,std::allocator<ioBall *> >::_Reserve
; Function compile flags: /Ogsp
;	COMDAT ?_Reserve@?$vector@PAVioBall@@V?$allocator@PAVioBall@@@std@@@std@@IAEXI@Z
_TEXT	SEGMENT
__Count$ = 8						; size = 4
?_Reserve@?$vector@PAVioBall@@V?$allocator@PAVioBall@@@std@@@std@@IAEXI@Z PROC ; std::vector<ioBall *,std::allocator<ioBall *> >::_Reserve, COMDAT
; _this$ = ecx

; 1290 : 		{	// ensure room for _Count new elements, grow exponentially

  00000	55		 push	 ebp
  00001	8b ec		 mov	 ebp, esp
  00003	56		 push	 esi
  00004	8b f1		 mov	 esi, ecx

; 1291 : 		size_type _Size = size();

  00006	8b 0e		 mov	 ecx, DWORD PTR [esi]
  00008	8b 46 04	 mov	 eax, DWORD PTR [esi+4]
  0000b	2b c1		 sub	 eax, ecx

; 1292 : 		if (max_size() - _Count < _Size)

  0000d	ba ff ff ff 3f	 mov	 edx, 1073741823		; 3fffffffH
  00012	2b 55 08	 sub	 edx, DWORD PTR __Count$[ebp]
  00015	c1 f8 02	 sar	 eax, 2
  00018	3b d0		 cmp	 edx, eax
  0001a	73 0b		 jae	 SHORT $LN4@Reserve

; 1293 : 			_Xlen();

  0001c	68 00 00 00 00	 push	 OFFSET ??_C@_0BD@OLBABOEK@vector?$DMT?$DO?5too?5long?$AA@
  00021	ff 15 00 00 00
	00		 call	 DWORD PTR __imp_?_Xlength_error@std@@YAXPBD@Z
$LN21@Reserve:
$LN4@Reserve:

; 1294 : 		else if ((_Size += _Count) <= capacity())

  00027	8b 56 08	 mov	 edx, DWORD PTR [esi+8]
  0002a	03 45 08	 add	 eax, DWORD PTR __Count$[ebp]
  0002d	2b d1		 sub	 edx, ecx
  0002f	c1 fa 02	 sar	 edx, 2
  00032	3b c2		 cmp	 eax, edx
  00034	76 10		 jbe	 SHORT $LN1@Reserve

; 1295 : 			;
; 1296 : 		else
; 1297 : 			reserve(_Grow_to(_Size));

  00036	50		 push	 eax
  00037	8b ce		 mov	 ecx, esi
  00039	e8 00 00 00 00	 call	 ?_Grow_to@?$vector@PAVioBall@@V?$allocator@PAVioBall@@@std@@@std@@IBEII@Z ; std::vector<ioBall *,std::allocator<ioBall *> >::_Grow_to
  0003e	50		 push	 eax
  0003f	8b ce		 mov	 ecx, esi
  00041	e8 00 00 00 00	 call	 ?reserve@?$vector@PAVioBall@@V?$allocator@PAVioBall@@@std@@@std@@QAEXI@Z ; std::vector<ioBall *,std::allocator<ioBall *> >::reserve
$LN1@Reserve:
  00046	5e		 pop	 esi

; 1298 : 		}

  00047	5d		 pop	 ebp
  00048	c2 04 00	 ret	 4
$LN20@Reserve:
?_Reserve@?$vector@PAVioBall@@V?$allocator@PAVioBall@@@std@@@std@@IAEXI@Z ENDP ; std::vector<ioBall *,std::allocator<ioBall *> >::_Reserve
_TEXT	ENDS
PUBLIC	??_7ioBallManager@@6B@				; ioBallManager::`vftable'
PUBLIC	??0ioBallManager@@QAE@PAVioPlayStage@@@Z	; ioBallManager::ioBallManager
PUBLIC	??_R4ioBallManager@@6B@				; ioBallManager::`RTTI Complete Object Locator'
PUBLIC	??_R0?AVioBallManager@@@8			; ioBallManager `RTTI Type Descriptor'
PUBLIC	??_R3ioBallManager@@8				; ioBallManager::`RTTI Class Hierarchy Descriptor'
PUBLIC	??_R2ioBallManager@@8				; ioBallManager::`RTTI Base Class Array'
PUBLIC	??_R1A@?0A@EA@ioBallManager@@8			; ioBallManager::`RTTI Base Class Descriptor at (0,-1,0,64)'
PUBLIC	??_R13?0A@EA@?$Singleton@VioBallManager@@@@8	; Singleton<ioBallManager>::`RTTI Base Class Descriptor at (4,-1,0,64)'
PUBLIC	??_R0?AV?$Singleton@VioBallManager@@@@@8	; Singleton<ioBallManager> `RTTI Type Descriptor'
PUBLIC	??_R3?$Singleton@VioBallManager@@@@8		; Singleton<ioBallManager>::`RTTI Class Hierarchy Descriptor'
PUBLIC	??_R2?$Singleton@VioBallManager@@@@8		; Singleton<ioBallManager>::`RTTI Base Class Array'
PUBLIC	??_R1A@?0A@EA@?$Singleton@VioBallManager@@@@8	; Singleton<ioBallManager>::`RTTI Base Class Descriptor at (0,-1,0,64)'
EXTRN	??_EioBallManager@@UAEPAXI@Z:PROC		; ioBallManager::`vector deleting destructor'
;	COMDAT ??_R1A@?0A@EA@?$Singleton@VioBallManager@@@@8
; File c:\program files (x86)\microsoft visual studio 10.0\vc\include\xutility
rdata$r	SEGMENT
??_R1A@?0A@EA@?$Singleton@VioBallManager@@@@8 DD FLAT:??_R0?AV?$Singleton@VioBallManager@@@@@8 ; Singleton<ioBallManager>::`RTTI Base Class Descriptor at (0,-1,0,64)'
	DD	00H
	DD	00H
	DD	0ffffffffH
	DD	00H
	DD	040H
	DD	FLAT:??_R3?$Singleton@VioBallManager@@@@8
rdata$r	ENDS
;	COMDAT ??_R2?$Singleton@VioBallManager@@@@8
rdata$r	SEGMENT
??_R2?$Singleton@VioBallManager@@@@8 DD FLAT:??_R1A@?0A@EA@?$Singleton@VioBallManager@@@@8 ; Singleton<ioBallManager>::`RTTI Base Class Array'
rdata$r	ENDS
;	COMDAT ??_R3?$Singleton@VioBallManager@@@@8
rdata$r	SEGMENT
??_R3?$Singleton@VioBallManager@@@@8 DD 00H		; Singleton<ioBallManager>::`RTTI Class Hierarchy Descriptor'
	DD	00H
	DD	01H
	DD	FLAT:??_R2?$Singleton@VioBallManager@@@@8
rdata$r	ENDS
;	COMDAT ??_R0?AV?$Singleton@VioBallManager@@@@@8
_DATA	SEGMENT
??_R0?AV?$Singleton@VioBallManager@@@@@8 DD FLAT:??_7type_info@@6B@ ; Singleton<ioBallManager> `RTTI Type Descriptor'
	DD	00H
	DB	'.?AV?$Singleton@VioBallManager@@@@', 00H
_DATA	ENDS
;	COMDAT ??_R13?0A@EA@?$Singleton@VioBallManager@@@@8
rdata$r	SEGMENT
??_R13?0A@EA@?$Singleton@VioBallManager@@@@8 DD FLAT:??_R0?AV?$Singleton@VioBallManager@@@@@8 ; Singleton<ioBallManager>::`RTTI Base Class Descriptor at (4,-1,0,64)'
	DD	00H
	DD	04H
	DD	0ffffffffH
	DD	00H
	DD	040H
	DD	FLAT:??_R3?$Singleton@VioBallManager@@@@8
rdata$r	ENDS
;	COMDAT ??_R1A@?0A@EA@ioBallManager@@8
rdata$r	SEGMENT
??_R1A@?0A@EA@ioBallManager@@8 DD FLAT:??_R0?AVioBallManager@@@8 ; ioBallManager::`RTTI Base Class Descriptor at (0,-1,0,64)'
	DD	01H
	DD	00H
	DD	0ffffffffH
	DD	00H
	DD	040H
	DD	FLAT:??_R3ioBallManager@@8
rdata$r	ENDS
;	COMDAT ??_R2ioBallManager@@8
rdata$r	SEGMENT
??_R2ioBallManager@@8 DD FLAT:??_R1A@?0A@EA@ioBallManager@@8 ; ioBallManager::`RTTI Base Class Array'
	DD	FLAT:??_R13?0A@EA@?$Singleton@VioBallManager@@@@8
rdata$r	ENDS
;	COMDAT ??_R3ioBallManager@@8
rdata$r	SEGMENT
??_R3ioBallManager@@8 DD 00H				; ioBallManager::`RTTI Class Hierarchy Descriptor'
	DD	00H
	DD	02H
	DD	FLAT:??_R2ioBallManager@@8
rdata$r	ENDS
;	COMDAT ??_R0?AVioBallManager@@@8
_DATA	SEGMENT
??_R0?AVioBallManager@@@8 DD FLAT:??_7type_info@@6B@	; ioBallManager `RTTI Type Descriptor'
	DD	00H
	DB	'.?AVioBallManager@@', 00H
_DATA	ENDS
;	COMDAT ??_R4ioBallManager@@6B@
rdata$r	SEGMENT
??_R4ioBallManager@@6B@ DD 00H				; ioBallManager::`RTTI Complete Object Locator'
	DD	00H
	DD	00H
	DD	FLAT:??_R0?AVioBallManager@@@8
	DD	FLAT:??_R3ioBallManager@@8
rdata$r	ENDS
;	COMDAT ??_7ioBallManager@@6B@
CONST	SEGMENT
??_7ioBallManager@@6B@ DD FLAT:??_R4ioBallManager@@6B@	; ioBallManager::`vftable'
	DD	FLAT:??_EioBallManager@@UAEPAXI@Z
; Function compile flags: /Ogsp
; File d:\lost saga for developer\youtube\tutorial\source\src\lsclient\ioballmanager.cpp
CONST	ENDS
;	COMDAT ??0ioBallManager@@QAE@PAVioPlayStage@@@Z
_TEXT	SEGMENT
$T532598 = 8						; size = 4
_pStage$ = 8						; size = 4
??0ioBallManager@@QAE@PAVioPlayStage@@@Z PROC		; ioBallManager::ioBallManager, COMDAT
; _this$ = ecx

; 13   : {

  00000	55		 push	 ebp
  00001	8b ec		 mov	 ebp, esp
  00003	56		 push	 esi
  00004	8b f1		 mov	 esi, ecx
  00006	89 35 00 00 00
	00		 mov	 DWORD PTR ?ms_Singleton@?$Singleton@VioBallManager@@@@1PAVioBallManager@@A, esi ; Singleton<ioBallManager>::ms_Singleton
  0000c	33 c0		 xor	 eax, eax
  0000e	8d 4e 04	 lea	 ecx, DWORD PTR [esi+4]
  00011	c7 06 00 00 00
	00		 mov	 DWORD PTR [esi], OFFSET ??_7ioBallManager@@6B@
  00017	89 01		 mov	 DWORD PTR [ecx], eax
  00019	89 41 04	 mov	 DWORD PTR [ecx+4], eax
  0001c	89 41 08	 mov	 DWORD PTR [ecx+8], eax

; 14   : 	m_iLocalIndex = 0;

  0001f	89 46 18	 mov	 DWORD PTR [esi+24], eax

; 15   : 	m_pPlayStage = pStage;

  00022	8b 45 08	 mov	 eax, DWORD PTR _pStage$[ebp]
  00025	89 46 14	 mov	 DWORD PTR [esi+20], eax

; 16   : 	m_vBallStructList.clear();

  00028	8b 41 04	 mov	 eax, DWORD PTR [ecx+4]
  0002b	8b 11		 mov	 edx, DWORD PTR [ecx]
  0002d	50		 push	 eax
  0002e	52		 push	 edx
  0002f	8d 45 08	 lea	 eax, DWORD PTR $T532598[ebp]
  00032	50		 push	 eax
  00033	e8 00 00 00 00	 call	 ?erase@?$vector@PAVioBall@@V?$allocator@PAVioBall@@@std@@@std@@QAE?AV?$_Vector_iterator@V?$_Vector_val@PAVioBall@@V?$allocator@PAVioBall@@@std@@@std@@@2@V?$_Vector_const_iterator@V?$_Vector_val@PAVioBall@@V?$allocator@PAVioBall@@@std@@@std@@@2@0@Z ; std::vector<ioBall *,std::allocator<ioBall *> >::erase

; 17   : }

  00038	8b c6		 mov	 eax, esi
  0003a	5e		 pop	 esi
  0003b	5d		 pop	 ebp
  0003c	c2 04 00	 ret	 4
??0ioBallManager@@QAE@PAVioPlayStage@@@Z ENDP		; ioBallManager::ioBallManager
_TEXT	ENDS
PUBLIC	?DestroyBallStructList@ioBallManager@@QAEXXZ	; ioBallManager::DestroyBallStructList
EXTRN	?DestroyAllBallStruct@ioPlayStage@@QAEXXZ:PROC	; ioPlayStage::DestroyAllBallStruct
; Function compile flags: /Ogsp
;	COMDAT ?DestroyBallStructList@ioBallManager@@QAEXXZ
_TEXT	SEGMENT
$T532680 = -4						; size = 4
?DestroyBallStructList@ioBallManager@@QAEXXZ PROC	; ioBallManager::DestroyBallStructList, COMDAT
; _this$ = ecx

; 133  : {

  00000	55		 push	 ebp
  00001	8b ec		 mov	 ebp, esp
  00003	51		 push	 ecx
  00004	56		 push	 esi
  00005	8b f1		 mov	 esi, ecx

; 134  : 	m_vBallStructList.clear();

  00007	8d 4e 04	 lea	 ecx, DWORD PTR [esi+4]
  0000a	8b 41 04	 mov	 eax, DWORD PTR [ecx+4]
  0000d	8b 11		 mov	 edx, DWORD PTR [ecx]
  0000f	50		 push	 eax
  00010	52		 push	 edx
  00011	8d 45 fc	 lea	 eax, DWORD PTR $T532680[ebp]
  00014	50		 push	 eax
  00015	e8 00 00 00 00	 call	 ?erase@?$vector@PAVioBall@@V?$allocator@PAVioBall@@@std@@@std@@QAE?AV?$_Vector_iterator@V?$_Vector_val@PAVioBall@@V?$allocator@PAVioBall@@@std@@@std@@@2@V?$_Vector_const_iterator@V?$_Vector_val@PAVioBall@@V?$allocator@PAVioBall@@@std@@@std@@@2@0@Z ; std::vector<ioBall *,std::allocator<ioBall *> >::erase

; 135  : 	m_pPlayStage->DestroyAllBallStruct();

  0001a	8b 4e 14	 mov	 ecx, DWORD PTR [esi+20]
  0001d	e8 00 00 00 00	 call	 ?DestroyAllBallStruct@ioPlayStage@@QAEXXZ ; ioPlayStage::DestroyAllBallStruct
  00022	5e		 pop	 esi

; 136  : }

  00023	c9		 leave
  00024	c3		 ret	 0
?DestroyBallStructList@ioBallManager@@QAEXXZ ENDP	; ioBallManager::DestroyBallStructList
_TEXT	ENDS
PUBLIC	?push_back@?$vector@PAVioBall@@V?$allocator@PAVioBall@@@std@@@std@@QAEXABQAVioBall@@@Z ; std::vector<ioBall *,std::allocator<ioBall *> >::push_back
; Function compile flags: /Ogsp
; File c:\program files (x86)\microsoft visual studio 10.0\vc\include\vector
;	COMDAT ?push_back@?$vector@PAVioBall@@V?$allocator@PAVioBall@@@std@@@std@@QAEXABQAVioBall@@@Z
_TEXT	SEGMENT
__Val$ = 8						; size = 4
?push_back@?$vector@PAVioBall@@V?$allocator@PAVioBall@@@std@@@std@@QAEXABQAVioBall@@@Z PROC ; std::vector<ioBall *,std::allocator<ioBall *> >::push_back, COMDAT
; _this$ = ecx

; 976  : 		{	// insert element at end

  00000	55		 push	 ebp
  00001	8b ec		 mov	 ebp, esp
  00003	56		 push	 esi
  00004	8b f1		 mov	 esi, ecx

; 977  : 		if (_Inside(_STD addressof(_Val)))

  00006	8b 46 04	 mov	 eax, DWORD PTR [esi+4]
  00009	57		 push	 edi
  0000a	8b 7d 08	 mov	 edi, DWORD PTR __Val$[ebp]
  0000d	3b f8		 cmp	 edi, eax
  0000f	73 27		 jae	 SHORT $LN4@push_back
  00011	8b 0e		 mov	 ecx, DWORD PTR [esi]
  00013	3b cf		 cmp	 ecx, edi
  00015	77 21		 ja	 SHORT $LN4@push_back

; 978  : 			{	// push back an element
; 979  : 			size_type _Idx = _STD addressof(_Val) - this->_Myfirst;

  00017	2b f9		 sub	 edi, ecx
  00019	c1 ff 02	 sar	 edi, 2

; 980  : 			if (this->_Mylast == this->_Myend)

  0001c	3b 46 08	 cmp	 eax, DWORD PTR [esi+8]
  0001f	75 09		 jne	 SHORT $LN3@push_back

; 981  : 				_Reserve(1);

  00021	6a 01		 push	 1
  00023	8b ce		 mov	 ecx, esi
  00025	e8 00 00 00 00	 call	 ?_Reserve@?$vector@PAVioBall@@V?$allocator@PAVioBall@@@std@@@std@@IAEXI@Z ; std::vector<ioBall *,std::allocator<ioBall *> >::_Reserve
$LN3@push_back:

; 982  : 			_Orphan_range(this->_Mylast, this->_Mylast);
; 983  : 			_Cons_val(this->_Alval,
; 984  : 				this->_Mylast,
; 985  : 				this->_Myfirst[_Idx]);

  0002a	8b 46 04	 mov	 eax, DWORD PTR [esi+4]
  0002d	85 c0		 test	 eax, eax
  0002f	74 20		 je	 SHORT $LN39@push_back
  00031	8b 0e		 mov	 ecx, DWORD PTR [esi]
  00033	8b 0c b9	 mov	 ecx, DWORD PTR [ecx+edi*4]

; 986  : 			++this->_Mylast;
; 987  : 			}
; 988  : 		else

  00036	eb 17		 jmp	 SHORT $LN46@push_back
$LN4@push_back:

; 989  : 			{	// push back a non-element
; 990  : 			if (this->_Mylast == this->_Myend)

  00038	3b 46 08	 cmp	 eax, DWORD PTR [esi+8]
  0003b	75 09		 jne	 SHORT $LN1@push_back

; 991  : 				_Reserve(1);

  0003d	6a 01		 push	 1
  0003f	8b ce		 mov	 ecx, esi
  00041	e8 00 00 00 00	 call	 ?_Reserve@?$vector@PAVioBall@@V?$allocator@PAVioBall@@@std@@@std@@IAEXI@Z ; std::vector<ioBall *,std::allocator<ioBall *> >::_Reserve
$LN1@push_back:

; 992  : 			_Orphan_range(this->_Mylast, this->_Mylast);
; 993  : 			_Cons_val(this->_Alval,
; 994  : 				this->_Mylast,
; 995  : 				_Val);

  00046	8b 46 04	 mov	 eax, DWORD PTR [esi+4]
  00049	85 c0		 test	 eax, eax
  0004b	74 04		 je	 SHORT $LN39@push_back
  0004d	8b 0f		 mov	 ecx, DWORD PTR [edi]
$LN46@push_back:
  0004f	89 08		 mov	 DWORD PTR [eax], ecx
$LN39@push_back:

; 996  : 			++this->_Mylast;

  00051	83 46 04 04	 add	 DWORD PTR [esi+4], 4
  00055	5f		 pop	 edi
  00056	5e		 pop	 esi

; 997  : 			}
; 998  : 		}

  00057	5d		 pop	 ebp
  00058	c2 04 00	 ret	 4
?push_back@?$vector@PAVioBall@@V?$allocator@PAVioBall@@@std@@@std@@QAEXABQAVioBall@@@Z ENDP ; std::vector<ioBall *,std::allocator<ioBall *> >::push_back
_TEXT	ENDS
PUBLIC	??1ioBallManager@@UAE@XZ			; ioBallManager::~ioBallManager
EXTRN	__EH_epilog3:PROC
EXTRN	__EH_prolog3:PROC
;	COMDAT xdata$x
; File d:\lost saga for developer\youtube\tutorial\source\src\io3dengine\iosingleton.h
xdata$x	SEGMENT
__unwindtable$??1ioBallManager@@UAE@XZ DD 0ffffffffH
	DD	FLAT:__unwindfunclet$??1ioBallManager@@UAE@XZ$0
	DD	00H
	DD	FLAT:__unwindfunclet$??1ioBallManager@@UAE@XZ$1
__ehfuncinfo$??1ioBallManager@@UAE@XZ DD 019930522H
	DD	02H
	DD	FLAT:__unwindtable$??1ioBallManager@@UAE@XZ
	DD	2 DUP(00H)
	DD	2 DUP(00H)
	DD	00H
	DD	01H
; Function compile flags: /Ogsp
; File d:\lost saga for developer\youtube\tutorial\source\src\lsclient\ioballmanager.cpp
xdata$x	ENDS
;	COMDAT ??1ioBallManager@@UAE@XZ
_TEXT	SEGMENT
_this$ = -16						; size = 4
__$EHRec$ = -12						; size = 12
??1ioBallManager@@UAE@XZ PROC				; ioBallManager::~ioBallManager, COMDAT
; _this$ = ecx

; 20   : {

  00000	6a 04		 push	 4
  00002	b8 00 00 00 00	 mov	 eax, __ehhandler$??1ioBallManager@@UAE@XZ
  00007	e8 00 00 00 00	 call	 __EH_prolog3
  0000c	8b f1		 mov	 esi, ecx
  0000e	89 75 f0	 mov	 DWORD PTR _this$[ebp], esi
  00011	c7 06 00 00 00
	00		 mov	 DWORD PTR [esi], OFFSET ??_7ioBallManager@@6B@
  00017	c7 45 fc 01 00
	00 00		 mov	 DWORD PTR __$EHRec$[ebp+8], 1

; 21   : 	DestroyBallStructList();

  0001e	e8 00 00 00 00	 call	 ?DestroyBallStructList@ioBallManager@@QAEXXZ ; ioBallManager::DestroyBallStructList

; 22   : }

  00023	8d 4e 04	 lea	 ecx, DWORD PTR [esi+4]
  00026	c6 45 fc 00	 mov	 BYTE PTR __$EHRec$[ebp+8], 0
  0002a	e8 00 00 00 00	 call	 ?_Tidy@?$vector@PAVioBall@@V?$allocator@PAVioBall@@@std@@@std@@IAEXXZ ; std::vector<ioBall *,std::allocator<ioBall *> >::_Tidy
  0002f	83 25 00 00 00
	00 00		 and	 DWORD PTR ?ms_Singleton@?$Singleton@VioBallManager@@@@1PAVioBallManager@@A, 0 ; Singleton<ioBallManager>::ms_Singleton
  00036	e8 00 00 00 00	 call	 __EH_epilog3
  0003b	c3		 ret	 0
_TEXT	ENDS
;	COMDAT text$x
text$x	SEGMENT
__unwindfunclet$??1ioBallManager@@UAE@XZ$0:
  00000	8b 4d f0	 mov	 ecx, DWORD PTR _this$[ebp]
  00003	83 c1 04	 add	 ecx, 4
  00006	e9 00 00 00 00	 jmp	 ??1?$Singleton@VioBallManager@@@@QAE@XZ ; Singleton<ioBallManager>::~Singleton<ioBallManager>
__unwindfunclet$??1ioBallManager@@UAE@XZ$1:
  0000b	8b 4d f0	 mov	 ecx, DWORD PTR _this$[ebp]
  0000e	83 c1 04	 add	 ecx, 4
  00011	e9 00 00 00 00	 jmp	 ??1?$vector@PAVioBall@@V?$allocator@PAVioBall@@@std@@@std@@QAE@XZ ; std::vector<ioBall *,std::allocator<ioBall *> >::~vector<ioBall *,std::allocator<ioBall *> >
__ehhandler$??1ioBallManager@@UAE@XZ:
  00016	8b 54 24 08	 mov	 edx, DWORD PTR [esp+8]
  0001a	8d 42 0c	 lea	 eax, DWORD PTR [edx+12]
  0001d	8b 4a ec	 mov	 ecx, DWORD PTR [edx-20]
  00020	33 c8		 xor	 ecx, eax
  00022	e8 00 00 00 00	 call	 @__security_check_cookie@4
  00027	b8 00 00 00 00	 mov	 eax, OFFSET __ehfuncinfo$??1ioBallManager@@UAE@XZ
  0002c	e9 00 00 00 00	 jmp	 ___CxxFrameHandler3
text$x	ENDS
??1ioBallManager@@UAE@XZ ENDP				; ioBallManager::~ioBallManager
PUBLIC	??_C@_0CL@KNDJMDPO@ioBallManager?3?3CreatePushStruct?5@ ; `string'
PUBLIC	?CreateBallStruct@ioBallManager@@QAEPAVioBall@@VioHashString@@PAVioPlayMode@@@Z ; ioBallManager::CreateBallStruct
EXTRN	??0ioBall@@QAE@PAVioEntityGroup@@PAVioPlayMode@@@Z:PROC ; ioBall::ioBall
EXTRN	__imp_?PrintTimeAndLog@CLog@@QAAXHPADZZ:PROC
EXTRN	__imp_?LOG@@3VCLog@@A:BYTE
EXTRN	__imp_?c_str@ioHashString@@QBEPBDXZ:PROC
EXTRN	?CreateEntityGrpAndSceneNode@ioPlayStage@@QAEPAVioEntityGroup@@ABVioHashString@@_N@Z:PROC ; ioPlayStage::CreateEntityGrpAndSceneNode
;	COMDAT ??_C@_0CL@KNDJMDPO@ioBallManager?3?3CreatePushStruct?5@
CONST	SEGMENT
??_C@_0CL@KNDJMDPO@ioBallManager?3?3CreatePushStruct?5@ DB 'ioBallManager'
	DB	'::CreatePushStruct - %s Fail!', 00H		; `string'
CONST	ENDS
;	COMDAT xdata$x
xdata$x	SEGMENT
__unwindtable$?CreateBallStruct@ioBallManager@@QAEPAVioBall@@VioHashString@@PAVioPlayMode@@@Z DD 0ffffffffH
	DD	FLAT:__unwindfunclet$?CreateBallStruct@ioBallManager@@QAEPAVioBall@@VioHashString@@PAVioPlayMode@@@Z$0
	DD	00H
	DD	FLAT:__unwindfunclet$?CreateBallStruct@ioBallManager@@QAEPAVioBall@@VioHashString@@PAVioPlayMode@@@Z$1
__ehfuncinfo$?CreateBallStruct@ioBallManager@@QAEPAVioBall@@VioHashString@@PAVioPlayMode@@@Z DD 019930522H
	DD	02H
	DD	FLAT:__unwindtable$?CreateBallStruct@ioBallManager@@QAEPAVioBall@@VioHashString@@PAVioPlayMode@@@Z
	DD	2 DUP(00H)
	DD	2 DUP(00H)
	DD	00H
	DD	01H
; Function compile flags: /Ogsp
xdata$x	ENDS
;	COMDAT ?CreateBallStruct@ioBallManager@@QAEPAVioBall@@VioHashString@@PAVioPlayMode@@@Z
_TEXT	SEGMENT
$T532848 = -16						; size = 4
__$EHRec$ = -12						; size = 12
_szStructName$ = 8					; size = 16
_pPush$ = 24						; size = 4
_pMode$ = 24						; size = 4
?CreateBallStruct@ioBallManager@@QAEPAVioBall@@VioHashString@@PAVioPlayMode@@@Z PROC ; ioBallManager::CreateBallStruct, COMDAT
; _this$ = ecx

; 30   : {

  00000	6a 04		 push	 4
  00002	b8 00 00 00 00	 mov	 eax, __ehhandler$?CreateBallStruct@ioBallManager@@QAEPAVioBall@@VioHashString@@PAVioPlayMode@@@Z
  00007	e8 00 00 00 00	 call	 __EH_prolog3
  0000c	8b f1		 mov	 esi, ecx

; 31   : 	ioEntityGroup *pGrp = m_pPlayStage->CreateEntityGrpAndSceneNode( szStructName, true );

  0000e	8b 4e 14	 mov	 ecx, DWORD PTR [esi+20]
  00011	83 65 fc 00	 and	 DWORD PTR __$EHRec$[ebp+8], 0
  00015	6a 01		 push	 1
  00017	8d 45 08	 lea	 eax, DWORD PTR _szStructName$[ebp]
  0001a	50		 push	 eax
  0001b	e8 00 00 00 00	 call	 ?CreateEntityGrpAndSceneNode@ioPlayStage@@QAEPAVioEntityGroup@@ABVioHashString@@_N@Z ; ioPlayStage::CreateEntityGrpAndSceneNode
  00020	8b f8		 mov	 edi, eax

; 32   : 	if( !pGrp )

  00022	85 ff		 test	 edi, edi
  00024	75 38		 jne	 SHORT $LN1@CreateBall

; 33   : 	{
; 34   : 		LOG.PrintTimeAndLog( 0, "ioBallManager::CreatePushStruct - %s Fail!", szStructName.c_str() );

  00026	8d 4d 08	 lea	 ecx, DWORD PTR _szStructName$[ebp]
  00029	ff 15 00 00 00
	00		 call	 DWORD PTR __imp_?c_str@ioHashString@@QBEPBDXZ
  0002f	50		 push	 eax
  00030	68 00 00 00 00	 push	 OFFSET ??_C@_0CL@KNDJMDPO@ioBallManager?3?3CreatePushStruct?5@
  00035	57		 push	 edi
  00036	ff 35 00 00 00
	00		 push	 DWORD PTR __imp_?LOG@@3VCLog@@A
  0003c	ff 15 00 00 00
	00		 call	 DWORD PTR __imp_?PrintTimeAndLog@CLog@@QAAXHPADZZ
  00042	83 c4 10	 add	 esp, 16			; 00000010H
  00045	33 f6		 xor	 esi, esi
$LN8@CreateBall:

; 35   : 		return NULL;

  00047	83 4d fc ff	 or	 DWORD PTR __$EHRec$[ebp+8], -1
  0004b	8d 4d 08	 lea	 ecx, DWORD PTR _szStructName$[ebp]
  0004e	ff 15 00 00 00
	00		 call	 DWORD PTR __imp_??1ioHashString@@QAE@XZ
  00054	8b c6		 mov	 eax, esi

; 41   : 	return pPush;
; 42   : }

  00056	e8 00 00 00 00	 call	 __EH_epilog3
  0005b	c2 14 00	 ret	 20			; 00000014H
$LN1@CreateBall:

; 36   : 	}
; 37   : 
; 38   : 	ioBall* pPush = new ioBall( pGrp, pMode );

  0005e	68 5c 06 00 00	 push	 1628			; 0000065cH
  00063	e8 00 00 00 00	 call	 ??2@YAPAXI@Z		; operator new
  00068	59		 pop	 ecx
  00069	8b c8		 mov	 ecx, eax
  0006b	89 4d f0	 mov	 DWORD PTR $T532848[ebp], ecx
  0006e	c6 45 fc 01	 mov	 BYTE PTR __$EHRec$[ebp+8], 1
  00072	85 c9		 test	 ecx, ecx
  00074	74 0b		 je	 SHORT $LN4@CreateBall
  00076	ff 75 18	 push	 DWORD PTR _pMode$[ebp]
  00079	57		 push	 edi
  0007a	e8 00 00 00 00	 call	 ??0ioBall@@QAE@PAVioEntityGroup@@PAVioPlayMode@@@Z ; ioBall::ioBall
  0007f	eb 02		 jmp	 SHORT $LN5@CreateBall
$LN4@CreateBall:
  00081	33 c0		 xor	 eax, eax
$LN5@CreateBall:

; 39   : 	m_iLocalIndex++;

  00083	ff 46 18	 inc	 DWORD PTR [esi+24]
  00086	89 45 18	 mov	 DWORD PTR _pPush$[ebp], eax

; 40   : 	m_vBallStructList.push_back( pPush );

  00089	8d 45 18	 lea	 eax, DWORD PTR _pPush$[ebp]
  0008c	50		 push	 eax
  0008d	8d 4e 04	 lea	 ecx, DWORD PTR [esi+4]
  00090	c6 45 fc 00	 mov	 BYTE PTR __$EHRec$[ebp+8], 0
  00094	e8 00 00 00 00	 call	 ?push_back@?$vector@PAVioBall@@V?$allocator@PAVioBall@@@std@@@std@@QAEXABQAVioBall@@@Z ; std::vector<ioBall *,std::allocator<ioBall *> >::push_back
  00099	8b 75 18	 mov	 esi, DWORD PTR _pPush$[ebp]
  0009c	eb a9		 jmp	 SHORT $LN8@CreateBall
_TEXT	ENDS
;	COMDAT text$x
text$x	SEGMENT
__unwindfunclet$?CreateBallStruct@ioBallManager@@QAEPAVioBall@@VioHashString@@PAVioPlayMode@@@Z$0:
  00000	8d 4d 08	 lea	 ecx, DWORD PTR _szStructName$[ebp]
  00003	ff 25 00 00 00
	00		 jmp	 DWORD PTR __imp_??1ioHashString@@QAE@XZ
__unwindfunclet$?CreateBallStruct@ioBallManager@@QAEPAVioBall@@VioHashString@@PAVioPlayMode@@@Z$1:
  00009	ff 75 f0	 push	 DWORD PTR $T532848[ebp]
  0000c	e8 00 00 00 00	 call	 ??3@YAXPAX@Z		; operator delete
  00011	59		 pop	 ecx
  00012	c3		 ret	 0
__ehhandler$?CreateBallStruct@ioBallManager@@QAEPAVioBall@@VioHashString@@PAVioPlayMode@@@Z:
  00013	8b 54 24 08	 mov	 edx, DWORD PTR [esp+8]
  00017	8d 42 0c	 lea	 eax, DWORD PTR [edx+12]
  0001a	8b 4a ec	 mov	 ecx, DWORD PTR [edx-20]
  0001d	33 c8		 xor	 ecx, eax
  0001f	e8 00 00 00 00	 call	 @__security_check_cookie@4
  00024	b8 00 00 00 00	 mov	 eax, OFFSET __ehfuncinfo$?CreateBallStruct@ioBallManager@@QAEPAVioBall@@VioHashString@@PAVioPlayMode@@@Z
  00029	e9 00 00 00 00	 jmp	 ___CxxFrameHandler3
text$x	ENDS
?CreateBallStruct@ioBallManager@@QAEPAVioBall@@VioHashString@@PAVioPlayMode@@@Z ENDP ; ioBallManager::CreateBallStruct
; Function compile flags: /Ogsp
;	COMDAT ??_GioBallManager@@UAEPAXI@Z
_TEXT	SEGMENT
___flags$ = 8						; size = 4
??_GioBallManager@@UAEPAXI@Z PROC			; ioBallManager::`scalar deleting destructor', COMDAT
; _this$ = ecx
  00000	55		 push	 ebp
  00001	8b ec		 mov	 ebp, esp
  00003	56		 push	 esi
  00004	8b f1		 mov	 esi, ecx
  00006	e8 00 00 00 00	 call	 ??1ioBallManager@@UAE@XZ ; ioBallManager::~ioBallManager
  0000b	f6 45 08 01	 test	 BYTE PTR ___flags$[ebp], 1
  0000f	74 07		 je	 SHORT $LN1@scalar@2
  00011	56		 push	 esi
  00012	e8 00 00 00 00	 call	 ??3@YAXPAX@Z		; operator delete
  00017	59		 pop	 ecx
$LN1@scalar@2:
  00018	8b c6		 mov	 eax, esi
  0001a	5e		 pop	 esi
  0001b	5d		 pop	 ebp
  0001c	c2 04 00	 ret	 4
??_GioBallManager@@UAEPAXI@Z ENDP			; ioBallManager::`scalar deleting destructor'
_TEXT	ENDS
END
