; Listing generated by Microsoft (R) Optimizing Compiler Version 16.00.30319.01 

	TITLE	D:\Lost Saga For Developer\Youtube\Tutorial\Source\src\LSClient\ioBasicTooltipManager.cpp
	.686P
	.XMM
	include listing.inc
	.model	flat

INCLUDELIB MSVCRT
INCLUDELIB OLDNAMES

PUBLIC	?ms_Singleton@?$Singleton@VioBasicTooltipManager@@@@1PAVioBasicTooltipManager@@A ; Singleton<ioBasicTooltipManager>::ms_Singleton
;	COMDAT ?ms_Singleton@?$Singleton@VioBasicTooltipManager@@@@1PAVioBasicTooltipManager@@A
_BSS	SEGMENT
?ms_Singleton@?$Singleton@VioBasicTooltipManager@@@@1PAVioBasicTooltipManager@@A DD 01H DUP (?) ; Singleton<ioBasicTooltipManager>::ms_Singleton
_BSS	ENDS
PUBLIC	?Initialize@ioBasicTooltipManager@@UAEXXZ	; ioBasicTooltipManager::Initialize
; Function compile flags: /Ogsp
; File d:\lost saga for developer\youtube\tutorial\source\src\lsclient\iobasictooltipmanager.cpp
;	COMDAT ?Initialize@ioBasicTooltipManager@@UAEXXZ
_TEXT	SEGMENT
?Initialize@ioBasicTooltipManager@@UAEXXZ PROC		; ioBasicTooltipManager::Initialize, COMDAT
; _this$ = ecx

; 23   : }

  00000	c3		 ret	 0
?Initialize@ioBasicTooltipManager@@UAEXXZ ENDP		; ioBasicTooltipManager::Initialize
_TEXT	ENDS
PUBLIC	?ClearAllGUI@ioBasicTooltipManager@@QAEXXZ	; ioBasicTooltipManager::ClearAllGUI
; Function compile flags: /Ogsp
;	COMDAT ?ClearAllGUI@ioBasicTooltipManager@@QAEXXZ
_TEXT	SEGMENT
?ClearAllGUI@ioBasicTooltipManager@@QAEXXZ PROC		; ioBasicTooltipManager::ClearAllGUI, COMDAT
; _this$ = ecx

; 27   : }

  00000	c3		 ret	 0
?ClearAllGUI@ioBasicTooltipManager@@QAEXXZ ENDP		; ioBasicTooltipManager::ClearAllGUI
_TEXT	ENDS
PUBLIC	?FindToolTip@ioBasicTooltipManager@@QAEPAVioWnd@@K@Z ; ioBasicTooltipManager::FindToolTip
EXTRN	__imp_?FindChildWnd@ioWnd@@QAEPAV1@K@Z:PROC
; Function compile flags: /Ogsp
;	COMDAT ?FindToolTip@ioBasicTooltipManager@@QAEPAVioWnd@@K@Z
_TEXT	SEGMENT
_dwID$ = 8						; size = 4
?FindToolTip@ioBasicTooltipManager@@QAEPAVioWnd@@K@Z PROC ; ioBasicTooltipManager::FindToolTip, COMDAT
; _this$ = ecx

; 140  : {	

  00000	55		 push	 ebp
  00001	8b ec		 mov	 ebp, esp

; 141  : 	if( m_pToolTipWnd )

  00003	8b 49 04	 mov	 ecx, DWORD PTR [ecx+4]
  00006	85 c9		 test	 ecx, ecx
  00008	74 07		 je	 SHORT $LN1@FindToolTi

; 147  : }

  0000a	5d		 pop	 ebp

; 142  : 	{
; 143  : 		return m_pToolTipWnd->FindChildWnd( dwID );

  0000b	ff 25 00 00 00
	00		 jmp	 DWORD PTR __imp_?FindChildWnd@ioWnd@@QAEPAV1@K@Z
$LN1@FindToolTi:

; 144  : 	}
; 145  : 
; 146  : 	return NULL;

  00011	33 c0		 xor	 eax, eax

; 147  : }

  00013	5d		 pop	 ebp
  00014	c2 04 00	 ret	 4
?FindToolTip@ioBasicTooltipManager@@QAEPAVioWnd@@K@Z ENDP ; ioBasicTooltipManager::FindToolTip
_TEXT	ENDS
PUBLIC	?ShowToolTip@ioBasicTooltipManager@@QAEXK@Z	; ioBasicTooltipManager::ShowToolTip
EXTRN	__imp_?ShowChildWnd@ioWnd@@QAEXK_N@Z:PROC
EXTRN	__imp_?ShowWnd@ioWnd@@QAEXXZ:PROC
; Function compile flags: /Ogsp
;	COMDAT ?ShowToolTip@ioBasicTooltipManager@@QAEXK@Z
_TEXT	SEGMENT
_dwID$ = 8						; size = 4
?ShowToolTip@ioBasicTooltipManager@@QAEXK@Z PROC	; ioBasicTooltipManager::ShowToolTip, COMDAT
; _this$ = ecx

; 161  : {

  00000	55		 push	 ebp
  00001	8b ec		 mov	 ebp, esp
  00003	56		 push	 esi
  00004	8b f1		 mov	 esi, ecx

; 162  : 	if( m_pToolTipWnd )

  00006	8b 4e 04	 mov	 ecx, DWORD PTR [esi+4]
  00009	85 c9		 test	 ecx, ecx
  0000b	74 14		 je	 SHORT $LN1@ShowToolTi

; 163  : 	{
; 164  : 		m_pToolTipWnd->ShowWnd();

  0000d	ff 15 00 00 00
	00		 call	 DWORD PTR __imp_?ShowWnd@ioWnd@@QAEXXZ

; 165  : 		m_pToolTipWnd->ShowChildWnd( dwID, true );

  00013	8b 4e 04	 mov	 ecx, DWORD PTR [esi+4]
  00016	6a 01		 push	 1
  00018	ff 75 08	 push	 DWORD PTR _dwID$[ebp]
  0001b	ff 15 00 00 00
	00		 call	 DWORD PTR __imp_?ShowChildWnd@ioWnd@@QAEXK_N@Z
$LN1@ShowToolTi:
  00021	5e		 pop	 esi

; 166  : 	}
; 167  : }

  00022	5d		 pop	 ebp
  00023	c2 04 00	 ret	 4
?ShowToolTip@ioBasicTooltipManager@@QAEXK@Z ENDP	; ioBasicTooltipManager::ShowToolTip
_TEXT	ENDS
PUBLIC	?HideToolTip@ioBasicTooltipManager@@QAEXK@Z	; ioBasicTooltipManager::HideToolTip
EXTRN	__imp_?HideChildWnd@ioWnd@@QAEXK_N@Z:PROC
EXTRN	__imp_?HideWnd@ioWnd@@QAEXXZ:PROC
; Function compile flags: /Ogsp
;	COMDAT ?HideToolTip@ioBasicTooltipManager@@QAEXK@Z
_TEXT	SEGMENT
_dwID$ = 8						; size = 4
?HideToolTip@ioBasicTooltipManager@@QAEXK@Z PROC	; ioBasicTooltipManager::HideToolTip, COMDAT
; _this$ = ecx

; 182  : {

  00000	55		 push	 ebp
  00001	8b ec		 mov	 ebp, esp
  00003	56		 push	 esi
  00004	8b f1		 mov	 esi, ecx

; 183  : 	if( m_pToolTipWnd )

  00006	8b 4e 04	 mov	 ecx, DWORD PTR [esi+4]
  00009	85 c9		 test	 ecx, ecx
  0000b	74 14		 je	 SHORT $LN1@HideToolTi

; 184  : 	{
; 185  : 		m_pToolTipWnd->HideWnd();

  0000d	ff 15 00 00 00
	00		 call	 DWORD PTR __imp_?HideWnd@ioWnd@@QAEXXZ

; 186  : 		m_pToolTipWnd->HideChildWnd( dwID );

  00013	8b 4e 04	 mov	 ecx, DWORD PTR [esi+4]
  00016	6a 00		 push	 0
  00018	ff 75 08	 push	 DWORD PTR _dwID$[ebp]
  0001b	ff 15 00 00 00
	00		 call	 DWORD PTR __imp_?HideChildWnd@ioWnd@@QAEXK_N@Z
$LN1@HideToolTi:
  00021	5e		 pop	 esi

; 187  : 	}
; 188  : }

  00022	5d		 pop	 ebp
  00023	c2 04 00	 ret	 4
?HideToolTip@ioBasicTooltipManager@@QAEXK@Z ENDP	; ioBasicTooltipManager::HideToolTip
_TEXT	ENDS
PUBLIC	?empty@?$basic_string@DU?$char_traits@D@std@@V?$allocator@D@2@@std@@QBE_NXZ ; std::basic_string<char,std::char_traits<char>,std::allocator<char> >::empty
; Function compile flags: /Ogsp
; File c:\program files (x86)\microsoft visual studio 10.0\vc\include\xstring
;	COMDAT ?empty@?$basic_string@DU?$char_traits@D@std@@V?$allocator@D@2@@std@@QBE_NXZ
_TEXT	SEGMENT
?empty@?$basic_string@DU?$char_traits@D@std@@V?$allocator@D@2@@std@@QBE_NXZ PROC ; std::basic_string<char,std::char_traits<char>,std::allocator<char> >::empty, COMDAT
; _this$ = ecx

; 1551 : 		return (this->_Mysize == 0);

  00000	33 c0		 xor	 eax, eax
  00002	39 41 10	 cmp	 DWORD PTR [ecx+16], eax
  00005	0f 94 c0	 sete	 al

; 1552 : 		}

  00008	c3		 ret	 0
?empty@?$basic_string@DU?$char_traits@D@std@@V?$allocator@D@2@@std@@QBE_NXZ ENDP ; std::basic_string<char,std::char_traits<char>,std::allocator<char> >::empty
_TEXT	ENDS
PUBLIC	??0?$Singleton@VioBasicTooltipManager@@@@QAE@XZ	; Singleton<ioBasicTooltipManager>::Singleton<ioBasicTooltipManager>
; Function compile flags: /Ogsp
; File d:\lost saga for developer\youtube\tutorial\source\src\io3dengine\iosingleton.h
;	COMDAT ??0?$Singleton@VioBasicTooltipManager@@@@QAE@XZ
_TEXT	SEGMENT
??0?$Singleton@VioBasicTooltipManager@@@@QAE@XZ PROC	; Singleton<ioBasicTooltipManager>::Singleton<ioBasicTooltipManager>, COMDAT
; _this$ = ecx

; 27   : 	Singleton()

  00000	8b c1		 mov	 eax, ecx

; 28   : 	{
; 29   : 		assert( !ms_Singleton );
; 30   : 		int offset = (int)(T*)1 - (int)(Singleton <T>*)(T*)1;
; 31   : 		ms_Singleton = (T*)((int)this + offset);

  00002	8d 48 fc	 lea	 ecx, DWORD PTR [eax-4]
  00005	89 0d 00 00 00
	00		 mov	 DWORD PTR ?ms_Singleton@?$Singleton@VioBasicTooltipManager@@@@1PAVioBasicTooltipManager@@A, ecx ; Singleton<ioBasicTooltipManager>::ms_Singleton

; 32   : 	}

  0000b	c3		 ret	 0
??0?$Singleton@VioBasicTooltipManager@@@@QAE@XZ ENDP	; Singleton<ioBasicTooltipManager>::Singleton<ioBasicTooltipManager>
_TEXT	ENDS
PUBLIC	??1?$Singleton@VioBasicTooltipManager@@@@QAE@XZ	; Singleton<ioBasicTooltipManager>::~Singleton<ioBasicTooltipManager>
; Function compile flags: /Ogsp
;	COMDAT ??1?$Singleton@VioBasicTooltipManager@@@@QAE@XZ
_TEXT	SEGMENT
??1?$Singleton@VioBasicTooltipManager@@@@QAE@XZ PROC	; Singleton<ioBasicTooltipManager>::~Singleton<ioBasicTooltipManager>, COMDAT
; _this$ = ecx

; 36   : 		assert( ms_Singleton );
; 37   : 		ms_Singleton = 0;

  00000	83 25 00 00 00
	00 00		 and	 DWORD PTR ?ms_Singleton@?$Singleton@VioBasicTooltipManager@@@@1PAVioBasicTooltipManager@@A, 0 ; Singleton<ioBasicTooltipManager>::ms_Singleton

; 38   : 	}

  00007	c3		 ret	 0
??1?$Singleton@VioBasicTooltipManager@@@@QAE@XZ ENDP	; Singleton<ioBasicTooltipManager>::~Singleton<ioBasicTooltipManager>
_TEXT	ENDS
PUBLIC	?GetSingleton@?$Singleton@VioBasicTooltipManager@@@@SAAAVioBasicTooltipManager@@XZ ; Singleton<ioBasicTooltipManager>::GetSingleton
; Function compile flags: /Ogsp
;	COMDAT ?GetSingleton@?$Singleton@VioBasicTooltipManager@@@@SAAAVioBasicTooltipManager@@XZ
_TEXT	SEGMENT
?GetSingleton@?$Singleton@VioBasicTooltipManager@@@@SAAAVioBasicTooltipManager@@XZ PROC ; Singleton<ioBasicTooltipManager>::GetSingleton, COMDAT

; 42   : 		assert( ms_Singleton );
; 43   : 		return (*ms_Singleton);

  00000	a1 00 00 00 00	 mov	 eax, DWORD PTR ?ms_Singleton@?$Singleton@VioBasicTooltipManager@@@@1PAVioBasicTooltipManager@@A ; Singleton<ioBasicTooltipManager>::ms_Singleton

; 44   : 	}

  00005	c3		 ret	 0
?GetSingleton@?$Singleton@VioBasicTooltipManager@@@@SAAAVioBasicTooltipManager@@XZ ENDP ; Singleton<ioBasicTooltipManager>::GetSingleton
_TEXT	ENDS
PUBLIC	?size@?$_Tree@V?$_Tmap_traits@KUTooltipAlloc@ioBasicTooltipManager@@U?$less@K@std@@V?$allocator@U?$pair@$$CBKUTooltipAlloc@ioBasicTooltipManager@@@std@@@4@$0A@@std@@@std@@QBEIXZ ; std::_Tree<std::_Tmap_traits<unsigned long,ioBasicTooltipManager::TooltipAlloc,std::less<unsigned long>,std::allocator<std::pair<unsigned long const ,ioBasicTooltipManager::TooltipAlloc> >,0> >::size
; Function compile flags: /Ogsp
; File c:\program files (x86)\microsoft visual studio 10.0\vc\include\xtree
;	COMDAT ?size@?$_Tree@V?$_Tmap_traits@KUTooltipAlloc@ioBasicTooltipManager@@U?$less@K@std@@V?$allocator@U?$pair@$$CBKUTooltipAlloc@ioBasicTooltipManager@@@std@@@4@$0A@@std@@@std@@QBEIXZ
_TEXT	SEGMENT
?size@?$_Tree@V?$_Tmap_traits@KUTooltipAlloc@ioBasicTooltipManager@@U?$less@K@std@@V?$allocator@U?$pair@$$CBKUTooltipAlloc@ioBasicTooltipManager@@@std@@@4@$0A@@std@@@std@@QBEIXZ PROC ; std::_Tree<std::_Tmap_traits<unsigned long,ioBasicTooltipManager::TooltipAlloc,std::less<unsigned long>,std::allocator<std::pair<unsigned long const ,ioBasicTooltipManager::TooltipAlloc> >,0> >::size, COMDAT
; _this$ = ecx

; 869  : 		return (this->_Mysize);

  00000	8b 41 08	 mov	 eax, DWORD PTR [ecx+8]

; 870  : 		}

  00003	c3		 ret	 0
?size@?$_Tree@V?$_Tmap_traits@KUTooltipAlloc@ioBasicTooltipManager@@U?$less@K@std@@V?$allocator@U?$pair@$$CBKUTooltipAlloc@ioBasicTooltipManager@@@std@@@4@$0A@@std@@@std@@QBEIXZ ENDP ; std::_Tree<std::_Tmap_traits<unsigned long,ioBasicTooltipManager::TooltipAlloc,std::less<unsigned long>,std::allocator<std::pair<unsigned long const ,ioBasicTooltipManager::TooltipAlloc> >,0> >::size
_TEXT	ENDS
PUBLIC	??_7bad_alloc@std@@6B@				; std::bad_alloc::`vftable'
PUBLIC	??0bad_alloc@std@@QAE@PBD@Z			; std::bad_alloc::bad_alloc
PUBLIC	??_R4bad_alloc@std@@6B@				; std::bad_alloc::`RTTI Complete Object Locator'
PUBLIC	??_R0?AVbad_alloc@std@@@8			; std::bad_alloc `RTTI Type Descriptor'
PUBLIC	??_R3bad_alloc@std@@8				; std::bad_alloc::`RTTI Class Hierarchy Descriptor'
PUBLIC	??_R2bad_alloc@std@@8				; std::bad_alloc::`RTTI Base Class Array'
PUBLIC	??_R1A@?0A@EA@bad_alloc@std@@8			; std::bad_alloc::`RTTI Base Class Descriptor at (0,-1,0,64)'
PUBLIC	??_R1A@?0A@EA@exception@std@@8			; std::exception::`RTTI Base Class Descriptor at (0,-1,0,64)'
PUBLIC	??_R0?AVexception@std@@@8			; std::exception `RTTI Type Descriptor'
PUBLIC	??_R3exception@std@@8				; std::exception::`RTTI Class Hierarchy Descriptor'
PUBLIC	??_R2exception@std@@8				; std::exception::`RTTI Base Class Array'
EXTRN	__imp_??0exception@std@@QAE@ABQBD@Z:PROC
EXTRN	??_7type_info@@6B@:QWORD			; type_info::`vftable'
EXTRN	??_Ebad_alloc@std@@UAEPAXI@Z:PROC		; std::bad_alloc::`vector deleting destructor'
EXTRN	?what@exception@std@@UBEPBDXZ:PROC		; std::exception::what
;	COMDAT ??_R2exception@std@@8
; File c:\program files (x86)\microsoft visual studio 10.0\vc\include\exception
rdata$r	SEGMENT
??_R2exception@std@@8 DD FLAT:??_R1A@?0A@EA@exception@std@@8 ; std::exception::`RTTI Base Class Array'
rdata$r	ENDS
;	COMDAT ??_R3exception@std@@8
rdata$r	SEGMENT
??_R3exception@std@@8 DD 00H				; std::exception::`RTTI Class Hierarchy Descriptor'
	DD	00H
	DD	01H
	DD	FLAT:??_R2exception@std@@8
rdata$r	ENDS
;	COMDAT ??_R0?AVexception@std@@@8
_DATA	SEGMENT
??_R0?AVexception@std@@@8 DD FLAT:??_7type_info@@6B@	; std::exception `RTTI Type Descriptor'
	DD	00H
	DB	'.?AVexception@std@@', 00H
_DATA	ENDS
;	COMDAT ??_R1A@?0A@EA@exception@std@@8
rdata$r	SEGMENT
??_R1A@?0A@EA@exception@std@@8 DD FLAT:??_R0?AVexception@std@@@8 ; std::exception::`RTTI Base Class Descriptor at (0,-1,0,64)'
	DD	00H
	DD	00H
	DD	0ffffffffH
	DD	00H
	DD	040H
	DD	FLAT:??_R3exception@std@@8
rdata$r	ENDS
;	COMDAT ??_R1A@?0A@EA@bad_alloc@std@@8
rdata$r	SEGMENT
??_R1A@?0A@EA@bad_alloc@std@@8 DD FLAT:??_R0?AVbad_alloc@std@@@8 ; std::bad_alloc::`RTTI Base Class Descriptor at (0,-1,0,64)'
	DD	01H
	DD	00H
	DD	0ffffffffH
	DD	00H
	DD	040H
	DD	FLAT:??_R3bad_alloc@std@@8
rdata$r	ENDS
;	COMDAT ??_R2bad_alloc@std@@8
rdata$r	SEGMENT
??_R2bad_alloc@std@@8 DD FLAT:??_R1A@?0A@EA@bad_alloc@std@@8 ; std::bad_alloc::`RTTI Base Class Array'
	DD	FLAT:??_R1A@?0A@EA@exception@std@@8
rdata$r	ENDS
;	COMDAT ??_R3bad_alloc@std@@8
rdata$r	SEGMENT
??_R3bad_alloc@std@@8 DD 00H				; std::bad_alloc::`RTTI Class Hierarchy Descriptor'
	DD	00H
	DD	02H
	DD	FLAT:??_R2bad_alloc@std@@8
rdata$r	ENDS
;	COMDAT ??_R0?AVbad_alloc@std@@@8
_DATA	SEGMENT
??_R0?AVbad_alloc@std@@@8 DD FLAT:??_7type_info@@6B@	; std::bad_alloc `RTTI Type Descriptor'
	DD	00H
	DB	'.?AVbad_alloc@std@@', 00H
_DATA	ENDS
;	COMDAT ??_R4bad_alloc@std@@6B@
rdata$r	SEGMENT
??_R4bad_alloc@std@@6B@ DD 00H				; std::bad_alloc::`RTTI Complete Object Locator'
	DD	00H
	DD	00H
	DD	FLAT:??_R0?AVbad_alloc@std@@@8
	DD	FLAT:??_R3bad_alloc@std@@8
rdata$r	ENDS
;	COMDAT ??_7bad_alloc@std@@6B@
CONST	SEGMENT
??_7bad_alloc@std@@6B@ DD FLAT:??_R4bad_alloc@std@@6B@	; std::bad_alloc::`vftable'
	DD	FLAT:??_Ebad_alloc@std@@UAEPAXI@Z
	DD	FLAT:?what@exception@std@@UBEPBDXZ
; Function compile flags: /Ogsp
CONST	ENDS
;	COMDAT ??0bad_alloc@std@@QAE@PBD@Z
_TEXT	SEGMENT
__Message$ = 8						; size = 4
??0bad_alloc@std@@QAE@PBD@Z PROC			; std::bad_alloc::bad_alloc, COMDAT
; _this$ = ecx

; 345  : 		{	// construct from message string

  00000	55		 push	 ebp
  00001	8b ec		 mov	 ebp, esp
  00003	56		 push	 esi
  00004	8d 45 08	 lea	 eax, DWORD PTR __Message$[ebp]
  00007	50		 push	 eax
  00008	8b f1		 mov	 esi, ecx
  0000a	ff 15 00 00 00
	00		 call	 DWORD PTR __imp_??0exception@std@@QAE@ABQBD@Z
  00010	c7 06 00 00 00
	00		 mov	 DWORD PTR [esi], OFFSET ??_7bad_alloc@std@@6B@

; 346  : 		}

  00016	8b c6		 mov	 eax, esi
  00018	5e		 pop	 esi
  00019	5d		 pop	 ebp
  0001a	c2 04 00	 ret	 4
??0bad_alloc@std@@QAE@PBD@Z ENDP			; std::bad_alloc::bad_alloc
_TEXT	ENDS
PUBLIC	??1bad_alloc@std@@UAE@XZ			; std::bad_alloc::~bad_alloc
EXTRN	__imp_??1exception@std@@UAE@XZ:PROC
; Function compile flags: /Ogsp
;	COMDAT ??1bad_alloc@std@@UAE@XZ
_TEXT	SEGMENT
??1bad_alloc@std@@UAE@XZ PROC				; std::bad_alloc::~bad_alloc, COMDAT
; _this$ = ecx

; 354  : 		{	// destroy the object

  00000	c7 01 00 00 00
	00		 mov	 DWORD PTR [ecx], OFFSET ??_7bad_alloc@std@@6B@

; 355  : 		}

  00006	ff 25 00 00 00
	00		 jmp	 DWORD PTR __imp_??1exception@std@@UAE@XZ
??1bad_alloc@std@@UAE@XZ ENDP				; std::bad_alloc::~bad_alloc
_TEXT	ENDS
PUBLIC	??0?$allocator@U?$pair@$$CBKUTooltipAlloc@ioBasicTooltipManager@@@std@@@std@@QAE@XZ ; std::allocator<std::pair<unsigned long const ,ioBasicTooltipManager::TooltipAlloc> >::allocator<std::pair<unsigned long const ,ioBasicTooltipManager::TooltipAlloc> >
; Function compile flags: /Ogsp
; File c:\program files (x86)\microsoft visual studio 10.0\vc\include\xmemory
;	COMDAT ??0?$allocator@U?$pair@$$CBKUTooltipAlloc@ioBasicTooltipManager@@@std@@@std@@QAE@XZ
_TEXT	SEGMENT
??0?$allocator@U?$pair@$$CBKUTooltipAlloc@ioBasicTooltipManager@@@std@@@std@@QAE@XZ PROC ; std::allocator<std::pair<unsigned long const ,ioBasicTooltipManager::TooltipAlloc> >::allocator<std::pair<unsigned long const ,ioBasicTooltipManager::TooltipAlloc> >, COMDAT
; _this$ = ecx

; 161  : 	_ALLOCATOR() _THROW0()

  00000	8b c1		 mov	 eax, ecx

; 162  : 		{	// construct default allocator (do nothing)
; 163  : 		}

  00002	c3		 ret	 0
??0?$allocator@U?$pair@$$CBKUTooltipAlloc@ioBasicTooltipManager@@@std@@@std@@QAE@XZ ENDP ; std::allocator<std::pair<unsigned long const ,ioBasicTooltipManager::TooltipAlloc> >::allocator<std::pair<unsigned long const ,ioBasicTooltipManager::TooltipAlloc> >
_TEXT	ENDS
EXTRN	??3@YAXPAX@Z:PROC				; operator delete
; Function compile flags: /Ogsp
;	COMDAT ??_Gbad_alloc@std@@UAEPAXI@Z
_TEXT	SEGMENT
___flags$ = 8						; size = 4
??_Gbad_alloc@std@@UAEPAXI@Z PROC			; std::bad_alloc::`scalar deleting destructor', COMDAT
; _this$ = ecx
  00000	55		 push	 ebp
  00001	8b ec		 mov	 ebp, esp
  00003	56		 push	 esi
  00004	8b f1		 mov	 esi, ecx
  00006	c7 06 00 00 00
	00		 mov	 DWORD PTR [esi], OFFSET ??_7bad_alloc@std@@6B@
  0000c	ff 15 00 00 00
	00		 call	 DWORD PTR __imp_??1exception@std@@UAE@XZ
  00012	f6 45 08 01	 test	 BYTE PTR ___flags$[ebp], 1
  00016	74 07		 je	 SHORT $LN1@scalar
  00018	56		 push	 esi
  00019	e8 00 00 00 00	 call	 ??3@YAXPAX@Z		; operator delete
  0001e	59		 pop	 ecx
$LN1@scalar:
  0001f	8b c6		 mov	 eax, esi
  00021	5e		 pop	 esi
  00022	5d		 pop	 ebp
  00023	c2 04 00	 ret	 4
??_Gbad_alloc@std@@UAEPAXI@Z ENDP			; std::bad_alloc::`scalar deleting destructor'
_TEXT	ENDS
PUBLIC	?_Inside@?$vector@UTooltipAlloc@ioBasicTooltipManager@@V?$allocator@UTooltipAlloc@ioBasicTooltipManager@@@std@@@std@@IBE_NPBUTooltipAlloc@ioBasicTooltipManager@@@Z ; std::vector<ioBasicTooltipManager::TooltipAlloc,std::allocator<ioBasicTooltipManager::TooltipAlloc> >::_Inside
; Function compile flags: /Ogsp
; File c:\program files (x86)\microsoft visual studio 10.0\vc\include\vector
;	COMDAT ?_Inside@?$vector@UTooltipAlloc@ioBasicTooltipManager@@V?$allocator@UTooltipAlloc@ioBasicTooltipManager@@@std@@@std@@IBE_NPBUTooltipAlloc@ioBasicTooltipManager@@@Z
_TEXT	SEGMENT
__Ptr$ = 8						; size = 4
?_Inside@?$vector@UTooltipAlloc@ioBasicTooltipManager@@V?$allocator@UTooltipAlloc@ioBasicTooltipManager@@@std@@@std@@IBE_NPBUTooltipAlloc@ioBasicTooltipManager@@@Z PROC ; std::vector<ioBasicTooltipManager::TooltipAlloc,std::allocator<ioBasicTooltipManager::TooltipAlloc> >::_Inside, COMDAT
; _this$ = ecx

; 1285 : 		{	// test if _Ptr points inside vector

  00000	55		 push	 ebp
  00001	8b ec		 mov	 ebp, esp

; 1286 : 		return (_Ptr < this->_Mylast && this->_Myfirst <= _Ptr);

  00003	8b 45 08	 mov	 eax, DWORD PTR __Ptr$[ebp]
  00006	3b 41 04	 cmp	 eax, DWORD PTR [ecx+4]
  00009	73 09		 jae	 SHORT $LN3@Inside
  0000b	39 01		 cmp	 DWORD PTR [ecx], eax
  0000d	77 05		 ja	 SHORT $LN3@Inside
  0000f	33 c0		 xor	 eax, eax
  00011	40		 inc	 eax
  00012	eb 02		 jmp	 SHORT $LN4@Inside
$LN3@Inside:
  00014	33 c0		 xor	 eax, eax
$LN4@Inside:

; 1287 : 		}

  00016	5d		 pop	 ebp
  00017	c2 04 00	 ret	 4
?_Inside@?$vector@UTooltipAlloc@ioBasicTooltipManager@@V?$allocator@UTooltipAlloc@ioBasicTooltipManager@@@std@@@std@@IBE_NPBUTooltipAlloc@ioBasicTooltipManager@@@Z ENDP ; std::vector<ioBasicTooltipManager::TooltipAlloc,std::allocator<ioBasicTooltipManager::TooltipAlloc> >::_Inside
_TEXT	ENDS
PUBLIC	?_Orphan_range@?$vector@UTooltipAlloc@ioBasicTooltipManager@@V?$allocator@UTooltipAlloc@ioBasicTooltipManager@@@std@@@std@@IBEXPAUTooltipAlloc@ioBasicTooltipManager@@0@Z ; std::vector<ioBasicTooltipManager::TooltipAlloc,std::allocator<ioBasicTooltipManager::TooltipAlloc> >::_Orphan_range
; Function compile flags: /Ogsp
;	COMDAT ?_Orphan_range@?$vector@UTooltipAlloc@ioBasicTooltipManager@@V?$allocator@UTooltipAlloc@ioBasicTooltipManager@@@std@@@std@@IBEXPAUTooltipAlloc@ioBasicTooltipManager@@0@Z
_TEXT	SEGMENT
___formal$ = 8						; size = 4
___formal$ = 12						; size = 4
?_Orphan_range@?$vector@UTooltipAlloc@ioBasicTooltipManager@@V?$allocator@UTooltipAlloc@ioBasicTooltipManager@@@std@@@std@@IBEXPAUTooltipAlloc@ioBasicTooltipManager@@0@Z PROC ; std::vector<ioBasicTooltipManager::TooltipAlloc,std::allocator<ioBasicTooltipManager::TooltipAlloc> >::_Orphan_range, COMDAT
; _this$ = ecx

; 1454 : 		}

  00000	c2 08 00	 ret	 8
?_Orphan_range@?$vector@UTooltipAlloc@ioBasicTooltipManager@@V?$allocator@UTooltipAlloc@ioBasicTooltipManager@@@std@@@std@@IBEXPAUTooltipAlloc@ioBasicTooltipManager@@0@Z ENDP ; std::vector<ioBasicTooltipManager::TooltipAlloc,std::allocator<ioBasicTooltipManager::TooltipAlloc> >::_Orphan_range
_TEXT	ENDS
PUBLIC	??1?$_Vector_val@UTooltipAlloc@ioBasicTooltipManager@@V?$allocator@UTooltipAlloc@ioBasicTooltipManager@@@std@@@std@@QAE@XZ ; std::_Vector_val<ioBasicTooltipManager::TooltipAlloc,std::allocator<ioBasicTooltipManager::TooltipAlloc> >::~_Vector_val<ioBasicTooltipManager::TooltipAlloc,std::allocator<ioBasicTooltipManager::TooltipAlloc> >
; Function compile flags: /Ogsp
;	COMDAT ??1?$_Vector_val@UTooltipAlloc@ioBasicTooltipManager@@V?$allocator@UTooltipAlloc@ioBasicTooltipManager@@@std@@@std@@QAE@XZ
_TEXT	SEGMENT
??1?$_Vector_val@UTooltipAlloc@ioBasicTooltipManager@@V?$allocator@UTooltipAlloc@ioBasicTooltipManager@@@std@@@std@@QAE@XZ PROC ; std::_Vector_val<ioBasicTooltipManager::TooltipAlloc,std::allocator<ioBasicTooltipManager::TooltipAlloc> >::~_Vector_val<ioBasicTooltipManager::TooltipAlloc,std::allocator<ioBasicTooltipManager::TooltipAlloc> >, COMDAT
; _this$ = ecx

; 434  : 		}

  00000	c3		 ret	 0
??1?$_Vector_val@UTooltipAlloc@ioBasicTooltipManager@@V?$allocator@UTooltipAlloc@ioBasicTooltipManager@@@std@@@std@@QAE@XZ ENDP ; std::_Vector_val<ioBasicTooltipManager::TooltipAlloc,std::allocator<ioBasicTooltipManager::TooltipAlloc> >::~_Vector_val<ioBasicTooltipManager::TooltipAlloc,std::allocator<ioBasicTooltipManager::TooltipAlloc> >
_TEXT	ENDS
PUBLIC	??0?$allocator@UTooltipAlloc@ioBasicTooltipManager@@@std@@QAE@XZ ; std::allocator<ioBasicTooltipManager::TooltipAlloc>::allocator<ioBasicTooltipManager::TooltipAlloc>
; Function compile flags: /Ogsp
; File c:\program files (x86)\microsoft visual studio 10.0\vc\include\xmemory
;	COMDAT ??0?$allocator@UTooltipAlloc@ioBasicTooltipManager@@@std@@QAE@XZ
_TEXT	SEGMENT
??0?$allocator@UTooltipAlloc@ioBasicTooltipManager@@@std@@QAE@XZ PROC ; std::allocator<ioBasicTooltipManager::TooltipAlloc>::allocator<ioBasicTooltipManager::TooltipAlloc>, COMDAT
; _this$ = ecx

; 161  : 	_ALLOCATOR() _THROW0()

  00000	8b c1		 mov	 eax, ecx

; 162  : 		{	// construct default allocator (do nothing)
; 163  : 		}

  00002	c3		 ret	 0
??0?$allocator@UTooltipAlloc@ioBasicTooltipManager@@@std@@QAE@XZ ENDP ; std::allocator<ioBasicTooltipManager::TooltipAlloc>::allocator<ioBasicTooltipManager::TooltipAlloc>
_TEXT	ENDS
PUBLIC	??2@YAPAXIPAX@Z					; operator new
; Function compile flags: /Ogsp
; File c:\program files (x86)\microsoft visual studio 10.0\vc\include\new
;	COMDAT ??2@YAPAXIPAX@Z
_TEXT	SEGMENT
___formal$ = 8						; size = 4
__Where$ = 12						; size = 4
??2@YAPAXIPAX@Z PROC					; operator new, COMDAT

; 56   : 	{	// construct array with placement at _Where

  00000	55		 push	 ebp
  00001	8b ec		 mov	 ebp, esp

; 57   : 	return (_Where);

  00003	8b 45 0c	 mov	 eax, DWORD PTR __Where$[ebp]

; 58   : 	}

  00006	5d		 pop	 ebp
  00007	c3		 ret	 0
??2@YAPAXIPAX@Z ENDP					; operator new
_TEXT	ENDS
PUBLIC	??3@YAXPAX0@Z					; operator delete
; Function compile flags: /Ogsp
;	COMDAT ??3@YAXPAX0@Z
_TEXT	SEGMENT
___formal$ = 8						; size = 4
___formal$ = 12						; size = 4
??3@YAXPAX0@Z PROC					; operator delete, COMDAT

; 62   : 	}

  00000	c3		 ret	 0
??3@YAXPAX0@Z ENDP					; operator delete
_TEXT	ENDS
PUBLIC	??8?$_Tree_const_iterator@V?$_Tree_val@V?$_Tmap_traits@KUTooltipAlloc@ioBasicTooltipManager@@U?$less@K@std@@V?$allocator@U?$pair@$$CBKUTooltipAlloc@ioBasicTooltipManager@@@std@@@4@$0A@@std@@@std@@@std@@QBE_NABV01@@Z ; std::_Tree_const_iterator<std::_Tree_val<std::_Tmap_traits<unsigned long,ioBasicTooltipManager::TooltipAlloc,std::less<unsigned long>,std::allocator<std::pair<unsigned long const ,ioBasicTooltipManager::TooltipAlloc> >,0> > >::operator==
; Function compile flags: /Ogsp
; File c:\program files (x86)\microsoft visual studio 10.0\vc\include\xtree
;	COMDAT ??8?$_Tree_const_iterator@V?$_Tree_val@V?$_Tmap_traits@KUTooltipAlloc@ioBasicTooltipManager@@U?$less@K@std@@V?$allocator@U?$pair@$$CBKUTooltipAlloc@ioBasicTooltipManager@@@std@@@4@$0A@@std@@@std@@@std@@QBE_NABV01@@Z
_TEXT	SEGMENT
__Right$ = 8						; size = 4
??8?$_Tree_const_iterator@V?$_Tree_val@V?$_Tmap_traits@KUTooltipAlloc@ioBasicTooltipManager@@U?$less@K@std@@V?$allocator@U?$pair@$$CBKUTooltipAlloc@ioBasicTooltipManager@@@std@@@4@$0A@@std@@@std@@@std@@QBE_NABV01@@Z PROC ; std::_Tree_const_iterator<std::_Tree_val<std::_Tmap_traits<unsigned long,ioBasicTooltipManager::TooltipAlloc,std::less<unsigned long>,std::allocator<std::pair<unsigned long const ,ioBasicTooltipManager::TooltipAlloc> >,0> > >::operator==, COMDAT
; _this$ = ecx

; 316  : 		{	// test for iterator equality

  00000	55		 push	 ebp
  00001	8b ec		 mov	 ebp, esp

; 317  :  #if _ITERATOR_DEBUG_LEVEL == 2
; 318  : 		if (this->_Getcont() == 0
; 319  : 			|| this->_Getcont() != _Right._Getcont())
; 320  : 			{	// report error
; 321  : 			_DEBUG_ERROR("map/set iterators incompatible");
; 322  : 			_SCL_SECURE_INVALID_ARGUMENT;
; 323  : 			}
; 324  : 
; 325  :  #elif _ITERATOR_DEBUG_LEVEL == 1
; 326  : 		_SCL_SECURE_VALIDATE(this->_Getcont() != 0
; 327  : 			&& this->_Getcont() == _Right._Getcont());
; 328  :  #endif /* _ITERATOR_DEBUG_LEVEL */
; 329  : 
; 330  : 		return (this->_Ptr == _Right._Ptr);

  00003	8b 01		 mov	 eax, DWORD PTR [ecx]
  00005	8b 4d 08	 mov	 ecx, DWORD PTR __Right$[ebp]
  00008	2b 01		 sub	 eax, DWORD PTR [ecx]
  0000a	f7 d8		 neg	 eax
  0000c	1b c0		 sbb	 eax, eax
  0000e	40		 inc	 eax

; 331  : 		}

  0000f	5d		 pop	 ebp
  00010	c2 04 00	 ret	 4
??8?$_Tree_const_iterator@V?$_Tree_val@V?$_Tmap_traits@KUTooltipAlloc@ioBasicTooltipManager@@U?$less@K@std@@V?$allocator@U?$pair@$$CBKUTooltipAlloc@ioBasicTooltipManager@@@std@@@4@$0A@@std@@@std@@@std@@QBE_NABV01@@Z ENDP ; std::_Tree_const_iterator<std::_Tree_val<std::_Tmap_traits<unsigned long,ioBasicTooltipManager::TooltipAlloc,std::less<unsigned long>,std::allocator<std::pair<unsigned long const ,ioBasicTooltipManager::TooltipAlloc> >,0> > >::operator==
_TEXT	ENDS
PUBLIC	??D?$_Vector_const_iterator@V?$_Vector_val@UTooltipAlloc@ioBasicTooltipManager@@V?$allocator@UTooltipAlloc@ioBasicTooltipManager@@@std@@@std@@@std@@QBEABUTooltipAlloc@ioBasicTooltipManager@@XZ ; std::_Vector_const_iterator<std::_Vector_val<ioBasicTooltipManager::TooltipAlloc,std::allocator<ioBasicTooltipManager::TooltipAlloc> > >::operator*
; Function compile flags: /Ogsp
; File c:\program files (x86)\microsoft visual studio 10.0\vc\include\vector
;	COMDAT ??D?$_Vector_const_iterator@V?$_Vector_val@UTooltipAlloc@ioBasicTooltipManager@@V?$allocator@UTooltipAlloc@ioBasicTooltipManager@@@std@@@std@@@std@@QBEABUTooltipAlloc@ioBasicTooltipManager@@XZ
_TEXT	SEGMENT
??D?$_Vector_const_iterator@V?$_Vector_val@UTooltipAlloc@ioBasicTooltipManager@@V?$allocator@UTooltipAlloc@ioBasicTooltipManager@@@std@@@std@@@std@@QBEABUTooltipAlloc@ioBasicTooltipManager@@XZ PROC ; std::_Vector_const_iterator<std::_Vector_val<ioBasicTooltipManager::TooltipAlloc,std::allocator<ioBasicTooltipManager::TooltipAlloc> > >::operator*, COMDAT
; _this$ = ecx

; 64   :  #if _ITERATOR_DEBUG_LEVEL == 2
; 65   : 		if (this->_Getcont() == 0
; 66   : 			|| this->_Ptr == 0
; 67   : 			|| this->_Ptr < ((_Myvec *)this->_Getcont())->_Myfirst
; 68   : 			|| ((_Myvec *)this->_Getcont())->_Mylast <= this->_Ptr)
; 69   : 			{	// report error
; 70   : 			_DEBUG_ERROR("vector iterator not dereferencable");
; 71   : 			_SCL_SECURE_OUT_OF_RANGE;
; 72   : 			}
; 73   : 
; 74   :  #elif _ITERATOR_DEBUG_LEVEL == 1
; 75   : 		_SCL_SECURE_VALIDATE(this->_Getcont() != 0);
; 76   : 		_SCL_SECURE_VALIDATE_RANGE(
; 77   : 			this->_Ptr != 0
; 78   : 			&& ((_Myvec *)this->_Getcont())->_Myfirst <= this->_Ptr
; 79   : 			&& this->_Ptr < ((_Myvec *)this->_Getcont())->_Mylast);
; 80   :  #endif /* _ITERATOR_DEBUG_LEVEL */
; 81   : 
; 82   : 		__analysis_assume(this->_Ptr != 0);
; 83   : 
; 84   : 		return (*this->_Ptr);

  00000	8b 01		 mov	 eax, DWORD PTR [ecx]

; 85   : 		}

  00002	c3		 ret	 0
??D?$_Vector_const_iterator@V?$_Vector_val@UTooltipAlloc@ioBasicTooltipManager@@V?$allocator@UTooltipAlloc@ioBasicTooltipManager@@@std@@@std@@@std@@QBEABUTooltipAlloc@ioBasicTooltipManager@@XZ ENDP ; std::_Vector_const_iterator<std::_Vector_val<ioBasicTooltipManager::TooltipAlloc,std::allocator<ioBasicTooltipManager::TooltipAlloc> > >::operator*
_TEXT	ENDS
PUBLIC	??E?$_Vector_const_iterator@V?$_Vector_val@UTooltipAlloc@ioBasicTooltipManager@@V?$allocator@UTooltipAlloc@ioBasicTooltipManager@@@std@@@std@@@std@@QAEAAV01@XZ ; std::_Vector_const_iterator<std::_Vector_val<ioBasicTooltipManager::TooltipAlloc,std::allocator<ioBasicTooltipManager::TooltipAlloc> > >::operator++
; Function compile flags: /Ogsp
;	COMDAT ??E?$_Vector_const_iterator@V?$_Vector_val@UTooltipAlloc@ioBasicTooltipManager@@V?$allocator@UTooltipAlloc@ioBasicTooltipManager@@@std@@@std@@@std@@QAEAAV01@XZ
_TEXT	SEGMENT
??E?$_Vector_const_iterator@V?$_Vector_val@UTooltipAlloc@ioBasicTooltipManager@@V?$allocator@UTooltipAlloc@ioBasicTooltipManager@@@std@@@std@@@std@@QAEAAV01@XZ PROC ; std::_Vector_const_iterator<std::_Vector_val<ioBasicTooltipManager::TooltipAlloc,std::allocator<ioBasicTooltipManager::TooltipAlloc> > >::operator++, COMDAT
; _this$ = ecx

; 93   : 		{	// preincrement

  00000	8b c1		 mov	 eax, ecx

; 94   :  #if _ITERATOR_DEBUG_LEVEL == 2
; 95   : 		if (this->_Getcont() == 0
; 96   : 			|| this->_Ptr == 0
; 97   : 			|| ((_Myvec *)this->_Getcont())->_Mylast <= this->_Ptr)
; 98   : 			{	// report error
; 99   : 			_DEBUG_ERROR("vector iterator not incrementable");
; 100  : 			_SCL_SECURE_OUT_OF_RANGE;
; 101  : 			}
; 102  : 
; 103  :  #elif _ITERATOR_DEBUG_LEVEL == 1
; 104  : 		_SCL_SECURE_VALIDATE(this->_Getcont() != 0);
; 105  : 		_SCL_SECURE_VALIDATE_RANGE(
; 106  : 			this->_Ptr != 0
; 107  : 			&& this->_Ptr < ((_Myvec *)this->_Getcont())->_Mylast);
; 108  :  #endif /* _ITERATOR_DEBUG_LEVEL */
; 109  : 
; 110  : 		++this->_Ptr;

  00002	83 00 20	 add	 DWORD PTR [eax], 32	; 00000020H

; 111  : 		return (*this);
; 112  : 		}

  00005	c3		 ret	 0
??E?$_Vector_const_iterator@V?$_Vector_val@UTooltipAlloc@ioBasicTooltipManager@@V?$allocator@UTooltipAlloc@ioBasicTooltipManager@@@std@@@std@@@std@@QAEAAV01@XZ ENDP ; std::_Vector_const_iterator<std::_Vector_val<ioBasicTooltipManager::TooltipAlloc,std::allocator<ioBasicTooltipManager::TooltipAlloc> > >::operator++
_TEXT	ENDS
PUBLIC	?_Left@?$_Tree_val@V?$_Tmap_traits@KUTooltipAlloc@ioBasicTooltipManager@@U?$less@K@std@@V?$allocator@U?$pair@$$CBKUTooltipAlloc@ioBasicTooltipManager@@@std@@@4@$0A@@std@@@std@@SAAAPAU_Node@?$_Tree_nod@V?$_Tmap_traits@KUTooltipAlloc@ioBasicTooltipManager@@U?$less@K@std@@V?$allocator@U?$pair@$$CBKUTooltipAlloc@ioBasicTooltipManager@@@std@@@4@$0A@@std@@@2@PAU342@@Z ; std::_Tree_val<std::_Tmap_traits<unsigned long,ioBasicTooltipManager::TooltipAlloc,std::less<unsigned long>,std::allocator<std::pair<unsigned long const ,ioBasicTooltipManager::TooltipAlloc> >,0> >::_Left
; Function compile flags: /Ogsp
; File c:\program files (x86)\microsoft visual studio 10.0\vc\include\xtree
;	COMDAT ?_Left@?$_Tree_val@V?$_Tmap_traits@KUTooltipAlloc@ioBasicTooltipManager@@U?$less@K@std@@V?$allocator@U?$pair@$$CBKUTooltipAlloc@ioBasicTooltipManager@@@std@@@4@$0A@@std@@@std@@SAAAPAU_Node@?$_Tree_nod@V?$_Tmap_traits@KUTooltipAlloc@ioBasicTooltipManager@@U?$less@K@std@@V?$allocator@U?$pair@$$CBKUTooltipAlloc@ioBasicTooltipManager@@@std@@@4@$0A@@std@@@2@PAU342@@Z
_TEXT	SEGMENT
__Pnode$ = 8						; size = 4
?_Left@?$_Tree_val@V?$_Tmap_traits@KUTooltipAlloc@ioBasicTooltipManager@@U?$less@K@std@@V?$allocator@U?$pair@$$CBKUTooltipAlloc@ioBasicTooltipManager@@@std@@@4@$0A@@std@@@std@@SAAAPAU_Node@?$_Tree_nod@V?$_Tmap_traits@KUTooltipAlloc@ioBasicTooltipManager@@U?$less@K@std@@V?$allocator@U?$pair@$$CBKUTooltipAlloc@ioBasicTooltipManager@@@std@@@4@$0A@@std@@@2@PAU342@@Z PROC ; std::_Tree_val<std::_Tmap_traits<unsigned long,ioBasicTooltipManager::TooltipAlloc,std::less<unsigned long>,std::allocator<std::pair<unsigned long const ,ioBasicTooltipManager::TooltipAlloc> >,0> >::_Left, COMDAT

; 621  : 		{	// return reference to left pointer in node

  00000	55		 push	 ebp
  00001	8b ec		 mov	 ebp, esp

; 622  : 		return ((_Nodepref)(*_Pnode)._Left);

  00003	8b 45 08	 mov	 eax, DWORD PTR __Pnode$[ebp]

; 623  : 		}

  00006	5d		 pop	 ebp
  00007	c3		 ret	 0
?_Left@?$_Tree_val@V?$_Tmap_traits@KUTooltipAlloc@ioBasicTooltipManager@@U?$less@K@std@@V?$allocator@U?$pair@$$CBKUTooltipAlloc@ioBasicTooltipManager@@@std@@@4@$0A@@std@@@std@@SAAAPAU_Node@?$_Tree_nod@V?$_Tmap_traits@KUTooltipAlloc@ioBasicTooltipManager@@U?$less@K@std@@V?$allocator@U?$pair@$$CBKUTooltipAlloc@ioBasicTooltipManager@@@std@@@4@$0A@@std@@@2@PAU342@@Z ENDP ; std::_Tree_val<std::_Tmap_traits<unsigned long,ioBasicTooltipManager::TooltipAlloc,std::less<unsigned long>,std::allocator<std::pair<unsigned long const ,ioBasicTooltipManager::TooltipAlloc> >,0> >::_Left
_TEXT	ENDS
PUBLIC	??0?$allocator@U?$pair@$$CBKUTooltipAlloc@ioBasicTooltipManager@@@std@@@std@@QAE@ABV01@@Z ; std::allocator<std::pair<unsigned long const ,ioBasicTooltipManager::TooltipAlloc> >::allocator<std::pair<unsigned long const ,ioBasicTooltipManager::TooltipAlloc> >
; Function compile flags: /Ogsp
; File c:\program files (x86)\microsoft visual studio 10.0\vc\include\xmemory
;	COMDAT ??0?$allocator@U?$pair@$$CBKUTooltipAlloc@ioBasicTooltipManager@@@std@@@std@@QAE@ABV01@@Z
_TEXT	SEGMENT
___formal$ = 8						; size = 4
??0?$allocator@U?$pair@$$CBKUTooltipAlloc@ioBasicTooltipManager@@@std@@@std@@QAE@ABV01@@Z PROC ; std::allocator<std::pair<unsigned long const ,ioBasicTooltipManager::TooltipAlloc> >::allocator<std::pair<unsigned long const ,ioBasicTooltipManager::TooltipAlloc> >, COMDAT
; _this$ = ecx

; 165  : 	_ALLOCATOR(const _ALLOCATOR<_Ty>&) _THROW0()

  00000	8b c1		 mov	 eax, ecx

; 166  : 		{	// construct by copying (do nothing)
; 167  : 		}

  00002	c2 04 00	 ret	 4
??0?$allocator@U?$pair@$$CBKUTooltipAlloc@ioBasicTooltipManager@@@std@@@std@@QAE@ABV01@@Z ENDP ; std::allocator<std::pair<unsigned long const ,ioBasicTooltipManager::TooltipAlloc> >::allocator<std::pair<unsigned long const ,ioBasicTooltipManager::TooltipAlloc> >
_TEXT	ENDS
PUBLIC	?deallocate@?$allocator@U_Node@?$_Tree_nod@V?$_Tmap_traits@KUTooltipAlloc@ioBasicTooltipManager@@U?$less@K@std@@V?$allocator@U?$pair@$$CBKUTooltipAlloc@ioBasicTooltipManager@@@std@@@4@$0A@@std@@@std@@@std@@QAEXPAU_Node@?$_Tree_nod@V?$_Tmap_traits@KUTooltipAlloc@ioBasicTooltipManager@@U?$less@K@std@@V?$allocator@U?$pair@$$CBKUTooltipAlloc@ioBasicTooltipManager@@@std@@@4@$0A@@std@@@2@I@Z ; std::allocator<std::_Tree_nod<std::_Tmap_traits<unsigned long,ioBasicTooltipManager::TooltipAlloc,std::less<unsigned long>,std::allocator<std::pair<unsigned long const ,ioBasicTooltipManager::TooltipAlloc> >,0> >::_Node>::deallocate
; Function compile flags: /Ogsp
;	COMDAT ?deallocate@?$allocator@U_Node@?$_Tree_nod@V?$_Tmap_traits@KUTooltipAlloc@ioBasicTooltipManager@@U?$less@K@std@@V?$allocator@U?$pair@$$CBKUTooltipAlloc@ioBasicTooltipManager@@@std@@@4@$0A@@std@@@std@@@std@@QAEXPAU_Node@?$_Tree_nod@V?$_Tmap_traits@KUTooltipAlloc@ioBasicTooltipManager@@U?$less@K@std@@V?$allocator@U?$pair@$$CBKUTooltipAlloc@ioBasicTooltipManager@@@std@@@4@$0A@@std@@@2@I@Z
_TEXT	SEGMENT
__Ptr$ = 8						; size = 4
___formal$ = 12						; size = 4
?deallocate@?$allocator@U_Node@?$_Tree_nod@V?$_Tmap_traits@KUTooltipAlloc@ioBasicTooltipManager@@U?$less@K@std@@V?$allocator@U?$pair@$$CBKUTooltipAlloc@ioBasicTooltipManager@@@std@@@4@$0A@@std@@@std@@@std@@QAEXPAU_Node@?$_Tree_nod@V?$_Tmap_traits@KUTooltipAlloc@ioBasicTooltipManager@@U?$less@K@std@@V?$allocator@U?$pair@$$CBKUTooltipAlloc@ioBasicTooltipManager@@@std@@@4@$0A@@std@@@2@I@Z PROC ; std::allocator<std::_Tree_nod<std::_Tmap_traits<unsigned long,ioBasicTooltipManager::TooltipAlloc,std::less<unsigned long>,std::allocator<std::pair<unsigned long const ,ioBasicTooltipManager::TooltipAlloc> >,0> >::_Node>::deallocate, COMDAT
; _this$ = ecx

; 181  : 		{	// deallocate object at _Ptr, ignore size

  00000	55		 push	 ebp
  00001	8b ec		 mov	 ebp, esp

; 182  : 		::operator delete(_Ptr);

  00003	ff 75 08	 push	 DWORD PTR __Ptr$[ebp]
  00006	e8 00 00 00 00	 call	 ??3@YAXPAX@Z		; operator delete
  0000b	59		 pop	 ecx

; 183  : 		}

  0000c	5d		 pop	 ebp
  0000d	c2 08 00	 ret	 8
?deallocate@?$allocator@U_Node@?$_Tree_nod@V?$_Tmap_traits@KUTooltipAlloc@ioBasicTooltipManager@@U?$less@K@std@@V?$allocator@U?$pair@$$CBKUTooltipAlloc@ioBasicTooltipManager@@@std@@@4@$0A@@std@@@std@@@std@@QAEXPAU_Node@?$_Tree_nod@V?$_Tmap_traits@KUTooltipAlloc@ioBasicTooltipManager@@U?$less@K@std@@V?$allocator@U?$pair@$$CBKUTooltipAlloc@ioBasicTooltipManager@@@std@@@4@$0A@@std@@@2@I@Z ENDP ; std::allocator<std::_Tree_nod<std::_Tmap_traits<unsigned long,ioBasicTooltipManager::TooltipAlloc,std::less<unsigned long>,std::allocator<std::pair<unsigned long const ,ioBasicTooltipManager::TooltipAlloc> >,0> >::_Node>::deallocate
_TEXT	ENDS
PUBLIC	?capacity@?$vector@UTooltipAlloc@ioBasicTooltipManager@@V?$allocator@UTooltipAlloc@ioBasicTooltipManager@@@std@@@std@@QBEIXZ ; std::vector<ioBasicTooltipManager::TooltipAlloc,std::allocator<ioBasicTooltipManager::TooltipAlloc> >::capacity
; Function compile flags: /Ogsp
; File c:\program files (x86)\microsoft visual studio 10.0\vc\include\vector
;	COMDAT ?capacity@?$vector@UTooltipAlloc@ioBasicTooltipManager@@V?$allocator@UTooltipAlloc@ioBasicTooltipManager@@@std@@@std@@QBEIXZ
_TEXT	SEGMENT
?capacity@?$vector@UTooltipAlloc@ioBasicTooltipManager@@V?$allocator@UTooltipAlloc@ioBasicTooltipManager@@@std@@@std@@QBEIXZ PROC ; std::vector<ioBasicTooltipManager::TooltipAlloc,std::allocator<ioBasicTooltipManager::TooltipAlloc> >::capacity, COMDAT
; _this$ = ecx

; 777  : 		return (this->_Myend - this->_Myfirst);

  00000	8b 41 08	 mov	 eax, DWORD PTR [ecx+8]
  00003	2b 01		 sub	 eax, DWORD PTR [ecx]
  00005	c1 f8 05	 sar	 eax, 5

; 778  : 		}

  00008	c3		 ret	 0
?capacity@?$vector@UTooltipAlloc@ioBasicTooltipManager@@V?$allocator@UTooltipAlloc@ioBasicTooltipManager@@@std@@@std@@QBEIXZ ENDP ; std::vector<ioBasicTooltipManager::TooltipAlloc,std::allocator<ioBasicTooltipManager::TooltipAlloc> >::capacity
_TEXT	ENDS
PUBLIC	?size@?$vector@UTooltipAlloc@ioBasicTooltipManager@@V?$allocator@UTooltipAlloc@ioBasicTooltipManager@@@std@@@std@@QBEIXZ ; std::vector<ioBasicTooltipManager::TooltipAlloc,std::allocator<ioBasicTooltipManager::TooltipAlloc> >::size
; Function compile flags: /Ogsp
;	COMDAT ?size@?$vector@UTooltipAlloc@ioBasicTooltipManager@@V?$allocator@UTooltipAlloc@ioBasicTooltipManager@@@std@@@std@@QBEIXZ
_TEXT	SEGMENT
?size@?$vector@UTooltipAlloc@ioBasicTooltipManager@@V?$allocator@UTooltipAlloc@ioBasicTooltipManager@@@std@@@std@@QBEIXZ PROC ; std::vector<ioBasicTooltipManager::TooltipAlloc,std::allocator<ioBasicTooltipManager::TooltipAlloc> >::size, COMDAT
; _this$ = ecx

; 879  : 		return (this->_Mylast - this->_Myfirst);

  00000	8b 41 04	 mov	 eax, DWORD PTR [ecx+4]
  00003	2b 01		 sub	 eax, DWORD PTR [ecx]
  00005	c1 f8 05	 sar	 eax, 5

; 880  : 		}

  00008	c3		 ret	 0
?size@?$vector@UTooltipAlloc@ioBasicTooltipManager@@V?$allocator@UTooltipAlloc@ioBasicTooltipManager@@@std@@@std@@QBEIXZ ENDP ; std::vector<ioBasicTooltipManager::TooltipAlloc,std::allocator<ioBasicTooltipManager::TooltipAlloc> >::size
_TEXT	ENDS
PUBLIC	?compare@?$char_traits@D@std@@SAHPBD0I@Z	; std::char_traits<char>::compare
; Function compile flags: /Ogsp
; File c:\program files (x86)\microsoft visual studio 10.0\vc\include\iosfwd
;	COMDAT ?compare@?$char_traits@D@std@@SAHPBD0I@Z
_TEXT	SEGMENT
__First1$ = 8						; size = 4
__First2$ = 12						; size = 4
__Count$ = 16						; size = 4
?compare@?$char_traits@D@std@@SAHPBD0I@Z PROC		; std::char_traits<char>::compare, COMDAT

; 485  : 		{	// compare [_First1, _First1 + _Count) with [_First2, ...)

  00000	55		 push	 ebp
  00001	8b ec		 mov	 ebp, esp

; 486  : 		return (_CSTD memcmp(_First1, _First2, _Count));

  00003	8b 4d 10	 mov	 ecx, DWORD PTR __Count$[ebp]
  00006	56		 push	 esi
  00007	8b 75 08	 mov	 esi, DWORD PTR __First1$[ebp]
  0000a	57		 push	 edi
  0000b	8b 7d 0c	 mov	 edi, DWORD PTR __First2$[ebp]
  0000e	33 c0		 xor	 eax, eax
  00010	f3 a6		 repe cmpsb
  00012	5f		 pop	 edi
  00013	5e		 pop	 esi
  00014	74 05		 je	 SHORT $LN3@compare
  00016	1b c0		 sbb	 eax, eax
  00018	83 d8 ff	 sbb	 eax, -1
$LN3@compare:

; 487  : 		}

  0001b	5d		 pop	 ebp
  0001c	c3		 ret	 0
?compare@?$char_traits@D@std@@SAHPBD0I@Z ENDP		; std::char_traits<char>::compare
_TEXT	ENDS
PUBLIC	?copy@?$char_traits@D@std@@SAPADPADPBDI@Z	; std::char_traits<char>::copy
EXTRN	_memcpy:PROC
; Function compile flags: /Ogsp
;	COMDAT ?copy@?$char_traits@D@std@@SAPADPADPBDI@Z
_TEXT	SEGMENT
__First1$ = 8						; size = 4
__First2$ = 12						; size = 4
__Count$ = 16						; size = 4
?copy@?$char_traits@D@std@@SAPADPADPBDI@Z PROC		; std::char_traits<char>::copy, COMDAT

; 496  : 		{	// copy [_First1, _First1 + _Count) to [_First2, ...)

  00000	55		 push	 ebp
  00001	8b ec		 mov	 ebp, esp

; 498  : 		}

  00003	5d		 pop	 ebp

; 497  : 		return ((_Elem *)_CSTD memcpy(_First1, _First2, _Count));

  00004	e9 00 00 00 00	 jmp	 _memcpy
?copy@?$char_traits@D@std@@SAPADPADPBDI@Z ENDP		; std::char_traits<char>::copy
_TEXT	ENDS
PUBLIC	?move@?$char_traits@D@std@@SAPADPADPBDI@Z	; std::char_traits<char>::move
EXTRN	__imp__memmove:PROC
; Function compile flags: /Ogsp
;	COMDAT ?move@?$char_traits@D@std@@SAPADPADPBDI@Z
_TEXT	SEGMENT
__First1$ = 8						; size = 4
__First2$ = 12						; size = 4
__Count$ = 16						; size = 4
?move@?$char_traits@D@std@@SAPADPADPBDI@Z PROC		; std::char_traits<char>::move, COMDAT

; 516  : 		{	// copy [_First1, _First1 + _Count) to [_First2, ...)

  00000	55		 push	 ebp
  00001	8b ec		 mov	 ebp, esp

; 518  : 		}

  00003	5d		 pop	 ebp

; 517  : 		return ((_Elem *)_CSTD memmove(_First1, _First2, _Count));

  00004	ff 25 00 00 00
	00		 jmp	 DWORD PTR __imp__memmove
?move@?$char_traits@D@std@@SAPADPADPBDI@Z ENDP		; std::char_traits<char>::move
_TEXT	ENDS
PUBLIC	??_C@_0BD@OLBABOEK@vector?$DMT?$DO?5too?5long?$AA@ ; `string'
PUBLIC	?_Xlen@?$vector@UTooltipAlloc@ioBasicTooltipManager@@V?$allocator@UTooltipAlloc@ioBasicTooltipManager@@@std@@@std@@IBEXXZ ; std::vector<ioBasicTooltipManager::TooltipAlloc,std::allocator<ioBasicTooltipManager::TooltipAlloc> >::_Xlen
EXTRN	__imp_?_Xlength_error@std@@YAXPBD@Z:PROC
;	COMDAT ??_C@_0BD@OLBABOEK@vector?$DMT?$DO?5too?5long?$AA@
; File c:\program files (x86)\microsoft visual studio 10.0\vc\include\vector
CONST	SEGMENT
??_C@_0BD@OLBABOEK@vector?$DMT?$DO?5too?5long?$AA@ DB 'vector<T> too long'
	DB	00H						; `string'
; Function compile flags: /Ogsp
CONST	ENDS
;	COMDAT ?_Xlen@?$vector@UTooltipAlloc@ioBasicTooltipManager@@V?$allocator@UTooltipAlloc@ioBasicTooltipManager@@@std@@@std@@IBEXXZ
_TEXT	SEGMENT
?_Xlen@?$vector@UTooltipAlloc@ioBasicTooltipManager@@V?$allocator@UTooltipAlloc@ioBasicTooltipManager@@@std@@@std@@IBEXXZ PROC ; std::vector<ioBasicTooltipManager::TooltipAlloc,std::allocator<ioBasicTooltipManager::TooltipAlloc> >::_Xlen, COMDAT
; _this$ = ecx

; 1427 : 		_Xlength_error("vector<T> too long");

  00000	68 00 00 00 00	 push	 OFFSET ??_C@_0BD@OLBABOEK@vector?$DMT?$DO?5too?5long?$AA@
  00005	ff 15 00 00 00
	00		 call	 DWORD PTR __imp_?_Xlength_error@std@@YAXPBD@Z
$LN4@Xlen:
$LN3@Xlen:
  0000b	cc		 int	 3
?_Xlen@?$vector@UTooltipAlloc@ioBasicTooltipManager@@V?$allocator@UTooltipAlloc@ioBasicTooltipManager@@@std@@@std@@IBEXXZ ENDP ; std::vector<ioBasicTooltipManager::TooltipAlloc,std::allocator<ioBasicTooltipManager::TooltipAlloc> >::_Xlen
_TEXT	ENDS
PUBLIC	??0?$allocator@UTooltipAlloc@ioBasicTooltipManager@@@std@@QAE@ABV01@@Z ; std::allocator<ioBasicTooltipManager::TooltipAlloc>::allocator<ioBasicTooltipManager::TooltipAlloc>
; Function compile flags: /Ogsp
; File c:\program files (x86)\microsoft visual studio 10.0\vc\include\xmemory
;	COMDAT ??0?$allocator@UTooltipAlloc@ioBasicTooltipManager@@@std@@QAE@ABV01@@Z
_TEXT	SEGMENT
___formal$ = 8						; size = 4
??0?$allocator@UTooltipAlloc@ioBasicTooltipManager@@@std@@QAE@ABV01@@Z PROC ; std::allocator<ioBasicTooltipManager::TooltipAlloc>::allocator<ioBasicTooltipManager::TooltipAlloc>, COMDAT
; _this$ = ecx

; 165  : 	_ALLOCATOR(const _ALLOCATOR<_Ty>&) _THROW0()

  00000	8b c1		 mov	 eax, ecx

; 166  : 		{	// construct by copying (do nothing)
; 167  : 		}

  00002	c2 04 00	 ret	 4
??0?$allocator@UTooltipAlloc@ioBasicTooltipManager@@@std@@QAE@ABV01@@Z ENDP ; std::allocator<ioBasicTooltipManager::TooltipAlloc>::allocator<ioBasicTooltipManager::TooltipAlloc>
_TEXT	ENDS
PUBLIC	?deallocate@?$allocator@UTooltipAlloc@ioBasicTooltipManager@@@std@@QAEXPAUTooltipAlloc@ioBasicTooltipManager@@I@Z ; std::allocator<ioBasicTooltipManager::TooltipAlloc>::deallocate
; Function compile flags: /Ogsp
;	COMDAT ?deallocate@?$allocator@UTooltipAlloc@ioBasicTooltipManager@@@std@@QAEXPAUTooltipAlloc@ioBasicTooltipManager@@I@Z
_TEXT	SEGMENT
__Ptr$ = 8						; size = 4
___formal$ = 12						; size = 4
?deallocate@?$allocator@UTooltipAlloc@ioBasicTooltipManager@@@std@@QAEXPAUTooltipAlloc@ioBasicTooltipManager@@I@Z PROC ; std::allocator<ioBasicTooltipManager::TooltipAlloc>::deallocate, COMDAT
; _this$ = ecx

; 181  : 		{	// deallocate object at _Ptr, ignore size

  00000	55		 push	 ebp
  00001	8b ec		 mov	 ebp, esp

; 182  : 		::operator delete(_Ptr);

  00003	ff 75 08	 push	 DWORD PTR __Ptr$[ebp]
  00006	e8 00 00 00 00	 call	 ??3@YAXPAX@Z		; operator delete
  0000b	59		 pop	 ecx

; 183  : 		}

  0000c	5d		 pop	 ebp
  0000d	c2 08 00	 ret	 8
?deallocate@?$allocator@UTooltipAlloc@ioBasicTooltipManager@@@std@@QAEXPAUTooltipAlloc@ioBasicTooltipManager@@I@Z ENDP ; std::allocator<ioBasicTooltipManager::TooltipAlloc>::deallocate
_TEXT	ENDS
PUBLIC	?assign@?$char_traits@D@std@@SAXAADABD@Z	; std::char_traits<char>::assign
; Function compile flags: /Ogsp
; File c:\program files (x86)\microsoft visual studio 10.0\vc\include\iosfwd
;	COMDAT ?assign@?$char_traits@D@std@@SAXAADABD@Z
_TEXT	SEGMENT
__Left$ = 8						; size = 4
__Right$ = 12						; size = 4
?assign@?$char_traits@D@std@@SAXAADABD@Z PROC		; std::char_traits<char>::assign, COMDAT

; 526  : 		{	// assign an element

  00000	55		 push	 ebp
  00001	8b ec		 mov	 ebp, esp

; 527  : 		_Left = _Right;

  00003	8b 45 0c	 mov	 eax, DWORD PTR __Right$[ebp]
  00006	8a 00		 mov	 al, BYTE PTR [eax]
  00008	8b 4d 08	 mov	 ecx, DWORD PTR __Left$[ebp]
  0000b	88 01		 mov	 BYTE PTR [ecx], al

; 528  : 		}

  0000d	5d		 pop	 ebp
  0000e	c3		 ret	 0
?assign@?$char_traits@D@std@@SAXAADABD@Z ENDP		; std::char_traits<char>::assign
_TEXT	ENDS
PUBLIC	?_Compat@?$_Vector_const_iterator@V?$_Vector_val@UTooltipAlloc@ioBasicTooltipManager@@V?$allocator@UTooltipAlloc@ioBasicTooltipManager@@@std@@@std@@@std@@QBEXABV12@@Z ; std::_Vector_const_iterator<std::_Vector_val<ioBasicTooltipManager::TooltipAlloc,std::allocator<ioBasicTooltipManager::TooltipAlloc> > >::_Compat
; Function compile flags: /Ogsp
; File c:\program files (x86)\microsoft visual studio 10.0\vc\include\vector
;	COMDAT ?_Compat@?$_Vector_const_iterator@V?$_Vector_val@UTooltipAlloc@ioBasicTooltipManager@@V?$allocator@UTooltipAlloc@ioBasicTooltipManager@@@std@@@std@@@std@@QBEXABV12@@Z
_TEXT	SEGMENT
___formal$ = 8						; size = 4
?_Compat@?$_Vector_const_iterator@V?$_Vector_val@UTooltipAlloc@ioBasicTooltipManager@@V?$allocator@UTooltipAlloc@ioBasicTooltipManager@@@std@@@std@@@std@@QBEXABV12@@Z PROC ; std::_Vector_const_iterator<std::_Vector_val<ioBasicTooltipManager::TooltipAlloc,std::allocator<ioBasicTooltipManager::TooltipAlloc> > >::_Compat, COMDAT
; _this$ = ecx

; 253  : 		}

  00000	c2 04 00	 ret	 4
?_Compat@?$_Vector_const_iterator@V?$_Vector_val@UTooltipAlloc@ioBasicTooltipManager@@V?$allocator@UTooltipAlloc@ioBasicTooltipManager@@@std@@@std@@@std@@QBEXABV12@@Z ENDP ; std::_Vector_const_iterator<std::_Vector_val<ioBasicTooltipManager::TooltipAlloc,std::allocator<ioBasicTooltipManager::TooltipAlloc> > >::_Compat
_TEXT	ENDS
PUBLIC	?_Color@?$_Tree_val@V?$_Tmap_traits@KUTooltipAlloc@ioBasicTooltipManager@@U?$less@K@std@@V?$allocator@U?$pair@$$CBKUTooltipAlloc@ioBasicTooltipManager@@@std@@@4@$0A@@std@@@std@@SAAADPAU_Node@?$_Tree_nod@V?$_Tmap_traits@KUTooltipAlloc@ioBasicTooltipManager@@U?$less@K@std@@V?$allocator@U?$pair@$$CBKUTooltipAlloc@ioBasicTooltipManager@@@std@@@4@$0A@@std@@@2@@Z ; std::_Tree_val<std::_Tmap_traits<unsigned long,ioBasicTooltipManager::TooltipAlloc,std::less<unsigned long>,std::allocator<std::pair<unsigned long const ,ioBasicTooltipManager::TooltipAlloc> >,0> >::_Color
; Function compile flags: /Ogsp
; File c:\program files (x86)\microsoft visual studio 10.0\vc\include\xtree
;	COMDAT ?_Color@?$_Tree_val@V?$_Tmap_traits@KUTooltipAlloc@ioBasicTooltipManager@@U?$less@K@std@@V?$allocator@U?$pair@$$CBKUTooltipAlloc@ioBasicTooltipManager@@@std@@@4@$0A@@std@@@std@@SAAADPAU_Node@?$_Tree_nod@V?$_Tmap_traits@KUTooltipAlloc@ioBasicTooltipManager@@U?$less@K@std@@V?$allocator@U?$pair@$$CBKUTooltipAlloc@ioBasicTooltipManager@@@std@@@4@$0A@@std@@@2@@Z
_TEXT	SEGMENT
__Pnode$ = 8						; size = 4
?_Color@?$_Tree_val@V?$_Tmap_traits@KUTooltipAlloc@ioBasicTooltipManager@@U?$less@K@std@@V?$allocator@U?$pair@$$CBKUTooltipAlloc@ioBasicTooltipManager@@@std@@@4@$0A@@std@@@std@@SAAADPAU_Node@?$_Tree_nod@V?$_Tmap_traits@KUTooltipAlloc@ioBasicTooltipManager@@U?$less@K@std@@V?$allocator@U?$pair@$$CBKUTooltipAlloc@ioBasicTooltipManager@@@std@@@4@$0A@@std@@@2@@Z PROC ; std::_Tree_val<std::_Tmap_traits<unsigned long,ioBasicTooltipManager::TooltipAlloc,std::less<unsigned long>,std::allocator<std::pair<unsigned long const ,ioBasicTooltipManager::TooltipAlloc> >,0> >::_Color, COMDAT

; 606  : 		{	// return reference to color in node

  00000	55		 push	 ebp
  00001	8b ec		 mov	 ebp, esp

; 607  : 		return ((char&)(*_Pnode)._Color);

  00003	8b 45 08	 mov	 eax, DWORD PTR __Pnode$[ebp]
  00006	83 c0 30	 add	 eax, 48			; 00000030H

; 608  : 		}

  00009	5d		 pop	 ebp
  0000a	c3		 ret	 0
?_Color@?$_Tree_val@V?$_Tmap_traits@KUTooltipAlloc@ioBasicTooltipManager@@U?$less@K@std@@V?$allocator@U?$pair@$$CBKUTooltipAlloc@ioBasicTooltipManager@@@std@@@4@$0A@@std@@@std@@SAAADPAU_Node@?$_Tree_nod@V?$_Tmap_traits@KUTooltipAlloc@ioBasicTooltipManager@@U?$less@K@std@@V?$allocator@U?$pair@$$CBKUTooltipAlloc@ioBasicTooltipManager@@@std@@@4@$0A@@std@@@2@@Z ENDP ; std::_Tree_val<std::_Tmap_traits<unsigned long,ioBasicTooltipManager::TooltipAlloc,std::less<unsigned long>,std::allocator<std::pair<unsigned long const ,ioBasicTooltipManager::TooltipAlloc> >,0> >::_Color
_TEXT	ENDS
PUBLIC	?_Isnil@?$_Tree_val@V?$_Tmap_traits@KUTooltipAlloc@ioBasicTooltipManager@@U?$less@K@std@@V?$allocator@U?$pair@$$CBKUTooltipAlloc@ioBasicTooltipManager@@@std@@@4@$0A@@std@@@std@@SAAADPAU_Node@?$_Tree_nod@V?$_Tmap_traits@KUTooltipAlloc@ioBasicTooltipManager@@U?$less@K@std@@V?$allocator@U?$pair@$$CBKUTooltipAlloc@ioBasicTooltipManager@@@std@@@4@$0A@@std@@@2@@Z ; std::_Tree_val<std::_Tmap_traits<unsigned long,ioBasicTooltipManager::TooltipAlloc,std::less<unsigned long>,std::allocator<std::pair<unsigned long const ,ioBasicTooltipManager::TooltipAlloc> >,0> >::_Isnil
; Function compile flags: /Ogsp
;	COMDAT ?_Isnil@?$_Tree_val@V?$_Tmap_traits@KUTooltipAlloc@ioBasicTooltipManager@@U?$less@K@std@@V?$allocator@U?$pair@$$CBKUTooltipAlloc@ioBasicTooltipManager@@@std@@@4@$0A@@std@@@std@@SAAADPAU_Node@?$_Tree_nod@V?$_Tmap_traits@KUTooltipAlloc@ioBasicTooltipManager@@U?$less@K@std@@V?$allocator@U?$pair@$$CBKUTooltipAlloc@ioBasicTooltipManager@@@std@@@4@$0A@@std@@@2@@Z
_TEXT	SEGMENT
__Pnode$ = 8						; size = 4
?_Isnil@?$_Tree_val@V?$_Tmap_traits@KUTooltipAlloc@ioBasicTooltipManager@@U?$less@K@std@@V?$allocator@U?$pair@$$CBKUTooltipAlloc@ioBasicTooltipManager@@@std@@@4@$0A@@std@@@std@@SAAADPAU_Node@?$_Tree_nod@V?$_Tmap_traits@KUTooltipAlloc@ioBasicTooltipManager@@U?$less@K@std@@V?$allocator@U?$pair@$$CBKUTooltipAlloc@ioBasicTooltipManager@@@std@@@4@$0A@@std@@@2@@Z PROC ; std::_Tree_val<std::_Tmap_traits<unsigned long,ioBasicTooltipManager::TooltipAlloc,std::less<unsigned long>,std::allocator<std::pair<unsigned long const ,ioBasicTooltipManager::TooltipAlloc> >,0> >::_Isnil, COMDAT

; 611  : 		{	// return reference to nil flag in node

  00000	55		 push	 ebp
  00001	8b ec		 mov	 ebp, esp

; 612  : 		return ((char&)(*_Pnode)._Isnil);

  00003	8b 45 08	 mov	 eax, DWORD PTR __Pnode$[ebp]
  00006	83 c0 31	 add	 eax, 49			; 00000031H

; 613  : 		}

  00009	5d		 pop	 ebp
  0000a	c3		 ret	 0
?_Isnil@?$_Tree_val@V?$_Tmap_traits@KUTooltipAlloc@ioBasicTooltipManager@@U?$less@K@std@@V?$allocator@U?$pair@$$CBKUTooltipAlloc@ioBasicTooltipManager@@@std@@@4@$0A@@std@@@std@@SAAADPAU_Node@?$_Tree_nod@V?$_Tmap_traits@KUTooltipAlloc@ioBasicTooltipManager@@U?$less@K@std@@V?$allocator@U?$pair@$$CBKUTooltipAlloc@ioBasicTooltipManager@@@std@@@4@$0A@@std@@@2@@Z ENDP ; std::_Tree_val<std::_Tmap_traits<unsigned long,ioBasicTooltipManager::TooltipAlloc,std::less<unsigned long>,std::allocator<std::pair<unsigned long const ,ioBasicTooltipManager::TooltipAlloc> >,0> >::_Isnil
_TEXT	ENDS
PUBLIC	?_Parent@?$_Tree_val@V?$_Tmap_traits@KUTooltipAlloc@ioBasicTooltipManager@@U?$less@K@std@@V?$allocator@U?$pair@$$CBKUTooltipAlloc@ioBasicTooltipManager@@@std@@@4@$0A@@std@@@std@@SAAAPAU_Node@?$_Tree_nod@V?$_Tmap_traits@KUTooltipAlloc@ioBasicTooltipManager@@U?$less@K@std@@V?$allocator@U?$pair@$$CBKUTooltipAlloc@ioBasicTooltipManager@@@std@@@4@$0A@@std@@@2@PAU342@@Z ; std::_Tree_val<std::_Tmap_traits<unsigned long,ioBasicTooltipManager::TooltipAlloc,std::less<unsigned long>,std::allocator<std::pair<unsigned long const ,ioBasicTooltipManager::TooltipAlloc> >,0> >::_Parent
; Function compile flags: /Ogsp
;	COMDAT ?_Parent@?$_Tree_val@V?$_Tmap_traits@KUTooltipAlloc@ioBasicTooltipManager@@U?$less@K@std@@V?$allocator@U?$pair@$$CBKUTooltipAlloc@ioBasicTooltipManager@@@std@@@4@$0A@@std@@@std@@SAAAPAU_Node@?$_Tree_nod@V?$_Tmap_traits@KUTooltipAlloc@ioBasicTooltipManager@@U?$less@K@std@@V?$allocator@U?$pair@$$CBKUTooltipAlloc@ioBasicTooltipManager@@@std@@@4@$0A@@std@@@2@PAU342@@Z
_TEXT	SEGMENT
__Pnode$ = 8						; size = 4
?_Parent@?$_Tree_val@V?$_Tmap_traits@KUTooltipAlloc@ioBasicTooltipManager@@U?$less@K@std@@V?$allocator@U?$pair@$$CBKUTooltipAlloc@ioBasicTooltipManager@@@std@@@4@$0A@@std@@@std@@SAAAPAU_Node@?$_Tree_nod@V?$_Tmap_traits@KUTooltipAlloc@ioBasicTooltipManager@@U?$less@K@std@@V?$allocator@U?$pair@$$CBKUTooltipAlloc@ioBasicTooltipManager@@@std@@@4@$0A@@std@@@2@PAU342@@Z PROC ; std::_Tree_val<std::_Tmap_traits<unsigned long,ioBasicTooltipManager::TooltipAlloc,std::less<unsigned long>,std::allocator<std::pair<unsigned long const ,ioBasicTooltipManager::TooltipAlloc> >,0> >::_Parent, COMDAT

; 626  : 		{	// return reference to parent pointer in node

  00000	55		 push	 ebp
  00001	8b ec		 mov	 ebp, esp

; 627  : 		return ((_Nodepref)(*_Pnode)._Parent);

  00003	8b 45 08	 mov	 eax, DWORD PTR __Pnode$[ebp]
  00006	83 c0 04	 add	 eax, 4

; 628  : 		}

  00009	5d		 pop	 ebp
  0000a	c3		 ret	 0
?_Parent@?$_Tree_val@V?$_Tmap_traits@KUTooltipAlloc@ioBasicTooltipManager@@U?$less@K@std@@V?$allocator@U?$pair@$$CBKUTooltipAlloc@ioBasicTooltipManager@@@std@@@4@$0A@@std@@@std@@SAAAPAU_Node@?$_Tree_nod@V?$_Tmap_traits@KUTooltipAlloc@ioBasicTooltipManager@@U?$less@K@std@@V?$allocator@U?$pair@$$CBKUTooltipAlloc@ioBasicTooltipManager@@@std@@@4@$0A@@std@@@2@PAU342@@Z ENDP ; std::_Tree_val<std::_Tmap_traits<unsigned long,ioBasicTooltipManager::TooltipAlloc,std::less<unsigned long>,std::allocator<std::pair<unsigned long const ,ioBasicTooltipManager::TooltipAlloc> >,0> >::_Parent
_TEXT	ENDS
PUBLIC	?_Right@?$_Tree_val@V?$_Tmap_traits@KUTooltipAlloc@ioBasicTooltipManager@@U?$less@K@std@@V?$allocator@U?$pair@$$CBKUTooltipAlloc@ioBasicTooltipManager@@@std@@@4@$0A@@std@@@std@@SAAAPAU_Node@?$_Tree_nod@V?$_Tmap_traits@KUTooltipAlloc@ioBasicTooltipManager@@U?$less@K@std@@V?$allocator@U?$pair@$$CBKUTooltipAlloc@ioBasicTooltipManager@@@std@@@4@$0A@@std@@@2@PAU342@@Z ; std::_Tree_val<std::_Tmap_traits<unsigned long,ioBasicTooltipManager::TooltipAlloc,std::less<unsigned long>,std::allocator<std::pair<unsigned long const ,ioBasicTooltipManager::TooltipAlloc> >,0> >::_Right
; Function compile flags: /Ogsp
;	COMDAT ?_Right@?$_Tree_val@V?$_Tmap_traits@KUTooltipAlloc@ioBasicTooltipManager@@U?$less@K@std@@V?$allocator@U?$pair@$$CBKUTooltipAlloc@ioBasicTooltipManager@@@std@@@4@$0A@@std@@@std@@SAAAPAU_Node@?$_Tree_nod@V?$_Tmap_traits@KUTooltipAlloc@ioBasicTooltipManager@@U?$less@K@std@@V?$allocator@U?$pair@$$CBKUTooltipAlloc@ioBasicTooltipManager@@@std@@@4@$0A@@std@@@2@PAU342@@Z
_TEXT	SEGMENT
__Pnode$ = 8						; size = 4
?_Right@?$_Tree_val@V?$_Tmap_traits@KUTooltipAlloc@ioBasicTooltipManager@@U?$less@K@std@@V?$allocator@U?$pair@$$CBKUTooltipAlloc@ioBasicTooltipManager@@@std@@@4@$0A@@std@@@std@@SAAAPAU_Node@?$_Tree_nod@V?$_Tmap_traits@KUTooltipAlloc@ioBasicTooltipManager@@U?$less@K@std@@V?$allocator@U?$pair@$$CBKUTooltipAlloc@ioBasicTooltipManager@@@std@@@4@$0A@@std@@@2@PAU342@@Z PROC ; std::_Tree_val<std::_Tmap_traits<unsigned long,ioBasicTooltipManager::TooltipAlloc,std::less<unsigned long>,std::allocator<std::pair<unsigned long const ,ioBasicTooltipManager::TooltipAlloc> >,0> >::_Right, COMDAT

; 631  : 		{	// return reference to right pointer in node

  00000	55		 push	 ebp
  00001	8b ec		 mov	 ebp, esp

; 632  : 		return ((_Nodepref)(*_Pnode)._Right);

  00003	8b 45 08	 mov	 eax, DWORD PTR __Pnode$[ebp]
  00006	83 c0 08	 add	 eax, 8

; 633  : 		}

  00009	5d		 pop	 ebp
  0000a	c3		 ret	 0
?_Right@?$_Tree_val@V?$_Tmap_traits@KUTooltipAlloc@ioBasicTooltipManager@@U?$less@K@std@@V?$allocator@U?$pair@$$CBKUTooltipAlloc@ioBasicTooltipManager@@@std@@@4@$0A@@std@@@std@@SAAAPAU_Node@?$_Tree_nod@V?$_Tmap_traits@KUTooltipAlloc@ioBasicTooltipManager@@U?$less@K@std@@V?$allocator@U?$pair@$$CBKUTooltipAlloc@ioBasicTooltipManager@@@std@@@4@$0A@@std@@@2@PAU342@@Z ENDP ; std::_Tree_val<std::_Tmap_traits<unsigned long,ioBasicTooltipManager::TooltipAlloc,std::less<unsigned long>,std::allocator<std::pair<unsigned long const ,ioBasicTooltipManager::TooltipAlloc> >,0> >::_Right
_TEXT	ENDS
PUBLIC	?_Myval@?$_Tree_val@V?$_Tmap_traits@KUTooltipAlloc@ioBasicTooltipManager@@U?$less@K@std@@V?$allocator@U?$pair@$$CBKUTooltipAlloc@ioBasicTooltipManager@@@std@@@4@$0A@@std@@@std@@SAAAU?$pair@$$CBKUTooltipAlloc@ioBasicTooltipManager@@@2@PAU_Node@?$_Tree_nod@V?$_Tmap_traits@KUTooltipAlloc@ioBasicTooltipManager@@U?$less@K@std@@V?$allocator@U?$pair@$$CBKUTooltipAlloc@ioBasicTooltipManager@@@std@@@4@$0A@@std@@@2@@Z ; std::_Tree_val<std::_Tmap_traits<unsigned long,ioBasicTooltipManager::TooltipAlloc,std::less<unsigned long>,std::allocator<std::pair<unsigned long const ,ioBasicTooltipManager::TooltipAlloc> >,0> >::_Myval
; Function compile flags: /Ogsp
;	COMDAT ?_Myval@?$_Tree_val@V?$_Tmap_traits@KUTooltipAlloc@ioBasicTooltipManager@@U?$less@K@std@@V?$allocator@U?$pair@$$CBKUTooltipAlloc@ioBasicTooltipManager@@@std@@@4@$0A@@std@@@std@@SAAAU?$pair@$$CBKUTooltipAlloc@ioBasicTooltipManager@@@2@PAU_Node@?$_Tree_nod@V?$_Tmap_traits@KUTooltipAlloc@ioBasicTooltipManager@@U?$less@K@std@@V?$allocator@U?$pair@$$CBKUTooltipAlloc@ioBasicTooltipManager@@@std@@@4@$0A@@std@@@2@@Z
_TEXT	SEGMENT
__Pnode$ = 8						; size = 4
?_Myval@?$_Tree_val@V?$_Tmap_traits@KUTooltipAlloc@ioBasicTooltipManager@@U?$less@K@std@@V?$allocator@U?$pair@$$CBKUTooltipAlloc@ioBasicTooltipManager@@@std@@@4@$0A@@std@@@std@@SAAAU?$pair@$$CBKUTooltipAlloc@ioBasicTooltipManager@@@2@PAU_Node@?$_Tree_nod@V?$_Tmap_traits@KUTooltipAlloc@ioBasicTooltipManager@@U?$less@K@std@@V?$allocator@U?$pair@$$CBKUTooltipAlloc@ioBasicTooltipManager@@@std@@@4@$0A@@std@@@2@@Z PROC ; std::_Tree_val<std::_Tmap_traits<unsigned long,ioBasicTooltipManager::TooltipAlloc,std::less<unsigned long>,std::allocator<std::pair<unsigned long const ,ioBasicTooltipManager::TooltipAlloc> >,0> >::_Myval, COMDAT

; 636  : 		{	// return reference to value in node

  00000	55		 push	 ebp
  00001	8b ec		 mov	 ebp, esp

; 637  : 		return ((reference)(*_Pnode)._Myval);

  00003	8b 45 08	 mov	 eax, DWORD PTR __Pnode$[ebp]
  00006	83 c0 0c	 add	 eax, 12			; 0000000cH

; 638  : 		}

  00009	5d		 pop	 ebp
  0000a	c3		 ret	 0
?_Myval@?$_Tree_val@V?$_Tmap_traits@KUTooltipAlloc@ioBasicTooltipManager@@U?$less@K@std@@V?$allocator@U?$pair@$$CBKUTooltipAlloc@ioBasicTooltipManager@@@std@@@4@$0A@@std@@@std@@SAAAU?$pair@$$CBKUTooltipAlloc@ioBasicTooltipManager@@@2@PAU_Node@?$_Tree_nod@V?$_Tmap_traits@KUTooltipAlloc@ioBasicTooltipManager@@U?$less@K@std@@V?$allocator@U?$pair@$$CBKUTooltipAlloc@ioBasicTooltipManager@@@std@@@4@$0A@@std@@@2@@Z ENDP ; std::_Tree_val<std::_Tmap_traits<unsigned long,ioBasicTooltipManager::TooltipAlloc,std::less<unsigned long>,std::allocator<std::pair<unsigned long const ,ioBasicTooltipManager::TooltipAlloc> >,0> >::_Myval
_TEXT	ENDS
PUBLIC	?_Min@?$_Tree_val@V?$_Tmap_traits@KUTooltipAlloc@ioBasicTooltipManager@@U?$less@K@std@@V?$allocator@U?$pair@$$CBKUTooltipAlloc@ioBasicTooltipManager@@@std@@@4@$0A@@std@@@std@@SAPAU_Node@?$_Tree_nod@V?$_Tmap_traits@KUTooltipAlloc@ioBasicTooltipManager@@U?$less@K@std@@V?$allocator@U?$pair@$$CBKUTooltipAlloc@ioBasicTooltipManager@@@std@@@4@$0A@@std@@@2@PAU342@@Z ; std::_Tree_val<std::_Tmap_traits<unsigned long,ioBasicTooltipManager::TooltipAlloc,std::less<unsigned long>,std::allocator<std::pair<unsigned long const ,ioBasicTooltipManager::TooltipAlloc> >,0> >::_Min
; Function compile flags: /Ogsp
;	COMDAT ?_Min@?$_Tree_val@V?$_Tmap_traits@KUTooltipAlloc@ioBasicTooltipManager@@U?$less@K@std@@V?$allocator@U?$pair@$$CBKUTooltipAlloc@ioBasicTooltipManager@@@std@@@4@$0A@@std@@@std@@SAPAU_Node@?$_Tree_nod@V?$_Tmap_traits@KUTooltipAlloc@ioBasicTooltipManager@@U?$less@K@std@@V?$allocator@U?$pair@$$CBKUTooltipAlloc@ioBasicTooltipManager@@@std@@@4@$0A@@std@@@2@PAU342@@Z
_TEXT	SEGMENT
__Pnode$ = 8						; size = 4
?_Min@?$_Tree_val@V?$_Tmap_traits@KUTooltipAlloc@ioBasicTooltipManager@@U?$less@K@std@@V?$allocator@U?$pair@$$CBKUTooltipAlloc@ioBasicTooltipManager@@@std@@@4@$0A@@std@@@std@@SAPAU_Node@?$_Tree_nod@V?$_Tmap_traits@KUTooltipAlloc@ioBasicTooltipManager@@U?$less@K@std@@V?$allocator@U?$pair@$$CBKUTooltipAlloc@ioBasicTooltipManager@@@std@@@4@$0A@@std@@@2@PAU342@@Z PROC ; std::_Tree_val<std::_Tmap_traits<unsigned long,ioBasicTooltipManager::TooltipAlloc,std::less<unsigned long>,std::allocator<std::pair<unsigned long const ,ioBasicTooltipManager::TooltipAlloc> >,0> >::_Min, COMDAT

; 648  : 		{	// return leftmost node in subtree at _Pnode

  00000	55		 push	 ebp
  00001	8b ec		 mov	 ebp, esp

; 649  : 		while (!_Isnil(_Left(_Pnode)))

  00003	8b 45 08	 mov	 eax, DWORD PTR __Pnode$[ebp]
  00006	eb 02		 jmp	 SHORT $LN14@Min
$LL2@Min:

; 650  : 			_Pnode = _Left(_Pnode);

  00008	8b c1		 mov	 eax, ecx
$LN14@Min:

; 649  : 		while (!_Isnil(_Left(_Pnode)))

  0000a	8b 08		 mov	 ecx, DWORD PTR [eax]
  0000c	80 79 31 00	 cmp	 BYTE PTR [ecx+49], 0
  00010	74 f6		 je	 SHORT $LL2@Min

; 651  : 		return (_Pnode);
; 652  : 		}

  00012	5d		 pop	 ebp
  00013	c3		 ret	 0
?_Min@?$_Tree_val@V?$_Tmap_traits@KUTooltipAlloc@ioBasicTooltipManager@@U?$less@K@std@@V?$allocator@U?$pair@$$CBKUTooltipAlloc@ioBasicTooltipManager@@@std@@@4@$0A@@std@@@std@@SAPAU_Node@?$_Tree_nod@V?$_Tmap_traits@KUTooltipAlloc@ioBasicTooltipManager@@U?$less@K@std@@V?$allocator@U?$pair@$$CBKUTooltipAlloc@ioBasicTooltipManager@@@std@@@4@$0A@@std@@@2@PAU342@@Z ENDP ; std::_Tree_val<std::_Tmap_traits<unsigned long,ioBasicTooltipManager::TooltipAlloc,std::less<unsigned long>,std::allocator<std::pair<unsigned long const ,ioBasicTooltipManager::TooltipAlloc> >,0> >::_Min
_TEXT	ENDS
PUBLIC	?max_size@?$allocator@UTooltipAlloc@ioBasicTooltipManager@@@std@@QBEIXZ ; std::allocator<ioBasicTooltipManager::TooltipAlloc>::max_size
; Function compile flags: /Ogsp
; File c:\program files (x86)\microsoft visual studio 10.0\vc\include\xmemory
;	COMDAT ?max_size@?$allocator@UTooltipAlloc@ioBasicTooltipManager@@@std@@QBEIXZ
_TEXT	SEGMENT
?max_size@?$allocator@UTooltipAlloc@ioBasicTooltipManager@@@std@@QBEIXZ PROC ; std::allocator<ioBasicTooltipManager::TooltipAlloc>::max_size, COMDAT
; _this$ = ecx

; 218  : 		_SIZT _Count = (_SIZT)(-1) / sizeof (_Ty);
; 219  : 		return (0 < _Count ? _Count : 1);

  00000	b8 ff ff ff 07	 mov	 eax, 134217727		; 07ffffffH

; 220  : 		}

  00005	c3		 ret	 0
?max_size@?$allocator@UTooltipAlloc@ioBasicTooltipManager@@@std@@QBEIXZ ENDP ; std::allocator<ioBasicTooltipManager::TooltipAlloc>::max_size
_TEXT	ENDS
PUBLIC	?_Rmost@?$_Tree@V?$_Tmap_traits@KUTooltipAlloc@ioBasicTooltipManager@@U?$less@K@std@@V?$allocator@U?$pair@$$CBKUTooltipAlloc@ioBasicTooltipManager@@@std@@@4@$0A@@std@@@std@@IBEAAPAU_Node@?$_Tree_nod@V?$_Tmap_traits@KUTooltipAlloc@ioBasicTooltipManager@@U?$less@K@std@@V?$allocator@U?$pair@$$CBKUTooltipAlloc@ioBasicTooltipManager@@@std@@@4@$0A@@std@@@2@XZ ; std::_Tree<std::_Tmap_traits<unsigned long,ioBasicTooltipManager::TooltipAlloc,std::less<unsigned long>,std::allocator<std::pair<unsigned long const ,ioBasicTooltipManager::TooltipAlloc> >,0> >::_Rmost
; Function compile flags: /Ogsp
; File c:\program files (x86)\microsoft visual studio 10.0\vc\include\xtree
;	COMDAT ?_Rmost@?$_Tree@V?$_Tmap_traits@KUTooltipAlloc@ioBasicTooltipManager@@U?$less@K@std@@V?$allocator@U?$pair@$$CBKUTooltipAlloc@ioBasicTooltipManager@@@std@@@4@$0A@@std@@@std@@IBEAAPAU_Node@?$_Tree_nod@V?$_Tmap_traits@KUTooltipAlloc@ioBasicTooltipManager@@U?$less@K@std@@V?$allocator@U?$pair@$$CBKUTooltipAlloc@ioBasicTooltipManager@@@std@@@4@$0A@@std@@@2@XZ
_TEXT	SEGMENT
?_Rmost@?$_Tree@V?$_Tmap_traits@KUTooltipAlloc@ioBasicTooltipManager@@U?$less@K@std@@V?$allocator@U?$pair@$$CBKUTooltipAlloc@ioBasicTooltipManager@@@std@@@4@$0A@@std@@@std@@IBEAAPAU_Node@?$_Tree_nod@V?$_Tmap_traits@KUTooltipAlloc@ioBasicTooltipManager@@U?$less@K@std@@V?$allocator@U?$pair@$$CBKUTooltipAlloc@ioBasicTooltipManager@@@std@@@4@$0A@@std@@@2@XZ PROC ; std::_Tree<std::_Tmap_traits<unsigned long,ioBasicTooltipManager::TooltipAlloc,std::less<unsigned long>,std::allocator<std::pair<unsigned long const ,ioBasicTooltipManager::TooltipAlloc> >,0> >::_Rmost, COMDAT
; _this$ = ecx

; 1784 : 		return (this->_Right(this->_Myhead));

  00000	8b 41 04	 mov	 eax, DWORD PTR [ecx+4]
  00003	83 c0 08	 add	 eax, 8

; 1785 : 		}

  00006	c3		 ret	 0
?_Rmost@?$_Tree@V?$_Tmap_traits@KUTooltipAlloc@ioBasicTooltipManager@@U?$less@K@std@@V?$allocator@U?$pair@$$CBKUTooltipAlloc@ioBasicTooltipManager@@@std@@@4@$0A@@std@@@std@@IBEAAPAU_Node@?$_Tree_nod@V?$_Tmap_traits@KUTooltipAlloc@ioBasicTooltipManager@@U?$less@K@std@@V?$allocator@U?$pair@$$CBKUTooltipAlloc@ioBasicTooltipManager@@@std@@@4@$0A@@std@@@2@XZ ENDP ; std::_Tree<std::_Tmap_traits<unsigned long,ioBasicTooltipManager::TooltipAlloc,std::less<unsigned long>,std::allocator<std::pair<unsigned long const ,ioBasicTooltipManager::TooltipAlloc> >,0> >::_Rmost
_TEXT	ENDS
PUBLIC	?_Root@?$_Tree@V?$_Tmap_traits@KUTooltipAlloc@ioBasicTooltipManager@@U?$less@K@std@@V?$allocator@U?$pair@$$CBKUTooltipAlloc@ioBasicTooltipManager@@@std@@@4@$0A@@std@@@std@@IBEAAPAU_Node@?$_Tree_nod@V?$_Tmap_traits@KUTooltipAlloc@ioBasicTooltipManager@@U?$less@K@std@@V?$allocator@U?$pair@$$CBKUTooltipAlloc@ioBasicTooltipManager@@@std@@@4@$0A@@std@@@2@XZ ; std::_Tree<std::_Tmap_traits<unsigned long,ioBasicTooltipManager::TooltipAlloc,std::less<unsigned long>,std::allocator<std::pair<unsigned long const ,ioBasicTooltipManager::TooltipAlloc> >,0> >::_Root
; Function compile flags: /Ogsp
;	COMDAT ?_Root@?$_Tree@V?$_Tmap_traits@KUTooltipAlloc@ioBasicTooltipManager@@U?$less@K@std@@V?$allocator@U?$pair@$$CBKUTooltipAlloc@ioBasicTooltipManager@@@std@@@4@$0A@@std@@@std@@IBEAAPAU_Node@?$_Tree_nod@V?$_Tmap_traits@KUTooltipAlloc@ioBasicTooltipManager@@U?$less@K@std@@V?$allocator@U?$pair@$$CBKUTooltipAlloc@ioBasicTooltipManager@@@std@@@4@$0A@@std@@@2@XZ
_TEXT	SEGMENT
?_Root@?$_Tree@V?$_Tmap_traits@KUTooltipAlloc@ioBasicTooltipManager@@U?$less@K@std@@V?$allocator@U?$pair@$$CBKUTooltipAlloc@ioBasicTooltipManager@@@std@@@4@$0A@@std@@@std@@IBEAAPAU_Node@?$_Tree_nod@V?$_Tmap_traits@KUTooltipAlloc@ioBasicTooltipManager@@U?$less@K@std@@V?$allocator@U?$pair@$$CBKUTooltipAlloc@ioBasicTooltipManager@@@std@@@4@$0A@@std@@@2@XZ PROC ; std::_Tree<std::_Tmap_traits<unsigned long,ioBasicTooltipManager::TooltipAlloc,std::less<unsigned long>,std::allocator<std::pair<unsigned long const ,ioBasicTooltipManager::TooltipAlloc> >,0> >::_Root, COMDAT
; _this$ = ecx

; 1789 : 		return (this->_Parent(this->_Myhead));

  00000	8b 41 04	 mov	 eax, DWORD PTR [ecx+4]
  00003	83 c0 04	 add	 eax, 4

; 1790 : 		}

  00006	c3		 ret	 0
?_Root@?$_Tree@V?$_Tmap_traits@KUTooltipAlloc@ioBasicTooltipManager@@U?$less@K@std@@V?$allocator@U?$pair@$$CBKUTooltipAlloc@ioBasicTooltipManager@@@std@@@4@$0A@@std@@@std@@IBEAAPAU_Node@?$_Tree_nod@V?$_Tmap_traits@KUTooltipAlloc@ioBasicTooltipManager@@U?$less@K@std@@V?$allocator@U?$pair@$$CBKUTooltipAlloc@ioBasicTooltipManager@@@std@@@4@$0A@@std@@@2@XZ ENDP ; std::_Tree<std::_Tmap_traits<unsigned long,ioBasicTooltipManager::TooltipAlloc,std::less<unsigned long>,std::allocator<std::pair<unsigned long const ,ioBasicTooltipManager::TooltipAlloc> >,0> >::_Root
_TEXT	ENDS
PUBLIC	?_Rrotate@?$_Tree@V?$_Tmap_traits@KUTooltipAlloc@ioBasicTooltipManager@@U?$less@K@std@@V?$allocator@U?$pair@$$CBKUTooltipAlloc@ioBasicTooltipManager@@@std@@@4@$0A@@std@@@std@@IAEXPAU_Node@?$_Tree_nod@V?$_Tmap_traits@KUTooltipAlloc@ioBasicTooltipManager@@U?$less@K@std@@V?$allocator@U?$pair@$$CBKUTooltipAlloc@ioBasicTooltipManager@@@std@@@4@$0A@@std@@@2@@Z ; std::_Tree<std::_Tmap_traits<unsigned long,ioBasicTooltipManager::TooltipAlloc,std::less<unsigned long>,std::allocator<std::pair<unsigned long const ,ioBasicTooltipManager::TooltipAlloc> >,0> >::_Rrotate
; Function compile flags: /Ogsp
;	COMDAT ?_Rrotate@?$_Tree@V?$_Tmap_traits@KUTooltipAlloc@ioBasicTooltipManager@@U?$less@K@std@@V?$allocator@U?$pair@$$CBKUTooltipAlloc@ioBasicTooltipManager@@@std@@@4@$0A@@std@@@std@@IAEXPAU_Node@?$_Tree_nod@V?$_Tmap_traits@KUTooltipAlloc@ioBasicTooltipManager@@U?$less@K@std@@V?$allocator@U?$pair@$$CBKUTooltipAlloc@ioBasicTooltipManager@@@std@@@4@$0A@@std@@@2@@Z
_TEXT	SEGMENT
__Wherenode$ = 8					; size = 4
?_Rrotate@?$_Tree@V?$_Tmap_traits@KUTooltipAlloc@ioBasicTooltipManager@@U?$less@K@std@@V?$allocator@U?$pair@$$CBKUTooltipAlloc@ioBasicTooltipManager@@@std@@@4@$0A@@std@@@std@@IAEXPAU_Node@?$_Tree_nod@V?$_Tmap_traits@KUTooltipAlloc@ioBasicTooltipManager@@U?$less@K@std@@V?$allocator@U?$pair@$$CBKUTooltipAlloc@ioBasicTooltipManager@@@std@@@4@$0A@@std@@@2@@Z PROC ; std::_Tree<std::_Tmap_traits<unsigned long,ioBasicTooltipManager::TooltipAlloc,std::less<unsigned long>,std::allocator<std::pair<unsigned long const ,ioBasicTooltipManager::TooltipAlloc> >,0> >::_Rrotate, COMDAT
; _this$ = ecx

; 1793 : 		{	// promote left node to root of subtree

  00000	55		 push	 ebp
  00001	8b ec		 mov	 ebp, esp

; 1794 : 		_Nodeptr _Pnode = this->_Left(_Wherenode);

  00003	8b 55 08	 mov	 edx, DWORD PTR __Wherenode$[ebp]
  00006	8b 02		 mov	 eax, DWORD PTR [edx]
  00008	56		 push	 esi

; 1795 : 		this->_Left(_Wherenode) = this->_Right(_Pnode);

  00009	8b 70 08	 mov	 esi, DWORD PTR [eax+8]
  0000c	89 32		 mov	 DWORD PTR [edx], esi

; 1796 : 
; 1797 : 		if (!this->_Isnil(this->_Right(_Pnode)))

  0000e	8b 70 08	 mov	 esi, DWORD PTR [eax+8]
  00011	80 7e 31 00	 cmp	 BYTE PTR [esi+49], 0
  00015	75 03		 jne	 SHORT $LN5@Rrotate

; 1798 : 			this->_Parent(this->_Right(_Pnode)) = _Wherenode;

  00017	89 56 04	 mov	 DWORD PTR [esi+4], edx
$LN5@Rrotate:

; 1799 : 		this->_Parent(_Pnode) = this->_Parent(_Wherenode);

  0001a	8b 72 04	 mov	 esi, DWORD PTR [edx+4]
  0001d	89 70 04	 mov	 DWORD PTR [eax+4], esi

; 1800 : 
; 1801 : 		if (_Wherenode == _Root())

  00020	8b 49 04	 mov	 ecx, DWORD PTR [ecx+4]
  00023	5e		 pop	 esi
  00024	3b 51 04	 cmp	 edx, DWORD PTR [ecx+4]
  00027	75 05		 jne	 SHORT $LN4@Rrotate

; 1802 : 			_Root() = _Pnode;

  00029	89 41 04	 mov	 DWORD PTR [ecx+4], eax

; 1803 : 		else if (_Wherenode == this->_Right(this->_Parent(_Wherenode)))

  0002c	eb 0f		 jmp	 SHORT $LN1@Rrotate
$LN4@Rrotate:
  0002e	8b 4a 04	 mov	 ecx, DWORD PTR [edx+4]
  00031	3b 51 08	 cmp	 edx, DWORD PTR [ecx+8]
  00034	75 05		 jne	 SHORT $LN2@Rrotate

; 1804 : 			this->_Right(this->_Parent(_Wherenode)) = _Pnode;

  00036	89 41 08	 mov	 DWORD PTR [ecx+8], eax

; 1805 : 		else

  00039	eb 02		 jmp	 SHORT $LN1@Rrotate
$LN2@Rrotate:

; 1806 : 			this->_Left(this->_Parent(_Wherenode)) = _Pnode;

  0003b	89 01		 mov	 DWORD PTR [ecx], eax
$LN1@Rrotate:

; 1807 : 
; 1808 : 		this->_Right(_Pnode) = _Wherenode;

  0003d	89 50 08	 mov	 DWORD PTR [eax+8], edx

; 1809 : 		this->_Parent(_Wherenode) = _Pnode;

  00040	89 42 04	 mov	 DWORD PTR [edx+4], eax

; 1810 : 		}

  00043	5d		 pop	 ebp
  00044	c2 04 00	 ret	 4
?_Rrotate@?$_Tree@V?$_Tmap_traits@KUTooltipAlloc@ioBasicTooltipManager@@U?$less@K@std@@V?$allocator@U?$pair@$$CBKUTooltipAlloc@ioBasicTooltipManager@@@std@@@4@$0A@@std@@@std@@IAEXPAU_Node@?$_Tree_nod@V?$_Tmap_traits@KUTooltipAlloc@ioBasicTooltipManager@@U?$less@K@std@@V?$allocator@U?$pair@$$CBKUTooltipAlloc@ioBasicTooltipManager@@@std@@@4@$0A@@std@@@2@@Z ENDP ; std::_Tree<std::_Tmap_traits<unsigned long,ioBasicTooltipManager::TooltipAlloc,std::less<unsigned long>,std::allocator<std::pair<unsigned long const ,ioBasicTooltipManager::TooltipAlloc> >,0> >::_Rrotate
_TEXT	ENDS
PUBLIC	?_Max@?$_Tree_val@V?$_Tmap_traits@KUTooltipAlloc@ioBasicTooltipManager@@U?$less@K@std@@V?$allocator@U?$pair@$$CBKUTooltipAlloc@ioBasicTooltipManager@@@std@@@4@$0A@@std@@@std@@SAPAU_Node@?$_Tree_nod@V?$_Tmap_traits@KUTooltipAlloc@ioBasicTooltipManager@@U?$less@K@std@@V?$allocator@U?$pair@$$CBKUTooltipAlloc@ioBasicTooltipManager@@@std@@@4@$0A@@std@@@2@PAU342@@Z ; std::_Tree_val<std::_Tmap_traits<unsigned long,ioBasicTooltipManager::TooltipAlloc,std::less<unsigned long>,std::allocator<std::pair<unsigned long const ,ioBasicTooltipManager::TooltipAlloc> >,0> >::_Max
; Function compile flags: /Ogsp
;	COMDAT ?_Max@?$_Tree_val@V?$_Tmap_traits@KUTooltipAlloc@ioBasicTooltipManager@@U?$less@K@std@@V?$allocator@U?$pair@$$CBKUTooltipAlloc@ioBasicTooltipManager@@@std@@@4@$0A@@std@@@std@@SAPAU_Node@?$_Tree_nod@V?$_Tmap_traits@KUTooltipAlloc@ioBasicTooltipManager@@U?$less@K@std@@V?$allocator@U?$pair@$$CBKUTooltipAlloc@ioBasicTooltipManager@@@std@@@4@$0A@@std@@@2@PAU342@@Z
_TEXT	SEGMENT
__Pnode$ = 8						; size = 4
?_Max@?$_Tree_val@V?$_Tmap_traits@KUTooltipAlloc@ioBasicTooltipManager@@U?$less@K@std@@V?$allocator@U?$pair@$$CBKUTooltipAlloc@ioBasicTooltipManager@@@std@@@4@$0A@@std@@@std@@SAPAU_Node@?$_Tree_nod@V?$_Tmap_traits@KUTooltipAlloc@ioBasicTooltipManager@@U?$less@K@std@@V?$allocator@U?$pair@$$CBKUTooltipAlloc@ioBasicTooltipManager@@@std@@@4@$0A@@std@@@2@PAU342@@Z PROC ; std::_Tree_val<std::_Tmap_traits<unsigned long,ioBasicTooltipManager::TooltipAlloc,std::less<unsigned long>,std::allocator<std::pair<unsigned long const ,ioBasicTooltipManager::TooltipAlloc> >,0> >::_Max, COMDAT

; 641  : 		{	// return rightmost node in subtree at _Pnode

  00000	55		 push	 ebp
  00001	8b ec		 mov	 ebp, esp

; 642  : 		while (!_Isnil(_Right(_Pnode)))

  00003	8b 45 08	 mov	 eax, DWORD PTR __Pnode$[ebp]
  00006	eb 02		 jmp	 SHORT $LN14@Max
$LL2@Max:

; 643  : 			_Pnode = _Right(_Pnode);

  00008	8b c1		 mov	 eax, ecx
$LN14@Max:

; 642  : 		while (!_Isnil(_Right(_Pnode)))

  0000a	8b 48 08	 mov	 ecx, DWORD PTR [eax+8]
  0000d	80 79 31 00	 cmp	 BYTE PTR [ecx+49], 0
  00011	74 f5		 je	 SHORT $LL2@Max

; 644  : 		return (_Pnode);
; 645  : 		}

  00013	5d		 pop	 ebp
  00014	c3		 ret	 0
?_Max@?$_Tree_val@V?$_Tmap_traits@KUTooltipAlloc@ioBasicTooltipManager@@U?$less@K@std@@V?$allocator@U?$pair@$$CBKUTooltipAlloc@ioBasicTooltipManager@@@std@@@4@$0A@@std@@@std@@SAPAU_Node@?$_Tree_nod@V?$_Tmap_traits@KUTooltipAlloc@ioBasicTooltipManager@@U?$less@K@std@@V?$allocator@U?$pair@$$CBKUTooltipAlloc@ioBasicTooltipManager@@@std@@@4@$0A@@std@@@2@PAU342@@Z ENDP ; std::_Tree_val<std::_Tmap_traits<unsigned long,ioBasicTooltipManager::TooltipAlloc,std::less<unsigned long>,std::allocator<std::pair<unsigned long const ,ioBasicTooltipManager::TooltipAlloc> >,0> >::_Max
_TEXT	ENDS
PUBLIC	??0?$_Tmap_traits@KUTooltipAlloc@ioBasicTooltipManager@@U?$less@K@std@@V?$allocator@U?$pair@$$CBKUTooltipAlloc@ioBasicTooltipManager@@@std@@@4@$0A@@std@@QAE@U?$less@K@1@@Z ; std::_Tmap_traits<unsigned long,ioBasicTooltipManager::TooltipAlloc,std::less<unsigned long>,std::allocator<std::pair<unsigned long const ,ioBasicTooltipManager::TooltipAlloc> >,0>::_Tmap_traits<unsigned long,ioBasicTooltipManager::TooltipAlloc,std::less<unsigned long>,std::allocator<std::pair<unsigned long const ,ioBasicTooltipManager::TooltipAlloc> >,0>
; Function compile flags: /Ogsp
; File c:\program files (x86)\microsoft visual studio 10.0\vc\include\map
;	COMDAT ??0?$_Tmap_traits@KUTooltipAlloc@ioBasicTooltipManager@@U?$less@K@std@@V?$allocator@U?$pair@$$CBKUTooltipAlloc@ioBasicTooltipManager@@@std@@@4@$0A@@std@@QAE@U?$less@K@1@@Z
_TEXT	SEGMENT
__Parg$ = 8						; size = 1
??0?$_Tmap_traits@KUTooltipAlloc@ioBasicTooltipManager@@U?$less@K@std@@V?$allocator@U?$pair@$$CBKUTooltipAlloc@ioBasicTooltipManager@@@std@@@4@$0A@@std@@QAE@U?$less@K@1@@Z PROC ; std::_Tmap_traits<unsigned long,ioBasicTooltipManager::TooltipAlloc,std::less<unsigned long>,std::allocator<std::pair<unsigned long const ,ioBasicTooltipManager::TooltipAlloc> >,0>::_Tmap_traits<unsigned long,ioBasicTooltipManager::TooltipAlloc,std::less<unsigned long>,std::allocator<std::pair<unsigned long const ,ioBasicTooltipManager::TooltipAlloc> >,0>, COMDAT
; _this$ = ecx

; 40   : 		{	// construct with specified comparator

  00000	8b c1		 mov	 eax, ecx

; 41   : 		}

  00002	c2 04 00	 ret	 4
??0?$_Tmap_traits@KUTooltipAlloc@ioBasicTooltipManager@@U?$less@K@std@@V?$allocator@U?$pair@$$CBKUTooltipAlloc@ioBasicTooltipManager@@@std@@@4@$0A@@std@@QAE@U?$less@K@1@@Z ENDP ; std::_Tmap_traits<unsigned long,ioBasicTooltipManager::TooltipAlloc,std::less<unsigned long>,std::allocator<std::pair<unsigned long const ,ioBasicTooltipManager::TooltipAlloc> >,0>::_Tmap_traits<unsigned long,ioBasicTooltipManager::TooltipAlloc,std::less<unsigned long>,std::allocator<std::pair<unsigned long const ,ioBasicTooltipManager::TooltipAlloc> >,0>
_TEXT	ENDS
PUBLIC	?_Mynode@?$_Tree_unchecked_const_iterator@V?$_Tree_val@V?$_Tmap_traits@KUTooltipAlloc@ioBasicTooltipManager@@U?$less@K@std@@V?$allocator@U?$pair@$$CBKUTooltipAlloc@ioBasicTooltipManager@@@std@@@4@$0A@@std@@@std@@U_Iterator_base0@2@@std@@QBEPAU_Node@?$_Tree_nod@V?$_Tmap_traits@KUTooltipAlloc@ioBasicTooltipManager@@U?$less@K@std@@V?$allocator@U?$pair@$$CBKUTooltipAlloc@ioBasicTooltipManager@@@std@@@4@$0A@@std@@@2@XZ ; std::_Tree_unchecked_const_iterator<std::_Tree_val<std::_Tmap_traits<unsigned long,ioBasicTooltipManager::TooltipAlloc,std::less<unsigned long>,std::allocator<std::pair<unsigned long const ,ioBasicTooltipManager::TooltipAlloc> >,0> >,std::_Iterator_base0>::_Mynode
; Function compile flags: /Ogsp
; File c:\program files (x86)\microsoft visual studio 10.0\vc\include\xtree
;	COMDAT ?_Mynode@?$_Tree_unchecked_const_iterator@V?$_Tree_val@V?$_Tmap_traits@KUTooltipAlloc@ioBasicTooltipManager@@U?$less@K@std@@V?$allocator@U?$pair@$$CBKUTooltipAlloc@ioBasicTooltipManager@@@std@@@4@$0A@@std@@@std@@U_Iterator_base0@2@@std@@QBEPAU_Node@?$_Tree_nod@V?$_Tmap_traits@KUTooltipAlloc@ioBasicTooltipManager@@U?$less@K@std@@V?$allocator@U?$pair@$$CBKUTooltipAlloc@ioBasicTooltipManager@@@std@@@4@$0A@@std@@@2@XZ
_TEXT	SEGMENT
?_Mynode@?$_Tree_unchecked_const_iterator@V?$_Tree_val@V?$_Tmap_traits@KUTooltipAlloc@ioBasicTooltipManager@@U?$less@K@std@@V?$allocator@U?$pair@$$CBKUTooltipAlloc@ioBasicTooltipManager@@@std@@@4@$0A@@std@@@std@@U_Iterator_base0@2@@std@@QBEPAU_Node@?$_Tree_nod@V?$_Tmap_traits@KUTooltipAlloc@ioBasicTooltipManager@@U?$less@K@std@@V?$allocator@U?$pair@$$CBKUTooltipAlloc@ioBasicTooltipManager@@@std@@@4@$0A@@std@@@2@XZ PROC ; std::_Tree_unchecked_const_iterator<std::_Tree_val<std::_Tmap_traits<unsigned long,ioBasicTooltipManager::TooltipAlloc,std::less<unsigned long>,std::allocator<std::pair<unsigned long const ,ioBasicTooltipManager::TooltipAlloc> >,0> >,std::_Iterator_base0>::_Mynode, COMDAT
; _this$ = ecx

; 122  : 		return (_Ptr);

  00000	8b 01		 mov	 eax, DWORD PTR [ecx]

; 123  : 		}

  00002	c3		 ret	 0
?_Mynode@?$_Tree_unchecked_const_iterator@V?$_Tree_val@V?$_Tmap_traits@KUTooltipAlloc@ioBasicTooltipManager@@U?$less@K@std@@V?$allocator@U?$pair@$$CBKUTooltipAlloc@ioBasicTooltipManager@@@std@@@4@$0A@@std@@@std@@U_Iterator_base0@2@@std@@QBEPAU_Node@?$_Tree_nod@V?$_Tmap_traits@KUTooltipAlloc@ioBasicTooltipManager@@U?$less@K@std@@V?$allocator@U?$pair@$$CBKUTooltipAlloc@ioBasicTooltipManager@@@std@@@4@$0A@@std@@@2@XZ ENDP ; std::_Tree_unchecked_const_iterator<std::_Tree_val<std::_Tmap_traits<unsigned long,ioBasicTooltipManager::TooltipAlloc,std::less<unsigned long>,std::allocator<std::pair<unsigned long const ,ioBasicTooltipManager::TooltipAlloc> >,0> >,std::_Iterator_base0>::_Mynode
_TEXT	ENDS
PUBLIC	??$sprintf_s@$0BAE@@@YAHAAY0BAE@DPBDZZ		; sprintf_s<260>
EXTRN	__imp__vsprintf_s:PROC
; Function compile flags: /Ogsp
; File c:\program files (x86)\microsoft visual studio 10.0\vc\include\stdio.h
;	COMDAT ??$sprintf_s@$0BAE@@@YAHAAY0BAE@DPBDZZ
_TEXT	SEGMENT
__Dest$ = 8						; size = 4
__Format$ = 12						; size = 4
??$sprintf_s@$0BAE@@@YAHAAY0BAE@DPBDZZ PROC		; sprintf_s<260>, COMDAT

; 323  : __DEFINE_CPP_OVERLOAD_SECURE_FUNC_0_1_ARGLIST(int, sprintf_s, vsprintf_s, _Deref_post_z_ char, _Dest, _In_z_ _Printf_format_string_ const char *, _Format)

  00000	55		 push	 ebp
  00001	8b ec		 mov	 ebp, esp
  00003	8d 45 10	 lea	 eax, DWORD PTR __Format$[ebp+4]
  00006	50		 push	 eax
  00007	ff 75 0c	 push	 DWORD PTR __Format$[ebp]
  0000a	68 04 01 00 00	 push	 260			; 00000104H
  0000f	ff 75 08	 push	 DWORD PTR __Dest$[ebp]
  00012	ff 15 00 00 00
	00		 call	 DWORD PTR __imp__vsprintf_s
  00018	83 c4 10	 add	 esp, 16			; 00000010H
  0001b	5d		 pop	 ebp
  0001c	c3		 ret	 0
??$sprintf_s@$0BAE@@@YAHAAY0BAE@DPBDZZ ENDP		; sprintf_s<260>
_TEXT	ENDS
PUBLIC	??$addressof@$$CBUTooltipAlloc@ioBasicTooltipManager@@@std@@YAPBUTooltipAlloc@ioBasicTooltipManager@@ABU12@@Z ; std::addressof<ioBasicTooltipManager::TooltipAlloc const >
; Function compile flags: /Ogsp
; File c:\program files (x86)\microsoft visual studio 10.0\vc\include\xmemory
;	COMDAT ??$addressof@$$CBUTooltipAlloc@ioBasicTooltipManager@@@std@@YAPBUTooltipAlloc@ioBasicTooltipManager@@ABU12@@Z
_TEXT	SEGMENT
__Val$ = 8						; size = 4
??$addressof@$$CBUTooltipAlloc@ioBasicTooltipManager@@@std@@YAPBUTooltipAlloc@ioBasicTooltipManager@@ABU12@@Z PROC ; std::addressof<ioBasicTooltipManager::TooltipAlloc const >, COMDAT

; 110  : 	{	// return address of _Val

  00000	55		 push	 ebp
  00001	8b ec		 mov	 ebp, esp

; 111  : 	return ((_Ty *) &(char&)_Val);

  00003	8b 45 08	 mov	 eax, DWORD PTR __Val$[ebp]

; 112  : 	}

  00006	5d		 pop	 ebp
  00007	c3		 ret	 0
??$addressof@$$CBUTooltipAlloc@ioBasicTooltipManager@@@std@@YAPBUTooltipAlloc@ioBasicTooltipManager@@ABU12@@Z ENDP ; std::addressof<ioBasicTooltipManager::TooltipAlloc const >
_TEXT	ENDS
PUBLIC	?_Adopt@_Iterator_base0@std@@QAEXPBX@Z		; std::_Iterator_base0::_Adopt
; Function compile flags: /Ogsp
; File c:\program files (x86)\microsoft visual studio 10.0\vc\include\xutility
;	COMDAT ?_Adopt@_Iterator_base0@std@@QAEXPBX@Z
_TEXT	SEGMENT
___formal$ = 8						; size = 4
?_Adopt@_Iterator_base0@std@@QAEXPBX@Z PROC		; std::_Iterator_base0::_Adopt, COMDAT
; _this$ = ecx

; 49   : 		}

  00000	c2 04 00	 ret	 4
?_Adopt@_Iterator_base0@std@@QAEXPBX@Z ENDP		; std::_Iterator_base0::_Adopt
_TEXT	ENDS
PUBLIC	??$addressof@U?$pair@$$CBKUTooltipAlloc@ioBasicTooltipManager@@@std@@@std@@YAPAU?$pair@$$CBKUTooltipAlloc@ioBasicTooltipManager@@@0@AAU10@@Z ; std::addressof<std::pair<unsigned long const ,ioBasicTooltipManager::TooltipAlloc> >
; Function compile flags: /Ogsp
; File c:\program files (x86)\microsoft visual studio 10.0\vc\include\xmemory
;	COMDAT ??$addressof@U?$pair@$$CBKUTooltipAlloc@ioBasicTooltipManager@@@std@@@std@@YAPAU?$pair@$$CBKUTooltipAlloc@ioBasicTooltipManager@@@0@AAU10@@Z
_TEXT	SEGMENT
__Val$ = 8						; size = 4
??$addressof@U?$pair@$$CBKUTooltipAlloc@ioBasicTooltipManager@@@std@@@std@@YAPAU?$pair@$$CBKUTooltipAlloc@ioBasicTooltipManager@@@0@AAU10@@Z PROC ; std::addressof<std::pair<unsigned long const ,ioBasicTooltipManager::TooltipAlloc> >, COMDAT

; 110  : 	{	// return address of _Val

  00000	55		 push	 ebp
  00001	8b ec		 mov	 ebp, esp

; 111  : 	return ((_Ty *) &(char&)_Val);

  00003	8b 45 08	 mov	 eax, DWORD PTR __Val$[ebp]

; 112  : 	}

  00006	5d		 pop	 ebp
  00007	c3		 ret	 0
??$addressof@U?$pair@$$CBKUTooltipAlloc@ioBasicTooltipManager@@@std@@@std@@YAPAU?$pair@$$CBKUTooltipAlloc@ioBasicTooltipManager@@@0@AAU10@@Z ENDP ; std::addressof<std::pair<unsigned long const ,ioBasicTooltipManager::TooltipAlloc> >
_TEXT	ENDS
PUBLIC	??$?0U?$pair@$$CBKUTooltipAlloc@ioBasicTooltipManager@@@std@@@?$allocator@U_Node@?$_Tree_nod@V?$_Tmap_traits@KUTooltipAlloc@ioBasicTooltipManager@@U?$less@K@std@@V?$allocator@U?$pair@$$CBKUTooltipAlloc@ioBasicTooltipManager@@@std@@@4@$0A@@std@@@std@@@std@@QAE@ABV?$allocator@U?$pair@$$CBKUTooltipAlloc@ioBasicTooltipManager@@@std@@@1@@Z ; std::allocator<std::_Tree_nod<std::_Tmap_traits<unsigned long,ioBasicTooltipManager::TooltipAlloc,std::less<unsigned long>,std::allocator<std::pair<unsigned long const ,ioBasicTooltipManager::TooltipAlloc> >,0> >::_Node>::allocator<std::_Tree_nod<std::_Tmap_traits<unsigned long,ioBasicTooltipManager::TooltipAlloc,std::less<unsigned long>,std::allocator<std::pair<unsigned long const ,ioBasicTooltipManager::TooltipAlloc> >,0> >::_Node><std::pair<unsigned long const ,ioBasicTooltipManager::TooltipAlloc> >
; Function compile flags: /Ogsp
;	COMDAT ??$?0U?$pair@$$CBKUTooltipAlloc@ioBasicTooltipManager@@@std@@@?$allocator@U_Node@?$_Tree_nod@V?$_Tmap_traits@KUTooltipAlloc@ioBasicTooltipManager@@U?$less@K@std@@V?$allocator@U?$pair@$$CBKUTooltipAlloc@ioBasicTooltipManager@@@std@@@4@$0A@@std@@@std@@@std@@QAE@ABV?$allocator@U?$pair@$$CBKUTooltipAlloc@ioBasicTooltipManager@@@std@@@1@@Z
_TEXT	SEGMENT
___formal$ = 8						; size = 4
??$?0U?$pair@$$CBKUTooltipAlloc@ioBasicTooltipManager@@@std@@@?$allocator@U_Node@?$_Tree_nod@V?$_Tmap_traits@KUTooltipAlloc@ioBasicTooltipManager@@U?$less@K@std@@V?$allocator@U?$pair@$$CBKUTooltipAlloc@ioBasicTooltipManager@@@std@@@4@$0A@@std@@@std@@@std@@QAE@ABV?$allocator@U?$pair@$$CBKUTooltipAlloc@ioBasicTooltipManager@@@std@@@1@@Z PROC ; std::allocator<std::_Tree_nod<std::_Tmap_traits<unsigned long,ioBasicTooltipManager::TooltipAlloc,std::less<unsigned long>,std::allocator<std::pair<unsigned long const ,ioBasicTooltipManager::TooltipAlloc> >,0> >::_Node>::allocator<std::_Tree_nod<std::_Tmap_traits<unsigned long,ioBasicTooltipManager::TooltipAlloc,std::less<unsigned long>,std::allocator<std::pair<unsigned long const ,ioBasicTooltipManager::TooltipAlloc> >,0> >::_Node><std::pair<unsigned long const ,ioBasicTooltipManager::TooltipAlloc> >, COMDAT
; _this$ = ecx

; 170  : 		_ALLOCATOR(const _ALLOCATOR<_Other>&) _THROW0()

  00000	8b c1		 mov	 eax, ecx

; 171  : 		{	// construct from a related allocator (do nothing)
; 172  : 		}

  00002	c2 04 00	 ret	 4
??$?0U?$pair@$$CBKUTooltipAlloc@ioBasicTooltipManager@@@std@@@?$allocator@U_Node@?$_Tree_nod@V?$_Tmap_traits@KUTooltipAlloc@ioBasicTooltipManager@@U?$less@K@std@@V?$allocator@U?$pair@$$CBKUTooltipAlloc@ioBasicTooltipManager@@@std@@@4@$0A@@std@@@std@@@std@@QAE@ABV?$allocator@U?$pair@$$CBKUTooltipAlloc@ioBasicTooltipManager@@@std@@@1@@Z ENDP ; std::allocator<std::_Tree_nod<std::_Tmap_traits<unsigned long,ioBasicTooltipManager::TooltipAlloc,std::less<unsigned long>,std::allocator<std::pair<unsigned long const ,ioBasicTooltipManager::TooltipAlloc> >,0> >::_Node>::allocator<std::_Tree_nod<std::_Tmap_traits<unsigned long,ioBasicTooltipManager::TooltipAlloc,std::less<unsigned long>,std::allocator<std::pair<unsigned long const ,ioBasicTooltipManager::TooltipAlloc> >,0> >::_Node><std::pair<unsigned long const ,ioBasicTooltipManager::TooltipAlloc> >
_TEXT	ENDS
PUBLIC	__TI2?AVbad_alloc@std@@
PUBLIC	??$_Allocate@U_Node@?$_Tree_nod@V?$_Tmap_traits@KUTooltipAlloc@ioBasicTooltipManager@@U?$less@K@std@@V?$allocator@U?$pair@$$CBKUTooltipAlloc@ioBasicTooltipManager@@@std@@@4@$0A@@std@@@std@@@std@@YAPAU_Node@?$_Tree_nod@V?$_Tmap_traits@KUTooltipAlloc@ioBasicTooltipManager@@U?$less@K@std@@V?$allocator@U?$pair@$$CBKUTooltipAlloc@ioBasicTooltipManager@@@std@@@4@$0A@@std@@@0@IPAU120@@Z ; std::_Allocate<std::_Tree_nod<std::_Tmap_traits<unsigned long,ioBasicTooltipManager::TooltipAlloc,std::less<unsigned long>,std::allocator<std::pair<unsigned long const ,ioBasicTooltipManager::TooltipAlloc> >,0> >::_Node>
PUBLIC	__CTA2?AVbad_alloc@std@@
PUBLIC	__CT??_R0?AVbad_alloc@std@@@8??0bad_alloc@std@@QAE@ABV01@@Z12
PUBLIC	??0bad_alloc@std@@QAE@ABV01@@Z			; std::bad_alloc::bad_alloc
PUBLIC	__CT??_R0?AVexception@std@@@8??0exception@std@@QAE@ABV01@@Z12
EXTRN	??2@YAPAXI@Z:PROC				; operator new
EXTRN	__CxxThrowException@8:PROC
EXTRN	??0exception@std@@QAE@ABV01@@Z:PROC		; std::exception::exception
;	COMDAT __CT??_R0?AVexception@std@@@8??0exception@std@@QAE@ABV01@@Z12
; File c:\program files (x86)\microsoft visual studio 10.0\vc\include\exception
xdata$x	SEGMENT
__CT??_R0?AVexception@std@@@8??0exception@std@@QAE@ABV01@@Z12 DD 00H
	DD	FLAT:??_R0?AVexception@std@@@8
	DD	00H
	DD	0ffffffffH
	ORG $+4
	DD	0cH
	DD	FLAT:??0exception@std@@QAE@ABV01@@Z
xdata$x	ENDS
;	COMDAT __CT??_R0?AVbad_alloc@std@@@8??0bad_alloc@std@@QAE@ABV01@@Z12
xdata$x	SEGMENT
__CT??_R0?AVbad_alloc@std@@@8??0bad_alloc@std@@QAE@ABV01@@Z12 DD 00H
	DD	FLAT:??_R0?AVbad_alloc@std@@@8
	DD	00H
	DD	0ffffffffH
	ORG $+4
	DD	0cH
	DD	FLAT:??0bad_alloc@std@@QAE@ABV01@@Z
xdata$x	ENDS
;	COMDAT __CTA2?AVbad_alloc@std@@
xdata$x	SEGMENT
__CTA2?AVbad_alloc@std@@ DD 02H
	DD	FLAT:__CT??_R0?AVbad_alloc@std@@@8??0bad_alloc@std@@QAE@ABV01@@Z12
	DD	FLAT:__CT??_R0?AVexception@std@@@8??0exception@std@@QAE@ABV01@@Z12
xdata$x	ENDS
;	COMDAT __TI2?AVbad_alloc@std@@
xdata$x	SEGMENT
__TI2?AVbad_alloc@std@@ DD 00H
	DD	FLAT:??1bad_alloc@std@@UAE@XZ
	DD	00H
	DD	FLAT:__CTA2?AVbad_alloc@std@@
; Function compile flags: /Ogsp
; File c:\program files (x86)\microsoft visual studio 10.0\vc\include\xmemory
xdata$x	ENDS
;	COMDAT ??$_Allocate@U_Node@?$_Tree_nod@V?$_Tmap_traits@KUTooltipAlloc@ioBasicTooltipManager@@U?$less@K@std@@V?$allocator@U?$pair@$$CBKUTooltipAlloc@ioBasicTooltipManager@@@std@@@4@$0A@@std@@@std@@@std@@YAPAU_Node@?$_Tree_nod@V?$_Tmap_traits@KUTooltipAlloc@ioBasicTooltipManager@@U?$less@K@std@@V?$allocator@U?$pair@$$CBKUTooltipAlloc@ioBasicTooltipManager@@@std@@@4@$0A@@std@@@0@IPAU120@@Z
_TEXT	SEGMENT
$T508894 = -12						; size = 12
$T508899 = 8						; size = 4
__Count$ = 8						; size = 4
___formal$ = 12						; size = 4
??$_Allocate@U_Node@?$_Tree_nod@V?$_Tmap_traits@KUTooltipAlloc@ioBasicTooltipManager@@U?$less@K@std@@V?$allocator@U?$pair@$$CBKUTooltipAlloc@ioBasicTooltipManager@@@std@@@4@$0A@@std@@@std@@@std@@YAPAU_Node@?$_Tree_nod@V?$_Tmap_traits@KUTooltipAlloc@ioBasicTooltipManager@@U?$less@K@std@@V?$allocator@U?$pair@$$CBKUTooltipAlloc@ioBasicTooltipManager@@@std@@@4@$0A@@std@@@0@IPAU120@@Z PROC ; std::_Allocate<std::_Tree_nod<std::_Tmap_traits<unsigned long,ioBasicTooltipManager::TooltipAlloc,std::less<unsigned long>,std::allocator<std::pair<unsigned long const ,ioBasicTooltipManager::TooltipAlloc> >,0> >::_Node>, COMDAT

; 30   : 	{	// allocate storage for _Count elements of type _Ty

  00000	55		 push	 ebp
  00001	8b ec		 mov	 ebp, esp

; 31   : 	void *_Ptr = 0;
; 32   : 
; 33   : 	if (_Count <= 0)

  00003	8b 4d 08	 mov	 ecx, DWORD PTR __Count$[ebp]
  00006	83 ec 0c	 sub	 esp, 12			; 0000000cH
  00009	33 c0		 xor	 eax, eax
  0000b	85 c9		 test	 ecx, ecx

; 34   : 		_Count = 0;
; 35   : 	else if (((_SIZT)(-1) / sizeof (_Ty) < _Count)

  0000d	74 3c		 je	 SHORT $LN5@Allocate

; 36   : 		|| (_Ptr = ::operator new(_Count * sizeof (_Ty))) == 0)

  0000f	81 f9 c4 4e ec
	04		 cmp	 ecx, 82595524		; 04ec4ec4H
  00015	77 0e		 ja	 SHORT $LN1@Allocate
  00017	6b c9 34	 imul	 ecx, 52			; 00000034H
  0001a	51		 push	 ecx
  0001b	e8 00 00 00 00	 call	 ??2@YAPAXI@Z		; operator new
  00020	59		 pop	 ecx
  00021	85 c0		 test	 eax, eax

; 38   : 
; 39   : 	return ((_Ty _FARQ *)_Ptr);

  00023	75 26		 jne	 SHORT $LN5@Allocate
$LN1@Allocate:

; 37   : 		_THROW_NCEE(bad_alloc, 0);

  00025	83 65 08 00	 and	 DWORD PTR $T508899[ebp], 0
  00029	8d 45 08	 lea	 eax, DWORD PTR $T508899[ebp]
  0002c	50		 push	 eax
  0002d	8d 4d f4	 lea	 ecx, DWORD PTR $T508894[ebp]
  00030	ff 15 00 00 00
	00		 call	 DWORD PTR __imp_??0exception@std@@QAE@ABQBD@Z
  00036	68 00 00 00 00	 push	 OFFSET __TI2?AVbad_alloc@std@@
  0003b	8d 45 f4	 lea	 eax, DWORD PTR $T508894[ebp]
  0003e	50		 push	 eax
  0003f	c7 45 f4 00 00
	00 00		 mov	 DWORD PTR $T508894[ebp], OFFSET ??_7bad_alloc@std@@6B@
  00046	e8 00 00 00 00	 call	 __CxxThrowException@8
$LN10@Allocate:
$LN5@Allocate:

; 40   : 	}

  0004b	c9		 leave
  0004c	c3		 ret	 0
$LN9@Allocate:
??$_Allocate@U_Node@?$_Tree_nod@V?$_Tmap_traits@KUTooltipAlloc@ioBasicTooltipManager@@U?$less@K@std@@V?$allocator@U?$pair@$$CBKUTooltipAlloc@ioBasicTooltipManager@@@std@@@4@$0A@@std@@@std@@@std@@YAPAU_Node@?$_Tree_nod@V?$_Tmap_traits@KUTooltipAlloc@ioBasicTooltipManager@@U?$less@K@std@@V?$allocator@U?$pair@$$CBKUTooltipAlloc@ioBasicTooltipManager@@@std@@@4@$0A@@std@@@0@IPAU120@@Z ENDP ; std::_Allocate<std::_Tree_nod<std::_Tmap_traits<unsigned long,ioBasicTooltipManager::TooltipAlloc,std::less<unsigned long>,std::allocator<std::pair<unsigned long const ,ioBasicTooltipManager::TooltipAlloc> >,0> >::_Node>
_TEXT	ENDS
PUBLIC	??$_Allocate@UTooltipAlloc@ioBasicTooltipManager@@@std@@YAPAUTooltipAlloc@ioBasicTooltipManager@@IPAU12@@Z ; std::_Allocate<ioBasicTooltipManager::TooltipAlloc>
; Function compile flags: /Ogsp
;	COMDAT ??$_Allocate@UTooltipAlloc@ioBasicTooltipManager@@@std@@YAPAUTooltipAlloc@ioBasicTooltipManager@@IPAU12@@Z
_TEXT	SEGMENT
$T508904 = -12						; size = 12
$T508908 = 8						; size = 4
__Count$ = 8						; size = 4
___formal$ = 12						; size = 4
??$_Allocate@UTooltipAlloc@ioBasicTooltipManager@@@std@@YAPAUTooltipAlloc@ioBasicTooltipManager@@IPAU12@@Z PROC ; std::_Allocate<ioBasicTooltipManager::TooltipAlloc>, COMDAT

; 30   : 	{	// allocate storage for _Count elements of type _Ty

  00000	55		 push	 ebp
  00001	8b ec		 mov	 ebp, esp

; 31   : 	void *_Ptr = 0;
; 32   : 
; 33   : 	if (_Count <= 0)

  00003	8b 4d 08	 mov	 ecx, DWORD PTR __Count$[ebp]
  00006	83 ec 0c	 sub	 esp, 12			; 0000000cH
  00009	33 c0		 xor	 eax, eax
  0000b	85 c9		 test	 ecx, ecx

; 34   : 		_Count = 0;
; 35   : 	else if (((_SIZT)(-1) / sizeof (_Ty) < _Count)

  0000d	74 3c		 je	 SHORT $LN5@Allocate@2

; 36   : 		|| (_Ptr = ::operator new(_Count * sizeof (_Ty))) == 0)

  0000f	81 f9 ff ff ff
	07		 cmp	 ecx, 134217727		; 07ffffffH
  00015	77 0e		 ja	 SHORT $LN1@Allocate@2
  00017	c1 e1 05	 shl	 ecx, 5
  0001a	51		 push	 ecx
  0001b	e8 00 00 00 00	 call	 ??2@YAPAXI@Z		; operator new
  00020	59		 pop	 ecx
  00021	85 c0		 test	 eax, eax

; 38   : 
; 39   : 	return ((_Ty _FARQ *)_Ptr);

  00023	75 26		 jne	 SHORT $LN5@Allocate@2
$LN1@Allocate@2:

; 37   : 		_THROW_NCEE(bad_alloc, 0);

  00025	83 65 08 00	 and	 DWORD PTR $T508908[ebp], 0
  00029	8d 45 08	 lea	 eax, DWORD PTR $T508908[ebp]
  0002c	50		 push	 eax
  0002d	8d 4d f4	 lea	 ecx, DWORD PTR $T508904[ebp]
  00030	ff 15 00 00 00
	00		 call	 DWORD PTR __imp_??0exception@std@@QAE@ABQBD@Z
  00036	68 00 00 00 00	 push	 OFFSET __TI2?AVbad_alloc@std@@
  0003b	8d 45 f4	 lea	 eax, DWORD PTR $T508904[ebp]
  0003e	50		 push	 eax
  0003f	c7 45 f4 00 00
	00 00		 mov	 DWORD PTR $T508904[ebp], OFFSET ??_7bad_alloc@std@@6B@
  00046	e8 00 00 00 00	 call	 __CxxThrowException@8
$LN10@Allocate@2:
$LN5@Allocate@2:

; 40   : 	}

  0004b	c9		 leave
  0004c	c3		 ret	 0
$LN9@Allocate@2:
??$_Allocate@UTooltipAlloc@ioBasicTooltipManager@@@std@@YAPAUTooltipAlloc@ioBasicTooltipManager@@IPAU12@@Z ENDP ; std::_Allocate<ioBasicTooltipManager::TooltipAlloc>
_TEXT	ENDS
PUBLIC	??R?$less@K@std@@QBE_NABK0@Z			; std::less<unsigned long>::operator()
; Function compile flags: /Ogsp
; File c:\program files (x86)\microsoft visual studio 10.0\vc\include\xfunctional
;	COMDAT ??R?$less@K@std@@QBE_NABK0@Z
_TEXT	SEGMENT
__Left$ = 8						; size = 4
__Right$ = 12						; size = 4
??R?$less@K@std@@QBE_NABK0@Z PROC			; std::less<unsigned long>::operator(), COMDAT
; _this$ = ecx

; 124  : 		{	// apply operator< to operands

  00000	55		 push	 ebp
  00001	8b ec		 mov	 ebp, esp

; 125  : 		return (_Left < _Right);

  00003	8b 45 08	 mov	 eax, DWORD PTR __Left$[ebp]
  00006	8b 00		 mov	 eax, DWORD PTR [eax]
  00008	8b 4d 0c	 mov	 ecx, DWORD PTR __Right$[ebp]
  0000b	3b 01		 cmp	 eax, DWORD PTR [ecx]
  0000d	1b c0		 sbb	 eax, eax
  0000f	f7 d8		 neg	 eax

; 126  : 		}

  00011	5d		 pop	 ebp
  00012	c2 08 00	 ret	 8
??R?$less@K@std@@QBE_NABK0@Z ENDP			; std::less<unsigned long>::operator()
_TEXT	ENDS
PUBLIC	?max_size@?$allocator@U?$pair@$$CBKUTooltipAlloc@ioBasicTooltipManager@@@std@@@std@@QBEIXZ ; std::allocator<std::pair<unsigned long const ,ioBasicTooltipManager::TooltipAlloc> >::max_size
; Function compile flags: /Ogsp
; File c:\program files (x86)\microsoft visual studio 10.0\vc\include\xmemory
;	COMDAT ?max_size@?$allocator@U?$pair@$$CBKUTooltipAlloc@ioBasicTooltipManager@@@std@@@std@@QBEIXZ
_TEXT	SEGMENT
?max_size@?$allocator@U?$pair@$$CBKUTooltipAlloc@ioBasicTooltipManager@@@std@@@std@@QBEIXZ PROC ; std::allocator<std::pair<unsigned long const ,ioBasicTooltipManager::TooltipAlloc> >::max_size, COMDAT
; _this$ = ecx

; 218  : 		_SIZT _Count = (_SIZT)(-1) / sizeof (_Ty);
; 219  : 		return (0 < _Count ? _Count : 1);

  00000	b8 c7 71 1c 07	 mov	 eax, 119304647		; 071c71c7H

; 220  : 		}

  00005	c3		 ret	 0
?max_size@?$allocator@U?$pair@$$CBKUTooltipAlloc@ioBasicTooltipManager@@@std@@@std@@QBEIXZ ENDP ; std::allocator<std::pair<unsigned long const ,ioBasicTooltipManager::TooltipAlloc> >::max_size
_TEXT	ENDS
PUBLIC	??F?$_Tree_unchecked_const_iterator@V?$_Tree_val@V?$_Tmap_traits@KUTooltipAlloc@ioBasicTooltipManager@@U?$less@K@std@@V?$allocator@U?$pair@$$CBKUTooltipAlloc@ioBasicTooltipManager@@@std@@@4@$0A@@std@@@std@@U_Iterator_base0@2@@std@@QAEAAV01@XZ ; std::_Tree_unchecked_const_iterator<std::_Tree_val<std::_Tmap_traits<unsigned long,ioBasicTooltipManager::TooltipAlloc,std::less<unsigned long>,std::allocator<std::pair<unsigned long const ,ioBasicTooltipManager::TooltipAlloc> >,0> >,std::_Iterator_base0>::operator--
; Function compile flags: /Ogsp
; File c:\program files (x86)\microsoft visual studio 10.0\vc\include\xtree
;	COMDAT ??F?$_Tree_unchecked_const_iterator@V?$_Tree_val@V?$_Tmap_traits@KUTooltipAlloc@ioBasicTooltipManager@@U?$less@K@std@@V?$allocator@U?$pair@$$CBKUTooltipAlloc@ioBasicTooltipManager@@@std@@@4@$0A@@std@@@std@@U_Iterator_base0@2@@std@@QAEAAV01@XZ
_TEXT	SEGMENT
??F?$_Tree_unchecked_const_iterator@V?$_Tree_val@V?$_Tmap_traits@KUTooltipAlloc@ioBasicTooltipManager@@U?$less@K@std@@V?$allocator@U?$pair@$$CBKUTooltipAlloc@ioBasicTooltipManager@@@std@@@4@$0A@@std@@@std@@U_Iterator_base0@2@@std@@QAEAAV01@XZ PROC ; std::_Tree_unchecked_const_iterator<std::_Tree_val<std::_Tmap_traits<unsigned long,ioBasicTooltipManager::TooltipAlloc,std::less<unsigned long>,std::allocator<std::pair<unsigned long const ,ioBasicTooltipManager::TooltipAlloc> >,0> >,std::_Iterator_base0>::operator--, COMDAT
; _this$ = ecx

; 83   : 		{	// predecrement

  00000	8b c1		 mov	 eax, ecx

; 84   : 		if (_Mytree::_Isnil(_Ptr))

  00002	8b 08		 mov	 ecx, DWORD PTR [eax]
  00004	53		 push	 ebx
  00005	32 db		 xor	 bl, bl
  00007	38 59 31	 cmp	 BYTE PTR [ecx+49], bl
  0000a	74 07		 je	 SHORT $LN8@operator

; 85   : 			_Ptr = _Mytree::_Right(_Ptr);	// end() ==> rightmost

  0000c	8b 49 08	 mov	 ecx, DWORD PTR [ecx+8]
  0000f	89 08		 mov	 DWORD PTR [eax], ecx
  00011	5b		 pop	 ebx

; 99   : 			}
; 100  : 		return (*this);
; 101  : 		}

  00012	c3		 ret	 0
$LN8@operator:

; 86   : 		else if (!_Mytree::_Isnil(_Mytree::_Left(_Ptr)))

  00013	8b 11		 mov	 edx, DWORD PTR [ecx]
  00015	38 5a 31	 cmp	 BYTE PTR [edx+49], bl
  00018	74 07		 je	 SHORT $LN44@operator

; 90   : 			{	// climb looking for left subtree
; 91   : 			_Nodeptr _Pnode;
; 92   : 			while (!_Mytree::_Isnil(_Pnode = _Mytree::_Parent(_Ptr))
; 93   : 				&& _Ptr == _Mytree::_Left(_Pnode))

  0001a	8b 51 04	 mov	 edx, DWORD PTR [ecx+4]
  0001d	eb 17		 jmp	 SHORT $LN46@operator

; 87   : 			_Ptr = _Mytree::_Max(
; 88   : 				_Mytree::_Left(_Ptr));	// ==> largest of left subtree

$LL22@operator:
  0001f	8b d1		 mov	 edx, ecx
$LN44@operator:
  00021	8b 4a 08	 mov	 ecx, DWORD PTR [edx+8]
  00024	38 59 31	 cmp	 BYTE PTR [ecx+49], bl
  00027	74 f6		 je	 SHORT $LL22@operator

; 89   : 		else

  00029	eb 17		 jmp	 SHORT $LN45@operator
$LL4@operator:

; 90   : 			{	// climb looking for left subtree
; 91   : 			_Nodeptr _Pnode;
; 92   : 			while (!_Mytree::_Isnil(_Pnode = _Mytree::_Parent(_Ptr))
; 93   : 				&& _Ptr == _Mytree::_Left(_Pnode))

  0002b	8b 08		 mov	 ecx, DWORD PTR [eax]
  0002d	3b 0a		 cmp	 ecx, DWORD PTR [edx]
  0002f	75 0a		 jne	 SHORT $LN3@operator

; 94   : 				_Ptr = _Pnode;	// ==> parent while left subtree

  00031	89 10		 mov	 DWORD PTR [eax], edx
  00033	8b 52 04	 mov	 edx, DWORD PTR [edx+4]
$LN46@operator:

; 90   : 			{	// climb looking for left subtree
; 91   : 			_Nodeptr _Pnode;
; 92   : 			while (!_Mytree::_Isnil(_Pnode = _Mytree::_Parent(_Ptr))
; 93   : 				&& _Ptr == _Mytree::_Left(_Pnode))

  00036	38 5a 31	 cmp	 BYTE PTR [edx+49], bl
  00039	74 f0		 je	 SHORT $LL4@operator
$LN3@operator:

; 95   : 			if (_Mytree::_Isnil(_Ptr))

  0003b	8b 08		 mov	 ecx, DWORD PTR [eax]
  0003d	38 59 31	 cmp	 BYTE PTR [ecx+49], bl
  00040	75 02		 jne	 SHORT $LN1@operator
$LN45@operator:

; 96   : 				;	// begin() shouldn't be decremented, don't move
; 97   : 			else
; 98   : 				_Ptr = _Pnode;	// ==> parent if not head

  00042	89 10		 mov	 DWORD PTR [eax], edx
$LN1@operator:
  00044	5b		 pop	 ebx

; 99   : 			}
; 100  : 		return (*this);
; 101  : 		}

  00045	c3		 ret	 0
??F?$_Tree_unchecked_const_iterator@V?$_Tree_val@V?$_Tmap_traits@KUTooltipAlloc@ioBasicTooltipManager@@U?$less@K@std@@V?$allocator@U?$pair@$$CBKUTooltipAlloc@ioBasicTooltipManager@@@std@@@4@$0A@@std@@@std@@U_Iterator_base0@2@@std@@QAEAAV01@XZ ENDP ; std::_Tree_unchecked_const_iterator<std::_Tree_val<std::_Tmap_traits<unsigned long,ioBasicTooltipManager::TooltipAlloc,std::less<unsigned long>,std::allocator<std::pair<unsigned long const ,ioBasicTooltipManager::TooltipAlloc> >,0> >,std::_Iterator_base0>::operator--
_TEXT	ENDS
PUBLIC	??$forward@AAUTooltipAlloc@ioBasicTooltipManager@@@std@@YAAAUTooltipAlloc@ioBasicTooltipManager@@AAU12@@Z ; std::forward<ioBasicTooltipManager::TooltipAlloc &>
; Function compile flags: /Ogsp
; File c:\program files (x86)\microsoft visual studio 10.0\vc\include\utility
;	COMDAT ??$forward@AAUTooltipAlloc@ioBasicTooltipManager@@@std@@YAAAUTooltipAlloc@ioBasicTooltipManager@@AAU12@@Z
_TEXT	SEGMENT
__Arg$ = 8						; size = 4
??$forward@AAUTooltipAlloc@ioBasicTooltipManager@@@std@@YAAAUTooltipAlloc@ioBasicTooltipManager@@AAU12@@Z PROC ; std::forward<ioBasicTooltipManager::TooltipAlloc &>, COMDAT

; 78   : 	{	// forward _Arg, given explicitly specified type parameter

  00000	55		 push	 ebp
  00001	8b ec		 mov	 ebp, esp

; 79   : 	return ((_Ty&&)_Arg);

  00003	8b 45 08	 mov	 eax, DWORD PTR __Arg$[ebp]

; 80   : 	}

  00006	5d		 pop	 ebp
  00007	c3		 ret	 0
??$forward@AAUTooltipAlloc@ioBasicTooltipManager@@@std@@YAAAUTooltipAlloc@ioBasicTooltipManager@@AAU12@@Z ENDP ; std::forward<ioBasicTooltipManager::TooltipAlloc &>
_TEXT	ENDS
PUBLIC	??$forward@U?$pair@$$CBKUTooltipAlloc@ioBasicTooltipManager@@@std@@@std@@YA$$QAU?$pair@$$CBKUTooltipAlloc@ioBasicTooltipManager@@@0@AAU10@@Z ; std::forward<std::pair<unsigned long const ,ioBasicTooltipManager::TooltipAlloc> >
; Function compile flags: /Ogsp
;	COMDAT ??$forward@U?$pair@$$CBKUTooltipAlloc@ioBasicTooltipManager@@@std@@@std@@YA$$QAU?$pair@$$CBKUTooltipAlloc@ioBasicTooltipManager@@@0@AAU10@@Z
_TEXT	SEGMENT
__Arg$ = 8						; size = 4
??$forward@U?$pair@$$CBKUTooltipAlloc@ioBasicTooltipManager@@@std@@@std@@YA$$QAU?$pair@$$CBKUTooltipAlloc@ioBasicTooltipManager@@@0@AAU10@@Z PROC ; std::forward<std::pair<unsigned long const ,ioBasicTooltipManager::TooltipAlloc> >, COMDAT

; 78   : 	{	// forward _Arg, given explicitly specified type parameter

  00000	55		 push	 ebp
  00001	8b ec		 mov	 ebp, esp

; 79   : 	return ((_Ty&&)_Arg);

  00003	8b 45 08	 mov	 eax, DWORD PTR __Arg$[ebp]

; 80   : 	}

  00006	5d		 pop	 ebp
  00007	c3		 ret	 0
??$forward@U?$pair@$$CBKUTooltipAlloc@ioBasicTooltipManager@@@std@@@std@@YA$$QAU?$pair@$$CBKUTooltipAlloc@ioBasicTooltipManager@@@0@AAU10@@Z ENDP ; std::forward<std::pair<unsigned long const ,ioBasicTooltipManager::TooltipAlloc> >
_TEXT	ENDS
PUBLIC	??$forward@ABUTooltipAlloc@ioBasicTooltipManager@@@std@@YAABUTooltipAlloc@ioBasicTooltipManager@@ABU12@@Z ; std::forward<ioBasicTooltipManager::TooltipAlloc const &>
; Function compile flags: /Ogsp
;	COMDAT ??$forward@ABUTooltipAlloc@ioBasicTooltipManager@@@std@@YAABUTooltipAlloc@ioBasicTooltipManager@@ABU12@@Z
_TEXT	SEGMENT
__Arg$ = 8						; size = 4
??$forward@ABUTooltipAlloc@ioBasicTooltipManager@@@std@@YAABUTooltipAlloc@ioBasicTooltipManager@@ABU12@@Z PROC ; std::forward<ioBasicTooltipManager::TooltipAlloc const &>, COMDAT

; 78   : 	{	// forward _Arg, given explicitly specified type parameter

  00000	55		 push	 ebp
  00001	8b ec		 mov	 ebp, esp

; 79   : 	return ((_Ty&&)_Arg);

  00003	8b 45 08	 mov	 eax, DWORD PTR __Arg$[ebp]

; 80   : 	}

  00006	5d		 pop	 ebp
  00007	c3		 ret	 0
??$forward@ABUTooltipAlloc@ioBasicTooltipManager@@@std@@YAABUTooltipAlloc@ioBasicTooltipManager@@ABU12@@Z ENDP ; std::forward<ioBasicTooltipManager::TooltipAlloc const &>
_TEXT	ENDS
PUBLIC	??$_Ptr_cat@UTooltipAlloc@ioBasicTooltipManager@@U12@@std@@YA?AU_Nonscalar_ptr_iterator_tag@0@PAUTooltipAlloc@ioBasicTooltipManager@@0@Z ; std::_Ptr_cat<ioBasicTooltipManager::TooltipAlloc,ioBasicTooltipManager::TooltipAlloc>
; Function compile flags: /Ogsp
; File c:\program files (x86)\microsoft visual studio 10.0\vc\include\xutility
;	COMDAT ??$_Ptr_cat@UTooltipAlloc@ioBasicTooltipManager@@U12@@std@@YA?AU_Nonscalar_ptr_iterator_tag@0@PAUTooltipAlloc@ioBasicTooltipManager@@0@Z
_TEXT	SEGMENT
__Cat$ = -1						; size = 1
___formal$ = 8						; size = 4
___formal$ = 12						; size = 4
??$_Ptr_cat@UTooltipAlloc@ioBasicTooltipManager@@U12@@std@@YA?AU_Nonscalar_ptr_iterator_tag@0@PAUTooltipAlloc@ioBasicTooltipManager@@0@Z PROC ; std::_Ptr_cat<ioBasicTooltipManager::TooltipAlloc,ioBasicTooltipManager::TooltipAlloc>, COMDAT

; 516  : 	{	// return pointer category from pointers

  00000	55		 push	 ebp
  00001	8b ec		 mov	 ebp, esp
  00003	51		 push	 ecx

; 517  : 	typename _Ptr_cat_helper<_Elem1, _Elem2>::_Type _Cat;
; 518  : 	return (_Cat);

  00004	8a 45 ff	 mov	 al, BYTE PTR __Cat$[ebp]

; 519  : 	}

  00007	c9		 leave
  00008	c3		 ret	 0
??$_Ptr_cat@UTooltipAlloc@ioBasicTooltipManager@@U12@@std@@YA?AU_Nonscalar_ptr_iterator_tag@0@PAUTooltipAlloc@ioBasicTooltipManager@@0@Z ENDP ; std::_Ptr_cat<ioBasicTooltipManager::TooltipAlloc,ioBasicTooltipManager::TooltipAlloc>
_TEXT	ENDS
PUBLIC	??$_Kfn@$$CBKUTooltipAlloc@ioBasicTooltipManager@@@?$_Tmap_traits@KUTooltipAlloc@ioBasicTooltipManager@@U?$less@K@std@@V?$allocator@U?$pair@$$CBKUTooltipAlloc@ioBasicTooltipManager@@@std@@@4@$0A@@std@@SAABKABU?$pair@$$CBKUTooltipAlloc@ioBasicTooltipManager@@@1@@Z ; std::_Tmap_traits<unsigned long,ioBasicTooltipManager::TooltipAlloc,std::less<unsigned long>,std::allocator<std::pair<unsigned long const ,ioBasicTooltipManager::TooltipAlloc> >,0>::_Kfn<unsigned long const ,ioBasicTooltipManager::TooltipAlloc>
; Function compile flags: /Ogsp
; File c:\program files (x86)\microsoft visual studio 10.0\vc\include\map
;	COMDAT ??$_Kfn@$$CBKUTooltipAlloc@ioBasicTooltipManager@@@?$_Tmap_traits@KUTooltipAlloc@ioBasicTooltipManager@@U?$less@K@std@@V?$allocator@U?$pair@$$CBKUTooltipAlloc@ioBasicTooltipManager@@@std@@@4@$0A@@std@@SAABKABU?$pair@$$CBKUTooltipAlloc@ioBasicTooltipManager@@@1@@Z
_TEXT	SEGMENT
__Val$ = 8						; size = 4
??$_Kfn@$$CBKUTooltipAlloc@ioBasicTooltipManager@@@?$_Tmap_traits@KUTooltipAlloc@ioBasicTooltipManager@@U?$less@K@std@@V?$allocator@U?$pair@$$CBKUTooltipAlloc@ioBasicTooltipManager@@@std@@@4@$0A@@std@@SAABKABU?$pair@$$CBKUTooltipAlloc@ioBasicTooltipManager@@@1@@Z PROC ; std::_Tmap_traits<unsigned long,ioBasicTooltipManager::TooltipAlloc,std::less<unsigned long>,std::allocator<std::pair<unsigned long const ,ioBasicTooltipManager::TooltipAlloc> >,0>::_Kfn<unsigned long const ,ioBasicTooltipManager::TooltipAlloc>, COMDAT

; 66   : 		static const _Kty& _Kfn(const _STD pair<_Ty1, _Ty2>& _Val)

  00000	55		 push	 ebp
  00001	8b ec		 mov	 ebp, esp

; 67   : 		{	// extract key from element value
; 68   : 		return (_Val.first);

  00003	8b 45 08	 mov	 eax, DWORD PTR __Val$[ebp]

; 69   : 		}

  00006	5d		 pop	 ebp
  00007	c3		 ret	 0
??$_Kfn@$$CBKUTooltipAlloc@ioBasicTooltipManager@@@?$_Tmap_traits@KUTooltipAlloc@ioBasicTooltipManager@@U?$less@K@std@@V?$allocator@U?$pair@$$CBKUTooltipAlloc@ioBasicTooltipManager@@@std@@@4@$0A@@std@@SAABKABU?$pair@$$CBKUTooltipAlloc@ioBasicTooltipManager@@@1@@Z ENDP ; std::_Tmap_traits<unsigned long,ioBasicTooltipManager::TooltipAlloc,std::less<unsigned long>,std::allocator<std::pair<unsigned long const ,ioBasicTooltipManager::TooltipAlloc> >,0>::_Kfn<unsigned long const ,ioBasicTooltipManager::TooltipAlloc>
_TEXT	ENDS
PUBLIC	??$move@AAV?$_Tree_iterator@V?$_Tree_val@V?$_Tmap_traits@KUTooltipAlloc@ioBasicTooltipManager@@U?$less@K@std@@V?$allocator@U?$pair@$$CBKUTooltipAlloc@ioBasicTooltipManager@@@std@@@4@$0A@@std@@@std@@@std@@@std@@YA$$QAV?$_Tree_iterator@V?$_Tree_val@V?$_Tmap_traits@KUTooltipAlloc@ioBasicTooltipManager@@U?$less@K@std@@V?$allocator@U?$pair@$$CBKUTooltipAlloc@ioBasicTooltipManager@@@std@@@4@$0A@@std@@@std@@@0@AAV10@@Z ; std::move<std::_Tree_iterator<std::_Tree_val<std::_Tmap_traits<unsigned long,ioBasicTooltipManager::TooltipAlloc,std::less<unsigned long>,std::allocator<std::pair<unsigned long const ,ioBasicTooltipManager::TooltipAlloc> >,0> > > &>
; Function compile flags: /Ogsp
; File c:\program files (x86)\microsoft visual studio 10.0\vc\include\utility
;	COMDAT ??$move@AAV?$_Tree_iterator@V?$_Tree_val@V?$_Tmap_traits@KUTooltipAlloc@ioBasicTooltipManager@@U?$less@K@std@@V?$allocator@U?$pair@$$CBKUTooltipAlloc@ioBasicTooltipManager@@@std@@@4@$0A@@std@@@std@@@std@@@std@@YA$$QAV?$_Tree_iterator@V?$_Tree_val@V?$_Tmap_traits@KUTooltipAlloc@ioBasicTooltipManager@@U?$less@K@std@@V?$allocator@U?$pair@$$CBKUTooltipAlloc@ioBasicTooltipManager@@@std@@@4@$0A@@std@@@std@@@0@AAV10@@Z
_TEXT	SEGMENT
__Arg$ = 8						; size = 4
??$move@AAV?$_Tree_iterator@V?$_Tree_val@V?$_Tmap_traits@KUTooltipAlloc@ioBasicTooltipManager@@U?$less@K@std@@V?$allocator@U?$pair@$$CBKUTooltipAlloc@ioBasicTooltipManager@@@std@@@4@$0A@@std@@@std@@@std@@@std@@YA$$QAV?$_Tree_iterator@V?$_Tree_val@V?$_Tmap_traits@KUTooltipAlloc@ioBasicTooltipManager@@U?$less@K@std@@V?$allocator@U?$pair@$$CBKUTooltipAlloc@ioBasicTooltipManager@@@std@@@4@$0A@@std@@@std@@@0@AAV10@@Z PROC ; std::move<std::_Tree_iterator<std::_Tree_val<std::_Tmap_traits<unsigned long,ioBasicTooltipManager::TooltipAlloc,std::less<unsigned long>,std::allocator<std::pair<unsigned long const ,ioBasicTooltipManager::TooltipAlloc> >,0> > > &>, COMDAT

; 86   : 	{	// forward _Arg as movable

  00000	55		 push	 ebp
  00001	8b ec		 mov	 ebp, esp

; 87   : 	return ((typename tr1::_Remove_reference<_Ty>::_Type&&)_Arg);

  00003	8b 45 08	 mov	 eax, DWORD PTR __Arg$[ebp]

; 88   : 	}

  00006	5d		 pop	 ebp
  00007	c3		 ret	 0
??$move@AAV?$_Tree_iterator@V?$_Tree_val@V?$_Tmap_traits@KUTooltipAlloc@ioBasicTooltipManager@@U?$less@K@std@@V?$allocator@U?$pair@$$CBKUTooltipAlloc@ioBasicTooltipManager@@@std@@@4@$0A@@std@@@std@@@std@@@std@@YA$$QAV?$_Tree_iterator@V?$_Tree_val@V?$_Tmap_traits@KUTooltipAlloc@ioBasicTooltipManager@@U?$less@K@std@@V?$allocator@U?$pair@$$CBKUTooltipAlloc@ioBasicTooltipManager@@@std@@@4@$0A@@std@@@std@@@0@AAV10@@Z ENDP ; std::move<std::_Tree_iterator<std::_Tree_val<std::_Tmap_traits<unsigned long,ioBasicTooltipManager::TooltipAlloc,std::less<unsigned long>,std::allocator<std::pair<unsigned long const ,ioBasicTooltipManager::TooltipAlloc> >,0> > > &>
_TEXT	ENDS
PUBLIC	??$move@AAUTooltipAlloc@ioBasicTooltipManager@@@std@@YA$$QAUTooltipAlloc@ioBasicTooltipManager@@AAU12@@Z ; std::move<ioBasicTooltipManager::TooltipAlloc &>
; Function compile flags: /Ogsp
;	COMDAT ??$move@AAUTooltipAlloc@ioBasicTooltipManager@@@std@@YA$$QAUTooltipAlloc@ioBasicTooltipManager@@AAU12@@Z
_TEXT	SEGMENT
__Arg$ = 8						; size = 4
??$move@AAUTooltipAlloc@ioBasicTooltipManager@@@std@@YA$$QAUTooltipAlloc@ioBasicTooltipManager@@AAU12@@Z PROC ; std::move<ioBasicTooltipManager::TooltipAlloc &>, COMDAT

; 86   : 	{	// forward _Arg as movable

  00000	55		 push	 ebp
  00001	8b ec		 mov	 ebp, esp

; 87   : 	return ((typename tr1::_Remove_reference<_Ty>::_Type&&)_Arg);

  00003	8b 45 08	 mov	 eax, DWORD PTR __Arg$[ebp]

; 88   : 	}

  00006	5d		 pop	 ebp
  00007	c3		 ret	 0
??$move@AAUTooltipAlloc@ioBasicTooltipManager@@@std@@YA$$QAUTooltipAlloc@ioBasicTooltipManager@@AAU12@@Z ENDP ; std::move<ioBasicTooltipManager::TooltipAlloc &>
_TEXT	ENDS
PUBLIC	??$_Val_type@PAUTooltipAlloc@ioBasicTooltipManager@@@std@@YAPAUTooltipAlloc@ioBasicTooltipManager@@PAU12@@Z ; std::_Val_type<ioBasicTooltipManager::TooltipAlloc *>
; Function compile flags: /Ogsp
; File c:\program files (x86)\microsoft visual studio 10.0\vc\include\xutility
;	COMDAT ??$_Val_type@PAUTooltipAlloc@ioBasicTooltipManager@@@std@@YAPAUTooltipAlloc@ioBasicTooltipManager@@PAU12@@Z
_TEXT	SEGMENT
___formal$ = 8						; size = 4
??$_Val_type@PAUTooltipAlloc@ioBasicTooltipManager@@@std@@YAPAUTooltipAlloc@ioBasicTooltipManager@@PAU12@@Z PROC ; std::_Val_type<ioBasicTooltipManager::TooltipAlloc *>, COMDAT

; 790  : 	return (0);

  00000	33 c0		 xor	 eax, eax

; 791  : 	}

  00002	c3		 ret	 0
??$_Val_type@PAUTooltipAlloc@ioBasicTooltipManager@@@std@@YAPAUTooltipAlloc@ioBasicTooltipManager@@PAU12@@Z ENDP ; std::_Val_type<ioBasicTooltipManager::TooltipAlloc *>
_TEXT	ENDS
PUBLIC	??$forward@AAV?$_Tree_iterator@V?$_Tree_val@V?$_Tmap_traits@KUTooltipAlloc@ioBasicTooltipManager@@U?$less@K@std@@V?$allocator@U?$pair@$$CBKUTooltipAlloc@ioBasicTooltipManager@@@std@@@4@$0A@@std@@@std@@@std@@@std@@YAAAV?$_Tree_iterator@V?$_Tree_val@V?$_Tmap_traits@KUTooltipAlloc@ioBasicTooltipManager@@U?$less@K@std@@V?$allocator@U?$pair@$$CBKUTooltipAlloc@ioBasicTooltipManager@@@std@@@4@$0A@@std@@@std@@@0@AAV10@@Z ; std::forward<std::_Tree_iterator<std::_Tree_val<std::_Tmap_traits<unsigned long,ioBasicTooltipManager::TooltipAlloc,std::less<unsigned long>,std::allocator<std::pair<unsigned long const ,ioBasicTooltipManager::TooltipAlloc> >,0> > > &>
; Function compile flags: /Ogsp
; File c:\program files (x86)\microsoft visual studio 10.0\vc\include\utility
;	COMDAT ??$forward@AAV?$_Tree_iterator@V?$_Tree_val@V?$_Tmap_traits@KUTooltipAlloc@ioBasicTooltipManager@@U?$less@K@std@@V?$allocator@U?$pair@$$CBKUTooltipAlloc@ioBasicTooltipManager@@@std@@@4@$0A@@std@@@std@@@std@@@std@@YAAAV?$_Tree_iterator@V?$_Tree_val@V?$_Tmap_traits@KUTooltipAlloc@ioBasicTooltipManager@@U?$less@K@std@@V?$allocator@U?$pair@$$CBKUTooltipAlloc@ioBasicTooltipManager@@@std@@@4@$0A@@std@@@std@@@0@AAV10@@Z
_TEXT	SEGMENT
__Arg$ = 8						; size = 4
??$forward@AAV?$_Tree_iterator@V?$_Tree_val@V?$_Tmap_traits@KUTooltipAlloc@ioBasicTooltipManager@@U?$less@K@std@@V?$allocator@U?$pair@$$CBKUTooltipAlloc@ioBasicTooltipManager@@@std@@@4@$0A@@std@@@std@@@std@@@std@@YAAAV?$_Tree_iterator@V?$_Tree_val@V?$_Tmap_traits@KUTooltipAlloc@ioBasicTooltipManager@@U?$less@K@std@@V?$allocator@U?$pair@$$CBKUTooltipAlloc@ioBasicTooltipManager@@@std@@@4@$0A@@std@@@std@@@0@AAV10@@Z PROC ; std::forward<std::_Tree_iterator<std::_Tree_val<std::_Tmap_traits<unsigned long,ioBasicTooltipManager::TooltipAlloc,std::less<unsigned long>,std::allocator<std::pair<unsigned long const ,ioBasicTooltipManager::TooltipAlloc> >,0> > > &>, COMDAT

; 78   : 	{	// forward _Arg, given explicitly specified type parameter

  00000	55		 push	 ebp
  00001	8b ec		 mov	 ebp, esp

; 79   : 	return ((_Ty&&)_Arg);

  00003	8b 45 08	 mov	 eax, DWORD PTR __Arg$[ebp]

; 80   : 	}

  00006	5d		 pop	 ebp
  00007	c3		 ret	 0
??$forward@AAV?$_Tree_iterator@V?$_Tree_val@V?$_Tmap_traits@KUTooltipAlloc@ioBasicTooltipManager@@U?$less@K@std@@V?$allocator@U?$pair@$$CBKUTooltipAlloc@ioBasicTooltipManager@@@std@@@4@$0A@@std@@@std@@@std@@@std@@YAAAV?$_Tree_iterator@V?$_Tree_val@V?$_Tmap_traits@KUTooltipAlloc@ioBasicTooltipManager@@U?$less@K@std@@V?$allocator@U?$pair@$$CBKUTooltipAlloc@ioBasicTooltipManager@@@std@@@4@$0A@@std@@@std@@@0@AAV10@@Z ENDP ; std::forward<std::_Tree_iterator<std::_Tree_val<std::_Tmap_traits<unsigned long,ioBasicTooltipManager::TooltipAlloc,std::less<unsigned long>,std::allocator<std::pair<unsigned long const ,ioBasicTooltipManager::TooltipAlloc> >,0> > > &>
_TEXT	ENDS
PUBLIC	??$forward@UTooltipAlloc@ioBasicTooltipManager@@@std@@YA$$QAUTooltipAlloc@ioBasicTooltipManager@@AAU12@@Z ; std::forward<ioBasicTooltipManager::TooltipAlloc>
; Function compile flags: /Ogsp
;	COMDAT ??$forward@UTooltipAlloc@ioBasicTooltipManager@@@std@@YA$$QAUTooltipAlloc@ioBasicTooltipManager@@AAU12@@Z
_TEXT	SEGMENT
__Arg$ = 8						; size = 4
??$forward@UTooltipAlloc@ioBasicTooltipManager@@@std@@YA$$QAUTooltipAlloc@ioBasicTooltipManager@@AAU12@@Z PROC ; std::forward<ioBasicTooltipManager::TooltipAlloc>, COMDAT

; 78   : 	{	// forward _Arg, given explicitly specified type parameter

  00000	55		 push	 ebp
  00001	8b ec		 mov	 ebp, esp

; 79   : 	return ((_Ty&&)_Arg);

  00003	8b 45 08	 mov	 eax, DWORD PTR __Arg$[ebp]

; 80   : 	}

  00006	5d		 pop	 ebp
  00007	c3		 ret	 0
??$forward@UTooltipAlloc@ioBasicTooltipManager@@@std@@YA$$QAUTooltipAlloc@ioBasicTooltipManager@@AAU12@@Z ENDP ; std::forward<ioBasicTooltipManager::TooltipAlloc>
_TEXT	ENDS
PUBLIC	??$forward@$$CBK@std@@YA$$QBKABK@Z		; std::forward<unsigned long const >
; Function compile flags: /Ogsp
;	COMDAT ??$forward@$$CBK@std@@YA$$QBKABK@Z
_TEXT	SEGMENT
__Arg$ = 8						; size = 4
??$forward@$$CBK@std@@YA$$QBKABK@Z PROC			; std::forward<unsigned long const >, COMDAT

; 78   : 	{	// forward _Arg, given explicitly specified type parameter

  00000	55		 push	 ebp
  00001	8b ec		 mov	 ebp, esp

; 79   : 	return ((_Ty&&)_Arg);

  00003	8b 45 08	 mov	 eax, DWORD PTR __Arg$[ebp]

; 80   : 	}

  00006	5d		 pop	 ebp
  00007	c3		 ret	 0
??$forward@$$CBK@std@@YA$$QBKABK@Z ENDP			; std::forward<unsigned long const >
_TEXT	ENDS
PUBLIC	??$move@ABK@std@@YA$$QBKABK@Z			; std::move<unsigned long const &>
; Function compile flags: /Ogsp
;	COMDAT ??$move@ABK@std@@YA$$QBKABK@Z
_TEXT	SEGMENT
__Arg$ = 8						; size = 4
??$move@ABK@std@@YA$$QBKABK@Z PROC			; std::move<unsigned long const &>, COMDAT

; 86   : 	{	// forward _Arg as movable

  00000	55		 push	 ebp
  00001	8b ec		 mov	 ebp, esp

; 87   : 	return ((typename tr1::_Remove_reference<_Ty>::_Type&&)_Arg);

  00003	8b 45 08	 mov	 eax, DWORD PTR __Arg$[ebp]

; 88   : 	}

  00006	5d		 pop	 ebp
  00007	c3		 ret	 0
??$move@ABK@std@@YA$$QBKABK@Z ENDP			; std::move<unsigned long const &>
_TEXT	ENDS
PUBLIC	?_DECSTR@@YAXPADH@Z				; _DECSTR
; Function compile flags: /Ogsp
; File d:\lost saga for developer\youtube\tutorial\source\src\lsclient\stringprotect.h
;	COMDAT ?_DECSTR@@YAXPADH@Z
_TEXT	SEGMENT
_s$ = 8							; size = 4
_l$ = 12						; size = 4
?_DECSTR@@YAXPADH@Z PROC				; _DECSTR, COMDAT

; 40   : __forceinline void _DECSTR(char* s, int l){int i=0,l4=(l-1)/4,*p=(int*)s;s[l-1]=0;for(;i<l4;++i)*(p++)^=0xEAEBECED;for(i=l4*4;i<l-1;++i)s[i]^=0xED-i%4;}

  00000	55		 push	 ebp
  00001	8b ec		 mov	 ebp, esp
  00003	8b 4d 0c	 mov	 ecx, DWORD PTR _l$[ebp]
  00006	56		 push	 esi
  00007	8b 75 08	 mov	 esi, DWORD PTR _s$[ebp]
  0000a	57		 push	 edi
  0000b	8d 79 ff	 lea	 edi, DWORD PTR [ecx-1]
  0000e	8b c7		 mov	 eax, edi
  00010	99		 cdq
  00011	83 e2 03	 and	 edx, 3
  00014	03 c2		 add	 eax, edx
  00016	c1 f8 02	 sar	 eax, 2
  00019	8b d6		 mov	 edx, esi
  0001b	c6 44 0e ff 00	 mov	 BYTE PTR [esi+ecx-1], 0
  00020	85 c0		 test	 eax, eax
  00022	7e 0e		 jle	 SHORT $LN4@DECSTR
  00024	8b c8		 mov	 ecx, eax
$LL6@DECSTR:
  00026	81 32 ed ec eb
	ea		 xor	 DWORD PTR [edx], -353637139 ; eaebecedH
  0002c	83 c2 04	 add	 edx, 4
  0002f	49		 dec	 ecx
  00030	75 f4		 jne	 SHORT $LL6@DECSTR
$LN4@DECSTR:
  00032	c1 e0 02	 shl	 eax, 2
  00035	eb 17		 jmp	 SHORT $LN14@DECSTR
$LL3@DECSTR:
  00037	8b c8		 mov	 ecx, eax
  00039	81 e1 03 00 00
	80		 and	 ecx, -2147483645	; 80000003H
  0003f	79 05		 jns	 SHORT $LN13@DECSTR
  00041	49		 dec	 ecx
  00042	83 c9 fc	 or	 ecx, -4			; fffffffcH
  00045	41		 inc	 ecx
$LN13@DECSTR:
  00046	b2 ed		 mov	 dl, -19			; ffffffedH
  00048	2a d1		 sub	 dl, cl
  0004a	30 14 30	 xor	 BYTE PTR [eax+esi], dl
  0004d	40		 inc	 eax
$LN14@DECSTR:
  0004e	3b c7		 cmp	 eax, edi
  00050	7c e5		 jl	 SHORT $LL3@DECSTR
  00052	5f		 pop	 edi
  00053	5e		 pop	 esi
  00054	5d		 pop	 ebp
  00055	c3		 ret	 0
?_DECSTR@@YAXPADH@Z ENDP				; _DECSTR
_TEXT	ENDS
PUBLIC	?size@?$basic_string@DU?$char_traits@D@std@@V?$allocator@D@2@@std@@QBEIXZ ; std::basic_string<char,std::char_traits<char>,std::allocator<char> >::size
; Function compile flags: /Ogsp
; File c:\program files (x86)\microsoft visual studio 10.0\vc\include\xstring
;	COMDAT ?size@?$basic_string@DU?$char_traits@D@std@@V?$allocator@D@2@@std@@QBEIXZ
_TEXT	SEGMENT
?size@?$basic_string@DU?$char_traits@D@std@@V?$allocator@D@2@@std@@QBEIXZ PROC ; std::basic_string<char,std::char_traits<char>,std::allocator<char> >::size, COMDAT
; _this$ = ecx

; 1512 : 		return (this->_Mysize);

  00000	8b 41 10	 mov	 eax, DWORD PTR [ecx+16]

; 1513 : 		}

  00003	c3		 ret	 0
?size@?$basic_string@DU?$char_traits@D@std@@V?$allocator@D@2@@std@@QBEIXZ ENDP ; std::basic_string<char,std::char_traits<char>,std::allocator<char> >::size
_TEXT	ENDS
PUBLIC	?_Myptr@?$basic_string@DU?$char_traits@D@std@@V?$allocator@D@2@@std@@QBEPBDXZ ; std::basic_string<char,std::char_traits<char>,std::allocator<char> >::_Myptr
; Function compile flags: /Ogsp
;	COMDAT ?_Myptr@?$basic_string@DU?$char_traits@D@std@@V?$allocator@D@2@@std@@QBEPBDXZ
_TEXT	SEGMENT
?_Myptr@?$basic_string@DU?$char_traits@D@std@@V?$allocator@D@2@@std@@QBEPBDXZ PROC ; std::basic_string<char,std::char_traits<char>,std::allocator<char> >::_Myptr, COMDAT
; _this$ = ecx

; 2010 : 		return (this->_BUF_SIZE <= this->_Myres ? this->_Bx._Ptr
; 2011 : 			: this->_Bx._Buf);

  00000	83 79 14 10	 cmp	 DWORD PTR [ecx+20], 16	; 00000010H
  00004	72 03		 jb	 SHORT $LN3@Myptr
  00006	8b 01		 mov	 eax, DWORD PTR [ecx]

; 2012 : 		}

  00008	c3		 ret	 0
$LN3@Myptr:

; 2010 : 		return (this->_BUF_SIZE <= this->_Myres ? this->_Bx._Ptr
; 2011 : 			: this->_Bx._Buf);

  00009	8b c1		 mov	 eax, ecx

; 2012 : 		}

  0000b	c3		 ret	 0
?_Myptr@?$basic_string@DU?$char_traits@D@std@@V?$allocator@D@2@@std@@QBEPBDXZ ENDP ; std::basic_string<char,std::char_traits<char>,std::allocator<char> >::_Myptr
_TEXT	ENDS
PUBLIC	??1?$_String_val@DV?$allocator@D@std@@@std@@QAE@XZ ; std::_String_val<char,std::allocator<char> >::~_String_val<char,std::allocator<char> >
; Function compile flags: /Ogsp
;	COMDAT ??1?$_String_val@DV?$allocator@D@std@@@std@@QAE@XZ
_TEXT	SEGMENT
??1?$_String_val@DV?$allocator@D@std@@@std@@QAE@XZ PROC	; std::_String_val<char,std::allocator<char> >::~_String_val<char,std::allocator<char> >, COMDAT
; _this$ = ecx

; 459  : 		}

  00000	c3		 ret	 0
??1?$_String_val@DV?$allocator@D@std@@@std@@QAE@XZ ENDP	; std::_String_val<char,std::allocator<char> >::~_String_val<char,std::allocator<char> >
_TEXT	ENDS
PUBLIC	??0?$allocator@D@std@@QAE@XZ			; std::allocator<char>::allocator<char>
; Function compile flags: /Ogsp
; File c:\program files (x86)\microsoft visual studio 10.0\vc\include\xmemory
;	COMDAT ??0?$allocator@D@std@@QAE@XZ
_TEXT	SEGMENT
??0?$allocator@D@std@@QAE@XZ PROC			; std::allocator<char>::allocator<char>, COMDAT
; _this$ = ecx

; 161  : 	_ALLOCATOR() _THROW0()

  00000	8b c1		 mov	 eax, ecx

; 162  : 		{	// construct default allocator (do nothing)
; 163  : 		}

  00002	c3		 ret	 0
??0?$allocator@D@std@@QAE@XZ ENDP			; std::allocator<char>::allocator<char>
_TEXT	ENDS
PUBLIC	??0?$allocator@D@std@@QAE@ABV01@@Z		; std::allocator<char>::allocator<char>
; Function compile flags: /Ogsp
;	COMDAT ??0?$allocator@D@std@@QAE@ABV01@@Z
_TEXT	SEGMENT
___formal$ = 8						; size = 4
??0?$allocator@D@std@@QAE@ABV01@@Z PROC			; std::allocator<char>::allocator<char>, COMDAT
; _this$ = ecx

; 165  : 	_ALLOCATOR(const _ALLOCATOR<_Ty>&) _THROW0()

  00000	8b c1		 mov	 eax, ecx

; 166  : 		{	// construct by copying (do nothing)
; 167  : 		}

  00002	c2 04 00	 ret	 4
??0?$allocator@D@std@@QAE@ABV01@@Z ENDP			; std::allocator<char>::allocator<char>
_TEXT	ENDS
PUBLIC	?_Myptr@?$basic_string@DU?$char_traits@D@std@@V?$allocator@D@2@@std@@QAEPADXZ ; std::basic_string<char,std::char_traits<char>,std::allocator<char> >::_Myptr
; Function compile flags: /Ogsp
; File c:\program files (x86)\microsoft visual studio 10.0\vc\include\xstring
;	COMDAT ?_Myptr@?$basic_string@DU?$char_traits@D@std@@V?$allocator@D@2@@std@@QAEPADXZ
_TEXT	SEGMENT
?_Myptr@?$basic_string@DU?$char_traits@D@std@@V?$allocator@D@2@@std@@QAEPADXZ PROC ; std::basic_string<char,std::char_traits<char>,std::allocator<char> >::_Myptr, COMDAT
; _this$ = ecx

; 2004 : 		return (this->_BUF_SIZE <= this->_Myres ? this->_Bx._Ptr
; 2005 : 			: this->_Bx._Buf);

  00000	83 79 14 10	 cmp	 DWORD PTR [ecx+20], 16	; 00000010H
  00004	72 03		 jb	 SHORT $LN3@Myptr@2
  00006	8b 01		 mov	 eax, DWORD PTR [ecx]

; 2006 : 		}

  00008	c3		 ret	 0
$LN3@Myptr@2:

; 2004 : 		return (this->_BUF_SIZE <= this->_Myres ? this->_Bx._Ptr
; 2005 : 			: this->_Bx._Buf);

  00009	8b c1		 mov	 eax, ecx

; 2006 : 		}

  0000b	c3		 ret	 0
?_Myptr@?$basic_string@DU?$char_traits@D@std@@V?$allocator@D@2@@std@@QAEPADXZ ENDP ; std::basic_string<char,std::char_traits<char>,std::allocator<char> >::_Myptr
_TEXT	ENDS
PUBLIC	??_C@_0BA@JFNIOLAK@string?5too?5long?$AA@	; `string'
PUBLIC	?_Xlen@?$basic_string@DU?$char_traits@D@std@@V?$allocator@D@2@@std@@QBEXXZ ; std::basic_string<char,std::char_traits<char>,std::allocator<char> >::_Xlen
;	COMDAT ??_C@_0BA@JFNIOLAK@string?5too?5long?$AA@
CONST	SEGMENT
??_C@_0BA@JFNIOLAK@string?5too?5long?$AA@ DB 'string too long', 00H ; `string'
; Function compile flags: /Ogsp
CONST	ENDS
;	COMDAT ?_Xlen@?$basic_string@DU?$char_traits@D@std@@V?$allocator@D@2@@std@@QBEXXZ
_TEXT	SEGMENT
?_Xlen@?$basic_string@DU?$char_traits@D@std@@V?$allocator@D@2@@std@@QBEXXZ PROC ; std::basic_string<char,std::char_traits<char>,std::allocator<char> >::_Xlen, COMDAT
; _this$ = ecx

; 2016 : 		_Xlength_error("string too long");

  00000	68 00 00 00 00	 push	 OFFSET ??_C@_0BA@JFNIOLAK@string?5too?5long?$AA@
  00005	ff 15 00 00 00
	00		 call	 DWORD PTR __imp_?_Xlength_error@std@@YAXPBD@Z
$LN4@Xlen@2:
$LN3@Xlen@2:
  0000b	cc		 int	 3
?_Xlen@?$basic_string@DU?$char_traits@D@std@@V?$allocator@D@2@@std@@QBEXXZ ENDP ; std::basic_string<char,std::char_traits<char>,std::allocator<char> >::_Xlen
_TEXT	ENDS
PUBLIC	??_C@_0BI@CFPLBAOH@invalid?5string?5position?$AA@ ; `string'
PUBLIC	?_Xran@?$basic_string@DU?$char_traits@D@std@@V?$allocator@D@2@@std@@QBEXXZ ; std::basic_string<char,std::char_traits<char>,std::allocator<char> >::_Xran
EXTRN	__imp_?_Xout_of_range@std@@YAXPBD@Z:PROC
;	COMDAT ??_C@_0BI@CFPLBAOH@invalid?5string?5position?$AA@
CONST	SEGMENT
??_C@_0BI@CFPLBAOH@invalid?5string?5position?$AA@ DB 'invalid string posi'
	DB	'tion', 00H					; `string'
; Function compile flags: /Ogsp
CONST	ENDS
;	COMDAT ?_Xran@?$basic_string@DU?$char_traits@D@std@@V?$allocator@D@2@@std@@QBEXXZ
_TEXT	SEGMENT
?_Xran@?$basic_string@DU?$char_traits@D@std@@V?$allocator@D@2@@std@@QBEXXZ PROC ; std::basic_string<char,std::char_traits<char>,std::allocator<char> >::_Xran, COMDAT
; _this$ = ecx

; 2021 : 		_Xout_of_range("invalid string position");

  00000	68 00 00 00 00	 push	 OFFSET ??_C@_0BI@CFPLBAOH@invalid?5string?5position?$AA@
  00005	ff 15 00 00 00
	00		 call	 DWORD PTR __imp_?_Xout_of_range@std@@YAXPBD@Z
$LN4@Xran:
$LN3@Xran:
  0000b	cc		 int	 3
?_Xran@?$basic_string@DU?$char_traits@D@std@@V?$allocator@D@2@@std@@QBEXXZ ENDP ; std::basic_string<char,std::char_traits<char>,std::allocator<char> >::_Xran
_TEXT	ENDS
PUBLIC	?deallocate@?$allocator@D@std@@QAEXPADI@Z	; std::allocator<char>::deallocate
; Function compile flags: /Ogsp
; File c:\program files (x86)\microsoft visual studio 10.0\vc\include\xmemory
;	COMDAT ?deallocate@?$allocator@D@std@@QAEXPADI@Z
_TEXT	SEGMENT
__Ptr$ = 8						; size = 4
___formal$ = 12						; size = 4
?deallocate@?$allocator@D@std@@QAEXPADI@Z PROC		; std::allocator<char>::deallocate, COMDAT
; _this$ = ecx

; 181  : 		{	// deallocate object at _Ptr, ignore size

  00000	55		 push	 ebp
  00001	8b ec		 mov	 ebp, esp

; 182  : 		::operator delete(_Ptr);

  00003	ff 75 08	 push	 DWORD PTR __Ptr$[ebp]
  00006	e8 00 00 00 00	 call	 ??3@YAXPAX@Z		; operator delete
  0000b	59		 pop	 ecx

; 183  : 		}

  0000c	5d		 pop	 ebp
  0000d	c2 08 00	 ret	 8
?deallocate@?$allocator@D@std@@QAEXPADI@Z ENDP		; std::allocator<char>::deallocate
_TEXT	ENDS
PUBLIC	?max_size@?$allocator@D@std@@QBEIXZ		; std::allocator<char>::max_size
; Function compile flags: /Ogsp
;	COMDAT ?max_size@?$allocator@D@std@@QBEIXZ
_TEXT	SEGMENT
?max_size@?$allocator@D@std@@QBEIXZ PROC		; std::allocator<char>::max_size, COMDAT
; _this$ = ecx

; 218  : 		_SIZT _Count = (_SIZT)(-1) / sizeof (_Ty);
; 219  : 		return (0 < _Count ? _Count : 1);

  00000	83 c8 ff	 or	 eax, -1

; 220  : 		}

  00003	c3		 ret	 0
?max_size@?$allocator@D@std@@QBEIXZ ENDP		; std::allocator<char>::max_size
_TEXT	ENDS
PUBLIC	??$_Allocate@D@std@@YAPADIPAD@Z			; std::_Allocate<char>
; Function compile flags: /Ogsp
;	COMDAT ??$_Allocate@D@std@@YAPADIPAD@Z
_TEXT	SEGMENT
$T509053 = -12						; size = 12
$T509057 = 8						; size = 4
__Count$ = 8						; size = 4
___formal$ = 12						; size = 4
??$_Allocate@D@std@@YAPADIPAD@Z PROC			; std::_Allocate<char>, COMDAT

; 30   : 	{	// allocate storage for _Count elements of type _Ty

  00000	55		 push	 ebp
  00001	8b ec		 mov	 ebp, esp

; 31   : 	void *_Ptr = 0;

  00003	33 c0		 xor	 eax, eax
  00005	83 ec 0c	 sub	 esp, 12			; 0000000cH

; 32   : 
; 33   : 	if (_Count <= 0)

  00008	39 45 08	 cmp	 DWORD PTR __Count$[ebp], eax

; 34   : 		_Count = 0;
; 35   : 	else if (((_SIZT)(-1) / sizeof (_Ty) < _Count)

  0000b	76 39		 jbe	 SHORT $LN5@Allocate@3

; 36   : 		|| (_Ptr = ::operator new(_Count * sizeof (_Ty))) == 0)

  0000d	83 7d 08 ff	 cmp	 DWORD PTR __Count$[ebp], -1
  00011	77 0d		 ja	 SHORT $LN1@Allocate@3
  00013	ff 75 08	 push	 DWORD PTR __Count$[ebp]
  00016	e8 00 00 00 00	 call	 ??2@YAPAXI@Z		; operator new
  0001b	59		 pop	 ecx
  0001c	85 c0		 test	 eax, eax

; 38   : 
; 39   : 	return ((_Ty _FARQ *)_Ptr);

  0001e	75 26		 jne	 SHORT $LN5@Allocate@3
$LN1@Allocate@3:

; 37   : 		_THROW_NCEE(bad_alloc, 0);

  00020	83 65 08 00	 and	 DWORD PTR $T509057[ebp], 0
  00024	8d 45 08	 lea	 eax, DWORD PTR $T509057[ebp]
  00027	50		 push	 eax
  00028	8d 4d f4	 lea	 ecx, DWORD PTR $T509053[ebp]
  0002b	ff 15 00 00 00
	00		 call	 DWORD PTR __imp_??0exception@std@@QAE@ABQBD@Z
  00031	68 00 00 00 00	 push	 OFFSET __TI2?AVbad_alloc@std@@
  00036	8d 45 f4	 lea	 eax, DWORD PTR $T509053[ebp]
  00039	50		 push	 eax
  0003a	c7 45 f4 00 00
	00 00		 mov	 DWORD PTR $T509053[ebp], OFFSET ??_7bad_alloc@std@@6B@
  00041	e8 00 00 00 00	 call	 __CxxThrowException@8
$LN10@Allocate@3:
$LN5@Allocate@3:

; 40   : 	}

  00046	c9		 leave
  00047	c3		 ret	 0
$LN9@Allocate@3:
??$_Allocate@D@std@@YAPADIPAD@Z ENDP			; std::_Allocate<char>
_TEXT	ENDS
EXTRN	__imp_??0exception@std@@QAE@ABV01@@Z:PROC
; Function compile flags: /Ogsp
;	COMDAT ??0bad_alloc@std@@QAE@ABV01@@Z
_TEXT	SEGMENT
___that$ = 8						; size = 4
??0bad_alloc@std@@QAE@ABV01@@Z PROC			; std::bad_alloc::bad_alloc, COMDAT
; _this$ = ecx
  00000	55		 push	 ebp
  00001	8b ec		 mov	 ebp, esp
  00003	56		 push	 esi
  00004	ff 75 08	 push	 DWORD PTR ___that$[ebp]
  00007	8b f1		 mov	 esi, ecx
  00009	ff 15 00 00 00
	00		 call	 DWORD PTR __imp_??0exception@std@@QAE@ABV01@@Z
  0000f	c7 06 00 00 00
	00		 mov	 DWORD PTR [esi], OFFSET ??_7bad_alloc@std@@6B@
  00015	8b c6		 mov	 eax, esi
  00017	5e		 pop	 esi
  00018	5d		 pop	 ebp
  00019	c2 04 00	 ret	 4
??0bad_alloc@std@@QAE@ABV01@@Z ENDP			; std::bad_alloc::bad_alloc
_TEXT	ENDS
PUBLIC	??$forward@AAK@std@@YAAAKAAK@Z			; std::forward<unsigned long &>
; Function compile flags: /Ogsp
; File c:\program files (x86)\microsoft visual studio 10.0\vc\include\utility
;	COMDAT ??$forward@AAK@std@@YAAAKAAK@Z
_TEXT	SEGMENT
__Arg$ = 8						; size = 4
??$forward@AAK@std@@YAAAKAAK@Z PROC			; std::forward<unsigned long &>, COMDAT

; 78   : 	{	// forward _Arg, given explicitly specified type parameter

  00000	55		 push	 ebp
  00001	8b ec		 mov	 ebp, esp

; 79   : 	return ((_Ty&&)_Arg);

  00003	8b 45 08	 mov	 eax, DWORD PTR __Arg$[ebp]

; 80   : 	}

  00006	5d		 pop	 ebp
  00007	c3		 ret	 0
??$forward@AAK@std@@YAAAKAAK@Z ENDP			; std::forward<unsigned long &>
_TEXT	ENDS
PUBLIC	??$_Move@AAD@std@@YA$$QADAAD@Z			; std::_Move<char &>
; Function compile flags: /Ogsp
;	COMDAT ??$_Move@AAD@std@@YA$$QADAAD@Z
_TEXT	SEGMENT
__Arg$ = 8						; size = 4
??$_Move@AAD@std@@YA$$QADAAD@Z PROC			; std::_Move<char &>, COMDAT

; 94   : 	{	// forward _Arg as movable

  00000	55		 push	 ebp
  00001	8b ec		 mov	 ebp, esp

; 95   : 	return ((typename tr1::_Remove_reference<_Ty>::_Type&&)_Arg);

  00003	8b 45 08	 mov	 eax, DWORD PTR __Arg$[ebp]

; 96   : 	}

  00006	5d		 pop	 ebp
  00007	c3		 ret	 0
??$_Move@AAD@std@@YA$$QADAAD@Z ENDP			; std::_Move<char &>
_TEXT	ENDS
PUBLIC	??$move@AA_N@std@@YA$$QA_NAA_N@Z		; std::move<bool &>
; Function compile flags: /Ogsp
;	COMDAT ??$move@AA_N@std@@YA$$QA_NAA_N@Z
_TEXT	SEGMENT
__Arg$ = 8						; size = 4
??$move@AA_N@std@@YA$$QA_NAA_N@Z PROC			; std::move<bool &>, COMDAT

; 86   : 	{	// forward _Arg as movable

  00000	55		 push	 ebp
  00001	8b ec		 mov	 ebp, esp

; 87   : 	return ((typename tr1::_Remove_reference<_Ty>::_Type&&)_Arg);

  00003	8b 45 08	 mov	 eax, DWORD PTR __Arg$[ebp]

; 88   : 	}

  00006	5d		 pop	 ebp
  00007	c3		 ret	 0
??$move@AA_N@std@@YA$$QA_NAA_N@Z ENDP			; std::move<bool &>
_TEXT	ENDS
PUBLIC	??$forward@_N@std@@YA$$QA_NAA_N@Z		; std::forward<bool>
; Function compile flags: /Ogsp
;	COMDAT ??$forward@_N@std@@YA$$QA_NAA_N@Z
_TEXT	SEGMENT
__Arg$ = 8						; size = 4
??$forward@_N@std@@YA$$QA_NAA_N@Z PROC			; std::forward<bool>, COMDAT

; 78   : 	{	// forward _Arg, given explicitly specified type parameter

  00000	55		 push	 ebp
  00001	8b ec		 mov	 ebp, esp

; 79   : 	return ((_Ty&&)_Arg);

  00003	8b 45 08	 mov	 eax, DWORD PTR __Arg$[ebp]

; 80   : 	}

  00006	5d		 pop	 ebp
  00007	c3		 ret	 0
??$forward@_N@std@@YA$$QA_NAA_N@Z ENDP			; std::forward<bool>
_TEXT	ENDS
PUBLIC	?GetSingleton@ioBasicTooltipManager@@SAAAV1@XZ	; ioBasicTooltipManager::GetSingleton
; Function compile flags: /Ogsp
; File d:\lost saga for developer\youtube\tutorial\source\src\lsclient\iobasictooltipmanager.cpp
;	COMDAT ?GetSingleton@ioBasicTooltipManager@@SAAAV1@XZ
_TEXT	SEGMENT
?GetSingleton@ioBasicTooltipManager@@SAAAV1@XZ PROC	; ioBasicTooltipManager::GetSingleton, COMDAT

; 8    : 	return Singleton< ioBasicTooltipManager >::GetSingleton();

  00000	a1 00 00 00 00	 mov	 eax, DWORD PTR ?ms_Singleton@?$Singleton@VioBasicTooltipManager@@@@1PAVioBasicTooltipManager@@A ; Singleton<ioBasicTooltipManager>::ms_Singleton

; 9    : }

  00005	c3		 ret	 0
?GetSingleton@ioBasicTooltipManager@@SAAAV1@XZ ENDP	; ioBasicTooltipManager::GetSingleton
_TEXT	ENDS
PUBLIC	??9?$_Tree_const_iterator@V?$_Tree_val@V?$_Tmap_traits@KUTooltipAlloc@ioBasicTooltipManager@@U?$less@K@std@@V?$allocator@U?$pair@$$CBKUTooltipAlloc@ioBasicTooltipManager@@@std@@@4@$0A@@std@@@std@@@std@@QBE_NABV01@@Z ; std::_Tree_const_iterator<std::_Tree_val<std::_Tmap_traits<unsigned long,ioBasicTooltipManager::TooltipAlloc,std::less<unsigned long>,std::allocator<std::pair<unsigned long const ,ioBasicTooltipManager::TooltipAlloc> >,0> > >::operator!=
; Function compile flags: /Ogsp
; File c:\program files (x86)\microsoft visual studio 10.0\vc\include\xtree
;	COMDAT ??9?$_Tree_const_iterator@V?$_Tree_val@V?$_Tmap_traits@KUTooltipAlloc@ioBasicTooltipManager@@U?$less@K@std@@V?$allocator@U?$pair@$$CBKUTooltipAlloc@ioBasicTooltipManager@@@std@@@4@$0A@@std@@@std@@@std@@QBE_NABV01@@Z
_TEXT	SEGMENT
__Right$ = 8						; size = 4
??9?$_Tree_const_iterator@V?$_Tree_val@V?$_Tmap_traits@KUTooltipAlloc@ioBasicTooltipManager@@U?$less@K@std@@V?$allocator@U?$pair@$$CBKUTooltipAlloc@ioBasicTooltipManager@@@std@@@4@$0A@@std@@@std@@@std@@QBE_NABV01@@Z PROC ; std::_Tree_const_iterator<std::_Tree_val<std::_Tmap_traits<unsigned long,ioBasicTooltipManager::TooltipAlloc,std::less<unsigned long>,std::allocator<std::pair<unsigned long const ,ioBasicTooltipManager::TooltipAlloc> >,0> > >::operator!=, COMDAT
; _this$ = ecx

; 334  : 		{	// test for iterator inequality

  00000	55		 push	 ebp
  00001	8b ec		 mov	 ebp, esp

; 335  : 		return (!(*this == _Right));

  00003	8b 01		 mov	 eax, DWORD PTR [ecx]
  00005	8b 55 08	 mov	 edx, DWORD PTR __Right$[ebp]
  00008	33 c9		 xor	 ecx, ecx
  0000a	3b 02		 cmp	 eax, DWORD PTR [edx]
  0000c	0f 95 c0	 setne	 al

; 336  : 		}

  0000f	5d		 pop	 ebp
  00010	c2 04 00	 ret	 4
??9?$_Tree_const_iterator@V?$_Tree_val@V?$_Tmap_traits@KUTooltipAlloc@ioBasicTooltipManager@@U?$less@K@std@@V?$allocator@U?$pair@$$CBKUTooltipAlloc@ioBasicTooltipManager@@@std@@@4@$0A@@std@@@std@@@std@@QBE_NABV01@@Z ENDP ; std::_Tree_const_iterator<std::_Tree_val<std::_Tmap_traits<unsigned long,ioBasicTooltipManager::TooltipAlloc,std::less<unsigned long>,std::allocator<std::pair<unsigned long const ,ioBasicTooltipManager::TooltipAlloc> >,0> > >::operator!=
_TEXT	ENDS
PUBLIC	??D?$_Vector_iterator@V?$_Vector_val@UTooltipAlloc@ioBasicTooltipManager@@V?$allocator@UTooltipAlloc@ioBasicTooltipManager@@@std@@@std@@@std@@QBEAAUTooltipAlloc@ioBasicTooltipManager@@XZ ; std::_Vector_iterator<std::_Vector_val<ioBasicTooltipManager::TooltipAlloc,std::allocator<ioBasicTooltipManager::TooltipAlloc> > >::operator*
; Function compile flags: /Ogsp
; File c:\program files (x86)\microsoft visual studio 10.0\vc\include\vector
;	COMDAT ??D?$_Vector_iterator@V?$_Vector_val@UTooltipAlloc@ioBasicTooltipManager@@V?$allocator@UTooltipAlloc@ioBasicTooltipManager@@@std@@@std@@@std@@QBEAAUTooltipAlloc@ioBasicTooltipManager@@XZ
_TEXT	SEGMENT
??D?$_Vector_iterator@V?$_Vector_val@UTooltipAlloc@ioBasicTooltipManager@@V?$allocator@UTooltipAlloc@ioBasicTooltipManager@@@std@@@std@@@std@@QBEAAUTooltipAlloc@ioBasicTooltipManager@@XZ PROC ; std::_Vector_iterator<std::_Vector_val<ioBasicTooltipManager::TooltipAlloc,std::allocator<ioBasicTooltipManager::TooltipAlloc> > >::operator*, COMDAT
; _this$ = ecx

; 322  : 		return ((reference)**(_Mybase *)this);

  00000	8b 01		 mov	 eax, DWORD PTR [ecx]

; 323  : 		}

  00002	c3		 ret	 0
??D?$_Vector_iterator@V?$_Vector_val@UTooltipAlloc@ioBasicTooltipManager@@V?$allocator@UTooltipAlloc@ioBasicTooltipManager@@@std@@@std@@@std@@QBEAAUTooltipAlloc@ioBasicTooltipManager@@XZ ENDP ; std::_Vector_iterator<std::_Vector_val<ioBasicTooltipManager::TooltipAlloc,std::allocator<ioBasicTooltipManager::TooltipAlloc> > >::operator*
_TEXT	ENDS
PUBLIC	??E?$_Vector_iterator@V?$_Vector_val@UTooltipAlloc@ioBasicTooltipManager@@V?$allocator@UTooltipAlloc@ioBasicTooltipManager@@@std@@@std@@@std@@QAEAAV01@XZ ; std::_Vector_iterator<std::_Vector_val<ioBasicTooltipManager::TooltipAlloc,std::allocator<ioBasicTooltipManager::TooltipAlloc> > >::operator++
; Function compile flags: /Ogsp
;	COMDAT ??E?$_Vector_iterator@V?$_Vector_val@UTooltipAlloc@ioBasicTooltipManager@@V?$allocator@UTooltipAlloc@ioBasicTooltipManager@@@std@@@std@@@std@@QAEAAV01@XZ
_TEXT	SEGMENT
??E?$_Vector_iterator@V?$_Vector_val@UTooltipAlloc@ioBasicTooltipManager@@V?$allocator@UTooltipAlloc@ioBasicTooltipManager@@@std@@@std@@@std@@QAEAAV01@XZ PROC ; std::_Vector_iterator<std::_Vector_val<ioBasicTooltipManager::TooltipAlloc,std::allocator<ioBasicTooltipManager::TooltipAlloc> > >::operator++, COMDAT
; _this$ = ecx

; 331  : 		{	// preincrement

  00000	8b c1		 mov	 eax, ecx

; 332  : 		++*(_Mybase *)this;

  00002	83 00 20	 add	 DWORD PTR [eax], 32	; 00000020H

; 333  : 		return (*this);
; 334  : 		}

  00005	c3		 ret	 0
??E?$_Vector_iterator@V?$_Vector_val@UTooltipAlloc@ioBasicTooltipManager@@V?$allocator@UTooltipAlloc@ioBasicTooltipManager@@@std@@@std@@@std@@QAEAAV01@XZ ENDP ; std::_Vector_iterator<std::_Vector_val<ioBasicTooltipManager::TooltipAlloc,std::allocator<ioBasicTooltipManager::TooltipAlloc> > >::operator++
_TEXT	ENDS
PUBLIC	?_Lmost@?$_Tree@V?$_Tmap_traits@KUTooltipAlloc@ioBasicTooltipManager@@U?$less@K@std@@V?$allocator@U?$pair@$$CBKUTooltipAlloc@ioBasicTooltipManager@@@std@@@4@$0A@@std@@@std@@IBEAAPAU_Node@?$_Tree_nod@V?$_Tmap_traits@KUTooltipAlloc@ioBasicTooltipManager@@U?$less@K@std@@V?$allocator@U?$pair@$$CBKUTooltipAlloc@ioBasicTooltipManager@@@std@@@4@$0A@@std@@@2@XZ ; std::_Tree<std::_Tmap_traits<unsigned long,ioBasicTooltipManager::TooltipAlloc,std::less<unsigned long>,std::allocator<std::pair<unsigned long const ,ioBasicTooltipManager::TooltipAlloc> >,0> >::_Lmost
; Function compile flags: /Ogsp
; File c:\program files (x86)\microsoft visual studio 10.0\vc\include\xtree
;	COMDAT ?_Lmost@?$_Tree@V?$_Tmap_traits@KUTooltipAlloc@ioBasicTooltipManager@@U?$less@K@std@@V?$allocator@U?$pair@$$CBKUTooltipAlloc@ioBasicTooltipManager@@@std@@@4@$0A@@std@@@std@@IBEAAPAU_Node@?$_Tree_nod@V?$_Tmap_traits@KUTooltipAlloc@ioBasicTooltipManager@@U?$less@K@std@@V?$allocator@U?$pair@$$CBKUTooltipAlloc@ioBasicTooltipManager@@@std@@@4@$0A@@std@@@2@XZ
_TEXT	SEGMENT
?_Lmost@?$_Tree@V?$_Tmap_traits@KUTooltipAlloc@ioBasicTooltipManager@@U?$less@K@std@@V?$allocator@U?$pair@$$CBKUTooltipAlloc@ioBasicTooltipManager@@@std@@@4@$0A@@std@@@std@@IBEAAPAU_Node@?$_Tree_nod@V?$_Tmap_traits@KUTooltipAlloc@ioBasicTooltipManager@@U?$less@K@std@@V?$allocator@U?$pair@$$CBKUTooltipAlloc@ioBasicTooltipManager@@@std@@@4@$0A@@std@@@2@XZ PROC ; std::_Tree<std::_Tmap_traits<unsigned long,ioBasicTooltipManager::TooltipAlloc,std::less<unsigned long>,std::allocator<std::pair<unsigned long const ,ioBasicTooltipManager::TooltipAlloc> >,0> >::_Lmost, COMDAT
; _this$ = ecx

; 1759 : 		return (this->_Left(this->_Myhead));

  00000	8b 41 04	 mov	 eax, DWORD PTR [ecx+4]

; 1760 : 		}

  00003	c3		 ret	 0
?_Lmost@?$_Tree@V?$_Tmap_traits@KUTooltipAlloc@ioBasicTooltipManager@@U?$less@K@std@@V?$allocator@U?$pair@$$CBKUTooltipAlloc@ioBasicTooltipManager@@@std@@@4@$0A@@std@@@std@@IBEAAPAU_Node@?$_Tree_nod@V?$_Tmap_traits@KUTooltipAlloc@ioBasicTooltipManager@@U?$less@K@std@@V?$allocator@U?$pair@$$CBKUTooltipAlloc@ioBasicTooltipManager@@@std@@@4@$0A@@std@@@2@XZ ENDP ; std::_Tree<std::_Tmap_traits<unsigned long,ioBasicTooltipManager::TooltipAlloc,std::less<unsigned long>,std::allocator<std::pair<unsigned long const ,ioBasicTooltipManager::TooltipAlloc> >,0> >::_Lmost
_TEXT	ENDS
PUBLIC	??1?$_Tree_val@V?$_Tmap_traits@KUTooltipAlloc@ioBasicTooltipManager@@U?$less@K@std@@V?$allocator@U?$pair@$$CBKUTooltipAlloc@ioBasicTooltipManager@@@std@@@4@$0A@@std@@@std@@QAE@XZ ; std::_Tree_val<std::_Tmap_traits<unsigned long,ioBasicTooltipManager::TooltipAlloc,std::less<unsigned long>,std::allocator<std::pair<unsigned long const ,ioBasicTooltipManager::TooltipAlloc> >,0> >::~_Tree_val<std::_Tmap_traits<unsigned long,ioBasicTooltipManager::TooltipAlloc,std::less<unsigned long>,std::allocator<std::pair<unsigned long const ,ioBasicTooltipManager::TooltipAlloc> >,0> >
; Function compile flags: /Ogsp
;	COMDAT ??1?$_Tree_val@V?$_Tmap_traits@KUTooltipAlloc@ioBasicTooltipManager@@U?$less@K@std@@V?$allocator@U?$pair@$$CBKUTooltipAlloc@ioBasicTooltipManager@@@std@@@4@$0A@@std@@@std@@QAE@XZ
_TEXT	SEGMENT
??1?$_Tree_val@V?$_Tmap_traits@KUTooltipAlloc@ioBasicTooltipManager@@U?$less@K@std@@V?$allocator@U?$pair@$$CBKUTooltipAlloc@ioBasicTooltipManager@@@std@@@4@$0A@@std@@@std@@QAE@XZ PROC ; std::_Tree_val<std::_Tmap_traits<unsigned long,ioBasicTooltipManager::TooltipAlloc,std::less<unsigned long>,std::allocator<std::pair<unsigned long const ,ioBasicTooltipManager::TooltipAlloc> >,0> >::~_Tree_val<std::_Tmap_traits<unsigned long,ioBasicTooltipManager::TooltipAlloc,std::less<unsigned long>,std::allocator<std::pair<unsigned long const ,ioBasicTooltipManager::TooltipAlloc> >,0> >, COMDAT
; _this$ = ecx

; 555  : 		this->_Alnod.deallocate(this->_Myhead, 1);

  00000	ff 71 04	 push	 DWORD PTR [ecx+4]
  00003	e8 00 00 00 00	 call	 ??3@YAXPAX@Z		; operator delete
  00008	59		 pop	 ecx

; 556  : 		}

  00009	c3		 ret	 0
??1?$_Tree_val@V?$_Tmap_traits@KUTooltipAlloc@ioBasicTooltipManager@@U?$less@K@std@@V?$allocator@U?$pair@$$CBKUTooltipAlloc@ioBasicTooltipManager@@@std@@@4@$0A@@std@@@std@@QAE@XZ ENDP ; std::_Tree_val<std::_Tmap_traits<unsigned long,ioBasicTooltipManager::TooltipAlloc,std::less<unsigned long>,std::allocator<std::pair<unsigned long const ,ioBasicTooltipManager::TooltipAlloc> >,0> >::~_Tree_val<std::_Tmap_traits<unsigned long,ioBasicTooltipManager::TooltipAlloc,std::less<unsigned long>,std::allocator<std::pair<unsigned long const ,ioBasicTooltipManager::TooltipAlloc> >,0> >
_TEXT	ENDS
PUBLIC	??0?$_Vector_val@UTooltipAlloc@ioBasicTooltipManager@@V?$allocator@UTooltipAlloc@ioBasicTooltipManager@@@std@@@std@@QAE@V?$allocator@UTooltipAlloc@ioBasicTooltipManager@@@1@@Z ; std::_Vector_val<ioBasicTooltipManager::TooltipAlloc,std::allocator<ioBasicTooltipManager::TooltipAlloc> >::_Vector_val<ioBasicTooltipManager::TooltipAlloc,std::allocator<ioBasicTooltipManager::TooltipAlloc> >
; Function compile flags: /Ogsp
; File c:\program files (x86)\microsoft visual studio 10.0\vc\include\vector
;	COMDAT ??0?$_Vector_val@UTooltipAlloc@ioBasicTooltipManager@@V?$allocator@UTooltipAlloc@ioBasicTooltipManager@@@std@@@std@@QAE@V?$allocator@UTooltipAlloc@ioBasicTooltipManager@@@1@@Z
_TEXT	SEGMENT
__Al$ = 8						; size = 1
??0?$_Vector_val@UTooltipAlloc@ioBasicTooltipManager@@V?$allocator@UTooltipAlloc@ioBasicTooltipManager@@@std@@@std@@QAE@V?$allocator@UTooltipAlloc@ioBasicTooltipManager@@@1@@Z PROC ; std::_Vector_val<ioBasicTooltipManager::TooltipAlloc,std::allocator<ioBasicTooltipManager::TooltipAlloc> >::_Vector_val<ioBasicTooltipManager::TooltipAlloc,std::allocator<ioBasicTooltipManager::TooltipAlloc> >, COMDAT
; _this$ = ecx

; 426  : 		{	// construct allocator from _Al

  00000	8b c1		 mov	 eax, ecx

; 427  : 		_Myfirst = 0;

  00002	33 c9		 xor	 ecx, ecx
  00004	89 08		 mov	 DWORD PTR [eax], ecx

; 428  : 		_Mylast = 0;

  00006	89 48 04	 mov	 DWORD PTR [eax+4], ecx

; 429  : 		_Myend = 0;

  00009	89 48 08	 mov	 DWORD PTR [eax+8], ecx

; 430  : 		}

  0000c	c2 04 00	 ret	 4
??0?$_Vector_val@UTooltipAlloc@ioBasicTooltipManager@@V?$allocator@UTooltipAlloc@ioBasicTooltipManager@@@std@@@std@@QAE@V?$allocator@UTooltipAlloc@ioBasicTooltipManager@@@1@@Z ENDP ; std::_Vector_val<ioBasicTooltipManager::TooltipAlloc,std::allocator<ioBasicTooltipManager::TooltipAlloc> >::_Vector_val<ioBasicTooltipManager::TooltipAlloc,std::allocator<ioBasicTooltipManager::TooltipAlloc> >
_TEXT	ENDS
PUBLIC	??8?$_Vector_const_iterator@V?$_Vector_val@UTooltipAlloc@ioBasicTooltipManager@@V?$allocator@UTooltipAlloc@ioBasicTooltipManager@@@std@@@std@@@std@@QBE_NABV01@@Z ; std::_Vector_const_iterator<std::_Vector_val<ioBasicTooltipManager::TooltipAlloc,std::allocator<ioBasicTooltipManager::TooltipAlloc> > >::operator==
; Function compile flags: /Ogsp
;	COMDAT ??8?$_Vector_const_iterator@V?$_Vector_val@UTooltipAlloc@ioBasicTooltipManager@@V?$allocator@UTooltipAlloc@ioBasicTooltipManager@@@std@@@std@@@std@@QBE_NABV01@@Z
_TEXT	SEGMENT
__Right$ = 8						; size = 4
??8?$_Vector_const_iterator@V?$_Vector_val@UTooltipAlloc@ioBasicTooltipManager@@V?$allocator@UTooltipAlloc@ioBasicTooltipManager@@@std@@@std@@@std@@QBE_NABV01@@Z PROC ; std::_Vector_const_iterator<std::_Vector_val<ioBasicTooltipManager::TooltipAlloc,std::allocator<ioBasicTooltipManager::TooltipAlloc> > >::operator==, COMDAT
; _this$ = ecx

; 201  : 		{	// test for iterator equality

  00000	55		 push	 ebp
  00001	8b ec		 mov	 ebp, esp

; 202  : 		_Compat(_Right);
; 203  : 		return (this->_Ptr == _Right._Ptr);

  00003	8b 01		 mov	 eax, DWORD PTR [ecx]
  00005	8b 4d 08	 mov	 ecx, DWORD PTR __Right$[ebp]
  00008	2b 01		 sub	 eax, DWORD PTR [ecx]
  0000a	f7 d8		 neg	 eax
  0000c	1b c0		 sbb	 eax, eax
  0000e	40		 inc	 eax

; 204  : 		}

  0000f	5d		 pop	 ebp
  00010	c2 04 00	 ret	 4
??8?$_Vector_const_iterator@V?$_Vector_val@UTooltipAlloc@ioBasicTooltipManager@@V?$allocator@UTooltipAlloc@ioBasicTooltipManager@@@std@@@std@@@std@@QBE_NABV01@@Z ENDP ; std::_Vector_const_iterator<std::_Vector_val<ioBasicTooltipManager::TooltipAlloc,std::allocator<ioBasicTooltipManager::TooltipAlloc> > >::operator==
_TEXT	ENDS
PUBLIC	?max_size@?$vector@UTooltipAlloc@ioBasicTooltipManager@@V?$allocator@UTooltipAlloc@ioBasicTooltipManager@@@std@@@std@@QBEIXZ ; std::vector<ioBasicTooltipManager::TooltipAlloc,std::allocator<ioBasicTooltipManager::TooltipAlloc> >::max_size
; Function compile flags: /Ogsp
;	COMDAT ?max_size@?$vector@UTooltipAlloc@ioBasicTooltipManager@@V?$allocator@UTooltipAlloc@ioBasicTooltipManager@@@std@@@std@@QBEIXZ
_TEXT	SEGMENT
?max_size@?$vector@UTooltipAlloc@ioBasicTooltipManager@@V?$allocator@UTooltipAlloc@ioBasicTooltipManager@@@std@@@std@@QBEIXZ PROC ; std::vector<ioBasicTooltipManager::TooltipAlloc,std::allocator<ioBasicTooltipManager::TooltipAlloc> >::max_size, COMDAT
; _this$ = ecx

; 884  : 		return (this->_Alval.max_size());

  00000	b8 ff ff ff 07	 mov	 eax, 134217727		; 07ffffffH

; 885  : 		}

  00005	c3		 ret	 0
?max_size@?$vector@UTooltipAlloc@ioBasicTooltipManager@@V?$allocator@UTooltipAlloc@ioBasicTooltipManager@@@std@@@std@@QBEIXZ ENDP ; std::vector<ioBasicTooltipManager::TooltipAlloc,std::allocator<ioBasicTooltipManager::TooltipAlloc> >::max_size
_TEXT	ENDS
PUBLIC	?_Grow_to@?$vector@UTooltipAlloc@ioBasicTooltipManager@@V?$allocator@UTooltipAlloc@ioBasicTooltipManager@@@std@@@std@@IBEII@Z ; std::vector<ioBasicTooltipManager::TooltipAlloc,std::allocator<ioBasicTooltipManager::TooltipAlloc> >::_Grow_to
; Function compile flags: /Ogsp
;	COMDAT ?_Grow_to@?$vector@UTooltipAlloc@ioBasicTooltipManager@@V?$allocator@UTooltipAlloc@ioBasicTooltipManager@@@std@@@std@@IBEII@Z
_TEXT	SEGMENT
__Count$ = 8						; size = 4
?_Grow_to@?$vector@UTooltipAlloc@ioBasicTooltipManager@@V?$allocator@UTooltipAlloc@ioBasicTooltipManager@@@std@@@std@@IBEII@Z PROC ; std::vector<ioBasicTooltipManager::TooltipAlloc,std::allocator<ioBasicTooltipManager::TooltipAlloc> >::_Grow_to, COMDAT
; _this$ = ecx

; 1274 : 		{	// grow by 50% or at least to _Count

  00000	55		 push	 ebp
  00001	8b ec		 mov	 ebp, esp

; 1275 : 		size_type _Capacity = capacity();

  00003	8b 41 08	 mov	 eax, DWORD PTR [ecx+8]
  00006	2b 01		 sub	 eax, DWORD PTR [ecx]

; 1276 : 
; 1277 : 		_Capacity = max_size() - _Capacity / 2 < _Capacity
; 1278 : 			? 0 : _Capacity + _Capacity / 2;	// try to grow by 50%

  00008	ba ff ff ff 07	 mov	 edx, 134217727		; 07ffffffH
  0000d	c1 f8 05	 sar	 eax, 5
  00010	8b c8		 mov	 ecx, eax
  00012	d1 e9		 shr	 ecx, 1
  00014	2b d1		 sub	 edx, ecx
  00016	3b d0		 cmp	 edx, eax
  00018	73 04		 jae	 SHORT $LN4@Grow_to
  0001a	33 c0		 xor	 eax, eax
  0001c	eb 02		 jmp	 SHORT $LN5@Grow_to
$LN4@Grow_to:
  0001e	03 c1		 add	 eax, ecx
$LN5@Grow_to:

; 1279 : 		if (_Capacity < _Count)

  00020	3b 45 08	 cmp	 eax, DWORD PTR __Count$[ebp]

; 1280 : 			_Capacity = _Count;

  00023	0f 42 45 08	 cmovb	 eax, DWORD PTR __Count$[ebp]

; 1281 : 		return (_Capacity);
; 1282 : 		}

  00027	5d		 pop	 ebp
  00028	c2 04 00	 ret	 4
?_Grow_to@?$vector@UTooltipAlloc@ioBasicTooltipManager@@V?$allocator@UTooltipAlloc@ioBasicTooltipManager@@@std@@@std@@IBEII@Z ENDP ; std::vector<ioBasicTooltipManager::TooltipAlloc,std::allocator<ioBasicTooltipManager::TooltipAlloc> >::_Grow_to
_TEXT	ENDS
PUBLIC	??D?$_Tree_const_iterator@V?$_Tree_val@V?$_Tmap_traits@KUTooltipAlloc@ioBasicTooltipManager@@U?$less@K@std@@V?$allocator@U?$pair@$$CBKUTooltipAlloc@ioBasicTooltipManager@@@std@@@4@$0A@@std@@@std@@@std@@QBEABU?$pair@$$CBKUTooltipAlloc@ioBasicTooltipManager@@@1@XZ ; std::_Tree_const_iterator<std::_Tree_val<std::_Tmap_traits<unsigned long,ioBasicTooltipManager::TooltipAlloc,std::less<unsigned long>,std::allocator<std::pair<unsigned long const ,ioBasicTooltipManager::TooltipAlloc> >,0> > >::operator*
; Function compile flags: /Ogsp
; File c:\program files (x86)\microsoft visual studio 10.0\vc\include\xtree
;	COMDAT ??D?$_Tree_const_iterator@V?$_Tree_val@V?$_Tmap_traits@KUTooltipAlloc@ioBasicTooltipManager@@U?$less@K@std@@V?$allocator@U?$pair@$$CBKUTooltipAlloc@ioBasicTooltipManager@@@std@@@4@$0A@@std@@@std@@@std@@QBEABU?$pair@$$CBKUTooltipAlloc@ioBasicTooltipManager@@@1@XZ
_TEXT	SEGMENT
??D?$_Tree_const_iterator@V?$_Tree_val@V?$_Tmap_traits@KUTooltipAlloc@ioBasicTooltipManager@@U?$less@K@std@@V?$allocator@U?$pair@$$CBKUTooltipAlloc@ioBasicTooltipManager@@@std@@@4@$0A@@std@@@std@@@std@@QBEABU?$pair@$$CBKUTooltipAlloc@ioBasicTooltipManager@@@1@XZ PROC ; std::_Tree_const_iterator<std::_Tree_val<std::_Tmap_traits<unsigned long,ioBasicTooltipManager::TooltipAlloc,std::less<unsigned long>,std::allocator<std::pair<unsigned long const ,ioBasicTooltipManager::TooltipAlloc> >,0> > >::operator*, COMDAT
; _this$ = ecx

; 231  :  #if _ITERATOR_DEBUG_LEVEL == 2
; 232  : 		if (this->_Getcont() == 0
; 233  : 			|| this->_Ptr == 0
; 234  : 			|| this->_Ptr == ((_Mytree *)this->_Getcont())->_Myhead)
; 235  : 			{	// report error
; 236  : 			_DEBUG_ERROR("map/set iterator not dereferencable");
; 237  : 			_SCL_SECURE_OUT_OF_RANGE;
; 238  : 			}
; 239  : 
; 240  :  #elif _ITERATOR_DEBUG_LEVEL == 1
; 241  : 		_SCL_SECURE_VALIDATE(this->_Getcont() != 0 && this->_Ptr != 0);
; 242  : 		_SCL_SECURE_VALIDATE_RANGE(this->_Ptr !=
; 243  : 			((_Mytree *)this->_Getcont())->_Myhead);
; 244  :  #endif /* _ITERATOR_DEBUG_LEVEL */
; 245  : 
; 246  : 		return (_Mytree::_Myval(this->_Ptr));

  00000	8b 01		 mov	 eax, DWORD PTR [ecx]
  00002	83 c0 0c	 add	 eax, 12			; 0000000cH

; 247  : 		}

  00005	c3		 ret	 0
??D?$_Tree_const_iterator@V?$_Tree_val@V?$_Tmap_traits@KUTooltipAlloc@ioBasicTooltipManager@@U?$less@K@std@@V?$allocator@U?$pair@$$CBKUTooltipAlloc@ioBasicTooltipManager@@@std@@@4@$0A@@std@@@std@@@std@@QBEABU?$pair@$$CBKUTooltipAlloc@ioBasicTooltipManager@@@1@XZ ENDP ; std::_Tree_const_iterator<std::_Tree_val<std::_Tmap_traits<unsigned long,ioBasicTooltipManager::TooltipAlloc,std::less<unsigned long>,std::allocator<std::pair<unsigned long const ,ioBasicTooltipManager::TooltipAlloc> >,0> > >::operator*
_TEXT	ENDS
PUBLIC	??E?$_Tree_unchecked_const_iterator@V?$_Tree_val@V?$_Tmap_traits@KUTooltipAlloc@ioBasicTooltipManager@@U?$less@K@std@@V?$allocator@U?$pair@$$CBKUTooltipAlloc@ioBasicTooltipManager@@@std@@@4@$0A@@std@@@std@@U_Iterator_base0@2@@std@@QAEAAV01@XZ ; std::_Tree_unchecked_const_iterator<std::_Tree_val<std::_Tmap_traits<unsigned long,ioBasicTooltipManager::TooltipAlloc,std::less<unsigned long>,std::allocator<std::pair<unsigned long const ,ioBasicTooltipManager::TooltipAlloc> >,0> >,std::_Iterator_base0>::operator++
; Function compile flags: /Ogsp
;	COMDAT ??E?$_Tree_unchecked_const_iterator@V?$_Tree_val@V?$_Tmap_traits@KUTooltipAlloc@ioBasicTooltipManager@@U?$less@K@std@@V?$allocator@U?$pair@$$CBKUTooltipAlloc@ioBasicTooltipManager@@@std@@@4@$0A@@std@@@std@@U_Iterator_base0@2@@std@@QAEAAV01@XZ
_TEXT	SEGMENT
??E?$_Tree_unchecked_const_iterator@V?$_Tree_val@V?$_Tmap_traits@KUTooltipAlloc@ioBasicTooltipManager@@U?$less@K@std@@V?$allocator@U?$pair@$$CBKUTooltipAlloc@ioBasicTooltipManager@@@std@@@4@$0A@@std@@@std@@U_Iterator_base0@2@@std@@QAEAAV01@XZ PROC ; std::_Tree_unchecked_const_iterator<std::_Tree_val<std::_Tmap_traits<unsigned long,ioBasicTooltipManager::TooltipAlloc,std::less<unsigned long>,std::allocator<std::pair<unsigned long const ,ioBasicTooltipManager::TooltipAlloc> >,0> >,std::_Iterator_base0>::operator++, COMDAT
; _this$ = ecx

; 58   : 		{	// preincrement

  00000	8b c1		 mov	 eax, ecx

; 59   : 		if (_Mytree::_Isnil(_Ptr))

  00002	8b 08		 mov	 ecx, DWORD PTR [eax]
  00004	53		 push	 ebx
  00005	32 db		 xor	 bl, bl
  00007	38 59 31	 cmp	 BYTE PTR [ecx+49], bl
  0000a	75 2d		 jne	 SHORT $LN3@operator@2

; 60   : 			;	// end() shouldn't be incremented, don't move
; 61   : 		else if (!_Mytree::_Isnil(_Mytree::_Right(_Ptr)))

  0000c	8b 51 08	 mov	 edx, DWORD PTR [ecx+8]
  0000f	38 5a 31	 cmp	 BYTE PTR [edx+49], bl
  00012	75 0d		 jne	 SHORT $LN34@operator@2

; 62   : 			_Ptr = _Mytree::_Min(
; 63   : 				_Mytree::_Right(_Ptr));	// ==> smallest of right subtree

$LL18@operator@2:
  00014	8b ca		 mov	 ecx, edx
  00016	8b 11		 mov	 edx, DWORD PTR [ecx]
  00018	38 5a 31	 cmp	 BYTE PTR [edx+49], bl
  0001b	74 f7		 je	 SHORT $LL18@operator@2
  0001d	89 08		 mov	 DWORD PTR [eax], ecx
  0001f	5b		 pop	 ebx

; 71   : 			}
; 72   : 		return (*this);
; 73   : 		}

  00020	c3		 ret	 0
$LN34@operator@2:

; 64   : 		else
; 65   : 			{	// climb looking for right subtree
; 66   : 			_Nodeptr _Pnode;
; 67   : 			while (!_Mytree::_Isnil(_Pnode = _Mytree::_Parent(_Ptr))
; 68   : 				&& _Ptr == _Mytree::_Right(_Pnode))

  00021	8b 51 04	 mov	 edx, DWORD PTR [ecx+4]
  00024	eb 0c		 jmp	 SHORT $LN38@operator@2
$LL2@operator@2:
  00026	8b 08		 mov	 ecx, DWORD PTR [eax]
  00028	3b 4a 08	 cmp	 ecx, DWORD PTR [edx+8]
  0002b	75 0a		 jne	 SHORT $LN1@operator@2

; 69   : 				_Ptr = _Pnode;	// ==> parent while right subtree

  0002d	89 10		 mov	 DWORD PTR [eax], edx
  0002f	8b 52 04	 mov	 edx, DWORD PTR [edx+4]
$LN38@operator@2:

; 64   : 		else
; 65   : 			{	// climb looking for right subtree
; 66   : 			_Nodeptr _Pnode;
; 67   : 			while (!_Mytree::_Isnil(_Pnode = _Mytree::_Parent(_Ptr))
; 68   : 				&& _Ptr == _Mytree::_Right(_Pnode))

  00032	38 5a 31	 cmp	 BYTE PTR [edx+49], bl
  00035	74 ef		 je	 SHORT $LL2@operator@2
$LN1@operator@2:

; 70   : 			_Ptr = _Pnode;	// ==> parent (head if end())

  00037	89 10		 mov	 DWORD PTR [eax], edx
$LN3@operator@2:
  00039	5b		 pop	 ebx

; 71   : 			}
; 72   : 		return (*this);
; 73   : 		}

  0003a	c3		 ret	 0
??E?$_Tree_unchecked_const_iterator@V?$_Tree_val@V?$_Tmap_traits@KUTooltipAlloc@ioBasicTooltipManager@@U?$less@K@std@@V?$allocator@U?$pair@$$CBKUTooltipAlloc@ioBasicTooltipManager@@@std@@@4@$0A@@std@@@std@@U_Iterator_base0@2@@std@@QAEAAV01@XZ ENDP ; std::_Tree_unchecked_const_iterator<std::_Tree_val<std::_Tmap_traits<unsigned long,ioBasicTooltipManager::TooltipAlloc,std::less<unsigned long>,std::allocator<std::pair<unsigned long const ,ioBasicTooltipManager::TooltipAlloc> >,0> >,std::_Iterator_base0>::operator++
_TEXT	ENDS
PUBLIC	??0?$_Vector_const_iterator@V?$_Vector_val@UTooltipAlloc@ioBasicTooltipManager@@V?$allocator@UTooltipAlloc@ioBasicTooltipManager@@@std@@@std@@@std@@QAE@PAUTooltipAlloc@ioBasicTooltipManager@@PBU_Container_base0@1@@Z ; std::_Vector_const_iterator<std::_Vector_val<ioBasicTooltipManager::TooltipAlloc,std::allocator<ioBasicTooltipManager::TooltipAlloc> > >::_Vector_const_iterator<std::_Vector_val<ioBasicTooltipManager::TooltipAlloc,std::allocator<ioBasicTooltipManager::TooltipAlloc> > >
; Function compile flags: /Ogsp
; File c:\program files (x86)\microsoft visual studio 10.0\vc\include\vector
;	COMDAT ??0?$_Vector_const_iterator@V?$_Vector_val@UTooltipAlloc@ioBasicTooltipManager@@V?$allocator@UTooltipAlloc@ioBasicTooltipManager@@@std@@@std@@@std@@QAE@PAUTooltipAlloc@ioBasicTooltipManager@@PBU_Container_base0@1@@Z
_TEXT	SEGMENT
__Parg$ = 8						; size = 4
__Pvector$ = 12						; size = 4
??0?$_Vector_const_iterator@V?$_Vector_val@UTooltipAlloc@ioBasicTooltipManager@@V?$allocator@UTooltipAlloc@ioBasicTooltipManager@@@std@@@std@@@std@@QAE@PAUTooltipAlloc@ioBasicTooltipManager@@PBU_Container_base0@1@@Z PROC ; std::_Vector_const_iterator<std::_Vector_val<ioBasicTooltipManager::TooltipAlloc,std::allocator<ioBasicTooltipManager::TooltipAlloc> > >::_Vector_const_iterator<std::_Vector_val<ioBasicTooltipManager::TooltipAlloc,std::allocator<ioBasicTooltipManager::TooltipAlloc> > >, COMDAT
; _this$ = ecx

; 45   : 		{	// construct with pointer _Parg

  00000	55		 push	 ebp
  00001	8b ec		 mov	 ebp, esp
  00003	8b c1		 mov	 eax, ecx
  00005	8b 4d 08	 mov	 ecx, DWORD PTR __Parg$[ebp]
  00008	89 08		 mov	 DWORD PTR [eax], ecx

; 46   : 		this->_Adopt(_Pvector);
; 47   : 		}

  0000a	5d		 pop	 ebp
  0000b	c2 08 00	 ret	 8
??0?$_Vector_const_iterator@V?$_Vector_val@UTooltipAlloc@ioBasicTooltipManager@@V?$allocator@UTooltipAlloc@ioBasicTooltipManager@@@std@@@std@@@std@@QAE@PAUTooltipAlloc@ioBasicTooltipManager@@PBU_Container_base0@1@@Z ENDP ; std::_Vector_const_iterator<std::_Vector_val<ioBasicTooltipManager::TooltipAlloc,std::allocator<ioBasicTooltipManager::TooltipAlloc> > >::_Vector_const_iterator<std::_Vector_val<ioBasicTooltipManager::TooltipAlloc,std::allocator<ioBasicTooltipManager::TooltipAlloc> > >
_TEXT	ENDS
PUBLIC	??0?$_Tree_nod@V?$_Tmap_traits@KUTooltipAlloc@ioBasicTooltipManager@@U?$less@K@std@@V?$allocator@U?$pair@$$CBKUTooltipAlloc@ioBasicTooltipManager@@@std@@@4@$0A@@std@@@std@@QAE@ABU?$less@K@1@V?$allocator@U?$pair@$$CBKUTooltipAlloc@ioBasicTooltipManager@@@std@@@1@@Z ; std::_Tree_nod<std::_Tmap_traits<unsigned long,ioBasicTooltipManager::TooltipAlloc,std::less<unsigned long>,std::allocator<std::pair<unsigned long const ,ioBasicTooltipManager::TooltipAlloc> >,0> >::_Tree_nod<std::_Tmap_traits<unsigned long,ioBasicTooltipManager::TooltipAlloc,std::less<unsigned long>,std::allocator<std::pair<unsigned long const ,ioBasicTooltipManager::TooltipAlloc> >,0> >
; Function compile flags: /Ogsp
; File c:\program files (x86)\microsoft visual studio 10.0\vc\include\xtree
;	COMDAT ??0?$_Tree_nod@V?$_Tmap_traits@KUTooltipAlloc@ioBasicTooltipManager@@U?$less@K@std@@V?$allocator@U?$pair@$$CBKUTooltipAlloc@ioBasicTooltipManager@@@std@@@4@$0A@@std@@@std@@QAE@ABU?$less@K@1@V?$allocator@U?$pair@$$CBKUTooltipAlloc@ioBasicTooltipManager@@@std@@@1@@Z
_TEXT	SEGMENT
__Parg$ = 8						; size = 4
__Al$ = 12						; size = 1
??0?$_Tree_nod@V?$_Tmap_traits@KUTooltipAlloc@ioBasicTooltipManager@@U?$less@K@std@@V?$allocator@U?$pair@$$CBKUTooltipAlloc@ioBasicTooltipManager@@@std@@@4@$0A@@std@@@std@@QAE@ABU?$less@K@1@V?$allocator@U?$pair@$$CBKUTooltipAlloc@ioBasicTooltipManager@@@std@@@1@@Z PROC ; std::_Tree_nod<std::_Tmap_traits<unsigned long,ioBasicTooltipManager::TooltipAlloc,std::less<unsigned long>,std::allocator<std::pair<unsigned long const ,ioBasicTooltipManager::TooltipAlloc> >,0> >::_Tree_nod<std::_Tmap_traits<unsigned long,ioBasicTooltipManager::TooltipAlloc,std::less<unsigned long>,std::allocator<std::pair<unsigned long const ,ioBasicTooltipManager::TooltipAlloc> >,0> >, COMDAT
; _this$ = ecx

; 482  : 		{	// construct traits from _Parg and allocators from _Al

  00000	8b c1		 mov	 eax, ecx

; 483  : 		}

  00002	c2 08 00	 ret	 8
??0?$_Tree_nod@V?$_Tmap_traits@KUTooltipAlloc@ioBasicTooltipManager@@U?$less@K@std@@V?$allocator@U?$pair@$$CBKUTooltipAlloc@ioBasicTooltipManager@@@std@@@4@$0A@@std@@@std@@QAE@ABU?$less@K@1@V?$allocator@U?$pair@$$CBKUTooltipAlloc@ioBasicTooltipManager@@@std@@@1@@Z ENDP ; std::_Tree_nod<std::_Tmap_traits<unsigned long,ioBasicTooltipManager::TooltipAlloc,std::less<unsigned long>,std::allocator<std::pair<unsigned long const ,ioBasicTooltipManager::TooltipAlloc> >,0> >::_Tree_nod<std::_Tmap_traits<unsigned long,ioBasicTooltipManager::TooltipAlloc,std::less<unsigned long>,std::allocator<std::pair<unsigned long const ,ioBasicTooltipManager::TooltipAlloc> >,0> >
_TEXT	ENDS
PUBLIC	?allocate@?$allocator@U_Node@?$_Tree_nod@V?$_Tmap_traits@KUTooltipAlloc@ioBasicTooltipManager@@U?$less@K@std@@V?$allocator@U?$pair@$$CBKUTooltipAlloc@ioBasicTooltipManager@@@std@@@4@$0A@@std@@@std@@@std@@QAEPAU_Node@?$_Tree_nod@V?$_Tmap_traits@KUTooltipAlloc@ioBasicTooltipManager@@U?$less@K@std@@V?$allocator@U?$pair@$$CBKUTooltipAlloc@ioBasicTooltipManager@@@std@@@4@$0A@@std@@@2@I@Z ; std::allocator<std::_Tree_nod<std::_Tmap_traits<unsigned long,ioBasicTooltipManager::TooltipAlloc,std::less<unsigned long>,std::allocator<std::pair<unsigned long const ,ioBasicTooltipManager::TooltipAlloc> >,0> >::_Node>::allocate
; Function compile flags: /Ogsp
; File c:\program files (x86)\microsoft visual studio 10.0\vc\include\xmemory
;	COMDAT ?allocate@?$allocator@U_Node@?$_Tree_nod@V?$_Tmap_traits@KUTooltipAlloc@ioBasicTooltipManager@@U?$less@K@std@@V?$allocator@U?$pair@$$CBKUTooltipAlloc@ioBasicTooltipManager@@@std@@@4@$0A@@std@@@std@@@std@@QAEPAU_Node@?$_Tree_nod@V?$_Tmap_traits@KUTooltipAlloc@ioBasicTooltipManager@@U?$less@K@std@@V?$allocator@U?$pair@$$CBKUTooltipAlloc@ioBasicTooltipManager@@@std@@@4@$0A@@std@@@2@I@Z
_TEXT	SEGMENT
__Count$ = 8						; size = 4
?allocate@?$allocator@U_Node@?$_Tree_nod@V?$_Tmap_traits@KUTooltipAlloc@ioBasicTooltipManager@@U?$less@K@std@@V?$allocator@U?$pair@$$CBKUTooltipAlloc@ioBasicTooltipManager@@@std@@@4@$0A@@std@@@std@@@std@@QAEPAU_Node@?$_Tree_nod@V?$_Tmap_traits@KUTooltipAlloc@ioBasicTooltipManager@@U?$less@K@std@@V?$allocator@U?$pair@$$CBKUTooltipAlloc@ioBasicTooltipManager@@@std@@@4@$0A@@std@@@2@I@Z PROC ; std::allocator<std::_Tree_nod<std::_Tmap_traits<unsigned long,ioBasicTooltipManager::TooltipAlloc,std::less<unsigned long>,std::allocator<std::pair<unsigned long const ,ioBasicTooltipManager::TooltipAlloc> >,0> >::_Node>::allocate, COMDAT
; _this$ = ecx

; 186  : 		{	// allocate array of _Count elements

  00000	55		 push	 ebp
  00001	8b ec		 mov	 ebp, esp

; 187  : 		return (_Allocate(_Count, (pointer)0));

  00003	6a 00		 push	 0
  00005	ff 75 08	 push	 DWORD PTR __Count$[ebp]
  00008	e8 00 00 00 00	 call	 ??$_Allocate@U_Node@?$_Tree_nod@V?$_Tmap_traits@KUTooltipAlloc@ioBasicTooltipManager@@U?$less@K@std@@V?$allocator@U?$pair@$$CBKUTooltipAlloc@ioBasicTooltipManager@@@std@@@4@$0A@@std@@@std@@@std@@YAPAU_Node@?$_Tree_nod@V?$_Tmap_traits@KUTooltipAlloc@ioBasicTooltipManager@@U?$less@K@std@@V?$allocator@U?$pair@$$CBKUTooltipAlloc@ioBasicTooltipManager@@@std@@@4@$0A@@std@@@0@IPAU120@@Z ; std::_Allocate<std::_Tree_nod<std::_Tmap_traits<unsigned long,ioBasicTooltipManager::TooltipAlloc,std::less<unsigned long>,std::allocator<std::pair<unsigned long const ,ioBasicTooltipManager::TooltipAlloc> >,0> >::_Node>
  0000d	59		 pop	 ecx
  0000e	59		 pop	 ecx

; 188  : 		}

  0000f	5d		 pop	 ebp
  00010	c2 04 00	 ret	 4
?allocate@?$allocator@U_Node@?$_Tree_nod@V?$_Tmap_traits@KUTooltipAlloc@ioBasicTooltipManager@@U?$less@K@std@@V?$allocator@U?$pair@$$CBKUTooltipAlloc@ioBasicTooltipManager@@@std@@@4@$0A@@std@@@std@@@std@@QAEPAU_Node@?$_Tree_nod@V?$_Tmap_traits@KUTooltipAlloc@ioBasicTooltipManager@@U?$less@K@std@@V?$allocator@U?$pair@$$CBKUTooltipAlloc@ioBasicTooltipManager@@@std@@@4@$0A@@std@@@2@I@Z ENDP ; std::allocator<std::_Tree_nod<std::_Tmap_traits<unsigned long,ioBasicTooltipManager::TooltipAlloc,std::less<unsigned long>,std::allocator<std::pair<unsigned long const ,ioBasicTooltipManager::TooltipAlloc> >,0> >::_Node>::allocate
_TEXT	ENDS
PUBLIC	?allocate@?$allocator@UTooltipAlloc@ioBasicTooltipManager@@@std@@QAEPAUTooltipAlloc@ioBasicTooltipManager@@I@Z ; std::allocator<ioBasicTooltipManager::TooltipAlloc>::allocate
; Function compile flags: /Ogsp
;	COMDAT ?allocate@?$allocator@UTooltipAlloc@ioBasicTooltipManager@@@std@@QAEPAUTooltipAlloc@ioBasicTooltipManager@@I@Z
_TEXT	SEGMENT
__Count$ = 8						; size = 4
?allocate@?$allocator@UTooltipAlloc@ioBasicTooltipManager@@@std@@QAEPAUTooltipAlloc@ioBasicTooltipManager@@I@Z PROC ; std::allocator<ioBasicTooltipManager::TooltipAlloc>::allocate, COMDAT
; _this$ = ecx

; 186  : 		{	// allocate array of _Count elements

  00000	55		 push	 ebp
  00001	8b ec		 mov	 ebp, esp

; 187  : 		return (_Allocate(_Count, (pointer)0));

  00003	6a 00		 push	 0
  00005	ff 75 08	 push	 DWORD PTR __Count$[ebp]
  00008	e8 00 00 00 00	 call	 ??$_Allocate@UTooltipAlloc@ioBasicTooltipManager@@@std@@YAPAUTooltipAlloc@ioBasicTooltipManager@@IPAU12@@Z ; std::_Allocate<ioBasicTooltipManager::TooltipAlloc>
  0000d	59		 pop	 ecx
  0000e	59		 pop	 ecx

; 188  : 		}

  0000f	5d		 pop	 ebp
  00010	c2 04 00	 ret	 4
?allocate@?$allocator@UTooltipAlloc@ioBasicTooltipManager@@@std@@QAEPAUTooltipAlloc@ioBasicTooltipManager@@I@Z ENDP ; std::allocator<ioBasicTooltipManager::TooltipAlloc>::allocate
_TEXT	ENDS
PUBLIC	??0?$_Tree_unchecked_const_iterator@V?$_Tree_val@V?$_Tmap_traits@KUTooltipAlloc@ioBasicTooltipManager@@U?$less@K@std@@V?$allocator@U?$pair@$$CBKUTooltipAlloc@ioBasicTooltipManager@@@std@@@4@$0A@@std@@@std@@U_Iterator_base0@2@@std@@QAE@PAU_Node@?$_Tree_nod@V?$_Tmap_traits@KUTooltipAlloc@ioBasicTooltipManager@@U?$less@K@std@@V?$allocator@U?$pair@$$CBKUTooltipAlloc@ioBasicTooltipManager@@@std@@@4@$0A@@std@@@1@PBV?$_Tree_val@V?$_Tmap_traits@KUTooltipAlloc@ioBasicTooltipManager@@U?$less@K@std@@V?$allocator@U?$pair@$$CBKUTooltipAlloc@ioBasicTooltipManager@@@std@@@4@$0A@@std@@@1@@Z ; std::_Tree_unchecked_const_iterator<std::_Tree_val<std::_Tmap_traits<unsigned long,ioBasicTooltipManager::TooltipAlloc,std::less<unsigned long>,std::allocator<std::pair<unsigned long const ,ioBasicTooltipManager::TooltipAlloc> >,0> >,std::_Iterator_base0>::_Tree_unchecked_const_iterator<std::_Tree_val<std::_Tmap_traits<unsigned long,ioBasicTooltipManager::TooltipAlloc,std::less<unsigned long>,std::allocator<std::pair<unsigned long const ,ioBasicTooltipManager::TooltipAlloc> >,0> >,std::_Iterator_base0>
; Function compile flags: /Ogsp
; File c:\program files (x86)\microsoft visual studio 10.0\vc\include\xtree
;	COMDAT ??0?$_Tree_unchecked_const_iterator@V?$_Tree_val@V?$_Tmap_traits@KUTooltipAlloc@ioBasicTooltipManager@@U?$less@K@std@@V?$allocator@U?$pair@$$CBKUTooltipAlloc@ioBasicTooltipManager@@@std@@@4@$0A@@std@@@std@@U_Iterator_base0@2@@std@@QAE@PAU_Node@?$_Tree_nod@V?$_Tmap_traits@KUTooltipAlloc@ioBasicTooltipManager@@U?$less@K@std@@V?$allocator@U?$pair@$$CBKUTooltipAlloc@ioBasicTooltipManager@@@std@@@4@$0A@@std@@@1@PBV?$_Tree_val@V?$_Tmap_traits@KUTooltipAlloc@ioBasicTooltipManager@@U?$less@K@std@@V?$allocator@U?$pair@$$CBKUTooltipAlloc@ioBasicTooltipManager@@@std@@@4@$0A@@std@@@1@@Z
_TEXT	SEGMENT
__Pnode$ = 8						; size = 4
__Plist$ = 12						; size = 4
??0?$_Tree_unchecked_const_iterator@V?$_Tree_val@V?$_Tmap_traits@KUTooltipAlloc@ioBasicTooltipManager@@U?$less@K@std@@V?$allocator@U?$pair@$$CBKUTooltipAlloc@ioBasicTooltipManager@@@std@@@4@$0A@@std@@@std@@U_Iterator_base0@2@@std@@QAE@PAU_Node@?$_Tree_nod@V?$_Tmap_traits@KUTooltipAlloc@ioBasicTooltipManager@@U?$less@K@std@@V?$allocator@U?$pair@$$CBKUTooltipAlloc@ioBasicTooltipManager@@@std@@@4@$0A@@std@@@1@PBV?$_Tree_val@V?$_Tmap_traits@KUTooltipAlloc@ioBasicTooltipManager@@U?$less@K@std@@V?$allocator@U?$pair@$$CBKUTooltipAlloc@ioBasicTooltipManager@@@std@@@4@$0A@@std@@@1@@Z PROC ; std::_Tree_unchecked_const_iterator<std::_Tree_val<std::_Tmap_traits<unsigned long,ioBasicTooltipManager::TooltipAlloc,std::less<unsigned long>,std::allocator<std::pair<unsigned long const ,ioBasicTooltipManager::TooltipAlloc> >,0> >,std::_Iterator_base0>::_Tree_unchecked_const_iterator<std::_Tree_val<std::_Tmap_traits<unsigned long,ioBasicTooltipManager::TooltipAlloc,std::less<unsigned long>,std::allocator<std::pair<unsigned long const ,ioBasicTooltipManager::TooltipAlloc> >,0> >,std::_Iterator_base0>, COMDAT
; _this$ = ecx

; 43   : 		{	// construct with node pointer _Pnode

  00000	55		 push	 ebp
  00001	8b ec		 mov	 ebp, esp
  00003	8b c1		 mov	 eax, ecx
  00005	8b 4d 08	 mov	 ecx, DWORD PTR __Pnode$[ebp]
  00008	89 08		 mov	 DWORD PTR [eax], ecx

; 44   : 		this->_Adopt(_Plist);
; 45   : 		}

  0000a	5d		 pop	 ebp
  0000b	c2 08 00	 ret	 8
??0?$_Tree_unchecked_const_iterator@V?$_Tree_val@V?$_Tmap_traits@KUTooltipAlloc@ioBasicTooltipManager@@U?$less@K@std@@V?$allocator@U?$pair@$$CBKUTooltipAlloc@ioBasicTooltipManager@@@std@@@4@$0A@@std@@@std@@U_Iterator_base0@2@@std@@QAE@PAU_Node@?$_Tree_nod@V?$_Tmap_traits@KUTooltipAlloc@ioBasicTooltipManager@@U?$less@K@std@@V?$allocator@U?$pair@$$CBKUTooltipAlloc@ioBasicTooltipManager@@@std@@@4@$0A@@std@@@1@PBV?$_Tree_val@V?$_Tmap_traits@KUTooltipAlloc@ioBasicTooltipManager@@U?$less@K@std@@V?$allocator@U?$pair@$$CBKUTooltipAlloc@ioBasicTooltipManager@@@std@@@4@$0A@@std@@@1@@Z ENDP ; std::_Tree_unchecked_const_iterator<std::_Tree_val<std::_Tmap_traits<unsigned long,ioBasicTooltipManager::TooltipAlloc,std::less<unsigned long>,std::allocator<std::pair<unsigned long const ,ioBasicTooltipManager::TooltipAlloc> >,0> >,std::_Iterator_base0>::_Tree_unchecked_const_iterator<std::_Tree_val<std::_Tmap_traits<unsigned long,ioBasicTooltipManager::TooltipAlloc,std::less<unsigned long>,std::allocator<std::pair<unsigned long const ,ioBasicTooltipManager::TooltipAlloc> >,0> >,std::_Iterator_base0>
_TEXT	ENDS
PUBLIC	?_Lrotate@?$_Tree@V?$_Tmap_traits@KUTooltipAlloc@ioBasicTooltipManager@@U?$less@K@std@@V?$allocator@U?$pair@$$CBKUTooltipAlloc@ioBasicTooltipManager@@@std@@@4@$0A@@std@@@std@@IAEXPAU_Node@?$_Tree_nod@V?$_Tmap_traits@KUTooltipAlloc@ioBasicTooltipManager@@U?$less@K@std@@V?$allocator@U?$pair@$$CBKUTooltipAlloc@ioBasicTooltipManager@@@std@@@4@$0A@@std@@@2@@Z ; std::_Tree<std::_Tmap_traits<unsigned long,ioBasicTooltipManager::TooltipAlloc,std::less<unsigned long>,std::allocator<std::pair<unsigned long const ,ioBasicTooltipManager::TooltipAlloc> >,0> >::_Lrotate
; Function compile flags: /Ogsp
;	COMDAT ?_Lrotate@?$_Tree@V?$_Tmap_traits@KUTooltipAlloc@ioBasicTooltipManager@@U?$less@K@std@@V?$allocator@U?$pair@$$CBKUTooltipAlloc@ioBasicTooltipManager@@@std@@@4@$0A@@std@@@std@@IAEXPAU_Node@?$_Tree_nod@V?$_Tmap_traits@KUTooltipAlloc@ioBasicTooltipManager@@U?$less@K@std@@V?$allocator@U?$pair@$$CBKUTooltipAlloc@ioBasicTooltipManager@@@std@@@4@$0A@@std@@@2@@Z
_TEXT	SEGMENT
__Wherenode$ = 8					; size = 4
?_Lrotate@?$_Tree@V?$_Tmap_traits@KUTooltipAlloc@ioBasicTooltipManager@@U?$less@K@std@@V?$allocator@U?$pair@$$CBKUTooltipAlloc@ioBasicTooltipManager@@@std@@@4@$0A@@std@@@std@@IAEXPAU_Node@?$_Tree_nod@V?$_Tmap_traits@KUTooltipAlloc@ioBasicTooltipManager@@U?$less@K@std@@V?$allocator@U?$pair@$$CBKUTooltipAlloc@ioBasicTooltipManager@@@std@@@4@$0A@@std@@@2@@Z PROC ; std::_Tree<std::_Tmap_traits<unsigned long,ioBasicTooltipManager::TooltipAlloc,std::less<unsigned long>,std::allocator<std::pair<unsigned long const ,ioBasicTooltipManager::TooltipAlloc> >,0> >::_Lrotate, COMDAT
; _this$ = ecx

; 1763 : 		{	// promote right node to root of subtree

  00000	55		 push	 ebp
  00001	8b ec		 mov	 ebp, esp

; 1764 : 		_Nodeptr _Pnode = this->_Right(_Wherenode);

  00003	8b 55 08	 mov	 edx, DWORD PTR __Wherenode$[ebp]
  00006	8b 42 08	 mov	 eax, DWORD PTR [edx+8]
  00009	56		 push	 esi

; 1765 : 		this->_Right(_Wherenode) = this->_Left(_Pnode);

  0000a	8b 30		 mov	 esi, DWORD PTR [eax]
  0000c	89 72 08	 mov	 DWORD PTR [edx+8], esi

; 1766 : 
; 1767 : 		if (!this->_Isnil(this->_Left(_Pnode)))

  0000f	8b 30		 mov	 esi, DWORD PTR [eax]
  00011	80 7e 31 00	 cmp	 BYTE PTR [esi+49], 0
  00015	75 03		 jne	 SHORT $LN5@Lrotate

; 1768 : 			this->_Parent(this->_Left(_Pnode)) = _Wherenode;

  00017	89 56 04	 mov	 DWORD PTR [esi+4], edx
$LN5@Lrotate:

; 1769 : 		this->_Parent(_Pnode) = this->_Parent(_Wherenode);

  0001a	8b 72 04	 mov	 esi, DWORD PTR [edx+4]
  0001d	89 70 04	 mov	 DWORD PTR [eax+4], esi

; 1770 : 
; 1771 : 		if (_Wherenode == _Root())

  00020	8b 49 04	 mov	 ecx, DWORD PTR [ecx+4]
  00023	5e		 pop	 esi
  00024	3b 51 04	 cmp	 edx, DWORD PTR [ecx+4]
  00027	75 05		 jne	 SHORT $LN4@Lrotate

; 1772 : 			_Root() = _Pnode;

  00029	89 41 04	 mov	 DWORD PTR [ecx+4], eax

; 1773 : 		else if (_Wherenode == this->_Left(this->_Parent(_Wherenode)))

  0002c	eb 0e		 jmp	 SHORT $LN1@Lrotate
$LN4@Lrotate:
  0002e	8b 4a 04	 mov	 ecx, DWORD PTR [edx+4]
  00031	3b 11		 cmp	 edx, DWORD PTR [ecx]
  00033	75 04		 jne	 SHORT $LN2@Lrotate

; 1774 : 			this->_Left(this->_Parent(_Wherenode)) = _Pnode;

  00035	89 01		 mov	 DWORD PTR [ecx], eax

; 1775 : 		else

  00037	eb 03		 jmp	 SHORT $LN1@Lrotate
$LN2@Lrotate:

; 1776 : 			this->_Right(this->_Parent(_Wherenode)) = _Pnode;

  00039	89 41 08	 mov	 DWORD PTR [ecx+8], eax
$LN1@Lrotate:

; 1777 : 
; 1778 : 		this->_Left(_Pnode) = _Wherenode;

  0003c	89 10		 mov	 DWORD PTR [eax], edx

; 1779 : 		this->_Parent(_Wherenode) = _Pnode;

  0003e	89 42 04	 mov	 DWORD PTR [edx+4], eax

; 1780 : 		}

  00041	5d		 pop	 ebp
  00042	c2 04 00	 ret	 4
?_Lrotate@?$_Tree@V?$_Tmap_traits@KUTooltipAlloc@ioBasicTooltipManager@@U?$less@K@std@@V?$allocator@U?$pair@$$CBKUTooltipAlloc@ioBasicTooltipManager@@@std@@@4@$0A@@std@@@std@@IAEXPAU_Node@?$_Tree_nod@V?$_Tmap_traits@KUTooltipAlloc@ioBasicTooltipManager@@U?$less@K@std@@V?$allocator@U?$pair@$$CBKUTooltipAlloc@ioBasicTooltipManager@@@std@@@4@$0A@@std@@@2@@Z ENDP ; std::_Tree<std::_Tmap_traits<unsigned long,ioBasicTooltipManager::TooltipAlloc,std::less<unsigned long>,std::allocator<std::pair<unsigned long const ,ioBasicTooltipManager::TooltipAlloc> >,0> >::_Lrotate
_TEXT	ENDS
PUBLIC	?_Key@?$_Tree_val@V?$_Tmap_traits@KUTooltipAlloc@ioBasicTooltipManager@@U?$less@K@std@@V?$allocator@U?$pair@$$CBKUTooltipAlloc@ioBasicTooltipManager@@@std@@@4@$0A@@std@@@std@@SAAAKPAU_Node@?$_Tree_nod@V?$_Tmap_traits@KUTooltipAlloc@ioBasicTooltipManager@@U?$less@K@std@@V?$allocator@U?$pair@$$CBKUTooltipAlloc@ioBasicTooltipManager@@@std@@@4@$0A@@std@@@2@@Z ; std::_Tree_val<std::_Tmap_traits<unsigned long,ioBasicTooltipManager::TooltipAlloc,std::less<unsigned long>,std::allocator<std::pair<unsigned long const ,ioBasicTooltipManager::TooltipAlloc> >,0> >::_Key
; Function compile flags: /Ogsp
;	COMDAT ?_Key@?$_Tree_val@V?$_Tmap_traits@KUTooltipAlloc@ioBasicTooltipManager@@U?$less@K@std@@V?$allocator@U?$pair@$$CBKUTooltipAlloc@ioBasicTooltipManager@@@std@@@4@$0A@@std@@@std@@SAAAKPAU_Node@?$_Tree_nod@V?$_Tmap_traits@KUTooltipAlloc@ioBasicTooltipManager@@U?$less@K@std@@V?$allocator@U?$pair@$$CBKUTooltipAlloc@ioBasicTooltipManager@@@std@@@4@$0A@@std@@@2@@Z
_TEXT	SEGMENT
__Pnode$ = 8						; size = 4
?_Key@?$_Tree_val@V?$_Tmap_traits@KUTooltipAlloc@ioBasicTooltipManager@@U?$less@K@std@@V?$allocator@U?$pair@$$CBKUTooltipAlloc@ioBasicTooltipManager@@@std@@@4@$0A@@std@@@std@@SAAAKPAU_Node@?$_Tree_nod@V?$_Tmap_traits@KUTooltipAlloc@ioBasicTooltipManager@@U?$less@K@std@@V?$allocator@U?$pair@$$CBKUTooltipAlloc@ioBasicTooltipManager@@@std@@@4@$0A@@std@@@2@@Z PROC ; std::_Tree_val<std::_Tmap_traits<unsigned long,ioBasicTooltipManager::TooltipAlloc,std::less<unsigned long>,std::allocator<std::pair<unsigned long const ,ioBasicTooltipManager::TooltipAlloc> >,0> >::_Key, COMDAT

; 616  : 		{	// return reference to key in node

  00000	55		 push	 ebp
  00001	8b ec		 mov	 ebp, esp

; 617  : 		return ((key_type&)_Traits::_Kfn(_Myval(_Pnode)));

  00003	8b 45 08	 mov	 eax, DWORD PTR __Pnode$[ebp]
  00006	83 c0 0c	 add	 eax, 12			; 0000000cH

; 618  : 		}

  00009	5d		 pop	 ebp
  0000a	c3		 ret	 0
?_Key@?$_Tree_val@V?$_Tmap_traits@KUTooltipAlloc@ioBasicTooltipManager@@U?$less@K@std@@V?$allocator@U?$pair@$$CBKUTooltipAlloc@ioBasicTooltipManager@@@std@@@4@$0A@@std@@@std@@SAAAKPAU_Node@?$_Tree_nod@V?$_Tmap_traits@KUTooltipAlloc@ioBasicTooltipManager@@U?$less@K@std@@V?$allocator@U?$pair@$$CBKUTooltipAlloc@ioBasicTooltipManager@@@std@@@4@$0A@@std@@@2@@Z ENDP ; std::_Tree_val<std::_Tmap_traits<unsigned long,ioBasicTooltipManager::TooltipAlloc,std::less<unsigned long>,std::allocator<std::pair<unsigned long const ,ioBasicTooltipManager::TooltipAlloc> >,0> >::_Key
_TEXT	ENDS
PUBLIC	?max_size@?$_Tree@V?$_Tmap_traits@KUTooltipAlloc@ioBasicTooltipManager@@U?$less@K@std@@V?$allocator@U?$pair@$$CBKUTooltipAlloc@ioBasicTooltipManager@@@std@@@4@$0A@@std@@@std@@QBEIXZ ; std::_Tree<std::_Tmap_traits<unsigned long,ioBasicTooltipManager::TooltipAlloc,std::less<unsigned long>,std::allocator<std::pair<unsigned long const ,ioBasicTooltipManager::TooltipAlloc> >,0> >::max_size
; Function compile flags: /Ogsp
;	COMDAT ?max_size@?$_Tree@V?$_Tmap_traits@KUTooltipAlloc@ioBasicTooltipManager@@U?$less@K@std@@V?$allocator@U?$pair@$$CBKUTooltipAlloc@ioBasicTooltipManager@@@std@@@4@$0A@@std@@@std@@QBEIXZ
_TEXT	SEGMENT
?max_size@?$_Tree@V?$_Tmap_traits@KUTooltipAlloc@ioBasicTooltipManager@@U?$less@K@std@@V?$allocator@U?$pair@$$CBKUTooltipAlloc@ioBasicTooltipManager@@@std@@@4@$0A@@std@@@std@@QBEIXZ PROC ; std::_Tree<std::_Tmap_traits<unsigned long,ioBasicTooltipManager::TooltipAlloc,std::less<unsigned long>,std::allocator<std::pair<unsigned long const ,ioBasicTooltipManager::TooltipAlloc> >,0> >::max_size, COMDAT
; _this$ = ecx

; 874  : 		return (this->_Alval.max_size());

  00000	b8 c7 71 1c 07	 mov	 eax, 119304647		; 071c71c7H

; 875  : 		}

  00005	c3		 ret	 0
?max_size@?$_Tree@V?$_Tmap_traits@KUTooltipAlloc@ioBasicTooltipManager@@U?$less@K@std@@V?$allocator@U?$pair@$$CBKUTooltipAlloc@ioBasicTooltipManager@@@std@@@4@$0A@@std@@@std@@QBEIXZ ENDP ; std::_Tree<std::_Tmap_traits<unsigned long,ioBasicTooltipManager::TooltipAlloc,std::less<unsigned long>,std::allocator<std::pair<unsigned long const ,ioBasicTooltipManager::TooltipAlloc> >,0> >::max_size
_TEXT	ENDS
PUBLIC	??0?$_Pair_base@V?$_Tree_iterator@V?$_Tree_val@V?$_Tmap_traits@KUTooltipAlloc@ioBasicTooltipManager@@U?$less@K@std@@V?$allocator@U?$pair@$$CBKUTooltipAlloc@ioBasicTooltipManager@@@std@@@4@$0A@@std@@@std@@@std@@_N@std@@QAE@$$QAV?$_Tree_iterator@V?$_Tree_val@V?$_Tmap_traits@KUTooltipAlloc@ioBasicTooltipManager@@U?$less@K@std@@V?$allocator@U?$pair@$$CBKUTooltipAlloc@ioBasicTooltipManager@@@std@@@4@$0A@@std@@@std@@@1@$$QA_N@Z ; std::_Pair_base<std::_Tree_iterator<std::_Tree_val<std::_Tmap_traits<unsigned long,ioBasicTooltipManager::TooltipAlloc,std::less<unsigned long>,std::allocator<std::pair<unsigned long const ,ioBasicTooltipManager::TooltipAlloc> >,0> > >,bool>::_Pair_base<std::_Tree_iterator<std::_Tree_val<std::_Tmap_traits<unsigned long,ioBasicTooltipManager::TooltipAlloc,std::less<unsigned long>,std::allocator<std::pair<unsigned long const ,ioBasicTooltipManager::TooltipAlloc> >,0> > >,bool>
; Function compile flags: /Ogsp
; File c:\program files (x86)\microsoft visual studio 10.0\vc\include\utility
;	COMDAT ??0?$_Pair_base@V?$_Tree_iterator@V?$_Tree_val@V?$_Tmap_traits@KUTooltipAlloc@ioBasicTooltipManager@@U?$less@K@std@@V?$allocator@U?$pair@$$CBKUTooltipAlloc@ioBasicTooltipManager@@@std@@@4@$0A@@std@@@std@@@std@@_N@std@@QAE@$$QAV?$_Tree_iterator@V?$_Tree_val@V?$_Tmap_traits@KUTooltipAlloc@ioBasicTooltipManager@@U?$less@K@std@@V?$allocator@U?$pair@$$CBKUTooltipAlloc@ioBasicTooltipManager@@@std@@@4@$0A@@std@@@std@@@1@$$QA_N@Z
_TEXT	SEGMENT
__Val1$ = 8						; size = 4
__Val2$ = 12						; size = 4
??0?$_Pair_base@V?$_Tree_iterator@V?$_Tree_val@V?$_Tmap_traits@KUTooltipAlloc@ioBasicTooltipManager@@U?$less@K@std@@V?$allocator@U?$pair@$$CBKUTooltipAlloc@ioBasicTooltipManager@@@std@@@4@$0A@@std@@@std@@@std@@_N@std@@QAE@$$QAV?$_Tree_iterator@V?$_Tree_val@V?$_Tmap_traits@KUTooltipAlloc@ioBasicTooltipManager@@U?$less@K@std@@V?$allocator@U?$pair@$$CBKUTooltipAlloc@ioBasicTooltipManager@@@std@@@4@$0A@@std@@@std@@@1@$$QA_N@Z PROC ; std::_Pair_base<std::_Tree_iterator<std::_Tree_val<std::_Tmap_traits<unsigned long,ioBasicTooltipManager::TooltipAlloc,std::less<unsigned long>,std::allocator<std::pair<unsigned long const ,ioBasicTooltipManager::TooltipAlloc> >,0> > >,bool>::_Pair_base<std::_Tree_iterator<std::_Tree_val<std::_Tmap_traits<unsigned long,ioBasicTooltipManager::TooltipAlloc,std::less<unsigned long>,std::allocator<std::pair<unsigned long const ,ioBasicTooltipManager::TooltipAlloc> >,0> > >,bool>, COMDAT
; _this$ = ecx

; 145  : 		{	// construct from specified values

  00000	55		 push	 ebp
  00001	8b ec		 mov	 ebp, esp
  00003	8b c1		 mov	 eax, ecx
  00005	8b 4d 08	 mov	 ecx, DWORD PTR __Val1$[ebp]
  00008	8b 09		 mov	 ecx, DWORD PTR [ecx]
  0000a	89 08		 mov	 DWORD PTR [eax], ecx
  0000c	8b 4d 0c	 mov	 ecx, DWORD PTR __Val2$[ebp]
  0000f	8a 09		 mov	 cl, BYTE PTR [ecx]
  00011	88 48 04	 mov	 BYTE PTR [eax+4], cl

; 146  : 		}

  00014	5d		 pop	 ebp
  00015	c2 08 00	 ret	 8
??0?$_Pair_base@V?$_Tree_iterator@V?$_Tree_val@V?$_Tmap_traits@KUTooltipAlloc@ioBasicTooltipManager@@U?$less@K@std@@V?$allocator@U?$pair@$$CBKUTooltipAlloc@ioBasicTooltipManager@@@std@@@4@$0A@@std@@@std@@@std@@_N@std@@QAE@$$QAV?$_Tree_iterator@V?$_Tree_val@V?$_Tmap_traits@KUTooltipAlloc@ioBasicTooltipManager@@U?$less@K@std@@V?$allocator@U?$pair@$$CBKUTooltipAlloc@ioBasicTooltipManager@@@std@@@4@$0A@@std@@@std@@@1@$$QA_N@Z ENDP ; std::_Pair_base<std::_Tree_iterator<std::_Tree_val<std::_Tmap_traits<unsigned long,ioBasicTooltipManager::TooltipAlloc,std::less<unsigned long>,std::allocator<std::pair<unsigned long const ,ioBasicTooltipManager::TooltipAlloc> >,0> > >,bool>::_Pair_base<std::_Tree_iterator<std::_Tree_val<std::_Tmap_traits<unsigned long,ioBasicTooltipManager::TooltipAlloc,std::less<unsigned long>,std::allocator<std::pair<unsigned long const ,ioBasicTooltipManager::TooltipAlloc> >,0> > >,bool>
_TEXT	ENDS
PUBLIC	??F?$_Tree_const_iterator@V?$_Tree_val@V?$_Tmap_traits@KUTooltipAlloc@ioBasicTooltipManager@@U?$less@K@std@@V?$allocator@U?$pair@$$CBKUTooltipAlloc@ioBasicTooltipManager@@@std@@@4@$0A@@std@@@std@@@std@@QAEAAV01@XZ ; std::_Tree_const_iterator<std::_Tree_val<std::_Tmap_traits<unsigned long,ioBasicTooltipManager::TooltipAlloc,std::less<unsigned long>,std::allocator<std::pair<unsigned long const ,ioBasicTooltipManager::TooltipAlloc> >,0> > >::operator--
; Function compile flags: /Ogsp
; File c:\program files (x86)\microsoft visual studio 10.0\vc\include\xtree
;	COMDAT ??F?$_Tree_const_iterator@V?$_Tree_val@V?$_Tmap_traits@KUTooltipAlloc@ioBasicTooltipManager@@U?$less@K@std@@V?$allocator@U?$pair@$$CBKUTooltipAlloc@ioBasicTooltipManager@@@std@@@4@$0A@@std@@@std@@@std@@QAEAAV01@XZ
_TEXT	SEGMENT
??F?$_Tree_const_iterator@V?$_Tree_val@V?$_Tmap_traits@KUTooltipAlloc@ioBasicTooltipManager@@U?$less@K@std@@V?$allocator@U?$pair@$$CBKUTooltipAlloc@ioBasicTooltipManager@@@std@@@4@$0A@@std@@@std@@@std@@QAEAAV01@XZ PROC ; std::_Tree_const_iterator<std::_Tree_val<std::_Tmap_traits<unsigned long,ioBasicTooltipManager::TooltipAlloc,std::less<unsigned long>,std::allocator<std::pair<unsigned long const ,ioBasicTooltipManager::TooltipAlloc> >,0> > >::operator--, COMDAT
; _this$ = ecx

; 277  : 		{	// predecrement

  00000	56		 push	 esi
  00001	8b f1		 mov	 esi, ecx

; 278  :  #if _ITERATOR_DEBUG_LEVEL == 2
; 279  : 		if (this->_Getcont() == 0
; 280  : 			|| this->_Ptr == 0)
; 281  : 			{	// report error
; 282  : 			_DEBUG_ERROR("map/set iterator not decrementable");
; 283  : 			_SCL_SECURE_OUT_OF_RANGE;
; 284  : 			}
; 285  : 
; 286  : 		_Nodeptr _Ptrsav = this->_Ptr;
; 287  : 		--(*(_Mybase *)this);
; 288  : 		if (_Ptrsav == this->_Ptr)
; 289  : 			{	// report error
; 290  : 			_DEBUG_ERROR("map/set iterator not decrementable");
; 291  : 			_SCL_SECURE_OUT_OF_RANGE;
; 292  : 			}
; 293  : 
; 294  :  #elif _ITERATOR_DEBUG_LEVEL == 1
; 295  : 		_SCL_SECURE_VALIDATE(this->_Getcont() != 0 && this->_Ptr != 0);
; 296  : 
; 297  : 		_Nodeptr _Ptrsav = this->_Ptr;
; 298  : 		--(*(_Mybase *)this);
; 299  : 		_SCL_SECURE_VALIDATE(_Ptrsav != this->_Ptr);
; 300  : 
; 301  :  #else /* _ITERATOR_DEBUG_LEVEL == 0 */
; 302  : 		--(*(_Mybase *)this);

  00003	e8 00 00 00 00	 call	 ??F?$_Tree_unchecked_const_iterator@V?$_Tree_val@V?$_Tmap_traits@KUTooltipAlloc@ioBasicTooltipManager@@U?$less@K@std@@V?$allocator@U?$pair@$$CBKUTooltipAlloc@ioBasicTooltipManager@@@std@@@4@$0A@@std@@@std@@U_Iterator_base0@2@@std@@QAEAAV01@XZ ; std::_Tree_unchecked_const_iterator<std::_Tree_val<std::_Tmap_traits<unsigned long,ioBasicTooltipManager::TooltipAlloc,std::less<unsigned long>,std::allocator<std::pair<unsigned long const ,ioBasicTooltipManager::TooltipAlloc> >,0> >,std::_Iterator_base0>::operator--

; 303  :  #endif /* _ITERATOR_DEBUG_LEVEL */
; 304  : 
; 305  : 		return (*this);

  00008	8b c6		 mov	 eax, esi
  0000a	5e		 pop	 esi

; 306  : 		}

  0000b	c3		 ret	 0
??F?$_Tree_const_iterator@V?$_Tree_val@V?$_Tmap_traits@KUTooltipAlloc@ioBasicTooltipManager@@U?$less@K@std@@V?$allocator@U?$pair@$$CBKUTooltipAlloc@ioBasicTooltipManager@@@std@@@4@$0A@@std@@@std@@@std@@QAEAAV01@XZ ENDP ; std::_Tree_const_iterator<std::_Tree_val<std::_Tmap_traits<unsigned long,ioBasicTooltipManager::TooltipAlloc,std::less<unsigned long>,std::allocator<std::pair<unsigned long const ,ioBasicTooltipManager::TooltipAlloc> >,0> > >::operator--
_TEXT	ENDS
PUBLIC	?_Buynode@?$_Tree_val@V?$_Tmap_traits@KUTooltipAlloc@ioBasicTooltipManager@@U?$less@K@std@@V?$allocator@U?$pair@$$CBKUTooltipAlloc@ioBasicTooltipManager@@@std@@@4@$0A@@std@@@std@@QAEPAU_Node@?$_Tree_nod@V?$_Tmap_traits@KUTooltipAlloc@ioBasicTooltipManager@@U?$less@K@std@@V?$allocator@U?$pair@$$CBKUTooltipAlloc@ioBasicTooltipManager@@@std@@@4@$0A@@std@@@2@XZ ; std::_Tree_val<std::_Tmap_traits<unsigned long,ioBasicTooltipManager::TooltipAlloc,std::less<unsigned long>,std::allocator<std::pair<unsigned long const ,ioBasicTooltipManager::TooltipAlloc> >,0> >::_Buynode
; Function compile flags: /Ogsp
;	COMDAT ?_Buynode@?$_Tree_val@V?$_Tmap_traits@KUTooltipAlloc@ioBasicTooltipManager@@U?$less@K@std@@V?$allocator@U?$pair@$$CBKUTooltipAlloc@ioBasicTooltipManager@@@std@@@4@$0A@@std@@@std@@QAEPAU_Node@?$_Tree_nod@V?$_Tmap_traits@KUTooltipAlloc@ioBasicTooltipManager@@U?$less@K@std@@V?$allocator@U?$pair@$$CBKUTooltipAlloc@ioBasicTooltipManager@@@std@@@4@$0A@@std@@@2@XZ
_TEXT	SEGMENT
$T509362 = -16						; size = 12
$T509346 = -4						; size = 4
?_Buynode@?$_Tree_val@V?$_Tmap_traits@KUTooltipAlloc@ioBasicTooltipManager@@U?$less@K@std@@V?$allocator@U?$pair@$$CBKUTooltipAlloc@ioBasicTooltipManager@@@std@@@4@$0A@@std@@@std@@QAEPAU_Node@?$_Tree_nod@V?$_Tmap_traits@KUTooltipAlloc@ioBasicTooltipManager@@U?$less@K@std@@V?$allocator@U?$pair@$$CBKUTooltipAlloc@ioBasicTooltipManager@@@std@@@4@$0A@@std@@@2@XZ PROC ; std::_Tree_val<std::_Tmap_traits<unsigned long,ioBasicTooltipManager::TooltipAlloc,std::less<unsigned long>,std::allocator<std::pair<unsigned long const ,ioBasicTooltipManager::TooltipAlloc> >,0> >::_Buynode, COMDAT
; _this$ = ecx

; 559  : 		{	// allocate a node

  00000	55		 push	 ebp
  00001	8b ec		 mov	 ebp, esp
  00003	83 ec 10	 sub	 esp, 16			; 00000010H
  00006	56		 push	 esi

; 560  : 		_Nodeptr _Wherenode = this->_Alnod.allocate(1);

  00007	6a 34		 push	 52			; 00000034H
  00009	8b f1		 mov	 esi, ecx
  0000b	e8 00 00 00 00	 call	 ??2@YAPAXI@Z		; operator new
  00010	59		 pop	 ecx
  00011	33 c9		 xor	 ecx, ecx
  00013	3b c1		 cmp	 eax, ecx
  00015	74 18		 je	 SHORT $LN5@Buynode

; 561  : 
; 562  : 		this->_Left(_Wherenode) = this->_Myhead;

  00017	8b 56 04	 mov	 edx, DWORD PTR [esi+4]
  0001a	89 10		 mov	 DWORD PTR [eax], edx

; 563  : 		this->_Parent(_Wherenode) = this->_Myhead;

  0001c	8b 56 04	 mov	 edx, DWORD PTR [esi+4]
  0001f	89 50 04	 mov	 DWORD PTR [eax+4], edx

; 564  : 		this->_Right(_Wherenode) = this->_Myhead;

  00022	8b 56 04	 mov	 edx, DWORD PTR [esi+4]
  00025	89 50 08	 mov	 DWORD PTR [eax+8], edx

; 565  : 		this->_Color(_Wherenode) = this->_Red;

  00028	66 89 48 30	 mov	 WORD PTR [eax+48], cx
  0002c	5e		 pop	 esi

; 566  : 		this->_Isnil(_Wherenode) = false;
; 567  : 		return (_Wherenode);
; 568  : 		}

  0002d	c9		 leave
  0002e	c3		 ret	 0

; 560  : 		_Nodeptr _Wherenode = this->_Alnod.allocate(1);

$LN5@Buynode:
  0002f	8d 45 fc	 lea	 eax, DWORD PTR $T509346[ebp]
  00032	89 4d fc	 mov	 DWORD PTR $T509346[ebp], ecx
  00035	50		 push	 eax
  00036	8d 4d f0	 lea	 ecx, DWORD PTR $T509362[ebp]
  00039	ff 15 00 00 00
	00		 call	 DWORD PTR __imp_??0exception@std@@QAE@ABQBD@Z
  0003f	68 00 00 00 00	 push	 OFFSET __TI2?AVbad_alloc@std@@
  00044	8d 45 f0	 lea	 eax, DWORD PTR $T509362[ebp]
  00047	50		 push	 eax
  00048	c7 45 f0 00 00
	00 00		 mov	 DWORD PTR $T509362[ebp], OFFSET ??_7bad_alloc@std@@6B@
  0004f	e8 00 00 00 00	 call	 __CxxThrowException@8
$LN27@Buynode:
$LN26@Buynode:
  00054	cc		 int	 3
?_Buynode@?$_Tree_val@V?$_Tmap_traits@KUTooltipAlloc@ioBasicTooltipManager@@U?$less@K@std@@V?$allocator@U?$pair@$$CBKUTooltipAlloc@ioBasicTooltipManager@@@std@@@4@$0A@@std@@@std@@QAEPAU_Node@?$_Tree_nod@V?$_Tmap_traits@KUTooltipAlloc@ioBasicTooltipManager@@U?$less@K@std@@V?$allocator@U?$pair@$$CBKUTooltipAlloc@ioBasicTooltipManager@@@std@@@4@$0A@@std@@@2@XZ ENDP ; std::_Tree_val<std::_Tmap_traits<unsigned long,ioBasicTooltipManager::TooltipAlloc,std::less<unsigned long>,std::allocator<std::pair<unsigned long const ,ioBasicTooltipManager::TooltipAlloc> >,0> >::_Buynode
_TEXT	ENDS
PUBLIC	??$?0AAV?$_Tree_iterator@V?$_Tree_val@V?$_Tmap_traits@KUTooltipAlloc@ioBasicTooltipManager@@U?$less@K@std@@V?$allocator@U?$pair@$$CBKUTooltipAlloc@ioBasicTooltipManager@@@std@@@4@$0A@@std@@@std@@@std@@_N@?$_Pair_base@V?$_Tree_iterator@V?$_Tree_val@V?$_Tmap_traits@KUTooltipAlloc@ioBasicTooltipManager@@U?$less@K@std@@V?$allocator@U?$pair@$$CBKUTooltipAlloc@ioBasicTooltipManager@@@std@@@4@$0A@@std@@@std@@@std@@_N@std@@QAE@AAV?$_Tree_iterator@V?$_Tree_val@V?$_Tmap_traits@KUTooltipAlloc@ioBasicTooltipManager@@U?$less@K@std@@V?$allocator@U?$pair@$$CBKUTooltipAlloc@ioBasicTooltipManager@@@std@@@4@$0A@@std@@@std@@@1@$$QA_N@Z ; std::_Pair_base<std::_Tree_iterator<std::_Tree_val<std::_Tmap_traits<unsigned long,ioBasicTooltipManager::TooltipAlloc,std::less<unsigned long>,std::allocator<std::pair<unsigned long const ,ioBasicTooltipManager::TooltipAlloc> >,0> > >,bool>::_Pair_base<std::_Tree_iterator<std::_Tree_val<std::_Tmap_traits<unsigned long,ioBasicTooltipManager::TooltipAlloc,std::less<unsigned long>,std::allocator<std::pair<unsigned long const ,ioBasicTooltipManager::TooltipAlloc> >,0> > >,bool><std::_Tree_iterator<std::_Tree_val<std::_Tmap_traits<unsigned long,ioBasicTooltipManager::TooltipAlloc,std::less<unsigned long>,std::allocator<std::pair<unsigned long const ,ioBasicTooltipManager::TooltipAlloc> >,0> > > &,bool>
; Function compile flags: /Ogsp
; File c:\program files (x86)\microsoft visual studio 10.0\vc\include\utility
;	COMDAT ??$?0AAV?$_Tree_iterator@V?$_Tree_val@V?$_Tmap_traits@KUTooltipAlloc@ioBasicTooltipManager@@U?$less@K@std@@V?$allocator@U?$pair@$$CBKUTooltipAlloc@ioBasicTooltipManager@@@std@@@4@$0A@@std@@@std@@@std@@_N@?$_Pair_base@V?$_Tree_iterator@V?$_Tree_val@V?$_Tmap_traits@KUTooltipAlloc@ioBasicTooltipManager@@U?$less@K@std@@V?$allocator@U?$pair@$$CBKUTooltipAlloc@ioBasicTooltipManager@@@std@@@4@$0A@@std@@@std@@@std@@_N@std@@QAE@AAV?$_Tree_iterator@V?$_Tree_val@V?$_Tmap_traits@KUTooltipAlloc@ioBasicTooltipManager@@U?$less@K@std@@V?$allocator@U?$pair@$$CBKUTooltipAlloc@ioBasicTooltipManager@@@std@@@4@$0A@@std@@@std@@@1@$$QA_N@Z
_TEXT	SEGMENT
__Val1$ = 8						; size = 4
__Val2$ = 12						; size = 4
??$?0AAV?$_Tree_iterator@V?$_Tree_val@V?$_Tmap_traits@KUTooltipAlloc@ioBasicTooltipManager@@U?$less@K@std@@V?$allocator@U?$pair@$$CBKUTooltipAlloc@ioBasicTooltipManager@@@std@@@4@$0A@@std@@@std@@@std@@_N@?$_Pair_base@V?$_Tree_iterator@V?$_Tree_val@V?$_Tmap_traits@KUTooltipAlloc@ioBasicTooltipManager@@U?$less@K@std@@V?$allocator@U?$pair@$$CBKUTooltipAlloc@ioBasicTooltipManager@@@std@@@4@$0A@@std@@@std@@@std@@_N@std@@QAE@AAV?$_Tree_iterator@V?$_Tree_val@V?$_Tmap_traits@KUTooltipAlloc@ioBasicTooltipManager@@U?$less@K@std@@V?$allocator@U?$pair@$$CBKUTooltipAlloc@ioBasicTooltipManager@@@std@@@4@$0A@@std@@@std@@@1@$$QA_N@Z PROC ; std::_Pair_base<std::_Tree_iterator<std::_Tree_val<std::_Tmap_traits<unsigned long,ioBasicTooltipManager::TooltipAlloc,std::less<unsigned long>,std::allocator<std::pair<unsigned long const ,ioBasicTooltipManager::TooltipAlloc> >,0> > >,bool>::_Pair_base<std::_Tree_iterator<std::_Tree_val<std::_Tmap_traits<unsigned long,ioBasicTooltipManager::TooltipAlloc,std::less<unsigned long>,std::allocator<std::pair<unsigned long const ,ioBasicTooltipManager::TooltipAlloc> >,0> > >,bool><std::_Tree_iterator<std::_Tree_val<std::_Tmap_traits<unsigned long,ioBasicTooltipManager::TooltipAlloc,std::less<unsigned long>,std::allocator<std::pair<unsigned long const ,ioBasicTooltipManager::TooltipAlloc> >,0> > > &,bool>, COMDAT
; _this$ = ecx

; 163  : 		{	// construct from moved values

  00000	55		 push	 ebp
  00001	8b ec		 mov	 ebp, esp
  00003	8b c1		 mov	 eax, ecx
  00005	8b 4d 08	 mov	 ecx, DWORD PTR __Val1$[ebp]
  00008	8b 09		 mov	 ecx, DWORD PTR [ecx]
  0000a	89 08		 mov	 DWORD PTR [eax], ecx
  0000c	8b 4d 0c	 mov	 ecx, DWORD PTR __Val2$[ebp]
  0000f	8a 09		 mov	 cl, BYTE PTR [ecx]
  00011	88 48 04	 mov	 BYTE PTR [eax+4], cl

; 164  : 		}

  00014	5d		 pop	 ebp
  00015	c2 08 00	 ret	 8
??$?0AAV?$_Tree_iterator@V?$_Tree_val@V?$_Tmap_traits@KUTooltipAlloc@ioBasicTooltipManager@@U?$less@K@std@@V?$allocator@U?$pair@$$CBKUTooltipAlloc@ioBasicTooltipManager@@@std@@@4@$0A@@std@@@std@@@std@@_N@?$_Pair_base@V?$_Tree_iterator@V?$_Tree_val@V?$_Tmap_traits@KUTooltipAlloc@ioBasicTooltipManager@@U?$less@K@std@@V?$allocator@U?$pair@$$CBKUTooltipAlloc@ioBasicTooltipManager@@@std@@@4@$0A@@std@@@std@@@std@@_N@std@@QAE@AAV?$_Tree_iterator@V?$_Tree_val@V?$_Tmap_traits@KUTooltipAlloc@ioBasicTooltipManager@@U?$less@K@std@@V?$allocator@U?$pair@$$CBKUTooltipAlloc@ioBasicTooltipManager@@@std@@@4@$0A@@std@@@std@@@1@$$QA_N@Z ENDP ; std::_Pair_base<std::_Tree_iterator<std::_Tree_val<std::_Tmap_traits<unsigned long,ioBasicTooltipManager::TooltipAlloc,std::less<unsigned long>,std::allocator<std::pair<unsigned long const ,ioBasicTooltipManager::TooltipAlloc> >,0> > >,bool>::_Pair_base<std::_Tree_iterator<std::_Tree_val<std::_Tmap_traits<unsigned long,ioBasicTooltipManager::TooltipAlloc,std::less<unsigned long>,std::allocator<std::pair<unsigned long const ,ioBasicTooltipManager::TooltipAlloc> >,0> > >,bool><std::_Tree_iterator<std::_Tree_val<std::_Tmap_traits<unsigned long,ioBasicTooltipManager::TooltipAlloc,std::less<unsigned long>,std::allocator<std::pair<unsigned long const ,ioBasicTooltipManager::TooltipAlloc> >,0> > > &,bool>
_TEXT	ENDS
PUBLIC	?c_str@?$basic_string@DU?$char_traits@D@std@@V?$allocator@D@2@@std@@QBEPBDXZ ; std::basic_string<char,std::char_traits<char>,std::allocator<char> >::c_str
; Function compile flags: /Ogsp
; File c:\program files (x86)\microsoft visual studio 10.0\vc\include\xstring
;	COMDAT ?c_str@?$basic_string@DU?$char_traits@D@std@@V?$allocator@D@2@@std@@QBEPBDXZ
_TEXT	SEGMENT
?c_str@?$basic_string@DU?$char_traits@D@std@@V?$allocator@D@2@@std@@QBEPBDXZ PROC ; std::basic_string<char,std::char_traits<char>,std::allocator<char> >::c_str, COMDAT
; _this$ = ecx

; 1497 : 		return (_Myptr());

  00000	83 79 14 10	 cmp	 DWORD PTR [ecx+20], 16	; 00000010H
  00004	72 03		 jb	 SHORT $LN5@c_str
  00006	8b 01		 mov	 eax, DWORD PTR [ecx]

; 1498 : 		}

  00008	c3		 ret	 0

; 1497 : 		return (_Myptr());

$LN5@c_str:
  00009	8b c1		 mov	 eax, ecx

; 1498 : 		}

  0000b	c3		 ret	 0
?c_str@?$basic_string@DU?$char_traits@D@std@@V?$allocator@D@2@@std@@QBEPBDXZ ENDP ; std::basic_string<char,std::char_traits<char>,std::allocator<char> >::c_str
_TEXT	ENDS
PUBLIC	?compare@?$basic_string@DU?$char_traits@D@std@@V?$allocator@D@2@@std@@QBEHIIPBDI@Z ; std::basic_string<char,std::char_traits<char>,std::allocator<char> >::compare
; Function compile flags: /Ogsp
;	COMDAT ?compare@?$basic_string@DU?$char_traits@D@std@@V?$allocator@D@2@@std@@QBEHIIPBDI@Z
_TEXT	SEGMENT
__Off$ = 8						; size = 4
__N0$ = 12						; size = 4
__Ptr$ = 16						; size = 4
__Count$ = 20						; size = 4
?compare@?$basic_string@DU?$char_traits@D@std@@V?$allocator@D@2@@std@@QBEHIIPBDI@Z PROC ; std::basic_string<char,std::char_traits<char>,std::allocator<char> >::compare, COMDAT
; _this$ = ecx

; 1888 : 		{	// compare [_Off, _Off + _N0) with [_Ptr, _Ptr + _Count)

  00000	55		 push	 ebp
  00001	8b ec		 mov	 ebp, esp
  00003	53		 push	 ebx
  00004	8b c1		 mov	 eax, ecx

; 1889 :  #if _ITERATOR_DEBUG_LEVEL == 2
; 1890 : 		if (_Count != 0)
; 1891 : 			_DEBUG_POINTER(_Ptr);
; 1892 :  #endif /* _ITERATOR_DEBUG_LEVEL == 2 */
; 1893 : 
; 1894 : 		if (this->_Mysize < _Off)

  00006	8b 50 10	 mov	 edx, DWORD PTR [eax+16]
  00009	56		 push	 esi
  0000a	8b 75 08	 mov	 esi, DWORD PTR __Off$[ebp]
  0000d	3b d6		 cmp	 edx, esi
  0000f	73 0b		 jae	 SHORT $LN2@compare@2

; 1895 : 			_Xran();	// _Off off end

  00011	68 00 00 00 00	 push	 OFFSET ??_C@_0BI@CFPLBAOH@invalid?5string?5position?$AA@
  00016	ff 15 00 00 00
	00		 call	 DWORD PTR __imp_?_Xout_of_range@std@@YAXPBD@Z
$LN22@compare@2:
$LN2@compare@2:

; 1896 : 		if (this->_Mysize - _Off < _N0)

  0001c	8b 5d 0c	 mov	 ebx, DWORD PTR __N0$[ebp]
  0001f	2b d6		 sub	 edx, esi
  00021	3b d3		 cmp	 edx, ebx

; 1897 : 			_N0 = this->_Mysize - _Off;	// trim _N0 to size

  00023	0f 42 da	 cmovb	 ebx, edx

; 1898 : 
; 1899 : 		size_type _Ans = _Traits::compare(_Myptr() + _Off, _Ptr,
; 1900 : 			_N0 < _Count ? _N0 : _Count);

  00026	8b 55 14	 mov	 edx, DWORD PTR __Count$[ebp]
  00029	3b da		 cmp	 ebx, edx
  0002b	8b cb		 mov	 ecx, ebx
  0002d	0f 43 ca	 cmovae	 ecx, edx
  00030	83 78 14 10	 cmp	 DWORD PTR [eax+20], 16	; 00000010H
  00034	72 02		 jb	 SHORT $LN16@compare@2
  00036	8b 00		 mov	 eax, DWORD PTR [eax]
$LN16@compare@2:
  00038	57		 push	 edi
  00039	8b 7d 10	 mov	 edi, DWORD PTR __Ptr$[ebp]
  0003c	03 f0		 add	 esi, eax
  0003e	33 c0		 xor	 eax, eax
  00040	f3 a6		 repe cmpsb
  00042	5f		 pop	 edi
  00043	74 05		 je	 SHORT $LN20@compare@2
  00045	1b c0		 sbb	 eax, eax
  00047	83 d8 ff	 sbb	 eax, -1
$LN20@compare@2:

; 1901 : 		return (_Ans != 0 ? (int)_Ans : _N0 < _Count ? -1
; 1902 : 			: _N0 == _Count ? 0 : +1);

  0004a	85 c0		 test	 eax, eax
  0004c	75 10		 jne	 SHORT $LN8@compare@2
  0004e	3b da		 cmp	 ebx, edx
  00050	73 05		 jae	 SHORT $LN7@compare@2
  00052	83 c8 ff	 or	 eax, -1
  00055	eb 07		 jmp	 SHORT $LN8@compare@2
$LN7@compare@2:
  00057	33 c0		 xor	 eax, eax
  00059	3b da		 cmp	 ebx, edx
  0005b	0f 95 c0	 setne	 al
$LN8@compare@2:
  0005e	5e		 pop	 esi
  0005f	5b		 pop	 ebx

; 1903 : 		}

  00060	5d		 pop	 ebp
  00061	c2 10 00	 ret	 16			; 00000010H
$LN21@compare@2:
?compare@?$basic_string@DU?$char_traits@D@std@@V?$allocator@D@2@@std@@QBEHIIPBDI@Z ENDP ; std::basic_string<char,std::char_traits<char>,std::allocator<char> >::compare
_TEXT	ENDS
PUBLIC	??0?$_String_val@DV?$allocator@D@std@@@std@@QAE@V?$allocator@D@1@@Z ; std::_String_val<char,std::allocator<char> >::_String_val<char,std::allocator<char> >
; Function compile flags: /Ogsp
;	COMDAT ??0?$_String_val@DV?$allocator@D@std@@@std@@QAE@V?$allocator@D@1@@Z
_TEXT	SEGMENT
__Al$ = 8						; size = 1
??0?$_String_val@DV?$allocator@D@std@@@std@@QAE@V?$allocator@D@1@@Z PROC ; std::_String_val<char,std::allocator<char> >::_String_val<char,std::allocator<char> >, COMDAT
; _this$ = ecx

; 454  : 		{	// construct allocator from _Al

  00000	8b c1		 mov	 eax, ecx

; 455  : 		}

  00002	c2 04 00	 ret	 4
??0?$_String_val@DV?$allocator@D@std@@@std@@QAE@V?$allocator@D@1@@Z ENDP ; std::_String_val<char,std::allocator<char> >::_String_val<char,std::allocator<char> >
_TEXT	ENDS
PUBLIC	?_Eos@?$basic_string@DU?$char_traits@D@std@@V?$allocator@D@2@@std@@QAEXI@Z ; std::basic_string<char,std::char_traits<char>,std::allocator<char> >::_Eos
; Function compile flags: /Ogsp
;	COMDAT ?_Eos@?$basic_string@DU?$char_traits@D@std@@V?$allocator@D@2@@std@@QAEXI@Z
_TEXT	SEGMENT
__Newsize$ = 8						; size = 4
?_Eos@?$basic_string@DU?$char_traits@D@std@@V?$allocator@D@2@@std@@QAEXI@Z PROC ; std::basic_string<char,std::char_traits<char>,std::allocator<char> >::_Eos, COMDAT
; _this$ = ecx

; 1953 : 		{	// set new length and null terminator

  00000	55		 push	 ebp
  00001	8b ec		 mov	 ebp, esp

; 1954 : 		_Traits::assign(_Myptr()[this->_Mysize = _Newsize], _Elem());

  00003	83 79 14 10	 cmp	 DWORD PTR [ecx+20], 16	; 00000010H
  00007	8b 45 08	 mov	 eax, DWORD PTR __Newsize$[ebp]
  0000a	89 41 10	 mov	 DWORD PTR [ecx+16], eax
  0000d	72 02		 jb	 SHORT $LN5@Eos
  0000f	8b 09		 mov	 ecx, DWORD PTR [ecx]
$LN5@Eos:
  00011	c6 04 01 00	 mov	 BYTE PTR [ecx+eax], 0

; 1955 : 		}

  00015	5d		 pop	 ebp
  00016	c2 04 00	 ret	 4
?_Eos@?$basic_string@DU?$char_traits@D@std@@V?$allocator@D@2@@std@@QAEXI@Z ENDP ; std::basic_string<char,std::char_traits<char>,std::allocator<char> >::_Eos
_TEXT	ENDS
PUBLIC	?max_size@?$basic_string@DU?$char_traits@D@std@@V?$allocator@D@2@@std@@QBEIXZ ; std::basic_string<char,std::char_traits<char>,std::allocator<char> >::max_size
; Function compile flags: /Ogsp
;	COMDAT ?max_size@?$basic_string@DU?$char_traits@D@std@@V?$allocator@D@2@@std@@QBEIXZ
_TEXT	SEGMENT
?max_size@?$basic_string@DU?$char_traits@D@std@@V?$allocator@D@2@@std@@QBEIXZ PROC ; std::basic_string<char,std::char_traits<char>,std::allocator<char> >::max_size, COMDAT
; _this$ = ecx

; 1517 : 		size_type _Num = this->_Alval.max_size();
; 1518 : 		return (_Num <= 1 ? 1 : _Num - 1);

  00000	6a fe		 push	 -2			; fffffffeH
  00002	58		 pop	 eax

; 1519 : 		}

  00003	c3		 ret	 0
?max_size@?$basic_string@DU?$char_traits@D@std@@V?$allocator@D@2@@std@@QBEIXZ ENDP ; std::basic_string<char,std::char_traits<char>,std::allocator<char> >::max_size
_TEXT	ENDS
PUBLIC	?allocate@?$allocator@D@std@@QAEPADI@Z		; std::allocator<char>::allocate
; Function compile flags: /Ogsp
; File c:\program files (x86)\microsoft visual studio 10.0\vc\include\xmemory
;	COMDAT ?allocate@?$allocator@D@std@@QAEPADI@Z
_TEXT	SEGMENT
__Count$ = 8						; size = 4
?allocate@?$allocator@D@std@@QAEPADI@Z PROC		; std::allocator<char>::allocate, COMDAT
; _this$ = ecx

; 186  : 		{	// allocate array of _Count elements

  00000	55		 push	 ebp
  00001	8b ec		 mov	 ebp, esp

; 187  : 		return (_Allocate(_Count, (pointer)0));

  00003	6a 00		 push	 0
  00005	ff 75 08	 push	 DWORD PTR __Count$[ebp]
  00008	e8 00 00 00 00	 call	 ??$_Allocate@D@std@@YAPADIPAD@Z ; std::_Allocate<char>
  0000d	59		 pop	 ecx
  0000e	59		 pop	 ecx

; 188  : 		}

  0000f	5d		 pop	 ebp
  00010	c2 04 00	 ret	 4
?allocate@?$allocator@D@std@@QAEPADI@Z ENDP		; std::allocator<char>::allocate
_TEXT	ENDS
PUBLIC	??$swap@D@std@@YAXAAD0@Z			; std::swap<char>
; Function compile flags: /Ogsp
; File c:\program files (x86)\microsoft visual studio 10.0\vc\include\utility
;	COMDAT ??$swap@D@std@@YAXAAD0@Z
_TEXT	SEGMENT
__Left$ = 8						; size = 4
__Right$ = 12						; size = 4
??$swap@D@std@@YAXAAD0@Z PROC				; std::swap<char>, COMDAT

; 101  : 	{	// exchange values stored at _Left and _Right

  00000	55		 push	 ebp
  00001	8b ec		 mov	 ebp, esp

; 102  : 	_Ty _Tmp = _Move(_Left);

  00003	8b 45 08	 mov	 eax, DWORD PTR __Left$[ebp]
  00006	8a 08		 mov	 cl, BYTE PTR [eax]
  00008	56		 push	 esi

; 103  : 	_Left = _Move(_Right);

  00009	8b 75 0c	 mov	 esi, DWORD PTR __Right$[ebp]
  0000c	8a 16		 mov	 dl, BYTE PTR [esi]
  0000e	88 10		 mov	 BYTE PTR [eax], dl

; 104  : 	_Right = _Move(_Tmp);

  00010	88 0e		 mov	 BYTE PTR [esi], cl
  00012	5e		 pop	 esi

; 105  : 	}

  00013	5d		 pop	 ebp
  00014	c3		 ret	 0
??$swap@D@std@@YAXAAD0@Z ENDP				; std::swap<char>
_TEXT	ENDS
PUBLIC	??0?$vector@UTooltipAlloc@ioBasicTooltipManager@@V?$allocator@UTooltipAlloc@ioBasicTooltipManager@@@std@@@std@@QAE@XZ ; std::vector<ioBasicTooltipManager::TooltipAlloc,std::allocator<ioBasicTooltipManager::TooltipAlloc> >::vector<ioBasicTooltipManager::TooltipAlloc,std::allocator<ioBasicTooltipManager::TooltipAlloc> >
; Function compile flags: /Ogsp
; File c:\program files (x86)\microsoft visual studio 10.0\vc\include\vector
;	COMDAT ??0?$vector@UTooltipAlloc@ioBasicTooltipManager@@V?$allocator@UTooltipAlloc@ioBasicTooltipManager@@@std@@@std@@QAE@XZ
_TEXT	SEGMENT
??0?$vector@UTooltipAlloc@ioBasicTooltipManager@@V?$allocator@UTooltipAlloc@ioBasicTooltipManager@@@std@@@std@@QAE@XZ PROC ; std::vector<ioBasicTooltipManager::TooltipAlloc,std::allocator<ioBasicTooltipManager::TooltipAlloc> >::vector<ioBasicTooltipManager::TooltipAlloc,std::allocator<ioBasicTooltipManager::TooltipAlloc> >, COMDAT
; _this$ = ecx

; 507  : 		{	// construct empty vector

  00000	8b c1		 mov	 eax, ecx
  00002	33 c9		 xor	 ecx, ecx
  00004	89 08		 mov	 DWORD PTR [eax], ecx
  00006	89 48 04	 mov	 DWORD PTR [eax+4], ecx
  00009	89 48 08	 mov	 DWORD PTR [eax+8], ecx

; 508  : 		}

  0000c	c3		 ret	 0
??0?$vector@UTooltipAlloc@ioBasicTooltipManager@@V?$allocator@UTooltipAlloc@ioBasicTooltipManager@@@std@@@std@@QAE@XZ ENDP ; std::vector<ioBasicTooltipManager::TooltipAlloc,std::allocator<ioBasicTooltipManager::TooltipAlloc> >::vector<ioBasicTooltipManager::TooltipAlloc,std::allocator<ioBasicTooltipManager::TooltipAlloc> >
_TEXT	ENDS
PUBLIC	??9?$_Vector_const_iterator@V?$_Vector_val@UTooltipAlloc@ioBasicTooltipManager@@V?$allocator@UTooltipAlloc@ioBasicTooltipManager@@@std@@@std@@@std@@QBE_NABV01@@Z ; std::_Vector_const_iterator<std::_Vector_val<ioBasicTooltipManager::TooltipAlloc,std::allocator<ioBasicTooltipManager::TooltipAlloc> > >::operator!=
; Function compile flags: /Ogsp
;	COMDAT ??9?$_Vector_const_iterator@V?$_Vector_val@UTooltipAlloc@ioBasicTooltipManager@@V?$allocator@UTooltipAlloc@ioBasicTooltipManager@@@std@@@std@@@std@@QBE_NABV01@@Z
_TEXT	SEGMENT
__Right$ = 8						; size = 4
??9?$_Vector_const_iterator@V?$_Vector_val@UTooltipAlloc@ioBasicTooltipManager@@V?$allocator@UTooltipAlloc@ioBasicTooltipManager@@@std@@@std@@@std@@QBE_NABV01@@Z PROC ; std::_Vector_const_iterator<std::_Vector_val<ioBasicTooltipManager::TooltipAlloc,std::allocator<ioBasicTooltipManager::TooltipAlloc> > >::operator!=, COMDAT
; _this$ = ecx

; 207  : 		{	// test for iterator inequality

  00000	55		 push	 ebp
  00001	8b ec		 mov	 ebp, esp

; 208  : 		return (!(*this == _Right));

  00003	8b 01		 mov	 eax, DWORD PTR [ecx]
  00005	8b 55 08	 mov	 edx, DWORD PTR __Right$[ebp]
  00008	33 c9		 xor	 ecx, ecx
  0000a	3b 02		 cmp	 eax, DWORD PTR [edx]
  0000c	0f 95 c0	 setne	 al

; 209  : 		}

  0000f	5d		 pop	 ebp
  00010	c2 04 00	 ret	 4
??9?$_Vector_const_iterator@V?$_Vector_val@UTooltipAlloc@ioBasicTooltipManager@@V?$allocator@UTooltipAlloc@ioBasicTooltipManager@@@std@@@std@@@std@@QBE_NABV01@@Z ENDP ; std::_Vector_const_iterator<std::_Vector_val<ioBasicTooltipManager::TooltipAlloc,std::allocator<ioBasicTooltipManager::TooltipAlloc> > >::operator!=
_TEXT	ENDS
PUBLIC	??D?$_Tree_iterator@V?$_Tree_val@V?$_Tmap_traits@KUTooltipAlloc@ioBasicTooltipManager@@U?$less@K@std@@V?$allocator@U?$pair@$$CBKUTooltipAlloc@ioBasicTooltipManager@@@std@@@4@$0A@@std@@@std@@@std@@QBEAAU?$pair@$$CBKUTooltipAlloc@ioBasicTooltipManager@@@1@XZ ; std::_Tree_iterator<std::_Tree_val<std::_Tmap_traits<unsigned long,ioBasicTooltipManager::TooltipAlloc,std::less<unsigned long>,std::allocator<std::pair<unsigned long const ,ioBasicTooltipManager::TooltipAlloc> >,0> > >::operator*
; Function compile flags: /Ogsp
; File c:\program files (x86)\microsoft visual studio 10.0\vc\include\xtree
;	COMDAT ??D?$_Tree_iterator@V?$_Tree_val@V?$_Tmap_traits@KUTooltipAlloc@ioBasicTooltipManager@@U?$less@K@std@@V?$allocator@U?$pair@$$CBKUTooltipAlloc@ioBasicTooltipManager@@@std@@@4@$0A@@std@@@std@@@std@@QBEAAU?$pair@$$CBKUTooltipAlloc@ioBasicTooltipManager@@@1@XZ
_TEXT	SEGMENT
??D?$_Tree_iterator@V?$_Tree_val@V?$_Tmap_traits@KUTooltipAlloc@ioBasicTooltipManager@@U?$less@K@std@@V?$allocator@U?$pair@$$CBKUTooltipAlloc@ioBasicTooltipManager@@@std@@@4@$0A@@std@@@std@@@std@@QBEAAU?$pair@$$CBKUTooltipAlloc@ioBasicTooltipManager@@@1@XZ PROC ; std::_Tree_iterator<std::_Tree_val<std::_Tmap_traits<unsigned long,ioBasicTooltipManager::TooltipAlloc,std::less<unsigned long>,std::allocator<std::pair<unsigned long const ,ioBasicTooltipManager::TooltipAlloc> >,0> > >::operator*, COMDAT
; _this$ = ecx

; 396  : 		return ((reference)**(_Mybase *)this);

  00000	8b 01		 mov	 eax, DWORD PTR [ecx]
  00002	83 c0 0c	 add	 eax, 12			; 0000000cH

; 397  : 		}

  00005	c3		 ret	 0
??D?$_Tree_iterator@V?$_Tree_val@V?$_Tmap_traits@KUTooltipAlloc@ioBasicTooltipManager@@U?$less@K@std@@V?$allocator@U?$pair@$$CBKUTooltipAlloc@ioBasicTooltipManager@@@std@@@4@$0A@@std@@@std@@@std@@QBEAAU?$pair@$$CBKUTooltipAlloc@ioBasicTooltipManager@@@1@XZ ENDP ; std::_Tree_iterator<std::_Tree_val<std::_Tmap_traits<unsigned long,ioBasicTooltipManager::TooltipAlloc,std::less<unsigned long>,std::allocator<std::pair<unsigned long const ,ioBasicTooltipManager::TooltipAlloc> >,0> > >::operator*
_TEXT	ENDS
PUBLIC	??E?$_Tree_const_iterator@V?$_Tree_val@V?$_Tmap_traits@KUTooltipAlloc@ioBasicTooltipManager@@U?$less@K@std@@V?$allocator@U?$pair@$$CBKUTooltipAlloc@ioBasicTooltipManager@@@std@@@4@$0A@@std@@@std@@@std@@QAEAAV01@XZ ; std::_Tree_const_iterator<std::_Tree_val<std::_Tmap_traits<unsigned long,ioBasicTooltipManager::TooltipAlloc,std::less<unsigned long>,std::allocator<std::pair<unsigned long const ,ioBasicTooltipManager::TooltipAlloc> >,0> > >::operator++
; Function compile flags: /Ogsp
;	COMDAT ??E?$_Tree_const_iterator@V?$_Tree_val@V?$_Tmap_traits@KUTooltipAlloc@ioBasicTooltipManager@@U?$less@K@std@@V?$allocator@U?$pair@$$CBKUTooltipAlloc@ioBasicTooltipManager@@@std@@@4@$0A@@std@@@std@@@std@@QAEAAV01@XZ
_TEXT	SEGMENT
??E?$_Tree_const_iterator@V?$_Tree_val@V?$_Tmap_traits@KUTooltipAlloc@ioBasicTooltipManager@@U?$less@K@std@@V?$allocator@U?$pair@$$CBKUTooltipAlloc@ioBasicTooltipManager@@@std@@@4@$0A@@std@@@std@@@std@@QAEAAV01@XZ PROC ; std::_Tree_const_iterator<std::_Tree_val<std::_Tmap_traits<unsigned long,ioBasicTooltipManager::TooltipAlloc,std::less<unsigned long>,std::allocator<std::pair<unsigned long const ,ioBasicTooltipManager::TooltipAlloc> >,0> > >::operator++, COMDAT
; _this$ = ecx

; 250  : 		{	// preincrement

  00000	56		 push	 esi
  00001	8b f1		 mov	 esi, ecx

; 251  :  #if _ITERATOR_DEBUG_LEVEL == 2
; 252  : 		if (this->_Getcont() == 0
; 253  : 			|| this->_Ptr == 0
; 254  : 			|| _Mytree::_Isnil(this->_Ptr))
; 255  : 			{	// report error
; 256  : 			_DEBUG_ERROR("map/set iterator not incrementable");
; 257  : 			_SCL_SECURE_OUT_OF_RANGE;
; 258  : 			}
; 259  : 
; 260  :  #elif _ITERATOR_DEBUG_LEVEL == 1
; 261  : 		_SCL_SECURE_VALIDATE(this->_Getcont() != 0 && this->_Ptr != 0);
; 262  : 		_SCL_SECURE_VALIDATE_RANGE(!_Mytree::_Isnil(this->_Ptr));
; 263  :  #endif /* _ITERATOR_DEBUG_LEVEL */
; 264  : 
; 265  : 		++(*(_Mybase *)this);

  00003	e8 00 00 00 00	 call	 ??E?$_Tree_unchecked_const_iterator@V?$_Tree_val@V?$_Tmap_traits@KUTooltipAlloc@ioBasicTooltipManager@@U?$less@K@std@@V?$allocator@U?$pair@$$CBKUTooltipAlloc@ioBasicTooltipManager@@@std@@@4@$0A@@std@@@std@@U_Iterator_base0@2@@std@@QAEAAV01@XZ ; std::_Tree_unchecked_const_iterator<std::_Tree_val<std::_Tmap_traits<unsigned long,ioBasicTooltipManager::TooltipAlloc,std::less<unsigned long>,std::allocator<std::pair<unsigned long const ,ioBasicTooltipManager::TooltipAlloc> >,0> >,std::_Iterator_base0>::operator++

; 266  : 		return (*this);

  00008	8b c6		 mov	 eax, esi
  0000a	5e		 pop	 esi

; 267  : 		}

  0000b	c3		 ret	 0
??E?$_Tree_const_iterator@V?$_Tree_val@V?$_Tmap_traits@KUTooltipAlloc@ioBasicTooltipManager@@U?$less@K@std@@V?$allocator@U?$pair@$$CBKUTooltipAlloc@ioBasicTooltipManager@@@std@@@4@$0A@@std@@@std@@@std@@QAEAAV01@XZ ENDP ; std::_Tree_const_iterator<std::_Tree_val<std::_Tmap_traits<unsigned long,ioBasicTooltipManager::TooltipAlloc,std::less<unsigned long>,std::allocator<std::pair<unsigned long const ,ioBasicTooltipManager::TooltipAlloc> >,0> > >::operator++
_TEXT	ENDS
PUBLIC	??0?$_Vector_iterator@V?$_Vector_val@UTooltipAlloc@ioBasicTooltipManager@@V?$allocator@UTooltipAlloc@ioBasicTooltipManager@@@std@@@std@@@std@@QAE@PAUTooltipAlloc@ioBasicTooltipManager@@PBU_Container_base0@1@@Z ; std::_Vector_iterator<std::_Vector_val<ioBasicTooltipManager::TooltipAlloc,std::allocator<ioBasicTooltipManager::TooltipAlloc> > >::_Vector_iterator<std::_Vector_val<ioBasicTooltipManager::TooltipAlloc,std::allocator<ioBasicTooltipManager::TooltipAlloc> > >
; Function compile flags: /Ogsp
; File c:\program files (x86)\microsoft visual studio 10.0\vc\include\vector
;	COMDAT ??0?$_Vector_iterator@V?$_Vector_val@UTooltipAlloc@ioBasicTooltipManager@@V?$allocator@UTooltipAlloc@ioBasicTooltipManager@@@std@@@std@@@std@@QAE@PAUTooltipAlloc@ioBasicTooltipManager@@PBU_Container_base0@1@@Z
_TEXT	SEGMENT
__Parg$ = 8						; size = 4
__Pvector$ = 12						; size = 4
??0?$_Vector_iterator@V?$_Vector_val@UTooltipAlloc@ioBasicTooltipManager@@V?$allocator@UTooltipAlloc@ioBasicTooltipManager@@@std@@@std@@@std@@QAE@PAUTooltipAlloc@ioBasicTooltipManager@@PBU_Container_base0@1@@Z PROC ; std::_Vector_iterator<std::_Vector_val<ioBasicTooltipManager::TooltipAlloc,std::allocator<ioBasicTooltipManager::TooltipAlloc> > >::_Vector_iterator<std::_Vector_val<ioBasicTooltipManager::TooltipAlloc,std::allocator<ioBasicTooltipManager::TooltipAlloc> > >, COMDAT
; _this$ = ecx

; 304  : 		{	// construct with pointer _Parg

  00000	55		 push	 ebp
  00001	8b ec		 mov	 ebp, esp
  00003	8b c1		 mov	 eax, ecx
  00005	8b 4d 08	 mov	 ecx, DWORD PTR __Parg$[ebp]
  00008	89 08		 mov	 DWORD PTR [eax], ecx

; 305  : 		}

  0000a	5d		 pop	 ebp
  0000b	c2 08 00	 ret	 8
??0?$_Vector_iterator@V?$_Vector_val@UTooltipAlloc@ioBasicTooltipManager@@V?$allocator@UTooltipAlloc@ioBasicTooltipManager@@@std@@@std@@@std@@QAE@PAUTooltipAlloc@ioBasicTooltipManager@@PBU_Container_base0@1@@Z ENDP ; std::_Vector_iterator<std::_Vector_val<ioBasicTooltipManager::TooltipAlloc,std::allocator<ioBasicTooltipManager::TooltipAlloc> > >::_Vector_iterator<std::_Vector_val<ioBasicTooltipManager::TooltipAlloc,std::allocator<ioBasicTooltipManager::TooltipAlloc> > >
_TEXT	ENDS
PUBLIC	??0?$_Tree_val@V?$_Tmap_traits@KUTooltipAlloc@ioBasicTooltipManager@@U?$less@K@std@@V?$allocator@U?$pair@$$CBKUTooltipAlloc@ioBasicTooltipManager@@@std@@@4@$0A@@std@@@std@@QAE@ABU?$less@K@1@V?$allocator@U?$pair@$$CBKUTooltipAlloc@ioBasicTooltipManager@@@std@@@1@@Z ; std::_Tree_val<std::_Tmap_traits<unsigned long,ioBasicTooltipManager::TooltipAlloc,std::less<unsigned long>,std::allocator<std::pair<unsigned long const ,ioBasicTooltipManager::TooltipAlloc> >,0> >::_Tree_val<std::_Tmap_traits<unsigned long,ioBasicTooltipManager::TooltipAlloc,std::less<unsigned long>,std::allocator<std::pair<unsigned long const ,ioBasicTooltipManager::TooltipAlloc> >,0> >
; Function compile flags: /Ogsp
; File c:\program files (x86)\microsoft visual studio 10.0\vc\include\xtree
;	COMDAT ??0?$_Tree_val@V?$_Tmap_traits@KUTooltipAlloc@ioBasicTooltipManager@@U?$less@K@std@@V?$allocator@U?$pair@$$CBKUTooltipAlloc@ioBasicTooltipManager@@@std@@@4@$0A@@std@@@std@@QAE@ABU?$less@K@1@V?$allocator@U?$pair@$$CBKUTooltipAlloc@ioBasicTooltipManager@@@std@@@1@@Z
_TEXT	SEGMENT
$T509580 = -16						; size = 12
$T509563 = -4						; size = 4
__Parg$ = 8						; size = 4
__Al$ = 12						; size = 1
??0?$_Tree_val@V?$_Tmap_traits@KUTooltipAlloc@ioBasicTooltipManager@@U?$less@K@std@@V?$allocator@U?$pair@$$CBKUTooltipAlloc@ioBasicTooltipManager@@@std@@@4@$0A@@std@@@std@@QAE@ABU?$less@K@1@V?$allocator@U?$pair@$$CBKUTooltipAlloc@ioBasicTooltipManager@@@std@@@1@@Z PROC ; std::_Tree_val<std::_Tmap_traits<unsigned long,ioBasicTooltipManager::TooltipAlloc,std::less<unsigned long>,std::allocator<std::pair<unsigned long const ,ioBasicTooltipManager::TooltipAlloc> >,0> >::_Tree_val<std::_Tmap_traits<unsigned long,ioBasicTooltipManager::TooltipAlloc,std::less<unsigned long>,std::allocator<std::pair<unsigned long const ,ioBasicTooltipManager::TooltipAlloc> >,0> >, COMDAT
; _this$ = ecx

; 542  : 		{	// construct base, and allocator from _Al

  00000	55		 push	 ebp
  00001	8b ec		 mov	 ebp, esp
  00003	83 ec 10	 sub	 esp, 16			; 00000010H
  00006	56		 push	 esi
  00007	8b f1		 mov	 esi, ecx

; 543  : 		this->_Mysize = 0;

  00009	83 66 08 00	 and	 DWORD PTR [esi+8], 0

; 544  : 		this->_Myhead = this->_Alnod.allocate(1);

  0000d	6a 34		 push	 52			; 00000034H
  0000f	e8 00 00 00 00	 call	 ??2@YAPAXI@Z		; operator new
  00014	59		 pop	 ecx
  00015	85 c0		 test	 eax, eax
  00017	74 26		 je	 SHORT $LN15@Tree_val
  00019	89 46 04	 mov	 DWORD PTR [esi+4], eax

; 545  : 
; 546  : 		this->_Left(this->_Myhead) = this->_Myhead;

  0001c	89 00		 mov	 DWORD PTR [eax], eax

; 547  : 		this->_Parent(this->_Myhead) = this->_Myhead;

  0001e	8b 46 04	 mov	 eax, DWORD PTR [esi+4]
  00021	89 40 04	 mov	 DWORD PTR [eax+4], eax

; 548  : 		this->_Right(this->_Myhead) = this->_Myhead;

  00024	8b 46 04	 mov	 eax, DWORD PTR [esi+4]
  00027	89 40 08	 mov	 DWORD PTR [eax+8], eax

; 549  : 		this->_Color(this->_Myhead) = this->_Black;

  0002a	8b 46 04	 mov	 eax, DWORD PTR [esi+4]
  0002d	c6 40 30 01	 mov	 BYTE PTR [eax+48], 1

; 550  : 		this->_Isnil(this->_Myhead) = true;

  00031	8b 46 04	 mov	 eax, DWORD PTR [esi+4]
  00034	c6 40 31 01	 mov	 BYTE PTR [eax+49], 1

; 551  : 		}

  00038	8b c6		 mov	 eax, esi
  0003a	5e		 pop	 esi
  0003b	c9		 leave
  0003c	c2 08 00	 ret	 8

; 544  : 		this->_Myhead = this->_Alnod.allocate(1);

$LN15@Tree_val:
  0003f	83 65 fc 00	 and	 DWORD PTR $T509563[ebp], 0
  00043	8d 45 fc	 lea	 eax, DWORD PTR $T509563[ebp]
  00046	50		 push	 eax
  00047	8d 4d f0	 lea	 ecx, DWORD PTR $T509580[ebp]
  0004a	ff 15 00 00 00
	00		 call	 DWORD PTR __imp_??0exception@std@@QAE@ABQBD@Z
  00050	68 00 00 00 00	 push	 OFFSET __TI2?AVbad_alloc@std@@
  00055	8d 45 f0	 lea	 eax, DWORD PTR $T509580[ebp]
  00058	50		 push	 eax
  00059	c7 45 f0 00 00
	00 00		 mov	 DWORD PTR $T509580[ebp], OFFSET ??_7bad_alloc@std@@6B@
  00060	e8 00 00 00 00	 call	 __CxxThrowException@8
$LN37@Tree_val:
$LN36@Tree_val:
  00065	cc		 int	 3
??0?$_Tree_val@V?$_Tmap_traits@KUTooltipAlloc@ioBasicTooltipManager@@U?$less@K@std@@V?$allocator@U?$pair@$$CBKUTooltipAlloc@ioBasicTooltipManager@@@std@@@4@$0A@@std@@@std@@QAE@ABU?$less@K@1@V?$allocator@U?$pair@$$CBKUTooltipAlloc@ioBasicTooltipManager@@@std@@@1@@Z ENDP ; std::_Tree_val<std::_Tmap_traits<unsigned long,ioBasicTooltipManager::TooltipAlloc,std::less<unsigned long>,std::allocator<std::pair<unsigned long const ,ioBasicTooltipManager::TooltipAlloc> >,0> >::_Tree_val<std::_Tmap_traits<unsigned long,ioBasicTooltipManager::TooltipAlloc,std::less<unsigned long>,std::allocator<std::pair<unsigned long const ,ioBasicTooltipManager::TooltipAlloc> >,0> >
_TEXT	ENDS
PUBLIC	?_Make_iter@?$vector@UTooltipAlloc@ioBasicTooltipManager@@V?$allocator@UTooltipAlloc@ioBasicTooltipManager@@@std@@@std@@QBE?AV?$_Vector_iterator@V?$_Vector_val@UTooltipAlloc@ioBasicTooltipManager@@V?$allocator@UTooltipAlloc@ioBasicTooltipManager@@@std@@@std@@@2@V?$_Vector_const_iterator@V?$_Vector_val@UTooltipAlloc@ioBasicTooltipManager@@V?$allocator@UTooltipAlloc@ioBasicTooltipManager@@@std@@@std@@@2@@Z ; std::vector<ioBasicTooltipManager::TooltipAlloc,std::allocator<ioBasicTooltipManager::TooltipAlloc> >::_Make_iter
; Function compile flags: /Ogsp
; File c:\program files (x86)\microsoft visual studio 10.0\vc\include\vector
;	COMDAT ?_Make_iter@?$vector@UTooltipAlloc@ioBasicTooltipManager@@V?$allocator@UTooltipAlloc@ioBasicTooltipManager@@@std@@@std@@QBE?AV?$_Vector_iterator@V?$_Vector_val@UTooltipAlloc@ioBasicTooltipManager@@V?$allocator@UTooltipAlloc@ioBasicTooltipManager@@@std@@@std@@@2@V?$_Vector_const_iterator@V?$_Vector_val@UTooltipAlloc@ioBasicTooltipManager@@V?$allocator@UTooltipAlloc@ioBasicTooltipManager@@@std@@@std@@@2@@Z
_TEXT	SEGMENT
___$ReturnUdt$ = 8					; size = 4
__Where$ = 12						; size = 4
?_Make_iter@?$vector@UTooltipAlloc@ioBasicTooltipManager@@V?$allocator@UTooltipAlloc@ioBasicTooltipManager@@@std@@@std@@QBE?AV?$_Vector_iterator@V?$_Vector_val@UTooltipAlloc@ioBasicTooltipManager@@V?$allocator@UTooltipAlloc@ioBasicTooltipManager@@@std@@@std@@@2@V?$_Vector_const_iterator@V?$_Vector_val@UTooltipAlloc@ioBasicTooltipManager@@V?$allocator@UTooltipAlloc@ioBasicTooltipManager@@@std@@@std@@@2@@Z PROC ; std::vector<ioBasicTooltipManager::TooltipAlloc,std::allocator<ioBasicTooltipManager::TooltipAlloc> >::_Make_iter, COMDAT
; _this$ = ecx

; 801  : 		{	// make iterator from const_iterator

  00000	55		 push	 ebp
  00001	8b ec		 mov	 ebp, esp

; 802  : 		return (iterator(_Where._Ptr, this));

  00003	8b 45 08	 mov	 eax, DWORD PTR ___$ReturnUdt$[ebp]
  00006	8b 4d 0c	 mov	 ecx, DWORD PTR __Where$[ebp]
  00009	89 08		 mov	 DWORD PTR [eax], ecx

; 803  : 		}

  0000b	5d		 pop	 ebp
  0000c	c2 08 00	 ret	 8
?_Make_iter@?$vector@UTooltipAlloc@ioBasicTooltipManager@@V?$allocator@UTooltipAlloc@ioBasicTooltipManager@@@std@@@std@@QBE?AV?$_Vector_iterator@V?$_Vector_val@UTooltipAlloc@ioBasicTooltipManager@@V?$allocator@UTooltipAlloc@ioBasicTooltipManager@@@std@@@std@@@2@V?$_Vector_const_iterator@V?$_Vector_val@UTooltipAlloc@ioBasicTooltipManager@@V?$allocator@UTooltipAlloc@ioBasicTooltipManager@@@std@@@std@@@2@@Z ENDP ; std::vector<ioBasicTooltipManager::TooltipAlloc,std::allocator<ioBasicTooltipManager::TooltipAlloc> >::_Make_iter
_TEXT	ENDS
PUBLIC	??0?$_Tree_const_iterator@V?$_Tree_val@V?$_Tmap_traits@KUTooltipAlloc@ioBasicTooltipManager@@U?$less@K@std@@V?$allocator@U?$pair@$$CBKUTooltipAlloc@ioBasicTooltipManager@@@std@@@4@$0A@@std@@@std@@@std@@QAE@PAU_Node@?$_Tree_nod@V?$_Tmap_traits@KUTooltipAlloc@ioBasicTooltipManager@@U?$less@K@std@@V?$allocator@U?$pair@$$CBKUTooltipAlloc@ioBasicTooltipManager@@@std@@@4@$0A@@std@@@1@PBV?$_Tree_val@V?$_Tmap_traits@KUTooltipAlloc@ioBasicTooltipManager@@U?$less@K@std@@V?$allocator@U?$pair@$$CBKUTooltipAlloc@ioBasicTooltipManager@@@std@@@4@$0A@@std@@@1@@Z ; std::_Tree_const_iterator<std::_Tree_val<std::_Tmap_traits<unsigned long,ioBasicTooltipManager::TooltipAlloc,std::less<unsigned long>,std::allocator<std::pair<unsigned long const ,ioBasicTooltipManager::TooltipAlloc> >,0> > >::_Tree_const_iterator<std::_Tree_val<std::_Tmap_traits<unsigned long,ioBasicTooltipManager::TooltipAlloc,std::less<unsigned long>,std::allocator<std::pair<unsigned long const ,ioBasicTooltipManager::TooltipAlloc> >,0> > >
; Function compile flags: /Ogsp
; File c:\program files (x86)\microsoft visual studio 10.0\vc\include\xtree
;	COMDAT ??0?$_Tree_const_iterator@V?$_Tree_val@V?$_Tmap_traits@KUTooltipAlloc@ioBasicTooltipManager@@U?$less@K@std@@V?$allocator@U?$pair@$$CBKUTooltipAlloc@ioBasicTooltipManager@@@std@@@4@$0A@@std@@@std@@@std@@QAE@PAU_Node@?$_Tree_nod@V?$_Tmap_traits@KUTooltipAlloc@ioBasicTooltipManager@@U?$less@K@std@@V?$allocator@U?$pair@$$CBKUTooltipAlloc@ioBasicTooltipManager@@@std@@@4@$0A@@std@@@1@PBV?$_Tree_val@V?$_Tmap_traits@KUTooltipAlloc@ioBasicTooltipManager@@U?$less@K@std@@V?$allocator@U?$pair@$$CBKUTooltipAlloc@ioBasicTooltipManager@@@std@@@4@$0A@@std@@@1@@Z
_TEXT	SEGMENT
__Pnode$ = 8						; size = 4
__Plist$ = 12						; size = 4
??0?$_Tree_const_iterator@V?$_Tree_val@V?$_Tmap_traits@KUTooltipAlloc@ioBasicTooltipManager@@U?$less@K@std@@V?$allocator@U?$pair@$$CBKUTooltipAlloc@ioBasicTooltipManager@@@std@@@4@$0A@@std@@@std@@@std@@QAE@PAU_Node@?$_Tree_nod@V?$_Tmap_traits@KUTooltipAlloc@ioBasicTooltipManager@@U?$less@K@std@@V?$allocator@U?$pair@$$CBKUTooltipAlloc@ioBasicTooltipManager@@@std@@@4@$0A@@std@@@1@PBV?$_Tree_val@V?$_Tmap_traits@KUTooltipAlloc@ioBasicTooltipManager@@U?$less@K@std@@V?$allocator@U?$pair@$$CBKUTooltipAlloc@ioBasicTooltipManager@@@std@@@4@$0A@@std@@@1@@Z PROC ; std::_Tree_const_iterator<std::_Tree_val<std::_Tmap_traits<unsigned long,ioBasicTooltipManager::TooltipAlloc,std::less<unsigned long>,std::allocator<std::pair<unsigned long const ,ioBasicTooltipManager::TooltipAlloc> >,0> > >::_Tree_const_iterator<std::_Tree_val<std::_Tmap_traits<unsigned long,ioBasicTooltipManager::TooltipAlloc,std::less<unsigned long>,std::allocator<std::pair<unsigned long const ,ioBasicTooltipManager::TooltipAlloc> >,0> > >, COMDAT
; _this$ = ecx

; 213  : 		{	// construct with node pointer _Pnode

  00000	55		 push	 ebp
  00001	8b ec		 mov	 ebp, esp
  00003	8b c1		 mov	 eax, ecx
  00005	8b 4d 08	 mov	 ecx, DWORD PTR __Pnode$[ebp]
  00008	89 08		 mov	 DWORD PTR [eax], ecx

; 214  : 		}

  0000a	5d		 pop	 ebp
  0000b	c2 08 00	 ret	 8
??0?$_Tree_const_iterator@V?$_Tree_val@V?$_Tmap_traits@KUTooltipAlloc@ioBasicTooltipManager@@U?$less@K@std@@V?$allocator@U?$pair@$$CBKUTooltipAlloc@ioBasicTooltipManager@@@std@@@4@$0A@@std@@@std@@@std@@QAE@PAU_Node@?$_Tree_nod@V?$_Tmap_traits@KUTooltipAlloc@ioBasicTooltipManager@@U?$less@K@std@@V?$allocator@U?$pair@$$CBKUTooltipAlloc@ioBasicTooltipManager@@@std@@@4@$0A@@std@@@1@PBV?$_Tree_val@V?$_Tmap_traits@KUTooltipAlloc@ioBasicTooltipManager@@U?$less@K@std@@V?$allocator@U?$pair@$$CBKUTooltipAlloc@ioBasicTooltipManager@@@std@@@4@$0A@@std@@@1@@Z ENDP ; std::_Tree_const_iterator<std::_Tree_val<std::_Tmap_traits<unsigned long,ioBasicTooltipManager::TooltipAlloc,std::less<unsigned long>,std::allocator<std::pair<unsigned long const ,ioBasicTooltipManager::TooltipAlloc> >,0> > >::_Tree_const_iterator<std::_Tree_val<std::_Tmap_traits<unsigned long,ioBasicTooltipManager::TooltipAlloc,std::less<unsigned long>,std::allocator<std::pair<unsigned long const ,ioBasicTooltipManager::TooltipAlloc> >,0> > >
_TEXT	ENDS
PUBLIC	??E?$_Tree_const_iterator@V?$_Tree_val@V?$_Tmap_traits@KUTooltipAlloc@ioBasicTooltipManager@@U?$less@K@std@@V?$allocator@U?$pair@$$CBKUTooltipAlloc@ioBasicTooltipManager@@@std@@@4@$0A@@std@@@std@@@std@@QAE?AV01@H@Z ; std::_Tree_const_iterator<std::_Tree_val<std::_Tmap_traits<unsigned long,ioBasicTooltipManager::TooltipAlloc,std::less<unsigned long>,std::allocator<std::pair<unsigned long const ,ioBasicTooltipManager::TooltipAlloc> >,0> > >::operator++
; Function compile flags: /Ogsp
;	COMDAT ??E?$_Tree_const_iterator@V?$_Tree_val@V?$_Tmap_traits@KUTooltipAlloc@ioBasicTooltipManager@@U?$less@K@std@@V?$allocator@U?$pair@$$CBKUTooltipAlloc@ioBasicTooltipManager@@@std@@@4@$0A@@std@@@std@@@std@@QAE?AV01@H@Z
_TEXT	SEGMENT
___$ReturnUdt$ = 8					; size = 4
___formal$ = 12						; size = 4
??E?$_Tree_const_iterator@V?$_Tree_val@V?$_Tmap_traits@KUTooltipAlloc@ioBasicTooltipManager@@U?$less@K@std@@V?$allocator@U?$pair@$$CBKUTooltipAlloc@ioBasicTooltipManager@@@std@@@4@$0A@@std@@@std@@@std@@QAE?AV01@H@Z PROC ; std::_Tree_const_iterator<std::_Tree_val<std::_Tmap_traits<unsigned long,ioBasicTooltipManager::TooltipAlloc,std::less<unsigned long>,std::allocator<std::pair<unsigned long const ,ioBasicTooltipManager::TooltipAlloc> >,0> > >::operator++, COMDAT
; _this$ = ecx

; 270  : 		{	// postincrement

  00000	55		 push	 ebp
  00001	8b ec		 mov	 ebp, esp

; 271  : 		_Myiter _Tmp = *this;

  00003	8b 01		 mov	 eax, DWORD PTR [ecx]
  00005	56		 push	 esi
  00006	8b 75 08	 mov	 esi, DWORD PTR ___$ReturnUdt$[ebp]
  00009	89 06		 mov	 DWORD PTR [esi], eax

; 272  : 		++*this;

  0000b	e8 00 00 00 00	 call	 ??E?$_Tree_unchecked_const_iterator@V?$_Tree_val@V?$_Tmap_traits@KUTooltipAlloc@ioBasicTooltipManager@@U?$less@K@std@@V?$allocator@U?$pair@$$CBKUTooltipAlloc@ioBasicTooltipManager@@@std@@@4@$0A@@std@@@std@@U_Iterator_base0@2@@std@@QAEAAV01@XZ ; std::_Tree_unchecked_const_iterator<std::_Tree_val<std::_Tmap_traits<unsigned long,ioBasicTooltipManager::TooltipAlloc,std::less<unsigned long>,std::allocator<std::pair<unsigned long const ,ioBasicTooltipManager::TooltipAlloc> >,0> >,std::_Iterator_base0>::operator++

; 273  : 		return (_Tmp);

  00010	8b c6		 mov	 eax, esi
  00012	5e		 pop	 esi

; 274  : 		}

  00013	5d		 pop	 ebp
  00014	c2 08 00	 ret	 8
??E?$_Tree_const_iterator@V?$_Tree_val@V?$_Tmap_traits@KUTooltipAlloc@ioBasicTooltipManager@@U?$less@K@std@@V?$allocator@U?$pair@$$CBKUTooltipAlloc@ioBasicTooltipManager@@@std@@@4@$0A@@std@@@std@@@std@@QAE?AV01@H@Z ENDP ; std::_Tree_const_iterator<std::_Tree_val<std::_Tmap_traits<unsigned long,ioBasicTooltipManager::TooltipAlloc,std::less<unsigned long>,std::allocator<std::pair<unsigned long const ,ioBasicTooltipManager::TooltipAlloc> >,0> > >::operator++
_TEXT	ENDS
PUBLIC	??0?$pair@V?$_Tree_iterator@V?$_Tree_val@V?$_Tmap_traits@KUTooltipAlloc@ioBasicTooltipManager@@U?$less@K@std@@V?$allocator@U?$pair@$$CBKUTooltipAlloc@ioBasicTooltipManager@@@std@@@4@$0A@@std@@@std@@@std@@_N@std@@QAE@$$QAV?$_Tree_iterator@V?$_Tree_val@V?$_Tmap_traits@KUTooltipAlloc@ioBasicTooltipManager@@U?$less@K@std@@V?$allocator@U?$pair@$$CBKUTooltipAlloc@ioBasicTooltipManager@@@std@@@4@$0A@@std@@@std@@@1@$$QA_N@Z ; std::pair<std::_Tree_iterator<std::_Tree_val<std::_Tmap_traits<unsigned long,ioBasicTooltipManager::TooltipAlloc,std::less<unsigned long>,std::allocator<std::pair<unsigned long const ,ioBasicTooltipManager::TooltipAlloc> >,0> > >,bool>::pair<std::_Tree_iterator<std::_Tree_val<std::_Tmap_traits<unsigned long,ioBasicTooltipManager::TooltipAlloc,std::less<unsigned long>,std::allocator<std::pair<unsigned long const ,ioBasicTooltipManager::TooltipAlloc> >,0> > >,bool>
; Function compile flags: /Ogsp
; File c:\program files (x86)\microsoft visual studio 10.0\vc\include\utility
;	COMDAT ??0?$pair@V?$_Tree_iterator@V?$_Tree_val@V?$_Tmap_traits@KUTooltipAlloc@ioBasicTooltipManager@@U?$less@K@std@@V?$allocator@U?$pair@$$CBKUTooltipAlloc@ioBasicTooltipManager@@@std@@@4@$0A@@std@@@std@@@std@@_N@std@@QAE@$$QAV?$_Tree_iterator@V?$_Tree_val@V?$_Tmap_traits@KUTooltipAlloc@ioBasicTooltipManager@@U?$less@K@std@@V?$allocator@U?$pair@$$CBKUTooltipAlloc@ioBasicTooltipManager@@@std@@@4@$0A@@std@@@std@@@1@$$QA_N@Z
_TEXT	SEGMENT
__Val1$ = 8						; size = 4
__Val2$ = 12						; size = 4
??0?$pair@V?$_Tree_iterator@V?$_Tree_val@V?$_Tmap_traits@KUTooltipAlloc@ioBasicTooltipManager@@U?$less@K@std@@V?$allocator@U?$pair@$$CBKUTooltipAlloc@ioBasicTooltipManager@@@std@@@4@$0A@@std@@@std@@@std@@_N@std@@QAE@$$QAV?$_Tree_iterator@V?$_Tree_val@V?$_Tmap_traits@KUTooltipAlloc@ioBasicTooltipManager@@U?$less@K@std@@V?$allocator@U?$pair@$$CBKUTooltipAlloc@ioBasicTooltipManager@@@std@@@4@$0A@@std@@@std@@@1@$$QA_N@Z PROC ; std::pair<std::_Tree_iterator<std::_Tree_val<std::_Tmap_traits<unsigned long,ioBasicTooltipManager::TooltipAlloc,std::less<unsigned long>,std::allocator<std::pair<unsigned long const ,ioBasicTooltipManager::TooltipAlloc> >,0> > >,bool>::pair<std::_Tree_iterator<std::_Tree_val<std::_Tmap_traits<unsigned long,ioBasicTooltipManager::TooltipAlloc,std::less<unsigned long>,std::allocator<std::pair<unsigned long const ,ioBasicTooltipManager::TooltipAlloc> >,0> > >,bool>, COMDAT
; _this$ = ecx

; 227  : 		{	// construct from specified values

  00000	55		 push	 ebp
  00001	8b ec		 mov	 ebp, esp
  00003	8b c1		 mov	 eax, ecx
  00005	8b 4d 08	 mov	 ecx, DWORD PTR __Val1$[ebp]
  00008	8b 09		 mov	 ecx, DWORD PTR [ecx]
  0000a	89 08		 mov	 DWORD PTR [eax], ecx
  0000c	8b 4d 0c	 mov	 ecx, DWORD PTR __Val2$[ebp]
  0000f	8a 09		 mov	 cl, BYTE PTR [ecx]
  00011	88 48 04	 mov	 BYTE PTR [eax+4], cl

; 228  : 		}

  00014	5d		 pop	 ebp
  00015	c2 08 00	 ret	 8
??0?$pair@V?$_Tree_iterator@V?$_Tree_val@V?$_Tmap_traits@KUTooltipAlloc@ioBasicTooltipManager@@U?$less@K@std@@V?$allocator@U?$pair@$$CBKUTooltipAlloc@ioBasicTooltipManager@@@std@@@4@$0A@@std@@@std@@@std@@_N@std@@QAE@$$QAV?$_Tree_iterator@V?$_Tree_val@V?$_Tmap_traits@KUTooltipAlloc@ioBasicTooltipManager@@U?$less@K@std@@V?$allocator@U?$pair@$$CBKUTooltipAlloc@ioBasicTooltipManager@@@std@@@4@$0A@@std@@@std@@@1@$$QA_N@Z ENDP ; std::pair<std::_Tree_iterator<std::_Tree_val<std::_Tmap_traits<unsigned long,ioBasicTooltipManager::TooltipAlloc,std::less<unsigned long>,std::allocator<std::pair<unsigned long const ,ioBasicTooltipManager::TooltipAlloc> >,0> > >,bool>::pair<std::_Tree_iterator<std::_Tree_val<std::_Tmap_traits<unsigned long,ioBasicTooltipManager::TooltipAlloc,std::less<unsigned long>,std::allocator<std::pair<unsigned long const ,ioBasicTooltipManager::TooltipAlloc> >,0> > >,bool>
_TEXT	ENDS
PUBLIC	??F?$_Tree_iterator@V?$_Tree_val@V?$_Tmap_traits@KUTooltipAlloc@ioBasicTooltipManager@@U?$less@K@std@@V?$allocator@U?$pair@$$CBKUTooltipAlloc@ioBasicTooltipManager@@@std@@@4@$0A@@std@@@std@@@std@@QAEAAV01@XZ ; std::_Tree_iterator<std::_Tree_val<std::_Tmap_traits<unsigned long,ioBasicTooltipManager::TooltipAlloc,std::less<unsigned long>,std::allocator<std::pair<unsigned long const ,ioBasicTooltipManager::TooltipAlloc> >,0> > >::operator--
; Function compile flags: /Ogsp
; File c:\program files (x86)\microsoft visual studio 10.0\vc\include\xtree
;	COMDAT ??F?$_Tree_iterator@V?$_Tree_val@V?$_Tmap_traits@KUTooltipAlloc@ioBasicTooltipManager@@U?$less@K@std@@V?$allocator@U?$pair@$$CBKUTooltipAlloc@ioBasicTooltipManager@@@std@@@4@$0A@@std@@@std@@@std@@QAEAAV01@XZ
_TEXT	SEGMENT
??F?$_Tree_iterator@V?$_Tree_val@V?$_Tmap_traits@KUTooltipAlloc@ioBasicTooltipManager@@U?$less@K@std@@V?$allocator@U?$pair@$$CBKUTooltipAlloc@ioBasicTooltipManager@@@std@@@4@$0A@@std@@@std@@@std@@QAEAAV01@XZ PROC ; std::_Tree_iterator<std::_Tree_val<std::_Tmap_traits<unsigned long,ioBasicTooltipManager::TooltipAlloc,std::less<unsigned long>,std::allocator<std::pair<unsigned long const ,ioBasicTooltipManager::TooltipAlloc> >,0> > >::operator--, COMDAT
; _this$ = ecx

; 418  : 		{	// predecrement

  00000	56		 push	 esi
  00001	8b f1		 mov	 esi, ecx

; 419  : 		--(*(_Mybase *)this);

  00003	e8 00 00 00 00	 call	 ??F?$_Tree_unchecked_const_iterator@V?$_Tree_val@V?$_Tmap_traits@KUTooltipAlloc@ioBasicTooltipManager@@U?$less@K@std@@V?$allocator@U?$pair@$$CBKUTooltipAlloc@ioBasicTooltipManager@@@std@@@4@$0A@@std@@@std@@U_Iterator_base0@2@@std@@QAEAAV01@XZ ; std::_Tree_unchecked_const_iterator<std::_Tree_val<std::_Tmap_traits<unsigned long,ioBasicTooltipManager::TooltipAlloc,std::less<unsigned long>,std::allocator<std::pair<unsigned long const ,ioBasicTooltipManager::TooltipAlloc> >,0> >,std::_Iterator_base0>::operator--

; 420  : 		return (*this);

  00008	8b c6		 mov	 eax, esi
  0000a	5e		 pop	 esi

; 421  : 		}

  0000b	c3		 ret	 0
??F?$_Tree_iterator@V?$_Tree_val@V?$_Tmap_traits@KUTooltipAlloc@ioBasicTooltipManager@@U?$less@K@std@@V?$allocator@U?$pair@$$CBKUTooltipAlloc@ioBasicTooltipManager@@@std@@@4@$0A@@std@@@std@@@std@@QAEAAV01@XZ ENDP ; std::_Tree_iterator<std::_Tree_val<std::_Tmap_traits<unsigned long,ioBasicTooltipManager::TooltipAlloc,std::less<unsigned long>,std::allocator<std::pair<unsigned long const ,ioBasicTooltipManager::TooltipAlloc> >,0> > >::operator--
_TEXT	ENDS
PUBLIC	??$?0AAV?$_Tree_iterator@V?$_Tree_val@V?$_Tmap_traits@KUTooltipAlloc@ioBasicTooltipManager@@U?$less@K@std@@V?$allocator@U?$pair@$$CBKUTooltipAlloc@ioBasicTooltipManager@@@std@@@4@$0A@@std@@@std@@@std@@_N@?$pair@V?$_Tree_iterator@V?$_Tree_val@V?$_Tmap_traits@KUTooltipAlloc@ioBasicTooltipManager@@U?$less@K@std@@V?$allocator@U?$pair@$$CBKUTooltipAlloc@ioBasicTooltipManager@@@std@@@4@$0A@@std@@@std@@@std@@_N@std@@QAE@AAV?$_Tree_iterator@V?$_Tree_val@V?$_Tmap_traits@KUTooltipAlloc@ioBasicTooltipManager@@U?$less@K@std@@V?$allocator@U?$pair@$$CBKUTooltipAlloc@ioBasicTooltipManager@@@std@@@4@$0A@@std@@@std@@@1@$$QA_N@Z ; std::pair<std::_Tree_iterator<std::_Tree_val<std::_Tmap_traits<unsigned long,ioBasicTooltipManager::TooltipAlloc,std::less<unsigned long>,std::allocator<std::pair<unsigned long const ,ioBasicTooltipManager::TooltipAlloc> >,0> > >,bool>::pair<std::_Tree_iterator<std::_Tree_val<std::_Tmap_traits<unsigned long,ioBasicTooltipManager::TooltipAlloc,std::less<unsigned long>,std::allocator<std::pair<unsigned long const ,ioBasicTooltipManager::TooltipAlloc> >,0> > >,bool><std::_Tree_iterator<std::_Tree_val<std::_Tmap_traits<unsigned long,ioBasicTooltipManager::TooltipAlloc,std::less<unsigned long>,std::allocator<std::pair<unsigned long const ,ioBasicTooltipManager::TooltipAlloc> >,0> > > &,bool>
; Function compile flags: /Ogsp
; File c:\program files (x86)\microsoft visual studio 10.0\vc\include\utility
;	COMDAT ??$?0AAV?$_Tree_iterator@V?$_Tree_val@V?$_Tmap_traits@KUTooltipAlloc@ioBasicTooltipManager@@U?$less@K@std@@V?$allocator@U?$pair@$$CBKUTooltipAlloc@ioBasicTooltipManager@@@std@@@4@$0A@@std@@@std@@@std@@_N@?$pair@V?$_Tree_iterator@V?$_Tree_val@V?$_Tmap_traits@KUTooltipAlloc@ioBasicTooltipManager@@U?$less@K@std@@V?$allocator@U?$pair@$$CBKUTooltipAlloc@ioBasicTooltipManager@@@std@@@4@$0A@@std@@@std@@@std@@_N@std@@QAE@AAV?$_Tree_iterator@V?$_Tree_val@V?$_Tmap_traits@KUTooltipAlloc@ioBasicTooltipManager@@U?$less@K@std@@V?$allocator@U?$pair@$$CBKUTooltipAlloc@ioBasicTooltipManager@@@std@@@4@$0A@@std@@@std@@@1@$$QA_N@Z
_TEXT	SEGMENT
__Val1$ = 8						; size = 4
__Val2$ = 12						; size = 4
??$?0AAV?$_Tree_iterator@V?$_Tree_val@V?$_Tmap_traits@KUTooltipAlloc@ioBasicTooltipManager@@U?$less@K@std@@V?$allocator@U?$pair@$$CBKUTooltipAlloc@ioBasicTooltipManager@@@std@@@4@$0A@@std@@@std@@@std@@_N@?$pair@V?$_Tree_iterator@V?$_Tree_val@V?$_Tmap_traits@KUTooltipAlloc@ioBasicTooltipManager@@U?$less@K@std@@V?$allocator@U?$pair@$$CBKUTooltipAlloc@ioBasicTooltipManager@@@std@@@4@$0A@@std@@@std@@@std@@_N@std@@QAE@AAV?$_Tree_iterator@V?$_Tree_val@V?$_Tmap_traits@KUTooltipAlloc@ioBasicTooltipManager@@U?$less@K@std@@V?$allocator@U?$pair@$$CBKUTooltipAlloc@ioBasicTooltipManager@@@std@@@4@$0A@@std@@@std@@@1@$$QA_N@Z PROC ; std::pair<std::_Tree_iterator<std::_Tree_val<std::_Tmap_traits<unsigned long,ioBasicTooltipManager::TooltipAlloc,std::less<unsigned long>,std::allocator<std::pair<unsigned long const ,ioBasicTooltipManager::TooltipAlloc> >,0> > >,bool>::pair<std::_Tree_iterator<std::_Tree_val<std::_Tmap_traits<unsigned long,ioBasicTooltipManager::TooltipAlloc,std::less<unsigned long>,std::allocator<std::pair<unsigned long const ,ioBasicTooltipManager::TooltipAlloc> >,0> > >,bool><std::_Tree_iterator<std::_Tree_val<std::_Tmap_traits<unsigned long,ioBasicTooltipManager::TooltipAlloc,std::less<unsigned long>,std::allocator<std::pair<unsigned long const ,ioBasicTooltipManager::TooltipAlloc> >,0> > > &,bool>, COMDAT
; _this$ = ecx

; 247  : 		{	// construct from moved values

  00000	55		 push	 ebp
  00001	8b ec		 mov	 ebp, esp
  00003	8b c1		 mov	 eax, ecx
  00005	8b 4d 08	 mov	 ecx, DWORD PTR __Val1$[ebp]
  00008	8b 09		 mov	 ecx, DWORD PTR [ecx]
  0000a	89 08		 mov	 DWORD PTR [eax], ecx
  0000c	8b 4d 0c	 mov	 ecx, DWORD PTR __Val2$[ebp]
  0000f	8a 09		 mov	 cl, BYTE PTR [ecx]
  00011	88 48 04	 mov	 BYTE PTR [eax+4], cl

; 248  : 		}

  00014	5d		 pop	 ebp
  00015	c2 08 00	 ret	 8
??$?0AAV?$_Tree_iterator@V?$_Tree_val@V?$_Tmap_traits@KUTooltipAlloc@ioBasicTooltipManager@@U?$less@K@std@@V?$allocator@U?$pair@$$CBKUTooltipAlloc@ioBasicTooltipManager@@@std@@@4@$0A@@std@@@std@@@std@@_N@?$pair@V?$_Tree_iterator@V?$_Tree_val@V?$_Tmap_traits@KUTooltipAlloc@ioBasicTooltipManager@@U?$less@K@std@@V?$allocator@U?$pair@$$CBKUTooltipAlloc@ioBasicTooltipManager@@@std@@@4@$0A@@std@@@std@@@std@@_N@std@@QAE@AAV?$_Tree_iterator@V?$_Tree_val@V?$_Tmap_traits@KUTooltipAlloc@ioBasicTooltipManager@@U?$less@K@std@@V?$allocator@U?$pair@$$CBKUTooltipAlloc@ioBasicTooltipManager@@@std@@@4@$0A@@std@@@std@@@1@$$QA_N@Z ENDP ; std::pair<std::_Tree_iterator<std::_Tree_val<std::_Tmap_traits<unsigned long,ioBasicTooltipManager::TooltipAlloc,std::less<unsigned long>,std::allocator<std::pair<unsigned long const ,ioBasicTooltipManager::TooltipAlloc> >,0> > >,bool>::pair<std::_Tree_iterator<std::_Tree_val<std::_Tmap_traits<unsigned long,ioBasicTooltipManager::TooltipAlloc,std::less<unsigned long>,std::allocator<std::pair<unsigned long const ,ioBasicTooltipManager::TooltipAlloc> >,0> > >,bool><std::_Tree_iterator<std::_Tree_val<std::_Tmap_traits<unsigned long,ioBasicTooltipManager::TooltipAlloc,std::less<unsigned long>,std::allocator<std::pair<unsigned long const ,ioBasicTooltipManager::TooltipAlloc> >,0> > > &,bool>
_TEXT	ENDS
PUBLIC	?compare@?$basic_string@DU?$char_traits@D@std@@V?$allocator@D@2@@std@@QBEHABV12@@Z ; std::basic_string<char,std::char_traits<char>,std::allocator<char> >::compare
; Function compile flags: /Ogsp
; File c:\program files (x86)\microsoft visual studio 10.0\vc\include\xstring
;	COMDAT ?compare@?$basic_string@DU?$char_traits@D@std@@V?$allocator@D@2@@std@@QBEHABV12@@Z
_TEXT	SEGMENT
__Right$ = 8						; size = 4
?compare@?$basic_string@DU?$char_traits@D@std@@V?$allocator@D@2@@std@@QBEHABV12@@Z PROC ; std::basic_string<char,std::char_traits<char>,std::allocator<char> >::compare, COMDAT
; _this$ = ecx

; 1853 : 		{	// compare [0, _Mysize) with _Right

  00000	55		 push	 ebp
  00001	8b ec		 mov	 ebp, esp

; 1854 : 		return (compare(0, this->_Mysize, _Right._Myptr(), _Right.size()));

  00003	8b 45 08	 mov	 eax, DWORD PTR __Right$[ebp]
  00006	83 78 14 10	 cmp	 DWORD PTR [eax+20], 16	; 00000010H
  0000a	8b 50 10	 mov	 edx, DWORD PTR [eax+16]
  0000d	72 02		 jb	 SHORT $LN7@compare@3
  0000f	8b 00		 mov	 eax, DWORD PTR [eax]
$LN7@compare@3:
  00011	52		 push	 edx
  00012	50		 push	 eax
  00013	ff 71 10	 push	 DWORD PTR [ecx+16]
  00016	6a 00		 push	 0
  00018	e8 00 00 00 00	 call	 ?compare@?$basic_string@DU?$char_traits@D@std@@V?$allocator@D@2@@std@@QBEHIIPBDI@Z ; std::basic_string<char,std::char_traits<char>,std::allocator<char> >::compare

; 1855 : 		}

  0001d	5d		 pop	 ebp
  0001e	c2 04 00	 ret	 4
?compare@?$basic_string@DU?$char_traits@D@std@@V?$allocator@D@2@@std@@QBEHABV12@@Z ENDP ; std::basic_string<char,std::char_traits<char>,std::allocator<char> >::compare
_TEXT	ENDS
PUBLIC	?_Tidy@?$basic_string@DU?$char_traits@D@std@@V?$allocator@D@2@@std@@QAEX_NI@Z ; std::basic_string<char,std::char_traits<char>,std::allocator<char> >::_Tidy
; Function compile flags: /Ogsp
;	COMDAT ?_Tidy@?$basic_string@DU?$char_traits@D@std@@V?$allocator@D@2@@std@@QAEX_NI@Z
_TEXT	SEGMENT
__Built$ = 8						; size = 1
__Newsize$ = 12						; size = 4
?_Tidy@?$basic_string@DU?$char_traits@D@std@@V?$allocator@D@2@@std@@QAEX_NI@Z PROC ; std::basic_string<char,std::char_traits<char>,std::allocator<char> >::_Tidy, COMDAT
; _this$ = ecx

; 1988 : 		{	// initialize buffer, deallocating any storage

  00000	55		 push	 ebp
  00001	8b ec		 mov	 ebp, esp

; 1989 : 		if (!_Built)

  00003	80 7d 08 00	 cmp	 BYTE PTR __Built$[ebp], 0
  00007	56		 push	 esi
  00008	57		 push	 edi
  00009	8b 7d 0c	 mov	 edi, DWORD PTR __Newsize$[ebp]
  0000c	8b f1		 mov	 esi, ecx
  0000e	74 20		 je	 SHORT $LN9@Tidy

; 1990 : 			;
; 1991 : 		else if (this->_BUF_SIZE <= this->_Myres)

  00010	83 7e 14 10	 cmp	 DWORD PTR [esi+20], 16	; 00000010H
  00014	72 1a		 jb	 SHORT $LN9@Tidy

; 1992 : 			{	// copy any leftovers to small buffer and deallocate
; 1993 : 			_Elem *_Ptr = this->_Bx._Ptr;

  00016	53		 push	 ebx
  00017	8b 1e		 mov	 ebx, DWORD PTR [esi]

; 1994 : 			if (0 < _Newsize)

  00019	85 ff		 test	 edi, edi
  0001b	74 0b		 je	 SHORT $LN7@Tidy

; 1995 : 				_Traits::copy(this->_Bx._Buf, _Ptr, _Newsize);

  0001d	57		 push	 edi
  0001e	53		 push	 ebx
  0001f	56		 push	 esi
  00020	e8 00 00 00 00	 call	 _memcpy
  00025	83 c4 0c	 add	 esp, 12			; 0000000cH
$LN7@Tidy:

; 1996 : 			this->_Alval.deallocate(_Ptr, this->_Myres + 1);

  00028	53		 push	 ebx
  00029	e8 00 00 00 00	 call	 ??3@YAXPAX@Z		; operator delete
  0002e	59		 pop	 ecx
  0002f	5b		 pop	 ebx
$LN9@Tidy:

; 1997 : 			}
; 1998 : 		this->_Myres = this->_BUF_SIZE - 1;
; 1999 : 		_Eos(_Newsize);

  00030	89 7e 10	 mov	 DWORD PTR [esi+16], edi
  00033	c7 46 14 0f 00
	00 00		 mov	 DWORD PTR [esi+20], 15	; 0000000fH
  0003a	c6 04 37 00	 mov	 BYTE PTR [edi+esi], 0
  0003e	5f		 pop	 edi
  0003f	5e		 pop	 esi

; 2000 : 		}

  00040	5d		 pop	 ebp
  00041	c2 08 00	 ret	 8
?_Tidy@?$basic_string@DU?$char_traits@D@std@@V?$allocator@D@2@@std@@QAEX_NI@Z ENDP ; std::basic_string<char,std::char_traits<char>,std::allocator<char> >::_Tidy
_TEXT	ENDS
PUBLIC	?erase@?$basic_string@DU?$char_traits@D@std@@V?$allocator@D@2@@std@@QAEAAV12@II@Z ; std::basic_string<char,std::char_traits<char>,std::allocator<char> >::erase
; Function compile flags: /Ogsp
;	COMDAT ?erase@?$basic_string@DU?$char_traits@D@std@@V?$allocator@D@2@@std@@QAEAAV12@II@Z
_TEXT	SEGMENT
__Off$ = 8						; size = 4
__Count$ = 12						; size = 4
?erase@?$basic_string@DU?$char_traits@D@std@@V?$allocator@D@2@@std@@QAEAAV12@II@Z PROC ; std::basic_string<char,std::char_traits<char>,std::allocator<char> >::erase, COMDAT
; _this$ = ecx

; 1109 : 		{	// erase elements [_Off, _Off + _Count)

  00000	55		 push	 ebp
  00001	8b ec		 mov	 ebp, esp
  00003	53		 push	 ebx
  00004	56		 push	 esi
  00005	8b f1		 mov	 esi, ecx

; 1110 : 		if (this->_Mysize < _Off)

  00007	8b 46 10	 mov	 eax, DWORD PTR [esi+16]
  0000a	8b 4d 08	 mov	 ecx, DWORD PTR __Off$[ebp]
  0000d	3b c1		 cmp	 eax, ecx
  0000f	73 0b		 jae	 SHORT $LN3@erase

; 1111 : 			_Xran();	// _Off off end

  00011	68 00 00 00 00	 push	 OFFSET ??_C@_0BI@CFPLBAOH@invalid?5string?5position?$AA@
  00016	ff 15 00 00 00
	00		 call	 DWORD PTR __imp_?_Xout_of_range@std@@YAXPBD@Z
$LN28@erase:
$LN3@erase:

; 1112 : 		if (this->_Mysize - _Off < _Count)

  0001c	8b 5d 0c	 mov	 ebx, DWORD PTR __Count$[ebp]
  0001f	2b c1		 sub	 eax, ecx
  00021	3b c3		 cmp	 eax, ebx

; 1113 : 			_Count = this->_Mysize - _Off;	// trim _Count

  00023	0f 42 d8	 cmovb	 ebx, eax

; 1114 : 		if (0 < _Count)

  00026	85 db		 test	 ebx, ebx
  00028	74 47		 je	 SHORT $LN25@erase

; 1115 : 			{	// move elements down
; 1116 : 			_Traits::move(_Myptr() + _Off, _Myptr() + _Off + _Count,
; 1117 : 				this->_Mysize - _Off - _Count);

  0002a	8b 56 14	 mov	 edx, DWORD PTR [esi+20]
  0002d	57		 push	 edi
  0002e	83 fa 10	 cmp	 edx, 16			; 00000010H
  00031	72 04		 jb	 SHORT $LN11@erase
  00033	8b 3e		 mov	 edi, DWORD PTR [esi]
  00035	eb 02		 jmp	 SHORT $LN12@erase
$LN11@erase:
  00037	8b fe		 mov	 edi, esi
$LN12@erase:
  00039	83 fa 10	 cmp	 edx, 16			; 00000010H
  0003c	72 04		 jb	 SHORT $LN15@erase
  0003e	8b 16		 mov	 edx, DWORD PTR [esi]
  00040	eb 02		 jmp	 SHORT $LN16@erase
$LN15@erase:
  00042	8b d6		 mov	 edx, esi
$LN16@erase:
  00044	2b c3		 sub	 eax, ebx
  00046	03 f9		 add	 edi, ecx
  00048	50		 push	 eax
  00049	03 fb		 add	 edi, ebx
  0004b	03 d1		 add	 edx, ecx
  0004d	57		 push	 edi
  0004e	52		 push	 edx
  0004f	ff 15 00 00 00
	00		 call	 DWORD PTR __imp__memmove

; 1118 : 			size_type _Newsize = this->_Mysize - _Count;

  00055	8b 46 10	 mov	 eax, DWORD PTR [esi+16]
  00058	83 c4 0c	 add	 esp, 12			; 0000000cH
  0005b	2b c3		 sub	 eax, ebx

; 1119 : 			_Eos(_Newsize);

  0005d	83 7e 14 10	 cmp	 DWORD PTR [esi+20], 16	; 00000010H
  00061	89 46 10	 mov	 DWORD PTR [esi+16], eax
  00064	5f		 pop	 edi
  00065	72 04		 jb	 SHORT $LN23@erase
  00067	8b 0e		 mov	 ecx, DWORD PTR [esi]
  00069	eb 02		 jmp	 SHORT $LN24@erase
$LN23@erase:
  0006b	8b ce		 mov	 ecx, esi
$LN24@erase:
  0006d	c6 04 01 00	 mov	 BYTE PTR [ecx+eax], 0
$LN25@erase:

; 1120 : 			}
; 1121 : 		return (*this);

  00071	8b c6		 mov	 eax, esi
  00073	5e		 pop	 esi
  00074	5b		 pop	 ebx

; 1122 : 		}

  00075	5d		 pop	 ebp
  00076	c2 08 00	 ret	 8
$LN27@erase:
?erase@?$basic_string@DU?$char_traits@D@std@@V?$allocator@D@2@@std@@QAEAAV12@II@Z ENDP ; std::basic_string<char,std::char_traits<char>,std::allocator<char> >::erase
_TEXT	ENDS
PUBLIC	?_Copy@?$basic_string@DU?$char_traits@D@std@@V?$allocator@D@2@@std@@QAEXII@Z ; std::basic_string<char,std::char_traits<char>,std::allocator<char> >::_Copy
EXTRN	___CxxFrameHandler3:PROC
EXTRN	@__security_check_cookie@4:PROC
EXTRN	__EH_epilog3:PROC
EXTRN	__EH_prolog3_catch:PROC
;	COMDAT xdata$x
; File c:\program files (x86)\microsoft visual studio 10.0\vc\include\iosfwd
xdata$x	SEGMENT
__catchsym$?_Copy@?$basic_string@DU?$char_traits@D@std@@V?$allocator@D@2@@std@@QAEXII@Z$5 DD 040H
	DD	00H
	DD	00H
	DD	FLAT:__catch$?_Copy@?$basic_string@DU?$char_traits@D@std@@V?$allocator@D@2@@std@@QAEXII@Z$0
__catchsym$?_Copy@?$basic_string@DU?$char_traits@D@std@@V?$allocator@D@2@@std@@QAEXII@Z$4 DD 040H
	DD	00H
	DD	00H
	DD	FLAT:__catch$?_Copy@?$basic_string@DU?$char_traits@D@std@@V?$allocator@D@2@@std@@QAEXII@Z$1
__unwindtable$?_Copy@?$basic_string@DU?$char_traits@D@std@@V?$allocator@D@2@@std@@QAEXII@Z DD 0ffffffffH
	DD	00H
	DD	0ffffffffH
	DD	00H
	DD	01H
	DD	00H
	DD	01H
	DD	00H
__ehfuncinfo$?_Copy@?$basic_string@DU?$char_traits@D@std@@V?$allocator@D@2@@std@@QAEXII@Z DD 019930522H
	DD	04H
	DD	FLAT:__unwindtable$?_Copy@?$basic_string@DU?$char_traits@D@std@@V?$allocator@D@2@@std@@QAEXII@Z
	DD	02H
	DD	FLAT:__tryblocktable$?_Copy@?$basic_string@DU?$char_traits@D@std@@V?$allocator@D@2@@std@@QAEXII@Z
	DD	2 DUP(00H)
	DD	00H
	DD	01H
__tryblocktable$?_Copy@?$basic_string@DU?$char_traits@D@std@@V?$allocator@D@2@@std@@QAEXII@Z DD 02H
	DD	02H
	DD	03H
	DD	01H
	DD	FLAT:__catchsym$?_Copy@?$basic_string@DU?$char_traits@D@std@@V?$allocator@D@2@@std@@QAEXII@Z$4
	DD	00H
	DD	00H
	DD	03H
	DD	01H
	DD	FLAT:__catchsym$?_Copy@?$basic_string@DU?$char_traits@D@std@@V?$allocator@D@2@@std@@QAEXII@Z$5
; Function compile flags: /Ogsp
; File c:\program files (x86)\microsoft visual studio 10.0\vc\include\xstring
xdata$x	ENDS
;	COMDAT ?_Copy@?$basic_string@DU?$char_traits@D@std@@V?$allocator@D@2@@std@@QAEXII@Z
_TEXT	SEGMENT
_this$ = -24						; size = 4
tv296 = -20						; size = 4
__Newres$ = -20						; size = 4
__$EHRec$ = -16						; size = 16
__Ptr$ = 8						; size = 4
__Newsize$ = 8						; size = 4
__Oldlen$ = 12						; size = 4
?_Copy@?$basic_string@DU?$char_traits@D@std@@V?$allocator@D@2@@std@@QAEXII@Z PROC ; std::basic_string<char,std::char_traits<char>,std::allocator<char> >::_Copy, COMDAT
; _this$ = ecx

; 1919 : 		{	// copy _Oldlen elements to newly allocated buffer

  00000	6a 0c		 push	 12			; 0000000cH
  00002	b8 00 00 00 00	 mov	 eax, __ehhandler$?_Copy@?$basic_string@DU?$char_traits@D@std@@V?$allocator@D@2@@std@@QAEXII@Z
  00007	e8 00 00 00 00	 call	 __EH_prolog3_catch
  0000c	8b f1		 mov	 esi, ecx
  0000e	89 75 e8	 mov	 DWORD PTR _this$[ebp], esi

; 1920 : 		size_type _Newres = _Newsize | this->_ALLOC_MASK;

  00011	8b 7d 08	 mov	 edi, DWORD PTR __Newsize$[ebp]
  00014	83 cf 0f	 or	 edi, 15			; 0000000fH

; 1921 : 		if (max_size() < _Newres)

  00017	83 ff fe	 cmp	 edi, -2			; fffffffeH
  0001a	76 05		 jbe	 SHORT $LN9@Copy

; 1922 : 			_Newres = _Newsize;	// undo roundup if too big

  0001c	8b 7d 08	 mov	 edi, DWORD PTR __Newsize$[ebp]
  0001f	eb 27		 jmp	 SHORT $LN5@Copy
$LN9@Copy:

; 1923 : 		else if (this->_Myres / 2 <= _Newres / 3)

  00021	33 d2		 xor	 edx, edx
  00023	6a 03		 push	 3
  00025	8b c7		 mov	 eax, edi
  00027	5b		 pop	 ebx
  00028	f7 f3		 div	 ebx
  0002a	8b 4e 14	 mov	 ecx, DWORD PTR [esi+20]
  0002d	89 4d ec	 mov	 DWORD PTR tv296[ebp], ecx
  00030	d1 6d ec	 shr	 DWORD PTR tv296[ebp], 1
  00033	8b 55 ec	 mov	 edx, DWORD PTR tv296[ebp]
  00036	3b d0		 cmp	 edx, eax
  00038	76 0e		 jbe	 SHORT $LN5@Copy

; 1924 : 			;
; 1925 : 		else if (this->_Myres <= max_size() - this->_Myres / 2)

  0003a	6a fe		 push	 -2			; fffffffeH
  0003c	5f		 pop	 edi
  0003d	8b c7		 mov	 eax, edi
  0003f	2b c2		 sub	 eax, edx
  00041	3b c8		 cmp	 ecx, eax
  00043	77 03		 ja	 SHORT $LN5@Copy

; 1926 : 			_Newres = this->_Myres
; 1927 : 				+ this->_Myres / 2;	// grow exponentially if possible

  00045	8d 3c 0a	 lea	 edi, DWORD PTR [edx+ecx]
$LN5@Copy:

; 1928 : 		else
; 1929 : 			_Newres = max_size();	// settle for max_size()
; 1930 : 
; 1931 : 		_Elem *_Ptr;
; 1932 : 		_TRY_BEGIN

  00048	83 65 fc 00	 and	 DWORD PTR __$EHRec$[ebp+12], 0

; 1933 : 			_Ptr = this->_Alval.allocate(_Newres + 1);

  0004c	8d 47 01	 lea	 eax, DWORD PTR [edi+1]
  0004f	6a 00		 push	 0
  00051	50		 push	 eax
  00052	e8 00 00 00 00	 call	 ??$_Allocate@D@std@@YAPADIPAD@Z ; std::_Allocate<char>
  00057	59		 pop	 ecx
  00058	59		 pop	 ecx
  00059	89 45 08	 mov	 DWORD PTR __Ptr$[ebp], eax
  0005c	eb 27		 jmp	 SHORT $LN19@Copy
__catch$?_Copy@?$basic_string@DU?$char_traits@D@std@@V?$allocator@D@2@@std@@QAEXII@Z$0:

; 1934 : 		_CATCH_ALL
; 1935 : 			_Newres = _Newsize;	// allocation failed, undo roundup and retry

  0005e	8b 45 08	 mov	 eax, DWORD PTR __Newsize$[ebp]
  00061	89 65 f0	 mov	 DWORD PTR __$EHRec$[ebp], esp
  00064	89 45 ec	 mov	 DWORD PTR __Newres$[ebp], eax

; 1936 : 			_TRY_BEGIN
; 1937 : 				_Ptr = this->_Alval.allocate(_Newres + 1);

  00067	40		 inc	 eax
  00068	6a 00		 push	 0
  0006a	50		 push	 eax
  0006b	c6 45 fc 02	 mov	 BYTE PTR __$EHRec$[ebp+12], 2
  0006f	e8 00 00 00 00	 call	 ??$_Allocate@D@std@@YAPADIPAD@Z ; std::_Allocate<char>
  00074	59		 pop	 ecx
  00075	89 45 08	 mov	 DWORD PTR __Ptr$[ebp], eax
  00078	59		 pop	 ecx

; 1941 : 			_CATCH_END
; 1942 : 		_CATCH_END

  00079	b8 00 00 00 00	 mov	 eax, $LN63@Copy
  0007e	c3		 ret	 0
$LN63@Copy:
  0007f	8b 75 e8	 mov	 esi, DWORD PTR _this$[ebp]
  00082	8b 7d ec	 mov	 edi, DWORD PTR __Newres$[ebp]
$LN19@Copy:

; 1943 : 
; 1944 : 		if (0 < _Oldlen)

  00085	8b 5d 0c	 mov	 ebx, DWORD PTR __Oldlen$[ebp]
  00088	85 db		 test	 ebx, ebx
  0008a	74 19		 je	 SHORT $LN52@Copy

; 1945 : 			_Traits::copy(_Ptr, _Myptr(), _Oldlen);	// copy existing elements

  0008c	83 7e 14 10	 cmp	 DWORD PTR [esi+20], 16	; 00000010H
  00090	72 04		 jb	 SHORT $LN50@Copy
  00092	8b 06		 mov	 eax, DWORD PTR [esi]
  00094	eb 02		 jmp	 SHORT $LN51@Copy
$LN50@Copy:
  00096	8b c6		 mov	 eax, esi
$LN51@Copy:
  00098	53		 push	 ebx
  00099	50		 push	 eax
  0009a	ff 75 08	 push	 DWORD PTR __Ptr$[ebp]
  0009d	e8 00 00 00 00	 call	 _memcpy
  000a2	83 c4 0c	 add	 esp, 12			; 0000000cH
$LN52@Copy:

; 1946 : 		_Tidy(true);

  000a5	6a 00		 push	 0
  000a7	6a 01		 push	 1
  000a9	8b ce		 mov	 ecx, esi
  000ab	e8 00 00 00 00	 call	 ?_Tidy@?$basic_string@DU?$char_traits@D@std@@V?$allocator@D@2@@std@@QAEX_NI@Z ; std::basic_string<char,std::char_traits<char>,std::allocator<char> >::_Tidy

; 1947 : 		this->_Bx._Ptr = _Ptr;

  000b0	8b 45 08	 mov	 eax, DWORD PTR __Ptr$[ebp]
  000b3	89 06		 mov	 DWORD PTR [esi], eax

; 1948 : 		this->_Myres = _Newres;
; 1949 : 		_Eos(_Oldlen);

  000b5	83 ff 10	 cmp	 edi, 16			; 00000010H
  000b8	89 7e 14	 mov	 DWORD PTR [esi+20], edi
  000bb	89 5e 10	 mov	 DWORD PTR [esi+16], ebx
  000be	0f 42 c6	 cmovb	 eax, esi
  000c1	c6 04 18 00	 mov	 BYTE PTR [eax+ebx], 0

; 1950 : 		}

  000c5	e8 00 00 00 00	 call	 __EH_epilog3
  000ca	c2 08 00	 ret	 8
__catch$?_Copy@?$basic_string@DU?$char_traits@D@std@@V?$allocator@D@2@@std@@QAEXII@Z$1:

; 1938 : 			_CATCH_ALL
; 1939 : 			_Tidy(true);	// failed again, discard storage and reraise

  000cd	8b 4d e8	 mov	 ecx, DWORD PTR _this$[ebp]
  000d0	33 f6		 xor	 esi, esi
  000d2	56		 push	 esi
  000d3	6a 01		 push	 1
  000d5	e8 00 00 00 00	 call	 ?_Tidy@?$basic_string@DU?$char_traits@D@std@@V?$allocator@D@2@@std@@QAEX_NI@Z ; std::basic_string<char,std::char_traits<char>,std::allocator<char> >::_Tidy

; 1940 : 			_RERAISE;

  000da	56		 push	 esi
  000db	56		 push	 esi
  000dc	e8 00 00 00 00	 call	 __CxxThrowException@8
$LN67@Copy:
$LN66@Copy:
  000e1	cc		 int	 3
_TEXT	ENDS
;	COMDAT text$x
text$x	SEGMENT
__ehhandler$?_Copy@?$basic_string@DU?$char_traits@D@std@@V?$allocator@D@2@@std@@QAEXII@Z:
  00000	8b 54 24 08	 mov	 edx, DWORD PTR [esp+8]
  00004	8d 42 0c	 lea	 eax, DWORD PTR [edx+12]
  00007	8b 4a e4	 mov	 ecx, DWORD PTR [edx-28]
  0000a	33 c8		 xor	 ecx, eax
  0000c	e8 00 00 00 00	 call	 @__security_check_cookie@4
  00011	b8 00 00 00 00	 mov	 eax, OFFSET __ehfuncinfo$?_Copy@?$basic_string@DU?$char_traits@D@std@@V?$allocator@D@2@@std@@QAEXII@Z
  00016	e9 00 00 00 00	 jmp	 ___CxxFrameHandler3
text$x	ENDS
?_Copy@?$basic_string@DU?$char_traits@D@std@@V?$allocator@D@2@@std@@QAEXII@Z ENDP ; std::basic_string<char,std::char_traits<char>,std::allocator<char> >::_Copy
PUBLIC	?begin@?$vector@UTooltipAlloc@ioBasicTooltipManager@@V?$allocator@UTooltipAlloc@ioBasicTooltipManager@@@std@@@std@@QAE?AV?$_Vector_iterator@V?$_Vector_val@UTooltipAlloc@ioBasicTooltipManager@@V?$allocator@UTooltipAlloc@ioBasicTooltipManager@@@std@@@std@@@2@XZ ; std::vector<ioBasicTooltipManager::TooltipAlloc,std::allocator<ioBasicTooltipManager::TooltipAlloc> >::begin
; Function compile flags: /Ogsp
; File c:\program files (x86)\microsoft visual studio 10.0\vc\include\vector
;	COMDAT ?begin@?$vector@UTooltipAlloc@ioBasicTooltipManager@@V?$allocator@UTooltipAlloc@ioBasicTooltipManager@@@std@@@std@@QAE?AV?$_Vector_iterator@V?$_Vector_val@UTooltipAlloc@ioBasicTooltipManager@@V?$allocator@UTooltipAlloc@ioBasicTooltipManager@@@std@@@std@@@2@XZ
_TEXT	SEGMENT
___$ReturnUdt$ = 8					; size = 4
?begin@?$vector@UTooltipAlloc@ioBasicTooltipManager@@V?$allocator@UTooltipAlloc@ioBasicTooltipManager@@@std@@@std@@QAE?AV?$_Vector_iterator@V?$_Vector_val@UTooltipAlloc@ioBasicTooltipManager@@V?$allocator@UTooltipAlloc@ioBasicTooltipManager@@@std@@@std@@@2@XZ PROC ; std::vector<ioBasicTooltipManager::TooltipAlloc,std::allocator<ioBasicTooltipManager::TooltipAlloc> >::begin, COMDAT
; _this$ = ecx

; 781  : 		{	// return iterator for beginning of mutable sequence

  00000	55		 push	 ebp
  00001	8b ec		 mov	 ebp, esp

; 782  : 		return (iterator(this->_Myfirst, this));

  00003	8b 09		 mov	 ecx, DWORD PTR [ecx]
  00005	8b 45 08	 mov	 eax, DWORD PTR ___$ReturnUdt$[ebp]
  00008	89 08		 mov	 DWORD PTR [eax], ecx

; 783  : 		}

  0000a	5d		 pop	 ebp
  0000b	c2 04 00	 ret	 4
?begin@?$vector@UTooltipAlloc@ioBasicTooltipManager@@V?$allocator@UTooltipAlloc@ioBasicTooltipManager@@@std@@@std@@QAE?AV?$_Vector_iterator@V?$_Vector_val@UTooltipAlloc@ioBasicTooltipManager@@V?$allocator@UTooltipAlloc@ioBasicTooltipManager@@@std@@@std@@@2@XZ ENDP ; std::vector<ioBasicTooltipManager::TooltipAlloc,std::allocator<ioBasicTooltipManager::TooltipAlloc> >::begin
_TEXT	ENDS
PUBLIC	?end@?$vector@UTooltipAlloc@ioBasicTooltipManager@@V?$allocator@UTooltipAlloc@ioBasicTooltipManager@@@std@@@std@@QAE?AV?$_Vector_iterator@V?$_Vector_val@UTooltipAlloc@ioBasicTooltipManager@@V?$allocator@UTooltipAlloc@ioBasicTooltipManager@@@std@@@std@@@2@XZ ; std::vector<ioBasicTooltipManager::TooltipAlloc,std::allocator<ioBasicTooltipManager::TooltipAlloc> >::end
; Function compile flags: /Ogsp
;	COMDAT ?end@?$vector@UTooltipAlloc@ioBasicTooltipManager@@V?$allocator@UTooltipAlloc@ioBasicTooltipManager@@@std@@@std@@QAE?AV?$_Vector_iterator@V?$_Vector_val@UTooltipAlloc@ioBasicTooltipManager@@V?$allocator@UTooltipAlloc@ioBasicTooltipManager@@@std@@@std@@@2@XZ
_TEXT	SEGMENT
___$ReturnUdt$ = 8					; size = 4
?end@?$vector@UTooltipAlloc@ioBasicTooltipManager@@V?$allocator@UTooltipAlloc@ioBasicTooltipManager@@@std@@@std@@QAE?AV?$_Vector_iterator@V?$_Vector_val@UTooltipAlloc@ioBasicTooltipManager@@V?$allocator@UTooltipAlloc@ioBasicTooltipManager@@@std@@@std@@@2@XZ PROC ; std::vector<ioBasicTooltipManager::TooltipAlloc,std::allocator<ioBasicTooltipManager::TooltipAlloc> >::end, COMDAT
; _this$ = ecx

; 791  : 		{	// return iterator for end of mutable sequence

  00000	55		 push	 ebp
  00001	8b ec		 mov	 ebp, esp

; 792  : 		return (iterator(this->_Mylast, this));

  00003	8b 49 04	 mov	 ecx, DWORD PTR [ecx+4]
  00006	8b 45 08	 mov	 eax, DWORD PTR ___$ReturnUdt$[ebp]
  00009	89 08		 mov	 DWORD PTR [eax], ecx

; 793  : 		}

  0000b	5d		 pop	 ebp
  0000c	c2 04 00	 ret	 4
?end@?$vector@UTooltipAlloc@ioBasicTooltipManager@@V?$allocator@UTooltipAlloc@ioBasicTooltipManager@@@std@@@std@@QAE?AV?$_Vector_iterator@V?$_Vector_val@UTooltipAlloc@ioBasicTooltipManager@@V?$allocator@UTooltipAlloc@ioBasicTooltipManager@@@std@@@std@@@2@XZ ENDP ; std::vector<ioBasicTooltipManager::TooltipAlloc,std::allocator<ioBasicTooltipManager::TooltipAlloc> >::end
_TEXT	ENDS
PUBLIC	??C?$_Tree_iterator@V?$_Tree_val@V?$_Tmap_traits@KUTooltipAlloc@ioBasicTooltipManager@@U?$less@K@std@@V?$allocator@U?$pair@$$CBKUTooltipAlloc@ioBasicTooltipManager@@@std@@@4@$0A@@std@@@std@@@std@@QBEPAU?$pair@$$CBKUTooltipAlloc@ioBasicTooltipManager@@@1@XZ ; std::_Tree_iterator<std::_Tree_val<std::_Tmap_traits<unsigned long,ioBasicTooltipManager::TooltipAlloc,std::less<unsigned long>,std::allocator<std::pair<unsigned long const ,ioBasicTooltipManager::TooltipAlloc> >,0> > >::operator->
; Function compile flags: /Ogsp
; File c:\program files (x86)\microsoft visual studio 10.0\vc\include\xtree
;	COMDAT ??C?$_Tree_iterator@V?$_Tree_val@V?$_Tmap_traits@KUTooltipAlloc@ioBasicTooltipManager@@U?$less@K@std@@V?$allocator@U?$pair@$$CBKUTooltipAlloc@ioBasicTooltipManager@@@std@@@4@$0A@@std@@@std@@@std@@QBEPAU?$pair@$$CBKUTooltipAlloc@ioBasicTooltipManager@@@1@XZ
_TEXT	SEGMENT
??C?$_Tree_iterator@V?$_Tree_val@V?$_Tmap_traits@KUTooltipAlloc@ioBasicTooltipManager@@U?$less@K@std@@V?$allocator@U?$pair@$$CBKUTooltipAlloc@ioBasicTooltipManager@@@std@@@4@$0A@@std@@@std@@@std@@QBEPAU?$pair@$$CBKUTooltipAlloc@ioBasicTooltipManager@@@1@XZ PROC ; std::_Tree_iterator<std::_Tree_val<std::_Tmap_traits<unsigned long,ioBasicTooltipManager::TooltipAlloc,std::less<unsigned long>,std::allocator<std::pair<unsigned long const ,ioBasicTooltipManager::TooltipAlloc> >,0> > >::operator->, COMDAT
; _this$ = ecx

; 401  : 		return (&**this);

  00000	8b 01		 mov	 eax, DWORD PTR [ecx]
  00002	83 c0 0c	 add	 eax, 12			; 0000000cH

; 402  : 		}

  00005	c3		 ret	 0
??C?$_Tree_iterator@V?$_Tree_val@V?$_Tmap_traits@KUTooltipAlloc@ioBasicTooltipManager@@U?$less@K@std@@V?$allocator@U?$pair@$$CBKUTooltipAlloc@ioBasicTooltipManager@@@std@@@4@$0A@@std@@@std@@@std@@QBEPAU?$pair@$$CBKUTooltipAlloc@ioBasicTooltipManager@@@1@XZ ENDP ; std::_Tree_iterator<std::_Tree_val<std::_Tmap_traits<unsigned long,ioBasicTooltipManager::TooltipAlloc,std::less<unsigned long>,std::allocator<std::pair<unsigned long const ,ioBasicTooltipManager::TooltipAlloc> >,0> > >::operator->
_TEXT	ENDS
PUBLIC	??E?$_Tree_iterator@V?$_Tree_val@V?$_Tmap_traits@KUTooltipAlloc@ioBasicTooltipManager@@U?$less@K@std@@V?$allocator@U?$pair@$$CBKUTooltipAlloc@ioBasicTooltipManager@@@std@@@4@$0A@@std@@@std@@@std@@QAEAAV01@XZ ; std::_Tree_iterator<std::_Tree_val<std::_Tmap_traits<unsigned long,ioBasicTooltipManager::TooltipAlloc,std::less<unsigned long>,std::allocator<std::pair<unsigned long const ,ioBasicTooltipManager::TooltipAlloc> >,0> > >::operator++
; Function compile flags: /Ogsp
;	COMDAT ??E?$_Tree_iterator@V?$_Tree_val@V?$_Tmap_traits@KUTooltipAlloc@ioBasicTooltipManager@@U?$less@K@std@@V?$allocator@U?$pair@$$CBKUTooltipAlloc@ioBasicTooltipManager@@@std@@@4@$0A@@std@@@std@@@std@@QAEAAV01@XZ
_TEXT	SEGMENT
??E?$_Tree_iterator@V?$_Tree_val@V?$_Tmap_traits@KUTooltipAlloc@ioBasicTooltipManager@@U?$less@K@std@@V?$allocator@U?$pair@$$CBKUTooltipAlloc@ioBasicTooltipManager@@@std@@@4@$0A@@std@@@std@@@std@@QAEAAV01@XZ PROC ; std::_Tree_iterator<std::_Tree_val<std::_Tmap_traits<unsigned long,ioBasicTooltipManager::TooltipAlloc,std::less<unsigned long>,std::allocator<std::pair<unsigned long const ,ioBasicTooltipManager::TooltipAlloc> >,0> > >::operator++, COMDAT
; _this$ = ecx

; 405  : 		{	// preincrement

  00000	56		 push	 esi
  00001	8b f1		 mov	 esi, ecx

; 406  : 		++(*(_Mybase *)this);

  00003	e8 00 00 00 00	 call	 ??E?$_Tree_unchecked_const_iterator@V?$_Tree_val@V?$_Tmap_traits@KUTooltipAlloc@ioBasicTooltipManager@@U?$less@K@std@@V?$allocator@U?$pair@$$CBKUTooltipAlloc@ioBasicTooltipManager@@@std@@@4@$0A@@std@@@std@@U_Iterator_base0@2@@std@@QAEAAV01@XZ ; std::_Tree_unchecked_const_iterator<std::_Tree_val<std::_Tmap_traits<unsigned long,ioBasicTooltipManager::TooltipAlloc,std::less<unsigned long>,std::allocator<std::pair<unsigned long const ,ioBasicTooltipManager::TooltipAlloc> >,0> >,std::_Iterator_base0>::operator++

; 407  : 		return (*this);

  00008	8b c6		 mov	 eax, esi
  0000a	5e		 pop	 esi

; 408  : 		}

  0000b	c3		 ret	 0
??E?$_Tree_iterator@V?$_Tree_val@V?$_Tmap_traits@KUTooltipAlloc@ioBasicTooltipManager@@U?$less@K@std@@V?$allocator@U?$pair@$$CBKUTooltipAlloc@ioBasicTooltipManager@@@std@@@4@$0A@@std@@@std@@@std@@QAEAAV01@XZ ENDP ; std::_Tree_iterator<std::_Tree_val<std::_Tmap_traits<unsigned long,ioBasicTooltipManager::TooltipAlloc,std::less<unsigned long>,std::allocator<std::pair<unsigned long const ,ioBasicTooltipManager::TooltipAlloc> >,0> > >::operator++
_TEXT	ENDS
PUBLIC	??0?$_Tree@V?$_Tmap_traits@KUTooltipAlloc@ioBasicTooltipManager@@U?$less@K@std@@V?$allocator@U?$pair@$$CBKUTooltipAlloc@ioBasicTooltipManager@@@std@@@4@$0A@@std@@@std@@QAE@ABU?$less@K@1@ABV?$allocator@U?$pair@$$CBKUTooltipAlloc@ioBasicTooltipManager@@@std@@@1@@Z ; std::_Tree<std::_Tmap_traits<unsigned long,ioBasicTooltipManager::TooltipAlloc,std::less<unsigned long>,std::allocator<std::pair<unsigned long const ,ioBasicTooltipManager::TooltipAlloc> >,0> >::_Tree<std::_Tmap_traits<unsigned long,ioBasicTooltipManager::TooltipAlloc,std::less<unsigned long>,std::allocator<std::pair<unsigned long const ,ioBasicTooltipManager::TooltipAlloc> >,0> >
; Function compile flags: /Ogsp
;	COMDAT ??0?$_Tree@V?$_Tmap_traits@KUTooltipAlloc@ioBasicTooltipManager@@U?$less@K@std@@V?$allocator@U?$pair@$$CBKUTooltipAlloc@ioBasicTooltipManager@@@std@@@4@$0A@@std@@@std@@QAE@ABU?$less@K@1@ABV?$allocator@U?$pair@$$CBKUTooltipAlloc@ioBasicTooltipManager@@@std@@@1@@Z
_TEXT	SEGMENT
$T509978 = -4						; size = 4
$T509973 = -4						; size = 4
__Parg$ = 8						; size = 4
__Al$ = 12						; size = 4
??0?$_Tree@V?$_Tmap_traits@KUTooltipAlloc@ioBasicTooltipManager@@U?$less@K@std@@V?$allocator@U?$pair@$$CBKUTooltipAlloc@ioBasicTooltipManager@@@std@@@4@$0A@@std@@@std@@QAE@ABU?$less@K@1@ABV?$allocator@U?$pair@$$CBKUTooltipAlloc@ioBasicTooltipManager@@@std@@@1@@Z PROC ; std::_Tree<std::_Tmap_traits<unsigned long,ioBasicTooltipManager::TooltipAlloc,std::less<unsigned long>,std::allocator<std::pair<unsigned long const ,ioBasicTooltipManager::TooltipAlloc> >,0> >::_Tree<std::_Tmap_traits<unsigned long,ioBasicTooltipManager::TooltipAlloc,std::less<unsigned long>,std::allocator<std::pair<unsigned long const ,ioBasicTooltipManager::TooltipAlloc> >,0> >, COMDAT
; _this$ = ecx

; 698  : 		{	// construct empty tree

  00000	55		 push	 ebp
  00001	8b ec		 mov	 ebp, esp
  00003	51		 push	 ecx
  00004	56		 push	 esi
  00005	51		 push	 ecx
  00006	89 65 fc	 mov	 DWORD PTR $T509973[ebp], esp
  00009	89 65 fc	 mov	 DWORD PTR $T509978[ebp], esp
  0000c	ff 75 08	 push	 DWORD PTR __Parg$[ebp]
  0000f	8b f1		 mov	 esi, ecx
  00011	e8 00 00 00 00	 call	 ??0?$_Tree_val@V?$_Tmap_traits@KUTooltipAlloc@ioBasicTooltipManager@@U?$less@K@std@@V?$allocator@U?$pair@$$CBKUTooltipAlloc@ioBasicTooltipManager@@@std@@@4@$0A@@std@@@std@@QAE@ABU?$less@K@1@V?$allocator@U?$pair@$$CBKUTooltipAlloc@ioBasicTooltipManager@@@std@@@1@@Z ; std::_Tree_val<std::_Tmap_traits<unsigned long,ioBasicTooltipManager::TooltipAlloc,std::less<unsigned long>,std::allocator<std::pair<unsigned long const ,ioBasicTooltipManager::TooltipAlloc> >,0> >::_Tree_val<std::_Tmap_traits<unsigned long,ioBasicTooltipManager::TooltipAlloc,std::less<unsigned long>,std::allocator<std::pair<unsigned long const ,ioBasicTooltipManager::TooltipAlloc> >,0> >

; 699  : 		}

  00016	8b c6		 mov	 eax, esi
  00018	5e		 pop	 esi
  00019	c9		 leave
  0001a	c2 08 00	 ret	 8
??0?$_Tree@V?$_Tmap_traits@KUTooltipAlloc@ioBasicTooltipManager@@U?$less@K@std@@V?$allocator@U?$pair@$$CBKUTooltipAlloc@ioBasicTooltipManager@@@std@@@4@$0A@@std@@@std@@QAE@ABU?$less@K@1@ABV?$allocator@U?$pair@$$CBKUTooltipAlloc@ioBasicTooltipManager@@@std@@@1@@Z ENDP ; std::_Tree<std::_Tmap_traits<unsigned long,ioBasicTooltipManager::TooltipAlloc,std::less<unsigned long>,std::allocator<std::pair<unsigned long const ,ioBasicTooltipManager::TooltipAlloc> >,0> >::_Tree<std::_Tmap_traits<unsigned long,ioBasicTooltipManager::TooltipAlloc,std::less<unsigned long>,std::allocator<std::pair<unsigned long const ,ioBasicTooltipManager::TooltipAlloc> >,0> >
_TEXT	ENDS
PUBLIC	??0?$_Tree_iterator@V?$_Tree_val@V?$_Tmap_traits@KUTooltipAlloc@ioBasicTooltipManager@@U?$less@K@std@@V?$allocator@U?$pair@$$CBKUTooltipAlloc@ioBasicTooltipManager@@@std@@@4@$0A@@std@@@std@@@std@@QAE@PAU_Node@?$_Tree_nod@V?$_Tmap_traits@KUTooltipAlloc@ioBasicTooltipManager@@U?$less@K@std@@V?$allocator@U?$pair@$$CBKUTooltipAlloc@ioBasicTooltipManager@@@std@@@4@$0A@@std@@@1@PBV?$_Tree_val@V?$_Tmap_traits@KUTooltipAlloc@ioBasicTooltipManager@@U?$less@K@std@@V?$allocator@U?$pair@$$CBKUTooltipAlloc@ioBasicTooltipManager@@@std@@@4@$0A@@std@@@1@@Z ; std::_Tree_iterator<std::_Tree_val<std::_Tmap_traits<unsigned long,ioBasicTooltipManager::TooltipAlloc,std::less<unsigned long>,std::allocator<std::pair<unsigned long const ,ioBasicTooltipManager::TooltipAlloc> >,0> > >::_Tree_iterator<std::_Tree_val<std::_Tmap_traits<unsigned long,ioBasicTooltipManager::TooltipAlloc,std::less<unsigned long>,std::allocator<std::pair<unsigned long const ,ioBasicTooltipManager::TooltipAlloc> >,0> > >
; Function compile flags: /Ogsp
;	COMDAT ??0?$_Tree_iterator@V?$_Tree_val@V?$_Tmap_traits@KUTooltipAlloc@ioBasicTooltipManager@@U?$less@K@std@@V?$allocator@U?$pair@$$CBKUTooltipAlloc@ioBasicTooltipManager@@@std@@@4@$0A@@std@@@std@@@std@@QAE@PAU_Node@?$_Tree_nod@V?$_Tmap_traits@KUTooltipAlloc@ioBasicTooltipManager@@U?$less@K@std@@V?$allocator@U?$pair@$$CBKUTooltipAlloc@ioBasicTooltipManager@@@std@@@4@$0A@@std@@@1@PBV?$_Tree_val@V?$_Tmap_traits@KUTooltipAlloc@ioBasicTooltipManager@@U?$less@K@std@@V?$allocator@U?$pair@$$CBKUTooltipAlloc@ioBasicTooltipManager@@@std@@@4@$0A@@std@@@1@@Z
_TEXT	SEGMENT
__Pnode$ = 8						; size = 4
__Plist$ = 12						; size = 4
??0?$_Tree_iterator@V?$_Tree_val@V?$_Tmap_traits@KUTooltipAlloc@ioBasicTooltipManager@@U?$less@K@std@@V?$allocator@U?$pair@$$CBKUTooltipAlloc@ioBasicTooltipManager@@@std@@@4@$0A@@std@@@std@@@std@@QAE@PAU_Node@?$_Tree_nod@V?$_Tmap_traits@KUTooltipAlloc@ioBasicTooltipManager@@U?$less@K@std@@V?$allocator@U?$pair@$$CBKUTooltipAlloc@ioBasicTooltipManager@@@std@@@4@$0A@@std@@@1@PBV?$_Tree_val@V?$_Tmap_traits@KUTooltipAlloc@ioBasicTooltipManager@@U?$less@K@std@@V?$allocator@U?$pair@$$CBKUTooltipAlloc@ioBasicTooltipManager@@@std@@@4@$0A@@std@@@1@@Z PROC ; std::_Tree_iterator<std::_Tree_val<std::_Tmap_traits<unsigned long,ioBasicTooltipManager::TooltipAlloc,std::less<unsigned long>,std::allocator<std::pair<unsigned long const ,ioBasicTooltipManager::TooltipAlloc> >,0> > >::_Tree_iterator<std::_Tree_val<std::_Tmap_traits<unsigned long,ioBasicTooltipManager::TooltipAlloc,std::less<unsigned long>,std::allocator<std::pair<unsigned long const ,ioBasicTooltipManager::TooltipAlloc> >,0> > >, COMDAT
; _this$ = ecx

; 378  : 		{	// construct with node pointer _Pnode

  00000	55		 push	 ebp
  00001	8b ec		 mov	 ebp, esp
  00003	8b c1		 mov	 eax, ecx
  00005	8b 4d 08	 mov	 ecx, DWORD PTR __Pnode$[ebp]
  00008	89 08		 mov	 DWORD PTR [eax], ecx

; 379  : 		}

  0000a	5d		 pop	 ebp
  0000b	c2 08 00	 ret	 8
??0?$_Tree_iterator@V?$_Tree_val@V?$_Tmap_traits@KUTooltipAlloc@ioBasicTooltipManager@@U?$less@K@std@@V?$allocator@U?$pair@$$CBKUTooltipAlloc@ioBasicTooltipManager@@@std@@@4@$0A@@std@@@std@@@std@@QAE@PAU_Node@?$_Tree_nod@V?$_Tmap_traits@KUTooltipAlloc@ioBasicTooltipManager@@U?$less@K@std@@V?$allocator@U?$pair@$$CBKUTooltipAlloc@ioBasicTooltipManager@@@std@@@4@$0A@@std@@@1@PBV?$_Tree_val@V?$_Tmap_traits@KUTooltipAlloc@ioBasicTooltipManager@@U?$less@K@std@@V?$allocator@U?$pair@$$CBKUTooltipAlloc@ioBasicTooltipManager@@@std@@@4@$0A@@std@@@1@@Z ENDP ; std::_Tree_iterator<std::_Tree_val<std::_Tmap_traits<unsigned long,ioBasicTooltipManager::TooltipAlloc,std::less<unsigned long>,std::allocator<std::pair<unsigned long const ,ioBasicTooltipManager::TooltipAlloc> >,0> > >::_Tree_iterator<std::_Tree_val<std::_Tmap_traits<unsigned long,ioBasicTooltipManager::TooltipAlloc,std::less<unsigned long>,std::allocator<std::pair<unsigned long const ,ioBasicTooltipManager::TooltipAlloc> >,0> > >
_TEXT	ENDS
PUBLIC	??$?8DU?$char_traits@D@std@@V?$allocator@D@1@@std@@YA_NABV?$basic_string@DU?$char_traits@D@std@@V?$allocator@D@2@@0@0@Z ; std::operator==<char,std::char_traits<char>,std::allocator<char> >
; Function compile flags: /Ogsp
; File c:\program files (x86)\microsoft visual studio 10.0\vc\include\string
;	COMDAT ??$?8DU?$char_traits@D@std@@V?$allocator@D@1@@std@@YA_NABV?$basic_string@DU?$char_traits@D@std@@V?$allocator@D@2@@0@0@Z
_TEXT	SEGMENT
__Left$ = 8						; size = 4
__Right$ = 12						; size = 4
??$?8DU?$char_traits@D@std@@V?$allocator@D@1@@std@@YA_NABV?$basic_string@DU?$char_traits@D@std@@V?$allocator@D@2@@0@0@Z PROC ; std::operator==<char,std::char_traits<char>,std::allocator<char> >, COMDAT

; 166  : 	{	// test for string equality

  00000	55		 push	 ebp
  00001	8b ec		 mov	 ebp, esp

; 167  : 	return (_Left.compare(_Right) == 0);

  00003	ff 75 0c	 push	 DWORD PTR __Right$[ebp]
  00006	8b 4d 08	 mov	 ecx, DWORD PTR __Left$[ebp]
  00009	e8 00 00 00 00	 call	 ?compare@?$basic_string@DU?$char_traits@D@std@@V?$allocator@D@2@@std@@QBEHABV12@@Z ; std::basic_string<char,std::char_traits<char>,std::allocator<char> >::compare
  0000e	f7 d8		 neg	 eax
  00010	1b c0		 sbb	 eax, eax
  00012	40		 inc	 eax

; 168  : 	}

  00013	5d		 pop	 ebp
  00014	c3		 ret	 0
??$?8DU?$char_traits@D@std@@V?$allocator@D@1@@std@@YA_NABV?$basic_string@DU?$char_traits@D@std@@V?$allocator@D@2@@0@0@Z ENDP ; std::operator==<char,std::char_traits<char>,std::allocator<char> >
_TEXT	ENDS
PUBLIC	??0?$basic_string@DU?$char_traits@D@std@@V?$allocator@D@2@@std@@QAE@XZ ; std::basic_string<char,std::char_traits<char>,std::allocator<char> >::basic_string<char,std::char_traits<char>,std::allocator<char> >
; Function compile flags: /Ogsp
; File c:\program files (x86)\microsoft visual studio 10.0\vc\include\xstring
;	COMDAT ??0?$basic_string@DU?$char_traits@D@std@@V?$allocator@D@2@@std@@QAE@XZ
_TEXT	SEGMENT
??0?$basic_string@DU?$char_traits@D@std@@V?$allocator@D@2@@std@@QAE@XZ PROC ; std::basic_string<char,std::char_traits<char>,std::allocator<char> >::basic_string<char,std::char_traits<char>,std::allocator<char> >, COMDAT
; _this$ = ecx

; 550  : 		{	// construct empty string

  00000	8b c1		 mov	 eax, ecx

; 551  : 		_Tidy();

  00002	83 60 10 00	 and	 DWORD PTR [eax+16], 0
  00006	c7 40 14 0f 00
	00 00		 mov	 DWORD PTR [eax+20], 15	; 0000000fH
  0000d	c6 00 00	 mov	 BYTE PTR [eax], 0

; 552  : 		}

  00010	c3		 ret	 0
??0?$basic_string@DU?$char_traits@D@std@@V?$allocator@D@2@@std@@QAE@XZ ENDP ; std::basic_string<char,std::char_traits<char>,std::allocator<char> >::basic_string<char,std::char_traits<char>,std::allocator<char> >
_TEXT	ENDS
PUBLIC	??1?$basic_string@DU?$char_traits@D@std@@V?$allocator@D@2@@std@@QAE@XZ ; std::basic_string<char,std::char_traits<char>,std::allocator<char> >::~basic_string<char,std::char_traits<char>,std::allocator<char> >
; Function compile flags: /Ogsp
;	COMDAT ??1?$basic_string@DU?$char_traits@D@std@@V?$allocator@D@2@@std@@QAE@XZ
_TEXT	SEGMENT
??1?$basic_string@DU?$char_traits@D@std@@V?$allocator@D@2@@std@@QAE@XZ PROC ; std::basic_string<char,std::char_traits<char>,std::allocator<char> >::~basic_string<char,std::char_traits<char>,std::allocator<char> >, COMDAT
; _this$ = ecx

; 754  : 		_Tidy(true);

  00000	6a 00		 push	 0
  00002	6a 01		 push	 1
  00004	e8 00 00 00 00	 call	 ?_Tidy@?$basic_string@DU?$char_traits@D@std@@V?$allocator@D@2@@std@@QAEX_NI@Z ; std::basic_string<char,std::char_traits<char>,std::allocator<char> >::_Tidy

; 755  : 		}

  00009	c3		 ret	 0
??1?$basic_string@DU?$char_traits@D@std@@V?$allocator@D@2@@std@@QAE@XZ ENDP ; std::basic_string<char,std::char_traits<char>,std::allocator<char> >::~basic_string<char,std::char_traits<char>,std::allocator<char> >
_TEXT	ENDS
PUBLIC	?_Grow@?$basic_string@DU?$char_traits@D@std@@V?$allocator@D@2@@std@@QAE_NI_N@Z ; std::basic_string<char,std::char_traits<char>,std::allocator<char> >::_Grow
; Function compile flags: /Ogsp
;	COMDAT ?_Grow@?$basic_string@DU?$char_traits@D@std@@V?$allocator@D@2@@std@@QAE_NI_N@Z
_TEXT	SEGMENT
__Newsize$ = 8						; size = 4
__Trim$ = 12						; size = 1
?_Grow@?$basic_string@DU?$char_traits@D@std@@V?$allocator@D@2@@std@@QAE_NI_N@Z PROC ; std::basic_string<char,std::char_traits<char>,std::allocator<char> >::_Grow, COMDAT
; _this$ = ecx

; 1959 : 		{	// ensure buffer is big enough, trim to size if _Trim is true

  00000	55		 push	 ebp
  00001	8b ec		 mov	 ebp, esp
  00003	56		 push	 esi

; 1960 : 		if (max_size() < _Newsize)

  00004	8b 75 08	 mov	 esi, DWORD PTR __Newsize$[ebp]
  00007	83 fe fe	 cmp	 esi, -2			; fffffffeH
  0000a	76 0b		 jbe	 SHORT $LN6@Grow

; 1961 : 			_Xlen();	// result too long

  0000c	68 00 00 00 00	 push	 OFFSET ??_C@_0BA@JFNIOLAK@string?5too?5long?$AA@
  00011	ff 15 00 00 00
	00		 call	 DWORD PTR __imp_?_Xlength_error@std@@YAXPBD@Z
$LN31@Grow:
$LN6@Grow:

; 1962 : 		if (this->_Myres < _Newsize)

  00017	8b 41 14	 mov	 eax, DWORD PTR [ecx+20]
  0001a	3b c6		 cmp	 eax, esi
  0001c	73 0b		 jae	 SHORT $LN5@Grow

; 1963 : 			_Copy(_Newsize, this->_Mysize);	// reallocate to grow

  0001e	ff 71 10	 push	 DWORD PTR [ecx+16]
  00021	56		 push	 esi
  00022	e8 00 00 00 00	 call	 ?_Copy@?$basic_string@DU?$char_traits@D@std@@V?$allocator@D@2@@std@@QAEXII@Z ; std::basic_string<char,std::char_traits<char>,std::allocator<char> >::_Copy
  00027	eb 2e		 jmp	 SHORT $LN28@Grow
$LN5@Grow:

; 1964 : 		else if (_Trim && _Newsize < this->_BUF_SIZE)

  00029	33 d2		 xor	 edx, edx
  0002b	38 55 0c	 cmp	 BYTE PTR __Trim$[ebp], dl
  0002e	74 17		 je	 SHORT $LN3@Grow
  00030	83 fe 10	 cmp	 esi, 16			; 00000010H
  00033	73 12		 jae	 SHORT $LN3@Grow

; 1965 : 			_Tidy(true,	// copy and deallocate if trimming to small string
; 1966 : 				_Newsize < this->_Mysize ? _Newsize : this->_Mysize);

  00035	8b 41 10	 mov	 eax, DWORD PTR [ecx+16]
  00038	3b f0		 cmp	 esi, eax
  0003a	0f 42 c6	 cmovb	 eax, esi
  0003d	50		 push	 eax
  0003e	6a 01		 push	 1
  00040	e8 00 00 00 00	 call	 ?_Tidy@?$basic_string@DU?$char_traits@D@std@@V?$allocator@D@2@@std@@QAEX_NI@Z ; std::basic_string<char,std::char_traits<char>,std::allocator<char> >::_Tidy
  00045	eb 10		 jmp	 SHORT $LN28@Grow
$LN3@Grow:

; 1967 : 		else if (_Newsize == 0)

  00047	3b f2		 cmp	 esi, edx
  00049	75 0c		 jne	 SHORT $LN28@Grow

; 1968 : 			_Eos(0);	// new size is zero, just null terminate

  0004b	89 51 10	 mov	 DWORD PTR [ecx+16], edx
  0004e	83 f8 10	 cmp	 eax, 16			; 00000010H
  00051	72 02		 jb	 SHORT $LN26@Grow
  00053	8b 09		 mov	 ecx, DWORD PTR [ecx]
$LN26@Grow:
  00055	88 11		 mov	 BYTE PTR [ecx], dl
$LN28@Grow:

; 1969 : 		return (0 < _Newsize);	// return true only if more work to do

  00057	33 c0		 xor	 eax, eax
  00059	3b c6		 cmp	 eax, esi
  0005b	1b c0		 sbb	 eax, eax
  0005d	f7 d8		 neg	 eax
  0005f	5e		 pop	 esi

; 1970 : 		}

  00060	5d		 pop	 ebp
  00061	c2 08 00	 ret	 8
$LN30@Grow:
?_Grow@?$basic_string@DU?$char_traits@D@std@@V?$allocator@D@2@@std@@QAE_NI_N@Z ENDP ; std::basic_string<char,std::char_traits<char>,std::allocator<char> >::_Grow
_TEXT	ENDS
PUBLIC	??0TooltipAlloc@ioBasicTooltipManager@@QAE@XZ	; ioBasicTooltipManager::TooltipAlloc::TooltipAlloc
; Function compile flags: /Ogsp
; File d:\lost saga for developer\youtube\tutorial\source\src\lsclient\iobasictooltipmanager.h
;	COMDAT ??0TooltipAlloc@ioBasicTooltipManager@@QAE@XZ
_TEXT	SEGMENT
??0TooltipAlloc@ioBasicTooltipManager@@QAE@XZ PROC	; ioBasicTooltipManager::TooltipAlloc::TooltipAlloc, COMDAT
; _this$ = ecx

; 14   : 		TooltipAlloc()

  00000	8b c1		 mov	 eax, ecx
  00002	33 c9		 xor	 ecx, ecx
  00004	c7 40 14 0f 00
	00 00		 mov	 DWORD PTR [eax+20], 15	; 0000000fH
  0000b	89 48 10	 mov	 DWORD PTR [eax+16], ecx
  0000e	88 08		 mov	 BYTE PTR [eax], cl

; 15   : 		{
; 16   : 			dwUniqueIdx = 0;

  00010	89 48 1c	 mov	 DWORD PTR [eax+28], ecx

; 17   : 		}

  00013	c3		 ret	 0
??0TooltipAlloc@ioBasicTooltipManager@@QAE@XZ ENDP	; ioBasicTooltipManager::TooltipAlloc::TooltipAlloc
_TEXT	ENDS
PUBLIC	??1TooltipAlloc@ioBasicTooltipManager@@QAE@XZ	; ioBasicTooltipManager::TooltipAlloc::~TooltipAlloc
; Function compile flags: /Ogsp
;	COMDAT ??1TooltipAlloc@ioBasicTooltipManager@@QAE@XZ
_TEXT	SEGMENT
??1TooltipAlloc@ioBasicTooltipManager@@QAE@XZ PROC	; ioBasicTooltipManager::TooltipAlloc::~TooltipAlloc, COMDAT
; _this$ = ecx
  00000	6a 00		 push	 0
  00002	6a 01		 push	 1
  00004	e8 00 00 00 00	 call	 ?_Tidy@?$basic_string@DU?$char_traits@D@std@@V?$allocator@D@2@@std@@QAEX_NI@Z ; std::basic_string<char,std::char_traits<char>,std::allocator<char> >::_Tidy
  00009	c3		 ret	 0
??1TooltipAlloc@ioBasicTooltipManager@@QAE@XZ ENDP	; ioBasicTooltipManager::TooltipAlloc::~TooltipAlloc
_TEXT	ENDS
PUBLIC	??1?$_Pair_base@$$CBKUTooltipAlloc@ioBasicTooltipManager@@@std@@QAE@XZ ; std::_Pair_base<unsigned long const ,ioBasicTooltipManager::TooltipAlloc>::~_Pair_base<unsigned long const ,ioBasicTooltipManager::TooltipAlloc>
; Function compile flags: /Ogsp
;	COMDAT ??1?$_Pair_base@$$CBKUTooltipAlloc@ioBasicTooltipManager@@@std@@QAE@XZ
_TEXT	SEGMENT
??1?$_Pair_base@$$CBKUTooltipAlloc@ioBasicTooltipManager@@@std@@QAE@XZ PROC ; std::_Pair_base<unsigned long const ,ioBasicTooltipManager::TooltipAlloc>::~_Pair_base<unsigned long const ,ioBasicTooltipManager::TooltipAlloc>, COMDAT
; _this$ = ecx
  00000	6a 00		 push	 0
  00002	6a 01		 push	 1
  00004	83 c1 04	 add	 ecx, 4
  00007	e8 00 00 00 00	 call	 ?_Tidy@?$basic_string@DU?$char_traits@D@std@@V?$allocator@D@2@@std@@QAEX_NI@Z ; std::basic_string<char,std::char_traits<char>,std::allocator<char> >::_Tidy
  0000c	c3		 ret	 0
??1?$_Pair_base@$$CBKUTooltipAlloc@ioBasicTooltipManager@@@std@@QAE@XZ ENDP ; std::_Pair_base<unsigned long const ,ioBasicTooltipManager::TooltipAlloc>::~_Pair_base<unsigned long const ,ioBasicTooltipManager::TooltipAlloc>
_TEXT	ENDS
PUBLIC	?begin@?$_Tree@V?$_Tmap_traits@KUTooltipAlloc@ioBasicTooltipManager@@U?$less@K@std@@V?$allocator@U?$pair@$$CBKUTooltipAlloc@ioBasicTooltipManager@@@std@@@4@$0A@@std@@@std@@QAE?AV?$_Tree_iterator@V?$_Tree_val@V?$_Tmap_traits@KUTooltipAlloc@ioBasicTooltipManager@@U?$less@K@std@@V?$allocator@U?$pair@$$CBKUTooltipAlloc@ioBasicTooltipManager@@@std@@@4@$0A@@std@@@std@@@2@XZ ; std::_Tree<std::_Tmap_traits<unsigned long,ioBasicTooltipManager::TooltipAlloc,std::less<unsigned long>,std::allocator<std::pair<unsigned long const ,ioBasicTooltipManager::TooltipAlloc> >,0> >::begin
; Function compile flags: /Ogsp
; File c:\program files (x86)\microsoft visual studio 10.0\vc\include\xtree
;	COMDAT ?begin@?$_Tree@V?$_Tmap_traits@KUTooltipAlloc@ioBasicTooltipManager@@U?$less@K@std@@V?$allocator@U?$pair@$$CBKUTooltipAlloc@ioBasicTooltipManager@@@std@@@4@$0A@@std@@@std@@QAE?AV?$_Tree_iterator@V?$_Tree_val@V?$_Tmap_traits@KUTooltipAlloc@ioBasicTooltipManager@@U?$less@K@std@@V?$allocator@U?$pair@$$CBKUTooltipAlloc@ioBasicTooltipManager@@@std@@@4@$0A@@std@@@std@@@2@XZ
_TEXT	SEGMENT
___$ReturnUdt$ = 8					; size = 4
?begin@?$_Tree@V?$_Tmap_traits@KUTooltipAlloc@ioBasicTooltipManager@@U?$less@K@std@@V?$allocator@U?$pair@$$CBKUTooltipAlloc@ioBasicTooltipManager@@@std@@@4@$0A@@std@@@std@@QAE?AV?$_Tree_iterator@V?$_Tree_val@V?$_Tmap_traits@KUTooltipAlloc@ioBasicTooltipManager@@U?$less@K@std@@V?$allocator@U?$pair@$$CBKUTooltipAlloc@ioBasicTooltipManager@@@std@@@4@$0A@@std@@@std@@@2@XZ PROC ; std::_Tree<std::_Tmap_traits<unsigned long,ioBasicTooltipManager::TooltipAlloc,std::less<unsigned long>,std::allocator<std::pair<unsigned long const ,ioBasicTooltipManager::TooltipAlloc> >,0> >::begin, COMDAT
; _this$ = ecx

; 806  : 		{	// return iterator for beginning of mutable sequence

  00000	55		 push	 ebp
  00001	8b ec		 mov	 ebp, esp

; 807  : 		return (iterator(_Lmost(), this));

  00003	8b 41 04	 mov	 eax, DWORD PTR [ecx+4]
  00006	8b 08		 mov	 ecx, DWORD PTR [eax]
  00008	8b 45 08	 mov	 eax, DWORD PTR ___$ReturnUdt$[ebp]
  0000b	89 08		 mov	 DWORD PTR [eax], ecx

; 808  : 		}

  0000d	5d		 pop	 ebp
  0000e	c2 04 00	 ret	 4
?begin@?$_Tree@V?$_Tmap_traits@KUTooltipAlloc@ioBasicTooltipManager@@U?$less@K@std@@V?$allocator@U?$pair@$$CBKUTooltipAlloc@ioBasicTooltipManager@@@std@@@4@$0A@@std@@@std@@QAE?AV?$_Tree_iterator@V?$_Tree_val@V?$_Tmap_traits@KUTooltipAlloc@ioBasicTooltipManager@@U?$less@K@std@@V?$allocator@U?$pair@$$CBKUTooltipAlloc@ioBasicTooltipManager@@@std@@@4@$0A@@std@@@std@@@2@XZ ENDP ; std::_Tree<std::_Tmap_traits<unsigned long,ioBasicTooltipManager::TooltipAlloc,std::less<unsigned long>,std::allocator<std::pair<unsigned long const ,ioBasicTooltipManager::TooltipAlloc> >,0> >::begin
_TEXT	ENDS
PUBLIC	?end@?$_Tree@V?$_Tmap_traits@KUTooltipAlloc@ioBasicTooltipManager@@U?$less@K@std@@V?$allocator@U?$pair@$$CBKUTooltipAlloc@ioBasicTooltipManager@@@std@@@4@$0A@@std@@@std@@QAE?AV?$_Tree_iterator@V?$_Tree_val@V?$_Tmap_traits@KUTooltipAlloc@ioBasicTooltipManager@@U?$less@K@std@@V?$allocator@U?$pair@$$CBKUTooltipAlloc@ioBasicTooltipManager@@@std@@@4@$0A@@std@@@std@@@2@XZ ; std::_Tree<std::_Tmap_traits<unsigned long,ioBasicTooltipManager::TooltipAlloc,std::less<unsigned long>,std::allocator<std::pair<unsigned long const ,ioBasicTooltipManager::TooltipAlloc> >,0> >::end
; Function compile flags: /Ogsp
;	COMDAT ?end@?$_Tree@V?$_Tmap_traits@KUTooltipAlloc@ioBasicTooltipManager@@U?$less@K@std@@V?$allocator@U?$pair@$$CBKUTooltipAlloc@ioBasicTooltipManager@@@std@@@4@$0A@@std@@@std@@QAE?AV?$_Tree_iterator@V?$_Tree_val@V?$_Tmap_traits@KUTooltipAlloc@ioBasicTooltipManager@@U?$less@K@std@@V?$allocator@U?$pair@$$CBKUTooltipAlloc@ioBasicTooltipManager@@@std@@@4@$0A@@std@@@std@@@2@XZ
_TEXT	SEGMENT
___$ReturnUdt$ = 8					; size = 4
?end@?$_Tree@V?$_Tmap_traits@KUTooltipAlloc@ioBasicTooltipManager@@U?$less@K@std@@V?$allocator@U?$pair@$$CBKUTooltipAlloc@ioBasicTooltipManager@@@std@@@4@$0A@@std@@@std@@QAE?AV?$_Tree_iterator@V?$_Tree_val@V?$_Tmap_traits@KUTooltipAlloc@ioBasicTooltipManager@@U?$less@K@std@@V?$allocator@U?$pair@$$CBKUTooltipAlloc@ioBasicTooltipManager@@@std@@@4@$0A@@std@@@std@@@2@XZ PROC ; std::_Tree<std::_Tmap_traits<unsigned long,ioBasicTooltipManager::TooltipAlloc,std::less<unsigned long>,std::allocator<std::pair<unsigned long const ,ioBasicTooltipManager::TooltipAlloc> >,0> >::end, COMDAT
; _this$ = ecx

; 816  : 		{	// return iterator for end of mutable sequence

  00000	55		 push	 ebp
  00001	8b ec		 mov	 ebp, esp

; 817  : 		return (iterator(this->_Myhead, this));

  00003	8b 49 04	 mov	 ecx, DWORD PTR [ecx+4]
  00006	8b 45 08	 mov	 eax, DWORD PTR ___$ReturnUdt$[ebp]
  00009	89 08		 mov	 DWORD PTR [eax], ecx

; 818  : 		}

  0000b	5d		 pop	 ebp
  0000c	c2 04 00	 ret	 4
?end@?$_Tree@V?$_Tmap_traits@KUTooltipAlloc@ioBasicTooltipManager@@U?$less@K@std@@V?$allocator@U?$pair@$$CBKUTooltipAlloc@ioBasicTooltipManager@@@std@@@4@$0A@@std@@@std@@QAE?AV?$_Tree_iterator@V?$_Tree_val@V?$_Tmap_traits@KUTooltipAlloc@ioBasicTooltipManager@@U?$less@K@std@@V?$allocator@U?$pair@$$CBKUTooltipAlloc@ioBasicTooltipManager@@@std@@@4@$0A@@std@@@std@@@2@XZ ENDP ; std::_Tree<std::_Tmap_traits<unsigned long,ioBasicTooltipManager::TooltipAlloc,std::less<unsigned long>,std::allocator<std::pair<unsigned long const ,ioBasicTooltipManager::TooltipAlloc> >,0> >::end
_TEXT	ENDS
PUBLIC	??_GTooltipAlloc@ioBasicTooltipManager@@QAEPAXI@Z ; ioBasicTooltipManager::TooltipAlloc::`scalar deleting destructor'
; Function compile flags: /Ogsp
;	COMDAT ??_GTooltipAlloc@ioBasicTooltipManager@@QAEPAXI@Z
_TEXT	SEGMENT
___flags$ = 8						; size = 4
??_GTooltipAlloc@ioBasicTooltipManager@@QAEPAXI@Z PROC	; ioBasicTooltipManager::TooltipAlloc::`scalar deleting destructor', COMDAT
; _this$ = ecx
  00000	55		 push	 ebp
  00001	8b ec		 mov	 ebp, esp
  00003	56		 push	 esi
  00004	6a 00		 push	 0
  00006	6a 01		 push	 1
  00008	8b f1		 mov	 esi, ecx
  0000a	e8 00 00 00 00	 call	 ?_Tidy@?$basic_string@DU?$char_traits@D@std@@V?$allocator@D@2@@std@@QAEX_NI@Z ; std::basic_string<char,std::char_traits<char>,std::allocator<char> >::_Tidy
  0000f	f6 45 08 01	 test	 BYTE PTR ___flags$[ebp], 1
  00013	74 07		 je	 SHORT $LN1@scalar@2
  00015	56		 push	 esi
  00016	e8 00 00 00 00	 call	 ??3@YAXPAX@Z		; operator delete
  0001b	59		 pop	 ecx
$LN1@scalar@2:
  0001c	8b c6		 mov	 eax, esi
  0001e	5e		 pop	 esi
  0001f	5d		 pop	 ebp
  00020	c2 04 00	 ret	 4
??_GTooltipAlloc@ioBasicTooltipManager@@QAEPAXI@Z ENDP	; ioBasicTooltipManager::TooltipAlloc::`scalar deleting destructor'
_TEXT	ENDS
PUBLIC	?assign@?$basic_string@DU?$char_traits@D@std@@V?$allocator@D@2@@std@@QAEAAV12@ABV12@II@Z ; std::basic_string<char,std::char_traits<char>,std::allocator<char> >::assign
; Function compile flags: /Ogsp
; File c:\program files (x86)\microsoft visual studio 10.0\vc\include\xstring
;	COMDAT ?assign@?$basic_string@DU?$char_traits@D@std@@V?$allocator@D@2@@std@@QAEAAV12@ABV12@II@Z
_TEXT	SEGMENT
__Right$ = 8						; size = 4
__Roff$ = 12						; size = 4
__Count$ = 16						; size = 4
?assign@?$basic_string@DU?$char_traits@D@std@@V?$allocator@D@2@@std@@QAEAAV12@ABV12@II@Z PROC ; std::basic_string<char,std::char_traits<char>,std::allocator<char> >::assign, COMDAT
; _this$ = ecx

; 893  : 		{	// assign _Right [_Roff, _Roff + _Count)

  00000	55		 push	 ebp
  00001	8b ec		 mov	 ebp, esp
  00003	53		 push	 ebx

; 894  : 		if (_Right.size() < _Roff)

  00004	8b 5d 08	 mov	 ebx, DWORD PTR __Right$[ebp]
  00007	8b 43 10	 mov	 eax, DWORD PTR [ebx+16]
  0000a	56		 push	 esi
  0000b	8b f1		 mov	 esi, ecx
  0000d	8b 4d 0c	 mov	 ecx, DWORD PTR __Roff$[ebp]
  00010	57		 push	 edi
  00011	3b c1		 cmp	 eax, ecx
  00013	73 0b		 jae	 SHORT $LN5@assign

; 895  : 			_Xran();	// _Roff off end

  00015	68 00 00 00 00	 push	 OFFSET ??_C@_0BI@CFPLBAOH@invalid?5string?5position?$AA@
  0001a	ff 15 00 00 00
	00		 call	 DWORD PTR __imp_?_Xout_of_range@std@@YAXPBD@Z
$LN34@assign:
$LN5@assign:

; 896  : 		size_type _Num = _Right.size() - _Roff;

  00020	2b c1		 sub	 eax, ecx
  00022	8b f8		 mov	 edi, eax

; 897  : 		if (_Count < _Num)

  00024	39 7d 10	 cmp	 DWORD PTR __Count$[ebp], edi

; 898  : 			_Num = _Count;	// trim _Num to size

  00027	0f 42 7d 10	 cmovb	 edi, DWORD PTR __Count$[ebp]

; 899  : 
; 900  : 		if (this == &_Right)

  0002b	3b f3		 cmp	 esi, ebx
  0002d	75 1a		 jne	 SHORT $LN3@assign

; 901  : 			erase((size_type)(_Roff + _Num)), erase(0, _Roff);	// substring

  0002f	03 f9		 add	 edi, ecx
  00031	6a ff		 push	 -1
  00033	57		 push	 edi
  00034	8b ce		 mov	 ecx, esi
  00036	e8 00 00 00 00	 call	 ?erase@?$basic_string@DU?$char_traits@D@std@@V?$allocator@D@2@@std@@QAEAAV12@II@Z ; std::basic_string<char,std::char_traits<char>,std::allocator<char> >::erase
  0003b	ff 75 0c	 push	 DWORD PTR __Roff$[ebp]
  0003e	8b ce		 mov	 ecx, esi
  00040	6a 00		 push	 0
  00042	e8 00 00 00 00	 call	 ?erase@?$basic_string@DU?$char_traits@D@std@@V?$allocator@D@2@@std@@QAEAAV12@II@Z ; std::basic_string<char,std::char_traits<char>,std::allocator<char> >::erase
  00047	eb 47		 jmp	 SHORT $LN31@assign
$LN3@assign:

; 902  : 		else if (_Grow(_Num))

  00049	6a 00		 push	 0
  0004b	57		 push	 edi
  0004c	8b ce		 mov	 ecx, esi
  0004e	e8 00 00 00 00	 call	 ?_Grow@?$basic_string@DU?$char_traits@D@std@@V?$allocator@D@2@@std@@QAE_NI_N@Z ; std::basic_string<char,std::char_traits<char>,std::allocator<char> >::_Grow
  00053	84 c0		 test	 al, al
  00055	74 39		 je	 SHORT $LN31@assign

; 903  : 			{	// make room and assign new stuff
; 904  : 			_Traits::copy(_Myptr(), _Right._Myptr() + _Roff, _Num);

  00057	83 7b 14 10	 cmp	 DWORD PTR [ebx+20], 16	; 00000010H
  0005b	72 04		 jb	 SHORT $LN17@assign
  0005d	8b 03		 mov	 eax, DWORD PTR [ebx]
  0005f	eb 02		 jmp	 SHORT $LN18@assign
$LN17@assign:
  00061	8b c3		 mov	 eax, ebx
$LN18@assign:
  00063	83 7e 14 10	 cmp	 DWORD PTR [esi+20], 16	; 00000010H
  00067	72 04		 jb	 SHORT $LN21@assign
  00069	8b 0e		 mov	 ecx, DWORD PTR [esi]
  0006b	eb 02		 jmp	 SHORT $LN22@assign
$LN21@assign:
  0006d	8b ce		 mov	 ecx, esi
$LN22@assign:
  0006f	03 45 0c	 add	 eax, DWORD PTR __Roff$[ebp]
  00072	57		 push	 edi
  00073	50		 push	 eax
  00074	51		 push	 ecx
  00075	e8 00 00 00 00	 call	 _memcpy
  0007a	83 c4 0c	 add	 esp, 12			; 0000000cH

; 905  : 			_Eos(_Num);

  0007d	83 7e 14 10	 cmp	 DWORD PTR [esi+20], 16	; 00000010H
  00081	89 7e 10	 mov	 DWORD PTR [esi+16], edi
  00084	72 04		 jb	 SHORT $LN29@assign
  00086	8b 06		 mov	 eax, DWORD PTR [esi]
  00088	eb 02		 jmp	 SHORT $LN30@assign
$LN29@assign:
  0008a	8b c6		 mov	 eax, esi
$LN30@assign:
  0008c	c6 04 38 00	 mov	 BYTE PTR [eax+edi], 0
$LN31@assign:

; 906  : 			}
; 907  : 		return (*this);

  00090	5f		 pop	 edi
  00091	8b c6		 mov	 eax, esi
  00093	5e		 pop	 esi
  00094	5b		 pop	 ebx

; 908  : 		}

  00095	5d		 pop	 ebp
  00096	c2 0c 00	 ret	 12			; 0000000cH
$LN33@assign:
?assign@?$basic_string@DU?$char_traits@D@std@@V?$allocator@D@2@@std@@QAEAAV12@ABV12@II@Z ENDP ; std::basic_string<char,std::char_traits<char>,std::allocator<char> >::assign
_TEXT	ENDS
PUBLIC	??1?$pair@$$CBKUTooltipAlloc@ioBasicTooltipManager@@@std@@QAE@XZ ; std::pair<unsigned long const ,ioBasicTooltipManager::TooltipAlloc>::~pair<unsigned long const ,ioBasicTooltipManager::TooltipAlloc>
; Function compile flags: /Ogsp
;	COMDAT ??1?$pair@$$CBKUTooltipAlloc@ioBasicTooltipManager@@@std@@QAE@XZ
_TEXT	SEGMENT
??1?$pair@$$CBKUTooltipAlloc@ioBasicTooltipManager@@@std@@QAE@XZ PROC ; std::pair<unsigned long const ,ioBasicTooltipManager::TooltipAlloc>::~pair<unsigned long const ,ioBasicTooltipManager::TooltipAlloc>, COMDAT
; _this$ = ecx
  00000	6a 00		 push	 0
  00002	6a 01		 push	 1
  00004	83 c1 04	 add	 ecx, 4
  00007	e8 00 00 00 00	 call	 ?_Tidy@?$basic_string@DU?$char_traits@D@std@@V?$allocator@D@2@@std@@QAEX_NI@Z ; std::basic_string<char,std::char_traits<char>,std::allocator<char> >::_Tidy
  0000c	c3		 ret	 0
??1?$pair@$$CBKUTooltipAlloc@ioBasicTooltipManager@@@std@@QAE@XZ ENDP ; std::pair<unsigned long const ,ioBasicTooltipManager::TooltipAlloc>::~pair<unsigned long const ,ioBasicTooltipManager::TooltipAlloc>
_TEXT	ENDS
PUBLIC	??_C@_0P@LEKPOBOA@XML?1tooltip?1?$CFs?$AA@	; `string'
PUBLIC	__$ArrayPad$
PUBLIC	?ExcuteReAlloc@ioBasicTooltipManager@@QAEXXZ	; ioBasicTooltipManager::ExcuteReAlloc
EXTRN	__imp_?SetID@ioWnd@@QAEXK@Z:PROC
EXTRN	__imp_?AddWnd@ioGUIManager@@QAEPAVioWnd@@PBDPAV2@@Z:PROC
EXTRN	?GetSingleton@ioSP2GUIManager@@SAAAV1@XZ:PROC	; ioSP2GUIManager::GetSingleton
EXTRN	___security_cookie:DWORD
;	COMDAT ??_C@_0P@LEKPOBOA@XML?1tooltip?1?$CFs?$AA@
CONST	SEGMENT
??_C@_0P@LEKPOBOA@XML?1tooltip?1?$CFs?$AA@ DB 'XML/tooltip/%s', 00H ; `string'
; Function compile flags: /Ogsp
; File d:\lost saga for developer\youtube\tutorial\source\src\lsclient\iobasictooltipmanager.cpp
CONST	ENDS
;	COMDAT ?ExcuteReAlloc@ioBasicTooltipManager@@QAEXXZ
_TEXT	SEGMENT
_iter$ = -268						; size = 4
_szFileName$ = -264					; size = 260
__$ArrayPad$ = -4					; size = 4
?ExcuteReAlloc@ioBasicTooltipManager@@QAEXXZ PROC	; ioBasicTooltipManager::ExcuteReAlloc, COMDAT
; _this$ = ecx

; 104  : {

  00000	55		 push	 ebp
  00001	8b ec		 mov	 ebp, esp
  00003	81 ec 0c 01 00
	00		 sub	 esp, 268		; 0000010cH
  00009	a1 00 00 00 00	 mov	 eax, DWORD PTR ___security_cookie
  0000e	33 c5		 xor	 eax, ebp
  00010	89 45 fc	 mov	 DWORD PTR __$ArrayPad$[ebp], eax
  00013	57		 push	 edi
  00014	8b f9		 mov	 edi, ecx

; 105  : 	char szFileName[MAX_PATH];
; 106  : 
; 107  : 	TooltipAllocMap::iterator iter = m_TooltipAllocMap.begin();

  00016	8b 4f 0c	 mov	 ecx, DWORD PTR [edi+12]
  00019	8b 01		 mov	 eax, DWORD PTR [ecx]
  0001b	89 85 f4 fe ff
	ff		 mov	 DWORD PTR _iter$[ebp], eax

; 108  : 	for( ; iter != m_TooltipAllocMap.end(); ++iter )

  00021	3b c1		 cmp	 eax, ecx
  00023	74 68		 je	 SHORT $LN3@ExcuteReAl
  00025	56		 push	 esi
$LL24@ExcuteReAl:

; 109  : 	{
; 110  : 		const TooltipAlloc& Alloc = iter->second;

  00026	8d 70 10	 lea	 esi, DWORD PTR [eax+16]

; 111  : 		if( Alloc.szTooltipXmlName.empty() )

  00029	83 7e 10 00	 cmp	 DWORD PTR [esi+16], 0
  0002d	74 47		 je	 SHORT $LN4@ExcuteReAl

; 112  : 			continue;
; 113  : 				
; 114  : 		sprintf_s( szFileName, "XML/tooltip/%s", Alloc.szTooltipXmlName.c_str() );

  0002f	83 7e 14 10	 cmp	 DWORD PTR [esi+20], 16	; 00000010H
  00033	72 04		 jb	 SHORT $LN54@ExcuteReAl
  00035	8b 06		 mov	 eax, DWORD PTR [esi]
  00037	eb 02		 jmp	 SHORT $LN55@ExcuteReAl
$LN54@ExcuteReAl:
  00039	8b c6		 mov	 eax, esi
$LN55@ExcuteReAl:
  0003b	50		 push	 eax
  0003c	8d 85 f8 fe ff
	ff		 lea	 eax, DWORD PTR _szFileName$[ebp]
  00042	68 00 00 00 00	 push	 OFFSET ??_C@_0P@LEKPOBOA@XML?1tooltip?1?$CFs?$AA@
  00047	50		 push	 eax
  00048	e8 00 00 00 00	 call	 ??$sprintf_s@$0BAE@@@YAHAAY0BAE@DPBDZZ ; sprintf_s<260>
  0004d	83 c4 0c	 add	 esp, 12			; 0000000cH

; 115  : 		ioBasicToolTip* pToolTip = (ioBasicToolTip*)( g_GUIMgr.AddWnd( szFileName, m_pToolTipWnd ) );

  00050	ff 77 04	 push	 DWORD PTR [edi+4]
  00053	8d 85 f8 fe ff
	ff		 lea	 eax, DWORD PTR _szFileName$[ebp]
  00059	50		 push	 eax
  0005a	e8 00 00 00 00	 call	 ?GetSingleton@ioSP2GUIManager@@SAAAV1@XZ ; ioSP2GUIManager::GetSingleton
  0005f	8b c8		 mov	 ecx, eax
  00061	ff 15 00 00 00
	00		 call	 DWORD PTR __imp_?AddWnd@ioGUIManager@@QAEPAVioWnd@@PBDPAV2@@Z

; 116  : 		if( pToolTip )

  00067	85 c0		 test	 eax, eax
  00069	74 0b		 je	 SHORT $LN4@ExcuteReAl

; 117  : 		{
; 118  : 			pToolTip->SetID( Alloc.dwUniqueIdx );

  0006b	ff 76 1c	 push	 DWORD PTR [esi+28]
  0006e	8b c8		 mov	 ecx, eax
  00070	ff 15 00 00 00
	00		 call	 DWORD PTR __imp_?SetID@ioWnd@@QAEXK@Z
$LN4@ExcuteReAl:

; 108  : 	for( ; iter != m_TooltipAllocMap.end(); ++iter )

  00076	8d 8d f4 fe ff
	ff		 lea	 ecx, DWORD PTR _iter$[ebp]
  0007c	e8 00 00 00 00	 call	 ??E?$_Tree_unchecked_const_iterator@V?$_Tree_val@V?$_Tmap_traits@KUTooltipAlloc@ioBasicTooltipManager@@U?$less@K@std@@V?$allocator@U?$pair@$$CBKUTooltipAlloc@ioBasicTooltipManager@@@std@@@4@$0A@@std@@@std@@U_Iterator_base0@2@@std@@QAEAAV01@XZ ; std::_Tree_unchecked_const_iterator<std::_Tree_val<std::_Tmap_traits<unsigned long,ioBasicTooltipManager::TooltipAlloc,std::less<unsigned long>,std::allocator<std::pair<unsigned long const ,ioBasicTooltipManager::TooltipAlloc> >,0> >,std::_Iterator_base0>::operator++
  00081	8b 85 f4 fe ff
	ff		 mov	 eax, DWORD PTR _iter$[ebp]
  00087	3b 47 0c	 cmp	 eax, DWORD PTR [edi+12]
  0008a	75 9a		 jne	 SHORT $LL24@ExcuteReAl
  0008c	5e		 pop	 esi
$LN3@ExcuteReAl:

; 119  : 		}
; 120  : 	}
; 121  : }

  0008d	8b 4d fc	 mov	 ecx, DWORD PTR __$ArrayPad$[ebp]
  00090	33 cd		 xor	 ecx, ebp
  00092	5f		 pop	 edi
  00093	e8 00 00 00 00	 call	 @__security_check_cookie@4
  00098	c9		 leave
  00099	c3		 ret	 0
?ExcuteReAlloc@ioBasicTooltipManager@@QAEXXZ ENDP	; ioBasicTooltipManager::ExcuteReAlloc
_TEXT	ENDS
PUBLIC	?FindToolTip@ioBasicTooltipManager@@QAEPAVioWnd@@ABV?$basic_string@DU?$char_traits@D@std@@V?$allocator@D@2@@std@@@Z ; ioBasicTooltipManager::FindToolTip
; Function compile flags: /Ogsp
;	COMDAT ?FindToolTip@ioBasicTooltipManager@@QAEPAVioWnd@@ABV?$basic_string@DU?$char_traits@D@std@@V?$allocator@D@2@@std@@@Z
_TEXT	SEGMENT
_iter$ = -4						; size = 4
_szTooltipXmlName$ = 8					; size = 4
?FindToolTip@ioBasicTooltipManager@@QAEPAVioWnd@@ABV?$basic_string@DU?$char_traits@D@std@@V?$allocator@D@2@@std@@@Z PROC ; ioBasicTooltipManager::FindToolTip, COMDAT
; _this$ = ecx

; 124  : {

  00000	55		 push	 ebp
  00001	8b ec		 mov	 ebp, esp
  00003	51		 push	 ecx
  00004	56		 push	 esi
  00005	8b f1		 mov	 esi, ecx

; 125  : 	TooltipAllocMap::iterator iter = m_TooltipAllocMap.begin();

  00007	8b 4e 0c	 mov	 ecx, DWORD PTR [esi+12]
  0000a	8b 01		 mov	 eax, DWORD PTR [ecx]
  0000c	57		 push	 edi
  0000d	89 45 fc	 mov	 DWORD PTR _iter$[ebp], eax

; 126  : 	for( ; iter != m_TooltipAllocMap.end(); ++iter )

  00010	3b c1		 cmp	 eax, ecx
  00012	74 26		 je	 SHORT $LN3@FindToolTi@2
$LL24@FindToolTi@2:

; 127  : 	{
; 128  : 		const TooltipAlloc& Alloc = iter->second;
; 129  : 		if( Alloc.szTooltipXmlName == szTooltipXmlName )

  00014	ff 75 08	 push	 DWORD PTR _szTooltipXmlName$[ebp]
  00017	8d 78 10	 lea	 edi, DWORD PTR [eax+16]
  0001a	8b cf		 mov	 ecx, edi
  0001c	e8 00 00 00 00	 call	 ?compare@?$basic_string@DU?$char_traits@D@std@@V?$allocator@D@2@@std@@QBEHABV12@@Z ; std::basic_string<char,std::char_traits<char>,std::allocator<char> >::compare
  00021	85 c0		 test	 eax, eax
  00023	75 05		 jne	 SHORT $LN4@FindToolTi@2

; 130  : 		{
; 131  : 			if(m_pToolTipWnd)

  00025	39 46 04	 cmp	 DWORD PTR [esi+4], eax
  00028	75 18		 jne	 SHORT $LN51@FindToolTi@2
$LN4@FindToolTi@2:

; 126  : 	for( ; iter != m_TooltipAllocMap.end(); ++iter )

  0002a	8d 4d fc	 lea	 ecx, DWORD PTR _iter$[ebp]
  0002d	e8 00 00 00 00	 call	 ??E?$_Tree_unchecked_const_iterator@V?$_Tree_val@V?$_Tmap_traits@KUTooltipAlloc@ioBasicTooltipManager@@U?$less@K@std@@V?$allocator@U?$pair@$$CBKUTooltipAlloc@ioBasicTooltipManager@@@std@@@4@$0A@@std@@@std@@U_Iterator_base0@2@@std@@QAEAAV01@XZ ; std::_Tree_unchecked_const_iterator<std::_Tree_val<std::_Tmap_traits<unsigned long,ioBasicTooltipManager::TooltipAlloc,std::less<unsigned long>,std::allocator<std::pair<unsigned long const ,ioBasicTooltipManager::TooltipAlloc> >,0> >,std::_Iterator_base0>::operator++
  00032	8b 45 fc	 mov	 eax, DWORD PTR _iter$[ebp]
  00035	3b 46 0c	 cmp	 eax, DWORD PTR [esi+12]
  00038	75 da		 jne	 SHORT $LL24@FindToolTi@2
$LN3@FindToolTi@2:

; 133  : 		}
; 134  : 	}
; 135  : 
; 136  : 	return NULL;

  0003a	33 c0		 xor	 eax, eax
$LN6@FindToolTi@2:
  0003c	5f		 pop	 edi
  0003d	5e		 pop	 esi

; 137  : }

  0003e	c9		 leave
  0003f	c2 04 00	 ret	 4
$LN51@FindToolTi@2:

; 132  : 				return m_pToolTipWnd->FindChildWnd( Alloc.dwUniqueIdx );

  00042	ff 77 1c	 push	 DWORD PTR [edi+28]
  00045	8b 4e 04	 mov	 ecx, DWORD PTR [esi+4]
  00048	ff 15 00 00 00
	00		 call	 DWORD PTR __imp_?FindChildWnd@ioWnd@@QAEPAV1@K@Z
  0004e	eb ec		 jmp	 SHORT $LN6@FindToolTi@2
?FindToolTip@ioBasicTooltipManager@@QAEPAVioWnd@@ABV?$basic_string@DU?$char_traits@D@std@@V?$allocator@D@2@@std@@@Z ENDP ; ioBasicTooltipManager::FindToolTip
_TEXT	ENDS
PUBLIC	?GetToolTipID@ioBasicTooltipManager@@QAEHABV?$basic_string@DU?$char_traits@D@std@@V?$allocator@D@2@@std@@@Z ; ioBasicTooltipManager::GetToolTipID
EXTRN	__imp_?GetID@ioWnd@@QBEKXZ:PROC
; Function compile flags: /Ogsp
;	COMDAT ?GetToolTipID@ioBasicTooltipManager@@QAEHABV?$basic_string@DU?$char_traits@D@std@@V?$allocator@D@2@@std@@@Z
_TEXT	SEGMENT
_szTooltipXmlName$ = 8					; size = 4
?GetToolTipID@ioBasicTooltipManager@@QAEHABV?$basic_string@DU?$char_traits@D@std@@V?$allocator@D@2@@std@@@Z PROC ; ioBasicTooltipManager::GetToolTipID, COMDAT
; _this$ = ecx

; 150  : {

  00000	55		 push	 ebp
  00001	8b ec		 mov	 ebp, esp

; 151  : 	ioWnd* pWnd = FindToolTip( szTooltipXmlName );

  00003	ff 75 08	 push	 DWORD PTR _szTooltipXmlName$[ebp]
  00006	e8 00 00 00 00	 call	 ?FindToolTip@ioBasicTooltipManager@@QAEPAVioWnd@@ABV?$basic_string@DU?$char_traits@D@std@@V?$allocator@D@2@@std@@@Z ; ioBasicTooltipManager::FindToolTip

; 152  : 	if( pWnd )

  0000b	85 c0		 test	 eax, eax
  0000d	74 0a		 je	 SHORT $LN1@GetToolTip

; 153  : 	{
; 154  : 		return pWnd->GetID();

  0000f	8b c8		 mov	 ecx, eax
  00011	ff 15 00 00 00
	00		 call	 DWORD PTR __imp_?GetID@ioWnd@@QBEKXZ
  00017	eb 02		 jmp	 SHORT $LN2@GetToolTip
$LN1@GetToolTip:

; 155  : 	}
; 156  : 
; 157  : 	return 0;

  00019	33 c0		 xor	 eax, eax
$LN2@GetToolTip:

; 158  : }

  0001b	5d		 pop	 ebp
  0001c	c2 04 00	 ret	 4
?GetToolTipID@ioBasicTooltipManager@@QAEHABV?$basic_string@DU?$char_traits@D@std@@V?$allocator@D@2@@std@@@Z ENDP ; ioBasicTooltipManager::GetToolTipID
_TEXT	ENDS
PUBLIC	?ShowToolTip@ioBasicTooltipManager@@QAEXABV?$basic_string@DU?$char_traits@D@std@@V?$allocator@D@2@@std@@@Z ; ioBasicTooltipManager::ShowToolTip
; Function compile flags: /Ogsp
;	COMDAT ?ShowToolTip@ioBasicTooltipManager@@QAEXABV?$basic_string@DU?$char_traits@D@std@@V?$allocator@D@2@@std@@@Z
_TEXT	SEGMENT
_szTooltipXmlName$ = 8					; size = 4
?ShowToolTip@ioBasicTooltipManager@@QAEXABV?$basic_string@DU?$char_traits@D@std@@V?$allocator@D@2@@std@@@Z PROC ; ioBasicTooltipManager::ShowToolTip, COMDAT
; _this$ = ecx

; 170  : {

  00000	55		 push	 ebp
  00001	8b ec		 mov	 ebp, esp
  00003	57		 push	 edi
  00004	8b f9		 mov	 edi, ecx

; 171  : 	if( m_pToolTipWnd )

  00006	8b 4f 04	 mov	 ecx, DWORD PTR [edi+4]
  00009	85 c9		 test	 ecx, ecx
  0000b	74 1c		 je	 SHORT $LN1@ShowToolTi@2

; 172  : 	{
; 173  : 		m_pToolTipWnd->ShowWnd();

  0000d	56		 push	 esi
  0000e	8b 35 00 00 00
	00		 mov	 esi, DWORD PTR __imp_?ShowWnd@ioWnd@@QAEXXZ
  00014	ff d6		 call	 esi

; 174  : 
; 175  : 		ioWnd* pWnd = FindToolTip( szTooltipXmlName );

  00016	ff 75 08	 push	 DWORD PTR _szTooltipXmlName$[ebp]
  00019	8b cf		 mov	 ecx, edi
  0001b	e8 00 00 00 00	 call	 ?FindToolTip@ioBasicTooltipManager@@QAEPAVioWnd@@ABV?$basic_string@DU?$char_traits@D@std@@V?$allocator@D@2@@std@@@Z ; ioBasicTooltipManager::FindToolTip

; 176  : 		if( pWnd )			

  00020	85 c0		 test	 eax, eax
  00022	74 04		 je	 SHORT $LN5@ShowToolTi@2

; 177  : 			pWnd->ShowWnd();		

  00024	8b c8		 mov	 ecx, eax
  00026	ff d6		 call	 esi
$LN5@ShowToolTi@2:
  00028	5e		 pop	 esi
$LN1@ShowToolTi@2:
  00029	5f		 pop	 edi

; 178  : 	}
; 179  : }

  0002a	5d		 pop	 ebp
  0002b	c2 04 00	 ret	 4
?ShowToolTip@ioBasicTooltipManager@@QAEXABV?$basic_string@DU?$char_traits@D@std@@V?$allocator@D@2@@std@@@Z ENDP ; ioBasicTooltipManager::ShowToolTip
_TEXT	ENDS
PUBLIC	?HideToolTip@ioBasicTooltipManager@@QAEXABV?$basic_string@DU?$char_traits@D@std@@V?$allocator@D@2@@std@@@Z ; ioBasicTooltipManager::HideToolTip
; Function compile flags: /Ogsp
;	COMDAT ?HideToolTip@ioBasicTooltipManager@@QAEXABV?$basic_string@DU?$char_traits@D@std@@V?$allocator@D@2@@std@@@Z
_TEXT	SEGMENT
_szTooltipXmlName$ = 8					; size = 4
?HideToolTip@ioBasicTooltipManager@@QAEXABV?$basic_string@DU?$char_traits@D@std@@V?$allocator@D@2@@std@@@Z PROC ; ioBasicTooltipManager::HideToolTip, COMDAT
; _this$ = ecx

; 191  : {

  00000	55		 push	 ebp
  00001	8b ec		 mov	 ebp, esp
  00003	57		 push	 edi
  00004	8b f9		 mov	 edi, ecx

; 192  : 	if( m_pToolTipWnd )

  00006	8b 4f 04	 mov	 ecx, DWORD PTR [edi+4]
  00009	85 c9		 test	 ecx, ecx
  0000b	74 1c		 je	 SHORT $LN1@HideToolTi@2

; 193  : 	{
; 194  : 		m_pToolTipWnd->HideWnd();

  0000d	56		 push	 esi
  0000e	8b 35 00 00 00
	00		 mov	 esi, DWORD PTR __imp_?HideWnd@ioWnd@@QAEXXZ
  00014	ff d6		 call	 esi

; 195  : 
; 196  : 		ioWnd* pWnd = FindToolTip( szTooltipXmlName );

  00016	ff 75 08	 push	 DWORD PTR _szTooltipXmlName$[ebp]
  00019	8b cf		 mov	 ecx, edi
  0001b	e8 00 00 00 00	 call	 ?FindToolTip@ioBasicTooltipManager@@QAEPAVioWnd@@ABV?$basic_string@DU?$char_traits@D@std@@V?$allocator@D@2@@std@@@Z ; ioBasicTooltipManager::FindToolTip

; 197  : 		if( pWnd )			

  00020	85 c0		 test	 eax, eax
  00022	74 04		 je	 SHORT $LN5@HideToolTi@2

; 198  : 			pWnd->HideWnd();

  00024	8b c8		 mov	 ecx, eax
  00026	ff d6		 call	 esi
$LN5@HideToolTi@2:
  00028	5e		 pop	 esi
$LN1@HideToolTi@2:
  00029	5f		 pop	 edi

; 199  : 	}
; 200  : }

  0002a	5d		 pop	 ebp
  0002b	c2 04 00	 ret	 4
?HideToolTip@ioBasicTooltipManager@@QAEXABV?$basic_string@DU?$char_traits@D@std@@V?$allocator@D@2@@std@@@Z ENDP ; ioBasicTooltipManager::HideToolTip
_TEXT	ENDS
PUBLIC	??_G?$pair@$$CBKUTooltipAlloc@ioBasicTooltipManager@@@std@@QAEPAXI@Z ; std::pair<unsigned long const ,ioBasicTooltipManager::TooltipAlloc>::`scalar deleting destructor'
; Function compile flags: /Ogsp
;	COMDAT ??_G?$pair@$$CBKUTooltipAlloc@ioBasicTooltipManager@@@std@@QAEPAXI@Z
_TEXT	SEGMENT
___flags$ = 8						; size = 4
??_G?$pair@$$CBKUTooltipAlloc@ioBasicTooltipManager@@@std@@QAEPAXI@Z PROC ; std::pair<unsigned long const ,ioBasicTooltipManager::TooltipAlloc>::`scalar deleting destructor', COMDAT
; _this$ = ecx
  00000	55		 push	 ebp
  00001	8b ec		 mov	 ebp, esp
  00003	56		 push	 esi
  00004	8b f1		 mov	 esi, ecx
  00006	6a 00		 push	 0
  00008	6a 01		 push	 1
  0000a	8d 4e 04	 lea	 ecx, DWORD PTR [esi+4]
  0000d	e8 00 00 00 00	 call	 ?_Tidy@?$basic_string@DU?$char_traits@D@std@@V?$allocator@D@2@@std@@QAEX_NI@Z ; std::basic_string<char,std::char_traits<char>,std::allocator<char> >::_Tidy
  00012	f6 45 08 01	 test	 BYTE PTR ___flags$[ebp], 1
  00016	74 07		 je	 SHORT $LN1@scalar@3
  00018	56		 push	 esi
  00019	e8 00 00 00 00	 call	 ??3@YAXPAX@Z		; operator delete
  0001e	59		 pop	 ecx
$LN1@scalar@3:
  0001f	8b c6		 mov	 eax, esi
  00021	5e		 pop	 esi
  00022	5d		 pop	 ebp
  00023	c2 04 00	 ret	 4
??_G?$pair@$$CBKUTooltipAlloc@ioBasicTooltipManager@@@std@@QAEPAXI@Z ENDP ; std::pair<unsigned long const ,ioBasicTooltipManager::TooltipAlloc>::`scalar deleting destructor'
_TEXT	ENDS
PUBLIC	??$_Destroy@UTooltipAlloc@ioBasicTooltipManager@@@std@@YAXPAUTooltipAlloc@ioBasicTooltipManager@@@Z ; std::_Destroy<ioBasicTooltipManager::TooltipAlloc>
; Function compile flags: /Ogsp
; File c:\program files (x86)\microsoft visual studio 10.0\vc\include\xmemory
;	COMDAT ??$_Destroy@UTooltipAlloc@ioBasicTooltipManager@@@std@@YAXPAUTooltipAlloc@ioBasicTooltipManager@@@Z
_TEXT	SEGMENT
__Ptr$ = 8						; size = 4
??$_Destroy@UTooltipAlloc@ioBasicTooltipManager@@@std@@YAXPAUTooltipAlloc@ioBasicTooltipManager@@@Z PROC ; std::_Destroy<ioBasicTooltipManager::TooltipAlloc>, COMDAT

; 62   : 	{	// destroy object at _Ptr

  00000	55		 push	 ebp
  00001	8b ec		 mov	 ebp, esp

; 63   : 	_Ptr->~_Ty();

  00003	8b 4d 08	 mov	 ecx, DWORD PTR __Ptr$[ebp]
  00006	6a 00		 push	 0
  00008	6a 01		 push	 1
  0000a	e8 00 00 00 00	 call	 ?_Tidy@?$basic_string@DU?$char_traits@D@std@@V?$allocator@D@2@@std@@QAEX_NI@Z ; std::basic_string<char,std::char_traits<char>,std::allocator<char> >::_Tidy

; 64   : 	}

  0000f	5d		 pop	 ebp
  00010	c3		 ret	 0
??$_Destroy@UTooltipAlloc@ioBasicTooltipManager@@@std@@YAXPAUTooltipAlloc@ioBasicTooltipManager@@@Z ENDP ; std::_Destroy<ioBasicTooltipManager::TooltipAlloc>
_TEXT	ENDS
PUBLIC	??0?$basic_string@DU?$char_traits@D@std@@V?$allocator@D@2@@std@@QAE@ABV01@@Z ; std::basic_string<char,std::char_traits<char>,std::allocator<char> >::basic_string<char,std::char_traits<char>,std::allocator<char> >
; Function compile flags: /Ogsp
; File c:\program files (x86)\microsoft visual studio 10.0\vc\include\xstring
;	COMDAT ??0?$basic_string@DU?$char_traits@D@std@@V?$allocator@D@2@@std@@QAE@ABV01@@Z
_TEXT	SEGMENT
__Right$ = 8						; size = 4
??0?$basic_string@DU?$char_traits@D@std@@V?$allocator@D@2@@std@@QAE@ABV01@@Z PROC ; std::basic_string<char,std::char_traits<char>,std::allocator<char> >::basic_string<char,std::char_traits<char>,std::allocator<char> >, COMDAT
; _this$ = ecx

; 543  : 		{	// construct by copying _Right

  00000	55		 push	 ebp
  00001	8b ec		 mov	 ebp, esp
  00003	56		 push	 esi

; 544  : 		_Tidy();

  00004	33 c0		 xor	 eax, eax

; 545  : 		assign(_Right, 0, npos);

  00006	6a ff		 push	 -1
  00008	8b f1		 mov	 esi, ecx
  0000a	50		 push	 eax
  0000b	ff 75 08	 push	 DWORD PTR __Right$[ebp]
  0000e	c7 46 14 0f 00
	00 00		 mov	 DWORD PTR [esi+20], 15	; 0000000fH
  00015	89 46 10	 mov	 DWORD PTR [esi+16], eax
  00018	88 06		 mov	 BYTE PTR [esi], al
  0001a	e8 00 00 00 00	 call	 ?assign@?$basic_string@DU?$char_traits@D@std@@V?$allocator@D@2@@std@@QAEAAV12@ABV12@II@Z ; std::basic_string<char,std::char_traits<char>,std::allocator<char> >::assign

; 546  : 		}

  0001f	8b c6		 mov	 eax, esi
  00021	5e		 pop	 esi
  00022	5d		 pop	 ebp
  00023	c2 04 00	 ret	 4
??0?$basic_string@DU?$char_traits@D@std@@V?$allocator@D@2@@std@@QAE@ABV01@@Z ENDP ; std::basic_string<char,std::char_traits<char>,std::allocator<char> >::basic_string<char,std::char_traits<char>,std::allocator<char> >
_TEXT	ENDS
PUBLIC	?assign@?$basic_string@DU?$char_traits@D@std@@V?$allocator@D@2@@std@@QAEAAV12@ABV12@@Z ; std::basic_string<char,std::char_traits<char>,std::allocator<char> >::assign
; Function compile flags: /Ogsp
;	COMDAT ?assign@?$basic_string@DU?$char_traits@D@std@@V?$allocator@D@2@@std@@QAEAAV12@ABV12@@Z
_TEXT	SEGMENT
__Right$ = 8						; size = 4
?assign@?$basic_string@DU?$char_traits@D@std@@V?$allocator@D@2@@std@@QAEAAV12@ABV12@@Z PROC ; std::basic_string<char,std::char_traits<char>,std::allocator<char> >::assign, COMDAT
; _this$ = ecx

; 887  : 		{	// assign _Right

  00000	55		 push	 ebp
  00001	8b ec		 mov	 ebp, esp

; 888  : 		return (assign(_Right, 0, npos));

  00003	6a ff		 push	 -1
  00005	6a 00		 push	 0
  00007	ff 75 08	 push	 DWORD PTR __Right$[ebp]
  0000a	e8 00 00 00 00	 call	 ?assign@?$basic_string@DU?$char_traits@D@std@@V?$allocator@D@2@@std@@QAEAAV12@ABV12@II@Z ; std::basic_string<char,std::char_traits<char>,std::allocator<char> >::assign

; 889  : 		}

  0000f	5d		 pop	 ebp
  00010	c2 04 00	 ret	 4
?assign@?$basic_string@DU?$char_traits@D@std@@V?$allocator@D@2@@std@@QAEAAV12@ABV12@@Z ENDP ; std::basic_string<char,std::char_traits<char>,std::allocator<char> >::assign
_TEXT	ENDS
PUBLIC	??$_Destroy@U?$pair@$$CBKUTooltipAlloc@ioBasicTooltipManager@@@std@@@std@@YAXPAU?$pair@$$CBKUTooltipAlloc@ioBasicTooltipManager@@@0@@Z ; std::_Destroy<std::pair<unsigned long const ,ioBasicTooltipManager::TooltipAlloc> >
; Function compile flags: /Ogsp
; File c:\program files (x86)\microsoft visual studio 10.0\vc\include\xmemory
;	COMDAT ??$_Destroy@U?$pair@$$CBKUTooltipAlloc@ioBasicTooltipManager@@@std@@@std@@YAXPAU?$pair@$$CBKUTooltipAlloc@ioBasicTooltipManager@@@0@@Z
_TEXT	SEGMENT
__Ptr$ = 8						; size = 4
??$_Destroy@U?$pair@$$CBKUTooltipAlloc@ioBasicTooltipManager@@@std@@@std@@YAXPAU?$pair@$$CBKUTooltipAlloc@ioBasicTooltipManager@@@0@@Z PROC ; std::_Destroy<std::pair<unsigned long const ,ioBasicTooltipManager::TooltipAlloc> >, COMDAT

; 62   : 	{	// destroy object at _Ptr

  00000	55		 push	 ebp
  00001	8b ec		 mov	 ebp, esp

; 63   : 	_Ptr->~_Ty();

  00003	8b 4d 08	 mov	 ecx, DWORD PTR __Ptr$[ebp]
  00006	6a 00		 push	 0
  00008	e8 00 00 00 00	 call	 ??_G?$pair@$$CBKUTooltipAlloc@ioBasicTooltipManager@@@std@@QAEPAXI@Z

; 64   : 	}

  0000d	5d		 pop	 ebp
  0000e	c3		 ret	 0
??$_Destroy@U?$pair@$$CBKUTooltipAlloc@ioBasicTooltipManager@@@std@@@std@@YAXPAU?$pair@$$CBKUTooltipAlloc@ioBasicTooltipManager@@@0@@Z ENDP ; std::_Destroy<std::pair<unsigned long const ,ioBasicTooltipManager::TooltipAlloc> >
_TEXT	ENDS
PUBLIC	??0TooltipAlloc@ioBasicTooltipManager@@QAE@ABU01@@Z ; ioBasicTooltipManager::TooltipAlloc::TooltipAlloc
; Function compile flags: /Ogsp
;	COMDAT ??0TooltipAlloc@ioBasicTooltipManager@@QAE@ABU01@@Z
_TEXT	SEGMENT
___that$ = 8						; size = 4
??0TooltipAlloc@ioBasicTooltipManager@@QAE@ABU01@@Z PROC ; ioBasicTooltipManager::TooltipAlloc::TooltipAlloc, COMDAT
; _this$ = ecx
  00000	55		 push	 ebp
  00001	8b ec		 mov	 ebp, esp
  00003	56		 push	 esi
  00004	57		 push	 edi
  00005	8b 7d 08	 mov	 edi, DWORD PTR ___that$[ebp]
  00008	57		 push	 edi
  00009	8b f1		 mov	 esi, ecx
  0000b	e8 00 00 00 00	 call	 ??0?$basic_string@DU?$char_traits@D@std@@V?$allocator@D@2@@std@@QAE@ABV01@@Z ; std::basic_string<char,std::char_traits<char>,std::allocator<char> >::basic_string<char,std::char_traits<char>,std::allocator<char> >
  00010	8b 47 1c	 mov	 eax, DWORD PTR [edi+28]
  00013	89 46 1c	 mov	 DWORD PTR [esi+28], eax
  00016	5f		 pop	 edi
  00017	8b c6		 mov	 eax, esi
  00019	5e		 pop	 esi
  0001a	5d		 pop	 ebp
  0001b	c2 04 00	 ret	 4
??0TooltipAlloc@ioBasicTooltipManager@@QAE@ABU01@@Z ENDP ; ioBasicTooltipManager::TooltipAlloc::TooltipAlloc
_TEXT	ENDS
PUBLIC	?destroy@?$allocator@UTooltipAlloc@ioBasicTooltipManager@@@std@@QAEXPAUTooltipAlloc@ioBasicTooltipManager@@@Z ; std::allocator<ioBasicTooltipManager::TooltipAlloc>::destroy
; Function compile flags: /Ogsp
;	COMDAT ?destroy@?$allocator@UTooltipAlloc@ioBasicTooltipManager@@@std@@QAEXPAUTooltipAlloc@ioBasicTooltipManager@@@Z
_TEXT	SEGMENT
__Ptr$ = 8						; size = 4
?destroy@?$allocator@UTooltipAlloc@ioBasicTooltipManager@@@std@@QAEXPAUTooltipAlloc@ioBasicTooltipManager@@@Z PROC ; std::allocator<ioBasicTooltipManager::TooltipAlloc>::destroy, COMDAT
; _this$ = ecx

; 212  : 		{	// destroy object at _Ptr

  00000	55		 push	 ebp
  00001	8b ec		 mov	 ebp, esp

; 213  : 		_Destroy(_Ptr);

  00003	8b 4d 08	 mov	 ecx, DWORD PTR __Ptr$[ebp]
  00006	6a 00		 push	 0
  00008	6a 01		 push	 1
  0000a	e8 00 00 00 00	 call	 ?_Tidy@?$basic_string@DU?$char_traits@D@std@@V?$allocator@D@2@@std@@QAEX_NI@Z ; std::basic_string<char,std::char_traits<char>,std::allocator<char> >::_Tidy

; 214  : 		}

  0000f	5d		 pop	 ebp
  00010	c2 04 00	 ret	 4
?destroy@?$allocator@UTooltipAlloc@ioBasicTooltipManager@@@std@@QAEXPAUTooltipAlloc@ioBasicTooltipManager@@@Z ENDP ; std::allocator<ioBasicTooltipManager::TooltipAlloc>::destroy
_TEXT	ENDS
PUBLIC	?construct@?$allocator@UTooltipAlloc@ioBasicTooltipManager@@@std@@QAEXPAUTooltipAlloc@ioBasicTooltipManager@@$$QAU34@@Z ; std::allocator<ioBasicTooltipManager::TooltipAlloc>::construct
EXTRN	__EH_prolog3:PROC
;	COMDAT xdata$x
xdata$x	SEGMENT
__unwindtable$?construct@?$allocator@UTooltipAlloc@ioBasicTooltipManager@@@std@@QAEXPAUTooltipAlloc@ioBasicTooltipManager@@$$QAU34@@Z DD 0ffffffffH
	DD	FLAT:__unwindfunclet$?construct@?$allocator@UTooltipAlloc@ioBasicTooltipManager@@@std@@QAEXPAUTooltipAlloc@ioBasicTooltipManager@@$$QAU34@@Z$0
__ehfuncinfo$?construct@?$allocator@UTooltipAlloc@ioBasicTooltipManager@@@std@@QAEXPAUTooltipAlloc@ioBasicTooltipManager@@$$QAU34@@Z DD 019930522H
	DD	01H
	DD	FLAT:__unwindtable$?construct@?$allocator@UTooltipAlloc@ioBasicTooltipManager@@@std@@QAEXPAUTooltipAlloc@ioBasicTooltipManager@@$$QAU34@@Z
	DD	2 DUP(00H)
	DD	2 DUP(00H)
	DD	00H
	DD	01H
; Function compile flags: /Ogsp
xdata$x	ENDS
;	COMDAT ?construct@?$allocator@UTooltipAlloc@ioBasicTooltipManager@@@std@@QAEXPAUTooltipAlloc@ioBasicTooltipManager@@$$QAU34@@Z
_TEXT	SEGMENT
$T510883 = -16						; size = 4
__$EHRec$ = -12						; size = 12
__Ptr$ = 8						; size = 4
__Val$ = 12						; size = 4
?construct@?$allocator@UTooltipAlloc@ioBasicTooltipManager@@@std@@QAEXPAUTooltipAlloc@ioBasicTooltipManager@@$$QAU34@@Z PROC ; std::allocator<ioBasicTooltipManager::TooltipAlloc>::construct, COMDAT
; _this$ = ecx

; 201  : 		{	// construct object at _Ptr with value _Val

  00000	6a 04		 push	 4
  00002	b8 00 00 00 00	 mov	 eax, __ehhandler$?construct@?$allocator@UTooltipAlloc@ioBasicTooltipManager@@@std@@QAEXPAUTooltipAlloc@ioBasicTooltipManager@@$$QAU34@@Z
  00007	e8 00 00 00 00	 call	 __EH_prolog3

; 202  : 		::new ((void _FARQ *)_Ptr) _Ty(_STD forward<_Ty>(_Val));

  0000c	8b 75 08	 mov	 esi, DWORD PTR __Ptr$[ebp]
  0000f	89 75 f0	 mov	 DWORD PTR $T510883[ebp], esi
  00012	83 65 fc 00	 and	 DWORD PTR __$EHRec$[ebp+8], 0
  00016	85 f6		 test	 esi, esi
  00018	74 11		 je	 SHORT $LN3@construct
  0001a	8b 7d 0c	 mov	 edi, DWORD PTR __Val$[ebp]
  0001d	57		 push	 edi
  0001e	8b ce		 mov	 ecx, esi
  00020	e8 00 00 00 00	 call	 ??0?$basic_string@DU?$char_traits@D@std@@V?$allocator@D@2@@std@@QAE@ABV01@@Z ; std::basic_string<char,std::char_traits<char>,std::allocator<char> >::basic_string<char,std::char_traits<char>,std::allocator<char> >
  00025	8b 47 1c	 mov	 eax, DWORD PTR [edi+28]
  00028	89 46 1c	 mov	 DWORD PTR [esi+28], eax
$LN3@construct:

; 203  : 		}

  0002b	e8 00 00 00 00	 call	 __EH_epilog3
  00030	c2 08 00	 ret	 8
_TEXT	ENDS
;	COMDAT text$x
text$x	SEGMENT
__unwindfunclet$?construct@?$allocator@UTooltipAlloc@ioBasicTooltipManager@@@std@@QAEXPAUTooltipAlloc@ioBasicTooltipManager@@$$QAU34@@Z$0:
  00000	ff 75 08	 push	 DWORD PTR __Ptr$[ebp]
  00003	ff 75 f0	 push	 DWORD PTR $T510883[ebp]
  00006	e8 00 00 00 00	 call	 ??3@YAXPAX0@Z		; operator delete
  0000b	59		 pop	 ecx
  0000c	59		 pop	 ecx
  0000d	c3		 ret	 0
__ehhandler$?construct@?$allocator@UTooltipAlloc@ioBasicTooltipManager@@@std@@QAEXPAUTooltipAlloc@ioBasicTooltipManager@@$$QAU34@@Z:
  0000e	8b 54 24 08	 mov	 edx, DWORD PTR [esp+8]
  00012	8d 42 0c	 lea	 eax, DWORD PTR [edx+12]
  00015	8b 4a ec	 mov	 ecx, DWORD PTR [edx-20]
  00018	33 c8		 xor	 ecx, eax
  0001a	e8 00 00 00 00	 call	 @__security_check_cookie@4
  0001f	b8 00 00 00 00	 mov	 eax, OFFSET __ehfuncinfo$?construct@?$allocator@UTooltipAlloc@ioBasicTooltipManager@@@std@@QAEXPAUTooltipAlloc@ioBasicTooltipManager@@$$QAU34@@Z
  00024	e9 00 00 00 00	 jmp	 ___CxxFrameHandler3
text$x	ENDS
?construct@?$allocator@UTooltipAlloc@ioBasicTooltipManager@@@std@@QAEXPAUTooltipAlloc@ioBasicTooltipManager@@$$QAU34@@Z ENDP ; std::allocator<ioBasicTooltipManager::TooltipAlloc>::construct
PUBLIC	??0?$_Pair_base@$$CBKUTooltipAlloc@ioBasicTooltipManager@@@std@@QAE@$$QBK$$QAUTooltipAlloc@ioBasicTooltipManager@@@Z ; std::_Pair_base<unsigned long const ,ioBasicTooltipManager::TooltipAlloc>::_Pair_base<unsigned long const ,ioBasicTooltipManager::TooltipAlloc>
; Function compile flags: /Ogsp
; File c:\program files (x86)\microsoft visual studio 10.0\vc\include\utility
;	COMDAT ??0?$_Pair_base@$$CBKUTooltipAlloc@ioBasicTooltipManager@@@std@@QAE@$$QBK$$QAUTooltipAlloc@ioBasicTooltipManager@@@Z
_TEXT	SEGMENT
__Val1$ = 8						; size = 4
__Val2$ = 12						; size = 4
??0?$_Pair_base@$$CBKUTooltipAlloc@ioBasicTooltipManager@@@std@@QAE@$$QBK$$QAUTooltipAlloc@ioBasicTooltipManager@@@Z PROC ; std::_Pair_base<unsigned long const ,ioBasicTooltipManager::TooltipAlloc>::_Pair_base<unsigned long const ,ioBasicTooltipManager::TooltipAlloc>, COMDAT
; _this$ = ecx

; 145  : 		{	// construct from specified values

  00000	55		 push	 ebp
  00001	8b ec		 mov	 ebp, esp
  00003	8b 45 08	 mov	 eax, DWORD PTR __Val1$[ebp]
  00006	8b 00		 mov	 eax, DWORD PTR [eax]
  00008	53		 push	 ebx
  00009	8b 5d 0c	 mov	 ebx, DWORD PTR __Val2$[ebp]
  0000c	56		 push	 esi
  0000d	8b f1		 mov	 esi, ecx
  0000f	57		 push	 edi
  00010	53		 push	 ebx
  00011	8d 4e 04	 lea	 ecx, DWORD PTR [esi+4]
  00014	89 06		 mov	 DWORD PTR [esi], eax
  00016	e8 00 00 00 00	 call	 ??0?$basic_string@DU?$char_traits@D@std@@V?$allocator@D@2@@std@@QAE@ABV01@@Z ; std::basic_string<char,std::char_traits<char>,std::allocator<char> >::basic_string<char,std::char_traits<char>,std::allocator<char> >
  0001b	8b 43 1c	 mov	 eax, DWORD PTR [ebx+28]
  0001e	89 46 20	 mov	 DWORD PTR [esi+32], eax
  00021	5f		 pop	 edi

; 146  : 		}

  00022	8b c6		 mov	 eax, esi
  00024	5e		 pop	 esi
  00025	5b		 pop	 ebx
  00026	5d		 pop	 ebp
  00027	c2 08 00	 ret	 8
??0?$_Pair_base@$$CBKUTooltipAlloc@ioBasicTooltipManager@@@std@@QAE@$$QBK$$QAUTooltipAlloc@ioBasicTooltipManager@@@Z ENDP ; std::_Pair_base<unsigned long const ,ioBasicTooltipManager::TooltipAlloc>::_Pair_base<unsigned long const ,ioBasicTooltipManager::TooltipAlloc>
_TEXT	ENDS
PUBLIC	??4?$basic_string@DU?$char_traits@D@std@@V?$allocator@D@2@@std@@QAEAAV01@ABV01@@Z ; std::basic_string<char,std::char_traits<char>,std::allocator<char> >::operator=
; Function compile flags: /Ogsp
; File c:\program files (x86)\microsoft visual studio 10.0\vc\include\xstring
;	COMDAT ??4?$basic_string@DU?$char_traits@D@std@@V?$allocator@D@2@@std@@QAEAAV01@ABV01@@Z
_TEXT	SEGMENT
__Right$ = 8						; size = 4
??4?$basic_string@DU?$char_traits@D@std@@V?$allocator@D@2@@std@@QAEAAV01@ABV01@@Z PROC ; std::basic_string<char,std::char_traits<char>,std::allocator<char> >::operator=, COMDAT
; _this$ = ecx

; 763  : 		{	// assign _Right

  00000	55		 push	 ebp
  00001	8b ec		 mov	 ebp, esp

; 764  : 		return (assign(_Right));

  00003	6a ff		 push	 -1
  00005	6a 00		 push	 0
  00007	ff 75 08	 push	 DWORD PTR __Right$[ebp]
  0000a	e8 00 00 00 00	 call	 ?assign@?$basic_string@DU?$char_traits@D@std@@V?$allocator@D@2@@std@@QAEAAV12@ABV12@II@Z ; std::basic_string<char,std::char_traits<char>,std::allocator<char> >::assign

; 765  : 		}

  0000f	5d		 pop	 ebp
  00010	c2 04 00	 ret	 4
??4?$basic_string@DU?$char_traits@D@std@@V?$allocator@D@2@@std@@QAEAAV01@ABV01@@Z ENDP ; std::basic_string<char,std::char_traits<char>,std::allocator<char> >::operator=
_TEXT	ENDS
PUBLIC	?destroy@?$allocator@U?$pair@$$CBKUTooltipAlloc@ioBasicTooltipManager@@@std@@@std@@QAEXPAU?$pair@$$CBKUTooltipAlloc@ioBasicTooltipManager@@@2@@Z ; std::allocator<std::pair<unsigned long const ,ioBasicTooltipManager::TooltipAlloc> >::destroy
; Function compile flags: /Ogsp
; File c:\program files (x86)\microsoft visual studio 10.0\vc\include\xmemory
;	COMDAT ?destroy@?$allocator@U?$pair@$$CBKUTooltipAlloc@ioBasicTooltipManager@@@std@@@std@@QAEXPAU?$pair@$$CBKUTooltipAlloc@ioBasicTooltipManager@@@2@@Z
_TEXT	SEGMENT
__Ptr$ = 8						; size = 4
?destroy@?$allocator@U?$pair@$$CBKUTooltipAlloc@ioBasicTooltipManager@@@std@@@std@@QAEXPAU?$pair@$$CBKUTooltipAlloc@ioBasicTooltipManager@@@2@@Z PROC ; std::allocator<std::pair<unsigned long const ,ioBasicTooltipManager::TooltipAlloc> >::destroy, COMDAT
; _this$ = ecx

; 212  : 		{	// destroy object at _Ptr

  00000	55		 push	 ebp
  00001	8b ec		 mov	 ebp, esp

; 213  : 		_Destroy(_Ptr);

  00003	8b 4d 08	 mov	 ecx, DWORD PTR __Ptr$[ebp]
  00006	6a 00		 push	 0
  00008	e8 00 00 00 00	 call	 ??_G?$pair@$$CBKUTooltipAlloc@ioBasicTooltipManager@@@std@@QAEPAXI@Z

; 214  : 		}

  0000d	5d		 pop	 ebp
  0000e	c2 04 00	 ret	 4
?destroy@?$allocator@U?$pair@$$CBKUTooltipAlloc@ioBasicTooltipManager@@@std@@@std@@QAEXPAU?$pair@$$CBKUTooltipAlloc@ioBasicTooltipManager@@@2@@Z ENDP ; std::allocator<std::pair<unsigned long const ,ioBasicTooltipManager::TooltipAlloc> >::destroy
_TEXT	ENDS
PUBLIC	??$?0AAKAAUTooltipAlloc@ioBasicTooltipManager@@@?$_Pair_base@$$CBKUTooltipAlloc@ioBasicTooltipManager@@@std@@QAE@AAKAAUTooltipAlloc@ioBasicTooltipManager@@@Z ; std::_Pair_base<unsigned long const ,ioBasicTooltipManager::TooltipAlloc>::_Pair_base<unsigned long const ,ioBasicTooltipManager::TooltipAlloc><unsigned long &,ioBasicTooltipManager::TooltipAlloc &>
; Function compile flags: /Ogsp
; File c:\program files (x86)\microsoft visual studio 10.0\vc\include\utility
;	COMDAT ??$?0AAKAAUTooltipAlloc@ioBasicTooltipManager@@@?$_Pair_base@$$CBKUTooltipAlloc@ioBasicTooltipManager@@@std@@QAE@AAKAAUTooltipAlloc@ioBasicTooltipManager@@@Z
_TEXT	SEGMENT
__Val1$ = 8						; size = 4
__Val2$ = 12						; size = 4
??$?0AAKAAUTooltipAlloc@ioBasicTooltipManager@@@?$_Pair_base@$$CBKUTooltipAlloc@ioBasicTooltipManager@@@std@@QAE@AAKAAUTooltipAlloc@ioBasicTooltipManager@@@Z PROC ; std::_Pair_base<unsigned long const ,ioBasicTooltipManager::TooltipAlloc>::_Pair_base<unsigned long const ,ioBasicTooltipManager::TooltipAlloc><unsigned long &,ioBasicTooltipManager::TooltipAlloc &>, COMDAT
; _this$ = ecx

; 163  : 		{	// construct from moved values

  00000	55		 push	 ebp
  00001	8b ec		 mov	 ebp, esp
  00003	8b 45 08	 mov	 eax, DWORD PTR __Val1$[ebp]
  00006	8b 00		 mov	 eax, DWORD PTR [eax]
  00008	53		 push	 ebx
  00009	8b 5d 0c	 mov	 ebx, DWORD PTR __Val2$[ebp]
  0000c	56		 push	 esi
  0000d	8b f1		 mov	 esi, ecx
  0000f	57		 push	 edi
  00010	53		 push	 ebx
  00011	8d 4e 04	 lea	 ecx, DWORD PTR [esi+4]
  00014	89 06		 mov	 DWORD PTR [esi], eax
  00016	e8 00 00 00 00	 call	 ??0?$basic_string@DU?$char_traits@D@std@@V?$allocator@D@2@@std@@QAE@ABV01@@Z ; std::basic_string<char,std::char_traits<char>,std::allocator<char> >::basic_string<char,std::char_traits<char>,std::allocator<char> >
  0001b	8b 43 1c	 mov	 eax, DWORD PTR [ebx+28]
  0001e	89 46 20	 mov	 DWORD PTR [esi+32], eax
  00021	5f		 pop	 edi

; 164  : 		}

  00022	8b c6		 mov	 eax, esi
  00024	5e		 pop	 esi
  00025	5b		 pop	 ebx
  00026	5d		 pop	 ebp
  00027	c2 08 00	 ret	 8
??$?0AAKAAUTooltipAlloc@ioBasicTooltipManager@@@?$_Pair_base@$$CBKUTooltipAlloc@ioBasicTooltipManager@@@std@@QAE@AAKAAUTooltipAlloc@ioBasicTooltipManager@@@Z ENDP ; std::_Pair_base<unsigned long const ,ioBasicTooltipManager::TooltipAlloc>::_Pair_base<unsigned long const ,ioBasicTooltipManager::TooltipAlloc><unsigned long &,ioBasicTooltipManager::TooltipAlloc &>
_TEXT	ENDS
PUBLIC	??$construct@AAUTooltipAlloc@ioBasicTooltipManager@@@?$allocator@UTooltipAlloc@ioBasicTooltipManager@@@std@@QAEXPAUTooltipAlloc@ioBasicTooltipManager@@AAU23@@Z ; std::allocator<ioBasicTooltipManager::TooltipAlloc>::construct<ioBasicTooltipManager::TooltipAlloc &>
;	COMDAT xdata$x
; File c:\program files (x86)\microsoft visual studio 10.0\vc\include\xmemory
xdata$x	SEGMENT
__unwindtable$??$construct@AAUTooltipAlloc@ioBasicTooltipManager@@@?$allocator@UTooltipAlloc@ioBasicTooltipManager@@@std@@QAEXPAUTooltipAlloc@ioBasicTooltipManager@@AAU23@@Z DD 0ffffffffH
	DD	FLAT:__unwindfunclet$??$construct@AAUTooltipAlloc@ioBasicTooltipManager@@@?$allocator@UTooltipAlloc@ioBasicTooltipManager@@@std@@QAEXPAUTooltipAlloc@ioBasicTooltipManager@@AAU23@@Z$0
__ehfuncinfo$??$construct@AAUTooltipAlloc@ioBasicTooltipManager@@@?$allocator@UTooltipAlloc@ioBasicTooltipManager@@@std@@QAEXPAUTooltipAlloc@ioBasicTooltipManager@@AAU23@@Z DD 019930522H
	DD	01H
	DD	FLAT:__unwindtable$??$construct@AAUTooltipAlloc@ioBasicTooltipManager@@@?$allocator@UTooltipAlloc@ioBasicTooltipManager@@@std@@QAEXPAUTooltipAlloc@ioBasicTooltipManager@@AAU23@@Z
	DD	2 DUP(00H)
	DD	2 DUP(00H)
	DD	00H
	DD	01H
; Function compile flags: /Ogsp
xdata$x	ENDS
;	COMDAT ??$construct@AAUTooltipAlloc@ioBasicTooltipManager@@@?$allocator@UTooltipAlloc@ioBasicTooltipManager@@@std@@QAEXPAUTooltipAlloc@ioBasicTooltipManager@@AAU23@@Z
_TEXT	SEGMENT
$T510945 = -16						; size = 4
__$EHRec$ = -12						; size = 12
__Ptr$ = 8						; size = 4
__Val$ = 12						; size = 4
??$construct@AAUTooltipAlloc@ioBasicTooltipManager@@@?$allocator@UTooltipAlloc@ioBasicTooltipManager@@@std@@QAEXPAUTooltipAlloc@ioBasicTooltipManager@@AAU23@@Z PROC ; std::allocator<ioBasicTooltipManager::TooltipAlloc>::construct<ioBasicTooltipManager::TooltipAlloc &>, COMDAT
; _this$ = ecx

; 206  : 		void construct(pointer _Ptr, _Other&& _Val)

  00000	6a 04		 push	 4
  00002	b8 00 00 00 00	 mov	 eax, __ehhandler$??$construct@AAUTooltipAlloc@ioBasicTooltipManager@@@?$allocator@UTooltipAlloc@ioBasicTooltipManager@@@std@@QAEXPAUTooltipAlloc@ioBasicTooltipManager@@AAU23@@Z
  00007	e8 00 00 00 00	 call	 __EH_prolog3

; 207  : 		{	// construct object at _Ptr with value _Val
; 208  : 		::new ((void _FARQ *)_Ptr) _Ty(_STD forward<_Other>(_Val));

  0000c	8b 75 08	 mov	 esi, DWORD PTR __Ptr$[ebp]
  0000f	89 75 f0	 mov	 DWORD PTR $T510945[ebp], esi
  00012	83 65 fc 00	 and	 DWORD PTR __$EHRec$[ebp+8], 0
  00016	85 f6		 test	 esi, esi
  00018	74 11		 je	 SHORT $LN3@construct@2
  0001a	8b 7d 0c	 mov	 edi, DWORD PTR __Val$[ebp]
  0001d	57		 push	 edi
  0001e	8b ce		 mov	 ecx, esi
  00020	e8 00 00 00 00	 call	 ??0?$basic_string@DU?$char_traits@D@std@@V?$allocator@D@2@@std@@QAE@ABV01@@Z ; std::basic_string<char,std::char_traits<char>,std::allocator<char> >::basic_string<char,std::char_traits<char>,std::allocator<char> >
  00025	8b 47 1c	 mov	 eax, DWORD PTR [edi+28]
  00028	89 46 1c	 mov	 DWORD PTR [esi+28], eax
$LN3@construct@2:

; 209  : 		}

  0002b	e8 00 00 00 00	 call	 __EH_epilog3
  00030	c2 08 00	 ret	 8
_TEXT	ENDS
;	COMDAT text$x
text$x	SEGMENT
__unwindfunclet$??$construct@AAUTooltipAlloc@ioBasicTooltipManager@@@?$allocator@UTooltipAlloc@ioBasicTooltipManager@@@std@@QAEXPAUTooltipAlloc@ioBasicTooltipManager@@AAU23@@Z$0:
  00000	ff 75 08	 push	 DWORD PTR __Ptr$[ebp]
  00003	ff 75 f0	 push	 DWORD PTR $T510945[ebp]
  00006	e8 00 00 00 00	 call	 ??3@YAXPAX0@Z		; operator delete
  0000b	59		 pop	 ecx
  0000c	59		 pop	 ecx
  0000d	c3		 ret	 0
__ehhandler$??$construct@AAUTooltipAlloc@ioBasicTooltipManager@@@?$allocator@UTooltipAlloc@ioBasicTooltipManager@@@std@@QAEXPAUTooltipAlloc@ioBasicTooltipManager@@AAU23@@Z:
  0000e	8b 54 24 08	 mov	 edx, DWORD PTR [esp+8]
  00012	8d 42 0c	 lea	 eax, DWORD PTR [edx+12]
  00015	8b 4a ec	 mov	 ecx, DWORD PTR [edx-20]
  00018	33 c8		 xor	 ecx, eax
  0001a	e8 00 00 00 00	 call	 @__security_check_cookie@4
  0001f	b8 00 00 00 00	 mov	 eax, OFFSET __ehfuncinfo$??$construct@AAUTooltipAlloc@ioBasicTooltipManager@@@?$allocator@UTooltipAlloc@ioBasicTooltipManager@@@std@@QAEXPAUTooltipAlloc@ioBasicTooltipManager@@AAU23@@Z
  00024	e9 00 00 00 00	 jmp	 ___CxxFrameHandler3
text$x	ENDS
??$construct@AAUTooltipAlloc@ioBasicTooltipManager@@@?$allocator@UTooltipAlloc@ioBasicTooltipManager@@@std@@QAEXPAUTooltipAlloc@ioBasicTooltipManager@@AAU23@@Z ENDP ; std::allocator<ioBasicTooltipManager::TooltipAlloc>::construct<ioBasicTooltipManager::TooltipAlloc &>
PUBLIC	??$_Construct@UTooltipAlloc@ioBasicTooltipManager@@ABU12@@std@@YAXPAUTooltipAlloc@ioBasicTooltipManager@@ABU12@@Z ; std::_Construct<ioBasicTooltipManager::TooltipAlloc,ioBasicTooltipManager::TooltipAlloc const &>
;	COMDAT xdata$x
xdata$x	SEGMENT
__unwindtable$??$_Construct@UTooltipAlloc@ioBasicTooltipManager@@ABU12@@std@@YAXPAUTooltipAlloc@ioBasicTooltipManager@@ABU12@@Z DD 0ffffffffH
	DD	FLAT:__unwindfunclet$??$_Construct@UTooltipAlloc@ioBasicTooltipManager@@ABU12@@std@@YAXPAUTooltipAlloc@ioBasicTooltipManager@@ABU12@@Z$0
__ehfuncinfo$??$_Construct@UTooltipAlloc@ioBasicTooltipManager@@ABU12@@std@@YAXPAUTooltipAlloc@ioBasicTooltipManager@@ABU12@@Z DD 019930522H
	DD	01H
	DD	FLAT:__unwindtable$??$_Construct@UTooltipAlloc@ioBasicTooltipManager@@ABU12@@std@@YAXPAUTooltipAlloc@ioBasicTooltipManager@@ABU12@@Z
	DD	2 DUP(00H)
	DD	2 DUP(00H)
	DD	00H
	DD	01H
; Function compile flags: /Ogsp
xdata$x	ENDS
;	COMDAT ??$_Construct@UTooltipAlloc@ioBasicTooltipManager@@ABU12@@std@@YAXPAUTooltipAlloc@ioBasicTooltipManager@@ABU12@@Z
_TEXT	SEGMENT
$T510968 = -16						; size = 4
__$EHRec$ = -12						; size = 12
__Vptr$ = 8						; size = 4
__Ptr$ = 8						; size = 4
__Val$ = 12						; size = 4
??$_Construct@UTooltipAlloc@ioBasicTooltipManager@@ABU12@@std@@YAXPAUTooltipAlloc@ioBasicTooltipManager@@ABU12@@Z PROC ; std::_Construct<ioBasicTooltipManager::TooltipAlloc,ioBasicTooltipManager::TooltipAlloc const &>, COMDAT

; 46   : 	{	// construct object at _Ptr with value _Val

  00000	6a 04		 push	 4
  00002	b8 00 00 00 00	 mov	 eax, __ehhandler$??$_Construct@UTooltipAlloc@ioBasicTooltipManager@@ABU12@@std@@YAXPAUTooltipAlloc@ioBasicTooltipManager@@ABU12@@Z
  00007	e8 00 00 00 00	 call	 __EH_prolog3

; 47   : 	void _FARQ *_Vptr = _Ptr;

  0000c	8b 75 08	 mov	 esi, DWORD PTR __Ptr$[ebp]
  0000f	89 75 08	 mov	 DWORD PTR __Vptr$[ebp], esi

; 48   : 	::new (_Vptr) _Ty1(_STD forward<_Ty2>(_Val));

  00012	89 75 f0	 mov	 DWORD PTR $T510968[ebp], esi
  00015	83 65 fc 00	 and	 DWORD PTR __$EHRec$[ebp+8], 0
  00019	85 f6		 test	 esi, esi
  0001b	74 11		 je	 SHORT $LN3@Construct
  0001d	8b 7d 0c	 mov	 edi, DWORD PTR __Val$[ebp]
  00020	57		 push	 edi
  00021	8b ce		 mov	 ecx, esi
  00023	e8 00 00 00 00	 call	 ??0?$basic_string@DU?$char_traits@D@std@@V?$allocator@D@2@@std@@QAE@ABV01@@Z ; std::basic_string<char,std::char_traits<char>,std::allocator<char> >::basic_string<char,std::char_traits<char>,std::allocator<char> >
  00028	8b 47 1c	 mov	 eax, DWORD PTR [edi+28]
  0002b	89 46 1c	 mov	 DWORD PTR [esi+28], eax
$LN3@Construct:

; 49   : 	}

  0002e	e8 00 00 00 00	 call	 __EH_epilog3
  00033	c3		 ret	 0
_TEXT	ENDS
;	COMDAT text$x
text$x	SEGMENT
__unwindfunclet$??$_Construct@UTooltipAlloc@ioBasicTooltipManager@@ABU12@@std@@YAXPAUTooltipAlloc@ioBasicTooltipManager@@ABU12@@Z$0:
  00000	ff 75 08	 push	 DWORD PTR __Vptr$[ebp]
  00003	ff 75 f0	 push	 DWORD PTR $T510968[ebp]
  00006	e8 00 00 00 00	 call	 ??3@YAXPAX0@Z		; operator delete
  0000b	59		 pop	 ecx
  0000c	59		 pop	 ecx
  0000d	c3		 ret	 0
__ehhandler$??$_Construct@UTooltipAlloc@ioBasicTooltipManager@@ABU12@@std@@YAXPAUTooltipAlloc@ioBasicTooltipManager@@ABU12@@Z:
  0000e	8b 54 24 08	 mov	 edx, DWORD PTR [esp+8]
  00012	8d 42 0c	 lea	 eax, DWORD PTR [edx+12]
  00015	8b 4a ec	 mov	 ecx, DWORD PTR [edx-20]
  00018	33 c8		 xor	 ecx, eax
  0001a	e8 00 00 00 00	 call	 @__security_check_cookie@4
  0001f	b8 00 00 00 00	 mov	 eax, OFFSET __ehfuncinfo$??$_Construct@UTooltipAlloc@ioBasicTooltipManager@@ABU12@@std@@YAXPAUTooltipAlloc@ioBasicTooltipManager@@ABU12@@Z
  00024	e9 00 00 00 00	 jmp	 ___CxxFrameHandler3
text$x	ENDS
??$_Construct@UTooltipAlloc@ioBasicTooltipManager@@ABU12@@std@@YAXPAUTooltipAlloc@ioBasicTooltipManager@@ABU12@@Z ENDP ; std::_Construct<ioBasicTooltipManager::TooltipAlloc,ioBasicTooltipManager::TooltipAlloc const &>
PUBLIC	??4TooltipAlloc@ioBasicTooltipManager@@QAEAAU01@ABU01@@Z ; ioBasicTooltipManager::TooltipAlloc::operator=
; Function compile flags: /Ogsp
;	COMDAT ??4TooltipAlloc@ioBasicTooltipManager@@QAEAAU01@ABU01@@Z
_TEXT	SEGMENT
___that$ = 8						; size = 4
??4TooltipAlloc@ioBasicTooltipManager@@QAEAAU01@ABU01@@Z PROC ; ioBasicTooltipManager::TooltipAlloc::operator=, COMDAT
; _this$ = ecx
  00000	55		 push	 ebp
  00001	8b ec		 mov	 ebp, esp
  00003	56		 push	 esi
  00004	57		 push	 edi
  00005	8b 7d 08	 mov	 edi, DWORD PTR ___that$[ebp]
  00008	6a ff		 push	 -1
  0000a	6a 00		 push	 0
  0000c	57		 push	 edi
  0000d	8b f1		 mov	 esi, ecx
  0000f	e8 00 00 00 00	 call	 ?assign@?$basic_string@DU?$char_traits@D@std@@V?$allocator@D@2@@std@@QAEAAV12@ABV12@II@Z ; std::basic_string<char,std::char_traits<char>,std::allocator<char> >::assign
  00014	8b 47 1c	 mov	 eax, DWORD PTR [edi+28]
  00017	89 46 1c	 mov	 DWORD PTR [esi+28], eax
  0001a	5f		 pop	 edi
  0001b	8b c6		 mov	 eax, esi
  0001d	5e		 pop	 esi
  0001e	5d		 pop	 ebp
  0001f	c2 04 00	 ret	 4
??4TooltipAlloc@ioBasicTooltipManager@@QAEAAU01@ABU01@@Z ENDP ; ioBasicTooltipManager::TooltipAlloc::operator=
_TEXT	ENDS
PUBLIC	??$_Dest_val@V?$allocator@UTooltipAlloc@ioBasicTooltipManager@@@std@@UTooltipAlloc@ioBasicTooltipManager@@@std@@YAXAAV?$allocator@UTooltipAlloc@ioBasicTooltipManager@@@0@PAUTooltipAlloc@ioBasicTooltipManager@@@Z ; std::_Dest_val<std::allocator<ioBasicTooltipManager::TooltipAlloc>,ioBasicTooltipManager::TooltipAlloc>
; Function compile flags: /Ogsp
;	COMDAT ??$_Dest_val@V?$allocator@UTooltipAlloc@ioBasicTooltipManager@@@std@@UTooltipAlloc@ioBasicTooltipManager@@@std@@YAXAAV?$allocator@UTooltipAlloc@ioBasicTooltipManager@@@0@PAUTooltipAlloc@ioBasicTooltipManager@@@Z
_TEXT	SEGMENT
__Alval$ = 8						; size = 4
__Pdest$ = 12						; size = 4
??$_Dest_val@V?$allocator@UTooltipAlloc@ioBasicTooltipManager@@@std@@UTooltipAlloc@ioBasicTooltipManager@@@std@@YAXAAV?$allocator@UTooltipAlloc@ioBasicTooltipManager@@@0@PAUTooltipAlloc@ioBasicTooltipManager@@@Z PROC ; std::_Dest_val<std::allocator<ioBasicTooltipManager::TooltipAlloc>,ioBasicTooltipManager::TooltipAlloc>, COMDAT

; 286  : 	{	// destroy using allocator

  00000	55		 push	 ebp
  00001	8b ec		 mov	 ebp, esp

; 287  : 	_Alval.destroy(_Pdest);

  00003	8b 4d 0c	 mov	 ecx, DWORD PTR __Pdest$[ebp]
  00006	6a 00		 push	 0
  00008	6a 01		 push	 1
  0000a	e8 00 00 00 00	 call	 ?_Tidy@?$basic_string@DU?$char_traits@D@std@@V?$allocator@D@2@@std@@QAEX_NI@Z ; std::basic_string<char,std::char_traits<char>,std::allocator<char> >::_Tidy

; 288  : 	}

  0000f	5d		 pop	 ebp
  00010	c3		 ret	 0
??$_Dest_val@V?$allocator@UTooltipAlloc@ioBasicTooltipManager@@@std@@UTooltipAlloc@ioBasicTooltipManager@@@std@@YAXAAV?$allocator@UTooltipAlloc@ioBasicTooltipManager@@@0@PAUTooltipAlloc@ioBasicTooltipManager@@@Z ENDP ; std::_Dest_val<std::allocator<ioBasicTooltipManager::TooltipAlloc>,ioBasicTooltipManager::TooltipAlloc>
_TEXT	ENDS
PUBLIC	??$_Cons_val@V?$allocator@UTooltipAlloc@ioBasicTooltipManager@@@std@@UTooltipAlloc@ioBasicTooltipManager@@U34@@std@@YAXAAV?$allocator@UTooltipAlloc@ioBasicTooltipManager@@@0@PAUTooltipAlloc@ioBasicTooltipManager@@$$QAU23@@Z ; std::_Cons_val<std::allocator<ioBasicTooltipManager::TooltipAlloc>,ioBasicTooltipManager::TooltipAlloc,ioBasicTooltipManager::TooltipAlloc>
; Function compile flags: /Ogsp
;	COMDAT ??$_Cons_val@V?$allocator@UTooltipAlloc@ioBasicTooltipManager@@@std@@UTooltipAlloc@ioBasicTooltipManager@@U34@@std@@YAXAAV?$allocator@UTooltipAlloc@ioBasicTooltipManager@@@0@PAUTooltipAlloc@ioBasicTooltipManager@@$$QAU23@@Z
_TEXT	SEGMENT
__Alval$ = 8						; size = 4
__Pdest$ = 12						; size = 4
__Src$ = 16						; size = 4
??$_Cons_val@V?$allocator@UTooltipAlloc@ioBasicTooltipManager@@@std@@UTooltipAlloc@ioBasicTooltipManager@@U34@@std@@YAXAAV?$allocator@UTooltipAlloc@ioBasicTooltipManager@@@0@PAUTooltipAlloc@ioBasicTooltipManager@@$$QAU23@@Z PROC ; std::_Cons_val<std::allocator<ioBasicTooltipManager::TooltipAlloc>,ioBasicTooltipManager::TooltipAlloc,ioBasicTooltipManager::TooltipAlloc>, COMDAT

; 279  : 	{	// construct using allocator

  00000	55		 push	 ebp
  00001	8b ec		 mov	 ebp, esp

; 280  : 	_Alval.construct(_Pdest, _STD forward<_Ty2>(_Src));

  00003	ff 75 10	 push	 DWORD PTR __Src$[ebp]
  00006	8b 4d 08	 mov	 ecx, DWORD PTR __Alval$[ebp]
  00009	ff 75 0c	 push	 DWORD PTR __Pdest$[ebp]
  0000c	e8 00 00 00 00	 call	 ?construct@?$allocator@UTooltipAlloc@ioBasicTooltipManager@@@std@@QAEXPAUTooltipAlloc@ioBasicTooltipManager@@$$QAU34@@Z ; std::allocator<ioBasicTooltipManager::TooltipAlloc>::construct

; 281  : 	}

  00011	5d		 pop	 ebp
  00012	c3		 ret	 0
??$_Cons_val@V?$allocator@UTooltipAlloc@ioBasicTooltipManager@@@std@@UTooltipAlloc@ioBasicTooltipManager@@U34@@std@@YAXAAV?$allocator@UTooltipAlloc@ioBasicTooltipManager@@@0@PAUTooltipAlloc@ioBasicTooltipManager@@$$QAU23@@Z ENDP ; std::_Cons_val<std::allocator<ioBasicTooltipManager::TooltipAlloc>,ioBasicTooltipManager::TooltipAlloc,ioBasicTooltipManager::TooltipAlloc>
_TEXT	ENDS
PUBLIC	??$?0$$CBKUTooltipAlloc@ioBasicTooltipManager@@@?$pair@$$CBKUTooltipAlloc@ioBasicTooltipManager@@@std@@QAE@$$QAU01@@Z ; std::pair<unsigned long const ,ioBasicTooltipManager::TooltipAlloc>::pair<unsigned long const ,ioBasicTooltipManager::TooltipAlloc><unsigned long const ,ioBasicTooltipManager::TooltipAlloc>
; Function compile flags: /Ogsp
; File c:\program files (x86)\microsoft visual studio 10.0\vc\include\utility
;	COMDAT ??$?0$$CBKUTooltipAlloc@ioBasicTooltipManager@@@?$pair@$$CBKUTooltipAlloc@ioBasicTooltipManager@@@std@@QAE@$$QAU01@@Z
_TEXT	SEGMENT
__Right$ = 8						; size = 4
??$?0$$CBKUTooltipAlloc@ioBasicTooltipManager@@@?$pair@$$CBKUTooltipAlloc@ioBasicTooltipManager@@@std@@QAE@$$QAU01@@Z PROC ; std::pair<unsigned long const ,ioBasicTooltipManager::TooltipAlloc>::pair<unsigned long const ,ioBasicTooltipManager::TooltipAlloc><unsigned long const ,ioBasicTooltipManager::TooltipAlloc>, COMDAT
; _this$ = ecx

; 255  : 		{	// construct from moved compatible pair

  00000	55		 push	 ebp
  00001	8b ec		 mov	 ebp, esp
  00003	8b 45 08	 mov	 eax, DWORD PTR __Right$[ebp]
  00006	56		 push	 esi
  00007	8b f1		 mov	 esi, ecx
  00009	8d 48 04	 lea	 ecx, DWORD PTR [eax+4]
  0000c	51		 push	 ecx
  0000d	50		 push	 eax
  0000e	8b ce		 mov	 ecx, esi
  00010	e8 00 00 00 00	 call	 ??0?$_Pair_base@$$CBKUTooltipAlloc@ioBasicTooltipManager@@@std@@QAE@$$QBK$$QAUTooltipAlloc@ioBasicTooltipManager@@@Z ; std::_Pair_base<unsigned long const ,ioBasicTooltipManager::TooltipAlloc>::_Pair_base<unsigned long const ,ioBasicTooltipManager::TooltipAlloc>

; 256  : 		}

  00015	8b c6		 mov	 eax, esi
  00017	5e		 pop	 esi
  00018	5d		 pop	 ebp
  00019	c2 04 00	 ret	 4
??$?0$$CBKUTooltipAlloc@ioBasicTooltipManager@@@?$pair@$$CBKUTooltipAlloc@ioBasicTooltipManager@@@std@@QAE@$$QAU01@@Z ENDP ; std::pair<unsigned long const ,ioBasicTooltipManager::TooltipAlloc>::pair<unsigned long const ,ioBasicTooltipManager::TooltipAlloc><unsigned long const ,ioBasicTooltipManager::TooltipAlloc>
_TEXT	ENDS
PUBLIC	??$?0AAKAAUTooltipAlloc@ioBasicTooltipManager@@@?$pair@$$CBKUTooltipAlloc@ioBasicTooltipManager@@@std@@QAE@AAKAAUTooltipAlloc@ioBasicTooltipManager@@@Z ; std::pair<unsigned long const ,ioBasicTooltipManager::TooltipAlloc>::pair<unsigned long const ,ioBasicTooltipManager::TooltipAlloc><unsigned long &,ioBasicTooltipManager::TooltipAlloc &>
; Function compile flags: /Ogsp
;	COMDAT ??$?0AAKAAUTooltipAlloc@ioBasicTooltipManager@@@?$pair@$$CBKUTooltipAlloc@ioBasicTooltipManager@@@std@@QAE@AAKAAUTooltipAlloc@ioBasicTooltipManager@@@Z
_TEXT	SEGMENT
__Val1$ = 8						; size = 4
__Val2$ = 12						; size = 4
??$?0AAKAAUTooltipAlloc@ioBasicTooltipManager@@@?$pair@$$CBKUTooltipAlloc@ioBasicTooltipManager@@@std@@QAE@AAKAAUTooltipAlloc@ioBasicTooltipManager@@@Z PROC ; std::pair<unsigned long const ,ioBasicTooltipManager::TooltipAlloc>::pair<unsigned long const ,ioBasicTooltipManager::TooltipAlloc><unsigned long &,ioBasicTooltipManager::TooltipAlloc &>, COMDAT
; _this$ = ecx

; 247  : 		{	// construct from moved values

  00000	55		 push	 ebp
  00001	8b ec		 mov	 ebp, esp
  00003	56		 push	 esi
  00004	ff 75 0c	 push	 DWORD PTR __Val2$[ebp]
  00007	8b f1		 mov	 esi, ecx
  00009	ff 75 08	 push	 DWORD PTR __Val1$[ebp]
  0000c	e8 00 00 00 00	 call	 ??$?0AAKAAUTooltipAlloc@ioBasicTooltipManager@@@?$_Pair_base@$$CBKUTooltipAlloc@ioBasicTooltipManager@@@std@@QAE@AAKAAUTooltipAlloc@ioBasicTooltipManager@@@Z ; std::_Pair_base<unsigned long const ,ioBasicTooltipManager::TooltipAlloc>::_Pair_base<unsigned long const ,ioBasicTooltipManager::TooltipAlloc><unsigned long &,ioBasicTooltipManager::TooltipAlloc &>

; 248  : 		}

  00011	8b c6		 mov	 eax, esi
  00013	5e		 pop	 esi
  00014	5d		 pop	 ebp
  00015	c2 08 00	 ret	 8
??$?0AAKAAUTooltipAlloc@ioBasicTooltipManager@@@?$pair@$$CBKUTooltipAlloc@ioBasicTooltipManager@@@std@@QAE@AAKAAUTooltipAlloc@ioBasicTooltipManager@@@Z ENDP ; std::pair<unsigned long const ,ioBasicTooltipManager::TooltipAlloc>::pair<unsigned long const ,ioBasicTooltipManager::TooltipAlloc><unsigned long &,ioBasicTooltipManager::TooltipAlloc &>
_TEXT	ENDS
PUBLIC	??$_Cons_val@V?$allocator@UTooltipAlloc@ioBasicTooltipManager@@@std@@UTooltipAlloc@ioBasicTooltipManager@@AAU34@@std@@YAXAAV?$allocator@UTooltipAlloc@ioBasicTooltipManager@@@0@PAUTooltipAlloc@ioBasicTooltipManager@@AAU23@@Z ; std::_Cons_val<std::allocator<ioBasicTooltipManager::TooltipAlloc>,ioBasicTooltipManager::TooltipAlloc,ioBasicTooltipManager::TooltipAlloc &>
; Function compile flags: /Ogsp
; File c:\program files (x86)\microsoft visual studio 10.0\vc\include\xmemory
;	COMDAT ??$_Cons_val@V?$allocator@UTooltipAlloc@ioBasicTooltipManager@@@std@@UTooltipAlloc@ioBasicTooltipManager@@AAU34@@std@@YAXAAV?$allocator@UTooltipAlloc@ioBasicTooltipManager@@@0@PAUTooltipAlloc@ioBasicTooltipManager@@AAU23@@Z
_TEXT	SEGMENT
__Alval$ = 8						; size = 4
__Pdest$ = 12						; size = 4
__Src$ = 16						; size = 4
??$_Cons_val@V?$allocator@UTooltipAlloc@ioBasicTooltipManager@@@std@@UTooltipAlloc@ioBasicTooltipManager@@AAU34@@std@@YAXAAV?$allocator@UTooltipAlloc@ioBasicTooltipManager@@@0@PAUTooltipAlloc@ioBasicTooltipManager@@AAU23@@Z PROC ; std::_Cons_val<std::allocator<ioBasicTooltipManager::TooltipAlloc>,ioBasicTooltipManager::TooltipAlloc,ioBasicTooltipManager::TooltipAlloc &>, COMDAT

; 279  : 	{	// construct using allocator

  00000	55		 push	 ebp
  00001	8b ec		 mov	 ebp, esp

; 280  : 	_Alval.construct(_Pdest, _STD forward<_Ty2>(_Src));

  00003	ff 75 10	 push	 DWORD PTR __Src$[ebp]
  00006	8b 4d 08	 mov	 ecx, DWORD PTR __Alval$[ebp]
  00009	ff 75 0c	 push	 DWORD PTR __Pdest$[ebp]
  0000c	e8 00 00 00 00	 call	 ??$construct@AAUTooltipAlloc@ioBasicTooltipManager@@@?$allocator@UTooltipAlloc@ioBasicTooltipManager@@@std@@QAEXPAUTooltipAlloc@ioBasicTooltipManager@@AAU23@@Z ; std::allocator<ioBasicTooltipManager::TooltipAlloc>::construct<ioBasicTooltipManager::TooltipAlloc &>

; 281  : 	}

  00011	5d		 pop	 ebp
  00012	c3		 ret	 0
??$_Cons_val@V?$allocator@UTooltipAlloc@ioBasicTooltipManager@@@std@@UTooltipAlloc@ioBasicTooltipManager@@AAU34@@std@@YAXAAV?$allocator@UTooltipAlloc@ioBasicTooltipManager@@@0@PAUTooltipAlloc@ioBasicTooltipManager@@AAU23@@Z ENDP ; std::_Cons_val<std::allocator<ioBasicTooltipManager::TooltipAlloc>,ioBasicTooltipManager::TooltipAlloc,ioBasicTooltipManager::TooltipAlloc &>
_TEXT	ENDS
PUBLIC	??$_Dest_val@V?$allocator@U?$pair@$$CBKUTooltipAlloc@ioBasicTooltipManager@@@std@@@std@@U?$pair@$$CBKUTooltipAlloc@ioBasicTooltipManager@@@2@@std@@YAXAAV?$allocator@U?$pair@$$CBKUTooltipAlloc@ioBasicTooltipManager@@@std@@@0@PAU?$pair@$$CBKUTooltipAlloc@ioBasicTooltipManager@@@0@@Z ; std::_Dest_val<std::allocator<std::pair<unsigned long const ,ioBasicTooltipManager::TooltipAlloc> >,std::pair<unsigned long const ,ioBasicTooltipManager::TooltipAlloc> >
; Function compile flags: /Ogsp
;	COMDAT ??$_Dest_val@V?$allocator@U?$pair@$$CBKUTooltipAlloc@ioBasicTooltipManager@@@std@@@std@@U?$pair@$$CBKUTooltipAlloc@ioBasicTooltipManager@@@2@@std@@YAXAAV?$allocator@U?$pair@$$CBKUTooltipAlloc@ioBasicTooltipManager@@@std@@@0@PAU?$pair@$$CBKUTooltipAlloc@ioBasicTooltipManager@@@0@@Z
_TEXT	SEGMENT
__Alval$ = 8						; size = 4
__Pdest$ = 12						; size = 4
??$_Dest_val@V?$allocator@U?$pair@$$CBKUTooltipAlloc@ioBasicTooltipManager@@@std@@@std@@U?$pair@$$CBKUTooltipAlloc@ioBasicTooltipManager@@@2@@std@@YAXAAV?$allocator@U?$pair@$$CBKUTooltipAlloc@ioBasicTooltipManager@@@std@@@0@PAU?$pair@$$CBKUTooltipAlloc@ioBasicTooltipManager@@@0@@Z PROC ; std::_Dest_val<std::allocator<std::pair<unsigned long const ,ioBasicTooltipManager::TooltipAlloc> >,std::pair<unsigned long const ,ioBasicTooltipManager::TooltipAlloc> >, COMDAT

; 286  : 	{	// destroy using allocator

  00000	55		 push	 ebp
  00001	8b ec		 mov	 ebp, esp

; 287  : 	_Alval.destroy(_Pdest);

  00003	8b 4d 0c	 mov	 ecx, DWORD PTR __Pdest$[ebp]
  00006	6a 00		 push	 0
  00008	e8 00 00 00 00	 call	 ??_G?$pair@$$CBKUTooltipAlloc@ioBasicTooltipManager@@@std@@QAEPAXI@Z

; 288  : 	}

  0000d	5d		 pop	 ebp
  0000e	c3		 ret	 0
??$_Dest_val@V?$allocator@U?$pair@$$CBKUTooltipAlloc@ioBasicTooltipManager@@@std@@@std@@U?$pair@$$CBKUTooltipAlloc@ioBasicTooltipManager@@@2@@std@@YAXAAV?$allocator@U?$pair@$$CBKUTooltipAlloc@ioBasicTooltipManager@@@std@@@0@PAU?$pair@$$CBKUTooltipAlloc@ioBasicTooltipManager@@@0@@Z ENDP ; std::_Dest_val<std::allocator<std::pair<unsigned long const ,ioBasicTooltipManager::TooltipAlloc> >,std::pair<unsigned long const ,ioBasicTooltipManager::TooltipAlloc> >
_TEXT	ENDS
PUBLIC	?construct@?$allocator@UTooltipAlloc@ioBasicTooltipManager@@@std@@QAEXPAUTooltipAlloc@ioBasicTooltipManager@@ABU34@@Z ; std::allocator<ioBasicTooltipManager::TooltipAlloc>::construct
; Function compile flags: /Ogsp
;	COMDAT ?construct@?$allocator@UTooltipAlloc@ioBasicTooltipManager@@@std@@QAEXPAUTooltipAlloc@ioBasicTooltipManager@@ABU34@@Z
_TEXT	SEGMENT
__Ptr$ = 8						; size = 4
__Val$ = 12						; size = 4
?construct@?$allocator@UTooltipAlloc@ioBasicTooltipManager@@@std@@QAEXPAUTooltipAlloc@ioBasicTooltipManager@@ABU34@@Z PROC ; std::allocator<ioBasicTooltipManager::TooltipAlloc>::construct, COMDAT
; _this$ = ecx

; 196  : 		{	// construct object at _Ptr with value _Val

  00000	55		 push	 ebp
  00001	8b ec		 mov	 ebp, esp

; 197  : 		_Construct(_Ptr, _Val);

  00003	ff 75 0c	 push	 DWORD PTR __Val$[ebp]
  00006	ff 75 08	 push	 DWORD PTR __Ptr$[ebp]
  00009	e8 00 00 00 00	 call	 ??$_Construct@UTooltipAlloc@ioBasicTooltipManager@@ABU12@@std@@YAXPAUTooltipAlloc@ioBasicTooltipManager@@ABU12@@Z ; std::_Construct<ioBasicTooltipManager::TooltipAlloc,ioBasicTooltipManager::TooltipAlloc const &>
  0000e	59		 pop	 ecx
  0000f	59		 pop	 ecx

; 198  : 		}

  00010	5d		 pop	 ebp
  00011	c2 08 00	 ret	 8
?construct@?$allocator@UTooltipAlloc@ioBasicTooltipManager@@@std@@QAEXPAUTooltipAlloc@ioBasicTooltipManager@@ABU34@@Z ENDP ; std::allocator<ioBasicTooltipManager::TooltipAlloc>::construct
_TEXT	ENDS
PUBLIC	??_C@_0BE@JONHPENG@map?1set?$DMT?$DO?5too?5long?$AA@ ; `string'
PUBLIC	?_Insert@?$_Tree@V?$_Tmap_traits@KUTooltipAlloc@ioBasicTooltipManager@@U?$less@K@std@@V?$allocator@U?$pair@$$CBKUTooltipAlloc@ioBasicTooltipManager@@@std@@@4@$0A@@std@@@std@@IAE?AV?$_Tree_iterator@V?$_Tree_val@V?$_Tmap_traits@KUTooltipAlloc@ioBasicTooltipManager@@U?$less@K@std@@V?$allocator@U?$pair@$$CBKUTooltipAlloc@ioBasicTooltipManager@@@std@@@4@$0A@@std@@@std@@@2@_NPAU_Node@?$_Tree_nod@V?$_Tmap_traits@KUTooltipAlloc@ioBasicTooltipManager@@U?$less@K@std@@V?$allocator@U?$pair@$$CBKUTooltipAlloc@ioBasicTooltipManager@@@std@@@4@$0A@@std@@@2@1@Z ; std::_Tree<std::_Tmap_traits<unsigned long,ioBasicTooltipManager::TooltipAlloc,std::less<unsigned long>,std::allocator<std::pair<unsigned long const ,ioBasicTooltipManager::TooltipAlloc> >,0> >::_Insert
;	COMDAT ??_C@_0BE@JONHPENG@map?1set?$DMT?$DO?5too?5long?$AA@
; File c:\program files (x86)\microsoft visual studio 10.0\vc\include\xutility
CONST	SEGMENT
??_C@_0BE@JONHPENG@map?1set?$DMT?$DO?5too?5long?$AA@ DB 'map/set<T> too l'
	DB	'ong', 00H					; `string'
; Function compile flags: /Ogsp
; File c:\program files (x86)\microsoft visual studio 10.0\vc\include\xtree
CONST	ENDS
;	COMDAT ?_Insert@?$_Tree@V?$_Tmap_traits@KUTooltipAlloc@ioBasicTooltipManager@@U?$less@K@std@@V?$allocator@U?$pair@$$CBKUTooltipAlloc@ioBasicTooltipManager@@@std@@@4@$0A@@std@@@std@@IAE?AV?$_Tree_iterator@V?$_Tree_val@V?$_Tmap_traits@KUTooltipAlloc@ioBasicTooltipManager@@U?$less@K@std@@V?$allocator@U?$pair@$$CBKUTooltipAlloc@ioBasicTooltipManager@@@std@@@4@$0A@@std@@@std@@@2@_NPAU_Node@?$_Tree_nod@V?$_Tmap_traits@KUTooltipAlloc@ioBasicTooltipManager@@U?$less@K@std@@V?$allocator@U?$pair@$$CBKUTooltipAlloc@ioBasicTooltipManager@@@std@@@4@$0A@@std@@@2@1@Z
_TEXT	SEGMENT
___$ReturnUdt$ = 8					; size = 4
__Addleft$ = 12						; size = 1
__Wherenode$ = 16					; size = 4
__Newnode$ = 20						; size = 4
?_Insert@?$_Tree@V?$_Tmap_traits@KUTooltipAlloc@ioBasicTooltipManager@@U?$less@K@std@@V?$allocator@U?$pair@$$CBKUTooltipAlloc@ioBasicTooltipManager@@@std@@@4@$0A@@std@@@std@@IAE?AV?$_Tree_iterator@V?$_Tree_val@V?$_Tmap_traits@KUTooltipAlloc@ioBasicTooltipManager@@U?$less@K@std@@V?$allocator@U?$pair@$$CBKUTooltipAlloc@ioBasicTooltipManager@@@std@@@4@$0A@@std@@@std@@@2@_NPAU_Node@?$_Tree_nod@V?$_Tmap_traits@KUTooltipAlloc@ioBasicTooltipManager@@U?$less@K@std@@V?$allocator@U?$pair@$$CBKUTooltipAlloc@ioBasicTooltipManager@@@std@@@4@$0A@@std@@@2@1@Z PROC ; std::_Tree<std::_Tmap_traits<unsigned long,ioBasicTooltipManager::TooltipAlloc,std::less<unsigned long>,std::allocator<std::pair<unsigned long const ,ioBasicTooltipManager::TooltipAlloc> >,0> >::_Insert, COMDAT
; _this$ = ecx

; 1631 : 		{	// add node with value next to _Wherenode, to left if _Addleft

  00000	55		 push	 ebp
  00001	8b ec		 mov	 ebp, esp
  00003	53		 push	 ebx
  00004	56		 push	 esi
  00005	57		 push	 edi
  00006	8b f9		 mov	 edi, ecx

; 1632 : 		if (max_size() - 1 <= this->_Mysize)

  00008	8b 47 08	 mov	 eax, DWORD PTR [edi+8]
  0000b	3d c6 71 1c 07	 cmp	 eax, 119304646		; 071c71c6H
  00010	72 20		 jb	 SHORT $LN17@Insert

; 1633 : 			{	// tree would get too big, fail
; 1634 : 			_Dest_val(this->_Alval,
; 1635 : 				_STD addressof(this->_Myval(_Newnode)));

  00012	8b 75 14	 mov	 esi, DWORD PTR __Newnode$[ebp]
  00015	6a 00		 push	 0
  00017	8d 4e 0c	 lea	 ecx, DWORD PTR [esi+12]
  0001a	e8 00 00 00 00	 call	 ??_G?$pair@$$CBKUTooltipAlloc@ioBasicTooltipManager@@@std@@QAEPAXI@Z

; 1636 : 
; 1637 : 			this->_Alnod.deallocate(_Newnode, 1);

  0001f	56		 push	 esi
  00020	e8 00 00 00 00	 call	 ??3@YAXPAX@Z		; operator delete

; 1638 : 
; 1639 : 			_Xlength_error("map/set<T> too long");

  00025	c7 04 24 00 00
	00 00		 mov	 DWORD PTR [esp], OFFSET ??_C@_0BE@JONHPENG@map?1set?$DMT?$DO?5too?5long?$AA@
  0002c	ff 15 00 00 00
	00		 call	 DWORD PTR __imp_?_Xlength_error@std@@YAXPBD@Z
$LN188@Insert:
$LN17@Insert:

; 1640 : 			}
; 1641 : 		++this->_Mysize;
; 1642 : 		_Newnode->_Parent = _Wherenode;

  00032	8b 5d 14	 mov	 ebx, DWORD PTR __Newnode$[ebp]
  00035	40		 inc	 eax
  00036	89 47 08	 mov	 DWORD PTR [edi+8], eax
  00039	8b 45 10	 mov	 eax, DWORD PTR __Wherenode$[ebp]
  0003c	89 43 04	 mov	 DWORD PTR [ebx+4], eax

; 1643 : 
; 1644 : 		if (_Wherenode == this->_Myhead)

  0003f	8b 4f 04	 mov	 ecx, DWORD PTR [edi+4]
  00042	3b c1		 cmp	 eax, ecx
  00044	75 10		 jne	 SHORT $LN16@Insert

; 1645 : 			{	// first node in tree, just set head values
; 1646 : 			_Root() = _Newnode;

  00046	89 59 04	 mov	 DWORD PTR [ecx+4], ebx

; 1647 : 			_Lmost() = _Newnode;

  00049	8b 47 04	 mov	 eax, DWORD PTR [edi+4]
  0004c	89 18		 mov	 DWORD PTR [eax], ebx

; 1648 : 			_Rmost() = _Newnode;

  0004e	8b 47 04	 mov	 eax, DWORD PTR [edi+4]
  00051	89 58 08	 mov	 DWORD PTR [eax+8], ebx
  00054	eb 21		 jmp	 SHORT $LN11@Insert
$LN16@Insert:

; 1649 : 			}
; 1650 : 		else if (_Addleft)

  00056	80 7d 0c 00	 cmp	 BYTE PTR __Addleft$[ebp], 0
  0005a	74 0d		 je	 SHORT $LN14@Insert

; 1651 : 			{	// add to left of _Wherenode
; 1652 : 			this->_Left(_Wherenode) = _Newnode;

  0005c	89 18		 mov	 DWORD PTR [eax], ebx

; 1653 : 			if (_Wherenode == _Lmost())

  0005e	8b 4f 04	 mov	 ecx, DWORD PTR [edi+4]
  00061	3b 01		 cmp	 eax, DWORD PTR [ecx]
  00063	75 12		 jne	 SHORT $LN11@Insert

; 1654 : 				_Lmost() = _Newnode;

  00065	89 19		 mov	 DWORD PTR [ecx], ebx

; 1655 : 			}
; 1656 : 		else

  00067	eb 0e		 jmp	 SHORT $LN11@Insert
$LN14@Insert:

; 1657 : 			{	// add to right of _Wherenode
; 1658 : 			this->_Right(_Wherenode) = _Newnode;

  00069	89 58 08	 mov	 DWORD PTR [eax+8], ebx

; 1659 : 			if (_Wherenode == _Rmost())

  0006c	8b 4f 04	 mov	 ecx, DWORD PTR [edi+4]
  0006f	3b 41 08	 cmp	 eax, DWORD PTR [ecx+8]
  00072	75 03		 jne	 SHORT $LN11@Insert

; 1660 : 				_Rmost() = _Newnode;

  00074	89 59 08	 mov	 DWORD PTR [ecx+8], ebx
$LN11@Insert:

; 1661 : 			}
; 1662 : 
; 1663 : 		for (_Nodeptr _Pnode = _Newnode;
; 1664 : 			this->_Color(this->_Parent(_Pnode)) == this->_Red; )

  00077	8b 43 04	 mov	 eax, DWORD PTR [ebx+4]
  0007a	8b f3		 mov	 esi, ebx
  0007c	e9 93 00 00 00	 jmp	 $LN186@Insert
$LL10@Insert:

; 1665 : 			if (this->_Parent(_Pnode)
; 1666 : 				== this->_Left(this->_Parent(this->_Parent(_Pnode))))

  00081	8b 46 04	 mov	 eax, DWORD PTR [esi+4]
  00084	8b 48 04	 mov	 ecx, DWORD PTR [eax+4]
  00087	3b 01		 cmp	 eax, DWORD PTR [ecx]
  00089	75 38		 jne	 SHORT $LN8@Insert

; 1667 : 				{	// fixup red-red in left subtree
; 1668 : 				_Wherenode =
; 1669 : 					this->_Right(this->_Parent(this->_Parent(_Pnode)));

  0008b	8b 49 08	 mov	 ecx, DWORD PTR [ecx+8]

; 1670 : 				if (this->_Color(_Wherenode) == this->_Red)

  0008e	80 79 30 00	 cmp	 BYTE PTR [ecx+48], 0

; 1671 : 					{	// parent has two red children, blacken both
; 1672 : 					this->_Color(this->_Parent(_Pnode)) = this->_Black;
; 1673 : 					this->_Color(_Wherenode) = this->_Black;
; 1674 : 					this->_Color(this->_Parent(this->_Parent(_Pnode)))
; 1675 : 						= this->_Red;
; 1676 : 					_Pnode = this->_Parent(this->_Parent(_Pnode));
; 1677 : 					}
; 1678 : 				else

  00092	74 37		 je	 SHORT $LN187@Insert

; 1679 : 					{	// parent has red and black children
; 1680 : 					if (_Pnode == this->_Right(this->_Parent(_Pnode)))

  00094	3b 70 08	 cmp	 esi, DWORD PTR [eax+8]
  00097	75 0a		 jne	 SHORT $LN5@Insert

; 1681 : 						{	// rotate right child to left
; 1682 : 						_Pnode = this->_Parent(_Pnode);

  00099	8b f0		 mov	 esi, eax

; 1683 : 						_Lrotate(_Pnode);

  0009b	56		 push	 esi
  0009c	8b cf		 mov	 ecx, edi
  0009e	e8 00 00 00 00	 call	 ?_Lrotate@?$_Tree@V?$_Tmap_traits@KUTooltipAlloc@ioBasicTooltipManager@@U?$less@K@std@@V?$allocator@U?$pair@$$CBKUTooltipAlloc@ioBasicTooltipManager@@@std@@@4@$0A@@std@@@std@@IAEXPAU_Node@?$_Tree_nod@V?$_Tmap_traits@KUTooltipAlloc@ioBasicTooltipManager@@U?$less@K@std@@V?$allocator@U?$pair@$$CBKUTooltipAlloc@ioBasicTooltipManager@@@std@@@4@$0A@@std@@@2@@Z ; std::_Tree<std::_Tmap_traits<unsigned long,ioBasicTooltipManager::TooltipAlloc,std::less<unsigned long>,std::allocator<std::pair<unsigned long const ,ioBasicTooltipManager::TooltipAlloc> >,0> >::_Lrotate
$LN5@Insert:

; 1684 : 						}
; 1685 : 					this->_Color(this->_Parent(_Pnode)) =
; 1686 : 						this->_Black;	// propagate red up

  000a3	8b 46 04	 mov	 eax, DWORD PTR [esi+4]
  000a6	c6 40 30 01	 mov	 BYTE PTR [eax+48], 1

; 1687 : 					this->_Color(this->_Parent(this->_Parent(_Pnode))) =
; 1688 : 						this->_Red;

  000aa	8b 46 04	 mov	 eax, DWORD PTR [esi+4]
  000ad	8b 40 04	 mov	 eax, DWORD PTR [eax+4]
  000b0	c6 40 30 00	 mov	 BYTE PTR [eax+48], 0

; 1689 : 					_Rrotate(this->_Parent(this->_Parent(_Pnode)));

  000b4	8b 46 04	 mov	 eax, DWORD PTR [esi+4]
  000b7	ff 70 04	 push	 DWORD PTR [eax+4]
  000ba	8b cf		 mov	 ecx, edi
  000bc	e8 00 00 00 00	 call	 ?_Rrotate@?$_Tree@V?$_Tmap_traits@KUTooltipAlloc@ioBasicTooltipManager@@U?$less@K@std@@V?$allocator@U?$pair@$$CBKUTooltipAlloc@ioBasicTooltipManager@@@std@@@4@$0A@@std@@@std@@IAEXPAU_Node@?$_Tree_nod@V?$_Tmap_traits@KUTooltipAlloc@ioBasicTooltipManager@@U?$less@K@std@@V?$allocator@U?$pair@$$CBKUTooltipAlloc@ioBasicTooltipManager@@@std@@@4@$0A@@std@@@2@@Z ; std::_Tree<std::_Tmap_traits<unsigned long,ioBasicTooltipManager::TooltipAlloc,std::less<unsigned long>,std::allocator<std::pair<unsigned long const ,ioBasicTooltipManager::TooltipAlloc> >,0> >::_Rrotate

; 1690 : 					}
; 1691 : 				}
; 1692 : 			else

  000c1	eb 4e		 jmp	 SHORT $LN2@Insert
$LN8@Insert:

; 1693 : 				{	// fixup red-red in right subtree
; 1694 : 				_Wherenode =
; 1695 : 					this->_Left(this->_Parent(this->_Parent(_Pnode)));

  000c3	8b 09		 mov	 ecx, DWORD PTR [ecx]

; 1696 : 				if (this->_Color(_Wherenode) == this->_Red)

  000c5	80 79 30 00	 cmp	 BYTE PTR [ecx+48], 0
  000c9	75 1a		 jne	 SHORT $LN3@Insert
$LN187@Insert:

; 1697 : 					{	// parent has two red children, blacken both
; 1698 : 					this->_Color(this->_Parent(_Pnode)) = this->_Black;

  000cb	c6 40 30 01	 mov	 BYTE PTR [eax+48], 1

; 1699 : 					this->_Color(_Wherenode) = this->_Black;

  000cf	c6 41 30 01	 mov	 BYTE PTR [ecx+48], 1

; 1700 : 					this->_Color(this->_Parent(this->_Parent(_Pnode))) =
; 1701 : 						this->_Red;

  000d3	8b 46 04	 mov	 eax, DWORD PTR [esi+4]
  000d6	8b 40 04	 mov	 eax, DWORD PTR [eax+4]
  000d9	c6 40 30 00	 mov	 BYTE PTR [eax+48], 0

; 1702 : 					_Pnode = this->_Parent(this->_Parent(_Pnode));

  000dd	8b 46 04	 mov	 eax, DWORD PTR [esi+4]
  000e0	8b 70 04	 mov	 esi, DWORD PTR [eax+4]

; 1703 : 					}
; 1704 : 				else

  000e3	eb 2c		 jmp	 SHORT $LN2@Insert
$LN3@Insert:

; 1705 : 					{	// parent has red and black children
; 1706 : 					if (_Pnode == this->_Left(this->_Parent(_Pnode)))

  000e5	3b 30		 cmp	 esi, DWORD PTR [eax]
  000e7	75 0a		 jne	 SHORT $LN1@Insert

; 1707 : 						{	// rotate left child to right
; 1708 : 						_Pnode = this->_Parent(_Pnode);

  000e9	8b f0		 mov	 esi, eax

; 1709 : 						_Rrotate(_Pnode);

  000eb	56		 push	 esi
  000ec	8b cf		 mov	 ecx, edi
  000ee	e8 00 00 00 00	 call	 ?_Rrotate@?$_Tree@V?$_Tmap_traits@KUTooltipAlloc@ioBasicTooltipManager@@U?$less@K@std@@V?$allocator@U?$pair@$$CBKUTooltipAlloc@ioBasicTooltipManager@@@std@@@4@$0A@@std@@@std@@IAEXPAU_Node@?$_Tree_nod@V?$_Tmap_traits@KUTooltipAlloc@ioBasicTooltipManager@@U?$less@K@std@@V?$allocator@U?$pair@$$CBKUTooltipAlloc@ioBasicTooltipManager@@@std@@@4@$0A@@std@@@2@@Z ; std::_Tree<std::_Tmap_traits<unsigned long,ioBasicTooltipManager::TooltipAlloc,std::less<unsigned long>,std::allocator<std::pair<unsigned long const ,ioBasicTooltipManager::TooltipAlloc> >,0> >::_Rrotate
$LN1@Insert:

; 1710 : 						}
; 1711 : 					this->_Color(this->_Parent(_Pnode)) =
; 1712 : 						this->_Black;	// propagate red up

  000f3	8b 46 04	 mov	 eax, DWORD PTR [esi+4]
  000f6	c6 40 30 01	 mov	 BYTE PTR [eax+48], 1

; 1713 : 					this->_Color(this->_Parent(this->_Parent(_Pnode))) =
; 1714 : 						this->_Red;

  000fa	8b 46 04	 mov	 eax, DWORD PTR [esi+4]
  000fd	8b 40 04	 mov	 eax, DWORD PTR [eax+4]
  00100	c6 40 30 00	 mov	 BYTE PTR [eax+48], 0

; 1715 : 					_Lrotate(this->_Parent(this->_Parent(_Pnode)));

  00104	8b 46 04	 mov	 eax, DWORD PTR [esi+4]
  00107	ff 70 04	 push	 DWORD PTR [eax+4]
  0010a	8b cf		 mov	 ecx, edi
  0010c	e8 00 00 00 00	 call	 ?_Lrotate@?$_Tree@V?$_Tmap_traits@KUTooltipAlloc@ioBasicTooltipManager@@U?$less@K@std@@V?$allocator@U?$pair@$$CBKUTooltipAlloc@ioBasicTooltipManager@@@std@@@4@$0A@@std@@@std@@IAEXPAU_Node@?$_Tree_nod@V?$_Tmap_traits@KUTooltipAlloc@ioBasicTooltipManager@@U?$less@K@std@@V?$allocator@U?$pair@$$CBKUTooltipAlloc@ioBasicTooltipManager@@@std@@@4@$0A@@std@@@2@@Z ; std::_Tree<std::_Tmap_traits<unsigned long,ioBasicTooltipManager::TooltipAlloc,std::less<unsigned long>,std::allocator<std::pair<unsigned long const ,ioBasicTooltipManager::TooltipAlloc> >,0> >::_Lrotate
$LN2@Insert:

; 1661 : 			}
; 1662 : 
; 1663 : 		for (_Nodeptr _Pnode = _Newnode;
; 1664 : 			this->_Color(this->_Parent(_Pnode)) == this->_Red; )

  00111	8b 46 04	 mov	 eax, DWORD PTR [esi+4]
$LN186@Insert:
  00114	80 78 30 00	 cmp	 BYTE PTR [eax+48], 0
  00118	0f 84 63 ff ff
	ff		 je	 $LL10@Insert

; 1716 : 					}
; 1717 : 				}
; 1718 : 
; 1719 : 		this->_Color(_Root()) = this->_Black;	// root is always black

  0011e	8b 47 04	 mov	 eax, DWORD PTR [edi+4]
  00121	8b 40 04	 mov	 eax, DWORD PTR [eax+4]
  00124	5f		 pop	 edi
  00125	c6 40 30 01	 mov	 BYTE PTR [eax+48], 1

; 1720 : 		return (iterator(_Newnode, this));

  00129	8b 45 08	 mov	 eax, DWORD PTR ___$ReturnUdt$[ebp]
  0012c	5e		 pop	 esi
  0012d	89 18		 mov	 DWORD PTR [eax], ebx
  0012f	5b		 pop	 ebx

; 1721 : 		}

  00130	5d		 pop	 ebp
  00131	c2 10 00	 ret	 16			; 00000010H
$LN185@Insert:
?_Insert@?$_Tree@V?$_Tmap_traits@KUTooltipAlloc@ioBasicTooltipManager@@U?$less@K@std@@V?$allocator@U?$pair@$$CBKUTooltipAlloc@ioBasicTooltipManager@@@std@@@4@$0A@@std@@@std@@IAE?AV?$_Tree_iterator@V?$_Tree_val@V?$_Tmap_traits@KUTooltipAlloc@ioBasicTooltipManager@@U?$less@K@std@@V?$allocator@U?$pair@$$CBKUTooltipAlloc@ioBasicTooltipManager@@@std@@@4@$0A@@std@@@std@@@2@_NPAU_Node@?$_Tree_nod@V?$_Tmap_traits@KUTooltipAlloc@ioBasicTooltipManager@@U?$less@K@std@@V?$allocator@U?$pair@$$CBKUTooltipAlloc@ioBasicTooltipManager@@@std@@@4@$0A@@std@@@2@1@Z ENDP ; std::_Tree<std::_Tmap_traits<unsigned long,ioBasicTooltipManager::TooltipAlloc,std::less<unsigned long>,std::allocator<std::pair<unsigned long const ,ioBasicTooltipManager::TooltipAlloc> >,0> >::_Insert
_TEXT	ENDS
PUBLIC	??$_Move@PAUTooltipAlloc@ioBasicTooltipManager@@PAU12@@std@@YAPAUTooltipAlloc@ioBasicTooltipManager@@PAU12@00U_Nonscalar_ptr_iterator_tag@0@@Z ; std::_Move<ioBasicTooltipManager::TooltipAlloc *,ioBasicTooltipManager::TooltipAlloc *>
; Function compile flags: /Ogsp
; File c:\program files (x86)\microsoft visual studio 10.0\vc\include\xutility
;	COMDAT ??$_Move@PAUTooltipAlloc@ioBasicTooltipManager@@PAU12@@std@@YAPAUTooltipAlloc@ioBasicTooltipManager@@PAU12@00U_Nonscalar_ptr_iterator_tag@0@@Z
_TEXT	SEGMENT
__First$ = 8						; size = 4
__Last$ = 12						; size = 4
__Dest$ = 16						; size = 4
___formal$ = 20						; size = 1
??$_Move@PAUTooltipAlloc@ioBasicTooltipManager@@PAU12@@std@@YAPAUTooltipAlloc@ioBasicTooltipManager@@PAU12@00U_Nonscalar_ptr_iterator_tag@0@@Z PROC ; std::_Move<ioBasicTooltipManager::TooltipAlloc *,ioBasicTooltipManager::TooltipAlloc *>, COMDAT

; 2512 : 	{	// move [_First, _Last) to [_Dest, ...), arbitrary iterators

  00000	55		 push	 ebp
  00001	8b ec		 mov	 ebp, esp
  00003	56		 push	 esi

; 2513 : 	for (; _First != _Last; ++_Dest, ++_First)

  00004	8b 75 08	 mov	 esi, DWORD PTR __First$[ebp]
  00007	eb 1d		 jmp	 SHORT $LN17@Move
$LL3@Move:

; 2514 : 		*_Dest = _STD move(*_First);

  00009	8b 4d 10	 mov	 ecx, DWORD PTR __Dest$[ebp]
  0000c	6a ff		 push	 -1
  0000e	6a 00		 push	 0
  00010	56		 push	 esi
  00011	e8 00 00 00 00	 call	 ?assign@?$basic_string@DU?$char_traits@D@std@@V?$allocator@D@2@@std@@QAEAAV12@ABV12@II@Z ; std::basic_string<char,std::char_traits<char>,std::allocator<char> >::assign
  00016	8b 46 1c	 mov	 eax, DWORD PTR [esi+28]
  00019	8b 4d 10	 mov	 ecx, DWORD PTR __Dest$[ebp]
  0001c	83 45 10 20	 add	 DWORD PTR __Dest$[ebp], 32 ; 00000020H
  00020	89 41 1c	 mov	 DWORD PTR [ecx+28], eax
  00023	83 c6 20	 add	 esi, 32			; 00000020H
$LN17@Move:

; 2513 : 	for (; _First != _Last; ++_Dest, ++_First)

  00026	3b 75 0c	 cmp	 esi, DWORD PTR __Last$[ebp]
  00029	75 de		 jne	 SHORT $LL3@Move

; 2515 : 	return (_Dest);

  0002b	8b 45 10	 mov	 eax, DWORD PTR __Dest$[ebp]
  0002e	5e		 pop	 esi

; 2516 : 	}

  0002f	5d		 pop	 ebp
  00030	c3		 ret	 0
??$_Move@PAUTooltipAlloc@ioBasicTooltipManager@@PAU12@@std@@YAPAUTooltipAlloc@ioBasicTooltipManager@@PAU12@00U_Nonscalar_ptr_iterator_tag@0@@Z ENDP ; std::_Move<ioBasicTooltipManager::TooltipAlloc *,ioBasicTooltipManager::TooltipAlloc *>
_TEXT	ENDS
PUBLIC	??$_Destroy_range@V?$allocator@UTooltipAlloc@ioBasicTooltipManager@@@std@@@std@@YAXPAUTooltipAlloc@ioBasicTooltipManager@@0AAV?$allocator@UTooltipAlloc@ioBasicTooltipManager@@@0@U_Nonscalar_ptr_iterator_tag@0@@Z ; std::_Destroy_range<std::allocator<ioBasicTooltipManager::TooltipAlloc> >
; Function compile flags: /Ogsp
; File c:\program files (x86)\microsoft visual studio 10.0\vc\include\xmemory
;	COMDAT ??$_Destroy_range@V?$allocator@UTooltipAlloc@ioBasicTooltipManager@@@std@@@std@@YAXPAUTooltipAlloc@ioBasicTooltipManager@@0AAV?$allocator@UTooltipAlloc@ioBasicTooltipManager@@@0@U_Nonscalar_ptr_iterator_tag@0@@Z
_TEXT	SEGMENT
__First$ = 8						; size = 4
__Last$ = 12						; size = 4
__Al$ = 16						; size = 4
___formal$ = 20						; size = 1
??$_Destroy_range@V?$allocator@UTooltipAlloc@ioBasicTooltipManager@@@std@@@std@@YAXPAUTooltipAlloc@ioBasicTooltipManager@@0AAV?$allocator@UTooltipAlloc@ioBasicTooltipManager@@@0@U_Nonscalar_ptr_iterator_tag@0@@Z PROC ; std::_Destroy_range<std::allocator<ioBasicTooltipManager::TooltipAlloc> >, COMDAT

; 95   : 	{	// destroy [_First, _Last), arbitrary type

  00000	55		 push	 ebp
  00001	8b ec		 mov	 ebp, esp
  00003	56		 push	 esi

; 96   : 	for (; _First != _Last; ++_First)

  00004	8b 75 08	 mov	 esi, DWORD PTR __First$[ebp]
  00007	eb 0e		 jmp	 SHORT $LN23@Destroy_ra
$LL3@Destroy_ra:

; 97   : 		_Dest_val(_Al, _First);

  00009	6a 00		 push	 0
  0000b	6a 01		 push	 1
  0000d	8b ce		 mov	 ecx, esi
  0000f	e8 00 00 00 00	 call	 ?_Tidy@?$basic_string@DU?$char_traits@D@std@@V?$allocator@D@2@@std@@QAEX_NI@Z ; std::basic_string<char,std::char_traits<char>,std::allocator<char> >::_Tidy
  00014	83 c6 20	 add	 esi, 32			; 00000020H
$LN23@Destroy_ra:

; 96   : 	for (; _First != _Last; ++_First)

  00017	3b 75 0c	 cmp	 esi, DWORD PTR __Last$[ebp]
  0001a	75 ed		 jne	 SHORT $LL3@Destroy_ra
  0001c	5e		 pop	 esi

; 98   : 	}

  0001d	5d		 pop	 ebp
  0001e	c3		 ret	 0
??$_Destroy_range@V?$allocator@UTooltipAlloc@ioBasicTooltipManager@@@std@@@std@@YAXPAUTooltipAlloc@ioBasicTooltipManager@@0AAV?$allocator@UTooltipAlloc@ioBasicTooltipManager@@@0@U_Nonscalar_ptr_iterator_tag@0@@Z ENDP ; std::_Destroy_range<std::allocator<ioBasicTooltipManager::TooltipAlloc> >
_TEXT	ENDS
PUBLIC	??$_Uninit_move@PAUTooltipAlloc@ioBasicTooltipManager@@PAU12@V?$allocator@UTooltipAlloc@ioBasicTooltipManager@@@std@@U12@@std@@YAPAUTooltipAlloc@ioBasicTooltipManager@@PAU12@00AAV?$allocator@UTooltipAlloc@ioBasicTooltipManager@@@0@0U_Nonscalar_ptr_iterator_tag@0@@Z ; std::_Uninit_move<ioBasicTooltipManager::TooltipAlloc *,ioBasicTooltipManager::TooltipAlloc *,std::allocator<ioBasicTooltipManager::TooltipAlloc>,ioBasicTooltipManager::TooltipAlloc>
;	COMDAT xdata$x
; File c:\program files (x86)\microsoft visual studio 10.0\vc\include\xstring
xdata$x	SEGMENT
__catchsym$??$_Uninit_move@PAUTooltipAlloc@ioBasicTooltipManager@@PAU12@V?$allocator@UTooltipAlloc@ioBasicTooltipManager@@@std@@U12@@std@@YAPAUTooltipAlloc@ioBasicTooltipManager@@PAU12@00AAV?$allocator@UTooltipAlloc@ioBasicTooltipManager@@@0@0U_Nonscalar_ptr_iterator_tag@0@@Z$2 DD 040H
	DD	00H
	DD	00H
	DD	FLAT:__catch$??$_Uninit_move@PAUTooltipAlloc@ioBasicTooltipManager@@PAU12@V?$allocator@UTooltipAlloc@ioBasicTooltipManager@@@std@@U12@@std@@YAPAUTooltipAlloc@ioBasicTooltipManager@@PAU12@00AAV?$allocator@UTooltipAlloc@ioBasicTooltipManager@@@0@0U_Nonscalar_ptr_iterator_tag@0@@Z$0
__unwindtable$??$_Uninit_move@PAUTooltipAlloc@ioBasicTooltipManager@@PAU12@V?$allocator@UTooltipAlloc@ioBasicTooltipManager@@@std@@U12@@std@@YAPAUTooltipAlloc@ioBasicTooltipManager@@PAU12@00AAV?$allocator@UTooltipAlloc@ioBasicTooltipManager@@@0@0U_Nonscalar_ptr_iterator_tag@0@@Z DD 0ffffffffH
	DD	00H
	DD	0ffffffffH
	DD	00H
__tryblocktable$??$_Uninit_move@PAUTooltipAlloc@ioBasicTooltipManager@@PAU12@V?$allocator@UTooltipAlloc@ioBasicTooltipManager@@@std@@U12@@std@@YAPAUTooltipAlloc@ioBasicTooltipManager@@PAU12@00AAV?$allocator@UTooltipAlloc@ioBasicTooltipManager@@@0@0U_Nonscalar_ptr_iterator_tag@0@@Z DD 00H
	DD	00H
	DD	01H
	DD	01H
	DD	FLAT:__catchsym$??$_Uninit_move@PAUTooltipAlloc@ioBasicTooltipManager@@PAU12@V?$allocator@UTooltipAlloc@ioBasicTooltipManager@@@std@@U12@@std@@YAPAUTooltipAlloc@ioBasicTooltipManager@@PAU12@00AAV?$allocator@UTooltipAlloc@ioBasicTooltipManager@@@0@0U_Nonscalar_ptr_iterator_tag@0@@Z$2
__ehfuncinfo$??$_Uninit_move@PAUTooltipAlloc@ioBasicTooltipManager@@PAU12@V?$allocator@UTooltipAlloc@ioBasicTooltipManager@@@std@@U12@@std@@YAPAUTooltipAlloc@ioBasicTooltipManager@@PAU12@00AAV?$allocator@UTooltipAlloc@ioBasicTooltipManager@@@0@0U_Nonscalar_ptr_iterator_tag@0@@Z DD 019930522H
	DD	02H
	DD	FLAT:__unwindtable$??$_Uninit_move@PAUTooltipAlloc@ioBasicTooltipManager@@PAU12@V?$allocator@UTooltipAlloc@ioBasicTooltipManager@@@std@@U12@@std@@YAPAUTooltipAlloc@ioBasicTooltipManager@@PAU12@00AAV?$allocator@UTooltipAlloc@ioBasicTooltipManager@@@0@0U_Nonscalar_ptr_iterator_tag@0@@Z
	DD	01H
	DD	FLAT:__tryblocktable$??$_Uninit_move@PAUTooltipAlloc@ioBasicTooltipManager@@PAU12@V?$allocator@UTooltipAlloc@ioBasicTooltipManager@@@std@@U12@@std@@YAPAUTooltipAlloc@ioBasicTooltipManager@@PAU12@00AAV?$allocator@UTooltipAlloc@ioBasicTooltipManager@@@0@0U_Nonscalar_ptr_iterator_tag@0@@Z
	DD	2 DUP(00H)
	DD	00H
	DD	01H
; Function compile flags: /Ogsp
; File c:\program files (x86)\microsoft visual studio 10.0\vc\include\memory
xdata$x	ENDS
;	COMDAT ??$_Uninit_move@PAUTooltipAlloc@ioBasicTooltipManager@@PAU12@V?$allocator@UTooltipAlloc@ioBasicTooltipManager@@@std@@U12@@std@@YAPAUTooltipAlloc@ioBasicTooltipManager@@PAU12@00AAV?$allocator@UTooltipAlloc@ioBasicTooltipManager@@@0@0U_Nonscalar_ptr_iterator_tag@0@@Z
_TEXT	SEGMENT
__Next$ = -20						; size = 4
__$EHRec$ = -16						; size = 16
__First$ = 8						; size = 4
__Last$ = 12						; size = 4
__Dest$ = 16						; size = 4
__Al$ = 20						; size = 4
___formal$ = 24						; size = 4
___formal$ = 28						; size = 1
??$_Uninit_move@PAUTooltipAlloc@ioBasicTooltipManager@@PAU12@V?$allocator@UTooltipAlloc@ioBasicTooltipManager@@@std@@U12@@std@@YAPAUTooltipAlloc@ioBasicTooltipManager@@PAU12@00AAV?$allocator@UTooltipAlloc@ioBasicTooltipManager@@@0@0U_Nonscalar_ptr_iterator_tag@0@@Z PROC ; std::_Uninit_move<ioBasicTooltipManager::TooltipAlloc *,ioBasicTooltipManager::TooltipAlloc *,std::allocator<ioBasicTooltipManager::TooltipAlloc>,ioBasicTooltipManager::TooltipAlloc>, COMDAT

; 424  : 	{	// move [_First, _Last) to raw _Dest, using _Al, arbitrary type

  00000	6a 08		 push	 8
  00002	b8 00 00 00 00	 mov	 eax, __ehhandler$??$_Uninit_move@PAUTooltipAlloc@ioBasicTooltipManager@@PAU12@V?$allocator@UTooltipAlloc@ioBasicTooltipManager@@@std@@U12@@std@@YAPAUTooltipAlloc@ioBasicTooltipManager@@PAU12@00AAV?$allocator@UTooltipAlloc@ioBasicTooltipManager@@@0@0U_Nonscalar_ptr_iterator_tag@0@@Z
  00007	e8 00 00 00 00	 call	 __EH_prolog3_catch

; 425  : 	_DEBUG_RANGE(_First, _Last);
; 426  : 	_DEBUG_POINTER(_Dest);
; 427  : 	_FwdIt _Next = _Dest;

  0000c	8b 45 10	 mov	 eax, DWORD PTR __Dest$[ebp]

; 428  : 
; 429  : 	_TRY_BEGIN

  0000f	83 65 fc 00	 and	 DWORD PTR __$EHRec$[ebp+12], 0
  00013	8b 75 08	 mov	 esi, DWORD PTR __First$[ebp]
  00016	89 45 ec	 mov	 DWORD PTR __Next$[ebp], eax
$LL6@Uninit_mov:

; 430  : 	for (; _First != _Last; ++_Dest, ++_First)

  00019	3b 75 0c	 cmp	 esi, DWORD PTR __Last$[ebp]
  0001c	74 34		 je	 SHORT $LN4@Uninit_mov

; 431  : 		_Cons_val(_Al, _Dest, (_Valty &&)*_First);

  0001e	8b 4d 14	 mov	 ecx, DWORD PTR __Al$[ebp]
  00021	56		 push	 esi
  00022	ff 75 10	 push	 DWORD PTR __Dest$[ebp]
  00025	e8 00 00 00 00	 call	 ?construct@?$allocator@UTooltipAlloc@ioBasicTooltipManager@@@std@@QAEXPAUTooltipAlloc@ioBasicTooltipManager@@$$QAU34@@Z ; std::allocator<ioBasicTooltipManager::TooltipAlloc>::construct
  0002a	83 45 10 20	 add	 DWORD PTR __Dest$[ebp], 32 ; 00000020H
  0002e	83 c6 20	 add	 esi, 32			; 00000020H
  00031	eb e6		 jmp	 SHORT $LL6@Uninit_mov
__catch$??$_Uninit_move@PAUTooltipAlloc@ioBasicTooltipManager@@PAU12@V?$allocator@UTooltipAlloc@ioBasicTooltipManager@@@std@@U12@@std@@YAPAUTooltipAlloc@ioBasicTooltipManager@@PAU12@00AAV?$allocator@UTooltipAlloc@ioBasicTooltipManager@@@0@0U_Nonscalar_ptr_iterator_tag@0@@Z$0:

; 432  : 	_CATCH_ALL
; 433  : 	for (; _Next != _Dest; ++_Next)

  00033	8b 75 ec	 mov	 esi, DWORD PTR __Next$[ebp]
  00036	eb 0c		 jmp	 SHORT $LN40@Uninit_mov
$LL3@Uninit_mov:

; 434  : 		_Dest_val(_Al, _Next);

  00038	6a 01		 push	 1
  0003a	8b ce		 mov	 ecx, esi
  0003c	e8 00 00 00 00	 call	 ?_Tidy@?$basic_string@DU?$char_traits@D@std@@V?$allocator@D@2@@std@@QAEX_NI@Z ; std::basic_string<char,std::char_traits<char>,std::allocator<char> >::_Tidy
  00041	83 c6 20	 add	 esi, 32			; 00000020H
$LN40@Uninit_mov:

; 435  : 	_RERAISE;

  00044	6a 00		 push	 0
  00046	3b 75 10	 cmp	 esi, DWORD PTR __Dest$[ebp]
  00049	75 ed		 jne	 SHORT $LL3@Uninit_mov
  0004b	6a 00		 push	 0
  0004d	e8 00 00 00 00	 call	 __CxxThrowException@8
$LN41@Uninit_mov:
$LN4@Uninit_mov:

; 436  : 	_CATCH_END
; 437  : 	return (_Dest);

  00052	8b 45 10	 mov	 eax, DWORD PTR __Dest$[ebp]

; 438  : 	}

  00055	e8 00 00 00 00	 call	 __EH_epilog3
  0005a	c3		 ret	 0
$LN39@Uninit_mov:
_TEXT	ENDS
;	COMDAT text$x
text$x	SEGMENT
__ehhandler$??$_Uninit_move@PAUTooltipAlloc@ioBasicTooltipManager@@PAU12@V?$allocator@UTooltipAlloc@ioBasicTooltipManager@@@std@@U12@@std@@YAPAUTooltipAlloc@ioBasicTooltipManager@@PAU12@00AAV?$allocator@UTooltipAlloc@ioBasicTooltipManager@@@0@0U_Nonscalar_ptr_iterator_tag@0@@Z:
  00000	8b 54 24 08	 mov	 edx, DWORD PTR [esp+8]
  00004	8d 42 0c	 lea	 eax, DWORD PTR [edx+12]
  00007	8b 4a e8	 mov	 ecx, DWORD PTR [edx-24]
  0000a	33 c8		 xor	 ecx, eax
  0000c	e8 00 00 00 00	 call	 @__security_check_cookie@4
  00011	b8 00 00 00 00	 mov	 eax, OFFSET __ehfuncinfo$??$_Uninit_move@PAUTooltipAlloc@ioBasicTooltipManager@@PAU12@V?$allocator@UTooltipAlloc@ioBasicTooltipManager@@@std@@U12@@std@@YAPAUTooltipAlloc@ioBasicTooltipManager@@PAU12@00AAV?$allocator@UTooltipAlloc@ioBasicTooltipManager@@@0@0U_Nonscalar_ptr_iterator_tag@0@@Z
  00016	e9 00 00 00 00	 jmp	 ___CxxFrameHandler3
text$x	ENDS
??$_Uninit_move@PAUTooltipAlloc@ioBasicTooltipManager@@PAU12@V?$allocator@UTooltipAlloc@ioBasicTooltipManager@@@std@@U12@@std@@YAPAUTooltipAlloc@ioBasicTooltipManager@@PAU12@00AAV?$allocator@UTooltipAlloc@ioBasicTooltipManager@@@0@0U_Nonscalar_ptr_iterator_tag@0@@Z ENDP ; std::_Uninit_move<ioBasicTooltipManager::TooltipAlloc *,ioBasicTooltipManager::TooltipAlloc *,std::allocator<ioBasicTooltipManager::TooltipAlloc>,ioBasicTooltipManager::TooltipAlloc>
PUBLIC	?construct@?$allocator@U?$pair@$$CBKUTooltipAlloc@ioBasicTooltipManager@@@std@@@std@@QAEXPAU?$pair@$$CBKUTooltipAlloc@ioBasicTooltipManager@@@2@$$QAU32@@Z ; std::allocator<std::pair<unsigned long const ,ioBasicTooltipManager::TooltipAlloc> >::construct
;	COMDAT xdata$x
; File c:\program files (x86)\microsoft visual studio 10.0\vc\include\utility
xdata$x	SEGMENT
__unwindtable$?construct@?$allocator@U?$pair@$$CBKUTooltipAlloc@ioBasicTooltipManager@@@std@@@std@@QAEXPAU?$pair@$$CBKUTooltipAlloc@ioBasicTooltipManager@@@2@$$QAU32@@Z DD 0ffffffffH
	DD	FLAT:__unwindfunclet$?construct@?$allocator@U?$pair@$$CBKUTooltipAlloc@ioBasicTooltipManager@@@std@@@std@@QAEXPAU?$pair@$$CBKUTooltipAlloc@ioBasicTooltipManager@@@2@$$QAU32@@Z$0
__ehfuncinfo$?construct@?$allocator@U?$pair@$$CBKUTooltipAlloc@ioBasicTooltipManager@@@std@@@std@@QAEXPAU?$pair@$$CBKUTooltipAlloc@ioBasicTooltipManager@@@2@$$QAU32@@Z DD 019930522H
	DD	01H
	DD	FLAT:__unwindtable$?construct@?$allocator@U?$pair@$$CBKUTooltipAlloc@ioBasicTooltipManager@@@std@@@std@@QAEXPAU?$pair@$$CBKUTooltipAlloc@ioBasicTooltipManager@@@2@$$QAU32@@Z
	DD	2 DUP(00H)
	DD	2 DUP(00H)
	DD	00H
	DD	01H
; Function compile flags: /Ogsp
; File c:\program files (x86)\microsoft visual studio 10.0\vc\include\xmemory
xdata$x	ENDS
;	COMDAT ?construct@?$allocator@U?$pair@$$CBKUTooltipAlloc@ioBasicTooltipManager@@@std@@@std@@QAEXPAU?$pair@$$CBKUTooltipAlloc@ioBasicTooltipManager@@@2@$$QAU32@@Z
_TEXT	SEGMENT
$T511587 = -16						; size = 4
__$EHRec$ = -12						; size = 12
__Ptr$ = 8						; size = 4
__Val$ = 12						; size = 4
?construct@?$allocator@U?$pair@$$CBKUTooltipAlloc@ioBasicTooltipManager@@@std@@@std@@QAEXPAU?$pair@$$CBKUTooltipAlloc@ioBasicTooltipManager@@@2@$$QAU32@@Z PROC ; std::allocator<std::pair<unsigned long const ,ioBasicTooltipManager::TooltipAlloc> >::construct, COMDAT
; _this$ = ecx

; 201  : 		{	// construct object at _Ptr with value _Val

  00000	6a 04		 push	 4
  00002	b8 00 00 00 00	 mov	 eax, __ehhandler$?construct@?$allocator@U?$pair@$$CBKUTooltipAlloc@ioBasicTooltipManager@@@std@@@std@@QAEXPAU?$pair@$$CBKUTooltipAlloc@ioBasicTooltipManager@@@2@$$QAU32@@Z
  00007	e8 00 00 00 00	 call	 __EH_prolog3

; 202  : 		::new ((void _FARQ *)_Ptr) _Ty(_STD forward<_Ty>(_Val));

  0000c	8b 4d 08	 mov	 ecx, DWORD PTR __Ptr$[ebp]
  0000f	89 4d f0	 mov	 DWORD PTR $T511587[ebp], ecx
  00012	83 65 fc 00	 and	 DWORD PTR __$EHRec$[ebp+8], 0
  00016	85 c9		 test	 ecx, ecx
  00018	74 0d		 je	 SHORT $LN3@construct@3
  0001a	8b 45 0c	 mov	 eax, DWORD PTR __Val$[ebp]
  0001d	8d 50 04	 lea	 edx, DWORD PTR [eax+4]
  00020	52		 push	 edx
  00021	50		 push	 eax
  00022	e8 00 00 00 00	 call	 ??0?$_Pair_base@$$CBKUTooltipAlloc@ioBasicTooltipManager@@@std@@QAE@$$QBK$$QAUTooltipAlloc@ioBasicTooltipManager@@@Z ; std::_Pair_base<unsigned long const ,ioBasicTooltipManager::TooltipAlloc>::_Pair_base<unsigned long const ,ioBasicTooltipManager::TooltipAlloc>
$LN3@construct@3:

; 203  : 		}

  00027	e8 00 00 00 00	 call	 __EH_epilog3
  0002c	c2 08 00	 ret	 8
_TEXT	ENDS
;	COMDAT text$x
text$x	SEGMENT
__unwindfunclet$?construct@?$allocator@U?$pair@$$CBKUTooltipAlloc@ioBasicTooltipManager@@@std@@@std@@QAEXPAU?$pair@$$CBKUTooltipAlloc@ioBasicTooltipManager@@@2@$$QAU32@@Z$0:
  00000	ff 75 08	 push	 DWORD PTR __Ptr$[ebp]
  00003	ff 75 f0	 push	 DWORD PTR $T511587[ebp]
  00006	e8 00 00 00 00	 call	 ??3@YAXPAX0@Z		; operator delete
  0000b	59		 pop	 ecx
  0000c	59		 pop	 ecx
  0000d	c3		 ret	 0
__ehhandler$?construct@?$allocator@U?$pair@$$CBKUTooltipAlloc@ioBasicTooltipManager@@@std@@@std@@QAEXPAU?$pair@$$CBKUTooltipAlloc@ioBasicTooltipManager@@@2@$$QAU32@@Z:
  0000e	8b 54 24 08	 mov	 edx, DWORD PTR [esp+8]
  00012	8d 42 0c	 lea	 eax, DWORD PTR [edx+12]
  00015	8b 4a ec	 mov	 ecx, DWORD PTR [edx-20]
  00018	33 c8		 xor	 ecx, eax
  0001a	e8 00 00 00 00	 call	 @__security_check_cookie@4
  0001f	b8 00 00 00 00	 mov	 eax, OFFSET __ehfuncinfo$?construct@?$allocator@U?$pair@$$CBKUTooltipAlloc@ioBasicTooltipManager@@@std@@@std@@QAEXPAU?$pair@$$CBKUTooltipAlloc@ioBasicTooltipManager@@@2@$$QAU32@@Z
  00024	e9 00 00 00 00	 jmp	 ___CxxFrameHandler3
text$x	ENDS
?construct@?$allocator@U?$pair@$$CBKUTooltipAlloc@ioBasicTooltipManager@@@std@@@std@@QAEXPAU?$pair@$$CBKUTooltipAlloc@ioBasicTooltipManager@@@2@$$QAU32@@Z ENDP ; std::allocator<std::pair<unsigned long const ,ioBasicTooltipManager::TooltipAlloc> >::construct
PUBLIC	??_C@_0BM@PAPJHAGI@invalid?5map?1set?$DMT?$DO?5iterator?$AA@ ; `string'
PUBLIC	?erase@?$_Tree@V?$_Tmap_traits@KUTooltipAlloc@ioBasicTooltipManager@@U?$less@K@std@@V?$allocator@U?$pair@$$CBKUTooltipAlloc@ioBasicTooltipManager@@@std@@@4@$0A@@std@@@std@@QAE?AV?$_Tree_iterator@V?$_Tree_val@V?$_Tmap_traits@KUTooltipAlloc@ioBasicTooltipManager@@U?$less@K@std@@V?$allocator@U?$pair@$$CBKUTooltipAlloc@ioBasicTooltipManager@@@std@@@4@$0A@@std@@@std@@@2@V?$_Tree_const_iterator@V?$_Tree_val@V?$_Tmap_traits@KUTooltipAlloc@ioBasicTooltipManager@@U?$less@K@std@@V?$allocator@U?$pair@$$CBKUTooltipAlloc@ioBasicTooltipManager@@@std@@@4@$0A@@std@@@std@@@2@@Z ; std::_Tree<std::_Tmap_traits<unsigned long,ioBasicTooltipManager::TooltipAlloc,std::less<unsigned long>,std::allocator<std::pair<unsigned long const ,ioBasicTooltipManager::TooltipAlloc> >,0> >::erase
;	COMDAT ??_C@_0BM@PAPJHAGI@invalid?5map?1set?$DMT?$DO?5iterator?$AA@
; File c:\program files (x86)\microsoft visual studio 10.0\vc\include\xutility
CONST	SEGMENT
??_C@_0BM@PAPJHAGI@invalid?5map?1set?$DMT?$DO?5iterator?$AA@ DB 'invalid '
	DB	'map/set<T> iterator', 00H			; `string'
; Function compile flags: /Ogsp
; File c:\program files (x86)\microsoft visual studio 10.0\vc\include\xtree
CONST	ENDS
;	COMDAT ?erase@?$_Tree@V?$_Tmap_traits@KUTooltipAlloc@ioBasicTooltipManager@@U?$less@K@std@@V?$allocator@U?$pair@$$CBKUTooltipAlloc@ioBasicTooltipManager@@@std@@@4@$0A@@std@@@std@@QAE?AV?$_Tree_iterator@V?$_Tree_val@V?$_Tmap_traits@KUTooltipAlloc@ioBasicTooltipManager@@U?$less@K@std@@V?$allocator@U?$pair@$$CBKUTooltipAlloc@ioBasicTooltipManager@@@std@@@4@$0A@@std@@@std@@@2@V?$_Tree_const_iterator@V?$_Tree_val@V?$_Tmap_traits@KUTooltipAlloc@ioBasicTooltipManager@@U?$less@K@std@@V?$allocator@U?$pair@$$CBKUTooltipAlloc@ioBasicTooltipManager@@@std@@@4@$0A@@std@@@std@@@2@@Z
_TEXT	SEGMENT
_this$ = -4						; size = 4
___$ReturnUdt$ = 8					; size = 4
__Where$ = 12						; size = 4
?erase@?$_Tree@V?$_Tmap_traits@KUTooltipAlloc@ioBasicTooltipManager@@U?$less@K@std@@V?$allocator@U?$pair@$$CBKUTooltipAlloc@ioBasicTooltipManager@@@std@@@4@$0A@@std@@@std@@QAE?AV?$_Tree_iterator@V?$_Tree_val@V?$_Tmap_traits@KUTooltipAlloc@ioBasicTooltipManager@@U?$less@K@std@@V?$allocator@U?$pair@$$CBKUTooltipAlloc@ioBasicTooltipManager@@@std@@@4@$0A@@std@@@std@@@2@V?$_Tree_const_iterator@V?$_Tree_val@V?$_Tmap_traits@KUTooltipAlloc@ioBasicTooltipManager@@U?$less@K@std@@V?$allocator@U?$pair@$$CBKUTooltipAlloc@ioBasicTooltipManager@@@std@@@4@$0A@@std@@@std@@@2@@Z PROC ; std::_Tree<std::_Tmap_traits<unsigned long,ioBasicTooltipManager::TooltipAlloc,std::less<unsigned long>,std::allocator<std::pair<unsigned long const ,ioBasicTooltipManager::TooltipAlloc> >,0> >::erase, COMDAT
; _this$ = ecx

; 1195 : 		{	// erase element at _Where

  00000	55		 push	 ebp
  00001	8b ec		 mov	 ebp, esp
  00003	51		 push	 ecx
  00004	53		 push	 ebx

; 1196 :  #if _ITERATOR_DEBUG_LEVEL == 2
; 1197 : 		if (_Where._Getcont() != this || this->_Isnil(_Where._Mynode()))
; 1198 : 			_DEBUG_ERROR("map/set erase iterator outside range");
; 1199 : 		_Nodeptr _Erasednode = _Where._Mynode();	// node to erase
; 1200 : 		++_Where;	// save successor iterator for return
; 1201 : 		_Orphan_ptr(*this, _Erasednode);
; 1202 : 
; 1203 :  #else /* _ITERATOR_DEBUG_LEVEL == 2 */
; 1204 : 		if (this->_Isnil(_Where._Mynode()))

  00005	8b 5d 0c	 mov	 ebx, DWORD PTR __Where$[ebp]
  00008	80 7b 31 00	 cmp	 BYTE PTR [ebx+49], 0
  0000c	56		 push	 esi
  0000d	57		 push	 edi
  0000e	89 4d fc	 mov	 DWORD PTR _this$[ebp], ecx
  00011	74 0b		 je	 SHORT $LN40@erase@2

; 1205 : 			_Xout_of_range("invalid map/set<T> iterator");

  00013	68 00 00 00 00	 push	 OFFSET ??_C@_0BM@PAPJHAGI@invalid?5map?1set?$DMT?$DO?5iterator?$AA@
  00018	ff 15 00 00 00
	00		 call	 DWORD PTR __imp_?_Xout_of_range@std@@YAXPBD@Z
$LN329@erase@2:
$LN40@erase@2:

; 1206 : 		_Nodeptr _Erasednode = _Where._Mynode();	// node to erase
; 1207 : 		++_Where;	// save successor iterator for return

  0001e	8d 4d 0c	 lea	 ecx, DWORD PTR __Where$[ebp]
  00021	e8 00 00 00 00	 call	 ??E?$_Tree_unchecked_const_iterator@V?$_Tree_val@V?$_Tmap_traits@KUTooltipAlloc@ioBasicTooltipManager@@U?$less@K@std@@V?$allocator@U?$pair@$$CBKUTooltipAlloc@ioBasicTooltipManager@@@std@@@4@$0A@@std@@@std@@U_Iterator_base0@2@@std@@QAEAAV01@XZ ; std::_Tree_unchecked_const_iterator<std::_Tree_val<std::_Tmap_traits<unsigned long,ioBasicTooltipManager::TooltipAlloc,std::less<unsigned long>,std::allocator<std::pair<unsigned long const ,ioBasicTooltipManager::TooltipAlloc> >,0> >,std::_Iterator_base0>::operator++

; 1208 :  #endif /* _ITERATOR_DEBUG_LEVEL == 2 */
; 1209 : 
; 1210 : 		_Nodeptr _Fixnode;	// the node to recolor as needed
; 1211 : 		_Nodeptr _Fixnodeparent;	// parent of _Fixnode (which may be nil)
; 1212 : 		_Nodeptr _Pnode = _Erasednode;
; 1213 : 
; 1214 : 		if (this->_Isnil(this->_Left(_Pnode)))

  00026	8b 13		 mov	 edx, DWORD PTR [ebx]
  00028	80 7a 31 00	 cmp	 BYTE PTR [edx+49], 0
  0002c	74 05		 je	 SHORT $LN39@erase@2

; 1215 : 			_Fixnode = this->_Right(_Pnode);	// stitch up right subtree

  0002e	8b 7b 08	 mov	 edi, DWORD PTR [ebx+8]

; 1216 : 		else if (this->_Isnil(this->_Right(_Pnode)))

  00031	eb 17		 jmp	 SHORT $LN321@erase@2
$LN39@erase@2:
  00033	8b 43 08	 mov	 eax, DWORD PTR [ebx+8]
  00036	80 78 31 00	 cmp	 BYTE PTR [eax+49], 0
  0003a	74 04		 je	 SHORT $LN37@erase@2

; 1217 : 			_Fixnode = this->_Left(_Pnode);	// stitch up left subtree

  0003c	8b fa		 mov	 edi, edx

; 1218 : 		else

  0003e	eb 0a		 jmp	 SHORT $LN321@erase@2
$LN37@erase@2:

; 1219 : 			{	// two subtrees, must lift successor node to replace erased
; 1220 : 			_Pnode = _Where._Mynode();	// _Pnode is successor node

  00040	8b 45 0c	 mov	 eax, DWORD PTR __Where$[ebp]

; 1221 : 			_Fixnode = this->_Right(_Pnode);	// _Fixnode is only subtree

  00043	8b 78 08	 mov	 edi, DWORD PTR [eax+8]

; 1222 : 			}
; 1223 : 
; 1224 : 		if (_Pnode == _Erasednode)

  00046	3b c3		 cmp	 eax, ebx
  00048	75 76		 jne	 SHORT $LN35@erase@2
$LN321@erase@2:

; 1225 : 			{	// at most one subtree, relink it
; 1226 : 			_Fixnodeparent = this->_Parent(_Erasednode);
; 1227 : 			if (!this->_Isnil(_Fixnode))

  0004a	80 7f 31 00	 cmp	 BYTE PTR [edi+49], 0
  0004e	8b 73 04	 mov	 esi, DWORD PTR [ebx+4]
  00051	75 03		 jne	 SHORT $LN34@erase@2

; 1228 : 				this->_Parent(_Fixnode) = _Fixnodeparent;	// link up

  00053	89 77 04	 mov	 DWORD PTR [edi+4], esi
$LN34@erase@2:

; 1229 : 
; 1230 : 			if (_Root() == _Erasednode)

  00056	8b 4d fc	 mov	 ecx, DWORD PTR _this$[ebp]
  00059	8b 41 04	 mov	 eax, DWORD PTR [ecx+4]
  0005c	39 58 04	 cmp	 DWORD PTR [eax+4], ebx
  0005f	75 05		 jne	 SHORT $LN33@erase@2

; 1231 : 				_Root() = _Fixnode;	// link down from root

  00061	89 78 04	 mov	 DWORD PTR [eax+4], edi

; 1232 : 			else if (this->_Left(_Fixnodeparent) == _Erasednode)

  00064	eb 0b		 jmp	 SHORT $LN30@erase@2
$LN33@erase@2:
  00066	39 1e		 cmp	 DWORD PTR [esi], ebx
  00068	75 04		 jne	 SHORT $LN31@erase@2

; 1233 : 				this->_Left(_Fixnodeparent) = _Fixnode;	// link down to left

  0006a	89 3e		 mov	 DWORD PTR [esi], edi

; 1234 : 			else

  0006c	eb 03		 jmp	 SHORT $LN30@erase@2
$LN31@erase@2:

; 1235 : 				this->_Right(_Fixnodeparent) =
; 1236 : 					_Fixnode;	// link down to right

  0006e	89 7e 08	 mov	 DWORD PTR [esi+8], edi
$LN30@erase@2:

; 1237 : 
; 1238 : 			if (_Lmost() == _Erasednode)

  00071	8b 49 04	 mov	 ecx, DWORD PTR [ecx+4]
  00074	39 19		 cmp	 DWORD PTR [ecx], ebx
  00076	75 1c		 jne	 SHORT $LN29@erase@2

; 1239 : 				_Lmost() = this->_Isnil(_Fixnode)
; 1240 : 					? _Fixnodeparent	// smallest is parent of erased node
; 1241 : 					: this->_Min(_Fixnode);	// smallest in relinked subtree

  00078	80 7f 31 00	 cmp	 BYTE PTR [edi+49], 0
  0007c	74 04		 je	 SHORT $LN43@erase@2
  0007e	8b d6		 mov	 edx, esi
  00080	eb 10		 jmp	 SHORT $LN97@erase@2
$LN43@erase@2:
  00082	8b 07		 mov	 eax, DWORD PTR [edi]
  00084	8b d7		 mov	 edx, edi
  00086	eb 04		 jmp	 SHORT $LN323@erase@2
$LL98@erase@2:
  00088	8b d0		 mov	 edx, eax
  0008a	8b 02		 mov	 eax, DWORD PTR [edx]
$LN323@erase@2:
  0008c	80 78 31 00	 cmp	 BYTE PTR [eax+49], 0
  00090	74 f6		 je	 SHORT $LL98@erase@2
$LN97@erase@2:
  00092	89 11		 mov	 DWORD PTR [ecx], edx
$LN29@erase@2:

; 1242 : 
; 1243 : 			if (_Rmost() == _Erasednode)

  00094	8b 45 fc	 mov	 eax, DWORD PTR _this$[ebp]
  00097	8b 48 04	 mov	 ecx, DWORD PTR [eax+4]
  0009a	39 59 08	 cmp	 DWORD PTR [ecx+8], ebx
  0009d	75 7b		 jne	 SHORT $LN185@erase@2

; 1244 : 				_Rmost() = this->_Isnil(_Fixnode)
; 1245 : 					? _Fixnodeparent	// largest is parent of erased node
; 1246 : 					: this->_Max(_Fixnode);	// largest in relinked subtree

  0009f	80 7f 31 00	 cmp	 BYTE PTR [edi+49], 0
  000a3	74 04		 je	 SHORT $LN45@erase@2
  000a5	8b d6		 mov	 edx, esi
  000a7	eb 12		 jmp	 SHORT $LN117@erase@2
$LN45@erase@2:
  000a9	8b 47 08	 mov	 eax, DWORD PTR [edi+8]
  000ac	8b d7		 mov	 edx, edi
  000ae	eb 05		 jmp	 SHORT $LN324@erase@2
$LL118@erase@2:
  000b0	8b d0		 mov	 edx, eax
  000b2	8b 42 08	 mov	 eax, DWORD PTR [edx+8]
$LN324@erase@2:
  000b5	80 78 31 00	 cmp	 BYTE PTR [eax+49], 0
  000b9	74 f5		 je	 SHORT $LL118@erase@2
$LN117@erase@2:
  000bb	89 51 08	 mov	 DWORD PTR [ecx+8], edx

; 1247 : 			}
; 1248 : 		else

  000be	eb 5a		 jmp	 SHORT $LN185@erase@2
$LN35@erase@2:

; 1249 : 			{	// erased has two subtrees, _Pnode is successor to erased
; 1250 : 			this->_Parent(this->_Left(_Erasednode)) =
; 1251 : 				_Pnode;	// link left up

  000c0	89 42 04	 mov	 DWORD PTR [edx+4], eax

; 1252 : 			this->_Left(_Pnode) =
; 1253 : 				this->_Left(_Erasednode);	// link successor down

  000c3	8b 13		 mov	 edx, DWORD PTR [ebx]
  000c5	89 10		 mov	 DWORD PTR [eax], edx

; 1254 : 
; 1255 : 			if (_Pnode == this->_Right(_Erasednode))

  000c7	3b 43 08	 cmp	 eax, DWORD PTR [ebx+8]
  000ca	75 04		 jne	 SHORT $LN26@erase@2

; 1256 : 				_Fixnodeparent = _Pnode;	// successor is next to erased

  000cc	8b f0		 mov	 esi, eax

; 1257 : 			else

  000ce	eb 1a		 jmp	 SHORT $LN25@erase@2
$LN26@erase@2:

; 1258 : 				{	// successor further down, link in place of erased
; 1259 : 				_Fixnodeparent =
; 1260 : 					this->_Parent(_Pnode);	// parent is successor's
; 1261 : 				if (!this->_Isnil(_Fixnode))

  000d0	80 7f 31 00	 cmp	 BYTE PTR [edi+49], 0
  000d4	8b 70 04	 mov	 esi, DWORD PTR [eax+4]
  000d7	75 03		 jne	 SHORT $LN24@erase@2

; 1262 : 					this->_Parent(_Fixnode) = _Fixnodeparent;	// link fix up

  000d9	89 77 04	 mov	 DWORD PTR [edi+4], esi
$LN24@erase@2:

; 1263 : 				this->_Left(_Fixnodeparent) = _Fixnode;	// link fix down

  000dc	89 3e		 mov	 DWORD PTR [esi], edi

; 1264 : 				this->_Right(_Pnode) =
; 1265 : 					this->_Right(_Erasednode);	// link next down

  000de	8b 53 08	 mov	 edx, DWORD PTR [ebx+8]
  000e1	89 50 08	 mov	 DWORD PTR [eax+8], edx

; 1266 : 				this->_Parent(this->_Right(_Erasednode)) =
; 1267 : 					_Pnode;	// right up

  000e4	8b 4b 08	 mov	 ecx, DWORD PTR [ebx+8]
  000e7	89 41 04	 mov	 DWORD PTR [ecx+4], eax
$LN25@erase@2:

; 1268 : 				}
; 1269 : 
; 1270 : 			if (_Root() == _Erasednode)

  000ea	8b 4d fc	 mov	 ecx, DWORD PTR _this$[ebp]
  000ed	8b 49 04	 mov	 ecx, DWORD PTR [ecx+4]
  000f0	39 59 04	 cmp	 DWORD PTR [ecx+4], ebx
  000f3	75 05		 jne	 SHORT $LN23@erase@2

; 1271 : 				_Root() = _Pnode;	// link down from root

  000f5	89 41 04	 mov	 DWORD PTR [ecx+4], eax

; 1272 : 			else if (this->_Left(this->_Parent(_Erasednode)) == _Erasednode)

  000f8	eb 0e		 jmp	 SHORT $LN20@erase@2
$LN23@erase@2:
  000fa	8b 4b 04	 mov	 ecx, DWORD PTR [ebx+4]
  000fd	39 19		 cmp	 DWORD PTR [ecx], ebx
  000ff	75 04		 jne	 SHORT $LN21@erase@2

; 1273 : 				this->_Left(this->_Parent(_Erasednode)) =
; 1274 : 					_Pnode;	// link down to left

  00101	89 01		 mov	 DWORD PTR [ecx], eax

; 1275 : 			else

  00103	eb 03		 jmp	 SHORT $LN20@erase@2
$LN21@erase@2:

; 1276 : 				this->_Right(this->_Parent(_Erasednode)) =
; 1277 : 					_Pnode;	// link down to right

  00105	89 41 08	 mov	 DWORD PTR [ecx+8], eax
$LN20@erase@2:

; 1278 : 
; 1279 : 			this->_Parent(_Pnode) =
; 1280 : 				this->_Parent(_Erasednode);	// link successor up

  00108	8b 4b 04	 mov	 ecx, DWORD PTR [ebx+4]
  0010b	89 48 04	 mov	 DWORD PTR [eax+4], ecx

; 1281 : 			_STD swap(this->_Color(_Pnode),
; 1282 : 				this->_Color(_Erasednode));	// recolor it

  0010e	8a 53 30	 mov	 dl, BYTE PTR [ebx+48]
  00111	8a 48 30	 mov	 cl, BYTE PTR [eax+48]
  00114	88 50 30	 mov	 BYTE PTR [eax+48], dl
  00117	88 4b 30	 mov	 BYTE PTR [ebx+48], cl
$LN185@erase@2:

; 1283 : 			}
; 1284 : 
; 1285 : 		if (this->_Color(_Erasednode) == this->_Black)

  0011a	80 7b 30 01	 cmp	 BYTE PTR [ebx+48], 1
  0011e	0f 85 03 01 00
	00		 jne	 $LN19@erase@2

; 1286 : 			{	// erasing black link, must recolor/rebalance tree
; 1287 : 			for (; _Fixnode != _Root()
; 1288 : 				&& this->_Color(_Fixnode) == this->_Black;
; 1289 : 				_Fixnodeparent = this->_Parent(_Fixnode))

  00124	e9 b2 00 00 00	 jmp	 $LN326@erase@2
$LL18@erase@2:
  00129	80 7f 30 01	 cmp	 BYTE PTR [edi+48], 1
  0012d	0f 85 f0 00 00
	00		 jne	 $LN16@erase@2

; 1290 : 				if (_Fixnode == this->_Left(_Fixnodeparent))

  00133	8b 06		 mov	 eax, DWORD PTR [esi]
  00135	3b f8		 cmp	 edi, eax
  00137	75 6c		 jne	 SHORT $LN15@erase@2

; 1291 : 					{	// fixup left subtree
; 1292 : 					_Pnode = this->_Right(_Fixnodeparent);

  00139	8b 46 08	 mov	 eax, DWORD PTR [esi+8]

; 1293 : 					if (this->_Color(_Pnode) == this->_Red)

  0013c	80 78 30 00	 cmp	 BYTE PTR [eax+48], 0
  00140	75 11		 jne	 SHORT $LN14@erase@2

; 1294 : 						{	// rotate red up from right subtree
; 1295 : 						this->_Color(_Pnode) = this->_Black;

  00142	c6 40 30 01	 mov	 BYTE PTR [eax+48], 1

; 1296 : 						this->_Color(_Fixnodeparent) = this->_Red;
; 1297 : 						_Lrotate(_Fixnodeparent);

  00146	56		 push	 esi
  00147	c6 46 30 00	 mov	 BYTE PTR [esi+48], 0
  0014b	e8 00 00 00 00	 call	 ?_Lrotate@?$_Tree@V?$_Tmap_traits@KUTooltipAlloc@ioBasicTooltipManager@@U?$less@K@std@@V?$allocator@U?$pair@$$CBKUTooltipAlloc@ioBasicTooltipManager@@@std@@@4@$0A@@std@@@std@@IAEXPAU_Node@?$_Tree_nod@V?$_Tmap_traits@KUTooltipAlloc@ioBasicTooltipManager@@U?$less@K@std@@V?$allocator@U?$pair@$$CBKUTooltipAlloc@ioBasicTooltipManager@@@std@@@4@$0A@@std@@@2@@Z ; std::_Tree<std::_Tmap_traits<unsigned long,ioBasicTooltipManager::TooltipAlloc,std::less<unsigned long>,std::allocator<std::pair<unsigned long const ,ioBasicTooltipManager::TooltipAlloc> >,0> >::_Lrotate

; 1298 : 						_Pnode = this->_Right(_Fixnodeparent);

  00150	8b 46 08	 mov	 eax, DWORD PTR [esi+8]
$LN14@erase@2:

; 1299 : 						}
; 1300 : 
; 1301 : 					if (this->_Isnil(_Pnode))

  00153	80 78 31 00	 cmp	 BYTE PTR [eax+49], 0

; 1302 : 						_Fixnode = _Fixnodeparent;	// shouldn't happen
; 1303 : 					else if (this->_Color(this->_Left(_Pnode)) == this->_Black

  00157	75 7d		 jne	 SHORT $LN327@erase@2

; 1304 : 						&& this->_Color(this->_Right(_Pnode)) == this->_Black)

  00159	8b 08		 mov	 ecx, DWORD PTR [eax]
  0015b	80 79 30 01	 cmp	 BYTE PTR [ecx+48], 1
  0015f	75 09		 jne	 SHORT $LN11@erase@2
  00161	8b 48 08	 mov	 ecx, DWORD PTR [eax+8]
  00164	80 79 30 01	 cmp	 BYTE PTR [ecx+48], 1
  00168	74 68		 je	 SHORT $LN328@erase@2
$LN11@erase@2:

; 1305 : 						{	// redden right subtree with black children
; 1306 : 						this->_Color(_Pnode) = this->_Red;
; 1307 : 						_Fixnode = _Fixnodeparent;
; 1308 : 						}
; 1309 : 					else
; 1310 : 						{	// must rearrange right subtree
; 1311 : 						if (this->_Color(this->_Right(_Pnode))
; 1312 : 							== this->_Black)

  0016a	8b 48 08	 mov	 ecx, DWORD PTR [eax+8]
  0016d	80 79 30 01	 cmp	 BYTE PTR [ecx+48], 1
  00171	75 16		 jne	 SHORT $LN9@erase@2

; 1313 : 							{	// rotate red up from left sub-subtree
; 1314 : 							this->_Color(this->_Left(_Pnode)) = this->_Black;

  00173	8b 08		 mov	 ecx, DWORD PTR [eax]
  00175	c6 41 30 01	 mov	 BYTE PTR [ecx+48], 1

; 1315 : 							this->_Color(_Pnode) = this->_Red;
; 1316 : 							_Rrotate(_Pnode);

  00179	8b 4d fc	 mov	 ecx, DWORD PTR _this$[ebp]
  0017c	50		 push	 eax
  0017d	c6 40 30 00	 mov	 BYTE PTR [eax+48], 0
  00181	e8 00 00 00 00	 call	 ?_Rrotate@?$_Tree@V?$_Tmap_traits@KUTooltipAlloc@ioBasicTooltipManager@@U?$less@K@std@@V?$allocator@U?$pair@$$CBKUTooltipAlloc@ioBasicTooltipManager@@@std@@@4@$0A@@std@@@std@@IAEXPAU_Node@?$_Tree_nod@V?$_Tmap_traits@KUTooltipAlloc@ioBasicTooltipManager@@U?$less@K@std@@V?$allocator@U?$pair@$$CBKUTooltipAlloc@ioBasicTooltipManager@@@std@@@4@$0A@@std@@@2@@Z ; std::_Tree<std::_Tmap_traits<unsigned long,ioBasicTooltipManager::TooltipAlloc,std::less<unsigned long>,std::allocator<std::pair<unsigned long const ,ioBasicTooltipManager::TooltipAlloc> >,0> >::_Rrotate

; 1317 : 							_Pnode = this->_Right(_Fixnodeparent);

  00186	8b 46 08	 mov	 eax, DWORD PTR [esi+8]
$LN9@erase@2:

; 1318 : 							}
; 1319 : 
; 1320 : 						this->_Color(_Pnode) = this->_Color(_Fixnodeparent);

  00189	8a 4e 30	 mov	 cl, BYTE PTR [esi+48]
  0018c	88 48 30	 mov	 BYTE PTR [eax+48], cl

; 1321 : 						this->_Color(_Fixnodeparent) = this->_Black;
; 1322 : 						this->_Color(this->_Right(_Pnode)) = this->_Black;
; 1323 : 						_Lrotate(_Fixnodeparent);

  0018f	8b 4d fc	 mov	 ecx, DWORD PTR _this$[ebp]
  00192	c6 46 30 01	 mov	 BYTE PTR [esi+48], 1
  00196	8b 40 08	 mov	 eax, DWORD PTR [eax+8]
  00199	56		 push	 esi
  0019a	c6 40 30 01	 mov	 BYTE PTR [eax+48], 1
  0019e	e8 00 00 00 00	 call	 ?_Lrotate@?$_Tree@V?$_Tmap_traits@KUTooltipAlloc@ioBasicTooltipManager@@U?$less@K@std@@V?$allocator@U?$pair@$$CBKUTooltipAlloc@ioBasicTooltipManager@@@std@@@4@$0A@@std@@@std@@IAEXPAU_Node@?$_Tree_nod@V?$_Tmap_traits@KUTooltipAlloc@ioBasicTooltipManager@@U?$less@K@std@@V?$allocator@U?$pair@$$CBKUTooltipAlloc@ioBasicTooltipManager@@@std@@@4@$0A@@std@@@2@@Z ; std::_Tree<std::_Tmap_traits<unsigned long,ioBasicTooltipManager::TooltipAlloc,std::less<unsigned long>,std::allocator<std::pair<unsigned long const ,ioBasicTooltipManager::TooltipAlloc> >,0> >::_Lrotate

; 1324 : 						break;	// tree now recolored/rebalanced

  001a3	eb 7e		 jmp	 SHORT $LN16@erase@2
$LN15@erase@2:

; 1325 : 						}
; 1326 : 					}
; 1327 : 				else
; 1328 : 					{	// fixup right subtree
; 1329 : 					_Pnode = this->_Left(_Fixnodeparent);
; 1330 : 					if (this->_Color(_Pnode) == this->_Red)

  001a5	80 78 30 00	 cmp	 BYTE PTR [eax+48], 0
  001a9	75 10		 jne	 SHORT $LN7@erase@2

; 1331 : 						{	// rotate red up from left subtree
; 1332 : 						this->_Color(_Pnode) = this->_Black;

  001ab	c6 40 30 01	 mov	 BYTE PTR [eax+48], 1

; 1333 : 						this->_Color(_Fixnodeparent) = this->_Red;
; 1334 : 						_Rrotate(_Fixnodeparent);

  001af	56		 push	 esi
  001b0	c6 46 30 00	 mov	 BYTE PTR [esi+48], 0
  001b4	e8 00 00 00 00	 call	 ?_Rrotate@?$_Tree@V?$_Tmap_traits@KUTooltipAlloc@ioBasicTooltipManager@@U?$less@K@std@@V?$allocator@U?$pair@$$CBKUTooltipAlloc@ioBasicTooltipManager@@@std@@@4@$0A@@std@@@std@@IAEXPAU_Node@?$_Tree_nod@V?$_Tmap_traits@KUTooltipAlloc@ioBasicTooltipManager@@U?$less@K@std@@V?$allocator@U?$pair@$$CBKUTooltipAlloc@ioBasicTooltipManager@@@std@@@4@$0A@@std@@@2@@Z ; std::_Tree<std::_Tmap_traits<unsigned long,ioBasicTooltipManager::TooltipAlloc,std::less<unsigned long>,std::allocator<std::pair<unsigned long const ,ioBasicTooltipManager::TooltipAlloc> >,0> >::_Rrotate

; 1335 : 						_Pnode = this->_Left(_Fixnodeparent);

  001b9	8b 06		 mov	 eax, DWORD PTR [esi]
$LN7@erase@2:

; 1336 : 						}
; 1337 : 					if (this->_Isnil(_Pnode))

  001bb	80 78 31 00	 cmp	 BYTE PTR [eax+49], 0

; 1338 : 						_Fixnode = _Fixnodeparent;	// shouldn't happen
; 1339 : 					else if (this->_Color(this->_Right(_Pnode)) ==

  001bf	75 15		 jne	 SHORT $LN327@erase@2

; 1340 : 						this->_Black
; 1341 : 						&& this->_Color(this->_Left(_Pnode)) == this->_Black)

  001c1	8b 48 08	 mov	 ecx, DWORD PTR [eax+8]
  001c4	80 79 30 01	 cmp	 BYTE PTR [ecx+48], 1
  001c8	75 22		 jne	 SHORT $LN4@erase@2
  001ca	8b 08		 mov	 ecx, DWORD PTR [eax]
  001cc	80 79 30 01	 cmp	 BYTE PTR [ecx+48], 1
  001d0	75 1a		 jne	 SHORT $LN4@erase@2
$LN328@erase@2:

; 1342 : 						{	// redden left subtree with black children
; 1343 : 						this->_Color(_Pnode) = this->_Red;

  001d2	c6 40 30 00	 mov	 BYTE PTR [eax+48], 0
$LN327@erase@2:

; 1344 : 						_Fixnode = _Fixnodeparent;

  001d6	8b fe		 mov	 edi, esi
  001d8	8b 76 04	 mov	 esi, DWORD PTR [esi+4]
$LN326@erase@2:

; 1286 : 			{	// erasing black link, must recolor/rebalance tree
; 1287 : 			for (; _Fixnode != _Root()
; 1288 : 				&& this->_Color(_Fixnode) == this->_Black;
; 1289 : 				_Fixnodeparent = this->_Parent(_Fixnode))

  001db	8b 4d fc	 mov	 ecx, DWORD PTR _this$[ebp]
  001de	8b 41 04	 mov	 eax, DWORD PTR [ecx+4]
  001e1	3b 78 04	 cmp	 edi, DWORD PTR [eax+4]
  001e4	0f 85 3f ff ff
	ff		 jne	 $LL18@erase@2
  001ea	eb 37		 jmp	 SHORT $LN16@erase@2
$LN4@erase@2:

; 1345 : 						}
; 1346 : 					else
; 1347 : 						{	// must rearrange left subtree
; 1348 : 						if (this->_Color(this->_Left(_Pnode)) == this->_Black)

  001ec	8b 08		 mov	 ecx, DWORD PTR [eax]
  001ee	80 79 30 01	 cmp	 BYTE PTR [ecx+48], 1
  001f2	75 16		 jne	 SHORT $LN2@erase@2

; 1349 : 							{	// rotate red up from right sub-subtree
; 1350 : 							this->_Color(this->_Right(_Pnode)) = this->_Black;

  001f4	8b 48 08	 mov	 ecx, DWORD PTR [eax+8]
  001f7	c6 41 30 01	 mov	 BYTE PTR [ecx+48], 1

; 1351 : 							this->_Color(_Pnode) = this->_Red;
; 1352 : 							_Lrotate(_Pnode);

  001fb	8b 4d fc	 mov	 ecx, DWORD PTR _this$[ebp]
  001fe	50		 push	 eax
  001ff	c6 40 30 00	 mov	 BYTE PTR [eax+48], 0
  00203	e8 00 00 00 00	 call	 ?_Lrotate@?$_Tree@V?$_Tmap_traits@KUTooltipAlloc@ioBasicTooltipManager@@U?$less@K@std@@V?$allocator@U?$pair@$$CBKUTooltipAlloc@ioBasicTooltipManager@@@std@@@4@$0A@@std@@@std@@IAEXPAU_Node@?$_Tree_nod@V?$_Tmap_traits@KUTooltipAlloc@ioBasicTooltipManager@@U?$less@K@std@@V?$allocator@U?$pair@$$CBKUTooltipAlloc@ioBasicTooltipManager@@@std@@@4@$0A@@std@@@2@@Z ; std::_Tree<std::_Tmap_traits<unsigned long,ioBasicTooltipManager::TooltipAlloc,std::less<unsigned long>,std::allocator<std::pair<unsigned long const ,ioBasicTooltipManager::TooltipAlloc> >,0> >::_Lrotate

; 1353 : 							_Pnode = this->_Left(_Fixnodeparent);

  00208	8b 06		 mov	 eax, DWORD PTR [esi]
$LN2@erase@2:

; 1354 : 							}
; 1355 : 
; 1356 : 						this->_Color(_Pnode) = this->_Color(_Fixnodeparent);

  0020a	8a 4e 30	 mov	 cl, BYTE PTR [esi+48]
  0020d	88 48 30	 mov	 BYTE PTR [eax+48], cl

; 1357 : 						this->_Color(_Fixnodeparent) = this->_Black;
; 1358 : 						this->_Color(this->_Left(_Pnode)) = this->_Black;
; 1359 : 						_Rrotate(_Fixnodeparent);

  00210	8b 4d fc	 mov	 ecx, DWORD PTR _this$[ebp]
  00213	c6 46 30 01	 mov	 BYTE PTR [esi+48], 1
  00217	8b 00		 mov	 eax, DWORD PTR [eax]
  00219	56		 push	 esi
  0021a	c6 40 30 01	 mov	 BYTE PTR [eax+48], 1
  0021e	e8 00 00 00 00	 call	 ?_Rrotate@?$_Tree@V?$_Tmap_traits@KUTooltipAlloc@ioBasicTooltipManager@@U?$less@K@std@@V?$allocator@U?$pair@$$CBKUTooltipAlloc@ioBasicTooltipManager@@@std@@@4@$0A@@std@@@std@@IAEXPAU_Node@?$_Tree_nod@V?$_Tmap_traits@KUTooltipAlloc@ioBasicTooltipManager@@U?$less@K@std@@V?$allocator@U?$pair@$$CBKUTooltipAlloc@ioBasicTooltipManager@@@std@@@4@$0A@@std@@@2@@Z ; std::_Tree<std::_Tmap_traits<unsigned long,ioBasicTooltipManager::TooltipAlloc,std::less<unsigned long>,std::allocator<std::pair<unsigned long const ,ioBasicTooltipManager::TooltipAlloc> >,0> >::_Rrotate
$LN16@erase@2:

; 1360 : 						break;	// tree now recolored/rebalanced
; 1361 : 						}
; 1362 : 					}
; 1363 : 
; 1364 : 			this->_Color(_Fixnode) = this->_Black;	// stopping node is black

  00223	c6 47 30 01	 mov	 BYTE PTR [edi+48], 1
$LN19@erase@2:

; 1365 : 			}
; 1366 : 
; 1367 : 		_Dest_val(this->_Alval,
; 1368 : 			_STD addressof(this->_Myval(_Erasednode)));	// delete erased node

  00227	6a 00		 push	 0
  00229	8d 4b 0c	 lea	 ecx, DWORD PTR [ebx+12]
  0022c	e8 00 00 00 00	 call	 ??_G?$pair@$$CBKUTooltipAlloc@ioBasicTooltipManager@@@std@@QAEPAXI@Z

; 1369 : 
; 1370 : 		this->_Alnod.deallocate(_Erasednode, 1);

  00231	53		 push	 ebx
  00232	e8 00 00 00 00	 call	 ??3@YAXPAX@Z		; operator delete
  00237	59		 pop	 ecx

; 1371 : 
; 1372 : 		if (0 < this->_Mysize)

  00238	8b 4d fc	 mov	 ecx, DWORD PTR _this$[ebp]
  0023b	8b 41 08	 mov	 eax, DWORD PTR [ecx+8]
  0023e	5f		 pop	 edi
  0023f	5e		 pop	 esi
  00240	5b		 pop	 ebx
  00241	85 c0		 test	 eax, eax
  00243	74 04		 je	 SHORT $LN1@erase@2

; 1373 : 			--this->_Mysize;

  00245	48		 dec	 eax
  00246	89 41 08	 mov	 DWORD PTR [ecx+8], eax
$LN1@erase@2:

; 1374 : 
; 1375 : 		return (iterator(_Where._Ptr, this));	// return successor iterator

  00249	8b 45 08	 mov	 eax, DWORD PTR ___$ReturnUdt$[ebp]
  0024c	8b 4d 0c	 mov	 ecx, DWORD PTR __Where$[ebp]
  0024f	89 08		 mov	 DWORD PTR [eax], ecx

; 1376 : 		}

  00251	c9		 leave
  00252	c2 08 00	 ret	 8
$LN322@erase@2:
?erase@?$_Tree@V?$_Tmap_traits@KUTooltipAlloc@ioBasicTooltipManager@@U?$less@K@std@@V?$allocator@U?$pair@$$CBKUTooltipAlloc@ioBasicTooltipManager@@@std@@@4@$0A@@std@@@std@@QAE?AV?$_Tree_iterator@V?$_Tree_val@V?$_Tmap_traits@KUTooltipAlloc@ioBasicTooltipManager@@U?$less@K@std@@V?$allocator@U?$pair@$$CBKUTooltipAlloc@ioBasicTooltipManager@@@std@@@4@$0A@@std@@@std@@@2@V?$_Tree_const_iterator@V?$_Tree_val@V?$_Tmap_traits@KUTooltipAlloc@ioBasicTooltipManager@@U?$less@K@std@@V?$allocator@U?$pair@$$CBKUTooltipAlloc@ioBasicTooltipManager@@@std@@@4@$0A@@std@@@std@@@2@@Z ENDP ; std::_Tree<std::_Tmap_traits<unsigned long,ioBasicTooltipManager::TooltipAlloc,std::less<unsigned long>,std::allocator<std::pair<unsigned long const ,ioBasicTooltipManager::TooltipAlloc> >,0> >::erase
_TEXT	ENDS
PUBLIC	?_Erase@?$_Tree@V?$_Tmap_traits@KUTooltipAlloc@ioBasicTooltipManager@@U?$less@K@std@@V?$allocator@U?$pair@$$CBKUTooltipAlloc@ioBasicTooltipManager@@@std@@@4@$0A@@std@@@std@@IAEXPAU_Node@?$_Tree_nod@V?$_Tmap_traits@KUTooltipAlloc@ioBasicTooltipManager@@U?$less@K@std@@V?$allocator@U?$pair@$$CBKUTooltipAlloc@ioBasicTooltipManager@@@std@@@4@$0A@@std@@@2@@Z ; std::_Tree<std::_Tmap_traits<unsigned long,ioBasicTooltipManager::TooltipAlloc,std::less<unsigned long>,std::allocator<std::pair<unsigned long const ,ioBasicTooltipManager::TooltipAlloc> >,0> >::_Erase
; Function compile flags: /Ogsp
;	COMDAT ?_Erase@?$_Tree@V?$_Tmap_traits@KUTooltipAlloc@ioBasicTooltipManager@@U?$less@K@std@@V?$allocator@U?$pair@$$CBKUTooltipAlloc@ioBasicTooltipManager@@@std@@@4@$0A@@std@@@std@@IAEXPAU_Node@?$_Tree_nod@V?$_Tmap_traits@KUTooltipAlloc@ioBasicTooltipManager@@U?$less@K@std@@V?$allocator@U?$pair@$$CBKUTooltipAlloc@ioBasicTooltipManager@@@std@@@4@$0A@@std@@@2@@Z
_TEXT	SEGMENT
_this$ = -4						; size = 4
__Rootnode$ = 8						; size = 4
?_Erase@?$_Tree@V?$_Tmap_traits@KUTooltipAlloc@ioBasicTooltipManager@@U?$less@K@std@@V?$allocator@U?$pair@$$CBKUTooltipAlloc@ioBasicTooltipManager@@@std@@@4@$0A@@std@@@std@@IAEXPAU_Node@?$_Tree_nod@V?$_Tmap_traits@KUTooltipAlloc@ioBasicTooltipManager@@U?$less@K@std@@V?$allocator@U?$pair@$$CBKUTooltipAlloc@ioBasicTooltipManager@@@std@@@4@$0A@@std@@@2@@Z PROC ; std::_Tree<std::_Tmap_traits<unsigned long,ioBasicTooltipManager::TooltipAlloc,std::less<unsigned long>,std::allocator<std::pair<unsigned long const ,ioBasicTooltipManager::TooltipAlloc> >,0> >::_Erase, COMDAT
; _this$ = ecx

; 1610 : 		{	// free entire subtree, recursively

  00000	55		 push	 ebp
  00001	8b ec		 mov	 ebp, esp
  00003	51		 push	 ecx
  00004	56		 push	 esi
  00005	57		 push	 edi

; 1611 : 		for (_Nodeptr _Pnode = _Rootnode;

  00006	8b 7d 08	 mov	 edi, DWORD PTR __Rootnode$[ebp]

; 1612 : 			!this->_Isnil(_Pnode); _Rootnode = _Pnode)

  00009	80 7f 31 00	 cmp	 BYTE PTR [edi+49], 0
  0000d	89 4d fc	 mov	 DWORD PTR _this$[ebp], ecx
  00010	8b f7		 mov	 esi, edi
  00012	75 26		 jne	 SHORT $LN1@Erase
$LL26@Erase:

; 1613 : 			{	// free subtrees, then node
; 1614 : 			_Erase(this->_Right(_Pnode));

  00014	ff 76 08	 push	 DWORD PTR [esi+8]
  00017	8b 4d fc	 mov	 ecx, DWORD PTR _this$[ebp]
  0001a	e8 00 00 00 00	 call	 ?_Erase@?$_Tree@V?$_Tmap_traits@KUTooltipAlloc@ioBasicTooltipManager@@U?$less@K@std@@V?$allocator@U?$pair@$$CBKUTooltipAlloc@ioBasicTooltipManager@@@std@@@4@$0A@@std@@@std@@IAEXPAU_Node@?$_Tree_nod@V?$_Tmap_traits@KUTooltipAlloc@ioBasicTooltipManager@@U?$less@K@std@@V?$allocator@U?$pair@$$CBKUTooltipAlloc@ioBasicTooltipManager@@@std@@@4@$0A@@std@@@2@@Z ; std::_Tree<std::_Tmap_traits<unsigned long,ioBasicTooltipManager::TooltipAlloc,std::less<unsigned long>,std::allocator<std::pair<unsigned long const ,ioBasicTooltipManager::TooltipAlloc> >,0> >::_Erase

; 1615 : 			_Pnode = this->_Left(_Pnode);

  0001f	8b 36		 mov	 esi, DWORD PTR [esi]

; 1616 : 			_Dest_val(this->_Alval,
; 1617 : 				_STD addressof(this->_Myval(_Rootnode)));

  00021	6a 00		 push	 0
  00023	8d 4f 0c	 lea	 ecx, DWORD PTR [edi+12]
  00026	e8 00 00 00 00	 call	 ??_G?$pair@$$CBKUTooltipAlloc@ioBasicTooltipManager@@@std@@QAEPAXI@Z

; 1618 : 
; 1619 : 			this->_Alnod.deallocate(_Rootnode, 1);

  0002b	57		 push	 edi
  0002c	e8 00 00 00 00	 call	 ??3@YAXPAX@Z		; operator delete
  00031	80 7e 31 00	 cmp	 BYTE PTR [esi+49], 0
  00035	59		 pop	 ecx
  00036	8b fe		 mov	 edi, esi
  00038	74 da		 je	 SHORT $LL26@Erase
$LN1@Erase:
  0003a	5f		 pop	 edi
  0003b	5e		 pop	 esi

; 1620 : 			}
; 1621 : 		}

  0003c	c9		 leave
  0003d	c2 04 00	 ret	 4
?_Erase@?$_Tree@V?$_Tmap_traits@KUTooltipAlloc@ioBasicTooltipManager@@U?$less@K@std@@V?$allocator@U?$pair@$$CBKUTooltipAlloc@ioBasicTooltipManager@@@std@@@4@$0A@@std@@@std@@IAEXPAU_Node@?$_Tree_nod@V?$_Tmap_traits@KUTooltipAlloc@ioBasicTooltipManager@@U?$less@K@std@@V?$allocator@U?$pair@$$CBKUTooltipAlloc@ioBasicTooltipManager@@@std@@@4@$0A@@std@@@2@@Z ENDP ; std::_Tree<std::_Tmap_traits<unsigned long,ioBasicTooltipManager::TooltipAlloc,std::less<unsigned long>,std::allocator<std::pair<unsigned long const ,ioBasicTooltipManager::TooltipAlloc> >,0> >::_Erase
_TEXT	ENDS
PUBLIC	??$_Cons_val@V?$allocator@UTooltipAlloc@ioBasicTooltipManager@@@std@@UTooltipAlloc@ioBasicTooltipManager@@ABU34@@std@@YAXAAV?$allocator@UTooltipAlloc@ioBasicTooltipManager@@@0@PAUTooltipAlloc@ioBasicTooltipManager@@ABU23@@Z ; std::_Cons_val<std::allocator<ioBasicTooltipManager::TooltipAlloc>,ioBasicTooltipManager::TooltipAlloc,ioBasicTooltipManager::TooltipAlloc const &>
; Function compile flags: /Ogsp
; File c:\program files (x86)\microsoft visual studio 10.0\vc\include\xmemory
;	COMDAT ??$_Cons_val@V?$allocator@UTooltipAlloc@ioBasicTooltipManager@@@std@@UTooltipAlloc@ioBasicTooltipManager@@ABU34@@std@@YAXAAV?$allocator@UTooltipAlloc@ioBasicTooltipManager@@@0@PAUTooltipAlloc@ioBasicTooltipManager@@ABU23@@Z
_TEXT	SEGMENT
__Alval$ = 8						; size = 4
__Pdest$ = 12						; size = 4
__Src$ = 16						; size = 4
??$_Cons_val@V?$allocator@UTooltipAlloc@ioBasicTooltipManager@@@std@@UTooltipAlloc@ioBasicTooltipManager@@ABU34@@std@@YAXAAV?$allocator@UTooltipAlloc@ioBasicTooltipManager@@@0@PAUTooltipAlloc@ioBasicTooltipManager@@ABU23@@Z PROC ; std::_Cons_val<std::allocator<ioBasicTooltipManager::TooltipAlloc>,ioBasicTooltipManager::TooltipAlloc,ioBasicTooltipManager::TooltipAlloc const &>, COMDAT

; 279  : 	{	// construct using allocator

  00000	55		 push	 ebp
  00001	8b ec		 mov	 ebp, esp

; 280  : 	_Alval.construct(_Pdest, _STD forward<_Ty2>(_Src));

  00003	ff 75 10	 push	 DWORD PTR __Src$[ebp]
  00006	ff 75 0c	 push	 DWORD PTR __Pdest$[ebp]
  00009	e8 00 00 00 00	 call	 ??$_Construct@UTooltipAlloc@ioBasicTooltipManager@@ABU12@@std@@YAXPAUTooltipAlloc@ioBasicTooltipManager@@ABU12@@Z ; std::_Construct<ioBasicTooltipManager::TooltipAlloc,ioBasicTooltipManager::TooltipAlloc const &>
  0000e	59		 pop	 ecx
  0000f	59		 pop	 ecx

; 281  : 	}

  00010	5d		 pop	 ebp
  00011	c3		 ret	 0
??$_Cons_val@V?$allocator@UTooltipAlloc@ioBasicTooltipManager@@@std@@UTooltipAlloc@ioBasicTooltipManager@@ABU34@@std@@YAXAAV?$allocator@UTooltipAlloc@ioBasicTooltipManager@@@0@PAUTooltipAlloc@ioBasicTooltipManager@@ABU23@@Z ENDP ; std::_Cons_val<std::allocator<ioBasicTooltipManager::TooltipAlloc>,ioBasicTooltipManager::TooltipAlloc,ioBasicTooltipManager::TooltipAlloc const &>
_TEXT	ENDS
PUBLIC	??$_Move@PAUTooltipAlloc@ioBasicTooltipManager@@PAU12@@std@@YAPAUTooltipAlloc@ioBasicTooltipManager@@PAU12@00@Z ; std::_Move<ioBasicTooltipManager::TooltipAlloc *,ioBasicTooltipManager::TooltipAlloc *>
; Function compile flags: /Ogsp
; File c:\program files (x86)\microsoft visual studio 10.0\vc\include\xutility
;	COMDAT ??$_Move@PAUTooltipAlloc@ioBasicTooltipManager@@PAU12@@std@@YAPAUTooltipAlloc@ioBasicTooltipManager@@PAU12@00@Z
_TEXT	SEGMENT
__Cat$512153 = -4					; size = 1
__First$ = 8						; size = 4
__Last$ = 12						; size = 4
__Dest$ = 16						; size = 4
??$_Move@PAUTooltipAlloc@ioBasicTooltipManager@@PAU12@@std@@YAPAUTooltipAlloc@ioBasicTooltipManager@@PAU12@00@Z PROC ; std::_Move<ioBasicTooltipManager::TooltipAlloc *,ioBasicTooltipManager::TooltipAlloc *>, COMDAT

; 2533 : 	{	// move [_First, _Last) to [_Dest, ...), unchecked

  00000	55		 push	 ebp
  00001	8b ec		 mov	 ebp, esp
  00003	51		 push	 ecx

; 2534 : 	return (_Move(_First, _Last,
; 2535 : 		_Dest, _Ptr_cat(_First, _Dest)));

  00004	ff 75 fc	 push	 DWORD PTR __Cat$512153[ebp]
  00007	ff 75 10	 push	 DWORD PTR __Dest$[ebp]
  0000a	ff 75 0c	 push	 DWORD PTR __Last$[ebp]
  0000d	ff 75 08	 push	 DWORD PTR __First$[ebp]
  00010	e8 00 00 00 00	 call	 ??$_Move@PAUTooltipAlloc@ioBasicTooltipManager@@PAU12@@std@@YAPAUTooltipAlloc@ioBasicTooltipManager@@PAU12@00U_Nonscalar_ptr_iterator_tag@0@@Z ; std::_Move<ioBasicTooltipManager::TooltipAlloc *,ioBasicTooltipManager::TooltipAlloc *>
  00015	83 c4 10	 add	 esp, 16			; 00000010H

; 2536 : 	}

  00018	c9		 leave
  00019	c3		 ret	 0
??$_Move@PAUTooltipAlloc@ioBasicTooltipManager@@PAU12@@std@@YAPAUTooltipAlloc@ioBasicTooltipManager@@PAU12@00@Z ENDP ; std::_Move<ioBasicTooltipManager::TooltipAlloc *,ioBasicTooltipManager::TooltipAlloc *>
_TEXT	ENDS
PUBLIC	??$_Destroy_range@V?$allocator@UTooltipAlloc@ioBasicTooltipManager@@@std@@@std@@YAXPAUTooltipAlloc@ioBasicTooltipManager@@0AAV?$allocator@UTooltipAlloc@ioBasicTooltipManager@@@0@@Z ; std::_Destroy_range<std::allocator<ioBasicTooltipManager::TooltipAlloc> >
; Function compile flags: /Ogsp
; File c:\program files (x86)\microsoft visual studio 10.0\vc\include\xmemory
;	COMDAT ??$_Destroy_range@V?$allocator@UTooltipAlloc@ioBasicTooltipManager@@@std@@@std@@YAXPAUTooltipAlloc@ioBasicTooltipManager@@0AAV?$allocator@UTooltipAlloc@ioBasicTooltipManager@@@0@@Z
_TEXT	SEGMENT
__Cat$512160 = -4					; size = 1
__First$ = 8						; size = 4
__Last$ = 12						; size = 4
__Al$ = 16						; size = 4
??$_Destroy_range@V?$allocator@UTooltipAlloc@ioBasicTooltipManager@@@std@@@std@@YAXPAUTooltipAlloc@ioBasicTooltipManager@@0AAV?$allocator@UTooltipAlloc@ioBasicTooltipManager@@@0@@Z PROC ; std::_Destroy_range<std::allocator<ioBasicTooltipManager::TooltipAlloc> >, COMDAT

; 87   : 	{	// destroy [_First, _Last)

  00000	55		 push	 ebp
  00001	8b ec		 mov	 ebp, esp
  00003	51		 push	 ecx

; 88   : 	_Destroy_range(_First, _Last, _Al, _Ptr_cat(_First, _Last));

  00004	ff 75 fc	 push	 DWORD PTR __Cat$512160[ebp]
  00007	ff 75 10	 push	 DWORD PTR __Al$[ebp]
  0000a	ff 75 0c	 push	 DWORD PTR __Last$[ebp]
  0000d	ff 75 08	 push	 DWORD PTR __First$[ebp]
  00010	e8 00 00 00 00	 call	 ??$_Destroy_range@V?$allocator@UTooltipAlloc@ioBasicTooltipManager@@@std@@@std@@YAXPAUTooltipAlloc@ioBasicTooltipManager@@0AAV?$allocator@UTooltipAlloc@ioBasicTooltipManager@@@0@U_Nonscalar_ptr_iterator_tag@0@@Z ; std::_Destroy_range<std::allocator<ioBasicTooltipManager::TooltipAlloc> >
  00015	83 c4 10	 add	 esp, 16			; 00000010H

; 89   : 	}

  00018	c9		 leave
  00019	c3		 ret	 0
??$_Destroy_range@V?$allocator@UTooltipAlloc@ioBasicTooltipManager@@@std@@@std@@YAXPAUTooltipAlloc@ioBasicTooltipManager@@0AAV?$allocator@UTooltipAlloc@ioBasicTooltipManager@@@0@@Z ENDP ; std::_Destroy_range<std::allocator<ioBasicTooltipManager::TooltipAlloc> >
_TEXT	ENDS
PUBLIC	?_Linsert@?$_Tree@V?$_Tmap_traits@KUTooltipAlloc@ioBasicTooltipManager@@U?$less@K@std@@V?$allocator@U?$pair@$$CBKUTooltipAlloc@ioBasicTooltipManager@@@std@@@4@$0A@@std@@@std@@QAE?AU?$pair@V?$_Tree_iterator@V?$_Tree_val@V?$_Tmap_traits@KUTooltipAlloc@ioBasicTooltipManager@@U?$less@K@std@@V?$allocator@U?$pair@$$CBKUTooltipAlloc@ioBasicTooltipManager@@@std@@@4@$0A@@std@@@std@@@std@@_N@2@PAU_Node@?$_Tree_nod@V?$_Tmap_traits@KUTooltipAlloc@ioBasicTooltipManager@@U?$less@K@std@@V?$allocator@U?$pair@$$CBKUTooltipAlloc@ioBasicTooltipManager@@@std@@@4@$0A@@std@@@2@_N@Z ; std::_Tree<std::_Tmap_traits<unsigned long,ioBasicTooltipManager::TooltipAlloc,std::less<unsigned long>,std::allocator<std::pair<unsigned long const ,ioBasicTooltipManager::TooltipAlloc> >,0> >::_Linsert
; Function compile flags: /Ogsp
; File c:\program files (x86)\microsoft visual studio 10.0\vc\include\xtree
;	COMDAT ?_Linsert@?$_Tree@V?$_Tmap_traits@KUTooltipAlloc@ioBasicTooltipManager@@U?$less@K@std@@V?$allocator@U?$pair@$$CBKUTooltipAlloc@ioBasicTooltipManager@@@std@@@4@$0A@@std@@@std@@QAE?AU?$pair@V?$_Tree_iterator@V?$_Tree_val@V?$_Tmap_traits@KUTooltipAlloc@ioBasicTooltipManager@@U?$less@K@std@@V?$allocator@U?$pair@$$CBKUTooltipAlloc@ioBasicTooltipManager@@@std@@@4@$0A@@std@@@std@@@std@@_N@2@PAU_Node@?$_Tree_nod@V?$_Tmap_traits@KUTooltipAlloc@ioBasicTooltipManager@@U?$less@K@std@@V?$allocator@U?$pair@$$CBKUTooltipAlloc@ioBasicTooltipManager@@@std@@@4@$0A@@std@@@2@_N@Z
_TEXT	SEGMENT
__Addleft$ = -4						; size = 1
___$ReturnUdt$ = 8					; size = 4
__Node$ = 12						; size = 4
$T512170 = 16						; size = 4
__Where$507797 = 16					; size = 4
__Leftish$ = 16						; size = 1
?_Linsert@?$_Tree@V?$_Tmap_traits@KUTooltipAlloc@ioBasicTooltipManager@@U?$less@K@std@@V?$allocator@U?$pair@$$CBKUTooltipAlloc@ioBasicTooltipManager@@@std@@@4@$0A@@std@@@std@@QAE?AU?$pair@V?$_Tree_iterator@V?$_Tree_val@V?$_Tmap_traits@KUTooltipAlloc@ioBasicTooltipManager@@U?$less@K@std@@V?$allocator@U?$pair@$$CBKUTooltipAlloc@ioBasicTooltipManager@@@std@@@4@$0A@@std@@@std@@@std@@_N@2@PAU_Node@?$_Tree_nod@V?$_Tmap_traits@KUTooltipAlloc@ioBasicTooltipManager@@U?$less@K@std@@V?$allocator@U?$pair@$$CBKUTooltipAlloc@ioBasicTooltipManager@@@std@@@4@$0A@@std@@@2@_N@Z PROC ; std::_Tree<std::_Tmap_traits<unsigned long,ioBasicTooltipManager::TooltipAlloc,std::less<unsigned long>,std::allocator<std::pair<unsigned long const ,ioBasicTooltipManager::TooltipAlloc> >,0> >::_Linsert, COMDAT
; _this$ = ecx

; 944  : 		{	// try to insert node at _Node, on left if _Leftish

  00000	55		 push	 ebp
  00001	8b ec		 mov	 ebp, esp
  00003	51		 push	 ecx

; 945  : 		const value_type& _Val = this->_Myval(_Node);

  00004	8b 55 0c	 mov	 edx, DWORD PTR __Node$[ebp]
  00007	53		 push	 ebx
  00008	56		 push	 esi
  00009	8b f1		 mov	 esi, ecx

; 946  : 
; 947  : 		_Nodeptr _Trynode = _Root();

  0000b	8b 4e 04	 mov	 ecx, DWORD PTR [esi+4]
  0000e	8b 41 04	 mov	 eax, DWORD PTR [ecx+4]

; 948  : 		_Nodeptr _Wherenode = this->_Myhead;
; 949  : 		bool _Addleft = true;	// add to left of head if tree empty
; 950  : 		while (!this->_Isnil(_Trynode))

  00011	80 78 31 00	 cmp	 BYTE PTR [eax+49], 0
  00015	8b d9		 mov	 ebx, ecx
  00017	b1 01		 mov	 cl, 1
  00019	57		 push	 edi
  0001a	88 4d fc	 mov	 BYTE PTR __Addleft$[ebp], cl
  0001d	75 2e		 jne	 SHORT $LN11@Linsert
  0001f	8b 7a 0c	 mov	 edi, DWORD PTR [edx+12]
$LL12@Linsert:

; 951  : 			{	// look for leaf to insert before (_Addleft) or after
; 952  : 			_Wherenode = _Trynode;
; 953  : 			if (_Leftish)

  00022	80 7d 10 00	 cmp	 BYTE PTR __Leftish$[ebp], 0
  00026	8b d8		 mov	 ebx, eax
  00028	74 09		 je	 SHORT $LN10@Linsert

; 954  : 				_Addleft = !_DEBUG_LT_PRED(this->comp,

  0002a	39 78 0c	 cmp	 DWORD PTR [eax+12], edi
  0002d	1a c9		 sbb	 cl, cl
  0002f	fe c1		 inc	 cl

; 955  : 					this->_Key(_Trynode),
; 956  : 					this->_Kfn(_Val));	// favor left end
; 957  : 			else

  00031	eb 06		 jmp	 SHORT $LN151@Linsert
$LN10@Linsert:

; 958  : 				_Addleft = _DEBUG_LT_PRED(this->comp,

  00033	3b 78 0c	 cmp	 edi, DWORD PTR [eax+12]
  00036	0f 92 c1	 setb	 cl
$LN151@Linsert:
  00039	88 4d fc	 mov	 BYTE PTR __Addleft$[ebp], cl

; 959  : 					this->_Kfn(_Val),
; 960  : 					this->_Key(_Trynode));	// favor right end
; 961  : 			_Trynode = _Addleft ? this->_Left(_Trynode)
; 962  : 				: this->_Right(_Trynode);

  0003c	84 c9		 test	 cl, cl
  0003e	74 04		 je	 SHORT $LN15@Linsert
  00040	8b 00		 mov	 eax, DWORD PTR [eax]
  00042	eb 03		 jmp	 SHORT $LN16@Linsert
$LN15@Linsert:
  00044	8b 40 08	 mov	 eax, DWORD PTR [eax+8]
$LN16@Linsert:

; 948  : 		_Nodeptr _Wherenode = this->_Myhead;
; 949  : 		bool _Addleft = true;	// add to left of head if tree empty
; 950  : 		while (!this->_Isnil(_Trynode))

  00047	80 78 31 00	 cmp	 BYTE PTR [eax+49], 0
  0004b	74 d5		 je	 SHORT $LL12@Linsert
$LN11@Linsert:

; 963  : 			}
; 964  : 
; 965  : 		if (this->_Multi)
; 966  : 			return (_Pairib(_Insert(_Addleft, _Wherenode, _Node), true));
; 967  : 		else
; 968  : 			{	// insert only if unique
; 969  : 			iterator _Where = iterator(_Wherenode, this);

  0004d	8b fb		 mov	 edi, ebx
  0004f	89 7d 10	 mov	 DWORD PTR __Where$507797[ebp], edi

; 970  : 			if (!_Addleft)

  00052	84 c9		 test	 cl, cl
  00054	74 31		 je	 SHORT $LN99@Linsert

; 971  : 				;	// need to test if insert after is okay
; 972  : 			else if (_Where == begin())

  00056	8b 46 04	 mov	 eax, DWORD PTR [esi+4]
  00059	3b 18		 cmp	 ebx, DWORD PTR [eax]
  0005b	75 1c		 jne	 SHORT $LN4@Linsert

; 973  : 				return (_Pairib(_Insert(true, _Wherenode, _Node), true));

  0005d	52		 push	 edx
  0005e	53		 push	 ebx
  0005f	6a 01		 push	 1
$LN152@Linsert:
  00061	8d 45 10	 lea	 eax, DWORD PTR $T512170[ebp]
  00064	50		 push	 eax
  00065	8b ce		 mov	 ecx, esi
  00067	e8 00 00 00 00	 call	 ?_Insert@?$_Tree@V?$_Tmap_traits@KUTooltipAlloc@ioBasicTooltipManager@@U?$less@K@std@@V?$allocator@U?$pair@$$CBKUTooltipAlloc@ioBasicTooltipManager@@@std@@@4@$0A@@std@@@std@@IAE?AV?$_Tree_iterator@V?$_Tree_val@V?$_Tmap_traits@KUTooltipAlloc@ioBasicTooltipManager@@U?$less@K@std@@V?$allocator@U?$pair@$$CBKUTooltipAlloc@ioBasicTooltipManager@@@std@@@4@$0A@@std@@@std@@@2@_NPAU_Node@?$_Tree_nod@V?$_Tmap_traits@KUTooltipAlloc@ioBasicTooltipManager@@U?$less@K@std@@V?$allocator@U?$pair@$$CBKUTooltipAlloc@ioBasicTooltipManager@@@std@@@4@$0A@@std@@@2@1@Z ; std::_Tree<std::_Tmap_traits<unsigned long,ioBasicTooltipManager::TooltipAlloc,std::less<unsigned long>,std::allocator<std::pair<unsigned long const ,ioBasicTooltipManager::TooltipAlloc> >,0> >::_Insert
  0006c	8b 08		 mov	 ecx, DWORD PTR [eax]
  0006e	8b 45 08	 mov	 eax, DWORD PTR ___$ReturnUdt$[ebp]
  00071	89 08		 mov	 DWORD PTR [eax], ecx
  00073	c6 40 04 01	 mov	 BYTE PTR [eax+4], 1
  00077	eb 38		 jmp	 SHORT $LN1@Linsert
$LN4@Linsert:

; 974  : 			else
; 975  : 				--_Where;	// need to test if insert before is okay

  00079	8d 4d 10	 lea	 ecx, DWORD PTR __Where$507797[ebp]
  0007c	e8 00 00 00 00	 call	 ??F?$_Tree_unchecked_const_iterator@V?$_Tree_val@V?$_Tmap_traits@KUTooltipAlloc@ioBasicTooltipManager@@U?$less@K@std@@V?$allocator@U?$pair@$$CBKUTooltipAlloc@ioBasicTooltipManager@@@std@@@4@$0A@@std@@@std@@U_Iterator_base0@2@@std@@QAEAAV01@XZ ; std::_Tree_unchecked_const_iterator<std::_Tree_val<std::_Tmap_traits<unsigned long,ioBasicTooltipManager::TooltipAlloc,std::less<unsigned long>,std::allocator<std::pair<unsigned long const ,ioBasicTooltipManager::TooltipAlloc> >,0> >,std::_Iterator_base0>::operator--
  00081	8b 7d 10	 mov	 edi, DWORD PTR __Where$507797[ebp]
  00084	8b 55 0c	 mov	 edx, DWORD PTR __Node$[ebp]
$LN99@Linsert:

; 976  : 
; 977  : 			if (_DEBUG_LT_PRED(this->comp,

  00087	8b 47 0c	 mov	 eax, DWORD PTR [edi+12]
  0008a	8d 4a 0c	 lea	 ecx, DWORD PTR [edx+12]
  0008d	3b 01		 cmp	 eax, DWORD PTR [ecx]
  0008f	73 07		 jae	 SHORT $LN2@Linsert

; 978  : 				this->_Key(_Where._Mynode()),
; 979  : 				this->_Kfn(_Val)))
; 980  : 				return (_Pairib(_Insert(_Addleft, _Wherenode, _Node), true));

  00091	52		 push	 edx
  00092	53		 push	 ebx
  00093	ff 75 fc	 push	 DWORD PTR __Addleft$[ebp]
  00096	eb c9		 jmp	 SHORT $LN152@Linsert
$LN2@Linsert:

; 981  : 			else
; 982  : 				{	// duplicate, don't insert
; 983  : 				_Dest_val(this->_Alval,
; 984  : 					_STD addressof(this->_Myval(_Node)));

  00098	6a 00		 push	 0
  0009a	e8 00 00 00 00	 call	 ??_G?$pair@$$CBKUTooltipAlloc@ioBasicTooltipManager@@@std@@QAEPAXI@Z

; 985  : 
; 986  : 				this->_Alnod.deallocate(_Node, 1);

  0009f	ff 75 0c	 push	 DWORD PTR __Node$[ebp]
  000a2	e8 00 00 00 00	 call	 ??3@YAXPAX@Z		; operator delete

; 987  : 
; 988  : 				return (_Pairib(_Where, false));

  000a7	8b 45 08	 mov	 eax, DWORD PTR ___$ReturnUdt$[ebp]
  000aa	59		 pop	 ecx
  000ab	89 38		 mov	 DWORD PTR [eax], edi
  000ad	c6 40 04 00	 mov	 BYTE PTR [eax+4], 0
$LN1@Linsert:
  000b1	5f		 pop	 edi
  000b2	5e		 pop	 esi
  000b3	5b		 pop	 ebx

; 989  : 				}
; 990  : 			}
; 991  : 		}

  000b4	c9		 leave
  000b5	c2 0c 00	 ret	 12			; 0000000cH
?_Linsert@?$_Tree@V?$_Tmap_traits@KUTooltipAlloc@ioBasicTooltipManager@@U?$less@K@std@@V?$allocator@U?$pair@$$CBKUTooltipAlloc@ioBasicTooltipManager@@@std@@@4@$0A@@std@@@std@@QAE?AU?$pair@V?$_Tree_iterator@V?$_Tree_val@V?$_Tmap_traits@KUTooltipAlloc@ioBasicTooltipManager@@U?$less@K@std@@V?$allocator@U?$pair@$$CBKUTooltipAlloc@ioBasicTooltipManager@@@std@@@4@$0A@@std@@@std@@@std@@_N@2@PAU_Node@?$_Tree_nod@V?$_Tmap_traits@KUTooltipAlloc@ioBasicTooltipManager@@U?$less@K@std@@V?$allocator@U?$pair@$$CBKUTooltipAlloc@ioBasicTooltipManager@@@std@@@4@$0A@@std@@@2@_N@Z ENDP ; std::_Tree<std::_Tmap_traits<unsigned long,ioBasicTooltipManager::TooltipAlloc,std::less<unsigned long>,std::allocator<std::pair<unsigned long const ,ioBasicTooltipManager::TooltipAlloc> >,0> >::_Linsert
_TEXT	ENDS
PUBLIC	??$_Uninitialized_move@PAUTooltipAlloc@ioBasicTooltipManager@@PAU12@V?$allocator@UTooltipAlloc@ioBasicTooltipManager@@@std@@@std@@YAPAUTooltipAlloc@ioBasicTooltipManager@@PAU12@00AAV?$allocator@UTooltipAlloc@ioBasicTooltipManager@@@0@@Z ; std::_Uninitialized_move<ioBasicTooltipManager::TooltipAlloc *,ioBasicTooltipManager::TooltipAlloc *,std::allocator<ioBasicTooltipManager::TooltipAlloc> >
; Function compile flags: /Ogsp
; File c:\program files (x86)\microsoft visual studio 10.0\vc\include\memory
;	COMDAT ??$_Uninitialized_move@PAUTooltipAlloc@ioBasicTooltipManager@@PAU12@V?$allocator@UTooltipAlloc@ioBasicTooltipManager@@@std@@@std@@YAPAUTooltipAlloc@ioBasicTooltipManager@@PAU12@00AAV?$allocator@UTooltipAlloc@ioBasicTooltipManager@@@0@@Z
_TEXT	SEGMENT
__Cat$512502 = -4					; size = 1
__First$ = 8						; size = 4
__Last$ = 12						; size = 4
__Dest$ = 16						; size = 4
__Al$ = 20						; size = 4
??$_Uninitialized_move@PAUTooltipAlloc@ioBasicTooltipManager@@PAU12@V?$allocator@UTooltipAlloc@ioBasicTooltipManager@@@std@@@std@@YAPAUTooltipAlloc@ioBasicTooltipManager@@PAU12@00AAV?$allocator@UTooltipAlloc@ioBasicTooltipManager@@@0@@Z PROC ; std::_Uninitialized_move<ioBasicTooltipManager::TooltipAlloc *,ioBasicTooltipManager::TooltipAlloc *,std::allocator<ioBasicTooltipManager::TooltipAlloc> >, COMDAT

; 469  : 	{	// move [_First, _Last) to raw _Dest, using _Al

  00000	55		 push	 ebp
  00001	8b ec		 mov	 ebp, esp
  00003	51		 push	 ecx

; 470  : 	return (_Uninit_move(_First, _Last, _Dest, _Al,
; 471  : 		_Val_type(_First), _Ptr_cat(_First, _Dest)));

  00004	ff 75 fc	 push	 DWORD PTR __Cat$512502[ebp]
  00007	6a 00		 push	 0
  00009	ff 75 14	 push	 DWORD PTR __Al$[ebp]
  0000c	ff 75 10	 push	 DWORD PTR __Dest$[ebp]
  0000f	ff 75 0c	 push	 DWORD PTR __Last$[ebp]
  00012	ff 75 08	 push	 DWORD PTR __First$[ebp]
  00015	e8 00 00 00 00	 call	 ??$_Uninit_move@PAUTooltipAlloc@ioBasicTooltipManager@@PAU12@V?$allocator@UTooltipAlloc@ioBasicTooltipManager@@@std@@U12@@std@@YAPAUTooltipAlloc@ioBasicTooltipManager@@PAU12@00AAV?$allocator@UTooltipAlloc@ioBasicTooltipManager@@@0@0U_Nonscalar_ptr_iterator_tag@0@@Z ; std::_Uninit_move<ioBasicTooltipManager::TooltipAlloc *,ioBasicTooltipManager::TooltipAlloc *,std::allocator<ioBasicTooltipManager::TooltipAlloc>,ioBasicTooltipManager::TooltipAlloc>
  0001a	83 c4 18	 add	 esp, 24			; 00000018H

; 472  : 	}

  0001d	c9		 leave
  0001e	c3		 ret	 0
??$_Uninitialized_move@PAUTooltipAlloc@ioBasicTooltipManager@@PAU12@V?$allocator@UTooltipAlloc@ioBasicTooltipManager@@@std@@@std@@YAPAUTooltipAlloc@ioBasicTooltipManager@@PAU12@00AAV?$allocator@UTooltipAlloc@ioBasicTooltipManager@@@0@@Z ENDP ; std::_Uninitialized_move<ioBasicTooltipManager::TooltipAlloc *,ioBasicTooltipManager::TooltipAlloc *,std::allocator<ioBasicTooltipManager::TooltipAlloc> >
_TEXT	ENDS
PUBLIC	??$_Cons_val@V?$allocator@U?$pair@$$CBKUTooltipAlloc@ioBasicTooltipManager@@@std@@@std@@U?$pair@$$CBKUTooltipAlloc@ioBasicTooltipManager@@@2@U32@@std@@YAXAAV?$allocator@U?$pair@$$CBKUTooltipAlloc@ioBasicTooltipManager@@@std@@@0@PAU?$pair@$$CBKUTooltipAlloc@ioBasicTooltipManager@@@0@$$QAU20@@Z ; std::_Cons_val<std::allocator<std::pair<unsigned long const ,ioBasicTooltipManager::TooltipAlloc> >,std::pair<unsigned long const ,ioBasicTooltipManager::TooltipAlloc>,std::pair<unsigned long const ,ioBasicTooltipManager::TooltipAlloc> >
; Function compile flags: /Ogsp
; File c:\program files (x86)\microsoft visual studio 10.0\vc\include\xmemory
;	COMDAT ??$_Cons_val@V?$allocator@U?$pair@$$CBKUTooltipAlloc@ioBasicTooltipManager@@@std@@@std@@U?$pair@$$CBKUTooltipAlloc@ioBasicTooltipManager@@@2@U32@@std@@YAXAAV?$allocator@U?$pair@$$CBKUTooltipAlloc@ioBasicTooltipManager@@@std@@@0@PAU?$pair@$$CBKUTooltipAlloc@ioBasicTooltipManager@@@0@$$QAU20@@Z
_TEXT	SEGMENT
__Alval$ = 8						; size = 4
__Pdest$ = 12						; size = 4
__Src$ = 16						; size = 4
??$_Cons_val@V?$allocator@U?$pair@$$CBKUTooltipAlloc@ioBasicTooltipManager@@@std@@@std@@U?$pair@$$CBKUTooltipAlloc@ioBasicTooltipManager@@@2@U32@@std@@YAXAAV?$allocator@U?$pair@$$CBKUTooltipAlloc@ioBasicTooltipManager@@@std@@@0@PAU?$pair@$$CBKUTooltipAlloc@ioBasicTooltipManager@@@0@$$QAU20@@Z PROC ; std::_Cons_val<std::allocator<std::pair<unsigned long const ,ioBasicTooltipManager::TooltipAlloc> >,std::pair<unsigned long const ,ioBasicTooltipManager::TooltipAlloc>,std::pair<unsigned long const ,ioBasicTooltipManager::TooltipAlloc> >, COMDAT

; 279  : 	{	// construct using allocator

  00000	55		 push	 ebp
  00001	8b ec		 mov	 ebp, esp

; 280  : 	_Alval.construct(_Pdest, _STD forward<_Ty2>(_Src));

  00003	ff 75 10	 push	 DWORD PTR __Src$[ebp]
  00006	8b 4d 08	 mov	 ecx, DWORD PTR __Alval$[ebp]
  00009	ff 75 0c	 push	 DWORD PTR __Pdest$[ebp]
  0000c	e8 00 00 00 00	 call	 ?construct@?$allocator@U?$pair@$$CBKUTooltipAlloc@ioBasicTooltipManager@@@std@@@std@@QAEXPAU?$pair@$$CBKUTooltipAlloc@ioBasicTooltipManager@@@2@$$QAU32@@Z ; std::allocator<std::pair<unsigned long const ,ioBasicTooltipManager::TooltipAlloc> >::construct

; 281  : 	}

  00011	5d		 pop	 ebp
  00012	c3		 ret	 0
??$_Cons_val@V?$allocator@U?$pair@$$CBKUTooltipAlloc@ioBasicTooltipManager@@@std@@@std@@U?$pair@$$CBKUTooltipAlloc@ioBasicTooltipManager@@@2@U32@@std@@YAXAAV?$allocator@U?$pair@$$CBKUTooltipAlloc@ioBasicTooltipManager@@@std@@@0@PAU?$pair@$$CBKUTooltipAlloc@ioBasicTooltipManager@@@0@$$QAU20@@Z ENDP ; std::_Cons_val<std::allocator<std::pair<unsigned long const ,ioBasicTooltipManager::TooltipAlloc> >,std::pair<unsigned long const ,ioBasicTooltipManager::TooltipAlloc>,std::pair<unsigned long const ,ioBasicTooltipManager::TooltipAlloc> >
_TEXT	ENDS
PUBLIC	?_Destroy@?$vector@UTooltipAlloc@ioBasicTooltipManager@@V?$allocator@UTooltipAlloc@ioBasicTooltipManager@@@std@@@std@@IAEXPAUTooltipAlloc@ioBasicTooltipManager@@0@Z ; std::vector<ioBasicTooltipManager::TooltipAlloc,std::allocator<ioBasicTooltipManager::TooltipAlloc> >::_Destroy
; Function compile flags: /Ogsp
; File c:\program files (x86)\microsoft visual studio 10.0\vc\include\vector
;	COMDAT ?_Destroy@?$vector@UTooltipAlloc@ioBasicTooltipManager@@V?$allocator@UTooltipAlloc@ioBasicTooltipManager@@@std@@@std@@IAEXPAUTooltipAlloc@ioBasicTooltipManager@@0@Z
_TEXT	SEGMENT
__First$ = 8						; size = 4
__Cat$512523 = 12					; size = 1
__Last$ = 12						; size = 4
?_Destroy@?$vector@UTooltipAlloc@ioBasicTooltipManager@@V?$allocator@UTooltipAlloc@ioBasicTooltipManager@@@std@@@std@@IAEXPAUTooltipAlloc@ioBasicTooltipManager@@0@Z PROC ; std::vector<ioBasicTooltipManager::TooltipAlloc,std::allocator<ioBasicTooltipManager::TooltipAlloc> >::_Destroy, COMDAT
; _this$ = ecx

; 1269 : 		{	// destroy [_First, _Last) using allocator

  00000	55		 push	 ebp
  00001	8b ec		 mov	 ebp, esp

; 1270 : 		_Destroy_range(_First, _Last, this->_Alval);

  00003	ff 75 0c	 push	 DWORD PTR __Cat$512523[ebp]
  00006	83 c1 0c	 add	 ecx, 12			; 0000000cH
  00009	51		 push	 ecx
  0000a	ff 75 0c	 push	 DWORD PTR __Last$[ebp]
  0000d	ff 75 08	 push	 DWORD PTR __First$[ebp]
  00010	e8 00 00 00 00	 call	 ??$_Destroy_range@V?$allocator@UTooltipAlloc@ioBasicTooltipManager@@@std@@@std@@YAXPAUTooltipAlloc@ioBasicTooltipManager@@0AAV?$allocator@UTooltipAlloc@ioBasicTooltipManager@@@0@U_Nonscalar_ptr_iterator_tag@0@@Z ; std::_Destroy_range<std::allocator<ioBasicTooltipManager::TooltipAlloc> >
  00015	83 c4 10	 add	 esp, 16			; 00000010H

; 1271 : 		}

  00018	5d		 pop	 ebp
  00019	c2 08 00	 ret	 8
?_Destroy@?$vector@UTooltipAlloc@ioBasicTooltipManager@@V?$allocator@UTooltipAlloc@ioBasicTooltipManager@@@std@@@std@@IAEXPAUTooltipAlloc@ioBasicTooltipManager@@0@Z ENDP ; std::vector<ioBasicTooltipManager::TooltipAlloc,std::allocator<ioBasicTooltipManager::TooltipAlloc> >::_Destroy
_TEXT	ENDS
PUBLIC	?clear@?$_Tree@V?$_Tmap_traits@KUTooltipAlloc@ioBasicTooltipManager@@U?$less@K@std@@V?$allocator@U?$pair@$$CBKUTooltipAlloc@ioBasicTooltipManager@@@std@@@4@$0A@@std@@@std@@QAEXXZ ; std::_Tree<std::_Tmap_traits<unsigned long,ioBasicTooltipManager::TooltipAlloc,std::less<unsigned long>,std::allocator<std::pair<unsigned long const ,ioBasicTooltipManager::TooltipAlloc> >,0> >::clear
; Function compile flags: /Ogsp
; File c:\program files (x86)\microsoft visual studio 10.0\vc\include\xtree
;	COMDAT ?clear@?$_Tree@V?$_Tmap_traits@KUTooltipAlloc@ioBasicTooltipManager@@U?$less@K@std@@V?$allocator@U?$pair@$$CBKUTooltipAlloc@ioBasicTooltipManager@@@std@@@4@$0A@@std@@@std@@QAEXXZ
_TEXT	SEGMENT
?clear@?$_Tree@V?$_Tmap_traits@KUTooltipAlloc@ioBasicTooltipManager@@U?$less@K@std@@V?$allocator@U?$pair@$$CBKUTooltipAlloc@ioBasicTooltipManager@@@std@@@4@$0A@@std@@@std@@QAEXXZ PROC ; std::_Tree<std::_Tmap_traits<unsigned long,ioBasicTooltipManager::TooltipAlloc,std::less<unsigned long>,std::allocator<std::pair<unsigned long const ,ioBasicTooltipManager::TooltipAlloc> >,0> >::clear, COMDAT
; _this$ = ecx

; 1410 : 		{	// erase all

  00000	56		 push	 esi
  00001	57		 push	 edi
  00002	8b f9		 mov	 edi, ecx

; 1411 :  #if _ITERATOR_DEBUG_LEVEL == 2
; 1412 : 		this->_Orphan_ptr(*this, 0);
; 1413 :  #endif /* _ITERATOR_DEBUG_LEVEL == 2 */
; 1414 : 
; 1415 : 		_Erase(_Root());

  00004	8b 47 04	 mov	 eax, DWORD PTR [edi+4]
  00007	ff 70 04	 push	 DWORD PTR [eax+4]
  0000a	e8 00 00 00 00	 call	 ?_Erase@?$_Tree@V?$_Tmap_traits@KUTooltipAlloc@ioBasicTooltipManager@@U?$less@K@std@@V?$allocator@U?$pair@$$CBKUTooltipAlloc@ioBasicTooltipManager@@@std@@@4@$0A@@std@@@std@@IAEXPAU_Node@?$_Tree_nod@V?$_Tmap_traits@KUTooltipAlloc@ioBasicTooltipManager@@U?$less@K@std@@V?$allocator@U?$pair@$$CBKUTooltipAlloc@ioBasicTooltipManager@@@std@@@4@$0A@@std@@@2@@Z ; std::_Tree<std::_Tmap_traits<unsigned long,ioBasicTooltipManager::TooltipAlloc,std::less<unsigned long>,std::allocator<std::pair<unsigned long const ,ioBasicTooltipManager::TooltipAlloc> >,0> >::_Erase

; 1416 : 		_Root() = this->_Myhead;

  0000f	8b 47 04	 mov	 eax, DWORD PTR [edi+4]
  00012	89 40 04	 mov	 DWORD PTR [eax+4], eax

; 1417 : 		_Lmost() = this->_Myhead;

  00015	8b 47 04	 mov	 eax, DWORD PTR [edi+4]
  00018	89 00		 mov	 DWORD PTR [eax], eax

; 1418 : 		_Rmost() = this->_Myhead;

  0001a	8b 77 04	 mov	 esi, DWORD PTR [edi+4]
  0001d	89 76 08	 mov	 DWORD PTR [esi+8], esi

; 1419 : 		this->_Mysize = 0;

  00020	83 67 08 00	 and	 DWORD PTR [edi+8], 0
  00024	5f		 pop	 edi
  00025	5e		 pop	 esi

; 1420 : 		}

  00026	c3		 ret	 0
?clear@?$_Tree@V?$_Tmap_traits@KUTooltipAlloc@ioBasicTooltipManager@@U?$less@K@std@@V?$allocator@U?$pair@$$CBKUTooltipAlloc@ioBasicTooltipManager@@@std@@@4@$0A@@std@@@std@@QAEXXZ ENDP ; std::_Tree<std::_Tmap_traits<unsigned long,ioBasicTooltipManager::TooltipAlloc,std::less<unsigned long>,std::allocator<std::pair<unsigned long const ,ioBasicTooltipManager::TooltipAlloc> >,0> >::clear
_TEXT	ENDS
PUBLIC	??$_Umove@PAUTooltipAlloc@ioBasicTooltipManager@@@?$vector@UTooltipAlloc@ioBasicTooltipManager@@V?$allocator@UTooltipAlloc@ioBasicTooltipManager@@@std@@@std@@IAEPAUTooltipAlloc@ioBasicTooltipManager@@PAU23@00@Z ; std::vector<ioBasicTooltipManager::TooltipAlloc,std::allocator<ioBasicTooltipManager::TooltipAlloc> >::_Umove<ioBasicTooltipManager::TooltipAlloc *>
; Function compile flags: /Ogsp
; File c:\program files (x86)\microsoft visual studio 10.0\vc\include\vector
;	COMDAT ??$_Umove@PAUTooltipAlloc@ioBasicTooltipManager@@@?$vector@UTooltipAlloc@ioBasicTooltipManager@@V?$allocator@UTooltipAlloc@ioBasicTooltipManager@@@std@@@std@@IAEPAUTooltipAlloc@ioBasicTooltipManager@@PAU23@00@Z
_TEXT	SEGMENT
__First$ = 8						; size = 4
__Last$ = 12						; size = 4
__Ptr$ = 16						; size = 4
??$_Umove@PAUTooltipAlloc@ioBasicTooltipManager@@@?$vector@UTooltipAlloc@ioBasicTooltipManager@@V?$allocator@UTooltipAlloc@ioBasicTooltipManager@@@std@@@std@@IAEPAUTooltipAlloc@ioBasicTooltipManager@@PAU23@00@Z PROC ; std::vector<ioBasicTooltipManager::TooltipAlloc,std::allocator<ioBasicTooltipManager::TooltipAlloc> >::_Umove<ioBasicTooltipManager::TooltipAlloc *>, COMDAT
; _this$ = ecx

; 1322 : 		pointer _Umove(_Iter _First, _Iter _Last, pointer _Ptr)

  00000	55		 push	 ebp
  00001	8b ec		 mov	 ebp, esp

; 1323 : 		{	// move initializing [_First, _Last), using allocator
; 1324 : 		return (_Uninitialized_move(_First, _Last,
; 1325 : 			_Ptr, this->_Alval));

  00003	83 c1 0c	 add	 ecx, 12			; 0000000cH
  00006	51		 push	 ecx
  00007	ff 75 10	 push	 DWORD PTR __Ptr$[ebp]
  0000a	ff 75 0c	 push	 DWORD PTR __Last$[ebp]
  0000d	ff 75 08	 push	 DWORD PTR __First$[ebp]
  00010	e8 00 00 00 00	 call	 ??$_Uninitialized_move@PAUTooltipAlloc@ioBasicTooltipManager@@PAU12@V?$allocator@UTooltipAlloc@ioBasicTooltipManager@@@std@@@std@@YAPAUTooltipAlloc@ioBasicTooltipManager@@PAU12@00AAV?$allocator@UTooltipAlloc@ioBasicTooltipManager@@@0@@Z ; std::_Uninitialized_move<ioBasicTooltipManager::TooltipAlloc *,ioBasicTooltipManager::TooltipAlloc *,std::allocator<ioBasicTooltipManager::TooltipAlloc> >
  00015	83 c4 10	 add	 esp, 16			; 00000010H

; 1326 : 		}

  00018	5d		 pop	 ebp
  00019	c2 0c 00	 ret	 12			; 0000000cH
??$_Umove@PAUTooltipAlloc@ioBasicTooltipManager@@@?$vector@UTooltipAlloc@ioBasicTooltipManager@@V?$allocator@UTooltipAlloc@ioBasicTooltipManager@@@std@@@std@@IAEPAUTooltipAlloc@ioBasicTooltipManager@@PAU23@00@Z ENDP ; std::vector<ioBasicTooltipManager::TooltipAlloc,std::allocator<ioBasicTooltipManager::TooltipAlloc> >::_Umove<ioBasicTooltipManager::TooltipAlloc *>
_TEXT	ENDS
PUBLIC	??$_Buynode@U?$pair@$$CBKUTooltipAlloc@ioBasicTooltipManager@@@std@@@?$_Tree_val@V?$_Tmap_traits@KUTooltipAlloc@ioBasicTooltipManager@@U?$less@K@std@@V?$allocator@U?$pair@$$CBKUTooltipAlloc@ioBasicTooltipManager@@@std@@@4@$0A@@std@@@std@@QAEPAU_Node@?$_Tree_nod@V?$_Tmap_traits@KUTooltipAlloc@ioBasicTooltipManager@@U?$less@K@std@@V?$allocator@U?$pair@$$CBKUTooltipAlloc@ioBasicTooltipManager@@@std@@@4@$0A@@std@@@1@$$QAU?$pair@$$CBKUTooltipAlloc@ioBasicTooltipManager@@@1@@Z ; std::_Tree_val<std::_Tmap_traits<unsigned long,ioBasicTooltipManager::TooltipAlloc,std::less<unsigned long>,std::allocator<std::pair<unsigned long const ,ioBasicTooltipManager::TooltipAlloc> >,0> >::_Buynode<std::pair<unsigned long const ,ioBasicTooltipManager::TooltipAlloc> >
;	COMDAT xdata$x
; File c:\program files (x86)\microsoft visual studio 10.0\vc\include\xmemory
xdata$x	SEGMENT
__catchsym$??$_Buynode@U?$pair@$$CBKUTooltipAlloc@ioBasicTooltipManager@@@std@@@?$_Tree_val@V?$_Tmap_traits@KUTooltipAlloc@ioBasicTooltipManager@@U?$less@K@std@@V?$allocator@U?$pair@$$CBKUTooltipAlloc@ioBasicTooltipManager@@@std@@@4@$0A@@std@@@std@@QAEPAU_Node@?$_Tree_nod@V?$_Tmap_traits@KUTooltipAlloc@ioBasicTooltipManager@@U?$less@K@std@@V?$allocator@U?$pair@$$CBKUTooltipAlloc@ioBasicTooltipManager@@@std@@@4@$0A@@std@@@1@$$QAU?$pair@$$CBKUTooltipAlloc@ioBasicTooltipManager@@@1@@Z$2 DD 040H
	DD	00H
	DD	00H
	DD	FLAT:__catch$??$_Buynode@U?$pair@$$CBKUTooltipAlloc@ioBasicTooltipManager@@@std@@@?$_Tree_val@V?$_Tmap_traits@KUTooltipAlloc@ioBasicTooltipManager@@U?$less@K@std@@V?$allocator@U?$pair@$$CBKUTooltipAlloc@ioBasicTooltipManager@@@std@@@4@$0A@@std@@@std@@QAEPAU_Node@?$_Tree_nod@V?$_Tmap_traits@KUTooltipAlloc@ioBasicTooltipManager@@U?$less@K@std@@V?$allocator@U?$pair@$$CBKUTooltipAlloc@ioBasicTooltipManager@@@std@@@4@$0A@@std@@@1@$$QAU?$pair@$$CBKUTooltipAlloc@ioBasicTooltipManager@@@1@@Z$0
__unwindtable$??$_Buynode@U?$pair@$$CBKUTooltipAlloc@ioBasicTooltipManager@@@std@@@?$_Tree_val@V?$_Tmap_traits@KUTooltipAlloc@ioBasicTooltipManager@@U?$less@K@std@@V?$allocator@U?$pair@$$CBKUTooltipAlloc@ioBasicTooltipManager@@@std@@@4@$0A@@std@@@std@@QAEPAU_Node@?$_Tree_nod@V?$_Tmap_traits@KUTooltipAlloc@ioBasicTooltipManager@@U?$less@K@std@@V?$allocator@U?$pair@$$CBKUTooltipAlloc@ioBasicTooltipManager@@@std@@@4@$0A@@std@@@1@$$QAU?$pair@$$CBKUTooltipAlloc@ioBasicTooltipManager@@@1@@Z DD 0ffffffffH
	DD	00H
	DD	0ffffffffH
	DD	00H
__tryblocktable$??$_Buynode@U?$pair@$$CBKUTooltipAlloc@ioBasicTooltipManager@@@std@@@?$_Tree_val@V?$_Tmap_traits@KUTooltipAlloc@ioBasicTooltipManager@@U?$less@K@std@@V?$allocator@U?$pair@$$CBKUTooltipAlloc@ioBasicTooltipManager@@@std@@@4@$0A@@std@@@std@@QAEPAU_Node@?$_Tree_nod@V?$_Tmap_traits@KUTooltipAlloc@ioBasicTooltipManager@@U?$less@K@std@@V?$allocator@U?$pair@$$CBKUTooltipAlloc@ioBasicTooltipManager@@@std@@@4@$0A@@std@@@1@$$QAU?$pair@$$CBKUTooltipAlloc@ioBasicTooltipManager@@@1@@Z DD 00H
	DD	00H
	DD	01H
	DD	01H
	DD	FLAT:__catchsym$??$_Buynode@U?$pair@$$CBKUTooltipAlloc@ioBasicTooltipManager@@@std@@@?$_Tree_val@V?$_Tmap_traits@KUTooltipAlloc@ioBasicTooltipManager@@U?$less@K@std@@V?$allocator@U?$pair@$$CBKUTooltipAlloc@ioBasicTooltipManager@@@std@@@4@$0A@@std@@@std@@QAEPAU_Node@?$_Tree_nod@V?$_Tmap_traits@KUTooltipAlloc@ioBasicTooltipManager@@U?$less@K@std@@V?$allocator@U?$pair@$$CBKUTooltipAlloc@ioBasicTooltipManager@@@std@@@4@$0A@@std@@@1@$$QAU?$pair@$$CBKUTooltipAlloc@ioBasicTooltipManager@@@1@@Z$2
__ehfuncinfo$??$_Buynode@U?$pair@$$CBKUTooltipAlloc@ioBasicTooltipManager@@@std@@@?$_Tree_val@V?$_Tmap_traits@KUTooltipAlloc@ioBasicTooltipManager@@U?$less@K@std@@V?$allocator@U?$pair@$$CBKUTooltipAlloc@ioBasicTooltipManager@@@std@@@4@$0A@@std@@@std@@QAEPAU_Node@?$_Tree_nod@V?$_Tmap_traits@KUTooltipAlloc@ioBasicTooltipManager@@U?$less@K@std@@V?$allocator@U?$pair@$$CBKUTooltipAlloc@ioBasicTooltipManager@@@std@@@4@$0A@@std@@@1@$$QAU?$pair@$$CBKUTooltipAlloc@ioBasicTooltipManager@@@1@@Z DD 019930522H
	DD	02H
	DD	FLAT:__unwindtable$??$_Buynode@U?$pair@$$CBKUTooltipAlloc@ioBasicTooltipManager@@@std@@@?$_Tree_val@V?$_Tmap_traits@KUTooltipAlloc@ioBasicTooltipManager@@U?$less@K@std@@V?$allocator@U?$pair@$$CBKUTooltipAlloc@ioBasicTooltipManager@@@std@@@4@$0A@@std@@@std@@QAEPAU_Node@?$_Tree_nod@V?$_Tmap_traits@KUTooltipAlloc@ioBasicTooltipManager@@U?$less@K@std@@V?$allocator@U?$pair@$$CBKUTooltipAlloc@ioBasicTooltipManager@@@std@@@4@$0A@@std@@@1@$$QAU?$pair@$$CBKUTooltipAlloc@ioBasicTooltipManager@@@1@@Z
	DD	01H
	DD	FLAT:__tryblocktable$??$_Buynode@U?$pair@$$CBKUTooltipAlloc@ioBasicTooltipManager@@@std@@@?$_Tree_val@V?$_Tmap_traits@KUTooltipAlloc@ioBasicTooltipManager@@U?$less@K@std@@V?$allocator@U?$pair@$$CBKUTooltipAlloc@ioBasicTooltipManager@@@std@@@4@$0A@@std@@@std@@QAEPAU_Node@?$_Tree_nod@V?$_Tmap_traits@KUTooltipAlloc@ioBasicTooltipManager@@U?$less@K@std@@V?$allocator@U?$pair@$$CBKUTooltipAlloc@ioBasicTooltipManager@@@std@@@4@$0A@@std@@@1@$$QAU?$pair@$$CBKUTooltipAlloc@ioBasicTooltipManager@@@1@@Z
	DD	2 DUP(00H)
	DD	00H
	DD	01H
; Function compile flags: /Ogsp
; File c:\program files (x86)\microsoft visual studio 10.0\vc\include\xtree
xdata$x	ENDS
;	COMDAT ??$_Buynode@U?$pair@$$CBKUTooltipAlloc@ioBasicTooltipManager@@@std@@@?$_Tree_val@V?$_Tmap_traits@KUTooltipAlloc@ioBasicTooltipManager@@U?$less@K@std@@V?$allocator@U?$pair@$$CBKUTooltipAlloc@ioBasicTooltipManager@@@std@@@4@$0A@@std@@@std@@QAEPAU_Node@?$_Tree_nod@V?$_Tmap_traits@KUTooltipAlloc@ioBasicTooltipManager@@U?$less@K@std@@V?$allocator@U?$pair@$$CBKUTooltipAlloc@ioBasicTooltipManager@@@std@@@4@$0A@@std@@@1@$$QAU?$pair@$$CBKUTooltipAlloc@ioBasicTooltipManager@@@1@@Z
_TEXT	SEGMENT
__Wherenode$ = -20					; size = 4
__$EHRec$ = -16						; size = 16
__Val$ = 8						; size = 4
??$_Buynode@U?$pair@$$CBKUTooltipAlloc@ioBasicTooltipManager@@@std@@@?$_Tree_val@V?$_Tmap_traits@KUTooltipAlloc@ioBasicTooltipManager@@U?$less@K@std@@V?$allocator@U?$pair@$$CBKUTooltipAlloc@ioBasicTooltipManager@@@std@@@4@$0A@@std@@@std@@QAEPAU_Node@?$_Tree_nod@V?$_Tmap_traits@KUTooltipAlloc@ioBasicTooltipManager@@U?$less@K@std@@V?$allocator@U?$pair@$$CBKUTooltipAlloc@ioBasicTooltipManager@@@std@@@4@$0A@@std@@@1@$$QAU?$pair@$$CBKUTooltipAlloc@ioBasicTooltipManager@@@1@@Z PROC ; std::_Tree_val<std::_Tmap_traits<unsigned long,ioBasicTooltipManager::TooltipAlloc,std::less<unsigned long>,std::allocator<std::pair<unsigned long const ,ioBasicTooltipManager::TooltipAlloc> >,0> >::_Buynode<std::pair<unsigned long const ,ioBasicTooltipManager::TooltipAlloc> >, COMDAT
; _this$ = ecx

; 586  : 		_Nodeptr _Buynode(_Valty&& _Val)

  00000	6a 08		 push	 8
  00002	b8 00 00 00 00	 mov	 eax, __ehhandler$??$_Buynode@U?$pair@$$CBKUTooltipAlloc@ioBasicTooltipManager@@@std@@@?$_Tree_val@V?$_Tmap_traits@KUTooltipAlloc@ioBasicTooltipManager@@U?$less@K@std@@V?$allocator@U?$pair@$$CBKUTooltipAlloc@ioBasicTooltipManager@@@std@@@4@$0A@@std@@@std@@QAEPAU_Node@?$_Tree_nod@V?$_Tmap_traits@KUTooltipAlloc@ioBasicTooltipManager@@U?$less@K@std@@V?$allocator@U?$pair@$$CBKUTooltipAlloc@ioBasicTooltipManager@@@std@@@4@$0A@@std@@@1@$$QAU?$pair@$$CBKUTooltipAlloc@ioBasicTooltipManager@@@1@@Z
  00007	e8 00 00 00 00	 call	 __EH_prolog3_catch
  0000c	8b f1		 mov	 esi, ecx

; 587  : 		{	// allocate a node with defaults
; 588  : 		_Nodeptr _Wherenode = _Buynode();

  0000e	e8 00 00 00 00	 call	 ?_Buynode@?$_Tree_val@V?$_Tmap_traits@KUTooltipAlloc@ioBasicTooltipManager@@U?$less@K@std@@V?$allocator@U?$pair@$$CBKUTooltipAlloc@ioBasicTooltipManager@@@std@@@4@$0A@@std@@@std@@QAEPAU_Node@?$_Tree_nod@V?$_Tmap_traits@KUTooltipAlloc@ioBasicTooltipManager@@U?$less@K@std@@V?$allocator@U?$pair@$$CBKUTooltipAlloc@ioBasicTooltipManager@@@std@@@4@$0A@@std@@@2@XZ ; std::_Tree_val<std::_Tmap_traits<unsigned long,ioBasicTooltipManager::TooltipAlloc,std::less<unsigned long>,std::allocator<std::pair<unsigned long const ,ioBasicTooltipManager::TooltipAlloc> >,0> >::_Buynode

; 589  : 
; 590  : 		_TRY_BEGIN
; 591  : 		_Cons_val(this->_Alval, _STD addressof(this->_Myval(_Wherenode)),
; 592  : 			_STD forward<_Valty>(_Val));

  00013	ff 75 08	 push	 DWORD PTR __Val$[ebp]
  00016	83 65 fc 00	 and	 DWORD PTR __$EHRec$[ebp+12], 0
  0001a	8b f8		 mov	 edi, eax
  0001c	8d 47 0c	 lea	 eax, DWORD PTR [edi+12]
  0001f	50		 push	 eax
  00020	8d 4e 0d	 lea	 ecx, DWORD PTR [esi+13]
  00023	89 7d ec	 mov	 DWORD PTR __Wherenode$[ebp], edi
  00026	e8 00 00 00 00	 call	 ?construct@?$allocator@U?$pair@$$CBKUTooltipAlloc@ioBasicTooltipManager@@@std@@@std@@QAEXPAU?$pair@$$CBKUTooltipAlloc@ioBasicTooltipManager@@@2@$$QAU32@@Z ; std::allocator<std::pair<unsigned long const ,ioBasicTooltipManager::TooltipAlloc> >::construct

; 596  : 		_CATCH_END
; 597  : 
; 598  : 		return (_Wherenode);

  0002b	8b c7		 mov	 eax, edi

; 599  : 		}

  0002d	e8 00 00 00 00	 call	 __EH_epilog3
  00032	c2 04 00	 ret	 4
__catch$??$_Buynode@U?$pair@$$CBKUTooltipAlloc@ioBasicTooltipManager@@@std@@@?$_Tree_val@V?$_Tmap_traits@KUTooltipAlloc@ioBasicTooltipManager@@U?$less@K@std@@V?$allocator@U?$pair@$$CBKUTooltipAlloc@ioBasicTooltipManager@@@std@@@4@$0A@@std@@@std@@QAEPAU_Node@?$_Tree_nod@V?$_Tmap_traits@KUTooltipAlloc@ioBasicTooltipManager@@U?$less@K@std@@V?$allocator@U?$pair@$$CBKUTooltipAlloc@ioBasicTooltipManager@@@std@@@4@$0A@@std@@@1@$$QAU?$pair@$$CBKUTooltipAlloc@ioBasicTooltipManager@@@1@@Z$0:

; 593  : 		_CATCH_ALL
; 594  : 		this->_Alnod.deallocate(_Wherenode, 1);

  00035	ff 75 ec	 push	 DWORD PTR __Wherenode$[ebp]
  00038	e8 00 00 00 00	 call	 ??3@YAXPAX@Z		; operator delete
  0003d	59		 pop	 ecx

; 595  : 		_RERAISE;

  0003e	6a 00		 push	 0
  00040	6a 00		 push	 0
  00042	e8 00 00 00 00	 call	 __CxxThrowException@8
$LN23@Buynode@2:
$LN22@Buynode@2:
  00047	cc		 int	 3
_TEXT	ENDS
;	COMDAT text$x
text$x	SEGMENT
__ehhandler$??$_Buynode@U?$pair@$$CBKUTooltipAlloc@ioBasicTooltipManager@@@std@@@?$_Tree_val@V?$_Tmap_traits@KUTooltipAlloc@ioBasicTooltipManager@@U?$less@K@std@@V?$allocator@U?$pair@$$CBKUTooltipAlloc@ioBasicTooltipManager@@@std@@@4@$0A@@std@@@std@@QAEPAU_Node@?$_Tree_nod@V?$_Tmap_traits@KUTooltipAlloc@ioBasicTooltipManager@@U?$less@K@std@@V?$allocator@U?$pair@$$CBKUTooltipAlloc@ioBasicTooltipManager@@@std@@@4@$0A@@std@@@1@$$QAU?$pair@$$CBKUTooltipAlloc@ioBasicTooltipManager@@@1@@Z:
  00000	8b 54 24 08	 mov	 edx, DWORD PTR [esp+8]
  00004	8d 42 0c	 lea	 eax, DWORD PTR [edx+12]
  00007	8b 4a e8	 mov	 ecx, DWORD PTR [edx-24]
  0000a	33 c8		 xor	 ecx, eax
  0000c	e8 00 00 00 00	 call	 @__security_check_cookie@4
  00011	b8 00 00 00 00	 mov	 eax, OFFSET __ehfuncinfo$??$_Buynode@U?$pair@$$CBKUTooltipAlloc@ioBasicTooltipManager@@@std@@@?$_Tree_val@V?$_Tmap_traits@KUTooltipAlloc@ioBasicTooltipManager@@U?$less@K@std@@V?$allocator@U?$pair@$$CBKUTooltipAlloc@ioBasicTooltipManager@@@std@@@4@$0A@@std@@@std@@QAEPAU_Node@?$_Tree_nod@V?$_Tmap_traits@KUTooltipAlloc@ioBasicTooltipManager@@U?$less@K@std@@V?$allocator@U?$pair@$$CBKUTooltipAlloc@ioBasicTooltipManager@@@std@@@4@$0A@@std@@@1@$$QAU?$pair@$$CBKUTooltipAlloc@ioBasicTooltipManager@@@1@@Z
  00016	e9 00 00 00 00	 jmp	 ___CxxFrameHandler3
text$x	ENDS
??$_Buynode@U?$pair@$$CBKUTooltipAlloc@ioBasicTooltipManager@@@std@@@?$_Tree_val@V?$_Tmap_traits@KUTooltipAlloc@ioBasicTooltipManager@@U?$less@K@std@@V?$allocator@U?$pair@$$CBKUTooltipAlloc@ioBasicTooltipManager@@@std@@@4@$0A@@std@@@std@@QAEPAU_Node@?$_Tree_nod@V?$_Tmap_traits@KUTooltipAlloc@ioBasicTooltipManager@@U?$less@K@std@@V?$allocator@U?$pair@$$CBKUTooltipAlloc@ioBasicTooltipManager@@@std@@@4@$0A@@std@@@1@$$QAU?$pair@$$CBKUTooltipAlloc@ioBasicTooltipManager@@@1@@Z ENDP ; std::_Tree_val<std::_Tmap_traits<unsigned long,ioBasicTooltipManager::TooltipAlloc,std::less<unsigned long>,std::allocator<std::pair<unsigned long const ,ioBasicTooltipManager::TooltipAlloc> >,0> >::_Buynode<std::pair<unsigned long const ,ioBasicTooltipManager::TooltipAlloc> >
PUBLIC	?erase@?$vector@UTooltipAlloc@ioBasicTooltipManager@@V?$allocator@UTooltipAlloc@ioBasicTooltipManager@@@std@@@std@@QAE?AV?$_Vector_iterator@V?$_Vector_val@UTooltipAlloc@ioBasicTooltipManager@@V?$allocator@UTooltipAlloc@ioBasicTooltipManager@@@std@@@std@@@2@V?$_Vector_const_iterator@V?$_Vector_val@UTooltipAlloc@ioBasicTooltipManager@@V?$allocator@UTooltipAlloc@ioBasicTooltipManager@@@std@@@std@@@2@0@Z ; std::vector<ioBasicTooltipManager::TooltipAlloc,std::allocator<ioBasicTooltipManager::TooltipAlloc> >::erase
; Function compile flags: /Ogsp
; File c:\program files (x86)\microsoft visual studio 10.0\vc\include\vector
;	COMDAT ?erase@?$vector@UTooltipAlloc@ioBasicTooltipManager@@V?$allocator@UTooltipAlloc@ioBasicTooltipManager@@@std@@@std@@QAE?AV?$_Vector_iterator@V?$_Vector_val@UTooltipAlloc@ioBasicTooltipManager@@V?$allocator@UTooltipAlloc@ioBasicTooltipManager@@@std@@@std@@@2@V?$_Vector_const_iterator@V?$_Vector_val@UTooltipAlloc@ioBasicTooltipManager@@V?$allocator@UTooltipAlloc@ioBasicTooltipManager@@@std@@@std@@@2@0@Z
_TEXT	SEGMENT
___$ReturnUdt$ = 8					; size = 4
__First_arg$ = 12					; size = 4
__Cat$512699 = 16					; size = 1
__Cat$512676 = 16					; size = 1
__Last_arg$ = 16					; size = 4
?erase@?$vector@UTooltipAlloc@ioBasicTooltipManager@@V?$allocator@UTooltipAlloc@ioBasicTooltipManager@@@std@@@std@@QAE?AV?$_Vector_iterator@V?$_Vector_val@UTooltipAlloc@ioBasicTooltipManager@@V?$allocator@UTooltipAlloc@ioBasicTooltipManager@@@std@@@std@@@2@V?$_Vector_const_iterator@V?$_Vector_val@UTooltipAlloc@ioBasicTooltipManager@@V?$allocator@UTooltipAlloc@ioBasicTooltipManager@@@std@@@std@@@2@0@Z PROC ; std::vector<ioBasicTooltipManager::TooltipAlloc,std::allocator<ioBasicTooltipManager::TooltipAlloc> >::erase, COMDAT
; _this$ = ecx

; 1190 : 		{	// erase [_First, _Last)

  00000	55		 push	 ebp
  00001	8b ec		 mov	 ebp, esp

; 1191 : 		iterator _First = _Make_iter(_First_arg);

  00003	8b 45 0c	 mov	 eax, DWORD PTR __First_arg$[ebp]
  00006	53		 push	 ebx
  00007	8b 5d 08	 mov	 ebx, DWORD PTR ___$ReturnUdt$[ebp]
  0000a	56		 push	 esi
  0000b	8b f1		 mov	 esi, ecx
  0000d	89 03		 mov	 DWORD PTR [ebx], eax

; 1192 : 		iterator _Last = _Make_iter(_Last_arg);
; 1193 : 
; 1194 : 		if (_First != _Last)

  0000f	3b 45 10	 cmp	 eax, DWORD PTR __Last_arg$[ebp]
  00012	74 2a		 je	 SHORT $LN1@erase@3

; 1195 : 			{	// worth doing, copy down over hole
; 1196 :  #if _ITERATOR_DEBUG_LEVEL == 2
; 1197 : 			if (_Last < _First || _VICONT(_First) != this
; 1198 : 				|| _VIPTR(_First) < this->_Myfirst
; 1199 : 				|| this->_Mylast < _VIPTR(_Last))
; 1200 : 				_DEBUG_ERROR("vector erase iterator outside range");
; 1201 : 			pointer _Ptr = _Move(_VIPTR(_Last), this->_Mylast,
; 1202 : 				_VIPTR(_First));
; 1203 : 			_Orphan_range(_VIPTR(_First), this->_Mylast);
; 1204 : 
; 1205 :  #else /* _ITERATOR_DEBUG_LEVEL == 2 */
; 1206 : 			pointer _Ptr = _Move(_VIPTR(_Last), this->_Mylast,
; 1207 : 				_VIPTR(_First));

  00014	8b 4e 04	 mov	 ecx, DWORD PTR [esi+4]
  00017	57		 push	 edi
  00018	ff 75 10	 push	 DWORD PTR __Cat$512676[ebp]
  0001b	50		 push	 eax
  0001c	51		 push	 ecx
  0001d	ff 75 10	 push	 DWORD PTR __Last_arg$[ebp]
  00020	e8 00 00 00 00	 call	 ??$_Move@PAUTooltipAlloc@ioBasicTooltipManager@@PAU12@@std@@YAPAUTooltipAlloc@ioBasicTooltipManager@@PAU12@00U_Nonscalar_ptr_iterator_tag@0@@Z ; std::_Move<ioBasicTooltipManager::TooltipAlloc *,ioBasicTooltipManager::TooltipAlloc *>

; 1208 :  #endif /* _ITERATOR_DEBUG_LEVEL == 2 */
; 1209 : 
; 1210 : 			_Destroy(_Ptr, this->_Mylast);

  00025	ff 75 10	 push	 DWORD PTR __Cat$512699[ebp]
  00028	8b f8		 mov	 edi, eax
  0002a	8d 46 0c	 lea	 eax, DWORD PTR [esi+12]
  0002d	50		 push	 eax
  0002e	ff 76 04	 push	 DWORD PTR [esi+4]
  00031	57		 push	 edi
  00032	e8 00 00 00 00	 call	 ??$_Destroy_range@V?$allocator@UTooltipAlloc@ioBasicTooltipManager@@@std@@@std@@YAXPAUTooltipAlloc@ioBasicTooltipManager@@0AAV?$allocator@UTooltipAlloc@ioBasicTooltipManager@@@0@U_Nonscalar_ptr_iterator_tag@0@@Z ; std::_Destroy_range<std::allocator<ioBasicTooltipManager::TooltipAlloc> >
  00037	83 c4 20	 add	 esp, 32			; 00000020H

; 1211 : 			this->_Mylast = _Ptr;

  0003a	89 7e 04	 mov	 DWORD PTR [esi+4], edi
  0003d	5f		 pop	 edi
$LN1@erase@3:

; 1212 : 			}
; 1213 : 		return (_First);

  0003e	5e		 pop	 esi
  0003f	8b c3		 mov	 eax, ebx
  00041	5b		 pop	 ebx

; 1214 : 		}

  00042	5d		 pop	 ebp
  00043	c2 0c 00	 ret	 12			; 0000000cH
?erase@?$vector@UTooltipAlloc@ioBasicTooltipManager@@V?$allocator@UTooltipAlloc@ioBasicTooltipManager@@@std@@@std@@QAE?AV?$_Vector_iterator@V?$_Vector_val@UTooltipAlloc@ioBasicTooltipManager@@V?$allocator@UTooltipAlloc@ioBasicTooltipManager@@@std@@@std@@@2@V?$_Vector_const_iterator@V?$_Vector_val@UTooltipAlloc@ioBasicTooltipManager@@V?$allocator@UTooltipAlloc@ioBasicTooltipManager@@@std@@@std@@@2@0@Z ENDP ; std::vector<ioBasicTooltipManager::TooltipAlloc,std::allocator<ioBasicTooltipManager::TooltipAlloc> >::erase
_TEXT	ENDS
PUBLIC	?_Tidy@?$vector@UTooltipAlloc@ioBasicTooltipManager@@V?$allocator@UTooltipAlloc@ioBasicTooltipManager@@@std@@@std@@IAEXXZ ; std::vector<ioBasicTooltipManager::TooltipAlloc,std::allocator<ioBasicTooltipManager::TooltipAlloc> >::_Tidy
EXTRN	__imp_?_Orphan_all@_Container_base0@std@@QAEXXZ:PROC
; Function compile flags: /Ogsp
;	COMDAT ?_Tidy@?$vector@UTooltipAlloc@ioBasicTooltipManager@@V?$allocator@UTooltipAlloc@ioBasicTooltipManager@@@std@@@std@@IAEXXZ
_TEXT	SEGMENT
__Cat$512723 = -4					; size = 1
?_Tidy@?$vector@UTooltipAlloc@ioBasicTooltipManager@@V?$allocator@UTooltipAlloc@ioBasicTooltipManager@@@std@@@std@@IAEXXZ PROC ; std::vector<ioBasicTooltipManager::TooltipAlloc,std::allocator<ioBasicTooltipManager::TooltipAlloc> >::_Tidy, COMDAT
; _this$ = ecx

; 1301 : 		{	// free all storage

  00000	55		 push	 ebp
  00001	8b ec		 mov	 ebp, esp
  00003	51		 push	 ecx
  00004	56		 push	 esi
  00005	8b f1		 mov	 esi, ecx

; 1302 : 		if (this->_Myfirst != 0)

  00007	83 3e 00	 cmp	 DWORD PTR [esi], 0
  0000a	74 21		 je	 SHORT $LN10@Tidy@2

; 1303 : 			{	// something to free, destroy and deallocate it
; 1304 : 			this->_Orphan_all();

  0000c	ff 15 00 00 00
	00		 call	 DWORD PTR __imp_?_Orphan_all@_Container_base0@std@@QAEXXZ

; 1305 : 			_Destroy(this->_Myfirst, this->_Mylast);

  00012	ff 75 fc	 push	 DWORD PTR __Cat$512723[ebp]
  00015	8d 46 0c	 lea	 eax, DWORD PTR [esi+12]
  00018	50		 push	 eax
  00019	ff 76 04	 push	 DWORD PTR [esi+4]
  0001c	ff 36		 push	 DWORD PTR [esi]
  0001e	e8 00 00 00 00	 call	 ??$_Destroy_range@V?$allocator@UTooltipAlloc@ioBasicTooltipManager@@@std@@@std@@YAXPAUTooltipAlloc@ioBasicTooltipManager@@0AAV?$allocator@UTooltipAlloc@ioBasicTooltipManager@@@0@U_Nonscalar_ptr_iterator_tag@0@@Z ; std::_Destroy_range<std::allocator<ioBasicTooltipManager::TooltipAlloc> >

; 1306 : 			this->_Alval.deallocate(this->_Myfirst,
; 1307 : 				this->_Myend - this->_Myfirst);

  00023	ff 36		 push	 DWORD PTR [esi]
  00025	e8 00 00 00 00	 call	 ??3@YAXPAX@Z		; operator delete
  0002a	83 c4 14	 add	 esp, 20			; 00000014H
$LN10@Tidy@2:

; 1308 : 			}
; 1309 : 		this->_Myfirst = 0;

  0002d	83 26 00	 and	 DWORD PTR [esi], 0

; 1310 : 		this->_Mylast = 0;

  00030	83 66 04 00	 and	 DWORD PTR [esi+4], 0

; 1311 : 		this->_Myend = 0;

  00034	83 66 08 00	 and	 DWORD PTR [esi+8], 0
  00038	5e		 pop	 esi

; 1312 : 		}

  00039	c9		 leave
  0003a	c3		 ret	 0
?_Tidy@?$vector@UTooltipAlloc@ioBasicTooltipManager@@V?$allocator@UTooltipAlloc@ioBasicTooltipManager@@@std@@@std@@IAEXXZ ENDP ; std::vector<ioBasicTooltipManager::TooltipAlloc,std::allocator<ioBasicTooltipManager::TooltipAlloc> >::_Tidy
_TEXT	ENDS
PUBLIC	?erase@?$_Tree@V?$_Tmap_traits@KUTooltipAlloc@ioBasicTooltipManager@@U?$less@K@std@@V?$allocator@U?$pair@$$CBKUTooltipAlloc@ioBasicTooltipManager@@@std@@@4@$0A@@std@@@std@@QAE?AV?$_Tree_iterator@V?$_Tree_val@V?$_Tmap_traits@KUTooltipAlloc@ioBasicTooltipManager@@U?$less@K@std@@V?$allocator@U?$pair@$$CBKUTooltipAlloc@ioBasicTooltipManager@@@std@@@4@$0A@@std@@@std@@@2@V?$_Tree_const_iterator@V?$_Tree_val@V?$_Tmap_traits@KUTooltipAlloc@ioBasicTooltipManager@@U?$less@K@std@@V?$allocator@U?$pair@$$CBKUTooltipAlloc@ioBasicTooltipManager@@@std@@@4@$0A@@std@@@std@@@2@0@Z ; std::_Tree<std::_Tmap_traits<unsigned long,ioBasicTooltipManager::TooltipAlloc,std::less<unsigned long>,std::allocator<std::pair<unsigned long const ,ioBasicTooltipManager::TooltipAlloc> >,0> >::erase
; Function compile flags: /Ogsp
; File c:\program files (x86)\microsoft visual studio 10.0\vc\include\xtree
;	COMDAT ?erase@?$_Tree@V?$_Tmap_traits@KUTooltipAlloc@ioBasicTooltipManager@@U?$less@K@std@@V?$allocator@U?$pair@$$CBKUTooltipAlloc@ioBasicTooltipManager@@@std@@@4@$0A@@std@@@std@@QAE?AV?$_Tree_iterator@V?$_Tree_val@V?$_Tmap_traits@KUTooltipAlloc@ioBasicTooltipManager@@U?$less@K@std@@V?$allocator@U?$pair@$$CBKUTooltipAlloc@ioBasicTooltipManager@@@std@@@4@$0A@@std@@@std@@@2@V?$_Tree_const_iterator@V?$_Tree_val@V?$_Tmap_traits@KUTooltipAlloc@ioBasicTooltipManager@@U?$less@K@std@@V?$allocator@U?$pair@$$CBKUTooltipAlloc@ioBasicTooltipManager@@@std@@@4@$0A@@std@@@std@@@2@0@Z
_TEXT	SEGMENT
$T512738 = -4						; size = 4
___$ReturnUdt$ = 8					; size = 4
__First$ = 12						; size = 4
__Last$ = 16						; size = 4
?erase@?$_Tree@V?$_Tmap_traits@KUTooltipAlloc@ioBasicTooltipManager@@U?$less@K@std@@V?$allocator@U?$pair@$$CBKUTooltipAlloc@ioBasicTooltipManager@@@std@@@4@$0A@@std@@@std@@QAE?AV?$_Tree_iterator@V?$_Tree_val@V?$_Tmap_traits@KUTooltipAlloc@ioBasicTooltipManager@@U?$less@K@std@@V?$allocator@U?$pair@$$CBKUTooltipAlloc@ioBasicTooltipManager@@@std@@@4@$0A@@std@@@std@@@2@V?$_Tree_const_iterator@V?$_Tree_val@V?$_Tmap_traits@KUTooltipAlloc@ioBasicTooltipManager@@U?$less@K@std@@V?$allocator@U?$pair@$$CBKUTooltipAlloc@ioBasicTooltipManager@@@std@@@4@$0A@@std@@@std@@@2@0@Z PROC ; std::_Tree<std::_Tmap_traits<unsigned long,ioBasicTooltipManager::TooltipAlloc,std::less<unsigned long>,std::allocator<std::pair<unsigned long const ,ioBasicTooltipManager::TooltipAlloc> >,0> >::erase, COMDAT
; _this$ = ecx

; 1379 : 		{	// erase [_First, _Last)

  00000	55		 push	 ebp
  00001	8b ec		 mov	 ebp, esp
  00003	51		 push	 ecx
  00004	56		 push	 esi
  00005	8b f1		 mov	 esi, ecx

; 1380 : 		if (_First == begin() && _Last == end())

  00007	8b 46 04	 mov	 eax, DWORD PTR [esi+4]
  0000a	8b 4d 0c	 mov	 ecx, DWORD PTR __First$[ebp]
  0000d	3b 08		 cmp	 ecx, DWORD PTR [eax]
  0000f	75 13		 jne	 SHORT $LN65@erase@4
  00011	39 45 10	 cmp	 DWORD PTR __Last$[ebp], eax
  00014	75 0e		 jne	 SHORT $LN65@erase@4

; 1381 : 			{	// erase all
; 1382 : 			clear();

  00016	8b ce		 mov	 ecx, esi
  00018	e8 00 00 00 00	 call	 ?clear@?$_Tree@V?$_Tmap_traits@KUTooltipAlloc@ioBasicTooltipManager@@U?$less@K@std@@V?$allocator@U?$pair@$$CBKUTooltipAlloc@ioBasicTooltipManager@@@std@@@4@$0A@@std@@@std@@QAEXXZ ; std::_Tree<std::_Tmap_traits<unsigned long,ioBasicTooltipManager::TooltipAlloc,std::less<unsigned long>,std::allocator<std::pair<unsigned long const ,ioBasicTooltipManager::TooltipAlloc> >,0> >::clear

; 1383 : 			return (begin());

  0001d	8b 46 04	 mov	 eax, DWORD PTR [esi+4]
  00020	8b 08		 mov	 ecx, DWORD PTR [eax]
  00022	eb 25		 jmp	 SHORT $LN1@erase@4
$LN65@erase@4:

; 1384 : 			}
; 1385 : 		else
; 1386 : 			{	// partial erase, one at a time
; 1387 : 			while (_First != _Last)

  00024	3b 4d 10	 cmp	 ecx, DWORD PTR __Last$[ebp]
  00027	74 20		 je	 SHORT $LN1@erase@4
  00029	57		 push	 edi
$LL2@erase@4:

; 1388 : 				erase(_First++);

  0002a	8b f9		 mov	 edi, ecx
  0002c	8d 4d 0c	 lea	 ecx, DWORD PTR __First$[ebp]
  0002f	e8 00 00 00 00	 call	 ??E?$_Tree_unchecked_const_iterator@V?$_Tree_val@V?$_Tmap_traits@KUTooltipAlloc@ioBasicTooltipManager@@U?$less@K@std@@V?$allocator@U?$pair@$$CBKUTooltipAlloc@ioBasicTooltipManager@@@std@@@4@$0A@@std@@@std@@U_Iterator_base0@2@@std@@QAEAAV01@XZ ; std::_Tree_unchecked_const_iterator<std::_Tree_val<std::_Tmap_traits<unsigned long,ioBasicTooltipManager::TooltipAlloc,std::less<unsigned long>,std::allocator<std::pair<unsigned long const ,ioBasicTooltipManager::TooltipAlloc> >,0> >,std::_Iterator_base0>::operator++
  00034	57		 push	 edi
  00035	8d 45 fc	 lea	 eax, DWORD PTR $T512738[ebp]
  00038	50		 push	 eax
  00039	8b ce		 mov	 ecx, esi
  0003b	e8 00 00 00 00	 call	 ?erase@?$_Tree@V?$_Tmap_traits@KUTooltipAlloc@ioBasicTooltipManager@@U?$less@K@std@@V?$allocator@U?$pair@$$CBKUTooltipAlloc@ioBasicTooltipManager@@@std@@@4@$0A@@std@@@std@@QAE?AV?$_Tree_iterator@V?$_Tree_val@V?$_Tmap_traits@KUTooltipAlloc@ioBasicTooltipManager@@U?$less@K@std@@V?$allocator@U?$pair@$$CBKUTooltipAlloc@ioBasicTooltipManager@@@std@@@4@$0A@@std@@@std@@@2@V?$_Tree_const_iterator@V?$_Tree_val@V?$_Tmap_traits@KUTooltipAlloc@ioBasicTooltipManager@@U?$less@K@std@@V?$allocator@U?$pair@$$CBKUTooltipAlloc@ioBasicTooltipManager@@@std@@@4@$0A@@std@@@std@@@2@@Z ; std::_Tree<std::_Tmap_traits<unsigned long,ioBasicTooltipManager::TooltipAlloc,std::less<unsigned long>,std::allocator<std::pair<unsigned long const ,ioBasicTooltipManager::TooltipAlloc> >,0> >::erase
  00040	8b 4d 0c	 mov	 ecx, DWORD PTR __First$[ebp]
  00043	3b 4d 10	 cmp	 ecx, DWORD PTR __Last$[ebp]
  00046	75 e2		 jne	 SHORT $LL2@erase@4
  00048	5f		 pop	 edi
$LN1@erase@4:

; 1389 : 			return (iterator(_First._Ptr, this));

  00049	8b 45 08	 mov	 eax, DWORD PTR ___$ReturnUdt$[ebp]
  0004c	89 08		 mov	 DWORD PTR [eax], ecx
  0004e	5e		 pop	 esi

; 1390 : 			}
; 1391 : 		}

  0004f	c9		 leave
  00050	c2 0c 00	 ret	 12			; 0000000cH
?erase@?$_Tree@V?$_Tmap_traits@KUTooltipAlloc@ioBasicTooltipManager@@U?$less@K@std@@V?$allocator@U?$pair@$$CBKUTooltipAlloc@ioBasicTooltipManager@@@std@@@4@$0A@@std@@@std@@QAE?AV?$_Tree_iterator@V?$_Tree_val@V?$_Tmap_traits@KUTooltipAlloc@ioBasicTooltipManager@@U?$less@K@std@@V?$allocator@U?$pair@$$CBKUTooltipAlloc@ioBasicTooltipManager@@@std@@@4@$0A@@std@@@std@@@2@V?$_Tree_const_iterator@V?$_Tree_val@V?$_Tmap_traits@KUTooltipAlloc@ioBasicTooltipManager@@U?$less@K@std@@V?$allocator@U?$pair@$$CBKUTooltipAlloc@ioBasicTooltipManager@@@std@@@4@$0A@@std@@@std@@@2@0@Z ENDP ; std::_Tree<std::_Tmap_traits<unsigned long,ioBasicTooltipManager::TooltipAlloc,std::less<unsigned long>,std::allocator<std::pair<unsigned long const ,ioBasicTooltipManager::TooltipAlloc> >,0> >::erase
_TEXT	ENDS
PUBLIC	?reserve@?$vector@UTooltipAlloc@ioBasicTooltipManager@@V?$allocator@UTooltipAlloc@ioBasicTooltipManager@@@std@@@std@@QAEXI@Z ; std::vector<ioBasicTooltipManager::TooltipAlloc,std::allocator<ioBasicTooltipManager::TooltipAlloc> >::reserve
;	COMDAT xdata$x
; File c:\program files (x86)\microsoft visual studio 10.0\vc\include\xmemory
xdata$x	SEGMENT
__catchsym$?reserve@?$vector@UTooltipAlloc@ioBasicTooltipManager@@V?$allocator@UTooltipAlloc@ioBasicTooltipManager@@@std@@@std@@QAEXI@Z$2 DD 040H
	DD	00H
	DD	00H
	DD	FLAT:__catch$?reserve@?$vector@UTooltipAlloc@ioBasicTooltipManager@@V?$allocator@UTooltipAlloc@ioBasicTooltipManager@@@std@@@std@@QAEXI@Z$0
__unwindtable$?reserve@?$vector@UTooltipAlloc@ioBasicTooltipManager@@V?$allocator@UTooltipAlloc@ioBasicTooltipManager@@@std@@@std@@QAEXI@Z DD 0ffffffffH
	DD	00H
	DD	0ffffffffH
	DD	00H
__tryblocktable$?reserve@?$vector@UTooltipAlloc@ioBasicTooltipManager@@V?$allocator@UTooltipAlloc@ioBasicTooltipManager@@@std@@@std@@QAEXI@Z DD 00H
	DD	00H
	DD	01H
	DD	01H
	DD	FLAT:__catchsym$?reserve@?$vector@UTooltipAlloc@ioBasicTooltipManager@@V?$allocator@UTooltipAlloc@ioBasicTooltipManager@@@std@@@std@@QAEXI@Z$2
__ehfuncinfo$?reserve@?$vector@UTooltipAlloc@ioBasicTooltipManager@@V?$allocator@UTooltipAlloc@ioBasicTooltipManager@@@std@@@std@@QAEXI@Z DD 019930522H
	DD	02H
	DD	FLAT:__unwindtable$?reserve@?$vector@UTooltipAlloc@ioBasicTooltipManager@@V?$allocator@UTooltipAlloc@ioBasicTooltipManager@@@std@@@std@@QAEXI@Z
	DD	01H
	DD	FLAT:__tryblocktable$?reserve@?$vector@UTooltipAlloc@ioBasicTooltipManager@@V?$allocator@UTooltipAlloc@ioBasicTooltipManager@@@std@@@std@@QAEXI@Z
	DD	2 DUP(00H)
	DD	00H
	DD	01H
; Function compile flags: /Ogsp
; File c:\program files (x86)\microsoft visual studio 10.0\vc\include\vector
xdata$x	ENDS
;	COMDAT ?reserve@?$vector@UTooltipAlloc@ioBasicTooltipManager@@V?$allocator@UTooltipAlloc@ioBasicTooltipManager@@@std@@@std@@QAEXI@Z
_TEXT	SEGMENT
__$EHRec$ = -16						; size = 16
__Cat$512985 = 8					; size = 1
__Ptr$507193 = 8					; size = 4
__Count$ = 8						; size = 4
?reserve@?$vector@UTooltipAlloc@ioBasicTooltipManager@@V?$allocator@UTooltipAlloc@ioBasicTooltipManager@@@std@@@std@@QAEXI@Z PROC ; std::vector<ioBasicTooltipManager::TooltipAlloc,std::allocator<ioBasicTooltipManager::TooltipAlloc> >::reserve, COMDAT
; _this$ = ecx

; 746  : 		{	// determine new minimum length of allocated storage

  00000	6a 04		 push	 4
  00002	b8 00 00 00 00	 mov	 eax, __ehhandler$?reserve@?$vector@UTooltipAlloc@ioBasicTooltipManager@@V?$allocator@UTooltipAlloc@ioBasicTooltipManager@@@std@@@std@@QAEXI@Z
  00007	e8 00 00 00 00	 call	 __EH_prolog3_catch
  0000c	8b f1		 mov	 esi, ecx

; 747  : 		if (max_size() < _Count)

  0000e	8b 5d 08	 mov	 ebx, DWORD PTR __Count$[ebp]
  00011	81 fb ff ff ff
	07		 cmp	 ebx, 134217727		; 07ffffffH
  00017	76 0b		 jbe	 SHORT $LN5@reserve

; 748  : 			_Xlen();	// result too long

  00019	68 00 00 00 00	 push	 OFFSET ??_C@_0BD@OLBABOEK@vector?$DMT?$DO?5too?5long?$AA@
  0001e	ff 15 00 00 00
	00		 call	 DWORD PTR __imp_?_Xlength_error@std@@YAXPBD@Z
$LN42@reserve:
$LN5@reserve:

; 749  : 		else if (capacity() < _Count)

  00024	8b 46 08	 mov	 eax, DWORD PTR [esi+8]
  00027	2b 06		 sub	 eax, DWORD PTR [esi]
  00029	c1 f8 05	 sar	 eax, 5
  0002c	3b c3		 cmp	 eax, ebx
  0002e	73 6b		 jae	 SHORT $LN3@reserve

; 750  : 			{	// not enough room, reallocate
; 751  : 			pointer _Ptr = this->_Alval.allocate(_Count);

  00030	6a 00		 push	 0
  00032	53		 push	 ebx
  00033	e8 00 00 00 00	 call	 ??$_Allocate@UTooltipAlloc@ioBasicTooltipManager@@@std@@YAPAUTooltipAlloc@ioBasicTooltipManager@@IPAU12@@Z ; std::_Allocate<ioBasicTooltipManager::TooltipAlloc>

; 752  : 
; 753  : 			_TRY_BEGIN
; 754  : 			_Umove(this->_Myfirst, this->_Mylast, _Ptr);

  00038	8b 0e		 mov	 ecx, DWORD PTR [esi]
  0003a	83 65 fc 00	 and	 DWORD PTR __$EHRec$[ebp+12], 0
  0003e	8d 56 0c	 lea	 edx, DWORD PTR [esi+12]
  00041	52		 push	 edx
  00042	89 45 08	 mov	 DWORD PTR __Ptr$507193[ebp], eax
  00045	ff 75 08	 push	 DWORD PTR __Ptr$507193[ebp]
  00048	8b 46 04	 mov	 eax, DWORD PTR [esi+4]
  0004b	50		 push	 eax
  0004c	51		 push	 ecx
  0004d	e8 00 00 00 00	 call	 ??$_Uninitialized_move@PAUTooltipAlloc@ioBasicTooltipManager@@PAU12@V?$allocator@UTooltipAlloc@ioBasicTooltipManager@@@std@@@std@@YAPAUTooltipAlloc@ioBasicTooltipManager@@PAU12@00AAV?$allocator@UTooltipAlloc@ioBasicTooltipManager@@@0@@Z ; std::_Uninitialized_move<ioBasicTooltipManager::TooltipAlloc *,ioBasicTooltipManager::TooltipAlloc *,std::allocator<ioBasicTooltipManager::TooltipAlloc> >

; 758  : 			_CATCH_END
; 759  : 
; 760  : 			size_type _Size = size();

  00052	8b 4e 04	 mov	 ecx, DWORD PTR [esi+4]
  00055	8b 06		 mov	 eax, DWORD PTR [esi]
  00057	83 4d fc ff	 or	 DWORD PTR __$EHRec$[ebp+12], -1
  0005b	8b f9		 mov	 edi, ecx
  0005d	83 c4 18	 add	 esp, 24			; 00000018H
  00060	2b f8		 sub	 edi, eax
  00062	85 c0		 test	 eax, eax
  00064	74 18		 je	 SHORT $LN37@reserve

; 761  : 			if (this->_Myfirst != 0)
; 762  : 				{	// destroy and deallocate old array
; 763  : 				_Destroy(this->_Myfirst, this->_Mylast);

  00066	ff 75 08	 push	 DWORD PTR __Cat$512985[ebp]
  00069	8d 56 0c	 lea	 edx, DWORD PTR [esi+12]
  0006c	52		 push	 edx
  0006d	51		 push	 ecx
  0006e	50		 push	 eax
  0006f	e8 00 00 00 00	 call	 ??$_Destroy_range@V?$allocator@UTooltipAlloc@ioBasicTooltipManager@@@std@@@std@@YAXPAUTooltipAlloc@ioBasicTooltipManager@@0AAV?$allocator@UTooltipAlloc@ioBasicTooltipManager@@@0@U_Nonscalar_ptr_iterator_tag@0@@Z ; std::_Destroy_range<std::allocator<ioBasicTooltipManager::TooltipAlloc> >

; 764  : 				this->_Alval.deallocate(this->_Myfirst,
; 765  : 					this->_Myend - this->_Myfirst);

  00074	ff 36		 push	 DWORD PTR [esi]
  00076	e8 00 00 00 00	 call	 ??3@YAXPAX@Z		; operator delete
  0007b	83 c4 14	 add	 esp, 20			; 00000014H
$LN37@reserve:

; 766  : 				}
; 767  : 
; 768  : 			this->_Orphan_all();

  0007e	8b ce		 mov	 ecx, esi
  00080	ff 15 00 00 00
	00		 call	 DWORD PTR __imp_?_Orphan_all@_Container_base0@std@@QAEXXZ

; 769  : 			this->_Myend = _Ptr + _Count;

  00086	8b 45 08	 mov	 eax, DWORD PTR __Ptr$507193[ebp]
  00089	c1 e3 05	 shl	 ebx, 5
  0008c	03 d8		 add	 ebx, eax

; 770  : 			this->_Mylast = _Ptr + _Size;

  0008e	83 e7 e0	 and	 edi, -32		; ffffffe0H
  00091	03 f8		 add	 edi, eax
  00093	89 5e 08	 mov	 DWORD PTR [esi+8], ebx
  00096	89 7e 04	 mov	 DWORD PTR [esi+4], edi

; 771  : 			this->_Myfirst = _Ptr;

  00099	89 06		 mov	 DWORD PTR [esi], eax
$LN3@reserve:

; 772  : 			}
; 773  : 		}

  0009b	e8 00 00 00 00	 call	 __EH_epilog3
  000a0	c2 04 00	 ret	 4
__catch$?reserve@?$vector@UTooltipAlloc@ioBasicTooltipManager@@V?$allocator@UTooltipAlloc@ioBasicTooltipManager@@@std@@@std@@QAEXI@Z$0:

; 755  : 			_CATCH_ALL
; 756  : 			this->_Alval.deallocate(_Ptr, _Count);

  000a3	ff 75 08	 push	 DWORD PTR __Ptr$507193[ebp]
  000a6	e8 00 00 00 00	 call	 ??3@YAXPAX@Z		; operator delete
  000ab	59		 pop	 ecx

; 757  : 			_RERAISE;

  000ac	6a 00		 push	 0
  000ae	6a 00		 push	 0
  000b0	e8 00 00 00 00	 call	 __CxxThrowException@8
$LN43@reserve:
$LN41@reserve:
  000b5	cc		 int	 3
_TEXT	ENDS
;	COMDAT text$x
text$x	SEGMENT
__ehhandler$?reserve@?$vector@UTooltipAlloc@ioBasicTooltipManager@@V?$allocator@UTooltipAlloc@ioBasicTooltipManager@@@std@@@std@@QAEXI@Z:
  00000	8b 54 24 08	 mov	 edx, DWORD PTR [esp+8]
  00004	8d 42 0c	 lea	 eax, DWORD PTR [edx+12]
  00007	8b 4a ec	 mov	 ecx, DWORD PTR [edx-20]
  0000a	33 c8		 xor	 ecx, eax
  0000c	e8 00 00 00 00	 call	 @__security_check_cookie@4
  00011	b8 00 00 00 00	 mov	 eax, OFFSET __ehfuncinfo$?reserve@?$vector@UTooltipAlloc@ioBasicTooltipManager@@V?$allocator@UTooltipAlloc@ioBasicTooltipManager@@@std@@@std@@QAEXI@Z
  00016	e9 00 00 00 00	 jmp	 ___CxxFrameHandler3
text$x	ENDS
?reserve@?$vector@UTooltipAlloc@ioBasicTooltipManager@@V?$allocator@UTooltipAlloc@ioBasicTooltipManager@@@std@@@std@@QAEXI@Z ENDP ; std::vector<ioBasicTooltipManager::TooltipAlloc,std::allocator<ioBasicTooltipManager::TooltipAlloc> >::reserve
PUBLIC	??$insert@U?$pair@$$CBKUTooltipAlloc@ioBasicTooltipManager@@@std@@@?$_Tree@V?$_Tmap_traits@KUTooltipAlloc@ioBasicTooltipManager@@U?$less@K@std@@V?$allocator@U?$pair@$$CBKUTooltipAlloc@ioBasicTooltipManager@@@std@@@4@$0A@@std@@@std@@QAE?AU?$pair@V?$_Tree_iterator@V?$_Tree_val@V?$_Tmap_traits@KUTooltipAlloc@ioBasicTooltipManager@@U?$less@K@std@@V?$allocator@U?$pair@$$CBKUTooltipAlloc@ioBasicTooltipManager@@@std@@@4@$0A@@std@@@std@@@std@@_N@1@$$QAU?$pair@$$CBKUTooltipAlloc@ioBasicTooltipManager@@@1@@Z ; std::_Tree<std::_Tmap_traits<unsigned long,ioBasicTooltipManager::TooltipAlloc,std::less<unsigned long>,std::allocator<std::pair<unsigned long const ,ioBasicTooltipManager::TooltipAlloc> >,0> >::insert<std::pair<unsigned long const ,ioBasicTooltipManager::TooltipAlloc> >
; Function compile flags: /Ogsp
; File c:\program files (x86)\microsoft visual studio 10.0\vc\include\xtree
;	COMDAT ??$insert@U?$pair@$$CBKUTooltipAlloc@ioBasicTooltipManager@@@std@@@?$_Tree@V?$_Tmap_traits@KUTooltipAlloc@ioBasicTooltipManager@@U?$less@K@std@@V?$allocator@U?$pair@$$CBKUTooltipAlloc@ioBasicTooltipManager@@@std@@@4@$0A@@std@@@std@@QAE?AU?$pair@V?$_Tree_iterator@V?$_Tree_val@V?$_Tmap_traits@KUTooltipAlloc@ioBasicTooltipManager@@U?$less@K@std@@V?$allocator@U?$pair@$$CBKUTooltipAlloc@ioBasicTooltipManager@@@std@@@4@$0A@@std@@@std@@@std@@_N@1@$$QAU?$pair@$$CBKUTooltipAlloc@ioBasicTooltipManager@@@1@@Z
_TEXT	SEGMENT
___$ReturnUdt$ = 8					; size = 4
__Val$ = 12						; size = 4
??$insert@U?$pair@$$CBKUTooltipAlloc@ioBasicTooltipManager@@@std@@@?$_Tree@V?$_Tmap_traits@KUTooltipAlloc@ioBasicTooltipManager@@U?$less@K@std@@V?$allocator@U?$pair@$$CBKUTooltipAlloc@ioBasicTooltipManager@@@std@@@4@$0A@@std@@@std@@QAE?AU?$pair@V?$_Tree_iterator@V?$_Tree_val@V?$_Tmap_traits@KUTooltipAlloc@ioBasicTooltipManager@@U?$less@K@std@@V?$allocator@U?$pair@$$CBKUTooltipAlloc@ioBasicTooltipManager@@@std@@@4@$0A@@std@@@std@@@std@@_N@1@$$QAU?$pair@$$CBKUTooltipAlloc@ioBasicTooltipManager@@@1@@Z PROC ; std::_Tree<std::_Tmap_traits<unsigned long,ioBasicTooltipManager::TooltipAlloc,std::less<unsigned long>,std::allocator<std::pair<unsigned long const ,ioBasicTooltipManager::TooltipAlloc> >,0> >::insert<std::pair<unsigned long const ,ioBasicTooltipManager::TooltipAlloc> >, COMDAT
; _this$ = ecx

; 753  : 		_Pairib insert(_Valty&& _Val)

  00000	55		 push	 ebp
  00001	8b ec		 mov	 ebp, esp
  00003	56		 push	 esi

; 754  : 		{	// try to insert node with value _Val, favoring right side
; 755  : 		return (_Linsert(this->_Buynode(_STD forward<_Valty>(_Val)),
; 756  : 			false));

  00004	6a 00		 push	 0
  00006	ff 75 0c	 push	 DWORD PTR __Val$[ebp]
  00009	8b f1		 mov	 esi, ecx
  0000b	e8 00 00 00 00	 call	 ??$_Buynode@U?$pair@$$CBKUTooltipAlloc@ioBasicTooltipManager@@@std@@@?$_Tree_val@V?$_Tmap_traits@KUTooltipAlloc@ioBasicTooltipManager@@U?$less@K@std@@V?$allocator@U?$pair@$$CBKUTooltipAlloc@ioBasicTooltipManager@@@std@@@4@$0A@@std@@@std@@QAEPAU_Node@?$_Tree_nod@V?$_Tmap_traits@KUTooltipAlloc@ioBasicTooltipManager@@U?$less@K@std@@V?$allocator@U?$pair@$$CBKUTooltipAlloc@ioBasicTooltipManager@@@std@@@4@$0A@@std@@@1@$$QAU?$pair@$$CBKUTooltipAlloc@ioBasicTooltipManager@@@1@@Z ; std::_Tree_val<std::_Tmap_traits<unsigned long,ioBasicTooltipManager::TooltipAlloc,std::less<unsigned long>,std::allocator<std::pair<unsigned long const ,ioBasicTooltipManager::TooltipAlloc> >,0> >::_Buynode<std::pair<unsigned long const ,ioBasicTooltipManager::TooltipAlloc> >
  00010	50		 push	 eax
  00011	ff 75 08	 push	 DWORD PTR ___$ReturnUdt$[ebp]
  00014	8b ce		 mov	 ecx, esi
  00016	e8 00 00 00 00	 call	 ?_Linsert@?$_Tree@V?$_Tmap_traits@KUTooltipAlloc@ioBasicTooltipManager@@U?$less@K@std@@V?$allocator@U?$pair@$$CBKUTooltipAlloc@ioBasicTooltipManager@@@std@@@4@$0A@@std@@@std@@QAE?AU?$pair@V?$_Tree_iterator@V?$_Tree_val@V?$_Tmap_traits@KUTooltipAlloc@ioBasicTooltipManager@@U?$less@K@std@@V?$allocator@U?$pair@$$CBKUTooltipAlloc@ioBasicTooltipManager@@@std@@@4@$0A@@std@@@std@@@std@@_N@2@PAU_Node@?$_Tree_nod@V?$_Tmap_traits@KUTooltipAlloc@ioBasicTooltipManager@@U?$less@K@std@@V?$allocator@U?$pair@$$CBKUTooltipAlloc@ioBasicTooltipManager@@@std@@@4@$0A@@std@@@2@_N@Z ; std::_Tree<std::_Tmap_traits<unsigned long,ioBasicTooltipManager::TooltipAlloc,std::less<unsigned long>,std::allocator<std::pair<unsigned long const ,ioBasicTooltipManager::TooltipAlloc> >,0> >::_Linsert
  0001b	8b 45 08	 mov	 eax, DWORD PTR ___$ReturnUdt$[ebp]
  0001e	5e		 pop	 esi

; 757  : 		}

  0001f	5d		 pop	 ebp
  00020	c2 08 00	 ret	 8
??$insert@U?$pair@$$CBKUTooltipAlloc@ioBasicTooltipManager@@@std@@@?$_Tree@V?$_Tmap_traits@KUTooltipAlloc@ioBasicTooltipManager@@U?$less@K@std@@V?$allocator@U?$pair@$$CBKUTooltipAlloc@ioBasicTooltipManager@@@std@@@4@$0A@@std@@@std@@QAE?AU?$pair@V?$_Tree_iterator@V?$_Tree_val@V?$_Tmap_traits@KUTooltipAlloc@ioBasicTooltipManager@@U?$less@K@std@@V?$allocator@U?$pair@$$CBKUTooltipAlloc@ioBasicTooltipManager@@@std@@@4@$0A@@std@@@std@@@std@@_N@1@$$QAU?$pair@$$CBKUTooltipAlloc@ioBasicTooltipManager@@@1@@Z ENDP ; std::_Tree<std::_Tmap_traits<unsigned long,ioBasicTooltipManager::TooltipAlloc,std::less<unsigned long>,std::allocator<std::pair<unsigned long const ,ioBasicTooltipManager::TooltipAlloc> >,0> >::insert<std::pair<unsigned long const ,ioBasicTooltipManager::TooltipAlloc> >
_TEXT	ENDS
PUBLIC	_szTooltipXmlName$GSCopy$
PUBLIC	?NewToolTip@ioBasicTooltipManager@@QAEKABV?$basic_string@DU?$char_traits@D@std@@V?$allocator@D@2@@std@@@Z ; ioBasicTooltipManager::NewToolTip
EXTRN	__EH_epilog3_GS:PROC
EXTRN	__EH_prolog3_GS:PROC
;	COMDAT xdata$x
; File c:\program files (x86)\microsoft visual studio 10.0\vc\include\xstring
xdata$x	SEGMENT
__unwindtable$?NewToolTip@ioBasicTooltipManager@@QAEKABV?$basic_string@DU?$char_traits@D@std@@V?$allocator@D@2@@std@@@Z DD 0ffffffffH
	DD	FLAT:__unwindfunclet$?NewToolTip@ioBasicTooltipManager@@QAEKABV?$basic_string@DU?$char_traits@D@std@@V?$allocator@D@2@@std@@@Z$0
	DD	00H
	DD	FLAT:__unwindfunclet$?NewToolTip@ioBasicTooltipManager@@QAEKABV?$basic_string@DU?$char_traits@D@std@@V?$allocator@D@2@@std@@@Z$1
__ehfuncinfo$?NewToolTip@ioBasicTooltipManager@@QAEKABV?$basic_string@DU?$char_traits@D@std@@V?$allocator@D@2@@std@@@Z DD 019930522H
	DD	02H
	DD	FLAT:__unwindtable$?NewToolTip@ioBasicTooltipManager@@QAEKABV?$basic_string@DU?$char_traits@D@std@@V?$allocator@D@2@@std@@@Z
	DD	2 DUP(00H)
	DD	2 DUP(00H)
	DD	00H
	DD	01H
; Function compile flags: /Ogsp
; File d:\lost saga for developer\youtube\tutorial\source\src\lsclient\iobasictooltipmanager.cpp
xdata$x	ENDS
;	COMDAT ?NewToolTip@ioBasicTooltipManager@@QAEKABV?$basic_string@DU?$char_traits@D@std@@V?$allocator@D@2@@std@@@Z
_TEXT	SEGMENT
$T513014 = -376						; size = 8
_pToolTip$ = -372					; size = 4
_szTooltipXmlName$GSCopy$ = -368			; size = 4
$T506392 = -364						; size = 36
_Alloc$506258 = -328					; size = 32
_szFileName$ = -296					; size = 260
___encStr$506098 = -36					; size = 15
__$EHRec$ = -12						; size = 12
_szTooltipXmlName$ = 8					; size = 4
?NewToolTip@ioBasicTooltipManager@@QAEKABV?$basic_string@DU?$char_traits@D@std@@V?$allocator@D@2@@std@@@Z PROC ; ioBasicTooltipManager::NewToolTip, COMDAT
; _this$ = ecx

; 48   : {

  00000	68 6c 01 00 00	 push	 364			; 0000016cH
  00005	b8 00 00 00 00	 mov	 eax, __ehhandler$?NewToolTip@ioBasicTooltipManager@@QAEKABV?$basic_string@DU?$char_traits@D@std@@V?$allocator@D@2@@std@@@Z
  0000a	e8 00 00 00 00	 call	 __EH_prolog3_GS
  0000f	8b 75 08	 mov	 esi, DWORD PTR _szTooltipXmlName$[ebp]

; 49   : 	if( szTooltipXmlName.empty() )

  00012	33 db		 xor	 ebx, ebx
  00014	8b f9		 mov	 edi, ecx

; 57   : 	{
; 58   : 		DWORD dwID = static_cast<DWORD>( m_TooltipAllocMap.size() ) + 1;

  00016	89 b5 90 fe ff
	ff		 mov	 DWORD PTR _szTooltipXmlName$GSCopy$[ebp], esi
  0001c	39 5e 10	 cmp	 DWORD PTR [esi+16], ebx
  0001f	0f 84 43 01 00
	00		 je	 $LN1@NewToolTip

; 50   : 		return 0;
; 51   : 
; 52   : 	char szFileName[MAX_PATH];
; 53   : 	sprintf_s_e( szFileName, "XML/tooltip/%s", szTooltipXmlName.c_str() );

  00025	6a 03		 push	 3
  00027	c7 45 dc b5 a1
	a7 c5		 mov	 DWORD PTR ___encStr$506098[ebp], -978869835 ; c5a7a1b5H
  0002e	c7 45 e0 99 83
	84 86		 mov	 DWORD PTR ___encStr$506098[ebp+4], -2038135911 ; 86848399H
  00035	c7 45 e4 99 85
	9b c5		 mov	 DWORD PTR ___encStr$506098[ebp+8], -979663463 ; c59b8599H
  0003c	66 c7 45 e8 c8
	9f		 mov	 WORD PTR ___encStr$506098[ebp+12], 40904 ; 00009fc8H
  00042	8d 45 dc	 lea	 eax, DWORD PTR ___encStr$506098[ebp]
  00045	88 5d ea	 mov	 BYTE PTR ___encStr$506098[ebp+14], bl
  00048	59		 pop	 ecx
$LL113@NewToolTip:
  00049	81 30 ed ec eb
	ea		 xor	 DWORD PTR [eax], -353637139 ; eaebecedH
  0004f	83 c0 04	 add	 eax, 4
  00052	49		 dec	 ecx
  00053	75 f4		 jne	 SHORT $LL113@NewToolTip
  00055	6a 0c		 push	 12			; 0000000cH
  00057	58		 pop	 eax
$LL110@NewToolTip:
  00058	8b c8		 mov	 ecx, eax
  0005a	81 e1 03 00 00
	80		 and	 ecx, -2147483645	; 80000003H
  00060	79 05		 jns	 SHORT $LN198@NewToolTip
  00062	49		 dec	 ecx
  00063	83 c9 fc	 or	 ecx, -4			; fffffffcH
  00066	41		 inc	 ecx
$LN198@NewToolTip:
  00067	b2 ed		 mov	 dl, -19			; ffffffedH
  00069	2a d1		 sub	 dl, cl
  0006b	30 54 05 dc	 xor	 BYTE PTR ___encStr$506098[ebp+eax], dl
  0006f	40		 inc	 eax
  00070	83 f8 0e	 cmp	 eax, 14			; 0000000eH
  00073	7c e3		 jl	 SHORT $LL110@NewToolTip
  00075	83 7e 14 10	 cmp	 DWORD PTR [esi+20], 16	; 00000010H
  00079	72 02		 jb	 SHORT $LN120@NewToolTip
  0007b	8b 36		 mov	 esi, DWORD PTR [esi]
$LN120@NewToolTip:
  0007d	56		 push	 esi
  0007e	8d 45 dc	 lea	 eax, DWORD PTR ___encStr$506098[ebp]
  00081	50		 push	 eax
  00082	8d 85 d8 fe ff
	ff		 lea	 eax, DWORD PTR _szFileName$[ebp]
  00088	50		 push	 eax
  00089	e8 00 00 00 00	 call	 ??$sprintf_s@$0BAE@@@YAHAAY0BAE@DPBDZZ ; sprintf_s<260>
  0008e	83 c4 0c	 add	 esp, 12			; 0000000cH

; 54   : 
; 55   : 	ioBasicToolTip* pToolTip = (ioBasicToolTip*)( g_GUIMgr.AddWnd( szFileName, m_pToolTipWnd ) );

  00091	ff 77 04	 push	 DWORD PTR [edi+4]
  00094	8d 85 d8 fe ff
	ff		 lea	 eax, DWORD PTR _szFileName$[ebp]
  0009a	50		 push	 eax
  0009b	e8 00 00 00 00	 call	 ?GetSingleton@ioSP2GUIManager@@SAAAV1@XZ ; ioSP2GUIManager::GetSingleton
  000a0	8b c8		 mov	 ecx, eax
  000a2	ff 15 00 00 00
	00		 call	 DWORD PTR __imp_?AddWnd@ioGUIManager@@QAEPAVioWnd@@PBDPAV2@@Z
  000a8	89 85 8c fe ff
	ff		 mov	 DWORD PTR _pToolTip$[ebp], eax

; 56   : 	if( pToolTip )

  000ae	3b c3		 cmp	 eax, ebx
  000b0	0f 84 b2 00 00
	00		 je	 $LN1@NewToolTip

; 57   : 	{
; 58   : 		DWORD dwID = static_cast<DWORD>( m_TooltipAllocMap.size() ) + 1;

  000b6	8b 77 10	 mov	 esi, DWORD PTR [edi+16]
  000b9	46		 inc	 esi

; 59   : 
; 60   : 		TooltipAlloc Alloc;

  000ba	c7 85 cc fe ff
	ff 0f 00 00 00	 mov	 DWORD PTR _Alloc$506258[ebp+20], 15 ; 0000000fH
  000c4	89 9d c8 fe ff
	ff		 mov	 DWORD PTR _Alloc$506258[ebp+16], ebx
  000ca	88 9d b8 fe ff
	ff		 mov	 BYTE PTR _Alloc$506258[ebp], bl
  000d0	89 9d d4 fe ff
	ff		 mov	 DWORD PTR _Alloc$506258[ebp+28], ebx

; 61   : 		Alloc.szTooltipXmlName	= szTooltipXmlName;

  000d6	6a ff		 push	 -1
  000d8	53		 push	 ebx
  000d9	ff b5 90 fe ff
	ff		 push	 DWORD PTR _szTooltipXmlName$GSCopy$[ebp]
  000df	8d 8d b8 fe ff
	ff		 lea	 ecx, DWORD PTR _Alloc$506258[ebp]
  000e5	89 5d fc	 mov	 DWORD PTR __$EHRec$[ebp+8], ebx
  000e8	e8 00 00 00 00	 call	 ?assign@?$basic_string@DU?$char_traits@D@std@@V?$allocator@D@2@@std@@QAEAAV12@ABV12@II@Z ; std::basic_string<char,std::char_traits<char>,std::allocator<char> >::assign

; 62   : 		Alloc.dwUniqueIdx		= dwID;
; 63   : 
; 64   : 		pToolTip->SetID( dwID );

  000ed	8b 8d 8c fe ff
	ff		 mov	 ecx, DWORD PTR _pToolTip$[ebp]
  000f3	56		 push	 esi
  000f4	89 b5 d4 fe ff
	ff		 mov	 DWORD PTR _Alloc$506258[ebp+28], esi
  000fa	ff 15 00 00 00
	00		 call	 DWORD PTR __imp_?SetID@ioWnd@@QAEXK@Z

; 65   : 		m_TooltipAllocMap.insert( TooltipAllocMap::value_type( dwID, Alloc ) );

  00100	8d 85 b8 fe ff
	ff		 lea	 eax, DWORD PTR _Alloc$506258[ebp]
  00106	50		 push	 eax
  00107	8d 8d 98 fe ff
	ff		 lea	 ecx, DWORD PTR $T506392[ebp+4]
  0010d	89 b5 94 fe ff
	ff		 mov	 DWORD PTR $T506392[ebp], esi
  00113	e8 00 00 00 00	 call	 ??0?$basic_string@DU?$char_traits@D@std@@V?$allocator@D@2@@std@@QAE@ABV01@@Z ; std::basic_string<char,std::char_traits<char>,std::allocator<char> >::basic_string<char,std::char_traits<char>,std::allocator<char> >
  00118	8b 85 d4 fe ff
	ff		 mov	 eax, DWORD PTR _Alloc$506258[ebp+28]
  0011e	89 85 b4 fe ff
	ff		 mov	 DWORD PTR $T506392[ebp+32], eax
  00124	53		 push	 ebx
  00125	8d 85 94 fe ff
	ff		 lea	 eax, DWORD PTR $T506392[ebp]
  0012b	50		 push	 eax
  0012c	8d 4f 08	 lea	 ecx, DWORD PTR [edi+8]
  0012f	c6 45 fc 01	 mov	 BYTE PTR __$EHRec$[ebp+8], 1
  00133	e8 00 00 00 00	 call	 ??$_Buynode@U?$pair@$$CBKUTooltipAlloc@ioBasicTooltipManager@@@std@@@?$_Tree_val@V?$_Tmap_traits@KUTooltipAlloc@ioBasicTooltipManager@@U?$less@K@std@@V?$allocator@U?$pair@$$CBKUTooltipAlloc@ioBasicTooltipManager@@@std@@@4@$0A@@std@@@std@@QAEPAU_Node@?$_Tree_nod@V?$_Tmap_traits@KUTooltipAlloc@ioBasicTooltipManager@@U?$less@K@std@@V?$allocator@U?$pair@$$CBKUTooltipAlloc@ioBasicTooltipManager@@@std@@@4@$0A@@std@@@1@$$QAU?$pair@$$CBKUTooltipAlloc@ioBasicTooltipManager@@@1@@Z ; std::_Tree_val<std::_Tmap_traits<unsigned long,ioBasicTooltipManager::TooltipAlloc,std::less<unsigned long>,std::allocator<std::pair<unsigned long const ,ioBasicTooltipManager::TooltipAlloc> >,0> >::_Buynode<std::pair<unsigned long const ,ioBasicTooltipManager::TooltipAlloc> >
  00138	50		 push	 eax
  00139	8d 85 88 fe ff
	ff		 lea	 eax, DWORD PTR $T513014[ebp]
  0013f	50		 push	 eax
  00140	8d 4f 08	 lea	 ecx, DWORD PTR [edi+8]
  00143	e8 00 00 00 00	 call	 ?_Linsert@?$_Tree@V?$_Tmap_traits@KUTooltipAlloc@ioBasicTooltipManager@@U?$less@K@std@@V?$allocator@U?$pair@$$CBKUTooltipAlloc@ioBasicTooltipManager@@@std@@@4@$0A@@std@@@std@@QAE?AU?$pair@V?$_Tree_iterator@V?$_Tree_val@V?$_Tmap_traits@KUTooltipAlloc@ioBasicTooltipManager@@U?$less@K@std@@V?$allocator@U?$pair@$$CBKUTooltipAlloc@ioBasicTooltipManager@@@std@@@4@$0A@@std@@@std@@@std@@_N@2@PAU_Node@?$_Tree_nod@V?$_Tmap_traits@KUTooltipAlloc@ioBasicTooltipManager@@U?$less@K@std@@V?$allocator@U?$pair@$$CBKUTooltipAlloc@ioBasicTooltipManager@@@std@@@4@$0A@@std@@@2@_N@Z ; std::_Tree<std::_Tmap_traits<unsigned long,ioBasicTooltipManager::TooltipAlloc,std::less<unsigned long>,std::allocator<std::pair<unsigned long const ,ioBasicTooltipManager::TooltipAlloc> >,0> >::_Linsert
  00148	53		 push	 ebx
  00149	6a 01		 push	 1
  0014b	8d 8d 98 fe ff
	ff		 lea	 ecx, DWORD PTR $T506392[ebp+4]
  00151	e8 00 00 00 00	 call	 ?_Tidy@?$basic_string@DU?$char_traits@D@std@@V?$allocator@D@2@@std@@QAEX_NI@Z ; std::basic_string<char,std::char_traits<char>,std::allocator<char> >::_Tidy

; 66   : 
; 67   : 		return dwID;

  00156	53		 push	 ebx
  00157	6a 01		 push	 1
  00159	8d 8d b8 fe ff
	ff		 lea	 ecx, DWORD PTR _Alloc$506258[ebp]
  0015f	e8 00 00 00 00	 call	 ?_Tidy@?$basic_string@DU?$char_traits@D@std@@V?$allocator@D@2@@std@@QAEX_NI@Z ; std::basic_string<char,std::char_traits<char>,std::allocator<char> >::_Tidy
  00164	8b c6		 mov	 eax, esi
  00166	eb 02		 jmp	 SHORT $LN102@NewToolTip
$LN1@NewToolTip:

; 68   : 	}
; 69   : 
; 70   : 	return 0;

  00168	33 c0		 xor	 eax, eax
$LN102@NewToolTip:

; 71   : }

  0016a	e8 00 00 00 00	 call	 __EH_epilog3_GS
  0016f	c2 04 00	 ret	 4
_TEXT	ENDS
;	COMDAT text$x
text$x	SEGMENT
__unwindfunclet$?NewToolTip@ioBasicTooltipManager@@QAEKABV?$basic_string@DU?$char_traits@D@std@@V?$allocator@D@2@@std@@@Z$0:
  00000	8d 8d b8 fe ff
	ff		 lea	 ecx, DWORD PTR _Alloc$506258[ebp]
  00006	e9 00 00 00 00	 jmp	 ??1TooltipAlloc@ioBasicTooltipManager@@QAE@XZ
__unwindfunclet$?NewToolTip@ioBasicTooltipManager@@QAEKABV?$basic_string@DU?$char_traits@D@std@@V?$allocator@D@2@@std@@@Z$1:
  0000b	8d 8d 94 fe ff
	ff		 lea	 ecx, DWORD PTR $T506392[ebp]
  00011	e9 00 00 00 00	 jmp	 ??1?$pair@$$CBKUTooltipAlloc@ioBasicTooltipManager@@@std@@QAE@XZ
__ehhandler$?NewToolTip@ioBasicTooltipManager@@QAEKABV?$basic_string@DU?$char_traits@D@std@@V?$allocator@D@2@@std@@@Z:
  00016	8b 54 24 08	 mov	 edx, DWORD PTR [esp+8]
  0001a	8d 42 0c	 lea	 eax, DWORD PTR [edx+12]
  0001d	8b 8a 84 fe ff
	ff		 mov	 ecx, DWORD PTR [edx-380]
  00023	33 c8		 xor	 ecx, eax
  00025	e8 00 00 00 00	 call	 @__security_check_cookie@4
  0002a	8b 4a fc	 mov	 ecx, DWORD PTR [edx-4]
  0002d	33 c8		 xor	 ecx, eax
  0002f	e8 00 00 00 00	 call	 @__security_check_cookie@4
  00034	b8 00 00 00 00	 mov	 eax, OFFSET __ehfuncinfo$?NewToolTip@ioBasicTooltipManager@@QAEKABV?$basic_string@DU?$char_traits@D@std@@V?$allocator@D@2@@std@@@Z
  00039	e9 00 00 00 00	 jmp	 ___CxxFrameHandler3
text$x	ENDS
?NewToolTip@ioBasicTooltipManager@@QAEKABV?$basic_string@DU?$char_traits@D@std@@V?$allocator@D@2@@std@@@Z ENDP ; ioBasicTooltipManager::NewToolTip
PUBLIC	??1?$vector@UTooltipAlloc@ioBasicTooltipManager@@V?$allocator@UTooltipAlloc@ioBasicTooltipManager@@@std@@@std@@QAE@XZ ; std::vector<ioBasicTooltipManager::TooltipAlloc,std::allocator<ioBasicTooltipManager::TooltipAlloc> >::~vector<ioBasicTooltipManager::TooltipAlloc,std::allocator<ioBasicTooltipManager::TooltipAlloc> >
; Function compile flags: /Ogsp
; File c:\program files (x86)\microsoft visual studio 10.0\vc\include\vector
;	COMDAT ??1?$vector@UTooltipAlloc@ioBasicTooltipManager@@V?$allocator@UTooltipAlloc@ioBasicTooltipManager@@@std@@@std@@QAE@XZ
_TEXT	SEGMENT
??1?$vector@UTooltipAlloc@ioBasicTooltipManager@@V?$allocator@UTooltipAlloc@ioBasicTooltipManager@@@std@@@std@@QAE@XZ PROC ; std::vector<ioBasicTooltipManager::TooltipAlloc,std::allocator<ioBasicTooltipManager::TooltipAlloc> >::~vector<ioBasicTooltipManager::TooltipAlloc,std::allocator<ioBasicTooltipManager::TooltipAlloc> >, COMDAT
; _this$ = ecx

; 705  : 		_Tidy();

  00000	e9 00 00 00 00	 jmp	 ?_Tidy@?$vector@UTooltipAlloc@ioBasicTooltipManager@@V?$allocator@UTooltipAlloc@ioBasicTooltipManager@@@std@@@std@@IAEXXZ ; std::vector<ioBasicTooltipManager::TooltipAlloc,std::allocator<ioBasicTooltipManager::TooltipAlloc> >::_Tidy
??1?$vector@UTooltipAlloc@ioBasicTooltipManager@@V?$allocator@UTooltipAlloc@ioBasicTooltipManager@@@std@@@std@@QAE@XZ ENDP ; std::vector<ioBasicTooltipManager::TooltipAlloc,std::allocator<ioBasicTooltipManager::TooltipAlloc> >::~vector<ioBasicTooltipManager::TooltipAlloc,std::allocator<ioBasicTooltipManager::TooltipAlloc> >
_TEXT	ENDS
PUBLIC	?clear@?$vector@UTooltipAlloc@ioBasicTooltipManager@@V?$allocator@UTooltipAlloc@ioBasicTooltipManager@@@std@@@std@@QAEXXZ ; std::vector<ioBasicTooltipManager::TooltipAlloc,std::allocator<ioBasicTooltipManager::TooltipAlloc> >::clear
; Function compile flags: /Ogsp
;	COMDAT ?clear@?$vector@UTooltipAlloc@ioBasicTooltipManager@@V?$allocator@UTooltipAlloc@ioBasicTooltipManager@@@std@@@std@@QAEXXZ
_TEXT	SEGMENT
$T513315 = -4						; size = 4
?clear@?$vector@UTooltipAlloc@ioBasicTooltipManager@@V?$allocator@UTooltipAlloc@ioBasicTooltipManager@@@std@@@std@@QAEXXZ PROC ; std::vector<ioBasicTooltipManager::TooltipAlloc,std::allocator<ioBasicTooltipManager::TooltipAlloc> >::clear, COMDAT
; _this$ = ecx

; 1217 : 		{	// erase all

  00000	55		 push	 ebp
  00001	8b ec		 mov	 ebp, esp
  00003	51		 push	 ecx

; 1218 : 		erase(begin(), end());

  00004	8b 41 04	 mov	 eax, DWORD PTR [ecx+4]
  00007	8b 11		 mov	 edx, DWORD PTR [ecx]
  00009	50		 push	 eax
  0000a	52		 push	 edx
  0000b	8d 45 fc	 lea	 eax, DWORD PTR $T513315[ebp]
  0000e	50		 push	 eax
  0000f	e8 00 00 00 00	 call	 ?erase@?$vector@UTooltipAlloc@ioBasicTooltipManager@@V?$allocator@UTooltipAlloc@ioBasicTooltipManager@@@std@@@std@@QAE?AV?$_Vector_iterator@V?$_Vector_val@UTooltipAlloc@ioBasicTooltipManager@@V?$allocator@UTooltipAlloc@ioBasicTooltipManager@@@std@@@std@@@2@V?$_Vector_const_iterator@V?$_Vector_val@UTooltipAlloc@ioBasicTooltipManager@@V?$allocator@UTooltipAlloc@ioBasicTooltipManager@@@std@@@std@@@2@0@Z ; std::vector<ioBasicTooltipManager::TooltipAlloc,std::allocator<ioBasicTooltipManager::TooltipAlloc> >::erase

; 1219 : 		}

  00014	c9		 leave
  00015	c3		 ret	 0
?clear@?$vector@UTooltipAlloc@ioBasicTooltipManager@@V?$allocator@UTooltipAlloc@ioBasicTooltipManager@@@std@@@std@@QAEXXZ ENDP ; std::vector<ioBasicTooltipManager::TooltipAlloc,std::allocator<ioBasicTooltipManager::TooltipAlloc> >::clear
_TEXT	ENDS
PUBLIC	?_Tidy@?$_Tree@V?$_Tmap_traits@KUTooltipAlloc@ioBasicTooltipManager@@U?$less@K@std@@V?$allocator@U?$pair@$$CBKUTooltipAlloc@ioBasicTooltipManager@@@std@@@4@$0A@@std@@@std@@IAEXXZ ; std::_Tree<std::_Tmap_traits<unsigned long,ioBasicTooltipManager::TooltipAlloc,std::less<unsigned long>,std::allocator<std::pair<unsigned long const ,ioBasicTooltipManager::TooltipAlloc> >,0> >::_Tidy
; Function compile flags: /Ogsp
; File c:\program files (x86)\microsoft visual studio 10.0\vc\include\xtree
;	COMDAT ?_Tidy@?$_Tree@V?$_Tmap_traits@KUTooltipAlloc@ioBasicTooltipManager@@U?$less@K@std@@V?$allocator@U?$pair@$$CBKUTooltipAlloc@ioBasicTooltipManager@@@std@@@4@$0A@@std@@@std@@IAEXXZ
_TEXT	SEGMENT
$T513372 = -4						; size = 4
?_Tidy@?$_Tree@V?$_Tmap_traits@KUTooltipAlloc@ioBasicTooltipManager@@U?$less@K@std@@V?$allocator@U?$pair@$$CBKUTooltipAlloc@ioBasicTooltipManager@@@std@@@4@$0A@@std@@@std@@IAEXXZ PROC ; std::_Tree<std::_Tmap_traits<unsigned long,ioBasicTooltipManager::TooltipAlloc,std::less<unsigned long>,std::allocator<std::pair<unsigned long const ,ioBasicTooltipManager::TooltipAlloc> >,0> >::_Tidy, COMDAT
; _this$ = ecx

; 1865 : 		{	// free all storage

  00000	55		 push	 ebp
  00001	8b ec		 mov	 ebp, esp
  00003	51		 push	 ecx

; 1866 : 		erase(begin(), end());

  00004	8b 41 04	 mov	 eax, DWORD PTR [ecx+4]
  00007	8b 10		 mov	 edx, DWORD PTR [eax]
  00009	50		 push	 eax
  0000a	52		 push	 edx
  0000b	8d 45 fc	 lea	 eax, DWORD PTR $T513372[ebp]
  0000e	50		 push	 eax
  0000f	e8 00 00 00 00	 call	 ?erase@?$_Tree@V?$_Tmap_traits@KUTooltipAlloc@ioBasicTooltipManager@@U?$less@K@std@@V?$allocator@U?$pair@$$CBKUTooltipAlloc@ioBasicTooltipManager@@@std@@@4@$0A@@std@@@std@@QAE?AV?$_Tree_iterator@V?$_Tree_val@V?$_Tmap_traits@KUTooltipAlloc@ioBasicTooltipManager@@U?$less@K@std@@V?$allocator@U?$pair@$$CBKUTooltipAlloc@ioBasicTooltipManager@@@std@@@4@$0A@@std@@@std@@@2@V?$_Tree_const_iterator@V?$_Tree_val@V?$_Tmap_traits@KUTooltipAlloc@ioBasicTooltipManager@@U?$less@K@std@@V?$allocator@U?$pair@$$CBKUTooltipAlloc@ioBasicTooltipManager@@@std@@@4@$0A@@std@@@std@@@2@0@Z ; std::_Tree<std::_Tmap_traits<unsigned long,ioBasicTooltipManager::TooltipAlloc,std::less<unsigned long>,std::allocator<std::pair<unsigned long const ,ioBasicTooltipManager::TooltipAlloc> >,0> >::erase

; 1867 : 		}

  00014	c9		 leave
  00015	c3		 ret	 0
?_Tidy@?$_Tree@V?$_Tmap_traits@KUTooltipAlloc@ioBasicTooltipManager@@U?$less@K@std@@V?$allocator@U?$pair@$$CBKUTooltipAlloc@ioBasicTooltipManager@@@std@@@4@$0A@@std@@@std@@IAEXXZ ENDP ; std::_Tree<std::_Tmap_traits<unsigned long,ioBasicTooltipManager::TooltipAlloc,std::less<unsigned long>,std::allocator<std::pair<unsigned long const ,ioBasicTooltipManager::TooltipAlloc> >,0> >::_Tidy
_TEXT	ENDS
PUBLIC	?_Reserve@?$vector@UTooltipAlloc@ioBasicTooltipManager@@V?$allocator@UTooltipAlloc@ioBasicTooltipManager@@@std@@@std@@IAEXI@Z ; std::vector<ioBasicTooltipManager::TooltipAlloc,std::allocator<ioBasicTooltipManager::TooltipAlloc> >::_Reserve
; Function compile flags: /Ogsp
; File c:\program files (x86)\microsoft visual studio 10.0\vc\include\vector
;	COMDAT ?_Reserve@?$vector@UTooltipAlloc@ioBasicTooltipManager@@V?$allocator@UTooltipAlloc@ioBasicTooltipManager@@@std@@@std@@IAEXI@Z
_TEXT	SEGMENT
__Count$ = 8						; size = 4
?_Reserve@?$vector@UTooltipAlloc@ioBasicTooltipManager@@V?$allocator@UTooltipAlloc@ioBasicTooltipManager@@@std@@@std@@IAEXI@Z PROC ; std::vector<ioBasicTooltipManager::TooltipAlloc,std::allocator<ioBasicTooltipManager::TooltipAlloc> >::_Reserve, COMDAT
; _this$ = ecx

; 1290 : 		{	// ensure room for _Count new elements, grow exponentially

  00000	55		 push	 ebp
  00001	8b ec		 mov	 ebp, esp
  00003	56		 push	 esi
  00004	8b f1		 mov	 esi, ecx

; 1291 : 		size_type _Size = size();

  00006	8b 0e		 mov	 ecx, DWORD PTR [esi]
  00008	8b 46 04	 mov	 eax, DWORD PTR [esi+4]
  0000b	2b c1		 sub	 eax, ecx

; 1292 : 		if (max_size() - _Count < _Size)

  0000d	ba ff ff ff 07	 mov	 edx, 134217727		; 07ffffffH
  00012	2b 55 08	 sub	 edx, DWORD PTR __Count$[ebp]
  00015	c1 f8 05	 sar	 eax, 5
  00018	3b d0		 cmp	 edx, eax
  0001a	73 0b		 jae	 SHORT $LN4@Reserve

; 1293 : 			_Xlen();

  0001c	68 00 00 00 00	 push	 OFFSET ??_C@_0BD@OLBABOEK@vector?$DMT?$DO?5too?5long?$AA@
  00021	ff 15 00 00 00
	00		 call	 DWORD PTR __imp_?_Xlength_error@std@@YAXPBD@Z
$LN21@Reserve:
$LN4@Reserve:

; 1294 : 		else if ((_Size += _Count) <= capacity())

  00027	8b 56 08	 mov	 edx, DWORD PTR [esi+8]
  0002a	03 45 08	 add	 eax, DWORD PTR __Count$[ebp]
  0002d	2b d1		 sub	 edx, ecx
  0002f	c1 fa 05	 sar	 edx, 5
  00032	3b c2		 cmp	 eax, edx
  00034	76 10		 jbe	 SHORT $LN1@Reserve

; 1295 : 			;
; 1296 : 		else
; 1297 : 			reserve(_Grow_to(_Size));

  00036	50		 push	 eax
  00037	8b ce		 mov	 ecx, esi
  00039	e8 00 00 00 00	 call	 ?_Grow_to@?$vector@UTooltipAlloc@ioBasicTooltipManager@@V?$allocator@UTooltipAlloc@ioBasicTooltipManager@@@std@@@std@@IBEII@Z ; std::vector<ioBasicTooltipManager::TooltipAlloc,std::allocator<ioBasicTooltipManager::TooltipAlloc> >::_Grow_to
  0003e	50		 push	 eax
  0003f	8b ce		 mov	 ecx, esi
  00041	e8 00 00 00 00	 call	 ?reserve@?$vector@UTooltipAlloc@ioBasicTooltipManager@@V?$allocator@UTooltipAlloc@ioBasicTooltipManager@@@std@@@std@@QAEXI@Z ; std::vector<ioBasicTooltipManager::TooltipAlloc,std::allocator<ioBasicTooltipManager::TooltipAlloc> >::reserve
$LN1@Reserve:
  00046	5e		 pop	 esi

; 1298 : 		}

  00047	5d		 pop	 ebp
  00048	c2 04 00	 ret	 4
$LN20@Reserve:
?_Reserve@?$vector@UTooltipAlloc@ioBasicTooltipManager@@V?$allocator@UTooltipAlloc@ioBasicTooltipManager@@@std@@@std@@IAEXI@Z ENDP ; std::vector<ioBasicTooltipManager::TooltipAlloc,std::allocator<ioBasicTooltipManager::TooltipAlloc> >::_Reserve
_TEXT	ENDS
PUBLIC	?ExcuteReserveAlloc@ioBasicTooltipManager@@QAEXXZ ; ioBasicTooltipManager::ExcuteReserveAlloc
; Function compile flags: /Ogsp
; File d:\lost saga for developer\youtube\tutorial\source\src\lsclient\iobasictooltipmanager.cpp
;	COMDAT ?ExcuteReserveAlloc@ioBasicTooltipManager@@QAEXXZ
_TEXT	SEGMENT
$T513634 = -4						; size = 4
?ExcuteReserveAlloc@ioBasicTooltipManager@@QAEXXZ PROC	; ioBasicTooltipManager::ExcuteReserveAlloc, COMDAT
; _this$ = ecx

; 92   : {

  00000	55		 push	 ebp
  00001	8b ec		 mov	 ebp, esp
  00003	51		 push	 ecx
  00004	53		 push	 ebx
  00005	56		 push	 esi
  00006	57		 push	 edi
  00007	8b f9		 mov	 edi, ecx

; 93   : 	TooltipAllocVector::iterator iter = m_ReserveAlloc.begin();

  00009	8b 5f 18	 mov	 ebx, DWORD PTR [edi+24]
  0000c	eb 0b		 jmp	 SHORT $LN56@ExcuteRese

; 94   : 	for( ; iter != m_ReserveAlloc.end(); ++iter )

$LL16@ExcuteRese:

; 95   : 	{
; 96   : 		const TooltipAlloc& Alloc = *iter;
; 97   : 		NewToolTip( Alloc.szTooltipXmlName );

  0000e	53		 push	 ebx
  0000f	8b cf		 mov	 ecx, edi
  00011	e8 00 00 00 00	 call	 ?NewToolTip@ioBasicTooltipManager@@QAEKABV?$basic_string@DU?$char_traits@D@std@@V?$allocator@D@2@@std@@@Z ; ioBasicTooltipManager::NewToolTip
  00016	83 c3 20	 add	 ebx, 32			; 00000020H
$LN56@ExcuteRese:

; 94   : 	for( ; iter != m_ReserveAlloc.end(); ++iter )

  00019	3b 5f 1c	 cmp	 ebx, DWORD PTR [edi+28]
  0001c	75 f0		 jne	 SHORT $LL16@ExcuteRese

; 98   : 	}
; 99   : 
; 100  : 	m_ReserveAlloc.clear();

  0001e	8b 47 1c	 mov	 eax, DWORD PTR [edi+28]
  00021	8b 4f 18	 mov	 ecx, DWORD PTR [edi+24]
  00024	50		 push	 eax
  00025	51		 push	 ecx
  00026	8d 45 fc	 lea	 eax, DWORD PTR $T513634[ebp]
  00029	50		 push	 eax
  0002a	8d 4f 18	 lea	 ecx, DWORD PTR [edi+24]
  0002d	e8 00 00 00 00	 call	 ?erase@?$vector@UTooltipAlloc@ioBasicTooltipManager@@V?$allocator@UTooltipAlloc@ioBasicTooltipManager@@@std@@@std@@QAE?AV?$_Vector_iterator@V?$_Vector_val@UTooltipAlloc@ioBasicTooltipManager@@V?$allocator@UTooltipAlloc@ioBasicTooltipManager@@@std@@@std@@@2@V?$_Vector_const_iterator@V?$_Vector_val@UTooltipAlloc@ioBasicTooltipManager@@V?$allocator@UTooltipAlloc@ioBasicTooltipManager@@@std@@@std@@@2@0@Z ; std::vector<ioBasicTooltipManager::TooltipAlloc,std::allocator<ioBasicTooltipManager::TooltipAlloc> >::erase
  00032	5f		 pop	 edi
  00033	5e		 pop	 esi
  00034	5b		 pop	 ebx

; 101  : }

  00035	c9		 leave
  00036	c3		 ret	 0
?ExcuteReserveAlloc@ioBasicTooltipManager@@QAEXXZ ENDP	; ioBasicTooltipManager::ExcuteReserveAlloc
_TEXT	ENDS
PUBLIC	??1?$_Tree@V?$_Tmap_traits@KUTooltipAlloc@ioBasicTooltipManager@@U?$less@K@std@@V?$allocator@U?$pair@$$CBKUTooltipAlloc@ioBasicTooltipManager@@@std@@@4@$0A@@std@@@std@@QAE@XZ ; std::_Tree<std::_Tmap_traits<unsigned long,ioBasicTooltipManager::TooltipAlloc,std::less<unsigned long>,std::allocator<std::pair<unsigned long const ,ioBasicTooltipManager::TooltipAlloc> >,0> >::~_Tree<std::_Tmap_traits<unsigned long,ioBasicTooltipManager::TooltipAlloc,std::less<unsigned long>,std::allocator<std::pair<unsigned long const ,ioBasicTooltipManager::TooltipAlloc> >,0> >
;	COMDAT xdata$x
; File c:\program files (x86)\microsoft visual studio 10.0\vc\include\xmemory
xdata$x	SEGMENT
__unwindtable$??1?$_Tree@V?$_Tmap_traits@KUTooltipAlloc@ioBasicTooltipManager@@U?$less@K@std@@V?$allocator@U?$pair@$$CBKUTooltipAlloc@ioBasicTooltipManager@@@std@@@4@$0A@@std@@@std@@QAE@XZ DD 0ffffffffH
	DD	FLAT:__unwindfunclet$??1?$_Tree@V?$_Tmap_traits@KUTooltipAlloc@ioBasicTooltipManager@@U?$less@K@std@@V?$allocator@U?$pair@$$CBKUTooltipAlloc@ioBasicTooltipManager@@@std@@@4@$0A@@std@@@std@@QAE@XZ$0
__ehfuncinfo$??1?$_Tree@V?$_Tmap_traits@KUTooltipAlloc@ioBasicTooltipManager@@U?$less@K@std@@V?$allocator@U?$pair@$$CBKUTooltipAlloc@ioBasicTooltipManager@@@std@@@4@$0A@@std@@@std@@QAE@XZ DD 019930522H
	DD	01H
	DD	FLAT:__unwindtable$??1?$_Tree@V?$_Tmap_traits@KUTooltipAlloc@ioBasicTooltipManager@@U?$less@K@std@@V?$allocator@U?$pair@$$CBKUTooltipAlloc@ioBasicTooltipManager@@@std@@@4@$0A@@std@@@std@@QAE@XZ
	DD	2 DUP(00H)
	DD	2 DUP(00H)
	DD	00H
	DD	01H
; Function compile flags: /Ogsp
; File c:\program files (x86)\microsoft visual studio 10.0\vc\include\xtree
xdata$x	ENDS
;	COMDAT ??1?$_Tree@V?$_Tmap_traits@KUTooltipAlloc@ioBasicTooltipManager@@U?$less@K@std@@V?$allocator@U?$pair@$$CBKUTooltipAlloc@ioBasicTooltipManager@@@std@@@4@$0A@@std@@@std@@QAE@XZ
_TEXT	SEGMENT
$T513755 = -20						; size = 4
_this$ = -16						; size = 4
__$EHRec$ = -12						; size = 12
??1?$_Tree@V?$_Tmap_traits@KUTooltipAlloc@ioBasicTooltipManager@@U?$less@K@std@@V?$allocator@U?$pair@$$CBKUTooltipAlloc@ioBasicTooltipManager@@@std@@@4@$0A@@std@@@std@@QAE@XZ PROC ; std::_Tree<std::_Tmap_traits<unsigned long,ioBasicTooltipManager::TooltipAlloc,std::less<unsigned long>,std::allocator<std::pair<unsigned long const ,ioBasicTooltipManager::TooltipAlloc> >,0> >::~_Tree<std::_Tmap_traits<unsigned long,ioBasicTooltipManager::TooltipAlloc,std::less<unsigned long>,std::allocator<std::pair<unsigned long const ,ioBasicTooltipManager::TooltipAlloc> >,0> >, COMDAT
; _this$ = ecx

; 790  : 		{	// destroy tree

  00000	6a 08		 push	 8
  00002	b8 00 00 00 00	 mov	 eax, __ehhandler$??1?$_Tree@V?$_Tmap_traits@KUTooltipAlloc@ioBasicTooltipManager@@U?$less@K@std@@V?$allocator@U?$pair@$$CBKUTooltipAlloc@ioBasicTooltipManager@@@std@@@4@$0A@@std@@@std@@QAE@XZ
  00007	e8 00 00 00 00	 call	 __EH_prolog3
  0000c	8b f1		 mov	 esi, ecx
  0000e	89 75 f0	 mov	 DWORD PTR _this$[ebp], esi

; 791  : 		_Tidy();

  00011	8b 46 04	 mov	 eax, DWORD PTR [esi+4]
  00014	8b 08		 mov	 ecx, DWORD PTR [eax]
  00016	83 65 fc 00	 and	 DWORD PTR __$EHRec$[ebp+8], 0
  0001a	50		 push	 eax
  0001b	51		 push	 ecx
  0001c	8d 45 ec	 lea	 eax, DWORD PTR $T513755[ebp]
  0001f	50		 push	 eax
  00020	8b ce		 mov	 ecx, esi
  00022	e8 00 00 00 00	 call	 ?erase@?$_Tree@V?$_Tmap_traits@KUTooltipAlloc@ioBasicTooltipManager@@U?$less@K@std@@V?$allocator@U?$pair@$$CBKUTooltipAlloc@ioBasicTooltipManager@@@std@@@4@$0A@@std@@@std@@QAE?AV?$_Tree_iterator@V?$_Tree_val@V?$_Tmap_traits@KUTooltipAlloc@ioBasicTooltipManager@@U?$less@K@std@@V?$allocator@U?$pair@$$CBKUTooltipAlloc@ioBasicTooltipManager@@@std@@@4@$0A@@std@@@std@@@2@V?$_Tree_const_iterator@V?$_Tree_val@V?$_Tmap_traits@KUTooltipAlloc@ioBasicTooltipManager@@U?$less@K@std@@V?$allocator@U?$pair@$$CBKUTooltipAlloc@ioBasicTooltipManager@@@std@@@4@$0A@@std@@@std@@@2@0@Z ; std::_Tree<std::_Tmap_traits<unsigned long,ioBasicTooltipManager::TooltipAlloc,std::less<unsigned long>,std::allocator<std::pair<unsigned long const ,ioBasicTooltipManager::TooltipAlloc> >,0> >::erase

; 792  : 		}

  00027	ff 76 04	 push	 DWORD PTR [esi+4]
  0002a	e8 00 00 00 00	 call	 ??3@YAXPAX@Z		; operator delete
  0002f	59		 pop	 ecx
  00030	e8 00 00 00 00	 call	 __EH_epilog3
  00035	c3		 ret	 0
_TEXT	ENDS
;	COMDAT text$x
text$x	SEGMENT
__unwindfunclet$??1?$_Tree@V?$_Tmap_traits@KUTooltipAlloc@ioBasicTooltipManager@@U?$less@K@std@@V?$allocator@U?$pair@$$CBKUTooltipAlloc@ioBasicTooltipManager@@@std@@@4@$0A@@std@@@std@@QAE@XZ$0:
  00000	8b 4d f0	 mov	 ecx, DWORD PTR _this$[ebp]
  00003	e9 00 00 00 00	 jmp	 ??1?$_Tree_val@V?$_Tmap_traits@KUTooltipAlloc@ioBasicTooltipManager@@U?$less@K@std@@V?$allocator@U?$pair@$$CBKUTooltipAlloc@ioBasicTooltipManager@@@std@@@4@$0A@@std@@@std@@QAE@XZ ; std::_Tree_val<std::_Tmap_traits<unsigned long,ioBasicTooltipManager::TooltipAlloc,std::less<unsigned long>,std::allocator<std::pair<unsigned long const ,ioBasicTooltipManager::TooltipAlloc> >,0> >::~_Tree_val<std::_Tmap_traits<unsigned long,ioBasicTooltipManager::TooltipAlloc,std::less<unsigned long>,std::allocator<std::pair<unsigned long const ,ioBasicTooltipManager::TooltipAlloc> >,0> >
__ehhandler$??1?$_Tree@V?$_Tmap_traits@KUTooltipAlloc@ioBasicTooltipManager@@U?$less@K@std@@V?$allocator@U?$pair@$$CBKUTooltipAlloc@ioBasicTooltipManager@@@std@@@4@$0A@@std@@@std@@QAE@XZ:
  00008	8b 54 24 08	 mov	 edx, DWORD PTR [esp+8]
  0000c	8d 42 0c	 lea	 eax, DWORD PTR [edx+12]
  0000f	8b 4a e8	 mov	 ecx, DWORD PTR [edx-24]
  00012	33 c8		 xor	 ecx, eax
  00014	e8 00 00 00 00	 call	 @__security_check_cookie@4
  00019	b8 00 00 00 00	 mov	 eax, OFFSET __ehfuncinfo$??1?$_Tree@V?$_Tmap_traits@KUTooltipAlloc@ioBasicTooltipManager@@U?$less@K@std@@V?$allocator@U?$pair@$$CBKUTooltipAlloc@ioBasicTooltipManager@@@std@@@4@$0A@@std@@@std@@QAE@XZ
  0001e	e9 00 00 00 00	 jmp	 ___CxxFrameHandler3
text$x	ENDS
??1?$_Tree@V?$_Tmap_traits@KUTooltipAlloc@ioBasicTooltipManager@@U?$less@K@std@@V?$allocator@U?$pair@$$CBKUTooltipAlloc@ioBasicTooltipManager@@@std@@@4@$0A@@std@@@std@@QAE@XZ ENDP ; std::_Tree<std::_Tmap_traits<unsigned long,ioBasicTooltipManager::TooltipAlloc,std::less<unsigned long>,std::allocator<std::pair<unsigned long const ,ioBasicTooltipManager::TooltipAlloc> >,0> >::~_Tree<std::_Tmap_traits<unsigned long,ioBasicTooltipManager::TooltipAlloc,std::less<unsigned long>,std::allocator<std::pair<unsigned long const ,ioBasicTooltipManager::TooltipAlloc> >,0> >
PUBLIC	?push_back@?$vector@UTooltipAlloc@ioBasicTooltipManager@@V?$allocator@UTooltipAlloc@ioBasicTooltipManager@@@std@@@std@@QAEXABUTooltipAlloc@ioBasicTooltipManager@@@Z ; std::vector<ioBasicTooltipManager::TooltipAlloc,std::allocator<ioBasicTooltipManager::TooltipAlloc> >::push_back
; Function compile flags: /Ogsp
; File c:\program files (x86)\microsoft visual studio 10.0\vc\include\vector
;	COMDAT ?push_back@?$vector@UTooltipAlloc@ioBasicTooltipManager@@V?$allocator@UTooltipAlloc@ioBasicTooltipManager@@@std@@@std@@QAEXABUTooltipAlloc@ioBasicTooltipManager@@@Z
_TEXT	SEGMENT
__Val$ = 8						; size = 4
?push_back@?$vector@UTooltipAlloc@ioBasicTooltipManager@@V?$allocator@UTooltipAlloc@ioBasicTooltipManager@@@std@@@std@@QAEXABUTooltipAlloc@ioBasicTooltipManager@@@Z PROC ; std::vector<ioBasicTooltipManager::TooltipAlloc,std::allocator<ioBasicTooltipManager::TooltipAlloc> >::push_back, COMDAT
; _this$ = ecx

; 976  : 		{	// insert element at end

  00000	55		 push	 ebp
  00001	8b ec		 mov	 ebp, esp
  00003	56		 push	 esi
  00004	8b f1		 mov	 esi, ecx

; 977  : 		if (_Inside(_STD addressof(_Val)))

  00006	8b 46 04	 mov	 eax, DWORD PTR [esi+4]
  00009	57		 push	 edi
  0000a	8b 7d 08	 mov	 edi, DWORD PTR __Val$[ebp]
  0000d	3b f8		 cmp	 edi, eax
  0000f	73 29		 jae	 SHORT $LN4@push_back
  00011	8b 0e		 mov	 ecx, DWORD PTR [esi]
  00013	3b cf		 cmp	 ecx, edi
  00015	77 23		 ja	 SHORT $LN4@push_back

; 978  : 			{	// push back an element
; 979  : 			size_type _Idx = _STD addressof(_Val) - this->_Myfirst;

  00017	2b f9		 sub	 edi, ecx

; 980  : 			if (this->_Mylast == this->_Myend)

  00019	3b 46 08	 cmp	 eax, DWORD PTR [esi+8]
  0001c	75 09		 jne	 SHORT $LN3@push_back

; 981  : 				_Reserve(1);

  0001e	6a 01		 push	 1
  00020	8b ce		 mov	 ecx, esi
  00022	e8 00 00 00 00	 call	 ?_Reserve@?$vector@UTooltipAlloc@ioBasicTooltipManager@@V?$allocator@UTooltipAlloc@ioBasicTooltipManager@@@std@@@std@@IAEXI@Z ; std::vector<ioBasicTooltipManager::TooltipAlloc,std::allocator<ioBasicTooltipManager::TooltipAlloc> >::_Reserve
$LN3@push_back:

; 982  : 			_Orphan_range(this->_Mylast, this->_Mylast);
; 983  : 			_Cons_val(this->_Alval,
; 984  : 				this->_Mylast,
; 985  : 				this->_Myfirst[_Idx]);

  00027	83 e7 e0	 and	 edi, -32		; ffffffe0H
  0002a	03 3e		 add	 edi, DWORD PTR [esi]
  0002c	8d 4e 0c	 lea	 ecx, DWORD PTR [esi+12]
  0002f	57		 push	 edi
  00030	ff 76 04	 push	 DWORD PTR [esi+4]
  00033	e8 00 00 00 00	 call	 ??$construct@AAUTooltipAlloc@ioBasicTooltipManager@@@?$allocator@UTooltipAlloc@ioBasicTooltipManager@@@std@@QAEXPAUTooltipAlloc@ioBasicTooltipManager@@AAU23@@Z ; std::allocator<ioBasicTooltipManager::TooltipAlloc>::construct<ioBasicTooltipManager::TooltipAlloc &>

; 986  : 			++this->_Mylast;
; 987  : 			}
; 988  : 		else

  00038	eb 19		 jmp	 SHORT $LN30@push_back
$LN4@push_back:

; 989  : 			{	// push back a non-element
; 990  : 			if (this->_Mylast == this->_Myend)

  0003a	3b 46 08	 cmp	 eax, DWORD PTR [esi+8]
  0003d	75 09		 jne	 SHORT $LN1@push_back

; 991  : 				_Reserve(1);

  0003f	6a 01		 push	 1
  00041	8b ce		 mov	 ecx, esi
  00043	e8 00 00 00 00	 call	 ?_Reserve@?$vector@UTooltipAlloc@ioBasicTooltipManager@@V?$allocator@UTooltipAlloc@ioBasicTooltipManager@@@std@@@std@@IAEXI@Z ; std::vector<ioBasicTooltipManager::TooltipAlloc,std::allocator<ioBasicTooltipManager::TooltipAlloc> >::_Reserve
$LN1@push_back:

; 992  : 			_Orphan_range(this->_Mylast, this->_Mylast);
; 993  : 			_Cons_val(this->_Alval,
; 994  : 				this->_Mylast,
; 995  : 				_Val);

  00048	57		 push	 edi
  00049	ff 76 04	 push	 DWORD PTR [esi+4]
  0004c	e8 00 00 00 00	 call	 ??$_Construct@UTooltipAlloc@ioBasicTooltipManager@@ABU12@@std@@YAXPAUTooltipAlloc@ioBasicTooltipManager@@ABU12@@Z ; std::_Construct<ioBasicTooltipManager::TooltipAlloc,ioBasicTooltipManager::TooltipAlloc const &>
  00051	59		 pop	 ecx
  00052	59		 pop	 ecx
$LN30@push_back:

; 996  : 			++this->_Mylast;

  00053	83 46 04 20	 add	 DWORD PTR [esi+4], 32	; 00000020H
  00057	5f		 pop	 edi
  00058	5e		 pop	 esi

; 997  : 			}
; 998  : 		}

  00059	5d		 pop	 ebp
  0005a	c2 04 00	 ret	 4
?push_back@?$vector@UTooltipAlloc@ioBasicTooltipManager@@V?$allocator@UTooltipAlloc@ioBasicTooltipManager@@@std@@@std@@QAEXABUTooltipAlloc@ioBasicTooltipManager@@@Z ENDP ; std::vector<ioBasicTooltipManager::TooltipAlloc,std::allocator<ioBasicTooltipManager::TooltipAlloc> >::push_back
_TEXT	ENDS
PUBLIC	??1?$map@KUTooltipAlloc@ioBasicTooltipManager@@U?$less@K@std@@V?$allocator@U?$pair@$$CBKUTooltipAlloc@ioBasicTooltipManager@@@std@@@4@@std@@QAE@XZ ; std::map<unsigned long,ioBasicTooltipManager::TooltipAlloc,std::less<unsigned long>,std::allocator<std::pair<unsigned long const ,ioBasicTooltipManager::TooltipAlloc> > >::~map<unsigned long,ioBasicTooltipManager::TooltipAlloc,std::less<unsigned long>,std::allocator<std::pair<unsigned long const ,ioBasicTooltipManager::TooltipAlloc> > >
; Function compile flags: /Ogsp
;	COMDAT ??1?$map@KUTooltipAlloc@ioBasicTooltipManager@@U?$less@K@std@@V?$allocator@U?$pair@$$CBKUTooltipAlloc@ioBasicTooltipManager@@@std@@@4@@std@@QAE@XZ
_TEXT	SEGMENT
??1?$map@KUTooltipAlloc@ioBasicTooltipManager@@U?$less@K@std@@V?$allocator@U?$pair@$$CBKUTooltipAlloc@ioBasicTooltipManager@@@std@@@4@@std@@QAE@XZ PROC ; std::map<unsigned long,ioBasicTooltipManager::TooltipAlloc,std::less<unsigned long>,std::allocator<std::pair<unsigned long const ,ioBasicTooltipManager::TooltipAlloc> > >::~map<unsigned long,ioBasicTooltipManager::TooltipAlloc,std::less<unsigned long>,std::allocator<std::pair<unsigned long const ,ioBasicTooltipManager::TooltipAlloc> > >, COMDAT
; _this$ = ecx
  00000	e9 00 00 00 00	 jmp	 ??1?$_Tree@V?$_Tmap_traits@KUTooltipAlloc@ioBasicTooltipManager@@U?$less@K@std@@V?$allocator@U?$pair@$$CBKUTooltipAlloc@ioBasicTooltipManager@@@std@@@4@$0A@@std@@@std@@QAE@XZ ; std::_Tree<std::_Tmap_traits<unsigned long,ioBasicTooltipManager::TooltipAlloc,std::less<unsigned long>,std::allocator<std::pair<unsigned long const ,ioBasicTooltipManager::TooltipAlloc> >,0> >::~_Tree<std::_Tmap_traits<unsigned long,ioBasicTooltipManager::TooltipAlloc,std::less<unsigned long>,std::allocator<std::pair<unsigned long const ,ioBasicTooltipManager::TooltipAlloc> >,0> >
??1?$map@KUTooltipAlloc@ioBasicTooltipManager@@U?$less@K@std@@V?$allocator@U?$pair@$$CBKUTooltipAlloc@ioBasicTooltipManager@@@std@@@4@@std@@QAE@XZ ENDP ; std::map<unsigned long,ioBasicTooltipManager::TooltipAlloc,std::less<unsigned long>,std::allocator<std::pair<unsigned long const ,ioBasicTooltipManager::TooltipAlloc> > >::~map<unsigned long,ioBasicTooltipManager::TooltipAlloc,std::less<unsigned long>,std::allocator<std::pair<unsigned long const ,ioBasicTooltipManager::TooltipAlloc> > >
_TEXT	ENDS
PUBLIC	??_7ioBasicTooltipManager@@6B@			; ioBasicTooltipManager::`vftable'
PUBLIC	??1ioBasicTooltipManager@@UAE@XZ		; ioBasicTooltipManager::~ioBasicTooltipManager
PUBLIC	??_R4ioBasicTooltipManager@@6B@			; ioBasicTooltipManager::`RTTI Complete Object Locator'
PUBLIC	??_R0?AVioBasicTooltipManager@@@8		; ioBasicTooltipManager `RTTI Type Descriptor'
PUBLIC	??_R3ioBasicTooltipManager@@8			; ioBasicTooltipManager::`RTTI Class Hierarchy Descriptor'
PUBLIC	??_R2ioBasicTooltipManager@@8			; ioBasicTooltipManager::`RTTI Base Class Array'
PUBLIC	??_R1A@?0A@EA@ioBasicTooltipManager@@8		; ioBasicTooltipManager::`RTTI Base Class Descriptor at (0,-1,0,64)'
PUBLIC	??_R13?0A@EA@?$Singleton@VioBasicTooltipManager@@@@8 ; Singleton<ioBasicTooltipManager>::`RTTI Base Class Descriptor at (4,-1,0,64)'
PUBLIC	??_R0?AV?$Singleton@VioBasicTooltipManager@@@@@8 ; Singleton<ioBasicTooltipManager> `RTTI Type Descriptor'
PUBLIC	??_R3?$Singleton@VioBasicTooltipManager@@@@8	; Singleton<ioBasicTooltipManager>::`RTTI Class Hierarchy Descriptor'
PUBLIC	??_R2?$Singleton@VioBasicTooltipManager@@@@8	; Singleton<ioBasicTooltipManager>::`RTTI Base Class Array'
PUBLIC	??_R1A@?0A@EA@?$Singleton@VioBasicTooltipManager@@@@8 ; Singleton<ioBasicTooltipManager>::`RTTI Base Class Descriptor at (0,-1,0,64)'
EXTRN	??_EioBasicTooltipManager@@UAEPAXI@Z:PROC	; ioBasicTooltipManager::`vector deleting destructor'
;	COMDAT ??_R1A@?0A@EA@?$Singleton@VioBasicTooltipManager@@@@8
; File d:\lost saga for developer\youtube\tutorial\source\src\io3dengine\iosingleton.h
rdata$r	SEGMENT
??_R1A@?0A@EA@?$Singleton@VioBasicTooltipManager@@@@8 DD FLAT:??_R0?AV?$Singleton@VioBasicTooltipManager@@@@@8 ; Singleton<ioBasicTooltipManager>::`RTTI Base Class Descriptor at (0,-1,0,64)'
	DD	00H
	DD	00H
	DD	0ffffffffH
	DD	00H
	DD	040H
	DD	FLAT:??_R3?$Singleton@VioBasicTooltipManager@@@@8
rdata$r	ENDS
;	COMDAT ??_R2?$Singleton@VioBasicTooltipManager@@@@8
rdata$r	SEGMENT
??_R2?$Singleton@VioBasicTooltipManager@@@@8 DD FLAT:??_R1A@?0A@EA@?$Singleton@VioBasicTooltipManager@@@@8 ; Singleton<ioBasicTooltipManager>::`RTTI Base Class Array'
rdata$r	ENDS
;	COMDAT ??_R3?$Singleton@VioBasicTooltipManager@@@@8
rdata$r	SEGMENT
??_R3?$Singleton@VioBasicTooltipManager@@@@8 DD 00H	; Singleton<ioBasicTooltipManager>::`RTTI Class Hierarchy Descriptor'
	DD	00H
	DD	01H
	DD	FLAT:??_R2?$Singleton@VioBasicTooltipManager@@@@8
rdata$r	ENDS
;	COMDAT ??_R0?AV?$Singleton@VioBasicTooltipManager@@@@@8
_DATA	SEGMENT
??_R0?AV?$Singleton@VioBasicTooltipManager@@@@@8 DD FLAT:??_7type_info@@6B@ ; Singleton<ioBasicTooltipManager> `RTTI Type Descriptor'
	DD	00H
	DB	'.?AV?$Singleton@VioBasicTooltipManager@@@@', 00H
_DATA	ENDS
;	COMDAT ??_R13?0A@EA@?$Singleton@VioBasicTooltipManager@@@@8
rdata$r	SEGMENT
??_R13?0A@EA@?$Singleton@VioBasicTooltipManager@@@@8 DD FLAT:??_R0?AV?$Singleton@VioBasicTooltipManager@@@@@8 ; Singleton<ioBasicTooltipManager>::`RTTI Base Class Descriptor at (4,-1,0,64)'
	DD	00H
	DD	04H
	DD	0ffffffffH
	DD	00H
	DD	040H
	DD	FLAT:??_R3?$Singleton@VioBasicTooltipManager@@@@8
rdata$r	ENDS
;	COMDAT ??_R1A@?0A@EA@ioBasicTooltipManager@@8
rdata$r	SEGMENT
??_R1A@?0A@EA@ioBasicTooltipManager@@8 DD FLAT:??_R0?AVioBasicTooltipManager@@@8 ; ioBasicTooltipManager::`RTTI Base Class Descriptor at (0,-1,0,64)'
	DD	01H
	DD	00H
	DD	0ffffffffH
	DD	00H
	DD	040H
	DD	FLAT:??_R3ioBasicTooltipManager@@8
rdata$r	ENDS
;	COMDAT ??_R2ioBasicTooltipManager@@8
rdata$r	SEGMENT
??_R2ioBasicTooltipManager@@8 DD FLAT:??_R1A@?0A@EA@ioBasicTooltipManager@@8 ; ioBasicTooltipManager::`RTTI Base Class Array'
	DD	FLAT:??_R13?0A@EA@?$Singleton@VioBasicTooltipManager@@@@8
rdata$r	ENDS
;	COMDAT ??_R3ioBasicTooltipManager@@8
rdata$r	SEGMENT
??_R3ioBasicTooltipManager@@8 DD 00H			; ioBasicTooltipManager::`RTTI Class Hierarchy Descriptor'
	DD	00H
	DD	02H
	DD	FLAT:??_R2ioBasicTooltipManager@@8
rdata$r	ENDS
;	COMDAT ??_R0?AVioBasicTooltipManager@@@8
_DATA	SEGMENT
??_R0?AVioBasicTooltipManager@@@8 DD FLAT:??_7type_info@@6B@ ; ioBasicTooltipManager `RTTI Type Descriptor'
	DD	00H
	DB	'.?AVioBasicTooltipManager@@', 00H
_DATA	ENDS
;	COMDAT ??_R4ioBasicTooltipManager@@6B@
rdata$r	SEGMENT
??_R4ioBasicTooltipManager@@6B@ DD 00H			; ioBasicTooltipManager::`RTTI Complete Object Locator'
	DD	00H
	DD	00H
	DD	FLAT:??_R0?AVioBasicTooltipManager@@@8
	DD	FLAT:??_R3ioBasicTooltipManager@@8
rdata$r	ENDS
;	COMDAT ??_7ioBasicTooltipManager@@6B@
CONST	SEGMENT
??_7ioBasicTooltipManager@@6B@ DD FLAT:??_R4ioBasicTooltipManager@@6B@ ; ioBasicTooltipManager::`vftable'
	DD	FLAT:?Initialize@ioBasicTooltipManager@@UAEXXZ
	DD	FLAT:??_EioBasicTooltipManager@@UAEPAXI@Z
CONST	ENDS
;	COMDAT xdata$x
xdata$x	SEGMENT
__unwindtable$??1ioBasicTooltipManager@@UAE@XZ DD 0ffffffffH
	DD	FLAT:__unwindfunclet$??1ioBasicTooltipManager@@UAE@XZ$0
	DD	00H
	DD	FLAT:__unwindfunclet$??1ioBasicTooltipManager@@UAE@XZ$1
__ehfuncinfo$??1ioBasicTooltipManager@@UAE@XZ DD 019930522H
	DD	02H
	DD	FLAT:__unwindtable$??1ioBasicTooltipManager@@UAE@XZ
	DD	2 DUP(00H)
	DD	2 DUP(00H)
	DD	00H
	DD	01H
; Function compile flags: /Ogsp
; File d:\lost saga for developer\youtube\tutorial\source\src\lsclient\iobasictooltipmanager.cpp
xdata$x	ENDS
;	COMDAT ??1ioBasicTooltipManager@@UAE@XZ
_TEXT	SEGMENT
_this$ = -16						; size = 4
__$EHRec$ = -12						; size = 12
??1ioBasicTooltipManager@@UAE@XZ PROC			; ioBasicTooltipManager::~ioBasicTooltipManager, COMDAT
; _this$ = ecx

; 17   : {

  00000	6a 04		 push	 4
  00002	b8 00 00 00 00	 mov	 eax, __ehhandler$??1ioBasicTooltipManager@@UAE@XZ
  00007	e8 00 00 00 00	 call	 __EH_prolog3
  0000c	8b f1		 mov	 esi, ecx
  0000e	89 75 f0	 mov	 DWORD PTR _this$[ebp], esi
  00011	c7 06 00 00 00
	00		 mov	 DWORD PTR [esi], OFFSET ??_7ioBasicTooltipManager@@6B@

; 18   : 	ClearAllGUI();
; 19   : }

  00017	8d 4e 18	 lea	 ecx, DWORD PTR [esi+24]
  0001a	c7 45 fc 01 00
	00 00		 mov	 DWORD PTR __$EHRec$[ebp+8], 1
  00021	e8 00 00 00 00	 call	 ?_Tidy@?$vector@UTooltipAlloc@ioBasicTooltipManager@@V?$allocator@UTooltipAlloc@ioBasicTooltipManager@@@std@@@std@@IAEXXZ ; std::vector<ioBasicTooltipManager::TooltipAlloc,std::allocator<ioBasicTooltipManager::TooltipAlloc> >::_Tidy
  00026	8d 4e 08	 lea	 ecx, DWORD PTR [esi+8]
  00029	c6 45 fc 00	 mov	 BYTE PTR __$EHRec$[ebp+8], 0
  0002d	e8 00 00 00 00	 call	 ??1?$_Tree@V?$_Tmap_traits@KUTooltipAlloc@ioBasicTooltipManager@@U?$less@K@std@@V?$allocator@U?$pair@$$CBKUTooltipAlloc@ioBasicTooltipManager@@@std@@@4@$0A@@std@@@std@@QAE@XZ ; std::_Tree<std::_Tmap_traits<unsigned long,ioBasicTooltipManager::TooltipAlloc,std::less<unsigned long>,std::allocator<std::pair<unsigned long const ,ioBasicTooltipManager::TooltipAlloc> >,0> >::~_Tree<std::_Tmap_traits<unsigned long,ioBasicTooltipManager::TooltipAlloc,std::less<unsigned long>,std::allocator<std::pair<unsigned long const ,ioBasicTooltipManager::TooltipAlloc> >,0> >
  00032	83 25 00 00 00
	00 00		 and	 DWORD PTR ?ms_Singleton@?$Singleton@VioBasicTooltipManager@@@@1PAVioBasicTooltipManager@@A, 0 ; Singleton<ioBasicTooltipManager>::ms_Singleton
  00039	e8 00 00 00 00	 call	 __EH_epilog3
  0003e	c3		 ret	 0
_TEXT	ENDS
;	COMDAT text$x
text$x	SEGMENT
__unwindfunclet$??1ioBasicTooltipManager@@UAE@XZ$0:
  00000	8b 4d f0	 mov	 ecx, DWORD PTR _this$[ebp]
  00003	83 c1 04	 add	 ecx, 4
  00006	e9 00 00 00 00	 jmp	 ??1?$Singleton@VioBasicTooltipManager@@@@QAE@XZ ; Singleton<ioBasicTooltipManager>::~Singleton<ioBasicTooltipManager>
__unwindfunclet$??1ioBasicTooltipManager@@UAE@XZ$1:
  0000b	8b 4d f0	 mov	 ecx, DWORD PTR _this$[ebp]
  0000e	83 c1 08	 add	 ecx, 8
  00011	e9 00 00 00 00	 jmp	 ??1?$map@KUTooltipAlloc@ioBasicTooltipManager@@U?$less@K@std@@V?$allocator@U?$pair@$$CBKUTooltipAlloc@ioBasicTooltipManager@@@std@@@4@@std@@QAE@XZ
__ehhandler$??1ioBasicTooltipManager@@UAE@XZ:
  00016	8b 54 24 08	 mov	 edx, DWORD PTR [esp+8]
  0001a	8d 42 0c	 lea	 eax, DWORD PTR [edx+12]
  0001d	8b 4a ec	 mov	 ecx, DWORD PTR [edx-20]
  00020	33 c8		 xor	 ecx, eax
  00022	e8 00 00 00 00	 call	 @__security_check_cookie@4
  00027	b8 00 00 00 00	 mov	 eax, OFFSET __ehfuncinfo$??1ioBasicTooltipManager@@UAE@XZ
  0002c	e9 00 00 00 00	 jmp	 ___CxxFrameHandler3
text$x	ENDS
??1ioBasicTooltipManager@@UAE@XZ ENDP			; ioBasicTooltipManager::~ioBasicTooltipManager
PUBLIC	??_SioWnd@@6B@					; ioWnd::`local vftable'
PUBLIC	?InitDeskTop@ioBasicTooltipManager@@QAEXHH@Z	; ioBasicTooltipManager::InitDeskTop
PUBLIC	??_R4ioWnd@@6B@					; ioWnd::`RTTI Complete Object Locator'
PUBLIC	??_R0?AVioWnd@@@8				; ioWnd `RTTI Type Descriptor'
PUBLIC	??_R3ioWnd@@8					; ioWnd::`RTTI Class Hierarchy Descriptor'
PUBLIC	??_R2ioWnd@@8					; ioWnd::`RTTI Base Class Array'
PUBLIC	??_R1A@?0A@EA@ioWnd@@8				; ioWnd::`RTTI Base Class Descriptor at (0,-1,0,64)'
EXTRN	__imp_?AddDeskTopChild@ioGUIManager@@QAEXPAVioWnd@@@Z:PROC
EXTRN	__imp_?SetWndRect@ioWnd@@QAEXABUtagRECT@@@Z:PROC
EXTRN	__imp_?SetWndStyle@ioWnd@@QAEXK@Z:PROC
EXTRN	__imp_??0ioWnd@@QAE@XZ:PROC
EXTRN	__imp__SetRect@20:PROC
EXTRN	?AddRenderFrame@ioWnd@@UAEXABVioHashString@@PAVioUIRenderFrame@@@Z:PROC ; ioWnd::AddRenderFrame
EXTRN	?AddRenderImage@ioWnd@@UAEXABVioHashString@@PAVioUIRenderImage@@@Z:PROC ; ioWnd::AddRenderImage
EXTRN	?AddTooltipHelp@ioWnd@@UAEXABVioHashString@@00@Z:PROC ; ioWnd::AddTooltipHelp
EXTRN	?ParseExtraInfo@ioWnd@@UAEXAAVioXMLElement@@@Z:PROC ; ioWnd::ParseExtraInfo
EXTRN	?AddNamedRenderImage@ioWnd@@UAEXABVioHashString@@PAVioUIRenderImage@@@Z:PROC ; ioWnd::AddNamedRenderImage
EXTRN	?RemoveNamedRenderImage@ioWnd@@UAEXABVioHashString@@@Z:PROC ; ioWnd::RemoveNamedRenderImage
EXTRN	?GetNamedRenderImage@ioWnd@@UBEPAVioUIRenderImage@@ABVioHashString@@@Z:PROC ; ioWnd::GetNamedRenderImage
EXTRN	?SetWindowAlpha@ioWnd@@UAEXH@Z:PROC		; ioWnd::SetWindowAlpha
EXTRN	?SetActive@ioWnd@@UAEXXZ:PROC			; ioWnd::SetActive
EXTRN	?SetInActive@ioWnd@@UAEXXZ:PROC			; ioWnd::SetInActive
EXTRN	?ClearElementImageList@ioWnd@@UAEXXZ:PROC	; ioWnd::ClearElementImageList
EXTRN	?SetSize@ioWnd@@UAEXHH@Z:PROC			; ioWnd::SetSize
EXTRN	?SetPositionToDefault@ioWnd@@UAEXHH_N0@Z:PROC	; ioWnd::SetPositionToDefault
EXTRN	?IsNeedProcess@ioWnd@@UBE_NXZ:PROC		; ioWnd::IsNeedProcess
EXTRN	?IsCanMouseReaction@ioWnd@@UBE_NXZ:PROC		; ioWnd::IsCanMouseReaction
EXTRN	?AddChild@ioWnd@@UAEXPAV1@@Z:PROC		; ioWnd::AddChild
EXTRN	?DeleteChild@ioWnd@@UAEXK@Z:PROC		; ioWnd::DeleteChild
EXTRN	?DeleteAllChild@ioWnd@@UAEXXZ:PROC		; ioWnd::DeleteAllChild
EXTRN	?OnRenderShowAndHide@ioWnd@@MAE_NXZ:PROC	; ioWnd::OnRenderShowAndHide
EXTRN	?OnRenderShowAndHideByDefault@ioWnd@@MAE_NK@Z:PROC ; ioWnd::OnRenderShowAndHideByDefault
EXTRN	?OnRenderShowAndHideByTop@ioWnd@@MAE_NK@Z:PROC	; ioWnd::OnRenderShowAndHideByTop
EXTRN	?OnRenderShowAndHideByDown@ioWnd@@MAE_NK@Z:PROC	; ioWnd::OnRenderShowAndHideByDown
EXTRN	?OnRender@ioWnd@@MAEXXZ:PROC			; ioWnd::OnRender
EXTRN	?OnRenderAfterChild@ioWnd@@MAEXXZ:PROC		; ioWnd::OnRenderAfterChild
EXTRN	?OnProcess@ioWnd@@MAEXM@Z:PROC			; ioWnd::OnProcess
EXTRN	?OnMouseProcess@ioWnd@@MAEXABVioMouse@@@Z:PROC	; ioWnd::OnMouseProcess
EXTRN	?CheckFrameReSize@ioWnd@@MAEXHHHH@Z:PROC	; ioWnd::CheckFrameReSize
EXTRN	?RenderImageList@ioWnd@@MAEXHHW4UIRenderType@@@Z:PROC ; ioWnd::RenderImageList
EXTRN	?iwm_create@ioWnd@@UAEXXZ:PROC			; ioWnd::iwm_create
EXTRN	?iwm_destroy@ioWnd@@UAEXXZ:PROC			; ioWnd::iwm_destroy
EXTRN	?iwm_lbuttondown@ioWnd@@UAEXABVioMouse@@@Z:PROC	; ioWnd::iwm_lbuttondown
EXTRN	?iwm_lbuttonup@ioWnd@@UAEXABVioMouse@@@Z:PROC	; ioWnd::iwm_lbuttonup
EXTRN	?iwm_lbuttonDBLCLK@ioWnd@@UAEXABVioMouse@@@Z:PROC ; ioWnd::iwm_lbuttonDBLCLK
EXTRN	?iwm_rbuttondown@ioWnd@@UAEXABVioMouse@@@Z:PROC	; ioWnd::iwm_rbuttondown
EXTRN	?iwm_rbuttonup@ioWnd@@UAEXABVioMouse@@@Z:PROC	; ioWnd::iwm_rbuttonup
EXTRN	?iwm_command@ioWnd@@UAEXPAV1@HK@Z:PROC		; ioWnd::iwm_command
EXTRN	?iwm_mouseover@ioWnd@@UAEXABVioMouse@@@Z:PROC	; ioWnd::iwm_mouseover
EXTRN	?iwm_mousemove@ioWnd@@UAEXABVioMouse@@@Z:PROC	; ioWnd::iwm_mousemove
EXTRN	?iwm_mouseleave@ioWnd@@UAEXABVioMouse@@@Z:PROC	; ioWnd::iwm_mouseleave
EXTRN	?iwm_vscroll@ioWnd@@UAEXKH@Z:PROC		; ioWnd::iwm_vscroll
EXTRN	?iwm_wheel@ioWnd@@UAEXH@Z:PROC			; ioWnd::iwm_wheel
EXTRN	?iwm_show@ioWnd@@UAEXXZ:PROC			; ioWnd::iwm_show
EXTRN	?iwm_hide@ioWnd@@UAEXXZ:PROC			; ioWnd::iwm_hide
EXTRN	?iwm_esc@ioWnd@@UAE_NXZ:PROC			; ioWnd::iwm_esc
EXTRN	?iwm_spacebar@ioWnd@@UAE_NXZ:PROC		; ioWnd::iwm_spacebar
EXTRN	?iwm_gototop@ioWnd@@UAEXXZ:PROC			; ioWnd::iwm_gototop
EXTRN	?iwm_dragenter@ioWnd@@UAE?AW4IWDropEffect@@PAVioDragItem@@ABVioMouse@@@Z:PROC ; ioWnd::iwm_dragenter
EXTRN	?iwm_dragover@ioWnd@@UAE?AW4IWDropEffect@@PAVioDragItem@@ABVioMouse@@@Z:PROC ; ioWnd::iwm_dragover
EXTRN	?iwm_dragleave@ioWnd@@UAEXXZ:PROC		; ioWnd::iwm_dragleave
EXTRN	?iwm_dropitem@ioWnd@@UAE_NPAVioDragItem@@ABVioMouse@@PAV1@@Z:PROC ; ioWnd::iwm_dropitem
EXTRN	?iwm_dropdone@ioWnd@@UAEXPAVioDragItem@@PAV1@_N@Z:PROC ; ioWnd::iwm_dropdone
EXTRN	?IsEXType@ioWnd@@UBE_NXZ:PROC			; ioWnd::IsEXType
EXTRN	?GetWndType@ioWnd@@UBEKXZ:PROC			; ioWnd::GetWndType
EXTRN	?RenderWnd@ioWnd@@UAEXXZ:PROC			; ioWnd::RenderWnd
EXTRN	?SetIDEX@ioWnd@@UAEXAAK_N@Z:PROC		; ioWnd::SetIDEX
EXTRN	?ParseXML@ioWnd@@UAEXAAVioXMLElement@@@Z:PROC	; ioWnd::ParseXML
EXTRN	?GetHeaderFileName@ioWnd@@UAEPBDXZ:PROC		; ioWnd::GetHeaderFileName
EXTRN	?GetTemplateName@ioWnd@@UAEPBDXZ:PROC		; ioWnd::GetTemplateName
EXTRN	?GetDefClassName@ioWnd@@UBEPBDXZ:PROC		; ioWnd::GetDefClassName
EXTRN	?_Clone@ioWnd@@UAEPAV1@XZ:PROC			; ioWnd::_Clone
EXTRN	?Copy@ioWnd@@UAEXPAV1@@Z:PROC			; ioWnd::Copy
EXTRN	?Save@ioWnd@@UAE_NAAVioXMLElement@@@Z:PROC	; ioWnd::Save
EXTRN	?SetSaveData@ioWnd@@UAEXAAVioXMLElement@@@Z:PROC ; ioWnd::SetSaveData
EXTRN	?SetPosX@ioWnd@@UAEXH@Z:PROC			; ioWnd::SetPosX
EXTRN	?SetPosY@ioWnd@@UAEXH@Z:PROC			; ioWnd::SetPosY
EXTRN	?SetWidth@ioWnd@@UAEXH@Z:PROC			; ioWnd::SetWidth
EXTRN	?SetHeight@ioWnd@@UAEXH@Z:PROC			; ioWnd::SetHeight
EXTRN	?GetNumFixedRenderFrame@ioWnd@@UBEHXZ:PROC	; ioWnd::GetNumFixedRenderFrame
EXTRN	?GetFixedRenderFrameType@ioWnd@@UAEPBDH@Z:PROC	; ioWnd::GetFixedRenderFrameType
EXTRN	?GetRenderFrame@ioWnd@@UAEPAPAVioUIRenderElement@@PBD@Z:PROC ; ioWnd::GetRenderFrame
EXTRN	?GetNumFixedRenderImage@ioWnd@@UBEHXZ:PROC	; ioWnd::GetNumFixedRenderImage
EXTRN	?GetFixedRenderImageType@ioWnd@@UAEPBDH@Z:PROC	; ioWnd::GetFixedRenderImageType
EXTRN	?GetRenderImage@ioWnd@@UAEPAPAVioUIRenderElement@@PBD@Z:PROC ; ioWnd::GetRenderImage
EXTRN	?AddEffect@ioWnd@@UAEXABVioHashString@@PAVioUI3DEffectRender@@@Z:PROC ; ioWnd::AddEffect
EXTRN	?GetEffect@ioWnd@@UAEPAVioUI3DEffectRender@@VioHashString@@@Z:PROC ; ioWnd::GetEffect
EXTRN	??_EioWnd@@UAEPAXI@Z:PROC			; ioWnd::`vector deleting destructor'
;	COMDAT ??_R1A@?0A@EA@ioWnd@@8
rdata$r	SEGMENT
??_R1A@?0A@EA@ioWnd@@8 DD FLAT:??_R0?AVioWnd@@@8	; ioWnd::`RTTI Base Class Descriptor at (0,-1,0,64)'
	DD	00H
	DD	00H
	DD	0ffffffffH
	DD	00H
	DD	040H
	DD	FLAT:??_R3ioWnd@@8
rdata$r	ENDS
;	COMDAT ??_R2ioWnd@@8
rdata$r	SEGMENT
??_R2ioWnd@@8 DD FLAT:??_R1A@?0A@EA@ioWnd@@8		; ioWnd::`RTTI Base Class Array'
rdata$r	ENDS
;	COMDAT ??_R3ioWnd@@8
rdata$r	SEGMENT
??_R3ioWnd@@8 DD 00H					; ioWnd::`RTTI Class Hierarchy Descriptor'
	DD	00H
	DD	01H
	DD	FLAT:??_R2ioWnd@@8
rdata$r	ENDS
;	COMDAT ??_R0?AVioWnd@@@8
_DATA	SEGMENT
??_R0?AVioWnd@@@8 DD FLAT:??_7type_info@@6B@		; ioWnd `RTTI Type Descriptor'
	DD	00H
	DB	'.?AVioWnd@@', 00H
_DATA	ENDS
;	COMDAT ??_R4ioWnd@@6B@
rdata$r	SEGMENT
??_R4ioWnd@@6B@ DD 00H					; ioWnd::`RTTI Complete Object Locator'
	DD	00H
	DD	00H
	DD	FLAT:??_R0?AVioWnd@@@8
	DD	FLAT:??_R3ioWnd@@8
rdata$r	ENDS
;	COMDAT ??_SioWnd@@6B@
CONST	SEGMENT
??_SioWnd@@6B@ DD FLAT:??_R4ioWnd@@6B@			; ioWnd::`local vftable'
	DD	FLAT:?AddRenderFrame@ioWnd@@UAEXABVioHashString@@PAVioUIRenderFrame@@@Z
	DD	FLAT:?AddRenderImage@ioWnd@@UAEXABVioHashString@@PAVioUIRenderImage@@@Z
	DD	FLAT:?AddTooltipHelp@ioWnd@@UAEXABVioHashString@@00@Z
	DD	FLAT:?ParseExtraInfo@ioWnd@@UAEXAAVioXMLElement@@@Z
	DD	FLAT:?AddNamedRenderImage@ioWnd@@UAEXABVioHashString@@PAVioUIRenderImage@@@Z
	DD	FLAT:?RemoveNamedRenderImage@ioWnd@@UAEXABVioHashString@@@Z
	DD	FLAT:?GetNamedRenderImage@ioWnd@@UBEPAVioUIRenderImage@@ABVioHashString@@@Z
	DD	FLAT:?SetWindowAlpha@ioWnd@@UAEXH@Z
	DD	FLAT:?SetActive@ioWnd@@UAEXXZ
	DD	FLAT:?SetInActive@ioWnd@@UAEXXZ
	DD	FLAT:?ClearElementImageList@ioWnd@@UAEXXZ
	DD	FLAT:?SetSize@ioWnd@@UAEXHH@Z
	DD	FLAT:?SetPositionToDefault@ioWnd@@UAEXHH_N0@Z
	DD	FLAT:?IsNeedProcess@ioWnd@@UBE_NXZ
	DD	FLAT:?IsCanMouseReaction@ioWnd@@UBE_NXZ
	DD	FLAT:?AddChild@ioWnd@@UAEXPAV1@@Z
	DD	FLAT:?DeleteChild@ioWnd@@UAEXK@Z
	DD	FLAT:?DeleteAllChild@ioWnd@@UAEXXZ
	DD	FLAT:?OnRenderShowAndHide@ioWnd@@MAE_NXZ
	DD	FLAT:?OnRenderShowAndHideByDefault@ioWnd@@MAE_NK@Z
	DD	FLAT:?OnRenderShowAndHideByTop@ioWnd@@MAE_NK@Z
	DD	FLAT:?OnRenderShowAndHideByDown@ioWnd@@MAE_NK@Z
	DD	FLAT:?OnRender@ioWnd@@MAEXXZ
	DD	FLAT:?OnRenderAfterChild@ioWnd@@MAEXXZ
	DD	FLAT:?OnProcess@ioWnd@@MAEXM@Z
	DD	FLAT:?OnMouseProcess@ioWnd@@MAEXABVioMouse@@@Z
	DD	FLAT:?CheckFrameReSize@ioWnd@@MAEXHHHH@Z
	DD	FLAT:?RenderImageList@ioWnd@@MAEXHHW4UIRenderType@@@Z
	DD	FLAT:?iwm_create@ioWnd@@UAEXXZ
	DD	FLAT:?iwm_destroy@ioWnd@@UAEXXZ
	DD	FLAT:?iwm_lbuttondown@ioWnd@@UAEXABVioMouse@@@Z
	DD	FLAT:?iwm_lbuttonup@ioWnd@@UAEXABVioMouse@@@Z
	DD	FLAT:?iwm_lbuttonDBLCLK@ioWnd@@UAEXABVioMouse@@@Z
	DD	FLAT:?iwm_rbuttondown@ioWnd@@UAEXABVioMouse@@@Z
	DD	FLAT:?iwm_rbuttonup@ioWnd@@UAEXABVioMouse@@@Z
	DD	FLAT:?iwm_command@ioWnd@@UAEXPAV1@HK@Z
	DD	FLAT:?iwm_mouseover@ioWnd@@UAEXABVioMouse@@@Z
	DD	FLAT:?iwm_mousemove@ioWnd@@UAEXABVioMouse@@@Z
	DD	FLAT:?iwm_mouseleave@ioWnd@@UAEXABVioMouse@@@Z
	DD	FLAT:?iwm_vscroll@ioWnd@@UAEXKH@Z
	DD	FLAT:?iwm_wheel@ioWnd@@UAEXH@Z
	DD	FLAT:?iwm_show@ioWnd@@UAEXXZ
	DD	FLAT:?iwm_hide@ioWnd@@UAEXXZ
	DD	FLAT:?iwm_esc@ioWnd@@UAE_NXZ
	DD	FLAT:?iwm_spacebar@ioWnd@@UAE_NXZ
	DD	FLAT:?iwm_gototop@ioWnd@@UAEXXZ
	DD	FLAT:?iwm_dragenter@ioWnd@@UAE?AW4IWDropEffect@@PAVioDragItem@@ABVioMouse@@@Z
	DD	FLAT:?iwm_dragover@ioWnd@@UAE?AW4IWDropEffect@@PAVioDragItem@@ABVioMouse@@@Z
	DD	FLAT:?iwm_dragleave@ioWnd@@UAEXXZ
	DD	FLAT:?iwm_dropitem@ioWnd@@UAE_NPAVioDragItem@@ABVioMouse@@PAV1@@Z
	DD	FLAT:?iwm_dropdone@ioWnd@@UAEXPAVioDragItem@@PAV1@_N@Z
	DD	FLAT:?IsEXType@ioWnd@@UBE_NXZ
	DD	FLAT:?GetWndType@ioWnd@@UBEKXZ
	DD	FLAT:?RenderWnd@ioWnd@@UAEXXZ
	DD	FLAT:?SetIDEX@ioWnd@@UAEXAAK_N@Z
	DD	FLAT:?ParseXML@ioWnd@@UAEXAAVioXMLElement@@@Z
	DD	FLAT:?GetHeaderFileName@ioWnd@@UAEPBDXZ
	DD	FLAT:?GetTemplateName@ioWnd@@UAEPBDXZ
	DD	FLAT:?GetDefClassName@ioWnd@@UBEPBDXZ
	DD	FLAT:?_Clone@ioWnd@@UAEPAV1@XZ
	DD	FLAT:?Copy@ioWnd@@UAEXPAV1@@Z
	DD	FLAT:?Save@ioWnd@@UAE_NAAVioXMLElement@@@Z
	DD	FLAT:?SetSaveData@ioWnd@@UAEXAAVioXMLElement@@@Z
	DD	FLAT:?SetPosX@ioWnd@@UAEXH@Z
	DD	FLAT:?SetPosY@ioWnd@@UAEXH@Z
	DD	FLAT:?SetWidth@ioWnd@@UAEXH@Z
	DD	FLAT:?SetHeight@ioWnd@@UAEXH@Z
	DD	FLAT:?GetNumFixedRenderFrame@ioWnd@@UBEHXZ
	DD	FLAT:?GetFixedRenderFrameType@ioWnd@@UAEPBDH@Z
	DD	FLAT:?GetRenderFrame@ioWnd@@UAEPAPAVioUIRenderElement@@PBD@Z
	DD	FLAT:?GetNumFixedRenderImage@ioWnd@@UBEHXZ
	DD	FLAT:?GetFixedRenderImageType@ioWnd@@UAEPBDH@Z
	DD	FLAT:?GetRenderImage@ioWnd@@UAEPAPAVioUIRenderElement@@PBD@Z
	DD	FLAT:?AddEffect@ioWnd@@UAEXABVioHashString@@PAVioUI3DEffectRender@@@Z
	DD	FLAT:?GetEffect@ioWnd@@UAEPAVioUI3DEffectRender@@VioHashString@@@Z
	DD	FLAT:??_EioWnd@@UAEPAXI@Z
CONST	ENDS
;	COMDAT xdata$x
xdata$x	SEGMENT
__unwindtable$?InitDeskTop@ioBasicTooltipManager@@QAEXHH@Z DD 0ffffffffH
	DD	FLAT:__unwindfunclet$?InitDeskTop@ioBasicTooltipManager@@QAEXHH@Z$0
__ehfuncinfo$?InitDeskTop@ioBasicTooltipManager@@QAEXHH@Z DD 019930522H
	DD	01H
	DD	FLAT:__unwindtable$?InitDeskTop@ioBasicTooltipManager@@QAEXHH@Z
	DD	2 DUP(00H)
	DD	2 DUP(00H)
	DD	00H
	DD	01H
; Function compile flags: /Ogsp
xdata$x	ENDS
;	COMDAT ?InitDeskTop@ioBasicTooltipManager@@QAEXHH@Z
_TEXT	SEGMENT
$T513881 = -36						; size = 4
_rcRect$ = -32						; size = 16
__$EHRec$ = -12						; size = 12
_iWidth$ = 8						; size = 4
_iHeight$ = 12						; size = 4
?InitDeskTop@ioBasicTooltipManager@@QAEXHH@Z PROC	; ioBasicTooltipManager::InitDeskTop, COMDAT
; _this$ = ecx

; 30   : {

  00000	6a 18		 push	 24			; 00000018H
  00002	b8 00 00 00 00	 mov	 eax, __ehhandler$?InitDeskTop@ioBasicTooltipManager@@QAEXHH@Z
  00007	e8 00 00 00 00	 call	 __EH_prolog3_GS

; 31   : 	RECT rcRect;
; 32   : 	SetRect( &rcRect, 0, 0, iWidth, iHeight );

  0000c	ff 75 0c	 push	 DWORD PTR _iHeight$[ebp]
  0000f	8d 45 e0	 lea	 eax, DWORD PTR _rcRect$[ebp]
  00012	ff 75 08	 push	 DWORD PTR _iWidth$[ebp]
  00015	8b f1		 mov	 esi, ecx
  00017	6a 00		 push	 0
  00019	6a 00		 push	 0
  0001b	50		 push	 eax
  0001c	ff 15 00 00 00
	00		 call	 DWORD PTR __imp__SetRect@20

; 33   : 	
; 34   : 	m_pToolTipWnd = new ioWnd;

  00022	68 60 01 00 00	 push	 352			; 00000160H
  00027	e8 00 00 00 00	 call	 ??2@YAPAXI@Z		; operator new
  0002c	8b f8		 mov	 edi, eax
  0002e	59		 pop	 ecx
  0002f	89 7d dc	 mov	 DWORD PTR $T513881[ebp], edi
  00032	83 65 fc 00	 and	 DWORD PTR __$EHRec$[ebp+8], 0
  00036	85 ff		 test	 edi, edi
  00038	74 12		 je	 SHORT $LN3@InitDeskTo
  0003a	8b cf		 mov	 ecx, edi
  0003c	ff 15 00 00 00
	00		 call	 DWORD PTR __imp_??0ioWnd@@QAE@XZ
  00042	c7 07 00 00 00
	00		 mov	 DWORD PTR [edi], OFFSET ??_SioWnd@@6B@
  00048	8b cf		 mov	 ecx, edi
  0004a	eb 02		 jmp	 SHORT $LN4@InitDeskTo
$LN3@InitDeskTo:
  0004c	33 c9		 xor	 ecx, ecx
$LN4@InitDeskTo:
  0004e	83 4d fc ff	 or	 DWORD PTR __$EHRec$[ebp+8], -1

; 35   : 	m_pToolTipWnd->SetID( BASIC_TOOLTIP_MGR );

  00052	68 2a 27 00 00	 push	 10026			; 0000272aH
  00057	89 4e 04	 mov	 DWORD PTR [esi+4], ecx
  0005a	ff 15 00 00 00
	00		 call	 DWORD PTR __imp_?SetID@ioWnd@@QAEXK@Z

; 36   : 	m_pToolTipWnd->SetWndStyle( IWS_DRAG_DROP );

  00060	8b 4e 04	 mov	 ecx, DWORD PTR [esi+4]
  00063	68 00 01 00 00	 push	 256			; 00000100H
  00068	ff 15 00 00 00
	00		 call	 DWORD PTR __imp_?SetWndStyle@ioWnd@@QAEXK@Z

; 37   : 	m_pToolTipWnd->iwm_create();

  0006e	8b 4e 04	 mov	 ecx, DWORD PTR [esi+4]
  00071	8b 01		 mov	 eax, DWORD PTR [ecx]
  00073	ff 50 70	 call	 DWORD PTR [eax+112]

; 38   : 	m_pToolTipWnd->SetWndRect( rcRect );	

  00076	8b 4e 04	 mov	 ecx, DWORD PTR [esi+4]
  00079	8d 45 e0	 lea	 eax, DWORD PTR _rcRect$[ebp]
  0007c	50		 push	 eax
  0007d	ff 15 00 00 00
	00		 call	 DWORD PTR __imp_?SetWndRect@ioWnd@@QAEXABUtagRECT@@@Z

; 39   : 
; 40   : 	ExcuteReAlloc();

  00083	8b ce		 mov	 ecx, esi
  00085	e8 00 00 00 00	 call	 ?ExcuteReAlloc@ioBasicTooltipManager@@QAEXXZ ; ioBasicTooltipManager::ExcuteReAlloc

; 41   : 	ExcuteReserveAlloc();

  0008a	8b ce		 mov	 ecx, esi
  0008c	e8 00 00 00 00	 call	 ?ExcuteReserveAlloc@ioBasicTooltipManager@@QAEXXZ ; ioBasicTooltipManager::ExcuteReserveAlloc

; 42   : 
; 43   : 	//GUIMananger Init   GUIMananger       
; 44   : 	g_GUIMgr.AddDeskTopChild( m_pToolTipWnd );

  00091	ff 76 04	 push	 DWORD PTR [esi+4]
  00094	e8 00 00 00 00	 call	 ?GetSingleton@ioSP2GUIManager@@SAAAV1@XZ ; ioSP2GUIManager::GetSingleton
  00099	8b c8		 mov	 ecx, eax
  0009b	ff 15 00 00 00
	00		 call	 DWORD PTR __imp_?AddDeskTopChild@ioGUIManager@@QAEXPAVioWnd@@@Z

; 45   : }

  000a1	e8 00 00 00 00	 call	 __EH_epilog3_GS
  000a6	c2 08 00	 ret	 8
_TEXT	ENDS
;	COMDAT text$x
text$x	SEGMENT
__unwindfunclet$?InitDeskTop@ioBasicTooltipManager@@QAEXHH@Z$0:
  00000	ff 75 dc	 push	 DWORD PTR $T513881[ebp]
  00003	e8 00 00 00 00	 call	 ??3@YAXPAX@Z		; operator delete
  00008	59		 pop	 ecx
  00009	c3		 ret	 0
__ehhandler$?InitDeskTop@ioBasicTooltipManager@@QAEXHH@Z:
  0000a	8b 54 24 08	 mov	 edx, DWORD PTR [esp+8]
  0000e	8d 42 0c	 lea	 eax, DWORD PTR [edx+12]
  00011	8b 4a d8	 mov	 ecx, DWORD PTR [edx-40]
  00014	33 c8		 xor	 ecx, eax
  00016	e8 00 00 00 00	 call	 @__security_check_cookie@4
  0001b	8b 4a fc	 mov	 ecx, DWORD PTR [edx-4]
  0001e	33 c8		 xor	 ecx, eax
  00020	e8 00 00 00 00	 call	 @__security_check_cookie@4
  00025	b8 00 00 00 00	 mov	 eax, OFFSET __ehfuncinfo$?InitDeskTop@ioBasicTooltipManager@@QAEXHH@Z
  0002a	e9 00 00 00 00	 jmp	 ___CxxFrameHandler3
text$x	ENDS
?InitDeskTop@ioBasicTooltipManager@@QAEXHH@Z ENDP	; ioBasicTooltipManager::InitDeskTop
EXTRN	__imp_??1ioWnd@@UAE@XZ:PROC
; Function compile flags: /Ogsp
;	COMDAT ??_GioWnd@@UAEPAXI@Z
_TEXT	SEGMENT
___flags$ = 8						; size = 4
??_GioWnd@@UAEPAXI@Z PROC				; ioWnd::`scalar deleting destructor', COMDAT
; _this$ = ecx
  00000	55		 push	 ebp
  00001	8b ec		 mov	 ebp, esp
  00003	56		 push	 esi
  00004	8b f1		 mov	 esi, ecx
  00006	ff 15 00 00 00
	00		 call	 DWORD PTR __imp_??1ioWnd@@UAE@XZ
  0000c	f6 45 08 01	 test	 BYTE PTR ___flags$[ebp], 1
  00010	74 07		 je	 SHORT $LN1@scalar@4
  00012	56		 push	 esi
  00013	e8 00 00 00 00	 call	 ??3@YAXPAX@Z		; operator delete
  00018	59		 pop	 ecx
$LN1@scalar@4:
  00019	8b c6		 mov	 eax, esi
  0001b	5e		 pop	 esi
  0001c	5d		 pop	 ebp
  0001d	c2 04 00	 ret	 4
??_GioWnd@@UAEPAXI@Z ENDP				; ioWnd::`scalar deleting destructor'
_TEXT	ENDS
PUBLIC	_szTooltipXmlName$GSCopy$
PUBLIC	?NewReserveToolTip@ioBasicTooltipManager@@QAEXABV?$basic_string@DU?$char_traits@D@std@@V?$allocator@D@2@@std@@@Z ; ioBasicTooltipManager::NewReserveToolTip
;	COMDAT xdata$x
; File c:\program files (x86)\microsoft visual studio 10.0\vc\include\xstring
xdata$x	SEGMENT
__unwindtable$?NewReserveToolTip@ioBasicTooltipManager@@QAEXABV?$basic_string@DU?$char_traits@D@std@@V?$allocator@D@2@@std@@@Z DD 0ffffffffH
	DD	FLAT:__unwindfunclet$?NewReserveToolTip@ioBasicTooltipManager@@QAEXABV?$basic_string@DU?$char_traits@D@std@@V?$allocator@D@2@@std@@@Z$0
__ehfuncinfo$?NewReserveToolTip@ioBasicTooltipManager@@QAEXABV?$basic_string@DU?$char_traits@D@std@@V?$allocator@D@2@@std@@@Z DD 019930522H
	DD	01H
	DD	FLAT:__unwindtable$?NewReserveToolTip@ioBasicTooltipManager@@QAEXABV?$basic_string@DU?$char_traits@D@std@@V?$allocator@D@2@@std@@@Z
	DD	2 DUP(00H)
	DD	2 DUP(00H)
	DD	00H
	DD	01H
; Function compile flags: /Ogsp
; File d:\lost saga for developer\youtube\tutorial\source\src\lsclient\iobasictooltipmanager.cpp
xdata$x	ENDS
;	COMDAT ?NewReserveToolTip@ioBasicTooltipManager@@QAEXABV?$basic_string@DU?$char_traits@D@std@@V?$allocator@D@2@@std@@@Z
_TEXT	SEGMENT
_szTooltipXmlName$GSCopy$ = -52				; size = 4
_Alloc$ = -48						; size = 32
__$EHRec$ = -12						; size = 12
_szTooltipXmlName$ = 8					; size = 4
?NewReserveToolTip@ioBasicTooltipManager@@QAEXABV?$basic_string@DU?$char_traits@D@std@@V?$allocator@D@2@@std@@@Z PROC ; ioBasicTooltipManager::NewReserveToolTip, COMDAT
; _this$ = ecx

; 74   : {

  00000	6a 28		 push	 40			; 00000028H
  00002	b8 00 00 00 00	 mov	 eax, __ehhandler$?NewReserveToolTip@ioBasicTooltipManager@@QAEXABV?$basic_string@DU?$char_traits@D@std@@V?$allocator@D@2@@std@@@Z
  00007	e8 00 00 00 00	 call	 __EH_prolog3_GS
  0000c	8b f1		 mov	 esi, ecx
  0000e	8b 4d 08	 mov	 ecx, DWORD PTR _szTooltipXmlName$[ebp]

; 75   : 	if( szTooltipXmlName.empty() )

  00011	33 c0		 xor	 eax, eax

; 83   : 			return;
; 84   : 	}
; 85   : 
; 86   : 	TooltipAlloc Alloc;

  00013	89 4d cc	 mov	 DWORD PTR _szTooltipXmlName$GSCopy$[ebp], ecx
  00016	39 41 10	 cmp	 DWORD PTR [ecx+16], eax
  00019	74 5a		 je	 SHORT $LN77@NewReserve

; 76   : 		return;
; 77   : 
; 78   : 	TooltipAllocVector::iterator iter = m_ReserveAlloc.begin();
; 79   : 	for( ; iter != m_ReserveAlloc.end(); ++iter )

  0001b	8b 7e 18	 mov	 edi, DWORD PTR [esi+24]
  0001e	3b 7e 1c	 cmp	 edi, DWORD PTR [esi+28]
  00021	74 18		 je	 SHORT $LN2@NewReserve
$LN21@NewReserve:

; 80   : 	{
; 81   : 		const TooltipAlloc& Alloc = *iter;
; 82   : 		if( Alloc.szTooltipXmlName == szTooltipXmlName )

  00023	ff 75 cc	 push	 DWORD PTR _szTooltipXmlName$GSCopy$[ebp]
  00026	8b cf		 mov	 ecx, edi
  00028	e8 00 00 00 00	 call	 ?compare@?$basic_string@DU?$char_traits@D@std@@V?$allocator@D@2@@std@@QBEHABV12@@Z ; std::basic_string<char,std::char_traits<char>,std::allocator<char> >::compare
  0002d	85 c0		 test	 eax, eax
  0002f	74 44		 je	 SHORT $LN77@NewReserve

; 76   : 		return;
; 77   : 
; 78   : 	TooltipAllocVector::iterator iter = m_ReserveAlloc.begin();
; 79   : 	for( ; iter != m_ReserveAlloc.end(); ++iter )

  00031	83 c7 20	 add	 edi, 32			; 00000020H
  00034	3b 7e 1c	 cmp	 edi, DWORD PTR [esi+28]
  00037	75 ea		 jne	 SHORT $LN21@NewReserve
  00039	33 c0		 xor	 eax, eax
$LN2@NewReserve:

; 83   : 			return;
; 84   : 	}
; 85   : 
; 86   : 	TooltipAlloc Alloc;

  0003b	c7 45 e4 0f 00
	00 00		 mov	 DWORD PTR _Alloc$[ebp+20], 15 ; 0000000fH
  00042	89 45 e0	 mov	 DWORD PTR _Alloc$[ebp+16], eax
  00045	c6 45 d0 00	 mov	 BYTE PTR _Alloc$[ebp], 0
  00049	89 45 ec	 mov	 DWORD PTR _Alloc$[ebp+28], eax

; 87   : 	Alloc.szTooltipXmlName	= szTooltipXmlName;	

  0004c	6a ff		 push	 -1
  0004e	50		 push	 eax
  0004f	ff 75 cc	 push	 DWORD PTR _szTooltipXmlName$GSCopy$[ebp]
  00052	8d 4d d0	 lea	 ecx, DWORD PTR _Alloc$[ebp]
  00055	89 45 fc	 mov	 DWORD PTR __$EHRec$[ebp+8], eax
  00058	e8 00 00 00 00	 call	 ?assign@?$basic_string@DU?$char_traits@D@std@@V?$allocator@D@2@@std@@QAEAAV12@ABV12@II@Z ; std::basic_string<char,std::char_traits<char>,std::allocator<char> >::assign

; 88   : 	m_ReserveAlloc.push_back( Alloc );

  0005d	8d 45 d0	 lea	 eax, DWORD PTR _Alloc$[ebp]
  00060	50		 push	 eax
  00061	8d 4e 18	 lea	 ecx, DWORD PTR [esi+24]
  00064	e8 00 00 00 00	 call	 ?push_back@?$vector@UTooltipAlloc@ioBasicTooltipManager@@V?$allocator@UTooltipAlloc@ioBasicTooltipManager@@@std@@@std@@QAEXABUTooltipAlloc@ioBasicTooltipManager@@@Z ; std::vector<ioBasicTooltipManager::TooltipAlloc,std::allocator<ioBasicTooltipManager::TooltipAlloc> >::push_back

; 89   : }

  00069	6a 00		 push	 0
  0006b	6a 01		 push	 1
  0006d	8d 4d d0	 lea	 ecx, DWORD PTR _Alloc$[ebp]
  00070	e8 00 00 00 00	 call	 ?_Tidy@?$basic_string@DU?$char_traits@D@std@@V?$allocator@D@2@@std@@QAEX_NI@Z ; std::basic_string<char,std::char_traits<char>,std::allocator<char> >::_Tidy
$LN77@NewReserve:
  00075	e8 00 00 00 00	 call	 __EH_epilog3_GS
  0007a	c2 04 00	 ret	 4
_TEXT	ENDS
;	COMDAT text$x
text$x	SEGMENT
__unwindfunclet$?NewReserveToolTip@ioBasicTooltipManager@@QAEXABV?$basic_string@DU?$char_traits@D@std@@V?$allocator@D@2@@std@@@Z$0:
  00000	8d 4d d0	 lea	 ecx, DWORD PTR _Alloc$[ebp]
  00003	e9 00 00 00 00	 jmp	 ??1TooltipAlloc@ioBasicTooltipManager@@QAE@XZ
__ehhandler$?NewReserveToolTip@ioBasicTooltipManager@@QAEXABV?$basic_string@DU?$char_traits@D@std@@V?$allocator@D@2@@std@@@Z:
  00008	8b 54 24 08	 mov	 edx, DWORD PTR [esp+8]
  0000c	8d 42 0c	 lea	 eax, DWORD PTR [edx+12]
  0000f	8b 4a c8	 mov	 ecx, DWORD PTR [edx-56]
  00012	33 c8		 xor	 ecx, eax
  00014	e8 00 00 00 00	 call	 @__security_check_cookie@4
  00019	8b 4a fc	 mov	 ecx, DWORD PTR [edx-4]
  0001c	33 c8		 xor	 ecx, eax
  0001e	e8 00 00 00 00	 call	 @__security_check_cookie@4
  00023	b8 00 00 00 00	 mov	 eax, OFFSET __ehfuncinfo$?NewReserveToolTip@ioBasicTooltipManager@@QAEXABV?$basic_string@DU?$char_traits@D@std@@V?$allocator@D@2@@std@@@Z
  00028	e9 00 00 00 00	 jmp	 ___CxxFrameHandler3
text$x	ENDS
?NewReserveToolTip@ioBasicTooltipManager@@QAEXABV?$basic_string@DU?$char_traits@D@std@@V?$allocator@D@2@@std@@@Z ENDP ; ioBasicTooltipManager::NewReserveToolTip
PUBLIC	??0?$map@KUTooltipAlloc@ioBasicTooltipManager@@U?$less@K@std@@V?$allocator@U?$pair@$$CBKUTooltipAlloc@ioBasicTooltipManager@@@std@@@4@@std@@QAE@XZ ; std::map<unsigned long,ioBasicTooltipManager::TooltipAlloc,std::less<unsigned long>,std::allocator<std::pair<unsigned long const ,ioBasicTooltipManager::TooltipAlloc> > >::map<unsigned long,ioBasicTooltipManager::TooltipAlloc,std::less<unsigned long>,std::allocator<std::pair<unsigned long const ,ioBasicTooltipManager::TooltipAlloc> > >
; Function compile flags: /Ogsp
; File c:\program files (x86)\microsoft visual studio 10.0\vc\include\map
;	COMDAT ??0?$map@KUTooltipAlloc@ioBasicTooltipManager@@U?$less@K@std@@V?$allocator@U?$pair@$$CBKUTooltipAlloc@ioBasicTooltipManager@@@std@@@4@@std@@QAE@XZ
_TEXT	SEGMENT
$T514160 = -8						; size = 4
$T514162 = -8						; size = 4
$T514149 = -1						; size = 1
??0?$map@KUTooltipAlloc@ioBasicTooltipManager@@U?$less@K@std@@V?$allocator@U?$pair@$$CBKUTooltipAlloc@ioBasicTooltipManager@@@std@@@4@@std@@QAE@XZ PROC ; std::map<unsigned long,ioBasicTooltipManager::TooltipAlloc,std::less<unsigned long>,std::allocator<std::pair<unsigned long const ,ioBasicTooltipManager::TooltipAlloc> > >::map<unsigned long,ioBasicTooltipManager::TooltipAlloc,std::less<unsigned long>,std::allocator<std::pair<unsigned long const ,ioBasicTooltipManager::TooltipAlloc> > >, COMDAT
; _this$ = ecx

; 106  : 		{	// construct empty map from defaults

  00000	55		 push	 ebp
  00001	8b ec		 mov	 ebp, esp
  00003	51		 push	 ecx
  00004	51		 push	 ecx
  00005	56		 push	 esi
  00006	51		 push	 ecx
  00007	89 65 f8	 mov	 DWORD PTR $T514162[ebp], esp
  0000a	8d 45 ff	 lea	 eax, DWORD PTR $T514149[ebp]
  0000d	89 65 f8	 mov	 DWORD PTR $T514160[ebp], esp
  00010	50		 push	 eax
  00011	8b f1		 mov	 esi, ecx
  00013	e8 00 00 00 00	 call	 ??0?$_Tree_val@V?$_Tmap_traits@KUTooltipAlloc@ioBasicTooltipManager@@U?$less@K@std@@V?$allocator@U?$pair@$$CBKUTooltipAlloc@ioBasicTooltipManager@@@std@@@4@$0A@@std@@@std@@QAE@ABU?$less@K@1@V?$allocator@U?$pair@$$CBKUTooltipAlloc@ioBasicTooltipManager@@@std@@@1@@Z ; std::_Tree_val<std::_Tmap_traits<unsigned long,ioBasicTooltipManager::TooltipAlloc,std::less<unsigned long>,std::allocator<std::pair<unsigned long const ,ioBasicTooltipManager::TooltipAlloc> >,0> >::_Tree_val<std::_Tmap_traits<unsigned long,ioBasicTooltipManager::TooltipAlloc,std::less<unsigned long>,std::allocator<std::pair<unsigned long const ,ioBasicTooltipManager::TooltipAlloc> >,0> >

; 107  : 		}

  00018	8b c6		 mov	 eax, esi
  0001a	5e		 pop	 esi
  0001b	c9		 leave
  0001c	c3		 ret	 0
??0?$map@KUTooltipAlloc@ioBasicTooltipManager@@U?$less@K@std@@V?$allocator@U?$pair@$$CBKUTooltipAlloc@ioBasicTooltipManager@@@std@@@4@@std@@QAE@XZ ENDP ; std::map<unsigned long,ioBasicTooltipManager::TooltipAlloc,std::less<unsigned long>,std::allocator<std::pair<unsigned long const ,ioBasicTooltipManager::TooltipAlloc> > >::map<unsigned long,ioBasicTooltipManager::TooltipAlloc,std::less<unsigned long>,std::allocator<std::pair<unsigned long const ,ioBasicTooltipManager::TooltipAlloc> > >
_TEXT	ENDS
PUBLIC	??0ioBasicTooltipManager@@QAE@XZ		; ioBasicTooltipManager::ioBasicTooltipManager
;	COMDAT xdata$x
; File c:\program files (x86)\microsoft visual studio 10.0\vc\include\xmemory
xdata$x	SEGMENT
__unwindtable$??0ioBasicTooltipManager@@QAE@XZ DD 0ffffffffH
	DD	FLAT:__unwindfunclet$??0ioBasicTooltipManager@@QAE@XZ$0
__ehfuncinfo$??0ioBasicTooltipManager@@QAE@XZ DD 019930522H
	DD	01H
	DD	FLAT:__unwindtable$??0ioBasicTooltipManager@@QAE@XZ
	DD	2 DUP(00H)
	DD	2 DUP(00H)
	DD	00H
	DD	01H
; Function compile flags: /Ogsp
; File d:\lost saga for developer\youtube\tutorial\source\src\lsclient\iobasictooltipmanager.cpp
xdata$x	ENDS
;	COMDAT ??0ioBasicTooltipManager@@QAE@XZ
_TEXT	SEGMENT
$T514193 = -24						; size = 4
$T514206 = -24						; size = 4
_this$ = -20						; size = 4
$T514202 = -13						; size = 1
__$EHRec$ = -12						; size = 12
??0ioBasicTooltipManager@@QAE@XZ PROC			; ioBasicTooltipManager::ioBasicTooltipManager, COMDAT
; _this$ = ecx

; 12   : {

  00000	6a 0c		 push	 12			; 0000000cH
  00002	b8 00 00 00 00	 mov	 eax, __ehhandler$??0ioBasicTooltipManager@@QAE@XZ
  00007	e8 00 00 00 00	 call	 __EH_prolog3
  0000c	8b f1		 mov	 esi, ecx
  0000e	89 75 ec	 mov	 DWORD PTR _this$[ebp], esi
  00011	8b c6		 mov	 eax, esi
  00013	a3 00 00 00 00	 mov	 DWORD PTR ?ms_Singleton@?$Singleton@VioBasicTooltipManager@@@@1PAVioBasicTooltipManager@@A, eax ; Singleton<ioBasicTooltipManager>::ms_Singleton
  00018	8d 4e 08	 lea	 ecx, DWORD PTR [esi+8]
  0001b	51		 push	 ecx
  0001c	89 65 e8	 mov	 DWORD PTR $T514206[ebp], esp
  0001f	8d 45 f3	 lea	 eax, DWORD PTR $T514202[ebp]
  00022	33 ff		 xor	 edi, edi
  00024	89 65 e8	 mov	 DWORD PTR $T514193[ebp], esp
  00027	50		 push	 eax
  00028	89 7d fc	 mov	 DWORD PTR __$EHRec$[ebp+8], edi
  0002b	c7 06 00 00 00
	00		 mov	 DWORD PTR [esi], OFFSET ??_7ioBasicTooltipManager@@6B@
  00031	e8 00 00 00 00	 call	 ??0?$_Tree_val@V?$_Tmap_traits@KUTooltipAlloc@ioBasicTooltipManager@@U?$less@K@std@@V?$allocator@U?$pair@$$CBKUTooltipAlloc@ioBasicTooltipManager@@@std@@@4@$0A@@std@@@std@@QAE@ABU?$less@K@1@V?$allocator@U?$pair@$$CBKUTooltipAlloc@ioBasicTooltipManager@@@std@@@1@@Z ; std::_Tree_val<std::_Tmap_traits<unsigned long,ioBasicTooltipManager::TooltipAlloc,std::less<unsigned long>,std::allocator<std::pair<unsigned long const ,ioBasicTooltipManager::TooltipAlloc> >,0> >::_Tree_val<std::_Tmap_traits<unsigned long,ioBasicTooltipManager::TooltipAlloc,std::less<unsigned long>,std::allocator<std::pair<unsigned long const ,ioBasicTooltipManager::TooltipAlloc> >,0> >
  00036	89 7e 18	 mov	 DWORD PTR [esi+24], edi
  00039	89 7e 1c	 mov	 DWORD PTR [esi+28], edi
  0003c	89 7e 20	 mov	 DWORD PTR [esi+32], edi

; 13   : 	m_pToolTipWnd = NULL;

  0003f	89 7e 04	 mov	 DWORD PTR [esi+4], edi

; 14   : }

  00042	8b c6		 mov	 eax, esi
  00044	e8 00 00 00 00	 call	 __EH_epilog3
  00049	c3		 ret	 0
_TEXT	ENDS
;	COMDAT text$x
text$x	SEGMENT
__unwindfunclet$??0ioBasicTooltipManager@@QAE@XZ$0:
  00000	8b 4d ec	 mov	 ecx, DWORD PTR _this$[ebp]
  00003	83 c1 04	 add	 ecx, 4
  00006	e9 00 00 00 00	 jmp	 ??1?$Singleton@VioBasicTooltipManager@@@@QAE@XZ ; Singleton<ioBasicTooltipManager>::~Singleton<ioBasicTooltipManager>
__ehhandler$??0ioBasicTooltipManager@@QAE@XZ:
  0000b	8b 54 24 08	 mov	 edx, DWORD PTR [esp+8]
  0000f	8d 42 0c	 lea	 eax, DWORD PTR [edx+12]
  00012	8b 4a e4	 mov	 ecx, DWORD PTR [edx-28]
  00015	33 c8		 xor	 ecx, eax
  00017	e8 00 00 00 00	 call	 @__security_check_cookie@4
  0001c	b8 00 00 00 00	 mov	 eax, OFFSET __ehfuncinfo$??0ioBasicTooltipManager@@QAE@XZ
  00021	e9 00 00 00 00	 jmp	 ___CxxFrameHandler3
text$x	ENDS
??0ioBasicTooltipManager@@QAE@XZ ENDP			; ioBasicTooltipManager::ioBasicTooltipManager
; Function compile flags: /Ogsp
;	COMDAT ??_GioBasicTooltipManager@@UAEPAXI@Z
_TEXT	SEGMENT
___flags$ = 8						; size = 4
??_GioBasicTooltipManager@@UAEPAXI@Z PROC		; ioBasicTooltipManager::`scalar deleting destructor', COMDAT
; _this$ = ecx
  00000	55		 push	 ebp
  00001	8b ec		 mov	 ebp, esp
  00003	56		 push	 esi
  00004	8b f1		 mov	 esi, ecx
  00006	e8 00 00 00 00	 call	 ??1ioBasicTooltipManager@@UAE@XZ ; ioBasicTooltipManager::~ioBasicTooltipManager
  0000b	f6 45 08 01	 test	 BYTE PTR ___flags$[ebp], 1
  0000f	74 07		 je	 SHORT $LN1@scalar@5
  00011	56		 push	 esi
  00012	e8 00 00 00 00	 call	 ??3@YAXPAX@Z		; operator delete
  00017	59		 pop	 ecx
$LN1@scalar@5:
  00018	8b c6		 mov	 eax, esi
  0001a	5e		 pop	 esi
  0001b	5d		 pop	 ebp
  0001c	c2 04 00	 ret	 4
??_GioBasicTooltipManager@@UAEPAXI@Z ENDP		; ioBasicTooltipManager::`scalar deleting destructor'
_TEXT	ENDS
END
