; Listing generated by Microsoft (R) Optimizing Compiler Version 16.00.30319.01 

	TITLE	D:\Lost Saga For Developer\Youtube\Tutorial\Source\src\LSClient\Housing\ioBlockSetupManager.cpp
	.686P
	.XMM
	include listing.inc
	.model	flat

INCLUDELIB MSVCRT
INCLUDELIB OLDNAMES

PUBLIC	?_EEM_DS@?$deque@UD3DXVECTOR3@@V?$allocator@UD3DXVECTOR3@@@std@@@std@@2HB ; std::deque<D3DXVECTOR3,std::allocator<D3DXVECTOR3> >::_EEM_DS
PUBLIC	?ms_Singleton@?$Singleton@VioBlockSetupManager@@@@1PAVioBlockSetupManager@@A ; Singleton<ioBlockSetupManager>::ms_Singleton
;	COMDAT ?ms_Singleton@?$Singleton@VioBlockSetupManager@@@@1PAVioBlockSetupManager@@A
_BSS	SEGMENT
?ms_Singleton@?$Singleton@VioBlockSetupManager@@@@1PAVioBlockSetupManager@@A DD 01H DUP (?) ; Singleton<ioBlockSetupManager>::ms_Singleton
_BSS	ENDS
;	COMDAT ?_EEM_DS@?$deque@UD3DXVECTOR3@@V?$allocator@UD3DXVECTOR3@@@std@@@std@@2HB
CONST	SEGMENT
?_EEM_DS@?$deque@UD3DXVECTOR3@@V?$allocator@UD3DXVECTOR3@@@std@@@std@@2HB DD 01H ; std::deque<D3DXVECTOR3,std::allocator<D3DXVECTOR3> >::_EEM_DS
CONST	ENDS
PUBLIC	??0TilePos@@QAE@HHH@Z				; TilePos::TilePos
; Function compile flags: /Ogsp
; File d:\lost saga for developer\youtube\tutorial\source\src\lsclient\housing\blockdefine.h
;	COMDAT ??0TilePos@@QAE@HHH@Z
_TEXT	SEGMENT
_nX$ = 8						; size = 4
_nY$ = 12						; size = 4
_nZ$ = 16						; size = 4
??0TilePos@@QAE@HHH@Z PROC				; TilePos::TilePos, COMDAT
; _this$ = ecx

; 96   : 	TilePos( int nX, int nY, int nZ )

  00000	55		 push	 ebp
  00001	8b ec		 mov	 ebp, esp
  00003	8b c1		 mov	 eax, ecx

; 97   : 	{
; 98   : 		x		= nX;

  00005	8b 4d 08	 mov	 ecx, DWORD PTR _nX$[ebp]

; 99   : 		y		= nY;
; 100  : 		z		= nZ;
; 101  : 		event	= 0;

  00008	83 60 0c 00	 and	 DWORD PTR [eax+12], 0
  0000c	89 08		 mov	 DWORD PTR [eax], ecx
  0000e	8b 4d 0c	 mov	 ecx, DWORD PTR _nY$[ebp]
  00011	89 48 08	 mov	 DWORD PTR [eax+8], ecx
  00014	8b 4d 10	 mov	 ecx, DWORD PTR _nZ$[ebp]
  00017	89 48 04	 mov	 DWORD PTR [eax+4], ecx

; 102  : 	}

  0001a	5d		 pop	 ebp
  0001b	c2 0c 00	 ret	 12			; 0000000cH
??0TilePos@@QAE@HHH@Z ENDP				; TilePos::TilePos
_TEXT	ENDS
PUBLIC	?GetCode@ioBlockProperty@@QBEHXZ		; ioBlockProperty::GetCode
; Function compile flags: /Ogsp
; File d:\lost saga for developer\youtube\tutorial\source\src\lsclient\housing\ioblockproperty.h
;	COMDAT ?GetCode@ioBlockProperty@@QBEHXZ
_TEXT	SEGMENT
?GetCode@ioBlockProperty@@QBEHXZ PROC			; ioBlockProperty::GetCode, COMDAT
; _this$ = ecx

; 133  : 	int GetCode() const { return m_nCode; }

  00000	8b 41 04	 mov	 eax, DWORD PTR [ecx+4]
  00003	c3		 ret	 0
?GetCode@ioBlockProperty@@QBEHXZ ENDP			; ioBlockProperty::GetCode
_TEXT	ENDS
PUBLIC	?GetTileMax@ioBlockManager@@QAEHXZ		; ioBlockManager::GetTileMax
; Function compile flags: /Ogsp
; File d:\lost saga for developer\youtube\tutorial\source\src\lsclient\housing\ioblockmanager.h
;	COMDAT ?GetTileMax@ioBlockManager@@QAEHXZ
_TEXT	SEGMENT
?GetTileMax@ioBlockManager@@QAEHXZ PROC			; ioBlockManager::GetTileMax, COMDAT
; _this$ = ecx

; 71   : 	int GetTileMax(){ return m_nTileMax; }

  00000	8b 41 48	 mov	 eax, DWORD PTR [ecx+72]
  00003	c3		 ret	 0
?GetTileMax@ioBlockManager@@QAEHXZ ENDP			; ioBlockManager::GetTileMax
_TEXT	ENDS
PUBLIC	?GetTilePos@ioBlock@@QBEABVTilePos@@XZ		; ioBlock::GetTilePos
; Function compile flags: /Ogsp
; File d:\lost saga for developer\youtube\tutorial\source\src\lsclient\housing\ioblock.h
;	COMDAT ?GetTilePos@ioBlock@@QBEABVTilePos@@XZ
_TEXT	SEGMENT
?GetTilePos@ioBlock@@QBEABVTilePos@@XZ PROC		; ioBlock::GetTilePos, COMDAT
; _this$ = ecx

; 158  : 	const TilePos& GetTilePos() const { return m_Pos; }

  00000	8d 81 d4 01 00
	00		 lea	 eax, DWORD PTR [ecx+468]
  00006	c3		 ret	 0
?GetTilePos@ioBlock@@QBEABVTilePos@@XZ ENDP		; ioBlock::GetTilePos
_TEXT	ENDS
PUBLIC	?GetBlockWorld@ioPlayStage@@QBEPAVioBlockWorld@@XZ ; ioPlayStage::GetBlockWorld
; Function compile flags: /Ogsp
; File d:\lost saga for developer\youtube\tutorial\source\src\lsclient\ioplaystage.h
;	COMDAT ?GetBlockWorld@ioPlayStage@@QBEPAVioBlockWorld@@XZ
_TEXT	SEGMENT
?GetBlockWorld@ioPlayStage@@QBEPAVioBlockWorld@@XZ PROC	; ioPlayStage::GetBlockWorld, COMDAT
; _this$ = ecx

; 781  : 	inline ioBlockWorld* GetBlockWorld() const { return m_pBlockWorld; }

  00000	8b 81 14 01 00
	00		 mov	 eax, DWORD PTR [ecx+276]
  00006	c3		 ret	 0
?GetBlockWorld@ioPlayStage@@QBEPAVioBlockWorld@@XZ ENDP	; ioPlayStage::GetBlockWorld
_TEXT	ENDS
PUBLIC	?IsCatchMode@ioBaseChar@@QBE_NXZ		; ioBaseChar::IsCatchMode
; Function compile flags: /Ogsp
; File d:\lost saga for developer\youtube\tutorial\source\src\lsclient\iobasechar.h
;	COMDAT ?IsCatchMode@ioBaseChar@@QBE_NXZ
_TEXT	SEGMENT
?IsCatchMode@ioBaseChar@@QBE_NXZ PROC			; ioBaseChar::IsCatchMode, COMDAT
; _this$ = ecx

; 2131 : 	inline bool IsCatchMode() const { return m_bCatchState; }

  00000	8a 81 78 23 00
	00		 mov	 al, BYTE PTR [ecx+9080]
  00006	c3		 ret	 0
?IsCatchMode@ioBaseChar@@QBE_NXZ ENDP			; ioBaseChar::IsCatchMode
_TEXT	ENDS
PUBLIC	?GetState@ioBaseChar@@QBE?AW4CharState@@XZ	; ioBaseChar::GetState
; Function compile flags: /Ogsp
;	COMDAT ?GetState@ioBaseChar@@QBE?AW4CharState@@XZ
_TEXT	SEGMENT
?GetState@ioBaseChar@@QBE?AW4CharState@@XZ PROC		; ioBaseChar::GetState, COMDAT
; _this$ = ecx

; 2156 : 	inline CharState GetState() const { return m_CharState; }	

  00000	8a 81 10 03 00
	00		 mov	 al, BYTE PTR [ecx+784]
  00006	c3		 ret	 0
?GetState@ioBaseChar@@QBE?AW4CharState@@XZ ENDP		; ioBaseChar::GetState
_TEXT	ENDS
PUBLIC	?GetSpecialState@ioBaseChar@@QAEPAVioSpecialStateBase@@XZ ; ioBaseChar::GetSpecialState
; Function compile flags: /Ogsp
;	COMDAT ?GetSpecialState@ioBaseChar@@QAEPAVioSpecialStateBase@@XZ
_TEXT	SEGMENT
?GetSpecialState@ioBaseChar@@QAEPAVioSpecialStateBase@@XZ PROC ; ioBaseChar::GetSpecialState, COMDAT
; _this$ = ecx

; 2163 : 	inline ioSpecialStateBase* GetSpecialState(){ return m_pCharSpeicalState; }

  00000	8b 81 14 03 00
	00		 mov	 eax, DWORD PTR [ecx+788]
  00006	c3		 ret	 0
?GetSpecialState@ioBaseChar@@QAEPAVioSpecialStateBase@@XZ ENDP ; ioBaseChar::GetSpecialState
_TEXT	ENDS
PUBLIC	?GetCreator@ioBaseChar@@QAEPAVioPlayStage@@XZ	; ioBaseChar::GetCreator
; Function compile flags: /Ogsp
;	COMDAT ?GetCreator@ioBaseChar@@QAEPAVioPlayStage@@XZ
_TEXT	SEGMENT
?GetCreator@ioBaseChar@@QAEPAVioPlayStage@@XZ PROC	; ioBaseChar::GetCreator, COMDAT
; _this$ = ecx

; 4013 : 	inline ioPlayStage* GetCreator() { return m_pCreator; }

  00000	8b 81 44 03 00
	00		 mov	 eax, DWORD PTR [ecx+836]
  00006	c3		 ret	 0
?GetCreator@ioBaseChar@@QAEPAVioPlayStage@@XZ ENDP	; ioBaseChar::GetCreator
_TEXT	ENDS
PUBLIC	??_R0?AVioSpecialStateBase@@@8			; ioSpecialStateBase `RTTI Type Descriptor'
PUBLIC	??_R0?AVioConstructHouseSpecialState@@@8	; ioConstructHouseSpecialState `RTTI Type Descriptor'
PUBLIC	?ToConstructHouseSpecialState@@YAPAVioConstructHouseSpecialState@@PAVioSpecialStateBase@@@Z ; ToConstructHouseSpecialState
EXTRN	___RTDynamicCast:PROC
EXTRN	??_7type_info@@6B@:QWORD			; type_info::`vftable'
;	COMDAT ??_R0?AVioSpecialStateBase@@@8
; File d:\lost saga for developer\youtube\tutorial\source\src\lsclient\stateclass\ioconstructhousespecialstate.h
_DATA	SEGMENT
??_R0?AVioSpecialStateBase@@@8 DD FLAT:??_7type_info@@6B@ ; ioSpecialStateBase `RTTI Type Descriptor'
	DD	00H
	DB	'.?AVioSpecialStateBase@@', 00H
_DATA	ENDS
;	COMDAT ??_R0?AVioConstructHouseSpecialState@@@8
_DATA	SEGMENT
??_R0?AVioConstructHouseSpecialState@@@8 DD FLAT:??_7type_info@@6B@ ; ioConstructHouseSpecialState `RTTI Type Descriptor'
	DD	00H
	DB	'.?AVioConstructHouseSpecialState@@', 00H
; Function compile flags: /Ogsp
_DATA	ENDS
;	COMDAT ?ToConstructHouseSpecialState@@YAPAVioConstructHouseSpecialState@@PAVioSpecialStateBase@@@Z
_TEXT	SEGMENT
_pState$ = 8						; size = 4
?ToConstructHouseSpecialState@@YAPAVioConstructHouseSpecialState@@PAVioSpecialStateBase@@@Z PROC ; ToConstructHouseSpecialState, COMDAT

; 150  : {

  00000	55		 push	 ebp
  00001	8b ec		 mov	 ebp, esp
  00003	56		 push	 esi

; 151  : 	if( !pState || pState->GetState() != CS_CONSTRUCT_HOUSE )

  00004	8b 75 08	 mov	 esi, DWORD PTR _pState$[ebp]
  00007	85 f6		 test	 esi, esi
  00009	74 24		 je	 SHORT $LN1@ToConstruc
  0000b	8b 06		 mov	 eax, DWORD PTR [esi]
  0000d	8b ce		 mov	 ecx, esi
  0000f	ff 50 10	 call	 DWORD PTR [eax+16]
  00012	3c 9b		 cmp	 al, 155			; 0000009bH
  00014	75 19		 jne	 SHORT $LN1@ToConstruc

; 153  : 
; 154  : 	return dynamic_cast< ioConstructHouseSpecialState* >( pState );

  00016	6a 00		 push	 0
  00018	68 00 00 00 00	 push	 OFFSET ??_R0?AVioConstructHouseSpecialState@@@8
  0001d	68 00 00 00 00	 push	 OFFSET ??_R0?AVioSpecialStateBase@@@8
  00022	6a 00		 push	 0
  00024	56		 push	 esi
  00025	e8 00 00 00 00	 call	 ___RTDynamicCast
  0002a	83 c4 14	 add	 esp, 20			; 00000014H
  0002d	eb 02		 jmp	 SHORT $LN3@ToConstruc
$LN1@ToConstruc:

; 152  : 		return NULL;

  0002f	33 c0		 xor	 eax, eax
$LN3@ToConstruc:
  00031	5e		 pop	 esi

; 155  : }

  00032	5d		 pop	 ebp
  00033	c3		 ret	 0
?ToConstructHouseSpecialState@@YAPAVioConstructHouseSpecialState@@PAVioSpecialStateBase@@@Z ENDP ; ToConstructHouseSpecialState
_TEXT	ENDS
PUBLIC	??1ioINILoader_e@@QAE@XZ			; ioINILoader_e::~ioINILoader_e
EXTRN	__imp_??1ioINILoader@@QAE@XZ:PROC
; Function compile flags: /Ogsp
;	COMDAT ??1ioINILoader_e@@QAE@XZ
_TEXT	SEGMENT
??1ioINILoader_e@@QAE@XZ PROC				; ioINILoader_e::~ioINILoader_e, COMDAT
; _this$ = ecx
  00000	ff 25 00 00 00
	00		 jmp	 DWORD PTR __imp_??1ioINILoader@@QAE@XZ
??1ioINILoader_e@@QAE@XZ ENDP				; ioINILoader_e::~ioINILoader_e
_TEXT	ENDS
PUBLIC	?GetAdminState@ioBlockSetupManager@@QAEPAVioConstructHouseSpecialState@@XZ ; ioBlockSetupManager::GetAdminState
EXTRN	?GetBaseChar@ioPlayStage@@QAEPAVioBaseChar@@ABVioHashString@@@Z:PROC ; ioPlayStage::GetBaseChar
; Function compile flags: /Ogsp
; File d:\lost saga for developer\youtube\tutorial\source\src\lsclient\housing\ioblocksetupmanager.cpp
;	COMDAT ?GetAdminState@ioBlockSetupManager@@QAEPAVioConstructHouseSpecialState@@XZ
_TEXT	SEGMENT
?GetAdminState@ioBlockSetupManager@@QAEPAVioConstructHouseSpecialState@@XZ PROC ; ioBlockSetupManager::GetAdminState, COMDAT
; _this$ = ecx

; 59   : 	ioBaseChar* pOwner = m_pStage->GetBaseChar( m_SetUpAdminUser );

  00000	8d 41 20	 lea	 eax, DWORD PTR [ecx+32]
  00003	8b 49 04	 mov	 ecx, DWORD PTR [ecx+4]
  00006	50		 push	 eax
  00007	e8 00 00 00 00	 call	 ?GetBaseChar@ioPlayStage@@QAEPAVioBaseChar@@ABVioHashString@@@Z ; ioPlayStage::GetBaseChar

; 60   : 	if( pOwner )

  0000c	85 c0		 test	 eax, eax
  0000e	74 21		 je	 SHORT $LN1@GetAdminSt

; 61   : 	{
; 62   : 		ioConstructHouseSpecialState* pState = dynamic_cast<ioConstructHouseSpecialState*>( pOwner->GetSpecialState() );

  00010	8b 80 14 03 00
	00		 mov	 eax, DWORD PTR [eax+788]
  00016	6a 00		 push	 0
  00018	68 00 00 00 00	 push	 OFFSET ??_R0?AVioConstructHouseSpecialState@@@8
  0001d	68 00 00 00 00	 push	 OFFSET ??_R0?AVioSpecialStateBase@@@8
  00022	6a 00		 push	 0
  00024	50		 push	 eax
  00025	e8 00 00 00 00	 call	 ___RTDynamicCast
  0002a	83 c4 14	 add	 esp, 20			; 00000014H

; 63   : 		if( pState )

  0002d	85 c0		 test	 eax, eax

; 64   : 		{
; 65   : 			return pState;

  0002f	75 02		 jne	 SHORT $LN3@GetAdminSt
$LN1@GetAdminSt:

; 66   : 		}
; 67   : 	}
; 68   : 
; 69   : 	return NULL;

  00031	33 c0		 xor	 eax, eax
$LN3@GetAdminSt:

; 70   : }

  00033	c3		 ret	 0
?GetAdminState@ioBlockSetupManager@@QAEPAVioConstructHouseSpecialState@@XZ ENDP ; ioBlockSetupManager::GetAdminState
_TEXT	ENDS
PUBLIC	__$ArrayPad$
PUBLIC	?EndSetUpState@ioBlockSetupManager@@QAEXXZ	; ioBlockSetupManager::EndSetUpState
EXTRN	??1SP2Packet@@UAE@XZ:PROC			; SP2Packet::~SP2Packet
EXTRN	?SendToServer@TCPNetwork@@YAXAAVSP2Packet@@@Z:PROC ; TCPNetwork::SendToServer
EXTRN	??6SP2Packet@@QAEAAV0@E@Z:PROC			; SP2Packet::operator<<
EXTRN	??0SP2Packet@@QAE@K@Z:PROC			; SP2Packet::SP2Packet
EXTRN	?MouseBusy@TCPNetwork@@YAX_N@Z:PROC		; TCPNetwork::MouseBusy
EXTRN	?ClearCameraModeFixed@ioPlayStage@@QAEXK@Z:PROC	; ioPlayStage::ClearCameraModeFixed
EXTRN	?HasCameraFixedStyle@ioPlayStage@@QAE_NK@Z:PROC	; ioPlayStage::HasCameraFixedStyle
EXTRN	___security_cookie:DWORD
EXTRN	___CxxFrameHandler3:PROC
EXTRN	@__security_check_cookie@4:PROC
EXTRN	__chkstk:PROC
;	COMDAT xdata$x
; File d:\lost saga for developer\youtube\tutorial\source\src\lsclient\iobasechar.h
xdata$x	SEGMENT
__unwindtable$?EndSetUpState@ioBlockSetupManager@@QAEXXZ DD 0ffffffffH
	DD	FLAT:__unwindfunclet$?EndSetUpState@ioBlockSetupManager@@QAEXXZ$0
__ehfuncinfo$?EndSetUpState@ioBlockSetupManager@@QAEXXZ DD 019930522H
	DD	01H
	DD	FLAT:__unwindtable$?EndSetUpState@ioBlockSetupManager@@QAEXXZ
	DD	2 DUP(00H)
	DD	2 DUP(00H)
	DD	00H
	DD	01H
; Function compile flags: /Ogsp
; File d:\lost saga for developer\youtube\tutorial\source\src\lsclient\housing\ioblocksetupmanager.cpp
xdata$x	ENDS
;	COMDAT ?EndSetUpState@ioBlockSetupManager@@QAEXXZ
_TEXT	SEGMENT
_kPacket$536795 = -32808				; size = 32792
__$ArrayPad$ = -16					; size = 4
__$EHRec$ = -12						; size = 12
?EndSetUpState@ioBlockSetupManager@@QAEXXZ PROC		; ioBlockSetupManager::EndSetUpState, COMDAT
; _this$ = ecx

; 187  : {

  00000	55		 push	 ebp
  00001	8b ec		 mov	 ebp, esp
  00003	6a ff		 push	 -1
  00005	68 00 00 00 00	 push	 __ehhandler$?EndSetUpState@ioBlockSetupManager@@QAEXXZ
  0000a	64 a1 00 00 00
	00		 mov	 eax, DWORD PTR fs:0
  00010	50		 push	 eax
  00011	b8 1c 80 00 00	 mov	 eax, 32796		; 0000801cH
  00016	e8 00 00 00 00	 call	 __chkstk
  0001b	a1 00 00 00 00	 mov	 eax, DWORD PTR ___security_cookie
  00020	33 c5		 xor	 eax, ebp
  00022	89 45 f0	 mov	 DWORD PTR __$ArrayPad$[ebp], eax
  00025	56		 push	 esi
  00026	57		 push	 edi
  00027	50		 push	 eax
  00028	8d 45 f4	 lea	 eax, DWORD PTR __$EHRec$[ebp]
  0002b	64 a3 00 00 00
	00		 mov	 DWORD PTR fs:0, eax
  00031	8b f1		 mov	 esi, ecx

; 188  : 	if( m_pStage->HasCameraFixedStyle( CAMERA_STYLE_HOUSING ) )

  00033	8b 4e 04	 mov	 ecx, DWORD PTR [esi+4]
  00036	6a 04		 push	 4
  00038	e8 00 00 00 00	 call	 ?HasCameraFixedStyle@ioPlayStage@@QAE_NK@Z ; ioPlayStage::HasCameraFixedStyle
  0003d	84 c0		 test	 al, al
  0003f	74 0a		 je	 SHORT $LN2@EndSetUpSt

; 189  : 		m_pStage->ClearCameraModeFixed( CAMERA_STYLE_HOUSING );

  00041	8b 4e 04	 mov	 ecx, DWORD PTR [esi+4]
  00044	6a 04		 push	 4
  00046	e8 00 00 00 00	 call	 ?ClearCameraModeFixed@ioPlayStage@@QAEXK@Z ; ioPlayStage::ClearCameraModeFixed
$LN2@EndSetUpSt:

; 190  : 
; 191  : 	ioBaseChar* pOwner = m_pStage->GetBaseChar( m_SetUpAdminUser );

  0004b	8b 4e 04	 mov	 ecx, DWORD PTR [esi+4]
  0004e	8d 46 20	 lea	 eax, DWORD PTR [esi+32]
  00051	50		 push	 eax
  00052	e8 00 00 00 00	 call	 ?GetBaseChar@ioPlayStage@@QAEPAVioBaseChar@@ABVioHashString@@@Z ; ioPlayStage::GetBaseChar
  00057	8b f8		 mov	 edi, eax

; 192  : 	if( pOwner && pOwner->IsNeedProcess() && pOwner->GetState() == CS_CONSTRUCT_HOUSE )

  00059	85 ff		 test	 edi, edi
  0005b	74 6d		 je	 SHORT $LN1@EndSetUpSt
  0005d	8b 07		 mov	 eax, DWORD PTR [edi]
  0005f	8b cf		 mov	 ecx, edi
  00061	ff 90 00 01 00
	00		 call	 DWORD PTR [eax+256]
  00067	84 c0		 test	 al, al
  00069	74 5f		 je	 SHORT $LN1@EndSetUpSt
  0006b	80 bf 10 03 00
	00 9b		 cmp	 BYTE PTR [edi+784], 155	; 0000009bH
  00072	75 56		 jne	 SHORT $LN1@EndSetUpSt

; 193  : 	{
; 194  : 		TCPNetwork::MouseBusy( true );

  00074	6a 01		 push	 1
  00076	e8 00 00 00 00	 call	 ?MouseBusy@TCPNetwork@@YAX_N@Z ; TCPNetwork::MouseBusy

; 195  : 		SP2Packet kPacket( CTPK_CONSTRUCT_MODE );

  0007b	8d 8d d8 7f ff
	ff		 lea	 ecx, DWORD PTR _kPacket$536795[ebp]
  00081	c7 04 24 52 03
	00 00		 mov	 DWORD PTR [esp], 850	; 00000352H
  00088	e8 00 00 00 00	 call	 ??0SP2Packet@@QAE@K@Z	; SP2Packet::SP2Packet

; 196  : 		kPacket << (byte)m_BlockModeType;

  0008d	0f b6 46 08	 movzx	 eax, BYTE PTR [esi+8]
  00091	83 65 fc 00	 and	 DWORD PTR __$EHRec$[ebp+8], 0
  00095	50		 push	 eax
  00096	8d 8d d8 7f ff
	ff		 lea	 ecx, DWORD PTR _kPacket$536795[ebp]
  0009c	e8 00 00 00 00	 call	 ??6SP2Packet@@QAEAAV0@E@Z ; SP2Packet::operator<<

; 197  : 		kPacket << (byte)CONSTRUCT_OFF;

  000a1	6a 02		 push	 2
  000a3	8d 8d d8 7f ff
	ff		 lea	 ecx, DWORD PTR _kPacket$536795[ebp]
  000a9	e8 00 00 00 00	 call	 ??6SP2Packet@@QAEAAV0@E@Z ; SP2Packet::operator<<

; 198  : 		TCPNetwork::SendToServer( kPacket );

  000ae	8d 85 d8 7f ff
	ff		 lea	 eax, DWORD PTR _kPacket$536795[ebp]
  000b4	50		 push	 eax
  000b5	e8 00 00 00 00	 call	 ?SendToServer@TCPNetwork@@YAXAAVSP2Packet@@@Z ; TCPNetwork::SendToServer

; 199  : 	}

  000ba	83 4d fc ff	 or	 DWORD PTR __$EHRec$[ebp+8], -1
  000be	59		 pop	 ecx
  000bf	8d 8d d8 7f ff
	ff		 lea	 ecx, DWORD PTR _kPacket$536795[ebp]
  000c5	e8 00 00 00 00	 call	 ??1SP2Packet@@UAE@XZ	; SP2Packet::~SP2Packet
$LN1@EndSetUpSt:

; 200  : }

  000ca	8b 4d f4	 mov	 ecx, DWORD PTR __$EHRec$[ebp]
  000cd	64 89 0d 00 00
	00 00		 mov	 DWORD PTR fs:0, ecx
  000d4	59		 pop	 ecx
  000d5	5f		 pop	 edi
  000d6	5e		 pop	 esi
  000d7	8b 4d f0	 mov	 ecx, DWORD PTR __$ArrayPad$[ebp]
  000da	33 cd		 xor	 ecx, ebp
  000dc	e8 00 00 00 00	 call	 @__security_check_cookie@4
  000e1	c9		 leave
  000e2	c3		 ret	 0
_TEXT	ENDS
;	COMDAT text$x
text$x	SEGMENT
__unwindfunclet$?EndSetUpState@ioBlockSetupManager@@QAEXXZ$0:
  00000	8d 8d d8 7f ff
	ff		 lea	 ecx, DWORD PTR _kPacket$536795[ebp]
  00006	e9 00 00 00 00	 jmp	 ??1SP2Packet@@UAE@XZ	; SP2Packet::~SP2Packet
__ehhandler$?EndSetUpState@ioBlockSetupManager@@QAEXXZ:
  0000b	8b 54 24 08	 mov	 edx, DWORD PTR [esp+8]
  0000f	8d 42 0c	 lea	 eax, DWORD PTR [edx+12]
  00012	8b 8a d8 7f ff
	ff		 mov	 ecx, DWORD PTR [edx-32808]
  00018	33 c8		 xor	 ecx, eax
  0001a	e8 00 00 00 00	 call	 @__security_check_cookie@4
  0001f	8b 4a fc	 mov	 ecx, DWORD PTR [edx-4]
  00022	33 c8		 xor	 ecx, eax
  00024	e8 00 00 00 00	 call	 @__security_check_cookie@4
  00029	b8 00 00 00 00	 mov	 eax, OFFSET __ehfuncinfo$?EndSetUpState@ioBlockSetupManager@@QAEXXZ
  0002e	e9 00 00 00 00	 jmp	 ___CxxFrameHandler3
text$x	ENDS
?EndSetUpState@ioBlockSetupManager@@QAEXXZ ENDP		; ioBlockSetupManager::EndSetUpState
PUBLIC	__$ArrayPad$
PUBLIC	?SendSetUpBlock@ioBlockSetupManager@@QAEXHHHHE@Z ; ioBlockSetupManager::SendSetUpBlock
EXTRN	?GetSingleton@ioBlockManager@@SAAAV1@XZ:PROC	; ioBlockManager::GetSingleton
EXTRN	??6SP2Packet@@QAEAAV0@H@Z:PROC			; SP2Packet::operator<<
;	COMDAT xdata$x
; File d:\lost saga for developer\youtube\tutorial\source\src\lsclient\housing\ioblockmanager.h
xdata$x	SEGMENT
__unwindtable$?SendSetUpBlock@ioBlockSetupManager@@QAEXHHHHE@Z DD 0ffffffffH
	DD	FLAT:__unwindfunclet$?SendSetUpBlock@ioBlockSetupManager@@QAEXHHHHE@Z$0
__ehfuncinfo$?SendSetUpBlock@ioBlockSetupManager@@QAEXHHHHE@Z DD 019930522H
	DD	01H
	DD	FLAT:__unwindtable$?SendSetUpBlock@ioBlockSetupManager@@QAEXHHHHE@Z
	DD	2 DUP(00H)
	DD	2 DUP(00H)
	DD	00H
	DD	01H
; Function compile flags: /Ogsp
; File d:\lost saga for developer\youtube\tutorial\source\src\lsclient\housing\ioblocksetupmanager.cpp
xdata$x	ENDS
;	COMDAT ?SendSetUpBlock@ioBlockSetupManager@@QAEXHHHHE@Z
_TEXT	SEGMENT
_kPacket$ = -32808					; size = 32792
__$ArrayPad$ = -16					; size = 4
__$EHRec$ = -12						; size = 12
_nItemCode$ = 8						; size = 4
_x$ = 12						; size = 4
_y$ = 16						; size = 4
_z$ = 20						; size = 4
_rotate$ = 24						; size = 1
?SendSetUpBlock@ioBlockSetupManager@@QAEXHHHHE@Z PROC	; ioBlockSetupManager::SendSetUpBlock, COMDAT
; _this$ = ecx

; 230  : {

  00000	55		 push	 ebp
  00001	8b ec		 mov	 ebp, esp
  00003	6a ff		 push	 -1
  00005	68 00 00 00 00	 push	 __ehhandler$?SendSetUpBlock@ioBlockSetupManager@@QAEXHHHHE@Z
  0000a	64 a1 00 00 00
	00		 mov	 eax, DWORD PTR fs:0
  00010	50		 push	 eax
  00011	b8 1c 80 00 00	 mov	 eax, 32796		; 0000801cH
  00016	e8 00 00 00 00	 call	 __chkstk
  0001b	a1 00 00 00 00	 mov	 eax, DWORD PTR ___security_cookie
  00020	33 c5		 xor	 eax, ebp
  00022	89 45 f0	 mov	 DWORD PTR __$ArrayPad$[ebp], eax
  00025	56		 push	 esi
  00026	50		 push	 eax
  00027	8d 45 f4	 lea	 eax, DWORD PTR __$EHRec$[ebp]
  0002a	64 a3 00 00 00
	00		 mov	 DWORD PTR fs:0, eax

; 231  : 	TCPNetwork::MouseBusy( true );

  00030	6a 01		 push	 1
  00032	8b f1		 mov	 esi, ecx
  00034	e8 00 00 00 00	 call	 ?MouseBusy@TCPNetwork@@YAX_N@Z ; TCPNetwork::MouseBusy

; 232  : 	SP2Packet kPacket( CTPK_CONSTRUCT_BLOCK );

  00039	8d 8d d8 7f ff
	ff		 lea	 ecx, DWORD PTR _kPacket$[ebp]
  0003f	c7 04 24 53 03
	00 00		 mov	 DWORD PTR [esp], 851	; 00000353H
  00046	e8 00 00 00 00	 call	 ??0SP2Packet@@QAE@K@Z	; SP2Packet::SP2Packet

; 233  : 	kPacket << (byte)m_BlockModeType;

  0004b	0f b6 46 08	 movzx	 eax, BYTE PTR [esi+8]
  0004f	83 65 fc 00	 and	 DWORD PTR __$EHRec$[ebp+8], 0
  00053	50		 push	 eax
  00054	8d 8d d8 7f ff
	ff		 lea	 ecx, DWORD PTR _kPacket$[ebp]
  0005a	e8 00 00 00 00	 call	 ??6SP2Packet@@QAEAAV0@E@Z ; SP2Packet::operator<<

; 234  : 	kPacket << nItemCode;

  0005f	ff 75 08	 push	 DWORD PTR _nItemCode$[ebp]
  00062	8d 8d d8 7f ff
	ff		 lea	 ecx, DWORD PTR _kPacket$[ebp]
  00068	e8 00 00 00 00	 call	 ??6SP2Packet@@QAEAAV0@H@Z ; SP2Packet::operator<<

; 235  : 	kPacket << x + (z * g_BlockManager.GetTileMax() );

  0006d	e8 00 00 00 00	 call	 ?GetSingleton@ioBlockManager@@SAAAV1@XZ ; ioBlockManager::GetSingleton
  00072	8b 40 48	 mov	 eax, DWORD PTR [eax+72]
  00075	0f af 45 14	 imul	 eax, DWORD PTR _z$[ebp]
  00079	03 45 0c	 add	 eax, DWORD PTR _x$[ebp]
  0007c	8d 8d d8 7f ff
	ff		 lea	 ecx, DWORD PTR _kPacket$[ebp]
  00082	50		 push	 eax
  00083	e8 00 00 00 00	 call	 ??6SP2Packet@@QAEAAV0@H@Z ; SP2Packet::operator<<

; 236  : 	kPacket << y;

  00088	ff 75 10	 push	 DWORD PTR _y$[ebp]
  0008b	8d 8d d8 7f ff
	ff		 lea	 ecx, DWORD PTR _kPacket$[ebp]
  00091	e8 00 00 00 00	 call	 ??6SP2Packet@@QAEAAV0@H@Z ; SP2Packet::operator<<

; 237  : 	kPacket << rotate;

  00096	ff 75 18	 push	 DWORD PTR _rotate$[ebp]
  00099	8d 8d d8 7f ff
	ff		 lea	 ecx, DWORD PTR _kPacket$[ebp]
  0009f	e8 00 00 00 00	 call	 ??6SP2Packet@@QAEAAV0@E@Z ; SP2Packet::operator<<

; 238  : 	TCPNetwork::SendToServer( kPacket );

  000a4	8d 85 d8 7f ff
	ff		 lea	 eax, DWORD PTR _kPacket$[ebp]
  000aa	50		 push	 eax
  000ab	e8 00 00 00 00	 call	 ?SendToServer@TCPNetwork@@YAXAAVSP2Packet@@@Z ; TCPNetwork::SendToServer

; 239  : }

  000b0	83 4d fc ff	 or	 DWORD PTR __$EHRec$[ebp+8], -1
  000b4	59		 pop	 ecx
  000b5	8d 8d d8 7f ff
	ff		 lea	 ecx, DWORD PTR _kPacket$[ebp]
  000bb	e8 00 00 00 00	 call	 ??1SP2Packet@@UAE@XZ	; SP2Packet::~SP2Packet
  000c0	8b 4d f4	 mov	 ecx, DWORD PTR __$EHRec$[ebp]
  000c3	64 89 0d 00 00
	00 00		 mov	 DWORD PTR fs:0, ecx
  000ca	59		 pop	 ecx
  000cb	5e		 pop	 esi
  000cc	8b 4d f0	 mov	 ecx, DWORD PTR __$ArrayPad$[ebp]
  000cf	33 cd		 xor	 ecx, ebp
  000d1	e8 00 00 00 00	 call	 @__security_check_cookie@4
  000d6	c9		 leave
  000d7	c2 14 00	 ret	 20			; 00000014H
_TEXT	ENDS
;	COMDAT text$x
text$x	SEGMENT
__unwindfunclet$?SendSetUpBlock@ioBlockSetupManager@@QAEXHHHHE@Z$0:
  00000	8d 8d d8 7f ff
	ff		 lea	 ecx, DWORD PTR _kPacket$[ebp]
  00006	e9 00 00 00 00	 jmp	 ??1SP2Packet@@UAE@XZ	; SP2Packet::~SP2Packet
__ehhandler$?SendSetUpBlock@ioBlockSetupManager@@QAEXHHHHE@Z:
  0000b	8b 54 24 08	 mov	 edx, DWORD PTR [esp+8]
  0000f	8d 42 0c	 lea	 eax, DWORD PTR [edx+12]
  00012	8b 8a dc 7f ff
	ff		 mov	 ecx, DWORD PTR [edx-32804]
  00018	33 c8		 xor	 ecx, eax
  0001a	e8 00 00 00 00	 call	 @__security_check_cookie@4
  0001f	8b 4a fc	 mov	 ecx, DWORD PTR [edx-4]
  00022	33 c8		 xor	 ecx, eax
  00024	e8 00 00 00 00	 call	 @__security_check_cookie@4
  00029	b8 00 00 00 00	 mov	 eax, OFFSET __ehfuncinfo$?SendSetUpBlock@ioBlockSetupManager@@QAEXHHHHE@Z
  0002e	e9 00 00 00 00	 jmp	 ___CxxFrameHandler3
text$x	ENDS
?SendSetUpBlock@ioBlockSetupManager@@QAEXHHHHE@Z ENDP	; ioBlockSetupManager::SendSetUpBlock
PUBLIC	__$ArrayPad$
PUBLIC	?SendRemoveBlock@ioBlockSetupManager@@QAEX_J@Z	; ioBlockSetupManager::SendRemoveBlock
EXTRN	??6SP2Packet@@QAEAAV0@_J@Z:PROC			; SP2Packet::operator<<
;	COMDAT xdata$x
xdata$x	SEGMENT
__unwindtable$?SendRemoveBlock@ioBlockSetupManager@@QAEX_J@Z DD 0ffffffffH
	DD	FLAT:__unwindfunclet$?SendRemoveBlock@ioBlockSetupManager@@QAEX_J@Z$0
__ehfuncinfo$?SendRemoveBlock@ioBlockSetupManager@@QAEX_J@Z DD 019930522H
	DD	01H
	DD	FLAT:__unwindtable$?SendRemoveBlock@ioBlockSetupManager@@QAEX_J@Z
	DD	2 DUP(00H)
	DD	2 DUP(00H)
	DD	00H
	DD	01H
; Function compile flags: /Ogsp
xdata$x	ENDS
;	COMDAT ?SendRemoveBlock@ioBlockSetupManager@@QAEX_J@Z
_TEXT	SEGMENT
_kPacket$ = -32808					; size = 32792
__$ArrayPad$ = -16					; size = 4
__$EHRec$ = -12						; size = 12
_nUniqueIndex$ = 8					; size = 8
?SendRemoveBlock@ioBlockSetupManager@@QAEX_J@Z PROC	; ioBlockSetupManager::SendRemoveBlock, COMDAT
; _this$ = ecx

; 242  : {

  00000	55		 push	 ebp
  00001	8b ec		 mov	 ebp, esp
  00003	6a ff		 push	 -1
  00005	68 00 00 00 00	 push	 __ehhandler$?SendRemoveBlock@ioBlockSetupManager@@QAEX_J@Z
  0000a	64 a1 00 00 00
	00		 mov	 eax, DWORD PTR fs:0
  00010	50		 push	 eax
  00011	b8 1c 80 00 00	 mov	 eax, 32796		; 0000801cH
  00016	e8 00 00 00 00	 call	 __chkstk
  0001b	a1 00 00 00 00	 mov	 eax, DWORD PTR ___security_cookie
  00020	33 c5		 xor	 eax, ebp
  00022	89 45 f0	 mov	 DWORD PTR __$ArrayPad$[ebp], eax
  00025	56		 push	 esi
  00026	50		 push	 eax
  00027	8d 45 f4	 lea	 eax, DWORD PTR __$EHRec$[ebp]
  0002a	64 a3 00 00 00
	00		 mov	 DWORD PTR fs:0, eax

; 243  : 	__int64 nUniqIndex64 = nUniqueIndex;
; 244  : 	TCPNetwork::MouseBusy( true );

  00030	6a 01		 push	 1
  00032	8b f1		 mov	 esi, ecx
  00034	e8 00 00 00 00	 call	 ?MouseBusy@TCPNetwork@@YAX_N@Z ; TCPNetwork::MouseBusy

; 245  : 	SP2Packet kPacket( CTPK_RETRIEVE_BLOCK );

  00039	8d 8d d8 7f ff
	ff		 lea	 ecx, DWORD PTR _kPacket$[ebp]
  0003f	c7 04 24 54 03
	00 00		 mov	 DWORD PTR [esp], 852	; 00000354H
  00046	e8 00 00 00 00	 call	 ??0SP2Packet@@QAE@K@Z	; SP2Packet::SP2Packet

; 246  : 	kPacket << (byte)m_BlockModeType;

  0004b	0f b6 46 08	 movzx	 eax, BYTE PTR [esi+8]
  0004f	83 65 fc 00	 and	 DWORD PTR __$EHRec$[ebp+8], 0
  00053	50		 push	 eax
  00054	8d 8d d8 7f ff
	ff		 lea	 ecx, DWORD PTR _kPacket$[ebp]
  0005a	e8 00 00 00 00	 call	 ??6SP2Packet@@QAEAAV0@E@Z ; SP2Packet::operator<<

; 247  : 	kPacket << nUniqIndex64;

  0005f	ff 75 0c	 push	 DWORD PTR _nUniqueIndex$[ebp+4]
  00062	8d 8d d8 7f ff
	ff		 lea	 ecx, DWORD PTR _kPacket$[ebp]
  00068	ff 75 08	 push	 DWORD PTR _nUniqueIndex$[ebp]
  0006b	e8 00 00 00 00	 call	 ??6SP2Packet@@QAEAAV0@_J@Z ; SP2Packet::operator<<

; 248  : 	TCPNetwork::SendToServer( kPacket );

  00070	8d 85 d8 7f ff
	ff		 lea	 eax, DWORD PTR _kPacket$[ebp]
  00076	50		 push	 eax
  00077	e8 00 00 00 00	 call	 ?SendToServer@TCPNetwork@@YAXAAVSP2Packet@@@Z ; TCPNetwork::SendToServer

; 249  : }

  0007c	83 4d fc ff	 or	 DWORD PTR __$EHRec$[ebp+8], -1
  00080	59		 pop	 ecx
  00081	8d 8d d8 7f ff
	ff		 lea	 ecx, DWORD PTR _kPacket$[ebp]
  00087	e8 00 00 00 00	 call	 ??1SP2Packet@@UAE@XZ	; SP2Packet::~SP2Packet
  0008c	8b 4d f4	 mov	 ecx, DWORD PTR __$EHRec$[ebp]
  0008f	64 89 0d 00 00
	00 00		 mov	 DWORD PTR fs:0, ecx
  00096	59		 pop	 ecx
  00097	5e		 pop	 esi
  00098	8b 4d f0	 mov	 ecx, DWORD PTR __$ArrayPad$[ebp]
  0009b	33 cd		 xor	 ecx, ebp
  0009d	e8 00 00 00 00	 call	 @__security_check_cookie@4
  000a2	c9		 leave
  000a3	c2 08 00	 ret	 8
_TEXT	ENDS
;	COMDAT text$x
text$x	SEGMENT
__unwindfunclet$?SendRemoveBlock@ioBlockSetupManager@@QAEX_J@Z$0:
  00000	8d 8d d8 7f ff
	ff		 lea	 ecx, DWORD PTR _kPacket$[ebp]
  00006	e9 00 00 00 00	 jmp	 ??1SP2Packet@@UAE@XZ	; SP2Packet::~SP2Packet
__ehhandler$?SendRemoveBlock@ioBlockSetupManager@@QAEX_J@Z:
  0000b	8b 54 24 08	 mov	 edx, DWORD PTR [esp+8]
  0000f	8d 42 0c	 lea	 eax, DWORD PTR [edx+12]
  00012	8b 8a dc 7f ff
	ff		 mov	 ecx, DWORD PTR [edx-32804]
  00018	33 c8		 xor	 ecx, eax
  0001a	e8 00 00 00 00	 call	 @__security_check_cookie@4
  0001f	8b 4a fc	 mov	 ecx, DWORD PTR [edx-4]
  00022	33 c8		 xor	 ecx, eax
  00024	e8 00 00 00 00	 call	 @__security_check_cookie@4
  00029	b8 00 00 00 00	 mov	 eax, OFFSET __ehfuncinfo$?SendRemoveBlock@ioBlockSetupManager@@QAEX_J@Z
  0002e	e9 00 00 00 00	 jmp	 ___CxxFrameHandler3
text$x	ENDS
?SendRemoveBlock@ioBlockSetupManager@@QAEX_J@Z ENDP	; ioBlockSetupManager::SendRemoveBlock
PUBLIC	?ChangeToSetUp@ioBlockSetupManager@@QAEXXZ	; ioBlockSetupManager::ChangeToSetUp
EXTRN	?ChangeToSetUp@ioConstructHouseSpecialState@@QAEXPAVioBaseChar@@PAVioPlayStage@@@Z:PROC ; ioConstructHouseSpecialState::ChangeToSetUp
; Function compile flags: /Ogsp
;	COMDAT ?ChangeToSetUp@ioBlockSetupManager@@QAEXXZ
_TEXT	SEGMENT
?ChangeToSetUp@ioBlockSetupManager@@QAEXXZ PROC		; ioBlockSetupManager::ChangeToSetUp, COMDAT
; _this$ = ecx

; 252  : {

  00000	56		 push	 esi
  00001	8b f1		 mov	 esi, ecx

; 253  : 	ioBaseChar* pOwner = m_pStage->GetBaseChar( m_SetUpAdminUser );

  00003	8b 4e 04	 mov	 ecx, DWORD PTR [esi+4]
  00006	57		 push	 edi
  00007	8d 46 20	 lea	 eax, DWORD PTR [esi+32]
  0000a	50		 push	 eax
  0000b	e8 00 00 00 00	 call	 ?GetBaseChar@ioPlayStage@@QAEPAVioBaseChar@@ABVioHashString@@@Z ; ioPlayStage::GetBaseChar
  00010	8b f8		 mov	 edi, eax

; 254  : 	if( pOwner )

  00012	85 ff		 test	 edi, edi
  00014	74 2c		 je	 SHORT $LN1@ChangeToSe

; 255  : 	{
; 256  : 		ioConstructHouseSpecialState* pState = dynamic_cast<ioConstructHouseSpecialState*>( pOwner->GetSpecialState() );

  00016	8b 87 14 03 00
	00		 mov	 eax, DWORD PTR [edi+788]
  0001c	6a 00		 push	 0
  0001e	68 00 00 00 00	 push	 OFFSET ??_R0?AVioConstructHouseSpecialState@@@8
  00023	68 00 00 00 00	 push	 OFFSET ??_R0?AVioSpecialStateBase@@@8
  00028	6a 00		 push	 0
  0002a	50		 push	 eax
  0002b	e8 00 00 00 00	 call	 ___RTDynamicCast
  00030	83 c4 14	 add	 esp, 20			; 00000014H

; 257  : 		if( pState )

  00033	85 c0		 test	 eax, eax
  00035	74 0b		 je	 SHORT $LN1@ChangeToSe

; 258  : 			pState->ChangeToSetUp( pOwner, m_pStage );

  00037	ff 76 04	 push	 DWORD PTR [esi+4]
  0003a	8b c8		 mov	 ecx, eax
  0003c	57		 push	 edi
  0003d	e8 00 00 00 00	 call	 ?ChangeToSetUp@ioConstructHouseSpecialState@@QAEXPAVioBaseChar@@PAVioPlayStage@@@Z ; ioConstructHouseSpecialState::ChangeToSetUp
$LN1@ChangeToSe:

; 259  : 	}
; 260  : }

  00042	5f		 pop	 edi
  00043	5e		 pop	 esi
  00044	c3		 ret	 0
?ChangeToSetUp@ioBlockSetupManager@@QAEXXZ ENDP		; ioBlockSetupManager::ChangeToSetUp
_TEXT	ENDS
PUBLIC	?ChangeToRemove@ioBlockSetupManager@@QAEXXZ	; ioBlockSetupManager::ChangeToRemove
EXTRN	?ChangeToRemove@ioConstructHouseSpecialState@@QAEXPAVioBaseChar@@PAVioPlayStage@@@Z:PROC ; ioConstructHouseSpecialState::ChangeToRemove
; Function compile flags: /Ogsp
;	COMDAT ?ChangeToRemove@ioBlockSetupManager@@QAEXXZ
_TEXT	SEGMENT
?ChangeToRemove@ioBlockSetupManager@@QAEXXZ PROC	; ioBlockSetupManager::ChangeToRemove, COMDAT
; _this$ = ecx

; 263  : {

  00000	56		 push	 esi
  00001	8b f1		 mov	 esi, ecx

; 264  : 	ioBaseChar* pOwner = m_pStage->GetBaseChar( m_SetUpAdminUser );

  00003	8b 4e 04	 mov	 ecx, DWORD PTR [esi+4]
  00006	57		 push	 edi
  00007	8d 46 20	 lea	 eax, DWORD PTR [esi+32]
  0000a	50		 push	 eax
  0000b	e8 00 00 00 00	 call	 ?GetBaseChar@ioPlayStage@@QAEPAVioBaseChar@@ABVioHashString@@@Z ; ioPlayStage::GetBaseChar
  00010	8b f8		 mov	 edi, eax

; 265  : 	if( pOwner )

  00012	85 ff		 test	 edi, edi
  00014	74 2c		 je	 SHORT $LN1@ChangeToRe

; 266  : 	{
; 267  : 		ioConstructHouseSpecialState* pState = dynamic_cast<ioConstructHouseSpecialState*>( pOwner->GetSpecialState() );

  00016	8b 87 14 03 00
	00		 mov	 eax, DWORD PTR [edi+788]
  0001c	6a 00		 push	 0
  0001e	68 00 00 00 00	 push	 OFFSET ??_R0?AVioConstructHouseSpecialState@@@8
  00023	68 00 00 00 00	 push	 OFFSET ??_R0?AVioSpecialStateBase@@@8
  00028	6a 00		 push	 0
  0002a	50		 push	 eax
  0002b	e8 00 00 00 00	 call	 ___RTDynamicCast
  00030	83 c4 14	 add	 esp, 20			; 00000014H

; 268  : 		if( pState )

  00033	85 c0		 test	 eax, eax
  00035	74 0b		 je	 SHORT $LN1@ChangeToRe

; 269  : 			pState->ChangeToRemove( pOwner, m_pStage );

  00037	ff 76 04	 push	 DWORD PTR [esi+4]
  0003a	8b c8		 mov	 ecx, eax
  0003c	57		 push	 edi
  0003d	e8 00 00 00 00	 call	 ?ChangeToRemove@ioConstructHouseSpecialState@@QAEXPAVioBaseChar@@PAVioPlayStage@@@Z ; ioConstructHouseSpecialState::ChangeToRemove
$LN1@ChangeToRe:

; 270  : 	}
; 271  : }

  00042	5f		 pop	 edi
  00043	5e		 pop	 esi
  00044	c3		 ret	 0
?ChangeToRemove@ioBlockSetupManager@@QAEXXZ ENDP	; ioBlockSetupManager::ChangeToRemove
_TEXT	ENDS
PUBLIC	?ProcessUDPPacket@ioBlockSetupManager@@UAE_NAAVSP2Packet@@@Z ; ioBlockSetupManager::ProcessUDPPacket
; Function compile flags: /Ogsp
;	COMDAT ?ProcessUDPPacket@ioBlockSetupManager@@UAE_NAAVSP2Packet@@@Z
_TEXT	SEGMENT
_rkPacket$ = 8						; size = 4
?ProcessUDPPacket@ioBlockSetupManager@@UAE_NAAVSP2Packet@@@Z PROC ; ioBlockSetupManager::ProcessUDPPacket, COMDAT
; _this$ = ecx

; 293  : 	return false;

  00000	32 c0		 xor	 al, al

; 294  : }

  00002	c2 04 00	 ret	 4
?ProcessUDPPacket@ioBlockSetupManager@@UAE_NAAVSP2Packet@@@Z ENDP ; ioBlockSetupManager::ProcessUDPPacket
_TEXT	ENDS
PUBLIC	?Process@ioBlockSetupManager@@UAEXXZ		; ioBlockSetupManager::Process
; Function compile flags: /Ogsp
;	COMDAT ?Process@ioBlockSetupManager@@UAEXXZ
_TEXT	SEGMENT
?Process@ioBlockSetupManager@@UAEXXZ PROC		; ioBlockSetupManager::Process, COMDAT
; _this$ = ecx

; 298  : }

  00000	c3		 ret	 0
?Process@ioBlockSetupManager@@UAEXXZ ENDP		; ioBlockSetupManager::Process
_TEXT	ENDS
PUBLIC	??0?$Singleton@VioBlockSetupManager@@@@QAE@XZ	; Singleton<ioBlockSetupManager>::Singleton<ioBlockSetupManager>
; Function compile flags: /Ogsp
; File d:\lost saga for developer\youtube\tutorial\source\src\io3dengine\iosingleton.h
;	COMDAT ??0?$Singleton@VioBlockSetupManager@@@@QAE@XZ
_TEXT	SEGMENT
??0?$Singleton@VioBlockSetupManager@@@@QAE@XZ PROC	; Singleton<ioBlockSetupManager>::Singleton<ioBlockSetupManager>, COMDAT
; _this$ = ecx

; 27   : 	Singleton()

  00000	8b c1		 mov	 eax, ecx

; 28   : 	{
; 29   : 		assert( !ms_Singleton );
; 30   : 		int offset = (int)(T*)1 - (int)(Singleton <T>*)(T*)1;
; 31   : 		ms_Singleton = (T*)((int)this + offset);

  00002	8d 48 fc	 lea	 ecx, DWORD PTR [eax-4]
  00005	89 0d 00 00 00
	00		 mov	 DWORD PTR ?ms_Singleton@?$Singleton@VioBlockSetupManager@@@@1PAVioBlockSetupManager@@A, ecx ; Singleton<ioBlockSetupManager>::ms_Singleton

; 32   : 	}

  0000b	c3		 ret	 0
??0?$Singleton@VioBlockSetupManager@@@@QAE@XZ ENDP	; Singleton<ioBlockSetupManager>::Singleton<ioBlockSetupManager>
_TEXT	ENDS
PUBLIC	??1?$Singleton@VioBlockSetupManager@@@@QAE@XZ	; Singleton<ioBlockSetupManager>::~Singleton<ioBlockSetupManager>
; Function compile flags: /Ogsp
;	COMDAT ??1?$Singleton@VioBlockSetupManager@@@@QAE@XZ
_TEXT	SEGMENT
??1?$Singleton@VioBlockSetupManager@@@@QAE@XZ PROC	; Singleton<ioBlockSetupManager>::~Singleton<ioBlockSetupManager>, COMDAT
; _this$ = ecx

; 36   : 		assert( ms_Singleton );
; 37   : 		ms_Singleton = 0;

  00000	83 25 00 00 00
	00 00		 and	 DWORD PTR ?ms_Singleton@?$Singleton@VioBlockSetupManager@@@@1PAVioBlockSetupManager@@A, 0 ; Singleton<ioBlockSetupManager>::ms_Singleton

; 38   : 	}

  00007	c3		 ret	 0
??1?$Singleton@VioBlockSetupManager@@@@QAE@XZ ENDP	; Singleton<ioBlockSetupManager>::~Singleton<ioBlockSetupManager>
_TEXT	ENDS
PUBLIC	?GetSingleton@?$Singleton@VioBlockSetupManager@@@@SAAAVioBlockSetupManager@@XZ ; Singleton<ioBlockSetupManager>::GetSingleton
; Function compile flags: /Ogsp
;	COMDAT ?GetSingleton@?$Singleton@VioBlockSetupManager@@@@SAAAVioBlockSetupManager@@XZ
_TEXT	SEGMENT
?GetSingleton@?$Singleton@VioBlockSetupManager@@@@SAAAVioBlockSetupManager@@XZ PROC ; Singleton<ioBlockSetupManager>::GetSingleton, COMDAT

; 42   : 		assert( ms_Singleton );
; 43   : 		return (*ms_Singleton);

  00000	a1 00 00 00 00	 mov	 eax, DWORD PTR ?ms_Singleton@?$Singleton@VioBlockSetupManager@@@@1PAVioBlockSetupManager@@A ; Singleton<ioBlockSetupManager>::ms_Singleton

; 44   : 	}

  00005	c3		 ret	 0
?GetSingleton@?$Singleton@VioBlockSetupManager@@@@SAAAVioBlockSetupManager@@XZ ENDP ; Singleton<ioBlockSetupManager>::GetSingleton
_TEXT	ENDS
PUBLIC	??1?$_Vector_val@USetupBlockItemInfo@@V?$allocator@USetupBlockItemInfo@@@std@@@std@@QAE@XZ ; std::_Vector_val<SetupBlockItemInfo,std::allocator<SetupBlockItemInfo> >::~_Vector_val<SetupBlockItemInfo,std::allocator<SetupBlockItemInfo> >
; Function compile flags: /Ogsp
; File c:\program files (x86)\microsoft visual studio 10.0\vc\include\vector
;	COMDAT ??1?$_Vector_val@USetupBlockItemInfo@@V?$allocator@USetupBlockItemInfo@@@std@@@std@@QAE@XZ
_TEXT	SEGMENT
??1?$_Vector_val@USetupBlockItemInfo@@V?$allocator@USetupBlockItemInfo@@@std@@@std@@QAE@XZ PROC ; std::_Vector_val<SetupBlockItemInfo,std::allocator<SetupBlockItemInfo> >::~_Vector_val<SetupBlockItemInfo,std::allocator<SetupBlockItemInfo> >, COMDAT
; _this$ = ecx

; 434  : 		}

  00000	c3		 ret	 0
??1?$_Vector_val@USetupBlockItemInfo@@V?$allocator@USetupBlockItemInfo@@@std@@@std@@QAE@XZ ENDP ; std::_Vector_val<SetupBlockItemInfo,std::allocator<SetupBlockItemInfo> >::~_Vector_val<SetupBlockItemInfo,std::allocator<SetupBlockItemInfo> >
_TEXT	ENDS
PUBLIC	??0?$allocator@USetupBlockItemInfo@@@std@@QAE@XZ ; std::allocator<SetupBlockItemInfo>::allocator<SetupBlockItemInfo>
; Function compile flags: /Ogsp
; File c:\program files (x86)\microsoft visual studio 10.0\vc\include\xmemory
;	COMDAT ??0?$allocator@USetupBlockItemInfo@@@std@@QAE@XZ
_TEXT	SEGMENT
??0?$allocator@USetupBlockItemInfo@@@std@@QAE@XZ PROC	; std::allocator<SetupBlockItemInfo>::allocator<SetupBlockItemInfo>, COMDAT
; _this$ = ecx

; 161  : 	_ALLOCATOR() _THROW0()

  00000	8b c1		 mov	 eax, ecx

; 162  : 		{	// construct default allocator (do nothing)
; 163  : 		}

  00002	c3		 ret	 0
??0?$allocator@USetupBlockItemInfo@@@std@@QAE@XZ ENDP	; std::allocator<SetupBlockItemInfo>::allocator<SetupBlockItemInfo>
_TEXT	ENDS
PUBLIC	??0?$allocator@USetupBlockItemInfo@@@std@@QAE@ABV01@@Z ; std::allocator<SetupBlockItemInfo>::allocator<SetupBlockItemInfo>
; Function compile flags: /Ogsp
;	COMDAT ??0?$allocator@USetupBlockItemInfo@@@std@@QAE@ABV01@@Z
_TEXT	SEGMENT
___formal$ = 8						; size = 4
??0?$allocator@USetupBlockItemInfo@@@std@@QAE@ABV01@@Z PROC ; std::allocator<SetupBlockItemInfo>::allocator<SetupBlockItemInfo>, COMDAT
; _this$ = ecx

; 165  : 	_ALLOCATOR(const _ALLOCATOR<_Ty>&) _THROW0()

  00000	8b c1		 mov	 eax, ecx

; 166  : 		{	// construct by copying (do nothing)
; 167  : 		}

  00002	c2 04 00	 ret	 4
??0?$allocator@USetupBlockItemInfo@@@std@@QAE@ABV01@@Z ENDP ; std::allocator<SetupBlockItemInfo>::allocator<SetupBlockItemInfo>
_TEXT	ENDS
PUBLIC	?deallocate@?$allocator@USetupBlockItemInfo@@@std@@QAEXPAUSetupBlockItemInfo@@I@Z ; std::allocator<SetupBlockItemInfo>::deallocate
EXTRN	??3@YAXPAX@Z:PROC				; operator delete
; Function compile flags: /Ogsp
;	COMDAT ?deallocate@?$allocator@USetupBlockItemInfo@@@std@@QAEXPAUSetupBlockItemInfo@@I@Z
_TEXT	SEGMENT
__Ptr$ = 8						; size = 4
___formal$ = 12						; size = 4
?deallocate@?$allocator@USetupBlockItemInfo@@@std@@QAEXPAUSetupBlockItemInfo@@I@Z PROC ; std::allocator<SetupBlockItemInfo>::deallocate, COMDAT
; _this$ = ecx

; 181  : 		{	// deallocate object at _Ptr, ignore size

  00000	55		 push	 ebp
  00001	8b ec		 mov	 ebp, esp

; 182  : 		::operator delete(_Ptr);

  00003	ff 75 08	 push	 DWORD PTR __Ptr$[ebp]
  00006	e8 00 00 00 00	 call	 ??3@YAXPAX@Z		; operator delete
  0000b	59		 pop	 ecx

; 183  : 		}

  0000c	5d		 pop	 ebp
  0000d	c2 08 00	 ret	 8
?deallocate@?$allocator@USetupBlockItemInfo@@@std@@QAEXPAUSetupBlockItemInfo@@I@Z ENDP ; std::allocator<SetupBlockItemInfo>::deallocate
_TEXT	ENDS
PUBLIC	??$_Ptr_cat@USetupBlockItemInfo@@U1@@std@@YA?AU_Nonscalar_ptr_iterator_tag@0@PAUSetupBlockItemInfo@@0@Z ; std::_Ptr_cat<SetupBlockItemInfo,SetupBlockItemInfo>
; Function compile flags: /Ogsp
; File c:\program files (x86)\microsoft visual studio 10.0\vc\include\xutility
;	COMDAT ??$_Ptr_cat@USetupBlockItemInfo@@U1@@std@@YA?AU_Nonscalar_ptr_iterator_tag@0@PAUSetupBlockItemInfo@@0@Z
_TEXT	SEGMENT
__Cat$ = -1						; size = 1
___formal$ = 8						; size = 4
___formal$ = 12						; size = 4
??$_Ptr_cat@USetupBlockItemInfo@@U1@@std@@YA?AU_Nonscalar_ptr_iterator_tag@0@PAUSetupBlockItemInfo@@0@Z PROC ; std::_Ptr_cat<SetupBlockItemInfo,SetupBlockItemInfo>, COMDAT

; 516  : 	{	// return pointer category from pointers

  00000	55		 push	 ebp
  00001	8b ec		 mov	 ebp, esp
  00003	51		 push	 ecx

; 517  : 	typename _Ptr_cat_helper<_Elem1, _Elem2>::_Type _Cat;
; 518  : 	return (_Cat);

  00004	8a 45 ff	 mov	 al, BYTE PTR __Cat$[ebp]

; 519  : 	}

  00007	c9		 leave
  00008	c3		 ret	 0
??$_Ptr_cat@USetupBlockItemInfo@@U1@@std@@YA?AU_Nonscalar_ptr_iterator_tag@0@PAUSetupBlockItemInfo@@0@Z ENDP ; std::_Ptr_cat<SetupBlockItemInfo,SetupBlockItemInfo>
_TEXT	ENDS
PUBLIC	??$_Destroy@USetupBlockItemInfo@@@std@@YAXPAUSetupBlockItemInfo@@@Z ; std::_Destroy<SetupBlockItemInfo>
; Function compile flags: /Ogsp
; File c:\program files (x86)\microsoft visual studio 10.0\vc\include\xmemory
;	COMDAT ??$_Destroy@USetupBlockItemInfo@@@std@@YAXPAUSetupBlockItemInfo@@@Z
_TEXT	SEGMENT
__Ptr$ = 8						; size = 4
??$_Destroy@USetupBlockItemInfo@@@std@@YAXPAUSetupBlockItemInfo@@@Z PROC ; std::_Destroy<SetupBlockItemInfo>, COMDAT

; 63   : 	_Ptr->~_Ty();
; 64   : 	}

  00000	c3		 ret	 0
??$_Destroy@USetupBlockItemInfo@@@std@@YAXPAUSetupBlockItemInfo@@@Z ENDP ; std::_Destroy<SetupBlockItemInfo>
_TEXT	ENDS
PUBLIC	?_DECSTR@@YAXPADH@Z				; _DECSTR
; Function compile flags: /Ogsp
; File d:\lost saga for developer\youtube\tutorial\source\src\lsclient\stringprotect.h
;	COMDAT ?_DECSTR@@YAXPADH@Z
_TEXT	SEGMENT
_s$ = 8							; size = 4
_l$ = 12						; size = 4
?_DECSTR@@YAXPADH@Z PROC				; _DECSTR, COMDAT

; 40   : __forceinline void _DECSTR(char* s, int l){int i=0,l4=(l-1)/4,*p=(int*)s;s[l-1]=0;for(;i<l4;++i)*(p++)^=0xEAEBECED;for(i=l4*4;i<l-1;++i)s[i]^=0xED-i%4;}

  00000	55		 push	 ebp
  00001	8b ec		 mov	 ebp, esp
  00003	8b 4d 0c	 mov	 ecx, DWORD PTR _l$[ebp]
  00006	56		 push	 esi
  00007	8b 75 08	 mov	 esi, DWORD PTR _s$[ebp]
  0000a	57		 push	 edi
  0000b	8d 79 ff	 lea	 edi, DWORD PTR [ecx-1]
  0000e	8b c7		 mov	 eax, edi
  00010	99		 cdq
  00011	83 e2 03	 and	 edx, 3
  00014	03 c2		 add	 eax, edx
  00016	c1 f8 02	 sar	 eax, 2
  00019	8b d6		 mov	 edx, esi
  0001b	c6 44 0e ff 00	 mov	 BYTE PTR [esi+ecx-1], 0
  00020	85 c0		 test	 eax, eax
  00022	7e 0e		 jle	 SHORT $LN4@DECSTR
  00024	8b c8		 mov	 ecx, eax
$LL6@DECSTR:
  00026	81 32 ed ec eb
	ea		 xor	 DWORD PTR [edx], -353637139 ; eaebecedH
  0002c	83 c2 04	 add	 edx, 4
  0002f	49		 dec	 ecx
  00030	75 f4		 jne	 SHORT $LL6@DECSTR
$LN4@DECSTR:
  00032	c1 e0 02	 shl	 eax, 2
  00035	eb 17		 jmp	 SHORT $LN14@DECSTR
$LL3@DECSTR:
  00037	8b c8		 mov	 ecx, eax
  00039	81 e1 03 00 00
	80		 and	 ecx, -2147483645	; 80000003H
  0003f	79 05		 jns	 SHORT $LN13@DECSTR
  00041	49		 dec	 ecx
  00042	83 c9 fc	 or	 ecx, -4			; fffffffcH
  00045	41		 inc	 ecx
$LN13@DECSTR:
  00046	b2 ed		 mov	 dl, -19			; ffffffedH
  00048	2a d1		 sub	 dl, cl
  0004a	30 14 30	 xor	 BYTE PTR [eax+esi], dl
  0004d	40		 inc	 eax
$LN14@DECSTR:
  0004e	3b c7		 cmp	 eax, edi
  00050	7c e5		 jl	 SHORT $LL3@DECSTR
  00052	5f		 pop	 edi
  00053	5e		 pop	 esi
  00054	5d		 pop	 ebp
  00055	c3		 ret	 0
?_DECSTR@@YAXPADH@Z ENDP				; _DECSTR
_TEXT	ENDS
PUBLIC	?GetGuildStorage@ioApplication@@QAEPAVioUserBlockStorage@@XZ ; ioApplication::GetGuildStorage
; Function compile flags: /Ogsp
; File d:\lost saga for developer\youtube\tutorial\source\src\lsclient\ioapplication.h
;	COMDAT ?GetGuildStorage@ioApplication@@QAEPAVioUserBlockStorage@@XZ
_TEXT	SEGMENT
?GetGuildStorage@ioApplication@@QAEPAVioUserBlockStorage@@XZ PROC ; ioApplication::GetGuildStorage, COMDAT
; _this$ = ecx

; 1448 : 	ioUserBlockStorage* GetGuildStorage(){ return m_pGuildBlockStorage; }

  00000	8b 81 b0 04 00
	00		 mov	 eax, DWORD PTR [ecx+1200]
  00006	c3		 ret	 0
?GetGuildStorage@ioApplication@@QAEPAVioUserBlockStorage@@XZ ENDP ; ioApplication::GetGuildStorage
_TEXT	ENDS
PUBLIC	?GetHomeStorage@ioApplication@@QAEPAVioUserBlockStorage@@XZ ; ioApplication::GetHomeStorage
; Function compile flags: /Ogsp
;	COMDAT ?GetHomeStorage@ioApplication@@QAEPAVioUserBlockStorage@@XZ
_TEXT	SEGMENT
?GetHomeStorage@ioApplication@@QAEPAVioUserBlockStorage@@XZ PROC ; ioApplication::GetHomeStorage, COMDAT
; _this$ = ecx

; 1449 : 	ioUserBlockStorage* GetHomeStorage(){ return m_pHomeBlockStorage; }

  00000	8b 81 b4 04 00
	00		 mov	 eax, DWORD PTR [ecx+1204]
  00006	c3		 ret	 0
?GetHomeStorage@ioApplication@@QAEPAVioUserBlockStorage@@XZ ENDP ; ioApplication::GetHomeStorage
_TEXT	ENDS
PUBLIC	?GetPublicID@ioMyInfo@@QBEABVioHashString@@XZ	; ioMyInfo::GetPublicID
; Function compile flags: /Ogsp
; File d:\lost saga for developer\youtube\tutorial\source\src\lsclient\iomyinfo.h
;	COMDAT ?GetPublicID@ioMyInfo@@QBEABVioHashString@@XZ
_TEXT	SEGMENT
?GetPublicID@ioMyInfo@@QBEABVioHashString@@XZ PROC	; ioMyInfo::GetPublicID, COMDAT
; _this$ = ecx

; 517  : 	const ioHashString& GetPublicID() const { return m_user_data.m_public_id; }    

  00000	8d 41 1c	 lea	 eax, DWORD PTR [ecx+28]
  00003	c3		 ret	 0
?GetPublicID@ioMyInfo@@QBEABVioHashString@@XZ ENDP	; ioMyInfo::GetPublicID
_TEXT	ENDS
PUBLIC	?DecryptValueToPool@?$CEncrypt@_N@@QAEXPA_N@Z	; CEncrypt<bool>::DecryptValueToPool
EXTRN	?DecryptByte@ccddaabb@@QBEXPBDPADH@Z:PROC	; ccddaabb::DecryptByte
; Function compile flags: /Ogsp
; File d:\lost saga for developer\youtube\tutorial\source\src\lsclient\encryptvalue.h
;	COMDAT ?DecryptValueToPool@?$CEncrypt@_N@@QAEXPA_N@Z
_TEXT	SEGMENT
_value$ = 8						; size = 4
?DecryptValueToPool@?$CEncrypt@_N@@QAEXPA_N@Z PROC	; CEncrypt<bool>::DecryptValueToPool, COMDAT
; _this$ = ecx

; 219  : 	{

  00000	55		 push	 ebp
  00001	8b ec		 mov	 ebp, esp
  00003	56		 push	 esi

; 220  : 		m_RC5.DecryptByte( m_MemPool, m_TempMem, 4 );

  00004	8d 71 28	 lea	 esi, DWORD PTR [ecx+40]
  00007	6a 04		 push	 4
  00009	8d 41 1c	 lea	 eax, DWORD PTR [ecx+28]
  0000c	56		 push	 esi
  0000d	50		 push	 eax
  0000e	83 c1 0c	 add	 ecx, 12			; 0000000cH
  00011	e8 00 00 00 00	 call	 ?DecryptByte@ccddaabb@@QBEXPBDPADH@Z ; ccddaabb::DecryptByte

; 221  : 		*value = *((bool*)m_TempMem);

  00016	8a 06		 mov	 al, BYTE PTR [esi]
  00018	8b 4d 08	 mov	 ecx, DWORD PTR _value$[ebp]
  0001b	88 01		 mov	 BYTE PTR [ecx], al
  0001d	5e		 pop	 esi

; 222  : 	}

  0001e	5d		 pop	 ebp
  0001f	c2 04 00	 ret	 4
?DecryptValueToPool@?$CEncrypt@_N@@QAEXPA_N@Z ENDP	; CEncrypt<bool>::DecryptValueToPool
_TEXT	ENDS
PUBLIC	?GetSingleton@ioBlockSetupManager@@SAAAV1@XZ	; ioBlockSetupManager::GetSingleton
; Function compile flags: /Ogsp
; File d:\lost saga for developer\youtube\tutorial\source\src\lsclient\housing\ioblocksetupmanager.cpp
;	COMDAT ?GetSingleton@ioBlockSetupManager@@SAAAV1@XZ
_TEXT	SEGMENT
?GetSingleton@ioBlockSetupManager@@SAAAV1@XZ PROC	; ioBlockSetupManager::GetSingleton, COMDAT

; 29   : 	return Singleton< ioBlockSetupManager >::GetSingleton();

  00000	a1 00 00 00 00	 mov	 eax, DWORD PTR ?ms_Singleton@?$Singleton@VioBlockSetupManager@@@@1PAVioBlockSetupManager@@A ; Singleton<ioBlockSetupManager>::ms_Singleton

; 30   : }

  00005	c3		 ret	 0
?GetSingleton@ioBlockSetupManager@@SAAAV1@XZ ENDP	; ioBlockSetupManager::GetSingleton
_TEXT	ENDS
PUBLIC	?IsSetUpState@ioBlockSetupManager@@QAE_NXZ	; ioBlockSetupManager::IsSetUpState
EXTRN	?GetSingleton@ioMyInfo@@SAAAV1@XZ:PROC		; ioMyInfo::GetSingleton
; Function compile flags: /Ogsp
;	COMDAT ?IsSetUpState@ioBlockSetupManager@@QAE_NXZ
_TEXT	SEGMENT
?IsSetUpState@ioBlockSetupManager@@QAE_NXZ PROC		; ioBlockSetupManager::IsSetUpState, COMDAT
; _this$ = ecx

; 47   : {

  00000	56		 push	 esi
  00001	8b f1		 mov	 esi, ecx

; 48   : 	ioBaseChar* pOwner = m_pStage->GetBaseChar( g_MyInfo.GetPublicID() );

  00003	e8 00 00 00 00	 call	 ?GetSingleton@ioMyInfo@@SAAAV1@XZ ; ioMyInfo::GetSingleton
  00008	8b 4e 04	 mov	 ecx, DWORD PTR [esi+4]
  0000b	83 c0 1c	 add	 eax, 28			; 0000001cH
  0000e	50		 push	 eax
  0000f	e8 00 00 00 00	 call	 ?GetBaseChar@ioPlayStage@@QAEPAVioBaseChar@@ABVioHashString@@@Z ; ioPlayStage::GetBaseChar
  00014	5e		 pop	 esi

; 49   : 	if( pOwner && pOwner->GetState() == CS_CONSTRUCT_HOUSE )

  00015	85 c0		 test	 eax, eax
  00017	74 0c		 je	 SHORT $LN1@IsSetUpSta
  00019	80 b8 10 03 00
	00 9b		 cmp	 BYTE PTR [eax+784], 155	; 0000009bH
  00020	75 03		 jne	 SHORT $LN1@IsSetUpSta

; 50   : 	{
; 51   : 		return true;

  00022	b0 01		 mov	 al, 1

; 55   : }

  00024	c3		 ret	 0
$LN1@IsSetUpSta:

; 52   : 	}
; 53   : 
; 54   : 	return false;

  00025	32 c0		 xor	 al, al

; 55   : }

  00027	c3		 ret	 0
?IsSetUpState@ioBlockSetupManager@@QAE_NXZ ENDP		; ioBlockSetupManager::IsSetUpState
_TEXT	ENDS
PUBLIC	??_R0?AVioWnd@@@8				; ioWnd `RTTI Type Descriptor'
PUBLIC	??_R0?AVioHousingBlockSetupWnd@@@8		; ioHousingBlockSetupWnd `RTTI Type Descriptor'
PUBLIC	?ApplySetUpState@ioBlockSetupManager@@QAEXXZ	; ioBlockSetupManager::ApplySetUpState
EXTRN	?SetState@ioBaseChar@@QAEXH_N@Z:PROC		; ioBaseChar::SetState
EXTRN	__imp_?HideWnd@ioGUIManager@@QAEXK_N@Z:PROC
EXTRN	__imp_?ShowWnd@ioWnd@@QAEXXZ:PROC
EXTRN	?SetBlockModeType@ioHousingBlockSetupWnd@@QAEXH@Z:PROC ; ioHousingBlockSetupWnd::SetBlockModeType
EXTRN	__imp_?FindWnd@ioGUIManager@@QAEPAVioWnd@@K@Z:PROC
EXTRN	?GetSingleton@ioSP2GUIManager@@SAAAV1@XZ:PROC	; ioSP2GUIManager::GetSingleton
EXTRN	__imp_??8ioHashString@@QBE_NABV0@@Z:PROC
;	COMDAT ??_R0?AVioWnd@@@8
; File d:\lost saga for developer\youtube\tutorial\source\src\io3dengine\iosingleton.h
_DATA	SEGMENT
??_R0?AVioWnd@@@8 DD FLAT:??_7type_info@@6B@		; ioWnd `RTTI Type Descriptor'
	DD	00H
	DB	'.?AVioWnd@@', 00H
_DATA	ENDS
;	COMDAT ??_R0?AVioHousingBlockSetupWnd@@@8
_DATA	SEGMENT
??_R0?AVioHousingBlockSetupWnd@@@8 DD FLAT:??_7type_info@@6B@ ; ioHousingBlockSetupWnd `RTTI Type Descriptor'
	DD	00H
	DB	'.?AVioHousingBlockSetupWnd@@', 00H
; Function compile flags: /Ogsp
; File d:\lost saga for developer\youtube\tutorial\source\src\lsclient\housing\ioblocksetupmanager.cpp
_DATA	ENDS
;	COMDAT ?ApplySetUpState@ioBlockSetupManager@@QAEXXZ
_TEXT	SEGMENT
?ApplySetUpState@ioBlockSetupManager@@QAEXXZ PROC	; ioBlockSetupManager::ApplySetUpState, COMDAT
; _this$ = ecx

; 145  : {

  00000	53		 push	 ebx
  00001	56		 push	 esi
  00002	57		 push	 edi

; 146  : 	TCPNetwork::MouseBusy( false );

  00003	33 db		 xor	 ebx, ebx
  00005	53		 push	 ebx
  00006	8b f9		 mov	 edi, ecx
  00008	e8 00 00 00 00	 call	 ?MouseBusy@TCPNetwork@@YAX_N@Z ; TCPNetwork::MouseBusy
  0000d	59		 pop	 ecx

; 147  : 
; 148  : 	ioBaseChar* pOwner = m_pStage->GetBaseChar( m_SetUpAdminUser );

  0000e	8b 4f 04	 mov	 ecx, DWORD PTR [edi+4]
  00011	8d 47 20	 lea	 eax, DWORD PTR [edi+32]
  00014	50		 push	 eax
  00015	e8 00 00 00 00	 call	 ?GetBaseChar@ioPlayStage@@QAEPAVioBaseChar@@ABVioHashString@@@Z ; ioPlayStage::GetBaseChar
  0001a	8b f0		 mov	 esi, eax

; 149  : 	if( pOwner )

  0001c	3b f3		 cmp	 esi, ebx
  0001e	0f 84 01 01 00
	00		 je	 $LN1@ApplySetUp

; 150  : 	{
; 151  : 		if( pOwner->IsNeedProcess() )

  00024	8b 06		 mov	 eax, DWORD PTR [esi]
  00026	8b ce		 mov	 ecx, esi
  00028	ff 90 00 01 00
	00		 call	 DWORD PTR [eax+256]
  0002e	84 c0		 test	 al, al
  00030	0f 84 df 00 00
	00		 je	 $LN5@ApplySetUp

; 152  : 		{
; 153  : 			ioConstructHouseSpecialState* pState = dynamic_cast<ioConstructHouseSpecialState*>( pOwner->GetSpecialState() );

  00036	8b 86 14 03 00
	00		 mov	 eax, DWORD PTR [esi+788]
  0003c	53		 push	 ebx
  0003d	68 00 00 00 00	 push	 OFFSET ??_R0?AVioConstructHouseSpecialState@@@8
  00042	68 00 00 00 00	 push	 OFFSET ??_R0?AVioSpecialStateBase@@@8
  00047	53		 push	 ebx
  00048	50		 push	 eax
  00049	e8 00 00 00 00	 call	 ___RTDynamicCast
  0004e	83 c4 14	 add	 esp, 20			; 00000014H

; 154  : 			if( pState )

  00051	3b c3		 cmp	 eax, ebx
  00053	0f 84 cc 00 00
	00		 je	 $LN1@ApplySetUp

; 155  : 			{
; 156  : 				pState->ChangeToSetUp( pOwner, pOwner->GetCreator() );

  00059	ff b6 44 03 00
	00		 push	 DWORD PTR [esi+836]
  0005f	8b c8		 mov	 ecx, eax
  00061	56		 push	 esi
  00062	e8 00 00 00 00	 call	 ?ChangeToSetUp@ioConstructHouseSpecialState@@QAEXPAVioBaseChar@@PAVioPlayStage@@@Z ; ioConstructHouseSpecialState::ChangeToSetUp

; 157  : 				if( m_SetUpAdminUser == g_MyInfo.GetPublicID() )

  00067	e8 00 00 00 00	 call	 ?GetSingleton@ioMyInfo@@SAAAV1@XZ ; ioMyInfo::GetSingleton
  0006c	83 c0 1c	 add	 eax, 28			; 0000001cH
  0006f	50		 push	 eax
  00070	8d 4f 20	 lea	 ecx, DWORD PTR [edi+32]
  00073	ff 15 00 00 00
	00		 call	 DWORD PTR __imp_??8ioHashString@@QBE_NABV0@@Z
  00079	84 c0		 test	 al, al
  0007b	0f 84 90 00 00
	00		 je	 $LN7@ApplySetUp

; 158  : 				{
; 159  : 					ioHousingBlockSetupWnd* pWnd = dynamic_cast<ioHousingBlockSetupWnd*>( g_GUIMgr.FindWnd( HOUSING_BLOCK_SETUP_WND ) );

  00081	53		 push	 ebx
  00082	68 00 00 00 00	 push	 OFFSET ??_R0?AVioHousingBlockSetupWnd@@@8
  00087	68 00 00 00 00	 push	 OFFSET ??_R0?AVioWnd@@@8
  0008c	53		 push	 ebx
  0008d	68 89 18 00 00	 push	 6281			; 00001889H
  00092	e8 00 00 00 00	 call	 ?GetSingleton@ioSP2GUIManager@@SAAAV1@XZ ; ioSP2GUIManager::GetSingleton
  00097	8b c8		 mov	 ecx, eax
  00099	ff 15 00 00 00
	00		 call	 DWORD PTR __imp_?FindWnd@ioGUIManager@@QAEPAVioWnd@@K@Z
  0009f	50		 push	 eax
  000a0	e8 00 00 00 00	 call	 ___RTDynamicCast
  000a5	8b f0		 mov	 esi, eax
  000a7	83 c4 14	 add	 esp, 20			; 00000014H

; 160  : 					if( pWnd )

  000aa	3b f3		 cmp	 esi, ebx
  000ac	74 12		 je	 SHORT $LN2@ApplySetUp

; 161  : 					{
; 162  : 						pWnd->SetBlockModeType( m_BlockModeType );

  000ae	ff 77 08	 push	 DWORD PTR [edi+8]
  000b1	8b ce		 mov	 ecx, esi
  000b3	e8 00 00 00 00	 call	 ?SetBlockModeType@ioHousingBlockSetupWnd@@QAEXH@Z ; ioHousingBlockSetupWnd::SetBlockModeType

; 163  : 						pWnd->ShowWnd();

  000b8	8b ce		 mov	 ecx, esi
  000ba	ff 15 00 00 00
	00		 call	 DWORD PTR __imp_?ShowWnd@ioWnd@@QAEXXZ
$LN2@ApplySetUp:

; 164  : 					}
; 165  : 
; 166  : 					g_GUIMgr.HideWnd( HELP_WND );

  000c0	53		 push	 ebx
  000c1	68 76 17 00 00	 push	 6006			; 00001776H
  000c6	e8 00 00 00 00	 call	 ?GetSingleton@ioSP2GUIManager@@SAAAV1@XZ ; ioSP2GUIManager::GetSingleton
  000cb	8b 35 00 00 00
	00		 mov	 esi, DWORD PTR __imp_?HideWnd@ioGUIManager@@QAEXK_N@Z
  000d1	8b c8		 mov	 ecx, eax
  000d3	ff d6		 call	 esi

; 167  : 					g_GUIMgr.HideWnd( SKILL_LIST_WND );

  000d5	53		 push	 ebx
  000d6	68 89 13 00 00	 push	 5001			; 00001389H
  000db	e8 00 00 00 00	 call	 ?GetSingleton@ioSP2GUIManager@@SAAAV1@XZ ; ioSP2GUIManager::GetSingleton
  000e0	8b c8		 mov	 ecx, eax
  000e2	ff d6		 call	 esi

; 168  : 					g_GUIMgr.HideWnd( ACCESSORY_SKILL_LIST_WND );

  000e4	53		 push	 ebx
  000e5	68 9c 18 00 00	 push	 6300			; 0000189cH
  000ea	e8 00 00 00 00	 call	 ?GetSingleton@ioSP2GUIManager@@SAAAV1@XZ ; ioSP2GUIManager::GetSingleton
  000ef	8b c8		 mov	 ecx, eax
  000f1	ff d6		 call	 esi

; 169  : 					g_GUIMgr.HideWnd( MINI_SOLDIER_SELECT_WND );					

  000f3	53		 push	 ebx
  000f4	68 a0 13 00 00	 push	 5024			; 000013a0H
  000f9	e8 00 00 00 00	 call	 ?GetSingleton@ioSP2GUIManager@@SAAAV1@XZ ; ioSP2GUIManager::GetSingleton
  000fe	8b c8		 mov	 ecx, eax
  00100	ff d6		 call	 esi

; 170  : 					g_GUIMgr.HideWnd( MESSENGER_WND );

  00102	53		 push	 ebx
  00103	68 80 17 00 00	 push	 6016			; 00001780H
  00108	e8 00 00 00 00	 call	 ?GetSingleton@ioSP2GUIManager@@SAAAV1@XZ ; ioSP2GUIManager::GetSingleton
  0010d	8b c8		 mov	 ecx, eax
  0010f	ff d6		 call	 esi
$LN7@ApplySetUp:
  00111	5f		 pop	 edi
  00112	5e		 pop	 esi
  00113	5b		 pop	 ebx

; 184  : }

  00114	c3		 ret	 0
$LN5@ApplySetUp:

; 171  : 				}
; 172  : 				return;				
; 173  : 			}
; 174  : 		}
; 175  : 		else
; 176  : 		{
; 177  : 			pOwner->SetState( CS_CONSTRUCT_HOUSE );

  00115	6a 01		 push	 1
  00117	68 9b 00 00 00	 push	 155			; 0000009bH
  0011c	8b ce		 mov	 ecx, esi
  0011e	e8 00 00 00 00	 call	 ?SetState@ioBaseChar@@QAEXH_N@Z ; ioBaseChar::SetState

; 178  : 			return;

  00123	eb ec		 jmp	 SHORT $LN7@ApplySetUp
$LN1@ApplySetUp:

; 179  : 		}
; 180  : 	}
; 181  : 
; 182  : 	//    
; 183  : 	g_BlockSetupManager.EndSetUpState();

  00125	8b 0d 00 00 00
	00		 mov	 ecx, DWORD PTR ?ms_Singleton@?$Singleton@VioBlockSetupManager@@@@1PAVioBlockSetupManager@@A ; Singleton<ioBlockSetupManager>::ms_Singleton
  0012b	5f		 pop	 edi
  0012c	5e		 pop	 esi
  0012d	5b		 pop	 ebx
  0012e	e9 00 00 00 00	 jmp	 ?EndSetUpState@ioBlockSetupManager@@QAEXXZ ; ioBlockSetupManager::EndSetUpState
?ApplySetUpState@ioBlockSetupManager@@QAEXXZ ENDP	; ioBlockSetupManager::ApplySetUpState
_TEXT	ENDS
PUBLIC	?ApplyEndSetUpState@ioBlockSetupManager@@QAEXXZ	; ioBlockSetupManager::ApplyEndSetUpState
EXTRN	__imp_?ShowWnd@ioGUIManager@@QAEXK_N@Z:PROC
; Function compile flags: /Ogsp
;	COMDAT ?ApplyEndSetUpState@ioBlockSetupManager@@QAEXXZ
_TEXT	SEGMENT
?ApplyEndSetUpState@ioBlockSetupManager@@QAEXXZ PROC	; ioBlockSetupManager::ApplyEndSetUpState, COMDAT
; _this$ = ecx

; 203  : {

  00000	53		 push	 ebx
  00001	56		 push	 esi
  00002	57		 push	 edi

; 204  : 	TCPNetwork::MouseBusy( false );

  00003	33 db		 xor	 ebx, ebx
  00005	53		 push	 ebx
  00006	8b f1		 mov	 esi, ecx
  00008	e8 00 00 00 00	 call	 ?MouseBusy@TCPNetwork@@YAX_N@Z ; TCPNetwork::MouseBusy
  0000d	59		 pop	 ecx

; 205  : 
; 206  : 	if( m_SetUpAdminUser == g_MyInfo.GetPublicID() )

  0000e	e8 00 00 00 00	 call	 ?GetSingleton@ioMyInfo@@SAAAV1@XZ ; ioMyInfo::GetSingleton
  00013	83 c0 1c	 add	 eax, 28			; 0000001cH
  00016	8d 7e 20	 lea	 edi, DWORD PTR [esi+32]
  00019	50		 push	 eax
  0001a	8b cf		 mov	 ecx, edi
  0001c	ff 15 00 00 00
	00		 call	 DWORD PTR __imp_??8ioHashString@@QBE_NABV0@@Z
  00022	84 c0		 test	 al, al
  00024	74 5b		 je	 SHORT $LN4@ApplyEndSe

; 207  : 	{
; 208  : 		ioBaseChar* pOwner = m_pStage->GetBaseChar( m_SetUpAdminUser );

  00026	8b 4e 04	 mov	 ecx, DWORD PTR [esi+4]
  00029	57		 push	 edi
  0002a	e8 00 00 00 00	 call	 ?GetBaseChar@ioPlayStage@@QAEPAVioBaseChar@@ABVioHashString@@@Z ; ioPlayStage::GetBaseChar

; 209  : 		if( pOwner )

  0002f	3b c3		 cmp	 eax, ebx
  00031	74 0a		 je	 SHORT $LN3@ApplyEndSe

; 210  : 		{
; 211  : 			pOwner->SetState( CS_DELAY );

  00033	6a 01		 push	 1
  00035	53		 push	 ebx
  00036	8b c8		 mov	 ecx, eax
  00038	e8 00 00 00 00	 call	 ?SetState@ioBaseChar@@QAEXH_N@Z ; ioBaseChar::SetState
$LN3@ApplyEndSe:

; 212  : 		}
; 213  : 
; 214  : 		g_GUIMgr.ShowWnd( HELP_WND );

  0003d	53		 push	 ebx
  0003e	68 76 17 00 00	 push	 6006			; 00001776H
  00043	e8 00 00 00 00	 call	 ?GetSingleton@ioSP2GUIManager@@SAAAV1@XZ ; ioSP2GUIManager::GetSingleton
  00048	8b 35 00 00 00
	00		 mov	 esi, DWORD PTR __imp_?ShowWnd@ioGUIManager@@QAEXK_N@Z
  0004e	8b c8		 mov	 ecx, eax
  00050	ff d6		 call	 esi

; 215  : 		g_GUIMgr.ShowWnd( SKILL_LIST_WND );

  00052	53		 push	 ebx
  00053	68 89 13 00 00	 push	 5001			; 00001389H
  00058	e8 00 00 00 00	 call	 ?GetSingleton@ioSP2GUIManager@@SAAAV1@XZ ; ioSP2GUIManager::GetSingleton
  0005d	8b c8		 mov	 ecx, eax
  0005f	ff d6		 call	 esi

; 216  : 		g_GUIMgr.ShowWnd( ACCESSORY_SKILL_LIST_WND );

  00061	53		 push	 ebx
  00062	68 9c 18 00 00	 push	 6300			; 0000189cH
  00067	e8 00 00 00 00	 call	 ?GetSingleton@ioSP2GUIManager@@SAAAV1@XZ ; ioSP2GUIManager::GetSingleton
  0006c	8b c8		 mov	 ecx, eax
  0006e	ff d6		 call	 esi

; 217  : 		g_GUIMgr.ShowWnd( MINI_SOLDIER_SELECT_WND );

  00070	53		 push	 ebx
  00071	68 a0 13 00 00	 push	 5024			; 000013a0H
  00076	e8 00 00 00 00	 call	 ?GetSingleton@ioSP2GUIManager@@SAAAV1@XZ ; ioSP2GUIManager::GetSingleton
  0007b	8b c8		 mov	 ecx, eax
  0007d	ff d6		 call	 esi

; 218  : 	}
; 219  : 	else

  0007f	eb 28		 jmp	 SHORT $LN1@ApplyEndSe
$LN4@ApplyEndSe:

; 220  : 	{
; 221  : 		ioBaseChar* pOwner = m_pStage->GetBaseChar( g_MyInfo.GetPublicID() );

  00081	e8 00 00 00 00	 call	 ?GetSingleton@ioMyInfo@@SAAAV1@XZ ; ioMyInfo::GetSingleton
  00086	8b 4e 04	 mov	 ecx, DWORD PTR [esi+4]
  00089	83 c0 1c	 add	 eax, 28			; 0000001cH
  0008c	50		 push	 eax
  0008d	e8 00 00 00 00	 call	 ?GetBaseChar@ioPlayStage@@QAEPAVioBaseChar@@ABVioHashString@@@Z ; ioPlayStage::GetBaseChar

; 222  : 		if( pOwner && pOwner->GetState() == CS_CONSTRUCT_HOUSE )

  00092	3b c3		 cmp	 eax, ebx
  00094	74 13		 je	 SHORT $LN1@ApplyEndSe
  00096	80 b8 10 03 00
	00 9b		 cmp	 BYTE PTR [eax+784], 155	; 0000009bH
  0009d	75 0a		 jne	 SHORT $LN1@ApplyEndSe

; 223  : 		{
; 224  : 			pOwner->SetState( CS_DELAY );

  0009f	6a 01		 push	 1
  000a1	53		 push	 ebx
  000a2	8b c8		 mov	 ecx, eax
  000a4	e8 00 00 00 00	 call	 ?SetState@ioBaseChar@@QAEXH_N@Z ; ioBaseChar::SetState
$LN1@ApplyEndSe:

; 225  : 		}
; 226  : 	}
; 227  : }

  000a9	5f		 pop	 edi
  000aa	5e		 pop	 esi
  000ab	5b		 pop	 ebx
  000ac	c3		 ret	 0
?ApplyEndSetUpState@ioBlockSetupManager@@QAEXXZ ENDP	; ioBlockSetupManager::ApplyEndSetUpState
_TEXT	ENDS
PUBLIC	??_C@_0CC@DDABNDFJ@ioBlockSetupManager?3?3OnSetUpStat@ ; `string'
PUBLIC	??_C@_00CNPNBAHC@?$AA@				; `string'
PUBLIC	?OnSetUpState@ioBlockSetupManager@@QAEXAAVSP2Packet@@@Z ; ioBlockSetupManager::OnSetUpState
EXTRN	__imp_??1ioHashString@@QAE@XZ:PROC
EXTRN	__imp_?Clear@ioHashString@@QAEXXZ:PROC
EXTRN	__imp_??4ioHashString@@QAEAAV0@ABV0@@Z:PROC
EXTRN	??5SP2Packet@@QAEAAV0@AAVioHashString@@@Z:PROC	; SP2Packet::operator>>
EXTRN	__imp_??0ioHashString@@QAE@XZ:PROC
EXTRN	?SetMsgBox@ioSP2GUIManager@@QAAXHPAVioWnd@@PBDZZ:PROC ; ioSP2GUIManager::SetMsgBox
EXTRN	__imp_?GetString@ioStringManager@@QAEPADPBD0HW4FileNamePrefix@1@@Z:PROC
EXTRN	__imp_?GetSingleton@ioStringManager@@SAAAV1@XZ:PROC
EXTRN	??5SP2Packet@@QAEAAV0@AAE@Z:PROC		; SP2Packet::operator>>
EXTRN	__EH_epilog3:PROC
EXTRN	__EH_prolog3:PROC
;	COMDAT ??_C@_0CC@DDABNDFJ@ioBlockSetupManager?3?3OnSetUpStat@
CONST	SEGMENT
??_C@_0CC@DDABNDFJ@ioBlockSetupManager?3?3OnSetUpStat@ DB 'ioBlockSetupMa'
	DB	'nager::OnSetUpState', 00H			; `string'
CONST	ENDS
;	COMDAT ??_C@_00CNPNBAHC@?$AA@
CONST	SEGMENT
??_C@_00CNPNBAHC@?$AA@ DB 00H				; `string'
CONST	ENDS
;	COMDAT xdata$x
xdata$x	SEGMENT
__unwindtable$?OnSetUpState@ioBlockSetupManager@@QAEXAAVSP2Packet@@@Z DD 0ffffffffH
	DD	FLAT:__unwindfunclet$?OnSetUpState@ioBlockSetupManager@@QAEXAAVSP2Packet@@@Z$0
__ehfuncinfo$?OnSetUpState@ioBlockSetupManager@@QAEXAAVSP2Packet@@@Z DD 019930522H
	DD	01H
	DD	FLAT:__unwindtable$?OnSetUpState@ioBlockSetupManager@@QAEXAAVSP2Packet@@@Z
	DD	2 DUP(00H)
	DD	2 DUP(00H)
	DD	00H
	DD	01H
; Function compile flags: /Ogsp
xdata$x	ENDS
;	COMDAT ?OnSetUpState@ioBlockSetupManager@@QAEXAAVSP2Packet@@@Z
_TEXT	SEGMENT
_szName$536870 = -36					; size = 16
_pChar$536871 = -20					; size = 4
_eResult$ = -14						; size = 1
_eModeType$ = -13					; size = 1
__$EHRec$ = -12						; size = 12
_rkPacket$ = 8						; size = 4
_eType$536869 = 11					; size = 1
?OnSetUpState@ioBlockSetupManager@@QAEXAAVSP2Packet@@@Z PROC ; ioBlockSetupManager::OnSetUpState, COMDAT
; _this$ = ecx

; 301  : {

  00000	6a 18		 push	 24			; 00000018H
  00002	b8 00 00 00 00	 mov	 eax, __ehhandler$?OnSetUpState@ioBlockSetupManager@@QAEXAAVSP2Packet@@@Z
  00007	e8 00 00 00 00	 call	 __EH_prolog3
  0000c	8b f1		 mov	 esi, ecx

; 302  : 	TCPNetwork::MouseBusy( false );

  0000e	33 db		 xor	 ebx, ebx
  00010	53		 push	 ebx
  00011	e8 00 00 00 00	 call	 ?MouseBusy@TCPNetwork@@YAX_N@Z ; TCPNetwork::MouseBusy

; 303  : 
; 304  : 	byte eModeType;
; 305  : 	rkPacket >> eModeType;

  00016	8b 7d 08	 mov	 edi, DWORD PTR _rkPacket$[ebp]
  00019	59		 pop	 ecx
  0001a	8d 45 f3	 lea	 eax, DWORD PTR _eModeType$[ebp]
  0001d	50		 push	 eax
  0001e	8b cf		 mov	 ecx, edi
  00020	e8 00 00 00 00	 call	 ??5SP2Packet@@QAEAAV0@AAE@Z ; SP2Packet::operator>>

; 306  : 
; 307  : 	byte eResult;
; 308  : 	rkPacket >> eResult;

  00025	8d 45 f2	 lea	 eax, DWORD PTR _eResult$[ebp]
  00028	50		 push	 eax
  00029	8b cf		 mov	 ecx, edi
  0002b	e8 00 00 00 00	 call	 ??5SP2Packet@@QAEAAV0@AAE@Z ; SP2Packet::operator>>

; 309  : 
; 310  : 	switch( eResult )

  00030	0f b6 45 f2	 movzx	 eax, BYTE PTR _eResult$[ebp]
  00034	2b c3		 sub	 eax, ebx
  00036	74 68		 je	 SHORT $LN19@OnSetUpSta
  00038	48		 dec	 eax
  00039	74 27		 je	 SHORT $LN12@OnSetUpSta
  0003b	48		 dec	 eax
  0003c	74 0c		 je	 SHORT $LN7@OnSetUpSta
  0003e	48		 dec	 eax
  0003f	0f 85 d5 00 00
	00		 jne	 $LN20@OnSetUpSta

; 376  : 	case CONSTRUCT_MODE_EXCEPTION:
; 377  : 		{
; 378  : 			g_GUIMgr.SetMsgBox( MB_OK, NULL, STR(6) );

  00045	53		 push	 ebx
  00046	6a 06		 push	 6

; 379  : 			ApplyEndSetUpState();
; 380  : 		}
; 381  : 		break;

  00048	eb 24		 jmp	 SHORT $LN27@OnSetUpSta
$LN7@OnSetUpSta:

; 359  : 	case CONSTRUCT_AUTH_NONE:
; 360  : 		{
; 361  : 			switch( eModeType )

  0004a	0f b6 45 f3	 movzx	 eax, BYTE PTR _eModeType$[ebp]
  0004e	2b c3		 sub	 eax, ebx

; 369  : 			default:
; 370  : 				g_GUIMgr.SetMsgBox( MB_OK, NULL, STR(5) );

  00050	53		 push	 ebx
  00051	74 0b		 je	 SHORT $LN4@OnSetUpSta

; 359  : 	case CONSTRUCT_AUTH_NONE:
; 360  : 		{
; 361  : 			switch( eModeType )

  00053	48		 dec	 eax
  00054	74 04		 je	 SHORT $LN3@OnSetUpSta

; 369  : 			default:
; 370  : 				g_GUIMgr.SetMsgBox( MB_OK, NULL, STR(5) );

  00056	6a 05		 push	 5

; 371  : 				break;

  00058	eb 14		 jmp	 SHORT $LN27@OnSetUpSta
$LN3@OnSetUpSta:

; 365  : 				break;
; 366  : 			case BMT_PERSONAL:
; 367  : 				g_GUIMgr.SetMsgBox( MB_OK, NULL, STR(4) );

  0005a	6a 04		 push	 4

; 368  : 				break;

  0005c	eb 10		 jmp	 SHORT $LN27@OnSetUpSta
$LN4@OnSetUpSta:

; 362  : 			{
; 363  : 			case BMT_GUILD:
; 364  : 				g_GUIMgr.SetMsgBox( MB_OK, NULL, STR(3) );

  0005e	6a 03		 push	 3

; 372  : 			}
; 373  : 			ApplyEndSetUpState();
; 374  : 		}
; 375  : 		break;

  00060	eb 0c		 jmp	 SHORT $LN27@OnSetUpSta
$LN12@OnSetUpSta:

; 351  : 				break;
; 352  : 			default:
; 353  : 				g_GUIMgr.SetMsgBox( MB_OK, NULL, STR(2) );

  00062	53		 push	 ebx
  00063	38 5d f3	 cmp	 BYTE PTR _eModeType$[ebp], bl
  00066	74 04		 je	 SHORT $LN9@OnSetUpSta
  00068	6a 02		 push	 2

; 354  : 				break;

  0006a	eb 02		 jmp	 SHORT $LN27@OnSetUpSta
$LN9@OnSetUpSta:

; 344  : 		break;
; 345  : 	case CONSTRUCT_PROGRESSING:
; 346  : 		{
; 347  : 			switch( eModeType )
; 348  : 			{
; 349  : 			case BMT_GUILD:
; 350  : 				g_GUIMgr.SetMsgBox( MB_OK, NULL, STR(1) );

  0006c	6a 01		 push	 1
$LN27@OnSetUpSta:
  0006e	68 00 00 00 00	 push	 OFFSET ??_C@_00CNPNBAHC@?$AA@
  00073	68 00 00 00 00	 push	 OFFSET ??_C@_0CC@DDABNDFJ@ioBlockSetupManager?3?3OnSetUpStat@
  00078	ff 15 00 00 00
	00		 call	 DWORD PTR __imp_?GetSingleton@ioStringManager@@SAAAV1@XZ
  0007e	8b c8		 mov	 ecx, eax
  00080	ff 15 00 00 00
	00		 call	 DWORD PTR __imp_?GetString@ioStringManager@@QAEPADPBD0HW4FileNamePrefix@1@@Z
  00086	50		 push	 eax
  00087	53		 push	 ebx
  00088	53		 push	 ebx
  00089	e8 00 00 00 00	 call	 ?GetSingleton@ioSP2GUIManager@@SAAAV1@XZ ; ioSP2GUIManager::GetSingleton
  0008e	50		 push	 eax
  0008f	e8 00 00 00 00	 call	 ?SetMsgBox@ioSP2GUIManager@@QAAXHPAVioWnd@@PBDZZ ; ioSP2GUIManager::SetMsgBox
  00094	83 c4 10	 add	 esp, 16			; 00000010H

; 355  : 			}
; 356  : 			ApplyEndSetUpState();

  00097	8b ce		 mov	 ecx, esi
  00099	e8 00 00 00 00	 call	 ?ApplyEndSetUpState@ioBlockSetupManager@@QAEXXZ ; ioBlockSetupManager::ApplyEndSetUpState

; 357  : 		}
; 358  : 		break;

  0009e	eb 7a		 jmp	 SHORT $LN20@OnSetUpSta
$LN19@OnSetUpSta:

; 311  : 	{
; 312  : 	case CONSTRUCT_MODE_CHANGE_SUCCESS:
; 313  : 		{
; 314  : 			byte eType;
; 315  : 			rkPacket >> eType;

  000a0	8d 45 0b	 lea	 eax, DWORD PTR _eType$536869[ebp]
  000a3	50		 push	 eax
  000a4	8b cf		 mov	 ecx, edi
  000a6	e8 00 00 00 00	 call	 ??5SP2Packet@@QAEAAV0@AAE@Z ; SP2Packet::operator>>

; 316  : 
; 317  : 			ioHashString szName;

  000ab	8d 4d dc	 lea	 ecx, DWORD PTR _szName$536870[ebp]
  000ae	ff 15 00 00 00
	00		 call	 DWORD PTR __imp_??0ioHashString@@QAE@XZ

; 318  : 			rkPacket >> szName;

  000b4	8d 45 dc	 lea	 eax, DWORD PTR _szName$536870[ebp]
  000b7	50		 push	 eax
  000b8	8b cf		 mov	 ecx, edi
  000ba	89 5d fc	 mov	 DWORD PTR __$EHRec$[ebp+8], ebx
  000bd	e8 00 00 00 00	 call	 ??5SP2Packet@@QAEAAV0@AAVioHashString@@@Z ; SP2Packet::operator>>

; 319  : 
; 320  : 			ioBaseChar* pChar = NULL;
; 321  : 			if( m_pStage )

  000c2	8b 4e 04	 mov	 ecx, DWORD PTR [esi+4]
  000c5	89 5d ec	 mov	 DWORD PTR _pChar$536871[ebp], ebx
  000c8	3b cb		 cmp	 ecx, ebx
  000ca	74 0c		 je	 SHORT $LN18@OnSetUpSta

; 322  : 				pChar = m_pStage->GetBaseChar( szName );

  000cc	8d 45 dc	 lea	 eax, DWORD PTR _szName$536870[ebp]
  000cf	50		 push	 eax
  000d0	e8 00 00 00 00	 call	 ?GetBaseChar@ioPlayStage@@QAEPAVioBaseChar@@ABVioHashString@@@Z ; ioPlayStage::GetBaseChar
  000d5	89 45 ec	 mov	 DWORD PTR _pChar$536871[ebp], eax
$LN18@OnSetUpSta:

; 323  : 
; 324  : 			m_SetUpAdminUser = szName;

  000d8	8d 45 dc	 lea	 eax, DWORD PTR _szName$536870[ebp]
  000db	50		 push	 eax
  000dc	8d 4e 20	 lea	 ecx, DWORD PTR [esi+32]
  000df	ff 15 00 00 00
	00		 call	 DWORD PTR __imp_??4ioHashString@@QAEAAV0@ABV0@@Z

; 325  : 
; 326  : 			if( pChar )

  000e5	39 5d ec	 cmp	 DWORD PTR _pChar$536871[ebp], ebx
  000e8	74 23		 je	 SHORT $LN15@OnSetUpSta

; 327  : 			{
; 328  : 				switch( eType )

  000ea	0f b6 45 0b	 movzx	 eax, BYTE PTR _eType$536869[ebp]
  000ee	48		 dec	 eax
  000ef	74 15		 je	 SHORT $LN14@OnSetUpSta
  000f1	48		 dec	 eax
  000f2	75 19		 jne	 SHORT $LN15@OnSetUpSta

; 333  : 					}
; 334  : 					break;
; 335  : 				case CONSTRUCT_OFF:
; 336  : 					{
; 337  : 						ApplyEndSetUpState();

  000f4	8b ce		 mov	 ecx, esi
  000f6	e8 00 00 00 00	 call	 ?ApplyEndSetUpState@ioBlockSetupManager@@QAEXXZ ; ioBlockSetupManager::ApplyEndSetUpState

; 338  : 						m_SetUpAdminUser.Clear();

  000fb	8d 4e 20	 lea	 ecx, DWORD PTR [esi+32]
  000fe	ff 15 00 00 00
	00		 call	 DWORD PTR __imp_?Clear@ioHashString@@QAEXXZ

; 339  : 					}
; 340  : 					break;

  00104	eb 07		 jmp	 SHORT $LN15@OnSetUpSta
$LN14@OnSetUpSta:

; 329  : 				{
; 330  : 				case CONSTRUCT_ON:
; 331  : 					{
; 332  : 						ApplySetUpState();

  00106	8b ce		 mov	 ecx, esi
  00108	e8 00 00 00 00	 call	 ?ApplySetUpState@ioBlockSetupManager@@QAEXXZ ; ioBlockSetupManager::ApplySetUpState
$LN15@OnSetUpSta:

; 341  : 				}
; 342  : 			}
; 343  : 		}

  0010d	83 4d fc ff	 or	 DWORD PTR __$EHRec$[ebp+8], -1
  00111	8d 4d dc	 lea	 ecx, DWORD PTR _szName$536870[ebp]
  00114	ff 15 00 00 00
	00		 call	 DWORD PTR __imp_??1ioHashString@@QAE@XZ
$LN20@OnSetUpSta:

; 382  : 	}
; 383  : }

  0011a	e8 00 00 00 00	 call	 __EH_epilog3
  0011f	c2 04 00	 ret	 4
_TEXT	ENDS
;	COMDAT text$x
text$x	SEGMENT
__unwindfunclet$?OnSetUpState@ioBlockSetupManager@@QAEXAAVSP2Packet@@@Z$0:
  00000	8d 4d dc	 lea	 ecx, DWORD PTR _szName$536870[ebp]
  00003	ff 25 00 00 00
	00		 jmp	 DWORD PTR __imp_??1ioHashString@@QAE@XZ
__ehhandler$?OnSetUpState@ioBlockSetupManager@@QAEXAAVSP2Packet@@@Z:
  00009	8b 54 24 08	 mov	 edx, DWORD PTR [esp+8]
  0000d	8d 42 0c	 lea	 eax, DWORD PTR [edx+12]
  00010	8b 4a d8	 mov	 ecx, DWORD PTR [edx-40]
  00013	33 c8		 xor	 ecx, eax
  00015	e8 00 00 00 00	 call	 @__security_check_cookie@4
  0001a	b8 00 00 00 00	 mov	 eax, OFFSET __ehfuncinfo$?OnSetUpState@ioBlockSetupManager@@QAEXAAVSP2Packet@@@Z
  0001f	e9 00 00 00 00	 jmp	 ___CxxFrameHandler3
text$x	ENDS
?OnSetUpState@ioBlockSetupManager@@QAEXAAVSP2Packet@@@Z ENDP ; ioBlockSetupManager::OnSetUpState
PUBLIC	??_C@_0CC@MMCODBGM@ioBlockSetupManager?3?3OnSetUpBloc@ ; `string'
PUBLIC	?OnSetUpBlock@ioBlockSetupManager@@QAEXAAVSP2Packet@@@Z ; ioBlockSetupManager::OnSetUpBlock
EXTRN	?DecreaseItem@ioUserBlockStorage@@QAEXH@Z:PROC	; ioUserBlockStorage::DecreaseItem
EXTRN	?GetSingleton@ioApplication@@SAAAV1@XZ:PROC	; ioApplication::GetSingleton
EXTRN	?CreateBlock@ioBlockWorld@@QAEXHABVTilePos@@M_J@Z:PROC ; ioBlockWorld::CreateBlock
EXTRN	??5SP2Packet@@QAEAAV0@AAH@Z:PROC		; SP2Packet::operator>>
EXTRN	??5SP2Packet@@QAEAAV0@AAK@Z:PROC		; SP2Packet::operator>>
EXTRN	??5SP2Packet@@QAEAAV0@AA_J@Z:PROC		; SP2Packet::operator>>
EXTRN	__fltused:DWORD
;	COMDAT ??_C@_0CC@MMCODBGM@ioBlockSetupManager?3?3OnSetUpBloc@
; File d:\lost saga for developer\youtube\tutorial\source\src\lsclient\iobasechar.h
CONST	SEGMENT
??_C@_0CC@MMCODBGM@ioBlockSetupManager?3?3OnSetUpBloc@ DB 'ioBlockSetupMa'
	DB	'nager::OnSetUpBlock', 00H			; `string'
CONST	ENDS
;	COMDAT xdata$x
xdata$x	SEGMENT
__unwindtable$?OnSetUpBlock@ioBlockSetupManager@@QAEXAAVSP2Packet@@@Z DD 0ffffffffH
	DD	FLAT:__unwindfunclet$?OnSetUpBlock@ioBlockSetupManager@@QAEXAAVSP2Packet@@@Z$0
__ehfuncinfo$?OnSetUpBlock@ioBlockSetupManager@@QAEXAAVSP2Packet@@@Z DD 019930522H
	DD	01H
	DD	FLAT:__unwindtable$?OnSetUpBlock@ioBlockSetupManager@@QAEXAAVSP2Packet@@@Z
	DD	2 DUP(00H)
	DD	2 DUP(00H)
	DD	00H
	DD	01H
; Function compile flags: /Ogsp
; File d:\lost saga for developer\youtube\tutorial\source\src\lsclient\housing\ioblocksetupmanager.cpp
xdata$x	ENDS
;	COMDAT ?OnSetUpBlock@ioBlockSetupManager@@QAEXAAVSP2Packet@@@Z
_TEXT	SEGMENT
_szName$536908 = -72					; size = 16
_Pos$536918 = -56					; size = 16
_nUniqueID$536909 = -40					; size = 8
_nLevel$536912 = -32					; size = 4
_this$ = -28						; size = 4
_dwCode$536910 = -24					; size = 4
_nPos$536911 = -20					; size = 4
_eModeType$ = -14					; size = 1
_eRes$ = -13						; size = 1
__$EHRec$ = -12						; size = 12
_rkPacket$ = 8						; size = 4
_Rotate$536913 = 11					; size = 1
?OnSetUpBlock@ioBlockSetupManager@@QAEXAAVSP2Packet@@@Z PROC ; ioBlockSetupManager::OnSetUpBlock, COMDAT
; _this$ = ecx

; 386  : {

  00000	6a 3c		 push	 60			; 0000003cH
  00002	b8 00 00 00 00	 mov	 eax, __ehhandler$?OnSetUpBlock@ioBlockSetupManager@@QAEXAAVSP2Packet@@@Z
  00007	e8 00 00 00 00	 call	 __EH_prolog3
  0000c	8b f9		 mov	 edi, ecx
  0000e	89 7d e4	 mov	 DWORD PTR _this$[ebp], edi

; 387  : 	TCPNetwork::MouseBusy( false );

  00011	33 f6		 xor	 esi, esi
  00013	56		 push	 esi
  00014	e8 00 00 00 00	 call	 ?MouseBusy@TCPNetwork@@YAX_N@Z ; TCPNetwork::MouseBusy

; 388  : 
; 389  : 	byte eModeType;
; 390  : 	rkPacket >> eModeType;

  00019	8b 5d 08	 mov	 ebx, DWORD PTR _rkPacket$[ebp]
  0001c	59		 pop	 ecx
  0001d	8d 45 f2	 lea	 eax, DWORD PTR _eModeType$[ebp]
  00020	50		 push	 eax
  00021	8b cb		 mov	 ecx, ebx
  00023	e8 00 00 00 00	 call	 ??5SP2Packet@@QAEAAV0@AAE@Z ; SP2Packet::operator>>

; 391  : 	
; 392  : 	byte eRes;
; 393  : 	rkPacket >> eRes;

  00028	8d 45 f3	 lea	 eax, DWORD PTR _eRes$[ebp]
  0002b	50		 push	 eax
  0002c	8b cb		 mov	 ecx, ebx
  0002e	e8 00 00 00 00	 call	 ??5SP2Packet@@QAEAAV0@AAE@Z ; SP2Packet::operator>>

; 394  : 
; 395  : 	switch( eRes )

  00033	0f b6 45 f3	 movzx	 eax, BYTE PTR _eRes$[ebp]
  00037	2b c6		 sub	 eax, esi
  00039	74 57		 je	 SHORT $LN16@OnSetUpBlo
  0003b	48		 dec	 eax
  0003c	74 1c		 je	 SHORT $LN4@OnSetUpBlo
  0003e	48		 dec	 eax
  0003f	74 14		 je	 SHORT $LN3@OnSetUpBlo
  00041	48		 dec	 eax
  00042	74 0c		 je	 SHORT $LN2@OnSetUpBlo
  00044	48		 dec	 eax
  00045	0f 85 af 01 00
	00		 jne	 $LN17@OnSetUpBlo

; 481  : 	case CONSTRUCT_BLOCK_MAX_COUNT:
; 482  : 		{
; 483  : 			g_GUIMgr.SetMsgBox( MB_OK, NULL, STR(5) );

  0004b	56		 push	 esi
  0004c	6a 05		 push	 5

; 484  : 			EndSetUpState();
; 485  : 		}
; 486  : 		break;

  0004e	eb 0d		 jmp	 SHORT $LN37@OnSetUpBlo
$LN2@OnSetUpBlo:

; 475  : 	case CONSTRUCT_BLOCK_EXCEPTION:
; 476  : 		{
; 477  : 			g_GUIMgr.SetMsgBox( MB_OK, NULL, STR(4) );

  00050	56		 push	 esi
  00051	6a 04		 push	 4

; 478  : 			EndSetUpState();
; 479  : 		}
; 480  : 		break;

  00053	eb 08		 jmp	 SHORT $LN37@OnSetUpBlo
$LN3@OnSetUpBlo:

; 469  : 	case CONSTRUCT_BLOCK_SHORTAGE:
; 470  : 		{
; 471  : 			g_GUIMgr.SetMsgBox( MB_OK, NULL, STR(3) );

  00055	56		 push	 esi
  00056	6a 03		 push	 3

; 472  : 			EndSetUpState();
; 473  : 		}
; 474  : 		break;

  00058	eb 03		 jmp	 SHORT $LN37@OnSetUpBlo
$LN4@OnSetUpBlo:

; 462  : 		break;
; 463  : 	case CONSTRUCT_POS_INVALID:
; 464  : 		{
; 465  : 			g_GUIMgr.SetMsgBox( MB_OK, NULL, STR(2) );

  0005a	56		 push	 esi
  0005b	6a 02		 push	 2
$LN37@OnSetUpBlo:
  0005d	68 00 00 00 00	 push	 OFFSET ??_C@_00CNPNBAHC@?$AA@
  00062	68 00 00 00 00	 push	 OFFSET ??_C@_0CC@MMCODBGM@ioBlockSetupManager?3?3OnSetUpBloc@
  00067	ff 15 00 00 00
	00		 call	 DWORD PTR __imp_?GetSingleton@ioStringManager@@SAAAV1@XZ
  0006d	8b c8		 mov	 ecx, eax
  0006f	ff 15 00 00 00
	00		 call	 DWORD PTR __imp_?GetString@ioStringManager@@QAEPADPBD0HW4FileNamePrefix@1@@Z
  00075	50		 push	 eax
  00076	56		 push	 esi
  00077	56		 push	 esi
  00078	e8 00 00 00 00	 call	 ?GetSingleton@ioSP2GUIManager@@SAAAV1@XZ ; ioSP2GUIManager::GetSingleton
  0007d	50		 push	 eax
  0007e	e8 00 00 00 00	 call	 ?SetMsgBox@ioSP2GUIManager@@QAAXHPAVioWnd@@PBDZZ ; ioSP2GUIManager::SetMsgBox
  00083	83 c4 10	 add	 esp, 16			; 00000010H

; 466  : 			EndSetUpState();

  00086	8b cf		 mov	 ecx, edi
  00088	e8 00 00 00 00	 call	 ?EndSetUpState@ioBlockSetupManager@@QAEXXZ ; ioBlockSetupManager::EndSetUpState

; 467  : 		}
; 468  : 		break;

  0008d	e9 68 01 00 00	 jmp	 $LN17@OnSetUpBlo
$LN16@OnSetUpBlo:

; 396  : 	{
; 397  : 	case CONSTRUCT_BLOCK_SUCCESS:
; 398  : 		{
; 399  : 			ioHashString szName;

  00092	8d 4d b8	 lea	 ecx, DWORD PTR _szName$536908[ebp]
  00095	ff 15 00 00 00
	00		 call	 DWORD PTR __imp_??0ioHashString@@QAE@XZ

; 400  : 			rkPacket >> szName;

  0009b	8d 45 b8	 lea	 eax, DWORD PTR _szName$536908[ebp]
  0009e	50		 push	 eax
  0009f	8b cb		 mov	 ecx, ebx
  000a1	89 75 fc	 mov	 DWORD PTR __$EHRec$[ebp+8], esi
  000a4	e8 00 00 00 00	 call	 ??5SP2Packet@@QAEAAV0@AAVioHashString@@@Z ; SP2Packet::operator>>

; 401  : 
; 402  : 			__int64 nUniqueID;
; 403  : 			rkPacket >> nUniqueID;

  000a9	8d 45 d8	 lea	 eax, DWORD PTR _nUniqueID$536909[ebp]
  000ac	50		 push	 eax
  000ad	8b cb		 mov	 ecx, ebx
  000af	e8 00 00 00 00	 call	 ??5SP2Packet@@QAEAAV0@AA_J@Z ; SP2Packet::operator>>

; 404  : 
; 405  : 			DWORD dwCode;
; 406  : 			rkPacket >> dwCode;

  000b4	8d 45 e8	 lea	 eax, DWORD PTR _dwCode$536910[ebp]
  000b7	50		 push	 eax
  000b8	8b cb		 mov	 ecx, ebx
  000ba	e8 00 00 00 00	 call	 ??5SP2Packet@@QAEAAV0@AAK@Z ; SP2Packet::operator>>

; 407  : 
; 408  : 			int nPos;
; 409  : 			rkPacket >> nPos;

  000bf	8d 45 ec	 lea	 eax, DWORD PTR _nPos$536911[ebp]
  000c2	50		 push	 eax
  000c3	8b cb		 mov	 ecx, ebx
  000c5	e8 00 00 00 00	 call	 ??5SP2Packet@@QAEAAV0@AAH@Z ; SP2Packet::operator>>

; 410  : 
; 411  : 			int nLevel;
; 412  : 			rkPacket >> nLevel;

  000ca	8d 45 e0	 lea	 eax, DWORD PTR _nLevel$536912[ebp]
  000cd	50		 push	 eax
  000ce	8b cb		 mov	 ecx, ebx
  000d0	e8 00 00 00 00	 call	 ??5SP2Packet@@QAEAAV0@AAH@Z ; SP2Packet::operator>>

; 413  : 
; 414  : 			byte Rotate;
; 415  : 			rkPacket >> Rotate;	

  000d5	8d 45 0b	 lea	 eax, DWORD PTR _Rotate$536913[ebp]
  000d8	50		 push	 eax
  000d9	8b cb		 mov	 ecx, ebx
  000db	e8 00 00 00 00	 call	 ??5SP2Packet@@QAEAAV0@AAE@Z ; SP2Packet::operator>>

; 416  : 
; 417  : 			if( nUniqueID != 0 )

  000e0	8b 45 d8	 mov	 eax, DWORD PTR _nUniqueID$536909[ebp]
  000e3	0b 45 dc	 or	 eax, DWORD PTR _nUniqueID$536909[ebp+4]
  000e6	0f 84 ce 00 00
	00		 je	 $LN15@OnSetUpBlo

; 418  : 			{				
; 419  : 				if( m_pStage )

  000ec	8b 47 04	 mov	 eax, DWORD PTR [edi+4]
  000ef	3b c6		 cmp	 eax, esi
  000f1	0f 84 f6 00 00
	00		 je	 $LN5@OnSetUpBlo

; 420  : 				{
; 421  : 					//  
; 422  : 					ioBlockWorld* pWorld = m_pStage->GetBlockWorld();

  000f7	8b 98 14 01 00
	00		 mov	 ebx, DWORD PTR [eax+276]

; 423  : 					if( pWorld )

  000fd	3b de		 cmp	 ebx, esi
  000ff	74 58		 je	 SHORT $LN13@OnSetUpBlo

; 424  : 					{
; 425  : 						TilePos Pos( nPos % g_BlockManager.GetTileMax(), nLevel, nPos / g_BlockManager.GetTileMax() );

  00101	e8 00 00 00 00	 call	 ?GetSingleton@ioBlockManager@@SAAAV1@XZ ; ioBlockManager::GetSingleton
  00106	8b 78 48	 mov	 edi, DWORD PTR [eax+72]
  00109	e8 00 00 00 00	 call	 ?GetSingleton@ioBlockManager@@SAAAV1@XZ ; ioBlockManager::GetSingleton
  0010e	8b 48 48	 mov	 ecx, DWORD PTR [eax+72]
  00111	8b 45 ec	 mov	 eax, DWORD PTR _nPos$536911[ebp]
  00114	99		 cdq
  00115	f7 ff		 idiv	 edi

; 426  : 						float fRotate = Rotate * ROTATE_VALUE;
; 427  : 
; 428  : 						pWorld->CreateBlock( dwCode, Pos, fRotate, nUniqueID );

  00117	ff 75 dc	 push	 DWORD PTR _nUniqueID$536909[ebp+4]
  0011a	0f 57 c0	 xorps	 xmm0, xmm0
  0011d	89 75 d4	 mov	 DWORD PTR _Pos$536918[ebp+12], esi
  00120	ff 75 d8	 push	 DWORD PTR _nUniqueID$536909[ebp]
  00123	51		 push	 ecx
  00124	8b f8		 mov	 edi, eax
  00126	8b 45 ec	 mov	 eax, DWORD PTR _nPos$536911[ebp]
  00129	99		 cdq
  0012a	f7 f9		 idiv	 ecx
  0012c	8b 45 e0	 mov	 eax, DWORD PTR _nLevel$536912[ebp]
  0012f	89 45 d0	 mov	 DWORD PTR _Pos$536918[ebp+8], eax
  00132	0f b6 45 0b	 movzx	 eax, BYTE PTR _Rotate$536913[ebp]
  00136	6b c0 5a	 imul	 eax, 90			; 0000005aH
  00139	f3 0f 2a c0	 cvtsi2ss xmm0, eax
  0013d	f3 0f 11 04 24	 movss	 DWORD PTR [esp], xmm0
  00142	8d 45 c8	 lea	 eax, DWORD PTR _Pos$536918[ebp]
  00145	50		 push	 eax
  00146	ff 75 e8	 push	 DWORD PTR _dwCode$536910[ebp]
  00149	8b cb		 mov	 ecx, ebx
  0014b	89 7d cc	 mov	 DWORD PTR _Pos$536918[ebp+4], edi
  0014e	89 55 c8	 mov	 DWORD PTR _Pos$536918[ebp], edx
  00151	e8 00 00 00 00	 call	 ?CreateBlock@ioBlockWorld@@QAEXHABVTilePos@@M_J@Z ; ioBlockWorld::CreateBlock
  00156	8b 7d e4	 mov	 edi, DWORD PTR _this$[ebp]
$LN13@OnSetUpBlo:

; 429  : 					}
; 430  : 					
; 431  : 					//  
; 432  : 					ioUserBlockStorage* pStorage = NULL;
; 433  : 					switch( eModeType )

  00159	0f b6 45 f2	 movzx	 eax, BYTE PTR _eModeType$[ebp]
  0015d	2b c6		 sub	 eax, esi
  0015f	74 10		 je	 SHORT $LN10@OnSetUpBlo
  00161	48		 dec	 eax
  00162	75 24		 jne	 SHORT $LN8@OnSetUpBlo

; 437  : 						break;
; 438  : 					case BMT_PERSONAL:
; 439  : 						pStorage = g_App.GetHomeStorage();

  00164	e8 00 00 00 00	 call	 ?GetSingleton@ioApplication@@SAAAV1@XZ ; ioApplication::GetSingleton
  00169	8b 88 b4 04 00
	00		 mov	 ecx, DWORD PTR [eax+1204]

; 440  : 						break;

  0016f	eb 0b		 jmp	 SHORT $LN11@OnSetUpBlo
$LN10@OnSetUpBlo:

; 434  : 					{
; 435  : 					case BMT_GUILD:
; 436  : 						pStorage = g_App.GetGuildStorage();

  00171	e8 00 00 00 00	 call	 ?GetSingleton@ioApplication@@SAAAV1@XZ ; ioApplication::GetSingleton
  00176	8b 88 b0 04 00
	00		 mov	 ecx, DWORD PTR [eax+1200]
$LN11@OnSetUpBlo:

; 441  : 					}
; 442  : 
; 443  : 					if( pStorage )					

  0017c	3b ce		 cmp	 ecx, esi
  0017e	74 08		 je	 SHORT $LN8@OnSetUpBlo

; 444  : 						pStorage->DecreaseItem( dwCode );

  00180	ff 75 e8	 push	 DWORD PTR _dwCode$536910[ebp]
  00183	e8 00 00 00 00	 call	 ?DecreaseItem@ioUserBlockStorage@@QAEXH@Z ; ioUserBlockStorage::DecreaseItem
$LN8@OnSetUpBlo:

; 445  : 
; 446  : 					//  
; 447  : 					ioBaseChar* pChar = m_pStage->GetBaseChar( szName );

  00188	8b 4f 04	 mov	 ecx, DWORD PTR [edi+4]
  0018b	8d 45 b8	 lea	 eax, DWORD PTR _szName$536908[ebp]
  0018e	50		 push	 eax
  0018f	e8 00 00 00 00	 call	 ?GetBaseChar@ioPlayStage@@QAEPAVioBaseChar@@ABVioHashString@@@Z ; ioPlayStage::GetBaseChar
  00194	8b f8		 mov	 edi, eax

; 448  : 					if( pChar )

  00196	3b fe		 cmp	 edi, esi
  00198	74 53		 je	 SHORT $LN5@OnSetUpBlo

; 449  : 					{
; 450  : 						ioConstructHouseSpecialState* pState = ToConstructHouseSpecialState( pChar->GetSpecialState() );

  0019a	ff b7 14 03 00
	00		 push	 DWORD PTR [edi+788]
  001a0	e8 00 00 00 00	 call	 ?ToConstructHouseSpecialState@@YAPAVioConstructHouseSpecialState@@PAVioSpecialStateBase@@@Z ; ToConstructHouseSpecialState
  001a5	59		 pop	 ecx

; 451  : 						if( pState )

  001a6	3b c6		 cmp	 eax, esi
  001a8	74 43		 je	 SHORT $LN5@OnSetUpBlo

; 452  : 							pState->ChangeToSetUp( pChar, m_pStage );

  001aa	8b 4d e4	 mov	 ecx, DWORD PTR _this$[ebp]
  001ad	ff 71 04	 push	 DWORD PTR [ecx+4]
  001b0	8b c8		 mov	 ecx, eax
  001b2	57		 push	 edi
  001b3	e8 00 00 00 00	 call	 ?ChangeToSetUp@ioConstructHouseSpecialState@@QAEXPAVioBaseChar@@PAVioPlayStage@@@Z ; ioConstructHouseSpecialState::ChangeToSetUp

; 453  : 					}
; 454  : 				}
; 455  : 			}
; 456  : 			else

  001b8	eb 33		 jmp	 SHORT $LN5@OnSetUpBlo
$LN15@OnSetUpBlo:

; 457  : 			{
; 458  : 				g_GUIMgr.SetMsgBox( MB_OK, NULL, STR(1) );

  001ba	56		 push	 esi
  001bb	6a 01		 push	 1
  001bd	68 00 00 00 00	 push	 OFFSET ??_C@_00CNPNBAHC@?$AA@
  001c2	68 00 00 00 00	 push	 OFFSET ??_C@_0CC@MMCODBGM@ioBlockSetupManager?3?3OnSetUpBloc@
  001c7	ff 15 00 00 00
	00		 call	 DWORD PTR __imp_?GetSingleton@ioStringManager@@SAAAV1@XZ
  001cd	8b c8		 mov	 ecx, eax
  001cf	ff 15 00 00 00
	00		 call	 DWORD PTR __imp_?GetString@ioStringManager@@QAEPADPBD0HW4FileNamePrefix@1@@Z
  001d5	50		 push	 eax
  001d6	56		 push	 esi
  001d7	56		 push	 esi
  001d8	e8 00 00 00 00	 call	 ?GetSingleton@ioSP2GUIManager@@SAAAV1@XZ ; ioSP2GUIManager::GetSingleton
  001dd	50		 push	 eax
  001de	e8 00 00 00 00	 call	 ?SetMsgBox@ioSP2GUIManager@@QAAXHPAVioWnd@@PBDZZ ; ioSP2GUIManager::SetMsgBox
  001e3	83 c4 10	 add	 esp, 16			; 00000010H

; 459  : 				EndSetUpState();

  001e6	8b cf		 mov	 ecx, edi
  001e8	e8 00 00 00 00	 call	 ?EndSetUpState@ioBlockSetupManager@@QAEXXZ ; ioBlockSetupManager::EndSetUpState
$LN5@OnSetUpBlo:

; 460  : 			}
; 461  : 		}

  001ed	83 4d fc ff	 or	 DWORD PTR __$EHRec$[ebp+8], -1
  001f1	8d 4d b8	 lea	 ecx, DWORD PTR _szName$536908[ebp]
  001f4	ff 15 00 00 00
	00		 call	 DWORD PTR __imp_??1ioHashString@@QAE@XZ
$LN17@OnSetUpBlo:

; 487  : 	}
; 488  : }

  001fa	e8 00 00 00 00	 call	 __EH_epilog3
  001ff	c2 04 00	 ret	 4
_TEXT	ENDS
;	COMDAT text$x
text$x	SEGMENT
__unwindfunclet$?OnSetUpBlock@ioBlockSetupManager@@QAEXAAVSP2Packet@@@Z$0:
  00000	8d 4d b8	 lea	 ecx, DWORD PTR _szName$536908[ebp]
  00003	ff 25 00 00 00
	00		 jmp	 DWORD PTR __imp_??1ioHashString@@QAE@XZ
__ehhandler$?OnSetUpBlock@ioBlockSetupManager@@QAEXAAVSP2Packet@@@Z:
  00009	8b 54 24 08	 mov	 edx, DWORD PTR [esp+8]
  0000d	8d 42 0c	 lea	 eax, DWORD PTR [edx+12]
  00010	8b 4a b4	 mov	 ecx, DWORD PTR [edx-76]
  00013	33 c8		 xor	 ecx, eax
  00015	e8 00 00 00 00	 call	 @__security_check_cookie@4
  0001a	b8 00 00 00 00	 mov	 eax, OFFSET __ehfuncinfo$?OnSetUpBlock@ioBlockSetupManager@@QAEXAAVSP2Packet@@@Z
  0001f	e9 00 00 00 00	 jmp	 ___CxxFrameHandler3
text$x	ENDS
?OnSetUpBlock@ioBlockSetupManager@@QAEXAAVSP2Packet@@@Z ENDP ; ioBlockSetupManager::OnSetUpBlock
PUBLIC	??_C@_0CD@MLHGODCM@ioBlockSetupManager?3?3OnRemoveBlo@ ; `string'
PUBLIC	?OnRemoveBlock@ioBlockSetupManager@@QAEXAAVSP2Packet@@@Z ; ioBlockSetupManager::OnRemoveBlock
EXTRN	?DestroyBlock@ioBlockWorld@@QAEXABVTilePos@@@Z:PROC ; ioBlockWorld::DestroyBlock
EXTRN	?UpdateInvenBlockItem@ioUserBlockStorage@@QAEXXZ:PROC ; ioUserBlockStorage::UpdateInvenBlockItem
EXTRN	?IncreaseItem@ioUserBlockStorage@@QAEXH@Z:PROC	; ioUserBlockStorage::IncreaseItem
EXTRN	?GetBlock@ioBlockManager@@QAEPAVioBlock@@_J@Z:PROC ; ioBlockManager::GetBlock
;	COMDAT ??_C@_0CD@MLHGODCM@ioBlockSetupManager?3?3OnRemoveBlo@
; File d:\lost saga for developer\youtube\tutorial\source\src\lsclient\iobasechar.h
CONST	SEGMENT
??_C@_0CD@MLHGODCM@ioBlockSetupManager?3?3OnRemoveBlo@ DB 'ioBlockSetupMa'
	DB	'nager::OnRemoveBlock', 00H			; `string'
CONST	ENDS
;	COMDAT xdata$x
xdata$x	SEGMENT
__unwindtable$?OnRemoveBlock@ioBlockSetupManager@@QAEXAAVSP2Packet@@@Z DD 0ffffffffH
	DD	FLAT:__unwindfunclet$?OnRemoveBlock@ioBlockSetupManager@@QAEXAAVSP2Packet@@@Z$0
__ehfuncinfo$?OnRemoveBlock@ioBlockSetupManager@@QAEXAAVSP2Packet@@@Z DD 019930522H
	DD	01H
	DD	FLAT:__unwindtable$?OnRemoveBlock@ioBlockSetupManager@@QAEXAAVSP2Packet@@@Z
	DD	2 DUP(00H)
	DD	2 DUP(00H)
	DD	00H
	DD	01H
; Function compile flags: /Ogsp
; File d:\lost saga for developer\youtube\tutorial\source\src\lsclient\housing\ioblocksetupmanager.cpp
xdata$x	ENDS
;	COMDAT ?OnRemoveBlock@ioBlockSetupManager@@QAEXAAVSP2Packet@@@Z
_TEXT	SEGMENT
_szName$536949 = -40					; size = 16
_nUniqueIndex$536950 = -24				; size = 8
_eModeType$ = -14					; size = 1
_eRes$ = -13						; size = 1
__$EHRec$ = -12						; size = 12
_pWorld$536954 = 8					; size = 4
_rkPacket$ = 8						; size = 4
?OnRemoveBlock@ioBlockSetupManager@@QAEXAAVSP2Packet@@@Z PROC ; ioBlockSetupManager::OnRemoveBlock, COMDAT
; _this$ = ecx

; 491  : {

  00000	6a 1c		 push	 28			; 0000001cH
  00002	b8 00 00 00 00	 mov	 eax, __ehhandler$?OnRemoveBlock@ioBlockSetupManager@@QAEXAAVSP2Packet@@@Z
  00007	e8 00 00 00 00	 call	 __EH_prolog3
  0000c	8b f9		 mov	 edi, ecx

; 492  : 	TCPNetwork::MouseBusy( false );

  0000e	33 db		 xor	 ebx, ebx
  00010	53		 push	 ebx
  00011	e8 00 00 00 00	 call	 ?MouseBusy@TCPNetwork@@YAX_N@Z ; TCPNetwork::MouseBusy

; 493  : 
; 494  : 	byte eModeType;
; 495  : 	rkPacket >> eModeType;

  00016	8b 75 08	 mov	 esi, DWORD PTR _rkPacket$[ebp]
  00019	59		 pop	 ecx
  0001a	8d 45 f2	 lea	 eax, DWORD PTR _eModeType$[ebp]
  0001d	50		 push	 eax
  0001e	8b ce		 mov	 ecx, esi
  00020	e8 00 00 00 00	 call	 ??5SP2Packet@@QAEAAV0@AAE@Z ; SP2Packet::operator>>

; 496  : 
; 497  : 	byte eRes;
; 498  : 	rkPacket >> eRes;

  00025	8d 45 f3	 lea	 eax, DWORD PTR _eRes$[ebp]
  00028	50		 push	 eax
  00029	8b ce		 mov	 ecx, esi
  0002b	e8 00 00 00 00	 call	 ??5SP2Packet@@QAEAAV0@AAE@Z ; SP2Packet::operator>>

; 499  : 
; 500  : 	switch( eRes )

  00030	0f b6 45 f3	 movzx	 eax, BYTE PTR _eRes$[ebp]
  00034	2b c3		 sub	 eax, ebx
  00036	74 47		 je	 SHORT $LN13@OnRemoveBl
  00038	48		 dec	 eax
  00039	74 0c		 je	 SHORT $LN2@OnRemoveBl
  0003b	48		 dec	 eax
  0003c	0f 85 2b 01 00
	00		 jne	 $LN14@OnRemoveBl

; 557  : 	case RETRIEVE_BLOCK_EXCEPTION:
; 558  : 		{
; 559  : 			g_GUIMgr.SetMsgBox( MB_OK, NULL, STR(2) );

  00042	53		 push	 ebx
  00043	6a 02		 push	 2

; 560  : 			EndSetUpState();
; 561  : 		}
; 562  : 		break;

  00045	eb 03		 jmp	 SHORT $LN33@OnRemoveBl
$LN2@OnRemoveBl:

; 550  : 		break;
; 551  : 	case RETRIEVE_BLOCK_NONE_INFO:
; 552  : 		{
; 553  : 			g_GUIMgr.SetMsgBox( MB_OK, NULL, STR(1) );

  00047	53		 push	 ebx
  00048	6a 01		 push	 1
$LN33@OnRemoveBl:
  0004a	68 00 00 00 00	 push	 OFFSET ??_C@_00CNPNBAHC@?$AA@
  0004f	68 00 00 00 00	 push	 OFFSET ??_C@_0CD@MLHGODCM@ioBlockSetupManager?3?3OnRemoveBlo@
  00054	ff 15 00 00 00
	00		 call	 DWORD PTR __imp_?GetSingleton@ioStringManager@@SAAAV1@XZ
  0005a	8b c8		 mov	 ecx, eax
  0005c	ff 15 00 00 00
	00		 call	 DWORD PTR __imp_?GetString@ioStringManager@@QAEPADPBD0HW4FileNamePrefix@1@@Z
  00062	50		 push	 eax
  00063	53		 push	 ebx
  00064	53		 push	 ebx
  00065	e8 00 00 00 00	 call	 ?GetSingleton@ioSP2GUIManager@@SAAAV1@XZ ; ioSP2GUIManager::GetSingleton
  0006a	50		 push	 eax
  0006b	e8 00 00 00 00	 call	 ?SetMsgBox@ioSP2GUIManager@@QAAXHPAVioWnd@@PBDZZ ; ioSP2GUIManager::SetMsgBox
  00070	83 c4 10	 add	 esp, 16			; 00000010H

; 554  : 			EndSetUpState();

  00073	8b cf		 mov	 ecx, edi
  00075	e8 00 00 00 00	 call	 ?EndSetUpState@ioBlockSetupManager@@QAEXXZ ; ioBlockSetupManager::EndSetUpState

; 555  : 		}
; 556  : 		break;

  0007a	e9 ee 00 00 00	 jmp	 $LN14@OnRemoveBl
$LN13@OnRemoveBl:

; 501  : 	{
; 502  : 	case RETRIEVE_BLOCK_SUCCESS:
; 503  : 		{
; 504  : 			ioHashString szName;

  0007f	8d 4d d8	 lea	 ecx, DWORD PTR _szName$536949[ebp]
  00082	ff 15 00 00 00
	00		 call	 DWORD PTR __imp_??0ioHashString@@QAE@XZ

; 505  : 			rkPacket>> szName;

  00088	8d 45 d8	 lea	 eax, DWORD PTR _szName$536949[ebp]
  0008b	50		 push	 eax
  0008c	8b ce		 mov	 ecx, esi
  0008e	89 5d fc	 mov	 DWORD PTR __$EHRec$[ebp+8], ebx
  00091	e8 00 00 00 00	 call	 ??5SP2Packet@@QAEAAV0@AAVioHashString@@@Z ; SP2Packet::operator>>

; 506  : 
; 507  : 			__int64 nUniqueIndex;
; 508  : 			rkPacket >> nUniqueIndex;

  00096	8d 45 e8	 lea	 eax, DWORD PTR _nUniqueIndex$536950[ebp]
  00099	50		 push	 eax
  0009a	8b ce		 mov	 ecx, esi
  0009c	e8 00 00 00 00	 call	 ??5SP2Packet@@QAEAAV0@AA_J@Z ; SP2Packet::operator>>

; 509  : 
; 510  : 			ioBaseChar* pChar = NULL;
; 511  : 			if( m_pStage )

  000a1	39 5f 04	 cmp	 DWORD PTR [edi+4], ebx
  000a4	0f 84 b6 00 00
	00		 je	 $LN3@OnRemoveBl

; 512  : 			{
; 513  : 				ioBlock* pBlock = g_BlockManager.GetBlock( nUniqueIndex );

  000aa	ff 75 ec	 push	 DWORD PTR _nUniqueIndex$536950[ebp+4]
  000ad	ff 75 e8	 push	 DWORD PTR _nUniqueIndex$536950[ebp]
  000b0	e8 00 00 00 00	 call	 ?GetSingleton@ioBlockManager@@SAAAV1@XZ ; ioBlockManager::GetSingleton
  000b5	8b c8		 mov	 ecx, eax
  000b7	e8 00 00 00 00	 call	 ?GetBlock@ioBlockManager@@QAEPAVioBlock@@_J@Z ; ioBlockManager::GetBlock
  000bc	8b f0		 mov	 esi, eax

; 514  : 				ioBlockWorld* pWorld = m_pStage->GetBlockWorld();

  000be	8b 47 04	 mov	 eax, DWORD PTR [edi+4]
  000c1	8b 80 14 01 00
	00		 mov	 eax, DWORD PTR [eax+276]
  000c7	89 45 08	 mov	 DWORD PTR _pWorld$536954[ebp], eax

; 515  : 				if( pWorld && pBlock )

  000ca	3b c3		 cmp	 eax, ebx
  000cc	74 65		 je	 SHORT $LN11@OnRemoveBl
  000ce	3b f3		 cmp	 esi, ebx
  000d0	74 61		 je	 SHORT $LN11@OnRemoveBl

; 516  : 				{					
; 517  : 					//  
; 518  : 					if( pBlock->GetProperty() )

  000d2	8b 06		 mov	 eax, DWORD PTR [esi]
  000d4	8b ce		 mov	 ecx, esi
  000d6	ff 90 e4 00 00
	00		 call	 DWORD PTR [eax+228]
  000dc	85 c0		 test	 eax, eax
  000de	74 44		 je	 SHORT $LN5@OnRemoveBl

; 519  : 					{
; 520  : 						ioUserBlockStorage* pStorage = NULL;
; 521  : 						switch( eModeType )

  000e0	0f b6 45 f2	 movzx	 eax, BYTE PTR _eModeType$[ebp]
  000e4	2b c3		 sub	 eax, ebx
  000e6	74 10		 je	 SHORT $LN7@OnRemoveBl
  000e8	48		 dec	 eax
  000e9	75 39		 jne	 SHORT $LN5@OnRemoveBl

; 525  : 							break;
; 526  : 						case BMT_PERSONAL:
; 527  : 							pStorage = g_App.GetHomeStorage();

  000eb	e8 00 00 00 00	 call	 ?GetSingleton@ioApplication@@SAAAV1@XZ ; ioApplication::GetSingleton
  000f0	8b 98 b4 04 00
	00		 mov	 ebx, DWORD PTR [eax+1204]

; 528  : 							break;

  000f6	eb 0b		 jmp	 SHORT $LN8@OnRemoveBl
$LN7@OnRemoveBl:

; 522  : 						{
; 523  : 						case BMT_GUILD:
; 524  : 							pStorage = g_App.GetGuildStorage();

  000f8	e8 00 00 00 00	 call	 ?GetSingleton@ioApplication@@SAAAV1@XZ ; ioApplication::GetSingleton
  000fd	8b 98 b0 04 00
	00		 mov	 ebx, DWORD PTR [eax+1200]
$LN8@OnRemoveBl:

; 529  : 						}
; 530  : 
; 531  : 						if( pStorage )

  00103	85 db		 test	 ebx, ebx
  00105	74 1b		 je	 SHORT $LN31@OnRemoveBl

; 532  : 						{
; 533  : 							pStorage->IncreaseItem( pBlock->GetProperty()->GetCode() );

  00107	8b 06		 mov	 eax, DWORD PTR [esi]
  00109	8b ce		 mov	 ecx, esi
  0010b	ff 90 e4 00 00
	00		 call	 DWORD PTR [eax+228]
  00111	ff 70 04	 push	 DWORD PTR [eax+4]
  00114	8b cb		 mov	 ecx, ebx
  00116	e8 00 00 00 00	 call	 ?IncreaseItem@ioUserBlockStorage@@QAEXH@Z ; ioUserBlockStorage::IncreaseItem

; 534  : 							pStorage->UpdateInvenBlockItem();

  0011b	8b cb		 mov	 ecx, ebx
  0011d	e8 00 00 00 00	 call	 ?UpdateInvenBlockItem@ioUserBlockStorage@@QAEXXZ ; ioUserBlockStorage::UpdateInvenBlockItem
$LN31@OnRemoveBl:
  00122	33 db		 xor	 ebx, ebx
$LN5@OnRemoveBl:

; 535  : 						}
; 536  : 					}
; 537  : 
; 538  : 					pWorld->DestroyBlock( pBlock->GetTilePos() );

  00124	8b 4d 08	 mov	 ecx, DWORD PTR _pWorld$536954[ebp]
  00127	81 c6 d4 01 00
	00		 add	 esi, 468		; 000001d4H
  0012d	56		 push	 esi
  0012e	e8 00 00 00 00	 call	 ?DestroyBlock@ioBlockWorld@@QAEXABVTilePos@@@Z ; ioBlockWorld::DestroyBlock
$LN11@OnRemoveBl:

; 539  : 				}
; 540  : 
; 541  : 				pChar = m_pStage->GetBaseChar( szName );

  00133	8b 4f 04	 mov	 ecx, DWORD PTR [edi+4]
  00136	8d 45 d8	 lea	 eax, DWORD PTR _szName$536949[ebp]
  00139	50		 push	 eax
  0013a	e8 00 00 00 00	 call	 ?GetBaseChar@ioPlayStage@@QAEPAVioBaseChar@@ABVioHashString@@@Z ; ioPlayStage::GetBaseChar
  0013f	8b f0		 mov	 esi, eax

; 542  : 				if( pChar )

  00141	3b f3		 cmp	 esi, ebx
  00143	74 1b		 je	 SHORT $LN3@OnRemoveBl

; 543  : 				{
; 544  : 					ioConstructHouseSpecialState* pState = ToConstructHouseSpecialState( pChar->GetSpecialState() );

  00145	ff b6 14 03 00
	00		 push	 DWORD PTR [esi+788]
  0014b	e8 00 00 00 00	 call	 ?ToConstructHouseSpecialState@@YAPAVioConstructHouseSpecialState@@PAVioSpecialStateBase@@@Z ; ToConstructHouseSpecialState
  00150	59		 pop	 ecx

; 545  : 					if( pState )

  00151	3b c3		 cmp	 eax, ebx
  00153	74 0b		 je	 SHORT $LN3@OnRemoveBl

; 546  : 						pState->ChangeToRemove( pChar, m_pStage );

  00155	ff 77 04	 push	 DWORD PTR [edi+4]
  00158	8b c8		 mov	 ecx, eax
  0015a	56		 push	 esi
  0015b	e8 00 00 00 00	 call	 ?ChangeToRemove@ioConstructHouseSpecialState@@QAEXPAVioBaseChar@@PAVioPlayStage@@@Z ; ioConstructHouseSpecialState::ChangeToRemove
$LN3@OnRemoveBl:

; 547  : 				}
; 548  : 			}
; 549  : 		}

  00160	83 4d fc ff	 or	 DWORD PTR __$EHRec$[ebp+8], -1
  00164	8d 4d d8	 lea	 ecx, DWORD PTR _szName$536949[ebp]
  00167	ff 15 00 00 00
	00		 call	 DWORD PTR __imp_??1ioHashString@@QAE@XZ
$LN14@OnRemoveBl:

; 563  : 	}
; 564  : }

  0016d	e8 00 00 00 00	 call	 __EH_epilog3
  00172	c2 04 00	 ret	 4
_TEXT	ENDS
;	COMDAT text$x
text$x	SEGMENT
__unwindfunclet$?OnRemoveBlock@ioBlockSetupManager@@QAEXAAVSP2Packet@@@Z$0:
  00000	8d 4d d8	 lea	 ecx, DWORD PTR _szName$536949[ebp]
  00003	ff 25 00 00 00
	00		 jmp	 DWORD PTR __imp_??1ioHashString@@QAE@XZ
__ehhandler$?OnRemoveBlock@ioBlockSetupManager@@QAEXAAVSP2Packet@@@Z:
  00009	8b 54 24 08	 mov	 edx, DWORD PTR [esp+8]
  0000d	8d 42 0c	 lea	 eax, DWORD PTR [edx+12]
  00010	8b 4a d4	 mov	 ecx, DWORD PTR [edx-44]
  00013	33 c8		 xor	 ecx, eax
  00015	e8 00 00 00 00	 call	 @__security_check_cookie@4
  0001a	b8 00 00 00 00	 mov	 eax, OFFSET __ehfuncinfo$?OnRemoveBlock@ioBlockSetupManager@@QAEXAAVSP2Packet@@@Z
  0001f	e9 00 00 00 00	 jmp	 ___CxxFrameHandler3
text$x	ENDS
?OnRemoveBlock@ioBlockSetupManager@@QAEXAAVSP2Packet@@@Z ENDP ; ioBlockSetupManager::OnRemoveBlock
PUBLIC	??0?$_Vector_val@USetupBlockItemInfo@@V?$allocator@USetupBlockItemInfo@@@std@@@std@@QAE@V?$allocator@USetupBlockItemInfo@@@1@@Z ; std::_Vector_val<SetupBlockItemInfo,std::allocator<SetupBlockItemInfo> >::_Vector_val<SetupBlockItemInfo,std::allocator<SetupBlockItemInfo> >
; Function compile flags: /Ogsp
; File c:\program files (x86)\microsoft visual studio 10.0\vc\include\vector
;	COMDAT ??0?$_Vector_val@USetupBlockItemInfo@@V?$allocator@USetupBlockItemInfo@@@std@@@std@@QAE@V?$allocator@USetupBlockItemInfo@@@1@@Z
_TEXT	SEGMENT
__Al$ = 8						; size = 1
??0?$_Vector_val@USetupBlockItemInfo@@V?$allocator@USetupBlockItemInfo@@@std@@@std@@QAE@V?$allocator@USetupBlockItemInfo@@@1@@Z PROC ; std::_Vector_val<SetupBlockItemInfo,std::allocator<SetupBlockItemInfo> >::_Vector_val<SetupBlockItemInfo,std::allocator<SetupBlockItemInfo> >, COMDAT
; _this$ = ecx

; 426  : 		{	// construct allocator from _Al

  00000	8b c1		 mov	 eax, ecx

; 427  : 		_Myfirst = 0;

  00002	33 c9		 xor	 ecx, ecx
  00004	89 08		 mov	 DWORD PTR [eax], ecx

; 428  : 		_Mylast = 0;

  00006	89 48 04	 mov	 DWORD PTR [eax+4], ecx

; 429  : 		_Myend = 0;

  00009	89 48 08	 mov	 DWORD PTR [eax+8], ecx

; 430  : 		}

  0000c	c2 04 00	 ret	 4
??0?$_Vector_val@USetupBlockItemInfo@@V?$allocator@USetupBlockItemInfo@@@std@@@std@@QAE@V?$allocator@USetupBlockItemInfo@@@1@@Z ENDP ; std::_Vector_val<SetupBlockItemInfo,std::allocator<SetupBlockItemInfo> >::_Vector_val<SetupBlockItemInfo,std::allocator<SetupBlockItemInfo> >
_TEXT	ENDS
PUBLIC	__$ArrayPad$
PUBLIC	??$SetTitle_e@$06@ioINILoader@@QAEXAAY06$$CBD@Z	; ioINILoader::SetTitle_e<7>
EXTRN	__imp_?SetTitle@ioINILoader@@QAEXPBD@Z:PROC
; Function compile flags: /Ogsp
; File d:\lost saga for developer\youtube\tutorial\source\src\io3dengine\ioiniloader.h
;	COMDAT ??$SetTitle_e@$06@ioINILoader@@QAEXAAY06$$CBD@Z
_TEXT	SEGMENT
__t$ = -16						; size = 7
__$ArrayPad$ = -4					; size = 4
_t$ = 8							; size = 4
??$SetTitle_e@$06@ioINILoader@@QAEXAAY06$$CBD@Z PROC	; ioINILoader::SetTitle_e<7>, COMDAT
; _this$ = ecx

; 188  : 	{

  00000	55		 push	 ebp
  00001	8b ec		 mov	 ebp, esp
  00003	83 ec 10	 sub	 esp, 16			; 00000010H
  00006	a1 00 00 00 00	 mov	 eax, DWORD PTR ___security_cookie
  0000b	33 c5		 xor	 eax, ebp
  0000d	89 45 fc	 mov	 DWORD PTR __$ArrayPad$[ebp], eax
  00010	8b 45 08	 mov	 eax, DWORD PTR _t$[ebp]

; 189  : 		_ENCSTR(t, _t);

  00013	8a 10		 mov	 dl, BYTE PTR [eax]
  00015	56		 push	 esi
  00016	8b f1		 mov	 esi, ecx
  00018	84 d2		 test	 dl, dl
  0001a	0f 84 c0 00 00
	00		 je	 $LN96@SetTitle_e
  00020	80 f2 ed	 xor	 dl, -19			; ffffffedH
  00023	88 55 f0	 mov	 BYTE PTR __t$[ebp], dl
  00026	8a 50 01	 mov	 dl, BYTE PTR [eax+1]
  00029	84 d2		 test	 dl, dl
  0002b	0f 84 a9 00 00
	00		 je	 $LN95@SetTitle_e
  00031	80 f2 ec	 xor	 dl, -20			; ffffffecH
  00034	88 55 f1	 mov	 BYTE PTR __t$[ebp+1], dl
  00037	8a 50 02	 mov	 dl, BYTE PTR [eax+2]
  0003a	84 d2		 test	 dl, dl
  0003c	0f 84 92 00 00
	00		 je	 $LN94@SetTitle_e
  00042	80 f2 eb	 xor	 dl, -21			; ffffffebH
  00045	88 55 f2	 mov	 BYTE PTR __t$[ebp+2], dl
  00048	8a 50 03	 mov	 dl, BYTE PTR [eax+3]
  0004b	84 d2		 test	 dl, dl
  0004d	74 7f		 je	 SHORT $LN93@SetTitle_e
  0004f	80 f2 ea	 xor	 dl, -22			; ffffffeaH
  00052	88 55 f3	 mov	 BYTE PTR __t$[ebp+3], dl
  00055	8a 50 04	 mov	 dl, BYTE PTR [eax+4]
  00058	84 d2		 test	 dl, dl
  0005a	74 6c		 je	 SHORT $LN92@SetTitle_e
  0005c	80 f2 ed	 xor	 dl, -19			; ffffffedH
  0005f	88 55 f4	 mov	 BYTE PTR __t$[ebp+4], dl
  00062	8a 50 05	 mov	 dl, BYTE PTR [eax+5]
  00065	84 d2		 test	 dl, dl
  00067	74 59		 je	 SHORT $LN91@SetTitle_e
  00069	80 f2 ec	 xor	 dl, -20			; ffffffecH
  0006c	80 78 06 00	 cmp	 BYTE PTR [eax+6], 0
  00070	88 55 f5	 mov	 BYTE PTR __t$[ebp+5], dl
  00073	74 6f		 je	 SHORT $LN1@SetTitle_e
  00075	8a 50 07	 mov	 dl, BYTE PTR [eax+7]
  00078	84 d2		 test	 dl, dl
  0007a	74 40		 je	 SHORT $LN89@SetTitle_e
  0007c	80 f2 ea	 xor	 dl, -22			; ffffffeaH
  0007f	88 55 f7	 mov	 BYTE PTR __t$[ebp+7], dl
  00082	8a 50 08	 mov	 dl, BYTE PTR [eax+8]
  00085	84 d2		 test	 dl, dl
  00087	74 2d		 je	 SHORT $LN88@SetTitle_e
  00089	80 f2 ed	 xor	 dl, -19			; ffffffedH
  0008c	88 55 f8	 mov	 BYTE PTR __t$[ebp+8], dl
  0008f	8a 50 09	 mov	 dl, BYTE PTR [eax+9]
  00092	84 d2		 test	 dl, dl
  00094	74 1a		 je	 SHORT $LN87@SetTitle_e
  00096	8a 40 0a	 mov	 al, BYTE PTR [eax+10]
  00099	80 f2 ec	 xor	 dl, -20			; ffffffecH
  0009c	88 55 f9	 mov	 BYTE PTR __t$[ebp+9], dl
  0009f	84 c0		 test	 al, al
  000a1	74 07		 je	 SHORT $LN86@SetTitle_e
  000a3	34 eb		 xor	 al, -21			; ffffffebH
  000a5	88 45 fa	 mov	 BYTE PTR __t$[ebp+10], al
  000a8	eb 3a		 jmp	 SHORT $LN1@SetTitle_e
$LN86@SetTitle_e:
  000aa	c6 45 fa eb	 mov	 BYTE PTR __t$[ebp+10], -21 ; ffffffebH
  000ae	eb 34		 jmp	 SHORT $LN1@SetTitle_e
$LN87@SetTitle_e:
  000b0	c6 45 f9 ec	 mov	 BYTE PTR __t$[ebp+9], -20 ; ffffffecH
  000b4	eb 2e		 jmp	 SHORT $LN1@SetTitle_e
$LN88@SetTitle_e:
  000b6	c6 45 f8 ed	 mov	 BYTE PTR __t$[ebp+8], -19 ; ffffffedH
  000ba	eb 28		 jmp	 SHORT $LN1@SetTitle_e
$LN89@SetTitle_e:
  000bc	c6 45 f7 ea	 mov	 BYTE PTR __t$[ebp+7], -22 ; ffffffeaH
  000c0	eb 22		 jmp	 SHORT $LN1@SetTitle_e
$LN91@SetTitle_e:
  000c2	c6 45 f5 ec	 mov	 BYTE PTR __t$[ebp+5], -20 ; ffffffecH
  000c6	eb 1c		 jmp	 SHORT $LN1@SetTitle_e
$LN92@SetTitle_e:
  000c8	c6 45 f4 ed	 mov	 BYTE PTR __t$[ebp+4], -19 ; ffffffedH
  000cc	eb 16		 jmp	 SHORT $LN1@SetTitle_e
$LN93@SetTitle_e:
  000ce	c6 45 f3 ea	 mov	 BYTE PTR __t$[ebp+3], -22 ; ffffffeaH
  000d2	eb 10		 jmp	 SHORT $LN1@SetTitle_e
$LN94@SetTitle_e:
  000d4	c6 45 f2 eb	 mov	 BYTE PTR __t$[ebp+2], -21 ; ffffffebH
  000d8	eb 0a		 jmp	 SHORT $LN1@SetTitle_e
$LN95@SetTitle_e:
  000da	c6 45 f1 ec	 mov	 BYTE PTR __t$[ebp+1], -20 ; ffffffecH
  000de	eb 04		 jmp	 SHORT $LN1@SetTitle_e
$LN96@SetTitle_e:
  000e0	c6 45 f0 ed	 mov	 BYTE PTR __t$[ebp], -19	; ffffffedH
$LN1@SetTitle_e:
  000e4	81 75 f0 ed ec
	eb ea		 xor	 DWORD PTR __t$[ebp], -353637139 ; eaebecedH
  000eb	6a 04		 push	 4
  000ed	c6 45 f6 00	 mov	 BYTE PTR __t$[ebp+6], 0
  000f1	58		 pop	 eax
$LL101@SetTitle_e:
  000f2	8b c8		 mov	 ecx, eax
  000f4	81 e1 03 00 00
	80		 and	 ecx, -2147483645	; 80000003H
  000fa	79 05		 jns	 SHORT $LN111@SetTitle_e
  000fc	49		 dec	 ecx
  000fd	83 c9 fc	 or	 ecx, -4			; fffffffcH
  00100	41		 inc	 ecx
$LN111@SetTitle_e:
  00101	b2 ed		 mov	 dl, -19			; ffffffedH
  00103	2a d1		 sub	 dl, cl
  00105	30 54 05 f0	 xor	 BYTE PTR __t$[ebp+eax], dl
  00109	40		 inc	 eax
  0010a	83 f8 06	 cmp	 eax, 6
  0010d	7c e3		 jl	 SHORT $LL101@SetTitle_e

; 190  : 		SetTitle(_t);

  0010f	8d 45 f0	 lea	 eax, DWORD PTR __t$[ebp]
  00112	50		 push	 eax
  00113	8b ce		 mov	 ecx, esi
  00115	ff 15 00 00 00
	00		 call	 DWORD PTR __imp_?SetTitle@ioINILoader@@QAEXPBD@Z

; 191  : 	}

  0011b	8b 4d fc	 mov	 ecx, DWORD PTR __$ArrayPad$[ebp]
  0011e	33 cd		 xor	 ecx, ebp
  00120	5e		 pop	 esi
  00121	e8 00 00 00 00	 call	 @__security_check_cookie@4
  00126	c9		 leave
  00127	c2 04 00	 ret	 4
??$SetTitle_e@$06@ioINILoader@@QAEXAAY06$$CBD@Z ENDP	; ioINILoader::SetTitle_e<7>
_TEXT	ENDS
PUBLIC	??$encodeString@$0BN@@ioINILoader_e@@AAEPADAAY0BN@$$CBDPAD@Z ; ioINILoader_e::encodeString<29>
; Function compile flags: /Ogsp
;	COMDAT ??$encodeString@$0BN@@ioINILoader_e@@AAEPADAAY0BN@$$CBDPAD@Z
_TEXT	SEGMENT
_s$ = 8							; size = 4
_e$ = 12						; size = 4
??$encodeString@$0BN@@ioINILoader_e@@AAEPADAAY0BN@$$CBDPAD@Z PROC ; ioINILoader_e::encodeString<29>, COMDAT
; _this$ = ecx

; 215  : 	{

  00000	55		 push	 ebp
  00001	8b ec		 mov	 ebp, esp

; 216  : 		__ENCSTR(s, e);

  00003	8b 4d 08	 mov	 ecx, DWORD PTR _s$[ebp]
  00006	8a 11		 mov	 dl, BYTE PTR [ecx]
  00008	8b 45 0c	 mov	 eax, DWORD PTR _e$[ebp]
  0000b	53		 push	 ebx
  0000c	84 d2		 test	 dl, dl
  0000e	0f 84 6a 04 00
	00		 je	 $LN96@encodeStri
  00014	80 f2 ed	 xor	 dl, -19			; ffffffedH
  00017	88 10		 mov	 BYTE PTR [eax], dl
  00019	8a 51 01	 mov	 dl, BYTE PTR [ecx+1]
  0001c	84 d2		 test	 dl, dl
  0001e	0f 84 54 04 00
	00		 je	 $LN95@encodeStri
  00024	80 f2 ec	 xor	 dl, -20			; ffffffecH
  00027	88 50 01	 mov	 BYTE PTR [eax+1], dl
  0002a	8a 51 02	 mov	 dl, BYTE PTR [ecx+2]
  0002d	84 d2		 test	 dl, dl
  0002f	0f 84 3d 04 00
	00		 je	 $LN94@encodeStri
  00035	b3 eb		 mov	 bl, -21			; ffffffebH
  00037	32 d3		 xor	 dl, bl
  00039	88 50 02	 mov	 BYTE PTR [eax+2], dl
  0003c	8a 51 03	 mov	 dl, BYTE PTR [ecx+3]
  0003f	84 d2		 test	 dl, dl
  00041	0f 84 25 04 00
	00		 je	 $LN93@encodeStri
  00047	80 f2 ea	 xor	 dl, -22			; ffffffeaH
  0004a	88 50 03	 mov	 BYTE PTR [eax+3], dl
  0004d	8a 51 04	 mov	 dl, BYTE PTR [ecx+4]
  00050	84 d2		 test	 dl, dl
  00052	0f 84 0e 04 00
	00		 je	 $LN92@encodeStri
  00058	80 f2 ed	 xor	 dl, -19			; ffffffedH
  0005b	88 50 04	 mov	 BYTE PTR [eax+4], dl
  0005e	8a 51 05	 mov	 dl, BYTE PTR [ecx+5]
  00061	84 d2		 test	 dl, dl
  00063	0f 84 f7 03 00
	00		 je	 $LN91@encodeStri
  00069	80 f2 ec	 xor	 dl, -20			; ffffffecH
  0006c	88 50 05	 mov	 BYTE PTR [eax+5], dl
  0006f	8a 51 06	 mov	 dl, BYTE PTR [ecx+6]
  00072	84 d2		 test	 dl, dl
  00074	0f 84 e1 03 00
	00		 je	 $LN90@encodeStri
  0007a	32 d3		 xor	 dl, bl
  0007c	88 50 06	 mov	 BYTE PTR [eax+6], dl
  0007f	8a 51 07	 mov	 dl, BYTE PTR [ecx+7]
  00082	84 d2		 test	 dl, dl
  00084	0f 84 cb 03 00
	00		 je	 $LN89@encodeStri
  0008a	80 f2 ea	 xor	 dl, -22			; ffffffeaH
  0008d	88 50 07	 mov	 BYTE PTR [eax+7], dl
  00090	8a 51 08	 mov	 dl, BYTE PTR [ecx+8]
  00093	84 d2		 test	 dl, dl
  00095	0f 84 b4 03 00
	00		 je	 $LN88@encodeStri
  0009b	80 f2 ed	 xor	 dl, -19			; ffffffedH
  0009e	88 50 08	 mov	 BYTE PTR [eax+8], dl
  000a1	8a 51 09	 mov	 dl, BYTE PTR [ecx+9]
  000a4	84 d2		 test	 dl, dl
  000a6	0f 84 9d 03 00
	00		 je	 $LN87@encodeStri
  000ac	80 f2 ec	 xor	 dl, -20			; ffffffecH
  000af	88 50 09	 mov	 BYTE PTR [eax+9], dl
  000b2	8a 51 0a	 mov	 dl, BYTE PTR [ecx+10]
  000b5	84 d2		 test	 dl, dl
  000b7	0f 84 87 03 00
	00		 je	 $LN86@encodeStri
  000bd	32 d3		 xor	 dl, bl
  000bf	88 50 0a	 mov	 BYTE PTR [eax+10], dl
  000c2	8a 51 0b	 mov	 dl, BYTE PTR [ecx+11]
  000c5	84 d2		 test	 dl, dl
  000c7	0f 84 71 03 00
	00		 je	 $LN85@encodeStri
  000cd	80 f2 ea	 xor	 dl, -22			; ffffffeaH
  000d0	88 50 0b	 mov	 BYTE PTR [eax+11], dl
  000d3	8a 51 0c	 mov	 dl, BYTE PTR [ecx+12]
  000d6	84 d2		 test	 dl, dl
  000d8	0f 84 5a 03 00
	00		 je	 $LN84@encodeStri
  000de	80 f2 ed	 xor	 dl, -19			; ffffffedH
  000e1	88 50 0c	 mov	 BYTE PTR [eax+12], dl
  000e4	8a 51 0d	 mov	 dl, BYTE PTR [ecx+13]
  000e7	84 d2		 test	 dl, dl
  000e9	0f 84 43 03 00
	00		 je	 $LN83@encodeStri
  000ef	80 f2 ec	 xor	 dl, -20			; ffffffecH
  000f2	88 50 0d	 mov	 BYTE PTR [eax+13], dl
  000f5	8a 51 0e	 mov	 dl, BYTE PTR [ecx+14]
  000f8	84 d2		 test	 dl, dl
  000fa	0f 84 2d 03 00
	00		 je	 $LN82@encodeStri
  00100	32 d3		 xor	 dl, bl
  00102	88 50 0e	 mov	 BYTE PTR [eax+14], dl
  00105	8a 51 0f	 mov	 dl, BYTE PTR [ecx+15]
  00108	84 d2		 test	 dl, dl
  0010a	0f 84 17 03 00
	00		 je	 $LN81@encodeStri
  00110	80 f2 ea	 xor	 dl, -22			; ffffffeaH
  00113	88 50 0f	 mov	 BYTE PTR [eax+15], dl
  00116	8a 51 10	 mov	 dl, BYTE PTR [ecx+16]
  00119	84 d2		 test	 dl, dl
  0011b	0f 84 00 03 00
	00		 je	 $LN80@encodeStri
  00121	80 f2 ed	 xor	 dl, -19			; ffffffedH
  00124	88 50 10	 mov	 BYTE PTR [eax+16], dl
  00127	8a 51 11	 mov	 dl, BYTE PTR [ecx+17]
  0012a	84 d2		 test	 dl, dl
  0012c	0f 84 e9 02 00
	00		 je	 $LN79@encodeStri
  00132	80 f2 ec	 xor	 dl, -20			; ffffffecH
  00135	88 50 11	 mov	 BYTE PTR [eax+17], dl
  00138	8a 51 12	 mov	 dl, BYTE PTR [ecx+18]
  0013b	84 d2		 test	 dl, dl
  0013d	0f 84 d3 02 00
	00		 je	 $LN78@encodeStri
  00143	32 d3		 xor	 dl, bl
  00145	88 50 12	 mov	 BYTE PTR [eax+18], dl
  00148	8a 51 13	 mov	 dl, BYTE PTR [ecx+19]
  0014b	84 d2		 test	 dl, dl
  0014d	0f 84 bd 02 00
	00		 je	 $LN77@encodeStri
  00153	80 f2 ea	 xor	 dl, -22			; ffffffeaH
  00156	88 50 13	 mov	 BYTE PTR [eax+19], dl
  00159	8a 51 14	 mov	 dl, BYTE PTR [ecx+20]
  0015c	84 d2		 test	 dl, dl
  0015e	0f 84 a6 02 00
	00		 je	 $LN76@encodeStri
  00164	80 f2 ed	 xor	 dl, -19			; ffffffedH
  00167	88 50 14	 mov	 BYTE PTR [eax+20], dl
  0016a	8a 51 15	 mov	 dl, BYTE PTR [ecx+21]
  0016d	84 d2		 test	 dl, dl
  0016f	0f 84 8f 02 00
	00		 je	 $LN75@encodeStri
  00175	80 f2 ec	 xor	 dl, -20			; ffffffecH
  00178	88 50 15	 mov	 BYTE PTR [eax+21], dl
  0017b	8a 51 16	 mov	 dl, BYTE PTR [ecx+22]
  0017e	84 d2		 test	 dl, dl
  00180	0f 84 79 02 00
	00		 je	 $LN74@encodeStri
  00186	32 d3		 xor	 dl, bl
  00188	88 50 16	 mov	 BYTE PTR [eax+22], dl
  0018b	8a 51 17	 mov	 dl, BYTE PTR [ecx+23]
  0018e	84 d2		 test	 dl, dl
  00190	0f 84 60 02 00
	00		 je	 $LN73@encodeStri
  00196	80 f2 ea	 xor	 dl, -22			; ffffffeaH
  00199	88 50 17	 mov	 BYTE PTR [eax+23], dl
  0019c	8a 51 18	 mov	 dl, BYTE PTR [ecx+24]
  0019f	84 d2		 test	 dl, dl
  001a1	0f 84 46 02 00
	00		 je	 $LN72@encodeStri
  001a7	80 f2 ed	 xor	 dl, -19			; ffffffedH
  001aa	88 50 18	 mov	 BYTE PTR [eax+24], dl
  001ad	8a 51 19	 mov	 dl, BYTE PTR [ecx+25]
  001b0	84 d2		 test	 dl, dl
  001b2	0f 84 2c 02 00
	00		 je	 $LN71@encodeStri
  001b8	80 f2 ec	 xor	 dl, -20			; ffffffecH
  001bb	88 50 19	 mov	 BYTE PTR [eax+25], dl
  001be	8a 51 1a	 mov	 dl, BYTE PTR [ecx+26]
  001c1	84 d2		 test	 dl, dl
  001c3	0f 84 13 02 00
	00		 je	 $LN70@encodeStri
  001c9	32 d3		 xor	 dl, bl
  001cb	88 50 1a	 mov	 BYTE PTR [eax+26], dl
  001ce	8a 51 1b	 mov	 dl, BYTE PTR [ecx+27]
  001d1	84 d2		 test	 dl, dl
  001d3	0f 84 fa 01 00
	00		 je	 $LN69@encodeStri
  001d9	80 f2 ea	 xor	 dl, -22			; ffffffeaH
  001dc	88 50 1b	 mov	 BYTE PTR [eax+27], dl
  001df	8a 51 1c	 mov	 dl, BYTE PTR [ecx+28]
  001e2	84 d2		 test	 dl, dl
  001e4	0f 84 e0 01 00
	00		 je	 $LN68@encodeStri
  001ea	80 f2 ed	 xor	 dl, -19			; ffffffedH
  001ed	88 50 1c	 mov	 BYTE PTR [eax+28], dl
  001f0	8a 51 1d	 mov	 dl, BYTE PTR [ecx+29]
  001f3	84 d2		 test	 dl, dl
  001f5	0f 84 c6 01 00
	00		 je	 $LN67@encodeStri
  001fb	80 f2 ec	 xor	 dl, -20			; ffffffecH
  001fe	88 50 1d	 mov	 BYTE PTR [eax+29], dl
  00201	8a 51 1e	 mov	 dl, BYTE PTR [ecx+30]
  00204	84 d2		 test	 dl, dl
  00206	0f 84 ad 01 00
	00		 je	 $LN66@encodeStri
  0020c	32 d3		 xor	 dl, bl
  0020e	88 50 1e	 mov	 BYTE PTR [eax+30], dl
  00211	8a 51 1f	 mov	 dl, BYTE PTR [ecx+31]
  00214	84 d2		 test	 dl, dl
  00216	0f 84 94 01 00
	00		 je	 $LN65@encodeStri
  0021c	80 f2 ea	 xor	 dl, -22			; ffffffeaH
  0021f	88 50 1f	 mov	 BYTE PTR [eax+31], dl
  00222	8a 51 20	 mov	 dl, BYTE PTR [ecx+32]
  00225	84 d2		 test	 dl, dl
  00227	0f 84 7a 01 00
	00		 je	 $LN64@encodeStri
  0022d	80 f2 ed	 xor	 dl, -19			; ffffffedH
  00230	88 50 20	 mov	 BYTE PTR [eax+32], dl
  00233	8a 51 21	 mov	 dl, BYTE PTR [ecx+33]
  00236	84 d2		 test	 dl, dl
  00238	0f 84 60 01 00
	00		 je	 $LN63@encodeStri
  0023e	80 f2 ec	 xor	 dl, -20			; ffffffecH
  00241	88 50 21	 mov	 BYTE PTR [eax+33], dl
  00244	8a 51 22	 mov	 dl, BYTE PTR [ecx+34]
  00247	84 d2		 test	 dl, dl
  00249	0f 84 47 01 00
	00		 je	 $LN62@encodeStri
  0024f	32 d3		 xor	 dl, bl
  00251	88 50 22	 mov	 BYTE PTR [eax+34], dl
  00254	8a 51 23	 mov	 dl, BYTE PTR [ecx+35]
  00257	84 d2		 test	 dl, dl
  00259	0f 84 2e 01 00
	00		 je	 $LN61@encodeStri
  0025f	80 f2 ea	 xor	 dl, -22			; ffffffeaH
  00262	88 50 23	 mov	 BYTE PTR [eax+35], dl
  00265	8a 51 24	 mov	 dl, BYTE PTR [ecx+36]
  00268	84 d2		 test	 dl, dl
  0026a	0f 84 14 01 00
	00		 je	 $LN60@encodeStri
  00270	80 f2 ed	 xor	 dl, -19			; ffffffedH
  00273	88 50 24	 mov	 BYTE PTR [eax+36], dl
  00276	8a 51 25	 mov	 dl, BYTE PTR [ecx+37]
  00279	84 d2		 test	 dl, dl
  0027b	0f 84 fa 00 00
	00		 je	 $LN59@encodeStri
  00281	80 f2 ec	 xor	 dl, -20			; ffffffecH
  00284	88 50 25	 mov	 BYTE PTR [eax+37], dl
  00287	8a 51 26	 mov	 dl, BYTE PTR [ecx+38]
  0028a	84 d2		 test	 dl, dl
  0028c	0f 84 e1 00 00
	00		 je	 $LN58@encodeStri
  00292	32 d3		 xor	 dl, bl
  00294	88 50 26	 mov	 BYTE PTR [eax+38], dl
  00297	8a 51 27	 mov	 dl, BYTE PTR [ecx+39]
  0029a	84 d2		 test	 dl, dl
  0029c	0f 84 c8 00 00
	00		 je	 $LN57@encodeStri
  002a2	80 f2 ea	 xor	 dl, -22			; ffffffeaH
  002a5	88 50 27	 mov	 BYTE PTR [eax+39], dl
  002a8	8a 51 28	 mov	 dl, BYTE PTR [ecx+40]
  002ab	84 d2		 test	 dl, dl
  002ad	0f 84 ae 00 00
	00		 je	 $LN56@encodeStri
  002b3	80 f2 ed	 xor	 dl, -19			; ffffffedH
  002b6	88 50 28	 mov	 BYTE PTR [eax+40], dl
  002b9	8a 51 29	 mov	 dl, BYTE PTR [ecx+41]
  002bc	84 d2		 test	 dl, dl
  002be	0f 84 94 00 00
	00		 je	 $LN55@encodeStri
  002c4	80 f2 ec	 xor	 dl, -20			; ffffffecH
  002c7	88 50 29	 mov	 BYTE PTR [eax+41], dl
  002ca	8a 51 2a	 mov	 dl, BYTE PTR [ecx+42]
  002cd	84 d2		 test	 dl, dl
  002cf	74 7f		 je	 SHORT $LN54@encodeStri
  002d1	32 d3		 xor	 dl, bl
  002d3	88 50 2a	 mov	 BYTE PTR [eax+42], dl
  002d6	8a 51 2b	 mov	 dl, BYTE PTR [ecx+43]
  002d9	84 d2		 test	 dl, dl
  002db	74 6a		 je	 SHORT $LN53@encodeStri
  002dd	80 f2 ea	 xor	 dl, -22			; ffffffeaH
  002e0	88 50 2b	 mov	 BYTE PTR [eax+43], dl
  002e3	8a 51 2c	 mov	 dl, BYTE PTR [ecx+44]
  002e6	84 d2		 test	 dl, dl
  002e8	74 54		 je	 SHORT $LN52@encodeStri
  002ea	80 f2 ed	 xor	 dl, -19			; ffffffedH
  002ed	88 50 2c	 mov	 BYTE PTR [eax+44], dl
  002f0	8a 51 2d	 mov	 dl, BYTE PTR [ecx+45]
  002f3	84 d2		 test	 dl, dl
  002f5	74 3e		 je	 SHORT $LN51@encodeStri
  002f7	80 f2 ec	 xor	 dl, -20			; ffffffecH
  002fa	88 50 2d	 mov	 BYTE PTR [eax+45], dl
  002fd	8a 51 2e	 mov	 dl, BYTE PTR [ecx+46]
  00300	84 d2		 test	 dl, dl
  00302	74 29		 je	 SHORT $LN50@encodeStri
  00304	32 d3		 xor	 dl, bl
  00306	88 50 2e	 mov	 BYTE PTR [eax+46], dl
  00309	8a 51 2f	 mov	 dl, BYTE PTR [ecx+47]
  0030c	84 d2		 test	 dl, dl
  0030e	74 14		 je	 SHORT $LN49@encodeStri
  00310	80 f2 ea	 xor	 dl, -22			; ffffffeaH
  00313	88 50 2f	 mov	 BYTE PTR [eax+47], dl
  00316	8a 49 30	 mov	 cl, BYTE PTR [ecx+48]
  00319	80 f1 ed	 xor	 cl, -19			; ffffffedH
  0031c	88 48 30	 mov	 BYTE PTR [eax+48], cl
  0031f	e9 5d 01 00 00	 jmp	 $LN1@encodeStri
$LN49@encodeStri:
  00324	c6 40 2f ea	 mov	 BYTE PTR [eax+47], -22	; ffffffeaH
  00328	e9 54 01 00 00	 jmp	 $LN1@encodeStri
$LN50@encodeStri:
  0032d	88 58 2e	 mov	 BYTE PTR [eax+46], bl
  00330	e9 4c 01 00 00	 jmp	 $LN1@encodeStri
$LN51@encodeStri:
  00335	c6 40 2d ec	 mov	 BYTE PTR [eax+45], -20	; ffffffecH
  00339	e9 43 01 00 00	 jmp	 $LN1@encodeStri
$LN52@encodeStri:
  0033e	c6 40 2c ed	 mov	 BYTE PTR [eax+44], -19	; ffffffedH
  00342	e9 3a 01 00 00	 jmp	 $LN1@encodeStri
$LN53@encodeStri:
  00347	c6 40 2b ea	 mov	 BYTE PTR [eax+43], -22	; ffffffeaH
  0034b	e9 31 01 00 00	 jmp	 $LN1@encodeStri
$LN54@encodeStri:
  00350	88 58 2a	 mov	 BYTE PTR [eax+42], bl
  00353	e9 29 01 00 00	 jmp	 $LN1@encodeStri
$LN55@encodeStri:
  00358	c6 40 29 ec	 mov	 BYTE PTR [eax+41], -20	; ffffffecH
  0035c	e9 20 01 00 00	 jmp	 $LN1@encodeStri
$LN56@encodeStri:
  00361	c6 40 28 ed	 mov	 BYTE PTR [eax+40], -19	; ffffffedH
  00365	e9 17 01 00 00	 jmp	 $LN1@encodeStri
$LN57@encodeStri:
  0036a	c6 40 27 ea	 mov	 BYTE PTR [eax+39], -22	; ffffffeaH
  0036e	e9 0e 01 00 00	 jmp	 $LN1@encodeStri
$LN58@encodeStri:
  00373	88 58 26	 mov	 BYTE PTR [eax+38], bl
  00376	e9 06 01 00 00	 jmp	 $LN1@encodeStri
$LN59@encodeStri:
  0037b	c6 40 25 ec	 mov	 BYTE PTR [eax+37], -20	; ffffffecH
  0037f	e9 fd 00 00 00	 jmp	 $LN1@encodeStri
$LN60@encodeStri:
  00384	c6 40 24 ed	 mov	 BYTE PTR [eax+36], -19	; ffffffedH
  00388	e9 f4 00 00 00	 jmp	 $LN1@encodeStri
$LN61@encodeStri:
  0038d	c6 40 23 ea	 mov	 BYTE PTR [eax+35], -22	; ffffffeaH
  00391	e9 eb 00 00 00	 jmp	 $LN1@encodeStri
$LN62@encodeStri:
  00396	88 58 22	 mov	 BYTE PTR [eax+34], bl
  00399	e9 e3 00 00 00	 jmp	 $LN1@encodeStri
$LN63@encodeStri:
  0039e	c6 40 21 ec	 mov	 BYTE PTR [eax+33], -20	; ffffffecH
  003a2	e9 da 00 00 00	 jmp	 $LN1@encodeStri
$LN64@encodeStri:
  003a7	c6 40 20 ed	 mov	 BYTE PTR [eax+32], -19	; ffffffedH
  003ab	e9 d1 00 00 00	 jmp	 $LN1@encodeStri
$LN65@encodeStri:
  003b0	c6 40 1f ea	 mov	 BYTE PTR [eax+31], -22	; ffffffeaH
  003b4	e9 c8 00 00 00	 jmp	 $LN1@encodeStri
$LN66@encodeStri:
  003b9	88 58 1e	 mov	 BYTE PTR [eax+30], bl
  003bc	e9 c0 00 00 00	 jmp	 $LN1@encodeStri
$LN67@encodeStri:
  003c1	c6 40 1d ec	 mov	 BYTE PTR [eax+29], -20	; ffffffecH
  003c5	e9 b7 00 00 00	 jmp	 $LN1@encodeStri
$LN68@encodeStri:
  003ca	c6 40 1c ed	 mov	 BYTE PTR [eax+28], -19	; ffffffedH
  003ce	e9 ae 00 00 00	 jmp	 $LN1@encodeStri
$LN69@encodeStri:
  003d3	c6 40 1b ea	 mov	 BYTE PTR [eax+27], -22	; ffffffeaH
  003d7	e9 a5 00 00 00	 jmp	 $LN1@encodeStri
$LN70@encodeStri:
  003dc	88 58 1a	 mov	 BYTE PTR [eax+26], bl
  003df	e9 9d 00 00 00	 jmp	 $LN1@encodeStri
$LN71@encodeStri:
  003e4	c6 40 19 ec	 mov	 BYTE PTR [eax+25], -20	; ffffffecH
  003e8	e9 94 00 00 00	 jmp	 $LN1@encodeStri
$LN72@encodeStri:
  003ed	c6 40 18 ed	 mov	 BYTE PTR [eax+24], -19	; ffffffedH
  003f1	e9 8b 00 00 00	 jmp	 $LN1@encodeStri
$LN73@encodeStri:
  003f6	c6 40 17 ea	 mov	 BYTE PTR [eax+23], -22	; ffffffeaH
  003fa	e9 82 00 00 00	 jmp	 $LN1@encodeStri
$LN74@encodeStri:
  003ff	88 58 16	 mov	 BYTE PTR [eax+22], bl
  00402	eb 7d		 jmp	 SHORT $LN1@encodeStri
$LN75@encodeStri:
  00404	c6 40 15 ec	 mov	 BYTE PTR [eax+21], -20	; ffffffecH
  00408	eb 77		 jmp	 SHORT $LN1@encodeStri
$LN76@encodeStri:
  0040a	c6 40 14 ed	 mov	 BYTE PTR [eax+20], -19	; ffffffedH
  0040e	eb 71		 jmp	 SHORT $LN1@encodeStri
$LN77@encodeStri:
  00410	c6 40 13 ea	 mov	 BYTE PTR [eax+19], -22	; ffffffeaH
  00414	eb 6b		 jmp	 SHORT $LN1@encodeStri
$LN78@encodeStri:
  00416	88 58 12	 mov	 BYTE PTR [eax+18], bl
  00419	eb 66		 jmp	 SHORT $LN1@encodeStri
$LN79@encodeStri:
  0041b	c6 40 11 ec	 mov	 BYTE PTR [eax+17], -20	; ffffffecH
  0041f	eb 60		 jmp	 SHORT $LN1@encodeStri
$LN80@encodeStri:
  00421	c6 40 10 ed	 mov	 BYTE PTR [eax+16], -19	; ffffffedH
  00425	eb 5a		 jmp	 SHORT $LN1@encodeStri
$LN81@encodeStri:
  00427	c6 40 0f ea	 mov	 BYTE PTR [eax+15], -22	; ffffffeaH
  0042b	eb 54		 jmp	 SHORT $LN1@encodeStri
$LN82@encodeStri:
  0042d	88 58 0e	 mov	 BYTE PTR [eax+14], bl
  00430	eb 4f		 jmp	 SHORT $LN1@encodeStri
$LN83@encodeStri:
  00432	c6 40 0d ec	 mov	 BYTE PTR [eax+13], -20	; ffffffecH
  00436	eb 49		 jmp	 SHORT $LN1@encodeStri
$LN84@encodeStri:
  00438	c6 40 0c ed	 mov	 BYTE PTR [eax+12], -19	; ffffffedH
  0043c	eb 43		 jmp	 SHORT $LN1@encodeStri
$LN85@encodeStri:
  0043e	c6 40 0b ea	 mov	 BYTE PTR [eax+11], -22	; ffffffeaH
  00442	eb 3d		 jmp	 SHORT $LN1@encodeStri
$LN86@encodeStri:
  00444	88 58 0a	 mov	 BYTE PTR [eax+10], bl
  00447	eb 38		 jmp	 SHORT $LN1@encodeStri
$LN87@encodeStri:
  00449	c6 40 09 ec	 mov	 BYTE PTR [eax+9], -20	; ffffffecH
  0044d	eb 32		 jmp	 SHORT $LN1@encodeStri
$LN88@encodeStri:
  0044f	c6 40 08 ed	 mov	 BYTE PTR [eax+8], -19	; ffffffedH
  00453	eb 2c		 jmp	 SHORT $LN1@encodeStri
$LN89@encodeStri:
  00455	c6 40 07 ea	 mov	 BYTE PTR [eax+7], -22	; ffffffeaH
  00459	eb 26		 jmp	 SHORT $LN1@encodeStri
$LN90@encodeStri:
  0045b	88 58 06	 mov	 BYTE PTR [eax+6], bl
  0045e	eb 21		 jmp	 SHORT $LN1@encodeStri
$LN91@encodeStri:
  00460	c6 40 05 ec	 mov	 BYTE PTR [eax+5], -20	; ffffffecH
  00464	eb 1b		 jmp	 SHORT $LN1@encodeStri
$LN92@encodeStri:
  00466	c6 40 04 ed	 mov	 BYTE PTR [eax+4], -19	; ffffffedH
  0046a	eb 15		 jmp	 SHORT $LN1@encodeStri
$LN93@encodeStri:
  0046c	c6 40 03 ea	 mov	 BYTE PTR [eax+3], -22	; ffffffeaH
  00470	eb 0f		 jmp	 SHORT $LN1@encodeStri
$LN94@encodeStri:
  00472	c6 40 02 eb	 mov	 BYTE PTR [eax+2], -21	; ffffffebH
  00476	eb 09		 jmp	 SHORT $LN1@encodeStri
$LN95@encodeStri:
  00478	c6 40 01 ec	 mov	 BYTE PTR [eax+1], -20	; ffffffecH
  0047c	eb 03		 jmp	 SHORT $LN1@encodeStri
$LN96@encodeStri:
  0047e	c6 00 ed	 mov	 BYTE PTR [eax], -19	; ffffffedH
$LN1@encodeStri:
  00481	6a 07		 push	 7
  00483	5a		 pop	 edx
  00484	8b c8		 mov	 ecx, eax
  00486	c6 40 1c 00	 mov	 BYTE PTR [eax+28], 0
  0048a	5b		 pop	 ebx
$LL104@encodeStri:
  0048b	81 31 ed ec eb
	ea		 xor	 DWORD PTR [ecx], -353637139 ; eaebecedH
  00491	83 c1 04	 add	 ecx, 4
  00494	4a		 dec	 edx
  00495	75 f4		 jne	 SHORT $LL104@encodeStri

; 217  : 		return e;
; 218  : 	}

  00497	5d		 pop	 ebp
  00498	c2 08 00	 ret	 8
??$encodeString@$0BN@@ioINILoader_e@@AAEPADAAY0BN@$$CBDPAD@Z ENDP ; ioINILoader_e::encodeString<29>
_TEXT	ENDS
PUBLIC	?destroy@?$allocator@USetupBlockItemInfo@@@std@@QAEXPAUSetupBlockItemInfo@@@Z ; std::allocator<SetupBlockItemInfo>::destroy
; Function compile flags: /Ogsp
; File c:\program files (x86)\microsoft visual studio 10.0\vc\include\xmemory
;	COMDAT ?destroy@?$allocator@USetupBlockItemInfo@@@std@@QAEXPAUSetupBlockItemInfo@@@Z
_TEXT	SEGMENT
__Ptr$ = 8						; size = 4
?destroy@?$allocator@USetupBlockItemInfo@@@std@@QAEXPAUSetupBlockItemInfo@@@Z PROC ; std::allocator<SetupBlockItemInfo>::destroy, COMDAT
; _this$ = ecx

; 213  : 		_Destroy(_Ptr);
; 214  : 		}

  00000	c2 04 00	 ret	 4
?destroy@?$allocator@USetupBlockItemInfo@@@std@@QAEXPAUSetupBlockItemInfo@@@Z ENDP ; std::allocator<SetupBlockItemInfo>::destroy
_TEXT	ENDS
PUBLIC	??B?$CEncrypt@_N@@QBE_NXZ			; CEncrypt<bool>::operator bool
; Function compile flags: /Ogsp
; File d:\lost saga for developer\youtube\tutorial\source\src\lsclient\encryptvalue.h
;	COMDAT ??B?$CEncrypt@_N@@QBE_NXZ
_TEXT	SEGMENT
_value$ = -1						; size = 1
??B?$CEncrypt@_N@@QBE_NXZ PROC				; CEncrypt<bool>::operator bool, COMDAT
; _this$ = ecx

; 145  : 	{

  00000	55		 push	 ebp
  00001	8b ec		 mov	 ebp, esp
  00003	51		 push	 ecx

; 146  : 		//UJ 130829, const    --start
; 147  : 		type value;
; 148  : 		CEncrypt<type>* pThis = const_cast<CEncrypt<type>*>(this);
; 149  : 		pThis->DecryptValueToPool(&value);

  00004	8d 45 ff	 lea	 eax, DWORD PTR _value$[ebp]
  00007	50		 push	 eax
  00008	e8 00 00 00 00	 call	 ?DecryptValueToPool@?$CEncrypt@_N@@QAEXPA_N@Z ; CEncrypt<bool>::DecryptValueToPool

; 150  : 		//// const DecryptValueToPool     .
; 151  :  		//type value;
; 152  : 		//char szTempMem[MAX_ENCRYPT];
; 153  : 		//m_RC5.DecryptByte( m_MemPool, szTempMem, max(m_ValueSize, DEFAULT_ENCRYPT) );
; 154  : 		//memcpy( &value, szTempMem, m_ValueSize );
; 155  : 		//UJ --end
; 156  : 
; 157  : #ifdef _NOTUSE
; 158  : 		Debug();
; 159  : #endif
; 160  : 		return value;

  0000d	8a 45 ff	 mov	 al, BYTE PTR _value$[ebp]

; 161  : 	}

  00010	c9		 leave
  00011	c3		 ret	 0
??B?$CEncrypt@_N@@QBE_NXZ ENDP				; CEncrypt<bool>::operator bool
_TEXT	ENDS
PUBLIC	?IsPrisonerMode@ioBaseChar@@QBE_NXZ		; ioBaseChar::IsPrisonerMode
; Function compile flags: /Ogsp
; File d:\lost saga for developer\youtube\tutorial\source\src\lsclient\iobasechar.h
;	COMDAT ?IsPrisonerMode@ioBaseChar@@QBE_NXZ
_TEXT	SEGMENT
_value$538640 = -1					; size = 1
?IsPrisonerMode@ioBaseChar@@QBE_NXZ PROC		; ioBaseChar::IsPrisonerMode, COMDAT
; _this$ = ecx

; 2130 : 	inline bool IsPrisonerMode() const { return m_bPrisonerMode; }

  00000	55		 push	 ebp
  00001	8b ec		 mov	 ebp, esp
  00003	51		 push	 ecx
  00004	8d 45 ff	 lea	 eax, DWORD PTR _value$538640[ebp]
  00007	50		 push	 eax
  00008	81 c1 cc 14 00
	00		 add	 ecx, 5324		; 000014ccH
  0000e	e8 00 00 00 00	 call	 ?DecryptValueToPool@?$CEncrypt@_N@@QAEXPA_N@Z ; CEncrypt<bool>::DecryptValueToPool
  00013	8a 45 ff	 mov	 al, BYTE PTR _value$538640[ebp]
  00016	c9		 leave
  00017	c3		 ret	 0
?IsPrisonerMode@ioBaseChar@@QBE_NXZ ENDP		; ioBaseChar::IsPrisonerMode
_TEXT	ENDS
PUBLIC	??_C@_0BJ@GNIJCDFI@?$CFs?5pOwner?5Not?5NeedProess?$AA@ ; `string'
PUBLIC	??_C@_0BD@DLBLGIJJ@?$CFs?5pOwner?5?$DN?$DN?5NULL?4?$AA@ ; `string'
PUBLIC	??_C@_0CF@BDDIPOKL@ioBlockSetupManager?3?3BeginSetUpS@ ; `string'
PUBLIC	__$ArrayPad$
PUBLIC	?BeginSetUpState@ioBlockSetupManager@@QAEXXZ	; ioBlockSetupManager::BeginSetUpState
EXTRN	?IsHasCrownByAllMode@ioBaseChar@@QBE_NXZ:PROC	; ioBaseChar::IsHasCrownByAllMode
EXTRN	?HasBuff@ioBaseChar@@QBE_NH@Z:PROC		; ioBaseChar::HasBuff
EXTRN	__imp_?PrintTimeAndLog@CLog@@QAAXHPADZZ:PROC
EXTRN	__imp_?LOG@@3VCLog@@A:BYTE
EXTRN	?GetOwnerChar@ioPlayStage@@QAEPAVioBaseChar@@XZ:PROC ; ioPlayStage::GetOwnerChar
EXTRN	__imp_?IsShow@ioGUIManager@@QAE_NK@Z:PROC
;	COMDAT ??_C@_0BJ@GNIJCDFI@?$CFs?5pOwner?5Not?5NeedProess?$AA@
; File d:\lost saga for developer\youtube\tutorial\source\src\lsclient\ioplaystage.h
CONST	SEGMENT
??_C@_0BJ@GNIJCDFI@?$CFs?5pOwner?5Not?5NeedProess?$AA@ DB '%s pOwner Not '
	DB	'NeedProess', 00H				; `string'
CONST	ENDS
;	COMDAT ??_C@_0BD@DLBLGIJJ@?$CFs?5pOwner?5?$DN?$DN?5NULL?4?$AA@
CONST	SEGMENT
??_C@_0BD@DLBLGIJJ@?$CFs?5pOwner?5?$DN?$DN?5NULL?4?$AA@ DB '%s pOwner == '
	DB	'NULL.', 00H					; `string'
CONST	ENDS
;	COMDAT ??_C@_0CF@BDDIPOKL@ioBlockSetupManager?3?3BeginSetUpS@
CONST	SEGMENT
??_C@_0CF@BDDIPOKL@ioBlockSetupManager?3?3BeginSetUpS@ DB 'ioBlockSetupMa'
	DB	'nager::BeginSetUpState', 00H		; `string'
CONST	ENDS
;	COMDAT xdata$x
xdata$x	SEGMENT
__unwindtable$?BeginSetUpState@ioBlockSetupManager@@QAEXXZ DD 0ffffffffH
	DD	FLAT:__unwindfunclet$?BeginSetUpState@ioBlockSetupManager@@QAEXXZ$0
__ehfuncinfo$?BeginSetUpState@ioBlockSetupManager@@QAEXXZ DD 019930522H
	DD	01H
	DD	FLAT:__unwindtable$?BeginSetUpState@ioBlockSetupManager@@QAEXXZ
	DD	2 DUP(00H)
	DD	2 DUP(00H)
	DD	00H
	DD	01H
; Function compile flags: /Ogsp
; File d:\lost saga for developer\youtube\tutorial\source\src\lsclient\housing\ioblocksetupmanager.cpp
xdata$x	ENDS
;	COMDAT ?BeginSetUpState@ioBlockSetupManager@@QAEXXZ
_TEXT	SEGMENT
_value$538671 = -32809					; size = 1
_kPacket$ = -32808					; size = 32792
__$ArrayPad$ = -16					; size = 4
__$EHRec$ = -12						; size = 12
?BeginSetUpState@ioBlockSetupManager@@QAEXXZ PROC	; ioBlockSetupManager::BeginSetUpState, COMDAT
; _this$ = ecx

; 81   : {

  00000	55		 push	 ebp
  00001	8b ec		 mov	 ebp, esp
  00003	6a ff		 push	 -1
  00005	68 00 00 00 00	 push	 __ehhandler$?BeginSetUpState@ioBlockSetupManager@@QAEXXZ
  0000a	64 a1 00 00 00
	00		 mov	 eax, DWORD PTR fs:0
  00010	50		 push	 eax
  00011	b8 20 80 00 00	 mov	 eax, 32800		; 00008020H
  00016	e8 00 00 00 00	 call	 __chkstk
  0001b	a1 00 00 00 00	 mov	 eax, DWORD PTR ___security_cookie
  00020	33 c5		 xor	 eax, ebp
  00022	89 45 f0	 mov	 DWORD PTR __$ArrayPad$[ebp], eax
  00025	53		 push	 ebx
  00026	56		 push	 esi
  00027	57		 push	 edi
  00028	50		 push	 eax
  00029	8d 45 f4	 lea	 eax, DWORD PTR __$EHRec$[ebp]
  0002c	64 a3 00 00 00
	00		 mov	 DWORD PTR fs:0, eax

; 82   : 	if( g_GUIMgr.IsShow( BRIEFING_WND ) ) 

  00032	68 a3 13 00 00	 push	 5027			; 000013a3H
  00037	8b f9		 mov	 edi, ecx
  00039	e8 00 00 00 00	 call	 ?GetSingleton@ioSP2GUIManager@@SAAAV1@XZ ; ioSP2GUIManager::GetSingleton
  0003e	8b c8		 mov	 ecx, eax
  00040	ff 15 00 00 00
	00		 call	 DWORD PTR __imp_?IsShow@ioGUIManager@@QAE_NK@Z
  00046	84 c0		 test	 al, al
  00048	0f 85 7d 01 00
	00		 jne	 $LN14@BeginSetUp

; 83   : 		return;
; 84   : 
; 85   : 	if( !m_pStage )

  0004e	8b 4f 04	 mov	 ecx, DWORD PTR [edi+4]
  00051	33 db		 xor	 ebx, ebx
  00053	3b cb		 cmp	 ecx, ebx
  00055	0f 84 70 01 00
	00		 je	 $LN14@BeginSetUp

; 86   : 		return;
; 87   : 
; 88   : 	ioBaseChar* pOwner = m_pStage->GetOwnerChar();

  0005b	e8 00 00 00 00	 call	 ?GetOwnerChar@ioPlayStage@@QAEPAVioBaseChar@@XZ ; ioPlayStage::GetOwnerChar
  00060	8b f0		 mov	 esi, eax

; 89   : 	if( !pOwner )

  00062	3b f3		 cmp	 esi, ebx
  00064	75 1c		 jne	 SHORT $LN11@BeginSetUp

; 90   : 	{
; 91   : 		LOG.PrintTimeAndLog( 0, "%s pOwner == NULL.", __FUNCTION__ );

  00066	68 00 00 00 00	 push	 OFFSET ??_C@_0CF@BDDIPOKL@ioBlockSetupManager?3?3BeginSetUpS@
  0006b	68 00 00 00 00	 push	 OFFSET ??_C@_0BD@DLBLGIJJ@?$CFs?5pOwner?5?$DN?$DN?5NULL?4?$AA@
$LN38@BeginSetUp:
  00070	53		 push	 ebx
  00071	ff 35 00 00 00
	00		 push	 DWORD PTR __imp_?LOG@@3VCLog@@A
  00077	ff 15 00 00 00
	00		 call	 DWORD PTR __imp_?PrintTimeAndLog@CLog@@QAAXHPADZZ

; 92   : 		return;

  0007d	e9 46 01 00 00	 jmp	 $LN36@BeginSetUp
$LN11@BeginSetUp:

; 93   : 	}
; 94   : 
; 95   : 	if( !pOwner->IsNeedProcess() )

  00082	8b 06		 mov	 eax, DWORD PTR [esi]
  00084	8b ce		 mov	 ecx, esi
  00086	ff 90 00 01 00
	00		 call	 DWORD PTR [eax+256]
  0008c	84 c0		 test	 al, al
  0008e	75 0c		 jne	 SHORT $LN10@BeginSetUp

; 96   : 	{
; 97   : 		LOG.PrintTimeAndLog( 0, "%s pOwner Not NeedProess", __FUNCTION__ );

  00090	68 00 00 00 00	 push	 OFFSET ??_C@_0CF@BDDIPOKL@ioBlockSetupManager?3?3BeginSetUpS@
  00095	68 00 00 00 00	 push	 OFFSET ??_C@_0BJ@GNIJCDFI@?$CFs?5pOwner?5Not?5NeedProess?$AA@

; 98   : 		return;

  0009a	eb d4		 jmp	 SHORT $LN38@BeginSetUp
$LN10@BeginSetUp:

; 99   : 	}
; 100  : 
; 101  : 	if( pOwner->GetState() == CS_FISHING || pOwner->GetState() == CS_EXCAVATING )

  0009c	8a 86 10 03 00
	00		 mov	 al, BYTE PTR [esi+784]
  000a2	3c 2b		 cmp	 al, 43			; 0000002bH
  000a4	0f 84 f5 00 00
	00		 je	 $LN8@BeginSetUp
  000aa	3c 2f		 cmp	 al, 47			; 0000002fH
  000ac	0f 84 ed 00 00
	00		 je	 $LN8@BeginSetUp

; 104  : 		return;
; 105  : 	}
; 106  : 
; 107  : 	//   
; 108  : 	if( pOwner->GetState() != CS_DELAY || pOwner->IsCatchMode() || pOwner->IsPrisonerMode() )

  000b2	3a c3		 cmp	 al, bl
  000b4	0f 85 e0 00 00
	00		 jne	 $LN6@BeginSetUp
  000ba	38 9e 78 23 00
	00		 cmp	 BYTE PTR [esi+9080], bl
  000c0	0f 85 d4 00 00
	00		 jne	 $LN6@BeginSetUp
  000c6	8d 85 d7 7f ff
	ff		 lea	 eax, DWORD PTR _value$538671[ebp]
  000cc	8d 8e cc 14 00
	00		 lea	 ecx, DWORD PTR [esi+5324]
  000d2	50		 push	 eax
  000d3	e8 00 00 00 00	 call	 ?DecryptValueToPool@?$CEncrypt@_N@@QAEXPA_N@Z ; CEncrypt<bool>::DecryptValueToPool
  000d8	38 9d d7 7f ff
	ff		 cmp	 BYTE PTR _value$538671[ebp], bl
  000de	0f 85 b6 00 00
	00		 jne	 $LN6@BeginSetUp

; 112  : 	}
; 113  : 	
; 114  : 	// Buff 
; 115  : 	if( pOwner->HasBuff( BT_LIMIT_MOVE ) || pOwner->HasBuff( BT_LIMIT_ACTION ) )

  000e4	6a 3a		 push	 58			; 0000003aH
  000e6	8b ce		 mov	 ecx, esi
  000e8	e8 00 00 00 00	 call	 ?HasBuff@ioBaseChar@@QBE_NH@Z ; ioBaseChar::HasBuff
  000ed	84 c0		 test	 al, al
  000ef	0f 85 a0 00 00
	00		 jne	 $LN4@BeginSetUp
  000f5	6a 40		 push	 64			; 00000040H
  000f7	8b ce		 mov	 ecx, esi
  000f9	e8 00 00 00 00	 call	 ?HasBuff@ioBaseChar@@QBE_NH@Z ; ioBaseChar::HasBuff
  000fe	84 c0		 test	 al, al
  00100	0f 85 8f 00 00
	00		 jne	 $LN4@BeginSetUp

; 119  : 	}
; 120  : 
; 121  : 	//  
; 122  : 	if( pOwner->IsHasCrownByAllMode() )

  00106	8b ce		 mov	 ecx, esi
  00108	e8 00 00 00 00	 call	 ?IsHasCrownByAllMode@ioBaseChar@@QBE_NXZ ; ioBaseChar::IsHasCrownByAllMode
  0010d	84 c0		 test	 al, al
  0010f	74 08		 je	 SHORT $LN3@BeginSetUp

; 123  : 	{
; 124  : 		g_GUIMgr.SetMsgBox( MB_OK, NULL, STR(4) );

  00111	53		 push	 ebx
  00112	6a 04		 push	 4

; 125  : 		return;

  00114	e9 89 00 00 00	 jmp	 $LN37@BeginSetUp
$LN3@BeginSetUp:

; 126  : 	}
; 127  : 
; 128  : 	//  
; 129  : 	if( pOwner->GetCreator() == NULL || pOwner->GetCreator()->GetBlockWorld() == NULL )

  00119	8b 86 44 03 00
	00		 mov	 eax, DWORD PTR [esi+836]
  0011f	3b c3		 cmp	 eax, ebx
  00121	74 6d		 je	 SHORT $LN1@BeginSetUp
  00123	39 98 14 01 00
	00		 cmp	 DWORD PTR [eax+276], ebx
  00129	74 65		 je	 SHORT $LN1@BeginSetUp

; 133  : 	}
; 134  : 
; 135  : 	pOwner->SetState( CS_CONSTRUCT_HOUSE );

  0012b	6a 01		 push	 1
  0012d	68 9b 00 00 00	 push	 155			; 0000009bH
  00132	8b ce		 mov	 ecx, esi
  00134	e8 00 00 00 00	 call	 ?SetState@ioBaseChar@@QAEXH_N@Z ; ioBaseChar::SetState

; 136  : 
; 137  : 	TCPNetwork::MouseBusy( true );

  00139	6a 01		 push	 1
  0013b	e8 00 00 00 00	 call	 ?MouseBusy@TCPNetwork@@YAX_N@Z ; TCPNetwork::MouseBusy

; 138  : 	SP2Packet kPacket( CTPK_CONSTRUCT_MODE );

  00140	8d 8d d8 7f ff
	ff		 lea	 ecx, DWORD PTR _kPacket$[ebp]
  00146	c7 04 24 52 03
	00 00		 mov	 DWORD PTR [esp], 850	; 00000352H
  0014d	e8 00 00 00 00	 call	 ??0SP2Packet@@QAE@K@Z	; SP2Packet::SP2Packet

; 139  : 	kPacket << (byte)m_BlockModeType;

  00152	0f b6 47 08	 movzx	 eax, BYTE PTR [edi+8]
  00156	50		 push	 eax
  00157	8d 8d d8 7f ff
	ff		 lea	 ecx, DWORD PTR _kPacket$[ebp]
  0015d	89 5d fc	 mov	 DWORD PTR __$EHRec$[ebp+8], ebx
  00160	e8 00 00 00 00	 call	 ??6SP2Packet@@QAEAAV0@E@Z ; SP2Packet::operator<<

; 140  : 	kPacket << (byte)CONSTRUCT_ON;

  00165	6a 01		 push	 1
  00167	8d 8d d8 7f ff
	ff		 lea	 ecx, DWORD PTR _kPacket$[ebp]
  0016d	e8 00 00 00 00	 call	 ??6SP2Packet@@QAEAAV0@E@Z ; SP2Packet::operator<<

; 141  : 	TCPNetwork::SendToServer( kPacket );

  00172	8d 85 d8 7f ff
	ff		 lea	 eax, DWORD PTR _kPacket$[ebp]
  00178	50		 push	 eax
  00179	e8 00 00 00 00	 call	 ?SendToServer@TCPNetwork@@YAXAAVSP2Packet@@@Z ; TCPNetwork::SendToServer

; 142  : }

  0017e	83 4d fc ff	 or	 DWORD PTR __$EHRec$[ebp+8], -1
  00182	59		 pop	 ecx
  00183	8d 8d d8 7f ff
	ff		 lea	 ecx, DWORD PTR _kPacket$[ebp]
  00189	e8 00 00 00 00	 call	 ??1SP2Packet@@UAE@XZ	; SP2Packet::~SP2Packet
  0018e	eb 3b		 jmp	 SHORT $LN14@BeginSetUp
$LN1@BeginSetUp:

; 130  : 	{
; 131  : 		g_GUIMgr.SetMsgBox( MB_OK, NULL, STR(5) );

  00190	53		 push	 ebx
  00191	6a 05		 push	 5

; 132  : 		return;

  00193	eb 0d		 jmp	 SHORT $LN37@BeginSetUp
$LN4@BeginSetUp:

; 116  : 	{
; 117  : 		g_GUIMgr.SetMsgBox( MB_OK, NULL, STR(3) );

  00195	53		 push	 ebx
  00196	6a 03		 push	 3

; 118  : 		return;

  00198	eb 08		 jmp	 SHORT $LN37@BeginSetUp
$LN6@BeginSetUp:

; 109  : 	{
; 110  : 		g_GUIMgr.SetMsgBox( MB_OK, NULL, STR(2) );

  0019a	53		 push	 ebx
  0019b	6a 02		 push	 2

; 111  : 		return;

  0019d	eb 03		 jmp	 SHORT $LN37@BeginSetUp
$LN8@BeginSetUp:

; 102  : 	{
; 103  : 		g_GUIMgr.SetMsgBox( MB_OK, NULL, STR(1) );

  0019f	53		 push	 ebx
  001a0	6a 01		 push	 1
$LN37@BeginSetUp:
  001a2	68 00 00 00 00	 push	 OFFSET ??_C@_00CNPNBAHC@?$AA@
  001a7	68 00 00 00 00	 push	 OFFSET ??_C@_0CF@BDDIPOKL@ioBlockSetupManager?3?3BeginSetUpS@
  001ac	ff 15 00 00 00
	00		 call	 DWORD PTR __imp_?GetSingleton@ioStringManager@@SAAAV1@XZ
  001b2	8b c8		 mov	 ecx, eax
  001b4	ff 15 00 00 00
	00		 call	 DWORD PTR __imp_?GetString@ioStringManager@@QAEPADPBD0HW4FileNamePrefix@1@@Z
  001ba	50		 push	 eax
  001bb	53		 push	 ebx
  001bc	53		 push	 ebx
  001bd	e8 00 00 00 00	 call	 ?GetSingleton@ioSP2GUIManager@@SAAAV1@XZ ; ioSP2GUIManager::GetSingleton
  001c2	50		 push	 eax
  001c3	e8 00 00 00 00	 call	 ?SetMsgBox@ioSP2GUIManager@@QAAXHPAVioWnd@@PBDZZ ; ioSP2GUIManager::SetMsgBox
$LN36@BeginSetUp:
  001c8	83 c4 10	 add	 esp, 16			; 00000010H
$LN14@BeginSetUp:

; 142  : }

  001cb	8b 4d f4	 mov	 ecx, DWORD PTR __$EHRec$[ebp]
  001ce	64 89 0d 00 00
	00 00		 mov	 DWORD PTR fs:0, ecx
  001d5	59		 pop	 ecx
  001d6	5f		 pop	 edi
  001d7	5e		 pop	 esi
  001d8	5b		 pop	 ebx
  001d9	8b 4d f0	 mov	 ecx, DWORD PTR __$ArrayPad$[ebp]
  001dc	33 cd		 xor	 ecx, ebp
  001de	e8 00 00 00 00	 call	 @__security_check_cookie@4
  001e3	c9		 leave
  001e4	c3		 ret	 0
_TEXT	ENDS
;	COMDAT text$x
text$x	SEGMENT
__unwindfunclet$?BeginSetUpState@ioBlockSetupManager@@QAEXXZ$0:
  00000	8d 8d d8 7f ff
	ff		 lea	 ecx, DWORD PTR _kPacket$[ebp]
  00006	e9 00 00 00 00	 jmp	 ??1SP2Packet@@UAE@XZ	; SP2Packet::~SP2Packet
__ehhandler$?BeginSetUpState@ioBlockSetupManager@@QAEXXZ:
  0000b	8b 54 24 08	 mov	 edx, DWORD PTR [esp+8]
  0000f	8d 42 0c	 lea	 eax, DWORD PTR [edx+12]
  00012	8b 8a d0 7f ff
	ff		 mov	 ecx, DWORD PTR [edx-32816]
  00018	33 c8		 xor	 ecx, eax
  0001a	e8 00 00 00 00	 call	 @__security_check_cookie@4
  0001f	8b 4a fc	 mov	 ecx, DWORD PTR [edx-4]
  00022	33 c8		 xor	 ecx, eax
  00024	e8 00 00 00 00	 call	 @__security_check_cookie@4
  00029	b8 00 00 00 00	 mov	 eax, OFFSET __ehfuncinfo$?BeginSetUpState@ioBlockSetupManager@@QAEXXZ
  0002e	e9 00 00 00 00	 jmp	 ___CxxFrameHandler3
text$x	ENDS
?BeginSetUpState@ioBlockSetupManager@@QAEXXZ ENDP	; ioBlockSetupManager::BeginSetUpState
PUBLIC	?ProcessTCPPacket@ioBlockSetupManager@@UAE_NAAVSP2Packet@@@Z ; ioBlockSetupManager::ProcessTCPPacket
EXTRN	__imp_?GetPacketID@CPacket@@QBEKXZ:PROC
; Function compile flags: /Ogsp
;	COMDAT ?ProcessTCPPacket@ioBlockSetupManager@@UAE_NAAVSP2Packet@@@Z
_TEXT	SEGMENT
_rkPacket$ = 8						; size = 4
?ProcessTCPPacket@ioBlockSetupManager@@UAE_NAAVSP2Packet@@@Z PROC ; ioBlockSetupManager::ProcessTCPPacket, COMDAT
; _this$ = ecx

; 274  : {

  00000	55		 push	 ebp
  00001	8b ec		 mov	 ebp, esp
  00003	56		 push	 esi
  00004	57		 push	 edi

; 275  : 	switch( rkPacket.GetPacketID() )

  00005	8b 7d 08	 mov	 edi, DWORD PTR _rkPacket$[ebp]
  00008	8b f1		 mov	 esi, ecx
  0000a	8b cf		 mov	 ecx, edi
  0000c	ff 15 00 00 00
	00		 call	 DWORD PTR __imp_?GetPacketID@CPacket@@QBEKXZ
  00012	2d 35 25 00 00	 sub	 eax, 9525		; 00002535H
  00017	74 1e		 je	 SHORT $LN2@ProcessTCP
  00019	48		 dec	 eax
  0001a	74 11		 je	 SHORT $LN1@ProcessTCP
  0001c	48		 dec	 eax
  0001d	74 04		 je	 SHORT $LN3@ProcessTCP

; 286  : 	}
; 287  : 
; 288  : 	return false;

  0001f	32 c0		 xor	 al, al
  00021	eb 1e		 jmp	 SHORT $LN6@ProcessTCP
$LN3@ProcessTCP:

; 276  : 	{
; 277  : 	case STPK_CONSTRUCT_MODE:
; 278  : 		OnSetUpState( rkPacket );

  00023	57		 push	 edi
  00024	8b ce		 mov	 ecx, esi
  00026	e8 00 00 00 00	 call	 ?OnSetUpState@ioBlockSetupManager@@QAEXAAVSP2Packet@@@Z ; ioBlockSetupManager::OnSetUpState

; 279  : 		return true;

  0002b	eb 12		 jmp	 SHORT $LN8@ProcessTCP
$LN1@ProcessTCP:

; 283  : 	case STPK_RETRIEVE_BLOCK:
; 284  : 		OnRemoveBlock( rkPacket );

  0002d	57		 push	 edi
  0002e	8b ce		 mov	 ecx, esi
  00030	e8 00 00 00 00	 call	 ?OnRemoveBlock@ioBlockSetupManager@@QAEXAAVSP2Packet@@@Z ; ioBlockSetupManager::OnRemoveBlock

; 285  : 		return true;

  00035	eb 08		 jmp	 SHORT $LN8@ProcessTCP
$LN2@ProcessTCP:

; 280  : 	case STPK_CONSTRUCT_BLOCK:
; 281  : 		OnSetUpBlock( rkPacket );

  00037	57		 push	 edi
  00038	8b ce		 mov	 ecx, esi
  0003a	e8 00 00 00 00	 call	 ?OnSetUpBlock@ioBlockSetupManager@@QAEXAAVSP2Packet@@@Z ; ioBlockSetupManager::OnSetUpBlock
$LN8@ProcessTCP:

; 282  : 		return true;

  0003f	b0 01		 mov	 al, 1
$LN6@ProcessTCP:
  00041	5f		 pop	 edi
  00042	5e		 pop	 esi

; 289  : }

  00043	5d		 pop	 ebp
  00044	c2 04 00	 ret	 4
?ProcessTCPPacket@ioBlockSetupManager@@UAE_NAAVSP2Packet@@@Z ENDP ; ioBlockSetupManager::ProcessTCPPacket
_TEXT	ENDS
PUBLIC	??0?$vector@USetupBlockItemInfo@@V?$allocator@USetupBlockItemInfo@@@std@@@std@@QAE@XZ ; std::vector<SetupBlockItemInfo,std::allocator<SetupBlockItemInfo> >::vector<SetupBlockItemInfo,std::allocator<SetupBlockItemInfo> >
; Function compile flags: /Ogsp
; File c:\program files (x86)\microsoft visual studio 10.0\vc\include\vector
;	COMDAT ??0?$vector@USetupBlockItemInfo@@V?$allocator@USetupBlockItemInfo@@@std@@@std@@QAE@XZ
_TEXT	SEGMENT
??0?$vector@USetupBlockItemInfo@@V?$allocator@USetupBlockItemInfo@@@std@@@std@@QAE@XZ PROC ; std::vector<SetupBlockItemInfo,std::allocator<SetupBlockItemInfo> >::vector<SetupBlockItemInfo,std::allocator<SetupBlockItemInfo> >, COMDAT
; _this$ = ecx

; 507  : 		{	// construct empty vector

  00000	8b c1		 mov	 eax, ecx
  00002	33 c9		 xor	 ecx, ecx
  00004	89 08		 mov	 DWORD PTR [eax], ecx
  00006	89 48 04	 mov	 DWORD PTR [eax+4], ecx
  00009	89 48 08	 mov	 DWORD PTR [eax+8], ecx

; 508  : 		}

  0000c	c3		 ret	 0
??0?$vector@USetupBlockItemInfo@@V?$allocator@USetupBlockItemInfo@@@std@@@std@@QAE@XZ ENDP ; std::vector<SetupBlockItemInfo,std::allocator<SetupBlockItemInfo> >::vector<SetupBlockItemInfo,std::allocator<SetupBlockItemInfo> >
_TEXT	ENDS
PUBLIC	??$?0$0BN@@ioINILoader_e@@QAE@AAY0BN@$$CBD_N@Z	; ioINILoader_e::ioINILoader_e<29>
EXTRN	__imp_??0ioINILoader@@QAE@PBD_N@Z:PROC
; Function compile flags: /Ogsp
; File d:\lost saga for developer\youtube\tutorial\source\src\io3dengine\ioiniloader.h
;	COMDAT ??$?0$0BN@@ioINILoader_e@@QAE@AAY0BN@$$CBD_N@Z
_TEXT	SEGMENT
_fn$ = 8						; size = 4
_b$ = 12						; size = 1
??$?0$0BN@@ioINILoader_e@@QAE@AAY0BN@$$CBD_N@Z PROC	; ioINILoader_e::ioINILoader_e<29>, COMDAT
; _this$ = ecx

; 224  : 	{

  00000	55		 push	 ebp
  00001	8b ec		 mov	 ebp, esp
  00003	53		 push	 ebx
  00004	56		 push	 esi
  00005	8b f1		 mov	 esi, ecx
  00007	8b 4d 08	 mov	 ecx, DWORD PTR _fn$[ebp]
  0000a	8a 11		 mov	 dl, BYTE PTR [ecx]
  0000c	8d 86 50 03 00
	00		 lea	 eax, DWORD PTR [esi+848]
  00012	84 d2		 test	 dl, dl
  00014	0f 84 6a 04 00
	00		 je	 $LN99@ioINILoade
  0001a	80 f2 ed	 xor	 dl, -19			; ffffffedH
  0001d	88 10		 mov	 BYTE PTR [eax], dl
  0001f	8a 51 01	 mov	 dl, BYTE PTR [ecx+1]
  00022	84 d2		 test	 dl, dl
  00024	0f 84 54 04 00
	00		 je	 $LN98@ioINILoade
  0002a	80 f2 ec	 xor	 dl, -20			; ffffffecH
  0002d	88 50 01	 mov	 BYTE PTR [eax+1], dl
  00030	8a 51 02	 mov	 dl, BYTE PTR [ecx+2]
  00033	84 d2		 test	 dl, dl
  00035	0f 84 3d 04 00
	00		 je	 $LN97@ioINILoade
  0003b	b3 eb		 mov	 bl, -21			; ffffffebH
  0003d	32 d3		 xor	 dl, bl
  0003f	88 50 02	 mov	 BYTE PTR [eax+2], dl
  00042	8a 51 03	 mov	 dl, BYTE PTR [ecx+3]
  00045	84 d2		 test	 dl, dl
  00047	0f 84 25 04 00
	00		 je	 $LN96@ioINILoade
  0004d	80 f2 ea	 xor	 dl, -22			; ffffffeaH
  00050	88 50 03	 mov	 BYTE PTR [eax+3], dl
  00053	8a 51 04	 mov	 dl, BYTE PTR [ecx+4]
  00056	84 d2		 test	 dl, dl
  00058	0f 84 0e 04 00
	00		 je	 $LN95@ioINILoade
  0005e	80 f2 ed	 xor	 dl, -19			; ffffffedH
  00061	88 50 04	 mov	 BYTE PTR [eax+4], dl
  00064	8a 51 05	 mov	 dl, BYTE PTR [ecx+5]
  00067	84 d2		 test	 dl, dl
  00069	0f 84 f7 03 00
	00		 je	 $LN94@ioINILoade
  0006f	80 f2 ec	 xor	 dl, -20			; ffffffecH
  00072	88 50 05	 mov	 BYTE PTR [eax+5], dl
  00075	8a 51 06	 mov	 dl, BYTE PTR [ecx+6]
  00078	84 d2		 test	 dl, dl
  0007a	0f 84 e1 03 00
	00		 je	 $LN93@ioINILoade
  00080	32 d3		 xor	 dl, bl
  00082	88 50 06	 mov	 BYTE PTR [eax+6], dl
  00085	8a 51 07	 mov	 dl, BYTE PTR [ecx+7]
  00088	84 d2		 test	 dl, dl
  0008a	0f 84 cb 03 00
	00		 je	 $LN92@ioINILoade
  00090	80 f2 ea	 xor	 dl, -22			; ffffffeaH
  00093	88 50 07	 mov	 BYTE PTR [eax+7], dl
  00096	8a 51 08	 mov	 dl, BYTE PTR [ecx+8]
  00099	84 d2		 test	 dl, dl
  0009b	0f 84 b4 03 00
	00		 je	 $LN91@ioINILoade
  000a1	80 f2 ed	 xor	 dl, -19			; ffffffedH
  000a4	88 50 08	 mov	 BYTE PTR [eax+8], dl
  000a7	8a 51 09	 mov	 dl, BYTE PTR [ecx+9]
  000aa	84 d2		 test	 dl, dl
  000ac	0f 84 9d 03 00
	00		 je	 $LN90@ioINILoade
  000b2	80 f2 ec	 xor	 dl, -20			; ffffffecH
  000b5	88 50 09	 mov	 BYTE PTR [eax+9], dl
  000b8	8a 51 0a	 mov	 dl, BYTE PTR [ecx+10]
  000bb	84 d2		 test	 dl, dl
  000bd	0f 84 87 03 00
	00		 je	 $LN89@ioINILoade
  000c3	32 d3		 xor	 dl, bl
  000c5	88 50 0a	 mov	 BYTE PTR [eax+10], dl
  000c8	8a 51 0b	 mov	 dl, BYTE PTR [ecx+11]
  000cb	84 d2		 test	 dl, dl
  000cd	0f 84 71 03 00
	00		 je	 $LN88@ioINILoade
  000d3	80 f2 ea	 xor	 dl, -22			; ffffffeaH
  000d6	88 50 0b	 mov	 BYTE PTR [eax+11], dl
  000d9	8a 51 0c	 mov	 dl, BYTE PTR [ecx+12]
  000dc	84 d2		 test	 dl, dl
  000de	0f 84 5a 03 00
	00		 je	 $LN87@ioINILoade
  000e4	80 f2 ed	 xor	 dl, -19			; ffffffedH
  000e7	88 50 0c	 mov	 BYTE PTR [eax+12], dl
  000ea	8a 51 0d	 mov	 dl, BYTE PTR [ecx+13]
  000ed	84 d2		 test	 dl, dl
  000ef	0f 84 43 03 00
	00		 je	 $LN86@ioINILoade
  000f5	80 f2 ec	 xor	 dl, -20			; ffffffecH
  000f8	88 50 0d	 mov	 BYTE PTR [eax+13], dl
  000fb	8a 51 0e	 mov	 dl, BYTE PTR [ecx+14]
  000fe	84 d2		 test	 dl, dl
  00100	0f 84 2d 03 00
	00		 je	 $LN85@ioINILoade
  00106	32 d3		 xor	 dl, bl
  00108	88 50 0e	 mov	 BYTE PTR [eax+14], dl
  0010b	8a 51 0f	 mov	 dl, BYTE PTR [ecx+15]
  0010e	84 d2		 test	 dl, dl
  00110	0f 84 17 03 00
	00		 je	 $LN84@ioINILoade
  00116	80 f2 ea	 xor	 dl, -22			; ffffffeaH
  00119	88 50 0f	 mov	 BYTE PTR [eax+15], dl
  0011c	8a 51 10	 mov	 dl, BYTE PTR [ecx+16]
  0011f	84 d2		 test	 dl, dl
  00121	0f 84 00 03 00
	00		 je	 $LN83@ioINILoade
  00127	80 f2 ed	 xor	 dl, -19			; ffffffedH
  0012a	88 50 10	 mov	 BYTE PTR [eax+16], dl
  0012d	8a 51 11	 mov	 dl, BYTE PTR [ecx+17]
  00130	84 d2		 test	 dl, dl
  00132	0f 84 e9 02 00
	00		 je	 $LN82@ioINILoade
  00138	80 f2 ec	 xor	 dl, -20			; ffffffecH
  0013b	88 50 11	 mov	 BYTE PTR [eax+17], dl
  0013e	8a 51 12	 mov	 dl, BYTE PTR [ecx+18]
  00141	84 d2		 test	 dl, dl
  00143	0f 84 d3 02 00
	00		 je	 $LN81@ioINILoade
  00149	32 d3		 xor	 dl, bl
  0014b	88 50 12	 mov	 BYTE PTR [eax+18], dl
  0014e	8a 51 13	 mov	 dl, BYTE PTR [ecx+19]
  00151	84 d2		 test	 dl, dl
  00153	0f 84 bd 02 00
	00		 je	 $LN80@ioINILoade
  00159	80 f2 ea	 xor	 dl, -22			; ffffffeaH
  0015c	88 50 13	 mov	 BYTE PTR [eax+19], dl
  0015f	8a 51 14	 mov	 dl, BYTE PTR [ecx+20]
  00162	84 d2		 test	 dl, dl
  00164	0f 84 a6 02 00
	00		 je	 $LN79@ioINILoade
  0016a	80 f2 ed	 xor	 dl, -19			; ffffffedH
  0016d	88 50 14	 mov	 BYTE PTR [eax+20], dl
  00170	8a 51 15	 mov	 dl, BYTE PTR [ecx+21]
  00173	84 d2		 test	 dl, dl
  00175	0f 84 8f 02 00
	00		 je	 $LN78@ioINILoade
  0017b	80 f2 ec	 xor	 dl, -20			; ffffffecH
  0017e	88 50 15	 mov	 BYTE PTR [eax+21], dl
  00181	8a 51 16	 mov	 dl, BYTE PTR [ecx+22]
  00184	84 d2		 test	 dl, dl
  00186	0f 84 79 02 00
	00		 je	 $LN77@ioINILoade
  0018c	32 d3		 xor	 dl, bl
  0018e	88 50 16	 mov	 BYTE PTR [eax+22], dl
  00191	8a 51 17	 mov	 dl, BYTE PTR [ecx+23]
  00194	84 d2		 test	 dl, dl
  00196	0f 84 60 02 00
	00		 je	 $LN76@ioINILoade
  0019c	80 f2 ea	 xor	 dl, -22			; ffffffeaH
  0019f	88 50 17	 mov	 BYTE PTR [eax+23], dl
  001a2	8a 51 18	 mov	 dl, BYTE PTR [ecx+24]
  001a5	84 d2		 test	 dl, dl
  001a7	0f 84 46 02 00
	00		 je	 $LN75@ioINILoade
  001ad	80 f2 ed	 xor	 dl, -19			; ffffffedH
  001b0	88 50 18	 mov	 BYTE PTR [eax+24], dl
  001b3	8a 51 19	 mov	 dl, BYTE PTR [ecx+25]
  001b6	84 d2		 test	 dl, dl
  001b8	0f 84 2c 02 00
	00		 je	 $LN74@ioINILoade
  001be	80 f2 ec	 xor	 dl, -20			; ffffffecH
  001c1	88 50 19	 mov	 BYTE PTR [eax+25], dl
  001c4	8a 51 1a	 mov	 dl, BYTE PTR [ecx+26]
  001c7	84 d2		 test	 dl, dl
  001c9	0f 84 13 02 00
	00		 je	 $LN73@ioINILoade
  001cf	32 d3		 xor	 dl, bl
  001d1	88 50 1a	 mov	 BYTE PTR [eax+26], dl
  001d4	8a 51 1b	 mov	 dl, BYTE PTR [ecx+27]
  001d7	84 d2		 test	 dl, dl
  001d9	0f 84 fa 01 00
	00		 je	 $LN72@ioINILoade
  001df	80 f2 ea	 xor	 dl, -22			; ffffffeaH
  001e2	88 50 1b	 mov	 BYTE PTR [eax+27], dl
  001e5	8a 51 1c	 mov	 dl, BYTE PTR [ecx+28]
  001e8	84 d2		 test	 dl, dl
  001ea	0f 84 e0 01 00
	00		 je	 $LN71@ioINILoade
  001f0	80 f2 ed	 xor	 dl, -19			; ffffffedH
  001f3	88 50 1c	 mov	 BYTE PTR [eax+28], dl
  001f6	8a 51 1d	 mov	 dl, BYTE PTR [ecx+29]
  001f9	84 d2		 test	 dl, dl
  001fb	0f 84 c6 01 00
	00		 je	 $LN70@ioINILoade
  00201	80 f2 ec	 xor	 dl, -20			; ffffffecH
  00204	88 50 1d	 mov	 BYTE PTR [eax+29], dl
  00207	8a 51 1e	 mov	 dl, BYTE PTR [ecx+30]
  0020a	84 d2		 test	 dl, dl
  0020c	0f 84 ad 01 00
	00		 je	 $LN69@ioINILoade
  00212	32 d3		 xor	 dl, bl
  00214	88 50 1e	 mov	 BYTE PTR [eax+30], dl
  00217	8a 51 1f	 mov	 dl, BYTE PTR [ecx+31]
  0021a	84 d2		 test	 dl, dl
  0021c	0f 84 94 01 00
	00		 je	 $LN68@ioINILoade
  00222	80 f2 ea	 xor	 dl, -22			; ffffffeaH
  00225	88 50 1f	 mov	 BYTE PTR [eax+31], dl
  00228	8a 51 20	 mov	 dl, BYTE PTR [ecx+32]
  0022b	84 d2		 test	 dl, dl
  0022d	0f 84 7a 01 00
	00		 je	 $LN67@ioINILoade
  00233	80 f2 ed	 xor	 dl, -19			; ffffffedH
  00236	88 50 20	 mov	 BYTE PTR [eax+32], dl
  00239	8a 51 21	 mov	 dl, BYTE PTR [ecx+33]
  0023c	84 d2		 test	 dl, dl
  0023e	0f 84 60 01 00
	00		 je	 $LN66@ioINILoade
  00244	80 f2 ec	 xor	 dl, -20			; ffffffecH
  00247	88 50 21	 mov	 BYTE PTR [eax+33], dl
  0024a	8a 51 22	 mov	 dl, BYTE PTR [ecx+34]
  0024d	84 d2		 test	 dl, dl
  0024f	0f 84 47 01 00
	00		 je	 $LN65@ioINILoade
  00255	32 d3		 xor	 dl, bl
  00257	88 50 22	 mov	 BYTE PTR [eax+34], dl
  0025a	8a 51 23	 mov	 dl, BYTE PTR [ecx+35]
  0025d	84 d2		 test	 dl, dl
  0025f	0f 84 2e 01 00
	00		 je	 $LN64@ioINILoade
  00265	80 f2 ea	 xor	 dl, -22			; ffffffeaH
  00268	88 50 23	 mov	 BYTE PTR [eax+35], dl
  0026b	8a 51 24	 mov	 dl, BYTE PTR [ecx+36]
  0026e	84 d2		 test	 dl, dl
  00270	0f 84 14 01 00
	00		 je	 $LN63@ioINILoade
  00276	80 f2 ed	 xor	 dl, -19			; ffffffedH
  00279	88 50 24	 mov	 BYTE PTR [eax+36], dl
  0027c	8a 51 25	 mov	 dl, BYTE PTR [ecx+37]
  0027f	84 d2		 test	 dl, dl
  00281	0f 84 fa 00 00
	00		 je	 $LN62@ioINILoade
  00287	80 f2 ec	 xor	 dl, -20			; ffffffecH
  0028a	88 50 25	 mov	 BYTE PTR [eax+37], dl
  0028d	8a 51 26	 mov	 dl, BYTE PTR [ecx+38]
  00290	84 d2		 test	 dl, dl
  00292	0f 84 e1 00 00
	00		 je	 $LN61@ioINILoade
  00298	32 d3		 xor	 dl, bl
  0029a	88 50 26	 mov	 BYTE PTR [eax+38], dl
  0029d	8a 51 27	 mov	 dl, BYTE PTR [ecx+39]
  002a0	84 d2		 test	 dl, dl
  002a2	0f 84 c8 00 00
	00		 je	 $LN60@ioINILoade
  002a8	80 f2 ea	 xor	 dl, -22			; ffffffeaH
  002ab	88 50 27	 mov	 BYTE PTR [eax+39], dl
  002ae	8a 51 28	 mov	 dl, BYTE PTR [ecx+40]
  002b1	84 d2		 test	 dl, dl
  002b3	0f 84 ae 00 00
	00		 je	 $LN59@ioINILoade
  002b9	80 f2 ed	 xor	 dl, -19			; ffffffedH
  002bc	88 50 28	 mov	 BYTE PTR [eax+40], dl
  002bf	8a 51 29	 mov	 dl, BYTE PTR [ecx+41]
  002c2	84 d2		 test	 dl, dl
  002c4	0f 84 94 00 00
	00		 je	 $LN58@ioINILoade
  002ca	80 f2 ec	 xor	 dl, -20			; ffffffecH
  002cd	88 50 29	 mov	 BYTE PTR [eax+41], dl
  002d0	8a 51 2a	 mov	 dl, BYTE PTR [ecx+42]
  002d3	84 d2		 test	 dl, dl
  002d5	74 7f		 je	 SHORT $LN57@ioINILoade
  002d7	32 d3		 xor	 dl, bl
  002d9	88 50 2a	 mov	 BYTE PTR [eax+42], dl
  002dc	8a 51 2b	 mov	 dl, BYTE PTR [ecx+43]
  002df	84 d2		 test	 dl, dl
  002e1	74 6a		 je	 SHORT $LN56@ioINILoade
  002e3	80 f2 ea	 xor	 dl, -22			; ffffffeaH
  002e6	88 50 2b	 mov	 BYTE PTR [eax+43], dl
  002e9	8a 51 2c	 mov	 dl, BYTE PTR [ecx+44]
  002ec	84 d2		 test	 dl, dl
  002ee	74 54		 je	 SHORT $LN55@ioINILoade
  002f0	80 f2 ed	 xor	 dl, -19			; ffffffedH
  002f3	88 50 2c	 mov	 BYTE PTR [eax+44], dl
  002f6	8a 51 2d	 mov	 dl, BYTE PTR [ecx+45]
  002f9	84 d2		 test	 dl, dl
  002fb	74 3e		 je	 SHORT $LN54@ioINILoade
  002fd	80 f2 ec	 xor	 dl, -20			; ffffffecH
  00300	88 50 2d	 mov	 BYTE PTR [eax+45], dl
  00303	8a 51 2e	 mov	 dl, BYTE PTR [ecx+46]
  00306	84 d2		 test	 dl, dl
  00308	74 29		 je	 SHORT $LN53@ioINILoade
  0030a	32 d3		 xor	 dl, bl
  0030c	88 50 2e	 mov	 BYTE PTR [eax+46], dl
  0030f	8a 51 2f	 mov	 dl, BYTE PTR [ecx+47]
  00312	84 d2		 test	 dl, dl
  00314	74 14		 je	 SHORT $LN52@ioINILoade
  00316	80 f2 ea	 xor	 dl, -22			; ffffffeaH
  00319	88 50 2f	 mov	 BYTE PTR [eax+47], dl
  0031c	8a 49 30	 mov	 cl, BYTE PTR [ecx+48]
  0031f	80 f1 ed	 xor	 cl, -19			; ffffffedH
  00322	88 48 30	 mov	 BYTE PTR [eax+48], cl
  00325	e9 5d 01 00 00	 jmp	 $LN4@ioINILoade
$LN52@ioINILoade:
  0032a	c6 40 2f ea	 mov	 BYTE PTR [eax+47], -22	; ffffffeaH
  0032e	e9 54 01 00 00	 jmp	 $LN4@ioINILoade
$LN53@ioINILoade:
  00333	88 58 2e	 mov	 BYTE PTR [eax+46], bl
  00336	e9 4c 01 00 00	 jmp	 $LN4@ioINILoade
$LN54@ioINILoade:
  0033b	c6 40 2d ec	 mov	 BYTE PTR [eax+45], -20	; ffffffecH
  0033f	e9 43 01 00 00	 jmp	 $LN4@ioINILoade
$LN55@ioINILoade:
  00344	c6 40 2c ed	 mov	 BYTE PTR [eax+44], -19	; ffffffedH
  00348	e9 3a 01 00 00	 jmp	 $LN4@ioINILoade
$LN56@ioINILoade:
  0034d	c6 40 2b ea	 mov	 BYTE PTR [eax+43], -22	; ffffffeaH
  00351	e9 31 01 00 00	 jmp	 $LN4@ioINILoade
$LN57@ioINILoade:
  00356	88 58 2a	 mov	 BYTE PTR [eax+42], bl
  00359	e9 29 01 00 00	 jmp	 $LN4@ioINILoade
$LN58@ioINILoade:
  0035e	c6 40 29 ec	 mov	 BYTE PTR [eax+41], -20	; ffffffecH
  00362	e9 20 01 00 00	 jmp	 $LN4@ioINILoade
$LN59@ioINILoade:
  00367	c6 40 28 ed	 mov	 BYTE PTR [eax+40], -19	; ffffffedH
  0036b	e9 17 01 00 00	 jmp	 $LN4@ioINILoade
$LN60@ioINILoade:
  00370	c6 40 27 ea	 mov	 BYTE PTR [eax+39], -22	; ffffffeaH
  00374	e9 0e 01 00 00	 jmp	 $LN4@ioINILoade
$LN61@ioINILoade:
  00379	88 58 26	 mov	 BYTE PTR [eax+38], bl
  0037c	e9 06 01 00 00	 jmp	 $LN4@ioINILoade
$LN62@ioINILoade:
  00381	c6 40 25 ec	 mov	 BYTE PTR [eax+37], -20	; ffffffecH
  00385	e9 fd 00 00 00	 jmp	 $LN4@ioINILoade
$LN63@ioINILoade:
  0038a	c6 40 24 ed	 mov	 BYTE PTR [eax+36], -19	; ffffffedH
  0038e	e9 f4 00 00 00	 jmp	 $LN4@ioINILoade
$LN64@ioINILoade:
  00393	c6 40 23 ea	 mov	 BYTE PTR [eax+35], -22	; ffffffeaH
  00397	e9 eb 00 00 00	 jmp	 $LN4@ioINILoade
$LN65@ioINILoade:
  0039c	88 58 22	 mov	 BYTE PTR [eax+34], bl
  0039f	e9 e3 00 00 00	 jmp	 $LN4@ioINILoade
$LN66@ioINILoade:
  003a4	c6 40 21 ec	 mov	 BYTE PTR [eax+33], -20	; ffffffecH
  003a8	e9 da 00 00 00	 jmp	 $LN4@ioINILoade
$LN67@ioINILoade:
  003ad	c6 40 20 ed	 mov	 BYTE PTR [eax+32], -19	; ffffffedH
  003b1	e9 d1 00 00 00	 jmp	 $LN4@ioINILoade
$LN68@ioINILoade:
  003b6	c6 40 1f ea	 mov	 BYTE PTR [eax+31], -22	; ffffffeaH
  003ba	e9 c8 00 00 00	 jmp	 $LN4@ioINILoade
$LN69@ioINILoade:
  003bf	88 58 1e	 mov	 BYTE PTR [eax+30], bl
  003c2	e9 c0 00 00 00	 jmp	 $LN4@ioINILoade
$LN70@ioINILoade:
  003c7	c6 40 1d ec	 mov	 BYTE PTR [eax+29], -20	; ffffffecH
  003cb	e9 b7 00 00 00	 jmp	 $LN4@ioINILoade
$LN71@ioINILoade:
  003d0	c6 40 1c ed	 mov	 BYTE PTR [eax+28], -19	; ffffffedH
  003d4	e9 ae 00 00 00	 jmp	 $LN4@ioINILoade
$LN72@ioINILoade:
  003d9	c6 40 1b ea	 mov	 BYTE PTR [eax+27], -22	; ffffffeaH
  003dd	e9 a5 00 00 00	 jmp	 $LN4@ioINILoade
$LN73@ioINILoade:
  003e2	88 58 1a	 mov	 BYTE PTR [eax+26], bl
  003e5	e9 9d 00 00 00	 jmp	 $LN4@ioINILoade
$LN74@ioINILoade:
  003ea	c6 40 19 ec	 mov	 BYTE PTR [eax+25], -20	; ffffffecH
  003ee	e9 94 00 00 00	 jmp	 $LN4@ioINILoade
$LN75@ioINILoade:
  003f3	c6 40 18 ed	 mov	 BYTE PTR [eax+24], -19	; ffffffedH
  003f7	e9 8b 00 00 00	 jmp	 $LN4@ioINILoade
$LN76@ioINILoade:
  003fc	c6 40 17 ea	 mov	 BYTE PTR [eax+23], -22	; ffffffeaH
  00400	e9 82 00 00 00	 jmp	 $LN4@ioINILoade
$LN77@ioINILoade:
  00405	88 58 16	 mov	 BYTE PTR [eax+22], bl
  00408	eb 7d		 jmp	 SHORT $LN4@ioINILoade
$LN78@ioINILoade:
  0040a	c6 40 15 ec	 mov	 BYTE PTR [eax+21], -20	; ffffffecH
  0040e	eb 77		 jmp	 SHORT $LN4@ioINILoade
$LN79@ioINILoade:
  00410	c6 40 14 ed	 mov	 BYTE PTR [eax+20], -19	; ffffffedH
  00414	eb 71		 jmp	 SHORT $LN4@ioINILoade
$LN80@ioINILoade:
  00416	c6 40 13 ea	 mov	 BYTE PTR [eax+19], -22	; ffffffeaH
  0041a	eb 6b		 jmp	 SHORT $LN4@ioINILoade
$LN81@ioINILoade:
  0041c	88 58 12	 mov	 BYTE PTR [eax+18], bl
  0041f	eb 66		 jmp	 SHORT $LN4@ioINILoade
$LN82@ioINILoade:
  00421	c6 40 11 ec	 mov	 BYTE PTR [eax+17], -20	; ffffffecH
  00425	eb 60		 jmp	 SHORT $LN4@ioINILoade
$LN83@ioINILoade:
  00427	c6 40 10 ed	 mov	 BYTE PTR [eax+16], -19	; ffffffedH
  0042b	eb 5a		 jmp	 SHORT $LN4@ioINILoade
$LN84@ioINILoade:
  0042d	c6 40 0f ea	 mov	 BYTE PTR [eax+15], -22	; ffffffeaH
  00431	eb 54		 jmp	 SHORT $LN4@ioINILoade
$LN85@ioINILoade:
  00433	88 58 0e	 mov	 BYTE PTR [eax+14], bl
  00436	eb 4f		 jmp	 SHORT $LN4@ioINILoade
$LN86@ioINILoade:
  00438	c6 40 0d ec	 mov	 BYTE PTR [eax+13], -20	; ffffffecH
  0043c	eb 49		 jmp	 SHORT $LN4@ioINILoade
$LN87@ioINILoade:
  0043e	c6 40 0c ed	 mov	 BYTE PTR [eax+12], -19	; ffffffedH
  00442	eb 43		 jmp	 SHORT $LN4@ioINILoade
$LN88@ioINILoade:
  00444	c6 40 0b ea	 mov	 BYTE PTR [eax+11], -22	; ffffffeaH
  00448	eb 3d		 jmp	 SHORT $LN4@ioINILoade
$LN89@ioINILoade:
  0044a	88 58 0a	 mov	 BYTE PTR [eax+10], bl
  0044d	eb 38		 jmp	 SHORT $LN4@ioINILoade
$LN90@ioINILoade:
  0044f	c6 40 09 ec	 mov	 BYTE PTR [eax+9], -20	; ffffffecH
  00453	eb 32		 jmp	 SHORT $LN4@ioINILoade
$LN91@ioINILoade:
  00455	c6 40 08 ed	 mov	 BYTE PTR [eax+8], -19	; ffffffedH
  00459	eb 2c		 jmp	 SHORT $LN4@ioINILoade
$LN92@ioINILoade:
  0045b	c6 40 07 ea	 mov	 BYTE PTR [eax+7], -22	; ffffffeaH
  0045f	eb 26		 jmp	 SHORT $LN4@ioINILoade
$LN93@ioINILoade:
  00461	88 58 06	 mov	 BYTE PTR [eax+6], bl
  00464	eb 21		 jmp	 SHORT $LN4@ioINILoade
$LN94@ioINILoade:
  00466	c6 40 05 ec	 mov	 BYTE PTR [eax+5], -20	; ffffffecH
  0046a	eb 1b		 jmp	 SHORT $LN4@ioINILoade
$LN95@ioINILoade:
  0046c	c6 40 04 ed	 mov	 BYTE PTR [eax+4], -19	; ffffffedH
  00470	eb 15		 jmp	 SHORT $LN4@ioINILoade
$LN96@ioINILoade:
  00472	c6 40 03 ea	 mov	 BYTE PTR [eax+3], -22	; ffffffeaH
  00476	eb 0f		 jmp	 SHORT $LN4@ioINILoade
$LN97@ioINILoade:
  00478	c6 40 02 eb	 mov	 BYTE PTR [eax+2], -21	; ffffffebH
  0047c	eb 09		 jmp	 SHORT $LN4@ioINILoade
$LN98@ioINILoade:
  0047e	c6 40 01 ec	 mov	 BYTE PTR [eax+1], -20	; ffffffecH
  00482	eb 03		 jmp	 SHORT $LN4@ioINILoade
$LN99@ioINILoade:
  00484	c6 00 ed	 mov	 BYTE PTR [eax], -19	; ffffffedH
$LN4@ioINILoade:
  00487	6a 07		 push	 7
  00489	8b c8		 mov	 ecx, eax
  0048b	c6 40 1c 00	 mov	 BYTE PTR [eax+28], 0
  0048f	5a		 pop	 edx
$LL107@ioINILoade:
  00490	81 31 ed ec eb
	ea		 xor	 DWORD PTR [ecx], -353637139 ; eaebecedH
  00496	83 c1 04	 add	 ecx, 4
  00499	4a		 dec	 edx
  0049a	75 f4		 jne	 SHORT $LL107@ioINILoade
  0049c	ff 75 0c	 push	 DWORD PTR _b$[ebp]
  0049f	8b ce		 mov	 ecx, esi
  004a1	50		 push	 eax
  004a2	ff 15 00 00 00
	00		 call	 DWORD PTR __imp_??0ioINILoader@@QAE@PBD_N@Z

; 225  : 	}

  004a8	8b c6		 mov	 eax, esi
  004aa	5e		 pop	 esi
  004ab	5b		 pop	 ebx
  004ac	5d		 pop	 ebp
  004ad	c2 08 00	 ret	 8
??$?0$0BN@@ioINILoader_e@@QAE@AAY0BN@$$CBD_N@Z ENDP	; ioINILoader_e::ioINILoader_e<29>
_TEXT	ENDS
PUBLIC	??$_Dest_val@V?$allocator@USetupBlockItemInfo@@@std@@USetupBlockItemInfo@@@std@@YAXAAV?$allocator@USetupBlockItemInfo@@@0@PAUSetupBlockItemInfo@@@Z ; std::_Dest_val<std::allocator<SetupBlockItemInfo>,SetupBlockItemInfo>
; Function compile flags: /Ogsp
; File c:\program files (x86)\microsoft visual studio 10.0\vc\include\xmemory
;	COMDAT ??$_Dest_val@V?$allocator@USetupBlockItemInfo@@@std@@USetupBlockItemInfo@@@std@@YAXAAV?$allocator@USetupBlockItemInfo@@@0@PAUSetupBlockItemInfo@@@Z
_TEXT	SEGMENT
__Alval$ = 8						; size = 4
__Pdest$ = 12						; size = 4
??$_Dest_val@V?$allocator@USetupBlockItemInfo@@@std@@USetupBlockItemInfo@@@std@@YAXAAV?$allocator@USetupBlockItemInfo@@@0@PAUSetupBlockItemInfo@@@Z PROC ; std::_Dest_val<std::allocator<SetupBlockItemInfo>,SetupBlockItemInfo>, COMDAT

; 287  : 	_Alval.destroy(_Pdest);
; 288  : 	}

  00000	c3		 ret	 0
??$_Dest_val@V?$allocator@USetupBlockItemInfo@@@std@@USetupBlockItemInfo@@@std@@YAXAAV?$allocator@USetupBlockItemInfo@@@0@PAUSetupBlockItemInfo@@@Z ENDP ; std::_Dest_val<std::allocator<SetupBlockItemInfo>,SetupBlockItemInfo>
_TEXT	ENDS
PUBLIC	??_C@_0M@CJJOLBEJ@block_limit?$AA@		; `string'
PUBLIC	?Initialize@ioBlockSetupManager@@QAEXPAVioPlayStage@@W4BlockModeType@@@Z ; ioBlockSetupManager::Initialize
EXTRN	__imp_?LoadInt@ioINILoader@@QAEHPBDH@Z:PROC
EXTRN	__EH_epilog3_GS:PROC
EXTRN	__EH_prolog3_GS:PROC
;	COMDAT ??_C@_0M@CJJOLBEJ@block_limit?$AA@
; File d:\lost saga for developer\youtube\tutorial\source\src\lsclient\housing\ioblocksetupmanager.cpp
CONST	SEGMENT
??_C@_0M@CJJOLBEJ@block_limit?$AA@ DB 'block_limit', 00H ; `string'
CONST	ENDS
;	COMDAT xdata$x
xdata$x	SEGMENT
__unwindtable$?Initialize@ioBlockSetupManager@@QAEXPAVioPlayStage@@W4BlockModeType@@@Z DD 0ffffffffH
	DD	FLAT:__unwindfunclet$?Initialize@ioBlockSetupManager@@QAEXPAVioPlayStage@@W4BlockModeType@@@Z$0
__ehfuncinfo$?Initialize@ioBlockSetupManager@@QAEXPAVioPlayStage@@W4BlockModeType@@@Z DD 019930522H
	DD	01H
	DD	FLAT:__unwindtable$?Initialize@ioBlockSetupManager@@QAEXPAVioPlayStage@@W4BlockModeType@@@Z
	DD	2 DUP(00H)
	DD	2 DUP(00H)
	DD	00H
	DD	01H
; Function compile flags: /Ogsp
xdata$x	ENDS
;	COMDAT ?Initialize@ioBlockSetupManager@@QAEXPAVioPlayStage@@W4BlockModeType@@@Z
_TEXT	SEGMENT
_kLoader$ = -940					; size = 912
__t$539125 = -28					; size = 7
__$EHRec$ = -12						; size = 12
_pStage$ = 8						; size = 4
_eType$ = 12						; size = 4
?Initialize@ioBlockSetupManager@@QAEXPAVioPlayStage@@W4BlockModeType@@@Z PROC ; ioBlockSetupManager::Initialize, COMDAT
; _this$ = ecx

; 33   : {

  00000	68 a0 03 00 00	 push	 928			; 000003a0H
  00005	b8 00 00 00 00	 mov	 eax, __ehhandler$?Initialize@ioBlockSetupManager@@QAEXPAVioPlayStage@@W4BlockModeType@@@Z
  0000a	e8 00 00 00 00	 call	 __EH_prolog3_GS

; 34   : 	m_pStage				= pStage;

  0000f	8b 45 08	 mov	 eax, DWORD PTR _pStage$[ebp]
  00012	8b f1		 mov	 esi, ecx

; 35   : 	m_BlockModeType			= eType;
; 36   : 	m_nSetUpItemListIndex	= 0;

  00014	83 66 30 00	 and	 DWORD PTR [esi+48], 0
  00018	89 46 04	 mov	 DWORD PTR [esi+4], eax
  0001b	8b 45 0c	 mov	 eax, DWORD PTR _eType$[ebp]

; 37   : 
; 38   : 	m_SetUpAdminUser.Clear();

  0001e	8d 4e 20	 lea	 ecx, DWORD PTR [esi+32]
  00021	89 46 08	 mov	 DWORD PTR [esi+8], eax
  00024	ff 15 00 00 00
	00		 call	 DWORD PTR __imp_?Clear@ioHashString@@QAEXXZ

; 39   : 
; 40   : 	ioINILoader_e kLoader( "config/housing/sp2_block.ini" );

  0002a	6a 07		 push	 7
  0002c	c7 45 a4 8e 83
	85 8c		 mov	 DWORD PTR _kLoader$[ebp+848], -1937407090 ; 8c85838eH
  00033	c7 45 a8 84 8b
	c4 82		 mov	 DWORD PTR _kLoader$[ebp+852], -2101048444 ; 82c48b84H
  0003a	c7 45 ac 82 99
	98 83		 mov	 DWORD PTR _kLoader$[ebp+856], -2087151230 ; 83989982H
  00041	c7 45 b0 83 8b
	c4 99		 mov	 DWORD PTR _kLoader$[ebp+860], -1715172477 ; 99c48b83H
  00048	c7 45 b4 9d de
	b4 88		 mov	 DWORD PTR _kLoader$[ebp+864], -2001412451 ; 88b4de9dH
  0004f	c7 45 b8 81 83
	88 81		 mov	 DWORD PTR _kLoader$[ebp+868], -2121759871 ; 81888381H
  00056	c7 45 bc c3 85
	85 83		 mov	 DWORD PTR _kLoader$[ebp+872], -2088401469 ; 838585c3H
  0005d	8d 45 a4	 lea	 eax, DWORD PTR _kLoader$[ebp+848]
  00060	c6 45 c0 00	 mov	 BYTE PTR _kLoader$[ebp+876], 0
  00064	59		 pop	 ecx
  00065	bf ed ec eb ea	 mov	 edi, -353637139		; eaebecedH
$LL110@Initialize:
  0006a	31 38		 xor	 DWORD PTR [eax], edi
  0006c	83 c0 04	 add	 eax, 4
  0006f	49		 dec	 ecx
  00070	75 f8		 jne	 SHORT $LL110@Initialize
  00072	6a 01		 push	 1
  00074	8d 45 a4	 lea	 eax, DWORD PTR _kLoader$[ebp+848]
  00077	50		 push	 eax
  00078	8d 8d 54 fc ff
	ff		 lea	 ecx, DWORD PTR _kLoader$[ebp]
  0007e	ff 15 00 00 00
	00		 call	 DWORD PTR __imp_??0ioINILoader@@QAE@PBD_N@Z
  00084	83 65 fc 00	 and	 DWORD PTR __$EHRec$[ebp+8], 0

; 41   : 	kLoader.SetTitle_e( "common" );

  00088	6a 04		 push	 4
  0008a	c7 45 e4 8e 83
	86 87		 mov	 DWORD PTR __t$539125[ebp], -2021227634 ; 8786838eH
  00091	31 7d e4	 xor	 DWORD PTR __t$539125[ebp], edi
  00094	66 c7 45 e8 82
	82		 mov	 WORD PTR __t$539125[ebp+4], 33410 ; 00008282H
  0009a	c6 45 ea 00	 mov	 BYTE PTR __t$539125[ebp+6], 0
  0009e	58		 pop	 eax
$LL213@Initialize:
  0009f	8b c8		 mov	 ecx, eax
  000a1	81 e1 03 00 00
	80		 and	 ecx, -2147483645	; 80000003H
  000a7	79 05		 jns	 SHORT $LN231@Initialize
  000a9	49		 dec	 ecx
  000aa	83 c9 fc	 or	 ecx, -4			; fffffffcH
  000ad	41		 inc	 ecx
$LN231@Initialize:
  000ae	b2 ed		 mov	 dl, -19			; ffffffedH
  000b0	2a d1		 sub	 dl, cl
  000b2	30 54 05 e4	 xor	 BYTE PTR __t$539125[ebp+eax], dl
  000b6	40		 inc	 eax
  000b7	83 f8 06	 cmp	 eax, 6
  000ba	7c e3		 jl	 SHORT $LL213@Initialize
  000bc	8d 45 e4	 lea	 eax, DWORD PTR __t$539125[ebp]
  000bf	50		 push	 eax
  000c0	8d 8d 54 fc ff
	ff		 lea	 ecx, DWORD PTR _kLoader$[ebp]
  000c6	ff 15 00 00 00
	00		 call	 DWORD PTR __imp_?SetTitle@ioINILoader@@QAEXPBD@Z

; 42   : 
; 43   : 	m_nBlockLimitCount = kLoader.LoadInt( "block_limit", 3000 );

  000cc	68 b8 0b 00 00	 push	 3000			; 00000bb8H
  000d1	68 00 00 00 00	 push	 OFFSET ??_C@_0M@CJJOLBEJ@block_limit?$AA@
  000d6	8d 8d 54 fc ff
	ff		 lea	 ecx, DWORD PTR _kLoader$[ebp]
  000dc	ff 15 00 00 00
	00		 call	 DWORD PTR __imp_?LoadInt@ioINILoader@@QAEHPBDH@Z

; 44   : }

  000e2	83 4d fc ff	 or	 DWORD PTR __$EHRec$[ebp+8], -1
  000e6	8d 8d 54 fc ff
	ff		 lea	 ecx, DWORD PTR _kLoader$[ebp]
  000ec	89 46 34	 mov	 DWORD PTR [esi+52], eax
  000ef	ff 15 00 00 00
	00		 call	 DWORD PTR __imp_??1ioINILoader@@QAE@XZ
  000f5	e8 00 00 00 00	 call	 __EH_epilog3_GS
  000fa	c2 08 00	 ret	 8
_TEXT	ENDS
;	COMDAT text$x
text$x	SEGMENT
__unwindfunclet$?Initialize@ioBlockSetupManager@@QAEXPAVioPlayStage@@W4BlockModeType@@@Z$0:
  00000	8d 8d 54 fc ff
	ff		 lea	 ecx, DWORD PTR _kLoader$[ebp]
  00006	e9 00 00 00 00	 jmp	 ??1ioINILoader_e@@QAE@XZ
__ehhandler$?Initialize@ioBlockSetupManager@@QAEXPAVioPlayStage@@W4BlockModeType@@@Z:
  0000b	8b 54 24 08	 mov	 edx, DWORD PTR [esp+8]
  0000f	8d 42 0c	 lea	 eax, DWORD PTR [edx+12]
  00012	8b 8a 50 fc ff
	ff		 mov	 ecx, DWORD PTR [edx-944]
  00018	33 c8		 xor	 ecx, eax
  0001a	e8 00 00 00 00	 call	 @__security_check_cookie@4
  0001f	8b 4a fc	 mov	 ecx, DWORD PTR [edx-4]
  00022	33 c8		 xor	 ecx, eax
  00024	e8 00 00 00 00	 call	 @__security_check_cookie@4
  00029	b8 00 00 00 00	 mov	 eax, OFFSET __ehfuncinfo$?Initialize@ioBlockSetupManager@@QAEXPAVioPlayStage@@W4BlockModeType@@@Z
  0002e	e9 00 00 00 00	 jmp	 ___CxxFrameHandler3
text$x	ENDS
?Initialize@ioBlockSetupManager@@QAEXPAVioPlayStage@@W4BlockModeType@@@Z ENDP ; ioBlockSetupManager::Initialize
PUBLIC	?HousingSetUpProcess@ioBlockSetupManager@@QAEXXZ ; ioBlockSetupManager::HousingSetUpProcess
; Function compile flags: /Ogsp
;	COMDAT ?HousingSetUpProcess@ioBlockSetupManager@@QAEXXZ
_TEXT	SEGMENT
?HousingSetUpProcess@ioBlockSetupManager@@QAEXXZ PROC	; ioBlockSetupManager::HousingSetUpProcess, COMDAT
; _this$ = ecx

; 73   : {

  00000	56		 push	 esi
  00001	8b f1		 mov	 esi, ecx

; 74   : 	if( IsSetUpState() )

  00003	e8 00 00 00 00	 call	 ?IsSetUpState@ioBlockSetupManager@@QAE_NXZ ; ioBlockSetupManager::IsSetUpState

; 75   : 		EndSetUpState();

  00008	8b ce		 mov	 ecx, esi
  0000a	5e		 pop	 esi
  0000b	84 c0		 test	 al, al
  0000d	74 05		 je	 SHORT $LN2@HousingSet
  0000f	e9 00 00 00 00	 jmp	 ?EndSetUpState@ioBlockSetupManager@@QAEXXZ ; ioBlockSetupManager::EndSetUpState
$LN2@HousingSet:

; 76   : 	else
; 77   : 		BeginSetUpState();

  00014	e9 00 00 00 00	 jmp	 ?BeginSetUpState@ioBlockSetupManager@@QAEXXZ ; ioBlockSetupManager::BeginSetUpState
?HousingSetUpProcess@ioBlockSetupManager@@QAEXXZ ENDP	; ioBlockSetupManager::HousingSetUpProcess
_TEXT	ENDS
PUBLIC	??$_Destroy_range@V?$allocator@USetupBlockItemInfo@@@std@@@std@@YAXPAUSetupBlockItemInfo@@0AAV?$allocator@USetupBlockItemInfo@@@0@U_Nonscalar_ptr_iterator_tag@0@@Z ; std::_Destroy_range<std::allocator<SetupBlockItemInfo> >
; Function compile flags: /Ogsp
; File c:\program files (x86)\microsoft visual studio 10.0\vc\include\xmemory
;	COMDAT ??$_Destroy_range@V?$allocator@USetupBlockItemInfo@@@std@@@std@@YAXPAUSetupBlockItemInfo@@0AAV?$allocator@USetupBlockItemInfo@@@0@U_Nonscalar_ptr_iterator_tag@0@@Z
_TEXT	SEGMENT
__First$ = 8						; size = 4
__Last$ = 12						; size = 4
__Al$ = 16						; size = 4
___formal$ = 20						; size = 1
??$_Destroy_range@V?$allocator@USetupBlockItemInfo@@@std@@@std@@YAXPAUSetupBlockItemInfo@@0AAV?$allocator@USetupBlockItemInfo@@@0@U_Nonscalar_ptr_iterator_tag@0@@Z PROC ; std::_Destroy_range<std::allocator<SetupBlockItemInfo> >, COMDAT

; 96   : 	for (; _First != _Last; ++_First)
; 97   : 		_Dest_val(_Al, _First);
; 98   : 	}

  00000	c3		 ret	 0
??$_Destroy_range@V?$allocator@USetupBlockItemInfo@@@std@@@std@@YAXPAUSetupBlockItemInfo@@0AAV?$allocator@USetupBlockItemInfo@@@0@U_Nonscalar_ptr_iterator_tag@0@@Z ENDP ; std::_Destroy_range<std::allocator<SetupBlockItemInfo> >
_TEXT	ENDS
PUBLIC	??$_Destroy_range@V?$allocator@USetupBlockItemInfo@@@std@@@std@@YAXPAUSetupBlockItemInfo@@0AAV?$allocator@USetupBlockItemInfo@@@0@@Z ; std::_Destroy_range<std::allocator<SetupBlockItemInfo> >
; Function compile flags: /Ogsp
;	COMDAT ??$_Destroy_range@V?$allocator@USetupBlockItemInfo@@@std@@@std@@YAXPAUSetupBlockItemInfo@@0AAV?$allocator@USetupBlockItemInfo@@@0@@Z
_TEXT	SEGMENT
__First$ = 8						; size = 4
__Last$ = 12						; size = 4
__Al$ = 16						; size = 4
??$_Destroy_range@V?$allocator@USetupBlockItemInfo@@@std@@@std@@YAXPAUSetupBlockItemInfo@@0AAV?$allocator@USetupBlockItemInfo@@@0@@Z PROC ; std::_Destroy_range<std::allocator<SetupBlockItemInfo> >, COMDAT

; 88   : 	_Destroy_range(_First, _Last, _Al, _Ptr_cat(_First, _Last));
; 89   : 	}

  00000	c3		 ret	 0
??$_Destroy_range@V?$allocator@USetupBlockItemInfo@@@std@@@std@@YAXPAUSetupBlockItemInfo@@0AAV?$allocator@USetupBlockItemInfo@@@0@@Z ENDP ; std::_Destroy_range<std::allocator<SetupBlockItemInfo> >
_TEXT	ENDS
PUBLIC	?_Destroy@?$vector@USetupBlockItemInfo@@V?$allocator@USetupBlockItemInfo@@@std@@@std@@IAEXPAUSetupBlockItemInfo@@0@Z ; std::vector<SetupBlockItemInfo,std::allocator<SetupBlockItemInfo> >::_Destroy
; Function compile flags: /Ogsp
; File c:\program files (x86)\microsoft visual studio 10.0\vc\include\vector
;	COMDAT ?_Destroy@?$vector@USetupBlockItemInfo@@V?$allocator@USetupBlockItemInfo@@@std@@@std@@IAEXPAUSetupBlockItemInfo@@0@Z
_TEXT	SEGMENT
__First$ = 8						; size = 4
__Last$ = 12						; size = 4
?_Destroy@?$vector@USetupBlockItemInfo@@V?$allocator@USetupBlockItemInfo@@@std@@@std@@IAEXPAUSetupBlockItemInfo@@0@Z PROC ; std::vector<SetupBlockItemInfo,std::allocator<SetupBlockItemInfo> >::_Destroy, COMDAT
; _this$ = ecx

; 1270 : 		_Destroy_range(_First, _Last, this->_Alval);
; 1271 : 		}

  00000	c2 08 00	 ret	 8
?_Destroy@?$vector@USetupBlockItemInfo@@V?$allocator@USetupBlockItemInfo@@@std@@@std@@IAEXPAUSetupBlockItemInfo@@0@Z ENDP ; std::vector<SetupBlockItemInfo,std::allocator<SetupBlockItemInfo> >::_Destroy
_TEXT	ENDS
PUBLIC	?_Tidy@?$vector@USetupBlockItemInfo@@V?$allocator@USetupBlockItemInfo@@@std@@@std@@IAEXXZ ; std::vector<SetupBlockItemInfo,std::allocator<SetupBlockItemInfo> >::_Tidy
EXTRN	__imp_?_Orphan_all@_Container_base0@std@@QAEXXZ:PROC
; Function compile flags: /Ogsp
;	COMDAT ?_Tidy@?$vector@USetupBlockItemInfo@@V?$allocator@USetupBlockItemInfo@@@std@@@std@@IAEXXZ
_TEXT	SEGMENT
?_Tidy@?$vector@USetupBlockItemInfo@@V?$allocator@USetupBlockItemInfo@@@std@@@std@@IAEXXZ PROC ; std::vector<SetupBlockItemInfo,std::allocator<SetupBlockItemInfo> >::_Tidy, COMDAT
; _this$ = ecx

; 1301 : 		{	// free all storage

  00000	56		 push	 esi
  00001	8b f1		 mov	 esi, ecx

; 1302 : 		if (this->_Myfirst != 0)

  00003	83 3e 00	 cmp	 DWORD PTR [esi], 0
  00006	74 0e		 je	 SHORT $LN21@Tidy

; 1303 : 			{	// something to free, destroy and deallocate it
; 1304 : 			this->_Orphan_all();

  00008	ff 15 00 00 00
	00		 call	 DWORD PTR __imp_?_Orphan_all@_Container_base0@std@@QAEXXZ

; 1305 : 			_Destroy(this->_Myfirst, this->_Mylast);
; 1306 : 			this->_Alval.deallocate(this->_Myfirst,
; 1307 : 				this->_Myend - this->_Myfirst);

  0000e	ff 36		 push	 DWORD PTR [esi]
  00010	e8 00 00 00 00	 call	 ??3@YAXPAX@Z		; operator delete
  00015	59		 pop	 ecx
$LN21@Tidy:

; 1308 : 			}
; 1309 : 		this->_Myfirst = 0;

  00016	83 26 00	 and	 DWORD PTR [esi], 0

; 1310 : 		this->_Mylast = 0;

  00019	83 66 04 00	 and	 DWORD PTR [esi+4], 0

; 1311 : 		this->_Myend = 0;

  0001d	83 66 08 00	 and	 DWORD PTR [esi+8], 0
  00021	5e		 pop	 esi

; 1312 : 		}

  00022	c3		 ret	 0
?_Tidy@?$vector@USetupBlockItemInfo@@V?$allocator@USetupBlockItemInfo@@@std@@@std@@IAEXXZ ENDP ; std::vector<SetupBlockItemInfo,std::allocator<SetupBlockItemInfo> >::_Tidy
_TEXT	ENDS
PUBLIC	??1?$vector@USetupBlockItemInfo@@V?$allocator@USetupBlockItemInfo@@@std@@@std@@QAE@XZ ; std::vector<SetupBlockItemInfo,std::allocator<SetupBlockItemInfo> >::~vector<SetupBlockItemInfo,std::allocator<SetupBlockItemInfo> >
; Function compile flags: /Ogsp
;	COMDAT ??1?$vector@USetupBlockItemInfo@@V?$allocator@USetupBlockItemInfo@@@std@@@std@@QAE@XZ
_TEXT	SEGMENT
??1?$vector@USetupBlockItemInfo@@V?$allocator@USetupBlockItemInfo@@@std@@@std@@QAE@XZ PROC ; std::vector<SetupBlockItemInfo,std::allocator<SetupBlockItemInfo> >::~vector<SetupBlockItemInfo,std::allocator<SetupBlockItemInfo> >, COMDAT
; _this$ = ecx

; 705  : 		_Tidy();

  00000	e9 00 00 00 00	 jmp	 ?_Tidy@?$vector@USetupBlockItemInfo@@V?$allocator@USetupBlockItemInfo@@@std@@@std@@IAEXXZ ; std::vector<SetupBlockItemInfo,std::allocator<SetupBlockItemInfo> >::_Tidy
??1?$vector@USetupBlockItemInfo@@V?$allocator@USetupBlockItemInfo@@@std@@@std@@QAE@XZ ENDP ; std::vector<SetupBlockItemInfo,std::allocator<SetupBlockItemInfo> >::~vector<SetupBlockItemInfo,std::allocator<SetupBlockItemInfo> >
_TEXT	ENDS
PUBLIC	??_7ioBlockSetupManager@@6B@			; ioBlockSetupManager::`vftable'
PUBLIC	??0ioBlockSetupManager@@QAE@XZ			; ioBlockSetupManager::ioBlockSetupManager
PUBLIC	??_R4ioBlockSetupManager@@6B@			; ioBlockSetupManager::`RTTI Complete Object Locator'
PUBLIC	??_R0?AVioBlockSetupManager@@@8			; ioBlockSetupManager `RTTI Type Descriptor'
PUBLIC	??_R3ioBlockSetupManager@@8			; ioBlockSetupManager::`RTTI Class Hierarchy Descriptor'
PUBLIC	??_R2ioBlockSetupManager@@8			; ioBlockSetupManager::`RTTI Base Class Array'
PUBLIC	??_R1A@?0A@EA@ioBlockSetupManager@@8		; ioBlockSetupManager::`RTTI Base Class Descriptor at (0,-1,0,64)'
PUBLIC	??_R13?0A@EA@?$Singleton@VioBlockSetupManager@@@@8 ; Singleton<ioBlockSetupManager>::`RTTI Base Class Descriptor at (4,-1,0,64)'
PUBLIC	??_R0?AV?$Singleton@VioBlockSetupManager@@@@@8	; Singleton<ioBlockSetupManager> `RTTI Type Descriptor'
PUBLIC	??_R3?$Singleton@VioBlockSetupManager@@@@8	; Singleton<ioBlockSetupManager>::`RTTI Class Hierarchy Descriptor'
PUBLIC	??_R2?$Singleton@VioBlockSetupManager@@@@8	; Singleton<ioBlockSetupManager>::`RTTI Base Class Array'
PUBLIC	??_R1A@?0A@EA@?$Singleton@VioBlockSetupManager@@@@8 ; Singleton<ioBlockSetupManager>::`RTTI Base Class Descriptor at (0,-1,0,64)'
EXTRN	??_EioBlockSetupManager@@UAEPAXI@Z:PROC		; ioBlockSetupManager::`vector deleting destructor'
;	COMDAT ??_R1A@?0A@EA@?$Singleton@VioBlockSetupManager@@@@8
; File c:\program files (x86)\microsoft visual studio 10.0\vc\include\xmemory
rdata$r	SEGMENT
??_R1A@?0A@EA@?$Singleton@VioBlockSetupManager@@@@8 DD FLAT:??_R0?AV?$Singleton@VioBlockSetupManager@@@@@8 ; Singleton<ioBlockSetupManager>::`RTTI Base Class Descriptor at (0,-1,0,64)'
	DD	00H
	DD	00H
	DD	0ffffffffH
	DD	00H
	DD	040H
	DD	FLAT:??_R3?$Singleton@VioBlockSetupManager@@@@8
rdata$r	ENDS
;	COMDAT ??_R2?$Singleton@VioBlockSetupManager@@@@8
rdata$r	SEGMENT
??_R2?$Singleton@VioBlockSetupManager@@@@8 DD FLAT:??_R1A@?0A@EA@?$Singleton@VioBlockSetupManager@@@@8 ; Singleton<ioBlockSetupManager>::`RTTI Base Class Array'
rdata$r	ENDS
;	COMDAT ??_R3?$Singleton@VioBlockSetupManager@@@@8
rdata$r	SEGMENT
??_R3?$Singleton@VioBlockSetupManager@@@@8 DD 00H	; Singleton<ioBlockSetupManager>::`RTTI Class Hierarchy Descriptor'
	DD	00H
	DD	01H
	DD	FLAT:??_R2?$Singleton@VioBlockSetupManager@@@@8
rdata$r	ENDS
;	COMDAT ??_R0?AV?$Singleton@VioBlockSetupManager@@@@@8
_DATA	SEGMENT
??_R0?AV?$Singleton@VioBlockSetupManager@@@@@8 DD FLAT:??_7type_info@@6B@ ; Singleton<ioBlockSetupManager> `RTTI Type Descriptor'
	DD	00H
	DB	'.?AV?$Singleton@VioBlockSetupManager@@@@', 00H
_DATA	ENDS
;	COMDAT ??_R13?0A@EA@?$Singleton@VioBlockSetupManager@@@@8
rdata$r	SEGMENT
??_R13?0A@EA@?$Singleton@VioBlockSetupManager@@@@8 DD FLAT:??_R0?AV?$Singleton@VioBlockSetupManager@@@@@8 ; Singleton<ioBlockSetupManager>::`RTTI Base Class Descriptor at (4,-1,0,64)'
	DD	00H
	DD	04H
	DD	0ffffffffH
	DD	00H
	DD	040H
	DD	FLAT:??_R3?$Singleton@VioBlockSetupManager@@@@8
rdata$r	ENDS
;	COMDAT ??_R1A@?0A@EA@ioBlockSetupManager@@8
rdata$r	SEGMENT
??_R1A@?0A@EA@ioBlockSetupManager@@8 DD FLAT:??_R0?AVioBlockSetupManager@@@8 ; ioBlockSetupManager::`RTTI Base Class Descriptor at (0,-1,0,64)'
	DD	01H
	DD	00H
	DD	0ffffffffH
	DD	00H
	DD	040H
	DD	FLAT:??_R3ioBlockSetupManager@@8
rdata$r	ENDS
;	COMDAT ??_R2ioBlockSetupManager@@8
rdata$r	SEGMENT
??_R2ioBlockSetupManager@@8 DD FLAT:??_R1A@?0A@EA@ioBlockSetupManager@@8 ; ioBlockSetupManager::`RTTI Base Class Array'
	DD	FLAT:??_R13?0A@EA@?$Singleton@VioBlockSetupManager@@@@8
rdata$r	ENDS
;	COMDAT ??_R3ioBlockSetupManager@@8
rdata$r	SEGMENT
??_R3ioBlockSetupManager@@8 DD 00H			; ioBlockSetupManager::`RTTI Class Hierarchy Descriptor'
	DD	00H
	DD	02H
	DD	FLAT:??_R2ioBlockSetupManager@@8
rdata$r	ENDS
;	COMDAT ??_R0?AVioBlockSetupManager@@@8
_DATA	SEGMENT
??_R0?AVioBlockSetupManager@@@8 DD FLAT:??_7type_info@@6B@ ; ioBlockSetupManager `RTTI Type Descriptor'
	DD	00H
	DB	'.?AVioBlockSetupManager@@', 00H
_DATA	ENDS
;	COMDAT ??_R4ioBlockSetupManager@@6B@
rdata$r	SEGMENT
??_R4ioBlockSetupManager@@6B@ DD 00H			; ioBlockSetupManager::`RTTI Complete Object Locator'
	DD	00H
	DD	00H
	DD	FLAT:??_R0?AVioBlockSetupManager@@@8
	DD	FLAT:??_R3ioBlockSetupManager@@8
rdata$r	ENDS
;	COMDAT ??_7ioBlockSetupManager@@6B@
CONST	SEGMENT
??_7ioBlockSetupManager@@6B@ DD FLAT:??_R4ioBlockSetupManager@@6B@ ; ioBlockSetupManager::`vftable'
	DD	FLAT:?Process@ioBlockSetupManager@@UAEXXZ
	DD	FLAT:?ProcessTCPPacket@ioBlockSetupManager@@UAE_NAAVSP2Packet@@@Z
	DD	FLAT:?ProcessUDPPacket@ioBlockSetupManager@@UAE_NAAVSP2Packet@@@Z
	DD	FLAT:??_EioBlockSetupManager@@UAEPAXI@Z
CONST	ENDS
;	COMDAT xdata$x
xdata$x	SEGMENT
__unwindtable$??0ioBlockSetupManager@@QAE@XZ DD 0ffffffffH
	DD	FLAT:__unwindfunclet$??0ioBlockSetupManager@@QAE@XZ$0
	DD	00H
	DD	FLAT:__unwindfunclet$??0ioBlockSetupManager@@QAE@XZ$1
__ehfuncinfo$??0ioBlockSetupManager@@QAE@XZ DD 019930522H
	DD	02H
	DD	FLAT:__unwindtable$??0ioBlockSetupManager@@QAE@XZ
	DD	2 DUP(00H)
	DD	2 DUP(00H)
	DD	00H
	DD	01H
; Function compile flags: /Ogsp
; File d:\lost saga for developer\youtube\tutorial\source\src\lsclient\housing\ioblocksetupmanager.cpp
xdata$x	ENDS
;	COMDAT ??0ioBlockSetupManager@@QAE@XZ
_TEXT	SEGMENT
_this$ = -16						; size = 4
__$EHRec$ = -12						; size = 12
??0ioBlockSetupManager@@QAE@XZ PROC			; ioBlockSetupManager::ioBlockSetupManager, COMDAT
; _this$ = ecx

; 20   : {

  00000	6a 04		 push	 4
  00002	b8 00 00 00 00	 mov	 eax, __ehhandler$??0ioBlockSetupManager@@QAE@XZ
  00007	e8 00 00 00 00	 call	 __EH_prolog3
  0000c	8b f1		 mov	 esi, ecx
  0000e	89 75 f0	 mov	 DWORD PTR _this$[ebp], esi
  00011	8b c6		 mov	 eax, esi
  00013	a3 00 00 00 00	 mov	 DWORD PTR ?ms_Singleton@?$Singleton@VioBlockSetupManager@@@@1PAVioBlockSetupManager@@A, eax ; Singleton<ioBlockSetupManager>::ms_Singleton
  00018	33 c0		 xor	 eax, eax
  0001a	c7 06 00 00 00
	00		 mov	 DWORD PTR [esi], OFFSET ??_7ioBlockSetupManager@@6B@
  00020	89 45 fc	 mov	 DWORD PTR __$EHRec$[ebp+8], eax
  00023	89 46 10	 mov	 DWORD PTR [esi+16], eax
  00026	89 46 14	 mov	 DWORD PTR [esi+20], eax
  00029	89 46 18	 mov	 DWORD PTR [esi+24], eax
  0002c	8d 4e 20	 lea	 ecx, DWORD PTR [esi+32]
  0002f	c6 45 fc 01	 mov	 BYTE PTR __$EHRec$[ebp+8], 1
  00033	ff 15 00 00 00
	00		 call	 DWORD PTR __imp_??0ioHashString@@QAE@XZ

; 21   : }

  00039	8b c6		 mov	 eax, esi
  0003b	e8 00 00 00 00	 call	 __EH_epilog3
  00040	c3		 ret	 0
_TEXT	ENDS
;	COMDAT text$x
text$x	SEGMENT
__unwindfunclet$??0ioBlockSetupManager@@QAE@XZ$0:
  00000	8b 4d f0	 mov	 ecx, DWORD PTR _this$[ebp]
  00003	83 c1 04	 add	 ecx, 4
  00006	e9 00 00 00 00	 jmp	 ??1?$Singleton@VioBlockSetupManager@@@@QAE@XZ ; Singleton<ioBlockSetupManager>::~Singleton<ioBlockSetupManager>
__unwindfunclet$??0ioBlockSetupManager@@QAE@XZ$1:
  0000b	8b 4d f0	 mov	 ecx, DWORD PTR _this$[ebp]
  0000e	83 c1 10	 add	 ecx, 16			; 00000010H
  00011	e9 00 00 00 00	 jmp	 ??1?$vector@USetupBlockItemInfo@@V?$allocator@USetupBlockItemInfo@@@std@@@std@@QAE@XZ ; std::vector<SetupBlockItemInfo,std::allocator<SetupBlockItemInfo> >::~vector<SetupBlockItemInfo,std::allocator<SetupBlockItemInfo> >
__ehhandler$??0ioBlockSetupManager@@QAE@XZ:
  00016	8b 54 24 08	 mov	 edx, DWORD PTR [esp+8]
  0001a	8d 42 0c	 lea	 eax, DWORD PTR [edx+12]
  0001d	8b 4a ec	 mov	 ecx, DWORD PTR [edx-20]
  00020	33 c8		 xor	 ecx, eax
  00022	e8 00 00 00 00	 call	 @__security_check_cookie@4
  00027	b8 00 00 00 00	 mov	 eax, OFFSET __ehfuncinfo$??0ioBlockSetupManager@@QAE@XZ
  0002c	e9 00 00 00 00	 jmp	 ___CxxFrameHandler3
text$x	ENDS
??0ioBlockSetupManager@@QAE@XZ ENDP			; ioBlockSetupManager::ioBlockSetupManager
PUBLIC	??1ioBlockSetupManager@@UAE@XZ			; ioBlockSetupManager::~ioBlockSetupManager
;	COMDAT xdata$x
; File d:\lost saga for developer\youtube\tutorial\source\src\io3dengine\iosingleton.h
xdata$x	SEGMENT
__unwindtable$??1ioBlockSetupManager@@UAE@XZ DD 0ffffffffH
	DD	FLAT:__unwindfunclet$??1ioBlockSetupManager@@UAE@XZ$0
	DD	00H
	DD	FLAT:__unwindfunclet$??1ioBlockSetupManager@@UAE@XZ$1
__ehfuncinfo$??1ioBlockSetupManager@@UAE@XZ DD 019930522H
	DD	02H
	DD	FLAT:__unwindtable$??1ioBlockSetupManager@@UAE@XZ
	DD	2 DUP(00H)
	DD	2 DUP(00H)
	DD	00H
	DD	01H
; Function compile flags: /Ogsp
; File d:\lost saga for developer\youtube\tutorial\source\src\lsclient\housing\ioblocksetupmanager.cpp
xdata$x	ENDS
;	COMDAT ??1ioBlockSetupManager@@UAE@XZ
_TEXT	SEGMENT
_this$ = -16						; size = 4
__$EHRec$ = -12						; size = 12
??1ioBlockSetupManager@@UAE@XZ PROC			; ioBlockSetupManager::~ioBlockSetupManager, COMDAT
; _this$ = ecx

; 24   : {

  00000	6a 04		 push	 4
  00002	b8 00 00 00 00	 mov	 eax, __ehhandler$??1ioBlockSetupManager@@UAE@XZ
  00007	e8 00 00 00 00	 call	 __EH_prolog3
  0000c	8b f1		 mov	 esi, ecx
  0000e	89 75 f0	 mov	 DWORD PTR _this$[ebp], esi
  00011	c7 06 00 00 00
	00		 mov	 DWORD PTR [esi], OFFSET ??_7ioBlockSetupManager@@6B@

; 25   : }

  00017	8d 4e 20	 lea	 ecx, DWORD PTR [esi+32]
  0001a	c7 45 fc 01 00
	00 00		 mov	 DWORD PTR __$EHRec$[ebp+8], 1
  00021	ff 15 00 00 00
	00		 call	 DWORD PTR __imp_??1ioHashString@@QAE@XZ
  00027	8d 4e 10	 lea	 ecx, DWORD PTR [esi+16]
  0002a	c6 45 fc 00	 mov	 BYTE PTR __$EHRec$[ebp+8], 0
  0002e	e8 00 00 00 00	 call	 ?_Tidy@?$vector@USetupBlockItemInfo@@V?$allocator@USetupBlockItemInfo@@@std@@@std@@IAEXXZ ; std::vector<SetupBlockItemInfo,std::allocator<SetupBlockItemInfo> >::_Tidy
  00033	83 25 00 00 00
	00 00		 and	 DWORD PTR ?ms_Singleton@?$Singleton@VioBlockSetupManager@@@@1PAVioBlockSetupManager@@A, 0 ; Singleton<ioBlockSetupManager>::ms_Singleton
  0003a	e8 00 00 00 00	 call	 __EH_epilog3
  0003f	c3		 ret	 0
_TEXT	ENDS
;	COMDAT text$x
text$x	SEGMENT
__unwindfunclet$??1ioBlockSetupManager@@UAE@XZ$0:
  00000	8b 4d f0	 mov	 ecx, DWORD PTR _this$[ebp]
  00003	83 c1 04	 add	 ecx, 4
  00006	e9 00 00 00 00	 jmp	 ??1?$Singleton@VioBlockSetupManager@@@@QAE@XZ ; Singleton<ioBlockSetupManager>::~Singleton<ioBlockSetupManager>
__unwindfunclet$??1ioBlockSetupManager@@UAE@XZ$1:
  0000b	8b 4d f0	 mov	 ecx, DWORD PTR _this$[ebp]
  0000e	83 c1 10	 add	 ecx, 16			; 00000010H
  00011	e9 00 00 00 00	 jmp	 ??1?$vector@USetupBlockItemInfo@@V?$allocator@USetupBlockItemInfo@@@std@@@std@@QAE@XZ ; std::vector<SetupBlockItemInfo,std::allocator<SetupBlockItemInfo> >::~vector<SetupBlockItemInfo,std::allocator<SetupBlockItemInfo> >
__ehhandler$??1ioBlockSetupManager@@UAE@XZ:
  00016	8b 54 24 08	 mov	 edx, DWORD PTR [esp+8]
  0001a	8d 42 0c	 lea	 eax, DWORD PTR [edx+12]
  0001d	8b 4a ec	 mov	 ecx, DWORD PTR [edx-20]
  00020	33 c8		 xor	 ecx, eax
  00022	e8 00 00 00 00	 call	 @__security_check_cookie@4
  00027	b8 00 00 00 00	 mov	 eax, OFFSET __ehfuncinfo$??1ioBlockSetupManager@@UAE@XZ
  0002c	e9 00 00 00 00	 jmp	 ___CxxFrameHandler3
text$x	ENDS
??1ioBlockSetupManager@@UAE@XZ ENDP			; ioBlockSetupManager::~ioBlockSetupManager
; Function compile flags: /Ogsp
;	COMDAT ??_GioBlockSetupManager@@UAEPAXI@Z
_TEXT	SEGMENT
___flags$ = 8						; size = 4
??_GioBlockSetupManager@@UAEPAXI@Z PROC			; ioBlockSetupManager::`scalar deleting destructor', COMDAT
; _this$ = ecx
  00000	55		 push	 ebp
  00001	8b ec		 mov	 ebp, esp
  00003	56		 push	 esi
  00004	8b f1		 mov	 esi, ecx
  00006	e8 00 00 00 00	 call	 ??1ioBlockSetupManager@@UAE@XZ ; ioBlockSetupManager::~ioBlockSetupManager
  0000b	f6 45 08 01	 test	 BYTE PTR ___flags$[ebp], 1
  0000f	74 07		 je	 SHORT $LN1@scalar
  00011	56		 push	 esi
  00012	e8 00 00 00 00	 call	 ??3@YAXPAX@Z		; operator delete
  00017	59		 pop	 ecx
$LN1@scalar:
  00018	8b c6		 mov	 eax, esi
  0001a	5e		 pop	 esi
  0001b	5d		 pop	 ebp
  0001c	c2 04 00	 ret	 4
??_GioBlockSetupManager@@UAEPAXI@Z ENDP			; ioBlockSetupManager::`scalar deleting destructor'
_TEXT	ENDS
_BSS	SEGMENT
_ZERO_TILE_POS DB 010H DUP (?)
_BSS	ENDS
END
