; Listing generated by Microsoft (R) Optimizing Compiler Version 16.00.30319.01 

	TITLE	D:\Lost Saga For Developer\Youtube\Tutorial\Source\src\LSClient\Housing\ioBlockMapBase.cpp
	.686P
	.XMM
	include listing.inc
	.model	flat

INCLUDELIB MSVCRT
INCLUDELIB OLDNAMES

PUBLIC	?_EEM_DS@?$deque@UD3DXVECTOR3@@V?$allocator@UD3DXVECTOR3@@@std@@@std@@2HB ; std::deque<D3DXVECTOR3,std::allocator<D3DXVECTOR3> >::_EEM_DS
;	COMDAT ?_EEM_DS@?$deque@UD3DXVECTOR3@@V?$allocator@UD3DXVECTOR3@@@std@@@std@@2HB
CONST	SEGMENT
?_EEM_DS@?$deque@UD3DXVECTOR3@@V?$allocator@UD3DXVECTOR3@@@std@@@std@@2HB DD 01H ; std::deque<D3DXVECTOR3,std::allocator<D3DXVECTOR3> >::_EEM_DS
CONST	ENDS
PUBLIC	??0TilePos@@QAE@HHH@Z				; TilePos::TilePos
; Function compile flags: /Ogsp
; File d:\lost saga for developer\youtube\tutorial\source\src\lsclient\housing\blockdefine.h
;	COMDAT ??0TilePos@@QAE@HHH@Z
_TEXT	SEGMENT
_nX$ = 8						; size = 4
_nY$ = 12						; size = 4
_nZ$ = 16						; size = 4
??0TilePos@@QAE@HHH@Z PROC				; TilePos::TilePos, COMDAT
; _this$ = ecx

; 96   : 	TilePos( int nX, int nY, int nZ )

  00000	55		 push	 ebp
  00001	8b ec		 mov	 ebp, esp
  00003	8b c1		 mov	 eax, ecx

; 97   : 	{
; 98   : 		x		= nX;

  00005	8b 4d 08	 mov	 ecx, DWORD PTR _nX$[ebp]

; 99   : 		y		= nY;
; 100  : 		z		= nZ;
; 101  : 		event	= 0;

  00008	83 60 0c 00	 and	 DWORD PTR [eax+12], 0
  0000c	89 08		 mov	 DWORD PTR [eax], ecx
  0000e	8b 4d 0c	 mov	 ecx, DWORD PTR _nY$[ebp]
  00011	89 48 08	 mov	 DWORD PTR [eax+8], ecx
  00014	8b 4d 10	 mov	 ecx, DWORD PTR _nZ$[ebp]
  00017	89 48 04	 mov	 DWORD PTR [eax+4], ecx

; 102  : 	}

  0001a	5d		 pop	 ebp
  0001b	c2 0c 00	 ret	 12			; 0000000cH
??0TilePos@@QAE@HHH@Z ENDP				; TilePos::TilePos
_TEXT	ENDS
PUBLIC	?Init@TilePos@@QAEXXZ				; TilePos::Init
; Function compile flags: /Ogsp
;	COMDAT ?Init@TilePos@@QAEXXZ
_TEXT	SEGMENT
?Init@TilePos@@QAEXXZ PROC				; TilePos::Init, COMDAT
; _this$ = ecx

; 106  : 		x = z = y = -1;

  00000	83 49 08 ff	 or	 DWORD PTR [ecx+8], -1
  00004	83 49 04 ff	 or	 DWORD PTR [ecx+4], -1
  00008	83 09 ff	 or	 DWORD PTR [ecx], -1

; 107  : 		event = 0;

  0000b	83 61 0c 00	 and	 DWORD PTR [ecx+12], 0

; 108  : 	}

  0000f	c3		 ret	 0
?Init@TilePos@@QAEXXZ ENDP				; TilePos::Init
_TEXT	ENDS
PUBLIC	?push_back@BlockMapBuffer@@QAEXPAVioBlock@@@Z	; BlockMapBuffer::push_back
; Function compile flags: /Ogsp
; File d:\lost saga for developer\youtube\tutorial\source\src\lsclient\housing\ioblockmapbase.h
;	COMDAT ?push_back@BlockMapBuffer@@QAEXPAVioBlock@@@Z
_TEXT	SEGMENT
_pBlock$ = 8						; size = 4
?push_back@BlockMapBuffer@@QAEXPAVioBlock@@@Z PROC	; BlockMapBuffer::push_back, COMDAT
; _this$ = ecx

; 23   : 	{

  00000	55		 push	 ebp
  00001	8b ec		 mov	 ebp, esp

; 24   : 		m_pBuffer[m_nPos] = pBlock;

  00003	8b 91 00 00 05
	00		 mov	 edx, DWORD PTR [ecx+327680]
  00009	56		 push	 esi
  0000a	8b 75 08	 mov	 esi, DWORD PTR _pBlock$[ebp]
  0000d	89 34 91	 mov	 DWORD PTR [ecx+edx*4], esi

; 25   : 		m_nPos++;

  00010	ff 81 00 00 05
	00		 inc	 DWORD PTR [ecx+327680]
  00016	5e		 pop	 esi

; 26   : 	}

  00017	5d		 pop	 ebp
  00018	c2 04 00	 ret	 4
?push_back@BlockMapBuffer@@QAEXPAVioBlock@@@Z ENDP	; BlockMapBuffer::push_back
_TEXT	ENDS
PUBLIC	?GetTileMax@ioBlockManager@@QAEHXZ		; ioBlockManager::GetTileMax
; Function compile flags: /Ogsp
; File d:\lost saga for developer\youtube\tutorial\source\src\lsclient\housing\ioblockmanager.h
;	COMDAT ?GetTileMax@ioBlockManager@@QAEHXZ
_TEXT	SEGMENT
?GetTileMax@ioBlockManager@@QAEHXZ PROC			; ioBlockManager::GetTileMax, COMDAT
; _this$ = ecx

; 71   : 	int GetTileMax(){ return m_nTileMax; }

  00000	8b 41 48	 mov	 eax, DWORD PTR [ecx+72]
  00003	c3		 ret	 0
?GetTileMax@ioBlockManager@@QAEHXZ ENDP			; ioBlockManager::GetTileMax
_TEXT	ENDS
PUBLIC	?GetHeightMax@ioBlockManager@@QAEHXZ		; ioBlockManager::GetHeightMax
; Function compile flags: /Ogsp
;	COMDAT ?GetHeightMax@ioBlockManager@@QAEHXZ
_TEXT	SEGMENT
?GetHeightMax@ioBlockManager@@QAEHXZ PROC		; ioBlockManager::GetHeightMax, COMDAT
; _this$ = ecx

; 72   : 	int GetHeightMax(){ return m_nHeightMax; }

  00000	8b 41 4c	 mov	 eax, DWORD PTR [ecx+76]
  00003	c3		 ret	 0
?GetHeightMax@ioBlockManager@@QAEHXZ ENDP		; ioBlockManager::GetHeightMax
_TEXT	ENDS
PUBLIC	?GetBlockStartHeight@ioBlockManager@@QAEMXZ	; ioBlockManager::GetBlockStartHeight
EXTRN	__fltused:DWORD
; Function compile flags: /Ogsp
;	COMDAT ?GetBlockStartHeight@ioBlockManager@@QAEMXZ
_TEXT	SEGMENT
?GetBlockStartHeight@ioBlockManager@@QAEMXZ PROC	; ioBlockManager::GetBlockStartHeight, COMDAT
; _this$ = ecx

; 73   : 	float GetBlockStartHeight(){ return m_fBlockStartHeight; }

  00000	d9 41 34	 fld	 DWORD PTR [ecx+52]
  00003	c3		 ret	 0
?GetBlockStartHeight@ioBlockManager@@QAEMXZ ENDP	; ioBlockManager::GetBlockStartHeight
_TEXT	ENDS
PUBLIC	?GetBlockRotation@ioBlockManager@@QAEABUD3DXQUATERNION@@XZ ; ioBlockManager::GetBlockRotation
; Function compile flags: /Ogsp
;	COMDAT ?GetBlockRotation@ioBlockManager@@QAEABUD3DXQUATERNION@@XZ
_TEXT	SEGMENT
?GetBlockRotation@ioBlockManager@@QAEABUD3DXQUATERNION@@XZ PROC ; ioBlockManager::GetBlockRotation, COMDAT
; _this$ = ecx

; 74   : 	const D3DXQUATERNION& GetBlockRotation(){ return m_BlockRotation; }

  00000	8d 41 38	 lea	 eax, DWORD PTR [ecx+56]
  00003	c3		 ret	 0
?GetBlockRotation@ioBlockManager@@QAEABUD3DXQUATERNION@@XZ ENDP ; ioBlockManager::GetBlockRotation
_TEXT	ENDS
PUBLIC	??_7ioBlockMapBase@@6B@				; ioBlockMapBase::`vftable'
PUBLIC	??0ioBlockMapBase@@QAE@XZ			; ioBlockMapBase::ioBlockMapBase
PUBLIC	??_R4ioBlockMapBase@@6B@			; ioBlockMapBase::`RTTI Complete Object Locator'
PUBLIC	??_R0?AVioBlockMapBase@@@8			; ioBlockMapBase `RTTI Type Descriptor'
PUBLIC	??_R3ioBlockMapBase@@8				; ioBlockMapBase::`RTTI Class Hierarchy Descriptor'
PUBLIC	??_R2ioBlockMapBase@@8				; ioBlockMapBase::`RTTI Base Class Array'
PUBLIC	??_R1A@?0A@EA@ioBlockMapBase@@8			; ioBlockMapBase::`RTTI Base Class Descriptor at (0,-1,0,64)'
EXTRN	??_7type_info@@6B@:QWORD			; type_info::`vftable'
EXTRN	??_EioBlockMapBase@@UAEPAXI@Z:PROC		; ioBlockMapBase::`vector deleting destructor'
;	COMDAT ??_R1A@?0A@EA@ioBlockMapBase@@8
; File d:\lost saga for developer\youtube\tutorial\source\src\lsclient\housing\ioblockmapbase.cpp
rdata$r	SEGMENT
??_R1A@?0A@EA@ioBlockMapBase@@8 DD FLAT:??_R0?AVioBlockMapBase@@@8 ; ioBlockMapBase::`RTTI Base Class Descriptor at (0,-1,0,64)'
	DD	00H
	DD	00H
	DD	0ffffffffH
	DD	00H
	DD	040H
	DD	FLAT:??_R3ioBlockMapBase@@8
rdata$r	ENDS
;	COMDAT ??_R2ioBlockMapBase@@8
rdata$r	SEGMENT
??_R2ioBlockMapBase@@8 DD FLAT:??_R1A@?0A@EA@ioBlockMapBase@@8 ; ioBlockMapBase::`RTTI Base Class Array'
rdata$r	ENDS
;	COMDAT ??_R3ioBlockMapBase@@8
rdata$r	SEGMENT
??_R3ioBlockMapBase@@8 DD 00H				; ioBlockMapBase::`RTTI Class Hierarchy Descriptor'
	DD	00H
	DD	01H
	DD	FLAT:??_R2ioBlockMapBase@@8
rdata$r	ENDS
;	COMDAT ??_R0?AVioBlockMapBase@@@8
_DATA	SEGMENT
??_R0?AVioBlockMapBase@@@8 DD FLAT:??_7type_info@@6B@	; ioBlockMapBase `RTTI Type Descriptor'
	DD	00H
	DB	'.?AVioBlockMapBase@@', 00H
_DATA	ENDS
;	COMDAT ??_R4ioBlockMapBase@@6B@
rdata$r	SEGMENT
??_R4ioBlockMapBase@@6B@ DD 00H				; ioBlockMapBase::`RTTI Complete Object Locator'
	DD	00H
	DD	00H
	DD	FLAT:??_R0?AVioBlockMapBase@@@8
	DD	FLAT:??_R3ioBlockMapBase@@8
rdata$r	ENDS
;	COMDAT ??_7ioBlockMapBase@@6B@
CONST	SEGMENT
??_7ioBlockMapBase@@6B@ DD FLAT:??_R4ioBlockMapBase@@6B@ ; ioBlockMapBase::`vftable'
	DD	FLAT:??_EioBlockMapBase@@UAEPAXI@Z
; Function compile flags: /Ogsp
CONST	ENDS
;	COMDAT ??0ioBlockMapBase@@QAE@XZ
_TEXT	SEGMENT
??0ioBlockMapBase@@QAE@XZ PROC				; ioBlockMapBase::ioBlockMapBase, COMDAT
; _this$ = ecx

; 10   : {

  00000	8b d1		 mov	 edx, ecx
  00002	57		 push	 edi

; 11   : 	m_nHeightMax		= 0;

  00003	33 c0		 xor	 eax, eax

; 12   : 	m_nTileMax			= 0;
; 13   : 
; 14   : 	m_pBlockQuadTree	= NULL;
; 15   : 	m_pTileContainer	= NULL;	
; 16   : 
; 17   : 	for( int i = 0; i < HEIGHT_MAX; ++i )
; 18   : 		m_PosLevelMap[i] = NULL;

  00005	6a 14		 push	 20			; 00000014H
  00007	59		 pop	 ecx
  00008	89 42 5c	 mov	 DWORD PTR [edx+92], eax
  0000b	89 42 60	 mov	 DWORD PTR [edx+96], eax
  0000e	89 42 04	 mov	 DWORD PTR [edx+4], eax
  00011	89 42 58	 mov	 DWORD PTR [edx+88], eax
  00014	8d 7a 08	 lea	 edi, DWORD PTR [edx+8]
  00017	c7 02 00 00 00
	00		 mov	 DWORD PTR [edx], OFFSET ??_7ioBlockMapBase@@6B@
  0001d	f3 ab		 rep stosd

; 19   : }

  0001f	8b c2		 mov	 eax, edx
  00021	5f		 pop	 edi
  00022	c3		 ret	 0
??0ioBlockMapBase@@QAE@XZ ENDP				; ioBlockMapBase::ioBlockMapBase
_TEXT	ENDS
PUBLIC	??_GioPosMapQuadTree@@QAEPAXI@Z			; ioPosMapQuadTree::`scalar deleting destructor'
EXTRN	??3@YAXPAX@Z:PROC				; operator delete
EXTRN	??1ioPosMapQuadTree@@QAE@XZ:PROC		; ioPosMapQuadTree::~ioPosMapQuadTree
; Function compile flags: /Ogsp
;	COMDAT ??_GioPosMapQuadTree@@QAEPAXI@Z
_TEXT	SEGMENT
___flags$ = 8						; size = 4
??_GioPosMapQuadTree@@QAEPAXI@Z PROC			; ioPosMapQuadTree::`scalar deleting destructor', COMDAT
; _this$ = ecx
  00000	55		 push	 ebp
  00001	8b ec		 mov	 ebp, esp
  00003	56		 push	 esi
  00004	8b f1		 mov	 esi, ecx
  00006	e8 00 00 00 00	 call	 ??1ioPosMapQuadTree@@QAE@XZ ; ioPosMapQuadTree::~ioPosMapQuadTree
  0000b	f6 45 08 01	 test	 BYTE PTR ___flags$[ebp], 1
  0000f	74 07		 je	 SHORT $LN1@scalar
  00011	56		 push	 esi
  00012	e8 00 00 00 00	 call	 ??3@YAXPAX@Z		; operator delete
  00017	59		 pop	 ecx
$LN1@scalar:
  00018	8b c6		 mov	 eax, esi
  0001a	5e		 pop	 esi
  0001b	5d		 pop	 ebp
  0001c	c2 04 00	 ret	 4
??_GioPosMapQuadTree@@QAEPAXI@Z ENDP			; ioPosMapQuadTree::`scalar deleting destructor'
_TEXT	ENDS
PUBLIC	?DestroyLevelMapContainer@ioBlockMapBase@@IAEXXZ ; ioBlockMapBase::DestroyLevelMapContainer
; Function compile flags: /Ogsp
;	COMDAT ?DestroyLevelMapContainer@ioBlockMapBase@@IAEXXZ
_TEXT	SEGMENT
?DestroyLevelMapContainer@ioBlockMapBase@@IAEXXZ PROC	; ioBlockMapBase::DestroyLevelMapContainer, COMDAT
; _this$ = ecx

; 83   : {

  00000	56		 push	 esi
  00001	57		 push	 edi

; 84   : 	for( int i = 0; i < HEIGHT_MAX; ++i )

  00002	6a 14		 push	 20			; 00000014H
  00004	8d 71 08	 lea	 esi, DWORD PTR [ecx+8]
  00007	5f		 pop	 edi
$LL4@DestroyLev:

; 85   : 	{
; 86   : 		SAFEDELETE( m_PosLevelMap[i] );

  00008	8b 06		 mov	 eax, DWORD PTR [esi]
  0000a	85 c0		 test	 eax, eax
  0000c	74 0a		 je	 SHORT $LN3@DestroyLev
  0000e	50		 push	 eax
  0000f	e8 00 00 00 00	 call	 ??3@YAXPAX@Z		; operator delete
  00014	83 26 00	 and	 DWORD PTR [esi], 0
  00017	59		 pop	 ecx
$LN3@DestroyLev:

; 84   : 	for( int i = 0; i < HEIGHT_MAX; ++i )

  00018	83 c6 04	 add	 esi, 4
  0001b	4f		 dec	 edi
  0001c	75 ea		 jne	 SHORT $LL4@DestroyLev

; 87   : 	}
; 88   : }

  0001e	5f		 pop	 edi
  0001f	5e		 pop	 esi
  00020	c3		 ret	 0
?DestroyLevelMapContainer@ioBlockMapBase@@IAEXXZ ENDP	; ioBlockMapBase::DestroyLevelMapContainer
_TEXT	ENDS
PUBLIC	?DestroyTileMapContainer@ioBlockMapBase@@IAEXXZ	; ioBlockMapBase::DestroyTileMapContainer
; Function compile flags: /Ogsp
;	COMDAT ?DestroyTileMapContainer@ioBlockMapBase@@IAEXXZ
_TEXT	SEGMENT
?DestroyTileMapContainer@ioBlockMapBase@@IAEXXZ PROC	; ioBlockMapBase::DestroyTileMapContainer, COMDAT
; _this$ = ecx

; 110  : {

  00000	56		 push	 esi
  00001	8b f1		 mov	 esi, ecx

; 111  : 	SAFEDELETE( m_pTileContainer );

  00003	8b 46 58	 mov	 eax, DWORD PTR [esi+88]
  00006	85 c0		 test	 eax, eax
  00008	74 0b		 je	 SHORT $LN1@DestroyTil
  0000a	50		 push	 eax
  0000b	e8 00 00 00 00	 call	 ??3@YAXPAX@Z		; operator delete
  00010	83 66 58 00	 and	 DWORD PTR [esi+88], 0
  00014	59		 pop	 ecx
$LN1@DestroyTil:
  00015	5e		 pop	 esi

; 112  : }

  00016	c3		 ret	 0
?DestroyTileMapContainer@ioBlockMapBase@@IAEXXZ ENDP	; ioBlockMapBase::DestroyTileMapContainer
_TEXT	ENDS
PUBLIC	?GetPosMapContainer@ioBlockMapBase@@QAEPAV?$ioPosMapContainer@PAVioBlock@@@@H@Z ; ioBlockMapBase::GetPosMapContainer
; Function compile flags: /Ogsp
;	COMDAT ?GetPosMapContainer@ioBlockMapBase@@QAEPAV?$ioPosMapContainer@PAVioBlock@@@@H@Z
_TEXT	SEGMENT
_nLevel$ = 8						; size = 4
?GetPosMapContainer@ioBlockMapBase@@QAEPAV?$ioPosMapContainer@PAVioBlock@@@@H@Z PROC ; ioBlockMapBase::GetPosMapContainer, COMDAT
; _this$ = ecx

; 145  : {	

  00000	55		 push	 ebp
  00001	8b ec		 mov	 ebp, esp

; 146  : 	if( COMPARE( nLevel, 0, m_nHeightMax ) )

  00003	8b 45 08	 mov	 eax, DWORD PTR _nLevel$[ebp]
  00006	85 c0		 test	 eax, eax
  00008	78 0b		 js	 SHORT $LN1@GetPosMapC
  0000a	3b 41 5c	 cmp	 eax, DWORD PTR [ecx+92]
  0000d	7d 06		 jge	 SHORT $LN1@GetPosMapC

; 147  : 	{
; 148  : 		return m_PosLevelMap[nLevel];

  0000f	8b 44 81 08	 mov	 eax, DWORD PTR [ecx+eax*4+8]
  00013	eb 02		 jmp	 SHORT $LN2@GetPosMapC
$LN1@GetPosMapC:

; 149  : 	}
; 150  : 
; 151  : 	return NULL;

  00015	33 c0		 xor	 eax, eax
$LN2@GetPosMapC:

; 152  : }

  00017	5d		 pop	 ebp
  00018	c2 04 00	 ret	 4
?GetPosMapContainer@ioBlockMapBase@@QAEPAV?$ioPosMapContainer@PAVioBlock@@@@H@Z ENDP ; ioBlockMapBase::GetPosMapContainer
_TEXT	ENDS
PUBLIC	?GetTileMapContainer@ioBlockMapBase@@QAEPAV?$ioPosMapContainer@PAVioTileBlock@@@@XZ ; ioBlockMapBase::GetTileMapContainer
; Function compile flags: /Ogsp
;	COMDAT ?GetTileMapContainer@ioBlockMapBase@@QAEPAV?$ioPosMapContainer@PAVioTileBlock@@@@XZ
_TEXT	SEGMENT
?GetTileMapContainer@ioBlockMapBase@@QAEPAV?$ioPosMapContainer@PAVioTileBlock@@@@XZ PROC ; ioBlockMapBase::GetTileMapContainer, COMDAT
; _this$ = ecx

; 156  : 	return m_pTileContainer;

  00000	8b 41 58	 mov	 eax, DWORD PTR [ecx+88]

; 157  : }

  00003	c3		 ret	 0
?GetTileMapContainer@ioBlockMapBase@@QAEPAV?$ioPosMapContainer@PAVioTileBlock@@@@XZ ENDP ; ioBlockMapBase::GetTileMapContainer
_TEXT	ENDS
PUBLIC	?GetBlockByTilePos@ioBlockMapBase@@QAEPAVioBlock@@ABVTilePos@@@Z ; ioBlockMapBase::GetBlockByTilePos
; Function compile flags: /Ogsp
;	COMDAT ?GetBlockByTilePos@ioBlockMapBase@@QAEPAVioBlock@@ABVTilePos@@@Z
_TEXT	SEGMENT
_this$ = -4						; size = 4
_Pos$ = 8						; size = 4
?GetBlockByTilePos@ioBlockMapBase@@QAEPAVioBlock@@ABVTilePos@@@Z PROC ; ioBlockMapBase::GetBlockByTilePos, COMDAT
; _this$ = ecx

; 180  : {

  00000	55		 push	 ebp
  00001	8b ec		 mov	 ebp, esp
  00003	51		 push	 ecx
  00004	53		 push	 ebx

; 181  : 	ioBlock* pBlock = NULL;
; 182  : 	PosMapContainer* pContainer = GetPosMapContainer( Pos.y );

  00005	8b 5d 08	 mov	 ebx, DWORD PTR _Pos$[ebp]
  00008	56		 push	 esi
  00009	57		 push	 edi
  0000a	ff 73 08	 push	 DWORD PTR [ebx+8]
  0000d	89 4d fc	 mov	 DWORD PTR _this$[ebp], ecx
  00010	33 d2		 xor	 edx, edx
  00012	e8 00 00 00 00	 call	 ?GetPosMapContainer@ioBlockMapBase@@QAEPAV?$ioPosMapContainer@PAVioBlock@@@@H@Z ; ioBlockMapBase::GetPosMapContainer

; 183  : 	if( pContainer )

  00017	85 c0		 test	 eax, eax
  00019	74 18		 je	 SHORT $LN8@GetBlockBy

; 184  : 		pBlock = pContainer->GetElement( Pos );

  0001b	8b 10		 mov	 edx, DWORD PTR [eax]
  0001d	83 ec 10	 sub	 esp, 16			; 00000010H
  00020	8b fc		 mov	 edi, esp
  00022	8b f3		 mov	 esi, ebx
  00024	a5		 movsd
  00025	a5		 movsd
  00026	a5		 movsd
  00027	8b c8		 mov	 ecx, eax
  00029	a5		 movsd
  0002a	ff 52 14	 call	 DWORD PTR [edx+20]
  0002d	8b d0		 mov	 edx, eax

; 185  : 	
; 186  : 	if( pBlock == NULL && Pos.y == 1 )

  0002f	85 d2		 test	 edx, edx
  00031	75 22		 jne	 SHORT $LN1@GetBlockBy
$LN8@GetBlockBy:
  00033	83 7b 08 01	 cmp	 DWORD PTR [ebx+8], 1
  00037	75 1c		 jne	 SHORT $LN1@GetBlockBy

; 187  : 	{
; 188  : 		TileMapContainer* pTileContainer = GetTileMapContainer();

  00039	8b 45 fc	 mov	 eax, DWORD PTR _this$[ebp]
  0003c	8b 48 58	 mov	 ecx, DWORD PTR [eax+88]

; 189  : 		if( pTileContainer )

  0003f	85 c9		 test	 ecx, ecx
  00041	74 12		 je	 SHORT $LN1@GetBlockBy

; 190  : 			pBlock = pTileContainer->GetElement( Pos );

  00043	8b 01		 mov	 eax, DWORD PTR [ecx]
  00045	83 ec 10	 sub	 esp, 16			; 00000010H
  00048	8b fc		 mov	 edi, esp
  0004a	8b f3		 mov	 esi, ebx
  0004c	a5		 movsd
  0004d	a5		 movsd
  0004e	a5		 movsd
  0004f	a5		 movsd
  00050	ff 50 14	 call	 DWORD PTR [eax+20]
  00053	8b d0		 mov	 edx, eax
$LN1@GetBlockBy:

; 191  : 	}
; 192  : 
; 193  : 	return pBlock;
; 194  : }

  00055	5f		 pop	 edi
  00056	5e		 pop	 esi
  00057	8b c2		 mov	 eax, edx
  00059	5b		 pop	 ebx
  0005a	c9		 leave
  0005b	c2 04 00	 ret	 4
?GetBlockByTilePos@ioBlockMapBase@@QAEPAVioBlock@@ABVTilePos@@@Z ENDP ; ioBlockMapBase::GetBlockByTilePos
_TEXT	ENDS
PUBLIC	??_7bad_alloc@std@@6B@				; std::bad_alloc::`vftable'
PUBLIC	??0bad_alloc@std@@QAE@PBD@Z			; std::bad_alloc::bad_alloc
PUBLIC	??_R4bad_alloc@std@@6B@				; std::bad_alloc::`RTTI Complete Object Locator'
PUBLIC	??_R0?AVbad_alloc@std@@@8			; std::bad_alloc `RTTI Type Descriptor'
PUBLIC	??_R3bad_alloc@std@@8				; std::bad_alloc::`RTTI Class Hierarchy Descriptor'
PUBLIC	??_R2bad_alloc@std@@8				; std::bad_alloc::`RTTI Base Class Array'
PUBLIC	??_R1A@?0A@EA@bad_alloc@std@@8			; std::bad_alloc::`RTTI Base Class Descriptor at (0,-1,0,64)'
PUBLIC	??_R1A@?0A@EA@exception@std@@8			; std::exception::`RTTI Base Class Descriptor at (0,-1,0,64)'
PUBLIC	??_R0?AVexception@std@@@8			; std::exception `RTTI Type Descriptor'
PUBLIC	??_R3exception@std@@8				; std::exception::`RTTI Class Hierarchy Descriptor'
PUBLIC	??_R2exception@std@@8				; std::exception::`RTTI Base Class Array'
EXTRN	__imp_??0exception@std@@QAE@ABQBD@Z:PROC
EXTRN	??_Ebad_alloc@std@@UAEPAXI@Z:PROC		; std::bad_alloc::`vector deleting destructor'
EXTRN	?what@exception@std@@UBEPBDXZ:PROC		; std::exception::what
;	COMDAT ??_R2exception@std@@8
; File c:\program files (x86)\microsoft visual studio 10.0\vc\include\exception
rdata$r	SEGMENT
??_R2exception@std@@8 DD FLAT:??_R1A@?0A@EA@exception@std@@8 ; std::exception::`RTTI Base Class Array'
rdata$r	ENDS
;	COMDAT ??_R3exception@std@@8
rdata$r	SEGMENT
??_R3exception@std@@8 DD 00H				; std::exception::`RTTI Class Hierarchy Descriptor'
	DD	00H
	DD	01H
	DD	FLAT:??_R2exception@std@@8
rdata$r	ENDS
;	COMDAT ??_R0?AVexception@std@@@8
_DATA	SEGMENT
??_R0?AVexception@std@@@8 DD FLAT:??_7type_info@@6B@	; std::exception `RTTI Type Descriptor'
	DD	00H
	DB	'.?AVexception@std@@', 00H
_DATA	ENDS
;	COMDAT ??_R1A@?0A@EA@exception@std@@8
rdata$r	SEGMENT
??_R1A@?0A@EA@exception@std@@8 DD FLAT:??_R0?AVexception@std@@@8 ; std::exception::`RTTI Base Class Descriptor at (0,-1,0,64)'
	DD	00H
	DD	00H
	DD	0ffffffffH
	DD	00H
	DD	040H
	DD	FLAT:??_R3exception@std@@8
rdata$r	ENDS
;	COMDAT ??_R1A@?0A@EA@bad_alloc@std@@8
rdata$r	SEGMENT
??_R1A@?0A@EA@bad_alloc@std@@8 DD FLAT:??_R0?AVbad_alloc@std@@@8 ; std::bad_alloc::`RTTI Base Class Descriptor at (0,-1,0,64)'
	DD	01H
	DD	00H
	DD	0ffffffffH
	DD	00H
	DD	040H
	DD	FLAT:??_R3bad_alloc@std@@8
rdata$r	ENDS
;	COMDAT ??_R2bad_alloc@std@@8
rdata$r	SEGMENT
??_R2bad_alloc@std@@8 DD FLAT:??_R1A@?0A@EA@bad_alloc@std@@8 ; std::bad_alloc::`RTTI Base Class Array'
	DD	FLAT:??_R1A@?0A@EA@exception@std@@8
rdata$r	ENDS
;	COMDAT ??_R3bad_alloc@std@@8
rdata$r	SEGMENT
??_R3bad_alloc@std@@8 DD 00H				; std::bad_alloc::`RTTI Class Hierarchy Descriptor'
	DD	00H
	DD	02H
	DD	FLAT:??_R2bad_alloc@std@@8
rdata$r	ENDS
;	COMDAT ??_R0?AVbad_alloc@std@@@8
_DATA	SEGMENT
??_R0?AVbad_alloc@std@@@8 DD FLAT:??_7type_info@@6B@	; std::bad_alloc `RTTI Type Descriptor'
	DD	00H
	DB	'.?AVbad_alloc@std@@', 00H
_DATA	ENDS
;	COMDAT ??_R4bad_alloc@std@@6B@
rdata$r	SEGMENT
??_R4bad_alloc@std@@6B@ DD 00H				; std::bad_alloc::`RTTI Complete Object Locator'
	DD	00H
	DD	00H
	DD	FLAT:??_R0?AVbad_alloc@std@@@8
	DD	FLAT:??_R3bad_alloc@std@@8
rdata$r	ENDS
;	COMDAT ??_7bad_alloc@std@@6B@
CONST	SEGMENT
??_7bad_alloc@std@@6B@ DD FLAT:??_R4bad_alloc@std@@6B@	; std::bad_alloc::`vftable'
	DD	FLAT:??_Ebad_alloc@std@@UAEPAXI@Z
	DD	FLAT:?what@exception@std@@UBEPBDXZ
; Function compile flags: /Ogsp
CONST	ENDS
;	COMDAT ??0bad_alloc@std@@QAE@PBD@Z
_TEXT	SEGMENT
__Message$ = 8						; size = 4
??0bad_alloc@std@@QAE@PBD@Z PROC			; std::bad_alloc::bad_alloc, COMDAT
; _this$ = ecx

; 345  : 		{	// construct from message string

  00000	55		 push	 ebp
  00001	8b ec		 mov	 ebp, esp
  00003	56		 push	 esi
  00004	8d 45 08	 lea	 eax, DWORD PTR __Message$[ebp]
  00007	50		 push	 eax
  00008	8b f1		 mov	 esi, ecx
  0000a	ff 15 00 00 00
	00		 call	 DWORD PTR __imp_??0exception@std@@QAE@ABQBD@Z
  00010	c7 06 00 00 00
	00		 mov	 DWORD PTR [esi], OFFSET ??_7bad_alloc@std@@6B@

; 346  : 		}

  00016	8b c6		 mov	 eax, esi
  00018	5e		 pop	 esi
  00019	5d		 pop	 ebp
  0001a	c2 04 00	 ret	 4
??0bad_alloc@std@@QAE@PBD@Z ENDP			; std::bad_alloc::bad_alloc
_TEXT	ENDS
PUBLIC	??1bad_alloc@std@@UAE@XZ			; std::bad_alloc::~bad_alloc
EXTRN	__imp_??1exception@std@@UAE@XZ:PROC
; Function compile flags: /Ogsp
;	COMDAT ??1bad_alloc@std@@UAE@XZ
_TEXT	SEGMENT
??1bad_alloc@std@@UAE@XZ PROC				; std::bad_alloc::~bad_alloc, COMDAT
; _this$ = ecx

; 354  : 		{	// destroy the object

  00000	c7 01 00 00 00
	00		 mov	 DWORD PTR [ecx], OFFSET ??_7bad_alloc@std@@6B@

; 355  : 		}

  00006	ff 25 00 00 00
	00		 jmp	 DWORD PTR __imp_??1exception@std@@UAE@XZ
??1bad_alloc@std@@UAE@XZ ENDP				; std::bad_alloc::~bad_alloc
; Function compile flags: /Ogsp
_TEXT	ENDS
;	COMDAT ??_Gbad_alloc@std@@UAEPAXI@Z
_TEXT	SEGMENT
___flags$ = 8						; size = 4
??_Gbad_alloc@std@@UAEPAXI@Z PROC			; std::bad_alloc::`scalar deleting destructor', COMDAT
; _this$ = ecx
  00000	55		 push	 ebp
  00001	8b ec		 mov	 ebp, esp
  00003	56		 push	 esi
  00004	8b f1		 mov	 esi, ecx
  00006	c7 06 00 00 00
	00		 mov	 DWORD PTR [esi], OFFSET ??_7bad_alloc@std@@6B@
  0000c	ff 15 00 00 00
	00		 call	 DWORD PTR __imp_??1exception@std@@UAE@XZ
  00012	f6 45 08 01	 test	 BYTE PTR ___flags$[ebp], 1
  00016	74 07		 je	 SHORT $LN1@scalar@2
  00018	56		 push	 esi
  00019	e8 00 00 00 00	 call	 ??3@YAXPAX@Z		; operator delete
  0001e	59		 pop	 ecx
$LN1@scalar@2:
  0001f	8b c6		 mov	 eax, esi
  00021	5e		 pop	 esi
  00022	5d		 pop	 ebp
  00023	c2 04 00	 ret	 4
??_Gbad_alloc@std@@UAEPAXI@Z ENDP			; std::bad_alloc::`scalar deleting destructor'
_TEXT	ENDS
PUBLIC	__real@4059000000000000
PUBLIC	?GetAdjacentBlockList@ioBlockMapBase@@QAEXHHABVTilePos@@MAAUBlockMapBuffer@@@Z ; ioBlockMapBase::GetAdjacentBlockList
;	COMDAT __real@4059000000000000
; File d:\lost saga for developer\youtube\tutorial\source\src\lsclient\housing\ioblockmapbase.h
CONST	SEGMENT
__real@4059000000000000 DQ 04059000000000000r	; 100
; Function compile flags: /Ogsp
; File d:\lost saga for developer\youtube\tutorial\source\src\lsclient\housing\ioblockmapbase.cpp
CONST	ENDS
;	COMDAT ?GetAdjacentBlockList@ioBlockMapBase@@QAEXHHABVTilePos@@MAAUBlockMapBuffer@@@Z
_TEXT	SEGMENT
_this$ = -20						; size = 4
_pContainer$515251 = -16				; size = 4
_nXStart$515255 = -12					; size = 4
_nZEnd$515254 = -8					; size = 4
_nXEnd$515256 = -4					; size = 4
_i$515247 = 8						; size = 4
_nMin$ = 8						; size = 4
_nMax$ = 12						; size = 4
_Pos$ = 16						; size = 4
_nZ$515257 = 20						; size = 4
_nZStart$515253 = 20					; size = 4
_fRange$ = 20						; size = 4
_List$ = 24						; size = 4
?GetAdjacentBlockList@ioBlockMapBase@@QAEXHHABVTilePos@@MAAUBlockMapBuffer@@@Z PROC ; ioBlockMapBase::GetAdjacentBlockList, COMDAT
; _this$ = ecx

; 246  : {

  00000	55		 push	 ebp
  00001	8b ec		 mov	 ebp, esp
  00003	83 ec 14	 sub	 esp, 20			; 00000014H

; 247  : 	int Range = fRange/UD_SIZE;	
; 248  : 	int nIndex		= 0;
; 249  : 	
; 250  : 	for( int i = nMin; i < nMax; ++i )

  00006	8b 45 08	 mov	 eax, DWORD PTR _nMin$[ebp]
  00009	f3 0f 10 45 14	 movss	 xmm0, DWORD PTR _fRange$[ebp]
  0000e	53		 push	 ebx
  0000f	8b d9		 mov	 ebx, ecx
  00011	0f 5a c0	 cvtps2pd xmm0, xmm0
  00014	f2 0f 5e 05 00
	00 00 00	 divsd	 xmm0, QWORD PTR __real@4059000000000000
  0001c	57		 push	 edi
  0001d	89 5d ec	 mov	 DWORD PTR _this$[ebp], ebx
  00020	f2 0f 2c f8	 cvttsd2si edi, xmm0
  00024	89 45 08	 mov	 DWORD PTR _i$515247[ebp], eax
  00027	3b 45 0c	 cmp	 eax, DWORD PTR _nMax$[ebp]
  0002a	0f 8d b5 00 00
	00		 jge	 $LN9@GetAdjacen
  00030	56		 push	 esi
$LL11@GetAdjacen:

; 251  : 	{
; 252  : 		PosMapContainer* pContainer = GetPosMapContainer( i );

  00031	ff 75 08	 push	 DWORD PTR _i$515247[ebp]
  00034	8b cb		 mov	 ecx, ebx
  00036	e8 00 00 00 00	 call	 ?GetPosMapContainer@ioBlockMapBase@@QAEPAV?$ioPosMapContainer@PAVioBlock@@@@H@Z ; ioBlockMapBase::GetPosMapContainer
  0003b	89 45 f0	 mov	 DWORD PTR _pContainer$515251[ebp], eax

; 253  : 		if( pContainer )

  0003e	85 c0		 test	 eax, eax
  00040	0f 84 8f 00 00
	00		 je	 $LN10@GetAdjacen

; 254  : 		{
; 255  : 			int nZStart = max( 0, Pos.z - Range );

  00046	8b 75 10	 mov	 esi, DWORD PTR _Pos$[ebp]
  00049	8b 46 04	 mov	 eax, DWORD PTR [esi+4]
  0004c	8b c8		 mov	 ecx, eax
  0004e	2b cf		 sub	 ecx, edi
  00050	79 06		 jns	 SHORT $LN14@GetAdjacen
  00052	83 65 14 00	 and	 DWORD PTR _nZStart$515253[ebp], 0
  00056	eb 03		 jmp	 SHORT $LN15@GetAdjacen
$LN14@GetAdjacen:
  00058	89 4d 14	 mov	 DWORD PTR _nZStart$515253[ebp], ecx
$LN15@GetAdjacen:

; 256  : 			int nZEnd	= min( m_nTileMax-1, Pos.z + Range );

  0005b	8b 53 60	 mov	 edx, DWORD PTR [ebx+96]
  0005e	4a		 dec	 edx
  0005f	8d 0c 38	 lea	 ecx, DWORD PTR [eax+edi]
  00062	89 55 f8	 mov	 DWORD PTR _nZEnd$515254[ebp], edx
  00065	3b d1		 cmp	 edx, ecx
  00067	7c 03		 jl	 SHORT $LN17@GetAdjacen
  00069	89 4d f8	 mov	 DWORD PTR _nZEnd$515254[ebp], ecx
$LN17@GetAdjacen:

; 257  : 			int nXStart	= max( 0, Pos.x - Range );

  0006c	8b 06		 mov	 eax, DWORD PTR [esi]
  0006e	8b c8		 mov	 ecx, eax
  00070	2b cf		 sub	 ecx, edi
  00072	79 06		 jns	 SHORT $LN18@GetAdjacen
  00074	83 65 f4 00	 and	 DWORD PTR _nXStart$515255[ebp], 0
  00078	eb 03		 jmp	 SHORT $LN19@GetAdjacen
$LN18@GetAdjacen:
  0007a	89 4d f4	 mov	 DWORD PTR _nXStart$515255[ebp], ecx
$LN19@GetAdjacen:

; 258  : 			int nXEnd	= min( m_nTileMax-1, Pos.x + Range );

  0007d	03 c7		 add	 eax, edi
  0007f	89 55 fc	 mov	 DWORD PTR _nXEnd$515256[ebp], edx
  00082	3b d0		 cmp	 edx, eax
  00084	7c 03		 jl	 SHORT $LN21@GetAdjacen
  00086	89 45 fc	 mov	 DWORD PTR _nXEnd$515256[ebp], eax
$LN21@GetAdjacen:

; 259  : 
; 260  : 			for( int nZ = nZStart; nZ <= nZEnd; ++nZ )

  00089	8b 45 14	 mov	 eax, DWORD PTR _nZStart$515253[ebp]
  0008c	89 45 14	 mov	 DWORD PTR _nZ$515257[ebp], eax
  0008f	eb 3f		 jmp	 SHORT $LN31@GetAdjacen
$LL7@GetAdjacen:

; 261  : 			{
; 262  : 				for( int nX = nXStart; nX <= nXEnd; ++nX )

  00091	8b 75 f4	 mov	 esi, DWORD PTR _nXStart$515255[ebp]
  00094	eb 2f		 jmp	 SHORT $LN32@GetAdjacen
$LL4@GetAdjacen:

; 263  : 				{					
; 264  : 					ioBlock* pBlock = pContainer->GetElement( nX + nZ * m_nTileMax );

  00096	8b 4b 60	 mov	 ecx, DWORD PTR [ebx+96]
  00099	0f af 4d 14	 imul	 ecx, DWORD PTR _nZ$515257[ebp]
  0009d	8b 45 f0	 mov	 eax, DWORD PTR _pContainer$515251[ebp]
  000a0	8b 00		 mov	 eax, DWORD PTR [eax]
  000a2	03 ce		 add	 ecx, esi
  000a4	51		 push	 ecx
  000a5	8b 4d f0	 mov	 ecx, DWORD PTR _pContainer$515251[ebp]
  000a8	ff 50 10	 call	 DWORD PTR [eax+16]

; 265  : 					if( pBlock )

  000ab	85 c0		 test	 eax, eax
  000ad	74 15		 je	 SHORT $LN3@GetAdjacen

; 266  : 						List.push_back( pBlock );

  000af	8b 55 18	 mov	 edx, DWORD PTR _List$[ebp]
  000b2	8b 9a 00 00 05
	00		 mov	 ebx, DWORD PTR [edx+327680]
  000b8	89 04 9a	 mov	 DWORD PTR [edx+ebx*4], eax
  000bb	ff 82 00 00 05
	00		 inc	 DWORD PTR [edx+327680]
  000c1	8b 5d ec	 mov	 ebx, DWORD PTR _this$[ebp]
$LN3@GetAdjacen:

; 261  : 			{
; 262  : 				for( int nX = nXStart; nX <= nXEnd; ++nX )

  000c4	46		 inc	 esi
$LN32@GetAdjacen:
  000c5	3b 75 fc	 cmp	 esi, DWORD PTR _nXEnd$515256[ebp]
  000c8	7e cc		 jle	 SHORT $LL4@GetAdjacen

; 259  : 
; 260  : 			for( int nZ = nZStart; nZ <= nZEnd; ++nZ )

  000ca	ff 45 14	 inc	 DWORD PTR _nZ$515257[ebp]
  000cd	8b 45 14	 mov	 eax, DWORD PTR _nZ$515257[ebp]
$LN31@GetAdjacen:
  000d0	3b 45 f8	 cmp	 eax, DWORD PTR _nZEnd$515254[ebp]
  000d3	7e bc		 jle	 SHORT $LL7@GetAdjacen
$LN10@GetAdjacen:

; 247  : 	int Range = fRange/UD_SIZE;	
; 248  : 	int nIndex		= 0;
; 249  : 	
; 250  : 	for( int i = nMin; i < nMax; ++i )

  000d5	ff 45 08	 inc	 DWORD PTR _i$515247[ebp]
  000d8	8b 45 08	 mov	 eax, DWORD PTR _i$515247[ebp]
  000db	3b 45 0c	 cmp	 eax, DWORD PTR _nMax$[ebp]
  000de	0f 8c 4d ff ff
	ff		 jl	 $LL11@GetAdjacen
  000e4	5e		 pop	 esi
$LN9@GetAdjacen:
  000e5	5f		 pop	 edi
  000e6	5b		 pop	 ebx

; 267  : 				}
; 268  : 			}
; 269  : 			
; 270  : 			//150911. JSM 최적화 : 인덱스 리스트를 계산하여 GetAdjacentIndexList 내부에서 
; 271  : 			//매 프레임마다 수십 수백개의 push_back()이 일어나면서 프레임 저하의 원인(메모리 재 할당 및 속도 문제)이 되어 함수를 제거
; 272  : 			/* 
; 273  : 			IntVec vVec;
; 274  : 			GetAdjacentIndexList( Pos.x, Pos.z, , vVec )
; 275  : 			for( int nPos = 0; nPos < (int)vVec.size(); ++nPos )
; 276  : 			{
; 277  : 				ioBlock* pBlock = pContainer->GetElement( vVec[nPos] );
; 278  : 				if( pBlock )
; 279  : 					List.push_back( pBlock );
; 280  : 			}
; 281  : 			*/
; 282  : 		}
; 283  : 	}
; 284  : }

  000e7	c9		 leave
  000e8	c2 14 00	 ret	 20			; 00000014H
?GetAdjacentBlockList@ioBlockMapBase@@QAEXHHABVTilePos@@MAAUBlockMapBuffer@@@Z ENDP ; ioBlockMapBase::GetAdjacentBlockList
_TEXT	ENDS
PUBLIC	?GetAdjacentBlockListByTile@ioBlockMapBase@@QAEXABVTilePos@@MAAUBlockMapBuffer@@@Z ; ioBlockMapBase::GetAdjacentBlockListByTile
; Function compile flags: /Ogsp
;	COMDAT ?GetAdjacentBlockListByTile@ioBlockMapBase@@QAEXABVTilePos@@MAAUBlockMapBuffer@@@Z
_TEXT	SEGMENT
_nXStart$515277 = -8					; size = 4
_nZEnd$515276 = -4					; size = 4
_nXEnd$515278 = 8					; size = 4
_Pos$ = 8						; size = 4
_nZ$515279 = 12						; size = 4
_nZStart$515275 = 12					; size = 4
_fRange$ = 12						; size = 4
_List$ = 16						; size = 4
?GetAdjacentBlockListByTile@ioBlockMapBase@@QAEXABVTilePos@@MAAUBlockMapBuffer@@@Z PROC ; ioBlockMapBase::GetAdjacentBlockListByTile, COMDAT
; _this$ = ecx

; 287  : {

  00000	55		 push	 ebp
  00001	8b ec		 mov	 ebp, esp
  00003	51		 push	 ecx
  00004	51		 push	 ecx
  00005	57		 push	 edi
  00006	8b f9		 mov	 edi, ecx

; 288  : 	if( m_pTileContainer )

  00008	83 7f 58 00	 cmp	 DWORD PTR [edi+88], 0
  0000c	0f 84 a1 00 00
	00		 je	 $LN5@GetAdjacen@2

; 289  : 	{
; 290  : 		int Range = fRange/UD_SIZE;

  00012	f3 0f 10 45 0c	 movss	 xmm0, DWORD PTR _fRange$[ebp]
  00017	53		 push	 ebx

; 291  : 		int nZStart = max( 0, Pos.z - Range );

  00018	8b 5d 08	 mov	 ebx, DWORD PTR _Pos$[ebp]
  0001b	8b 4b 04	 mov	 ecx, DWORD PTR [ebx+4]
  0001e	0f 5a c0	 cvtps2pd xmm0, xmm0
  00021	f2 0f 5e 05 00
	00 00 00	 divsd	 xmm0, QWORD PTR __real@4059000000000000
  00029	8b d1		 mov	 edx, ecx
  0002b	f2 0f 2c c0	 cvttsd2si eax, xmm0
  0002f	2b d0		 sub	 edx, eax
  00031	79 06		 jns	 SHORT $LN11@GetAdjacen@2
  00033	83 65 0c 00	 and	 DWORD PTR _nZStart$515275[ebp], 0
  00037	eb 03		 jmp	 SHORT $LN12@GetAdjacen@2
$LN11@GetAdjacen@2:
  00039	89 55 0c	 mov	 DWORD PTR _nZStart$515275[ebp], edx
$LN12@GetAdjacen@2:
  0003c	56		 push	 esi

; 292  : 		int nZEnd	= min( m_nTileMax-1, Pos.z + Range );

  0003d	8b 77 60	 mov	 esi, DWORD PTR [edi+96]
  00040	4e		 dec	 esi
  00041	8d 14 01	 lea	 edx, DWORD PTR [ecx+eax]
  00044	89 75 fc	 mov	 DWORD PTR _nZEnd$515276[ebp], esi
  00047	3b f2		 cmp	 esi, edx
  00049	7c 03		 jl	 SHORT $LN14@GetAdjacen@2
  0004b	89 55 fc	 mov	 DWORD PTR _nZEnd$515276[ebp], edx
$LN14@GetAdjacen@2:

; 293  : 		int nXStart	= max( 0, Pos.x - Range );

  0004e	8b 0b		 mov	 ecx, DWORD PTR [ebx]
  00050	8b d1		 mov	 edx, ecx
  00052	2b d0		 sub	 edx, eax
  00054	79 06		 jns	 SHORT $LN15@GetAdjacen@2
  00056	83 65 f8 00	 and	 DWORD PTR _nXStart$515277[ebp], 0
  0005a	eb 03		 jmp	 SHORT $LN16@GetAdjacen@2
$LN15@GetAdjacen@2:
  0005c	89 55 f8	 mov	 DWORD PTR _nXStart$515277[ebp], edx
$LN16@GetAdjacen@2:

; 294  : 		int nXEnd	= min( m_nTileMax-1, Pos.x + Range );

  0005f	03 c1		 add	 eax, ecx
  00061	89 75 08	 mov	 DWORD PTR _nXEnd$515278[ebp], esi
  00064	3b f0		 cmp	 esi, eax
  00066	7c 03		 jl	 SHORT $LN18@GetAdjacen@2
  00068	89 45 08	 mov	 DWORD PTR _nXEnd$515278[ebp], eax
$LN18@GetAdjacen@2:

; 295  : 
; 296  : 		for( int nZ = nZStart; nZ <= nZEnd; ++nZ )

  0006b	8b 45 0c	 mov	 eax, DWORD PTR _nZStart$515275[ebp]
  0006e	89 45 0c	 mov	 DWORD PTR _nZ$515279[ebp], eax
  00071	eb 39		 jmp	 SHORT $LN29@GetAdjacen@2
$LL25@GetAdjacen@2:

; 297  : 		{
; 298  : 			for( int nX = nXStart; nX <= nXEnd; ++nX )

  00073	8b 75 f8	 mov	 esi, DWORD PTR _nXStart$515277[ebp]
  00076	eb 29		 jmp	 SHORT $LN30@GetAdjacen@2
$LL26@GetAdjacen@2:

; 299  : 			{
; 300  : 				ioBlock* pBlock = m_pTileContainer->GetElement( nX + nZ * m_nTileMax );

  00078	8b 57 60	 mov	 edx, DWORD PTR [edi+96]
  0007b	0f af 55 0c	 imul	 edx, DWORD PTR _nZ$515279[ebp]
  0007f	8b 4f 58	 mov	 ecx, DWORD PTR [edi+88]
  00082	8b 01		 mov	 eax, DWORD PTR [ecx]
  00084	03 d6		 add	 edx, esi
  00086	52		 push	 edx
  00087	ff 50 10	 call	 DWORD PTR [eax+16]

; 301  : 				if( pBlock )

  0008a	85 c0		 test	 eax, eax
  0008c	74 12		 je	 SHORT $LN3@GetAdjacen@2

; 302  : 					List.push_back( pBlock );

  0008e	8b 55 10	 mov	 edx, DWORD PTR _List$[ebp]
  00091	8b 9a 00 00 05
	00		 mov	 ebx, DWORD PTR [edx+327680]
  00097	89 04 9a	 mov	 DWORD PTR [edx+ebx*4], eax
  0009a	ff 82 00 00 05
	00		 inc	 DWORD PTR [edx+327680]
$LN3@GetAdjacen@2:

; 297  : 		{
; 298  : 			for( int nX = nXStart; nX <= nXEnd; ++nX )

  000a0	46		 inc	 esi
$LN30@GetAdjacen@2:
  000a1	3b 75 08	 cmp	 esi, DWORD PTR _nXEnd$515278[ebp]
  000a4	7e d2		 jle	 SHORT $LL26@GetAdjacen@2

; 295  : 
; 296  : 		for( int nZ = nZStart; nZ <= nZEnd; ++nZ )

  000a6	ff 45 0c	 inc	 DWORD PTR _nZ$515279[ebp]
  000a9	8b 45 0c	 mov	 eax, DWORD PTR _nZ$515279[ebp]
$LN29@GetAdjacen@2:
  000ac	3b 45 fc	 cmp	 eax, DWORD PTR _nZEnd$515276[ebp]
  000af	7e c2		 jle	 SHORT $LL25@GetAdjacen@2
  000b1	5e		 pop	 esi
  000b2	5b		 pop	 ebx
$LN5@GetAdjacen@2:
  000b3	5f		 pop	 edi

; 303  : 			}
; 304  : 		}
; 305  : 	}
; 306  : }

  000b4	c9		 leave
  000b5	c2 0c 00	 ret	 12			; 0000000cH
?GetAdjacentBlockListByTile@ioBlockMapBase@@QAEXABVTilePos@@MAAUBlockMapBuffer@@@Z ENDP ; ioBlockMapBase::GetAdjacentBlockListByTile
_TEXT	ENDS
PUBLIC	?RenderPosQuadTree@ioBlockMapBase@@QAEXPAVioPlayStage@@PAVioCamera@@@Z ; ioBlockMapBase::RenderPosQuadTree
EXTRN	?RenderCollision@ioPosMapQuadTree@@QAEXPAVioPlayStage@@PAVioCamera@@@Z:PROC ; ioPosMapQuadTree::RenderCollision
; Function compile flags: /Ogsp
;	COMDAT ?RenderPosQuadTree@ioBlockMapBase@@QAEXPAVioPlayStage@@PAVioCamera@@@Z
_TEXT	SEGMENT
_pStage$ = 8						; size = 4
_pCamera$ = 12						; size = 4
?RenderPosQuadTree@ioBlockMapBase@@QAEXPAVioPlayStage@@PAVioCamera@@@Z PROC ; ioBlockMapBase::RenderPosQuadTree, COMDAT
; _this$ = ecx

; 341  : {

  00000	55		 push	 ebp
  00001	8b ec		 mov	 ebp, esp

; 342  : 	if( m_pBlockQuadTree )

  00003	8b 49 04	 mov	 ecx, DWORD PTR [ecx+4]
  00006	85 c9		 test	 ecx, ecx
  00008	74 06		 je	 SHORT $LN1@RenderPosQ

; 344  : }

  0000a	5d		 pop	 ebp

; 343  : 		m_pBlockQuadTree->RenderCollision( pStage, pCamera );

  0000b	e9 00 00 00 00	 jmp	 ?RenderCollision@ioPosMapQuadTree@@QAEXPAVioPlayStage@@PAVioCamera@@@Z ; ioPosMapQuadTree::RenderCollision
$LN1@RenderPosQ:

; 344  : }

  00010	5d		 pop	 ebp
  00011	c2 08 00	 ret	 8
?RenderPosQuadTree@ioBlockMapBase@@QAEXPAVioPlayStage@@PAVioCamera@@@Z ENDP ; ioBlockMapBase::RenderPosQuadTree
_TEXT	ENDS
PUBLIC	??2@YAPAXIPAX@Z					; operator new
; Function compile flags: /Ogsp
; File c:\program files (x86)\microsoft visual studio 10.0\vc\include\new
;	COMDAT ??2@YAPAXIPAX@Z
_TEXT	SEGMENT
___formal$ = 8						; size = 4
__Where$ = 12						; size = 4
??2@YAPAXIPAX@Z PROC					; operator new, COMDAT

; 56   : 	{	// construct array with placement at _Where

  00000	55		 push	 ebp
  00001	8b ec		 mov	 ebp, esp

; 57   : 	return (_Where);

  00003	8b 45 0c	 mov	 eax, DWORD PTR __Where$[ebp]

; 58   : 	}

  00006	5d		 pop	 ebp
  00007	c3		 ret	 0
??2@YAPAXIPAX@Z ENDP					; operator new
_TEXT	ENDS
PUBLIC	??3@YAXPAX0@Z					; operator delete
; Function compile flags: /Ogsp
;	COMDAT ??3@YAXPAX0@Z
_TEXT	SEGMENT
___formal$ = 8						; size = 4
___formal$ = 12						; size = 4
??3@YAXPAX0@Z PROC					; operator delete, COMDAT

; 62   : 	}

  00000	c3		 ret	 0
??3@YAXPAX0@Z ENDP					; operator delete
_TEXT	ENDS
PUBLIC	?RenderBlockAABB@ioBlockMapBase@@QAEXW4CollRenderType@@PAVioPlayStage@@PAVioCamera@@@Z ; ioBlockMapBase::RenderBlockAABB
EXTRN	?RenderBlockAABB@ioBlock@@QAEXW4CollRenderType@@PAVioPlayStage@@PAVioCamera@@@Z:PROC ; ioBlock::RenderBlockAABB
; Function compile flags: /Ogsp
; File d:\lost saga for developer\youtube\tutorial\source\src\lsclient\housing\ioblockmapbase.cpp
;	COMDAT ?RenderBlockAABB@ioBlockMapBase@@QAEXW4CollRenderType@@PAVioPlayStage@@PAVioCamera@@@Z
_TEXT	SEGMENT
_i$515326 = -4						; size = 4
_eType$ = 8						; size = 4
_pStage$ = 12						; size = 4
_pCamera$ = 16						; size = 4
?RenderBlockAABB@ioBlockMapBase@@QAEXW4CollRenderType@@PAVioPlayStage@@PAVioCamera@@@Z PROC ; ioBlockMapBase::RenderBlockAABB, COMDAT
; _this$ = ecx

; 347  : {

  00000	55		 push	 ebp
  00001	8b ec		 mov	 ebp, esp
  00003	51		 push	 ecx

; 348  : 	switch( eType )

  00004	33 c0		 xor	 eax, eax
  00006	53		 push	 ebx
  00007	8b d9		 mov	 ebx, ecx
  00009	39 45 08	 cmp	 DWORD PTR _eType$[ebp], eax
  0000c	7e 62		 jle	 SHORT $LN6@RenderBloc
  0000e	83 7d 08 03	 cmp	 DWORD PTR _eType$[ebp], 3
  00012	7f 5c		 jg	 SHORT $LN6@RenderBloc

; 349  : 	{
; 350  : 	case RENDER_BOX:
; 351  : 	case RENDER_SPHERE:
; 352  : 	case RENDER_INTERPLAY_BOX:
; 353  : 		{
; 354  : 			for( int i = 0; i < m_nHeightMax; ++i )

  00014	89 45 fc	 mov	 DWORD PTR _i$515326[ebp], eax
  00017	39 43 5c	 cmp	 DWORD PTR [ebx+92], eax
  0001a	7e 54		 jle	 SHORT $LN6@RenderBloc
  0001c	56		 push	 esi
  0001d	57		 push	 edi
$LL19@RenderBloc:

; 355  : 			{
; 356  : 				PosMapContainer* pContainer = GetPosMapContainer( i );

  0001e	ff 75 fc	 push	 DWORD PTR _i$515326[ebp]
  00021	8b cb		 mov	 ecx, ebx
  00023	e8 00 00 00 00	 call	 ?GetPosMapContainer@ioBlockMapBase@@QAEPAV?$ioPosMapContainer@PAVioBlock@@@@H@Z ; ioBlockMapBase::GetPosMapContainer
  00028	8b f0		 mov	 esi, eax

; 357  : 				if( !pContainer )

  0002a	85 f6		 test	 esi, esi
  0002c	74 35		 je	 SHORT $LN7@RenderBloc

; 358  : 					continue;
; 359  : 
; 360  : 				for( int nPos = 0; nPos < pContainer->GetMax(); ++nPos )

  0002e	8b 06		 mov	 eax, DWORD PTR [esi]
  00030	8b ce		 mov	 ecx, esi
  00032	33 ff		 xor	 edi, edi
  00034	ff 50 1c	 call	 DWORD PTR [eax+28]
  00037	85 c0		 test	 eax, eax
  00039	7e 28		 jle	 SHORT $LN7@RenderBloc
$LL4@RenderBloc:

; 361  : 				{
; 362  : 					ioBlock* pBlock = pContainer->GetElement( nPos );

  0003b	8b 06		 mov	 eax, DWORD PTR [esi]
  0003d	57		 push	 edi
  0003e	8b ce		 mov	 ecx, esi
  00040	ff 50 10	 call	 DWORD PTR [eax+16]

; 363  : 					if( !pBlock )

  00043	85 c0		 test	 eax, eax
  00045	74 10		 je	 SHORT $LN3@RenderBloc

; 364  : 						continue;
; 365  : 
; 366  : 					pBlock->RenderBlockAABB( eType, pStage, pCamera );

  00047	ff 75 10	 push	 DWORD PTR _pCamera$[ebp]
  0004a	8b c8		 mov	 ecx, eax
  0004c	ff 75 0c	 push	 DWORD PTR _pStage$[ebp]
  0004f	ff 75 08	 push	 DWORD PTR _eType$[ebp]
  00052	e8 00 00 00 00	 call	 ?RenderBlockAABB@ioBlock@@QAEXW4CollRenderType@@PAVioPlayStage@@PAVioCamera@@@Z ; ioBlock::RenderBlockAABB
$LN3@RenderBloc:

; 358  : 					continue;
; 359  : 
; 360  : 				for( int nPos = 0; nPos < pContainer->GetMax(); ++nPos )

  00057	8b 06		 mov	 eax, DWORD PTR [esi]
  00059	8b ce		 mov	 ecx, esi
  0005b	47		 inc	 edi
  0005c	ff 50 1c	 call	 DWORD PTR [eax+28]
  0005f	3b f8		 cmp	 edi, eax
  00061	7c d8		 jl	 SHORT $LL4@RenderBloc
$LN7@RenderBloc:

; 349  : 	{
; 350  : 	case RENDER_BOX:
; 351  : 	case RENDER_SPHERE:
; 352  : 	case RENDER_INTERPLAY_BOX:
; 353  : 		{
; 354  : 			for( int i = 0; i < m_nHeightMax; ++i )

  00063	ff 45 fc	 inc	 DWORD PTR _i$515326[ebp]
  00066	8b 45 fc	 mov	 eax, DWORD PTR _i$515326[ebp]
  00069	3b 43 5c	 cmp	 eax, DWORD PTR [ebx+92]
  0006c	7c b0		 jl	 SHORT $LL19@RenderBloc
  0006e	5f		 pop	 edi
  0006f	5e		 pop	 esi
$LN6@RenderBloc:
  00070	5b		 pop	 ebx

; 367  : 				}
; 368  : 			}
; 369  : 		}
; 370  : 		break;
; 371  : 	}
; 372  : }

  00071	c9		 leave
  00072	c2 0c 00	 ret	 12			; 0000000cH
?RenderBlockAABB@ioBlockMapBase@@QAEXW4CollRenderType@@PAVioPlayStage@@PAVioCamera@@@Z ENDP ; ioBlockMapBase::RenderBlockAABB
_TEXT	ENDS
PUBLIC	?Init@?$ioPos64MapContainer@PAVioBlock@@@@UAEXXZ ; ioPos64MapContainer<ioBlock *>::Init
; Function compile flags: /Ogsp
; File d:\lost saga for developer\youtube\tutorial\source\src\lsclient\housing\ioposmapcontainer.h
;	COMDAT ?Init@?$ioPos64MapContainer@PAVioBlock@@@@UAEXXZ
_TEXT	SEGMENT
?Init@?$ioPos64MapContainer@PAVioBlock@@@@UAEXXZ PROC	; ioPos64MapContainer<ioBlock *>::Init, COMDAT
; _this$ = ecx

; 113  : 	{

  00000	57		 push	 edi

; 114  : 		for( int nZ = 0; nZ < PMCS_64; ++nZ )

  00001	8d 79 04	 lea	 edi, DWORD PTR [ecx+4]

; 115  : 		{
; 116  : 			for( int nX = 0; nX < PMCS_64; ++nX )
; 117  : 			{	
; 118  : 				m_PosMap[nX + nZ * PMCS_64] = NULL;

  00004	b9 00 10 00 00	 mov	 ecx, 4096		; 00001000H
  00009	33 c0		 xor	 eax, eax
  0000b	f3 ab		 rep stosd
  0000d	5f		 pop	 edi

; 119  : 			}
; 120  : 		}
; 121  : 	}

  0000e	c3		 ret	 0
?Init@?$ioPos64MapContainer@PAVioBlock@@@@UAEXXZ ENDP	; ioPos64MapContainer<ioBlock *>::Init
_TEXT	ENDS
PUBLIC	?Init@?$ioPos32MapContainer@PAVioBlock@@@@UAEXXZ ; ioPos32MapContainer<ioBlock *>::Init
; Function compile flags: /Ogsp
;	COMDAT ?Init@?$ioPos32MapContainer@PAVioBlock@@@@UAEXXZ
_TEXT	SEGMENT
?Init@?$ioPos32MapContainer@PAVioBlock@@@@UAEXXZ PROC	; ioPos32MapContainer<ioBlock *>::Init, COMDAT
; _this$ = ecx

; 42   : 	{

  00000	57		 push	 edi

; 43   : 		for( int nZ = 0; nZ < PMCS_32; ++nZ )

  00001	8d 79 04	 lea	 edi, DWORD PTR [ecx+4]

; 44   : 		{
; 45   : 			for( int nX = 0; nX < PMCS_32; ++nX )
; 46   : 			{	
; 47   : 				m_PosMap[nX + nZ * PMCS_32] = NULL;

  00004	b9 00 04 00 00	 mov	 ecx, 1024		; 00000400H
  00009	33 c0		 xor	 eax, eax
  0000b	f3 ab		 rep stosd
  0000d	5f		 pop	 edi

; 48   : 			}
; 49   : 		}
; 50   : 	}

  0000e	c3		 ret	 0
?Init@?$ioPos32MapContainer@PAVioBlock@@@@UAEXXZ ENDP	; ioPos32MapContainer<ioBlock *>::Init
_TEXT	ENDS
PUBLIC	?Init@?$ioPos64MapContainer@PAVioTileBlock@@@@UAEXXZ ; ioPos64MapContainer<ioTileBlock *>::Init
; Function compile flags: /Ogsp
;	COMDAT ?Init@?$ioPos64MapContainer@PAVioTileBlock@@@@UAEXXZ
_TEXT	SEGMENT
?Init@?$ioPos64MapContainer@PAVioTileBlock@@@@UAEXXZ PROC ; ioPos64MapContainer<ioTileBlock *>::Init, COMDAT
; _this$ = ecx

; 113  : 	{

  00000	57		 push	 edi

; 114  : 		for( int nZ = 0; nZ < PMCS_64; ++nZ )

  00001	8d 79 04	 lea	 edi, DWORD PTR [ecx+4]

; 115  : 		{
; 116  : 			for( int nX = 0; nX < PMCS_64; ++nX )
; 117  : 			{	
; 118  : 				m_PosMap[nX + nZ * PMCS_64] = NULL;

  00004	b9 00 10 00 00	 mov	 ecx, 4096		; 00001000H
  00009	33 c0		 xor	 eax, eax
  0000b	f3 ab		 rep stosd
  0000d	5f		 pop	 edi

; 119  : 			}
; 120  : 		}
; 121  : 	}

  0000e	c3		 ret	 0
?Init@?$ioPos64MapContainer@PAVioTileBlock@@@@UAEXXZ ENDP ; ioPos64MapContainer<ioTileBlock *>::Init
_TEXT	ENDS
PUBLIC	?Init@?$ioPos32MapContainer@PAVioTileBlock@@@@UAEXXZ ; ioPos32MapContainer<ioTileBlock *>::Init
; Function compile flags: /Ogsp
;	COMDAT ?Init@?$ioPos32MapContainer@PAVioTileBlock@@@@UAEXXZ
_TEXT	SEGMENT
?Init@?$ioPos32MapContainer@PAVioTileBlock@@@@UAEXXZ PROC ; ioPos32MapContainer<ioTileBlock *>::Init, COMDAT
; _this$ = ecx

; 42   : 	{

  00000	57		 push	 edi

; 43   : 		for( int nZ = 0; nZ < PMCS_32; ++nZ )

  00001	8d 79 04	 lea	 edi, DWORD PTR [ecx+4]

; 44   : 		{
; 45   : 			for( int nX = 0; nX < PMCS_32; ++nX )
; 46   : 			{	
; 47   : 				m_PosMap[nX + nZ * PMCS_32] = NULL;

  00004	b9 00 04 00 00	 mov	 ecx, 1024		; 00000400H
  00009	33 c0		 xor	 eax, eax
  0000b	f3 ab		 rep stosd
  0000d	5f		 pop	 edi

; 48   : 			}
; 49   : 		}
; 50   : 	}

  0000e	c3		 ret	 0
?Init@?$ioPos32MapContainer@PAVioTileBlock@@@@UAEXXZ ENDP ; ioPos32MapContainer<ioTileBlock *>::Init
_TEXT	ENDS
PUBLIC	??_7?$ioPosMapContainer@PAVioBlock@@@@6B@	; ioPosMapContainer<ioBlock *>::`vftable'
PUBLIC	??0?$ioPosMapContainer@PAVioBlock@@@@QAE@XZ	; ioPosMapContainer<ioBlock *>::ioPosMapContainer<ioBlock *>
PUBLIC	??_R4?$ioPosMapContainer@PAVioBlock@@@@6B@	; ioPosMapContainer<ioBlock *>::`RTTI Complete Object Locator'
PUBLIC	??_R0?AV?$ioPosMapContainer@PAVioBlock@@@@@8	; ioPosMapContainer<ioBlock *> `RTTI Type Descriptor'
PUBLIC	??_R3?$ioPosMapContainer@PAVioBlock@@@@8	; ioPosMapContainer<ioBlock *>::`RTTI Class Hierarchy Descriptor'
PUBLIC	??_R2?$ioPosMapContainer@PAVioBlock@@@@8	; ioPosMapContainer<ioBlock *>::`RTTI Base Class Array'
PUBLIC	??_R1A@?0A@EA@?$ioPosMapContainer@PAVioBlock@@@@8 ; ioPosMapContainer<ioBlock *>::`RTTI Base Class Descriptor at (0,-1,0,64)'
PUBLIC	?Destroy@?$ioPosMapContainer@PAVioBlock@@@@UAEXXZ ; ioPosMapContainer<ioBlock *>::Destroy
PUBLIC	?Init@?$ioPosMapContainer@PAVioBlock@@@@UAEXXZ	; ioPosMapContainer<ioBlock *>::Init
PUBLIC	?AddElement@?$ioPosMapContainer@PAVioBlock@@@@UAEXPAVioBlock@@H@Z ; ioPosMapContainer<ioBlock *>::AddElement
PUBLIC	?AddElement@?$ioPosMapContainer@PAVioBlock@@@@UAEXPAVioBlock@@VTilePos@@@Z ; ioPosMapContainer<ioBlock *>::AddElement
PUBLIC	?GetElement@?$ioPosMapContainer@PAVioBlock@@@@UAEPAVioBlock@@H@Z ; ioPosMapContainer<ioBlock *>::GetElement
PUBLIC	?GetElement@?$ioPosMapContainer@PAVioBlock@@@@UAEPAVioBlock@@VTilePos@@@Z ; ioPosMapContainer<ioBlock *>::GetElement
PUBLIC	?RemoveElement@?$ioPosMapContainer@PAVioBlock@@@@UAEXH@Z ; ioPosMapContainer<ioBlock *>::RemoveElement
PUBLIC	?GetMax@?$ioPosMapContainer@PAVioBlock@@@@UAEHXZ ; ioPosMapContainer<ioBlock *>::GetMax
;	COMDAT ??_R1A@?0A@EA@?$ioPosMapContainer@PAVioBlock@@@@8
rdata$r	SEGMENT
??_R1A@?0A@EA@?$ioPosMapContainer@PAVioBlock@@@@8 DD FLAT:??_R0?AV?$ioPosMapContainer@PAVioBlock@@@@@8 ; ioPosMapContainer<ioBlock *>::`RTTI Base Class Descriptor at (0,-1,0,64)'
	DD	00H
	DD	00H
	DD	0ffffffffH
	DD	00H
	DD	040H
	DD	FLAT:??_R3?$ioPosMapContainer@PAVioBlock@@@@8
rdata$r	ENDS
;	COMDAT ??_R2?$ioPosMapContainer@PAVioBlock@@@@8
rdata$r	SEGMENT
??_R2?$ioPosMapContainer@PAVioBlock@@@@8 DD FLAT:??_R1A@?0A@EA@?$ioPosMapContainer@PAVioBlock@@@@8 ; ioPosMapContainer<ioBlock *>::`RTTI Base Class Array'
rdata$r	ENDS
;	COMDAT ??_R3?$ioPosMapContainer@PAVioBlock@@@@8
rdata$r	SEGMENT
??_R3?$ioPosMapContainer@PAVioBlock@@@@8 DD 00H		; ioPosMapContainer<ioBlock *>::`RTTI Class Hierarchy Descriptor'
	DD	00H
	DD	01H
	DD	FLAT:??_R2?$ioPosMapContainer@PAVioBlock@@@@8
rdata$r	ENDS
;	COMDAT ??_R0?AV?$ioPosMapContainer@PAVioBlock@@@@@8
_DATA	SEGMENT
??_R0?AV?$ioPosMapContainer@PAVioBlock@@@@@8 DD FLAT:??_7type_info@@6B@ ; ioPosMapContainer<ioBlock *> `RTTI Type Descriptor'
	DD	00H
	DB	'.?AV?$ioPosMapContainer@PAVioBlock@@@@', 00H
_DATA	ENDS
;	COMDAT ??_R4?$ioPosMapContainer@PAVioBlock@@@@6B@
rdata$r	SEGMENT
??_R4?$ioPosMapContainer@PAVioBlock@@@@6B@ DD 00H	; ioPosMapContainer<ioBlock *>::`RTTI Complete Object Locator'
	DD	00H
	DD	00H
	DD	FLAT:??_R0?AV?$ioPosMapContainer@PAVioBlock@@@@@8
	DD	FLAT:??_R3?$ioPosMapContainer@PAVioBlock@@@@8
rdata$r	ENDS
;	COMDAT ??_7?$ioPosMapContainer@PAVioBlock@@@@6B@
CONST	SEGMENT
??_7?$ioPosMapContainer@PAVioBlock@@@@6B@ DD FLAT:??_R4?$ioPosMapContainer@PAVioBlock@@@@6B@ ; ioPosMapContainer<ioBlock *>::`vftable'
	DD	FLAT:?Destroy@?$ioPosMapContainer@PAVioBlock@@@@UAEXXZ
	DD	FLAT:?Init@?$ioPosMapContainer@PAVioBlock@@@@UAEXXZ
	DD	FLAT:?AddElement@?$ioPosMapContainer@PAVioBlock@@@@UAEXPAVioBlock@@H@Z
	DD	FLAT:?AddElement@?$ioPosMapContainer@PAVioBlock@@@@UAEXPAVioBlock@@VTilePos@@@Z
	DD	FLAT:?GetElement@?$ioPosMapContainer@PAVioBlock@@@@UAEPAVioBlock@@H@Z
	DD	FLAT:?GetElement@?$ioPosMapContainer@PAVioBlock@@@@UAEPAVioBlock@@VTilePos@@@Z
	DD	FLAT:?RemoveElement@?$ioPosMapContainer@PAVioBlock@@@@UAEXH@Z
	DD	FLAT:?GetMax@?$ioPosMapContainer@PAVioBlock@@@@UAEHXZ
; Function compile flags: /Ogsp
CONST	ENDS
;	COMDAT ??0?$ioPosMapContainer@PAVioBlock@@@@QAE@XZ
_TEXT	SEGMENT
??0?$ioPosMapContainer@PAVioBlock@@@@QAE@XZ PROC	; ioPosMapContainer<ioBlock *>::ioPosMapContainer<ioBlock *>, COMDAT
; _this$ = ecx
  00000	8b c1		 mov	 eax, ecx
  00002	c7 00 00 00 00
	00		 mov	 DWORD PTR [eax], OFFSET ??_7?$ioPosMapContainer@PAVioBlock@@@@6B@
  00008	c3		 ret	 0
??0?$ioPosMapContainer@PAVioBlock@@@@QAE@XZ ENDP	; ioPosMapContainer<ioBlock *>::ioPosMapContainer<ioBlock *>
; Function compile flags: /Ogsp
_TEXT	ENDS
;	COMDAT ?Destroy@?$ioPosMapContainer@PAVioBlock@@@@UAEXXZ
_TEXT	SEGMENT
?Destroy@?$ioPosMapContainer@PAVioBlock@@@@UAEXXZ PROC	; ioPosMapContainer<ioBlock *>::Destroy, COMDAT
; _this$ = ecx

; 7    : 	virtual void Destroy(){}

  00000	c3		 ret	 0
?Destroy@?$ioPosMapContainer@PAVioBlock@@@@UAEXXZ ENDP	; ioPosMapContainer<ioBlock *>::Destroy
; Function compile flags: /Ogsp
_TEXT	ENDS
;	COMDAT ?Init@?$ioPosMapContainer@PAVioBlock@@@@UAEXXZ
_TEXT	SEGMENT
?Init@?$ioPosMapContainer@PAVioBlock@@@@UAEXXZ PROC	; ioPosMapContainer<ioBlock *>::Init, COMDAT
; _this$ = ecx

; 8    : 	virtual void Init(){}

  00000	c3		 ret	 0
?Init@?$ioPosMapContainer@PAVioBlock@@@@UAEXXZ ENDP	; ioPosMapContainer<ioBlock *>::Init
; Function compile flags: /Ogsp
_TEXT	ENDS
;	COMDAT ?AddElement@?$ioPosMapContainer@PAVioBlock@@@@UAEXPAVioBlock@@VTilePos@@@Z
_TEXT	SEGMENT
_pEntity$ = 8						; size = 4
_Pos$ = 12						; size = 16
?AddElement@?$ioPosMapContainer@PAVioBlock@@@@UAEXPAVioBlock@@VTilePos@@@Z PROC ; ioPosMapContainer<ioBlock *>::AddElement, COMDAT
; _this$ = ecx

; 9    : 	virtual void AddElement( T pEntity, TilePos Pos ){}

  00000	c2 14 00	 ret	 20			; 00000014H
?AddElement@?$ioPosMapContainer@PAVioBlock@@@@UAEXPAVioBlock@@VTilePos@@@Z ENDP ; ioPosMapContainer<ioBlock *>::AddElement
; Function compile flags: /Ogsp
_TEXT	ENDS
;	COMDAT ?AddElement@?$ioPosMapContainer@PAVioBlock@@@@UAEXPAVioBlock@@H@Z
_TEXT	SEGMENT
_pEntity$ = 8						; size = 4
_Index$ = 12						; size = 4
?AddElement@?$ioPosMapContainer@PAVioBlock@@@@UAEXPAVioBlock@@H@Z PROC ; ioPosMapContainer<ioBlock *>::AddElement, COMDAT
; _this$ = ecx

; 10   : 	virtual void AddElement( T pEntity, int Index ){}

  00000	c2 08 00	 ret	 8
?AddElement@?$ioPosMapContainer@PAVioBlock@@@@UAEXPAVioBlock@@H@Z ENDP ; ioPosMapContainer<ioBlock *>::AddElement
; Function compile flags: /Ogsp
_TEXT	ENDS
;	COMDAT ?GetElement@?$ioPosMapContainer@PAVioBlock@@@@UAEPAVioBlock@@VTilePos@@@Z
_TEXT	SEGMENT
_Pos$ = 8						; size = 16
?GetElement@?$ioPosMapContainer@PAVioBlock@@@@UAEPAVioBlock@@VTilePos@@@Z PROC ; ioPosMapContainer<ioBlock *>::GetElement, COMDAT
; _this$ = ecx

; 11   : 	virtual T GetElement( TilePos Pos ){ return NULL; }

  00000	33 c0		 xor	 eax, eax
  00002	c2 10 00	 ret	 16			; 00000010H
?GetElement@?$ioPosMapContainer@PAVioBlock@@@@UAEPAVioBlock@@VTilePos@@@Z ENDP ; ioPosMapContainer<ioBlock *>::GetElement
; Function compile flags: /Ogsp
_TEXT	ENDS
;	COMDAT ?GetElement@?$ioPosMapContainer@PAVioBlock@@@@UAEPAVioBlock@@H@Z
_TEXT	SEGMENT
_Index$ = 8						; size = 4
?GetElement@?$ioPosMapContainer@PAVioBlock@@@@UAEPAVioBlock@@H@Z PROC ; ioPosMapContainer<ioBlock *>::GetElement, COMDAT
; _this$ = ecx

; 12   : 	virtual T GetElement( int Index ){ return NULL; }

  00000	33 c0		 xor	 eax, eax
  00002	c2 04 00	 ret	 4
?GetElement@?$ioPosMapContainer@PAVioBlock@@@@UAEPAVioBlock@@H@Z ENDP ; ioPosMapContainer<ioBlock *>::GetElement
; Function compile flags: /Ogsp
_TEXT	ENDS
;	COMDAT ?RemoveElement@?$ioPosMapContainer@PAVioBlock@@@@UAEXH@Z
_TEXT	SEGMENT
_Index$ = 8						; size = 4
?RemoveElement@?$ioPosMapContainer@PAVioBlock@@@@UAEXH@Z PROC ; ioPosMapContainer<ioBlock *>::RemoveElement, COMDAT
; _this$ = ecx

; 13   : 	virtual void RemoveElement( int Index ){}

  00000	c2 04 00	 ret	 4
?RemoveElement@?$ioPosMapContainer@PAVioBlock@@@@UAEXH@Z ENDP ; ioPosMapContainer<ioBlock *>::RemoveElement
; Function compile flags: /Ogsp
_TEXT	ENDS
;	COMDAT ?GetMax@?$ioPosMapContainer@PAVioBlock@@@@UAEHXZ
_TEXT	SEGMENT
?GetMax@?$ioPosMapContainer@PAVioBlock@@@@UAEHXZ PROC	; ioPosMapContainer<ioBlock *>::GetMax, COMDAT
; _this$ = ecx

; 14   : 	virtual int GetMax(){ return 0; }

  00000	33 c0		 xor	 eax, eax
  00002	c3		 ret	 0
?GetMax@?$ioPosMapContainer@PAVioBlock@@@@UAEHXZ ENDP	; ioPosMapContainer<ioBlock *>::GetMax
_TEXT	ENDS
PUBLIC	??_7?$ioPosMapContainer@PAVioTileBlock@@@@6B@	; ioPosMapContainer<ioTileBlock *>::`vftable'
PUBLIC	??0?$ioPosMapContainer@PAVioTileBlock@@@@QAE@XZ	; ioPosMapContainer<ioTileBlock *>::ioPosMapContainer<ioTileBlock *>
PUBLIC	??_R4?$ioPosMapContainer@PAVioTileBlock@@@@6B@	; ioPosMapContainer<ioTileBlock *>::`RTTI Complete Object Locator'
PUBLIC	??_R0?AV?$ioPosMapContainer@PAVioTileBlock@@@@@8 ; ioPosMapContainer<ioTileBlock *> `RTTI Type Descriptor'
PUBLIC	??_R3?$ioPosMapContainer@PAVioTileBlock@@@@8	; ioPosMapContainer<ioTileBlock *>::`RTTI Class Hierarchy Descriptor'
PUBLIC	??_R2?$ioPosMapContainer@PAVioTileBlock@@@@8	; ioPosMapContainer<ioTileBlock *>::`RTTI Base Class Array'
PUBLIC	??_R1A@?0A@EA@?$ioPosMapContainer@PAVioTileBlock@@@@8 ; ioPosMapContainer<ioTileBlock *>::`RTTI Base Class Descriptor at (0,-1,0,64)'
PUBLIC	?Destroy@?$ioPosMapContainer@PAVioTileBlock@@@@UAEXXZ ; ioPosMapContainer<ioTileBlock *>::Destroy
PUBLIC	?Init@?$ioPosMapContainer@PAVioTileBlock@@@@UAEXXZ ; ioPosMapContainer<ioTileBlock *>::Init
PUBLIC	?AddElement@?$ioPosMapContainer@PAVioTileBlock@@@@UAEXPAVioTileBlock@@H@Z ; ioPosMapContainer<ioTileBlock *>::AddElement
PUBLIC	?AddElement@?$ioPosMapContainer@PAVioTileBlock@@@@UAEXPAVioTileBlock@@VTilePos@@@Z ; ioPosMapContainer<ioTileBlock *>::AddElement
PUBLIC	?GetElement@?$ioPosMapContainer@PAVioTileBlock@@@@UAEPAVioTileBlock@@H@Z ; ioPosMapContainer<ioTileBlock *>::GetElement
PUBLIC	?GetElement@?$ioPosMapContainer@PAVioTileBlock@@@@UAEPAVioTileBlock@@VTilePos@@@Z ; ioPosMapContainer<ioTileBlock *>::GetElement
PUBLIC	?RemoveElement@?$ioPosMapContainer@PAVioTileBlock@@@@UAEXH@Z ; ioPosMapContainer<ioTileBlock *>::RemoveElement
PUBLIC	?GetMax@?$ioPosMapContainer@PAVioTileBlock@@@@UAEHXZ ; ioPosMapContainer<ioTileBlock *>::GetMax
;	COMDAT ??_R1A@?0A@EA@?$ioPosMapContainer@PAVioTileBlock@@@@8
rdata$r	SEGMENT
??_R1A@?0A@EA@?$ioPosMapContainer@PAVioTileBlock@@@@8 DD FLAT:??_R0?AV?$ioPosMapContainer@PAVioTileBlock@@@@@8 ; ioPosMapContainer<ioTileBlock *>::`RTTI Base Class Descriptor at (0,-1,0,64)'
	DD	00H
	DD	00H
	DD	0ffffffffH
	DD	00H
	DD	040H
	DD	FLAT:??_R3?$ioPosMapContainer@PAVioTileBlock@@@@8
rdata$r	ENDS
;	COMDAT ??_R2?$ioPosMapContainer@PAVioTileBlock@@@@8
rdata$r	SEGMENT
??_R2?$ioPosMapContainer@PAVioTileBlock@@@@8 DD FLAT:??_R1A@?0A@EA@?$ioPosMapContainer@PAVioTileBlock@@@@8 ; ioPosMapContainer<ioTileBlock *>::`RTTI Base Class Array'
rdata$r	ENDS
;	COMDAT ??_R3?$ioPosMapContainer@PAVioTileBlock@@@@8
rdata$r	SEGMENT
??_R3?$ioPosMapContainer@PAVioTileBlock@@@@8 DD 00H	; ioPosMapContainer<ioTileBlock *>::`RTTI Class Hierarchy Descriptor'
	DD	00H
	DD	01H
	DD	FLAT:??_R2?$ioPosMapContainer@PAVioTileBlock@@@@8
rdata$r	ENDS
;	COMDAT ??_R0?AV?$ioPosMapContainer@PAVioTileBlock@@@@@8
_DATA	SEGMENT
??_R0?AV?$ioPosMapContainer@PAVioTileBlock@@@@@8 DD FLAT:??_7type_info@@6B@ ; ioPosMapContainer<ioTileBlock *> `RTTI Type Descriptor'
	DD	00H
	DB	'.?AV?$ioPosMapContainer@PAVioTileBlock@@@@', 00H
_DATA	ENDS
;	COMDAT ??_R4?$ioPosMapContainer@PAVioTileBlock@@@@6B@
rdata$r	SEGMENT
??_R4?$ioPosMapContainer@PAVioTileBlock@@@@6B@ DD 00H	; ioPosMapContainer<ioTileBlock *>::`RTTI Complete Object Locator'
	DD	00H
	DD	00H
	DD	FLAT:??_R0?AV?$ioPosMapContainer@PAVioTileBlock@@@@@8
	DD	FLAT:??_R3?$ioPosMapContainer@PAVioTileBlock@@@@8
rdata$r	ENDS
;	COMDAT ??_7?$ioPosMapContainer@PAVioTileBlock@@@@6B@
CONST	SEGMENT
??_7?$ioPosMapContainer@PAVioTileBlock@@@@6B@ DD FLAT:??_R4?$ioPosMapContainer@PAVioTileBlock@@@@6B@ ; ioPosMapContainer<ioTileBlock *>::`vftable'
	DD	FLAT:?Destroy@?$ioPosMapContainer@PAVioTileBlock@@@@UAEXXZ
	DD	FLAT:?Init@?$ioPosMapContainer@PAVioTileBlock@@@@UAEXXZ
	DD	FLAT:?AddElement@?$ioPosMapContainer@PAVioTileBlock@@@@UAEXPAVioTileBlock@@H@Z
	DD	FLAT:?AddElement@?$ioPosMapContainer@PAVioTileBlock@@@@UAEXPAVioTileBlock@@VTilePos@@@Z
	DD	FLAT:?GetElement@?$ioPosMapContainer@PAVioTileBlock@@@@UAEPAVioTileBlock@@H@Z
	DD	FLAT:?GetElement@?$ioPosMapContainer@PAVioTileBlock@@@@UAEPAVioTileBlock@@VTilePos@@@Z
	DD	FLAT:?RemoveElement@?$ioPosMapContainer@PAVioTileBlock@@@@UAEXH@Z
	DD	FLAT:?GetMax@?$ioPosMapContainer@PAVioTileBlock@@@@UAEHXZ
; Function compile flags: /Ogsp
CONST	ENDS
;	COMDAT ??0?$ioPosMapContainer@PAVioTileBlock@@@@QAE@XZ
_TEXT	SEGMENT
??0?$ioPosMapContainer@PAVioTileBlock@@@@QAE@XZ PROC	; ioPosMapContainer<ioTileBlock *>::ioPosMapContainer<ioTileBlock *>, COMDAT
; _this$ = ecx
  00000	8b c1		 mov	 eax, ecx
  00002	c7 00 00 00 00
	00		 mov	 DWORD PTR [eax], OFFSET ??_7?$ioPosMapContainer@PAVioTileBlock@@@@6B@
  00008	c3		 ret	 0
??0?$ioPosMapContainer@PAVioTileBlock@@@@QAE@XZ ENDP	; ioPosMapContainer<ioTileBlock *>::ioPosMapContainer<ioTileBlock *>
; Function compile flags: /Ogsp
_TEXT	ENDS
;	COMDAT ?Destroy@?$ioPosMapContainer@PAVioTileBlock@@@@UAEXXZ
_TEXT	SEGMENT
?Destroy@?$ioPosMapContainer@PAVioTileBlock@@@@UAEXXZ PROC ; ioPosMapContainer<ioTileBlock *>::Destroy, COMDAT
; _this$ = ecx

; 7    : 	virtual void Destroy(){}

  00000	c3		 ret	 0
?Destroy@?$ioPosMapContainer@PAVioTileBlock@@@@UAEXXZ ENDP ; ioPosMapContainer<ioTileBlock *>::Destroy
; Function compile flags: /Ogsp
_TEXT	ENDS
;	COMDAT ?Init@?$ioPosMapContainer@PAVioTileBlock@@@@UAEXXZ
_TEXT	SEGMENT
?Init@?$ioPosMapContainer@PAVioTileBlock@@@@UAEXXZ PROC	; ioPosMapContainer<ioTileBlock *>::Init, COMDAT
; _this$ = ecx

; 8    : 	virtual void Init(){}

  00000	c3		 ret	 0
?Init@?$ioPosMapContainer@PAVioTileBlock@@@@UAEXXZ ENDP	; ioPosMapContainer<ioTileBlock *>::Init
; Function compile flags: /Ogsp
_TEXT	ENDS
;	COMDAT ?AddElement@?$ioPosMapContainer@PAVioTileBlock@@@@UAEXPAVioTileBlock@@VTilePos@@@Z
_TEXT	SEGMENT
_pEntity$ = 8						; size = 4
_Pos$ = 12						; size = 16
?AddElement@?$ioPosMapContainer@PAVioTileBlock@@@@UAEXPAVioTileBlock@@VTilePos@@@Z PROC ; ioPosMapContainer<ioTileBlock *>::AddElement, COMDAT
; _this$ = ecx

; 9    : 	virtual void AddElement( T pEntity, TilePos Pos ){}

  00000	c2 14 00	 ret	 20			; 00000014H
?AddElement@?$ioPosMapContainer@PAVioTileBlock@@@@UAEXPAVioTileBlock@@VTilePos@@@Z ENDP ; ioPosMapContainer<ioTileBlock *>::AddElement
; Function compile flags: /Ogsp
_TEXT	ENDS
;	COMDAT ?AddElement@?$ioPosMapContainer@PAVioTileBlock@@@@UAEXPAVioTileBlock@@H@Z
_TEXT	SEGMENT
_pEntity$ = 8						; size = 4
_Index$ = 12						; size = 4
?AddElement@?$ioPosMapContainer@PAVioTileBlock@@@@UAEXPAVioTileBlock@@H@Z PROC ; ioPosMapContainer<ioTileBlock *>::AddElement, COMDAT
; _this$ = ecx

; 10   : 	virtual void AddElement( T pEntity, int Index ){}

  00000	c2 08 00	 ret	 8
?AddElement@?$ioPosMapContainer@PAVioTileBlock@@@@UAEXPAVioTileBlock@@H@Z ENDP ; ioPosMapContainer<ioTileBlock *>::AddElement
; Function compile flags: /Ogsp
_TEXT	ENDS
;	COMDAT ?GetElement@?$ioPosMapContainer@PAVioTileBlock@@@@UAEPAVioTileBlock@@VTilePos@@@Z
_TEXT	SEGMENT
_Pos$ = 8						; size = 16
?GetElement@?$ioPosMapContainer@PAVioTileBlock@@@@UAEPAVioTileBlock@@VTilePos@@@Z PROC ; ioPosMapContainer<ioTileBlock *>::GetElement, COMDAT
; _this$ = ecx

; 11   : 	virtual T GetElement( TilePos Pos ){ return NULL; }

  00000	33 c0		 xor	 eax, eax
  00002	c2 10 00	 ret	 16			; 00000010H
?GetElement@?$ioPosMapContainer@PAVioTileBlock@@@@UAEPAVioTileBlock@@VTilePos@@@Z ENDP ; ioPosMapContainer<ioTileBlock *>::GetElement
; Function compile flags: /Ogsp
_TEXT	ENDS
;	COMDAT ?GetElement@?$ioPosMapContainer@PAVioTileBlock@@@@UAEPAVioTileBlock@@H@Z
_TEXT	SEGMENT
_Index$ = 8						; size = 4
?GetElement@?$ioPosMapContainer@PAVioTileBlock@@@@UAEPAVioTileBlock@@H@Z PROC ; ioPosMapContainer<ioTileBlock *>::GetElement, COMDAT
; _this$ = ecx

; 12   : 	virtual T GetElement( int Index ){ return NULL; }

  00000	33 c0		 xor	 eax, eax
  00002	c2 04 00	 ret	 4
?GetElement@?$ioPosMapContainer@PAVioTileBlock@@@@UAEPAVioTileBlock@@H@Z ENDP ; ioPosMapContainer<ioTileBlock *>::GetElement
; Function compile flags: /Ogsp
_TEXT	ENDS
;	COMDAT ?RemoveElement@?$ioPosMapContainer@PAVioTileBlock@@@@UAEXH@Z
_TEXT	SEGMENT
_Index$ = 8						; size = 4
?RemoveElement@?$ioPosMapContainer@PAVioTileBlock@@@@UAEXH@Z PROC ; ioPosMapContainer<ioTileBlock *>::RemoveElement, COMDAT
; _this$ = ecx

; 13   : 	virtual void RemoveElement( int Index ){}

  00000	c2 04 00	 ret	 4
?RemoveElement@?$ioPosMapContainer@PAVioTileBlock@@@@UAEXH@Z ENDP ; ioPosMapContainer<ioTileBlock *>::RemoveElement
; Function compile flags: /Ogsp
_TEXT	ENDS
;	COMDAT ?GetMax@?$ioPosMapContainer@PAVioTileBlock@@@@UAEHXZ
_TEXT	SEGMENT
?GetMax@?$ioPosMapContainer@PAVioTileBlock@@@@UAEHXZ PROC ; ioPosMapContainer<ioTileBlock *>::GetMax, COMDAT
; _this$ = ecx

; 14   : 	virtual int GetMax(){ return 0; }

  00000	33 c0		 xor	 eax, eax
  00002	c3		 ret	 0
?GetMax@?$ioPosMapContainer@PAVioTileBlock@@@@UAEHXZ ENDP ; ioPosMapContainer<ioTileBlock *>::GetMax
_TEXT	ENDS
PUBLIC	?_Inside@?$vector@PAVioBlock@@V?$allocator@PAVioBlock@@@std@@@std@@IBE_NPBQAVioBlock@@@Z ; std::vector<ioBlock *,std::allocator<ioBlock *> >::_Inside
; Function compile flags: /Ogsp
; File c:\program files (x86)\microsoft visual studio 10.0\vc\include\vector
;	COMDAT ?_Inside@?$vector@PAVioBlock@@V?$allocator@PAVioBlock@@@std@@@std@@IBE_NPBQAVioBlock@@@Z
_TEXT	SEGMENT
__Ptr$ = 8						; size = 4
?_Inside@?$vector@PAVioBlock@@V?$allocator@PAVioBlock@@@std@@@std@@IBE_NPBQAVioBlock@@@Z PROC ; std::vector<ioBlock *,std::allocator<ioBlock *> >::_Inside, COMDAT
; _this$ = ecx

; 1285 : 		{	// test if _Ptr points inside vector

  00000	55		 push	 ebp
  00001	8b ec		 mov	 ebp, esp

; 1286 : 		return (_Ptr < this->_Mylast && this->_Myfirst <= _Ptr);

  00003	8b 45 08	 mov	 eax, DWORD PTR __Ptr$[ebp]
  00006	3b 41 04	 cmp	 eax, DWORD PTR [ecx+4]
  00009	73 09		 jae	 SHORT $LN3@Inside
  0000b	39 01		 cmp	 DWORD PTR [ecx], eax
  0000d	77 05		 ja	 SHORT $LN3@Inside
  0000f	33 c0		 xor	 eax, eax
  00011	40		 inc	 eax
  00012	eb 02		 jmp	 SHORT $LN4@Inside
$LN3@Inside:
  00014	33 c0		 xor	 eax, eax
$LN4@Inside:

; 1287 : 		}

  00016	5d		 pop	 ebp
  00017	c2 04 00	 ret	 4
?_Inside@?$vector@PAVioBlock@@V?$allocator@PAVioBlock@@@std@@@std@@IBE_NPBQAVioBlock@@@Z ENDP ; std::vector<ioBlock *,std::allocator<ioBlock *> >::_Inside
_TEXT	ENDS
PUBLIC	?_Orphan_range@?$vector@PAVioBlock@@V?$allocator@PAVioBlock@@@std@@@std@@IBEXPAPAVioBlock@@0@Z ; std::vector<ioBlock *,std::allocator<ioBlock *> >::_Orphan_range
; Function compile flags: /Ogsp
;	COMDAT ?_Orphan_range@?$vector@PAVioBlock@@V?$allocator@PAVioBlock@@@std@@@std@@IBEXPAPAVioBlock@@0@Z
_TEXT	SEGMENT
___formal$ = 8						; size = 4
___formal$ = 12						; size = 4
?_Orphan_range@?$vector@PAVioBlock@@V?$allocator@PAVioBlock@@@std@@@std@@IBEXPAPAVioBlock@@0@Z PROC ; std::vector<ioBlock *,std::allocator<ioBlock *> >::_Orphan_range, COMDAT
; _this$ = ecx

; 1454 : 		}

  00000	c2 08 00	 ret	 8
?_Orphan_range@?$vector@PAVioBlock@@V?$allocator@PAVioBlock@@@std@@@std@@IBEXPAPAVioBlock@@0@Z ENDP ; std::vector<ioBlock *,std::allocator<ioBlock *> >::_Orphan_range
_TEXT	ENDS
PUBLIC	?capacity@?$vector@PAVioBlock@@V?$allocator@PAVioBlock@@@std@@@std@@QBEIXZ ; std::vector<ioBlock *,std::allocator<ioBlock *> >::capacity
; Function compile flags: /Ogsp
;	COMDAT ?capacity@?$vector@PAVioBlock@@V?$allocator@PAVioBlock@@@std@@@std@@QBEIXZ
_TEXT	SEGMENT
?capacity@?$vector@PAVioBlock@@V?$allocator@PAVioBlock@@@std@@@std@@QBEIXZ PROC ; std::vector<ioBlock *,std::allocator<ioBlock *> >::capacity, COMDAT
; _this$ = ecx

; 777  : 		return (this->_Myend - this->_Myfirst);

  00000	8b 41 08	 mov	 eax, DWORD PTR [ecx+8]
  00003	2b 01		 sub	 eax, DWORD PTR [ecx]
  00005	c1 f8 02	 sar	 eax, 2

; 778  : 		}

  00008	c3		 ret	 0
?capacity@?$vector@PAVioBlock@@V?$allocator@PAVioBlock@@@std@@@std@@QBEIXZ ENDP ; std::vector<ioBlock *,std::allocator<ioBlock *> >::capacity
_TEXT	ENDS
PUBLIC	?size@?$vector@PAVioBlock@@V?$allocator@PAVioBlock@@@std@@@std@@QBEIXZ ; std::vector<ioBlock *,std::allocator<ioBlock *> >::size
; Function compile flags: /Ogsp
;	COMDAT ?size@?$vector@PAVioBlock@@V?$allocator@PAVioBlock@@@std@@@std@@QBEIXZ
_TEXT	SEGMENT
?size@?$vector@PAVioBlock@@V?$allocator@PAVioBlock@@@std@@@std@@QBEIXZ PROC ; std::vector<ioBlock *,std::allocator<ioBlock *> >::size, COMDAT
; _this$ = ecx

; 879  : 		return (this->_Mylast - this->_Myfirst);

  00000	8b 41 04	 mov	 eax, DWORD PTR [ecx+4]
  00003	2b 01		 sub	 eax, DWORD PTR [ecx]
  00005	c1 f8 02	 sar	 eax, 2

; 880  : 		}

  00008	c3		 ret	 0
?size@?$vector@PAVioBlock@@V?$allocator@PAVioBlock@@@std@@@std@@QBEIXZ ENDP ; std::vector<ioBlock *,std::allocator<ioBlock *> >::size
_TEXT	ENDS
PUBLIC	??_C@_0BD@OLBABOEK@vector?$DMT?$DO?5too?5long?$AA@ ; `string'
PUBLIC	?_Xlen@?$vector@PAVioBlock@@V?$allocator@PAVioBlock@@@std@@@std@@IBEXXZ ; std::vector<ioBlock *,std::allocator<ioBlock *> >::_Xlen
EXTRN	__imp_?_Xlength_error@std@@YAXPBD@Z:PROC
;	COMDAT ??_C@_0BD@OLBABOEK@vector?$DMT?$DO?5too?5long?$AA@
CONST	SEGMENT
??_C@_0BD@OLBABOEK@vector?$DMT?$DO?5too?5long?$AA@ DB 'vector<T> too long'
	DB	00H						; `string'
; Function compile flags: /Ogsp
CONST	ENDS
;	COMDAT ?_Xlen@?$vector@PAVioBlock@@V?$allocator@PAVioBlock@@@std@@@std@@IBEXXZ
_TEXT	SEGMENT
?_Xlen@?$vector@PAVioBlock@@V?$allocator@PAVioBlock@@@std@@@std@@IBEXXZ PROC ; std::vector<ioBlock *,std::allocator<ioBlock *> >::_Xlen, COMDAT
; _this$ = ecx

; 1427 : 		_Xlength_error("vector<T> too long");

  00000	68 00 00 00 00	 push	 OFFSET ??_C@_0BD@OLBABOEK@vector?$DMT?$DO?5too?5long?$AA@
  00005	ff 15 00 00 00
	00		 call	 DWORD PTR __imp_?_Xlength_error@std@@YAXPBD@Z
$LN4@Xlen:
$LN3@Xlen:
  0000b	cc		 int	 3
?_Xlen@?$vector@PAVioBlock@@V?$allocator@PAVioBlock@@@std@@@std@@IBEXXZ ENDP ; std::vector<ioBlock *,std::allocator<ioBlock *> >::_Xlen
_TEXT	ENDS
PUBLIC	?deallocate@?$allocator@PAVioBlock@@@std@@QAEXPAPAVioBlock@@I@Z ; std::allocator<ioBlock *>::deallocate
; Function compile flags: /Ogsp
; File c:\program files (x86)\microsoft visual studio 10.0\vc\include\xmemory
;	COMDAT ?deallocate@?$allocator@PAVioBlock@@@std@@QAEXPAPAVioBlock@@I@Z
_TEXT	SEGMENT
__Ptr$ = 8						; size = 4
___formal$ = 12						; size = 4
?deallocate@?$allocator@PAVioBlock@@@std@@QAEXPAPAVioBlock@@I@Z PROC ; std::allocator<ioBlock *>::deallocate, COMDAT
; _this$ = ecx

; 181  : 		{	// deallocate object at _Ptr, ignore size

  00000	55		 push	 ebp
  00001	8b ec		 mov	 ebp, esp

; 182  : 		::operator delete(_Ptr);

  00003	ff 75 08	 push	 DWORD PTR __Ptr$[ebp]
  00006	e8 00 00 00 00	 call	 ??3@YAXPAX@Z		; operator delete
  0000b	59		 pop	 ecx

; 183  : 		}

  0000c	5d		 pop	 ebp
  0000d	c2 08 00	 ret	 8
?deallocate@?$allocator@PAVioBlock@@@std@@QAEXPAPAVioBlock@@I@Z ENDP ; std::allocator<ioBlock *>::deallocate
_TEXT	ENDS
PUBLIC	?max_size@?$allocator@PAVioBlock@@@std@@QBEIXZ	; std::allocator<ioBlock *>::max_size
; Function compile flags: /Ogsp
;	COMDAT ?max_size@?$allocator@PAVioBlock@@@std@@QBEIXZ
_TEXT	SEGMENT
?max_size@?$allocator@PAVioBlock@@@std@@QBEIXZ PROC	; std::allocator<ioBlock *>::max_size, COMDAT
; _this$ = ecx

; 218  : 		_SIZT _Count = (_SIZT)(-1) / sizeof (_Ty);
; 219  : 		return (0 < _Count ? _Count : 1);

  00000	b8 ff ff ff 3f	 mov	 eax, 1073741823		; 3fffffffH

; 220  : 		}

  00005	c3		 ret	 0
?max_size@?$allocator@PAVioBlock@@@std@@QBEIXZ ENDP	; std::allocator<ioBlock *>::max_size
_TEXT	ENDS
PUBLIC	??$addressof@QAVioBlock@@@std@@YAPBQAVioBlock@@ABQAV1@@Z ; std::addressof<ioBlock * const>
; Function compile flags: /Ogsp
;	COMDAT ??$addressof@QAVioBlock@@@std@@YAPBQAVioBlock@@ABQAV1@@Z
_TEXT	SEGMENT
__Val$ = 8						; size = 4
??$addressof@QAVioBlock@@@std@@YAPBQAVioBlock@@ABQAV1@@Z PROC ; std::addressof<ioBlock * const>, COMDAT

; 110  : 	{	// return address of _Val

  00000	55		 push	 ebp
  00001	8b ec		 mov	 ebp, esp

; 111  : 	return ((_Ty *) &(char&)_Val);

  00003	8b 45 08	 mov	 eax, DWORD PTR __Val$[ebp]

; 112  : 	}

  00006	5d		 pop	 ebp
  00007	c3		 ret	 0
??$addressof@QAVioBlock@@@std@@YAPBQAVioBlock@@ABQAV1@@Z ENDP ; std::addressof<ioBlock * const>
_TEXT	ENDS
PUBLIC	__TI2?AVbad_alloc@std@@
PUBLIC	??$_Allocate@PAVioBlock@@@std@@YAPAPAVioBlock@@IPAPAV1@@Z ; std::_Allocate<ioBlock *>
PUBLIC	__CTA2?AVbad_alloc@std@@
PUBLIC	__CT??_R0?AVbad_alloc@std@@@8??0bad_alloc@std@@QAE@ABV01@@Z12
PUBLIC	??0bad_alloc@std@@QAE@ABV01@@Z			; std::bad_alloc::bad_alloc
PUBLIC	__CT??_R0?AVexception@std@@@8??0exception@std@@QAE@ABV01@@Z12
EXTRN	??2@YAPAXI@Z:PROC				; operator new
EXTRN	__CxxThrowException@8:PROC
EXTRN	??0exception@std@@QAE@ABV01@@Z:PROC		; std::exception::exception
;	COMDAT __CT??_R0?AVexception@std@@@8??0exception@std@@QAE@ABV01@@Z12
; File c:\program files (x86)\microsoft visual studio 10.0\vc\include\exception
xdata$x	SEGMENT
__CT??_R0?AVexception@std@@@8??0exception@std@@QAE@ABV01@@Z12 DD 00H
	DD	FLAT:??_R0?AVexception@std@@@8
	DD	00H
	DD	0ffffffffH
	ORG $+4
	DD	0cH
	DD	FLAT:??0exception@std@@QAE@ABV01@@Z
xdata$x	ENDS
;	COMDAT __CT??_R0?AVbad_alloc@std@@@8??0bad_alloc@std@@QAE@ABV01@@Z12
xdata$x	SEGMENT
__CT??_R0?AVbad_alloc@std@@@8??0bad_alloc@std@@QAE@ABV01@@Z12 DD 00H
	DD	FLAT:??_R0?AVbad_alloc@std@@@8
	DD	00H
	DD	0ffffffffH
	ORG $+4
	DD	0cH
	DD	FLAT:??0bad_alloc@std@@QAE@ABV01@@Z
xdata$x	ENDS
;	COMDAT __CTA2?AVbad_alloc@std@@
xdata$x	SEGMENT
__CTA2?AVbad_alloc@std@@ DD 02H
	DD	FLAT:__CT??_R0?AVbad_alloc@std@@@8??0bad_alloc@std@@QAE@ABV01@@Z12
	DD	FLAT:__CT??_R0?AVexception@std@@@8??0exception@std@@QAE@ABV01@@Z12
xdata$x	ENDS
;	COMDAT __TI2?AVbad_alloc@std@@
xdata$x	SEGMENT
__TI2?AVbad_alloc@std@@ DD 00H
	DD	FLAT:??1bad_alloc@std@@UAE@XZ
	DD	00H
	DD	FLAT:__CTA2?AVbad_alloc@std@@
; Function compile flags: /Ogsp
; File c:\program files (x86)\microsoft visual studio 10.0\vc\include\xmemory
xdata$x	ENDS
;	COMDAT ??$_Allocate@PAVioBlock@@@std@@YAPAPAVioBlock@@IPAPAV1@@Z
_TEXT	SEGMENT
$T516561 = -12						; size = 12
$T516566 = 8						; size = 4
__Count$ = 8						; size = 4
___formal$ = 12						; size = 4
??$_Allocate@PAVioBlock@@@std@@YAPAPAVioBlock@@IPAPAV1@@Z PROC ; std::_Allocate<ioBlock *>, COMDAT

; 30   : 	{	// allocate storage for _Count elements of type _Ty

  00000	55		 push	 ebp
  00001	8b ec		 mov	 ebp, esp

; 31   : 	void *_Ptr = 0;
; 32   : 
; 33   : 	if (_Count <= 0)

  00003	8b 4d 08	 mov	 ecx, DWORD PTR __Count$[ebp]
  00006	83 ec 0c	 sub	 esp, 12			; 0000000cH
  00009	33 c0		 xor	 eax, eax
  0000b	85 c9		 test	 ecx, ecx

; 34   : 		_Count = 0;
; 35   : 	else if (((_SIZT)(-1) / sizeof (_Ty) < _Count)

  0000d	74 3e		 je	 SHORT $LN5@Allocate

; 36   : 		|| (_Ptr = ::operator new(_Count * sizeof (_Ty))) == 0)

  0000f	81 f9 ff ff ff
	3f		 cmp	 ecx, 1073741823		; 3fffffffH
  00015	77 10		 ja	 SHORT $LN1@Allocate
  00017	8b c1		 mov	 eax, ecx
  00019	c1 e0 02	 shl	 eax, 2
  0001c	50		 push	 eax
  0001d	e8 00 00 00 00	 call	 ??2@YAPAXI@Z		; operator new
  00022	59		 pop	 ecx
  00023	85 c0		 test	 eax, eax

; 38   : 
; 39   : 	return ((_Ty _FARQ *)_Ptr);

  00025	75 26		 jne	 SHORT $LN5@Allocate
$LN1@Allocate:

; 37   : 		_THROW_NCEE(bad_alloc, 0);

  00027	83 65 08 00	 and	 DWORD PTR $T516566[ebp], 0
  0002b	8d 45 08	 lea	 eax, DWORD PTR $T516566[ebp]
  0002e	50		 push	 eax
  0002f	8d 4d f4	 lea	 ecx, DWORD PTR $T516561[ebp]
  00032	ff 15 00 00 00
	00		 call	 DWORD PTR __imp_??0exception@std@@QAE@ABQBD@Z
  00038	68 00 00 00 00	 push	 OFFSET __TI2?AVbad_alloc@std@@
  0003d	8d 45 f4	 lea	 eax, DWORD PTR $T516561[ebp]
  00040	50		 push	 eax
  00041	c7 45 f4 00 00
	00 00		 mov	 DWORD PTR $T516561[ebp], OFFSET ??_7bad_alloc@std@@6B@
  00048	e8 00 00 00 00	 call	 __CxxThrowException@8
$LN10@Allocate:
$LN5@Allocate:

; 40   : 	}

  0004d	c9		 leave
  0004e	c3		 ret	 0
$LN9@Allocate:
??$_Allocate@PAVioBlock@@@std@@YAPAPAVioBlock@@IPAPAV1@@Z ENDP ; std::_Allocate<ioBlock *>
_TEXT	ENDS
PUBLIC	??$forward@AAPAVioBlock@@@std@@YAAAPAVioBlock@@AAPAV1@@Z ; std::forward<ioBlock * &>
; Function compile flags: /Ogsp
; File c:\program files (x86)\microsoft visual studio 10.0\vc\include\utility
;	COMDAT ??$forward@AAPAVioBlock@@@std@@YAAAPAVioBlock@@AAPAV1@@Z
_TEXT	SEGMENT
__Arg$ = 8						; size = 4
??$forward@AAPAVioBlock@@@std@@YAAAPAVioBlock@@AAPAV1@@Z PROC ; std::forward<ioBlock * &>, COMDAT

; 78   : 	{	// forward _Arg, given explicitly specified type parameter

  00000	55		 push	 ebp
  00001	8b ec		 mov	 ebp, esp

; 79   : 	return ((_Ty&&)_Arg);

  00003	8b 45 08	 mov	 eax, DWORD PTR __Arg$[ebp]

; 80   : 	}

  00006	5d		 pop	 ebp
  00007	c3		 ret	 0
??$forward@AAPAVioBlock@@@std@@YAAAPAVioBlock@@AAPAV1@@Z ENDP ; std::forward<ioBlock * &>
_TEXT	ENDS
PUBLIC	??$construct@AAPAVioBlock@@@?$allocator@PAVioBlock@@@std@@QAEXPAPAVioBlock@@AAPAV2@@Z ; std::allocator<ioBlock *>::construct<ioBlock * &>
; Function compile flags: /Ogsp
; File c:\program files (x86)\microsoft visual studio 10.0\vc\include\xmemory
;	COMDAT ??$construct@AAPAVioBlock@@@?$allocator@PAVioBlock@@@std@@QAEXPAPAVioBlock@@AAPAV2@@Z
_TEXT	SEGMENT
__Ptr$ = 8						; size = 4
__Val$ = 12						; size = 4
??$construct@AAPAVioBlock@@@?$allocator@PAVioBlock@@@std@@QAEXPAPAVioBlock@@AAPAV2@@Z PROC ; std::allocator<ioBlock *>::construct<ioBlock * &>, COMDAT
; _this$ = ecx

; 206  : 		void construct(pointer _Ptr, _Other&& _Val)

  00000	55		 push	 ebp
  00001	8b ec		 mov	 ebp, esp

; 207  : 		{	// construct object at _Ptr with value _Val
; 208  : 		::new ((void _FARQ *)_Ptr) _Ty(_STD forward<_Other>(_Val));

  00003	8b 45 08	 mov	 eax, DWORD PTR __Ptr$[ebp]
  00006	85 c0		 test	 eax, eax
  00008	74 07		 je	 SHORT $LN3@construct
  0000a	8b 4d 0c	 mov	 ecx, DWORD PTR __Val$[ebp]
  0000d	8b 09		 mov	 ecx, DWORD PTR [ecx]
  0000f	89 08		 mov	 DWORD PTR [eax], ecx
$LN3@construct:

; 209  : 		}

  00011	5d		 pop	 ebp
  00012	c2 08 00	 ret	 8
??$construct@AAPAVioBlock@@@?$allocator@PAVioBlock@@@std@@QAEXPAPAVioBlock@@AAPAV2@@Z ENDP ; std::allocator<ioBlock *>::construct<ioBlock * &>
_TEXT	ENDS
PUBLIC	??$forward@ABQAVioBlock@@@std@@YAABQAVioBlock@@ABQAV1@@Z ; std::forward<ioBlock * const &>
; Function compile flags: /Ogsp
; File c:\program files (x86)\microsoft visual studio 10.0\vc\include\utility
;	COMDAT ??$forward@ABQAVioBlock@@@std@@YAABQAVioBlock@@ABQAV1@@Z
_TEXT	SEGMENT
__Arg$ = 8						; size = 4
??$forward@ABQAVioBlock@@@std@@YAABQAVioBlock@@ABQAV1@@Z PROC ; std::forward<ioBlock * const &>, COMDAT

; 78   : 	{	// forward _Arg, given explicitly specified type parameter

  00000	55		 push	 ebp
  00001	8b ec		 mov	 ebp, esp

; 79   : 	return ((_Ty&&)_Arg);

  00003	8b 45 08	 mov	 eax, DWORD PTR __Arg$[ebp]

; 80   : 	}

  00006	5d		 pop	 ebp
  00007	c3		 ret	 0
??$forward@ABQAVioBlock@@@std@@YAABQAVioBlock@@ABQAV1@@Z ENDP ; std::forward<ioBlock * const &>
_TEXT	ENDS
PUBLIC	??$_Ptr_cat@PAVioBlock@@PAV1@@std@@YA?AU_Scalar_ptr_iterator_tag@0@PAPAVioBlock@@0@Z ; std::_Ptr_cat<ioBlock *,ioBlock *>
; Function compile flags: /Ogsp
; File c:\program files (x86)\microsoft visual studio 10.0\vc\include\xutility
;	COMDAT ??$_Ptr_cat@PAVioBlock@@PAV1@@std@@YA?AU_Scalar_ptr_iterator_tag@0@PAPAVioBlock@@0@Z
_TEXT	SEGMENT
__Cat$ = -1						; size = 1
___formal$ = 8						; size = 4
___formal$ = 12						; size = 4
??$_Ptr_cat@PAVioBlock@@PAV1@@std@@YA?AU_Scalar_ptr_iterator_tag@0@PAPAVioBlock@@0@Z PROC ; std::_Ptr_cat<ioBlock *,ioBlock *>, COMDAT

; 516  : 	{	// return pointer category from pointers

  00000	55		 push	 ebp
  00001	8b ec		 mov	 ebp, esp
  00003	51		 push	 ecx

; 517  : 	typename _Ptr_cat_helper<_Elem1, _Elem2>::_Type _Cat;
; 518  : 	return (_Cat);

  00004	8a 45 ff	 mov	 al, BYTE PTR __Cat$[ebp]

; 519  : 	}

  00007	c9		 leave
  00008	c3		 ret	 0
??$_Ptr_cat@PAVioBlock@@PAV1@@std@@YA?AU_Scalar_ptr_iterator_tag@0@PAPAVioBlock@@0@Z ENDP ; std::_Ptr_cat<ioBlock *,ioBlock *>
_TEXT	ENDS
PUBLIC	??$_Destroy_range@V?$allocator@PAVioBlock@@@std@@@std@@YAXPAPAVioBlock@@0AAV?$allocator@PAVioBlock@@@0@U_Scalar_ptr_iterator_tag@0@@Z ; std::_Destroy_range<std::allocator<ioBlock *> >
; Function compile flags: /Ogsp
; File c:\program files (x86)\microsoft visual studio 10.0\vc\include\xmemory
;	COMDAT ??$_Destroy_range@V?$allocator@PAVioBlock@@@std@@@std@@YAXPAPAVioBlock@@0AAV?$allocator@PAVioBlock@@@0@U_Scalar_ptr_iterator_tag@0@@Z
_TEXT	SEGMENT
__First$ = 8						; size = 4
__Last$ = 12						; size = 4
__Al$ = 16						; size = 4
___formal$ = 20						; size = 1
??$_Destroy_range@V?$allocator@PAVioBlock@@@std@@@std@@YAXPAPAVioBlock@@0AAV?$allocator@PAVioBlock@@@0@U_Scalar_ptr_iterator_tag@0@@Z PROC ; std::_Destroy_range<std::allocator<ioBlock *> >, COMDAT

; 105  : 	}

  00000	c3		 ret	 0
??$_Destroy_range@V?$allocator@PAVioBlock@@@std@@@std@@YAXPAPAVioBlock@@0AAV?$allocator@PAVioBlock@@@0@U_Scalar_ptr_iterator_tag@0@@Z ENDP ; std::_Destroy_range<std::allocator<ioBlock *> >
_TEXT	ENDS
PUBLIC	??$_Construct@PAVioBlock@@ABQAV1@@std@@YAXPAPAVioBlock@@ABQAV1@@Z ; std::_Construct<ioBlock *,ioBlock * const &>
; Function compile flags: /Ogsp
;	COMDAT ??$_Construct@PAVioBlock@@ABQAV1@@std@@YAXPAPAVioBlock@@ABQAV1@@Z
_TEXT	SEGMENT
__Ptr$ = 8						; size = 4
__Val$ = 12						; size = 4
??$_Construct@PAVioBlock@@ABQAV1@@std@@YAXPAPAVioBlock@@ABQAV1@@Z PROC ; std::_Construct<ioBlock *,ioBlock * const &>, COMDAT

; 46   : 	{	// construct object at _Ptr with value _Val

  00000	55		 push	 ebp
  00001	8b ec		 mov	 ebp, esp

; 47   : 	void _FARQ *_Vptr = _Ptr;
; 48   : 	::new (_Vptr) _Ty1(_STD forward<_Ty2>(_Val));

  00003	8b 45 08	 mov	 eax, DWORD PTR __Ptr$[ebp]
  00006	85 c0		 test	 eax, eax
  00008	74 07		 je	 SHORT $LN3@Construct
  0000a	8b 4d 0c	 mov	 ecx, DWORD PTR __Val$[ebp]
  0000d	8b 09		 mov	 ecx, DWORD PTR [ecx]
  0000f	89 08		 mov	 DWORD PTR [eax], ecx
$LN3@Construct:

; 49   : 	}

  00011	5d		 pop	 ebp
  00012	c3		 ret	 0
??$_Construct@PAVioBlock@@ABQAV1@@std@@YAXPAPAVioBlock@@ABQAV1@@Z ENDP ; std::_Construct<ioBlock *,ioBlock * const &>
_TEXT	ENDS
PUBLIC	??$_Val_type@PAPAVioBlock@@@std@@YAPAPAVioBlock@@PAPAV1@@Z ; std::_Val_type<ioBlock * *>
; Function compile flags: /Ogsp
; File c:\program files (x86)\microsoft visual studio 10.0\vc\include\xutility
;	COMDAT ??$_Val_type@PAPAVioBlock@@@std@@YAPAPAVioBlock@@PAPAV1@@Z
_TEXT	SEGMENT
___formal$ = 8						; size = 4
??$_Val_type@PAPAVioBlock@@@std@@YAPAPAVioBlock@@PAPAV1@@Z PROC ; std::_Val_type<ioBlock * *>, COMDAT

; 790  : 	return (0);

  00000	33 c0		 xor	 eax, eax

; 791  : 	}

  00002	c3		 ret	 0
??$_Val_type@PAPAVioBlock@@@std@@YAPAPAVioBlock@@PAPAV1@@Z ENDP ; std::_Val_type<ioBlock * *>
_TEXT	ENDS
PUBLIC	??$_Uninit_move@PAVioBlock@@PAV1@PAV1@@std@@YAPAPAVioBlock@@PAPAV1@00AAV?$allocator@PAVioBlock@@@0@0U_Scalar_ptr_iterator_tag@0@@Z ; std::_Uninit_move<ioBlock *,ioBlock *,ioBlock *>
EXTRN	__imp__memmove:PROC
; Function compile flags: /Ogsp
; File c:\program files (x86)\microsoft visual studio 10.0\vc\include\memory
;	COMDAT ??$_Uninit_move@PAVioBlock@@PAV1@PAV1@@std@@YAPAPAVioBlock@@PAPAV1@00AAV?$allocator@PAVioBlock@@@0@0U_Scalar_ptr_iterator_tag@0@@Z
_TEXT	SEGMENT
__First$ = 8						; size = 4
__Last$ = 12						; size = 4
__Dest$ = 16						; size = 4
___formal$ = 20						; size = 4
___formal$ = 24						; size = 4
___formal$ = 28						; size = 1
??$_Uninit_move@PAVioBlock@@PAV1@PAV1@@std@@YAPAPAVioBlock@@PAPAV1@00AAV?$allocator@PAVioBlock@@@0@0U_Scalar_ptr_iterator_tag@0@@Z PROC ; std::_Uninit_move<ioBlock *,ioBlock *,ioBlock *>, COMDAT

; 456  : 	{	// move [_First, _Last) to raw _Dest, scalar type

  00000	55		 push	 ebp
  00001	8b ec		 mov	 ebp, esp
  00003	56		 push	 esi

; 457  : 	_DEBUG_RANGE(_First, _Last);
; 458  : 	_DEBUG_POINTER(_Dest);
; 459  : 	size_t _Count = (size_t)(_Last - _First);

  00004	8b 75 0c	 mov	 esi, DWORD PTR __Last$[ebp]
  00007	2b 75 08	 sub	 esi, DWORD PTR __First$[ebp]
  0000a	c1 fe 02	 sar	 esi, 2

; 460  : 	return ((_Ty2 *)_CSTD memmove(&*_Dest, &*_First,
; 461  : 		_Count * sizeof (*_First)) + _Count);	// NB: non-overlapping move

  0000d	c1 e6 02	 shl	 esi, 2
  00010	56		 push	 esi
  00011	ff 75 08	 push	 DWORD PTR __First$[ebp]
  00014	ff 75 10	 push	 DWORD PTR __Dest$[ebp]
  00017	ff 15 00 00 00
	00		 call	 DWORD PTR __imp__memmove
  0001d	83 c4 0c	 add	 esp, 12			; 0000000cH
  00020	03 c6		 add	 eax, esi
  00022	5e		 pop	 esi

; 462  : 	}

  00023	5d		 pop	 ebp
  00024	c3		 ret	 0
??$_Uninit_move@PAVioBlock@@PAV1@PAV1@@std@@YAPAPAVioBlock@@PAPAV1@00AAV?$allocator@PAVioBlock@@@0@0U_Scalar_ptr_iterator_tag@0@@Z ENDP ; std::_Uninit_move<ioBlock *,ioBlock *,ioBlock *>
_TEXT	ENDS
PUBLIC	??0D3DXVECTOR3@@QAE@MMM@Z			; D3DXVECTOR3::D3DXVECTOR3
; Function compile flags: /Ogsp
; File c:\program files (x86)\microsoft directx sdk (june 2010)\include\d3dx9math.inl
;	COMDAT ??0D3DXVECTOR3@@QAE@MMM@Z
_TEXT	SEGMENT
_fx$ = 8						; size = 4
_fy$ = 12						; size = 4
_fz$ = 16						; size = 4
??0D3DXVECTOR3@@QAE@MMM@Z PROC				; D3DXVECTOR3::D3DXVECTOR3, COMDAT
; _this$ = ecx

; 303  : {

  00000	55		 push	 ebp
  00001	8b ec		 mov	 ebp, esp

; 304  :     x = fx;

  00003	f3 0f 10 45 08	 movss	 xmm0, DWORD PTR _fx$[ebp]
  00008	8b c1		 mov	 eax, ecx
  0000a	f3 0f 11 00	 movss	 DWORD PTR [eax], xmm0

; 305  :     y = fy;

  0000e	f3 0f 10 45 0c	 movss	 xmm0, DWORD PTR _fy$[ebp]
  00013	f3 0f 11 40 04	 movss	 DWORD PTR [eax+4], xmm0

; 306  :     z = fz;

  00018	f3 0f 10 45 10	 movss	 xmm0, DWORD PTR _fz$[ebp]
  0001d	f3 0f 11 40 08	 movss	 DWORD PTR [eax+8], xmm0

; 307  : }

  00022	5d		 pop	 ebp
  00023	c2 0c 00	 ret	 12			; 0000000cH
??0D3DXVECTOR3@@QAE@MMM@Z ENDP				; D3DXVECTOR3::D3DXVECTOR3
_TEXT	ENDS
PUBLIC	__mask@@NegFloat@
PUBLIC	??GD3DXVECTOR3@@QBE?AU0@XZ			; D3DXVECTOR3::operator-
;	COMDAT __mask@@NegFloat@
CONST	SEGMENT
__mask@@NegFloat@ DB 00H, 00H, 00H, 080H, 00H, 00H, 00H, 080H, 00H, 00H, 00H
	DB	080H, 00H, 00H, 00H, 080H
; Function compile flags: /Ogsp
CONST	ENDS
;	COMDAT ??GD3DXVECTOR3@@QBE?AU0@XZ
_TEXT	SEGMENT
___$ReturnUdt$ = 8					; size = 4
??GD3DXVECTOR3@@QBE?AU0@XZ PROC				; D3DXVECTOR3::operator-, COMDAT
; _this$ = ecx

; 372  : {

  00000	55		 push	 ebp
  00001	8b ec		 mov	 ebp, esp

; 373  :     return D3DXVECTOR3(-x, -y, -z);

  00003	f3 0f 10 05 00
	00 00 00	 movss	 xmm0, DWORD PTR __mask@@NegFloat@
  0000b	8b 45 08	 mov	 eax, DWORD PTR ___$ReturnUdt$[ebp]
  0000e	f3 0f 10 09	 movss	 xmm1, DWORD PTR [ecx]
  00012	0f 57 c8	 xorps	 xmm1, xmm0
  00015	f3 0f 11 08	 movss	 DWORD PTR [eax], xmm1
  00019	f3 0f 10 49 04	 movss	 xmm1, DWORD PTR [ecx+4]
  0001e	0f 57 c8	 xorps	 xmm1, xmm0
  00021	f3 0f 11 48 04	 movss	 DWORD PTR [eax+4], xmm1
  00026	f3 0f 10 49 08	 movss	 xmm1, DWORD PTR [ecx+8]
  0002b	0f 57 c8	 xorps	 xmm1, xmm0
  0002e	f3 0f 11 48 08	 movss	 DWORD PTR [eax+8], xmm1

; 374  : }

  00033	5d		 pop	 ebp
  00034	c2 04 00	 ret	 4
??GD3DXVECTOR3@@QBE?AU0@XZ ENDP				; D3DXVECTOR3::operator-
_TEXT	ENDS
PUBLIC	?size@?$vector@HV?$allocator@H@std@@@std@@QBEIXZ ; std::vector<int,std::allocator<int> >::size
; Function compile flags: /Ogsp
; File c:\program files (x86)\microsoft visual studio 10.0\vc\include\vector
;	COMDAT ?size@?$vector@HV?$allocator@H@std@@@std@@QBEIXZ
_TEXT	SEGMENT
?size@?$vector@HV?$allocator@H@std@@@std@@QBEIXZ PROC	; std::vector<int,std::allocator<int> >::size, COMDAT
; _this$ = ecx

; 879  : 		return (this->_Mylast - this->_Myfirst);

  00000	8b 41 04	 mov	 eax, DWORD PTR [ecx+4]
  00003	2b 01		 sub	 eax, DWORD PTR [ecx]
  00005	c1 f8 02	 sar	 eax, 2

; 880  : 		}

  00008	c3		 ret	 0
?size@?$vector@HV?$allocator@H@std@@@std@@QBEIXZ ENDP	; std::vector<int,std::allocator<int> >::size
_TEXT	ENDS
PUBLIC	??A?$vector@HV?$allocator@H@std@@@std@@QAEAAHI@Z ; std::vector<int,std::allocator<int> >::operator[]
; Function compile flags: /Ogsp
;	COMDAT ??A?$vector@HV?$allocator@H@std@@@std@@QAEAAHI@Z
_TEXT	SEGMENT
__Pos$ = 8						; size = 4
??A?$vector@HV?$allocator@H@std@@@std@@QAEAAHI@Z PROC	; std::vector<int,std::allocator<int> >::operator[], COMDAT
; _this$ = ecx

; 928  : 		{	// subscript mutable sequence

  00000	55		 push	 ebp
  00001	8b ec		 mov	 ebp, esp

; 929  :  #if _ITERATOR_DEBUG_LEVEL == 2
; 930  : 		if (size() <= _Pos)
; 931  : 			{	// report error
; 932  : 			_DEBUG_ERROR("vector subscript out of range");
; 933  : 			_SCL_SECURE_OUT_OF_RANGE;
; 934  : 			}
; 935  : 
; 936  :  #elif _ITERATOR_DEBUG_LEVEL == 1
; 937  : 		_SCL_SECURE_VALIDATE_RANGE(_Pos < size());
; 938  :  #endif /* _ITERATOR_DEBUG_LEVEL */
; 939  : 
; 940  : 		return (*(this->_Myfirst + _Pos));

  00003	8b 01		 mov	 eax, DWORD PTR [ecx]
  00005	8b 4d 08	 mov	 ecx, DWORD PTR __Pos$[ebp]
  00008	8d 04 88	 lea	 eax, DWORD PTR [eax+ecx*4]

; 941  : 		}

  0000b	5d		 pop	 ebp
  0000c	c2 04 00	 ret	 4
??A?$vector@HV?$allocator@H@std@@@std@@QAEAAHI@Z ENDP	; std::vector<int,std::allocator<int> >::operator[]
_TEXT	ENDS
PUBLIC	??0?$allocator@H@std@@QAE@XZ			; std::allocator<int>::allocator<int>
; Function compile flags: /Ogsp
; File c:\program files (x86)\microsoft visual studio 10.0\vc\include\xmemory
;	COMDAT ??0?$allocator@H@std@@QAE@XZ
_TEXT	SEGMENT
??0?$allocator@H@std@@QAE@XZ PROC			; std::allocator<int>::allocator<int>, COMDAT
; _this$ = ecx

; 161  : 	_ALLOCATOR() _THROW0()

  00000	8b c1		 mov	 eax, ecx

; 162  : 		{	// construct default allocator (do nothing)
; 163  : 		}

  00002	c3		 ret	 0
??0?$allocator@H@std@@QAE@XZ ENDP			; std::allocator<int>::allocator<int>
_TEXT	ENDS
PUBLIC	??1?$_Vector_val@HV?$allocator@H@std@@@std@@QAE@XZ ; std::_Vector_val<int,std::allocator<int> >::~_Vector_val<int,std::allocator<int> >
; Function compile flags: /Ogsp
; File c:\program files (x86)\microsoft visual studio 10.0\vc\include\vector
;	COMDAT ??1?$_Vector_val@HV?$allocator@H@std@@@std@@QAE@XZ
_TEXT	SEGMENT
??1?$_Vector_val@HV?$allocator@H@std@@@std@@QAE@XZ PROC	; std::_Vector_val<int,std::allocator<int> >::~_Vector_val<int,std::allocator<int> >, COMDAT
; _this$ = ecx

; 434  : 		}

  00000	c3		 ret	 0
??1?$_Vector_val@HV?$allocator@H@std@@@std@@QAE@XZ ENDP	; std::_Vector_val<int,std::allocator<int> >::~_Vector_val<int,std::allocator<int> >
_TEXT	ENDS
PUBLIC	??0?$allocator@H@std@@QAE@ABV01@@Z		; std::allocator<int>::allocator<int>
; Function compile flags: /Ogsp
; File c:\program files (x86)\microsoft visual studio 10.0\vc\include\xmemory
;	COMDAT ??0?$allocator@H@std@@QAE@ABV01@@Z
_TEXT	SEGMENT
___formal$ = 8						; size = 4
??0?$allocator@H@std@@QAE@ABV01@@Z PROC			; std::allocator<int>::allocator<int>, COMDAT
; _this$ = ecx

; 165  : 	_ALLOCATOR(const _ALLOCATOR<_Ty>&) _THROW0()

  00000	8b c1		 mov	 eax, ecx

; 166  : 		{	// construct by copying (do nothing)
; 167  : 		}

  00002	c2 04 00	 ret	 4
??0?$allocator@H@std@@QAE@ABV01@@Z ENDP			; std::allocator<int>::allocator<int>
_TEXT	ENDS
PUBLIC	?deallocate@?$allocator@H@std@@QAEXPAHI@Z	; std::allocator<int>::deallocate
; Function compile flags: /Ogsp
;	COMDAT ?deallocate@?$allocator@H@std@@QAEXPAHI@Z
_TEXT	SEGMENT
__Ptr$ = 8						; size = 4
___formal$ = 12						; size = 4
?deallocate@?$allocator@H@std@@QAEXPAHI@Z PROC		; std::allocator<int>::deallocate, COMDAT
; _this$ = ecx

; 181  : 		{	// deallocate object at _Ptr, ignore size

  00000	55		 push	 ebp
  00001	8b ec		 mov	 ebp, esp

; 182  : 		::operator delete(_Ptr);

  00003	ff 75 08	 push	 DWORD PTR __Ptr$[ebp]
  00006	e8 00 00 00 00	 call	 ??3@YAXPAX@Z		; operator delete
  0000b	59		 pop	 ecx

; 183  : 		}

  0000c	5d		 pop	 ebp
  0000d	c2 08 00	 ret	 8
?deallocate@?$allocator@H@std@@QAEXPAHI@Z ENDP		; std::allocator<int>::deallocate
_TEXT	ENDS
EXTRN	__imp_??0exception@std@@QAE@ABV01@@Z:PROC
; Function compile flags: /Ogsp
;	COMDAT ??0bad_alloc@std@@QAE@ABV01@@Z
_TEXT	SEGMENT
___that$ = 8						; size = 4
??0bad_alloc@std@@QAE@ABV01@@Z PROC			; std::bad_alloc::bad_alloc, COMDAT
; _this$ = ecx
  00000	55		 push	 ebp
  00001	8b ec		 mov	 ebp, esp
  00003	56		 push	 esi
  00004	ff 75 08	 push	 DWORD PTR ___that$[ebp]
  00007	8b f1		 mov	 esi, ecx
  00009	ff 15 00 00 00
	00		 call	 DWORD PTR __imp_??0exception@std@@QAE@ABV01@@Z
  0000f	c7 06 00 00 00
	00		 mov	 DWORD PTR [esi], OFFSET ??_7bad_alloc@std@@6B@
  00015	8b c6		 mov	 eax, esi
  00017	5e		 pop	 esi
  00018	5d		 pop	 ebp
  00019	c2 04 00	 ret	 4
??0bad_alloc@std@@QAE@ABV01@@Z ENDP			; std::bad_alloc::bad_alloc
_TEXT	ENDS
PUBLIC	??$_Ptr_cat@HH@std@@YA?AU_Scalar_ptr_iterator_tag@0@PAH0@Z ; std::_Ptr_cat<int,int>
; Function compile flags: /Ogsp
; File c:\program files (x86)\microsoft visual studio 10.0\vc\include\xutility
;	COMDAT ??$_Ptr_cat@HH@std@@YA?AU_Scalar_ptr_iterator_tag@0@PAH0@Z
_TEXT	SEGMENT
__Cat$ = -1						; size = 1
___formal$ = 8						; size = 4
___formal$ = 12						; size = 4
??$_Ptr_cat@HH@std@@YA?AU_Scalar_ptr_iterator_tag@0@PAH0@Z PROC ; std::_Ptr_cat<int,int>, COMDAT

; 516  : 	{	// return pointer category from pointers

  00000	55		 push	 ebp
  00001	8b ec		 mov	 ebp, esp
  00003	51		 push	 ecx

; 517  : 	typename _Ptr_cat_helper<_Elem1, _Elem2>::_Type _Cat;
; 518  : 	return (_Cat);

  00004	8a 45 ff	 mov	 al, BYTE PTR __Cat$[ebp]

; 519  : 	}

  00007	c9		 leave
  00008	c3		 ret	 0
??$_Ptr_cat@HH@std@@YA?AU_Scalar_ptr_iterator_tag@0@PAH0@Z ENDP ; std::_Ptr_cat<int,int>
_TEXT	ENDS
PUBLIC	??$_Destroy_range@V?$allocator@H@std@@@std@@YAXPAH0AAV?$allocator@H@0@U_Scalar_ptr_iterator_tag@0@@Z ; std::_Destroy_range<std::allocator<int> >
; Function compile flags: /Ogsp
; File c:\program files (x86)\microsoft visual studio 10.0\vc\include\xmemory
;	COMDAT ??$_Destroy_range@V?$allocator@H@std@@@std@@YAXPAH0AAV?$allocator@H@0@U_Scalar_ptr_iterator_tag@0@@Z
_TEXT	SEGMENT
__First$ = 8						; size = 4
__Last$ = 12						; size = 4
__Al$ = 16						; size = 4
___formal$ = 20						; size = 1
??$_Destroy_range@V?$allocator@H@std@@@std@@YAXPAH0AAV?$allocator@H@0@U_Scalar_ptr_iterator_tag@0@@Z PROC ; std::_Destroy_range<std::allocator<int> >, COMDAT

; 105  : 	}

  00000	c3		 ret	 0
??$_Destroy_range@V?$allocator@H@std@@@std@@YAXPAH0AAV?$allocator@H@0@U_Scalar_ptr_iterator_tag@0@@Z ENDP ; std::_Destroy_range<std::allocator<int> >
_TEXT	ENDS
PUBLIC	??0TilePos@@QAE@XZ				; TilePos::TilePos
; Function compile flags: /Ogsp
; File d:\lost saga for developer\youtube\tutorial\source\src\lsclient\housing\blockdefine.h
;	COMDAT ??0TilePos@@QAE@XZ
_TEXT	SEGMENT
??0TilePos@@QAE@XZ PROC					; TilePos::TilePos, COMDAT
; _this$ = ecx

; 91   : 	TilePos()

  00000	8b c1		 mov	 eax, ecx

; 92   : 	{
; 93   : 		Init();

  00002	83 48 08 ff	 or	 DWORD PTR [eax+8], -1
  00006	83 48 04 ff	 or	 DWORD PTR [eax+4], -1
  0000a	83 08 ff	 or	 DWORD PTR [eax], -1
  0000d	83 60 0c 00	 and	 DWORD PTR [eax+12], 0

; 94   : 	}

  00011	c3		 ret	 0
??0TilePos@@QAE@XZ ENDP					; TilePos::TilePos
_TEXT	ENDS
PUBLIC	?BuildQuadTree@ioBlockMapBase@@IAEXW4BlockModeType@@@Z ; ioBlockMapBase::BuildQuadTree
EXTRN	?SetCollBoxRotaion@ioPosMapQuadTree@@QAEXABUD3DXQUATERNION@@@Z:PROC ; ioPosMapQuadTree::SetCollBoxRotaion
EXTRN	?Build@ioPosMapQuadTree@@QAEXABUD3DXVECTOR3@@HHHH@Z:PROC ; ioPosMapQuadTree::Build
EXTRN	??0ioPosMapQuadTree@@QAE@XZ:PROC		; ioPosMapQuadTree::ioPosMapQuadTree
EXTRN	?GetSingleton@ioBlockManager@@SAAAV1@XZ:PROC	; ioBlockManager::GetSingleton
EXTRN	___CxxFrameHandler3:PROC
EXTRN	@__security_check_cookie@4:PROC
EXTRN	__EH_epilog3_GS:PROC
EXTRN	__EH_prolog3_GS:PROC
;	COMDAT xdata$x
; File d:\lost saga for developer\youtube\tutorial\source\src\lsclient\housing\ioblockmanager.h
xdata$x	SEGMENT
__unwindtable$?BuildQuadTree@ioBlockMapBase@@IAEXW4BlockModeType@@@Z DD 0ffffffffH
	DD	FLAT:__unwindfunclet$?BuildQuadTree@ioBlockMapBase@@IAEXW4BlockModeType@@@Z$0
__ehfuncinfo$?BuildQuadTree@ioBlockMapBase@@IAEXW4BlockModeType@@@Z DD 019930522H
	DD	01H
	DD	FLAT:__unwindtable$?BuildQuadTree@ioBlockMapBase@@IAEXW4BlockModeType@@@Z
	DD	2 DUP(00H)
	DD	2 DUP(00H)
	DD	00H
	DD	01H
; Function compile flags: /Ogsp
; File d:\lost saga for developer\youtube\tutorial\source\src\lsclient\housing\ioblockmapbase.cpp
xdata$x	ENDS
;	COMDAT ?BuildQuadTree@ioBlockMapBase@@IAEXW4BlockModeType@@@Z
_TEXT	SEGMENT
$T516656 = -36						; size = 4
_nHeight$ = -32						; size = 4
$T514922 = -28						; size = 12
__$EHRec$ = -12						; size = 12
_eType$ = 8						; size = 4
?BuildQuadTree@ioBlockMapBase@@IAEXW4BlockModeType@@@Z PROC ; ioBlockMapBase::BuildQuadTree, COMDAT
; _this$ = ecx

; 42   : {

  00000	6a 18		 push	 24			; 00000018H
  00002	b8 00 00 00 00	 mov	 eax, __ehhandler$?BuildQuadTree@ioBlockMapBase@@IAEXW4BlockModeType@@@Z
  00007	e8 00 00 00 00	 call	 __EH_prolog3_GS
  0000c	8b d9		 mov	 ebx, ecx

; 43   : 	int nHeight		= g_BlockManager.GetBlockStartHeight();

  0000e	e8 00 00 00 00	 call	 ?GetSingleton@ioBlockManager@@SAAAV1@XZ ; ioBlockManager::GetSingleton
  00013	f3 0f 2c 40 34	 cvttss2si eax, DWORD PTR [eax+52]
  00018	89 45 e0	 mov	 DWORD PTR _nHeight$[ebp], eax

; 44   : 	int nTileMax	= g_BlockManager.GetTileMax();

  0001b	e8 00 00 00 00	 call	 ?GetSingleton@ioBlockManager@@SAAAV1@XZ ; ioBlockManager::GetSingleton
  00020	8b 78 48	 mov	 edi, DWORD PTR [eax+72]

; 45   : 	int nTileMiddle	= (nTileMax-1) * UD_SIZE / 2;

  00023	8b c7		 mov	 eax, edi
  00025	6b c0 64	 imul	 eax, 100		; 00000064H
  00028	83 e8 64	 sub	 eax, 100		; 00000064H
  0002b	99		 cdq
  0002c	2b c2		 sub	 eax, edx
  0002e	8b f0		 mov	 esi, eax

; 46   : 
; 47   : 	m_pBlockQuadTree = new ioPosMapQuadTree;

  00030	68 80 00 00 00	 push	 128			; 00000080H
  00035	d1 fe		 sar	 esi, 1
  00037	e8 00 00 00 00	 call	 ??2@YAPAXI@Z		; operator new
  0003c	59		 pop	 ecx
  0003d	8b c8		 mov	 ecx, eax
  0003f	89 4d dc	 mov	 DWORD PTR $T516656[ebp], ecx
  00042	33 c0		 xor	 eax, eax
  00044	89 45 fc	 mov	 DWORD PTR __$EHRec$[ebp+8], eax
  00047	3b c8		 cmp	 ecx, eax
  00049	74 05		 je	 SHORT $LN3@BuildQuadT
  0004b	e8 00 00 00 00	 call	 ??0ioPosMapQuadTree@@QAE@XZ ; ioPosMapQuadTree::ioPosMapQuadTree
$LN3@BuildQuadT:
  00050	83 4d fc ff	 or	 DWORD PTR __$EHRec$[ebp+8], -1

; 48   : 	m_pBlockQuadTree->Build( D3DXVECTOR3( nTileMiddle, nHeight, -nTileMiddle ), ioPosMapQuadTree::FT_NONE, nTileMax, 1, nTileMax );

  00054	57		 push	 edi
  00055	0f 57 c0	 xorps	 xmm0, xmm0
  00058	f3 0f 2a c6	 cvtsi2ss xmm0, esi
  0005c	6a 01		 push	 1
  0005e	f3 0f 11 45 e4	 movss	 DWORD PTR $T514922[ebp], xmm0
  00063	66 0f 6e 45 e0	 movd	 xmm0, DWORD PTR _nHeight$[ebp]
  00068	57		 push	 edi
  00069	0f 5b c0	 cvtdq2ps xmm0, xmm0
  0006c	f3 0f 11 45 e8	 movss	 DWORD PTR $T514922[ebp+4], xmm0
  00071	6a 05		 push	 5
  00073	8d 4d e4	 lea	 ecx, DWORD PTR $T514922[ebp]
  00076	f7 de		 neg	 esi
  00078	0f 57 c0	 xorps	 xmm0, xmm0
  0007b	51		 push	 ecx
  0007c	f3 0f 2a c6	 cvtsi2ss xmm0, esi
  00080	8b c8		 mov	 ecx, eax
  00082	89 43 04	 mov	 DWORD PTR [ebx+4], eax
  00085	f3 0f 11 45 ec	 movss	 DWORD PTR $T514922[ebp+8], xmm0
  0008a	e8 00 00 00 00	 call	 ?Build@ioPosMapQuadTree@@QAEXABUD3DXVECTOR3@@HHHH@Z ; ioPosMapQuadTree::Build

; 49   : 	m_pBlockQuadTree->SetCollBoxRotaion( g_BlockManager.GetBlockRotation() );

  0008f	e8 00 00 00 00	 call	 ?GetSingleton@ioBlockManager@@SAAAV1@XZ ; ioBlockManager::GetSingleton
  00094	8b 4b 04	 mov	 ecx, DWORD PTR [ebx+4]
  00097	83 c0 38	 add	 eax, 56			; 00000038H
  0009a	50		 push	 eax
  0009b	e8 00 00 00 00	 call	 ?SetCollBoxRotaion@ioPosMapQuadTree@@QAEXABUD3DXQUATERNION@@@Z ; ioPosMapQuadTree::SetCollBoxRotaion

; 50   : }

  000a0	e8 00 00 00 00	 call	 __EH_epilog3_GS
  000a5	c2 04 00	 ret	 4
_TEXT	ENDS
;	COMDAT text$x
text$x	SEGMENT
__unwindfunclet$?BuildQuadTree@ioBlockMapBase@@IAEXW4BlockModeType@@@Z$0:
  00000	ff 75 dc	 push	 DWORD PTR $T516656[ebp]
  00003	e8 00 00 00 00	 call	 ??3@YAXPAX@Z		; operator delete
  00008	59		 pop	 ecx
  00009	c3		 ret	 0
__ehhandler$?BuildQuadTree@ioBlockMapBase@@IAEXW4BlockModeType@@@Z:
  0000a	8b 54 24 08	 mov	 edx, DWORD PTR [esp+8]
  0000e	8d 42 0c	 lea	 eax, DWORD PTR [edx+12]
  00011	8b 4a d8	 mov	 ecx, DWORD PTR [edx-40]
  00014	33 c8		 xor	 ecx, eax
  00016	e8 00 00 00 00	 call	 @__security_check_cookie@4
  0001b	8b 4a fc	 mov	 ecx, DWORD PTR [edx-4]
  0001e	33 c8		 xor	 ecx, eax
  00020	e8 00 00 00 00	 call	 @__security_check_cookie@4
  00025	b8 00 00 00 00	 mov	 eax, OFFSET __ehfuncinfo$?BuildQuadTree@ioBlockMapBase@@IAEXW4BlockModeType@@@Z
  0002a	e9 00 00 00 00	 jmp	 ___CxxFrameHandler3
text$x	ENDS
?BuildQuadTree@ioBlockMapBase@@IAEXW4BlockModeType@@@Z ENDP ; ioBlockMapBase::BuildQuadTree
PUBLIC	?DestroyQuadTree@ioBlockMapBase@@IAEXXZ		; ioBlockMapBase::DestroyQuadTree
; Function compile flags: /Ogsp
;	COMDAT ?DestroyQuadTree@ioBlockMapBase@@IAEXXZ
_TEXT	SEGMENT
?DestroyQuadTree@ioBlockMapBase@@IAEXXZ PROC		; ioBlockMapBase::DestroyQuadTree, COMDAT
; _this$ = ecx

; 53   : {

  00000	56		 push	 esi
  00001	8b f1		 mov	 esi, ecx
  00003	57		 push	 edi

; 54   : 	SAFEDELETE( m_pBlockQuadTree );

  00004	8b 7e 04	 mov	 edi, DWORD PTR [esi+4]
  00007	85 ff		 test	 edi, edi
  00009	74 12		 je	 SHORT $LN1@DestroyQua
  0000b	8b cf		 mov	 ecx, edi
  0000d	e8 00 00 00 00	 call	 ??1ioPosMapQuadTree@@QAE@XZ ; ioPosMapQuadTree::~ioPosMapQuadTree
  00012	57		 push	 edi
  00013	e8 00 00 00 00	 call	 ??3@YAXPAX@Z		; operator delete
  00018	83 66 04 00	 and	 DWORD PTR [esi+4], 0
  0001c	59		 pop	 ecx
$LN1@DestroyQua:

; 55   : }

  0001d	5f		 pop	 edi
  0001e	5e		 pop	 esi
  0001f	c3		 ret	 0
?DestroyQuadTree@ioBlockMapBase@@IAEXXZ ENDP		; ioBlockMapBase::DestroyQuadTree
_TEXT	ENDS
PUBLIC	_Pos$GSCopy$
PUBLIC	_this$GSCopy$
PUBLIC	?WorldCoordToTileCoord@ioBlockMapBase@@QAEXABUD3DXVECTOR3@@AAVTilePos@@@Z ; ioBlockMapBase::WorldCoordToTileCoord
EXTRN	__imp_??1ioRay@@QAE@XZ:PROC
EXTRN	?FindBlockIndex@ioPosMapQuadTree@@QAE_NAAVioRay@@AAH1@Z:PROC ; ioPosMapQuadTree::FindBlockIndex
EXTRN	__imp_??0ioRay@@QAE@ABUD3DXVECTOR3@@0@Z:PROC
EXTRN	__imp_?UNIT_Y@ioMath@@2UD3DXVECTOR3@@A:BYTE
;	COMDAT xdata$x
; File d:\lost saga for developer\youtube\tutorial\source\src\lsclient\housing\ioblockmanager.h
xdata$x	SEGMENT
__unwindtable$?WorldCoordToTileCoord@ioBlockMapBase@@QAEXABUD3DXVECTOR3@@AAVTilePos@@@Z DD 0ffffffffH
	DD	FLAT:__unwindfunclet$?WorldCoordToTileCoord@ioBlockMapBase@@QAEXABUD3DXVECTOR3@@AAVTilePos@@@Z$0
__ehfuncinfo$?WorldCoordToTileCoord@ioBlockMapBase@@QAEXABUD3DXVECTOR3@@AAVTilePos@@@Z DD 019930522H
	DD	01H
	DD	FLAT:__unwindtable$?WorldCoordToTileCoord@ioBlockMapBase@@QAEXABUD3DXVECTOR3@@AAVTilePos@@@Z
	DD	2 DUP(00H)
	DD	2 DUP(00H)
	DD	00H
	DD	01H
; Function compile flags: /Ogsp
; File d:\lost saga for developer\youtube\tutorial\source\src\lsclient\housing\ioblockmapbase.cpp
xdata$x	ENDS
;	COMDAT ?WorldCoordToTileCoord@ioBlockMapBase@@QAEXABUD3DXVECTOR3@@AAVTilePos@@@Z
_TEXT	SEGMENT
_this$GSCopy$ = -68					; size = 4
_Pos$GSCopy$ = -64					; size = 4
_nXPos$515179 = -60					; size = 4
_nZPos$515180 = -56					; size = 4
_kYRay$ = -52						; size = 24
_vDir$ = -28						; size = 12
__$EHRec$ = -12						; size = 12
_vPos$ = 8						; size = 4
_Pos$ = 12						; size = 4
?WorldCoordToTileCoord@ioBlockMapBase@@QAEXABUD3DXVECTOR3@@AAVTilePos@@@Z PROC ; ioBlockMapBase::WorldCoordToTileCoord, COMDAT
; _this$ = ecx

; 120  : {

  00000	6a 38		 push	 56			; 00000038H
  00002	b8 00 00 00 00	 mov	 eax, __ehhandler$?WorldCoordToTileCoord@ioBlockMapBase@@QAEXABUD3DXVECTOR3@@AAVTilePos@@@Z
  00007	e8 00 00 00 00	 call	 __EH_prolog3_GS

; 121  : 	D3DXVECTOR3 vDir = -ioMath::UNIT_Y;

  0000c	a1 00 00 00 00	 mov	 eax, DWORD PTR __imp_?UNIT_Y@ioMath@@2UD3DXVECTOR3@@A
  00011	f3 0f 10 08	 movss	 xmm1, DWORD PTR [eax]
  00015	f3 0f 10 50 04	 movss	 xmm2, DWORD PTR [eax+4]
  0001a	f3 0f 10 58 08	 movss	 xmm3, DWORD PTR [eax+8]
  0001f	f3 0f 10 05 00
	00 00 00	 movss	 xmm0, DWORD PTR __mask@@NegFloat@
  00027	8b 75 0c	 mov	 esi, DWORD PTR _Pos$[ebp]
  0002a	8b 5d 08	 mov	 ebx, DWORD PTR _vPos$[ebp]
  0002d	0f 57 c8	 xorps	 xmm1, xmm0
  00030	0f 57 d0	 xorps	 xmm2, xmm0
  00033	0f 57 d8	 xorps	 xmm3, xmm0
  00036	89 4d bc	 mov	 DWORD PTR _this$GSCopy$[ebp], ecx

; 132  : 
; 133  : 		Pos.x	= nXPos;

  00039	89 75 c0	 mov	 DWORD PTR _Pos$GSCopy$[ebp], esi
  0003c	f3 0f 11 4d e4	 movss	 DWORD PTR _vDir$[ebp], xmm1
  00041	f3 0f 11 55 e8	 movss	 DWORD PTR _vDir$[ebp+4], xmm2
  00046	f3 0f 11 5d ec	 movss	 DWORD PTR _vDir$[ebp+8], xmm3
  0004b	e8 00 00 00 00	 call	 ?GetSingleton@ioBlockManager@@SAAAV1@XZ ; ioBlockManager::GetSingleton
  00050	f3 0f 10 40 34	 movss	 xmm0, DWORD PTR [eax+52]
  00055	f3 0f 10 4b 04	 movss	 xmm1, DWORD PTR [ebx+4]
  0005a	0f 5a c9	 cvtps2pd xmm1, xmm1
  0005d	0f 5a c0	 cvtps2pd xmm0, xmm0
  00060	66 0f 2f c1	 comisd	 xmm0, xmm1
  00064	76 0f		 jbe	 SHORT $LN3@WorldCoord

; 122  : 	if( vPos.y < g_BlockManager.GetBlockStartHeight() )
; 123  : 		vDir = ioMath::UNIT_Y;

  00066	8b 35 00 00 00
	00		 mov	 esi, DWORD PTR __imp_?UNIT_Y@ioMath@@2UD3DXVECTOR3@@A
  0006c	8d 7d e4	 lea	 edi, DWORD PTR _vDir$[ebp]
  0006f	a5		 movsd
  00070	a5		 movsd
  00071	a5		 movsd
  00072	8b 75 c0	 mov	 esi, DWORD PTR _Pos$GSCopy$[ebp]
$LN3@WorldCoord:

; 124  : 
; 125  : 	ioRay kYRay( vPos, vDir );

  00075	8d 45 e4	 lea	 eax, DWORD PTR _vDir$[ebp]
  00078	50		 push	 eax
  00079	53		 push	 ebx
  0007a	8d 4d cc	 lea	 ecx, DWORD PTR _kYRay$[ebp]
  0007d	ff 15 00 00 00
	00		 call	 DWORD PTR __imp_??0ioRay@@QAE@ABUD3DXVECTOR3@@0@Z

; 126  : 	if( m_pBlockQuadTree )

  00083	8b 4d bc	 mov	 ecx, DWORD PTR _this$GSCopy$[ebp]
  00086	8b 49 04	 mov	 ecx, DWORD PTR [ecx+4]
  00089	33 c0		 xor	 eax, eax
  0008b	89 45 fc	 mov	 DWORD PTR __$EHRec$[ebp+8], eax
  0008e	3b c8		 cmp	 ecx, eax
  00090	74 4e		 je	 SHORT $LN2@WorldCoord

; 127  : 	{
; 128  : 		int nXPos = 0;

  00092	89 45 c4	 mov	 DWORD PTR _nXPos$515179[ebp], eax

; 129  : 		int nZPos = 0;

  00095	89 45 c8	 mov	 DWORD PTR _nZPos$515180[ebp], eax

; 130  : 		if( !m_pBlockQuadTree->FindBlockIndex( kYRay, nXPos, nZPos ) )

  00098	8d 45 c8	 lea	 eax, DWORD PTR _nZPos$515180[ebp]
  0009b	50		 push	 eax
  0009c	8d 45 c4	 lea	 eax, DWORD PTR _nXPos$515179[ebp]
  0009f	50		 push	 eax
  000a0	8d 45 cc	 lea	 eax, DWORD PTR _kYRay$[ebp]
  000a3	50		 push	 eax
  000a4	e8 00 00 00 00	 call	 ?FindBlockIndex@ioPosMapQuadTree@@QAE_NAAVioRay@@AAH1@Z ; ioPosMapQuadTree::FindBlockIndex
  000a9	84 c0		 test	 al, al

; 131  : 			return;

  000ab	74 33		 je	 SHORT $LN2@WorldCoord

; 132  : 
; 133  : 		Pos.x	= nXPos;

  000ad	8b 45 c4	 mov	 eax, DWORD PTR _nXPos$515179[ebp]
  000b0	89 06		 mov	 DWORD PTR [esi], eax

; 134  : 		Pos.y	= ( vPos.y - g_BlockManager.GetBlockStartHeight() ) / UD_SIZE;

  000b2	e8 00 00 00 00	 call	 ?GetSingleton@ioBlockManager@@SAAAV1@XZ ; ioBlockManager::GetSingleton
  000b7	f3 0f 10 40 34	 movss	 xmm0, DWORD PTR [eax+52]
  000bc	f3 0f 10 4b 04	 movss	 xmm1, DWORD PTR [ebx+4]
  000c1	0f 5a c9	 cvtps2pd xmm1, xmm1
  000c4	0f 5a c0	 cvtps2pd xmm0, xmm0
  000c7	f2 0f 5c c8	 subsd	 xmm1, xmm0
  000cb	f2 0f 5e 0d 00
	00 00 00	 divsd	 xmm1, QWORD PTR __real@4059000000000000
  000d3	f2 0f 2c c1	 cvttsd2si eax, xmm1
  000d7	89 46 08	 mov	 DWORD PTR [esi+8], eax

; 135  : 		Pos.z	= nZPos;

  000da	8b 45 c8	 mov	 eax, DWORD PTR _nZPos$515180[ebp]
  000dd	89 46 04	 mov	 DWORD PTR [esi+4], eax
$LN2@WorldCoord:

; 136  : 	}
; 137  : }

  000e0	83 4d fc ff	 or	 DWORD PTR __$EHRec$[ebp+8], -1
  000e4	8d 4d cc	 lea	 ecx, DWORD PTR _kYRay$[ebp]
  000e7	ff 15 00 00 00
	00		 call	 DWORD PTR __imp_??1ioRay@@QAE@XZ
  000ed	e8 00 00 00 00	 call	 __EH_epilog3_GS
  000f2	c2 08 00	 ret	 8
_TEXT	ENDS
;	COMDAT text$x
text$x	SEGMENT
__unwindfunclet$?WorldCoordToTileCoord@ioBlockMapBase@@QAEXABUD3DXVECTOR3@@AAVTilePos@@@Z$0:
  00000	8d 4d cc	 lea	 ecx, DWORD PTR _kYRay$[ebp]
  00003	ff 25 00 00 00
	00		 jmp	 DWORD PTR __imp_??1ioRay@@QAE@XZ
__ehhandler$?WorldCoordToTileCoord@ioBlockMapBase@@QAEXABUD3DXVECTOR3@@AAVTilePos@@@Z:
  00009	8b 54 24 08	 mov	 edx, DWORD PTR [esp+8]
  0000d	8d 42 0c	 lea	 eax, DWORD PTR [edx+12]
  00010	8b 4a b8	 mov	 ecx, DWORD PTR [edx-72]
  00013	33 c8		 xor	 ecx, eax
  00015	e8 00 00 00 00	 call	 @__security_check_cookie@4
  0001a	8b 4a fc	 mov	 ecx, DWORD PTR [edx-4]
  0001d	33 c8		 xor	 ecx, eax
  0001f	e8 00 00 00 00	 call	 @__security_check_cookie@4
  00024	b8 00 00 00 00	 mov	 eax, OFFSET __ehfuncinfo$?WorldCoordToTileCoord@ioBlockMapBase@@QAEXABUD3DXVECTOR3@@AAVTilePos@@@Z
  00029	e9 00 00 00 00	 jmp	 ___CxxFrameHandler3
text$x	ENDS
?WorldCoordToTileCoord@ioBlockMapBase@@QAEXABUD3DXVECTOR3@@AAVTilePos@@@Z ENDP ; ioBlockMapBase::WorldCoordToTileCoord
PUBLIC	?GetBlockByWorldPosition@ioBlockMapBase@@QAEPAVioBlock@@ABUD3DXVECTOR3@@@Z ; ioBlockMapBase::GetBlockByWorldPosition
; Function compile flags: /Ogsp
;	COMDAT ?GetBlockByWorldPosition@ioBlockMapBase@@QAEPAVioBlock@@ABUD3DXVECTOR3@@@Z
_TEXT	SEGMENT
_Pos$ = -16						; size = 16
_vPos$ = 8						; size = 4
?GetBlockByWorldPosition@ioBlockMapBase@@QAEPAVioBlock@@ABUD3DXVECTOR3@@@Z PROC ; ioBlockMapBase::GetBlockByWorldPosition, COMDAT
; _this$ = ecx

; 160  : {

  00000	55		 push	 ebp
  00001	8b ec		 mov	 ebp, esp
  00003	83 ec 10	 sub	 esp, 16			; 00000010H

; 161  : 	TilePos Pos;

  00006	83 4d f8 ff	 or	 DWORD PTR _Pos$[ebp+8], -1
  0000a	83 4d f4 ff	 or	 DWORD PTR _Pos$[ebp+4], -1
  0000e	83 4d f0 ff	 or	 DWORD PTR _Pos$[ebp], -1
  00012	83 65 fc 00	 and	 DWORD PTR _Pos$[ebp+12], 0
  00016	53		 push	 ebx
  00017	56		 push	 esi
  00018	57		 push	 edi

; 162  : 	WorldCoordToTileCoord( vPos, Pos );

  00019	8d 45 f0	 lea	 eax, DWORD PTR _Pos$[ebp]
  0001c	50		 push	 eax
  0001d	ff 75 08	 push	 DWORD PTR _vPos$[ebp]
  00020	8b d9		 mov	 ebx, ecx
  00022	e8 00 00 00 00	 call	 ?WorldCoordToTileCoord@ioBlockMapBase@@QAEXABUD3DXVECTOR3@@AAVTilePos@@@Z ; ioBlockMapBase::WorldCoordToTileCoord

; 163  : 
; 164  : 	ioBlock* pBlock = NULL;
; 165  : 	PosMapContainer* pContainer = GetPosMapContainer( Pos.y );

  00027	ff 75 f8	 push	 DWORD PTR _Pos$[ebp+8]
  0002a	8b cb		 mov	 ecx, ebx
  0002c	33 d2		 xor	 edx, edx
  0002e	e8 00 00 00 00	 call	 ?GetPosMapContainer@ioBlockMapBase@@QAEPAV?$ioPosMapContainer@PAVioBlock@@@@H@Z ; ioBlockMapBase::GetPosMapContainer

; 166  : 	if( pContainer )

  00033	85 c0		 test	 eax, eax
  00035	74 19		 je	 SHORT $LN12@GetBlockBy@2

; 167  : 		pBlock = pContainer->GetElement( Pos );

  00037	8b 10		 mov	 edx, DWORD PTR [eax]
  00039	83 ec 10	 sub	 esp, 16			; 00000010H
  0003c	8b fc		 mov	 edi, esp
  0003e	8d 75 f0	 lea	 esi, DWORD PTR _Pos$[ebp]
  00041	a5		 movsd
  00042	a5		 movsd
  00043	a5		 movsd
  00044	8b c8		 mov	 ecx, eax
  00046	a5		 movsd
  00047	ff 52 14	 call	 DWORD PTR [edx+20]
  0004a	8b d0		 mov	 edx, eax

; 168  : 
; 169  : 	if( pBlock == NULL )

  0004c	85 d2		 test	 edx, edx
  0004e	75 1c		 jne	 SHORT $LN1@GetBlockBy@2
$LN12@GetBlockBy@2:

; 170  : 	{
; 171  : 		TileMapContainer* pTileContainer = GetTileMapContainer();

  00050	8b 5b 58	 mov	 ebx, DWORD PTR [ebx+88]

; 172  : 		if( pTileContainer )

  00053	85 db		 test	 ebx, ebx
  00055	74 15		 je	 SHORT $LN1@GetBlockBy@2

; 173  : 			pBlock = pTileContainer->GetElement( Pos );

  00057	8b 03		 mov	 eax, DWORD PTR [ebx]
  00059	83 ec 10	 sub	 esp, 16			; 00000010H
  0005c	8b fc		 mov	 edi, esp
  0005e	8d 75 f0	 lea	 esi, DWORD PTR _Pos$[ebp]
  00061	a5		 movsd
  00062	a5		 movsd
  00063	a5		 movsd
  00064	8b cb		 mov	 ecx, ebx
  00066	a5		 movsd
  00067	ff 50 14	 call	 DWORD PTR [eax+20]
  0006a	8b d0		 mov	 edx, eax
$LN1@GetBlockBy@2:

; 174  : 	}
; 175  : 
; 176  : 	return pBlock;
; 177  : }

  0006c	5f		 pop	 edi
  0006d	5e		 pop	 esi
  0006e	8b c2		 mov	 eax, edx
  00070	5b		 pop	 ebx
  00071	c9		 leave
  00072	c2 04 00	 ret	 4
?GetBlockByWorldPosition@ioBlockMapBase@@QAEPAVioBlock@@ABUD3DXVECTOR3@@@Z ENDP ; ioBlockMapBase::GetBlockByWorldPosition
_TEXT	ENDS
PUBLIC	__real@3ff0000000000000
PUBLIC	__real@42c80000
PUBLIC	?GetAdjacentBlockList@ioBlockMapBase@@QAEXABUD3DXVECTOR3@@MAAUBlockMapBuffer@@@Z ; ioBlockMapBase::GetAdjacentBlockList
;	COMDAT __real@3ff0000000000000
; File d:\lost saga for developer\youtube\tutorial\source\src\lsclient\housing\blockdefine.h
CONST	SEGMENT
__real@3ff0000000000000 DQ 03ff0000000000000r	; 1
CONST	ENDS
;	COMDAT __real@42c80000
CONST	SEGMENT
__real@42c80000 DD 042c80000r			; 100
; Function compile flags: /Ogsp
; File d:\lost saga for developer\youtube\tutorial\source\src\lsclient\housing\ioblockmapbase.cpp
CONST	ENDS
;	COMDAT ?GetAdjacentBlockList@ioBlockMapBase@@QAEXABUD3DXVECTOR3@@MAAUBlockMapBuffer@@@Z
_TEXT	SEGMENT
_Pos$ = -16						; size = 16
_vPos$ = 8						; size = 4
_fRange$ = 12						; size = 4
_List$ = 16						; size = 4
?GetAdjacentBlockList@ioBlockMapBase@@QAEXABUD3DXVECTOR3@@MAAUBlockMapBuffer@@@Z PROC ; ioBlockMapBase::GetAdjacentBlockList, COMDAT
; _this$ = ecx

; 216  : {

  00000	55		 push	 ebp
  00001	8b ec		 mov	 ebp, esp
  00003	83 ec 10	 sub	 esp, 16			; 00000010H

; 217  : 	TilePos Pos;

  00006	83 4d f8 ff	 or	 DWORD PTR _Pos$[ebp+8], -1
  0000a	83 4d f4 ff	 or	 DWORD PTR _Pos$[ebp+4], -1
  0000e	83 4d f0 ff	 or	 DWORD PTR _Pos$[ebp], -1
  00012	83 65 fc 00	 and	 DWORD PTR _Pos$[ebp+12], 0
  00016	56		 push	 esi
  00017	57		 push	 edi

; 218  : 	WorldCoordToTileCoord( vPos, Pos );

  00018	8d 45 f0	 lea	 eax, DWORD PTR _Pos$[ebp]
  0001b	50		 push	 eax
  0001c	ff 75 08	 push	 DWORD PTR _vPos$[ebp]
  0001f	8b f1		 mov	 esi, ecx
  00021	e8 00 00 00 00	 call	 ?WorldCoordToTileCoord@ioBlockMapBase@@QAEXABUD3DXVECTOR3@@AAVTilePos@@@Z ; ioBlockMapBase::WorldCoordToTileCoord

; 219  : 
; 220  : 	if( fRange < UD_SIZE )

  00026	f3 0f 10 55 0c	 movss	 xmm2, DWORD PTR _fRange$[ebp]
  0002b	f2 0f 10 0d 00
	00 00 00	 movsd	 xmm1, QWORD PTR __real@4059000000000000
  00033	0f 5a c2	 cvtps2pd xmm0, xmm2
  00036	66 0f 2f c8	 comisd	 xmm1, xmm0
  0003a	76 0d		 jbe	 SHORT $LN3@GetAdjacen@3

; 221  : 		fRange = UD_SIZE;

  0003c	f3 0f 10 15 00
	00 00 00	 movss	 xmm2, DWORD PTR __real@42c80000
  00044	f3 0f 11 55 0c	 movss	 DWORD PTR _fRange$[ebp], xmm2
$LN3@GetAdjacen@3:

; 222  : 
; 223  : 	//상
; 224  : 	int nMax = m_nHeightMax;

  00049	8b 46 5c	 mov	 eax, DWORD PTR [esi+92]

; 225  : 	if( nMax > Pos.y )

  0004c	8b 7d f8	 mov	 edi, DWORD PTR _Pos$[ebp+8]
  0004f	3b c7		 cmp	 eax, edi
  00051	7e 60		 jle	 SHORT $LN2@GetAdjacen@3

; 226  : 	{
; 227  : 		int nHeightMax = min( nMax, Pos.y + fRange/UD_SIZE + 1 );

  00053	0f 57 c0	 xorps	 xmm0, xmm0
  00056	0f 5a c2	 cvtps2pd xmm0, xmm2
  00059	f2 0f 5e c1	 divsd	 xmm0, xmm1
  0005d	0f 57 c9	 xorps	 xmm1, xmm1
  00060	f3 0f 2a cf	 cvtsi2ss xmm1, edi
  00064	0f 5a c9	 cvtps2pd xmm1, xmm1
  00067	f2 0f 58 c1	 addsd	 xmm0, xmm1
  0006b	f2 0f 58 05 00
	00 00 00	 addsd	 xmm0, QWORD PTR __real@3ff0000000000000
  00073	0f 57 db	 xorps	 xmm3, xmm3
  00076	f3 0f 2a d8	 cvtsi2ss xmm3, eax
  0007a	0f 57 c9	 xorps	 xmm1, xmm1
  0007d	0f 5a cb	 cvtps2pd xmm1, xmm3
  00080	66 0f 2f c1	 comisd	 xmm0, xmm1
  00084	76 06		 jbe	 SHORT $LN6@GetAdjacen@3
  00086	0f 57 c0	 xorps	 xmm0, xmm0
  00089	0f 5a c3	 cvtps2pd xmm0, xmm3
$LN6@GetAdjacen@3:

; 228  : 		GetAdjacentBlockList( Pos.y, nHeightMax, Pos, fRange, List );

  0008c	ff 75 10	 push	 DWORD PTR _List$[ebp]
  0008f	8d 45 f0	 lea	 eax, DWORD PTR _Pos$[ebp]
  00092	51		 push	 ecx
  00093	f3 0f 11 14 24	 movss	 DWORD PTR [esp], xmm2
  00098	50		 push	 eax
  00099	f2 0f 2c c0	 cvttsd2si eax, xmm0
  0009d	50		 push	 eax
  0009e	57		 push	 edi
  0009f	8b ce		 mov	 ecx, esi
  000a1	e8 00 00 00 00	 call	 ?GetAdjacentBlockList@ioBlockMapBase@@QAEXHHABVTilePos@@MAAUBlockMapBuffer@@@Z ; ioBlockMapBase::GetAdjacentBlockList
  000a6	f3 0f 10 55 0c	 movss	 xmm2, DWORD PTR _fRange$[ebp]
  000ab	f2 0f 10 0d 00
	00 00 00	 movsd	 xmm1, QWORD PTR __real@4059000000000000
$LN2@GetAdjacen@3:

; 229  : 	}
; 230  : 
; 231  : 	//하
; 232  : 	if( 0 <= Pos.y )

  000b3	85 ff		 test	 edi, edi
  000b5	78 3c		 js	 SHORT $LN1@GetAdjacen@3

; 233  : 	{
; 234  : 		GetAdjacentBlockList( max( 0, Pos.y - fRange/UD_SIZE ), Pos.y, Pos, fRange, List );

  000b7	0f 57 c0	 xorps	 xmm0, xmm0
  000ba	f3 0f 2a c7	 cvtsi2ss xmm0, edi
  000be	0f 5a da	 cvtps2pd xmm3, xmm2
  000c1	f2 0f 5e d9	 divsd	 xmm3, xmm1
  000c5	0f 57 c9	 xorps	 xmm1, xmm1
  000c8	0f 5a c0	 cvtps2pd xmm0, xmm0
  000cb	f2 0f 5c c3	 subsd	 xmm0, xmm3
  000cf	66 0f 2f c8	 comisd	 xmm1, xmm0
  000d3	76 04		 jbe	 SHORT $LN8@GetAdjacen@3
  000d5	66 0f 28 c1	 movapd	 xmm0, xmm1
$LN8@GetAdjacen@3:
  000d9	ff 75 10	 push	 DWORD PTR _List$[ebp]
  000dc	8d 45 f0	 lea	 eax, DWORD PTR _Pos$[ebp]
  000df	51		 push	 ecx
  000e0	f3 0f 11 14 24	 movss	 DWORD PTR [esp], xmm2
  000e5	50		 push	 eax
  000e6	57		 push	 edi
  000e7	f2 0f 2c c0	 cvttsd2si eax, xmm0
  000eb	50		 push	 eax
  000ec	8b ce		 mov	 ecx, esi
  000ee	e8 00 00 00 00	 call	 ?GetAdjacentBlockList@ioBlockMapBase@@QAEXHHABVTilePos@@MAAUBlockMapBuffer@@@Z ; ioBlockMapBase::GetAdjacentBlockList
$LN1@GetAdjacen@3:
  000f3	5f		 pop	 edi
  000f4	5e		 pop	 esi

; 235  : 	}
; 236  : 
; 237  : 	//150911 JSM 최적화, CPU 점유율이 생각보다 높아서 제거하고 로직을 변경
; 238  : 	/*
; 239  : 	std::stable_sort( List.begin(), List.end(), ioBlockListSort() );
; 240  : 	ioBlockList::iterator iter = std::unique( List.begin(), List.end() );
; 241  : 	List.erase( iter, List.end() );
; 242  : 	*/
; 243  : }

  000f5	c9		 leave
  000f6	c2 0c 00	 ret	 12			; 0000000cH
?GetAdjacentBlockList@ioBlockMapBase@@QAEXABUD3DXVECTOR3@@MAAUBlockMapBuffer@@@Z ENDP ; ioBlockMapBase::GetAdjacentBlockList
_TEXT	ENDS
PUBLIC	??_7?$ioPos64MapContainer@PAVioBlock@@@@6B@	; ioPos64MapContainer<ioBlock *>::`vftable'
PUBLIC	??0?$ioPos64MapContainer@PAVioBlock@@@@QAE@XZ	; ioPos64MapContainer<ioBlock *>::ioPos64MapContainer<ioBlock *>
PUBLIC	??_R4?$ioPos64MapContainer@PAVioBlock@@@@6B@	; ioPos64MapContainer<ioBlock *>::`RTTI Complete Object Locator'
PUBLIC	??_R0?AV?$ioPos64MapContainer@PAVioBlock@@@@@8	; ioPos64MapContainer<ioBlock *> `RTTI Type Descriptor'
PUBLIC	??_R3?$ioPos64MapContainer@PAVioBlock@@@@8	; ioPos64MapContainer<ioBlock *>::`RTTI Class Hierarchy Descriptor'
PUBLIC	??_R2?$ioPos64MapContainer@PAVioBlock@@@@8	; ioPos64MapContainer<ioBlock *>::`RTTI Base Class Array'
PUBLIC	??_R1A@?0A@EA@?$ioPos64MapContainer@PAVioBlock@@@@8 ; ioPos64MapContainer<ioBlock *>::`RTTI Base Class Descriptor at (0,-1,0,64)'
PUBLIC	?Destroy@?$ioPos64MapContainer@PAVioBlock@@@@UAEXXZ ; ioPos64MapContainer<ioBlock *>::Destroy
PUBLIC	?AddElement@?$ioPos64MapContainer@PAVioBlock@@@@UAEXPAVioBlock@@H@Z ; ioPos64MapContainer<ioBlock *>::AddElement
PUBLIC	?AddElement@?$ioPos64MapContainer@PAVioBlock@@@@UAEXPAVioBlock@@VTilePos@@@Z ; ioPos64MapContainer<ioBlock *>::AddElement
PUBLIC	?GetElement@?$ioPos64MapContainer@PAVioBlock@@@@UAEPAVioBlock@@H@Z ; ioPos64MapContainer<ioBlock *>::GetElement
PUBLIC	?GetElement@?$ioPos64MapContainer@PAVioBlock@@@@UAEPAVioBlock@@VTilePos@@@Z ; ioPos64MapContainer<ioBlock *>::GetElement
PUBLIC	?RemoveElement@?$ioPos64MapContainer@PAVioBlock@@@@UAEXH@Z ; ioPos64MapContainer<ioBlock *>::RemoveElement
PUBLIC	?GetMax@?$ioPos64MapContainer@PAVioBlock@@@@UAEHXZ ; ioPos64MapContainer<ioBlock *>::GetMax
EXTRN	??_E?$ioPos64MapContainer@PAVioBlock@@@@UAEPAXI@Z:PROC ; ioPos64MapContainer<ioBlock *>::`vector deleting destructor'
;	COMDAT ??_R1A@?0A@EA@?$ioPos64MapContainer@PAVioBlock@@@@8
; File d:\lost saga for developer\youtube\tutorial\source\src\lsclient\housing\ioposmapcontainer.h
rdata$r	SEGMENT
??_R1A@?0A@EA@?$ioPos64MapContainer@PAVioBlock@@@@8 DD FLAT:??_R0?AV?$ioPos64MapContainer@PAVioBlock@@@@@8 ; ioPos64MapContainer<ioBlock *>::`RTTI Base Class Descriptor at (0,-1,0,64)'
	DD	01H
	DD	00H
	DD	0ffffffffH
	DD	00H
	DD	040H
	DD	FLAT:??_R3?$ioPos64MapContainer@PAVioBlock@@@@8
rdata$r	ENDS
;	COMDAT ??_R2?$ioPos64MapContainer@PAVioBlock@@@@8
rdata$r	SEGMENT
??_R2?$ioPos64MapContainer@PAVioBlock@@@@8 DD FLAT:??_R1A@?0A@EA@?$ioPos64MapContainer@PAVioBlock@@@@8 ; ioPos64MapContainer<ioBlock *>::`RTTI Base Class Array'
	DD	FLAT:??_R1A@?0A@EA@?$ioPosMapContainer@PAVioBlock@@@@8
rdata$r	ENDS
;	COMDAT ??_R3?$ioPos64MapContainer@PAVioBlock@@@@8
rdata$r	SEGMENT
??_R3?$ioPos64MapContainer@PAVioBlock@@@@8 DD 00H	; ioPos64MapContainer<ioBlock *>::`RTTI Class Hierarchy Descriptor'
	DD	00H
	DD	02H
	DD	FLAT:??_R2?$ioPos64MapContainer@PAVioBlock@@@@8
rdata$r	ENDS
;	COMDAT ??_R0?AV?$ioPos64MapContainer@PAVioBlock@@@@@8
_DATA	SEGMENT
??_R0?AV?$ioPos64MapContainer@PAVioBlock@@@@@8 DD FLAT:??_7type_info@@6B@ ; ioPos64MapContainer<ioBlock *> `RTTI Type Descriptor'
	DD	00H
	DB	'.?AV?$ioPos64MapContainer@PAVioBlock@@@@', 00H
_DATA	ENDS
;	COMDAT ??_R4?$ioPos64MapContainer@PAVioBlock@@@@6B@
rdata$r	SEGMENT
??_R4?$ioPos64MapContainer@PAVioBlock@@@@6B@ DD 00H	; ioPos64MapContainer<ioBlock *>::`RTTI Complete Object Locator'
	DD	00H
	DD	00H
	DD	FLAT:??_R0?AV?$ioPos64MapContainer@PAVioBlock@@@@@8
	DD	FLAT:??_R3?$ioPos64MapContainer@PAVioBlock@@@@8
rdata$r	ENDS
;	COMDAT ??_7?$ioPos64MapContainer@PAVioBlock@@@@6B@
CONST	SEGMENT
??_7?$ioPos64MapContainer@PAVioBlock@@@@6B@ DD FLAT:??_R4?$ioPos64MapContainer@PAVioBlock@@@@6B@ ; ioPos64MapContainer<ioBlock *>::`vftable'
	DD	FLAT:?Destroy@?$ioPos64MapContainer@PAVioBlock@@@@UAEXXZ
	DD	FLAT:?Init@?$ioPos64MapContainer@PAVioBlock@@@@UAEXXZ
	DD	FLAT:?AddElement@?$ioPos64MapContainer@PAVioBlock@@@@UAEXPAVioBlock@@H@Z
	DD	FLAT:?AddElement@?$ioPos64MapContainer@PAVioBlock@@@@UAEXPAVioBlock@@VTilePos@@@Z
	DD	FLAT:?GetElement@?$ioPos64MapContainer@PAVioBlock@@@@UAEPAVioBlock@@H@Z
	DD	FLAT:?GetElement@?$ioPos64MapContainer@PAVioBlock@@@@UAEPAVioBlock@@VTilePos@@@Z
	DD	FLAT:?RemoveElement@?$ioPos64MapContainer@PAVioBlock@@@@UAEXH@Z
	DD	FLAT:?GetMax@?$ioPos64MapContainer@PAVioBlock@@@@UAEHXZ
	DD	FLAT:??_E?$ioPos64MapContainer@PAVioBlock@@@@UAEPAXI@Z
; Function compile flags: /Ogsp
CONST	ENDS
;	COMDAT ??0?$ioPos64MapContainer@PAVioBlock@@@@QAE@XZ
_TEXT	SEGMENT
??0?$ioPos64MapContainer@PAVioBlock@@@@QAE@XZ PROC	; ioPos64MapContainer<ioBlock *>::ioPos64MapContainer<ioBlock *>, COMDAT
; _this$ = ecx

; 161  : 	ioPos64MapContainer(){ Init(); }

  00000	8b d1		 mov	 edx, ecx
  00002	57		 push	 edi
  00003	33 c0		 xor	 eax, eax
  00005	8d 7a 04	 lea	 edi, DWORD PTR [edx+4]
  00008	b9 00 10 00 00	 mov	 ecx, 4096		; 00001000H
  0000d	c7 02 00 00 00
	00		 mov	 DWORD PTR [edx], OFFSET ??_7?$ioPos64MapContainer@PAVioBlock@@@@6B@
  00013	f3 ab		 rep stosd
  00015	8b c2		 mov	 eax, edx
  00017	5f		 pop	 edi
  00018	c3		 ret	 0
??0?$ioPos64MapContainer@PAVioBlock@@@@QAE@XZ ENDP	; ioPos64MapContainer<ioBlock *>::ioPos64MapContainer<ioBlock *>
; Function compile flags: /Ogsp
_TEXT	ENDS
;	COMDAT ?Destroy@?$ioPos64MapContainer@PAVioBlock@@@@UAEXXZ
_TEXT	SEGMENT
?Destroy@?$ioPos64MapContainer@PAVioBlock@@@@UAEXXZ PROC ; ioPos64MapContainer<ioBlock *>::Destroy, COMDAT
; _this$ = ecx

; 102  : 	{

  00000	53		 push	 ebx
  00001	56		 push	 esi
  00002	57		 push	 edi

; 103  : 		for( int nZ = 0; nZ < PMCS_64; ++nZ )

  00003	6a 40		 push	 64			; 00000040H
  00005	8d 71 04	 lea	 esi, DWORD PTR [ecx+4]
  00008	5b		 pop	 ebx
$LL16@Destroy:

; 104  : 		{
; 105  : 			for( int nX = 0; nX < PMCS_64; ++nX )

  00009	6a 40		 push	 64			; 00000040H
  0000b	5f		 pop	 edi
$LL4@Destroy:

; 106  : 			{	
; 107  : 				SAFEDELETE( m_PosMap[nX + nZ * PMCS_64] );

  0000c	8b 0e		 mov	 ecx, DWORD PTR [esi]
  0000e	85 c9		 test	 ecx, ecx
  00010	74 0a		 je	 SHORT $LN3@Destroy
  00012	8b 01		 mov	 eax, DWORD PTR [ecx]
  00014	6a 01		 push	 1
  00016	ff 50 04	 call	 DWORD PTR [eax+4]
  00019	83 26 00	 and	 DWORD PTR [esi], 0
$LN3@Destroy:

; 104  : 		{
; 105  : 			for( int nX = 0; nX < PMCS_64; ++nX )

  0001c	83 c6 04	 add	 esi, 4
  0001f	4f		 dec	 edi
  00020	75 ea		 jne	 SHORT $LL4@Destroy

; 103  : 		for( int nZ = 0; nZ < PMCS_64; ++nZ )

  00022	4b		 dec	 ebx
  00023	75 e4		 jne	 SHORT $LL16@Destroy

; 108  : 			}
; 109  : 		}
; 110  : 	}

  00025	5f		 pop	 edi
  00026	5e		 pop	 esi
  00027	5b		 pop	 ebx
  00028	c3		 ret	 0
?Destroy@?$ioPos64MapContainer@PAVioBlock@@@@UAEXXZ ENDP ; ioPos64MapContainer<ioBlock *>::Destroy
; Function compile flags: /Ogsp
_TEXT	ENDS
;	COMDAT ?AddElement@?$ioPos64MapContainer@PAVioBlock@@@@UAEXPAVioBlock@@VTilePos@@@Z
_TEXT	SEGMENT
_pEntity$ = 8						; size = 4
_Pos$ = 12						; size = 16
?AddElement@?$ioPos64MapContainer@PAVioBlock@@@@UAEXPAVioBlock@@VTilePos@@@Z PROC ; ioPos64MapContainer<ioBlock *>::AddElement, COMDAT
; _this$ = ecx

; 125  : 	{

  00000	55		 push	 ebp
  00001	8b ec		 mov	 ebp, esp

; 126  : 		AddElement( pEntity, Pos.x + Pos.z * PMCS_64 );

  00003	8b 55 10	 mov	 edx, DWORD PTR _Pos$[ebp+4]
  00006	8b 01		 mov	 eax, DWORD PTR [ecx]
  00008	c1 e2 06	 shl	 edx, 6
  0000b	03 55 0c	 add	 edx, DWORD PTR _Pos$[ebp]
  0000e	52		 push	 edx
  0000f	ff 75 08	 push	 DWORD PTR _pEntity$[ebp]
  00012	ff 50 08	 call	 DWORD PTR [eax+8]

; 127  : 	}

  00015	5d		 pop	 ebp
  00016	c2 14 00	 ret	 20			; 00000014H
?AddElement@?$ioPos64MapContainer@PAVioBlock@@@@UAEXPAVioBlock@@VTilePos@@@Z ENDP ; ioPos64MapContainer<ioBlock *>::AddElement
; Function compile flags: /Ogsp
_TEXT	ENDS
;	COMDAT ?AddElement@?$ioPos64MapContainer@PAVioBlock@@@@UAEXPAVioBlock@@H@Z
_TEXT	SEGMENT
_pEntity$ = 8						; size = 4
_Index$ = 12						; size = 4
?AddElement@?$ioPos64MapContainer@PAVioBlock@@@@UAEXPAVioBlock@@H@Z PROC ; ioPos64MapContainer<ioBlock *>::AddElement, COMDAT
; _this$ = ecx

; 130  : 	{

  00000	55		 push	 ebp
  00001	8b ec		 mov	 ebp, esp
  00003	56		 push	 esi
  00004	57		 push	 edi

; 131  : 		if( COMPARE( Index, 0, GetMax() ) )

  00005	8b 7d 0c	 mov	 edi, DWORD PTR _Index$[ebp]
  00008	8b f1		 mov	 esi, ecx
  0000a	85 ff		 test	 edi, edi
  0000c	78 10		 js	 SHORT $LN1@AddElement
  0000e	8b 06		 mov	 eax, DWORD PTR [esi]
  00010	ff 50 1c	 call	 DWORD PTR [eax+28]
  00013	3b f8		 cmp	 edi, eax
  00015	7d 07		 jge	 SHORT $LN1@AddElement

; 132  : 			m_PosMap[Index] = pEntity;

  00017	8b 45 08	 mov	 eax, DWORD PTR _pEntity$[ebp]
  0001a	89 44 be 04	 mov	 DWORD PTR [esi+edi*4+4], eax
$LN1@AddElement:
  0001e	5f		 pop	 edi
  0001f	5e		 pop	 esi

; 133  : 	}

  00020	5d		 pop	 ebp
  00021	c2 08 00	 ret	 8
?AddElement@?$ioPos64MapContainer@PAVioBlock@@@@UAEXPAVioBlock@@H@Z ENDP ; ioPos64MapContainer<ioBlock *>::AddElement
; Function compile flags: /Ogsp
_TEXT	ENDS
;	COMDAT ?GetElement@?$ioPos64MapContainer@PAVioBlock@@@@UAEPAVioBlock@@VTilePos@@@Z
_TEXT	SEGMENT
_Pos$ = 8						; size = 16
?GetElement@?$ioPos64MapContainer@PAVioBlock@@@@UAEPAVioBlock@@VTilePos@@@Z PROC ; ioPos64MapContainer<ioBlock *>::GetElement, COMDAT
; _this$ = ecx

; 136  : 	{

  00000	55		 push	 ebp
  00001	8b ec		 mov	 ebp, esp

; 137  : 		return GetElement( Pos.x + Pos.z * PMCS_64 );

  00003	8b 55 0c	 mov	 edx, DWORD PTR _Pos$[ebp+4]
  00006	8b 01		 mov	 eax, DWORD PTR [ecx]
  00008	c1 e2 06	 shl	 edx, 6
  0000b	03 55 08	 add	 edx, DWORD PTR _Pos$[ebp]
  0000e	52		 push	 edx
  0000f	ff 50 10	 call	 DWORD PTR [eax+16]

; 138  : 	}

  00012	5d		 pop	 ebp
  00013	c2 10 00	 ret	 16			; 00000010H
?GetElement@?$ioPos64MapContainer@PAVioBlock@@@@UAEPAVioBlock@@VTilePos@@@Z ENDP ; ioPos64MapContainer<ioBlock *>::GetElement
; Function compile flags: /Ogsp
_TEXT	ENDS
;	COMDAT ?GetElement@?$ioPos64MapContainer@PAVioBlock@@@@UAEPAVioBlock@@H@Z
_TEXT	SEGMENT
_Index$ = 8						; size = 4
?GetElement@?$ioPos64MapContainer@PAVioBlock@@@@UAEPAVioBlock@@H@Z PROC ; ioPos64MapContainer<ioBlock *>::GetElement, COMDAT
; _this$ = ecx

; 141  : 	{

  00000	55		 push	 ebp
  00001	8b ec		 mov	 ebp, esp
  00003	56		 push	 esi
  00004	57		 push	 edi

; 142  : 		if( COMPARE( Index, 0, GetMax() ) )

  00005	8b 7d 08	 mov	 edi, DWORD PTR _Index$[ebp]
  00008	8b f1		 mov	 esi, ecx
  0000a	85 ff		 test	 edi, edi
  0000c	78 0f		 js	 SHORT $LN1@GetElement
  0000e	8b 06		 mov	 eax, DWORD PTR [esi]
  00010	ff 50 1c	 call	 DWORD PTR [eax+28]
  00013	3b f8		 cmp	 edi, eax
  00015	7d 06		 jge	 SHORT $LN1@GetElement

; 143  : 		{
; 144  : 			return m_PosMap[Index];

  00017	8b 44 be 04	 mov	 eax, DWORD PTR [esi+edi*4+4]
  0001b	eb 02		 jmp	 SHORT $LN2@GetElement
$LN1@GetElement:

; 145  : 		}
; 146  : 
; 147  : 		return NULL;

  0001d	33 c0		 xor	 eax, eax
$LN2@GetElement:
  0001f	5f		 pop	 edi
  00020	5e		 pop	 esi

; 148  : 	}

  00021	5d		 pop	 ebp
  00022	c2 04 00	 ret	 4
?GetElement@?$ioPos64MapContainer@PAVioBlock@@@@UAEPAVioBlock@@H@Z ENDP ; ioPos64MapContainer<ioBlock *>::GetElement
; Function compile flags: /Ogsp
_TEXT	ENDS
;	COMDAT ?RemoveElement@?$ioPos64MapContainer@PAVioBlock@@@@UAEXH@Z
_TEXT	SEGMENT
_Index$ = 8						; size = 4
?RemoveElement@?$ioPos64MapContainer@PAVioBlock@@@@UAEXH@Z PROC ; ioPos64MapContainer<ioBlock *>::RemoveElement, COMDAT
; _this$ = ecx

; 151  : 	{

  00000	55		 push	 ebp
  00001	8b ec		 mov	 ebp, esp
  00003	56		 push	 esi
  00004	57		 push	 edi

; 152  : 		if( COMPARE( Index, 0, GetMax() ) )

  00005	8b 7d 08	 mov	 edi, DWORD PTR _Index$[ebp]
  00008	8b f1		 mov	 esi, ecx
  0000a	85 ff		 test	 edi, edi
  0000c	78 0e		 js	 SHORT $LN1@RemoveElem
  0000e	8b 06		 mov	 eax, DWORD PTR [esi]
  00010	ff 50 1c	 call	 DWORD PTR [eax+28]
  00013	3b f8		 cmp	 edi, eax
  00015	7d 05		 jge	 SHORT $LN1@RemoveElem

; 153  : 		{
; 154  : 			m_PosMap[Index] = NULL;

  00017	83 64 be 04 00	 and	 DWORD PTR [esi+edi*4+4], 0
$LN1@RemoveElem:
  0001c	5f		 pop	 edi
  0001d	5e		 pop	 esi

; 155  : 		}
; 156  : 	}

  0001e	5d		 pop	 ebp
  0001f	c2 04 00	 ret	 4
?RemoveElement@?$ioPos64MapContainer@PAVioBlock@@@@UAEXH@Z ENDP ; ioPos64MapContainer<ioBlock *>::RemoveElement
; Function compile flags: /Ogsp
_TEXT	ENDS
;	COMDAT ?GetMax@?$ioPos64MapContainer@PAVioBlock@@@@UAEHXZ
_TEXT	SEGMENT
?GetMax@?$ioPos64MapContainer@PAVioBlock@@@@UAEHXZ PROC	; ioPos64MapContainer<ioBlock *>::GetMax, COMDAT
; _this$ = ecx

; 158  : 	virtual int GetMax(){ return PMCS_64 * PMCS_64; }

  00000	b8 00 10 00 00	 mov	 eax, 4096		; 00001000H
  00005	c3		 ret	 0
?GetMax@?$ioPos64MapContainer@PAVioBlock@@@@UAEHXZ ENDP	; ioPos64MapContainer<ioBlock *>::GetMax
_TEXT	ENDS
PUBLIC	??1?$ioPos64MapContainer@PAVioBlock@@@@UAE@XZ	; ioPos64MapContainer<ioBlock *>::~ioPos64MapContainer<ioBlock *>
; Function compile flags: /Ogsp
;	COMDAT ??1?$ioPos64MapContainer@PAVioBlock@@@@UAE@XZ
_TEXT	SEGMENT
??1?$ioPos64MapContainer@PAVioBlock@@@@UAE@XZ PROC	; ioPos64MapContainer<ioBlock *>::~ioPos64MapContainer<ioBlock *>, COMDAT
; _this$ = ecx

; 162  : 	virtual ~ioPos64MapContainer(){}

  00000	c7 01 00 00 00
	00		 mov	 DWORD PTR [ecx], OFFSET ??_7?$ioPos64MapContainer@PAVioBlock@@@@6B@
  00006	c3		 ret	 0
??1?$ioPos64MapContainer@PAVioBlock@@@@UAE@XZ ENDP	; ioPos64MapContainer<ioBlock *>::~ioPos64MapContainer<ioBlock *>
; Function compile flags: /Ogsp
_TEXT	ENDS
;	COMDAT ??_G?$ioPos64MapContainer@PAVioBlock@@@@UAEPAXI@Z
_TEXT	SEGMENT
___flags$ = 8						; size = 4
??_G?$ioPos64MapContainer@PAVioBlock@@@@UAEPAXI@Z PROC	; ioPos64MapContainer<ioBlock *>::`scalar deleting destructor', COMDAT
; _this$ = ecx
  00000	55		 push	 ebp
  00001	8b ec		 mov	 ebp, esp
  00003	f6 45 08 01	 test	 BYTE PTR ___flags$[ebp], 1
  00007	56		 push	 esi
  00008	8b f1		 mov	 esi, ecx
  0000a	c7 06 00 00 00
	00		 mov	 DWORD PTR [esi], OFFSET ??_7?$ioPos64MapContainer@PAVioBlock@@@@6B@
  00010	74 07		 je	 SHORT $LN1@scalar@3
  00012	56		 push	 esi
  00013	e8 00 00 00 00	 call	 ??3@YAXPAX@Z		; operator delete
  00018	59		 pop	 ecx
$LN1@scalar@3:
  00019	8b c6		 mov	 eax, esi
  0001b	5e		 pop	 esi
  0001c	5d		 pop	 ebp
  0001d	c2 04 00	 ret	 4
??_G?$ioPos64MapContainer@PAVioBlock@@@@UAEPAXI@Z ENDP	; ioPos64MapContainer<ioBlock *>::`scalar deleting destructor'
_TEXT	ENDS
PUBLIC	??_7?$ioPos32MapContainer@PAVioBlock@@@@6B@	; ioPos32MapContainer<ioBlock *>::`vftable'
PUBLIC	??0?$ioPos32MapContainer@PAVioBlock@@@@QAE@XZ	; ioPos32MapContainer<ioBlock *>::ioPos32MapContainer<ioBlock *>
PUBLIC	??_R4?$ioPos32MapContainer@PAVioBlock@@@@6B@	; ioPos32MapContainer<ioBlock *>::`RTTI Complete Object Locator'
PUBLIC	??_R0?AV?$ioPos32MapContainer@PAVioBlock@@@@@8	; ioPos32MapContainer<ioBlock *> `RTTI Type Descriptor'
PUBLIC	??_R3?$ioPos32MapContainer@PAVioBlock@@@@8	; ioPos32MapContainer<ioBlock *>::`RTTI Class Hierarchy Descriptor'
PUBLIC	??_R2?$ioPos32MapContainer@PAVioBlock@@@@8	; ioPos32MapContainer<ioBlock *>::`RTTI Base Class Array'
PUBLIC	??_R1A@?0A@EA@?$ioPos32MapContainer@PAVioBlock@@@@8 ; ioPos32MapContainer<ioBlock *>::`RTTI Base Class Descriptor at (0,-1,0,64)'
PUBLIC	?Destroy@?$ioPos32MapContainer@PAVioBlock@@@@UAEXXZ ; ioPos32MapContainer<ioBlock *>::Destroy
PUBLIC	?AddElement@?$ioPos32MapContainer@PAVioBlock@@@@UAEXPAVioBlock@@H@Z ; ioPos32MapContainer<ioBlock *>::AddElement
PUBLIC	?AddElement@?$ioPos32MapContainer@PAVioBlock@@@@UAEXPAVioBlock@@VTilePos@@@Z ; ioPos32MapContainer<ioBlock *>::AddElement
PUBLIC	?GetElement@?$ioPos32MapContainer@PAVioBlock@@@@UAEPAVioBlock@@H@Z ; ioPos32MapContainer<ioBlock *>::GetElement
PUBLIC	?GetElement@?$ioPos32MapContainer@PAVioBlock@@@@UAEPAVioBlock@@VTilePos@@@Z ; ioPos32MapContainer<ioBlock *>::GetElement
PUBLIC	?RemoveElement@?$ioPos32MapContainer@PAVioBlock@@@@UAEXH@Z ; ioPos32MapContainer<ioBlock *>::RemoveElement
PUBLIC	?GetMax@?$ioPos32MapContainer@PAVioBlock@@@@UAEHXZ ; ioPos32MapContainer<ioBlock *>::GetMax
EXTRN	??_E?$ioPos32MapContainer@PAVioBlock@@@@UAEPAXI@Z:PROC ; ioPos32MapContainer<ioBlock *>::`vector deleting destructor'
;	COMDAT ??_R1A@?0A@EA@?$ioPos32MapContainer@PAVioBlock@@@@8
rdata$r	SEGMENT
??_R1A@?0A@EA@?$ioPos32MapContainer@PAVioBlock@@@@8 DD FLAT:??_R0?AV?$ioPos32MapContainer@PAVioBlock@@@@@8 ; ioPos32MapContainer<ioBlock *>::`RTTI Base Class Descriptor at (0,-1,0,64)'
	DD	01H
	DD	00H
	DD	0ffffffffH
	DD	00H
	DD	040H
	DD	FLAT:??_R3?$ioPos32MapContainer@PAVioBlock@@@@8
rdata$r	ENDS
;	COMDAT ??_R2?$ioPos32MapContainer@PAVioBlock@@@@8
rdata$r	SEGMENT
??_R2?$ioPos32MapContainer@PAVioBlock@@@@8 DD FLAT:??_R1A@?0A@EA@?$ioPos32MapContainer@PAVioBlock@@@@8 ; ioPos32MapContainer<ioBlock *>::`RTTI Base Class Array'
	DD	FLAT:??_R1A@?0A@EA@?$ioPosMapContainer@PAVioBlock@@@@8
rdata$r	ENDS
;	COMDAT ??_R3?$ioPos32MapContainer@PAVioBlock@@@@8
rdata$r	SEGMENT
??_R3?$ioPos32MapContainer@PAVioBlock@@@@8 DD 00H	; ioPos32MapContainer<ioBlock *>::`RTTI Class Hierarchy Descriptor'
	DD	00H
	DD	02H
	DD	FLAT:??_R2?$ioPos32MapContainer@PAVioBlock@@@@8
rdata$r	ENDS
;	COMDAT ??_R0?AV?$ioPos32MapContainer@PAVioBlock@@@@@8
_DATA	SEGMENT
??_R0?AV?$ioPos32MapContainer@PAVioBlock@@@@@8 DD FLAT:??_7type_info@@6B@ ; ioPos32MapContainer<ioBlock *> `RTTI Type Descriptor'
	DD	00H
	DB	'.?AV?$ioPos32MapContainer@PAVioBlock@@@@', 00H
_DATA	ENDS
;	COMDAT ??_R4?$ioPos32MapContainer@PAVioBlock@@@@6B@
rdata$r	SEGMENT
??_R4?$ioPos32MapContainer@PAVioBlock@@@@6B@ DD 00H	; ioPos32MapContainer<ioBlock *>::`RTTI Complete Object Locator'
	DD	00H
	DD	00H
	DD	FLAT:??_R0?AV?$ioPos32MapContainer@PAVioBlock@@@@@8
	DD	FLAT:??_R3?$ioPos32MapContainer@PAVioBlock@@@@8
rdata$r	ENDS
;	COMDAT ??_7?$ioPos32MapContainer@PAVioBlock@@@@6B@
CONST	SEGMENT
??_7?$ioPos32MapContainer@PAVioBlock@@@@6B@ DD FLAT:??_R4?$ioPos32MapContainer@PAVioBlock@@@@6B@ ; ioPos32MapContainer<ioBlock *>::`vftable'
	DD	FLAT:?Destroy@?$ioPos32MapContainer@PAVioBlock@@@@UAEXXZ
	DD	FLAT:?Init@?$ioPos32MapContainer@PAVioBlock@@@@UAEXXZ
	DD	FLAT:?AddElement@?$ioPos32MapContainer@PAVioBlock@@@@UAEXPAVioBlock@@H@Z
	DD	FLAT:?AddElement@?$ioPos32MapContainer@PAVioBlock@@@@UAEXPAVioBlock@@VTilePos@@@Z
	DD	FLAT:?GetElement@?$ioPos32MapContainer@PAVioBlock@@@@UAEPAVioBlock@@H@Z
	DD	FLAT:?GetElement@?$ioPos32MapContainer@PAVioBlock@@@@UAEPAVioBlock@@VTilePos@@@Z
	DD	FLAT:?RemoveElement@?$ioPos32MapContainer@PAVioBlock@@@@UAEXH@Z
	DD	FLAT:?GetMax@?$ioPos32MapContainer@PAVioBlock@@@@UAEHXZ
	DD	FLAT:??_E?$ioPos32MapContainer@PAVioBlock@@@@UAEPAXI@Z
; Function compile flags: /Ogsp
CONST	ENDS
;	COMDAT ??0?$ioPos32MapContainer@PAVioBlock@@@@QAE@XZ
_TEXT	SEGMENT
??0?$ioPos32MapContainer@PAVioBlock@@@@QAE@XZ PROC	; ioPos32MapContainer<ioBlock *>::ioPos32MapContainer<ioBlock *>, COMDAT
; _this$ = ecx

; 90   : 	ioPos32MapContainer(){ Init(); }

  00000	8b d1		 mov	 edx, ecx
  00002	57		 push	 edi
  00003	33 c0		 xor	 eax, eax
  00005	8d 7a 04	 lea	 edi, DWORD PTR [edx+4]
  00008	b9 00 04 00 00	 mov	 ecx, 1024		; 00000400H
  0000d	c7 02 00 00 00
	00		 mov	 DWORD PTR [edx], OFFSET ??_7?$ioPos32MapContainer@PAVioBlock@@@@6B@
  00013	f3 ab		 rep stosd
  00015	8b c2		 mov	 eax, edx
  00017	5f		 pop	 edi
  00018	c3		 ret	 0
??0?$ioPos32MapContainer@PAVioBlock@@@@QAE@XZ ENDP	; ioPos32MapContainer<ioBlock *>::ioPos32MapContainer<ioBlock *>
; Function compile flags: /Ogsp
_TEXT	ENDS
;	COMDAT ?Destroy@?$ioPos32MapContainer@PAVioBlock@@@@UAEXXZ
_TEXT	SEGMENT
?Destroy@?$ioPos32MapContainer@PAVioBlock@@@@UAEXXZ PROC ; ioPos32MapContainer<ioBlock *>::Destroy, COMDAT
; _this$ = ecx

; 31   : 	{

  00000	53		 push	 ebx
  00001	56		 push	 esi
  00002	57		 push	 edi

; 32   : 		for( int nZ = 0; nZ < PMCS_32; ++nZ )

  00003	6a 20		 push	 32			; 00000020H
  00005	8d 71 04	 lea	 esi, DWORD PTR [ecx+4]
  00008	5b		 pop	 ebx
$LL16@Destroy@2:

; 33   : 		{
; 34   : 			for( int nX = 0; nX < PMCS_32; ++nX )

  00009	6a 20		 push	 32			; 00000020H
  0000b	5f		 pop	 edi
$LL4@Destroy@2:

; 35   : 			{	
; 36   : 				SAFEDELETE( m_PosMap[nX + nZ * PMCS_32] );

  0000c	8b 0e		 mov	 ecx, DWORD PTR [esi]
  0000e	85 c9		 test	 ecx, ecx
  00010	74 0a		 je	 SHORT $LN3@Destroy@2
  00012	8b 01		 mov	 eax, DWORD PTR [ecx]
  00014	6a 01		 push	 1
  00016	ff 50 04	 call	 DWORD PTR [eax+4]
  00019	83 26 00	 and	 DWORD PTR [esi], 0
$LN3@Destroy@2:

; 33   : 		{
; 34   : 			for( int nX = 0; nX < PMCS_32; ++nX )

  0001c	83 c6 04	 add	 esi, 4
  0001f	4f		 dec	 edi
  00020	75 ea		 jne	 SHORT $LL4@Destroy@2

; 32   : 		for( int nZ = 0; nZ < PMCS_32; ++nZ )

  00022	4b		 dec	 ebx
  00023	75 e4		 jne	 SHORT $LL16@Destroy@2

; 37   : 			}
; 38   : 		}
; 39   : 	}

  00025	5f		 pop	 edi
  00026	5e		 pop	 esi
  00027	5b		 pop	 ebx
  00028	c3		 ret	 0
?Destroy@?$ioPos32MapContainer@PAVioBlock@@@@UAEXXZ ENDP ; ioPos32MapContainer<ioBlock *>::Destroy
; Function compile flags: /Ogsp
_TEXT	ENDS
;	COMDAT ?AddElement@?$ioPos32MapContainer@PAVioBlock@@@@UAEXPAVioBlock@@VTilePos@@@Z
_TEXT	SEGMENT
_pEntity$ = 8						; size = 4
_Pos$ = 12						; size = 16
?AddElement@?$ioPos32MapContainer@PAVioBlock@@@@UAEXPAVioBlock@@VTilePos@@@Z PROC ; ioPos32MapContainer<ioBlock *>::AddElement, COMDAT
; _this$ = ecx

; 54   : 	{

  00000	55		 push	 ebp
  00001	8b ec		 mov	 ebp, esp

; 55   : 		AddElement( pEntity, Pos.x + Pos.z * PMCS_32 );

  00003	8b 55 10	 mov	 edx, DWORD PTR _Pos$[ebp+4]
  00006	8b 01		 mov	 eax, DWORD PTR [ecx]
  00008	c1 e2 05	 shl	 edx, 5
  0000b	03 55 0c	 add	 edx, DWORD PTR _Pos$[ebp]
  0000e	52		 push	 edx
  0000f	ff 75 08	 push	 DWORD PTR _pEntity$[ebp]
  00012	ff 50 08	 call	 DWORD PTR [eax+8]

; 56   : 	}

  00015	5d		 pop	 ebp
  00016	c2 14 00	 ret	 20			; 00000014H
?AddElement@?$ioPos32MapContainer@PAVioBlock@@@@UAEXPAVioBlock@@VTilePos@@@Z ENDP ; ioPos32MapContainer<ioBlock *>::AddElement
; Function compile flags: /Ogsp
_TEXT	ENDS
;	COMDAT ?AddElement@?$ioPos32MapContainer@PAVioBlock@@@@UAEXPAVioBlock@@H@Z
_TEXT	SEGMENT
_pEntity$ = 8						; size = 4
_Index$ = 12						; size = 4
?AddElement@?$ioPos32MapContainer@PAVioBlock@@@@UAEXPAVioBlock@@H@Z PROC ; ioPos32MapContainer<ioBlock *>::AddElement, COMDAT
; _this$ = ecx

; 59   : 	{

  00000	55		 push	 ebp
  00001	8b ec		 mov	 ebp, esp
  00003	56		 push	 esi
  00004	57		 push	 edi

; 60   : 		if( COMPARE( Index, 0, GetMax() ) )

  00005	8b 7d 0c	 mov	 edi, DWORD PTR _Index$[ebp]
  00008	8b f1		 mov	 esi, ecx
  0000a	85 ff		 test	 edi, edi
  0000c	78 10		 js	 SHORT $LN1@AddElement@2
  0000e	8b 06		 mov	 eax, DWORD PTR [esi]
  00010	ff 50 1c	 call	 DWORD PTR [eax+28]
  00013	3b f8		 cmp	 edi, eax
  00015	7d 07		 jge	 SHORT $LN1@AddElement@2

; 61   : 			m_PosMap[Index] = pEntity;

  00017	8b 45 08	 mov	 eax, DWORD PTR _pEntity$[ebp]
  0001a	89 44 be 04	 mov	 DWORD PTR [esi+edi*4+4], eax
$LN1@AddElement@2:
  0001e	5f		 pop	 edi
  0001f	5e		 pop	 esi

; 62   : 	}

  00020	5d		 pop	 ebp
  00021	c2 08 00	 ret	 8
?AddElement@?$ioPos32MapContainer@PAVioBlock@@@@UAEXPAVioBlock@@H@Z ENDP ; ioPos32MapContainer<ioBlock *>::AddElement
; Function compile flags: /Ogsp
_TEXT	ENDS
;	COMDAT ?GetElement@?$ioPos32MapContainer@PAVioBlock@@@@UAEPAVioBlock@@VTilePos@@@Z
_TEXT	SEGMENT
_Pos$ = 8						; size = 16
?GetElement@?$ioPos32MapContainer@PAVioBlock@@@@UAEPAVioBlock@@VTilePos@@@Z PROC ; ioPos32MapContainer<ioBlock *>::GetElement, COMDAT
; _this$ = ecx

; 65   : 	{

  00000	55		 push	 ebp
  00001	8b ec		 mov	 ebp, esp

; 66   : 		return GetElement( Pos.x + Pos.z * PMCS_32 );

  00003	8b 55 0c	 mov	 edx, DWORD PTR _Pos$[ebp+4]
  00006	8b 01		 mov	 eax, DWORD PTR [ecx]
  00008	c1 e2 05	 shl	 edx, 5
  0000b	03 55 08	 add	 edx, DWORD PTR _Pos$[ebp]
  0000e	52		 push	 edx
  0000f	ff 50 10	 call	 DWORD PTR [eax+16]

; 67   : 	}

  00012	5d		 pop	 ebp
  00013	c2 10 00	 ret	 16			; 00000010H
?GetElement@?$ioPos32MapContainer@PAVioBlock@@@@UAEPAVioBlock@@VTilePos@@@Z ENDP ; ioPos32MapContainer<ioBlock *>::GetElement
; Function compile flags: /Ogsp
_TEXT	ENDS
;	COMDAT ?GetElement@?$ioPos32MapContainer@PAVioBlock@@@@UAEPAVioBlock@@H@Z
_TEXT	SEGMENT
_Index$ = 8						; size = 4
?GetElement@?$ioPos32MapContainer@PAVioBlock@@@@UAEPAVioBlock@@H@Z PROC ; ioPos32MapContainer<ioBlock *>::GetElement, COMDAT
; _this$ = ecx

; 70   : 	{

  00000	55		 push	 ebp
  00001	8b ec		 mov	 ebp, esp
  00003	56		 push	 esi
  00004	57		 push	 edi

; 71   : 		if( COMPARE( Index, 0, GetMax() ) )

  00005	8b 7d 08	 mov	 edi, DWORD PTR _Index$[ebp]
  00008	8b f1		 mov	 esi, ecx
  0000a	85 ff		 test	 edi, edi
  0000c	78 0f		 js	 SHORT $LN1@GetElement@2
  0000e	8b 06		 mov	 eax, DWORD PTR [esi]
  00010	ff 50 1c	 call	 DWORD PTR [eax+28]
  00013	3b f8		 cmp	 edi, eax
  00015	7d 06		 jge	 SHORT $LN1@GetElement@2

; 72   : 		{
; 73   : 			return m_PosMap[Index];

  00017	8b 44 be 04	 mov	 eax, DWORD PTR [esi+edi*4+4]
  0001b	eb 02		 jmp	 SHORT $LN2@GetElement@2
$LN1@GetElement@2:

; 74   : 		}
; 75   : 
; 76   : 		return NULL;

  0001d	33 c0		 xor	 eax, eax
$LN2@GetElement@2:
  0001f	5f		 pop	 edi
  00020	5e		 pop	 esi

; 77   : 	}

  00021	5d		 pop	 ebp
  00022	c2 04 00	 ret	 4
?GetElement@?$ioPos32MapContainer@PAVioBlock@@@@UAEPAVioBlock@@H@Z ENDP ; ioPos32MapContainer<ioBlock *>::GetElement
; Function compile flags: /Ogsp
_TEXT	ENDS
;	COMDAT ?RemoveElement@?$ioPos32MapContainer@PAVioBlock@@@@UAEXH@Z
_TEXT	SEGMENT
_Index$ = 8						; size = 4
?RemoveElement@?$ioPos32MapContainer@PAVioBlock@@@@UAEXH@Z PROC ; ioPos32MapContainer<ioBlock *>::RemoveElement, COMDAT
; _this$ = ecx

; 80   : 	{

  00000	55		 push	 ebp
  00001	8b ec		 mov	 ebp, esp
  00003	56		 push	 esi
  00004	57		 push	 edi

; 81   : 		if( COMPARE( Index, 0, GetMax() ) )

  00005	8b 7d 08	 mov	 edi, DWORD PTR _Index$[ebp]
  00008	8b f1		 mov	 esi, ecx
  0000a	85 ff		 test	 edi, edi
  0000c	78 0e		 js	 SHORT $LN1@RemoveElem@2
  0000e	8b 06		 mov	 eax, DWORD PTR [esi]
  00010	ff 50 1c	 call	 DWORD PTR [eax+28]
  00013	3b f8		 cmp	 edi, eax
  00015	7d 05		 jge	 SHORT $LN1@RemoveElem@2

; 82   : 		{
; 83   : 			m_PosMap[Index] = NULL;

  00017	83 64 be 04 00	 and	 DWORD PTR [esi+edi*4+4], 0
$LN1@RemoveElem@2:
  0001c	5f		 pop	 edi
  0001d	5e		 pop	 esi

; 84   : 		}
; 85   : 	}

  0001e	5d		 pop	 ebp
  0001f	c2 04 00	 ret	 4
?RemoveElement@?$ioPos32MapContainer@PAVioBlock@@@@UAEXH@Z ENDP ; ioPos32MapContainer<ioBlock *>::RemoveElement
; Function compile flags: /Ogsp
_TEXT	ENDS
;	COMDAT ?GetMax@?$ioPos32MapContainer@PAVioBlock@@@@UAEHXZ
_TEXT	SEGMENT
?GetMax@?$ioPos32MapContainer@PAVioBlock@@@@UAEHXZ PROC	; ioPos32MapContainer<ioBlock *>::GetMax, COMDAT
; _this$ = ecx

; 87   : 	virtual int GetMax(){ return PMCS_32 * PMCS_32; }

  00000	b8 00 04 00 00	 mov	 eax, 1024		; 00000400H
  00005	c3		 ret	 0
?GetMax@?$ioPos32MapContainer@PAVioBlock@@@@UAEHXZ ENDP	; ioPos32MapContainer<ioBlock *>::GetMax
_TEXT	ENDS
PUBLIC	??1?$ioPos32MapContainer@PAVioBlock@@@@UAE@XZ	; ioPos32MapContainer<ioBlock *>::~ioPos32MapContainer<ioBlock *>
; Function compile flags: /Ogsp
;	COMDAT ??1?$ioPos32MapContainer@PAVioBlock@@@@UAE@XZ
_TEXT	SEGMENT
??1?$ioPos32MapContainer@PAVioBlock@@@@UAE@XZ PROC	; ioPos32MapContainer<ioBlock *>::~ioPos32MapContainer<ioBlock *>, COMDAT
; _this$ = ecx

; 91   : 	virtual ~ioPos32MapContainer(){}

  00000	c7 01 00 00 00
	00		 mov	 DWORD PTR [ecx], OFFSET ??_7?$ioPos32MapContainer@PAVioBlock@@@@6B@
  00006	c3		 ret	 0
??1?$ioPos32MapContainer@PAVioBlock@@@@UAE@XZ ENDP	; ioPos32MapContainer<ioBlock *>::~ioPos32MapContainer<ioBlock *>
; Function compile flags: /Ogsp
_TEXT	ENDS
;	COMDAT ??_G?$ioPos32MapContainer@PAVioBlock@@@@UAEPAXI@Z
_TEXT	SEGMENT
___flags$ = 8						; size = 4
??_G?$ioPos32MapContainer@PAVioBlock@@@@UAEPAXI@Z PROC	; ioPos32MapContainer<ioBlock *>::`scalar deleting destructor', COMDAT
; _this$ = ecx
  00000	55		 push	 ebp
  00001	8b ec		 mov	 ebp, esp
  00003	f6 45 08 01	 test	 BYTE PTR ___flags$[ebp], 1
  00007	56		 push	 esi
  00008	8b f1		 mov	 esi, ecx
  0000a	c7 06 00 00 00
	00		 mov	 DWORD PTR [esi], OFFSET ??_7?$ioPos32MapContainer@PAVioBlock@@@@6B@
  00010	74 07		 je	 SHORT $LN1@scalar@4
  00012	56		 push	 esi
  00013	e8 00 00 00 00	 call	 ??3@YAXPAX@Z		; operator delete
  00018	59		 pop	 ecx
$LN1@scalar@4:
  00019	8b c6		 mov	 eax, esi
  0001b	5e		 pop	 esi
  0001c	5d		 pop	 ebp
  0001d	c2 04 00	 ret	 4
??_G?$ioPos32MapContainer@PAVioBlock@@@@UAEPAXI@Z ENDP	; ioPos32MapContainer<ioBlock *>::`scalar deleting destructor'
_TEXT	ENDS
PUBLIC	??_7?$ioPos64MapContainer@PAVioTileBlock@@@@6B@	; ioPos64MapContainer<ioTileBlock *>::`vftable'
PUBLIC	??0?$ioPos64MapContainer@PAVioTileBlock@@@@QAE@XZ ; ioPos64MapContainer<ioTileBlock *>::ioPos64MapContainer<ioTileBlock *>
PUBLIC	??_R4?$ioPos64MapContainer@PAVioTileBlock@@@@6B@ ; ioPos64MapContainer<ioTileBlock *>::`RTTI Complete Object Locator'
PUBLIC	??_R0?AV?$ioPos64MapContainer@PAVioTileBlock@@@@@8 ; ioPos64MapContainer<ioTileBlock *> `RTTI Type Descriptor'
PUBLIC	??_R3?$ioPos64MapContainer@PAVioTileBlock@@@@8	; ioPos64MapContainer<ioTileBlock *>::`RTTI Class Hierarchy Descriptor'
PUBLIC	??_R2?$ioPos64MapContainer@PAVioTileBlock@@@@8	; ioPos64MapContainer<ioTileBlock *>::`RTTI Base Class Array'
PUBLIC	??_R1A@?0A@EA@?$ioPos64MapContainer@PAVioTileBlock@@@@8 ; ioPos64MapContainer<ioTileBlock *>::`RTTI Base Class Descriptor at (0,-1,0,64)'
PUBLIC	?Destroy@?$ioPos64MapContainer@PAVioTileBlock@@@@UAEXXZ ; ioPos64MapContainer<ioTileBlock *>::Destroy
PUBLIC	?AddElement@?$ioPos64MapContainer@PAVioTileBlock@@@@UAEXPAVioTileBlock@@H@Z ; ioPos64MapContainer<ioTileBlock *>::AddElement
PUBLIC	?AddElement@?$ioPos64MapContainer@PAVioTileBlock@@@@UAEXPAVioTileBlock@@VTilePos@@@Z ; ioPos64MapContainer<ioTileBlock *>::AddElement
PUBLIC	?GetElement@?$ioPos64MapContainer@PAVioTileBlock@@@@UAEPAVioTileBlock@@H@Z ; ioPos64MapContainer<ioTileBlock *>::GetElement
PUBLIC	?GetElement@?$ioPos64MapContainer@PAVioTileBlock@@@@UAEPAVioTileBlock@@VTilePos@@@Z ; ioPos64MapContainer<ioTileBlock *>::GetElement
PUBLIC	?RemoveElement@?$ioPos64MapContainer@PAVioTileBlock@@@@UAEXH@Z ; ioPos64MapContainer<ioTileBlock *>::RemoveElement
PUBLIC	?GetMax@?$ioPos64MapContainer@PAVioTileBlock@@@@UAEHXZ ; ioPos64MapContainer<ioTileBlock *>::GetMax
EXTRN	??_E?$ioPos64MapContainer@PAVioTileBlock@@@@UAEPAXI@Z:PROC ; ioPos64MapContainer<ioTileBlock *>::`vector deleting destructor'
;	COMDAT ??_R1A@?0A@EA@?$ioPos64MapContainer@PAVioTileBlock@@@@8
rdata$r	SEGMENT
??_R1A@?0A@EA@?$ioPos64MapContainer@PAVioTileBlock@@@@8 DD FLAT:??_R0?AV?$ioPos64MapContainer@PAVioTileBlock@@@@@8 ; ioPos64MapContainer<ioTileBlock *>::`RTTI Base Class Descriptor at (0,-1,0,64)'
	DD	01H
	DD	00H
	DD	0ffffffffH
	DD	00H
	DD	040H
	DD	FLAT:??_R3?$ioPos64MapContainer@PAVioTileBlock@@@@8
rdata$r	ENDS
;	COMDAT ??_R2?$ioPos64MapContainer@PAVioTileBlock@@@@8
rdata$r	SEGMENT
??_R2?$ioPos64MapContainer@PAVioTileBlock@@@@8 DD FLAT:??_R1A@?0A@EA@?$ioPos64MapContainer@PAVioTileBlock@@@@8 ; ioPos64MapContainer<ioTileBlock *>::`RTTI Base Class Array'
	DD	FLAT:??_R1A@?0A@EA@?$ioPosMapContainer@PAVioTileBlock@@@@8
rdata$r	ENDS
;	COMDAT ??_R3?$ioPos64MapContainer@PAVioTileBlock@@@@8
rdata$r	SEGMENT
??_R3?$ioPos64MapContainer@PAVioTileBlock@@@@8 DD 00H	; ioPos64MapContainer<ioTileBlock *>::`RTTI Class Hierarchy Descriptor'
	DD	00H
	DD	02H
	DD	FLAT:??_R2?$ioPos64MapContainer@PAVioTileBlock@@@@8
rdata$r	ENDS
;	COMDAT ??_R0?AV?$ioPos64MapContainer@PAVioTileBlock@@@@@8
_DATA	SEGMENT
??_R0?AV?$ioPos64MapContainer@PAVioTileBlock@@@@@8 DD FLAT:??_7type_info@@6B@ ; ioPos64MapContainer<ioTileBlock *> `RTTI Type Descriptor'
	DD	00H
	DB	'.?AV?$ioPos64MapContainer@PAVioTileBlock@@@@', 00H
_DATA	ENDS
;	COMDAT ??_R4?$ioPos64MapContainer@PAVioTileBlock@@@@6B@
rdata$r	SEGMENT
??_R4?$ioPos64MapContainer@PAVioTileBlock@@@@6B@ DD 00H	; ioPos64MapContainer<ioTileBlock *>::`RTTI Complete Object Locator'
	DD	00H
	DD	00H
	DD	FLAT:??_R0?AV?$ioPos64MapContainer@PAVioTileBlock@@@@@8
	DD	FLAT:??_R3?$ioPos64MapContainer@PAVioTileBlock@@@@8
rdata$r	ENDS
;	COMDAT ??_7?$ioPos64MapContainer@PAVioTileBlock@@@@6B@
CONST	SEGMENT
??_7?$ioPos64MapContainer@PAVioTileBlock@@@@6B@ DD FLAT:??_R4?$ioPos64MapContainer@PAVioTileBlock@@@@6B@ ; ioPos64MapContainer<ioTileBlock *>::`vftable'
	DD	FLAT:?Destroy@?$ioPos64MapContainer@PAVioTileBlock@@@@UAEXXZ
	DD	FLAT:?Init@?$ioPos64MapContainer@PAVioTileBlock@@@@UAEXXZ
	DD	FLAT:?AddElement@?$ioPos64MapContainer@PAVioTileBlock@@@@UAEXPAVioTileBlock@@H@Z
	DD	FLAT:?AddElement@?$ioPos64MapContainer@PAVioTileBlock@@@@UAEXPAVioTileBlock@@VTilePos@@@Z
	DD	FLAT:?GetElement@?$ioPos64MapContainer@PAVioTileBlock@@@@UAEPAVioTileBlock@@H@Z
	DD	FLAT:?GetElement@?$ioPos64MapContainer@PAVioTileBlock@@@@UAEPAVioTileBlock@@VTilePos@@@Z
	DD	FLAT:?RemoveElement@?$ioPos64MapContainer@PAVioTileBlock@@@@UAEXH@Z
	DD	FLAT:?GetMax@?$ioPos64MapContainer@PAVioTileBlock@@@@UAEHXZ
	DD	FLAT:??_E?$ioPos64MapContainer@PAVioTileBlock@@@@UAEPAXI@Z
; Function compile flags: /Ogsp
CONST	ENDS
;	COMDAT ??0?$ioPos64MapContainer@PAVioTileBlock@@@@QAE@XZ
_TEXT	SEGMENT
??0?$ioPos64MapContainer@PAVioTileBlock@@@@QAE@XZ PROC	; ioPos64MapContainer<ioTileBlock *>::ioPos64MapContainer<ioTileBlock *>, COMDAT
; _this$ = ecx

; 161  : 	ioPos64MapContainer(){ Init(); }

  00000	8b d1		 mov	 edx, ecx
  00002	57		 push	 edi
  00003	33 c0		 xor	 eax, eax
  00005	8d 7a 04	 lea	 edi, DWORD PTR [edx+4]
  00008	b9 00 10 00 00	 mov	 ecx, 4096		; 00001000H
  0000d	c7 02 00 00 00
	00		 mov	 DWORD PTR [edx], OFFSET ??_7?$ioPos64MapContainer@PAVioTileBlock@@@@6B@
  00013	f3 ab		 rep stosd
  00015	8b c2		 mov	 eax, edx
  00017	5f		 pop	 edi
  00018	c3		 ret	 0
??0?$ioPos64MapContainer@PAVioTileBlock@@@@QAE@XZ ENDP	; ioPos64MapContainer<ioTileBlock *>::ioPos64MapContainer<ioTileBlock *>
; Function compile flags: /Ogsp
_TEXT	ENDS
;	COMDAT ?Destroy@?$ioPos64MapContainer@PAVioTileBlock@@@@UAEXXZ
_TEXT	SEGMENT
?Destroy@?$ioPos64MapContainer@PAVioTileBlock@@@@UAEXXZ PROC ; ioPos64MapContainer<ioTileBlock *>::Destroy, COMDAT
; _this$ = ecx

; 102  : 	{

  00000	53		 push	 ebx
  00001	56		 push	 esi
  00002	57		 push	 edi

; 103  : 		for( int nZ = 0; nZ < PMCS_64; ++nZ )

  00003	6a 40		 push	 64			; 00000040H
  00005	8d 71 04	 lea	 esi, DWORD PTR [ecx+4]
  00008	5b		 pop	 ebx
$LL16@Destroy@3:

; 104  : 		{
; 105  : 			for( int nX = 0; nX < PMCS_64; ++nX )

  00009	6a 40		 push	 64			; 00000040H
  0000b	5f		 pop	 edi
$LL4@Destroy@3:

; 106  : 			{	
; 107  : 				SAFEDELETE( m_PosMap[nX + nZ * PMCS_64] );

  0000c	8b 0e		 mov	 ecx, DWORD PTR [esi]
  0000e	85 c9		 test	 ecx, ecx
  00010	74 0a		 je	 SHORT $LN3@Destroy@3
  00012	8b 01		 mov	 eax, DWORD PTR [ecx]
  00014	6a 01		 push	 1
  00016	ff 50 04	 call	 DWORD PTR [eax+4]
  00019	83 26 00	 and	 DWORD PTR [esi], 0
$LN3@Destroy@3:

; 104  : 		{
; 105  : 			for( int nX = 0; nX < PMCS_64; ++nX )

  0001c	83 c6 04	 add	 esi, 4
  0001f	4f		 dec	 edi
  00020	75 ea		 jne	 SHORT $LL4@Destroy@3

; 103  : 		for( int nZ = 0; nZ < PMCS_64; ++nZ )

  00022	4b		 dec	 ebx
  00023	75 e4		 jne	 SHORT $LL16@Destroy@3

; 108  : 			}
; 109  : 		}
; 110  : 	}

  00025	5f		 pop	 edi
  00026	5e		 pop	 esi
  00027	5b		 pop	 ebx
  00028	c3		 ret	 0
?Destroy@?$ioPos64MapContainer@PAVioTileBlock@@@@UAEXXZ ENDP ; ioPos64MapContainer<ioTileBlock *>::Destroy
; Function compile flags: /Ogsp
_TEXT	ENDS
;	COMDAT ?AddElement@?$ioPos64MapContainer@PAVioTileBlock@@@@UAEXPAVioTileBlock@@VTilePos@@@Z
_TEXT	SEGMENT
_pEntity$ = 8						; size = 4
_Pos$ = 12						; size = 16
?AddElement@?$ioPos64MapContainer@PAVioTileBlock@@@@UAEXPAVioTileBlock@@VTilePos@@@Z PROC ; ioPos64MapContainer<ioTileBlock *>::AddElement, COMDAT
; _this$ = ecx

; 125  : 	{

  00000	55		 push	 ebp
  00001	8b ec		 mov	 ebp, esp

; 126  : 		AddElement( pEntity, Pos.x + Pos.z * PMCS_64 );

  00003	8b 55 10	 mov	 edx, DWORD PTR _Pos$[ebp+4]
  00006	8b 01		 mov	 eax, DWORD PTR [ecx]
  00008	c1 e2 06	 shl	 edx, 6
  0000b	03 55 0c	 add	 edx, DWORD PTR _Pos$[ebp]
  0000e	52		 push	 edx
  0000f	ff 75 08	 push	 DWORD PTR _pEntity$[ebp]
  00012	ff 50 08	 call	 DWORD PTR [eax+8]

; 127  : 	}

  00015	5d		 pop	 ebp
  00016	c2 14 00	 ret	 20			; 00000014H
?AddElement@?$ioPos64MapContainer@PAVioTileBlock@@@@UAEXPAVioTileBlock@@VTilePos@@@Z ENDP ; ioPos64MapContainer<ioTileBlock *>::AddElement
; Function compile flags: /Ogsp
_TEXT	ENDS
;	COMDAT ?AddElement@?$ioPos64MapContainer@PAVioTileBlock@@@@UAEXPAVioTileBlock@@H@Z
_TEXT	SEGMENT
_pEntity$ = 8						; size = 4
_Index$ = 12						; size = 4
?AddElement@?$ioPos64MapContainer@PAVioTileBlock@@@@UAEXPAVioTileBlock@@H@Z PROC ; ioPos64MapContainer<ioTileBlock *>::AddElement, COMDAT
; _this$ = ecx

; 130  : 	{

  00000	55		 push	 ebp
  00001	8b ec		 mov	 ebp, esp
  00003	56		 push	 esi
  00004	57		 push	 edi

; 131  : 		if( COMPARE( Index, 0, GetMax() ) )

  00005	8b 7d 0c	 mov	 edi, DWORD PTR _Index$[ebp]
  00008	8b f1		 mov	 esi, ecx
  0000a	85 ff		 test	 edi, edi
  0000c	78 10		 js	 SHORT $LN1@AddElement@3
  0000e	8b 06		 mov	 eax, DWORD PTR [esi]
  00010	ff 50 1c	 call	 DWORD PTR [eax+28]
  00013	3b f8		 cmp	 edi, eax
  00015	7d 07		 jge	 SHORT $LN1@AddElement@3

; 132  : 			m_PosMap[Index] = pEntity;

  00017	8b 45 08	 mov	 eax, DWORD PTR _pEntity$[ebp]
  0001a	89 44 be 04	 mov	 DWORD PTR [esi+edi*4+4], eax
$LN1@AddElement@3:
  0001e	5f		 pop	 edi
  0001f	5e		 pop	 esi

; 133  : 	}

  00020	5d		 pop	 ebp
  00021	c2 08 00	 ret	 8
?AddElement@?$ioPos64MapContainer@PAVioTileBlock@@@@UAEXPAVioTileBlock@@H@Z ENDP ; ioPos64MapContainer<ioTileBlock *>::AddElement
; Function compile flags: /Ogsp
_TEXT	ENDS
;	COMDAT ?GetElement@?$ioPos64MapContainer@PAVioTileBlock@@@@UAEPAVioTileBlock@@VTilePos@@@Z
_TEXT	SEGMENT
_Pos$ = 8						; size = 16
?GetElement@?$ioPos64MapContainer@PAVioTileBlock@@@@UAEPAVioTileBlock@@VTilePos@@@Z PROC ; ioPos64MapContainer<ioTileBlock *>::GetElement, COMDAT
; _this$ = ecx

; 136  : 	{

  00000	55		 push	 ebp
  00001	8b ec		 mov	 ebp, esp

; 137  : 		return GetElement( Pos.x + Pos.z * PMCS_64 );

  00003	8b 55 0c	 mov	 edx, DWORD PTR _Pos$[ebp+4]
  00006	8b 01		 mov	 eax, DWORD PTR [ecx]
  00008	c1 e2 06	 shl	 edx, 6
  0000b	03 55 08	 add	 edx, DWORD PTR _Pos$[ebp]
  0000e	52		 push	 edx
  0000f	ff 50 10	 call	 DWORD PTR [eax+16]

; 138  : 	}

  00012	5d		 pop	 ebp
  00013	c2 10 00	 ret	 16			; 00000010H
?GetElement@?$ioPos64MapContainer@PAVioTileBlock@@@@UAEPAVioTileBlock@@VTilePos@@@Z ENDP ; ioPos64MapContainer<ioTileBlock *>::GetElement
; Function compile flags: /Ogsp
_TEXT	ENDS
;	COMDAT ?GetElement@?$ioPos64MapContainer@PAVioTileBlock@@@@UAEPAVioTileBlock@@H@Z
_TEXT	SEGMENT
_Index$ = 8						; size = 4
?GetElement@?$ioPos64MapContainer@PAVioTileBlock@@@@UAEPAVioTileBlock@@H@Z PROC ; ioPos64MapContainer<ioTileBlock *>::GetElement, COMDAT
; _this$ = ecx

; 141  : 	{

  00000	55		 push	 ebp
  00001	8b ec		 mov	 ebp, esp
  00003	56		 push	 esi
  00004	57		 push	 edi

; 142  : 		if( COMPARE( Index, 0, GetMax() ) )

  00005	8b 7d 08	 mov	 edi, DWORD PTR _Index$[ebp]
  00008	8b f1		 mov	 esi, ecx
  0000a	85 ff		 test	 edi, edi
  0000c	78 0f		 js	 SHORT $LN1@GetElement@3
  0000e	8b 06		 mov	 eax, DWORD PTR [esi]
  00010	ff 50 1c	 call	 DWORD PTR [eax+28]
  00013	3b f8		 cmp	 edi, eax
  00015	7d 06		 jge	 SHORT $LN1@GetElement@3

; 143  : 		{
; 144  : 			return m_PosMap[Index];

  00017	8b 44 be 04	 mov	 eax, DWORD PTR [esi+edi*4+4]
  0001b	eb 02		 jmp	 SHORT $LN2@GetElement@3
$LN1@GetElement@3:

; 145  : 		}
; 146  : 
; 147  : 		return NULL;

  0001d	33 c0		 xor	 eax, eax
$LN2@GetElement@3:
  0001f	5f		 pop	 edi
  00020	5e		 pop	 esi

; 148  : 	}

  00021	5d		 pop	 ebp
  00022	c2 04 00	 ret	 4
?GetElement@?$ioPos64MapContainer@PAVioTileBlock@@@@UAEPAVioTileBlock@@H@Z ENDP ; ioPos64MapContainer<ioTileBlock *>::GetElement
; Function compile flags: /Ogsp
_TEXT	ENDS
;	COMDAT ?RemoveElement@?$ioPos64MapContainer@PAVioTileBlock@@@@UAEXH@Z
_TEXT	SEGMENT
_Index$ = 8						; size = 4
?RemoveElement@?$ioPos64MapContainer@PAVioTileBlock@@@@UAEXH@Z PROC ; ioPos64MapContainer<ioTileBlock *>::RemoveElement, COMDAT
; _this$ = ecx

; 151  : 	{

  00000	55		 push	 ebp
  00001	8b ec		 mov	 ebp, esp
  00003	56		 push	 esi
  00004	57		 push	 edi

; 152  : 		if( COMPARE( Index, 0, GetMax() ) )

  00005	8b 7d 08	 mov	 edi, DWORD PTR _Index$[ebp]
  00008	8b f1		 mov	 esi, ecx
  0000a	85 ff		 test	 edi, edi
  0000c	78 0e		 js	 SHORT $LN1@RemoveElem@3
  0000e	8b 06		 mov	 eax, DWORD PTR [esi]
  00010	ff 50 1c	 call	 DWORD PTR [eax+28]
  00013	3b f8		 cmp	 edi, eax
  00015	7d 05		 jge	 SHORT $LN1@RemoveElem@3

; 153  : 		{
; 154  : 			m_PosMap[Index] = NULL;

  00017	83 64 be 04 00	 and	 DWORD PTR [esi+edi*4+4], 0
$LN1@RemoveElem@3:
  0001c	5f		 pop	 edi
  0001d	5e		 pop	 esi

; 155  : 		}
; 156  : 	}

  0001e	5d		 pop	 ebp
  0001f	c2 04 00	 ret	 4
?RemoveElement@?$ioPos64MapContainer@PAVioTileBlock@@@@UAEXH@Z ENDP ; ioPos64MapContainer<ioTileBlock *>::RemoveElement
; Function compile flags: /Ogsp
_TEXT	ENDS
;	COMDAT ?GetMax@?$ioPos64MapContainer@PAVioTileBlock@@@@UAEHXZ
_TEXT	SEGMENT
?GetMax@?$ioPos64MapContainer@PAVioTileBlock@@@@UAEHXZ PROC ; ioPos64MapContainer<ioTileBlock *>::GetMax, COMDAT
; _this$ = ecx

; 158  : 	virtual int GetMax(){ return PMCS_64 * PMCS_64; }

  00000	b8 00 10 00 00	 mov	 eax, 4096		; 00001000H
  00005	c3		 ret	 0
?GetMax@?$ioPos64MapContainer@PAVioTileBlock@@@@UAEHXZ ENDP ; ioPos64MapContainer<ioTileBlock *>::GetMax
_TEXT	ENDS
PUBLIC	??1?$ioPos64MapContainer@PAVioTileBlock@@@@UAE@XZ ; ioPos64MapContainer<ioTileBlock *>::~ioPos64MapContainer<ioTileBlock *>
; Function compile flags: /Ogsp
;	COMDAT ??1?$ioPos64MapContainer@PAVioTileBlock@@@@UAE@XZ
_TEXT	SEGMENT
??1?$ioPos64MapContainer@PAVioTileBlock@@@@UAE@XZ PROC	; ioPos64MapContainer<ioTileBlock *>::~ioPos64MapContainer<ioTileBlock *>, COMDAT
; _this$ = ecx

; 162  : 	virtual ~ioPos64MapContainer(){}

  00000	c7 01 00 00 00
	00		 mov	 DWORD PTR [ecx], OFFSET ??_7?$ioPos64MapContainer@PAVioTileBlock@@@@6B@
  00006	c3		 ret	 0
??1?$ioPos64MapContainer@PAVioTileBlock@@@@UAE@XZ ENDP	; ioPos64MapContainer<ioTileBlock *>::~ioPos64MapContainer<ioTileBlock *>
; Function compile flags: /Ogsp
_TEXT	ENDS
;	COMDAT ??_G?$ioPos64MapContainer@PAVioTileBlock@@@@UAEPAXI@Z
_TEXT	SEGMENT
___flags$ = 8						; size = 4
??_G?$ioPos64MapContainer@PAVioTileBlock@@@@UAEPAXI@Z PROC ; ioPos64MapContainer<ioTileBlock *>::`scalar deleting destructor', COMDAT
; _this$ = ecx
  00000	55		 push	 ebp
  00001	8b ec		 mov	 ebp, esp
  00003	f6 45 08 01	 test	 BYTE PTR ___flags$[ebp], 1
  00007	56		 push	 esi
  00008	8b f1		 mov	 esi, ecx
  0000a	c7 06 00 00 00
	00		 mov	 DWORD PTR [esi], OFFSET ??_7?$ioPos64MapContainer@PAVioTileBlock@@@@6B@
  00010	74 07		 je	 SHORT $LN1@scalar@5
  00012	56		 push	 esi
  00013	e8 00 00 00 00	 call	 ??3@YAXPAX@Z		; operator delete
  00018	59		 pop	 ecx
$LN1@scalar@5:
  00019	8b c6		 mov	 eax, esi
  0001b	5e		 pop	 esi
  0001c	5d		 pop	 ebp
  0001d	c2 04 00	 ret	 4
??_G?$ioPos64MapContainer@PAVioTileBlock@@@@UAEPAXI@Z ENDP ; ioPos64MapContainer<ioTileBlock *>::`scalar deleting destructor'
_TEXT	ENDS
PUBLIC	??_7?$ioPos32MapContainer@PAVioTileBlock@@@@6B@	; ioPos32MapContainer<ioTileBlock *>::`vftable'
PUBLIC	??0?$ioPos32MapContainer@PAVioTileBlock@@@@QAE@XZ ; ioPos32MapContainer<ioTileBlock *>::ioPos32MapContainer<ioTileBlock *>
PUBLIC	??_R4?$ioPos32MapContainer@PAVioTileBlock@@@@6B@ ; ioPos32MapContainer<ioTileBlock *>::`RTTI Complete Object Locator'
PUBLIC	??_R0?AV?$ioPos32MapContainer@PAVioTileBlock@@@@@8 ; ioPos32MapContainer<ioTileBlock *> `RTTI Type Descriptor'
PUBLIC	??_R3?$ioPos32MapContainer@PAVioTileBlock@@@@8	; ioPos32MapContainer<ioTileBlock *>::`RTTI Class Hierarchy Descriptor'
PUBLIC	??_R2?$ioPos32MapContainer@PAVioTileBlock@@@@8	; ioPos32MapContainer<ioTileBlock *>::`RTTI Base Class Array'
PUBLIC	??_R1A@?0A@EA@?$ioPos32MapContainer@PAVioTileBlock@@@@8 ; ioPos32MapContainer<ioTileBlock *>::`RTTI Base Class Descriptor at (0,-1,0,64)'
PUBLIC	?Destroy@?$ioPos32MapContainer@PAVioTileBlock@@@@UAEXXZ ; ioPos32MapContainer<ioTileBlock *>::Destroy
PUBLIC	?AddElement@?$ioPos32MapContainer@PAVioTileBlock@@@@UAEXPAVioTileBlock@@H@Z ; ioPos32MapContainer<ioTileBlock *>::AddElement
PUBLIC	?AddElement@?$ioPos32MapContainer@PAVioTileBlock@@@@UAEXPAVioTileBlock@@VTilePos@@@Z ; ioPos32MapContainer<ioTileBlock *>::AddElement
PUBLIC	?GetElement@?$ioPos32MapContainer@PAVioTileBlock@@@@UAEPAVioTileBlock@@H@Z ; ioPos32MapContainer<ioTileBlock *>::GetElement
PUBLIC	?GetElement@?$ioPos32MapContainer@PAVioTileBlock@@@@UAEPAVioTileBlock@@VTilePos@@@Z ; ioPos32MapContainer<ioTileBlock *>::GetElement
PUBLIC	?RemoveElement@?$ioPos32MapContainer@PAVioTileBlock@@@@UAEXH@Z ; ioPos32MapContainer<ioTileBlock *>::RemoveElement
PUBLIC	?GetMax@?$ioPos32MapContainer@PAVioTileBlock@@@@UAEHXZ ; ioPos32MapContainer<ioTileBlock *>::GetMax
EXTRN	??_E?$ioPos32MapContainer@PAVioTileBlock@@@@UAEPAXI@Z:PROC ; ioPos32MapContainer<ioTileBlock *>::`vector deleting destructor'
;	COMDAT ??_R1A@?0A@EA@?$ioPos32MapContainer@PAVioTileBlock@@@@8
rdata$r	SEGMENT
??_R1A@?0A@EA@?$ioPos32MapContainer@PAVioTileBlock@@@@8 DD FLAT:??_R0?AV?$ioPos32MapContainer@PAVioTileBlock@@@@@8 ; ioPos32MapContainer<ioTileBlock *>::`RTTI Base Class Descriptor at (0,-1,0,64)'
	DD	01H
	DD	00H
	DD	0ffffffffH
	DD	00H
	DD	040H
	DD	FLAT:??_R3?$ioPos32MapContainer@PAVioTileBlock@@@@8
rdata$r	ENDS
;	COMDAT ??_R2?$ioPos32MapContainer@PAVioTileBlock@@@@8
rdata$r	SEGMENT
??_R2?$ioPos32MapContainer@PAVioTileBlock@@@@8 DD FLAT:??_R1A@?0A@EA@?$ioPos32MapContainer@PAVioTileBlock@@@@8 ; ioPos32MapContainer<ioTileBlock *>::`RTTI Base Class Array'
	DD	FLAT:??_R1A@?0A@EA@?$ioPosMapContainer@PAVioTileBlock@@@@8
rdata$r	ENDS
;	COMDAT ??_R3?$ioPos32MapContainer@PAVioTileBlock@@@@8
rdata$r	SEGMENT
??_R3?$ioPos32MapContainer@PAVioTileBlock@@@@8 DD 00H	; ioPos32MapContainer<ioTileBlock *>::`RTTI Class Hierarchy Descriptor'
	DD	00H
	DD	02H
	DD	FLAT:??_R2?$ioPos32MapContainer@PAVioTileBlock@@@@8
rdata$r	ENDS
;	COMDAT ??_R0?AV?$ioPos32MapContainer@PAVioTileBlock@@@@@8
_DATA	SEGMENT
??_R0?AV?$ioPos32MapContainer@PAVioTileBlock@@@@@8 DD FLAT:??_7type_info@@6B@ ; ioPos32MapContainer<ioTileBlock *> `RTTI Type Descriptor'
	DD	00H
	DB	'.?AV?$ioPos32MapContainer@PAVioTileBlock@@@@', 00H
_DATA	ENDS
;	COMDAT ??_R4?$ioPos32MapContainer@PAVioTileBlock@@@@6B@
rdata$r	SEGMENT
??_R4?$ioPos32MapContainer@PAVioTileBlock@@@@6B@ DD 00H	; ioPos32MapContainer<ioTileBlock *>::`RTTI Complete Object Locator'
	DD	00H
	DD	00H
	DD	FLAT:??_R0?AV?$ioPos32MapContainer@PAVioTileBlock@@@@@8
	DD	FLAT:??_R3?$ioPos32MapContainer@PAVioTileBlock@@@@8
rdata$r	ENDS
;	COMDAT ??_7?$ioPos32MapContainer@PAVioTileBlock@@@@6B@
CONST	SEGMENT
??_7?$ioPos32MapContainer@PAVioTileBlock@@@@6B@ DD FLAT:??_R4?$ioPos32MapContainer@PAVioTileBlock@@@@6B@ ; ioPos32MapContainer<ioTileBlock *>::`vftable'
	DD	FLAT:?Destroy@?$ioPos32MapContainer@PAVioTileBlock@@@@UAEXXZ
	DD	FLAT:?Init@?$ioPos32MapContainer@PAVioTileBlock@@@@UAEXXZ
	DD	FLAT:?AddElement@?$ioPos32MapContainer@PAVioTileBlock@@@@UAEXPAVioTileBlock@@H@Z
	DD	FLAT:?AddElement@?$ioPos32MapContainer@PAVioTileBlock@@@@UAEXPAVioTileBlock@@VTilePos@@@Z
	DD	FLAT:?GetElement@?$ioPos32MapContainer@PAVioTileBlock@@@@UAEPAVioTileBlock@@H@Z
	DD	FLAT:?GetElement@?$ioPos32MapContainer@PAVioTileBlock@@@@UAEPAVioTileBlock@@VTilePos@@@Z
	DD	FLAT:?RemoveElement@?$ioPos32MapContainer@PAVioTileBlock@@@@UAEXH@Z
	DD	FLAT:?GetMax@?$ioPos32MapContainer@PAVioTileBlock@@@@UAEHXZ
	DD	FLAT:??_E?$ioPos32MapContainer@PAVioTileBlock@@@@UAEPAXI@Z
; Function compile flags: /Ogsp
CONST	ENDS
;	COMDAT ??0?$ioPos32MapContainer@PAVioTileBlock@@@@QAE@XZ
_TEXT	SEGMENT
??0?$ioPos32MapContainer@PAVioTileBlock@@@@QAE@XZ PROC	; ioPos32MapContainer<ioTileBlock *>::ioPos32MapContainer<ioTileBlock *>, COMDAT
; _this$ = ecx

; 90   : 	ioPos32MapContainer(){ Init(); }

  00000	8b d1		 mov	 edx, ecx
  00002	57		 push	 edi
  00003	33 c0		 xor	 eax, eax
  00005	8d 7a 04	 lea	 edi, DWORD PTR [edx+4]
  00008	b9 00 04 00 00	 mov	 ecx, 1024		; 00000400H
  0000d	c7 02 00 00 00
	00		 mov	 DWORD PTR [edx], OFFSET ??_7?$ioPos32MapContainer@PAVioTileBlock@@@@6B@
  00013	f3 ab		 rep stosd
  00015	8b c2		 mov	 eax, edx
  00017	5f		 pop	 edi
  00018	c3		 ret	 0
??0?$ioPos32MapContainer@PAVioTileBlock@@@@QAE@XZ ENDP	; ioPos32MapContainer<ioTileBlock *>::ioPos32MapContainer<ioTileBlock *>
; Function compile flags: /Ogsp
_TEXT	ENDS
;	COMDAT ?Destroy@?$ioPos32MapContainer@PAVioTileBlock@@@@UAEXXZ
_TEXT	SEGMENT
?Destroy@?$ioPos32MapContainer@PAVioTileBlock@@@@UAEXXZ PROC ; ioPos32MapContainer<ioTileBlock *>::Destroy, COMDAT
; _this$ = ecx

; 31   : 	{

  00000	53		 push	 ebx
  00001	56		 push	 esi
  00002	57		 push	 edi

; 32   : 		for( int nZ = 0; nZ < PMCS_32; ++nZ )

  00003	6a 20		 push	 32			; 00000020H
  00005	8d 71 04	 lea	 esi, DWORD PTR [ecx+4]
  00008	5b		 pop	 ebx
$LL16@Destroy@4:

; 33   : 		{
; 34   : 			for( int nX = 0; nX < PMCS_32; ++nX )

  00009	6a 20		 push	 32			; 00000020H
  0000b	5f		 pop	 edi
$LL4@Destroy@4:

; 35   : 			{	
; 36   : 				SAFEDELETE( m_PosMap[nX + nZ * PMCS_32] );

  0000c	8b 0e		 mov	 ecx, DWORD PTR [esi]
  0000e	85 c9		 test	 ecx, ecx
  00010	74 0a		 je	 SHORT $LN3@Destroy@4
  00012	8b 01		 mov	 eax, DWORD PTR [ecx]
  00014	6a 01		 push	 1
  00016	ff 50 04	 call	 DWORD PTR [eax+4]
  00019	83 26 00	 and	 DWORD PTR [esi], 0
$LN3@Destroy@4:

; 33   : 		{
; 34   : 			for( int nX = 0; nX < PMCS_32; ++nX )

  0001c	83 c6 04	 add	 esi, 4
  0001f	4f		 dec	 edi
  00020	75 ea		 jne	 SHORT $LL4@Destroy@4

; 32   : 		for( int nZ = 0; nZ < PMCS_32; ++nZ )

  00022	4b		 dec	 ebx
  00023	75 e4		 jne	 SHORT $LL16@Destroy@4

; 37   : 			}
; 38   : 		}
; 39   : 	}

  00025	5f		 pop	 edi
  00026	5e		 pop	 esi
  00027	5b		 pop	 ebx
  00028	c3		 ret	 0
?Destroy@?$ioPos32MapContainer@PAVioTileBlock@@@@UAEXXZ ENDP ; ioPos32MapContainer<ioTileBlock *>::Destroy
; Function compile flags: /Ogsp
_TEXT	ENDS
;	COMDAT ?AddElement@?$ioPos32MapContainer@PAVioTileBlock@@@@UAEXPAVioTileBlock@@VTilePos@@@Z
_TEXT	SEGMENT
_pEntity$ = 8						; size = 4
_Pos$ = 12						; size = 16
?AddElement@?$ioPos32MapContainer@PAVioTileBlock@@@@UAEXPAVioTileBlock@@VTilePos@@@Z PROC ; ioPos32MapContainer<ioTileBlock *>::AddElement, COMDAT
; _this$ = ecx

; 54   : 	{

  00000	55		 push	 ebp
  00001	8b ec		 mov	 ebp, esp

; 55   : 		AddElement( pEntity, Pos.x + Pos.z * PMCS_32 );

  00003	8b 55 10	 mov	 edx, DWORD PTR _Pos$[ebp+4]
  00006	8b 01		 mov	 eax, DWORD PTR [ecx]
  00008	c1 e2 05	 shl	 edx, 5
  0000b	03 55 0c	 add	 edx, DWORD PTR _Pos$[ebp]
  0000e	52		 push	 edx
  0000f	ff 75 08	 push	 DWORD PTR _pEntity$[ebp]
  00012	ff 50 08	 call	 DWORD PTR [eax+8]

; 56   : 	}

  00015	5d		 pop	 ebp
  00016	c2 14 00	 ret	 20			; 00000014H
?AddElement@?$ioPos32MapContainer@PAVioTileBlock@@@@UAEXPAVioTileBlock@@VTilePos@@@Z ENDP ; ioPos32MapContainer<ioTileBlock *>::AddElement
; Function compile flags: /Ogsp
_TEXT	ENDS
;	COMDAT ?AddElement@?$ioPos32MapContainer@PAVioTileBlock@@@@UAEXPAVioTileBlock@@H@Z
_TEXT	SEGMENT
_pEntity$ = 8						; size = 4
_Index$ = 12						; size = 4
?AddElement@?$ioPos32MapContainer@PAVioTileBlock@@@@UAEXPAVioTileBlock@@H@Z PROC ; ioPos32MapContainer<ioTileBlock *>::AddElement, COMDAT
; _this$ = ecx

; 59   : 	{

  00000	55		 push	 ebp
  00001	8b ec		 mov	 ebp, esp
  00003	56		 push	 esi
  00004	57		 push	 edi

; 60   : 		if( COMPARE( Index, 0, GetMax() ) )

  00005	8b 7d 0c	 mov	 edi, DWORD PTR _Index$[ebp]
  00008	8b f1		 mov	 esi, ecx
  0000a	85 ff		 test	 edi, edi
  0000c	78 10		 js	 SHORT $LN1@AddElement@4
  0000e	8b 06		 mov	 eax, DWORD PTR [esi]
  00010	ff 50 1c	 call	 DWORD PTR [eax+28]
  00013	3b f8		 cmp	 edi, eax
  00015	7d 07		 jge	 SHORT $LN1@AddElement@4

; 61   : 			m_PosMap[Index] = pEntity;

  00017	8b 45 08	 mov	 eax, DWORD PTR _pEntity$[ebp]
  0001a	89 44 be 04	 mov	 DWORD PTR [esi+edi*4+4], eax
$LN1@AddElement@4:
  0001e	5f		 pop	 edi
  0001f	5e		 pop	 esi

; 62   : 	}

  00020	5d		 pop	 ebp
  00021	c2 08 00	 ret	 8
?AddElement@?$ioPos32MapContainer@PAVioTileBlock@@@@UAEXPAVioTileBlock@@H@Z ENDP ; ioPos32MapContainer<ioTileBlock *>::AddElement
; Function compile flags: /Ogsp
_TEXT	ENDS
;	COMDAT ?GetElement@?$ioPos32MapContainer@PAVioTileBlock@@@@UAEPAVioTileBlock@@VTilePos@@@Z
_TEXT	SEGMENT
_Pos$ = 8						; size = 16
?GetElement@?$ioPos32MapContainer@PAVioTileBlock@@@@UAEPAVioTileBlock@@VTilePos@@@Z PROC ; ioPos32MapContainer<ioTileBlock *>::GetElement, COMDAT
; _this$ = ecx

; 65   : 	{

  00000	55		 push	 ebp
  00001	8b ec		 mov	 ebp, esp

; 66   : 		return GetElement( Pos.x + Pos.z * PMCS_32 );

  00003	8b 55 0c	 mov	 edx, DWORD PTR _Pos$[ebp+4]
  00006	8b 01		 mov	 eax, DWORD PTR [ecx]
  00008	c1 e2 05	 shl	 edx, 5
  0000b	03 55 08	 add	 edx, DWORD PTR _Pos$[ebp]
  0000e	52		 push	 edx
  0000f	ff 50 10	 call	 DWORD PTR [eax+16]

; 67   : 	}

  00012	5d		 pop	 ebp
  00013	c2 10 00	 ret	 16			; 00000010H
?GetElement@?$ioPos32MapContainer@PAVioTileBlock@@@@UAEPAVioTileBlock@@VTilePos@@@Z ENDP ; ioPos32MapContainer<ioTileBlock *>::GetElement
; Function compile flags: /Ogsp
_TEXT	ENDS
;	COMDAT ?GetElement@?$ioPos32MapContainer@PAVioTileBlock@@@@UAEPAVioTileBlock@@H@Z
_TEXT	SEGMENT
_Index$ = 8						; size = 4
?GetElement@?$ioPos32MapContainer@PAVioTileBlock@@@@UAEPAVioTileBlock@@H@Z PROC ; ioPos32MapContainer<ioTileBlock *>::GetElement, COMDAT
; _this$ = ecx

; 70   : 	{

  00000	55		 push	 ebp
  00001	8b ec		 mov	 ebp, esp
  00003	56		 push	 esi
  00004	57		 push	 edi

; 71   : 		if( COMPARE( Index, 0, GetMax() ) )

  00005	8b 7d 08	 mov	 edi, DWORD PTR _Index$[ebp]
  00008	8b f1		 mov	 esi, ecx
  0000a	85 ff		 test	 edi, edi
  0000c	78 0f		 js	 SHORT $LN1@GetElement@4
  0000e	8b 06		 mov	 eax, DWORD PTR [esi]
  00010	ff 50 1c	 call	 DWORD PTR [eax+28]
  00013	3b f8		 cmp	 edi, eax
  00015	7d 06		 jge	 SHORT $LN1@GetElement@4

; 72   : 		{
; 73   : 			return m_PosMap[Index];

  00017	8b 44 be 04	 mov	 eax, DWORD PTR [esi+edi*4+4]
  0001b	eb 02		 jmp	 SHORT $LN2@GetElement@4
$LN1@GetElement@4:

; 74   : 		}
; 75   : 
; 76   : 		return NULL;

  0001d	33 c0		 xor	 eax, eax
$LN2@GetElement@4:
  0001f	5f		 pop	 edi
  00020	5e		 pop	 esi

; 77   : 	}

  00021	5d		 pop	 ebp
  00022	c2 04 00	 ret	 4
?GetElement@?$ioPos32MapContainer@PAVioTileBlock@@@@UAEPAVioTileBlock@@H@Z ENDP ; ioPos32MapContainer<ioTileBlock *>::GetElement
; Function compile flags: /Ogsp
_TEXT	ENDS
;	COMDAT ?RemoveElement@?$ioPos32MapContainer@PAVioTileBlock@@@@UAEXH@Z
_TEXT	SEGMENT
_Index$ = 8						; size = 4
?RemoveElement@?$ioPos32MapContainer@PAVioTileBlock@@@@UAEXH@Z PROC ; ioPos32MapContainer<ioTileBlock *>::RemoveElement, COMDAT
; _this$ = ecx

; 80   : 	{

  00000	55		 push	 ebp
  00001	8b ec		 mov	 ebp, esp
  00003	56		 push	 esi
  00004	57		 push	 edi

; 81   : 		if( COMPARE( Index, 0, GetMax() ) )

  00005	8b 7d 08	 mov	 edi, DWORD PTR _Index$[ebp]
  00008	8b f1		 mov	 esi, ecx
  0000a	85 ff		 test	 edi, edi
  0000c	78 0e		 js	 SHORT $LN1@RemoveElem@4
  0000e	8b 06		 mov	 eax, DWORD PTR [esi]
  00010	ff 50 1c	 call	 DWORD PTR [eax+28]
  00013	3b f8		 cmp	 edi, eax
  00015	7d 05		 jge	 SHORT $LN1@RemoveElem@4

; 82   : 		{
; 83   : 			m_PosMap[Index] = NULL;

  00017	83 64 be 04 00	 and	 DWORD PTR [esi+edi*4+4], 0
$LN1@RemoveElem@4:
  0001c	5f		 pop	 edi
  0001d	5e		 pop	 esi

; 84   : 		}
; 85   : 	}

  0001e	5d		 pop	 ebp
  0001f	c2 04 00	 ret	 4
?RemoveElement@?$ioPos32MapContainer@PAVioTileBlock@@@@UAEXH@Z ENDP ; ioPos32MapContainer<ioTileBlock *>::RemoveElement
; Function compile flags: /Ogsp
_TEXT	ENDS
;	COMDAT ?GetMax@?$ioPos32MapContainer@PAVioTileBlock@@@@UAEHXZ
_TEXT	SEGMENT
?GetMax@?$ioPos32MapContainer@PAVioTileBlock@@@@UAEHXZ PROC ; ioPos32MapContainer<ioTileBlock *>::GetMax, COMDAT
; _this$ = ecx

; 87   : 	virtual int GetMax(){ return PMCS_32 * PMCS_32; }

  00000	b8 00 04 00 00	 mov	 eax, 1024		; 00000400H
  00005	c3		 ret	 0
?GetMax@?$ioPos32MapContainer@PAVioTileBlock@@@@UAEHXZ ENDP ; ioPos32MapContainer<ioTileBlock *>::GetMax
_TEXT	ENDS
PUBLIC	??1?$ioPos32MapContainer@PAVioTileBlock@@@@UAE@XZ ; ioPos32MapContainer<ioTileBlock *>::~ioPos32MapContainer<ioTileBlock *>
; Function compile flags: /Ogsp
;	COMDAT ??1?$ioPos32MapContainer@PAVioTileBlock@@@@UAE@XZ
_TEXT	SEGMENT
??1?$ioPos32MapContainer@PAVioTileBlock@@@@UAE@XZ PROC	; ioPos32MapContainer<ioTileBlock *>::~ioPos32MapContainer<ioTileBlock *>, COMDAT
; _this$ = ecx

; 91   : 	virtual ~ioPos32MapContainer(){}

  00000	c7 01 00 00 00
	00		 mov	 DWORD PTR [ecx], OFFSET ??_7?$ioPos32MapContainer@PAVioTileBlock@@@@6B@
  00006	c3		 ret	 0
??1?$ioPos32MapContainer@PAVioTileBlock@@@@UAE@XZ ENDP	; ioPos32MapContainer<ioTileBlock *>::~ioPos32MapContainer<ioTileBlock *>
; Function compile flags: /Ogsp
_TEXT	ENDS
;	COMDAT ??_G?$ioPos32MapContainer@PAVioTileBlock@@@@UAEPAXI@Z
_TEXT	SEGMENT
___flags$ = 8						; size = 4
??_G?$ioPos32MapContainer@PAVioTileBlock@@@@UAEPAXI@Z PROC ; ioPos32MapContainer<ioTileBlock *>::`scalar deleting destructor', COMDAT
; _this$ = ecx
  00000	55		 push	 ebp
  00001	8b ec		 mov	 ebp, esp
  00003	f6 45 08 01	 test	 BYTE PTR ___flags$[ebp], 1
  00007	56		 push	 esi
  00008	8b f1		 mov	 esi, ecx
  0000a	c7 06 00 00 00
	00		 mov	 DWORD PTR [esi], OFFSET ??_7?$ioPos32MapContainer@PAVioTileBlock@@@@6B@
  00010	74 07		 je	 SHORT $LN1@scalar@6
  00012	56		 push	 esi
  00013	e8 00 00 00 00	 call	 ??3@YAXPAX@Z		; operator delete
  00018	59		 pop	 ecx
$LN1@scalar@6:
  00019	8b c6		 mov	 eax, esi
  0001b	5e		 pop	 esi
  0001c	5d		 pop	 ebp
  0001d	c2 04 00	 ret	 4
??_G?$ioPos32MapContainer@PAVioTileBlock@@@@UAEPAXI@Z ENDP ; ioPos32MapContainer<ioTileBlock *>::`scalar deleting destructor'
_TEXT	ENDS
PUBLIC	?max_size@?$vector@PAVioBlock@@V?$allocator@PAVioBlock@@@std@@@std@@QBEIXZ ; std::vector<ioBlock *,std::allocator<ioBlock *> >::max_size
; Function compile flags: /Ogsp
; File c:\program files (x86)\microsoft visual studio 10.0\vc\include\vector
;	COMDAT ?max_size@?$vector@PAVioBlock@@V?$allocator@PAVioBlock@@@std@@@std@@QBEIXZ
_TEXT	SEGMENT
?max_size@?$vector@PAVioBlock@@V?$allocator@PAVioBlock@@@std@@@std@@QBEIXZ PROC ; std::vector<ioBlock *,std::allocator<ioBlock *> >::max_size, COMDAT
; _this$ = ecx

; 884  : 		return (this->_Alval.max_size());

  00000	b8 ff ff ff 3f	 mov	 eax, 1073741823		; 3fffffffH

; 885  : 		}

  00005	c3		 ret	 0
?max_size@?$vector@PAVioBlock@@V?$allocator@PAVioBlock@@@std@@@std@@QBEIXZ ENDP ; std::vector<ioBlock *,std::allocator<ioBlock *> >::max_size
_TEXT	ENDS
PUBLIC	?_Grow_to@?$vector@PAVioBlock@@V?$allocator@PAVioBlock@@@std@@@std@@IBEII@Z ; std::vector<ioBlock *,std::allocator<ioBlock *> >::_Grow_to
; Function compile flags: /Ogsp
;	COMDAT ?_Grow_to@?$vector@PAVioBlock@@V?$allocator@PAVioBlock@@@std@@@std@@IBEII@Z
_TEXT	SEGMENT
__Count$ = 8						; size = 4
?_Grow_to@?$vector@PAVioBlock@@V?$allocator@PAVioBlock@@@std@@@std@@IBEII@Z PROC ; std::vector<ioBlock *,std::allocator<ioBlock *> >::_Grow_to, COMDAT
; _this$ = ecx

; 1274 : 		{	// grow by 50% or at least to _Count

  00000	55		 push	 ebp
  00001	8b ec		 mov	 ebp, esp

; 1275 : 		size_type _Capacity = capacity();

  00003	8b 41 08	 mov	 eax, DWORD PTR [ecx+8]
  00006	2b 01		 sub	 eax, DWORD PTR [ecx]

; 1276 : 
; 1277 : 		_Capacity = max_size() - _Capacity / 2 < _Capacity
; 1278 : 			? 0 : _Capacity + _Capacity / 2;	// try to grow by 50%

  00008	ba ff ff ff 3f	 mov	 edx, 1073741823		; 3fffffffH
  0000d	c1 f8 02	 sar	 eax, 2
  00010	8b c8		 mov	 ecx, eax
  00012	d1 e9		 shr	 ecx, 1
  00014	2b d1		 sub	 edx, ecx
  00016	3b d0		 cmp	 edx, eax
  00018	73 04		 jae	 SHORT $LN4@Grow_to
  0001a	33 c0		 xor	 eax, eax
  0001c	eb 02		 jmp	 SHORT $LN5@Grow_to
$LN4@Grow_to:
  0001e	03 c1		 add	 eax, ecx
$LN5@Grow_to:

; 1279 : 		if (_Capacity < _Count)

  00020	3b 45 08	 cmp	 eax, DWORD PTR __Count$[ebp]

; 1280 : 			_Capacity = _Count;

  00023	0f 42 45 08	 cmovb	 eax, DWORD PTR __Count$[ebp]

; 1281 : 		return (_Capacity);
; 1282 : 		}

  00027	5d		 pop	 ebp
  00028	c2 04 00	 ret	 4
?_Grow_to@?$vector@PAVioBlock@@V?$allocator@PAVioBlock@@@std@@@std@@IBEII@Z ENDP ; std::vector<ioBlock *,std::allocator<ioBlock *> >::_Grow_to
_TEXT	ENDS
PUBLIC	?allocate@?$allocator@PAVioBlock@@@std@@QAEPAPAVioBlock@@I@Z ; std::allocator<ioBlock *>::allocate
; Function compile flags: /Ogsp
; File c:\program files (x86)\microsoft visual studio 10.0\vc\include\xmemory
;	COMDAT ?allocate@?$allocator@PAVioBlock@@@std@@QAEPAPAVioBlock@@I@Z
_TEXT	SEGMENT
__Count$ = 8						; size = 4
?allocate@?$allocator@PAVioBlock@@@std@@QAEPAPAVioBlock@@I@Z PROC ; std::allocator<ioBlock *>::allocate, COMDAT
; _this$ = ecx

; 186  : 		{	// allocate array of _Count elements

  00000	55		 push	 ebp
  00001	8b ec		 mov	 ebp, esp

; 187  : 		return (_Allocate(_Count, (pointer)0));

  00003	6a 00		 push	 0
  00005	ff 75 08	 push	 DWORD PTR __Count$[ebp]
  00008	e8 00 00 00 00	 call	 ??$_Allocate@PAVioBlock@@@std@@YAPAPAVioBlock@@IPAPAV1@@Z ; std::_Allocate<ioBlock *>
  0000d	59		 pop	 ecx
  0000e	59		 pop	 ecx

; 188  : 		}

  0000f	5d		 pop	 ebp
  00010	c2 04 00	 ret	 4
?allocate@?$allocator@PAVioBlock@@@std@@QAEPAPAVioBlock@@I@Z ENDP ; std::allocator<ioBlock *>::allocate
_TEXT	ENDS
PUBLIC	??$_Cons_val@V?$allocator@PAVioBlock@@@std@@PAVioBlock@@AAPAV3@@std@@YAXAAV?$allocator@PAVioBlock@@@0@PAPAVioBlock@@AAPAV2@@Z ; std::_Cons_val<std::allocator<ioBlock *>,ioBlock *,ioBlock * &>
; Function compile flags: /Ogsp
;	COMDAT ??$_Cons_val@V?$allocator@PAVioBlock@@@std@@PAVioBlock@@AAPAV3@@std@@YAXAAV?$allocator@PAVioBlock@@@0@PAPAVioBlock@@AAPAV2@@Z
_TEXT	SEGMENT
__Alval$ = 8						; size = 4
__Pdest$ = 12						; size = 4
__Src$ = 16						; size = 4
??$_Cons_val@V?$allocator@PAVioBlock@@@std@@PAVioBlock@@AAPAV3@@std@@YAXAAV?$allocator@PAVioBlock@@@0@PAPAVioBlock@@AAPAV2@@Z PROC ; std::_Cons_val<std::allocator<ioBlock *>,ioBlock *,ioBlock * &>, COMDAT

; 279  : 	{	// construct using allocator

  00000	55		 push	 ebp
  00001	8b ec		 mov	 ebp, esp

; 280  : 	_Alval.construct(_Pdest, _STD forward<_Ty2>(_Src));

  00003	8b 45 0c	 mov	 eax, DWORD PTR __Pdest$[ebp]
  00006	85 c0		 test	 eax, eax
  00008	74 07		 je	 SHORT $LN7@Cons_val
  0000a	8b 4d 10	 mov	 ecx, DWORD PTR __Src$[ebp]
  0000d	8b 09		 mov	 ecx, DWORD PTR [ecx]
  0000f	89 08		 mov	 DWORD PTR [eax], ecx
$LN7@Cons_val:

; 281  : 	}

  00011	5d		 pop	 ebp
  00012	c3		 ret	 0
??$_Cons_val@V?$allocator@PAVioBlock@@@std@@PAVioBlock@@AAPAV3@@std@@YAXAAV?$allocator@PAVioBlock@@@0@PAPAVioBlock@@AAPAV2@@Z ENDP ; std::_Cons_val<std::allocator<ioBlock *>,ioBlock *,ioBlock * &>
_TEXT	ENDS
PUBLIC	??$_Destroy_range@V?$allocator@PAVioBlock@@@std@@@std@@YAXPAPAVioBlock@@0AAV?$allocator@PAVioBlock@@@0@@Z ; std::_Destroy_range<std::allocator<ioBlock *> >
; Function compile flags: /Ogsp
;	COMDAT ??$_Destroy_range@V?$allocator@PAVioBlock@@@std@@@std@@YAXPAPAVioBlock@@0AAV?$allocator@PAVioBlock@@@0@@Z
_TEXT	SEGMENT
__First$ = 8						; size = 4
__Last$ = 12						; size = 4
__Al$ = 16						; size = 4
??$_Destroy_range@V?$allocator@PAVioBlock@@@std@@@std@@YAXPAPAVioBlock@@0AAV?$allocator@PAVioBlock@@@0@@Z PROC ; std::_Destroy_range<std::allocator<ioBlock *> >, COMDAT

; 88   : 	_Destroy_range(_First, _Last, _Al, _Ptr_cat(_First, _Last));
; 89   : 	}

  00000	c3		 ret	 0
??$_Destroy_range@V?$allocator@PAVioBlock@@@std@@@std@@YAXPAPAVioBlock@@0AAV?$allocator@PAVioBlock@@@0@@Z ENDP ; std::_Destroy_range<std::allocator<ioBlock *> >
_TEXT	ENDS
PUBLIC	?construct@?$allocator@PAVioBlock@@@std@@QAEXPAPAVioBlock@@ABQAV3@@Z ; std::allocator<ioBlock *>::construct
; Function compile flags: /Ogsp
;	COMDAT ?construct@?$allocator@PAVioBlock@@@std@@QAEXPAPAVioBlock@@ABQAV3@@Z
_TEXT	SEGMENT
__Ptr$ = 8						; size = 4
__Val$ = 12						; size = 4
?construct@?$allocator@PAVioBlock@@@std@@QAEXPAPAVioBlock@@ABQAV3@@Z PROC ; std::allocator<ioBlock *>::construct, COMDAT
; _this$ = ecx

; 196  : 		{	// construct object at _Ptr with value _Val

  00000	55		 push	 ebp
  00001	8b ec		 mov	 ebp, esp

; 197  : 		_Construct(_Ptr, _Val);

  00003	8b 45 08	 mov	 eax, DWORD PTR __Ptr$[ebp]
  00006	85 c0		 test	 eax, eax
  00008	74 07		 je	 SHORT $LN5@construct@2
  0000a	8b 4d 0c	 mov	 ecx, DWORD PTR __Val$[ebp]
  0000d	8b 09		 mov	 ecx, DWORD PTR [ecx]
  0000f	89 08		 mov	 DWORD PTR [eax], ecx
$LN5@construct@2:

; 198  : 		}

  00011	5d		 pop	 ebp
  00012	c2 08 00	 ret	 8
?construct@?$allocator@PAVioBlock@@@std@@QAEXPAPAVioBlock@@ABQAV3@@Z ENDP ; std::allocator<ioBlock *>::construct
_TEXT	ENDS
PUBLIC	??$_Uninitialized_move@PAPAVioBlock@@PAPAV1@V?$allocator@PAVioBlock@@@std@@@std@@YAPAPAVioBlock@@PAPAV1@00AAV?$allocator@PAVioBlock@@@0@@Z ; std::_Uninitialized_move<ioBlock * *,ioBlock * *,std::allocator<ioBlock *> >
; Function compile flags: /Ogsp
; File c:\program files (x86)\microsoft visual studio 10.0\vc\include\memory
;	COMDAT ??$_Uninitialized_move@PAPAVioBlock@@PAPAV1@V?$allocator@PAVioBlock@@@std@@@std@@YAPAPAVioBlock@@PAPAV1@00AAV?$allocator@PAVioBlock@@@0@@Z
_TEXT	SEGMENT
__First$ = 8						; size = 4
__Last$ = 12						; size = 4
__Dest$ = 16						; size = 4
__Al$ = 20						; size = 4
??$_Uninitialized_move@PAPAVioBlock@@PAPAV1@V?$allocator@PAVioBlock@@@std@@@std@@YAPAPAVioBlock@@PAPAV1@00AAV?$allocator@PAVioBlock@@@0@@Z PROC ; std::_Uninitialized_move<ioBlock * *,ioBlock * *,std::allocator<ioBlock *> >, COMDAT

; 469  : 	{	// move [_First, _Last) to raw _Dest, using _Al

  00000	55		 push	 ebp
  00001	8b ec		 mov	 ebp, esp
  00003	56		 push	 esi

; 470  : 	return (_Uninit_move(_First, _Last, _Dest, _Al,
; 471  : 		_Val_type(_First), _Ptr_cat(_First, _Dest)));

  00004	8b 75 0c	 mov	 esi, DWORD PTR __Last$[ebp]
  00007	2b 75 08	 sub	 esi, DWORD PTR __First$[ebp]
  0000a	c1 fe 02	 sar	 esi, 2
  0000d	c1 e6 02	 shl	 esi, 2
  00010	56		 push	 esi
  00011	ff 75 08	 push	 DWORD PTR __First$[ebp]
  00014	ff 75 10	 push	 DWORD PTR __Dest$[ebp]
  00017	ff 15 00 00 00
	00		 call	 DWORD PTR __imp__memmove
  0001d	83 c4 0c	 add	 esp, 12			; 0000000cH
  00020	03 c6		 add	 eax, esi
  00022	5e		 pop	 esi

; 472  : 	}

  00023	5d		 pop	 ebp
  00024	c3		 ret	 0
??$_Uninitialized_move@PAPAVioBlock@@PAPAV1@V?$allocator@PAVioBlock@@@std@@@std@@YAPAPAVioBlock@@PAPAV1@00AAV?$allocator@PAVioBlock@@@0@@Z ENDP ; std::_Uninitialized_move<ioBlock * *,ioBlock * *,std::allocator<ioBlock *> >
_TEXT	ENDS
PUBLIC	??0?$_Vector_val@HV?$allocator@H@std@@@std@@QAE@V?$allocator@H@1@@Z ; std::_Vector_val<int,std::allocator<int> >::_Vector_val<int,std::allocator<int> >
; Function compile flags: /Ogsp
; File c:\program files (x86)\microsoft visual studio 10.0\vc\include\vector
;	COMDAT ??0?$_Vector_val@HV?$allocator@H@std@@@std@@QAE@V?$allocator@H@1@@Z
_TEXT	SEGMENT
__Al$ = 8						; size = 1
??0?$_Vector_val@HV?$allocator@H@std@@@std@@QAE@V?$allocator@H@1@@Z PROC ; std::_Vector_val<int,std::allocator<int> >::_Vector_val<int,std::allocator<int> >, COMDAT
; _this$ = ecx

; 426  : 		{	// construct allocator from _Al

  00000	8b c1		 mov	 eax, ecx

; 427  : 		_Myfirst = 0;

  00002	33 c9		 xor	 ecx, ecx
  00004	89 08		 mov	 DWORD PTR [eax], ecx

; 428  : 		_Mylast = 0;

  00006	89 48 04	 mov	 DWORD PTR [eax+4], ecx

; 429  : 		_Myend = 0;

  00009	89 48 08	 mov	 DWORD PTR [eax+8], ecx

; 430  : 		}

  0000c	c2 04 00	 ret	 4
??0?$_Vector_val@HV?$allocator@H@std@@@std@@QAE@V?$allocator@H@1@@Z ENDP ; std::_Vector_val<int,std::allocator<int> >::_Vector_val<int,std::allocator<int> >
_TEXT	ENDS
PUBLIC	??$_Destroy_range@V?$allocator@H@std@@@std@@YAXPAH0AAV?$allocator@H@0@@Z ; std::_Destroy_range<std::allocator<int> >
; Function compile flags: /Ogsp
; File c:\program files (x86)\microsoft visual studio 10.0\vc\include\xmemory
;	COMDAT ??$_Destroy_range@V?$allocator@H@std@@@std@@YAXPAH0AAV?$allocator@H@0@@Z
_TEXT	SEGMENT
__First$ = 8						; size = 4
__Last$ = 12						; size = 4
__Al$ = 16						; size = 4
??$_Destroy_range@V?$allocator@H@std@@@std@@YAXPAH0AAV?$allocator@H@0@@Z PROC ; std::_Destroy_range<std::allocator<int> >, COMDAT

; 88   : 	_Destroy_range(_First, _Last, _Al, _Ptr_cat(_First, _Last));
; 89   : 	}

  00000	c3		 ret	 0
??$_Destroy_range@V?$allocator@H@std@@@std@@YAXPAH0AAV?$allocator@H@0@@Z ENDP ; std::_Destroy_range<std::allocator<int> >
_TEXT	ENDS
PUBLIC	??1ioBlockMapBase@@UAE@XZ			; ioBlockMapBase::~ioBlockMapBase
; Function compile flags: /Ogsp
; File d:\lost saga for developer\youtube\tutorial\source\src\lsclient\housing\ioblockmapbase.cpp
;	COMDAT ??1ioBlockMapBase@@UAE@XZ
_TEXT	SEGMENT
??1ioBlockMapBase@@UAE@XZ PROC				; ioBlockMapBase::~ioBlockMapBase, COMDAT
; _this$ = ecx

; 22   : {

  00000	56		 push	 esi
  00001	8b f1		 mov	 esi, ecx
  00003	c7 06 00 00 00
	00		 mov	 DWORD PTR [esi], OFFSET ??_7ioBlockMapBase@@6B@

; 23   : 	DestroyQuadTree();

  00009	e8 00 00 00 00	 call	 ?DestroyQuadTree@ioBlockMapBase@@IAEXXZ ; ioBlockMapBase::DestroyQuadTree

; 24   : 	DestroyLevelMapContainer();

  0000e	8b ce		 mov	 ecx, esi
  00010	e8 00 00 00 00	 call	 ?DestroyLevelMapContainer@ioBlockMapBase@@IAEXXZ ; ioBlockMapBase::DestroyLevelMapContainer

; 25   : 	DestroyTileMapContainer();

  00015	8b ce		 mov	 ecx, esi
  00017	5e		 pop	 esi
  00018	e9 00 00 00 00	 jmp	 ?DestroyTileMapContainer@ioBlockMapBase@@IAEXXZ ; ioBlockMapBase::DestroyTileMapContainer
??1ioBlockMapBase@@UAE@XZ ENDP				; ioBlockMapBase::~ioBlockMapBase
_TEXT	ENDS
PUBLIC	?CreateLevelMapContainer@ioBlockMapBase@@IAEXW4BlockModeType@@@Z ; ioBlockMapBase::CreateLevelMapContainer
; Function compile flags: /Ogsp
;	COMDAT ?CreateLevelMapContainer@ioBlockMapBase@@IAEXW4BlockModeType@@@Z
_TEXT	SEGMENT
_eType$ = 8						; size = 4
?CreateLevelMapContainer@ioBlockMapBase@@IAEXW4BlockModeType@@@Z PROC ; ioBlockMapBase::CreateLevelMapContainer, COMDAT
; _this$ = ecx

; 63   : {

  00000	55		 push	 ebp
  00001	8b ec		 mov	 ebp, esp
  00003	53		 push	 ebx
  00004	56		 push	 esi
  00005	57		 push	 edi
  00006	8b f1		 mov	 esi, ecx

; 64   : 	DestroyLevelMapContainer();

  00008	e8 00 00 00 00	 call	 ?DestroyLevelMapContainer@ioBlockMapBase@@IAEXXZ ; ioBlockMapBase::DestroyLevelMapContainer

; 65   : 
; 66   : 	m_nHeightMax	= g_BlockManager.GetHeightMax();

  0000d	e8 00 00 00 00	 call	 ?GetSingleton@ioBlockManager@@SAAAV1@XZ ; ioBlockManager::GetSingleton
  00012	8b 40 4c	 mov	 eax, DWORD PTR [eax+76]
  00015	89 46 5c	 mov	 DWORD PTR [esi+92], eax

; 67   : 	m_nTileMax		= g_BlockManager.GetTileMax();

  00018	e8 00 00 00 00	 call	 ?GetSingleton@ioBlockManager@@SAAAV1@XZ ; ioBlockManager::GetSingleton
  0001d	8b 40 48	 mov	 eax, DWORD PTR [eax+72]
  00020	6a 14		 push	 20			; 00000014H
  00022	89 46 60	 mov	 DWORD PTR [esi+96], eax
  00025	83 c6 08	 add	 esi, 8
  00028	5b		 pop	 ebx
$LL7@CreateLeve:

; 69   : 	{
; 70   : 		switch( eType )

  00029	8b 45 08	 mov	 eax, DWORD PTR _eType$[ebp]
  0002c	83 e8 00	 sub	 eax, 0
  0002f	74 21		 je	 SHORT $LN2@CreateLeve
  00031	48		 dec	 eax
  00032	75 47		 jne	 SHORT $LN6@CreateLeve

; 74   : 			break;
; 75   : 		case BMT_PERSONAL:
; 76   : 			m_PosLevelMap[i] = new ioPos32MapContainer<ioBlock*>;

  00034	68 04 10 00 00	 push	 4100			; 00001004H
  00039	e8 00 00 00 00	 call	 ??2@YAPAXI@Z		; operator new
  0003e	8b d0		 mov	 edx, eax
  00040	59		 pop	 ecx
  00041	85 d2		 test	 edx, edx
  00043	74 32		 je	 SHORT $LN10@CreateLeve
  00045	c7 02 00 00 00
	00		 mov	 DWORD PTR [edx], OFFSET ??_7?$ioPos32MapContainer@PAVioBlock@@@@6B@
  0004b	b9 00 04 00 00	 mov	 ecx, 1024		; 00000400H
  00050	eb 1c		 jmp	 SHORT $LN55@CreateLeve
$LN2@CreateLeve:

; 71   : 		{
; 72   : 		case BMT_GUILD:
; 73   : 			m_PosLevelMap[i] = new ioPos64MapContainer<ioBlock*>;

  00052	68 04 40 00 00	 push	 16388			; 00004004H
  00057	e8 00 00 00 00	 call	 ??2@YAPAXI@Z		; operator new
  0005c	8b d0		 mov	 edx, eax
  0005e	59		 pop	 ecx
  0005f	85 d2		 test	 edx, edx
  00061	74 14		 je	 SHORT $LN10@CreateLeve
  00063	c7 02 00 00 00
	00		 mov	 DWORD PTR [edx], OFFSET ??_7?$ioPos64MapContainer@PAVioBlock@@@@6B@
  00069	b9 00 10 00 00	 mov	 ecx, 4096		; 00001000H
$LN55@CreateLeve:
  0006e	8d 7a 04	 lea	 edi, DWORD PTR [edx+4]
  00071	33 c0		 xor	 eax, eax
  00073	f3 ab		 rep stosd
  00075	eb 02		 jmp	 SHORT $LN11@CreateLeve
$LN10@CreateLeve:
  00077	33 d2		 xor	 edx, edx
$LN11@CreateLeve:
  00079	89 16		 mov	 DWORD PTR [esi], edx
$LN6@CreateLeve:

; 68   : 	for( int i = 0; i < HEIGHT_MAX; ++i )

  0007b	83 c6 04	 add	 esi, 4
  0007e	4b		 dec	 ebx
  0007f	75 a8		 jne	 SHORT $LL7@CreateLeve
  00081	5f		 pop	 edi
  00082	5e		 pop	 esi
  00083	5b		 pop	 ebx

; 77   : 			break;
; 78   : 		}
; 79   : 	}
; 80   : }

  00084	5d		 pop	 ebp
  00085	c2 04 00	 ret	 4
?CreateLevelMapContainer@ioBlockMapBase@@IAEXW4BlockModeType@@@Z ENDP ; ioBlockMapBase::CreateLevelMapContainer
_TEXT	ENDS
PUBLIC	?CreateTileMapContainer@ioBlockMapBase@@IAEXW4BlockModeType@@@Z ; ioBlockMapBase::CreateTileMapContainer
; Function compile flags: /Ogsp
;	COMDAT ?CreateTileMapContainer@ioBlockMapBase@@IAEXW4BlockModeType@@@Z
_TEXT	SEGMENT
_eType$ = 8						; size = 4
?CreateTileMapContainer@ioBlockMapBase@@IAEXW4BlockModeType@@@Z PROC ; ioBlockMapBase::CreateTileMapContainer, COMDAT
; _this$ = ecx

; 96   : {

  00000	55		 push	 ebp
  00001	8b ec		 mov	 ebp, esp
  00003	56		 push	 esi
  00004	57		 push	 edi
  00005	8b f1		 mov	 esi, ecx

; 97   : 	DestroyTileMapContainer();

  00007	e8 00 00 00 00	 call	 ?DestroyTileMapContainer@ioBlockMapBase@@IAEXXZ ; ioBlockMapBase::DestroyTileMapContainer

; 98   : 	switch( eType )

  0000c	8b 45 08	 mov	 eax, DWORD PTR _eType$[ebp]
  0000f	83 e8 00	 sub	 eax, 0
  00012	74 21		 je	 SHORT $LN2@CreateTile
  00014	48		 dec	 eax
  00015	75 48		 jne	 SHORT $LN3@CreateTile

; 102  : 		break;
; 103  : 	case BMT_PERSONAL:
; 104  : 		m_pTileContainer = new ioPos32MapContainer<ioTileBlock*>;

  00017	68 04 10 00 00	 push	 4100			; 00001004H
  0001c	e8 00 00 00 00	 call	 ??2@YAPAXI@Z		; operator new
  00021	8b d0		 mov	 edx, eax
  00023	59		 pop	 ecx
  00024	85 d2		 test	 edx, edx
  00026	74 32		 je	 SHORT $LN7@CreateTile
  00028	c7 02 00 00 00
	00		 mov	 DWORD PTR [edx], OFFSET ??_7?$ioPos32MapContainer@PAVioTileBlock@@@@6B@
  0002e	b9 00 04 00 00	 mov	 ecx, 1024		; 00000400H
  00033	eb 1c		 jmp	 SHORT $LN46@CreateTile
$LN2@CreateTile:

; 99   : 	{
; 100  : 	case BMT_GUILD:
; 101  : 		m_pTileContainer = new ioPos64MapContainer<ioTileBlock*>;

  00035	68 04 40 00 00	 push	 16388			; 00004004H
  0003a	e8 00 00 00 00	 call	 ??2@YAPAXI@Z		; operator new
  0003f	8b d0		 mov	 edx, eax
  00041	59		 pop	 ecx
  00042	85 d2		 test	 edx, edx
  00044	74 14		 je	 SHORT $LN7@CreateTile
  00046	c7 02 00 00 00
	00		 mov	 DWORD PTR [edx], OFFSET ??_7?$ioPos64MapContainer@PAVioTileBlock@@@@6B@
  0004c	b9 00 10 00 00	 mov	 ecx, 4096		; 00001000H
$LN46@CreateTile:
  00051	8d 7a 04	 lea	 edi, DWORD PTR [edx+4]
  00054	33 c0		 xor	 eax, eax
  00056	f3 ab		 rep stosd
  00058	eb 02		 jmp	 SHORT $LN8@CreateTile
$LN7@CreateTile:
  0005a	33 d2		 xor	 edx, edx
$LN8@CreateTile:
  0005c	89 56 58	 mov	 DWORD PTR [esi+88], edx
$LN3@CreateTile:
  0005f	5f		 pop	 edi
  00060	5e		 pop	 esi

; 105  : 		break;
; 106  : 	}
; 107  : }

  00061	5d		 pop	 ebp
  00062	c2 04 00	 ret	 4
?CreateTileMapContainer@ioBlockMapBase@@IAEXW4BlockModeType@@@Z ENDP ; ioBlockMapBase::CreateTileMapContainer
_TEXT	ENDS
PUBLIC	?_Destroy@?$vector@PAVioBlock@@V?$allocator@PAVioBlock@@@std@@@std@@IAEXPAPAVioBlock@@0@Z ; std::vector<ioBlock *,std::allocator<ioBlock *> >::_Destroy
; Function compile flags: /Ogsp
; File c:\program files (x86)\microsoft visual studio 10.0\vc\include\vector
;	COMDAT ?_Destroy@?$vector@PAVioBlock@@V?$allocator@PAVioBlock@@@std@@@std@@IAEXPAPAVioBlock@@0@Z
_TEXT	SEGMENT
__First$ = 8						; size = 4
__Last$ = 12						; size = 4
?_Destroy@?$vector@PAVioBlock@@V?$allocator@PAVioBlock@@@std@@@std@@IAEXPAPAVioBlock@@0@Z PROC ; std::vector<ioBlock *,std::allocator<ioBlock *> >::_Destroy, COMDAT
; _this$ = ecx

; 1270 : 		_Destroy_range(_First, _Last, this->_Alval);
; 1271 : 		}

  00000	c2 08 00	 ret	 8
?_Destroy@?$vector@PAVioBlock@@V?$allocator@PAVioBlock@@@std@@@std@@IAEXPAPAVioBlock@@0@Z ENDP ; std::vector<ioBlock *,std::allocator<ioBlock *> >::_Destroy
_TEXT	ENDS
PUBLIC	??$_Cons_val@V?$allocator@PAVioBlock@@@std@@PAVioBlock@@ABQAV3@@std@@YAXAAV?$allocator@PAVioBlock@@@0@PAPAVioBlock@@ABQAV2@@Z ; std::_Cons_val<std::allocator<ioBlock *>,ioBlock *,ioBlock * const &>
; Function compile flags: /Ogsp
; File c:\program files (x86)\microsoft visual studio 10.0\vc\include\xmemory
;	COMDAT ??$_Cons_val@V?$allocator@PAVioBlock@@@std@@PAVioBlock@@ABQAV3@@std@@YAXAAV?$allocator@PAVioBlock@@@0@PAPAVioBlock@@ABQAV2@@Z
_TEXT	SEGMENT
__Alval$ = 8						; size = 4
__Pdest$ = 12						; size = 4
__Src$ = 16						; size = 4
??$_Cons_val@V?$allocator@PAVioBlock@@@std@@PAVioBlock@@ABQAV3@@std@@YAXAAV?$allocator@PAVioBlock@@@0@PAPAVioBlock@@ABQAV2@@Z PROC ; std::_Cons_val<std::allocator<ioBlock *>,ioBlock *,ioBlock * const &>, COMDAT

; 279  : 	{	// construct using allocator

  00000	55		 push	 ebp
  00001	8b ec		 mov	 ebp, esp

; 280  : 	_Alval.construct(_Pdest, _STD forward<_Ty2>(_Src));

  00003	8b 45 0c	 mov	 eax, DWORD PTR __Pdest$[ebp]
  00006	85 c0		 test	 eax, eax
  00008	74 07		 je	 SHORT $LN9@Cons_val@2
  0000a	8b 4d 10	 mov	 ecx, DWORD PTR __Src$[ebp]
  0000d	8b 09		 mov	 ecx, DWORD PTR [ecx]
  0000f	89 08		 mov	 DWORD PTR [eax], ecx
$LN9@Cons_val@2:

; 281  : 	}

  00011	5d		 pop	 ebp
  00012	c3		 ret	 0
??$_Cons_val@V?$allocator@PAVioBlock@@@std@@PAVioBlock@@ABQAV3@@std@@YAXAAV?$allocator@PAVioBlock@@@0@PAPAVioBlock@@ABQAV2@@Z ENDP ; std::_Cons_val<std::allocator<ioBlock *>,ioBlock *,ioBlock * const &>
_TEXT	ENDS
PUBLIC	??$_Umove@PAPAVioBlock@@@?$vector@PAVioBlock@@V?$allocator@PAVioBlock@@@std@@@std@@IAEPAPAVioBlock@@PAPAV2@00@Z ; std::vector<ioBlock *,std::allocator<ioBlock *> >::_Umove<ioBlock * *>
; Function compile flags: /Ogsp
; File c:\program files (x86)\microsoft visual studio 10.0\vc\include\vector
;	COMDAT ??$_Umove@PAPAVioBlock@@@?$vector@PAVioBlock@@V?$allocator@PAVioBlock@@@std@@@std@@IAEPAPAVioBlock@@PAPAV2@00@Z
_TEXT	SEGMENT
__First$ = 8						; size = 4
__Last$ = 12						; size = 4
__Ptr$ = 16						; size = 4
??$_Umove@PAPAVioBlock@@@?$vector@PAVioBlock@@V?$allocator@PAVioBlock@@@std@@@std@@IAEPAPAVioBlock@@PAPAV2@00@Z PROC ; std::vector<ioBlock *,std::allocator<ioBlock *> >::_Umove<ioBlock * *>, COMDAT
; _this$ = ecx

; 1322 : 		pointer _Umove(_Iter _First, _Iter _Last, pointer _Ptr)

  00000	55		 push	 ebp
  00001	8b ec		 mov	 ebp, esp

; 1323 : 		{	// move initializing [_First, _Last), using allocator
; 1324 : 		return (_Uninitialized_move(_First, _Last,
; 1325 : 			_Ptr, this->_Alval));

  00003	83 c1 0c	 add	 ecx, 12			; 0000000cH
  00006	51		 push	 ecx
  00007	ff 75 10	 push	 DWORD PTR __Ptr$[ebp]
  0000a	ff 75 0c	 push	 DWORD PTR __Last$[ebp]
  0000d	ff 75 08	 push	 DWORD PTR __First$[ebp]
  00010	e8 00 00 00 00	 call	 ??$_Uninitialized_move@PAPAVioBlock@@PAPAV1@V?$allocator@PAVioBlock@@@std@@@std@@YAPAPAVioBlock@@PAPAV1@00AAV?$allocator@PAVioBlock@@@0@@Z ; std::_Uninitialized_move<ioBlock * *,ioBlock * *,std::allocator<ioBlock *> >
  00015	83 c4 10	 add	 esp, 16			; 00000010H

; 1326 : 		}

  00018	5d		 pop	 ebp
  00019	c2 0c 00	 ret	 12			; 0000000cH
??$_Umove@PAPAVioBlock@@@?$vector@PAVioBlock@@V?$allocator@PAVioBlock@@@std@@@std@@IAEPAPAVioBlock@@PAPAV2@00@Z ENDP ; std::vector<ioBlock *,std::allocator<ioBlock *> >::_Umove<ioBlock * *>
_TEXT	ENDS
PUBLIC	??0?$vector@HV?$allocator@H@std@@@std@@QAE@XZ	; std::vector<int,std::allocator<int> >::vector<int,std::allocator<int> >
; Function compile flags: /Ogsp
;	COMDAT ??0?$vector@HV?$allocator@H@std@@@std@@QAE@XZ
_TEXT	SEGMENT
??0?$vector@HV?$allocator@H@std@@@std@@QAE@XZ PROC	; std::vector<int,std::allocator<int> >::vector<int,std::allocator<int> >, COMDAT
; _this$ = ecx

; 507  : 		{	// construct empty vector

  00000	8b c1		 mov	 eax, ecx
  00002	33 c9		 xor	 ecx, ecx
  00004	89 08		 mov	 DWORD PTR [eax], ecx
  00006	89 48 04	 mov	 DWORD PTR [eax+4], ecx
  00009	89 48 08	 mov	 DWORD PTR [eax+8], ecx

; 508  : 		}

  0000c	c3		 ret	 0
??0?$vector@HV?$allocator@H@std@@@std@@QAE@XZ ENDP	; std::vector<int,std::allocator<int> >::vector<int,std::allocator<int> >
_TEXT	ENDS
PUBLIC	?_Destroy@?$vector@HV?$allocator@H@std@@@std@@IAEXPAH0@Z ; std::vector<int,std::allocator<int> >::_Destroy
; Function compile flags: /Ogsp
;	COMDAT ?_Destroy@?$vector@HV?$allocator@H@std@@@std@@IAEXPAH0@Z
_TEXT	SEGMENT
__First$ = 8						; size = 4
__Last$ = 12						; size = 4
?_Destroy@?$vector@HV?$allocator@H@std@@@std@@IAEXPAH0@Z PROC ; std::vector<int,std::allocator<int> >::_Destroy, COMDAT
; _this$ = ecx

; 1270 : 		_Destroy_range(_First, _Last, this->_Alval);
; 1271 : 		}

  00000	c2 08 00	 ret	 8
?_Destroy@?$vector@HV?$allocator@H@std@@@std@@IAEXPAH0@Z ENDP ; std::vector<int,std::allocator<int> >::_Destroy
; Function compile flags: /Ogsp
_TEXT	ENDS
;	COMDAT ??_GioBlockMapBase@@UAEPAXI@Z
_TEXT	SEGMENT
___flags$ = 8						; size = 4
??_GioBlockMapBase@@UAEPAXI@Z PROC			; ioBlockMapBase::`scalar deleting destructor', COMDAT
; _this$ = ecx
  00000	55		 push	 ebp
  00001	8b ec		 mov	 ebp, esp
  00003	56		 push	 esi
  00004	8b f1		 mov	 esi, ecx
  00006	e8 00 00 00 00	 call	 ??1ioBlockMapBase@@UAE@XZ ; ioBlockMapBase::~ioBlockMapBase
  0000b	f6 45 08 01	 test	 BYTE PTR ___flags$[ebp], 1
  0000f	74 07		 je	 SHORT $LN1@scalar@7
  00011	56		 push	 esi
  00012	e8 00 00 00 00	 call	 ??3@YAXPAX@Z		; operator delete
  00017	59		 pop	 ecx
$LN1@scalar@7:
  00018	8b c6		 mov	 eax, esi
  0001a	5e		 pop	 esi
  0001b	5d		 pop	 ebp
  0001c	c2 04 00	 ret	 4
??_GioBlockMapBase@@UAEPAXI@Z ENDP			; ioBlockMapBase::`scalar deleting destructor'
_TEXT	ENDS
PUBLIC	?Initialize@ioBlockMapBase@@QAEXW4BlockModeType@@@Z ; ioBlockMapBase::Initialize
; Function compile flags: /Ogsp
; File d:\lost saga for developer\youtube\tutorial\source\src\lsclient\housing\ioblockmapbase.cpp
;	COMDAT ?Initialize@ioBlockMapBase@@QAEXW4BlockModeType@@@Z
_TEXT	SEGMENT
_eType$ = 8						; size = 4
?Initialize@ioBlockMapBase@@QAEXW4BlockModeType@@@Z PROC ; ioBlockMapBase::Initialize, COMDAT
; _this$ = ecx

; 29   : {

  00000	55		 push	 ebp
  00001	8b ec		 mov	 ebp, esp
  00003	56		 push	 esi

; 30   : 	BuildQuadTree( eType );

  00004	ff 75 08	 push	 DWORD PTR _eType$[ebp]
  00007	8b f1		 mov	 esi, ecx
  00009	e8 00 00 00 00	 call	 ?BuildQuadTree@ioBlockMapBase@@IAEXW4BlockModeType@@@Z ; ioBlockMapBase::BuildQuadTree

; 31   : 
; 32   : 	CreateLevelMapContainer( eType );

  0000e	ff 75 08	 push	 DWORD PTR _eType$[ebp]
  00011	8b ce		 mov	 ecx, esi
  00013	e8 00 00 00 00	 call	 ?CreateLevelMapContainer@ioBlockMapBase@@IAEXW4BlockModeType@@@Z ; ioBlockMapBase::CreateLevelMapContainer

; 33   : 	CreateTileMapContainer( eType );

  00018	ff 75 08	 push	 DWORD PTR _eType$[ebp]
  0001b	8b ce		 mov	 ecx, esi
  0001d	e8 00 00 00 00	 call	 ?CreateTileMapContainer@ioBlockMapBase@@IAEXW4BlockModeType@@@Z ; ioBlockMapBase::CreateTileMapContainer
  00022	5e		 pop	 esi

; 34   : }

  00023	5d		 pop	 ebp
  00024	c2 04 00	 ret	 4
?Initialize@ioBlockMapBase@@QAEXW4BlockModeType@@@Z ENDP ; ioBlockMapBase::Initialize
_TEXT	ENDS
PUBLIC	?reserve@?$vector@PAVioBlock@@V?$allocator@PAVioBlock@@@std@@@std@@QAEXI@Z ; std::vector<ioBlock *,std::allocator<ioBlock *> >::reserve
EXTRN	__imp_?_Orphan_all@_Container_base0@std@@QAEXXZ:PROC
; Function compile flags: /Ogsp
; File c:\program files (x86)\microsoft visual studio 10.0\vc\include\vector
;	COMDAT ?reserve@?$vector@PAVioBlock@@V?$allocator@PAVioBlock@@@std@@@std@@QAEXI@Z
_TEXT	SEGMENT
__Count$ = 8						; size = 4
?reserve@?$vector@PAVioBlock@@V?$allocator@PAVioBlock@@@std@@@std@@QAEXI@Z PROC ; std::vector<ioBlock *,std::allocator<ioBlock *> >::reserve, COMDAT
; _this$ = ecx

; 746  : 		{	// determine new minimum length of allocated storage

  00000	55		 push	 ebp
  00001	8b ec		 mov	 ebp, esp

; 747  : 		if (max_size() < _Count)

  00003	81 7d 08 ff ff
	ff 3f		 cmp	 DWORD PTR __Count$[ebp], 1073741823 ; 3fffffffH
  0000a	56		 push	 esi
  0000b	8b f1		 mov	 esi, ecx
  0000d	76 0b		 jbe	 SHORT $LN5@reserve

; 748  : 			_Xlen();	// result too long

  0000f	68 00 00 00 00	 push	 OFFSET ??_C@_0BD@OLBABOEK@vector?$DMT?$DO?5too?5long?$AA@
  00014	ff 15 00 00 00
	00		 call	 DWORD PTR __imp_?_Xlength_error@std@@YAXPBD@Z
$LN43@reserve:
$LN5@reserve:

; 749  : 		else if (capacity() < _Count)

  0001a	8b 46 08	 mov	 eax, DWORD PTR [esi+8]
  0001d	2b 06		 sub	 eax, DWORD PTR [esi]
  0001f	c1 f8 02	 sar	 eax, 2
  00022	3b 45 08	 cmp	 eax, DWORD PTR __Count$[ebp]
  00025	73 52		 jae	 SHORT $LN3@reserve

; 750  : 			{	// not enough room, reallocate
; 751  : 			pointer _Ptr = this->_Alval.allocate(_Count);

  00027	53		 push	 ebx
  00028	57		 push	 edi
  00029	6a 00		 push	 0
  0002b	ff 75 08	 push	 DWORD PTR __Count$[ebp]
  0002e	e8 00 00 00 00	 call	 ??$_Allocate@PAVioBlock@@@std@@YAPAPAVioBlock@@IPAPAV1@@Z ; std::_Allocate<ioBlock *>

; 752  : 
; 753  : 			_TRY_BEGIN
; 754  : 			_Umove(this->_Myfirst, this->_Mylast, _Ptr);

  00033	8b 0e		 mov	 ecx, DWORD PTR [esi]
  00035	8d 56 0c	 lea	 edx, DWORD PTR [esi+12]
  00038	52		 push	 edx
  00039	8b d8		 mov	 ebx, eax
  0003b	8b 46 04	 mov	 eax, DWORD PTR [esi+4]
  0003e	53		 push	 ebx
  0003f	50		 push	 eax
  00040	51		 push	 ecx
  00041	e8 00 00 00 00	 call	 ??$_Uninitialized_move@PAPAVioBlock@@PAPAV1@V?$allocator@PAVioBlock@@@std@@@std@@YAPAPAVioBlock@@PAPAV1@00AAV?$allocator@PAVioBlock@@@0@@Z ; std::_Uninitialized_move<ioBlock * *,ioBlock * *,std::allocator<ioBlock *> >

; 755  : 			_CATCH_ALL
; 756  : 			this->_Alval.deallocate(_Ptr, _Count);
; 757  : 			_RERAISE;
; 758  : 			_CATCH_END
; 759  : 
; 760  : 			size_type _Size = size();

  00046	8b 06		 mov	 eax, DWORD PTR [esi]
  00048	8b 7e 04	 mov	 edi, DWORD PTR [esi+4]
  0004b	2b f8		 sub	 edi, eax
  0004d	83 c4 18	 add	 esp, 24			; 00000018H
  00050	c1 ff 02	 sar	 edi, 2

; 761  : 			if (this->_Myfirst != 0)

  00053	85 c0		 test	 eax, eax
  00055	74 07		 je	 SHORT $LN39@reserve

; 762  : 				{	// destroy and deallocate old array
; 763  : 				_Destroy(this->_Myfirst, this->_Mylast);
; 764  : 				this->_Alval.deallocate(this->_Myfirst,
; 765  : 					this->_Myend - this->_Myfirst);

  00057	50		 push	 eax
  00058	e8 00 00 00 00	 call	 ??3@YAXPAX@Z		; operator delete
  0005d	59		 pop	 ecx
$LN39@reserve:

; 766  : 				}
; 767  : 
; 768  : 			this->_Orphan_all();

  0005e	8b ce		 mov	 ecx, esi
  00060	ff 15 00 00 00
	00		 call	 DWORD PTR __imp_?_Orphan_all@_Container_base0@std@@QAEXXZ

; 769  : 			this->_Myend = _Ptr + _Count;

  00066	8b 45 08	 mov	 eax, DWORD PTR __Count$[ebp]
  00069	8d 04 83	 lea	 eax, DWORD PTR [ebx+eax*4]
  0006c	89 46 08	 mov	 DWORD PTR [esi+8], eax

; 770  : 			this->_Mylast = _Ptr + _Size;

  0006f	8d 04 bb	 lea	 eax, DWORD PTR [ebx+edi*4]
  00072	5f		 pop	 edi

; 771  : 			this->_Myfirst = _Ptr;

  00073	89 1e		 mov	 DWORD PTR [esi], ebx
  00075	89 46 04	 mov	 DWORD PTR [esi+4], eax
  00078	5b		 pop	 ebx
$LN3@reserve:
  00079	5e		 pop	 esi

; 772  : 			}
; 773  : 		}

  0007a	5d		 pop	 ebp
  0007b	c2 04 00	 ret	 4
$LN42@reserve:
?reserve@?$vector@PAVioBlock@@V?$allocator@PAVioBlock@@@std@@@std@@QAEXI@Z ENDP ; std::vector<ioBlock *,std::allocator<ioBlock *> >::reserve
_TEXT	ENDS
PUBLIC	?_Tidy@?$vector@HV?$allocator@H@std@@@std@@IAEXXZ ; std::vector<int,std::allocator<int> >::_Tidy
; Function compile flags: /Ogsp
;	COMDAT ?_Tidy@?$vector@HV?$allocator@H@std@@@std@@IAEXXZ
_TEXT	SEGMENT
?_Tidy@?$vector@HV?$allocator@H@std@@@std@@IAEXXZ PROC	; std::vector<int,std::allocator<int> >::_Tidy, COMDAT
; _this$ = ecx

; 1301 : 		{	// free all storage

  00000	56		 push	 esi
  00001	8b f1		 mov	 esi, ecx

; 1302 : 		if (this->_Myfirst != 0)

  00003	83 3e 00	 cmp	 DWORD PTR [esi], 0
  00006	74 0e		 je	 SHORT $LN12@Tidy

; 1303 : 			{	// something to free, destroy and deallocate it
; 1304 : 			this->_Orphan_all();

  00008	ff 15 00 00 00
	00		 call	 DWORD PTR __imp_?_Orphan_all@_Container_base0@std@@QAEXXZ

; 1305 : 			_Destroy(this->_Myfirst, this->_Mylast);
; 1306 : 			this->_Alval.deallocate(this->_Myfirst,
; 1307 : 				this->_Myend - this->_Myfirst);

  0000e	ff 36		 push	 DWORD PTR [esi]
  00010	e8 00 00 00 00	 call	 ??3@YAXPAX@Z		; operator delete
  00015	59		 pop	 ecx
$LN12@Tidy:

; 1308 : 			}
; 1309 : 		this->_Myfirst = 0;

  00016	83 26 00	 and	 DWORD PTR [esi], 0

; 1310 : 		this->_Mylast = 0;

  00019	83 66 04 00	 and	 DWORD PTR [esi+4], 0

; 1311 : 		this->_Myend = 0;

  0001d	83 66 08 00	 and	 DWORD PTR [esi+8], 0
  00021	5e		 pop	 esi

; 1312 : 		}

  00022	c3		 ret	 0
?_Tidy@?$vector@HV?$allocator@H@std@@@std@@IAEXXZ ENDP	; std::vector<int,std::allocator<int> >::_Tidy
_TEXT	ENDS
PUBLIC	?_Reserve@?$vector@PAVioBlock@@V?$allocator@PAVioBlock@@@std@@@std@@IAEXI@Z ; std::vector<ioBlock *,std::allocator<ioBlock *> >::_Reserve
; Function compile flags: /Ogsp
;	COMDAT ?_Reserve@?$vector@PAVioBlock@@V?$allocator@PAVioBlock@@@std@@@std@@IAEXI@Z
_TEXT	SEGMENT
__Count$ = 8						; size = 4
?_Reserve@?$vector@PAVioBlock@@V?$allocator@PAVioBlock@@@std@@@std@@IAEXI@Z PROC ; std::vector<ioBlock *,std::allocator<ioBlock *> >::_Reserve, COMDAT
; _this$ = ecx

; 1290 : 		{	// ensure room for _Count new elements, grow exponentially

  00000	55		 push	 ebp
  00001	8b ec		 mov	 ebp, esp
  00003	56		 push	 esi
  00004	8b f1		 mov	 esi, ecx

; 1291 : 		size_type _Size = size();

  00006	8b 0e		 mov	 ecx, DWORD PTR [esi]
  00008	8b 46 04	 mov	 eax, DWORD PTR [esi+4]
  0000b	2b c1		 sub	 eax, ecx

; 1292 : 		if (max_size() - _Count < _Size)

  0000d	ba ff ff ff 3f	 mov	 edx, 1073741823		; 3fffffffH
  00012	2b 55 08	 sub	 edx, DWORD PTR __Count$[ebp]
  00015	c1 f8 02	 sar	 eax, 2
  00018	3b d0		 cmp	 edx, eax
  0001a	73 0b		 jae	 SHORT $LN4@Reserve

; 1293 : 			_Xlen();

  0001c	68 00 00 00 00	 push	 OFFSET ??_C@_0BD@OLBABOEK@vector?$DMT?$DO?5too?5long?$AA@
  00021	ff 15 00 00 00
	00		 call	 DWORD PTR __imp_?_Xlength_error@std@@YAXPBD@Z
$LN21@Reserve:
$LN4@Reserve:

; 1294 : 		else if ((_Size += _Count) <= capacity())

  00027	8b 56 08	 mov	 edx, DWORD PTR [esi+8]
  0002a	03 45 08	 add	 eax, DWORD PTR __Count$[ebp]
  0002d	2b d1		 sub	 edx, ecx
  0002f	c1 fa 02	 sar	 edx, 2
  00032	3b c2		 cmp	 eax, edx
  00034	76 10		 jbe	 SHORT $LN1@Reserve

; 1295 : 			;
; 1296 : 		else
; 1297 : 			reserve(_Grow_to(_Size));

  00036	50		 push	 eax
  00037	8b ce		 mov	 ecx, esi
  00039	e8 00 00 00 00	 call	 ?_Grow_to@?$vector@PAVioBlock@@V?$allocator@PAVioBlock@@@std@@@std@@IBEII@Z ; std::vector<ioBlock *,std::allocator<ioBlock *> >::_Grow_to
  0003e	50		 push	 eax
  0003f	8b ce		 mov	 ecx, esi
  00041	e8 00 00 00 00	 call	 ?reserve@?$vector@PAVioBlock@@V?$allocator@PAVioBlock@@@std@@@std@@QAEXI@Z ; std::vector<ioBlock *,std::allocator<ioBlock *> >::reserve
$LN1@Reserve:
  00046	5e		 pop	 esi

; 1298 : 		}

  00047	5d		 pop	 ebp
  00048	c2 04 00	 ret	 4
$LN20@Reserve:
?_Reserve@?$vector@PAVioBlock@@V?$allocator@PAVioBlock@@@std@@@std@@IAEXI@Z ENDP ; std::vector<ioBlock *,std::allocator<ioBlock *> >::_Reserve
_TEXT	ENDS
PUBLIC	??1?$vector@HV?$allocator@H@std@@@std@@QAE@XZ	; std::vector<int,std::allocator<int> >::~vector<int,std::allocator<int> >
; Function compile flags: /Ogsp
;	COMDAT ??1?$vector@HV?$allocator@H@std@@@std@@QAE@XZ
_TEXT	SEGMENT
??1?$vector@HV?$allocator@H@std@@@std@@QAE@XZ PROC	; std::vector<int,std::allocator<int> >::~vector<int,std::allocator<int> >, COMDAT
; _this$ = ecx

; 705  : 		_Tidy();

  00000	e9 00 00 00 00	 jmp	 ?_Tidy@?$vector@HV?$allocator@H@std@@@std@@IAEXXZ ; std::vector<int,std::allocator<int> >::_Tidy
??1?$vector@HV?$allocator@H@std@@@std@@QAE@XZ ENDP	; std::vector<int,std::allocator<int> >::~vector<int,std::allocator<int> >
_TEXT	ENDS
PUBLIC	?push_back@?$vector@PAVioBlock@@V?$allocator@PAVioBlock@@@std@@@std@@QAEXABQAVioBlock@@@Z ; std::vector<ioBlock *,std::allocator<ioBlock *> >::push_back
; Function compile flags: /Ogsp
;	COMDAT ?push_back@?$vector@PAVioBlock@@V?$allocator@PAVioBlock@@@std@@@std@@QAEXABQAVioBlock@@@Z
_TEXT	SEGMENT
__Val$ = 8						; size = 4
?push_back@?$vector@PAVioBlock@@V?$allocator@PAVioBlock@@@std@@@std@@QAEXABQAVioBlock@@@Z PROC ; std::vector<ioBlock *,std::allocator<ioBlock *> >::push_back, COMDAT
; _this$ = ecx

; 976  : 		{	// insert element at end

  00000	55		 push	 ebp
  00001	8b ec		 mov	 ebp, esp
  00003	56		 push	 esi
  00004	8b f1		 mov	 esi, ecx

; 977  : 		if (_Inside(_STD addressof(_Val)))

  00006	8b 46 04	 mov	 eax, DWORD PTR [esi+4]
  00009	57		 push	 edi
  0000a	8b 7d 08	 mov	 edi, DWORD PTR __Val$[ebp]
  0000d	3b f8		 cmp	 edi, eax
  0000f	73 27		 jae	 SHORT $LN4@push_back
  00011	8b 0e		 mov	 ecx, DWORD PTR [esi]
  00013	3b cf		 cmp	 ecx, edi
  00015	77 21		 ja	 SHORT $LN4@push_back

; 978  : 			{	// push back an element
; 979  : 			size_type _Idx = _STD addressof(_Val) - this->_Myfirst;

  00017	2b f9		 sub	 edi, ecx
  00019	c1 ff 02	 sar	 edi, 2

; 980  : 			if (this->_Mylast == this->_Myend)

  0001c	3b 46 08	 cmp	 eax, DWORD PTR [esi+8]
  0001f	75 09		 jne	 SHORT $LN3@push_back

; 981  : 				_Reserve(1);

  00021	6a 01		 push	 1
  00023	8b ce		 mov	 ecx, esi
  00025	e8 00 00 00 00	 call	 ?_Reserve@?$vector@PAVioBlock@@V?$allocator@PAVioBlock@@@std@@@std@@IAEXI@Z ; std::vector<ioBlock *,std::allocator<ioBlock *> >::_Reserve
$LN3@push_back:

; 982  : 			_Orphan_range(this->_Mylast, this->_Mylast);
; 983  : 			_Cons_val(this->_Alval,
; 984  : 				this->_Mylast,
; 985  : 				this->_Myfirst[_Idx]);

  0002a	8b 46 04	 mov	 eax, DWORD PTR [esi+4]
  0002d	85 c0		 test	 eax, eax
  0002f	74 20		 je	 SHORT $LN39@push_back
  00031	8b 0e		 mov	 ecx, DWORD PTR [esi]
  00033	8b 0c b9	 mov	 ecx, DWORD PTR [ecx+edi*4]

; 986  : 			++this->_Mylast;
; 987  : 			}
; 988  : 		else

  00036	eb 17		 jmp	 SHORT $LN46@push_back
$LN4@push_back:

; 989  : 			{	// push back a non-element
; 990  : 			if (this->_Mylast == this->_Myend)

  00038	3b 46 08	 cmp	 eax, DWORD PTR [esi+8]
  0003b	75 09		 jne	 SHORT $LN1@push_back

; 991  : 				_Reserve(1);

  0003d	6a 01		 push	 1
  0003f	8b ce		 mov	 ecx, esi
  00041	e8 00 00 00 00	 call	 ?_Reserve@?$vector@PAVioBlock@@V?$allocator@PAVioBlock@@@std@@@std@@IAEXI@Z ; std::vector<ioBlock *,std::allocator<ioBlock *> >::_Reserve
$LN1@push_back:

; 992  : 			_Orphan_range(this->_Mylast, this->_Mylast);
; 993  : 			_Cons_val(this->_Alval,
; 994  : 				this->_Mylast,
; 995  : 				_Val);

  00046	8b 46 04	 mov	 eax, DWORD PTR [esi+4]
  00049	85 c0		 test	 eax, eax
  0004b	74 04		 je	 SHORT $LN39@push_back
  0004d	8b 0f		 mov	 ecx, DWORD PTR [edi]
$LN46@push_back:
  0004f	89 08		 mov	 DWORD PTR [eax], ecx
$LN39@push_back:

; 996  : 			++this->_Mylast;

  00051	83 46 04 04	 add	 DWORD PTR [esi+4], 4
  00055	5f		 pop	 edi
  00056	5e		 pop	 esi

; 997  : 			}
; 998  : 		}

  00057	5d		 pop	 ebp
  00058	c2 04 00	 ret	 4
?push_back@?$vector@PAVioBlock@@V?$allocator@PAVioBlock@@@std@@@std@@QAEXABQAVioBlock@@@Z ENDP ; std::vector<ioBlock *,std::allocator<ioBlock *> >::push_back
_TEXT	ENDS
PUBLIC	?GetBlockByTop@ioBlockMapBase@@QAEXABUD3DXVECTOR3@@AAV?$vector@PAVioBlock@@V?$allocator@PAVioBlock@@@std@@@std@@@Z ; ioBlockMapBase::GetBlockByTop
; Function compile flags: /Ogsp
; File d:\lost saga for developer\youtube\tutorial\source\src\lsclient\housing\ioblockmapbase.cpp
;	COMDAT ?GetBlockByTop@ioBlockMapBase@@QAEXABUD3DXVECTOR3@@AAV?$vector@PAVioBlock@@V?$allocator@PAVioBlock@@@std@@@std@@@Z
_TEXT	SEGMENT
_Pos$ = -20						; size = 16
_pBlock$515223 = -4					; size = 4
_i$515217 = 8						; size = 4
_vPos$ = 8						; size = 4
_List$ = 12						; size = 4
?GetBlockByTop@ioBlockMapBase@@QAEXABUD3DXVECTOR3@@AAV?$vector@PAVioBlock@@V?$allocator@PAVioBlock@@@std@@@std@@@Z PROC ; ioBlockMapBase::GetBlockByTop, COMDAT
; _this$ = ecx

; 197  : {

  00000	55		 push	 ebp
  00001	8b ec		 mov	 ebp, esp
  00003	83 ec 14	 sub	 esp, 20			; 00000014H

; 198  : 	TilePos Pos;

  00006	83 4d f4 ff	 or	 DWORD PTR _Pos$[ebp+8], -1
  0000a	83 4d f0 ff	 or	 DWORD PTR _Pos$[ebp+4], -1
  0000e	83 4d ec ff	 or	 DWORD PTR _Pos$[ebp], -1
  00012	83 65 f8 00	 and	 DWORD PTR _Pos$[ebp+12], 0
  00016	53		 push	 ebx
  00017	56		 push	 esi
  00018	57		 push	 edi

; 199  : 	WorldCoordToTileCoord( vPos, Pos );

  00019	8d 45 ec	 lea	 eax, DWORD PTR _Pos$[ebp]
  0001c	50		 push	 eax
  0001d	ff 75 08	 push	 DWORD PTR _vPos$[ebp]
  00020	8b d9		 mov	 ebx, ecx
  00022	e8 00 00 00 00	 call	 ?WorldCoordToTileCoord@ioBlockMapBase@@QAEXABUD3DXVECTOR3@@AAVTilePos@@@Z ; ioBlockMapBase::WorldCoordToTileCoord

; 200  : 
; 201  : 	for( int i = m_nHeightMax; i >= 0 ; --i )

  00027	8b 43 5c	 mov	 eax, DWORD PTR [ebx+92]
  0002a	89 45 08	 mov	 DWORD PTR _i$515217[ebp], eax
  0002d	85 c0		 test	 eax, eax
  0002f	78 39		 js	 SHORT $LN3@GetBlockBy@3
$LL15@GetBlockBy@3:

; 202  : 	{
; 203  : 		PosMapContainer* pContainer = GetPosMapContainer( i );

  00031	ff 75 08	 push	 DWORD PTR _i$515217[ebp]
  00034	8b cb		 mov	 ecx, ebx
  00036	e8 00 00 00 00	 call	 ?GetPosMapContainer@ioBlockMapBase@@QAEPAV?$ioPosMapContainer@PAVioBlock@@@@H@Z ; ioBlockMapBase::GetPosMapContainer

; 204  : 		if( !pContainer )

  0003b	85 c0		 test	 eax, eax
  0003d	74 26		 je	 SHORT $LN4@GetBlockBy@3

; 205  : 			continue;
; 206  : 
; 207  : 		ioBlock* pBlock = pContainer->GetElement( Pos );

  0003f	8b 10		 mov	 edx, DWORD PTR [eax]
  00041	83 ec 10	 sub	 esp, 16			; 00000010H
  00044	8b fc		 mov	 edi, esp
  00046	8d 75 ec	 lea	 esi, DWORD PTR _Pos$[ebp]
  00049	a5		 movsd
  0004a	a5		 movsd
  0004b	a5		 movsd
  0004c	8b c8		 mov	 ecx, eax
  0004e	a5		 movsd
  0004f	ff 52 14	 call	 DWORD PTR [edx+20]
  00052	89 45 fc	 mov	 DWORD PTR _pBlock$515223[ebp], eax

; 208  : 		if( !pBlock )

  00055	85 c0		 test	 eax, eax
  00057	74 0c		 je	 SHORT $LN4@GetBlockBy@3

; 209  : 			continue;
; 210  : 
; 211  : 		List.push_back( pBlock );

  00059	8b 4d 0c	 mov	 ecx, DWORD PTR _List$[ebp]
  0005c	8d 45 fc	 lea	 eax, DWORD PTR _pBlock$515223[ebp]
  0005f	50		 push	 eax
  00060	e8 00 00 00 00	 call	 ?push_back@?$vector@PAVioBlock@@V?$allocator@PAVioBlock@@@std@@@std@@QAEXABQAVioBlock@@@Z ; std::vector<ioBlock *,std::allocator<ioBlock *> >::push_back
$LN4@GetBlockBy@3:

; 200  : 
; 201  : 	for( int i = m_nHeightMax; i >= 0 ; --i )

  00065	ff 4d 08	 dec	 DWORD PTR _i$515217[ebp]
  00068	79 c7		 jns	 SHORT $LL15@GetBlockBy@3
$LN3@GetBlockBy@3:

; 212  : 	}
; 213  : }

  0006a	5f		 pop	 edi
  0006b	5e		 pop	 esi
  0006c	5b		 pop	 ebx
  0006d	c9		 leave
  0006e	c2 08 00	 ret	 8
?GetBlockByTop@ioBlockMapBase@@QAEXABUD3DXVECTOR3@@AAV?$vector@PAVioBlock@@V?$allocator@PAVioBlock@@@std@@@std@@@Z ENDP ; ioBlockMapBase::GetBlockByTop
_TEXT	ENDS
PUBLIC	?FindBlockIndexList@ioBlockMapBase@@QAEXABVioRay@@AAV?$vector@PAVioBlock@@V?$allocator@PAVioBlock@@@std@@@std@@@Z ; ioBlockMapBase::FindBlockIndexList
EXTRN	?FindBlockIndexList@ioPosMapQuadTree@@QAE_NABVioRay@@AAV?$vector@HV?$allocator@H@std@@@std@@@Z:PROC ; ioPosMapQuadTree::FindBlockIndexList
EXTRN	__EH_epilog3:PROC
EXTRN	__EH_prolog3:PROC
;	COMDAT xdata$x
; File c:\program files (x86)\microsoft visual studio 10.0\vc\include\vector
xdata$x	SEGMENT
__unwindtable$?FindBlockIndexList@ioBlockMapBase@@QAEXABVioRay@@AAV?$vector@PAVioBlock@@V?$allocator@PAVioBlock@@@std@@@std@@@Z DD 0ffffffffH
	DD	FLAT:__unwindfunclet$?FindBlockIndexList@ioBlockMapBase@@QAEXABVioRay@@AAV?$vector@PAVioBlock@@V?$allocator@PAVioBlock@@@std@@@std@@@Z$0
__ehfuncinfo$?FindBlockIndexList@ioBlockMapBase@@QAEXABVioRay@@AAV?$vector@PAVioBlock@@V?$allocator@PAVioBlock@@@std@@@std@@@Z DD 019930522H
	DD	01H
	DD	FLAT:__unwindtable$?FindBlockIndexList@ioBlockMapBase@@QAEXABVioRay@@AAV?$vector@PAVioBlock@@V?$allocator@PAVioBlock@@@std@@@std@@@Z
	DD	2 DUP(00H)
	DD	2 DUP(00H)
	DD	00H
	DD	01H
; Function compile flags: /Ogsp
; File d:\lost saga for developer\youtube\tutorial\source\src\lsclient\housing\ioblockmapbase.cpp
xdata$x	ENDS
;	COMDAT ?FindBlockIndexList@ioBlockMapBase@@QAEXABVioRay@@AAV?$vector@PAVioBlock@@V?$allocator@PAVioBlock@@@std@@@std@@@Z
_TEXT	SEGMENT
_IndexList$515295 = -32					; size = 16
_pBlock$515307 = -16					; size = 4
__$EHRec$ = -12						; size = 12
_i$515296 = 8						; size = 4
_kYRay$ = 8						; size = 4
_List$ = 12						; size = 4
?FindBlockIndexList@ioBlockMapBase@@QAEXABVioRay@@AAV?$vector@PAVioBlock@@V?$allocator@PAVioBlock@@@std@@@std@@@Z PROC ; ioBlockMapBase::FindBlockIndexList, COMDAT
; _this$ = ecx

; 311  : {

  00000	6a 14		 push	 20			; 00000014H
  00002	b8 00 00 00 00	 mov	 eax, __ehhandler$?FindBlockIndexList@ioBlockMapBase@@QAEXABVioRay@@AAV?$vector@PAVioBlock@@V?$allocator@PAVioBlock@@@std@@@std@@@Z
  00007	e8 00 00 00 00	 call	 __EH_prolog3
  0000c	8b d9		 mov	 ebx, ecx

; 312  : 	if( m_pBlockQuadTree )

  0000e	8b 4b 04	 mov	 ecx, DWORD PTR [ebx+4]
  00011	33 f6		 xor	 esi, esi
  00013	3b ce		 cmp	 ecx, esi
  00015	0f 84 8a 00 00
	00		 je	 $LN25@FindBlockI

; 313  : 	{
; 314  : 		IntVec IndexList;

  0001b	89 75 e0	 mov	 DWORD PTR _IndexList$515295[ebp], esi
  0001e	89 75 e4	 mov	 DWORD PTR _IndexList$515295[ebp+4], esi
  00021	89 75 e8	 mov	 DWORD PTR _IndexList$515295[ebp+8], esi

; 315  : 		m_pBlockQuadTree->FindBlockIndexList( kYRay, IndexList );

  00024	8d 45 e0	 lea	 eax, DWORD PTR _IndexList$515295[ebp]
  00027	50		 push	 eax
  00028	ff 75 08	 push	 DWORD PTR _kYRay$[ebp]
  0002b	89 75 fc	 mov	 DWORD PTR __$EHRec$[ebp+8], esi
  0002e	e8 00 00 00 00	 call	 ?FindBlockIndexList@ioPosMapQuadTree@@QAE_NABVioRay@@AAV?$vector@HV?$allocator@H@std@@@std@@@Z ; ioPosMapQuadTree::FindBlockIndexList

; 316  : 
; 317  : 		for( int i = 0; i < m_nHeightMax; ++i )

  00033	89 75 08	 mov	 DWORD PTR _i$515296[ebp], esi
  00036	39 73 5c	 cmp	 DWORD PTR [ebx+92], esi
  00039	7e 5e		 jle	 SHORT $LN6@FindBlockI
  0003b	eb 02		 jmp	 SHORT $LN8@FindBlockI
$LL34@FindBlockI:
  0003d	33 f6		 xor	 esi, esi
$LN8@FindBlockI:

; 318  : 		{
; 319  : 			PosMapContainer* pContainer = GetPosMapContainer( i );

  0003f	ff 75 08	 push	 DWORD PTR _i$515296[ebp]
  00042	8b cb		 mov	 ecx, ebx
  00044	e8 00 00 00 00	 call	 ?GetPosMapContainer@ioBlockMapBase@@QAEPAV?$ioPosMapContainer@PAVioBlock@@@@H@Z ; ioBlockMapBase::GetPosMapContainer
  00049	8b f8		 mov	 edi, eax

; 320  : 			if( !pContainer )

  0004b	3b fe		 cmp	 edi, esi
  0004d	74 3f		 je	 SHORT $LN7@FindBlockI

; 321  : 				continue;
; 322  : 
; 323  : 			for( int nPos = 0; nPos < (int)IndexList.size(); ++nPos )

  0004f	8b 4d e4	 mov	 ecx, DWORD PTR _IndexList$515295[ebp+4]
  00052	8b 45 e0	 mov	 eax, DWORD PTR _IndexList$515295[ebp]
  00055	2b c8		 sub	 ecx, eax
  00057	f7 c1 fc ff ff
	ff		 test	 ecx, -4			; fffffffcH
  0005d	7e 2f		 jle	 SHORT $LN7@FindBlockI
$LL4@FindBlockI:

; 324  : 			{
; 325  : 				ioBlock* pBlock = pContainer->GetElement( IndexList[nPos] );

  0005f	8b 17		 mov	 edx, DWORD PTR [edi]
  00061	8d 04 b0	 lea	 eax, DWORD PTR [eax+esi*4]
  00064	ff 30		 push	 DWORD PTR [eax]
  00066	8b cf		 mov	 ecx, edi
  00068	ff 52 10	 call	 DWORD PTR [edx+16]
  0006b	89 45 f0	 mov	 DWORD PTR _pBlock$515307[ebp], eax

; 326  : 				if( !pBlock )

  0006e	85 c0		 test	 eax, eax
  00070	74 0c		 je	 SHORT $LN3@FindBlockI

; 327  : 					continue;
; 328  : 
; 329  : 				List.push_back( pBlock );

  00072	8b 4d 0c	 mov	 ecx, DWORD PTR _List$[ebp]
  00075	8d 45 f0	 lea	 eax, DWORD PTR _pBlock$515307[ebp]
  00078	50		 push	 eax
  00079	e8 00 00 00 00	 call	 ?push_back@?$vector@PAVioBlock@@V?$allocator@PAVioBlock@@@std@@@std@@QAEXABQAVioBlock@@@Z ; std::vector<ioBlock *,std::allocator<ioBlock *> >::push_back
$LN3@FindBlockI:

; 321  : 				continue;
; 322  : 
; 323  : 			for( int nPos = 0; nPos < (int)IndexList.size(); ++nPos )

  0007e	8b 4d e4	 mov	 ecx, DWORD PTR _IndexList$515295[ebp+4]
  00081	8b 45 e0	 mov	 eax, DWORD PTR _IndexList$515295[ebp]
  00084	2b c8		 sub	 ecx, eax
  00086	46		 inc	 esi
  00087	c1 f9 02	 sar	 ecx, 2
  0008a	3b f1		 cmp	 esi, ecx
  0008c	7c d1		 jl	 SHORT $LL4@FindBlockI
$LN7@FindBlockI:

; 316  : 
; 317  : 		for( int i = 0; i < m_nHeightMax; ++i )

  0008e	ff 45 08	 inc	 DWORD PTR _i$515296[ebp]
  00091	8b 45 08	 mov	 eax, DWORD PTR _i$515296[ebp]
  00094	3b 43 5c	 cmp	 eax, DWORD PTR [ebx+92]
  00097	7c a4		 jl	 SHORT $LL34@FindBlockI
$LN6@FindBlockI:

; 330  : 			}
; 331  : 		}
; 332  : 	}

  00099	83 4d fc ff	 or	 DWORD PTR __$EHRec$[ebp+8], -1
  0009d	8d 4d e0	 lea	 ecx, DWORD PTR _IndexList$515295[ebp]
  000a0	e8 00 00 00 00	 call	 ?_Tidy@?$vector@HV?$allocator@H@std@@@std@@IAEXXZ ; std::vector<int,std::allocator<int> >::_Tidy
$LN25@FindBlockI:

; 333  : }

  000a5	e8 00 00 00 00	 call	 __EH_epilog3
  000aa	c2 08 00	 ret	 8
_TEXT	ENDS
;	COMDAT text$x
text$x	SEGMENT
__unwindfunclet$?FindBlockIndexList@ioBlockMapBase@@QAEXABVioRay@@AAV?$vector@PAVioBlock@@V?$allocator@PAVioBlock@@@std@@@std@@@Z$0:
  00000	8d 4d e0	 lea	 ecx, DWORD PTR _IndexList$515295[ebp]
  00003	e9 00 00 00 00	 jmp	 ??1?$vector@HV?$allocator@H@std@@@std@@QAE@XZ ; std::vector<int,std::allocator<int> >::~vector<int,std::allocator<int> >
__ehhandler$?FindBlockIndexList@ioBlockMapBase@@QAEXABVioRay@@AAV?$vector@PAVioBlock@@V?$allocator@PAVioBlock@@@std@@@std@@@Z:
  00008	8b 54 24 08	 mov	 edx, DWORD PTR [esp+8]
  0000c	8d 42 0c	 lea	 eax, DWORD PTR [edx+12]
  0000f	8b 4a dc	 mov	 ecx, DWORD PTR [edx-36]
  00012	33 c8		 xor	 ecx, eax
  00014	e8 00 00 00 00	 call	 @__security_check_cookie@4
  00019	b8 00 00 00 00	 mov	 eax, OFFSET __ehfuncinfo$?FindBlockIndexList@ioBlockMapBase@@QAEXABVioRay@@AAV?$vector@PAVioBlock@@V?$allocator@PAVioBlock@@@std@@@std@@@Z
  0001e	e9 00 00 00 00	 jmp	 ___CxxFrameHandler3
text$x	ENDS
?FindBlockIndexList@ioBlockMapBase@@QAEXABVioRay@@AAV?$vector@PAVioBlock@@V?$allocator@PAVioBlock@@@std@@@std@@@Z ENDP ; ioBlockMapBase::FindBlockIndexList
_BSS	SEGMENT
_ZERO_TILE_POS DB 010H DUP (?)
_BSS	ENDS
END
