; Listing generated by Microsoft (R) Optimizing Compiler Version 16.00.30319.01 

	TITLE	D:\Lost Saga For Developer\Youtube\Tutorial\Source\src\LSClient\ioBowItemMarker.cpp
	.686P
	.XMM
	include listing.inc
	.model	flat

INCLUDELIB MSVCRT
INCLUDELIB OLDNAMES

PUBLIC	?_EEM_DS@?$deque@UD3DXVECTOR3@@V?$allocator@UD3DXVECTOR3@@@std@@@std@@2HB ; std::deque<D3DXVECTOR3,std::allocator<D3DXVECTOR3> >::_EEM_DS
;	COMDAT ?_EEM_DS@?$deque@UD3DXVECTOR3@@V?$allocator@UD3DXVECTOR3@@@std@@@std@@2HB
CONST	SEGMENT
?_EEM_DS@?$deque@UD3DXVECTOR3@@V?$allocator@UD3DXVECTOR3@@@std@@@std@@2HB DD 01H ; std::deque<D3DXVECTOR3,std::allocator<D3DXVECTOR3> >::_EEM_DS
CONST	ENDS
PUBLIC	?return1@@YAIXZ					; return1
; Function compile flags: /Ogsp
; File d:\lost saga for developer\youtube\tutorial\source\src\lsclient\stdafx.h
;	COMDAT ?return1@@YAIXZ
_TEXT	SEGMENT
?return1@@YAIXZ PROC					; return1, COMDAT

; 17   : 	__forceinline unsigned int return1() { __asm mov eax, 1 };

  00000	b8 01 00 00 00	 mov	 eax, 1
  00005	c3		 ret	 0
?return1@@YAIXZ ENDP					; return1
_TEXT	ENDS
PUBLIC	?return5@@YAIXZ					; return5
; Function compile flags: /Ogsp
;	COMDAT ?return5@@YAIXZ
_TEXT	SEGMENT
?return5@@YAIXZ PROC					; return5, COMDAT

; 18   : 	__forceinline unsigned int return5() { __asm mov eax, 5 };

  00000	b8 05 00 00 00	 mov	 eax, 5
  00005	c3		 ret	 0
?return5@@YAIXZ ENDP					; return5
_TEXT	ENDS
PUBLIC	?return10@@YAIXZ				; return10
; Function compile flags: /Ogsp
;	COMDAT ?return10@@YAIXZ
_TEXT	SEGMENT
?return10@@YAIXZ PROC					; return10, COMDAT

; 21   : 	__forceinline unsigned int return10() { __asm mov eax, 10 };

  00000	b8 0a 00 00 00	 mov	 eax, 10			; 0000000aH
  00005	c3		 ret	 0
?return10@@YAIXZ ENDP					; return10
_TEXT	ENDS
PUBLIC	?IsOwnerChar@ioBaseChar@@QBE_NXZ		; ioBaseChar::IsOwnerChar
; Function compile flags: /Ogsp
; File d:\lost saga for developer\youtube\tutorial\source\src\lsclient\iobasechar.h
;	COMDAT ?IsOwnerChar@ioBaseChar@@QBE_NXZ
_TEXT	SEGMENT
?IsOwnerChar@ioBaseChar@@QBE_NXZ PROC			; ioBaseChar::IsOwnerChar, COMDAT
; _this$ = ecx

; 1467 : 	inline bool IsOwnerChar() const { return m_bOwnerChar; }

  00000	8a 81 84 13 00
	00		 mov	 al, BYTE PTR [ecx+4996]
  00006	c3		 ret	 0
?IsOwnerChar@ioBaseChar@@QBE_NXZ ENDP			; ioBaseChar::IsOwnerChar
_TEXT	ENDS
PUBLIC	?GetState@ioBaseChar@@QBE?AW4CharState@@XZ	; ioBaseChar::GetState
; Function compile flags: /Ogsp
;	COMDAT ?GetState@ioBaseChar@@QBE?AW4CharState@@XZ
_TEXT	SEGMENT
?GetState@ioBaseChar@@QBE?AW4CharState@@XZ PROC		; ioBaseChar::GetState, COMDAT
; _this$ = ecx

; 2156 : 	inline CharState GetState() const { return m_CharState; }	

  00000	8a 81 10 03 00
	00		 mov	 al, BYTE PTR [ecx+784]
  00006	c3		 ret	 0
?GetState@ioBaseChar@@QBE?AW4CharState@@XZ ENDP		; ioBaseChar::GetState
_TEXT	ENDS
PUBLIC	?GetTargetRot@ioBaseChar@@QBEABUD3DXQUATERNION@@XZ ; ioBaseChar::GetTargetRot
; Function compile flags: /Ogsp
;	COMDAT ?GetTargetRot@ioBaseChar@@QBEABUD3DXQUATERNION@@XZ
_TEXT	SEGMENT
?GetTargetRot@ioBaseChar@@QBEABUD3DXQUATERNION@@XZ PROC	; ioBaseChar::GetTargetRot, COMDAT
; _this$ = ecx

; 2599 : 	inline const D3DXQUATERNION& GetTargetRot() const { return m_qtTargetRot; }

  00000	8d 81 a4 06 00
	00		 lea	 eax, DWORD PTR [ecx+1700]
  00006	c3		 ret	 0
?GetTargetRot@ioBaseChar@@QBEABUD3DXQUATERNION@@XZ ENDP	; ioBaseChar::GetTargetRot
_TEXT	ENDS
PUBLIC	??_7ioBowItemMarker@@6B@			; ioBowItemMarker::`vftable'
PUBLIC	??0ioBowItemMarker@@QAE@PAVioBaseChar@@@Z	; ioBowItemMarker::ioBowItemMarker
PUBLIC	??_R4ioBowItemMarker@@6B@			; ioBowItemMarker::`RTTI Complete Object Locator'
PUBLIC	??_R0?AVioBowItemMarker@@@8			; ioBowItemMarker `RTTI Type Descriptor'
PUBLIC	??_R3ioBowItemMarker@@8				; ioBowItemMarker::`RTTI Class Hierarchy Descriptor'
PUBLIC	??_R2ioBowItemMarker@@8				; ioBowItemMarker::`RTTI Base Class Array'
PUBLIC	??_R1A@?0A@EA@ioBowItemMarker@@8		; ioBowItemMarker::`RTTI Base Class Descriptor at (0,-1,0,64)'
PUBLIC	??_R1A@?0A@EA@ioTargetMarker@@8			; ioTargetMarker::`RTTI Base Class Descriptor at (0,-1,0,64)'
PUBLIC	??_R0?AVioTargetMarker@@@8			; ioTargetMarker `RTTI Type Descriptor'
PUBLIC	??_R3ioTargetMarker@@8				; ioTargetMarker::`RTTI Class Hierarchy Descriptor'
PUBLIC	??_R2ioTargetMarker@@8				; ioTargetMarker::`RTTI Base Class Array'
PUBLIC	?SetMarkerState@ioBowItemMarker@@UAEXPAVioPlayStage@@W4MarkerState@ioTargetMarker@@@Z ; ioBowItemMarker::SetMarkerState
PUBLIC	?CreateEffect@ioBowItemMarker@@MAEKPAVioPlayStage@@ABVioHashString@@@Z ; ioBowItemMarker::CreateEffect
PUBLIC	?Update@ioBowItemMarker@@UAEXPAVioPlayStage@@@Z	; ioBowItemMarker::Update
PUBLIC	?GetMarkerType@ioBowItemMarker@@UBE?AW4MarkerType@ioTargetMarker@@XZ ; ioBowItemMarker::GetMarkerType
EXTRN	??0ioTargetMarker@@QAE@PAVioBaseChar@@@Z:PROC	; ioTargetMarker::ioTargetMarker
EXTRN	??_7type_info@@6B@:QWORD			; type_info::`vftable'
EXTRN	?SetTarget@ioTargetMarker@@UAEXABVioHashString@@_N@Z:PROC ; ioTargetMarker::SetTarget
EXTRN	?IsTarget@ioTargetMarker@@UAE_NXZ:PROC		; ioTargetMarker::IsTarget
EXTRN	??_EioBowItemMarker@@UAEPAXI@Z:PROC		; ioBowItemMarker::`vector deleting destructor'
;	COMDAT ??_R2ioTargetMarker@@8
; File d:\lost saga for developer\youtube\tutorial\source\src\lsclient\iobowitemmarker.cpp
rdata$r	SEGMENT
??_R2ioTargetMarker@@8 DD FLAT:??_R1A@?0A@EA@ioTargetMarker@@8 ; ioTargetMarker::`RTTI Base Class Array'
rdata$r	ENDS
;	COMDAT ??_R3ioTargetMarker@@8
rdata$r	SEGMENT
??_R3ioTargetMarker@@8 DD 00H				; ioTargetMarker::`RTTI Class Hierarchy Descriptor'
	DD	00H
	DD	01H
	DD	FLAT:??_R2ioTargetMarker@@8
rdata$r	ENDS
;	COMDAT ??_R0?AVioTargetMarker@@@8
_DATA	SEGMENT
??_R0?AVioTargetMarker@@@8 DD FLAT:??_7type_info@@6B@	; ioTargetMarker `RTTI Type Descriptor'
	DD	00H
	DB	'.?AVioTargetMarker@@', 00H
_DATA	ENDS
;	COMDAT ??_R1A@?0A@EA@ioTargetMarker@@8
rdata$r	SEGMENT
??_R1A@?0A@EA@ioTargetMarker@@8 DD FLAT:??_R0?AVioTargetMarker@@@8 ; ioTargetMarker::`RTTI Base Class Descriptor at (0,-1,0,64)'
	DD	00H
	DD	00H
	DD	0ffffffffH
	DD	00H
	DD	040H
	DD	FLAT:??_R3ioTargetMarker@@8
rdata$r	ENDS
;	COMDAT ??_R1A@?0A@EA@ioBowItemMarker@@8
rdata$r	SEGMENT
??_R1A@?0A@EA@ioBowItemMarker@@8 DD FLAT:??_R0?AVioBowItemMarker@@@8 ; ioBowItemMarker::`RTTI Base Class Descriptor at (0,-1,0,64)'
	DD	01H
	DD	00H
	DD	0ffffffffH
	DD	00H
	DD	040H
	DD	FLAT:??_R3ioBowItemMarker@@8
rdata$r	ENDS
;	COMDAT ??_R2ioBowItemMarker@@8
rdata$r	SEGMENT
??_R2ioBowItemMarker@@8 DD FLAT:??_R1A@?0A@EA@ioBowItemMarker@@8 ; ioBowItemMarker::`RTTI Base Class Array'
	DD	FLAT:??_R1A@?0A@EA@ioTargetMarker@@8
rdata$r	ENDS
;	COMDAT ??_R3ioBowItemMarker@@8
rdata$r	SEGMENT
??_R3ioBowItemMarker@@8 DD 00H				; ioBowItemMarker::`RTTI Class Hierarchy Descriptor'
	DD	00H
	DD	02H
	DD	FLAT:??_R2ioBowItemMarker@@8
rdata$r	ENDS
;	COMDAT ??_R0?AVioBowItemMarker@@@8
_DATA	SEGMENT
??_R0?AVioBowItemMarker@@@8 DD FLAT:??_7type_info@@6B@	; ioBowItemMarker `RTTI Type Descriptor'
	DD	00H
	DB	'.?AVioBowItemMarker@@', 00H
_DATA	ENDS
;	COMDAT ??_R4ioBowItemMarker@@6B@
rdata$r	SEGMENT
??_R4ioBowItemMarker@@6B@ DD 00H			; ioBowItemMarker::`RTTI Complete Object Locator'
	DD	00H
	DD	00H
	DD	FLAT:??_R0?AVioBowItemMarker@@@8
	DD	FLAT:??_R3ioBowItemMarker@@8
rdata$r	ENDS
;	COMDAT ??_7ioBowItemMarker@@6B@
CONST	SEGMENT
??_7ioBowItemMarker@@6B@ DD FLAT:??_R4ioBowItemMarker@@6B@ ; ioBowItemMarker::`vftable'
	DD	FLAT:?SetMarkerState@ioBowItemMarker@@UAEXPAVioPlayStage@@W4MarkerState@ioTargetMarker@@@Z
	DD	FLAT:?SetTarget@ioTargetMarker@@UAEXABVioHashString@@_N@Z
	DD	FLAT:?IsTarget@ioTargetMarker@@UAE_NXZ
	DD	FLAT:?CreateEffect@ioBowItemMarker@@MAEKPAVioPlayStage@@ABVioHashString@@@Z
	DD	FLAT:?Update@ioBowItemMarker@@UAEXPAVioPlayStage@@@Z
	DD	FLAT:?GetMarkerType@ioBowItemMarker@@UBE?AW4MarkerType@ioTargetMarker@@XZ
	DD	FLAT:??_EioBowItemMarker@@UAEPAXI@Z
; Function compile flags: /Ogsp
CONST	ENDS
;	COMDAT ??0ioBowItemMarker@@QAE@PAVioBaseChar@@@Z
_TEXT	SEGMENT
_pOwner$ = 8						; size = 4
??0ioBowItemMarker@@QAE@PAVioBaseChar@@@Z PROC		; ioBowItemMarker::ioBowItemMarker, COMDAT
; _this$ = ecx

; 10   : {

  00000	55		 push	 ebp
  00001	8b ec		 mov	 ebp, esp
  00003	56		 push	 esi
  00004	ff 75 08	 push	 DWORD PTR _pOwner$[ebp]
  00007	8b f1		 mov	 esi, ecx
  00009	e8 00 00 00 00	 call	 ??0ioTargetMarker@@QAE@PAVioBaseChar@@@Z ; ioTargetMarker::ioTargetMarker
  0000e	c7 06 00 00 00
	00		 mov	 DWORD PTR [esi], OFFSET ??_7ioBowItemMarker@@6B@

; 11   : }

  00014	8b c6		 mov	 eax, esi
  00016	5e		 pop	 esi
  00017	5d		 pop	 ebp
  00018	c2 04 00	 ret	 4
??0ioBowItemMarker@@QAE@PAVioBaseChar@@@Z ENDP		; ioBowItemMarker::ioBowItemMarker
_TEXT	ENDS
PUBLIC	??1ioBowItemMarker@@UAE@XZ			; ioBowItemMarker::~ioBowItemMarker
EXTRN	??1ioTargetMarker@@UAE@XZ:PROC			; ioTargetMarker::~ioTargetMarker
; Function compile flags: /Ogsp
;	COMDAT ??1ioBowItemMarker@@UAE@XZ
_TEXT	SEGMENT
??1ioBowItemMarker@@UAE@XZ PROC				; ioBowItemMarker::~ioBowItemMarker, COMDAT
; _this$ = ecx

; 14   : {

  00000	c7 01 00 00 00
	00		 mov	 DWORD PTR [ecx], OFFSET ??_7ioBowItemMarker@@6B@

; 15   : }

  00006	e9 00 00 00 00	 jmp	 ??1ioTargetMarker@@UAE@XZ ; ioTargetMarker::~ioTargetMarker
??1ioBowItemMarker@@UAE@XZ ENDP				; ioBowItemMarker::~ioBowItemMarker
; Function compile flags: /Ogsp
_TEXT	ENDS
;	COMDAT ?GetMarkerType@ioBowItemMarker@@UBE?AW4MarkerType@ioTargetMarker@@XZ
_TEXT	SEGMENT
?GetMarkerType@ioBowItemMarker@@UBE?AW4MarkerType@ioTargetMarker@@XZ PROC ; ioBowItemMarker::GetMarkerType, COMDAT
; _this$ = ecx

; 19   : 	return MT_BOW_ITEM;

  00000	6a 05		 push	 5
  00002	58		 pop	 eax

; 20   : }

  00003	c3		 ret	 0
?GetMarkerType@ioBowItemMarker@@UBE?AW4MarkerType@ioTargetMarker@@XZ ENDP ; ioBowItemMarker::GetMarkerType
_TEXT	ENDS
EXTRN	?SetMarkerState@ioTargetMarker@@UAEXPAVioPlayStage@@W4MarkerState@1@@Z:PROC ; ioTargetMarker::SetMarkerState
; Function compile flags: /Ogsp
;	COMDAT ?SetMarkerState@ioBowItemMarker@@UAEXPAVioPlayStage@@W4MarkerState@ioTargetMarker@@@Z
_TEXT	SEGMENT
_pStage$ = 8						; size = 4
_eState$ = 12						; size = 4
?SetMarkerState@ioBowItemMarker@@UAEXPAVioPlayStage@@W4MarkerState@ioTargetMarker@@@Z PROC ; ioBowItemMarker::SetMarkerState, COMDAT
; _this$ = ecx

; 23   : {

  00000	55		 push	 ebp
  00001	8b ec		 mov	 ebp, esp

; 25   : }

  00003	5d		 pop	 ebp

; 24   : 	ioTargetMarker::SetMarkerState( pStage, eState );

  00004	e9 00 00 00 00	 jmp	 ?SetMarkerState@ioTargetMarker@@UAEXPAVioPlayStage@@W4MarkerState@1@@Z ; ioTargetMarker::SetMarkerState
?SetMarkerState@ioBowItemMarker@@UAEXPAVioPlayStage@@W4MarkerState@ioTargetMarker@@@Z ENDP ; ioBowItemMarker::SetMarkerState
_TEXT	ENDS
PUBLIC	__real@3f91df46a2526c7a
PUBLIC	??$DEGtoRAD@M@@YAMM@Z				; DEGtoRAD<float>
EXTRN	__fltused:DWORD
;	COMDAT __real@3f91df46a2526c7a
; File d:\lost saga for developer\youtube\tutorial\source\src\lsclient\veryoftenusedefine.h
CONST	SEGMENT
__real@3f91df46a2526c7a DQ 03f91df46a2526c7ar	; 0.0174533
; Function compile flags: /Ogsp
CONST	ENDS
;	COMDAT ??$DEGtoRAD@M@@YAMM@Z
_TEXT	SEGMENT
tv129 = 8						; size = 4
_val$ = 8						; size = 4
??$DEGtoRAD@M@@YAMM@Z PROC				; DEGtoRAD<float>, COMDAT

; 20   : type  DEGtoRAD (type val) {return (type) (val * 0.0174532925199);}

  00000	55		 push	 ebp
  00001	8b ec		 mov	 ebp, esp
  00003	d9 45 08	 fld	 DWORD PTR _val$[ebp]
  00006	dc 0d 00 00 00
	00		 fmul	 QWORD PTR __real@3f91df46a2526c7a
  0000c	d9 5d 08	 fstp	 DWORD PTR tv129[ebp]
  0000f	d9 45 08	 fld	 DWORD PTR tv129[ebp]
  00012	5d		 pop	 ebp
  00013	c3		 ret	 0
??$DEGtoRAD@M@@YAMM@Z ENDP				; DEGtoRAD<float>
_TEXT	ENDS
PUBLIC	??0D3DXVECTOR3@@QAE@XZ				; D3DXVECTOR3::D3DXVECTOR3
; Function compile flags: /Ogsp
; File c:\program files (x86)\microsoft directx sdk (june 2010)\include\d3dx9math.h
;	COMDAT ??0D3DXVECTOR3@@QAE@XZ
_TEXT	SEGMENT
??0D3DXVECTOR3@@QAE@XZ PROC				; D3DXVECTOR3::D3DXVECTOR3, COMDAT
; _this$ = ecx

; 165  :     D3DXVECTOR3() {};

  00000	8b c1		 mov	 eax, ecx
  00002	c3		 ret	 0
??0D3DXVECTOR3@@QAE@XZ ENDP				; D3DXVECTOR3::D3DXVECTOR3
_TEXT	ENDS
PUBLIC	??0D3DXQUATERNION@@QAE@XZ			; D3DXQUATERNION::D3DXQUATERNION
; Function compile flags: /Ogsp
;	COMDAT ??0D3DXQUATERNION@@QAE@XZ
_TEXT	SEGMENT
??0D3DXQUATERNION@@QAE@XZ PROC				; D3DXQUATERNION::D3DXQUATERNION, COMDAT
; _this$ = ecx

; 429  :     D3DXQUATERNION() {}

  00000	8b c1		 mov	 eax, ecx
  00002	c3		 ret	 0
??0D3DXQUATERNION@@QAE@XZ ENDP				; D3DXQUATERNION::D3DXQUATERNION
_TEXT	ENDS
PUBLIC	??0D3DXVECTOR3@@QAE@MMM@Z			; D3DXVECTOR3::D3DXVECTOR3
; Function compile flags: /Ogsp
; File c:\program files (x86)\microsoft directx sdk (june 2010)\include\d3dx9math.inl
;	COMDAT ??0D3DXVECTOR3@@QAE@MMM@Z
_TEXT	SEGMENT
_fx$ = 8						; size = 4
_fy$ = 12						; size = 4
_fz$ = 16						; size = 4
??0D3DXVECTOR3@@QAE@MMM@Z PROC				; D3DXVECTOR3::D3DXVECTOR3, COMDAT
; _this$ = ecx

; 303  : {

  00000	55		 push	 ebp
  00001	8b ec		 mov	 ebp, esp

; 304  :     x = fx;

  00003	f3 0f 10 45 08	 movss	 xmm0, DWORD PTR _fx$[ebp]
  00008	8b c1		 mov	 eax, ecx
  0000a	f3 0f 11 00	 movss	 DWORD PTR [eax], xmm0

; 305  :     y = fy;

  0000e	f3 0f 10 45 0c	 movss	 xmm0, DWORD PTR _fy$[ebp]
  00013	f3 0f 11 40 04	 movss	 DWORD PTR [eax+4], xmm0

; 306  :     z = fz;

  00018	f3 0f 10 45 10	 movss	 xmm0, DWORD PTR _fz$[ebp]
  0001d	f3 0f 11 40 08	 movss	 DWORD PTR [eax+8], xmm0

; 307  : }

  00022	5d		 pop	 ebp
  00023	c2 0c 00	 ret	 12			; 0000000cH
??0D3DXVECTOR3@@QAE@MMM@Z ENDP				; D3DXVECTOR3::D3DXVECTOR3
_TEXT	ENDS
PUBLIC	??YD3DXVECTOR3@@QAEAAU0@ABU0@@Z			; D3DXVECTOR3::operator+=
; Function compile flags: /Ogsp
;	COMDAT ??YD3DXVECTOR3@@QAEAAU0@ABU0@@Z
_TEXT	SEGMENT
_v$ = 8							; size = 4
??YD3DXVECTOR3@@QAEAAU0@ABU0@@Z PROC			; D3DXVECTOR3::operator+=, COMDAT
; _this$ = ecx

; 327  : {

  00000	55		 push	 ebp
  00001	8b ec		 mov	 ebp, esp
  00003	8b c1		 mov	 eax, ecx

; 328  :     x += v.x;

  00005	8b 4d 08	 mov	 ecx, DWORD PTR _v$[ebp]
  00008	f3 0f 10 01	 movss	 xmm0, DWORD PTR [ecx]
  0000c	f3 0f 10 08	 movss	 xmm1, DWORD PTR [eax]
  00010	0f 5a c0	 cvtps2pd xmm0, xmm0
  00013	0f 5a c9	 cvtps2pd xmm1, xmm1
  00016	f2 0f 58 c1	 addsd	 xmm0, xmm1

; 329  :     y += v.y;

  0001a	f3 0f 10 48 04	 movss	 xmm1, DWORD PTR [eax+4]
  0001f	66 0f 5a c0	 cvtpd2ps xmm0, xmm0
  00023	f3 0f 11 00	 movss	 DWORD PTR [eax], xmm0
  00027	f3 0f 10 41 04	 movss	 xmm0, DWORD PTR [ecx+4]
  0002c	0f 5a c0	 cvtps2pd xmm0, xmm0
  0002f	0f 5a c9	 cvtps2pd xmm1, xmm1
  00032	f2 0f 58 c1	 addsd	 xmm0, xmm1

; 330  :     z += v.z;

  00036	f3 0f 10 48 08	 movss	 xmm1, DWORD PTR [eax+8]
  0003b	66 0f 5a c0	 cvtpd2ps xmm0, xmm0
  0003f	f3 0f 11 40 04	 movss	 DWORD PTR [eax+4], xmm0
  00044	f3 0f 10 41 08	 movss	 xmm0, DWORD PTR [ecx+8]
  00049	0f 5a c0	 cvtps2pd xmm0, xmm0
  0004c	0f 5a c9	 cvtps2pd xmm1, xmm1
  0004f	f2 0f 58 c1	 addsd	 xmm0, xmm1
  00053	66 0f 5a c0	 cvtpd2ps xmm0, xmm0
  00057	f3 0f 11 40 08	 movss	 DWORD PTR [eax+8], xmm0

; 331  :     return *this;
; 332  : }

  0005c	5d		 pop	 ebp
  0005d	c2 04 00	 ret	 4
??YD3DXVECTOR3@@QAEAAU0@ABU0@@Z ENDP			; D3DXVECTOR3::operator+=
_TEXT	ENDS
PUBLIC	??HD3DXVECTOR3@@QBE?AU0@ABU0@@Z			; D3DXVECTOR3::operator+
; Function compile flags: /Ogsp
;	COMDAT ??HD3DXVECTOR3@@QBE?AU0@ABU0@@Z
_TEXT	SEGMENT
___$ReturnUdt$ = 8					; size = 4
_v$ = 12						; size = 4
??HD3DXVECTOR3@@QBE?AU0@ABU0@@Z PROC			; D3DXVECTOR3::operator+, COMDAT
; _this$ = ecx

; 380  : {

  00000	55		 push	 ebp
  00001	8b ec		 mov	 ebp, esp

; 381  :     return D3DXVECTOR3(x + v.x, y + v.y, z + v.z);

  00003	8b 55 0c	 mov	 edx, DWORD PTR _v$[ebp]
  00006	f3 0f 10 02	 movss	 xmm0, DWORD PTR [edx]
  0000a	f3 0f 10 09	 movss	 xmm1, DWORD PTR [ecx]
  0000e	8b 45 08	 mov	 eax, DWORD PTR ___$ReturnUdt$[ebp]
  00011	0f 5a c0	 cvtps2pd xmm0, xmm0
  00014	0f 5a c9	 cvtps2pd xmm1, xmm1
  00017	f2 0f 58 c1	 addsd	 xmm0, xmm1
  0001b	f3 0f 10 49 04	 movss	 xmm1, DWORD PTR [ecx+4]
  00020	66 0f 5a c0	 cvtpd2ps xmm0, xmm0
  00024	f3 0f 11 00	 movss	 DWORD PTR [eax], xmm0
  00028	f3 0f 10 42 04	 movss	 xmm0, DWORD PTR [edx+4]
  0002d	0f 5a c0	 cvtps2pd xmm0, xmm0
  00030	0f 5a c9	 cvtps2pd xmm1, xmm1
  00033	f2 0f 58 c1	 addsd	 xmm0, xmm1
  00037	f3 0f 10 49 08	 movss	 xmm1, DWORD PTR [ecx+8]
  0003c	66 0f 5a c0	 cvtpd2ps xmm0, xmm0
  00040	f3 0f 11 40 04	 movss	 DWORD PTR [eax+4], xmm0
  00045	f3 0f 10 42 08	 movss	 xmm0, DWORD PTR [edx+8]
  0004a	0f 5a c0	 cvtps2pd xmm0, xmm0
  0004d	0f 5a c9	 cvtps2pd xmm1, xmm1
  00050	f2 0f 58 c1	 addsd	 xmm0, xmm1
  00054	66 0f 5a c0	 cvtpd2ps xmm0, xmm0
  00058	f3 0f 11 40 08	 movss	 DWORD PTR [eax+8], xmm0

; 382  : }

  0005d	5d		 pop	 ebp
  0005e	c2 08 00	 ret	 8
??HD3DXVECTOR3@@QBE?AU0@ABU0@@Z ENDP			; D3DXVECTOR3::operator+
_TEXT	ENDS
PUBLIC	??DD3DXVECTOR3@@QBE?AU0@M@Z			; D3DXVECTOR3::operator*
; Function compile flags: /Ogsp
;	COMDAT ??DD3DXVECTOR3@@QBE?AU0@M@Z
_TEXT	SEGMENT
___$ReturnUdt$ = 8					; size = 4
_f$ = 12						; size = 4
??DD3DXVECTOR3@@QBE?AU0@M@Z PROC			; D3DXVECTOR3::operator*, COMDAT
; _this$ = ecx

; 392  : {

  00000	55		 push	 ebp
  00001	8b ec		 mov	 ebp, esp

; 393  :     return D3DXVECTOR3(x * f, y * f, z * f);

  00003	f3 0f 10 4d 0c	 movss	 xmm1, DWORD PTR _f$[ebp]
  00008	f3 0f 10 01	 movss	 xmm0, DWORD PTR [ecx]
  0000c	8b 45 08	 mov	 eax, DWORD PTR ___$ReturnUdt$[ebp]
  0000f	0f 5a c0	 cvtps2pd xmm0, xmm0
  00012	0f 5a c9	 cvtps2pd xmm1, xmm1
  00015	f2 0f 59 c1	 mulsd	 xmm0, xmm1
  00019	f3 0f 10 4d 0c	 movss	 xmm1, DWORD PTR _f$[ebp]
  0001e	66 0f 5a c0	 cvtpd2ps xmm0, xmm0
  00022	f3 0f 11 00	 movss	 DWORD PTR [eax], xmm0
  00026	f3 0f 10 41 04	 movss	 xmm0, DWORD PTR [ecx+4]
  0002b	0f 5a c0	 cvtps2pd xmm0, xmm0
  0002e	0f 5a c9	 cvtps2pd xmm1, xmm1
  00031	f2 0f 59 c1	 mulsd	 xmm0, xmm1
  00035	f3 0f 10 4d 0c	 movss	 xmm1, DWORD PTR _f$[ebp]
  0003a	66 0f 5a c0	 cvtpd2ps xmm0, xmm0
  0003e	f3 0f 11 40 04	 movss	 DWORD PTR [eax+4], xmm0
  00043	f3 0f 10 41 08	 movss	 xmm0, DWORD PTR [ecx+8]
  00048	0f 5a c0	 cvtps2pd xmm0, xmm0
  0004b	0f 5a c9	 cvtps2pd xmm1, xmm1
  0004e	f2 0f 59 c1	 mulsd	 xmm0, xmm1
  00052	66 0f 5a c0	 cvtpd2ps xmm0, xmm0
  00056	f3 0f 11 40 08	 movss	 DWORD PTR [eax+8], xmm0

; 394  : }

  0005b	5d		 pop	 ebp
  0005c	c2 08 00	 ret	 8
??DD3DXVECTOR3@@QBE?AU0@M@Z ENDP			; D3DXVECTOR3::operator*
_TEXT	ENDS
PUBLIC	??D@YA?AUD3DXVECTOR3@@MABU0@@Z			; operator*
; Function compile flags: /Ogsp
;	COMDAT ??D@YA?AUD3DXVECTOR3@@MABU0@@Z
_TEXT	SEGMENT
___$ReturnUdt$ = 8					; size = 4
_f$ = 12						; size = 4
_v$ = 16						; size = 4
??D@YA?AUD3DXVECTOR3@@MABU0@@Z PROC			; operator*, COMDAT

; 406  : {

  00000	55		 push	 ebp
  00001	8b ec		 mov	 ebp, esp

; 407  :     return D3DXVECTOR3(f * v.x, f * v.y, f * v.z);

  00003	8b 4d 10	 mov	 ecx, DWORD PTR _v$[ebp]
  00006	f3 0f 10 4d 0c	 movss	 xmm1, DWORD PTR _f$[ebp]
  0000b	f3 0f 10 01	 movss	 xmm0, DWORD PTR [ecx]
  0000f	8b 45 08	 mov	 eax, DWORD PTR ___$ReturnUdt$[ebp]
  00012	0f 5a c0	 cvtps2pd xmm0, xmm0
  00015	0f 5a c9	 cvtps2pd xmm1, xmm1
  00018	f2 0f 59 c1	 mulsd	 xmm0, xmm1
  0001c	f3 0f 10 4d 0c	 movss	 xmm1, DWORD PTR _f$[ebp]
  00021	66 0f 5a c0	 cvtpd2ps xmm0, xmm0
  00025	f3 0f 11 00	 movss	 DWORD PTR [eax], xmm0
  00029	f3 0f 10 41 04	 movss	 xmm0, DWORD PTR [ecx+4]
  0002e	0f 5a c0	 cvtps2pd xmm0, xmm0
  00031	0f 5a c9	 cvtps2pd xmm1, xmm1
  00034	f2 0f 59 c1	 mulsd	 xmm0, xmm1
  00038	f3 0f 10 4d 0c	 movss	 xmm1, DWORD PTR _f$[ebp]
  0003d	66 0f 5a c0	 cvtpd2ps xmm0, xmm0
  00041	f3 0f 11 40 04	 movss	 DWORD PTR [eax+4], xmm0
  00046	f3 0f 10 41 08	 movss	 xmm0, DWORD PTR [ecx+8]
  0004b	0f 5a c0	 cvtps2pd xmm0, xmm0
  0004e	0f 5a c9	 cvtps2pd xmm1, xmm1
  00051	f2 0f 59 c1	 mulsd	 xmm0, xmm1
  00055	66 0f 5a c0	 cvtpd2ps xmm0, xmm0
  00059	f3 0f 11 40 08	 movss	 DWORD PTR [eax+8], xmm0

; 408  : }

  0005e	5d		 pop	 ebp
  0005f	c3		 ret	 0
??D@YA?AUD3DXVECTOR3@@MABU0@@Z ENDP			; operator*
_TEXT	ENDS
PUBLIC	?D3DXVec3Cross@@YAPAUD3DXVECTOR3@@PAU1@PBU1@1@Z	; D3DXVec3Cross
; Function compile flags: /Ogsp
;	COMDAT ?D3DXVec3Cross@@YAPAUD3DXVECTOR3@@PAU1@PBU1@1@Z
_TEXT	SEGMENT
_v$ = -12						; size = 12
_pOut$ = 8						; size = 4
_pV1$ = 12						; size = 4
_pV2$ = 16						; size = 4
?D3DXVec3Cross@@YAPAUD3DXVECTOR3@@PAU1@PBU1@1@Z PROC	; D3DXVec3Cross, COMDAT

; 1747 : {

  00000	55		 push	 ebp
  00001	8b ec		 mov	 ebp, esp
  00003	83 ec 0c	 sub	 esp, 12			; 0000000cH

; 1757 :     v.z = pV1->x * pV2->y - pV1->y * pV2->x;
; 1758 : 
; 1759 :     *pOut = v;

  00006	56		 push	 esi
  00007	57		 push	 edi

; 1748 :     D3DXVECTOR3 v;
; 1749 : 
; 1750 : #ifdef D3DX_DEBUG
; 1751 :     if(!pOut || !pV1 || !pV2)
; 1752 :         return NULL;
; 1753 : #endif
; 1754 : 
; 1755 :     v.x = pV1->y * pV2->z - pV1->z * pV2->y;

  00008	8b 45 0c	 mov	 eax, DWORD PTR _pV1$[ebp]
  0000b	f3 0f 10 40 04	 movss	 xmm0, DWORD PTR [eax+4]
  00010	f3 0f 10 50 08	 movss	 xmm2, DWORD PTR [eax+8]
  00015	8b 4d 10	 mov	 ecx, DWORD PTR _pV2$[ebp]
  00018	f3 0f 10 49 08	 movss	 xmm1, DWORD PTR [ecx+8]
  0001d	f3 0f 10 59 04	 movss	 xmm3, DWORD PTR [ecx+4]
  00022	0f 5a e8	 cvtps2pd xmm5, xmm0
  00025	0f 5a e1	 cvtps2pd xmm4, xmm1
  00028	0f 5a f2	 cvtps2pd xmm6, xmm2
  0002b	f2 0f 59 e5	 mulsd	 xmm4, xmm5

; 1756 :     v.y = pV1->z * pV2->x - pV1->x * pV2->z;

  0002f	0f 5a d2	 cvtps2pd xmm2, xmm2
  00032	0f 5a c9	 cvtps2pd xmm1, xmm1
  00035	0f 5a eb	 cvtps2pd xmm5, xmm3
  00038	f2 0f 59 ee	 mulsd	 xmm5, xmm6
  0003c	f2 0f 5c e5	 subsd	 xmm4, xmm5
  00040	f3 0f 10 28	 movss	 xmm5, DWORD PTR [eax]

; 1757 :     v.z = pV1->x * pV2->y - pV1->y * pV2->x;
; 1758 : 
; 1759 :     *pOut = v;

  00044	8b 45 08	 mov	 eax, DWORD PTR _pOut$[ebp]
  00047	66 0f 5a e4	 cvtpd2ps xmm4, xmm4
  0004b	f3 0f 11 65 f4	 movss	 DWORD PTR _v$[ebp], xmm4
  00050	f3 0f 10 21	 movss	 xmm4, DWORD PTR [ecx]
  00054	0f 5a f4	 cvtps2pd xmm6, xmm4
  00057	f2 0f 59 f2	 mulsd	 xmm6, xmm2
  0005b	0f 5a d5	 cvtps2pd xmm2, xmm5
  0005e	f2 0f 59 d1	 mulsd	 xmm2, xmm1
  00062	f2 0f 5c f2	 subsd	 xmm6, xmm2
  00066	66 0f 5a ce	 cvtpd2ps xmm1, xmm6
  0006a	f3 0f 11 4d f8	 movss	 DWORD PTR _v$[ebp+4], xmm1
  0006f	0f 5a c0	 cvtps2pd xmm0, xmm0
  00072	0f 5a d3	 cvtps2pd xmm2, xmm3
  00075	0f 5a cd	 cvtps2pd xmm1, xmm5
  00078	f2 0f 59 ca	 mulsd	 xmm1, xmm2
  0007c	8d 75 f4	 lea	 esi, DWORD PTR _v$[ebp]
  0007f	8b f8		 mov	 edi, eax
  00081	0f 5a d4	 cvtps2pd xmm2, xmm4
  00084	f2 0f 59 d0	 mulsd	 xmm2, xmm0
  00088	f2 0f 5c ca	 subsd	 xmm1, xmm2
  0008c	66 0f 5a c1	 cvtpd2ps xmm0, xmm1
  00090	f3 0f 11 45 fc	 movss	 DWORD PTR _v$[ebp+8], xmm0
  00095	a5		 movsd
  00096	a5		 movsd
  00097	a5		 movsd
  00098	5f		 pop	 edi
  00099	5e		 pop	 esi

; 1760 :     return pOut;
; 1761 : }

  0009a	c9		 leave
  0009b	c3		 ret	 0
?D3DXVec3Cross@@YAPAUD3DXVECTOR3@@PAU1@PBU1@1@Z ENDP	; D3DXVec3Cross
_TEXT	ENDS
PUBLIC	?GetGroup@ioGameEntity@@QBEPAVioEntityGroup@@XZ	; ioGameEntity::GetGroup
; Function compile flags: /Ogsp
; File d:\lost saga for developer\youtube\tutorial\source\src\lsclient\iogameentity.h
;	COMDAT ?GetGroup@ioGameEntity@@QBEPAVioEntityGroup@@XZ
_TEXT	SEGMENT
?GetGroup@ioGameEntity@@QBEPAVioEntityGroup@@XZ PROC	; ioGameEntity::GetGroup, COMDAT
; _this$ = ecx

; 166  : 	inline ioEntityGroup* GetGroup() const { return m_pGroup; }

  00000	8b 41 04	 mov	 eax, DWORD PTR [ecx+4]
  00003	c3		 ret	 0
?GetGroup@ioGameEntity@@QBEPAVioEntityGroup@@XZ ENDP	; ioGameEntity::GetGroup
_TEXT	ENDS
PUBLIC	?IsBallTarget@ioTargetMarker@@QBE_NXZ		; ioTargetMarker::IsBallTarget
; Function compile flags: /Ogsp
; File d:\lost saga for developer\youtube\tutorial\source\src\lsclient\iotargetmarker.h
;	COMDAT ?IsBallTarget@ioTargetMarker@@QBE_NXZ
_TEXT	SEGMENT
?IsBallTarget@ioTargetMarker@@QBE_NXZ PROC		; ioTargetMarker::IsBallTarget, COMDAT
; _this$ = ecx

; 77   : 	inline bool IsBallTarget() const { return m_bBall; }

  00000	8a 81 90 00 00
	00		 mov	 al, BYTE PTR [ecx+144]
  00006	c3		 ret	 0
?IsBallTarget@ioTargetMarker@@QBE_NXZ ENDP		; ioTargetMarker::IsBallTarget
_TEXT	ENDS
EXTRN	??3@YAXPAX@Z:PROC				; operator delete
; Function compile flags: /Ogsp
;	COMDAT ??_GioBowItemMarker@@UAEPAXI@Z
_TEXT	SEGMENT
___flags$ = 8						; size = 4
??_GioBowItemMarker@@UAEPAXI@Z PROC			; ioBowItemMarker::`scalar deleting destructor', COMDAT
; _this$ = ecx
  00000	55		 push	 ebp
  00001	8b ec		 mov	 ebp, esp
  00003	56		 push	 esi
  00004	8b f1		 mov	 esi, ecx
  00006	c7 06 00 00 00
	00		 mov	 DWORD PTR [esi], OFFSET ??_7ioBowItemMarker@@6B@
  0000c	e8 00 00 00 00	 call	 ??1ioTargetMarker@@UAE@XZ ; ioTargetMarker::~ioTargetMarker
  00011	f6 45 08 01	 test	 BYTE PTR ___flags$[ebp], 1
  00015	74 07		 je	 SHORT $LN1@scalar
  00017	56		 push	 esi
  00018	e8 00 00 00 00	 call	 ??3@YAXPAX@Z		; operator delete
  0001d	59		 pop	 ecx
$LN1@scalar:
  0001e	8b c6		 mov	 eax, esi
  00020	5e		 pop	 esi
  00021	5d		 pop	 ebp
  00022	c2 04 00	 ret	 4
??_GioBowItemMarker@@UAEPAXI@Z ENDP			; ioBowItemMarker::`scalar deleting destructor'
_TEXT	ENDS
PUBLIC	??_C@_0N@BAMJMIJG@Bip01?5Spine1?$AA@		; `string'
PUBLIC	__real@4f800000
PUBLIC	___$ReturnUdt$GSCopy$
PUBLIC	??_C@_0N@OCIKHMFE@Bip01?5L?5Hand?$AA@		; `string'
PUBLIC	?GetBowItemPoint@ioBowItemMarker@@IBE?AUD3DXVECTOR3@@XZ ; ioBowItemMarker::GetBowItemPoint
EXTRN	_D3DXQuaternionRotationYawPitchRoll@16:PROC
EXTRN	__imp_?QuaterToEuler@ioMath@@SAXABUD3DXQUATERNION@@AAM11@Z:PROC
EXTRN	__imp_?GetExtraRotation@ioBiped@@QBEABUD3DXQUATERNION@@XZ:PROC
EXTRN	__imp_?HasExtraRotation@ioBiped@@QBE_NXZ:PROC
EXTRN	__imp_??D@YA?AUD3DXVECTOR3@@ABUD3DXQUATERNION@@ABU0@@Z:PROC
EXTRN	__imp_??1ioHashString@@QAE@XZ:PROC
EXTRN	__imp_?GetBiped@ioEntityGroup@@QAEPAVioBiped@@ABVioHashString@@@Z:PROC
EXTRN	__imp_??0ioHashString@@QAE@PBD@Z:PROC
EXTRN	___CxxFrameHandler3:PROC
EXTRN	@__security_check_cookie@4:PROC
EXTRN	__EH_epilog3_GS:PROC
EXTRN	__EH_prolog3_GS:PROC
;	COMDAT ??_C@_0N@BAMJMIJG@Bip01?5Spine1?$AA@
; File c:\program files (x86)\microsoft directx sdk (june 2010)\include\d3dx9math.inl
CONST	SEGMENT
??_C@_0N@BAMJMIJG@Bip01?5Spine1?$AA@ DB 'Bip01 Spine1', 00H ; `string'
CONST	ENDS
;	COMDAT __real@4f800000
CONST	SEGMENT
__real@4f800000 DD 04f800000r			; 4.29497e+009
CONST	ENDS
;	COMDAT ??_C@_0N@OCIKHMFE@Bip01?5L?5Hand?$AA@
CONST	SEGMENT
??_C@_0N@OCIKHMFE@Bip01?5L?5Hand?$AA@ DB 'Bip01 L Hand', 00H ; `string'
CONST	ENDS
;	COMDAT xdata$x
xdata$x	SEGMENT
__unwindtable$?GetBowItemPoint@ioBowItemMarker@@IBE?AUD3DXVECTOR3@@XZ DD 0ffffffffH
	DD	FLAT:__unwindfunclet$?GetBowItemPoint@ioBowItemMarker@@IBE?AUD3DXVECTOR3@@XZ$0
	DD	0ffffffffH
	DD	FLAT:__unwindfunclet$?GetBowItemPoint@ioBowItemMarker@@IBE?AUD3DXVECTOR3@@XZ$1
__ehfuncinfo$?GetBowItemPoint@ioBowItemMarker@@IBE?AUD3DXVECTOR3@@XZ DD 019930522H
	DD	02H
	DD	FLAT:__unwindtable$?GetBowItemPoint@ioBowItemMarker@@IBE?AUD3DXVECTOR3@@XZ
	DD	2 DUP(00H)
	DD	2 DUP(00H)
	DD	00H
	DD	01H
; Function compile flags: /Ogsp
; File d:\lost saga for developer\youtube\tutorial\source\src\lsclient\iobowitemmarker.cpp
xdata$x	ENDS
;	COMDAT ?GetBowItemPoint@ioBowItemMarker@@IBE?AUD3DXVECTOR3@@XZ
_TEXT	SEGMENT
_qtNewRotate$530499 = -144				; size = 16
_qtExtraRotate$530498 = -128				; size = 16
$T531105 = -112						; size = 16
_fYaw$530495 = -96					; size = 4
_fRoll$530497 = -92					; size = 4
_qtRotate$530486 = -88					; size = 16
tv551 = -72						; size = 4
_fPitch$530496 = -68					; size = 4
___$ReturnUdt$GSCopy$ = -64				; size = 4
_pBiped$ = -60						; size = 4
$T530500 = -56						; size = 12
$T531106 = -44						; size = 16
$T530503 = -40						; size = 12
$T530502 = -40						; size = 12
$T530501 = -40						; size = 12
$T530489 = -40						; size = 12
_vTargetPos$530487 = -28				; size = 12
__$EHRec$ = -12						; size = 12
___$ReturnUdt$ = 8					; size = 4
?GetBowItemPoint@ioBowItemMarker@@IBE?AUD3DXVECTOR3@@XZ PROC ; ioBowItemMarker::GetBowItemPoint, COMDAT
; _this$ = ecx

; 52   : {

  00000	68 84 00 00 00	 push	 132			; 00000084H
  00005	b8 00 00 00 00	 mov	 eax, __ehhandler$?GetBowItemPoint@ioBowItemMarker@@IBE?AUD3DXVECTOR3@@XZ
  0000a	e8 00 00 00 00	 call	 __EH_prolog3_GS
  0000f	8b 75 08	 mov	 esi, DWORD PTR ___$ReturnUdt$[ebp]
  00012	8b d9		 mov	 ebx, ecx

; 53   : 	ioBiped *pBiped = m_pOwner->GetGroup()->GetBiped( "Bip01 L Hand" );

  00014	68 00 00 00 00	 push	 OFFSET ??_C@_0N@OCIKHMFE@Bip01?5L?5Hand?$AA@
  00019	8d 4d 90	 lea	 ecx, DWORD PTR $T531105[ebp]
  0001c	89 75 c0	 mov	 DWORD PTR ___$ReturnUdt$GSCopy$[ebp], esi
  0001f	ff 15 00 00 00
	00		 call	 DWORD PTR __imp_??0ioHashString@@QAE@PBD@Z
  00025	8b 43 04	 mov	 eax, DWORD PTR [ebx+4]
  00028	8b 48 04	 mov	 ecx, DWORD PTR [eax+4]
  0002b	83 65 fc 00	 and	 DWORD PTR __$EHRec$[ebp+8], 0
  0002f	8d 45 90	 lea	 eax, DWORD PTR $T531105[ebp]
  00032	50		 push	 eax
  00033	ff 15 00 00 00
	00		 call	 DWORD PTR __imp_?GetBiped@ioEntityGroup@@QAEPAVioBiped@@ABVioHashString@@@Z
  00039	83 4d fc ff	 or	 DWORD PTR __$EHRec$[ebp+8], -1
  0003d	8d 4d 90	 lea	 ecx, DWORD PTR $T531105[ebp]
  00040	89 45 c4	 mov	 DWORD PTR _pBiped$[ebp], eax
  00043	ff 15 00 00 00
	00		 call	 DWORD PTR __imp_??1ioHashString@@QAE@XZ

; 54   : 	if( pBiped )

  00049	83 7d c4 00	 cmp	 DWORD PTR _pBiped$[ebp], 0
  0004d	0f 84 2d 02 00
	00		 je	 $LN2@GetBowItem

; 55   : 	{
; 56   : 		D3DXQUATERNION qtRotate = m_pOwner->GetTargetRot();

  00053	8b 73 04	 mov	 esi, DWORD PTR [ebx+4]
  00056	81 c6 a4 06 00
	00		 add	 esi, 1700		; 000006a4H
  0005c	8d 7d a8	 lea	 edi, DWORD PTR _qtRotate$530486[ebp]
  0005f	a5		 movsd
  00060	a5		 movsd
  00061	a5		 movsd
  00062	a5		 movsd

; 57   : 		D3DXVECTOR3 vTargetPos = qtRotate * D3DXVECTOR3( 0.0f, 0.0f, -FLOAT1 );

  00063	b8 01 00 00 00	 mov	 eax, 1
  00068	0f 57 c0	 xorps	 xmm0, xmm0
  0006b	89 45 b8	 mov	 DWORD PTR tv551[ebp], eax
  0006e	db 45 b8	 fild	 DWORD PTR tv551[ebp]
  00071	f3 0f 11 45 d8	 movss	 DWORD PTR $T530489[ebp], xmm0
  00076	f3 0f 11 45 dc	 movss	 DWORD PTR $T530489[ebp+4], xmm0
  0007b	85 c0		 test	 eax, eax
  0007d	79 06		 jns	 SHORT $LN34@GetBowItem
  0007f	d8 05 00 00 00
	00		 fadd	 DWORD PTR __real@4f800000
$LN34@GetBowItem:
  00085	8d 45 d8	 lea	 eax, DWORD PTR $T530489[ebp]
  00088	d9 e0		 fchs
  0008a	50		 push	 eax
  0008b	d9 5d e0	 fstp	 DWORD PTR $T530489[ebp+8]
  0008e	8d 45 a8	 lea	 eax, DWORD PTR _qtRotate$530486[ebp]
  00091	50		 push	 eax
  00092	8d 45 e4	 lea	 eax, DWORD PTR _vTargetPos$530487[ebp]
  00095	50		 push	 eax
  00096	ff 15 00 00 00
	00		 call	 DWORD PTR __imp_??D@YA?AUD3DXVECTOR3@@ABUD3DXQUATERNION@@ABU0@@Z
  0009c	83 c4 0c	 add	 esp, 12			; 0000000cH

; 58   : 
; 59   : 		ioBiped *pExtraBiped = m_pOwner->GetGroup()->GetBiped( "Bip01 Spine1" );

  0009f	68 00 00 00 00	 push	 OFFSET ??_C@_0N@BAMJMIJG@Bip01?5Spine1?$AA@
  000a4	8d 4d d4	 lea	 ecx, DWORD PTR $T531106[ebp]
  000a7	ff 15 00 00 00
	00		 call	 DWORD PTR __imp_??0ioHashString@@QAE@PBD@Z
  000ad	8b 43 04	 mov	 eax, DWORD PTR [ebx+4]
  000b0	8b 48 04	 mov	 ecx, DWORD PTR [eax+4]
  000b3	8d 45 d4	 lea	 eax, DWORD PTR $T531106[ebp]
  000b6	50		 push	 eax
  000b7	c7 45 fc 01 00
	00 00		 mov	 DWORD PTR __$EHRec$[ebp+8], 1
  000be	ff 15 00 00 00
	00		 call	 DWORD PTR __imp_?GetBiped@ioEntityGroup@@QAEPAVioBiped@@ABVioHashString@@@Z
  000c4	83 4d fc ff	 or	 DWORD PTR __$EHRec$[ebp+8], -1
  000c8	8d 4d d4	 lea	 ecx, DWORD PTR $T531106[ebp]
  000cb	8b f0		 mov	 esi, eax
  000cd	ff 15 00 00 00
	00		 call	 DWORD PTR __imp_??1ioHashString@@QAE@XZ

; 60   : 		if( pExtraBiped && pExtraBiped->HasExtraRotation() )

  000d3	85 f6		 test	 esi, esi
  000d5	74 79		 je	 SHORT $LN1@GetBowItem
  000d7	8b ce		 mov	 ecx, esi
  000d9	ff 15 00 00 00
	00		 call	 DWORD PTR __imp_?HasExtraRotation@ioBiped@@QBE_NXZ
  000df	84 c0		 test	 al, al
  000e1	74 6d		 je	 SHORT $LN1@GetBowItem

; 61   : 		{
; 62   : 			float fYaw, fPitch, fRoll;
; 63   : 			D3DXQUATERNION qtExtraRotate = pExtraBiped->GetExtraRotation();

  000e3	8b ce		 mov	 ecx, esi
  000e5	ff 15 00 00 00
	00		 call	 DWORD PTR __imp_?GetExtraRotation@ioBiped@@QBEABUD3DXQUATERNION@@XZ
  000eb	8b f0		 mov	 esi, eax
  000ed	8d 7d 80	 lea	 edi, DWORD PTR _qtExtraRotate$530498[ebp]
  000f0	a5		 movsd

; 64   : 
; 65   : 			ioMath::QuaterToEuler( qtExtraRotate, fYaw, fPitch, fRoll );

  000f1	8d 45 a4	 lea	 eax, DWORD PTR _fRoll$530497[ebp]
  000f4	50		 push	 eax
  000f5	a5		 movsd
  000f6	8d 45 bc	 lea	 eax, DWORD PTR _fPitch$530496[ebp]
  000f9	50		 push	 eax
  000fa	8d 45 a0	 lea	 eax, DWORD PTR _fYaw$530495[ebp]
  000fd	a5		 movsd
  000fe	50		 push	 eax
  000ff	8d 45 80	 lea	 eax, DWORD PTR _qtExtraRotate$530498[ebp]
  00102	50		 push	 eax
  00103	a5		 movsd
  00104	ff 15 00 00 00
	00		 call	 DWORD PTR __imp_?QuaterToEuler@ioMath@@SAXABUD3DXQUATERNION@@AAM11@Z

; 66   : 			
; 67   : 			D3DXQUATERNION qtNewRotate;
; 68   : 			D3DXQuaternionRotationYawPitchRoll( &qtNewRotate, fPitch, 0.0f, 0.0f );

  0010a	0f 57 c0	 xorps	 xmm0, xmm0
  0010d	59		 pop	 ecx
  0010e	f3 0f 11 44 24
	08		 movss	 DWORD PTR [esp+8], xmm0
  00114	f3 0f 11 44 24
	04		 movss	 DWORD PTR [esp+4], xmm0
  0011a	f3 0f 10 45 bc	 movss	 xmm0, DWORD PTR _fPitch$530496[ebp]
  0011f	8d 85 70 ff ff
	ff		 lea	 eax, DWORD PTR _qtNewRotate$530499[ebp]
  00125	f3 0f 11 04 24	 movss	 DWORD PTR [esp], xmm0
  0012a	50		 push	 eax
  0012b	e8 00 00 00 00	 call	 _D3DXQuaternionRotationYawPitchRoll@16

; 69   : 
; 70   : 			vTargetPos = qtNewRotate * vTargetPos;

  00130	8d 45 e4	 lea	 eax, DWORD PTR _vTargetPos$530487[ebp]
  00133	50		 push	 eax
  00134	8d 85 70 ff ff
	ff		 lea	 eax, DWORD PTR _qtNewRotate$530499[ebp]
  0013a	50		 push	 eax
  0013b	8d 45 c8	 lea	 eax, DWORD PTR $T530500[ebp]
  0013e	50		 push	 eax
  0013f	ff 15 00 00 00
	00		 call	 DWORD PTR __imp_??D@YA?AUD3DXVECTOR3@@ABUD3DXQUATERNION@@ABU0@@Z
  00145	8b f0		 mov	 esi, eax
  00147	8d 7d e4	 lea	 edi, DWORD PTR _vTargetPos$530487[ebp]
  0014a	a5		 movsd
  0014b	a5		 movsd
  0014c	83 c4 0c	 add	 esp, 12			; 0000000cH
  0014f	a5		 movsd
$LN1@GetBowItem:

; 71   : 		}
; 72   : 
; 73   : 		vTargetPos = vTargetPos * m_fMarkerRange;

  00150	f3 0f 10 83 84
	00 00 00	 movss	 xmm0, DWORD PTR [ebx+132]
  00158	f3 0f 10 4d e4	 movss	 xmm1, DWORD PTR _vTargetPos$530487[ebp]

; 74   : 		vTargetPos = vTargetPos + pBiped->GetDerivedPosition();

  0015d	8b 4d c4	 mov	 ecx, DWORD PTR _pBiped$[ebp]
  00160	0f 5a c9	 cvtps2pd xmm1, xmm1
  00163	8b 01		 mov	 eax, DWORD PTR [ecx]
  00165	0f 5a d0	 cvtps2pd xmm2, xmm0
  00168	f2 0f 59 ca	 mulsd	 xmm1, xmm2
  0016c	66 0f 5a c9	 cvtpd2ps xmm1, xmm1
  00170	f3 0f 11 4d d8	 movss	 DWORD PTR $T530501[ebp], xmm1
  00175	f3 0f 10 4d e8	 movss	 xmm1, DWORD PTR _vTargetPos$530487[ebp+4]
  0017a	0f 5a c9	 cvtps2pd xmm1, xmm1
  0017d	0f 5a d0	 cvtps2pd xmm2, xmm0
  00180	f2 0f 59 ca	 mulsd	 xmm1, xmm2
  00184	66 0f 5a c9	 cvtpd2ps xmm1, xmm1
  00188	f3 0f 11 4d dc	 movss	 DWORD PTR $T530501[ebp+4], xmm1
  0018d	f3 0f 10 4d ec	 movss	 xmm1, DWORD PTR _vTargetPos$530487[ebp+8]
  00192	0f 5a c0	 cvtps2pd xmm0, xmm0
  00195	0f 5a c9	 cvtps2pd xmm1, xmm1
  00198	f2 0f 59 c8	 mulsd	 xmm1, xmm0
  0019c	0f 57 c0	 xorps	 xmm0, xmm0
  0019f	66 0f 5a c1	 cvtpd2ps xmm0, xmm1
  001a3	f3 0f 11 45 e0	 movss	 DWORD PTR $T530501[ebp+8], xmm0
  001a8	8d 75 d8	 lea	 esi, DWORD PTR $T530501[ebp]
  001ab	8d 7d e4	 lea	 edi, DWORD PTR _vTargetPos$530487[ebp]
  001ae	a5		 movsd
  001af	a5		 movsd
  001b0	a5		 movsd
  001b1	ff 50 7c	 call	 DWORD PTR [eax+124]
  001b4	f3 0f 10 00	 movss	 xmm0, DWORD PTR [eax]
  001b8	f3 0f 10 4d e4	 movss	 xmm1, DWORD PTR _vTargetPos$530487[ebp]

; 75   : 		vTargetPos = vTargetPos + m_pOwner->GetWorldPosition();

  001bd	8b 5b 04	 mov	 ebx, DWORD PTR [ebx+4]
  001c0	0f 5a c0	 cvtps2pd xmm0, xmm0
  001c3	0f 5a c9	 cvtps2pd xmm1, xmm1
  001c6	f2 0f 58 c1	 addsd	 xmm0, xmm1
  001ca	f3 0f 10 4d e8	 movss	 xmm1, DWORD PTR _vTargetPos$530487[ebp+4]
  001cf	66 0f 5a c0	 cvtpd2ps xmm0, xmm0
  001d3	f3 0f 11 45 d8	 movss	 DWORD PTR $T530502[ebp], xmm0
  001d8	f3 0f 10 40 04	 movss	 xmm0, DWORD PTR [eax+4]
  001dd	0f 5a c0	 cvtps2pd xmm0, xmm0
  001e0	0f 5a c9	 cvtps2pd xmm1, xmm1
  001e3	f2 0f 58 c1	 addsd	 xmm0, xmm1
  001e7	f3 0f 10 4d ec	 movss	 xmm1, DWORD PTR _vTargetPos$530487[ebp+8]
  001ec	66 0f 5a c0	 cvtpd2ps xmm0, xmm0
  001f0	f3 0f 11 45 dc	 movss	 DWORD PTR $T530502[ebp+4], xmm0
  001f5	f3 0f 10 40 08	 movss	 xmm0, DWORD PTR [eax+8]
  001fa	0f 5a c0	 cvtps2pd xmm0, xmm0
  001fd	0f 5a c9	 cvtps2pd xmm1, xmm1
  00200	f2 0f 58 c1	 addsd	 xmm0, xmm1
  00204	66 0f 5a c0	 cvtpd2ps xmm0, xmm0
  00208	f3 0f 11 45 e0	 movss	 DWORD PTR $T530502[ebp+8], xmm0
  0020d	8d 75 d8	 lea	 esi, DWORD PTR $T530502[ebp]
  00210	8d 7d e4	 lea	 edi, DWORD PTR _vTargetPos$530487[ebp]
  00213	a5		 movsd
  00214	a5		 movsd
  00215	a5		 movsd
  00216	8b 03		 mov	 eax, DWORD PTR [ebx]
  00218	8b cb		 mov	 ecx, ebx
  0021a	ff 50 70	 call	 DWORD PTR [eax+112]
  0021d	f3 0f 10 00	 movss	 xmm0, DWORD PTR [eax]
  00221	f3 0f 10 4d e4	 movss	 xmm1, DWORD PTR _vTargetPos$530487[ebp]
  00226	0f 5a c0	 cvtps2pd xmm0, xmm0
  00229	0f 5a c9	 cvtps2pd xmm1, xmm1
  0022c	f2 0f 58 c1	 addsd	 xmm0, xmm1
  00230	f3 0f 10 4d e8	 movss	 xmm1, DWORD PTR _vTargetPos$530487[ebp+4]
  00235	66 0f 5a c0	 cvtpd2ps xmm0, xmm0
  00239	f3 0f 11 45 d8	 movss	 DWORD PTR $T530503[ebp], xmm0
  0023e	f3 0f 10 40 04	 movss	 xmm0, DWORD PTR [eax+4]
  00243	0f 5a c0	 cvtps2pd xmm0, xmm0
  00246	0f 5a c9	 cvtps2pd xmm1, xmm1
  00249	f2 0f 58 c1	 addsd	 xmm0, xmm1
  0024d	f3 0f 10 4d ec	 movss	 xmm1, DWORD PTR _vTargetPos$530487[ebp+8]
  00252	66 0f 5a c0	 cvtpd2ps xmm0, xmm0
  00256	f3 0f 11 45 dc	 movss	 DWORD PTR $T530503[ebp+4], xmm0
  0025b	f3 0f 10 40 08	 movss	 xmm0, DWORD PTR [eax+8]

; 76   : 
; 77   : 		return vTargetPos;

  00260	8b 45 c0	 mov	 eax, DWORD PTR ___$ReturnUdt$GSCopy$[ebp]
  00263	0f 5a c0	 cvtps2pd xmm0, xmm0
  00266	0f 5a c9	 cvtps2pd xmm1, xmm1
  00269	f2 0f 58 c1	 addsd	 xmm0, xmm1
  0026d	66 0f 5a c0	 cvtpd2ps xmm0, xmm0
  00271	f3 0f 11 45 e0	 movss	 DWORD PTR $T530503[ebp+8], xmm0
  00276	8d 75 d8	 lea	 esi, DWORD PTR $T530503[ebp]
  00279	8b f8		 mov	 edi, eax
  0027b	a5		 movsd
  0027c	a5		 movsd
  0027d	a5		 movsd
  0027e	eb 13		 jmp	 SHORT $LN3@GetBowItem
$LN2@GetBowItem:

; 78   : 	}
; 79   : 
; 80   : 	return D3DXVECTOR3( 0.0f, 0.0f, 0.0f );

  00280	0f 57 c0	 xorps	 xmm0, xmm0
  00283	f3 0f 11 06	 movss	 DWORD PTR [esi], xmm0
  00287	f3 0f 11 46 04	 movss	 DWORD PTR [esi+4], xmm0
  0028c	f3 0f 11 46 08	 movss	 DWORD PTR [esi+8], xmm0
  00291	8b c6		 mov	 eax, esi
$LN3@GetBowItem:

; 81   : }

  00293	e8 00 00 00 00	 call	 __EH_epilog3_GS
  00298	c2 04 00	 ret	 4
_TEXT	ENDS
;	COMDAT text$x
text$x	SEGMENT
__unwindfunclet$?GetBowItemPoint@ioBowItemMarker@@IBE?AUD3DXVECTOR3@@XZ$0:
  00000	8d 4d 90	 lea	 ecx, DWORD PTR $T531105[ebp]
  00003	ff 25 00 00 00
	00		 jmp	 DWORD PTR __imp_??1ioHashString@@QAE@XZ
__unwindfunclet$?GetBowItemPoint@ioBowItemMarker@@IBE?AUD3DXVECTOR3@@XZ$1:
  00009	8d 4d d4	 lea	 ecx, DWORD PTR $T531106[ebp]
  0000c	ff 25 00 00 00
	00		 jmp	 DWORD PTR __imp_??1ioHashString@@QAE@XZ
__ehhandler$?GetBowItemPoint@ioBowItemMarker@@IBE?AUD3DXVECTOR3@@XZ:
  00012	8b 54 24 08	 mov	 edx, DWORD PTR [esp+8]
  00016	8d 42 0c	 lea	 eax, DWORD PTR [edx+12]
  00019	8b 8a 6c ff ff
	ff		 mov	 ecx, DWORD PTR [edx-148]
  0001f	33 c8		 xor	 ecx, eax
  00021	e8 00 00 00 00	 call	 @__security_check_cookie@4
  00026	8b 4a fc	 mov	 ecx, DWORD PTR [edx-4]
  00029	33 c8		 xor	 ecx, eax
  0002b	e8 00 00 00 00	 call	 @__security_check_cookie@4
  00030	b8 00 00 00 00	 mov	 eax, OFFSET __ehfuncinfo$?GetBowItemPoint@ioBowItemMarker@@IBE?AUD3DXVECTOR3@@XZ
  00035	e9 00 00 00 00	 jmp	 ___CxxFrameHandler3
text$x	ENDS
?GetBowItemPoint@ioBowItemMarker@@IBE?AUD3DXVECTOR3@@XZ ENDP ; ioBowItemMarker::GetBowItemPoint
PUBLIC	___$ReturnUdt$GSCopy$
PUBLIC	?GetBowItemJumpPoint@ioBowItemMarker@@IBE?AUD3DXVECTOR3@@XZ ; ioBowItemMarker::GetBowItemJumpPoint
EXTRN	_D3DXQuaternionRotationAxis@12:PROC
;	COMDAT xdata$x
; File c:\program files (x86)\microsoft directx sdk (june 2010)\include\d3dx9math.inl
xdata$x	SEGMENT
__unwindtable$?GetBowItemJumpPoint@ioBowItemMarker@@IBE?AUD3DXVECTOR3@@XZ DD 0ffffffffH
	DD	FLAT:__unwindfunclet$?GetBowItemJumpPoint@ioBowItemMarker@@IBE?AUD3DXVECTOR3@@XZ$0
__ehfuncinfo$?GetBowItemJumpPoint@ioBowItemMarker@@IBE?AUD3DXVECTOR3@@XZ DD 019930522H
	DD	01H
	DD	FLAT:__unwindtable$?GetBowItemJumpPoint@ioBowItemMarker@@IBE?AUD3DXVECTOR3@@XZ
	DD	2 DUP(00H)
	DD	2 DUP(00H)
	DD	00H
	DD	01H
; Function compile flags: /Ogsp
; File d:\lost saga for developer\youtube\tutorial\source\src\lsclient\iobowitemmarker.cpp
xdata$x	ENDS
;	COMDAT ?GetBowItemJumpPoint@ioBowItemMarker@@IBE?AUD3DXVECTOR3@@XZ
_TEXT	SEGMENT
$T531191 = -124						; size = 16
_qtRot$530520 = -108					; size = 16
_qtRotate$530512 = -92					; size = 16
___$ReturnUdt$GSCopy$ = -76				; size = 4
tv684 = -72						; size = 4
tv677 = -72						; size = 4
_pBiped$ = -68						; size = 4
$T530525 = -64						; size = 12
$T530519 = -64						; size = 12
_vAxis$530517 = -52					; size = 12
_vDir$530513 = -40					; size = 12
_v$531227 = -28						; size = 12
_vTargetPos$530526 = -28				; size = 12
$T530515 = -28						; size = 12
__$EHRec$ = -12						; size = 12
___$ReturnUdt$ = 8					; size = 4
?GetBowItemJumpPoint@ioBowItemMarker@@IBE?AUD3DXVECTOR3@@XZ PROC ; ioBowItemMarker::GetBowItemJumpPoint, COMDAT
; _this$ = ecx

; 84   : {

  00000	6a 70		 push	 112			; 00000070H
  00002	b8 00 00 00 00	 mov	 eax, __ehhandler$?GetBowItemJumpPoint@ioBowItemMarker@@IBE?AUD3DXVECTOR3@@XZ
  00007	e8 00 00 00 00	 call	 __EH_prolog3_GS
  0000c	8b 75 08	 mov	 esi, DWORD PTR ___$ReturnUdt$[ebp]
  0000f	8b d9		 mov	 ebx, ecx

; 85   : 	ioBiped *pBiped = m_pOwner->GetGroup()->GetBiped( "Bip01 L Hand" );

  00011	68 00 00 00 00	 push	 OFFSET ??_C@_0N@OCIKHMFE@Bip01?5L?5Hand?$AA@
  00016	8d 4d 84	 lea	 ecx, DWORD PTR $T531191[ebp]
  00019	89 75 b4	 mov	 DWORD PTR ___$ReturnUdt$GSCopy$[ebp], esi
  0001c	ff 15 00 00 00
	00		 call	 DWORD PTR __imp_??0ioHashString@@QAE@PBD@Z
  00022	8b 43 04	 mov	 eax, DWORD PTR [ebx+4]
  00025	8b 48 04	 mov	 ecx, DWORD PTR [eax+4]
  00028	83 65 fc 00	 and	 DWORD PTR __$EHRec$[ebp+8], 0
  0002c	8d 45 84	 lea	 eax, DWORD PTR $T531191[ebp]
  0002f	50		 push	 eax
  00030	ff 15 00 00 00
	00		 call	 DWORD PTR __imp_?GetBiped@ioEntityGroup@@QAEPAVioBiped@@ABVioHashString@@@Z
  00036	83 4d fc ff	 or	 DWORD PTR __$EHRec$[ebp+8], -1
  0003a	8d 4d 84	 lea	 ecx, DWORD PTR $T531191[ebp]
  0003d	89 45 bc	 mov	 DWORD PTR _pBiped$[ebp], eax
  00040	ff 15 00 00 00
	00		 call	 DWORD PTR __imp_??1ioHashString@@QAE@XZ

; 86   : 	if( pBiped )

  00046	83 7d bc 00	 cmp	 DWORD PTR _pBiped$[ebp], 0
  0004a	0f 84 41 02 00
	00		 je	 $LN1@GetBowItem@2

; 87   : 	{
; 88   : 		D3DXQUATERNION qtRotate = m_pOwner->GetTargetRot();

  00050	8b 73 04	 mov	 esi, DWORD PTR [ebx+4]
  00053	81 c6 a4 06 00
	00		 add	 esi, 1700		; 000006a4H
  00059	8d 7d a4	 lea	 edi, DWORD PTR _qtRotate$530512[ebp]
  0005c	a5		 movsd
  0005d	a5		 movsd
  0005e	a5		 movsd
  0005f	a5		 movsd

; 89   : 		D3DXVECTOR3 vDir = qtRotate * D3DXVECTOR3( 0.0f, 0.0f, -FLOAT1 );

  00060	b8 01 00 00 00	 mov	 eax, 1
  00065	0f 57 c0	 xorps	 xmm0, xmm0
  00068	89 45 b8	 mov	 DWORD PTR tv684[ebp], eax
  0006b	db 45 b8	 fild	 DWORD PTR tv684[ebp]
  0006e	f3 0f 11 45 e4	 movss	 DWORD PTR $T530515[ebp], xmm0
  00073	f3 0f 11 45 e8	 movss	 DWORD PTR $T530515[ebp+4], xmm0
  00078	85 c0		 test	 eax, eax
  0007a	79 06		 jns	 SHORT $LN40@GetBowItem@2
  0007c	d8 05 00 00 00
	00		 fadd	 DWORD PTR __real@4f800000
$LN40@GetBowItem@2:
  00082	8d 45 e4	 lea	 eax, DWORD PTR $T530515[ebp]
  00085	d9 e0		 fchs
  00087	50		 push	 eax
  00088	d9 5d ec	 fstp	 DWORD PTR $T530515[ebp+8]
  0008b	8d 45 a4	 lea	 eax, DWORD PTR _qtRotate$530512[ebp]
  0008e	50		 push	 eax
  0008f	8d 45 d8	 lea	 eax, DWORD PTR _vDir$530513[ebp]
  00092	50		 push	 eax
  00093	ff 15 00 00 00
	00		 call	 DWORD PTR __imp_??D@YA?AUD3DXVECTOR3@@ABUD3DXQUATERNION@@ABU0@@Z
  00099	83 c4 0c	 add	 esp, 12			; 0000000cH

; 90   : 		
; 91   : 		D3DXVECTOR3 vAxis;
; 92   : 		D3DXVec3Cross( &vAxis, &vDir, &D3DXVECTOR3( 0.0f, -FLOAT1, 0.0f ) );

  0009c	b8 01 00 00 00	 mov	 eax, 1
  000a1	89 45 b8	 mov	 DWORD PTR tv677[ebp], eax
  000a4	db 45 b8	 fild	 DWORD PTR tv677[ebp]
  000a7	85 c0		 test	 eax, eax
  000a9	79 06		 jns	 SHORT $LN41@GetBowItem@2
  000ab	d8 05 00 00 00
	00		 fadd	 DWORD PTR __real@4f800000
$LN41@GetBowItem@2:
  000b1	f3 0f 10 45 dc	 movss	 xmm0, DWORD PTR _vDir$530513[ebp+4]
  000b6	d9 e0		 fchs
  000b8	f3 0f 10 55 e0	 movss	 xmm2, DWORD PTR _vDir$530513[ebp+8]
  000bd	d9 5d c4	 fstp	 DWORD PTR $T530519[ebp+4]
  000c0	f3 0f 10 5d c4	 movss	 xmm3, DWORD PTR $T530519[ebp+4]
  000c5	0f 5a c8	 cvtps2pd xmm1, xmm0
  000c8	0f 57 c0	 xorps	 xmm0, xmm0
  000cb	f2 0f 59 c8	 mulsd	 xmm1, xmm0
  000cf	0f 5a d2	 cvtps2pd xmm2, xmm2
  000d2	0f 5a db	 cvtps2pd xmm3, xmm3
  000d5	f2 0f 59 d3	 mulsd	 xmm2, xmm3
  000d9	66 0f 28 d9	 movapd	 xmm3, xmm1
  000dd	f2 0f 5c da	 subsd	 xmm3, xmm2
  000e1	0f 57 d2	 xorps	 xmm2, xmm2
  000e4	f2 0f 5a d3	 cvtsd2ss xmm2, xmm3
  000e8	f3 0f 10 5d d8	 movss	 xmm3, DWORD PTR _vDir$530513[ebp]
  000ed	f3 0f 11 55 e4	 movss	 DWORD PTR _v$531227[ebp], xmm2
  000f2	f3 0f 10 55 e0	 movss	 xmm2, DWORD PTR _vDir$530513[ebp+8]
  000f7	0f 5a d2	 cvtps2pd xmm2, xmm2
  000fa	f2 0f 59 d0	 mulsd	 xmm2, xmm0
  000fe	0f 5a db	 cvtps2pd xmm3, xmm3
  00101	f2 0f 59 d8	 mulsd	 xmm3, xmm0
  00105	0f 57 c0	 xorps	 xmm0, xmm0
  00108	f2 0f 5c d3	 subsd	 xmm2, xmm3
  0010c	f2 0f 5a c2	 cvtsd2ss xmm0, xmm2
  00110	f3 0f 10 55 d8	 movss	 xmm2, DWORD PTR _vDir$530513[ebp]
  00115	f3 0f 11 45 e8	 movss	 DWORD PTR _v$531227[ebp+4], xmm0
  0011a	f3 0f 10 45 c4	 movss	 xmm0, DWORD PTR $T530519[ebp+4]
  0011f	0f 5a c0	 cvtps2pd xmm0, xmm0
  00122	0f 5a d2	 cvtps2pd xmm2, xmm2
  00125	f2 0f 59 c2	 mulsd	 xmm0, xmm2
  00129	f2 0f 5c c1	 subsd	 xmm0, xmm1
  0012d	f2 0f 5a c0	 cvtsd2ss xmm0, xmm0
  00131	f3 0f 11 45 ec	 movss	 DWORD PTR _v$531227[ebp+8], xmm0

; 93   : 
; 94   : 		D3DXQUATERNION qtRot;
; 95   : 		D3DXQuaternionRotationAxis( &qtRot, &vAxis, DEGtoRAD(m_fJumpMarkerAngle) );

  00136	f3 0f 10 83 8c
	00 00 00	 movss	 xmm0, DWORD PTR [ebx+140]
  0013e	8d 75 e4	 lea	 esi, DWORD PTR _v$531227[ebp]
  00141	8d 7d cc	 lea	 edi, DWORD PTR _vAxis$530517[ebp]
  00144	a5		 movsd
  00145	0f 5a c0	 cvtps2pd xmm0, xmm0
  00148	f2 0f 59 05 00
	00 00 00	 mulsd	 xmm0, QWORD PTR __real@3f91df46a2526c7a
  00150	51		 push	 ecx
  00151	66 0f 5a c0	 cvtpd2ps xmm0, xmm0
  00155	f3 0f 11 04 24	 movss	 DWORD PTR [esp], xmm0
  0015a	8d 45 cc	 lea	 eax, DWORD PTR _vAxis$530517[ebp]
  0015d	a5		 movsd
  0015e	50		 push	 eax
  0015f	8d 45 94	 lea	 eax, DWORD PTR _qtRot$530520[ebp]
  00162	50		 push	 eax
  00163	a5		 movsd
  00164	e8 00 00 00 00	 call	 _D3DXQuaternionRotationAxis@12

; 96   : 		vDir = qtRot * vDir;

  00169	8d 45 d8	 lea	 eax, DWORD PTR _vDir$530513[ebp]
  0016c	50		 push	 eax
  0016d	8d 45 94	 lea	 eax, DWORD PTR _qtRot$530520[ebp]
  00170	50		 push	 eax
  00171	8d 45 c0	 lea	 eax, DWORD PTR $T530525[ebp]
  00174	50		 push	 eax
  00175	ff 15 00 00 00
	00		 call	 DWORD PTR __imp_??D@YA?AUD3DXVECTOR3@@ABUD3DXQUATERNION@@ABU0@@Z

; 97   : 		
; 98   : 		D3DXVECTOR3 vTargetPos = m_fMarkerRange * vDir;

  0017b	f3 0f 10 83 84
	00 00 00	 movss	 xmm0, DWORD PTR [ebx+132]
  00183	8b f0		 mov	 esi, eax
  00185	8d 7d d8	 lea	 edi, DWORD PTR _vDir$530513[ebp]
  00188	a5		 movsd
  00189	a5		 movsd
  0018a	0f 5a d0	 cvtps2pd xmm2, xmm0
  0018d	a5		 movsd
  0018e	f3 0f 10 4d d8	 movss	 xmm1, DWORD PTR _vDir$530513[ebp]
  00193	0f 5a c9	 cvtps2pd xmm1, xmm1
  00196	f2 0f 59 ca	 mulsd	 xmm1, xmm2
  0019a	66 0f 5a c9	 cvtpd2ps xmm1, xmm1
  0019e	f3 0f 11 4d e4	 movss	 DWORD PTR _vTargetPos$530526[ebp], xmm1
  001a3	f3 0f 10 4d dc	 movss	 xmm1, DWORD PTR _vDir$530513[ebp+4]
  001a8	0f 5a c9	 cvtps2pd xmm1, xmm1
  001ab	0f 5a d0	 cvtps2pd xmm2, xmm0
  001ae	f2 0f 59 ca	 mulsd	 xmm1, xmm2
  001b2	66 0f 5a c9	 cvtpd2ps xmm1, xmm1
  001b6	f3 0f 11 4d e8	 movss	 DWORD PTR _vTargetPos$530526[ebp+4], xmm1
  001bb	f3 0f 10 4d e0	 movss	 xmm1, DWORD PTR _vDir$530513[ebp+8]
  001c0	0f 5a c0	 cvtps2pd xmm0, xmm0
  001c3	0f 5a c9	 cvtps2pd xmm1, xmm1
  001c6	f2 0f 59 c8	 mulsd	 xmm1, xmm0
  001ca	83 c4 0c	 add	 esp, 12			; 0000000cH
  001cd	0f 57 c0	 xorps	 xmm0, xmm0

; 99   : 		vTargetPos += m_pOwner->GetWorldPosition() + pBiped->GetDerivedPosition();

  001d0	8b 4d bc	 mov	 ecx, DWORD PTR _pBiped$[ebp]
  001d3	8b 01		 mov	 eax, DWORD PTR [ecx]
  001d5	66 0f 5a c1	 cvtpd2ps xmm0, xmm1
  001d9	f3 0f 11 45 ec	 movss	 DWORD PTR _vTargetPos$530526[ebp+8], xmm0
  001de	ff 50 7c	 call	 DWORD PTR [eax+124]
  001e1	8b 5b 04	 mov	 ebx, DWORD PTR [ebx+4]
  001e4	8b f0		 mov	 esi, eax
  001e6	8b 03		 mov	 eax, DWORD PTR [ebx]
  001e8	8b cb		 mov	 ecx, ebx
  001ea	ff 50 70	 call	 DWORD PTR [eax+112]
  001ed	f3 0f 10 00	 movss	 xmm0, DWORD PTR [eax]
  001f1	f3 0f 10 0e	 movss	 xmm1, DWORD PTR [esi]
  001f5	f3 0f 10 56 04	 movss	 xmm2, DWORD PTR [esi+4]
  001fa	f3 0f 10 5e 08	 movss	 xmm3, DWORD PTR [esi+8]
  001ff	0f 5a c0	 cvtps2pd xmm0, xmm0
  00202	0f 5a c9	 cvtps2pd xmm1, xmm1
  00205	f2 0f 58 c1	 addsd	 xmm0, xmm1
  00209	f3 0f 10 48 04	 movss	 xmm1, DWORD PTR [eax+4]
  0020e	66 0f 5a c0	 cvtpd2ps xmm0, xmm0
  00212	0f 5a c9	 cvtps2pd xmm1, xmm1
  00215	0f 5a d2	 cvtps2pd xmm2, xmm2
  00218	f2 0f 58 ca	 addsd	 xmm1, xmm2
  0021c	f3 0f 10 50 08	 movss	 xmm2, DWORD PTR [eax+8]

; 100  : 		return vTargetPos;

  00221	8b 45 b4	 mov	 eax, DWORD PTR ___$ReturnUdt$GSCopy$[ebp]
  00224	f3 0f 5a c0	 cvtss2sd xmm0, xmm0
  00228	0f 5a db	 cvtps2pd xmm3, xmm3
  0022b	0f 5a d2	 cvtps2pd xmm2, xmm2
  0022e	f2 0f 58 d3	 addsd	 xmm2, xmm3
  00232	f3 0f 10 5d e4	 movss	 xmm3, DWORD PTR _vTargetPos$530526[ebp]
  00237	66 0f 5a c9	 cvtpd2ps xmm1, xmm1
  0023b	0f 5a db	 cvtps2pd xmm3, xmm3
  0023e	f2 0f 58 c3	 addsd	 xmm0, xmm3
  00242	66 0f 5a c0	 cvtpd2ps xmm0, xmm0
  00246	f3 0f 11 45 e4	 movss	 DWORD PTR _vTargetPos$530526[ebp], xmm0
  0024b	0f 57 c0	 xorps	 xmm0, xmm0
  0024e	f3 0f 5a c1	 cvtss2sd xmm0, xmm1
  00252	f3 0f 10 4d e8	 movss	 xmm1, DWORD PTR _vTargetPos$530526[ebp+4]
  00257	0f 5a c9	 cvtps2pd xmm1, xmm1
  0025a	f2 0f 58 c1	 addsd	 xmm0, xmm1
  0025e	f3 0f 10 4d ec	 movss	 xmm1, DWORD PTR _vTargetPos$530526[ebp+8]
  00263	66 0f 5a c0	 cvtpd2ps xmm0, xmm0
  00267	f3 0f 11 45 e8	 movss	 DWORD PTR _vTargetPos$530526[ebp+4], xmm0
  0026c	0f 57 c0	 xorps	 xmm0, xmm0
  0026f	66 0f 5a d2	 cvtpd2ps xmm2, xmm2
  00273	f3 0f 5a c2	 cvtss2sd xmm0, xmm2
  00277	0f 5a c9	 cvtps2pd xmm1, xmm1
  0027a	f2 0f 58 c1	 addsd	 xmm0, xmm1
  0027e	66 0f 5a c0	 cvtpd2ps xmm0, xmm0
  00282	f3 0f 11 45 ec	 movss	 DWORD PTR _vTargetPos$530526[ebp+8], xmm0
  00287	8d 75 e4	 lea	 esi, DWORD PTR _vTargetPos$530526[ebp]
  0028a	8b f8		 mov	 edi, eax
  0028c	a5		 movsd
  0028d	a5		 movsd
  0028e	a5		 movsd
  0028f	eb 13		 jmp	 SHORT $LN2@GetBowItem@2
$LN1@GetBowItem@2:

; 101  : 	}
; 102  : 
; 103  : 	return D3DXVECTOR3( 0.0f, 0.0f, 0.0f );

  00291	0f 57 c0	 xorps	 xmm0, xmm0
  00294	f3 0f 11 06	 movss	 DWORD PTR [esi], xmm0
  00298	f3 0f 11 46 04	 movss	 DWORD PTR [esi+4], xmm0
  0029d	f3 0f 11 46 08	 movss	 DWORD PTR [esi+8], xmm0
  002a2	8b c6		 mov	 eax, esi
$LN2@GetBowItem@2:

; 104  : }

  002a4	e8 00 00 00 00	 call	 __EH_epilog3_GS
  002a9	c2 04 00	 ret	 4
_TEXT	ENDS
;	COMDAT text$x
text$x	SEGMENT
__unwindfunclet$?GetBowItemJumpPoint@ioBowItemMarker@@IBE?AUD3DXVECTOR3@@XZ$0:
  00000	8d 4d 84	 lea	 ecx, DWORD PTR $T531191[ebp]
  00003	ff 25 00 00 00
	00		 jmp	 DWORD PTR __imp_??1ioHashString@@QAE@XZ
__ehhandler$?GetBowItemJumpPoint@ioBowItemMarker@@IBE?AUD3DXVECTOR3@@XZ:
  00009	8b 54 24 08	 mov	 edx, DWORD PTR [esp+8]
  0000d	8d 42 0c	 lea	 eax, DWORD PTR [edx+12]
  00010	8b 4a 80	 mov	 ecx, DWORD PTR [edx-128]
  00013	33 c8		 xor	 ecx, eax
  00015	e8 00 00 00 00	 call	 @__security_check_cookie@4
  0001a	8b 4a fc	 mov	 ecx, DWORD PTR [edx-4]
  0001d	33 c8		 xor	 ecx, eax
  0001f	e8 00 00 00 00	 call	 @__security_check_cookie@4
  00024	b8 00 00 00 00	 mov	 eax, OFFSET __ehfuncinfo$?GetBowItemJumpPoint@ioBowItemMarker@@IBE?AUD3DXVECTOR3@@XZ
  00029	e9 00 00 00 00	 jmp	 ___CxxFrameHandler3
text$x	ENDS
?GetBowItemJumpPoint@ioBowItemMarker@@IBE?AUD3DXVECTOR3@@XZ ENDP ; ioBowItemMarker::GetBowItemJumpPoint
PUBLIC	_szEffect$GSCopy$
PUBLIC	__$ArrayPad$
EXTRN	?GetUniqueID@ioMapEffect@@QBEKXZ:PROC		; ioMapEffect::GetUniqueID
EXTRN	?CreateMapEffect@ioPlayStage@@QAEPAVioMapEffect@@ABVioHashString@@ABUD3DXVECTOR3@@1@Z:PROC ; ioPlayStage::CreateMapEffect
EXTRN	__imp_?IsEmpty@ioHashString@@QBE_NXZ:PROC
EXTRN	___security_cookie:DWORD
; Function compile flags: /Ogsp
;	COMDAT ?CreateEffect@ioBowItemMarker@@MAEKPAVioPlayStage@@ABVioHashString@@@Z
_TEXT	SEGMENT
$T530543 = -48						; size = 12
_szEffect$GSCopy$ = -36					; size = 4
tv212 = -32						; size = 4
tv209 = -32						; size = 4
tv206 = -32						; size = 4
_vScale$ = -28						; size = 12
_vPos$ = -16						; size = 12
__$ArrayPad$ = -4					; size = 4
_pStage$ = 8						; size = 4
_szEffect$ = 12						; size = 4
?CreateEffect@ioBowItemMarker@@MAEKPAVioPlayStage@@ABVioHashString@@@Z PROC ; ioBowItemMarker::CreateEffect, COMDAT
; _this$ = ecx

; 107  : {

  00000	55		 push	 ebp
  00001	8b ec		 mov	 ebp, esp
  00003	83 ec 30	 sub	 esp, 48			; 00000030H
  00006	a1 00 00 00 00	 mov	 eax, DWORD PTR ___security_cookie
  0000b	33 c5		 xor	 eax, ebp
  0000d	89 45 fc	 mov	 DWORD PTR __$ArrayPad$[ebp], eax
  00010	53		 push	 ebx
  00011	8b 5d 08	 mov	 ebx, DWORD PTR _pStage$[ebp]
  00014	56		 push	 esi
  00015	8b f1		 mov	 esi, ecx
  00017	8b 4d 0c	 mov	 ecx, DWORD PTR _szEffect$[ebp]

; 118  : 
; 119  : 	ioMapEffect *pEff = pStage->CreateMapEffect( szEffect, vPos, vScale );

  0001a	89 4d dc	 mov	 DWORD PTR _szEffect$GSCopy$[ebp], ecx
  0001d	85 db		 test	 ebx, ebx
  0001f	0f 84 ad 00 00
	00		 je	 $LN1@CreateEffe

; 108  : 	if( !pStage ) return -1;
; 109  : 	if( szEffect.IsEmpty() ) return -1;

  00025	ff 15 00 00 00
	00		 call	 DWORD PTR __imp_?IsEmpty@ioHashString@@QBE_NXZ
  0002b	84 c0		 test	 al, al
  0002d	0f 85 9f 00 00
	00		 jne	 $LN1@CreateEffe

; 110  : 
; 111  : 	D3DXVECTOR3 vPos( 0.0f, 0.0f, 0.0f );

  00033	0f 57 c0	 xorps	 xmm0, xmm0
  00036	57		 push	 edi
  00037	f3 0f 11 45 f0	 movss	 DWORD PTR _vPos$[ebp], xmm0
  0003c	f3 0f 11 45 f4	 movss	 DWORD PTR _vPos$[ebp+4], xmm0
  00041	f3 0f 11 45 f8	 movss	 DWORD PTR _vPos$[ebp+8], xmm0

; 112  : 	D3DXVECTOR3 vScale( FLOAT1, FLOAT1, FLOAT1 );

  00046	b8 01 00 00 00	 mov	 eax, 1
  0004b	8b c8		 mov	 ecx, eax
  0004d	b8 01 00 00 00	 mov	 eax, 1
  00052	8b d0		 mov	 edx, eax
  00054	b8 01 00 00 00	 mov	 eax, 1
  00059	89 45 e0	 mov	 DWORD PTR tv212[ebp], eax
  0005c	db 45 e0	 fild	 DWORD PTR tv212[ebp]
  0005f	85 c0		 test	 eax, eax
  00061	79 06		 jns	 SHORT $LN18@CreateEffe
  00063	d8 05 00 00 00
	00		 fadd	 DWORD PTR __real@4f800000
$LN18@CreateEffe:
  00069	89 55 e0	 mov	 DWORD PTR tv209[ebp], edx
  0006c	d9 5d e4	 fstp	 DWORD PTR _vScale$[ebp]
  0006f	db 45 e0	 fild	 DWORD PTR tv209[ebp]
  00072	85 d2		 test	 edx, edx
  00074	79 06		 jns	 SHORT $LN19@CreateEffe
  00076	d8 05 00 00 00
	00		 fadd	 DWORD PTR __real@4f800000
$LN19@CreateEffe:
  0007c	89 4d e0	 mov	 DWORD PTR tv206[ebp], ecx
  0007f	d9 5d e8	 fstp	 DWORD PTR _vScale$[ebp+4]
  00082	db 45 e0	 fild	 DWORD PTR tv206[ebp]
  00085	85 c9		 test	 ecx, ecx
  00087	79 06		 jns	 SHORT $LN20@CreateEffe
  00089	d8 05 00 00 00
	00		 fadd	 DWORD PTR __real@4f800000
$LN20@CreateEffe:

; 113  : 
; 114  : 	if( m_MarkerState == MS_JUMP_AIM )

  0008f	83 7e 08 05	 cmp	 DWORD PTR [esi+8], 5
  00093	d9 5d ec	 fstp	 DWORD PTR _vScale$[ebp+8]

; 115  : 		vPos = GetBowItemJumpPoint();

  00096	8d 45 d0	 lea	 eax, DWORD PTR $T530543[ebp]
  00099	8b ce		 mov	 ecx, esi
  0009b	50		 push	 eax
  0009c	75 07		 jne	 SHORT $LN3@CreateEffe
  0009e	e8 00 00 00 00	 call	 ?GetBowItemJumpPoint@ioBowItemMarker@@IBE?AUD3DXVECTOR3@@XZ ; ioBowItemMarker::GetBowItemJumpPoint

; 116  : 	else

  000a3	eb 05		 jmp	 SHORT $LN21@CreateEffe
$LN3@CreateEffe:

; 117  : 		vPos = GetBowItemPoint();

  000a5	e8 00 00 00 00	 call	 ?GetBowItemPoint@ioBowItemMarker@@IBE?AUD3DXVECTOR3@@XZ ; ioBowItemMarker::GetBowItemPoint
$LN21@CreateEffe:
  000aa	8b f0		 mov	 esi, eax
  000ac	8d 7d f0	 lea	 edi, DWORD PTR _vPos$[ebp]
  000af	a5		 movsd

; 118  : 
; 119  : 	ioMapEffect *pEff = pStage->CreateMapEffect( szEffect, vPos, vScale );

  000b0	8d 45 e4	 lea	 eax, DWORD PTR _vScale$[ebp]
  000b3	50		 push	 eax
  000b4	8d 45 f0	 lea	 eax, DWORD PTR _vPos$[ebp]
  000b7	a5		 movsd
  000b8	50		 push	 eax
  000b9	ff 75 dc	 push	 DWORD PTR _szEffect$GSCopy$[ebp]
  000bc	8b cb		 mov	 ecx, ebx
  000be	a5		 movsd
  000bf	e8 00 00 00 00	 call	 ?CreateMapEffect@ioPlayStage@@QAEPAVioMapEffect@@ABVioHashString@@ABUD3DXVECTOR3@@1@Z ; ioPlayStage::CreateMapEffect
  000c4	5f		 pop	 edi

; 120  : 	if( pEff )

  000c5	85 c0		 test	 eax, eax
  000c7	74 09		 je	 SHORT $LN1@CreateEffe

; 121  : 	{
; 122  : 		return pEff->GetUniqueID();

  000c9	8b c8		 mov	 ecx, eax
  000cb	e8 00 00 00 00	 call	 ?GetUniqueID@ioMapEffect@@QBEKXZ ; ioMapEffect::GetUniqueID
  000d0	eb 03		 jmp	 SHORT $LN6@CreateEffe
$LN1@CreateEffe:

; 123  : 	}
; 124  : 
; 125  : 	return -1;

  000d2	83 c8 ff	 or	 eax, -1
$LN6@CreateEffe:

; 126  : }

  000d5	8b 4d fc	 mov	 ecx, DWORD PTR __$ArrayPad$[ebp]
  000d8	5e		 pop	 esi
  000d9	33 cd		 xor	 ecx, ebp
  000db	5b		 pop	 ebx
  000dc	e8 00 00 00 00	 call	 @__security_check_cookie@4
  000e1	c9		 leave
  000e2	c2 08 00	 ret	 8
?CreateEffect@ioBowItemMarker@@MAEKPAVioPlayStage@@ABVioHashString@@@Z ENDP ; ioBowItemMarker::CreateEffect
_TEXT	ENDS
PUBLIC	__$ArrayPad$
PUBLIC	?UpdateReadyState@ioBowItemMarker@@IAEXPAVioPlayStage@@@Z ; ioBowItemMarker::UpdateReadyState
EXTRN	?SetVisible@ioMapEffect@@QAEX_N@Z:PROC		; ioMapEffect::SetVisible
EXTRN	?SetWorldPosition@ioMapEffect@@QAEXABUD3DXVECTOR3@@@Z:PROC ; ioMapEffect::SetWorldPosition
EXTRN	?FindMapEffect@ioPlayStage@@QAEPAVioMapEffect@@K@Z:PROC ; ioPlayStage::FindMapEffect
; Function compile flags: /Ogsp
;	COMDAT ?UpdateReadyState@ioBowItemMarker@@IAEXPAVioPlayStage@@@Z
_TEXT	SEGMENT
_bVisible$ = -17					; size = 1
_vPos$ = -16						; size = 12
__$ArrayPad$ = -4					; size = 4
_pStage$ = 8						; size = 4
?UpdateReadyState@ioBowItemMarker@@IAEXPAVioPlayStage@@@Z PROC ; ioBowItemMarker::UpdateReadyState, COMDAT
; _this$ = ecx

; 129  : {

  00000	55		 push	 ebp
  00001	8b ec		 mov	 ebp, esp
  00003	83 ec 14	 sub	 esp, 20			; 00000014H
  00006	a1 00 00 00 00	 mov	 eax, DWORD PTR ___security_cookie
  0000b	33 c5		 xor	 eax, ebp
  0000d	89 45 fc	 mov	 DWORD PTR __$ArrayPad$[ebp], eax
  00010	56		 push	 esi
  00011	57		 push	 edi
  00012	8b 7d 08	 mov	 edi, DWORD PTR _pStage$[ebp]
  00015	8b f1		 mov	 esi, ecx

; 130  : 	if( !pStage ) return;

  00017	85 ff		 test	 edi, edi
  00019	0f 84 80 00 00
	00		 je	 $LN1@UpdateRead

; 131  : 	if( m_ReadyID == -1 ) return;

  0001f	83 7e 6c ff	 cmp	 DWORD PTR [esi+108], -1
  00023	74 7a		 je	 SHORT $LN1@UpdateRead

; 132  : 
; 133  : 	bool bVisible = false;
; 134  : 	bool bDisable = false;
; 135  : 	
; 136  : 	switch( m_pOwner->GetState() )

  00025	8b 46 04	 mov	 eax, DWORD PTR [esi+4]
  00028	8a 88 10 03 00
	00		 mov	 cl, BYTE PTR [eax+784]
  0002e	53		 push	 ebx
  0002f	32 db		 xor	 bl, bl
  00031	c6 45 ef 00	 mov	 BYTE PTR _bVisible$[ebp], 0
  00035	80 f9 04	 cmp	 cl, 4
  00038	72 19		 jb	 SHORT $LN6@UpdateRead
  0003a	80 f9 05	 cmp	 cl, 5
  0003d	76 16		 jbe	 SHORT $LN8@UpdateRead
  0003f	80 f9 6b	 cmp	 cl, 107			; 0000006bH
  00042	74 11		 je	 SHORT $LN8@UpdateRead
  00044	80 f9 76	 cmp	 cl, 118			; 00000076H
  00047	74 0c		 je	 SHORT $LN8@UpdateRead
  00049	80 f9 93	 cmp	 cl, 147			; 00000093H
  0004c	74 07		 je	 SHORT $LN8@UpdateRead
  0004e	80 f9 ae	 cmp	 cl, 174			; 000000aeH

; 137  : 	{
; 138  : 	case CS_ATTACK:
; 139  : 	case CS_JUMP:
; 140  : 	case CS_FLASH_SPECIAL:
; 141  : 	case CS_NANGIN_SPECIAL:
; 142  : 	case CS_NATA_FLY:
; 143  : 	case CS_PREDATOR_SPECIAL:
; 144  : 		break;

  00051	74 02		 je	 SHORT $LN8@UpdateRead
$LN6@UpdateRead:

; 145  : 	default:
; 146  : 		bDisable = true;

  00053	b3 01		 mov	 bl, 1
$LN8@UpdateRead:

; 147  : 		break;
; 148  : 	}
; 149  : 
; 150  : 	if( m_pOwner->IsOwnerChar() )

  00055	80 b8 84 13 00
	00 00		 cmp	 BYTE PTR [eax+4996], 0
  0005c	74 04		 je	 SHORT $LN5@UpdateRead

; 151  : 		bVisible = true;

  0005e	c6 45 ef 01	 mov	 BYTE PTR _bVisible$[ebp], 1
$LN5@UpdateRead:

; 152  : 
; 153  : 	D3DXVECTOR3 vPos = GetBowItemPoint();

  00062	8d 45 f0	 lea	 eax, DWORD PTR _vPos$[ebp]
  00065	50		 push	 eax
  00066	8b ce		 mov	 ecx, esi
  00068	e8 00 00 00 00	 call	 ?GetBowItemPoint@ioBowItemMarker@@IBE?AUD3DXVECTOR3@@XZ ; ioBowItemMarker::GetBowItemPoint

; 154  : 
; 155  : 	ioMapEffect *pEff = pStage->FindMapEffect( m_ReadyID );

  0006d	ff 76 6c	 push	 DWORD PTR [esi+108]
  00070	8b cf		 mov	 ecx, edi
  00072	e8 00 00 00 00	 call	 ?FindMapEffect@ioPlayStage@@QAEPAVioMapEffect@@K@Z ; ioPlayStage::FindMapEffect
  00077	8b f0		 mov	 esi, eax

; 156  : 	if( pEff )

  00079	85 f6		 test	 esi, esi
  0007b	74 21		 je	 SHORT $LN18@UpdateRead

; 157  : 	{
; 158  : 		pEff->SetWorldPosition( vPos );

  0007d	8d 45 f0	 lea	 eax, DWORD PTR _vPos$[ebp]
  00080	50		 push	 eax
  00081	8b ce		 mov	 ecx, esi
  00083	e8 00 00 00 00	 call	 ?SetWorldPosition@ioMapEffect@@QAEXABUD3DXVECTOR3@@@Z ; ioMapEffect::SetWorldPosition

; 159  : 
; 160  : 		if( bDisable || !bVisible )

  00088	84 db		 test	 bl, bl
  0008a	75 09		 jne	 SHORT $LN2@UpdateRead
  0008c	38 5d ef	 cmp	 BYTE PTR _bVisible$[ebp], bl
  0008f	74 04		 je	 SHORT $LN2@UpdateRead

; 162  : 		else
; 163  : 			pEff->SetVisible( true );

  00091	6a 01		 push	 1
  00093	eb 02		 jmp	 SHORT $LN19@UpdateRead
$LN2@UpdateRead:

; 161  : 			pEff->SetVisible( false );

  00095	6a 00		 push	 0
$LN19@UpdateRead:
  00097	8b ce		 mov	 ecx, esi
  00099	e8 00 00 00 00	 call	 ?SetVisible@ioMapEffect@@QAEX_N@Z ; ioMapEffect::SetVisible
$LN18@UpdateRead:
  0009e	5b		 pop	 ebx
$LN1@UpdateRead:

; 164  : 	}
; 165  : }

  0009f	8b 4d fc	 mov	 ecx, DWORD PTR __$ArrayPad$[ebp]
  000a2	5f		 pop	 edi
  000a3	33 cd		 xor	 ecx, ebp
  000a5	5e		 pop	 esi
  000a6	e8 00 00 00 00	 call	 @__security_check_cookie@4
  000ab	c9		 leave
  000ac	c2 04 00	 ret	 4
?UpdateReadyState@ioBowItemMarker@@IAEXPAVioPlayStage@@@Z ENDP ; ioBowItemMarker::UpdateReadyState
_TEXT	ENDS
PUBLIC	__$ArrayPad$
PUBLIC	?UpdateAimingState@ioBowItemMarker@@IAEXPAVioPlayStage@@@Z ; ioBowItemMarker::UpdateAimingState
; Function compile flags: /Ogsp
;	COMDAT ?UpdateAimingState@ioBowItemMarker@@IAEXPAVioPlayStage@@@Z
_TEXT	SEGMENT
_bVisible$ = -17					; size = 1
_vPos$ = -16						; size = 12
__$ArrayPad$ = -4					; size = 4
_pStage$ = 8						; size = 4
?UpdateAimingState@ioBowItemMarker@@IAEXPAVioPlayStage@@@Z PROC ; ioBowItemMarker::UpdateAimingState, COMDAT
; _this$ = ecx

; 168  : {

  00000	55		 push	 ebp
  00001	8b ec		 mov	 ebp, esp
  00003	83 ec 14	 sub	 esp, 20			; 00000014H
  00006	a1 00 00 00 00	 mov	 eax, DWORD PTR ___security_cookie
  0000b	33 c5		 xor	 eax, ebp
  0000d	89 45 fc	 mov	 DWORD PTR __$ArrayPad$[ebp], eax
  00010	56		 push	 esi
  00011	57		 push	 edi
  00012	8b 7d 08	 mov	 edi, DWORD PTR _pStage$[ebp]
  00015	8b f1		 mov	 esi, ecx

; 169  : 	if( !pStage ) return;

  00017	85 ff		 test	 edi, edi
  00019	74 6c		 je	 SHORT $LN1@UpdateAimi

; 170  : 	if( m_AimingID == -1 ) return;

  0001b	83 7e 70 ff	 cmp	 DWORD PTR [esi+112], -1
  0001f	74 66		 je	 SHORT $LN1@UpdateAimi

; 171  : 
; 172  : 	bool bVisible = false;
; 173  : 	bool bDisable = false;
; 174  : 
; 175  : 	if( m_pOwner->GetState() != CS_ATTACK && m_pOwner->GetState() != CS_JUMP )

  00021	8b 46 04	 mov	 eax, DWORD PTR [esi+4]
  00024	8a 88 10 03 00
	00		 mov	 cl, BYTE PTR [eax+784]
  0002a	53		 push	 ebx
  0002b	32 db		 xor	 bl, bl
  0002d	c6 45 ef 00	 mov	 BYTE PTR _bVisible$[ebp], 0
  00031	80 f9 05	 cmp	 cl, 5
  00034	74 07		 je	 SHORT $LN6@UpdateAimi
  00036	80 f9 04	 cmp	 cl, 4
  00039	74 02		 je	 SHORT $LN6@UpdateAimi

; 176  : 		bDisable = true;

  0003b	fe c3		 inc	 bl
$LN6@UpdateAimi:

; 177  : 
; 178  : 	if( m_pOwner->IsOwnerChar() )

  0003d	80 b8 84 13 00
	00 00		 cmp	 BYTE PTR [eax+4996], 0
  00044	74 04		 je	 SHORT $LN5@UpdateAimi

; 179  : 		bVisible = true;

  00046	c6 45 ef 01	 mov	 BYTE PTR _bVisible$[ebp], 1
$LN5@UpdateAimi:

; 180  : 
; 181  : 	D3DXVECTOR3 vPos = GetBowItemPoint();

  0004a	8d 45 f0	 lea	 eax, DWORD PTR _vPos$[ebp]
  0004d	50		 push	 eax
  0004e	8b ce		 mov	 ecx, esi
  00050	e8 00 00 00 00	 call	 ?GetBowItemPoint@ioBowItemMarker@@IBE?AUD3DXVECTOR3@@XZ ; ioBowItemMarker::GetBowItemPoint

; 182  : 
; 183  : 	ioMapEffect *pEff = pStage->FindMapEffect( m_AimingID );

  00055	ff 76 70	 push	 DWORD PTR [esi+112]
  00058	8b cf		 mov	 ecx, edi
  0005a	e8 00 00 00 00	 call	 ?FindMapEffect@ioPlayStage@@QAEPAVioMapEffect@@K@Z ; ioPlayStage::FindMapEffect
  0005f	8b f0		 mov	 esi, eax

; 184  : 	if( pEff )

  00061	85 f6		 test	 esi, esi
  00063	74 21		 je	 SHORT $LN17@UpdateAimi

; 185  : 	{
; 186  : 		pEff->SetWorldPosition( vPos );

  00065	8d 45 f0	 lea	 eax, DWORD PTR _vPos$[ebp]
  00068	50		 push	 eax
  00069	8b ce		 mov	 ecx, esi
  0006b	e8 00 00 00 00	 call	 ?SetWorldPosition@ioMapEffect@@QAEXABUD3DXVECTOR3@@@Z ; ioMapEffect::SetWorldPosition

; 187  : 
; 188  : 		if( bDisable || !bVisible )

  00070	84 db		 test	 bl, bl
  00072	75 09		 jne	 SHORT $LN2@UpdateAimi
  00074	38 5d ef	 cmp	 BYTE PTR _bVisible$[ebp], bl
  00077	74 04		 je	 SHORT $LN2@UpdateAimi

; 190  : 		else
; 191  : 			pEff->SetVisible( true );

  00079	6a 01		 push	 1
  0007b	eb 02		 jmp	 SHORT $LN18@UpdateAimi
$LN2@UpdateAimi:

; 189  : 			pEff->SetVisible( false );

  0007d	6a 00		 push	 0
$LN18@UpdateAimi:
  0007f	8b ce		 mov	 ecx, esi
  00081	e8 00 00 00 00	 call	 ?SetVisible@ioMapEffect@@QAEX_N@Z ; ioMapEffect::SetVisible
$LN17@UpdateAimi:
  00086	5b		 pop	 ebx
$LN1@UpdateAimi:

; 192  : 	}
; 193  : }

  00087	8b 4d fc	 mov	 ecx, DWORD PTR __$ArrayPad$[ebp]
  0008a	5f		 pop	 edi
  0008b	33 cd		 xor	 ecx, ebp
  0008d	5e		 pop	 esi
  0008e	e8 00 00 00 00	 call	 @__security_check_cookie@4
  00093	c9		 leave
  00094	c2 04 00	 ret	 4
?UpdateAimingState@ioBowItemMarker@@IAEXPAVioPlayStage@@@Z ENDP ; ioBowItemMarker::UpdateAimingState
_TEXT	ENDS
PUBLIC	_pStage$GSCopy$
PUBLIC	__$ArrayPad$
PUBLIC	?UpdateAimedState@ioBowItemMarker@@IAEXPAVioPlayStage@@@Z ; ioBowItemMarker::UpdateAimedState
EXTRN	?DestroyMarker@ioTargetMarker@@QAEXPAVioPlayStage@@@Z:PROC ; ioTargetMarker::DestroyMarker
EXTRN	?GetMidPositionByRate@ioGameEntity@@QBE?AUD3DXVECTOR3@@M@Z:PROC ; ioGameEntity::GetMidPositionByRate
EXTRN	?GetTargetChar@ioTargetMarker@@QBEPAVioBaseChar@@XZ:PROC ; ioTargetMarker::GetTargetChar
EXTRN	?FindBall@ioBaseChar@@QAEPAVioBall@@XZ:PROC	; ioBaseChar::FindBall
; Function compile flags: /Ogsp
;	COMDAT ?UpdateAimedState@ioBowItemMarker@@IAEXPAVioPlayStage@@@Z
_TEXT	SEGMENT
_pStage$GSCopy$ = -40					; size = 4
tv369 = -36						; size = 4
tv365 = -36						; size = 4
tv361 = -36						; size = 4
tv343 = -36						; size = 4
tv339 = -36						; size = 4
tv335 = -36						; size = 4
_bDisable$ = -30					; size = 1
_bVisible$ = -29					; size = 1
$T530610 = -28						; size = 12
_vPos$ = -16						; size = 12
__$ArrayPad$ = -4					; size = 4
_pStage$ = 8						; size = 4
?UpdateAimedState@ioBowItemMarker@@IAEXPAVioPlayStage@@@Z PROC ; ioBowItemMarker::UpdateAimedState, COMDAT
; _this$ = ecx

; 196  : {

  00000	55		 push	 ebp
  00001	8b ec		 mov	 ebp, esp
  00003	83 ec 28	 sub	 esp, 40			; 00000028H
  00006	a1 00 00 00 00	 mov	 eax, DWORD PTR ___security_cookie
  0000b	33 c5		 xor	 eax, ebp
  0000d	89 45 fc	 mov	 DWORD PTR __$ArrayPad$[ebp], eax
  00010	8b 45 08	 mov	 eax, DWORD PTR _pStage$[ebp]
  00013	53		 push	 ebx
  00014	8b d9		 mov	 ebx, ecx

; 245  : 	}
; 246  : 
; 247  : 	if( m_AimedID == -1 ) return;

  00016	89 45 d8	 mov	 DWORD PTR _pStage$GSCopy$[ebp], eax
  00019	85 c0		 test	 eax, eax
  0001b	0f 84 6a 01 00
	00		 je	 $LN1@UpdateAime

; 197  : 	if( !pStage ) return;
; 198  : 
; 199  : 	bool bVisible = false;
; 200  : 	bool bDisable = false;
; 201  : 	
; 202  : 	switch( m_pOwner->GetState() )

  00021	8b 43 04	 mov	 eax, DWORD PTR [ebx+4]
  00024	8a 80 10 03 00
	00		 mov	 al, BYTE PTR [eax+784]
  0002a	c6 45 e3 00	 mov	 BYTE PTR _bVisible$[ebp], 0
  0002e	c6 45 e2 00	 mov	 BYTE PTR _bDisable$[ebp], 0
  00032	3c 04		 cmp	 al, 4
  00034	72 14		 jb	 SHORT $LN13@UpdateAime
  00036	3c 05		 cmp	 al, 5
  00038	76 14		 jbe	 SHORT $LN15@UpdateAime
  0003a	3c 6b		 cmp	 al, 107			; 0000006bH
  0003c	74 10		 je	 SHORT $LN15@UpdateAime
  0003e	3c 76		 cmp	 al, 118			; 00000076H
  00040	74 0c		 je	 SHORT $LN15@UpdateAime
  00042	3c 93		 cmp	 al, 147			; 00000093H
  00044	74 08		 je	 SHORT $LN15@UpdateAime
  00046	3c ae		 cmp	 al, 174			; 000000aeH

; 203  : 	{
; 204  : 	case CS_ATTACK:
; 205  : 	case CS_JUMP:
; 206  : 	case CS_FLASH_SPECIAL:
; 207  : 	case CS_NANGIN_SPECIAL:
; 208  : 	case CS_NATA_FLY:
; 209  : 	case CS_PREDATOR_SPECIAL:
; 210  : 		break;

  00048	74 04		 je	 SHORT $LN15@UpdateAime
$LN13@UpdateAime:

; 211  : 	default:
; 212  : 		bDisable = true;

  0004a	c6 45 e2 01	 mov	 BYTE PTR _bDisable$[ebp], 1
$LN15@UpdateAime:
  0004e	56		 push	 esi
  0004f	57		 push	 edi

; 213  : 		break;
; 214  : 	}
; 215  : 
; 216  : 	D3DXVECTOR3 vPos = GetBowItemPoint();

  00050	8d 45 f0	 lea	 eax, DWORD PTR _vPos$[ebp]
  00053	50		 push	 eax
  00054	e8 00 00 00 00	 call	 ?GetBowItemPoint@ioBowItemMarker@@IBE?AUD3DXVECTOR3@@XZ ; ioBowItemMarker::GetBowItemPoint

; 217  : 	if( IsBallTarget() )

  00059	80 bb 90 00 00
	00 00		 cmp	 BYTE PTR [ebx+144], 0
  00060	74 4c		 je	 SHORT $LN12@UpdateAime

; 218  : 	{
; 219  : 		ioBall *pBall = m_pOwner->FindBall();

  00062	8b 4b 04	 mov	 ecx, DWORD PTR [ebx+4]
  00065	e8 00 00 00 00	 call	 ?FindBall@ioBaseChar@@QAEPAVioBall@@XZ ; ioBaseChar::FindBall
  0006a	8b c8		 mov	 ecx, eax

; 220  : 		if( pBall )

  0006c	85 c9		 test	 ecx, ecx
  0006e	0f 84 9d 00 00
	00		 je	 $LN9@UpdateAime

; 221  : 		{
; 222  : 			bVisible = true;

  00074	c6 45 e3 01	 mov	 BYTE PTR _bVisible$[ebp], 1

; 223  : 			vPos = pBall->GetMidPositionByRate();

  00078	b8 05 00 00 00	 mov	 eax, 5
  0007d	8b d0		 mov	 edx, eax
  0007f	b8 0a 00 00 00	 mov	 eax, 10			; 0000000aH
  00084	89 55 dc	 mov	 DWORD PTR tv369[ebp], edx
  00087	db 45 dc	 fild	 DWORD PTR tv369[ebp]
  0008a	85 d2		 test	 edx, edx
  0008c	79 06		 jns	 SHORT $LN38@UpdateAime
  0008e	d8 05 00 00 00
	00		 fadd	 DWORD PTR __real@4f800000
$LN38@UpdateAime:
  00094	89 45 dc	 mov	 DWORD PTR tv365[ebp], eax
  00097	db 45 dc	 fild	 DWORD PTR tv365[ebp]
  0009a	85 c0		 test	 eax, eax
  0009c	79 06		 jns	 SHORT $LN39@UpdateAime
  0009e	d8 05 00 00 00
	00		 fadd	 DWORD PTR __real@4f800000
$LN39@UpdateAime:
  000a4	de f9		 fdivp	 ST(1), ST(0)
  000a6	d9 5d dc	 fstp	 DWORD PTR tv361[ebp]
  000a9	d9 45 dc	 fld	 DWORD PTR tv361[ebp]

; 224  : 		}
; 225  : 	}
; 226  : 	else

  000ac	eb 4e		 jmp	 SHORT $LN42@UpdateAime
$LN12@UpdateAime:

; 227  : 	{
; 228  : 		ioBaseChar *pTarget = GetTargetChar();

  000ae	8b cb		 mov	 ecx, ebx
  000b0	e8 00 00 00 00	 call	 ?GetTargetChar@ioTargetMarker@@QBEPAVioBaseChar@@XZ ; ioTargetMarker::GetTargetChar
  000b5	8b c8		 mov	 ecx, eax

; 229  : 		if( pTarget )

  000b7	85 c9		 test	 ecx, ecx
  000b9	74 56		 je	 SHORT $LN9@UpdateAime

; 230  : 		{
; 231  : 			if( pTarget->IsOwnerChar() )

  000bb	80 b9 84 13 00
	00 00		 cmp	 BYTE PTR [ecx+4996], 0
  000c2	74 04		 je	 SHORT $LN8@UpdateAime

; 232  : 				bVisible = true;

  000c4	c6 45 e3 01	 mov	 BYTE PTR _bVisible$[ebp], 1
$LN8@UpdateAime:

; 233  : 
; 234  : 			vPos = pTarget->GetMidPositionByRate();

  000c8	b8 05 00 00 00	 mov	 eax, 5
  000cd	8b d0		 mov	 edx, eax
  000cf	b8 0a 00 00 00	 mov	 eax, 10			; 0000000aH
  000d4	89 55 dc	 mov	 DWORD PTR tv343[ebp], edx
  000d7	db 45 dc	 fild	 DWORD PTR tv343[ebp]
  000da	85 d2		 test	 edx, edx
  000dc	79 06		 jns	 SHORT $LN40@UpdateAime
  000de	d8 05 00 00 00
	00		 fadd	 DWORD PTR __real@4f800000
$LN40@UpdateAime:
  000e4	89 45 dc	 mov	 DWORD PTR tv339[ebp], eax
  000e7	db 45 dc	 fild	 DWORD PTR tv339[ebp]
  000ea	85 c0		 test	 eax, eax
  000ec	79 06		 jns	 SHORT $LN41@UpdateAime
  000ee	d8 05 00 00 00
	00		 fadd	 DWORD PTR __real@4f800000
$LN41@UpdateAime:
  000f4	de f9		 fdivp	 ST(1), ST(0)
  000f6	d9 5d dc	 fstp	 DWORD PTR tv335[ebp]
  000f9	d9 45 dc	 fld	 DWORD PTR tv335[ebp]
$LN42@UpdateAime:
  000fc	51		 push	 ecx
  000fd	8d 45 e4	 lea	 eax, DWORD PTR $T530610[ebp]
  00100	d9 1c 24	 fstp	 DWORD PTR [esp]
  00103	50		 push	 eax
  00104	e8 00 00 00 00	 call	 ?GetMidPositionByRate@ioGameEntity@@QBE?AUD3DXVECTOR3@@M@Z ; ioGameEntity::GetMidPositionByRate
  00109	8d 7d f0	 lea	 edi, DWORD PTR _vPos$[ebp]
  0010c	8b f0		 mov	 esi, eax
  0010e	a5		 movsd
  0010f	a5		 movsd
  00110	a5		 movsd
$LN9@UpdateAime:

; 235  : 		}
; 236  : 	}
; 237  : 
; 238  : 	if( m_pOwner->IsOwnerChar() )

  00111	8b 43 04	 mov	 eax, DWORD PTR [ebx+4]
  00114	80 b8 84 13 00
	00 00		 cmp	 BYTE PTR [eax+4996], 0
  0011b	74 04		 je	 SHORT $LN7@UpdateAime

; 239  : 		bVisible = true;

  0011d	c6 45 e3 01	 mov	 BYTE PTR _bVisible$[ebp], 1
$LN7@UpdateAime:

; 240  : 
; 241  : 	if( !m_bPreUseEnable && m_bUseEnable )

  00121	80 bb 92 00 00
	00 00		 cmp	 BYTE PTR [ebx+146], 0
  00128	75 24		 jne	 SHORT $LN36@UpdateAime
  0012a	80 bb 91 00 00
	00 00		 cmp	 BYTE PTR [ebx+145], 0
  00131	74 1b		 je	 SHORT $LN36@UpdateAime

; 242  : 	{
; 243  : 		DestroyMarker( pStage );

  00133	ff 75 d8	 push	 DWORD PTR _pStage$GSCopy$[ebp]
  00136	8b cb		 mov	 ecx, ebx
  00138	e8 00 00 00 00	 call	 ?DestroyMarker@ioTargetMarker@@QAEXPAVioPlayStage@@@Z ; ioTargetMarker::DestroyMarker

; 244  : 		m_AimedID = CreateEffect( pStage, m_szAimedEffect );

  0013d	8b 03		 mov	 eax, DWORD PTR [ebx]
  0013f	8d 4b 3c	 lea	 ecx, DWORD PTR [ebx+60]
  00142	51		 push	 ecx
  00143	ff 75 d8	 push	 DWORD PTR _pStage$GSCopy$[ebp]
  00146	8b cb		 mov	 ecx, ebx
  00148	ff 50 0c	 call	 DWORD PTR [eax+12]
  0014b	89 43 74	 mov	 DWORD PTR [ebx+116], eax
$LN36@UpdateAime:

; 245  : 	}
; 246  : 
; 247  : 	if( m_AimedID == -1 ) return;

  0014e	8b 5b 74	 mov	 ebx, DWORD PTR [ebx+116]
  00151	83 fb ff	 cmp	 ebx, -1
  00154	74 33		 je	 SHORT $LN37@UpdateAime

; 248  : 
; 249  : 	ioMapEffect *pEff = pStage->FindMapEffect( m_AimedID );

  00156	8b 4d d8	 mov	 ecx, DWORD PTR _pStage$GSCopy$[ebp]
  00159	53		 push	 ebx
  0015a	e8 00 00 00 00	 call	 ?FindMapEffect@ioPlayStage@@QAEPAVioMapEffect@@K@Z ; ioPlayStage::FindMapEffect
  0015f	8b f0		 mov	 esi, eax

; 250  : 	if( pEff )

  00161	85 f6		 test	 esi, esi
  00163	74 24		 je	 SHORT $LN37@UpdateAime

; 251  : 	{
; 252  : 		pEff->SetWorldPosition( vPos );

  00165	8d 45 f0	 lea	 eax, DWORD PTR _vPos$[ebp]
  00168	50		 push	 eax
  00169	8b ce		 mov	 ecx, esi
  0016b	e8 00 00 00 00	 call	 ?SetWorldPosition@ioMapEffect@@QAEXABUD3DXVECTOR3@@@Z ; ioMapEffect::SetWorldPosition

; 253  : 
; 254  : 		if( bDisable || !bVisible )

  00170	80 7d e2 00	 cmp	 BYTE PTR _bDisable$[ebp], 0
  00174	75 0a		 jne	 SHORT $LN2@UpdateAime
  00176	80 7d e3 00	 cmp	 BYTE PTR _bVisible$[ebp], 0
  0017a	74 04		 je	 SHORT $LN2@UpdateAime

; 256  : 		else
; 257  : 			pEff->SetVisible( true );

  0017c	6a 01		 push	 1
  0017e	eb 02		 jmp	 SHORT $LN43@UpdateAime
$LN2@UpdateAime:

; 255  : 			pEff->SetVisible( false );

  00180	6a 00		 push	 0
$LN43@UpdateAime:
  00182	8b ce		 mov	 ecx, esi
  00184	e8 00 00 00 00	 call	 ?SetVisible@ioMapEffect@@QAEX_N@Z ; ioMapEffect::SetVisible
$LN37@UpdateAime:
  00189	5f		 pop	 edi
  0018a	5e		 pop	 esi
$LN1@UpdateAime:

; 258  : 	}
; 259  : }

  0018b	8b 4d fc	 mov	 ecx, DWORD PTR __$ArrayPad$[ebp]
  0018e	33 cd		 xor	 ecx, ebp
  00190	5b		 pop	 ebx
  00191	e8 00 00 00 00	 call	 @__security_check_cookie@4
  00196	c9		 leave
  00197	c2 04 00	 ret	 4
?UpdateAimedState@ioBowItemMarker@@IAEXPAVioPlayStage@@@Z ENDP ; ioBowItemMarker::UpdateAimedState
_TEXT	ENDS
PUBLIC	_pStage$GSCopy$
PUBLIC	__$ArrayPad$
PUBLIC	?UpdateZeroAimedState@ioBowItemMarker@@IAEXPAVioPlayStage@@@Z ; ioBowItemMarker::UpdateZeroAimedState
; Function compile flags: /Ogsp
;	COMDAT ?UpdateZeroAimedState@ioBowItemMarker@@IAEXPAVioPlayStage@@@Z
_TEXT	SEGMENT
_pStage$GSCopy$ = -40					; size = 4
tv361 = -36						; size = 4
tv357 = -36						; size = 4
tv353 = -36						; size = 4
tv335 = -36						; size = 4
tv331 = -36						; size = 4
tv327 = -36						; size = 4
_bDisable$ = -30					; size = 1
_bVisible$ = -29					; size = 1
$T530637 = -28						; size = 12
_vPos$ = -16						; size = 12
__$ArrayPad$ = -4					; size = 4
_pStage$ = 8						; size = 4
?UpdateZeroAimedState@ioBowItemMarker@@IAEXPAVioPlayStage@@@Z PROC ; ioBowItemMarker::UpdateZeroAimedState, COMDAT
; _this$ = ecx

; 262  : {

  00000	55		 push	 ebp
  00001	8b ec		 mov	 ebp, esp
  00003	83 ec 28	 sub	 esp, 40			; 00000028H
  00006	a1 00 00 00 00	 mov	 eax, DWORD PTR ___security_cookie
  0000b	33 c5		 xor	 eax, ebp
  0000d	89 45 fc	 mov	 DWORD PTR __$ArrayPad$[ebp], eax
  00010	8b 45 08	 mov	 eax, DWORD PTR _pStage$[ebp]
  00013	53		 push	 ebx
  00014	8b d9		 mov	 ebx, ecx

; 300  : 	}
; 301  : 
; 302  : 	if( m_ZeroAimedID == -1 ) return;

  00016	89 45 d8	 mov	 DWORD PTR _pStage$GSCopy$[ebp], eax
  00019	85 c0		 test	 eax, eax
  0001b	0f 84 5a 01 00
	00		 je	 $LN1@UpdateZero

; 263  : 	if( !pStage ) return;
; 264  : 
; 265  : 	bool bVisible = false;
; 266  : 	bool bDisable = false;
; 267  : 
; 268  : 	if( m_pOwner->GetState() != CS_ATTACK && m_pOwner->GetState() != CS_JUMP )

  00021	8b 43 04	 mov	 eax, DWORD PTR [ebx+4]
  00024	8a 80 10 03 00
	00		 mov	 al, BYTE PTR [eax+784]
  0002a	c6 45 e3 00	 mov	 BYTE PTR _bVisible$[ebp], 0
  0002e	c6 45 e2 00	 mov	 BYTE PTR _bDisable$[ebp], 0
  00032	3c 05		 cmp	 al, 5
  00034	74 08		 je	 SHORT $LN13@UpdateZero
  00036	3c 04		 cmp	 al, 4
  00038	74 04		 je	 SHORT $LN13@UpdateZero

; 269  : 		bDisable = true;

  0003a	c6 45 e2 01	 mov	 BYTE PTR _bDisable$[ebp], 1
$LN13@UpdateZero:
  0003e	56		 push	 esi
  0003f	57		 push	 edi

; 270  : 
; 271  : 	D3DXVECTOR3 vPos = GetBowItemPoint();

  00040	8d 45 f0	 lea	 eax, DWORD PTR _vPos$[ebp]
  00043	50		 push	 eax
  00044	e8 00 00 00 00	 call	 ?GetBowItemPoint@ioBowItemMarker@@IBE?AUD3DXVECTOR3@@XZ ; ioBowItemMarker::GetBowItemPoint

; 272  : 	if( IsBallTarget() )

  00049	80 bb 90 00 00
	00 00		 cmp	 BYTE PTR [ebx+144], 0
  00050	74 4c		 je	 SHORT $LN12@UpdateZero

; 273  : 	{
; 274  : 		ioBall *pBall = m_pOwner->FindBall();

  00052	8b 4b 04	 mov	 ecx, DWORD PTR [ebx+4]
  00055	e8 00 00 00 00	 call	 ?FindBall@ioBaseChar@@QAEPAVioBall@@XZ ; ioBaseChar::FindBall
  0005a	8b c8		 mov	 ecx, eax

; 275  : 		if( pBall )

  0005c	85 c9		 test	 ecx, ecx
  0005e	0f 84 9d 00 00
	00		 je	 $LN9@UpdateZero

; 276  : 		{
; 277  : 			bVisible = true;

  00064	c6 45 e3 01	 mov	 BYTE PTR _bVisible$[ebp], 1

; 278  : 			vPos = pBall->GetMidPositionByRate();

  00068	b8 05 00 00 00	 mov	 eax, 5
  0006d	8b d0		 mov	 edx, eax
  0006f	b8 0a 00 00 00	 mov	 eax, 10			; 0000000aH
  00074	89 55 dc	 mov	 DWORD PTR tv361[ebp], edx
  00077	db 45 dc	 fild	 DWORD PTR tv361[ebp]
  0007a	85 d2		 test	 edx, edx
  0007c	79 06		 jns	 SHORT $LN37@UpdateZero
  0007e	d8 05 00 00 00
	00		 fadd	 DWORD PTR __real@4f800000
$LN37@UpdateZero:
  00084	89 45 dc	 mov	 DWORD PTR tv357[ebp], eax
  00087	db 45 dc	 fild	 DWORD PTR tv357[ebp]
  0008a	85 c0		 test	 eax, eax
  0008c	79 06		 jns	 SHORT $LN38@UpdateZero
  0008e	d8 05 00 00 00
	00		 fadd	 DWORD PTR __real@4f800000
$LN38@UpdateZero:
  00094	de f9		 fdivp	 ST(1), ST(0)
  00096	d9 5d dc	 fstp	 DWORD PTR tv353[ebp]
  00099	d9 45 dc	 fld	 DWORD PTR tv353[ebp]

; 279  : 		}
; 280  : 	}
; 281  : 	else

  0009c	eb 4e		 jmp	 SHORT $LN41@UpdateZero
$LN12@UpdateZero:

; 282  : 	{
; 283  : 		ioBaseChar *pTarget = GetTargetChar();

  0009e	8b cb		 mov	 ecx, ebx
  000a0	e8 00 00 00 00	 call	 ?GetTargetChar@ioTargetMarker@@QBEPAVioBaseChar@@XZ ; ioTargetMarker::GetTargetChar
  000a5	8b c8		 mov	 ecx, eax

; 284  : 		if( pTarget )

  000a7	85 c9		 test	 ecx, ecx
  000a9	74 56		 je	 SHORT $LN9@UpdateZero

; 285  : 		{
; 286  : 			if( pTarget->IsOwnerChar() )

  000ab	80 b9 84 13 00
	00 00		 cmp	 BYTE PTR [ecx+4996], 0
  000b2	74 04		 je	 SHORT $LN8@UpdateZero

; 287  : 				bVisible = true;

  000b4	c6 45 e3 01	 mov	 BYTE PTR _bVisible$[ebp], 1
$LN8@UpdateZero:

; 288  : 
; 289  : 			vPos = pTarget->GetMidPositionByRate();

  000b8	b8 05 00 00 00	 mov	 eax, 5
  000bd	8b d0		 mov	 edx, eax
  000bf	b8 0a 00 00 00	 mov	 eax, 10			; 0000000aH
  000c4	89 55 dc	 mov	 DWORD PTR tv335[ebp], edx
  000c7	db 45 dc	 fild	 DWORD PTR tv335[ebp]
  000ca	85 d2		 test	 edx, edx
  000cc	79 06		 jns	 SHORT $LN39@UpdateZero
  000ce	d8 05 00 00 00
	00		 fadd	 DWORD PTR __real@4f800000
$LN39@UpdateZero:
  000d4	89 45 dc	 mov	 DWORD PTR tv331[ebp], eax
  000d7	db 45 dc	 fild	 DWORD PTR tv331[ebp]
  000da	85 c0		 test	 eax, eax
  000dc	79 06		 jns	 SHORT $LN40@UpdateZero
  000de	d8 05 00 00 00
	00		 fadd	 DWORD PTR __real@4f800000
$LN40@UpdateZero:
  000e4	de f9		 fdivp	 ST(1), ST(0)
  000e6	d9 5d dc	 fstp	 DWORD PTR tv327[ebp]
  000e9	d9 45 dc	 fld	 DWORD PTR tv327[ebp]
$LN41@UpdateZero:
  000ec	51		 push	 ecx
  000ed	8d 45 e4	 lea	 eax, DWORD PTR $T530637[ebp]
  000f0	d9 1c 24	 fstp	 DWORD PTR [esp]
  000f3	50		 push	 eax
  000f4	e8 00 00 00 00	 call	 ?GetMidPositionByRate@ioGameEntity@@QBE?AUD3DXVECTOR3@@M@Z ; ioGameEntity::GetMidPositionByRate
  000f9	8d 7d f0	 lea	 edi, DWORD PTR _vPos$[ebp]
  000fc	8b f0		 mov	 esi, eax
  000fe	a5		 movsd
  000ff	a5		 movsd
  00100	a5		 movsd
$LN9@UpdateZero:

; 290  : 		}
; 291  : 	}
; 292  : 
; 293  : 	if( m_pOwner->IsOwnerChar() )

  00101	8b 43 04	 mov	 eax, DWORD PTR [ebx+4]
  00104	80 b8 84 13 00
	00 00		 cmp	 BYTE PTR [eax+4996], 0
  0010b	74 04		 je	 SHORT $LN7@UpdateZero

; 294  : 		bVisible = true;

  0010d	c6 45 e3 01	 mov	 BYTE PTR _bVisible$[ebp], 1
$LN7@UpdateZero:

; 295  : 
; 296  : 	if( !m_bPreUseEnable && m_bUseEnable )

  00111	80 bb 92 00 00
	00 00		 cmp	 BYTE PTR [ebx+146], 0
  00118	75 24		 jne	 SHORT $LN35@UpdateZero
  0011a	80 bb 91 00 00
	00 00		 cmp	 BYTE PTR [ebx+145], 0
  00121	74 1b		 je	 SHORT $LN35@UpdateZero

; 297  : 	{
; 298  : 		DestroyMarker( pStage );

  00123	ff 75 d8	 push	 DWORD PTR _pStage$GSCopy$[ebp]
  00126	8b cb		 mov	 ecx, ebx
  00128	e8 00 00 00 00	 call	 ?DestroyMarker@ioTargetMarker@@QAEXPAVioPlayStage@@@Z ; ioTargetMarker::DestroyMarker

; 299  : 		m_ZeroAimedID = CreateEffect( pStage, m_szZeroAimedEffect );

  0012d	8b 03		 mov	 eax, DWORD PTR [ebx]
  0012f	8d 4b 4c	 lea	 ecx, DWORD PTR [ebx+76]
  00132	51		 push	 ecx
  00133	ff 75 d8	 push	 DWORD PTR _pStage$GSCopy$[ebp]
  00136	8b cb		 mov	 ecx, ebx
  00138	ff 50 0c	 call	 DWORD PTR [eax+12]
  0013b	89 43 78	 mov	 DWORD PTR [ebx+120], eax
$LN35@UpdateZero:

; 300  : 	}
; 301  : 
; 302  : 	if( m_ZeroAimedID == -1 ) return;

  0013e	8b 5b 78	 mov	 ebx, DWORD PTR [ebx+120]
  00141	83 fb ff	 cmp	 ebx, -1
  00144	74 33		 je	 SHORT $LN36@UpdateZero

; 303  : 
; 304  : 	ioMapEffect *pEff = pStage->FindMapEffect( m_ZeroAimedID );

  00146	8b 4d d8	 mov	 ecx, DWORD PTR _pStage$GSCopy$[ebp]
  00149	53		 push	 ebx
  0014a	e8 00 00 00 00	 call	 ?FindMapEffect@ioPlayStage@@QAEPAVioMapEffect@@K@Z ; ioPlayStage::FindMapEffect
  0014f	8b f0		 mov	 esi, eax

; 305  : 	if( pEff )

  00151	85 f6		 test	 esi, esi
  00153	74 24		 je	 SHORT $LN36@UpdateZero

; 306  : 	{
; 307  : 		pEff->SetWorldPosition( vPos );

  00155	8d 45 f0	 lea	 eax, DWORD PTR _vPos$[ebp]
  00158	50		 push	 eax
  00159	8b ce		 mov	 ecx, esi
  0015b	e8 00 00 00 00	 call	 ?SetWorldPosition@ioMapEffect@@QAEXABUD3DXVECTOR3@@@Z ; ioMapEffect::SetWorldPosition

; 308  : 
; 309  : 		if( bDisable || !bVisible )

  00160	80 7d e2 00	 cmp	 BYTE PTR _bDisable$[ebp], 0
  00164	75 0a		 jne	 SHORT $LN2@UpdateZero
  00166	80 7d e3 00	 cmp	 BYTE PTR _bVisible$[ebp], 0
  0016a	74 04		 je	 SHORT $LN2@UpdateZero

; 311  : 		else
; 312  : 			pEff->SetVisible( true );

  0016c	6a 01		 push	 1
  0016e	eb 02		 jmp	 SHORT $LN42@UpdateZero
$LN2@UpdateZero:

; 310  : 			pEff->SetVisible( false );

  00170	6a 00		 push	 0
$LN42@UpdateZero:
  00172	8b ce		 mov	 ecx, esi
  00174	e8 00 00 00 00	 call	 ?SetVisible@ioMapEffect@@QAEX_N@Z ; ioMapEffect::SetVisible
$LN36@UpdateZero:
  00179	5f		 pop	 edi
  0017a	5e		 pop	 esi
$LN1@UpdateZero:

; 313  : 	}
; 314  : }

  0017b	8b 4d fc	 mov	 ecx, DWORD PTR __$ArrayPad$[ebp]
  0017e	33 cd		 xor	 ecx, ebp
  00180	5b		 pop	 ebx
  00181	e8 00 00 00 00	 call	 @__security_check_cookie@4
  00186	c9		 leave
  00187	c2 04 00	 ret	 4
?UpdateZeroAimedState@ioBowItemMarker@@IAEXPAVioPlayStage@@@Z ENDP ; ioBowItemMarker::UpdateZeroAimedState
_TEXT	ENDS
PUBLIC	__$ArrayPad$
PUBLIC	?UpdateJumpAimState@ioBowItemMarker@@IAEXPAVioPlayStage@@@Z ; ioBowItemMarker::UpdateJumpAimState
; Function compile flags: /Ogsp
;	COMDAT ?UpdateJumpAimState@ioBowItemMarker@@IAEXPAVioPlayStage@@@Z
_TEXT	SEGMENT
_bVisible$ = -17					; size = 1
_vPos$ = -16						; size = 12
__$ArrayPad$ = -4					; size = 4
_pStage$ = 8						; size = 4
?UpdateJumpAimState@ioBowItemMarker@@IAEXPAVioPlayStage@@@Z PROC ; ioBowItemMarker::UpdateJumpAimState, COMDAT
; _this$ = ecx

; 317  : {

  00000	55		 push	 ebp
  00001	8b ec		 mov	 ebp, esp
  00003	83 ec 14	 sub	 esp, 20			; 00000014H
  00006	a1 00 00 00 00	 mov	 eax, DWORD PTR ___security_cookie
  0000b	33 c5		 xor	 eax, ebp
  0000d	89 45 fc	 mov	 DWORD PTR __$ArrayPad$[ebp], eax
  00010	56		 push	 esi
  00011	57		 push	 edi
  00012	8b 7d 08	 mov	 edi, DWORD PTR _pStage$[ebp]
  00015	8b f1		 mov	 esi, ecx

; 318  : 	if( !pStage ) return;

  00017	85 ff		 test	 edi, edi
  00019	74 6c		 je	 SHORT $LN1@UpdateJump

; 319  : 	if( m_JumpAimID == -1 ) return;

  0001b	83 7e 7c ff	 cmp	 DWORD PTR [esi+124], -1
  0001f	74 66		 je	 SHORT $LN1@UpdateJump

; 320  : 
; 321  : 	bool bVisible = false;
; 322  : 	bool bDisable = false;
; 323  : 
; 324  : 	if( m_pOwner->GetState() != CS_ATTACK && m_pOwner->GetState() != CS_JUMP )

  00021	8b 46 04	 mov	 eax, DWORD PTR [esi+4]
  00024	8a 88 10 03 00
	00		 mov	 cl, BYTE PTR [eax+784]
  0002a	53		 push	 ebx
  0002b	32 db		 xor	 bl, bl
  0002d	c6 45 ef 00	 mov	 BYTE PTR _bVisible$[ebp], 0
  00031	80 f9 05	 cmp	 cl, 5
  00034	74 07		 je	 SHORT $LN6@UpdateJump
  00036	80 f9 04	 cmp	 cl, 4
  00039	74 02		 je	 SHORT $LN6@UpdateJump

; 325  : 		bDisable = true;

  0003b	fe c3		 inc	 bl
$LN6@UpdateJump:

; 326  : 
; 327  : 	if( m_pOwner->IsOwnerChar() )

  0003d	80 b8 84 13 00
	00 00		 cmp	 BYTE PTR [eax+4996], 0
  00044	74 04		 je	 SHORT $LN5@UpdateJump

; 328  : 		bVisible = true;

  00046	c6 45 ef 01	 mov	 BYTE PTR _bVisible$[ebp], 1
$LN5@UpdateJump:

; 329  : 
; 330  : 	D3DXVECTOR3 vPos = GetBowItemJumpPoint();

  0004a	8d 45 f0	 lea	 eax, DWORD PTR _vPos$[ebp]
  0004d	50		 push	 eax
  0004e	8b ce		 mov	 ecx, esi
  00050	e8 00 00 00 00	 call	 ?GetBowItemJumpPoint@ioBowItemMarker@@IBE?AUD3DXVECTOR3@@XZ ; ioBowItemMarker::GetBowItemJumpPoint

; 331  : 
; 332  : 	ioMapEffect *pEff = pStage->FindMapEffect( m_JumpAimID );

  00055	ff 76 7c	 push	 DWORD PTR [esi+124]
  00058	8b cf		 mov	 ecx, edi
  0005a	e8 00 00 00 00	 call	 ?FindMapEffect@ioPlayStage@@QAEPAVioMapEffect@@K@Z ; ioPlayStage::FindMapEffect
  0005f	8b f0		 mov	 esi, eax

; 333  : 	if( pEff )

  00061	85 f6		 test	 esi, esi
  00063	74 21		 je	 SHORT $LN17@UpdateJump

; 334  : 	{
; 335  : 		pEff->SetWorldPosition( vPos );

  00065	8d 45 f0	 lea	 eax, DWORD PTR _vPos$[ebp]
  00068	50		 push	 eax
  00069	8b ce		 mov	 ecx, esi
  0006b	e8 00 00 00 00	 call	 ?SetWorldPosition@ioMapEffect@@QAEXABUD3DXVECTOR3@@@Z ; ioMapEffect::SetWorldPosition

; 336  : 
; 337  : 		if( bDisable || !bVisible )

  00070	84 db		 test	 bl, bl
  00072	75 09		 jne	 SHORT $LN2@UpdateJump
  00074	38 5d ef	 cmp	 BYTE PTR _bVisible$[ebp], bl
  00077	74 04		 je	 SHORT $LN2@UpdateJump

; 339  : 		else
; 340  : 			pEff->SetVisible( true );

  00079	6a 01		 push	 1
  0007b	eb 02		 jmp	 SHORT $LN18@UpdateJump
$LN2@UpdateJump:

; 338  : 			pEff->SetVisible( false );

  0007d	6a 00		 push	 0
$LN18@UpdateJump:
  0007f	8b ce		 mov	 ecx, esi
  00081	e8 00 00 00 00	 call	 ?SetVisible@ioMapEffect@@QAEX_N@Z ; ioMapEffect::SetVisible
$LN17@UpdateJump:
  00086	5b		 pop	 ebx
$LN1@UpdateJump:

; 341  : 	}
; 342  : }

  00087	8b 4d fc	 mov	 ecx, DWORD PTR __$ArrayPad$[ebp]
  0008a	5f		 pop	 edi
  0008b	33 cd		 xor	 ecx, ebp
  0008d	5e		 pop	 esi
  0008e	e8 00 00 00 00	 call	 @__security_check_cookie@4
  00093	c9		 leave
  00094	c2 04 00	 ret	 4
?UpdateJumpAimState@ioBowItemMarker@@IAEXPAVioPlayStage@@@Z ENDP ; ioBowItemMarker::UpdateJumpAimState
; Function compile flags: /Ogsp
_TEXT	ENDS
;	COMDAT ?Update@ioBowItemMarker@@UAEXPAVioPlayStage@@@Z
_TEXT	SEGMENT
_pStage$ = 8						; size = 4
?Update@ioBowItemMarker@@UAEXPAVioPlayStage@@@Z PROC	; ioBowItemMarker::Update, COMDAT
; _this$ = ecx

; 28   : {

  00000	55		 push	 ebp
  00001	8b ec		 mov	 ebp, esp

; 29   : 	switch( m_MarkerState )

  00003	8b 41 08	 mov	 eax, DWORD PTR [ecx+8]
  00006	48		 dec	 eax
  00007	74 24		 je	 SHORT $LN5@Update
  00009	48		 dec	 eax
  0000a	74 1b		 je	 SHORT $LN4@Update
  0000c	48		 dec	 eax
  0000d	74 12		 je	 SHORT $LN3@Update
  0000f	48		 dec	 eax
  00010	74 09		 je	 SHORT $LN2@Update
  00012	48		 dec	 eax
  00013	75 1e		 jne	 SHORT $LN7@Update

; 47   : 		break;
; 48   : 	}
; 49   : }

  00015	5d		 pop	 ebp

; 44   : 		break;
; 45   : 	case MS_JUMP_AIM:
; 46   : 		UpdateJumpAimState( pStage );

  00016	e9 00 00 00 00	 jmp	 ?UpdateJumpAimState@ioBowItemMarker@@IAEXPAVioPlayStage@@@Z ; ioBowItemMarker::UpdateJumpAimState
$LN2@Update:

; 47   : 		break;
; 48   : 	}
; 49   : }

  0001b	5d		 pop	 ebp

; 41   : 		break;
; 42   : 	case MS_ZERO_AIMED:
; 43   : 		UpdateZeroAimedState( pStage );

  0001c	e9 00 00 00 00	 jmp	 ?UpdateZeroAimedState@ioBowItemMarker@@IAEXPAVioPlayStage@@@Z ; ioBowItemMarker::UpdateZeroAimedState
$LN3@Update:

; 47   : 		break;
; 48   : 	}
; 49   : }

  00021	5d		 pop	 ebp

; 38   : 		break;
; 39   : 	case MS_AIMED:
; 40   : 		UpdateAimedState( pStage );

  00022	e9 00 00 00 00	 jmp	 ?UpdateAimedState@ioBowItemMarker@@IAEXPAVioPlayStage@@@Z ; ioBowItemMarker::UpdateAimedState
$LN4@Update:

; 47   : 		break;
; 48   : 	}
; 49   : }

  00027	5d		 pop	 ebp

; 35   : 		break;
; 36   : 	case MS_AIMING:
; 37   : 		UpdateAimingState( pStage );

  00028	e9 00 00 00 00	 jmp	 ?UpdateAimingState@ioBowItemMarker@@IAEXPAVioPlayStage@@@Z ; ioBowItemMarker::UpdateAimingState
$LN5@Update:

; 47   : 		break;
; 48   : 	}
; 49   : }

  0002d	5d		 pop	 ebp

; 30   : 	{
; 31   : 	case MS_NONE:
; 32   : 		break;
; 33   : 	case MS_READY:
; 34   : 		UpdateReadyState( pStage );

  0002e	e9 00 00 00 00	 jmp	 ?UpdateReadyState@ioBowItemMarker@@IAEXPAVioPlayStage@@@Z ; ioBowItemMarker::UpdateReadyState
$LN7@Update:

; 47   : 		break;
; 48   : 	}
; 49   : }

  00033	5d		 pop	 ebp
  00034	c2 04 00	 ret	 4
?Update@ioBowItemMarker@@UAEXPAVioPlayStage@@@Z ENDP	; ioBowItemMarker::Update
_TEXT	ENDS
END
