; Listing generated by Microsoft (R) Optimizing Compiler Version 16.00.30319.01 

	TITLE	D:\Lost Saga For Developer\Youtube\Tutorial\Source\src\LSClient\ioBonusCashManager.cpp
	.686P
	.XMM
	include listing.inc
	.model	flat

INCLUDELIB MSVCRT
INCLUDELIB OLDNAMES

PUBLIC	?ms_Singleton@?$Singleton@VioBonusCashManager@@@@1PAVioBonusCashManager@@A ; Singleton<ioBonusCashManager>::ms_Singleton
;	COMDAT ?ms_Singleton@?$Singleton@VioBonusCashManager@@@@1PAVioBonusCashManager@@A
_BSS	SEGMENT
?ms_Singleton@?$Singleton@VioBonusCashManager@@@@1PAVioBonusCashManager@@A DD 01H DUP (?) ; Singleton<ioBonusCashManager>::ms_Singleton
_BSS	ENDS
PUBLIC	?LoadBonusCashInfo@ioBonusCashManager@@QAEXXZ	; ioBonusCashManager::LoadBonusCashInfo
; Function compile flags: /Ogsp
; File d:\lost saga for developer\youtube\tutorial\source\src\lsclient\iobonuscashmanager.cpp
;	COMDAT ?LoadBonusCashInfo@ioBonusCashManager@@QAEXXZ
_TEXT	SEGMENT
?LoadBonusCashInfo@ioBonusCashManager@@QAEXXZ PROC	; ioBonusCashManager::LoadBonusCashInfo, COMDAT
; _this$ = ecx

; 22   : }

  00000	c3		 ret	 0
?LoadBonusCashInfo@ioBonusCashManager@@QAEXXZ ENDP	; ioBonusCashManager::LoadBonusCashInfo
_TEXT	ENDS
PUBLIC	??0?$Singleton@VioBonusCashManager@@@@QAE@XZ	; Singleton<ioBonusCashManager>::Singleton<ioBonusCashManager>
; Function compile flags: /Ogsp
; File d:\lost saga for developer\youtube\tutorial\source\src\io3dengine\iosingleton.h
;	COMDAT ??0?$Singleton@VioBonusCashManager@@@@QAE@XZ
_TEXT	SEGMENT
??0?$Singleton@VioBonusCashManager@@@@QAE@XZ PROC	; Singleton<ioBonusCashManager>::Singleton<ioBonusCashManager>, COMDAT
; _this$ = ecx

; 27   : 	Singleton()

  00000	8b c1		 mov	 eax, ecx

; 28   : 	{
; 29   : 		assert( !ms_Singleton );
; 30   : 		int offset = (int)(T*)1 - (int)(Singleton <T>*)(T*)1;
; 31   : 		ms_Singleton = (T*)((int)this + offset);

  00002	8d 48 fc	 lea	 ecx, DWORD PTR [eax-4]
  00005	89 0d 00 00 00
	00		 mov	 DWORD PTR ?ms_Singleton@?$Singleton@VioBonusCashManager@@@@1PAVioBonusCashManager@@A, ecx ; Singleton<ioBonusCashManager>::ms_Singleton

; 32   : 	}

  0000b	c3		 ret	 0
??0?$Singleton@VioBonusCashManager@@@@QAE@XZ ENDP	; Singleton<ioBonusCashManager>::Singleton<ioBonusCashManager>
_TEXT	ENDS
PUBLIC	??1?$Singleton@VioBonusCashManager@@@@QAE@XZ	; Singleton<ioBonusCashManager>::~Singleton<ioBonusCashManager>
; Function compile flags: /Ogsp
;	COMDAT ??1?$Singleton@VioBonusCashManager@@@@QAE@XZ
_TEXT	SEGMENT
??1?$Singleton@VioBonusCashManager@@@@QAE@XZ PROC	; Singleton<ioBonusCashManager>::~Singleton<ioBonusCashManager>, COMDAT
; _this$ = ecx

; 36   : 		assert( ms_Singleton );
; 37   : 		ms_Singleton = 0;

  00000	83 25 00 00 00
	00 00		 and	 DWORD PTR ?ms_Singleton@?$Singleton@VioBonusCashManager@@@@1PAVioBonusCashManager@@A, 0 ; Singleton<ioBonusCashManager>::ms_Singleton

; 38   : 	}

  00007	c3		 ret	 0
??1?$Singleton@VioBonusCashManager@@@@QAE@XZ ENDP	; Singleton<ioBonusCashManager>::~Singleton<ioBonusCashManager>
_TEXT	ENDS
PUBLIC	?GetSingleton@?$Singleton@VioBonusCashManager@@@@SAAAVioBonusCashManager@@XZ ; Singleton<ioBonusCashManager>::GetSingleton
; Function compile flags: /Ogsp
;	COMDAT ?GetSingleton@?$Singleton@VioBonusCashManager@@@@SAAAVioBonusCashManager@@XZ
_TEXT	SEGMENT
?GetSingleton@?$Singleton@VioBonusCashManager@@@@SAAAVioBonusCashManager@@XZ PROC ; Singleton<ioBonusCashManager>::GetSingleton, COMDAT

; 42   : 		assert( ms_Singleton );
; 43   : 		return (*ms_Singleton);

  00000	a1 00 00 00 00	 mov	 eax, DWORD PTR ?ms_Singleton@?$Singleton@VioBonusCashManager@@@@1PAVioBonusCashManager@@A ; Singleton<ioBonusCashManager>::ms_Singleton

; 44   : 	}

  00005	c3		 ret	 0
?GetSingleton@?$Singleton@VioBonusCashManager@@@@SAAAVioBonusCashManager@@XZ ENDP ; Singleton<ioBonusCashManager>::GetSingleton
_TEXT	ENDS
PUBLIC	?size@?$_Tree@V?$_Tmap_traits@HUBonusCashInfo@ioBonusCashManager@@U?$less@H@std@@V?$allocator@U?$pair@$$CBHUBonusCashInfo@ioBonusCashManager@@@std@@@4@$0A@@std@@@std@@QBEIXZ ; std::_Tree<std::_Tmap_traits<int,ioBonusCashManager::BonusCashInfo,std::less<int>,std::allocator<std::pair<int const ,ioBonusCashManager::BonusCashInfo> >,0> >::size
; Function compile flags: /Ogsp
; File c:\program files (x86)\microsoft visual studio 10.0\vc\include\xtree
;	COMDAT ?size@?$_Tree@V?$_Tmap_traits@HUBonusCashInfo@ioBonusCashManager@@U?$less@H@std@@V?$allocator@U?$pair@$$CBHUBonusCashInfo@ioBonusCashManager@@@std@@@4@$0A@@std@@@std@@QBEIXZ
_TEXT	SEGMENT
?size@?$_Tree@V?$_Tmap_traits@HUBonusCashInfo@ioBonusCashManager@@U?$less@H@std@@V?$allocator@U?$pair@$$CBHUBonusCashInfo@ioBonusCashManager@@@std@@@4@$0A@@std@@@std@@QBEIXZ PROC ; std::_Tree<std::_Tmap_traits<int,ioBonusCashManager::BonusCashInfo,std::less<int>,std::allocator<std::pair<int const ,ioBonusCashManager::BonusCashInfo> >,0> >::size, COMDAT
; _this$ = ecx

; 869  : 		return (this->_Mysize);

  00000	8b 41 08	 mov	 eax, DWORD PTR [ecx+8]

; 870  : 		}

  00003	c3		 ret	 0
?size@?$_Tree@V?$_Tmap_traits@HUBonusCashInfo@ioBonusCashManager@@U?$less@H@std@@V?$allocator@U?$pair@$$CBHUBonusCashInfo@ioBonusCashManager@@@std@@@4@$0A@@std@@@std@@QBEIXZ ENDP ; std::_Tree<std::_Tmap_traits<int,ioBonusCashManager::BonusCashInfo,std::less<int>,std::allocator<std::pair<int const ,ioBonusCashManager::BonusCashInfo> >,0> >::size
_TEXT	ENDS
PUBLIC	?empty@?$_Tree@V?$_Tmap_traits@HUBonusCashInfo@ioBonusCashManager@@U?$less@H@std@@V?$allocator@U?$pair@$$CBHUBonusCashInfo@ioBonusCashManager@@@std@@@4@$0A@@std@@@std@@QBE_NXZ ; std::_Tree<std::_Tmap_traits<int,ioBonusCashManager::BonusCashInfo,std::less<int>,std::allocator<std::pair<int const ,ioBonusCashManager::BonusCashInfo> >,0> >::empty
; Function compile flags: /Ogsp
;	COMDAT ?empty@?$_Tree@V?$_Tmap_traits@HUBonusCashInfo@ioBonusCashManager@@U?$less@H@std@@V?$allocator@U?$pair@$$CBHUBonusCashInfo@ioBonusCashManager@@@std@@@4@$0A@@std@@@std@@QBE_NXZ
_TEXT	SEGMENT
?empty@?$_Tree@V?$_Tmap_traits@HUBonusCashInfo@ioBonusCashManager@@U?$less@H@std@@V?$allocator@U?$pair@$$CBHUBonusCashInfo@ioBonusCashManager@@@std@@@4@$0A@@std@@@std@@QBE_NXZ PROC ; std::_Tree<std::_Tmap_traits<int,ioBonusCashManager::BonusCashInfo,std::less<int>,std::allocator<std::pair<int const ,ioBonusCashManager::BonusCashInfo> >,0> >::empty, COMDAT
; _this$ = ecx

; 879  : 		return (size() == 0);

  00000	33 c0		 xor	 eax, eax
  00002	39 41 08	 cmp	 DWORD PTR [ecx+8], eax
  00005	0f 94 c0	 sete	 al

; 880  : 		}

  00008	c3		 ret	 0
?empty@?$_Tree@V?$_Tmap_traits@HUBonusCashInfo@ioBonusCashManager@@U?$less@H@std@@V?$allocator@U?$pair@$$CBHUBonusCashInfo@ioBonusCashManager@@@std@@@4@$0A@@std@@@std@@QBE_NXZ ENDP ; std::_Tree<std::_Tmap_traits<int,ioBonusCashManager::BonusCashInfo,std::less<int>,std::allocator<std::pair<int const ,ioBonusCashManager::BonusCashInfo> >,0> >::empty
_TEXT	ENDS
PUBLIC	??_7bad_alloc@std@@6B@				; std::bad_alloc::`vftable'
PUBLIC	??0bad_alloc@std@@QAE@PBD@Z			; std::bad_alloc::bad_alloc
PUBLIC	??_R4bad_alloc@std@@6B@				; std::bad_alloc::`RTTI Complete Object Locator'
PUBLIC	??_R0?AVbad_alloc@std@@@8			; std::bad_alloc `RTTI Type Descriptor'
PUBLIC	??_R3bad_alloc@std@@8				; std::bad_alloc::`RTTI Class Hierarchy Descriptor'
PUBLIC	??_R2bad_alloc@std@@8				; std::bad_alloc::`RTTI Base Class Array'
PUBLIC	??_R1A@?0A@EA@bad_alloc@std@@8			; std::bad_alloc::`RTTI Base Class Descriptor at (0,-1,0,64)'
PUBLIC	??_R1A@?0A@EA@exception@std@@8			; std::exception::`RTTI Base Class Descriptor at (0,-1,0,64)'
PUBLIC	??_R0?AVexception@std@@@8			; std::exception `RTTI Type Descriptor'
PUBLIC	??_R3exception@std@@8				; std::exception::`RTTI Class Hierarchy Descriptor'
PUBLIC	??_R2exception@std@@8				; std::exception::`RTTI Base Class Array'
EXTRN	__imp_??0exception@std@@QAE@ABQBD@Z:PROC
EXTRN	??_7type_info@@6B@:QWORD			; type_info::`vftable'
EXTRN	??_Ebad_alloc@std@@UAEPAXI@Z:PROC		; std::bad_alloc::`vector deleting destructor'
EXTRN	?what@exception@std@@UBEPBDXZ:PROC		; std::exception::what
;	COMDAT ??_R2exception@std@@8
; File c:\program files (x86)\microsoft visual studio 10.0\vc\include\exception
rdata$r	SEGMENT
??_R2exception@std@@8 DD FLAT:??_R1A@?0A@EA@exception@std@@8 ; std::exception::`RTTI Base Class Array'
rdata$r	ENDS
;	COMDAT ??_R3exception@std@@8
rdata$r	SEGMENT
??_R3exception@std@@8 DD 00H				; std::exception::`RTTI Class Hierarchy Descriptor'
	DD	00H
	DD	01H
	DD	FLAT:??_R2exception@std@@8
rdata$r	ENDS
;	COMDAT ??_R0?AVexception@std@@@8
_DATA	SEGMENT
??_R0?AVexception@std@@@8 DD FLAT:??_7type_info@@6B@	; std::exception `RTTI Type Descriptor'
	DD	00H
	DB	'.?AVexception@std@@', 00H
_DATA	ENDS
;	COMDAT ??_R1A@?0A@EA@exception@std@@8
rdata$r	SEGMENT
??_R1A@?0A@EA@exception@std@@8 DD FLAT:??_R0?AVexception@std@@@8 ; std::exception::`RTTI Base Class Descriptor at (0,-1,0,64)'
	DD	00H
	DD	00H
	DD	0ffffffffH
	DD	00H
	DD	040H
	DD	FLAT:??_R3exception@std@@8
rdata$r	ENDS
;	COMDAT ??_R1A@?0A@EA@bad_alloc@std@@8
rdata$r	SEGMENT
??_R1A@?0A@EA@bad_alloc@std@@8 DD FLAT:??_R0?AVbad_alloc@std@@@8 ; std::bad_alloc::`RTTI Base Class Descriptor at (0,-1,0,64)'
	DD	01H
	DD	00H
	DD	0ffffffffH
	DD	00H
	DD	040H
	DD	FLAT:??_R3bad_alloc@std@@8
rdata$r	ENDS
;	COMDAT ??_R2bad_alloc@std@@8
rdata$r	SEGMENT
??_R2bad_alloc@std@@8 DD FLAT:??_R1A@?0A@EA@bad_alloc@std@@8 ; std::bad_alloc::`RTTI Base Class Array'
	DD	FLAT:??_R1A@?0A@EA@exception@std@@8
rdata$r	ENDS
;	COMDAT ??_R3bad_alloc@std@@8
rdata$r	SEGMENT
??_R3bad_alloc@std@@8 DD 00H				; std::bad_alloc::`RTTI Class Hierarchy Descriptor'
	DD	00H
	DD	02H
	DD	FLAT:??_R2bad_alloc@std@@8
rdata$r	ENDS
;	COMDAT ??_R0?AVbad_alloc@std@@@8
_DATA	SEGMENT
??_R0?AVbad_alloc@std@@@8 DD FLAT:??_7type_info@@6B@	; std::bad_alloc `RTTI Type Descriptor'
	DD	00H
	DB	'.?AVbad_alloc@std@@', 00H
_DATA	ENDS
;	COMDAT ??_R4bad_alloc@std@@6B@
rdata$r	SEGMENT
??_R4bad_alloc@std@@6B@ DD 00H				; std::bad_alloc::`RTTI Complete Object Locator'
	DD	00H
	DD	00H
	DD	FLAT:??_R0?AVbad_alloc@std@@@8
	DD	FLAT:??_R3bad_alloc@std@@8
rdata$r	ENDS
;	COMDAT ??_7bad_alloc@std@@6B@
CONST	SEGMENT
??_7bad_alloc@std@@6B@ DD FLAT:??_R4bad_alloc@std@@6B@	; std::bad_alloc::`vftable'
	DD	FLAT:??_Ebad_alloc@std@@UAEPAXI@Z
	DD	FLAT:?what@exception@std@@UBEPBDXZ
; Function compile flags: /Ogsp
CONST	ENDS
;	COMDAT ??0bad_alloc@std@@QAE@PBD@Z
_TEXT	SEGMENT
__Message$ = 8						; size = 4
??0bad_alloc@std@@QAE@PBD@Z PROC			; std::bad_alloc::bad_alloc, COMDAT
; _this$ = ecx

; 345  : 		{	// construct from message string

  00000	55		 push	 ebp
  00001	8b ec		 mov	 ebp, esp
  00003	56		 push	 esi
  00004	8d 45 08	 lea	 eax, DWORD PTR __Message$[ebp]
  00007	50		 push	 eax
  00008	8b f1		 mov	 esi, ecx
  0000a	ff 15 00 00 00
	00		 call	 DWORD PTR __imp_??0exception@std@@QAE@ABQBD@Z
  00010	c7 06 00 00 00
	00		 mov	 DWORD PTR [esi], OFFSET ??_7bad_alloc@std@@6B@

; 346  : 		}

  00016	8b c6		 mov	 eax, esi
  00018	5e		 pop	 esi
  00019	5d		 pop	 ebp
  0001a	c2 04 00	 ret	 4
??0bad_alloc@std@@QAE@PBD@Z ENDP			; std::bad_alloc::bad_alloc
_TEXT	ENDS
PUBLIC	??1bad_alloc@std@@UAE@XZ			; std::bad_alloc::~bad_alloc
EXTRN	__imp_??1exception@std@@UAE@XZ:PROC
; Function compile flags: /Ogsp
;	COMDAT ??1bad_alloc@std@@UAE@XZ
_TEXT	SEGMENT
??1bad_alloc@std@@UAE@XZ PROC				; std::bad_alloc::~bad_alloc, COMDAT
; _this$ = ecx

; 354  : 		{	// destroy the object

  00000	c7 01 00 00 00
	00		 mov	 DWORD PTR [ecx], OFFSET ??_7bad_alloc@std@@6B@

; 355  : 		}

  00006	ff 25 00 00 00
	00		 jmp	 DWORD PTR __imp_??1exception@std@@UAE@XZ
??1bad_alloc@std@@UAE@XZ ENDP				; std::bad_alloc::~bad_alloc
_TEXT	ENDS
EXTRN	??3@YAXPAX@Z:PROC				; operator delete
; Function compile flags: /Ogsp
;	COMDAT ??_Gbad_alloc@std@@UAEPAXI@Z
_TEXT	SEGMENT
___flags$ = 8						; size = 4
??_Gbad_alloc@std@@UAEPAXI@Z PROC			; std::bad_alloc::`scalar deleting destructor', COMDAT
; _this$ = ecx
  00000	55		 push	 ebp
  00001	8b ec		 mov	 ebp, esp
  00003	56		 push	 esi
  00004	8b f1		 mov	 esi, ecx
  00006	c7 06 00 00 00
	00		 mov	 DWORD PTR [esi], OFFSET ??_7bad_alloc@std@@6B@
  0000c	ff 15 00 00 00
	00		 call	 DWORD PTR __imp_??1exception@std@@UAE@XZ
  00012	f6 45 08 01	 test	 BYTE PTR ___flags$[ebp], 1
  00016	74 07		 je	 SHORT $LN1@scalar
  00018	56		 push	 esi
  00019	e8 00 00 00 00	 call	 ??3@YAXPAX@Z		; operator delete
  0001e	59		 pop	 ecx
$LN1@scalar:
  0001f	8b c6		 mov	 eax, esi
  00021	5e		 pop	 esi
  00022	5d		 pop	 ebp
  00023	c2 04 00	 ret	 4
??_Gbad_alloc@std@@UAEPAXI@Z ENDP			; std::bad_alloc::`scalar deleting destructor'
_TEXT	ENDS
PUBLIC	??2@YAPAXIPAX@Z					; operator new
; Function compile flags: /Ogsp
; File c:\program files (x86)\microsoft visual studio 10.0\vc\include\new
;	COMDAT ??2@YAPAXIPAX@Z
_TEXT	SEGMENT
___formal$ = 8						; size = 4
__Where$ = 12						; size = 4
??2@YAPAXIPAX@Z PROC					; operator new, COMDAT

; 56   : 	{	// construct array with placement at _Where

  00000	55		 push	 ebp
  00001	8b ec		 mov	 ebp, esp

; 57   : 	return (_Where);

  00003	8b 45 0c	 mov	 eax, DWORD PTR __Where$[ebp]

; 58   : 	}

  00006	5d		 pop	 ebp
  00007	c3		 ret	 0
??2@YAPAXIPAX@Z ENDP					; operator new
_TEXT	ENDS
PUBLIC	??3@YAXPAX0@Z					; operator delete
; Function compile flags: /Ogsp
;	COMDAT ??3@YAXPAX0@Z
_TEXT	SEGMENT
___formal$ = 8						; size = 4
___formal$ = 12						; size = 4
??3@YAXPAX0@Z PROC					; operator delete, COMDAT

; 62   : 	}

  00000	c3		 ret	 0
??3@YAXPAX0@Z ENDP					; operator delete
_TEXT	ENDS
PUBLIC	??8?$_Tree_const_iterator@V?$_Tree_val@V?$_Tmap_traits@HUBonusCashInfo@ioBonusCashManager@@U?$less@H@std@@V?$allocator@U?$pair@$$CBHUBonusCashInfo@ioBonusCashManager@@@std@@@4@$0A@@std@@@std@@@std@@QBE_NABV01@@Z ; std::_Tree_const_iterator<std::_Tree_val<std::_Tmap_traits<int,ioBonusCashManager::BonusCashInfo,std::less<int>,std::allocator<std::pair<int const ,ioBonusCashManager::BonusCashInfo> >,0> > >::operator==
; Function compile flags: /Ogsp
; File c:\program files (x86)\microsoft visual studio 10.0\vc\include\xtree
;	COMDAT ??8?$_Tree_const_iterator@V?$_Tree_val@V?$_Tmap_traits@HUBonusCashInfo@ioBonusCashManager@@U?$less@H@std@@V?$allocator@U?$pair@$$CBHUBonusCashInfo@ioBonusCashManager@@@std@@@4@$0A@@std@@@std@@@std@@QBE_NABV01@@Z
_TEXT	SEGMENT
__Right$ = 8						; size = 4
??8?$_Tree_const_iterator@V?$_Tree_val@V?$_Tmap_traits@HUBonusCashInfo@ioBonusCashManager@@U?$less@H@std@@V?$allocator@U?$pair@$$CBHUBonusCashInfo@ioBonusCashManager@@@std@@@4@$0A@@std@@@std@@@std@@QBE_NABV01@@Z PROC ; std::_Tree_const_iterator<std::_Tree_val<std::_Tmap_traits<int,ioBonusCashManager::BonusCashInfo,std::less<int>,std::allocator<std::pair<int const ,ioBonusCashManager::BonusCashInfo> >,0> > >::operator==, COMDAT
; _this$ = ecx

; 316  : 		{	// test for iterator equality

  00000	55		 push	 ebp
  00001	8b ec		 mov	 ebp, esp

; 317  :  #if _ITERATOR_DEBUG_LEVEL == 2
; 318  : 		if (this->_Getcont() == 0
; 319  : 			|| this->_Getcont() != _Right._Getcont())
; 320  : 			{	// report error
; 321  : 			_DEBUG_ERROR("map/set iterators incompatible");
; 322  : 			_SCL_SECURE_INVALID_ARGUMENT;
; 323  : 			}
; 324  : 
; 325  :  #elif _ITERATOR_DEBUG_LEVEL == 1
; 326  : 		_SCL_SECURE_VALIDATE(this->_Getcont() != 0
; 327  : 			&& this->_Getcont() == _Right._Getcont());
; 328  :  #endif /* _ITERATOR_DEBUG_LEVEL */
; 329  : 
; 330  : 		return (this->_Ptr == _Right._Ptr);

  00003	8b 01		 mov	 eax, DWORD PTR [ecx]
  00005	8b 4d 08	 mov	 ecx, DWORD PTR __Right$[ebp]
  00008	2b 01		 sub	 eax, DWORD PTR [ecx]
  0000a	f7 d8		 neg	 eax
  0000c	1b c0		 sbb	 eax, eax
  0000e	40		 inc	 eax

; 331  : 		}

  0000f	5d		 pop	 ebp
  00010	c2 04 00	 ret	 4
??8?$_Tree_const_iterator@V?$_Tree_val@V?$_Tmap_traits@HUBonusCashInfo@ioBonusCashManager@@U?$less@H@std@@V?$allocator@U?$pair@$$CBHUBonusCashInfo@ioBonusCashManager@@@std@@@4@$0A@@std@@@std@@@std@@QBE_NABV01@@Z ENDP ; std::_Tree_const_iterator<std::_Tree_val<std::_Tmap_traits<int,ioBonusCashManager::BonusCashInfo,std::less<int>,std::allocator<std::pair<int const ,ioBonusCashManager::BonusCashInfo> >,0> > >::operator==
_TEXT	ENDS
PUBLIC	??9?$_Tree_const_iterator@V?$_Tree_val@V?$_Tmap_traits@HUBonusCashInfo@ioBonusCashManager@@U?$less@H@std@@V?$allocator@U?$pair@$$CBHUBonusCashInfo@ioBonusCashManager@@@std@@@4@$0A@@std@@@std@@@std@@QBE_NABV01@@Z ; std::_Tree_const_iterator<std::_Tree_val<std::_Tmap_traits<int,ioBonusCashManager::BonusCashInfo,std::less<int>,std::allocator<std::pair<int const ,ioBonusCashManager::BonusCashInfo> >,0> > >::operator!=
; Function compile flags: /Ogsp
;	COMDAT ??9?$_Tree_const_iterator@V?$_Tree_val@V?$_Tmap_traits@HUBonusCashInfo@ioBonusCashManager@@U?$less@H@std@@V?$allocator@U?$pair@$$CBHUBonusCashInfo@ioBonusCashManager@@@std@@@4@$0A@@std@@@std@@@std@@QBE_NABV01@@Z
_TEXT	SEGMENT
__Right$ = 8						; size = 4
??9?$_Tree_const_iterator@V?$_Tree_val@V?$_Tmap_traits@HUBonusCashInfo@ioBonusCashManager@@U?$less@H@std@@V?$allocator@U?$pair@$$CBHUBonusCashInfo@ioBonusCashManager@@@std@@@4@$0A@@std@@@std@@@std@@QBE_NABV01@@Z PROC ; std::_Tree_const_iterator<std::_Tree_val<std::_Tmap_traits<int,ioBonusCashManager::BonusCashInfo,std::less<int>,std::allocator<std::pair<int const ,ioBonusCashManager::BonusCashInfo> >,0> > >::operator!=, COMDAT
; _this$ = ecx

; 334  : 		{	// test for iterator inequality

  00000	55		 push	 ebp
  00001	8b ec		 mov	 ebp, esp

; 335  : 		return (!(*this == _Right));

  00003	8b 01		 mov	 eax, DWORD PTR [ecx]
  00005	8b 55 08	 mov	 edx, DWORD PTR __Right$[ebp]
  00008	33 c9		 xor	 ecx, ecx
  0000a	3b 02		 cmp	 eax, DWORD PTR [edx]
  0000c	0f 95 c0	 setne	 al

; 336  : 		}

  0000f	5d		 pop	 ebp
  00010	c2 04 00	 ret	 4
??9?$_Tree_const_iterator@V?$_Tree_val@V?$_Tmap_traits@HUBonusCashInfo@ioBonusCashManager@@U?$less@H@std@@V?$allocator@U?$pair@$$CBHUBonusCashInfo@ioBonusCashManager@@@std@@@4@$0A@@std@@@std@@@std@@QBE_NABV01@@Z ENDP ; std::_Tree_const_iterator<std::_Tree_val<std::_Tmap_traits<int,ioBonusCashManager::BonusCashInfo,std::less<int>,std::allocator<std::pair<int const ,ioBonusCashManager::BonusCashInfo> >,0> > >::operator!=
_TEXT	ENDS
PUBLIC	??R?$less@H@std@@QBE_NABH0@Z			; std::less<int>::operator()
; Function compile flags: /Ogsp
; File c:\program files (x86)\microsoft visual studio 10.0\vc\include\xfunctional
;	COMDAT ??R?$less@H@std@@QBE_NABH0@Z
_TEXT	SEGMENT
__Left$ = 8						; size = 4
__Right$ = 12						; size = 4
??R?$less@H@std@@QBE_NABH0@Z PROC			; std::less<int>::operator(), COMDAT
; _this$ = ecx

; 124  : 		{	// apply operator< to operands

  00000	55		 push	 ebp
  00001	8b ec		 mov	 ebp, esp

; 125  : 		return (_Left < _Right);

  00003	8b 45 08	 mov	 eax, DWORD PTR __Left$[ebp]
  00006	8b 00		 mov	 eax, DWORD PTR [eax]
  00008	8b 55 0c	 mov	 edx, DWORD PTR __Right$[ebp]
  0000b	33 c9		 xor	 ecx, ecx
  0000d	3b 02		 cmp	 eax, DWORD PTR [edx]
  0000f	0f 9c c0	 setl	 al

; 126  : 		}

  00012	5d		 pop	 ebp
  00013	c2 08 00	 ret	 8
??R?$less@H@std@@QBE_NABH0@Z ENDP			; std::less<int>::operator()
_TEXT	ENDS
PUBLIC	?_Color@?$_Tree_val@V?$_Tmap_traits@HUBonusCashInfo@ioBonusCashManager@@U?$less@H@std@@V?$allocator@U?$pair@$$CBHUBonusCashInfo@ioBonusCashManager@@@std@@@4@$0A@@std@@@std@@SAAADPAU_Node@?$_Tree_nod@V?$_Tmap_traits@HUBonusCashInfo@ioBonusCashManager@@U?$less@H@std@@V?$allocator@U?$pair@$$CBHUBonusCashInfo@ioBonusCashManager@@@std@@@4@$0A@@std@@@2@@Z ; std::_Tree_val<std::_Tmap_traits<int,ioBonusCashManager::BonusCashInfo,std::less<int>,std::allocator<std::pair<int const ,ioBonusCashManager::BonusCashInfo> >,0> >::_Color
; Function compile flags: /Ogsp
; File c:\program files (x86)\microsoft visual studio 10.0\vc\include\xtree
;	COMDAT ?_Color@?$_Tree_val@V?$_Tmap_traits@HUBonusCashInfo@ioBonusCashManager@@U?$less@H@std@@V?$allocator@U?$pair@$$CBHUBonusCashInfo@ioBonusCashManager@@@std@@@4@$0A@@std@@@std@@SAAADPAU_Node@?$_Tree_nod@V?$_Tmap_traits@HUBonusCashInfo@ioBonusCashManager@@U?$less@H@std@@V?$allocator@U?$pair@$$CBHUBonusCashInfo@ioBonusCashManager@@@std@@@4@$0A@@std@@@2@@Z
_TEXT	SEGMENT
__Pnode$ = 8						; size = 4
?_Color@?$_Tree_val@V?$_Tmap_traits@HUBonusCashInfo@ioBonusCashManager@@U?$less@H@std@@V?$allocator@U?$pair@$$CBHUBonusCashInfo@ioBonusCashManager@@@std@@@4@$0A@@std@@@std@@SAAADPAU_Node@?$_Tree_nod@V?$_Tmap_traits@HUBonusCashInfo@ioBonusCashManager@@U?$less@H@std@@V?$allocator@U?$pair@$$CBHUBonusCashInfo@ioBonusCashManager@@@std@@@4@$0A@@std@@@2@@Z PROC ; std::_Tree_val<std::_Tmap_traits<int,ioBonusCashManager::BonusCashInfo,std::less<int>,std::allocator<std::pair<int const ,ioBonusCashManager::BonusCashInfo> >,0> >::_Color, COMDAT

; 606  : 		{	// return reference to color in node

  00000	55		 push	 ebp
  00001	8b ec		 mov	 ebp, esp

; 607  : 		return ((char&)(*_Pnode)._Color);

  00003	8b 45 08	 mov	 eax, DWORD PTR __Pnode$[ebp]
  00006	83 c0 20	 add	 eax, 32			; 00000020H

; 608  : 		}

  00009	5d		 pop	 ebp
  0000a	c3		 ret	 0
?_Color@?$_Tree_val@V?$_Tmap_traits@HUBonusCashInfo@ioBonusCashManager@@U?$less@H@std@@V?$allocator@U?$pair@$$CBHUBonusCashInfo@ioBonusCashManager@@@std@@@4@$0A@@std@@@std@@SAAADPAU_Node@?$_Tree_nod@V?$_Tmap_traits@HUBonusCashInfo@ioBonusCashManager@@U?$less@H@std@@V?$allocator@U?$pair@$$CBHUBonusCashInfo@ioBonusCashManager@@@std@@@4@$0A@@std@@@2@@Z ENDP ; std::_Tree_val<std::_Tmap_traits<int,ioBonusCashManager::BonusCashInfo,std::less<int>,std::allocator<std::pair<int const ,ioBonusCashManager::BonusCashInfo> >,0> >::_Color
_TEXT	ENDS
PUBLIC	?_Isnil@?$_Tree_val@V?$_Tmap_traits@HUBonusCashInfo@ioBonusCashManager@@U?$less@H@std@@V?$allocator@U?$pair@$$CBHUBonusCashInfo@ioBonusCashManager@@@std@@@4@$0A@@std@@@std@@SAAADPAU_Node@?$_Tree_nod@V?$_Tmap_traits@HUBonusCashInfo@ioBonusCashManager@@U?$less@H@std@@V?$allocator@U?$pair@$$CBHUBonusCashInfo@ioBonusCashManager@@@std@@@4@$0A@@std@@@2@@Z ; std::_Tree_val<std::_Tmap_traits<int,ioBonusCashManager::BonusCashInfo,std::less<int>,std::allocator<std::pair<int const ,ioBonusCashManager::BonusCashInfo> >,0> >::_Isnil
; Function compile flags: /Ogsp
;	COMDAT ?_Isnil@?$_Tree_val@V?$_Tmap_traits@HUBonusCashInfo@ioBonusCashManager@@U?$less@H@std@@V?$allocator@U?$pair@$$CBHUBonusCashInfo@ioBonusCashManager@@@std@@@4@$0A@@std@@@std@@SAAADPAU_Node@?$_Tree_nod@V?$_Tmap_traits@HUBonusCashInfo@ioBonusCashManager@@U?$less@H@std@@V?$allocator@U?$pair@$$CBHUBonusCashInfo@ioBonusCashManager@@@std@@@4@$0A@@std@@@2@@Z
_TEXT	SEGMENT
__Pnode$ = 8						; size = 4
?_Isnil@?$_Tree_val@V?$_Tmap_traits@HUBonusCashInfo@ioBonusCashManager@@U?$less@H@std@@V?$allocator@U?$pair@$$CBHUBonusCashInfo@ioBonusCashManager@@@std@@@4@$0A@@std@@@std@@SAAADPAU_Node@?$_Tree_nod@V?$_Tmap_traits@HUBonusCashInfo@ioBonusCashManager@@U?$less@H@std@@V?$allocator@U?$pair@$$CBHUBonusCashInfo@ioBonusCashManager@@@std@@@4@$0A@@std@@@2@@Z PROC ; std::_Tree_val<std::_Tmap_traits<int,ioBonusCashManager::BonusCashInfo,std::less<int>,std::allocator<std::pair<int const ,ioBonusCashManager::BonusCashInfo> >,0> >::_Isnil, COMDAT

; 611  : 		{	// return reference to nil flag in node

  00000	55		 push	 ebp
  00001	8b ec		 mov	 ebp, esp

; 612  : 		return ((char&)(*_Pnode)._Isnil);

  00003	8b 45 08	 mov	 eax, DWORD PTR __Pnode$[ebp]
  00006	83 c0 21	 add	 eax, 33			; 00000021H

; 613  : 		}

  00009	5d		 pop	 ebp
  0000a	c3		 ret	 0
?_Isnil@?$_Tree_val@V?$_Tmap_traits@HUBonusCashInfo@ioBonusCashManager@@U?$less@H@std@@V?$allocator@U?$pair@$$CBHUBonusCashInfo@ioBonusCashManager@@@std@@@4@$0A@@std@@@std@@SAAADPAU_Node@?$_Tree_nod@V?$_Tmap_traits@HUBonusCashInfo@ioBonusCashManager@@U?$less@H@std@@V?$allocator@U?$pair@$$CBHUBonusCashInfo@ioBonusCashManager@@@std@@@4@$0A@@std@@@2@@Z ENDP ; std::_Tree_val<std::_Tmap_traits<int,ioBonusCashManager::BonusCashInfo,std::less<int>,std::allocator<std::pair<int const ,ioBonusCashManager::BonusCashInfo> >,0> >::_Isnil
_TEXT	ENDS
PUBLIC	?_Left@?$_Tree_val@V?$_Tmap_traits@HUBonusCashInfo@ioBonusCashManager@@U?$less@H@std@@V?$allocator@U?$pair@$$CBHUBonusCashInfo@ioBonusCashManager@@@std@@@4@$0A@@std@@@std@@SAAAPAU_Node@?$_Tree_nod@V?$_Tmap_traits@HUBonusCashInfo@ioBonusCashManager@@U?$less@H@std@@V?$allocator@U?$pair@$$CBHUBonusCashInfo@ioBonusCashManager@@@std@@@4@$0A@@std@@@2@PAU342@@Z ; std::_Tree_val<std::_Tmap_traits<int,ioBonusCashManager::BonusCashInfo,std::less<int>,std::allocator<std::pair<int const ,ioBonusCashManager::BonusCashInfo> >,0> >::_Left
; Function compile flags: /Ogsp
;	COMDAT ?_Left@?$_Tree_val@V?$_Tmap_traits@HUBonusCashInfo@ioBonusCashManager@@U?$less@H@std@@V?$allocator@U?$pair@$$CBHUBonusCashInfo@ioBonusCashManager@@@std@@@4@$0A@@std@@@std@@SAAAPAU_Node@?$_Tree_nod@V?$_Tmap_traits@HUBonusCashInfo@ioBonusCashManager@@U?$less@H@std@@V?$allocator@U?$pair@$$CBHUBonusCashInfo@ioBonusCashManager@@@std@@@4@$0A@@std@@@2@PAU342@@Z
_TEXT	SEGMENT
__Pnode$ = 8						; size = 4
?_Left@?$_Tree_val@V?$_Tmap_traits@HUBonusCashInfo@ioBonusCashManager@@U?$less@H@std@@V?$allocator@U?$pair@$$CBHUBonusCashInfo@ioBonusCashManager@@@std@@@4@$0A@@std@@@std@@SAAAPAU_Node@?$_Tree_nod@V?$_Tmap_traits@HUBonusCashInfo@ioBonusCashManager@@U?$less@H@std@@V?$allocator@U?$pair@$$CBHUBonusCashInfo@ioBonusCashManager@@@std@@@4@$0A@@std@@@2@PAU342@@Z PROC ; std::_Tree_val<std::_Tmap_traits<int,ioBonusCashManager::BonusCashInfo,std::less<int>,std::allocator<std::pair<int const ,ioBonusCashManager::BonusCashInfo> >,0> >::_Left, COMDAT

; 621  : 		{	// return reference to left pointer in node

  00000	55		 push	 ebp
  00001	8b ec		 mov	 ebp, esp

; 622  : 		return ((_Nodepref)(*_Pnode)._Left);

  00003	8b 45 08	 mov	 eax, DWORD PTR __Pnode$[ebp]

; 623  : 		}

  00006	5d		 pop	 ebp
  00007	c3		 ret	 0
?_Left@?$_Tree_val@V?$_Tmap_traits@HUBonusCashInfo@ioBonusCashManager@@U?$less@H@std@@V?$allocator@U?$pair@$$CBHUBonusCashInfo@ioBonusCashManager@@@std@@@4@$0A@@std@@@std@@SAAAPAU_Node@?$_Tree_nod@V?$_Tmap_traits@HUBonusCashInfo@ioBonusCashManager@@U?$less@H@std@@V?$allocator@U?$pair@$$CBHUBonusCashInfo@ioBonusCashManager@@@std@@@4@$0A@@std@@@2@PAU342@@Z ENDP ; std::_Tree_val<std::_Tmap_traits<int,ioBonusCashManager::BonusCashInfo,std::less<int>,std::allocator<std::pair<int const ,ioBonusCashManager::BonusCashInfo> >,0> >::_Left
_TEXT	ENDS
PUBLIC	?_Parent@?$_Tree_val@V?$_Tmap_traits@HUBonusCashInfo@ioBonusCashManager@@U?$less@H@std@@V?$allocator@U?$pair@$$CBHUBonusCashInfo@ioBonusCashManager@@@std@@@4@$0A@@std@@@std@@SAAAPAU_Node@?$_Tree_nod@V?$_Tmap_traits@HUBonusCashInfo@ioBonusCashManager@@U?$less@H@std@@V?$allocator@U?$pair@$$CBHUBonusCashInfo@ioBonusCashManager@@@std@@@4@$0A@@std@@@2@PAU342@@Z ; std::_Tree_val<std::_Tmap_traits<int,ioBonusCashManager::BonusCashInfo,std::less<int>,std::allocator<std::pair<int const ,ioBonusCashManager::BonusCashInfo> >,0> >::_Parent
; Function compile flags: /Ogsp
;	COMDAT ?_Parent@?$_Tree_val@V?$_Tmap_traits@HUBonusCashInfo@ioBonusCashManager@@U?$less@H@std@@V?$allocator@U?$pair@$$CBHUBonusCashInfo@ioBonusCashManager@@@std@@@4@$0A@@std@@@std@@SAAAPAU_Node@?$_Tree_nod@V?$_Tmap_traits@HUBonusCashInfo@ioBonusCashManager@@U?$less@H@std@@V?$allocator@U?$pair@$$CBHUBonusCashInfo@ioBonusCashManager@@@std@@@4@$0A@@std@@@2@PAU342@@Z
_TEXT	SEGMENT
__Pnode$ = 8						; size = 4
?_Parent@?$_Tree_val@V?$_Tmap_traits@HUBonusCashInfo@ioBonusCashManager@@U?$less@H@std@@V?$allocator@U?$pair@$$CBHUBonusCashInfo@ioBonusCashManager@@@std@@@4@$0A@@std@@@std@@SAAAPAU_Node@?$_Tree_nod@V?$_Tmap_traits@HUBonusCashInfo@ioBonusCashManager@@U?$less@H@std@@V?$allocator@U?$pair@$$CBHUBonusCashInfo@ioBonusCashManager@@@std@@@4@$0A@@std@@@2@PAU342@@Z PROC ; std::_Tree_val<std::_Tmap_traits<int,ioBonusCashManager::BonusCashInfo,std::less<int>,std::allocator<std::pair<int const ,ioBonusCashManager::BonusCashInfo> >,0> >::_Parent, COMDAT

; 626  : 		{	// return reference to parent pointer in node

  00000	55		 push	 ebp
  00001	8b ec		 mov	 ebp, esp

; 627  : 		return ((_Nodepref)(*_Pnode)._Parent);

  00003	8b 45 08	 mov	 eax, DWORD PTR __Pnode$[ebp]
  00006	83 c0 04	 add	 eax, 4

; 628  : 		}

  00009	5d		 pop	 ebp
  0000a	c3		 ret	 0
?_Parent@?$_Tree_val@V?$_Tmap_traits@HUBonusCashInfo@ioBonusCashManager@@U?$less@H@std@@V?$allocator@U?$pair@$$CBHUBonusCashInfo@ioBonusCashManager@@@std@@@4@$0A@@std@@@std@@SAAAPAU_Node@?$_Tree_nod@V?$_Tmap_traits@HUBonusCashInfo@ioBonusCashManager@@U?$less@H@std@@V?$allocator@U?$pair@$$CBHUBonusCashInfo@ioBonusCashManager@@@std@@@4@$0A@@std@@@2@PAU342@@Z ENDP ; std::_Tree_val<std::_Tmap_traits<int,ioBonusCashManager::BonusCashInfo,std::less<int>,std::allocator<std::pair<int const ,ioBonusCashManager::BonusCashInfo> >,0> >::_Parent
_TEXT	ENDS
PUBLIC	?_Right@?$_Tree_val@V?$_Tmap_traits@HUBonusCashInfo@ioBonusCashManager@@U?$less@H@std@@V?$allocator@U?$pair@$$CBHUBonusCashInfo@ioBonusCashManager@@@std@@@4@$0A@@std@@@std@@SAAAPAU_Node@?$_Tree_nod@V?$_Tmap_traits@HUBonusCashInfo@ioBonusCashManager@@U?$less@H@std@@V?$allocator@U?$pair@$$CBHUBonusCashInfo@ioBonusCashManager@@@std@@@4@$0A@@std@@@2@PAU342@@Z ; std::_Tree_val<std::_Tmap_traits<int,ioBonusCashManager::BonusCashInfo,std::less<int>,std::allocator<std::pair<int const ,ioBonusCashManager::BonusCashInfo> >,0> >::_Right
; Function compile flags: /Ogsp
;	COMDAT ?_Right@?$_Tree_val@V?$_Tmap_traits@HUBonusCashInfo@ioBonusCashManager@@U?$less@H@std@@V?$allocator@U?$pair@$$CBHUBonusCashInfo@ioBonusCashManager@@@std@@@4@$0A@@std@@@std@@SAAAPAU_Node@?$_Tree_nod@V?$_Tmap_traits@HUBonusCashInfo@ioBonusCashManager@@U?$less@H@std@@V?$allocator@U?$pair@$$CBHUBonusCashInfo@ioBonusCashManager@@@std@@@4@$0A@@std@@@2@PAU342@@Z
_TEXT	SEGMENT
__Pnode$ = 8						; size = 4
?_Right@?$_Tree_val@V?$_Tmap_traits@HUBonusCashInfo@ioBonusCashManager@@U?$less@H@std@@V?$allocator@U?$pair@$$CBHUBonusCashInfo@ioBonusCashManager@@@std@@@4@$0A@@std@@@std@@SAAAPAU_Node@?$_Tree_nod@V?$_Tmap_traits@HUBonusCashInfo@ioBonusCashManager@@U?$less@H@std@@V?$allocator@U?$pair@$$CBHUBonusCashInfo@ioBonusCashManager@@@std@@@4@$0A@@std@@@2@PAU342@@Z PROC ; std::_Tree_val<std::_Tmap_traits<int,ioBonusCashManager::BonusCashInfo,std::less<int>,std::allocator<std::pair<int const ,ioBonusCashManager::BonusCashInfo> >,0> >::_Right, COMDAT

; 631  : 		{	// return reference to right pointer in node

  00000	55		 push	 ebp
  00001	8b ec		 mov	 ebp, esp

; 632  : 		return ((_Nodepref)(*_Pnode)._Right);

  00003	8b 45 08	 mov	 eax, DWORD PTR __Pnode$[ebp]
  00006	83 c0 08	 add	 eax, 8

; 633  : 		}

  00009	5d		 pop	 ebp
  0000a	c3		 ret	 0
?_Right@?$_Tree_val@V?$_Tmap_traits@HUBonusCashInfo@ioBonusCashManager@@U?$less@H@std@@V?$allocator@U?$pair@$$CBHUBonusCashInfo@ioBonusCashManager@@@std@@@4@$0A@@std@@@std@@SAAAPAU_Node@?$_Tree_nod@V?$_Tmap_traits@HUBonusCashInfo@ioBonusCashManager@@U?$less@H@std@@V?$allocator@U?$pair@$$CBHUBonusCashInfo@ioBonusCashManager@@@std@@@4@$0A@@std@@@2@PAU342@@Z ENDP ; std::_Tree_val<std::_Tmap_traits<int,ioBonusCashManager::BonusCashInfo,std::less<int>,std::allocator<std::pair<int const ,ioBonusCashManager::BonusCashInfo> >,0> >::_Right
_TEXT	ENDS
PUBLIC	?_Myval@?$_Tree_val@V?$_Tmap_traits@HUBonusCashInfo@ioBonusCashManager@@U?$less@H@std@@V?$allocator@U?$pair@$$CBHUBonusCashInfo@ioBonusCashManager@@@std@@@4@$0A@@std@@@std@@SAAAU?$pair@$$CBHUBonusCashInfo@ioBonusCashManager@@@2@PAU_Node@?$_Tree_nod@V?$_Tmap_traits@HUBonusCashInfo@ioBonusCashManager@@U?$less@H@std@@V?$allocator@U?$pair@$$CBHUBonusCashInfo@ioBonusCashManager@@@std@@@4@$0A@@std@@@2@@Z ; std::_Tree_val<std::_Tmap_traits<int,ioBonusCashManager::BonusCashInfo,std::less<int>,std::allocator<std::pair<int const ,ioBonusCashManager::BonusCashInfo> >,0> >::_Myval
; Function compile flags: /Ogsp
;	COMDAT ?_Myval@?$_Tree_val@V?$_Tmap_traits@HUBonusCashInfo@ioBonusCashManager@@U?$less@H@std@@V?$allocator@U?$pair@$$CBHUBonusCashInfo@ioBonusCashManager@@@std@@@4@$0A@@std@@@std@@SAAAU?$pair@$$CBHUBonusCashInfo@ioBonusCashManager@@@2@PAU_Node@?$_Tree_nod@V?$_Tmap_traits@HUBonusCashInfo@ioBonusCashManager@@U?$less@H@std@@V?$allocator@U?$pair@$$CBHUBonusCashInfo@ioBonusCashManager@@@std@@@4@$0A@@std@@@2@@Z
_TEXT	SEGMENT
__Pnode$ = 8						; size = 4
?_Myval@?$_Tree_val@V?$_Tmap_traits@HUBonusCashInfo@ioBonusCashManager@@U?$less@H@std@@V?$allocator@U?$pair@$$CBHUBonusCashInfo@ioBonusCashManager@@@std@@@4@$0A@@std@@@std@@SAAAU?$pair@$$CBHUBonusCashInfo@ioBonusCashManager@@@2@PAU_Node@?$_Tree_nod@V?$_Tmap_traits@HUBonusCashInfo@ioBonusCashManager@@U?$less@H@std@@V?$allocator@U?$pair@$$CBHUBonusCashInfo@ioBonusCashManager@@@std@@@4@$0A@@std@@@2@@Z PROC ; std::_Tree_val<std::_Tmap_traits<int,ioBonusCashManager::BonusCashInfo,std::less<int>,std::allocator<std::pair<int const ,ioBonusCashManager::BonusCashInfo> >,0> >::_Myval, COMDAT

; 636  : 		{	// return reference to value in node

  00000	55		 push	 ebp
  00001	8b ec		 mov	 ebp, esp

; 637  : 		return ((reference)(*_Pnode)._Myval);

  00003	8b 45 08	 mov	 eax, DWORD PTR __Pnode$[ebp]
  00006	83 c0 0c	 add	 eax, 12			; 0000000cH

; 638  : 		}

  00009	5d		 pop	 ebp
  0000a	c3		 ret	 0
?_Myval@?$_Tree_val@V?$_Tmap_traits@HUBonusCashInfo@ioBonusCashManager@@U?$less@H@std@@V?$allocator@U?$pair@$$CBHUBonusCashInfo@ioBonusCashManager@@@std@@@4@$0A@@std@@@std@@SAAAU?$pair@$$CBHUBonusCashInfo@ioBonusCashManager@@@2@PAU_Node@?$_Tree_nod@V?$_Tmap_traits@HUBonusCashInfo@ioBonusCashManager@@U?$less@H@std@@V?$allocator@U?$pair@$$CBHUBonusCashInfo@ioBonusCashManager@@@std@@@4@$0A@@std@@@2@@Z ENDP ; std::_Tree_val<std::_Tmap_traits<int,ioBonusCashManager::BonusCashInfo,std::less<int>,std::allocator<std::pair<int const ,ioBonusCashManager::BonusCashInfo> >,0> >::_Myval
_TEXT	ENDS
PUBLIC	?_Max@?$_Tree_val@V?$_Tmap_traits@HUBonusCashInfo@ioBonusCashManager@@U?$less@H@std@@V?$allocator@U?$pair@$$CBHUBonusCashInfo@ioBonusCashManager@@@std@@@4@$0A@@std@@@std@@SAPAU_Node@?$_Tree_nod@V?$_Tmap_traits@HUBonusCashInfo@ioBonusCashManager@@U?$less@H@std@@V?$allocator@U?$pair@$$CBHUBonusCashInfo@ioBonusCashManager@@@std@@@4@$0A@@std@@@2@PAU342@@Z ; std::_Tree_val<std::_Tmap_traits<int,ioBonusCashManager::BonusCashInfo,std::less<int>,std::allocator<std::pair<int const ,ioBonusCashManager::BonusCashInfo> >,0> >::_Max
; Function compile flags: /Ogsp
;	COMDAT ?_Max@?$_Tree_val@V?$_Tmap_traits@HUBonusCashInfo@ioBonusCashManager@@U?$less@H@std@@V?$allocator@U?$pair@$$CBHUBonusCashInfo@ioBonusCashManager@@@std@@@4@$0A@@std@@@std@@SAPAU_Node@?$_Tree_nod@V?$_Tmap_traits@HUBonusCashInfo@ioBonusCashManager@@U?$less@H@std@@V?$allocator@U?$pair@$$CBHUBonusCashInfo@ioBonusCashManager@@@std@@@4@$0A@@std@@@2@PAU342@@Z
_TEXT	SEGMENT
__Pnode$ = 8						; size = 4
?_Max@?$_Tree_val@V?$_Tmap_traits@HUBonusCashInfo@ioBonusCashManager@@U?$less@H@std@@V?$allocator@U?$pair@$$CBHUBonusCashInfo@ioBonusCashManager@@@std@@@4@$0A@@std@@@std@@SAPAU_Node@?$_Tree_nod@V?$_Tmap_traits@HUBonusCashInfo@ioBonusCashManager@@U?$less@H@std@@V?$allocator@U?$pair@$$CBHUBonusCashInfo@ioBonusCashManager@@@std@@@4@$0A@@std@@@2@PAU342@@Z PROC ; std::_Tree_val<std::_Tmap_traits<int,ioBonusCashManager::BonusCashInfo,std::less<int>,std::allocator<std::pair<int const ,ioBonusCashManager::BonusCashInfo> >,0> >::_Max, COMDAT

; 641  : 		{	// return rightmost node in subtree at _Pnode

  00000	55		 push	 ebp
  00001	8b ec		 mov	 ebp, esp

; 642  : 		while (!_Isnil(_Right(_Pnode)))

  00003	8b 45 08	 mov	 eax, DWORD PTR __Pnode$[ebp]
  00006	eb 02		 jmp	 SHORT $LN14@Max
$LL2@Max:

; 643  : 			_Pnode = _Right(_Pnode);

  00008	8b c1		 mov	 eax, ecx
$LN14@Max:

; 642  : 		while (!_Isnil(_Right(_Pnode)))

  0000a	8b 48 08	 mov	 ecx, DWORD PTR [eax+8]
  0000d	80 79 21 00	 cmp	 BYTE PTR [ecx+33], 0
  00011	74 f5		 je	 SHORT $LL2@Max

; 644  : 		return (_Pnode);
; 645  : 		}

  00013	5d		 pop	 ebp
  00014	c3		 ret	 0
?_Max@?$_Tree_val@V?$_Tmap_traits@HUBonusCashInfo@ioBonusCashManager@@U?$less@H@std@@V?$allocator@U?$pair@$$CBHUBonusCashInfo@ioBonusCashManager@@@std@@@4@$0A@@std@@@std@@SAPAU_Node@?$_Tree_nod@V?$_Tmap_traits@HUBonusCashInfo@ioBonusCashManager@@U?$less@H@std@@V?$allocator@U?$pair@$$CBHUBonusCashInfo@ioBonusCashManager@@@std@@@4@$0A@@std@@@2@PAU342@@Z ENDP ; std::_Tree_val<std::_Tmap_traits<int,ioBonusCashManager::BonusCashInfo,std::less<int>,std::allocator<std::pair<int const ,ioBonusCashManager::BonusCashInfo> >,0> >::_Max
_TEXT	ENDS
PUBLIC	?_Min@?$_Tree_val@V?$_Tmap_traits@HUBonusCashInfo@ioBonusCashManager@@U?$less@H@std@@V?$allocator@U?$pair@$$CBHUBonusCashInfo@ioBonusCashManager@@@std@@@4@$0A@@std@@@std@@SAPAU_Node@?$_Tree_nod@V?$_Tmap_traits@HUBonusCashInfo@ioBonusCashManager@@U?$less@H@std@@V?$allocator@U?$pair@$$CBHUBonusCashInfo@ioBonusCashManager@@@std@@@4@$0A@@std@@@2@PAU342@@Z ; std::_Tree_val<std::_Tmap_traits<int,ioBonusCashManager::BonusCashInfo,std::less<int>,std::allocator<std::pair<int const ,ioBonusCashManager::BonusCashInfo> >,0> >::_Min
; Function compile flags: /Ogsp
;	COMDAT ?_Min@?$_Tree_val@V?$_Tmap_traits@HUBonusCashInfo@ioBonusCashManager@@U?$less@H@std@@V?$allocator@U?$pair@$$CBHUBonusCashInfo@ioBonusCashManager@@@std@@@4@$0A@@std@@@std@@SAPAU_Node@?$_Tree_nod@V?$_Tmap_traits@HUBonusCashInfo@ioBonusCashManager@@U?$less@H@std@@V?$allocator@U?$pair@$$CBHUBonusCashInfo@ioBonusCashManager@@@std@@@4@$0A@@std@@@2@PAU342@@Z
_TEXT	SEGMENT
__Pnode$ = 8						; size = 4
?_Min@?$_Tree_val@V?$_Tmap_traits@HUBonusCashInfo@ioBonusCashManager@@U?$less@H@std@@V?$allocator@U?$pair@$$CBHUBonusCashInfo@ioBonusCashManager@@@std@@@4@$0A@@std@@@std@@SAPAU_Node@?$_Tree_nod@V?$_Tmap_traits@HUBonusCashInfo@ioBonusCashManager@@U?$less@H@std@@V?$allocator@U?$pair@$$CBHUBonusCashInfo@ioBonusCashManager@@@std@@@4@$0A@@std@@@2@PAU342@@Z PROC ; std::_Tree_val<std::_Tmap_traits<int,ioBonusCashManager::BonusCashInfo,std::less<int>,std::allocator<std::pair<int const ,ioBonusCashManager::BonusCashInfo> >,0> >::_Min, COMDAT

; 648  : 		{	// return leftmost node in subtree at _Pnode

  00000	55		 push	 ebp
  00001	8b ec		 mov	 ebp, esp

; 649  : 		while (!_Isnil(_Left(_Pnode)))

  00003	8b 45 08	 mov	 eax, DWORD PTR __Pnode$[ebp]
  00006	eb 02		 jmp	 SHORT $LN14@Min
$LL2@Min:

; 650  : 			_Pnode = _Left(_Pnode);

  00008	8b c1		 mov	 eax, ecx
$LN14@Min:

; 649  : 		while (!_Isnil(_Left(_Pnode)))

  0000a	8b 08		 mov	 ecx, DWORD PTR [eax]
  0000c	80 79 21 00	 cmp	 BYTE PTR [ecx+33], 0
  00010	74 f6		 je	 SHORT $LL2@Min

; 651  : 		return (_Pnode);
; 652  : 		}

  00012	5d		 pop	 ebp
  00013	c3		 ret	 0
?_Min@?$_Tree_val@V?$_Tmap_traits@HUBonusCashInfo@ioBonusCashManager@@U?$less@H@std@@V?$allocator@U?$pair@$$CBHUBonusCashInfo@ioBonusCashManager@@@std@@@4@$0A@@std@@@std@@SAPAU_Node@?$_Tree_nod@V?$_Tmap_traits@HUBonusCashInfo@ioBonusCashManager@@U?$less@H@std@@V?$allocator@U?$pair@$$CBHUBonusCashInfo@ioBonusCashManager@@@std@@@4@$0A@@std@@@2@PAU342@@Z ENDP ; std::_Tree_val<std::_Tmap_traits<int,ioBonusCashManager::BonusCashInfo,std::less<int>,std::allocator<std::pair<int const ,ioBonusCashManager::BonusCashInfo> >,0> >::_Min
_TEXT	ENDS
PUBLIC	??0?$allocator@U?$pair@$$CBHUBonusCashInfo@ioBonusCashManager@@@std@@@std@@QAE@XZ ; std::allocator<std::pair<int const ,ioBonusCashManager::BonusCashInfo> >::allocator<std::pair<int const ,ioBonusCashManager::BonusCashInfo> >
; Function compile flags: /Ogsp
; File c:\program files (x86)\microsoft visual studio 10.0\vc\include\xmemory
;	COMDAT ??0?$allocator@U?$pair@$$CBHUBonusCashInfo@ioBonusCashManager@@@std@@@std@@QAE@XZ
_TEXT	SEGMENT
??0?$allocator@U?$pair@$$CBHUBonusCashInfo@ioBonusCashManager@@@std@@@std@@QAE@XZ PROC ; std::allocator<std::pair<int const ,ioBonusCashManager::BonusCashInfo> >::allocator<std::pair<int const ,ioBonusCashManager::BonusCashInfo> >, COMDAT
; _this$ = ecx

; 161  : 	_ALLOCATOR() _THROW0()

  00000	8b c1		 mov	 eax, ecx

; 162  : 		{	// construct default allocator (do nothing)
; 163  : 		}

  00002	c3		 ret	 0
??0?$allocator@U?$pair@$$CBHUBonusCashInfo@ioBonusCashManager@@@std@@@std@@QAE@XZ ENDP ; std::allocator<std::pair<int const ,ioBonusCashManager::BonusCashInfo> >::allocator<std::pair<int const ,ioBonusCashManager::BonusCashInfo> >
_TEXT	ENDS
PUBLIC	?deallocate@?$allocator@U_Node@?$_Tree_nod@V?$_Tmap_traits@HUBonusCashInfo@ioBonusCashManager@@U?$less@H@std@@V?$allocator@U?$pair@$$CBHUBonusCashInfo@ioBonusCashManager@@@std@@@4@$0A@@std@@@std@@@std@@QAEXPAU_Node@?$_Tree_nod@V?$_Tmap_traits@HUBonusCashInfo@ioBonusCashManager@@U?$less@H@std@@V?$allocator@U?$pair@$$CBHUBonusCashInfo@ioBonusCashManager@@@std@@@4@$0A@@std@@@2@I@Z ; std::allocator<std::_Tree_nod<std::_Tmap_traits<int,ioBonusCashManager::BonusCashInfo,std::less<int>,std::allocator<std::pair<int const ,ioBonusCashManager::BonusCashInfo> >,0> >::_Node>::deallocate
; Function compile flags: /Ogsp
;	COMDAT ?deallocate@?$allocator@U_Node@?$_Tree_nod@V?$_Tmap_traits@HUBonusCashInfo@ioBonusCashManager@@U?$less@H@std@@V?$allocator@U?$pair@$$CBHUBonusCashInfo@ioBonusCashManager@@@std@@@4@$0A@@std@@@std@@@std@@QAEXPAU_Node@?$_Tree_nod@V?$_Tmap_traits@HUBonusCashInfo@ioBonusCashManager@@U?$less@H@std@@V?$allocator@U?$pair@$$CBHUBonusCashInfo@ioBonusCashManager@@@std@@@4@$0A@@std@@@2@I@Z
_TEXT	SEGMENT
__Ptr$ = 8						; size = 4
___formal$ = 12						; size = 4
?deallocate@?$allocator@U_Node@?$_Tree_nod@V?$_Tmap_traits@HUBonusCashInfo@ioBonusCashManager@@U?$less@H@std@@V?$allocator@U?$pair@$$CBHUBonusCashInfo@ioBonusCashManager@@@std@@@4@$0A@@std@@@std@@@std@@QAEXPAU_Node@?$_Tree_nod@V?$_Tmap_traits@HUBonusCashInfo@ioBonusCashManager@@U?$less@H@std@@V?$allocator@U?$pair@$$CBHUBonusCashInfo@ioBonusCashManager@@@std@@@4@$0A@@std@@@2@I@Z PROC ; std::allocator<std::_Tree_nod<std::_Tmap_traits<int,ioBonusCashManager::BonusCashInfo,std::less<int>,std::allocator<std::pair<int const ,ioBonusCashManager::BonusCashInfo> >,0> >::_Node>::deallocate, COMDAT
; _this$ = ecx

; 181  : 		{	// deallocate object at _Ptr, ignore size

  00000	55		 push	 ebp
  00001	8b ec		 mov	 ebp, esp

; 182  : 		::operator delete(_Ptr);

  00003	ff 75 08	 push	 DWORD PTR __Ptr$[ebp]
  00006	e8 00 00 00 00	 call	 ??3@YAXPAX@Z		; operator delete
  0000b	59		 pop	 ecx

; 183  : 		}

  0000c	5d		 pop	 ebp
  0000d	c2 08 00	 ret	 8
?deallocate@?$allocator@U_Node@?$_Tree_nod@V?$_Tmap_traits@HUBonusCashInfo@ioBonusCashManager@@U?$less@H@std@@V?$allocator@U?$pair@$$CBHUBonusCashInfo@ioBonusCashManager@@@std@@@4@$0A@@std@@@std@@@std@@QAEXPAU_Node@?$_Tree_nod@V?$_Tmap_traits@HUBonusCashInfo@ioBonusCashManager@@U?$less@H@std@@V?$allocator@U?$pair@$$CBHUBonusCashInfo@ioBonusCashManager@@@std@@@4@$0A@@std@@@2@I@Z ENDP ; std::allocator<std::_Tree_nod<std::_Tmap_traits<int,ioBonusCashManager::BonusCashInfo,std::less<int>,std::allocator<std::pair<int const ,ioBonusCashManager::BonusCashInfo> >,0> >::_Node>::deallocate
_TEXT	ENDS
PUBLIC	??0?$_Tree_unchecked_const_iterator@V?$_Tree_val@V?$_Tmap_traits@HUBonusCashInfo@ioBonusCashManager@@U?$less@H@std@@V?$allocator@U?$pair@$$CBHUBonusCashInfo@ioBonusCashManager@@@std@@@4@$0A@@std@@@std@@U_Iterator_base0@2@@std@@QAE@XZ ; std::_Tree_unchecked_const_iterator<std::_Tree_val<std::_Tmap_traits<int,ioBonusCashManager::BonusCashInfo,std::less<int>,std::allocator<std::pair<int const ,ioBonusCashManager::BonusCashInfo> >,0> >,std::_Iterator_base0>::_Tree_unchecked_const_iterator<std::_Tree_val<std::_Tmap_traits<int,ioBonusCashManager::BonusCashInfo,std::less<int>,std::allocator<std::pair<int const ,ioBonusCashManager::BonusCashInfo> >,0> >,std::_Iterator_base0>
; Function compile flags: /Ogsp
; File c:\program files (x86)\microsoft visual studio 10.0\vc\include\xtree
;	COMDAT ??0?$_Tree_unchecked_const_iterator@V?$_Tree_val@V?$_Tmap_traits@HUBonusCashInfo@ioBonusCashManager@@U?$less@H@std@@V?$allocator@U?$pair@$$CBHUBonusCashInfo@ioBonusCashManager@@@std@@@4@$0A@@std@@@std@@U_Iterator_base0@2@@std@@QAE@XZ
_TEXT	SEGMENT
??0?$_Tree_unchecked_const_iterator@V?$_Tree_val@V?$_Tmap_traits@HUBonusCashInfo@ioBonusCashManager@@U?$less@H@std@@V?$allocator@U?$pair@$$CBHUBonusCashInfo@ioBonusCashManager@@@std@@@4@$0A@@std@@@std@@U_Iterator_base0@2@@std@@QAE@XZ PROC ; std::_Tree_unchecked_const_iterator<std::_Tree_val<std::_Tmap_traits<int,ioBonusCashManager::BonusCashInfo,std::less<int>,std::allocator<std::pair<int const ,ioBonusCashManager::BonusCashInfo> >,0> >,std::_Iterator_base0>::_Tree_unchecked_const_iterator<std::_Tree_val<std::_Tmap_traits<int,ioBonusCashManager::BonusCashInfo,std::less<int>,std::allocator<std::pair<int const ,ioBonusCashManager::BonusCashInfo> >,0> >,std::_Iterator_base0>, COMDAT
; _this$ = ecx

; 38   : 		{	// construct with null node pointer

  00000	8b c1		 mov	 eax, ecx
  00002	83 20 00	 and	 DWORD PTR [eax], 0

; 39   : 		}

  00005	c3		 ret	 0
??0?$_Tree_unchecked_const_iterator@V?$_Tree_val@V?$_Tmap_traits@HUBonusCashInfo@ioBonusCashManager@@U?$less@H@std@@V?$allocator@U?$pair@$$CBHUBonusCashInfo@ioBonusCashManager@@@std@@@4@$0A@@std@@@std@@U_Iterator_base0@2@@std@@QAE@XZ ENDP ; std::_Tree_unchecked_const_iterator<std::_Tree_val<std::_Tmap_traits<int,ioBonusCashManager::BonusCashInfo,std::less<int>,std::allocator<std::pair<int const ,ioBonusCashManager::BonusCashInfo> >,0> >,std::_Iterator_base0>::_Tree_unchecked_const_iterator<std::_Tree_val<std::_Tmap_traits<int,ioBonusCashManager::BonusCashInfo,std::less<int>,std::allocator<std::pair<int const ,ioBonusCashManager::BonusCashInfo> >,0> >,std::_Iterator_base0>
_TEXT	ENDS
PUBLIC	??D?$_Tree_unchecked_const_iterator@V?$_Tree_val@V?$_Tmap_traits@HUBonusCashInfo@ioBonusCashManager@@U?$less@H@std@@V?$allocator@U?$pair@$$CBHUBonusCashInfo@ioBonusCashManager@@@std@@@4@$0A@@std@@@std@@U_Iterator_base0@2@@std@@QBEABU?$pair@$$CBHUBonusCashInfo@ioBonusCashManager@@@1@XZ ; std::_Tree_unchecked_const_iterator<std::_Tree_val<std::_Tmap_traits<int,ioBonusCashManager::BonusCashInfo,std::less<int>,std::allocator<std::pair<int const ,ioBonusCashManager::BonusCashInfo> >,0> >,std::_Iterator_base0>::operator*
; Function compile flags: /Ogsp
;	COMDAT ??D?$_Tree_unchecked_const_iterator@V?$_Tree_val@V?$_Tmap_traits@HUBonusCashInfo@ioBonusCashManager@@U?$less@H@std@@V?$allocator@U?$pair@$$CBHUBonusCashInfo@ioBonusCashManager@@@std@@@4@$0A@@std@@@std@@U_Iterator_base0@2@@std@@QBEABU?$pair@$$CBHUBonusCashInfo@ioBonusCashManager@@@1@XZ
_TEXT	SEGMENT
??D?$_Tree_unchecked_const_iterator@V?$_Tree_val@V?$_Tmap_traits@HUBonusCashInfo@ioBonusCashManager@@U?$less@H@std@@V?$allocator@U?$pair@$$CBHUBonusCashInfo@ioBonusCashManager@@@std@@@4@$0A@@std@@@std@@U_Iterator_base0@2@@std@@QBEABU?$pair@$$CBHUBonusCashInfo@ioBonusCashManager@@@1@XZ PROC ; std::_Tree_unchecked_const_iterator<std::_Tree_val<std::_Tmap_traits<int,ioBonusCashManager::BonusCashInfo,std::less<int>,std::allocator<std::pair<int const ,ioBonusCashManager::BonusCashInfo> >,0> >,std::_Iterator_base0>::operator*, COMDAT
; _this$ = ecx

; 49   : 		return (_Mytree::_Myval(_Ptr));

  00000	8b 01		 mov	 eax, DWORD PTR [ecx]
  00002	83 c0 0c	 add	 eax, 12			; 0000000cH

; 50   : 		}

  00005	c3		 ret	 0
??D?$_Tree_unchecked_const_iterator@V?$_Tree_val@V?$_Tmap_traits@HUBonusCashInfo@ioBonusCashManager@@U?$less@H@std@@V?$allocator@U?$pair@$$CBHUBonusCashInfo@ioBonusCashManager@@@std@@@4@$0A@@std@@@std@@U_Iterator_base0@2@@std@@QBEABU?$pair@$$CBHUBonusCashInfo@ioBonusCashManager@@@1@XZ ENDP ; std::_Tree_unchecked_const_iterator<std::_Tree_val<std::_Tmap_traits<int,ioBonusCashManager::BonusCashInfo,std::less<int>,std::allocator<std::pair<int const ,ioBonusCashManager::BonusCashInfo> >,0> >,std::_Iterator_base0>::operator*
_TEXT	ENDS
PUBLIC	?_Mynode@?$_Tree_unchecked_const_iterator@V?$_Tree_val@V?$_Tmap_traits@HUBonusCashInfo@ioBonusCashManager@@U?$less@H@std@@V?$allocator@U?$pair@$$CBHUBonusCashInfo@ioBonusCashManager@@@std@@@4@$0A@@std@@@std@@U_Iterator_base0@2@@std@@QBEPAU_Node@?$_Tree_nod@V?$_Tmap_traits@HUBonusCashInfo@ioBonusCashManager@@U?$less@H@std@@V?$allocator@U?$pair@$$CBHUBonusCashInfo@ioBonusCashManager@@@std@@@4@$0A@@std@@@2@XZ ; std::_Tree_unchecked_const_iterator<std::_Tree_val<std::_Tmap_traits<int,ioBonusCashManager::BonusCashInfo,std::less<int>,std::allocator<std::pair<int const ,ioBonusCashManager::BonusCashInfo> >,0> >,std::_Iterator_base0>::_Mynode
; Function compile flags: /Ogsp
;	COMDAT ?_Mynode@?$_Tree_unchecked_const_iterator@V?$_Tree_val@V?$_Tmap_traits@HUBonusCashInfo@ioBonusCashManager@@U?$less@H@std@@V?$allocator@U?$pair@$$CBHUBonusCashInfo@ioBonusCashManager@@@std@@@4@$0A@@std@@@std@@U_Iterator_base0@2@@std@@QBEPAU_Node@?$_Tree_nod@V?$_Tmap_traits@HUBonusCashInfo@ioBonusCashManager@@U?$less@H@std@@V?$allocator@U?$pair@$$CBHUBonusCashInfo@ioBonusCashManager@@@std@@@4@$0A@@std@@@2@XZ
_TEXT	SEGMENT
?_Mynode@?$_Tree_unchecked_const_iterator@V?$_Tree_val@V?$_Tmap_traits@HUBonusCashInfo@ioBonusCashManager@@U?$less@H@std@@V?$allocator@U?$pair@$$CBHUBonusCashInfo@ioBonusCashManager@@@std@@@4@$0A@@std@@@std@@U_Iterator_base0@2@@std@@QBEPAU_Node@?$_Tree_nod@V?$_Tmap_traits@HUBonusCashInfo@ioBonusCashManager@@U?$less@H@std@@V?$allocator@U?$pair@$$CBHUBonusCashInfo@ioBonusCashManager@@@std@@@4@$0A@@std@@@2@XZ PROC ; std::_Tree_unchecked_const_iterator<std::_Tree_val<std::_Tmap_traits<int,ioBonusCashManager::BonusCashInfo,std::less<int>,std::allocator<std::pair<int const ,ioBonusCashManager::BonusCashInfo> >,0> >,std::_Iterator_base0>::_Mynode, COMDAT
; _this$ = ecx

; 122  : 		return (_Ptr);

  00000	8b 01		 mov	 eax, DWORD PTR [ecx]

; 123  : 		}

  00002	c3		 ret	 0
?_Mynode@?$_Tree_unchecked_const_iterator@V?$_Tree_val@V?$_Tmap_traits@HUBonusCashInfo@ioBonusCashManager@@U?$less@H@std@@V?$allocator@U?$pair@$$CBHUBonusCashInfo@ioBonusCashManager@@@std@@@4@$0A@@std@@@std@@U_Iterator_base0@2@@std@@QBEPAU_Node@?$_Tree_nod@V?$_Tmap_traits@HUBonusCashInfo@ioBonusCashManager@@U?$less@H@std@@V?$allocator@U?$pair@$$CBHUBonusCashInfo@ioBonusCashManager@@@std@@@4@$0A@@std@@@2@XZ ENDP ; std::_Tree_unchecked_const_iterator<std::_Tree_val<std::_Tmap_traits<int,ioBonusCashManager::BonusCashInfo,std::less<int>,std::allocator<std::pair<int const ,ioBonusCashManager::BonusCashInfo> >,0> >,std::_Iterator_base0>::_Mynode
_TEXT	ENDS
PUBLIC	??0?$allocator@U?$pair@$$CBHUBonusCashInfo@ioBonusCashManager@@@std@@@std@@QAE@ABV01@@Z ; std::allocator<std::pair<int const ,ioBonusCashManager::BonusCashInfo> >::allocator<std::pair<int const ,ioBonusCashManager::BonusCashInfo> >
; Function compile flags: /Ogsp
; File c:\program files (x86)\microsoft visual studio 10.0\vc\include\xmemory
;	COMDAT ??0?$allocator@U?$pair@$$CBHUBonusCashInfo@ioBonusCashManager@@@std@@@std@@QAE@ABV01@@Z
_TEXT	SEGMENT
___formal$ = 8						; size = 4
??0?$allocator@U?$pair@$$CBHUBonusCashInfo@ioBonusCashManager@@@std@@@std@@QAE@ABV01@@Z PROC ; std::allocator<std::pair<int const ,ioBonusCashManager::BonusCashInfo> >::allocator<std::pair<int const ,ioBonusCashManager::BonusCashInfo> >, COMDAT
; _this$ = ecx

; 165  : 	_ALLOCATOR(const _ALLOCATOR<_Ty>&) _THROW0()

  00000	8b c1		 mov	 eax, ecx

; 166  : 		{	// construct by copying (do nothing)
; 167  : 		}

  00002	c2 04 00	 ret	 4
??0?$allocator@U?$pair@$$CBHUBonusCashInfo@ioBonusCashManager@@@std@@@std@@QAE@ABV01@@Z ENDP ; std::allocator<std::pair<int const ,ioBonusCashManager::BonusCashInfo> >::allocator<std::pair<int const ,ioBonusCashManager::BonusCashInfo> >
_TEXT	ENDS
PUBLIC	??D?$_Tree_const_iterator@V?$_Tree_val@V?$_Tmap_traits@HUBonusCashInfo@ioBonusCashManager@@U?$less@H@std@@V?$allocator@U?$pair@$$CBHUBonusCashInfo@ioBonusCashManager@@@std@@@4@$0A@@std@@@std@@@std@@QBEABU?$pair@$$CBHUBonusCashInfo@ioBonusCashManager@@@1@XZ ; std::_Tree_const_iterator<std::_Tree_val<std::_Tmap_traits<int,ioBonusCashManager::BonusCashInfo,std::less<int>,std::allocator<std::pair<int const ,ioBonusCashManager::BonusCashInfo> >,0> > >::operator*
; Function compile flags: /Ogsp
; File c:\program files (x86)\microsoft visual studio 10.0\vc\include\xtree
;	COMDAT ??D?$_Tree_const_iterator@V?$_Tree_val@V?$_Tmap_traits@HUBonusCashInfo@ioBonusCashManager@@U?$less@H@std@@V?$allocator@U?$pair@$$CBHUBonusCashInfo@ioBonusCashManager@@@std@@@4@$0A@@std@@@std@@@std@@QBEABU?$pair@$$CBHUBonusCashInfo@ioBonusCashManager@@@1@XZ
_TEXT	SEGMENT
??D?$_Tree_const_iterator@V?$_Tree_val@V?$_Tmap_traits@HUBonusCashInfo@ioBonusCashManager@@U?$less@H@std@@V?$allocator@U?$pair@$$CBHUBonusCashInfo@ioBonusCashManager@@@std@@@4@$0A@@std@@@std@@@std@@QBEABU?$pair@$$CBHUBonusCashInfo@ioBonusCashManager@@@1@XZ PROC ; std::_Tree_const_iterator<std::_Tree_val<std::_Tmap_traits<int,ioBonusCashManager::BonusCashInfo,std::less<int>,std::allocator<std::pair<int const ,ioBonusCashManager::BonusCashInfo> >,0> > >::operator*, COMDAT
; _this$ = ecx

; 231  :  #if _ITERATOR_DEBUG_LEVEL == 2
; 232  : 		if (this->_Getcont() == 0
; 233  : 			|| this->_Ptr == 0
; 234  : 			|| this->_Ptr == ((_Mytree *)this->_Getcont())->_Myhead)
; 235  : 			{	// report error
; 236  : 			_DEBUG_ERROR("map/set iterator not dereferencable");
; 237  : 			_SCL_SECURE_OUT_OF_RANGE;
; 238  : 			}
; 239  : 
; 240  :  #elif _ITERATOR_DEBUG_LEVEL == 1
; 241  : 		_SCL_SECURE_VALIDATE(this->_Getcont() != 0 && this->_Ptr != 0);
; 242  : 		_SCL_SECURE_VALIDATE_RANGE(this->_Ptr !=
; 243  : 			((_Mytree *)this->_Getcont())->_Myhead);
; 244  :  #endif /* _ITERATOR_DEBUG_LEVEL */
; 245  : 
; 246  : 		return (_Mytree::_Myval(this->_Ptr));

  00000	8b 01		 mov	 eax, DWORD PTR [ecx]
  00002	83 c0 0c	 add	 eax, 12			; 0000000cH

; 247  : 		}

  00005	c3		 ret	 0
??D?$_Tree_const_iterator@V?$_Tree_val@V?$_Tmap_traits@HUBonusCashInfo@ioBonusCashManager@@U?$less@H@std@@V?$allocator@U?$pair@$$CBHUBonusCashInfo@ioBonusCashManager@@@std@@@4@$0A@@std@@@std@@@std@@QBEABU?$pair@$$CBHUBonusCashInfo@ioBonusCashManager@@@1@XZ ENDP ; std::_Tree_const_iterator<std::_Tree_val<std::_Tmap_traits<int,ioBonusCashManager::BonusCashInfo,std::less<int>,std::allocator<std::pair<int const ,ioBonusCashManager::BonusCashInfo> >,0> > >::operator*
_TEXT	ENDS
PUBLIC	??E?$_Tree_unchecked_const_iterator@V?$_Tree_val@V?$_Tmap_traits@HUBonusCashInfo@ioBonusCashManager@@U?$less@H@std@@V?$allocator@U?$pair@$$CBHUBonusCashInfo@ioBonusCashManager@@@std@@@4@$0A@@std@@@std@@U_Iterator_base0@2@@std@@QAEAAV01@XZ ; std::_Tree_unchecked_const_iterator<std::_Tree_val<std::_Tmap_traits<int,ioBonusCashManager::BonusCashInfo,std::less<int>,std::allocator<std::pair<int const ,ioBonusCashManager::BonusCashInfo> >,0> >,std::_Iterator_base0>::operator++
; Function compile flags: /Ogsp
;	COMDAT ??E?$_Tree_unchecked_const_iterator@V?$_Tree_val@V?$_Tmap_traits@HUBonusCashInfo@ioBonusCashManager@@U?$less@H@std@@V?$allocator@U?$pair@$$CBHUBonusCashInfo@ioBonusCashManager@@@std@@@4@$0A@@std@@@std@@U_Iterator_base0@2@@std@@QAEAAV01@XZ
_TEXT	SEGMENT
??E?$_Tree_unchecked_const_iterator@V?$_Tree_val@V?$_Tmap_traits@HUBonusCashInfo@ioBonusCashManager@@U?$less@H@std@@V?$allocator@U?$pair@$$CBHUBonusCashInfo@ioBonusCashManager@@@std@@@4@$0A@@std@@@std@@U_Iterator_base0@2@@std@@QAEAAV01@XZ PROC ; std::_Tree_unchecked_const_iterator<std::_Tree_val<std::_Tmap_traits<int,ioBonusCashManager::BonusCashInfo,std::less<int>,std::allocator<std::pair<int const ,ioBonusCashManager::BonusCashInfo> >,0> >,std::_Iterator_base0>::operator++, COMDAT
; _this$ = ecx

; 58   : 		{	// preincrement

  00000	8b c1		 mov	 eax, ecx

; 59   : 		if (_Mytree::_Isnil(_Ptr))

  00002	8b 08		 mov	 ecx, DWORD PTR [eax]
  00004	53		 push	 ebx
  00005	32 db		 xor	 bl, bl
  00007	38 59 21	 cmp	 BYTE PTR [ecx+33], bl
  0000a	75 2d		 jne	 SHORT $LN3@operator

; 60   : 			;	// end() shouldn't be incremented, don't move
; 61   : 		else if (!_Mytree::_Isnil(_Mytree::_Right(_Ptr)))

  0000c	8b 51 08	 mov	 edx, DWORD PTR [ecx+8]
  0000f	38 5a 21	 cmp	 BYTE PTR [edx+33], bl
  00012	75 0d		 jne	 SHORT $LN34@operator

; 62   : 			_Ptr = _Mytree::_Min(
; 63   : 				_Mytree::_Right(_Ptr));	// ==> smallest of right subtree

$LL18@operator:
  00014	8b ca		 mov	 ecx, edx
  00016	8b 11		 mov	 edx, DWORD PTR [ecx]
  00018	38 5a 21	 cmp	 BYTE PTR [edx+33], bl
  0001b	74 f7		 je	 SHORT $LL18@operator
  0001d	89 08		 mov	 DWORD PTR [eax], ecx
  0001f	5b		 pop	 ebx

; 71   : 			}
; 72   : 		return (*this);
; 73   : 		}

  00020	c3		 ret	 0
$LN34@operator:

; 64   : 		else
; 65   : 			{	// climb looking for right subtree
; 66   : 			_Nodeptr _Pnode;
; 67   : 			while (!_Mytree::_Isnil(_Pnode = _Mytree::_Parent(_Ptr))
; 68   : 				&& _Ptr == _Mytree::_Right(_Pnode))

  00021	8b 51 04	 mov	 edx, DWORD PTR [ecx+4]
  00024	eb 0c		 jmp	 SHORT $LN38@operator
$LL2@operator:
  00026	8b 08		 mov	 ecx, DWORD PTR [eax]
  00028	3b 4a 08	 cmp	 ecx, DWORD PTR [edx+8]
  0002b	75 0a		 jne	 SHORT $LN1@operator

; 69   : 				_Ptr = _Pnode;	// ==> parent while right subtree

  0002d	89 10		 mov	 DWORD PTR [eax], edx
  0002f	8b 52 04	 mov	 edx, DWORD PTR [edx+4]
$LN38@operator:

; 64   : 		else
; 65   : 			{	// climb looking for right subtree
; 66   : 			_Nodeptr _Pnode;
; 67   : 			while (!_Mytree::_Isnil(_Pnode = _Mytree::_Parent(_Ptr))
; 68   : 				&& _Ptr == _Mytree::_Right(_Pnode))

  00032	38 5a 21	 cmp	 BYTE PTR [edx+33], bl
  00035	74 ef		 je	 SHORT $LL2@operator
$LN1@operator:

; 70   : 			_Ptr = _Pnode;	// ==> parent (head if end())

  00037	89 10		 mov	 DWORD PTR [eax], edx
$LN3@operator:
  00039	5b		 pop	 ebx

; 71   : 			}
; 72   : 		return (*this);
; 73   : 		}

  0003a	c3		 ret	 0
??E?$_Tree_unchecked_const_iterator@V?$_Tree_val@V?$_Tmap_traits@HUBonusCashInfo@ioBonusCashManager@@U?$less@H@std@@V?$allocator@U?$pair@$$CBHUBonusCashInfo@ioBonusCashManager@@@std@@@4@$0A@@std@@@std@@U_Iterator_base0@2@@std@@QAEAAV01@XZ ENDP ; std::_Tree_unchecked_const_iterator<std::_Tree_val<std::_Tmap_traits<int,ioBonusCashManager::BonusCashInfo,std::less<int>,std::allocator<std::pair<int const ,ioBonusCashManager::BonusCashInfo> >,0> >,std::_Iterator_base0>::operator++
_TEXT	ENDS
PUBLIC	??0?$_Tmap_traits@HUBonusCashInfo@ioBonusCashManager@@U?$less@H@std@@V?$allocator@U?$pair@$$CBHUBonusCashInfo@ioBonusCashManager@@@std@@@4@$0A@@std@@QAE@U?$less@H@1@@Z ; std::_Tmap_traits<int,ioBonusCashManager::BonusCashInfo,std::less<int>,std::allocator<std::pair<int const ,ioBonusCashManager::BonusCashInfo> >,0>::_Tmap_traits<int,ioBonusCashManager::BonusCashInfo,std::less<int>,std::allocator<std::pair<int const ,ioBonusCashManager::BonusCashInfo> >,0>
; Function compile flags: /Ogsp
; File c:\program files (x86)\microsoft visual studio 10.0\vc\include\map
;	COMDAT ??0?$_Tmap_traits@HUBonusCashInfo@ioBonusCashManager@@U?$less@H@std@@V?$allocator@U?$pair@$$CBHUBonusCashInfo@ioBonusCashManager@@@std@@@4@$0A@@std@@QAE@U?$less@H@1@@Z
_TEXT	SEGMENT
__Parg$ = 8						; size = 1
??0?$_Tmap_traits@HUBonusCashInfo@ioBonusCashManager@@U?$less@H@std@@V?$allocator@U?$pair@$$CBHUBonusCashInfo@ioBonusCashManager@@@std@@@4@$0A@@std@@QAE@U?$less@H@1@@Z PROC ; std::_Tmap_traits<int,ioBonusCashManager::BonusCashInfo,std::less<int>,std::allocator<std::pair<int const ,ioBonusCashManager::BonusCashInfo> >,0>::_Tmap_traits<int,ioBonusCashManager::BonusCashInfo,std::less<int>,std::allocator<std::pair<int const ,ioBonusCashManager::BonusCashInfo> >,0>, COMDAT
; _this$ = ecx

; 40   : 		{	// construct with specified comparator

  00000	8b c1		 mov	 eax, ecx

; 41   : 		}

  00002	c2 04 00	 ret	 4
??0?$_Tmap_traits@HUBonusCashInfo@ioBonusCashManager@@U?$less@H@std@@V?$allocator@U?$pair@$$CBHUBonusCashInfo@ioBonusCashManager@@@std@@@4@$0A@@std@@QAE@U?$less@H@1@@Z ENDP ; std::_Tmap_traits<int,ioBonusCashManager::BonusCashInfo,std::less<int>,std::allocator<std::pair<int const ,ioBonusCashManager::BonusCashInfo> >,0>::_Tmap_traits<int,ioBonusCashManager::BonusCashInfo,std::less<int>,std::allocator<std::pair<int const ,ioBonusCashManager::BonusCashInfo> >,0>
_TEXT	ENDS
PUBLIC	??$addressof@U?$pair@$$CBHUBonusCashInfo@ioBonusCashManager@@@std@@@std@@YAPAU?$pair@$$CBHUBonusCashInfo@ioBonusCashManager@@@0@AAU10@@Z ; std::addressof<std::pair<int const ,ioBonusCashManager::BonusCashInfo> >
; Function compile flags: /Ogsp
; File c:\program files (x86)\microsoft visual studio 10.0\vc\include\xmemory
;	COMDAT ??$addressof@U?$pair@$$CBHUBonusCashInfo@ioBonusCashManager@@@std@@@std@@YAPAU?$pair@$$CBHUBonusCashInfo@ioBonusCashManager@@@0@AAU10@@Z
_TEXT	SEGMENT
__Val$ = 8						; size = 4
??$addressof@U?$pair@$$CBHUBonusCashInfo@ioBonusCashManager@@@std@@@std@@YAPAU?$pair@$$CBHUBonusCashInfo@ioBonusCashManager@@@0@AAU10@@Z PROC ; std::addressof<std::pair<int const ,ioBonusCashManager::BonusCashInfo> >, COMDAT

; 110  : 	{	// return address of _Val

  00000	55		 push	 ebp
  00001	8b ec		 mov	 ebp, esp

; 111  : 	return ((_Ty *) &(char&)_Val);

  00003	8b 45 08	 mov	 eax, DWORD PTR __Val$[ebp]

; 112  : 	}

  00006	5d		 pop	 ebp
  00007	c3		 ret	 0
??$addressof@U?$pair@$$CBHUBonusCashInfo@ioBonusCashManager@@@std@@@std@@YAPAU?$pair@$$CBHUBonusCashInfo@ioBonusCashManager@@@0@AAU10@@Z ENDP ; std::addressof<std::pair<int const ,ioBonusCashManager::BonusCashInfo> >
_TEXT	ENDS
PUBLIC	??$_Kfn@$$CBHUBonusCashInfo@ioBonusCashManager@@@?$_Tmap_traits@HUBonusCashInfo@ioBonusCashManager@@U?$less@H@std@@V?$allocator@U?$pair@$$CBHUBonusCashInfo@ioBonusCashManager@@@std@@@4@$0A@@std@@SAABHABU?$pair@$$CBHUBonusCashInfo@ioBonusCashManager@@@1@@Z ; std::_Tmap_traits<int,ioBonusCashManager::BonusCashInfo,std::less<int>,std::allocator<std::pair<int const ,ioBonusCashManager::BonusCashInfo> >,0>::_Kfn<int const ,ioBonusCashManager::BonusCashInfo>
; Function compile flags: /Ogsp
; File c:\program files (x86)\microsoft visual studio 10.0\vc\include\map
;	COMDAT ??$_Kfn@$$CBHUBonusCashInfo@ioBonusCashManager@@@?$_Tmap_traits@HUBonusCashInfo@ioBonusCashManager@@U?$less@H@std@@V?$allocator@U?$pair@$$CBHUBonusCashInfo@ioBonusCashManager@@@std@@@4@$0A@@std@@SAABHABU?$pair@$$CBHUBonusCashInfo@ioBonusCashManager@@@1@@Z
_TEXT	SEGMENT
__Val$ = 8						; size = 4
??$_Kfn@$$CBHUBonusCashInfo@ioBonusCashManager@@@?$_Tmap_traits@HUBonusCashInfo@ioBonusCashManager@@U?$less@H@std@@V?$allocator@U?$pair@$$CBHUBonusCashInfo@ioBonusCashManager@@@std@@@4@$0A@@std@@SAABHABU?$pair@$$CBHUBonusCashInfo@ioBonusCashManager@@@1@@Z PROC ; std::_Tmap_traits<int,ioBonusCashManager::BonusCashInfo,std::less<int>,std::allocator<std::pair<int const ,ioBonusCashManager::BonusCashInfo> >,0>::_Kfn<int const ,ioBonusCashManager::BonusCashInfo>, COMDAT

; 66   : 		static const _Kty& _Kfn(const _STD pair<_Ty1, _Ty2>& _Val)

  00000	55		 push	 ebp
  00001	8b ec		 mov	 ebp, esp

; 67   : 		{	// extract key from element value
; 68   : 		return (_Val.first);

  00003	8b 45 08	 mov	 eax, DWORD PTR __Val$[ebp]

; 69   : 		}

  00006	5d		 pop	 ebp
  00007	c3		 ret	 0
??$_Kfn@$$CBHUBonusCashInfo@ioBonusCashManager@@@?$_Tmap_traits@HUBonusCashInfo@ioBonusCashManager@@U?$less@H@std@@V?$allocator@U?$pair@$$CBHUBonusCashInfo@ioBonusCashManager@@@std@@@4@$0A@@std@@SAABHABU?$pair@$$CBHUBonusCashInfo@ioBonusCashManager@@@1@@Z ENDP ; std::_Tmap_traits<int,ioBonusCashManager::BonusCashInfo,std::less<int>,std::allocator<std::pair<int const ,ioBonusCashManager::BonusCashInfo> >,0>::_Kfn<int const ,ioBonusCashManager::BonusCashInfo>
_TEXT	ENDS
PUBLIC	??$?0U?$pair@$$CBHUBonusCashInfo@ioBonusCashManager@@@std@@@?$allocator@U_Node@?$_Tree_nod@V?$_Tmap_traits@HUBonusCashInfo@ioBonusCashManager@@U?$less@H@std@@V?$allocator@U?$pair@$$CBHUBonusCashInfo@ioBonusCashManager@@@std@@@4@$0A@@std@@@std@@@std@@QAE@ABV?$allocator@U?$pair@$$CBHUBonusCashInfo@ioBonusCashManager@@@std@@@1@@Z ; std::allocator<std::_Tree_nod<std::_Tmap_traits<int,ioBonusCashManager::BonusCashInfo,std::less<int>,std::allocator<std::pair<int const ,ioBonusCashManager::BonusCashInfo> >,0> >::_Node>::allocator<std::_Tree_nod<std::_Tmap_traits<int,ioBonusCashManager::BonusCashInfo,std::less<int>,std::allocator<std::pair<int const ,ioBonusCashManager::BonusCashInfo> >,0> >::_Node><std::pair<int const ,ioBonusCashManager::BonusCashInfo> >
; Function compile flags: /Ogsp
; File c:\program files (x86)\microsoft visual studio 10.0\vc\include\xmemory
;	COMDAT ??$?0U?$pair@$$CBHUBonusCashInfo@ioBonusCashManager@@@std@@@?$allocator@U_Node@?$_Tree_nod@V?$_Tmap_traits@HUBonusCashInfo@ioBonusCashManager@@U?$less@H@std@@V?$allocator@U?$pair@$$CBHUBonusCashInfo@ioBonusCashManager@@@std@@@4@$0A@@std@@@std@@@std@@QAE@ABV?$allocator@U?$pair@$$CBHUBonusCashInfo@ioBonusCashManager@@@std@@@1@@Z
_TEXT	SEGMENT
___formal$ = 8						; size = 4
??$?0U?$pair@$$CBHUBonusCashInfo@ioBonusCashManager@@@std@@@?$allocator@U_Node@?$_Tree_nod@V?$_Tmap_traits@HUBonusCashInfo@ioBonusCashManager@@U?$less@H@std@@V?$allocator@U?$pair@$$CBHUBonusCashInfo@ioBonusCashManager@@@std@@@4@$0A@@std@@@std@@@std@@QAE@ABV?$allocator@U?$pair@$$CBHUBonusCashInfo@ioBonusCashManager@@@std@@@1@@Z PROC ; std::allocator<std::_Tree_nod<std::_Tmap_traits<int,ioBonusCashManager::BonusCashInfo,std::less<int>,std::allocator<std::pair<int const ,ioBonusCashManager::BonusCashInfo> >,0> >::_Node>::allocator<std::_Tree_nod<std::_Tmap_traits<int,ioBonusCashManager::BonusCashInfo,std::less<int>,std::allocator<std::pair<int const ,ioBonusCashManager::BonusCashInfo> >,0> >::_Node><std::pair<int const ,ioBonusCashManager::BonusCashInfo> >, COMDAT
; _this$ = ecx

; 170  : 		_ALLOCATOR(const _ALLOCATOR<_Other>&) _THROW0()

  00000	8b c1		 mov	 eax, ecx

; 171  : 		{	// construct from a related allocator (do nothing)
; 172  : 		}

  00002	c2 04 00	 ret	 4
??$?0U?$pair@$$CBHUBonusCashInfo@ioBonusCashManager@@@std@@@?$allocator@U_Node@?$_Tree_nod@V?$_Tmap_traits@HUBonusCashInfo@ioBonusCashManager@@U?$less@H@std@@V?$allocator@U?$pair@$$CBHUBonusCashInfo@ioBonusCashManager@@@std@@@4@$0A@@std@@@std@@@std@@QAE@ABV?$allocator@U?$pair@$$CBHUBonusCashInfo@ioBonusCashManager@@@std@@@1@@Z ENDP ; std::allocator<std::_Tree_nod<std::_Tmap_traits<int,ioBonusCashManager::BonusCashInfo,std::less<int>,std::allocator<std::pair<int const ,ioBonusCashManager::BonusCashInfo> >,0> >::_Node>::allocator<std::_Tree_nod<std::_Tmap_traits<int,ioBonusCashManager::BonusCashInfo,std::less<int>,std::allocator<std::pair<int const ,ioBonusCashManager::BonusCashInfo> >,0> >::_Node><std::pair<int const ,ioBonusCashManager::BonusCashInfo> >
_TEXT	ENDS
PUBLIC	__TI2?AVbad_alloc@std@@
PUBLIC	??$_Allocate@U_Node@?$_Tree_nod@V?$_Tmap_traits@HUBonusCashInfo@ioBonusCashManager@@U?$less@H@std@@V?$allocator@U?$pair@$$CBHUBonusCashInfo@ioBonusCashManager@@@std@@@4@$0A@@std@@@std@@@std@@YAPAU_Node@?$_Tree_nod@V?$_Tmap_traits@HUBonusCashInfo@ioBonusCashManager@@U?$less@H@std@@V?$allocator@U?$pair@$$CBHUBonusCashInfo@ioBonusCashManager@@@std@@@4@$0A@@std@@@0@IPAU120@@Z ; std::_Allocate<std::_Tree_nod<std::_Tmap_traits<int,ioBonusCashManager::BonusCashInfo,std::less<int>,std::allocator<std::pair<int const ,ioBonusCashManager::BonusCashInfo> >,0> >::_Node>
PUBLIC	__CTA2?AVbad_alloc@std@@
PUBLIC	__CT??_R0?AVbad_alloc@std@@@8??0bad_alloc@std@@QAE@ABV01@@Z12
PUBLIC	??0bad_alloc@std@@QAE@ABV01@@Z			; std::bad_alloc::bad_alloc
PUBLIC	__CT??_R0?AVexception@std@@@8??0exception@std@@QAE@ABV01@@Z12
EXTRN	??2@YAPAXI@Z:PROC				; operator new
EXTRN	__CxxThrowException@8:PROC
EXTRN	??0exception@std@@QAE@ABV01@@Z:PROC		; std::exception::exception
;	COMDAT __CT??_R0?AVexception@std@@@8??0exception@std@@QAE@ABV01@@Z12
; File c:\program files (x86)\microsoft visual studio 10.0\vc\include\exception
xdata$x	SEGMENT
__CT??_R0?AVexception@std@@@8??0exception@std@@QAE@ABV01@@Z12 DD 00H
	DD	FLAT:??_R0?AVexception@std@@@8
	DD	00H
	DD	0ffffffffH
	ORG $+4
	DD	0cH
	DD	FLAT:??0exception@std@@QAE@ABV01@@Z
xdata$x	ENDS
;	COMDAT __CT??_R0?AVbad_alloc@std@@@8??0bad_alloc@std@@QAE@ABV01@@Z12
xdata$x	SEGMENT
__CT??_R0?AVbad_alloc@std@@@8??0bad_alloc@std@@QAE@ABV01@@Z12 DD 00H
	DD	FLAT:??_R0?AVbad_alloc@std@@@8
	DD	00H
	DD	0ffffffffH
	ORG $+4
	DD	0cH
	DD	FLAT:??0bad_alloc@std@@QAE@ABV01@@Z
xdata$x	ENDS
;	COMDAT __CTA2?AVbad_alloc@std@@
xdata$x	SEGMENT
__CTA2?AVbad_alloc@std@@ DD 02H
	DD	FLAT:__CT??_R0?AVbad_alloc@std@@@8??0bad_alloc@std@@QAE@ABV01@@Z12
	DD	FLAT:__CT??_R0?AVexception@std@@@8??0exception@std@@QAE@ABV01@@Z12
xdata$x	ENDS
;	COMDAT __TI2?AVbad_alloc@std@@
xdata$x	SEGMENT
__TI2?AVbad_alloc@std@@ DD 00H
	DD	FLAT:??1bad_alloc@std@@UAE@XZ
	DD	00H
	DD	FLAT:__CTA2?AVbad_alloc@std@@
; Function compile flags: /Ogsp
; File c:\program files (x86)\microsoft visual studio 10.0\vc\include\xmemory
xdata$x	ENDS
;	COMDAT ??$_Allocate@U_Node@?$_Tree_nod@V?$_Tmap_traits@HUBonusCashInfo@ioBonusCashManager@@U?$less@H@std@@V?$allocator@U?$pair@$$CBHUBonusCashInfo@ioBonusCashManager@@@std@@@4@$0A@@std@@@std@@@std@@YAPAU_Node@?$_Tree_nod@V?$_Tmap_traits@HUBonusCashInfo@ioBonusCashManager@@U?$less@H@std@@V?$allocator@U?$pair@$$CBHUBonusCashInfo@ioBonusCashManager@@@std@@@4@$0A@@std@@@0@IPAU120@@Z
_TEXT	SEGMENT
$T507541 = -12						; size = 12
$T507546 = 8						; size = 4
__Count$ = 8						; size = 4
___formal$ = 12						; size = 4
??$_Allocate@U_Node@?$_Tree_nod@V?$_Tmap_traits@HUBonusCashInfo@ioBonusCashManager@@U?$less@H@std@@V?$allocator@U?$pair@$$CBHUBonusCashInfo@ioBonusCashManager@@@std@@@4@$0A@@std@@@std@@@std@@YAPAU_Node@?$_Tree_nod@V?$_Tmap_traits@HUBonusCashInfo@ioBonusCashManager@@U?$less@H@std@@V?$allocator@U?$pair@$$CBHUBonusCashInfo@ioBonusCashManager@@@std@@@4@$0A@@std@@@0@IPAU120@@Z PROC ; std::_Allocate<std::_Tree_nod<std::_Tmap_traits<int,ioBonusCashManager::BonusCashInfo,std::less<int>,std::allocator<std::pair<int const ,ioBonusCashManager::BonusCashInfo> >,0> >::_Node>, COMDAT

; 30   : 	{	// allocate storage for _Count elements of type _Ty

  00000	55		 push	 ebp
  00001	8b ec		 mov	 ebp, esp

; 31   : 	void *_Ptr = 0;
; 32   : 
; 33   : 	if (_Count <= 0)

  00003	8b 4d 08	 mov	 ecx, DWORD PTR __Count$[ebp]
  00006	83 ec 0c	 sub	 esp, 12			; 0000000cH
  00009	33 c0		 xor	 eax, eax
  0000b	85 c9		 test	 ecx, ecx

; 34   : 		_Count = 0;
; 35   : 	else if (((_SIZT)(-1) / sizeof (_Ty) < _Count)

  0000d	74 3c		 je	 SHORT $LN5@Allocate

; 36   : 		|| (_Ptr = ::operator new(_Count * sizeof (_Ty))) == 0)

  0000f	81 f9 c7 71 1c
	07		 cmp	 ecx, 119304647		; 071c71c7H
  00015	77 0e		 ja	 SHORT $LN1@Allocate
  00017	6b c9 24	 imul	 ecx, 36			; 00000024H
  0001a	51		 push	 ecx
  0001b	e8 00 00 00 00	 call	 ??2@YAPAXI@Z		; operator new
  00020	59		 pop	 ecx
  00021	85 c0		 test	 eax, eax

; 38   : 
; 39   : 	return ((_Ty _FARQ *)_Ptr);

  00023	75 26		 jne	 SHORT $LN5@Allocate
$LN1@Allocate:

; 37   : 		_THROW_NCEE(bad_alloc, 0);

  00025	83 65 08 00	 and	 DWORD PTR $T507546[ebp], 0
  00029	8d 45 08	 lea	 eax, DWORD PTR $T507546[ebp]
  0002c	50		 push	 eax
  0002d	8d 4d f4	 lea	 ecx, DWORD PTR $T507541[ebp]
  00030	ff 15 00 00 00
	00		 call	 DWORD PTR __imp_??0exception@std@@QAE@ABQBD@Z
  00036	68 00 00 00 00	 push	 OFFSET __TI2?AVbad_alloc@std@@
  0003b	8d 45 f4	 lea	 eax, DWORD PTR $T507541[ebp]
  0003e	50		 push	 eax
  0003f	c7 45 f4 00 00
	00 00		 mov	 DWORD PTR $T507541[ebp], OFFSET ??_7bad_alloc@std@@6B@
  00046	e8 00 00 00 00	 call	 __CxxThrowException@8
$LN10@Allocate:
$LN5@Allocate:

; 40   : 	}

  0004b	c9		 leave
  0004c	c3		 ret	 0
$LN9@Allocate:
??$_Allocate@U_Node@?$_Tree_nod@V?$_Tmap_traits@HUBonusCashInfo@ioBonusCashManager@@U?$less@H@std@@V?$allocator@U?$pair@$$CBHUBonusCashInfo@ioBonusCashManager@@@std@@@4@$0A@@std@@@std@@@std@@YAPAU_Node@?$_Tree_nod@V?$_Tmap_traits@HUBonusCashInfo@ioBonusCashManager@@U?$less@H@std@@V?$allocator@U?$pair@$$CBHUBonusCashInfo@ioBonusCashManager@@@std@@@4@$0A@@std@@@0@IPAU120@@Z ENDP ; std::_Allocate<std::_Tree_nod<std::_Tmap_traits<int,ioBonusCashManager::BonusCashInfo,std::less<int>,std::allocator<std::pair<int const ,ioBonusCashManager::BonusCashInfo> >,0> >::_Node>
_TEXT	ENDS
PUBLIC	?_Adopt@_Iterator_base0@std@@QAEXPBX@Z		; std::_Iterator_base0::_Adopt
; Function compile flags: /Ogsp
; File c:\program files (x86)\microsoft visual studio 10.0\vc\include\xutility
;	COMDAT ?_Adopt@_Iterator_base0@std@@QAEXPBX@Z
_TEXT	SEGMENT
___formal$ = 8						; size = 4
?_Adopt@_Iterator_base0@std@@QAEXPBX@Z PROC		; std::_Iterator_base0::_Adopt, COMDAT
; _this$ = ecx

; 49   : 		}

  00000	c2 04 00	 ret	 4
?_Adopt@_Iterator_base0@std@@QAEXPBX@Z ENDP		; std::_Iterator_base0::_Adopt
_TEXT	ENDS
PUBLIC	?max_size@?$allocator@U?$pair@$$CBHUBonusCashInfo@ioBonusCashManager@@@std@@@std@@QBEIXZ ; std::allocator<std::pair<int const ,ioBonusCashManager::BonusCashInfo> >::max_size
; Function compile flags: /Ogsp
; File c:\program files (x86)\microsoft visual studio 10.0\vc\include\xmemory
;	COMDAT ?max_size@?$allocator@U?$pair@$$CBHUBonusCashInfo@ioBonusCashManager@@@std@@@std@@QBEIXZ
_TEXT	SEGMENT
?max_size@?$allocator@U?$pair@$$CBHUBonusCashInfo@ioBonusCashManager@@@std@@@std@@QBEIXZ PROC ; std::allocator<std::pair<int const ,ioBonusCashManager::BonusCashInfo> >::max_size, COMDAT
; _this$ = ecx

; 218  : 		_SIZT _Count = (_SIZT)(-1) / sizeof (_Ty);
; 219  : 		return (0 < _Count ? _Count : 1);

  00000	b8 cc cc cc 0c	 mov	 eax, 214748364		; 0cccccccH

; 220  : 		}

  00005	c3		 ret	 0
?max_size@?$allocator@U?$pair@$$CBHUBonusCashInfo@ioBonusCashManager@@@std@@@std@@QBEIXZ ENDP ; std::allocator<std::pair<int const ,ioBonusCashManager::BonusCashInfo> >::max_size
_TEXT	ENDS
PUBLIC	??F?$_Tree_unchecked_const_iterator@V?$_Tree_val@V?$_Tmap_traits@HUBonusCashInfo@ioBonusCashManager@@U?$less@H@std@@V?$allocator@U?$pair@$$CBHUBonusCashInfo@ioBonusCashManager@@@std@@@4@$0A@@std@@@std@@U_Iterator_base0@2@@std@@QAEAAV01@XZ ; std::_Tree_unchecked_const_iterator<std::_Tree_val<std::_Tmap_traits<int,ioBonusCashManager::BonusCashInfo,std::less<int>,std::allocator<std::pair<int const ,ioBonusCashManager::BonusCashInfo> >,0> >,std::_Iterator_base0>::operator--
; Function compile flags: /Ogsp
; File c:\program files (x86)\microsoft visual studio 10.0\vc\include\xtree
;	COMDAT ??F?$_Tree_unchecked_const_iterator@V?$_Tree_val@V?$_Tmap_traits@HUBonusCashInfo@ioBonusCashManager@@U?$less@H@std@@V?$allocator@U?$pair@$$CBHUBonusCashInfo@ioBonusCashManager@@@std@@@4@$0A@@std@@@std@@U_Iterator_base0@2@@std@@QAEAAV01@XZ
_TEXT	SEGMENT
??F?$_Tree_unchecked_const_iterator@V?$_Tree_val@V?$_Tmap_traits@HUBonusCashInfo@ioBonusCashManager@@U?$less@H@std@@V?$allocator@U?$pair@$$CBHUBonusCashInfo@ioBonusCashManager@@@std@@@4@$0A@@std@@@std@@U_Iterator_base0@2@@std@@QAEAAV01@XZ PROC ; std::_Tree_unchecked_const_iterator<std::_Tree_val<std::_Tmap_traits<int,ioBonusCashManager::BonusCashInfo,std::less<int>,std::allocator<std::pair<int const ,ioBonusCashManager::BonusCashInfo> >,0> >,std::_Iterator_base0>::operator--, COMDAT
; _this$ = ecx

; 83   : 		{	// predecrement

  00000	8b c1		 mov	 eax, ecx

; 84   : 		if (_Mytree::_Isnil(_Ptr))

  00002	8b 08		 mov	 ecx, DWORD PTR [eax]
  00004	53		 push	 ebx
  00005	32 db		 xor	 bl, bl
  00007	38 59 21	 cmp	 BYTE PTR [ecx+33], bl
  0000a	74 07		 je	 SHORT $LN8@operator@2

; 85   : 			_Ptr = _Mytree::_Right(_Ptr);	// end() ==> rightmost

  0000c	8b 49 08	 mov	 ecx, DWORD PTR [ecx+8]
  0000f	89 08		 mov	 DWORD PTR [eax], ecx
  00011	5b		 pop	 ebx

; 99   : 			}
; 100  : 		return (*this);
; 101  : 		}

  00012	c3		 ret	 0
$LN8@operator@2:

; 86   : 		else if (!_Mytree::_Isnil(_Mytree::_Left(_Ptr)))

  00013	8b 11		 mov	 edx, DWORD PTR [ecx]
  00015	38 5a 21	 cmp	 BYTE PTR [edx+33], bl
  00018	74 07		 je	 SHORT $LN44@operator@2

; 90   : 			{	// climb looking for left subtree
; 91   : 			_Nodeptr _Pnode;
; 92   : 			while (!_Mytree::_Isnil(_Pnode = _Mytree::_Parent(_Ptr))
; 93   : 				&& _Ptr == _Mytree::_Left(_Pnode))

  0001a	8b 51 04	 mov	 edx, DWORD PTR [ecx+4]
  0001d	eb 17		 jmp	 SHORT $LN46@operator@2

; 87   : 			_Ptr = _Mytree::_Max(
; 88   : 				_Mytree::_Left(_Ptr));	// ==> largest of left subtree

$LL22@operator@2:
  0001f	8b d1		 mov	 edx, ecx
$LN44@operator@2:
  00021	8b 4a 08	 mov	 ecx, DWORD PTR [edx+8]
  00024	38 59 21	 cmp	 BYTE PTR [ecx+33], bl
  00027	74 f6		 je	 SHORT $LL22@operator@2

; 89   : 		else

  00029	eb 17		 jmp	 SHORT $LN45@operator@2
$LL4@operator@2:

; 90   : 			{	// climb looking for left subtree
; 91   : 			_Nodeptr _Pnode;
; 92   : 			while (!_Mytree::_Isnil(_Pnode = _Mytree::_Parent(_Ptr))
; 93   : 				&& _Ptr == _Mytree::_Left(_Pnode))

  0002b	8b 08		 mov	 ecx, DWORD PTR [eax]
  0002d	3b 0a		 cmp	 ecx, DWORD PTR [edx]
  0002f	75 0a		 jne	 SHORT $LN3@operator@2

; 94   : 				_Ptr = _Pnode;	// ==> parent while left subtree

  00031	89 10		 mov	 DWORD PTR [eax], edx
  00033	8b 52 04	 mov	 edx, DWORD PTR [edx+4]
$LN46@operator@2:

; 90   : 			{	// climb looking for left subtree
; 91   : 			_Nodeptr _Pnode;
; 92   : 			while (!_Mytree::_Isnil(_Pnode = _Mytree::_Parent(_Ptr))
; 93   : 				&& _Ptr == _Mytree::_Left(_Pnode))

  00036	38 5a 21	 cmp	 BYTE PTR [edx+33], bl
  00039	74 f0		 je	 SHORT $LL4@operator@2
$LN3@operator@2:

; 95   : 			if (_Mytree::_Isnil(_Ptr))

  0003b	8b 08		 mov	 ecx, DWORD PTR [eax]
  0003d	38 59 21	 cmp	 BYTE PTR [ecx+33], bl
  00040	75 02		 jne	 SHORT $LN1@operator@2
$LN45@operator@2:

; 96   : 				;	// begin() shouldn't be decremented, don't move
; 97   : 			else
; 98   : 				_Ptr = _Pnode;	// ==> parent if not head

  00042	89 10		 mov	 DWORD PTR [eax], edx
$LN1@operator@2:
  00044	5b		 pop	 ebx

; 99   : 			}
; 100  : 		return (*this);
; 101  : 		}

  00045	c3		 ret	 0
??F?$_Tree_unchecked_const_iterator@V?$_Tree_val@V?$_Tmap_traits@HUBonusCashInfo@ioBonusCashManager@@U?$less@H@std@@V?$allocator@U?$pair@$$CBHUBonusCashInfo@ioBonusCashManager@@@std@@@4@$0A@@std@@@std@@U_Iterator_base0@2@@std@@QAEAAV01@XZ ENDP ; std::_Tree_unchecked_const_iterator<std::_Tree_val<std::_Tmap_traits<int,ioBonusCashManager::BonusCashInfo,std::less<int>,std::allocator<std::pair<int const ,ioBonusCashManager::BonusCashInfo> >,0> >,std::_Iterator_base0>::operator--
_TEXT	ENDS
PUBLIC	??$forward@AAUBonusCashInfo@ioBonusCashManager@@@std@@YAAAUBonusCashInfo@ioBonusCashManager@@AAU12@@Z ; std::forward<ioBonusCashManager::BonusCashInfo &>
; Function compile flags: /Ogsp
; File c:\program files (x86)\microsoft visual studio 10.0\vc\include\utility
;	COMDAT ??$forward@AAUBonusCashInfo@ioBonusCashManager@@@std@@YAAAUBonusCashInfo@ioBonusCashManager@@AAU12@@Z
_TEXT	SEGMENT
__Arg$ = 8						; size = 4
??$forward@AAUBonusCashInfo@ioBonusCashManager@@@std@@YAAAUBonusCashInfo@ioBonusCashManager@@AAU12@@Z PROC ; std::forward<ioBonusCashManager::BonusCashInfo &>, COMDAT

; 78   : 	{	// forward _Arg, given explicitly specified type parameter

  00000	55		 push	 ebp
  00001	8b ec		 mov	 ebp, esp

; 79   : 	return ((_Ty&&)_Arg);

  00003	8b 45 08	 mov	 eax, DWORD PTR __Arg$[ebp]

; 80   : 	}

  00006	5d		 pop	 ebp
  00007	c3		 ret	 0
??$forward@AAUBonusCashInfo@ioBonusCashManager@@@std@@YAAAUBonusCashInfo@ioBonusCashManager@@AAU12@@Z ENDP ; std::forward<ioBonusCashManager::BonusCashInfo &>
_TEXT	ENDS
PUBLIC	??$forward@U?$pair@$$CBHUBonusCashInfo@ioBonusCashManager@@@std@@@std@@YA$$QAU?$pair@$$CBHUBonusCashInfo@ioBonusCashManager@@@0@AAU10@@Z ; std::forward<std::pair<int const ,ioBonusCashManager::BonusCashInfo> >
; Function compile flags: /Ogsp
;	COMDAT ??$forward@U?$pair@$$CBHUBonusCashInfo@ioBonusCashManager@@@std@@@std@@YA$$QAU?$pair@$$CBHUBonusCashInfo@ioBonusCashManager@@@0@AAU10@@Z
_TEXT	SEGMENT
__Arg$ = 8						; size = 4
??$forward@U?$pair@$$CBHUBonusCashInfo@ioBonusCashManager@@@std@@@std@@YA$$QAU?$pair@$$CBHUBonusCashInfo@ioBonusCashManager@@@0@AAU10@@Z PROC ; std::forward<std::pair<int const ,ioBonusCashManager::BonusCashInfo> >, COMDAT

; 78   : 	{	// forward _Arg, given explicitly specified type parameter

  00000	55		 push	 ebp
  00001	8b ec		 mov	 ebp, esp

; 79   : 	return ((_Ty&&)_Arg);

  00003	8b 45 08	 mov	 eax, DWORD PTR __Arg$[ebp]

; 80   : 	}

  00006	5d		 pop	 ebp
  00007	c3		 ret	 0
??$forward@U?$pair@$$CBHUBonusCashInfo@ioBonusCashManager@@@std@@@std@@YA$$QAU?$pair@$$CBHUBonusCashInfo@ioBonusCashManager@@@0@AAU10@@Z ENDP ; std::forward<std::pair<int const ,ioBonusCashManager::BonusCashInfo> >
_TEXT	ENDS
PUBLIC	??$forward@ABH@std@@YAABHABH@Z			; std::forward<int const &>
; Function compile flags: /Ogsp
;	COMDAT ??$forward@ABH@std@@YAABHABH@Z
_TEXT	SEGMENT
__Arg$ = 8						; size = 4
??$forward@ABH@std@@YAABHABH@Z PROC			; std::forward<int const &>, COMDAT

; 78   : 	{	// forward _Arg, given explicitly specified type parameter

  00000	55		 push	 ebp
  00001	8b ec		 mov	 ebp, esp

; 79   : 	return ((_Ty&&)_Arg);

  00003	8b 45 08	 mov	 eax, DWORD PTR __Arg$[ebp]

; 80   : 	}

  00006	5d		 pop	 ebp
  00007	c3		 ret	 0
??$forward@ABH@std@@YAABHABH@Z ENDP			; std::forward<int const &>
_TEXT	ENDS
PUBLIC	??$?0ABHAAUBonusCashInfo@ioBonusCashManager@@@?$_Pair_base@$$CBHUBonusCashInfo@ioBonusCashManager@@@std@@QAE@ABHAAUBonusCashInfo@ioBonusCashManager@@@Z ; std::_Pair_base<int const ,ioBonusCashManager::BonusCashInfo>::_Pair_base<int const ,ioBonusCashManager::BonusCashInfo><int const &,ioBonusCashManager::BonusCashInfo &>
; Function compile flags: /Ogsp
;	COMDAT ??$?0ABHAAUBonusCashInfo@ioBonusCashManager@@@?$_Pair_base@$$CBHUBonusCashInfo@ioBonusCashManager@@@std@@QAE@ABHAAUBonusCashInfo@ioBonusCashManager@@@Z
_TEXT	SEGMENT
__Val1$ = 8						; size = 4
__Val2$ = 12						; size = 4
??$?0ABHAAUBonusCashInfo@ioBonusCashManager@@@?$_Pair_base@$$CBHUBonusCashInfo@ioBonusCashManager@@@std@@QAE@ABHAAUBonusCashInfo@ioBonusCashManager@@@Z PROC ; std::_Pair_base<int const ,ioBonusCashManager::BonusCashInfo>::_Pair_base<int const ,ioBonusCashManager::BonusCashInfo><int const &,ioBonusCashManager::BonusCashInfo &>, COMDAT
; _this$ = ecx

; 163  : 		{	// construct from moved values

  00000	55		 push	 ebp
  00001	8b ec		 mov	 ebp, esp
  00003	56		 push	 esi
  00004	8b 75 0c	 mov	 esi, DWORD PTR __Val2$[ebp]
  00007	57		 push	 edi
  00008	8b c1		 mov	 eax, ecx
  0000a	8b 4d 08	 mov	 ecx, DWORD PTR __Val1$[ebp]
  0000d	8b 09		 mov	 ecx, DWORD PTR [ecx]
  0000f	89 08		 mov	 DWORD PTR [eax], ecx
  00011	8d 78 04	 lea	 edi, DWORD PTR [eax+4]
  00014	a5		 movsd
  00015	a5		 movsd
  00016	a5		 movsd
  00017	a5		 movsd
  00018	5f		 pop	 edi
  00019	5e		 pop	 esi

; 164  : 		}

  0001a	5d		 pop	 ebp
  0001b	c2 08 00	 ret	 8
??$?0ABHAAUBonusCashInfo@ioBonusCashManager@@@?$_Pair_base@$$CBHUBonusCashInfo@ioBonusCashManager@@@std@@QAE@ABHAAUBonusCashInfo@ioBonusCashManager@@@Z ENDP ; std::_Pair_base<int const ,ioBonusCashManager::BonusCashInfo>::_Pair_base<int const ,ioBonusCashManager::BonusCashInfo><int const &,ioBonusCashManager::BonusCashInfo &>
_TEXT	ENDS
PUBLIC	??$_Destroy@U?$pair@$$CBHUBonusCashInfo@ioBonusCashManager@@@std@@@std@@YAXPAU?$pair@$$CBHUBonusCashInfo@ioBonusCashManager@@@0@@Z ; std::_Destroy<std::pair<int const ,ioBonusCashManager::BonusCashInfo> >
; Function compile flags: /Ogsp
; File c:\program files (x86)\microsoft visual studio 10.0\vc\include\xmemory
;	COMDAT ??$_Destroy@U?$pair@$$CBHUBonusCashInfo@ioBonusCashManager@@@std@@@std@@YAXPAU?$pair@$$CBHUBonusCashInfo@ioBonusCashManager@@@0@@Z
_TEXT	SEGMENT
__Ptr$ = 8						; size = 4
??$_Destroy@U?$pair@$$CBHUBonusCashInfo@ioBonusCashManager@@@std@@@std@@YAXPAU?$pair@$$CBHUBonusCashInfo@ioBonusCashManager@@@0@@Z PROC ; std::_Destroy<std::pair<int const ,ioBonusCashManager::BonusCashInfo> >, COMDAT

; 63   : 	_Ptr->~_Ty();
; 64   : 	}

  00000	c3		 ret	 0
??$_Destroy@U?$pair@$$CBHUBonusCashInfo@ioBonusCashManager@@@std@@@std@@YAXPAU?$pair@$$CBHUBonusCashInfo@ioBonusCashManager@@@0@@Z ENDP ; std::_Destroy<std::pair<int const ,ioBonusCashManager::BonusCashInfo> >
_TEXT	ENDS
PUBLIC	??$move@AAV?$_Tree_iterator@V?$_Tree_val@V?$_Tmap_traits@HUBonusCashInfo@ioBonusCashManager@@U?$less@H@std@@V?$allocator@U?$pair@$$CBHUBonusCashInfo@ioBonusCashManager@@@std@@@4@$0A@@std@@@std@@@std@@@std@@YA$$QAV?$_Tree_iterator@V?$_Tree_val@V?$_Tmap_traits@HUBonusCashInfo@ioBonusCashManager@@U?$less@H@std@@V?$allocator@U?$pair@$$CBHUBonusCashInfo@ioBonusCashManager@@@std@@@4@$0A@@std@@@std@@@0@AAV10@@Z ; std::move<std::_Tree_iterator<std::_Tree_val<std::_Tmap_traits<int,ioBonusCashManager::BonusCashInfo,std::less<int>,std::allocator<std::pair<int const ,ioBonusCashManager::BonusCashInfo> >,0> > > &>
; Function compile flags: /Ogsp
; File c:\program files (x86)\microsoft visual studio 10.0\vc\include\utility
;	COMDAT ??$move@AAV?$_Tree_iterator@V?$_Tree_val@V?$_Tmap_traits@HUBonusCashInfo@ioBonusCashManager@@U?$less@H@std@@V?$allocator@U?$pair@$$CBHUBonusCashInfo@ioBonusCashManager@@@std@@@4@$0A@@std@@@std@@@std@@@std@@YA$$QAV?$_Tree_iterator@V?$_Tree_val@V?$_Tmap_traits@HUBonusCashInfo@ioBonusCashManager@@U?$less@H@std@@V?$allocator@U?$pair@$$CBHUBonusCashInfo@ioBonusCashManager@@@std@@@4@$0A@@std@@@std@@@0@AAV10@@Z
_TEXT	SEGMENT
__Arg$ = 8						; size = 4
??$move@AAV?$_Tree_iterator@V?$_Tree_val@V?$_Tmap_traits@HUBonusCashInfo@ioBonusCashManager@@U?$less@H@std@@V?$allocator@U?$pair@$$CBHUBonusCashInfo@ioBonusCashManager@@@std@@@4@$0A@@std@@@std@@@std@@@std@@YA$$QAV?$_Tree_iterator@V?$_Tree_val@V?$_Tmap_traits@HUBonusCashInfo@ioBonusCashManager@@U?$less@H@std@@V?$allocator@U?$pair@$$CBHUBonusCashInfo@ioBonusCashManager@@@std@@@4@$0A@@std@@@std@@@0@AAV10@@Z PROC ; std::move<std::_Tree_iterator<std::_Tree_val<std::_Tmap_traits<int,ioBonusCashManager::BonusCashInfo,std::less<int>,std::allocator<std::pair<int const ,ioBonusCashManager::BonusCashInfo> >,0> > > &>, COMDAT

; 86   : 	{	// forward _Arg as movable

  00000	55		 push	 ebp
  00001	8b ec		 mov	 ebp, esp

; 87   : 	return ((typename tr1::_Remove_reference<_Ty>::_Type&&)_Arg);

  00003	8b 45 08	 mov	 eax, DWORD PTR __Arg$[ebp]

; 88   : 	}

  00006	5d		 pop	 ebp
  00007	c3		 ret	 0
??$move@AAV?$_Tree_iterator@V?$_Tree_val@V?$_Tmap_traits@HUBonusCashInfo@ioBonusCashManager@@U?$less@H@std@@V?$allocator@U?$pair@$$CBHUBonusCashInfo@ioBonusCashManager@@@std@@@4@$0A@@std@@@std@@@std@@@std@@YA$$QAV?$_Tree_iterator@V?$_Tree_val@V?$_Tmap_traits@HUBonusCashInfo@ioBonusCashManager@@U?$less@H@std@@V?$allocator@U?$pair@$$CBHUBonusCashInfo@ioBonusCashManager@@@std@@@4@$0A@@std@@@std@@@0@AAV10@@Z ENDP ; std::move<std::_Tree_iterator<std::_Tree_val<std::_Tmap_traits<int,ioBonusCashManager::BonusCashInfo,std::less<int>,std::allocator<std::pair<int const ,ioBonusCashManager::BonusCashInfo> >,0> > > &>
_TEXT	ENDS
PUBLIC	??$forward@AAV?$_Tree_iterator@V?$_Tree_val@V?$_Tmap_traits@HUBonusCashInfo@ioBonusCashManager@@U?$less@H@std@@V?$allocator@U?$pair@$$CBHUBonusCashInfo@ioBonusCashManager@@@std@@@4@$0A@@std@@@std@@@std@@@std@@YAAAV?$_Tree_iterator@V?$_Tree_val@V?$_Tmap_traits@HUBonusCashInfo@ioBonusCashManager@@U?$less@H@std@@V?$allocator@U?$pair@$$CBHUBonusCashInfo@ioBonusCashManager@@@std@@@4@$0A@@std@@@std@@@0@AAV10@@Z ; std::forward<std::_Tree_iterator<std::_Tree_val<std::_Tmap_traits<int,ioBonusCashManager::BonusCashInfo,std::less<int>,std::allocator<std::pair<int const ,ioBonusCashManager::BonusCashInfo> >,0> > > &>
; Function compile flags: /Ogsp
;	COMDAT ??$forward@AAV?$_Tree_iterator@V?$_Tree_val@V?$_Tmap_traits@HUBonusCashInfo@ioBonusCashManager@@U?$less@H@std@@V?$allocator@U?$pair@$$CBHUBonusCashInfo@ioBonusCashManager@@@std@@@4@$0A@@std@@@std@@@std@@@std@@YAAAV?$_Tree_iterator@V?$_Tree_val@V?$_Tmap_traits@HUBonusCashInfo@ioBonusCashManager@@U?$less@H@std@@V?$allocator@U?$pair@$$CBHUBonusCashInfo@ioBonusCashManager@@@std@@@4@$0A@@std@@@std@@@0@AAV10@@Z
_TEXT	SEGMENT
__Arg$ = 8						; size = 4
??$forward@AAV?$_Tree_iterator@V?$_Tree_val@V?$_Tmap_traits@HUBonusCashInfo@ioBonusCashManager@@U?$less@H@std@@V?$allocator@U?$pair@$$CBHUBonusCashInfo@ioBonusCashManager@@@std@@@4@$0A@@std@@@std@@@std@@@std@@YAAAV?$_Tree_iterator@V?$_Tree_val@V?$_Tmap_traits@HUBonusCashInfo@ioBonusCashManager@@U?$less@H@std@@V?$allocator@U?$pair@$$CBHUBonusCashInfo@ioBonusCashManager@@@std@@@4@$0A@@std@@@std@@@0@AAV10@@Z PROC ; std::forward<std::_Tree_iterator<std::_Tree_val<std::_Tmap_traits<int,ioBonusCashManager::BonusCashInfo,std::less<int>,std::allocator<std::pair<int const ,ioBonusCashManager::BonusCashInfo> >,0> > > &>, COMDAT

; 78   : 	{	// forward _Arg, given explicitly specified type parameter

  00000	55		 push	 ebp
  00001	8b ec		 mov	 ebp, esp

; 79   : 	return ((_Ty&&)_Arg);

  00003	8b 45 08	 mov	 eax, DWORD PTR __Arg$[ebp]

; 80   : 	}

  00006	5d		 pop	 ebp
  00007	c3		 ret	 0
??$forward@AAV?$_Tree_iterator@V?$_Tree_val@V?$_Tmap_traits@HUBonusCashInfo@ioBonusCashManager@@U?$less@H@std@@V?$allocator@U?$pair@$$CBHUBonusCashInfo@ioBonusCashManager@@@std@@@4@$0A@@std@@@std@@@std@@@std@@YAAAV?$_Tree_iterator@V?$_Tree_val@V?$_Tmap_traits@HUBonusCashInfo@ioBonusCashManager@@U?$less@H@std@@V?$allocator@U?$pair@$$CBHUBonusCashInfo@ioBonusCashManager@@@std@@@4@$0A@@std@@@std@@@0@AAV10@@Z ENDP ; std::forward<std::_Tree_iterator<std::_Tree_val<std::_Tmap_traits<int,ioBonusCashManager::BonusCashInfo,std::less<int>,std::allocator<std::pair<int const ,ioBonusCashManager::BonusCashInfo> >,0> > > &>
_TEXT	ENDS
PUBLIC	??$forward@$$CBH@std@@YA$$QBHABH@Z		; std::forward<int const >
; Function compile flags: /Ogsp
;	COMDAT ??$forward@$$CBH@std@@YA$$QBHABH@Z
_TEXT	SEGMENT
__Arg$ = 8						; size = 4
??$forward@$$CBH@std@@YA$$QBHABH@Z PROC			; std::forward<int const >, COMDAT

; 78   : 	{	// forward _Arg, given explicitly specified type parameter

  00000	55		 push	 ebp
  00001	8b ec		 mov	 ebp, esp

; 79   : 	return ((_Ty&&)_Arg);

  00003	8b 45 08	 mov	 eax, DWORD PTR __Arg$[ebp]

; 80   : 	}

  00006	5d		 pop	 ebp
  00007	c3		 ret	 0
??$forward@$$CBH@std@@YA$$QBHABH@Z ENDP			; std::forward<int const >
_TEXT	ENDS
PUBLIC	??$forward@UBonusCashInfo@ioBonusCashManager@@@std@@YA$$QAUBonusCashInfo@ioBonusCashManager@@AAU12@@Z ; std::forward<ioBonusCashManager::BonusCashInfo>
; Function compile flags: /Ogsp
;	COMDAT ??$forward@UBonusCashInfo@ioBonusCashManager@@@std@@YA$$QAUBonusCashInfo@ioBonusCashManager@@AAU12@@Z
_TEXT	SEGMENT
__Arg$ = 8						; size = 4
??$forward@UBonusCashInfo@ioBonusCashManager@@@std@@YA$$QAUBonusCashInfo@ioBonusCashManager@@AAU12@@Z PROC ; std::forward<ioBonusCashManager::BonusCashInfo>, COMDAT

; 78   : 	{	// forward _Arg, given explicitly specified type parameter

  00000	55		 push	 ebp
  00001	8b ec		 mov	 ebp, esp

; 79   : 	return ((_Ty&&)_Arg);

  00003	8b 45 08	 mov	 eax, DWORD PTR __Arg$[ebp]

; 80   : 	}

  00006	5d		 pop	 ebp
  00007	c3		 ret	 0
??$forward@UBonusCashInfo@ioBonusCashManager@@@std@@YA$$QAUBonusCashInfo@ioBonusCashManager@@AAU12@@Z ENDP ; std::forward<ioBonusCashManager::BonusCashInfo>
_TEXT	ENDS
PUBLIC	??$move@ABH@std@@YA$$QBHABH@Z			; std::move<int const &>
; Function compile flags: /Ogsp
;	COMDAT ??$move@ABH@std@@YA$$QBHABH@Z
_TEXT	SEGMENT
__Arg$ = 8						; size = 4
??$move@ABH@std@@YA$$QBHABH@Z PROC			; std::move<int const &>, COMDAT

; 86   : 	{	// forward _Arg as movable

  00000	55		 push	 ebp
  00001	8b ec		 mov	 ebp, esp

; 87   : 	return ((typename tr1::_Remove_reference<_Ty>::_Type&&)_Arg);

  00003	8b 45 08	 mov	 eax, DWORD PTR __Arg$[ebp]

; 88   : 	}

  00006	5d		 pop	 ebp
  00007	c3		 ret	 0
??$move@ABH@std@@YA$$QBHABH@Z ENDP			; std::move<int const &>
_TEXT	ENDS
PUBLIC	??$move@AAUBonusCashInfo@ioBonusCashManager@@@std@@YA$$QAUBonusCashInfo@ioBonusCashManager@@AAU12@@Z ; std::move<ioBonusCashManager::BonusCashInfo &>
; Function compile flags: /Ogsp
;	COMDAT ??$move@AAUBonusCashInfo@ioBonusCashManager@@@std@@YA$$QAUBonusCashInfo@ioBonusCashManager@@AAU12@@Z
_TEXT	SEGMENT
__Arg$ = 8						; size = 4
??$move@AAUBonusCashInfo@ioBonusCashManager@@@std@@YA$$QAUBonusCashInfo@ioBonusCashManager@@AAU12@@Z PROC ; std::move<ioBonusCashManager::BonusCashInfo &>, COMDAT

; 86   : 	{	// forward _Arg as movable

  00000	55		 push	 ebp
  00001	8b ec		 mov	 ebp, esp

; 87   : 	return ((typename tr1::_Remove_reference<_Ty>::_Type&&)_Arg);

  00003	8b 45 08	 mov	 eax, DWORD PTR __Arg$[ebp]

; 88   : 	}

  00006	5d		 pop	 ebp
  00007	c3		 ret	 0
??$move@AAUBonusCashInfo@ioBonusCashManager@@@std@@YA$$QAUBonusCashInfo@ioBonusCashManager@@AAU12@@Z ENDP ; std::move<ioBonusCashManager::BonusCashInfo &>
_TEXT	ENDS
PUBLIC	??0CTimeSpan@ATL@@QAE@_J@Z			; ATL::CTimeSpan::CTimeSpan
; Function compile flags: /Ogsp
; File c:\program files (x86)\microsoft visual studio 10.0\vc\atlmfc\include\atltime.inl
;	COMDAT ??0CTimeSpan@ATL@@QAE@_J@Z
_TEXT	SEGMENT
_time$ = 8						; size = 8
??0CTimeSpan@ATL@@QAE@_J@Z PROC				; ATL::CTimeSpan::CTimeSpan, COMDAT
; _this$ = ecx

; 33   : {

  00000	55		 push	 ebp
  00001	8b ec		 mov	 ebp, esp
  00003	8b c1		 mov	 eax, ecx
  00005	8b 4d 08	 mov	 ecx, DWORD PTR _time$[ebp]
  00008	89 08		 mov	 DWORD PTR [eax], ecx
  0000a	8b 4d 0c	 mov	 ecx, DWORD PTR _time$[ebp+4]
  0000d	89 48 04	 mov	 DWORD PTR [eax+4], ecx

; 34   : }

  00010	5d		 pop	 ebp
  00011	c2 08 00	 ret	 8
??0CTimeSpan@ATL@@QAE@_J@Z ENDP				; ATL::CTimeSpan::CTimeSpan
_TEXT	ENDS
PUBLIC	?GetTotalHours@CTimeSpan@ATL@@QBE_JXZ		; ATL::CTimeSpan::GetTotalHours
EXTRN	__alldiv:PROC
; Function compile flags: /Ogsp
;	COMDAT ?GetTotalHours@CTimeSpan@ATL@@QBE_JXZ
_TEXT	SEGMENT
?GetTotalHours@CTimeSpan@ATL@@QBE_JXZ PROC		; ATL::CTimeSpan::GetTotalHours, COMDAT
; _this$ = ecx

; 52   : 	return( m_timeSpan/3600 );

  00000	6a 00		 push	 0
  00002	68 10 0e 00 00	 push	 3600			; 00000e10H
  00007	ff 71 04	 push	 DWORD PTR [ecx+4]
  0000a	ff 31		 push	 DWORD PTR [ecx]
  0000c	e8 00 00 00 00	 call	 __alldiv

; 53   : }

  00011	c3		 ret	 0
?GetTotalHours@CTimeSpan@ATL@@QBE_JXZ ENDP		; ATL::CTimeSpan::GetTotalHours
_TEXT	ENDS
PUBLIC	??0CTime@ATL@@QAE@XZ				; ATL::CTime::CTime
; Function compile flags: /Ogsp
;	COMDAT ??0CTime@ATL@@QAE@XZ
_TEXT	SEGMENT
??0CTime@ATL@@QAE@XZ PROC				; ATL::CTime::CTime, COMDAT
; _this$ = ecx

; 166  : {

  00000	8b c1		 mov	 eax, ecx
  00002	83 20 00	 and	 DWORD PTR [eax], 0
  00005	83 60 04 00	 and	 DWORD PTR [eax+4], 0

; 167  : }

  00009	c3		 ret	 0
??0CTime@ATL@@QAE@XZ ENDP				; ATL::CTime::CTime
_TEXT	ENDS
PUBLIC	??0CTime@ATL@@QAE@_J@Z				; ATL::CTime::CTime
; Function compile flags: /Ogsp
;	COMDAT ??0CTime@ATL@@QAE@_J@Z
_TEXT	SEGMENT
_time$ = 8						; size = 8
??0CTime@ATL@@QAE@_J@Z PROC				; ATL::CTime::CTime, COMDAT
; _this$ = ecx

; 171  : {

  00000	55		 push	 ebp
  00001	8b ec		 mov	 ebp, esp
  00003	8b c1		 mov	 eax, ecx
  00005	8b 4d 08	 mov	 ecx, DWORD PTR _time$[ebp]
  00008	89 08		 mov	 DWORD PTR [eax], ecx
  0000a	8b 4d 0c	 mov	 ecx, DWORD PTR _time$[ebp+4]
  0000d	89 48 04	 mov	 DWORD PTR [eax+4], ecx

; 172  : }

  00010	5d		 pop	 ebp
  00011	c2 08 00	 ret	 8
??0CTime@ATL@@QAE@_J@Z ENDP				; ATL::CTime::CTime
_TEXT	ENDS
PUBLIC	??4CTime@ATL@@QAEAAV01@_J@Z			; ATL::CTime::operator=
; Function compile flags: /Ogsp
;	COMDAT ??4CTime@ATL@@QAEAAV01@_J@Z
_TEXT	SEGMENT
_time$ = 8						; size = 8
??4CTime@ATL@@QAEAAV01@_J@Z PROC			; ATL::CTime::operator=, COMDAT
; _this$ = ecx

; 283  : {

  00000	55		 push	 ebp
  00001	8b ec		 mov	 ebp, esp
  00003	8b c1		 mov	 eax, ecx

; 284  : 	m_time = time;

  00005	8b 4d 08	 mov	 ecx, DWORD PTR _time$[ebp]
  00008	89 08		 mov	 DWORD PTR [eax], ecx
  0000a	8b 4d 0c	 mov	 ecx, DWORD PTR _time$[ebp+4]
  0000d	89 48 04	 mov	 DWORD PTR [eax+4], ecx

; 285  : 
; 286  : 	return( *this );
; 287  : }

  00010	5d		 pop	 ebp
  00011	c2 08 00	 ret	 8
??4CTime@ATL@@QAEAAV01@_J@Z ENDP			; ATL::CTime::operator=
_TEXT	ENDS
PUBLIC	??GCTime@ATL@@QBE?AVCTimeSpan@1@V01@@Z		; ATL::CTime::operator-
; Function compile flags: /Ogsp
;	COMDAT ??GCTime@ATL@@QBE?AVCTimeSpan@1@V01@@Z
_TEXT	SEGMENT
___$ReturnUdt$ = 8					; size = 4
_time$ = 12						; size = 8
??GCTime@ATL@@QBE?AVCTimeSpan@1@V01@@Z PROC		; ATL::CTime::operator-, COMDAT
; _this$ = ecx

; 304  : {

  00000	55		 push	 ebp
  00001	8b ec		 mov	 ebp, esp

; 305  : 	return( CTimeSpan( m_time-time.m_time ) );

  00003	8b 11		 mov	 edx, DWORD PTR [ecx]
  00005	2b 55 0c	 sub	 edx, DWORD PTR _time$[ebp]
  00008	8b 49 04	 mov	 ecx, DWORD PTR [ecx+4]
  0000b	1b 4d 10	 sbb	 ecx, DWORD PTR _time$[ebp+4]
  0000e	8b 45 08	 mov	 eax, DWORD PTR ___$ReturnUdt$[ebp]
  00011	89 10		 mov	 DWORD PTR [eax], edx
  00013	89 48 04	 mov	 DWORD PTR [eax+4], ecx

; 306  : }

  00016	5d		 pop	 ebp
  00017	c2 0c 00	 ret	 12			; 0000000cH
??GCTime@ATL@@QBE?AVCTimeSpan@1@V01@@Z ENDP		; ATL::CTime::operator-
_TEXT	ENDS
PUBLIC	?GetTime@CTime@ATL@@QBE_JXZ			; ATL::CTime::GetTime
; Function compile flags: /Ogsp
;	COMDAT ?GetTime@CTime@ATL@@QBE_JXZ
_TEXT	SEGMENT
?GetTime@CTime@ATL@@QBE_JXZ PROC			; ATL::CTime::GetTime, COMDAT
; _this$ = ecx

; 415  : 	return( m_time );

  00000	8b 01		 mov	 eax, DWORD PTR [ecx]
  00002	8b 51 04	 mov	 edx, DWORD PTR [ecx+4]

; 416  : }

  00005	c3		 ret	 0
?GetTime@CTime@ATL@@QBE_JXZ ENDP			; ATL::CTime::GetTime
_TEXT	ENDS
EXTRN	__imp_??0exception@std@@QAE@ABV01@@Z:PROC
; Function compile flags: /Ogsp
;	COMDAT ??0bad_alloc@std@@QAE@ABV01@@Z
_TEXT	SEGMENT
___that$ = 8						; size = 4
??0bad_alloc@std@@QAE@ABV01@@Z PROC			; std::bad_alloc::bad_alloc, COMDAT
; _this$ = ecx
  00000	55		 push	 ebp
  00001	8b ec		 mov	 ebp, esp
  00003	56		 push	 esi
  00004	ff 75 08	 push	 DWORD PTR ___that$[ebp]
  00007	8b f1		 mov	 esi, ecx
  00009	ff 15 00 00 00
	00		 call	 DWORD PTR __imp_??0exception@std@@QAE@ABV01@@Z
  0000f	c7 06 00 00 00
	00		 mov	 DWORD PTR [esi], OFFSET ??_7bad_alloc@std@@6B@
  00015	8b c6		 mov	 eax, esi
  00017	5e		 pop	 esi
  00018	5d		 pop	 ebp
  00019	c2 04 00	 ret	 4
??0bad_alloc@std@@QAE@ABV01@@Z ENDP			; std::bad_alloc::bad_alloc
_TEXT	ENDS
PUBLIC	??$forward@AAH@std@@YAAAHAAH@Z			; std::forward<int &>
; Function compile flags: /Ogsp
; File c:\program files (x86)\microsoft visual studio 10.0\vc\include\utility
;	COMDAT ??$forward@AAH@std@@YAAAHAAH@Z
_TEXT	SEGMENT
__Arg$ = 8						; size = 4
??$forward@AAH@std@@YAAAHAAH@Z PROC			; std::forward<int &>, COMDAT

; 78   : 	{	// forward _Arg, given explicitly specified type parameter

  00000	55		 push	 ebp
  00001	8b ec		 mov	 ebp, esp

; 79   : 	return ((_Ty&&)_Arg);

  00003	8b 45 08	 mov	 eax, DWORD PTR __Arg$[ebp]

; 80   : 	}

  00006	5d		 pop	 ebp
  00007	c3		 ret	 0
??$forward@AAH@std@@YAAAHAAH@Z ENDP			; std::forward<int &>
_TEXT	ENDS
PUBLIC	??$_Move@AAD@std@@YA$$QADAAD@Z			; std::_Move<char &>
; Function compile flags: /Ogsp
;	COMDAT ??$_Move@AAD@std@@YA$$QADAAD@Z
_TEXT	SEGMENT
__Arg$ = 8						; size = 4
??$_Move@AAD@std@@YA$$QADAAD@Z PROC			; std::_Move<char &>, COMDAT

; 94   : 	{	// forward _Arg as movable

  00000	55		 push	 ebp
  00001	8b ec		 mov	 ebp, esp

; 95   : 	return ((typename tr1::_Remove_reference<_Ty>::_Type&&)_Arg);

  00003	8b 45 08	 mov	 eax, DWORD PTR __Arg$[ebp]

; 96   : 	}

  00006	5d		 pop	 ebp
  00007	c3		 ret	 0
??$_Move@AAD@std@@YA$$QADAAD@Z ENDP			; std::_Move<char &>
_TEXT	ENDS
PUBLIC	??$move@AA_N@std@@YA$$QA_NAA_N@Z		; std::move<bool &>
; Function compile flags: /Ogsp
;	COMDAT ??$move@AA_N@std@@YA$$QA_NAA_N@Z
_TEXT	SEGMENT
__Arg$ = 8						; size = 4
??$move@AA_N@std@@YA$$QA_NAA_N@Z PROC			; std::move<bool &>, COMDAT

; 86   : 	{	// forward _Arg as movable

  00000	55		 push	 ebp
  00001	8b ec		 mov	 ebp, esp

; 87   : 	return ((typename tr1::_Remove_reference<_Ty>::_Type&&)_Arg);

  00003	8b 45 08	 mov	 eax, DWORD PTR __Arg$[ebp]

; 88   : 	}

  00006	5d		 pop	 ebp
  00007	c3		 ret	 0
??$move@AA_N@std@@YA$$QA_NAA_N@Z ENDP			; std::move<bool &>
_TEXT	ENDS
PUBLIC	??$forward@_N@std@@YA$$QA_NAA_N@Z		; std::forward<bool>
; Function compile flags: /Ogsp
;	COMDAT ??$forward@_N@std@@YA$$QA_NAA_N@Z
_TEXT	SEGMENT
__Arg$ = 8						; size = 4
??$forward@_N@std@@YA$$QA_NAA_N@Z PROC			; std::forward<bool>, COMDAT

; 78   : 	{	// forward _Arg, given explicitly specified type parameter

  00000	55		 push	 ebp
  00001	8b ec		 mov	 ebp, esp

; 79   : 	return ((_Ty&&)_Arg);

  00003	8b 45 08	 mov	 eax, DWORD PTR __Arg$[ebp]

; 80   : 	}

  00006	5d		 pop	 ebp
  00007	c3		 ret	 0
??$forward@_N@std@@YA$$QA_NAA_N@Z ENDP			; std::forward<bool>
_TEXT	ENDS
PUBLIC	??0BonusCashInfo@ioBonusCashManager@@QAE@XZ	; ioBonusCashManager::BonusCashInfo::BonusCashInfo
; Function compile flags: /Ogsp
; File d:\lost saga for developer\youtube\tutorial\source\src\lsclient\iobonuscashmanager.h
;	COMDAT ??0BonusCashInfo@ioBonusCashManager@@QAE@XZ
_TEXT	SEGMENT
??0BonusCashInfo@ioBonusCashManager@@QAE@XZ PROC	; ioBonusCashManager::BonusCashInfo::BonusCashInfo, COMDAT
; _this$ = ecx

; 14   : 		{

  00000	8b c1		 mov	 eax, ecx

; 15   : 			ExpiredTime = CTime(0);

  00002	33 c9		 xor	 ecx, ecx
  00004	89 08		 mov	 DWORD PTR [eax], ecx
  00006	89 48 04	 mov	 DWORD PTR [eax+4], ecx

; 16   : 			iAcquisitionCash = 0;

  00009	89 48 08	 mov	 DWORD PTR [eax+8], ecx

; 17   : 			iRemainingCash = 0;

  0000c	89 48 0c	 mov	 DWORD PTR [eax+12], ecx

; 18   : 		}

  0000f	c3		 ret	 0
??0BonusCashInfo@ioBonusCashManager@@QAE@XZ ENDP	; ioBonusCashManager::BonusCashInfo::BonusCashInfo
_TEXT	ENDS
PUBLIC	?GetSingeton@ioBonusCashManager@@SAAAV1@XZ	; ioBonusCashManager::GetSingeton
; Function compile flags: /Ogsp
; File d:\lost saga for developer\youtube\tutorial\source\src\lsclient\iobonuscashmanager.cpp
;	COMDAT ?GetSingeton@ioBonusCashManager@@SAAAV1@XZ
_TEXT	SEGMENT
?GetSingeton@ioBonusCashManager@@SAAAV1@XZ PROC		; ioBonusCashManager::GetSingeton, COMDAT

; 17   : 	return Singleton< ioBonusCashManager >::GetSingleton();

  00000	a1 00 00 00 00	 mov	 eax, DWORD PTR ?ms_Singleton@?$Singleton@VioBonusCashManager@@@@1PAVioBonusCashManager@@A ; Singleton<ioBonusCashManager>::ms_Singleton

; 18   : }

  00005	c3		 ret	 0
?GetSingeton@ioBonusCashManager@@SAAAV1@XZ ENDP		; ioBonusCashManager::GetSingeton
_TEXT	ENDS
PUBLIC	??0?$_Tree_const_iterator@V?$_Tree_val@V?$_Tmap_traits@HUBonusCashInfo@ioBonusCashManager@@U?$less@H@std@@V?$allocator@U?$pair@$$CBHUBonusCashInfo@ioBonusCashManager@@@std@@@4@$0A@@std@@@std@@@std@@QAE@XZ ; std::_Tree_const_iterator<std::_Tree_val<std::_Tmap_traits<int,ioBonusCashManager::BonusCashInfo,std::less<int>,std::allocator<std::pair<int const ,ioBonusCashManager::BonusCashInfo> >,0> > >::_Tree_const_iterator<std::_Tree_val<std::_Tmap_traits<int,ioBonusCashManager::BonusCashInfo,std::less<int>,std::allocator<std::pair<int const ,ioBonusCashManager::BonusCashInfo> >,0> > >
; Function compile flags: /Ogsp
; File c:\program files (x86)\microsoft visual studio 10.0\vc\include\xtree
;	COMDAT ??0?$_Tree_const_iterator@V?$_Tree_val@V?$_Tmap_traits@HUBonusCashInfo@ioBonusCashManager@@U?$less@H@std@@V?$allocator@U?$pair@$$CBHUBonusCashInfo@ioBonusCashManager@@@std@@@4@$0A@@std@@@std@@@std@@QAE@XZ
_TEXT	SEGMENT
??0?$_Tree_const_iterator@V?$_Tree_val@V?$_Tmap_traits@HUBonusCashInfo@ioBonusCashManager@@U?$less@H@std@@V?$allocator@U?$pair@$$CBHUBonusCashInfo@ioBonusCashManager@@@std@@@4@$0A@@std@@@std@@@std@@QAE@XZ PROC ; std::_Tree_const_iterator<std::_Tree_val<std::_Tmap_traits<int,ioBonusCashManager::BonusCashInfo,std::less<int>,std::allocator<std::pair<int const ,ioBonusCashManager::BonusCashInfo> >,0> > >::_Tree_const_iterator<std::_Tree_val<std::_Tmap_traits<int,ioBonusCashManager::BonusCashInfo,std::less<int>,std::allocator<std::pair<int const ,ioBonusCashManager::BonusCashInfo> >,0> > >, COMDAT
; _this$ = ecx

; 208  : 		{	// construct with null node pointer

  00000	8b c1		 mov	 eax, ecx
  00002	83 20 00	 and	 DWORD PTR [eax], 0

; 209  : 		}

  00005	c3		 ret	 0
??0?$_Tree_const_iterator@V?$_Tree_val@V?$_Tmap_traits@HUBonusCashInfo@ioBonusCashManager@@U?$less@H@std@@V?$allocator@U?$pair@$$CBHUBonusCashInfo@ioBonusCashManager@@@std@@@4@$0A@@std@@@std@@@std@@QAE@XZ ENDP ; std::_Tree_const_iterator<std::_Tree_val<std::_Tmap_traits<int,ioBonusCashManager::BonusCashInfo,std::less<int>,std::allocator<std::pair<int const ,ioBonusCashManager::BonusCashInfo> >,0> > >::_Tree_const_iterator<std::_Tree_val<std::_Tmap_traits<int,ioBonusCashManager::BonusCashInfo,std::less<int>,std::allocator<std::pair<int const ,ioBonusCashManager::BonusCashInfo> >,0> > >
_TEXT	ENDS
PUBLIC	??C?$_Tree_unchecked_const_iterator@V?$_Tree_val@V?$_Tmap_traits@HUBonusCashInfo@ioBonusCashManager@@U?$less@H@std@@V?$allocator@U?$pair@$$CBHUBonusCashInfo@ioBonusCashManager@@@std@@@4@$0A@@std@@@std@@U_Iterator_base0@2@@std@@QBEPBU?$pair@$$CBHUBonusCashInfo@ioBonusCashManager@@@1@XZ ; std::_Tree_unchecked_const_iterator<std::_Tree_val<std::_Tmap_traits<int,ioBonusCashManager::BonusCashInfo,std::less<int>,std::allocator<std::pair<int const ,ioBonusCashManager::BonusCashInfo> >,0> >,std::_Iterator_base0>::operator->
; Function compile flags: /Ogsp
;	COMDAT ??C?$_Tree_unchecked_const_iterator@V?$_Tree_val@V?$_Tmap_traits@HUBonusCashInfo@ioBonusCashManager@@U?$less@H@std@@V?$allocator@U?$pair@$$CBHUBonusCashInfo@ioBonusCashManager@@@std@@@4@$0A@@std@@@std@@U_Iterator_base0@2@@std@@QBEPBU?$pair@$$CBHUBonusCashInfo@ioBonusCashManager@@@1@XZ
_TEXT	SEGMENT
??C?$_Tree_unchecked_const_iterator@V?$_Tree_val@V?$_Tmap_traits@HUBonusCashInfo@ioBonusCashManager@@U?$less@H@std@@V?$allocator@U?$pair@$$CBHUBonusCashInfo@ioBonusCashManager@@@std@@@4@$0A@@std@@@std@@U_Iterator_base0@2@@std@@QBEPBU?$pair@$$CBHUBonusCashInfo@ioBonusCashManager@@@1@XZ PROC ; std::_Tree_unchecked_const_iterator<std::_Tree_val<std::_Tmap_traits<int,ioBonusCashManager::BonusCashInfo,std::less<int>,std::allocator<std::pair<int const ,ioBonusCashManager::BonusCashInfo> >,0> >,std::_Iterator_base0>::operator->, COMDAT
; _this$ = ecx

; 54   : 		return (&**this);

  00000	8b 01		 mov	 eax, DWORD PTR [ecx]
  00002	83 c0 0c	 add	 eax, 12			; 0000000cH

; 55   : 		}

  00005	c3		 ret	 0
??C?$_Tree_unchecked_const_iterator@V?$_Tree_val@V?$_Tmap_traits@HUBonusCashInfo@ioBonusCashManager@@U?$less@H@std@@V?$allocator@U?$pair@$$CBHUBonusCashInfo@ioBonusCashManager@@@std@@@4@$0A@@std@@@std@@U_Iterator_base0@2@@std@@QBEPBU?$pair@$$CBHUBonusCashInfo@ioBonusCashManager@@@1@XZ ENDP ; std::_Tree_unchecked_const_iterator<std::_Tree_val<std::_Tmap_traits<int,ioBonusCashManager::BonusCashInfo,std::less<int>,std::allocator<std::pair<int const ,ioBonusCashManager::BonusCashInfo> >,0> >,std::_Iterator_base0>::operator->
_TEXT	ENDS
PUBLIC	?_Lmost@?$_Tree@V?$_Tmap_traits@HUBonusCashInfo@ioBonusCashManager@@U?$less@H@std@@V?$allocator@U?$pair@$$CBHUBonusCashInfo@ioBonusCashManager@@@std@@@4@$0A@@std@@@std@@IBEAAPAU_Node@?$_Tree_nod@V?$_Tmap_traits@HUBonusCashInfo@ioBonusCashManager@@U?$less@H@std@@V?$allocator@U?$pair@$$CBHUBonusCashInfo@ioBonusCashManager@@@std@@@4@$0A@@std@@@2@XZ ; std::_Tree<std::_Tmap_traits<int,ioBonusCashManager::BonusCashInfo,std::less<int>,std::allocator<std::pair<int const ,ioBonusCashManager::BonusCashInfo> >,0> >::_Lmost
; Function compile flags: /Ogsp
;	COMDAT ?_Lmost@?$_Tree@V?$_Tmap_traits@HUBonusCashInfo@ioBonusCashManager@@U?$less@H@std@@V?$allocator@U?$pair@$$CBHUBonusCashInfo@ioBonusCashManager@@@std@@@4@$0A@@std@@@std@@IBEAAPAU_Node@?$_Tree_nod@V?$_Tmap_traits@HUBonusCashInfo@ioBonusCashManager@@U?$less@H@std@@V?$allocator@U?$pair@$$CBHUBonusCashInfo@ioBonusCashManager@@@std@@@4@$0A@@std@@@2@XZ
_TEXT	SEGMENT
?_Lmost@?$_Tree@V?$_Tmap_traits@HUBonusCashInfo@ioBonusCashManager@@U?$less@H@std@@V?$allocator@U?$pair@$$CBHUBonusCashInfo@ioBonusCashManager@@@std@@@4@$0A@@std@@@std@@IBEAAPAU_Node@?$_Tree_nod@V?$_Tmap_traits@HUBonusCashInfo@ioBonusCashManager@@U?$less@H@std@@V?$allocator@U?$pair@$$CBHUBonusCashInfo@ioBonusCashManager@@@std@@@4@$0A@@std@@@2@XZ PROC ; std::_Tree<std::_Tmap_traits<int,ioBonusCashManager::BonusCashInfo,std::less<int>,std::allocator<std::pair<int const ,ioBonusCashManager::BonusCashInfo> >,0> >::_Lmost, COMDAT
; _this$ = ecx

; 1759 : 		return (this->_Left(this->_Myhead));

  00000	8b 41 04	 mov	 eax, DWORD PTR [ecx+4]

; 1760 : 		}

  00003	c3		 ret	 0
?_Lmost@?$_Tree@V?$_Tmap_traits@HUBonusCashInfo@ioBonusCashManager@@U?$less@H@std@@V?$allocator@U?$pair@$$CBHUBonusCashInfo@ioBonusCashManager@@@std@@@4@$0A@@std@@@std@@IBEAAPAU_Node@?$_Tree_nod@V?$_Tmap_traits@HUBonusCashInfo@ioBonusCashManager@@U?$less@H@std@@V?$allocator@U?$pair@$$CBHUBonusCashInfo@ioBonusCashManager@@@std@@@4@$0A@@std@@@2@XZ ENDP ; std::_Tree<std::_Tmap_traits<int,ioBonusCashManager::BonusCashInfo,std::less<int>,std::allocator<std::pair<int const ,ioBonusCashManager::BonusCashInfo> >,0> >::_Lmost
_TEXT	ENDS
PUBLIC	?_Rmost@?$_Tree@V?$_Tmap_traits@HUBonusCashInfo@ioBonusCashManager@@U?$less@H@std@@V?$allocator@U?$pair@$$CBHUBonusCashInfo@ioBonusCashManager@@@std@@@4@$0A@@std@@@std@@IBEAAPAU_Node@?$_Tree_nod@V?$_Tmap_traits@HUBonusCashInfo@ioBonusCashManager@@U?$less@H@std@@V?$allocator@U?$pair@$$CBHUBonusCashInfo@ioBonusCashManager@@@std@@@4@$0A@@std@@@2@XZ ; std::_Tree<std::_Tmap_traits<int,ioBonusCashManager::BonusCashInfo,std::less<int>,std::allocator<std::pair<int const ,ioBonusCashManager::BonusCashInfo> >,0> >::_Rmost
; Function compile flags: /Ogsp
;	COMDAT ?_Rmost@?$_Tree@V?$_Tmap_traits@HUBonusCashInfo@ioBonusCashManager@@U?$less@H@std@@V?$allocator@U?$pair@$$CBHUBonusCashInfo@ioBonusCashManager@@@std@@@4@$0A@@std@@@std@@IBEAAPAU_Node@?$_Tree_nod@V?$_Tmap_traits@HUBonusCashInfo@ioBonusCashManager@@U?$less@H@std@@V?$allocator@U?$pair@$$CBHUBonusCashInfo@ioBonusCashManager@@@std@@@4@$0A@@std@@@2@XZ
_TEXT	SEGMENT
?_Rmost@?$_Tree@V?$_Tmap_traits@HUBonusCashInfo@ioBonusCashManager@@U?$less@H@std@@V?$allocator@U?$pair@$$CBHUBonusCashInfo@ioBonusCashManager@@@std@@@4@$0A@@std@@@std@@IBEAAPAU_Node@?$_Tree_nod@V?$_Tmap_traits@HUBonusCashInfo@ioBonusCashManager@@U?$less@H@std@@V?$allocator@U?$pair@$$CBHUBonusCashInfo@ioBonusCashManager@@@std@@@4@$0A@@std@@@2@XZ PROC ; std::_Tree<std::_Tmap_traits<int,ioBonusCashManager::BonusCashInfo,std::less<int>,std::allocator<std::pair<int const ,ioBonusCashManager::BonusCashInfo> >,0> >::_Rmost, COMDAT
; _this$ = ecx

; 1784 : 		return (this->_Right(this->_Myhead));

  00000	8b 41 04	 mov	 eax, DWORD PTR [ecx+4]
  00003	83 c0 08	 add	 eax, 8

; 1785 : 		}

  00006	c3		 ret	 0
?_Rmost@?$_Tree@V?$_Tmap_traits@HUBonusCashInfo@ioBonusCashManager@@U?$less@H@std@@V?$allocator@U?$pair@$$CBHUBonusCashInfo@ioBonusCashManager@@@std@@@4@$0A@@std@@@std@@IBEAAPAU_Node@?$_Tree_nod@V?$_Tmap_traits@HUBonusCashInfo@ioBonusCashManager@@U?$less@H@std@@V?$allocator@U?$pair@$$CBHUBonusCashInfo@ioBonusCashManager@@@std@@@4@$0A@@std@@@2@XZ ENDP ; std::_Tree<std::_Tmap_traits<int,ioBonusCashManager::BonusCashInfo,std::less<int>,std::allocator<std::pair<int const ,ioBonusCashManager::BonusCashInfo> >,0> >::_Rmost
_TEXT	ENDS
PUBLIC	?_Root@?$_Tree@V?$_Tmap_traits@HUBonusCashInfo@ioBonusCashManager@@U?$less@H@std@@V?$allocator@U?$pair@$$CBHUBonusCashInfo@ioBonusCashManager@@@std@@@4@$0A@@std@@@std@@IBEAAPAU_Node@?$_Tree_nod@V?$_Tmap_traits@HUBonusCashInfo@ioBonusCashManager@@U?$less@H@std@@V?$allocator@U?$pair@$$CBHUBonusCashInfo@ioBonusCashManager@@@std@@@4@$0A@@std@@@2@XZ ; std::_Tree<std::_Tmap_traits<int,ioBonusCashManager::BonusCashInfo,std::less<int>,std::allocator<std::pair<int const ,ioBonusCashManager::BonusCashInfo> >,0> >::_Root
; Function compile flags: /Ogsp
;	COMDAT ?_Root@?$_Tree@V?$_Tmap_traits@HUBonusCashInfo@ioBonusCashManager@@U?$less@H@std@@V?$allocator@U?$pair@$$CBHUBonusCashInfo@ioBonusCashManager@@@std@@@4@$0A@@std@@@std@@IBEAAPAU_Node@?$_Tree_nod@V?$_Tmap_traits@HUBonusCashInfo@ioBonusCashManager@@U?$less@H@std@@V?$allocator@U?$pair@$$CBHUBonusCashInfo@ioBonusCashManager@@@std@@@4@$0A@@std@@@2@XZ
_TEXT	SEGMENT
?_Root@?$_Tree@V?$_Tmap_traits@HUBonusCashInfo@ioBonusCashManager@@U?$less@H@std@@V?$allocator@U?$pair@$$CBHUBonusCashInfo@ioBonusCashManager@@@std@@@4@$0A@@std@@@std@@IBEAAPAU_Node@?$_Tree_nod@V?$_Tmap_traits@HUBonusCashInfo@ioBonusCashManager@@U?$less@H@std@@V?$allocator@U?$pair@$$CBHUBonusCashInfo@ioBonusCashManager@@@std@@@4@$0A@@std@@@2@XZ PROC ; std::_Tree<std::_Tmap_traits<int,ioBonusCashManager::BonusCashInfo,std::less<int>,std::allocator<std::pair<int const ,ioBonusCashManager::BonusCashInfo> >,0> >::_Root, COMDAT
; _this$ = ecx

; 1789 : 		return (this->_Parent(this->_Myhead));

  00000	8b 41 04	 mov	 eax, DWORD PTR [ecx+4]
  00003	83 c0 04	 add	 eax, 4

; 1790 : 		}

  00006	c3		 ret	 0
?_Root@?$_Tree@V?$_Tmap_traits@HUBonusCashInfo@ioBonusCashManager@@U?$less@H@std@@V?$allocator@U?$pair@$$CBHUBonusCashInfo@ioBonusCashManager@@@std@@@4@$0A@@std@@@std@@IBEAAPAU_Node@?$_Tree_nod@V?$_Tmap_traits@HUBonusCashInfo@ioBonusCashManager@@U?$less@H@std@@V?$allocator@U?$pair@$$CBHUBonusCashInfo@ioBonusCashManager@@@std@@@4@$0A@@std@@@2@XZ ENDP ; std::_Tree<std::_Tmap_traits<int,ioBonusCashManager::BonusCashInfo,std::less<int>,std::allocator<std::pair<int const ,ioBonusCashManager::BonusCashInfo> >,0> >::_Root
_TEXT	ENDS
PUBLIC	?_Rrotate@?$_Tree@V?$_Tmap_traits@HUBonusCashInfo@ioBonusCashManager@@U?$less@H@std@@V?$allocator@U?$pair@$$CBHUBonusCashInfo@ioBonusCashManager@@@std@@@4@$0A@@std@@@std@@IAEXPAU_Node@?$_Tree_nod@V?$_Tmap_traits@HUBonusCashInfo@ioBonusCashManager@@U?$less@H@std@@V?$allocator@U?$pair@$$CBHUBonusCashInfo@ioBonusCashManager@@@std@@@4@$0A@@std@@@2@@Z ; std::_Tree<std::_Tmap_traits<int,ioBonusCashManager::BonusCashInfo,std::less<int>,std::allocator<std::pair<int const ,ioBonusCashManager::BonusCashInfo> >,0> >::_Rrotate
; Function compile flags: /Ogsp
;	COMDAT ?_Rrotate@?$_Tree@V?$_Tmap_traits@HUBonusCashInfo@ioBonusCashManager@@U?$less@H@std@@V?$allocator@U?$pair@$$CBHUBonusCashInfo@ioBonusCashManager@@@std@@@4@$0A@@std@@@std@@IAEXPAU_Node@?$_Tree_nod@V?$_Tmap_traits@HUBonusCashInfo@ioBonusCashManager@@U?$less@H@std@@V?$allocator@U?$pair@$$CBHUBonusCashInfo@ioBonusCashManager@@@std@@@4@$0A@@std@@@2@@Z
_TEXT	SEGMENT
__Wherenode$ = 8					; size = 4
?_Rrotate@?$_Tree@V?$_Tmap_traits@HUBonusCashInfo@ioBonusCashManager@@U?$less@H@std@@V?$allocator@U?$pair@$$CBHUBonusCashInfo@ioBonusCashManager@@@std@@@4@$0A@@std@@@std@@IAEXPAU_Node@?$_Tree_nod@V?$_Tmap_traits@HUBonusCashInfo@ioBonusCashManager@@U?$less@H@std@@V?$allocator@U?$pair@$$CBHUBonusCashInfo@ioBonusCashManager@@@std@@@4@$0A@@std@@@2@@Z PROC ; std::_Tree<std::_Tmap_traits<int,ioBonusCashManager::BonusCashInfo,std::less<int>,std::allocator<std::pair<int const ,ioBonusCashManager::BonusCashInfo> >,0> >::_Rrotate, COMDAT
; _this$ = ecx

; 1793 : 		{	// promote left node to root of subtree

  00000	55		 push	 ebp
  00001	8b ec		 mov	 ebp, esp

; 1794 : 		_Nodeptr _Pnode = this->_Left(_Wherenode);

  00003	8b 55 08	 mov	 edx, DWORD PTR __Wherenode$[ebp]
  00006	8b 02		 mov	 eax, DWORD PTR [edx]
  00008	56		 push	 esi

; 1795 : 		this->_Left(_Wherenode) = this->_Right(_Pnode);

  00009	8b 70 08	 mov	 esi, DWORD PTR [eax+8]
  0000c	89 32		 mov	 DWORD PTR [edx], esi

; 1796 : 
; 1797 : 		if (!this->_Isnil(this->_Right(_Pnode)))

  0000e	8b 70 08	 mov	 esi, DWORD PTR [eax+8]
  00011	80 7e 21 00	 cmp	 BYTE PTR [esi+33], 0
  00015	75 03		 jne	 SHORT $LN5@Rrotate

; 1798 : 			this->_Parent(this->_Right(_Pnode)) = _Wherenode;

  00017	89 56 04	 mov	 DWORD PTR [esi+4], edx
$LN5@Rrotate:

; 1799 : 		this->_Parent(_Pnode) = this->_Parent(_Wherenode);

  0001a	8b 72 04	 mov	 esi, DWORD PTR [edx+4]
  0001d	89 70 04	 mov	 DWORD PTR [eax+4], esi

; 1800 : 
; 1801 : 		if (_Wherenode == _Root())

  00020	8b 49 04	 mov	 ecx, DWORD PTR [ecx+4]
  00023	5e		 pop	 esi
  00024	3b 51 04	 cmp	 edx, DWORD PTR [ecx+4]
  00027	75 05		 jne	 SHORT $LN4@Rrotate

; 1802 : 			_Root() = _Pnode;

  00029	89 41 04	 mov	 DWORD PTR [ecx+4], eax

; 1803 : 		else if (_Wherenode == this->_Right(this->_Parent(_Wherenode)))

  0002c	eb 0f		 jmp	 SHORT $LN1@Rrotate
$LN4@Rrotate:
  0002e	8b 4a 04	 mov	 ecx, DWORD PTR [edx+4]
  00031	3b 51 08	 cmp	 edx, DWORD PTR [ecx+8]
  00034	75 05		 jne	 SHORT $LN2@Rrotate

; 1804 : 			this->_Right(this->_Parent(_Wherenode)) = _Pnode;

  00036	89 41 08	 mov	 DWORD PTR [ecx+8], eax

; 1805 : 		else

  00039	eb 02		 jmp	 SHORT $LN1@Rrotate
$LN2@Rrotate:

; 1806 : 			this->_Left(this->_Parent(_Wherenode)) = _Pnode;

  0003b	89 01		 mov	 DWORD PTR [ecx], eax
$LN1@Rrotate:

; 1807 : 
; 1808 : 		this->_Right(_Pnode) = _Wherenode;

  0003d	89 50 08	 mov	 DWORD PTR [eax+8], edx

; 1809 : 		this->_Parent(_Wherenode) = _Pnode;

  00040	89 42 04	 mov	 DWORD PTR [edx+4], eax

; 1810 : 		}

  00043	5d		 pop	 ebp
  00044	c2 04 00	 ret	 4
?_Rrotate@?$_Tree@V?$_Tmap_traits@HUBonusCashInfo@ioBonusCashManager@@U?$less@H@std@@V?$allocator@U?$pair@$$CBHUBonusCashInfo@ioBonusCashManager@@@std@@@4@$0A@@std@@@std@@IAEXPAU_Node@?$_Tree_nod@V?$_Tmap_traits@HUBonusCashInfo@ioBonusCashManager@@U?$less@H@std@@V?$allocator@U?$pair@$$CBHUBonusCashInfo@ioBonusCashManager@@@std@@@4@$0A@@std@@@2@@Z ENDP ; std::_Tree<std::_Tmap_traits<int,ioBonusCashManager::BonusCashInfo,std::less<int>,std::allocator<std::pair<int const ,ioBonusCashManager::BonusCashInfo> >,0> >::_Rrotate
_TEXT	ENDS
PUBLIC	??1?$_Tree_val@V?$_Tmap_traits@HUBonusCashInfo@ioBonusCashManager@@U?$less@H@std@@V?$allocator@U?$pair@$$CBHUBonusCashInfo@ioBonusCashManager@@@std@@@4@$0A@@std@@@std@@QAE@XZ ; std::_Tree_val<std::_Tmap_traits<int,ioBonusCashManager::BonusCashInfo,std::less<int>,std::allocator<std::pair<int const ,ioBonusCashManager::BonusCashInfo> >,0> >::~_Tree_val<std::_Tmap_traits<int,ioBonusCashManager::BonusCashInfo,std::less<int>,std::allocator<std::pair<int const ,ioBonusCashManager::BonusCashInfo> >,0> >
; Function compile flags: /Ogsp
;	COMDAT ??1?$_Tree_val@V?$_Tmap_traits@HUBonusCashInfo@ioBonusCashManager@@U?$less@H@std@@V?$allocator@U?$pair@$$CBHUBonusCashInfo@ioBonusCashManager@@@std@@@4@$0A@@std@@@std@@QAE@XZ
_TEXT	SEGMENT
??1?$_Tree_val@V?$_Tmap_traits@HUBonusCashInfo@ioBonusCashManager@@U?$less@H@std@@V?$allocator@U?$pair@$$CBHUBonusCashInfo@ioBonusCashManager@@@std@@@4@$0A@@std@@@std@@QAE@XZ PROC ; std::_Tree_val<std::_Tmap_traits<int,ioBonusCashManager::BonusCashInfo,std::less<int>,std::allocator<std::pair<int const ,ioBonusCashManager::BonusCashInfo> >,0> >::~_Tree_val<std::_Tmap_traits<int,ioBonusCashManager::BonusCashInfo,std::less<int>,std::allocator<std::pair<int const ,ioBonusCashManager::BonusCashInfo> >,0> >, COMDAT
; _this$ = ecx

; 555  : 		this->_Alnod.deallocate(this->_Myhead, 1);

  00000	ff 71 04	 push	 DWORD PTR [ecx+4]
  00003	e8 00 00 00 00	 call	 ??3@YAXPAX@Z		; operator delete
  00008	59		 pop	 ecx

; 556  : 		}

  00009	c3		 ret	 0
??1?$_Tree_val@V?$_Tmap_traits@HUBonusCashInfo@ioBonusCashManager@@U?$less@H@std@@V?$allocator@U?$pair@$$CBHUBonusCashInfo@ioBonusCashManager@@@std@@@4@$0A@@std@@@std@@QAE@XZ ENDP ; std::_Tree_val<std::_Tmap_traits<int,ioBonusCashManager::BonusCashInfo,std::less<int>,std::allocator<std::pair<int const ,ioBonusCashManager::BonusCashInfo> >,0> >::~_Tree_val<std::_Tmap_traits<int,ioBonusCashManager::BonusCashInfo,std::less<int>,std::allocator<std::pair<int const ,ioBonusCashManager::BonusCashInfo> >,0> >
_TEXT	ENDS
PUBLIC	?_Key@?$_Tree_val@V?$_Tmap_traits@HUBonusCashInfo@ioBonusCashManager@@U?$less@H@std@@V?$allocator@U?$pair@$$CBHUBonusCashInfo@ioBonusCashManager@@@std@@@4@$0A@@std@@@std@@SAAAHPAU_Node@?$_Tree_nod@V?$_Tmap_traits@HUBonusCashInfo@ioBonusCashManager@@U?$less@H@std@@V?$allocator@U?$pair@$$CBHUBonusCashInfo@ioBonusCashManager@@@std@@@4@$0A@@std@@@2@@Z ; std::_Tree_val<std::_Tmap_traits<int,ioBonusCashManager::BonusCashInfo,std::less<int>,std::allocator<std::pair<int const ,ioBonusCashManager::BonusCashInfo> >,0> >::_Key
; Function compile flags: /Ogsp
;	COMDAT ?_Key@?$_Tree_val@V?$_Tmap_traits@HUBonusCashInfo@ioBonusCashManager@@U?$less@H@std@@V?$allocator@U?$pair@$$CBHUBonusCashInfo@ioBonusCashManager@@@std@@@4@$0A@@std@@@std@@SAAAHPAU_Node@?$_Tree_nod@V?$_Tmap_traits@HUBonusCashInfo@ioBonusCashManager@@U?$less@H@std@@V?$allocator@U?$pair@$$CBHUBonusCashInfo@ioBonusCashManager@@@std@@@4@$0A@@std@@@2@@Z
_TEXT	SEGMENT
__Pnode$ = 8						; size = 4
?_Key@?$_Tree_val@V?$_Tmap_traits@HUBonusCashInfo@ioBonusCashManager@@U?$less@H@std@@V?$allocator@U?$pair@$$CBHUBonusCashInfo@ioBonusCashManager@@@std@@@4@$0A@@std@@@std@@SAAAHPAU_Node@?$_Tree_nod@V?$_Tmap_traits@HUBonusCashInfo@ioBonusCashManager@@U?$less@H@std@@V?$allocator@U?$pair@$$CBHUBonusCashInfo@ioBonusCashManager@@@std@@@4@$0A@@std@@@2@@Z PROC ; std::_Tree_val<std::_Tmap_traits<int,ioBonusCashManager::BonusCashInfo,std::less<int>,std::allocator<std::pair<int const ,ioBonusCashManager::BonusCashInfo> >,0> >::_Key, COMDAT

; 616  : 		{	// return reference to key in node

  00000	55		 push	 ebp
  00001	8b ec		 mov	 ebp, esp

; 617  : 		return ((key_type&)_Traits::_Kfn(_Myval(_Pnode)));

  00003	8b 45 08	 mov	 eax, DWORD PTR __Pnode$[ebp]
  00006	83 c0 0c	 add	 eax, 12			; 0000000cH

; 618  : 		}

  00009	5d		 pop	 ebp
  0000a	c3		 ret	 0
?_Key@?$_Tree_val@V?$_Tmap_traits@HUBonusCashInfo@ioBonusCashManager@@U?$less@H@std@@V?$allocator@U?$pair@$$CBHUBonusCashInfo@ioBonusCashManager@@@std@@@4@$0A@@std@@@std@@SAAAHPAU_Node@?$_Tree_nod@V?$_Tmap_traits@HUBonusCashInfo@ioBonusCashManager@@U?$less@H@std@@V?$allocator@U?$pair@$$CBHUBonusCashInfo@ioBonusCashManager@@@std@@@4@$0A@@std@@@2@@Z ENDP ; std::_Tree_val<std::_Tmap_traits<int,ioBonusCashManager::BonusCashInfo,std::less<int>,std::allocator<std::pair<int const ,ioBonusCashManager::BonusCashInfo> >,0> >::_Key
_TEXT	ENDS
PUBLIC	??D?$_Tree_iterator@V?$_Tree_val@V?$_Tmap_traits@HUBonusCashInfo@ioBonusCashManager@@U?$less@H@std@@V?$allocator@U?$pair@$$CBHUBonusCashInfo@ioBonusCashManager@@@std@@@4@$0A@@std@@@std@@@std@@QBEAAU?$pair@$$CBHUBonusCashInfo@ioBonusCashManager@@@1@XZ ; std::_Tree_iterator<std::_Tree_val<std::_Tmap_traits<int,ioBonusCashManager::BonusCashInfo,std::less<int>,std::allocator<std::pair<int const ,ioBonusCashManager::BonusCashInfo> >,0> > >::operator*
; Function compile flags: /Ogsp
;	COMDAT ??D?$_Tree_iterator@V?$_Tree_val@V?$_Tmap_traits@HUBonusCashInfo@ioBonusCashManager@@U?$less@H@std@@V?$allocator@U?$pair@$$CBHUBonusCashInfo@ioBonusCashManager@@@std@@@4@$0A@@std@@@std@@@std@@QBEAAU?$pair@$$CBHUBonusCashInfo@ioBonusCashManager@@@1@XZ
_TEXT	SEGMENT
??D?$_Tree_iterator@V?$_Tree_val@V?$_Tmap_traits@HUBonusCashInfo@ioBonusCashManager@@U?$less@H@std@@V?$allocator@U?$pair@$$CBHUBonusCashInfo@ioBonusCashManager@@@std@@@4@$0A@@std@@@std@@@std@@QBEAAU?$pair@$$CBHUBonusCashInfo@ioBonusCashManager@@@1@XZ PROC ; std::_Tree_iterator<std::_Tree_val<std::_Tmap_traits<int,ioBonusCashManager::BonusCashInfo,std::less<int>,std::allocator<std::pair<int const ,ioBonusCashManager::BonusCashInfo> >,0> > >::operator*, COMDAT
; _this$ = ecx

; 396  : 		return ((reference)**(_Mybase *)this);

  00000	8b 01		 mov	 eax, DWORD PTR [ecx]
  00002	83 c0 0c	 add	 eax, 12			; 0000000cH

; 397  : 		}

  00005	c3		 ret	 0
??D?$_Tree_iterator@V?$_Tree_val@V?$_Tmap_traits@HUBonusCashInfo@ioBonusCashManager@@U?$less@H@std@@V?$allocator@U?$pair@$$CBHUBonusCashInfo@ioBonusCashManager@@@std@@@4@$0A@@std@@@std@@@std@@QBEAAU?$pair@$$CBHUBonusCashInfo@ioBonusCashManager@@@1@XZ ENDP ; std::_Tree_iterator<std::_Tree_val<std::_Tmap_traits<int,ioBonusCashManager::BonusCashInfo,std::less<int>,std::allocator<std::pair<int const ,ioBonusCashManager::BonusCashInfo> >,0> > >::operator*
_TEXT	ENDS
PUBLIC	??E?$_Tree_const_iterator@V?$_Tree_val@V?$_Tmap_traits@HUBonusCashInfo@ioBonusCashManager@@U?$less@H@std@@V?$allocator@U?$pair@$$CBHUBonusCashInfo@ioBonusCashManager@@@std@@@4@$0A@@std@@@std@@@std@@QAEAAV01@XZ ; std::_Tree_const_iterator<std::_Tree_val<std::_Tmap_traits<int,ioBonusCashManager::BonusCashInfo,std::less<int>,std::allocator<std::pair<int const ,ioBonusCashManager::BonusCashInfo> >,0> > >::operator++
; Function compile flags: /Ogsp
;	COMDAT ??E?$_Tree_const_iterator@V?$_Tree_val@V?$_Tmap_traits@HUBonusCashInfo@ioBonusCashManager@@U?$less@H@std@@V?$allocator@U?$pair@$$CBHUBonusCashInfo@ioBonusCashManager@@@std@@@4@$0A@@std@@@std@@@std@@QAEAAV01@XZ
_TEXT	SEGMENT
??E?$_Tree_const_iterator@V?$_Tree_val@V?$_Tmap_traits@HUBonusCashInfo@ioBonusCashManager@@U?$less@H@std@@V?$allocator@U?$pair@$$CBHUBonusCashInfo@ioBonusCashManager@@@std@@@4@$0A@@std@@@std@@@std@@QAEAAV01@XZ PROC ; std::_Tree_const_iterator<std::_Tree_val<std::_Tmap_traits<int,ioBonusCashManager::BonusCashInfo,std::less<int>,std::allocator<std::pair<int const ,ioBonusCashManager::BonusCashInfo> >,0> > >::operator++, COMDAT
; _this$ = ecx

; 250  : 		{	// preincrement

  00000	56		 push	 esi
  00001	8b f1		 mov	 esi, ecx

; 251  :  #if _ITERATOR_DEBUG_LEVEL == 2
; 252  : 		if (this->_Getcont() == 0
; 253  : 			|| this->_Ptr == 0
; 254  : 			|| _Mytree::_Isnil(this->_Ptr))
; 255  : 			{	// report error
; 256  : 			_DEBUG_ERROR("map/set iterator not incrementable");
; 257  : 			_SCL_SECURE_OUT_OF_RANGE;
; 258  : 			}
; 259  : 
; 260  :  #elif _ITERATOR_DEBUG_LEVEL == 1
; 261  : 		_SCL_SECURE_VALIDATE(this->_Getcont() != 0 && this->_Ptr != 0);
; 262  : 		_SCL_SECURE_VALIDATE_RANGE(!_Mytree::_Isnil(this->_Ptr));
; 263  :  #endif /* _ITERATOR_DEBUG_LEVEL */
; 264  : 
; 265  : 		++(*(_Mybase *)this);

  00003	e8 00 00 00 00	 call	 ??E?$_Tree_unchecked_const_iterator@V?$_Tree_val@V?$_Tmap_traits@HUBonusCashInfo@ioBonusCashManager@@U?$less@H@std@@V?$allocator@U?$pair@$$CBHUBonusCashInfo@ioBonusCashManager@@@std@@@4@$0A@@std@@@std@@U_Iterator_base0@2@@std@@QAEAAV01@XZ ; std::_Tree_unchecked_const_iterator<std::_Tree_val<std::_Tmap_traits<int,ioBonusCashManager::BonusCashInfo,std::less<int>,std::allocator<std::pair<int const ,ioBonusCashManager::BonusCashInfo> >,0> >,std::_Iterator_base0>::operator++

; 266  : 		return (*this);

  00008	8b c6		 mov	 eax, esi
  0000a	5e		 pop	 esi

; 267  : 		}

  0000b	c3		 ret	 0
??E?$_Tree_const_iterator@V?$_Tree_val@V?$_Tmap_traits@HUBonusCashInfo@ioBonusCashManager@@U?$less@H@std@@V?$allocator@U?$pair@$$CBHUBonusCashInfo@ioBonusCashManager@@@std@@@4@$0A@@std@@@std@@@std@@QAEAAV01@XZ ENDP ; std::_Tree_const_iterator<std::_Tree_val<std::_Tmap_traits<int,ioBonusCashManager::BonusCashInfo,std::less<int>,std::allocator<std::pair<int const ,ioBonusCashManager::BonusCashInfo> >,0> > >::operator++
_TEXT	ENDS
PUBLIC	?_Lbound@?$_Tree@V?$_Tmap_traits@HUBonusCashInfo@ioBonusCashManager@@U?$less@H@std@@V?$allocator@U?$pair@$$CBHUBonusCashInfo@ioBonusCashManager@@@std@@@4@$0A@@std@@@std@@IBEPAU_Node@?$_Tree_nod@V?$_Tmap_traits@HUBonusCashInfo@ioBonusCashManager@@U?$less@H@std@@V?$allocator@U?$pair@$$CBHUBonusCashInfo@ioBonusCashManager@@@std@@@4@$0A@@std@@@2@ABH@Z ; std::_Tree<std::_Tmap_traits<int,ioBonusCashManager::BonusCashInfo,std::less<int>,std::allocator<std::pair<int const ,ioBonusCashManager::BonusCashInfo> >,0> >::_Lbound
; Function compile flags: /Ogsp
;	COMDAT ?_Lbound@?$_Tree@V?$_Tmap_traits@HUBonusCashInfo@ioBonusCashManager@@U?$less@H@std@@V?$allocator@U?$pair@$$CBHUBonusCashInfo@ioBonusCashManager@@@std@@@4@$0A@@std@@@std@@IBEPAU_Node@?$_Tree_nod@V?$_Tmap_traits@HUBonusCashInfo@ioBonusCashManager@@U?$less@H@std@@V?$allocator@U?$pair@$$CBHUBonusCashInfo@ioBonusCashManager@@@std@@@4@$0A@@std@@@2@ABH@Z
_TEXT	SEGMENT
__Keyval$ = 8						; size = 4
?_Lbound@?$_Tree@V?$_Tmap_traits@HUBonusCashInfo@ioBonusCashManager@@U?$less@H@std@@V?$allocator@U?$pair@$$CBHUBonusCashInfo@ioBonusCashManager@@@std@@@4@$0A@@std@@@std@@IBEPAU_Node@?$_Tree_nod@V?$_Tmap_traits@HUBonusCashInfo@ioBonusCashManager@@U?$less@H@std@@V?$allocator@U?$pair@$$CBHUBonusCashInfo@ioBonusCashManager@@@std@@@4@$0A@@std@@@2@ABH@Z PROC ; std::_Tree<std::_Tmap_traits<int,ioBonusCashManager::BonusCashInfo,std::less<int>,std::allocator<std::pair<int const ,ioBonusCashManager::BonusCashInfo> >,0> >::_Lbound, COMDAT
; _this$ = ecx

; 1724 : 		{	// find leftmost node not less than _Keyval

  00000	55		 push	 ebp
  00001	8b ec		 mov	 ebp, esp

; 1725 : 		_Nodeptr _Pnode = _Root();

  00003	8b 41 04	 mov	 eax, DWORD PTR [ecx+4]
  00006	8b 48 04	 mov	 ecx, DWORD PTR [eax+4]

; 1726 : 		_Nodeptr _Wherenode = this->_Myhead;	// end() if search fails
; 1727 : 
; 1728 : 		while (!this->_Isnil(_Pnode))

  00009	80 79 21 00	 cmp	 BYTE PTR [ecx+33], 0
  0000d	75 19		 jne	 SHORT $LN3@Lbound
  0000f	8b 55 08	 mov	 edx, DWORD PTR __Keyval$[ebp]
  00012	8b 12		 mov	 edx, DWORD PTR [edx]
$LL4@Lbound:

; 1729 : 			if (_DEBUG_LT_PRED(this->comp, this->_Key(_Pnode), _Keyval))

  00014	39 51 0c	 cmp	 DWORD PTR [ecx+12], edx
  00017	7d 05		 jge	 SHORT $LN2@Lbound

; 1730 : 				_Pnode = this->_Right(_Pnode);	// descend right subtree

  00019	8b 49 08	 mov	 ecx, DWORD PTR [ecx+8]

; 1731 : 			else

  0001c	eb 04		 jmp	 SHORT $LN1@Lbound
$LN2@Lbound:

; 1732 : 				{	// _Pnode not less than _Keyval, remember it
; 1733 : 				_Wherenode = _Pnode;

  0001e	8b c1		 mov	 eax, ecx

; 1734 : 				_Pnode = this->_Left(_Pnode);	// descend left subtree

  00020	8b 09		 mov	 ecx, DWORD PTR [ecx]
$LN1@Lbound:

; 1726 : 		_Nodeptr _Wherenode = this->_Myhead;	// end() if search fails
; 1727 : 
; 1728 : 		while (!this->_Isnil(_Pnode))

  00022	80 79 21 00	 cmp	 BYTE PTR [ecx+33], 0
  00026	74 ec		 je	 SHORT $LL4@Lbound
$LN3@Lbound:

; 1735 : 				}
; 1736 : 
; 1737 : 		return (_Wherenode);	// return best remembered candidate
; 1738 : 		}

  00028	5d		 pop	 ebp
  00029	c2 04 00	 ret	 4
?_Lbound@?$_Tree@V?$_Tmap_traits@HUBonusCashInfo@ioBonusCashManager@@U?$less@H@std@@V?$allocator@U?$pair@$$CBHUBonusCashInfo@ioBonusCashManager@@@std@@@4@$0A@@std@@@std@@IBEPAU_Node@?$_Tree_nod@V?$_Tmap_traits@HUBonusCashInfo@ioBonusCashManager@@U?$less@H@std@@V?$allocator@U?$pair@$$CBHUBonusCashInfo@ioBonusCashManager@@@std@@@4@$0A@@std@@@2@ABH@Z ENDP ; std::_Tree<std::_Tmap_traits<int,ioBonusCashManager::BonusCashInfo,std::less<int>,std::allocator<std::pair<int const ,ioBonusCashManager::BonusCashInfo> >,0> >::_Lbound
_TEXT	ENDS
PUBLIC	?_Lbound@?$_Tree@V?$_Tmap_traits@HUBonusCashInfo@ioBonusCashManager@@U?$less@H@std@@V?$allocator@U?$pair@$$CBHUBonusCashInfo@ioBonusCashManager@@@std@@@4@$0A@@std@@@std@@IAEPAU_Node@?$_Tree_nod@V?$_Tmap_traits@HUBonusCashInfo@ioBonusCashManager@@U?$less@H@std@@V?$allocator@U?$pair@$$CBHUBonusCashInfo@ioBonusCashManager@@@std@@@4@$0A@@std@@@2@ABH@Z ; std::_Tree<std::_Tmap_traits<int,ioBonusCashManager::BonusCashInfo,std::less<int>,std::allocator<std::pair<int const ,ioBonusCashManager::BonusCashInfo> >,0> >::_Lbound
; Function compile flags: /Ogsp
;	COMDAT ?_Lbound@?$_Tree@V?$_Tmap_traits@HUBonusCashInfo@ioBonusCashManager@@U?$less@H@std@@V?$allocator@U?$pair@$$CBHUBonusCashInfo@ioBonusCashManager@@@std@@@4@$0A@@std@@@std@@IAEPAU_Node@?$_Tree_nod@V?$_Tmap_traits@HUBonusCashInfo@ioBonusCashManager@@U?$less@H@std@@V?$allocator@U?$pair@$$CBHUBonusCashInfo@ioBonusCashManager@@@std@@@4@$0A@@std@@@2@ABH@Z
_TEXT	SEGMENT
__Keyval$ = 8						; size = 4
?_Lbound@?$_Tree@V?$_Tmap_traits@HUBonusCashInfo@ioBonusCashManager@@U?$less@H@std@@V?$allocator@U?$pair@$$CBHUBonusCashInfo@ioBonusCashManager@@@std@@@4@$0A@@std@@@std@@IAEPAU_Node@?$_Tree_nod@V?$_Tmap_traits@HUBonusCashInfo@ioBonusCashManager@@U?$less@H@std@@V?$allocator@U?$pair@$$CBHUBonusCashInfo@ioBonusCashManager@@@std@@@4@$0A@@std@@@2@ABH@Z PROC ; std::_Tree<std::_Tmap_traits<int,ioBonusCashManager::BonusCashInfo,std::less<int>,std::allocator<std::pair<int const ,ioBonusCashManager::BonusCashInfo> >,0> >::_Lbound, COMDAT
; _this$ = ecx

; 1741 : 		{	// find leftmost node not less than _Keyval

  00000	55		 push	 ebp
  00001	8b ec		 mov	 ebp, esp

; 1742 : 		_Nodeptr _Pnode = _Root();

  00003	8b 41 04	 mov	 eax, DWORD PTR [ecx+4]
  00006	8b 48 04	 mov	 ecx, DWORD PTR [eax+4]

; 1743 : 		_Nodeptr _Wherenode = this->_Myhead;	// end() if search fails
; 1744 : 
; 1745 : 		while (!this->_Isnil(_Pnode))

  00009	80 79 21 00	 cmp	 BYTE PTR [ecx+33], 0
  0000d	75 19		 jne	 SHORT $LN3@Lbound@2
  0000f	8b 55 08	 mov	 edx, DWORD PTR __Keyval$[ebp]
  00012	8b 12		 mov	 edx, DWORD PTR [edx]
$LL4@Lbound@2:

; 1746 : 			if (_DEBUG_LT_PRED(this->comp, this->_Key(_Pnode), _Keyval))

  00014	39 51 0c	 cmp	 DWORD PTR [ecx+12], edx
  00017	7d 05		 jge	 SHORT $LN2@Lbound@2

; 1747 : 				_Pnode = this->_Right(_Pnode);	// descend right subtree

  00019	8b 49 08	 mov	 ecx, DWORD PTR [ecx+8]

; 1748 : 			else

  0001c	eb 04		 jmp	 SHORT $LN1@Lbound@2
$LN2@Lbound@2:

; 1749 : 				{	// _Pnode not less than _Keyval, remember it
; 1750 : 				_Wherenode = _Pnode;

  0001e	8b c1		 mov	 eax, ecx

; 1751 : 				_Pnode = this->_Left(_Pnode);	// descend left subtree

  00020	8b 09		 mov	 ecx, DWORD PTR [ecx]
$LN1@Lbound@2:

; 1743 : 		_Nodeptr _Wherenode = this->_Myhead;	// end() if search fails
; 1744 : 
; 1745 : 		while (!this->_Isnil(_Pnode))

  00022	80 79 21 00	 cmp	 BYTE PTR [ecx+33], 0
  00026	74 ec		 je	 SHORT $LL4@Lbound@2
$LN3@Lbound@2:

; 1752 : 				}
; 1753 : 
; 1754 : 		return (_Wherenode);	// return best remembered candidate
; 1755 : 		}

  00028	5d		 pop	 ebp
  00029	c2 04 00	 ret	 4
?_Lbound@?$_Tree@V?$_Tmap_traits@HUBonusCashInfo@ioBonusCashManager@@U?$less@H@std@@V?$allocator@U?$pair@$$CBHUBonusCashInfo@ioBonusCashManager@@@std@@@4@$0A@@std@@@std@@IAEPAU_Node@?$_Tree_nod@V?$_Tmap_traits@HUBonusCashInfo@ioBonusCashManager@@U?$less@H@std@@V?$allocator@U?$pair@$$CBHUBonusCashInfo@ioBonusCashManager@@@std@@@4@$0A@@std@@@2@ABH@Z ENDP ; std::_Tree<std::_Tmap_traits<int,ioBonusCashManager::BonusCashInfo,std::less<int>,std::allocator<std::pair<int const ,ioBonusCashManager::BonusCashInfo> >,0> >::_Lbound
_TEXT	ENDS
PUBLIC	??0?$_Tree_unchecked_const_iterator@V?$_Tree_val@V?$_Tmap_traits@HUBonusCashInfo@ioBonusCashManager@@U?$less@H@std@@V?$allocator@U?$pair@$$CBHUBonusCashInfo@ioBonusCashManager@@@std@@@4@$0A@@std@@@std@@U_Iterator_base0@2@@std@@QAE@PAU_Node@?$_Tree_nod@V?$_Tmap_traits@HUBonusCashInfo@ioBonusCashManager@@U?$less@H@std@@V?$allocator@U?$pair@$$CBHUBonusCashInfo@ioBonusCashManager@@@std@@@4@$0A@@std@@@1@PBV?$_Tree_val@V?$_Tmap_traits@HUBonusCashInfo@ioBonusCashManager@@U?$less@H@std@@V?$allocator@U?$pair@$$CBHUBonusCashInfo@ioBonusCashManager@@@std@@@4@$0A@@std@@@1@@Z ; std::_Tree_unchecked_const_iterator<std::_Tree_val<std::_Tmap_traits<int,ioBonusCashManager::BonusCashInfo,std::less<int>,std::allocator<std::pair<int const ,ioBonusCashManager::BonusCashInfo> >,0> >,std::_Iterator_base0>::_Tree_unchecked_const_iterator<std::_Tree_val<std::_Tmap_traits<int,ioBonusCashManager::BonusCashInfo,std::less<int>,std::allocator<std::pair<int const ,ioBonusCashManager::BonusCashInfo> >,0> >,std::_Iterator_base0>
; Function compile flags: /Ogsp
;	COMDAT ??0?$_Tree_unchecked_const_iterator@V?$_Tree_val@V?$_Tmap_traits@HUBonusCashInfo@ioBonusCashManager@@U?$less@H@std@@V?$allocator@U?$pair@$$CBHUBonusCashInfo@ioBonusCashManager@@@std@@@4@$0A@@std@@@std@@U_Iterator_base0@2@@std@@QAE@PAU_Node@?$_Tree_nod@V?$_Tmap_traits@HUBonusCashInfo@ioBonusCashManager@@U?$less@H@std@@V?$allocator@U?$pair@$$CBHUBonusCashInfo@ioBonusCashManager@@@std@@@4@$0A@@std@@@1@PBV?$_Tree_val@V?$_Tmap_traits@HUBonusCashInfo@ioBonusCashManager@@U?$less@H@std@@V?$allocator@U?$pair@$$CBHUBonusCashInfo@ioBonusCashManager@@@std@@@4@$0A@@std@@@1@@Z
_TEXT	SEGMENT
__Pnode$ = 8						; size = 4
__Plist$ = 12						; size = 4
??0?$_Tree_unchecked_const_iterator@V?$_Tree_val@V?$_Tmap_traits@HUBonusCashInfo@ioBonusCashManager@@U?$less@H@std@@V?$allocator@U?$pair@$$CBHUBonusCashInfo@ioBonusCashManager@@@std@@@4@$0A@@std@@@std@@U_Iterator_base0@2@@std@@QAE@PAU_Node@?$_Tree_nod@V?$_Tmap_traits@HUBonusCashInfo@ioBonusCashManager@@U?$less@H@std@@V?$allocator@U?$pair@$$CBHUBonusCashInfo@ioBonusCashManager@@@std@@@4@$0A@@std@@@1@PBV?$_Tree_val@V?$_Tmap_traits@HUBonusCashInfo@ioBonusCashManager@@U?$less@H@std@@V?$allocator@U?$pair@$$CBHUBonusCashInfo@ioBonusCashManager@@@std@@@4@$0A@@std@@@1@@Z PROC ; std::_Tree_unchecked_const_iterator<std::_Tree_val<std::_Tmap_traits<int,ioBonusCashManager::BonusCashInfo,std::less<int>,std::allocator<std::pair<int const ,ioBonusCashManager::BonusCashInfo> >,0> >,std::_Iterator_base0>::_Tree_unchecked_const_iterator<std::_Tree_val<std::_Tmap_traits<int,ioBonusCashManager::BonusCashInfo,std::less<int>,std::allocator<std::pair<int const ,ioBonusCashManager::BonusCashInfo> >,0> >,std::_Iterator_base0>, COMDAT
; _this$ = ecx

; 43   : 		{	// construct with node pointer _Pnode

  00000	55		 push	 ebp
  00001	8b ec		 mov	 ebp, esp
  00003	8b c1		 mov	 eax, ecx
  00005	8b 4d 08	 mov	 ecx, DWORD PTR __Pnode$[ebp]
  00008	89 08		 mov	 DWORD PTR [eax], ecx

; 44   : 		this->_Adopt(_Plist);
; 45   : 		}

  0000a	5d		 pop	 ebp
  0000b	c2 08 00	 ret	 8
??0?$_Tree_unchecked_const_iterator@V?$_Tree_val@V?$_Tmap_traits@HUBonusCashInfo@ioBonusCashManager@@U?$less@H@std@@V?$allocator@U?$pair@$$CBHUBonusCashInfo@ioBonusCashManager@@@std@@@4@$0A@@std@@@std@@U_Iterator_base0@2@@std@@QAE@PAU_Node@?$_Tree_nod@V?$_Tmap_traits@HUBonusCashInfo@ioBonusCashManager@@U?$less@H@std@@V?$allocator@U?$pair@$$CBHUBonusCashInfo@ioBonusCashManager@@@std@@@4@$0A@@std@@@1@PBV?$_Tree_val@V?$_Tmap_traits@HUBonusCashInfo@ioBonusCashManager@@U?$less@H@std@@V?$allocator@U?$pair@$$CBHUBonusCashInfo@ioBonusCashManager@@@std@@@4@$0A@@std@@@1@@Z ENDP ; std::_Tree_unchecked_const_iterator<std::_Tree_val<std::_Tmap_traits<int,ioBonusCashManager::BonusCashInfo,std::less<int>,std::allocator<std::pair<int const ,ioBonusCashManager::BonusCashInfo> >,0> >,std::_Iterator_base0>::_Tree_unchecked_const_iterator<std::_Tree_val<std::_Tmap_traits<int,ioBonusCashManager::BonusCashInfo,std::less<int>,std::allocator<std::pair<int const ,ioBonusCashManager::BonusCashInfo> >,0> >,std::_Iterator_base0>
_TEXT	ENDS
PUBLIC	??0?$_Tree_nod@V?$_Tmap_traits@HUBonusCashInfo@ioBonusCashManager@@U?$less@H@std@@V?$allocator@U?$pair@$$CBHUBonusCashInfo@ioBonusCashManager@@@std@@@4@$0A@@std@@@std@@QAE@ABU?$less@H@1@V?$allocator@U?$pair@$$CBHUBonusCashInfo@ioBonusCashManager@@@std@@@1@@Z ; std::_Tree_nod<std::_Tmap_traits<int,ioBonusCashManager::BonusCashInfo,std::less<int>,std::allocator<std::pair<int const ,ioBonusCashManager::BonusCashInfo> >,0> >::_Tree_nod<std::_Tmap_traits<int,ioBonusCashManager::BonusCashInfo,std::less<int>,std::allocator<std::pair<int const ,ioBonusCashManager::BonusCashInfo> >,0> >
; Function compile flags: /Ogsp
;	COMDAT ??0?$_Tree_nod@V?$_Tmap_traits@HUBonusCashInfo@ioBonusCashManager@@U?$less@H@std@@V?$allocator@U?$pair@$$CBHUBonusCashInfo@ioBonusCashManager@@@std@@@4@$0A@@std@@@std@@QAE@ABU?$less@H@1@V?$allocator@U?$pair@$$CBHUBonusCashInfo@ioBonusCashManager@@@std@@@1@@Z
_TEXT	SEGMENT
__Parg$ = 8						; size = 4
__Al$ = 12						; size = 1
??0?$_Tree_nod@V?$_Tmap_traits@HUBonusCashInfo@ioBonusCashManager@@U?$less@H@std@@V?$allocator@U?$pair@$$CBHUBonusCashInfo@ioBonusCashManager@@@std@@@4@$0A@@std@@@std@@QAE@ABU?$less@H@1@V?$allocator@U?$pair@$$CBHUBonusCashInfo@ioBonusCashManager@@@std@@@1@@Z PROC ; std::_Tree_nod<std::_Tmap_traits<int,ioBonusCashManager::BonusCashInfo,std::less<int>,std::allocator<std::pair<int const ,ioBonusCashManager::BonusCashInfo> >,0> >::_Tree_nod<std::_Tmap_traits<int,ioBonusCashManager::BonusCashInfo,std::less<int>,std::allocator<std::pair<int const ,ioBonusCashManager::BonusCashInfo> >,0> >, COMDAT
; _this$ = ecx

; 482  : 		{	// construct traits from _Parg and allocators from _Al

  00000	8b c1		 mov	 eax, ecx

; 483  : 		}

  00002	c2 08 00	 ret	 8
??0?$_Tree_nod@V?$_Tmap_traits@HUBonusCashInfo@ioBonusCashManager@@U?$less@H@std@@V?$allocator@U?$pair@$$CBHUBonusCashInfo@ioBonusCashManager@@@std@@@4@$0A@@std@@@std@@QAE@ABU?$less@H@1@V?$allocator@U?$pair@$$CBHUBonusCashInfo@ioBonusCashManager@@@std@@@1@@Z ENDP ; std::_Tree_nod<std::_Tmap_traits<int,ioBonusCashManager::BonusCashInfo,std::less<int>,std::allocator<std::pair<int const ,ioBonusCashManager::BonusCashInfo> >,0> >::_Tree_nod<std::_Tmap_traits<int,ioBonusCashManager::BonusCashInfo,std::less<int>,std::allocator<std::pair<int const ,ioBonusCashManager::BonusCashInfo> >,0> >
_TEXT	ENDS
PUBLIC	?allocate@?$allocator@U_Node@?$_Tree_nod@V?$_Tmap_traits@HUBonusCashInfo@ioBonusCashManager@@U?$less@H@std@@V?$allocator@U?$pair@$$CBHUBonusCashInfo@ioBonusCashManager@@@std@@@4@$0A@@std@@@std@@@std@@QAEPAU_Node@?$_Tree_nod@V?$_Tmap_traits@HUBonusCashInfo@ioBonusCashManager@@U?$less@H@std@@V?$allocator@U?$pair@$$CBHUBonusCashInfo@ioBonusCashManager@@@std@@@4@$0A@@std@@@2@I@Z ; std::allocator<std::_Tree_nod<std::_Tmap_traits<int,ioBonusCashManager::BonusCashInfo,std::less<int>,std::allocator<std::pair<int const ,ioBonusCashManager::BonusCashInfo> >,0> >::_Node>::allocate
; Function compile flags: /Ogsp
; File c:\program files (x86)\microsoft visual studio 10.0\vc\include\xmemory
;	COMDAT ?allocate@?$allocator@U_Node@?$_Tree_nod@V?$_Tmap_traits@HUBonusCashInfo@ioBonusCashManager@@U?$less@H@std@@V?$allocator@U?$pair@$$CBHUBonusCashInfo@ioBonusCashManager@@@std@@@4@$0A@@std@@@std@@@std@@QAEPAU_Node@?$_Tree_nod@V?$_Tmap_traits@HUBonusCashInfo@ioBonusCashManager@@U?$less@H@std@@V?$allocator@U?$pair@$$CBHUBonusCashInfo@ioBonusCashManager@@@std@@@4@$0A@@std@@@2@I@Z
_TEXT	SEGMENT
__Count$ = 8						; size = 4
?allocate@?$allocator@U_Node@?$_Tree_nod@V?$_Tmap_traits@HUBonusCashInfo@ioBonusCashManager@@U?$less@H@std@@V?$allocator@U?$pair@$$CBHUBonusCashInfo@ioBonusCashManager@@@std@@@4@$0A@@std@@@std@@@std@@QAEPAU_Node@?$_Tree_nod@V?$_Tmap_traits@HUBonusCashInfo@ioBonusCashManager@@U?$less@H@std@@V?$allocator@U?$pair@$$CBHUBonusCashInfo@ioBonusCashManager@@@std@@@4@$0A@@std@@@2@I@Z PROC ; std::allocator<std::_Tree_nod<std::_Tmap_traits<int,ioBonusCashManager::BonusCashInfo,std::less<int>,std::allocator<std::pair<int const ,ioBonusCashManager::BonusCashInfo> >,0> >::_Node>::allocate, COMDAT
; _this$ = ecx

; 186  : 		{	// allocate array of _Count elements

  00000	55		 push	 ebp
  00001	8b ec		 mov	 ebp, esp

; 187  : 		return (_Allocate(_Count, (pointer)0));

  00003	6a 00		 push	 0
  00005	ff 75 08	 push	 DWORD PTR __Count$[ebp]
  00008	e8 00 00 00 00	 call	 ??$_Allocate@U_Node@?$_Tree_nod@V?$_Tmap_traits@HUBonusCashInfo@ioBonusCashManager@@U?$less@H@std@@V?$allocator@U?$pair@$$CBHUBonusCashInfo@ioBonusCashManager@@@std@@@4@$0A@@std@@@std@@@std@@YAPAU_Node@?$_Tree_nod@V?$_Tmap_traits@HUBonusCashInfo@ioBonusCashManager@@U?$less@H@std@@V?$allocator@U?$pair@$$CBHUBonusCashInfo@ioBonusCashManager@@@std@@@4@$0A@@std@@@0@IPAU120@@Z ; std::_Allocate<std::_Tree_nod<std::_Tmap_traits<int,ioBonusCashManager::BonusCashInfo,std::less<int>,std::allocator<std::pair<int const ,ioBonusCashManager::BonusCashInfo> >,0> >::_Node>
  0000d	59		 pop	 ecx
  0000e	59		 pop	 ecx

; 188  : 		}

  0000f	5d		 pop	 ebp
  00010	c2 04 00	 ret	 4
?allocate@?$allocator@U_Node@?$_Tree_nod@V?$_Tmap_traits@HUBonusCashInfo@ioBonusCashManager@@U?$less@H@std@@V?$allocator@U?$pair@$$CBHUBonusCashInfo@ioBonusCashManager@@@std@@@4@$0A@@std@@@std@@@std@@QAEPAU_Node@?$_Tree_nod@V?$_Tmap_traits@HUBonusCashInfo@ioBonusCashManager@@U?$less@H@std@@V?$allocator@U?$pair@$$CBHUBonusCashInfo@ioBonusCashManager@@@std@@@4@$0A@@std@@@2@I@Z ENDP ; std::allocator<std::_Tree_nod<std::_Tmap_traits<int,ioBonusCashManager::BonusCashInfo,std::less<int>,std::allocator<std::pair<int const ,ioBonusCashManager::BonusCashInfo> >,0> >::_Node>::allocate
_TEXT	ENDS
PUBLIC	??$?0ABHAAUBonusCashInfo@ioBonusCashManager@@@?$pair@$$CBHUBonusCashInfo@ioBonusCashManager@@@std@@QAE@ABHAAUBonusCashInfo@ioBonusCashManager@@@Z ; std::pair<int const ,ioBonusCashManager::BonusCashInfo>::pair<int const ,ioBonusCashManager::BonusCashInfo><int const &,ioBonusCashManager::BonusCashInfo &>
; Function compile flags: /Ogsp
; File c:\program files (x86)\microsoft visual studio 10.0\vc\include\utility
;	COMDAT ??$?0ABHAAUBonusCashInfo@ioBonusCashManager@@@?$pair@$$CBHUBonusCashInfo@ioBonusCashManager@@@std@@QAE@ABHAAUBonusCashInfo@ioBonusCashManager@@@Z
_TEXT	SEGMENT
__Val1$ = 8						; size = 4
__Val2$ = 12						; size = 4
??$?0ABHAAUBonusCashInfo@ioBonusCashManager@@@?$pair@$$CBHUBonusCashInfo@ioBonusCashManager@@@std@@QAE@ABHAAUBonusCashInfo@ioBonusCashManager@@@Z PROC ; std::pair<int const ,ioBonusCashManager::BonusCashInfo>::pair<int const ,ioBonusCashManager::BonusCashInfo><int const &,ioBonusCashManager::BonusCashInfo &>, COMDAT
; _this$ = ecx

; 247  : 		{	// construct from moved values

  00000	55		 push	 ebp
  00001	8b ec		 mov	 ebp, esp
  00003	56		 push	 esi
  00004	8b 75 0c	 mov	 esi, DWORD PTR __Val2$[ebp]
  00007	57		 push	 edi
  00008	8b c1		 mov	 eax, ecx
  0000a	8b 4d 08	 mov	 ecx, DWORD PTR __Val1$[ebp]
  0000d	8b 09		 mov	 ecx, DWORD PTR [ecx]
  0000f	89 08		 mov	 DWORD PTR [eax], ecx
  00011	8d 78 04	 lea	 edi, DWORD PTR [eax+4]
  00014	a5		 movsd
  00015	a5		 movsd
  00016	a5		 movsd
  00017	a5		 movsd
  00018	5f		 pop	 edi
  00019	5e		 pop	 esi

; 248  : 		}

  0001a	5d		 pop	 ebp
  0001b	c2 08 00	 ret	 8
??$?0ABHAAUBonusCashInfo@ioBonusCashManager@@@?$pair@$$CBHUBonusCashInfo@ioBonusCashManager@@@std@@QAE@ABHAAUBonusCashInfo@ioBonusCashManager@@@Z ENDP ; std::pair<int const ,ioBonusCashManager::BonusCashInfo>::pair<int const ,ioBonusCashManager::BonusCashInfo><int const &,ioBonusCashManager::BonusCashInfo &>
_TEXT	ENDS
PUBLIC	?destroy@?$allocator@U?$pair@$$CBHUBonusCashInfo@ioBonusCashManager@@@std@@@std@@QAEXPAU?$pair@$$CBHUBonusCashInfo@ioBonusCashManager@@@2@@Z ; std::allocator<std::pair<int const ,ioBonusCashManager::BonusCashInfo> >::destroy
; Function compile flags: /Ogsp
; File c:\program files (x86)\microsoft visual studio 10.0\vc\include\xmemory
;	COMDAT ?destroy@?$allocator@U?$pair@$$CBHUBonusCashInfo@ioBonusCashManager@@@std@@@std@@QAEXPAU?$pair@$$CBHUBonusCashInfo@ioBonusCashManager@@@2@@Z
_TEXT	SEGMENT
__Ptr$ = 8						; size = 4
?destroy@?$allocator@U?$pair@$$CBHUBonusCashInfo@ioBonusCashManager@@@std@@@std@@QAEXPAU?$pair@$$CBHUBonusCashInfo@ioBonusCashManager@@@2@@Z PROC ; std::allocator<std::pair<int const ,ioBonusCashManager::BonusCashInfo> >::destroy, COMDAT
; _this$ = ecx

; 213  : 		_Destroy(_Ptr);
; 214  : 		}

  00000	c2 04 00	 ret	 4
?destroy@?$allocator@U?$pair@$$CBHUBonusCashInfo@ioBonusCashManager@@@std@@@std@@QAEXPAU?$pair@$$CBHUBonusCashInfo@ioBonusCashManager@@@2@@Z ENDP ; std::allocator<std::pair<int const ,ioBonusCashManager::BonusCashInfo> >::destroy
_TEXT	ENDS
PUBLIC	?max_size@?$_Tree@V?$_Tmap_traits@HUBonusCashInfo@ioBonusCashManager@@U?$less@H@std@@V?$allocator@U?$pair@$$CBHUBonusCashInfo@ioBonusCashManager@@@std@@@4@$0A@@std@@@std@@QBEIXZ ; std::_Tree<std::_Tmap_traits<int,ioBonusCashManager::BonusCashInfo,std::less<int>,std::allocator<std::pair<int const ,ioBonusCashManager::BonusCashInfo> >,0> >::max_size
; Function compile flags: /Ogsp
; File c:\program files (x86)\microsoft visual studio 10.0\vc\include\xtree
;	COMDAT ?max_size@?$_Tree@V?$_Tmap_traits@HUBonusCashInfo@ioBonusCashManager@@U?$less@H@std@@V?$allocator@U?$pair@$$CBHUBonusCashInfo@ioBonusCashManager@@@std@@@4@$0A@@std@@@std@@QBEIXZ
_TEXT	SEGMENT
?max_size@?$_Tree@V?$_Tmap_traits@HUBonusCashInfo@ioBonusCashManager@@U?$less@H@std@@V?$allocator@U?$pair@$$CBHUBonusCashInfo@ioBonusCashManager@@@std@@@4@$0A@@std@@@std@@QBEIXZ PROC ; std::_Tree<std::_Tmap_traits<int,ioBonusCashManager::BonusCashInfo,std::less<int>,std::allocator<std::pair<int const ,ioBonusCashManager::BonusCashInfo> >,0> >::max_size, COMDAT
; _this$ = ecx

; 874  : 		return (this->_Alval.max_size());

  00000	b8 cc cc cc 0c	 mov	 eax, 214748364		; 0cccccccH

; 875  : 		}

  00005	c3		 ret	 0
?max_size@?$_Tree@V?$_Tmap_traits@HUBonusCashInfo@ioBonusCashManager@@U?$less@H@std@@V?$allocator@U?$pair@$$CBHUBonusCashInfo@ioBonusCashManager@@@std@@@4@$0A@@std@@@std@@QBEIXZ ENDP ; std::_Tree<std::_Tmap_traits<int,ioBonusCashManager::BonusCashInfo,std::less<int>,std::allocator<std::pair<int const ,ioBonusCashManager::BonusCashInfo> >,0> >::max_size
_TEXT	ENDS
PUBLIC	??F?$_Tree_const_iterator@V?$_Tree_val@V?$_Tmap_traits@HUBonusCashInfo@ioBonusCashManager@@U?$less@H@std@@V?$allocator@U?$pair@$$CBHUBonusCashInfo@ioBonusCashManager@@@std@@@4@$0A@@std@@@std@@@std@@QAEAAV01@XZ ; std::_Tree_const_iterator<std::_Tree_val<std::_Tmap_traits<int,ioBonusCashManager::BonusCashInfo,std::less<int>,std::allocator<std::pair<int const ,ioBonusCashManager::BonusCashInfo> >,0> > >::operator--
; Function compile flags: /Ogsp
;	COMDAT ??F?$_Tree_const_iterator@V?$_Tree_val@V?$_Tmap_traits@HUBonusCashInfo@ioBonusCashManager@@U?$less@H@std@@V?$allocator@U?$pair@$$CBHUBonusCashInfo@ioBonusCashManager@@@std@@@4@$0A@@std@@@std@@@std@@QAEAAV01@XZ
_TEXT	SEGMENT
??F?$_Tree_const_iterator@V?$_Tree_val@V?$_Tmap_traits@HUBonusCashInfo@ioBonusCashManager@@U?$less@H@std@@V?$allocator@U?$pair@$$CBHUBonusCashInfo@ioBonusCashManager@@@std@@@4@$0A@@std@@@std@@@std@@QAEAAV01@XZ PROC ; std::_Tree_const_iterator<std::_Tree_val<std::_Tmap_traits<int,ioBonusCashManager::BonusCashInfo,std::less<int>,std::allocator<std::pair<int const ,ioBonusCashManager::BonusCashInfo> >,0> > >::operator--, COMDAT
; _this$ = ecx

; 277  : 		{	// predecrement

  00000	56		 push	 esi
  00001	8b f1		 mov	 esi, ecx

; 278  :  #if _ITERATOR_DEBUG_LEVEL == 2
; 279  : 		if (this->_Getcont() == 0
; 280  : 			|| this->_Ptr == 0)
; 281  : 			{	// report error
; 282  : 			_DEBUG_ERROR("map/set iterator not decrementable");
; 283  : 			_SCL_SECURE_OUT_OF_RANGE;
; 284  : 			}
; 285  : 
; 286  : 		_Nodeptr _Ptrsav = this->_Ptr;
; 287  : 		--(*(_Mybase *)this);
; 288  : 		if (_Ptrsav == this->_Ptr)
; 289  : 			{	// report error
; 290  : 			_DEBUG_ERROR("map/set iterator not decrementable");
; 291  : 			_SCL_SECURE_OUT_OF_RANGE;
; 292  : 			}
; 293  : 
; 294  :  #elif _ITERATOR_DEBUG_LEVEL == 1
; 295  : 		_SCL_SECURE_VALIDATE(this->_Getcont() != 0 && this->_Ptr != 0);
; 296  : 
; 297  : 		_Nodeptr _Ptrsav = this->_Ptr;
; 298  : 		--(*(_Mybase *)this);
; 299  : 		_SCL_SECURE_VALIDATE(_Ptrsav != this->_Ptr);
; 300  : 
; 301  :  #else /* _ITERATOR_DEBUG_LEVEL == 0 */
; 302  : 		--(*(_Mybase *)this);

  00003	e8 00 00 00 00	 call	 ??F?$_Tree_unchecked_const_iterator@V?$_Tree_val@V?$_Tmap_traits@HUBonusCashInfo@ioBonusCashManager@@U?$less@H@std@@V?$allocator@U?$pair@$$CBHUBonusCashInfo@ioBonusCashManager@@@std@@@4@$0A@@std@@@std@@U_Iterator_base0@2@@std@@QAEAAV01@XZ ; std::_Tree_unchecked_const_iterator<std::_Tree_val<std::_Tmap_traits<int,ioBonusCashManager::BonusCashInfo,std::less<int>,std::allocator<std::pair<int const ,ioBonusCashManager::BonusCashInfo> >,0> >,std::_Iterator_base0>::operator--

; 303  :  #endif /* _ITERATOR_DEBUG_LEVEL */
; 304  : 
; 305  : 		return (*this);

  00008	8b c6		 mov	 eax, esi
  0000a	5e		 pop	 esi

; 306  : 		}

  0000b	c3		 ret	 0
??F?$_Tree_const_iterator@V?$_Tree_val@V?$_Tmap_traits@HUBonusCashInfo@ioBonusCashManager@@U?$less@H@std@@V?$allocator@U?$pair@$$CBHUBonusCashInfo@ioBonusCashManager@@@std@@@4@$0A@@std@@@std@@@std@@QAEAAV01@XZ ENDP ; std::_Tree_const_iterator<std::_Tree_val<std::_Tmap_traits<int,ioBonusCashManager::BonusCashInfo,std::less<int>,std::allocator<std::pair<int const ,ioBonusCashManager::BonusCashInfo> >,0> > >::operator--
_TEXT	ENDS
PUBLIC	??0?$_Pair_base@V?$_Tree_iterator@V?$_Tree_val@V?$_Tmap_traits@HUBonusCashInfo@ioBonusCashManager@@U?$less@H@std@@V?$allocator@U?$pair@$$CBHUBonusCashInfo@ioBonusCashManager@@@std@@@4@$0A@@std@@@std@@@std@@_N@std@@QAE@$$QAV?$_Tree_iterator@V?$_Tree_val@V?$_Tmap_traits@HUBonusCashInfo@ioBonusCashManager@@U?$less@H@std@@V?$allocator@U?$pair@$$CBHUBonusCashInfo@ioBonusCashManager@@@std@@@4@$0A@@std@@@std@@@1@$$QA_N@Z ; std::_Pair_base<std::_Tree_iterator<std::_Tree_val<std::_Tmap_traits<int,ioBonusCashManager::BonusCashInfo,std::less<int>,std::allocator<std::pair<int const ,ioBonusCashManager::BonusCashInfo> >,0> > >,bool>::_Pair_base<std::_Tree_iterator<std::_Tree_val<std::_Tmap_traits<int,ioBonusCashManager::BonusCashInfo,std::less<int>,std::allocator<std::pair<int const ,ioBonusCashManager::BonusCashInfo> >,0> > >,bool>
; Function compile flags: /Ogsp
; File c:\program files (x86)\microsoft visual studio 10.0\vc\include\utility
;	COMDAT ??0?$_Pair_base@V?$_Tree_iterator@V?$_Tree_val@V?$_Tmap_traits@HUBonusCashInfo@ioBonusCashManager@@U?$less@H@std@@V?$allocator@U?$pair@$$CBHUBonusCashInfo@ioBonusCashManager@@@std@@@4@$0A@@std@@@std@@@std@@_N@std@@QAE@$$QAV?$_Tree_iterator@V?$_Tree_val@V?$_Tmap_traits@HUBonusCashInfo@ioBonusCashManager@@U?$less@H@std@@V?$allocator@U?$pair@$$CBHUBonusCashInfo@ioBonusCashManager@@@std@@@4@$0A@@std@@@std@@@1@$$QA_N@Z
_TEXT	SEGMENT
__Val1$ = 8						; size = 4
__Val2$ = 12						; size = 4
??0?$_Pair_base@V?$_Tree_iterator@V?$_Tree_val@V?$_Tmap_traits@HUBonusCashInfo@ioBonusCashManager@@U?$less@H@std@@V?$allocator@U?$pair@$$CBHUBonusCashInfo@ioBonusCashManager@@@std@@@4@$0A@@std@@@std@@@std@@_N@std@@QAE@$$QAV?$_Tree_iterator@V?$_Tree_val@V?$_Tmap_traits@HUBonusCashInfo@ioBonusCashManager@@U?$less@H@std@@V?$allocator@U?$pair@$$CBHUBonusCashInfo@ioBonusCashManager@@@std@@@4@$0A@@std@@@std@@@1@$$QA_N@Z PROC ; std::_Pair_base<std::_Tree_iterator<std::_Tree_val<std::_Tmap_traits<int,ioBonusCashManager::BonusCashInfo,std::less<int>,std::allocator<std::pair<int const ,ioBonusCashManager::BonusCashInfo> >,0> > >,bool>::_Pair_base<std::_Tree_iterator<std::_Tree_val<std::_Tmap_traits<int,ioBonusCashManager::BonusCashInfo,std::less<int>,std::allocator<std::pair<int const ,ioBonusCashManager::BonusCashInfo> >,0> > >,bool>, COMDAT
; _this$ = ecx

; 145  : 		{	// construct from specified values

  00000	55		 push	 ebp
  00001	8b ec		 mov	 ebp, esp
  00003	8b c1		 mov	 eax, ecx
  00005	8b 4d 08	 mov	 ecx, DWORD PTR __Val1$[ebp]
  00008	8b 09		 mov	 ecx, DWORD PTR [ecx]
  0000a	89 08		 mov	 DWORD PTR [eax], ecx
  0000c	8b 4d 0c	 mov	 ecx, DWORD PTR __Val2$[ebp]
  0000f	8a 09		 mov	 cl, BYTE PTR [ecx]
  00011	88 48 04	 mov	 BYTE PTR [eax+4], cl

; 146  : 		}

  00014	5d		 pop	 ebp
  00015	c2 08 00	 ret	 8
??0?$_Pair_base@V?$_Tree_iterator@V?$_Tree_val@V?$_Tmap_traits@HUBonusCashInfo@ioBonusCashManager@@U?$less@H@std@@V?$allocator@U?$pair@$$CBHUBonusCashInfo@ioBonusCashManager@@@std@@@4@$0A@@std@@@std@@@std@@_N@std@@QAE@$$QAV?$_Tree_iterator@V?$_Tree_val@V?$_Tmap_traits@HUBonusCashInfo@ioBonusCashManager@@U?$less@H@std@@V?$allocator@U?$pair@$$CBHUBonusCashInfo@ioBonusCashManager@@@std@@@4@$0A@@std@@@std@@@1@$$QA_N@Z ENDP ; std::_Pair_base<std::_Tree_iterator<std::_Tree_val<std::_Tmap_traits<int,ioBonusCashManager::BonusCashInfo,std::less<int>,std::allocator<std::pair<int const ,ioBonusCashManager::BonusCashInfo> >,0> > >,bool>::_Pair_base<std::_Tree_iterator<std::_Tree_val<std::_Tmap_traits<int,ioBonusCashManager::BonusCashInfo,std::less<int>,std::allocator<std::pair<int const ,ioBonusCashManager::BonusCashInfo> >,0> > >,bool>
_TEXT	ENDS
PUBLIC	??$?0AAHAAUBonusCashInfo@ioBonusCashManager@@@?$_Pair_base@$$CBHUBonusCashInfo@ioBonusCashManager@@@std@@QAE@AAHAAUBonusCashInfo@ioBonusCashManager@@@Z ; std::_Pair_base<int const ,ioBonusCashManager::BonusCashInfo>::_Pair_base<int const ,ioBonusCashManager::BonusCashInfo><int &,ioBonusCashManager::BonusCashInfo &>
; Function compile flags: /Ogsp
;	COMDAT ??$?0AAHAAUBonusCashInfo@ioBonusCashManager@@@?$_Pair_base@$$CBHUBonusCashInfo@ioBonusCashManager@@@std@@QAE@AAHAAUBonusCashInfo@ioBonusCashManager@@@Z
_TEXT	SEGMENT
__Val1$ = 8						; size = 4
__Val2$ = 12						; size = 4
??$?0AAHAAUBonusCashInfo@ioBonusCashManager@@@?$_Pair_base@$$CBHUBonusCashInfo@ioBonusCashManager@@@std@@QAE@AAHAAUBonusCashInfo@ioBonusCashManager@@@Z PROC ; std::_Pair_base<int const ,ioBonusCashManager::BonusCashInfo>::_Pair_base<int const ,ioBonusCashManager::BonusCashInfo><int &,ioBonusCashManager::BonusCashInfo &>, COMDAT
; _this$ = ecx

; 163  : 		{	// construct from moved values

  00000	55		 push	 ebp
  00001	8b ec		 mov	 ebp, esp
  00003	56		 push	 esi
  00004	8b 75 0c	 mov	 esi, DWORD PTR __Val2$[ebp]
  00007	57		 push	 edi
  00008	8b c1		 mov	 eax, ecx
  0000a	8b 4d 08	 mov	 ecx, DWORD PTR __Val1$[ebp]
  0000d	8b 09		 mov	 ecx, DWORD PTR [ecx]
  0000f	89 08		 mov	 DWORD PTR [eax], ecx
  00011	8d 78 04	 lea	 edi, DWORD PTR [eax+4]
  00014	a5		 movsd
  00015	a5		 movsd
  00016	a5		 movsd
  00017	a5		 movsd
  00018	5f		 pop	 edi
  00019	5e		 pop	 esi

; 164  : 		}

  0001a	5d		 pop	 ebp
  0001b	c2 08 00	 ret	 8
??$?0AAHAAUBonusCashInfo@ioBonusCashManager@@@?$_Pair_base@$$CBHUBonusCashInfo@ioBonusCashManager@@@std@@QAE@AAHAAUBonusCashInfo@ioBonusCashManager@@@Z ENDP ; std::_Pair_base<int const ,ioBonusCashManager::BonusCashInfo>::_Pair_base<int const ,ioBonusCashManager::BonusCashInfo><int &,ioBonusCashManager::BonusCashInfo &>
_TEXT	ENDS
PUBLIC	?_Buynode@?$_Tree_val@V?$_Tmap_traits@HUBonusCashInfo@ioBonusCashManager@@U?$less@H@std@@V?$allocator@U?$pair@$$CBHUBonusCashInfo@ioBonusCashManager@@@std@@@4@$0A@@std@@@std@@QAEPAU_Node@?$_Tree_nod@V?$_Tmap_traits@HUBonusCashInfo@ioBonusCashManager@@U?$less@H@std@@V?$allocator@U?$pair@$$CBHUBonusCashInfo@ioBonusCashManager@@@std@@@4@$0A@@std@@@2@XZ ; std::_Tree_val<std::_Tmap_traits<int,ioBonusCashManager::BonusCashInfo,std::less<int>,std::allocator<std::pair<int const ,ioBonusCashManager::BonusCashInfo> >,0> >::_Buynode
; Function compile flags: /Ogsp
; File c:\program files (x86)\microsoft visual studio 10.0\vc\include\xtree
;	COMDAT ?_Buynode@?$_Tree_val@V?$_Tmap_traits@HUBonusCashInfo@ioBonusCashManager@@U?$less@H@std@@V?$allocator@U?$pair@$$CBHUBonusCashInfo@ioBonusCashManager@@@std@@@4@$0A@@std@@@std@@QAEPAU_Node@?$_Tree_nod@V?$_Tmap_traits@HUBonusCashInfo@ioBonusCashManager@@U?$less@H@std@@V?$allocator@U?$pair@$$CBHUBonusCashInfo@ioBonusCashManager@@@std@@@4@$0A@@std@@@2@XZ
_TEXT	SEGMENT
$T508003 = -16						; size = 12
$T507987 = -4						; size = 4
?_Buynode@?$_Tree_val@V?$_Tmap_traits@HUBonusCashInfo@ioBonusCashManager@@U?$less@H@std@@V?$allocator@U?$pair@$$CBHUBonusCashInfo@ioBonusCashManager@@@std@@@4@$0A@@std@@@std@@QAEPAU_Node@?$_Tree_nod@V?$_Tmap_traits@HUBonusCashInfo@ioBonusCashManager@@U?$less@H@std@@V?$allocator@U?$pair@$$CBHUBonusCashInfo@ioBonusCashManager@@@std@@@4@$0A@@std@@@2@XZ PROC ; std::_Tree_val<std::_Tmap_traits<int,ioBonusCashManager::BonusCashInfo,std::less<int>,std::allocator<std::pair<int const ,ioBonusCashManager::BonusCashInfo> >,0> >::_Buynode, COMDAT
; _this$ = ecx

; 559  : 		{	// allocate a node

  00000	55		 push	 ebp
  00001	8b ec		 mov	 ebp, esp
  00003	83 ec 10	 sub	 esp, 16			; 00000010H
  00006	56		 push	 esi

; 560  : 		_Nodeptr _Wherenode = this->_Alnod.allocate(1);

  00007	6a 24		 push	 36			; 00000024H
  00009	8b f1		 mov	 esi, ecx
  0000b	e8 00 00 00 00	 call	 ??2@YAPAXI@Z		; operator new
  00010	59		 pop	 ecx
  00011	33 c9		 xor	 ecx, ecx
  00013	3b c1		 cmp	 eax, ecx
  00015	74 18		 je	 SHORT $LN5@Buynode

; 561  : 
; 562  : 		this->_Left(_Wherenode) = this->_Myhead;

  00017	8b 56 04	 mov	 edx, DWORD PTR [esi+4]
  0001a	89 10		 mov	 DWORD PTR [eax], edx

; 563  : 		this->_Parent(_Wherenode) = this->_Myhead;

  0001c	8b 56 04	 mov	 edx, DWORD PTR [esi+4]
  0001f	89 50 04	 mov	 DWORD PTR [eax+4], edx

; 564  : 		this->_Right(_Wherenode) = this->_Myhead;

  00022	8b 56 04	 mov	 edx, DWORD PTR [esi+4]
  00025	89 50 08	 mov	 DWORD PTR [eax+8], edx

; 565  : 		this->_Color(_Wherenode) = this->_Red;

  00028	66 89 48 20	 mov	 WORD PTR [eax+32], cx
  0002c	5e		 pop	 esi

; 566  : 		this->_Isnil(_Wherenode) = false;
; 567  : 		return (_Wherenode);
; 568  : 		}

  0002d	c9		 leave
  0002e	c3		 ret	 0

; 560  : 		_Nodeptr _Wherenode = this->_Alnod.allocate(1);

$LN5@Buynode:
  0002f	8d 45 fc	 lea	 eax, DWORD PTR $T507987[ebp]
  00032	89 4d fc	 mov	 DWORD PTR $T507987[ebp], ecx
  00035	50		 push	 eax
  00036	8d 4d f0	 lea	 ecx, DWORD PTR $T508003[ebp]
  00039	ff 15 00 00 00
	00		 call	 DWORD PTR __imp_??0exception@std@@QAE@ABQBD@Z
  0003f	68 00 00 00 00	 push	 OFFSET __TI2?AVbad_alloc@std@@
  00044	8d 45 f0	 lea	 eax, DWORD PTR $T508003[ebp]
  00047	50		 push	 eax
  00048	c7 45 f0 00 00
	00 00		 mov	 DWORD PTR $T508003[ebp], OFFSET ??_7bad_alloc@std@@6B@
  0004f	e8 00 00 00 00	 call	 __CxxThrowException@8
$LN27@Buynode:
$LN26@Buynode:
  00054	cc		 int	 3
?_Buynode@?$_Tree_val@V?$_Tmap_traits@HUBonusCashInfo@ioBonusCashManager@@U?$less@H@std@@V?$allocator@U?$pair@$$CBHUBonusCashInfo@ioBonusCashManager@@@std@@@4@$0A@@std@@@std@@QAEPAU_Node@?$_Tree_nod@V?$_Tmap_traits@HUBonusCashInfo@ioBonusCashManager@@U?$less@H@std@@V?$allocator@U?$pair@$$CBHUBonusCashInfo@ioBonusCashManager@@@std@@@4@$0A@@std@@@2@XZ ENDP ; std::_Tree_val<std::_Tmap_traits<int,ioBonusCashManager::BonusCashInfo,std::less<int>,std::allocator<std::pair<int const ,ioBonusCashManager::BonusCashInfo> >,0> >::_Buynode
_TEXT	ENDS
PUBLIC	??$?0AAV?$_Tree_iterator@V?$_Tree_val@V?$_Tmap_traits@HUBonusCashInfo@ioBonusCashManager@@U?$less@H@std@@V?$allocator@U?$pair@$$CBHUBonusCashInfo@ioBonusCashManager@@@std@@@4@$0A@@std@@@std@@@std@@_N@?$_Pair_base@V?$_Tree_iterator@V?$_Tree_val@V?$_Tmap_traits@HUBonusCashInfo@ioBonusCashManager@@U?$less@H@std@@V?$allocator@U?$pair@$$CBHUBonusCashInfo@ioBonusCashManager@@@std@@@4@$0A@@std@@@std@@@std@@_N@std@@QAE@AAV?$_Tree_iterator@V?$_Tree_val@V?$_Tmap_traits@HUBonusCashInfo@ioBonusCashManager@@U?$less@H@std@@V?$allocator@U?$pair@$$CBHUBonusCashInfo@ioBonusCashManager@@@std@@@4@$0A@@std@@@std@@@1@$$QA_N@Z ; std::_Pair_base<std::_Tree_iterator<std::_Tree_val<std::_Tmap_traits<int,ioBonusCashManager::BonusCashInfo,std::less<int>,std::allocator<std::pair<int const ,ioBonusCashManager::BonusCashInfo> >,0> > >,bool>::_Pair_base<std::_Tree_iterator<std::_Tree_val<std::_Tmap_traits<int,ioBonusCashManager::BonusCashInfo,std::less<int>,std::allocator<std::pair<int const ,ioBonusCashManager::BonusCashInfo> >,0> > >,bool><std::_Tree_iterator<std::_Tree_val<std::_Tmap_traits<int,ioBonusCashManager::BonusCashInfo,std::less<int>,std::allocator<std::pair<int const ,ioBonusCashManager::BonusCashInfo> >,0> > > &,bool>
; Function compile flags: /Ogsp
; File c:\program files (x86)\microsoft visual studio 10.0\vc\include\utility
;	COMDAT ??$?0AAV?$_Tree_iterator@V?$_Tree_val@V?$_Tmap_traits@HUBonusCashInfo@ioBonusCashManager@@U?$less@H@std@@V?$allocator@U?$pair@$$CBHUBonusCashInfo@ioBonusCashManager@@@std@@@4@$0A@@std@@@std@@@std@@_N@?$_Pair_base@V?$_Tree_iterator@V?$_Tree_val@V?$_Tmap_traits@HUBonusCashInfo@ioBonusCashManager@@U?$less@H@std@@V?$allocator@U?$pair@$$CBHUBonusCashInfo@ioBonusCashManager@@@std@@@4@$0A@@std@@@std@@@std@@_N@std@@QAE@AAV?$_Tree_iterator@V?$_Tree_val@V?$_Tmap_traits@HUBonusCashInfo@ioBonusCashManager@@U?$less@H@std@@V?$allocator@U?$pair@$$CBHUBonusCashInfo@ioBonusCashManager@@@std@@@4@$0A@@std@@@std@@@1@$$QA_N@Z
_TEXT	SEGMENT
__Val1$ = 8						; size = 4
__Val2$ = 12						; size = 4
??$?0AAV?$_Tree_iterator@V?$_Tree_val@V?$_Tmap_traits@HUBonusCashInfo@ioBonusCashManager@@U?$less@H@std@@V?$allocator@U?$pair@$$CBHUBonusCashInfo@ioBonusCashManager@@@std@@@4@$0A@@std@@@std@@@std@@_N@?$_Pair_base@V?$_Tree_iterator@V?$_Tree_val@V?$_Tmap_traits@HUBonusCashInfo@ioBonusCashManager@@U?$less@H@std@@V?$allocator@U?$pair@$$CBHUBonusCashInfo@ioBonusCashManager@@@std@@@4@$0A@@std@@@std@@@std@@_N@std@@QAE@AAV?$_Tree_iterator@V?$_Tree_val@V?$_Tmap_traits@HUBonusCashInfo@ioBonusCashManager@@U?$less@H@std@@V?$allocator@U?$pair@$$CBHUBonusCashInfo@ioBonusCashManager@@@std@@@4@$0A@@std@@@std@@@1@$$QA_N@Z PROC ; std::_Pair_base<std::_Tree_iterator<std::_Tree_val<std::_Tmap_traits<int,ioBonusCashManager::BonusCashInfo,std::less<int>,std::allocator<std::pair<int const ,ioBonusCashManager::BonusCashInfo> >,0> > >,bool>::_Pair_base<std::_Tree_iterator<std::_Tree_val<std::_Tmap_traits<int,ioBonusCashManager::BonusCashInfo,std::less<int>,std::allocator<std::pair<int const ,ioBonusCashManager::BonusCashInfo> >,0> > >,bool><std::_Tree_iterator<std::_Tree_val<std::_Tmap_traits<int,ioBonusCashManager::BonusCashInfo,std::less<int>,std::allocator<std::pair<int const ,ioBonusCashManager::BonusCashInfo> >,0> > > &,bool>, COMDAT
; _this$ = ecx

; 163  : 		{	// construct from moved values

  00000	55		 push	 ebp
  00001	8b ec		 mov	 ebp, esp
  00003	8b c1		 mov	 eax, ecx
  00005	8b 4d 08	 mov	 ecx, DWORD PTR __Val1$[ebp]
  00008	8b 09		 mov	 ecx, DWORD PTR [ecx]
  0000a	89 08		 mov	 DWORD PTR [eax], ecx
  0000c	8b 4d 0c	 mov	 ecx, DWORD PTR __Val2$[ebp]
  0000f	8a 09		 mov	 cl, BYTE PTR [ecx]
  00011	88 48 04	 mov	 BYTE PTR [eax+4], cl

; 164  : 		}

  00014	5d		 pop	 ebp
  00015	c2 08 00	 ret	 8
??$?0AAV?$_Tree_iterator@V?$_Tree_val@V?$_Tmap_traits@HUBonusCashInfo@ioBonusCashManager@@U?$less@H@std@@V?$allocator@U?$pair@$$CBHUBonusCashInfo@ioBonusCashManager@@@std@@@4@$0A@@std@@@std@@@std@@_N@?$_Pair_base@V?$_Tree_iterator@V?$_Tree_val@V?$_Tmap_traits@HUBonusCashInfo@ioBonusCashManager@@U?$less@H@std@@V?$allocator@U?$pair@$$CBHUBonusCashInfo@ioBonusCashManager@@@std@@@4@$0A@@std@@@std@@@std@@_N@std@@QAE@AAV?$_Tree_iterator@V?$_Tree_val@V?$_Tmap_traits@HUBonusCashInfo@ioBonusCashManager@@U?$less@H@std@@V?$allocator@U?$pair@$$CBHUBonusCashInfo@ioBonusCashManager@@@std@@@4@$0A@@std@@@std@@@1@$$QA_N@Z ENDP ; std::_Pair_base<std::_Tree_iterator<std::_Tree_val<std::_Tmap_traits<int,ioBonusCashManager::BonusCashInfo,std::less<int>,std::allocator<std::pair<int const ,ioBonusCashManager::BonusCashInfo> >,0> > >,bool>::_Pair_base<std::_Tree_iterator<std::_Tree_val<std::_Tmap_traits<int,ioBonusCashManager::BonusCashInfo,std::less<int>,std::allocator<std::pair<int const ,ioBonusCashManager::BonusCashInfo> >,0> > >,bool><std::_Tree_iterator<std::_Tree_val<std::_Tmap_traits<int,ioBonusCashManager::BonusCashInfo,std::less<int>,std::allocator<std::pair<int const ,ioBonusCashManager::BonusCashInfo> >,0> > > &,bool>
_TEXT	ENDS
PUBLIC	??0?$_Pair_base@$$CBHUBonusCashInfo@ioBonusCashManager@@@std@@QAE@$$QBH$$QAUBonusCashInfo@ioBonusCashManager@@@Z ; std::_Pair_base<int const ,ioBonusCashManager::BonusCashInfo>::_Pair_base<int const ,ioBonusCashManager::BonusCashInfo>
; Function compile flags: /Ogsp
;	COMDAT ??0?$_Pair_base@$$CBHUBonusCashInfo@ioBonusCashManager@@@std@@QAE@$$QBH$$QAUBonusCashInfo@ioBonusCashManager@@@Z
_TEXT	SEGMENT
__Val1$ = 8						; size = 4
__Val2$ = 12						; size = 4
??0?$_Pair_base@$$CBHUBonusCashInfo@ioBonusCashManager@@@std@@QAE@$$QBH$$QAUBonusCashInfo@ioBonusCashManager@@@Z PROC ; std::_Pair_base<int const ,ioBonusCashManager::BonusCashInfo>::_Pair_base<int const ,ioBonusCashManager::BonusCashInfo>, COMDAT
; _this$ = ecx

; 145  : 		{	// construct from specified values

  00000	55		 push	 ebp
  00001	8b ec		 mov	 ebp, esp
  00003	56		 push	 esi
  00004	8b 75 0c	 mov	 esi, DWORD PTR __Val2$[ebp]
  00007	57		 push	 edi
  00008	8b c1		 mov	 eax, ecx
  0000a	8b 4d 08	 mov	 ecx, DWORD PTR __Val1$[ebp]
  0000d	8b 09		 mov	 ecx, DWORD PTR [ecx]
  0000f	89 08		 mov	 DWORD PTR [eax], ecx
  00011	8d 78 04	 lea	 edi, DWORD PTR [eax+4]
  00014	a5		 movsd
  00015	a5		 movsd
  00016	a5		 movsd
  00017	a5		 movsd
  00018	5f		 pop	 edi
  00019	5e		 pop	 esi

; 146  : 		}

  0001a	5d		 pop	 ebp
  0001b	c2 08 00	 ret	 8
??0?$_Pair_base@$$CBHUBonusCashInfo@ioBonusCashManager@@@std@@QAE@$$QBH$$QAUBonusCashInfo@ioBonusCashManager@@@Z ENDP ; std::_Pair_base<int const ,ioBonusCashManager::BonusCashInfo>::_Pair_base<int const ,ioBonusCashManager::BonusCashInfo>
_TEXT	ENDS
PUBLIC	??$swap@D@std@@YAXAAD0@Z			; std::swap<char>
; Function compile flags: /Ogsp
;	COMDAT ??$swap@D@std@@YAXAAD0@Z
_TEXT	SEGMENT
__Left$ = 8						; size = 4
__Right$ = 12						; size = 4
??$swap@D@std@@YAXAAD0@Z PROC				; std::swap<char>, COMDAT

; 101  : 	{	// exchange values stored at _Left and _Right

  00000	55		 push	 ebp
  00001	8b ec		 mov	 ebp, esp

; 102  : 	_Ty _Tmp = _Move(_Left);

  00003	8b 45 08	 mov	 eax, DWORD PTR __Left$[ebp]
  00006	8a 08		 mov	 cl, BYTE PTR [eax]
  00008	56		 push	 esi

; 103  : 	_Left = _Move(_Right);

  00009	8b 75 0c	 mov	 esi, DWORD PTR __Right$[ebp]
  0000c	8a 16		 mov	 dl, BYTE PTR [esi]
  0000e	88 10		 mov	 BYTE PTR [eax], dl

; 104  : 	_Right = _Move(_Tmp);

  00010	88 0e		 mov	 BYTE PTR [esi], cl
  00012	5e		 pop	 esi

; 105  : 	}

  00013	5d		 pop	 ebp
  00014	c3		 ret	 0
??$swap@D@std@@YAXAAD0@Z ENDP				; std::swap<char>
_TEXT	ENDS
PUBLIC	??0?$_Tree_iterator@V?$_Tree_val@V?$_Tmap_traits@HUBonusCashInfo@ioBonusCashManager@@U?$less@H@std@@V?$allocator@U?$pair@$$CBHUBonusCashInfo@ioBonusCashManager@@@std@@@4@$0A@@std@@@std@@@std@@QAE@XZ ; std::_Tree_iterator<std::_Tree_val<std::_Tmap_traits<int,ioBonusCashManager::BonusCashInfo,std::less<int>,std::allocator<std::pair<int const ,ioBonusCashManager::BonusCashInfo> >,0> > >::_Tree_iterator<std::_Tree_val<std::_Tmap_traits<int,ioBonusCashManager::BonusCashInfo,std::less<int>,std::allocator<std::pair<int const ,ioBonusCashManager::BonusCashInfo> >,0> > >
; Function compile flags: /Ogsp
; File c:\program files (x86)\microsoft visual studio 10.0\vc\include\xtree
;	COMDAT ??0?$_Tree_iterator@V?$_Tree_val@V?$_Tmap_traits@HUBonusCashInfo@ioBonusCashManager@@U?$less@H@std@@V?$allocator@U?$pair@$$CBHUBonusCashInfo@ioBonusCashManager@@@std@@@4@$0A@@std@@@std@@@std@@QAE@XZ
_TEXT	SEGMENT
??0?$_Tree_iterator@V?$_Tree_val@V?$_Tmap_traits@HUBonusCashInfo@ioBonusCashManager@@U?$less@H@std@@V?$allocator@U?$pair@$$CBHUBonusCashInfo@ioBonusCashManager@@@std@@@4@$0A@@std@@@std@@@std@@QAE@XZ PROC ; std::_Tree_iterator<std::_Tree_val<std::_Tmap_traits<int,ioBonusCashManager::BonusCashInfo,std::less<int>,std::allocator<std::pair<int const ,ioBonusCashManager::BonusCashInfo> >,0> > >::_Tree_iterator<std::_Tree_val<std::_Tmap_traits<int,ioBonusCashManager::BonusCashInfo,std::less<int>,std::allocator<std::pair<int const ,ioBonusCashManager::BonusCashInfo> >,0> > >, COMDAT
; _this$ = ecx

; 372  : 	_Tree_iterator()

  00000	8b c1		 mov	 eax, ecx
  00002	83 20 00	 and	 DWORD PTR [eax], 0

; 373  : 		{	// construct with null node
; 374  : 		}

  00005	c3		 ret	 0
??0?$_Tree_iterator@V?$_Tree_val@V?$_Tmap_traits@HUBonusCashInfo@ioBonusCashManager@@U?$less@H@std@@V?$allocator@U?$pair@$$CBHUBonusCashInfo@ioBonusCashManager@@@std@@@4@$0A@@std@@@std@@@std@@QAE@XZ ENDP ; std::_Tree_iterator<std::_Tree_val<std::_Tmap_traits<int,ioBonusCashManager::BonusCashInfo,std::less<int>,std::allocator<std::pair<int const ,ioBonusCashManager::BonusCashInfo> >,0> > >::_Tree_iterator<std::_Tree_val<std::_Tmap_traits<int,ioBonusCashManager::BonusCashInfo,std::less<int>,std::allocator<std::pair<int const ,ioBonusCashManager::BonusCashInfo> >,0> > >
_TEXT	ENDS
PUBLIC	??C?$_Tree_iterator@V?$_Tree_val@V?$_Tmap_traits@HUBonusCashInfo@ioBonusCashManager@@U?$less@H@std@@V?$allocator@U?$pair@$$CBHUBonusCashInfo@ioBonusCashManager@@@std@@@4@$0A@@std@@@std@@@std@@QBEPAU?$pair@$$CBHUBonusCashInfo@ioBonusCashManager@@@1@XZ ; std::_Tree_iterator<std::_Tree_val<std::_Tmap_traits<int,ioBonusCashManager::BonusCashInfo,std::less<int>,std::allocator<std::pair<int const ,ioBonusCashManager::BonusCashInfo> >,0> > >::operator->
; Function compile flags: /Ogsp
;	COMDAT ??C?$_Tree_iterator@V?$_Tree_val@V?$_Tmap_traits@HUBonusCashInfo@ioBonusCashManager@@U?$less@H@std@@V?$allocator@U?$pair@$$CBHUBonusCashInfo@ioBonusCashManager@@@std@@@4@$0A@@std@@@std@@@std@@QBEPAU?$pair@$$CBHUBonusCashInfo@ioBonusCashManager@@@1@XZ
_TEXT	SEGMENT
??C?$_Tree_iterator@V?$_Tree_val@V?$_Tmap_traits@HUBonusCashInfo@ioBonusCashManager@@U?$less@H@std@@V?$allocator@U?$pair@$$CBHUBonusCashInfo@ioBonusCashManager@@@std@@@4@$0A@@std@@@std@@@std@@QBEPAU?$pair@$$CBHUBonusCashInfo@ioBonusCashManager@@@1@XZ PROC ; std::_Tree_iterator<std::_Tree_val<std::_Tmap_traits<int,ioBonusCashManager::BonusCashInfo,std::less<int>,std::allocator<std::pair<int const ,ioBonusCashManager::BonusCashInfo> >,0> > >::operator->, COMDAT
; _this$ = ecx

; 401  : 		return (&**this);

  00000	8b 01		 mov	 eax, DWORD PTR [ecx]
  00002	83 c0 0c	 add	 eax, 12			; 0000000cH

; 402  : 		}

  00005	c3		 ret	 0
??C?$_Tree_iterator@V?$_Tree_val@V?$_Tmap_traits@HUBonusCashInfo@ioBonusCashManager@@U?$less@H@std@@V?$allocator@U?$pair@$$CBHUBonusCashInfo@ioBonusCashManager@@@std@@@4@$0A@@std@@@std@@@std@@QBEPAU?$pair@$$CBHUBonusCashInfo@ioBonusCashManager@@@1@XZ ENDP ; std::_Tree_iterator<std::_Tree_val<std::_Tmap_traits<int,ioBonusCashManager::BonusCashInfo,std::less<int>,std::allocator<std::pair<int const ,ioBonusCashManager::BonusCashInfo> >,0> > >::operator->
_TEXT	ENDS
PUBLIC	??E?$_Tree_iterator@V?$_Tree_val@V?$_Tmap_traits@HUBonusCashInfo@ioBonusCashManager@@U?$less@H@std@@V?$allocator@U?$pair@$$CBHUBonusCashInfo@ioBonusCashManager@@@std@@@4@$0A@@std@@@std@@@std@@QAEAAV01@XZ ; std::_Tree_iterator<std::_Tree_val<std::_Tmap_traits<int,ioBonusCashManager::BonusCashInfo,std::less<int>,std::allocator<std::pair<int const ,ioBonusCashManager::BonusCashInfo> >,0> > >::operator++
; Function compile flags: /Ogsp
;	COMDAT ??E?$_Tree_iterator@V?$_Tree_val@V?$_Tmap_traits@HUBonusCashInfo@ioBonusCashManager@@U?$less@H@std@@V?$allocator@U?$pair@$$CBHUBonusCashInfo@ioBonusCashManager@@@std@@@4@$0A@@std@@@std@@@std@@QAEAAV01@XZ
_TEXT	SEGMENT
??E?$_Tree_iterator@V?$_Tree_val@V?$_Tmap_traits@HUBonusCashInfo@ioBonusCashManager@@U?$less@H@std@@V?$allocator@U?$pair@$$CBHUBonusCashInfo@ioBonusCashManager@@@std@@@4@$0A@@std@@@std@@@std@@QAEAAV01@XZ PROC ; std::_Tree_iterator<std::_Tree_val<std::_Tmap_traits<int,ioBonusCashManager::BonusCashInfo,std::less<int>,std::allocator<std::pair<int const ,ioBonusCashManager::BonusCashInfo> >,0> > >::operator++, COMDAT
; _this$ = ecx

; 405  : 		{	// preincrement

  00000	56		 push	 esi
  00001	8b f1		 mov	 esi, ecx

; 406  : 		++(*(_Mybase *)this);

  00003	e8 00 00 00 00	 call	 ??E?$_Tree_unchecked_const_iterator@V?$_Tree_val@V?$_Tmap_traits@HUBonusCashInfo@ioBonusCashManager@@U?$less@H@std@@V?$allocator@U?$pair@$$CBHUBonusCashInfo@ioBonusCashManager@@@std@@@4@$0A@@std@@@std@@U_Iterator_base0@2@@std@@QAEAAV01@XZ ; std::_Tree_unchecked_const_iterator<std::_Tree_val<std::_Tmap_traits<int,ioBonusCashManager::BonusCashInfo,std::less<int>,std::allocator<std::pair<int const ,ioBonusCashManager::BonusCashInfo> >,0> >,std::_Iterator_base0>::operator++

; 407  : 		return (*this);

  00008	8b c6		 mov	 eax, esi
  0000a	5e		 pop	 esi

; 408  : 		}

  0000b	c3		 ret	 0
??E?$_Tree_iterator@V?$_Tree_val@V?$_Tmap_traits@HUBonusCashInfo@ioBonusCashManager@@U?$less@H@std@@V?$allocator@U?$pair@$$CBHUBonusCashInfo@ioBonusCashManager@@@std@@@4@$0A@@std@@@std@@@std@@QAEAAV01@XZ ENDP ; std::_Tree_iterator<std::_Tree_val<std::_Tmap_traits<int,ioBonusCashManager::BonusCashInfo,std::less<int>,std::allocator<std::pair<int const ,ioBonusCashManager::BonusCashInfo> >,0> > >::operator++
_TEXT	ENDS
PUBLIC	??E?$_Tree_const_iterator@V?$_Tree_val@V?$_Tmap_traits@HUBonusCashInfo@ioBonusCashManager@@U?$less@H@std@@V?$allocator@U?$pair@$$CBHUBonusCashInfo@ioBonusCashManager@@@std@@@4@$0A@@std@@@std@@@std@@QAE?AV01@H@Z ; std::_Tree_const_iterator<std::_Tree_val<std::_Tmap_traits<int,ioBonusCashManager::BonusCashInfo,std::less<int>,std::allocator<std::pair<int const ,ioBonusCashManager::BonusCashInfo> >,0> > >::operator++
; Function compile flags: /Ogsp
;	COMDAT ??E?$_Tree_const_iterator@V?$_Tree_val@V?$_Tmap_traits@HUBonusCashInfo@ioBonusCashManager@@U?$less@H@std@@V?$allocator@U?$pair@$$CBHUBonusCashInfo@ioBonusCashManager@@@std@@@4@$0A@@std@@@std@@@std@@QAE?AV01@H@Z
_TEXT	SEGMENT
___$ReturnUdt$ = 8					; size = 4
___formal$ = 12						; size = 4
??E?$_Tree_const_iterator@V?$_Tree_val@V?$_Tmap_traits@HUBonusCashInfo@ioBonusCashManager@@U?$less@H@std@@V?$allocator@U?$pair@$$CBHUBonusCashInfo@ioBonusCashManager@@@std@@@4@$0A@@std@@@std@@@std@@QAE?AV01@H@Z PROC ; std::_Tree_const_iterator<std::_Tree_val<std::_Tmap_traits<int,ioBonusCashManager::BonusCashInfo,std::less<int>,std::allocator<std::pair<int const ,ioBonusCashManager::BonusCashInfo> >,0> > >::operator++, COMDAT
; _this$ = ecx

; 270  : 		{	// postincrement

  00000	55		 push	 ebp
  00001	8b ec		 mov	 ebp, esp

; 271  : 		_Myiter _Tmp = *this;

  00003	8b 01		 mov	 eax, DWORD PTR [ecx]
  00005	56		 push	 esi
  00006	8b 75 08	 mov	 esi, DWORD PTR ___$ReturnUdt$[ebp]
  00009	89 06		 mov	 DWORD PTR [esi], eax

; 272  : 		++*this;

  0000b	e8 00 00 00 00	 call	 ??E?$_Tree_unchecked_const_iterator@V?$_Tree_val@V?$_Tmap_traits@HUBonusCashInfo@ioBonusCashManager@@U?$less@H@std@@V?$allocator@U?$pair@$$CBHUBonusCashInfo@ioBonusCashManager@@@std@@@4@$0A@@std@@@std@@U_Iterator_base0@2@@std@@QAEAAV01@XZ ; std::_Tree_unchecked_const_iterator<std::_Tree_val<std::_Tmap_traits<int,ioBonusCashManager::BonusCashInfo,std::less<int>,std::allocator<std::pair<int const ,ioBonusCashManager::BonusCashInfo> >,0> >,std::_Iterator_base0>::operator++

; 273  : 		return (_Tmp);

  00010	8b c6		 mov	 eax, esi
  00012	5e		 pop	 esi

; 274  : 		}

  00013	5d		 pop	 ebp
  00014	c2 08 00	 ret	 8
??E?$_Tree_const_iterator@V?$_Tree_val@V?$_Tmap_traits@HUBonusCashInfo@ioBonusCashManager@@U?$less@H@std@@V?$allocator@U?$pair@$$CBHUBonusCashInfo@ioBonusCashManager@@@std@@@4@$0A@@std@@@std@@@std@@QAE?AV01@H@Z ENDP ; std::_Tree_const_iterator<std::_Tree_val<std::_Tmap_traits<int,ioBonusCashManager::BonusCashInfo,std::less<int>,std::allocator<std::pair<int const ,ioBonusCashManager::BonusCashInfo> >,0> > >::operator++
_TEXT	ENDS
PUBLIC	?_Lrotate@?$_Tree@V?$_Tmap_traits@HUBonusCashInfo@ioBonusCashManager@@U?$less@H@std@@V?$allocator@U?$pair@$$CBHUBonusCashInfo@ioBonusCashManager@@@std@@@4@$0A@@std@@@std@@IAEXPAU_Node@?$_Tree_nod@V?$_Tmap_traits@HUBonusCashInfo@ioBonusCashManager@@U?$less@H@std@@V?$allocator@U?$pair@$$CBHUBonusCashInfo@ioBonusCashManager@@@std@@@4@$0A@@std@@@2@@Z ; std::_Tree<std::_Tmap_traits<int,ioBonusCashManager::BonusCashInfo,std::less<int>,std::allocator<std::pair<int const ,ioBonusCashManager::BonusCashInfo> >,0> >::_Lrotate
; Function compile flags: /Ogsp
;	COMDAT ?_Lrotate@?$_Tree@V?$_Tmap_traits@HUBonusCashInfo@ioBonusCashManager@@U?$less@H@std@@V?$allocator@U?$pair@$$CBHUBonusCashInfo@ioBonusCashManager@@@std@@@4@$0A@@std@@@std@@IAEXPAU_Node@?$_Tree_nod@V?$_Tmap_traits@HUBonusCashInfo@ioBonusCashManager@@U?$less@H@std@@V?$allocator@U?$pair@$$CBHUBonusCashInfo@ioBonusCashManager@@@std@@@4@$0A@@std@@@2@@Z
_TEXT	SEGMENT
__Wherenode$ = 8					; size = 4
?_Lrotate@?$_Tree@V?$_Tmap_traits@HUBonusCashInfo@ioBonusCashManager@@U?$less@H@std@@V?$allocator@U?$pair@$$CBHUBonusCashInfo@ioBonusCashManager@@@std@@@4@$0A@@std@@@std@@IAEXPAU_Node@?$_Tree_nod@V?$_Tmap_traits@HUBonusCashInfo@ioBonusCashManager@@U?$less@H@std@@V?$allocator@U?$pair@$$CBHUBonusCashInfo@ioBonusCashManager@@@std@@@4@$0A@@std@@@2@@Z PROC ; std::_Tree<std::_Tmap_traits<int,ioBonusCashManager::BonusCashInfo,std::less<int>,std::allocator<std::pair<int const ,ioBonusCashManager::BonusCashInfo> >,0> >::_Lrotate, COMDAT
; _this$ = ecx

; 1763 : 		{	// promote right node to root of subtree

  00000	55		 push	 ebp
  00001	8b ec		 mov	 ebp, esp

; 1764 : 		_Nodeptr _Pnode = this->_Right(_Wherenode);

  00003	8b 55 08	 mov	 edx, DWORD PTR __Wherenode$[ebp]
  00006	8b 42 08	 mov	 eax, DWORD PTR [edx+8]
  00009	56		 push	 esi

; 1765 : 		this->_Right(_Wherenode) = this->_Left(_Pnode);

  0000a	8b 30		 mov	 esi, DWORD PTR [eax]
  0000c	89 72 08	 mov	 DWORD PTR [edx+8], esi

; 1766 : 
; 1767 : 		if (!this->_Isnil(this->_Left(_Pnode)))

  0000f	8b 30		 mov	 esi, DWORD PTR [eax]
  00011	80 7e 21 00	 cmp	 BYTE PTR [esi+33], 0
  00015	75 03		 jne	 SHORT $LN5@Lrotate

; 1768 : 			this->_Parent(this->_Left(_Pnode)) = _Wherenode;

  00017	89 56 04	 mov	 DWORD PTR [esi+4], edx
$LN5@Lrotate:

; 1769 : 		this->_Parent(_Pnode) = this->_Parent(_Wherenode);

  0001a	8b 72 04	 mov	 esi, DWORD PTR [edx+4]
  0001d	89 70 04	 mov	 DWORD PTR [eax+4], esi

; 1770 : 
; 1771 : 		if (_Wherenode == _Root())

  00020	8b 49 04	 mov	 ecx, DWORD PTR [ecx+4]
  00023	5e		 pop	 esi
  00024	3b 51 04	 cmp	 edx, DWORD PTR [ecx+4]
  00027	75 05		 jne	 SHORT $LN4@Lrotate

; 1772 : 			_Root() = _Pnode;

  00029	89 41 04	 mov	 DWORD PTR [ecx+4], eax

; 1773 : 		else if (_Wherenode == this->_Left(this->_Parent(_Wherenode)))

  0002c	eb 0e		 jmp	 SHORT $LN1@Lrotate
$LN4@Lrotate:
  0002e	8b 4a 04	 mov	 ecx, DWORD PTR [edx+4]
  00031	3b 11		 cmp	 edx, DWORD PTR [ecx]
  00033	75 04		 jne	 SHORT $LN2@Lrotate

; 1774 : 			this->_Left(this->_Parent(_Wherenode)) = _Pnode;

  00035	89 01		 mov	 DWORD PTR [ecx], eax

; 1775 : 		else

  00037	eb 03		 jmp	 SHORT $LN1@Lrotate
$LN2@Lrotate:

; 1776 : 			this->_Right(this->_Parent(_Wherenode)) = _Pnode;

  00039	89 41 08	 mov	 DWORD PTR [ecx+8], eax
$LN1@Lrotate:

; 1777 : 
; 1778 : 		this->_Left(_Pnode) = _Wherenode;

  0003c	89 10		 mov	 DWORD PTR [eax], edx

; 1779 : 		this->_Parent(_Wherenode) = _Pnode;

  0003e	89 42 04	 mov	 DWORD PTR [edx+4], eax

; 1780 : 		}

  00041	5d		 pop	 ebp
  00042	c2 04 00	 ret	 4
?_Lrotate@?$_Tree@V?$_Tmap_traits@HUBonusCashInfo@ioBonusCashManager@@U?$less@H@std@@V?$allocator@U?$pair@$$CBHUBonusCashInfo@ioBonusCashManager@@@std@@@4@$0A@@std@@@std@@IAEXPAU_Node@?$_Tree_nod@V?$_Tmap_traits@HUBonusCashInfo@ioBonusCashManager@@U?$less@H@std@@V?$allocator@U?$pair@$$CBHUBonusCashInfo@ioBonusCashManager@@@std@@@4@$0A@@std@@@2@@Z ENDP ; std::_Tree<std::_Tmap_traits<int,ioBonusCashManager::BonusCashInfo,std::less<int>,std::allocator<std::pair<int const ,ioBonusCashManager::BonusCashInfo> >,0> >::_Lrotate
_TEXT	ENDS
PUBLIC	??0?$_Tree_const_iterator@V?$_Tree_val@V?$_Tmap_traits@HUBonusCashInfo@ioBonusCashManager@@U?$less@H@std@@V?$allocator@U?$pair@$$CBHUBonusCashInfo@ioBonusCashManager@@@std@@@4@$0A@@std@@@std@@@std@@QAE@PAU_Node@?$_Tree_nod@V?$_Tmap_traits@HUBonusCashInfo@ioBonusCashManager@@U?$less@H@std@@V?$allocator@U?$pair@$$CBHUBonusCashInfo@ioBonusCashManager@@@std@@@4@$0A@@std@@@1@PBV?$_Tree_val@V?$_Tmap_traits@HUBonusCashInfo@ioBonusCashManager@@U?$less@H@std@@V?$allocator@U?$pair@$$CBHUBonusCashInfo@ioBonusCashManager@@@std@@@4@$0A@@std@@@1@@Z ; std::_Tree_const_iterator<std::_Tree_val<std::_Tmap_traits<int,ioBonusCashManager::BonusCashInfo,std::less<int>,std::allocator<std::pair<int const ,ioBonusCashManager::BonusCashInfo> >,0> > >::_Tree_const_iterator<std::_Tree_val<std::_Tmap_traits<int,ioBonusCashManager::BonusCashInfo,std::less<int>,std::allocator<std::pair<int const ,ioBonusCashManager::BonusCashInfo> >,0> > >
; Function compile flags: /Ogsp
;	COMDAT ??0?$_Tree_const_iterator@V?$_Tree_val@V?$_Tmap_traits@HUBonusCashInfo@ioBonusCashManager@@U?$less@H@std@@V?$allocator@U?$pair@$$CBHUBonusCashInfo@ioBonusCashManager@@@std@@@4@$0A@@std@@@std@@@std@@QAE@PAU_Node@?$_Tree_nod@V?$_Tmap_traits@HUBonusCashInfo@ioBonusCashManager@@U?$less@H@std@@V?$allocator@U?$pair@$$CBHUBonusCashInfo@ioBonusCashManager@@@std@@@4@$0A@@std@@@1@PBV?$_Tree_val@V?$_Tmap_traits@HUBonusCashInfo@ioBonusCashManager@@U?$less@H@std@@V?$allocator@U?$pair@$$CBHUBonusCashInfo@ioBonusCashManager@@@std@@@4@$0A@@std@@@1@@Z
_TEXT	SEGMENT
__Pnode$ = 8						; size = 4
__Plist$ = 12						; size = 4
??0?$_Tree_const_iterator@V?$_Tree_val@V?$_Tmap_traits@HUBonusCashInfo@ioBonusCashManager@@U?$less@H@std@@V?$allocator@U?$pair@$$CBHUBonusCashInfo@ioBonusCashManager@@@std@@@4@$0A@@std@@@std@@@std@@QAE@PAU_Node@?$_Tree_nod@V?$_Tmap_traits@HUBonusCashInfo@ioBonusCashManager@@U?$less@H@std@@V?$allocator@U?$pair@$$CBHUBonusCashInfo@ioBonusCashManager@@@std@@@4@$0A@@std@@@1@PBV?$_Tree_val@V?$_Tmap_traits@HUBonusCashInfo@ioBonusCashManager@@U?$less@H@std@@V?$allocator@U?$pair@$$CBHUBonusCashInfo@ioBonusCashManager@@@std@@@4@$0A@@std@@@1@@Z PROC ; std::_Tree_const_iterator<std::_Tree_val<std::_Tmap_traits<int,ioBonusCashManager::BonusCashInfo,std::less<int>,std::allocator<std::pair<int const ,ioBonusCashManager::BonusCashInfo> >,0> > >::_Tree_const_iterator<std::_Tree_val<std::_Tmap_traits<int,ioBonusCashManager::BonusCashInfo,std::less<int>,std::allocator<std::pair<int const ,ioBonusCashManager::BonusCashInfo> >,0> > >, COMDAT
; _this$ = ecx

; 213  : 		{	// construct with node pointer _Pnode

  00000	55		 push	 ebp
  00001	8b ec		 mov	 ebp, esp
  00003	8b c1		 mov	 eax, ecx
  00005	8b 4d 08	 mov	 ecx, DWORD PTR __Pnode$[ebp]
  00008	89 08		 mov	 DWORD PTR [eax], ecx

; 214  : 		}

  0000a	5d		 pop	 ebp
  0000b	c2 08 00	 ret	 8
??0?$_Tree_const_iterator@V?$_Tree_val@V?$_Tmap_traits@HUBonusCashInfo@ioBonusCashManager@@U?$less@H@std@@V?$allocator@U?$pair@$$CBHUBonusCashInfo@ioBonusCashManager@@@std@@@4@$0A@@std@@@std@@@std@@QAE@PAU_Node@?$_Tree_nod@V?$_Tmap_traits@HUBonusCashInfo@ioBonusCashManager@@U?$less@H@std@@V?$allocator@U?$pair@$$CBHUBonusCashInfo@ioBonusCashManager@@@std@@@4@$0A@@std@@@1@PBV?$_Tree_val@V?$_Tmap_traits@HUBonusCashInfo@ioBonusCashManager@@U?$less@H@std@@V?$allocator@U?$pair@$$CBHUBonusCashInfo@ioBonusCashManager@@@std@@@4@$0A@@std@@@1@@Z ENDP ; std::_Tree_const_iterator<std::_Tree_val<std::_Tmap_traits<int,ioBonusCashManager::BonusCashInfo,std::less<int>,std::allocator<std::pair<int const ,ioBonusCashManager::BonusCashInfo> >,0> > >::_Tree_const_iterator<std::_Tree_val<std::_Tmap_traits<int,ioBonusCashManager::BonusCashInfo,std::less<int>,std::allocator<std::pair<int const ,ioBonusCashManager::BonusCashInfo> >,0> > >
_TEXT	ENDS
PUBLIC	??0?$_Tree_val@V?$_Tmap_traits@HUBonusCashInfo@ioBonusCashManager@@U?$less@H@std@@V?$allocator@U?$pair@$$CBHUBonusCashInfo@ioBonusCashManager@@@std@@@4@$0A@@std@@@std@@QAE@ABU?$less@H@1@V?$allocator@U?$pair@$$CBHUBonusCashInfo@ioBonusCashManager@@@std@@@1@@Z ; std::_Tree_val<std::_Tmap_traits<int,ioBonusCashManager::BonusCashInfo,std::less<int>,std::allocator<std::pair<int const ,ioBonusCashManager::BonusCashInfo> >,0> >::_Tree_val<std::_Tmap_traits<int,ioBonusCashManager::BonusCashInfo,std::less<int>,std::allocator<std::pair<int const ,ioBonusCashManager::BonusCashInfo> >,0> >
; Function compile flags: /Ogsp
;	COMDAT ??0?$_Tree_val@V?$_Tmap_traits@HUBonusCashInfo@ioBonusCashManager@@U?$less@H@std@@V?$allocator@U?$pair@$$CBHUBonusCashInfo@ioBonusCashManager@@@std@@@4@$0A@@std@@@std@@QAE@ABU?$less@H@1@V?$allocator@U?$pair@$$CBHUBonusCashInfo@ioBonusCashManager@@@std@@@1@@Z
_TEXT	SEGMENT
$T508228 = -16						; size = 12
$T508212 = -4						; size = 4
__Parg$ = 8						; size = 4
__Al$ = 12						; size = 1
??0?$_Tree_val@V?$_Tmap_traits@HUBonusCashInfo@ioBonusCashManager@@U?$less@H@std@@V?$allocator@U?$pair@$$CBHUBonusCashInfo@ioBonusCashManager@@@std@@@4@$0A@@std@@@std@@QAE@ABU?$less@H@1@V?$allocator@U?$pair@$$CBHUBonusCashInfo@ioBonusCashManager@@@std@@@1@@Z PROC ; std::_Tree_val<std::_Tmap_traits<int,ioBonusCashManager::BonusCashInfo,std::less<int>,std::allocator<std::pair<int const ,ioBonusCashManager::BonusCashInfo> >,0> >::_Tree_val<std::_Tmap_traits<int,ioBonusCashManager::BonusCashInfo,std::less<int>,std::allocator<std::pair<int const ,ioBonusCashManager::BonusCashInfo> >,0> >, COMDAT
; _this$ = ecx

; 542  : 		{	// construct base, and allocator from _Al

  00000	55		 push	 ebp
  00001	8b ec		 mov	 ebp, esp
  00003	83 ec 10	 sub	 esp, 16			; 00000010H
  00006	56		 push	 esi
  00007	8b f1		 mov	 esi, ecx

; 543  : 		this->_Mysize = 0;

  00009	83 66 08 00	 and	 DWORD PTR [esi+8], 0

; 544  : 		this->_Myhead = this->_Alnod.allocate(1);

  0000d	6a 24		 push	 36			; 00000024H
  0000f	e8 00 00 00 00	 call	 ??2@YAPAXI@Z		; operator new
  00014	59		 pop	 ecx
  00015	85 c0		 test	 eax, eax
  00017	74 26		 je	 SHORT $LN15@Tree_val
  00019	89 46 04	 mov	 DWORD PTR [esi+4], eax

; 545  : 
; 546  : 		this->_Left(this->_Myhead) = this->_Myhead;

  0001c	89 00		 mov	 DWORD PTR [eax], eax

; 547  : 		this->_Parent(this->_Myhead) = this->_Myhead;

  0001e	8b 46 04	 mov	 eax, DWORD PTR [esi+4]
  00021	89 40 04	 mov	 DWORD PTR [eax+4], eax

; 548  : 		this->_Right(this->_Myhead) = this->_Myhead;

  00024	8b 46 04	 mov	 eax, DWORD PTR [esi+4]
  00027	89 40 08	 mov	 DWORD PTR [eax+8], eax

; 549  : 		this->_Color(this->_Myhead) = this->_Black;

  0002a	8b 46 04	 mov	 eax, DWORD PTR [esi+4]
  0002d	c6 40 20 01	 mov	 BYTE PTR [eax+32], 1

; 550  : 		this->_Isnil(this->_Myhead) = true;

  00031	8b 46 04	 mov	 eax, DWORD PTR [esi+4]
  00034	c6 40 21 01	 mov	 BYTE PTR [eax+33], 1

; 551  : 		}

  00038	8b c6		 mov	 eax, esi
  0003a	5e		 pop	 esi
  0003b	c9		 leave
  0003c	c2 08 00	 ret	 8

; 544  : 		this->_Myhead = this->_Alnod.allocate(1);

$LN15@Tree_val:
  0003f	83 65 fc 00	 and	 DWORD PTR $T508212[ebp], 0
  00043	8d 45 fc	 lea	 eax, DWORD PTR $T508212[ebp]
  00046	50		 push	 eax
  00047	8d 4d f0	 lea	 ecx, DWORD PTR $T508228[ebp]
  0004a	ff 15 00 00 00
	00		 call	 DWORD PTR __imp_??0exception@std@@QAE@ABQBD@Z
  00050	68 00 00 00 00	 push	 OFFSET __TI2?AVbad_alloc@std@@
  00055	8d 45 f0	 lea	 eax, DWORD PTR $T508228[ebp]
  00058	50		 push	 eax
  00059	c7 45 f0 00 00
	00 00		 mov	 DWORD PTR $T508228[ebp], OFFSET ??_7bad_alloc@std@@6B@
  00060	e8 00 00 00 00	 call	 __CxxThrowException@8
$LN37@Tree_val:
$LN36@Tree_val:
  00065	cc		 int	 3
??0?$_Tree_val@V?$_Tmap_traits@HUBonusCashInfo@ioBonusCashManager@@U?$less@H@std@@V?$allocator@U?$pair@$$CBHUBonusCashInfo@ioBonusCashManager@@@std@@@4@$0A@@std@@@std@@QAE@ABU?$less@H@1@V?$allocator@U?$pair@$$CBHUBonusCashInfo@ioBonusCashManager@@@std@@@1@@Z ENDP ; std::_Tree_val<std::_Tmap_traits<int,ioBonusCashManager::BonusCashInfo,std::less<int>,std::allocator<std::pair<int const ,ioBonusCashManager::BonusCashInfo> >,0> >::_Tree_val<std::_Tmap_traits<int,ioBonusCashManager::BonusCashInfo,std::less<int>,std::allocator<std::pair<int const ,ioBonusCashManager::BonusCashInfo> >,0> >
_TEXT	ENDS
PUBLIC	??$?0AAHAAUBonusCashInfo@ioBonusCashManager@@@?$pair@$$CBHUBonusCashInfo@ioBonusCashManager@@@std@@QAE@AAHAAUBonusCashInfo@ioBonusCashManager@@@Z ; std::pair<int const ,ioBonusCashManager::BonusCashInfo>::pair<int const ,ioBonusCashManager::BonusCashInfo><int &,ioBonusCashManager::BonusCashInfo &>
; Function compile flags: /Ogsp
; File c:\program files (x86)\microsoft visual studio 10.0\vc\include\utility
;	COMDAT ??$?0AAHAAUBonusCashInfo@ioBonusCashManager@@@?$pair@$$CBHUBonusCashInfo@ioBonusCashManager@@@std@@QAE@AAHAAUBonusCashInfo@ioBonusCashManager@@@Z
_TEXT	SEGMENT
__Val1$ = 8						; size = 4
__Val2$ = 12						; size = 4
??$?0AAHAAUBonusCashInfo@ioBonusCashManager@@@?$pair@$$CBHUBonusCashInfo@ioBonusCashManager@@@std@@QAE@AAHAAUBonusCashInfo@ioBonusCashManager@@@Z PROC ; std::pair<int const ,ioBonusCashManager::BonusCashInfo>::pair<int const ,ioBonusCashManager::BonusCashInfo><int &,ioBonusCashManager::BonusCashInfo &>, COMDAT
; _this$ = ecx

; 247  : 		{	// construct from moved values

  00000	55		 push	 ebp
  00001	8b ec		 mov	 ebp, esp
  00003	56		 push	 esi
  00004	8b 75 0c	 mov	 esi, DWORD PTR __Val2$[ebp]
  00007	57		 push	 edi
  00008	8b c1		 mov	 eax, ecx
  0000a	8b 4d 08	 mov	 ecx, DWORD PTR __Val1$[ebp]
  0000d	8b 09		 mov	 ecx, DWORD PTR [ecx]
  0000f	89 08		 mov	 DWORD PTR [eax], ecx
  00011	8d 78 04	 lea	 edi, DWORD PTR [eax+4]
  00014	a5		 movsd
  00015	a5		 movsd
  00016	a5		 movsd
  00017	a5		 movsd
  00018	5f		 pop	 edi
  00019	5e		 pop	 esi

; 248  : 		}

  0001a	5d		 pop	 ebp
  0001b	c2 08 00	 ret	 8
??$?0AAHAAUBonusCashInfo@ioBonusCashManager@@@?$pair@$$CBHUBonusCashInfo@ioBonusCashManager@@@std@@QAE@AAHAAUBonusCashInfo@ioBonusCashManager@@@Z ENDP ; std::pair<int const ,ioBonusCashManager::BonusCashInfo>::pair<int const ,ioBonusCashManager::BonusCashInfo><int &,ioBonusCashManager::BonusCashInfo &>
_TEXT	ENDS
PUBLIC	??$_Dest_val@V?$allocator@U?$pair@$$CBHUBonusCashInfo@ioBonusCashManager@@@std@@@std@@U?$pair@$$CBHUBonusCashInfo@ioBonusCashManager@@@2@@std@@YAXAAV?$allocator@U?$pair@$$CBHUBonusCashInfo@ioBonusCashManager@@@std@@@0@PAU?$pair@$$CBHUBonusCashInfo@ioBonusCashManager@@@0@@Z ; std::_Dest_val<std::allocator<std::pair<int const ,ioBonusCashManager::BonusCashInfo> >,std::pair<int const ,ioBonusCashManager::BonusCashInfo> >
; Function compile flags: /Ogsp
; File c:\program files (x86)\microsoft visual studio 10.0\vc\include\xmemory
;	COMDAT ??$_Dest_val@V?$allocator@U?$pair@$$CBHUBonusCashInfo@ioBonusCashManager@@@std@@@std@@U?$pair@$$CBHUBonusCashInfo@ioBonusCashManager@@@2@@std@@YAXAAV?$allocator@U?$pair@$$CBHUBonusCashInfo@ioBonusCashManager@@@std@@@0@PAU?$pair@$$CBHUBonusCashInfo@ioBonusCashManager@@@0@@Z
_TEXT	SEGMENT
__Alval$ = 8						; size = 4
__Pdest$ = 12						; size = 4
??$_Dest_val@V?$allocator@U?$pair@$$CBHUBonusCashInfo@ioBonusCashManager@@@std@@@std@@U?$pair@$$CBHUBonusCashInfo@ioBonusCashManager@@@2@@std@@YAXAAV?$allocator@U?$pair@$$CBHUBonusCashInfo@ioBonusCashManager@@@std@@@0@PAU?$pair@$$CBHUBonusCashInfo@ioBonusCashManager@@@0@@Z PROC ; std::_Dest_val<std::allocator<std::pair<int const ,ioBonusCashManager::BonusCashInfo> >,std::pair<int const ,ioBonusCashManager::BonusCashInfo> >, COMDAT

; 287  : 	_Alval.destroy(_Pdest);
; 288  : 	}

  00000	c3		 ret	 0
??$_Dest_val@V?$allocator@U?$pair@$$CBHUBonusCashInfo@ioBonusCashManager@@@std@@@std@@U?$pair@$$CBHUBonusCashInfo@ioBonusCashManager@@@2@@std@@YAXAAV?$allocator@U?$pair@$$CBHUBonusCashInfo@ioBonusCashManager@@@std@@@0@PAU?$pair@$$CBHUBonusCashInfo@ioBonusCashManager@@@0@@Z ENDP ; std::_Dest_val<std::allocator<std::pair<int const ,ioBonusCashManager::BonusCashInfo> >,std::pair<int const ,ioBonusCashManager::BonusCashInfo> >
_TEXT	ENDS
PUBLIC	??F?$_Tree_iterator@V?$_Tree_val@V?$_Tmap_traits@HUBonusCashInfo@ioBonusCashManager@@U?$less@H@std@@V?$allocator@U?$pair@$$CBHUBonusCashInfo@ioBonusCashManager@@@std@@@4@$0A@@std@@@std@@@std@@QAEAAV01@XZ ; std::_Tree_iterator<std::_Tree_val<std::_Tmap_traits<int,ioBonusCashManager::BonusCashInfo,std::less<int>,std::allocator<std::pair<int const ,ioBonusCashManager::BonusCashInfo> >,0> > >::operator--
; Function compile flags: /Ogsp
; File c:\program files (x86)\microsoft visual studio 10.0\vc\include\xtree
;	COMDAT ??F?$_Tree_iterator@V?$_Tree_val@V?$_Tmap_traits@HUBonusCashInfo@ioBonusCashManager@@U?$less@H@std@@V?$allocator@U?$pair@$$CBHUBonusCashInfo@ioBonusCashManager@@@std@@@4@$0A@@std@@@std@@@std@@QAEAAV01@XZ
_TEXT	SEGMENT
??F?$_Tree_iterator@V?$_Tree_val@V?$_Tmap_traits@HUBonusCashInfo@ioBonusCashManager@@U?$less@H@std@@V?$allocator@U?$pair@$$CBHUBonusCashInfo@ioBonusCashManager@@@std@@@4@$0A@@std@@@std@@@std@@QAEAAV01@XZ PROC ; std::_Tree_iterator<std::_Tree_val<std::_Tmap_traits<int,ioBonusCashManager::BonusCashInfo,std::less<int>,std::allocator<std::pair<int const ,ioBonusCashManager::BonusCashInfo> >,0> > >::operator--, COMDAT
; _this$ = ecx

; 418  : 		{	// predecrement

  00000	56		 push	 esi
  00001	8b f1		 mov	 esi, ecx

; 419  : 		--(*(_Mybase *)this);

  00003	e8 00 00 00 00	 call	 ??F?$_Tree_unchecked_const_iterator@V?$_Tree_val@V?$_Tmap_traits@HUBonusCashInfo@ioBonusCashManager@@U?$less@H@std@@V?$allocator@U?$pair@$$CBHUBonusCashInfo@ioBonusCashManager@@@std@@@4@$0A@@std@@@std@@U_Iterator_base0@2@@std@@QAEAAV01@XZ ; std::_Tree_unchecked_const_iterator<std::_Tree_val<std::_Tmap_traits<int,ioBonusCashManager::BonusCashInfo,std::less<int>,std::allocator<std::pair<int const ,ioBonusCashManager::BonusCashInfo> >,0> >,std::_Iterator_base0>::operator--

; 420  : 		return (*this);

  00008	8b c6		 mov	 eax, esi
  0000a	5e		 pop	 esi

; 421  : 		}

  0000b	c3		 ret	 0
??F?$_Tree_iterator@V?$_Tree_val@V?$_Tmap_traits@HUBonusCashInfo@ioBonusCashManager@@U?$less@H@std@@V?$allocator@U?$pair@$$CBHUBonusCashInfo@ioBonusCashManager@@@std@@@4@$0A@@std@@@std@@@std@@QAEAAV01@XZ ENDP ; std::_Tree_iterator<std::_Tree_val<std::_Tmap_traits<int,ioBonusCashManager::BonusCashInfo,std::less<int>,std::allocator<std::pair<int const ,ioBonusCashManager::BonusCashInfo> >,0> > >::operator--
_TEXT	ENDS
PUBLIC	??0?$pair@V?$_Tree_iterator@V?$_Tree_val@V?$_Tmap_traits@HUBonusCashInfo@ioBonusCashManager@@U?$less@H@std@@V?$allocator@U?$pair@$$CBHUBonusCashInfo@ioBonusCashManager@@@std@@@4@$0A@@std@@@std@@@std@@_N@std@@QAE@$$QAV?$_Tree_iterator@V?$_Tree_val@V?$_Tmap_traits@HUBonusCashInfo@ioBonusCashManager@@U?$less@H@std@@V?$allocator@U?$pair@$$CBHUBonusCashInfo@ioBonusCashManager@@@std@@@4@$0A@@std@@@std@@@1@$$QA_N@Z ; std::pair<std::_Tree_iterator<std::_Tree_val<std::_Tmap_traits<int,ioBonusCashManager::BonusCashInfo,std::less<int>,std::allocator<std::pair<int const ,ioBonusCashManager::BonusCashInfo> >,0> > >,bool>::pair<std::_Tree_iterator<std::_Tree_val<std::_Tmap_traits<int,ioBonusCashManager::BonusCashInfo,std::less<int>,std::allocator<std::pair<int const ,ioBonusCashManager::BonusCashInfo> >,0> > >,bool>
; Function compile flags: /Ogsp
; File c:\program files (x86)\microsoft visual studio 10.0\vc\include\utility
;	COMDAT ??0?$pair@V?$_Tree_iterator@V?$_Tree_val@V?$_Tmap_traits@HUBonusCashInfo@ioBonusCashManager@@U?$less@H@std@@V?$allocator@U?$pair@$$CBHUBonusCashInfo@ioBonusCashManager@@@std@@@4@$0A@@std@@@std@@@std@@_N@std@@QAE@$$QAV?$_Tree_iterator@V?$_Tree_val@V?$_Tmap_traits@HUBonusCashInfo@ioBonusCashManager@@U?$less@H@std@@V?$allocator@U?$pair@$$CBHUBonusCashInfo@ioBonusCashManager@@@std@@@4@$0A@@std@@@std@@@1@$$QA_N@Z
_TEXT	SEGMENT
__Val1$ = 8						; size = 4
__Val2$ = 12						; size = 4
??0?$pair@V?$_Tree_iterator@V?$_Tree_val@V?$_Tmap_traits@HUBonusCashInfo@ioBonusCashManager@@U?$less@H@std@@V?$allocator@U?$pair@$$CBHUBonusCashInfo@ioBonusCashManager@@@std@@@4@$0A@@std@@@std@@@std@@_N@std@@QAE@$$QAV?$_Tree_iterator@V?$_Tree_val@V?$_Tmap_traits@HUBonusCashInfo@ioBonusCashManager@@U?$less@H@std@@V?$allocator@U?$pair@$$CBHUBonusCashInfo@ioBonusCashManager@@@std@@@4@$0A@@std@@@std@@@1@$$QA_N@Z PROC ; std::pair<std::_Tree_iterator<std::_Tree_val<std::_Tmap_traits<int,ioBonusCashManager::BonusCashInfo,std::less<int>,std::allocator<std::pair<int const ,ioBonusCashManager::BonusCashInfo> >,0> > >,bool>::pair<std::_Tree_iterator<std::_Tree_val<std::_Tmap_traits<int,ioBonusCashManager::BonusCashInfo,std::less<int>,std::allocator<std::pair<int const ,ioBonusCashManager::BonusCashInfo> >,0> > >,bool>, COMDAT
; _this$ = ecx

; 227  : 		{	// construct from specified values

  00000	55		 push	 ebp
  00001	8b ec		 mov	 ebp, esp
  00003	8b c1		 mov	 eax, ecx
  00005	8b 4d 08	 mov	 ecx, DWORD PTR __Val1$[ebp]
  00008	8b 09		 mov	 ecx, DWORD PTR [ecx]
  0000a	89 08		 mov	 DWORD PTR [eax], ecx
  0000c	8b 4d 0c	 mov	 ecx, DWORD PTR __Val2$[ebp]
  0000f	8a 09		 mov	 cl, BYTE PTR [ecx]
  00011	88 48 04	 mov	 BYTE PTR [eax+4], cl

; 228  : 		}

  00014	5d		 pop	 ebp
  00015	c2 08 00	 ret	 8
??0?$pair@V?$_Tree_iterator@V?$_Tree_val@V?$_Tmap_traits@HUBonusCashInfo@ioBonusCashManager@@U?$less@H@std@@V?$allocator@U?$pair@$$CBHUBonusCashInfo@ioBonusCashManager@@@std@@@4@$0A@@std@@@std@@@std@@_N@std@@QAE@$$QAV?$_Tree_iterator@V?$_Tree_val@V?$_Tmap_traits@HUBonusCashInfo@ioBonusCashManager@@U?$less@H@std@@V?$allocator@U?$pair@$$CBHUBonusCashInfo@ioBonusCashManager@@@std@@@4@$0A@@std@@@std@@@1@$$QA_N@Z ENDP ; std::pair<std::_Tree_iterator<std::_Tree_val<std::_Tmap_traits<int,ioBonusCashManager::BonusCashInfo,std::less<int>,std::allocator<std::pair<int const ,ioBonusCashManager::BonusCashInfo> >,0> > >,bool>::pair<std::_Tree_iterator<std::_Tree_val<std::_Tmap_traits<int,ioBonusCashManager::BonusCashInfo,std::less<int>,std::allocator<std::pair<int const ,ioBonusCashManager::BonusCashInfo> >,0> > >,bool>
_TEXT	ENDS
PUBLIC	??$?0AAV?$_Tree_iterator@V?$_Tree_val@V?$_Tmap_traits@HUBonusCashInfo@ioBonusCashManager@@U?$less@H@std@@V?$allocator@U?$pair@$$CBHUBonusCashInfo@ioBonusCashManager@@@std@@@4@$0A@@std@@@std@@@std@@_N@?$pair@V?$_Tree_iterator@V?$_Tree_val@V?$_Tmap_traits@HUBonusCashInfo@ioBonusCashManager@@U?$less@H@std@@V?$allocator@U?$pair@$$CBHUBonusCashInfo@ioBonusCashManager@@@std@@@4@$0A@@std@@@std@@@std@@_N@std@@QAE@AAV?$_Tree_iterator@V?$_Tree_val@V?$_Tmap_traits@HUBonusCashInfo@ioBonusCashManager@@U?$less@H@std@@V?$allocator@U?$pair@$$CBHUBonusCashInfo@ioBonusCashManager@@@std@@@4@$0A@@std@@@std@@@1@$$QA_N@Z ; std::pair<std::_Tree_iterator<std::_Tree_val<std::_Tmap_traits<int,ioBonusCashManager::BonusCashInfo,std::less<int>,std::allocator<std::pair<int const ,ioBonusCashManager::BonusCashInfo> >,0> > >,bool>::pair<std::_Tree_iterator<std::_Tree_val<std::_Tmap_traits<int,ioBonusCashManager::BonusCashInfo,std::less<int>,std::allocator<std::pair<int const ,ioBonusCashManager::BonusCashInfo> >,0> > >,bool><std::_Tree_iterator<std::_Tree_val<std::_Tmap_traits<int,ioBonusCashManager::BonusCashInfo,std::less<int>,std::allocator<std::pair<int const ,ioBonusCashManager::BonusCashInfo> >,0> > > &,bool>
; Function compile flags: /Ogsp
;	COMDAT ??$?0AAV?$_Tree_iterator@V?$_Tree_val@V?$_Tmap_traits@HUBonusCashInfo@ioBonusCashManager@@U?$less@H@std@@V?$allocator@U?$pair@$$CBHUBonusCashInfo@ioBonusCashManager@@@std@@@4@$0A@@std@@@std@@@std@@_N@?$pair@V?$_Tree_iterator@V?$_Tree_val@V?$_Tmap_traits@HUBonusCashInfo@ioBonusCashManager@@U?$less@H@std@@V?$allocator@U?$pair@$$CBHUBonusCashInfo@ioBonusCashManager@@@std@@@4@$0A@@std@@@std@@@std@@_N@std@@QAE@AAV?$_Tree_iterator@V?$_Tree_val@V?$_Tmap_traits@HUBonusCashInfo@ioBonusCashManager@@U?$less@H@std@@V?$allocator@U?$pair@$$CBHUBonusCashInfo@ioBonusCashManager@@@std@@@4@$0A@@std@@@std@@@1@$$QA_N@Z
_TEXT	SEGMENT
__Val1$ = 8						; size = 4
__Val2$ = 12						; size = 4
??$?0AAV?$_Tree_iterator@V?$_Tree_val@V?$_Tmap_traits@HUBonusCashInfo@ioBonusCashManager@@U?$less@H@std@@V?$allocator@U?$pair@$$CBHUBonusCashInfo@ioBonusCashManager@@@std@@@4@$0A@@std@@@std@@@std@@_N@?$pair@V?$_Tree_iterator@V?$_Tree_val@V?$_Tmap_traits@HUBonusCashInfo@ioBonusCashManager@@U?$less@H@std@@V?$allocator@U?$pair@$$CBHUBonusCashInfo@ioBonusCashManager@@@std@@@4@$0A@@std@@@std@@@std@@_N@std@@QAE@AAV?$_Tree_iterator@V?$_Tree_val@V?$_Tmap_traits@HUBonusCashInfo@ioBonusCashManager@@U?$less@H@std@@V?$allocator@U?$pair@$$CBHUBonusCashInfo@ioBonusCashManager@@@std@@@4@$0A@@std@@@std@@@1@$$QA_N@Z PROC ; std::pair<std::_Tree_iterator<std::_Tree_val<std::_Tmap_traits<int,ioBonusCashManager::BonusCashInfo,std::less<int>,std::allocator<std::pair<int const ,ioBonusCashManager::BonusCashInfo> >,0> > >,bool>::pair<std::_Tree_iterator<std::_Tree_val<std::_Tmap_traits<int,ioBonusCashManager::BonusCashInfo,std::less<int>,std::allocator<std::pair<int const ,ioBonusCashManager::BonusCashInfo> >,0> > >,bool><std::_Tree_iterator<std::_Tree_val<std::_Tmap_traits<int,ioBonusCashManager::BonusCashInfo,std::less<int>,std::allocator<std::pair<int const ,ioBonusCashManager::BonusCashInfo> >,0> > > &,bool>, COMDAT
; _this$ = ecx

; 247  : 		{	// construct from moved values

  00000	55		 push	 ebp
  00001	8b ec		 mov	 ebp, esp
  00003	8b c1		 mov	 eax, ecx
  00005	8b 4d 08	 mov	 ecx, DWORD PTR __Val1$[ebp]
  00008	8b 09		 mov	 ecx, DWORD PTR [ecx]
  0000a	89 08		 mov	 DWORD PTR [eax], ecx
  0000c	8b 4d 0c	 mov	 ecx, DWORD PTR __Val2$[ebp]
  0000f	8a 09		 mov	 cl, BYTE PTR [ecx]
  00011	88 48 04	 mov	 BYTE PTR [eax+4], cl

; 248  : 		}

  00014	5d		 pop	 ebp
  00015	c2 08 00	 ret	 8
??$?0AAV?$_Tree_iterator@V?$_Tree_val@V?$_Tmap_traits@HUBonusCashInfo@ioBonusCashManager@@U?$less@H@std@@V?$allocator@U?$pair@$$CBHUBonusCashInfo@ioBonusCashManager@@@std@@@4@$0A@@std@@@std@@@std@@_N@?$pair@V?$_Tree_iterator@V?$_Tree_val@V?$_Tmap_traits@HUBonusCashInfo@ioBonusCashManager@@U?$less@H@std@@V?$allocator@U?$pair@$$CBHUBonusCashInfo@ioBonusCashManager@@@std@@@4@$0A@@std@@@std@@@std@@_N@std@@QAE@AAV?$_Tree_iterator@V?$_Tree_val@V?$_Tmap_traits@HUBonusCashInfo@ioBonusCashManager@@U?$less@H@std@@V?$allocator@U?$pair@$$CBHUBonusCashInfo@ioBonusCashManager@@@std@@@4@$0A@@std@@@std@@@1@$$QA_N@Z ENDP ; std::pair<std::_Tree_iterator<std::_Tree_val<std::_Tmap_traits<int,ioBonusCashManager::BonusCashInfo,std::less<int>,std::allocator<std::pair<int const ,ioBonusCashManager::BonusCashInfo> >,0> > >,bool>::pair<std::_Tree_iterator<std::_Tree_val<std::_Tmap_traits<int,ioBonusCashManager::BonusCashInfo,std::less<int>,std::allocator<std::pair<int const ,ioBonusCashManager::BonusCashInfo> >,0> > >,bool><std::_Tree_iterator<std::_Tree_val<std::_Tmap_traits<int,ioBonusCashManager::BonusCashInfo,std::less<int>,std::allocator<std::pair<int const ,ioBonusCashManager::BonusCashInfo> >,0> > > &,bool>
_TEXT	ENDS
PUBLIC	??$?0$$CBHUBonusCashInfo@ioBonusCashManager@@@?$pair@$$CBHUBonusCashInfo@ioBonusCashManager@@@std@@QAE@$$QAU01@@Z ; std::pair<int const ,ioBonusCashManager::BonusCashInfo>::pair<int const ,ioBonusCashManager::BonusCashInfo><int const ,ioBonusCashManager::BonusCashInfo>
; Function compile flags: /Ogsp
;	COMDAT ??$?0$$CBHUBonusCashInfo@ioBonusCashManager@@@?$pair@$$CBHUBonusCashInfo@ioBonusCashManager@@@std@@QAE@$$QAU01@@Z
_TEXT	SEGMENT
__Right$ = 8						; size = 4
??$?0$$CBHUBonusCashInfo@ioBonusCashManager@@@?$pair@$$CBHUBonusCashInfo@ioBonusCashManager@@@std@@QAE@$$QAU01@@Z PROC ; std::pair<int const ,ioBonusCashManager::BonusCashInfo>::pair<int const ,ioBonusCashManager::BonusCashInfo><int const ,ioBonusCashManager::BonusCashInfo>, COMDAT
; _this$ = ecx

; 255  : 		{	// construct from moved compatible pair

  00000	55		 push	 ebp
  00001	8b ec		 mov	 ebp, esp
  00003	56		 push	 esi
  00004	57		 push	 edi
  00005	8b c1		 mov	 eax, ecx
  00007	8b 4d 08	 mov	 ecx, DWORD PTR __Right$[ebp]
  0000a	8b 11		 mov	 edx, DWORD PTR [ecx]
  0000c	89 10		 mov	 DWORD PTR [eax], edx
  0000e	8d 71 04	 lea	 esi, DWORD PTR [ecx+4]
  00011	8d 78 04	 lea	 edi, DWORD PTR [eax+4]
  00014	a5		 movsd
  00015	a5		 movsd
  00016	a5		 movsd
  00017	a5		 movsd
  00018	5f		 pop	 edi
  00019	5e		 pop	 esi

; 256  : 		}

  0001a	5d		 pop	 ebp
  0001b	c2 04 00	 ret	 4
??$?0$$CBHUBonusCashInfo@ioBonusCashManager@@@?$pair@$$CBHUBonusCashInfo@ioBonusCashManager@@@std@@QAE@$$QAU01@@Z ENDP ; std::pair<int const ,ioBonusCashManager::BonusCashInfo>::pair<int const ,ioBonusCashManager::BonusCashInfo><int const ,ioBonusCashManager::BonusCashInfo>
_TEXT	ENDS
PUBLIC	?begin@?$_Tree@V?$_Tmap_traits@HUBonusCashInfo@ioBonusCashManager@@U?$less@H@std@@V?$allocator@U?$pair@$$CBHUBonusCashInfo@ioBonusCashManager@@@std@@@4@$0A@@std@@@std@@QBE?AV?$_Tree_const_iterator@V?$_Tree_val@V?$_Tmap_traits@HUBonusCashInfo@ioBonusCashManager@@U?$less@H@std@@V?$allocator@U?$pair@$$CBHUBonusCashInfo@ioBonusCashManager@@@std@@@4@$0A@@std@@@std@@@2@XZ ; std::_Tree<std::_Tmap_traits<int,ioBonusCashManager::BonusCashInfo,std::less<int>,std::allocator<std::pair<int const ,ioBonusCashManager::BonusCashInfo> >,0> >::begin
; Function compile flags: /Ogsp
; File c:\program files (x86)\microsoft visual studio 10.0\vc\include\xtree
;	COMDAT ?begin@?$_Tree@V?$_Tmap_traits@HUBonusCashInfo@ioBonusCashManager@@U?$less@H@std@@V?$allocator@U?$pair@$$CBHUBonusCashInfo@ioBonusCashManager@@@std@@@4@$0A@@std@@@std@@QBE?AV?$_Tree_const_iterator@V?$_Tree_val@V?$_Tmap_traits@HUBonusCashInfo@ioBonusCashManager@@U?$less@H@std@@V?$allocator@U?$pair@$$CBHUBonusCashInfo@ioBonusCashManager@@@std@@@4@$0A@@std@@@std@@@2@XZ
_TEXT	SEGMENT
___$ReturnUdt$ = 8					; size = 4
?begin@?$_Tree@V?$_Tmap_traits@HUBonusCashInfo@ioBonusCashManager@@U?$less@H@std@@V?$allocator@U?$pair@$$CBHUBonusCashInfo@ioBonusCashManager@@@std@@@4@$0A@@std@@@std@@QBE?AV?$_Tree_const_iterator@V?$_Tree_val@V?$_Tmap_traits@HUBonusCashInfo@ioBonusCashManager@@U?$less@H@std@@V?$allocator@U?$pair@$$CBHUBonusCashInfo@ioBonusCashManager@@@std@@@4@$0A@@std@@@std@@@2@XZ PROC ; std::_Tree<std::_Tmap_traits<int,ioBonusCashManager::BonusCashInfo,std::less<int>,std::allocator<std::pair<int const ,ioBonusCashManager::BonusCashInfo> >,0> >::begin, COMDAT
; _this$ = ecx

; 811  : 		{	// return iterator for beginning of nonmutable sequence

  00000	55		 push	 ebp
  00001	8b ec		 mov	 ebp, esp

; 812  : 		return (const_iterator(_Lmost(), this));

  00003	8b 41 04	 mov	 eax, DWORD PTR [ecx+4]
  00006	8b 08		 mov	 ecx, DWORD PTR [eax]
  00008	8b 45 08	 mov	 eax, DWORD PTR ___$ReturnUdt$[ebp]
  0000b	89 08		 mov	 DWORD PTR [eax], ecx

; 813  : 		}

  0000d	5d		 pop	 ebp
  0000e	c2 04 00	 ret	 4
?begin@?$_Tree@V?$_Tmap_traits@HUBonusCashInfo@ioBonusCashManager@@U?$less@H@std@@V?$allocator@U?$pair@$$CBHUBonusCashInfo@ioBonusCashManager@@@std@@@4@$0A@@std@@@std@@QBE?AV?$_Tree_const_iterator@V?$_Tree_val@V?$_Tmap_traits@HUBonusCashInfo@ioBonusCashManager@@U?$less@H@std@@V?$allocator@U?$pair@$$CBHUBonusCashInfo@ioBonusCashManager@@@std@@@4@$0A@@std@@@std@@@2@XZ ENDP ; std::_Tree<std::_Tmap_traits<int,ioBonusCashManager::BonusCashInfo,std::less<int>,std::allocator<std::pair<int const ,ioBonusCashManager::BonusCashInfo> >,0> >::begin
_TEXT	ENDS
PUBLIC	?end@?$_Tree@V?$_Tmap_traits@HUBonusCashInfo@ioBonusCashManager@@U?$less@H@std@@V?$allocator@U?$pair@$$CBHUBonusCashInfo@ioBonusCashManager@@@std@@@4@$0A@@std@@@std@@QBE?AV?$_Tree_const_iterator@V?$_Tree_val@V?$_Tmap_traits@HUBonusCashInfo@ioBonusCashManager@@U?$less@H@std@@V?$allocator@U?$pair@$$CBHUBonusCashInfo@ioBonusCashManager@@@std@@@4@$0A@@std@@@std@@@2@XZ ; std::_Tree<std::_Tmap_traits<int,ioBonusCashManager::BonusCashInfo,std::less<int>,std::allocator<std::pair<int const ,ioBonusCashManager::BonusCashInfo> >,0> >::end
; Function compile flags: /Ogsp
;	COMDAT ?end@?$_Tree@V?$_Tmap_traits@HUBonusCashInfo@ioBonusCashManager@@U?$less@H@std@@V?$allocator@U?$pair@$$CBHUBonusCashInfo@ioBonusCashManager@@@std@@@4@$0A@@std@@@std@@QBE?AV?$_Tree_const_iterator@V?$_Tree_val@V?$_Tmap_traits@HUBonusCashInfo@ioBonusCashManager@@U?$less@H@std@@V?$allocator@U?$pair@$$CBHUBonusCashInfo@ioBonusCashManager@@@std@@@4@$0A@@std@@@std@@@2@XZ
_TEXT	SEGMENT
___$ReturnUdt$ = 8					; size = 4
?end@?$_Tree@V?$_Tmap_traits@HUBonusCashInfo@ioBonusCashManager@@U?$less@H@std@@V?$allocator@U?$pair@$$CBHUBonusCashInfo@ioBonusCashManager@@@std@@@4@$0A@@std@@@std@@QBE?AV?$_Tree_const_iterator@V?$_Tree_val@V?$_Tmap_traits@HUBonusCashInfo@ioBonusCashManager@@U?$less@H@std@@V?$allocator@U?$pair@$$CBHUBonusCashInfo@ioBonusCashManager@@@std@@@4@$0A@@std@@@std@@@2@XZ PROC ; std::_Tree<std::_Tmap_traits<int,ioBonusCashManager::BonusCashInfo,std::less<int>,std::allocator<std::pair<int const ,ioBonusCashManager::BonusCashInfo> >,0> >::end, COMDAT
; _this$ = ecx

; 821  : 		{	// return iterator for end of nonmutable sequence

  00000	55		 push	 ebp
  00001	8b ec		 mov	 ebp, esp

; 822  : 		return (const_iterator(this->_Myhead, this));

  00003	8b 49 04	 mov	 ecx, DWORD PTR [ecx+4]
  00006	8b 45 08	 mov	 eax, DWORD PTR ___$ReturnUdt$[ebp]
  00009	89 08		 mov	 DWORD PTR [eax], ecx

; 823  : 		}

  0000b	5d		 pop	 ebp
  0000c	c2 04 00	 ret	 4
?end@?$_Tree@V?$_Tmap_traits@HUBonusCashInfo@ioBonusCashManager@@U?$less@H@std@@V?$allocator@U?$pair@$$CBHUBonusCashInfo@ioBonusCashManager@@@std@@@4@$0A@@std@@@std@@QBE?AV?$_Tree_const_iterator@V?$_Tree_val@V?$_Tmap_traits@HUBonusCashInfo@ioBonusCashManager@@U?$less@H@std@@V?$allocator@U?$pair@$$CBHUBonusCashInfo@ioBonusCashManager@@@std@@@4@$0A@@std@@@std@@@2@XZ ENDP ; std::_Tree<std::_Tmap_traits<int,ioBonusCashManager::BonusCashInfo,std::less<int>,std::allocator<std::pair<int const ,ioBonusCashManager::BonusCashInfo> >,0> >::end
_TEXT	ENDS
PUBLIC	??0?$_Tree@V?$_Tmap_traits@HUBonusCashInfo@ioBonusCashManager@@U?$less@H@std@@V?$allocator@U?$pair@$$CBHUBonusCashInfo@ioBonusCashManager@@@std@@@4@$0A@@std@@@std@@QAE@ABU?$less@H@1@ABV?$allocator@U?$pair@$$CBHUBonusCashInfo@ioBonusCashManager@@@std@@@1@@Z ; std::_Tree<std::_Tmap_traits<int,ioBonusCashManager::BonusCashInfo,std::less<int>,std::allocator<std::pair<int const ,ioBonusCashManager::BonusCashInfo> >,0> >::_Tree<std::_Tmap_traits<int,ioBonusCashManager::BonusCashInfo,std::less<int>,std::allocator<std::pair<int const ,ioBonusCashManager::BonusCashInfo> >,0> >
; Function compile flags: /Ogsp
;	COMDAT ??0?$_Tree@V?$_Tmap_traits@HUBonusCashInfo@ioBonusCashManager@@U?$less@H@std@@V?$allocator@U?$pair@$$CBHUBonusCashInfo@ioBonusCashManager@@@std@@@4@$0A@@std@@@std@@QAE@ABU?$less@H@1@ABV?$allocator@U?$pair@$$CBHUBonusCashInfo@ioBonusCashManager@@@std@@@1@@Z
_TEXT	SEGMENT
$T508412 = -4						; size = 4
$T508407 = -4						; size = 4
__Parg$ = 8						; size = 4
__Al$ = 12						; size = 4
??0?$_Tree@V?$_Tmap_traits@HUBonusCashInfo@ioBonusCashManager@@U?$less@H@std@@V?$allocator@U?$pair@$$CBHUBonusCashInfo@ioBonusCashManager@@@std@@@4@$0A@@std@@@std@@QAE@ABU?$less@H@1@ABV?$allocator@U?$pair@$$CBHUBonusCashInfo@ioBonusCashManager@@@std@@@1@@Z PROC ; std::_Tree<std::_Tmap_traits<int,ioBonusCashManager::BonusCashInfo,std::less<int>,std::allocator<std::pair<int const ,ioBonusCashManager::BonusCashInfo> >,0> >::_Tree<std::_Tmap_traits<int,ioBonusCashManager::BonusCashInfo,std::less<int>,std::allocator<std::pair<int const ,ioBonusCashManager::BonusCashInfo> >,0> >, COMDAT
; _this$ = ecx

; 698  : 		{	// construct empty tree

  00000	55		 push	 ebp
  00001	8b ec		 mov	 ebp, esp
  00003	51		 push	 ecx
  00004	56		 push	 esi
  00005	51		 push	 ecx
  00006	89 65 fc	 mov	 DWORD PTR $T508407[ebp], esp
  00009	89 65 fc	 mov	 DWORD PTR $T508412[ebp], esp
  0000c	ff 75 08	 push	 DWORD PTR __Parg$[ebp]
  0000f	8b f1		 mov	 esi, ecx
  00011	e8 00 00 00 00	 call	 ??0?$_Tree_val@V?$_Tmap_traits@HUBonusCashInfo@ioBonusCashManager@@U?$less@H@std@@V?$allocator@U?$pair@$$CBHUBonusCashInfo@ioBonusCashManager@@@std@@@4@$0A@@std@@@std@@QAE@ABU?$less@H@1@V?$allocator@U?$pair@$$CBHUBonusCashInfo@ioBonusCashManager@@@std@@@1@@Z ; std::_Tree_val<std::_Tmap_traits<int,ioBonusCashManager::BonusCashInfo,std::less<int>,std::allocator<std::pair<int const ,ioBonusCashManager::BonusCashInfo> >,0> >::_Tree_val<std::_Tmap_traits<int,ioBonusCashManager::BonusCashInfo,std::less<int>,std::allocator<std::pair<int const ,ioBonusCashManager::BonusCashInfo> >,0> >

; 699  : 		}

  00016	8b c6		 mov	 eax, esi
  00018	5e		 pop	 esi
  00019	c9		 leave
  0001a	c2 08 00	 ret	 8
??0?$_Tree@V?$_Tmap_traits@HUBonusCashInfo@ioBonusCashManager@@U?$less@H@std@@V?$allocator@U?$pair@$$CBHUBonusCashInfo@ioBonusCashManager@@@std@@@4@$0A@@std@@@std@@QAE@ABU?$less@H@1@ABV?$allocator@U?$pair@$$CBHUBonusCashInfo@ioBonusCashManager@@@std@@@1@@Z ENDP ; std::_Tree<std::_Tmap_traits<int,ioBonusCashManager::BonusCashInfo,std::less<int>,std::allocator<std::pair<int const ,ioBonusCashManager::BonusCashInfo> >,0> >::_Tree<std::_Tmap_traits<int,ioBonusCashManager::BonusCashInfo,std::less<int>,std::allocator<std::pair<int const ,ioBonusCashManager::BonusCashInfo> >,0> >
_TEXT	ENDS
PUBLIC	?lower_bound@?$_Tree@V?$_Tmap_traits@HUBonusCashInfo@ioBonusCashManager@@U?$less@H@std@@V?$allocator@U?$pair@$$CBHUBonusCashInfo@ioBonusCashManager@@@std@@@4@$0A@@std@@@std@@QBE?AV?$_Tree_const_iterator@V?$_Tree_val@V?$_Tmap_traits@HUBonusCashInfo@ioBonusCashManager@@U?$less@H@std@@V?$allocator@U?$pair@$$CBHUBonusCashInfo@ioBonusCashManager@@@std@@@4@$0A@@std@@@std@@@2@ABH@Z ; std::_Tree<std::_Tmap_traits<int,ioBonusCashManager::BonusCashInfo,std::less<int>,std::allocator<std::pair<int const ,ioBonusCashManager::BonusCashInfo> >,0> >::lower_bound
; Function compile flags: /Ogsp
;	COMDAT ?lower_bound@?$_Tree@V?$_Tmap_traits@HUBonusCashInfo@ioBonusCashManager@@U?$less@H@std@@V?$allocator@U?$pair@$$CBHUBonusCashInfo@ioBonusCashManager@@@std@@@4@$0A@@std@@@std@@QBE?AV?$_Tree_const_iterator@V?$_Tree_val@V?$_Tmap_traits@HUBonusCashInfo@ioBonusCashManager@@U?$less@H@std@@V?$allocator@U?$pair@$$CBHUBonusCashInfo@ioBonusCashManager@@@std@@@4@$0A@@std@@@std@@@2@ABH@Z
_TEXT	SEGMENT
___$ReturnUdt$ = 8					; size = 4
__Keyval$ = 12						; size = 4
?lower_bound@?$_Tree@V?$_Tmap_traits@HUBonusCashInfo@ioBonusCashManager@@U?$less@H@std@@V?$allocator@U?$pair@$$CBHUBonusCashInfo@ioBonusCashManager@@@std@@@4@$0A@@std@@@std@@QBE?AV?$_Tree_const_iterator@V?$_Tree_val@V?$_Tmap_traits@HUBonusCashInfo@ioBonusCashManager@@U?$less@H@std@@V?$allocator@U?$pair@$$CBHUBonusCashInfo@ioBonusCashManager@@@std@@@4@$0A@@std@@@std@@@2@ABH@Z PROC ; std::_Tree<std::_Tmap_traits<int,ioBonusCashManager::BonusCashInfo,std::less<int>,std::allocator<std::pair<int const ,ioBonusCashManager::BonusCashInfo> >,0> >::lower_bound, COMDAT
; _this$ = ecx

; 1454 : 		{	// find leftmost node not less than _Keyval in nonmutable tree

  00000	55		 push	 ebp
  00001	8b ec		 mov	 ebp, esp

; 1455 : 		return (const_iterator(_Lbound(_Keyval), this));

  00003	ff 75 0c	 push	 DWORD PTR __Keyval$[ebp]
  00006	e8 00 00 00 00	 call	 ?_Lbound@?$_Tree@V?$_Tmap_traits@HUBonusCashInfo@ioBonusCashManager@@U?$less@H@std@@V?$allocator@U?$pair@$$CBHUBonusCashInfo@ioBonusCashManager@@@std@@@4@$0A@@std@@@std@@IBEPAU_Node@?$_Tree_nod@V?$_Tmap_traits@HUBonusCashInfo@ioBonusCashManager@@U?$less@H@std@@V?$allocator@U?$pair@$$CBHUBonusCashInfo@ioBonusCashManager@@@std@@@4@$0A@@std@@@2@ABH@Z ; std::_Tree<std::_Tmap_traits<int,ioBonusCashManager::BonusCashInfo,std::less<int>,std::allocator<std::pair<int const ,ioBonusCashManager::BonusCashInfo> >,0> >::_Lbound
  0000b	8b 4d 08	 mov	 ecx, DWORD PTR ___$ReturnUdt$[ebp]
  0000e	89 01		 mov	 DWORD PTR [ecx], eax
  00010	8b c1		 mov	 eax, ecx

; 1456 : 		}

  00012	5d		 pop	 ebp
  00013	c2 08 00	 ret	 8
?lower_bound@?$_Tree@V?$_Tmap_traits@HUBonusCashInfo@ioBonusCashManager@@U?$less@H@std@@V?$allocator@U?$pair@$$CBHUBonusCashInfo@ioBonusCashManager@@@std@@@4@$0A@@std@@@std@@QBE?AV?$_Tree_const_iterator@V?$_Tree_val@V?$_Tmap_traits@HUBonusCashInfo@ioBonusCashManager@@U?$less@H@std@@V?$allocator@U?$pair@$$CBHUBonusCashInfo@ioBonusCashManager@@@std@@@4@$0A@@std@@@std@@@2@ABH@Z ENDP ; std::_Tree<std::_Tmap_traits<int,ioBonusCashManager::BonusCashInfo,std::less<int>,std::allocator<std::pair<int const ,ioBonusCashManager::BonusCashInfo> >,0> >::lower_bound
_TEXT	ENDS
PUBLIC	?_Erase@?$_Tree@V?$_Tmap_traits@HUBonusCashInfo@ioBonusCashManager@@U?$less@H@std@@V?$allocator@U?$pair@$$CBHUBonusCashInfo@ioBonusCashManager@@@std@@@4@$0A@@std@@@std@@IAEXPAU_Node@?$_Tree_nod@V?$_Tmap_traits@HUBonusCashInfo@ioBonusCashManager@@U?$less@H@std@@V?$allocator@U?$pair@$$CBHUBonusCashInfo@ioBonusCashManager@@@std@@@4@$0A@@std@@@2@@Z ; std::_Tree<std::_Tmap_traits<int,ioBonusCashManager::BonusCashInfo,std::less<int>,std::allocator<std::pair<int const ,ioBonusCashManager::BonusCashInfo> >,0> >::_Erase
; Function compile flags: /Ogsp
;	COMDAT ?_Erase@?$_Tree@V?$_Tmap_traits@HUBonusCashInfo@ioBonusCashManager@@U?$less@H@std@@V?$allocator@U?$pair@$$CBHUBonusCashInfo@ioBonusCashManager@@@std@@@4@$0A@@std@@@std@@IAEXPAU_Node@?$_Tree_nod@V?$_Tmap_traits@HUBonusCashInfo@ioBonusCashManager@@U?$less@H@std@@V?$allocator@U?$pair@$$CBHUBonusCashInfo@ioBonusCashManager@@@std@@@4@$0A@@std@@@2@@Z
_TEXT	SEGMENT
__Rootnode$ = 8						; size = 4
?_Erase@?$_Tree@V?$_Tmap_traits@HUBonusCashInfo@ioBonusCashManager@@U?$less@H@std@@V?$allocator@U?$pair@$$CBHUBonusCashInfo@ioBonusCashManager@@@std@@@4@$0A@@std@@@std@@IAEXPAU_Node@?$_Tree_nod@V?$_Tmap_traits@HUBonusCashInfo@ioBonusCashManager@@U?$less@H@std@@V?$allocator@U?$pair@$$CBHUBonusCashInfo@ioBonusCashManager@@@std@@@4@$0A@@std@@@2@@Z PROC ; std::_Tree<std::_Tmap_traits<int,ioBonusCashManager::BonusCashInfo,std::less<int>,std::allocator<std::pair<int const ,ioBonusCashManager::BonusCashInfo> >,0> >::_Erase, COMDAT
; _this$ = ecx

; 1610 : 		{	// free entire subtree, recursively

  00000	55		 push	 ebp
  00001	8b ec		 mov	 ebp, esp
  00003	53		 push	 ebx
  00004	56		 push	 esi
  00005	57		 push	 edi

; 1611 : 		for (_Nodeptr _Pnode = _Rootnode;

  00006	8b 7d 08	 mov	 edi, DWORD PTR __Rootnode$[ebp]

; 1612 : 			!this->_Isnil(_Pnode); _Rootnode = _Pnode)

  00009	80 7f 21 00	 cmp	 BYTE PTR [edi+33], 0
  0000d	8b d9		 mov	 ebx, ecx
  0000f	8b f7		 mov	 esi, edi
  00011	75 1b		 jne	 SHORT $LN1@Erase
$LL3@Erase:

; 1613 : 			{	// free subtrees, then node
; 1614 : 			_Erase(this->_Right(_Pnode));

  00013	ff 76 08	 push	 DWORD PTR [esi+8]
  00016	8b cb		 mov	 ecx, ebx
  00018	e8 00 00 00 00	 call	 ?_Erase@?$_Tree@V?$_Tmap_traits@HUBonusCashInfo@ioBonusCashManager@@U?$less@H@std@@V?$allocator@U?$pair@$$CBHUBonusCashInfo@ioBonusCashManager@@@std@@@4@$0A@@std@@@std@@IAEXPAU_Node@?$_Tree_nod@V?$_Tmap_traits@HUBonusCashInfo@ioBonusCashManager@@U?$less@H@std@@V?$allocator@U?$pair@$$CBHUBonusCashInfo@ioBonusCashManager@@@std@@@4@$0A@@std@@@2@@Z ; std::_Tree<std::_Tmap_traits<int,ioBonusCashManager::BonusCashInfo,std::less<int>,std::allocator<std::pair<int const ,ioBonusCashManager::BonusCashInfo> >,0> >::_Erase

; 1615 : 			_Pnode = this->_Left(_Pnode);

  0001d	8b 36		 mov	 esi, DWORD PTR [esi]

; 1616 : 			_Dest_val(this->_Alval,
; 1617 : 				_STD addressof(this->_Myval(_Rootnode)));
; 1618 : 
; 1619 : 			this->_Alnod.deallocate(_Rootnode, 1);

  0001f	57		 push	 edi
  00020	e8 00 00 00 00	 call	 ??3@YAXPAX@Z		; operator delete
  00025	80 7e 21 00	 cmp	 BYTE PTR [esi+33], 0
  00029	59		 pop	 ecx
  0002a	8b fe		 mov	 edi, esi
  0002c	74 e5		 je	 SHORT $LL3@Erase
$LN1@Erase:
  0002e	5f		 pop	 edi
  0002f	5e		 pop	 esi
  00030	5b		 pop	 ebx

; 1620 : 			}
; 1621 : 		}

  00031	5d		 pop	 ebp
  00032	c2 04 00	 ret	 4
?_Erase@?$_Tree@V?$_Tmap_traits@HUBonusCashInfo@ioBonusCashManager@@U?$less@H@std@@V?$allocator@U?$pair@$$CBHUBonusCashInfo@ioBonusCashManager@@@std@@@4@$0A@@std@@@std@@IAEXPAU_Node@?$_Tree_nod@V?$_Tmap_traits@HUBonusCashInfo@ioBonusCashManager@@U?$less@H@std@@V?$allocator@U?$pair@$$CBHUBonusCashInfo@ioBonusCashManager@@@std@@@4@$0A@@std@@@2@@Z ENDP ; std::_Tree<std::_Tmap_traits<int,ioBonusCashManager::BonusCashInfo,std::less<int>,std::allocator<std::pair<int const ,ioBonusCashManager::BonusCashInfo> >,0> >::_Erase
_TEXT	ENDS
PUBLIC	??0?$_Tree_iterator@V?$_Tree_val@V?$_Tmap_traits@HUBonusCashInfo@ioBonusCashManager@@U?$less@H@std@@V?$allocator@U?$pair@$$CBHUBonusCashInfo@ioBonusCashManager@@@std@@@4@$0A@@std@@@std@@@std@@QAE@PAU_Node@?$_Tree_nod@V?$_Tmap_traits@HUBonusCashInfo@ioBonusCashManager@@U?$less@H@std@@V?$allocator@U?$pair@$$CBHUBonusCashInfo@ioBonusCashManager@@@std@@@4@$0A@@std@@@1@PBV?$_Tree_val@V?$_Tmap_traits@HUBonusCashInfo@ioBonusCashManager@@U?$less@H@std@@V?$allocator@U?$pair@$$CBHUBonusCashInfo@ioBonusCashManager@@@std@@@4@$0A@@std@@@1@@Z ; std::_Tree_iterator<std::_Tree_val<std::_Tmap_traits<int,ioBonusCashManager::BonusCashInfo,std::less<int>,std::allocator<std::pair<int const ,ioBonusCashManager::BonusCashInfo> >,0> > >::_Tree_iterator<std::_Tree_val<std::_Tmap_traits<int,ioBonusCashManager::BonusCashInfo,std::less<int>,std::allocator<std::pair<int const ,ioBonusCashManager::BonusCashInfo> >,0> > >
; Function compile flags: /Ogsp
;	COMDAT ??0?$_Tree_iterator@V?$_Tree_val@V?$_Tmap_traits@HUBonusCashInfo@ioBonusCashManager@@U?$less@H@std@@V?$allocator@U?$pair@$$CBHUBonusCashInfo@ioBonusCashManager@@@std@@@4@$0A@@std@@@std@@@std@@QAE@PAU_Node@?$_Tree_nod@V?$_Tmap_traits@HUBonusCashInfo@ioBonusCashManager@@U?$less@H@std@@V?$allocator@U?$pair@$$CBHUBonusCashInfo@ioBonusCashManager@@@std@@@4@$0A@@std@@@1@PBV?$_Tree_val@V?$_Tmap_traits@HUBonusCashInfo@ioBonusCashManager@@U?$less@H@std@@V?$allocator@U?$pair@$$CBHUBonusCashInfo@ioBonusCashManager@@@std@@@4@$0A@@std@@@1@@Z
_TEXT	SEGMENT
__Pnode$ = 8						; size = 4
__Plist$ = 12						; size = 4
??0?$_Tree_iterator@V?$_Tree_val@V?$_Tmap_traits@HUBonusCashInfo@ioBonusCashManager@@U?$less@H@std@@V?$allocator@U?$pair@$$CBHUBonusCashInfo@ioBonusCashManager@@@std@@@4@$0A@@std@@@std@@@std@@QAE@PAU_Node@?$_Tree_nod@V?$_Tmap_traits@HUBonusCashInfo@ioBonusCashManager@@U?$less@H@std@@V?$allocator@U?$pair@$$CBHUBonusCashInfo@ioBonusCashManager@@@std@@@4@$0A@@std@@@1@PBV?$_Tree_val@V?$_Tmap_traits@HUBonusCashInfo@ioBonusCashManager@@U?$less@H@std@@V?$allocator@U?$pair@$$CBHUBonusCashInfo@ioBonusCashManager@@@std@@@4@$0A@@std@@@1@@Z PROC ; std::_Tree_iterator<std::_Tree_val<std::_Tmap_traits<int,ioBonusCashManager::BonusCashInfo,std::less<int>,std::allocator<std::pair<int const ,ioBonusCashManager::BonusCashInfo> >,0> > >::_Tree_iterator<std::_Tree_val<std::_Tmap_traits<int,ioBonusCashManager::BonusCashInfo,std::less<int>,std::allocator<std::pair<int const ,ioBonusCashManager::BonusCashInfo> >,0> > >, COMDAT
; _this$ = ecx

; 378  : 		{	// construct with node pointer _Pnode

  00000	55		 push	 ebp
  00001	8b ec		 mov	 ebp, esp
  00003	8b c1		 mov	 eax, ecx
  00005	8b 4d 08	 mov	 ecx, DWORD PTR __Pnode$[ebp]
  00008	89 08		 mov	 DWORD PTR [eax], ecx

; 379  : 		}

  0000a	5d		 pop	 ebp
  0000b	c2 08 00	 ret	 8
??0?$_Tree_iterator@V?$_Tree_val@V?$_Tmap_traits@HUBonusCashInfo@ioBonusCashManager@@U?$less@H@std@@V?$allocator@U?$pair@$$CBHUBonusCashInfo@ioBonusCashManager@@@std@@@4@$0A@@std@@@std@@@std@@QAE@PAU_Node@?$_Tree_nod@V?$_Tmap_traits@HUBonusCashInfo@ioBonusCashManager@@U?$less@H@std@@V?$allocator@U?$pair@$$CBHUBonusCashInfo@ioBonusCashManager@@@std@@@4@$0A@@std@@@1@PBV?$_Tree_val@V?$_Tmap_traits@HUBonusCashInfo@ioBonusCashManager@@U?$less@H@std@@V?$allocator@U?$pair@$$CBHUBonusCashInfo@ioBonusCashManager@@@std@@@4@$0A@@std@@@1@@Z ENDP ; std::_Tree_iterator<std::_Tree_val<std::_Tmap_traits<int,ioBonusCashManager::BonusCashInfo,std::less<int>,std::allocator<std::pair<int const ,ioBonusCashManager::BonusCashInfo> >,0> > >::_Tree_iterator<std::_Tree_val<std::_Tmap_traits<int,ioBonusCashManager::BonusCashInfo,std::less<int>,std::allocator<std::pair<int const ,ioBonusCashManager::BonusCashInfo> >,0> > >
_TEXT	ENDS
PUBLIC	??_C@_0BE@JONHPENG@map?1set?$DMT?$DO?5too?5long?$AA@ ; `string'
PUBLIC	?_Insert@?$_Tree@V?$_Tmap_traits@HUBonusCashInfo@ioBonusCashManager@@U?$less@H@std@@V?$allocator@U?$pair@$$CBHUBonusCashInfo@ioBonusCashManager@@@std@@@4@$0A@@std@@@std@@IAE?AV?$_Tree_iterator@V?$_Tree_val@V?$_Tmap_traits@HUBonusCashInfo@ioBonusCashManager@@U?$less@H@std@@V?$allocator@U?$pair@$$CBHUBonusCashInfo@ioBonusCashManager@@@std@@@4@$0A@@std@@@std@@@2@_NPAU_Node@?$_Tree_nod@V?$_Tmap_traits@HUBonusCashInfo@ioBonusCashManager@@U?$less@H@std@@V?$allocator@U?$pair@$$CBHUBonusCashInfo@ioBonusCashManager@@@std@@@4@$0A@@std@@@2@1@Z ; std::_Tree<std::_Tmap_traits<int,ioBonusCashManager::BonusCashInfo,std::less<int>,std::allocator<std::pair<int const ,ioBonusCashManager::BonusCashInfo> >,0> >::_Insert
EXTRN	__imp_?_Xlength_error@std@@YAXPBD@Z:PROC
;	COMDAT ??_C@_0BE@JONHPENG@map?1set?$DMT?$DO?5too?5long?$AA@
; File c:\program files (x86)\microsoft visual studio 10.0\vc\include\xutility
CONST	SEGMENT
??_C@_0BE@JONHPENG@map?1set?$DMT?$DO?5too?5long?$AA@ DB 'map/set<T> too l'
	DB	'ong', 00H					; `string'
; Function compile flags: /Ogsp
; File c:\program files (x86)\microsoft visual studio 10.0\vc\include\xtree
CONST	ENDS
;	COMDAT ?_Insert@?$_Tree@V?$_Tmap_traits@HUBonusCashInfo@ioBonusCashManager@@U?$less@H@std@@V?$allocator@U?$pair@$$CBHUBonusCashInfo@ioBonusCashManager@@@std@@@4@$0A@@std@@@std@@IAE?AV?$_Tree_iterator@V?$_Tree_val@V?$_Tmap_traits@HUBonusCashInfo@ioBonusCashManager@@U?$less@H@std@@V?$allocator@U?$pair@$$CBHUBonusCashInfo@ioBonusCashManager@@@std@@@4@$0A@@std@@@std@@@2@_NPAU_Node@?$_Tree_nod@V?$_Tmap_traits@HUBonusCashInfo@ioBonusCashManager@@U?$less@H@std@@V?$allocator@U?$pair@$$CBHUBonusCashInfo@ioBonusCashManager@@@std@@@4@$0A@@std@@@2@1@Z
_TEXT	SEGMENT
___$ReturnUdt$ = 8					; size = 4
__Addleft$ = 12						; size = 1
__Wherenode$ = 16					; size = 4
__Newnode$ = 20						; size = 4
?_Insert@?$_Tree@V?$_Tmap_traits@HUBonusCashInfo@ioBonusCashManager@@U?$less@H@std@@V?$allocator@U?$pair@$$CBHUBonusCashInfo@ioBonusCashManager@@@std@@@4@$0A@@std@@@std@@IAE?AV?$_Tree_iterator@V?$_Tree_val@V?$_Tmap_traits@HUBonusCashInfo@ioBonusCashManager@@U?$less@H@std@@V?$allocator@U?$pair@$$CBHUBonusCashInfo@ioBonusCashManager@@@std@@@4@$0A@@std@@@std@@@2@_NPAU_Node@?$_Tree_nod@V?$_Tmap_traits@HUBonusCashInfo@ioBonusCashManager@@U?$less@H@std@@V?$allocator@U?$pair@$$CBHUBonusCashInfo@ioBonusCashManager@@@std@@@4@$0A@@std@@@2@1@Z PROC ; std::_Tree<std::_Tmap_traits<int,ioBonusCashManager::BonusCashInfo,std::less<int>,std::allocator<std::pair<int const ,ioBonusCashManager::BonusCashInfo> >,0> >::_Insert, COMDAT
; _this$ = ecx

; 1631 : 		{	// add node with value next to _Wherenode, to left if _Addleft

  00000	55		 push	 ebp
  00001	8b ec		 mov	 ebp, esp
  00003	53		 push	 ebx
  00004	56		 push	 esi
  00005	57		 push	 edi
  00006	8b f9		 mov	 edi, ecx

; 1632 : 		if (max_size() - 1 <= this->_Mysize)

  00008	8b 47 08	 mov	 eax, DWORD PTR [edi+8]
  0000b	3d cb cc cc 0c	 cmp	 eax, 214748363		; 0ccccccbH
  00010	72 15		 jb	 SHORT $LN17@Insert

; 1633 : 			{	// tree would get too big, fail
; 1634 : 			_Dest_val(this->_Alval,
; 1635 : 				_STD addressof(this->_Myval(_Newnode)));
; 1636 : 
; 1637 : 			this->_Alnod.deallocate(_Newnode, 1);

  00012	ff 75 14	 push	 DWORD PTR __Newnode$[ebp]
  00015	e8 00 00 00 00	 call	 ??3@YAXPAX@Z		; operator delete

; 1638 : 
; 1639 : 			_Xlength_error("map/set<T> too long");

  0001a	c7 04 24 00 00
	00 00		 mov	 DWORD PTR [esp], OFFSET ??_C@_0BE@JONHPENG@map?1set?$DMT?$DO?5too?5long?$AA@
  00021	ff 15 00 00 00
	00		 call	 DWORD PTR __imp_?_Xlength_error@std@@YAXPBD@Z
$LN188@Insert:
$LN17@Insert:

; 1640 : 			}
; 1641 : 		++this->_Mysize;
; 1642 : 		_Newnode->_Parent = _Wherenode;

  00027	8b 5d 14	 mov	 ebx, DWORD PTR __Newnode$[ebp]
  0002a	40		 inc	 eax
  0002b	89 47 08	 mov	 DWORD PTR [edi+8], eax
  0002e	8b 45 10	 mov	 eax, DWORD PTR __Wherenode$[ebp]
  00031	89 43 04	 mov	 DWORD PTR [ebx+4], eax

; 1643 : 
; 1644 : 		if (_Wherenode == this->_Myhead)

  00034	8b 4f 04	 mov	 ecx, DWORD PTR [edi+4]
  00037	3b c1		 cmp	 eax, ecx
  00039	75 10		 jne	 SHORT $LN16@Insert

; 1645 : 			{	// first node in tree, just set head values
; 1646 : 			_Root() = _Newnode;

  0003b	89 59 04	 mov	 DWORD PTR [ecx+4], ebx

; 1647 : 			_Lmost() = _Newnode;

  0003e	8b 47 04	 mov	 eax, DWORD PTR [edi+4]
  00041	89 18		 mov	 DWORD PTR [eax], ebx

; 1648 : 			_Rmost() = _Newnode;

  00043	8b 47 04	 mov	 eax, DWORD PTR [edi+4]
  00046	89 58 08	 mov	 DWORD PTR [eax+8], ebx
  00049	eb 21		 jmp	 SHORT $LN11@Insert
$LN16@Insert:

; 1649 : 			}
; 1650 : 		else if (_Addleft)

  0004b	80 7d 0c 00	 cmp	 BYTE PTR __Addleft$[ebp], 0
  0004f	74 0d		 je	 SHORT $LN14@Insert

; 1651 : 			{	// add to left of _Wherenode
; 1652 : 			this->_Left(_Wherenode) = _Newnode;

  00051	89 18		 mov	 DWORD PTR [eax], ebx

; 1653 : 			if (_Wherenode == _Lmost())

  00053	8b 4f 04	 mov	 ecx, DWORD PTR [edi+4]
  00056	3b 01		 cmp	 eax, DWORD PTR [ecx]
  00058	75 12		 jne	 SHORT $LN11@Insert

; 1654 : 				_Lmost() = _Newnode;

  0005a	89 19		 mov	 DWORD PTR [ecx], ebx

; 1655 : 			}
; 1656 : 		else

  0005c	eb 0e		 jmp	 SHORT $LN11@Insert
$LN14@Insert:

; 1657 : 			{	// add to right of _Wherenode
; 1658 : 			this->_Right(_Wherenode) = _Newnode;

  0005e	89 58 08	 mov	 DWORD PTR [eax+8], ebx

; 1659 : 			if (_Wherenode == _Rmost())

  00061	8b 4f 04	 mov	 ecx, DWORD PTR [edi+4]
  00064	3b 41 08	 cmp	 eax, DWORD PTR [ecx+8]
  00067	75 03		 jne	 SHORT $LN11@Insert

; 1660 : 				_Rmost() = _Newnode;

  00069	89 59 08	 mov	 DWORD PTR [ecx+8], ebx
$LN11@Insert:

; 1661 : 			}
; 1662 : 
; 1663 : 		for (_Nodeptr _Pnode = _Newnode;
; 1664 : 			this->_Color(this->_Parent(_Pnode)) == this->_Red; )

  0006c	8b 43 04	 mov	 eax, DWORD PTR [ebx+4]
  0006f	8b f3		 mov	 esi, ebx
  00071	e9 93 00 00 00	 jmp	 $LN186@Insert
$LL10@Insert:

; 1665 : 			if (this->_Parent(_Pnode)
; 1666 : 				== this->_Left(this->_Parent(this->_Parent(_Pnode))))

  00076	8b 46 04	 mov	 eax, DWORD PTR [esi+4]
  00079	8b 48 04	 mov	 ecx, DWORD PTR [eax+4]
  0007c	3b 01		 cmp	 eax, DWORD PTR [ecx]
  0007e	75 38		 jne	 SHORT $LN8@Insert

; 1667 : 				{	// fixup red-red in left subtree
; 1668 : 				_Wherenode =
; 1669 : 					this->_Right(this->_Parent(this->_Parent(_Pnode)));

  00080	8b 49 08	 mov	 ecx, DWORD PTR [ecx+8]

; 1670 : 				if (this->_Color(_Wherenode) == this->_Red)

  00083	80 79 20 00	 cmp	 BYTE PTR [ecx+32], 0

; 1671 : 					{	// parent has two red children, blacken both
; 1672 : 					this->_Color(this->_Parent(_Pnode)) = this->_Black;
; 1673 : 					this->_Color(_Wherenode) = this->_Black;
; 1674 : 					this->_Color(this->_Parent(this->_Parent(_Pnode)))
; 1675 : 						= this->_Red;
; 1676 : 					_Pnode = this->_Parent(this->_Parent(_Pnode));
; 1677 : 					}
; 1678 : 				else

  00087	74 37		 je	 SHORT $LN187@Insert

; 1679 : 					{	// parent has red and black children
; 1680 : 					if (_Pnode == this->_Right(this->_Parent(_Pnode)))

  00089	3b 70 08	 cmp	 esi, DWORD PTR [eax+8]
  0008c	75 0a		 jne	 SHORT $LN5@Insert

; 1681 : 						{	// rotate right child to left
; 1682 : 						_Pnode = this->_Parent(_Pnode);

  0008e	8b f0		 mov	 esi, eax

; 1683 : 						_Lrotate(_Pnode);

  00090	56		 push	 esi
  00091	8b cf		 mov	 ecx, edi
  00093	e8 00 00 00 00	 call	 ?_Lrotate@?$_Tree@V?$_Tmap_traits@HUBonusCashInfo@ioBonusCashManager@@U?$less@H@std@@V?$allocator@U?$pair@$$CBHUBonusCashInfo@ioBonusCashManager@@@std@@@4@$0A@@std@@@std@@IAEXPAU_Node@?$_Tree_nod@V?$_Tmap_traits@HUBonusCashInfo@ioBonusCashManager@@U?$less@H@std@@V?$allocator@U?$pair@$$CBHUBonusCashInfo@ioBonusCashManager@@@std@@@4@$0A@@std@@@2@@Z ; std::_Tree<std::_Tmap_traits<int,ioBonusCashManager::BonusCashInfo,std::less<int>,std::allocator<std::pair<int const ,ioBonusCashManager::BonusCashInfo> >,0> >::_Lrotate
$LN5@Insert:

; 1684 : 						}
; 1685 : 					this->_Color(this->_Parent(_Pnode)) =
; 1686 : 						this->_Black;	// propagate red up

  00098	8b 46 04	 mov	 eax, DWORD PTR [esi+4]
  0009b	c6 40 20 01	 mov	 BYTE PTR [eax+32], 1

; 1687 : 					this->_Color(this->_Parent(this->_Parent(_Pnode))) =
; 1688 : 						this->_Red;

  0009f	8b 46 04	 mov	 eax, DWORD PTR [esi+4]
  000a2	8b 40 04	 mov	 eax, DWORD PTR [eax+4]
  000a5	c6 40 20 00	 mov	 BYTE PTR [eax+32], 0

; 1689 : 					_Rrotate(this->_Parent(this->_Parent(_Pnode)));

  000a9	8b 46 04	 mov	 eax, DWORD PTR [esi+4]
  000ac	ff 70 04	 push	 DWORD PTR [eax+4]
  000af	8b cf		 mov	 ecx, edi
  000b1	e8 00 00 00 00	 call	 ?_Rrotate@?$_Tree@V?$_Tmap_traits@HUBonusCashInfo@ioBonusCashManager@@U?$less@H@std@@V?$allocator@U?$pair@$$CBHUBonusCashInfo@ioBonusCashManager@@@std@@@4@$0A@@std@@@std@@IAEXPAU_Node@?$_Tree_nod@V?$_Tmap_traits@HUBonusCashInfo@ioBonusCashManager@@U?$less@H@std@@V?$allocator@U?$pair@$$CBHUBonusCashInfo@ioBonusCashManager@@@std@@@4@$0A@@std@@@2@@Z ; std::_Tree<std::_Tmap_traits<int,ioBonusCashManager::BonusCashInfo,std::less<int>,std::allocator<std::pair<int const ,ioBonusCashManager::BonusCashInfo> >,0> >::_Rrotate

; 1690 : 					}
; 1691 : 				}
; 1692 : 			else

  000b6	eb 4e		 jmp	 SHORT $LN2@Insert
$LN8@Insert:

; 1693 : 				{	// fixup red-red in right subtree
; 1694 : 				_Wherenode =
; 1695 : 					this->_Left(this->_Parent(this->_Parent(_Pnode)));

  000b8	8b 09		 mov	 ecx, DWORD PTR [ecx]

; 1696 : 				if (this->_Color(_Wherenode) == this->_Red)

  000ba	80 79 20 00	 cmp	 BYTE PTR [ecx+32], 0
  000be	75 1a		 jne	 SHORT $LN3@Insert
$LN187@Insert:

; 1697 : 					{	// parent has two red children, blacken both
; 1698 : 					this->_Color(this->_Parent(_Pnode)) = this->_Black;

  000c0	c6 40 20 01	 mov	 BYTE PTR [eax+32], 1

; 1699 : 					this->_Color(_Wherenode) = this->_Black;

  000c4	c6 41 20 01	 mov	 BYTE PTR [ecx+32], 1

; 1700 : 					this->_Color(this->_Parent(this->_Parent(_Pnode))) =
; 1701 : 						this->_Red;

  000c8	8b 46 04	 mov	 eax, DWORD PTR [esi+4]
  000cb	8b 40 04	 mov	 eax, DWORD PTR [eax+4]
  000ce	c6 40 20 00	 mov	 BYTE PTR [eax+32], 0

; 1702 : 					_Pnode = this->_Parent(this->_Parent(_Pnode));

  000d2	8b 46 04	 mov	 eax, DWORD PTR [esi+4]
  000d5	8b 70 04	 mov	 esi, DWORD PTR [eax+4]

; 1703 : 					}
; 1704 : 				else

  000d8	eb 2c		 jmp	 SHORT $LN2@Insert
$LN3@Insert:

; 1705 : 					{	// parent has red and black children
; 1706 : 					if (_Pnode == this->_Left(this->_Parent(_Pnode)))

  000da	3b 30		 cmp	 esi, DWORD PTR [eax]
  000dc	75 0a		 jne	 SHORT $LN1@Insert

; 1707 : 						{	// rotate left child to right
; 1708 : 						_Pnode = this->_Parent(_Pnode);

  000de	8b f0		 mov	 esi, eax

; 1709 : 						_Rrotate(_Pnode);

  000e0	56		 push	 esi
  000e1	8b cf		 mov	 ecx, edi
  000e3	e8 00 00 00 00	 call	 ?_Rrotate@?$_Tree@V?$_Tmap_traits@HUBonusCashInfo@ioBonusCashManager@@U?$less@H@std@@V?$allocator@U?$pair@$$CBHUBonusCashInfo@ioBonusCashManager@@@std@@@4@$0A@@std@@@std@@IAEXPAU_Node@?$_Tree_nod@V?$_Tmap_traits@HUBonusCashInfo@ioBonusCashManager@@U?$less@H@std@@V?$allocator@U?$pair@$$CBHUBonusCashInfo@ioBonusCashManager@@@std@@@4@$0A@@std@@@2@@Z ; std::_Tree<std::_Tmap_traits<int,ioBonusCashManager::BonusCashInfo,std::less<int>,std::allocator<std::pair<int const ,ioBonusCashManager::BonusCashInfo> >,0> >::_Rrotate
$LN1@Insert:

; 1710 : 						}
; 1711 : 					this->_Color(this->_Parent(_Pnode)) =
; 1712 : 						this->_Black;	// propagate red up

  000e8	8b 46 04	 mov	 eax, DWORD PTR [esi+4]
  000eb	c6 40 20 01	 mov	 BYTE PTR [eax+32], 1

; 1713 : 					this->_Color(this->_Parent(this->_Parent(_Pnode))) =
; 1714 : 						this->_Red;

  000ef	8b 46 04	 mov	 eax, DWORD PTR [esi+4]
  000f2	8b 40 04	 mov	 eax, DWORD PTR [eax+4]
  000f5	c6 40 20 00	 mov	 BYTE PTR [eax+32], 0

; 1715 : 					_Lrotate(this->_Parent(this->_Parent(_Pnode)));

  000f9	8b 46 04	 mov	 eax, DWORD PTR [esi+4]
  000fc	ff 70 04	 push	 DWORD PTR [eax+4]
  000ff	8b cf		 mov	 ecx, edi
  00101	e8 00 00 00 00	 call	 ?_Lrotate@?$_Tree@V?$_Tmap_traits@HUBonusCashInfo@ioBonusCashManager@@U?$less@H@std@@V?$allocator@U?$pair@$$CBHUBonusCashInfo@ioBonusCashManager@@@std@@@4@$0A@@std@@@std@@IAEXPAU_Node@?$_Tree_nod@V?$_Tmap_traits@HUBonusCashInfo@ioBonusCashManager@@U?$less@H@std@@V?$allocator@U?$pair@$$CBHUBonusCashInfo@ioBonusCashManager@@@std@@@4@$0A@@std@@@2@@Z ; std::_Tree<std::_Tmap_traits<int,ioBonusCashManager::BonusCashInfo,std::less<int>,std::allocator<std::pair<int const ,ioBonusCashManager::BonusCashInfo> >,0> >::_Lrotate
$LN2@Insert:

; 1661 : 			}
; 1662 : 
; 1663 : 		for (_Nodeptr _Pnode = _Newnode;
; 1664 : 			this->_Color(this->_Parent(_Pnode)) == this->_Red; )

  00106	8b 46 04	 mov	 eax, DWORD PTR [esi+4]
$LN186@Insert:
  00109	80 78 20 00	 cmp	 BYTE PTR [eax+32], 0
  0010d	0f 84 63 ff ff
	ff		 je	 $LL10@Insert

; 1716 : 					}
; 1717 : 				}
; 1718 : 
; 1719 : 		this->_Color(_Root()) = this->_Black;	// root is always black

  00113	8b 47 04	 mov	 eax, DWORD PTR [edi+4]
  00116	8b 40 04	 mov	 eax, DWORD PTR [eax+4]
  00119	5f		 pop	 edi
  0011a	c6 40 20 01	 mov	 BYTE PTR [eax+32], 1

; 1720 : 		return (iterator(_Newnode, this));

  0011e	8b 45 08	 mov	 eax, DWORD PTR ___$ReturnUdt$[ebp]
  00121	5e		 pop	 esi
  00122	89 18		 mov	 DWORD PTR [eax], ebx
  00124	5b		 pop	 ebx

; 1721 : 		}

  00125	5d		 pop	 ebp
  00126	c2 10 00	 ret	 16			; 00000010H
$LN185@Insert:
?_Insert@?$_Tree@V?$_Tmap_traits@HUBonusCashInfo@ioBonusCashManager@@U?$less@H@std@@V?$allocator@U?$pair@$$CBHUBonusCashInfo@ioBonusCashManager@@@std@@@4@$0A@@std@@@std@@IAE?AV?$_Tree_iterator@V?$_Tree_val@V?$_Tmap_traits@HUBonusCashInfo@ioBonusCashManager@@U?$less@H@std@@V?$allocator@U?$pair@$$CBHUBonusCashInfo@ioBonusCashManager@@@std@@@4@$0A@@std@@@std@@@2@_NPAU_Node@?$_Tree_nod@V?$_Tmap_traits@HUBonusCashInfo@ioBonusCashManager@@U?$less@H@std@@V?$allocator@U?$pair@$$CBHUBonusCashInfo@ioBonusCashManager@@@std@@@4@$0A@@std@@@2@1@Z ENDP ; std::_Tree<std::_Tmap_traits<int,ioBonusCashManager::BonusCashInfo,std::less<int>,std::allocator<std::pair<int const ,ioBonusCashManager::BonusCashInfo> >,0> >::_Insert
_TEXT	ENDS
PUBLIC	?construct@?$allocator@U?$pair@$$CBHUBonusCashInfo@ioBonusCashManager@@@std@@@std@@QAEXPAU?$pair@$$CBHUBonusCashInfo@ioBonusCashManager@@@2@$$QAU32@@Z ; std::allocator<std::pair<int const ,ioBonusCashManager::BonusCashInfo> >::construct
; Function compile flags: /Ogsp
; File c:\program files (x86)\microsoft visual studio 10.0\vc\include\xmemory
;	COMDAT ?construct@?$allocator@U?$pair@$$CBHUBonusCashInfo@ioBonusCashManager@@@std@@@std@@QAEXPAU?$pair@$$CBHUBonusCashInfo@ioBonusCashManager@@@2@$$QAU32@@Z
_TEXT	SEGMENT
__Ptr$ = 8						; size = 4
__Val$ = 12						; size = 4
?construct@?$allocator@U?$pair@$$CBHUBonusCashInfo@ioBonusCashManager@@@std@@@std@@QAEXPAU?$pair@$$CBHUBonusCashInfo@ioBonusCashManager@@@2@$$QAU32@@Z PROC ; std::allocator<std::pair<int const ,ioBonusCashManager::BonusCashInfo> >::construct, COMDAT
; _this$ = ecx

; 201  : 		{	// construct object at _Ptr with value _Val

  00000	55		 push	 ebp
  00001	8b ec		 mov	 ebp, esp

; 202  : 		::new ((void _FARQ *)_Ptr) _Ty(_STD forward<_Ty>(_Val));

  00003	8b 45 08	 mov	 eax, DWORD PTR __Ptr$[ebp]
  00006	85 c0		 test	 eax, eax
  00008	74 15		 je	 SHORT $LN3@construct
  0000a	8b 4d 0c	 mov	 ecx, DWORD PTR __Val$[ebp]
  0000d	8b 11		 mov	 edx, DWORD PTR [ecx]
  0000f	56		 push	 esi
  00010	57		 push	 edi
  00011	89 10		 mov	 DWORD PTR [eax], edx
  00013	8d 71 04	 lea	 esi, DWORD PTR [ecx+4]
  00016	8d 78 04	 lea	 edi, DWORD PTR [eax+4]
  00019	a5		 movsd
  0001a	a5		 movsd
  0001b	a5		 movsd
  0001c	a5		 movsd
  0001d	5f		 pop	 edi
  0001e	5e		 pop	 esi
$LN3@construct:

; 203  : 		}

  0001f	5d		 pop	 ebp
  00020	c2 08 00	 ret	 8
?construct@?$allocator@U?$pair@$$CBHUBonusCashInfo@ioBonusCashManager@@@std@@@std@@QAEXPAU?$pair@$$CBHUBonusCashInfo@ioBonusCashManager@@@2@$$QAU32@@Z ENDP ; std::allocator<std::pair<int const ,ioBonusCashManager::BonusCashInfo> >::construct
_TEXT	ENDS
PUBLIC	?GetConstAliveBonusCashInfoByArray@ioBonusCashManager@@QBEABUBonusCashInfo@1@H@Z ; ioBonusCashManager::GetConstAliveBonusCashInfoByArray
;	COMDAT ?kInfo@?1??GetConstAliveBonusCashInfoByArray@ioBonusCashManager@@QBEABUBonusCashInfo@2@H@Z@4U32@B
; File c:\program files (x86)\microsoft visual studio 10.0\vc\include\xtree
_BSS	SEGMENT
?kInfo@?1??GetConstAliveBonusCashInfoByArray@ioBonusCashManager@@QBEABUBonusCashInfo@2@H@Z@4U32@B DB 010H DUP (?) ; `ioBonusCashManager::GetConstAliveBonusCashInfoByArray'::`2'::kInfo
_BSS	ENDS
;	COMDAT ?$S2@?1??GetConstAliveBonusCashInfoByArray@ioBonusCashManager@@QBEABUBonusCashInfo@2@H@Z@4IA
_BSS	SEGMENT
?$S2@?1??GetConstAliveBonusCashInfoByArray@ioBonusCashManager@@QBEABUBonusCashInfo@2@H@Z@4IA DD 01H DUP (?) ; `ioBonusCashManager::GetConstAliveBonusCashInfoByArray'::`2'::$S2
; Function compile flags: /Ogsp
; File d:\lost saga for developer\youtube\tutorial\source\src\lsclient\iobonuscashmanager.cpp
_BSS	ENDS
;	COMDAT ?GetConstAliveBonusCashInfoByArray@ioBonusCashManager@@QBEABUBonusCashInfo@1@H@Z
_TEXT	SEGMENT
_iter$ = -4						; size = 4
_iArray$ = 8						; size = 4
?GetConstAliveBonusCashInfoByArray@ioBonusCashManager@@QBEABUBonusCashInfo@1@H@Z PROC ; ioBonusCashManager::GetConstAliveBonusCashInfoByArray, COMDAT
; _this$ = ecx

; 229  : {

  00000	55		 push	 ebp
  00001	8b ec		 mov	 ebp, esp
  00003	51		 push	 ecx

; 230  : 	static const BonusCashInfo kInfo;

  00004	f6 05 00 00 00
	00 01		 test	 BYTE PTR ?$S2@?1??GetConstAliveBonusCashInfoByArray@ioBonusCashManager@@QBEABUBonusCashInfo@2@H@Z@4IA, 1
  0000b	75 21		 jne	 SHORT $LN9@GetConstAl
  0000d	83 0d 00 00 00
	00 01		 or	 DWORD PTR ?$S2@?1??GetConstAliveBonusCashInfoByArray@ioBonusCashManager@@QBEABUBonusCashInfo@2@H@Z@4IA, 1
  00014	83 25 08 00 00
	00 00		 and	 DWORD PTR ?kInfo@?1??GetConstAliveBonusCashInfoByArray@ioBonusCashManager@@QBEABUBonusCashInfo@2@H@Z@4U32@B+8, 0
  0001b	83 25 0c 00 00
	00 00		 and	 DWORD PTR ?kInfo@?1??GetConstAliveBonusCashInfoByArray@ioBonusCashManager@@QBEABUBonusCashInfo@2@H@Z@4U32@B+12, 0
  00022	66 0f 57 c0	 xorpd	 xmm0, xmm0
  00026	66 0f 13 05 00
	00 00 00	 movlpd	 QWORD PTR ?kInfo@?1??GetConstAliveBonusCashInfoByArray@ioBonusCashManager@@QBEABUBonusCashInfo@2@H@Z@4U32@B, xmm0
$LN9@GetConstAl:

; 231  : 
; 232  : 	BonusCashInfoList::const_iterator iter;
; 233  : 	for( iter = m_AliveBonusCashInfoList.begin();iter != m_AliveBonusCashInfoList.end(); iter++)

  0002e	56		 push	 esi
  0002f	8b 71 08	 mov	 esi, DWORD PTR [ecx+8]
  00032	8b 06		 mov	 eax, DWORD PTR [esi]
  00034	89 45 fc	 mov	 DWORD PTR _iter$[ebp], eax
  00037	eb 10		 jmp	 SHORT $LN56@GetConstAl
$LL33@GetConstAl:

; 234  : 	{
; 235  : 		if ( --iArray < 0 )

  00039	ff 4d 08	 dec	 DWORD PTR _iArray$[ebp]
  0003c	78 19		 js	 SHORT $LN54@GetConstAl

; 231  : 
; 232  : 	BonusCashInfoList::const_iterator iter;
; 233  : 	for( iter = m_AliveBonusCashInfoList.begin();iter != m_AliveBonusCashInfoList.end(); iter++)

  0003e	8d 4d fc	 lea	 ecx, DWORD PTR _iter$[ebp]
  00041	e8 00 00 00 00	 call	 ??E?$_Tree_unchecked_const_iterator@V?$_Tree_val@V?$_Tmap_traits@HUBonusCashInfo@ioBonusCashManager@@U?$less@H@std@@V?$allocator@U?$pair@$$CBHUBonusCashInfo@ioBonusCashManager@@@std@@@4@$0A@@std@@@std@@U_Iterator_base0@2@@std@@QAEAAV01@XZ ; std::_Tree_unchecked_const_iterator<std::_Tree_val<std::_Tmap_traits<int,ioBonusCashManager::BonusCashInfo,std::less<int>,std::allocator<std::pair<int const ,ioBonusCashManager::BonusCashInfo> >,0> >,std::_Iterator_base0>::operator++
  00046	8b 45 fc	 mov	 eax, DWORD PTR _iter$[ebp]
$LN56@GetConstAl:
  00049	3b c6		 cmp	 eax, esi
  0004b	75 ec		 jne	 SHORT $LL33@GetConstAl

; 237  : 	}
; 238  : 	return kInfo;

  0004d	b8 00 00 00 00	 mov	 eax, OFFSET ?kInfo@?1??GetConstAliveBonusCashInfoByArray@ioBonusCashManager@@QBEABUBonusCashInfo@2@H@Z@4U32@B
$LN6@GetConstAl:
  00052	5e		 pop	 esi

; 239  : }

  00053	c9		 leave
  00054	c2 04 00	 ret	 4
$LN54@GetConstAl:

; 236  : 			return iter->second;

  00057	83 c0 10	 add	 eax, 16			; 00000010H
  0005a	eb f6		 jmp	 SHORT $LN6@GetConstAl
?GetConstAliveBonusCashInfoByArray@ioBonusCashManager@@QBEABUBonusCashInfo@1@H@Z ENDP ; ioBonusCashManager::GetConstAliveBonusCashInfoByArray
_TEXT	ENDS
PUBLIC	?GetConstExpireBonusCashInfoByArray@ioBonusCashManager@@QBEABUBonusCashInfo@1@H@Z ; ioBonusCashManager::GetConstExpireBonusCashInfoByArray
;	COMDAT ?kInfo@?1??GetConstExpireBonusCashInfoByArray@ioBonusCashManager@@QBEABUBonusCashInfo@2@H@Z@4U32@B
; File c:\program files (x86)\microsoft visual studio 10.0\vc\include\xtree
_BSS	SEGMENT
?kInfo@?1??GetConstExpireBonusCashInfoByArray@ioBonusCashManager@@QBEABUBonusCashInfo@2@H@Z@4U32@B DB 010H DUP (?) ; `ioBonusCashManager::GetConstExpireBonusCashInfoByArray'::`2'::kInfo
_BSS	ENDS
;	COMDAT ?$S4@?1??GetConstExpireBonusCashInfoByArray@ioBonusCashManager@@QBEABUBonusCashInfo@2@H@Z@4IA
_BSS	SEGMENT
?$S4@?1??GetConstExpireBonusCashInfoByArray@ioBonusCashManager@@QBEABUBonusCashInfo@2@H@Z@4IA DD 01H DUP (?) ; `ioBonusCashManager::GetConstExpireBonusCashInfoByArray'::`2'::$S4
; Function compile flags: /Ogsp
; File d:\lost saga for developer\youtube\tutorial\source\src\lsclient\iobonuscashmanager.cpp
_BSS	ENDS
;	COMDAT ?GetConstExpireBonusCashInfoByArray@ioBonusCashManager@@QBEABUBonusCashInfo@1@H@Z
_TEXT	SEGMENT
_iter$ = -4						; size = 4
_iArray$ = 8						; size = 4
?GetConstExpireBonusCashInfoByArray@ioBonusCashManager@@QBEABUBonusCashInfo@1@H@Z PROC ; ioBonusCashManager::GetConstExpireBonusCashInfoByArray, COMDAT
; _this$ = ecx

; 253  : {

  00000	55		 push	 ebp
  00001	8b ec		 mov	 ebp, esp
  00003	51		 push	 ecx

; 254  : 	static const BonusCashInfo kInfo;

  00004	f6 05 00 00 00
	00 01		 test	 BYTE PTR ?$S4@?1??GetConstExpireBonusCashInfoByArray@ioBonusCashManager@@QBEABUBonusCashInfo@2@H@Z@4IA, 1
  0000b	75 21		 jne	 SHORT $LN9@GetConstEx
  0000d	83 0d 00 00 00
	00 01		 or	 DWORD PTR ?$S4@?1??GetConstExpireBonusCashInfoByArray@ioBonusCashManager@@QBEABUBonusCashInfo@2@H@Z@4IA, 1
  00014	83 25 08 00 00
	00 00		 and	 DWORD PTR ?kInfo@?1??GetConstExpireBonusCashInfoByArray@ioBonusCashManager@@QBEABUBonusCashInfo@2@H@Z@4U32@B+8, 0
  0001b	83 25 0c 00 00
	00 00		 and	 DWORD PTR ?kInfo@?1??GetConstExpireBonusCashInfoByArray@ioBonusCashManager@@QBEABUBonusCashInfo@2@H@Z@4U32@B+12, 0
  00022	66 0f 57 c0	 xorpd	 xmm0, xmm0
  00026	66 0f 13 05 00
	00 00 00	 movlpd	 QWORD PTR ?kInfo@?1??GetConstExpireBonusCashInfoByArray@ioBonusCashManager@@QBEABUBonusCashInfo@2@H@Z@4U32@B, xmm0
$LN9@GetConstEx:

; 255  : 
; 256  : 	BonusCashInfoList::const_iterator iter;
; 257  : 	for( iter = m_ExpireBonusCashInfoList.begin();iter != m_ExpireBonusCashInfoList.end(); iter++)

  0002e	56		 push	 esi
  0002f	8b 71 18	 mov	 esi, DWORD PTR [ecx+24]
  00032	8b 06		 mov	 eax, DWORD PTR [esi]
  00034	89 45 fc	 mov	 DWORD PTR _iter$[ebp], eax
  00037	eb 10		 jmp	 SHORT $LN56@GetConstEx
$LL33@GetConstEx:

; 258  : 	{
; 259  : 		if ( --iArray < 0 )

  00039	ff 4d 08	 dec	 DWORD PTR _iArray$[ebp]
  0003c	78 19		 js	 SHORT $LN54@GetConstEx

; 255  : 
; 256  : 	BonusCashInfoList::const_iterator iter;
; 257  : 	for( iter = m_ExpireBonusCashInfoList.begin();iter != m_ExpireBonusCashInfoList.end(); iter++)

  0003e	8d 4d fc	 lea	 ecx, DWORD PTR _iter$[ebp]
  00041	e8 00 00 00 00	 call	 ??E?$_Tree_unchecked_const_iterator@V?$_Tree_val@V?$_Tmap_traits@HUBonusCashInfo@ioBonusCashManager@@U?$less@H@std@@V?$allocator@U?$pair@$$CBHUBonusCashInfo@ioBonusCashManager@@@std@@@4@$0A@@std@@@std@@U_Iterator_base0@2@@std@@QAEAAV01@XZ ; std::_Tree_unchecked_const_iterator<std::_Tree_val<std::_Tmap_traits<int,ioBonusCashManager::BonusCashInfo,std::less<int>,std::allocator<std::pair<int const ,ioBonusCashManager::BonusCashInfo> >,0> >,std::_Iterator_base0>::operator++
  00046	8b 45 fc	 mov	 eax, DWORD PTR _iter$[ebp]
$LN56@GetConstEx:
  00049	3b c6		 cmp	 eax, esi
  0004b	75 ec		 jne	 SHORT $LL33@GetConstEx

; 261  : 	}
; 262  : 	return kInfo;

  0004d	b8 00 00 00 00	 mov	 eax, OFFSET ?kInfo@?1??GetConstExpireBonusCashInfoByArray@ioBonusCashManager@@QBEABUBonusCashInfo@2@H@Z@4U32@B
$LN6@GetConstEx:
  00052	5e		 pop	 esi

; 263  : }

  00053	c9		 leave
  00054	c2 04 00	 ret	 4
$LN54@GetConstEx:

; 260  : 			return iter->second;

  00057	83 c0 10	 add	 eax, 16			; 00000010H
  0005a	eb f6		 jmp	 SHORT $LN6@GetConstEx
?GetConstExpireBonusCashInfoByArray@ioBonusCashManager@@QBEABUBonusCashInfo@1@H@Z ENDP ; ioBonusCashManager::GetConstExpireBonusCashInfoByArray
_TEXT	ENDS
PUBLIC	?begin@?$_Tree@V?$_Tmap_traits@HUBonusCashInfo@ioBonusCashManager@@U?$less@H@std@@V?$allocator@U?$pair@$$CBHUBonusCashInfo@ioBonusCashManager@@@std@@@4@$0A@@std@@@std@@QAE?AV?$_Tree_iterator@V?$_Tree_val@V?$_Tmap_traits@HUBonusCashInfo@ioBonusCashManager@@U?$less@H@std@@V?$allocator@U?$pair@$$CBHUBonusCashInfo@ioBonusCashManager@@@std@@@4@$0A@@std@@@std@@@2@XZ ; std::_Tree<std::_Tmap_traits<int,ioBonusCashManager::BonusCashInfo,std::less<int>,std::allocator<std::pair<int const ,ioBonusCashManager::BonusCashInfo> >,0> >::begin
; Function compile flags: /Ogsp
; File c:\program files (x86)\microsoft visual studio 10.0\vc\include\xtree
;	COMDAT ?begin@?$_Tree@V?$_Tmap_traits@HUBonusCashInfo@ioBonusCashManager@@U?$less@H@std@@V?$allocator@U?$pair@$$CBHUBonusCashInfo@ioBonusCashManager@@@std@@@4@$0A@@std@@@std@@QAE?AV?$_Tree_iterator@V?$_Tree_val@V?$_Tmap_traits@HUBonusCashInfo@ioBonusCashManager@@U?$less@H@std@@V?$allocator@U?$pair@$$CBHUBonusCashInfo@ioBonusCashManager@@@std@@@4@$0A@@std@@@std@@@2@XZ
_TEXT	SEGMENT
___$ReturnUdt$ = 8					; size = 4
?begin@?$_Tree@V?$_Tmap_traits@HUBonusCashInfo@ioBonusCashManager@@U?$less@H@std@@V?$allocator@U?$pair@$$CBHUBonusCashInfo@ioBonusCashManager@@@std@@@4@$0A@@std@@@std@@QAE?AV?$_Tree_iterator@V?$_Tree_val@V?$_Tmap_traits@HUBonusCashInfo@ioBonusCashManager@@U?$less@H@std@@V?$allocator@U?$pair@$$CBHUBonusCashInfo@ioBonusCashManager@@@std@@@4@$0A@@std@@@std@@@2@XZ PROC ; std::_Tree<std::_Tmap_traits<int,ioBonusCashManager::BonusCashInfo,std::less<int>,std::allocator<std::pair<int const ,ioBonusCashManager::BonusCashInfo> >,0> >::begin, COMDAT
; _this$ = ecx

; 806  : 		{	// return iterator for beginning of mutable sequence

  00000	55		 push	 ebp
  00001	8b ec		 mov	 ebp, esp

; 807  : 		return (iterator(_Lmost(), this));

  00003	8b 41 04	 mov	 eax, DWORD PTR [ecx+4]
  00006	8b 08		 mov	 ecx, DWORD PTR [eax]
  00008	8b 45 08	 mov	 eax, DWORD PTR ___$ReturnUdt$[ebp]
  0000b	89 08		 mov	 DWORD PTR [eax], ecx

; 808  : 		}

  0000d	5d		 pop	 ebp
  0000e	c2 04 00	 ret	 4
?begin@?$_Tree@V?$_Tmap_traits@HUBonusCashInfo@ioBonusCashManager@@U?$less@H@std@@V?$allocator@U?$pair@$$CBHUBonusCashInfo@ioBonusCashManager@@@std@@@4@$0A@@std@@@std@@QAE?AV?$_Tree_iterator@V?$_Tree_val@V?$_Tmap_traits@HUBonusCashInfo@ioBonusCashManager@@U?$less@H@std@@V?$allocator@U?$pair@$$CBHUBonusCashInfo@ioBonusCashManager@@@std@@@4@$0A@@std@@@std@@@2@XZ ENDP ; std::_Tree<std::_Tmap_traits<int,ioBonusCashManager::BonusCashInfo,std::less<int>,std::allocator<std::pair<int const ,ioBonusCashManager::BonusCashInfo> >,0> >::begin
_TEXT	ENDS
PUBLIC	?end@?$_Tree@V?$_Tmap_traits@HUBonusCashInfo@ioBonusCashManager@@U?$less@H@std@@V?$allocator@U?$pair@$$CBHUBonusCashInfo@ioBonusCashManager@@@std@@@4@$0A@@std@@@std@@QAE?AV?$_Tree_iterator@V?$_Tree_val@V?$_Tmap_traits@HUBonusCashInfo@ioBonusCashManager@@U?$less@H@std@@V?$allocator@U?$pair@$$CBHUBonusCashInfo@ioBonusCashManager@@@std@@@4@$0A@@std@@@std@@@2@XZ ; std::_Tree<std::_Tmap_traits<int,ioBonusCashManager::BonusCashInfo,std::less<int>,std::allocator<std::pair<int const ,ioBonusCashManager::BonusCashInfo> >,0> >::end
; Function compile flags: /Ogsp
;	COMDAT ?end@?$_Tree@V?$_Tmap_traits@HUBonusCashInfo@ioBonusCashManager@@U?$less@H@std@@V?$allocator@U?$pair@$$CBHUBonusCashInfo@ioBonusCashManager@@@std@@@4@$0A@@std@@@std@@QAE?AV?$_Tree_iterator@V?$_Tree_val@V?$_Tmap_traits@HUBonusCashInfo@ioBonusCashManager@@U?$less@H@std@@V?$allocator@U?$pair@$$CBHUBonusCashInfo@ioBonusCashManager@@@std@@@4@$0A@@std@@@std@@@2@XZ
_TEXT	SEGMENT
___$ReturnUdt$ = 8					; size = 4
?end@?$_Tree@V?$_Tmap_traits@HUBonusCashInfo@ioBonusCashManager@@U?$less@H@std@@V?$allocator@U?$pair@$$CBHUBonusCashInfo@ioBonusCashManager@@@std@@@4@$0A@@std@@@std@@QAE?AV?$_Tree_iterator@V?$_Tree_val@V?$_Tmap_traits@HUBonusCashInfo@ioBonusCashManager@@U?$less@H@std@@V?$allocator@U?$pair@$$CBHUBonusCashInfo@ioBonusCashManager@@@std@@@4@$0A@@std@@@std@@@2@XZ PROC ; std::_Tree<std::_Tmap_traits<int,ioBonusCashManager::BonusCashInfo,std::less<int>,std::allocator<std::pair<int const ,ioBonusCashManager::BonusCashInfo> >,0> >::end, COMDAT
; _this$ = ecx

; 816  : 		{	// return iterator for end of mutable sequence

  00000	55		 push	 ebp
  00001	8b ec		 mov	 ebp, esp

; 817  : 		return (iterator(this->_Myhead, this));

  00003	8b 49 04	 mov	 ecx, DWORD PTR [ecx+4]
  00006	8b 45 08	 mov	 eax, DWORD PTR ___$ReturnUdt$[ebp]
  00009	89 08		 mov	 DWORD PTR [eax], ecx

; 818  : 		}

  0000b	5d		 pop	 ebp
  0000c	c2 04 00	 ret	 4
?end@?$_Tree@V?$_Tmap_traits@HUBonusCashInfo@ioBonusCashManager@@U?$less@H@std@@V?$allocator@U?$pair@$$CBHUBonusCashInfo@ioBonusCashManager@@@std@@@4@$0A@@std@@@std@@QAE?AV?$_Tree_iterator@V?$_Tree_val@V?$_Tmap_traits@HUBonusCashInfo@ioBonusCashManager@@U?$less@H@std@@V?$allocator@U?$pair@$$CBHUBonusCashInfo@ioBonusCashManager@@@std@@@4@$0A@@std@@@std@@@2@XZ ENDP ; std::_Tree<std::_Tmap_traits<int,ioBonusCashManager::BonusCashInfo,std::less<int>,std::allocator<std::pair<int const ,ioBonusCashManager::BonusCashInfo> >,0> >::end
_TEXT	ENDS
PUBLIC	??_C@_0BM@PAPJHAGI@invalid?5map?1set?$DMT?$DO?5iterator?$AA@ ; `string'
PUBLIC	?erase@?$_Tree@V?$_Tmap_traits@HUBonusCashInfo@ioBonusCashManager@@U?$less@H@std@@V?$allocator@U?$pair@$$CBHUBonusCashInfo@ioBonusCashManager@@@std@@@4@$0A@@std@@@std@@QAE?AV?$_Tree_iterator@V?$_Tree_val@V?$_Tmap_traits@HUBonusCashInfo@ioBonusCashManager@@U?$less@H@std@@V?$allocator@U?$pair@$$CBHUBonusCashInfo@ioBonusCashManager@@@std@@@4@$0A@@std@@@std@@@2@V?$_Tree_const_iterator@V?$_Tree_val@V?$_Tmap_traits@HUBonusCashInfo@ioBonusCashManager@@U?$less@H@std@@V?$allocator@U?$pair@$$CBHUBonusCashInfo@ioBonusCashManager@@@std@@@4@$0A@@std@@@std@@@2@@Z ; std::_Tree<std::_Tmap_traits<int,ioBonusCashManager::BonusCashInfo,std::less<int>,std::allocator<std::pair<int const ,ioBonusCashManager::BonusCashInfo> >,0> >::erase
EXTRN	__imp_?_Xout_of_range@std@@YAXPBD@Z:PROC
;	COMDAT ??_C@_0BM@PAPJHAGI@invalid?5map?1set?$DMT?$DO?5iterator?$AA@
; File c:\program files (x86)\microsoft visual studio 10.0\vc\include\xutility
CONST	SEGMENT
??_C@_0BM@PAPJHAGI@invalid?5map?1set?$DMT?$DO?5iterator?$AA@ DB 'invalid '
	DB	'map/set<T> iterator', 00H			; `string'
; Function compile flags: /Ogsp
; File c:\program files (x86)\microsoft visual studio 10.0\vc\include\xtree
CONST	ENDS
;	COMDAT ?erase@?$_Tree@V?$_Tmap_traits@HUBonusCashInfo@ioBonusCashManager@@U?$less@H@std@@V?$allocator@U?$pair@$$CBHUBonusCashInfo@ioBonusCashManager@@@std@@@4@$0A@@std@@@std@@QAE?AV?$_Tree_iterator@V?$_Tree_val@V?$_Tmap_traits@HUBonusCashInfo@ioBonusCashManager@@U?$less@H@std@@V?$allocator@U?$pair@$$CBHUBonusCashInfo@ioBonusCashManager@@@std@@@4@$0A@@std@@@std@@@2@V?$_Tree_const_iterator@V?$_Tree_val@V?$_Tmap_traits@HUBonusCashInfo@ioBonusCashManager@@U?$less@H@std@@V?$allocator@U?$pair@$$CBHUBonusCashInfo@ioBonusCashManager@@@std@@@4@$0A@@std@@@std@@@2@@Z
_TEXT	SEGMENT
_this$ = -4						; size = 4
___$ReturnUdt$ = 8					; size = 4
__Where$ = 12						; size = 4
?erase@?$_Tree@V?$_Tmap_traits@HUBonusCashInfo@ioBonusCashManager@@U?$less@H@std@@V?$allocator@U?$pair@$$CBHUBonusCashInfo@ioBonusCashManager@@@std@@@4@$0A@@std@@@std@@QAE?AV?$_Tree_iterator@V?$_Tree_val@V?$_Tmap_traits@HUBonusCashInfo@ioBonusCashManager@@U?$less@H@std@@V?$allocator@U?$pair@$$CBHUBonusCashInfo@ioBonusCashManager@@@std@@@4@$0A@@std@@@std@@@2@V?$_Tree_const_iterator@V?$_Tree_val@V?$_Tmap_traits@HUBonusCashInfo@ioBonusCashManager@@U?$less@H@std@@V?$allocator@U?$pair@$$CBHUBonusCashInfo@ioBonusCashManager@@@std@@@4@$0A@@std@@@std@@@2@@Z PROC ; std::_Tree<std::_Tmap_traits<int,ioBonusCashManager::BonusCashInfo,std::less<int>,std::allocator<std::pair<int const ,ioBonusCashManager::BonusCashInfo> >,0> >::erase, COMDAT
; _this$ = ecx

; 1195 : 		{	// erase element at _Where

  00000	55		 push	 ebp
  00001	8b ec		 mov	 ebp, esp
  00003	51		 push	 ecx
  00004	53		 push	 ebx

; 1196 :  #if _ITERATOR_DEBUG_LEVEL == 2
; 1197 : 		if (_Where._Getcont() != this || this->_Isnil(_Where._Mynode()))
; 1198 : 			_DEBUG_ERROR("map/set erase iterator outside range");
; 1199 : 		_Nodeptr _Erasednode = _Where._Mynode();	// node to erase
; 1200 : 		++_Where;	// save successor iterator for return
; 1201 : 		_Orphan_ptr(*this, _Erasednode);
; 1202 : 
; 1203 :  #else /* _ITERATOR_DEBUG_LEVEL == 2 */
; 1204 : 		if (this->_Isnil(_Where._Mynode()))

  00005	8b 5d 0c	 mov	 ebx, DWORD PTR __Where$[ebp]
  00008	80 7b 21 00	 cmp	 BYTE PTR [ebx+33], 0
  0000c	56		 push	 esi
  0000d	57		 push	 edi
  0000e	89 4d fc	 mov	 DWORD PTR _this$[ebp], ecx
  00011	74 0b		 je	 SHORT $LN40@erase

; 1205 : 			_Xout_of_range("invalid map/set<T> iterator");

  00013	68 00 00 00 00	 push	 OFFSET ??_C@_0BM@PAPJHAGI@invalid?5map?1set?$DMT?$DO?5iterator?$AA@
  00018	ff 15 00 00 00
	00		 call	 DWORD PTR __imp_?_Xout_of_range@std@@YAXPBD@Z
$LN329@erase:
$LN40@erase:

; 1206 : 		_Nodeptr _Erasednode = _Where._Mynode();	// node to erase
; 1207 : 		++_Where;	// save successor iterator for return

  0001e	8d 4d 0c	 lea	 ecx, DWORD PTR __Where$[ebp]
  00021	e8 00 00 00 00	 call	 ??E?$_Tree_unchecked_const_iterator@V?$_Tree_val@V?$_Tmap_traits@HUBonusCashInfo@ioBonusCashManager@@U?$less@H@std@@V?$allocator@U?$pair@$$CBHUBonusCashInfo@ioBonusCashManager@@@std@@@4@$0A@@std@@@std@@U_Iterator_base0@2@@std@@QAEAAV01@XZ ; std::_Tree_unchecked_const_iterator<std::_Tree_val<std::_Tmap_traits<int,ioBonusCashManager::BonusCashInfo,std::less<int>,std::allocator<std::pair<int const ,ioBonusCashManager::BonusCashInfo> >,0> >,std::_Iterator_base0>::operator++

; 1208 :  #endif /* _ITERATOR_DEBUG_LEVEL == 2 */
; 1209 : 
; 1210 : 		_Nodeptr _Fixnode;	// the node to recolor as needed
; 1211 : 		_Nodeptr _Fixnodeparent;	// parent of _Fixnode (which may be nil)
; 1212 : 		_Nodeptr _Pnode = _Erasednode;
; 1213 : 
; 1214 : 		if (this->_Isnil(this->_Left(_Pnode)))

  00026	8b 13		 mov	 edx, DWORD PTR [ebx]
  00028	80 7a 21 00	 cmp	 BYTE PTR [edx+33], 0
  0002c	74 05		 je	 SHORT $LN39@erase

; 1215 : 			_Fixnode = this->_Right(_Pnode);	// stitch up right subtree

  0002e	8b 7b 08	 mov	 edi, DWORD PTR [ebx+8]

; 1216 : 		else if (this->_Isnil(this->_Right(_Pnode)))

  00031	eb 17		 jmp	 SHORT $LN321@erase
$LN39@erase:
  00033	8b 43 08	 mov	 eax, DWORD PTR [ebx+8]
  00036	80 78 21 00	 cmp	 BYTE PTR [eax+33], 0
  0003a	74 04		 je	 SHORT $LN37@erase

; 1217 : 			_Fixnode = this->_Left(_Pnode);	// stitch up left subtree

  0003c	8b fa		 mov	 edi, edx

; 1218 : 		else

  0003e	eb 0a		 jmp	 SHORT $LN321@erase
$LN37@erase:

; 1219 : 			{	// two subtrees, must lift successor node to replace erased
; 1220 : 			_Pnode = _Where._Mynode();	// _Pnode is successor node

  00040	8b 45 0c	 mov	 eax, DWORD PTR __Where$[ebp]

; 1221 : 			_Fixnode = this->_Right(_Pnode);	// _Fixnode is only subtree

  00043	8b 78 08	 mov	 edi, DWORD PTR [eax+8]

; 1222 : 			}
; 1223 : 
; 1224 : 		if (_Pnode == _Erasednode)

  00046	3b c3		 cmp	 eax, ebx
  00048	75 76		 jne	 SHORT $LN35@erase
$LN321@erase:

; 1225 : 			{	// at most one subtree, relink it
; 1226 : 			_Fixnodeparent = this->_Parent(_Erasednode);
; 1227 : 			if (!this->_Isnil(_Fixnode))

  0004a	80 7f 21 00	 cmp	 BYTE PTR [edi+33], 0
  0004e	8b 73 04	 mov	 esi, DWORD PTR [ebx+4]
  00051	75 03		 jne	 SHORT $LN34@erase

; 1228 : 				this->_Parent(_Fixnode) = _Fixnodeparent;	// link up

  00053	89 77 04	 mov	 DWORD PTR [edi+4], esi
$LN34@erase:

; 1229 : 
; 1230 : 			if (_Root() == _Erasednode)

  00056	8b 4d fc	 mov	 ecx, DWORD PTR _this$[ebp]
  00059	8b 41 04	 mov	 eax, DWORD PTR [ecx+4]
  0005c	39 58 04	 cmp	 DWORD PTR [eax+4], ebx
  0005f	75 05		 jne	 SHORT $LN33@erase

; 1231 : 				_Root() = _Fixnode;	// link down from root

  00061	89 78 04	 mov	 DWORD PTR [eax+4], edi

; 1232 : 			else if (this->_Left(_Fixnodeparent) == _Erasednode)

  00064	eb 0b		 jmp	 SHORT $LN30@erase
$LN33@erase:
  00066	39 1e		 cmp	 DWORD PTR [esi], ebx
  00068	75 04		 jne	 SHORT $LN31@erase

; 1233 : 				this->_Left(_Fixnodeparent) = _Fixnode;	// link down to left

  0006a	89 3e		 mov	 DWORD PTR [esi], edi

; 1234 : 			else

  0006c	eb 03		 jmp	 SHORT $LN30@erase
$LN31@erase:

; 1235 : 				this->_Right(_Fixnodeparent) =
; 1236 : 					_Fixnode;	// link down to right

  0006e	89 7e 08	 mov	 DWORD PTR [esi+8], edi
$LN30@erase:

; 1237 : 
; 1238 : 			if (_Lmost() == _Erasednode)

  00071	8b 49 04	 mov	 ecx, DWORD PTR [ecx+4]
  00074	39 19		 cmp	 DWORD PTR [ecx], ebx
  00076	75 1c		 jne	 SHORT $LN29@erase

; 1239 : 				_Lmost() = this->_Isnil(_Fixnode)
; 1240 : 					? _Fixnodeparent	// smallest is parent of erased node
; 1241 : 					: this->_Min(_Fixnode);	// smallest in relinked subtree

  00078	80 7f 21 00	 cmp	 BYTE PTR [edi+33], 0
  0007c	74 04		 je	 SHORT $LN43@erase
  0007e	8b d6		 mov	 edx, esi
  00080	eb 10		 jmp	 SHORT $LN97@erase
$LN43@erase:
  00082	8b 07		 mov	 eax, DWORD PTR [edi]
  00084	8b d7		 mov	 edx, edi
  00086	eb 04		 jmp	 SHORT $LN323@erase
$LL98@erase:
  00088	8b d0		 mov	 edx, eax
  0008a	8b 02		 mov	 eax, DWORD PTR [edx]
$LN323@erase:
  0008c	80 78 21 00	 cmp	 BYTE PTR [eax+33], 0
  00090	74 f6		 je	 SHORT $LL98@erase
$LN97@erase:
  00092	89 11		 mov	 DWORD PTR [ecx], edx
$LN29@erase:

; 1242 : 
; 1243 : 			if (_Rmost() == _Erasednode)

  00094	8b 45 fc	 mov	 eax, DWORD PTR _this$[ebp]
  00097	8b 48 04	 mov	 ecx, DWORD PTR [eax+4]
  0009a	39 59 08	 cmp	 DWORD PTR [ecx+8], ebx
  0009d	75 7b		 jne	 SHORT $LN185@erase

; 1244 : 				_Rmost() = this->_Isnil(_Fixnode)
; 1245 : 					? _Fixnodeparent	// largest is parent of erased node
; 1246 : 					: this->_Max(_Fixnode);	// largest in relinked subtree

  0009f	80 7f 21 00	 cmp	 BYTE PTR [edi+33], 0
  000a3	74 04		 je	 SHORT $LN45@erase
  000a5	8b d6		 mov	 edx, esi
  000a7	eb 12		 jmp	 SHORT $LN117@erase
$LN45@erase:
  000a9	8b 47 08	 mov	 eax, DWORD PTR [edi+8]
  000ac	8b d7		 mov	 edx, edi
  000ae	eb 05		 jmp	 SHORT $LN324@erase
$LL118@erase:
  000b0	8b d0		 mov	 edx, eax
  000b2	8b 42 08	 mov	 eax, DWORD PTR [edx+8]
$LN324@erase:
  000b5	80 78 21 00	 cmp	 BYTE PTR [eax+33], 0
  000b9	74 f5		 je	 SHORT $LL118@erase
$LN117@erase:
  000bb	89 51 08	 mov	 DWORD PTR [ecx+8], edx

; 1247 : 			}
; 1248 : 		else

  000be	eb 5a		 jmp	 SHORT $LN185@erase
$LN35@erase:

; 1249 : 			{	// erased has two subtrees, _Pnode is successor to erased
; 1250 : 			this->_Parent(this->_Left(_Erasednode)) =
; 1251 : 				_Pnode;	// link left up

  000c0	89 42 04	 mov	 DWORD PTR [edx+4], eax

; 1252 : 			this->_Left(_Pnode) =
; 1253 : 				this->_Left(_Erasednode);	// link successor down

  000c3	8b 13		 mov	 edx, DWORD PTR [ebx]
  000c5	89 10		 mov	 DWORD PTR [eax], edx

; 1254 : 
; 1255 : 			if (_Pnode == this->_Right(_Erasednode))

  000c7	3b 43 08	 cmp	 eax, DWORD PTR [ebx+8]
  000ca	75 04		 jne	 SHORT $LN26@erase

; 1256 : 				_Fixnodeparent = _Pnode;	// successor is next to erased

  000cc	8b f0		 mov	 esi, eax

; 1257 : 			else

  000ce	eb 1a		 jmp	 SHORT $LN25@erase
$LN26@erase:

; 1258 : 				{	// successor further down, link in place of erased
; 1259 : 				_Fixnodeparent =
; 1260 : 					this->_Parent(_Pnode);	// parent is successor's
; 1261 : 				if (!this->_Isnil(_Fixnode))

  000d0	80 7f 21 00	 cmp	 BYTE PTR [edi+33], 0
  000d4	8b 70 04	 mov	 esi, DWORD PTR [eax+4]
  000d7	75 03		 jne	 SHORT $LN24@erase

; 1262 : 					this->_Parent(_Fixnode) = _Fixnodeparent;	// link fix up

  000d9	89 77 04	 mov	 DWORD PTR [edi+4], esi
$LN24@erase:

; 1263 : 				this->_Left(_Fixnodeparent) = _Fixnode;	// link fix down

  000dc	89 3e		 mov	 DWORD PTR [esi], edi

; 1264 : 				this->_Right(_Pnode) =
; 1265 : 					this->_Right(_Erasednode);	// link next down

  000de	8b 53 08	 mov	 edx, DWORD PTR [ebx+8]
  000e1	89 50 08	 mov	 DWORD PTR [eax+8], edx

; 1266 : 				this->_Parent(this->_Right(_Erasednode)) =
; 1267 : 					_Pnode;	// right up

  000e4	8b 4b 08	 mov	 ecx, DWORD PTR [ebx+8]
  000e7	89 41 04	 mov	 DWORD PTR [ecx+4], eax
$LN25@erase:

; 1268 : 				}
; 1269 : 
; 1270 : 			if (_Root() == _Erasednode)

  000ea	8b 4d fc	 mov	 ecx, DWORD PTR _this$[ebp]
  000ed	8b 49 04	 mov	 ecx, DWORD PTR [ecx+4]
  000f0	39 59 04	 cmp	 DWORD PTR [ecx+4], ebx
  000f3	75 05		 jne	 SHORT $LN23@erase

; 1271 : 				_Root() = _Pnode;	// link down from root

  000f5	89 41 04	 mov	 DWORD PTR [ecx+4], eax

; 1272 : 			else if (this->_Left(this->_Parent(_Erasednode)) == _Erasednode)

  000f8	eb 0e		 jmp	 SHORT $LN20@erase
$LN23@erase:
  000fa	8b 4b 04	 mov	 ecx, DWORD PTR [ebx+4]
  000fd	39 19		 cmp	 DWORD PTR [ecx], ebx
  000ff	75 04		 jne	 SHORT $LN21@erase

; 1273 : 				this->_Left(this->_Parent(_Erasednode)) =
; 1274 : 					_Pnode;	// link down to left

  00101	89 01		 mov	 DWORD PTR [ecx], eax

; 1275 : 			else

  00103	eb 03		 jmp	 SHORT $LN20@erase
$LN21@erase:

; 1276 : 				this->_Right(this->_Parent(_Erasednode)) =
; 1277 : 					_Pnode;	// link down to right

  00105	89 41 08	 mov	 DWORD PTR [ecx+8], eax
$LN20@erase:

; 1278 : 
; 1279 : 			this->_Parent(_Pnode) =
; 1280 : 				this->_Parent(_Erasednode);	// link successor up

  00108	8b 4b 04	 mov	 ecx, DWORD PTR [ebx+4]
  0010b	89 48 04	 mov	 DWORD PTR [eax+4], ecx

; 1281 : 			_STD swap(this->_Color(_Pnode),
; 1282 : 				this->_Color(_Erasednode));	// recolor it

  0010e	8a 53 20	 mov	 dl, BYTE PTR [ebx+32]
  00111	8a 48 20	 mov	 cl, BYTE PTR [eax+32]
  00114	88 50 20	 mov	 BYTE PTR [eax+32], dl
  00117	88 4b 20	 mov	 BYTE PTR [ebx+32], cl
$LN185@erase:

; 1283 : 			}
; 1284 : 
; 1285 : 		if (this->_Color(_Erasednode) == this->_Black)

  0011a	80 7b 20 01	 cmp	 BYTE PTR [ebx+32], 1
  0011e	0f 85 03 01 00
	00		 jne	 $LN19@erase

; 1286 : 			{	// erasing black link, must recolor/rebalance tree
; 1287 : 			for (; _Fixnode != _Root()
; 1288 : 				&& this->_Color(_Fixnode) == this->_Black;
; 1289 : 				_Fixnodeparent = this->_Parent(_Fixnode))

  00124	e9 b2 00 00 00	 jmp	 $LN326@erase
$LL18@erase:
  00129	80 7f 20 01	 cmp	 BYTE PTR [edi+32], 1
  0012d	0f 85 f0 00 00
	00		 jne	 $LN16@erase

; 1290 : 				if (_Fixnode == this->_Left(_Fixnodeparent))

  00133	8b 06		 mov	 eax, DWORD PTR [esi]
  00135	3b f8		 cmp	 edi, eax
  00137	75 6c		 jne	 SHORT $LN15@erase

; 1291 : 					{	// fixup left subtree
; 1292 : 					_Pnode = this->_Right(_Fixnodeparent);

  00139	8b 46 08	 mov	 eax, DWORD PTR [esi+8]

; 1293 : 					if (this->_Color(_Pnode) == this->_Red)

  0013c	80 78 20 00	 cmp	 BYTE PTR [eax+32], 0
  00140	75 11		 jne	 SHORT $LN14@erase

; 1294 : 						{	// rotate red up from right subtree
; 1295 : 						this->_Color(_Pnode) = this->_Black;

  00142	c6 40 20 01	 mov	 BYTE PTR [eax+32], 1

; 1296 : 						this->_Color(_Fixnodeparent) = this->_Red;
; 1297 : 						_Lrotate(_Fixnodeparent);

  00146	56		 push	 esi
  00147	c6 46 20 00	 mov	 BYTE PTR [esi+32], 0
  0014b	e8 00 00 00 00	 call	 ?_Lrotate@?$_Tree@V?$_Tmap_traits@HUBonusCashInfo@ioBonusCashManager@@U?$less@H@std@@V?$allocator@U?$pair@$$CBHUBonusCashInfo@ioBonusCashManager@@@std@@@4@$0A@@std@@@std@@IAEXPAU_Node@?$_Tree_nod@V?$_Tmap_traits@HUBonusCashInfo@ioBonusCashManager@@U?$less@H@std@@V?$allocator@U?$pair@$$CBHUBonusCashInfo@ioBonusCashManager@@@std@@@4@$0A@@std@@@2@@Z ; std::_Tree<std::_Tmap_traits<int,ioBonusCashManager::BonusCashInfo,std::less<int>,std::allocator<std::pair<int const ,ioBonusCashManager::BonusCashInfo> >,0> >::_Lrotate

; 1298 : 						_Pnode = this->_Right(_Fixnodeparent);

  00150	8b 46 08	 mov	 eax, DWORD PTR [esi+8]
$LN14@erase:

; 1299 : 						}
; 1300 : 
; 1301 : 					if (this->_Isnil(_Pnode))

  00153	80 78 21 00	 cmp	 BYTE PTR [eax+33], 0

; 1302 : 						_Fixnode = _Fixnodeparent;	// shouldn't happen
; 1303 : 					else if (this->_Color(this->_Left(_Pnode)) == this->_Black

  00157	75 7d		 jne	 SHORT $LN327@erase

; 1304 : 						&& this->_Color(this->_Right(_Pnode)) == this->_Black)

  00159	8b 08		 mov	 ecx, DWORD PTR [eax]
  0015b	80 79 20 01	 cmp	 BYTE PTR [ecx+32], 1
  0015f	75 09		 jne	 SHORT $LN11@erase
  00161	8b 48 08	 mov	 ecx, DWORD PTR [eax+8]
  00164	80 79 20 01	 cmp	 BYTE PTR [ecx+32], 1
  00168	74 68		 je	 SHORT $LN328@erase
$LN11@erase:

; 1305 : 						{	// redden right subtree with black children
; 1306 : 						this->_Color(_Pnode) = this->_Red;
; 1307 : 						_Fixnode = _Fixnodeparent;
; 1308 : 						}
; 1309 : 					else
; 1310 : 						{	// must rearrange right subtree
; 1311 : 						if (this->_Color(this->_Right(_Pnode))
; 1312 : 							== this->_Black)

  0016a	8b 48 08	 mov	 ecx, DWORD PTR [eax+8]
  0016d	80 79 20 01	 cmp	 BYTE PTR [ecx+32], 1
  00171	75 16		 jne	 SHORT $LN9@erase

; 1313 : 							{	// rotate red up from left sub-subtree
; 1314 : 							this->_Color(this->_Left(_Pnode)) = this->_Black;

  00173	8b 08		 mov	 ecx, DWORD PTR [eax]
  00175	c6 41 20 01	 mov	 BYTE PTR [ecx+32], 1

; 1315 : 							this->_Color(_Pnode) = this->_Red;
; 1316 : 							_Rrotate(_Pnode);

  00179	8b 4d fc	 mov	 ecx, DWORD PTR _this$[ebp]
  0017c	50		 push	 eax
  0017d	c6 40 20 00	 mov	 BYTE PTR [eax+32], 0
  00181	e8 00 00 00 00	 call	 ?_Rrotate@?$_Tree@V?$_Tmap_traits@HUBonusCashInfo@ioBonusCashManager@@U?$less@H@std@@V?$allocator@U?$pair@$$CBHUBonusCashInfo@ioBonusCashManager@@@std@@@4@$0A@@std@@@std@@IAEXPAU_Node@?$_Tree_nod@V?$_Tmap_traits@HUBonusCashInfo@ioBonusCashManager@@U?$less@H@std@@V?$allocator@U?$pair@$$CBHUBonusCashInfo@ioBonusCashManager@@@std@@@4@$0A@@std@@@2@@Z ; std::_Tree<std::_Tmap_traits<int,ioBonusCashManager::BonusCashInfo,std::less<int>,std::allocator<std::pair<int const ,ioBonusCashManager::BonusCashInfo> >,0> >::_Rrotate

; 1317 : 							_Pnode = this->_Right(_Fixnodeparent);

  00186	8b 46 08	 mov	 eax, DWORD PTR [esi+8]
$LN9@erase:

; 1318 : 							}
; 1319 : 
; 1320 : 						this->_Color(_Pnode) = this->_Color(_Fixnodeparent);

  00189	8a 4e 20	 mov	 cl, BYTE PTR [esi+32]
  0018c	88 48 20	 mov	 BYTE PTR [eax+32], cl

; 1321 : 						this->_Color(_Fixnodeparent) = this->_Black;
; 1322 : 						this->_Color(this->_Right(_Pnode)) = this->_Black;
; 1323 : 						_Lrotate(_Fixnodeparent);

  0018f	8b 4d fc	 mov	 ecx, DWORD PTR _this$[ebp]
  00192	c6 46 20 01	 mov	 BYTE PTR [esi+32], 1
  00196	8b 40 08	 mov	 eax, DWORD PTR [eax+8]
  00199	56		 push	 esi
  0019a	c6 40 20 01	 mov	 BYTE PTR [eax+32], 1
  0019e	e8 00 00 00 00	 call	 ?_Lrotate@?$_Tree@V?$_Tmap_traits@HUBonusCashInfo@ioBonusCashManager@@U?$less@H@std@@V?$allocator@U?$pair@$$CBHUBonusCashInfo@ioBonusCashManager@@@std@@@4@$0A@@std@@@std@@IAEXPAU_Node@?$_Tree_nod@V?$_Tmap_traits@HUBonusCashInfo@ioBonusCashManager@@U?$less@H@std@@V?$allocator@U?$pair@$$CBHUBonusCashInfo@ioBonusCashManager@@@std@@@4@$0A@@std@@@2@@Z ; std::_Tree<std::_Tmap_traits<int,ioBonusCashManager::BonusCashInfo,std::less<int>,std::allocator<std::pair<int const ,ioBonusCashManager::BonusCashInfo> >,0> >::_Lrotate

; 1324 : 						break;	// tree now recolored/rebalanced

  001a3	eb 7e		 jmp	 SHORT $LN16@erase
$LN15@erase:

; 1325 : 						}
; 1326 : 					}
; 1327 : 				else
; 1328 : 					{	// fixup right subtree
; 1329 : 					_Pnode = this->_Left(_Fixnodeparent);
; 1330 : 					if (this->_Color(_Pnode) == this->_Red)

  001a5	80 78 20 00	 cmp	 BYTE PTR [eax+32], 0
  001a9	75 10		 jne	 SHORT $LN7@erase

; 1331 : 						{	// rotate red up from left subtree
; 1332 : 						this->_Color(_Pnode) = this->_Black;

  001ab	c6 40 20 01	 mov	 BYTE PTR [eax+32], 1

; 1333 : 						this->_Color(_Fixnodeparent) = this->_Red;
; 1334 : 						_Rrotate(_Fixnodeparent);

  001af	56		 push	 esi
  001b0	c6 46 20 00	 mov	 BYTE PTR [esi+32], 0
  001b4	e8 00 00 00 00	 call	 ?_Rrotate@?$_Tree@V?$_Tmap_traits@HUBonusCashInfo@ioBonusCashManager@@U?$less@H@std@@V?$allocator@U?$pair@$$CBHUBonusCashInfo@ioBonusCashManager@@@std@@@4@$0A@@std@@@std@@IAEXPAU_Node@?$_Tree_nod@V?$_Tmap_traits@HUBonusCashInfo@ioBonusCashManager@@U?$less@H@std@@V?$allocator@U?$pair@$$CBHUBonusCashInfo@ioBonusCashManager@@@std@@@4@$0A@@std@@@2@@Z ; std::_Tree<std::_Tmap_traits<int,ioBonusCashManager::BonusCashInfo,std::less<int>,std::allocator<std::pair<int const ,ioBonusCashManager::BonusCashInfo> >,0> >::_Rrotate

; 1335 : 						_Pnode = this->_Left(_Fixnodeparent);

  001b9	8b 06		 mov	 eax, DWORD PTR [esi]
$LN7@erase:

; 1336 : 						}
; 1337 : 					if (this->_Isnil(_Pnode))

  001bb	80 78 21 00	 cmp	 BYTE PTR [eax+33], 0

; 1338 : 						_Fixnode = _Fixnodeparent;	// shouldn't happen
; 1339 : 					else if (this->_Color(this->_Right(_Pnode)) ==

  001bf	75 15		 jne	 SHORT $LN327@erase

; 1340 : 						this->_Black
; 1341 : 						&& this->_Color(this->_Left(_Pnode)) == this->_Black)

  001c1	8b 48 08	 mov	 ecx, DWORD PTR [eax+8]
  001c4	80 79 20 01	 cmp	 BYTE PTR [ecx+32], 1
  001c8	75 22		 jne	 SHORT $LN4@erase
  001ca	8b 08		 mov	 ecx, DWORD PTR [eax]
  001cc	80 79 20 01	 cmp	 BYTE PTR [ecx+32], 1
  001d0	75 1a		 jne	 SHORT $LN4@erase
$LN328@erase:

; 1342 : 						{	// redden left subtree with black children
; 1343 : 						this->_Color(_Pnode) = this->_Red;

  001d2	c6 40 20 00	 mov	 BYTE PTR [eax+32], 0
$LN327@erase:

; 1344 : 						_Fixnode = _Fixnodeparent;

  001d6	8b fe		 mov	 edi, esi
  001d8	8b 76 04	 mov	 esi, DWORD PTR [esi+4]
$LN326@erase:

; 1286 : 			{	// erasing black link, must recolor/rebalance tree
; 1287 : 			for (; _Fixnode != _Root()
; 1288 : 				&& this->_Color(_Fixnode) == this->_Black;
; 1289 : 				_Fixnodeparent = this->_Parent(_Fixnode))

  001db	8b 4d fc	 mov	 ecx, DWORD PTR _this$[ebp]
  001de	8b 41 04	 mov	 eax, DWORD PTR [ecx+4]
  001e1	3b 78 04	 cmp	 edi, DWORD PTR [eax+4]
  001e4	0f 85 3f ff ff
	ff		 jne	 $LL18@erase
  001ea	eb 37		 jmp	 SHORT $LN16@erase
$LN4@erase:

; 1345 : 						}
; 1346 : 					else
; 1347 : 						{	// must rearrange left subtree
; 1348 : 						if (this->_Color(this->_Left(_Pnode)) == this->_Black)

  001ec	8b 08		 mov	 ecx, DWORD PTR [eax]
  001ee	80 79 20 01	 cmp	 BYTE PTR [ecx+32], 1
  001f2	75 16		 jne	 SHORT $LN2@erase

; 1349 : 							{	// rotate red up from right sub-subtree
; 1350 : 							this->_Color(this->_Right(_Pnode)) = this->_Black;

  001f4	8b 48 08	 mov	 ecx, DWORD PTR [eax+8]
  001f7	c6 41 20 01	 mov	 BYTE PTR [ecx+32], 1

; 1351 : 							this->_Color(_Pnode) = this->_Red;
; 1352 : 							_Lrotate(_Pnode);

  001fb	8b 4d fc	 mov	 ecx, DWORD PTR _this$[ebp]
  001fe	50		 push	 eax
  001ff	c6 40 20 00	 mov	 BYTE PTR [eax+32], 0
  00203	e8 00 00 00 00	 call	 ?_Lrotate@?$_Tree@V?$_Tmap_traits@HUBonusCashInfo@ioBonusCashManager@@U?$less@H@std@@V?$allocator@U?$pair@$$CBHUBonusCashInfo@ioBonusCashManager@@@std@@@4@$0A@@std@@@std@@IAEXPAU_Node@?$_Tree_nod@V?$_Tmap_traits@HUBonusCashInfo@ioBonusCashManager@@U?$less@H@std@@V?$allocator@U?$pair@$$CBHUBonusCashInfo@ioBonusCashManager@@@std@@@4@$0A@@std@@@2@@Z ; std::_Tree<std::_Tmap_traits<int,ioBonusCashManager::BonusCashInfo,std::less<int>,std::allocator<std::pair<int const ,ioBonusCashManager::BonusCashInfo> >,0> >::_Lrotate

; 1353 : 							_Pnode = this->_Left(_Fixnodeparent);

  00208	8b 06		 mov	 eax, DWORD PTR [esi]
$LN2@erase:

; 1354 : 							}
; 1355 : 
; 1356 : 						this->_Color(_Pnode) = this->_Color(_Fixnodeparent);

  0020a	8a 4e 20	 mov	 cl, BYTE PTR [esi+32]
  0020d	88 48 20	 mov	 BYTE PTR [eax+32], cl

; 1357 : 						this->_Color(_Fixnodeparent) = this->_Black;
; 1358 : 						this->_Color(this->_Left(_Pnode)) = this->_Black;
; 1359 : 						_Rrotate(_Fixnodeparent);

  00210	8b 4d fc	 mov	 ecx, DWORD PTR _this$[ebp]
  00213	c6 46 20 01	 mov	 BYTE PTR [esi+32], 1
  00217	8b 00		 mov	 eax, DWORD PTR [eax]
  00219	56		 push	 esi
  0021a	c6 40 20 01	 mov	 BYTE PTR [eax+32], 1
  0021e	e8 00 00 00 00	 call	 ?_Rrotate@?$_Tree@V?$_Tmap_traits@HUBonusCashInfo@ioBonusCashManager@@U?$less@H@std@@V?$allocator@U?$pair@$$CBHUBonusCashInfo@ioBonusCashManager@@@std@@@4@$0A@@std@@@std@@IAEXPAU_Node@?$_Tree_nod@V?$_Tmap_traits@HUBonusCashInfo@ioBonusCashManager@@U?$less@H@std@@V?$allocator@U?$pair@$$CBHUBonusCashInfo@ioBonusCashManager@@@std@@@4@$0A@@std@@@2@@Z ; std::_Tree<std::_Tmap_traits<int,ioBonusCashManager::BonusCashInfo,std::less<int>,std::allocator<std::pair<int const ,ioBonusCashManager::BonusCashInfo> >,0> >::_Rrotate
$LN16@erase:

; 1360 : 						break;	// tree now recolored/rebalanced
; 1361 : 						}
; 1362 : 					}
; 1363 : 
; 1364 : 			this->_Color(_Fixnode) = this->_Black;	// stopping node is black

  00223	c6 47 20 01	 mov	 BYTE PTR [edi+32], 1
$LN19@erase:

; 1365 : 			}
; 1366 : 
; 1367 : 		_Dest_val(this->_Alval,
; 1368 : 			_STD addressof(this->_Myval(_Erasednode)));	// delete erased node
; 1369 : 
; 1370 : 		this->_Alnod.deallocate(_Erasednode, 1);

  00227	53		 push	 ebx
  00228	e8 00 00 00 00	 call	 ??3@YAXPAX@Z		; operator delete
  0022d	59		 pop	 ecx

; 1371 : 
; 1372 : 		if (0 < this->_Mysize)

  0022e	8b 4d fc	 mov	 ecx, DWORD PTR _this$[ebp]
  00231	8b 41 08	 mov	 eax, DWORD PTR [ecx+8]
  00234	5f		 pop	 edi
  00235	5e		 pop	 esi
  00236	5b		 pop	 ebx
  00237	85 c0		 test	 eax, eax
  00239	74 04		 je	 SHORT $LN1@erase

; 1373 : 			--this->_Mysize;

  0023b	48		 dec	 eax
  0023c	89 41 08	 mov	 DWORD PTR [ecx+8], eax
$LN1@erase:

; 1374 : 
; 1375 : 		return (iterator(_Where._Ptr, this));	// return successor iterator

  0023f	8b 45 08	 mov	 eax, DWORD PTR ___$ReturnUdt$[ebp]
  00242	8b 4d 0c	 mov	 ecx, DWORD PTR __Where$[ebp]
  00245	89 08		 mov	 DWORD PTR [eax], ecx

; 1376 : 		}

  00247	c9		 leave
  00248	c2 08 00	 ret	 8
$LN322@erase:
?erase@?$_Tree@V?$_Tmap_traits@HUBonusCashInfo@ioBonusCashManager@@U?$less@H@std@@V?$allocator@U?$pair@$$CBHUBonusCashInfo@ioBonusCashManager@@@std@@@4@$0A@@std@@@std@@QAE?AV?$_Tree_iterator@V?$_Tree_val@V?$_Tmap_traits@HUBonusCashInfo@ioBonusCashManager@@U?$less@H@std@@V?$allocator@U?$pair@$$CBHUBonusCashInfo@ioBonusCashManager@@@std@@@4@$0A@@std@@@std@@@2@V?$_Tree_const_iterator@V?$_Tree_val@V?$_Tmap_traits@HUBonusCashInfo@ioBonusCashManager@@U?$less@H@std@@V?$allocator@U?$pair@$$CBHUBonusCashInfo@ioBonusCashManager@@@std@@@4@$0A@@std@@@std@@@2@@Z ENDP ; std::_Tree<std::_Tmap_traits<int,ioBonusCashManager::BonusCashInfo,std::less<int>,std::allocator<std::pair<int const ,ioBonusCashManager::BonusCashInfo> >,0> >::erase
_TEXT	ENDS
PUBLIC	?clear@?$_Tree@V?$_Tmap_traits@HUBonusCashInfo@ioBonusCashManager@@U?$less@H@std@@V?$allocator@U?$pair@$$CBHUBonusCashInfo@ioBonusCashManager@@@std@@@4@$0A@@std@@@std@@QAEXXZ ; std::_Tree<std::_Tmap_traits<int,ioBonusCashManager::BonusCashInfo,std::less<int>,std::allocator<std::pair<int const ,ioBonusCashManager::BonusCashInfo> >,0> >::clear
; Function compile flags: /Ogsp
;	COMDAT ?clear@?$_Tree@V?$_Tmap_traits@HUBonusCashInfo@ioBonusCashManager@@U?$less@H@std@@V?$allocator@U?$pair@$$CBHUBonusCashInfo@ioBonusCashManager@@@std@@@4@$0A@@std@@@std@@QAEXXZ
_TEXT	SEGMENT
?clear@?$_Tree@V?$_Tmap_traits@HUBonusCashInfo@ioBonusCashManager@@U?$less@H@std@@V?$allocator@U?$pair@$$CBHUBonusCashInfo@ioBonusCashManager@@@std@@@4@$0A@@std@@@std@@QAEXXZ PROC ; std::_Tree<std::_Tmap_traits<int,ioBonusCashManager::BonusCashInfo,std::less<int>,std::allocator<std::pair<int const ,ioBonusCashManager::BonusCashInfo> >,0> >::clear, COMDAT
; _this$ = ecx

; 1410 : 		{	// erase all

  00000	56		 push	 esi
  00001	57		 push	 edi
  00002	8b f9		 mov	 edi, ecx

; 1411 :  #if _ITERATOR_DEBUG_LEVEL == 2
; 1412 : 		this->_Orphan_ptr(*this, 0);
; 1413 :  #endif /* _ITERATOR_DEBUG_LEVEL == 2 */
; 1414 : 
; 1415 : 		_Erase(_Root());

  00004	8b 47 04	 mov	 eax, DWORD PTR [edi+4]
  00007	ff 70 04	 push	 DWORD PTR [eax+4]
  0000a	e8 00 00 00 00	 call	 ?_Erase@?$_Tree@V?$_Tmap_traits@HUBonusCashInfo@ioBonusCashManager@@U?$less@H@std@@V?$allocator@U?$pair@$$CBHUBonusCashInfo@ioBonusCashManager@@@std@@@4@$0A@@std@@@std@@IAEXPAU_Node@?$_Tree_nod@V?$_Tmap_traits@HUBonusCashInfo@ioBonusCashManager@@U?$less@H@std@@V?$allocator@U?$pair@$$CBHUBonusCashInfo@ioBonusCashManager@@@std@@@4@$0A@@std@@@2@@Z ; std::_Tree<std::_Tmap_traits<int,ioBonusCashManager::BonusCashInfo,std::less<int>,std::allocator<std::pair<int const ,ioBonusCashManager::BonusCashInfo> >,0> >::_Erase

; 1416 : 		_Root() = this->_Myhead;

  0000f	8b 47 04	 mov	 eax, DWORD PTR [edi+4]
  00012	89 40 04	 mov	 DWORD PTR [eax+4], eax

; 1417 : 		_Lmost() = this->_Myhead;

  00015	8b 47 04	 mov	 eax, DWORD PTR [edi+4]
  00018	89 00		 mov	 DWORD PTR [eax], eax

; 1418 : 		_Rmost() = this->_Myhead;

  0001a	8b 77 04	 mov	 esi, DWORD PTR [edi+4]
  0001d	89 76 08	 mov	 DWORD PTR [esi+8], esi

; 1419 : 		this->_Mysize = 0;

  00020	83 67 08 00	 and	 DWORD PTR [edi+8], 0
  00024	5f		 pop	 edi
  00025	5e		 pop	 esi

; 1420 : 		}

  00026	c3		 ret	 0
?clear@?$_Tree@V?$_Tmap_traits@HUBonusCashInfo@ioBonusCashManager@@U?$less@H@std@@V?$allocator@U?$pair@$$CBHUBonusCashInfo@ioBonusCashManager@@@std@@@4@$0A@@std@@@std@@QAEXXZ ENDP ; std::_Tree<std::_Tmap_traits<int,ioBonusCashManager::BonusCashInfo,std::less<int>,std::allocator<std::pair<int const ,ioBonusCashManager::BonusCashInfo> >,0> >::clear
_TEXT	ENDS
PUBLIC	?find@?$_Tree@V?$_Tmap_traits@HUBonusCashInfo@ioBonusCashManager@@U?$less@H@std@@V?$allocator@U?$pair@$$CBHUBonusCashInfo@ioBonusCashManager@@@std@@@4@$0A@@std@@@std@@QBE?AV?$_Tree_const_iterator@V?$_Tree_val@V?$_Tmap_traits@HUBonusCashInfo@ioBonusCashManager@@U?$less@H@std@@V?$allocator@U?$pair@$$CBHUBonusCashInfo@ioBonusCashManager@@@std@@@4@$0A@@std@@@std@@@2@ABH@Z ; std::_Tree<std::_Tmap_traits<int,ioBonusCashManager::BonusCashInfo,std::less<int>,std::allocator<std::pair<int const ,ioBonusCashManager::BonusCashInfo> >,0> >::find
; Function compile flags: /Ogsp
;	COMDAT ?find@?$_Tree@V?$_Tmap_traits@HUBonusCashInfo@ioBonusCashManager@@U?$less@H@std@@V?$allocator@U?$pair@$$CBHUBonusCashInfo@ioBonusCashManager@@@std@@@4@$0A@@std@@@std@@QBE?AV?$_Tree_const_iterator@V?$_Tree_val@V?$_Tmap_traits@HUBonusCashInfo@ioBonusCashManager@@U?$less@H@std@@V?$allocator@U?$pair@$$CBHUBonusCashInfo@ioBonusCashManager@@@std@@@4@$0A@@std@@@std@@@2@ABH@Z
_TEXT	SEGMENT
$T509675 = -4						; size = 4
___$ReturnUdt$ = 8					; size = 4
__Where$ = 12						; size = 4
__Keyval$ = 12						; size = 4
?find@?$_Tree@V?$_Tmap_traits@HUBonusCashInfo@ioBonusCashManager@@U?$less@H@std@@V?$allocator@U?$pair@$$CBHUBonusCashInfo@ioBonusCashManager@@@std@@@4@$0A@@std@@@std@@QBE?AV?$_Tree_const_iterator@V?$_Tree_val@V?$_Tmap_traits@HUBonusCashInfo@ioBonusCashManager@@U?$less@H@std@@V?$allocator@U?$pair@$$CBHUBonusCashInfo@ioBonusCashManager@@@std@@@4@$0A@@std@@@std@@@2@ABH@Z PROC ; std::_Tree<std::_Tmap_traits<int,ioBonusCashManager::BonusCashInfo,std::less<int>,std::allocator<std::pair<int const ,ioBonusCashManager::BonusCashInfo> >,0> >::find, COMDAT
; _this$ = ecx

; 1432 : 		{	// find an element in nonmutable sequence that matches _Keyval

  00000	55		 push	 ebp
  00001	8b ec		 mov	 ebp, esp
  00003	51		 push	 ecx
  00004	56		 push	 esi
  00005	57		 push	 edi

; 1433 : 		const_iterator _Where = lower_bound(_Keyval);

  00006	8b 7d 0c	 mov	 edi, DWORD PTR __Keyval$[ebp]
  00009	57		 push	 edi
  0000a	8b f1		 mov	 esi, ecx
  0000c	e8 00 00 00 00	 call	 ?_Lbound@?$_Tree@V?$_Tmap_traits@HUBonusCashInfo@ioBonusCashManager@@U?$less@H@std@@V?$allocator@U?$pair@$$CBHUBonusCashInfo@ioBonusCashManager@@@std@@@4@$0A@@std@@@std@@IBEPAU_Node@?$_Tree_nod@V?$_Tmap_traits@HUBonusCashInfo@ioBonusCashManager@@U?$less@H@std@@V?$allocator@U?$pair@$$CBHUBonusCashInfo@ioBonusCashManager@@@std@@@4@$0A@@std@@@2@ABH@Z ; std::_Tree<std::_Tmap_traits<int,ioBonusCashManager::BonusCashInfo,std::less<int>,std::allocator<std::pair<int const ,ioBonusCashManager::BonusCashInfo> >,0> >::_Lbound

; 1434 : 		return (_Where == end()
; 1435 : 			|| _DEBUG_LT_PRED(this->comp,
; 1436 : 				_Keyval, this->_Key(_Where._Mynode()))
; 1437 : 					? end() : _Where);

  00011	8b 76 04	 mov	 esi, DWORD PTR [esi+4]
  00014	89 45 0c	 mov	 DWORD PTR __Where$[ebp], eax
  00017	3b c6		 cmp	 eax, esi
  00019	74 0c		 je	 SHORT $LN3@find
  0001b	8b 0f		 mov	 ecx, DWORD PTR [edi]
  0001d	3b 48 0c	 cmp	 ecx, DWORD PTR [eax+12]
  00020	7c 05		 jl	 SHORT $LN3@find
  00022	8d 45 0c	 lea	 eax, DWORD PTR __Where$[ebp]
  00025	eb 06		 jmp	 SHORT $LN4@find
$LN3@find:
  00027	89 75 fc	 mov	 DWORD PTR $T509675[ebp], esi
  0002a	8d 45 fc	 lea	 eax, DWORD PTR $T509675[ebp]
$LN4@find:
  0002d	8b 08		 mov	 ecx, DWORD PTR [eax]
  0002f	8b 45 08	 mov	 eax, DWORD PTR ___$ReturnUdt$[ebp]
  00032	5f		 pop	 edi
  00033	89 08		 mov	 DWORD PTR [eax], ecx
  00035	5e		 pop	 esi

; 1438 : 		}

  00036	c9		 leave
  00037	c2 08 00	 ret	 8
?find@?$_Tree@V?$_Tmap_traits@HUBonusCashInfo@ioBonusCashManager@@U?$less@H@std@@V?$allocator@U?$pair@$$CBHUBonusCashInfo@ioBonusCashManager@@@std@@@4@$0A@@std@@@std@@QBE?AV?$_Tree_const_iterator@V?$_Tree_val@V?$_Tmap_traits@HUBonusCashInfo@ioBonusCashManager@@U?$less@H@std@@V?$allocator@U?$pair@$$CBHUBonusCashInfo@ioBonusCashManager@@@std@@@4@$0A@@std@@@std@@@2@ABH@Z ENDP ; std::_Tree<std::_Tmap_traits<int,ioBonusCashManager::BonusCashInfo,std::less<int>,std::allocator<std::pair<int const ,ioBonusCashManager::BonusCashInfo> >,0> >::find
_TEXT	ENDS
PUBLIC	?lower_bound@?$_Tree@V?$_Tmap_traits@HUBonusCashInfo@ioBonusCashManager@@U?$less@H@std@@V?$allocator@U?$pair@$$CBHUBonusCashInfo@ioBonusCashManager@@@std@@@4@$0A@@std@@@std@@QAE?AV?$_Tree_iterator@V?$_Tree_val@V?$_Tmap_traits@HUBonusCashInfo@ioBonusCashManager@@U?$less@H@std@@V?$allocator@U?$pair@$$CBHUBonusCashInfo@ioBonusCashManager@@@std@@@4@$0A@@std@@@std@@@2@ABH@Z ; std::_Tree<std::_Tmap_traits<int,ioBonusCashManager::BonusCashInfo,std::less<int>,std::allocator<std::pair<int const ,ioBonusCashManager::BonusCashInfo> >,0> >::lower_bound
; Function compile flags: /Ogsp
;	COMDAT ?lower_bound@?$_Tree@V?$_Tmap_traits@HUBonusCashInfo@ioBonusCashManager@@U?$less@H@std@@V?$allocator@U?$pair@$$CBHUBonusCashInfo@ioBonusCashManager@@@std@@@4@$0A@@std@@@std@@QAE?AV?$_Tree_iterator@V?$_Tree_val@V?$_Tmap_traits@HUBonusCashInfo@ioBonusCashManager@@U?$less@H@std@@V?$allocator@U?$pair@$$CBHUBonusCashInfo@ioBonusCashManager@@@std@@@4@$0A@@std@@@std@@@2@ABH@Z
_TEXT	SEGMENT
___$ReturnUdt$ = 8					; size = 4
__Keyval$ = 12						; size = 4
?lower_bound@?$_Tree@V?$_Tmap_traits@HUBonusCashInfo@ioBonusCashManager@@U?$less@H@std@@V?$allocator@U?$pair@$$CBHUBonusCashInfo@ioBonusCashManager@@@std@@@4@$0A@@std@@@std@@QAE?AV?$_Tree_iterator@V?$_Tree_val@V?$_Tmap_traits@HUBonusCashInfo@ioBonusCashManager@@U?$less@H@std@@V?$allocator@U?$pair@$$CBHUBonusCashInfo@ioBonusCashManager@@@std@@@4@$0A@@std@@@std@@@2@ABH@Z PROC ; std::_Tree<std::_Tmap_traits<int,ioBonusCashManager::BonusCashInfo,std::less<int>,std::allocator<std::pair<int const ,ioBonusCashManager::BonusCashInfo> >,0> >::lower_bound, COMDAT
; _this$ = ecx

; 1449 : 		{	// find leftmost node not less than _Keyval in mutable tree

  00000	55		 push	 ebp
  00001	8b ec		 mov	 ebp, esp

; 1450 : 		return (iterator(_Lbound(_Keyval), this));

  00003	ff 75 0c	 push	 DWORD PTR __Keyval$[ebp]
  00006	e8 00 00 00 00	 call	 ?_Lbound@?$_Tree@V?$_Tmap_traits@HUBonusCashInfo@ioBonusCashManager@@U?$less@H@std@@V?$allocator@U?$pair@$$CBHUBonusCashInfo@ioBonusCashManager@@@std@@@4@$0A@@std@@@std@@IAEPAU_Node@?$_Tree_nod@V?$_Tmap_traits@HUBonusCashInfo@ioBonusCashManager@@U?$less@H@std@@V?$allocator@U?$pair@$$CBHUBonusCashInfo@ioBonusCashManager@@@std@@@4@$0A@@std@@@2@ABH@Z ; std::_Tree<std::_Tmap_traits<int,ioBonusCashManager::BonusCashInfo,std::less<int>,std::allocator<std::pair<int const ,ioBonusCashManager::BonusCashInfo> >,0> >::_Lbound
  0000b	8b 4d 08	 mov	 ecx, DWORD PTR ___$ReturnUdt$[ebp]
  0000e	89 01		 mov	 DWORD PTR [ecx], eax
  00010	8b c1		 mov	 eax, ecx

; 1451 : 		}

  00012	5d		 pop	 ebp
  00013	c2 08 00	 ret	 8
?lower_bound@?$_Tree@V?$_Tmap_traits@HUBonusCashInfo@ioBonusCashManager@@U?$less@H@std@@V?$allocator@U?$pair@$$CBHUBonusCashInfo@ioBonusCashManager@@@std@@@4@$0A@@std@@@std@@QAE?AV?$_Tree_iterator@V?$_Tree_val@V?$_Tmap_traits@HUBonusCashInfo@ioBonusCashManager@@U?$less@H@std@@V?$allocator@U?$pair@$$CBHUBonusCashInfo@ioBonusCashManager@@@std@@@4@$0A@@std@@@std@@@2@ABH@Z ENDP ; std::_Tree<std::_Tmap_traits<int,ioBonusCashManager::BonusCashInfo,std::less<int>,std::allocator<std::pair<int const ,ioBonusCashManager::BonusCashInfo> >,0> >::lower_bound
_TEXT	ENDS
PUBLIC	?erase@?$_Tree@V?$_Tmap_traits@HUBonusCashInfo@ioBonusCashManager@@U?$less@H@std@@V?$allocator@U?$pair@$$CBHUBonusCashInfo@ioBonusCashManager@@@std@@@4@$0A@@std@@@std@@QAE?AV?$_Tree_iterator@V?$_Tree_val@V?$_Tmap_traits@HUBonusCashInfo@ioBonusCashManager@@U?$less@H@std@@V?$allocator@U?$pair@$$CBHUBonusCashInfo@ioBonusCashManager@@@std@@@4@$0A@@std@@@std@@@2@V?$_Tree_const_iterator@V?$_Tree_val@V?$_Tmap_traits@HUBonusCashInfo@ioBonusCashManager@@U?$less@H@std@@V?$allocator@U?$pair@$$CBHUBonusCashInfo@ioBonusCashManager@@@std@@@4@$0A@@std@@@std@@@2@0@Z ; std::_Tree<std::_Tmap_traits<int,ioBonusCashManager::BonusCashInfo,std::less<int>,std::allocator<std::pair<int const ,ioBonusCashManager::BonusCashInfo> >,0> >::erase
; Function compile flags: /Ogsp
;	COMDAT ?erase@?$_Tree@V?$_Tmap_traits@HUBonusCashInfo@ioBonusCashManager@@U?$less@H@std@@V?$allocator@U?$pair@$$CBHUBonusCashInfo@ioBonusCashManager@@@std@@@4@$0A@@std@@@std@@QAE?AV?$_Tree_iterator@V?$_Tree_val@V?$_Tmap_traits@HUBonusCashInfo@ioBonusCashManager@@U?$less@H@std@@V?$allocator@U?$pair@$$CBHUBonusCashInfo@ioBonusCashManager@@@std@@@4@$0A@@std@@@std@@@2@V?$_Tree_const_iterator@V?$_Tree_val@V?$_Tmap_traits@HUBonusCashInfo@ioBonusCashManager@@U?$less@H@std@@V?$allocator@U?$pair@$$CBHUBonusCashInfo@ioBonusCashManager@@@std@@@4@$0A@@std@@@std@@@2@0@Z
_TEXT	SEGMENT
$T509806 = -4						; size = 4
___$ReturnUdt$ = 8					; size = 4
__First$ = 12						; size = 4
__Last$ = 16						; size = 4
?erase@?$_Tree@V?$_Tmap_traits@HUBonusCashInfo@ioBonusCashManager@@U?$less@H@std@@V?$allocator@U?$pair@$$CBHUBonusCashInfo@ioBonusCashManager@@@std@@@4@$0A@@std@@@std@@QAE?AV?$_Tree_iterator@V?$_Tree_val@V?$_Tmap_traits@HUBonusCashInfo@ioBonusCashManager@@U?$less@H@std@@V?$allocator@U?$pair@$$CBHUBonusCashInfo@ioBonusCashManager@@@std@@@4@$0A@@std@@@std@@@2@V?$_Tree_const_iterator@V?$_Tree_val@V?$_Tmap_traits@HUBonusCashInfo@ioBonusCashManager@@U?$less@H@std@@V?$allocator@U?$pair@$$CBHUBonusCashInfo@ioBonusCashManager@@@std@@@4@$0A@@std@@@std@@@2@0@Z PROC ; std::_Tree<std::_Tmap_traits<int,ioBonusCashManager::BonusCashInfo,std::less<int>,std::allocator<std::pair<int const ,ioBonusCashManager::BonusCashInfo> >,0> >::erase, COMDAT
; _this$ = ecx

; 1379 : 		{	// erase [_First, _Last)

  00000	55		 push	 ebp
  00001	8b ec		 mov	 ebp, esp
  00003	51		 push	 ecx
  00004	56		 push	 esi
  00005	8b f1		 mov	 esi, ecx

; 1380 : 		if (_First == begin() && _Last == end())

  00007	8b 46 04	 mov	 eax, DWORD PTR [esi+4]
  0000a	8b 4d 0c	 mov	 ecx, DWORD PTR __First$[ebp]
  0000d	3b 08		 cmp	 ecx, DWORD PTR [eax]
  0000f	75 13		 jne	 SHORT $LN65@erase@2
  00011	39 45 10	 cmp	 DWORD PTR __Last$[ebp], eax
  00014	75 0e		 jne	 SHORT $LN65@erase@2

; 1381 : 			{	// erase all
; 1382 : 			clear();

  00016	8b ce		 mov	 ecx, esi
  00018	e8 00 00 00 00	 call	 ?clear@?$_Tree@V?$_Tmap_traits@HUBonusCashInfo@ioBonusCashManager@@U?$less@H@std@@V?$allocator@U?$pair@$$CBHUBonusCashInfo@ioBonusCashManager@@@std@@@4@$0A@@std@@@std@@QAEXXZ ; std::_Tree<std::_Tmap_traits<int,ioBonusCashManager::BonusCashInfo,std::less<int>,std::allocator<std::pair<int const ,ioBonusCashManager::BonusCashInfo> >,0> >::clear

; 1383 : 			return (begin());

  0001d	8b 46 04	 mov	 eax, DWORD PTR [esi+4]
  00020	8b 08		 mov	 ecx, DWORD PTR [eax]
  00022	eb 25		 jmp	 SHORT $LN1@erase@2
$LN65@erase@2:

; 1384 : 			}
; 1385 : 		else
; 1386 : 			{	// partial erase, one at a time
; 1387 : 			while (_First != _Last)

  00024	3b 4d 10	 cmp	 ecx, DWORD PTR __Last$[ebp]
  00027	74 20		 je	 SHORT $LN1@erase@2
  00029	57		 push	 edi
$LL2@erase@2:

; 1388 : 				erase(_First++);

  0002a	8b f9		 mov	 edi, ecx
  0002c	8d 4d 0c	 lea	 ecx, DWORD PTR __First$[ebp]
  0002f	e8 00 00 00 00	 call	 ??E?$_Tree_unchecked_const_iterator@V?$_Tree_val@V?$_Tmap_traits@HUBonusCashInfo@ioBonusCashManager@@U?$less@H@std@@V?$allocator@U?$pair@$$CBHUBonusCashInfo@ioBonusCashManager@@@std@@@4@$0A@@std@@@std@@U_Iterator_base0@2@@std@@QAEAAV01@XZ ; std::_Tree_unchecked_const_iterator<std::_Tree_val<std::_Tmap_traits<int,ioBonusCashManager::BonusCashInfo,std::less<int>,std::allocator<std::pair<int const ,ioBonusCashManager::BonusCashInfo> >,0> >,std::_Iterator_base0>::operator++
  00034	57		 push	 edi
  00035	8d 45 fc	 lea	 eax, DWORD PTR $T509806[ebp]
  00038	50		 push	 eax
  00039	8b ce		 mov	 ecx, esi
  0003b	e8 00 00 00 00	 call	 ?erase@?$_Tree@V?$_Tmap_traits@HUBonusCashInfo@ioBonusCashManager@@U?$less@H@std@@V?$allocator@U?$pair@$$CBHUBonusCashInfo@ioBonusCashManager@@@std@@@4@$0A@@std@@@std@@QAE?AV?$_Tree_iterator@V?$_Tree_val@V?$_Tmap_traits@HUBonusCashInfo@ioBonusCashManager@@U?$less@H@std@@V?$allocator@U?$pair@$$CBHUBonusCashInfo@ioBonusCashManager@@@std@@@4@$0A@@std@@@std@@@2@V?$_Tree_const_iterator@V?$_Tree_val@V?$_Tmap_traits@HUBonusCashInfo@ioBonusCashManager@@U?$less@H@std@@V?$allocator@U?$pair@$$CBHUBonusCashInfo@ioBonusCashManager@@@std@@@4@$0A@@std@@@std@@@2@@Z ; std::_Tree<std::_Tmap_traits<int,ioBonusCashManager::BonusCashInfo,std::less<int>,std::allocator<std::pair<int const ,ioBonusCashManager::BonusCashInfo> >,0> >::erase
  00040	8b 4d 0c	 mov	 ecx, DWORD PTR __First$[ebp]
  00043	3b 4d 10	 cmp	 ecx, DWORD PTR __Last$[ebp]
  00046	75 e2		 jne	 SHORT $LL2@erase@2
  00048	5f		 pop	 edi
$LN1@erase@2:

; 1389 : 			return (iterator(_First._Ptr, this));

  00049	8b 45 08	 mov	 eax, DWORD PTR ___$ReturnUdt$[ebp]
  0004c	89 08		 mov	 DWORD PTR [eax], ecx
  0004e	5e		 pop	 esi

; 1390 : 			}
; 1391 : 		}

  0004f	c9		 leave
  00050	c2 0c 00	 ret	 12			; 0000000cH
?erase@?$_Tree@V?$_Tmap_traits@HUBonusCashInfo@ioBonusCashManager@@U?$less@H@std@@V?$allocator@U?$pair@$$CBHUBonusCashInfo@ioBonusCashManager@@@std@@@4@$0A@@std@@@std@@QAE?AV?$_Tree_iterator@V?$_Tree_val@V?$_Tmap_traits@HUBonusCashInfo@ioBonusCashManager@@U?$less@H@std@@V?$allocator@U?$pair@$$CBHUBonusCashInfo@ioBonusCashManager@@@std@@@4@$0A@@std@@@std@@@2@V?$_Tree_const_iterator@V?$_Tree_val@V?$_Tmap_traits@HUBonusCashInfo@ioBonusCashManager@@U?$less@H@std@@V?$allocator@U?$pair@$$CBHUBonusCashInfo@ioBonusCashManager@@@std@@@4@$0A@@std@@@std@@@2@0@Z ENDP ; std::_Tree<std::_Tmap_traits<int,ioBonusCashManager::BonusCashInfo,std::less<int>,std::allocator<std::pair<int const ,ioBonusCashManager::BonusCashInfo> >,0> >::erase
_TEXT	ENDS
PUBLIC	?_Linsert@?$_Tree@V?$_Tmap_traits@HUBonusCashInfo@ioBonusCashManager@@U?$less@H@std@@V?$allocator@U?$pair@$$CBHUBonusCashInfo@ioBonusCashManager@@@std@@@4@$0A@@std@@@std@@QAE?AU?$pair@V?$_Tree_iterator@V?$_Tree_val@V?$_Tmap_traits@HUBonusCashInfo@ioBonusCashManager@@U?$less@H@std@@V?$allocator@U?$pair@$$CBHUBonusCashInfo@ioBonusCashManager@@@std@@@4@$0A@@std@@@std@@@std@@_N@2@PAU_Node@?$_Tree_nod@V?$_Tmap_traits@HUBonusCashInfo@ioBonusCashManager@@U?$less@H@std@@V?$allocator@U?$pair@$$CBHUBonusCashInfo@ioBonusCashManager@@@std@@@4@$0A@@std@@@2@_N@Z ; std::_Tree<std::_Tmap_traits<int,ioBonusCashManager::BonusCashInfo,std::less<int>,std::allocator<std::pair<int const ,ioBonusCashManager::BonusCashInfo> >,0> >::_Linsert
; Function compile flags: /Ogsp
;	COMDAT ?_Linsert@?$_Tree@V?$_Tmap_traits@HUBonusCashInfo@ioBonusCashManager@@U?$less@H@std@@V?$allocator@U?$pair@$$CBHUBonusCashInfo@ioBonusCashManager@@@std@@@4@$0A@@std@@@std@@QAE?AU?$pair@V?$_Tree_iterator@V?$_Tree_val@V?$_Tmap_traits@HUBonusCashInfo@ioBonusCashManager@@U?$less@H@std@@V?$allocator@U?$pair@$$CBHUBonusCashInfo@ioBonusCashManager@@@std@@@4@$0A@@std@@@std@@@std@@_N@2@PAU_Node@?$_Tree_nod@V?$_Tmap_traits@HUBonusCashInfo@ioBonusCashManager@@U?$less@H@std@@V?$allocator@U?$pair@$$CBHUBonusCashInfo@ioBonusCashManager@@@std@@@4@$0A@@std@@@2@_N@Z
_TEXT	SEGMENT
__Addleft$ = -4						; size = 1
___$ReturnUdt$ = 8					; size = 4
__Node$ = 12						; size = 4
$T509999 = 16						; size = 4
__Where$506862 = 16					; size = 4
__Leftish$ = 16						; size = 1
?_Linsert@?$_Tree@V?$_Tmap_traits@HUBonusCashInfo@ioBonusCashManager@@U?$less@H@std@@V?$allocator@U?$pair@$$CBHUBonusCashInfo@ioBonusCashManager@@@std@@@4@$0A@@std@@@std@@QAE?AU?$pair@V?$_Tree_iterator@V?$_Tree_val@V?$_Tmap_traits@HUBonusCashInfo@ioBonusCashManager@@U?$less@H@std@@V?$allocator@U?$pair@$$CBHUBonusCashInfo@ioBonusCashManager@@@std@@@4@$0A@@std@@@std@@@std@@_N@2@PAU_Node@?$_Tree_nod@V?$_Tmap_traits@HUBonusCashInfo@ioBonusCashManager@@U?$less@H@std@@V?$allocator@U?$pair@$$CBHUBonusCashInfo@ioBonusCashManager@@@std@@@4@$0A@@std@@@2@_N@Z PROC ; std::_Tree<std::_Tmap_traits<int,ioBonusCashManager::BonusCashInfo,std::less<int>,std::allocator<std::pair<int const ,ioBonusCashManager::BonusCashInfo> >,0> >::_Linsert, COMDAT
; _this$ = ecx

; 944  : 		{	// try to insert node at _Node, on left if _Leftish

  00000	55		 push	 ebp
  00001	8b ec		 mov	 ebp, esp
  00003	51		 push	 ecx
  00004	53		 push	 ebx
  00005	56		 push	 esi
  00006	8b f1		 mov	 esi, ecx

; 945  : 		const value_type& _Val = this->_Myval(_Node);
; 946  : 
; 947  : 		_Nodeptr _Trynode = _Root();

  00008	8b 4e 04	 mov	 ecx, DWORD PTR [esi+4]
  0000b	8b 41 04	 mov	 eax, DWORD PTR [ecx+4]

; 948  : 		_Nodeptr _Wherenode = this->_Myhead;
; 949  : 		bool _Addleft = true;	// add to left of head if tree empty
; 950  : 		while (!this->_Isnil(_Trynode))

  0000e	80 78 21 00	 cmp	 BYTE PTR [eax+33], 0
  00012	57		 push	 edi
  00013	8b d9		 mov	 ebx, ecx
  00015	c6 45 fc 01	 mov	 BYTE PTR __Addleft$[ebp], 1
  00019	75 31		 jne	 SHORT $LN151@Linsert

; 987  : 
; 988  : 				return (_Pairib(_Where, false));

  0001b	8b 4d 0c	 mov	 ecx, DWORD PTR __Node$[ebp]
  0001e	8b 79 0c	 mov	 edi, DWORD PTR [ecx+12]
$LL12@Linsert:

; 951  : 			{	// look for leaf to insert before (_Addleft) or after
; 952  : 			_Wherenode = _Trynode;

  00021	80 7d 10 00	 cmp	 BYTE PTR __Leftish$[ebp], 0
  00025	8b d8		 mov	 ebx, eax

; 953  : 			if (_Leftish)

  00027	74 09		 je	 SHORT $LN10@Linsert

; 954  : 				_Addleft = !_DEBUG_LT_PRED(this->comp,

  00029	39 78 0c	 cmp	 DWORD PTR [eax+12], edi
  0002c	0f 9d 45 fc	 setge	 BYTE PTR __Addleft$[ebp]

; 955  : 					this->_Key(_Trynode),
; 956  : 					this->_Kfn(_Val));	// favor left end
; 957  : 			else

  00030	eb 07		 jmp	 SHORT $LN9@Linsert
$LN10@Linsert:

; 958  : 				_Addleft = _DEBUG_LT_PRED(this->comp,

  00032	3b 78 0c	 cmp	 edi, DWORD PTR [eax+12]
  00035	0f 9c 45 fc	 setl	 BYTE PTR __Addleft$[ebp]
$LN9@Linsert:

; 959  : 					this->_Kfn(_Val),
; 960  : 					this->_Key(_Trynode));	// favor right end
; 961  : 			_Trynode = _Addleft ? this->_Left(_Trynode)
; 962  : 				: this->_Right(_Trynode);

  00039	80 7d fc 00	 cmp	 BYTE PTR __Addleft$[ebp], 0
  0003d	74 04		 je	 SHORT $LN15@Linsert
  0003f	8b 00		 mov	 eax, DWORD PTR [eax]
  00041	eb 03		 jmp	 SHORT $LN16@Linsert
$LN15@Linsert:
  00043	8b 40 08	 mov	 eax, DWORD PTR [eax+8]
$LN16@Linsert:

; 948  : 		_Nodeptr _Wherenode = this->_Myhead;
; 949  : 		bool _Addleft = true;	// add to left of head if tree empty
; 950  : 		while (!this->_Isnil(_Trynode))

  00046	80 78 21 00	 cmp	 BYTE PTR [eax+33], 0
  0004a	74 d5		 je	 SHORT $LL12@Linsert
$LN151@Linsert:

; 963  : 			}
; 964  : 
; 965  : 		if (this->_Multi)
; 966  : 			return (_Pairib(_Insert(_Addleft, _Wherenode, _Node), true));
; 967  : 		else
; 968  : 			{	// insert only if unique
; 969  : 			iterator _Where = iterator(_Wherenode, this);
; 970  : 			if (!_Addleft)

  0004c	80 7d fc 00	 cmp	 BYTE PTR __Addleft$[ebp], 0
  00050	8b fb		 mov	 edi, ebx
  00052	89 7d 10	 mov	 DWORD PTR __Where$506862[ebp], edi
  00055	74 30		 je	 SHORT $LN99@Linsert

; 971  : 				;	// need to test if insert after is okay
; 972  : 			else if (_Where == begin())

  00057	8b 46 04	 mov	 eax, DWORD PTR [esi+4]
  0005a	3b 18		 cmp	 ebx, DWORD PTR [eax]
  0005c	75 1e		 jne	 SHORT $LN4@Linsert

; 973  : 				return (_Pairib(_Insert(true, _Wherenode, _Node), true));

  0005e	ff 75 0c	 push	 DWORD PTR __Node$[ebp]
  00061	53		 push	 ebx
  00062	6a 01		 push	 1
$LN152@Linsert:
  00064	8d 45 10	 lea	 eax, DWORD PTR $T509999[ebp]
  00067	50		 push	 eax
  00068	8b ce		 mov	 ecx, esi
  0006a	e8 00 00 00 00	 call	 ?_Insert@?$_Tree@V?$_Tmap_traits@HUBonusCashInfo@ioBonusCashManager@@U?$less@H@std@@V?$allocator@U?$pair@$$CBHUBonusCashInfo@ioBonusCashManager@@@std@@@4@$0A@@std@@@std@@IAE?AV?$_Tree_iterator@V?$_Tree_val@V?$_Tmap_traits@HUBonusCashInfo@ioBonusCashManager@@U?$less@H@std@@V?$allocator@U?$pair@$$CBHUBonusCashInfo@ioBonusCashManager@@@std@@@4@$0A@@std@@@std@@@2@_NPAU_Node@?$_Tree_nod@V?$_Tmap_traits@HUBonusCashInfo@ioBonusCashManager@@U?$less@H@std@@V?$allocator@U?$pair@$$CBHUBonusCashInfo@ioBonusCashManager@@@std@@@4@$0A@@std@@@2@1@Z ; std::_Tree<std::_Tmap_traits<int,ioBonusCashManager::BonusCashInfo,std::less<int>,std::allocator<std::pair<int const ,ioBonusCashManager::BonusCashInfo> >,0> >::_Insert
  0006f	8b 08		 mov	 ecx, DWORD PTR [eax]
  00071	8b 45 08	 mov	 eax, DWORD PTR ___$ReturnUdt$[ebp]
  00074	89 08		 mov	 DWORD PTR [eax], ecx
  00076	c6 40 04 01	 mov	 BYTE PTR [eax+4], 1
  0007a	eb 2c		 jmp	 SHORT $LN1@Linsert
$LN4@Linsert:

; 974  : 			else
; 975  : 				--_Where;	// need to test if insert before is okay

  0007c	8d 4d 10	 lea	 ecx, DWORD PTR __Where$506862[ebp]
  0007f	e8 00 00 00 00	 call	 ??F?$_Tree_unchecked_const_iterator@V?$_Tree_val@V?$_Tmap_traits@HUBonusCashInfo@ioBonusCashManager@@U?$less@H@std@@V?$allocator@U?$pair@$$CBHUBonusCashInfo@ioBonusCashManager@@@std@@@4@$0A@@std@@@std@@U_Iterator_base0@2@@std@@QAEAAV01@XZ ; std::_Tree_unchecked_const_iterator<std::_Tree_val<std::_Tmap_traits<int,ioBonusCashManager::BonusCashInfo,std::less<int>,std::allocator<std::pair<int const ,ioBonusCashManager::BonusCashInfo> >,0> >,std::_Iterator_base0>::operator--
  00084	8b 7d 10	 mov	 edi, DWORD PTR __Where$506862[ebp]
$LN99@Linsert:

; 976  : 
; 977  : 			if (_DEBUG_LT_PRED(this->comp,

  00087	8b 45 0c	 mov	 eax, DWORD PTR __Node$[ebp]
  0008a	8b 4f 0c	 mov	 ecx, DWORD PTR [edi+12]

; 978  : 				this->_Key(_Where._Mynode()),
; 979  : 				this->_Kfn(_Val)))
; 980  : 				return (_Pairib(_Insert(_Addleft, _Wherenode, _Node), true));

  0008d	50		 push	 eax
  0008e	3b 48 0c	 cmp	 ecx, DWORD PTR [eax+12]
  00091	7d 06		 jge	 SHORT $LN2@Linsert
  00093	53		 push	 ebx
  00094	ff 75 fc	 push	 DWORD PTR __Addleft$[ebp]
  00097	eb cb		 jmp	 SHORT $LN152@Linsert
$LN2@Linsert:

; 981  : 			else
; 982  : 				{	// duplicate, don't insert
; 983  : 				_Dest_val(this->_Alval,
; 984  : 					_STD addressof(this->_Myval(_Node)));
; 985  : 
; 986  : 				this->_Alnod.deallocate(_Node, 1);

  00099	e8 00 00 00 00	 call	 ??3@YAXPAX@Z		; operator delete

; 987  : 
; 988  : 				return (_Pairib(_Where, false));

  0009e	8b 45 08	 mov	 eax, DWORD PTR ___$ReturnUdt$[ebp]
  000a1	59		 pop	 ecx
  000a2	89 38		 mov	 DWORD PTR [eax], edi
  000a4	c6 40 04 00	 mov	 BYTE PTR [eax+4], 0
$LN1@Linsert:
  000a8	5f		 pop	 edi
  000a9	5e		 pop	 esi
  000aa	5b		 pop	 ebx

; 989  : 				}
; 990  : 			}
; 991  : 		}

  000ab	c9		 leave
  000ac	c2 0c 00	 ret	 12			; 0000000cH
?_Linsert@?$_Tree@V?$_Tmap_traits@HUBonusCashInfo@ioBonusCashManager@@U?$less@H@std@@V?$allocator@U?$pair@$$CBHUBonusCashInfo@ioBonusCashManager@@@std@@@4@$0A@@std@@@std@@QAE?AU?$pair@V?$_Tree_iterator@V?$_Tree_val@V?$_Tmap_traits@HUBonusCashInfo@ioBonusCashManager@@U?$less@H@std@@V?$allocator@U?$pair@$$CBHUBonusCashInfo@ioBonusCashManager@@@std@@@4@$0A@@std@@@std@@@std@@_N@2@PAU_Node@?$_Tree_nod@V?$_Tmap_traits@HUBonusCashInfo@ioBonusCashManager@@U?$less@H@std@@V?$allocator@U?$pair@$$CBHUBonusCashInfo@ioBonusCashManager@@@std@@@4@$0A@@std@@@2@_N@Z ENDP ; std::_Tree<std::_Tmap_traits<int,ioBonusCashManager::BonusCashInfo,std::less<int>,std::allocator<std::pair<int const ,ioBonusCashManager::BonusCashInfo> >,0> >::_Linsert
_TEXT	ENDS
PUBLIC	??$_Cons_val@V?$allocator@U?$pair@$$CBHUBonusCashInfo@ioBonusCashManager@@@std@@@std@@U?$pair@$$CBHUBonusCashInfo@ioBonusCashManager@@@2@U32@@std@@YAXAAV?$allocator@U?$pair@$$CBHUBonusCashInfo@ioBonusCashManager@@@std@@@0@PAU?$pair@$$CBHUBonusCashInfo@ioBonusCashManager@@@0@$$QAU20@@Z ; std::_Cons_val<std::allocator<std::pair<int const ,ioBonusCashManager::BonusCashInfo> >,std::pair<int const ,ioBonusCashManager::BonusCashInfo>,std::pair<int const ,ioBonusCashManager::BonusCashInfo> >
; Function compile flags: /Ogsp
; File c:\program files (x86)\microsoft visual studio 10.0\vc\include\xmemory
;	COMDAT ??$_Cons_val@V?$allocator@U?$pair@$$CBHUBonusCashInfo@ioBonusCashManager@@@std@@@std@@U?$pair@$$CBHUBonusCashInfo@ioBonusCashManager@@@2@U32@@std@@YAXAAV?$allocator@U?$pair@$$CBHUBonusCashInfo@ioBonusCashManager@@@std@@@0@PAU?$pair@$$CBHUBonusCashInfo@ioBonusCashManager@@@0@$$QAU20@@Z
_TEXT	SEGMENT
__Alval$ = 8						; size = 4
__Pdest$ = 12						; size = 4
__Src$ = 16						; size = 4
??$_Cons_val@V?$allocator@U?$pair@$$CBHUBonusCashInfo@ioBonusCashManager@@@std@@@std@@U?$pair@$$CBHUBonusCashInfo@ioBonusCashManager@@@2@U32@@std@@YAXAAV?$allocator@U?$pair@$$CBHUBonusCashInfo@ioBonusCashManager@@@std@@@0@PAU?$pair@$$CBHUBonusCashInfo@ioBonusCashManager@@@0@$$QAU20@@Z PROC ; std::_Cons_val<std::allocator<std::pair<int const ,ioBonusCashManager::BonusCashInfo> >,std::pair<int const ,ioBonusCashManager::BonusCashInfo>,std::pair<int const ,ioBonusCashManager::BonusCashInfo> >, COMDAT

; 279  : 	{	// construct using allocator

  00000	55		 push	 ebp
  00001	8b ec		 mov	 ebp, esp

; 280  : 	_Alval.construct(_Pdest, _STD forward<_Ty2>(_Src));

  00003	ff 75 10	 push	 DWORD PTR __Src$[ebp]
  00006	8b 4d 08	 mov	 ecx, DWORD PTR __Alval$[ebp]
  00009	ff 75 0c	 push	 DWORD PTR __Pdest$[ebp]
  0000c	e8 00 00 00 00	 call	 ?construct@?$allocator@U?$pair@$$CBHUBonusCashInfo@ioBonusCashManager@@@std@@@std@@QAEXPAU?$pair@$$CBHUBonusCashInfo@ioBonusCashManager@@@2@$$QAU32@@Z ; std::allocator<std::pair<int const ,ioBonusCashManager::BonusCashInfo> >::construct

; 281  : 	}

  00011	5d		 pop	 ebp
  00012	c3		 ret	 0
??$_Cons_val@V?$allocator@U?$pair@$$CBHUBonusCashInfo@ioBonusCashManager@@@std@@@std@@U?$pair@$$CBHUBonusCashInfo@ioBonusCashManager@@@2@U32@@std@@YAXAAV?$allocator@U?$pair@$$CBHUBonusCashInfo@ioBonusCashManager@@@std@@@0@PAU?$pair@$$CBHUBonusCashInfo@ioBonusCashManager@@@0@$$QAU20@@Z ENDP ; std::_Cons_val<std::allocator<std::pair<int const ,ioBonusCashManager::BonusCashInfo> >,std::pair<int const ,ioBonusCashManager::BonusCashInfo>,std::pair<int const ,ioBonusCashManager::BonusCashInfo> >
_TEXT	ENDS
PUBLIC	?CalcTotalAliveBonusCash@ioBonusCashManager@@IAEHXZ ; ioBonusCashManager::CalcTotalAliveBonusCash
; Function compile flags: /Ogsp
; File d:\lost saga for developer\youtube\tutorial\source\src\lsclient\iobonuscashmanager.cpp
;	COMDAT ?CalcTotalAliveBonusCash@ioBonusCashManager@@IAEHXZ
_TEXT	SEGMENT
_iter$ = -4						; size = 4
?CalcTotalAliveBonusCash@ioBonusCashManager@@IAEHXZ PROC ; ioBonusCashManager::CalcTotalAliveBonusCash, COMDAT
; _this$ = ecx

; 25   : {

  00000	55		 push	 ebp
  00001	8b ec		 mov	 ebp, esp
  00003	51		 push	 ecx
  00004	56		 push	 esi

; 26   : 	int iTotalBonusCash = 0;
; 27   : 	BonusCashInfoList::iterator iter;
; 28   : 	for ( iter = m_AliveBonusCashInfoList.begin() ; iter != m_AliveBonusCashInfoList.end() ; ++iter )

  00005	8b 71 08	 mov	 esi, DWORD PTR [ecx+8]
  00008	8b 06		 mov	 eax, DWORD PTR [esi]
  0000a	57		 push	 edi
  0000b	33 ff		 xor	 edi, edi
  0000d	89 45 fc	 mov	 DWORD PTR _iter$[ebp], eax
  00010	eb 0e		 jmp	 SHORT $LN54@CalcTotalA
$LL28@CalcTotalA:

; 29   : 	{
; 30   : 		iTotalBonusCash += iter->second.iRemainingCash;

  00012	03 78 1c	 add	 edi, DWORD PTR [eax+28]
  00015	8d 4d fc	 lea	 ecx, DWORD PTR _iter$[ebp]
  00018	e8 00 00 00 00	 call	 ??E?$_Tree_unchecked_const_iterator@V?$_Tree_val@V?$_Tmap_traits@HUBonusCashInfo@ioBonusCashManager@@U?$less@H@std@@V?$allocator@U?$pair@$$CBHUBonusCashInfo@ioBonusCashManager@@@std@@@4@$0A@@std@@@std@@U_Iterator_base0@2@@std@@QAEAAV01@XZ ; std::_Tree_unchecked_const_iterator<std::_Tree_val<std::_Tmap_traits<int,ioBonusCashManager::BonusCashInfo,std::less<int>,std::allocator<std::pair<int const ,ioBonusCashManager::BonusCashInfo> >,0> >,std::_Iterator_base0>::operator++
  0001d	8b 45 fc	 mov	 eax, DWORD PTR _iter$[ebp]
$LN54@CalcTotalA:

; 26   : 	int iTotalBonusCash = 0;
; 27   : 	BonusCashInfoList::iterator iter;
; 28   : 	for ( iter = m_AliveBonusCashInfoList.begin() ; iter != m_AliveBonusCashInfoList.end() ; ++iter )

  00020	3b c6		 cmp	 eax, esi
  00022	75 ee		 jne	 SHORT $LL28@CalcTotalA

; 31   : 	}
; 32   : 
; 33   : 	return iTotalBonusCash;

  00024	8b c7		 mov	 eax, edi
  00026	5f		 pop	 edi
  00027	5e		 pop	 esi

; 34   : }

  00028	c9		 leave
  00029	c3		 ret	 0
?CalcTotalAliveBonusCash@ioBonusCashManager@@IAEHXZ ENDP ; ioBonusCashManager::CalcTotalAliveBonusCash
_TEXT	ENDS
PUBLIC	?GetConstAliveBonusCashInfoByIndex@ioBonusCashManager@@QBEABUBonusCashInfo@1@H@Z ; ioBonusCashManager::GetConstAliveBonusCashInfoByIndex
;	COMDAT ?kInfo@?1??GetConstAliveBonusCashInfoByIndex@ioBonusCashManager@@QBEABUBonusCashInfo@2@H@Z@4U32@B
; File c:\program files (x86)\microsoft visual studio 10.0\vc\include\xtree
_BSS	SEGMENT
?kInfo@?1??GetConstAliveBonusCashInfoByIndex@ioBonusCashManager@@QBEABUBonusCashInfo@2@H@Z@4U32@B DB 010H DUP (?) ; `ioBonusCashManager::GetConstAliveBonusCashInfoByIndex'::`2'::kInfo
_BSS	ENDS
;	COMDAT ?$S1@?1??GetConstAliveBonusCashInfoByIndex@ioBonusCashManager@@QBEABUBonusCashInfo@2@H@Z@4IA
_BSS	SEGMENT
?$S1@?1??GetConstAliveBonusCashInfoByIndex@ioBonusCashManager@@QBEABUBonusCashInfo@2@H@Z@4IA DD 01H DUP (?) ; `ioBonusCashManager::GetConstAliveBonusCashInfoByIndex'::`2'::$S1
; Function compile flags: /Ogsp
; File d:\lost saga for developer\youtube\tutorial\source\src\lsclient\iobonuscashmanager.cpp
_BSS	ENDS
;	COMDAT ?GetConstAliveBonusCashInfoByIndex@ioBonusCashManager@@QBEABUBonusCashInfo@1@H@Z
_TEXT	SEGMENT
_iter$ = -4						; size = 4
_iIndex$ = 8						; size = 4
?GetConstAliveBonusCashInfoByIndex@ioBonusCashManager@@QBEABUBonusCashInfo@1@H@Z PROC ; ioBonusCashManager::GetConstAliveBonusCashInfoByIndex, COMDAT
; _this$ = ecx

; 209  : {

  00000	55		 push	 ebp
  00001	8b ec		 mov	 ebp, esp
  00003	51		 push	 ecx

; 210  : 	static const BonusCashInfo kInfo;

  00004	f6 05 00 00 00
	00 01		 test	 BYTE PTR ?$S1@?1??GetConstAliveBonusCashInfoByIndex@ioBonusCashManager@@QBEABUBonusCashInfo@2@H@Z@4IA, 1
  0000b	56		 push	 esi
  0000c	8b f1		 mov	 esi, ecx
  0000e	75 21		 jne	 SHORT $LN6@GetConstAl@2
  00010	83 0d 00 00 00
	00 01		 or	 DWORD PTR ?$S1@?1??GetConstAliveBonusCashInfoByIndex@ioBonusCashManager@@QBEABUBonusCashInfo@2@H@Z@4IA, 1
  00017	83 25 08 00 00
	00 00		 and	 DWORD PTR ?kInfo@?1??GetConstAliveBonusCashInfoByIndex@ioBonusCashManager@@QBEABUBonusCashInfo@2@H@Z@4U32@B+8, 0
  0001e	83 25 0c 00 00
	00 00		 and	 DWORD PTR ?kInfo@?1??GetConstAliveBonusCashInfoByIndex@ioBonusCashManager@@QBEABUBonusCashInfo@2@H@Z@4U32@B+12, 0
  00025	66 0f 57 c0	 xorpd	 xmm0, xmm0
  00029	66 0f 13 05 00
	00 00 00	 movlpd	 QWORD PTR ?kInfo@?1??GetConstAliveBonusCashInfoByIndex@ioBonusCashManager@@QBEABUBonusCashInfo@2@H@Z@4U32@B, xmm0
$LN6@GetConstAl@2:

; 211  : 	BonusCashInfoList::const_iterator iter = m_AliveBonusCashInfoList.find( iIndex );

  00031	8d 45 08	 lea	 eax, DWORD PTR _iIndex$[ebp]
  00034	50		 push	 eax
  00035	8d 45 fc	 lea	 eax, DWORD PTR _iter$[ebp]
  00038	50		 push	 eax
  00039	8d 4e 04	 lea	 ecx, DWORD PTR [esi+4]
  0003c	e8 00 00 00 00	 call	 ?find@?$_Tree@V?$_Tmap_traits@HUBonusCashInfo@ioBonusCashManager@@U?$less@H@std@@V?$allocator@U?$pair@$$CBHUBonusCashInfo@ioBonusCashManager@@@std@@@4@$0A@@std@@@std@@QBE?AV?$_Tree_const_iterator@V?$_Tree_val@V?$_Tmap_traits@HUBonusCashInfo@ioBonusCashManager@@U?$less@H@std@@V?$allocator@U?$pair@$$CBHUBonusCashInfo@ioBonusCashManager@@@std@@@4@$0A@@std@@@std@@@2@ABH@Z ; std::_Tree<std::_Tmap_traits<int,ioBonusCashManager::BonusCashInfo,std::less<int>,std::allocator<std::pair<int const ,ioBonusCashManager::BonusCashInfo> >,0> >::find

; 212  : 	if ( iter != m_AliveBonusCashInfoList.end() )

  00041	8b 45 fc	 mov	 eax, DWORD PTR _iter$[ebp]
  00044	3b 46 08	 cmp	 eax, DWORD PTR [esi+8]
  00047	5e		 pop	 esi
  00048	74 05		 je	 SHORT $LN1@GetConstAl@2

; 213  : 	{
; 214  : 		return iter->second;

  0004a	83 c0 10	 add	 eax, 16			; 00000010H
  0004d	eb 05		 jmp	 SHORT $LN3@GetConstAl@2
$LN1@GetConstAl@2:

; 215  : 	}
; 216  : 	return kInfo;

  0004f	b8 00 00 00 00	 mov	 eax, OFFSET ?kInfo@?1??GetConstAliveBonusCashInfoByIndex@ioBonusCashManager@@QBEABUBonusCashInfo@2@H@Z@4U32@B
$LN3@GetConstAl@2:

; 217  : }

  00054	c9		 leave
  00055	c2 04 00	 ret	 4
?GetConstAliveBonusCashInfoByIndex@ioBonusCashManager@@QBEABUBonusCashInfo@1@H@Z ENDP ; ioBonusCashManager::GetConstAliveBonusCashInfoByIndex
_TEXT	ENDS
PUBLIC	?GetConstExpireBonusCashInfoByIndex@ioBonusCashManager@@QBEABUBonusCashInfo@1@H@Z ; ioBonusCashManager::GetConstExpireBonusCashInfoByIndex
;	COMDAT ?kInfo@?1??GetConstExpireBonusCashInfoByIndex@ioBonusCashManager@@QBEABUBonusCashInfo@2@H@Z@4U32@B
; File c:\program files (x86)\microsoft visual studio 10.0\vc\include\xtree
_BSS	SEGMENT
?kInfo@?1??GetConstExpireBonusCashInfoByIndex@ioBonusCashManager@@QBEABUBonusCashInfo@2@H@Z@4U32@B DB 010H DUP (?) ; `ioBonusCashManager::GetConstExpireBonusCashInfoByIndex'::`2'::kInfo
_BSS	ENDS
;	COMDAT ?$S3@?1??GetConstExpireBonusCashInfoByIndex@ioBonusCashManager@@QBEABUBonusCashInfo@2@H@Z@4IA
_BSS	SEGMENT
?$S3@?1??GetConstExpireBonusCashInfoByIndex@ioBonusCashManager@@QBEABUBonusCashInfo@2@H@Z@4IA DD 01H DUP (?) ; `ioBonusCashManager::GetConstExpireBonusCashInfoByIndex'::`2'::$S3
; Function compile flags: /Ogsp
; File d:\lost saga for developer\youtube\tutorial\source\src\lsclient\iobonuscashmanager.cpp
_BSS	ENDS
;	COMDAT ?GetConstExpireBonusCashInfoByIndex@ioBonusCashManager@@QBEABUBonusCashInfo@1@H@Z
_TEXT	SEGMENT
_iter$ = -4						; size = 4
_iIndex$ = 8						; size = 4
?GetConstExpireBonusCashInfoByIndex@ioBonusCashManager@@QBEABUBonusCashInfo@1@H@Z PROC ; ioBonusCashManager::GetConstExpireBonusCashInfoByIndex, COMDAT
; _this$ = ecx

; 242  : {

  00000	55		 push	 ebp
  00001	8b ec		 mov	 ebp, esp
  00003	51		 push	 ecx

; 243  : 	static const BonusCashInfo kInfo;

  00004	f6 05 00 00 00
	00 01		 test	 BYTE PTR ?$S3@?1??GetConstExpireBonusCashInfoByIndex@ioBonusCashManager@@QBEABUBonusCashInfo@2@H@Z@4IA, 1
  0000b	56		 push	 esi
  0000c	8b f1		 mov	 esi, ecx
  0000e	75 21		 jne	 SHORT $LN6@GetConstEx@2
  00010	83 0d 00 00 00
	00 01		 or	 DWORD PTR ?$S3@?1??GetConstExpireBonusCashInfoByIndex@ioBonusCashManager@@QBEABUBonusCashInfo@2@H@Z@4IA, 1
  00017	83 25 08 00 00
	00 00		 and	 DWORD PTR ?kInfo@?1??GetConstExpireBonusCashInfoByIndex@ioBonusCashManager@@QBEABUBonusCashInfo@2@H@Z@4U32@B+8, 0
  0001e	83 25 0c 00 00
	00 00		 and	 DWORD PTR ?kInfo@?1??GetConstExpireBonusCashInfoByIndex@ioBonusCashManager@@QBEABUBonusCashInfo@2@H@Z@4U32@B+12, 0
  00025	66 0f 57 c0	 xorpd	 xmm0, xmm0
  00029	66 0f 13 05 00
	00 00 00	 movlpd	 QWORD PTR ?kInfo@?1??GetConstExpireBonusCashInfoByIndex@ioBonusCashManager@@QBEABUBonusCashInfo@2@H@Z@4U32@B, xmm0
$LN6@GetConstEx@2:

; 244  : 	BonusCashInfoList::const_iterator iter = m_ExpireBonusCashInfoList.find( iIndex );

  00031	8d 45 08	 lea	 eax, DWORD PTR _iIndex$[ebp]
  00034	50		 push	 eax
  00035	8d 45 fc	 lea	 eax, DWORD PTR _iter$[ebp]
  00038	50		 push	 eax
  00039	8d 4e 14	 lea	 ecx, DWORD PTR [esi+20]
  0003c	e8 00 00 00 00	 call	 ?find@?$_Tree@V?$_Tmap_traits@HUBonusCashInfo@ioBonusCashManager@@U?$less@H@std@@V?$allocator@U?$pair@$$CBHUBonusCashInfo@ioBonusCashManager@@@std@@@4@$0A@@std@@@std@@QBE?AV?$_Tree_const_iterator@V?$_Tree_val@V?$_Tmap_traits@HUBonusCashInfo@ioBonusCashManager@@U?$less@H@std@@V?$allocator@U?$pair@$$CBHUBonusCashInfo@ioBonusCashManager@@@std@@@4@$0A@@std@@@std@@@2@ABH@Z ; std::_Tree<std::_Tmap_traits<int,ioBonusCashManager::BonusCashInfo,std::less<int>,std::allocator<std::pair<int const ,ioBonusCashManager::BonusCashInfo> >,0> >::find

; 245  : 	if ( iter != m_ExpireBonusCashInfoList.end() )

  00041	8b 45 fc	 mov	 eax, DWORD PTR _iter$[ebp]
  00044	3b 46 18	 cmp	 eax, DWORD PTR [esi+24]
  00047	5e		 pop	 esi
  00048	74 05		 je	 SHORT $LN1@GetConstEx@2

; 246  : 	{
; 247  : 		return iter->second;

  0004a	83 c0 10	 add	 eax, 16			; 00000010H
  0004d	eb 05		 jmp	 SHORT $LN3@GetConstEx@2
$LN1@GetConstEx@2:

; 248  : 	}
; 249  : 	return kInfo;

  0004f	b8 00 00 00 00	 mov	 eax, OFFSET ?kInfo@?1??GetConstExpireBonusCashInfoByIndex@ioBonusCashManager@@QBEABUBonusCashInfo@2@H@Z@4U32@B
$LN3@GetConstEx@2:

; 250  : }

  00054	c9		 leave
  00055	c2 04 00	 ret	 4
?GetConstExpireBonusCashInfoByIndex@ioBonusCashManager@@QBEABUBonusCashInfo@1@H@Z ENDP ; ioBonusCashManager::GetConstExpireBonusCashInfoByIndex
_TEXT	ENDS
PUBLIC	?CheckAlarmExpireBonusCash@ioBonusCashManager@@QAE_NXZ ; ioBonusCashManager::CheckAlarmExpireBonusCash
EXTRN	?GetCurrTime@DateHelp@@YAABVCTime@ATL@@XZ:PROC	; DateHelp::GetCurrTime
; Function compile flags: /Ogsp
;	COMDAT ?CheckAlarmExpireBonusCash@ioBonusCashManager@@QAE_NXZ
_TEXT	SEGMENT
_iter$ = -4						; size = 4
?CheckAlarmExpireBonusCash@ioBonusCashManager@@QAE_NXZ PROC ; ioBonusCashManager::CheckAlarmExpireBonusCash, COMDAT
; _this$ = ecx

; 266  : {

  00000	55		 push	 ebp
  00001	8b ec		 mov	 ebp, esp
  00003	51		 push	 ecx

; 267  : 	if ( m_AliveBonusCashInfoList.empty() )

  00004	83 79 0c 00	 cmp	 DWORD PTR [ecx+12], 0

; 268  : 		return false;

  00008	74 62		 je	 SHORT $LN1@CheckAlarm

; 269  : 
; 270  : 	CTime MinTime;
; 271  : 	BonusCashInfoList::const_iterator iter = m_AliveBonusCashInfoList.begin();

  0000a	53		 push	 ebx
  0000b	8b 59 08	 mov	 ebx, DWORD PTR [ecx+8]
  0000e	8b 03		 mov	 eax, DWORD PTR [ebx]
  00010	56		 push	 esi

; 272  : 	MinTime = iter->second.ExpiredTime.GetTime();

  00011	8b 70 10	 mov	 esi, DWORD PTR [eax+16]
  00014	57		 push	 edi
  00015	8b 78 14	 mov	 edi, DWORD PTR [eax+20]
  00018	89 45 fc	 mov	 DWORD PTR _iter$[ebp], eax
  0001b	eb 1d		 jmp	 SHORT $LN83@CheckAlarm

; 273  : 	for( ;iter != m_AliveBonusCashInfoList.end(); iter++)

$LL41@CheckAlarm:

; 274  : 	{
; 275  : 		if ( MinTime.GetTime() > iter->second.ExpiredTime.GetTime() )

  0001d	3b 78 14	 cmp	 edi, DWORD PTR [eax+20]
  00020	7c 0d		 jl	 SHORT $LN4@CheckAlarm
  00022	7f 05		 jg	 SHORT $LN81@CheckAlarm
  00024	3b 70 10	 cmp	 esi, DWORD PTR [eax+16]
  00027	76 06		 jbe	 SHORT $LN4@CheckAlarm
$LN81@CheckAlarm:

; 276  : 			MinTime = iter->second.ExpiredTime;

  00029	8b 70 10	 mov	 esi, DWORD PTR [eax+16]
  0002c	8b 78 14	 mov	 edi, DWORD PTR [eax+20]
$LN4@CheckAlarm:

; 273  : 	for( ;iter != m_AliveBonusCashInfoList.end(); iter++)

  0002f	8d 4d fc	 lea	 ecx, DWORD PTR _iter$[ebp]
  00032	e8 00 00 00 00	 call	 ??E?$_Tree_unchecked_const_iterator@V?$_Tree_val@V?$_Tmap_traits@HUBonusCashInfo@ioBonusCashManager@@U?$less@H@std@@V?$allocator@U?$pair@$$CBHUBonusCashInfo@ioBonusCashManager@@@std@@@4@$0A@@std@@@std@@U_Iterator_base0@2@@std@@QAEAAV01@XZ ; std::_Tree_unchecked_const_iterator<std::_Tree_val<std::_Tmap_traits<int,ioBonusCashManager::BonusCashInfo,std::less<int>,std::allocator<std::pair<int const ,ioBonusCashManager::BonusCashInfo> >,0> >,std::_Iterator_base0>::operator++
  00037	8b 45 fc	 mov	 eax, DWORD PTR _iter$[ebp]
$LN83@CheckAlarm:
  0003a	3b c3		 cmp	 eax, ebx
  0003c	75 df		 jne	 SHORT $LL41@CheckAlarm

; 277  : 	}
; 278  : 	CTime kCurrTime = DateHelp::GetCurrTime();

  0003e	e8 00 00 00 00	 call	 ?GetCurrTime@DateHelp@@YAABVCTime@ATL@@XZ ; DateHelp::GetCurrTime
  00043	8b 08		 mov	 ecx, DWORD PTR [eax]
  00045	8b 40 04	 mov	 eax, DWORD PTR [eax+4]

; 279  : 	CTimeSpan Gap = MinTime - kCurrTime;
; 280  : 
; 281  : 	//  
; 282  : 	enum { LIMITE_HOUR = 24, };
; 283  : 	if ( Gap.GetTotalHours() <= 24 )

  00048	6a 00		 push	 0
  0004a	2b f1		 sub	 esi, ecx
  0004c	68 10 0e 00 00	 push	 3600			; 00000e10H
  00051	1b f8		 sbb	 edi, eax
  00053	57		 push	 edi
  00054	56		 push	 esi
  00055	e8 00 00 00 00	 call	 __alldiv
  0005a	5f		 pop	 edi
  0005b	5e		 pop	 esi
  0005c	5b		 pop	 ebx
  0005d	85 d2		 test	 edx, edx
  0005f	7f 0b		 jg	 SHORT $LN1@CheckAlarm
  00061	7c 05		 jl	 SHORT $LN82@CheckAlarm
  00063	83 f8 18	 cmp	 eax, 24			; 00000018H
  00066	77 04		 ja	 SHORT $LN1@CheckAlarm
$LN82@CheckAlarm:

; 284  : 		return true;

  00068	b0 01		 mov	 al, 1

; 287  : }

  0006a	c9		 leave
  0006b	c3		 ret	 0
$LN1@CheckAlarm:

; 285  : 
; 286  : 	return false;

  0006c	32 c0		 xor	 al, al

; 287  : }

  0006e	c9		 leave
  0006f	c3		 ret	 0
?CheckAlarmExpireBonusCash@ioBonusCashManager@@QAE_NXZ ENDP ; ioBonusCashManager::CheckAlarmExpireBonusCash
_TEXT	ENDS
PUBLIC	?find@?$_Tree@V?$_Tmap_traits@HUBonusCashInfo@ioBonusCashManager@@U?$less@H@std@@V?$allocator@U?$pair@$$CBHUBonusCashInfo@ioBonusCashManager@@@std@@@4@$0A@@std@@@std@@QAE?AV?$_Tree_iterator@V?$_Tree_val@V?$_Tmap_traits@HUBonusCashInfo@ioBonusCashManager@@U?$less@H@std@@V?$allocator@U?$pair@$$CBHUBonusCashInfo@ioBonusCashManager@@@std@@@4@$0A@@std@@@std@@@2@ABH@Z ; std::_Tree<std::_Tmap_traits<int,ioBonusCashManager::BonusCashInfo,std::less<int>,std::allocator<std::pair<int const ,ioBonusCashManager::BonusCashInfo> >,0> >::find
; Function compile flags: /Ogsp
; File c:\program files (x86)\microsoft visual studio 10.0\vc\include\xtree
;	COMDAT ?find@?$_Tree@V?$_Tmap_traits@HUBonusCashInfo@ioBonusCashManager@@U?$less@H@std@@V?$allocator@U?$pair@$$CBHUBonusCashInfo@ioBonusCashManager@@@std@@@4@$0A@@std@@@std@@QAE?AV?$_Tree_iterator@V?$_Tree_val@V?$_Tmap_traits@HUBonusCashInfo@ioBonusCashManager@@U?$less@H@std@@V?$allocator@U?$pair@$$CBHUBonusCashInfo@ioBonusCashManager@@@std@@@4@$0A@@std@@@std@@@2@ABH@Z
_TEXT	SEGMENT
$T510811 = -4						; size = 4
___$ReturnUdt$ = 8					; size = 4
__Where$ = 12						; size = 4
__Keyval$ = 12						; size = 4
?find@?$_Tree@V?$_Tmap_traits@HUBonusCashInfo@ioBonusCashManager@@U?$less@H@std@@V?$allocator@U?$pair@$$CBHUBonusCashInfo@ioBonusCashManager@@@std@@@4@$0A@@std@@@std@@QAE?AV?$_Tree_iterator@V?$_Tree_val@V?$_Tmap_traits@HUBonusCashInfo@ioBonusCashManager@@U?$less@H@std@@V?$allocator@U?$pair@$$CBHUBonusCashInfo@ioBonusCashManager@@@std@@@4@$0A@@std@@@std@@@2@ABH@Z PROC ; std::_Tree<std::_Tmap_traits<int,ioBonusCashManager::BonusCashInfo,std::less<int>,std::allocator<std::pair<int const ,ioBonusCashManager::BonusCashInfo> >,0> >::find, COMDAT
; _this$ = ecx

; 1423 : 		{	// find an element in mutable sequence that matches _Keyval

  00000	55		 push	 ebp
  00001	8b ec		 mov	 ebp, esp
  00003	51		 push	 ecx
  00004	56		 push	 esi
  00005	57		 push	 edi

; 1424 : 		iterator _Where = lower_bound(_Keyval);

  00006	8b 7d 0c	 mov	 edi, DWORD PTR __Keyval$[ebp]
  00009	57		 push	 edi
  0000a	8b f1		 mov	 esi, ecx
  0000c	e8 00 00 00 00	 call	 ?_Lbound@?$_Tree@V?$_Tmap_traits@HUBonusCashInfo@ioBonusCashManager@@U?$less@H@std@@V?$allocator@U?$pair@$$CBHUBonusCashInfo@ioBonusCashManager@@@std@@@4@$0A@@std@@@std@@IAEPAU_Node@?$_Tree_nod@V?$_Tmap_traits@HUBonusCashInfo@ioBonusCashManager@@U?$less@H@std@@V?$allocator@U?$pair@$$CBHUBonusCashInfo@ioBonusCashManager@@@std@@@4@$0A@@std@@@2@ABH@Z ; std::_Tree<std::_Tmap_traits<int,ioBonusCashManager::BonusCashInfo,std::less<int>,std::allocator<std::pair<int const ,ioBonusCashManager::BonusCashInfo> >,0> >::_Lbound

; 1425 : 		return (_Where == end()
; 1426 : 			|| _DEBUG_LT_PRED(this->comp,
; 1427 : 				_Keyval, this->_Key(_Where._Mynode()))
; 1428 : 					? end() : _Where);

  00011	8b 76 04	 mov	 esi, DWORD PTR [esi+4]
  00014	89 45 0c	 mov	 DWORD PTR __Where$[ebp], eax
  00017	3b c6		 cmp	 eax, esi
  00019	74 0c		 je	 SHORT $LN3@find@2
  0001b	8b 0f		 mov	 ecx, DWORD PTR [edi]
  0001d	3b 48 0c	 cmp	 ecx, DWORD PTR [eax+12]
  00020	7c 05		 jl	 SHORT $LN3@find@2
  00022	8d 45 0c	 lea	 eax, DWORD PTR __Where$[ebp]
  00025	eb 06		 jmp	 SHORT $LN4@find@2
$LN3@find@2:
  00027	89 75 fc	 mov	 DWORD PTR $T510811[ebp], esi
  0002a	8d 45 fc	 lea	 eax, DWORD PTR $T510811[ebp]
$LN4@find@2:
  0002d	8b 08		 mov	 ecx, DWORD PTR [eax]
  0002f	8b 45 08	 mov	 eax, DWORD PTR ___$ReturnUdt$[ebp]
  00032	5f		 pop	 edi
  00033	89 08		 mov	 DWORD PTR [eax], ecx
  00035	5e		 pop	 esi

; 1429 : 		}

  00036	c9		 leave
  00037	c2 08 00	 ret	 8
?find@?$_Tree@V?$_Tmap_traits@HUBonusCashInfo@ioBonusCashManager@@U?$less@H@std@@V?$allocator@U?$pair@$$CBHUBonusCashInfo@ioBonusCashManager@@@std@@@4@$0A@@std@@@std@@QAE?AV?$_Tree_iterator@V?$_Tree_val@V?$_Tmap_traits@HUBonusCashInfo@ioBonusCashManager@@U?$less@H@std@@V?$allocator@U?$pair@$$CBHUBonusCashInfo@ioBonusCashManager@@@std@@@4@$0A@@std@@@std@@@2@ABH@Z ENDP ; std::_Tree<std::_Tmap_traits<int,ioBonusCashManager::BonusCashInfo,std::less<int>,std::allocator<std::pair<int const ,ioBonusCashManager::BonusCashInfo> >,0> >::find
_TEXT	ENDS
PUBLIC	?_Tidy@?$_Tree@V?$_Tmap_traits@HUBonusCashInfo@ioBonusCashManager@@U?$less@H@std@@V?$allocator@U?$pair@$$CBHUBonusCashInfo@ioBonusCashManager@@@std@@@4@$0A@@std@@@std@@IAEXXZ ; std::_Tree<std::_Tmap_traits<int,ioBonusCashManager::BonusCashInfo,std::less<int>,std::allocator<std::pair<int const ,ioBonusCashManager::BonusCashInfo> >,0> >::_Tidy
; Function compile flags: /Ogsp
;	COMDAT ?_Tidy@?$_Tree@V?$_Tmap_traits@HUBonusCashInfo@ioBonusCashManager@@U?$less@H@std@@V?$allocator@U?$pair@$$CBHUBonusCashInfo@ioBonusCashManager@@@std@@@4@$0A@@std@@@std@@IAEXXZ
_TEXT	SEGMENT
$T510949 = -4						; size = 4
?_Tidy@?$_Tree@V?$_Tmap_traits@HUBonusCashInfo@ioBonusCashManager@@U?$less@H@std@@V?$allocator@U?$pair@$$CBHUBonusCashInfo@ioBonusCashManager@@@std@@@4@$0A@@std@@@std@@IAEXXZ PROC ; std::_Tree<std::_Tmap_traits<int,ioBonusCashManager::BonusCashInfo,std::less<int>,std::allocator<std::pair<int const ,ioBonusCashManager::BonusCashInfo> >,0> >::_Tidy, COMDAT
; _this$ = ecx

; 1865 : 		{	// free all storage

  00000	55		 push	 ebp
  00001	8b ec		 mov	 ebp, esp
  00003	51		 push	 ecx

; 1866 : 		erase(begin(), end());

  00004	8b 41 04	 mov	 eax, DWORD PTR [ecx+4]
  00007	8b 10		 mov	 edx, DWORD PTR [eax]
  00009	50		 push	 eax
  0000a	52		 push	 edx
  0000b	8d 45 fc	 lea	 eax, DWORD PTR $T510949[ebp]
  0000e	50		 push	 eax
  0000f	e8 00 00 00 00	 call	 ?erase@?$_Tree@V?$_Tmap_traits@HUBonusCashInfo@ioBonusCashManager@@U?$less@H@std@@V?$allocator@U?$pair@$$CBHUBonusCashInfo@ioBonusCashManager@@@std@@@4@$0A@@std@@@std@@QAE?AV?$_Tree_iterator@V?$_Tree_val@V?$_Tmap_traits@HUBonusCashInfo@ioBonusCashManager@@U?$less@H@std@@V?$allocator@U?$pair@$$CBHUBonusCashInfo@ioBonusCashManager@@@std@@@4@$0A@@std@@@std@@@2@V?$_Tree_const_iterator@V?$_Tree_val@V?$_Tmap_traits@HUBonusCashInfo@ioBonusCashManager@@U?$less@H@std@@V?$allocator@U?$pair@$$CBHUBonusCashInfo@ioBonusCashManager@@@std@@@4@$0A@@std@@@std@@@2@0@Z ; std::_Tree<std::_Tmap_traits<int,ioBonusCashManager::BonusCashInfo,std::less<int>,std::allocator<std::pair<int const ,ioBonusCashManager::BonusCashInfo> >,0> >::erase

; 1867 : 		}

  00014	c9		 leave
  00015	c3		 ret	 0
?_Tidy@?$_Tree@V?$_Tmap_traits@HUBonusCashInfo@ioBonusCashManager@@U?$less@H@std@@V?$allocator@U?$pair@$$CBHUBonusCashInfo@ioBonusCashManager@@@std@@@4@$0A@@std@@@std@@IAEXXZ ENDP ; std::_Tree<std::_Tmap_traits<int,ioBonusCashManager::BonusCashInfo,std::less<int>,std::allocator<std::pair<int const ,ioBonusCashManager::BonusCashInfo> >,0> >::_Tidy
_TEXT	ENDS
PUBLIC	??$_Buynode@U?$pair@$$CBHUBonusCashInfo@ioBonusCashManager@@@std@@@?$_Tree_val@V?$_Tmap_traits@HUBonusCashInfo@ioBonusCashManager@@U?$less@H@std@@V?$allocator@U?$pair@$$CBHUBonusCashInfo@ioBonusCashManager@@@std@@@4@$0A@@std@@@std@@QAEPAU_Node@?$_Tree_nod@V?$_Tmap_traits@HUBonusCashInfo@ioBonusCashManager@@U?$less@H@std@@V?$allocator@U?$pair@$$CBHUBonusCashInfo@ioBonusCashManager@@@std@@@4@$0A@@std@@@1@$$QAU?$pair@$$CBHUBonusCashInfo@ioBonusCashManager@@@1@@Z ; std::_Tree_val<std::_Tmap_traits<int,ioBonusCashManager::BonusCashInfo,std::less<int>,std::allocator<std::pair<int const ,ioBonusCashManager::BonusCashInfo> >,0> >::_Buynode<std::pair<int const ,ioBonusCashManager::BonusCashInfo> >
; Function compile flags: /Ogsp
;	COMDAT ??$_Buynode@U?$pair@$$CBHUBonusCashInfo@ioBonusCashManager@@@std@@@?$_Tree_val@V?$_Tmap_traits@HUBonusCashInfo@ioBonusCashManager@@U?$less@H@std@@V?$allocator@U?$pair@$$CBHUBonusCashInfo@ioBonusCashManager@@@std@@@4@$0A@@std@@@std@@QAEPAU_Node@?$_Tree_nod@V?$_Tmap_traits@HUBonusCashInfo@ioBonusCashManager@@U?$less@H@std@@V?$allocator@U?$pair@$$CBHUBonusCashInfo@ioBonusCashManager@@@std@@@4@$0A@@std@@@1@$$QAU?$pair@$$CBHUBonusCashInfo@ioBonusCashManager@@@1@@Z
_TEXT	SEGMENT
__Val$ = 8						; size = 4
??$_Buynode@U?$pair@$$CBHUBonusCashInfo@ioBonusCashManager@@@std@@@?$_Tree_val@V?$_Tmap_traits@HUBonusCashInfo@ioBonusCashManager@@U?$less@H@std@@V?$allocator@U?$pair@$$CBHUBonusCashInfo@ioBonusCashManager@@@std@@@4@$0A@@std@@@std@@QAEPAU_Node@?$_Tree_nod@V?$_Tmap_traits@HUBonusCashInfo@ioBonusCashManager@@U?$less@H@std@@V?$allocator@U?$pair@$$CBHUBonusCashInfo@ioBonusCashManager@@@std@@@4@$0A@@std@@@1@$$QAU?$pair@$$CBHUBonusCashInfo@ioBonusCashManager@@@1@@Z PROC ; std::_Tree_val<std::_Tmap_traits<int,ioBonusCashManager::BonusCashInfo,std::less<int>,std::allocator<std::pair<int const ,ioBonusCashManager::BonusCashInfo> >,0> >::_Buynode<std::pair<int const ,ioBonusCashManager::BonusCashInfo> >, COMDAT
; _this$ = ecx

; 586  : 		_Nodeptr _Buynode(_Valty&& _Val)

  00000	55		 push	 ebp
  00001	8b ec		 mov	 ebp, esp
  00003	56		 push	 esi
  00004	57		 push	 edi
  00005	8b f1		 mov	 esi, ecx

; 587  : 		{	// allocate a node with defaults
; 588  : 		_Nodeptr _Wherenode = _Buynode();

  00007	e8 00 00 00 00	 call	 ?_Buynode@?$_Tree_val@V?$_Tmap_traits@HUBonusCashInfo@ioBonusCashManager@@U?$less@H@std@@V?$allocator@U?$pair@$$CBHUBonusCashInfo@ioBonusCashManager@@@std@@@4@$0A@@std@@@std@@QAEPAU_Node@?$_Tree_nod@V?$_Tmap_traits@HUBonusCashInfo@ioBonusCashManager@@U?$less@H@std@@V?$allocator@U?$pair@$$CBHUBonusCashInfo@ioBonusCashManager@@@std@@@4@$0A@@std@@@2@XZ ; std::_Tree_val<std::_Tmap_traits<int,ioBonusCashManager::BonusCashInfo,std::less<int>,std::allocator<std::pair<int const ,ioBonusCashManager::BonusCashInfo> >,0> >::_Buynode

; 589  : 
; 590  : 		_TRY_BEGIN
; 591  : 		_Cons_val(this->_Alval, _STD addressof(this->_Myval(_Wherenode)),
; 592  : 			_STD forward<_Valty>(_Val));

  0000c	ff 75 08	 push	 DWORD PTR __Val$[ebp]
  0000f	8b f8		 mov	 edi, eax
  00011	8d 47 0c	 lea	 eax, DWORD PTR [edi+12]
  00014	50		 push	 eax
  00015	8d 4e 0d	 lea	 ecx, DWORD PTR [esi+13]
  00018	e8 00 00 00 00	 call	 ?construct@?$allocator@U?$pair@$$CBHUBonusCashInfo@ioBonusCashManager@@@std@@@std@@QAEXPAU?$pair@$$CBHUBonusCashInfo@ioBonusCashManager@@@2@$$QAU32@@Z ; std::allocator<std::pair<int const ,ioBonusCashManager::BonusCashInfo> >::construct

; 593  : 		_CATCH_ALL
; 594  : 		this->_Alnod.deallocate(_Wherenode, 1);
; 595  : 		_RERAISE;
; 596  : 		_CATCH_END
; 597  : 
; 598  : 		return (_Wherenode);

  0001d	8b c7		 mov	 eax, edi
  0001f	5f		 pop	 edi
  00020	5e		 pop	 esi

; 599  : 		}

  00021	5d		 pop	 ebp
  00022	c2 04 00	 ret	 4
??$_Buynode@U?$pair@$$CBHUBonusCashInfo@ioBonusCashManager@@@std@@@?$_Tree_val@V?$_Tmap_traits@HUBonusCashInfo@ioBonusCashManager@@U?$less@H@std@@V?$allocator@U?$pair@$$CBHUBonusCashInfo@ioBonusCashManager@@@std@@@4@$0A@@std@@@std@@QAEPAU_Node@?$_Tree_nod@V?$_Tmap_traits@HUBonusCashInfo@ioBonusCashManager@@U?$less@H@std@@V?$allocator@U?$pair@$$CBHUBonusCashInfo@ioBonusCashManager@@@std@@@4@$0A@@std@@@1@$$QAU?$pair@$$CBHUBonusCashInfo@ioBonusCashManager@@@1@@Z ENDP ; std::_Tree_val<std::_Tmap_traits<int,ioBonusCashManager::BonusCashInfo,std::less<int>,std::allocator<std::pair<int const ,ioBonusCashManager::BonusCashInfo> >,0> >::_Buynode<std::pair<int const ,ioBonusCashManager::BonusCashInfo> >
_TEXT	ENDS
PUBLIC	??_C@_0EB@BFPHMENA@?$CFs?5?9?5alreay?5exist?5Expire?5Bonus?5C@ ; `string'
PUBLIC	??_C@_0CC@HENMCDCJ@ioBonusCashManager?3?3AddExpireInf@ ; `string'
PUBLIC	?AddExpireInfo@ioBonusCashManager@@IAEXHAAUBonusCashInfo@1@ABVioHashString@@@Z ; ioBonusCashManager::AddExpireInfo
EXTRN	__imp_?PrintTimeAndLog@CLog@@QAAXHPADZZ:PROC
EXTRN	__imp_?LOG@@3VCLog@@A:BYTE
;	COMDAT ??_C@_0EB@BFPHMENA@?$CFs?5?9?5alreay?5exist?5Expire?5Bonus?5C@
CONST	SEGMENT
??_C@_0EB@BFPHMENA@?$CFs?5?9?5alreay?5exist?5Expire?5Bonus?5C@ DB '%s - a'
	DB	'lreay exist Expire Bonus Cash Index  - %d, Call Func : %s ', 00H ; `string'
CONST	ENDS
;	COMDAT ??_C@_0CC@HENMCDCJ@ioBonusCashManager?3?3AddExpireInf@
CONST	SEGMENT
??_C@_0CC@HENMCDCJ@ioBonusCashManager?3?3AddExpireInf@ DB 'ioBonusCashMan'
	DB	'ager::AddExpireInfo', 00H			; `string'
; Function compile flags: /Ogsp
; File d:\lost saga for developer\youtube\tutorial\source\src\lsclient\iobonuscashmanager.cpp
CONST	ENDS
;	COMDAT ?AddExpireInfo@ioBonusCashManager@@IAEXHAAUBonusCashInfo@1@ABVioHashString@@@Z
_TEXT	SEGMENT
_iter$ = -4						; size = 4
_iIndex$ = 8						; size = 4
_rkInfo$ = 12						; size = 4
_szFuncName$ = 16					; size = 4
?AddExpireInfo@ioBonusCashManager@@IAEXHAAUBonusCashInfo@1@ABVioHashString@@@Z PROC ; ioBonusCashManager::AddExpireInfo, COMDAT
; _this$ = ecx

; 37   : {

  00000	55		 push	 ebp
  00001	8b ec		 mov	 ebp, esp
  00003	51		 push	 ecx
  00004	56		 push	 esi
  00005	57		 push	 edi

; 38   : 	BonusCashInfoList::iterator iter = m_ExpireBonusCashInfoList.find( iIndex );

  00006	8d 45 08	 lea	 eax, DWORD PTR _iIndex$[ebp]
  00009	50		 push	 eax
  0000a	8b f1		 mov	 esi, ecx
  0000c	8d 45 fc	 lea	 eax, DWORD PTR _iter$[ebp]
  0000f	50		 push	 eax
  00010	8d 4e 14	 lea	 ecx, DWORD PTR [esi+20]
  00013	e8 00 00 00 00	 call	 ?find@?$_Tree@V?$_Tmap_traits@HUBonusCashInfo@ioBonusCashManager@@U?$less@H@std@@V?$allocator@U?$pair@$$CBHUBonusCashInfo@ioBonusCashManager@@@std@@@4@$0A@@std@@@std@@QAE?AV?$_Tree_iterator@V?$_Tree_val@V?$_Tmap_traits@HUBonusCashInfo@ioBonusCashManager@@U?$less@H@std@@V?$allocator@U?$pair@$$CBHUBonusCashInfo@ioBonusCashManager@@@std@@@4@$0A@@std@@@std@@@2@ABH@Z ; std::_Tree<std::_Tmap_traits<int,ioBonusCashManager::BonusCashInfo,std::less<int>,std::allocator<std::pair<int const ,ioBonusCashManager::BonusCashInfo> >,0> >::find

; 39   : 	if ( iter != m_ExpireBonusCashInfoList.end() )

  00018	8b 45 fc	 mov	 eax, DWORD PTR _iter$[ebp]
  0001b	3b 46 18	 cmp	 eax, DWORD PTR [esi+24]
  0001e	74 2a		 je	 SHORT $LN1@AddExpireI

; 40   : 	{
; 41   : 		LOG.PrintTimeAndLog( 0, "%s - alreay exist Expire Bonus Cash Index  - %d, Call Func : %s ", __FUNCTION__, iIndex, szFuncName );

  00020	8b 75 10	 mov	 esi, DWORD PTR _szFuncName$[ebp]
  00023	83 ec 10	 sub	 esp, 16			; 00000010H
  00026	8b fc		 mov	 edi, esp
  00028	ff 75 08	 push	 DWORD PTR _iIndex$[ebp]
  0002b	a5		 movsd
  0002c	a5		 movsd
  0002d	68 00 00 00 00	 push	 OFFSET ??_C@_0CC@HENMCDCJ@ioBonusCashManager?3?3AddExpireInf@
  00032	68 00 00 00 00	 push	 OFFSET ??_C@_0EB@BFPHMENA@?$CFs?5?9?5alreay?5exist?5Expire?5Bonus?5C@
  00037	a5		 movsd
  00038	6a 00		 push	 0
  0003a	ff 35 00 00 00
	00		 push	 DWORD PTR __imp_?LOG@@3VCLog@@A
  00040	a5		 movsd
  00041	ff 15 00 00 00
	00		 call	 DWORD PTR __imp_?PrintTimeAndLog@CLog@@QAAXHPADZZ
  00047	83 c4 24	 add	 esp, 36			; 00000024H
$LN1@AddExpireI:

; 42   : 		return;
; 43   : 	}
; 44   : }

  0004a	5f		 pop	 edi
  0004b	5e		 pop	 esi
  0004c	c9		 leave
  0004d	c2 0c 00	 ret	 12			; 0000000cH
?AddExpireInfo@ioBonusCashManager@@IAEXHAAUBonusCashInfo@1@ABVioHashString@@@Z ENDP ; ioBonusCashManager::AddExpireInfo
_TEXT	ENDS
PUBLIC	?GetAliveBonusCashInfoByIndex@ioBonusCashManager@@IAE_NHAAUBonusCashInfo@1@@Z ; ioBonusCashManager::GetAliveBonusCashInfoByIndex
; Function compile flags: /Ogsp
;	COMDAT ?GetAliveBonusCashInfoByIndex@ioBonusCashManager@@IAE_NHAAUBonusCashInfo@1@@Z
_TEXT	SEGMENT
_iter$ = -4						; size = 4
_iIndex$ = 8						; size = 4
_rkInfo$ = 12						; size = 4
?GetAliveBonusCashInfoByIndex@ioBonusCashManager@@IAE_NHAAUBonusCashInfo@1@@Z PROC ; ioBonusCashManager::GetAliveBonusCashInfoByIndex, COMDAT
; _this$ = ecx

; 220  : {

  00000	55		 push	 ebp
  00001	8b ec		 mov	 ebp, esp
  00003	51		 push	 ecx
  00004	56		 push	 esi

; 221  : 	int iSize = m_AliveBonusCashInfoList.size();
; 222  : 	BonusCashInfoList::iterator iter = m_AliveBonusCashInfoList.find( iIndex );

  00005	8d 45 08	 lea	 eax, DWORD PTR _iIndex$[ebp]
  00008	50		 push	 eax
  00009	8b f1		 mov	 esi, ecx
  0000b	8d 45 fc	 lea	 eax, DWORD PTR _iter$[ebp]
  0000e	50		 push	 eax
  0000f	8d 4e 04	 lea	 ecx, DWORD PTR [esi+4]
  00012	e8 00 00 00 00	 call	 ?find@?$_Tree@V?$_Tmap_traits@HUBonusCashInfo@ioBonusCashManager@@U?$less@H@std@@V?$allocator@U?$pair@$$CBHUBonusCashInfo@ioBonusCashManager@@@std@@@4@$0A@@std@@@std@@QAE?AV?$_Tree_iterator@V?$_Tree_val@V?$_Tmap_traits@HUBonusCashInfo@ioBonusCashManager@@U?$less@H@std@@V?$allocator@U?$pair@$$CBHUBonusCashInfo@ioBonusCashManager@@@std@@@4@$0A@@std@@@std@@@2@ABH@Z ; std::_Tree<std::_Tmap_traits<int,ioBonusCashManager::BonusCashInfo,std::less<int>,std::allocator<std::pair<int const ,ioBonusCashManager::BonusCashInfo> >,0> >::find

; 223  : 	if ( iter != m_AliveBonusCashInfoList.end() )

  00017	8b 45 fc	 mov	 eax, DWORD PTR _iter$[ebp]
  0001a	3b 46 08	 cmp	 eax, DWORD PTR [esi+8]
  0001d	74 0c		 je	 SHORT $LN1@GetAliveBo

; 224  : 		rkInfo = iter->second;

  0001f	57		 push	 edi
  00020	8b 7d 0c	 mov	 edi, DWORD PTR _rkInfo$[ebp]
  00023	8d 70 10	 lea	 esi, DWORD PTR [eax+16]
  00026	a5		 movsd
  00027	a5		 movsd
  00028	a5		 movsd
  00029	a5		 movsd
  0002a	5f		 pop	 edi
$LN1@GetAliveBo:

; 225  : 	return false;

  0002b	32 c0		 xor	 al, al
  0002d	5e		 pop	 esi

; 226  : }

  0002e	c9		 leave
  0002f	c2 08 00	 ret	 8
?GetAliveBonusCashInfoByIndex@ioBonusCashManager@@IAE_NHAAUBonusCashInfo@1@@Z ENDP ; ioBonusCashManager::GetAliveBonusCashInfoByIndex
_TEXT	ENDS
PUBLIC	??1?$_Tree@V?$_Tmap_traits@HUBonusCashInfo@ioBonusCashManager@@U?$less@H@std@@V?$allocator@U?$pair@$$CBHUBonusCashInfo@ioBonusCashManager@@@std@@@4@$0A@@std@@@std@@QAE@XZ ; std::_Tree<std::_Tmap_traits<int,ioBonusCashManager::BonusCashInfo,std::less<int>,std::allocator<std::pair<int const ,ioBonusCashManager::BonusCashInfo> >,0> >::~_Tree<std::_Tmap_traits<int,ioBonusCashManager::BonusCashInfo,std::less<int>,std::allocator<std::pair<int const ,ioBonusCashManager::BonusCashInfo> >,0> >
EXTRN	___CxxFrameHandler3:PROC
EXTRN	@__security_check_cookie@4:PROC
EXTRN	__EH_epilog3:PROC
EXTRN	__EH_prolog3:PROC
;	COMDAT xdata$x
; File c:\program files (x86)\microsoft visual studio 10.0\vc\include\xmemory
xdata$x	SEGMENT
__unwindtable$??1?$_Tree@V?$_Tmap_traits@HUBonusCashInfo@ioBonusCashManager@@U?$less@H@std@@V?$allocator@U?$pair@$$CBHUBonusCashInfo@ioBonusCashManager@@@std@@@4@$0A@@std@@@std@@QAE@XZ DD 0ffffffffH
	DD	FLAT:__unwindfunclet$??1?$_Tree@V?$_Tmap_traits@HUBonusCashInfo@ioBonusCashManager@@U?$less@H@std@@V?$allocator@U?$pair@$$CBHUBonusCashInfo@ioBonusCashManager@@@std@@@4@$0A@@std@@@std@@QAE@XZ$0
__ehfuncinfo$??1?$_Tree@V?$_Tmap_traits@HUBonusCashInfo@ioBonusCashManager@@U?$less@H@std@@V?$allocator@U?$pair@$$CBHUBonusCashInfo@ioBonusCashManager@@@std@@@4@$0A@@std@@@std@@QAE@XZ DD 019930522H
	DD	01H
	DD	FLAT:__unwindtable$??1?$_Tree@V?$_Tmap_traits@HUBonusCashInfo@ioBonusCashManager@@U?$less@H@std@@V?$allocator@U?$pair@$$CBHUBonusCashInfo@ioBonusCashManager@@@std@@@4@$0A@@std@@@std@@QAE@XZ
	DD	2 DUP(00H)
	DD	2 DUP(00H)
	DD	00H
	DD	01H
; Function compile flags: /Ogsp
; File c:\program files (x86)\microsoft visual studio 10.0\vc\include\xtree
xdata$x	ENDS
;	COMDAT ??1?$_Tree@V?$_Tmap_traits@HUBonusCashInfo@ioBonusCashManager@@U?$less@H@std@@V?$allocator@U?$pair@$$CBHUBonusCashInfo@ioBonusCashManager@@@std@@@4@$0A@@std@@@std@@QAE@XZ
_TEXT	SEGMENT
$T511287 = -20						; size = 4
_this$ = -16						; size = 4
__$EHRec$ = -12						; size = 12
??1?$_Tree@V?$_Tmap_traits@HUBonusCashInfo@ioBonusCashManager@@U?$less@H@std@@V?$allocator@U?$pair@$$CBHUBonusCashInfo@ioBonusCashManager@@@std@@@4@$0A@@std@@@std@@QAE@XZ PROC ; std::_Tree<std::_Tmap_traits<int,ioBonusCashManager::BonusCashInfo,std::less<int>,std::allocator<std::pair<int const ,ioBonusCashManager::BonusCashInfo> >,0> >::~_Tree<std::_Tmap_traits<int,ioBonusCashManager::BonusCashInfo,std::less<int>,std::allocator<std::pair<int const ,ioBonusCashManager::BonusCashInfo> >,0> >, COMDAT
; _this$ = ecx

; 790  : 		{	// destroy tree

  00000	6a 08		 push	 8
  00002	b8 00 00 00 00	 mov	 eax, __ehhandler$??1?$_Tree@V?$_Tmap_traits@HUBonusCashInfo@ioBonusCashManager@@U?$less@H@std@@V?$allocator@U?$pair@$$CBHUBonusCashInfo@ioBonusCashManager@@@std@@@4@$0A@@std@@@std@@QAE@XZ
  00007	e8 00 00 00 00	 call	 __EH_prolog3
  0000c	8b f1		 mov	 esi, ecx
  0000e	89 75 f0	 mov	 DWORD PTR _this$[ebp], esi

; 791  : 		_Tidy();

  00011	8b 46 04	 mov	 eax, DWORD PTR [esi+4]
  00014	8b 08		 mov	 ecx, DWORD PTR [eax]
  00016	83 65 fc 00	 and	 DWORD PTR __$EHRec$[ebp+8], 0
  0001a	50		 push	 eax
  0001b	51		 push	 ecx
  0001c	8d 45 ec	 lea	 eax, DWORD PTR $T511287[ebp]
  0001f	50		 push	 eax
  00020	8b ce		 mov	 ecx, esi
  00022	e8 00 00 00 00	 call	 ?erase@?$_Tree@V?$_Tmap_traits@HUBonusCashInfo@ioBonusCashManager@@U?$less@H@std@@V?$allocator@U?$pair@$$CBHUBonusCashInfo@ioBonusCashManager@@@std@@@4@$0A@@std@@@std@@QAE?AV?$_Tree_iterator@V?$_Tree_val@V?$_Tmap_traits@HUBonusCashInfo@ioBonusCashManager@@U?$less@H@std@@V?$allocator@U?$pair@$$CBHUBonusCashInfo@ioBonusCashManager@@@std@@@4@$0A@@std@@@std@@@2@V?$_Tree_const_iterator@V?$_Tree_val@V?$_Tmap_traits@HUBonusCashInfo@ioBonusCashManager@@U?$less@H@std@@V?$allocator@U?$pair@$$CBHUBonusCashInfo@ioBonusCashManager@@@std@@@4@$0A@@std@@@std@@@2@0@Z ; std::_Tree<std::_Tmap_traits<int,ioBonusCashManager::BonusCashInfo,std::less<int>,std::allocator<std::pair<int const ,ioBonusCashManager::BonusCashInfo> >,0> >::erase

; 792  : 		}

  00027	ff 76 04	 push	 DWORD PTR [esi+4]
  0002a	e8 00 00 00 00	 call	 ??3@YAXPAX@Z		; operator delete
  0002f	59		 pop	 ecx
  00030	e8 00 00 00 00	 call	 __EH_epilog3
  00035	c3		 ret	 0
_TEXT	ENDS
;	COMDAT text$x
text$x	SEGMENT
__unwindfunclet$??1?$_Tree@V?$_Tmap_traits@HUBonusCashInfo@ioBonusCashManager@@U?$less@H@std@@V?$allocator@U?$pair@$$CBHUBonusCashInfo@ioBonusCashManager@@@std@@@4@$0A@@std@@@std@@QAE@XZ$0:
  00000	8b 4d f0	 mov	 ecx, DWORD PTR _this$[ebp]
  00003	e9 00 00 00 00	 jmp	 ??1?$_Tree_val@V?$_Tmap_traits@HUBonusCashInfo@ioBonusCashManager@@U?$less@H@std@@V?$allocator@U?$pair@$$CBHUBonusCashInfo@ioBonusCashManager@@@std@@@4@$0A@@std@@@std@@QAE@XZ ; std::_Tree_val<std::_Tmap_traits<int,ioBonusCashManager::BonusCashInfo,std::less<int>,std::allocator<std::pair<int const ,ioBonusCashManager::BonusCashInfo> >,0> >::~_Tree_val<std::_Tmap_traits<int,ioBonusCashManager::BonusCashInfo,std::less<int>,std::allocator<std::pair<int const ,ioBonusCashManager::BonusCashInfo> >,0> >
__ehhandler$??1?$_Tree@V?$_Tmap_traits@HUBonusCashInfo@ioBonusCashManager@@U?$less@H@std@@V?$allocator@U?$pair@$$CBHUBonusCashInfo@ioBonusCashManager@@@std@@@4@$0A@@std@@@std@@QAE@XZ:
  00008	8b 54 24 08	 mov	 edx, DWORD PTR [esp+8]
  0000c	8d 42 0c	 lea	 eax, DWORD PTR [edx+12]
  0000f	8b 4a e8	 mov	 ecx, DWORD PTR [edx-24]
  00012	33 c8		 xor	 ecx, eax
  00014	e8 00 00 00 00	 call	 @__security_check_cookie@4
  00019	b8 00 00 00 00	 mov	 eax, OFFSET __ehfuncinfo$??1?$_Tree@V?$_Tmap_traits@HUBonusCashInfo@ioBonusCashManager@@U?$less@H@std@@V?$allocator@U?$pair@$$CBHUBonusCashInfo@ioBonusCashManager@@@std@@@4@$0A@@std@@@std@@QAE@XZ
  0001e	e9 00 00 00 00	 jmp	 ___CxxFrameHandler3
text$x	ENDS
??1?$_Tree@V?$_Tmap_traits@HUBonusCashInfo@ioBonusCashManager@@U?$less@H@std@@V?$allocator@U?$pair@$$CBHUBonusCashInfo@ioBonusCashManager@@@std@@@4@$0A@@std@@@std@@QAE@XZ ENDP ; std::_Tree<std::_Tmap_traits<int,ioBonusCashManager::BonusCashInfo,std::less<int>,std::allocator<std::pair<int const ,ioBonusCashManager::BonusCashInfo> >,0> >::~_Tree<std::_Tmap_traits<int,ioBonusCashManager::BonusCashInfo,std::less<int>,std::allocator<std::pair<int const ,ioBonusCashManager::BonusCashInfo> >,0> >
PUBLIC	??$insert@U?$pair@$$CBHUBonusCashInfo@ioBonusCashManager@@@std@@@?$_Tree@V?$_Tmap_traits@HUBonusCashInfo@ioBonusCashManager@@U?$less@H@std@@V?$allocator@U?$pair@$$CBHUBonusCashInfo@ioBonusCashManager@@@std@@@4@$0A@@std@@@std@@QAE?AU?$pair@V?$_Tree_iterator@V?$_Tree_val@V?$_Tmap_traits@HUBonusCashInfo@ioBonusCashManager@@U?$less@H@std@@V?$allocator@U?$pair@$$CBHUBonusCashInfo@ioBonusCashManager@@@std@@@4@$0A@@std@@@std@@@std@@_N@1@$$QAU?$pair@$$CBHUBonusCashInfo@ioBonusCashManager@@@1@@Z ; std::_Tree<std::_Tmap_traits<int,ioBonusCashManager::BonusCashInfo,std::less<int>,std::allocator<std::pair<int const ,ioBonusCashManager::BonusCashInfo> >,0> >::insert<std::pair<int const ,ioBonusCashManager::BonusCashInfo> >
; Function compile flags: /Ogsp
;	COMDAT ??$insert@U?$pair@$$CBHUBonusCashInfo@ioBonusCashManager@@@std@@@?$_Tree@V?$_Tmap_traits@HUBonusCashInfo@ioBonusCashManager@@U?$less@H@std@@V?$allocator@U?$pair@$$CBHUBonusCashInfo@ioBonusCashManager@@@std@@@4@$0A@@std@@@std@@QAE?AU?$pair@V?$_Tree_iterator@V?$_Tree_val@V?$_Tmap_traits@HUBonusCashInfo@ioBonusCashManager@@U?$less@H@std@@V?$allocator@U?$pair@$$CBHUBonusCashInfo@ioBonusCashManager@@@std@@@4@$0A@@std@@@std@@@std@@_N@1@$$QAU?$pair@$$CBHUBonusCashInfo@ioBonusCashManager@@@1@@Z
_TEXT	SEGMENT
___$ReturnUdt$ = 8					; size = 4
__Val$ = 12						; size = 4
??$insert@U?$pair@$$CBHUBonusCashInfo@ioBonusCashManager@@@std@@@?$_Tree@V?$_Tmap_traits@HUBonusCashInfo@ioBonusCashManager@@U?$less@H@std@@V?$allocator@U?$pair@$$CBHUBonusCashInfo@ioBonusCashManager@@@std@@@4@$0A@@std@@@std@@QAE?AU?$pair@V?$_Tree_iterator@V?$_Tree_val@V?$_Tmap_traits@HUBonusCashInfo@ioBonusCashManager@@U?$less@H@std@@V?$allocator@U?$pair@$$CBHUBonusCashInfo@ioBonusCashManager@@@std@@@4@$0A@@std@@@std@@@std@@_N@1@$$QAU?$pair@$$CBHUBonusCashInfo@ioBonusCashManager@@@1@@Z PROC ; std::_Tree<std::_Tmap_traits<int,ioBonusCashManager::BonusCashInfo,std::less<int>,std::allocator<std::pair<int const ,ioBonusCashManager::BonusCashInfo> >,0> >::insert<std::pair<int const ,ioBonusCashManager::BonusCashInfo> >, COMDAT
; _this$ = ecx

; 753  : 		_Pairib insert(_Valty&& _Val)

  00000	55		 push	 ebp
  00001	8b ec		 mov	 ebp, esp
  00003	56		 push	 esi

; 754  : 		{	// try to insert node with value _Val, favoring right side
; 755  : 		return (_Linsert(this->_Buynode(_STD forward<_Valty>(_Val)),
; 756  : 			false));

  00004	6a 00		 push	 0
  00006	ff 75 0c	 push	 DWORD PTR __Val$[ebp]
  00009	8b f1		 mov	 esi, ecx
  0000b	e8 00 00 00 00	 call	 ??$_Buynode@U?$pair@$$CBHUBonusCashInfo@ioBonusCashManager@@@std@@@?$_Tree_val@V?$_Tmap_traits@HUBonusCashInfo@ioBonusCashManager@@U?$less@H@std@@V?$allocator@U?$pair@$$CBHUBonusCashInfo@ioBonusCashManager@@@std@@@4@$0A@@std@@@std@@QAEPAU_Node@?$_Tree_nod@V?$_Tmap_traits@HUBonusCashInfo@ioBonusCashManager@@U?$less@H@std@@V?$allocator@U?$pair@$$CBHUBonusCashInfo@ioBonusCashManager@@@std@@@4@$0A@@std@@@1@$$QAU?$pair@$$CBHUBonusCashInfo@ioBonusCashManager@@@1@@Z ; std::_Tree_val<std::_Tmap_traits<int,ioBonusCashManager::BonusCashInfo,std::less<int>,std::allocator<std::pair<int const ,ioBonusCashManager::BonusCashInfo> >,0> >::_Buynode<std::pair<int const ,ioBonusCashManager::BonusCashInfo> >
  00010	50		 push	 eax
  00011	ff 75 08	 push	 DWORD PTR ___$ReturnUdt$[ebp]
  00014	8b ce		 mov	 ecx, esi
  00016	e8 00 00 00 00	 call	 ?_Linsert@?$_Tree@V?$_Tmap_traits@HUBonusCashInfo@ioBonusCashManager@@U?$less@H@std@@V?$allocator@U?$pair@$$CBHUBonusCashInfo@ioBonusCashManager@@@std@@@4@$0A@@std@@@std@@QAE?AU?$pair@V?$_Tree_iterator@V?$_Tree_val@V?$_Tmap_traits@HUBonusCashInfo@ioBonusCashManager@@U?$less@H@std@@V?$allocator@U?$pair@$$CBHUBonusCashInfo@ioBonusCashManager@@@std@@@4@$0A@@std@@@std@@@std@@_N@2@PAU_Node@?$_Tree_nod@V?$_Tmap_traits@HUBonusCashInfo@ioBonusCashManager@@U?$less@H@std@@V?$allocator@U?$pair@$$CBHUBonusCashInfo@ioBonusCashManager@@@std@@@4@$0A@@std@@@2@_N@Z ; std::_Tree<std::_Tmap_traits<int,ioBonusCashManager::BonusCashInfo,std::less<int>,std::allocator<std::pair<int const ,ioBonusCashManager::BonusCashInfo> >,0> >::_Linsert
  0001b	8b 45 08	 mov	 eax, DWORD PTR ___$ReturnUdt$[ebp]
  0001e	5e		 pop	 esi

; 757  : 		}

  0001f	5d		 pop	 ebp
  00020	c2 08 00	 ret	 8
??$insert@U?$pair@$$CBHUBonusCashInfo@ioBonusCashManager@@@std@@@?$_Tree@V?$_Tmap_traits@HUBonusCashInfo@ioBonusCashManager@@U?$less@H@std@@V?$allocator@U?$pair@$$CBHUBonusCashInfo@ioBonusCashManager@@@std@@@4@$0A@@std@@@std@@QAE?AU?$pair@V?$_Tree_iterator@V?$_Tree_val@V?$_Tmap_traits@HUBonusCashInfo@ioBonusCashManager@@U?$less@H@std@@V?$allocator@U?$pair@$$CBHUBonusCashInfo@ioBonusCashManager@@@std@@@4@$0A@@std@@@std@@@std@@_N@1@$$QAU?$pair@$$CBHUBonusCashInfo@ioBonusCashManager@@@1@@Z ENDP ; std::_Tree<std::_Tmap_traits<int,ioBonusCashManager::BonusCashInfo,std::less<int>,std::allocator<std::pair<int const ,ioBonusCashManager::BonusCashInfo> >,0> >::insert<std::pair<int const ,ioBonusCashManager::BonusCashInfo> >
_TEXT	ENDS
PUBLIC	??1?$map@HUBonusCashInfo@ioBonusCashManager@@U?$less@H@std@@V?$allocator@U?$pair@$$CBHUBonusCashInfo@ioBonusCashManager@@@std@@@4@@std@@QAE@XZ ; std::map<int,ioBonusCashManager::BonusCashInfo,std::less<int>,std::allocator<std::pair<int const ,ioBonusCashManager::BonusCashInfo> > >::~map<int,ioBonusCashManager::BonusCashInfo,std::less<int>,std::allocator<std::pair<int const ,ioBonusCashManager::BonusCashInfo> > >
; Function compile flags: /Ogsp
;	COMDAT ??1?$map@HUBonusCashInfo@ioBonusCashManager@@U?$less@H@std@@V?$allocator@U?$pair@$$CBHUBonusCashInfo@ioBonusCashManager@@@std@@@4@@std@@QAE@XZ
_TEXT	SEGMENT
??1?$map@HUBonusCashInfo@ioBonusCashManager@@U?$less@H@std@@V?$allocator@U?$pair@$$CBHUBonusCashInfo@ioBonusCashManager@@@std@@@4@@std@@QAE@XZ PROC ; std::map<int,ioBonusCashManager::BonusCashInfo,std::less<int>,std::allocator<std::pair<int const ,ioBonusCashManager::BonusCashInfo> > >::~map<int,ioBonusCashManager::BonusCashInfo,std::less<int>,std::allocator<std::pair<int const ,ioBonusCashManager::BonusCashInfo> > >, COMDAT
; _this$ = ecx
  00000	e9 00 00 00 00	 jmp	 ??1?$_Tree@V?$_Tmap_traits@HUBonusCashInfo@ioBonusCashManager@@U?$less@H@std@@V?$allocator@U?$pair@$$CBHUBonusCashInfo@ioBonusCashManager@@@std@@@4@$0A@@std@@@std@@QAE@XZ ; std::_Tree<std::_Tmap_traits<int,ioBonusCashManager::BonusCashInfo,std::less<int>,std::allocator<std::pair<int const ,ioBonusCashManager::BonusCashInfo> >,0> >::~_Tree<std::_Tmap_traits<int,ioBonusCashManager::BonusCashInfo,std::less<int>,std::allocator<std::pair<int const ,ioBonusCashManager::BonusCashInfo> >,0> >
??1?$map@HUBonusCashInfo@ioBonusCashManager@@U?$less@H@std@@V?$allocator@U?$pair@$$CBHUBonusCashInfo@ioBonusCashManager@@@std@@@4@@std@@QAE@XZ ENDP ; std::map<int,ioBonusCashManager::BonusCashInfo,std::less<int>,std::allocator<std::pair<int const ,ioBonusCashManager::BonusCashInfo> > >::~map<int,ioBonusCashManager::BonusCashInfo,std::less<int>,std::allocator<std::pair<int const ,ioBonusCashManager::BonusCashInfo> > >
_TEXT	ENDS
PUBLIC	??_7ioBonusCashManager@@6B@			; ioBonusCashManager::`vftable'
PUBLIC	??1ioBonusCashManager@@UAE@XZ			; ioBonusCashManager::~ioBonusCashManager
PUBLIC	??_R4ioBonusCashManager@@6B@			; ioBonusCashManager::`RTTI Complete Object Locator'
PUBLIC	??_R0?AVioBonusCashManager@@@8			; ioBonusCashManager `RTTI Type Descriptor'
PUBLIC	??_R3ioBonusCashManager@@8			; ioBonusCashManager::`RTTI Class Hierarchy Descriptor'
PUBLIC	??_R2ioBonusCashManager@@8			; ioBonusCashManager::`RTTI Base Class Array'
PUBLIC	??_R1A@?0A@EA@ioBonusCashManager@@8		; ioBonusCashManager::`RTTI Base Class Descriptor at (0,-1,0,64)'
PUBLIC	??_R13?0A@EA@?$Singleton@VioBonusCashManager@@@@8 ; Singleton<ioBonusCashManager>::`RTTI Base Class Descriptor at (4,-1,0,64)'
PUBLIC	??_R0?AV?$Singleton@VioBonusCashManager@@@@@8	; Singleton<ioBonusCashManager> `RTTI Type Descriptor'
PUBLIC	??_R3?$Singleton@VioBonusCashManager@@@@8	; Singleton<ioBonusCashManager>::`RTTI Class Hierarchy Descriptor'
PUBLIC	??_R2?$Singleton@VioBonusCashManager@@@@8	; Singleton<ioBonusCashManager>::`RTTI Base Class Array'
PUBLIC	??_R1A@?0A@EA@?$Singleton@VioBonusCashManager@@@@8 ; Singleton<ioBonusCashManager>::`RTTI Base Class Descriptor at (0,-1,0,64)'
EXTRN	??_EioBonusCashManager@@UAEPAXI@Z:PROC		; ioBonusCashManager::`vector deleting destructor'
;	COMDAT ??_R1A@?0A@EA@?$Singleton@VioBonusCashManager@@@@8
; File d:\lost saga for developer\youtube\tutorial\source\src\io3dengine\iosingleton.h
rdata$r	SEGMENT
??_R1A@?0A@EA@?$Singleton@VioBonusCashManager@@@@8 DD FLAT:??_R0?AV?$Singleton@VioBonusCashManager@@@@@8 ; Singleton<ioBonusCashManager>::`RTTI Base Class Descriptor at (0,-1,0,64)'
	DD	00H
	DD	00H
	DD	0ffffffffH
	DD	00H
	DD	040H
	DD	FLAT:??_R3?$Singleton@VioBonusCashManager@@@@8
rdata$r	ENDS
;	COMDAT ??_R2?$Singleton@VioBonusCashManager@@@@8
rdata$r	SEGMENT
??_R2?$Singleton@VioBonusCashManager@@@@8 DD FLAT:??_R1A@?0A@EA@?$Singleton@VioBonusCashManager@@@@8 ; Singleton<ioBonusCashManager>::`RTTI Base Class Array'
rdata$r	ENDS
;	COMDAT ??_R3?$Singleton@VioBonusCashManager@@@@8
rdata$r	SEGMENT
??_R3?$Singleton@VioBonusCashManager@@@@8 DD 00H	; Singleton<ioBonusCashManager>::`RTTI Class Hierarchy Descriptor'
	DD	00H
	DD	01H
	DD	FLAT:??_R2?$Singleton@VioBonusCashManager@@@@8
rdata$r	ENDS
;	COMDAT ??_R0?AV?$Singleton@VioBonusCashManager@@@@@8
_DATA	SEGMENT
??_R0?AV?$Singleton@VioBonusCashManager@@@@@8 DD FLAT:??_7type_info@@6B@ ; Singleton<ioBonusCashManager> `RTTI Type Descriptor'
	DD	00H
	DB	'.?AV?$Singleton@VioBonusCashManager@@@@', 00H
_DATA	ENDS
;	COMDAT ??_R13?0A@EA@?$Singleton@VioBonusCashManager@@@@8
rdata$r	SEGMENT
??_R13?0A@EA@?$Singleton@VioBonusCashManager@@@@8 DD FLAT:??_R0?AV?$Singleton@VioBonusCashManager@@@@@8 ; Singleton<ioBonusCashManager>::`RTTI Base Class Descriptor at (4,-1,0,64)'
	DD	00H
	DD	04H
	DD	0ffffffffH
	DD	00H
	DD	040H
	DD	FLAT:??_R3?$Singleton@VioBonusCashManager@@@@8
rdata$r	ENDS
;	COMDAT ??_R1A@?0A@EA@ioBonusCashManager@@8
rdata$r	SEGMENT
??_R1A@?0A@EA@ioBonusCashManager@@8 DD FLAT:??_R0?AVioBonusCashManager@@@8 ; ioBonusCashManager::`RTTI Base Class Descriptor at (0,-1,0,64)'
	DD	01H
	DD	00H
	DD	0ffffffffH
	DD	00H
	DD	040H
	DD	FLAT:??_R3ioBonusCashManager@@8
rdata$r	ENDS
;	COMDAT ??_R2ioBonusCashManager@@8
rdata$r	SEGMENT
??_R2ioBonusCashManager@@8 DD FLAT:??_R1A@?0A@EA@ioBonusCashManager@@8 ; ioBonusCashManager::`RTTI Base Class Array'
	DD	FLAT:??_R13?0A@EA@?$Singleton@VioBonusCashManager@@@@8
rdata$r	ENDS
;	COMDAT ??_R3ioBonusCashManager@@8
rdata$r	SEGMENT
??_R3ioBonusCashManager@@8 DD 00H			; ioBonusCashManager::`RTTI Class Hierarchy Descriptor'
	DD	00H
	DD	02H
	DD	FLAT:??_R2ioBonusCashManager@@8
rdata$r	ENDS
;	COMDAT ??_R0?AVioBonusCashManager@@@8
_DATA	SEGMENT
??_R0?AVioBonusCashManager@@@8 DD FLAT:??_7type_info@@6B@ ; ioBonusCashManager `RTTI Type Descriptor'
	DD	00H
	DB	'.?AVioBonusCashManager@@', 00H
_DATA	ENDS
;	COMDAT ??_R4ioBonusCashManager@@6B@
rdata$r	SEGMENT
??_R4ioBonusCashManager@@6B@ DD 00H			; ioBonusCashManager::`RTTI Complete Object Locator'
	DD	00H
	DD	00H
	DD	FLAT:??_R0?AVioBonusCashManager@@@8
	DD	FLAT:??_R3ioBonusCashManager@@8
rdata$r	ENDS
;	COMDAT ??_7ioBonusCashManager@@6B@
CONST	SEGMENT
??_7ioBonusCashManager@@6B@ DD FLAT:??_R4ioBonusCashManager@@6B@ ; ioBonusCashManager::`vftable'
	DD	FLAT:??_EioBonusCashManager@@UAEPAXI@Z
CONST	ENDS
;	COMDAT xdata$x
xdata$x	SEGMENT
__unwindtable$??1ioBonusCashManager@@UAE@XZ DD 0ffffffffH
	DD	FLAT:__unwindfunclet$??1ioBonusCashManager@@UAE@XZ$0
	DD	00H
	DD	FLAT:__unwindfunclet$??1ioBonusCashManager@@UAE@XZ$1
__ehfuncinfo$??1ioBonusCashManager@@UAE@XZ DD 019930522H
	DD	02H
	DD	FLAT:__unwindtable$??1ioBonusCashManager@@UAE@XZ
	DD	2 DUP(00H)
	DD	2 DUP(00H)
	DD	00H
	DD	01H
; Function compile flags: /Ogsp
; File d:\lost saga for developer\youtube\tutorial\source\src\lsclient\iobonuscashmanager.cpp
xdata$x	ENDS
;	COMDAT ??1ioBonusCashManager@@UAE@XZ
_TEXT	SEGMENT
_this$ = -16						; size = 4
__$EHRec$ = -12						; size = 12
??1ioBonusCashManager@@UAE@XZ PROC			; ioBonusCashManager::~ioBonusCashManager, COMDAT
; _this$ = ecx

; 12   : {

  00000	6a 04		 push	 4
  00002	b8 00 00 00 00	 mov	 eax, __ehhandler$??1ioBonusCashManager@@UAE@XZ
  00007	e8 00 00 00 00	 call	 __EH_prolog3
  0000c	8b f1		 mov	 esi, ecx
  0000e	89 75 f0	 mov	 DWORD PTR _this$[ebp], esi
  00011	c7 06 00 00 00
	00		 mov	 DWORD PTR [esi], OFFSET ??_7ioBonusCashManager@@6B@

; 13   : }

  00017	8d 4e 14	 lea	 ecx, DWORD PTR [esi+20]
  0001a	c7 45 fc 01 00
	00 00		 mov	 DWORD PTR __$EHRec$[ebp+8], 1
  00021	e8 00 00 00 00	 call	 ??1?$_Tree@V?$_Tmap_traits@HUBonusCashInfo@ioBonusCashManager@@U?$less@H@std@@V?$allocator@U?$pair@$$CBHUBonusCashInfo@ioBonusCashManager@@@std@@@4@$0A@@std@@@std@@QAE@XZ ; std::_Tree<std::_Tmap_traits<int,ioBonusCashManager::BonusCashInfo,std::less<int>,std::allocator<std::pair<int const ,ioBonusCashManager::BonusCashInfo> >,0> >::~_Tree<std::_Tmap_traits<int,ioBonusCashManager::BonusCashInfo,std::less<int>,std::allocator<std::pair<int const ,ioBonusCashManager::BonusCashInfo> >,0> >
  00026	8d 4e 04	 lea	 ecx, DWORD PTR [esi+4]
  00029	c6 45 fc 00	 mov	 BYTE PTR __$EHRec$[ebp+8], 0
  0002d	e8 00 00 00 00	 call	 ??1?$_Tree@V?$_Tmap_traits@HUBonusCashInfo@ioBonusCashManager@@U?$less@H@std@@V?$allocator@U?$pair@$$CBHUBonusCashInfo@ioBonusCashManager@@@std@@@4@$0A@@std@@@std@@QAE@XZ ; std::_Tree<std::_Tmap_traits<int,ioBonusCashManager::BonusCashInfo,std::less<int>,std::allocator<std::pair<int const ,ioBonusCashManager::BonusCashInfo> >,0> >::~_Tree<std::_Tmap_traits<int,ioBonusCashManager::BonusCashInfo,std::less<int>,std::allocator<std::pair<int const ,ioBonusCashManager::BonusCashInfo> >,0> >
  00032	83 25 00 00 00
	00 00		 and	 DWORD PTR ?ms_Singleton@?$Singleton@VioBonusCashManager@@@@1PAVioBonusCashManager@@A, 0 ; Singleton<ioBonusCashManager>::ms_Singleton
  00039	e8 00 00 00 00	 call	 __EH_epilog3
  0003e	c3		 ret	 0
_TEXT	ENDS
;	COMDAT text$x
text$x	SEGMENT
__unwindfunclet$??1ioBonusCashManager@@UAE@XZ$0:
  00000	8b 4d f0	 mov	 ecx, DWORD PTR _this$[ebp]
  00003	83 c1 04	 add	 ecx, 4
  00006	e9 00 00 00 00	 jmp	 ??1?$Singleton@VioBonusCashManager@@@@QAE@XZ ; Singleton<ioBonusCashManager>::~Singleton<ioBonusCashManager>
__unwindfunclet$??1ioBonusCashManager@@UAE@XZ$1:
  0000b	8b 4d f0	 mov	 ecx, DWORD PTR _this$[ebp]
  0000e	83 c1 04	 add	 ecx, 4
  00011	e9 00 00 00 00	 jmp	 ??1?$map@HUBonusCashInfo@ioBonusCashManager@@U?$less@H@std@@V?$allocator@U?$pair@$$CBHUBonusCashInfo@ioBonusCashManager@@@std@@@4@@std@@QAE@XZ
__ehhandler$??1ioBonusCashManager@@UAE@XZ:
  00016	8b 54 24 08	 mov	 edx, DWORD PTR [esp+8]
  0001a	8d 42 0c	 lea	 eax, DWORD PTR [edx+12]
  0001d	8b 4a ec	 mov	 ecx, DWORD PTR [edx-20]
  00020	33 c8		 xor	 ecx, eax
  00022	e8 00 00 00 00	 call	 @__security_check_cookie@4
  00027	b8 00 00 00 00	 mov	 eax, OFFSET __ehfuncinfo$??1ioBonusCashManager@@UAE@XZ
  0002c	e9 00 00 00 00	 jmp	 ___CxxFrameHandler3
text$x	ENDS
??1ioBonusCashManager@@UAE@XZ ENDP			; ioBonusCashManager::~ioBonusCashManager
PUBLIC	??_C@_0CJ@PKOOMBPO@?$CFs?5?9?5alreay?5exist?5Bonus?5Cash?5Ind@ ; `string'
PUBLIC	??_C@_0CG@PADAGFJ@ioBonusCashManager?3?3ApplyBonusCa@ ; `string'
PUBLIC	?ApplyBonusCashAdd@ioBonusCashManager@@QAEXAAVSP2Packet@@@Z ; ioBonusCashManager::ApplyBonusCashAdd
EXTRN	?SetBonusCash@ioMyInfo@@QAEXH@Z:PROC		; ioMyInfo::SetBonusCash
EXTRN	?GetSingleton@ioMyInfo@@SAAAV1@XZ:PROC		; ioMyInfo::GetSingleton
EXTRN	??5SP2Packet@@QAEAAV0@AA_J@Z:PROC		; SP2Packet::operator>>
EXTRN	??5SP2Packet@@QAEAAV0@AAH@Z:PROC		; SP2Packet::operator>>
;	COMDAT ??_C@_0CJ@PKOOMBPO@?$CFs?5?9?5alreay?5exist?5Bonus?5Cash?5Ind@
; File c:\program files (x86)\microsoft visual studio 10.0\vc\include\utility
CONST	SEGMENT
??_C@_0CJ@PKOOMBPO@?$CFs?5?9?5alreay?5exist?5Bonus?5Cash?5Ind@ DB '%s - a'
	DB	'lreay exist Bonus Cash Index  - %d', 00H	; `string'
CONST	ENDS
;	COMDAT ??_C@_0CG@PADAGFJ@ioBonusCashManager?3?3ApplyBonusCa@
CONST	SEGMENT
??_C@_0CG@PADAGFJ@ioBonusCashManager?3?3ApplyBonusCa@ DB 'ioBonusCashMana'
	DB	'ger::ApplyBonusCashAdd', 00H		; `string'
; Function compile flags: /Ogsp
; File d:\lost saga for developer\youtube\tutorial\source\src\lsclient\iobonuscashmanager.cpp
CONST	ENDS
;	COMDAT ?ApplyBonusCashAdd@ioBonusCashManager@@QAEXAAVSP2Packet@@@Z
_TEXT	SEGMENT
$T511370 = -56						; size = 20
_kInfo$ = -36						; size = 16
_iTime$ = -20						; size = 8
$T511371 = -12						; size = 8
_iter$ = -8						; size = 4
_iIndex$ = -4						; size = 4
_rkPacket$ = 8						; size = 4
?ApplyBonusCashAdd@ioBonusCashManager@@QAEXAAVSP2Packet@@@Z PROC ; ioBonusCashManager::ApplyBonusCashAdd, COMDAT
; _this$ = ecx

; 66   : {

  00000	55		 push	 ebp
  00001	8b ec		 mov	 ebp, esp
  00003	83 ec 38	 sub	 esp, 56			; 00000038H
  00006	53		 push	 ebx

; 67   : 	int iIndex;
; 68   : 	rkPacket>>iIndex;

  00007	8d 45 fc	 lea	 eax, DWORD PTR _iIndex$[ebp]
  0000a	8b d9		 mov	 ebx, ecx
  0000c	8b 4d 08	 mov	 ecx, DWORD PTR _rkPacket$[ebp]
  0000f	50		 push	 eax
  00010	e8 00 00 00 00	 call	 ??5SP2Packet@@QAEAAV0@AAH@Z ; SP2Packet::operator>>

; 69   : 	BonusCashInfoList::iterator iter = m_AliveBonusCashInfoList.find( iIndex );

  00015	8d 45 fc	 lea	 eax, DWORD PTR _iIndex$[ebp]
  00018	50		 push	 eax
  00019	8d 45 f8	 lea	 eax, DWORD PTR _iter$[ebp]
  0001c	8d 4b 04	 lea	 ecx, DWORD PTR [ebx+4]
  0001f	50		 push	 eax
  00020	e8 00 00 00 00	 call	 ?find@?$_Tree@V?$_Tmap_traits@HUBonusCashInfo@ioBonusCashManager@@U?$less@H@std@@V?$allocator@U?$pair@$$CBHUBonusCashInfo@ioBonusCashManager@@@std@@@4@$0A@@std@@@std@@QAE?AV?$_Tree_iterator@V?$_Tree_val@V?$_Tmap_traits@HUBonusCashInfo@ioBonusCashManager@@U?$less@H@std@@V?$allocator@U?$pair@$$CBHUBonusCashInfo@ioBonusCashManager@@@std@@@4@$0A@@std@@@std@@@2@ABH@Z ; std::_Tree<std::_Tmap_traits<int,ioBonusCashManager::BonusCashInfo,std::less<int>,std::allocator<std::pair<int const ,ioBonusCashManager::BonusCashInfo> >,0> >::find

; 70   : 	if ( iter != m_AliveBonusCashInfoList.end() )

  00025	8b 45 f8	 mov	 eax, DWORD PTR _iter$[ebp]
  00028	3b 43 08	 cmp	 eax, DWORD PTR [ebx+8]
  0002b	74 20		 je	 SHORT $LN1@ApplyBonus

; 71   : 	{
; 72   : 		LOG.PrintTimeAndLog( 0, "%s - alreay exist Bonus Cash Index  - %d", __FUNCTION__, iIndex );

  0002d	ff 75 fc	 push	 DWORD PTR _iIndex$[ebp]
  00030	68 00 00 00 00	 push	 OFFSET ??_C@_0CG@PADAGFJ@ioBonusCashManager?3?3ApplyBonusCa@
  00035	68 00 00 00 00	 push	 OFFSET ??_C@_0CJ@PKOOMBPO@?$CFs?5?9?5alreay?5exist?5Bonus?5Cash?5Ind@
  0003a	6a 00		 push	 0
  0003c	ff 35 00 00 00
	00		 push	 DWORD PTR __imp_?LOG@@3VCLog@@A
  00042	ff 15 00 00 00
	00		 call	 DWORD PTR __imp_?PrintTimeAndLog@CLog@@QAAXHPADZZ
  00048	83 c4 14	 add	 esp, 20			; 00000014H

; 73   : 		return;

  0004b	eb 7e		 jmp	 SHORT $LN2@ApplyBonus
$LN1@ApplyBonus:

; 74   : 	}
; 75   : 	BonusCashInfo kInfo;
; 76   : 	__int64 iTime;
; 77   : 	rkPacket>>kInfo.iAcquisitionCash;

  0004d	8b 4d 08	 mov	 ecx, DWORD PTR _rkPacket$[ebp]
  00050	83 65 e4 00	 and	 DWORD PTR _kInfo$[ebp+8], 0
  00054	83 65 e8 00	 and	 DWORD PTR _kInfo$[ebp+12], 0
  00058	56		 push	 esi
  00059	57		 push	 edi
  0005a	8d 45 e4	 lea	 eax, DWORD PTR _kInfo$[ebp+8]
  0005d	66 0f 57 c0	 xorpd	 xmm0, xmm0
  00061	50		 push	 eax
  00062	66 0f 13 45 dc	 movlpd	 QWORD PTR _kInfo$[ebp], xmm0
  00067	e8 00 00 00 00	 call	 ??5SP2Packet@@QAEAAV0@AAH@Z ; SP2Packet::operator>>

; 78   : 	kInfo.iRemainingCash = kInfo.iAcquisitionCash;

  0006c	8b 45 e4	 mov	 eax, DWORD PTR _kInfo$[ebp+8]

; 79   : 	rkPacket>>iTime;

  0006f	8b 4d 08	 mov	 ecx, DWORD PTR _rkPacket$[ebp]
  00072	89 45 e8	 mov	 DWORD PTR _kInfo$[ebp+12], eax
  00075	8d 45 ec	 lea	 eax, DWORD PTR _iTime$[ebp]
  00078	50		 push	 eax
  00079	e8 00 00 00 00	 call	 ??5SP2Packet@@QAEAAV0@AA_J@Z ; SP2Packet::operator>>

; 80   : 	kInfo.ExpiredTime = CTime( iTime );

  0007e	8b 45 ec	 mov	 eax, DWORD PTR _iTime$[ebp]
  00081	89 45 dc	 mov	 DWORD PTR _kInfo$[ebp], eax
  00084	8b 45 f0	 mov	 eax, DWORD PTR _iTime$[ebp+4]
  00087	89 45 e0	 mov	 DWORD PTR _kInfo$[ebp+4], eax

; 81   : 	m_AliveBonusCashInfoList.insert( BonusCashInfoList::value_type( iIndex, kInfo ) );

  0008a	8b 45 fc	 mov	 eax, DWORD PTR _iIndex$[ebp]
  0008d	89 45 c8	 mov	 DWORD PTR $T511370[ebp], eax
  00090	8d 75 dc	 lea	 esi, DWORD PTR _kInfo$[ebp]
  00093	8d 7d cc	 lea	 edi, DWORD PTR $T511370[ebp+4]
  00096	a5		 movsd
  00097	a5		 movsd
  00098	a5		 movsd
  00099	6a 00		 push	 0
  0009b	8d 45 c8	 lea	 eax, DWORD PTR $T511370[ebp]
  0009e	50		 push	 eax
  0009f	8d 4b 04	 lea	 ecx, DWORD PTR [ebx+4]
  000a2	a5		 movsd
  000a3	e8 00 00 00 00	 call	 ??$_Buynode@U?$pair@$$CBHUBonusCashInfo@ioBonusCashManager@@@std@@@?$_Tree_val@V?$_Tmap_traits@HUBonusCashInfo@ioBonusCashManager@@U?$less@H@std@@V?$allocator@U?$pair@$$CBHUBonusCashInfo@ioBonusCashManager@@@std@@@4@$0A@@std@@@std@@QAEPAU_Node@?$_Tree_nod@V?$_Tmap_traits@HUBonusCashInfo@ioBonusCashManager@@U?$less@H@std@@V?$allocator@U?$pair@$$CBHUBonusCashInfo@ioBonusCashManager@@@std@@@4@$0A@@std@@@1@$$QAU?$pair@$$CBHUBonusCashInfo@ioBonusCashManager@@@1@@Z ; std::_Tree_val<std::_Tmap_traits<int,ioBonusCashManager::BonusCashInfo,std::less<int>,std::allocator<std::pair<int const ,ioBonusCashManager::BonusCashInfo> >,0> >::_Buynode<std::pair<int const ,ioBonusCashManager::BonusCashInfo> >
  000a8	50		 push	 eax
  000a9	8d 45 f4	 lea	 eax, DWORD PTR $T511371[ebp]
  000ac	50		 push	 eax
  000ad	8d 4b 04	 lea	 ecx, DWORD PTR [ebx+4]
  000b0	e8 00 00 00 00	 call	 ?_Linsert@?$_Tree@V?$_Tmap_traits@HUBonusCashInfo@ioBonusCashManager@@U?$less@H@std@@V?$allocator@U?$pair@$$CBHUBonusCashInfo@ioBonusCashManager@@@std@@@4@$0A@@std@@@std@@QAE?AU?$pair@V?$_Tree_iterator@V?$_Tree_val@V?$_Tmap_traits@HUBonusCashInfo@ioBonusCashManager@@U?$less@H@std@@V?$allocator@U?$pair@$$CBHUBonusCashInfo@ioBonusCashManager@@@std@@@4@$0A@@std@@@std@@@std@@_N@2@PAU_Node@?$_Tree_nod@V?$_Tmap_traits@HUBonusCashInfo@ioBonusCashManager@@U?$less@H@std@@V?$allocator@U?$pair@$$CBHUBonusCashInfo@ioBonusCashManager@@@std@@@4@$0A@@std@@@2@_N@Z ; std::_Tree<std::_Tmap_traits<int,ioBonusCashManager::BonusCashInfo,std::less<int>,std::allocator<std::pair<int const ,ioBonusCashManager::BonusCashInfo> >,0> >::_Linsert

; 82   : 
; 83   : 	// 1.   +  
; 84   : 	//int iBonusCash = g_MyInfo.GetBonusCash() + kInfo.iRemainingCash;
; 85   : 	//g_MyInfo.SetBonusCash( iBonusCash );
; 86   : 
; 87   : 	// 2.   
; 88   : 	int iBonusCash = CalcTotalAliveBonusCash();

  000b5	8b cb		 mov	 ecx, ebx
  000b7	e8 00 00 00 00	 call	 ?CalcTotalAliveBonusCash@ioBonusCashManager@@IAEHXZ ; ioBonusCashManager::CalcTotalAliveBonusCash

; 89   : 	g_MyInfo.SetBonusCash( iBonusCash );

  000bc	50		 push	 eax
  000bd	e8 00 00 00 00	 call	 ?GetSingleton@ioMyInfo@@SAAAV1@XZ ; ioMyInfo::GetSingleton
  000c2	8b c8		 mov	 ecx, eax
  000c4	e8 00 00 00 00	 call	 ?SetBonusCash@ioMyInfo@@QAEXH@Z ; ioMyInfo::SetBonusCash
  000c9	5f		 pop	 edi
  000ca	5e		 pop	 esi
$LN2@ApplyBonus:
  000cb	5b		 pop	 ebx

; 90   : }

  000cc	c9		 leave
  000cd	c2 04 00	 ret	 4
?ApplyBonusCashAdd@ioBonusCashManager@@QAEXAAVSP2Packet@@@Z ENDP ; ioBonusCashManager::ApplyBonusCashAdd
_TEXT	ENDS
PUBLIC	??_C@_0CG@NNINOECI@?$CFs?5?9?5not?5exist?5Bonus?5Cash?5Index?5@ ; `string'
PUBLIC	??_C@_0CJ@GPAANEFE@ioBonusCashManager?3?3ApplyBonusCa@ ; `string'
PUBLIC	?ApplyBonusCashUpdate@ioBonusCashManager@@QAEXAAVSP2Packet@@@Z ; ioBonusCashManager::ApplyBonusCashUpdate
;	COMDAT ??_C@_0CG@NNINOECI@?$CFs?5?9?5not?5exist?5Bonus?5Cash?5Index?5@
; File c:\program files (x86)\microsoft visual studio 10.0\vc\include\utility
CONST	SEGMENT
??_C@_0CG@NNINOECI@?$CFs?5?9?5not?5exist?5Bonus?5Cash?5Index?5@ DB '%s - '
	DB	'not exist Bonus Cash Index  - %d', 00H	; `string'
CONST	ENDS
;	COMDAT ??_C@_0CJ@GPAANEFE@ioBonusCashManager?3?3ApplyBonusCa@
CONST	SEGMENT
??_C@_0CJ@GPAANEFE@ioBonusCashManager?3?3ApplyBonusCa@ DB 'ioBonusCashMan'
	DB	'ager::ApplyBonusCashUpdate', 00H		; `string'
; Function compile flags: /Ogsp
; File d:\lost saga for developer\youtube\tutorial\source\src\lsclient\iobonuscashmanager.cpp
CONST	ENDS
;	COMDAT ?ApplyBonusCashUpdate@ioBonusCashManager@@QAEXAAVSP2Packet@@@Z
_TEXT	SEGMENT
$T511478 = -36						; size = 20
$T511479 = -16						; size = 8
_iter$ = -12						; size = 4
_this$ = -8						; size = 4
_iIndex$ = -4						; size = 4
$T511481 = 8						; size = 4
_rkPacket$ = 8						; size = 4
?ApplyBonusCashUpdate@ioBonusCashManager@@QAEXAAVSP2Packet@@@Z PROC ; ioBonusCashManager::ApplyBonusCashUpdate, COMDAT
; _this$ = ecx

; 93   : {

  00000	55		 push	 ebp
  00001	8b ec		 mov	 ebp, esp
  00003	83 ec 24	 sub	 esp, 36			; 00000024H
  00006	53		 push	 ebx
  00007	57		 push	 edi
  00008	8b f9		 mov	 edi, ecx

; 94   : 	int iIndex;
; 95   : 	rkPacket>>iIndex;

  0000a	8b 4d 08	 mov	 ecx, DWORD PTR _rkPacket$[ebp]
  0000d	8d 45 fc	 lea	 eax, DWORD PTR _iIndex$[ebp]
  00010	50		 push	 eax
  00011	89 7d f8	 mov	 DWORD PTR _this$[ebp], edi
  00014	e8 00 00 00 00	 call	 ??5SP2Packet@@QAEAAV0@AAH@Z ; SP2Packet::operator>>

; 96   : 	BonusCashInfoList::iterator iter = m_AliveBonusCashInfoList.find( iIndex );

  00019	8d 45 fc	 lea	 eax, DWORD PTR _iIndex$[ebp]
  0001c	50		 push	 eax
  0001d	8d 45 f4	 lea	 eax, DWORD PTR _iter$[ebp]
  00020	8d 4f 04	 lea	 ecx, DWORD PTR [edi+4]
  00023	50		 push	 eax
  00024	e8 00 00 00 00	 call	 ?find@?$_Tree@V?$_Tmap_traits@HUBonusCashInfo@ioBonusCashManager@@U?$less@H@std@@V?$allocator@U?$pair@$$CBHUBonusCashInfo@ioBonusCashManager@@@std@@@4@$0A@@std@@@std@@QAE?AV?$_Tree_iterator@V?$_Tree_val@V?$_Tmap_traits@HUBonusCashInfo@ioBonusCashManager@@U?$less@H@std@@V?$allocator@U?$pair@$$CBHUBonusCashInfo@ioBonusCashManager@@@std@@@4@$0A@@std@@@std@@@2@ABH@Z ; std::_Tree<std::_Tmap_traits<int,ioBonusCashManager::BonusCashInfo,std::less<int>,std::allocator<std::pair<int const ,ioBonusCashManager::BonusCashInfo> >,0> >::find

; 97   : 	if ( iter == m_AliveBonusCashInfoList.end() )

  00029	8b 5d f4	 mov	 ebx, DWORD PTR _iter$[ebp]
  0002c	3b 5f 08	 cmp	 ebx, DWORD PTR [edi+8]
  0002f	75 20		 jne	 SHORT $LN2@ApplyBonus@2

; 98   : 	{
; 99   : 		LOG.PrintTimeAndLog( 0, "%s - not exist Bonus Cash Index  - %d", __FUNCTION__, iIndex );

  00031	ff 75 fc	 push	 DWORD PTR _iIndex$[ebp]
  00034	68 00 00 00 00	 push	 OFFSET ??_C@_0CJ@GPAANEFE@ioBonusCashManager?3?3ApplyBonusCa@
  00039	68 00 00 00 00	 push	 OFFSET ??_C@_0CG@NNINOECI@?$CFs?5?9?5not?5exist?5Bonus?5Cash?5Index?5@
  0003e	6a 00		 push	 0
  00040	ff 35 00 00 00
	00		 push	 DWORD PTR __imp_?LOG@@3VCLog@@A
  00046	ff 15 00 00 00
	00		 call	 DWORD PTR __imp_?PrintTimeAndLog@CLog@@QAAXHPADZZ
  0004c	83 c4 14	 add	 esp, 20			; 00000014H

; 100  : 		return;

  0004f	eb 64		 jmp	 SHORT $LN3@ApplyBonus@2
$LN2@ApplyBonus@2:

; 101  : 	}
; 102  : 	//   .
; 103  : 	rkPacket >> iter->second.iRemainingCash;

  00051	8b 4d 08	 mov	 ecx, DWORD PTR _rkPacket$[ebp]
  00054	56		 push	 esi
  00055	8d 73 1c	 lea	 esi, DWORD PTR [ebx+28]
  00058	56		 push	 esi
  00059	e8 00 00 00 00	 call	 ??5SP2Packet@@QAEAAV0@AAH@Z ; SP2Packet::operator>>

; 104  : 	//     
; 105  : 	if ( iter->second.iRemainingCash <= 0 )

  0005e	83 3e 00	 cmp	 DWORD PTR [esi], 0
  00061	7f 3d		 jg	 SHORT $LN1@ApplyBonus@2

; 106  : 	{
; 107  : 		m_ExpireBonusCashInfoList.insert( BonusCashInfoList::value_type( iter->first, iter->second ) );

  00063	8b 43 0c	 mov	 eax, DWORD PTR [ebx+12]
  00066	89 45 dc	 mov	 DWORD PTR $T511478[ebp], eax
  00069	8d 73 10	 lea	 esi, DWORD PTR [ebx+16]
  0006c	8d 7d e0	 lea	 edi, DWORD PTR $T511478[ebp+4]
  0006f	a5		 movsd
  00070	a5		 movsd
  00071	a5		 movsd
  00072	a5		 movsd
  00073	8b 75 f8	 mov	 esi, DWORD PTR _this$[ebp]
  00076	6a 00		 push	 0
  00078	8d 45 dc	 lea	 eax, DWORD PTR $T511478[ebp]
  0007b	50		 push	 eax
  0007c	8d 4e 14	 lea	 ecx, DWORD PTR [esi+20]
  0007f	e8 00 00 00 00	 call	 ??$_Buynode@U?$pair@$$CBHUBonusCashInfo@ioBonusCashManager@@@std@@@?$_Tree_val@V?$_Tmap_traits@HUBonusCashInfo@ioBonusCashManager@@U?$less@H@std@@V?$allocator@U?$pair@$$CBHUBonusCashInfo@ioBonusCashManager@@@std@@@4@$0A@@std@@@std@@QAEPAU_Node@?$_Tree_nod@V?$_Tmap_traits@HUBonusCashInfo@ioBonusCashManager@@U?$less@H@std@@V?$allocator@U?$pair@$$CBHUBonusCashInfo@ioBonusCashManager@@@std@@@4@$0A@@std@@@1@$$QAU?$pair@$$CBHUBonusCashInfo@ioBonusCashManager@@@1@@Z ; std::_Tree_val<std::_Tmap_traits<int,ioBonusCashManager::BonusCashInfo,std::less<int>,std::allocator<std::pair<int const ,ioBonusCashManager::BonusCashInfo> >,0> >::_Buynode<std::pair<int const ,ioBonusCashManager::BonusCashInfo> >
  00084	50		 push	 eax
  00085	8d 45 f0	 lea	 eax, DWORD PTR $T511479[ebp]
  00088	50		 push	 eax
  00089	8d 4e 14	 lea	 ecx, DWORD PTR [esi+20]
  0008c	e8 00 00 00 00	 call	 ?_Linsert@?$_Tree@V?$_Tmap_traits@HUBonusCashInfo@ioBonusCashManager@@U?$less@H@std@@V?$allocator@U?$pair@$$CBHUBonusCashInfo@ioBonusCashManager@@@std@@@4@$0A@@std@@@std@@QAE?AU?$pair@V?$_Tree_iterator@V?$_Tree_val@V?$_Tmap_traits@HUBonusCashInfo@ioBonusCashManager@@U?$less@H@std@@V?$allocator@U?$pair@$$CBHUBonusCashInfo@ioBonusCashManager@@@std@@@4@$0A@@std@@@std@@@std@@_N@2@PAU_Node@?$_Tree_nod@V?$_Tmap_traits@HUBonusCashInfo@ioBonusCashManager@@U?$less@H@std@@V?$allocator@U?$pair@$$CBHUBonusCashInfo@ioBonusCashManager@@@std@@@4@$0A@@std@@@2@_N@Z ; std::_Tree<std::_Tmap_traits<int,ioBonusCashManager::BonusCashInfo,std::less<int>,std::allocator<std::pair<int const ,ioBonusCashManager::BonusCashInfo> >,0> >::_Linsert

; 108  : 		m_AliveBonusCashInfoList.erase( iter );

  00091	53		 push	 ebx
  00092	8d 45 08	 lea	 eax, DWORD PTR $T511481[ebp]
  00095	50		 push	 eax
  00096	8d 4e 04	 lea	 ecx, DWORD PTR [esi+4]
  00099	e8 00 00 00 00	 call	 ?erase@?$_Tree@V?$_Tmap_traits@HUBonusCashInfo@ioBonusCashManager@@U?$less@H@std@@V?$allocator@U?$pair@$$CBHUBonusCashInfo@ioBonusCashManager@@@std@@@4@$0A@@std@@@std@@QAE?AV?$_Tree_iterator@V?$_Tree_val@V?$_Tmap_traits@HUBonusCashInfo@ioBonusCashManager@@U?$less@H@std@@V?$allocator@U?$pair@$$CBHUBonusCashInfo@ioBonusCashManager@@@std@@@4@$0A@@std@@@std@@@2@V?$_Tree_const_iterator@V?$_Tree_val@V?$_Tmap_traits@HUBonusCashInfo@ioBonusCashManager@@U?$less@H@std@@V?$allocator@U?$pair@$$CBHUBonusCashInfo@ioBonusCashManager@@@std@@@4@$0A@@std@@@std@@@2@@Z ; std::_Tree<std::_Tmap_traits<int,ioBonusCashManager::BonusCashInfo,std::less<int>,std::allocator<std::pair<int const ,ioBonusCashManager::BonusCashInfo> >,0> >::erase
  0009e	8b fe		 mov	 edi, esi
$LN1@ApplyBonus@2:

; 109  : 	}
; 110  : 
; 111  : 	//int iBonusCash = g_MyInfo.GetBonusCash() - iter->second.iRemainingCash;
; 112  : 	//g_MyInfo.SetBonusCash( iBonusCash );
; 113  : 		
; 114  : 	int iBonusCash = CalcTotalAliveBonusCash();

  000a0	8b cf		 mov	 ecx, edi
  000a2	e8 00 00 00 00	 call	 ?CalcTotalAliveBonusCash@ioBonusCashManager@@IAEHXZ ; ioBonusCashManager::CalcTotalAliveBonusCash

; 115  : 	g_MyInfo.SetBonusCash( iBonusCash );

  000a7	50		 push	 eax
  000a8	e8 00 00 00 00	 call	 ?GetSingleton@ioMyInfo@@SAAAV1@XZ ; ioMyInfo::GetSingleton
  000ad	8b c8		 mov	 ecx, eax
  000af	e8 00 00 00 00	 call	 ?SetBonusCash@ioMyInfo@@QAEXH@Z ; ioMyInfo::SetBonusCash
  000b4	5e		 pop	 esi
$LN3@ApplyBonus@2:
  000b5	5f		 pop	 edi
  000b6	5b		 pop	 ebx

; 116  : }

  000b7	c9		 leave
  000b8	c2 04 00	 ret	 4
?ApplyBonusCashUpdate@ioBonusCashManager@@QAEXAAVSP2Packet@@@Z ENDP ; ioBonusCashManager::ApplyBonusCashUpdate
_TEXT	ENDS
PUBLIC	??_C@_0CM@GKFBPCIP@ioBonusCashManager?3?3ApplyBonusCa@ ; `string'
PUBLIC	?ApplyBonusCashAliveInfo@ioBonusCashManager@@QAEXAAVSP2Packet@@@Z ; ioBonusCashManager::ApplyBonusCashAliveInfo
;	COMDAT ??_C@_0CM@GKFBPCIP@ioBonusCashManager?3?3ApplyBonusCa@
; File c:\program files (x86)\microsoft visual studio 10.0\vc\include\utility
CONST	SEGMENT
??_C@_0CM@GKFBPCIP@ioBonusCashManager?3?3ApplyBonusCa@ DB 'ioBonusCashMan'
	DB	'ager::ApplyBonusCashAliveInfo', 00H		; `string'
; Function compile flags: /Ogsp
; File d:\lost saga for developer\youtube\tutorial\source\src\lsclient\iobonuscashmanager.cpp
CONST	ENDS
;	COMDAT ?ApplyBonusCashAliveInfo@ioBonusCashManager@@QAEXAAVSP2Packet@@@Z
_TEXT	SEGMENT
$T511664 = -76						; size = 20
_kInfo$506250 = -56					; size = 16
$T511665 = -40						; size = 8
_iTime$506251 = -32					; size = 8
_iter$506245 = -24					; size = 4
_this$ = -20						; size = 4
_iSize$ = -16						; size = 4
_iBonusCash$ = -12					; size = 4
_iIndex$ = -8						; size = 4
_i$506241 = -4						; size = 4
_rkPacket$ = 8						; size = 4
?ApplyBonusCashAliveInfo@ioBonusCashManager@@QAEXAAVSP2Packet@@@Z PROC ; ioBonusCashManager::ApplyBonusCashAliveInfo, COMDAT
; _this$ = ecx

; 132  : {

  00000	55		 push	 ebp
  00001	8b ec		 mov	 ebp, esp
  00003	83 ec 4c	 sub	 esp, 76			; 0000004cH
  00006	53		 push	 ebx
  00007	56		 push	 esi
  00008	8b f1		 mov	 esi, ecx

; 133  : 	m_AliveBonusCashInfoList.clear();

  0000a	8d 5e 04	 lea	 ebx, DWORD PTR [esi+4]
  0000d	57		 push	 edi
  0000e	8b cb		 mov	 ecx, ebx
  00010	89 75 ec	 mov	 DWORD PTR _this$[ebp], esi
  00013	e8 00 00 00 00	 call	 ?clear@?$_Tree@V?$_Tmap_traits@HUBonusCashInfo@ioBonusCashManager@@U?$less@H@std@@V?$allocator@U?$pair@$$CBHUBonusCashInfo@ioBonusCashManager@@@std@@@4@$0A@@std@@@std@@QAEXXZ ; std::_Tree<std::_Tmap_traits<int,ioBonusCashManager::BonusCashInfo,std::less<int>,std::allocator<std::pair<int const ,ioBonusCashManager::BonusCashInfo> >,0> >::clear

; 134  : 	int iIndex, iSize;
; 135  : 	rkPacket >> iSize;

  00018	8b 4d 08	 mov	 ecx, DWORD PTR _rkPacket$[ebp]
  0001b	8d 45 f0	 lea	 eax, DWORD PTR _iSize$[ebp]
  0001e	50		 push	 eax
  0001f	e8 00 00 00 00	 call	 ??5SP2Packet@@QAEAAV0@AAH@Z ; SP2Packet::operator>>

; 136  : 	int iBonusCash = 0;

  00024	33 ff		 xor	 edi, edi
  00026	89 7d f4	 mov	 DWORD PTR _iBonusCash$[ebp], edi

; 137  : 	for ( int i=0; i<iSize ; ++i )

  00029	89 7d fc	 mov	 DWORD PTR _i$506241[ebp], edi
  0002c	39 7d f0	 cmp	 DWORD PTR _iSize$[ebp], edi
  0002f	7f 1b		 jg	 SHORT $LN4@ApplyBonus@3
$LN2@ApplyBonus@3:

; 155  : 	}
; 156  : 	g_MyInfo.SetBonusCash( iBonusCash );

  00031	ff 75 f4	 push	 DWORD PTR _iBonusCash$[ebp]
  00034	e8 00 00 00 00	 call	 ?GetSingleton@ioMyInfo@@SAAAV1@XZ ; ioMyInfo::GetSingleton
  00039	8b c8		 mov	 ecx, eax
  0003b	e8 00 00 00 00	 call	 ?SetBonusCash@ioMyInfo@@QAEXH@Z ; ioMyInfo::SetBonusCash
$LN5@ApplyBonus@3:
  00040	5f		 pop	 edi
  00041	5e		 pop	 esi
  00042	5b		 pop	 ebx

; 157  : }

  00043	c9		 leave
  00044	c2 04 00	 ret	 4
$LL48@ApplyBonus@3:

; 137  : 	for ( int i=0; i<iSize ; ++i )

  00047	8b 75 ec	 mov	 esi, DWORD PTR _this$[ebp]
  0004a	33 ff		 xor	 edi, edi
$LN4@ApplyBonus@3:

; 138  : 	{
; 139  : 		rkPacket>>iIndex;

  0004c	8b 4d 08	 mov	 ecx, DWORD PTR _rkPacket$[ebp]
  0004f	8d 45 f8	 lea	 eax, DWORD PTR _iIndex$[ebp]
  00052	50		 push	 eax
  00053	e8 00 00 00 00	 call	 ??5SP2Packet@@QAEAAV0@AAH@Z ; SP2Packet::operator>>

; 140  : 		BonusCashInfoList::iterator iter = m_AliveBonusCashInfoList.find( iIndex );

  00058	8d 45 f8	 lea	 eax, DWORD PTR _iIndex$[ebp]
  0005b	50		 push	 eax
  0005c	8d 45 e8	 lea	 eax, DWORD PTR _iter$506245[ebp]
  0005f	50		 push	 eax
  00060	8b cb		 mov	 ecx, ebx
  00062	e8 00 00 00 00	 call	 ?find@?$_Tree@V?$_Tmap_traits@HUBonusCashInfo@ioBonusCashManager@@U?$less@H@std@@V?$allocator@U?$pair@$$CBHUBonusCashInfo@ioBonusCashManager@@@std@@@4@$0A@@std@@@std@@QAE?AV?$_Tree_iterator@V?$_Tree_val@V?$_Tmap_traits@HUBonusCashInfo@ioBonusCashManager@@U?$less@H@std@@V?$allocator@U?$pair@$$CBHUBonusCashInfo@ioBonusCashManager@@@std@@@4@$0A@@std@@@std@@@2@ABH@Z ; std::_Tree<std::_Tmap_traits<int,ioBonusCashManager::BonusCashInfo,std::less<int>,std::allocator<std::pair<int const ,ioBonusCashManager::BonusCashInfo> >,0> >::find

; 141  : 		if ( iter != m_AliveBonusCashInfoList.end() )

  00067	8b 45 e8	 mov	 eax, DWORD PTR _iter$506245[ebp]
  0006a	3b 46 08	 cmp	 eax, DWORD PTR [esi+8]
  0006d	0f 85 82 00 00
	00		 jne	 $LN46@ApplyBonus@3

; 145  : 		}
; 146  : 
; 147  : 		BonusCashInfo kInfo;
; 148  : 		__int64 iTime;
; 149  : 		rkPacket>>kInfo.iAcquisitionCash;

  00073	8b 4d 08	 mov	 ecx, DWORD PTR _rkPacket$[ebp]
  00076	8d 45 d0	 lea	 eax, DWORD PTR _kInfo$506250[ebp+8]
  00079	66 0f 57 c0	 xorpd	 xmm0, xmm0
  0007d	50		 push	 eax
  0007e	66 0f 13 45 c8	 movlpd	 QWORD PTR _kInfo$506250[ebp], xmm0
  00083	89 7d d0	 mov	 DWORD PTR _kInfo$506250[ebp+8], edi
  00086	89 7d d4	 mov	 DWORD PTR _kInfo$506250[ebp+12], edi
  00089	e8 00 00 00 00	 call	 ??5SP2Packet@@QAEAAV0@AAH@Z ; SP2Packet::operator>>

; 150  : 		rkPacket>>kInfo.iRemainingCash;

  0008e	8b 4d 08	 mov	 ecx, DWORD PTR _rkPacket$[ebp]
  00091	8d 45 d4	 lea	 eax, DWORD PTR _kInfo$506250[ebp+12]
  00094	50		 push	 eax
  00095	e8 00 00 00 00	 call	 ??5SP2Packet@@QAEAAV0@AAH@Z ; SP2Packet::operator>>

; 151  : 		rkPacket>>iTime;

  0009a	8b 4d 08	 mov	 ecx, DWORD PTR _rkPacket$[ebp]
  0009d	8d 45 e0	 lea	 eax, DWORD PTR _iTime$506251[ebp]
  000a0	50		 push	 eax
  000a1	e8 00 00 00 00	 call	 ??5SP2Packet@@QAEAAV0@AA_J@Z ; SP2Packet::operator>>

; 152  : 		kInfo.ExpiredTime = CTime( iTime );

  000a6	8b 45 e0	 mov	 eax, DWORD PTR _iTime$506251[ebp]
  000a9	89 45 c8	 mov	 DWORD PTR _kInfo$506250[ebp], eax
  000ac	8b 45 e4	 mov	 eax, DWORD PTR _iTime$506251[ebp+4]
  000af	89 45 cc	 mov	 DWORD PTR _kInfo$506250[ebp+4], eax

; 153  : 		m_AliveBonusCashInfoList.insert( BonusCashInfoList::value_type( iIndex, kInfo ) );

  000b2	8b 45 f8	 mov	 eax, DWORD PTR _iIndex$[ebp]
  000b5	89 45 b4	 mov	 DWORD PTR $T511664[ebp], eax
  000b8	8d 75 c8	 lea	 esi, DWORD PTR _kInfo$506250[ebp]
  000bb	8d 7d b8	 lea	 edi, DWORD PTR $T511664[ebp+4]
  000be	a5		 movsd
  000bf	a5		 movsd
  000c0	a5		 movsd
  000c1	6a 00		 push	 0
  000c3	8d 45 b4	 lea	 eax, DWORD PTR $T511664[ebp]
  000c6	50		 push	 eax
  000c7	8b cb		 mov	 ecx, ebx
  000c9	a5		 movsd
  000ca	e8 00 00 00 00	 call	 ??$_Buynode@U?$pair@$$CBHUBonusCashInfo@ioBonusCashManager@@@std@@@?$_Tree_val@V?$_Tmap_traits@HUBonusCashInfo@ioBonusCashManager@@U?$less@H@std@@V?$allocator@U?$pair@$$CBHUBonusCashInfo@ioBonusCashManager@@@std@@@4@$0A@@std@@@std@@QAEPAU_Node@?$_Tree_nod@V?$_Tmap_traits@HUBonusCashInfo@ioBonusCashManager@@U?$less@H@std@@V?$allocator@U?$pair@$$CBHUBonusCashInfo@ioBonusCashManager@@@std@@@4@$0A@@std@@@1@$$QAU?$pair@$$CBHUBonusCashInfo@ioBonusCashManager@@@1@@Z ; std::_Tree_val<std::_Tmap_traits<int,ioBonusCashManager::BonusCashInfo,std::less<int>,std::allocator<std::pair<int const ,ioBonusCashManager::BonusCashInfo> >,0> >::_Buynode<std::pair<int const ,ioBonusCashManager::BonusCashInfo> >
  000cf	50		 push	 eax
  000d0	8d 45 d8	 lea	 eax, DWORD PTR $T511665[ebp]
  000d3	50		 push	 eax
  000d4	8b cb		 mov	 ecx, ebx
  000d6	e8 00 00 00 00	 call	 ?_Linsert@?$_Tree@V?$_Tmap_traits@HUBonusCashInfo@ioBonusCashManager@@U?$less@H@std@@V?$allocator@U?$pair@$$CBHUBonusCashInfo@ioBonusCashManager@@@std@@@4@$0A@@std@@@std@@QAE?AU?$pair@V?$_Tree_iterator@V?$_Tree_val@V?$_Tmap_traits@HUBonusCashInfo@ioBonusCashManager@@U?$less@H@std@@V?$allocator@U?$pair@$$CBHUBonusCashInfo@ioBonusCashManager@@@std@@@4@$0A@@std@@@std@@@std@@_N@2@PAU_Node@?$_Tree_nod@V?$_Tmap_traits@HUBonusCashInfo@ioBonusCashManager@@U?$less@H@std@@V?$allocator@U?$pair@$$CBHUBonusCashInfo@ioBonusCashManager@@@std@@@4@$0A@@std@@@2@_N@Z ; std::_Tree<std::_Tmap_traits<int,ioBonusCashManager::BonusCashInfo,std::less<int>,std::allocator<std::pair<int const ,ioBonusCashManager::BonusCashInfo> >,0> >::_Linsert

; 154  : 		iBonusCash+=kInfo.iRemainingCash;

  000db	8b 45 d4	 mov	 eax, DWORD PTR _kInfo$506250[ebp+12]
  000de	01 45 f4	 add	 DWORD PTR _iBonusCash$[ebp], eax
  000e1	ff 45 fc	 inc	 DWORD PTR _i$506241[ebp]
  000e4	8b 45 fc	 mov	 eax, DWORD PTR _i$506241[ebp]
  000e7	3b 45 f0	 cmp	 eax, DWORD PTR _iSize$[ebp]
  000ea	0f 8c 57 ff ff
	ff		 jl	 $LL48@ApplyBonus@3

; 141  : 		if ( iter != m_AliveBonusCashInfoList.end() )

  000f0	e9 3c ff ff ff	 jmp	 $LN2@ApplyBonus@3
$LN46@ApplyBonus@3:

; 142  : 		{
; 143  : 			LOG.PrintTimeAndLog( 0, "%s - alreay exist Bonus Cash Index  - %d", __FUNCTION__, iIndex );

  000f5	ff 75 f8	 push	 DWORD PTR _iIndex$[ebp]
  000f8	68 00 00 00 00	 push	 OFFSET ??_C@_0CM@GKFBPCIP@ioBonusCashManager?3?3ApplyBonusCa@
  000fd	68 00 00 00 00	 push	 OFFSET ??_C@_0CJ@PKOOMBPO@?$CFs?5?9?5alreay?5exist?5Bonus?5Cash?5Ind@
  00102	57		 push	 edi
  00103	ff 35 00 00 00
	00		 push	 DWORD PTR __imp_?LOG@@3VCLog@@A
  00109	ff 15 00 00 00
	00		 call	 DWORD PTR __imp_?PrintTimeAndLog@CLog@@QAAXHPADZZ
  0010f	83 c4 14	 add	 esp, 20			; 00000014H

; 144  : 			return;

  00112	e9 29 ff ff ff	 jmp	 $LN5@ApplyBonus@3
?ApplyBonusCashAliveInfo@ioBonusCashManager@@QAEXAAVSP2Packet@@@Z ENDP ; ioBonusCashManager::ApplyBonusCashAliveInfo
_TEXT	ENDS
PUBLIC	??_C@_0CN@MPPPLKOP@ioBonusCashManager?3?3ApplyBonusCa@ ; `string'
PUBLIC	?ApplyBonusCashExpireInfo@ioBonusCashManager@@QAEXAAVSP2Packet@@@Z ; ioBonusCashManager::ApplyBonusCashExpireInfo
;	COMDAT ??_C@_0CN@MPPPLKOP@ioBonusCashManager?3?3ApplyBonusCa@
; File c:\program files (x86)\microsoft visual studio 10.0\vc\include\utility
CONST	SEGMENT
??_C@_0CN@MPPPLKOP@ioBonusCashManager?3?3ApplyBonusCa@ DB 'ioBonusCashMan'
	DB	'ager::ApplyBonusCashExpireInfo', 00H	; `string'
; Function compile flags: /Ogsp
; File d:\lost saga for developer\youtube\tutorial\source\src\lsclient\iobonuscashmanager.cpp
CONST	ENDS
;	COMDAT ?ApplyBonusCashExpireInfo@ioBonusCashManager@@QAEXAAVSP2Packet@@@Z
_TEXT	SEGMENT
$T511777 = -72						; size = 20
_kInfo$506271 = -52					; size = 16
$T511778 = -36						; size = 8
_iTime$506272 = -28					; size = 8
_iter$506266 = -20					; size = 4
_this$ = -16						; size = 4
_iSize$ = -12						; size = 4
_iIndex$ = -8						; size = 4
_i$506262 = -4						; size = 4
_rkPacket$ = 8						; size = 4
?ApplyBonusCashExpireInfo@ioBonusCashManager@@QAEXAAVSP2Packet@@@Z PROC ; ioBonusCashManager::ApplyBonusCashExpireInfo, COMDAT
; _this$ = ecx

; 160  : {

  00000	55		 push	 ebp
  00001	8b ec		 mov	 ebp, esp
  00003	83 ec 48	 sub	 esp, 72			; 00000048H
  00006	53		 push	 ebx
  00007	56		 push	 esi
  00008	8b f1		 mov	 esi, ecx

; 161  : 	m_ExpireBonusCashInfoList.clear();

  0000a	8d 5e 14	 lea	 ebx, DWORD PTR [esi+20]
  0000d	57		 push	 edi
  0000e	8b cb		 mov	 ecx, ebx
  00010	89 75 f0	 mov	 DWORD PTR _this$[ebp], esi
  00013	e8 00 00 00 00	 call	 ?clear@?$_Tree@V?$_Tmap_traits@HUBonusCashInfo@ioBonusCashManager@@U?$less@H@std@@V?$allocator@U?$pair@$$CBHUBonusCashInfo@ioBonusCashManager@@@std@@@4@$0A@@std@@@std@@QAEXXZ ; std::_Tree<std::_Tmap_traits<int,ioBonusCashManager::BonusCashInfo,std::less<int>,std::allocator<std::pair<int const ,ioBonusCashManager::BonusCashInfo> >,0> >::clear

; 162  : 	int iIndex, iSize;
; 163  : 	rkPacket >> iSize;

  00018	8b 4d 08	 mov	 ecx, DWORD PTR _rkPacket$[ebp]
  0001b	8d 45 f4	 lea	 eax, DWORD PTR _iSize$[ebp]
  0001e	50		 push	 eax
  0001f	e8 00 00 00 00	 call	 ??5SP2Packet@@QAEAAV0@AAH@Z ; SP2Packet::operator>>

; 164  : 	int iBonusCash = 0;
; 165  : 	for ( int i=0; i<iSize ; ++i )

  00024	33 ff		 xor	 edi, edi
  00026	89 7d fc	 mov	 DWORD PTR _i$506262[ebp], edi
  00029	39 7d f4	 cmp	 DWORD PTR _iSize$[ebp], edi
  0002c	0f 8e c0 00 00
	00		 jle	 $LN2@ApplyBonus@4
  00032	eb 05		 jmp	 SHORT $LN4@ApplyBonus@4
$LL48@ApplyBonus@4:
  00034	8b 75 f0	 mov	 esi, DWORD PTR _this$[ebp]
  00037	33 ff		 xor	 edi, edi
$LN4@ApplyBonus@4:

; 166  : 	{
; 167  : 		rkPacket>>iIndex;

  00039	8b 4d 08	 mov	 ecx, DWORD PTR _rkPacket$[ebp]
  0003c	8d 45 f8	 lea	 eax, DWORD PTR _iIndex$[ebp]
  0003f	50		 push	 eax
  00040	e8 00 00 00 00	 call	 ??5SP2Packet@@QAEAAV0@AAH@Z ; SP2Packet::operator>>

; 168  : 		BonusCashInfoList::iterator iter = m_ExpireBonusCashInfoList.find( iIndex );

  00045	8d 45 f8	 lea	 eax, DWORD PTR _iIndex$[ebp]
  00048	50		 push	 eax
  00049	8d 45 ec	 lea	 eax, DWORD PTR _iter$506266[ebp]
  0004c	50		 push	 eax
  0004d	8b cb		 mov	 ecx, ebx
  0004f	e8 00 00 00 00	 call	 ?find@?$_Tree@V?$_Tmap_traits@HUBonusCashInfo@ioBonusCashManager@@U?$less@H@std@@V?$allocator@U?$pair@$$CBHUBonusCashInfo@ioBonusCashManager@@@std@@@4@$0A@@std@@@std@@QAE?AV?$_Tree_iterator@V?$_Tree_val@V?$_Tmap_traits@HUBonusCashInfo@ioBonusCashManager@@U?$less@H@std@@V?$allocator@U?$pair@$$CBHUBonusCashInfo@ioBonusCashManager@@@std@@@4@$0A@@std@@@std@@@2@ABH@Z ; std::_Tree<std::_Tmap_traits<int,ioBonusCashManager::BonusCashInfo,std::less<int>,std::allocator<std::pair<int const ,ioBonusCashManager::BonusCashInfo> >,0> >::find

; 169  : 		if ( iter != m_ExpireBonusCashInfoList.end() )

  00054	8b 45 ec	 mov	 eax, DWORD PTR _iter$506266[ebp]
  00057	3b 46 18	 cmp	 eax, DWORD PTR [esi+24]
  0005a	75 79		 jne	 SHORT $LN46@ApplyBonus@4

; 172  : 			return;
; 173  : 		}
; 174  : 
; 175  : 		BonusCashInfo kInfo;
; 176  : 		__int64 iTime;
; 177  : 		rkPacket>>kInfo.iAcquisitionCash;

  0005c	8b 4d 08	 mov	 ecx, DWORD PTR _rkPacket$[ebp]
  0005f	8d 45 d4	 lea	 eax, DWORD PTR _kInfo$506271[ebp+8]
  00062	66 0f 57 c0	 xorpd	 xmm0, xmm0
  00066	50		 push	 eax
  00067	66 0f 13 45 cc	 movlpd	 QWORD PTR _kInfo$506271[ebp], xmm0
  0006c	89 7d d4	 mov	 DWORD PTR _kInfo$506271[ebp+8], edi
  0006f	89 7d d8	 mov	 DWORD PTR _kInfo$506271[ebp+12], edi
  00072	e8 00 00 00 00	 call	 ??5SP2Packet@@QAEAAV0@AAH@Z ; SP2Packet::operator>>

; 178  : 		rkPacket>>kInfo.iRemainingCash;

  00077	8b 4d 08	 mov	 ecx, DWORD PTR _rkPacket$[ebp]
  0007a	8d 45 d8	 lea	 eax, DWORD PTR _kInfo$506271[ebp+12]
  0007d	50		 push	 eax
  0007e	e8 00 00 00 00	 call	 ??5SP2Packet@@QAEAAV0@AAH@Z ; SP2Packet::operator>>

; 179  : 		rkPacket>>iTime;

  00083	8b 4d 08	 mov	 ecx, DWORD PTR _rkPacket$[ebp]
  00086	8d 45 e4	 lea	 eax, DWORD PTR _iTime$506272[ebp]
  00089	50		 push	 eax
  0008a	e8 00 00 00 00	 call	 ??5SP2Packet@@QAEAAV0@AA_J@Z ; SP2Packet::operator>>

; 180  : 		kInfo.ExpiredTime = CTime( iTime );

  0008f	8b 45 e4	 mov	 eax, DWORD PTR _iTime$506272[ebp]
  00092	89 45 cc	 mov	 DWORD PTR _kInfo$506271[ebp], eax
  00095	8b 45 e8	 mov	 eax, DWORD PTR _iTime$506272[ebp+4]
  00098	89 45 d0	 mov	 DWORD PTR _kInfo$506271[ebp+4], eax

; 181  : 		m_ExpireBonusCashInfoList.insert( BonusCashInfoList::value_type( iIndex, kInfo ) );

  0009b	8b 45 f8	 mov	 eax, DWORD PTR _iIndex$[ebp]
  0009e	89 45 b8	 mov	 DWORD PTR $T511777[ebp], eax
  000a1	8d 75 cc	 lea	 esi, DWORD PTR _kInfo$506271[ebp]
  000a4	8d 7d bc	 lea	 edi, DWORD PTR $T511777[ebp+4]
  000a7	a5		 movsd
  000a8	a5		 movsd
  000a9	a5		 movsd
  000aa	6a 00		 push	 0
  000ac	8d 45 b8	 lea	 eax, DWORD PTR $T511777[ebp]
  000af	50		 push	 eax
  000b0	8b cb		 mov	 ecx, ebx
  000b2	a5		 movsd
  000b3	e8 00 00 00 00	 call	 ??$_Buynode@U?$pair@$$CBHUBonusCashInfo@ioBonusCashManager@@@std@@@?$_Tree_val@V?$_Tmap_traits@HUBonusCashInfo@ioBonusCashManager@@U?$less@H@std@@V?$allocator@U?$pair@$$CBHUBonusCashInfo@ioBonusCashManager@@@std@@@4@$0A@@std@@@std@@QAEPAU_Node@?$_Tree_nod@V?$_Tmap_traits@HUBonusCashInfo@ioBonusCashManager@@U?$less@H@std@@V?$allocator@U?$pair@$$CBHUBonusCashInfo@ioBonusCashManager@@@std@@@4@$0A@@std@@@1@$$QAU?$pair@$$CBHUBonusCashInfo@ioBonusCashManager@@@1@@Z ; std::_Tree_val<std::_Tmap_traits<int,ioBonusCashManager::BonusCashInfo,std::less<int>,std::allocator<std::pair<int const ,ioBonusCashManager::BonusCashInfo> >,0> >::_Buynode<std::pair<int const ,ioBonusCashManager::BonusCashInfo> >
  000b8	50		 push	 eax
  000b9	8d 45 dc	 lea	 eax, DWORD PTR $T511778[ebp]
  000bc	50		 push	 eax
  000bd	8b cb		 mov	 ecx, ebx
  000bf	e8 00 00 00 00	 call	 ?_Linsert@?$_Tree@V?$_Tmap_traits@HUBonusCashInfo@ioBonusCashManager@@U?$less@H@std@@V?$allocator@U?$pair@$$CBHUBonusCashInfo@ioBonusCashManager@@@std@@@4@$0A@@std@@@std@@QAE?AU?$pair@V?$_Tree_iterator@V?$_Tree_val@V?$_Tmap_traits@HUBonusCashInfo@ioBonusCashManager@@U?$less@H@std@@V?$allocator@U?$pair@$$CBHUBonusCashInfo@ioBonusCashManager@@@std@@@4@$0A@@std@@@std@@@std@@_N@2@PAU_Node@?$_Tree_nod@V?$_Tmap_traits@HUBonusCashInfo@ioBonusCashManager@@U?$less@H@std@@V?$allocator@U?$pair@$$CBHUBonusCashInfo@ioBonusCashManager@@@std@@@4@$0A@@std@@@2@_N@Z ; std::_Tree<std::_Tmap_traits<int,ioBonusCashManager::BonusCashInfo,std::less<int>,std::allocator<std::pair<int const ,ioBonusCashManager::BonusCashInfo> >,0> >::_Linsert
  000c4	ff 45 fc	 inc	 DWORD PTR _i$506262[ebp]
  000c7	8b 45 fc	 mov	 eax, DWORD PTR _i$506262[ebp]
  000ca	3b 45 f4	 cmp	 eax, DWORD PTR _iSize$[ebp]
  000cd	0f 8c 61 ff ff
	ff		 jl	 $LL48@ApplyBonus@4

; 169  : 		if ( iter != m_ExpireBonusCashInfoList.end() )

  000d3	eb 1d		 jmp	 SHORT $LN2@ApplyBonus@4
$LN46@ApplyBonus@4:

; 170  : 		{
; 171  : 			LOG.PrintTimeAndLog( 0, "%s - alreay exist Bonus Cash Index  - %d", __FUNCTION__, iIndex );

  000d5	ff 75 f8	 push	 DWORD PTR _iIndex$[ebp]
  000d8	68 00 00 00 00	 push	 OFFSET ??_C@_0CN@MPPPLKOP@ioBonusCashManager?3?3ApplyBonusCa@
  000dd	68 00 00 00 00	 push	 OFFSET ??_C@_0CJ@PKOOMBPO@?$CFs?5?9?5alreay?5exist?5Bonus?5Cash?5Ind@
  000e2	57		 push	 edi
  000e3	ff 35 00 00 00
	00		 push	 DWORD PTR __imp_?LOG@@3VCLog@@A
  000e9	ff 15 00 00 00
	00		 call	 DWORD PTR __imp_?PrintTimeAndLog@CLog@@QAAXHPADZZ
  000ef	83 c4 14	 add	 esp, 20			; 00000014H
$LN2@ApplyBonus@4:
  000f2	5f		 pop	 edi
  000f3	5e		 pop	 esi
  000f4	5b		 pop	 ebx

; 182  : 	}
; 183  : }

  000f5	c9		 leave
  000f6	c2 04 00	 ret	 4
?ApplyBonusCashExpireInfo@ioBonusCashManager@@QAEXAAVSP2Packet@@@Z ENDP ; ioBonusCashManager::ApplyBonusCashExpireInfo
_TEXT	ENDS
PUBLIC	??_C@_0CK@KPPABAEG@ioBonusCashManager?3?3ApplyBonusCa@ ; `string'
PUBLIC	?ApplyBonusCashExpired@ioBonusCashManager@@QAEXAAVSP2Packet@@@Z ; ioBonusCashManager::ApplyBonusCashExpired
;	COMDAT ??_C@_0CK@KPPABAEG@ioBonusCashManager?3?3ApplyBonusCa@
; File c:\program files (x86)\microsoft visual studio 10.0\vc\include\utility
CONST	SEGMENT
??_C@_0CK@KPPABAEG@ioBonusCashManager?3?3ApplyBonusCa@ DB 'ioBonusCashMan'
	DB	'ager::ApplyBonusCashExpired', 00H		; `string'
; Function compile flags: /Ogsp
; File d:\lost saga for developer\youtube\tutorial\source\src\lsclient\iobonuscashmanager.cpp
CONST	ENDS
;	COMDAT ?ApplyBonusCashExpired@ioBonusCashManager@@QAEXAAVSP2Packet@@@Z
_TEXT	SEGMENT
$T511889 = -52						; size = 20
$T511890 = -32						; size = 8
$T511892 = -24						; size = 4
_iter$506286 = -20					; size = 4
_iIndex$ = -16						; size = 4
_iSize$ = -12						; size = 4
_this$ = -8						; size = 4
_i$506282 = -4						; size = 4
_rkPacket$ = 8						; size = 4
?ApplyBonusCashExpired@ioBonusCashManager@@QAEXAAVSP2Packet@@@Z PROC ; ioBonusCashManager::ApplyBonusCashExpired, COMDAT
; _this$ = ecx

; 186  : {

  00000	55		 push	 ebp
  00001	8b ec		 mov	 ebp, esp
  00003	83 ec 34	 sub	 esp, 52			; 00000034H
  00006	53		 push	 ebx
  00007	56		 push	 esi
  00008	57		 push	 edi

; 187  : 	int iSize, iIndex;
; 188  : 	rkPacket >> iSize;

  00009	8d 45 f4	 lea	 eax, DWORD PTR _iSize$[ebp]
  0000c	89 4d f8	 mov	 DWORD PTR _this$[ebp], ecx
  0000f	8b 4d 08	 mov	 ecx, DWORD PTR _rkPacket$[ebp]
  00012	50		 push	 eax
  00013	e8 00 00 00 00	 call	 ??5SP2Packet@@QAEAAV0@AAH@Z ; SP2Packet::operator>>

; 189  : 	//int iBonusCash = g_MyInfo.GetBonusCash();
; 190  : 	for ( int i=0; i<iSize ; ++i )

  00018	83 65 fc 00	 and	 DWORD PTR _i$506282[ebp], 0
  0001c	83 7d f4 00	 cmp	 DWORD PTR _iSize$[ebp], 0
  00020	7e 6d		 jle	 SHORT $LN2@ApplyBonus@5
$LL54@ApplyBonus@5:

; 191  : 	{
; 192  : 		rkPacket>>iIndex;

  00022	8b 4d 08	 mov	 ecx, DWORD PTR _rkPacket$[ebp]
  00025	8d 45 f0	 lea	 eax, DWORD PTR _iIndex$[ebp]
  00028	50		 push	 eax
  00029	e8 00 00 00 00	 call	 ??5SP2Packet@@QAEAAV0@AAH@Z ; SP2Packet::operator>>

; 193  : 		BonusCashInfoList::iterator iter = m_AliveBonusCashInfoList.find( iIndex );

  0002e	8b 75 f8	 mov	 esi, DWORD PTR _this$[ebp]
  00031	8d 45 f0	 lea	 eax, DWORD PTR _iIndex$[ebp]
  00034	50		 push	 eax
  00035	8d 45 ec	 lea	 eax, DWORD PTR _iter$506286[ebp]
  00038	50		 push	 eax
  00039	8d 4e 04	 lea	 ecx, DWORD PTR [esi+4]
  0003c	e8 00 00 00 00	 call	 ?find@?$_Tree@V?$_Tmap_traits@HUBonusCashInfo@ioBonusCashManager@@U?$less@H@std@@V?$allocator@U?$pair@$$CBHUBonusCashInfo@ioBonusCashManager@@@std@@@4@$0A@@std@@@std@@QAE?AV?$_Tree_iterator@V?$_Tree_val@V?$_Tmap_traits@HUBonusCashInfo@ioBonusCashManager@@U?$less@H@std@@V?$allocator@U?$pair@$$CBHUBonusCashInfo@ioBonusCashManager@@@std@@@4@$0A@@std@@@std@@@2@ABH@Z ; std::_Tree<std::_Tmap_traits<int,ioBonusCashManager::BonusCashInfo,std::less<int>,std::allocator<std::pair<int const ,ioBonusCashManager::BonusCashInfo> >,0> >::find

; 194  : 		if ( iter == m_AliveBonusCashInfoList.end() )

  00041	8b 5d ec	 mov	 ebx, DWORD PTR _iter$506286[ebp]
  00044	3b 5e 08	 cmp	 ebx, DWORD PTR [esi+8]
  00047	74 62		 je	 SHORT $LN52@ApplyBonus@5

; 198  : 		}
; 199  : 		//iBonusCash -= iter->second.iRemainingCash;
; 200  : 		m_ExpireBonusCashInfoList.insert( BonusCashInfoList::value_type( iter->first, iter->second ) );

  00049	8b 43 0c	 mov	 eax, DWORD PTR [ebx+12]
  0004c	89 45 cc	 mov	 DWORD PTR $T511889[ebp], eax
  0004f	8d 73 10	 lea	 esi, DWORD PTR [ebx+16]
  00052	8d 7d d0	 lea	 edi, DWORD PTR $T511889[ebp+4]
  00055	a5		 movsd
  00056	a5		 movsd
  00057	a5		 movsd
  00058	a5		 movsd
  00059	8b 7d f8	 mov	 edi, DWORD PTR _this$[ebp]
  0005c	6a 00		 push	 0
  0005e	8d 45 cc	 lea	 eax, DWORD PTR $T511889[ebp]
  00061	50		 push	 eax
  00062	8d 4f 14	 lea	 ecx, DWORD PTR [edi+20]
  00065	e8 00 00 00 00	 call	 ??$_Buynode@U?$pair@$$CBHUBonusCashInfo@ioBonusCashManager@@@std@@@?$_Tree_val@V?$_Tmap_traits@HUBonusCashInfo@ioBonusCashManager@@U?$less@H@std@@V?$allocator@U?$pair@$$CBHUBonusCashInfo@ioBonusCashManager@@@std@@@4@$0A@@std@@@std@@QAEPAU_Node@?$_Tree_nod@V?$_Tmap_traits@HUBonusCashInfo@ioBonusCashManager@@U?$less@H@std@@V?$allocator@U?$pair@$$CBHUBonusCashInfo@ioBonusCashManager@@@std@@@4@$0A@@std@@@1@$$QAU?$pair@$$CBHUBonusCashInfo@ioBonusCashManager@@@1@@Z ; std::_Tree_val<std::_Tmap_traits<int,ioBonusCashManager::BonusCashInfo,std::less<int>,std::allocator<std::pair<int const ,ioBonusCashManager::BonusCashInfo> >,0> >::_Buynode<std::pair<int const ,ioBonusCashManager::BonusCashInfo> >
  0006a	50		 push	 eax
  0006b	8d 45 e0	 lea	 eax, DWORD PTR $T511890[ebp]
  0006e	50		 push	 eax
  0006f	8d 4f 14	 lea	 ecx, DWORD PTR [edi+20]
  00072	e8 00 00 00 00	 call	 ?_Linsert@?$_Tree@V?$_Tmap_traits@HUBonusCashInfo@ioBonusCashManager@@U?$less@H@std@@V?$allocator@U?$pair@$$CBHUBonusCashInfo@ioBonusCashManager@@@std@@@4@$0A@@std@@@std@@QAE?AU?$pair@V?$_Tree_iterator@V?$_Tree_val@V?$_Tmap_traits@HUBonusCashInfo@ioBonusCashManager@@U?$less@H@std@@V?$allocator@U?$pair@$$CBHUBonusCashInfo@ioBonusCashManager@@@std@@@4@$0A@@std@@@std@@@std@@_N@2@PAU_Node@?$_Tree_nod@V?$_Tmap_traits@HUBonusCashInfo@ioBonusCashManager@@U?$less@H@std@@V?$allocator@U?$pair@$$CBHUBonusCashInfo@ioBonusCashManager@@@std@@@4@$0A@@std@@@2@_N@Z ; std::_Tree<std::_Tmap_traits<int,ioBonusCashManager::BonusCashInfo,std::less<int>,std::allocator<std::pair<int const ,ioBonusCashManager::BonusCashInfo> >,0> >::_Linsert

; 201  : 		m_AliveBonusCashInfoList.erase( iter );

  00077	53		 push	 ebx
  00078	8d 45 e8	 lea	 eax, DWORD PTR $T511892[ebp]
  0007b	50		 push	 eax
  0007c	8d 4f 04	 lea	 ecx, DWORD PTR [edi+4]
  0007f	e8 00 00 00 00	 call	 ?erase@?$_Tree@V?$_Tmap_traits@HUBonusCashInfo@ioBonusCashManager@@U?$less@H@std@@V?$allocator@U?$pair@$$CBHUBonusCashInfo@ioBonusCashManager@@@std@@@4@$0A@@std@@@std@@QAE?AV?$_Tree_iterator@V?$_Tree_val@V?$_Tmap_traits@HUBonusCashInfo@ioBonusCashManager@@U?$less@H@std@@V?$allocator@U?$pair@$$CBHUBonusCashInfo@ioBonusCashManager@@@std@@@4@$0A@@std@@@std@@@2@V?$_Tree_const_iterator@V?$_Tree_val@V?$_Tmap_traits@HUBonusCashInfo@ioBonusCashManager@@U?$less@H@std@@V?$allocator@U?$pair@$$CBHUBonusCashInfo@ioBonusCashManager@@@std@@@4@$0A@@std@@@std@@@2@@Z ; std::_Tree<std::_Tmap_traits<int,ioBonusCashManager::BonusCashInfo,std::less<int>,std::allocator<std::pair<int const ,ioBonusCashManager::BonusCashInfo> >,0> >::erase
  00084	ff 45 fc	 inc	 DWORD PTR _i$506282[ebp]
  00087	8b 45 fc	 mov	 eax, DWORD PTR _i$506282[ebp]
  0008a	3b 45 f4	 cmp	 eax, DWORD PTR _iSize$[ebp]
  0008d	7c 93		 jl	 SHORT $LL54@ApplyBonus@5
$LN2@ApplyBonus@5:

; 202  : 	}
; 203  : 
; 204  : 	int iBonusCash = CalcTotalAliveBonusCash();

  0008f	8b 4d f8	 mov	 ecx, DWORD PTR _this$[ebp]
  00092	e8 00 00 00 00	 call	 ?CalcTotalAliveBonusCash@ioBonusCashManager@@IAEHXZ ; ioBonusCashManager::CalcTotalAliveBonusCash

; 205  : 	g_MyInfo.SetBonusCash( iBonusCash );

  00097	50		 push	 eax
  00098	e8 00 00 00 00	 call	 ?GetSingleton@ioMyInfo@@SAAAV1@XZ ; ioMyInfo::GetSingleton
  0009d	8b c8		 mov	 ecx, eax
  0009f	e8 00 00 00 00	 call	 ?SetBonusCash@ioMyInfo@@QAEXH@Z ; ioMyInfo::SetBonusCash
$LN5@ApplyBonus@5:
  000a4	5f		 pop	 edi
  000a5	5e		 pop	 esi
  000a6	5b		 pop	 ebx

; 206  : }

  000a7	c9		 leave
  000a8	c2 04 00	 ret	 4
$LN52@ApplyBonus@5:

; 195  : 		{
; 196  : 			LOG.PrintTimeAndLog( 0, "%s - not exist Bonus Cash Index  - %d", __FUNCTION__, iIndex );

  000ab	ff 75 f0	 push	 DWORD PTR _iIndex$[ebp]
  000ae	68 00 00 00 00	 push	 OFFSET ??_C@_0CK@KPPABAEG@ioBonusCashManager?3?3ApplyBonusCa@
  000b3	68 00 00 00 00	 push	 OFFSET ??_C@_0CG@NNINOECI@?$CFs?5?9?5not?5exist?5Bonus?5Cash?5Index?5@
  000b8	6a 00		 push	 0
  000ba	ff 35 00 00 00
	00		 push	 DWORD PTR __imp_?LOG@@3VCLog@@A
  000c0	ff 15 00 00 00
	00		 call	 DWORD PTR __imp_?PrintTimeAndLog@CLog@@QAAXHPADZZ
  000c6	83 c4 14	 add	 esp, 20			; 00000014H

; 197  : 			return;

  000c9	eb d9		 jmp	 SHORT $LN5@ApplyBonus@5
?ApplyBonusCashExpired@ioBonusCashManager@@QAEXAAVSP2Packet@@@Z ENDP ; ioBonusCashManager::ApplyBonusCashExpired
_TEXT	ENDS
PUBLIC	??0?$map@HUBonusCashInfo@ioBonusCashManager@@U?$less@H@std@@V?$allocator@U?$pair@$$CBHUBonusCashInfo@ioBonusCashManager@@@std@@@4@@std@@QAE@XZ ; std::map<int,ioBonusCashManager::BonusCashInfo,std::less<int>,std::allocator<std::pair<int const ,ioBonusCashManager::BonusCashInfo> > >::map<int,ioBonusCashManager::BonusCashInfo,std::less<int>,std::allocator<std::pair<int const ,ioBonusCashManager::BonusCashInfo> > >
; Function compile flags: /Ogsp
; File c:\program files (x86)\microsoft visual studio 10.0\vc\include\map
;	COMDAT ??0?$map@HUBonusCashInfo@ioBonusCashManager@@U?$less@H@std@@V?$allocator@U?$pair@$$CBHUBonusCashInfo@ioBonusCashManager@@@std@@@4@@std@@QAE@XZ
_TEXT	SEGMENT
$T512041 = -8						; size = 4
$T512043 = -8						; size = 4
$T512030 = -1						; size = 1
??0?$map@HUBonusCashInfo@ioBonusCashManager@@U?$less@H@std@@V?$allocator@U?$pair@$$CBHUBonusCashInfo@ioBonusCashManager@@@std@@@4@@std@@QAE@XZ PROC ; std::map<int,ioBonusCashManager::BonusCashInfo,std::less<int>,std::allocator<std::pair<int const ,ioBonusCashManager::BonusCashInfo> > >::map<int,ioBonusCashManager::BonusCashInfo,std::less<int>,std::allocator<std::pair<int const ,ioBonusCashManager::BonusCashInfo> > >, COMDAT
; _this$ = ecx

; 106  : 		{	// construct empty map from defaults

  00000	55		 push	 ebp
  00001	8b ec		 mov	 ebp, esp
  00003	51		 push	 ecx
  00004	51		 push	 ecx
  00005	56		 push	 esi
  00006	51		 push	 ecx
  00007	89 65 f8	 mov	 DWORD PTR $T512043[ebp], esp
  0000a	8d 45 ff	 lea	 eax, DWORD PTR $T512030[ebp]
  0000d	89 65 f8	 mov	 DWORD PTR $T512041[ebp], esp
  00010	50		 push	 eax
  00011	8b f1		 mov	 esi, ecx
  00013	e8 00 00 00 00	 call	 ??0?$_Tree_val@V?$_Tmap_traits@HUBonusCashInfo@ioBonusCashManager@@U?$less@H@std@@V?$allocator@U?$pair@$$CBHUBonusCashInfo@ioBonusCashManager@@@std@@@4@$0A@@std@@@std@@QAE@ABU?$less@H@1@V?$allocator@U?$pair@$$CBHUBonusCashInfo@ioBonusCashManager@@@std@@@1@@Z ; std::_Tree_val<std::_Tmap_traits<int,ioBonusCashManager::BonusCashInfo,std::less<int>,std::allocator<std::pair<int const ,ioBonusCashManager::BonusCashInfo> >,0> >::_Tree_val<std::_Tmap_traits<int,ioBonusCashManager::BonusCashInfo,std::less<int>,std::allocator<std::pair<int const ,ioBonusCashManager::BonusCashInfo> >,0> >

; 107  : 		}

  00018	8b c6		 mov	 eax, esi
  0001a	5e		 pop	 esi
  0001b	c9		 leave
  0001c	c3		 ret	 0
??0?$map@HUBonusCashInfo@ioBonusCashManager@@U?$less@H@std@@V?$allocator@U?$pair@$$CBHUBonusCashInfo@ioBonusCashManager@@@std@@@4@@std@@QAE@XZ ENDP ; std::map<int,ioBonusCashManager::BonusCashInfo,std::less<int>,std::allocator<std::pair<int const ,ioBonusCashManager::BonusCashInfo> > >::map<int,ioBonusCashManager::BonusCashInfo,std::less<int>,std::allocator<std::pair<int const ,ioBonusCashManager::BonusCashInfo> > >
_TEXT	ENDS
PUBLIC	??0ioBonusCashManager@@QAE@XZ			; ioBonusCashManager::ioBonusCashManager
;	COMDAT xdata$x
; File c:\program files (x86)\microsoft visual studio 10.0\vc\include\xmemory
xdata$x	SEGMENT
__unwindtable$??0ioBonusCashManager@@QAE@XZ DD 0ffffffffH
	DD	FLAT:__unwindfunclet$??0ioBonusCashManager@@QAE@XZ$0
	DD	00H
	DD	FLAT:__unwindfunclet$??0ioBonusCashManager@@QAE@XZ$1
__ehfuncinfo$??0ioBonusCashManager@@QAE@XZ DD 019930522H
	DD	02H
	DD	FLAT:__unwindtable$??0ioBonusCashManager@@QAE@XZ
	DD	2 DUP(00H)
	DD	2 DUP(00H)
	DD	00H
	DD	01H
; Function compile flags: /Ogsp
; File d:\lost saga for developer\youtube\tutorial\source\src\lsclient\iobonuscashmanager.cpp
xdata$x	ENDS
;	COMDAT ??0ioBonusCashManager@@QAE@XZ
_TEXT	SEGMENT
$T512105 = -24						; size = 4
$T512117 = -24						; size = 4
$T512074 = -24						; size = 4
$T512086 = -24						; size = 4
_this$ = -20						; size = 4
$T512113 = -13						; size = 1
$T512082 = -13						; size = 1
__$EHRec$ = -12						; size = 12
??0ioBonusCashManager@@QAE@XZ PROC			; ioBonusCashManager::ioBonusCashManager, COMDAT
; _this$ = ecx

; 7    : {

  00000	6a 0c		 push	 12			; 0000000cH
  00002	b8 00 00 00 00	 mov	 eax, __ehhandler$??0ioBonusCashManager@@QAE@XZ
  00007	e8 00 00 00 00	 call	 __EH_prolog3
  0000c	8b f1		 mov	 esi, ecx
  0000e	89 75 ec	 mov	 DWORD PTR _this$[ebp], esi
  00011	8d 4e 04	 lea	 ecx, DWORD PTR [esi+4]
  00014	8d 41 fc	 lea	 eax, DWORD PTR [ecx-4]
  00017	a3 00 00 00 00	 mov	 DWORD PTR ?ms_Singleton@?$Singleton@VioBonusCashManager@@@@1PAVioBonusCashManager@@A, eax ; Singleton<ioBonusCashManager>::ms_Singleton
  0001c	83 65 fc 00	 and	 DWORD PTR __$EHRec$[ebp+8], 0
  00020	51		 push	 ecx
  00021	89 65 e8	 mov	 DWORD PTR $T512086[ebp], esp
  00024	8d 45 f3	 lea	 eax, DWORD PTR $T512082[ebp]
  00027	89 65 e8	 mov	 DWORD PTR $T512074[ebp], esp
  0002a	50		 push	 eax
  0002b	c7 06 00 00 00
	00		 mov	 DWORD PTR [esi], OFFSET ??_7ioBonusCashManager@@6B@
  00031	e8 00 00 00 00	 call	 ??0?$_Tree_val@V?$_Tmap_traits@HUBonusCashInfo@ioBonusCashManager@@U?$less@H@std@@V?$allocator@U?$pair@$$CBHUBonusCashInfo@ioBonusCashManager@@@std@@@4@$0A@@std@@@std@@QAE@ABU?$less@H@1@V?$allocator@U?$pair@$$CBHUBonusCashInfo@ioBonusCashManager@@@std@@@1@@Z ; std::_Tree_val<std::_Tmap_traits<int,ioBonusCashManager::BonusCashInfo,std::less<int>,std::allocator<std::pair<int const ,ioBonusCashManager::BonusCashInfo> >,0> >::_Tree_val<std::_Tmap_traits<int,ioBonusCashManager::BonusCashInfo,std::less<int>,std::allocator<std::pair<int const ,ioBonusCashManager::BonusCashInfo> >,0> >
  00036	8d 4e 14	 lea	 ecx, DWORD PTR [esi+20]
  00039	51		 push	 ecx
  0003a	89 65 e8	 mov	 DWORD PTR $T512117[ebp], esp
  0003d	8d 45 f3	 lea	 eax, DWORD PTR $T512113[ebp]
  00040	89 65 e8	 mov	 DWORD PTR $T512105[ebp], esp
  00043	50		 push	 eax
  00044	c6 45 fc 01	 mov	 BYTE PTR __$EHRec$[ebp+8], 1
  00048	e8 00 00 00 00	 call	 ??0?$_Tree_val@V?$_Tmap_traits@HUBonusCashInfo@ioBonusCashManager@@U?$less@H@std@@V?$allocator@U?$pair@$$CBHUBonusCashInfo@ioBonusCashManager@@@std@@@4@$0A@@std@@@std@@QAE@ABU?$less@H@1@V?$allocator@U?$pair@$$CBHUBonusCashInfo@ioBonusCashManager@@@std@@@1@@Z ; std::_Tree_val<std::_Tmap_traits<int,ioBonusCashManager::BonusCashInfo,std::less<int>,std::allocator<std::pair<int const ,ioBonusCashManager::BonusCashInfo> >,0> >::_Tree_val<std::_Tmap_traits<int,ioBonusCashManager::BonusCashInfo,std::less<int>,std::allocator<std::pair<int const ,ioBonusCashManager::BonusCashInfo> >,0> >

; 8    : }

  0004d	8b c6		 mov	 eax, esi
  0004f	e8 00 00 00 00	 call	 __EH_epilog3
  00054	c3		 ret	 0
_TEXT	ENDS
;	COMDAT text$x
text$x	SEGMENT
__unwindfunclet$??0ioBonusCashManager@@QAE@XZ$0:
  00000	8b 4d ec	 mov	 ecx, DWORD PTR _this$[ebp]
  00003	83 c1 04	 add	 ecx, 4
  00006	e9 00 00 00 00	 jmp	 ??1?$Singleton@VioBonusCashManager@@@@QAE@XZ ; Singleton<ioBonusCashManager>::~Singleton<ioBonusCashManager>
__unwindfunclet$??0ioBonusCashManager@@QAE@XZ$1:
  0000b	8b 4d ec	 mov	 ecx, DWORD PTR _this$[ebp]
  0000e	83 c1 04	 add	 ecx, 4
  00011	e9 00 00 00 00	 jmp	 ??1?$map@HUBonusCashInfo@ioBonusCashManager@@U?$less@H@std@@V?$allocator@U?$pair@$$CBHUBonusCashInfo@ioBonusCashManager@@@std@@@4@@std@@QAE@XZ
__ehhandler$??0ioBonusCashManager@@QAE@XZ:
  00016	8b 54 24 08	 mov	 edx, DWORD PTR [esp+8]
  0001a	8d 42 0c	 lea	 eax, DWORD PTR [edx+12]
  0001d	8b 4a e4	 mov	 ecx, DWORD PTR [edx-28]
  00020	33 c8		 xor	 ecx, eax
  00022	e8 00 00 00 00	 call	 @__security_check_cookie@4
  00027	b8 00 00 00 00	 mov	 eax, OFFSET __ehfuncinfo$??0ioBonusCashManager@@QAE@XZ
  0002c	e9 00 00 00 00	 jmp	 ___CxxFrameHandler3
text$x	ENDS
??0ioBonusCashManager@@QAE@XZ ENDP			; ioBonusCashManager::ioBonusCashManager
; Function compile flags: /Ogsp
;	COMDAT ??_GioBonusCashManager@@UAEPAXI@Z
_TEXT	SEGMENT
___flags$ = 8						; size = 4
??_GioBonusCashManager@@UAEPAXI@Z PROC			; ioBonusCashManager::`scalar deleting destructor', COMDAT
; _this$ = ecx
  00000	55		 push	 ebp
  00001	8b ec		 mov	 ebp, esp
  00003	56		 push	 esi
  00004	8b f1		 mov	 esi, ecx
  00006	e8 00 00 00 00	 call	 ??1ioBonusCashManager@@UAE@XZ ; ioBonusCashManager::~ioBonusCashManager
  0000b	f6 45 08 01	 test	 BYTE PTR ___flags$[ebp], 1
  0000f	74 07		 je	 SHORT $LN1@scalar@2
  00011	56		 push	 esi
  00012	e8 00 00 00 00	 call	 ??3@YAXPAX@Z		; operator delete
  00017	59		 pop	 ecx
$LN1@scalar@2:
  00018	8b c6		 mov	 eax, esi
  0001a	5e		 pop	 esi
  0001b	5d		 pop	 ebp
  0001c	c2 04 00	 ret	 4
??_GioBonusCashManager@@UAEPAXI@Z ENDP			; ioBonusCashManager::`scalar deleting destructor'
_TEXT	ENDS
PUBLIC	??_C@_0BJ@CMPCMCEC@?$CFs?5?9?5not?5exist?5Type?5?9?5?$CFd?$AA@ ; `string'
PUBLIC	??_C@_0CH@KMJEOCPF@ioBonusCashManager?3?3ApplyBonusCa@ ; `string'
PUBLIC	?ApplyBonusCashInfo@ioBonusCashManager@@QAEXAAVSP2Packet@@@Z ; ioBonusCashManager::ApplyBonusCashInfo
;	COMDAT ??_C@_0BJ@CMPCMCEC@?$CFs?5?9?5not?5exist?5Type?5?9?5?$CFd?$AA@
CONST	SEGMENT
??_C@_0BJ@CMPCMCEC@?$CFs?5?9?5not?5exist?5Type?5?9?5?$CFd?$AA@ DB '%s - n'
	DB	'ot exist Type - %d', 00H			; `string'
CONST	ENDS
;	COMDAT ??_C@_0CH@KMJEOCPF@ioBonusCashManager?3?3ApplyBonusCa@
CONST	SEGMENT
??_C@_0CH@KMJEOCPF@ioBonusCashManager?3?3ApplyBonusCa@ DB 'ioBonusCashMan'
	DB	'ager::ApplyBonusCashInfo', 00H		; `string'
; Function compile flags: /Ogsp
CONST	ENDS
;	COMDAT ?ApplyBonusCashInfo@ioBonusCashManager@@QAEXAAVSP2Packet@@@Z
_TEXT	SEGMENT
_iType$ = -4						; size = 4
_rkPacket$ = 8						; size = 4
?ApplyBonusCashInfo@ioBonusCashManager@@QAEXAAVSP2Packet@@@Z PROC ; ioBonusCashManager::ApplyBonusCashInfo, COMDAT
; _this$ = ecx

; 119  : {

  00000	55		 push	 ebp
  00001	8b ec		 mov	 ebp, esp
  00003	51		 push	 ecx
  00004	56		 push	 esi

; 120  : 	int iType;
; 121  : 	rkPacket >> iType;

  00005	8d 45 fc	 lea	 eax, DWORD PTR _iType$[ebp]
  00008	8b f1		 mov	 esi, ecx
  0000a	8b 4d 08	 mov	 ecx, DWORD PTR _rkPacket$[ebp]
  0000d	50		 push	 eax
  0000e	e8 00 00 00 00	 call	 ??5SP2Packet@@QAEAAV0@AAH@Z ; SP2Packet::operator>>

; 122  : 
; 123  : 	if ( iType == BONUS_CASH_ALIVE )

  00013	83 7d fc 01	 cmp	 DWORD PTR _iType$[ebp], 1
  00017	75 0c		 jne	 SHORT $LN4@ApplyBonus@6

; 124  : 		ApplyBonusCashAliveInfo( rkPacket );

  00019	ff 75 08	 push	 DWORD PTR _rkPacket$[ebp]
  0001c	8b ce		 mov	 ecx, esi
  0001e	e8 00 00 00 00	 call	 ?ApplyBonusCashAliveInfo@ioBonusCashManager@@QAEXAAVSP2Packet@@@Z ; ioBonusCashManager::ApplyBonusCashAliveInfo
  00023	eb 30		 jmp	 SHORT $LN1@ApplyBonus@6
$LN4@ApplyBonus@6:

; 125  : 	else if ( iType == BONUS_CASH_EXPIRATION )

  00025	83 7d fc 02	 cmp	 DWORD PTR _iType$[ebp], 2
  00029	75 0c		 jne	 SHORT $LN2@ApplyBonus@6

; 126  : 		ApplyBonusCashExpireInfo( rkPacket );

  0002b	ff 75 08	 push	 DWORD PTR _rkPacket$[ebp]
  0002e	8b ce		 mov	 ecx, esi
  00030	e8 00 00 00 00	 call	 ?ApplyBonusCashExpireInfo@ioBonusCashManager@@QAEXAAVSP2Packet@@@Z ; ioBonusCashManager::ApplyBonusCashExpireInfo

; 127  : 	else

  00035	eb 1e		 jmp	 SHORT $LN1@ApplyBonus@6
$LN2@ApplyBonus@6:

; 128  : 		LOG.PrintTimeAndLog( 0, "%s - not exist Type - %d", __FUNCTION__, iType );

  00037	ff 75 fc	 push	 DWORD PTR _iType$[ebp]
  0003a	68 00 00 00 00	 push	 OFFSET ??_C@_0CH@KMJEOCPF@ioBonusCashManager?3?3ApplyBonusCa@
  0003f	68 00 00 00 00	 push	 OFFSET ??_C@_0BJ@CMPCMCEC@?$CFs?5?9?5not?5exist?5Type?5?9?5?$CFd?$AA@
  00044	6a 00		 push	 0
  00046	ff 35 00 00 00
	00		 push	 DWORD PTR __imp_?LOG@@3VCLog@@A
  0004c	ff 15 00 00 00
	00		 call	 DWORD PTR __imp_?PrintTimeAndLog@CLog@@QAAXHPADZZ
  00052	83 c4 14	 add	 esp, 20			; 00000014H
$LN1@ApplyBonus@6:
  00055	5e		 pop	 esi

; 129  : }

  00056	c9		 leave
  00057	c2 04 00	 ret	 4
?ApplyBonusCashInfo@ioBonusCashManager@@QAEXAAVSP2Packet@@@Z ENDP ; ioBonusCashManager::ApplyBonusCashInfo
_TEXT	ENDS
PUBLIC	?ApplyBonusCashData@ioBonusCashManager@@QAEXAAVSP2Packet@@@Z ; ioBonusCashManager::ApplyBonusCashData
EXTRN	__imp_?GetPacketID@CPacket@@QBEKXZ:PROC
; Function compile flags: /Ogsp
;	COMDAT ?ApplyBonusCashData@ioBonusCashManager@@QAEXAAVSP2Packet@@@Z
_TEXT	SEGMENT
_rkPacket$ = 8						; size = 4
?ApplyBonusCashData@ioBonusCashManager@@QAEXAAVSP2Packet@@@Z PROC ; ioBonusCashManager::ApplyBonusCashData, COMDAT
; _this$ = ecx

; 47   : {

  00000	55		 push	 ebp
  00001	8b ec		 mov	 ebp, esp
  00003	56		 push	 esi
  00004	57		 push	 edi

; 48   : 	switch( rkPacket.GetPacketID() )

  00005	8b 7d 08	 mov	 edi, DWORD PTR _rkPacket$[ebp]
  00008	8b f1		 mov	 esi, ecx
  0000a	8b cf		 mov	 ecx, edi
  0000c	ff 15 00 00 00
	00		 call	 DWORD PTR __imp_?GetPacketID@CPacket@@QBEKXZ
  00012	2d 62 25 00 00	 sub	 eax, 9570		; 00002562H
  00017	74 27		 je	 SHORT $LN4@ApplyBonus@7
  00019	48		 dec	 eax
  0001a	74 1a		 je	 SHORT $LN3@ApplyBonus@7
  0001c	48		 dec	 eax
  0001d	74 0d		 je	 SHORT $LN2@ApplyBonus@7
  0001f	48		 dec	 eax
  00020	75 26		 jne	 SHORT $LN5@ApplyBonus@7

; 59   : 	case STPK_EXPIRED_BONUS_CASH:
; 60   : 		ApplyBonusCashExpired( rkPacket );

  00022	57		 push	 edi
  00023	8b ce		 mov	 ecx, esi
  00025	e8 00 00 00 00	 call	 ?ApplyBonusCashExpired@ioBonusCashManager@@QAEXAAVSP2Packet@@@Z ; ioBonusCashManager::ApplyBonusCashExpired

; 61   : 		break;

  0002a	eb 1c		 jmp	 SHORT $LN5@ApplyBonus@7
$LN2@ApplyBonus@7:

; 56   : 	case STPK_BONUS_CAHS_INFO:
; 57   : 		ApplyBonusCashInfo( rkPacket );

  0002c	57		 push	 edi
  0002d	8b ce		 mov	 ecx, esi
  0002f	e8 00 00 00 00	 call	 ?ApplyBonusCashInfo@ioBonusCashManager@@QAEXAAVSP2Packet@@@Z ; ioBonusCashManager::ApplyBonusCashInfo

; 58   : 		break;

  00034	eb 12		 jmp	 SHORT $LN5@ApplyBonus@7
$LN3@ApplyBonus@7:

; 52   : 		break;
; 53   : 	case STPK_BONUS_CASH_UPDATE:
; 54   : 		ApplyBonusCashUpdate( rkPacket );

  00036	57		 push	 edi
  00037	8b ce		 mov	 ecx, esi
  00039	e8 00 00 00 00	 call	 ?ApplyBonusCashUpdate@ioBonusCashManager@@QAEXAAVSP2Packet@@@Z ; ioBonusCashManager::ApplyBonusCashUpdate

; 55   : 		break;

  0003e	eb 08		 jmp	 SHORT $LN5@ApplyBonus@7
$LN4@ApplyBonus@7:

; 49   : 	{
; 50   : 	case STPK_BONUS_CASH_ADD:
; 51   : 		ApplyBonusCashAdd( rkPacket );

  00040	57		 push	 edi
  00041	8b ce		 mov	 ecx, esi
  00043	e8 00 00 00 00	 call	 ?ApplyBonusCashAdd@ioBonusCashManager@@QAEXAAVSP2Packet@@@Z ; ioBonusCashManager::ApplyBonusCashAdd
$LN5@ApplyBonus@7:
  00048	5f		 pop	 edi
  00049	5e		 pop	 esi

; 62   : 	}
; 63   : }

  0004a	5d		 pop	 ebp
  0004b	c2 04 00	 ret	 4
?ApplyBonusCashData@ioBonusCashManager@@QAEXAAVSP2Packet@@@Z ENDP ; ioBonusCashManager::ApplyBonusCashData
_TEXT	ENDS
END
