; Listing generated by Microsoft (R) Optimizing Compiler Version 16.00.30319.01 

	TITLE	D:\Lost Saga For Developer\Youtube\Tutorial\Source\src\LSClient\ioBombMissileWeapon3.cpp
	.686P
	.XMM
	include listing.inc
	.model	flat

INCLUDELIB MSVCRT
INCLUDELIB OLDNAMES

PUBLIC	?_EEM_DS@?$deque@UD3DXVECTOR3@@V?$allocator@UD3DXVECTOR3@@@std@@@std@@2HB ; std::deque<D3DXVECTOR3,std::allocator<D3DXVECTOR3> >::_EEM_DS
PUBLIC	?m_ActionStopType@ioBombMissileWeapon3@@2W4ActionStopType@@A ; ioBombMissileWeapon3::m_ActionStopType
PUBLIC	?m_DieActionStopType@ioBombMissileWeapon3@@2W4ActionStopType@@A ; ioBombMissileWeapon3::m_DieActionStopType
_BSS	SEGMENT
?m_ActionStopType@ioBombMissileWeapon3@@2W4ActionStopType@@A DD 01H DUP (?) ; ioBombMissileWeapon3::m_ActionStopType
?m_DieActionStopType@ioBombMissileWeapon3@@2W4ActionStopType@@A DD 01H DUP (?) ; ioBombMissileWeapon3::m_DieActionStopType
_BSS	ENDS
;	COMDAT ?_EEM_DS@?$deque@UD3DXVECTOR3@@V?$allocator@UD3DXVECTOR3@@@std@@@std@@2HB
CONST	SEGMENT
?_EEM_DS@?$deque@UD3DXVECTOR3@@V?$allocator@UD3DXVECTOR3@@@std@@@std@@2HB DD 01H ; std::deque<D3DXVECTOR3,std::allocator<D3DXVECTOR3> >::_EEM_DS
CONST	ENDS
PUBLIC	?return1@@YAIXZ					; return1
; Function compile flags: /Ogsp
; File d:\lost saga for developer\youtube\tutorial\source\src\lsclient\stdafx.h
;	COMDAT ?return1@@YAIXZ
_TEXT	SEGMENT
?return1@@YAIXZ PROC					; return1, COMDAT

; 17   : 	__forceinline unsigned int return1() { __asm mov eax, 1 };

  00000	b8 01 00 00 00	 mov	 eax, 1
  00005	c3		 ret	 0
?return1@@YAIXZ ENDP					; return1
_TEXT	ENDS
PUBLIC	?return100@@YAIXZ				; return100
; Function compile flags: /Ogsp
;	COMDAT ?return100@@YAIXZ
_TEXT	SEGMENT
?return100@@YAIXZ PROC					; return100, COMDAT

; 25   : 	__forceinline unsigned int return100() { __asm mov eax, 100 };

  00000	b8 64 00 00 00	 mov	 eax, 100		; 00000064H
  00005	c3		 ret	 0
?return100@@YAIXZ ENDP					; return100
_TEXT	ENDS
PUBLIC	?return360@@YAIXZ				; return360
; Function compile flags: /Ogsp
;	COMDAT ?return360@@YAIXZ
_TEXT	SEGMENT
?return360@@YAIXZ PROC					; return360, COMDAT

; 27   : 	__forceinline unsigned int return360() { __asm mov eax, 360 };

  00000	b8 68 01 00 00	 mov	 eax, 360		; 00000168H
  00005	c3		 ret	 0
?return360@@YAIXZ ENDP					; return360
_TEXT	ENDS
PUBLIC	?return1000@@YAIXZ				; return1000
; Function compile flags: /Ogsp
;	COMDAT ?return1000@@YAIXZ
_TEXT	SEGMENT
?return1000@@YAIXZ PROC					; return1000, COMDAT

; 29   : 	__forceinline unsigned int return1000() { __asm mov eax, 1000 };

  00000	b8 e8 03 00 00	 mov	 eax, 1000		; 000003e8H
  00005	c3		 ret	 0
?return1000@@YAIXZ ENDP					; return1000
_TEXT	ENDS
PUBLIC	?GetTargetRot@ioBaseChar@@QBEABUD3DXQUATERNION@@XZ ; ioBaseChar::GetTargetRot
; Function compile flags: /Ogsp
; File d:\lost saga for developer\youtube\tutorial\source\src\lsclient\iobasechar.h
;	COMDAT ?GetTargetRot@ioBaseChar@@QBEABUD3DXQUATERNION@@XZ
_TEXT	SEGMENT
?GetTargetRot@ioBaseChar@@QBEABUD3DXQUATERNION@@XZ PROC	; ioBaseChar::GetTargetRot, COMDAT
; _this$ = ecx

; 2599 : 	inline const D3DXQUATERNION& GetTargetRot() const { return m_qtTargetRot; }

  00000	8d 81 a4 06 00
	00		 lea	 eax, DWORD PTR [ecx+1700]
  00006	c3		 ret	 0
?GetTargetRot@ioBaseChar@@QBEABUD3DXQUATERNION@@XZ ENDP	; ioBaseChar::GetTargetRot
_TEXT	ENDS
PUBLIC	_fabsf
EXTRN	__fltused:DWORD
; Function compile flags: /Ogsp
; File c:\program files (x86)\microsoft visual studio 10.0\vc\include\math.h
;	COMDAT _fabsf
_TEXT	SEGMENT
tv129 = 8						; size = 4
__X$ = 8						; size = 4
_fabsf	PROC						; COMDAT

; 395  :         {return ((float)fabs((double)_X)); }

  00000	55		 push	 ebp
  00001	8b ec		 mov	 ebp, esp
  00003	d9 45 08	 fld	 DWORD PTR __X$[ebp]
  00006	d9 e1		 fabs
  00008	d9 5d 08	 fstp	 DWORD PTR tv129[ebp]
  0000b	d9 45 08	 fld	 DWORD PTR tv129[ebp]
  0000e	5d		 pop	 ebp
  0000f	c3		 ret	 0
_fabsf	ENDP
_TEXT	ENDS
PUBLIC	_acosf
EXTRN	__CIacos:PROC
; Function compile flags: /Ogsp
;	COMDAT _acosf
_TEXT	SEGMENT
tv69 = 8						; size = 4
__X$ = 8						; size = 4
_acosf	PROC						; COMDAT

; 400  :         {return ((float)acos((double)_X)); }

  00000	55		 push	 ebp
  00001	8b ec		 mov	 ebp, esp
  00003	d9 45 08	 fld	 DWORD PTR __X$[ebp]
  00006	e8 00 00 00 00	 call	 __CIacos
  0000b	d9 5d 08	 fstp	 DWORD PTR tv69[ebp]
  0000e	d9 45 08	 fld	 DWORD PTR tv69[ebp]
  00011	5d		 pop	 ebp
  00012	c3		 ret	 0
_acosf	ENDP
_TEXT	ENDS
PUBLIC	_sqrtf
EXTRN	__CIsqrt:PROC
; Function compile flags: /Ogsp
;	COMDAT _sqrtf
_TEXT	SEGMENT
tv69 = 8						; size = 4
__X$ = 8						; size = 4
_sqrtf	PROC						; COMDAT

; 434  :         {return ((float)sqrt((double)_X)); }

  00000	55		 push	 ebp
  00001	8b ec		 mov	 ebp, esp
  00003	d9 45 08	 fld	 DWORD PTR __X$[ebp]
  00006	e8 00 00 00 00	 call	 __CIsqrt
  0000b	d9 5d 08	 fstp	 DWORD PTR tv69[ebp]
  0000e	d9 45 08	 fld	 DWORD PTR tv69[ebp]
  00011	5d		 pop	 ebp
  00012	c3		 ret	 0
_sqrtf	ENDP
_TEXT	ENDS
PUBLIC	?fabs@@YAMM@Z					; fabs
; Function compile flags: /Ogsp
;	COMDAT ?fabs@@YAMM@Z
_TEXT	SEGMENT
tv131 = 8						; size = 4
__X$ = 8						; size = 4
?fabs@@YAMM@Z PROC					; fabs, COMDAT

; 518  :         {return (fabsf(_X)); }

  00000	55		 push	 ebp
  00001	8b ec		 mov	 ebp, esp
  00003	d9 45 08	 fld	 DWORD PTR __X$[ebp]
  00006	d9 e1		 fabs
  00008	d9 5d 08	 fstp	 DWORD PTR tv131[ebp]
  0000b	d9 45 08	 fld	 DWORD PTR tv131[ebp]
  0000e	5d		 pop	 ebp
  0000f	c3		 ret	 0
?fabs@@YAMM@Z ENDP					; fabs
_TEXT	ENDS
PUBLIC	??_7bad_alloc@std@@6B@				; std::bad_alloc::`vftable'
PUBLIC	??0bad_alloc@std@@QAE@PBD@Z			; std::bad_alloc::bad_alloc
PUBLIC	??_R4bad_alloc@std@@6B@				; std::bad_alloc::`RTTI Complete Object Locator'
PUBLIC	??_R0?AVbad_alloc@std@@@8			; std::bad_alloc `RTTI Type Descriptor'
PUBLIC	??_R3bad_alloc@std@@8				; std::bad_alloc::`RTTI Class Hierarchy Descriptor'
PUBLIC	??_R2bad_alloc@std@@8				; std::bad_alloc::`RTTI Base Class Array'
PUBLIC	??_R1A@?0A@EA@bad_alloc@std@@8			; std::bad_alloc::`RTTI Base Class Descriptor at (0,-1,0,64)'
PUBLIC	??_R1A@?0A@EA@exception@std@@8			; std::exception::`RTTI Base Class Descriptor at (0,-1,0,64)'
PUBLIC	??_R0?AVexception@std@@@8			; std::exception `RTTI Type Descriptor'
PUBLIC	??_R3exception@std@@8				; std::exception::`RTTI Class Hierarchy Descriptor'
PUBLIC	??_R2exception@std@@8				; std::exception::`RTTI Base Class Array'
EXTRN	__imp_??0exception@std@@QAE@ABQBD@Z:PROC
EXTRN	??_7type_info@@6B@:QWORD			; type_info::`vftable'
EXTRN	??_Ebad_alloc@std@@UAEPAXI@Z:PROC		; std::bad_alloc::`vector deleting destructor'
EXTRN	?what@exception@std@@UBEPBDXZ:PROC		; std::exception::what
;	COMDAT ??_R2exception@std@@8
; File c:\program files (x86)\microsoft visual studio 10.0\vc\include\exception
rdata$r	SEGMENT
??_R2exception@std@@8 DD FLAT:??_R1A@?0A@EA@exception@std@@8 ; std::exception::`RTTI Base Class Array'
rdata$r	ENDS
;	COMDAT ??_R3exception@std@@8
rdata$r	SEGMENT
??_R3exception@std@@8 DD 00H				; std::exception::`RTTI Class Hierarchy Descriptor'
	DD	00H
	DD	01H
	DD	FLAT:??_R2exception@std@@8
rdata$r	ENDS
;	COMDAT ??_R0?AVexception@std@@@8
_DATA	SEGMENT
??_R0?AVexception@std@@@8 DD FLAT:??_7type_info@@6B@	; std::exception `RTTI Type Descriptor'
	DD	00H
	DB	'.?AVexception@std@@', 00H
_DATA	ENDS
;	COMDAT ??_R1A@?0A@EA@exception@std@@8
rdata$r	SEGMENT
??_R1A@?0A@EA@exception@std@@8 DD FLAT:??_R0?AVexception@std@@@8 ; std::exception::`RTTI Base Class Descriptor at (0,-1,0,64)'
	DD	00H
	DD	00H
	DD	0ffffffffH
	DD	00H
	DD	040H
	DD	FLAT:??_R3exception@std@@8
rdata$r	ENDS
;	COMDAT ??_R1A@?0A@EA@bad_alloc@std@@8
rdata$r	SEGMENT
??_R1A@?0A@EA@bad_alloc@std@@8 DD FLAT:??_R0?AVbad_alloc@std@@@8 ; std::bad_alloc::`RTTI Base Class Descriptor at (0,-1,0,64)'
	DD	01H
	DD	00H
	DD	0ffffffffH
	DD	00H
	DD	040H
	DD	FLAT:??_R3bad_alloc@std@@8
rdata$r	ENDS
;	COMDAT ??_R2bad_alloc@std@@8
rdata$r	SEGMENT
??_R2bad_alloc@std@@8 DD FLAT:??_R1A@?0A@EA@bad_alloc@std@@8 ; std::bad_alloc::`RTTI Base Class Array'
	DD	FLAT:??_R1A@?0A@EA@exception@std@@8
rdata$r	ENDS
;	COMDAT ??_R3bad_alloc@std@@8
rdata$r	SEGMENT
??_R3bad_alloc@std@@8 DD 00H				; std::bad_alloc::`RTTI Class Hierarchy Descriptor'
	DD	00H
	DD	02H
	DD	FLAT:??_R2bad_alloc@std@@8
rdata$r	ENDS
;	COMDAT ??_R0?AVbad_alloc@std@@@8
_DATA	SEGMENT
??_R0?AVbad_alloc@std@@@8 DD FLAT:??_7type_info@@6B@	; std::bad_alloc `RTTI Type Descriptor'
	DD	00H
	DB	'.?AVbad_alloc@std@@', 00H
_DATA	ENDS
;	COMDAT ??_R4bad_alloc@std@@6B@
rdata$r	SEGMENT
??_R4bad_alloc@std@@6B@ DD 00H				; std::bad_alloc::`RTTI Complete Object Locator'
	DD	00H
	DD	00H
	DD	FLAT:??_R0?AVbad_alloc@std@@@8
	DD	FLAT:??_R3bad_alloc@std@@8
rdata$r	ENDS
;	COMDAT ??_7bad_alloc@std@@6B@
CONST	SEGMENT
??_7bad_alloc@std@@6B@ DD FLAT:??_R4bad_alloc@std@@6B@	; std::bad_alloc::`vftable'
	DD	FLAT:??_Ebad_alloc@std@@UAEPAXI@Z
	DD	FLAT:?what@exception@std@@UBEPBDXZ
; Function compile flags: /Ogsp
CONST	ENDS
;	COMDAT ??0bad_alloc@std@@QAE@PBD@Z
_TEXT	SEGMENT
__Message$ = 8						; size = 4
??0bad_alloc@std@@QAE@PBD@Z PROC			; std::bad_alloc::bad_alloc, COMDAT
; _this$ = ecx

; 345  : 		{	// construct from message string

  00000	55		 push	 ebp
  00001	8b ec		 mov	 ebp, esp
  00003	56		 push	 esi
  00004	8d 45 08	 lea	 eax, DWORD PTR __Message$[ebp]
  00007	50		 push	 eax
  00008	8b f1		 mov	 esi, ecx
  0000a	ff 15 00 00 00
	00		 call	 DWORD PTR __imp_??0exception@std@@QAE@ABQBD@Z
  00010	c7 06 00 00 00
	00		 mov	 DWORD PTR [esi], OFFSET ??_7bad_alloc@std@@6B@

; 346  : 		}

  00016	8b c6		 mov	 eax, esi
  00018	5e		 pop	 esi
  00019	5d		 pop	 ebp
  0001a	c2 04 00	 ret	 4
??0bad_alloc@std@@QAE@PBD@Z ENDP			; std::bad_alloc::bad_alloc
_TEXT	ENDS
PUBLIC	??1bad_alloc@std@@UAE@XZ			; std::bad_alloc::~bad_alloc
EXTRN	__imp_??1exception@std@@UAE@XZ:PROC
; Function compile flags: /Ogsp
;	COMDAT ??1bad_alloc@std@@UAE@XZ
_TEXT	SEGMENT
??1bad_alloc@std@@UAE@XZ PROC				; std::bad_alloc::~bad_alloc, COMDAT
; _this$ = ecx

; 354  : 		{	// destroy the object

  00000	c7 01 00 00 00
	00		 mov	 DWORD PTR [ecx], OFFSET ??_7bad_alloc@std@@6B@

; 355  : 		}

  00006	ff 25 00 00 00
	00		 jmp	 DWORD PTR __imp_??1exception@std@@UAE@XZ
??1bad_alloc@std@@UAE@XZ ENDP				; std::bad_alloc::~bad_alloc
_TEXT	ENDS
EXTRN	??3@YAXPAX@Z:PROC				; operator delete
; Function compile flags: /Ogsp
;	COMDAT ??_Gbad_alloc@std@@UAEPAXI@Z
_TEXT	SEGMENT
___flags$ = 8						; size = 4
??_Gbad_alloc@std@@UAEPAXI@Z PROC			; std::bad_alloc::`scalar deleting destructor', COMDAT
; _this$ = ecx
  00000	55		 push	 ebp
  00001	8b ec		 mov	 ebp, esp
  00003	56		 push	 esi
  00004	8b f1		 mov	 esi, ecx
  00006	c7 06 00 00 00
	00		 mov	 DWORD PTR [esi], OFFSET ??_7bad_alloc@std@@6B@
  0000c	ff 15 00 00 00
	00		 call	 DWORD PTR __imp_??1exception@std@@UAE@XZ
  00012	f6 45 08 01	 test	 BYTE PTR ___flags$[ebp], 1
  00016	74 07		 je	 SHORT $LN1@scalar
  00018	56		 push	 esi
  00019	e8 00 00 00 00	 call	 ??3@YAXPAX@Z		; operator delete
  0001e	59		 pop	 ecx
$LN1@scalar:
  0001f	8b c6		 mov	 eax, esi
  00021	5e		 pop	 esi
  00022	5d		 pop	 ebp
  00023	c2 04 00	 ret	 4
??_Gbad_alloc@std@@UAEPAXI@Z ENDP			; std::bad_alloc::`scalar deleting destructor'
_TEXT	ENDS
PUBLIC	??2@YAPAXIPAX@Z					; operator new
; Function compile flags: /Ogsp
; File c:\program files (x86)\microsoft visual studio 10.0\vc\include\new
;	COMDAT ??2@YAPAXIPAX@Z
_TEXT	SEGMENT
___formal$ = 8						; size = 4
__Where$ = 12						; size = 4
??2@YAPAXIPAX@Z PROC					; operator new, COMDAT

; 56   : 	{	// construct array with placement at _Where

  00000	55		 push	 ebp
  00001	8b ec		 mov	 ebp, esp

; 57   : 	return (_Where);

  00003	8b 45 0c	 mov	 eax, DWORD PTR __Where$[ebp]

; 58   : 	}

  00006	5d		 pop	 ebp
  00007	c3		 ret	 0
??2@YAPAXIPAX@Z ENDP					; operator new
_TEXT	ENDS
PUBLIC	??3@YAXPAX0@Z					; operator delete
; Function compile flags: /Ogsp
;	COMDAT ??3@YAXPAX0@Z
_TEXT	SEGMENT
___formal$ = 8						; size = 4
___formal$ = 12						; size = 4
??3@YAXPAX0@Z PROC					; operator delete, COMDAT

; 62   : 	}

  00000	c3		 ret	 0
??3@YAXPAX0@Z ENDP					; operator delete
_TEXT	ENDS
PUBLIC	?_Adopt@_Iterator_base0@std@@QAEXPBX@Z		; std::_Iterator_base0::_Adopt
; Function compile flags: /Ogsp
; File c:\program files (x86)\microsoft visual studio 10.0\vc\include\xutility
;	COMDAT ?_Adopt@_Iterator_base0@std@@QAEXPBX@Z
_TEXT	SEGMENT
___formal$ = 8						; size = 4
?_Adopt@_Iterator_base0@std@@QAEXPBX@Z PROC		; std::_Iterator_base0::_Adopt, COMDAT
; _this$ = ecx

; 49   : 		}

  00000	c2 04 00	 ret	 4
?_Adopt@_Iterator_base0@std@@QAEXPBX@Z ENDP		; std::_Iterator_base0::_Adopt
_TEXT	ENDS
PUBLIC	?GetCurFireState@ioMagicStaffItem3@@QBE?AW4FireState@1@XZ ; ioMagicStaffItem3::GetCurFireState
; Function compile flags: /Ogsp
; File d:\lost saga for developer\youtube\tutorial\source\src\lsclient\iomagicstaffitem3.h
;	COMDAT ?GetCurFireState@ioMagicStaffItem3@@QBE?AW4FireState@1@XZ
_TEXT	SEGMENT
?GetCurFireState@ioMagicStaffItem3@@QBE?AW4FireState@1@XZ PROC ; ioMagicStaffItem3::GetCurFireState, COMDAT
; _this$ = ecx

; 101  : 	inline FireState GetCurFireState() const { return m_FireState; }

  00000	8b 81 54 19 00
	00		 mov	 eax, DWORD PTR [ecx+6484]
  00006	c3		 ret	 0
?GetCurFireState@ioMagicStaffItem3@@QBE?AW4FireState@1@XZ ENDP ; ioMagicStaffItem3::GetCurFireState
_TEXT	ENDS
PUBLIC	??0D3DXVECTOR3@@QAE@XZ				; D3DXVECTOR3::D3DXVECTOR3
; Function compile flags: /Ogsp
; File c:\program files (x86)\microsoft directx sdk (june 2010)\include\d3dx9math.h
;	COMDAT ??0D3DXVECTOR3@@QAE@XZ
_TEXT	SEGMENT
??0D3DXVECTOR3@@QAE@XZ PROC				; D3DXVECTOR3::D3DXVECTOR3, COMDAT
; _this$ = ecx

; 165  :     D3DXVECTOR3() {};

  00000	8b c1		 mov	 eax, ecx
  00002	c3		 ret	 0
??0D3DXVECTOR3@@QAE@XZ ENDP				; D3DXVECTOR3::D3DXVECTOR3
_TEXT	ENDS
PUBLIC	??0D3DXQUATERNION@@QAE@XZ			; D3DXQUATERNION::D3DXQUATERNION
; Function compile flags: /Ogsp
;	COMDAT ??0D3DXQUATERNION@@QAE@XZ
_TEXT	SEGMENT
??0D3DXQUATERNION@@QAE@XZ PROC				; D3DXQUATERNION::D3DXQUATERNION, COMDAT
; _this$ = ecx

; 429  :     D3DXQUATERNION() {}

  00000	8b c1		 mov	 eax, ecx
  00002	c3		 ret	 0
??0D3DXQUATERNION@@QAE@XZ ENDP				; D3DXQUATERNION::D3DXQUATERNION
_TEXT	ENDS
PUBLIC	??0D3DXVECTOR3@@QAE@MMM@Z			; D3DXVECTOR3::D3DXVECTOR3
; Function compile flags: /Ogsp
; File c:\program files (x86)\microsoft directx sdk (june 2010)\include\d3dx9math.inl
;	COMDAT ??0D3DXVECTOR3@@QAE@MMM@Z
_TEXT	SEGMENT
_fx$ = 8						; size = 4
_fy$ = 12						; size = 4
_fz$ = 16						; size = 4
??0D3DXVECTOR3@@QAE@MMM@Z PROC				; D3DXVECTOR3::D3DXVECTOR3, COMDAT
; _this$ = ecx

; 303  : {

  00000	55		 push	 ebp
  00001	8b ec		 mov	 ebp, esp

; 304  :     x = fx;

  00003	f3 0f 10 45 08	 movss	 xmm0, DWORD PTR _fx$[ebp]
  00008	8b c1		 mov	 eax, ecx
  0000a	f3 0f 11 00	 movss	 DWORD PTR [eax], xmm0

; 305  :     y = fy;

  0000e	f3 0f 10 45 0c	 movss	 xmm0, DWORD PTR _fy$[ebp]
  00013	f3 0f 11 40 04	 movss	 DWORD PTR [eax+4], xmm0

; 306  :     z = fz;

  00018	f3 0f 10 45 10	 movss	 xmm0, DWORD PTR _fz$[ebp]
  0001d	f3 0f 11 40 08	 movss	 DWORD PTR [eax+8], xmm0

; 307  : }

  00022	5d		 pop	 ebp
  00023	c2 0c 00	 ret	 12			; 0000000cH
??0D3DXVECTOR3@@QAE@MMM@Z ENDP				; D3DXVECTOR3::D3DXVECTOR3
_TEXT	ENDS
PUBLIC	__mask@@NegFloat@
PUBLIC	??GD3DXVECTOR3@@QBE?AU0@XZ			; D3DXVECTOR3::operator-
;	COMDAT __mask@@NegFloat@
CONST	SEGMENT
__mask@@NegFloat@ DB 00H, 00H, 00H, 080H, 00H, 00H, 00H, 080H, 00H, 00H, 00H
	DB	080H, 00H, 00H, 00H, 080H
; Function compile flags: /Ogsp
CONST	ENDS
;	COMDAT ??GD3DXVECTOR3@@QBE?AU0@XZ
_TEXT	SEGMENT
___$ReturnUdt$ = 8					; size = 4
??GD3DXVECTOR3@@QBE?AU0@XZ PROC				; D3DXVECTOR3::operator-, COMDAT
; _this$ = ecx

; 372  : {

  00000	55		 push	 ebp
  00001	8b ec		 mov	 ebp, esp

; 373  :     return D3DXVECTOR3(-x, -y, -z);

  00003	f3 0f 10 05 00
	00 00 00	 movss	 xmm0, DWORD PTR __mask@@NegFloat@
  0000b	8b 45 08	 mov	 eax, DWORD PTR ___$ReturnUdt$[ebp]
  0000e	f3 0f 10 09	 movss	 xmm1, DWORD PTR [ecx]
  00012	0f 57 c8	 xorps	 xmm1, xmm0
  00015	f3 0f 11 08	 movss	 DWORD PTR [eax], xmm1
  00019	f3 0f 10 49 04	 movss	 xmm1, DWORD PTR [ecx+4]
  0001e	0f 57 c8	 xorps	 xmm1, xmm0
  00021	f3 0f 11 48 04	 movss	 DWORD PTR [eax+4], xmm1
  00026	f3 0f 10 49 08	 movss	 xmm1, DWORD PTR [ecx+8]
  0002b	0f 57 c8	 xorps	 xmm1, xmm0
  0002e	f3 0f 11 48 08	 movss	 DWORD PTR [eax+8], xmm1

; 374  : }

  00033	5d		 pop	 ebp
  00034	c2 04 00	 ret	 4
??GD3DXVECTOR3@@QBE?AU0@XZ ENDP				; D3DXVECTOR3::operator-
_TEXT	ENDS
PUBLIC	??HD3DXVECTOR3@@QBE?AU0@ABU0@@Z			; D3DXVECTOR3::operator+
; Function compile flags: /Ogsp
;	COMDAT ??HD3DXVECTOR3@@QBE?AU0@ABU0@@Z
_TEXT	SEGMENT
___$ReturnUdt$ = 8					; size = 4
_v$ = 12						; size = 4
??HD3DXVECTOR3@@QBE?AU0@ABU0@@Z PROC			; D3DXVECTOR3::operator+, COMDAT
; _this$ = ecx

; 380  : {

  00000	55		 push	 ebp
  00001	8b ec		 mov	 ebp, esp

; 381  :     return D3DXVECTOR3(x + v.x, y + v.y, z + v.z);

  00003	8b 55 0c	 mov	 edx, DWORD PTR _v$[ebp]
  00006	f3 0f 10 02	 movss	 xmm0, DWORD PTR [edx]
  0000a	f3 0f 10 09	 movss	 xmm1, DWORD PTR [ecx]
  0000e	8b 45 08	 mov	 eax, DWORD PTR ___$ReturnUdt$[ebp]
  00011	0f 5a c0	 cvtps2pd xmm0, xmm0
  00014	0f 5a c9	 cvtps2pd xmm1, xmm1
  00017	f2 0f 58 c1	 addsd	 xmm0, xmm1
  0001b	f3 0f 10 49 04	 movss	 xmm1, DWORD PTR [ecx+4]
  00020	66 0f 5a c0	 cvtpd2ps xmm0, xmm0
  00024	f3 0f 11 00	 movss	 DWORD PTR [eax], xmm0
  00028	f3 0f 10 42 04	 movss	 xmm0, DWORD PTR [edx+4]
  0002d	0f 5a c0	 cvtps2pd xmm0, xmm0
  00030	0f 5a c9	 cvtps2pd xmm1, xmm1
  00033	f2 0f 58 c1	 addsd	 xmm0, xmm1
  00037	f3 0f 10 49 08	 movss	 xmm1, DWORD PTR [ecx+8]
  0003c	66 0f 5a c0	 cvtpd2ps xmm0, xmm0
  00040	f3 0f 11 40 04	 movss	 DWORD PTR [eax+4], xmm0
  00045	f3 0f 10 42 08	 movss	 xmm0, DWORD PTR [edx+8]
  0004a	0f 5a c0	 cvtps2pd xmm0, xmm0
  0004d	0f 5a c9	 cvtps2pd xmm1, xmm1
  00050	f2 0f 58 c1	 addsd	 xmm0, xmm1
  00054	66 0f 5a c0	 cvtpd2ps xmm0, xmm0
  00058	f3 0f 11 40 08	 movss	 DWORD PTR [eax+8], xmm0

; 382  : }

  0005d	5d		 pop	 ebp
  0005e	c2 08 00	 ret	 8
??HD3DXVECTOR3@@QBE?AU0@ABU0@@Z ENDP			; D3DXVECTOR3::operator+
_TEXT	ENDS
PUBLIC	??GD3DXVECTOR3@@QBE?AU0@ABU0@@Z			; D3DXVECTOR3::operator-
; Function compile flags: /Ogsp
;	COMDAT ??GD3DXVECTOR3@@QBE?AU0@ABU0@@Z
_TEXT	SEGMENT
___$ReturnUdt$ = 8					; size = 4
_v$ = 12						; size = 4
??GD3DXVECTOR3@@QBE?AU0@ABU0@@Z PROC			; D3DXVECTOR3::operator-, COMDAT
; _this$ = ecx

; 386  : {

  00000	55		 push	 ebp
  00001	8b ec		 mov	 ebp, esp

; 387  :     return D3DXVECTOR3(x - v.x, y - v.y, z - v.z);

  00003	8b 55 0c	 mov	 edx, DWORD PTR _v$[ebp]
  00006	f3 0f 10 01	 movss	 xmm0, DWORD PTR [ecx]
  0000a	f3 0f 10 0a	 movss	 xmm1, DWORD PTR [edx]
  0000e	8b 45 08	 mov	 eax, DWORD PTR ___$ReturnUdt$[ebp]
  00011	0f 5a c0	 cvtps2pd xmm0, xmm0
  00014	0f 5a c9	 cvtps2pd xmm1, xmm1
  00017	f2 0f 5c c1	 subsd	 xmm0, xmm1
  0001b	f3 0f 10 4a 04	 movss	 xmm1, DWORD PTR [edx+4]
  00020	66 0f 5a c0	 cvtpd2ps xmm0, xmm0
  00024	f3 0f 11 00	 movss	 DWORD PTR [eax], xmm0
  00028	f3 0f 10 41 04	 movss	 xmm0, DWORD PTR [ecx+4]
  0002d	0f 5a c0	 cvtps2pd xmm0, xmm0
  00030	0f 5a c9	 cvtps2pd xmm1, xmm1
  00033	f2 0f 5c c1	 subsd	 xmm0, xmm1
  00037	f3 0f 10 4a 08	 movss	 xmm1, DWORD PTR [edx+8]
  0003c	66 0f 5a c0	 cvtpd2ps xmm0, xmm0
  00040	f3 0f 11 40 04	 movss	 DWORD PTR [eax+4], xmm0
  00045	f3 0f 10 41 08	 movss	 xmm0, DWORD PTR [ecx+8]
  0004a	0f 5a c0	 cvtps2pd xmm0, xmm0
  0004d	0f 5a c9	 cvtps2pd xmm1, xmm1
  00050	f2 0f 5c c1	 subsd	 xmm0, xmm1
  00054	66 0f 5a c0	 cvtpd2ps xmm0, xmm0
  00058	f3 0f 11 40 08	 movss	 DWORD PTR [eax+8], xmm0

; 388  : }

  0005d	5d		 pop	 ebp
  0005e	c2 08 00	 ret	 8
??GD3DXVECTOR3@@QBE?AU0@ABU0@@Z ENDP			; D3DXVECTOR3::operator-
_TEXT	ENDS
PUBLIC	??DD3DXVECTOR3@@QBE?AU0@M@Z			; D3DXVECTOR3::operator*
; Function compile flags: /Ogsp
;	COMDAT ??DD3DXVECTOR3@@QBE?AU0@M@Z
_TEXT	SEGMENT
___$ReturnUdt$ = 8					; size = 4
_f$ = 12						; size = 4
??DD3DXVECTOR3@@QBE?AU0@M@Z PROC			; D3DXVECTOR3::operator*, COMDAT
; _this$ = ecx

; 392  : {

  00000	55		 push	 ebp
  00001	8b ec		 mov	 ebp, esp

; 393  :     return D3DXVECTOR3(x * f, y * f, z * f);

  00003	f3 0f 10 4d 0c	 movss	 xmm1, DWORD PTR _f$[ebp]
  00008	f3 0f 10 01	 movss	 xmm0, DWORD PTR [ecx]
  0000c	8b 45 08	 mov	 eax, DWORD PTR ___$ReturnUdt$[ebp]
  0000f	0f 5a c0	 cvtps2pd xmm0, xmm0
  00012	0f 5a c9	 cvtps2pd xmm1, xmm1
  00015	f2 0f 59 c1	 mulsd	 xmm0, xmm1
  00019	f3 0f 10 4d 0c	 movss	 xmm1, DWORD PTR _f$[ebp]
  0001e	66 0f 5a c0	 cvtpd2ps xmm0, xmm0
  00022	f3 0f 11 00	 movss	 DWORD PTR [eax], xmm0
  00026	f3 0f 10 41 04	 movss	 xmm0, DWORD PTR [ecx+4]
  0002b	0f 5a c0	 cvtps2pd xmm0, xmm0
  0002e	0f 5a c9	 cvtps2pd xmm1, xmm1
  00031	f2 0f 59 c1	 mulsd	 xmm0, xmm1
  00035	f3 0f 10 4d 0c	 movss	 xmm1, DWORD PTR _f$[ebp]
  0003a	66 0f 5a c0	 cvtpd2ps xmm0, xmm0
  0003e	f3 0f 11 40 04	 movss	 DWORD PTR [eax+4], xmm0
  00043	f3 0f 10 41 08	 movss	 xmm0, DWORD PTR [ecx+8]
  00048	0f 5a c0	 cvtps2pd xmm0, xmm0
  0004b	0f 5a c9	 cvtps2pd xmm1, xmm1
  0004e	f2 0f 59 c1	 mulsd	 xmm0, xmm1
  00052	66 0f 5a c0	 cvtpd2ps xmm0, xmm0
  00056	f3 0f 11 40 08	 movss	 DWORD PTR [eax+8], xmm0

; 394  : }

  0005b	5d		 pop	 ebp
  0005c	c2 08 00	 ret	 8
??DD3DXVECTOR3@@QBE?AU0@M@Z ENDP			; D3DXVECTOR3::operator*
_TEXT	ENDS
PUBLIC	?D3DXVec3Length@@YAMPBUD3DXVECTOR3@@@Z		; D3DXVec3Length
; Function compile flags: /Ogsp
;	COMDAT ?D3DXVec3Length@@YAMPBUD3DXVECTOR3@@@Z
_TEXT	SEGMENT
tv169 = 8						; size = 4
tv160 = 8						; size = 4
_pV$ = 8						; size = 4
?D3DXVec3Length@@YAMPBUD3DXVECTOR3@@@Z PROC		; D3DXVec3Length, COMDAT

; 1710 : {

  00000	55		 push	 ebp
  00001	8b ec		 mov	 ebp, esp

; 1711 : #ifdef D3DX_DEBUG
; 1712 :     if(!pV)
; 1713 :         return 0.0f;
; 1714 : #endif
; 1715 : 
; 1716 : #ifdef __cplusplus
; 1717 :     return sqrtf(pV->x * pV->x + pV->y * pV->y + pV->z * pV->z);

  00003	8b 45 08	 mov	 eax, DWORD PTR _pV$[ebp]
  00006	d9 40 04	 fld	 DWORD PTR [eax+4]
  00009	d9 00		 fld	 DWORD PTR [eax]
  0000b	d9 40 08	 fld	 DWORD PTR [eax+8]
  0000e	d9 c1		 fld	 ST(1)
  00010	de ca		 fmulp	 ST(2), ST(0)
  00012	d9 c2		 fld	 ST(2)
  00014	de cb		 fmulp	 ST(3), ST(0)
  00016	d9 c9		 fxch	 ST(1)
  00018	de c2		 faddp	 ST(2), ST(0)
  0001a	d9 c0		 fld	 ST(0)
  0001c	de c9		 fmulp	 ST(1), ST(0)
  0001e	de c1		 faddp	 ST(1), ST(0)
  00020	d9 5d 08	 fstp	 DWORD PTR tv169[ebp]
  00023	d9 45 08	 fld	 DWORD PTR tv169[ebp]
  00026	e8 00 00 00 00	 call	 __CIsqrt
  0002b	d9 5d 08	 fstp	 DWORD PTR tv160[ebp]
  0002e	d9 45 08	 fld	 DWORD PTR tv160[ebp]

; 1718 : #else
; 1719 :     return (FLOAT) sqrt(pV->x * pV->x + pV->y * pV->y + pV->z * pV->z);
; 1720 : #endif
; 1721 : }

  00031	5d		 pop	 ebp
  00032	c3		 ret	 0
?D3DXVec3Length@@YAMPBUD3DXVECTOR3@@@Z ENDP		; D3DXVec3Length
_TEXT	ENDS
PUBLIC	?D3DXVec3Dot@@YAMPBUD3DXVECTOR3@@0@Z		; D3DXVec3Dot
; Function compile flags: /Ogsp
;	COMDAT ?D3DXVec3Dot@@YAMPBUD3DXVECTOR3@@0@Z
_TEXT	SEGMENT
tv188 = 8						; size = 4
_pV1$ = 8						; size = 4
_pV2$ = 12						; size = 4
?D3DXVec3Dot@@YAMPBUD3DXVECTOR3@@0@Z PROC		; D3DXVec3Dot, COMDAT

; 1736 : {

  00000	55		 push	 ebp
  00001	8b ec		 mov	 ebp, esp

; 1737 : #ifdef D3DX_DEBUG
; 1738 :     if(!pV1 || !pV2)
; 1739 :         return 0.0f;
; 1740 : #endif
; 1741 : 
; 1742 :     return pV1->x * pV2->x + pV1->y * pV2->y + pV1->z * pV2->z;

  00003	8b 45 08	 mov	 eax, DWORD PTR _pV1$[ebp]
  00006	8b 4d 0c	 mov	 ecx, DWORD PTR _pV2$[ebp]
  00009	d9 40 04	 fld	 DWORD PTR [eax+4]
  0000c	d8 49 04	 fmul	 DWORD PTR [ecx+4]
  0000f	d9 00		 fld	 DWORD PTR [eax]
  00011	d8 09		 fmul	 DWORD PTR [ecx]
  00013	de c1		 faddp	 ST(1), ST(0)
  00015	d9 40 08	 fld	 DWORD PTR [eax+8]
  00018	d8 49 08	 fmul	 DWORD PTR [ecx+8]
  0001b	de c1		 faddp	 ST(1), ST(0)
  0001d	d9 5d 08	 fstp	 DWORD PTR tv188[ebp]
  00020	d9 45 08	 fld	 DWORD PTR tv188[ebp]

; 1743 : }

  00023	5d		 pop	 ebp
  00024	c3		 ret	 0
?D3DXVec3Dot@@YAMPBUD3DXVECTOR3@@0@Z ENDP		; D3DXVec3Dot
_TEXT	ENDS
PUBLIC	?D3DXVec3Cross@@YAPAUD3DXVECTOR3@@PAU1@PBU1@1@Z	; D3DXVec3Cross
; Function compile flags: /Ogsp
;	COMDAT ?D3DXVec3Cross@@YAPAUD3DXVECTOR3@@PAU1@PBU1@1@Z
_TEXT	SEGMENT
_v$ = -12						; size = 12
_pOut$ = 8						; size = 4
_pV1$ = 12						; size = 4
_pV2$ = 16						; size = 4
?D3DXVec3Cross@@YAPAUD3DXVECTOR3@@PAU1@PBU1@1@Z PROC	; D3DXVec3Cross, COMDAT

; 1747 : {

  00000	55		 push	 ebp
  00001	8b ec		 mov	 ebp, esp
  00003	83 ec 0c	 sub	 esp, 12			; 0000000cH

; 1757 :     v.z = pV1->x * pV2->y - pV1->y * pV2->x;
; 1758 : 
; 1759 :     *pOut = v;

  00006	56		 push	 esi
  00007	57		 push	 edi

; 1748 :     D3DXVECTOR3 v;
; 1749 : 
; 1750 : #ifdef D3DX_DEBUG
; 1751 :     if(!pOut || !pV1 || !pV2)
; 1752 :         return NULL;
; 1753 : #endif
; 1754 : 
; 1755 :     v.x = pV1->y * pV2->z - pV1->z * pV2->y;

  00008	8b 45 0c	 mov	 eax, DWORD PTR _pV1$[ebp]
  0000b	f3 0f 10 40 04	 movss	 xmm0, DWORD PTR [eax+4]
  00010	f3 0f 10 50 08	 movss	 xmm2, DWORD PTR [eax+8]
  00015	8b 4d 10	 mov	 ecx, DWORD PTR _pV2$[ebp]
  00018	f3 0f 10 49 08	 movss	 xmm1, DWORD PTR [ecx+8]
  0001d	f3 0f 10 59 04	 movss	 xmm3, DWORD PTR [ecx+4]
  00022	0f 5a e8	 cvtps2pd xmm5, xmm0
  00025	0f 5a e1	 cvtps2pd xmm4, xmm1
  00028	0f 5a f2	 cvtps2pd xmm6, xmm2
  0002b	f2 0f 59 e5	 mulsd	 xmm4, xmm5

; 1756 :     v.y = pV1->z * pV2->x - pV1->x * pV2->z;

  0002f	0f 5a d2	 cvtps2pd xmm2, xmm2
  00032	0f 5a c9	 cvtps2pd xmm1, xmm1
  00035	0f 5a eb	 cvtps2pd xmm5, xmm3
  00038	f2 0f 59 ee	 mulsd	 xmm5, xmm6
  0003c	f2 0f 5c e5	 subsd	 xmm4, xmm5
  00040	f3 0f 10 28	 movss	 xmm5, DWORD PTR [eax]

; 1757 :     v.z = pV1->x * pV2->y - pV1->y * pV2->x;
; 1758 : 
; 1759 :     *pOut = v;

  00044	8b 45 08	 mov	 eax, DWORD PTR _pOut$[ebp]
  00047	66 0f 5a e4	 cvtpd2ps xmm4, xmm4
  0004b	f3 0f 11 65 f4	 movss	 DWORD PTR _v$[ebp], xmm4
  00050	f3 0f 10 21	 movss	 xmm4, DWORD PTR [ecx]
  00054	0f 5a f4	 cvtps2pd xmm6, xmm4
  00057	f2 0f 59 f2	 mulsd	 xmm6, xmm2
  0005b	0f 5a d5	 cvtps2pd xmm2, xmm5
  0005e	f2 0f 59 d1	 mulsd	 xmm2, xmm1
  00062	f2 0f 5c f2	 subsd	 xmm6, xmm2
  00066	66 0f 5a ce	 cvtpd2ps xmm1, xmm6
  0006a	f3 0f 11 4d f8	 movss	 DWORD PTR _v$[ebp+4], xmm1
  0006f	0f 5a c0	 cvtps2pd xmm0, xmm0
  00072	0f 5a d3	 cvtps2pd xmm2, xmm3
  00075	0f 5a cd	 cvtps2pd xmm1, xmm5
  00078	f2 0f 59 ca	 mulsd	 xmm1, xmm2
  0007c	8d 75 f4	 lea	 esi, DWORD PTR _v$[ebp]
  0007f	8b f8		 mov	 edi, eax
  00081	0f 5a d4	 cvtps2pd xmm2, xmm4
  00084	f2 0f 59 d0	 mulsd	 xmm2, xmm0
  00088	f2 0f 5c ca	 subsd	 xmm1, xmm2
  0008c	66 0f 5a c1	 cvtpd2ps xmm0, xmm1
  00090	f3 0f 11 45 fc	 movss	 DWORD PTR _v$[ebp+8], xmm0
  00095	a5		 movsd
  00096	a5		 movsd
  00097	a5		 movsd
  00098	5f		 pop	 edi
  00099	5e		 pop	 esi

; 1760 :     return pOut;
; 1761 : }

  0009a	c9		 leave
  0009b	c3		 ret	 0
?D3DXVec3Cross@@YAPAUD3DXVECTOR3@@PAU1@PBU1@1@Z ENDP	; D3DXVec3Cross
_TEXT	ENDS
PUBLIC	__$ArrayPad$
PUBLIC	?SetMoveDir@ioBombMissileWeapon3@@UAEXABUD3DXVECTOR3@@@Z ; ioBombMissileWeapon3::SetMoveDir
EXTRN	?SetOrientation@ioWeapon@@QAEXABUD3DXQUATERNION@@@Z:PROC ; ioWeapon::SetOrientation
EXTRN	__imp_?CalcDirectionQuaternion@ioMath@@SAXAAUD3DXQUATERNION@@ABUD3DXVECTOR3@@@Z:PROC
EXTRN	___security_cookie:DWORD
EXTRN	@__security_check_cookie@4:PROC
; Function compile flags: /Ogsp
; File d:\lost saga for developer\youtube\tutorial\source\src\lsclient\iobombmissileweapon3.cpp
;	COMDAT ?SetMoveDir@ioBombMissileWeapon3@@UAEXABUD3DXVECTOR3@@@Z
_TEXT	SEGMENT
_qtRot$ = -32						; size = 16
$T592590 = -16						; size = 12
__$ArrayPad$ = -4					; size = 4
_vDir$ = 8						; size = 4
?SetMoveDir@ioBombMissileWeapon3@@UAEXABUD3DXVECTOR3@@@Z PROC ; ioBombMissileWeapon3::SetMoveDir, COMDAT
; _this$ = ecx

; 223  : {

  00000	55		 push	 ebp
  00001	8b ec		 mov	 ebp, esp
  00003	83 ec 20	 sub	 esp, 32			; 00000020H
  00006	a1 00 00 00 00	 mov	 eax, DWORD PTR ___security_cookie
  0000b	33 c5		 xor	 eax, ebp
  0000d	89 45 fc	 mov	 DWORD PTR __$ArrayPad$[ebp], eax
  00010	8b 45 08	 mov	 eax, DWORD PTR _vDir$[ebp]
  00013	53		 push	 ebx
  00014	56		 push	 esi
  00015	57		 push	 edi
  00016	8b d9		 mov	 ebx, ecx

; 224  : 	m_vMoveDir = vDir;

  00018	8b f0		 mov	 esi, eax
  0001a	8d bb e0 08 00
	00		 lea	 edi, DWORD PTR [ebx+2272]
  00020	a5		 movsd
  00021	a5		 movsd
  00022	a5		 movsd

; 225  : 
; 226  : 	D3DXQUATERNION qtRot;
; 227  : 	ioMath::CalcDirectionQuaternion( qtRot, -vDir );

  00023	f3 0f 10 08	 movss	 xmm1, DWORD PTR [eax]
  00027	f3 0f 10 05 00
	00 00 00	 movss	 xmm0, DWORD PTR __mask@@NegFloat@
  0002f	0f 57 c8	 xorps	 xmm1, xmm0
  00032	f3 0f 11 4d f0	 movss	 DWORD PTR $T592590[ebp], xmm1
  00037	f3 0f 10 48 04	 movss	 xmm1, DWORD PTR [eax+4]
  0003c	0f 57 c8	 xorps	 xmm1, xmm0
  0003f	f3 0f 11 4d f4	 movss	 DWORD PTR $T592590[ebp+4], xmm1
  00044	f3 0f 10 48 08	 movss	 xmm1, DWORD PTR [eax+8]
  00049	8d 45 f0	 lea	 eax, DWORD PTR $T592590[ebp]
  0004c	50		 push	 eax
  0004d	8d 45 e0	 lea	 eax, DWORD PTR _qtRot$[ebp]
  00050	0f 57 c8	 xorps	 xmm1, xmm0
  00053	50		 push	 eax
  00054	f3 0f 11 4d f8	 movss	 DWORD PTR $T592590[ebp+8], xmm1
  00059	ff 15 00 00 00
	00		 call	 DWORD PTR __imp_?CalcDirectionQuaternion@ioMath@@SAXAAUD3DXQUATERNION@@ABUD3DXVECTOR3@@@Z
  0005f	59		 pop	 ecx
  00060	59		 pop	 ecx

; 228  : 	SetOrientation( qtRot );

  00061	8d 45 e0	 lea	 eax, DWORD PTR _qtRot$[ebp]
  00064	50		 push	 eax
  00065	8b cb		 mov	 ecx, ebx
  00067	e8 00 00 00 00	 call	 ?SetOrientation@ioWeapon@@QAEXABUD3DXQUATERNION@@@Z ; ioWeapon::SetOrientation

; 229  : }

  0006c	8b 4d fc	 mov	 ecx, DWORD PTR __$ArrayPad$[ebp]
  0006f	5f		 pop	 edi
  00070	5e		 pop	 esi
  00071	33 cd		 xor	 ecx, ebp
  00073	5b		 pop	 ebx
  00074	e8 00 00 00 00	 call	 @__security_check_cookie@4
  00079	c9		 leave
  0007a	c2 04 00	 ret	 4
?SetMoveDir@ioBombMissileWeapon3@@UAEXABUD3DXVECTOR3@@@Z ENDP ; ioBombMissileWeapon3::SetMoveDir
_TEXT	ENDS
PUBLIC	?SetStartPosition@ioBombMissileWeapon3@@UAEXABUD3DXVECTOR3@@PAVioPlayStage@@@Z ; ioBombMissileWeapon3::SetStartPosition
EXTRN	?GetOwner@ioWeapon@@QBEPAVioBaseChar@@XZ:PROC	; ioWeapon::GetOwner
EXTRN	?SetPosition@ioWeapon@@QAEXABUD3DXVECTOR3@@@Z:PROC ; ioWeapon::SetPosition
EXTRN	__imp_??1ioHashString@@QAE@XZ:PROC
EXTRN	__imp_?HasLinkedSystem@ioEffect@@QBE_NXZ:PROC
EXTRN	__imp_?IsEmpty@ioHashString@@QBE_NXZ:PROC
EXTRN	__imp_?GetSkeletonName@ioEffect@@QBE?AVioHashString@@XZ:PROC
EXTRN	___CxxFrameHandler3:PROC
EXTRN	__EH_epilog3:PROC
EXTRN	__EH_prolog3:PROC
;	COMDAT xdata$x
xdata$x	SEGMENT
__unwindtable$?SetStartPosition@ioBombMissileWeapon3@@UAEXABUD3DXVECTOR3@@PAVioPlayStage@@@Z DD 0ffffffffH
	DD	FLAT:__unwindfunclet$?SetStartPosition@ioBombMissileWeapon3@@UAEXABUD3DXVECTOR3@@PAVioPlayStage@@@Z$0
__ehfuncinfo$?SetStartPosition@ioBombMissileWeapon3@@UAEXABUD3DXVECTOR3@@PAVioPlayStage@@@Z DD 019930522H
	DD	01H
	DD	FLAT:__unwindtable$?SetStartPosition@ioBombMissileWeapon3@@UAEXABUD3DXVECTOR3@@PAVioPlayStage@@@Z
	DD	2 DUP(00H)
	DD	2 DUP(00H)
	DD	00H
	DD	01H
; Function compile flags: /Ogsp
xdata$x	ENDS
;	COMDAT ?SetStartPosition@ioBombMissileWeapon3@@UAEXABUD3DXVECTOR3@@PAVioPlayStage@@@Z
_TEXT	SEGMENT
$T599397 = -32						; size = 16
$T599400 = -16						; size = 4
__$EHRec$ = -12						; size = 12
_vPos$ = 8						; size = 4
_pStage$ = 12						; size = 4
?SetStartPosition@ioBombMissileWeapon3@@UAEXABUD3DXVECTOR3@@PAVioPlayStage@@@Z PROC ; ioBombMissileWeapon3::SetStartPosition, COMDAT
; _this$ = ecx

; 273  : {

  00000	6a 14		 push	 20			; 00000014H
  00002	b8 00 00 00 00	 mov	 eax, __ehhandler$?SetStartPosition@ioBombMissileWeapon3@@UAEXABUD3DXVECTOR3@@PAVioPlayStage@@@Z
  00007	e8 00 00 00 00	 call	 __EH_prolog3
  0000c	8b f1		 mov	 esi, ecx
  0000e	83 65 f0 00	 and	 DWORD PTR $T599400[ebp], 0

; 274  : 	if( m_pBombMesh && m_pBombMesh->GetSkeletonName().IsEmpty() && m_pBombMesh->HasLinkedSystem() )

  00012	8b 8e ec 08 00
	00		 mov	 ecx, DWORD PTR [esi+2284]
  00018	85 c9		 test	 ecx, ecx
  0001a	74 35		 je	 SHORT $LN4@SetStartPo
  0001c	8d 45 e0	 lea	 eax, DWORD PTR $T599397[ebp]
  0001f	50		 push	 eax
  00020	ff 15 00 00 00
	00		 call	 DWORD PTR __imp_?GetSkeletonName@ioEffect@@QBE?AVioHashString@@XZ
  00026	83 65 fc 00	 and	 DWORD PTR __$EHRec$[ebp+8], 0
  0002a	8b c8		 mov	 ecx, eax
  0002c	c7 45 f0 01 00
	00 00		 mov	 DWORD PTR $T599400[ebp], 1
  00033	ff 15 00 00 00
	00		 call	 DWORD PTR __imp_?IsEmpty@ioHashString@@QBE_NXZ
  00039	84 c0		 test	 al, al
  0003b	74 14		 je	 SHORT $LN4@SetStartPo
  0003d	8b 8e ec 08 00
	00		 mov	 ecx, DWORD PTR [esi+2284]
  00043	ff 15 00 00 00
	00		 call	 DWORD PTR __imp_?HasLinkedSystem@ioEffect@@QBE_NXZ
  00049	84 c0		 test	 al, al
  0004b	74 04		 je	 SHORT $LN4@SetStartPo
  0004d	b3 01		 mov	 bl, 1
  0004f	eb 02		 jmp	 SHORT $LN5@SetStartPo
$LN4@SetStartPo:
  00051	32 db		 xor	 bl, bl
$LN5@SetStartPo:
  00053	83 4d fc ff	 or	 DWORD PTR __$EHRec$[ebp+8], -1
  00057	f6 45 f0 01	 test	 BYTE PTR $T599400[ebp], 1
  0005b	74 09		 je	 SHORT $LN8@SetStartPo
  0005d	8d 4d e0	 lea	 ecx, DWORD PTR $T599397[ebp]
  00060	ff 15 00 00 00
	00		 call	 DWORD PTR __imp_??1ioHashString@@QAE@XZ
$LN8@SetStartPo:
  00066	84 db		 test	 bl, bl
  00068	75 11		 jne	 SHORT $LN2@SetStartPo

; 275  : 		return;
; 276  : 
; 277  : 	SetPosition( vPos );

  0006a	ff 75 08	 push	 DWORD PTR _vPos$[ebp]
  0006d	8b ce		 mov	 ecx, esi
  0006f	e8 00 00 00 00	 call	 ?SetPosition@ioWeapon@@QAEXABUD3DXVECTOR3@@@Z ; ioWeapon::SetPosition

; 278  : 	ioBaseChar *pOwner = GetOwner();

  00074	8b ce		 mov	 ecx, esi
  00076	e8 00 00 00 00	 call	 ?GetOwner@ioWeapon@@QBEPAVioBaseChar@@XZ ; ioWeapon::GetOwner
$LN2@SetStartPo:

; 279  : }

  0007b	e8 00 00 00 00	 call	 __EH_epilog3
  00080	c2 08 00	 ret	 8
_TEXT	ENDS
;	COMDAT text$x
text$x	SEGMENT
__unwindfunclet$?SetStartPosition@ioBombMissileWeapon3@@UAEXABUD3DXVECTOR3@@PAVioPlayStage@@@Z$0:
  00000	8b 45 f0	 mov	 eax, DWORD PTR $T599400[ebp]
  00003	83 e0 01	 and	 eax, 1
  00006	0f 84 0d 00 00
	00		 je	 $LN7@SetStartPo
  0000c	83 65 f0 fe	 and	 DWORD PTR $T599400[ebp], -2 ; fffffffeH
  00010	8d 4d e0	 lea	 ecx, DWORD PTR $T599397[ebp]
  00013	ff 25 00 00 00
	00		 jmp	 DWORD PTR __imp_??1ioHashString@@QAE@XZ
$LN7@SetStartPo:
  00019	c3		 ret	 0
__ehhandler$?SetStartPosition@ioBombMissileWeapon3@@UAEXABUD3DXVECTOR3@@PAVioPlayStage@@@Z:
  0001a	8b 54 24 08	 mov	 edx, DWORD PTR [esp+8]
  0001e	8d 42 0c	 lea	 eax, DWORD PTR [edx+12]
  00021	8b 4a dc	 mov	 ecx, DWORD PTR [edx-36]
  00024	33 c8		 xor	 ecx, eax
  00026	e8 00 00 00 00	 call	 @__security_check_cookie@4
  0002b	b8 00 00 00 00	 mov	 eax, OFFSET __ehfuncinfo$?SetStartPosition@ioBombMissileWeapon3@@UAEXABUD3DXVECTOR3@@PAVioPlayStage@@@Z
  00030	e9 00 00 00 00	 jmp	 ___CxxFrameHandler3
text$x	ENDS
?SetStartPosition@ioBombMissileWeapon3@@UAEXABUD3DXVECTOR3@@PAVioPlayStage@@@Z ENDP ; ioBombMissileWeapon3::SetStartPosition
PUBLIC	?DestroyResource@ioBombMissileWeapon3@@UAEXPAVioPlayStage@@@Z ; ioBombMissileWeapon3::DestroyResource
EXTRN	__imp_?DestroyEffect@ioEffectFactory@@QAEXPAVioEffect@@@Z:PROC
EXTRN	__imp_?GetSingleton@ioEffectFactory@@SAAAV1@XZ:PROC
; Function compile flags: /Ogsp
;	COMDAT ?DestroyResource@ioBombMissileWeapon3@@UAEXPAVioPlayStage@@@Z
_TEXT	SEGMENT
_pStage$ = 8						; size = 4
?DestroyResource@ioBombMissileWeapon3@@UAEXPAVioPlayStage@@@Z PROC ; ioBombMissileWeapon3::DestroyResource, COMDAT
; _this$ = ecx

; 484  : {

  00000	56		 push	 esi

; 485  : 	if( m_pBombMesh )

  00001	8d b1 ec 08 00
	00		 lea	 esi, DWORD PTR [ecx+2284]
  00007	8b 06		 mov	 eax, DWORD PTR [esi]
  00009	85 c0		 test	 eax, eax
  0000b	74 12		 je	 SHORT $LN1@DestroyRes

; 486  : 	{
; 487  : 		g_EffectFactory.DestroyEffect( m_pBombMesh );

  0000d	50		 push	 eax
  0000e	ff 15 00 00 00
	00		 call	 DWORD PTR __imp_?GetSingleton@ioEffectFactory@@SAAAV1@XZ
  00014	8b c8		 mov	 ecx, eax
  00016	ff 15 00 00 00
	00		 call	 DWORD PTR __imp_?DestroyEffect@ioEffectFactory@@QAEXPAVioEffect@@@Z

; 488  : 		m_pBombMesh = NULL;

  0001c	83 26 00	 and	 DWORD PTR [esi], 0
$LN1@DestroyRes:
  0001f	5e		 pop	 esi

; 489  : 	}
; 490  : }

  00020	c2 04 00	 ret	 4
?DestroyResource@ioBombMissileWeapon3@@UAEXPAVioPlayStage@@@Z ENDP ; ioBombMissileWeapon3::DestroyResource
_TEXT	ENDS
PUBLIC	?GetLocalAttackBox@ioBombMissileWeapon3@@UBEABVioOrientBox@@XZ ; ioBombMissileWeapon3::GetLocalAttackBox
; Function compile flags: /Ogsp
;	COMDAT ?GetLocalAttackBox@ioBombMissileWeapon3@@UBEABVioOrientBox@@XZ
_TEXT	SEGMENT
?GetLocalAttackBox@ioBombMissileWeapon3@@UBEABVioOrientBox@@XZ PROC ; ioBombMissileWeapon3::GetLocalAttackBox, COMDAT
; _this$ = ecx

; 494  : 	return m_LocalAttackBox;

  00000	8d 81 9c 08 00
	00		 lea	 eax, DWORD PTR [ecx+2204]

; 495  : }

  00006	c3		 ret	 0
?GetLocalAttackBox@ioBombMissileWeapon3@@UBEABVioOrientBox@@XZ ENDP ; ioBombMissileWeapon3::GetLocalAttackBox
_TEXT	ENDS
PUBLIC	?GetType@ioBombMissileWeapon3@@UBE?AW4WeaponType@ioWeapon@@XZ ; ioBombMissileWeapon3::GetType
; Function compile flags: /Ogsp
;	COMDAT ?GetType@ioBombMissileWeapon3@@UBE?AW4WeaponType@ioWeapon@@XZ
_TEXT	SEGMENT
?GetType@ioBombMissileWeapon3@@UBE?AW4WeaponType@ioWeapon@@XZ PROC ; ioBombMissileWeapon3::GetType, COMDAT
; _this$ = ecx

; 499  : 	return WT_BOMB_MISSILE3;

  00000	6a 4b		 push	 75			; 0000004bH
  00002	58		 pop	 eax

; 500  : }

  00003	c3		 ret	 0
?GetType@ioBombMissileWeapon3@@UBE?AW4WeaponType@ioWeapon@@XZ ENDP ; ioBombMissileWeapon3::GetType
_TEXT	ENDS
PUBLIC	?GetActionStopType@ioBombMissileWeapon3@@UBE?AW4ActionStopType@@XZ ; ioBombMissileWeapon3::GetActionStopType
; Function compile flags: /Ogsp
;	COMDAT ?GetActionStopType@ioBombMissileWeapon3@@UBE?AW4ActionStopType@@XZ
_TEXT	SEGMENT
?GetActionStopType@ioBombMissileWeapon3@@UBE?AW4ActionStopType@@XZ PROC ; ioBombMissileWeapon3::GetActionStopType, COMDAT
; _this$ = ecx

; 504  : 	return m_ActionStopType;

  00000	a1 00 00 00 00	 mov	 eax, DWORD PTR ?m_ActionStopType@ioBombMissileWeapon3@@2W4ActionStopType@@A ; ioBombMissileWeapon3::m_ActionStopType

; 505  : }

  00005	c3		 ret	 0
?GetActionStopType@ioBombMissileWeapon3@@UBE?AW4ActionStopType@@XZ ENDP ; ioBombMissileWeapon3::GetActionStopType
_TEXT	ENDS
PUBLIC	?GetDieActionStopType@ioBombMissileWeapon3@@UBE?AW4ActionStopType@@XZ ; ioBombMissileWeapon3::GetDieActionStopType
; Function compile flags: /Ogsp
;	COMDAT ?GetDieActionStopType@ioBombMissileWeapon3@@UBE?AW4ActionStopType@@XZ
_TEXT	SEGMENT
?GetDieActionStopType@ioBombMissileWeapon3@@UBE?AW4ActionStopType@@XZ PROC ; ioBombMissileWeapon3::GetDieActionStopType, COMDAT
; _this$ = ecx

; 509  : 	return m_DieActionStopType;

  00000	a1 00 00 00 00	 mov	 eax, DWORD PTR ?m_DieActionStopType@ioBombMissileWeapon3@@2W4ActionStopType@@A ; ioBombMissileWeapon3::m_DieActionStopType

; 510  : }

  00005	c3		 ret	 0
?GetDieActionStopType@ioBombMissileWeapon3@@UBE?AW4ActionStopType@@XZ ENDP ; ioBombMissileWeapon3::GetDieActionStopType
_TEXT	ENDS
PUBLIC	__real@00000000
PUBLIC	?GetMoveSpeed@ioBombMissileWeapon3@@QAEMXZ	; ioBombMissileWeapon3::GetMoveSpeed
;	COMDAT __real@00000000
CONST	SEGMENT
__real@00000000 DD 000000000r			; 0
; Function compile flags: /Ogsp
CONST	ENDS
;	COMDAT ?GetMoveSpeed@ioBombMissileWeapon3@@QAEMXZ
_TEXT	SEGMENT
?GetMoveSpeed@ioBombMissileWeapon3@@QAEMXZ PROC		; ioBombMissileWeapon3::GetMoveSpeed, COMDAT
; _this$ = ecx

; 514  : 	if( m_fCurMoveSpeed == 0.0f )

  00000	f3 0f 10 81 2c
	09 00 00	 movss	 xmm0, DWORD PTR [ecx+2348]
  00008	0f 2e 05 00 00
	00 00		 ucomiss xmm0, DWORD PTR __real@00000000
  0000f	9f		 lahf
  00010	f6 c4 44	 test	 ah, 68			; 00000044H
  00013	7a 0c		 jp	 SHORT $LN1@GetMoveSpe

; 515  : 		m_fCurMoveSpeed = m_fStartSpeed;

  00015	d9 81 54 09 00
	00		 fld	 DWORD PTR [ecx+2388]
  0001b	d9 99 2c 09 00
	00		 fstp	 DWORD PTR [ecx+2348]
$LN1@GetMoveSpe:

; 516  : 
; 517  : 	return m_fCurMoveSpeed;

  00021	d9 81 2c 09 00
	00		 fld	 DWORD PTR [ecx+2348]

; 518  : }

  00027	c3		 ret	 0
?GetMoveSpeed@ioBombMissileWeapon3@@QAEMXZ ENDP		; ioBombMissileWeapon3::GetMoveSpeed
_TEXT	ENDS
PUBLIC	?IsFloating@ioBombMissileWeapon3@@QBE_NXZ	; ioBombMissileWeapon3::IsFloating
; Function compile flags: /Ogsp
;	COMDAT ?IsFloating@ioBombMissileWeapon3@@QBE_NXZ
_TEXT	SEGMENT
?IsFloating@ioBombMissileWeapon3@@QBE_NXZ PROC		; ioBombMissileWeapon3::IsFloating, COMDAT
; _this$ = ecx

; 607  : 	if( m_BombState == BS_FLOATING_AIR )

  00000	83 b9 94 08 00
	00 00		 cmp	 DWORD PTR [ecx+2196], 0
  00007	0f 94 c0	 sete	 al

; 608  : 		return true;
; 609  : 
; 610  : 	return false;
; 611  : }

  0000a	c3		 ret	 0
?IsFloating@ioBombMissileWeapon3@@QBE_NXZ ENDP		; ioBombMissileWeapon3::IsFloating
_TEXT	ENDS
PUBLIC	?IsExplosion@ioBombMissileWeapon3@@QBE_NXZ	; ioBombMissileWeapon3::IsExplosion
; Function compile flags: /Ogsp
;	COMDAT ?IsExplosion@ioBombMissileWeapon3@@QBE_NXZ
_TEXT	SEGMENT
?IsExplosion@ioBombMissileWeapon3@@QBE_NXZ PROC		; ioBombMissileWeapon3::IsExplosion, COMDAT
; _this$ = ecx

; 615  : 	if( m_BombState == BS_WAIT_CLOSE || m_BombState == BS_EXPLOSION_END )

  00000	8b 81 94 08 00
	00		 mov	 eax, DWORD PTR [ecx+2196]
  00006	83 f8 02	 cmp	 eax, 2
  00009	74 08		 je	 SHORT $LN1@IsExplosio
  0000b	83 f8 04	 cmp	 eax, 4
  0000e	74 03		 je	 SHORT $LN1@IsExplosio

; 617  : 
; 618  : 	return false;

  00010	32 c0		 xor	 al, al

; 619  : }

  00012	c3		 ret	 0
$LN1@IsExplosio:

; 616  : 		return true;

  00013	b0 01		 mov	 al, 1

; 619  : }

  00015	c3		 ret	 0
?IsExplosion@ioBombMissileWeapon3@@QBE_NXZ ENDP		; ioBombMissileWeapon3::IsExplosion
_TEXT	ENDS
PUBLIC	?GetCollisionEnableTime@ioBombMissileWeapon3@@UBEKXZ ; ioBombMissileWeapon3::GetCollisionEnableTime
; Function compile flags: /Ogsp
;	COMDAT ?GetCollisionEnableTime@ioBombMissileWeapon3@@UBEKXZ
_TEXT	SEGMENT
?GetCollisionEnableTime@ioBombMissileWeapon3@@UBEKXZ PROC ; ioBombMissileWeapon3::GetCollisionEnableTime, COMDAT
; _this$ = ecx

; 753  : {

  00000	56		 push	 esi
  00001	8b f1		 mov	 esi, ecx

; 754  : 	if( m_BombState == BS_WAIT_CLOSE || m_BombState == BS_EXPLOSION_END )

  00003	8b 86 94 08 00
	00		 mov	 eax, DWORD PTR [esi+2196]
  00009	83 f8 02	 cmp	 eax, 2
  0000c	74 1b		 je	 SHORT $LN1@GetCollisi
  0000e	83 f8 04	 cmp	 eax, 4
  00011	74 16		 je	 SHORT $LN1@GetCollisi

; 756  : 
; 757  : 	return m_dwCreatedTime + GetAttribute()->m_dwCollisionDelay;

  00013	8b 06		 mov	 eax, DWORD PTR [esi]
  00015	ff 90 3c 01 00
	00		 call	 DWORD PTR [eax+316]
  0001b	8b 80 c4 01 00
	00		 mov	 eax, DWORD PTR [eax+452]
  00021	03 86 d4 04 00
	00		 add	 eax, DWORD PTR [esi+1236]
  00027	5e		 pop	 esi

; 758  : }

  00028	c3		 ret	 0
$LN1@GetCollisi:

; 755  : 		return m_dwCreatedTime;

  00029	8b 86 d4 04 00
	00		 mov	 eax, DWORD PTR [esi+1236]
  0002f	5e		 pop	 esi

; 758  : }

  00030	c3		 ret	 0
?GetCollisionEnableTime@ioBombMissileWeapon3@@UBEKXZ ENDP ; ioBombMissileWeapon3::GetCollisionEnableTime
_TEXT	ENDS
PUBLIC	?empty@?$vector@UWeaponInfo@@V?$allocator@UWeaponInfo@@@std@@@std@@QBE_NXZ ; std::vector<WeaponInfo,std::allocator<WeaponInfo> >::empty
; Function compile flags: /Ogsp
; File c:\program files (x86)\microsoft visual studio 10.0\vc\include\vector
;	COMDAT ?empty@?$vector@UWeaponInfo@@V?$allocator@UWeaponInfo@@@std@@@std@@QBE_NXZ
_TEXT	SEGMENT
?empty@?$vector@UWeaponInfo@@V?$allocator@UWeaponInfo@@@std@@@std@@QBE_NXZ PROC ; std::vector<WeaponInfo,std::allocator<WeaponInfo> >::empty, COMDAT
; _this$ = ecx

; 889  : 		return (this->_Myfirst == this->_Mylast);

  00000	8b 01		 mov	 eax, DWORD PTR [ecx]
  00002	2b 41 04	 sub	 eax, DWORD PTR [ecx+4]
  00005	f7 d8		 neg	 eax
  00007	1b c0		 sbb	 eax, eax
  00009	40		 inc	 eax

; 890  : 		}

  0000a	c3		 ret	 0
?empty@?$vector@UWeaponInfo@@V?$allocator@UWeaponInfo@@@std@@@std@@QBE_NXZ ENDP ; std::vector<WeaponInfo,std::allocator<WeaponInfo> >::empty
_TEXT	ENDS
PUBLIC	?empty@?$vector@UChangeDirInfo@@V?$allocator@UChangeDirInfo@@@std@@@std@@QBE_NXZ ; std::vector<ChangeDirInfo,std::allocator<ChangeDirInfo> >::empty
; Function compile flags: /Ogsp
;	COMDAT ?empty@?$vector@UChangeDirInfo@@V?$allocator@UChangeDirInfo@@@std@@@std@@QBE_NXZ
_TEXT	SEGMENT
?empty@?$vector@UChangeDirInfo@@V?$allocator@UChangeDirInfo@@@std@@@std@@QBE_NXZ PROC ; std::vector<ChangeDirInfo,std::allocator<ChangeDirInfo> >::empty, COMDAT
; _this$ = ecx

; 889  : 		return (this->_Myfirst == this->_Mylast);

  00000	8b 01		 mov	 eax, DWORD PTR [ecx]
  00002	2b 41 04	 sub	 eax, DWORD PTR [ecx+4]
  00005	f7 d8		 neg	 eax
  00007	1b c0		 sbb	 eax, eax
  00009	40		 inc	 eax

; 890  : 		}

  0000a	c3		 ret	 0
?empty@?$vector@UChangeDirInfo@@V?$allocator@UChangeDirInfo@@@std@@@std@@QBE_NXZ ENDP ; std::vector<ChangeDirInfo,std::allocator<ChangeDirInfo> >::empty
_TEXT	ENDS
PUBLIC	??A?$vector@UChangeDirInfo@@V?$allocator@UChangeDirInfo@@@std@@@std@@QAEAAUChangeDirInfo@@I@Z ; std::vector<ChangeDirInfo,std::allocator<ChangeDirInfo> >::operator[]
; Function compile flags: /Ogsp
;	COMDAT ??A?$vector@UChangeDirInfo@@V?$allocator@UChangeDirInfo@@@std@@@std@@QAEAAUChangeDirInfo@@I@Z
_TEXT	SEGMENT
__Pos$ = 8						; size = 4
??A?$vector@UChangeDirInfo@@V?$allocator@UChangeDirInfo@@@std@@@std@@QAEAAUChangeDirInfo@@I@Z PROC ; std::vector<ChangeDirInfo,std::allocator<ChangeDirInfo> >::operator[], COMDAT
; _this$ = ecx

; 928  : 		{	// subscript mutable sequence

  00000	55		 push	 ebp
  00001	8b ec		 mov	 ebp, esp

; 929  :  #if _ITERATOR_DEBUG_LEVEL == 2
; 930  : 		if (size() <= _Pos)
; 931  : 			{	// report error
; 932  : 			_DEBUG_ERROR("vector subscript out of range");
; 933  : 			_SCL_SECURE_OUT_OF_RANGE;
; 934  : 			}
; 935  : 
; 936  :  #elif _ITERATOR_DEBUG_LEVEL == 1
; 937  : 		_SCL_SECURE_VALIDATE_RANGE(_Pos < size());
; 938  :  #endif /* _ITERATOR_DEBUG_LEVEL */
; 939  : 
; 940  : 		return (*(this->_Myfirst + _Pos));

  00003	8b 45 08	 mov	 eax, DWORD PTR __Pos$[ebp]
  00006	6b c0 1c	 imul	 eax, 28			; 0000001cH
  00009	03 01		 add	 eax, DWORD PTR [ecx]

; 941  : 		}

  0000b	5d		 pop	 ebp
  0000c	c2 04 00	 ret	 4
??A?$vector@UChangeDirInfo@@V?$allocator@UChangeDirInfo@@@std@@@std@@QAEAAUChangeDirInfo@@I@Z ENDP ; std::vector<ChangeDirInfo,std::allocator<ChangeDirInfo> >::operator[]
_TEXT	ENDS
PUBLIC	?_Inside@?$vector@UWeaponInfo@@V?$allocator@UWeaponInfo@@@std@@@std@@IBE_NPBUWeaponInfo@@@Z ; std::vector<WeaponInfo,std::allocator<WeaponInfo> >::_Inside
; Function compile flags: /Ogsp
;	COMDAT ?_Inside@?$vector@UWeaponInfo@@V?$allocator@UWeaponInfo@@@std@@@std@@IBE_NPBUWeaponInfo@@@Z
_TEXT	SEGMENT
__Ptr$ = 8						; size = 4
?_Inside@?$vector@UWeaponInfo@@V?$allocator@UWeaponInfo@@@std@@@std@@IBE_NPBUWeaponInfo@@@Z PROC ; std::vector<WeaponInfo,std::allocator<WeaponInfo> >::_Inside, COMDAT
; _this$ = ecx

; 1285 : 		{	// test if _Ptr points inside vector

  00000	55		 push	 ebp
  00001	8b ec		 mov	 ebp, esp

; 1286 : 		return (_Ptr < this->_Mylast && this->_Myfirst <= _Ptr);

  00003	8b 45 08	 mov	 eax, DWORD PTR __Ptr$[ebp]
  00006	3b 41 04	 cmp	 eax, DWORD PTR [ecx+4]
  00009	73 09		 jae	 SHORT $LN3@Inside
  0000b	39 01		 cmp	 DWORD PTR [ecx], eax
  0000d	77 05		 ja	 SHORT $LN3@Inside
  0000f	33 c0		 xor	 eax, eax
  00011	40		 inc	 eax
  00012	eb 02		 jmp	 SHORT $LN4@Inside
$LN3@Inside:
  00014	33 c0		 xor	 eax, eax
$LN4@Inside:

; 1287 : 		}

  00016	5d		 pop	 ebp
  00017	c2 04 00	 ret	 4
?_Inside@?$vector@UWeaponInfo@@V?$allocator@UWeaponInfo@@@std@@@std@@IBE_NPBUWeaponInfo@@@Z ENDP ; std::vector<WeaponInfo,std::allocator<WeaponInfo> >::_Inside
_TEXT	ENDS
PUBLIC	?_Orphan_range@?$vector@UWeaponInfo@@V?$allocator@UWeaponInfo@@@std@@@std@@IBEXPAUWeaponInfo@@0@Z ; std::vector<WeaponInfo,std::allocator<WeaponInfo> >::_Orphan_range
; Function compile flags: /Ogsp
;	COMDAT ?_Orphan_range@?$vector@UWeaponInfo@@V?$allocator@UWeaponInfo@@@std@@@std@@IBEXPAUWeaponInfo@@0@Z
_TEXT	SEGMENT
___formal$ = 8						; size = 4
___formal$ = 12						; size = 4
?_Orphan_range@?$vector@UWeaponInfo@@V?$allocator@UWeaponInfo@@@std@@@std@@IBEXPAUWeaponInfo@@0@Z PROC ; std::vector<WeaponInfo,std::allocator<WeaponInfo> >::_Orphan_range, COMDAT
; _this$ = ecx

; 1454 : 		}

  00000	c2 08 00	 ret	 8
?_Orphan_range@?$vector@UWeaponInfo@@V?$allocator@UWeaponInfo@@@std@@@std@@IBEXPAUWeaponInfo@@0@Z ENDP ; std::vector<WeaponInfo,std::allocator<WeaponInfo> >::_Orphan_range
_TEXT	ENDS
PUBLIC	??0?$_Vector_const_iterator@V?$_Vector_val@UWeaponInfo@@V?$allocator@UWeaponInfo@@@std@@@std@@@std@@QAE@XZ ; std::_Vector_const_iterator<std::_Vector_val<WeaponInfo,std::allocator<WeaponInfo> > >::_Vector_const_iterator<std::_Vector_val<WeaponInfo,std::allocator<WeaponInfo> > >
; Function compile flags: /Ogsp
;	COMDAT ??0?$_Vector_const_iterator@V?$_Vector_val@UWeaponInfo@@V?$allocator@UWeaponInfo@@@std@@@std@@@std@@QAE@XZ
_TEXT	SEGMENT
??0?$_Vector_const_iterator@V?$_Vector_val@UWeaponInfo@@V?$allocator@UWeaponInfo@@@std@@@std@@@std@@QAE@XZ PROC ; std::_Vector_const_iterator<std::_Vector_val<WeaponInfo,std::allocator<WeaponInfo> > >::_Vector_const_iterator<std::_Vector_val<WeaponInfo,std::allocator<WeaponInfo> > >, COMDAT
; _this$ = ecx

; 40   : 		{	// construct with null pointer

  00000	8b c1		 mov	 eax, ecx
  00002	83 20 00	 and	 DWORD PTR [eax], 0

; 41   : 		}

  00005	c3		 ret	 0
??0?$_Vector_const_iterator@V?$_Vector_val@UWeaponInfo@@V?$allocator@UWeaponInfo@@@std@@@std@@@std@@QAE@XZ ENDP ; std::_Vector_const_iterator<std::_Vector_val<WeaponInfo,std::allocator<WeaponInfo> > >::_Vector_const_iterator<std::_Vector_val<WeaponInfo,std::allocator<WeaponInfo> > >
_TEXT	ENDS
PUBLIC	??D?$_Vector_const_iterator@V?$_Vector_val@UWeaponInfo@@V?$allocator@UWeaponInfo@@@std@@@std@@@std@@QBEABUWeaponInfo@@XZ ; std::_Vector_const_iterator<std::_Vector_val<WeaponInfo,std::allocator<WeaponInfo> > >::operator*
; Function compile flags: /Ogsp
;	COMDAT ??D?$_Vector_const_iterator@V?$_Vector_val@UWeaponInfo@@V?$allocator@UWeaponInfo@@@std@@@std@@@std@@QBEABUWeaponInfo@@XZ
_TEXT	SEGMENT
??D?$_Vector_const_iterator@V?$_Vector_val@UWeaponInfo@@V?$allocator@UWeaponInfo@@@std@@@std@@@std@@QBEABUWeaponInfo@@XZ PROC ; std::_Vector_const_iterator<std::_Vector_val<WeaponInfo,std::allocator<WeaponInfo> > >::operator*, COMDAT
; _this$ = ecx

; 64   :  #if _ITERATOR_DEBUG_LEVEL == 2
; 65   : 		if (this->_Getcont() == 0
; 66   : 			|| this->_Ptr == 0
; 67   : 			|| this->_Ptr < ((_Myvec *)this->_Getcont())->_Myfirst
; 68   : 			|| ((_Myvec *)this->_Getcont())->_Mylast <= this->_Ptr)
; 69   : 			{	// report error
; 70   : 			_DEBUG_ERROR("vector iterator not dereferencable");
; 71   : 			_SCL_SECURE_OUT_OF_RANGE;
; 72   : 			}
; 73   : 
; 74   :  #elif _ITERATOR_DEBUG_LEVEL == 1
; 75   : 		_SCL_SECURE_VALIDATE(this->_Getcont() != 0);
; 76   : 		_SCL_SECURE_VALIDATE_RANGE(
; 77   : 			this->_Ptr != 0
; 78   : 			&& ((_Myvec *)this->_Getcont())->_Myfirst <= this->_Ptr
; 79   : 			&& this->_Ptr < ((_Myvec *)this->_Getcont())->_Mylast);
; 80   :  #endif /* _ITERATOR_DEBUG_LEVEL */
; 81   : 
; 82   : 		__analysis_assume(this->_Ptr != 0);
; 83   : 
; 84   : 		return (*this->_Ptr);

  00000	8b 01		 mov	 eax, DWORD PTR [ecx]

; 85   : 		}

  00002	c3		 ret	 0
??D?$_Vector_const_iterator@V?$_Vector_val@UWeaponInfo@@V?$allocator@UWeaponInfo@@@std@@@std@@@std@@QBEABUWeaponInfo@@XZ ENDP ; std::_Vector_const_iterator<std::_Vector_val<WeaponInfo,std::allocator<WeaponInfo> > >::operator*
_TEXT	ENDS
PUBLIC	??E?$_Vector_const_iterator@V?$_Vector_val@UWeaponInfo@@V?$allocator@UWeaponInfo@@@std@@@std@@@std@@QAEAAV01@XZ ; std::_Vector_const_iterator<std::_Vector_val<WeaponInfo,std::allocator<WeaponInfo> > >::operator++
; Function compile flags: /Ogsp
;	COMDAT ??E?$_Vector_const_iterator@V?$_Vector_val@UWeaponInfo@@V?$allocator@UWeaponInfo@@@std@@@std@@@std@@QAEAAV01@XZ
_TEXT	SEGMENT
??E?$_Vector_const_iterator@V?$_Vector_val@UWeaponInfo@@V?$allocator@UWeaponInfo@@@std@@@std@@@std@@QAEAAV01@XZ PROC ; std::_Vector_const_iterator<std::_Vector_val<WeaponInfo,std::allocator<WeaponInfo> > >::operator++, COMDAT
; _this$ = ecx

; 93   : 		{	// preincrement

  00000	8b c1		 mov	 eax, ecx

; 94   :  #if _ITERATOR_DEBUG_LEVEL == 2
; 95   : 		if (this->_Getcont() == 0
; 96   : 			|| this->_Ptr == 0
; 97   : 			|| ((_Myvec *)this->_Getcont())->_Mylast <= this->_Ptr)
; 98   : 			{	// report error
; 99   : 			_DEBUG_ERROR("vector iterator not incrementable");
; 100  : 			_SCL_SECURE_OUT_OF_RANGE;
; 101  : 			}
; 102  : 
; 103  :  #elif _ITERATOR_DEBUG_LEVEL == 1
; 104  : 		_SCL_SECURE_VALIDATE(this->_Getcont() != 0);
; 105  : 		_SCL_SECURE_VALIDATE_RANGE(
; 106  : 			this->_Ptr != 0
; 107  : 			&& this->_Ptr < ((_Myvec *)this->_Getcont())->_Mylast);
; 108  :  #endif /* _ITERATOR_DEBUG_LEVEL */
; 109  : 
; 110  : 		++this->_Ptr;

  00002	83 00 28	 add	 DWORD PTR [eax], 40	; 00000028H

; 111  : 		return (*this);
; 112  : 		}

  00005	c3		 ret	 0
??E?$_Vector_const_iterator@V?$_Vector_val@UWeaponInfo@@V?$allocator@UWeaponInfo@@@std@@@std@@@std@@QAEAAV01@XZ ENDP ; std::_Vector_const_iterator<std::_Vector_val<WeaponInfo,std::allocator<WeaponInfo> > >::operator++
_TEXT	ENDS
PUBLIC	?capacity@?$vector@UChangeDirInfo@@V?$allocator@UChangeDirInfo@@@std@@@std@@QBEIXZ ; std::vector<ChangeDirInfo,std::allocator<ChangeDirInfo> >::capacity
; Function compile flags: /Ogsp
;	COMDAT ?capacity@?$vector@UChangeDirInfo@@V?$allocator@UChangeDirInfo@@@std@@@std@@QBEIXZ
_TEXT	SEGMENT
?capacity@?$vector@UChangeDirInfo@@V?$allocator@UChangeDirInfo@@@std@@@std@@QBEIXZ PROC ; std::vector<ChangeDirInfo,std::allocator<ChangeDirInfo> >::capacity, COMDAT
; _this$ = ecx

; 777  : 		return (this->_Myend - this->_Myfirst);

  00000	8b 41 08	 mov	 eax, DWORD PTR [ecx+8]
  00003	2b 01		 sub	 eax, DWORD PTR [ecx]
  00005	6a 1c		 push	 28			; 0000001cH
  00007	99		 cdq
  00008	59		 pop	 ecx
  00009	f7 f9		 idiv	 ecx

; 778  : 		}

  0000b	c3		 ret	 0
?capacity@?$vector@UChangeDirInfo@@V?$allocator@UChangeDirInfo@@@std@@@std@@QBEIXZ ENDP ; std::vector<ChangeDirInfo,std::allocator<ChangeDirInfo> >::capacity
_TEXT	ENDS
PUBLIC	?size@?$vector@UChangeDirInfo@@V?$allocator@UChangeDirInfo@@@std@@@std@@QBEIXZ ; std::vector<ChangeDirInfo,std::allocator<ChangeDirInfo> >::size
; Function compile flags: /Ogsp
;	COMDAT ?size@?$vector@UChangeDirInfo@@V?$allocator@UChangeDirInfo@@@std@@@std@@QBEIXZ
_TEXT	SEGMENT
?size@?$vector@UChangeDirInfo@@V?$allocator@UChangeDirInfo@@@std@@@std@@QBEIXZ PROC ; std::vector<ChangeDirInfo,std::allocator<ChangeDirInfo> >::size, COMDAT
; _this$ = ecx

; 879  : 		return (this->_Mylast - this->_Myfirst);

  00000	8b 41 04	 mov	 eax, DWORD PTR [ecx+4]
  00003	2b 01		 sub	 eax, DWORD PTR [ecx]
  00005	6a 1c		 push	 28			; 0000001cH
  00007	99		 cdq
  00008	59		 pop	 ecx
  00009	f7 f9		 idiv	 ecx

; 880  : 		}

  0000b	c3		 ret	 0
?size@?$vector@UChangeDirInfo@@V?$allocator@UChangeDirInfo@@@std@@@std@@QBEIXZ ENDP ; std::vector<ChangeDirInfo,std::allocator<ChangeDirInfo> >::size
_TEXT	ENDS
PUBLIC	?_Inside@?$vector@UChangeDirInfo@@V?$allocator@UChangeDirInfo@@@std@@@std@@IBE_NPBUChangeDirInfo@@@Z ; std::vector<ChangeDirInfo,std::allocator<ChangeDirInfo> >::_Inside
; Function compile flags: /Ogsp
;	COMDAT ?_Inside@?$vector@UChangeDirInfo@@V?$allocator@UChangeDirInfo@@@std@@@std@@IBE_NPBUChangeDirInfo@@@Z
_TEXT	SEGMENT
__Ptr$ = 8						; size = 4
?_Inside@?$vector@UChangeDirInfo@@V?$allocator@UChangeDirInfo@@@std@@@std@@IBE_NPBUChangeDirInfo@@@Z PROC ; std::vector<ChangeDirInfo,std::allocator<ChangeDirInfo> >::_Inside, COMDAT
; _this$ = ecx

; 1285 : 		{	// test if _Ptr points inside vector

  00000	55		 push	 ebp
  00001	8b ec		 mov	 ebp, esp

; 1286 : 		return (_Ptr < this->_Mylast && this->_Myfirst <= _Ptr);

  00003	8b 45 08	 mov	 eax, DWORD PTR __Ptr$[ebp]
  00006	3b 41 04	 cmp	 eax, DWORD PTR [ecx+4]
  00009	73 09		 jae	 SHORT $LN3@Inside@2
  0000b	39 01		 cmp	 DWORD PTR [ecx], eax
  0000d	77 05		 ja	 SHORT $LN3@Inside@2
  0000f	33 c0		 xor	 eax, eax
  00011	40		 inc	 eax
  00012	eb 02		 jmp	 SHORT $LN4@Inside@2
$LN3@Inside@2:
  00014	33 c0		 xor	 eax, eax
$LN4@Inside@2:

; 1287 : 		}

  00016	5d		 pop	 ebp
  00017	c2 04 00	 ret	 4
?_Inside@?$vector@UChangeDirInfo@@V?$allocator@UChangeDirInfo@@@std@@@std@@IBE_NPBUChangeDirInfo@@@Z ENDP ; std::vector<ChangeDirInfo,std::allocator<ChangeDirInfo> >::_Inside
_TEXT	ENDS
PUBLIC	??_C@_0BD@OLBABOEK@vector?$DMT?$DO?5too?5long?$AA@ ; `string'
PUBLIC	?_Xlen@?$vector@UChangeDirInfo@@V?$allocator@UChangeDirInfo@@@std@@@std@@IBEXXZ ; std::vector<ChangeDirInfo,std::allocator<ChangeDirInfo> >::_Xlen
EXTRN	__imp_?_Xlength_error@std@@YAXPBD@Z:PROC
;	COMDAT ??_C@_0BD@OLBABOEK@vector?$DMT?$DO?5too?5long?$AA@
CONST	SEGMENT
??_C@_0BD@OLBABOEK@vector?$DMT?$DO?5too?5long?$AA@ DB 'vector<T> too long'
	DB	00H						; `string'
; Function compile flags: /Ogsp
CONST	ENDS
;	COMDAT ?_Xlen@?$vector@UChangeDirInfo@@V?$allocator@UChangeDirInfo@@@std@@@std@@IBEXXZ
_TEXT	SEGMENT
?_Xlen@?$vector@UChangeDirInfo@@V?$allocator@UChangeDirInfo@@@std@@@std@@IBEXXZ PROC ; std::vector<ChangeDirInfo,std::allocator<ChangeDirInfo> >::_Xlen, COMDAT
; _this$ = ecx

; 1427 : 		_Xlength_error("vector<T> too long");

  00000	68 00 00 00 00	 push	 OFFSET ??_C@_0BD@OLBABOEK@vector?$DMT?$DO?5too?5long?$AA@
  00005	ff 15 00 00 00
	00		 call	 DWORD PTR __imp_?_Xlength_error@std@@YAXPBD@Z
$LN4@Xlen:
$LN3@Xlen:
  0000b	cc		 int	 3
?_Xlen@?$vector@UChangeDirInfo@@V?$allocator@UChangeDirInfo@@@std@@@std@@IBEXXZ ENDP ; std::vector<ChangeDirInfo,std::allocator<ChangeDirInfo> >::_Xlen
_TEXT	ENDS
PUBLIC	?_Orphan_range@?$vector@UChangeDirInfo@@V?$allocator@UChangeDirInfo@@@std@@@std@@IBEXPAUChangeDirInfo@@0@Z ; std::vector<ChangeDirInfo,std::allocator<ChangeDirInfo> >::_Orphan_range
; Function compile flags: /Ogsp
;	COMDAT ?_Orphan_range@?$vector@UChangeDirInfo@@V?$allocator@UChangeDirInfo@@@std@@@std@@IBEXPAUChangeDirInfo@@0@Z
_TEXT	SEGMENT
___formal$ = 8						; size = 4
___formal$ = 12						; size = 4
?_Orphan_range@?$vector@UChangeDirInfo@@V?$allocator@UChangeDirInfo@@@std@@@std@@IBEXPAUChangeDirInfo@@0@Z PROC ; std::vector<ChangeDirInfo,std::allocator<ChangeDirInfo> >::_Orphan_range, COMDAT
; _this$ = ecx

; 1454 : 		}

  00000	c2 08 00	 ret	 8
?_Orphan_range@?$vector@UChangeDirInfo@@V?$allocator@UChangeDirInfo@@@std@@@std@@IBEXPAUChangeDirInfo@@0@Z ENDP ; std::vector<ChangeDirInfo,std::allocator<ChangeDirInfo> >::_Orphan_range
_TEXT	ENDS
PUBLIC	??1?$_Vector_val@UChangeDirInfo@@V?$allocator@UChangeDirInfo@@@std@@@std@@QAE@XZ ; std::_Vector_val<ChangeDirInfo,std::allocator<ChangeDirInfo> >::~_Vector_val<ChangeDirInfo,std::allocator<ChangeDirInfo> >
; Function compile flags: /Ogsp
;	COMDAT ??1?$_Vector_val@UChangeDirInfo@@V?$allocator@UChangeDirInfo@@@std@@@std@@QAE@XZ
_TEXT	SEGMENT
??1?$_Vector_val@UChangeDirInfo@@V?$allocator@UChangeDirInfo@@@std@@@std@@QAE@XZ PROC ; std::_Vector_val<ChangeDirInfo,std::allocator<ChangeDirInfo> >::~_Vector_val<ChangeDirInfo,std::allocator<ChangeDirInfo> >, COMDAT
; _this$ = ecx

; 434  : 		}

  00000	c3		 ret	 0
??1?$_Vector_val@UChangeDirInfo@@V?$allocator@UChangeDirInfo@@@std@@@std@@QAE@XZ ENDP ; std::_Vector_val<ChangeDirInfo,std::allocator<ChangeDirInfo> >::~_Vector_val<ChangeDirInfo,std::allocator<ChangeDirInfo> >
_TEXT	ENDS
PUBLIC	??0?$allocator@UChangeDirInfo@@@std@@QAE@XZ	; std::allocator<ChangeDirInfo>::allocator<ChangeDirInfo>
; Function compile flags: /Ogsp
; File c:\program files (x86)\microsoft visual studio 10.0\vc\include\xmemory
;	COMDAT ??0?$allocator@UChangeDirInfo@@@std@@QAE@XZ
_TEXT	SEGMENT
??0?$allocator@UChangeDirInfo@@@std@@QAE@XZ PROC	; std::allocator<ChangeDirInfo>::allocator<ChangeDirInfo>, COMDAT
; _this$ = ecx

; 161  : 	_ALLOCATOR() _THROW0()

  00000	8b c1		 mov	 eax, ecx

; 162  : 		{	// construct default allocator (do nothing)
; 163  : 		}

  00002	c3		 ret	 0
??0?$allocator@UChangeDirInfo@@@std@@QAE@XZ ENDP	; std::allocator<ChangeDirInfo>::allocator<ChangeDirInfo>
_TEXT	ENDS
PUBLIC	?deallocate@?$allocator@UChangeDirInfo@@@std@@QAEXPAUChangeDirInfo@@I@Z ; std::allocator<ChangeDirInfo>::deallocate
; Function compile flags: /Ogsp
;	COMDAT ?deallocate@?$allocator@UChangeDirInfo@@@std@@QAEXPAUChangeDirInfo@@I@Z
_TEXT	SEGMENT
__Ptr$ = 8						; size = 4
___formal$ = 12						; size = 4
?deallocate@?$allocator@UChangeDirInfo@@@std@@QAEXPAUChangeDirInfo@@I@Z PROC ; std::allocator<ChangeDirInfo>::deallocate, COMDAT
; _this$ = ecx

; 181  : 		{	// deallocate object at _Ptr, ignore size

  00000	55		 push	 ebp
  00001	8b ec		 mov	 ebp, esp

; 182  : 		::operator delete(_Ptr);

  00003	ff 75 08	 push	 DWORD PTR __Ptr$[ebp]
  00006	e8 00 00 00 00	 call	 ??3@YAXPAX@Z		; operator delete
  0000b	59		 pop	 ecx

; 183  : 		}

  0000c	5d		 pop	 ebp
  0000d	c2 08 00	 ret	 8
?deallocate@?$allocator@UChangeDirInfo@@@std@@QAEXPAUChangeDirInfo@@I@Z ENDP ; std::allocator<ChangeDirInfo>::deallocate
_TEXT	ENDS
PUBLIC	??0?$allocator@UChangeDirInfo@@@std@@QAE@ABV01@@Z ; std::allocator<ChangeDirInfo>::allocator<ChangeDirInfo>
; Function compile flags: /Ogsp
;	COMDAT ??0?$allocator@UChangeDirInfo@@@std@@QAE@ABV01@@Z
_TEXT	SEGMENT
___formal$ = 8						; size = 4
??0?$allocator@UChangeDirInfo@@@std@@QAE@ABV01@@Z PROC	; std::allocator<ChangeDirInfo>::allocator<ChangeDirInfo>, COMDAT
; _this$ = ecx

; 165  : 	_ALLOCATOR(const _ALLOCATOR<_Ty>&) _THROW0()

  00000	8b c1		 mov	 eax, ecx

; 166  : 		{	// construct by copying (do nothing)
; 167  : 		}

  00002	c2 04 00	 ret	 4
??0?$allocator@UChangeDirInfo@@@std@@QAE@ABV01@@Z ENDP	; std::allocator<ChangeDirInfo>::allocator<ChangeDirInfo>
_TEXT	ENDS
PUBLIC	?max_size@?$allocator@UChangeDirInfo@@@std@@QBEIXZ ; std::allocator<ChangeDirInfo>::max_size
; Function compile flags: /Ogsp
;	COMDAT ?max_size@?$allocator@UChangeDirInfo@@@std@@QBEIXZ
_TEXT	SEGMENT
?max_size@?$allocator@UChangeDirInfo@@@std@@QBEIXZ PROC	; std::allocator<ChangeDirInfo>::max_size, COMDAT
; _this$ = ecx

; 218  : 		_SIZT _Count = (_SIZT)(-1) / sizeof (_Ty);
; 219  : 		return (0 < _Count ? _Count : 1);

  00000	b8 49 92 24 09	 mov	 eax, 153391689		; 09249249H

; 220  : 		}

  00005	c3		 ret	 0
?max_size@?$allocator@UChangeDirInfo@@@std@@QBEIXZ ENDP	; std::allocator<ChangeDirInfo>::max_size
_TEXT	ENDS
PUBLIC	??0?$_Vector_const_iterator@V?$_Vector_val@UChangeDirInfo@@V?$allocator@UChangeDirInfo@@@std@@@std@@@std@@QAE@PAUChangeDirInfo@@PBU_Container_base0@1@@Z ; std::_Vector_const_iterator<std::_Vector_val<ChangeDirInfo,std::allocator<ChangeDirInfo> > >::_Vector_const_iterator<std::_Vector_val<ChangeDirInfo,std::allocator<ChangeDirInfo> > >
; Function compile flags: /Ogsp
; File c:\program files (x86)\microsoft visual studio 10.0\vc\include\vector
;	COMDAT ??0?$_Vector_const_iterator@V?$_Vector_val@UChangeDirInfo@@V?$allocator@UChangeDirInfo@@@std@@@std@@@std@@QAE@PAUChangeDirInfo@@PBU_Container_base0@1@@Z
_TEXT	SEGMENT
__Parg$ = 8						; size = 4
__Pvector$ = 12						; size = 4
??0?$_Vector_const_iterator@V?$_Vector_val@UChangeDirInfo@@V?$allocator@UChangeDirInfo@@@std@@@std@@@std@@QAE@PAUChangeDirInfo@@PBU_Container_base0@1@@Z PROC ; std::_Vector_const_iterator<std::_Vector_val<ChangeDirInfo,std::allocator<ChangeDirInfo> > >::_Vector_const_iterator<std::_Vector_val<ChangeDirInfo,std::allocator<ChangeDirInfo> > >, COMDAT
; _this$ = ecx

; 45   : 		{	// construct with pointer _Parg

  00000	55		 push	 ebp
  00001	8b ec		 mov	 ebp, esp
  00003	8b c1		 mov	 eax, ecx
  00005	8b 4d 08	 mov	 ecx, DWORD PTR __Parg$[ebp]
  00008	89 08		 mov	 DWORD PTR [eax], ecx

; 46   : 		this->_Adopt(_Pvector);
; 47   : 		}

  0000a	5d		 pop	 ebp
  0000b	c2 08 00	 ret	 8
??0?$_Vector_const_iterator@V?$_Vector_val@UChangeDirInfo@@V?$allocator@UChangeDirInfo@@@std@@@std@@@std@@QAE@PAUChangeDirInfo@@PBU_Container_base0@1@@Z ENDP ; std::_Vector_const_iterator<std::_Vector_val<ChangeDirInfo,std::allocator<ChangeDirInfo> > >::_Vector_const_iterator<std::_Vector_val<ChangeDirInfo,std::allocator<ChangeDirInfo> > >
_TEXT	ENDS
PUBLIC	?_Compat@?$_Vector_const_iterator@V?$_Vector_val@UChangeDirInfo@@V?$allocator@UChangeDirInfo@@@std@@@std@@@std@@QBEXABV12@@Z ; std::_Vector_const_iterator<std::_Vector_val<ChangeDirInfo,std::allocator<ChangeDirInfo> > >::_Compat
; Function compile flags: /Ogsp
;	COMDAT ?_Compat@?$_Vector_const_iterator@V?$_Vector_val@UChangeDirInfo@@V?$allocator@UChangeDirInfo@@@std@@@std@@@std@@QBEXABV12@@Z
_TEXT	SEGMENT
___formal$ = 8						; size = 4
?_Compat@?$_Vector_const_iterator@V?$_Vector_val@UChangeDirInfo@@V?$allocator@UChangeDirInfo@@@std@@@std@@@std@@QBEXABV12@@Z PROC ; std::_Vector_const_iterator<std::_Vector_val<ChangeDirInfo,std::allocator<ChangeDirInfo> > >::_Compat, COMDAT
; _this$ = ecx

; 253  : 		}

  00000	c2 04 00	 ret	 4
?_Compat@?$_Vector_const_iterator@V?$_Vector_val@UChangeDirInfo@@V?$allocator@UChangeDirInfo@@@std@@@std@@@std@@QBEXABV12@@Z ENDP ; std::_Vector_const_iterator<std::_Vector_val<ChangeDirInfo,std::allocator<ChangeDirInfo> > >::_Compat
_TEXT	ENDS
PUBLIC	__real@3f91df46a2526c7a
PUBLIC	??$DEGtoRAD@M@@YAMM@Z				; DEGtoRAD<float>
;	COMDAT __real@3f91df46a2526c7a
; File d:\lost saga for developer\youtube\tutorial\source\src\lsclient\veryoftenusedefine.h
CONST	SEGMENT
__real@3f91df46a2526c7a DQ 03f91df46a2526c7ar	; 0.0174533
; Function compile flags: /Ogsp
CONST	ENDS
;	COMDAT ??$DEGtoRAD@M@@YAMM@Z
_TEXT	SEGMENT
tv129 = 8						; size = 4
_val$ = 8						; size = 4
??$DEGtoRAD@M@@YAMM@Z PROC				; DEGtoRAD<float>, COMDAT

; 20   : type  DEGtoRAD (type val) {return (type) (val * 0.0174532925199);}

  00000	55		 push	 ebp
  00001	8b ec		 mov	 ebp, esp
  00003	d9 45 08	 fld	 DWORD PTR _val$[ebp]
  00006	dc 0d 00 00 00
	00		 fmul	 QWORD PTR __real@3f91df46a2526c7a
  0000c	d9 5d 08	 fstp	 DWORD PTR tv129[ebp]
  0000f	d9 45 08	 fld	 DWORD PTR tv129[ebp]
  00012	5d		 pop	 ebp
  00013	c3		 ret	 0
??$DEGtoRAD@M@@YAMM@Z ENDP				; DEGtoRAD<float>
_TEXT	ENDS
PUBLIC	??$addressof@$$CBUWeaponInfo@@@std@@YAPBUWeaponInfo@@ABU1@@Z ; std::addressof<WeaponInfo const >
; Function compile flags: /Ogsp
; File c:\program files (x86)\microsoft visual studio 10.0\vc\include\xmemory
;	COMDAT ??$addressof@$$CBUWeaponInfo@@@std@@YAPBUWeaponInfo@@ABU1@@Z
_TEXT	SEGMENT
__Val$ = 8						; size = 4
??$addressof@$$CBUWeaponInfo@@@std@@YAPBUWeaponInfo@@ABU1@@Z PROC ; std::addressof<WeaponInfo const >, COMDAT

; 110  : 	{	// return address of _Val

  00000	55		 push	 ebp
  00001	8b ec		 mov	 ebp, esp

; 111  : 	return ((_Ty *) &(char&)_Val);

  00003	8b 45 08	 mov	 eax, DWORD PTR __Val$[ebp]

; 112  : 	}

  00006	5d		 pop	 ebp
  00007	c3		 ret	 0
??$addressof@$$CBUWeaponInfo@@@std@@YAPBUWeaponInfo@@ABU1@@Z ENDP ; std::addressof<WeaponInfo const >
_TEXT	ENDS
PUBLIC	??$addressof@$$CBUChangeDirInfo@@@std@@YAPBUChangeDirInfo@@ABU1@@Z ; std::addressof<ChangeDirInfo const >
; Function compile flags: /Ogsp
;	COMDAT ??$addressof@$$CBUChangeDirInfo@@@std@@YAPBUChangeDirInfo@@ABU1@@Z
_TEXT	SEGMENT
__Val$ = 8						; size = 4
??$addressof@$$CBUChangeDirInfo@@@std@@YAPBUChangeDirInfo@@ABU1@@Z PROC ; std::addressof<ChangeDirInfo const >, COMDAT

; 110  : 	{	// return address of _Val

  00000	55		 push	 ebp
  00001	8b ec		 mov	 ebp, esp

; 111  : 	return ((_Ty *) &(char&)_Val);

  00003	8b 45 08	 mov	 eax, DWORD PTR __Val$[ebp]

; 112  : 	}

  00006	5d		 pop	 ebp
  00007	c3		 ret	 0
??$addressof@$$CBUChangeDirInfo@@@std@@YAPBUChangeDirInfo@@ABU1@@Z ENDP ; std::addressof<ChangeDirInfo const >
_TEXT	ENDS
PUBLIC	__TI2?AVbad_alloc@std@@
PUBLIC	??$_Allocate@UChangeDirInfo@@@std@@YAPAUChangeDirInfo@@IPAU1@@Z ; std::_Allocate<ChangeDirInfo>
PUBLIC	__CTA2?AVbad_alloc@std@@
PUBLIC	__CT??_R0?AVbad_alloc@std@@@8??0bad_alloc@std@@QAE@ABV01@@Z12
PUBLIC	??0bad_alloc@std@@QAE@ABV01@@Z			; std::bad_alloc::bad_alloc
PUBLIC	__CT??_R0?AVexception@std@@@8??0exception@std@@QAE@ABV01@@Z12
EXTRN	??2@YAPAXI@Z:PROC				; operator new
EXTRN	__CxxThrowException@8:PROC
EXTRN	??0exception@std@@QAE@ABV01@@Z:PROC		; std::exception::exception
;	COMDAT __CT??_R0?AVexception@std@@@8??0exception@std@@QAE@ABV01@@Z12
; File c:\program files (x86)\microsoft visual studio 10.0\vc\include\exception
xdata$x	SEGMENT
__CT??_R0?AVexception@std@@@8??0exception@std@@QAE@ABV01@@Z12 DD 00H
	DD	FLAT:??_R0?AVexception@std@@@8
	DD	00H
	DD	0ffffffffH
	ORG $+4
	DD	0cH
	DD	FLAT:??0exception@std@@QAE@ABV01@@Z
xdata$x	ENDS
;	COMDAT __CT??_R0?AVbad_alloc@std@@@8??0bad_alloc@std@@QAE@ABV01@@Z12
xdata$x	SEGMENT
__CT??_R0?AVbad_alloc@std@@@8??0bad_alloc@std@@QAE@ABV01@@Z12 DD 00H
	DD	FLAT:??_R0?AVbad_alloc@std@@@8
	DD	00H
	DD	0ffffffffH
	ORG $+4
	DD	0cH
	DD	FLAT:??0bad_alloc@std@@QAE@ABV01@@Z
xdata$x	ENDS
;	COMDAT __CTA2?AVbad_alloc@std@@
xdata$x	SEGMENT
__CTA2?AVbad_alloc@std@@ DD 02H
	DD	FLAT:__CT??_R0?AVbad_alloc@std@@@8??0bad_alloc@std@@QAE@ABV01@@Z12
	DD	FLAT:__CT??_R0?AVexception@std@@@8??0exception@std@@QAE@ABV01@@Z12
xdata$x	ENDS
;	COMDAT __TI2?AVbad_alloc@std@@
xdata$x	SEGMENT
__TI2?AVbad_alloc@std@@ DD 00H
	DD	FLAT:??1bad_alloc@std@@UAE@XZ
	DD	00H
	DD	FLAT:__CTA2?AVbad_alloc@std@@
; Function compile flags: /Ogsp
; File c:\program files (x86)\microsoft visual studio 10.0\vc\include\xmemory
xdata$x	ENDS
;	COMDAT ??$_Allocate@UChangeDirInfo@@@std@@YAPAUChangeDirInfo@@IPAU1@@Z
_TEXT	SEGMENT
$T599521 = -12						; size = 12
$T599526 = 8						; size = 4
__Count$ = 8						; size = 4
___formal$ = 12						; size = 4
??$_Allocate@UChangeDirInfo@@@std@@YAPAUChangeDirInfo@@IPAU1@@Z PROC ; std::_Allocate<ChangeDirInfo>, COMDAT

; 30   : 	{	// allocate storage for _Count elements of type _Ty

  00000	55		 push	 ebp
  00001	8b ec		 mov	 ebp, esp

; 31   : 	void *_Ptr = 0;
; 32   : 
; 33   : 	if (_Count <= 0)

  00003	8b 4d 08	 mov	 ecx, DWORD PTR __Count$[ebp]
  00006	83 ec 0c	 sub	 esp, 12			; 0000000cH
  00009	33 c0		 xor	 eax, eax
  0000b	85 c9		 test	 ecx, ecx

; 34   : 		_Count = 0;
; 35   : 	else if (((_SIZT)(-1) / sizeof (_Ty) < _Count)

  0000d	74 3c		 je	 SHORT $LN5@Allocate

; 36   : 		|| (_Ptr = ::operator new(_Count * sizeof (_Ty))) == 0)

  0000f	81 f9 49 92 24
	09		 cmp	 ecx, 153391689		; 09249249H
  00015	77 0e		 ja	 SHORT $LN1@Allocate
  00017	6b c9 1c	 imul	 ecx, 28			; 0000001cH
  0001a	51		 push	 ecx
  0001b	e8 00 00 00 00	 call	 ??2@YAPAXI@Z		; operator new
  00020	59		 pop	 ecx
  00021	85 c0		 test	 eax, eax

; 38   : 
; 39   : 	return ((_Ty _FARQ *)_Ptr);

  00023	75 26		 jne	 SHORT $LN5@Allocate
$LN1@Allocate:

; 37   : 		_THROW_NCEE(bad_alloc, 0);

  00025	83 65 08 00	 and	 DWORD PTR $T599526[ebp], 0
  00029	8d 45 08	 lea	 eax, DWORD PTR $T599526[ebp]
  0002c	50		 push	 eax
  0002d	8d 4d f4	 lea	 ecx, DWORD PTR $T599521[ebp]
  00030	ff 15 00 00 00
	00		 call	 DWORD PTR __imp_??0exception@std@@QAE@ABQBD@Z
  00036	68 00 00 00 00	 push	 OFFSET __TI2?AVbad_alloc@std@@
  0003b	8d 45 f4	 lea	 eax, DWORD PTR $T599521[ebp]
  0003e	50		 push	 eax
  0003f	c7 45 f4 00 00
	00 00		 mov	 DWORD PTR $T599521[ebp], OFFSET ??_7bad_alloc@std@@6B@
  00046	e8 00 00 00 00	 call	 __CxxThrowException@8
$LN10@Allocate:
$LN5@Allocate:

; 40   : 	}

  0004b	c9		 leave
  0004c	c3		 ret	 0
$LN9@Allocate:
??$_Allocate@UChangeDirInfo@@@std@@YAPAUChangeDirInfo@@IPAU1@@Z ENDP ; std::_Allocate<ChangeDirInfo>
_TEXT	ENDS
PUBLIC	??G?$_Vector_const_iterator@V?$_Vector_val@UChangeDirInfo@@V?$allocator@UChangeDirInfo@@@std@@@std@@@std@@QBEHABV01@@Z ; std::_Vector_const_iterator<std::_Vector_val<ChangeDirInfo,std::allocator<ChangeDirInfo> > >::operator-
; Function compile flags: /Ogsp
; File c:\program files (x86)\microsoft visual studio 10.0\vc\include\vector
;	COMDAT ??G?$_Vector_const_iterator@V?$_Vector_val@UChangeDirInfo@@V?$allocator@UChangeDirInfo@@@std@@@std@@@std@@QBEHABV01@@Z
_TEXT	SEGMENT
__Right$ = 8						; size = 4
??G?$_Vector_const_iterator@V?$_Vector_val@UChangeDirInfo@@V?$allocator@UChangeDirInfo@@@std@@@std@@@std@@QBEHABV01@@Z PROC ; std::_Vector_const_iterator<std::_Vector_val<ChangeDirInfo,std::allocator<ChangeDirInfo> > >::operator-, COMDAT
; _this$ = ecx

; 190  : 		{	// return difference of iterators

  00000	55		 push	 ebp
  00001	8b ec		 mov	 ebp, esp

; 191  : 		_Compat(_Right);
; 192  : 		return (this->_Ptr - _Right._Ptr);

  00003	8b 01		 mov	 eax, DWORD PTR [ecx]
  00005	8b 4d 08	 mov	 ecx, DWORD PTR __Right$[ebp]
  00008	2b 01		 sub	 eax, DWORD PTR [ecx]
  0000a	6a 1c		 push	 28			; 0000001cH
  0000c	99		 cdq
  0000d	59		 pop	 ecx
  0000e	f7 f9		 idiv	 ecx

; 193  : 		}

  00010	5d		 pop	 ebp
  00011	c2 04 00	 ret	 4
??G?$_Vector_const_iterator@V?$_Vector_val@UChangeDirInfo@@V?$allocator@UChangeDirInfo@@@std@@@std@@@std@@QBEHABV01@@Z ENDP ; std::_Vector_const_iterator<std::_Vector_val<ChangeDirInfo,std::allocator<ChangeDirInfo> > >::operator-
_TEXT	ENDS
PUBLIC	??$forward@ABUWeaponInfo@@@std@@YAABUWeaponInfo@@ABU1@@Z ; std::forward<WeaponInfo const &>
; Function compile flags: /Ogsp
; File c:\program files (x86)\microsoft visual studio 10.0\vc\include\utility
;	COMDAT ??$forward@ABUWeaponInfo@@@std@@YAABUWeaponInfo@@ABU1@@Z
_TEXT	SEGMENT
__Arg$ = 8						; size = 4
??$forward@ABUWeaponInfo@@@std@@YAABUWeaponInfo@@ABU1@@Z PROC ; std::forward<WeaponInfo const &>, COMDAT

; 78   : 	{	// forward _Arg, given explicitly specified type parameter

  00000	55		 push	 ebp
  00001	8b ec		 mov	 ebp, esp

; 79   : 	return ((_Ty&&)_Arg);

  00003	8b 45 08	 mov	 eax, DWORD PTR __Arg$[ebp]

; 80   : 	}

  00006	5d		 pop	 ebp
  00007	c3		 ret	 0
??$forward@ABUWeaponInfo@@@std@@YAABUWeaponInfo@@ABU1@@Z ENDP ; std::forward<WeaponInfo const &>
_TEXT	ENDS
PUBLIC	??$forward@AAUChangeDirInfo@@@std@@YAAAUChangeDirInfo@@AAU1@@Z ; std::forward<ChangeDirInfo &>
; Function compile flags: /Ogsp
;	COMDAT ??$forward@AAUChangeDirInfo@@@std@@YAAAUChangeDirInfo@@AAU1@@Z
_TEXT	SEGMENT
__Arg$ = 8						; size = 4
??$forward@AAUChangeDirInfo@@@std@@YAAAUChangeDirInfo@@AAU1@@Z PROC ; std::forward<ChangeDirInfo &>, COMDAT

; 78   : 	{	// forward _Arg, given explicitly specified type parameter

  00000	55		 push	 ebp
  00001	8b ec		 mov	 ebp, esp

; 79   : 	return ((_Ty&&)_Arg);

  00003	8b 45 08	 mov	 eax, DWORD PTR __Arg$[ebp]

; 80   : 	}

  00006	5d		 pop	 ebp
  00007	c3		 ret	 0
??$forward@AAUChangeDirInfo@@@std@@YAAAUChangeDirInfo@@AAU1@@Z ENDP ; std::forward<ChangeDirInfo &>
_TEXT	ENDS
PUBLIC	??$construct@AAUChangeDirInfo@@@?$allocator@UChangeDirInfo@@@std@@QAEXPAUChangeDirInfo@@AAU2@@Z ; std::allocator<ChangeDirInfo>::construct<ChangeDirInfo &>
; Function compile flags: /Ogsp
; File c:\program files (x86)\microsoft visual studio 10.0\vc\include\xmemory
;	COMDAT ??$construct@AAUChangeDirInfo@@@?$allocator@UChangeDirInfo@@@std@@QAEXPAUChangeDirInfo@@AAU2@@Z
_TEXT	SEGMENT
__Ptr$ = 8						; size = 4
__Val$ = 12						; size = 4
??$construct@AAUChangeDirInfo@@@?$allocator@UChangeDirInfo@@@std@@QAEXPAUChangeDirInfo@@AAU2@@Z PROC ; std::allocator<ChangeDirInfo>::construct<ChangeDirInfo &>, COMDAT
; _this$ = ecx

; 206  : 		void construct(pointer _Ptr, _Other&& _Val)

  00000	55		 push	 ebp
  00001	8b ec		 mov	 ebp, esp
  00003	57		 push	 edi

; 207  : 		{	// construct object at _Ptr with value _Val
; 208  : 		::new ((void _FARQ *)_Ptr) _Ty(_STD forward<_Other>(_Val));

  00004	8b 7d 08	 mov	 edi, DWORD PTR __Ptr$[ebp]
  00007	85 ff		 test	 edi, edi
  00009	74 0a		 je	 SHORT $LN3@construct
  0000b	56		 push	 esi
  0000c	8b 75 0c	 mov	 esi, DWORD PTR __Val$[ebp]
  0000f	6a 07		 push	 7
  00011	59		 pop	 ecx
  00012	f3 a5		 rep movsd
  00014	5e		 pop	 esi
$LN3@construct:
  00015	5f		 pop	 edi

; 209  : 		}

  00016	5d		 pop	 ebp
  00017	c2 08 00	 ret	 8
??$construct@AAUChangeDirInfo@@@?$allocator@UChangeDirInfo@@@std@@QAEXPAUChangeDirInfo@@AAU2@@Z ENDP ; std::allocator<ChangeDirInfo>::construct<ChangeDirInfo &>
_TEXT	ENDS
PUBLIC	??$forward@ABUChangeDirInfo@@@std@@YAABUChangeDirInfo@@ABU1@@Z ; std::forward<ChangeDirInfo const &>
; Function compile flags: /Ogsp
; File c:\program files (x86)\microsoft visual studio 10.0\vc\include\utility
;	COMDAT ??$forward@ABUChangeDirInfo@@@std@@YAABUChangeDirInfo@@ABU1@@Z
_TEXT	SEGMENT
__Arg$ = 8						; size = 4
??$forward@ABUChangeDirInfo@@@std@@YAABUChangeDirInfo@@ABU1@@Z PROC ; std::forward<ChangeDirInfo const &>, COMDAT

; 78   : 	{	// forward _Arg, given explicitly specified type parameter

  00000	55		 push	 ebp
  00001	8b ec		 mov	 ebp, esp

; 79   : 	return ((_Ty&&)_Arg);

  00003	8b 45 08	 mov	 eax, DWORD PTR __Arg$[ebp]

; 80   : 	}

  00006	5d		 pop	 ebp
  00007	c3		 ret	 0
??$forward@ABUChangeDirInfo@@@std@@YAABUChangeDirInfo@@ABU1@@Z ENDP ; std::forward<ChangeDirInfo const &>
_TEXT	ENDS
PUBLIC	??$_Ptr_cat@UChangeDirInfo@@U1@@std@@YA?AU_Nonscalar_ptr_iterator_tag@0@PAUChangeDirInfo@@0@Z ; std::_Ptr_cat<ChangeDirInfo,ChangeDirInfo>
; Function compile flags: /Ogsp
; File c:\program files (x86)\microsoft visual studio 10.0\vc\include\xutility
;	COMDAT ??$_Ptr_cat@UChangeDirInfo@@U1@@std@@YA?AU_Nonscalar_ptr_iterator_tag@0@PAUChangeDirInfo@@0@Z
_TEXT	SEGMENT
__Cat$ = -1						; size = 1
___formal$ = 8						; size = 4
___formal$ = 12						; size = 4
??$_Ptr_cat@UChangeDirInfo@@U1@@std@@YA?AU_Nonscalar_ptr_iterator_tag@0@PAUChangeDirInfo@@0@Z PROC ; std::_Ptr_cat<ChangeDirInfo,ChangeDirInfo>, COMDAT

; 516  : 	{	// return pointer category from pointers

  00000	55		 push	 ebp
  00001	8b ec		 mov	 ebp, esp
  00003	51		 push	 ecx

; 517  : 	typename _Ptr_cat_helper<_Elem1, _Elem2>::_Type _Cat;
; 518  : 	return (_Cat);

  00004	8a 45 ff	 mov	 al, BYTE PTR __Cat$[ebp]

; 519  : 	}

  00007	c9		 leave
  00008	c3		 ret	 0
??$_Ptr_cat@UChangeDirInfo@@U1@@std@@YA?AU_Nonscalar_ptr_iterator_tag@0@PAUChangeDirInfo@@0@Z ENDP ; std::_Ptr_cat<ChangeDirInfo,ChangeDirInfo>
_TEXT	ENDS
PUBLIC	??$_Construct@UChangeDirInfo@@ABU1@@std@@YAXPAUChangeDirInfo@@ABU1@@Z ; std::_Construct<ChangeDirInfo,ChangeDirInfo const &>
; Function compile flags: /Ogsp
; File c:\program files (x86)\microsoft visual studio 10.0\vc\include\xmemory
;	COMDAT ??$_Construct@UChangeDirInfo@@ABU1@@std@@YAXPAUChangeDirInfo@@ABU1@@Z
_TEXT	SEGMENT
__Ptr$ = 8						; size = 4
__Val$ = 12						; size = 4
??$_Construct@UChangeDirInfo@@ABU1@@std@@YAXPAUChangeDirInfo@@ABU1@@Z PROC ; std::_Construct<ChangeDirInfo,ChangeDirInfo const &>, COMDAT

; 46   : 	{	// construct object at _Ptr with value _Val

  00000	55		 push	 ebp
  00001	8b ec		 mov	 ebp, esp
  00003	57		 push	 edi

; 47   : 	void _FARQ *_Vptr = _Ptr;
; 48   : 	::new (_Vptr) _Ty1(_STD forward<_Ty2>(_Val));

  00004	8b 7d 08	 mov	 edi, DWORD PTR __Ptr$[ebp]
  00007	85 ff		 test	 edi, edi
  00009	74 0a		 je	 SHORT $LN3@Construct
  0000b	56		 push	 esi
  0000c	8b 75 0c	 mov	 esi, DWORD PTR __Val$[ebp]
  0000f	6a 07		 push	 7
  00011	59		 pop	 ecx
  00012	f3 a5		 rep movsd
  00014	5e		 pop	 esi
$LN3@Construct:
  00015	5f		 pop	 edi

; 49   : 	}

  00016	5d		 pop	 ebp
  00017	c3		 ret	 0
??$_Construct@UChangeDirInfo@@ABU1@@std@@YAXPAUChangeDirInfo@@ABU1@@Z ENDP ; std::_Construct<ChangeDirInfo,ChangeDirInfo const &>
_TEXT	ENDS
PUBLIC	?_Unchecked@?$_Vector_iterator@V?$_Vector_val@UChangeDirInfo@@V?$allocator@UChangeDirInfo@@@std@@@std@@@std@@QBEPAUChangeDirInfo@@XZ ; std::_Vector_iterator<std::_Vector_val<ChangeDirInfo,std::allocator<ChangeDirInfo> > >::_Unchecked
; Function compile flags: /Ogsp
; File c:\program files (x86)\microsoft visual studio 10.0\vc\include\vector
;	COMDAT ?_Unchecked@?$_Vector_iterator@V?$_Vector_val@UChangeDirInfo@@V?$allocator@UChangeDirInfo@@@std@@@std@@@std@@QBEPAUChangeDirInfo@@XZ
_TEXT	SEGMENT
?_Unchecked@?$_Vector_iterator@V?$_Vector_val@UChangeDirInfo@@V?$allocator@UChangeDirInfo@@@std@@@std@@@std@@QBEPAUChangeDirInfo@@XZ PROC ; std::_Vector_iterator<std::_Vector_val<ChangeDirInfo,std::allocator<ChangeDirInfo> > >::_Unchecked, COMDAT
; _this$ = ecx

; 317  : 		return (_Unchecked_type(this->_Ptr));

  00000	8b 01		 mov	 eax, DWORD PTR [ecx]

; 318  : 		}

  00002	c3		 ret	 0
?_Unchecked@?$_Vector_iterator@V?$_Vector_val@UChangeDirInfo@@V?$allocator@UChangeDirInfo@@@std@@@std@@@std@@QBEPAUChangeDirInfo@@XZ ENDP ; std::_Vector_iterator<std::_Vector_val<ChangeDirInfo,std::allocator<ChangeDirInfo> > >::_Unchecked
_TEXT	ENDS
PUBLIC	??$_Val_type@PAUWeaponInfo@@@std@@YAPAUWeaponInfo@@PAU1@@Z ; std::_Val_type<WeaponInfo *>
; Function compile flags: /Ogsp
; File c:\program files (x86)\microsoft visual studio 10.0\vc\include\xutility
;	COMDAT ??$_Val_type@PAUWeaponInfo@@@std@@YAPAUWeaponInfo@@PAU1@@Z
_TEXT	SEGMENT
___formal$ = 8						; size = 4
??$_Val_type@PAUWeaponInfo@@@std@@YAPAUWeaponInfo@@PAU1@@Z PROC ; std::_Val_type<WeaponInfo *>, COMDAT

; 790  : 	return (0);

  00000	33 c0		 xor	 eax, eax

; 791  : 	}

  00002	c3		 ret	 0
??$_Val_type@PAUWeaponInfo@@@std@@YAPAUWeaponInfo@@PAU1@@Z ENDP ; std::_Val_type<WeaponInfo *>
_TEXT	ENDS
PUBLIC	??$_Val_type@PAUChangeDirInfo@@@std@@YAPAUChangeDirInfo@@PAU1@@Z ; std::_Val_type<ChangeDirInfo *>
; Function compile flags: /Ogsp
;	COMDAT ??$_Val_type@PAUChangeDirInfo@@@std@@YAPAUChangeDirInfo@@PAU1@@Z
_TEXT	SEGMENT
___formal$ = 8						; size = 4
??$_Val_type@PAUChangeDirInfo@@@std@@YAPAUChangeDirInfo@@PAU1@@Z PROC ; std::_Val_type<ChangeDirInfo *>, COMDAT

; 790  : 	return (0);

  00000	33 c0		 xor	 eax, eax

; 791  : 	}

  00002	c3		 ret	 0
??$_Val_type@PAUChangeDirInfo@@@std@@YAPAUChangeDirInfo@@PAU1@@Z ENDP ; std::_Val_type<ChangeDirInfo *>
_TEXT	ENDS
PUBLIC	??$move@AAUChangeDirInfo@@@std@@YA$$QAUChangeDirInfo@@AAU1@@Z ; std::move<ChangeDirInfo &>
; Function compile flags: /Ogsp
; File c:\program files (x86)\microsoft visual studio 10.0\vc\include\utility
;	COMDAT ??$move@AAUChangeDirInfo@@@std@@YA$$QAUChangeDirInfo@@AAU1@@Z
_TEXT	SEGMENT
__Arg$ = 8						; size = 4
??$move@AAUChangeDirInfo@@@std@@YA$$QAUChangeDirInfo@@AAU1@@Z PROC ; std::move<ChangeDirInfo &>, COMDAT

; 86   : 	{	// forward _Arg as movable

  00000	55		 push	 ebp
  00001	8b ec		 mov	 ebp, esp

; 87   : 	return ((typename tr1::_Remove_reference<_Ty>::_Type&&)_Arg);

  00003	8b 45 08	 mov	 eax, DWORD PTR __Arg$[ebp]

; 88   : 	}

  00006	5d		 pop	 ebp
  00007	c3		 ret	 0
??$move@AAUChangeDirInfo@@@std@@YA$$QAUChangeDirInfo@@AAU1@@Z ENDP ; std::move<ChangeDirInfo &>
_TEXT	ENDS
PUBLIC	??$_Unchecked@PAUChangeDirInfo@@@std@@YAPAUChangeDirInfo@@PAU1@@Z ; std::_Unchecked<ChangeDirInfo *>
; Function compile flags: /Ogsp
; File c:\program files (x86)\microsoft visual studio 10.0\vc\include\xutility
;	COMDAT ??$_Unchecked@PAUChangeDirInfo@@@std@@YAPAUChangeDirInfo@@PAU1@@Z
_TEXT	SEGMENT
__Src$ = 8						; size = 4
??$_Unchecked@PAUChangeDirInfo@@@std@@YAPAUChangeDirInfo@@PAU1@@Z PROC ; std::_Unchecked<ChangeDirInfo *>, COMDAT

; 266  : 	{	// construct unchecked from checked, generic

  00000	55		 push	 ebp
  00001	8b ec		 mov	 ebp, esp

; 267  : 	return (_Src);

  00003	8b 45 08	 mov	 eax, DWORD PTR __Src$[ebp]

; 268  : 	}

  00006	5d		 pop	 ebp
  00007	c3		 ret	 0
??$_Unchecked@PAUChangeDirInfo@@@std@@YAPAUChangeDirInfo@@PAU1@@Z ENDP ; std::_Unchecked<ChangeDirInfo *>
_TEXT	ENDS
PUBLIC	??$_Dist_type@PAUChangeDirInfo@@@std@@YAPAHPAUChangeDirInfo@@@Z ; std::_Dist_type<ChangeDirInfo *>
; Function compile flags: /Ogsp
;	COMDAT ??$_Dist_type@PAUChangeDirInfo@@@std@@YAPAHPAUChangeDirInfo@@@Z
_TEXT	SEGMENT
___formal$ = 8						; size = 4
??$_Dist_type@PAUChangeDirInfo@@@std@@YAPAHPAUChangeDirInfo@@@Z PROC ; std::_Dist_type<ChangeDirInfo *>, COMDAT

; 850  : 	return (0);

  00000	33 c0		 xor	 eax, eax

; 851  : 	}

  00002	c3		 ret	 0
??$_Dist_type@PAUChangeDirInfo@@@std@@YAPAHPAUChangeDirInfo@@@Z ENDP ; std::_Dist_type<ChangeDirInfo *>
_TEXT	ENDS
PUBLIC	??$_Destroy@UChangeDirInfo@@@std@@YAXPAUChangeDirInfo@@@Z ; std::_Destroy<ChangeDirInfo>
; Function compile flags: /Ogsp
; File c:\program files (x86)\microsoft visual studio 10.0\vc\include\xmemory
;	COMDAT ??$_Destroy@UChangeDirInfo@@@std@@YAXPAUChangeDirInfo@@@Z
_TEXT	SEGMENT
__Ptr$ = 8						; size = 4
??$_Destroy@UChangeDirInfo@@@std@@YAXPAUChangeDirInfo@@@Z PROC ; std::_Destroy<ChangeDirInfo>, COMDAT

; 63   : 	_Ptr->~_Ty();
; 64   : 	}

  00000	c3		 ret	 0
??$_Destroy@UChangeDirInfo@@@std@@YAXPAUChangeDirInfo@@@Z ENDP ; std::_Destroy<ChangeDirInfo>
_TEXT	ENDS
PUBLIC	??$forward@AAPAUChangeDirInfo@@@std@@YAAAPAUChangeDirInfo@@AAPAU1@@Z ; std::forward<ChangeDirInfo * &>
; Function compile flags: /Ogsp
; File c:\program files (x86)\microsoft visual studio 10.0\vc\include\utility
;	COMDAT ??$forward@AAPAUChangeDirInfo@@@std@@YAAAPAUChangeDirInfo@@AAPAU1@@Z
_TEXT	SEGMENT
__Arg$ = 8						; size = 4
??$forward@AAPAUChangeDirInfo@@@std@@YAAAPAUChangeDirInfo@@AAPAU1@@Z PROC ; std::forward<ChangeDirInfo * &>, COMDAT

; 78   : 	{	// forward _Arg, given explicitly specified type parameter

  00000	55		 push	 ebp
  00001	8b ec		 mov	 ebp, esp

; 79   : 	return ((_Ty&&)_Arg);

  00003	8b 45 08	 mov	 eax, DWORD PTR __Arg$[ebp]

; 80   : 	}

  00006	5d		 pop	 ebp
  00007	c3		 ret	 0
??$forward@AAPAUChangeDirInfo@@@std@@YAAAPAUChangeDirInfo@@AAPAU1@@Z ENDP ; std::forward<ChangeDirInfo * &>
_TEXT	ENDS
PUBLIC	??$?0AAPAUChangeDirInfo@@AAPAU0@@?$_Pair_base@PAUChangeDirInfo@@PAU1@@std@@QAE@AAPAUChangeDirInfo@@0@Z ; std::_Pair_base<ChangeDirInfo *,ChangeDirInfo *>::_Pair_base<ChangeDirInfo *,ChangeDirInfo *><ChangeDirInfo * &,ChangeDirInfo * &>
; Function compile flags: /Ogsp
;	COMDAT ??$?0AAPAUChangeDirInfo@@AAPAU0@@?$_Pair_base@PAUChangeDirInfo@@PAU1@@std@@QAE@AAPAUChangeDirInfo@@0@Z
_TEXT	SEGMENT
__Val1$ = 8						; size = 4
__Val2$ = 12						; size = 4
??$?0AAPAUChangeDirInfo@@AAPAU0@@?$_Pair_base@PAUChangeDirInfo@@PAU1@@std@@QAE@AAPAUChangeDirInfo@@0@Z PROC ; std::_Pair_base<ChangeDirInfo *,ChangeDirInfo *>::_Pair_base<ChangeDirInfo *,ChangeDirInfo *><ChangeDirInfo * &,ChangeDirInfo * &>, COMDAT
; _this$ = ecx

; 163  : 		{	// construct from moved values

  00000	55		 push	 ebp
  00001	8b ec		 mov	 ebp, esp
  00003	8b c1		 mov	 eax, ecx
  00005	8b 4d 08	 mov	 ecx, DWORD PTR __Val1$[ebp]
  00008	8b 09		 mov	 ecx, DWORD PTR [ecx]
  0000a	89 08		 mov	 DWORD PTR [eax], ecx
  0000c	8b 4d 0c	 mov	 ecx, DWORD PTR __Val2$[ebp]
  0000f	8b 09		 mov	 ecx, DWORD PTR [ecx]
  00011	89 48 04	 mov	 DWORD PTR [eax+4], ecx

; 164  : 		}

  00014	5d		 pop	 ebp
  00015	c2 08 00	 ret	 8
??$?0AAPAUChangeDirInfo@@AAPAU0@@?$_Pair_base@PAUChangeDirInfo@@PAU1@@std@@QAE@AAPAUChangeDirInfo@@0@Z ENDP ; std::_Pair_base<ChangeDirInfo *,ChangeDirInfo *>::_Pair_base<ChangeDirInfo *,ChangeDirInfo *><ChangeDirInfo * &,ChangeDirInfo * &>
_TEXT	ENDS
PUBLIC	??$_Move@AAUChangeDirInfo@@@std@@YA$$QAUChangeDirInfo@@AAU1@@Z ; std::_Move<ChangeDirInfo &>
; Function compile flags: /Ogsp
;	COMDAT ??$_Move@AAUChangeDirInfo@@@std@@YA$$QAUChangeDirInfo@@AAU1@@Z
_TEXT	SEGMENT
__Arg$ = 8						; size = 4
??$_Move@AAUChangeDirInfo@@@std@@YA$$QAUChangeDirInfo@@AAU1@@Z PROC ; std::_Move<ChangeDirInfo &>, COMDAT

; 94   : 	{	// forward _Arg as movable

  00000	55		 push	 ebp
  00001	8b ec		 mov	 ebp, esp

; 95   : 	return ((typename tr1::_Remove_reference<_Ty>::_Type&&)_Arg);

  00003	8b 45 08	 mov	 eax, DWORD PTR __Arg$[ebp]

; 96   : 	}

  00006	5d		 pop	 ebp
  00007	c3		 ret	 0
??$_Move@AAUChangeDirInfo@@@std@@YA$$QAUChangeDirInfo@@AAU1@@Z ENDP ; std::_Move<ChangeDirInfo &>
_TEXT	ENDS
PUBLIC	??$forward@UWeaponInfo@@@std@@YA$$QAUWeaponInfo@@AAU1@@Z ; std::forward<WeaponInfo>
; Function compile flags: /Ogsp
;	COMDAT ??$forward@UWeaponInfo@@@std@@YA$$QAUWeaponInfo@@AAU1@@Z
_TEXT	SEGMENT
__Arg$ = 8						; size = 4
??$forward@UWeaponInfo@@@std@@YA$$QAUWeaponInfo@@AAU1@@Z PROC ; std::forward<WeaponInfo>, COMDAT

; 78   : 	{	// forward _Arg, given explicitly specified type parameter

  00000	55		 push	 ebp
  00001	8b ec		 mov	 ebp, esp

; 79   : 	return ((_Ty&&)_Arg);

  00003	8b 45 08	 mov	 eax, DWORD PTR __Arg$[ebp]

; 80   : 	}

  00006	5d		 pop	 ebp
  00007	c3		 ret	 0
??$forward@UWeaponInfo@@@std@@YA$$QAUWeaponInfo@@AAU1@@Z ENDP ; std::forward<WeaponInfo>
_TEXT	ENDS
PUBLIC	??$forward@UChangeDirInfo@@@std@@YA$$QAUChangeDirInfo@@AAU1@@Z ; std::forward<ChangeDirInfo>
; Function compile flags: /Ogsp
;	COMDAT ??$forward@UChangeDirInfo@@@std@@YA$$QAUChangeDirInfo@@AAU1@@Z
_TEXT	SEGMENT
__Arg$ = 8						; size = 4
??$forward@UChangeDirInfo@@@std@@YA$$QAUChangeDirInfo@@AAU1@@Z PROC ; std::forward<ChangeDirInfo>, COMDAT

; 78   : 	{	// forward _Arg, given explicitly specified type parameter

  00000	55		 push	 ebp
  00001	8b ec		 mov	 ebp, esp

; 79   : 	return ((_Ty&&)_Arg);

  00003	8b 45 08	 mov	 eax, DWORD PTR __Arg$[ebp]

; 80   : 	}

  00006	5d		 pop	 ebp
  00007	c3		 ret	 0
??$forward@UChangeDirInfo@@@std@@YA$$QAUChangeDirInfo@@AAU1@@Z ENDP ; std::forward<ChangeDirInfo>
_TEXT	ENDS
PUBLIC	??$_Move_backward@PAUChangeDirInfo@@PAU1@@std@@YAPAUChangeDirInfo@@PAU1@00U_Nonscalar_ptr_iterator_tag@0@@Z ; std::_Move_backward<ChangeDirInfo *,ChangeDirInfo *>
; Function compile flags: /Ogsp
; File c:\program files (x86)\microsoft visual studio 10.0\vc\include\xutility
;	COMDAT ??$_Move_backward@PAUChangeDirInfo@@PAU1@@std@@YAPAUChangeDirInfo@@PAU1@00U_Nonscalar_ptr_iterator_tag@0@@Z
_TEXT	SEGMENT
__First$ = 8						; size = 4
__Last$ = 12						; size = 4
__Dest$ = 16						; size = 4
___formal$ = 20						; size = 1
??$_Move_backward@PAUChangeDirInfo@@PAU1@@std@@YAPAUChangeDirInfo@@PAU1@00U_Nonscalar_ptr_iterator_tag@0@@Z PROC ; std::_Move_backward<ChangeDirInfo *,ChangeDirInfo *>, COMDAT

; 2617 : 	{	// move [_First, _Last) backwards to [..., _Dest), arbitrary iterators

  00000	55		 push	 ebp
  00001	8b ec		 mov	 ebp, esp

; 2618 : 	while (_First != _Last)

  00003	8b 45 0c	 mov	 eax, DWORD PTR __Last$[ebp]
  00006	39 45 08	 cmp	 DWORD PTR __First$[ebp], eax
  00009	74 1a		 je	 SHORT $LN9@Move_backw
  0000b	56		 push	 esi
  0000c	57		 push	 edi
$LL2@Move_backw:

; 2619 : 		*--_Dest = _STD move(*--_Last);

  0000d	83 6d 10 1c	 sub	 DWORD PTR __Dest$[ebp], 28 ; 0000001cH
  00011	8b 7d 10	 mov	 edi, DWORD PTR __Dest$[ebp]
  00014	83 e8 1c	 sub	 eax, 28			; 0000001cH
  00017	6a 07		 push	 7
  00019	59		 pop	 ecx
  0001a	8b f0		 mov	 esi, eax
  0001c	f3 a5		 rep movsd
  0001e	3b 45 08	 cmp	 eax, DWORD PTR __First$[ebp]
  00021	75 ea		 jne	 SHORT $LL2@Move_backw
  00023	5f		 pop	 edi
  00024	5e		 pop	 esi
$LN9@Move_backw:

; 2620 : 	return (_Dest);

  00025	8b 45 10	 mov	 eax, DWORD PTR __Dest$[ebp]

; 2621 : 	}

  00028	5d		 pop	 ebp
  00029	c3		 ret	 0
??$_Move_backward@PAUChangeDirInfo@@PAU1@@std@@YAPAUChangeDirInfo@@PAU1@00U_Nonscalar_ptr_iterator_tag@0@@Z ENDP ; std::_Move_backward<ChangeDirInfo *,ChangeDirInfo *>
_TEXT	ENDS
PUBLIC	?_DECSTR@@YAXPADH@Z				; _DECSTR
; Function compile flags: /Ogsp
; File d:\lost saga for developer\youtube\tutorial\source\src\lsclient\stringprotect.h
;	COMDAT ?_DECSTR@@YAXPADH@Z
_TEXT	SEGMENT
_s$ = 8							; size = 4
_l$ = 12						; size = 4
?_DECSTR@@YAXPADH@Z PROC				; _DECSTR, COMDAT

; 40   : __forceinline void _DECSTR(char* s, int l){int i=0,l4=(l-1)/4,*p=(int*)s;s[l-1]=0;for(;i<l4;++i)*(p++)^=0xEAEBECED;for(i=l4*4;i<l-1;++i)s[i]^=0xED-i%4;}

  00000	55		 push	 ebp
  00001	8b ec		 mov	 ebp, esp
  00003	8b 4d 0c	 mov	 ecx, DWORD PTR _l$[ebp]
  00006	56		 push	 esi
  00007	8b 75 08	 mov	 esi, DWORD PTR _s$[ebp]
  0000a	57		 push	 edi
  0000b	8d 79 ff	 lea	 edi, DWORD PTR [ecx-1]
  0000e	8b c7		 mov	 eax, edi
  00010	99		 cdq
  00011	83 e2 03	 and	 edx, 3
  00014	03 c2		 add	 eax, edx
  00016	c1 f8 02	 sar	 eax, 2
  00019	8b d6		 mov	 edx, esi
  0001b	c6 44 0e ff 00	 mov	 BYTE PTR [esi+ecx-1], 0
  00020	85 c0		 test	 eax, eax
  00022	7e 0e		 jle	 SHORT $LN4@DECSTR
  00024	8b c8		 mov	 ecx, eax
$LL6@DECSTR:
  00026	81 32 ed ec eb
	ea		 xor	 DWORD PTR [edx], -353637139 ; eaebecedH
  0002c	83 c2 04	 add	 edx, 4
  0002f	49		 dec	 ecx
  00030	75 f4		 jne	 SHORT $LL6@DECSTR
$LN4@DECSTR:
  00032	c1 e0 02	 shl	 eax, 2
  00035	eb 17		 jmp	 SHORT $LN14@DECSTR
$LL3@DECSTR:
  00037	8b c8		 mov	 ecx, eax
  00039	81 e1 03 00 00
	80		 and	 ecx, -2147483645	; 80000003H
  0003f	79 05		 jns	 SHORT $LN13@DECSTR
  00041	49		 dec	 ecx
  00042	83 c9 fc	 or	 ecx, -4			; fffffffcH
  00045	41		 inc	 ecx
$LN13@DECSTR:
  00046	b2 ed		 mov	 dl, -19			; ffffffedH
  00048	2a d1		 sub	 dl, cl
  0004a	30 14 30	 xor	 BYTE PTR [eax+esi], dl
  0004d	40		 inc	 eax
$LN14@DECSTR:
  0004e	3b c7		 cmp	 eax, edi
  00050	7c e5		 jl	 SHORT $LL3@DECSTR
  00052	5f		 pop	 edi
  00053	5e		 pop	 esi
  00054	5d		 pop	 ebp
  00055	c3		 ret	 0
?_DECSTR@@YAXPADH@Z ENDP				; _DECSTR
_TEXT	ENDS
PUBLIC	?return57@@YAIXZ				; return57
; Function compile flags: /Ogsp
; File d:\lost saga for developer\youtube\tutorial\source\src\lsclient\veryoftenusedefine.h
;	COMDAT ?return57@@YAIXZ
_TEXT	SEGMENT
?return57@@YAIXZ PROC					; return57, COMDAT

; 15   : __forceinline unsigned int return57() { __asm mov eax, 57 };

  00000	b8 39 00 00 00	 mov	 eax, 57			; 00000039H
  00005	c3		 ret	 0
?return57@@YAIXZ ENDP					; return57
_TEXT	ENDS
PUBLIC	?GetGroup@ioGameEntity@@QBEPAVioEntityGroup@@XZ	; ioGameEntity::GetGroup
; Function compile flags: /Ogsp
; File d:\lost saga for developer\youtube\tutorial\source\src\lsclient\iogameentity.h
;	COMDAT ?GetGroup@ioGameEntity@@QBEPAVioEntityGroup@@XZ
_TEXT	SEGMENT
?GetGroup@ioGameEntity@@QBEPAVioEntityGroup@@XZ PROC	; ioGameEntity::GetGroup, COMDAT
; _this$ = ecx

; 166  : 	inline ioEntityGroup* GetGroup() const { return m_pGroup; }

  00000	8b 41 04	 mov	 eax, DWORD PTR [ecx+4]
  00003	c3		 ret	 0
?GetGroup@ioGameEntity@@QBEPAVioEntityGroup@@XZ ENDP	; ioGameEntity::GetGroup
_TEXT	ENDS
PUBLIC	?Init@WeaponInfo@@QAEXXZ			; WeaponInfo::Init
; Function compile flags: /Ogsp
; File d:\lost saga for developer\youtube\tutorial\source\src\lsclient\ioattackattribute.h
;	COMDAT ?Init@WeaponInfo@@QAEXXZ
_TEXT	SEGMENT
?Init@WeaponInfo@@QAEXXZ PROC				; WeaponInfo::Init, COMDAT
; _this$ = ecx

; 71   : 		m_iWeaponIdx = 0;

  00000	33 c0		 xor	 eax, eax
  00002	89 01		 mov	 DWORD PTR [ecx], eax

; 72   : 		m_iResistanceIdx = 0;

  00004	89 41 04	 mov	 DWORD PTR [ecx+4], eax

; 73   : 
; 74   : 		m_dwWoundedDuration = 0;

  00007	89 41 18	 mov	 DWORD PTR [ecx+24], eax

; 75   : 		m_dwCallTime = 0;

  0000a	89 41 1c	 mov	 DWORD PTR [ecx+28], eax

; 76   : 
; 77   : 		m_bWoundedLoopAni = false;

  0000d	88 41 20	 mov	 BYTE PTR [ecx+32], al

; 78   : 
; 79   : 		m_dwDuration = 0;

  00010	89 41 24	 mov	 DWORD PTR [ecx+36], eax

; 80   : 	}

  00013	c3		 ret	 0
?Init@WeaponInfo@@QAEXXZ ENDP				; WeaponInfo::Init
_TEXT	ENDS
PUBLIC	??1WeaponInfo@@QAE@XZ				; WeaponInfo::~WeaponInfo
; Function compile flags: /Ogsp
;	COMDAT ??1WeaponInfo@@QAE@XZ
_TEXT	SEGMENT
??1WeaponInfo@@QAE@XZ PROC				; WeaponInfo::~WeaponInfo, COMDAT
; _this$ = ecx
  00000	83 c1 08	 add	 ecx, 8
  00003	ff 25 00 00 00
	00		 jmp	 DWORD PTR __imp_??1ioHashString@@QAE@XZ
??1WeaponInfo@@QAE@XZ ENDP				; WeaponInfo::~WeaponInfo
_TEXT	ENDS
PUBLIC	??_R0?AVioGameEntity@@@8			; ioGameEntity `RTTI Type Descriptor'
PUBLIC	??_R0?AVioPlayEntity@@@8			; ioPlayEntity `RTTI Type Descriptor'
PUBLIC	?ToPlayEntity@@YAPAVioPlayEntity@@PAVioGameEntity@@@Z ; ToPlayEntity
EXTRN	___RTDynamicCast:PROC
;	COMDAT ??_R0?AVioGameEntity@@@8
; File d:\lost saga for developer\youtube\tutorial\source\src\lsclient\ioplayentity.h
_DATA	SEGMENT
??_R0?AVioGameEntity@@@8 DD FLAT:??_7type_info@@6B@	; ioGameEntity `RTTI Type Descriptor'
	DD	00H
	DB	'.?AVioGameEntity@@', 00H
_DATA	ENDS
;	COMDAT ??_R0?AVioPlayEntity@@@8
_DATA	SEGMENT
??_R0?AVioPlayEntity@@@8 DD FLAT:??_7type_info@@6B@	; ioPlayEntity `RTTI Type Descriptor'
	DD	00H
	DB	'.?AVioPlayEntity@@', 00H
; Function compile flags: /Ogsp
_DATA	ENDS
;	COMDAT ?ToPlayEntity@@YAPAVioPlayEntity@@PAVioGameEntity@@@Z
_TEXT	SEGMENT
_pObj$ = 8						; size = 4
?ToPlayEntity@@YAPAVioPlayEntity@@PAVioGameEntity@@@Z PROC ; ToPlayEntity, COMDAT

; 121  : {

  00000	55		 push	 ebp
  00001	8b ec		 mov	 ebp, esp
  00003	56		 push	 esi

; 122  : 	if( !pObj || pObj->GetTypeID() != ioGameEntity::GET_PLAY_ENTITY )

  00004	8b 75 08	 mov	 esi, DWORD PTR _pObj$[ebp]
  00007	85 f6		 test	 esi, esi
  00009	74 25		 je	 SHORT $LN1@ToPlayEnti
  0000b	8b 06		 mov	 eax, DWORD PTR [esi]
  0000d	8b ce		 mov	 ecx, esi
  0000f	ff 50 10	 call	 DWORD PTR [eax+16]
  00012	83 f8 01	 cmp	 eax, 1
  00015	75 19		 jne	 SHORT $LN1@ToPlayEnti

; 124  : 
; 125  : 	return dynamic_cast< ioPlayEntity* >( pObj );

  00017	6a 00		 push	 0
  00019	68 00 00 00 00	 push	 OFFSET ??_R0?AVioPlayEntity@@@8
  0001e	68 00 00 00 00	 push	 OFFSET ??_R0?AVioGameEntity@@@8
  00023	6a 00		 push	 0
  00025	56		 push	 esi
  00026	e8 00 00 00 00	 call	 ___RTDynamicCast
  0002b	83 c4 14	 add	 esp, 20			; 00000014H
  0002e	eb 02		 jmp	 SHORT $LN3@ToPlayEnti
$LN1@ToPlayEnti:

; 123  : 		return NULL;

  00030	33 c0		 xor	 eax, eax
$LN3@ToPlayEnti:
  00032	5e		 pop	 esi

; 126  : }

  00033	5d		 pop	 ebp
  00034	c3		 ret	 0
?ToPlayEntity@@YAPAVioPlayEntity@@PAVioGameEntity@@@Z ENDP ; ToPlayEntity
_TEXT	ENDS
PUBLIC	??_R0?AVioDummyChar@@@8				; ioDummyChar `RTTI Type Descriptor'
PUBLIC	?ToDummyChar@@YAPAVioDummyChar@@PAVioGameEntity@@@Z ; ToDummyChar
;	COMDAT ??_R0?AVioDummyChar@@@8
; File d:\lost saga for developer\youtube\tutorial\source\src\lsclient\iodummychar.h
_DATA	SEGMENT
??_R0?AVioDummyChar@@@8 DD FLAT:??_7type_info@@6B@	; ioDummyChar `RTTI Type Descriptor'
	DD	00H
	DB	'.?AVioDummyChar@@', 00H
; Function compile flags: /Ogsp
_DATA	ENDS
;	COMDAT ?ToDummyChar@@YAPAVioDummyChar@@PAVioGameEntity@@@Z
_TEXT	SEGMENT
_pObj$ = 8						; size = 4
?ToDummyChar@@YAPAVioDummyChar@@PAVioGameEntity@@@Z PROC ; ToDummyChar, COMDAT

; 758  : {

  00000	55		 push	 ebp
  00001	8b ec		 mov	 ebp, esp
  00003	56		 push	 esi

; 759  : 	ioPlayEntity *pPlay = ToPlayEntity( pObj );

  00004	ff 75 08	 push	 DWORD PTR _pObj$[ebp]
  00007	e8 00 00 00 00	 call	 ?ToPlayEntity@@YAPAVioPlayEntity@@PAVioGameEntity@@@Z ; ToPlayEntity
  0000c	8b f0		 mov	 esi, eax
  0000e	59		 pop	 ecx

; 760  : 	if( !pPlay || pPlay->GetSubType() != ioPlayEntity::PST_DUMMY_CHAR )

  0000f	85 f6		 test	 esi, esi
  00011	74 28		 je	 SHORT $LN1@ToDummyCha
  00013	8b 06		 mov	 eax, DWORD PTR [esi]
  00015	8b ce		 mov	 ecx, esi
  00017	ff 90 a4 00 00
	00		 call	 DWORD PTR [eax+164]
  0001d	83 f8 0a	 cmp	 eax, 10			; 0000000aH
  00020	75 19		 jne	 SHORT $LN1@ToDummyCha

; 762  : 
; 763  : 	return dynamic_cast< ioDummyChar* >( pPlay );

  00022	6a 00		 push	 0
  00024	68 00 00 00 00	 push	 OFFSET ??_R0?AVioDummyChar@@@8
  00029	68 00 00 00 00	 push	 OFFSET ??_R0?AVioPlayEntity@@@8
  0002e	6a 00		 push	 0
  00030	56		 push	 esi
  00031	e8 00 00 00 00	 call	 ___RTDynamicCast
  00036	83 c4 14	 add	 esp, 20			; 00000014H
  00039	eb 02		 jmp	 SHORT $LN3@ToDummyCha
$LN1@ToDummyCha:

; 761  : 		return NULL;

  0003b	33 c0		 xor	 eax, eax
$LN3@ToDummyCha:
  0003d	5e		 pop	 esi

; 764  : }

  0003e	5d		 pop	 ebp
  0003f	c3		 ret	 0
?ToDummyChar@@YAPAVioDummyChar@@PAVioGameEntity@@@Z ENDP ; ToDummyChar
_TEXT	ENDS
PUBLIC	??0ChangeDirInfo@@QAE@XZ			; ChangeDirInfo::ChangeDirInfo
EXTRN	__imp_?VEC3_ZERO@ioMath@@2UD3DXVECTOR3@@A:BYTE
; Function compile flags: /Ogsp
; File d:\lost saga for developer\youtube\tutorial\source\src\lsclient\ioweapon.h
;	COMDAT ??0ChangeDirInfo@@QAE@XZ
_TEXT	SEGMENT
??0ChangeDirInfo@@QAE@XZ PROC				; ChangeDirInfo::ChangeDirInfo, COMDAT
; _this$ = ecx

; 34   : 	{
; 35   : 		m_fChangeRange	= 0.0f;

  00000	0f 57 c0	 xorps	 xmm0, xmm0
  00003	56		 push	 esi
  00004	8b c1		 mov	 eax, ecx
  00006	57		 push	 edi
  00007	f3 0f 11 00	 movss	 DWORD PTR [eax], xmm0

; 36   : 		m_fChangeSpeed	= 0.0f;

  0000b	f3 0f 11 40 04	 movss	 DWORD PTR [eax+4], xmm0

; 37   : 		m_fChangeAngleH	= 0.0f;

  00010	f3 0f 11 40 08	 movss	 DWORD PTR [eax+8], xmm0

; 38   : 		m_fChangeAngleV	= 0.0f;

  00015	f3 0f 11 40 0c	 movss	 DWORD PTR [eax+12], xmm0

; 39   : 		m_vFireOffset	= ioMath::VEC3_ZERO;

  0001a	8b 35 00 00 00
	00		 mov	 esi, DWORD PTR __imp_?VEC3_ZERO@ioMath@@2UD3DXVECTOR3@@A
  00020	8d 78 10	 lea	 edi, DWORD PTR [eax+16]
  00023	a5		 movsd
  00024	a5		 movsd
  00025	a5		 movsd
  00026	5f		 pop	 edi
  00027	5e		 pop	 esi

; 40   : 	}

  00028	c3		 ret	 0
??0ChangeDirInfo@@QAE@XZ ENDP				; ChangeDirInfo::ChangeDirInfo
_TEXT	ENDS
PUBLIC	??RChangeDirSort@@QBE_NABUChangeDirInfo@@0@Z	; ChangeDirSort::operator()
; Function compile flags: /Ogsp
;	COMDAT ??RChangeDirSort@@QBE_NABUChangeDirInfo@@0@Z
_TEXT	SEGMENT
_lhs$ = 8						; size = 4
_rhs$ = 12						; size = 4
??RChangeDirSort@@QBE_NABUChangeDirInfo@@0@Z PROC	; ChangeDirSort::operator(), COMDAT
; _this$ = ecx

; 49   : 	{

  00000	55		 push	 ebp
  00001	8b ec		 mov	 ebp, esp

; 50   : 		if( lhs.m_fChangeRange < rhs.m_fChangeRange )

  00003	8b 4d 08	 mov	 ecx, DWORD PTR _lhs$[ebp]
  00006	8b 55 0c	 mov	 edx, DWORD PTR _rhs$[ebp]
  00009	f3 0f 10 01	 movss	 xmm0, DWORD PTR [ecx]
  0000d	f3 0f 10 0a	 movss	 xmm1, DWORD PTR [edx]
  00011	0f 5a d0	 cvtps2pd xmm2, xmm0
  00014	0f 5a d9	 cvtps2pd xmm3, xmm1
  00017	66 0f 2f da	 comisd	 xmm3, xmm2
  0001b	76 04		 jbe	 SHORT $LN4@operator
$LN7@operator:

; 51   : 		{
; 52   : 			return true;

  0001d	b0 01		 mov	 al, 1
  0001f	eb 28		 jmp	 SHORT $LN5@operator
$LN4@operator:

; 53   : 		}
; 54   : 		else if( lhs.m_fChangeRange == rhs.m_fChangeRange )

  00021	0f 5a c0	 cvtps2pd xmm0, xmm0
  00024	0f 5a c9	 cvtps2pd xmm1, xmm1
  00027	66 0f 2e c1	 ucomisd xmm0, xmm1
  0002b	9f		 lahf
  0002c	f6 c4 44	 test	 ah, 68			; 00000044H
  0002f	7a 16		 jp	 SHORT $LN1@operator

; 55   : 		{
; 56   : 			if( lhs.m_fChangeAngleV < rhs.m_fChangeAngleV )

  00031	f3 0f 10 41 0c	 movss	 xmm0, DWORD PTR [ecx+12]
  00036	f3 0f 10 4a 0c	 movss	 xmm1, DWORD PTR [edx+12]
  0003b	0f 5a c0	 cvtps2pd xmm0, xmm0
  0003e	0f 5a c9	 cvtps2pd xmm1, xmm1
  00041	66 0f 2f c8	 comisd	 xmm1, xmm0

; 57   : 				return true;

  00045	77 d6		 ja	 SHORT $LN7@operator
$LN1@operator:

; 58   : 		}
; 59   : 		return false;

  00047	32 c0		 xor	 al, al
$LN5@operator:

; 60   : 	}

  00049	5d		 pop	 ebp
  0004a	c2 08 00	 ret	 8
??RChangeDirSort@@QBE_NABUChangeDirInfo@@0@Z ENDP	; ChangeDirSort::operator()
_TEXT	ENDS
PUBLIC	?IsLive@ioWeapon@@QBE_NXZ			; ioWeapon::IsLive
; Function compile flags: /Ogsp
;	COMDAT ?IsLive@ioWeapon@@QBE_NXZ
_TEXT	SEGMENT
?IsLive@ioWeapon@@QBE_NXZ PROC				; ioWeapon::IsLive, COMDAT
; _this$ = ecx

; 533  : 	inline bool IsLive() const { return m_bLive; }

  00000	8a 81 82 05 00
	00		 mov	 al, BYTE PTR [ecx+1410]
  00006	c3		 ret	 0
?IsLive@ioWeapon@@QBE_NXZ ENDP				; ioWeapon::IsLive
_TEXT	ENDS
PUBLIC	?GetWeaponIndex@ioWeapon@@QBEKXZ		; ioWeapon::GetWeaponIndex
; Function compile flags: /Ogsp
;	COMDAT ?GetWeaponIndex@ioWeapon@@QBEKXZ
_TEXT	SEGMENT
?GetWeaponIndex@ioWeapon@@QBEKXZ PROC			; ioWeapon::GetWeaponIndex, COMDAT
; _this$ = ecx

; 536  : 	inline DWORD GetWeaponIndex() const { return m_dwWeaponIdx; }

  00000	8b 81 b8 04 00
	00		 mov	 eax, DWORD PTR [ecx+1208]
  00006	c3		 ret	 0
?GetWeaponIndex@ioWeapon@@QBEKXZ ENDP			; ioWeapon::GetWeaponIndex
_TEXT	ENDS
PUBLIC	?GetOwnerName@ioWeapon@@QBEABVioHashString@@XZ	; ioWeapon::GetOwnerName
; Function compile flags: /Ogsp
;	COMDAT ?GetOwnerName@ioWeapon@@QBEABVioHashString@@XZ
_TEXT	SEGMENT
?GetOwnerName@ioWeapon@@QBEABVioHashString@@XZ PROC	; ioWeapon::GetOwnerName, COMDAT
; _this$ = ecx

; 636  : 	inline const ioHashString& GetOwnerName() const { return m_OwnerName; }

  00000	8d 41 10	 lea	 eax, DWORD PTR [ecx+16]
  00003	c3		 ret	 0
?GetOwnerName@ioWeapon@@QBEABVioHashString@@XZ ENDP	; ioWeapon::GetOwnerName
_TEXT	ENDS
PUBLIC	?GetParentSceneNode@ioWeapon@@QBEPAVioSceneNode@@XZ ; ioWeapon::GetParentSceneNode
; Function compile flags: /Ogsp
;	COMDAT ?GetParentSceneNode@ioWeapon@@QBEPAVioSceneNode@@XZ
_TEXT	SEGMENT
?GetParentSceneNode@ioWeapon@@QBEPAVioSceneNode@@XZ PROC ; ioWeapon::GetParentSceneNode, COMDAT
; _this$ = ecx

; 797  : 	ioSceneNode* GetParentSceneNode() const { return m_pSceneNode; }

  00000	8b 41 04	 mov	 eax, DWORD PTR [ecx+4]
  00003	c3		 ret	 0
?GetParentSceneNode@ioWeapon@@QBEPAVioSceneNode@@XZ ENDP ; ioWeapon::GetParentSceneNode
_TEXT	ENDS
PUBLIC	??_R0?AVioItem@@@8				; ioItem `RTTI Type Descriptor'
PUBLIC	??_R0?AVioWeaponItem@@@8			; ioWeaponItem `RTTI Type Descriptor'
PUBLIC	?ToWeaponItem@@YAPAVioWeaponItem@@PAVioItem@@@Z	; ToWeaponItem
;	COMDAT ??_R0?AVioItem@@@8
; File d:\lost saga for developer\youtube\tutorial\source\src\lsclient\ioweaponitem.h
_DATA	SEGMENT
??_R0?AVioItem@@@8 DD FLAT:??_7type_info@@6B@		; ioItem `RTTI Type Descriptor'
	DD	00H
	DB	'.?AVioItem@@', 00H
_DATA	ENDS
;	COMDAT ??_R0?AVioWeaponItem@@@8
_DATA	SEGMENT
??_R0?AVioWeaponItem@@@8 DD FLAT:??_7type_info@@6B@	; ioWeaponItem `RTTI Type Descriptor'
	DD	00H
	DB	'.?AVioWeaponItem@@', 00H
; Function compile flags: /Ogsp
_DATA	ENDS
;	COMDAT ?ToWeaponItem@@YAPAVioWeaponItem@@PAVioItem@@@Z
_TEXT	SEGMENT
_pItem$ = 8						; size = 4
?ToWeaponItem@@YAPAVioWeaponItem@@PAVioItem@@@Z PROC	; ToWeaponItem, COMDAT

; 303  : {

  00000	55		 push	 ebp
  00001	8b ec		 mov	 ebp, esp
  00003	56		 push	 esi

; 304  : 	if( !pItem || pItem->GetType() != ioItem::IT_WEAPON )

  00004	8b 75 08	 mov	 esi, DWORD PTR _pItem$[ebp]
  00007	85 f6		 test	 esi, esi
  00009	74 25		 je	 SHORT $LN1@ToWeaponIt
  0000b	8b 06		 mov	 eax, DWORD PTR [esi]
  0000d	8b ce		 mov	 ecx, esi
  0000f	ff 50 08	 call	 DWORD PTR [eax+8]
  00012	83 f8 01	 cmp	 eax, 1
  00015	75 19		 jne	 SHORT $LN1@ToWeaponIt

; 306  : 
; 307  : 	return dynamic_cast< ioWeaponItem* >( pItem );

  00017	6a 00		 push	 0
  00019	68 00 00 00 00	 push	 OFFSET ??_R0?AVioWeaponItem@@@8
  0001e	68 00 00 00 00	 push	 OFFSET ??_R0?AVioItem@@@8
  00023	6a 00		 push	 0
  00025	56		 push	 esi
  00026	e8 00 00 00 00	 call	 ___RTDynamicCast
  0002b	83 c4 14	 add	 esp, 20			; 00000014H
  0002e	eb 02		 jmp	 SHORT $LN3@ToWeaponIt
$LN1@ToWeaponIt:

; 305  : 		return NULL;

  00030	33 c0		 xor	 eax, eax
$LN3@ToWeaponIt:
  00032	5e		 pop	 esi

; 308  : }

  00033	5d		 pop	 ebp
  00034	c3		 ret	 0
?ToWeaponItem@@YAPAVioWeaponItem@@PAVioItem@@@Z ENDP	; ToWeaponItem
_TEXT	ENDS
PUBLIC	??_R0?AVioWallZone@@@8				; ioWallZone `RTTI Type Descriptor'
PUBLIC	?ToWallZone@@YAPAVioWallZone@@PAVioGameEntity@@@Z ; ToWallZone
;	COMDAT ??_R0?AVioWallZone@@@8
; File d:\lost saga for developer\youtube\tutorial\source\src\lsclient\iowallzone.h
_DATA	SEGMENT
??_R0?AVioWallZone@@@8 DD FLAT:??_7type_info@@6B@	; ioWallZone `RTTI Type Descriptor'
	DD	00H
	DB	'.?AVioWallZone@@', 00H
; Function compile flags: /Ogsp
_DATA	ENDS
;	COMDAT ?ToWallZone@@YAPAVioWallZone@@PAVioGameEntity@@@Z
_TEXT	SEGMENT
_pObj$ = 8						; size = 4
?ToWallZone@@YAPAVioWallZone@@PAVioGameEntity@@@Z PROC	; ToWallZone, COMDAT

; 50   : {

  00000	55		 push	 ebp
  00001	8b ec		 mov	 ebp, esp
  00003	56		 push	 esi

; 51   : 	ioPlayEntity *pPlay = ToPlayEntity( pObj );

  00004	ff 75 08	 push	 DWORD PTR _pObj$[ebp]
  00007	e8 00 00 00 00	 call	 ?ToPlayEntity@@YAPAVioPlayEntity@@PAVioGameEntity@@@Z ; ToPlayEntity
  0000c	8b f0		 mov	 esi, eax
  0000e	59		 pop	 ecx

; 52   : 	if( !pPlay || pPlay->GetSubType() != ioPlayEntity::PST_WALL_ZONE )

  0000f	85 f6		 test	 esi, esi
  00011	74 28		 je	 SHORT $LN1@ToWallZone
  00013	8b 06		 mov	 eax, DWORD PTR [esi]
  00015	8b ce		 mov	 ecx, esi
  00017	ff 90 a4 00 00
	00		 call	 DWORD PTR [eax+164]
  0001d	83 f8 0b	 cmp	 eax, 11			; 0000000bH
  00020	75 19		 jne	 SHORT $LN1@ToWallZone

; 54   : 
; 55   : 	return dynamic_cast< ioWallZone* >( pPlay );

  00022	6a 00		 push	 0
  00024	68 00 00 00 00	 push	 OFFSET ??_R0?AVioWallZone@@@8
  00029	68 00 00 00 00	 push	 OFFSET ??_R0?AVioPlayEntity@@@8
  0002e	6a 00		 push	 0
  00030	56		 push	 esi
  00031	e8 00 00 00 00	 call	 ___RTDynamicCast
  00036	83 c4 14	 add	 esp, 20			; 00000014H
  00039	eb 02		 jmp	 SHORT $LN3@ToWallZone
$LN1@ToWallZone:

; 53   : 		return NULL;

  0003b	33 c0		 xor	 eax, eax
$LN3@ToWallZone:
  0003d	5e		 pop	 esi

; 56   : }

  0003e	5d		 pop	 ebp
  0003f	c3		 ret	 0
?ToWallZone@@YAPAVioWallZone@@PAVioGameEntity@@@Z ENDP	; ToWallZone
_TEXT	ENDS
PUBLIC	??_R0?AVioSymbolStruct@@@8			; ioSymbolStruct `RTTI Type Descriptor'
PUBLIC	?ToSymbolStruct@@YAPAVioSymbolStruct@@PAVioGameEntity@@@Z ; ToSymbolStruct
;	COMDAT ??_R0?AVioSymbolStruct@@@8
; File d:\lost saga for developer\youtube\tutorial\source\src\lsclient\iosymbolstruct.h
_DATA	SEGMENT
??_R0?AVioSymbolStruct@@@8 DD FLAT:??_7type_info@@6B@	; ioSymbolStruct `RTTI Type Descriptor'
	DD	00H
	DB	'.?AVioSymbolStruct@@', 00H
; Function compile flags: /Ogsp
_DATA	ENDS
;	COMDAT ?ToSymbolStruct@@YAPAVioSymbolStruct@@PAVioGameEntity@@@Z
_TEXT	SEGMENT
_pObj$ = 8						; size = 4
?ToSymbolStruct@@YAPAVioSymbolStruct@@PAVioGameEntity@@@Z PROC ; ToSymbolStruct, COMDAT

; 171  : {

  00000	55		 push	 ebp
  00001	8b ec		 mov	 ebp, esp
  00003	56		 push	 esi

; 172  : 	ioPlayEntity *pPlay = ToPlayEntity( pObj );

  00004	ff 75 08	 push	 DWORD PTR _pObj$[ebp]
  00007	e8 00 00 00 00	 call	 ?ToPlayEntity@@YAPAVioPlayEntity@@PAVioGameEntity@@@Z ; ToPlayEntity
  0000c	8b f0		 mov	 esi, eax
  0000e	59		 pop	 ecx

; 173  : 	if( !pPlay || pPlay->GetSubType() != ioPlayEntity::PST_SYMBOL )

  0000f	85 f6		 test	 esi, esi
  00011	74 28		 je	 SHORT $LN1@ToSymbolSt
  00013	8b 06		 mov	 eax, DWORD PTR [esi]
  00015	8b ce		 mov	 ecx, esi
  00017	ff 90 a4 00 00
	00		 call	 DWORD PTR [eax+164]
  0001d	83 f8 01	 cmp	 eax, 1
  00020	75 19		 jne	 SHORT $LN1@ToSymbolSt

; 175  : 
; 176  : 	return dynamic_cast< ioSymbolStruct* >( pPlay );

  00022	6a 00		 push	 0
  00024	68 00 00 00 00	 push	 OFFSET ??_R0?AVioSymbolStruct@@@8
  00029	68 00 00 00 00	 push	 OFFSET ??_R0?AVioPlayEntity@@@8
  0002e	6a 00		 push	 0
  00030	56		 push	 esi
  00031	e8 00 00 00 00	 call	 ___RTDynamicCast
  00036	83 c4 14	 add	 esp, 20			; 00000014H
  00039	eb 02		 jmp	 SHORT $LN3@ToSymbolSt
$LN1@ToSymbolSt:

; 174  : 		return NULL;

  0003b	33 c0		 xor	 eax, eax
$LN3@ToSymbolSt:
  0003d	5e		 pop	 esi

; 177  : }

  0003e	5d		 pop	 ebp
  0003f	c3		 ret	 0
?ToSymbolStruct@@YAPAVioSymbolStruct@@PAVioGameEntity@@@Z ENDP ; ToSymbolStruct
_TEXT	ENDS
PUBLIC	??_R0?AVioBall@@@8				; ioBall `RTTI Type Descriptor'
PUBLIC	?ToBallStruct@@YAPAVioBall@@PAVioGameEntity@@@Z	; ToBallStruct
;	COMDAT ??_R0?AVioBall@@@8
; File d:\lost saga for developer\youtube\tutorial\source\src\lsclient\ioball.h
_DATA	SEGMENT
??_R0?AVioBall@@@8 DD FLAT:??_7type_info@@6B@		; ioBall `RTTI Type Descriptor'
	DD	00H
	DB	'.?AVioBall@@', 00H
; Function compile flags: /Ogsp
_DATA	ENDS
;	COMDAT ?ToBallStruct@@YAPAVioBall@@PAVioGameEntity@@@Z
_TEXT	SEGMENT
_pObj$ = 8						; size = 4
?ToBallStruct@@YAPAVioBall@@PAVioGameEntity@@@Z PROC	; ToBallStruct, COMDAT

; 252  : {

  00000	55		 push	 ebp
  00001	8b ec		 mov	 ebp, esp
  00003	56		 push	 esi

; 253  : 	ioPlayEntity *pPlay = ToPlayEntity( pObj );

  00004	ff 75 08	 push	 DWORD PTR _pObj$[ebp]
  00007	e8 00 00 00 00	 call	 ?ToPlayEntity@@YAPAVioPlayEntity@@PAVioGameEntity@@@Z ; ToPlayEntity
  0000c	8b f0		 mov	 esi, eax
  0000e	59		 pop	 ecx

; 254  : 	if( !pPlay || pPlay->GetSubType() != ioPlayEntity::PST_BALL )

  0000f	85 f6		 test	 esi, esi
  00011	74 28		 je	 SHORT $LN1@ToBallStru
  00013	8b 06		 mov	 eax, DWORD PTR [esi]
  00015	8b ce		 mov	 ecx, esi
  00017	ff 90 a4 00 00
	00		 call	 DWORD PTR [eax+164]
  0001d	83 f8 08	 cmp	 eax, 8
  00020	75 19		 jne	 SHORT $LN1@ToBallStru

; 256  : 
; 257  : 	return dynamic_cast< ioBall* >( pPlay );

  00022	6a 00		 push	 0
  00024	68 00 00 00 00	 push	 OFFSET ??_R0?AVioBall@@@8
  00029	68 00 00 00 00	 push	 OFFSET ??_R0?AVioPlayEntity@@@8
  0002e	6a 00		 push	 0
  00030	56		 push	 esi
  00031	e8 00 00 00 00	 call	 ___RTDynamicCast
  00036	83 c4 14	 add	 esp, 20			; 00000014H
  00039	eb 02		 jmp	 SHORT $LN3@ToBallStru
$LN1@ToBallStru:

; 255  : 		return NULL;

  0003b	33 c0		 xor	 eax, eax
$LN3@ToBallStru:
  0003d	5e		 pop	 esi

; 258  : }

  0003e	5d		 pop	 ebp
  0003f	c3		 ret	 0
?ToBallStruct@@YAPAVioBall@@PAVioGameEntity@@@Z ENDP	; ToBallStruct
_TEXT	ENDS
PUBLIC	??_R0?AVioPushStruct@@@8			; ioPushStruct `RTTI Type Descriptor'
PUBLIC	?ToPushStruct@@YAPAVioPushStruct@@PAVioGameEntity@@@Z ; ToPushStruct
;	COMDAT ??_R0?AVioPushStruct@@@8
; File d:\lost saga for developer\youtube\tutorial\source\src\lsclient\iopushstruct.h
_DATA	SEGMENT
??_R0?AVioPushStruct@@@8 DD FLAT:??_7type_info@@6B@	; ioPushStruct `RTTI Type Descriptor'
	DD	00H
	DB	'.?AVioPushStruct@@', 00H
; Function compile flags: /Ogsp
_DATA	ENDS
;	COMDAT ?ToPushStruct@@YAPAVioPushStruct@@PAVioGameEntity@@@Z
_TEXT	SEGMENT
_pObj$ = 8						; size = 4
?ToPushStruct@@YAPAVioPushStruct@@PAVioGameEntity@@@Z PROC ; ToPushStruct, COMDAT

; 440  : {

  00000	55		 push	 ebp
  00001	8b ec		 mov	 ebp, esp
  00003	56		 push	 esi

; 441  : 	ioPlayEntity *pPlay = ToPlayEntity( pObj );

  00004	ff 75 08	 push	 DWORD PTR _pObj$[ebp]
  00007	e8 00 00 00 00	 call	 ?ToPlayEntity@@YAPAVioPlayEntity@@PAVioGameEntity@@@Z ; ToPlayEntity
  0000c	8b f0		 mov	 esi, eax
  0000e	59		 pop	 ecx

; 442  : 	if( !pPlay || pPlay->GetSubType() != ioPlayEntity::PST_PUSHSTRUCT )

  0000f	85 f6		 test	 esi, esi
  00011	74 28		 je	 SHORT $LN1@ToPushStru
  00013	8b 06		 mov	 eax, DWORD PTR [esi]
  00015	8b ce		 mov	 ecx, esi
  00017	ff 90 a4 00 00
	00		 call	 DWORD PTR [eax+164]
  0001d	83 f8 02	 cmp	 eax, 2
  00020	75 19		 jne	 SHORT $LN1@ToPushStru

; 444  : 
; 445  : 	return dynamic_cast< ioPushStruct* >( pPlay );

  00022	6a 00		 push	 0
  00024	68 00 00 00 00	 push	 OFFSET ??_R0?AVioPushStruct@@@8
  00029	68 00 00 00 00	 push	 OFFSET ??_R0?AVioPlayEntity@@@8
  0002e	6a 00		 push	 0
  00030	56		 push	 esi
  00031	e8 00 00 00 00	 call	 ___RTDynamicCast
  00036	83 c4 14	 add	 esp, 20			; 00000014H
  00039	eb 02		 jmp	 SHORT $LN3@ToPushStru
$LN1@ToPushStru:

; 443  : 		return NULL;

  0003b	33 c0		 xor	 eax, eax
$LN3@ToPushStru:
  0003d	5e		 pop	 esi

; 446  : }

  0003e	5d		 pop	 ebp
  0003f	c3		 ret	 0
?ToPushStruct@@YAPAVioPushStruct@@PAVioGameEntity@@@Z ENDP ; ToPushStruct
_TEXT	ENDS
PUBLIC	??1?$_Vector_val@UWeaponInfo@@V?$allocator@UWeaponInfo@@@std@@@std@@QAE@XZ ; std::_Vector_val<WeaponInfo,std::allocator<WeaponInfo> >::~_Vector_val<WeaponInfo,std::allocator<WeaponInfo> >
; Function compile flags: /Ogsp
; File c:\program files (x86)\microsoft visual studio 10.0\vc\include\vector
;	COMDAT ??1?$_Vector_val@UWeaponInfo@@V?$allocator@UWeaponInfo@@@std@@@std@@QAE@XZ
_TEXT	SEGMENT
??1?$_Vector_val@UWeaponInfo@@V?$allocator@UWeaponInfo@@@std@@@std@@QAE@XZ PROC ; std::_Vector_val<WeaponInfo,std::allocator<WeaponInfo> >::~_Vector_val<WeaponInfo,std::allocator<WeaponInfo> >, COMDAT
; _this$ = ecx

; 434  : 		}

  00000	c3		 ret	 0
??1?$_Vector_val@UWeaponInfo@@V?$allocator@UWeaponInfo@@@std@@@std@@QAE@XZ ENDP ; std::_Vector_val<WeaponInfo,std::allocator<WeaponInfo> >::~_Vector_val<WeaponInfo,std::allocator<WeaponInfo> >
_TEXT	ENDS
PUBLIC	??0?$allocator@UWeaponInfo@@@std@@QAE@XZ	; std::allocator<WeaponInfo>::allocator<WeaponInfo>
; Function compile flags: /Ogsp
; File c:\program files (x86)\microsoft visual studio 10.0\vc\include\xmemory
;	COMDAT ??0?$allocator@UWeaponInfo@@@std@@QAE@XZ
_TEXT	SEGMENT
??0?$allocator@UWeaponInfo@@@std@@QAE@XZ PROC		; std::allocator<WeaponInfo>::allocator<WeaponInfo>, COMDAT
; _this$ = ecx

; 161  : 	_ALLOCATOR() _THROW0()

  00000	8b c1		 mov	 eax, ecx

; 162  : 		{	// construct default allocator (do nothing)
; 163  : 		}

  00002	c3		 ret	 0
??0?$allocator@UWeaponInfo@@@std@@QAE@XZ ENDP		; std::allocator<WeaponInfo>::allocator<WeaponInfo>
_TEXT	ENDS
PUBLIC	?EncryptValueToPool@?$CEncrypt@M@@AAEXPBD@Z	; CEncrypt<float>::EncryptValueToPool
EXTRN	?EncryptByte@ccddaabb@@QAEXPBDPADH@Z:PROC	; ccddaabb::EncryptByte
; Function compile flags: /Ogsp
; File d:\lost saga for developer\youtube\tutorial\source\src\lsclient\encryptvalue.h
;	COMDAT ?EncryptValueToPool@?$CEncrypt@M@@AAEXPBD@Z
_TEXT	SEGMENT
_value$ = 8						; size = 4
?EncryptValueToPool@?$CEncrypt@M@@AAEXPBD@Z PROC	; CEncrypt<float>::EncryptValueToPool, COMDAT
; _this$ = ecx

; 67   : 	{

  00000	55		 push	 ebp
  00001	8b ec		 mov	 ebp, esp

; 68   : 		m_RC5.EncryptByte( value, m_MemPool, max(m_ValueSize, DEFAULT_ENCRYPT) );

  00003	0f b7 41 06	 movzx	 eax, WORD PTR [ecx+6]
  00007	83 f8 04	 cmp	 eax, 4
  0000a	77 03		 ja	 SHORT $LN4@EncryptVal
  0000c	6a 04		 push	 4
  0000e	58		 pop	 eax
$LN4@EncryptVal:
  0000f	50		 push	 eax
  00010	8d 41 1c	 lea	 eax, DWORD PTR [ecx+28]
  00013	50		 push	 eax
  00014	ff 75 08	 push	 DWORD PTR _value$[ebp]
  00017	83 c1 0c	 add	 ecx, 12			; 0000000cH
  0001a	e8 00 00 00 00	 call	 ?EncryptByte@ccddaabb@@QAEXPBDPADH@Z ; ccddaabb::EncryptByte

; 69   : 		
; 70   : 	}

  0001f	5d		 pop	 ebp
  00020	c2 04 00	 ret	 4
?EncryptValueToPool@?$CEncrypt@M@@AAEXPBD@Z ENDP	; CEncrypt<float>::EncryptValueToPool
_TEXT	ENDS
PUBLIC	?DecryptValueToPool@?$CEncrypt@M@@QAEXPAM@Z	; CEncrypt<float>::DecryptValueToPool
EXTRN	?DecryptByte@ccddaabb@@QBEXPBDPADH@Z:PROC	; ccddaabb::DecryptByte
; Function compile flags: /Ogsp
;	COMDAT ?DecryptValueToPool@?$CEncrypt@M@@QAEXPAM@Z
_TEXT	SEGMENT
_value$ = 8						; size = 4
?DecryptValueToPool@?$CEncrypt@M@@QAEXPAM@Z PROC	; CEncrypt<float>::DecryptValueToPool, COMDAT
; _this$ = ecx

; 1648 : 	{

  00000	55		 push	 ebp
  00001	8b ec		 mov	 ebp, esp
  00003	56		 push	 esi

; 1649 : 		m_RC5.DecryptByte( m_MemPool, m_TempMem, 4 );

  00004	8d 71 28	 lea	 esi, DWORD PTR [ecx+40]
  00007	6a 04		 push	 4
  00009	8d 41 1c	 lea	 eax, DWORD PTR [ecx+28]
  0000c	56		 push	 esi
  0000d	50		 push	 eax
  0000e	83 c1 0c	 add	 ecx, 12			; 0000000cH
  00011	e8 00 00 00 00	 call	 ?DecryptByte@ccddaabb@@QBEXPBDPADH@Z ; ccddaabb::DecryptByte

; 1650 : 		*value = *((float*)m_TempMem);

  00016	d9 06		 fld	 DWORD PTR [esi]
  00018	8b 45 08	 mov	 eax, DWORD PTR _value$[ebp]
  0001b	d9 18		 fstp	 DWORD PTR [eax]
  0001d	5e		 pop	 esi

; 1651 : 	}

  0001e	5d		 pop	 ebp
  0001f	c2 04 00	 ret	 4
?DecryptValueToPool@?$CEncrypt@M@@QAEXPAM@Z ENDP	; CEncrypt<float>::DecryptValueToPool
_TEXT	ENDS
PUBLIC	?DecryptValueToPool@?$CEncrypt@_N@@QAEXPA_N@Z	; CEncrypt<bool>::DecryptValueToPool
; Function compile flags: /Ogsp
;	COMDAT ?DecryptValueToPool@?$CEncrypt@_N@@QAEXPA_N@Z
_TEXT	SEGMENT
_value$ = 8						; size = 4
?DecryptValueToPool@?$CEncrypt@_N@@QAEXPA_N@Z PROC	; CEncrypt<bool>::DecryptValueToPool, COMDAT
; _this$ = ecx

; 219  : 	{

  00000	55		 push	 ebp
  00001	8b ec		 mov	 ebp, esp
  00003	56		 push	 esi

; 220  : 		m_RC5.DecryptByte( m_MemPool, m_TempMem, 4 );

  00004	8d 71 28	 lea	 esi, DWORD PTR [ecx+40]
  00007	6a 04		 push	 4
  00009	8d 41 1c	 lea	 eax, DWORD PTR [ecx+28]
  0000c	56		 push	 esi
  0000d	50		 push	 eax
  0000e	83 c1 0c	 add	 ecx, 12			; 0000000cH
  00011	e8 00 00 00 00	 call	 ?DecryptByte@ccddaabb@@QBEXPBDPADH@Z ; ccddaabb::DecryptByte

; 221  : 		*value = *((bool*)m_TempMem);

  00016	8a 06		 mov	 al, BYTE PTR [esi]
  00018	8b 4d 08	 mov	 ecx, DWORD PTR _value$[ebp]
  0001b	88 01		 mov	 BYTE PTR [ecx], al
  0001d	5e		 pop	 esi

; 222  : 	}

  0001e	5d		 pop	 ebp
  0001f	c2 04 00	 ret	 4
?DecryptValueToPool@?$CEncrypt@_N@@QAEXPA_N@Z ENDP	; CEncrypt<bool>::DecryptValueToPool
_TEXT	ENDS
PUBLIC	?DecryptValueToPool@?$CEncrypt@W4TeamType@@@@QAEXPAW4TeamType@@@Z ; CEncrypt<enum TeamType>::DecryptValueToPool
; Function compile flags: /Ogsp
;	COMDAT ?DecryptValueToPool@?$CEncrypt@W4TeamType@@@@QAEXPAW4TeamType@@@Z
_TEXT	SEGMENT
_value$ = 8						; size = 4
?DecryptValueToPool@?$CEncrypt@W4TeamType@@@@QAEXPAW4TeamType@@@Z PROC ; CEncrypt<enum TeamType>::DecryptValueToPool, COMDAT
; _this$ = ecx

; 2959 : 	{

  00000	55		 push	 ebp
  00001	8b ec		 mov	 ebp, esp
  00003	56		 push	 esi

; 2960 : 		m_RC5.DecryptByte( m_MemPool, m_TempMem, sizeof(TeamType) );

  00004	8d 71 28	 lea	 esi, DWORD PTR [ecx+40]
  00007	6a 04		 push	 4
  00009	8d 41 1c	 lea	 eax, DWORD PTR [ecx+28]
  0000c	56		 push	 esi
  0000d	50		 push	 eax
  0000e	83 c1 0c	 add	 ecx, 12			; 0000000cH
  00011	e8 00 00 00 00	 call	 ?DecryptByte@ccddaabb@@QBEXPBDPADH@Z ; ccddaabb::DecryptByte

; 2961 : 		*value = *((TeamType*)m_TempMem);

  00016	8b 06		 mov	 eax, DWORD PTR [esi]
  00018	8b 4d 08	 mov	 ecx, DWORD PTR _value$[ebp]
  0001b	89 01		 mov	 DWORD PTR [ecx], eax
  0001d	5e		 pop	 esi

; 2962 : 	}

  0001e	5d		 pop	 ebp
  0001f	c2 04 00	 ret	 4
?DecryptValueToPool@?$CEncrypt@W4TeamType@@@@QAEXPAW4TeamType@@@Z ENDP ; CEncrypt<enum TeamType>::DecryptValueToPool
_TEXT	ENDS
PUBLIC	??0?$allocator@UWeaponInfo@@@std@@QAE@ABV01@@Z	; std::allocator<WeaponInfo>::allocator<WeaponInfo>
; Function compile flags: /Ogsp
; File c:\program files (x86)\microsoft visual studio 10.0\vc\include\xmemory
;	COMDAT ??0?$allocator@UWeaponInfo@@@std@@QAE@ABV01@@Z
_TEXT	SEGMENT
___formal$ = 8						; size = 4
??0?$allocator@UWeaponInfo@@@std@@QAE@ABV01@@Z PROC	; std::allocator<WeaponInfo>::allocator<WeaponInfo>, COMDAT
; _this$ = ecx

; 165  : 	_ALLOCATOR(const _ALLOCATOR<_Ty>&) _THROW0()

  00000	8b c1		 mov	 eax, ecx

; 166  : 		{	// construct by copying (do nothing)
; 167  : 		}

  00002	c2 04 00	 ret	 4
??0?$allocator@UWeaponInfo@@@std@@QAE@ABV01@@Z ENDP	; std::allocator<WeaponInfo>::allocator<WeaponInfo>
_TEXT	ENDS
PUBLIC	?deallocate@?$allocator@UWeaponInfo@@@std@@QAEXPAUWeaponInfo@@I@Z ; std::allocator<WeaponInfo>::deallocate
; Function compile flags: /Ogsp
;	COMDAT ?deallocate@?$allocator@UWeaponInfo@@@std@@QAEXPAUWeaponInfo@@I@Z
_TEXT	SEGMENT
__Ptr$ = 8						; size = 4
___formal$ = 12						; size = 4
?deallocate@?$allocator@UWeaponInfo@@@std@@QAEXPAUWeaponInfo@@I@Z PROC ; std::allocator<WeaponInfo>::deallocate, COMDAT
; _this$ = ecx

; 181  : 		{	// deallocate object at _Ptr, ignore size

  00000	55		 push	 ebp
  00001	8b ec		 mov	 ebp, esp

; 182  : 		::operator delete(_Ptr);

  00003	ff 75 08	 push	 DWORD PTR __Ptr$[ebp]
  00006	e8 00 00 00 00	 call	 ??3@YAXPAX@Z		; operator delete
  0000b	59		 pop	 ecx

; 183  : 		}

  0000c	5d		 pop	 ebp
  0000d	c2 08 00	 ret	 8
?deallocate@?$allocator@UWeaponInfo@@@std@@QAEXPAUWeaponInfo@@I@Z ENDP ; std::allocator<WeaponInfo>::deallocate
_TEXT	ENDS
EXTRN	__imp_??0exception@std@@QAE@ABV01@@Z:PROC
; Function compile flags: /Ogsp
;	COMDAT ??0bad_alloc@std@@QAE@ABV01@@Z
_TEXT	SEGMENT
___that$ = 8						; size = 4
??0bad_alloc@std@@QAE@ABV01@@Z PROC			; std::bad_alloc::bad_alloc, COMDAT
; _this$ = ecx
  00000	55		 push	 ebp
  00001	8b ec		 mov	 ebp, esp
  00003	56		 push	 esi
  00004	ff 75 08	 push	 DWORD PTR ___that$[ebp]
  00007	8b f1		 mov	 esi, ecx
  00009	ff 15 00 00 00
	00		 call	 DWORD PTR __imp_??0exception@std@@QAE@ABV01@@Z
  0000f	c7 06 00 00 00
	00		 mov	 DWORD PTR [esi], OFFSET ??_7bad_alloc@std@@6B@
  00015	8b c6		 mov	 eax, esi
  00017	5e		 pop	 esi
  00018	5d		 pop	 ebp
  00019	c2 04 00	 ret	 4
??0bad_alloc@std@@QAE@ABV01@@Z ENDP			; std::bad_alloc::bad_alloc
_TEXT	ENDS
PUBLIC	??$_Ptr_cat@UWeaponInfo@@U1@@std@@YA?AU_Nonscalar_ptr_iterator_tag@0@PAUWeaponInfo@@0@Z ; std::_Ptr_cat<WeaponInfo,WeaponInfo>
; Function compile flags: /Ogsp
; File c:\program files (x86)\microsoft visual studio 10.0\vc\include\xutility
;	COMDAT ??$_Ptr_cat@UWeaponInfo@@U1@@std@@YA?AU_Nonscalar_ptr_iterator_tag@0@PAUWeaponInfo@@0@Z
_TEXT	SEGMENT
__Cat$ = -1						; size = 1
___formal$ = 8						; size = 4
___formal$ = 12						; size = 4
??$_Ptr_cat@UWeaponInfo@@U1@@std@@YA?AU_Nonscalar_ptr_iterator_tag@0@PAUWeaponInfo@@0@Z PROC ; std::_Ptr_cat<WeaponInfo,WeaponInfo>, COMDAT

; 516  : 	{	// return pointer category from pointers

  00000	55		 push	 ebp
  00001	8b ec		 mov	 ebp, esp
  00003	51		 push	 ecx

; 517  : 	typename _Ptr_cat_helper<_Elem1, _Elem2>::_Type _Cat;
; 518  : 	return (_Cat);

  00004	8a 45 ff	 mov	 al, BYTE PTR __Cat$[ebp]

; 519  : 	}

  00007	c9		 leave
  00008	c3		 ret	 0
??$_Ptr_cat@UWeaponInfo@@U1@@std@@YA?AU_Nonscalar_ptr_iterator_tag@0@PAUWeaponInfo@@0@Z ENDP ; std::_Ptr_cat<WeaponInfo,WeaponInfo>
_TEXT	ENDS
PUBLIC	?capacity@?$vector@UWeaponInfo@@V?$allocator@UWeaponInfo@@@std@@@std@@QBEIXZ ; std::vector<WeaponInfo,std::allocator<WeaponInfo> >::capacity
; Function compile flags: /Ogsp
; File c:\program files (x86)\microsoft visual studio 10.0\vc\include\vector
;	COMDAT ?capacity@?$vector@UWeaponInfo@@V?$allocator@UWeaponInfo@@@std@@@std@@QBEIXZ
_TEXT	SEGMENT
?capacity@?$vector@UWeaponInfo@@V?$allocator@UWeaponInfo@@@std@@@std@@QBEIXZ PROC ; std::vector<WeaponInfo,std::allocator<WeaponInfo> >::capacity, COMDAT
; _this$ = ecx

; 777  : 		return (this->_Myend - this->_Myfirst);

  00000	8b 41 08	 mov	 eax, DWORD PTR [ecx+8]
  00003	2b 01		 sub	 eax, DWORD PTR [ecx]
  00005	6a 28		 push	 40			; 00000028H
  00007	99		 cdq
  00008	59		 pop	 ecx
  00009	f7 f9		 idiv	 ecx

; 778  : 		}

  0000b	c3		 ret	 0
?capacity@?$vector@UWeaponInfo@@V?$allocator@UWeaponInfo@@@std@@@std@@QBEIXZ ENDP ; std::vector<WeaponInfo,std::allocator<WeaponInfo> >::capacity
_TEXT	ENDS
PUBLIC	?size@?$vector@UWeaponInfo@@V?$allocator@UWeaponInfo@@@std@@@std@@QBEIXZ ; std::vector<WeaponInfo,std::allocator<WeaponInfo> >::size
; Function compile flags: /Ogsp
;	COMDAT ?size@?$vector@UWeaponInfo@@V?$allocator@UWeaponInfo@@@std@@@std@@QBEIXZ
_TEXT	SEGMENT
?size@?$vector@UWeaponInfo@@V?$allocator@UWeaponInfo@@@std@@@std@@QBEIXZ PROC ; std::vector<WeaponInfo,std::allocator<WeaponInfo> >::size, COMDAT
; _this$ = ecx

; 879  : 		return (this->_Mylast - this->_Myfirst);

  00000	8b 41 04	 mov	 eax, DWORD PTR [ecx+4]
  00003	2b 01		 sub	 eax, DWORD PTR [ecx]
  00005	6a 28		 push	 40			; 00000028H
  00007	99		 cdq
  00008	59		 pop	 ecx
  00009	f7 f9		 idiv	 ecx

; 880  : 		}

  0000b	c3		 ret	 0
?size@?$vector@UWeaponInfo@@V?$allocator@UWeaponInfo@@@std@@@std@@QBEIXZ ENDP ; std::vector<WeaponInfo,std::allocator<WeaponInfo> >::size
_TEXT	ENDS
PUBLIC	?_Xlen@?$vector@UWeaponInfo@@V?$allocator@UWeaponInfo@@@std@@@std@@IBEXXZ ; std::vector<WeaponInfo,std::allocator<WeaponInfo> >::_Xlen
; Function compile flags: /Ogsp
;	COMDAT ?_Xlen@?$vector@UWeaponInfo@@V?$allocator@UWeaponInfo@@@std@@@std@@IBEXXZ
_TEXT	SEGMENT
?_Xlen@?$vector@UWeaponInfo@@V?$allocator@UWeaponInfo@@@std@@@std@@IBEXXZ PROC ; std::vector<WeaponInfo,std::allocator<WeaponInfo> >::_Xlen, COMDAT
; _this$ = ecx

; 1427 : 		_Xlength_error("vector<T> too long");

  00000	68 00 00 00 00	 push	 OFFSET ??_C@_0BD@OLBABOEK@vector?$DMT?$DO?5too?5long?$AA@
  00005	ff 15 00 00 00
	00		 call	 DWORD PTR __imp_?_Xlength_error@std@@YAXPBD@Z
$LN4@Xlen@2:
$LN3@Xlen@2:
  0000b	cc		 int	 3
?_Xlen@?$vector@UWeaponInfo@@V?$allocator@UWeaponInfo@@@std@@@std@@IBEXXZ ENDP ; std::vector<WeaponInfo,std::allocator<WeaponInfo> >::_Xlen
_TEXT	ENDS
PUBLIC	?max_size@?$allocator@UWeaponInfo@@@std@@QBEIXZ	; std::allocator<WeaponInfo>::max_size
; Function compile flags: /Ogsp
; File c:\program files (x86)\microsoft visual studio 10.0\vc\include\xmemory
;	COMDAT ?max_size@?$allocator@UWeaponInfo@@@std@@QBEIXZ
_TEXT	SEGMENT
?max_size@?$allocator@UWeaponInfo@@@std@@QBEIXZ PROC	; std::allocator<WeaponInfo>::max_size, COMDAT
; _this$ = ecx

; 218  : 		_SIZT _Count = (_SIZT)(-1) / sizeof (_Ty);
; 219  : 		return (0 < _Count ? _Count : 1);

  00000	b8 66 66 66 06	 mov	 eax, 107374182		; 06666666H

; 220  : 		}

  00005	c3		 ret	 0
?max_size@?$allocator@UWeaponInfo@@@std@@QBEIXZ ENDP	; std::allocator<WeaponInfo>::max_size
_TEXT	ENDS
PUBLIC	??0?$_Vector_const_iterator@V?$_Vector_val@UWeaponInfo@@V?$allocator@UWeaponInfo@@@std@@@std@@@std@@QAE@PAUWeaponInfo@@PBU_Container_base0@1@@Z ; std::_Vector_const_iterator<std::_Vector_val<WeaponInfo,std::allocator<WeaponInfo> > >::_Vector_const_iterator<std::_Vector_val<WeaponInfo,std::allocator<WeaponInfo> > >
; Function compile flags: /Ogsp
; File c:\program files (x86)\microsoft visual studio 10.0\vc\include\vector
;	COMDAT ??0?$_Vector_const_iterator@V?$_Vector_val@UWeaponInfo@@V?$allocator@UWeaponInfo@@@std@@@std@@@std@@QAE@PAUWeaponInfo@@PBU_Container_base0@1@@Z
_TEXT	SEGMENT
__Parg$ = 8						; size = 4
__Pvector$ = 12						; size = 4
??0?$_Vector_const_iterator@V?$_Vector_val@UWeaponInfo@@V?$allocator@UWeaponInfo@@@std@@@std@@@std@@QAE@PAUWeaponInfo@@PBU_Container_base0@1@@Z PROC ; std::_Vector_const_iterator<std::_Vector_val<WeaponInfo,std::allocator<WeaponInfo> > >::_Vector_const_iterator<std::_Vector_val<WeaponInfo,std::allocator<WeaponInfo> > >, COMDAT
; _this$ = ecx

; 45   : 		{	// construct with pointer _Parg

  00000	55		 push	 ebp
  00001	8b ec		 mov	 ebp, esp
  00003	8b c1		 mov	 eax, ecx
  00005	8b 4d 08	 mov	 ecx, DWORD PTR __Parg$[ebp]
  00008	89 08		 mov	 DWORD PTR [eax], ecx

; 46   : 		this->_Adopt(_Pvector);
; 47   : 		}

  0000a	5d		 pop	 ebp
  0000b	c2 08 00	 ret	 8
??0?$_Vector_const_iterator@V?$_Vector_val@UWeaponInfo@@V?$allocator@UWeaponInfo@@@std@@@std@@@std@@QAE@PAUWeaponInfo@@PBU_Container_base0@1@@Z ENDP ; std::_Vector_const_iterator<std::_Vector_val<WeaponInfo,std::allocator<WeaponInfo> > >::_Vector_const_iterator<std::_Vector_val<WeaponInfo,std::allocator<WeaponInfo> > >
_TEXT	ENDS
PUBLIC	?_Compat@?$_Vector_const_iterator@V?$_Vector_val@UWeaponInfo@@V?$allocator@UWeaponInfo@@@std@@@std@@@std@@QBEXABV12@@Z ; std::_Vector_const_iterator<std::_Vector_val<WeaponInfo,std::allocator<WeaponInfo> > >::_Compat
; Function compile flags: /Ogsp
;	COMDAT ?_Compat@?$_Vector_const_iterator@V?$_Vector_val@UWeaponInfo@@V?$allocator@UWeaponInfo@@@std@@@std@@@std@@QBEXABV12@@Z
_TEXT	SEGMENT
___formal$ = 8						; size = 4
?_Compat@?$_Vector_const_iterator@V?$_Vector_val@UWeaponInfo@@V?$allocator@UWeaponInfo@@@std@@@std@@@std@@QBEXABV12@@Z PROC ; std::_Vector_const_iterator<std::_Vector_val<WeaponInfo,std::allocator<WeaponInfo> > >::_Compat, COMDAT
; _this$ = ecx

; 253  : 		}

  00000	c2 04 00	 ret	 4
?_Compat@?$_Vector_const_iterator@V?$_Vector_val@UWeaponInfo@@V?$allocator@UWeaponInfo@@@std@@@std@@@std@@QBEXABV12@@Z ENDP ; std::_Vector_const_iterator<std::_Vector_val<WeaponInfo,std::allocator<WeaponInfo> > >::_Compat
_TEXT	ENDS
PUBLIC	??$_Allocate@UWeaponInfo@@@std@@YAPAUWeaponInfo@@IPAU1@@Z ; std::_Allocate<WeaponInfo>
; Function compile flags: /Ogsp
; File c:\program files (x86)\microsoft visual studio 10.0\vc\include\xmemory
;	COMDAT ??$_Allocate@UWeaponInfo@@@std@@YAPAUWeaponInfo@@IPAU1@@Z
_TEXT	SEGMENT
$T599720 = -12						; size = 12
$T599724 = 8						; size = 4
__Count$ = 8						; size = 4
___formal$ = 12						; size = 4
??$_Allocate@UWeaponInfo@@@std@@YAPAUWeaponInfo@@IPAU1@@Z PROC ; std::_Allocate<WeaponInfo>, COMDAT

; 30   : 	{	// allocate storage for _Count elements of type _Ty

  00000	55		 push	 ebp
  00001	8b ec		 mov	 ebp, esp

; 31   : 	void *_Ptr = 0;
; 32   : 
; 33   : 	if (_Count <= 0)

  00003	8b 4d 08	 mov	 ecx, DWORD PTR __Count$[ebp]
  00006	83 ec 0c	 sub	 esp, 12			; 0000000cH
  00009	33 c0		 xor	 eax, eax
  0000b	85 c9		 test	 ecx, ecx

; 34   : 		_Count = 0;
; 35   : 	else if (((_SIZT)(-1) / sizeof (_Ty) < _Count)

  0000d	74 3c		 je	 SHORT $LN5@Allocate@2

; 36   : 		|| (_Ptr = ::operator new(_Count * sizeof (_Ty))) == 0)

  0000f	81 f9 66 66 66
	06		 cmp	 ecx, 107374182		; 06666666H
  00015	77 0e		 ja	 SHORT $LN1@Allocate@2
  00017	6b c9 28	 imul	 ecx, 40			; 00000028H
  0001a	51		 push	 ecx
  0001b	e8 00 00 00 00	 call	 ??2@YAPAXI@Z		; operator new
  00020	59		 pop	 ecx
  00021	85 c0		 test	 eax, eax

; 38   : 
; 39   : 	return ((_Ty _FARQ *)_Ptr);

  00023	75 26		 jne	 SHORT $LN5@Allocate@2
$LN1@Allocate@2:

; 37   : 		_THROW_NCEE(bad_alloc, 0);

  00025	83 65 08 00	 and	 DWORD PTR $T599724[ebp], 0
  00029	8d 45 08	 lea	 eax, DWORD PTR $T599724[ebp]
  0002c	50		 push	 eax
  0002d	8d 4d f4	 lea	 ecx, DWORD PTR $T599720[ebp]
  00030	ff 15 00 00 00
	00		 call	 DWORD PTR __imp_??0exception@std@@QAE@ABQBD@Z
  00036	68 00 00 00 00	 push	 OFFSET __TI2?AVbad_alloc@std@@
  0003b	8d 45 f4	 lea	 eax, DWORD PTR $T599720[ebp]
  0003e	50		 push	 eax
  0003f	c7 45 f4 00 00
	00 00		 mov	 DWORD PTR $T599720[ebp], OFFSET ??_7bad_alloc@std@@6B@
  00046	e8 00 00 00 00	 call	 __CxxThrowException@8
$LN10@Allocate@2:
$LN5@Allocate@2:

; 40   : 	}

  0004b	c9		 leave
  0004c	c3		 ret	 0
$LN9@Allocate@2:
??$_Allocate@UWeaponInfo@@@std@@YAPAUWeaponInfo@@IPAU1@@Z ENDP ; std::_Allocate<WeaponInfo>
_TEXT	ENDS
PUBLIC	??4WeaponInfo@@QAEAAU0@ABU0@@Z			; WeaponInfo::operator=
EXTRN	__imp_??4ioHashString@@QAEAAV0@ABV0@@Z:PROC
; Function compile flags: /Ogsp
;	COMDAT ??4WeaponInfo@@QAEAAU0@ABU0@@Z
_TEXT	SEGMENT
___that$ = 8						; size = 4
??4WeaponInfo@@QAEAAU0@ABU0@@Z PROC			; WeaponInfo::operator=, COMDAT
; _this$ = ecx
  00000	55		 push	 ebp
  00001	8b ec		 mov	 ebp, esp
  00003	56		 push	 esi
  00004	57		 push	 edi
  00005	8b 7d 08	 mov	 edi, DWORD PTR ___that$[ebp]
  00008	8b 07		 mov	 eax, DWORD PTR [edi]
  0000a	8b f1		 mov	 esi, ecx
  0000c	89 06		 mov	 DWORD PTR [esi], eax
  0000e	8b 47 04	 mov	 eax, DWORD PTR [edi+4]
  00011	89 46 04	 mov	 DWORD PTR [esi+4], eax
  00014	8d 47 08	 lea	 eax, DWORD PTR [edi+8]
  00017	50		 push	 eax
  00018	8d 4e 08	 lea	 ecx, DWORD PTR [esi+8]
  0001b	ff 15 00 00 00
	00		 call	 DWORD PTR __imp_??4ioHashString@@QAEAAV0@ABV0@@Z
  00021	8b 47 18	 mov	 eax, DWORD PTR [edi+24]
  00024	89 46 18	 mov	 DWORD PTR [esi+24], eax
  00027	8b 47 1c	 mov	 eax, DWORD PTR [edi+28]
  0002a	89 46 1c	 mov	 DWORD PTR [esi+28], eax
  0002d	8a 47 20	 mov	 al, BYTE PTR [edi+32]
  00030	88 46 20	 mov	 BYTE PTR [esi+32], al
  00033	8b 47 24	 mov	 eax, DWORD PTR [edi+36]
  00036	89 46 24	 mov	 DWORD PTR [esi+36], eax
  00039	5f		 pop	 edi
  0003a	8b c6		 mov	 eax, esi
  0003c	5e		 pop	 esi
  0003d	5d		 pop	 ebp
  0003e	c2 04 00	 ret	 4
??4WeaponInfo@@QAEAAU0@ABU0@@Z ENDP			; WeaponInfo::operator=
_TEXT	ENDS
PUBLIC	??_GWeaponInfo@@QAEPAXI@Z			; WeaponInfo::`scalar deleting destructor'
; Function compile flags: /Ogsp
;	COMDAT ??_GWeaponInfo@@QAEPAXI@Z
_TEXT	SEGMENT
___flags$ = 8						; size = 4
??_GWeaponInfo@@QAEPAXI@Z PROC				; WeaponInfo::`scalar deleting destructor', COMDAT
; _this$ = ecx
  00000	55		 push	 ebp
  00001	8b ec		 mov	 ebp, esp
  00003	56		 push	 esi
  00004	8b f1		 mov	 esi, ecx
  00006	8d 4e 08	 lea	 ecx, DWORD PTR [esi+8]
  00009	ff 15 00 00 00
	00		 call	 DWORD PTR __imp_??1ioHashString@@QAE@XZ
  0000f	f6 45 08 01	 test	 BYTE PTR ___flags$[ebp], 1
  00013	74 07		 je	 SHORT $LN1@scalar@2
  00015	56		 push	 esi
  00016	e8 00 00 00 00	 call	 ??3@YAXPAX@Z		; operator delete
  0001b	59		 pop	 ecx
$LN1@scalar@2:
  0001c	8b c6		 mov	 eax, esi
  0001e	5e		 pop	 esi
  0001f	5d		 pop	 ebp
  00020	c2 04 00	 ret	 4
??_GWeaponInfo@@QAEPAXI@Z ENDP				; WeaponInfo::`scalar deleting destructor'
_TEXT	ENDS
PUBLIC	??$move@AAUWeaponInfo@@@std@@YA$$QAUWeaponInfo@@AAU1@@Z ; std::move<WeaponInfo &>
; Function compile flags: /Ogsp
; File c:\program files (x86)\microsoft visual studio 10.0\vc\include\utility
;	COMDAT ??$move@AAUWeaponInfo@@@std@@YA$$QAUWeaponInfo@@AAU1@@Z
_TEXT	SEGMENT
__Arg$ = 8						; size = 4
??$move@AAUWeaponInfo@@@std@@YA$$QAUWeaponInfo@@AAU1@@Z PROC ; std::move<WeaponInfo &>, COMDAT

; 86   : 	{	// forward _Arg as movable

  00000	55		 push	 ebp
  00001	8b ec		 mov	 ebp, esp

; 87   : 	return ((typename tr1::_Remove_reference<_Ty>::_Type&&)_Arg);

  00003	8b 45 08	 mov	 eax, DWORD PTR __Arg$[ebp]

; 88   : 	}

  00006	5d		 pop	 ebp
  00007	c3		 ret	 0
??$move@AAUWeaponInfo@@@std@@YA$$QAUWeaponInfo@@AAU1@@Z ENDP ; std::move<WeaponInfo &>
_TEXT	ENDS
PUBLIC	??$forward@AAUWeaponInfo@@@std@@YAAAUWeaponInfo@@AAU1@@Z ; std::forward<WeaponInfo &>
; Function compile flags: /Ogsp
;	COMDAT ??$forward@AAUWeaponInfo@@@std@@YAAAUWeaponInfo@@AAU1@@Z
_TEXT	SEGMENT
__Arg$ = 8						; size = 4
??$forward@AAUWeaponInfo@@@std@@YAAAUWeaponInfo@@AAU1@@Z PROC ; std::forward<WeaponInfo &>, COMDAT

; 78   : 	{	// forward _Arg, given explicitly specified type parameter

  00000	55		 push	 ebp
  00001	8b ec		 mov	 ebp, esp

; 79   : 	return ((_Ty&&)_Arg);

  00003	8b 45 08	 mov	 eax, DWORD PTR __Arg$[ebp]

; 80   : 	}

  00006	5d		 pop	 ebp
  00007	c3		 ret	 0
??$forward@AAUWeaponInfo@@@std@@YAAAUWeaponInfo@@AAU1@@Z ENDP ; std::forward<WeaponInfo &>
_TEXT	ENDS
PUBLIC	??0WeaponInfo@@QAE@ABU0@@Z			; WeaponInfo::WeaponInfo
EXTRN	__imp_??0ioHashString@@QAE@ABV0@@Z:PROC
; Function compile flags: /Ogsp
;	COMDAT ??0WeaponInfo@@QAE@ABU0@@Z
_TEXT	SEGMENT
___that$ = 8						; size = 4
??0WeaponInfo@@QAE@ABU0@@Z PROC				; WeaponInfo::WeaponInfo, COMDAT
; _this$ = ecx
  00000	55		 push	 ebp
  00001	8b ec		 mov	 ebp, esp
  00003	56		 push	 esi
  00004	57		 push	 edi
  00005	8b 7d 08	 mov	 edi, DWORD PTR ___that$[ebp]
  00008	8b 07		 mov	 eax, DWORD PTR [edi]
  0000a	8b f1		 mov	 esi, ecx
  0000c	89 06		 mov	 DWORD PTR [esi], eax
  0000e	8b 47 04	 mov	 eax, DWORD PTR [edi+4]
  00011	89 46 04	 mov	 DWORD PTR [esi+4], eax
  00014	8d 47 08	 lea	 eax, DWORD PTR [edi+8]
  00017	50		 push	 eax
  00018	8d 4e 08	 lea	 ecx, DWORD PTR [esi+8]
  0001b	ff 15 00 00 00
	00		 call	 DWORD PTR __imp_??0ioHashString@@QAE@ABV0@@Z
  00021	8b 47 18	 mov	 eax, DWORD PTR [edi+24]
  00024	89 46 18	 mov	 DWORD PTR [esi+24], eax
  00027	8b 47 1c	 mov	 eax, DWORD PTR [edi+28]
  0002a	89 46 1c	 mov	 DWORD PTR [esi+28], eax
  0002d	8a 47 20	 mov	 al, BYTE PTR [edi+32]
  00030	88 46 20	 mov	 BYTE PTR [esi+32], al
  00033	8b 47 24	 mov	 eax, DWORD PTR [edi+36]
  00036	89 46 24	 mov	 DWORD PTR [esi+36], eax
  00039	5f		 pop	 edi
  0003a	8b c6		 mov	 eax, esi
  0003c	5e		 pop	 esi
  0003d	5d		 pop	 ebp
  0003e	c2 04 00	 ret	 4
??0WeaponInfo@@QAE@ABU0@@Z ENDP				; WeaponInfo::WeaponInfo
_TEXT	ENDS
PUBLIC	??_R0?AVioBaseChar@@@8				; ioBaseChar `RTTI Type Descriptor'
PUBLIC	?ToBaseChar@@YAPAVioBaseChar@@PAVioGameEntity@@@Z ; ToBaseChar
;	COMDAT ??_R0?AVioBaseChar@@@8
; File d:\lost saga for developer\youtube\tutorial\source\src\lsclient\iobasechar.h
_DATA	SEGMENT
??_R0?AVioBaseChar@@@8 DD FLAT:??_7type_info@@6B@	; ioBaseChar `RTTI Type Descriptor'
	DD	00H
	DB	'.?AVioBaseChar@@', 00H
; Function compile flags: /Ogsp
_DATA	ENDS
;	COMDAT ?ToBaseChar@@YAPAVioBaseChar@@PAVioGameEntity@@@Z
_TEXT	SEGMENT
_pObj$ = 8						; size = 4
?ToBaseChar@@YAPAVioBaseChar@@PAVioGameEntity@@@Z PROC	; ToBaseChar, COMDAT

; 4326 : {

  00000	55		 push	 ebp
  00001	8b ec		 mov	 ebp, esp
  00003	56		 push	 esi

; 4327 : 	ioPlayEntity *pPlay = ToPlayEntity( pObj );

  00004	ff 75 08	 push	 DWORD PTR _pObj$[ebp]
  00007	e8 00 00 00 00	 call	 ?ToPlayEntity@@YAPAVioPlayEntity@@PAVioGameEntity@@@Z ; ToPlayEntity
  0000c	8b f0		 mov	 esi, eax
  0000e	59		 pop	 ecx

; 4328 : 	if( !pPlay || pPlay->GetSubType() != ioPlayEntity::PST_CHAR )

  0000f	85 f6		 test	 esi, esi
  00011	74 25		 je	 SHORT $LN1@ToBaseChar
  00013	8b 06		 mov	 eax, DWORD PTR [esi]
  00015	8b ce		 mov	 ecx, esi
  00017	ff 90 a4 00 00
	00		 call	 DWORD PTR [eax+164]
  0001d	85 c0		 test	 eax, eax
  0001f	75 17		 jne	 SHORT $LN1@ToBaseChar

; 4330 : 
; 4331 : 	return dynamic_cast< ioBaseChar* >( pPlay );

  00021	50		 push	 eax
  00022	68 00 00 00 00	 push	 OFFSET ??_R0?AVioBaseChar@@@8
  00027	68 00 00 00 00	 push	 OFFSET ??_R0?AVioPlayEntity@@@8
  0002c	50		 push	 eax
  0002d	56		 push	 esi
  0002e	e8 00 00 00 00	 call	 ___RTDynamicCast
  00033	83 c4 14	 add	 esp, 20			; 00000014H
  00036	eb 02		 jmp	 SHORT $LN3@ToBaseChar
$LN1@ToBaseChar:

; 4329 : 		return NULL;

  00038	33 c0		 xor	 eax, eax
$LN3@ToBaseChar:
  0003a	5e		 pop	 esi

; 4332 : }

  0003b	5d		 pop	 ebp
  0003c	c3		 ret	 0
?ToBaseChar@@YAPAVioBaseChar@@PAVioGameEntity@@@Z ENDP	; ToBaseChar
_TEXT	ENDS
PUBLIC	??_R0?AVioMagicStaffItem3@@@8			; ioMagicStaffItem3 `RTTI Type Descriptor'
PUBLIC	?ToMagicStaffItem3@@YAPAVioMagicStaffItem3@@PAVioItem@@@Z ; ToMagicStaffItem3
;	COMDAT ??_R0?AVioMagicStaffItem3@@@8
; File d:\lost saga for developer\youtube\tutorial\source\src\lsclient\iomagicstaffitem3.h
_DATA	SEGMENT
??_R0?AVioMagicStaffItem3@@@8 DD FLAT:??_7type_info@@6B@ ; ioMagicStaffItem3 `RTTI Type Descriptor'
	DD	00H
	DB	'.?AVioMagicStaffItem3@@', 00H
; Function compile flags: /Ogsp
_DATA	ENDS
;	COMDAT ?ToMagicStaffItem3@@YAPAVioMagicStaffItem3@@PAVioItem@@@Z
_TEXT	SEGMENT
_pItem$ = 8						; size = 4
?ToMagicStaffItem3@@YAPAVioMagicStaffItem3@@PAVioItem@@@Z PROC ; ToMagicStaffItem3, COMDAT

; 131  : {

  00000	55		 push	 ebp
  00001	8b ec		 mov	 ebp, esp
  00003	56		 push	 esi

; 132  : 	ioWeaponItem *pWeapon = ToWeaponItem( pItem );

  00004	ff 75 08	 push	 DWORD PTR _pItem$[ebp]
  00007	e8 00 00 00 00	 call	 ?ToWeaponItem@@YAPAVioWeaponItem@@PAVioItem@@@Z ; ToWeaponItem
  0000c	8b f0		 mov	 esi, eax
  0000e	59		 pop	 ecx

; 133  : 	if( !pWeapon || pWeapon->GetSubType() != ioWeaponItem::WST_MAGIC_STAFF3 )

  0000f	85 f6		 test	 esi, esi
  00011	74 28		 je	 SHORT $LN1@ToMagicSta
  00013	8b 06		 mov	 eax, DWORD PTR [esi]
  00015	8b ce		 mov	 ecx, esi
  00017	ff 90 f0 02 00
	00		 call	 DWORD PTR [eax+752]
  0001d	83 f8 36	 cmp	 eax, 54			; 00000036H
  00020	75 19		 jne	 SHORT $LN1@ToMagicSta

; 135  : 
; 136  : 	return dynamic_cast< ioMagicStaffItem3* >( pWeapon );

  00022	6a 00		 push	 0
  00024	68 00 00 00 00	 push	 OFFSET ??_R0?AVioMagicStaffItem3@@@8
  00029	68 00 00 00 00	 push	 OFFSET ??_R0?AVioWeaponItem@@@8
  0002e	6a 00		 push	 0
  00030	56		 push	 esi
  00031	e8 00 00 00 00	 call	 ___RTDynamicCast
  00036	83 c4 14	 add	 esp, 20			; 00000014H
  00039	eb 02		 jmp	 SHORT $LN3@ToMagicSta
$LN1@ToMagicSta:

; 134  : 		return NULL;

  0003b	33 c0		 xor	 eax, eax
$LN3@ToMagicSta:
  0003d	5e		 pop	 esi

; 137  : }

  0003e	5d		 pop	 ebp
  0003f	c3		 ret	 0
?ToMagicStaffItem3@@YAPAVioMagicStaffItem3@@PAVioItem@@@Z ENDP ; ToMagicStaffItem3
_TEXT	ENDS
PUBLIC	?SetBombMesh@ioBombMissileWeapon3@@IAE_NABVioHashString@@@Z ; ioBombMissileWeapon3::SetBombMesh
EXTRN	__imp_?GetCollisionBox@ioEffect@@QBEABVioOrientBox@@XZ:PROC
EXTRN	__imp_??D@YA?AUD3DXVECTOR3@@ABU0@0@Z:PROC
EXTRN	__imp_??D@YA?AUD3DXVECTOR3@@ABUD3DXQUATERNION@@ABU0@@Z:PROC
EXTRN	__imp_?GetBiped@ioEntityGroup@@QAEPAVioBiped@@ABVioHashString@@@Z:PROC
EXTRN	__imp_?GetFirstLinkOffset@ioEffect@@QAE_NAAVioHashString@@AAUD3DXVECTOR3@@AAUD3DXQUATERNION@@@Z:PROC
EXTRN	__imp_??0ioHashString@@QAE@XZ:PROC
EXTRN	__imp_?UNIT_ALL@ioMath@@2UD3DXVECTOR3@@A:BYTE
EXTRN	__imp_?CreateEffect@ioEffectFactory@@QAEPAVioEffect@@ABVioHashString@@@Z:PROC
EXTRN	__EH_epilog3_GS:PROC
EXTRN	__EH_prolog3_GS:PROC
;	COMDAT xdata$x
; File c:\program files (x86)\microsoft directx sdk (june 2010)\include\d3dx9math.inl
xdata$x	SEGMENT
__unwindtable$?SetBombMesh@ioBombMissileWeapon3@@IAE_NABVioHashString@@@Z DD 0ffffffffH
	DD	FLAT:__unwindfunclet$?SetBombMesh@ioBombMissileWeapon3@@IAE_NABVioHashString@@@Z$0
	DD	00H
	DD	FLAT:__unwindfunclet$?SetBombMesh@ioBombMissileWeapon3@@IAE_NABVioHashString@@@Z$1
__ehfuncinfo$?SetBombMesh@ioBombMissileWeapon3@@IAE_NABVioHashString@@@Z DD 019930522H
	DD	02H
	DD	FLAT:__unwindtable$?SetBombMesh@ioBombMissileWeapon3@@IAE_NABVioHashString@@@Z
	DD	2 DUP(00H)
	DD	2 DUP(00H)
	DD	00H
	DD	01H
; Function compile flags: /Ogsp
; File d:\lost saga for developer\youtube\tutorial\source\src\lsclient\iobombmissileweapon3.cpp
xdata$x	ENDS
;	COMDAT ?SetBombMesh@ioBombMissileWeapon3@@IAE_NABVioHashString@@@Z
_TEXT	SEGMENT
_qtLinkRotOffset$ = -100				; size = 16
_szLinkBiped$ = -84					; size = 16
$T599757 = -68						; size = 4
_pOwner$ = -64						; size = 4
$T599751 = -57						; size = 1
$T599752 = -56						; size = 16
$T592582 = -52						; size = 12
_vLinkPosOffset$ = -40					; size = 12
$T592583 = -28						; size = 12
$T592581 = -28						; size = 12
$T592580 = -28						; size = 12
$T592579 = -28						; size = 12
__$EHRec$ = -12						; size = 12
_szFileName$ = 8					; size = 4
?SetBombMesh@ioBombMissileWeapon3@@IAE_NABVioHashString@@@Z PROC ; ioBombMissileWeapon3::SetBombMesh, COMDAT
; _this$ = ecx

; 187  : {

  00000	6a 58		 push	 88			; 00000058H
  00002	b8 00 00 00 00	 mov	 eax, __ehhandler$?SetBombMesh@ioBombMissileWeapon3@@IAE_NABVioHashString@@@Z
  00007	e8 00 00 00 00	 call	 __EH_prolog3_GS
  0000c	8b 7d 08	 mov	 edi, DWORD PTR _szFileName$[ebp]
  0000f	33 f6		 xor	 esi, esi
  00011	8b d9		 mov	 ebx, ecx
  00013	89 75 bc	 mov	 DWORD PTR $T599757[ebp], esi

; 188  : 	ioBaseChar *pOwner = GetOwner();

  00016	e8 00 00 00 00	 call	 ?GetOwner@ioWeapon@@QBEPAVioBaseChar@@XZ ; ioWeapon::GetOwner
  0001b	89 45 c0	 mov	 DWORD PTR _pOwner$[ebp], eax

; 189  : 	if( !pOwner )

  0001e	3b c6		 cmp	 eax, esi
  00020	75 07		 jne	 SHORT $LN4@SetBombMes
$LN35@SetBombMes:

; 190  : 		return false;

  00022	32 c0		 xor	 al, al
  00024	e9 35 02 00 00	 jmp	 $LN5@SetBombMes
$LN4@SetBombMes:

; 191  : 
; 192  : 	m_pBombMesh = g_EffectFactory.CreateEffect( szFileName );

  00029	57		 push	 edi
  0002a	ff 15 00 00 00
	00		 call	 DWORD PTR __imp_?GetSingleton@ioEffectFactory@@SAAAV1@XZ
  00030	8b c8		 mov	 ecx, eax
  00032	ff 15 00 00 00
	00		 call	 DWORD PTR __imp_?CreateEffect@ioEffectFactory@@QAEPAVioEffect@@ABVioHashString@@@Z
  00038	89 83 ec 08 00
	00		 mov	 DWORD PTR [ebx+2284], eax

; 193  : 	if( !m_pBombMesh )

  0003e	3b c6		 cmp	 eax, esi

; 194  : 		return false;

  00040	74 e0		 je	 SHORT $LN35@SetBombMes

; 195  : 
; 196  : 	GetParentSceneNode()->AttachObject( m_pBombMesh );

  00042	8b 4b 04	 mov	 ecx, DWORD PTR [ebx+4]
  00045	8b 11		 mov	 edx, DWORD PTR [ecx]
  00047	83 c0 14	 add	 eax, 20			; 00000014H
  0004a	50		 push	 eax
  0004b	ff 92 ac 00 00
	00		 call	 DWORD PTR [edx+172]

; 197  : 	GetParentSceneNode()->SetScale( ioMath::UNIT_ALL );

  00051	8b 4b 04	 mov	 ecx, DWORD PTR [ebx+4]
  00054	ff 35 00 00 00
	00		 push	 DWORD PTR __imp_?UNIT_ALL@ioMath@@2UD3DXVECTOR3@@A
  0005a	8b 01		 mov	 eax, DWORD PTR [ecx]
  0005c	ff 50 20	 call	 DWORD PTR [eax+32]

; 198  : 
; 199  : 	ioHashString szLinkBiped;

  0005f	8d 4d ac	 lea	 ecx, DWORD PTR _szLinkBiped$[ebp]
  00062	ff 15 00 00 00
	00		 call	 DWORD PTR __imp_??0ioHashString@@QAE@XZ

; 200  : 	D3DXVECTOR3 vLinkPosOffset;
; 201  : 	D3DXQUATERNION qtLinkRotOffset;
; 202  : 
; 203  : 	if( m_pBombMesh->GetSkeletonName().IsEmpty() && m_pBombMesh->GetFirstLinkOffset(szLinkBiped, vLinkPosOffset, qtLinkRotOffset ) )

  00068	8b 8b ec 08 00
	00		 mov	 ecx, DWORD PTR [ebx+2284]
  0006e	8d 45 c8	 lea	 eax, DWORD PTR $T599752[ebp]
  00071	50		 push	 eax
  00072	89 75 fc	 mov	 DWORD PTR __$EHRec$[ebp+8], esi
  00075	ff 15 00 00 00
	00		 call	 DWORD PTR __imp_?GetSkeletonName@ioEffect@@QBE?AVioHashString@@XZ
  0007b	8b c8		 mov	 ecx, eax
  0007d	c6 45 fc 01	 mov	 BYTE PTR __$EHRec$[ebp+8], 1
  00081	c7 45 bc 01 00
	00 00		 mov	 DWORD PTR $T599757[ebp], 1
  00088	ff 15 00 00 00
	00		 call	 DWORD PTR __imp_?IsEmpty@ioHashString@@QBE_NXZ
  0008e	84 c0		 test	 al, al
  00090	74 20		 je	 SHORT $LN9@SetBombMes
  00092	8b 8b ec 08 00
	00		 mov	 ecx, DWORD PTR [ebx+2284]
  00098	8d 45 9c	 lea	 eax, DWORD PTR _qtLinkRotOffset$[ebp]
  0009b	50		 push	 eax
  0009c	8d 45 d8	 lea	 eax, DWORD PTR _vLinkPosOffset$[ebp]
  0009f	50		 push	 eax
  000a0	8d 45 ac	 lea	 eax, DWORD PTR _szLinkBiped$[ebp]
  000a3	50		 push	 eax
  000a4	ff 15 00 00 00
	00		 call	 DWORD PTR __imp_?GetFirstLinkOffset@ioEffect@@QAE_NAAVioHashString@@AAUD3DXVECTOR3@@AAUD3DXQUATERNION@@@Z
  000aa	c6 45 c7 01	 mov	 BYTE PTR $T599751[ebp], 1
  000ae	84 c0		 test	 al, al
  000b0	75 04		 jne	 SHORT $LN10@SetBombMes
$LN9@SetBombMes:
  000b2	c6 45 c7 00	 mov	 BYTE PTR $T599751[ebp], 0
$LN10@SetBombMes:
  000b6	8d 4d c8	 lea	 ecx, DWORD PTR $T599752[ebp]
  000b9	89 75 fc	 mov	 DWORD PTR __$EHRec$[ebp+8], esi
  000bc	ff 15 00 00 00
	00		 call	 DWORD PTR __imp_??1ioHashString@@QAE@XZ
  000c2	80 7d c7 00	 cmp	 BYTE PTR $T599751[ebp], 0
  000c6	0f 84 4a 01 00
	00		 je	 $LN1@SetBombMes

; 204  : 	{
; 205  : 		ioBiped *pLinked = pOwner->GetGroup()->GetBiped( szLinkBiped );

  000cc	8b 45 c0	 mov	 eax, DWORD PTR _pOwner$[ebp]
  000cf	8b 48 04	 mov	 ecx, DWORD PTR [eax+4]
  000d2	8d 45 ac	 lea	 eax, DWORD PTR _szLinkBiped$[ebp]
  000d5	50		 push	 eax
  000d6	ff 15 00 00 00
	00		 call	 DWORD PTR __imp_?GetBiped@ioEntityGroup@@QAEPAVioBiped@@ABVioHashString@@@Z
  000dc	8b f8		 mov	 edi, eax

; 206  : 		if( pLinked )

  000de	3b fe		 cmp	 edi, esi
  000e0	0f 84 30 01 00
	00		 je	 $LN1@SetBombMes

; 207  : 		{
; 208  : 			vLinkPosOffset = pLinked->GetDerivedOrientation() * vLinkPosOffset + pLinked->GetDerivedPosition();

  000e6	8b 07		 mov	 eax, DWORD PTR [edi]
  000e8	8b cf		 mov	 ecx, edi
  000ea	ff 50 7c	 call	 DWORD PTR [eax+124]
  000ed	8b f0		 mov	 esi, eax
  000ef	8d 45 d8	 lea	 eax, DWORD PTR _vLinkPosOffset$[ebp]
  000f2	50		 push	 eax
  000f3	8b 07		 mov	 eax, DWORD PTR [edi]
  000f5	8b cf		 mov	 ecx, edi
  000f7	ff 50 78	 call	 DWORD PTR [eax+120]
  000fa	50		 push	 eax
  000fb	8d 45 e4	 lea	 eax, DWORD PTR $T592579[ebp]
  000fe	50		 push	 eax
  000ff	ff 15 00 00 00
	00		 call	 DWORD PTR __imp_??D@YA?AUD3DXVECTOR3@@ABUD3DXQUATERNION@@ABU0@@Z
  00105	f3 0f 10 06	 movss	 xmm0, DWORD PTR [esi]
  00109	f3 0f 10 08	 movss	 xmm1, DWORD PTR [eax]
  0010d	f3 0f 10 50 04	 movss	 xmm2, DWORD PTR [eax+4]
  00112	f3 0f 10 58 08	 movss	 xmm3, DWORD PTR [eax+8]

; 209  : 			vLinkPosOffset = vLinkPosOffset * pOwner->GetWorldScale();

  00117	8b 4d c0	 mov	 ecx, DWORD PTR _pOwner$[ebp]
  0011a	0f 5a c9	 cvtps2pd xmm1, xmm1
  0011d	0f 5a c0	 cvtps2pd xmm0, xmm0
  00120	f2 0f 58 c1	 addsd	 xmm0, xmm1
  00124	f3 0f 10 4e 04	 movss	 xmm1, DWORD PTR [esi+4]
  00129	0f 5a d2	 cvtps2pd xmm2, xmm2
  0012c	0f 5a c9	 cvtps2pd xmm1, xmm1
  0012f	f2 0f 58 ca	 addsd	 xmm1, xmm2
  00133	f3 0f 10 56 08	 movss	 xmm2, DWORD PTR [esi+8]
  00138	0f 5a d2	 cvtps2pd xmm2, xmm2
  0013b	0f 5a db	 cvtps2pd xmm3, xmm3
  0013e	f2 0f 58 d3	 addsd	 xmm2, xmm3
  00142	66 0f 5a c0	 cvtpd2ps xmm0, xmm0
  00146	f3 0f 11 45 e4	 movss	 DWORD PTR $T592580[ebp], xmm0
  0014b	66 0f 5a c9	 cvtpd2ps xmm1, xmm1
  0014f	f3 0f 11 4d e8	 movss	 DWORD PTR $T592580[ebp+4], xmm1
  00154	66 0f 5a d2	 cvtpd2ps xmm2, xmm2
  00158	f3 0f 11 55 ec	 movss	 DWORD PTR $T592580[ebp+8], xmm2
  0015d	8d 75 e4	 lea	 esi, DWORD PTR $T592580[ebp]
  00160	8d 7d d8	 lea	 edi, DWORD PTR _vLinkPosOffset$[ebp]
  00163	a5		 movsd
  00164	a5		 movsd
  00165	a5		 movsd
  00166	8b 01		 mov	 eax, DWORD PTR [ecx]
  00168	83 c4 0c	 add	 esp, 12			; 0000000cH
  0016b	ff 50 78	 call	 DWORD PTR [eax+120]
  0016e	50		 push	 eax
  0016f	8d 45 d8	 lea	 eax, DWORD PTR _vLinkPosOffset$[ebp]
  00172	50		 push	 eax
  00173	8d 45 e4	 lea	 eax, DWORD PTR $T592581[ebp]
  00176	50		 push	 eax
  00177	ff 15 00 00 00
	00		 call	 DWORD PTR __imp_??D@YA?AUD3DXVECTOR3@@ABU0@0@Z
  0017d	8b f0		 mov	 esi, eax
  0017f	8d 7d d8	 lea	 edi, DWORD PTR _vLinkPosOffset$[ebp]
  00182	a5		 movsd
  00183	a5		 movsd
  00184	a5		 movsd

; 210  : 			vLinkPosOffset = pOwner->GetWorldOrientation() * vLinkPosOffset + pOwner->GetWorldPosition();

  00185	8b 7d c0	 mov	 edi, DWORD PTR _pOwner$[ebp]
  00188	8b 07		 mov	 eax, DWORD PTR [edi]
  0018a	83 c4 0c	 add	 esp, 12			; 0000000cH
  0018d	8b cf		 mov	 ecx, edi
  0018f	ff 50 70	 call	 DWORD PTR [eax+112]
  00192	8b f0		 mov	 esi, eax
  00194	8d 45 d8	 lea	 eax, DWORD PTR _vLinkPosOffset$[ebp]
  00197	50		 push	 eax
  00198	8b 07		 mov	 eax, DWORD PTR [edi]
  0019a	8b cf		 mov	 ecx, edi
  0019c	ff 50 74	 call	 DWORD PTR [eax+116]
  0019f	50		 push	 eax
  001a0	8d 45 cc	 lea	 eax, DWORD PTR $T592582[ebp]
  001a3	50		 push	 eax
  001a4	ff 15 00 00 00
	00		 call	 DWORD PTR __imp_??D@YA?AUD3DXVECTOR3@@ABUD3DXQUATERNION@@ABU0@@Z
  001aa	f3 0f 10 00	 movss	 xmm0, DWORD PTR [eax]
  001ae	f3 0f 10 0e	 movss	 xmm1, DWORD PTR [esi]
  001b2	f3 0f 10 50 04	 movss	 xmm2, DWORD PTR [eax+4]
  001b7	0f 5a c9	 cvtps2pd xmm1, xmm1
  001ba	0f 5a c0	 cvtps2pd xmm0, xmm0
  001bd	f2 0f 58 c1	 addsd	 xmm0, xmm1
  001c1	f3 0f 10 4e 04	 movss	 xmm1, DWORD PTR [esi+4]
  001c6	0f 5a c9	 cvtps2pd xmm1, xmm1
  001c9	0f 5a d2	 cvtps2pd xmm2, xmm2
  001cc	83 c4 0c	 add	 esp, 12			; 0000000cH
  001cf	66 0f 5a c0	 cvtpd2ps xmm0, xmm0
  001d3	f2 0f 58 ca	 addsd	 xmm1, xmm2
  001d7	f3 0f 10 56 08	 movss	 xmm2, DWORD PTR [esi+8]
  001dc	f3 0f 10 58 08	 movss	 xmm3, DWORD PTR [eax+8]
  001e1	0f 5a d2	 cvtps2pd xmm2, xmm2
  001e4	0f 5a db	 cvtps2pd xmm3, xmm3
  001e7	f2 0f 58 d3	 addsd	 xmm2, xmm3
  001eb	f3 0f 11 45 e4	 movss	 DWORD PTR $T592583[ebp], xmm0
  001f0	66 0f 5a c9	 cvtpd2ps xmm1, xmm1
  001f4	f3 0f 11 4d e8	 movss	 DWORD PTR $T592583[ebp+4], xmm1
  001f9	66 0f 5a d2	 cvtpd2ps xmm2, xmm2
  001fd	f3 0f 11 55 ec	 movss	 DWORD PTR $T592583[ebp+8], xmm2
  00202	8d 75 e4	 lea	 esi, DWORD PTR $T592583[ebp]
  00205	8d 7d d8	 lea	 edi, DWORD PTR _vLinkPosOffset$[ebp]
  00208	a5		 movsd
  00209	a5		 movsd

; 211  : 			SetPosition( vLinkPosOffset );

  0020a	8d 45 d8	 lea	 eax, DWORD PTR _vLinkPosOffset$[ebp]
  0020d	50		 push	 eax
  0020e	8b cb		 mov	 ecx, ebx
  00210	a5		 movsd
  00211	e8 00 00 00 00	 call	 ?SetPosition@ioWeapon@@QAEXABUD3DXVECTOR3@@@Z ; ioWeapon::SetPosition
$LN1@SetBombMes:

; 212  : 		}
; 213  : 	}
; 214  : 
; 215  : 	m_pBombMesh->UpdateBounds( true );

  00216	8b 8b ec 08 00
	00		 mov	 ecx, DWORD PTR [ebx+2284]
  0021c	83 c1 14	 add	 ecx, 20			; 00000014H
  0021f	8b 01		 mov	 eax, DWORD PTR [ecx]
  00221	6a 01		 push	 1
  00223	ff 50 44	 call	 DWORD PTR [eax+68]

; 216  : 	m_LocalAttackBox = m_pBombMesh->GetCollisionBox();

  00226	8b 8b ec 08 00
	00		 mov	 ecx, DWORD PTR [ebx+2284]
  0022c	ff 15 00 00 00
	00		 call	 DWORD PTR __imp_?GetCollisionBox@ioEffect@@QBEABVioOrientBox@@XZ
  00232	6a 11		 push	 17			; 00000011H
  00234	59		 pop	 ecx

; 217  : 
; 218  : 	AddEffectEvent( m_pBombMesh );

  00235	ff b3 ec 08 00
	00		 push	 DWORD PTR [ebx+2284]
  0023b	8b f0		 mov	 esi, eax
  0023d	8b 03		 mov	 eax, DWORD PTR [ebx]
  0023f	8d bb 9c 08 00
	00		 lea	 edi, DWORD PTR [ebx+2204]
  00245	f3 a5		 rep movsd
  00247	8b cb		 mov	 ecx, ebx
  00249	ff 90 68 01 00
	00		 call	 DWORD PTR [eax+360]

; 219  : 	return true;

  0024f	83 4d fc ff	 or	 DWORD PTR __$EHRec$[ebp+8], -1
  00253	8d 4d ac	 lea	 ecx, DWORD PTR _szLinkBiped$[ebp]
  00256	ff 15 00 00 00
	00		 call	 DWORD PTR __imp_??1ioHashString@@QAE@XZ
  0025c	b0 01		 mov	 al, 1
$LN5@SetBombMes:

; 220  : }

  0025e	e8 00 00 00 00	 call	 __EH_epilog3_GS
  00263	c2 04 00	 ret	 4
_TEXT	ENDS
;	COMDAT text$x
text$x	SEGMENT
__unwindfunclet$?SetBombMesh@ioBombMissileWeapon3@@IAE_NABVioHashString@@@Z$0:
  00000	8d 4d ac	 lea	 ecx, DWORD PTR _szLinkBiped$[ebp]
  00003	ff 25 00 00 00
	00		 jmp	 DWORD PTR __imp_??1ioHashString@@QAE@XZ
__unwindfunclet$?SetBombMesh@ioBombMissileWeapon3@@IAE_NABVioHashString@@@Z$1:
  00009	8b 45 bc	 mov	 eax, DWORD PTR $T599757[ebp]
  0000c	83 e0 01	 and	 eax, 1
  0000f	0f 84 0d 00 00
	00		 je	 $LN13@SetBombMes
  00015	83 65 bc fe	 and	 DWORD PTR $T599757[ebp], -2 ; fffffffeH
  00019	8d 4d c8	 lea	 ecx, DWORD PTR $T599752[ebp]
  0001c	ff 25 00 00 00
	00		 jmp	 DWORD PTR __imp_??1ioHashString@@QAE@XZ
$LN13@SetBombMes:
  00022	c3		 ret	 0
__ehhandler$?SetBombMesh@ioBombMissileWeapon3@@IAE_NABVioHashString@@@Z:
  00023	8b 54 24 08	 mov	 edx, DWORD PTR [esp+8]
  00027	8d 42 0c	 lea	 eax, DWORD PTR [edx+12]
  0002a	8b 4a 98	 mov	 ecx, DWORD PTR [edx-104]
  0002d	33 c8		 xor	 ecx, eax
  0002f	e8 00 00 00 00	 call	 @__security_check_cookie@4
  00034	8b 4a fc	 mov	 ecx, DWORD PTR [edx-4]
  00037	33 c8		 xor	 ecx, eax
  00039	e8 00 00 00 00	 call	 @__security_check_cookie@4
  0003e	b8 00 00 00 00	 mov	 eax, OFFSET __ehfuncinfo$?SetBombMesh@ioBombMissileWeapon3@@IAE_NABVioHashString@@@Z
  00043	e9 00 00 00 00	 jmp	 ___CxxFrameHandler3
text$x	ENDS
?SetBombMesh@ioBombMissileWeapon3@@IAE_NABVioHashString@@@Z ENDP ; ioBombMissileWeapon3::SetBombMesh
PUBLIC	__real@4f800000
PUBLIC	_this$GSCopy$
PUBLIC	__$ArrayPad$
PUBLIC	?RotateMoveDir@ioBombMissileWeapon3@@QAEXMM@Z	; ioBombMissileWeapon3::RotateMoveDir
EXTRN	__imp_?UNIT_Y@ioMath@@2UD3DXVECTOR3@@A:BYTE
EXTRN	_D3DXQuaternionRotationAxis@12:PROC
EXTRN	__imp_?ArrangeHead@ioMath@@SAMM@Z:PROC
;	COMDAT __real@4f800000
; File c:\program files (x86)\microsoft directx sdk (june 2010)\include\d3dx9math.inl
CONST	SEGMENT
__real@4f800000 DD 04f800000r			; 4.29497e+009
; Function compile flags: /Ogsp
; File d:\lost saga for developer\youtube\tutorial\source\src\lsclient\iobombmissileweapon3.cpp
CONST	ENDS
;	COMDAT ?RotateMoveDir@ioBombMissileWeapon3@@QAEXMM@Z
_TEXT	SEGMENT
_qtRot$ = -64						; size = 16
_this$GSCopy$ = -48					; size = 4
tv437 = -44						; size = 4
tv413 = -44						; size = 4
_vAxis$ = -40						; size = 12
$T592616 = -28						; size = 12
$T592615 = -28						; size = 12
$T592609 = -28						; size = 12
_v$599840 = -16						; size = 12
$T592617 = -16						; size = 12
__$ArrayPad$ = -4					; size = 4
_fAngleH$ = 8						; size = 4
_fAngleV$ = 12						; size = 4
?RotateMoveDir@ioBombMissileWeapon3@@QAEXMM@Z PROC	; ioBombMissileWeapon3::RotateMoveDir, COMDAT
; _this$ = ecx

; 252  : {

  00000	55		 push	 ebp
  00001	8b ec		 mov	 ebp, esp
  00003	83 ec 40	 sub	 esp, 64			; 00000040H
  00006	a1 00 00 00 00	 mov	 eax, DWORD PTR ___security_cookie
  0000b	33 c5		 xor	 eax, ebp
  0000d	89 45 fc	 mov	 DWORD PTR __$ArrayPad$[ebp], eax

; 253  : 	fAngleH = ioMath::ArrangeHead( fAngleH );

  00010	f3 0f 10 45 08	 movss	 xmm0, DWORD PTR _fAngleH$[ebp]
  00015	53		 push	 ebx
  00016	56		 push	 esi
  00017	57		 push	 edi
  00018	8b d9		 mov	 ebx, ecx
  0001a	51		 push	 ecx
  0001b	89 5d d0	 mov	 DWORD PTR _this$GSCopy$[ebp], ebx
  0001e	f3 0f 11 04 24	 movss	 DWORD PTR [esp], xmm0
  00023	ff 15 00 00 00
	00		 call	 DWORD PTR __imp_?ArrangeHead@ioMath@@SAMM@Z
  00029	d9 5d 08	 fstp	 DWORD PTR _fAngleH$[ebp]

; 254  : 	fAngleV = ioMath::ArrangeHead( fAngleV );

  0002c	f3 0f 10 45 0c	 movss	 xmm0, DWORD PTR _fAngleV$[ebp]
  00031	f3 0f 11 04 24	 movss	 DWORD PTR [esp], xmm0
  00036	ff 15 00 00 00
	00		 call	 DWORD PTR __imp_?ArrangeHead@ioMath@@SAMM@Z
  0003c	d9 5d 0c	 fstp	 DWORD PTR _fAngleV$[ebp]
  0003f	59		 pop	 ecx

; 255  : 
; 256  : 	D3DXVECTOR3 vAxis;
; 257  : 	D3DXVec3Cross( &vAxis, &m_vMoveDir, &D3DXVECTOR3( 0.0f, -FLOAT1, 0.0f ) );

  00040	b8 01 00 00 00	 mov	 eax, 1
  00045	89 45 d4	 mov	 DWORD PTR tv437[ebp], eax
  00048	db 45 d4	 fild	 DWORD PTR tv437[ebp]
  0004b	85 c0		 test	 eax, eax
  0004d	79 06		 jns	 SHORT $LN23@RotateMove
  0004f	d8 05 00 00 00
	00		 fadd	 DWORD PTR __real@4f800000
$LN23@RotateMove:
  00055	f3 0f 10 83 e4
	08 00 00	 movss	 xmm0, DWORD PTR [ebx+2276]
  0005d	d9 e0		 fchs
  0005f	f3 0f 10 93 e8
	08 00 00	 movss	 xmm2, DWORD PTR [ebx+2280]
  00067	d9 5d e8	 fstp	 DWORD PTR $T592609[ebp+4]
  0006a	f3 0f 10 65 e8	 movss	 xmm4, DWORD PTR $T592609[ebp+4]

; 258  : 
; 259  : 	// vertical
; 260  : 	D3DXQUATERNION qtRot;
; 261  : 	D3DXQuaternionRotationAxis( &qtRot, &vAxis, DEGtoRAD(fAngleV) );

  0006f	d9 45 0c	 fld	 DWORD PTR _fAngleV$[ebp]
  00072	dc 0d 00 00 00
	00		 fmul	 QWORD PTR __real@3f91df46a2526c7a
  00078	0f 5a da	 cvtps2pd xmm3, xmm2
  0007b	0f 5a c8	 cvtps2pd xmm1, xmm0
  0007e	0f 57 c0	 xorps	 xmm0, xmm0
  00081	81 c3 e0 08 00
	00		 add	 ebx, 2272		; 000008e0H
  00087	d9 5d d4	 fstp	 DWORD PTR tv413[ebp]
  0008a	f2 0f 59 c8	 mulsd	 xmm1, xmm0
  0008e	d9 45 d4	 fld	 DWORD PTR tv413[ebp]
  00091	0f 5a e4	 cvtps2pd xmm4, xmm4
  00094	f2 0f 59 dc	 mulsd	 xmm3, xmm4
  00098	66 0f 28 e1	 movapd	 xmm4, xmm1
  0009c	f2 0f 5c e3	 subsd	 xmm4, xmm3
  000a0	0f 57 db	 xorps	 xmm3, xmm3
  000a3	f2 0f 5a dc	 cvtsd2ss xmm3, xmm4
  000a7	f3 0f 11 5d f0	 movss	 DWORD PTR _v$599840[ebp], xmm3
  000ac	f3 0f 10 1b	 movss	 xmm3, DWORD PTR [ebx]
  000b0	0f 5a d2	 cvtps2pd xmm2, xmm2
  000b3	f2 0f 59 d0	 mulsd	 xmm2, xmm0
  000b7	0f 5a e3	 cvtps2pd xmm4, xmm3
  000ba	f2 0f 59 e0	 mulsd	 xmm4, xmm0
  000be	f2 0f 5c d4	 subsd	 xmm2, xmm4
  000c2	66 0f 5a c2	 cvtpd2ps xmm0, xmm2
  000c6	f3 0f 10 55 e8	 movss	 xmm2, DWORD PTR $T592609[ebp+4]
  000cb	f3 0f 11 45 f4	 movss	 DWORD PTR _v$599840[ebp+4], xmm0
  000d0	0f 5a d2	 cvtps2pd xmm2, xmm2
  000d3	8d 75 f0	 lea	 esi, DWORD PTR _v$599840[ebp]
  000d6	8d 7d d8	 lea	 edi, DWORD PTR _vAxis$[ebp]
  000d9	0f 5a c3	 cvtps2pd xmm0, xmm3
  000dc	f2 0f 59 c2	 mulsd	 xmm0, xmm2
  000e0	f2 0f 5c c1	 subsd	 xmm0, xmm1
  000e4	66 0f 5a c0	 cvtpd2ps xmm0, xmm0
  000e8	f3 0f 11 45 f8	 movss	 DWORD PTR _v$599840[ebp+8], xmm0
  000ed	a5		 movsd
  000ee	51		 push	 ecx
  000ef	8d 45 d8	 lea	 eax, DWORD PTR _vAxis$[ebp]
  000f2	a5		 movsd
  000f3	d9 1c 24	 fstp	 DWORD PTR [esp]
  000f6	50		 push	 eax
  000f7	8d 45 c0	 lea	 eax, DWORD PTR _qtRot$[ebp]
  000fa	50		 push	 eax
  000fb	a5		 movsd
  000fc	e8 00 00 00 00	 call	 _D3DXQuaternionRotationAxis@12

; 262  : 	m_vMoveDir = qtRot * m_vMoveDir;

  00101	53		 push	 ebx
  00102	8d 45 c0	 lea	 eax, DWORD PTR _qtRot$[ebp]
  00105	50		 push	 eax
  00106	8d 45 e4	 lea	 eax, DWORD PTR $T592615[ebp]
  00109	50		 push	 eax
  0010a	ff 15 00 00 00
	00		 call	 DWORD PTR __imp_??D@YA?AUD3DXVECTOR3@@ABUD3DXQUATERNION@@ABU0@@Z

; 263  : 
; 264  : 	// horizon
; 265  : 	D3DXQuaternionRotationAxis( &qtRot, &ioMath::UNIT_Y, DEGtoRAD(fAngleH) );

  00110	f3 0f 10 45 08	 movss	 xmm0, DWORD PTR _fAngleH$[ebp]
  00115	8b f0		 mov	 esi, eax
  00117	8b fb		 mov	 edi, ebx
  00119	a5		 movsd
  0011a	a5		 movsd
  0011b	0f 5a c0	 cvtps2pd xmm0, xmm0
  0011e	f2 0f 59 05 00
	00 00 00	 mulsd	 xmm0, QWORD PTR __real@3f91df46a2526c7a
  00126	83 c4 08	 add	 esp, 8
  00129	66 0f 5a c0	 cvtpd2ps xmm0, xmm0
  0012d	f3 0f 11 04 24	 movss	 DWORD PTR [esp], xmm0
  00132	a5		 movsd
  00133	ff 35 00 00 00
	00		 push	 DWORD PTR __imp_?UNIT_Y@ioMath@@2UD3DXVECTOR3@@A
  00139	8d 45 c0	 lea	 eax, DWORD PTR _qtRot$[ebp]
  0013c	50		 push	 eax
  0013d	e8 00 00 00 00	 call	 _D3DXQuaternionRotationAxis@12

; 266  : 	m_vMoveDir = qtRot * m_vMoveDir;

  00142	53		 push	 ebx
  00143	8d 45 c0	 lea	 eax, DWORD PTR _qtRot$[ebp]
  00146	50		 push	 eax
  00147	8d 45 e4	 lea	 eax, DWORD PTR $T592616[ebp]
  0014a	50		 push	 eax
  0014b	ff 15 00 00 00
	00		 call	 DWORD PTR __imp_??D@YA?AUD3DXVECTOR3@@ABUD3DXQUATERNION@@ABU0@@Z
  00151	8b f0		 mov	 esi, eax
  00153	8b fb		 mov	 edi, ebx
  00155	a5		 movsd
  00156	a5		 movsd
  00157	a5		 movsd

; 267  : 
; 268  : 	ioMath::CalcDirectionQuaternion( qtRot, -m_vMoveDir );

  00158	f3 0f 10 0b	 movss	 xmm1, DWORD PTR [ebx]
  0015c	f3 0f 10 05 00
	00 00 00	 movss	 xmm0, DWORD PTR __mask@@NegFloat@
  00164	0f 57 c8	 xorps	 xmm1, xmm0
  00167	f3 0f 11 4d f0	 movss	 DWORD PTR $T592617[ebp], xmm1
  0016c	f3 0f 10 4b 04	 movss	 xmm1, DWORD PTR [ebx+4]
  00171	0f 57 c8	 xorps	 xmm1, xmm0
  00174	8d 45 f0	 lea	 eax, DWORD PTR $T592617[ebp]
  00177	50		 push	 eax
  00178	f3 0f 11 4d f4	 movss	 DWORD PTR $T592617[ebp+4], xmm1
  0017d	f3 0f 10 4b 08	 movss	 xmm1, DWORD PTR [ebx+8]
  00182	8d 45 c0	 lea	 eax, DWORD PTR _qtRot$[ebp]
  00185	0f 57 c8	 xorps	 xmm1, xmm0
  00188	50		 push	 eax
  00189	f3 0f 11 4d f8	 movss	 DWORD PTR $T592617[ebp+8], xmm1
  0018e	ff 15 00 00 00
	00		 call	 DWORD PTR __imp_?CalcDirectionQuaternion@ioMath@@SAXAAUD3DXQUATERNION@@ABUD3DXVECTOR3@@@Z

; 269  : 	SetOrientation( qtRot );

  00194	8b 4d d0	 mov	 ecx, DWORD PTR _this$GSCopy$[ebp]
  00197	83 c4 14	 add	 esp, 20			; 00000014H
  0019a	8d 45 c0	 lea	 eax, DWORD PTR _qtRot$[ebp]
  0019d	50		 push	 eax
  0019e	e8 00 00 00 00	 call	 ?SetOrientation@ioWeapon@@QAEXABUD3DXQUATERNION@@@Z ; ioWeapon::SetOrientation

; 270  : }

  001a3	8b 4d fc	 mov	 ecx, DWORD PTR __$ArrayPad$[ebp]
  001a6	5f		 pop	 edi
  001a7	5e		 pop	 esi
  001a8	33 cd		 xor	 ecx, ebp
  001aa	5b		 pop	 ebx
  001ab	e8 00 00 00 00	 call	 @__security_check_cookie@4
  001b0	c9		 leave
  001b1	c2 08 00	 ret	 8
?RotateMoveDir@ioBombMissileWeapon3@@QAEXMM@Z ENDP	; ioBombMissileWeapon3::RotateMoveDir
_TEXT	ENDS
PUBLIC	?IsCanMineExplosion@ioBombMissileWeapon3@@UAE_NXZ ; ioBombMissileWeapon3::IsCanMineExplosion
EXTRN	?IsCanMineExplosion@ioWeapon@@UAE_NXZ:PROC	; ioWeapon::IsCanMineExplosion
; Function compile flags: /Ogsp
;	COMDAT ?IsCanMineExplosion@ioBombMissileWeapon3@@UAE_NXZ
_TEXT	SEGMENT
?IsCanMineExplosion@ioBombMissileWeapon3@@UAE_NXZ PROC	; ioBombMissileWeapon3::IsCanMineExplosion, COMDAT
; _this$ = ecx

; 559  : {

  00000	56		 push	 esi
  00001	8b f1		 mov	 esi, ecx

; 560  : 	if( !ioWeapon::IsCanMineExplosion() )

  00003	e8 00 00 00 00	 call	 ?IsCanMineExplosion@ioWeapon@@UAE_NXZ ; ioWeapon::IsCanMineExplosion
  00008	84 c0		 test	 al, al
  0000a	75 02		 jne	 SHORT $LN2@IsCanMineE
  0000c	5e		 pop	 esi

; 564  : 		return false;
; 565  : 
; 566  : 	return true;
; 567  : }

  0000d	c3		 ret	 0
$LN2@IsCanMineE:

; 561  : 		return false;
; 562  : 
; 563  : 	if( !IsExplosion() )

  0000e	8b ce		 mov	 ecx, esi
  00010	e8 00 00 00 00	 call	 ?IsExplosion@ioBombMissileWeapon3@@QBE_NXZ ; ioBombMissileWeapon3::IsExplosion
  00015	84 c0		 test	 al, al
  00017	0f 95 c0	 setne	 al
  0001a	5e		 pop	 esi

; 564  : 		return false;
; 565  : 
; 566  : 	return true;
; 567  : }

  0001b	c3		 ret	 0
?IsCanMineExplosion@ioBombMissileWeapon3@@UAE_NXZ ENDP	; ioBombMissileWeapon3::IsCanMineExplosion
_TEXT	ENDS
PUBLIC	??0?$_Vector_iterator@V?$_Vector_val@UWeaponInfo@@V?$allocator@UWeaponInfo@@@std@@@std@@@std@@QAE@XZ ; std::_Vector_iterator<std::_Vector_val<WeaponInfo,std::allocator<WeaponInfo> > >::_Vector_iterator<std::_Vector_val<WeaponInfo,std::allocator<WeaponInfo> > >
; Function compile flags: /Ogsp
; File c:\program files (x86)\microsoft visual studio 10.0\vc\include\vector
;	COMDAT ??0?$_Vector_iterator@V?$_Vector_val@UWeaponInfo@@V?$allocator@UWeaponInfo@@@std@@@std@@@std@@QAE@XZ
_TEXT	SEGMENT
??0?$_Vector_iterator@V?$_Vector_val@UWeaponInfo@@V?$allocator@UWeaponInfo@@@std@@@std@@@std@@QAE@XZ PROC ; std::_Vector_iterator<std::_Vector_val<WeaponInfo,std::allocator<WeaponInfo> > >::_Vector_iterator<std::_Vector_val<WeaponInfo,std::allocator<WeaponInfo> > >, COMDAT
; _this$ = ecx

; 298  : 	_Vector_iterator()

  00000	8b c1		 mov	 eax, ecx
  00002	83 20 00	 and	 DWORD PTR [eax], 0

; 299  : 		{	// construct with null vector pointer
; 300  : 		}

  00005	c3		 ret	 0
??0?$_Vector_iterator@V?$_Vector_val@UWeaponInfo@@V?$allocator@UWeaponInfo@@@std@@@std@@@std@@QAE@XZ ENDP ; std::_Vector_iterator<std::_Vector_val<WeaponInfo,std::allocator<WeaponInfo> > >::_Vector_iterator<std::_Vector_val<WeaponInfo,std::allocator<WeaponInfo> > >
_TEXT	ENDS
PUBLIC	??D?$_Vector_iterator@V?$_Vector_val@UWeaponInfo@@V?$allocator@UWeaponInfo@@@std@@@std@@@std@@QBEAAUWeaponInfo@@XZ ; std::_Vector_iterator<std::_Vector_val<WeaponInfo,std::allocator<WeaponInfo> > >::operator*
; Function compile flags: /Ogsp
;	COMDAT ??D?$_Vector_iterator@V?$_Vector_val@UWeaponInfo@@V?$allocator@UWeaponInfo@@@std@@@std@@@std@@QBEAAUWeaponInfo@@XZ
_TEXT	SEGMENT
??D?$_Vector_iterator@V?$_Vector_val@UWeaponInfo@@V?$allocator@UWeaponInfo@@@std@@@std@@@std@@QBEAAUWeaponInfo@@XZ PROC ; std::_Vector_iterator<std::_Vector_val<WeaponInfo,std::allocator<WeaponInfo> > >::operator*, COMDAT
; _this$ = ecx

; 322  : 		return ((reference)**(_Mybase *)this);

  00000	8b 01		 mov	 eax, DWORD PTR [ecx]

; 323  : 		}

  00002	c3		 ret	 0
??D?$_Vector_iterator@V?$_Vector_val@UWeaponInfo@@V?$allocator@UWeaponInfo@@@std@@@std@@@std@@QBEAAUWeaponInfo@@XZ ENDP ; std::_Vector_iterator<std::_Vector_val<WeaponInfo,std::allocator<WeaponInfo> > >::operator*
_TEXT	ENDS
PUBLIC	??E?$_Vector_iterator@V?$_Vector_val@UWeaponInfo@@V?$allocator@UWeaponInfo@@@std@@@std@@@std@@QAEAAV01@XZ ; std::_Vector_iterator<std::_Vector_val<WeaponInfo,std::allocator<WeaponInfo> > >::operator++
; Function compile flags: /Ogsp
;	COMDAT ??E?$_Vector_iterator@V?$_Vector_val@UWeaponInfo@@V?$allocator@UWeaponInfo@@@std@@@std@@@std@@QAEAAV01@XZ
_TEXT	SEGMENT
??E?$_Vector_iterator@V?$_Vector_val@UWeaponInfo@@V?$allocator@UWeaponInfo@@@std@@@std@@@std@@QAEAAV01@XZ PROC ; std::_Vector_iterator<std::_Vector_val<WeaponInfo,std::allocator<WeaponInfo> > >::operator++, COMDAT
; _this$ = ecx

; 331  : 		{	// preincrement

  00000	8b c1		 mov	 eax, ecx

; 332  : 		++*(_Mybase *)this;

  00002	83 00 28	 add	 DWORD PTR [eax], 40	; 00000028H

; 333  : 		return (*this);
; 334  : 		}

  00005	c3		 ret	 0
??E?$_Vector_iterator@V?$_Vector_val@UWeaponInfo@@V?$allocator@UWeaponInfo@@@std@@@std@@@std@@QAEAAV01@XZ ENDP ; std::_Vector_iterator<std::_Vector_val<WeaponInfo,std::allocator<WeaponInfo> > >::operator++
_TEXT	ENDS
PUBLIC	?max_size@?$vector@UChangeDirInfo@@V?$allocator@UChangeDirInfo@@@std@@@std@@QBEIXZ ; std::vector<ChangeDirInfo,std::allocator<ChangeDirInfo> >::max_size
; Function compile flags: /Ogsp
;	COMDAT ?max_size@?$vector@UChangeDirInfo@@V?$allocator@UChangeDirInfo@@@std@@@std@@QBEIXZ
_TEXT	SEGMENT
?max_size@?$vector@UChangeDirInfo@@V?$allocator@UChangeDirInfo@@@std@@@std@@QBEIXZ PROC ; std::vector<ChangeDirInfo,std::allocator<ChangeDirInfo> >::max_size, COMDAT
; _this$ = ecx

; 884  : 		return (this->_Alval.max_size());

  00000	b8 49 92 24 09	 mov	 eax, 153391689		; 09249249H

; 885  : 		}

  00005	c3		 ret	 0
?max_size@?$vector@UChangeDirInfo@@V?$allocator@UChangeDirInfo@@@std@@@std@@QBEIXZ ENDP ; std::vector<ChangeDirInfo,std::allocator<ChangeDirInfo> >::max_size
_TEXT	ENDS
PUBLIC	??0?$_Vector_val@UChangeDirInfo@@V?$allocator@UChangeDirInfo@@@std@@@std@@QAE@V?$allocator@UChangeDirInfo@@@1@@Z ; std::_Vector_val<ChangeDirInfo,std::allocator<ChangeDirInfo> >::_Vector_val<ChangeDirInfo,std::allocator<ChangeDirInfo> >
; Function compile flags: /Ogsp
;	COMDAT ??0?$_Vector_val@UChangeDirInfo@@V?$allocator@UChangeDirInfo@@@std@@@std@@QAE@V?$allocator@UChangeDirInfo@@@1@@Z
_TEXT	SEGMENT
__Al$ = 8						; size = 1
??0?$_Vector_val@UChangeDirInfo@@V?$allocator@UChangeDirInfo@@@std@@@std@@QAE@V?$allocator@UChangeDirInfo@@@1@@Z PROC ; std::_Vector_val<ChangeDirInfo,std::allocator<ChangeDirInfo> >::_Vector_val<ChangeDirInfo,std::allocator<ChangeDirInfo> >, COMDAT
; _this$ = ecx

; 426  : 		{	// construct allocator from _Al

  00000	8b c1		 mov	 eax, ecx

; 427  : 		_Myfirst = 0;

  00002	33 c9		 xor	 ecx, ecx
  00004	89 08		 mov	 DWORD PTR [eax], ecx

; 428  : 		_Mylast = 0;

  00006	89 48 04	 mov	 DWORD PTR [eax+4], ecx

; 429  : 		_Myend = 0;

  00009	89 48 08	 mov	 DWORD PTR [eax+8], ecx

; 430  : 		}

  0000c	c2 04 00	 ret	 4
??0?$_Vector_val@UChangeDirInfo@@V?$allocator@UChangeDirInfo@@@std@@@std@@QAE@V?$allocator@UChangeDirInfo@@@1@@Z ENDP ; std::_Vector_val<ChangeDirInfo,std::allocator<ChangeDirInfo> >::_Vector_val<ChangeDirInfo,std::allocator<ChangeDirInfo> >
_TEXT	ENDS
PUBLIC	?allocate@?$allocator@UChangeDirInfo@@@std@@QAEPAUChangeDirInfo@@I@Z ; std::allocator<ChangeDirInfo>::allocate
; Function compile flags: /Ogsp
; File c:\program files (x86)\microsoft visual studio 10.0\vc\include\xmemory
;	COMDAT ?allocate@?$allocator@UChangeDirInfo@@@std@@QAEPAUChangeDirInfo@@I@Z
_TEXT	SEGMENT
__Count$ = 8						; size = 4
?allocate@?$allocator@UChangeDirInfo@@@std@@QAEPAUChangeDirInfo@@I@Z PROC ; std::allocator<ChangeDirInfo>::allocate, COMDAT
; _this$ = ecx

; 186  : 		{	// allocate array of _Count elements

  00000	55		 push	 ebp
  00001	8b ec		 mov	 ebp, esp

; 187  : 		return (_Allocate(_Count, (pointer)0));

  00003	6a 00		 push	 0
  00005	ff 75 08	 push	 DWORD PTR __Count$[ebp]
  00008	e8 00 00 00 00	 call	 ??$_Allocate@UChangeDirInfo@@@std@@YAPAUChangeDirInfo@@IPAU1@@Z ; std::_Allocate<ChangeDirInfo>
  0000d	59		 pop	 ecx
  0000e	59		 pop	 ecx

; 188  : 		}

  0000f	5d		 pop	 ebp
  00010	c2 04 00	 ret	 4
?allocate@?$allocator@UChangeDirInfo@@@std@@QAEPAUChangeDirInfo@@I@Z ENDP ; std::allocator<ChangeDirInfo>::allocate
_TEXT	ENDS
PUBLIC	??0?$_Vector_iterator@V?$_Vector_val@UChangeDirInfo@@V?$allocator@UChangeDirInfo@@@std@@@std@@@std@@QAE@PAUChangeDirInfo@@PBU_Container_base0@1@@Z ; std::_Vector_iterator<std::_Vector_val<ChangeDirInfo,std::allocator<ChangeDirInfo> > >::_Vector_iterator<std::_Vector_val<ChangeDirInfo,std::allocator<ChangeDirInfo> > >
; Function compile flags: /Ogsp
; File c:\program files (x86)\microsoft visual studio 10.0\vc\include\vector
;	COMDAT ??0?$_Vector_iterator@V?$_Vector_val@UChangeDirInfo@@V?$allocator@UChangeDirInfo@@@std@@@std@@@std@@QAE@PAUChangeDirInfo@@PBU_Container_base0@1@@Z
_TEXT	SEGMENT
__Parg$ = 8						; size = 4
__Pvector$ = 12						; size = 4
??0?$_Vector_iterator@V?$_Vector_val@UChangeDirInfo@@V?$allocator@UChangeDirInfo@@@std@@@std@@@std@@QAE@PAUChangeDirInfo@@PBU_Container_base0@1@@Z PROC ; std::_Vector_iterator<std::_Vector_val<ChangeDirInfo,std::allocator<ChangeDirInfo> > >::_Vector_iterator<std::_Vector_val<ChangeDirInfo,std::allocator<ChangeDirInfo> > >, COMDAT
; _this$ = ecx

; 304  : 		{	// construct with pointer _Parg

  00000	55		 push	 ebp
  00001	8b ec		 mov	 ebp, esp
  00003	8b c1		 mov	 eax, ecx
  00005	8b 4d 08	 mov	 ecx, DWORD PTR __Parg$[ebp]
  00008	89 08		 mov	 DWORD PTR [eax], ecx

; 305  : 		}

  0000a	5d		 pop	 ebp
  0000b	c2 08 00	 ret	 8
??0?$_Vector_iterator@V?$_Vector_val@UChangeDirInfo@@V?$allocator@UChangeDirInfo@@@std@@@std@@@std@@QAE@PAUChangeDirInfo@@PBU_Container_base0@1@@Z ENDP ; std::_Vector_iterator<std::_Vector_val<ChangeDirInfo,std::allocator<ChangeDirInfo> > >::_Vector_iterator<std::_Vector_val<ChangeDirInfo,std::allocator<ChangeDirInfo> > >
_TEXT	ENDS
PUBLIC	?_Grow_to@?$vector@UChangeDirInfo@@V?$allocator@UChangeDirInfo@@@std@@@std@@IBEII@Z ; std::vector<ChangeDirInfo,std::allocator<ChangeDirInfo> >::_Grow_to
; Function compile flags: /Ogsp
;	COMDAT ?_Grow_to@?$vector@UChangeDirInfo@@V?$allocator@UChangeDirInfo@@@std@@@std@@IBEII@Z
_TEXT	SEGMENT
__Count$ = 8						; size = 4
?_Grow_to@?$vector@UChangeDirInfo@@V?$allocator@UChangeDirInfo@@@std@@@std@@IBEII@Z PROC ; std::vector<ChangeDirInfo,std::allocator<ChangeDirInfo> >::_Grow_to, COMDAT
; _this$ = ecx

; 1274 : 		{	// grow by 50% or at least to _Count

  00000	55		 push	 ebp
  00001	8b ec		 mov	 ebp, esp

; 1275 : 		size_type _Capacity = capacity();

  00003	8b 41 08	 mov	 eax, DWORD PTR [ecx+8]
  00006	2b 01		 sub	 eax, DWORD PTR [ecx]
  00008	6a 1c		 push	 28			; 0000001cH
  0000a	99		 cdq
  0000b	59		 pop	 ecx
  0000c	f7 f9		 idiv	 ecx

; 1276 : 
; 1277 : 		_Capacity = max_size() - _Capacity / 2 < _Capacity
; 1278 : 			? 0 : _Capacity + _Capacity / 2;	// try to grow by 50%

  0000e	ba 49 92 24 09	 mov	 edx, 153391689		; 09249249H
  00013	8b c8		 mov	 ecx, eax
  00015	d1 e9		 shr	 ecx, 1
  00017	2b d1		 sub	 edx, ecx
  00019	3b d0		 cmp	 edx, eax
  0001b	73 04		 jae	 SHORT $LN4@Grow_to
  0001d	33 c0		 xor	 eax, eax
  0001f	eb 02		 jmp	 SHORT $LN5@Grow_to
$LN4@Grow_to:
  00021	03 c1		 add	 eax, ecx
$LN5@Grow_to:

; 1279 : 		if (_Capacity < _Count)

  00023	3b 45 08	 cmp	 eax, DWORD PTR __Count$[ebp]

; 1280 : 			_Capacity = _Count;

  00026	0f 42 45 08	 cmovb	 eax, DWORD PTR __Count$[ebp]

; 1281 : 		return (_Capacity);
; 1282 : 		}

  0002a	5d		 pop	 ebp
  0002b	c2 04 00	 ret	 4
?_Grow_to@?$vector@UChangeDirInfo@@V?$allocator@UChangeDirInfo@@@std@@@std@@IBEII@Z ENDP ; std::vector<ChangeDirInfo,std::allocator<ChangeDirInfo> >::_Grow_to
_TEXT	ENDS
PUBLIC	??8?$_Vector_const_iterator@V?$_Vector_val@UChangeDirInfo@@V?$allocator@UChangeDirInfo@@@std@@@std@@@std@@QBE_NABV01@@Z ; std::_Vector_const_iterator<std::_Vector_val<ChangeDirInfo,std::allocator<ChangeDirInfo> > >::operator==
; Function compile flags: /Ogsp
;	COMDAT ??8?$_Vector_const_iterator@V?$_Vector_val@UChangeDirInfo@@V?$allocator@UChangeDirInfo@@@std@@@std@@@std@@QBE_NABV01@@Z
_TEXT	SEGMENT
__Right$ = 8						; size = 4
??8?$_Vector_const_iterator@V?$_Vector_val@UChangeDirInfo@@V?$allocator@UChangeDirInfo@@@std@@@std@@@std@@QBE_NABV01@@Z PROC ; std::_Vector_const_iterator<std::_Vector_val<ChangeDirInfo,std::allocator<ChangeDirInfo> > >::operator==, COMDAT
; _this$ = ecx

; 201  : 		{	// test for iterator equality

  00000	55		 push	 ebp
  00001	8b ec		 mov	 ebp, esp

; 202  : 		_Compat(_Right);
; 203  : 		return (this->_Ptr == _Right._Ptr);

  00003	8b 01		 mov	 eax, DWORD PTR [ecx]
  00005	8b 4d 08	 mov	 ecx, DWORD PTR __Right$[ebp]
  00008	2b 01		 sub	 eax, DWORD PTR [ecx]
  0000a	f7 d8		 neg	 eax
  0000c	1b c0		 sbb	 eax, eax
  0000e	40		 inc	 eax

; 204  : 		}

  0000f	5d		 pop	 ebp
  00010	c2 04 00	 ret	 4
??8?$_Vector_const_iterator@V?$_Vector_val@UChangeDirInfo@@V?$allocator@UChangeDirInfo@@@std@@@std@@@std@@QBE_NABV01@@Z ENDP ; std::_Vector_const_iterator<std::_Vector_val<ChangeDirInfo,std::allocator<ChangeDirInfo> > >::operator==
_TEXT	ENDS
PUBLIC	_this$GSCopy$
PUBLIC	__$ArrayPad$
PUBLIC	??$LoadString_e@$0M@@ioINILoader@@QAEXAAY0M@$$CBDAAY00$$CBDPADH@Z ; ioINILoader::LoadString_e<12>
EXTRN	__imp_?LoadStringA@ioINILoader@@QAEXPBD0PADH@Z:PROC
; Function compile flags: /Ogsp
; File d:\lost saga for developer\youtube\tutorial\source\src\io3dengine\ioiniloader.h
;	COMDAT ??$LoadString_e@$0M@@ioINILoader@@QAEXAAY0M@$$CBDAAY00$$CBDPADH@Z
_TEXT	SEGMENT
_this$GSCopy$ = -24					; size = 4
__k$ = -20						; size = 12
__$ArrayPad$ = -4					; size = 4
_k$ = 8							; size = 4
_d$ = 12						; size = 4
_b$ = 16						; size = 4
_i$ = 20						; size = 4
??$LoadString_e@$0M@@ioINILoader@@QAEXAAY0M@$$CBDAAY00$$CBDPADH@Z PROC ; ioINILoader::LoadString_e<12>, COMDAT
; _this$ = ecx

; 161  : 	{

  00000	55		 push	 ebp
  00001	8b ec		 mov	 ebp, esp
  00003	83 ec 18	 sub	 esp, 24			; 00000018H
  00006	a1 00 00 00 00	 mov	 eax, DWORD PTR ___security_cookie
  0000b	33 c5		 xor	 eax, ebp
  0000d	89 45 fc	 mov	 DWORD PTR __$ArrayPad$[ebp], eax
  00010	8b 45 08	 mov	 eax, DWORD PTR _k$[ebp]

; 162  : 		_ENCSTR(k, _k);

  00013	8a 10		 mov	 dl, BYTE PTR [eax]
  00015	56		 push	 esi
  00016	8b 75 0c	 mov	 esi, DWORD PTR _d$[ebp]
  00019	57		 push	 edi
  0001a	8b 7d 10	 mov	 edi, DWORD PTR _b$[ebp]
  0001d	89 4d e8	 mov	 DWORD PTR _this$GSCopy$[ebp], ecx
  00020	84 d2		 test	 dl, dl
  00022	0f 84 32 01 00
	00		 je	 $LN96@LoadString
  00028	80 f2 ed	 xor	 dl, -19			; ffffffedH
  0002b	88 55 ec	 mov	 BYTE PTR __k$[ebp], dl
  0002e	8a 50 01	 mov	 dl, BYTE PTR [eax+1]
  00031	84 d2		 test	 dl, dl
  00033	0f 84 1b 01 00
	00		 je	 $LN95@LoadString
  00039	80 f2 ec	 xor	 dl, -20			; ffffffecH
  0003c	88 55 ed	 mov	 BYTE PTR __k$[ebp+1], dl
  0003f	8a 50 02	 mov	 dl, BYTE PTR [eax+2]
  00042	84 d2		 test	 dl, dl
  00044	0f 84 04 01 00
	00		 je	 $LN94@LoadString
  0004a	b1 eb		 mov	 cl, -21			; ffffffebH
  0004c	32 d1		 xor	 dl, cl
  0004e	88 55 ee	 mov	 BYTE PTR __k$[ebp+2], dl
  00051	8a 50 03	 mov	 dl, BYTE PTR [eax+3]
  00054	84 d2		 test	 dl, dl
  00056	0f 84 ec 00 00
	00		 je	 $LN93@LoadString
  0005c	80 f2 ea	 xor	 dl, -22			; ffffffeaH
  0005f	88 55 ef	 mov	 BYTE PTR __k$[ebp+3], dl
  00062	8a 50 04	 mov	 dl, BYTE PTR [eax+4]
  00065	84 d2		 test	 dl, dl
  00067	0f 84 d5 00 00
	00		 je	 $LN92@LoadString
  0006d	80 f2 ed	 xor	 dl, -19			; ffffffedH
  00070	88 55 f0	 mov	 BYTE PTR __k$[ebp+4], dl
  00073	8a 50 05	 mov	 dl, BYTE PTR [eax+5]
  00076	84 d2		 test	 dl, dl
  00078	0f 84 be 00 00
	00		 je	 $LN91@LoadString
  0007e	80 f2 ec	 xor	 dl, -20			; ffffffecH
  00081	88 55 f1	 mov	 BYTE PTR __k$[ebp+5], dl
  00084	8a 50 06	 mov	 dl, BYTE PTR [eax+6]
  00087	84 d2		 test	 dl, dl
  00089	0f 84 a8 00 00
	00		 je	 $LN90@LoadString
  0008f	32 d1		 xor	 dl, cl
  00091	88 55 f2	 mov	 BYTE PTR __k$[ebp+6], dl
  00094	8a 50 07	 mov	 dl, BYTE PTR [eax+7]
  00097	84 d2		 test	 dl, dl
  00099	0f 84 92 00 00
	00		 je	 $LN89@LoadString
  0009f	80 f2 ea	 xor	 dl, -22			; ffffffeaH
  000a2	88 55 f3	 mov	 BYTE PTR __k$[ebp+7], dl
  000a5	8a 50 08	 mov	 dl, BYTE PTR [eax+8]
  000a8	84 d2		 test	 dl, dl
  000aa	74 7f		 je	 SHORT $LN88@LoadString
  000ac	80 f2 ed	 xor	 dl, -19			; ffffffedH
  000af	88 55 f4	 mov	 BYTE PTR __k$[ebp+8], dl
  000b2	8a 50 09	 mov	 dl, BYTE PTR [eax+9]
  000b5	84 d2		 test	 dl, dl
  000b7	74 6c		 je	 SHORT $LN87@LoadString
  000b9	80 f2 ec	 xor	 dl, -20			; ffffffecH
  000bc	88 55 f5	 mov	 BYTE PTR __k$[ebp+9], dl
  000bf	8a 50 0a	 mov	 dl, BYTE PTR [eax+10]
  000c2	84 d2		 test	 dl, dl
  000c4	74 5a		 je	 SHORT $LN86@LoadString
  000c6	32 d1		 xor	 dl, cl
  000c8	80 78 0b 00	 cmp	 BYTE PTR [eax+11], 0
  000cc	88 55 f6	 mov	 BYTE PTR __k$[ebp+10], dl
  000cf	0f 84 89 00 00
	00		 je	 $LN111@LoadString
  000d5	8a 50 0c	 mov	 dl, BYTE PTR [eax+12]
  000d8	84 d2		 test	 dl, dl
  000da	74 3e		 je	 SHORT $LN84@LoadString
  000dc	80 f2 ed	 xor	 dl, -19			; ffffffedH
  000df	88 55 f8	 mov	 BYTE PTR __k$[ebp+12], dl
  000e2	8a 50 0d	 mov	 dl, BYTE PTR [eax+13]
  000e5	84 d2		 test	 dl, dl
  000e7	74 2b		 je	 SHORT $LN83@LoadString
  000e9	80 f2 ec	 xor	 dl, -20			; ffffffecH
  000ec	88 55 f9	 mov	 BYTE PTR __k$[ebp+13], dl
  000ef	8a 50 0e	 mov	 dl, BYTE PTR [eax+14]
  000f2	84 d2		 test	 dl, dl
  000f4	74 19		 je	 SHORT $LN82@LoadString
  000f6	8a 40 0f	 mov	 al, BYTE PTR [eax+15]
  000f9	32 d1		 xor	 dl, cl
  000fb	88 55 fa	 mov	 BYTE PTR __k$[ebp+14], dl
  000fe	84 c0		 test	 al, al
  00100	74 07		 je	 SHORT $LN81@LoadString
  00102	34 ea		 xor	 al, -22			; ffffffeaH
  00104	88 45 fb	 mov	 BYTE PTR __k$[ebp+15], al
  00107	eb 55		 jmp	 SHORT $LN111@LoadString
$LN81@LoadString:
  00109	c6 45 fb ea	 mov	 BYTE PTR __k$[ebp+15], -22 ; ffffffeaH
  0010d	eb 4f		 jmp	 SHORT $LN111@LoadString
$LN82@LoadString:
  0010f	88 4d fa	 mov	 BYTE PTR __k$[ebp+14], cl
  00112	eb 4a		 jmp	 SHORT $LN111@LoadString
$LN83@LoadString:
  00114	c6 45 f9 ec	 mov	 BYTE PTR __k$[ebp+13], -20 ; ffffffecH
  00118	eb 44		 jmp	 SHORT $LN111@LoadString
$LN84@LoadString:
  0011a	c6 45 f8 ed	 mov	 BYTE PTR __k$[ebp+12], -19 ; ffffffedH
  0011e	eb 3e		 jmp	 SHORT $LN111@LoadString
$LN86@LoadString:
  00120	88 4d f6	 mov	 BYTE PTR __k$[ebp+10], cl
  00123	eb 39		 jmp	 SHORT $LN111@LoadString
$LN87@LoadString:
  00125	c6 45 f5 ec	 mov	 BYTE PTR __k$[ebp+9], -20 ; ffffffecH
  00129	eb 33		 jmp	 SHORT $LN111@LoadString
$LN88@LoadString:
  0012b	c6 45 f4 ed	 mov	 BYTE PTR __k$[ebp+8], -19 ; ffffffedH
  0012f	eb 2d		 jmp	 SHORT $LN111@LoadString
$LN89@LoadString:
  00131	c6 45 f3 ea	 mov	 BYTE PTR __k$[ebp+7], -22 ; ffffffeaH
  00135	eb 27		 jmp	 SHORT $LN111@LoadString
$LN90@LoadString:
  00137	88 4d f2	 mov	 BYTE PTR __k$[ebp+6], cl
  0013a	eb 22		 jmp	 SHORT $LN111@LoadString
$LN91@LoadString:
  0013c	c6 45 f1 ec	 mov	 BYTE PTR __k$[ebp+5], -20 ; ffffffecH
  00140	eb 1c		 jmp	 SHORT $LN111@LoadString
$LN92@LoadString:
  00142	c6 45 f0 ed	 mov	 BYTE PTR __k$[ebp+4], -19 ; ffffffedH
  00146	eb 16		 jmp	 SHORT $LN111@LoadString
$LN93@LoadString:
  00148	c6 45 ef ea	 mov	 BYTE PTR __k$[ebp+3], -22 ; ffffffeaH
  0014c	eb 10		 jmp	 SHORT $LN111@LoadString
$LN94@LoadString:
  0014e	c6 45 ee eb	 mov	 BYTE PTR __k$[ebp+2], -21 ; ffffffebH
  00152	eb 0a		 jmp	 SHORT $LN111@LoadString
$LN95@LoadString:
  00154	c6 45 ed ec	 mov	 BYTE PTR __k$[ebp+1], -20 ; ffffffecH
  00158	eb 04		 jmp	 SHORT $LN111@LoadString
$LN96@LoadString:
  0015a	c6 45 ec ed	 mov	 BYTE PTR __k$[ebp], -19	; ffffffedH
$LN111@LoadString:
  0015e	6a 02		 push	 2
  00160	8d 45 ec	 lea	 eax, DWORD PTR __k$[ebp]
  00163	c6 45 f7 00	 mov	 BYTE PTR __k$[ebp+11], 0
  00167	5a		 pop	 edx
$LL104@LoadString:
  00168	81 30 ed ec eb
	ea		 xor	 DWORD PTR [eax], -353637139 ; eaebecedH
  0016e	83 c0 04	 add	 eax, 4
  00171	4a		 dec	 edx
  00172	75 f4		 jne	 SHORT $LL104@LoadString
  00174	6a 08		 push	 8
  00176	58		 pop	 eax
$LL101@LoadString:
  00177	8b c8		 mov	 ecx, eax
  00179	81 e1 03 00 00
	80		 and	 ecx, -2147483645	; 80000003H
  0017f	79 05		 jns	 SHORT $LN112@LoadString
  00181	49		 dec	 ecx
  00182	83 c9 fc	 or	 ecx, -4			; fffffffcH
  00185	41		 inc	 ecx
$LN112@LoadString:
  00186	b2 ed		 mov	 dl, -19			; ffffffedH
  00188	2a d1		 sub	 dl, cl
  0018a	30 54 05 ec	 xor	 BYTE PTR __k$[ebp+eax], dl
  0018e	40		 inc	 eax
  0018f	83 f8 0b	 cmp	 eax, 11			; 0000000bH
  00192	7c e3		 jl	 SHORT $LL101@LoadString

; 163  : 		LoadString(_k, d, b, i);

  00194	ff 75 14	 push	 DWORD PTR _i$[ebp]
  00197	8b 4d e8	 mov	 ecx, DWORD PTR _this$GSCopy$[ebp]
  0019a	57		 push	 edi
  0019b	56		 push	 esi
  0019c	8d 45 ec	 lea	 eax, DWORD PTR __k$[ebp]
  0019f	50		 push	 eax
  001a0	ff 15 00 00 00
	00		 call	 DWORD PTR __imp_?LoadStringA@ioINILoader@@QAEXPBD0PADH@Z

; 164  : 	}

  001a6	8b 4d fc	 mov	 ecx, DWORD PTR __$ArrayPad$[ebp]
  001a9	5f		 pop	 edi
  001aa	33 cd		 xor	 ecx, ebp
  001ac	5e		 pop	 esi
  001ad	e8 00 00 00 00	 call	 @__security_check_cookie@4
  001b2	c9		 leave
  001b3	c2 10 00	 ret	 16			; 00000010H
??$LoadString_e@$0M@@ioINILoader@@QAEXAAY0M@$$CBDAAY00$$CBDPADH@Z ENDP ; ioINILoader::LoadString_e<12>
_TEXT	ENDS
PUBLIC	__$ArrayPad$
PUBLIC	??$LoadBool_e@$0BF@@ioINILoader@@QAE_NAAY0BF@$$CBD_N@Z ; ioINILoader::LoadBool_e<21>
EXTRN	__imp_?LoadBool@ioINILoader@@QAE_NPBD_N@Z:PROC
; Function compile flags: /Ogsp
;	COMDAT ??$LoadBool_e@$0BF@@ioINILoader@@QAE_NAAY0BF@$$CBD_N@Z
_TEXT	SEGMENT
__k$ = -32						; size = 21
__$ArrayPad$ = -4					; size = 4
_k$ = 8							; size = 4
_b$ = 12						; size = 1
??$LoadBool_e@$0BF@@ioINILoader@@QAE_NAAY0BF@$$CBD_N@Z PROC ; ioINILoader::LoadBool_e<21>, COMDAT
; _this$ = ecx

; 101  : 	{

  00000	55		 push	 ebp
  00001	8b ec		 mov	 ebp, esp
  00003	83 ec 20	 sub	 esp, 32			; 00000020H
  00006	a1 00 00 00 00	 mov	 eax, DWORD PTR ___security_cookie
  0000b	33 c5		 xor	 eax, ebp
  0000d	89 45 fc	 mov	 DWORD PTR __$ArrayPad$[ebp], eax
  00010	8b 45 08	 mov	 eax, DWORD PTR _k$[ebp]

; 102  : 		_ENCSTR(k, _k);

  00013	8a 10		 mov	 dl, BYTE PTR [eax]
  00015	53		 push	 ebx
  00016	56		 push	 esi
  00017	8b f1		 mov	 esi, ecx
  00019	84 d2		 test	 dl, dl
  0001b	0f 84 f7 01 00
	00		 je	 $LN96@LoadBool_e
  00021	80 f2 ed	 xor	 dl, -19			; ffffffedH
  00024	88 55 e0	 mov	 BYTE PTR __k$[ebp], dl
  00027	8a 50 01	 mov	 dl, BYTE PTR [eax+1]
  0002a	84 d2		 test	 dl, dl
  0002c	0f 84 e0 01 00
	00		 je	 $LN95@LoadBool_e
  00032	b1 ec		 mov	 cl, -20			; ffffffecH
  00034	32 d1		 xor	 dl, cl
  00036	88 55 e1	 mov	 BYTE PTR __k$[ebp+1], dl
  00039	8a 50 02	 mov	 dl, BYTE PTR [eax+2]
  0003c	84 d2		 test	 dl, dl
  0003e	0f 84 c8 01 00
	00		 je	 $LN94@LoadBool_e
  00044	b3 eb		 mov	 bl, -21			; ffffffebH
  00046	32 d3		 xor	 dl, bl
  00048	88 55 e2	 mov	 BYTE PTR __k$[ebp+2], dl
  0004b	8a 50 03	 mov	 dl, BYTE PTR [eax+3]
  0004e	84 d2		 test	 dl, dl
  00050	0f 84 b0 01 00
	00		 je	 $LN93@LoadBool_e
  00056	80 f2 ea	 xor	 dl, -22			; ffffffeaH
  00059	88 55 e3	 mov	 BYTE PTR __k$[ebp+3], dl
  0005c	8a 50 04	 mov	 dl, BYTE PTR [eax+4]
  0005f	84 d2		 test	 dl, dl
  00061	0f 84 99 01 00
	00		 je	 $LN92@LoadBool_e
  00067	80 f2 ed	 xor	 dl, -19			; ffffffedH
  0006a	88 55 e4	 mov	 BYTE PTR __k$[ebp+4], dl
  0006d	8a 50 05	 mov	 dl, BYTE PTR [eax+5]
  00070	84 d2		 test	 dl, dl
  00072	0f 84 83 01 00
	00		 je	 $LN91@LoadBool_e
  00078	32 d1		 xor	 dl, cl
  0007a	88 55 e5	 mov	 BYTE PTR __k$[ebp+5], dl
  0007d	8a 50 06	 mov	 dl, BYTE PTR [eax+6]
  00080	84 d2		 test	 dl, dl
  00082	0f 84 6e 01 00
	00		 je	 $LN90@LoadBool_e
  00088	32 d3		 xor	 dl, bl
  0008a	88 55 e6	 mov	 BYTE PTR __k$[ebp+6], dl
  0008d	8a 50 07	 mov	 dl, BYTE PTR [eax+7]
  00090	84 d2		 test	 dl, dl
  00092	0f 84 58 01 00
	00		 je	 $LN89@LoadBool_e
  00098	80 f2 ea	 xor	 dl, -22			; ffffffeaH
  0009b	88 55 e7	 mov	 BYTE PTR __k$[ebp+7], dl
  0009e	8a 50 08	 mov	 dl, BYTE PTR [eax+8]
  000a1	84 d2		 test	 dl, dl
  000a3	0f 84 41 01 00
	00		 je	 $LN88@LoadBool_e
  000a9	80 f2 ed	 xor	 dl, -19			; ffffffedH
  000ac	88 55 e8	 mov	 BYTE PTR __k$[ebp+8], dl
  000af	8a 50 09	 mov	 dl, BYTE PTR [eax+9]
  000b2	84 d2		 test	 dl, dl
  000b4	0f 84 2b 01 00
	00		 je	 $LN87@LoadBool_e
  000ba	32 d1		 xor	 dl, cl
  000bc	88 55 e9	 mov	 BYTE PTR __k$[ebp+9], dl
  000bf	8a 50 0a	 mov	 dl, BYTE PTR [eax+10]
  000c2	84 d2		 test	 dl, dl
  000c4	0f 84 16 01 00
	00		 je	 $LN86@LoadBool_e
  000ca	32 d3		 xor	 dl, bl
  000cc	88 55 ea	 mov	 BYTE PTR __k$[ebp+10], dl
  000cf	8a 50 0b	 mov	 dl, BYTE PTR [eax+11]
  000d2	84 d2		 test	 dl, dl
  000d4	0f 84 00 01 00
	00		 je	 $LN85@LoadBool_e
  000da	80 f2 ea	 xor	 dl, -22			; ffffffeaH
  000dd	88 55 eb	 mov	 BYTE PTR __k$[ebp+11], dl
  000e0	8a 50 0c	 mov	 dl, BYTE PTR [eax+12]
  000e3	84 d2		 test	 dl, dl
  000e5	0f 84 e9 00 00
	00		 je	 $LN84@LoadBool_e
  000eb	80 f2 ed	 xor	 dl, -19			; ffffffedH
  000ee	88 55 ec	 mov	 BYTE PTR __k$[ebp+12], dl
  000f1	8a 50 0d	 mov	 dl, BYTE PTR [eax+13]
  000f4	84 d2		 test	 dl, dl
  000f6	0f 84 d3 00 00
	00		 je	 $LN83@LoadBool_e
  000fc	32 d1		 xor	 dl, cl
  000fe	88 55 ed	 mov	 BYTE PTR __k$[ebp+13], dl
  00101	8a 50 0e	 mov	 dl, BYTE PTR [eax+14]
  00104	84 d2		 test	 dl, dl
  00106	0f 84 be 00 00
	00		 je	 $LN82@LoadBool_e
  0010c	32 d3		 xor	 dl, bl
  0010e	88 55 ee	 mov	 BYTE PTR __k$[ebp+14], dl
  00111	8a 50 0f	 mov	 dl, BYTE PTR [eax+15]
  00114	84 d2		 test	 dl, dl
  00116	0f 84 a8 00 00
	00		 je	 $LN81@LoadBool_e
  0011c	80 f2 ea	 xor	 dl, -22			; ffffffeaH
  0011f	88 55 ef	 mov	 BYTE PTR __k$[ebp+15], dl
  00122	8a 50 10	 mov	 dl, BYTE PTR [eax+16]
  00125	84 d2		 test	 dl, dl
  00127	0f 84 91 00 00
	00		 je	 $LN80@LoadBool_e
  0012d	80 f2 ed	 xor	 dl, -19			; ffffffedH
  00130	88 55 f0	 mov	 BYTE PTR __k$[ebp+16], dl
  00133	8a 50 11	 mov	 dl, BYTE PTR [eax+17]
  00136	84 d2		 test	 dl, dl
  00138	74 7f		 je	 SHORT $LN79@LoadBool_e
  0013a	32 d1		 xor	 dl, cl
  0013c	88 55 f1	 mov	 BYTE PTR __k$[ebp+17], dl
  0013f	8a 50 12	 mov	 dl, BYTE PTR [eax+18]
  00142	84 d2		 test	 dl, dl
  00144	74 6e		 je	 SHORT $LN78@LoadBool_e
  00146	32 d3		 xor	 dl, bl
  00148	88 55 f2	 mov	 BYTE PTR __k$[ebp+18], dl
  0014b	8a 50 13	 mov	 dl, BYTE PTR [eax+19]
  0014e	84 d2		 test	 dl, dl
  00150	74 5c		 je	 SHORT $LN77@LoadBool_e
  00152	80 f2 ea	 xor	 dl, -22			; ffffffeaH
  00155	80 78 14 00	 cmp	 BYTE PTR [eax+20], 0
  00159	88 55 f3	 mov	 BYTE PTR __k$[ebp+19], dl
  0015c	0f 84 ba 00 00
	00		 je	 $LN1@LoadBool_e
  00162	8a 50 15	 mov	 dl, BYTE PTR [eax+21]
  00165	84 d2		 test	 dl, dl
  00167	74 40		 je	 SHORT $LN75@LoadBool_e
  00169	32 d1		 xor	 dl, cl
  0016b	88 55 f5	 mov	 BYTE PTR __k$[ebp+21], dl
  0016e	8a 50 16	 mov	 dl, BYTE PTR [eax+22]
  00171	84 d2		 test	 dl, dl
  00173	74 2f		 je	 SHORT $LN74@LoadBool_e
  00175	32 d3		 xor	 dl, bl
  00177	88 55 f6	 mov	 BYTE PTR __k$[ebp+22], dl
  0017a	8a 50 17	 mov	 dl, BYTE PTR [eax+23]
  0017d	84 d2		 test	 dl, dl
  0017f	74 1d		 je	 SHORT $LN73@LoadBool_e
  00181	8a 40 18	 mov	 al, BYTE PTR [eax+24]
  00184	80 f2 ea	 xor	 dl, -22			; ffffffeaH
  00187	88 55 f7	 mov	 BYTE PTR __k$[ebp+23], dl
  0018a	84 c0		 test	 al, al
  0018c	74 0a		 je	 SHORT $LN72@LoadBool_e
  0018e	34 ed		 xor	 al, -19			; ffffffedH
  00190	88 45 f8	 mov	 BYTE PTR __k$[ebp+24], al
  00193	e9 84 00 00 00	 jmp	 $LN1@LoadBool_e
$LN72@LoadBool_e:
  00198	c6 45 f8 ed	 mov	 BYTE PTR __k$[ebp+24], -19 ; ffffffedH
  0019c	eb 7e		 jmp	 SHORT $LN1@LoadBool_e
$LN73@LoadBool_e:
  0019e	c6 45 f7 ea	 mov	 BYTE PTR __k$[ebp+23], -22 ; ffffffeaH
  001a2	eb 78		 jmp	 SHORT $LN1@LoadBool_e
$LN74@LoadBool_e:
  001a4	88 5d f6	 mov	 BYTE PTR __k$[ebp+22], bl
  001a7	eb 73		 jmp	 SHORT $LN1@LoadBool_e
$LN75@LoadBool_e:
  001a9	88 4d f5	 mov	 BYTE PTR __k$[ebp+21], cl
  001ac	eb 6e		 jmp	 SHORT $LN1@LoadBool_e
$LN77@LoadBool_e:
  001ae	c6 45 f3 ea	 mov	 BYTE PTR __k$[ebp+19], -22 ; ffffffeaH
  001b2	eb 68		 jmp	 SHORT $LN1@LoadBool_e
$LN78@LoadBool_e:
  001b4	88 5d f2	 mov	 BYTE PTR __k$[ebp+18], bl
  001b7	eb 63		 jmp	 SHORT $LN1@LoadBool_e
$LN79@LoadBool_e:
  001b9	88 4d f1	 mov	 BYTE PTR __k$[ebp+17], cl
  001bc	eb 5e		 jmp	 SHORT $LN1@LoadBool_e
$LN80@LoadBool_e:
  001be	c6 45 f0 ed	 mov	 BYTE PTR __k$[ebp+16], -19 ; ffffffedH
  001c2	eb 58		 jmp	 SHORT $LN1@LoadBool_e
$LN81@LoadBool_e:
  001c4	c6 45 ef ea	 mov	 BYTE PTR __k$[ebp+15], -22 ; ffffffeaH
  001c8	eb 52		 jmp	 SHORT $LN1@LoadBool_e
$LN82@LoadBool_e:
  001ca	88 5d ee	 mov	 BYTE PTR __k$[ebp+14], bl
  001cd	eb 4d		 jmp	 SHORT $LN1@LoadBool_e
$LN83@LoadBool_e:
  001cf	88 4d ed	 mov	 BYTE PTR __k$[ebp+13], cl
  001d2	eb 48		 jmp	 SHORT $LN1@LoadBool_e
$LN84@LoadBool_e:
  001d4	c6 45 ec ed	 mov	 BYTE PTR __k$[ebp+12], -19 ; ffffffedH
  001d8	eb 42		 jmp	 SHORT $LN1@LoadBool_e
$LN85@LoadBool_e:
  001da	c6 45 eb ea	 mov	 BYTE PTR __k$[ebp+11], -22 ; ffffffeaH
  001de	eb 3c		 jmp	 SHORT $LN1@LoadBool_e
$LN86@LoadBool_e:
  001e0	88 5d ea	 mov	 BYTE PTR __k$[ebp+10], bl
  001e3	eb 37		 jmp	 SHORT $LN1@LoadBool_e
$LN87@LoadBool_e:
  001e5	88 4d e9	 mov	 BYTE PTR __k$[ebp+9], cl
  001e8	eb 32		 jmp	 SHORT $LN1@LoadBool_e
$LN88@LoadBool_e:
  001ea	c6 45 e8 ed	 mov	 BYTE PTR __k$[ebp+8], -19 ; ffffffedH
  001ee	eb 2c		 jmp	 SHORT $LN1@LoadBool_e
$LN89@LoadBool_e:
  001f0	c6 45 e7 ea	 mov	 BYTE PTR __k$[ebp+7], -22 ; ffffffeaH
  001f4	eb 26		 jmp	 SHORT $LN1@LoadBool_e
$LN90@LoadBool_e:
  001f6	88 5d e6	 mov	 BYTE PTR __k$[ebp+6], bl
  001f9	eb 21		 jmp	 SHORT $LN1@LoadBool_e
$LN91@LoadBool_e:
  001fb	88 4d e5	 mov	 BYTE PTR __k$[ebp+5], cl
  001fe	eb 1c		 jmp	 SHORT $LN1@LoadBool_e
$LN92@LoadBool_e:
  00200	c6 45 e4 ed	 mov	 BYTE PTR __k$[ebp+4], -19 ; ffffffedH
  00204	eb 16		 jmp	 SHORT $LN1@LoadBool_e
$LN93@LoadBool_e:
  00206	c6 45 e3 ea	 mov	 BYTE PTR __k$[ebp+3], -22 ; ffffffeaH
  0020a	eb 10		 jmp	 SHORT $LN1@LoadBool_e
$LN94@LoadBool_e:
  0020c	c6 45 e2 eb	 mov	 BYTE PTR __k$[ebp+2], -21 ; ffffffebH
  00210	eb 0a		 jmp	 SHORT $LN1@LoadBool_e
$LN95@LoadBool_e:
  00212	c6 45 e1 ec	 mov	 BYTE PTR __k$[ebp+1], -20 ; ffffffecH
  00216	eb 04		 jmp	 SHORT $LN1@LoadBool_e
$LN96@LoadBool_e:
  00218	c6 45 e0 ed	 mov	 BYTE PTR __k$[ebp], -19	; ffffffedH
$LN1@LoadBool_e:
  0021c	6a 05		 push	 5
  0021e	8d 45 e0	 lea	 eax, DWORD PTR __k$[ebp]
  00221	c6 45 f4 00	 mov	 BYTE PTR __k$[ebp+20], 0
  00225	5a		 pop	 edx
$LL104@LoadBool_e:
  00226	81 30 ed ec eb
	ea		 xor	 DWORD PTR [eax], -353637139 ; eaebecedH
  0022c	83 c0 04	 add	 eax, 4
  0022f	4a		 dec	 edx
  00230	75 f4		 jne	 SHORT $LL104@LoadBool_e

; 103  : 		return LoadBool(_k, b);

  00232	ff 75 0c	 push	 DWORD PTR _b$[ebp]
  00235	8d 45 e0	 lea	 eax, DWORD PTR __k$[ebp]
  00238	50		 push	 eax
  00239	8b ce		 mov	 ecx, esi
  0023b	ff 15 00 00 00
	00		 call	 DWORD PTR __imp_?LoadBool@ioINILoader@@QAE_NPBD_N@Z

; 104  : 	}

  00241	8b 4d fc	 mov	 ecx, DWORD PTR __$ArrayPad$[ebp]
  00244	5e		 pop	 esi
  00245	33 cd		 xor	 ecx, ebp
  00247	5b		 pop	 ebx
  00248	e8 00 00 00 00	 call	 @__security_check_cookie@4
  0024d	c9		 leave
  0024e	c2 08 00	 ret	 8
??$LoadBool_e@$0BF@@ioINILoader@@QAE_NAAY0BF@$$CBD_N@Z ENDP ; ioINILoader::LoadBool_e<21>
_TEXT	ENDS
PUBLIC	__$ArrayPad$
PUBLIC	??$LoadBool_e@$0O@@ioINILoader@@QAE_NAAY0O@$$CBD_N@Z ; ioINILoader::LoadBool_e<14>
; Function compile flags: /Ogsp
;	COMDAT ??$LoadBool_e@$0O@@ioINILoader@@QAE_NAAY0O@$$CBD_N@Z
_TEXT	SEGMENT
__k$ = -24						; size = 14
__$ArrayPad$ = -4					; size = 4
_k$ = 8							; size = 4
_b$ = 12						; size = 1
??$LoadBool_e@$0O@@ioINILoader@@QAE_NAAY0O@$$CBD_N@Z PROC ; ioINILoader::LoadBool_e<14>, COMDAT
; _this$ = ecx

; 101  : 	{

  00000	55		 push	 ebp
  00001	8b ec		 mov	 ebp, esp
  00003	83 ec 18	 sub	 esp, 24			; 00000018H
  00006	a1 00 00 00 00	 mov	 eax, DWORD PTR ___security_cookie
  0000b	33 c5		 xor	 eax, ebp
  0000d	89 45 fc	 mov	 DWORD PTR __$ArrayPad$[ebp], eax
  00010	8b 45 08	 mov	 eax, DWORD PTR _k$[ebp]

; 102  : 		_ENCSTR(k, _k);

  00013	8a 10		 mov	 dl, BYTE PTR [eax]
  00015	56		 push	 esi
  00016	8b f1		 mov	 esi, ecx
  00018	84 d2		 test	 dl, dl
  0001a	0f 84 64 01 00
	00		 je	 $LN96@LoadBool_e@2
  00020	80 f2 ed	 xor	 dl, -19			; ffffffedH
  00023	88 55 e8	 mov	 BYTE PTR __k$[ebp], dl
  00026	8a 50 01	 mov	 dl, BYTE PTR [eax+1]
  00029	84 d2		 test	 dl, dl
  0002b	0f 84 4d 01 00
	00		 je	 $LN95@LoadBool_e@2
  00031	80 f2 ec	 xor	 dl, -20			; ffffffecH
  00034	88 55 e9	 mov	 BYTE PTR __k$[ebp+1], dl
  00037	8a 50 02	 mov	 dl, BYTE PTR [eax+2]
  0003a	84 d2		 test	 dl, dl
  0003c	0f 84 36 01 00
	00		 je	 $LN94@LoadBool_e@2
  00042	b1 eb		 mov	 cl, -21			; ffffffebH
  00044	32 d1		 xor	 dl, cl
  00046	88 55 ea	 mov	 BYTE PTR __k$[ebp+2], dl
  00049	8a 50 03	 mov	 dl, BYTE PTR [eax+3]
  0004c	84 d2		 test	 dl, dl
  0004e	0f 84 1e 01 00
	00		 je	 $LN93@LoadBool_e@2
  00054	80 f2 ea	 xor	 dl, -22			; ffffffeaH
  00057	88 55 eb	 mov	 BYTE PTR __k$[ebp+3], dl
  0005a	8a 50 04	 mov	 dl, BYTE PTR [eax+4]
  0005d	84 d2		 test	 dl, dl
  0005f	0f 84 07 01 00
	00		 je	 $LN92@LoadBool_e@2
  00065	80 f2 ed	 xor	 dl, -19			; ffffffedH
  00068	88 55 ec	 mov	 BYTE PTR __k$[ebp+4], dl
  0006b	8a 50 05	 mov	 dl, BYTE PTR [eax+5]
  0006e	84 d2		 test	 dl, dl
  00070	0f 84 f0 00 00
	00		 je	 $LN91@LoadBool_e@2
  00076	80 f2 ec	 xor	 dl, -20			; ffffffecH
  00079	88 55 ed	 mov	 BYTE PTR __k$[ebp+5], dl
  0007c	8a 50 06	 mov	 dl, BYTE PTR [eax+6]
  0007f	84 d2		 test	 dl, dl
  00081	0f 84 da 00 00
	00		 je	 $LN90@LoadBool_e@2
  00087	32 d1		 xor	 dl, cl
  00089	88 55 ee	 mov	 BYTE PTR __k$[ebp+6], dl
  0008c	8a 50 07	 mov	 dl, BYTE PTR [eax+7]
  0008f	84 d2		 test	 dl, dl
  00091	0f 84 c4 00 00
	00		 je	 $LN89@LoadBool_e@2
  00097	80 f2 ea	 xor	 dl, -22			; ffffffeaH
  0009a	88 55 ef	 mov	 BYTE PTR __k$[ebp+7], dl
  0009d	8a 50 08	 mov	 dl, BYTE PTR [eax+8]
  000a0	84 d2		 test	 dl, dl
  000a2	0f 84 ad 00 00
	00		 je	 $LN88@LoadBool_e@2
  000a8	80 f2 ed	 xor	 dl, -19			; ffffffedH
  000ab	88 55 f0	 mov	 BYTE PTR __k$[ebp+8], dl
  000ae	8a 50 09	 mov	 dl, BYTE PTR [eax+9]
  000b1	84 d2		 test	 dl, dl
  000b3	0f 84 96 00 00
	00		 je	 $LN87@LoadBool_e@2
  000b9	80 f2 ec	 xor	 dl, -20			; ffffffecH
  000bc	88 55 f1	 mov	 BYTE PTR __k$[ebp+9], dl
  000bf	8a 50 0a	 mov	 dl, BYTE PTR [eax+10]
  000c2	84 d2		 test	 dl, dl
  000c4	0f 84 80 00 00
	00		 je	 $LN86@LoadBool_e@2
  000ca	32 d1		 xor	 dl, cl
  000cc	88 55 f2	 mov	 BYTE PTR __k$[ebp+10], dl
  000cf	8a 50 0b	 mov	 dl, BYTE PTR [eax+11]
  000d2	84 d2		 test	 dl, dl
  000d4	74 6e		 je	 SHORT $LN85@LoadBool_e@2
  000d6	80 f2 ea	 xor	 dl, -22			; ffffffeaH
  000d9	88 55 f3	 mov	 BYTE PTR __k$[ebp+11], dl
  000dc	8a 50 0c	 mov	 dl, BYTE PTR [eax+12]
  000df	84 d2		 test	 dl, dl
  000e1	74 5b		 je	 SHORT $LN84@LoadBool_e@2
  000e3	80 f2 ed	 xor	 dl, -19			; ffffffedH
  000e6	80 78 0d 00	 cmp	 BYTE PTR [eax+13], 0
  000ea	88 55 f4	 mov	 BYTE PTR __k$[ebp+12], dl
  000ed	0f 84 95 00 00
	00		 je	 $LN1@LoadBool_e@2
  000f3	8a 50 0e	 mov	 dl, BYTE PTR [eax+14]
  000f6	84 d2		 test	 dl, dl
  000f8	74 3f		 je	 SHORT $LN82@LoadBool_e@2
  000fa	32 d1		 xor	 dl, cl
  000fc	88 55 f6	 mov	 BYTE PTR __k$[ebp+14], dl
  000ff	8a 50 0f	 mov	 dl, BYTE PTR [eax+15]
  00102	84 d2		 test	 dl, dl
  00104	74 2d		 je	 SHORT $LN81@LoadBool_e@2
  00106	80 f2 ea	 xor	 dl, -22			; ffffffeaH
  00109	88 55 f7	 mov	 BYTE PTR __k$[ebp+15], dl
  0010c	8a 50 10	 mov	 dl, BYTE PTR [eax+16]
  0010f	84 d2		 test	 dl, dl
  00111	74 1a		 je	 SHORT $LN80@LoadBool_e@2
  00113	8a 40 11	 mov	 al, BYTE PTR [eax+17]
  00116	80 f2 ed	 xor	 dl, -19			; ffffffedH
  00119	88 55 f8	 mov	 BYTE PTR __k$[ebp+16], dl
  0011c	84 c0		 test	 al, al
  0011e	74 07		 je	 SHORT $LN79@LoadBool_e@2
  00120	34 ec		 xor	 al, -20			; ffffffecH
  00122	88 45 f9	 mov	 BYTE PTR __k$[ebp+17], al
  00125	eb 61		 jmp	 SHORT $LN1@LoadBool_e@2
$LN79@LoadBool_e@2:
  00127	c6 45 f9 ec	 mov	 BYTE PTR __k$[ebp+17], -20 ; ffffffecH
  0012b	eb 5b		 jmp	 SHORT $LN1@LoadBool_e@2
$LN80@LoadBool_e@2:
  0012d	c6 45 f8 ed	 mov	 BYTE PTR __k$[ebp+16], -19 ; ffffffedH
  00131	eb 55		 jmp	 SHORT $LN1@LoadBool_e@2
$LN81@LoadBool_e@2:
  00133	c6 45 f7 ea	 mov	 BYTE PTR __k$[ebp+15], -22 ; ffffffeaH
  00137	eb 4f		 jmp	 SHORT $LN1@LoadBool_e@2
$LN82@LoadBool_e@2:
  00139	88 4d f6	 mov	 BYTE PTR __k$[ebp+14], cl
  0013c	eb 4a		 jmp	 SHORT $LN1@LoadBool_e@2
$LN84@LoadBool_e@2:
  0013e	c6 45 f4 ed	 mov	 BYTE PTR __k$[ebp+12], -19 ; ffffffedH
  00142	eb 44		 jmp	 SHORT $LN1@LoadBool_e@2
$LN85@LoadBool_e@2:
  00144	c6 45 f3 ea	 mov	 BYTE PTR __k$[ebp+11], -22 ; ffffffeaH
  00148	eb 3e		 jmp	 SHORT $LN1@LoadBool_e@2
$LN86@LoadBool_e@2:
  0014a	88 4d f2	 mov	 BYTE PTR __k$[ebp+10], cl
  0014d	eb 39		 jmp	 SHORT $LN1@LoadBool_e@2
$LN87@LoadBool_e@2:
  0014f	c6 45 f1 ec	 mov	 BYTE PTR __k$[ebp+9], -20 ; ffffffecH
  00153	eb 33		 jmp	 SHORT $LN1@LoadBool_e@2
$LN88@LoadBool_e@2:
  00155	c6 45 f0 ed	 mov	 BYTE PTR __k$[ebp+8], -19 ; ffffffedH
  00159	eb 2d		 jmp	 SHORT $LN1@LoadBool_e@2
$LN89@LoadBool_e@2:
  0015b	c6 45 ef ea	 mov	 BYTE PTR __k$[ebp+7], -22 ; ffffffeaH
  0015f	eb 27		 jmp	 SHORT $LN1@LoadBool_e@2
$LN90@LoadBool_e@2:
  00161	88 4d ee	 mov	 BYTE PTR __k$[ebp+6], cl
  00164	eb 22		 jmp	 SHORT $LN1@LoadBool_e@2
$LN91@LoadBool_e@2:
  00166	c6 45 ed ec	 mov	 BYTE PTR __k$[ebp+5], -20 ; ffffffecH
  0016a	eb 1c		 jmp	 SHORT $LN1@LoadBool_e@2
$LN92@LoadBool_e@2:
  0016c	c6 45 ec ed	 mov	 BYTE PTR __k$[ebp+4], -19 ; ffffffedH
  00170	eb 16		 jmp	 SHORT $LN1@LoadBool_e@2
$LN93@LoadBool_e@2:
  00172	c6 45 eb ea	 mov	 BYTE PTR __k$[ebp+3], -22 ; ffffffeaH
  00176	eb 10		 jmp	 SHORT $LN1@LoadBool_e@2
$LN94@LoadBool_e@2:
  00178	c6 45 ea eb	 mov	 BYTE PTR __k$[ebp+2], -21 ; ffffffebH
  0017c	eb 0a		 jmp	 SHORT $LN1@LoadBool_e@2
$LN95@LoadBool_e@2:
  0017e	c6 45 e9 ec	 mov	 BYTE PTR __k$[ebp+1], -20 ; ffffffecH
  00182	eb 04		 jmp	 SHORT $LN1@LoadBool_e@2
$LN96@LoadBool_e@2:
  00184	c6 45 e8 ed	 mov	 BYTE PTR __k$[ebp], -19	; ffffffedH
$LN1@LoadBool_e@2:
  00188	6a 03		 push	 3
  0018a	8d 45 e8	 lea	 eax, DWORD PTR __k$[ebp]
  0018d	c6 45 f5 00	 mov	 BYTE PTR __k$[ebp+13], 0
  00191	5a		 pop	 edx
$LL104@LoadBool_e@2:
  00192	81 30 ed ec eb
	ea		 xor	 DWORD PTR [eax], -353637139 ; eaebecedH
  00198	83 c0 04	 add	 eax, 4
  0019b	4a		 dec	 edx
  0019c	75 f4		 jne	 SHORT $LL104@LoadBool_e@2

; 103  : 		return LoadBool(_k, b);

  0019e	ff 75 0c	 push	 DWORD PTR _b$[ebp]
  001a1	80 75 f4 ed	 xor	 BYTE PTR __k$[ebp+12], -19 ; ffffffedH
  001a5	8d 45 e8	 lea	 eax, DWORD PTR __k$[ebp]
  001a8	50		 push	 eax
  001a9	8b ce		 mov	 ecx, esi
  001ab	ff 15 00 00 00
	00		 call	 DWORD PTR __imp_?LoadBool@ioINILoader@@QAE_NPBD_N@Z

; 104  : 	}

  001b1	8b 4d fc	 mov	 ecx, DWORD PTR __$ArrayPad$[ebp]
  001b4	33 cd		 xor	 ecx, ebp
  001b6	5e		 pop	 esi
  001b7	e8 00 00 00 00	 call	 @__security_check_cookie@4
  001bc	c9		 leave
  001bd	c2 08 00	 ret	 8
??$LoadBool_e@$0O@@ioINILoader@@QAE_NAAY0O@$$CBD_N@Z ENDP ; ioINILoader::LoadBool_e<14>
_TEXT	ENDS
PUBLIC	__$ArrayPad$
PUBLIC	??$LoadBool_e@$0P@@ioINILoader@@QAE_NAAY0P@$$CBD_N@Z ; ioINILoader::LoadBool_e<15>
; Function compile flags: /Ogsp
;	COMDAT ??$LoadBool_e@$0P@@ioINILoader@@QAE_NAAY0P@$$CBD_N@Z
_TEXT	SEGMENT
__k$ = -24						; size = 15
__$ArrayPad$ = -4					; size = 4
_k$ = 8							; size = 4
_b$ = 12						; size = 1
??$LoadBool_e@$0P@@ioINILoader@@QAE_NAAY0P@$$CBD_N@Z PROC ; ioINILoader::LoadBool_e<15>, COMDAT
; _this$ = ecx

; 101  : 	{

  00000	55		 push	 ebp
  00001	8b ec		 mov	 ebp, esp
  00003	83 ec 18	 sub	 esp, 24			; 00000018H
  00006	a1 00 00 00 00	 mov	 eax, DWORD PTR ___security_cookie
  0000b	33 c5		 xor	 eax, ebp
  0000d	89 45 fc	 mov	 DWORD PTR __$ArrayPad$[ebp], eax
  00010	8b 45 08	 mov	 eax, DWORD PTR _k$[ebp]

; 102  : 		_ENCSTR(k, _k);

  00013	8a 10		 mov	 dl, BYTE PTR [eax]
  00015	56		 push	 esi
  00016	8b f1		 mov	 esi, ecx
  00018	84 d2		 test	 dl, dl
  0001a	0f 84 75 01 00
	00		 je	 $LN96@LoadBool_e@3
  00020	80 f2 ed	 xor	 dl, -19			; ffffffedH
  00023	88 55 e8	 mov	 BYTE PTR __k$[ebp], dl
  00026	8a 50 01	 mov	 dl, BYTE PTR [eax+1]
  00029	84 d2		 test	 dl, dl
  0002b	0f 84 5e 01 00
	00		 je	 $LN95@LoadBool_e@3
  00031	b1 ec		 mov	 cl, -20			; ffffffecH
  00033	32 d1		 xor	 dl, cl
  00035	88 55 e9	 mov	 BYTE PTR __k$[ebp+1], dl
  00038	8a 50 02	 mov	 dl, BYTE PTR [eax+2]
  0003b	84 d2		 test	 dl, dl
  0003d	0f 84 46 01 00
	00		 je	 $LN94@LoadBool_e@3
  00043	80 f2 eb	 xor	 dl, -21			; ffffffebH
  00046	88 55 ea	 mov	 BYTE PTR __k$[ebp+2], dl
  00049	8a 50 03	 mov	 dl, BYTE PTR [eax+3]
  0004c	84 d2		 test	 dl, dl
  0004e	0f 84 2f 01 00
	00		 je	 $LN93@LoadBool_e@3
  00054	80 f2 ea	 xor	 dl, -22			; ffffffeaH
  00057	88 55 eb	 mov	 BYTE PTR __k$[ebp+3], dl
  0005a	8a 50 04	 mov	 dl, BYTE PTR [eax+4]
  0005d	84 d2		 test	 dl, dl
  0005f	0f 84 18 01 00
	00		 je	 $LN92@LoadBool_e@3
  00065	80 f2 ed	 xor	 dl, -19			; ffffffedH
  00068	88 55 ec	 mov	 BYTE PTR __k$[ebp+4], dl
  0006b	8a 50 05	 mov	 dl, BYTE PTR [eax+5]
  0006e	84 d2		 test	 dl, dl
  00070	0f 84 02 01 00
	00		 je	 $LN91@LoadBool_e@3
  00076	32 d1		 xor	 dl, cl
  00078	88 55 ed	 mov	 BYTE PTR __k$[ebp+5], dl
  0007b	8a 50 06	 mov	 dl, BYTE PTR [eax+6]
  0007e	84 d2		 test	 dl, dl
  00080	0f 84 ec 00 00
	00		 je	 $LN90@LoadBool_e@3
  00086	80 f2 eb	 xor	 dl, -21			; ffffffebH
  00089	88 55 ee	 mov	 BYTE PTR __k$[ebp+6], dl
  0008c	8a 50 07	 mov	 dl, BYTE PTR [eax+7]
  0008f	84 d2		 test	 dl, dl
  00091	0f 84 d5 00 00
	00		 je	 $LN89@LoadBool_e@3
  00097	80 f2 ea	 xor	 dl, -22			; ffffffeaH
  0009a	88 55 ef	 mov	 BYTE PTR __k$[ebp+7], dl
  0009d	8a 50 08	 mov	 dl, BYTE PTR [eax+8]
  000a0	84 d2		 test	 dl, dl
  000a2	0f 84 be 00 00
	00		 je	 $LN88@LoadBool_e@3
  000a8	80 f2 ed	 xor	 dl, -19			; ffffffedH
  000ab	88 55 f0	 mov	 BYTE PTR __k$[ebp+8], dl
  000ae	8a 50 09	 mov	 dl, BYTE PTR [eax+9]
  000b1	84 d2		 test	 dl, dl
  000b3	0f 84 a8 00 00
	00		 je	 $LN87@LoadBool_e@3
  000b9	32 d1		 xor	 dl, cl
  000bb	88 55 f1	 mov	 BYTE PTR __k$[ebp+9], dl
  000be	8a 50 0a	 mov	 dl, BYTE PTR [eax+10]
  000c1	84 d2		 test	 dl, dl
  000c3	0f 84 92 00 00
	00		 je	 $LN86@LoadBool_e@3
  000c9	80 f2 eb	 xor	 dl, -21			; ffffffebH
  000cc	88 55 f2	 mov	 BYTE PTR __k$[ebp+10], dl
  000cf	8a 50 0b	 mov	 dl, BYTE PTR [eax+11]
  000d2	84 d2		 test	 dl, dl
  000d4	74 7f		 je	 SHORT $LN85@LoadBool_e@3
  000d6	80 f2 ea	 xor	 dl, -22			; ffffffeaH
  000d9	88 55 f3	 mov	 BYTE PTR __k$[ebp+11], dl
  000dc	8a 50 0c	 mov	 dl, BYTE PTR [eax+12]
  000df	84 d2		 test	 dl, dl
  000e1	74 6c		 je	 SHORT $LN84@LoadBool_e@3
  000e3	80 f2 ed	 xor	 dl, -19			; ffffffedH
  000e6	88 55 f4	 mov	 BYTE PTR __k$[ebp+12], dl
  000e9	8a 50 0d	 mov	 dl, BYTE PTR [eax+13]
  000ec	84 d2		 test	 dl, dl
  000ee	74 5a		 je	 SHORT $LN83@LoadBool_e@3
  000f0	32 d1		 xor	 dl, cl
  000f2	80 78 0e 00	 cmp	 BYTE PTR [eax+14], 0
  000f6	88 55 f5	 mov	 BYTE PTR __k$[ebp+13], dl
  000f9	0f 84 9a 00 00
	00		 je	 $LN1@LoadBool_e@3
  000ff	8a 50 0f	 mov	 dl, BYTE PTR [eax+15]
  00102	84 d2		 test	 dl, dl
  00104	74 3e		 je	 SHORT $LN81@LoadBool_e@3
  00106	80 f2 ea	 xor	 dl, -22			; ffffffeaH
  00109	88 55 f7	 mov	 BYTE PTR __k$[ebp+15], dl
  0010c	8a 50 10	 mov	 dl, BYTE PTR [eax+16]
  0010f	84 d2		 test	 dl, dl
  00111	74 2b		 je	 SHORT $LN80@LoadBool_e@3
  00113	80 f2 ed	 xor	 dl, -19			; ffffffedH
  00116	88 55 f8	 mov	 BYTE PTR __k$[ebp+16], dl
  00119	8a 50 11	 mov	 dl, BYTE PTR [eax+17]
  0011c	84 d2		 test	 dl, dl
  0011e	74 19		 je	 SHORT $LN79@LoadBool_e@3
  00120	8a 40 12	 mov	 al, BYTE PTR [eax+18]
  00123	32 d1		 xor	 dl, cl
  00125	88 55 f9	 mov	 BYTE PTR __k$[ebp+17], dl
  00128	84 c0		 test	 al, al
  0012a	74 07		 je	 SHORT $LN78@LoadBool_e@3
  0012c	34 eb		 xor	 al, -21			; ffffffebH
  0012e	88 45 fa	 mov	 BYTE PTR __k$[ebp+18], al
  00131	eb 66		 jmp	 SHORT $LN1@LoadBool_e@3
$LN78@LoadBool_e@3:
  00133	c6 45 fa eb	 mov	 BYTE PTR __k$[ebp+18], -21 ; ffffffebH
  00137	eb 60		 jmp	 SHORT $LN1@LoadBool_e@3
$LN79@LoadBool_e@3:
  00139	88 4d f9	 mov	 BYTE PTR __k$[ebp+17], cl
  0013c	eb 5b		 jmp	 SHORT $LN1@LoadBool_e@3
$LN80@LoadBool_e@3:
  0013e	c6 45 f8 ed	 mov	 BYTE PTR __k$[ebp+16], -19 ; ffffffedH
  00142	eb 55		 jmp	 SHORT $LN1@LoadBool_e@3
$LN81@LoadBool_e@3:
  00144	c6 45 f7 ea	 mov	 BYTE PTR __k$[ebp+15], -22 ; ffffffeaH
  00148	eb 4f		 jmp	 SHORT $LN1@LoadBool_e@3
$LN83@LoadBool_e@3:
  0014a	88 4d f5	 mov	 BYTE PTR __k$[ebp+13], cl
  0014d	eb 4a		 jmp	 SHORT $LN1@LoadBool_e@3
$LN84@LoadBool_e@3:
  0014f	c6 45 f4 ed	 mov	 BYTE PTR __k$[ebp+12], -19 ; ffffffedH
  00153	eb 44		 jmp	 SHORT $LN1@LoadBool_e@3
$LN85@LoadBool_e@3:
  00155	c6 45 f3 ea	 mov	 BYTE PTR __k$[ebp+11], -22 ; ffffffeaH
  00159	eb 3e		 jmp	 SHORT $LN1@LoadBool_e@3
$LN86@LoadBool_e@3:
  0015b	c6 45 f2 eb	 mov	 BYTE PTR __k$[ebp+10], -21 ; ffffffebH
  0015f	eb 38		 jmp	 SHORT $LN1@LoadBool_e@3
$LN87@LoadBool_e@3:
  00161	88 4d f1	 mov	 BYTE PTR __k$[ebp+9], cl
  00164	eb 33		 jmp	 SHORT $LN1@LoadBool_e@3
$LN88@LoadBool_e@3:
  00166	c6 45 f0 ed	 mov	 BYTE PTR __k$[ebp+8], -19 ; ffffffedH
  0016a	eb 2d		 jmp	 SHORT $LN1@LoadBool_e@3
$LN89@LoadBool_e@3:
  0016c	c6 45 ef ea	 mov	 BYTE PTR __k$[ebp+7], -22 ; ffffffeaH
  00170	eb 27		 jmp	 SHORT $LN1@LoadBool_e@3
$LN90@LoadBool_e@3:
  00172	c6 45 ee eb	 mov	 BYTE PTR __k$[ebp+6], -21 ; ffffffebH
  00176	eb 21		 jmp	 SHORT $LN1@LoadBool_e@3
$LN91@LoadBool_e@3:
  00178	88 4d ed	 mov	 BYTE PTR __k$[ebp+5], cl
  0017b	eb 1c		 jmp	 SHORT $LN1@LoadBool_e@3
$LN92@LoadBool_e@3:
  0017d	c6 45 ec ed	 mov	 BYTE PTR __k$[ebp+4], -19 ; ffffffedH
  00181	eb 16		 jmp	 SHORT $LN1@LoadBool_e@3
$LN93@LoadBool_e@3:
  00183	c6 45 eb ea	 mov	 BYTE PTR __k$[ebp+3], -22 ; ffffffeaH
  00187	eb 10		 jmp	 SHORT $LN1@LoadBool_e@3
$LN94@LoadBool_e@3:
  00189	c6 45 ea eb	 mov	 BYTE PTR __k$[ebp+2], -21 ; ffffffebH
  0018d	eb 0a		 jmp	 SHORT $LN1@LoadBool_e@3
$LN95@LoadBool_e@3:
  0018f	c6 45 e9 ec	 mov	 BYTE PTR __k$[ebp+1], -20 ; ffffffecH
  00193	eb 04		 jmp	 SHORT $LN1@LoadBool_e@3
$LN96@LoadBool_e@3:
  00195	c6 45 e8 ed	 mov	 BYTE PTR __k$[ebp], -19	; ffffffedH
$LN1@LoadBool_e@3:
  00199	6a 03		 push	 3
  0019b	8d 45 e8	 lea	 eax, DWORD PTR __k$[ebp]
  0019e	c6 45 f6 00	 mov	 BYTE PTR __k$[ebp+14], 0
  001a2	5a		 pop	 edx
$LL104@LoadBool_e@3:
  001a3	81 30 ed ec eb
	ea		 xor	 DWORD PTR [eax], -353637139 ; eaebecedH
  001a9	83 c0 04	 add	 eax, 4
  001ac	4a		 dec	 edx
  001ad	75 f4		 jne	 SHORT $LL104@LoadBool_e@3
  001af	6a 0c		 push	 12			; 0000000cH
  001b1	58		 pop	 eax
$LL101@LoadBool_e@3:
  001b2	8b c8		 mov	 ecx, eax
  001b4	81 e1 03 00 00
	80		 and	 ecx, -2147483645	; 80000003H
  001ba	79 05		 jns	 SHORT $LN111@LoadBool_e@3
  001bc	49		 dec	 ecx
  001bd	83 c9 fc	 or	 ecx, -4			; fffffffcH
  001c0	41		 inc	 ecx
$LN111@LoadBool_e@3:
  001c1	b2 ed		 mov	 dl, -19			; ffffffedH
  001c3	2a d1		 sub	 dl, cl
  001c5	30 54 05 e8	 xor	 BYTE PTR __k$[ebp+eax], dl
  001c9	40		 inc	 eax
  001ca	83 f8 0e	 cmp	 eax, 14			; 0000000eH
  001cd	7c e3		 jl	 SHORT $LL101@LoadBool_e@3

; 103  : 		return LoadBool(_k, b);

  001cf	ff 75 0c	 push	 DWORD PTR _b$[ebp]
  001d2	8d 45 e8	 lea	 eax, DWORD PTR __k$[ebp]
  001d5	50		 push	 eax
  001d6	8b ce		 mov	 ecx, esi
  001d8	ff 15 00 00 00
	00		 call	 DWORD PTR __imp_?LoadBool@ioINILoader@@QAE_NPBD_N@Z

; 104  : 	}

  001de	8b 4d fc	 mov	 ecx, DWORD PTR __$ArrayPad$[ebp]
  001e1	33 cd		 xor	 ecx, ebp
  001e3	5e		 pop	 esi
  001e4	e8 00 00 00 00	 call	 @__security_check_cookie@4
  001e9	c9		 leave
  001ea	c2 08 00	 ret	 8
??$LoadBool_e@$0P@@ioINILoader@@QAE_NAAY0P@$$CBD_N@Z ENDP ; ioINILoader::LoadBool_e<15>
_TEXT	ENDS
PUBLIC	__$ArrayPad$
PUBLIC	??$LoadFloat_e@$0BA@@ioINILoader@@QAEMAAY0BA@$$CBDM@Z ; ioINILoader::LoadFloat_e<16>
EXTRN	__imp_?LoadFloat@ioINILoader@@QAEMPBDM@Z:PROC
; Function compile flags: /Ogsp
;	COMDAT ??$LoadFloat_e@$0BA@@ioINILoader@@QAEMAAY0BA@$$CBDM@Z
_TEXT	SEGMENT
__k$ = -24						; size = 16
__$ArrayPad$ = -4					; size = 4
_k$ = 8							; size = 4
_f$ = 12						; size = 4
??$LoadFloat_e@$0BA@@ioINILoader@@QAEMAAY0BA@$$CBDM@Z PROC ; ioINILoader::LoadFloat_e<16>, COMDAT
; _this$ = ecx

; 135  : 	{

  00000	55		 push	 ebp
  00001	8b ec		 mov	 ebp, esp
  00003	83 ec 18	 sub	 esp, 24			; 00000018H
  00006	a1 00 00 00 00	 mov	 eax, DWORD PTR ___security_cookie
  0000b	33 c5		 xor	 eax, ebp
  0000d	89 45 fc	 mov	 DWORD PTR __$ArrayPad$[ebp], eax
  00010	8b 45 08	 mov	 eax, DWORD PTR _k$[ebp]

; 136  : 		_ENCSTR(k, _k);

  00013	8a 10		 mov	 dl, BYTE PTR [eax]
  00015	56		 push	 esi
  00016	8b f1		 mov	 esi, ecx
  00018	84 d2		 test	 dl, dl
  0001a	0f 84 8c 01 00
	00		 je	 $LN96@LoadFloat_
  00020	80 f2 ed	 xor	 dl, -19			; ffffffedH
  00023	88 55 e8	 mov	 BYTE PTR __k$[ebp], dl
  00026	8a 50 01	 mov	 dl, BYTE PTR [eax+1]
  00029	84 d2		 test	 dl, dl
  0002b	0f 84 75 01 00
	00		 je	 $LN95@LoadFloat_
  00031	80 f2 ec	 xor	 dl, -20			; ffffffecH
  00034	88 55 e9	 mov	 BYTE PTR __k$[ebp+1], dl
  00037	8a 50 02	 mov	 dl, BYTE PTR [eax+2]
  0003a	84 d2		 test	 dl, dl
  0003c	0f 84 5e 01 00
	00		 je	 $LN94@LoadFloat_
  00042	b1 eb		 mov	 cl, -21			; ffffffebH
  00044	32 d1		 xor	 dl, cl
  00046	88 55 ea	 mov	 BYTE PTR __k$[ebp+2], dl
  00049	8a 50 03	 mov	 dl, BYTE PTR [eax+3]
  0004c	84 d2		 test	 dl, dl
  0004e	0f 84 46 01 00
	00		 je	 $LN93@LoadFloat_
  00054	80 f2 ea	 xor	 dl, -22			; ffffffeaH
  00057	88 55 eb	 mov	 BYTE PTR __k$[ebp+3], dl
  0005a	8a 50 04	 mov	 dl, BYTE PTR [eax+4]
  0005d	84 d2		 test	 dl, dl
  0005f	0f 84 2f 01 00
	00		 je	 $LN92@LoadFloat_
  00065	80 f2 ed	 xor	 dl, -19			; ffffffedH
  00068	88 55 ec	 mov	 BYTE PTR __k$[ebp+4], dl
  0006b	8a 50 05	 mov	 dl, BYTE PTR [eax+5]
  0006e	84 d2		 test	 dl, dl
  00070	0f 84 18 01 00
	00		 je	 $LN91@LoadFloat_
  00076	80 f2 ec	 xor	 dl, -20			; ffffffecH
  00079	88 55 ed	 mov	 BYTE PTR __k$[ebp+5], dl
  0007c	8a 50 06	 mov	 dl, BYTE PTR [eax+6]
  0007f	84 d2		 test	 dl, dl
  00081	0f 84 02 01 00
	00		 je	 $LN90@LoadFloat_
  00087	32 d1		 xor	 dl, cl
  00089	88 55 ee	 mov	 BYTE PTR __k$[ebp+6], dl
  0008c	8a 50 07	 mov	 dl, BYTE PTR [eax+7]
  0008f	84 d2		 test	 dl, dl
  00091	0f 84 ec 00 00
	00		 je	 $LN89@LoadFloat_
  00097	80 f2 ea	 xor	 dl, -22			; ffffffeaH
  0009a	88 55 ef	 mov	 BYTE PTR __k$[ebp+7], dl
  0009d	8a 50 08	 mov	 dl, BYTE PTR [eax+8]
  000a0	84 d2		 test	 dl, dl
  000a2	0f 84 d5 00 00
	00		 je	 $LN88@LoadFloat_
  000a8	80 f2 ed	 xor	 dl, -19			; ffffffedH
  000ab	88 55 f0	 mov	 BYTE PTR __k$[ebp+8], dl
  000ae	8a 50 09	 mov	 dl, BYTE PTR [eax+9]
  000b1	84 d2		 test	 dl, dl
  000b3	0f 84 be 00 00
	00		 je	 $LN87@LoadFloat_
  000b9	80 f2 ec	 xor	 dl, -20			; ffffffecH
  000bc	88 55 f1	 mov	 BYTE PTR __k$[ebp+9], dl
  000bf	8a 50 0a	 mov	 dl, BYTE PTR [eax+10]
  000c2	84 d2		 test	 dl, dl
  000c4	0f 84 a8 00 00
	00		 je	 $LN86@LoadFloat_
  000ca	32 d1		 xor	 dl, cl
  000cc	88 55 f2	 mov	 BYTE PTR __k$[ebp+10], dl
  000cf	8a 50 0b	 mov	 dl, BYTE PTR [eax+11]
  000d2	84 d2		 test	 dl, dl
  000d4	0f 84 92 00 00
	00		 je	 $LN85@LoadFloat_
  000da	80 f2 ea	 xor	 dl, -22			; ffffffeaH
  000dd	88 55 f3	 mov	 BYTE PTR __k$[ebp+11], dl
  000e0	8a 50 0c	 mov	 dl, BYTE PTR [eax+12]
  000e3	84 d2		 test	 dl, dl
  000e5	74 7f		 je	 SHORT $LN84@LoadFloat_
  000e7	80 f2 ed	 xor	 dl, -19			; ffffffedH
  000ea	88 55 f4	 mov	 BYTE PTR __k$[ebp+12], dl
  000ed	8a 50 0d	 mov	 dl, BYTE PTR [eax+13]
  000f0	84 d2		 test	 dl, dl
  000f2	74 6c		 je	 SHORT $LN83@LoadFloat_
  000f4	80 f2 ec	 xor	 dl, -20			; ffffffecH
  000f7	88 55 f5	 mov	 BYTE PTR __k$[ebp+13], dl
  000fa	8a 50 0e	 mov	 dl, BYTE PTR [eax+14]
  000fd	84 d2		 test	 dl, dl
  000ff	74 5a		 je	 SHORT $LN82@LoadFloat_
  00101	32 d1		 xor	 dl, cl
  00103	80 78 0f 00	 cmp	 BYTE PTR [eax+15], 0
  00107	88 55 f6	 mov	 BYTE PTR __k$[ebp+14], dl
  0010a	0f 84 a0 00 00
	00		 je	 $LN1@LoadFloat_
  00110	8a 50 10	 mov	 dl, BYTE PTR [eax+16]
  00113	84 d2		 test	 dl, dl
  00115	74 3e		 je	 SHORT $LN80@LoadFloat_
  00117	80 f2 ed	 xor	 dl, -19			; ffffffedH
  0011a	88 55 f8	 mov	 BYTE PTR __k$[ebp+16], dl
  0011d	8a 50 11	 mov	 dl, BYTE PTR [eax+17]
  00120	84 d2		 test	 dl, dl
  00122	74 2b		 je	 SHORT $LN79@LoadFloat_
  00124	80 f2 ec	 xor	 dl, -20			; ffffffecH
  00127	88 55 f9	 mov	 BYTE PTR __k$[ebp+17], dl
  0012a	8a 50 12	 mov	 dl, BYTE PTR [eax+18]
  0012d	84 d2		 test	 dl, dl
  0012f	74 19		 je	 SHORT $LN78@LoadFloat_
  00131	8a 40 13	 mov	 al, BYTE PTR [eax+19]
  00134	32 d1		 xor	 dl, cl
  00136	88 55 fa	 mov	 BYTE PTR __k$[ebp+18], dl
  00139	84 c0		 test	 al, al
  0013b	74 07		 je	 SHORT $LN77@LoadFloat_
  0013d	34 ea		 xor	 al, -22			; ffffffeaH
  0013f	88 45 fb	 mov	 BYTE PTR __k$[ebp+19], al
  00142	eb 6c		 jmp	 SHORT $LN1@LoadFloat_
$LN77@LoadFloat_:
  00144	c6 45 fb ea	 mov	 BYTE PTR __k$[ebp+19], -22 ; ffffffeaH
  00148	eb 66		 jmp	 SHORT $LN1@LoadFloat_
$LN78@LoadFloat_:
  0014a	88 4d fa	 mov	 BYTE PTR __k$[ebp+18], cl
  0014d	eb 61		 jmp	 SHORT $LN1@LoadFloat_
$LN79@LoadFloat_:
  0014f	c6 45 f9 ec	 mov	 BYTE PTR __k$[ebp+17], -20 ; ffffffecH
  00153	eb 5b		 jmp	 SHORT $LN1@LoadFloat_
$LN80@LoadFloat_:
  00155	c6 45 f8 ed	 mov	 BYTE PTR __k$[ebp+16], -19 ; ffffffedH
  00159	eb 55		 jmp	 SHORT $LN1@LoadFloat_
$LN82@LoadFloat_:
  0015b	88 4d f6	 mov	 BYTE PTR __k$[ebp+14], cl
  0015e	eb 50		 jmp	 SHORT $LN1@LoadFloat_
$LN83@LoadFloat_:
  00160	c6 45 f5 ec	 mov	 BYTE PTR __k$[ebp+13], -20 ; ffffffecH
  00164	eb 4a		 jmp	 SHORT $LN1@LoadFloat_
$LN84@LoadFloat_:
  00166	c6 45 f4 ed	 mov	 BYTE PTR __k$[ebp+12], -19 ; ffffffedH
  0016a	eb 44		 jmp	 SHORT $LN1@LoadFloat_
$LN85@LoadFloat_:
  0016c	c6 45 f3 ea	 mov	 BYTE PTR __k$[ebp+11], -22 ; ffffffeaH
  00170	eb 3e		 jmp	 SHORT $LN1@LoadFloat_
$LN86@LoadFloat_:
  00172	88 4d f2	 mov	 BYTE PTR __k$[ebp+10], cl
  00175	eb 39		 jmp	 SHORT $LN1@LoadFloat_
$LN87@LoadFloat_:
  00177	c6 45 f1 ec	 mov	 BYTE PTR __k$[ebp+9], -20 ; ffffffecH
  0017b	eb 33		 jmp	 SHORT $LN1@LoadFloat_
$LN88@LoadFloat_:
  0017d	c6 45 f0 ed	 mov	 BYTE PTR __k$[ebp+8], -19 ; ffffffedH
  00181	eb 2d		 jmp	 SHORT $LN1@LoadFloat_
$LN89@LoadFloat_:
  00183	c6 45 ef ea	 mov	 BYTE PTR __k$[ebp+7], -22 ; ffffffeaH
  00187	eb 27		 jmp	 SHORT $LN1@LoadFloat_
$LN90@LoadFloat_:
  00189	88 4d ee	 mov	 BYTE PTR __k$[ebp+6], cl
  0018c	eb 22		 jmp	 SHORT $LN1@LoadFloat_
$LN91@LoadFloat_:
  0018e	c6 45 ed ec	 mov	 BYTE PTR __k$[ebp+5], -20 ; ffffffecH
  00192	eb 1c		 jmp	 SHORT $LN1@LoadFloat_
$LN92@LoadFloat_:
  00194	c6 45 ec ed	 mov	 BYTE PTR __k$[ebp+4], -19 ; ffffffedH
  00198	eb 16		 jmp	 SHORT $LN1@LoadFloat_
$LN93@LoadFloat_:
  0019a	c6 45 eb ea	 mov	 BYTE PTR __k$[ebp+3], -22 ; ffffffeaH
  0019e	eb 10		 jmp	 SHORT $LN1@LoadFloat_
$LN94@LoadFloat_:
  001a0	c6 45 ea eb	 mov	 BYTE PTR __k$[ebp+2], -21 ; ffffffebH
  001a4	eb 0a		 jmp	 SHORT $LN1@LoadFloat_
$LN95@LoadFloat_:
  001a6	c6 45 e9 ec	 mov	 BYTE PTR __k$[ebp+1], -20 ; ffffffecH
  001aa	eb 04		 jmp	 SHORT $LN1@LoadFloat_
$LN96@LoadFloat_:
  001ac	c6 45 e8 ed	 mov	 BYTE PTR __k$[ebp], -19	; ffffffedH
$LN1@LoadFloat_:
  001b0	6a 03		 push	 3
  001b2	8d 45 e8	 lea	 eax, DWORD PTR __k$[ebp]
  001b5	c6 45 f7 00	 mov	 BYTE PTR __k$[ebp+15], 0
  001b9	5a		 pop	 edx
$LL104@LoadFloat_:
  001ba	81 30 ed ec eb
	ea		 xor	 DWORD PTR [eax], -353637139 ; eaebecedH
  001c0	83 c0 04	 add	 eax, 4
  001c3	4a		 dec	 edx
  001c4	75 f4		 jne	 SHORT $LL104@LoadFloat_
  001c6	6a 0c		 push	 12			; 0000000cH
  001c8	58		 pop	 eax
$LL101@LoadFloat_:
  001c9	8b c8		 mov	 ecx, eax
  001cb	81 e1 03 00 00
	80		 and	 ecx, -2147483645	; 80000003H
  001d1	79 05		 jns	 SHORT $LN111@LoadFloat_
  001d3	49		 dec	 ecx
  001d4	83 c9 fc	 or	 ecx, -4			; fffffffcH
  001d7	41		 inc	 ecx
$LN111@LoadFloat_:
  001d8	b2 ed		 mov	 dl, -19			; ffffffedH
  001da	2a d1		 sub	 dl, cl
  001dc	30 54 05 e8	 xor	 BYTE PTR __k$[ebp+eax], dl
  001e0	40		 inc	 eax
  001e1	83 f8 0f	 cmp	 eax, 15			; 0000000fH
  001e4	7c e3		 jl	 SHORT $LL101@LoadFloat_

; 137  : 		return LoadFloat(_k, f);

  001e6	f3 0f 10 45 0c	 movss	 xmm0, DWORD PTR _f$[ebp]
  001eb	51		 push	 ecx
  001ec	8d 45 e8	 lea	 eax, DWORD PTR __k$[ebp]
  001ef	f3 0f 11 04 24	 movss	 DWORD PTR [esp], xmm0
  001f4	50		 push	 eax
  001f5	8b ce		 mov	 ecx, esi
  001f7	ff 15 00 00 00
	00		 call	 DWORD PTR __imp_?LoadFloat@ioINILoader@@QAEMPBDM@Z

; 138  : 	}

  001fd	8b 4d fc	 mov	 ecx, DWORD PTR __$ArrayPad$[ebp]
  00200	33 cd		 xor	 ecx, ebp
  00202	5e		 pop	 esi
  00203	e8 00 00 00 00	 call	 @__security_check_cookie@4
  00208	c9		 leave
  00209	c2 08 00	 ret	 8
??$LoadFloat_e@$0BA@@ioINILoader@@QAEMAAY0BA@$$CBDM@Z ENDP ; ioINILoader::LoadFloat_e<16>
_TEXT	ENDS
PUBLIC	__$ArrayPad$
PUBLIC	??$LoadInt_e@$0N@@ioINILoader@@QAEHAAY0N@$$CBDH@Z ; ioINILoader::LoadInt_e<13>
EXTRN	__imp_?LoadInt@ioINILoader@@QAEHPBDH@Z:PROC
; Function compile flags: /Ogsp
;	COMDAT ??$LoadInt_e@$0N@@ioINILoader@@QAEHAAY0N@$$CBDH@Z
_TEXT	SEGMENT
__k$ = -24						; size = 13
__$ArrayPad$ = -4					; size = 4
_k$ = 8							; size = 4
_i$ = 12						; size = 4
??$LoadInt_e@$0N@@ioINILoader@@QAEHAAY0N@$$CBDH@Z PROC	; ioINILoader::LoadInt_e<13>, COMDAT
; _this$ = ecx

; 118  : 	{

  00000	55		 push	 ebp
  00001	8b ec		 mov	 ebp, esp
  00003	83 ec 18	 sub	 esp, 24			; 00000018H
  00006	a1 00 00 00 00	 mov	 eax, DWORD PTR ___security_cookie
  0000b	33 c5		 xor	 eax, ebp
  0000d	89 45 fc	 mov	 DWORD PTR __$ArrayPad$[ebp], eax
  00010	8b 45 08	 mov	 eax, DWORD PTR _k$[ebp]

; 119  : 		_ENCSTR(k, _k);

  00013	8a 10		 mov	 dl, BYTE PTR [eax]
  00015	56		 push	 esi
  00016	8b f1		 mov	 esi, ecx
  00018	84 d2		 test	 dl, dl
  0001a	0f 84 4d 01 00
	00		 je	 $LN96@LoadInt_e
  00020	80 f2 ed	 xor	 dl, -19			; ffffffedH
  00023	88 55 e8	 mov	 BYTE PTR __k$[ebp], dl
  00026	8a 50 01	 mov	 dl, BYTE PTR [eax+1]
  00029	84 d2		 test	 dl, dl
  0002b	0f 84 36 01 00
	00		 je	 $LN95@LoadInt_e
  00031	b1 ec		 mov	 cl, -20			; ffffffecH
  00033	32 d1		 xor	 dl, cl
  00035	88 55 e9	 mov	 BYTE PTR __k$[ebp+1], dl
  00038	8a 50 02	 mov	 dl, BYTE PTR [eax+2]
  0003b	84 d2		 test	 dl, dl
  0003d	0f 84 1e 01 00
	00		 je	 $LN94@LoadInt_e
  00043	80 f2 eb	 xor	 dl, -21			; ffffffebH
  00046	88 55 ea	 mov	 BYTE PTR __k$[ebp+2], dl
  00049	8a 50 03	 mov	 dl, BYTE PTR [eax+3]
  0004c	84 d2		 test	 dl, dl
  0004e	0f 84 07 01 00
	00		 je	 $LN93@LoadInt_e
  00054	80 f2 ea	 xor	 dl, -22			; ffffffeaH
  00057	88 55 eb	 mov	 BYTE PTR __k$[ebp+3], dl
  0005a	8a 50 04	 mov	 dl, BYTE PTR [eax+4]
  0005d	84 d2		 test	 dl, dl
  0005f	0f 84 f0 00 00
	00		 je	 $LN92@LoadInt_e
  00065	80 f2 ed	 xor	 dl, -19			; ffffffedH
  00068	88 55 ec	 mov	 BYTE PTR __k$[ebp+4], dl
  0006b	8a 50 05	 mov	 dl, BYTE PTR [eax+5]
  0006e	84 d2		 test	 dl, dl
  00070	0f 84 da 00 00
	00		 je	 $LN91@LoadInt_e
  00076	32 d1		 xor	 dl, cl
  00078	88 55 ed	 mov	 BYTE PTR __k$[ebp+5], dl
  0007b	8a 50 06	 mov	 dl, BYTE PTR [eax+6]
  0007e	84 d2		 test	 dl, dl
  00080	0f 84 c4 00 00
	00		 je	 $LN90@LoadInt_e
  00086	80 f2 eb	 xor	 dl, -21			; ffffffebH
  00089	88 55 ee	 mov	 BYTE PTR __k$[ebp+6], dl
  0008c	8a 50 07	 mov	 dl, BYTE PTR [eax+7]
  0008f	84 d2		 test	 dl, dl
  00091	0f 84 ad 00 00
	00		 je	 $LN89@LoadInt_e
  00097	80 f2 ea	 xor	 dl, -22			; ffffffeaH
  0009a	88 55 ef	 mov	 BYTE PTR __k$[ebp+7], dl
  0009d	8a 50 08	 mov	 dl, BYTE PTR [eax+8]
  000a0	84 d2		 test	 dl, dl
  000a2	0f 84 96 00 00
	00		 je	 $LN88@LoadInt_e
  000a8	80 f2 ed	 xor	 dl, -19			; ffffffedH
  000ab	88 55 f0	 mov	 BYTE PTR __k$[ebp+8], dl
  000ae	8a 50 09	 mov	 dl, BYTE PTR [eax+9]
  000b1	84 d2		 test	 dl, dl
  000b3	0f 84 80 00 00
	00		 je	 $LN87@LoadInt_e
  000b9	32 d1		 xor	 dl, cl
  000bb	88 55 f1	 mov	 BYTE PTR __k$[ebp+9], dl
  000be	8a 50 0a	 mov	 dl, BYTE PTR [eax+10]
  000c1	84 d2		 test	 dl, dl
  000c3	74 6e		 je	 SHORT $LN86@LoadInt_e
  000c5	80 f2 eb	 xor	 dl, -21			; ffffffebH
  000c8	88 55 f2	 mov	 BYTE PTR __k$[ebp+10], dl
  000cb	8a 50 0b	 mov	 dl, BYTE PTR [eax+11]
  000ce	84 d2		 test	 dl, dl
  000d0	74 5b		 je	 SHORT $LN85@LoadInt_e
  000d2	80 f2 ea	 xor	 dl, -22			; ffffffeaH
  000d5	80 78 0c 00	 cmp	 BYTE PTR [eax+12], 0
  000d9	88 55 f3	 mov	 BYTE PTR __k$[ebp+11], dl
  000dc	0f 84 8f 00 00
	00		 je	 $LN1@LoadInt_e
  000e2	8a 50 0d	 mov	 dl, BYTE PTR [eax+13]
  000e5	84 d2		 test	 dl, dl
  000e7	74 3f		 je	 SHORT $LN83@LoadInt_e
  000e9	32 d1		 xor	 dl, cl
  000eb	88 55 f5	 mov	 BYTE PTR __k$[ebp+13], dl
  000ee	8a 50 0e	 mov	 dl, BYTE PTR [eax+14]
  000f1	84 d2		 test	 dl, dl
  000f3	74 2d		 je	 SHORT $LN82@LoadInt_e
  000f5	80 f2 eb	 xor	 dl, -21			; ffffffebH
  000f8	88 55 f6	 mov	 BYTE PTR __k$[ebp+14], dl
  000fb	8a 50 0f	 mov	 dl, BYTE PTR [eax+15]
  000fe	84 d2		 test	 dl, dl
  00100	74 1a		 je	 SHORT $LN81@LoadInt_e
  00102	8a 40 10	 mov	 al, BYTE PTR [eax+16]
  00105	80 f2 ea	 xor	 dl, -22			; ffffffeaH
  00108	88 55 f7	 mov	 BYTE PTR __k$[ebp+15], dl
  0010b	84 c0		 test	 al, al
  0010d	74 07		 je	 SHORT $LN80@LoadInt_e
  0010f	34 ed		 xor	 al, -19			; ffffffedH
  00111	88 45 f8	 mov	 BYTE PTR __k$[ebp+16], al
  00114	eb 5b		 jmp	 SHORT $LN1@LoadInt_e
$LN80@LoadInt_e:
  00116	c6 45 f8 ed	 mov	 BYTE PTR __k$[ebp+16], -19 ; ffffffedH
  0011a	eb 55		 jmp	 SHORT $LN1@LoadInt_e
$LN81@LoadInt_e:
  0011c	c6 45 f7 ea	 mov	 BYTE PTR __k$[ebp+15], -22 ; ffffffeaH
  00120	eb 4f		 jmp	 SHORT $LN1@LoadInt_e
$LN82@LoadInt_e:
  00122	c6 45 f6 eb	 mov	 BYTE PTR __k$[ebp+14], -21 ; ffffffebH
  00126	eb 49		 jmp	 SHORT $LN1@LoadInt_e
$LN83@LoadInt_e:
  00128	88 4d f5	 mov	 BYTE PTR __k$[ebp+13], cl
  0012b	eb 44		 jmp	 SHORT $LN1@LoadInt_e
$LN85@LoadInt_e:
  0012d	c6 45 f3 ea	 mov	 BYTE PTR __k$[ebp+11], -22 ; ffffffeaH
  00131	eb 3e		 jmp	 SHORT $LN1@LoadInt_e
$LN86@LoadInt_e:
  00133	c6 45 f2 eb	 mov	 BYTE PTR __k$[ebp+10], -21 ; ffffffebH
  00137	eb 38		 jmp	 SHORT $LN1@LoadInt_e
$LN87@LoadInt_e:
  00139	88 4d f1	 mov	 BYTE PTR __k$[ebp+9], cl
  0013c	eb 33		 jmp	 SHORT $LN1@LoadInt_e
$LN88@LoadInt_e:
  0013e	c6 45 f0 ed	 mov	 BYTE PTR __k$[ebp+8], -19 ; ffffffedH
  00142	eb 2d		 jmp	 SHORT $LN1@LoadInt_e
$LN89@LoadInt_e:
  00144	c6 45 ef ea	 mov	 BYTE PTR __k$[ebp+7], -22 ; ffffffeaH
  00148	eb 27		 jmp	 SHORT $LN1@LoadInt_e
$LN90@LoadInt_e:
  0014a	c6 45 ee eb	 mov	 BYTE PTR __k$[ebp+6], -21 ; ffffffebH
  0014e	eb 21		 jmp	 SHORT $LN1@LoadInt_e
$LN91@LoadInt_e:
  00150	88 4d ed	 mov	 BYTE PTR __k$[ebp+5], cl
  00153	eb 1c		 jmp	 SHORT $LN1@LoadInt_e
$LN92@LoadInt_e:
  00155	c6 45 ec ed	 mov	 BYTE PTR __k$[ebp+4], -19 ; ffffffedH
  00159	eb 16		 jmp	 SHORT $LN1@LoadInt_e
$LN93@LoadInt_e:
  0015b	c6 45 eb ea	 mov	 BYTE PTR __k$[ebp+3], -22 ; ffffffeaH
  0015f	eb 10		 jmp	 SHORT $LN1@LoadInt_e
$LN94@LoadInt_e:
  00161	c6 45 ea eb	 mov	 BYTE PTR __k$[ebp+2], -21 ; ffffffebH
  00165	eb 0a		 jmp	 SHORT $LN1@LoadInt_e
$LN95@LoadInt_e:
  00167	c6 45 e9 ec	 mov	 BYTE PTR __k$[ebp+1], -20 ; ffffffecH
  0016b	eb 04		 jmp	 SHORT $LN1@LoadInt_e
$LN96@LoadInt_e:
  0016d	c6 45 e8 ed	 mov	 BYTE PTR __k$[ebp], -19	; ffffffedH
$LN1@LoadInt_e:
  00171	6a 03		 push	 3
  00173	8d 45 e8	 lea	 eax, DWORD PTR __k$[ebp]
  00176	c6 45 f4 00	 mov	 BYTE PTR __k$[ebp+12], 0
  0017a	5a		 pop	 edx
$LL104@LoadInt_e:
  0017b	81 30 ed ec eb
	ea		 xor	 DWORD PTR [eax], -353637139 ; eaebecedH
  00181	83 c0 04	 add	 eax, 4
  00184	4a		 dec	 edx
  00185	75 f4		 jne	 SHORT $LL104@LoadInt_e

; 120  : 		return LoadInt(_k, i);

  00187	ff 75 0c	 push	 DWORD PTR _i$[ebp]
  0018a	8d 45 e8	 lea	 eax, DWORD PTR __k$[ebp]
  0018d	50		 push	 eax
  0018e	8b ce		 mov	 ecx, esi
  00190	ff 15 00 00 00
	00		 call	 DWORD PTR __imp_?LoadInt@ioINILoader@@QAEHPBDH@Z

; 121  : 	}

  00196	8b 4d fc	 mov	 ecx, DWORD PTR __$ArrayPad$[ebp]
  00199	33 cd		 xor	 ecx, ebp
  0019b	5e		 pop	 esi
  0019c	e8 00 00 00 00	 call	 @__security_check_cookie@4
  001a1	c9		 leave
  001a2	c2 08 00	 ret	 8
??$LoadInt_e@$0N@@ioINILoader@@QAEHAAY0N@$$CBDH@Z ENDP	; ioINILoader::LoadInt_e<13>
_TEXT	ENDS
PUBLIC	__$ArrayPad$
PUBLIC	??$LoadFloat_e@$0BB@@ioINILoader@@QAEMAAY0BB@$$CBDM@Z ; ioINILoader::LoadFloat_e<17>
; Function compile flags: /Ogsp
;	COMDAT ??$LoadFloat_e@$0BB@@ioINILoader@@QAEMAAY0BB@$$CBDM@Z
_TEXT	SEGMENT
__k$ = -28						; size = 17
__$ArrayPad$ = -4					; size = 4
_k$ = 8							; size = 4
_f$ = 12						; size = 4
??$LoadFloat_e@$0BB@@ioINILoader@@QAEMAAY0BB@$$CBDM@Z PROC ; ioINILoader::LoadFloat_e<17>, COMDAT
; _this$ = ecx

; 135  : 	{

  00000	55		 push	 ebp
  00001	8b ec		 mov	 ebp, esp
  00003	83 ec 1c	 sub	 esp, 28			; 0000001cH
  00006	a1 00 00 00 00	 mov	 eax, DWORD PTR ___security_cookie
  0000b	33 c5		 xor	 eax, ebp
  0000d	89 45 fc	 mov	 DWORD PTR __$ArrayPad$[ebp], eax
  00010	8b 45 08	 mov	 eax, DWORD PTR _k$[ebp]

; 136  : 		_ENCSTR(k, _k);

  00013	8a 10		 mov	 dl, BYTE PTR [eax]
  00015	56		 push	 esi
  00016	8b f1		 mov	 esi, ecx
  00018	84 d2		 test	 dl, dl
  0001a	0f 84 a7 01 00
	00		 je	 $LN96@LoadFloat_@2
  00020	80 f2 ed	 xor	 dl, -19			; ffffffedH
  00023	88 55 e4	 mov	 BYTE PTR __k$[ebp], dl
  00026	8a 50 01	 mov	 dl, BYTE PTR [eax+1]
  00029	84 d2		 test	 dl, dl
  0002b	0f 84 90 01 00
	00		 je	 $LN95@LoadFloat_@2
  00031	b1 ec		 mov	 cl, -20			; ffffffecH
  00033	32 d1		 xor	 dl, cl
  00035	88 55 e5	 mov	 BYTE PTR __k$[ebp+1], dl
  00038	8a 50 02	 mov	 dl, BYTE PTR [eax+2]
  0003b	84 d2		 test	 dl, dl
  0003d	0f 84 78 01 00
	00		 je	 $LN94@LoadFloat_@2
  00043	80 f2 eb	 xor	 dl, -21			; ffffffebH
  00046	88 55 e6	 mov	 BYTE PTR __k$[ebp+2], dl
  00049	8a 50 03	 mov	 dl, BYTE PTR [eax+3]
  0004c	84 d2		 test	 dl, dl
  0004e	0f 84 61 01 00
	00		 je	 $LN93@LoadFloat_@2
  00054	80 f2 ea	 xor	 dl, -22			; ffffffeaH
  00057	88 55 e7	 mov	 BYTE PTR __k$[ebp+3], dl
  0005a	8a 50 04	 mov	 dl, BYTE PTR [eax+4]
  0005d	84 d2		 test	 dl, dl
  0005f	0f 84 4a 01 00
	00		 je	 $LN92@LoadFloat_@2
  00065	80 f2 ed	 xor	 dl, -19			; ffffffedH
  00068	88 55 e8	 mov	 BYTE PTR __k$[ebp+4], dl
  0006b	8a 50 05	 mov	 dl, BYTE PTR [eax+5]
  0006e	84 d2		 test	 dl, dl
  00070	0f 84 34 01 00
	00		 je	 $LN91@LoadFloat_@2
  00076	32 d1		 xor	 dl, cl
  00078	88 55 e9	 mov	 BYTE PTR __k$[ebp+5], dl
  0007b	8a 50 06	 mov	 dl, BYTE PTR [eax+6]
  0007e	84 d2		 test	 dl, dl
  00080	0f 84 1e 01 00
	00		 je	 $LN90@LoadFloat_@2
  00086	80 f2 eb	 xor	 dl, -21			; ffffffebH
  00089	88 55 ea	 mov	 BYTE PTR __k$[ebp+6], dl
  0008c	8a 50 07	 mov	 dl, BYTE PTR [eax+7]
  0008f	84 d2		 test	 dl, dl
  00091	0f 84 07 01 00
	00		 je	 $LN89@LoadFloat_@2
  00097	80 f2 ea	 xor	 dl, -22			; ffffffeaH
  0009a	88 55 eb	 mov	 BYTE PTR __k$[ebp+7], dl
  0009d	8a 50 08	 mov	 dl, BYTE PTR [eax+8]
  000a0	84 d2		 test	 dl, dl
  000a2	0f 84 f0 00 00
	00		 je	 $LN88@LoadFloat_@2
  000a8	80 f2 ed	 xor	 dl, -19			; ffffffedH
  000ab	88 55 ec	 mov	 BYTE PTR __k$[ebp+8], dl
  000ae	8a 50 09	 mov	 dl, BYTE PTR [eax+9]
  000b1	84 d2		 test	 dl, dl
  000b3	0f 84 da 00 00
	00		 je	 $LN87@LoadFloat_@2
  000b9	32 d1		 xor	 dl, cl
  000bb	88 55 ed	 mov	 BYTE PTR __k$[ebp+9], dl
  000be	8a 50 0a	 mov	 dl, BYTE PTR [eax+10]
  000c1	84 d2		 test	 dl, dl
  000c3	0f 84 c4 00 00
	00		 je	 $LN86@LoadFloat_@2
  000c9	80 f2 eb	 xor	 dl, -21			; ffffffebH
  000cc	88 55 ee	 mov	 BYTE PTR __k$[ebp+10], dl
  000cf	8a 50 0b	 mov	 dl, BYTE PTR [eax+11]
  000d2	84 d2		 test	 dl, dl
  000d4	0f 84 ad 00 00
	00		 je	 $LN85@LoadFloat_@2
  000da	80 f2 ea	 xor	 dl, -22			; ffffffeaH
  000dd	88 55 ef	 mov	 BYTE PTR __k$[ebp+11], dl
  000e0	8a 50 0c	 mov	 dl, BYTE PTR [eax+12]
  000e3	84 d2		 test	 dl, dl
  000e5	0f 84 96 00 00
	00		 je	 $LN84@LoadFloat_@2
  000eb	80 f2 ed	 xor	 dl, -19			; ffffffedH
  000ee	88 55 f0	 mov	 BYTE PTR __k$[ebp+12], dl
  000f1	8a 50 0d	 mov	 dl, BYTE PTR [eax+13]
  000f4	84 d2		 test	 dl, dl
  000f6	0f 84 80 00 00
	00		 je	 $LN83@LoadFloat_@2
  000fc	32 d1		 xor	 dl, cl
  000fe	88 55 f1	 mov	 BYTE PTR __k$[ebp+13], dl
  00101	8a 50 0e	 mov	 dl, BYTE PTR [eax+14]
  00104	84 d2		 test	 dl, dl
  00106	74 6e		 je	 SHORT $LN82@LoadFloat_@2
  00108	80 f2 eb	 xor	 dl, -21			; ffffffebH
  0010b	88 55 f2	 mov	 BYTE PTR __k$[ebp+14], dl
  0010e	8a 50 0f	 mov	 dl, BYTE PTR [eax+15]
  00111	84 d2		 test	 dl, dl
  00113	74 5b		 je	 SHORT $LN81@LoadFloat_@2
  00115	80 f2 ea	 xor	 dl, -22			; ffffffeaH
  00118	80 78 10 00	 cmp	 BYTE PTR [eax+16], 0
  0011c	88 55 f3	 mov	 BYTE PTR __k$[ebp+15], dl
  0011f	0f 84 a6 00 00
	00		 je	 $LN1@LoadFloat_@2
  00125	8a 50 11	 mov	 dl, BYTE PTR [eax+17]
  00128	84 d2		 test	 dl, dl
  0012a	74 3f		 je	 SHORT $LN79@LoadFloat_@2
  0012c	32 d1		 xor	 dl, cl
  0012e	88 55 f5	 mov	 BYTE PTR __k$[ebp+17], dl
  00131	8a 50 12	 mov	 dl, BYTE PTR [eax+18]
  00134	84 d2		 test	 dl, dl
  00136	74 2d		 je	 SHORT $LN78@LoadFloat_@2
  00138	80 f2 eb	 xor	 dl, -21			; ffffffebH
  0013b	88 55 f6	 mov	 BYTE PTR __k$[ebp+18], dl
  0013e	8a 50 13	 mov	 dl, BYTE PTR [eax+19]
  00141	84 d2		 test	 dl, dl
  00143	74 1a		 je	 SHORT $LN77@LoadFloat_@2
  00145	8a 40 14	 mov	 al, BYTE PTR [eax+20]
  00148	80 f2 ea	 xor	 dl, -22			; ffffffeaH
  0014b	88 55 f7	 mov	 BYTE PTR __k$[ebp+19], dl
  0014e	84 c0		 test	 al, al
  00150	74 07		 je	 SHORT $LN76@LoadFloat_@2
  00152	34 ed		 xor	 al, -19			; ffffffedH
  00154	88 45 f8	 mov	 BYTE PTR __k$[ebp+20], al
  00157	eb 72		 jmp	 SHORT $LN1@LoadFloat_@2
$LN76@LoadFloat_@2:
  00159	c6 45 f8 ed	 mov	 BYTE PTR __k$[ebp+20], -19 ; ffffffedH
  0015d	eb 6c		 jmp	 SHORT $LN1@LoadFloat_@2
$LN77@LoadFloat_@2:
  0015f	c6 45 f7 ea	 mov	 BYTE PTR __k$[ebp+19], -22 ; ffffffeaH
  00163	eb 66		 jmp	 SHORT $LN1@LoadFloat_@2
$LN78@LoadFloat_@2:
  00165	c6 45 f6 eb	 mov	 BYTE PTR __k$[ebp+18], -21 ; ffffffebH
  00169	eb 60		 jmp	 SHORT $LN1@LoadFloat_@2
$LN79@LoadFloat_@2:
  0016b	88 4d f5	 mov	 BYTE PTR __k$[ebp+17], cl
  0016e	eb 5b		 jmp	 SHORT $LN1@LoadFloat_@2
$LN81@LoadFloat_@2:
  00170	c6 45 f3 ea	 mov	 BYTE PTR __k$[ebp+15], -22 ; ffffffeaH
  00174	eb 55		 jmp	 SHORT $LN1@LoadFloat_@2
$LN82@LoadFloat_@2:
  00176	c6 45 f2 eb	 mov	 BYTE PTR __k$[ebp+14], -21 ; ffffffebH
  0017a	eb 4f		 jmp	 SHORT $LN1@LoadFloat_@2
$LN83@LoadFloat_@2:
  0017c	88 4d f1	 mov	 BYTE PTR __k$[ebp+13], cl
  0017f	eb 4a		 jmp	 SHORT $LN1@LoadFloat_@2
$LN84@LoadFloat_@2:
  00181	c6 45 f0 ed	 mov	 BYTE PTR __k$[ebp+12], -19 ; ffffffedH
  00185	eb 44		 jmp	 SHORT $LN1@LoadFloat_@2
$LN85@LoadFloat_@2:
  00187	c6 45 ef ea	 mov	 BYTE PTR __k$[ebp+11], -22 ; ffffffeaH
  0018b	eb 3e		 jmp	 SHORT $LN1@LoadFloat_@2
$LN86@LoadFloat_@2:
  0018d	c6 45 ee eb	 mov	 BYTE PTR __k$[ebp+10], -21 ; ffffffebH
  00191	eb 38		 jmp	 SHORT $LN1@LoadFloat_@2
$LN87@LoadFloat_@2:
  00193	88 4d ed	 mov	 BYTE PTR __k$[ebp+9], cl
  00196	eb 33		 jmp	 SHORT $LN1@LoadFloat_@2
$LN88@LoadFloat_@2:
  00198	c6 45 ec ed	 mov	 BYTE PTR __k$[ebp+8], -19 ; ffffffedH
  0019c	eb 2d		 jmp	 SHORT $LN1@LoadFloat_@2
$LN89@LoadFloat_@2:
  0019e	c6 45 eb ea	 mov	 BYTE PTR __k$[ebp+7], -22 ; ffffffeaH
  001a2	eb 27		 jmp	 SHORT $LN1@LoadFloat_@2
$LN90@LoadFloat_@2:
  001a4	c6 45 ea eb	 mov	 BYTE PTR __k$[ebp+6], -21 ; ffffffebH
  001a8	eb 21		 jmp	 SHORT $LN1@LoadFloat_@2
$LN91@LoadFloat_@2:
  001aa	88 4d e9	 mov	 BYTE PTR __k$[ebp+5], cl
  001ad	eb 1c		 jmp	 SHORT $LN1@LoadFloat_@2
$LN92@LoadFloat_@2:
  001af	c6 45 e8 ed	 mov	 BYTE PTR __k$[ebp+4], -19 ; ffffffedH
  001b3	eb 16		 jmp	 SHORT $LN1@LoadFloat_@2
$LN93@LoadFloat_@2:
  001b5	c6 45 e7 ea	 mov	 BYTE PTR __k$[ebp+3], -22 ; ffffffeaH
  001b9	eb 10		 jmp	 SHORT $LN1@LoadFloat_@2
$LN94@LoadFloat_@2:
  001bb	c6 45 e6 eb	 mov	 BYTE PTR __k$[ebp+2], -21 ; ffffffebH
  001bf	eb 0a		 jmp	 SHORT $LN1@LoadFloat_@2
$LN95@LoadFloat_@2:
  001c1	c6 45 e5 ec	 mov	 BYTE PTR __k$[ebp+1], -20 ; ffffffecH
  001c5	eb 04		 jmp	 SHORT $LN1@LoadFloat_@2
$LN96@LoadFloat_@2:
  001c7	c6 45 e4 ed	 mov	 BYTE PTR __k$[ebp], -19	; ffffffedH
$LN1@LoadFloat_@2:
  001cb	6a 04		 push	 4
  001cd	8d 45 e4	 lea	 eax, DWORD PTR __k$[ebp]
  001d0	c6 45 f4 00	 mov	 BYTE PTR __k$[ebp+16], 0
  001d4	5a		 pop	 edx
$LL104@LoadFloat_@2:
  001d5	81 30 ed ec eb
	ea		 xor	 DWORD PTR [eax], -353637139 ; eaebecedH
  001db	83 c0 04	 add	 eax, 4
  001de	4a		 dec	 edx
  001df	75 f4		 jne	 SHORT $LL104@LoadFloat_@2

; 137  : 		return LoadFloat(_k, f);

  001e1	f3 0f 10 45 0c	 movss	 xmm0, DWORD PTR _f$[ebp]
  001e6	51		 push	 ecx
  001e7	8d 45 e4	 lea	 eax, DWORD PTR __k$[ebp]
  001ea	f3 0f 11 04 24	 movss	 DWORD PTR [esp], xmm0
  001ef	50		 push	 eax
  001f0	8b ce		 mov	 ecx, esi
  001f2	ff 15 00 00 00
	00		 call	 DWORD PTR __imp_?LoadFloat@ioINILoader@@QAEMPBDM@Z

; 138  : 	}

  001f8	8b 4d fc	 mov	 ecx, DWORD PTR __$ArrayPad$[ebp]
  001fb	33 cd		 xor	 ecx, ebp
  001fd	5e		 pop	 esi
  001fe	e8 00 00 00 00	 call	 @__security_check_cookie@4
  00203	c9		 leave
  00204	c2 08 00	 ret	 8
??$LoadFloat_e@$0BB@@ioINILoader@@QAEMAAY0BB@$$CBDM@Z ENDP ; ioINILoader::LoadFloat_e<17>
_TEXT	ENDS
PUBLIC	__$ArrayPad$
PUBLIC	??$LoadFloat_e@$0M@@ioINILoader@@QAEMAAY0M@$$CBDM@Z ; ioINILoader::LoadFloat_e<12>
; Function compile flags: /Ogsp
;	COMDAT ??$LoadFloat_e@$0M@@ioINILoader@@QAEMAAY0M@$$CBDM@Z
_TEXT	SEGMENT
__k$ = -20						; size = 12
__$ArrayPad$ = -4					; size = 4
_k$ = 8							; size = 4
_f$ = 12						; size = 4
??$LoadFloat_e@$0M@@ioINILoader@@QAEMAAY0M@$$CBDM@Z PROC ; ioINILoader::LoadFloat_e<12>, COMDAT
; _this$ = ecx

; 135  : 	{

  00000	55		 push	 ebp
  00001	8b ec		 mov	 ebp, esp
  00003	83 ec 14	 sub	 esp, 20			; 00000014H
  00006	a1 00 00 00 00	 mov	 eax, DWORD PTR ___security_cookie
  0000b	33 c5		 xor	 eax, ebp
  0000d	89 45 fc	 mov	 DWORD PTR __$ArrayPad$[ebp], eax
  00010	8b 45 08	 mov	 eax, DWORD PTR _k$[ebp]

; 136  : 		_ENCSTR(k, _k);

  00013	8a 10		 mov	 dl, BYTE PTR [eax]
  00015	56		 push	 esi
  00016	8b f1		 mov	 esi, ecx
  00018	84 d2		 test	 dl, dl
  0001a	0f 84 32 01 00
	00		 je	 $LN96@LoadFloat_@3
  00020	80 f2 ed	 xor	 dl, -19			; ffffffedH
  00023	88 55 ec	 mov	 BYTE PTR __k$[ebp], dl
  00026	8a 50 01	 mov	 dl, BYTE PTR [eax+1]
  00029	84 d2		 test	 dl, dl
  0002b	0f 84 1b 01 00
	00		 je	 $LN95@LoadFloat_@3
  00031	80 f2 ec	 xor	 dl, -20			; ffffffecH
  00034	88 55 ed	 mov	 BYTE PTR __k$[ebp+1], dl
  00037	8a 50 02	 mov	 dl, BYTE PTR [eax+2]
  0003a	84 d2		 test	 dl, dl
  0003c	0f 84 04 01 00
	00		 je	 $LN94@LoadFloat_@3
  00042	b1 eb		 mov	 cl, -21			; ffffffebH
  00044	32 d1		 xor	 dl, cl
  00046	88 55 ee	 mov	 BYTE PTR __k$[ebp+2], dl
  00049	8a 50 03	 mov	 dl, BYTE PTR [eax+3]
  0004c	84 d2		 test	 dl, dl
  0004e	0f 84 ec 00 00
	00		 je	 $LN93@LoadFloat_@3
  00054	80 f2 ea	 xor	 dl, -22			; ffffffeaH
  00057	88 55 ef	 mov	 BYTE PTR __k$[ebp+3], dl
  0005a	8a 50 04	 mov	 dl, BYTE PTR [eax+4]
  0005d	84 d2		 test	 dl, dl
  0005f	0f 84 d5 00 00
	00		 je	 $LN92@LoadFloat_@3
  00065	80 f2 ed	 xor	 dl, -19			; ffffffedH
  00068	88 55 f0	 mov	 BYTE PTR __k$[ebp+4], dl
  0006b	8a 50 05	 mov	 dl, BYTE PTR [eax+5]
  0006e	84 d2		 test	 dl, dl
  00070	0f 84 be 00 00
	00		 je	 $LN91@LoadFloat_@3
  00076	80 f2 ec	 xor	 dl, -20			; ffffffecH
  00079	88 55 f1	 mov	 BYTE PTR __k$[ebp+5], dl
  0007c	8a 50 06	 mov	 dl, BYTE PTR [eax+6]
  0007f	84 d2		 test	 dl, dl
  00081	0f 84 a8 00 00
	00		 je	 $LN90@LoadFloat_@3
  00087	32 d1		 xor	 dl, cl
  00089	88 55 f2	 mov	 BYTE PTR __k$[ebp+6], dl
  0008c	8a 50 07	 mov	 dl, BYTE PTR [eax+7]
  0008f	84 d2		 test	 dl, dl
  00091	0f 84 92 00 00
	00		 je	 $LN89@LoadFloat_@3
  00097	80 f2 ea	 xor	 dl, -22			; ffffffeaH
  0009a	88 55 f3	 mov	 BYTE PTR __k$[ebp+7], dl
  0009d	8a 50 08	 mov	 dl, BYTE PTR [eax+8]
  000a0	84 d2		 test	 dl, dl
  000a2	74 7f		 je	 SHORT $LN88@LoadFloat_@3
  000a4	80 f2 ed	 xor	 dl, -19			; ffffffedH
  000a7	88 55 f4	 mov	 BYTE PTR __k$[ebp+8], dl
  000aa	8a 50 09	 mov	 dl, BYTE PTR [eax+9]
  000ad	84 d2		 test	 dl, dl
  000af	74 6c		 je	 SHORT $LN87@LoadFloat_@3
  000b1	80 f2 ec	 xor	 dl, -20			; ffffffecH
  000b4	88 55 f5	 mov	 BYTE PTR __k$[ebp+9], dl
  000b7	8a 50 0a	 mov	 dl, BYTE PTR [eax+10]
  000ba	84 d2		 test	 dl, dl
  000bc	74 5a		 je	 SHORT $LN86@LoadFloat_@3
  000be	32 d1		 xor	 dl, cl
  000c0	80 78 0b 00	 cmp	 BYTE PTR [eax+11], 0
  000c4	88 55 f6	 mov	 BYTE PTR __k$[ebp+10], dl
  000c7	0f 84 89 00 00
	00		 je	 $LN1@LoadFloat_@3
  000cd	8a 50 0c	 mov	 dl, BYTE PTR [eax+12]
  000d0	84 d2		 test	 dl, dl
  000d2	74 3e		 je	 SHORT $LN84@LoadFloat_@3
  000d4	80 f2 ed	 xor	 dl, -19			; ffffffedH
  000d7	88 55 f8	 mov	 BYTE PTR __k$[ebp+12], dl
  000da	8a 50 0d	 mov	 dl, BYTE PTR [eax+13]
  000dd	84 d2		 test	 dl, dl
  000df	74 2b		 je	 SHORT $LN83@LoadFloat_@3
  000e1	80 f2 ec	 xor	 dl, -20			; ffffffecH
  000e4	88 55 f9	 mov	 BYTE PTR __k$[ebp+13], dl
  000e7	8a 50 0e	 mov	 dl, BYTE PTR [eax+14]
  000ea	84 d2		 test	 dl, dl
  000ec	74 19		 je	 SHORT $LN82@LoadFloat_@3
  000ee	8a 40 0f	 mov	 al, BYTE PTR [eax+15]
  000f1	32 d1		 xor	 dl, cl
  000f3	88 55 fa	 mov	 BYTE PTR __k$[ebp+14], dl
  000f6	84 c0		 test	 al, al
  000f8	74 07		 je	 SHORT $LN81@LoadFloat_@3
  000fa	34 ea		 xor	 al, -22			; ffffffeaH
  000fc	88 45 fb	 mov	 BYTE PTR __k$[ebp+15], al
  000ff	eb 55		 jmp	 SHORT $LN1@LoadFloat_@3
$LN81@LoadFloat_@3:
  00101	c6 45 fb ea	 mov	 BYTE PTR __k$[ebp+15], -22 ; ffffffeaH
  00105	eb 4f		 jmp	 SHORT $LN1@LoadFloat_@3
$LN82@LoadFloat_@3:
  00107	88 4d fa	 mov	 BYTE PTR __k$[ebp+14], cl
  0010a	eb 4a		 jmp	 SHORT $LN1@LoadFloat_@3
$LN83@LoadFloat_@3:
  0010c	c6 45 f9 ec	 mov	 BYTE PTR __k$[ebp+13], -20 ; ffffffecH
  00110	eb 44		 jmp	 SHORT $LN1@LoadFloat_@3
$LN84@LoadFloat_@3:
  00112	c6 45 f8 ed	 mov	 BYTE PTR __k$[ebp+12], -19 ; ffffffedH
  00116	eb 3e		 jmp	 SHORT $LN1@LoadFloat_@3
$LN86@LoadFloat_@3:
  00118	88 4d f6	 mov	 BYTE PTR __k$[ebp+10], cl
  0011b	eb 39		 jmp	 SHORT $LN1@LoadFloat_@3
$LN87@LoadFloat_@3:
  0011d	c6 45 f5 ec	 mov	 BYTE PTR __k$[ebp+9], -20 ; ffffffecH
  00121	eb 33		 jmp	 SHORT $LN1@LoadFloat_@3
$LN88@LoadFloat_@3:
  00123	c6 45 f4 ed	 mov	 BYTE PTR __k$[ebp+8], -19 ; ffffffedH
  00127	eb 2d		 jmp	 SHORT $LN1@LoadFloat_@3
$LN89@LoadFloat_@3:
  00129	c6 45 f3 ea	 mov	 BYTE PTR __k$[ebp+7], -22 ; ffffffeaH
  0012d	eb 27		 jmp	 SHORT $LN1@LoadFloat_@3
$LN90@LoadFloat_@3:
  0012f	88 4d f2	 mov	 BYTE PTR __k$[ebp+6], cl
  00132	eb 22		 jmp	 SHORT $LN1@LoadFloat_@3
$LN91@LoadFloat_@3:
  00134	c6 45 f1 ec	 mov	 BYTE PTR __k$[ebp+5], -20 ; ffffffecH
  00138	eb 1c		 jmp	 SHORT $LN1@LoadFloat_@3
$LN92@LoadFloat_@3:
  0013a	c6 45 f0 ed	 mov	 BYTE PTR __k$[ebp+4], -19 ; ffffffedH
  0013e	eb 16		 jmp	 SHORT $LN1@LoadFloat_@3
$LN93@LoadFloat_@3:
  00140	c6 45 ef ea	 mov	 BYTE PTR __k$[ebp+3], -22 ; ffffffeaH
  00144	eb 10		 jmp	 SHORT $LN1@LoadFloat_@3
$LN94@LoadFloat_@3:
  00146	c6 45 ee eb	 mov	 BYTE PTR __k$[ebp+2], -21 ; ffffffebH
  0014a	eb 0a		 jmp	 SHORT $LN1@LoadFloat_@3
$LN95@LoadFloat_@3:
  0014c	c6 45 ed ec	 mov	 BYTE PTR __k$[ebp+1], -20 ; ffffffecH
  00150	eb 04		 jmp	 SHORT $LN1@LoadFloat_@3
$LN96@LoadFloat_@3:
  00152	c6 45 ec ed	 mov	 BYTE PTR __k$[ebp], -19	; ffffffedH
$LN1@LoadFloat_@3:
  00156	6a 02		 push	 2
  00158	8d 45 ec	 lea	 eax, DWORD PTR __k$[ebp]
  0015b	c6 45 f7 00	 mov	 BYTE PTR __k$[ebp+11], 0
  0015f	5a		 pop	 edx
$LL104@LoadFloat_@3:
  00160	81 30 ed ec eb
	ea		 xor	 DWORD PTR [eax], -353637139 ; eaebecedH
  00166	83 c0 04	 add	 eax, 4
  00169	4a		 dec	 edx
  0016a	75 f4		 jne	 SHORT $LL104@LoadFloat_@3
  0016c	6a 08		 push	 8
  0016e	58		 pop	 eax
$LL101@LoadFloat_@3:
  0016f	8b c8		 mov	 ecx, eax
  00171	81 e1 03 00 00
	80		 and	 ecx, -2147483645	; 80000003H
  00177	79 05		 jns	 SHORT $LN111@LoadFloat_@3
  00179	49		 dec	 ecx
  0017a	83 c9 fc	 or	 ecx, -4			; fffffffcH
  0017d	41		 inc	 ecx
$LN111@LoadFloat_@3:
  0017e	b2 ed		 mov	 dl, -19			; ffffffedH
  00180	2a d1		 sub	 dl, cl
  00182	30 54 05 ec	 xor	 BYTE PTR __k$[ebp+eax], dl
  00186	40		 inc	 eax
  00187	83 f8 0b	 cmp	 eax, 11			; 0000000bH
  0018a	7c e3		 jl	 SHORT $LL101@LoadFloat_@3

; 137  : 		return LoadFloat(_k, f);

  0018c	f3 0f 10 45 0c	 movss	 xmm0, DWORD PTR _f$[ebp]
  00191	51		 push	 ecx
  00192	8d 45 ec	 lea	 eax, DWORD PTR __k$[ebp]
  00195	f3 0f 11 04 24	 movss	 DWORD PTR [esp], xmm0
  0019a	50		 push	 eax
  0019b	8b ce		 mov	 ecx, esi
  0019d	ff 15 00 00 00
	00		 call	 DWORD PTR __imp_?LoadFloat@ioINILoader@@QAEMPBDM@Z

; 138  : 	}

  001a3	8b 4d fc	 mov	 ecx, DWORD PTR __$ArrayPad$[ebp]
  001a6	33 cd		 xor	 ecx, ebp
  001a8	5e		 pop	 esi
  001a9	e8 00 00 00 00	 call	 @__security_check_cookie@4
  001ae	c9		 leave
  001af	c2 08 00	 ret	 8
??$LoadFloat_e@$0M@@ioINILoader@@QAEMAAY0M@$$CBDM@Z ENDP ; ioINILoader::LoadFloat_e<12>
_TEXT	ENDS
PUBLIC	__$ArrayPad$
PUBLIC	??$LoadFloat_e@$09@ioINILoader@@QAEMAAY09$$CBDM@Z ; ioINILoader::LoadFloat_e<10>
; Function compile flags: /Ogsp
;	COMDAT ??$LoadFloat_e@$09@ioINILoader@@QAEMAAY09$$CBDM@Z
_TEXT	SEGMENT
__k$ = -20						; size = 10
__$ArrayPad$ = -4					; size = 4
_k$ = 8							; size = 4
_f$ = 12						; size = 4
??$LoadFloat_e@$09@ioINILoader@@QAEMAAY09$$CBDM@Z PROC	; ioINILoader::LoadFloat_e<10>, COMDAT
; _this$ = ecx

; 135  : 	{

  00000	55		 push	 ebp
  00001	8b ec		 mov	 ebp, esp
  00003	83 ec 14	 sub	 esp, 20			; 00000014H
  00006	a1 00 00 00 00	 mov	 eax, DWORD PTR ___security_cookie
  0000b	33 c5		 xor	 eax, ebp
  0000d	89 45 fc	 mov	 DWORD PTR __$ArrayPad$[ebp], eax
  00010	8b 45 08	 mov	 eax, DWORD PTR _k$[ebp]

; 136  : 		_ENCSTR(k, _k);

  00013	8a 10		 mov	 dl, BYTE PTR [eax]
  00015	84 d2		 test	 dl, dl
  00017	0f 84 0d 01 00
	00		 je	 $LN96@LoadFloat_@4
  0001d	80 f2 ed	 xor	 dl, -19			; ffffffedH
  00020	88 55 ec	 mov	 BYTE PTR __k$[ebp], dl
  00023	8a 50 01	 mov	 dl, BYTE PTR [eax+1]
  00026	84 d2		 test	 dl, dl
  00028	0f 84 f6 00 00
	00		 je	 $LN95@LoadFloat_@4
  0002e	80 f2 ec	 xor	 dl, -20			; ffffffecH
  00031	88 55 ed	 mov	 BYTE PTR __k$[ebp+1], dl
  00034	8a 50 02	 mov	 dl, BYTE PTR [eax+2]
  00037	84 d2		 test	 dl, dl
  00039	0f 84 df 00 00
	00		 je	 $LN94@LoadFloat_@4
  0003f	80 f2 eb	 xor	 dl, -21			; ffffffebH
  00042	88 55 ee	 mov	 BYTE PTR __k$[ebp+2], dl
  00045	8a 50 03	 mov	 dl, BYTE PTR [eax+3]
  00048	84 d2		 test	 dl, dl
  0004a	0f 84 c8 00 00
	00		 je	 $LN93@LoadFloat_@4
  00050	80 f2 ea	 xor	 dl, -22			; ffffffeaH
  00053	88 55 ef	 mov	 BYTE PTR __k$[ebp+3], dl
  00056	8a 50 04	 mov	 dl, BYTE PTR [eax+4]
  00059	84 d2		 test	 dl, dl
  0005b	0f 84 b1 00 00
	00		 je	 $LN92@LoadFloat_@4
  00061	80 f2 ed	 xor	 dl, -19			; ffffffedH
  00064	88 55 f0	 mov	 BYTE PTR __k$[ebp+4], dl
  00067	8a 50 05	 mov	 dl, BYTE PTR [eax+5]
  0006a	84 d2		 test	 dl, dl
  0006c	0f 84 9a 00 00
	00		 je	 $LN91@LoadFloat_@4
  00072	80 f2 ec	 xor	 dl, -20			; ffffffecH
  00075	88 55 f1	 mov	 BYTE PTR __k$[ebp+5], dl
  00078	8a 50 06	 mov	 dl, BYTE PTR [eax+6]
  0007b	84 d2		 test	 dl, dl
  0007d	0f 84 83 00 00
	00		 je	 $LN90@LoadFloat_@4
  00083	80 f2 eb	 xor	 dl, -21			; ffffffebH
  00086	88 55 f2	 mov	 BYTE PTR __k$[ebp+6], dl
  00089	8a 50 07	 mov	 dl, BYTE PTR [eax+7]
  0008c	84 d2		 test	 dl, dl
  0008e	74 70		 je	 SHORT $LN89@LoadFloat_@4
  00090	80 f2 ea	 xor	 dl, -22			; ffffffeaH
  00093	88 55 f3	 mov	 BYTE PTR __k$[ebp+7], dl
  00096	8a 50 08	 mov	 dl, BYTE PTR [eax+8]
  00099	84 d2		 test	 dl, dl
  0009b	74 5d		 je	 SHORT $LN88@LoadFloat_@4
  0009d	80 f2 ed	 xor	 dl, -19			; ffffffedH
  000a0	80 78 09 00	 cmp	 BYTE PTR [eax+9], 0
  000a4	88 55 f4	 mov	 BYTE PTR __k$[ebp+8], dl
  000a7	0f 84 81 00 00
	00		 je	 $LN1@LoadFloat_@4
  000ad	8a 50 0a	 mov	 dl, BYTE PTR [eax+10]
  000b0	84 d2		 test	 dl, dl
  000b2	74 40		 je	 SHORT $LN86@LoadFloat_@4
  000b4	80 f2 eb	 xor	 dl, -21			; ffffffebH
  000b7	88 55 f6	 mov	 BYTE PTR __k$[ebp+10], dl
  000ba	8a 50 0b	 mov	 dl, BYTE PTR [eax+11]
  000bd	84 d2		 test	 dl, dl
  000bf	74 2d		 je	 SHORT $LN85@LoadFloat_@4
  000c1	80 f2 ea	 xor	 dl, -22			; ffffffeaH
  000c4	88 55 f7	 mov	 BYTE PTR __k$[ebp+11], dl
  000c7	8a 50 0c	 mov	 dl, BYTE PTR [eax+12]
  000ca	84 d2		 test	 dl, dl
  000cc	74 1a		 je	 SHORT $LN84@LoadFloat_@4
  000ce	8a 40 0d	 mov	 al, BYTE PTR [eax+13]
  000d1	80 f2 ed	 xor	 dl, -19			; ffffffedH
  000d4	88 55 f8	 mov	 BYTE PTR __k$[ebp+12], dl
  000d7	84 c0		 test	 al, al
  000d9	74 07		 je	 SHORT $LN83@LoadFloat_@4
  000db	34 ec		 xor	 al, -20			; ffffffecH
  000dd	88 45 f9	 mov	 BYTE PTR __k$[ebp+13], al
  000e0	eb 4c		 jmp	 SHORT $LN1@LoadFloat_@4
$LN83@LoadFloat_@4:
  000e2	c6 45 f9 ec	 mov	 BYTE PTR __k$[ebp+13], -20 ; ffffffecH
  000e6	eb 46		 jmp	 SHORT $LN1@LoadFloat_@4
$LN84@LoadFloat_@4:
  000e8	c6 45 f8 ed	 mov	 BYTE PTR __k$[ebp+12], -19 ; ffffffedH
  000ec	eb 40		 jmp	 SHORT $LN1@LoadFloat_@4
$LN85@LoadFloat_@4:
  000ee	c6 45 f7 ea	 mov	 BYTE PTR __k$[ebp+11], -22 ; ffffffeaH
  000f2	eb 3a		 jmp	 SHORT $LN1@LoadFloat_@4
$LN86@LoadFloat_@4:
  000f4	c6 45 f6 eb	 mov	 BYTE PTR __k$[ebp+10], -21 ; ffffffebH
  000f8	eb 34		 jmp	 SHORT $LN1@LoadFloat_@4
$LN88@LoadFloat_@4:
  000fa	c6 45 f4 ed	 mov	 BYTE PTR __k$[ebp+8], -19 ; ffffffedH
  000fe	eb 2e		 jmp	 SHORT $LN1@LoadFloat_@4
$LN89@LoadFloat_@4:
  00100	c6 45 f3 ea	 mov	 BYTE PTR __k$[ebp+7], -22 ; ffffffeaH
  00104	eb 28		 jmp	 SHORT $LN1@LoadFloat_@4
$LN90@LoadFloat_@4:
  00106	c6 45 f2 eb	 mov	 BYTE PTR __k$[ebp+6], -21 ; ffffffebH
  0010a	eb 22		 jmp	 SHORT $LN1@LoadFloat_@4
$LN91@LoadFloat_@4:
  0010c	c6 45 f1 ec	 mov	 BYTE PTR __k$[ebp+5], -20 ; ffffffecH
  00110	eb 1c		 jmp	 SHORT $LN1@LoadFloat_@4
$LN92@LoadFloat_@4:
  00112	c6 45 f0 ed	 mov	 BYTE PTR __k$[ebp+4], -19 ; ffffffedH
  00116	eb 16		 jmp	 SHORT $LN1@LoadFloat_@4
$LN93@LoadFloat_@4:
  00118	c6 45 ef ea	 mov	 BYTE PTR __k$[ebp+3], -22 ; ffffffeaH
  0011c	eb 10		 jmp	 SHORT $LN1@LoadFloat_@4
$LN94@LoadFloat_@4:
  0011e	c6 45 ee eb	 mov	 BYTE PTR __k$[ebp+2], -21 ; ffffffebH
  00122	eb 0a		 jmp	 SHORT $LN1@LoadFloat_@4
$LN95@LoadFloat_@4:
  00124	c6 45 ed ec	 mov	 BYTE PTR __k$[ebp+1], -20 ; ffffffecH
  00128	eb 04		 jmp	 SHORT $LN1@LoadFloat_@4
$LN96@LoadFloat_@4:
  0012a	c6 45 ec ed	 mov	 BYTE PTR __k$[ebp], -19	; ffffffedH
$LN1@LoadFloat_@4:
  0012e	6a 02		 push	 2
  00130	8d 45 ec	 lea	 eax, DWORD PTR __k$[ebp]
  00133	c6 45 f5 00	 mov	 BYTE PTR __k$[ebp+9], 0
  00137	5a		 pop	 edx
$LL104@LoadFloat_@4:
  00138	81 30 ed ec eb
	ea		 xor	 DWORD PTR [eax], -353637139 ; eaebecedH
  0013e	83 c0 04	 add	 eax, 4
  00141	4a		 dec	 edx
  00142	75 f4		 jne	 SHORT $LL104@LoadFloat_@4

; 137  : 		return LoadFloat(_k, f);

  00144	f3 0f 10 45 0c	 movss	 xmm0, DWORD PTR _f$[ebp]
  00149	80 75 f4 ed	 xor	 BYTE PTR __k$[ebp+8], -19 ; ffffffedH
  0014d	51		 push	 ecx
  0014e	8d 45 ec	 lea	 eax, DWORD PTR __k$[ebp]
  00151	f3 0f 11 04 24	 movss	 DWORD PTR [esp], xmm0
  00156	50		 push	 eax
  00157	ff 15 00 00 00
	00		 call	 DWORD PTR __imp_?LoadFloat@ioINILoader@@QAEMPBDM@Z

; 138  : 	}

  0015d	8b 4d fc	 mov	 ecx, DWORD PTR __$ArrayPad$[ebp]
  00160	33 cd		 xor	 ecx, ebp
  00162	e8 00 00 00 00	 call	 @__security_check_cookie@4
  00167	c9		 leave
  00168	c2 08 00	 ret	 8
??$LoadFloat_e@$09@ioINILoader@@QAEMAAY09$$CBDM@Z ENDP	; ioINILoader::LoadFloat_e<10>
_TEXT	ENDS
PUBLIC	__$ArrayPad$
PUBLIC	??$LoadFloat_e@$0BH@@ioINILoader@@QAEMAAY0BH@$$CBDM@Z ; ioINILoader::LoadFloat_e<23>
; Function compile flags: /Ogsp
;	COMDAT ??$LoadFloat_e@$0BH@@ioINILoader@@QAEMAAY0BH@$$CBDM@Z
_TEXT	SEGMENT
__k$ = -32						; size = 23
__$ArrayPad$ = -4					; size = 4
_k$ = 8							; size = 4
_f$ = 12						; size = 4
??$LoadFloat_e@$0BH@@ioINILoader@@QAEMAAY0BH@$$CBDM@Z PROC ; ioINILoader::LoadFloat_e<23>, COMDAT
; _this$ = ecx

; 135  : 	{

  00000	55		 push	 ebp
  00001	8b ec		 mov	 ebp, esp
  00003	83 ec 20	 sub	 esp, 32			; 00000020H
  00006	a1 00 00 00 00	 mov	 eax, DWORD PTR ___security_cookie
  0000b	33 c5		 xor	 eax, ebp
  0000d	89 45 fc	 mov	 DWORD PTR __$ArrayPad$[ebp], eax
  00010	8b 45 08	 mov	 eax, DWORD PTR _k$[ebp]

; 136  : 		_ENCSTR(k, _k);

  00013	8a 10		 mov	 dl, BYTE PTR [eax]
  00015	53		 push	 ebx
  00016	56		 push	 esi
  00017	8b f1		 mov	 esi, ecx
  00019	84 d2		 test	 dl, dl
  0001b	0f 84 2d 02 00
	00		 je	 $LN96@LoadFloat_@5
  00021	80 f2 ed	 xor	 dl, -19			; ffffffedH
  00024	88 55 e0	 mov	 BYTE PTR __k$[ebp], dl
  00027	8a 50 01	 mov	 dl, BYTE PTR [eax+1]
  0002a	84 d2		 test	 dl, dl
  0002c	0f 84 16 02 00
	00		 je	 $LN95@LoadFloat_@5
  00032	b1 ec		 mov	 cl, -20			; ffffffecH
  00034	32 d1		 xor	 dl, cl
  00036	88 55 e1	 mov	 BYTE PTR __k$[ebp+1], dl
  00039	8a 50 02	 mov	 dl, BYTE PTR [eax+2]
  0003c	84 d2		 test	 dl, dl
  0003e	0f 84 fe 01 00
	00		 je	 $LN94@LoadFloat_@5
  00044	80 f2 eb	 xor	 dl, -21			; ffffffebH
  00047	88 55 e2	 mov	 BYTE PTR __k$[ebp+2], dl
  0004a	8a 50 03	 mov	 dl, BYTE PTR [eax+3]
  0004d	84 d2		 test	 dl, dl
  0004f	0f 84 e7 01 00
	00		 je	 $LN93@LoadFloat_@5
  00055	b3 ea		 mov	 bl, -22			; ffffffeaH
  00057	32 d3		 xor	 dl, bl
  00059	88 55 e3	 mov	 BYTE PTR __k$[ebp+3], dl
  0005c	8a 50 04	 mov	 dl, BYTE PTR [eax+4]
  0005f	84 d2		 test	 dl, dl
  00061	0f 84 cf 01 00
	00		 je	 $LN92@LoadFloat_@5
  00067	80 f2 ed	 xor	 dl, -19			; ffffffedH
  0006a	88 55 e4	 mov	 BYTE PTR __k$[ebp+4], dl
  0006d	8a 50 05	 mov	 dl, BYTE PTR [eax+5]
  00070	84 d2		 test	 dl, dl
  00072	0f 84 b9 01 00
	00		 je	 $LN91@LoadFloat_@5
  00078	32 d1		 xor	 dl, cl
  0007a	88 55 e5	 mov	 BYTE PTR __k$[ebp+5], dl
  0007d	8a 50 06	 mov	 dl, BYTE PTR [eax+6]
  00080	84 d2		 test	 dl, dl
  00082	0f 84 a3 01 00
	00		 je	 $LN90@LoadFloat_@5
  00088	80 f2 eb	 xor	 dl, -21			; ffffffebH
  0008b	88 55 e6	 mov	 BYTE PTR __k$[ebp+6], dl
  0008e	8a 50 07	 mov	 dl, BYTE PTR [eax+7]
  00091	84 d2		 test	 dl, dl
  00093	0f 84 8d 01 00
	00		 je	 $LN89@LoadFloat_@5
  00099	32 d3		 xor	 dl, bl
  0009b	88 55 e7	 mov	 BYTE PTR __k$[ebp+7], dl
  0009e	8a 50 08	 mov	 dl, BYTE PTR [eax+8]
  000a1	84 d2		 test	 dl, dl
  000a3	0f 84 77 01 00
	00		 je	 $LN88@LoadFloat_@5
