; Listing generated by Microsoft (R) Optimizing Compiler Version 16.00.30319.01 

	TITLE	D:\Lost Saga For Developer\Youtube\Tutorial\Source\src\LSClient\ioBrowserEvents.cpp
	.686P
	.XMM
	include listing.inc
	.model	flat

INCLUDELIB MSVCRT
INCLUDELIB OLDNAMES

PUBLIC	??_7ioBrowserEvents@@6B@			; ioBrowserEvents::`vftable'
PUBLIC	??1ioBrowserEvents@@UAE@XZ			; ioBrowserEvents::~ioBrowserEvents
PUBLIC	??_R4ioBrowserEvents@@6B@			; ioBrowserEvents::`RTTI Complete Object Locator'
PUBLIC	??_R0?AVioBrowserEvents@@@8			; ioBrowserEvents `RTTI Type Descriptor'
PUBLIC	??_R3ioBrowserEvents@@8				; ioBrowserEvents::`RTTI Class Hierarchy Descriptor'
PUBLIC	??_R2ioBrowserEvents@@8				; ioBrowserEvents::`RTTI Base Class Array'
PUBLIC	??_R1A@?0A@EA@ioBrowserEvents@@8		; ioBrowserEvents::`RTTI Base Class Descriptor at (0,-1,0,64)'
PUBLIC	??_R1A@?0A@EA@DWebBrowserEvents2@@8		; DWebBrowserEvents2::`RTTI Base Class Descriptor at (0,-1,0,64)'
PUBLIC	??_R0?AUDWebBrowserEvents2@@@8			; DWebBrowserEvents2 `RTTI Type Descriptor'
PUBLIC	??_R3DWebBrowserEvents2@@8			; DWebBrowserEvents2::`RTTI Class Hierarchy Descriptor'
PUBLIC	??_R2DWebBrowserEvents2@@8			; DWebBrowserEvents2::`RTTI Base Class Array'
PUBLIC	??_R1A@?0A@EA@IDispatch@@8			; IDispatch::`RTTI Base Class Descriptor at (0,-1,0,64)'
PUBLIC	??_R0?AUIDispatch@@@8				; IDispatch `RTTI Type Descriptor'
PUBLIC	??_R3IDispatch@@8				; IDispatch::`RTTI Class Hierarchy Descriptor'
PUBLIC	??_R2IDispatch@@8				; IDispatch::`RTTI Base Class Array'
PUBLIC	??_R1A@?0A@EA@IUnknown@@8			; IUnknown::`RTTI Base Class Descriptor at (0,-1,0,64)'
PUBLIC	??_R0?AUIUnknown@@@8				; IUnknown `RTTI Type Descriptor'
PUBLIC	??_R3IUnknown@@8				; IUnknown::`RTTI Class Hierarchy Descriptor'
PUBLIC	??_R2IUnknown@@8				; IUnknown::`RTTI Base Class Array'
PUBLIC	?QueryInterface@ioBrowserEvents@@UAGJABU_GUID@@PAPAX@Z ; ioBrowserEvents::QueryInterface
PUBLIC	?AddRef@ioBrowserEvents@@UAGKXZ			; ioBrowserEvents::AddRef
PUBLIC	?Release@ioBrowserEvents@@UAGKXZ		; ioBrowserEvents::Release
PUBLIC	?GetTypeInfoCount@ioBrowserEvents@@UAGJPAI@Z	; ioBrowserEvents::GetTypeInfoCount
PUBLIC	?GetTypeInfo@ioBrowserEvents@@UAGJIKPAPAUITypeInfo@@@Z ; ioBrowserEvents::GetTypeInfo
PUBLIC	?GetIDsOfNames@ioBrowserEvents@@UAGJABU_GUID@@PAPA_WIKPAJ@Z ; ioBrowserEvents::GetIDsOfNames
PUBLIC	?Invoke@ioBrowserEvents@@UAGJJABU_GUID@@KGPAUtagDISPPARAMS@@PAUtagVARIANT@@PAUtagEXCEPINFO@@PAI@Z ; ioBrowserEvents::Invoke
EXTRN	??_7type_info@@6B@:QWORD			; type_info::`vftable'
EXTRN	??_EioBrowserEvents@@UAEPAXI@Z:PROC		; ioBrowserEvents::`vector deleting destructor'
;	COMDAT ??_R2IUnknown@@8
; File d:\lost saga for developer\youtube\tutorial\source\src\lsclient\iobrowserevents.cpp
rdata$r	SEGMENT
??_R2IUnknown@@8 DD FLAT:??_R1A@?0A@EA@IUnknown@@8	; IUnknown::`RTTI Base Class Array'
rdata$r	ENDS
;	COMDAT ??_R3IUnknown@@8
rdata$r	SEGMENT
??_R3IUnknown@@8 DD 00H					; IUnknown::`RTTI Class Hierarchy Descriptor'
	DD	00H
	DD	01H
	DD	FLAT:??_R2IUnknown@@8
rdata$r	ENDS
;	COMDAT ??_R0?AUIUnknown@@@8
_DATA	SEGMENT
??_R0?AUIUnknown@@@8 DD FLAT:??_7type_info@@6B@		; IUnknown `RTTI Type Descriptor'
	DD	00H
	DB	'.?AUIUnknown@@', 00H
_DATA	ENDS
;	COMDAT ??_R1A@?0A@EA@IUnknown@@8
rdata$r	SEGMENT
??_R1A@?0A@EA@IUnknown@@8 DD FLAT:??_R0?AUIUnknown@@@8	; IUnknown::`RTTI Base Class Descriptor at (0,-1,0,64)'
	DD	00H
	DD	00H
	DD	0ffffffffH
	DD	00H
	DD	040H
	DD	FLAT:??_R3IUnknown@@8
rdata$r	ENDS
;	COMDAT ??_R2IDispatch@@8
rdata$r	SEGMENT
??_R2IDispatch@@8 DD FLAT:??_R1A@?0A@EA@IDispatch@@8	; IDispatch::`RTTI Base Class Array'
	DD	FLAT:??_R1A@?0A@EA@IUnknown@@8
rdata$r	ENDS
;	COMDAT ??_R3IDispatch@@8
rdata$r	SEGMENT
??_R3IDispatch@@8 DD 00H				; IDispatch::`RTTI Class Hierarchy Descriptor'
	DD	00H
	DD	02H
	DD	FLAT:??_R2IDispatch@@8
rdata$r	ENDS
;	COMDAT ??_R0?AUIDispatch@@@8
_DATA	SEGMENT
??_R0?AUIDispatch@@@8 DD FLAT:??_7type_info@@6B@	; IDispatch `RTTI Type Descriptor'
	DD	00H
	DB	'.?AUIDispatch@@', 00H
_DATA	ENDS
;	COMDAT ??_R1A@?0A@EA@IDispatch@@8
rdata$r	SEGMENT
??_R1A@?0A@EA@IDispatch@@8 DD FLAT:??_R0?AUIDispatch@@@8 ; IDispatch::`RTTI Base Class Descriptor at (0,-1,0,64)'
	DD	01H
	DD	00H
	DD	0ffffffffH
	DD	00H
	DD	040H
	DD	FLAT:??_R3IDispatch@@8
rdata$r	ENDS
;	COMDAT ??_R2DWebBrowserEvents2@@8
rdata$r	SEGMENT
??_R2DWebBrowserEvents2@@8 DD FLAT:??_R1A@?0A@EA@DWebBrowserEvents2@@8 ; DWebBrowserEvents2::`RTTI Base Class Array'
	DD	FLAT:??_R1A@?0A@EA@IDispatch@@8
	DD	FLAT:??_R1A@?0A@EA@IUnknown@@8
rdata$r	ENDS
;	COMDAT ??_R3DWebBrowserEvents2@@8
rdata$r	SEGMENT
??_R3DWebBrowserEvents2@@8 DD 00H			; DWebBrowserEvents2::`RTTI Class Hierarchy Descriptor'
	DD	00H
	DD	03H
	DD	FLAT:??_R2DWebBrowserEvents2@@8
rdata$r	ENDS
;	COMDAT ??_R0?AUDWebBrowserEvents2@@@8
_DATA	SEGMENT
??_R0?AUDWebBrowserEvents2@@@8 DD FLAT:??_7type_info@@6B@ ; DWebBrowserEvents2 `RTTI Type Descriptor'
	DD	00H
	DB	'.?AUDWebBrowserEvents2@@', 00H
_DATA	ENDS
;	COMDAT ??_R1A@?0A@EA@DWebBrowserEvents2@@8
rdata$r	SEGMENT
??_R1A@?0A@EA@DWebBrowserEvents2@@8 DD FLAT:??_R0?AUDWebBrowserEvents2@@@8 ; DWebBrowserEvents2::`RTTI Base Class Descriptor at (0,-1,0,64)'
	DD	02H
	DD	00H
	DD	0ffffffffH
	DD	00H
	DD	040H
	DD	FLAT:??_R3DWebBrowserEvents2@@8
rdata$r	ENDS
;	COMDAT ??_R1A@?0A@EA@ioBrowserEvents@@8
rdata$r	SEGMENT
??_R1A@?0A@EA@ioBrowserEvents@@8 DD FLAT:??_R0?AVioBrowserEvents@@@8 ; ioBrowserEvents::`RTTI Base Class Descriptor at (0,-1,0,64)'
	DD	03H
	DD	00H
	DD	0ffffffffH
	DD	00H
	DD	040H
	DD	FLAT:??_R3ioBrowserEvents@@8
rdata$r	ENDS
;	COMDAT ??_R2ioBrowserEvents@@8
rdata$r	SEGMENT
??_R2ioBrowserEvents@@8 DD FLAT:??_R1A@?0A@EA@ioBrowserEvents@@8 ; ioBrowserEvents::`RTTI Base Class Array'
	DD	FLAT:??_R1A@?0A@EA@DWebBrowserEvents2@@8
	DD	FLAT:??_R1A@?0A@EA@IDispatch@@8
	DD	FLAT:??_R1A@?0A@EA@IUnknown@@8
rdata$r	ENDS
;	COMDAT ??_R3ioBrowserEvents@@8
rdata$r	SEGMENT
??_R3ioBrowserEvents@@8 DD 00H				; ioBrowserEvents::`RTTI Class Hierarchy Descriptor'
	DD	00H
	DD	04H
	DD	FLAT:??_R2ioBrowserEvents@@8
rdata$r	ENDS
;	COMDAT ??_R0?AVioBrowserEvents@@@8
_DATA	SEGMENT
??_R0?AVioBrowserEvents@@@8 DD FLAT:??_7type_info@@6B@	; ioBrowserEvents `RTTI Type Descriptor'
	DD	00H
	DB	'.?AVioBrowserEvents@@', 00H
_DATA	ENDS
;	COMDAT ??_R4ioBrowserEvents@@6B@
rdata$r	SEGMENT
??_R4ioBrowserEvents@@6B@ DD 00H			; ioBrowserEvents::`RTTI Complete Object Locator'
	DD	00H
	DD	00H
	DD	FLAT:??_R0?AVioBrowserEvents@@@8
	DD	FLAT:??_R3ioBrowserEvents@@8
rdata$r	ENDS
;	COMDAT ??_7ioBrowserEvents@@6B@
CONST	SEGMENT
??_7ioBrowserEvents@@6B@ DD FLAT:??_R4ioBrowserEvents@@6B@ ; ioBrowserEvents::`vftable'
	DD	FLAT:?QueryInterface@ioBrowserEvents@@UAGJABU_GUID@@PAPAX@Z
	DD	FLAT:?AddRef@ioBrowserEvents@@UAGKXZ
	DD	FLAT:?Release@ioBrowserEvents@@UAGKXZ
	DD	FLAT:?GetTypeInfoCount@ioBrowserEvents@@UAGJPAI@Z
	DD	FLAT:?GetTypeInfo@ioBrowserEvents@@UAGJIKPAPAUITypeInfo@@@Z
	DD	FLAT:?GetIDsOfNames@ioBrowserEvents@@UAGJABU_GUID@@PAPA_WIKPAJ@Z
	DD	FLAT:?Invoke@ioBrowserEvents@@UAGJJABU_GUID@@KGPAUtagDISPPARAMS@@PAUtagVARIANT@@PAUtagEXCEPINFO@@PAI@Z
	DD	FLAT:??_EioBrowserEvents@@UAEPAXI@Z
; Function compile flags: /Ogsp
CONST	ENDS
;	COMDAT ??1ioBrowserEvents@@UAE@XZ
_TEXT	SEGMENT
??1ioBrowserEvents@@UAE@XZ PROC				; ioBrowserEvents::~ioBrowserEvents, COMDAT
; _this$ = ecx

; 18   : 	m_pBrowser = NULL;

  00000	83 61 04 00	 and	 DWORD PTR [ecx+4], 0
  00004	c7 01 00 00 00
	00		 mov	 DWORD PTR [ecx], OFFSET ??_7ioBrowserEvents@@6B@

; 19   : }

  0000a	c3		 ret	 0
??1ioBrowserEvents@@UAE@XZ ENDP				; ioBrowserEvents::~ioBrowserEvents
; Function compile flags: /Ogsp
_TEXT	ENDS
;	COMDAT ?AddRef@ioBrowserEvents@@UAGKXZ
_TEXT	SEGMENT
_this$ = 8						; size = 4
?AddRef@ioBrowserEvents@@UAGKXZ PROC			; ioBrowserEvents::AddRef, COMDAT

; 23   : 	return 1;

  00000	33 c0		 xor	 eax, eax
  00002	40		 inc	 eax

; 24   : }

  00003	c2 04 00	 ret	 4
?AddRef@ioBrowserEvents@@UAGKXZ ENDP			; ioBrowserEvents::AddRef
; Function compile flags: /Ogsp
_TEXT	ENDS
;	COMDAT ?Release@ioBrowserEvents@@UAGKXZ
_TEXT	SEGMENT
_this$ = 8						; size = 4
?Release@ioBrowserEvents@@UAGKXZ PROC			; ioBrowserEvents::Release, COMDAT

; 28   : 	return 0;

  00000	33 c0		 xor	 eax, eax

; 29   : }

  00002	c2 04 00	 ret	 4
?Release@ioBrowserEvents@@UAGKXZ ENDP			; ioBrowserEvents::Release
; Function compile flags: /Ogsp
_TEXT	ENDS
;	COMDAT ?GetTypeInfoCount@ioBrowserEvents@@UAGJPAI@Z
_TEXT	SEGMENT
_this$ = 8						; size = 4
_pctinfo$ = 12						; size = 4
?GetTypeInfoCount@ioBrowserEvents@@UAGJPAI@Z PROC	; ioBrowserEvents::GetTypeInfoCount, COMDAT

; 56   : 	return E_NOTIMPL;

  00000	b8 01 40 00 80	 mov	 eax, -2147467263	; 80004001H

; 57   : }

  00005	c2 08 00	 ret	 8
?GetTypeInfoCount@ioBrowserEvents@@UAGJPAI@Z ENDP	; ioBrowserEvents::GetTypeInfoCount
; Function compile flags: /Ogsp
_TEXT	ENDS
;	COMDAT ?GetTypeInfo@ioBrowserEvents@@UAGJIKPAPAUITypeInfo@@@Z
_TEXT	SEGMENT
_this$ = 8						; size = 4
___formal$ = 12						; size = 4
___formal$ = 16						; size = 4
___formal$ = 20						; size = 4
?GetTypeInfo@ioBrowserEvents@@UAGJIKPAPAUITypeInfo@@@Z PROC ; ioBrowserEvents::GetTypeInfo, COMDAT

; 61   : 	return E_NOTIMPL;

  00000	b8 01 40 00 80	 mov	 eax, -2147467263	; 80004001H

; 62   : }

  00005	c2 10 00	 ret	 16			; 00000010H
?GetTypeInfo@ioBrowserEvents@@UAGJIKPAPAUITypeInfo@@@Z ENDP ; ioBrowserEvents::GetTypeInfo
; Function compile flags: /Ogsp
_TEXT	ENDS
;	COMDAT ?GetIDsOfNames@ioBrowserEvents@@UAGJABU_GUID@@PAPA_WIKPAJ@Z
_TEXT	SEGMENT
_this$ = 8						; size = 4
___formal$ = 12						; size = 4
___formal$ = 16						; size = 4
___formal$ = 20						; size = 4
___formal$ = 24						; size = 4
___formal$ = 28						; size = 4
?GetIDsOfNames@ioBrowserEvents@@UAGJABU_GUID@@PAPA_WIKPAJ@Z PROC ; ioBrowserEvents::GetIDsOfNames, COMDAT

; 66   : 	return E_NOTIMPL;

  00000	b8 01 40 00 80	 mov	 eax, -2147467263	; 80004001H

; 67   : }

  00005	c2 18 00	 ret	 24			; 00000018H
?GetIDsOfNames@ioBrowserEvents@@UAGJABU_GUID@@PAPA_WIKPAJ@Z ENDP ; ioBrowserEvents::GetIDsOfNames
_TEXT	ENDS
PUBLIC	__real@40c00000
PUBLIC	__real@40a00000
PUBLIC	__real@40000000
PUBLIC	__real@3f800000
PUBLIC	__real@41400000
PUBLIC	__real@41300000
PUBLIC	__real@40800000
PUBLIC	__real@40400000
PUBLIC	__real@41200000
PUBLIC	__real@41100000
PUBLIC	__real@41600000
PUBLIC	__real@41500000
PUBLIC	__real@41000000
PUBLIC	__real@45dac000
PUBLIC	__real@40e00000
EXTRN	?OnTitleChange@ioWebBrowser@@QAEXPA_W@Z:PROC	; ioWebBrowser::OnTitleChange
EXTRN	?OnBeforeNavigate2@ioWebBrowser@@QAEXPAUIDispatch@@PAUtagVARIANT@@1111PAF@Z:PROC ; ioWebBrowser::OnBeforeNavigate2
EXTRN	?OnNewWindow@ioWebBrowser@@QAEXPAPAUIDispatch@@PAF@Z:PROC ; ioWebBrowser::OnNewWindow
EXTRN	?OnNavigateComplete2@ioWebBrowser@@QAEXPAUIDispatch@@PAUtagVARIANT@@@Z:PROC ; ioWebBrowser::OnNavigateComplete2
EXTRN	?OnDocumentComplete@ioWebBrowser@@QAEXPAUIDispatch@@PAUtagVARIANT@@@Z:PROC ; ioWebBrowser::OnDocumentComplete
EXTRN	?OnWindowClosing@ioWebBrowser@@QAEXFPAF@Z:PROC	; ioWebBrowser::OnWindowClosing
EXTRN	?OnClientToHostWindow@ioWebBrowser@@QAEXPAJ0@Z:PROC ; ioWebBrowser::OnClientToHostWindow
EXTRN	__imp_?SetPosition@ErrorReport@@YAXMM@Z:PROC
EXTRN	__fltused:DWORD
;	COMDAT __real@40c00000
CONST	SEGMENT
__real@40c00000 DD 040c00000r			; 6
CONST	ENDS
;	COMDAT __real@40a00000
CONST	SEGMENT
__real@40a00000 DD 040a00000r			; 5
CONST	ENDS
;	COMDAT __real@40000000
CONST	SEGMENT
__real@40000000 DD 040000000r			; 2
CONST	ENDS
;	COMDAT __real@3f800000
CONST	SEGMENT
__real@3f800000 DD 03f800000r			; 1
CONST	ENDS
;	COMDAT __real@41400000
CONST	SEGMENT
__real@41400000 DD 041400000r			; 12
CONST	ENDS
;	COMDAT __real@41300000
CONST	SEGMENT
__real@41300000 DD 041300000r			; 11
CONST	ENDS
;	COMDAT __real@40800000
CONST	SEGMENT
__real@40800000 DD 040800000r			; 4
CONST	ENDS
;	COMDAT __real@40400000
CONST	SEGMENT
__real@40400000 DD 040400000r			; 3
CONST	ENDS
;	COMDAT __real@41200000
CONST	SEGMENT
__real@41200000 DD 041200000r			; 10
CONST	ENDS
;	COMDAT __real@41100000
CONST	SEGMENT
__real@41100000 DD 041100000r			; 9
CONST	ENDS
;	COMDAT __real@41600000
CONST	SEGMENT
__real@41600000 DD 041600000r			; 14
CONST	ENDS
;	COMDAT __real@41500000
CONST	SEGMENT
__real@41500000 DD 041500000r			; 13
CONST	ENDS
;	COMDAT __real@41000000
CONST	SEGMENT
__real@41000000 DD 041000000r			; 8
CONST	ENDS
;	COMDAT __real@45dac000
CONST	SEGMENT
__real@45dac000 DD 045dac000r			; 7000
CONST	ENDS
;	COMDAT __real@40e00000
CONST	SEGMENT
__real@40e00000 DD 040e00000r			; 7
; Function compile flags: /Ogsp
CONST	ENDS
;	COMDAT ?Invoke@ioBrowserEvents@@UAGJJABU_GUID@@KGPAUtagDISPPARAMS@@PAUtagVARIANT@@PAUtagEXCEPINFO@@PAI@Z
_TEXT	SEGMENT
_this$ = 8						; size = 4
_dispIdMember$ = 12					; size = 4
_riid$ = 16						; size = 4
_lcid$ = 20						; size = 4
_wFlags$ = 24						; size = 2
_pDispParams$ = 28					; size = 4
_pVarResult$ = 32					; size = 4
_pExcepInfo$ = 36					; size = 4
_puArgErr$ = 40						; size = 4
?Invoke@ioBrowserEvents@@UAGJJABU_GUID@@KGPAUtagDISPPARAMS@@PAUtagVARIANT@@PAUtagEXCEPINFO@@PAI@Z PROC ; ioBrowserEvents::Invoke, COMDAT

; 77   : {

  00000	55		 push	 ebp
  00001	8b ec		 mov	 ebp, esp
  00003	56		 push	 esi

; 78   : 	if( !m_pBrowser )

  00004	8b 75 08	 mov	 esi, DWORD PTR _this$[ebp]
  00007	83 7e 04 00	 cmp	 DWORD PTR [esi+4], 0
  0000b	75 08		 jne	 SHORT $LN12@Invoke

; 79   : 		return S_FALSE;

  0000d	33 c0		 xor	 eax, eax
  0000f	40		 inc	 eax
  00010	e9 4c 02 00 00	 jmp	 $LN13@Invoke
$LN12@Invoke:
  00015	57		 push	 edi

; 80   : 	if( !pDispParams )

  00016	8b 7d 1c	 mov	 edi, DWORD PTR _pDispParams$[ebp]
  00019	85 ff		 test	 edi, edi
  0001b	75 08		 jne	 SHORT $LN11@Invoke

; 81   : 		return S_FALSE;

  0001d	33 c0		 xor	 eax, eax
  0001f	40		 inc	 eax
  00020	e9 3b 02 00 00	 jmp	 $LN15@Invoke
$LN11@Invoke:

; 82   : 
; 83   : 	switch( dispIdMember )

  00025	8b 45 0c	 mov	 eax, DWORD PTR _dispIdMember$[ebp]
  00028	83 e8 71	 sub	 eax, 113		; 00000071H
  0002b	53		 push	 ebx
  0002c	0f 84 d6 01 00
	00		 je	 $LN6@Invoke
  00032	2d 89 00 00 00	 sub	 eax, 137		; 00000089H
  00037	0f 84 7b 01 00
	00		 je	 $LN8@Invoke
  0003d	48		 dec	 eax
  0003e	0f 84 30 01 00
	00		 je	 $LN3@Invoke
  00044	48		 dec	 eax
  00045	0f 84 e5 00 00
	00		 je	 $LN7@Invoke
  0004b	83 e8 07	 sub	 eax, 7
  0004e	0f 84 98 00 00
	00		 je	 $LN4@Invoke
  00054	83 e8 04	 sub	 eax, 4
  00057	74 4d		 je	 SHORT $LN2@Invoke
  00059	83 e8 05	 sub	 eax, 5
  0005c	0f 85 fb 01 00
	00		 jne	 $LN9@Invoke

; 105  : 		break;
; 106  : 	case DISPID_CLIENTTOHOSTWINDOW:
; 107  : 		ErrorReport::SetPosition( 7000, 7 );

  00062	f3 0f 10 05 00
	00 00 00	 movss	 xmm0, DWORD PTR __real@40e00000
  0006a	8b 1d 00 00 00
	00		 mov	 ebx, DWORD PTR __imp_?SetPosition@ErrorReport@@YAXMM@Z
  00070	51		 push	 ecx
  00071	51		 push	 ecx
  00072	f3 0f 11 44 24
	04		 movss	 DWORD PTR [esp+4], xmm0
  00078	f3 0f 10 05 00
	00 00 00	 movss	 xmm0, DWORD PTR __real@45dac000
  00080	f3 0f 11 04 24	 movss	 DWORD PTR [esp], xmm0
  00085	ff d3		 call	 ebx

; 108  : 		m_pBrowser->OnClientToHostWindow(pDispParams->rgvarg[1].plVal, pDispParams->rgvarg[0].plVal);

  00087	8b 3f		 mov	 edi, DWORD PTR [edi]
  00089	59		 pop	 ecx
  0008a	59		 pop	 ecx
  0008b	ff 77 08	 push	 DWORD PTR [edi+8]
  0008e	8b 4e 04	 mov	 ecx, DWORD PTR [esi+4]
  00091	ff 77 18	 push	 DWORD PTR [edi+24]
  00094	e8 00 00 00 00	 call	 ?OnClientToHostWindow@ioWebBrowser@@QAEXPAJ0@Z ; ioWebBrowser::OnClientToHostWindow

; 109  : 		ErrorReport::SetPosition( 7000, 8 );

  00099	f3 0f 10 05 00
	00 00 00	 movss	 xmm0, DWORD PTR __real@41000000

; 110  : 		break;

  000a1	e9 9e 01 00 00	 jmp	 $LN16@Invoke
$LN2@Invoke:

; 121  : 	case DISPID_WINDOWCLOSING:
; 122  : 		ErrorReport::SetPosition( 7000, 13 );

  000a6	f3 0f 10 05 00
	00 00 00	 movss	 xmm0, DWORD PTR __real@41500000
  000ae	8b 1d 00 00 00
	00		 mov	 ebx, DWORD PTR __imp_?SetPosition@ErrorReport@@YAXMM@Z
  000b4	51		 push	 ecx
  000b5	51		 push	 ecx
  000b6	f3 0f 11 44 24
	04		 movss	 DWORD PTR [esp+4], xmm0
  000bc	f3 0f 10 05 00
	00 00 00	 movss	 xmm0, DWORD PTR __real@45dac000
  000c4	f3 0f 11 04 24	 movss	 DWORD PTR [esp], xmm0
  000c9	ff d3		 call	 ebx

; 123  : 		m_pBrowser->OnWindowClosing( pDispParams->rgvarg[1].boolVal, pDispParams->rgvarg[0].pboolVal );

  000cb	8b 3f		 mov	 edi, DWORD PTR [edi]
  000cd	0f b7 47 18	 movzx	 eax, WORD PTR [edi+24]
  000d1	59		 pop	 ecx
  000d2	59		 pop	 ecx
  000d3	ff 77 08	 push	 DWORD PTR [edi+8]
  000d6	8b 4e 04	 mov	 ecx, DWORD PTR [esi+4]
  000d9	50		 push	 eax
  000da	e8 00 00 00 00	 call	 ?OnWindowClosing@ioWebBrowser@@QAEXFPAF@Z ; ioWebBrowser::OnWindowClosing

; 124  : 		ErrorReport::SetPosition( 7000, 14 );

  000df	f3 0f 10 05 00
	00 00 00	 movss	 xmm0, DWORD PTR __real@41600000

; 125  : 		break;

  000e7	e9 58 01 00 00	 jmp	 $LN16@Invoke
$LN4@Invoke:

; 111  : 	case DISPID_DOCUMENTCOMPLETE:
; 112  : 		ErrorReport::SetPosition( 7000, 9 );

  000ec	f3 0f 10 05 00
	00 00 00	 movss	 xmm0, DWORD PTR __real@41100000
  000f4	8b 1d 00 00 00
	00		 mov	 ebx, DWORD PTR __imp_?SetPosition@ErrorReport@@YAXMM@Z
  000fa	51		 push	 ecx
  000fb	51		 push	 ecx
  000fc	f3 0f 11 44 24
	04		 movss	 DWORD PTR [esp+4], xmm0
  00102	f3 0f 10 05 00
	00 00 00	 movss	 xmm0, DWORD PTR __real@45dac000
  0010a	f3 0f 11 04 24	 movss	 DWORD PTR [esp], xmm0
  0010f	ff d3		 call	 ebx

; 113  : 		m_pBrowser->OnDocumentComplete(pDispParams->rgvarg[1].pdispVal, pDispParams->rgvarg[0].pvarVal);

  00111	8b 3f		 mov	 edi, DWORD PTR [edi]
  00113	59		 pop	 ecx
  00114	59		 pop	 ecx
  00115	ff 77 08	 push	 DWORD PTR [edi+8]
  00118	8b 4e 04	 mov	 ecx, DWORD PTR [esi+4]
  0011b	ff 77 18	 push	 DWORD PTR [edi+24]
  0011e	e8 00 00 00 00	 call	 ?OnDocumentComplete@ioWebBrowser@@QAEXPAUIDispatch@@PAUtagVARIANT@@@Z ; ioWebBrowser::OnDocumentComplete

; 114  : 		ErrorReport::SetPosition( 7000, 10 );

  00123	f3 0f 10 05 00
	00 00 00	 movss	 xmm0, DWORD PTR __real@41200000

; 115  : 		break;

  0012b	e9 14 01 00 00	 jmp	 $LN16@Invoke
$LN7@Invoke:

; 96   : 	case DISPID_NAVIGATECOMPLETE2:
; 97   : 		ErrorReport::SetPosition( 7000, 3 );

  00130	f3 0f 10 05 00
	00 00 00	 movss	 xmm0, DWORD PTR __real@40400000
  00138	8b 1d 00 00 00
	00		 mov	 ebx, DWORD PTR __imp_?SetPosition@ErrorReport@@YAXMM@Z
  0013e	51		 push	 ecx
  0013f	51		 push	 ecx
  00140	f3 0f 11 44 24
	04		 movss	 DWORD PTR [esp+4], xmm0
  00146	f3 0f 10 05 00
	00 00 00	 movss	 xmm0, DWORD PTR __real@45dac000
  0014e	f3 0f 11 04 24	 movss	 DWORD PTR [esp], xmm0
  00153	ff d3		 call	 ebx

; 98   : 		m_pBrowser->OnNavigateComplete2(pDispParams->rgvarg[1].pdispVal, pDispParams->rgvarg[0].pvarVal);

  00155	8b 3f		 mov	 edi, DWORD PTR [edi]
  00157	59		 pop	 ecx
  00158	59		 pop	 ecx
  00159	ff 77 08	 push	 DWORD PTR [edi+8]
  0015c	8b 4e 04	 mov	 ecx, DWORD PTR [esi+4]
  0015f	ff 77 18	 push	 DWORD PTR [edi+24]
  00162	e8 00 00 00 00	 call	 ?OnNavigateComplete2@ioWebBrowser@@QAEXPAUIDispatch@@PAUtagVARIANT@@@Z ; ioWebBrowser::OnNavigateComplete2

; 99   : 		ErrorReport::SetPosition( 7000, 4 );

  00167	f3 0f 10 05 00
	00 00 00	 movss	 xmm0, DWORD PTR __real@40800000

; 100  : 		break;

  0016f	e9 d0 00 00 00	 jmp	 $LN16@Invoke
$LN3@Invoke:

; 116  : 	case DISPID_NEWWINDOW2:
; 117  : 		ErrorReport::SetPosition( 7000, 11 );

  00174	f3 0f 10 05 00
	00 00 00	 movss	 xmm0, DWORD PTR __real@41300000
  0017c	8b 1d 00 00 00
	00		 mov	 ebx, DWORD PTR __imp_?SetPosition@ErrorReport@@YAXMM@Z
  00182	51		 push	 ecx
  00183	51		 push	 ecx
  00184	f3 0f 11 44 24
	04		 movss	 DWORD PTR [esp+4], xmm0
  0018a	f3 0f 10 05 00
	00 00 00	 movss	 xmm0, DWORD PTR __real@45dac000
  00192	f3 0f 11 04 24	 movss	 DWORD PTR [esp], xmm0
  00197	ff d3		 call	 ebx

; 118  : 		m_pBrowser->OnNewWindow( pDispParams->rgvarg[1].ppdispVal, pDispParams->rgvarg[0].pboolVal );

  00199	8b 3f		 mov	 edi, DWORD PTR [edi]
  0019b	59		 pop	 ecx
  0019c	59		 pop	 ecx
  0019d	ff 77 08	 push	 DWORD PTR [edi+8]
  001a0	8b 4e 04	 mov	 ecx, DWORD PTR [esi+4]
  001a3	ff 77 18	 push	 DWORD PTR [edi+24]
  001a6	e8 00 00 00 00	 call	 ?OnNewWindow@ioWebBrowser@@QAEXPAPAUIDispatch@@PAF@Z ; ioWebBrowser::OnNewWindow

; 119  : 		ErrorReport::SetPosition( 7000, 12 );

  001ab	f3 0f 10 05 00
	00 00 00	 movss	 xmm0, DWORD PTR __real@41400000

; 120  : 		break;

  001b3	e9 8c 00 00 00	 jmp	 $LN16@Invoke
$LN8@Invoke:

; 84   : 	{
; 85   : 	case DISPID_BEFORENAVIGATE2:
; 86   : 		ErrorReport::SetPosition( 7000, 1 );

  001b8	f3 0f 10 05 00
	00 00 00	 movss	 xmm0, DWORD PTR __real@3f800000
  001c0	8b 1d 00 00 00
	00		 mov	 ebx, DWORD PTR __imp_?SetPosition@ErrorReport@@YAXMM@Z
  001c6	51		 push	 ecx
  001c7	51		 push	 ecx
  001c8	f3 0f 11 44 24
	04		 movss	 DWORD PTR [esp+4], xmm0
  001ce	f3 0f 10 05 00
	00 00 00	 movss	 xmm0, DWORD PTR __real@45dac000
  001d6	f3 0f 11 04 24	 movss	 DWORD PTR [esp], xmm0
  001db	ff d3		 call	 ebx

; 87   : 		m_pBrowser->OnBeforeNavigate2( pDispParams->rgvarg[6].pdispVal,    // pDisp
; 88   : 									   pDispParams->rgvarg[5].pvarVal,     // url
; 89   : 									   pDispParams->rgvarg[4].pvarVal,     // Flags
; 90   : 									   pDispParams->rgvarg[3].pvarVal,     // TargetFrameName
; 91   : 									   pDispParams->rgvarg[2].pvarVal,     // PostData
; 92   : 									   pDispParams->rgvarg[1].pvarVal,     // Headers
; 93   : 									   pDispParams->rgvarg[0].pboolVal );  // Cancel

  001dd	8b 07		 mov	 eax, DWORD PTR [edi]
  001df	59		 pop	 ecx
  001e0	59		 pop	 ecx
  001e1	ff 70 08	 push	 DWORD PTR [eax+8]
  001e4	8b 4e 04	 mov	 ecx, DWORD PTR [esi+4]
  001e7	ff 70 18	 push	 DWORD PTR [eax+24]
  001ea	ff 70 28	 push	 DWORD PTR [eax+40]
  001ed	ff 70 38	 push	 DWORD PTR [eax+56]
  001f0	ff 70 48	 push	 DWORD PTR [eax+72]
  001f3	ff 70 58	 push	 DWORD PTR [eax+88]
  001f6	ff 70 68	 push	 DWORD PTR [eax+104]
  001f9	e8 00 00 00 00	 call	 ?OnBeforeNavigate2@ioWebBrowser@@QAEXPAUIDispatch@@PAUtagVARIANT@@1111PAF@Z ; ioWebBrowser::OnBeforeNavigate2

; 94   : 		ErrorReport::SetPosition( 7000, 2 );

  001fe	f3 0f 10 05 00
	00 00 00	 movss	 xmm0, DWORD PTR __real@40000000

; 95   : 		break;

  00206	eb 3c		 jmp	 SHORT $LN16@Invoke
$LN6@Invoke:

; 101  : 	case DISPID_TITLECHANGE:
; 102  : 		ErrorReport::SetPosition( 7000, 5 );

  00208	f3 0f 10 05 00
	00 00 00	 movss	 xmm0, DWORD PTR __real@40a00000
  00210	8b 1d 00 00 00
	00		 mov	 ebx, DWORD PTR __imp_?SetPosition@ErrorReport@@YAXMM@Z
  00216	51		 push	 ecx
  00217	51		 push	 ecx
  00218	f3 0f 11 44 24
	04		 movss	 DWORD PTR [esp+4], xmm0
  0021e	f3 0f 10 05 00
	00 00 00	 movss	 xmm0, DWORD PTR __real@45dac000
  00226	f3 0f 11 04 24	 movss	 DWORD PTR [esp], xmm0
  0022b	ff d3		 call	 ebx

; 103  : 		m_pBrowser->OnTitleChange( pDispParams->rgvarg[0].bstrVal );

  0022d	8b 07		 mov	 eax, DWORD PTR [edi]
  0022f	59		 pop	 ecx
  00230	59		 pop	 ecx
  00231	ff 70 08	 push	 DWORD PTR [eax+8]
  00234	8b 4e 04	 mov	 ecx, DWORD PTR [esi+4]
  00237	e8 00 00 00 00	 call	 ?OnTitleChange@ioWebBrowser@@QAEXPA_W@Z ; ioWebBrowser::OnTitleChange

; 104  : 		ErrorReport::SetPosition( 7000, 6 );

  0023c	f3 0f 10 05 00
	00 00 00	 movss	 xmm0, DWORD PTR __real@40c00000
$LN16@Invoke:
  00244	51		 push	 ecx
  00245	51		 push	 ecx
  00246	f3 0f 11 44 24
	04		 movss	 DWORD PTR [esp+4], xmm0
  0024c	f3 0f 10 05 00
	00 00 00	 movss	 xmm0, DWORD PTR __real@45dac000
  00254	f3 0f 11 04 24	 movss	 DWORD PTR [esp], xmm0
  00259	ff d3		 call	 ebx
  0025b	59		 pop	 ecx
  0025c	59		 pop	 ecx
$LN9@Invoke:

; 126  : 	case DISPID_ONQUIT:
; 127  : 	case DISPID_COMMANDSTATECHANGE:
; 128  : 	case DISPID_DOWNLOADBEGIN:
; 129  : 	case DISPID_DOWNLOADCOMPLETE:
; 130  : 	case DISPID_FILEDOWNLOAD:
; 131  : 	case DISPID_NAVIGATEERROR:
; 132  : 		break;
; 133  : 	}
; 134  : 
; 135  : 	return S_OK;

  0025d	33 c0		 xor	 eax, eax
  0025f	5b		 pop	 ebx
$LN15@Invoke:
  00260	5f		 pop	 edi
$LN13@Invoke:
  00261	5e		 pop	 esi

; 136  : }

  00262	5d		 pop	 ebp
  00263	c2 24 00	 ret	 36			; 00000024H
?Invoke@ioBrowserEvents@@UAGJJABU_GUID@@KGPAUtagDISPPARAMS@@PAUtagVARIANT@@PAUtagEXCEPINFO@@PAI@Z ENDP ; ioBrowserEvents::Invoke
_TEXT	ENDS
PUBLIC	_IsEqualGUID
; Function compile flags: /Ogsp
; File c:\program files (x86)\microsoft sdks\windows\v7.0a\include\guiddef.h
;	COMDAT _IsEqualGUID
_TEXT	SEGMENT
_rguid1$ = 8						; size = 4
_rguid2$ = 12						; size = 4
_IsEqualGUID PROC					; COMDAT

; 160  : {

  00000	55		 push	 ebp
  00001	8b ec		 mov	 ebp, esp
  00003	56		 push	 esi

; 161  :     return !memcmp(&rguid1, &rguid2, sizeof(GUID));

  00004	8b 75 08	 mov	 esi, DWORD PTR _rguid1$[ebp]
  00007	57		 push	 edi
  00008	8b 7d 0c	 mov	 edi, DWORD PTR _rguid2$[ebp]
  0000b	6a 04		 push	 4
  0000d	59		 pop	 ecx
  0000e	33 c0		 xor	 eax, eax
  00010	f3 a7		 repe cmpsd
  00012	5f		 pop	 edi
  00013	0f 94 c0	 sete	 al
  00016	5e		 pop	 esi

; 162  : }

  00017	5d		 pop	 ebp
  00018	c3		 ret	 0
_IsEqualGUID ENDP
_TEXT	ENDS
PUBLIC	_==
; Function compile flags: /Ogsp
;	COMDAT _==
_TEXT	SEGMENT
_guidOne$ = 8						; size = 4
_guidOther$ = 12					; size = 4
_==	PROC						; COMDAT

; 193  : {

  00000	55		 push	 ebp
  00001	8b ec		 mov	 ebp, esp
  00003	56		 push	 esi

; 194  :     return IsEqualGUID(guidOne,guidOther);

  00004	8b 75 08	 mov	 esi, DWORD PTR _guidOne$[ebp]
  00007	57		 push	 edi
  00008	8b 7d 0c	 mov	 edi, DWORD PTR _guidOther$[ebp]
  0000b	6a 04		 push	 4
  0000d	59		 pop	 ecx
  0000e	33 c0		 xor	 eax, eax
  00010	f3 a7		 repe cmpsd
  00012	5f		 pop	 edi
  00013	0f 94 c0	 sete	 al
  00016	5e		 pop	 esi

; 195  : }

  00017	5d		 pop	 ebp
  00018	c3		 ret	 0
_==	ENDP
_TEXT	ENDS
PUBLIC	??0IUnknown@@QAE@XZ				; IUnknown::IUnknown
; Function compile flags: /Ogsp
;	COMDAT ??0IUnknown@@QAE@XZ
_TEXT	SEGMENT
??0IUnknown@@QAE@XZ PROC				; IUnknown::IUnknown, COMDAT
; _this$ = ecx
  00000	8b c1		 mov	 eax, ecx
  00002	c3		 ret	 0
??0IUnknown@@QAE@XZ ENDP				; IUnknown::IUnknown
_TEXT	ENDS
PUBLIC	??0IDispatch@@QAE@XZ				; IDispatch::IDispatch
; Function compile flags: /Ogsp
;	COMDAT ??0IDispatch@@QAE@XZ
_TEXT	SEGMENT
??0IDispatch@@QAE@XZ PROC				; IDispatch::IDispatch, COMDAT
; _this$ = ecx
  00000	8b c1		 mov	 eax, ecx
  00002	c3		 ret	 0
??0IDispatch@@QAE@XZ ENDP				; IDispatch::IDispatch
_TEXT	ENDS
EXTRN	??3@YAXPAX@Z:PROC				; operator delete
; Function compile flags: /Ogsp
;	COMDAT ??_GioBrowserEvents@@UAEPAXI@Z
_TEXT	SEGMENT
___flags$ = 8						; size = 4
??_GioBrowserEvents@@UAEPAXI@Z PROC			; ioBrowserEvents::`scalar deleting destructor', COMDAT
; _this$ = ecx
  00000	55		 push	 ebp
  00001	8b ec		 mov	 ebp, esp
  00003	56		 push	 esi
  00004	8b f1		 mov	 esi, ecx
  00006	83 66 04 00	 and	 DWORD PTR [esi+4], 0
  0000a	f6 45 08 01	 test	 BYTE PTR ___flags$[ebp], 1
  0000e	c7 06 00 00 00
	00		 mov	 DWORD PTR [esi], OFFSET ??_7ioBrowserEvents@@6B@
  00014	74 07		 je	 SHORT $LN1@scalar
  00016	56		 push	 esi
  00017	e8 00 00 00 00	 call	 ??3@YAXPAX@Z		; operator delete
  0001c	59		 pop	 ecx
$LN1@scalar:
  0001d	8b c6		 mov	 eax, esi
  0001f	5e		 pop	 esi
  00020	5d		 pop	 ebp
  00021	c2 04 00	 ret	 4
??_GioBrowserEvents@@UAEPAXI@Z ENDP			; ioBrowserEvents::`scalar deleting destructor'
_TEXT	ENDS
PUBLIC	??0DWebBrowserEvents2@@QAE@XZ			; DWebBrowserEvents2::DWebBrowserEvents2
; Function compile flags: /Ogsp
;	COMDAT ??0DWebBrowserEvents2@@QAE@XZ
_TEXT	SEGMENT
??0DWebBrowserEvents2@@QAE@XZ PROC			; DWebBrowserEvents2::DWebBrowserEvents2, COMDAT
; _this$ = ecx
  00000	8b c1		 mov	 eax, ecx
  00002	c3		 ret	 0
??0DWebBrowserEvents2@@QAE@XZ ENDP			; DWebBrowserEvents2::DWebBrowserEvents2
_TEXT	ENDS
EXTRN	_IID_IDispatch:BYTE
EXTRN	_DIID_DWebBrowserEvents2:BYTE
EXTRN	_IID_IUnknown:BYTE
; Function compile flags: /Ogsp
; File d:\lost saga for developer\youtube\tutorial\source\src\lsclient\iobrowserevents.cpp
;	COMDAT ?QueryInterface@ioBrowserEvents@@UAGJABU_GUID@@PAPAX@Z
_TEXT	SEGMENT
_this$ = 8						; size = 4
_riid$ = 12						; size = 4
_ppvObject$ = 16					; size = 4
?QueryInterface@ioBrowserEvents@@UAGJABU_GUID@@PAPAX@Z PROC ; ioBrowserEvents::QueryInterface, COMDAT

; 32   : {

  00000	55		 push	 ebp
  00001	8b ec		 mov	 ebp, esp

; 33   : 	*ppvObject = NULL;

  00003	8b 45 10	 mov	 eax, DWORD PTR _ppvObject$[ebp]
  00006	83 20 00	 and	 DWORD PTR [eax], 0
  00009	56		 push	 esi
  0000a	57		 push	 edi

; 34   : 
; 35   : 	if( IID_IUnknown == riid )

  0000b	8b 7d 0c	 mov	 edi, DWORD PTR _riid$[ebp]
  0000e	6a 04		 push	 4
  00010	59		 pop	 ecx
  00011	be 00 00 00 00	 mov	 esi, OFFSET _IID_IUnknown
  00016	33 d2		 xor	 edx, edx
  00018	f3 a7		 repe cmpsd

; 36   : 	{ 
; 37   : 		*ppvObject = (IUnknown*)(DWebBrowserEvents2*)this;

  0001a	74 22		 je	 SHORT $LN24@QueryInter

; 38   : 	}
; 39   : 	else if( DIID_DWebBrowserEvents2 == riid )

  0001c	8b 7d 0c	 mov	 edi, DWORD PTR _riid$[ebp]
  0001f	6a 04		 push	 4
  00021	59		 pop	 ecx
  00022	be 00 00 00 00	 mov	 esi, OFFSET _DIID_DWebBrowserEvents2
  00027	33 d2		 xor	 edx, edx
  00029	f3 a7		 repe cmpsd

; 40   : 	{ 
; 41   : 		*ppvObject = (DWebBrowserEvents2*)this; 

  0002b	74 11		 je	 SHORT $LN24@QueryInter

; 42   : 	}
; 43   : 	else if( IID_IDispatch == riid )

  0002d	8b 7d 0c	 mov	 edi, DWORD PTR _riid$[ebp]
  00030	6a 04		 push	 4
  00032	59		 pop	 ecx
  00033	be 00 00 00 00	 mov	 esi, OFFSET _IID_IDispatch
  00038	33 d2		 xor	 edx, edx
  0003a	f3 a7		 repe cmpsd
  0003c	75 0d		 jne	 SHORT $LN1@QueryInter
$LN24@QueryInter:

; 44   : 	{
; 45   : 		*ppvObject = (IDispatch*)this;

  0003e	8b 4d 08	 mov	 ecx, DWORD PTR _this$[ebp]
  00041	89 08		 mov	 DWORD PTR [eax], ecx

; 46   : 	}
; 47   : 
; 48   : 	if( *ppvObject )

  00043	85 c9		 test	 ecx, ecx
  00045	74 04		 je	 SHORT $LN1@QueryInter

; 49   : 		return S_OK;

  00047	33 c0		 xor	 eax, eax
  00049	eb 05		 jmp	 SHORT $LN7@QueryInter
$LN1@QueryInter:

; 50   : 
; 51   : 	return E_NOINTERFACE;

  0004b	b8 02 40 00 80	 mov	 eax, -2147467262	; 80004002H
$LN7@QueryInter:
  00050	5f		 pop	 edi
  00051	5e		 pop	 esi

; 52   : }

  00052	5d		 pop	 ebp
  00053	c2 0c 00	 ret	 12			; 0000000cH
?QueryInterface@ioBrowserEvents@@UAGJABU_GUID@@PAPAX@Z ENDP ; ioBrowserEvents::QueryInterface
_TEXT	ENDS
PUBLIC	??0ioBrowserEvents@@QAE@PAVioWebBrowser@@@Z	; ioBrowserEvents::ioBrowserEvents
; Function compile flags: /Ogsp
;	COMDAT ??0ioBrowserEvents@@QAE@PAVioWebBrowser@@@Z
_TEXT	SEGMENT
_pBrowser$ = 8						; size = 4
??0ioBrowserEvents@@QAE@PAVioWebBrowser@@@Z PROC	; ioBrowserEvents::ioBrowserEvents, COMDAT
; _this$ = ecx

; 12   : {

  00000	55		 push	 ebp
  00001	8b ec		 mov	 ebp, esp
  00003	8b c1		 mov	 eax, ecx

; 13   : 	m_pBrowser = pBrowser;

  00005	8b 4d 08	 mov	 ecx, DWORD PTR _pBrowser$[ebp]
  00008	c7 00 00 00 00
	00		 mov	 DWORD PTR [eax], OFFSET ??_7ioBrowserEvents@@6B@
  0000e	89 48 04	 mov	 DWORD PTR [eax+4], ecx

; 14   : }

  00011	5d		 pop	 ebp
  00012	c2 04 00	 ret	 4
??0ioBrowserEvents@@QAE@PAVioWebBrowser@@@Z ENDP	; ioBrowserEvents::ioBrowserEvents
_TEXT	ENDS
END
