; Listing generated by Microsoft (R) Optimizing Compiler Version 16.00.30319.01 

	TITLE	D:\Lost Saga For Developer\Youtube\Tutorial\Source\src\LSClient\ioBuffCountSkill.cpp
	.686P
	.XMM
	include listing.inc
	.model	flat

INCLUDELIB MSVCRT
INCLUDELIB OLDNAMES

PUBLIC	?_EEM_DS@?$deque@UD3DXVECTOR3@@V?$allocator@UD3DXVECTOR3@@@std@@@std@@2HB ; std::deque<D3DXVECTOR3,std::allocator<D3DXVECTOR3> >::_EEM_DS
;	COMDAT ?_EEM_DS@?$deque@UD3DXVECTOR3@@V?$allocator@UD3DXVECTOR3@@@std@@@std@@2HB
CONST	SEGMENT
?_EEM_DS@?$deque@UD3DXVECTOR3@@V?$allocator@UD3DXVECTOR3@@@std@@@std@@2HB DD 01H ; std::deque<D3DXVECTOR3,std::allocator<D3DXVECTOR3> >::_EEM_DS
CONST	ENDS
PUBLIC	?GetCharName@ioBaseChar@@QBEABVioHashString@@XZ	; ioBaseChar::GetCharName
; Function compile flags: /Ogsp
; File d:\lost saga for developer\youtube\tutorial\source\src\lsclient\iobasechar.h
;	COMDAT ?GetCharName@ioBaseChar@@QBEABVioHashString@@XZ
_TEXT	SEGMENT
?GetCharName@ioBaseChar@@QBEABVioHashString@@XZ PROC	; ioBaseChar::GetCharName, COMDAT
; _this$ = ecx

; 2594 : 	inline const ioHashString& GetCharName() const { return m_Name; }

  00000	8d 81 d4 02 00
	00		 lea	 eax, DWORD PTR [ecx+724]
  00006	c3		 ret	 0
?GetCharName@ioBaseChar@@QBEABVioHashString@@XZ ENDP	; ioBaseChar::GetCharName
_TEXT	ENDS
PUBLIC	?GetTargetRot@ioBaseChar@@QBEABUD3DXQUATERNION@@XZ ; ioBaseChar::GetTargetRot
; Function compile flags: /Ogsp
;	COMDAT ?GetTargetRot@ioBaseChar@@QBEABUD3DXQUATERNION@@XZ
_TEXT	SEGMENT
?GetTargetRot@ioBaseChar@@QBEABUD3DXQUATERNION@@XZ PROC	; ioBaseChar::GetTargetRot, COMDAT
; _this$ = ecx

; 2599 : 	inline const D3DXQUATERNION& GetTargetRot() const { return m_qtTargetRot; }

  00000	8d 81 a4 06 00
	00		 lea	 eax, DWORD PTR [ecx+1700]
  00006	c3		 ret	 0
?GetTargetRot@ioBaseChar@@QBEABUD3DXQUATERNION@@XZ ENDP	; ioBaseChar::GetTargetRot
_TEXT	ENDS
PUBLIC	??_7bad_alloc@std@@6B@				; std::bad_alloc::`vftable'
PUBLIC	??0bad_alloc@std@@QAE@PBD@Z			; std::bad_alloc::bad_alloc
PUBLIC	??_R4bad_alloc@std@@6B@				; std::bad_alloc::`RTTI Complete Object Locator'
PUBLIC	??_R0?AVbad_alloc@std@@@8			; std::bad_alloc `RTTI Type Descriptor'
PUBLIC	??_R3bad_alloc@std@@8				; std::bad_alloc::`RTTI Class Hierarchy Descriptor'
PUBLIC	??_R2bad_alloc@std@@8				; std::bad_alloc::`RTTI Base Class Array'
PUBLIC	??_R1A@?0A@EA@bad_alloc@std@@8			; std::bad_alloc::`RTTI Base Class Descriptor at (0,-1,0,64)'
PUBLIC	??_R1A@?0A@EA@exception@std@@8			; std::exception::`RTTI Base Class Descriptor at (0,-1,0,64)'
PUBLIC	??_R0?AVexception@std@@@8			; std::exception `RTTI Type Descriptor'
PUBLIC	??_R3exception@std@@8				; std::exception::`RTTI Class Hierarchy Descriptor'
PUBLIC	??_R2exception@std@@8				; std::exception::`RTTI Base Class Array'
EXTRN	__imp_??0exception@std@@QAE@ABQBD@Z:PROC
EXTRN	??_7type_info@@6B@:QWORD			; type_info::`vftable'
EXTRN	??_Ebad_alloc@std@@UAEPAXI@Z:PROC		; std::bad_alloc::`vector deleting destructor'
EXTRN	?what@exception@std@@UBEPBDXZ:PROC		; std::exception::what
;	COMDAT ??_R2exception@std@@8
; File c:\program files (x86)\microsoft visual studio 10.0\vc\include\exception
rdata$r	SEGMENT
??_R2exception@std@@8 DD FLAT:??_R1A@?0A@EA@exception@std@@8 ; std::exception::`RTTI Base Class Array'
rdata$r	ENDS
;	COMDAT ??_R3exception@std@@8
rdata$r	SEGMENT
??_R3exception@std@@8 DD 00H				; std::exception::`RTTI Class Hierarchy Descriptor'
	DD	00H
	DD	01H
	DD	FLAT:??_R2exception@std@@8
rdata$r	ENDS
;	COMDAT ??_R0?AVexception@std@@@8
_DATA	SEGMENT
??_R0?AVexception@std@@@8 DD FLAT:??_7type_info@@6B@	; std::exception `RTTI Type Descriptor'
	DD	00H
	DB	'.?AVexception@std@@', 00H
_DATA	ENDS
;	COMDAT ??_R1A@?0A@EA@exception@std@@8
rdata$r	SEGMENT
??_R1A@?0A@EA@exception@std@@8 DD FLAT:??_R0?AVexception@std@@@8 ; std::exception::`RTTI Base Class Descriptor at (0,-1,0,64)'
	DD	00H
	DD	00H
	DD	0ffffffffH
	DD	00H
	DD	040H
	DD	FLAT:??_R3exception@std@@8
rdata$r	ENDS
;	COMDAT ??_R1A@?0A@EA@bad_alloc@std@@8
rdata$r	SEGMENT
??_R1A@?0A@EA@bad_alloc@std@@8 DD FLAT:??_R0?AVbad_alloc@std@@@8 ; std::bad_alloc::`RTTI Base Class Descriptor at (0,-1,0,64)'
	DD	01H
	DD	00H
	DD	0ffffffffH
	DD	00H
	DD	040H
	DD	FLAT:??_R3bad_alloc@std@@8
rdata$r	ENDS
;	COMDAT ??_R2bad_alloc@std@@8
rdata$r	SEGMENT
??_R2bad_alloc@std@@8 DD FLAT:??_R1A@?0A@EA@bad_alloc@std@@8 ; std::bad_alloc::`RTTI Base Class Array'
	DD	FLAT:??_R1A@?0A@EA@exception@std@@8
rdata$r	ENDS
;	COMDAT ??_R3bad_alloc@std@@8
rdata$r	SEGMENT
??_R3bad_alloc@std@@8 DD 00H				; std::bad_alloc::`RTTI Class Hierarchy Descriptor'
	DD	00H
	DD	02H
	DD	FLAT:??_R2bad_alloc@std@@8
rdata$r	ENDS
;	COMDAT ??_R0?AVbad_alloc@std@@@8
_DATA	SEGMENT
??_R0?AVbad_alloc@std@@@8 DD FLAT:??_7type_info@@6B@	; std::bad_alloc `RTTI Type Descriptor'
	DD	00H
	DB	'.?AVbad_alloc@std@@', 00H
_DATA	ENDS
;	COMDAT ??_R4bad_alloc@std@@6B@
rdata$r	SEGMENT
??_R4bad_alloc@std@@6B@ DD 00H				; std::bad_alloc::`RTTI Complete Object Locator'
	DD	00H
	DD	00H
	DD	FLAT:??_R0?AVbad_alloc@std@@@8
	DD	FLAT:??_R3bad_alloc@std@@8
rdata$r	ENDS
;	COMDAT ??_7bad_alloc@std@@6B@
CONST	SEGMENT
??_7bad_alloc@std@@6B@ DD FLAT:??_R4bad_alloc@std@@6B@	; std::bad_alloc::`vftable'
	DD	FLAT:??_Ebad_alloc@std@@UAEPAXI@Z
	DD	FLAT:?what@exception@std@@UBEPBDXZ
; Function compile flags: /Ogsp
CONST	ENDS
;	COMDAT ??0bad_alloc@std@@QAE@PBD@Z
_TEXT	SEGMENT
__Message$ = 8						; size = 4
??0bad_alloc@std@@QAE@PBD@Z PROC			; std::bad_alloc::bad_alloc, COMDAT
; _this$ = ecx

; 345  : 		{	// construct from message string

  00000	55		 push	 ebp
  00001	8b ec		 mov	 ebp, esp
  00003	56		 push	 esi
  00004	8d 45 08	 lea	 eax, DWORD PTR __Message$[ebp]
  00007	50		 push	 eax
  00008	8b f1		 mov	 esi, ecx
  0000a	ff 15 00 00 00
	00		 call	 DWORD PTR __imp_??0exception@std@@QAE@ABQBD@Z
  00010	c7 06 00 00 00
	00		 mov	 DWORD PTR [esi], OFFSET ??_7bad_alloc@std@@6B@

; 346  : 		}

  00016	8b c6		 mov	 eax, esi
  00018	5e		 pop	 esi
  00019	5d		 pop	 ebp
  0001a	c2 04 00	 ret	 4
??0bad_alloc@std@@QAE@PBD@Z ENDP			; std::bad_alloc::bad_alloc
_TEXT	ENDS
PUBLIC	??1bad_alloc@std@@UAE@XZ			; std::bad_alloc::~bad_alloc
EXTRN	__imp_??1exception@std@@UAE@XZ:PROC
; Function compile flags: /Ogsp
;	COMDAT ??1bad_alloc@std@@UAE@XZ
_TEXT	SEGMENT
??1bad_alloc@std@@UAE@XZ PROC				; std::bad_alloc::~bad_alloc, COMDAT
; _this$ = ecx

; 354  : 		{	// destroy the object

  00000	c7 01 00 00 00
	00		 mov	 DWORD PTR [ecx], OFFSET ??_7bad_alloc@std@@6B@

; 355  : 		}

  00006	ff 25 00 00 00
	00		 jmp	 DWORD PTR __imp_??1exception@std@@UAE@XZ
??1bad_alloc@std@@UAE@XZ ENDP				; std::bad_alloc::~bad_alloc
_TEXT	ENDS
EXTRN	??3@YAXPAX@Z:PROC				; operator delete
; Function compile flags: /Ogsp
;	COMDAT ??_Gbad_alloc@std@@UAEPAXI@Z
_TEXT	SEGMENT
___flags$ = 8						; size = 4
??_Gbad_alloc@std@@UAEPAXI@Z PROC			; std::bad_alloc::`scalar deleting destructor', COMDAT
; _this$ = ecx
  00000	55		 push	 ebp
  00001	8b ec		 mov	 ebp, esp
  00003	56		 push	 esi
  00004	8b f1		 mov	 esi, ecx
  00006	c7 06 00 00 00
	00		 mov	 DWORD PTR [esi], OFFSET ??_7bad_alloc@std@@6B@
  0000c	ff 15 00 00 00
	00		 call	 DWORD PTR __imp_??1exception@std@@UAE@XZ
  00012	f6 45 08 01	 test	 BYTE PTR ___flags$[ebp], 1
  00016	74 07		 je	 SHORT $LN1@scalar
  00018	56		 push	 esi
  00019	e8 00 00 00 00	 call	 ??3@YAXPAX@Z		; operator delete
  0001e	59		 pop	 ecx
$LN1@scalar:
  0001f	8b c6		 mov	 eax, esi
  00021	5e		 pop	 esi
  00022	5d		 pop	 ebp
  00023	c2 04 00	 ret	 4
??_Gbad_alloc@std@@UAEPAXI@Z ENDP			; std::bad_alloc::`scalar deleting destructor'
_TEXT	ENDS
PUBLIC	??2@YAPAXIPAX@Z					; operator new
; Function compile flags: /Ogsp
; File c:\program files (x86)\microsoft visual studio 10.0\vc\include\new
;	COMDAT ??2@YAPAXIPAX@Z
_TEXT	SEGMENT
___formal$ = 8						; size = 4
__Where$ = 12						; size = 4
??2@YAPAXIPAX@Z PROC					; operator new, COMDAT

; 56   : 	{	// construct array with placement at _Where

  00000	55		 push	 ebp
  00001	8b ec		 mov	 ebp, esp

; 57   : 	return (_Where);

  00003	8b 45 0c	 mov	 eax, DWORD PTR __Where$[ebp]

; 58   : 	}

  00006	5d		 pop	 ebp
  00007	c3		 ret	 0
??2@YAPAXIPAX@Z ENDP					; operator new
_TEXT	ENDS
PUBLIC	??3@YAXPAX0@Z					; operator delete
; Function compile flags: /Ogsp
;	COMDAT ??3@YAXPAX0@Z
_TEXT	SEGMENT
___formal$ = 8						; size = 4
___formal$ = 12						; size = 4
??3@YAXPAX0@Z PROC					; operator delete, COMDAT

; 62   : 	}

  00000	c3		 ret	 0
??3@YAXPAX0@Z ENDP					; operator delete
_TEXT	ENDS
PUBLIC	??RBuffInfoSort@ioBuffCountSkill@@QBE_NABUBuffInfo@1@0@Z ; ioBuffCountSkill::BuffInfoSort::operator()
; Function compile flags: /Ogsp
; File d:\lost saga for developer\youtube\tutorial\source\src\lsclient\iobuffcountskill.h
;	COMDAT ??RBuffInfoSort@ioBuffCountSkill@@QBE_NABUBuffInfo@1@0@Z
_TEXT	SEGMENT
_lhs$ = 8						; size = 4
_rhs$ = 12						; size = 4
??RBuffInfoSort@ioBuffCountSkill@@QBE_NABUBuffInfo@1@0@Z PROC ; ioBuffCountSkill::BuffInfoSort::operator(), COMDAT
; _this$ = ecx

; 38   : 		{

  00000	55		 push	 ebp
  00001	8b ec		 mov	 ebp, esp

; 39   : 			if( lhs.nNeedCount < rhs.nNeedCount )

  00003	8b 45 08	 mov	 eax, DWORD PTR _lhs$[ebp]
  00006	8b 40 10	 mov	 eax, DWORD PTR [eax+16]
  00009	8b 4d 0c	 mov	 ecx, DWORD PTR _rhs$[ebp]
  0000c	3b 41 10	 cmp	 eax, DWORD PTR [ecx+16]
  0000f	0f 9c c0	 setl	 al

; 40   : 				return true;
; 41   : 
; 42   : 			return false;
; 43   : 		}

  00012	5d		 pop	 ebp
  00013	c2 08 00	 ret	 8
??RBuffInfoSort@ioBuffCountSkill@@QBE_NABUBuffInfo@1@0@Z ENDP ; ioBuffCountSkill::BuffInfoSort::operator()
_TEXT	ENDS
PUBLIC	?_Adopt@_Iterator_base0@std@@QAEXPBX@Z		; std::_Iterator_base0::_Adopt
; Function compile flags: /Ogsp
; File c:\program files (x86)\microsoft visual studio 10.0\vc\include\xutility
;	COMDAT ?_Adopt@_Iterator_base0@std@@QAEXPBX@Z
_TEXT	SEGMENT
___formal$ = 8						; size = 4
?_Adopt@_Iterator_base0@std@@QAEXPBX@Z PROC		; std::_Iterator_base0::_Adopt, COMDAT
; _this$ = ecx

; 49   : 		}

  00000	c2 04 00	 ret	 4
?_Adopt@_Iterator_base0@std@@QAEXPBX@Z ENDP		; std::_Iterator_base0::_Adopt
_TEXT	ENDS
PUBLIC	?IsSkillMotionEnd@ioBuffCountSkill@@UBE_NKPAVioBaseChar@@@Z ; ioBuffCountSkill::IsSkillMotionEnd
; Function compile flags: /Ogsp
; File d:\lost saga for developer\youtube\tutorial\source\src\lsclient\iobuffcountskill.cpp
;	COMDAT ?IsSkillMotionEnd@ioBuffCountSkill@@UBE_NKPAVioBaseChar@@@Z
_TEXT	SEGMENT
_dwActionStop$ = 8					; size = 4
_pOwner$ = 12						; size = 4
?IsSkillMotionEnd@ioBuffCountSkill@@UBE_NKPAVioBaseChar@@@Z PROC ; ioBuffCountSkill::IsSkillMotionEnd, COMDAT
; _this$ = ecx

; 221  : 	if( m_dwPreDelayStartTime > 0 )

  00000	83 b9 20 02 00
	00 00		 cmp	 DWORD PTR [ecx+544], 0
  00007	76 04		 jbe	 SHORT $LN2@IsSkillMot

; 222  : 		return false;

  00009	32 c0		 xor	 al, al
  0000b	eb 0a		 jmp	 SHORT $LN1@IsSkillMot
$LN2@IsSkillMot:

; 223  : 
; 224  : 	if( m_SkillState == SS_END )

  0000d	83 b9 68 12 00
	00 02		 cmp	 DWORD PTR [ecx+4712], 2
  00014	0f 94 c0	 sete	 al
$LN1@IsSkillMot:

; 225  : 		return true;
; 226  : 
; 227  : 	return false;
; 228  : }

  00017	c2 08 00	 ret	 8
?IsSkillMotionEnd@ioBuffCountSkill@@UBE_NKPAVioBaseChar@@@Z ENDP ; ioBuffCountSkill::IsSkillMotionEnd
_TEXT	ENDS
PUBLIC	??A?$vector@VioHashString@@V?$allocator@VioHashString@@@std@@@std@@QAEAAVioHashString@@I@Z ; std::vector<ioHashString,std::allocator<ioHashString> >::operator[]
; Function compile flags: /Ogsp
; File c:\program files (x86)\microsoft visual studio 10.0\vc\include\vector
;	COMDAT ??A?$vector@VioHashString@@V?$allocator@VioHashString@@@std@@@std@@QAEAAVioHashString@@I@Z
_TEXT	SEGMENT
__Pos$ = 8						; size = 4
??A?$vector@VioHashString@@V?$allocator@VioHashString@@@std@@@std@@QAEAAVioHashString@@I@Z PROC ; std::vector<ioHashString,std::allocator<ioHashString> >::operator[], COMDAT
; _this$ = ecx

; 928  : 		{	// subscript mutable sequence

  00000	55		 push	 ebp
  00001	8b ec		 mov	 ebp, esp

; 929  :  #if _ITERATOR_DEBUG_LEVEL == 2
; 930  : 		if (size() <= _Pos)
; 931  : 			{	// report error
; 932  : 			_DEBUG_ERROR("vector subscript out of range");
; 933  : 			_SCL_SECURE_OUT_OF_RANGE;
; 934  : 			}
; 935  : 
; 936  :  #elif _ITERATOR_DEBUG_LEVEL == 1
; 937  : 		_SCL_SECURE_VALIDATE_RANGE(_Pos < size());
; 938  :  #endif /* _ITERATOR_DEBUG_LEVEL */
; 939  : 
; 940  : 		return (*(this->_Myfirst + _Pos));

  00003	8b 45 08	 mov	 eax, DWORD PTR __Pos$[ebp]
  00006	c1 e0 04	 shl	 eax, 4
  00009	03 01		 add	 eax, DWORD PTR [ecx]

; 941  : 		}

  0000b	5d		 pop	 ebp
  0000c	c2 04 00	 ret	 4
??A?$vector@VioHashString@@V?$allocator@VioHashString@@@std@@@std@@QAEAAVioHashString@@I@Z ENDP ; std::vector<ioHashString,std::allocator<ioHashString> >::operator[]
_TEXT	ENDS
PUBLIC	?capacity@?$vector@VioHashString@@V?$allocator@VioHashString@@@std@@@std@@QBEIXZ ; std::vector<ioHashString,std::allocator<ioHashString> >::capacity
; Function compile flags: /Ogsp
;	COMDAT ?capacity@?$vector@VioHashString@@V?$allocator@VioHashString@@@std@@@std@@QBEIXZ
_TEXT	SEGMENT
?capacity@?$vector@VioHashString@@V?$allocator@VioHashString@@@std@@@std@@QBEIXZ PROC ; std::vector<ioHashString,std::allocator<ioHashString> >::capacity, COMDAT
; _this$ = ecx

; 777  : 		return (this->_Myend - this->_Myfirst);

  00000	8b 41 08	 mov	 eax, DWORD PTR [ecx+8]
  00003	2b 01		 sub	 eax, DWORD PTR [ecx]
  00005	c1 f8 04	 sar	 eax, 4

; 778  : 		}

  00008	c3		 ret	 0
?capacity@?$vector@VioHashString@@V?$allocator@VioHashString@@@std@@@std@@QBEIXZ ENDP ; std::vector<ioHashString,std::allocator<ioHashString> >::capacity
_TEXT	ENDS
PUBLIC	?_Inside@?$vector@VioHashString@@V?$allocator@VioHashString@@@std@@@std@@IBE_NPBVioHashString@@@Z ; std::vector<ioHashString,std::allocator<ioHashString> >::_Inside
; Function compile flags: /Ogsp
;	COMDAT ?_Inside@?$vector@VioHashString@@V?$allocator@VioHashString@@@std@@@std@@IBE_NPBVioHashString@@@Z
_TEXT	SEGMENT
__Ptr$ = 8						; size = 4
?_Inside@?$vector@VioHashString@@V?$allocator@VioHashString@@@std@@@std@@IBE_NPBVioHashString@@@Z PROC ; std::vector<ioHashString,std::allocator<ioHashString> >::_Inside, COMDAT
; _this$ = ecx

; 1285 : 		{	// test if _Ptr points inside vector

  00000	55		 push	 ebp
  00001	8b ec		 mov	 ebp, esp

; 1286 : 		return (_Ptr < this->_Mylast && this->_Myfirst <= _Ptr);

  00003	8b 45 08	 mov	 eax, DWORD PTR __Ptr$[ebp]
  00006	3b 41 04	 cmp	 eax, DWORD PTR [ecx+4]
  00009	73 09		 jae	 SHORT $LN3@Inside
  0000b	39 01		 cmp	 DWORD PTR [ecx], eax
  0000d	77 05		 ja	 SHORT $LN3@Inside
  0000f	33 c0		 xor	 eax, eax
  00011	40		 inc	 eax
  00012	eb 02		 jmp	 SHORT $LN4@Inside
$LN3@Inside:
  00014	33 c0		 xor	 eax, eax
$LN4@Inside:

; 1287 : 		}

  00016	5d		 pop	 ebp
  00017	c2 04 00	 ret	 4
?_Inside@?$vector@VioHashString@@V?$allocator@VioHashString@@@std@@@std@@IBE_NPBVioHashString@@@Z ENDP ; std::vector<ioHashString,std::allocator<ioHashString> >::_Inside
_TEXT	ENDS
PUBLIC	?_Orphan_range@?$vector@VioHashString@@V?$allocator@VioHashString@@@std@@@std@@IBEXPAVioHashString@@0@Z ; std::vector<ioHashString,std::allocator<ioHashString> >::_Orphan_range
; Function compile flags: /Ogsp
;	COMDAT ?_Orphan_range@?$vector@VioHashString@@V?$allocator@VioHashString@@@std@@@std@@IBEXPAVioHashString@@0@Z
_TEXT	SEGMENT
___formal$ = 8						; size = 4
___formal$ = 12						; size = 4
?_Orphan_range@?$vector@VioHashString@@V?$allocator@VioHashString@@@std@@@std@@IBEXPAVioHashString@@0@Z PROC ; std::vector<ioHashString,std::allocator<ioHashString> >::_Orphan_range, COMDAT
; _this$ = ecx

; 1454 : 		}

  00000	c2 08 00	 ret	 8
?_Orphan_range@?$vector@VioHashString@@V?$allocator@VioHashString@@@std@@@std@@IBEXPAVioHashString@@0@Z ENDP ; std::vector<ioHashString,std::allocator<ioHashString> >::_Orphan_range
_TEXT	ENDS
PUBLIC	?size@?$vector@UBuffInfo@ioBuffCountSkill@@V?$allocator@UBuffInfo@ioBuffCountSkill@@@std@@@std@@QBEIXZ ; std::vector<ioBuffCountSkill::BuffInfo,std::allocator<ioBuffCountSkill::BuffInfo> >::size
; Function compile flags: /Ogsp
;	COMDAT ?size@?$vector@UBuffInfo@ioBuffCountSkill@@V?$allocator@UBuffInfo@ioBuffCountSkill@@@std@@@std@@QBEIXZ
_TEXT	SEGMENT
?size@?$vector@UBuffInfo@ioBuffCountSkill@@V?$allocator@UBuffInfo@ioBuffCountSkill@@@std@@@std@@QBEIXZ PROC ; std::vector<ioBuffCountSkill::BuffInfo,std::allocator<ioBuffCountSkill::BuffInfo> >::size, COMDAT
; _this$ = ecx

; 879  : 		return (this->_Mylast - this->_Myfirst);

  00000	8b 41 04	 mov	 eax, DWORD PTR [ecx+4]
  00003	2b 01		 sub	 eax, DWORD PTR [ecx]
  00005	6a 14		 push	 20			; 00000014H
  00007	99		 cdq
  00008	59		 pop	 ecx
  00009	f7 f9		 idiv	 ecx

; 880  : 		}

  0000b	c3		 ret	 0
?size@?$vector@UBuffInfo@ioBuffCountSkill@@V?$allocator@UBuffInfo@ioBuffCountSkill@@@std@@@std@@QBEIXZ ENDP ; std::vector<ioBuffCountSkill::BuffInfo,std::allocator<ioBuffCountSkill::BuffInfo> >::size
_TEXT	ENDS
PUBLIC	?_Inside@?$vector@UBuffInfo@ioBuffCountSkill@@V?$allocator@UBuffInfo@ioBuffCountSkill@@@std@@@std@@IBE_NPBUBuffInfo@ioBuffCountSkill@@@Z ; std::vector<ioBuffCountSkill::BuffInfo,std::allocator<ioBuffCountSkill::BuffInfo> >::_Inside
; Function compile flags: /Ogsp
;	COMDAT ?_Inside@?$vector@UBuffInfo@ioBuffCountSkill@@V?$allocator@UBuffInfo@ioBuffCountSkill@@@std@@@std@@IBE_NPBUBuffInfo@ioBuffCountSkill@@@Z
_TEXT	SEGMENT
__Ptr$ = 8						; size = 4
?_Inside@?$vector@UBuffInfo@ioBuffCountSkill@@V?$allocator@UBuffInfo@ioBuffCountSkill@@@std@@@std@@IBE_NPBUBuffInfo@ioBuffCountSkill@@@Z PROC ; std::vector<ioBuffCountSkill::BuffInfo,std::allocator<ioBuffCountSkill::BuffInfo> >::_Inside, COMDAT
; _this$ = ecx

; 1285 : 		{	// test if _Ptr points inside vector

  00000	55		 push	 ebp
  00001	8b ec		 mov	 ebp, esp

; 1286 : 		return (_Ptr < this->_Mylast && this->_Myfirst <= _Ptr);

  00003	8b 45 08	 mov	 eax, DWORD PTR __Ptr$[ebp]
  00006	3b 41 04	 cmp	 eax, DWORD PTR [ecx+4]
  00009	73 09		 jae	 SHORT $LN3@Inside@2
  0000b	39 01		 cmp	 DWORD PTR [ecx], eax
  0000d	77 05		 ja	 SHORT $LN3@Inside@2
  0000f	33 c0		 xor	 eax, eax
  00011	40		 inc	 eax
  00012	eb 02		 jmp	 SHORT $LN4@Inside@2
$LN3@Inside@2:
  00014	33 c0		 xor	 eax, eax
$LN4@Inside@2:

; 1287 : 		}

  00016	5d		 pop	 ebp
  00017	c2 04 00	 ret	 4
?_Inside@?$vector@UBuffInfo@ioBuffCountSkill@@V?$allocator@UBuffInfo@ioBuffCountSkill@@@std@@@std@@IBE_NPBUBuffInfo@ioBuffCountSkill@@@Z ENDP ; std::vector<ioBuffCountSkill::BuffInfo,std::allocator<ioBuffCountSkill::BuffInfo> >::_Inside
_TEXT	ENDS
PUBLIC	?_Orphan_range@?$vector@UBuffInfo@ioBuffCountSkill@@V?$allocator@UBuffInfo@ioBuffCountSkill@@@std@@@std@@IBEXPAUBuffInfo@ioBuffCountSkill@@0@Z ; std::vector<ioBuffCountSkill::BuffInfo,std::allocator<ioBuffCountSkill::BuffInfo> >::_Orphan_range
; Function compile flags: /Ogsp
;	COMDAT ?_Orphan_range@?$vector@UBuffInfo@ioBuffCountSkill@@V?$allocator@UBuffInfo@ioBuffCountSkill@@@std@@@std@@IBEXPAUBuffInfo@ioBuffCountSkill@@0@Z
_TEXT	SEGMENT
___formal$ = 8						; size = 4
___formal$ = 12						; size = 4
?_Orphan_range@?$vector@UBuffInfo@ioBuffCountSkill@@V?$allocator@UBuffInfo@ioBuffCountSkill@@@std@@@std@@IBEXPAUBuffInfo@ioBuffCountSkill@@0@Z PROC ; std::vector<ioBuffCountSkill::BuffInfo,std::allocator<ioBuffCountSkill::BuffInfo> >::_Orphan_range, COMDAT
; _this$ = ecx

; 1454 : 		}

  00000	c2 08 00	 ret	 8
?_Orphan_range@?$vector@UBuffInfo@ioBuffCountSkill@@V?$allocator@UBuffInfo@ioBuffCountSkill@@@std@@@std@@IBEXPAUBuffInfo@ioBuffCountSkill@@0@Z ENDP ; std::vector<ioBuffCountSkill::BuffInfo,std::allocator<ioBuffCountSkill::BuffInfo> >::_Orphan_range
_TEXT	ENDS
PUBLIC	??1?$_Vector_val@UBuffInfo@ioBuffCountSkill@@V?$allocator@UBuffInfo@ioBuffCountSkill@@@std@@@std@@QAE@XZ ; std::_Vector_val<ioBuffCountSkill::BuffInfo,std::allocator<ioBuffCountSkill::BuffInfo> >::~_Vector_val<ioBuffCountSkill::BuffInfo,std::allocator<ioBuffCountSkill::BuffInfo> >
; Function compile flags: /Ogsp
;	COMDAT ??1?$_Vector_val@UBuffInfo@ioBuffCountSkill@@V?$allocator@UBuffInfo@ioBuffCountSkill@@@std@@@std@@QAE@XZ
_TEXT	SEGMENT
??1?$_Vector_val@UBuffInfo@ioBuffCountSkill@@V?$allocator@UBuffInfo@ioBuffCountSkill@@@std@@@std@@QAE@XZ PROC ; std::_Vector_val<ioBuffCountSkill::BuffInfo,std::allocator<ioBuffCountSkill::BuffInfo> >::~_Vector_val<ioBuffCountSkill::BuffInfo,std::allocator<ioBuffCountSkill::BuffInfo> >, COMDAT
; _this$ = ecx

; 434  : 		}

  00000	c3		 ret	 0
??1?$_Vector_val@UBuffInfo@ioBuffCountSkill@@V?$allocator@UBuffInfo@ioBuffCountSkill@@@std@@@std@@QAE@XZ ENDP ; std::_Vector_val<ioBuffCountSkill::BuffInfo,std::allocator<ioBuffCountSkill::BuffInfo> >::~_Vector_val<ioBuffCountSkill::BuffInfo,std::allocator<ioBuffCountSkill::BuffInfo> >
_TEXT	ENDS
PUBLIC	??0?$allocator@UBuffInfo@ioBuffCountSkill@@@std@@QAE@XZ ; std::allocator<ioBuffCountSkill::BuffInfo>::allocator<ioBuffCountSkill::BuffInfo>
; Function compile flags: /Ogsp
; File c:\program files (x86)\microsoft visual studio 10.0\vc\include\xmemory
;	COMDAT ??0?$allocator@UBuffInfo@ioBuffCountSkill@@@std@@QAE@XZ
_TEXT	SEGMENT
??0?$allocator@UBuffInfo@ioBuffCountSkill@@@std@@QAE@XZ PROC ; std::allocator<ioBuffCountSkill::BuffInfo>::allocator<ioBuffCountSkill::BuffInfo>, COMDAT
; _this$ = ecx

; 161  : 	_ALLOCATOR() _THROW0()

  00000	8b c1		 mov	 eax, ecx

; 162  : 		{	// construct default allocator (do nothing)
; 163  : 		}

  00002	c3		 ret	 0
??0?$allocator@UBuffInfo@ioBuffCountSkill@@@std@@QAE@XZ ENDP ; std::allocator<ioBuffCountSkill::BuffInfo>::allocator<ioBuffCountSkill::BuffInfo>
_TEXT	ENDS
PUBLIC	??0?$allocator@UBuffInfo@ioBuffCountSkill@@@std@@QAE@ABV01@@Z ; std::allocator<ioBuffCountSkill::BuffInfo>::allocator<ioBuffCountSkill::BuffInfo>
; Function compile flags: /Ogsp
;	COMDAT ??0?$allocator@UBuffInfo@ioBuffCountSkill@@@std@@QAE@ABV01@@Z
_TEXT	SEGMENT
___formal$ = 8						; size = 4
??0?$allocator@UBuffInfo@ioBuffCountSkill@@@std@@QAE@ABV01@@Z PROC ; std::allocator<ioBuffCountSkill::BuffInfo>::allocator<ioBuffCountSkill::BuffInfo>, COMDAT
; _this$ = ecx

; 165  : 	_ALLOCATOR(const _ALLOCATOR<_Ty>&) _THROW0()

  00000	8b c1		 mov	 eax, ecx

; 166  : 		{	// construct by copying (do nothing)
; 167  : 		}

  00002	c2 04 00	 ret	 4
??0?$allocator@UBuffInfo@ioBuffCountSkill@@@std@@QAE@ABV01@@Z ENDP ; std::allocator<ioBuffCountSkill::BuffInfo>::allocator<ioBuffCountSkill::BuffInfo>
_TEXT	ENDS
PUBLIC	?capacity@?$vector@UBuffInfo@ioBuffCountSkill@@V?$allocator@UBuffInfo@ioBuffCountSkill@@@std@@@std@@QBEIXZ ; std::vector<ioBuffCountSkill::BuffInfo,std::allocator<ioBuffCountSkill::BuffInfo> >::capacity
; Function compile flags: /Ogsp
; File c:\program files (x86)\microsoft visual studio 10.0\vc\include\vector
;	COMDAT ?capacity@?$vector@UBuffInfo@ioBuffCountSkill@@V?$allocator@UBuffInfo@ioBuffCountSkill@@@std@@@std@@QBEIXZ
_TEXT	SEGMENT
?capacity@?$vector@UBuffInfo@ioBuffCountSkill@@V?$allocator@UBuffInfo@ioBuffCountSkill@@@std@@@std@@QBEIXZ PROC ; std::vector<ioBuffCountSkill::BuffInfo,std::allocator<ioBuffCountSkill::BuffInfo> >::capacity, COMDAT
; _this$ = ecx

; 777  : 		return (this->_Myend - this->_Myfirst);

  00000	8b 41 08	 mov	 eax, DWORD PTR [ecx+8]
  00003	2b 01		 sub	 eax, DWORD PTR [ecx]
  00005	6a 14		 push	 20			; 00000014H
  00007	99		 cdq
  00008	59		 pop	 ecx
  00009	f7 f9		 idiv	 ecx

; 778  : 		}

  0000b	c3		 ret	 0
?capacity@?$vector@UBuffInfo@ioBuffCountSkill@@V?$allocator@UBuffInfo@ioBuffCountSkill@@@std@@@std@@QBEIXZ ENDP ; std::vector<ioBuffCountSkill::BuffInfo,std::allocator<ioBuffCountSkill::BuffInfo> >::capacity
_TEXT	ENDS
PUBLIC	??_C@_0BD@OLBABOEK@vector?$DMT?$DO?5too?5long?$AA@ ; `string'
PUBLIC	?_Xlen@?$vector@UBuffInfo@ioBuffCountSkill@@V?$allocator@UBuffInfo@ioBuffCountSkill@@@std@@@std@@IBEXXZ ; std::vector<ioBuffCountSkill::BuffInfo,std::allocator<ioBuffCountSkill::BuffInfo> >::_Xlen
EXTRN	__imp_?_Xlength_error@std@@YAXPBD@Z:PROC
;	COMDAT ??_C@_0BD@OLBABOEK@vector?$DMT?$DO?5too?5long?$AA@
CONST	SEGMENT
??_C@_0BD@OLBABOEK@vector?$DMT?$DO?5too?5long?$AA@ DB 'vector<T> too long'
	DB	00H						; `string'
; Function compile flags: /Ogsp
CONST	ENDS
;	COMDAT ?_Xlen@?$vector@UBuffInfo@ioBuffCountSkill@@V?$allocator@UBuffInfo@ioBuffCountSkill@@@std@@@std@@IBEXXZ
_TEXT	SEGMENT
?_Xlen@?$vector@UBuffInfo@ioBuffCountSkill@@V?$allocator@UBuffInfo@ioBuffCountSkill@@@std@@@std@@IBEXXZ PROC ; std::vector<ioBuffCountSkill::BuffInfo,std::allocator<ioBuffCountSkill::BuffInfo> >::_Xlen, COMDAT
; _this$ = ecx

; 1427 : 		_Xlength_error("vector<T> too long");

  00000	68 00 00 00 00	 push	 OFFSET ??_C@_0BD@OLBABOEK@vector?$DMT?$DO?5too?5long?$AA@
  00005	ff 15 00 00 00
	00		 call	 DWORD PTR __imp_?_Xlength_error@std@@YAXPBD@Z
$LN4@Xlen:
$LN3@Xlen:
  0000b	cc		 int	 3
?_Xlen@?$vector@UBuffInfo@ioBuffCountSkill@@V?$allocator@UBuffInfo@ioBuffCountSkill@@@std@@@std@@IBEXXZ ENDP ; std::vector<ioBuffCountSkill::BuffInfo,std::allocator<ioBuffCountSkill::BuffInfo> >::_Xlen
_TEXT	ENDS
PUBLIC	?deallocate@?$allocator@UBuffInfo@ioBuffCountSkill@@@std@@QAEXPAUBuffInfo@ioBuffCountSkill@@I@Z ; std::allocator<ioBuffCountSkill::BuffInfo>::deallocate
; Function compile flags: /Ogsp
; File c:\program files (x86)\microsoft visual studio 10.0\vc\include\xmemory
;	COMDAT ?deallocate@?$allocator@UBuffInfo@ioBuffCountSkill@@@std@@QAEXPAUBuffInfo@ioBuffCountSkill@@I@Z
_TEXT	SEGMENT
__Ptr$ = 8						; size = 4
___formal$ = 12						; size = 4
?deallocate@?$allocator@UBuffInfo@ioBuffCountSkill@@@std@@QAEXPAUBuffInfo@ioBuffCountSkill@@I@Z PROC ; std::allocator<ioBuffCountSkill::BuffInfo>::deallocate, COMDAT
; _this$ = ecx

; 181  : 		{	// deallocate object at _Ptr, ignore size

  00000	55		 push	 ebp
  00001	8b ec		 mov	 ebp, esp

; 182  : 		::operator delete(_Ptr);

  00003	ff 75 08	 push	 DWORD PTR __Ptr$[ebp]
  00006	e8 00 00 00 00	 call	 ??3@YAXPAX@Z		; operator delete
  0000b	59		 pop	 ecx

; 183  : 		}

  0000c	5d		 pop	 ebp
  0000d	c2 08 00	 ret	 8
?deallocate@?$allocator@UBuffInfo@ioBuffCountSkill@@@std@@QAEXPAUBuffInfo@ioBuffCountSkill@@I@Z ENDP ; std::allocator<ioBuffCountSkill::BuffInfo>::deallocate
_TEXT	ENDS
PUBLIC	??0?$_Vector_const_iterator@V?$_Vector_val@UBuffInfo@ioBuffCountSkill@@V?$allocator@UBuffInfo@ioBuffCountSkill@@@std@@@std@@@std@@QAE@PAUBuffInfo@ioBuffCountSkill@@PBU_Container_base0@1@@Z ; std::_Vector_const_iterator<std::_Vector_val<ioBuffCountSkill::BuffInfo,std::allocator<ioBuffCountSkill::BuffInfo> > >::_Vector_const_iterator<std::_Vector_val<ioBuffCountSkill::BuffInfo,std::allocator<ioBuffCountSkill::BuffInfo> > >
; Function compile flags: /Ogsp
; File c:\program files (x86)\microsoft visual studio 10.0\vc\include\vector
;	COMDAT ??0?$_Vector_const_iterator@V?$_Vector_val@UBuffInfo@ioBuffCountSkill@@V?$allocator@UBuffInfo@ioBuffCountSkill@@@std@@@std@@@std@@QAE@PAUBuffInfo@ioBuffCountSkill@@PBU_Container_base0@1@@Z
_TEXT	SEGMENT
__Parg$ = 8						; size = 4
__Pvector$ = 12						; size = 4
??0?$_Vector_const_iterator@V?$_Vector_val@UBuffInfo@ioBuffCountSkill@@V?$allocator@UBuffInfo@ioBuffCountSkill@@@std@@@std@@@std@@QAE@PAUBuffInfo@ioBuffCountSkill@@PBU_Container_base0@1@@Z PROC ; std::_Vector_const_iterator<std::_Vector_val<ioBuffCountSkill::BuffInfo,std::allocator<ioBuffCountSkill::BuffInfo> > >::_Vector_const_iterator<std::_Vector_val<ioBuffCountSkill::BuffInfo,std::allocator<ioBuffCountSkill::BuffInfo> > >, COMDAT
; _this$ = ecx

; 45   : 		{	// construct with pointer _Parg

  00000	55		 push	 ebp
  00001	8b ec		 mov	 ebp, esp
  00003	8b c1		 mov	 eax, ecx
  00005	8b 4d 08	 mov	 ecx, DWORD PTR __Parg$[ebp]
  00008	89 08		 mov	 DWORD PTR [eax], ecx

; 46   : 		this->_Adopt(_Pvector);
; 47   : 		}

  0000a	5d		 pop	 ebp
  0000b	c2 08 00	 ret	 8
??0?$_Vector_const_iterator@V?$_Vector_val@UBuffInfo@ioBuffCountSkill@@V?$allocator@UBuffInfo@ioBuffCountSkill@@@std@@@std@@@std@@QAE@PAUBuffInfo@ioBuffCountSkill@@PBU_Container_base0@1@@Z ENDP ; std::_Vector_const_iterator<std::_Vector_val<ioBuffCountSkill::BuffInfo,std::allocator<ioBuffCountSkill::BuffInfo> > >::_Vector_const_iterator<std::_Vector_val<ioBuffCountSkill::BuffInfo,std::allocator<ioBuffCountSkill::BuffInfo> > >
_TEXT	ENDS
PUBLIC	??D?$_Vector_const_iterator@V?$_Vector_val@UBuffInfo@ioBuffCountSkill@@V?$allocator@UBuffInfo@ioBuffCountSkill@@@std@@@std@@@std@@QBEABUBuffInfo@ioBuffCountSkill@@XZ ; std::_Vector_const_iterator<std::_Vector_val<ioBuffCountSkill::BuffInfo,std::allocator<ioBuffCountSkill::BuffInfo> > >::operator*
; Function compile flags: /Ogsp
;	COMDAT ??D?$_Vector_const_iterator@V?$_Vector_val@UBuffInfo@ioBuffCountSkill@@V?$allocator@UBuffInfo@ioBuffCountSkill@@@std@@@std@@@std@@QBEABUBuffInfo@ioBuffCountSkill@@XZ
_TEXT	SEGMENT
??D?$_Vector_const_iterator@V?$_Vector_val@UBuffInfo@ioBuffCountSkill@@V?$allocator@UBuffInfo@ioBuffCountSkill@@@std@@@std@@@std@@QBEABUBuffInfo@ioBuffCountSkill@@XZ PROC ; std::_Vector_const_iterator<std::_Vector_val<ioBuffCountSkill::BuffInfo,std::allocator<ioBuffCountSkill::BuffInfo> > >::operator*, COMDAT
; _this$ = ecx

; 64   :  #if _ITERATOR_DEBUG_LEVEL == 2
; 65   : 		if (this->_Getcont() == 0
; 66   : 			|| this->_Ptr == 0
; 67   : 			|| this->_Ptr < ((_Myvec *)this->_Getcont())->_Myfirst
; 68   : 			|| ((_Myvec *)this->_Getcont())->_Mylast <= this->_Ptr)
; 69   : 			{	// report error
; 70   : 			_DEBUG_ERROR("vector iterator not dereferencable");
; 71   : 			_SCL_SECURE_OUT_OF_RANGE;
; 72   : 			}
; 73   : 
; 74   :  #elif _ITERATOR_DEBUG_LEVEL == 1
; 75   : 		_SCL_SECURE_VALIDATE(this->_Getcont() != 0);
; 76   : 		_SCL_SECURE_VALIDATE_RANGE(
; 77   : 			this->_Ptr != 0
; 78   : 			&& ((_Myvec *)this->_Getcont())->_Myfirst <= this->_Ptr
; 79   : 			&& this->_Ptr < ((_Myvec *)this->_Getcont())->_Mylast);
; 80   :  #endif /* _ITERATOR_DEBUG_LEVEL */
; 81   : 
; 82   : 		__analysis_assume(this->_Ptr != 0);
; 83   : 
; 84   : 		return (*this->_Ptr);

  00000	8b 01		 mov	 eax, DWORD PTR [ecx]

; 85   : 		}

  00002	c3		 ret	 0
??D?$_Vector_const_iterator@V?$_Vector_val@UBuffInfo@ioBuffCountSkill@@V?$allocator@UBuffInfo@ioBuffCountSkill@@@std@@@std@@@std@@QBEABUBuffInfo@ioBuffCountSkill@@XZ ENDP ; std::_Vector_const_iterator<std::_Vector_val<ioBuffCountSkill::BuffInfo,std::allocator<ioBuffCountSkill::BuffInfo> > >::operator*
_TEXT	ENDS
PUBLIC	??F?$_Vector_const_iterator@V?$_Vector_val@UBuffInfo@ioBuffCountSkill@@V?$allocator@UBuffInfo@ioBuffCountSkill@@@std@@@std@@@std@@QAEAAV01@XZ ; std::_Vector_const_iterator<std::_Vector_val<ioBuffCountSkill::BuffInfo,std::allocator<ioBuffCountSkill::BuffInfo> > >::operator--
; Function compile flags: /Ogsp
;	COMDAT ??F?$_Vector_const_iterator@V?$_Vector_val@UBuffInfo@ioBuffCountSkill@@V?$allocator@UBuffInfo@ioBuffCountSkill@@@std@@@std@@@std@@QAEAAV01@XZ
_TEXT	SEGMENT
??F?$_Vector_const_iterator@V?$_Vector_val@UBuffInfo@ioBuffCountSkill@@V?$allocator@UBuffInfo@ioBuffCountSkill@@@std@@@std@@@std@@QAEAAV01@XZ PROC ; std::_Vector_const_iterator<std::_Vector_val<ioBuffCountSkill::BuffInfo,std::allocator<ioBuffCountSkill::BuffInfo> > >::operator--, COMDAT
; _this$ = ecx

; 122  : 		{	// predecrement

  00000	8b c1		 mov	 eax, ecx

; 123  :  #if _ITERATOR_DEBUG_LEVEL == 2
; 124  : 		if (this->_Getcont() == 0
; 125  : 			|| this->_Ptr == 0
; 126  : 			|| this->_Ptr <= ((_Myvec *)this->_Getcont())->_Myfirst)
; 127  : 			{	// report error
; 128  : 			_DEBUG_ERROR("vector iterator not decrementable");
; 129  : 			_SCL_SECURE_OUT_OF_RANGE;
; 130  : 			}
; 131  : 
; 132  :  #elif _ITERATOR_DEBUG_LEVEL == 1
; 133  : 		_SCL_SECURE_VALIDATE(this->_Getcont() != 0);
; 134  : 		_SCL_SECURE_VALIDATE_RANGE(
; 135  : 			this->_Ptr != 0
; 136  : 			&& ((_Myvec *)this->_Getcont())->_Myfirst < this->_Ptr);
; 137  :  #endif /* _ITERATOR_DEBUG_LEVEL */
; 138  : 
; 139  : 		--this->_Ptr;

  00002	83 00 ec	 add	 DWORD PTR [eax], -20	; ffffffecH

; 140  : 		return (*this);
; 141  : 		}

  00005	c3		 ret	 0
??F?$_Vector_const_iterator@V?$_Vector_val@UBuffInfo@ioBuffCountSkill@@V?$allocator@UBuffInfo@ioBuffCountSkill@@@std@@@std@@@std@@QAEAAV01@XZ ENDP ; std::_Vector_const_iterator<std::_Vector_val<ioBuffCountSkill::BuffInfo,std::allocator<ioBuffCountSkill::BuffInfo> > >::operator--
_TEXT	ENDS
PUBLIC	??0?$_Revranit@V?$_Vector_iterator@V?$_Vector_val@UBuffInfo@ioBuffCountSkill@@V?$allocator@UBuffInfo@ioBuffCountSkill@@@std@@@std@@@std@@U?$iterator@Urandom_access_iterator_tag@std@@UBuffInfo@ioBuffCountSkill@@HPAU34@AAU34@@2@@std@@QAE@V?$_Vector_iterator@V?$_Vector_val@UBuffInfo@ioBuffCountSkill@@V?$allocator@UBuffInfo@ioBuffCountSkill@@@std@@@std@@@1@@Z ; std::_Revranit<std::_Vector_iterator<std::_Vector_val<ioBuffCountSkill::BuffInfo,std::allocator<ioBuffCountSkill::BuffInfo> > >,std::iterator<std::random_access_iterator_tag,ioBuffCountSkill::BuffInfo,int,ioBuffCountSkill::BuffInfo *,ioBuffCountSkill::BuffInfo &> >::_Revranit<std::_Vector_iterator<std::_Vector_val<ioBuffCountSkill::BuffInfo,std::allocator<ioBuffCountSkill::BuffInfo> > >,std::iterator<std::random_access_iterator_tag,ioBuffCountSkill::BuffInfo,int,ioBuffCountSkill::BuffInfo *,ioBuffCountSkill::BuffInfo &> >
; Function compile flags: /Ogsp
; File c:\program files (x86)\microsoft visual studio 10.0\vc\include\xutility
;	COMDAT ??0?$_Revranit@V?$_Vector_iterator@V?$_Vector_val@UBuffInfo@ioBuffCountSkill@@V?$allocator@UBuffInfo@ioBuffCountSkill@@@std@@@std@@@std@@U?$iterator@Urandom_access_iterator_tag@std@@UBuffInfo@ioBuffCountSkill@@HPAU34@AAU34@@2@@std@@QAE@V?$_Vector_iterator@V?$_Vector_val@UBuffInfo@ioBuffCountSkill@@V?$allocator@UBuffInfo@ioBuffCountSkill@@@std@@@std@@@1@@Z
_TEXT	SEGMENT
__Right$ = 8						; size = 4
??0?$_Revranit@V?$_Vector_iterator@V?$_Vector_val@UBuffInfo@ioBuffCountSkill@@V?$allocator@UBuffInfo@ioBuffCountSkill@@@std@@@std@@@std@@U?$iterator@Urandom_access_iterator_tag@std@@UBuffInfo@ioBuffCountSkill@@HPAU34@AAU34@@2@@std@@QAE@V?$_Vector_iterator@V?$_Vector_val@UBuffInfo@ioBuffCountSkill@@V?$allocator@UBuffInfo@ioBuffCountSkill@@@std@@@std@@@1@@Z PROC ; std::_Revranit<std::_Vector_iterator<std::_Vector_val<ioBuffCountSkill::BuffInfo,std::allocator<ioBuffCountSkill::BuffInfo> > >,std::iterator<std::random_access_iterator_tag,ioBuffCountSkill::BuffInfo,int,ioBuffCountSkill::BuffInfo *,ioBuffCountSkill::BuffInfo &> >::_Revranit<std::_Vector_iterator<std::_Vector_val<ioBuffCountSkill::BuffInfo,std::allocator<ioBuffCountSkill::BuffInfo> > >,std::iterator<std::random_access_iterator_tag,ioBuffCountSkill::BuffInfo,int,ioBuffCountSkill::BuffInfo *,ioBuffCountSkill::BuffInfo &> >, COMDAT
; _this$ = ecx

; 1027 : 		{	// construct wrapped iterator from _Right

  00000	55		 push	 ebp
  00001	8b ec		 mov	 ebp, esp
  00003	8b c1		 mov	 eax, ecx
  00005	8b 4d 08	 mov	 ecx, DWORD PTR __Right$[ebp]
  00008	89 08		 mov	 DWORD PTR [eax], ecx

; 1028 : 		}

  0000a	5d		 pop	 ebp
  0000b	c2 04 00	 ret	 4
??0?$_Revranit@V?$_Vector_iterator@V?$_Vector_val@UBuffInfo@ioBuffCountSkill@@V?$allocator@UBuffInfo@ioBuffCountSkill@@@std@@@std@@@std@@U?$iterator@Urandom_access_iterator_tag@std@@UBuffInfo@ioBuffCountSkill@@HPAU34@AAU34@@2@@std@@QAE@V?$_Vector_iterator@V?$_Vector_val@UBuffInfo@ioBuffCountSkill@@V?$allocator@UBuffInfo@ioBuffCountSkill@@@std@@@std@@@1@@Z ENDP ; std::_Revranit<std::_Vector_iterator<std::_Vector_val<ioBuffCountSkill::BuffInfo,std::allocator<ioBuffCountSkill::BuffInfo> > >,std::iterator<std::random_access_iterator_tag,ioBuffCountSkill::BuffInfo,int,ioBuffCountSkill::BuffInfo *,ioBuffCountSkill::BuffInfo &> >::_Revranit<std::_Vector_iterator<std::_Vector_val<ioBuffCountSkill::BuffInfo,std::allocator<ioBuffCountSkill::BuffInfo> > >,std::iterator<std::random_access_iterator_tag,ioBuffCountSkill::BuffInfo,int,ioBuffCountSkill::BuffInfo *,ioBuffCountSkill::BuffInfo &> >
_TEXT	ENDS
PUBLIC	?max_size@?$allocator@UBuffInfo@ioBuffCountSkill@@@std@@QBEIXZ ; std::allocator<ioBuffCountSkill::BuffInfo>::max_size
; Function compile flags: /Ogsp
; File c:\program files (x86)\microsoft visual studio 10.0\vc\include\xmemory
;	COMDAT ?max_size@?$allocator@UBuffInfo@ioBuffCountSkill@@@std@@QBEIXZ
_TEXT	SEGMENT
?max_size@?$allocator@UBuffInfo@ioBuffCountSkill@@@std@@QBEIXZ PROC ; std::allocator<ioBuffCountSkill::BuffInfo>::max_size, COMDAT
; _this$ = ecx

; 218  : 		_SIZT _Count = (_SIZT)(-1) / sizeof (_Ty);
; 219  : 		return (0 < _Count ? _Count : 1);

  00000	b8 cc cc cc 0c	 mov	 eax, 214748364		; 0cccccccH

; 220  : 		}

  00005	c3		 ret	 0
?max_size@?$allocator@UBuffInfo@ioBuffCountSkill@@@std@@QBEIXZ ENDP ; std::allocator<ioBuffCountSkill::BuffInfo>::max_size
_TEXT	ENDS
PUBLIC	??$addressof@$$CBVioHashString@@@std@@YAPBVioHashString@@ABV1@@Z ; std::addressof<ioHashString const >
; Function compile flags: /Ogsp
;	COMDAT ??$addressof@$$CBVioHashString@@@std@@YAPBVioHashString@@ABV1@@Z
_TEXT	SEGMENT
__Val$ = 8						; size = 4
??$addressof@$$CBVioHashString@@@std@@YAPBVioHashString@@ABV1@@Z PROC ; std::addressof<ioHashString const >, COMDAT

; 110  : 	{	// return address of _Val

  00000	55		 push	 ebp
  00001	8b ec		 mov	 ebp, esp

; 111  : 	return ((_Ty *) &(char&)_Val);

  00003	8b 45 08	 mov	 eax, DWORD PTR __Val$[ebp]

; 112  : 	}

  00006	5d		 pop	 ebp
  00007	c3		 ret	 0
??$addressof@$$CBVioHashString@@@std@@YAPBVioHashString@@ABV1@@Z ENDP ; std::addressof<ioHashString const >
_TEXT	ENDS
PUBLIC	??$addressof@$$CBUBuffInfo@ioBuffCountSkill@@@std@@YAPBUBuffInfo@ioBuffCountSkill@@ABU12@@Z ; std::addressof<ioBuffCountSkill::BuffInfo const >
; Function compile flags: /Ogsp
;	COMDAT ??$addressof@$$CBUBuffInfo@ioBuffCountSkill@@@std@@YAPBUBuffInfo@ioBuffCountSkill@@ABU12@@Z
_TEXT	SEGMENT
__Val$ = 8						; size = 4
??$addressof@$$CBUBuffInfo@ioBuffCountSkill@@@std@@YAPBUBuffInfo@ioBuffCountSkill@@ABU12@@Z PROC ; std::addressof<ioBuffCountSkill::BuffInfo const >, COMDAT

; 110  : 	{	// return address of _Val

  00000	55		 push	 ebp
  00001	8b ec		 mov	 ebp, esp

; 111  : 	return ((_Ty *) &(char&)_Val);

  00003	8b 45 08	 mov	 eax, DWORD PTR __Val$[ebp]

; 112  : 	}

  00006	5d		 pop	 ebp
  00007	c3		 ret	 0
??$addressof@$$CBUBuffInfo@ioBuffCountSkill@@@std@@YAPBUBuffInfo@ioBuffCountSkill@@ABU12@@Z ENDP ; std::addressof<ioBuffCountSkill::BuffInfo const >
_TEXT	ENDS
PUBLIC	__TI2?AVbad_alloc@std@@
PUBLIC	??$_Allocate@UBuffInfo@ioBuffCountSkill@@@std@@YAPAUBuffInfo@ioBuffCountSkill@@IPAU12@@Z ; std::_Allocate<ioBuffCountSkill::BuffInfo>
PUBLIC	__CTA2?AVbad_alloc@std@@
PUBLIC	__CT??_R0?AVbad_alloc@std@@@8??0bad_alloc@std@@QAE@ABV01@@Z12
PUBLIC	??0bad_alloc@std@@QAE@ABV01@@Z			; std::bad_alloc::bad_alloc
PUBLIC	__CT??_R0?AVexception@std@@@8??0exception@std@@QAE@ABV01@@Z12
EXTRN	??2@YAPAXI@Z:PROC				; operator new
EXTRN	__CxxThrowException@8:PROC
EXTRN	??0exception@std@@QAE@ABV01@@Z:PROC		; std::exception::exception
;	COMDAT __CT??_R0?AVexception@std@@@8??0exception@std@@QAE@ABV01@@Z12
; File c:\program files (x86)\microsoft visual studio 10.0\vc\include\exception
xdata$x	SEGMENT
__CT??_R0?AVexception@std@@@8??0exception@std@@QAE@ABV01@@Z12 DD 00H
	DD	FLAT:??_R0?AVexception@std@@@8
	DD	00H
	DD	0ffffffffH
	ORG $+4
	DD	0cH
	DD	FLAT:??0exception@std@@QAE@ABV01@@Z
xdata$x	ENDS
;	COMDAT __CT??_R0?AVbad_alloc@std@@@8??0bad_alloc@std@@QAE@ABV01@@Z12
xdata$x	SEGMENT
__CT??_R0?AVbad_alloc@std@@@8??0bad_alloc@std@@QAE@ABV01@@Z12 DD 00H
	DD	FLAT:??_R0?AVbad_alloc@std@@@8
	DD	00H
	DD	0ffffffffH
	ORG $+4
	DD	0cH
	DD	FLAT:??0bad_alloc@std@@QAE@ABV01@@Z
xdata$x	ENDS
;	COMDAT __CTA2?AVbad_alloc@std@@
xdata$x	SEGMENT
__CTA2?AVbad_alloc@std@@ DD 02H
	DD	FLAT:__CT??_R0?AVbad_alloc@std@@@8??0bad_alloc@std@@QAE@ABV01@@Z12
	DD	FLAT:__CT??_R0?AVexception@std@@@8??0exception@std@@QAE@ABV01@@Z12
xdata$x	ENDS
;	COMDAT __TI2?AVbad_alloc@std@@
xdata$x	SEGMENT
__TI2?AVbad_alloc@std@@ DD 00H
	DD	FLAT:??1bad_alloc@std@@UAE@XZ
	DD	00H
	DD	FLAT:__CTA2?AVbad_alloc@std@@
; Function compile flags: /Ogsp
; File c:\program files (x86)\microsoft visual studio 10.0\vc\include\xmemory
xdata$x	ENDS
;	COMDAT ??$_Allocate@UBuffInfo@ioBuffCountSkill@@@std@@YAPAUBuffInfo@ioBuffCountSkill@@IPAU12@@Z
_TEXT	SEGMENT
$T534576 = -12						; size = 12
$T534581 = 8						; size = 4
__Count$ = 8						; size = 4
___formal$ = 12						; size = 4
??$_Allocate@UBuffInfo@ioBuffCountSkill@@@std@@YAPAUBuffInfo@ioBuffCountSkill@@IPAU12@@Z PROC ; std::_Allocate<ioBuffCountSkill::BuffInfo>, COMDAT

; 30   : 	{	// allocate storage for _Count elements of type _Ty

  00000	55		 push	 ebp
  00001	8b ec		 mov	 ebp, esp

; 31   : 	void *_Ptr = 0;
; 32   : 
; 33   : 	if (_Count <= 0)

  00003	8b 4d 08	 mov	 ecx, DWORD PTR __Count$[ebp]
  00006	83 ec 0c	 sub	 esp, 12			; 0000000cH
  00009	33 c0		 xor	 eax, eax
  0000b	85 c9		 test	 ecx, ecx

; 34   : 		_Count = 0;
; 35   : 	else if (((_SIZT)(-1) / sizeof (_Ty) < _Count)

  0000d	74 3c		 je	 SHORT $LN5@Allocate

; 36   : 		|| (_Ptr = ::operator new(_Count * sizeof (_Ty))) == 0)

  0000f	81 f9 cc cc cc
	0c		 cmp	 ecx, 214748364		; 0cccccccH
  00015	77 0e		 ja	 SHORT $LN1@Allocate
  00017	6b c9 14	 imul	 ecx, 20			; 00000014H
  0001a	51		 push	 ecx
  0001b	e8 00 00 00 00	 call	 ??2@YAPAXI@Z		; operator new
  00020	59		 pop	 ecx
  00021	85 c0		 test	 eax, eax

; 38   : 
; 39   : 	return ((_Ty _FARQ *)_Ptr);

  00023	75 26		 jne	 SHORT $LN5@Allocate
$LN1@Allocate:

; 37   : 		_THROW_NCEE(bad_alloc, 0);

  00025	83 65 08 00	 and	 DWORD PTR $T534581[ebp], 0
  00029	8d 45 08	 lea	 eax, DWORD PTR $T534581[ebp]
  0002c	50		 push	 eax
  0002d	8d 4d f4	 lea	 ecx, DWORD PTR $T534576[ebp]
  00030	ff 15 00 00 00
	00		 call	 DWORD PTR __imp_??0exception@std@@QAE@ABQBD@Z
  00036	68 00 00 00 00	 push	 OFFSET __TI2?AVbad_alloc@std@@
  0003b	8d 45 f4	 lea	 eax, DWORD PTR $T534576[ebp]
  0003e	50		 push	 eax
  0003f	c7 45 f4 00 00
	00 00		 mov	 DWORD PTR $T534576[ebp], OFFSET ??_7bad_alloc@std@@6B@
  00046	e8 00 00 00 00	 call	 __CxxThrowException@8
$LN10@Allocate:
$LN5@Allocate:

; 40   : 	}

  0004b	c9		 leave
  0004c	c3		 ret	 0
$LN9@Allocate:
??$_Allocate@UBuffInfo@ioBuffCountSkill@@@std@@YAPAUBuffInfo@ioBuffCountSkill@@IPAU12@@Z ENDP ; std::_Allocate<ioBuffCountSkill::BuffInfo>
_TEXT	ENDS
PUBLIC	?_Compat@?$_Vector_const_iterator@V?$_Vector_val@UBuffInfo@ioBuffCountSkill@@V?$allocator@UBuffInfo@ioBuffCountSkill@@@std@@@std@@@std@@QBEXABV12@@Z ; std::_Vector_const_iterator<std::_Vector_val<ioBuffCountSkill::BuffInfo,std::allocator<ioBuffCountSkill::BuffInfo> > >::_Compat
; Function compile flags: /Ogsp
; File c:\program files (x86)\microsoft visual studio 10.0\vc\include\vector
;	COMDAT ?_Compat@?$_Vector_const_iterator@V?$_Vector_val@UBuffInfo@ioBuffCountSkill@@V?$allocator@UBuffInfo@ioBuffCountSkill@@@std@@@std@@@std@@QBEXABV12@@Z
_TEXT	SEGMENT
___formal$ = 8						; size = 4
?_Compat@?$_Vector_const_iterator@V?$_Vector_val@UBuffInfo@ioBuffCountSkill@@V?$allocator@UBuffInfo@ioBuffCountSkill@@@std@@@std@@@std@@QBEXABV12@@Z PROC ; std::_Vector_const_iterator<std::_Vector_val<ioBuffCountSkill::BuffInfo,std::allocator<ioBuffCountSkill::BuffInfo> > >::_Compat, COMDAT
; _this$ = ecx

; 253  : 		}

  00000	c2 04 00	 ret	 4
?_Compat@?$_Vector_const_iterator@V?$_Vector_val@UBuffInfo@ioBuffCountSkill@@V?$allocator@UBuffInfo@ioBuffCountSkill@@@std@@@std@@@std@@QBEXABV12@@Z ENDP ; std::_Vector_const_iterator<std::_Vector_val<ioBuffCountSkill::BuffInfo,std::allocator<ioBuffCountSkill::BuffInfo> > >::_Compat
_TEXT	ENDS
PUBLIC	??$_Copy_impl@PAVioHashString@@PAV1@@std@@YAPAVioHashString@@PAV1@00U_Nonscalar_ptr_iterator_tag@0@@Z ; std::_Copy_impl<ioHashString *,ioHashString *>
EXTRN	__imp_??4ioHashString@@QAEAAV0@ABV0@@Z:PROC
; Function compile flags: /Ogsp
; File c:\program files (x86)\microsoft visual studio 10.0\vc\include\xutility
;	COMDAT ??$_Copy_impl@PAVioHashString@@PAV1@@std@@YAPAVioHashString@@PAV1@00U_Nonscalar_ptr_iterator_tag@0@@Z
_TEXT	SEGMENT
__First$ = 8						; size = 4
__Last$ = 12						; size = 4
__Dest$ = 16						; size = 4
___formal$ = 20						; size = 1
??$_Copy_impl@PAVioHashString@@PAV1@@std@@YAPAVioHashString@@PAV1@00U_Nonscalar_ptr_iterator_tag@0@@Z PROC ; std::_Copy_impl<ioHashString *,ioHashString *>, COMDAT

; 2142 : 	{	// copy [_First, _Last) to [_Dest, ...), arbitrary iterators

  00000	55		 push	 ebp
  00001	8b ec		 mov	 ebp, esp
  00003	56		 push	 esi

; 2143 : 	for (; _First != _Last; ++_Dest, ++_First)

  00004	8b 75 08	 mov	 esi, DWORD PTR __First$[ebp]
  00007	eb 11		 jmp	 SHORT $LN9@Copy_impl
$LL3@Copy_impl:

; 2144 : 		*_Dest = *_First;

  00009	8b 4d 10	 mov	 ecx, DWORD PTR __Dest$[ebp]
  0000c	56		 push	 esi
  0000d	ff 15 00 00 00
	00		 call	 DWORD PTR __imp_??4ioHashString@@QAEAAV0@ABV0@@Z
  00013	83 45 10 10	 add	 DWORD PTR __Dest$[ebp], 16 ; 00000010H
  00017	83 c6 10	 add	 esi, 16			; 00000010H
$LN9@Copy_impl:

; 2143 : 	for (; _First != _Last; ++_Dest, ++_First)

  0001a	3b 75 0c	 cmp	 esi, DWORD PTR __Last$[ebp]
  0001d	75 ea		 jne	 SHORT $LL3@Copy_impl

; 2145 : 	return (_Dest);

  0001f	8b 45 10	 mov	 eax, DWORD PTR __Dest$[ebp]
  00022	5e		 pop	 esi

; 2146 : 	}

  00023	5d		 pop	 ebp
  00024	c3		 ret	 0
??$_Copy_impl@PAVioHashString@@PAV1@@std@@YAPAVioHashString@@PAV1@00U_Nonscalar_ptr_iterator_tag@0@@Z ENDP ; std::_Copy_impl<ioHashString *,ioHashString *>
_TEXT	ENDS
PUBLIC	??$forward@AAUBuffInfo@ioBuffCountSkill@@@std@@YAAAUBuffInfo@ioBuffCountSkill@@AAU12@@Z ; std::forward<ioBuffCountSkill::BuffInfo &>
; Function compile flags: /Ogsp
; File c:\program files (x86)\microsoft visual studio 10.0\vc\include\utility
;	COMDAT ??$forward@AAUBuffInfo@ioBuffCountSkill@@@std@@YAAAUBuffInfo@ioBuffCountSkill@@AAU12@@Z
_TEXT	SEGMENT
__Arg$ = 8						; size = 4
??$forward@AAUBuffInfo@ioBuffCountSkill@@@std@@YAAAUBuffInfo@ioBuffCountSkill@@AAU12@@Z PROC ; std::forward<ioBuffCountSkill::BuffInfo &>, COMDAT

; 78   : 	{	// forward _Arg, given explicitly specified type parameter

  00000	55		 push	 ebp
  00001	8b ec		 mov	 ebp, esp

; 79   : 	return ((_Ty&&)_Arg);

  00003	8b 45 08	 mov	 eax, DWORD PTR __Arg$[ebp]

; 80   : 	}

  00006	5d		 pop	 ebp
  00007	c3		 ret	 0
??$forward@AAUBuffInfo@ioBuffCountSkill@@@std@@YAAAUBuffInfo@ioBuffCountSkill@@AAU12@@Z ENDP ; std::forward<ioBuffCountSkill::BuffInfo &>
_TEXT	ENDS
PUBLIC	??$forward@ABUBuffInfo@ioBuffCountSkill@@@std@@YAABUBuffInfo@ioBuffCountSkill@@ABU12@@Z ; std::forward<ioBuffCountSkill::BuffInfo const &>
; Function compile flags: /Ogsp
;	COMDAT ??$forward@ABUBuffInfo@ioBuffCountSkill@@@std@@YAABUBuffInfo@ioBuffCountSkill@@ABU12@@Z
_TEXT	SEGMENT
__Arg$ = 8						; size = 4
??$forward@ABUBuffInfo@ioBuffCountSkill@@@std@@YAABUBuffInfo@ioBuffCountSkill@@ABU12@@Z PROC ; std::forward<ioBuffCountSkill::BuffInfo const &>, COMDAT

; 78   : 	{	// forward _Arg, given explicitly specified type parameter

  00000	55		 push	 ebp
  00001	8b ec		 mov	 ebp, esp

; 79   : 	return ((_Ty&&)_Arg);

  00003	8b 45 08	 mov	 eax, DWORD PTR __Arg$[ebp]

; 80   : 	}

  00006	5d		 pop	 ebp
  00007	c3		 ret	 0
??$forward@ABUBuffInfo@ioBuffCountSkill@@@std@@YAABUBuffInfo@ioBuffCountSkill@@ABU12@@Z ENDP ; std::forward<ioBuffCountSkill::BuffInfo const &>
_TEXT	ENDS
PUBLIC	??$_Ptr_cat@UBuffInfo@ioBuffCountSkill@@U12@@std@@YA?AU_Nonscalar_ptr_iterator_tag@0@PAUBuffInfo@ioBuffCountSkill@@0@Z ; std::_Ptr_cat<ioBuffCountSkill::BuffInfo,ioBuffCountSkill::BuffInfo>
; Function compile flags: /Ogsp
; File c:\program files (x86)\microsoft visual studio 10.0\vc\include\xutility
;	COMDAT ??$_Ptr_cat@UBuffInfo@ioBuffCountSkill@@U12@@std@@YA?AU_Nonscalar_ptr_iterator_tag@0@PAUBuffInfo@ioBuffCountSkill@@0@Z
_TEXT	SEGMENT
__Cat$ = -1						; size = 1
___formal$ = 8						; size = 4
___formal$ = 12						; size = 4
??$_Ptr_cat@UBuffInfo@ioBuffCountSkill@@U12@@std@@YA?AU_Nonscalar_ptr_iterator_tag@0@PAUBuffInfo@ioBuffCountSkill@@0@Z PROC ; std::_Ptr_cat<ioBuffCountSkill::BuffInfo,ioBuffCountSkill::BuffInfo>, COMDAT

; 516  : 	{	// return pointer category from pointers

  00000	55		 push	 ebp
  00001	8b ec		 mov	 ebp, esp
  00003	51		 push	 ecx

; 517  : 	typename _Ptr_cat_helper<_Elem1, _Elem2>::_Type _Cat;
; 518  : 	return (_Cat);

  00004	8a 45 ff	 mov	 al, BYTE PTR __Cat$[ebp]

; 519  : 	}

  00007	c9		 leave
  00008	c3		 ret	 0
??$_Ptr_cat@UBuffInfo@ioBuffCountSkill@@U12@@std@@YA?AU_Nonscalar_ptr_iterator_tag@0@PAUBuffInfo@ioBuffCountSkill@@0@Z ENDP ; std::_Ptr_cat<ioBuffCountSkill::BuffInfo,ioBuffCountSkill::BuffInfo>
_TEXT	ENDS
PUBLIC	?_Unchecked@?$_Vector_iterator@V?$_Vector_val@UBuffInfo@ioBuffCountSkill@@V?$allocator@UBuffInfo@ioBuffCountSkill@@@std@@@std@@@std@@QBEPAUBuffInfo@ioBuffCountSkill@@XZ ; std::_Vector_iterator<std::_Vector_val<ioBuffCountSkill::BuffInfo,std::allocator<ioBuffCountSkill::BuffInfo> > >::_Unchecked
; Function compile flags: /Ogsp
; File c:\program files (x86)\microsoft visual studio 10.0\vc\include\vector
;	COMDAT ?_Unchecked@?$_Vector_iterator@V?$_Vector_val@UBuffInfo@ioBuffCountSkill@@V?$allocator@UBuffInfo@ioBuffCountSkill@@@std@@@std@@@std@@QBEPAUBuffInfo@ioBuffCountSkill@@XZ
_TEXT	SEGMENT
?_Unchecked@?$_Vector_iterator@V?$_Vector_val@UBuffInfo@ioBuffCountSkill@@V?$allocator@UBuffInfo@ioBuffCountSkill@@@std@@@std@@@std@@QBEPAUBuffInfo@ioBuffCountSkill@@XZ PROC ; std::_Vector_iterator<std::_Vector_val<ioBuffCountSkill::BuffInfo,std::allocator<ioBuffCountSkill::BuffInfo> > >::_Unchecked, COMDAT
; _this$ = ecx

; 317  : 		return (_Unchecked_type(this->_Ptr));

  00000	8b 01		 mov	 eax, DWORD PTR [ecx]

; 318  : 		}

  00002	c3		 ret	 0
?_Unchecked@?$_Vector_iterator@V?$_Vector_val@UBuffInfo@ioBuffCountSkill@@V?$allocator@UBuffInfo@ioBuffCountSkill@@@std@@@std@@@std@@QBEPAUBuffInfo@ioBuffCountSkill@@XZ ENDP ; std::_Vector_iterator<std::_Vector_val<ioBuffCountSkill::BuffInfo,std::allocator<ioBuffCountSkill::BuffInfo> > >::_Unchecked
_TEXT	ENDS
PUBLIC	??$_Ptr_cat@V?$_Vector_const_iterator@V?$_Vector_val@UBuffInfo@ioBuffCountSkill@@V?$allocator@UBuffInfo@ioBuffCountSkill@@@std@@@std@@@std@@PAUBuffInfo@ioBuffCountSkill@@@std@@YA?AU_Nonscalar_ptr_iterator_tag@0@AAV?$_Vector_const_iterator@V?$_Vector_val@UBuffInfo@ioBuffCountSkill@@V?$allocator@UBuffInfo@ioBuffCountSkill@@@std@@@std@@@0@AAPAUBuffInfo@ioBuffCountSkill@@@Z ; std::_Ptr_cat<std::_Vector_const_iterator<std::_Vector_val<ioBuffCountSkill::BuffInfo,std::allocator<ioBuffCountSkill::BuffInfo> > >,ioBuffCountSkill::BuffInfo *>
; Function compile flags: /Ogsp
; File c:\program files (x86)\microsoft visual studio 10.0\vc\include\xutility
;	COMDAT ??$_Ptr_cat@V?$_Vector_const_iterator@V?$_Vector_val@UBuffInfo@ioBuffCountSkill@@V?$allocator@UBuffInfo@ioBuffCountSkill@@@std@@@std@@@std@@PAUBuffInfo@ioBuffCountSkill@@@std@@YA?AU_Nonscalar_ptr_iterator_tag@0@AAV?$_Vector_const_iterator@V?$_Vector_val@UBuffInfo@ioBuffCountSkill@@V?$allocator@UBuffInfo@ioBuffCountSkill@@@std@@@std@@@0@AAPAUBuffInfo@ioBuffCountSkill@@@Z
_TEXT	SEGMENT
__Cat$ = -1						; size = 1
___formal$ = 8						; size = 4
___formal$ = 12						; size = 4
??$_Ptr_cat@V?$_Vector_const_iterator@V?$_Vector_val@UBuffInfo@ioBuffCountSkill@@V?$allocator@UBuffInfo@ioBuffCountSkill@@@std@@@std@@@std@@PAUBuffInfo@ioBuffCountSkill@@@std@@YA?AU_Nonscalar_ptr_iterator_tag@0@AAV?$_Vector_const_iterator@V?$_Vector_val@UBuffInfo@ioBuffCountSkill@@V?$allocator@UBuffInfo@ioBuffCountSkill@@@std@@@std@@@0@AAPAUBuffInfo@ioBuffCountSkill@@@Z PROC ; std::_Ptr_cat<std::_Vector_const_iterator<std::_Vector_val<ioBuffCountSkill::BuffInfo,std::allocator<ioBuffCountSkill::BuffInfo> > >,ioBuffCountSkill::BuffInfo *>, COMDAT

; 485  : 	{	// return pointer category from arbitrary arguments

  00000	55		 push	 ebp
  00001	8b ec		 mov	 ebp, esp
  00003	51		 push	 ecx

; 486  : 	_Nonscalar_ptr_iterator_tag _Cat;
; 487  : 	return (_Cat);

  00004	8a 45 ff	 mov	 al, BYTE PTR __Cat$[ebp]

; 488  : 	}

  00007	c9		 leave
  00008	c3		 ret	 0
??$_Ptr_cat@V?$_Vector_const_iterator@V?$_Vector_val@UBuffInfo@ioBuffCountSkill@@V?$allocator@UBuffInfo@ioBuffCountSkill@@@std@@@std@@@std@@PAUBuffInfo@ioBuffCountSkill@@@std@@YA?AU_Nonscalar_ptr_iterator_tag@0@AAV?$_Vector_const_iterator@V?$_Vector_val@UBuffInfo@ioBuffCountSkill@@V?$allocator@UBuffInfo@ioBuffCountSkill@@@std@@@std@@@0@AAPAUBuffInfo@ioBuffCountSkill@@@Z ENDP ; std::_Ptr_cat<std::_Vector_const_iterator<std::_Vector_val<ioBuffCountSkill::BuffInfo,std::allocator<ioBuffCountSkill::BuffInfo> > >,ioBuffCountSkill::BuffInfo *>
_TEXT	ENDS
PUBLIC	??$_Val_type@PAVioHashString@@@std@@YAPAVioHashString@@PAV1@@Z ; std::_Val_type<ioHashString *>
; Function compile flags: /Ogsp
;	COMDAT ??$_Val_type@PAVioHashString@@@std@@YAPAVioHashString@@PAV1@@Z
_TEXT	SEGMENT
___formal$ = 8						; size = 4
??$_Val_type@PAVioHashString@@@std@@YAPAVioHashString@@PAV1@@Z PROC ; std::_Val_type<ioHashString *>, COMDAT

; 790  : 	return (0);

  00000	33 c0		 xor	 eax, eax

; 791  : 	}

  00002	c3		 ret	 0
??$_Val_type@PAVioHashString@@@std@@YAPAVioHashString@@PAV1@@Z ENDP ; std::_Val_type<ioHashString *>
_TEXT	ENDS
PUBLIC	??$_Val_type@PAUBuffInfo@ioBuffCountSkill@@@std@@YAPAUBuffInfo@ioBuffCountSkill@@PAU12@@Z ; std::_Val_type<ioBuffCountSkill::BuffInfo *>
; Function compile flags: /Ogsp
;	COMDAT ??$_Val_type@PAUBuffInfo@ioBuffCountSkill@@@std@@YAPAUBuffInfo@ioBuffCountSkill@@PAU12@@Z
_TEXT	SEGMENT
___formal$ = 8						; size = 4
??$_Val_type@PAUBuffInfo@ioBuffCountSkill@@@std@@YAPAUBuffInfo@ioBuffCountSkill@@PAU12@@Z PROC ; std::_Val_type<ioBuffCountSkill::BuffInfo *>, COMDAT

; 790  : 	return (0);

  00000	33 c0		 xor	 eax, eax

; 791  : 	}

  00002	c3		 ret	 0
??$_Val_type@PAUBuffInfo@ioBuffCountSkill@@@std@@YAPAUBuffInfo@ioBuffCountSkill@@PAU12@@Z ENDP ; std::_Val_type<ioBuffCountSkill::BuffInfo *>
_TEXT	ENDS
PUBLIC	??E?$_Vector_const_iterator@V?$_Vector_val@UBuffInfo@ioBuffCountSkill@@V?$allocator@UBuffInfo@ioBuffCountSkill@@@std@@@std@@@std@@QAEAAV01@XZ ; std::_Vector_const_iterator<std::_Vector_val<ioBuffCountSkill::BuffInfo,std::allocator<ioBuffCountSkill::BuffInfo> > >::operator++
; Function compile flags: /Ogsp
; File c:\program files (x86)\microsoft visual studio 10.0\vc\include\vector
;	COMDAT ??E?$_Vector_const_iterator@V?$_Vector_val@UBuffInfo@ioBuffCountSkill@@V?$allocator@UBuffInfo@ioBuffCountSkill@@@std@@@std@@@std@@QAEAAV01@XZ
_TEXT	SEGMENT
??E?$_Vector_const_iterator@V?$_Vector_val@UBuffInfo@ioBuffCountSkill@@V?$allocator@UBuffInfo@ioBuffCountSkill@@@std@@@std@@@std@@QAEAAV01@XZ PROC ; std::_Vector_const_iterator<std::_Vector_val<ioBuffCountSkill::BuffInfo,std::allocator<ioBuffCountSkill::BuffInfo> > >::operator++, COMDAT
; _this$ = ecx

; 93   : 		{	// preincrement

  00000	8b c1		 mov	 eax, ecx

; 94   :  #if _ITERATOR_DEBUG_LEVEL == 2
; 95   : 		if (this->_Getcont() == 0
; 96   : 			|| this->_Ptr == 0
; 97   : 			|| ((_Myvec *)this->_Getcont())->_Mylast <= this->_Ptr)
; 98   : 			{	// report error
; 99   : 			_DEBUG_ERROR("vector iterator not incrementable");
; 100  : 			_SCL_SECURE_OUT_OF_RANGE;
; 101  : 			}
; 102  : 
; 103  :  #elif _ITERATOR_DEBUG_LEVEL == 1
; 104  : 		_SCL_SECURE_VALIDATE(this->_Getcont() != 0);
; 105  : 		_SCL_SECURE_VALIDATE_RANGE(
; 106  : 			this->_Ptr != 0
; 107  : 			&& this->_Ptr < ((_Myvec *)this->_Getcont())->_Mylast);
; 108  :  #endif /* _ITERATOR_DEBUG_LEVEL */
; 109  : 
; 110  : 		++this->_Ptr;

  00002	83 00 14	 add	 DWORD PTR [eax], 20	; 00000014H

; 111  : 		return (*this);
; 112  : 		}

  00005	c3		 ret	 0
??E?$_Vector_const_iterator@V?$_Vector_val@UBuffInfo@ioBuffCountSkill@@V?$allocator@UBuffInfo@ioBuffCountSkill@@@std@@@std@@@std@@QAEAAV01@XZ ENDP ; std::_Vector_const_iterator<std::_Vector_val<ioBuffCountSkill::BuffInfo,std::allocator<ioBuffCountSkill::BuffInfo> > >::operator++
_TEXT	ENDS
PUBLIC	??8?$_Vector_const_iterator@V?$_Vector_val@UBuffInfo@ioBuffCountSkill@@V?$allocator@UBuffInfo@ioBuffCountSkill@@@std@@@std@@@std@@QBE_NABV01@@Z ; std::_Vector_const_iterator<std::_Vector_val<ioBuffCountSkill::BuffInfo,std::allocator<ioBuffCountSkill::BuffInfo> > >::operator==
; Function compile flags: /Ogsp
;	COMDAT ??8?$_Vector_const_iterator@V?$_Vector_val@UBuffInfo@ioBuffCountSkill@@V?$allocator@UBuffInfo@ioBuffCountSkill@@@std@@@std@@@std@@QBE_NABV01@@Z
_TEXT	SEGMENT
__Right$ = 8						; size = 4
??8?$_Vector_const_iterator@V?$_Vector_val@UBuffInfo@ioBuffCountSkill@@V?$allocator@UBuffInfo@ioBuffCountSkill@@@std@@@std@@@std@@QBE_NABV01@@Z PROC ; std::_Vector_const_iterator<std::_Vector_val<ioBuffCountSkill::BuffInfo,std::allocator<ioBuffCountSkill::BuffInfo> > >::operator==, COMDAT
; _this$ = ecx

; 201  : 		{	// test for iterator equality

  00000	55		 push	 ebp
  00001	8b ec		 mov	 ebp, esp

; 202  : 		_Compat(_Right);
; 203  : 		return (this->_Ptr == _Right._Ptr);

  00003	8b 01		 mov	 eax, DWORD PTR [ecx]
  00005	8b 4d 08	 mov	 ecx, DWORD PTR __Right$[ebp]
  00008	2b 01		 sub	 eax, DWORD PTR [ecx]
  0000a	f7 d8		 neg	 eax
  0000c	1b c0		 sbb	 eax, eax
  0000e	40		 inc	 eax

; 204  : 		}

  0000f	5d		 pop	 ebp
  00010	c2 04 00	 ret	 4
??8?$_Vector_const_iterator@V?$_Vector_val@UBuffInfo@ioBuffCountSkill@@V?$allocator@UBuffInfo@ioBuffCountSkill@@@std@@@std@@@std@@QBE_NABV01@@Z ENDP ; std::_Vector_const_iterator<std::_Vector_val<ioBuffCountSkill::BuffInfo,std::allocator<ioBuffCountSkill::BuffInfo> > >::operator==
_TEXT	ENDS
PUBLIC	??9?$_Vector_const_iterator@V?$_Vector_val@UBuffInfo@ioBuffCountSkill@@V?$allocator@UBuffInfo@ioBuffCountSkill@@@std@@@std@@@std@@QBE_NABV01@@Z ; std::_Vector_const_iterator<std::_Vector_val<ioBuffCountSkill::BuffInfo,std::allocator<ioBuffCountSkill::BuffInfo> > >::operator!=
; Function compile flags: /Ogsp
;	COMDAT ??9?$_Vector_const_iterator@V?$_Vector_val@UBuffInfo@ioBuffCountSkill@@V?$allocator@UBuffInfo@ioBuffCountSkill@@@std@@@std@@@std@@QBE_NABV01@@Z
_TEXT	SEGMENT
__Right$ = 8						; size = 4
??9?$_Vector_const_iterator@V?$_Vector_val@UBuffInfo@ioBuffCountSkill@@V?$allocator@UBuffInfo@ioBuffCountSkill@@@std@@@std@@@std@@QBE_NABV01@@Z PROC ; std::_Vector_const_iterator<std::_Vector_val<ioBuffCountSkill::BuffInfo,std::allocator<ioBuffCountSkill::BuffInfo> > >::operator!=, COMDAT
; _this$ = ecx

; 207  : 		{	// test for iterator inequality

  00000	55		 push	 ebp
  00001	8b ec		 mov	 ebp, esp

; 208  : 		return (!(*this == _Right));

  00003	8b 01		 mov	 eax, DWORD PTR [ecx]
  00005	8b 55 08	 mov	 edx, DWORD PTR __Right$[ebp]
  00008	33 c9		 xor	 ecx, ecx
  0000a	3b 02		 cmp	 eax, DWORD PTR [edx]
  0000c	0f 95 c0	 setne	 al

; 209  : 		}

  0000f	5d		 pop	 ebp
  00010	c2 04 00	 ret	 4
??9?$_Vector_const_iterator@V?$_Vector_val@UBuffInfo@ioBuffCountSkill@@V?$allocator@UBuffInfo@ioBuffCountSkill@@@std@@@std@@@std@@QBE_NABV01@@Z ENDP ; std::_Vector_const_iterator<std::_Vector_val<ioBuffCountSkill::BuffInfo,std::allocator<ioBuffCountSkill::BuffInfo> > >::operator!=
_TEXT	ENDS
PUBLIC	?base@?$_Revranit@V?$_Vector_iterator@V?$_Vector_val@UBuffInfo@ioBuffCountSkill@@V?$allocator@UBuffInfo@ioBuffCountSkill@@@std@@@std@@@std@@U?$iterator@Urandom_access_iterator_tag@std@@UBuffInfo@ioBuffCountSkill@@HPAU34@AAU34@@2@@std@@QBE?AV?$_Vector_iterator@V?$_Vector_val@UBuffInfo@ioBuffCountSkill@@V?$allocator@UBuffInfo@ioBuffCountSkill@@@std@@@std@@@2@XZ ; std::_Revranit<std::_Vector_iterator<std::_Vector_val<ioBuffCountSkill::BuffInfo,std::allocator<ioBuffCountSkill::BuffInfo> > >,std::iterator<std::random_access_iterator_tag,ioBuffCountSkill::BuffInfo,int,ioBuffCountSkill::BuffInfo *,ioBuffCountSkill::BuffInfo &> >::base
; Function compile flags: /Ogsp
; File c:\program files (x86)\microsoft visual studio 10.0\vc\include\xutility
;	COMDAT ?base@?$_Revranit@V?$_Vector_iterator@V?$_Vector_val@UBuffInfo@ioBuffCountSkill@@V?$allocator@UBuffInfo@ioBuffCountSkill@@@std@@@std@@@std@@U?$iterator@Urandom_access_iterator_tag@std@@UBuffInfo@ioBuffCountSkill@@HPAU34@AAU34@@2@@std@@QBE?AV?$_Vector_iterator@V?$_Vector_val@UBuffInfo@ioBuffCountSkill@@V?$allocator@UBuffInfo@ioBuffCountSkill@@@std@@@std@@@2@XZ
_TEXT	SEGMENT
___$ReturnUdt$ = 8					; size = 4
?base@?$_Revranit@V?$_Vector_iterator@V?$_Vector_val@UBuffInfo@ioBuffCountSkill@@V?$allocator@UBuffInfo@ioBuffCountSkill@@@std@@@std@@@std@@U?$iterator@Urandom_access_iterator_tag@std@@UBuffInfo@ioBuffCountSkill@@HPAU34@AAU34@@2@@std@@QBE?AV?$_Vector_iterator@V?$_Vector_val@UBuffInfo@ioBuffCountSkill@@V?$allocator@UBuffInfo@ioBuffCountSkill@@@std@@@std@@@2@XZ PROC ; std::_Revranit<std::_Vector_iterator<std::_Vector_val<ioBuffCountSkill::BuffInfo,std::allocator<ioBuffCountSkill::BuffInfo> > >,std::iterator<std::random_access_iterator_tag,ioBuffCountSkill::BuffInfo,int,ioBuffCountSkill::BuffInfo *,ioBuffCountSkill::BuffInfo &> >::base, COMDAT
; _this$ = ecx

; 1038 : 		{	// return wrapped iterator

  00000	55		 push	 ebp
  00001	8b ec		 mov	 ebp, esp

; 1039 : 		return (current);

  00003	8b 09		 mov	 ecx, DWORD PTR [ecx]
  00005	8b 45 08	 mov	 eax, DWORD PTR ___$ReturnUdt$[ebp]
  00008	89 08		 mov	 DWORD PTR [eax], ecx

; 1040 : 		}

  0000a	5d		 pop	 ebp
  0000b	c2 04 00	 ret	 4
?base@?$_Revranit@V?$_Vector_iterator@V?$_Vector_val@UBuffInfo@ioBuffCountSkill@@V?$allocator@UBuffInfo@ioBuffCountSkill@@@std@@@std@@@std@@U?$iterator@Urandom_access_iterator_tag@std@@UBuffInfo@ioBuffCountSkill@@HPAU34@AAU34@@2@@std@@QBE?AV?$_Vector_iterator@V?$_Vector_val@UBuffInfo@ioBuffCountSkill@@V?$allocator@UBuffInfo@ioBuffCountSkill@@@std@@@std@@@2@XZ ENDP ; std::_Revranit<std::_Vector_iterator<std::_Vector_val<ioBuffCountSkill::BuffInfo,std::allocator<ioBuffCountSkill::BuffInfo> > >,std::iterator<std::random_access_iterator_tag,ioBuffCountSkill::BuffInfo,int,ioBuffCountSkill::BuffInfo *,ioBuffCountSkill::BuffInfo &> >::base
_TEXT	ENDS
PUBLIC	??$_Unchecked@PAUBuffInfo@ioBuffCountSkill@@@std@@YAPAUBuffInfo@ioBuffCountSkill@@PAU12@@Z ; std::_Unchecked<ioBuffCountSkill::BuffInfo *>
; Function compile flags: /Ogsp
;	COMDAT ??$_Unchecked@PAUBuffInfo@ioBuffCountSkill@@@std@@YAPAUBuffInfo@ioBuffCountSkill@@PAU12@@Z
_TEXT	SEGMENT
__Src$ = 8						; size = 4
??$_Unchecked@PAUBuffInfo@ioBuffCountSkill@@@std@@YAPAUBuffInfo@ioBuffCountSkill@@PAU12@@Z PROC ; std::_Unchecked<ioBuffCountSkill::BuffInfo *>, COMDAT

; 266  : 	{	// construct unchecked from checked, generic

  00000	55		 push	 ebp
  00001	8b ec		 mov	 ebp, esp

; 267  : 	return (_Src);

  00003	8b 45 08	 mov	 eax, DWORD PTR __Src$[ebp]

; 268  : 	}

  00006	5d		 pop	 ebp
  00007	c3		 ret	 0
??$_Unchecked@PAUBuffInfo@ioBuffCountSkill@@@std@@YAPAUBuffInfo@ioBuffCountSkill@@PAU12@@Z ENDP ; std::_Unchecked<ioBuffCountSkill::BuffInfo *>
_TEXT	ENDS
PUBLIC	??$_Dist_type@PAUBuffInfo@ioBuffCountSkill@@@std@@YAPAHPAUBuffInfo@ioBuffCountSkill@@@Z ; std::_Dist_type<ioBuffCountSkill::BuffInfo *>
; Function compile flags: /Ogsp
;	COMDAT ??$_Dist_type@PAUBuffInfo@ioBuffCountSkill@@@std@@YAPAHPAUBuffInfo@ioBuffCountSkill@@@Z
_TEXT	SEGMENT
___formal$ = 8						; size = 4
??$_Dist_type@PAUBuffInfo@ioBuffCountSkill@@@std@@YAPAHPAUBuffInfo@ioBuffCountSkill@@@Z PROC ; std::_Dist_type<ioBuffCountSkill::BuffInfo *>, COMDAT

; 850  : 	return (0);

  00000	33 c0		 xor	 eax, eax

; 851  : 	}

  00002	c3		 ret	 0
??$_Dist_type@PAUBuffInfo@ioBuffCountSkill@@@std@@YAPAHPAUBuffInfo@ioBuffCountSkill@@@Z ENDP ; std::_Dist_type<ioBuffCountSkill::BuffInfo *>
_TEXT	ENDS
PUBLIC	??$forward@AAPAUBuffInfo@ioBuffCountSkill@@@std@@YAAAPAUBuffInfo@ioBuffCountSkill@@AAPAU12@@Z ; std::forward<ioBuffCountSkill::BuffInfo * &>
; Function compile flags: /Ogsp
; File c:\program files (x86)\microsoft visual studio 10.0\vc\include\utility
;	COMDAT ??$forward@AAPAUBuffInfo@ioBuffCountSkill@@@std@@YAAAPAUBuffInfo@ioBuffCountSkill@@AAPAU12@@Z
_TEXT	SEGMENT
__Arg$ = 8						; size = 4
??$forward@AAPAUBuffInfo@ioBuffCountSkill@@@std@@YAAAPAUBuffInfo@ioBuffCountSkill@@AAPAU12@@Z PROC ; std::forward<ioBuffCountSkill::BuffInfo * &>, COMDAT

; 78   : 	{	// forward _Arg, given explicitly specified type parameter

  00000	55		 push	 ebp
  00001	8b ec		 mov	 ebp, esp

; 79   : 	return ((_Ty&&)_Arg);

  00003	8b 45 08	 mov	 eax, DWORD PTR __Arg$[ebp]

; 80   : 	}

  00006	5d		 pop	 ebp
  00007	c3		 ret	 0
??$forward@AAPAUBuffInfo@ioBuffCountSkill@@@std@@YAAAPAUBuffInfo@ioBuffCountSkill@@AAPAU12@@Z ENDP ; std::forward<ioBuffCountSkill::BuffInfo * &>
_TEXT	ENDS
PUBLIC	??$?0AAPAUBuffInfo@ioBuffCountSkill@@AAPAU01@@?$_Pair_base@PAUBuffInfo@ioBuffCountSkill@@PAU12@@std@@QAE@AAPAUBuffInfo@ioBuffCountSkill@@0@Z ; std::_Pair_base<ioBuffCountSkill::BuffInfo *,ioBuffCountSkill::BuffInfo *>::_Pair_base<ioBuffCountSkill::BuffInfo *,ioBuffCountSkill::BuffInfo *><ioBuffCountSkill::BuffInfo * &,ioBuffCountSkill::BuffInfo * &>
; Function compile flags: /Ogsp
;	COMDAT ??$?0AAPAUBuffInfo@ioBuffCountSkill@@AAPAU01@@?$_Pair_base@PAUBuffInfo@ioBuffCountSkill@@PAU12@@std@@QAE@AAPAUBuffInfo@ioBuffCountSkill@@0@Z
_TEXT	SEGMENT
__Val1$ = 8						; size = 4
__Val2$ = 12						; size = 4
??$?0AAPAUBuffInfo@ioBuffCountSkill@@AAPAU01@@?$_Pair_base@PAUBuffInfo@ioBuffCountSkill@@PAU12@@std@@QAE@AAPAUBuffInfo@ioBuffCountSkill@@0@Z PROC ; std::_Pair_base<ioBuffCountSkill::BuffInfo *,ioBuffCountSkill::BuffInfo *>::_Pair_base<ioBuffCountSkill::BuffInfo *,ioBuffCountSkill::BuffInfo *><ioBuffCountSkill::BuffInfo * &,ioBuffCountSkill::BuffInfo * &>, COMDAT
; _this$ = ecx

; 163  : 		{	// construct from moved values

  00000	55		 push	 ebp
  00001	8b ec		 mov	 ebp, esp
  00003	8b c1		 mov	 eax, ecx
  00005	8b 4d 08	 mov	 ecx, DWORD PTR __Val1$[ebp]
  00008	8b 09		 mov	 ecx, DWORD PTR [ecx]
  0000a	89 08		 mov	 DWORD PTR [eax], ecx
  0000c	8b 4d 0c	 mov	 ecx, DWORD PTR __Val2$[ebp]
  0000f	8b 09		 mov	 ecx, DWORD PTR [ecx]
  00011	89 48 04	 mov	 DWORD PTR [eax+4], ecx

; 164  : 		}

  00014	5d		 pop	 ebp
  00015	c2 08 00	 ret	 8
??$?0AAPAUBuffInfo@ioBuffCountSkill@@AAPAU01@@?$_Pair_base@PAUBuffInfo@ioBuffCountSkill@@PAU12@@std@@QAE@AAPAUBuffInfo@ioBuffCountSkill@@0@Z ENDP ; std::_Pair_base<ioBuffCountSkill::BuffInfo *,ioBuffCountSkill::BuffInfo *>::_Pair_base<ioBuffCountSkill::BuffInfo *,ioBuffCountSkill::BuffInfo *><ioBuffCountSkill::BuffInfo * &,ioBuffCountSkill::BuffInfo * &>
_TEXT	ENDS
PUBLIC	??$_Move@AAUBuffInfo@ioBuffCountSkill@@@std@@YA$$QAUBuffInfo@ioBuffCountSkill@@AAU12@@Z ; std::_Move<ioBuffCountSkill::BuffInfo &>
; Function compile flags: /Ogsp
;	COMDAT ??$_Move@AAUBuffInfo@ioBuffCountSkill@@@std@@YA$$QAUBuffInfo@ioBuffCountSkill@@AAU12@@Z
_TEXT	SEGMENT
__Arg$ = 8						; size = 4
??$_Move@AAUBuffInfo@ioBuffCountSkill@@@std@@YA$$QAUBuffInfo@ioBuffCountSkill@@AAU12@@Z PROC ; std::_Move<ioBuffCountSkill::BuffInfo &>, COMDAT

; 94   : 	{	// forward _Arg as movable

  00000	55		 push	 ebp
  00001	8b ec		 mov	 ebp, esp

; 95   : 	return ((typename tr1::_Remove_reference<_Ty>::_Type&&)_Arg);

  00003	8b 45 08	 mov	 eax, DWORD PTR __Arg$[ebp]

; 96   : 	}

  00006	5d		 pop	 ebp
  00007	c3		 ret	 0
??$_Move@AAUBuffInfo@ioBuffCountSkill@@@std@@YA$$QAUBuffInfo@ioBuffCountSkill@@AAU12@@Z ENDP ; std::_Move<ioBuffCountSkill::BuffInfo &>
_TEXT	ENDS
PUBLIC	??$forward@VioHashString@@@std@@YA$$QAVioHashString@@AAV1@@Z ; std::forward<ioHashString>
; Function compile flags: /Ogsp
;	COMDAT ??$forward@VioHashString@@@std@@YA$$QAVioHashString@@AAV1@@Z
_TEXT	SEGMENT
__Arg$ = 8						; size = 4
??$forward@VioHashString@@@std@@YA$$QAVioHashString@@AAV1@@Z PROC ; std::forward<ioHashString>, COMDAT

; 78   : 	{	// forward _Arg, given explicitly specified type parameter

  00000	55		 push	 ebp
  00001	8b ec		 mov	 ebp, esp

; 79   : 	return ((_Ty&&)_Arg);

  00003	8b 45 08	 mov	 eax, DWORD PTR __Arg$[ebp]

; 80   : 	}

  00006	5d		 pop	 ebp
  00007	c3		 ret	 0
??$forward@VioHashString@@@std@@YA$$QAVioHashString@@AAV1@@Z ENDP ; std::forward<ioHashString>
_TEXT	ENDS
PUBLIC	??$forward@UBuffInfo@ioBuffCountSkill@@@std@@YA$$QAUBuffInfo@ioBuffCountSkill@@AAU12@@Z ; std::forward<ioBuffCountSkill::BuffInfo>
; Function compile flags: /Ogsp
;	COMDAT ??$forward@UBuffInfo@ioBuffCountSkill@@@std@@YA$$QAUBuffInfo@ioBuffCountSkill@@AAU12@@Z
_TEXT	SEGMENT
__Arg$ = 8						; size = 4
??$forward@UBuffInfo@ioBuffCountSkill@@@std@@YA$$QAUBuffInfo@ioBuffCountSkill@@AAU12@@Z PROC ; std::forward<ioBuffCountSkill::BuffInfo>, COMDAT

; 78   : 	{	// forward _Arg, given explicitly specified type parameter

  00000	55		 push	 ebp
  00001	8b ec		 mov	 ebp, esp

; 79   : 	return ((_Ty&&)_Arg);

  00003	8b 45 08	 mov	 eax, DWORD PTR __Arg$[ebp]

; 80   : 	}

  00006	5d		 pop	 ebp
  00007	c3		 ret	 0
??$forward@UBuffInfo@ioBuffCountSkill@@@std@@YA$$QAUBuffInfo@ioBuffCountSkill@@AAU12@@Z ENDP ; std::forward<ioBuffCountSkill::BuffInfo>
_TEXT	ENDS
PUBLIC	??$move@AAUBuffInfo@ioBuffCountSkill@@@std@@YA$$QAUBuffInfo@ioBuffCountSkill@@AAU12@@Z ; std::move<ioBuffCountSkill::BuffInfo &>
; Function compile flags: /Ogsp
;	COMDAT ??$move@AAUBuffInfo@ioBuffCountSkill@@@std@@YA$$QAUBuffInfo@ioBuffCountSkill@@AAU12@@Z
_TEXT	SEGMENT
__Arg$ = 8						; size = 4
??$move@AAUBuffInfo@ioBuffCountSkill@@@std@@YA$$QAUBuffInfo@ioBuffCountSkill@@AAU12@@Z PROC ; std::move<ioBuffCountSkill::BuffInfo &>, COMDAT

; 86   : 	{	// forward _Arg as movable

  00000	55		 push	 ebp
  00001	8b ec		 mov	 ebp, esp

; 87   : 	return ((typename tr1::_Remove_reference<_Ty>::_Type&&)_Arg);

  00003	8b 45 08	 mov	 eax, DWORD PTR __Arg$[ebp]

; 88   : 	}

  00006	5d		 pop	 ebp
  00007	c3		 ret	 0
??$move@AAUBuffInfo@ioBuffCountSkill@@@std@@YA$$QAUBuffInfo@ioBuffCountSkill@@AAU12@@Z ENDP ; std::move<ioBuffCountSkill::BuffInfo &>
_TEXT	ENDS
PUBLIC	??0D3DXQUATERNION@@QAE@XZ			; D3DXQUATERNION::D3DXQUATERNION
; Function compile flags: /Ogsp
; File c:\program files (x86)\microsoft directx sdk (june 2010)\include\d3dx9math.h
;	COMDAT ??0D3DXQUATERNION@@QAE@XZ
_TEXT	SEGMENT
??0D3DXQUATERNION@@QAE@XZ PROC				; D3DXQUATERNION::D3DXQUATERNION, COMDAT
; _this$ = ecx

; 429  :     D3DXQUATERNION() {}

  00000	8b c1		 mov	 eax, ecx
  00002	c3		 ret	 0
??0D3DXQUATERNION@@QAE@XZ ENDP				; D3DXQUATERNION::D3DXQUATERNION
_TEXT	ENDS
PUBLIC	?_DECSTR@@YAXPADH@Z				; _DECSTR
; Function compile flags: /Ogsp
; File d:\lost saga for developer\youtube\tutorial\source\src\lsclient\stringprotect.h
;	COMDAT ?_DECSTR@@YAXPADH@Z
_TEXT	SEGMENT
_s$ = 8							; size = 4
_l$ = 12						; size = 4
?_DECSTR@@YAXPADH@Z PROC				; _DECSTR, COMDAT

; 40   : __forceinline void _DECSTR(char* s, int l){int i=0,l4=(l-1)/4,*p=(int*)s;s[l-1]=0;for(;i<l4;++i)*(p++)^=0xEAEBECED;for(i=l4*4;i<l-1;++i)s[i]^=0xED-i%4;}

  00000	55		 push	 ebp
  00001	8b ec		 mov	 ebp, esp
  00003	8b 4d 0c	 mov	 ecx, DWORD PTR _l$[ebp]
  00006	56		 push	 esi
  00007	8b 75 08	 mov	 esi, DWORD PTR _s$[ebp]
  0000a	57		 push	 edi
  0000b	8d 79 ff	 lea	 edi, DWORD PTR [ecx-1]
  0000e	8b c7		 mov	 eax, edi
  00010	99		 cdq
  00011	83 e2 03	 and	 edx, 3
  00014	03 c2		 add	 eax, edx
  00016	c1 f8 02	 sar	 eax, 2
  00019	8b d6		 mov	 edx, esi
  0001b	c6 44 0e ff 00	 mov	 BYTE PTR [esi+ecx-1], 0
  00020	85 c0		 test	 eax, eax
  00022	7e 0e		 jle	 SHORT $LN4@DECSTR
  00024	8b c8		 mov	 ecx, eax
$LL6@DECSTR:
  00026	81 32 ed ec eb
	ea		 xor	 DWORD PTR [edx], -353637139 ; eaebecedH
  0002c	83 c2 04	 add	 edx, 4
  0002f	49		 dec	 ecx
  00030	75 f4		 jne	 SHORT $LL6@DECSTR
$LN4@DECSTR:
  00032	c1 e0 02	 shl	 eax, 2
  00035	eb 17		 jmp	 SHORT $LN14@DECSTR
$LL3@DECSTR:
  00037	8b c8		 mov	 ecx, eax
  00039	81 e1 03 00 00
	80		 and	 ecx, -2147483645	; 80000003H
  0003f	79 05		 jns	 SHORT $LN13@DECSTR
  00041	49		 dec	 ecx
  00042	83 c9 fc	 or	 ecx, -4			; fffffffcH
  00045	41		 inc	 ecx
$LN13@DECSTR:
  00046	b2 ed		 mov	 dl, -19			; ffffffedH
  00048	2a d1		 sub	 dl, cl
  0004a	30 14 30	 xor	 BYTE PTR [eax+esi], dl
  0004d	40		 inc	 eax
$LN14@DECSTR:
  0004e	3b c7		 cmp	 eax, edi
  00050	7c e5		 jl	 SHORT $LL3@DECSTR
  00052	5f		 pop	 edi
  00053	5e		 pop	 esi
  00054	5d		 pop	 ebp
  00055	c3		 ret	 0
?_DECSTR@@YAXPADH@Z ENDP				; _DECSTR
_TEXT	ENDS
PUBLIC	?GetGroup@ioGameEntity@@QBEPAVioEntityGroup@@XZ	; ioGameEntity::GetGroup
; Function compile flags: /Ogsp
; File d:\lost saga for developer\youtube\tutorial\source\src\lsclient\iogameentity.h
;	COMDAT ?GetGroup@ioGameEntity@@QBEPAVioEntityGroup@@XZ
_TEXT	SEGMENT
?GetGroup@ioGameEntity@@QBEPAVioEntityGroup@@XZ PROC	; ioGameEntity::GetGroup, COMDAT
; _this$ = ecx

; 166  : 	inline ioEntityGroup* GetGroup() const { return m_pGroup; }

  00000	8b 41 04	 mov	 eax, DWORD PTR [ecx+4]
  00003	c3		 ret	 0
?GetGroup@ioGameEntity@@QBEPAVioEntityGroup@@XZ ENDP	; ioGameEntity::GetGroup
_TEXT	ENDS
PUBLIC	?GetName@ioSkill@@QBEABVioHashString@@XZ	; ioSkill::GetName
; Function compile flags: /Ogsp
; File d:\lost saga for developer\youtube\tutorial\source\src\lsclient\ioskill.h
;	COMDAT ?GetName@ioSkill@@QBEABVioHashString@@XZ
_TEXT	SEGMENT
?GetName@ioSkill@@QBEABVioHashString@@XZ PROC		; ioSkill::GetName, COMDAT
; _this$ = ecx

; 414  : 	inline const ioHashString& GetName() const { return m_Name; }

  00000	8d 41 24	 lea	 eax, DWORD PTR [ecx+36]
  00003	c3		 ret	 0
?GetName@ioSkill@@QBEABVioHashString@@XZ ENDP		; ioSkill::GetName
_TEXT	ENDS
PUBLIC	?size@?$vector@VioHashString@@V?$allocator@VioHashString@@@std@@@std@@QBEIXZ ; std::vector<ioHashString,std::allocator<ioHashString> >::size
; Function compile flags: /Ogsp
; File c:\program files (x86)\microsoft visual studio 10.0\vc\include\vector
;	COMDAT ?size@?$vector@VioHashString@@V?$allocator@VioHashString@@@std@@@std@@QBEIXZ
_TEXT	SEGMENT
?size@?$vector@VioHashString@@V?$allocator@VioHashString@@@std@@@std@@QBEIXZ PROC ; std::vector<ioHashString,std::allocator<ioHashString> >::size, COMDAT
; _this$ = ecx

; 879  : 		return (this->_Mylast - this->_Myfirst);

  00000	8b 41 04	 mov	 eax, DWORD PTR [ecx+4]
  00003	2b 01		 sub	 eax, DWORD PTR [ecx]
  00005	c1 f8 04	 sar	 eax, 4

; 880  : 		}

  00008	c3		 ret	 0
?size@?$vector@VioHashString@@V?$allocator@VioHashString@@@std@@@std@@QBEIXZ ENDP ; std::vector<ioHashString,std::allocator<ioHashString> >::size
_TEXT	ENDS
PUBLIC	??_7?$CEncrypt@H@@6B@				; CEncrypt<int>::`vftable'
PUBLIC	??1?$CEncrypt@H@@UAE@XZ				; CEncrypt<int>::~CEncrypt<int>
PUBLIC	??_R4?$CEncrypt@H@@6B@				; CEncrypt<int>::`RTTI Complete Object Locator'
PUBLIC	??_R0?AV?$CEncrypt@H@@@8			; CEncrypt<int> `RTTI Type Descriptor'
PUBLIC	??_R3?$CEncrypt@H@@8				; CEncrypt<int>::`RTTI Class Hierarchy Descriptor'
PUBLIC	??_R2?$CEncrypt@H@@8				; CEncrypt<int>::`RTTI Base Class Array'
PUBLIC	??_R1A@?0A@EA@?$CEncrypt@H@@8			; CEncrypt<int>::`RTTI Base Class Descriptor at (0,-1,0,64)'
EXTRN	??1ccddaabb@@UAE@XZ:PROC			; ccddaabb::~ccddaabb
EXTRN	??_E?$CEncrypt@H@@UAEPAXI@Z:PROC		; CEncrypt<int>::`vector deleting destructor'
;	COMDAT ??_R1A@?0A@EA@?$CEncrypt@H@@8
; File d:\lost saga for developer\youtube\tutorial\source\src\lsclient\encryptvalue.h
rdata$r	SEGMENT
??_R1A@?0A@EA@?$CEncrypt@H@@8 DD FLAT:??_R0?AV?$CEncrypt@H@@@8 ; CEncrypt<int>::`RTTI Base Class Descriptor at (0,-1,0,64)'
	DD	00H
	DD	00H
	DD	0ffffffffH
	DD	00H
	DD	040H
	DD	FLAT:??_R3?$CEncrypt@H@@8
rdata$r	ENDS
;	COMDAT ??_R2?$CEncrypt@H@@8
rdata$r	SEGMENT
??_R2?$CEncrypt@H@@8 DD FLAT:??_R1A@?0A@EA@?$CEncrypt@H@@8 ; CEncrypt<int>::`RTTI Base Class Array'
rdata$r	ENDS
;	COMDAT ??_R3?$CEncrypt@H@@8
rdata$r	SEGMENT
??_R3?$CEncrypt@H@@8 DD 00H				; CEncrypt<int>::`RTTI Class Hierarchy Descriptor'
	DD	00H
	DD	01H
	DD	FLAT:??_R2?$CEncrypt@H@@8
rdata$r	ENDS
;	COMDAT ??_R0?AV?$CEncrypt@H@@@8
_DATA	SEGMENT
??_R0?AV?$CEncrypt@H@@@8 DD FLAT:??_7type_info@@6B@	; CEncrypt<int> `RTTI Type Descriptor'
	DD	00H
	DB	'.?AV?$CEncrypt@H@@', 00H
_DATA	ENDS
;	COMDAT ??_R4?$CEncrypt@H@@6B@
rdata$r	SEGMENT
??_R4?$CEncrypt@H@@6B@ DD 00H				; CEncrypt<int>::`RTTI Complete Object Locator'
	DD	00H
	DD	00H
	DD	FLAT:??_R0?AV?$CEncrypt@H@@@8
	DD	FLAT:??_R3?$CEncrypt@H@@8
rdata$r	ENDS
;	COMDAT ??_7?$CEncrypt@H@@6B@
CONST	SEGMENT
??_7?$CEncrypt@H@@6B@ DD FLAT:??_R4?$CEncrypt@H@@6B@	; CEncrypt<int>::`vftable'
	DD	FLAT:??_E?$CEncrypt@H@@UAEPAXI@Z
; Function compile flags: /Ogsp
CONST	ENDS
;	COMDAT ??1?$CEncrypt@H@@UAE@XZ
_TEXT	SEGMENT
??1?$CEncrypt@H@@UAE@XZ PROC				; CEncrypt<int>::~CEncrypt<int>, COMDAT
; _this$ = ecx

; 127  : 	{

  00000	c7 01 00 00 00
	00		 mov	 DWORD PTR [ecx], OFFSET ??_7?$CEncrypt@H@@6B@

; 128  : 	}

  00006	83 c1 0c	 add	 ecx, 12			; 0000000cH
  00009	e9 00 00 00 00	 jmp	 ??1ccddaabb@@UAE@XZ	; ccddaabb::~ccddaabb
??1?$CEncrypt@H@@UAE@XZ ENDP				; CEncrypt<int>::~CEncrypt<int>
; Function compile flags: /Ogsp
_TEXT	ENDS
;	COMDAT ??_G?$CEncrypt@H@@UAEPAXI@Z
_TEXT	SEGMENT
___flags$ = 8						; size = 4
??_G?$CEncrypt@H@@UAEPAXI@Z PROC			; CEncrypt<int>::`scalar deleting destructor', COMDAT
; _this$ = ecx
  00000	55		 push	 ebp
  00001	8b ec		 mov	 ebp, esp
  00003	56		 push	 esi
  00004	8b f1		 mov	 esi, ecx
  00006	8d 4e 0c	 lea	 ecx, DWORD PTR [esi+12]
  00009	c7 06 00 00 00
	00		 mov	 DWORD PTR [esi], OFFSET ??_7?$CEncrypt@H@@6B@
  0000f	e8 00 00 00 00	 call	 ??1ccddaabb@@UAE@XZ	; ccddaabb::~ccddaabb
  00014	f6 45 08 01	 test	 BYTE PTR ___flags$[ebp], 1
  00018	74 07		 je	 SHORT $LN1@scalar@2
  0001a	56		 push	 esi
  0001b	e8 00 00 00 00	 call	 ??3@YAXPAX@Z		; operator delete
  00020	59		 pop	 ecx
$LN1@scalar@2:
  00021	8b c6		 mov	 eax, esi
  00023	5e		 pop	 esi
  00024	5d		 pop	 ebp
  00025	c2 04 00	 ret	 4
??_G?$CEncrypt@H@@UAEPAXI@Z ENDP			; CEncrypt<int>::`scalar deleting destructor'
_TEXT	ENDS
PUBLIC	??1?$_Vector_val@VioHashString@@V?$allocator@VioHashString@@@std@@@std@@QAE@XZ ; std::_Vector_val<ioHashString,std::allocator<ioHashString> >::~_Vector_val<ioHashString,std::allocator<ioHashString> >
; Function compile flags: /Ogsp
; File c:\program files (x86)\microsoft visual studio 10.0\vc\include\vector
;	COMDAT ??1?$_Vector_val@VioHashString@@V?$allocator@VioHashString@@@std@@@std@@QAE@XZ
_TEXT	SEGMENT
??1?$_Vector_val@VioHashString@@V?$allocator@VioHashString@@@std@@@std@@QAE@XZ PROC ; std::_Vector_val<ioHashString,std::allocator<ioHashString> >::~_Vector_val<ioHashString,std::allocator<ioHashString> >, COMDAT
; _this$ = ecx

; 434  : 		}

  00000	c3		 ret	 0
??1?$_Vector_val@VioHashString@@V?$allocator@VioHashString@@@std@@@std@@QAE@XZ ENDP ; std::_Vector_val<ioHashString,std::allocator<ioHashString> >::~_Vector_val<ioHashString,std::allocator<ioHashString> >
_TEXT	ENDS
PUBLIC	??0?$allocator@VioHashString@@@std@@QAE@XZ	; std::allocator<ioHashString>::allocator<ioHashString>
; Function compile flags: /Ogsp
; File c:\program files (x86)\microsoft visual studio 10.0\vc\include\xmemory
;	COMDAT ??0?$allocator@VioHashString@@@std@@QAE@XZ
_TEXT	SEGMENT
??0?$allocator@VioHashString@@@std@@QAE@XZ PROC		; std::allocator<ioHashString>::allocator<ioHashString>, COMDAT
; _this$ = ecx

; 161  : 	_ALLOCATOR() _THROW0()

  00000	8b c1		 mov	 eax, ecx

; 162  : 		{	// construct default allocator (do nothing)
; 163  : 		}

  00002	c3		 ret	 0
??0?$allocator@VioHashString@@@std@@QAE@XZ ENDP		; std::allocator<ioHashString>::allocator<ioHashString>
_TEXT	ENDS
PUBLIC	??0?$allocator@VioHashString@@@std@@QAE@ABV01@@Z ; std::allocator<ioHashString>::allocator<ioHashString>
; Function compile flags: /Ogsp
;	COMDAT ??0?$allocator@VioHashString@@@std@@QAE@ABV01@@Z
_TEXT	SEGMENT
___formal$ = 8						; size = 4
??0?$allocator@VioHashString@@@std@@QAE@ABV01@@Z PROC	; std::allocator<ioHashString>::allocator<ioHashString>, COMDAT
; _this$ = ecx

; 165  : 	_ALLOCATOR(const _ALLOCATOR<_Ty>&) _THROW0()

  00000	8b c1		 mov	 eax, ecx

; 166  : 		{	// construct by copying (do nothing)
; 167  : 		}

  00002	c2 04 00	 ret	 4
??0?$allocator@VioHashString@@@std@@QAE@ABV01@@Z ENDP	; std::allocator<ioHashString>::allocator<ioHashString>
_TEXT	ENDS
PUBLIC	?DecryptValueToPool@?$CEncrypt@K@@QAEXPAK@Z	; CEncrypt<unsigned long>::DecryptValueToPool
EXTRN	?DecryptByte@ccddaabb@@QBEXPBDPADH@Z:PROC	; ccddaabb::DecryptByte
; Function compile flags: /Ogsp
; File d:\lost saga for developer\youtube\tutorial\source\src\lsclient\encryptvalue.h
;	COMDAT ?DecryptValueToPool@?$CEncrypt@K@@QAEXPAK@Z
_TEXT	SEGMENT
_value$ = 8						; size = 4
?DecryptValueToPool@?$CEncrypt@K@@QAEXPAK@Z PROC	; CEncrypt<unsigned long>::DecryptValueToPool, COMDAT
; _this$ = ecx

; 1256 : 	{

  00000	55		 push	 ebp
  00001	8b ec		 mov	 ebp, esp
  00003	56		 push	 esi

; 1257 : 		m_RC5.DecryptByte( m_MemPool, m_TempMem, 4 );

  00004	8d 71 28	 lea	 esi, DWORD PTR [ecx+40]
  00007	6a 04		 push	 4
  00009	8d 41 1c	 lea	 eax, DWORD PTR [ecx+28]
  0000c	56		 push	 esi
  0000d	50		 push	 eax
  0000e	83 c1 0c	 add	 ecx, 12			; 0000000cH
  00011	e8 00 00 00 00	 call	 ?DecryptByte@ccddaabb@@QBEXPBDPADH@Z ; ccddaabb::DecryptByte

; 1258 : 		*value = *((DWORD*)m_TempMem);

  00016	8b 06		 mov	 eax, DWORD PTR [esi]
  00018	8b 4d 08	 mov	 ecx, DWORD PTR _value$[ebp]
  0001b	89 01		 mov	 DWORD PTR [ecx], eax
  0001d	5e		 pop	 esi

; 1259 : 	}

  0001e	5d		 pop	 ebp
  0001f	c2 04 00	 ret	 4
?DecryptValueToPool@?$CEncrypt@K@@QAEXPAK@Z ENDP	; CEncrypt<unsigned long>::DecryptValueToPool
_TEXT	ENDS
PUBLIC	?DecryptValueToPool@?$CEncrypt@_N@@QAEXPA_N@Z	; CEncrypt<bool>::DecryptValueToPool
; Function compile flags: /Ogsp
;	COMDAT ?DecryptValueToPool@?$CEncrypt@_N@@QAEXPA_N@Z
_TEXT	SEGMENT
_value$ = 8						; size = 4
?DecryptValueToPool@?$CEncrypt@_N@@QAEXPA_N@Z PROC	; CEncrypt<bool>::DecryptValueToPool, COMDAT
; _this$ = ecx

; 219  : 	{

  00000	55		 push	 ebp
  00001	8b ec		 mov	 ebp, esp
  00003	56		 push	 esi

; 220  : 		m_RC5.DecryptByte( m_MemPool, m_TempMem, 4 );

  00004	8d 71 28	 lea	 esi, DWORD PTR [ecx+40]
  00007	6a 04		 push	 4
  00009	8d 41 1c	 lea	 eax, DWORD PTR [ecx+28]
  0000c	56		 push	 esi
  0000d	50		 push	 eax
  0000e	83 c1 0c	 add	 ecx, 12			; 0000000cH
  00011	e8 00 00 00 00	 call	 ?DecryptByte@ccddaabb@@QBEXPBDPADH@Z ; ccddaabb::DecryptByte

; 221  : 		*value = *((bool*)m_TempMem);

  00016	8a 06		 mov	 al, BYTE PTR [esi]
  00018	8b 4d 08	 mov	 ecx, DWORD PTR _value$[ebp]
  0001b	88 01		 mov	 BYTE PTR [ecx], al
  0001d	5e		 pop	 esi

; 222  : 	}

  0001e	5d		 pop	 ebp
  0001f	c2 04 00	 ret	 4
?DecryptValueToPool@?$CEncrypt@_N@@QAEXPA_N@Z ENDP	; CEncrypt<bool>::DecryptValueToPool
_TEXT	ENDS
PUBLIC	?EncryptValueToPool@?$CEncrypt@H@@AAEXPBD@Z	; CEncrypt<int>::EncryptValueToPool
EXTRN	?EncryptByte@ccddaabb@@QAEXPBDPADH@Z:PROC	; ccddaabb::EncryptByte
; Function compile flags: /Ogsp
;	COMDAT ?EncryptValueToPool@?$CEncrypt@H@@AAEXPBD@Z
_TEXT	SEGMENT
_value$ = 8						; size = 4
?EncryptValueToPool@?$CEncrypt@H@@AAEXPBD@Z PROC	; CEncrypt<int>::EncryptValueToPool, COMDAT
; _this$ = ecx

; 67   : 	{

  00000	55		 push	 ebp
  00001	8b ec		 mov	 ebp, esp

; 68   : 		m_RC5.EncryptByte( value, m_MemPool, max(m_ValueSize, DEFAULT_ENCRYPT) );

  00003	0f b7 41 06	 movzx	 eax, WORD PTR [ecx+6]
  00007	83 f8 04	 cmp	 eax, 4
  0000a	77 03		 ja	 SHORT $LN4@EncryptVal
  0000c	6a 04		 push	 4
  0000e	58		 pop	 eax
$LN4@EncryptVal:
  0000f	50		 push	 eax
  00010	8d 41 1c	 lea	 eax, DWORD PTR [ecx+28]
  00013	50		 push	 eax
  00014	ff 75 08	 push	 DWORD PTR _value$[ebp]
  00017	83 c1 0c	 add	 ecx, 12			; 0000000cH
  0001a	e8 00 00 00 00	 call	 ?EncryptByte@ccddaabb@@QAEXPBDPADH@Z ; ccddaabb::EncryptByte

; 69   : 		
; 70   : 	}

  0001f	5d		 pop	 ebp
  00020	c2 04 00	 ret	 4
?EncryptValueToPool@?$CEncrypt@H@@AAEXPBD@Z ENDP	; CEncrypt<int>::EncryptValueToPool
_TEXT	ENDS
PUBLIC	?Init@?$CEncrypt@H@@AAEXXZ			; CEncrypt<int>::Init
EXTRN	?Setup@ccddaabb@@QAEXPBDHH@Z:PROC		; ccddaabb::Setup
EXTRN	__imp__rand:PROC
EXTRN	__imp__timeGetTime@0:PROC
EXTRN	__imp__GetCurrentProcessId@0:PROC
; Function compile flags: /Ogsp
;	COMDAT ?Init@?$CEncrypt@H@@AAEXXZ
_TEXT	SEGMENT
_pid$ = -8						; size = 4
_tick$ = -4						; size = 4
?Init@?$CEncrypt@H@@AAEXXZ PROC				; CEncrypt<int>::Init, COMDAT
; _this$ = ecx

; 73   : 	{

  00000	55		 push	 ebp
  00001	8b ec		 mov	 ebp, esp
  00003	51		 push	 ecx
  00004	51		 push	 ecx
  00005	53		 push	 ebx
  00006	56		 push	 esi
  00007	57		 push	 edi
  00008	8b f1		 mov	 esi, ecx

; 74   : 		DWORD pid = GetCurrentProcessId();

  0000a	ff 15 00 00 00
	00		 call	 DWORD PTR __imp__GetCurrentProcessId@0
  00010	89 45 f8	 mov	 DWORD PTR _pid$[ebp], eax

; 75   : 		DWORD tick = timeGetTime();

  00013	ff 15 00 00 00
	00		 call	 DWORD PTR __imp__timeGetTime@0

; 76   : 		m_ValueSize    = sizeof(type);
; 77   : 		m_MemPoolPos   = (unsigned short)( rand()+pid+tick )%(MAX_MEM_POOL-m_ValueSize);

  00019	8b 3d 00 00 00
	00		 mov	 edi, DWORD PTR __imp__rand
  0001f	89 45 fc	 mov	 DWORD PTR _tick$[ebp], eax
  00022	6a 04		 push	 4
  00024	58		 pop	 eax
  00025	66 89 46 06	 mov	 WORD PTR [esi+6], ax
  00029	ff d7		 call	 edi
  0002b	03 45 f8	 add	 eax, DWORD PTR _pid$[ebp]
  0002e	0f b7 4e 06	 movzx	 ecx, WORD PTR [esi+6]
  00032	03 45 fc	 add	 eax, DWORD PTR _tick$[ebp]
  00035	6a 0c		 push	 12			; 0000000cH
  00037	0f b7 c0	 movzx	 eax, ax
  0003a	5b		 pop	 ebx
  0003b	99		 cdq
  0003c	2b d9		 sub	 ebx, ecx
  0003e	f7 fb		 idiv	 ebx
  00040	66 89 56 04	 mov	 WORD PTR [esi+4], dx

; 78   : 		m_EncryptSeed  = (char)( rand()+pid+tick )%256;

  00044	ff d7		 call	 edi
  00046	02 45 f8	 add	 al, BYTE PTR _pid$[ebp]
  00049	02 45 fc	 add	 al, BYTE PTR _tick$[ebp]
  0004c	0f be c0	 movsx	 eax, al
  0004f	25 ff 00 00 80	 and	 eax, -2147483393	; 800000ffH
  00054	79 07		 jns	 SHORT $LN8@Init
  00056	48		 dec	 eax
  00057	0d 00 ff ff ff	 or	 eax, -256		; ffffff00H
  0005c	40		 inc	 eax
$LN8@Init:
  0005d	88 46 08	 mov	 BYTE PTR [esi+8], al

; 79   : 
; 80   : 		for (int i = 0; i < MAX_MEM_POOL ; i++)

  00060	33 db		 xor	 ebx, ebx
$LL3@Init:

; 81   : 			m_MemPool[i] = (char)( rand()+pid+tick )%256; // 

  00062	ff d7		 call	 edi
  00064	02 45 f8	 add	 al, BYTE PTR _pid$[ebp]
  00067	02 45 fc	 add	 al, BYTE PTR _tick$[ebp]
  0006a	0f be c0	 movsx	 eax, al
  0006d	25 ff 00 00 80	 and	 eax, -2147483393	; 800000ffH
  00072	79 07		 jns	 SHORT $LN9@Init
  00074	48		 dec	 eax
  00075	0d 00 ff ff ff	 or	 eax, -256		; ffffff00H
  0007a	40		 inc	 eax
$LN9@Init:
  0007b	88 44 1e 1c	 mov	 BYTE PTR [esi+ebx+28], al
  0007f	43		 inc	 ebx
  00080	83 fb 0c	 cmp	 ebx, 12			; 0000000cH
  00083	7c dd		 jl	 SHORT $LL3@Init

; 82   : 
; 83   : 		//UJ 130913, : szKey  
; 84   : 		//char szKey[ccddaabb::KEY_SIZE];//="";
; 85   : 		//for (int i = 0; i < ccddaabb::KEY_SIZE  ; i++)
; 86   : 		//	szKey[i] = (char)( rand()+pid+tick )%256; // 
; 87   : 		m_RC5.Setup( NULL, pid, tick );

  00085	ff 75 fc	 push	 DWORD PTR _tick$[ebp]
  00088	8d 4e 0c	 lea	 ecx, DWORD PTR [esi+12]
  0008b	ff 75 f8	 push	 DWORD PTR _pid$[ebp]
  0008e	6a 00		 push	 0
  00090	e8 00 00 00 00	 call	 ?Setup@ccddaabb@@QAEXPBDHH@Z ; ccddaabb::Setup
  00095	5f		 pop	 edi
  00096	5e		 pop	 esi
  00097	5b		 pop	 ebx

; 88   : 
; 89   : #ifdef _NOTUSE
; 90   : 		m_value        = 0;
; 91   : 		EncryptValueToPool((char*)&m_value);
; 92   : 		Debug();
; 93   : #endif
; 94   : 	}

  00098	c9		 leave
  00099	c3		 ret	 0
?Init@?$CEncrypt@H@@AAEXXZ ENDP				; CEncrypt<int>::Init
_TEXT	ENDS
PUBLIC	?DecryptValueToPool@?$CEncrypt@H@@QAEXPAH@Z	; CEncrypt<int>::DecryptValueToPool
; Function compile flags: /Ogsp
;	COMDAT ?DecryptValueToPool@?$CEncrypt@H@@QAEXPAH@Z
_TEXT	SEGMENT
_value$ = 8						; size = 4
?DecryptValueToPool@?$CEncrypt@H@@QAEXPAH@Z PROC	; CEncrypt<int>::DecryptValueToPool, COMDAT
; _this$ = ecx

; 837  : 	{

  00000	55		 push	 ebp
  00001	8b ec		 mov	 ebp, esp
  00003	56		 push	 esi

; 838  : 		m_RC5.DecryptByte( m_MemPool, m_TempMem, 4 );

  00004	8d 71 28	 lea	 esi, DWORD PTR [ecx+40]
  00007	6a 04		 push	 4
  00009	8d 41 1c	 lea	 eax, DWORD PTR [ecx+28]
  0000c	56		 push	 esi
  0000d	50		 push	 eax
  0000e	83 c1 0c	 add	 ecx, 12			; 0000000cH
  00011	e8 00 00 00 00	 call	 ?DecryptByte@ccddaabb@@QBEXPBDPADH@Z ; ccddaabb::DecryptByte

; 839  : 		*value = *((int*)m_TempMem);

  00016	8b 06		 mov	 eax, DWORD PTR [esi]
  00018	8b 4d 08	 mov	 ecx, DWORD PTR _value$[ebp]
  0001b	89 01		 mov	 DWORD PTR [ecx], eax
  0001d	5e		 pop	 esi

; 840  : 	}

  0001e	5d		 pop	 ebp
  0001f	c2 04 00	 ret	 4
?DecryptValueToPool@?$CEncrypt@H@@QAEXPAH@Z ENDP	; CEncrypt<int>::DecryptValueToPool
_TEXT	ENDS
PUBLIC	?_Xlen@?$vector@VioHashString@@V?$allocator@VioHashString@@@std@@@std@@IBEXXZ ; std::vector<ioHashString,std::allocator<ioHashString> >::_Xlen
; Function compile flags: /Ogsp
; File c:\program files (x86)\microsoft visual studio 10.0\vc\include\vector
;	COMDAT ?_Xlen@?$vector@VioHashString@@V?$allocator@VioHashString@@@std@@@std@@IBEXXZ
_TEXT	SEGMENT
?_Xlen@?$vector@VioHashString@@V?$allocator@VioHashString@@@std@@@std@@IBEXXZ PROC ; std::vector<ioHashString,std::allocator<ioHashString> >::_Xlen, COMDAT
; _this$ = ecx

; 1427 : 		_Xlength_error("vector<T> too long");

  00000	68 00 00 00 00	 push	 OFFSET ??_C@_0BD@OLBABOEK@vector?$DMT?$DO?5too?5long?$AA@
  00005	ff 15 00 00 00
	00		 call	 DWORD PTR __imp_?_Xlength_error@std@@YAXPBD@Z
$LN4@Xlen@2:
$LN3@Xlen@2:
  0000b	cc		 int	 3
?_Xlen@?$vector@VioHashString@@V?$allocator@VioHashString@@@std@@@std@@IBEXXZ ENDP ; std::vector<ioHashString,std::allocator<ioHashString> >::_Xlen
_TEXT	ENDS
PUBLIC	?deallocate@?$allocator@VioHashString@@@std@@QAEXPAVioHashString@@I@Z ; std::allocator<ioHashString>::deallocate
; Function compile flags: /Ogsp
; File c:\program files (x86)\microsoft visual studio 10.0\vc\include\xmemory
;	COMDAT ?deallocate@?$allocator@VioHashString@@@std@@QAEXPAVioHashString@@I@Z
_TEXT	SEGMENT
__Ptr$ = 8						; size = 4
___formal$ = 12						; size = 4
?deallocate@?$allocator@VioHashString@@@std@@QAEXPAVioHashString@@I@Z PROC ; std::allocator<ioHashString>::deallocate, COMDAT
; _this$ = ecx

; 181  : 		{	// deallocate object at _Ptr, ignore size

  00000	55		 push	 ebp
  00001	8b ec		 mov	 ebp, esp

; 182  : 		::operator delete(_Ptr);

  00003	ff 75 08	 push	 DWORD PTR __Ptr$[ebp]
  00006	e8 00 00 00 00	 call	 ??3@YAXPAX@Z		; operator delete
  0000b	59		 pop	 ecx

; 183  : 		}

  0000c	5d		 pop	 ebp
  0000d	c2 08 00	 ret	 8
?deallocate@?$allocator@VioHashString@@@std@@QAEXPAVioHashString@@I@Z ENDP ; std::allocator<ioHashString>::deallocate
_TEXT	ENDS
PUBLIC	??0?$_Vector_const_iterator@V?$_Vector_val@VioHashString@@V?$allocator@VioHashString@@@std@@@std@@@std@@QAE@PAVioHashString@@PBU_Container_base0@1@@Z ; std::_Vector_const_iterator<std::_Vector_val<ioHashString,std::allocator<ioHashString> > >::_Vector_const_iterator<std::_Vector_val<ioHashString,std::allocator<ioHashString> > >
; Function compile flags: /Ogsp
; File c:\program files (x86)\microsoft visual studio 10.0\vc\include\vector
;	COMDAT ??0?$_Vector_const_iterator@V?$_Vector_val@VioHashString@@V?$allocator@VioHashString@@@std@@@std@@@std@@QAE@PAVioHashString@@PBU_Container_base0@1@@Z
_TEXT	SEGMENT
__Parg$ = 8						; size = 4
__Pvector$ = 12						; size = 4
??0?$_Vector_const_iterator@V?$_Vector_val@VioHashString@@V?$allocator@VioHashString@@@std@@@std@@@std@@QAE@PAVioHashString@@PBU_Container_base0@1@@Z PROC ; std::_Vector_const_iterator<std::_Vector_val<ioHashString,std::allocator<ioHashString> > >::_Vector_const_iterator<std::_Vector_val<ioHashString,std::allocator<ioHashString> > >, COMDAT
; _this$ = ecx

; 45   : 		{	// construct with pointer _Parg

  00000	55		 push	 ebp
  00001	8b ec		 mov	 ebp, esp
  00003	8b c1		 mov	 eax, ecx
  00005	8b 4d 08	 mov	 ecx, DWORD PTR __Parg$[ebp]
  00008	89 08		 mov	 DWORD PTR [eax], ecx

; 46   : 		this->_Adopt(_Pvector);
; 47   : 		}

  0000a	5d		 pop	 ebp
  0000b	c2 08 00	 ret	 8
??0?$_Vector_const_iterator@V?$_Vector_val@VioHashString@@V?$allocator@VioHashString@@@std@@@std@@@std@@QAE@PAVioHashString@@PBU_Container_base0@1@@Z ENDP ; std::_Vector_const_iterator<std::_Vector_val<ioHashString,std::allocator<ioHashString> > >::_Vector_const_iterator<std::_Vector_val<ioHashString,std::allocator<ioHashString> > >
_TEXT	ENDS
PUBLIC	??0?$_Vector_iterator@V?$_Vector_val@VioHashString@@V?$allocator@VioHashString@@@std@@@std@@@std@@QAE@PAVioHashString@@PBU_Container_base0@1@@Z ; std::_Vector_iterator<std::_Vector_val<ioHashString,std::allocator<ioHashString> > >::_Vector_iterator<std::_Vector_val<ioHashString,std::allocator<ioHashString> > >
; Function compile flags: /Ogsp
;	COMDAT ??0?$_Vector_iterator@V?$_Vector_val@VioHashString@@V?$allocator@VioHashString@@@std@@@std@@@std@@QAE@PAVioHashString@@PBU_Container_base0@1@@Z
_TEXT	SEGMENT
__Parg$ = 8						; size = 4
__Pvector$ = 12						; size = 4
??0?$_Vector_iterator@V?$_Vector_val@VioHashString@@V?$allocator@VioHashString@@@std@@@std@@@std@@QAE@PAVioHashString@@PBU_Container_base0@1@@Z PROC ; std::_Vector_iterator<std::_Vector_val<ioHashString,std::allocator<ioHashString> > >::_Vector_iterator<std::_Vector_val<ioHashString,std::allocator<ioHashString> > >, COMDAT
; _this$ = ecx

; 304  : 		{	// construct with pointer _Parg

  00000	55		 push	 ebp
  00001	8b ec		 mov	 ebp, esp
  00003	8b c1		 mov	 eax, ecx
  00005	8b 4d 08	 mov	 ecx, DWORD PTR __Parg$[ebp]
  00008	89 08		 mov	 DWORD PTR [eax], ecx

; 305  : 		}

  0000a	5d		 pop	 ebp
  0000b	c2 08 00	 ret	 8
??0?$_Vector_iterator@V?$_Vector_val@VioHashString@@V?$allocator@VioHashString@@@std@@@std@@@std@@QAE@PAVioHashString@@PBU_Container_base0@1@@Z ENDP ; std::_Vector_iterator<std::_Vector_val<ioHashString,std::allocator<ioHashString> > >::_Vector_iterator<std::_Vector_val<ioHashString,std::allocator<ioHashString> > >
_TEXT	ENDS
PUBLIC	?max_size@?$allocator@VioHashString@@@std@@QBEIXZ ; std::allocator<ioHashString>::max_size
; Function compile flags: /Ogsp
; File c:\program files (x86)\microsoft visual studio 10.0\vc\include\xmemory
;	COMDAT ?max_size@?$allocator@VioHashString@@@std@@QBEIXZ
_TEXT	SEGMENT
?max_size@?$allocator@VioHashString@@@std@@QBEIXZ PROC	; std::allocator<ioHashString>::max_size, COMDAT
; _this$ = ecx

; 218  : 		_SIZT _Count = (_SIZT)(-1) / sizeof (_Ty);
; 219  : 		return (0 < _Count ? _Count : 1);

  00000	b8 ff ff ff 0f	 mov	 eax, 268435455		; 0fffffffH

; 220  : 		}

  00005	c3		 ret	 0
?max_size@?$allocator@VioHashString@@@std@@QBEIXZ ENDP	; std::allocator<ioHashString>::max_size
_TEXT	ENDS
PUBLIC	?_Compat@?$_Vector_const_iterator@V?$_Vector_val@VioHashString@@V?$allocator@VioHashString@@@std@@@std@@@std@@QBEXABV12@@Z ; std::_Vector_const_iterator<std::_Vector_val<ioHashString,std::allocator<ioHashString> > >::_Compat
; Function compile flags: /Ogsp
; File c:\program files (x86)\microsoft visual studio 10.0\vc\include\vector
;	COMDAT ?_Compat@?$_Vector_const_iterator@V?$_Vector_val@VioHashString@@V?$allocator@VioHashString@@@std@@@std@@@std@@QBEXABV12@@Z
_TEXT	SEGMENT
___formal$ = 8						; size = 4
?_Compat@?$_Vector_const_iterator@V?$_Vector_val@VioHashString@@V?$allocator@VioHashString@@@std@@@std@@@std@@QBEXABV12@@Z PROC ; std::_Vector_const_iterator<std::_Vector_val<ioHashString,std::allocator<ioHashString> > >::_Compat, COMDAT
; _this$ = ecx

; 253  : 		}

  00000	c2 04 00	 ret	 4
?_Compat@?$_Vector_const_iterator@V?$_Vector_val@VioHashString@@V?$allocator@VioHashString@@@std@@@std@@@std@@QBEXABV12@@Z ENDP ; std::_Vector_const_iterator<std::_Vector_val<ioHashString,std::allocator<ioHashString> > >::_Compat
_TEXT	ENDS
PUBLIC	??$_Allocate@VioHashString@@@std@@YAPAVioHashString@@IPAV1@@Z ; std::_Allocate<ioHashString>
; Function compile flags: /Ogsp
; File c:\program files (x86)\microsoft visual studio 10.0\vc\include\xmemory
;	COMDAT ??$_Allocate@VioHashString@@@std@@YAPAVioHashString@@IPAV1@@Z
_TEXT	SEGMENT
$T534741 = -12						; size = 12
$T534745 = 8						; size = 4
__Count$ = 8						; size = 4
___formal$ = 12						; size = 4
??$_Allocate@VioHashString@@@std@@YAPAVioHashString@@IPAV1@@Z PROC ; std::_Allocate<ioHashString>, COMDAT

; 30   : 	{	// allocate storage for _Count elements of type _Ty

  00000	55		 push	 ebp
  00001	8b ec		 mov	 ebp, esp

; 31   : 	void *_Ptr = 0;
; 32   : 
; 33   : 	if (_Count <= 0)

  00003	8b 4d 08	 mov	 ecx, DWORD PTR __Count$[ebp]
  00006	83 ec 0c	 sub	 esp, 12			; 0000000cH
  00009	33 c0		 xor	 eax, eax
  0000b	85 c9		 test	 ecx, ecx

; 34   : 		_Count = 0;
; 35   : 	else if (((_SIZT)(-1) / sizeof (_Ty) < _Count)

  0000d	74 3c		 je	 SHORT $LN5@Allocate@2

; 36   : 		|| (_Ptr = ::operator new(_Count * sizeof (_Ty))) == 0)

  0000f	81 f9 ff ff ff
	0f		 cmp	 ecx, 268435455		; 0fffffffH
  00015	77 0e		 ja	 SHORT $LN1@Allocate@2
  00017	c1 e1 04	 shl	 ecx, 4
  0001a	51		 push	 ecx
  0001b	e8 00 00 00 00	 call	 ??2@YAPAXI@Z		; operator new
  00020	59		 pop	 ecx
  00021	85 c0		 test	 eax, eax

; 38   : 
; 39   : 	return ((_Ty _FARQ *)_Ptr);

  00023	75 26		 jne	 SHORT $LN5@Allocate@2
$LN1@Allocate@2:

; 37   : 		_THROW_NCEE(bad_alloc, 0);

  00025	83 65 08 00	 and	 DWORD PTR $T534745[ebp], 0
  00029	8d 45 08	 lea	 eax, DWORD PTR $T534745[ebp]
  0002c	50		 push	 eax
  0002d	8d 4d f4	 lea	 ecx, DWORD PTR $T534741[ebp]
  00030	ff 15 00 00 00
	00		 call	 DWORD PTR __imp_??0exception@std@@QAE@ABQBD@Z
  00036	68 00 00 00 00	 push	 OFFSET __TI2?AVbad_alloc@std@@
  0003b	8d 45 f4	 lea	 eax, DWORD PTR $T534741[ebp]
  0003e	50		 push	 eax
  0003f	c7 45 f4 00 00
	00 00		 mov	 DWORD PTR $T534741[ebp], OFFSET ??_7bad_alloc@std@@6B@
  00046	e8 00 00 00 00	 call	 __CxxThrowException@8
$LN10@Allocate@2:
$LN5@Allocate@2:

; 40   : 	}

  0004b	c9		 leave
  0004c	c3		 ret	 0
$LN9@Allocate@2:
??$_Allocate@VioHashString@@@std@@YAPAVioHashString@@IPAV1@@Z ENDP ; std::_Allocate<ioHashString>
_TEXT	ENDS
EXTRN	__imp_??0exception@std@@QAE@ABV01@@Z:PROC
; Function compile flags: /Ogsp
;	COMDAT ??0bad_alloc@std@@QAE@ABV01@@Z
_TEXT	SEGMENT
___that$ = 8						; size = 4
??0bad_alloc@std@@QAE@ABV01@@Z PROC			; std::bad_alloc::bad_alloc, COMDAT
; _this$ = ecx
  00000	55		 push	 ebp
  00001	8b ec		 mov	 ebp, esp
  00003	56		 push	 esi
  00004	ff 75 08	 push	 DWORD PTR ___that$[ebp]
  00007	8b f1		 mov	 esi, ecx
  00009	ff 15 00 00 00
	00		 call	 DWORD PTR __imp_??0exception@std@@QAE@ABV01@@Z
  0000f	c7 06 00 00 00
	00		 mov	 DWORD PTR [esi], OFFSET ??_7bad_alloc@std@@6B@
  00015	8b c6		 mov	 eax, esi
  00017	5e		 pop	 esi
  00018	5d		 pop	 ebp
  00019	c2 04 00	 ret	 4
??0bad_alloc@std@@QAE@ABV01@@Z ENDP			; std::bad_alloc::bad_alloc
_TEXT	ENDS
PUBLIC	??$forward@ABVioHashString@@@std@@YAABVioHashString@@ABV1@@Z ; std::forward<ioHashString const &>
; Function compile flags: /Ogsp
; File c:\program files (x86)\microsoft visual studio 10.0\vc\include\utility
;	COMDAT ??$forward@ABVioHashString@@@std@@YAABVioHashString@@ABV1@@Z
_TEXT	SEGMENT
__Arg$ = 8						; size = 4
??$forward@ABVioHashString@@@std@@YAABVioHashString@@ABV1@@Z PROC ; std::forward<ioHashString const &>, COMDAT

; 78   : 	{	// forward _Arg, given explicitly specified type parameter

  00000	55		 push	 ebp
  00001	8b ec		 mov	 ebp, esp

; 79   : 	return ((_Ty&&)_Arg);

  00003	8b 45 08	 mov	 eax, DWORD PTR __Arg$[ebp]

; 80   : 	}

  00006	5d		 pop	 ebp
  00007	c3		 ret	 0
??$forward@ABVioHashString@@@std@@YAABVioHashString@@ABV1@@Z ENDP ; std::forward<ioHashString const &>
_TEXT	ENDS
PUBLIC	??$forward@AAVioHashString@@@std@@YAAAVioHashString@@AAV1@@Z ; std::forward<ioHashString &>
; Function compile flags: /Ogsp
;	COMDAT ??$forward@AAVioHashString@@@std@@YAAAVioHashString@@AAV1@@Z
_TEXT	SEGMENT
__Arg$ = 8						; size = 4
??$forward@AAVioHashString@@@std@@YAAAVioHashString@@AAV1@@Z PROC ; std::forward<ioHashString &>, COMDAT

; 78   : 	{	// forward _Arg, given explicitly specified type parameter

  00000	55		 push	 ebp
  00001	8b ec		 mov	 ebp, esp

; 79   : 	return ((_Ty&&)_Arg);

  00003	8b 45 08	 mov	 eax, DWORD PTR __Arg$[ebp]

; 80   : 	}

  00006	5d		 pop	 ebp
  00007	c3		 ret	 0
??$forward@AAVioHashString@@@std@@YAAAVioHashString@@AAV1@@Z ENDP ; std::forward<ioHashString &>
_TEXT	ENDS
PUBLIC	??$_Ptr_cat@VioHashString@@V1@@std@@YA?AU_Nonscalar_ptr_iterator_tag@0@PAVioHashString@@0@Z ; std::_Ptr_cat<ioHashString,ioHashString>
; Function compile flags: /Ogsp
; File c:\program files (x86)\microsoft visual studio 10.0\vc\include\xutility
;	COMDAT ??$_Ptr_cat@VioHashString@@V1@@std@@YA?AU_Nonscalar_ptr_iterator_tag@0@PAVioHashString@@0@Z
_TEXT	SEGMENT
__Cat$ = -1						; size = 1
___formal$ = 8						; size = 4
___formal$ = 12						; size = 4
??$_Ptr_cat@VioHashString@@V1@@std@@YA?AU_Nonscalar_ptr_iterator_tag@0@PAVioHashString@@0@Z PROC ; std::_Ptr_cat<ioHashString,ioHashString>, COMDAT

; 516  : 	{	// return pointer category from pointers

  00000	55		 push	 ebp
  00001	8b ec		 mov	 ebp, esp
  00003	51		 push	 ecx

; 517  : 	typename _Ptr_cat_helper<_Elem1, _Elem2>::_Type _Cat;
; 518  : 	return (_Cat);

  00004	8a 45 ff	 mov	 al, BYTE PTR __Cat$[ebp]

; 519  : 	}

  00007	c9		 leave
  00008	c3		 ret	 0
??$_Ptr_cat@VioHashString@@V1@@std@@YA?AU_Nonscalar_ptr_iterator_tag@0@PAVioHashString@@0@Z ENDP ; std::_Ptr_cat<ioHashString,ioHashString>
_TEXT	ENDS
PUBLIC	??$_Ptr_cat@V?$_Vector_const_iterator@V?$_Vector_val@VioHashString@@V?$allocator@VioHashString@@@std@@@std@@@std@@PAVioHashString@@@std@@YA?AU_Nonscalar_ptr_iterator_tag@0@AAV?$_Vector_const_iterator@V?$_Vector_val@VioHashString@@V?$allocator@VioHashString@@@std@@@std@@@0@AAPAVioHashString@@@Z ; std::_Ptr_cat<std::_Vector_const_iterator<std::_Vector_val<ioHashString,std::allocator<ioHashString> > >,ioHashString *>
; Function compile flags: /Ogsp
;	COMDAT ??$_Ptr_cat@V?$_Vector_const_iterator@V?$_Vector_val@VioHashString@@V?$allocator@VioHashString@@@std@@@std@@@std@@PAVioHashString@@@std@@YA?AU_Nonscalar_ptr_iterator_tag@0@AAV?$_Vector_const_iterator@V?$_Vector_val@VioHashString@@V?$allocator@VioHashString@@@std@@@std@@@0@AAPAVioHashString@@@Z
_TEXT	SEGMENT
__Cat$ = -1						; size = 1
___formal$ = 8						; size = 4
___formal$ = 12						; size = 4
??$_Ptr_cat@V?$_Vector_const_iterator@V?$_Vector_val@VioHashString@@V?$allocator@VioHashString@@@std@@@std@@@std@@PAVioHashString@@@std@@YA?AU_Nonscalar_ptr_iterator_tag@0@AAV?$_Vector_const_iterator@V?$_Vector_val@VioHashString@@V?$allocator@VioHashString@@@std@@@std@@@0@AAPAVioHashString@@@Z PROC ; std::_Ptr_cat<std::_Vector_const_iterator<std::_Vector_val<ioHashString,std::allocator<ioHashString> > >,ioHashString *>, COMDAT

; 485  : 	{	// return pointer category from arbitrary arguments

  00000	55		 push	 ebp
  00001	8b ec		 mov	 ebp, esp
  00003	51		 push	 ecx

; 486  : 	_Nonscalar_ptr_iterator_tag _Cat;
; 487  : 	return (_Cat);

  00004	8a 45 ff	 mov	 al, BYTE PTR __Cat$[ebp]

; 488  : 	}

  00007	c9		 leave
  00008	c3		 ret	 0
??$_Ptr_cat@V?$_Vector_const_iterator@V?$_Vector_val@VioHashString@@V?$allocator@VioHashString@@@std@@@std@@@std@@PAVioHashString@@@std@@YA?AU_Nonscalar_ptr_iterator_tag@0@AAV?$_Vector_const_iterator@V?$_Vector_val@VioHashString@@V?$allocator@VioHashString@@@std@@@std@@@0@AAPAVioHashString@@@Z ENDP ; std::_Ptr_cat<std::_Vector_const_iterator<std::_Vector_val<ioHashString,std::allocator<ioHashString> > >,ioHashString *>
_TEXT	ENDS
PUBLIC	??$move@AAVioHashString@@@std@@YA$$QAVioHashString@@AAV1@@Z ; std::move<ioHashString &>
; Function compile flags: /Ogsp
; File c:\program files (x86)\microsoft visual studio 10.0\vc\include\utility
;	COMDAT ??$move@AAVioHashString@@@std@@YA$$QAVioHashString@@AAV1@@Z
_TEXT	SEGMENT
__Arg$ = 8						; size = 4
??$move@AAVioHashString@@@std@@YA$$QAVioHashString@@AAV1@@Z PROC ; std::move<ioHashString &>, COMDAT

; 86   : 	{	// forward _Arg as movable

  00000	55		 push	 ebp
  00001	8b ec		 mov	 ebp, esp

; 87   : 	return ((typename tr1::_Remove_reference<_Ty>::_Type&&)_Arg);

  00003	8b 45 08	 mov	 eax, DWORD PTR __Arg$[ebp]

; 88   : 	}

  00006	5d		 pop	 ebp
  00007	c3		 ret	 0
??$move@AAVioHashString@@@std@@YA$$QAVioHashString@@AAV1@@Z ENDP ; std::move<ioHashString &>
_TEXT	ENDS
PUBLIC	??D?$_Vector_const_iterator@V?$_Vector_val@VioHashString@@V?$allocator@VioHashString@@@std@@@std@@@std@@QBEABVioHashString@@XZ ; std::_Vector_const_iterator<std::_Vector_val<ioHashString,std::allocator<ioHashString> > >::operator*
; Function compile flags: /Ogsp
; File c:\program files (x86)\microsoft visual studio 10.0\vc\include\vector
;	COMDAT ??D?$_Vector_const_iterator@V?$_Vector_val@VioHashString@@V?$allocator@VioHashString@@@std@@@std@@@std@@QBEABVioHashString@@XZ
_TEXT	SEGMENT
??D?$_Vector_const_iterator@V?$_Vector_val@VioHashString@@V?$allocator@VioHashString@@@std@@@std@@@std@@QBEABVioHashString@@XZ PROC ; std::_Vector_const_iterator<std::_Vector_val<ioHashString,std::allocator<ioHashString> > >::operator*, COMDAT
; _this$ = ecx

; 64   :  #if _ITERATOR_DEBUG_LEVEL == 2
; 65   : 		if (this->_Getcont() == 0
; 66   : 			|| this->_Ptr == 0
; 67   : 			|| this->_Ptr < ((_Myvec *)this->_Getcont())->_Myfirst
; 68   : 			|| ((_Myvec *)this->_Getcont())->_Mylast <= this->_Ptr)
; 69   : 			{	// report error
; 70   : 			_DEBUG_ERROR("vector iterator not dereferencable");
; 71   : 			_SCL_SECURE_OUT_OF_RANGE;
; 72   : 			}
; 73   : 
; 74   :  #elif _ITERATOR_DEBUG_LEVEL == 1
; 75   : 		_SCL_SECURE_VALIDATE(this->_Getcont() != 0);
; 76   : 		_SCL_SECURE_VALIDATE_RANGE(
; 77   : 			this->_Ptr != 0
; 78   : 			&& ((_Myvec *)this->_Getcont())->_Myfirst <= this->_Ptr
; 79   : 			&& this->_Ptr < ((_Myvec *)this->_Getcont())->_Mylast);
; 80   :  #endif /* _ITERATOR_DEBUG_LEVEL */
; 81   : 
; 82   : 		__analysis_assume(this->_Ptr != 0);
; 83   : 
; 84   : 		return (*this->_Ptr);

  00000	8b 01		 mov	 eax, DWORD PTR [ecx]

; 85   : 		}

  00002	c3		 ret	 0
??D?$_Vector_const_iterator@V?$_Vector_val@VioHashString@@V?$allocator@VioHashString@@@std@@@std@@@std@@QBEABVioHashString@@XZ ENDP ; std::_Vector_const_iterator<std::_Vector_val<ioHashString,std::allocator<ioHashString> > >::operator*
_TEXT	ENDS
PUBLIC	??E?$_Vector_const_iterator@V?$_Vector_val@VioHashString@@V?$allocator@VioHashString@@@std@@@std@@@std@@QAEAAV01@XZ ; std::_Vector_const_iterator<std::_Vector_val<ioHashString,std::allocator<ioHashString> > >::operator++
; Function compile flags: /Ogsp
;	COMDAT ??E?$_Vector_const_iterator@V?$_Vector_val@VioHashString@@V?$allocator@VioHashString@@@std@@@std@@@std@@QAEAAV01@XZ
_TEXT	SEGMENT
??E?$_Vector_const_iterator@V?$_Vector_val@VioHashString@@V?$allocator@VioHashString@@@std@@@std@@@std@@QAEAAV01@XZ PROC ; std::_Vector_const_iterator<std::_Vector_val<ioHashString,std::allocator<ioHashString> > >::operator++, COMDAT
; _this$ = ecx

; 93   : 		{	// preincrement

  00000	8b c1		 mov	 eax, ecx

; 94   :  #if _ITERATOR_DEBUG_LEVEL == 2
; 95   : 		if (this->_Getcont() == 0
; 96   : 			|| this->_Ptr == 0
; 97   : 			|| ((_Myvec *)this->_Getcont())->_Mylast <= this->_Ptr)
; 98   : 			{	// report error
; 99   : 			_DEBUG_ERROR("vector iterator not incrementable");
; 100  : 			_SCL_SECURE_OUT_OF_RANGE;
; 101  : 			}
; 102  : 
; 103  :  #elif _ITERATOR_DEBUG_LEVEL == 1
; 104  : 		_SCL_SECURE_VALIDATE(this->_Getcont() != 0);
; 105  : 		_SCL_SECURE_VALIDATE_RANGE(
; 106  : 			this->_Ptr != 0
; 107  : 			&& this->_Ptr < ((_Myvec *)this->_Getcont())->_Mylast);
; 108  :  #endif /* _ITERATOR_DEBUG_LEVEL */
; 109  : 
; 110  : 		++this->_Ptr;

  00002	83 00 10	 add	 DWORD PTR [eax], 16	; 00000010H

; 111  : 		return (*this);
; 112  : 		}

  00005	c3		 ret	 0
??E?$_Vector_const_iterator@V?$_Vector_val@VioHashString@@V?$allocator@VioHashString@@@std@@@std@@@std@@QAEAAV01@XZ ENDP ; std::_Vector_const_iterator<std::_Vector_val<ioHashString,std::allocator<ioHashString> > >::operator++
_TEXT	ENDS
PUBLIC	??_GioHashString@@QAEPAXI@Z			; ioHashString::`scalar deleting destructor'
EXTRN	__imp_??1ioHashString@@QAE@XZ:PROC
; Function compile flags: /Ogsp
;	COMDAT ??_GioHashString@@QAEPAXI@Z
_TEXT	SEGMENT
___flags$ = 8						; size = 4
??_GioHashString@@QAEPAXI@Z PROC			; ioHashString::`scalar deleting destructor', COMDAT
; _this$ = ecx
  00000	55		 push	 ebp
  00001	8b ec		 mov	 ebp, esp
  00003	56		 push	 esi
  00004	8b f1		 mov	 esi, ecx
  00006	ff 15 00 00 00
	00		 call	 DWORD PTR __imp_??1ioHashString@@QAE@XZ
  0000c	f6 45 08 01	 test	 BYTE PTR ___flags$[ebp], 1
  00010	74 07		 je	 SHORT $LN1@scalar@3
  00012	56		 push	 esi
  00013	e8 00 00 00 00	 call	 ??3@YAXPAX@Z		; operator delete
  00018	59		 pop	 ecx
$LN1@scalar@3:
  00019	8b c6		 mov	 eax, esi
  0001b	5e		 pop	 esi
  0001c	5d		 pop	 ebp
  0001d	c2 04 00	 ret	 4
??_GioHashString@@QAEPAXI@Z ENDP			; ioHashString::`scalar deleting destructor'
_TEXT	ENDS
PUBLIC	??$_Construct@VioHashString@@ABV1@@std@@YAXPAVioHashString@@ABV1@@Z ; std::_Construct<ioHashString,ioHashString const &>
EXTRN	__imp_??0ioHashString@@QAE@ABV0@@Z:PROC
EXTRN	___CxxFrameHandler3:PROC
EXTRN	@__security_check_cookie@4:PROC
EXTRN	__EH_epilog3:PROC
EXTRN	__EH_prolog3:PROC
;	COMDAT xdata$x
; File c:\program files (x86)\microsoft visual studio 10.0\vc\include\utility
xdata$x	SEGMENT
__unwindtable$??$_Construct@VioHashString@@ABV1@@std@@YAXPAVioHashString@@ABV1@@Z DD 0ffffffffH
	DD	FLAT:__unwindfunclet$??$_Construct@VioHashString@@ABV1@@std@@YAXPAVioHashString@@ABV1@@Z$0
__ehfuncinfo$??$_Construct@VioHashString@@ABV1@@std@@YAXPAVioHashString@@ABV1@@Z DD 019930522H
	DD	01H
	DD	FLAT:__unwindtable$??$_Construct@VioHashString@@ABV1@@std@@YAXPAVioHashString@@ABV1@@Z
	DD	2 DUP(00H)
	DD	2 DUP(00H)
	DD	00H
	DD	01H
; Function compile flags: /Ogsp
; File c:\program files (x86)\microsoft visual studio 10.0\vc\include\xmemory
xdata$x	ENDS
;	COMDAT ??$_Construct@VioHashString@@ABV1@@std@@YAXPAVioHashString@@ABV1@@Z
_TEXT	SEGMENT
$T534772 = -16						; size = 4
__$EHRec$ = -12						; size = 12
__Vptr$ = 8						; size = 4
__Ptr$ = 8						; size = 4
__Val$ = 12						; size = 4
??$_Construct@VioHashString@@ABV1@@std@@YAXPAVioHashString@@ABV1@@Z PROC ; std::_Construct<ioHashString,ioHashString const &>, COMDAT

; 46   : 	{	// construct object at _Ptr with value _Val

  00000	6a 04		 push	 4
  00002	b8 00 00 00 00	 mov	 eax, __ehhandler$??$_Construct@VioHashString@@ABV1@@std@@YAXPAVioHashString@@ABV1@@Z
  00007	e8 00 00 00 00	 call	 __EH_prolog3

; 47   : 	void _FARQ *_Vptr = _Ptr;

  0000c	8b 4d 08	 mov	 ecx, DWORD PTR __Ptr$[ebp]
  0000f	89 4d 08	 mov	 DWORD PTR __Vptr$[ebp], ecx

; 48   : 	::new (_Vptr) _Ty1(_STD forward<_Ty2>(_Val));

  00012	89 4d f0	 mov	 DWORD PTR $T534772[ebp], ecx
  00015	83 65 fc 00	 and	 DWORD PTR __$EHRec$[ebp+8], 0
  00019	85 c9		 test	 ecx, ecx
  0001b	74 09		 je	 SHORT $LN3@Construct
  0001d	ff 75 0c	 push	 DWORD PTR __Val$[ebp]
  00020	ff 15 00 00 00
	00		 call	 DWORD PTR __imp_??0ioHashString@@QAE@ABV0@@Z
$LN3@Construct:

; 49   : 	}

  00026	e8 00 00 00 00	 call	 __EH_epilog3
  0002b	c3		 ret	 0
_TEXT	ENDS
;	COMDAT text$x
text$x	SEGMENT
__unwindfunclet$??$_Construct@VioHashString@@ABV1@@std@@YAXPAVioHashString@@ABV1@@Z$0:
  00000	ff 75 08	 push	 DWORD PTR __Vptr$[ebp]
  00003	ff 75 f0	 push	 DWORD PTR $T534772[ebp]
  00006	e8 00 00 00 00	 call	 ??3@YAXPAX0@Z		; operator delete
  0000b	59		 pop	 ecx
  0000c	59		 pop	 ecx
  0000d	c3		 ret	 0
__ehhandler$??$_Construct@VioHashString@@ABV1@@std@@YAXPAVioHashString@@ABV1@@Z:
  0000e	8b 54 24 08	 mov	 edx, DWORD PTR [esp+8]
  00012	8d 42 0c	 lea	 eax, DWORD PTR [edx+12]
  00015	8b 4a ec	 mov	 ecx, DWORD PTR [edx-20]
  00018	33 c8		 xor	 ecx, eax
  0001a	e8 00 00 00 00	 call	 @__security_check_cookie@4
  0001f	b8 00 00 00 00	 mov	 eax, OFFSET __ehfuncinfo$??$_Construct@VioHashString@@ABV1@@std@@YAXPAVioHashString@@ABV1@@Z
  00024	e9 00 00 00 00	 jmp	 ___CxxFrameHandler3
text$x	ENDS
??$_Construct@VioHashString@@ABV1@@std@@YAXPAVioHashString@@ABV1@@Z ENDP ; std::_Construct<ioHashString,ioHashString const &>
PUBLIC	__real@41f0000000000000
PUBLIC	__real@4f800000
PUBLIC	__real@3f800000
PUBLIC	__real@3ff0000000000000
PUBLIC	__real@42c80000
PUBLIC	__$ArrayPad$
PUBLIC	?SetSkillActionState@ioBuffCountSkill@@IAEXPAVioBaseChar@@PAVioPlayStage@@@Z ; ioBuffCountSkill::SetSkillActionState
EXTRN	??1SP2Packet@@UAE@XZ:PROC			; SP2Packet::~SP2Packet
EXTRN	?SendToAllPlayingUser@P2PNetwork@@YAXAAVSP2Packet@@PAVioBaseChar@@@Z:PROC ; P2PNetwork::SendToAllPlayingUser
EXTRN	??6SP2Packet@@QAEAAV0@AAV?$CEncrypt@H@@@Z:PROC	; SP2Packet::operator<<
EXTRN	??6SP2Packet@@QAEAAV0@ABUD3DXQUATERNION@@@Z:PROC ; SP2Packet::operator<<
EXTRN	??6SP2Packet@@QAEAAV0@ABVioHashString@@@Z:PROC	; SP2Packet::operator<<
EXTRN	??0SP2Packet@@QAE@K@Z:PROC			; SP2Packet::SP2Packet
EXTRN	__imp_?GetAnimationFullTime@ioEntityGroup@@QAEMH@Z:PROC
EXTRN	__imp_?GetLoopSec@ioFrameTimer@@QBEKXZ:PROC
EXTRN	__imp_?GetSingleton@ioFrameTimer@@SAAAV1@XZ:PROC
EXTRN	__imp_?SetActionAni@ioEntityGroup@@QAE_NHMMMMMM_N0@Z:PROC
EXTRN	__imp_?ClearAllActionAni@ioEntityGroup@@QAEXM_N@Z:PROC
EXTRN	__imp_?ClearAllLoopAni@ioEntityGroup@@QAEXM_N@Z:PROC
EXTRN	__imp_?GetAnimationIdx@ioEntityGroup@@QAEHABVioHashString@@@Z:PROC
EXTRN	___security_cookie:DWORD
EXTRN	__fltused:DWORD
EXTRN	__chkstk:PROC
EXTRN	__ftol2:PROC
;	COMDAT __real@41f0000000000000
; File d:\lost saga for developer\youtube\tutorial\source\src\lsclient\iobasechar.h
CONST	SEGMENT
__real@41f0000000000000 DQ 041f0000000000000r	; 4.29497e+009
CONST	ENDS
;	COMDAT __real@4f800000
CONST	SEGMENT
__real@4f800000 DD 04f800000r			; 4.29497e+009
CONST	ENDS
;	COMDAT __real@3f800000
CONST	SEGMENT
__real@3f800000 DD 03f800000r			; 1
CONST	ENDS
;	COMDAT __real@3ff0000000000000
CONST	SEGMENT
__real@3ff0000000000000 DQ 03ff0000000000000r	; 1
CONST	ENDS
;	COMDAT __real@42c80000
CONST	SEGMENT
__real@42c80000 DD 042c80000r			; 100
CONST	ENDS
;	COMDAT xdata$x
xdata$x	SEGMENT
__unwindtable$?SetSkillActionState@ioBuffCountSkill@@IAEXPAVioBaseChar@@PAVioPlayStage@@@Z DD 0ffffffffH
	DD	FLAT:__unwindfunclet$?SetSkillActionState@ioBuffCountSkill@@IAEXPAVioBaseChar@@PAVioPlayStage@@@Z$0
__ehfuncinfo$?SetSkillActionState@ioBuffCountSkill@@IAEXPAVioBaseChar@@PAVioPlayStage@@@Z DD 019930522H
	DD	01H
	DD	FLAT:__unwindtable$?SetSkillActionState@ioBuffCountSkill@@IAEXPAVioBaseChar@@PAVioPlayStage@@@Z
	DD	2 DUP(00H)
	DD	2 DUP(00H)
	DD	00H
	DD	01H
; Function compile flags: /Ogsp
; File d:\lost saga for developer\youtube\tutorial\source\src\lsclient\iobuffcountskill.cpp
xdata$x	ENDS
;	COMDAT ?SetSkillActionState@ioBuffCountSkill@@IAEXPAVioBaseChar@@PAVioPlayStage@@@Z
_TEXT	SEGMENT
tv205 = -32824						; size = 8
tv239 = -32820						; size = 4
tv232 = -32820						; size = 4
_iAniID$ = -32812					; size = 4
_kPacket$531789 = -32808				; size = 32792
__$ArrayPad$ = -16					; size = 4
__$EHRec$ = -12						; size = 12
_pOwner$ = 8						; size = 4
_pStage$ = 12						; size = 4
?SetSkillActionState@ioBuffCountSkill@@IAEXPAVioBaseChar@@PAVioPlayStage@@@Z PROC ; ioBuffCountSkill::SetSkillActionState, COMDAT
; _this$ = ecx

; 166  : {

  00000	55		 push	 ebp
  00001	8b ec		 mov	 ebp, esp
  00003	6a ff		 push	 -1
  00005	68 00 00 00 00	 push	 __ehhandler$?SetSkillActionState@ioBuffCountSkill@@IAEXPAVioBaseChar@@PAVioPlayStage@@@Z
  0000a	64 a1 00 00 00
	00		 mov	 eax, DWORD PTR fs:0
  00010	50		 push	 eax
  00011	b8 2c 80 00 00	 mov	 eax, 32812		; 0000802cH
  00016	e8 00 00 00 00	 call	 __chkstk
  0001b	a1 00 00 00 00	 mov	 eax, DWORD PTR ___security_cookie
  00020	33 c5		 xor	 eax, ebp
  00022	89 45 f0	 mov	 DWORD PTR __$ArrayPad$[ebp], eax
  00025	53		 push	 ebx
  00026	56		 push	 esi
  00027	57		 push	 edi
  00028	50		 push	 eax
  00029	8d 45 f4	 lea	 eax, DWORD PTR __$EHRec$[ebp]
  0002c	64 a3 00 00 00
	00		 mov	 DWORD PTR fs:0, eax
  00032	8b 7d 08	 mov	 edi, DWORD PTR _pOwner$[ebp]
  00035	8b f1		 mov	 esi, ecx

; 167  : 	m_SkillState = SS_ACTION;

  00037	c7 86 68 12 00
	00 01 00 00 00	 mov	 DWORD PTR [esi+4712], 1

; 168  : 
; 169  : 	if( !pOwner )

  00041	85 ff		 test	 edi, edi
  00043	0f 84 ac 01 00
	00		 je	 $LN1@SetSkillAc

; 170  : 		return;
; 171  : 
; 172  : 	ioEntityGroup *pGrp = pOwner->GetGroup();

  00049	8b 5f 04	 mov	 ebx, DWORD PTR [edi+4]

; 173  : 	if( !pGrp )

  0004c	85 db		 test	 ebx, ebx
  0004e	0f 84 a1 01 00
	00		 je	 $LN1@SetSkillAc

; 174  : 		return;
; 175  : 
; 176  : 	int iAniID = pGrp->GetAnimationIdx( m_SkillMotionName );

  00054	8d 86 90 00 00
	00		 lea	 eax, DWORD PTR [esi+144]
  0005a	50		 push	 eax
  0005b	8b cb		 mov	 ecx, ebx
  0005d	ff 15 00 00 00
	00		 call	 DWORD PTR __imp_?GetAnimationIdx@ioEntityGroup@@QAEHABVioHashString@@@Z
  00063	89 85 d4 7f ff
	ff		 mov	 DWORD PTR _iAniID$[ebp], eax

; 177  : 	if( iAniID == -1 )

  00069	83 f8 ff	 cmp	 eax, -1
  0006c	0f 84 83 01 00
	00		 je	 $LN1@SetSkillAc

; 178  : 		return;
; 179  : 
; 180  : 	pGrp->ClearAllLoopAni( 100.0f, true );

  00072	f3 0f 10 05 00
	00 00 00	 movss	 xmm0, DWORD PTR __real@42c80000
  0007a	6a 01		 push	 1
  0007c	51		 push	 ecx
  0007d	8b cb		 mov	 ecx, ebx
  0007f	f3 0f 11 04 24	 movss	 DWORD PTR [esp], xmm0
  00084	ff 15 00 00 00
	00		 call	 DWORD PTR __imp_?ClearAllLoopAni@ioEntityGroup@@QAEXM_N@Z

; 181  : 	pGrp->ClearAllActionAni( 100.0f, true );

  0008a	f3 0f 10 05 00
	00 00 00	 movss	 xmm0, DWORD PTR __real@42c80000
  00092	6a 01		 push	 1
  00094	51		 push	 ecx
  00095	8b cb		 mov	 ecx, ebx
  00097	f3 0f 11 04 24	 movss	 DWORD PTR [esp], xmm0
  0009c	ff 15 00 00 00
	00		 call	 DWORD PTR __imp_?ClearAllActionAni@ioEntityGroup@@QAEXM_N@Z

; 182  : 	pGrp->SetActionAni( iAniID, 100.0f, 100.0f, 1.0f, 1.0f/m_fAnimationTimeRate );

  000a2	0f 57 c0	 xorps	 xmm0, xmm0
  000a5	f2 0f 10 0d 00
	00 00 00	 movsd	 xmm1, QWORD PTR __real@3ff0000000000000
  000ad	6a 01		 push	 1
  000af	6a 00		 push	 0
  000b1	83 ec 18	 sub	 esp, 24			; 00000018H
  000b4	f3 0f 11 44 24
	14		 movss	 DWORD PTR [esp+20], xmm0
  000ba	f3 0f 11 44 24
	10		 movss	 DWORD PTR [esp+16], xmm0
  000c0	f3 0f 10 86 a0
	00 00 00	 movss	 xmm0, DWORD PTR [esi+160]
  000c8	0f 5a c0	 cvtps2pd xmm0, xmm0
  000cb	f2 0f 5e c8	 divsd	 xmm1, xmm0
  000cf	8b cb		 mov	 ecx, ebx
  000d1	66 0f 5a c1	 cvtpd2ps xmm0, xmm1
  000d5	f3 0f 11 44 24
	0c		 movss	 DWORD PTR [esp+12], xmm0
  000db	f3 0f 10 05 00
	00 00 00	 movss	 xmm0, DWORD PTR __real@3f800000
  000e3	f3 0f 11 44 24
	08		 movss	 DWORD PTR [esp+8], xmm0
  000e9	f3 0f 10 05 00
	00 00 00	 movss	 xmm0, DWORD PTR __real@42c80000
  000f1	f3 0f 11 44 24
	04		 movss	 DWORD PTR [esp+4], xmm0
  000f7	f3 0f 11 04 24	 movss	 DWORD PTR [esp], xmm0
  000fc	ff b5 d4 7f ff
	ff		 push	 DWORD PTR _iAniID$[ebp]
  00102	ff 15 00 00 00
	00		 call	 DWORD PTR __imp_?SetActionAni@ioEntityGroup@@QAE_NHMMMMMM_N0@Z

; 183  : 	m_dwMotionEndTime += FRAMEGETTIME() + pGrp->GetAnimationFullTime( iAniID ) * m_fAnimationTimeRate;

  00108	ff 15 00 00 00
	00		 call	 DWORD PTR __imp_?GetSingleton@ioFrameTimer@@SAAAV1@XZ
  0010e	8b c8		 mov	 ecx, eax
  00110	ff 15 00 00 00
	00		 call	 DWORD PTR __imp_?GetLoopSec@ioFrameTimer@@QBEKXZ
  00116	89 85 cc 7f ff
	ff		 mov	 DWORD PTR tv239[ebp], eax
  0011c	db 85 cc 7f ff
	ff		 fild	 DWORD PTR tv239[ebp]
  00122	85 c0		 test	 eax, eax
  00124	79 06		 jns	 SHORT $LN17@SetSkillAc
  00126	d8 05 00 00 00
	00		 fadd	 DWORD PTR __real@4f800000
$LN17@SetSkillAc:
  0012c	ff b5 d4 7f ff
	ff		 push	 DWORD PTR _iAniID$[ebp]
  00132	dd 9d c8 7f ff
	ff		 fstp	 QWORD PTR tv205[ebp]
  00138	8b cb		 mov	 ecx, ebx
  0013a	ff 15 00 00 00
	00		 call	 DWORD PTR __imp_?GetAnimationFullTime@ioEntityGroup@@QAEMH@Z
  00140	d8 8e a0 00 00
	00		 fmul	 DWORD PTR [esi+160]
  00146	8b 86 d8 02 00
	00		 mov	 eax, DWORD PTR [esi+728]
  0014c	dc 85 c8 7f ff
	ff		 fadd	 QWORD PTR tv205[ebp]
  00152	db 86 d8 02 00
	00		 fild	 DWORD PTR [esi+728]
  00158	85 c0		 test	 eax, eax
  0015a	79 06		 jns	 SHORT $LN18@SetSkillAc
  0015c	dc 05 00 00 00
	00		 fadd	 QWORD PTR __real@41f0000000000000
$LN18@SetSkillAc:
  00162	de c1		 faddp	 ST(1), ST(0)
  00164	e8 00 00 00 00	 call	 __ftol2
  00169	89 86 d8 02 00
	00		 mov	 DWORD PTR [esi+728], eax

; 184  : 
; 185  : 	if( pOwner->IsNeedSendNetwork() )

  0016f	8b 07		 mov	 eax, DWORD PTR [edi]
  00171	8b cf		 mov	 ecx, edi
  00173	ff 90 04 01 00
	00		 call	 DWORD PTR [eax+260]
  00179	84 c0		 test	 al, al
  0017b	74 78		 je	 SHORT $LN1@SetSkillAc

; 186  : 	{
; 187  : 		SP2Packet kPacket( CUPK_SKILL_EXTRA_INFO );

  0017d	68 39 41 00 00	 push	 16697			; 00004139H
  00182	8d 8d d8 7f ff
	ff		 lea	 ecx, DWORD PTR _kPacket$531789[ebp]
  00188	e8 00 00 00 00	 call	 ??0SP2Packet@@QAE@K@Z	; SP2Packet::SP2Packet
  0018d	83 65 fc 00	 and	 DWORD PTR __$EHRec$[ebp+8], 0

; 188  : 		kPacket << pOwner->GetCharName();

  00191	8d 87 d4 02 00
	00		 lea	 eax, DWORD PTR [edi+724]
  00197	50		 push	 eax
  00198	8d 8d d8 7f ff
	ff		 lea	 ecx, DWORD PTR _kPacket$531789[ebp]
  0019e	e8 00 00 00 00	 call	 ??6SP2Packet@@QAEAAV0@ABVioHashString@@@Z ; SP2Packet::operator<<

; 189  : 		kPacket << GetName();

  001a3	8d 46 24	 lea	 eax, DWORD PTR [esi+36]
  001a6	50		 push	 eax
  001a7	8d 8d d8 7f ff
	ff		 lea	 ecx, DWORD PTR _kPacket$531789[ebp]
  001ad	e8 00 00 00 00	 call	 ??6SP2Packet@@QAEAAV0@ABVioHashString@@@Z ; SP2Packet::operator<<

; 190  : 		kPacket << pOwner->GetTargetRot();

  001b2	81 c7 a4 06 00
	00		 add	 edi, 1700		; 000006a4H
  001b8	57		 push	 edi
  001b9	8d 8d d8 7f ff
	ff		 lea	 ecx, DWORD PTR _kPacket$531789[ebp]
  001bf	e8 00 00 00 00	 call	 ??6SP2Packet@@QAEAAV0@ABUD3DXQUATERNION@@@Z ; SP2Packet::operator<<

; 191  : 		kPacket << m_iCurUseCount;

  001c4	81 c6 14 11 00
	00		 add	 esi, 4372		; 00001114H
  001ca	56		 push	 esi
  001cb	8d 8d d8 7f ff
	ff		 lea	 ecx, DWORD PTR _kPacket$531789[ebp]
  001d1	e8 00 00 00 00	 call	 ??6SP2Packet@@QAEAAV0@AAV?$CEncrypt@H@@@Z ; SP2Packet::operator<<

; 192  : 		P2PNetwork::SendToAllPlayingUser( kPacket );

  001d6	8d 85 d8 7f ff
	ff		 lea	 eax, DWORD PTR _kPacket$531789[ebp]
  001dc	6a 00		 push	 0
  001de	50		 push	 eax
  001df	e8 00 00 00 00	 call	 ?SendToAllPlayingUser@P2PNetwork@@YAXAAVSP2Packet@@PAVioBaseChar@@@Z ; P2PNetwork::SendToAllPlayingUser

; 193  : 	}

  001e4	83 4d fc ff	 or	 DWORD PTR __$EHRec$[ebp+8], -1
  001e8	59		 pop	 ecx
  001e9	59		 pop	 ecx
  001ea	8d 8d d8 7f ff
	ff		 lea	 ecx, DWORD PTR _kPacket$531789[ebp]
  001f0	e8 00 00 00 00	 call	 ??1SP2Packet@@UAE@XZ	; SP2Packet::~SP2Packet
$LN1@SetSkillAc:

; 194  : }

  001f5	8b 4d f4	 mov	 ecx, DWORD PTR __$EHRec$[ebp]
  001f8	64 89 0d 00 00
	00 00		 mov	 DWORD PTR fs:0, ecx
  001ff	59		 pop	 ecx
  00200	5f		 pop	 edi
  00201	5e		 pop	 esi
  00202	5b		 pop	 ebx
  00203	8b 4d f0	 mov	 ecx, DWORD PTR __$ArrayPad$[ebp]
  00206	33 cd		 xor	 ecx, ebp
  00208	e8 00 00 00 00	 call	 @__security_check_cookie@4
  0020d	c9		 leave
  0020e	c2 08 00	 ret	 8
_TEXT	ENDS
;	COMDAT text$x
text$x	SEGMENT
__unwindfunclet$?SetSkillActionState@ioBuffCountSkill@@IAEXPAVioBaseChar@@PAVioPlayStage@@@Z$0:
  00000	8d 8d d8 7f ff
	ff		 lea	 ecx, DWORD PTR _kPacket$531789[ebp]
  00006	e9 00 00 00 00	 jmp	 ??1SP2Packet@@UAE@XZ	; SP2Packet::~SP2Packet
__ehhandler$?SetSkillActionState@ioBuffCountSkill@@IAEXPAVioBaseChar@@PAVioPlayStage@@@Z:
  0000b	8b 54 24 08	 mov	 edx, DWORD PTR [esp+8]
  0000f	8d 42 0c	 lea	 eax, DWORD PTR [edx+12]
  00012	8b 8a c4 7f ff
	ff		 mov	 ecx, DWORD PTR [edx-32828]
  00018	33 c8		 xor	 ecx, eax
  0001a	e8 00 00 00 00	 call	 @__security_check_cookie@4
  0001f	8b 4a fc	 mov	 ecx, DWORD PTR [edx-4]
  00022	33 c8		 xor	 ecx, eax
  00024	e8 00 00 00 00	 call	 @__security_check_cookie@4
  00029	b8 00 00 00 00	 mov	 eax, OFFSET __ehfuncinfo$?SetSkillActionState@ioBuffCountSkill@@IAEXPAVioBaseChar@@PAVioPlayStage@@@Z
  0002e	e9 00 00 00 00	 jmp	 ___CxxFrameHandler3
text$x	ENDS
?SetSkillActionState@ioBuffCountSkill@@IAEXPAVioBaseChar@@PAVioPlayStage@@@Z ENDP ; ioBuffCountSkill::SetSkillActionState
PUBLIC	??_C@_00CNPNBAHC@?$AA@				; `string'
PUBLIC	?SetOwnerBuff@ioBuffCountSkill@@IAEXPAVioBaseChar@@PAVioPlayStage@@@Z ; ioBuffCountSkill::SetOwnerBuff
EXTRN	?AddNewBuff@ioBaseChar@@QAEPAVioBuff@@ABVioHashString@@00PAVioSkill@@_N@Z:PROC ; ioBaseChar::AddNewBuff
EXTRN	__imp_??0ioHashString@@QAE@PBD@Z:PROC
;	COMDAT ??_C@_00CNPNBAHC@?$AA@
; File c:\program files (x86)\microsoft visual studio 10.0\vc\include\vector
CONST	SEGMENT
??_C@_00CNPNBAHC@?$AA@ DB 00H				; `string'
CONST	ENDS
;	COMDAT xdata$x
xdata$x	SEGMENT
__unwindtable$?SetOwnerBuff@ioBuffCountSkill@@IAEXPAVioBaseChar@@PAVioPlayStage@@@Z DD 0ffffffffH
	DD	FLAT:__unwindfunclet$?SetOwnerBuff@ioBuffCountSkill@@IAEXPAVioBaseChar@@PAVioPlayStage@@@Z$0
__ehfuncinfo$?SetOwnerBuff@ioBuffCountSkill@@IAEXPAVioBaseChar@@PAVioPlayStage@@@Z DD 019930522H
	DD	01H
	DD	FLAT:__unwindtable$?SetOwnerBuff@ioBuffCountSkill@@IAEXPAVioBaseChar@@PAVioPlayStage@@@Z
	DD	2 DUP(00H)
	DD	2 DUP(00H)
	DD	00H
	DD	01H
; Function compile flags: /Ogsp
; File d:\lost saga for developer\youtube\tutorial\source\src\lsclient\iobuffcountskill.cpp
xdata$x	ENDS
;	COMDAT ?SetOwnerBuff@ioBuffCountSkill@@IAEXPAVioBaseChar@@PAVioPlayStage@@@Z
_TEXT	SEGMENT
$T534838 = -32						; size = 16
_i$531795 = -16						; size = 4
__$EHRec$ = -12						; size = 12
_pOwner$ = 8						; size = 4
_pStage$ = 12						; size = 4
?SetOwnerBuff@ioBuffCountSkill@@IAEXPAVioBaseChar@@PAVioPlayStage@@@Z PROC ; ioBuffCountSkill::SetOwnerBuff, COMDAT
; _this$ = ecx

; 197  : {

  00000	6a 14		 push	 20			; 00000014H
  00002	b8 00 00 00 00	 mov	 eax, __ehhandler$?SetOwnerBuff@ioBuffCountSkill@@IAEXPAVioBaseChar@@PAVioPlayStage@@@Z
  00007	e8 00 00 00 00	 call	 __EH_prolog3
  0000c	8b f1		 mov	 esi, ecx

; 198  : 	for( int i = 0; i < (int)m_CurrBuffList.size(); ++i )

  0000e	8b 86 80 12 00
	00		 mov	 eax, DWORD PTR [esi+4736]
  00014	2b 86 7c 12 00
	00		 sub	 eax, DWORD PTR [esi+4732]
  0001a	33 ff		 xor	 edi, edi
  0001c	89 7d f0	 mov	 DWORD PTR _i$531795[ebp], edi
  0001f	a9 f0 ff ff ff	 test	 eax, -16		; fffffff0H
  00024	7e 5a		 jle	 SHORT $LN1@SetOwnerBu
  00026	8b 5d 08	 mov	 ebx, DWORD PTR _pOwner$[ebp]
$LL3@SetOwnerBu:

; 199  : 	{
; 200  : 		pOwner->AddNewBuff( m_CurrBuffList[i], pOwner->GetCharName(), "", this );

  00029	68 00 00 00 00	 push	 OFFSET ??_C@_00CNPNBAHC@?$AA@
  0002e	8d 4d e0	 lea	 ecx, DWORD PTR $T534838[ebp]
  00031	ff 15 00 00 00
	00		 call	 DWORD PTR __imp_??0ioHashString@@QAE@PBD@Z
  00037	83 65 fc 00	 and	 DWORD PTR __$EHRec$[ebp+8], 0
  0003b	6a 00		 push	 0
  0003d	56		 push	 esi
  0003e	8d 45 e0	 lea	 eax, DWORD PTR $T534838[ebp]
  00041	50		 push	 eax
  00042	8d 83 d4 02 00
	00		 lea	 eax, DWORD PTR [ebx+724]
  00048	50		 push	 eax
  00049	8b 86 7c 12 00
	00		 mov	 eax, DWORD PTR [esi+4732]
  0004f	03 c7		 add	 eax, edi
  00051	50		 push	 eax
  00052	8b cb		 mov	 ecx, ebx
  00054	e8 00 00 00 00	 call	 ?AddNewBuff@ioBaseChar@@QAEPAVioBuff@@ABVioHashString@@00PAVioSkill@@_N@Z ; ioBaseChar::AddNewBuff
  00059	83 4d fc ff	 or	 DWORD PTR __$EHRec$[ebp+8], -1
  0005d	8d 4d e0	 lea	 ecx, DWORD PTR $T534838[ebp]
  00060	ff 15 00 00 00
	00		 call	 DWORD PTR __imp_??1ioHashString@@QAE@XZ
  00066	8b 86 80 12 00
	00		 mov	 eax, DWORD PTR [esi+4736]
  0006c	2b 86 7c 12 00
	00		 sub	 eax, DWORD PTR [esi+4732]
  00072	ff 45 f0	 inc	 DWORD PTR _i$531795[ebp]
  00075	c1 f8 04	 sar	 eax, 4
  00078	83 c7 10	 add	 edi, 16			; 00000010H
  0007b	39 45 f0	 cmp	 DWORD PTR _i$531795[ebp], eax
  0007e	7c a9		 jl	 SHORT $LL3@SetOwnerBu
$LN1@SetOwnerBu:

; 201  : 	}
; 202  : }

  00080	e8 00 00 00 00	 call	 __EH_epilog3
  00085	c2 08 00	 ret	 8
_TEXT	ENDS
;	COMDAT text$x
text$x	SEGMENT
__unwindfunclet$?SetOwnerBuff@ioBuffCountSkill@@IAEXPAVioBaseChar@@PAVioPlayStage@@@Z$0:
  00000	8d 4d e0	 lea	 ecx, DWORD PTR $T534838[ebp]
  00003	ff 25 00 00 00
	00		 jmp	 DWORD PTR __imp_??1ioHashString@@QAE@XZ
__ehhandler$?SetOwnerBuff@ioBuffCountSkill@@IAEXPAVioBaseChar@@PAVioPlayStage@@@Z:
  00009	8b 54 24 08	 mov	 edx, DWORD PTR [esp+8]
  0000d	8d 42 0c	 lea	 eax, DWORD PTR [edx+12]
  00010	8b 4a dc	 mov	 ecx, DWORD PTR [edx-36]
  00013	33 c8		 xor	 ecx, eax
  00015	e8 00 00 00 00	 call	 @__security_check_cookie@4
  0001a	b8 00 00 00 00	 mov	 eax, OFFSET __ehfuncinfo$?SetOwnerBuff@ioBuffCountSkill@@IAEXPAVioBaseChar@@PAVioPlayStage@@@Z
  0001f	e9 00 00 00 00	 jmp	 ___CxxFrameHandler3
text$x	ENDS
?SetOwnerBuff@ioBuffCountSkill@@IAEXPAVioBaseChar@@PAVioPlayStage@@@Z ENDP ; ioBuffCountSkill::SetOwnerBuff
PUBLIC	?ApplyExtraSkillInfo@ioBuffCountSkill@@UAEXPAVioBaseChar@@PAVioPlayStage@@AAVSP2Packet@@@Z ; ioBuffCountSkill::ApplyExtraSkillInfo
EXTRN	??5SP2Packet@@QAEAAV0@AAV?$CEncrypt@H@@@Z:PROC	; SP2Packet::operator>>
EXTRN	?SetTargetRot@ioBaseChar@@QAEXABUD3DXQUATERNION@@@Z:PROC ; ioBaseChar::SetTargetRot
EXTRN	??5SP2Packet@@QAEAAV0@AAUD3DXQUATERNION@@@Z:PROC ; SP2Packet::operator>>
; Function compile flags: /Ogsp
;	COMDAT ?ApplyExtraSkillInfo@ioBuffCountSkill@@UAEXPAVioBaseChar@@PAVioPlayStage@@AAVSP2Packet@@@Z
_TEXT	SEGMENT
_qtRot$ = -16						; size = 16
_pChar$ = 8						; size = 4
_pStage$ = 12						; size = 4
_rkPacket$ = 16						; size = 4
?ApplyExtraSkillInfo@ioBuffCountSkill@@UAEXPAVioBaseChar@@PAVioPlayStage@@AAVSP2Packet@@@Z PROC ; ioBuffCountSkill::ApplyExtraSkillInfo, COMDAT
; _this$ = ecx

; 231  : {

  00000	55		 push	 ebp
  00001	8b ec		 mov	 ebp, esp
  00003	83 ec 10	 sub	 esp, 16			; 00000010H

; 232  : 	if( !pChar )

  00006	83 7d 08 00	 cmp	 DWORD PTR _pChar$[ebp], 0
  0000a	56		 push	 esi
  0000b	8b f1		 mov	 esi, ecx
  0000d	74 34		 je	 SHORT $LN3@ApplyExtra

; 233  : 		return;
; 234  : 
; 235  : 	D3DXQUATERNION qtRot;
; 236  : 	rkPacket >> qtRot;

  0000f	8b 4d 10	 mov	 ecx, DWORD PTR _rkPacket$[ebp]
  00012	8d 45 f0	 lea	 eax, DWORD PTR _qtRot$[ebp]
  00015	50		 push	 eax
  00016	e8 00 00 00 00	 call	 ??5SP2Packet@@QAEAAV0@AAUD3DXQUATERNION@@@Z ; SP2Packet::operator>>

; 237  : 
; 238  : 	if( pChar )
; 239  : 		pChar->SetTargetRot( qtRot );

  0001b	8b 4d 08	 mov	 ecx, DWORD PTR _pChar$[ebp]
  0001e	8d 45 f0	 lea	 eax, DWORD PTR _qtRot$[ebp]
  00021	50		 push	 eax
  00022	e8 00 00 00 00	 call	 ?SetTargetRot@ioBaseChar@@QAEXABUD3DXQUATERNION@@@Z ; ioBaseChar::SetTargetRot

; 240  : 	
; 241  : 	rkPacket >> m_iCurUseCount;

  00027	8b 4d 10	 mov	 ecx, DWORD PTR _rkPacket$[ebp]
  0002a	8d 86 14 11 00
	00		 lea	 eax, DWORD PTR [esi+4372]
  00030	50		 push	 eax
  00031	e8 00 00 00 00	 call	 ??5SP2Packet@@QAEAAV0@AAV?$CEncrypt@H@@@Z ; SP2Packet::operator>>

; 242  : 	SetSkillActionState( pChar, pStage );

  00036	ff 75 0c	 push	 DWORD PTR _pStage$[ebp]
  00039	8b ce		 mov	 ecx, esi
  0003b	ff 75 08	 push	 DWORD PTR _pChar$[ebp]
  0003e	e8 00 00 00 00	 call	 ?SetSkillActionState@ioBuffCountSkill@@IAEXPAVioBaseChar@@PAVioPlayStage@@@Z ; ioBuffCountSkill::SetSkillActionState
$LN3@ApplyExtra:
  00043	5e		 pop	 esi

; 243  : }

  00044	c9		 leave
  00045	c2 0c 00	 ret	 12			; 0000000cH
?ApplyExtraSkillInfo@ioBuffCountSkill@@UAEXPAVioBaseChar@@PAVioPlayStage@@AAVSP2Packet@@@Z ENDP ; ioBuffCountSkill::ApplyExtraSkillInfo
_TEXT	ENDS
PUBLIC	??Z?$CEncrypt@H@@QAEAAHABH@Z			; CEncrypt<int>::operator-=
; Function compile flags: /Ogsp
; File d:\lost saga for developer\youtube\tutorial\source\src\lsclient\encryptvalue.h
;	COMDAT ??Z?$CEncrypt@H@@QAEAAHABH@Z
_TEXT	SEGMENT
_value$ = -4						; size = 4
_inValue$ = 8						; size = 4
??Z?$CEncrypt@H@@QAEAAHABH@Z PROC			; CEncrypt<int>::operator-=, COMDAT
; _this$ = ecx

; 919  : 	{

  00000	55		 push	 ebp
  00001	8b ec		 mov	 ebp, esp
  00003	51		 push	 ecx
  00004	56		 push	 esi

; 920  : 		
; 921  : 		type value;
; 922  : 		DecryptValueToPool(&value);

  00005	8d 45 fc	 lea	 eax, DWORD PTR _value$[ebp]
  00008	50		 push	 eax
  00009	8b f1		 mov	 esi, ecx
  0000b	e8 00 00 00 00	 call	 ?DecryptValueToPool@?$CEncrypt@H@@QAEXPAH@Z ; CEncrypt<int>::DecryptValueToPool

; 923  : 		value -= inValue;

  00010	8b 45 08	 mov	 eax, DWORD PTR _inValue$[ebp]
  00013	8b 00		 mov	 eax, DWORD PTR [eax]
  00015	29 45 fc	 sub	 DWORD PTR _value$[ebp], eax

; 924  : 		EncryptValueToPool((char*)&value);

  00018	8d 45 fc	 lea	 eax, DWORD PTR _value$[ebp]
  0001b	50		 push	 eax
  0001c	8b ce		 mov	 ecx, esi
  0001e	e8 00 00 00 00	 call	 ?EncryptValueToPool@?$CEncrypt@H@@AAEXPBD@Z ; CEncrypt<int>::EncryptValueToPool

; 925  : #ifdef _NOTUSE
; 926  : 		m_value -= inValue;
; 927  : 		Debug();
; 928  : #endif
; 929  : 		return value;

  00023	8d 45 fc	 lea	 eax, DWORD PTR _value$[ebp]
  00026	5e		 pop	 esi

; 930  : 	} 

  00027	c9		 leave
  00028	c2 04 00	 ret	 4
??Z?$CEncrypt@H@@QAEAAHABH@Z ENDP			; CEncrypt<int>::operator-=
_TEXT	ENDS
PUBLIC	??O?$CEncrypt@H@@QAE_NABH@Z			; CEncrypt<int>::operator>
; Function compile flags: /Ogsp
;	COMDAT ??O?$CEncrypt@H@@QAE_NABH@Z
_TEXT	SEGMENT
_value$ = -4						; size = 4
_inValue$ = 8						; size = 4
??O?$CEncrypt@H@@QAE_NABH@Z PROC			; CEncrypt<int>::operator>, COMDAT
; _this$ = ecx

; 1009 : 	{

  00000	55		 push	 ebp
  00001	8b ec		 mov	 ebp, esp
  00003	51		 push	 ecx

; 1010 : 		
; 1011 : 		type value;
; 1012 : 		DecryptValueToPool(&value);

  00004	8d 45 fc	 lea	 eax, DWORD PTR _value$[ebp]
  00007	50		 push	 eax
  00008	e8 00 00 00 00	 call	 ?DecryptValueToPool@?$CEncrypt@H@@QAEXPAH@Z ; CEncrypt<int>::DecryptValueToPool

; 1013 : #ifdef _NOTUSE
; 1014 : 		Debug();
; 1015 : #endif
; 1016 : 		return (value > inValue);

  0000d	8b 4d 08	 mov	 ecx, DWORD PTR _inValue$[ebp]
  00010	8b 55 fc	 mov	 edx, DWORD PTR _value$[ebp]
  00013	33 c0		 xor	 eax, eax
  00015	3b 11		 cmp	 edx, DWORD PTR [ecx]
  00017	0f 9f c0	 setg	 al

; 1017 : 	}		

  0001a	c9		 leave
  0001b	c2 04 00	 ret	 4
??O?$CEncrypt@H@@QAE_NABH@Z ENDP			; CEncrypt<int>::operator>
_TEXT	ENDS
PUBLIC	?begin@?$vector@UBuffInfo@ioBuffCountSkill@@V?$allocator@UBuffInfo@ioBuffCountSkill@@@std@@@std@@QBE?AV?$_Vector_const_iterator@V?$_Vector_val@UBuffInfo@ioBuffCountSkill@@V?$allocator@UBuffInfo@ioBuffCountSkill@@@std@@@std@@@2@XZ ; std::vector<ioBuffCountSkill::BuffInfo,std::allocator<ioBuffCountSkill::BuffInfo> >::begin
; Function compile flags: /Ogsp
; File c:\program files (x86)\microsoft visual studio 10.0\vc\include\vector
;	COMDAT ?begin@?$vector@UBuffInfo@ioBuffCountSkill@@V?$allocator@UBuffInfo@ioBuffCountSkill@@@std@@@std@@QBE?AV?$_Vector_const_iterator@V?$_Vector_val@UBuffInfo@ioBuffCountSkill@@V?$allocator@UBuffInfo@ioBuffCountSkill@@@std@@@std@@@2@XZ
_TEXT	SEGMENT
___$ReturnUdt$ = 8					; size = 4
?begin@?$vector@UBuffInfo@ioBuffCountSkill@@V?$allocator@UBuffInfo@ioBuffCountSkill@@@std@@@std@@QBE?AV?$_Vector_const_iterator@V?$_Vector_val@UBuffInfo@ioBuffCountSkill@@V?$allocator@UBuffInfo@ioBuffCountSkill@@@std@@@std@@@2@XZ PROC ; std::vector<ioBuffCountSkill::BuffInfo,std::allocator<ioBuffCountSkill::BuffInfo> >::begin, COMDAT
; _this$ = ecx

; 786  : 		{	// return iterator for beginning of nonmutable sequence

  00000	55		 push	 ebp
  00001	8b ec		 mov	 ebp, esp

; 787  : 		return (const_iterator(this->_Myfirst, this));

  00003	8b 09		 mov	 ecx, DWORD PTR [ecx]
  00005	8b 45 08	 mov	 eax, DWORD PTR ___$ReturnUdt$[ebp]
  00008	89 08		 mov	 DWORD PTR [eax], ecx

; 788  : 		}

  0000a	5d		 pop	 ebp
  0000b	c2 04 00	 ret	 4
?begin@?$vector@UBuffInfo@ioBuffCountSkill@@V?$allocator@UBuffInfo@ioBuffCountSkill@@@std@@@std@@QBE?AV?$_Vector_const_iterator@V?$_Vector_val@UBuffInfo@ioBuffCountSkill@@V?$allocator@UBuffInfo@ioBuffCountSkill@@@std@@@std@@@2@XZ ENDP ; std::vector<ioBuffCountSkill::BuffInfo,std::allocator<ioBuffCountSkill::BuffInfo> >::begin
_TEXT	ENDS
PUBLIC	?end@?$vector@UBuffInfo@ioBuffCountSkill@@V?$allocator@UBuffInfo@ioBuffCountSkill@@@std@@@std@@QBE?AV?$_Vector_const_iterator@V?$_Vector_val@UBuffInfo@ioBuffCountSkill@@V?$allocator@UBuffInfo@ioBuffCountSkill@@@std@@@std@@@2@XZ ; std::vector<ioBuffCountSkill::BuffInfo,std::allocator<ioBuffCountSkill::BuffInfo> >::end
; Function compile flags: /Ogsp
;	COMDAT ?end@?$vector@UBuffInfo@ioBuffCountSkill@@V?$allocator@UBuffInfo@ioBuffCountSkill@@@std@@@std@@QBE?AV?$_Vector_const_iterator@V?$_Vector_val@UBuffInfo@ioBuffCountSkill@@V?$allocator@UBuffInfo@ioBuffCountSkill@@@std@@@std@@@2@XZ
_TEXT	SEGMENT
___$ReturnUdt$ = 8					; size = 4
?end@?$vector@UBuffInfo@ioBuffCountSkill@@V?$allocator@UBuffInfo@ioBuffCountSkill@@@std@@@std@@QBE?AV?$_Vector_const_iterator@V?$_Vector_val@UBuffInfo@ioBuffCountSkill@@V?$allocator@UBuffInfo@ioBuffCountSkill@@@std@@@std@@@2@XZ PROC ; std::vector<ioBuffCountSkill::BuffInfo,std::allocator<ioBuffCountSkill::BuffInfo> >::end, COMDAT
; _this$ = ecx

; 796  : 		{	// return iterator for end of nonmutable sequence

  00000	55		 push	 ebp
  00001	8b ec		 mov	 ebp, esp

; 797  : 		return (const_iterator(this->_Mylast, this));

  00003	8b 49 04	 mov	 ecx, DWORD PTR [ecx+4]
  00006	8b 45 08	 mov	 eax, DWORD PTR ___$ReturnUdt$[ebp]
  00009	89 08		 mov	 DWORD PTR [eax], ecx

; 798  : 		}

  0000b	5d		 pop	 ebp
  0000c	c2 04 00	 ret	 4
?end@?$vector@UBuffInfo@ioBuffCountSkill@@V?$allocator@UBuffInfo@ioBuffCountSkill@@@std@@@std@@QBE?AV?$_Vector_const_iterator@V?$_Vector_val@UBuffInfo@ioBuffCountSkill@@V?$allocator@UBuffInfo@ioBuffCountSkill@@@std@@@std@@@2@XZ ENDP ; std::vector<ioBuffCountSkill::BuffInfo,std::allocator<ioBuffCountSkill::BuffInfo> >::end
_TEXT	ENDS
PUBLIC	??0?$_Vector_val@UBuffInfo@ioBuffCountSkill@@V?$allocator@UBuffInfo@ioBuffCountSkill@@@std@@@std@@QAE@V?$allocator@UBuffInfo@ioBuffCountSkill@@@1@@Z ; std::_Vector_val<ioBuffCountSkill::BuffInfo,std::allocator<ioBuffCountSkill::BuffInfo> >::_Vector_val<ioBuffCountSkill::BuffInfo,std::allocator<ioBuffCountSkill::BuffInfo> >
; Function compile flags: /Ogsp
;	COMDAT ??0?$_Vector_val@UBuffInfo@ioBuffCountSkill@@V?$allocator@UBuffInfo@ioBuffCountSkill@@@std@@@std@@QAE@V?$allocator@UBuffInfo@ioBuffCountSkill@@@1@@Z
_TEXT	SEGMENT
__Al$ = 8						; size = 1
??0?$_Vector_val@UBuffInfo@ioBuffCountSkill@@V?$allocator@UBuffInfo@ioBuffCountSkill@@@std@@@std@@QAE@V?$allocator@UBuffInfo@ioBuffCountSkill@@@1@@Z PROC ; std::_Vector_val<ioBuffCountSkill::BuffInfo,std::allocator<ioBuffCountSkill::BuffInfo> >::_Vector_val<ioBuffCountSkill::BuffInfo,std::allocator<ioBuffCountSkill::BuffInfo> >, COMDAT
; _this$ = ecx

; 426  : 		{	// construct allocator from _Al

  00000	8b c1		 mov	 eax, ecx

; 427  : 		_Myfirst = 0;

  00002	33 c9		 xor	 ecx, ecx
  00004	89 08		 mov	 DWORD PTR [eax], ecx

; 428  : 		_Mylast = 0;

  00006	89 48 04	 mov	 DWORD PTR [eax+4], ecx

; 429  : 		_Myend = 0;

  00009	89 48 08	 mov	 DWORD PTR [eax+8], ecx

; 430  : 		}

  0000c	c2 04 00	 ret	 4
??0?$_Vector_val@UBuffInfo@ioBuffCountSkill@@V?$allocator@UBuffInfo@ioBuffCountSkill@@@std@@@std@@QAE@V?$allocator@UBuffInfo@ioBuffCountSkill@@@1@@Z ENDP ; std::_Vector_val<ioBuffCountSkill::BuffInfo,std::allocator<ioBuffCountSkill::BuffInfo> >::_Vector_val<ioBuffCountSkill::BuffInfo,std::allocator<ioBuffCountSkill::BuffInfo> >
_TEXT	ENDS
PUBLIC	??0?$_Vector_iterator@V?$_Vector_val@UBuffInfo@ioBuffCountSkill@@V?$allocator@UBuffInfo@ioBuffCountSkill@@@std@@@std@@@std@@QAE@PAUBuffInfo@ioBuffCountSkill@@PBU_Container_base0@1@@Z ; std::_Vector_iterator<std::_Vector_val<ioBuffCountSkill::BuffInfo,std::allocator<ioBuffCountSkill::BuffInfo> > >::_Vector_iterator<std::_Vector_val<ioBuffCountSkill::BuffInfo,std::allocator<ioBuffCountSkill::BuffInfo> > >
; Function compile flags: /Ogsp
;	COMDAT ??0?$_Vector_iterator@V?$_Vector_val@UBuffInfo@ioBuffCountSkill@@V?$allocator@UBuffInfo@ioBuffCountSkill@@@std@@@std@@@std@@QAE@PAUBuffInfo@ioBuffCountSkill@@PBU_Container_base0@1@@Z
_TEXT	SEGMENT
__Parg$ = 8						; size = 4
__Pvector$ = 12						; size = 4
??0?$_Vector_iterator@V?$_Vector_val@UBuffInfo@ioBuffCountSkill@@V?$allocator@UBuffInfo@ioBuffCountSkill@@@std@@@std@@@std@@QAE@PAUBuffInfo@ioBuffCountSkill@@PBU_Container_base0@1@@Z PROC ; std::_Vector_iterator<std::_Vector_val<ioBuffCountSkill::BuffInfo,std::allocator<ioBuffCountSkill::BuffInfo> > >::_Vector_iterator<std::_Vector_val<ioBuffCountSkill::BuffInfo,std::allocator<ioBuffCountSkill::BuffInfo> > >, COMDAT
; _this$ = ecx

; 304  : 		{	// construct with pointer _Parg

  00000	55		 push	 ebp
  00001	8b ec		 mov	 ebp, esp
  00003	8b c1		 mov	 eax, ecx
  00005	8b 4d 08	 mov	 ecx, DWORD PTR __Parg$[ebp]
  00008	89 08		 mov	 DWORD PTR [eax], ecx

; 305  : 		}

  0000a	5d		 pop	 ebp
  0000b	c2 08 00	 ret	 8
??0?$_Vector_iterator@V?$_Vector_val@UBuffInfo@ioBuffCountSkill@@V?$allocator@UBuffInfo@ioBuffCountSkill@@@std@@@std@@@std@@QAE@PAUBuffInfo@ioBuffCountSkill@@PBU_Container_base0@1@@Z ENDP ; std::_Vector_iterator<std::_Vector_val<ioBuffCountSkill::BuffInfo,std::allocator<ioBuffCountSkill::BuffInfo> > >::_Vector_iterator<std::_Vector_val<ioBuffCountSkill::BuffInfo,std::allocator<ioBuffCountSkill::BuffInfo> > >
_TEXT	ENDS
PUBLIC	??D?$_Vector_iterator@V?$_Vector_val@UBuffInfo@ioBuffCountSkill@@V?$allocator@UBuffInfo@ioBuffCountSkill@@@std@@@std@@@std@@QBEAAUBuffInfo@ioBuffCountSkill@@XZ ; std::_Vector_iterator<std::_Vector_val<ioBuffCountSkill::BuffInfo,std::allocator<ioBuffCountSkill::BuffInfo> > >::operator*
; Function compile flags: /Ogsp
;	COMDAT ??D?$_Vector_iterator@V?$_Vector_val@UBuffInfo@ioBuffCountSkill@@V?$allocator@UBuffInfo@ioBuffCountSkill@@@std@@@std@@@std@@QBEAAUBuffInfo@ioBuffCountSkill@@XZ
_TEXT	SEGMENT
??D?$_Vector_iterator@V?$_Vector_val@UBuffInfo@ioBuffCountSkill@@V?$allocator@UBuffInfo@ioBuffCountSkill@@@std@@@std@@@std@@QBEAAUBuffInfo@ioBuffCountSkill@@XZ PROC ; std::_Vector_iterator<std::_Vector_val<ioBuffCountSkill::BuffInfo,std::allocator<ioBuffCountSkill::BuffInfo> > >::operator*, COMDAT
; _this$ = ecx

; 322  : 		return ((reference)**(_Mybase *)this);

  00000	8b 01		 mov	 eax, DWORD PTR [ecx]

; 323  : 		}

  00002	c3		 ret	 0
??D?$_Vector_iterator@V?$_Vector_val@UBuffInfo@ioBuffCountSkill@@V?$allocator@UBuffInfo@ioBuffCountSkill@@@std@@@std@@@std@@QBEAAUBuffInfo@ioBuffCountSkill@@XZ ENDP ; std::_Vector_iterator<std::_Vector_val<ioBuffCountSkill::BuffInfo,std::allocator<ioBuffCountSkill::BuffInfo> > >::operator*
_TEXT	ENDS
PUBLIC	??F?$_Vector_iterator@V?$_Vector_val@UBuffInfo@ioBuffCountSkill@@V?$allocator@UBuffInfo@ioBuffCountSkill@@@std@@@std@@@std@@QAEAAV01@XZ ; std::_Vector_iterator<std::_Vector_val<ioBuffCountSkill::BuffInfo,std::allocator<ioBuffCountSkill::BuffInfo> > >::operator--
; Function compile flags: /Ogsp
;	COMDAT ??F?$_Vector_iterator@V?$_Vector_val@UBuffInfo@ioBuffCountSkill@@V?$allocator@UBuffInfo@ioBuffCountSkill@@@std@@@std@@@std@@QAEAAV01@XZ
_TEXT	SEGMENT
??F?$_Vector_iterator@V?$_Vector_val@UBuffInfo@ioBuffCountSkill@@V?$allocator@UBuffInfo@ioBuffCountSkill@@@std@@@std@@@std@@QAEAAV01@XZ PROC ; std::_Vector_iterator<std::_Vector_val<ioBuffCountSkill::BuffInfo,std::allocator<ioBuffCountSkill::BuffInfo> > >::operator--, COMDAT
; _this$ = ecx

; 344  : 		{	// predecrement

  00000	8b c1		 mov	 eax, ecx

; 345  : 		--*(_Mybase *)this;

  00002	83 00 ec	 add	 DWORD PTR [eax], -20	; ffffffecH

; 346  : 		return (*this);
; 347  : 		}

  00005	c3		 ret	 0
??F?$_Vector_iterator@V?$_Vector_val@UBuffInfo@ioBuffCountSkill@@V?$allocator@UBuffInfo@ioBuffCountSkill@@@std@@@std@@@std@@QAEAAV01@XZ ENDP ; std::_Vector_iterator<std::_Vector_val<ioBuffCountSkill::BuffInfo,std::allocator<ioBuffCountSkill::BuffInfo> > >::operator--
_TEXT	ENDS
PUBLIC	??0?$reverse_iterator@V?$_Vector_iterator@V?$_Vector_val@UBuffInfo@ioBuffCountSkill@@V?$allocator@UBuffInfo@ioBuffCountSkill@@@std@@@std@@@std@@@std@@QAE@V?$_Vector_iterator@V?$_Vector_val@UBuffInfo@ioBuffCountSkill@@V?$allocator@UBuffInfo@ioBuffCountSkill@@@std@@@std@@@1@@Z ; std::reverse_iterator<std::_Vector_iterator<std::_Vector_val<ioBuffCountSkill::BuffInfo,std::allocator<ioBuffCountSkill::BuffInfo> > > >::reverse_iterator<std::_Vector_iterator<std::_Vector_val<ioBuffCountSkill::BuffInfo,std::allocator<ioBuffCountSkill::BuffInfo> > > >
; Function compile flags: /Ogsp
; File c:\program files (x86)\microsoft visual studio 10.0\vc\include\xutility
;	COMDAT ??0?$reverse_iterator@V?$_Vector_iterator@V?$_Vector_val@UBuffInfo@ioBuffCountSkill@@V?$allocator@UBuffInfo@ioBuffCountSkill@@@std@@@std@@@std@@@std@@QAE@V?$_Vector_iterator@V?$_Vector_val@UBuffInfo@ioBuffCountSkill@@V?$allocator@UBuffInfo@ioBuffCountSkill@@@std@@@std@@@1@@Z
_TEXT	SEGMENT
__Right$ = 8						; size = 4
??0?$reverse_iterator@V?$_Vector_iterator@V?$_Vector_val@UBuffInfo@ioBuffCountSkill@@V?$allocator@UBuffInfo@ioBuffCountSkill@@@std@@@std@@@std@@@std@@QAE@V?$_Vector_iterator@V?$_Vector_val@UBuffInfo@ioBuffCountSkill@@V?$allocator@UBuffInfo@ioBuffCountSkill@@@std@@@std@@@1@@Z PROC ; std::reverse_iterator<std::_Vector_iterator<std::_Vector_val<ioBuffCountSkill::BuffInfo,std::allocator<ioBuffCountSkill::BuffInfo> > > >::reverse_iterator<std::_Vector_iterator<std::_Vector_val<ioBuffCountSkill::BuffInfo,std::allocator<ioBuffCountSkill::BuffInfo> > > >, COMDAT
; _this$ = ecx

; 1249 : 		{	// construct wrapped iterator from _Right

  00000	55		 push	 ebp
  00001	8b ec		 mov	 ebp, esp
  00003	8b c1		 mov	 eax, ecx
  00005	8b 4d 08	 mov	 ecx, DWORD PTR __Right$[ebp]
  00008	89 08		 mov	 DWORD PTR [eax], ecx

; 1250 : 		}

  0000a	5d		 pop	 ebp
  0000b	c2 04 00	 ret	 4
??0?$reverse_iterator@V?$_Vector_iterator@V?$_Vector_val@UBuffInfo@ioBuffCountSkill@@V?$allocator@UBuffInfo@ioBuffCountSkill@@@std@@@std@@@std@@@std@@QAE@V?$_Vector_iterator@V?$_Vector_val@UBuffInfo@ioBuffCountSkill@@V?$allocator@UBuffInfo@ioBuffCountSkill@@@std@@@std@@@1@@Z ENDP ; std::reverse_iterator<std::_Vector_iterator<std::_Vector_val<ioBuffCountSkill::BuffInfo,std::allocator<ioBuffCountSkill::BuffInfo> > > >::reverse_iterator<std::_Vector_iterator<std::_Vector_val<ioBuffCountSkill::BuffInfo,std::allocator<ioBuffCountSkill::BuffInfo> > > >
_TEXT	ENDS
PUBLIC	??E?$_Revranit@V?$_Vector_iterator@V?$_Vector_val@UBuffInfo@ioBuffCountSkill@@V?$allocator@UBuffInfo@ioBuffCountSkill@@@std@@@std@@@std@@U?$iterator@Urandom_access_iterator_tag@std@@UBuffInfo@ioBuffCountSkill@@HPAU34@AAU34@@2@@std@@QAEAAV01@XZ ; std::_Revranit<std::_Vector_iterator<std::_Vector_val<ioBuffCountSkill::BuffInfo,std::allocator<ioBuffCountSkill::BuffInfo> > >,std::iterator<std::random_access_iterator_tag,ioBuffCountSkill::BuffInfo,int,ioBuffCountSkill::BuffInfo *,ioBuffCountSkill::BuffInfo &> >::operator++
; Function compile flags: /Ogsp
;	COMDAT ??E?$_Revranit@V?$_Vector_iterator@V?$_Vector_val@UBuffInfo@ioBuffCountSkill@@V?$allocator@UBuffInfo@ioBuffCountSkill@@@std@@@std@@@std@@U?$iterator@Urandom_access_iterator_tag@std@@UBuffInfo@ioBuffCountSkill@@HPAU34@AAU34@@2@@std@@QAEAAV01@XZ
_TEXT	SEGMENT
??E?$_Revranit@V?$_Vector_iterator@V?$_Vector_val@UBuffInfo@ioBuffCountSkill@@V?$allocator@UBuffInfo@ioBuffCountSkill@@@std@@@std@@@std@@U?$iterator@Urandom_access_iterator_tag@std@@UBuffInfo@ioBuffCountSkill@@HPAU34@AAU34@@2@@std@@QAEAAV01@XZ PROC ; std::_Revranit<std::_Vector_iterator<std::_Vector_val<ioBuffCountSkill::BuffInfo,std::allocator<ioBuffCountSkill::BuffInfo> > >,std::iterator<std::random_access_iterator_tag,ioBuffCountSkill::BuffInfo,int,ioBuffCountSkill::BuffInfo *,ioBuffCountSkill::BuffInfo &> >::operator++, COMDAT
; _this$ = ecx

; 1054 : 		{	// preincrement

  00000	8b c1		 mov	 eax, ecx

; 1055 : 		--current;

  00002	83 00 ec	 add	 DWORD PTR [eax], -20	; ffffffecH

; 1056 : 		return (*this);
; 1057 : 		}

  00005	c3		 ret	 0
??E?$_Revranit@V?$_Vector_iterator@V?$_Vector_val@UBuffInfo@ioBuffCountSkill@@V?$allocator@UBuffInfo@ioBuffCountSkill@@@std@@@std@@@std@@U?$iterator@Urandom_access_iterator_tag@std@@UBuffInfo@ioBuffCountSkill@@HPAU34@AAU34@@2@@std@@QAEAAV01@XZ ENDP ; std::_Revranit<std::_Vector_iterator<std::_Vector_val<ioBuffCountSkill::BuffInfo,std::allocator<ioBuffCountSkill::BuffInfo> > >,std::iterator<std::random_access_iterator_tag,ioBuffCountSkill::BuffInfo,int,ioBuffCountSkill::BuffInfo *,ioBuffCountSkill::BuffInfo &> >::operator++
_TEXT	ENDS
PUBLIC	?max_size@?$vector@UBuffInfo@ioBuffCountSkill@@V?$allocator@UBuffInfo@ioBuffCountSkill@@@std@@@std@@QBEIXZ ; std::vector<ioBuffCountSkill::BuffInfo,std::allocator<ioBuffCountSkill::BuffInfo> >::max_size
; Function compile flags: /Ogsp
; File c:\program files (x86)\microsoft visual studio 10.0\vc\include\vector
;	COMDAT ?max_size@?$vector@UBuffInfo@ioBuffCountSkill@@V?$allocator@UBuffInfo@ioBuffCountSkill@@@std@@@std@@QBEIXZ
_TEXT	SEGMENT
?max_size@?$vector@UBuffInfo@ioBuffCountSkill@@V?$allocator@UBuffInfo@ioBuffCountSkill@@@std@@@std@@QBEIXZ PROC ; std::vector<ioBuffCountSkill::BuffInfo,std::allocator<ioBuffCountSkill::BuffInfo> >::max_size, COMDAT
; _this$ = ecx

; 884  : 		return (this->_Alval.max_size());

  00000	b8 cc cc cc 0c	 mov	 eax, 214748364		; 0cccccccH

; 885  : 		}

  00005	c3		 ret	 0
?max_size@?$vector@UBuffInfo@ioBuffCountSkill@@V?$allocator@UBuffInfo@ioBuffCountSkill@@@std@@@std@@QBEIXZ ENDP ; std::vector<ioBuffCountSkill::BuffInfo,std::allocator<ioBuffCountSkill::BuffInfo> >::max_size
_TEXT	ENDS
PUBLIC	?_Grow_to@?$vector@UBuffInfo@ioBuffCountSkill@@V?$allocator@UBuffInfo@ioBuffCountSkill@@@std@@@std@@IBEII@Z ; std::vector<ioBuffCountSkill::BuffInfo,std::allocator<ioBuffCountSkill::BuffInfo> >::_Grow_to
; Function compile flags: /Ogsp
;	COMDAT ?_Grow_to@?$vector@UBuffInfo@ioBuffCountSkill@@V?$allocator@UBuffInfo@ioBuffCountSkill@@@std@@@std@@IBEII@Z
_TEXT	SEGMENT
__Count$ = 8						; size = 4
?_Grow_to@?$vector@UBuffInfo@ioBuffCountSkill@@V?$allocator@UBuffInfo@ioBuffCountSkill@@@std@@@std@@IBEII@Z PROC ; std::vector<ioBuffCountSkill::BuffInfo,std::allocator<ioBuffCountSkill::BuffInfo> >::_Grow_to, COMDAT
; _this$ = ecx

; 1274 : 		{	// grow by 50% or at least to _Count

  00000	55		 push	 ebp
  00001	8b ec		 mov	 ebp, esp

; 1275 : 		size_type _Capacity = capacity();

  00003	8b 41 08	 mov	 eax, DWORD PTR [ecx+8]
  00006	2b 01		 sub	 eax, DWORD PTR [ecx]
  00008	6a 14		 push	 20			; 00000014H
  0000a	99		 cdq
  0000b	59		 pop	 ecx
  0000c	f7 f9		 idiv	 ecx

; 1276 : 
; 1277 : 		_Capacity = max_size() - _Capacity / 2 < _Capacity
; 1278 : 			? 0 : _Capacity + _Capacity / 2;	// try to grow by 50%

  0000e	ba cc cc cc 0c	 mov	 edx, 214748364		; 0cccccccH
  00013	8b c8		 mov	 ecx, eax
  00015	d1 e9		 shr	 ecx, 1
  00017	2b d1		 sub	 edx, ecx
  00019	3b d0		 cmp	 edx, eax
  0001b	73 04		 jae	 SHORT $LN4@Grow_to
  0001d	33 c0		 xor	 eax, eax
  0001f	eb 02		 jmp	 SHORT $LN5@Grow_to
$LN4@Grow_to:
  00021	03 c1		 add	 eax, ecx
$LN5@Grow_to:

; 1279 : 		if (_Capacity < _Count)

  00023	3b 45 08	 cmp	 eax, DWORD PTR __Count$[ebp]

; 1280 : 			_Capacity = _Count;

  00026	0f 42 45 08	 cmovb	 eax, DWORD PTR __Count$[ebp]

; 1281 : 		return (_Capacity);
; 1282 : 		}

  0002a	5d		 pop	 ebp
  0002b	c2 04 00	 ret	 4
?_Grow_to@?$vector@UBuffInfo@ioBuffCountSkill@@V?$allocator@UBuffInfo@ioBuffCountSkill@@@std@@@std@@IBEII@Z ENDP ; std::vector<ioBuffCountSkill::BuffInfo,std::allocator<ioBuffCountSkill::BuffInfo> >::_Grow_to
_TEXT	ENDS
PUBLIC	?allocate@?$allocator@UBuffInfo@ioBuffCountSkill@@@std@@QAEPAUBuffInfo@ioBuffCountSkill@@I@Z ; std::allocator<ioBuffCountSkill::BuffInfo>::allocate
; Function compile flags: /Ogsp
; File c:\program files (x86)\microsoft visual studio 10.0\vc\include\xmemory
;	COMDAT ?allocate@?$allocator@UBuffInfo@ioBuffCountSkill@@@std@@QAEPAUBuffInfo@ioBuffCountSkill@@I@Z
_TEXT	SEGMENT
__Count$ = 8						; size = 4
?allocate@?$allocator@UBuffInfo@ioBuffCountSkill@@@std@@QAEPAUBuffInfo@ioBuffCountSkill@@I@Z PROC ; std::allocator<ioBuffCountSkill::BuffInfo>::allocate, COMDAT
; _this$ = ecx

; 186  : 		{	// allocate array of _Count elements

  00000	55		 push	 ebp
  00001	8b ec		 mov	 ebp, esp

; 187  : 		return (_Allocate(_Count, (pointer)0));

  00003	6a 00		 push	 0
  00005	ff 75 08	 push	 DWORD PTR __Count$[ebp]
  00008	e8 00 00 00 00	 call	 ??$_Allocate@UBuffInfo@ioBuffCountSkill@@@std@@YAPAUBuffInfo@ioBuffCountSkill@@IPAU12@@Z ; std::_Allocate<ioBuffCountSkill::BuffInfo>
  0000d	59		 pop	 ecx
  0000e	59		 pop	 ecx

; 188  : 		}

  0000f	5d		 pop	 ebp
  00010	c2 04 00	 ret	 4
?allocate@?$allocator@UBuffInfo@ioBuffCountSkill@@@std@@QAEPAUBuffInfo@ioBuffCountSkill@@I@Z ENDP ; std::allocator<ioBuffCountSkill::BuffInfo>::allocate
_TEXT	ENDS
PUBLIC	__$ArrayPad$
PUBLIC	??$LoadInt_e@$0BD@@ioINILoader@@QAEHAAY0BD@$$CBDH@Z ; ioINILoader::LoadInt_e<19>
EXTRN	__imp_?LoadInt@ioINILoader@@QAEHPBDH@Z:PROC
; Function compile flags: /Ogsp
; File d:\lost saga for developer\youtube\tutorial\source\src\io3dengine\ioiniloader.h
;	COMDAT ??$LoadInt_e@$0BD@@ioINILoader@@QAEHAAY0BD@$$CBDH@Z
_TEXT	SEGMENT
__k$ = -28						; size = 19
__$ArrayPad$ = -4					; size = 4
_k$ = 8							; size = 4
_i$ = 12						; size = 4
??$LoadInt_e@$0BD@@ioINILoader@@QAEHAAY0BD@$$CBDH@Z PROC ; ioINILoader::LoadInt_e<19>, COMDAT
; _this$ = ecx

; 118  : 	{

  00000	55		 push	 ebp
  00001	8b ec		 mov	 ebp, esp
  00003	83 ec 1c	 sub	 esp, 28			; 0000001cH
  00006	a1 00 00 00 00	 mov	 eax, DWORD PTR ___security_cookie
  0000b	33 c5		 xor	 eax, ebp
  0000d	89 45 fc	 mov	 DWORD PTR __$ArrayPad$[ebp], eax
  00010	8b 45 08	 mov	 eax, DWORD PTR _k$[ebp]

; 119  : 		_ENCSTR(k, _k);

  00013	8a 10		 mov	 dl, BYTE PTR [eax]
  00015	56		 push	 esi
  00016	8b f1		 mov	 esi, ecx
  00018	84 d2		 test	 dl, dl
  0001a	0f 84 cf 01 00
	00		 je	 $LN96@LoadInt_e
  00020	80 f2 ed	 xor	 dl, -19			; ffffffedH
  00023	88 55 e4	 mov	 BYTE PTR __k$[ebp], dl
  00026	8a 50 01	 mov	 dl, BYTE PTR [eax+1]
  00029	84 d2		 test	 dl, dl
  0002b	0f 84 b8 01 00
	00		 je	 $LN95@LoadInt_e
  00031	b1 ec		 mov	 cl, -20			; ffffffecH
  00033	32 d1		 xor	 dl, cl
  00035	88 55 e5	 mov	 BYTE PTR __k$[ebp+1], dl
  00038	8a 50 02	 mov	 dl, BYTE PTR [eax+2]
  0003b	84 d2		 test	 dl, dl
  0003d	0f 84 a0 01 00
	00		 je	 $LN94@LoadInt_e
  00043	80 f2 eb	 xor	 dl, -21			; ffffffebH
  00046	88 55 e6	 mov	 BYTE PTR __k$[ebp+2], dl
  00049	8a 50 03	 mov	 dl, BYTE PTR [eax+3]
  0004c	84 d2		 test	 dl, dl
  0004e	0f 84 89 01 00
	00		 je	 $LN93@LoadInt_e
  00054	80 f2 ea	 xor	 dl, -22			; ffffffeaH
  00057	88 55 e7	 mov	 BYTE PTR __k$[ebp+3], dl
  0005a	8a 50 04	 mov	 dl, BYTE PTR [eax+4]
  0005d	84 d2		 test	 dl, dl
  0005f	0f 84 72 01 00
	00		 je	 $LN92@LoadInt_e
  00065	80 f2 ed	 xor	 dl, -19			; ffffffedH
  00068	88 55 e8	 mov	 BYTE PTR __k$[ebp+4], dl
  0006b	8a 50 05	 mov	 dl, BYTE PTR [eax+5]
  0006e	84 d2		 test	 dl, dl
  00070	0f 84 5c 01 00
	00		 je	 $LN91@LoadInt_e
  00076	32 d1		 xor	 dl, cl
  00078	88 55 e9	 mov	 BYTE PTR __k$[ebp+5], dl
  0007b	8a 50 06	 mov	 dl, BYTE PTR [eax+6]
  0007e	84 d2		 test	 dl, dl
  00080	0f 84 46 01 00
	00		 je	 $LN90@LoadInt_e
  00086	80 f2 eb	 xor	 dl, -21			; ffffffebH
  00089	88 55 ea	 mov	 BYTE PTR __k$[ebp+6], dl
  0008c	8a 50 07	 mov	 dl, BYTE PTR [eax+7]
  0008f	84 d2		 test	 dl, dl
  00091	0f 84 2f 01 00
	00		 je	 $LN89@LoadInt_e
  00097	80 f2 ea	 xor	 dl, -22			; ffffffeaH
  0009a	88 55 eb	 mov	 BYTE PTR __k$[ebp+7], dl
  0009d	8a 50 08	 mov	 dl, BYTE PTR [eax+8]
  000a0	84 d2		 test	 dl, dl
  000a2	0f 84 18 01 00
	00		 je	 $LN88@LoadInt_e
  000a8	80 f2 ed	 xor	 dl, -19			; ffffffedH
  000ab	88 55 ec	 mov	 BYTE PTR __k$[ebp+8], dl
  000ae	8a 50 09	 mov	 dl, BYTE PTR [eax+9]
  000b1	84 d2		 test	 dl, dl
  000b3	0f 84 02 01 00
	00		 je	 $LN87@LoadInt_e
  000b9	32 d1		 xor	 dl, cl
  000bb	88 55 ed	 mov	 BYTE PTR __k$[ebp+9], dl
  000be	8a 50 0a	 mov	 dl, BYTE PTR [eax+10]
  000c1	84 d2		 test	 dl, dl
  000c3	0f 84 ec 00 00
	00		 je	 $LN86@LoadInt_e
  000c9	80 f2 eb	 xor	 dl, -21			; ffffffebH
  000cc	88 55 ee	 mov	 BYTE PTR __k$[ebp+10], dl
  000cf	8a 50 0b	 mov	 dl, BYTE PTR [eax+11]
  000d2	84 d2		 test	 dl, dl
  000d4	0f 84 d5 00 00
	00		 je	 $LN85@LoadInt_e
  000da	80 f2 ea	 xor	 dl, -22			; ffffffeaH
  000dd	88 55 ef	 mov	 BYTE PTR __k$[ebp+11], dl
  000e0	8a 50 0c	 mov	 dl, BYTE PTR [eax+12]
  000e3	84 d2		 test	 dl, dl
  000e5	0f 84 be 00 00
	00		 je	 $LN84@LoadInt_e
  000eb	80 f2 ed	 xor	 dl, -19			; ffffffedH
  000ee	88 55 f0	 mov	 BYTE PTR __k$[ebp+12], dl
  000f1	8a 50 0d	 mov	 dl, BYTE PTR [eax+13]
  000f4	84 d2		 test	 dl, dl
  000f6	0f 84 a8 00 00
	00		 je	 $LN83@LoadInt_e
  000fc	32 d1		 xor	 dl, cl
  000fe	88 55 f1	 mov	 BYTE PTR __k$[ebp+13], dl
  00101	8a 50 0e	 mov	 dl, BYTE PTR [eax+14]
  00104	84 d2		 test	 dl, dl
  00106	0f 84 92 00 00
	00		 je	 $LN82@LoadInt_e
  0010c	80 f2 eb	 xor	 dl, -21			; ffffffebH
  0010f	88 55 f2	 mov	 BYTE PTR __k$[ebp+14], dl
  00112	8a 50 0f	 mov	 dl, BYTE PTR [eax+15]
  00115	84 d2		 test	 dl, dl
  00117	74 7f		 je	 SHORT $LN81@LoadInt_e
  00119	80 f2 ea	 xor	 dl, -22			; ffffffeaH
  0011c	88 55 f3	 mov	 BYTE PTR __k$[ebp+15], dl
  0011f	8a 50 10	 mov	 dl, BYTE PTR [eax+16]
  00122	84 d2		 test	 dl, dl
  00124	74 6c		 je	 SHORT $LN80@LoadInt_e
  00126	80 f2 ed	 xor	 dl, -19			; ffffffedH
  00129	88 55 f4	 mov	 BYTE PTR __k$[ebp+16], dl
  0012c	8a 50 11	 mov	 dl, BYTE PTR [eax+17]
  0012f	84 d2		 test	 dl, dl
  00131	74 5a		 je	 SHORT $LN79@LoadInt_e
  00133	32 d1		 xor	 dl, cl
  00135	80 78 12 00	 cmp	 BYTE PTR [eax+18], 0
  00139	88 55 f5	 mov	 BYTE PTR __k$[ebp+17], dl
  0013c	0f 84 b1 00 00
	00		 je	 $LN1@LoadInt_e
  00142	8a 50 13	 mov	 dl, BYTE PTR [eax+19]
  00145	84 d2		 test	 dl, dl
  00147	74 3e		 je	 SHORT $LN77@LoadInt_e
  00149	80 f2 ea	 xor	 dl, -22			; ffffffeaH
  0014c	88 55 f7	 mov	 BYTE PTR __k$[ebp+19], dl
  0014f	8a 50 14	 mov	 dl, BYTE PTR [eax+20]
  00152	84 d2		 test	 dl, dl
  00154	74 2b		 je	 SHORT $LN76@LoadInt_e
  00156	80 f2 ed	 xor	 dl, -19			; ffffffedH
  00159	88 55 f8	 mov	 BYTE PTR __k$[ebp+20], dl
  0015c	8a 50 15	 mov	 dl, BYTE PTR [eax+21]
  0015f	84 d2		 test	 dl, dl
  00161	74 19		 je	 SHORT $LN75@LoadInt_e
  00163	8a 40 16	 mov	 al, BYTE PTR [eax+22]
  00166	32 d1		 xor	 dl, cl
  00168	88 55 f9	 mov	 BYTE PTR __k$[ebp+21], dl
  0016b	84 c0		 test	 al, al
  0016d	74 07		 je	 SHORT $LN74@LoadInt_e
  0016f	34 eb		 xor	 al, -21			; ffffffebH
  00171	88 45 fa	 mov	 BYTE PTR __k$[ebp+22], al
  00174	eb 7d		 jmp	 SHORT $LN1@LoadInt_e
$LN74@LoadInt_e:
  00176	c6 45 fa eb	 mov	 BYTE PTR __k$[ebp+22], -21 ; ffffffebH
  0017a	eb 77		 jmp	 SHORT $LN1@LoadInt_e
$LN75@LoadInt_e:
  0017c	88 4d f9	 mov	 BYTE PTR __k$[ebp+21], cl
  0017f	eb 72		 jmp	 SHORT $LN1@LoadInt_e
$LN76@LoadInt_e:
  00181	c6 45 f8 ed	 mov	 BYTE PTR __k$[ebp+20], -19 ; ffffffedH
  00185	eb 6c		 jmp	 SHORT $LN1@LoadInt_e
$LN77@LoadInt_e:
  00187	c6 45 f7 ea	 mov	 BYTE PTR __k$[ebp+19], -22 ; ffffffeaH
  0018b	eb 66		 jmp	 SHORT $LN1@LoadInt_e
$LN79@LoadInt_e:
  0018d	88 4d f5	 mov	 BYTE PTR __k$[ebp+17], cl
  00190	eb 61		 jmp	 SHORT $LN1@LoadInt_e
$LN80@LoadInt_e:
  00192	c6 45 f4 ed	 mov	 BYTE PTR __k$[ebp+16], -19 ; ffffffedH
  00196	eb 5b		 jmp	 SHORT $LN1@LoadInt_e
$LN81@LoadInt_e:
  00198	c6 45 f3 ea	 mov	 BYTE PTR __k$[ebp+15], -22 ; ffffffeaH
  0019c	eb 55		 jmp	 SHORT $LN1@LoadInt_e
$LN82@LoadInt_e:
  0019e	c6 45 f2 eb	 mov	 BYTE PTR __k$[ebp+14], -21 ; ffffffebH
  001a2	eb 4f		 jmp	 SHORT $LN1@LoadInt_e
$LN83@LoadInt_e:
  001a4	88 4d f1	 mov	 BYTE PTR __k$[ebp+13], cl
  001a7	eb 4a		 jmp	 SHORT $LN1@LoadInt_e
$LN84@LoadInt_e:
  001a9	c6 45 f0 ed	 mov	 BYTE PTR __k$[ebp+12], -19 ; ffffffedH
  001ad	eb 44		 jmp	 SHORT $LN1@LoadInt_e
$LN85@LoadInt_e:
  001af	c6 45 ef ea	 mov	 BYTE PTR __k$[ebp+11], -22 ; ffffffeaH
  001b3	eb 3e		 jmp	 SHORT $LN1@LoadInt_e
$LN86@LoadInt_e:
  001b5	c6 45 ee eb	 mov	 BYTE PTR __k$[ebp+10], -21 ; ffffffebH
  001b9	eb 38		 jmp	 SHORT $LN1@LoadInt_e
$LN87@LoadInt_e:
  001bb	88 4d ed	 mov	 BYTE PTR __k$[ebp+9], cl
  001be	eb 33		 jmp	 SHORT $LN1@LoadInt_e
$LN88@LoadInt_e:
  001c0	c6 45 ec ed	 mov	 BYTE PTR __k$[ebp+8], -19 ; ffffffedH
  001c4	eb 2d		 jmp	 SHORT $LN1@LoadInt_e
$LN89@LoadInt_e:
  001c6	c6 45 eb ea	 mov	 BYTE PTR __k$[ebp+7], -22 ; ffffffeaH
  001ca	eb 27		 jmp	 SHORT $LN1@LoadInt_e
$LN90@LoadInt_e:
  001cc	c6 45 ea eb	 mov	 BYTE PTR __k$[ebp+6], -21 ; ffffffebH
  001d0	eb 21		 jmp	 SHORT $LN1@LoadInt_e
$LN91@LoadInt_e:
  001d2	88 4d e9	 mov	 BYTE PTR __k$[ebp+5], cl
  001d5	eb 1c		 jmp	 SHORT $LN1@LoadInt_e
$LN92@LoadInt_e:
  001d7	c6 45 e8 ed	 mov	 BYTE PTR __k$[ebp+4], -19 ; ffffffedH
  001db	eb 16		 jmp	 SHORT $LN1@LoadInt_e
$LN93@LoadInt_e:
  001dd	c6 45 e7 ea	 mov	 BYTE PTR __k$[ebp+3], -22 ; ffffffeaH
  001e1	eb 10		 jmp	 SHORT $LN1@LoadInt_e
$LN94@LoadInt_e:
  001e3	c6 45 e6 eb	 mov	 BYTE PTR __k$[ebp+2], -21 ; ffffffebH
  001e7	eb 0a		 jmp	 SHORT $LN1@LoadInt_e
$LN95@LoadInt_e:
  001e9	c6 45 e5 ec	 mov	 BYTE PTR __k$[ebp+1], -20 ; ffffffecH
  001ed	eb 04		 jmp	 SHORT $LN1@LoadInt_e
$LN96@LoadInt_e:
  001ef	c6 45 e4 ed	 mov	 BYTE PTR __k$[ebp], -19	; ffffffedH
$LN1@LoadInt_e:
  001f3	6a 04		 push	 4
  001f5	8d 45 e4	 lea	 eax, DWORD PTR __k$[ebp]
  001f8	c6 45 f6 00	 mov	 BYTE PTR __k$[ebp+18], 0
  001fc	5a		 pop	 edx
$LL104@LoadInt_e:
  001fd	81 30 ed ec eb
	ea		 xor	 DWORD PTR [eax], -353637139 ; eaebecedH
  00203	83 c0 04	 add	 eax, 4
  00206	4a		 dec	 edx
  00207	75 f4		 jne	 SHORT $LL104@LoadInt_e
  00209	6a 10		 push	 16			; 00000010H
  0020b	58		 pop	 eax
$LL101@LoadInt_e:
  0020c	8b c8		 mov	 ecx, eax
  0020e	81 e1 03 00 00
	80		 and	 ecx, -2147483645	; 80000003H
  00214	79 05		 jns	 SHORT $LN111@LoadInt_e
  00216	49		 dec	 ecx
  00217	83 c9 fc	 or	 ecx, -4			; fffffffcH
  0021a	41		 inc	 ecx
$LN111@LoadInt_e:
  0021b	b2 ed		 mov	 dl, -19			; ffffffedH
  0021d	2a d1		 sub	 dl, cl
  0021f	30 54 05 e4	 xor	 BYTE PTR __k$[ebp+eax], dl
  00223	40		 inc	 eax
  00224	83 f8 12	 cmp	 eax, 18			; 00000012H
  00227	7c e3		 jl	 SHORT $LL101@LoadInt_e

; 120  : 		return LoadInt(_k, i);

  00229	ff 75 0c	 push	 DWORD PTR _i$[ebp]
  0022c	8d 45 e4	 lea	 eax, DWORD PTR __k$[ebp]
  0022f	50		 push	 eax
  00230	8b ce		 mov	 ecx, esi
  00232	ff 15 00 00 00
	00		 call	 DWORD PTR __imp_?LoadInt@ioINILoader@@QAEHPBDH@Z

; 121  : 	}

  00238	8b 4d fc	 mov	 ecx, DWORD PTR __$ArrayPad$[ebp]
  0023b	33 cd		 xor	 ecx, ebp
  0023d	5e		 pop	 esi
  0023e	e8 00 00 00 00	 call	 @__security_check_cookie@4
  00243	c9		 leave
  00244	c2 08 00	 ret	 8
??$LoadInt_e@$0BD@@ioINILoader@@QAEHAAY0BD@$$CBDH@Z ENDP ; ioINILoader::LoadInt_e<19>
_TEXT	ENDS
PUBLIC	__$ArrayPad$
PUBLIC	??$LoadBool_e@$0P@@ioINILoader@@QAE_NAAY0P@$$CBD_N@Z ; ioINILoader::LoadBool_e<15>
EXTRN	__imp_?LoadBool@ioINILoader@@QAE_NPBD_N@Z:PROC
; Function compile flags: /Ogsp
;	COMDAT ??$LoadBool_e@$0P@@ioINILoader@@QAE_NAAY0P@$$CBD_N@Z
_TEXT	SEGMENT
__k$ = -24						; size = 15
__$ArrayPad$ = -4					; size = 4
_k$ = 8							; size = 4
_b$ = 12						; size = 1
??$LoadBool_e@$0P@@ioINILoader@@QAE_NAAY0P@$$CBD_N@Z PROC ; ioINILoader::LoadBool_e<15>, COMDAT
; _this$ = ecx

; 101  : 	{

  00000	55		 push	 ebp
  00001	8b ec		 mov	 ebp, esp
  00003	83 ec 18	 sub	 esp, 24			; 00000018H
  00006	a1 00 00 00 00	 mov	 eax, DWORD PTR ___security_cookie
  0000b	33 c5		 xor	 eax, ebp
  0000d	89 45 fc	 mov	 DWORD PTR __$ArrayPad$[ebp], eax
  00010	8b 45 08	 mov	 eax, DWORD PTR _k$[ebp]

; 102  : 		_ENCSTR(k, _k);

  00013	8a 10		 mov	 dl, BYTE PTR [eax]
  00015	56		 push	 esi
  00016	8b f1		 mov	 esi, ecx
  00018	84 d2		 test	 dl, dl
  0001a	0f 84 75 01 00
	00		 je	 $LN96@LoadBool_e
  00020	80 f2 ed	 xor	 dl, -19			; ffffffedH
  00023	88 55 e8	 mov	 BYTE PTR __k$[ebp], dl
  00026	8a 50 01	 mov	 dl, BYTE PTR [eax+1]
  00029	84 d2		 test	 dl, dl
  0002b	0f 84 5e 01 00
	00		 je	 $LN95@LoadBool_e
  00031	b1 ec		 mov	 cl, -20			; ffffffecH
  00033	32 d1		 xor	 dl, cl
  00035	88 55 e9	 mov	 BYTE PTR __k$[ebp+1], dl
  00038	8a 50 02	 mov	 dl, BYTE PTR [eax+2]
  0003b	84 d2		 test	 dl, dl
  0003d	0f 84 46 01 00
	00		 je	 $LN94@LoadBool_e
  00043	80 f2 eb	 xor	 dl, -21			; ffffffebH
  00046	88 55 ea	 mov	 BYTE PTR __k$[ebp+2], dl
  00049	8a 50 03	 mov	 dl, BYTE PTR [eax+3]
  0004c	84 d2		 test	 dl, dl
  0004e	0f 84 2f 01 00
	00		 je	 $LN93@LoadBool_e
  00054	80 f2 ea	 xor	 dl, -22			; ffffffeaH
  00057	88 55 eb	 mov	 BYTE PTR __k$[ebp+3], dl
  0005a	8a 50 04	 mov	 dl, BYTE PTR [eax+4]
  0005d	84 d2		 test	 dl, dl
  0005f	0f 84 18 01 00
	00		 je	 $LN92@LoadBool_e
  00065	80 f2 ed	 xor	 dl, -19			; ffffffedH
  00068	88 55 ec	 mov	 BYTE PTR __k$[ebp+4], dl
  0006b	8a 50 05	 mov	 dl, BYTE PTR [eax+5]
  0006e	84 d2		 test	 dl, dl
  00070	0f 84 02 01 00
	00		 je	 $LN91@LoadBool_e
  00076	32 d1		 xor	 dl, cl
  00078	88 55 ed	 mov	 BYTE PTR __k$[ebp+5], dl
  0007b	8a 50 06	 mov	 dl, BYTE PTR [eax+6]
  0007e	84 d2		 test	 dl, dl
  00080	0f 84 ec 00 00
	00		 je	 $LN90@LoadBool_e
  00086	80 f2 eb	 xor	 dl, -21			; ffffffebH
  00089	88 55 ee	 mov	 BYTE PTR __k$[ebp+6], dl
  0008c	8a 50 07	 mov	 dl, BYTE PTR [eax+7]
  0008f	84 d2		 test	 dl, dl
  00091	0f 84 d5 00 00
	00		 je	 $LN89@LoadBool_e
  00097	80 f2 ea	 xor	 dl, -22			; ffffffeaH
  0009a	88 55 ef	 mov	 BYTE PTR __k$[ebp+7], dl
  0009d	8a 50 08	 mov	 dl, BYTE PTR [eax+8]
  000a0	84 d2		 test	 dl, dl
  000a2	0f 84 be 00 00
	00		 je	 $LN88@LoadBool_e
  000a8	80 f2 ed	 xor	 dl, -19			; ffffffedH
  000ab	88 55 f0	 mov	 BYTE PTR __k$[ebp+8], dl
  000ae	8a 50 09	 mov	 dl, BYTE PTR [eax+9]
  000b1	84 d2		 test	 dl, dl
  000b3	0f 84 a8 00 00
	00		 je	 $LN87@LoadBool_e
  000b9	32 d1		 xor	 dl, cl
  000bb	88 55 f1	 mov	 BYTE PTR __k$[ebp+9], dl
  000be	8a 50 0a	 mov	 dl, BYTE PTR [eax+10]
  000c1	84 d2		 test	 dl, dl
  000c3	0f 84 92 00 00
	00		 je	 $LN86@LoadBool_e
  000c9	80 f2 eb	 xor	 dl, -21			; ffffffebH
  000cc	88 55 f2	 mov	 BYTE PTR __k$[ebp+10], dl
  000cf	8a 50 0b	 mov	 dl, BYTE PTR [eax+11]
  000d2	84 d2		 test	 dl, dl
  000d4	74 7f		 je	 SHORT $LN85@LoadBool_e
  000d6	80 f2 ea	 xor	 dl, -22			; ffffffeaH
  000d9	88 55 f3	 mov	 BYTE PTR __k$[ebp+11], dl
  000dc	8a 50 0c	 mov	 dl, BYTE PTR [eax+12]
  000df	84 d2		 test	 dl, dl
  000e1	74 6c		 je	 SHORT $LN84@LoadBool_e
  000e3	80 f2 ed	 xor	 dl, -19			; ffffffedH
  000e6	88 55 f4	 mov	 BYTE PTR __k$[ebp+12], dl
  000e9	8a 50 0d	 mov	 dl, BYTE PTR [eax+13]
  000ec	84 d2		 test	 dl, dl
  000ee	74 5a		 je	 SHORT $LN83@LoadBool_e
  000f0	32 d1		 xor	 dl, cl
  000f2	80 78 0e 00	 cmp	 BYTE PTR [eax+14], 0
  000f6	88 55 f5	 mov	 BYTE PTR __k$[ebp+13], dl
  000f9	0f 84 9a 00 00
	00		 je	 $LN1@LoadBool_e
  000ff	8a 50 0f	 mov	 dl, BYTE PTR [eax+15]
  00102	84 d2		 test	 dl, dl
  00104	74 3e		 je	 SHORT $LN81@LoadBool_e
  00106	80 f2 ea	 xor	 dl, -22			; ffffffeaH
  00109	88 55 f7	 mov	 BYTE PTR __k$[ebp+15], dl
  0010c	8a 50 10	 mov	 dl, BYTE PTR [eax+16]
  0010f	84 d2		 test	 dl, dl
  00111	74 2b		 je	 SHORT $LN80@LoadBool_e
  00113	80 f2 ed	 xor	 dl, -19			; ffffffedH
  00116	88 55 f8	 mov	 BYTE PTR __k$[ebp+16], dl
  00119	8a 50 11	 mov	 dl, BYTE PTR [eax+17]
  0011c	84 d2		 test	 dl, dl
  0011e	74 19		 je	 SHORT $LN79@LoadBool_e
  00120	8a 40 12	 mov	 al, BYTE PTR [eax+18]
  00123	32 d1		 xor	 dl, cl
  00125	88 55 f9	 mov	 BYTE PTR __k$[ebp+17], dl
  00128	84 c0		 test	 al, al
  0012a	74 07		 je	 SHORT $LN78@LoadBool_e
  0012c	34 eb		 xor	 al, -21			; ffffffebH
  0012e	88 45 fa	 mov	 BYTE PTR __k$[ebp+18], al
  00131	eb 66		 jmp	 SHORT $LN1@LoadBool_e
$LN78@LoadBool_e:
  00133	c6 45 fa eb	 mov	 BYTE PTR __k$[ebp+18], -21 ; ffffffebH
  00137	eb 60		 jmp	 SHORT $LN1@LoadBool_e
$LN79@LoadBool_e:
  00139	88 4d f9	 mov	 BYTE PTR __k$[ebp+17], cl
  0013c	eb 5b		 jmp	 SHORT $LN1@LoadBool_e
$LN80@LoadBool_e:
  0013e	c6 45 f8 ed	 mov	 BYTE PTR __k$[ebp+16], -19 ; ffffffedH
  00142	eb 55		 jmp	 SHORT $LN1@LoadBool_e
$LN81@LoadBool_e:
  00144	c6 45 f7 ea	 mov	 BYTE PTR __k$[ebp+15], -22 ; ffffffeaH
  00148	eb 4f		 jmp	 SHORT $LN1@LoadBool_e
$LN83@LoadBool_e:
  0014a	88 4d f5	 mov	 BYTE PTR __k$[ebp+13], cl
  0014d	eb 4a		 jmp	 SHORT $LN1@LoadBool_e
$LN84@LoadBool_e:
  0014f	c6 45 f4 ed	 mov	 BYTE PTR __k$[ebp+12], -19 ; ffffffedH
  00153	eb 44		 jmp	 SHORT $LN1@LoadBool_e
$LN85@LoadBool_e:
  00155	c6 45 f3 ea	 mov	 BYTE PTR __k$[ebp+11], -22 ; ffffffeaH
  00159	eb 3e		 jmp	 SHORT $LN1@LoadBool_e
$LN86@LoadBool_e:
  0015b	c6 45 f2 eb	 mov	 BYTE PTR __k$[ebp+10], -21 ; ffffffebH
  0015f	eb 38		 jmp	 SHORT $LN1@LoadBool_e
$LN87@LoadBool_e:
  00161	88 4d f1	 mov	 BYTE PTR __k$[ebp+9], cl
  00164	eb 33		 jmp	 SHORT $LN1@LoadBool_e
$LN88@LoadBool_e:
  00166	c6 45 f0 ed	 mov	 BYTE PTR __k$[ebp+8], -19 ; ffffffedH
  0016a	eb 2d		 jmp	 SHORT $LN1@LoadBool_e
$LN89@LoadBool_e:
  0016c	c6 45 ef ea	 mov	 BYTE PTR __k$[ebp+7], -22 ; ffffffeaH
  00170	eb 27		 jmp	 SHORT $LN1@LoadBool_e
$LN90@LoadBool_e:
  00172	c6 45 ee eb	 mov	 BYTE PTR __k$[ebp+6], -21 ; ffffffebH
  00176	eb 21		 jmp	 SHORT $LN1@LoadBool_e
$LN91@LoadBool_e:
  00178	88 4d ed	 mov	 BYTE PTR __k$[ebp+5], cl
  0017b	eb 1c		 jmp	 SHORT $LN1@LoadBool_e
$LN92@LoadBool_e:
  0017d	c6 45 ec ed	 mov	 BYTE PTR __k$[ebp+4], -19 ; ffffffedH
  00181	eb 16		 jmp	 SHORT $LN1@LoadBool_e
$LN93@LoadBool_e:
  00183	c6 45 eb ea	 mov	 BYTE PTR __k$[ebp+3], -22 ; ffffffeaH
  00187	eb 10		 jmp	 SHORT $LN1@LoadBool_e
$LN94@LoadBool_e:
  00189	c6 45 ea eb	 mov	 BYTE PTR __k$[ebp+2], -21 ; ffffffebH
  0018d	eb 0a		 jmp	 SHORT $LN1@LoadBool_e
$LN95@LoadBool_e:
  0018f	c6 45 e9 ec	 mov	 BYTE PTR __k$[ebp+1], -20 ; ffffffecH
  00193	eb 04		 jmp	 SHORT $LN1@LoadBool_e
$LN96@LoadBool_e:
  00195	c6 45 e8 ed	 mov	 BYTE PTR __k$[ebp], -19	; ffffffedH
$LN1@LoadBool_e:
  00199	6a 03		 push	 3
  0019b	8d 45 e8	 lea	 eax, DWORD PTR __k$[ebp]
  0019e	c6 45 f6 00	 mov	 BYTE PTR __k$[ebp+14], 0
  001a2	5a		 pop	 edx
$LL104@LoadBool_e:
  001a3	81 30 ed ec eb
	ea		 xor	 DWORD PTR [eax], -353637139 ; eaebecedH
  001a9	83 c0 04	 add	 eax, 4
  001ac	4a		 dec	 edx
  001ad	75 f4		 jne	 SHORT $LL104@LoadBool_e
  001af	6a 0c		 push	 12			; 0000000cH
  001b1	58		 pop	 eax
$LL101@LoadBool_e:
  001b2	8b c8		 mov	 ecx, eax
  001b4	81 e1 03 00 00
	80		 and	 ecx, -2147483645	; 80000003H
  001ba	79 05		 jns	 SHORT $LN111@LoadBool_e
  001bc	49		 dec	 ecx
  001bd	83 c9 fc	 or	 ecx, -4			; fffffffcH
  001c0	41		 inc	 ecx
$LN111@LoadBool_e:
  001c1	b2 ed		 mov	 dl, -19			; ffffffedH
  001c3	2a d1		 sub	 dl, cl
  001c5	30 54 05 e8	 xor	 BYTE PTR __k$[ebp+eax], dl
  001c9	40		 inc	 eax
  001ca	83 f8 0e	 cmp	 eax, 14			; 0000000eH
  001cd	7c e3		 jl	 SHORT $LL101@LoadBool_e

; 103  : 		return LoadBool(_k, b);

  001cf	ff 75 0c	 push	 DWORD PTR _b$[ebp]
  001d2	8d 45 e8	 lea	 eax, DWORD PTR __k$[ebp]
  001d5	50		 push	 eax
  001d6	8b ce		 mov	 ecx, esi
  001d8	ff 15 00 00 00
	00		 call	 DWORD PTR __imp_?LoadBool@ioINILoader@@QAE_NPBD_N@Z

; 104  : 	}

  001de	8b 4d fc	 mov	 ecx, DWORD PTR __$ArrayPad$[ebp]
  001e1	33 cd		 xor	 ecx, ebp
  001e3	5e		 pop	 esi
  001e4	e8 00 00 00 00	 call	 @__security_check_cookie@4
  001e9	c9		 leave
  001ea	c2 08 00	 ret	 8
??$LoadBool_e@$0P@@ioINILoader@@QAE_NAAY0P@$$CBD_N@Z ENDP ; ioINILoader::LoadBool_e<15>
_TEXT	ENDS
PUBLIC	__$ArrayPad$
PUBLIC	??$LoadInt_e@$08@ioINILoader@@QAEHAAY08$$CBDH@Z	; ioINILoader::LoadInt_e<9>
; Function compile flags: /Ogsp
;	COMDAT ??$LoadInt_e@$08@ioINILoader@@QAEHAAY08$$CBDH@Z
_TEXT	SEGMENT
__k$ = -20						; size = 9
__$ArrayPad$ = -4					; size = 4
_k$ = 8							; size = 4
_i$ = 12						; size = 4
??$LoadInt_e@$08@ioINILoader@@QAEHAAY08$$CBDH@Z PROC	; ioINILoader::LoadInt_e<9>, COMDAT
; _this$ = ecx

; 118  : 	{

  00000	55		 push	 ebp
  00001	8b ec		 mov	 ebp, esp
  00003	83 ec 14	 sub	 esp, 20			; 00000014H
  00006	a1 00 00 00 00	 mov	 eax, DWORD PTR ___security_cookie
  0000b	33 c5		 xor	 eax, ebp
  0000d	89 45 fc	 mov	 DWORD PTR __$ArrayPad$[ebp], eax
  00010	8b 45 08	 mov	 eax, DWORD PTR _k$[ebp]

; 119  : 		_ENCSTR(k, _k);

  00013	8a 10		 mov	 dl, BYTE PTR [eax]
  00015	84 d2		 test	 dl, dl
  00017	0f 84 ee 00 00
	00		 je	 $LN96@LoadInt_e@2
  0001d	80 f2 ed	 xor	 dl, -19			; ffffffedH
  00020	88 55 ec	 mov	 BYTE PTR __k$[ebp], dl
  00023	8a 50 01	 mov	 dl, BYTE PTR [eax+1]
  00026	84 d2		 test	 dl, dl
  00028	0f 84 d7 00 00
	00		 je	 $LN95@LoadInt_e@2
  0002e	80 f2 ec	 xor	 dl, -20			; ffffffecH
  00031	88 55 ed	 mov	 BYTE PTR __k$[ebp+1], dl
  00034	8a 50 02	 mov	 dl, BYTE PTR [eax+2]
  00037	84 d2		 test	 dl, dl
  00039	0f 84 c0 00 00
	00		 je	 $LN94@LoadInt_e@2
  0003f	80 f2 eb	 xor	 dl, -21			; ffffffebH
  00042	88 55 ee	 mov	 BYTE PTR __k$[ebp+2], dl
  00045	8a 50 03	 mov	 dl, BYTE PTR [eax+3]
  00048	84 d2		 test	 dl, dl
  0004a	0f 84 a9 00 00
	00		 je	 $LN93@LoadInt_e@2
  00050	80 f2 ea	 xor	 dl, -22			; ffffffeaH
  00053	88 55 ef	 mov	 BYTE PTR __k$[ebp+3], dl
  00056	8a 50 04	 mov	 dl, BYTE PTR [eax+4]
  00059	84 d2		 test	 dl, dl
  0005b	0f 84 92 00 00
	00		 je	 $LN92@LoadInt_e@2
  00061	80 f2 ed	 xor	 dl, -19			; ffffffedH
  00064	88 55 f0	 mov	 BYTE PTR __k$[ebp+4], dl
  00067	8a 50 05	 mov	 dl, BYTE PTR [eax+5]
  0006a	84 d2		 test	 dl, dl
  0006c	74 7f		 je	 SHORT $LN91@LoadInt_e@2
  0006e	80 f2 ec	 xor	 dl, -20			; ffffffecH
  00071	88 55 f1	 mov	 BYTE PTR __k$[ebp+5], dl
  00074	8a 50 06	 mov	 dl, BYTE PTR [eax+6]
  00077	84 d2		 test	 dl, dl
  00079	74 6c		 je	 SHORT $LN90@LoadInt_e@2
  0007b	80 f2 eb	 xor	 dl, -21			; ffffffebH
  0007e	88 55 f2	 mov	 BYTE PTR __k$[ebp+6], dl
  00081	8a 50 07	 mov	 dl, BYTE PTR [eax+7]
  00084	84 d2		 test	 dl, dl
  00086	74 59		 je	 SHORT $LN89@LoadInt_e@2
  00088	80 f2 ea	 xor	 dl, -22			; ffffffeaH
  0008b	80 78 08 00	 cmp	 BYTE PTR [eax+8], 0
  0008f	88 55 f3	 mov	 BYTE PTR __k$[ebp+7], dl
  00092	74 7b		 je	 SHORT $LN1@LoadInt_e@2
  00094	8a 50 09	 mov	 dl, BYTE PTR [eax+9]
  00097	84 d2		 test	 dl, dl
  00099	74 40		 je	 SHORT $LN87@LoadInt_e@2
  0009b	80 f2 ec	 xor	 dl, -20			; ffffffecH
  0009e	88 55 f5	 mov	 BYTE PTR __k$[ebp+9], dl
  000a1	8a 50 0a	 mov	 dl, BYTE PTR [eax+10]
  000a4	84 d2		 test	 dl, dl
  000a6	74 2d		 je	 SHORT $LN86@LoadInt_e@2
  000a8	80 f2 eb	 xor	 dl, -21			; ffffffebH
  000ab	88 55 f6	 mov	 BYTE PTR __k$[ebp+10], dl
  000ae	8a 50 0b	 mov	 dl, BYTE PTR [eax+11]
  000b1	84 d2		 test	 dl, dl
  000b3	74 1a		 je	 SHORT $LN85@LoadInt_e@2
  000b5	8a 40 0c	 mov	 al, BYTE PTR [eax+12]
  000b8	80 f2 ea	 xor	 dl, -22			; ffffffeaH
  000bb	88 55 f7	 mov	 BYTE PTR __k$[ebp+11], dl
  000be	84 c0		 test	 al, al
  000c0	74 07		 je	 SHORT $LN84@LoadInt_e@2
  000c2	34 ed		 xor	 al, -19			; ffffffedH
  000c4	88 45 f8	 mov	 BYTE PTR __k$[ebp+12], al
  000c7	eb 46		 jmp	 SHORT $LN1@LoadInt_e@2
$LN84@LoadInt_e@2:
  000c9	c6 45 f8 ed	 mov	 BYTE PTR __k$[ebp+12], -19 ; ffffffedH
  000cd	eb 40		 jmp	 SHORT $LN1@LoadInt_e@2
$LN85@LoadInt_e@2:
  000cf	c6 45 f7 ea	 mov	 BYTE PTR __k$[ebp+11], -22 ; ffffffeaH
  000d3	eb 3a		 jmp	 SHORT $LN1@LoadInt_e@2
$LN86@LoadInt_e@2:
  000d5	c6 45 f6 eb	 mov	 BYTE PTR __k$[ebp+10], -21 ; ffffffebH
  000d9	eb 34		 jmp	 SHORT $LN1@LoadInt_e@2
$LN87@LoadInt_e@2:
  000db	c6 45 f5 ec	 mov	 BYTE PTR __k$[ebp+9], -20 ; ffffffecH
  000df	eb 2e		 jmp	 SHORT $LN1@LoadInt_e@2
$LN89@LoadInt_e@2:
  000e1	c6 45 f3 ea	 mov	 BYTE PTR __k$[ebp+7], -22 ; ffffffeaH
  000e5	eb 28		 jmp	 SHORT $LN1@LoadInt_e@2
$LN90@LoadInt_e@2:
  000e7	c6 45 f2 eb	 mov	 BYTE PTR __k$[ebp+6], -21 ; ffffffebH
  000eb	eb 22		 jmp	 SHORT $LN1@LoadInt_e@2
$LN91@LoadInt_e@2:
  000ed	c6 45 f1 ec	 mov	 BYTE PTR __k$[ebp+5], -20 ; ffffffecH
  000f1	eb 1c		 jmp	 SHORT $LN1@LoadInt_e@2
$LN92@LoadInt_e@2:
  000f3	c6 45 f0 ed	 mov	 BYTE PTR __k$[ebp+4], -19 ; ffffffedH
  000f7	eb 16		 jmp	 SHORT $LN1@LoadInt_e@2
$LN93@LoadInt_e@2:
  000f9	c6 45 ef ea	 mov	 BYTE PTR __k$[ebp+3], -22 ; ffffffeaH
  000fd	eb 10		 jmp	 SHORT $LN1@LoadInt_e@2
$LN94@LoadInt_e@2:
  000ff	c6 45 ee eb	 mov	 BYTE PTR __k$[ebp+2], -21 ; ffffffebH
  00103	eb 0a		 jmp	 SHORT $LN1@LoadInt_e@2
$LN95@LoadInt_e@2:
  00105	c6 45 ed ec	 mov	 BYTE PTR __k$[ebp+1], -20 ; ffffffecH
  00109	eb 04		 jmp	 SHORT $LN1@LoadInt_e@2
$LN96@LoadInt_e@2:
  0010b	c6 45 ec ed	 mov	 BYTE PTR __k$[ebp], -19	; ffffffedH
$LN1@LoadInt_e@2:
  0010f	6a 02		 push	 2
  00111	8d 45 ec	 lea	 eax, DWORD PTR __k$[ebp]
  00114	c6 45 f4 00	 mov	 BYTE PTR __k$[ebp+8], 0
  00118	5a		 pop	 edx
$LL104@LoadInt_e@2:
  00119	81 30 ed ec eb
	ea		 xor	 DWORD PTR [eax], -353637139 ; eaebecedH
  0011f	83 c0 04	 add	 eax, 4
  00122	4a		 dec	 edx
  00123	75 f4		 jne	 SHORT $LL104@LoadInt_e@2

; 120  : 		return LoadInt(_k, i);

  00125	ff 75 0c	 push	 DWORD PTR _i$[ebp]
  00128	8d 45 ec	 lea	 eax, DWORD PTR __k$[ebp]
  0012b	50		 push	 eax
  0012c	ff 15 00 00 00
	00		 call	 DWORD PTR __imp_?LoadInt@ioINILoader@@QAEHPBDH@Z

; 121  : 	}

  00132	8b 4d fc	 mov	 ecx, DWORD PTR __$ArrayPad$[ebp]
  00135	33 cd		 xor	 ecx, ebp
  00137	e8 00 00 00 00	 call	 @__security_check_cookie@4
  0013c	c9		 leave
  0013d	c2 08 00	 ret	 8
??$LoadInt_e@$08@ioINILoader@@QAEHAAY08$$CBDH@Z ENDP	; ioINILoader::LoadInt_e<9>
_TEXT	ENDS
PUBLIC	??$_Copy_impl@PAVioHashString@@PAV1@@std@@YAPAVioHashString@@PAV1@00@Z ; std::_Copy_impl<ioHashString *,ioHashString *>
; Function compile flags: /Ogsp
; File c:\program files (x86)\microsoft visual studio 10.0\vc\include\xutility
;	COMDAT ??$_Copy_impl@PAVioHashString@@PAV1@@std@@YAPAVioHashString@@PAV1@00@Z
_TEXT	SEGMENT
__Cat$535040 = -4					; size = 1
__First$ = 8						; size = 4
__Last$ = 12						; size = 4
__Dest$ = 16						; size = 4
??$_Copy_impl@PAVioHashString@@PAV1@@std@@YAPAVioHashString@@PAV1@00@Z PROC ; std::_Copy_impl<ioHashString *,ioHashString *>, COMDAT

; 2163 : 	{	// copy [_First, _Last) to [_Dest, ...)

  00000	55		 push	 ebp
  00001	8b ec		 mov	 ebp, esp
  00003	51		 push	 ecx

; 2164 : 	return (_Copy_impl(_First, _Last,
; 2165 : 		_Dest, _Ptr_cat(_First, _Dest)));

  00004	ff 75 fc	 push	 DWORD PTR __Cat$535040[ebp]
  00007	ff 75 10	 push	 DWORD PTR __Dest$[ebp]
  0000a	ff 75 0c	 push	 DWORD PTR __Last$[ebp]
  0000d	ff 75 08	 push	 DWORD PTR __First$[ebp]
  00010	e8 00 00 00 00	 call	 ??$_Copy_impl@PAVioHashString@@PAV1@@std@@YAPAVioHashString@@PAV1@00U_Nonscalar_ptr_iterator_tag@0@@Z ; std::_Copy_impl<ioHashString *,ioHashString *>
  00015	83 c4 10	 add	 esp, 16			; 00000010H

; 2166 : 	}

  00018	c9		 leave
  00019	c3		 ret	 0
??$_Copy_impl@PAVioHashString@@PAV1@@std@@YAPAVioHashString@@PAV1@00@Z ENDP ; std::_Copy_impl<ioHashString *,ioHashString *>
_TEXT	ENDS
PUBLIC	??G?$_Vector_const_iterator@V?$_Vector_val@UBuffInfo@ioBuffCountSkill@@V?$allocator@UBuffInfo@ioBuffCountSkill@@@std@@@std@@@std@@QBEHABV01@@Z ; std::_Vector_const_iterator<std::_Vector_val<ioBuffCountSkill::BuffInfo,std::allocator<ioBuffCountSkill::BuffInfo> > >::operator-
; Function compile flags: /Ogsp
; File c:\program files (x86)\microsoft visual studio 10.0\vc\include\vector
;	COMDAT ??G?$_Vector_const_iterator@V?$_Vector_val@UBuffInfo@ioBuffCountSkill@@V?$allocator@UBuffInfo@ioBuffCountSkill@@@std@@@std@@@std@@QBEHABV01@@Z
_TEXT	SEGMENT
__Right$ = 8						; size = 4
??G?$_Vector_const_iterator@V?$_Vector_val@UBuffInfo@ioBuffCountSkill@@V?$allocator@UBuffInfo@ioBuffCountSkill@@@std@@@std@@@std@@QBEHABV01@@Z PROC ; std::_Vector_const_iterator<std::_Vector_val<ioBuffCountSkill::BuffInfo,std::allocator<ioBuffCountSkill::BuffInfo> > >::operator-, COMDAT
; _this$ = ecx

; 190  : 		{	// return difference of iterators

  00000	55		 push	 ebp
  00001	8b ec		 mov	 ebp, esp

; 191  : 		_Compat(_Right);
; 192  : 		return (this->_Ptr - _Right._Ptr);

  00003	8b 01		 mov	 eax, DWORD PTR [ecx]
  00005	8b 4d 08	 mov	 ecx, DWORD PTR __Right$[ebp]
  00008	2b 01		 sub	 eax, DWORD PTR [ecx]
  0000a	6a 14		 push	 20			; 00000014H
  0000c	99		 cdq
  0000d	59		 pop	 ecx
  0000e	f7 f9		 idiv	 ecx

; 193  : 		}

  00010	5d		 pop	 ebp
  00011	c2 04 00	 ret	 4
??G?$_Vector_const_iterator@V?$_Vector_val@UBuffInfo@ioBuffCountSkill@@V?$allocator@UBuffInfo@ioBuffCountSkill@@@std@@@std@@@std@@QBEHABV01@@Z ENDP ; std::_Vector_const_iterator<std::_Vector_val<ioBuffCountSkill::BuffInfo,std::allocator<ioBuffCountSkill::BuffInfo> > >::operator-
_TEXT	ENDS
PUBLIC	??$_Unchecked@V?$_Vector_val@UBuffInfo@ioBuffCountSkill@@V?$allocator@UBuffInfo@ioBuffCountSkill@@@std@@@std@@@std@@YAPAUBuffInfo@ioBuffCountSkill@@V?$_Vector_iterator@V?$_Vector_val@UBuffInfo@ioBuffCountSkill@@V?$allocator@UBuffInfo@ioBuffCountSkill@@@std@@@std@@@0@@Z ; std::_Unchecked<std::_Vector_val<ioBuffCountSkill::BuffInfo,std::allocator<ioBuffCountSkill::BuffInfo> > >
; Function compile flags: /Ogsp
;	COMDAT ??$_Unchecked@V?$_Vector_val@UBuffInfo@ioBuffCountSkill@@V?$allocator@UBuffInfo@ioBuffCountSkill@@@std@@@std@@@std@@YAPAUBuffInfo@ioBuffCountSkill@@V?$_Vector_iterator@V?$_Vector_val@UBuffInfo@ioBuffCountSkill@@V?$allocator@UBuffInfo@ioBuffCountSkill@@@std@@@std@@@0@@Z
_TEXT	SEGMENT
__Iter$ = 8						; size = 4
??$_Unchecked@V?$_Vector_val@UBuffInfo@ioBuffCountSkill@@V?$allocator@UBuffInfo@ioBuffCountSkill@@@std@@@std@@@std@@YAPAUBuffInfo@ioBuffCountSkill@@V?$_Vector_iterator@V?$_Vector_val@UBuffInfo@ioBuffCountSkill@@V?$allocator@UBuffInfo@ioBuffCountSkill@@@std@@@std@@@0@@Z PROC ; std::_Unchecked<std::_Vector_val<ioBuffCountSkill::BuffInfo,std::allocator<ioBuffCountSkill::BuffInfo> > >, COMDAT

; 393  : 	{	// convert to unchecked

  00000	55		 push	 ebp
  00001	8b ec		 mov	 ebp, esp

; 394  : 	return (_Iter._Unchecked());

  00003	8b 45 08	 mov	 eax, DWORD PTR __Iter$[ebp]

; 395  : 	}

  00006	5d		 pop	 ebp
  00007	c3		 ret	 0
??$_Unchecked@V?$_Vector_val@UBuffInfo@ioBuffCountSkill@@V?$allocator@UBuffInfo@ioBuffCountSkill@@@std@@@std@@@std@@YAPAUBuffInfo@ioBuffCountSkill@@V?$_Vector_iterator@V?$_Vector_val@UBuffInfo@ioBuffCountSkill@@V?$allocator@UBuffInfo@ioBuffCountSkill@@@std@@@std@@@0@@Z ENDP ; std::_Unchecked<std::_Vector_val<ioBuffCountSkill::BuffInfo,std::allocator<ioBuffCountSkill::BuffInfo> > >
_TEXT	ENDS
PUBLIC	??$construct@AAVioHashString@@@?$allocator@VioHashString@@@std@@QAEXPAVioHashString@@AAV2@@Z ; std::allocator<ioHashString>::construct<ioHashString &>
;	COMDAT xdata$x
; File c:\program files (x86)\microsoft visual studio 10.0\vc\include\utility
xdata$x	SEGMENT
__unwindtable$??$construct@AAVioHashString@@@?$allocator@VioHashString@@@std@@QAEXPAVioHashString@@AAV2@@Z DD 0ffffffffH
	DD	FLAT:__unwindfunclet$??$construct@AAVioHashString@@@?$allocator@VioHashString@@@std@@QAEXPAVioHashString@@AAV2@@Z$0
__ehfuncinfo$??$construct@AAVioHashString@@@?$allocator@VioHashString@@@std@@QAEXPAVioHashString@@AAV2@@Z DD 019930522H
	DD	01H
	DD	FLAT:__unwindtable$??$construct@AAVioHashString@@@?$allocator@VioHashString@@@std@@QAEXPAVioHashString@@AAV2@@Z
	DD	2 DUP(00H)
	DD	2 DUP(00H)
	DD	00H
	DD	01H
; Function compile flags: /Ogsp
; File c:\program files (x86)\microsoft visual studio 10.0\vc\include\xmemory
xdata$x	ENDS
;	COMDAT ??$construct@AAVioHashString@@@?$allocator@VioHashString@@@std@@QAEXPAVioHashString@@AAV2@@Z
_TEXT	SEGMENT
$T535055 = -16						; size = 4
__$EHRec$ = -12						; size = 12
__Ptr$ = 8						; size = 4
__Val$ = 12						; size = 4
??$construct@AAVioHashString@@@?$allocator@VioHashString@@@std@@QAEXPAVioHashString@@AAV2@@Z PROC ; std::allocator<ioHashString>::construct<ioHashString &>, COMDAT
; _this$ = ecx

; 206  : 		void construct(pointer _Ptr, _Other&& _Val)

  00000	6a 04		 push	 4
  00002	b8 00 00 00 00	 mov	 eax, __ehhandler$??$construct@AAVioHashString@@@?$allocator@VioHashString@@@std@@QAEXPAVioHashString@@AAV2@@Z
  00007	e8 00 00 00 00	 call	 __EH_prolog3

; 207  : 		{	// construct object at _Ptr with value _Val
; 208  : 		::new ((void _FARQ *)_Ptr) _Ty(_STD forward<_Other>(_Val));

  0000c	8b 4d 08	 mov	 ecx, DWORD PTR __Ptr$[ebp]
  0000f	89 4d f0	 mov	 DWORD PTR $T535055[ebp], ecx
  00012	83 65 fc 00	 and	 DWORD PTR __$EHRec$[ebp+8], 0
  00016	85 c9		 test	 ecx, ecx
  00018	74 09		 je	 SHORT $LN3@construct
  0001a	ff 75 0c	 push	 DWORD PTR __Val$[ebp]
  0001d	ff 15 00 00 00
	00		 call	 DWORD PTR __imp_??0ioHashString@@QAE@ABV0@@Z
$LN3@construct:

; 209  : 		}

  00023	e8 00 00 00 00	 call	 __EH_epilog3
  00028	c2 08 00	 ret	 8
_TEXT	ENDS
;	COMDAT text$x
text$x	SEGMENT
__unwindfunclet$??$construct@AAVioHashString@@@?$allocator@VioHashString@@@std@@QAEXPAVioHashString@@AAV2@@Z$0:
  00000	ff 75 08	 push	 DWORD PTR __Ptr$[ebp]
  00003	ff 75 f0	 push	 DWORD PTR $T535055[ebp]
  00006	e8 00 00 00 00	 call	 ??3@YAXPAX0@Z		; operator delete
  0000b	59		 pop	 ecx
  0000c	59		 pop	 ecx
  0000d	c3		 ret	 0
__ehhandler$??$construct@AAVioHashString@@@?$allocator@VioHashString@@@std@@QAEXPAVioHashString@@AAV2@@Z:
  0000e	8b 54 24 08	 mov	 edx, DWORD PTR [esp+8]
  00012	8d 42 0c	 lea	 eax, DWORD PTR [edx+12]
  00015	8b 4a ec	 mov	 ecx, DWORD PTR [edx-20]
  00018	33 c8		 xor	 ecx, eax
  0001a	e8 00 00 00 00	 call	 @__security_check_cookie@4
  0001f	b8 00 00 00 00	 mov	 eax, OFFSET __ehfuncinfo$??$construct@AAVioHashString@@@?$allocator@VioHashString@@@std@@QAEXPAVioHashString@@AAV2@@Z
  00024	e9 00 00 00 00	 jmp	 ___CxxFrameHandler3
text$x	ENDS
??$construct@AAVioHashString@@@?$allocator@VioHashString@@@std@@QAEXPAVioHashString@@AAV2@@Z ENDP ; std::allocator<ioHashString>::construct<ioHashString &>
PUBLIC	??$_Equal@V?$_Vector_iterator@V?$_Vector_val@UBuffInfo@ioBuffCountSkill@@V?$allocator@UBuffInfo@ioBuffCountSkill@@@std@@@std@@@std@@U?$iterator@Urandom_access_iterator_tag@std@@UBuffInfo@ioBuffCountSkill@@HPAU34@AAU34@@2@@?$_Revranit@V?$_Vector_iterator@V?$_Vector_val@UBuffInfo@ioBuffCountSkill@@V?$allocator@UBuffInfo@ioBuffCountSkill@@@std@@@std@@@std@@U?$iterator@Urandom_access_iterator_tag@std@@UBuffInfo@ioBuffCountSkill@@HPAU34@AAU34@@2@@std@@QBE_NABV01@@Z ; std::_Revranit<std::_Vector_iterator<std::_Vector_val<ioBuffCountSkill::BuffInfo,std::allocator<ioBuffCountSkill::BuffInfo> > >,std::iterator<std::random_access_iterator_tag,ioBuffCountSkill::BuffInfo,int,ioBuffCountSkill::BuffInfo *,ioBuffCountSkill::BuffInfo &> >::_Equal<std::_Vector_iterator<std::_Vector_val<ioBuffCountSkill::BuffInfo,std::allocator<ioBuffCountSkill::BuffInfo> > >,std::iterator<std::random_access_iterator_tag,ioBuffCountSkill::BuffInfo,int,ioBuffCountSkill::BuffInfo *,ioBuffCountSkill::BuffInfo &> >
; Function compile flags: /Ogsp
; File c:\program files (x86)\microsoft visual studio 10.0\vc\include\xutility
;	COMDAT ??$_Equal@V?$_Vector_iterator@V?$_Vector_val@UBuffInfo@ioBuffCountSkill@@V?$allocator@UBuffInfo@ioBuffCountSkill@@@std@@@std@@@std@@U?$iterator@Urandom_access_iterator_tag@std@@UBuffInfo@ioBuffCountSkill@@HPAU34@AAU34@@2@@?$_Revranit@V?$_Vector_iterator@V?$_Vector_val@UBuffInfo@ioBuffCountSkill@@V?$allocator@UBuffInfo@ioBuffCountSkill@@@std@@@std@@@std@@U?$iterator@Urandom_access_iterator_tag@std@@UBuffInfo@ioBuffCountSkill@@HPAU34@AAU34@@2@@std@@QBE_NABV01@@Z
_TEXT	SEGMENT
__Right$ = 8						; size = 4
??$_Equal@V?$_Vector_iterator@V?$_Vector_val@UBuffInfo@ioBuffCountSkill@@V?$allocator@UBuffInfo@ioBuffCountSkill@@@std@@@std@@@std@@U?$iterator@Urandom_access_iterator_tag@std@@UBuffInfo@ioBuffCountSkill@@HPAU34@AAU34@@2@@?$_Revranit@V?$_Vector_iterator@V?$_Vector_val@UBuffInfo@ioBuffCountSkill@@V?$allocator@UBuffInfo@ioBuffCountSkill@@@std@@@std@@@std@@U?$iterator@Urandom_access_iterator_tag@std@@UBuffInfo@ioBuffCountSkill@@HPAU34@AAU34@@2@@std@@QBE_NABV01@@Z PROC ; std::_Revranit<std::_Vector_iterator<std::_Vector_val<ioBuffCountSkill::BuffInfo,std::allocator<ioBuffCountSkill::BuffInfo> > >,std::iterator<std::random_access_iterator_tag,ioBuffCountSkill::BuffInfo,int,ioBuffCountSkill::BuffInfo *,ioBuffCountSkill::BuffInfo &> >::_Equal<std::_Vector_iterator<std::_Vector_val<ioBuffCountSkill::BuffInfo,std::allocator<ioBuffCountSkill::BuffInfo> > >,std::iterator<std::random_access_iterator_tag,ioBuffCountSkill::BuffInfo,int,ioBuffCountSkill::BuffInfo *,ioBuffCountSkill::BuffInfo &> >, COMDAT
; _this$ = ecx

; 1081 : 		bool _Equal(const _Revranit<_RanIt2, _Base2>& _Right) const

  00000	55		 push	 ebp
  00001	8b ec		 mov	 ebp, esp

; 1082 : 		{	// test for iterator equality
; 1083 : 		return (current == _Right.base());

  00003	8b 45 08	 mov	 eax, DWORD PTR __Right$[ebp]
  00006	8b 00		 mov	 eax, DWORD PTR [eax]
  00008	33 d2		 xor	 edx, edx
  0000a	39 01		 cmp	 DWORD PTR [ecx], eax
  0000c	0f 94 c0	 sete	 al

; 1084 : 		}

  0000f	5d		 pop	 ebp
  00010	c2 04 00	 ret	 4
??$_Equal@V?$_Vector_iterator@V?$_Vector_val@UBuffInfo@ioBuffCountSkill@@V?$allocator@UBuffInfo@ioBuffCountSkill@@@std@@@std@@@std@@U?$iterator@Urandom_access_iterator_tag@std@@UBuffInfo@ioBuffCountSkill@@HPAU34@AAU34@@2@@?$_Revranit@V?$_Vector_iterator@V?$_Vector_val@UBuffInfo@ioBuffCountSkill@@V?$allocator@UBuffInfo@ioBuffCountSkill@@@std@@@std@@@std@@U?$iterator@Urandom_access_iterator_tag@std@@UBuffInfo@ioBuffCountSkill@@HPAU34@AAU34@@2@@std@@QBE_NABV01@@Z ENDP ; std::_Revranit<std::_Vector_iterator<std::_Vector_val<ioBuffCountSkill::BuffInfo,std::allocator<ioBuffCountSkill::BuffInfo> > >,std::iterator<std::random_access_iterator_tag,ioBuffCountSkill::BuffInfo,int,ioBuffCountSkill::BuffInfo *,ioBuffCountSkill::BuffInfo &> >::_Equal<std::_Vector_iterator<std::_Vector_val<ioBuffCountSkill::BuffInfo,std::allocator<ioBuffCountSkill::BuffInfo> > >,std::iterator<std::random_access_iterator_tag,ioBuffCountSkill::BuffInfo,int,ioBuffCountSkill::BuffInfo *,ioBuffCountSkill::BuffInfo &> >
_TEXT	ENDS
PUBLIC	??$?0AAPAUBuffInfo@ioBuffCountSkill@@AAPAU01@@?$pair@PAUBuffInfo@ioBuffCountSkill@@PAU12@@std@@QAE@AAPAUBuffInfo@ioBuffCountSkill@@0@Z ; std::pair<ioBuffCountSkill::BuffInfo *,ioBuffCountSkill::BuffInfo *>::pair<ioBuffCountSkill::BuffInfo *,ioBuffCountSkill::BuffInfo *><ioBuffCountSkill::BuffInfo * &,ioBuffCountSkill::BuffInfo * &>
; Function compile flags: /Ogsp
; File c:\program files (x86)\microsoft visual studio 10.0\vc\include\utility
;	COMDAT ??$?0AAPAUBuffInfo@ioBuffCountSkill@@AAPAU01@@?$pair@PAUBuffInfo@ioBuffCountSkill@@PAU12@@std@@QAE@AAPAUBuffInfo@ioBuffCountSkill@@0@Z
_TEXT	SEGMENT
__Val1$ = 8						; size = 4
__Val2$ = 12						; size = 4
??$?0AAPAUBuffInfo@ioBuffCountSkill@@AAPAU01@@?$pair@PAUBuffInfo@ioBuffCountSkill@@PAU12@@std@@QAE@AAPAUBuffInfo@ioBuffCountSkill@@0@Z PROC ; std::pair<ioBuffCountSkill::BuffInfo *,ioBuffCountSkill::BuffInfo *>::pair<ioBuffCountSkill::BuffInfo *,ioBuffCountSkill::BuffInfo *><ioBuffCountSkill::BuffInfo * &,ioBuffCountSkill::BuffInfo * &>, COMDAT
; _this$ = ecx

; 247  : 		{	// construct from moved values

  00000	55		 push	 ebp
  00001	8b ec		 mov	 ebp, esp
  00003	8b c1		 mov	 eax, ecx
  00005	8b 4d 08	 mov	 ecx, DWORD PTR __Val1$[ebp]
  00008	8b 09		 mov	 ecx, DWORD PTR [ecx]
  0000a	89 08		 mov	 DWORD PTR [eax], ecx
  0000c	8b 4d 0c	 mov	 ecx, DWORD PTR __Val2$[ebp]
  0000f	8b 09		 mov	 ecx, DWORD PTR [ecx]
  00011	89 48 04	 mov	 DWORD PTR [eax+4], ecx

; 248  : 		}

  00014	5d		 pop	 ebp
  00015	c2 08 00	 ret	 8
??$?0AAPAUBuffInfo@ioBuffCountSkill@@AAPAU01@@?$pair@PAUBuffInfo@ioBuffCountSkill@@PAU12@@std@@QAE@AAPAUBuffInfo@ioBuffCountSkill@@0@Z ENDP ; std::pair<ioBuffCountSkill::BuffInfo *,ioBuffCountSkill::BuffInfo *>::pair<ioBuffCountSkill::BuffInfo *,ioBuffCountSkill::BuffInfo *><ioBuffCountSkill::BuffInfo * &,ioBuffCountSkill::BuffInfo * &>
_TEXT	ENDS
PUBLIC	?construct@?$allocator@VioHashString@@@std@@QAEXPAVioHashString@@$$QAV3@@Z ; std::allocator<ioHashString>::construct
;	COMDAT xdata$x
xdata$x	SEGMENT
__unwindtable$?construct@?$allocator@VioHashString@@@std@@QAEXPAVioHashString@@$$QAV3@@Z DD 0ffffffffH
	DD	FLAT:__unwindfunclet$?construct@?$allocator@VioHashString@@@std@@QAEXPAVioHashString@@$$QAV3@@Z$0
__ehfuncinfo$?construct@?$allocator@VioHashString@@@std@@QAEXPAVioHashString@@$$QAV3@@Z DD 019930522H
	DD	01H
	DD	FLAT:__unwindtable$?construct@?$allocator@VioHashString@@@std@@QAEXPAVioHashString@@$$QAV3@@Z
	DD	2 DUP(00H)
	DD	2 DUP(00H)
	DD	00H
	DD	01H
; Function compile flags: /Ogsp
; File c:\program files (x86)\microsoft visual studio 10.0\vc\include\xmemory
xdata$x	ENDS
;	COMDAT ?construct@?$allocator@VioHashString@@@std@@QAEXPAVioHashString@@$$QAV3@@Z
_TEXT	SEGMENT
$T535109 = -16						; size = 4
__$EHRec$ = -12						; size = 12
__Ptr$ = 8						; size = 4
__Val$ = 12						; size = 4
?construct@?$allocator@VioHashString@@@std@@QAEXPAVioHashString@@$$QAV3@@Z PROC ; std::allocator<ioHashString>::construct, COMDAT
; _this$ = ecx

; 201  : 		{	// construct object at _Ptr with value _Val

  00000	6a 04		 push	 4
  00002	b8 00 00 00 00	 mov	 eax, __ehhandler$?construct@?$allocator@VioHashString@@@std@@QAEXPAVioHashString@@$$QAV3@@Z
  00007	e8 00 00 00 00	 call	 __EH_prolog3

; 202  : 		::new ((void _FARQ *)_Ptr) _Ty(_STD forward<_Ty>(_Val));

  0000c	8b 4d 08	 mov	 ecx, DWORD PTR __Ptr$[ebp]
  0000f	89 4d f0	 mov	 DWORD PTR $T535109[ebp], ecx
  00012	83 65 fc 00	 and	 DWORD PTR __$EHRec$[ebp+8], 0
  00016	85 c9		 test	 ecx, ecx
  00018	74 09		 je	 SHORT $LN3@construct@2
  0001a	ff 75 0c	 push	 DWORD PTR __Val$[ebp]
  0001d	ff 15 00 00 00
	00		 call	 DWORD PTR __imp_??0ioHashString@@QAE@ABV0@@Z
$LN3@construct@2:

; 203  : 		}

  00023	e8 00 00 00 00	 call	 __EH_epilog3
  00028	c2 08 00	 ret	 8
_TEXT	ENDS
;	COMDAT text$x
text$x	SEGMENT
__unwindfunclet$?construct@?$allocator@VioHashString@@@std@@QAEXPAVioHashString@@$$QAV3@@Z$0:
  00000	ff 75 08	 push	 DWORD PTR __Ptr$[ebp]
  00003	ff 75 f0	 push	 DWORD PTR $T535109[ebp]
  00006	e8 00 00 00 00	 call	 ??3@YAXPAX0@Z		; operator delete
  0000b	59		 pop	 ecx
  0000c	59		 pop	 ecx
  0000d	c3		 ret	 0
__ehhandler$?construct@?$allocator@VioHashString@@@std@@QAEXPAVioHashString@@$$QAV3@@Z:
  0000e	8b 54 24 08	 mov	 edx, DWORD PTR [esp+8]
  00012	8d 42 0c	 lea	 eax, DWORD PTR [edx+12]
  00015	8b 4a ec	 mov	 ecx, DWORD PTR [edx-20]
  00018	33 c8		 xor	 ecx, eax
  0001a	e8 00 00 00 00	 call	 @__security_check_cookie@4
  0001f	b8 00 00 00 00	 mov	 eax, OFFSET __ehfuncinfo$?construct@?$allocator@VioHashString@@@std@@QAEXPAVioHashString@@$$QAV3@@Z
  00024	e9 00 00 00 00	 jmp	 ___CxxFrameHandler3
text$x	ENDS
?construct@?$allocator@VioHashString@@@std@@QAEXPAVioHashString@@$$QAV3@@Z ENDP ; std::allocator<ioHashString>::construct
PUBLIC	??B?$CEncrypt@K@@QBEKXZ				; CEncrypt<unsigned long>::operator unsigned long
; Function compile flags: /Ogsp
; File d:\lost saga for developer\youtube\tutorial\source\src\lsclient\encryptvalue.h
;	COMDAT ??B?$CEncrypt@K@@QBEKXZ
_TEXT	SEGMENT
_value$ = -4						; size = 4
??B?$CEncrypt@K@@QBEKXZ PROC				; CEncrypt<unsigned long>::operator unsigned long, COMDAT
; _this$ = ecx

; 145  : 	{

  00000	55		 push	 ebp
  00001	8b ec		 mov	 ebp, esp
  00003	51		 push	 ecx

; 146  : 		//UJ 130829, const    --start
; 147  : 		type value;
; 148  : 		CEncrypt<type>* pThis = const_cast<CEncrypt<type>*>(this);
; 149  : 		pThis->DecryptValueToPool(&value);

  00004	8d 45 fc	 lea	 eax, DWORD PTR _value$[ebp]
  00007	50		 push	 eax
  00008	e8 00 00 00 00	 call	 ?DecryptValueToPool@?$CEncrypt@K@@QAEXPAK@Z ; CEncrypt<unsigned long>::DecryptValueToPool

; 150  : 		//// const DecryptValueToPool     .
; 151  :  		//type value;
; 152  : 		//char szTempMem[MAX_ENCRYPT];
; 153  : 		//m_RC5.DecryptByte( m_MemPool, szTempMem, max(m_ValueSize, DEFAULT_ENCRYPT) );
; 154  : 		//memcpy( &value, szTempMem, m_ValueSize );
; 155  : 		//UJ --end
; 156  : 
; 157  : #ifdef _NOTUSE
; 158  : 		Debug();
; 159  : #endif
; 160  : 		return value;

  0000d	8b 45 fc	 mov	 eax, DWORD PTR _value$[ebp]

; 161  : 	}

  00010	c9		 leave
  00011	c3		 ret	 0
??B?$CEncrypt@K@@QBEKXZ ENDP				; CEncrypt<unsigned long>::operator unsigned long
_TEXT	ENDS
PUBLIC	??B?$CEncrypt@_N@@QBE_NXZ			; CEncrypt<bool>::operator bool
; Function compile flags: /Ogsp
;	COMDAT ??B?$CEncrypt@_N@@QBE_NXZ
_TEXT	SEGMENT
_value$ = -1						; size = 1
??B?$CEncrypt@_N@@QBE_NXZ PROC				; CEncrypt<bool>::operator bool, COMDAT
; _this$ = ecx

; 145  : 	{

  00000	55		 push	 ebp
  00001	8b ec		 mov	 ebp, esp
  00003	51		 push	 ecx

; 146  : 		//UJ 130829, const    --start
; 147  : 		type value;
; 148  : 		CEncrypt<type>* pThis = const_cast<CEncrypt<type>*>(this);
; 149  : 		pThis->DecryptValueToPool(&value);

  00004	8d 45 ff	 lea	 eax, DWORD PTR _value$[ebp]
  00007	50		 push	 eax
  00008	e8 00 00 00 00	 call	 ?DecryptValueToPool@?$CEncrypt@_N@@QAEXPA_N@Z ; CEncrypt<bool>::DecryptValueToPool

; 150  : 		//// const DecryptValueToPool     .
; 151  :  		//type value;
; 152  : 		//char szTempMem[MAX_ENCRYPT];
; 153  : 		//m_RC5.DecryptByte( m_MemPool, szTempMem, max(m_ValueSize, DEFAULT_ENCRYPT) );
; 154  : 		//memcpy( &value, szTempMem, m_ValueSize );
; 155  : 		//UJ --end
; 156  : 
; 157  : #ifdef _NOTUSE
; 158  : 		Debug();
; 159  : #endif
; 160  : 		return value;

  0000d	8a 45 ff	 mov	 al, BYTE PTR _value$[ebp]

; 161  : 	}

  00010	c9		 leave
  00011	c3		 ret	 0
??B?$CEncrypt@_N@@QBE_NXZ ENDP				; CEncrypt<bool>::operator bool
_TEXT	ENDS
PUBLIC	??B?$CEncrypt@H@@QAEHXZ				; CEncrypt<int>::operator int
; Function compile flags: /Ogsp
;	COMDAT ??B?$CEncrypt@H@@QAEHXZ
_TEXT	SEGMENT
_value$ = -4						; size = 4
??B?$CEncrypt@H@@QAEHXZ PROC				; CEncrypt<int>::operator int, COMDAT
; _this$ = ecx

; 134  : 	{

  00000	55		 push	 ebp
  00001	8b ec		 mov	 ebp, esp
  00003	51		 push	 ecx

; 135  : 		type value;
; 136  : 		DecryptValueToPool(&value);

  00004	8d 45 fc	 lea	 eax, DWORD PTR _value$[ebp]
  00007	50		 push	 eax
  00008	e8 00 00 00 00	 call	 ?DecryptValueToPool@?$CEncrypt@H@@QAEXPAH@Z ; CEncrypt<int>::DecryptValueToPool

; 137  : 
; 138  : #ifdef _NOTUSE
; 139  : 		Debug();
; 140  : #endif
; 141  : 		return value;

  0000d	8b 45 fc	 mov	 eax, DWORD PTR _value$[ebp]

; 142  : 	}

  00010	c9		 leave
  00011	c3		 ret	 0
??B?$CEncrypt@H@@QAEHXZ ENDP				; CEncrypt<int>::operator int
_TEXT	ENDS
PUBLIC	??B?$CEncrypt@H@@QBEHXZ				; CEncrypt<int>::operator int
; Function compile flags: /Ogsp
;	COMDAT ??B?$CEncrypt@H@@QBEHXZ
_TEXT	SEGMENT
_value$ = -4						; size = 4
??B?$CEncrypt@H@@QBEHXZ PROC				; CEncrypt<int>::operator int, COMDAT
; _this$ = ecx

; 145  : 	{

  00000	55		 push	 ebp
  00001	8b ec		 mov	 ebp, esp
  00003	51		 push	 ecx

; 146  : 		//UJ 130829, const    --start
; 147  : 		type value;
; 148  : 		CEncrypt<type>* pThis = const_cast<CEncrypt<type>*>(this);
; 149  : 		pThis->DecryptValueToPool(&value);

  00004	8d 45 fc	 lea	 eax, DWORD PTR _value$[ebp]
  00007	50		 push	 eax
  00008	e8 00 00 00 00	 call	 ?DecryptValueToPool@?$CEncrypt@H@@QAEXPAH@Z ; CEncrypt<int>::DecryptValueToPool

; 150  : 		//// const DecryptValueToPool     .
; 151  :  		//type value;
; 152  : 		//char szTempMem[MAX_ENCRYPT];
; 153  : 		//m_RC5.DecryptByte( m_MemPool, szTempMem, max(m_ValueSize, DEFAULT_ENCRYPT) );
; 154  : 		//memcpy( &value, szTempMem, m_ValueSize );
; 155  : 		//UJ --end
; 156  : 
; 157  : #ifdef _NOTUSE
; 158  : 		Debug();
; 159  : #endif
; 160  : 		return value;

  0000d	8b 45 fc	 mov	 eax, DWORD PTR _value$[ebp]

; 161  : 	}

  00010	c9		 leave
  00011	c3		 ret	 0
??B?$CEncrypt@H@@QBEHXZ ENDP				; CEncrypt<int>::operator int
_TEXT	ENDS
PUBLIC	??4?$CEncrypt@H@@QAEHH@Z			; CEncrypt<int>::operator=
; Function compile flags: /Ogsp
;	COMDAT ??4?$CEncrypt@H@@QAEHH@Z
_TEXT	SEGMENT
_value$ = 8						; size = 4
_inValue$ = 8						; size = 4
??4?$CEncrypt@H@@QAEHH@Z PROC				; CEncrypt<int>::operator=, COMDAT
; _this$ = ecx

; 843  : 	{

  00000	55		 push	 ebp
  00001	8b ec		 mov	 ebp, esp

; 844  : 		type value = inValue;

  00003	8b 45 08	 mov	 eax, DWORD PTR _inValue$[ebp]
  00006	89 45 08	 mov	 DWORD PTR _value$[ebp], eax

; 845  : 		EncryptValueToPool((char*)&value);

  00009	8d 45 08	 lea	 eax, DWORD PTR _value$[ebp]
  0000c	50		 push	 eax
  0000d	e8 00 00 00 00	 call	 ?EncryptValueToPool@?$CEncrypt@H@@AAEXPBD@Z ; CEncrypt<int>::EncryptValueToPool

; 846  : #ifdef _NOTUSE
; 847  : 		m_value = inValue;
; 848  : 		Debug();
; 849  : #endif
; 850  : 		return value;

  00012	8b 45 08	 mov	 eax, DWORD PTR _value$[ebp]

; 851  : 	}

  00015	5d		 pop	 ebp
  00016	c2 04 00	 ret	 4
??4?$CEncrypt@H@@QAEHH@Z ENDP				; CEncrypt<int>::operator=
_TEXT	ENDS
PUBLIC	?begin@?$vector@VioHashString@@V?$allocator@VioHashString@@@std@@@std@@QAE?AV?$_Vector_iterator@V?$_Vector_val@VioHashString@@V?$allocator@VioHashString@@@std@@@std@@@2@XZ ; std::vector<ioHashString,std::allocator<ioHashString> >::begin
; Function compile flags: /Ogsp
; File c:\program files (x86)\microsoft visual studio 10.0\vc\include\vector
;	COMDAT ?begin@?$vector@VioHashString@@V?$allocator@VioHashString@@@std@@@std@@QAE?AV?$_Vector_iterator@V?$_Vector_val@VioHashString@@V?$allocator@VioHashString@@@std@@@std@@@2@XZ
_TEXT	SEGMENT
___$ReturnUdt$ = 8					; size = 4
?begin@?$vector@VioHashString@@V?$allocator@VioHashString@@@std@@@std@@QAE?AV?$_Vector_iterator@V?$_Vector_val@VioHashString@@V?$allocator@VioHashString@@@std@@@std@@@2@XZ PROC ; std::vector<ioHashString,std::allocator<ioHashString> >::begin, COMDAT
; _this$ = ecx

; 781  : 		{	// return iterator for beginning of mutable sequence

  00000	55		 push	 ebp
  00001	8b ec		 mov	 ebp, esp

; 782  : 		return (iterator(this->_Myfirst, this));

  00003	8b 09		 mov	 ecx, DWORD PTR [ecx]
  00005	8b 45 08	 mov	 eax, DWORD PTR ___$ReturnUdt$[ebp]
  00008	89 08		 mov	 DWORD PTR [eax], ecx

; 783  : 		}

  0000a	5d		 pop	 ebp
  0000b	c2 04 00	 ret	 4
?begin@?$vector@VioHashString@@V?$allocator@VioHashString@@@std@@@std@@QAE?AV?$_Vector_iterator@V?$_Vector_val@VioHashString@@V?$allocator@VioHashString@@@std@@@std@@@2@XZ ENDP ; std::vector<ioHashString,std::allocator<ioHashString> >::begin
_TEXT	ENDS
PUBLIC	?begin@?$vector@VioHashString@@V?$allocator@VioHashString@@@std@@@std@@QBE?AV?$_Vector_const_iterator@V?$_Vector_val@VioHashString@@V?$allocator@VioHashString@@@std@@@std@@@2@XZ ; std::vector<ioHashString,std::allocator<ioHashString> >::begin
; Function compile flags: /Ogsp
;	COMDAT ?begin@?$vector@VioHashString@@V?$allocator@VioHashString@@@std@@@std@@QBE?AV?$_Vector_const_iterator@V?$_Vector_val@VioHashString@@V?$allocator@VioHashString@@@std@@@std@@@2@XZ
_TEXT	SEGMENT
___$ReturnUdt$ = 8					; size = 4
?begin@?$vector@VioHashString@@V?$allocator@VioHashString@@@std@@@std@@QBE?AV?$_Vector_const_iterator@V?$_Vector_val@VioHashString@@V?$allocator@VioHashString@@@std@@@std@@@2@XZ PROC ; std::vector<ioHashString,std::allocator<ioHashString> >::begin, COMDAT
; _this$ = ecx

; 786  : 		{	// return iterator for beginning of nonmutable sequence

  00000	55		 push	 ebp
  00001	8b ec		 mov	 ebp, esp

; 787  : 		return (const_iterator(this->_Myfirst, this));

  00003	8b 09		 mov	 ecx, DWORD PTR [ecx]
  00005	8b 45 08	 mov	 eax, DWORD PTR ___$ReturnUdt$[ebp]
  00008	89 08		 mov	 DWORD PTR [eax], ecx

; 788  : 		}

  0000a	5d		 pop	 ebp
  0000b	c2 04 00	 ret	 4
?begin@?$vector@VioHashString@@V?$allocator@VioHashString@@@std@@@std@@QBE?AV?$_Vector_const_iterator@V?$_Vector_val@VioHashString@@V?$allocator@VioHashString@@@std@@@std@@@2@XZ ENDP ; std::vector<ioHashString,std::allocator<ioHashString> >::begin
_TEXT	ENDS
PUBLIC	?end@?$vector@VioHashString@@V?$allocator@VioHashString@@@std@@@std@@QAE?AV?$_Vector_iterator@V?$_Vector_val@VioHashString@@V?$allocator@VioHashString@@@std@@@std@@@2@XZ ; std::vector<ioHashString,std::allocator<ioHashString> >::end
; Function compile flags: /Ogsp
;	COMDAT ?end@?$vector@VioHashString@@V?$allocator@VioHashString@@@std@@@std@@QAE?AV?$_Vector_iterator@V?$_Vector_val@VioHashString@@V?$allocator@VioHashString@@@std@@@std@@@2@XZ
_TEXT	SEGMENT
___$ReturnUdt$ = 8					; size = 4
?end@?$vector@VioHashString@@V?$allocator@VioHashString@@@std@@@std@@QAE?AV?$_Vector_iterator@V?$_Vector_val@VioHashString@@V?$allocator@VioHashString@@@std@@@std@@@2@XZ PROC ; std::vector<ioHashString,std::allocator<ioHashString> >::end, COMDAT
; _this$ = ecx

; 791  : 		{	// return iterator for end of mutable sequence

  00000	55		 push	 ebp
  00001	8b ec		 mov	 ebp, esp

; 792  : 		return (iterator(this->_Mylast, this));

  00003	8b 49 04	 mov	 ecx, DWORD PTR [ecx+4]
  00006	8b 45 08	 mov	 eax, DWORD PTR ___$ReturnUdt$[ebp]
  00009	89 08		 mov	 DWORD PTR [eax], ecx

; 793  : 		}

  0000b	5d		 pop	 ebp
  0000c	c2 04 00	 ret	 4
?end@?$vector@VioHashString@@V?$allocator@VioHashString@@@std@@@std@@QAE?AV?$_Vector_iterator@V?$_Vector_val@VioHashString@@V?$allocator@VioHashString@@@std@@@std@@@2@XZ ENDP ; std::vector<ioHashString,std::allocator<ioHashString> >::end
_TEXT	ENDS
PUBLIC	?end@?$vector@VioHashString@@V?$allocator@VioHashString@@@std@@@std@@QBE?AV?$_Vector_const_iterator@V?$_Vector_val@VioHashString@@V?$allocator@VioHashString@@@std@@@std@@@2@XZ ; std::vector<ioHashString,std::allocator<ioHashString> >::end
; Function compile flags: /Ogsp
;	COMDAT ?end@?$vector@VioHashString@@V?$allocator@VioHashString@@@std@@@std@@QBE?AV?$_Vector_const_iterator@V?$_Vector_val@VioHashString@@V?$allocator@VioHashString@@@std@@@std@@@2@XZ
_TEXT	SEGMENT
___$ReturnUdt$ = 8					; size = 4
?end@?$vector@VioHashString@@V?$allocator@VioHashString@@@std@@@std@@QBE?AV?$_Vector_const_iterator@V?$_Vector_val@VioHashString@@V?$allocator@VioHashString@@@std@@@std@@@2@XZ PROC ; std::vector<ioHashString,std::allocator<ioHashString> >::end, COMDAT
; _this$ = ecx

; 796  : 		{	// return iterator for end of nonmutable sequence

  00000	55		 push	 ebp
  00001	8b ec		 mov	 ebp, esp

; 797  : 		return (const_iterator(this->_Mylast, this));

  00003	8b 49 04	 mov	 ecx, DWORD PTR [ecx+4]
  00006	8b 45 08	 mov	 eax, DWORD PTR ___$ReturnUdt$[ebp]
  00009	89 08		 mov	 DWORD PTR [eax], ecx

; 798  : 		}

  0000b	5d		 pop	 ebp
  0000c	c2 04 00	 ret	 4
?end@?$vector@VioHashString@@V?$allocator@VioHashString@@@std@@@std@@QBE?AV?$_Vector_const_iterator@V?$_Vector_val@VioHashString@@V?$allocator@VioHashString@@@std@@@std@@@2@XZ ENDP ; std::vector<ioHashString,std::allocator<ioHashString> >::end
_TEXT	ENDS
PUBLIC	??0?$_Vector_val@VioHashString@@V?$allocator@VioHashString@@@std@@@std@@QAE@V?$allocator@VioHashString@@@1@@Z ; std::_Vector_val<ioHashString,std::allocator<ioHashString> >::_Vector_val<ioHashString,std::allocator<ioHashString> >
; Function compile flags: /Ogsp
;	COMDAT ??0?$_Vector_val@VioHashString@@V?$allocator@VioHashString@@@std@@@std@@QAE@V?$allocator@VioHashString@@@1@@Z
_TEXT	SEGMENT
__Al$ = 8						; size = 1
??0?$_Vector_val@VioHashString@@V?$allocator@VioHashString@@@std@@@std@@QAE@V?$allocator@VioHashString@@@1@@Z PROC ; std::_Vector_val<ioHashString,std::allocator<ioHashString> >::_Vector_val<ioHashString,std::allocator<ioHashString> >, COMDAT
; _this$ = ecx

; 426  : 		{	// construct allocator from _Al

  00000	8b c1		 mov	 eax, ecx

; 427  : 		_Myfirst = 0;

  00002	33 c9		 xor	 ecx, ecx
  00004	89 08		 mov	 DWORD PTR [eax], ecx

; 428  : 		_Mylast = 0;

  00006	89 48 04	 mov	 DWORD PTR [eax+4], ecx

; 429  : 		_Myend = 0;

  00009	89 48 08	 mov	 DWORD PTR [eax+8], ecx

; 430  : 		}

  0000c	c2 04 00	 ret	 4
??0?$_Vector_val@VioHashString@@V?$allocator@VioHashString@@@std@@@std@@QAE@V?$allocator@VioHashString@@@1@@Z ENDP ; std::_Vector_val<ioHashString,std::allocator<ioHashString> >::_Vector_val<ioHashString,std::allocator<ioHashString> >
_TEXT	ENDS
PUBLIC	?_Make_iter@?$vector@VioHashString@@V?$allocator@VioHashString@@@std@@@std@@QBE?AV?$_Vector_iterator@V?$_Vector_val@VioHashString@@V?$allocator@VioHashString@@@std@@@std@@@2@V?$_Vector_const_iterator@V?$_Vector_val@VioHashString@@V?$allocator@VioHashString@@@std@@@std@@@2@@Z ; std::vector<ioHashString,std::allocator<ioHashString> >::_Make_iter
; Function compile flags: /Ogsp
;	COMDAT ?_Make_iter@?$vector@VioHashString@@V?$allocator@VioHashString@@@std@@@std@@QBE?AV?$_Vector_iterator@V?$_Vector_val@VioHashString@@V?$allocator@VioHashString@@@std@@@std@@@2@V?$_Vector_const_iterator@V?$_Vector_val@VioHashString@@V?$allocator@VioHashString@@@std@@@std@@@2@@Z
_TEXT	SEGMENT
___$ReturnUdt$ = 8					; size = 4
__Where$ = 12						; size = 4
?_Make_iter@?$vector@VioHashString@@V?$allocator@VioHashString@@@std@@@std@@QBE?AV?$_Vector_iterator@V?$_Vector_val@VioHashString@@V?$allocator@VioHashString@@@std@@@std@@@2@V?$_Vector_const_iterator@V?$_Vector_val@VioHashString@@V?$allocator@VioHashString@@@std@@@std@@@2@@Z PROC ; std::vector<ioHashString,std::allocator<ioHashString> >::_Make_iter, COMDAT
; _this$ = ecx

; 801  : 		{	// make iterator from const_iterator

  00000	55		 push	 ebp
  00001	8b ec		 mov	 ebp, esp

; 802  : 		return (iterator(_Where._Ptr, this));

  00003	8b 45 08	 mov	 eax, DWORD PTR ___$ReturnUdt$[ebp]
  00006	8b 4d 0c	 mov	 ecx, DWORD PTR __Where$[ebp]
  00009	89 08		 mov	 DWORD PTR [eax], ecx

; 803  : 		}

  0000b	5d		 pop	 ebp
  0000c	c2 08 00	 ret	 8
?_Make_iter@?$vector@VioHashString@@V?$allocator@VioHashString@@@std@@@std@@QBE?AV?$_Vector_iterator@V?$_Vector_val@VioHashString@@V?$allocator@VioHashString@@@std@@@std@@@2@V?$_Vector_const_iterator@V?$_Vector_val@VioHashString@@V?$allocator@VioHashString@@@std@@@std@@@2@@Z ENDP ; std::vector<ioHashString,std::allocator<ioHashString> >::_Make_iter
_TEXT	ENDS
PUBLIC	?max_size@?$vector@VioHashString@@V?$allocator@VioHashString@@@std@@@std@@QBEIXZ ; std::vector<ioHashString,std::allocator<ioHashString> >::max_size
; Function compile flags: /Ogsp
;	COMDAT ?max_size@?$vector@VioHashString@@V?$allocator@VioHashString@@@std@@@std@@QBEIXZ
_TEXT	SEGMENT
?max_size@?$vector@VioHashString@@V?$allocator@VioHashString@@@std@@@std@@QBEIXZ PROC ; std::vector<ioHashString,std::allocator<ioHashString> >::max_size, COMDAT
; _this$ = ecx

; 884  : 		return (this->_Alval.max_size());

  00000	b8 ff ff ff 0f	 mov	 eax, 268435455		; 0fffffffH

; 885  : 		}

  00005	c3		 ret	 0
?max_size@?$vector@VioHashString@@V?$allocator@VioHashString@@@std@@@std@@QBEIXZ ENDP ; std::vector<ioHashString,std::allocator<ioHashString> >::max_size
_TEXT	ENDS
PUBLIC	?allocate@?$allocator@VioHashString@@@std@@QAEPAVioHashString@@I@Z ; std::allocator<ioHashString>::allocate
; Function compile flags: /Ogsp
; File c:\program files (x86)\microsoft visual studio 10.0\vc\include\xmemory
;	COMDAT ?allocate@?$allocator@VioHashString@@@std@@QAEPAVioHashString@@I@Z
_TEXT	SEGMENT
__Count$ = 8						; size = 4
?allocate@?$allocator@VioHashString@@@std@@QAEPAVioHashString@@I@Z PROC ; std::allocator<ioHashString>::allocate, COMDAT
; _this$ = ecx

; 186  : 		{	// allocate array of _Count elements

  00000	55		 push	 ebp
  00001	8b ec		 mov	 ebp, esp

; 187  : 		return (_Allocate(_Count, (pointer)0));

  00003	6a 00		 push	 0
  00005	ff 75 08	 push	 DWORD PTR __Count$[ebp]
  00008	e8 00 00 00 00	 call	 ??$_Allocate@VioHashString@@@std@@YAPAVioHashString@@IPAV1@@Z ; std::_Allocate<ioHashString>
  0000d	59		 pop	 ecx
  0000e	59		 pop	 ecx

; 188  : 		}

  0000f	5d		 pop	 ebp
  00010	c2 04 00	 ret	 4
?allocate@?$allocator@VioHashString@@@std@@QAEPAVioHashString@@I@Z ENDP ; std::allocator<ioHashString>::allocate
_TEXT	ENDS
PUBLIC	??8?$_Vector_const_iterator@V?$_Vector_val@VioHashString@@V?$allocator@VioHashString@@@std@@@std@@@std@@QBE_NABV01@@Z ; std::_Vector_const_iterator<std::_Vector_val<ioHashString,std::allocator<ioHashString> > >::operator==
; Function compile flags: /Ogsp
; File c:\program files (x86)\microsoft visual studio 10.0\vc\include\vector
;	COMDAT ??8?$_Vector_const_iterator@V?$_Vector_val@VioHashString@@V?$allocator@VioHashString@@@std@@@std@@@std@@QBE_NABV01@@Z
_TEXT	SEGMENT
__Right$ = 8						; size = 4
??8?$_Vector_const_iterator@V?$_Vector_val@VioHashString@@V?$allocator@VioHashString@@@std@@@std@@@std@@QBE_NABV01@@Z PROC ; std::_Vector_const_iterator<std::_Vector_val<ioHashString,std::allocator<ioHashString> > >::operator==, COMDAT
; _this$ = ecx

; 201  : 		{	// test for iterator equality

  00000	55		 push	 ebp
  00001	8b ec		 mov	 ebp, esp

; 202  : 		_Compat(_Right);
; 203  : 		return (this->_Ptr == _Right._Ptr);

  00003	8b 01		 mov	 eax, DWORD PTR [ecx]
  00005	8b 4d 08	 mov	 ecx, DWORD PTR __Right$[ebp]
  00008	2b 01		 sub	 eax, DWORD PTR [ecx]
  0000a	f7 d8		 neg	 eax
  0000c	1b c0		 sbb	 eax, eax
  0000e	40		 inc	 eax

; 204  : 		}

  0000f	5d		 pop	 ebp
  00010	c2 04 00	 ret	 4
??8?$_Vector_const_iterator@V?$_Vector_val@VioHashString@@V?$allocator@VioHashString@@@std@@@std@@@std@@QBE_NABV01@@Z ENDP ; std::_Vector_const_iterator<std::_Vector_val<ioHashString,std::allocator<ioHashString> > >::operator==
_TEXT	ENDS
PUBLIC	??$_Move@PAVioHashString@@PAV1@@std@@YAPAVioHashString@@PAV1@00U_Nonscalar_ptr_iterator_tag@0@@Z ; std::_Move<ioHashString *,ioHashString *>
; Function compile flags: /Ogsp
; File c:\program files (x86)\microsoft visual studio 10.0\vc\include\xutility
;	COMDAT ??$_Move@PAVioHashString@@PAV1@@std@@YAPAVioHashString@@PAV1@00U_Nonscalar_ptr_iterator_tag@0@@Z
_TEXT	SEGMENT
__First$ = 8						; size = 4
__Last$ = 12						; size = 4
__Dest$ = 16						; size = 4
___formal$ = 20						; size = 1
??$_Move@PAVioHashString@@PAV1@@std@@YAPAVioHashString@@PAV1@00U_Nonscalar_ptr_iterator_tag@0@@Z PROC ; std::_Move<ioHashString *,ioHashString *>, COMDAT

; 2512 : 	{	// move [_First, _Last) to [_Dest, ...), arbitrary iterators

  00000	55		 push	 ebp
  00001	8b ec		 mov	 ebp, esp
  00003	56		 push	 esi

; 2513 : 	for (; _First != _Last; ++_Dest, ++_First)

  00004	8b 75 08	 mov	 esi, DWORD PTR __First$[ebp]
  00007	eb 11		 jmp	 SHORT $LN11@Move
$LL3@Move:

; 2514 : 		*_Dest = _STD move(*_First);

  00009	8b 4d 10	 mov	 ecx, DWORD PTR __Dest$[ebp]
  0000c	56		 push	 esi
  0000d	ff 15 00 00 00
	00		 call	 DWORD PTR __imp_??4ioHashString@@QAEAAV0@ABV0@@Z
  00013	83 45 10 10	 add	 DWORD PTR __Dest$[ebp], 16 ; 00000010H
  00017	83 c6 10	 add	 esi, 16			; 00000010H
$LN11@Move:

; 2513 : 	for (; _First != _Last; ++_Dest, ++_First)

  0001a	3b 75 0c	 cmp	 esi, DWORD PTR __Last$[ebp]
  0001d	75 ea		 jne	 SHORT $LL3@Move

; 2515 : 	return (_Dest);

  0001f	8b 45 10	 mov	 eax, DWORD PTR __Dest$[ebp]
  00022	5e		 pop	 esi

; 2516 : 	}

  00023	5d		 pop	 ebp
  00024	c3		 ret	 0
??$_Move@PAVioHashString@@PAV1@@std@@YAPAVioHashString@@PAV1@00U_Nonscalar_ptr_iterator_tag@0@@Z ENDP ; std::_Move<ioHashString *,ioHashString *>
_TEXT	ENDS
PUBLIC	??$_Destroy@VioHashString@@@std@@YAXPAVioHashString@@@Z ; std::_Destroy<ioHashString>
; Function compile flags: /Ogsp
; File c:\program files (x86)\microsoft visual studio 10.0\vc\include\xmemory
;	COMDAT ??$_Destroy@VioHashString@@@std@@YAXPAVioHashString@@@Z
_TEXT	SEGMENT
__Ptr$ = 8						; size = 4
??$_Destroy@VioHashString@@@std@@YAXPAVioHashString@@@Z PROC ; std::_Destroy<ioHashString>, COMDAT

; 62   : 	{	// destroy object at _Ptr

  00000	55		 push	 ebp
  00001	8b ec		 mov	 ebp, esp

; 63   : 	_Ptr->~_Ty();

  00003	8b 4d 08	 mov	 ecx, DWORD PTR __Ptr$[ebp]

; 64   : 	}

  00006	5d		 pop	 ebp

; 63   : 	_Ptr->~_Ty();

  00007	ff 25 00 00 00
	00		 jmp	 DWORD PTR __imp_??1ioHashString@@QAE@XZ
??$_Destroy@VioHashString@@@std@@YAXPAVioHashString@@@Z ENDP ; std::_Destroy<ioHashString>
_TEXT	ENDS
PUBLIC	?construct@?$allocator@VioHashString@@@std@@QAEXPAVioHashString@@ABV3@@Z ; std::allocator<ioHashString>::construct
; Function compile flags: /Ogsp
;	COMDAT ?construct@?$allocator@VioHashString@@@std@@QAEXPAVioHashString@@ABV3@@Z
_TEXT	SEGMENT
__Ptr$ = 8						; size = 4
__Val$ = 12						; size = 4
?construct@?$allocator@VioHashString@@@std@@QAEXPAVioHashString@@ABV3@@Z PROC ; std::allocator<ioHashString>::construct, COMDAT
; _this$ = ecx

; 196  : 		{	// construct object at _Ptr with value _Val

  00000	55		 push	 ebp
  00001	8b ec		 mov	 ebp, esp

; 197  : 		_Construct(_Ptr, _Val);

  00003	ff 75 0c	 push	 DWORD PTR __Val$[ebp]
  00006	ff 75 08	 push	 DWORD PTR __Ptr$[ebp]
  00009	e8 00 00 00 00	 call	 ??$_Construct@VioHashString@@ABV1@@std@@YAXPAVioHashString@@ABV1@@Z ; std::_Construct<ioHashString,ioHashString const &>
  0000e	59		 pop	 ecx
  0000f	59		 pop	 ecx

; 198  : 		}

  00010	5d		 pop	 ebp
  00011	c2 08 00	 ret	 8
?construct@?$allocator@VioHashString@@@std@@QAEXPAVioHashString@@ABV3@@Z ENDP ; std::allocator<ioHashString>::construct
_TEXT	ENDS
PUBLIC	?CheckPreState@ioBuffCountSkill@@IAEXPAVioBaseChar@@PAVioPlayStage@@@Z ; ioBuffCountSkill::CheckPreState
; Function compile flags: /Ogsp
; File d:\lost saga for developer\youtube\tutorial\source\src\lsclient\iobuffcountskill.cpp
;	COMDAT ?CheckPreState@ioBuffCountSkill@@IAEXPAVioBaseChar@@PAVioPlayStage@@@Z
_TEXT	SEGMENT
_pOwner$ = 8						; size = 4
_pStage$ = 12						; size = 4
?CheckPreState@ioBuffCountSkill@@IAEXPAVioBaseChar@@PAVioPlayStage@@@Z PROC ; ioBuffCountSkill::CheckPreState, COMDAT
; _this$ = ecx

; 150  : {

  00000	55		 push	 ebp
  00001	8b ec		 mov	 ebp, esp
  00003	56		 push	 esi
  00004	57		 push	 edi

; 151  : 	if( !pOwner || !pOwner->IsNeedProcess() )

  00005	8b 7d 08	 mov	 edi, DWORD PTR _pOwner$[ebp]
  00008	8b f1		 mov	 esi, ecx
  0000a	85 ff		 test	 edi, edi
  0000c	74 53		 je	 SHORT $LN2@CheckPreSt
  0000e	8b 07		 mov	 eax, DWORD PTR [edi]
  00010	8b cf		 mov	 ecx, edi
  00012	ff 90 00 01 00
	00		 call	 DWORD PTR [eax+256]
  00018	84 c0		 test	 al, al
  0001a	74 45		 je	 SHORT $LN2@CheckPreSt

; 152  : 		return;
; 153  : 
; 154  : 	DWORD dwCurTime  = FRAMEGETTIME();

  0001c	53		 push	 ebx
  0001d	ff 15 00 00 00
	00		 call	 DWORD PTR __imp_?GetSingleton@ioFrameTimer@@SAAAV1@XZ
  00023	8b c8		 mov	 ecx, eax
  00025	ff 15 00 00 00
	00		 call	 DWORD PTR __imp_?GetLoopSec@ioFrameTimer@@QBEKXZ
  0002b	8b d8		 mov	 ebx, eax

; 155  : 	DWORD dwPreDelay = GetPreDelayTime();

  0002d	8b 06		 mov	 eax, DWORD PTR [esi]
  0002f	8b ce		 mov	 ecx, esi
  00031	ff 90 34 01 00
	00		 call	 DWORD PTR [eax+308]

; 156  : 
; 157  : 	if( m_dwPreDelayStartTime + dwPreDelay < dwCurTime )

  00037	8b 96 20 02 00
	00		 mov	 edx, DWORD PTR [esi+544]
  0003d	03 d0		 add	 edx, eax
  0003f	3b d3		 cmp	 edx, ebx
  00041	5b		 pop	 ebx
  00042	73 1d		 jae	 SHORT $LN2@CheckPreSt

; 158  : 	{
; 159  : 		m_dwPreDelayStartTime = 0;
; 160  : 		EndPreDelayEffect( pOwner );

  00044	8b 06		 mov	 eax, DWORD PTR [esi]
  00046	83 a6 20 02 00
	00 00		 and	 DWORD PTR [esi+544], 0
  0004d	57		 push	 edi
  0004e	8b ce		 mov	 ecx, esi
  00050	ff 90 dc 00 00
	00		 call	 DWORD PTR [eax+220]

; 161  : 		SetSkillActionState( pOwner, pStage );

  00056	ff 75 0c	 push	 DWORD PTR _pStage$[ebp]
  00059	8b ce		 mov	 ecx, esi
  0005b	57		 push	 edi
  0005c	e8 00 00 00 00	 call	 ?SetSkillActionState@ioBuffCountSkill@@IAEXPAVioBaseChar@@PAVioPlayStage@@@Z ; ioBuffCountSkill::SetSkillActionState
$LN2@CheckPreSt:
  00061	5f		 pop	 edi
  00062	5e		 pop	 esi

; 162  : 	}
; 163  : }

  00063	5d		 pop	 ebp
  00064	c2 08 00	 ret	 8
?CheckPreState@ioBuffCountSkill@@IAEXPAVioBaseChar@@PAVioPlayStage@@@Z ENDP ; ioBuffCountSkill::CheckPreState
_TEXT	ENDS
PUBLIC	?IsProtected@ioBuffCountSkill@@UBE_NH@Z		; ioBuffCountSkill::IsProtected
; Function compile flags: /Ogsp
;	COMDAT ?IsProtected@ioBuffCountSkill@@UBE_NH@Z
_TEXT	SEGMENT
_value$535259 = -1					; size = 1
_value$535264 = 8					; size = 4
_iDefenseBreakType$ = 8					; size = 4
?IsProtected@ioBuffCountSkill@@UBE_NH@Z PROC		; ioBuffCountSkill::IsProtected, COMDAT
; _this$ = ecx

; 246  : {

  00000	55		 push	 ebp
  00001	8b ec		 mov	 ebp, esp
  00003	51		 push	 ecx
  00004	56		 push	 esi
  00005	8b f1		 mov	 esi, ecx

; 247  : 	if( m_bDisableSkillProtect )

  00007	8d 45 ff	 lea	 eax, DWORD PTR _value$535259[ebp]
  0000a	50		 push	 eax
  0000b	8d 8e a8 00 00
	00		 lea	 ecx, DWORD PTR [esi+168]
  00011	e8 00 00 00 00	 call	 ?DecryptValueToPool@?$CEncrypt@_N@@QAEXPA_N@Z ; CEncrypt<bool>::DecryptValueToPool
  00016	80 7d ff 00	 cmp	 BYTE PTR _value$535259[ebp], 0

; 248  : 		return false;

  0001a	75 5d		 jne	 SHORT $LN1@IsProtecte

; 249  : 
; 250  : 	//   
; 251  : 	if( DBT_NONE != (DefenseBreakType)m_ProtectCancelType )

  0001c	8b 86 a4 00 00
	00		 mov	 eax, DWORD PTR [esi+164]
  00022	85 c0		 test	 eax, eax
  00024	74 05		 je	 SHORT $LN4@IsProtecte

; 252  : 	{
; 253  : 		if( iDefenseBreakType == m_ProtectCancelType )

  00026	39 45 08	 cmp	 DWORD PTR _iDefenseBreakType$[ebp], eax

; 254  : 			return false;

  00029	74 4e		 je	 SHORT $LN1@IsProtecte
$LN4@IsProtecte:

; 255  : 	}
; 256  : 
; 257  : 	if( IsPreDelayProtect() )

  0002b	8b 06		 mov	 eax, DWORD PTR [esi]
  0002d	8b ce		 mov	 ecx, esi
  0002f	ff 90 2c 01 00
	00		 call	 DWORD PTR [eax+300]
  00035	84 c0		 test	 al, al
  00037	74 0d		 je	 SHORT $LN2@IsProtecte

; 258  : 	{
; 259  : 		if( m_dwPreDelayStartTime != 0 )

  00039	83 be 20 02 00
	00 00		 cmp	 DWORD PTR [esi+544], 0
  00040	74 04		 je	 SHORT $LN2@IsProtecte
$LN13@IsProtecte:

; 260  : 			return true;

  00042	b0 01		 mov	 al, 1
  00044	eb 35		 jmp	 SHORT $LN7@IsProtecte
$LN2@IsProtecte:

; 261  : 	}
; 262  : 
; 263  : 	if( 0 < m_dwSkillProtectTime && FRAMEGETTIME() < m_dwSkillStartTime + m_dwSkillProtectTime )

  00046	83 be 8c 12 00
	00 00		 cmp	 DWORD PTR [esi+4748], 0
  0004d	76 2a		 jbe	 SHORT $LN1@IsProtecte
  0004f	8d 45 08	 lea	 eax, DWORD PTR _value$535264[ebp]
  00052	50		 push	 eax
  00053	8d 8e 94 0e 00
	00		 lea	 ecx, DWORD PTR [esi+3732]
  00059	e8 00 00 00 00	 call	 ?DecryptValueToPool@?$CEncrypt@K@@QAEXPAK@Z ; CEncrypt<unsigned long>::DecryptValueToPool
  0005e	ff 15 00 00 00
	00		 call	 DWORD PTR __imp_?GetSingleton@ioFrameTimer@@SAAAV1@XZ
  00064	8b c8		 mov	 ecx, eax
  00066	ff 15 00 00 00
	00		 call	 DWORD PTR __imp_?GetLoopSec@ioFrameTimer@@QBEKXZ
  0006c	8b 8e 8c 12 00
	00		 mov	 ecx, DWORD PTR [esi+4748]
  00072	03 4d 08	 add	 ecx, DWORD PTR _value$535264[ebp]
  00075	3b c1		 cmp	 eax, ecx

; 264  : 		return true;

  00077	72 c9		 jb	 SHORT $LN13@IsProtecte
$LN1@IsProtecte:

; 265  : 
; 266  : 	return false;

  00079	32 c0		 xor	 al, al
$LN7@IsProtecte:
  0007b	5e		 pop	 esi

; 267  : }

  0007c	c9		 leave
  0007d	c2 04 00	 ret	 4
?IsProtected@ioBuffCountSkill@@UBE_NH@Z ENDP		; ioBuffCountSkill::IsProtected
_TEXT	ENDS
PUBLIC	??0?$CEncrypt@H@@QAE@ABH@Z			; CEncrypt<int>::CEncrypt<int>
EXTRN	??0ccddaabb@@QAE@XZ:PROC			; ccddaabb::ccddaabb
;	COMDAT xdata$x
; File d:\lost saga for developer\youtube\tutorial\source\src\lsclient\encryptvalue.h
xdata$x	SEGMENT
__unwindtable$??0?$CEncrypt@H@@QAE@ABH@Z DD 0ffffffffH
	DD	FLAT:__unwindfunclet$??0?$CEncrypt@H@@QAE@ABH@Z$0
__ehfuncinfo$??0?$CEncrypt@H@@QAE@ABH@Z DD 019930522H
	DD	01H
	DD	FLAT:__unwindtable$??0?$CEncrypt@H@@QAE@ABH@Z
	DD	2 DUP(00H)
	DD	2 DUP(00H)
	DD	00H
	DD	01H
; Function compile flags: /Ogsp
xdata$x	ENDS
;	COMDAT ??0?$CEncrypt@H@@QAE@ABH@Z
_TEXT	SEGMENT
_this$ = -16						; size = 4
__$EHRec$ = -12						; size = 12
_value$535274 = 8					; size = 4
_inValue$ = 8						; size = 4
??0?$CEncrypt@H@@QAE@ABH@Z PROC				; CEncrypt<int>::CEncrypt<int>, COMDAT
; _this$ = ecx

; 114  : 	CEncrypt( const type &inValue )        //     

  00000	6a 04		 push	 4
  00002	b8 00 00 00 00	 mov	 eax, __ehhandler$??0?$CEncrypt@H@@QAE@ABH@Z
  00007	e8 00 00 00 00	 call	 __EH_prolog3
  0000c	8b f1		 mov	 esi, ecx
  0000e	89 75 f0	 mov	 DWORD PTR _this$[ebp], esi
  00011	8d 4e 0c	 lea	 ecx, DWORD PTR [esi+12]
  00014	c7 06 00 00 00
	00		 mov	 DWORD PTR [esi], OFFSET ??_7?$CEncrypt@H@@6B@
  0001a	e8 00 00 00 00	 call	 ??0ccddaabb@@QAE@XZ	; ccddaabb::ccddaabb
  0001f	83 65 fc 00	 and	 DWORD PTR __$EHRec$[ebp+8], 0

; 115  : 	{
; 116  : 		Init();

  00023	8b ce		 mov	 ecx, esi
  00025	e8 00 00 00 00	 call	 ?Init@?$CEncrypt@H@@AAEXXZ ; CEncrypt<int>::Init

; 117  : 		*this = inValue;

  0002a	8b 45 08	 mov	 eax, DWORD PTR _inValue$[ebp]
  0002d	8b 00		 mov	 eax, DWORD PTR [eax]
  0002f	89 45 08	 mov	 DWORD PTR _value$535274[ebp], eax
  00032	8d 45 08	 lea	 eax, DWORD PTR _value$535274[ebp]
  00035	50		 push	 eax
  00036	8b ce		 mov	 ecx, esi
  00038	e8 00 00 00 00	 call	 ?EncryptValueToPool@?$CEncrypt@H@@AAEXPBD@Z ; CEncrypt<int>::EncryptValueToPool

; 118  : 	}

  0003d	8b c6		 mov	 eax, esi
  0003f	e8 00 00 00 00	 call	 __EH_epilog3
  00044	c2 04 00	 ret	 4
_TEXT	ENDS
;	COMDAT text$x
text$x	SEGMENT
__unwindfunclet$??0?$CEncrypt@H@@QAE@ABH@Z$0:
  00000	8b 4d f0	 mov	 ecx, DWORD PTR _this$[ebp]
  00003	83 c1 0c	 add	 ecx, 12			; 0000000cH
  00006	e9 00 00 00 00	 jmp	 ??1ccddaabb@@UAE@XZ	; ccddaabb::~ccddaabb
__ehhandler$??0?$CEncrypt@H@@QAE@ABH@Z:
  0000b	8b 54 24 08	 mov	 edx, DWORD PTR [esp+8]
  0000f	8d 42 0c	 lea	 eax, DWORD PTR [edx+12]
  00012	8b 4a ec	 mov	 ecx, DWORD PTR [edx-20]
  00015	33 c8		 xor	 ecx, eax
  00017	e8 00 00 00 00	 call	 @__security_check_cookie@4
  0001c	b8 00 00 00 00	 mov	 eax, OFFSET __ehfuncinfo$??0?$CEncrypt@H@@QAE@ABH@Z
  00021	e9 00 00 00 00	 jmp	 ___CxxFrameHandler3
text$x	ENDS
??0?$CEncrypt@H@@QAE@ABH@Z ENDP				; CEncrypt<int>::CEncrypt<int>
PUBLIC	??0?$CEncrypt@H@@QAE@ABV0@@Z			; CEncrypt<int>::CEncrypt<int>
;	COMDAT xdata$x
xdata$x	SEGMENT
__unwindtable$??0?$CEncrypt@H@@QAE@ABV0@@Z DD 0ffffffffH
	DD	FLAT:__unwindfunclet$??0?$CEncrypt@H@@QAE@ABV0@@Z$0
__ehfuncinfo$??0?$CEncrypt@H@@QAE@ABV0@@Z DD 019930522H
	DD	01H
	DD	FLAT:__unwindtable$??0?$CEncrypt@H@@QAE@ABV0@@Z
	DD	2 DUP(00H)
	DD	2 DUP(00H)
	DD	00H
	DD	01H
; Function compile flags: /Ogsp
xdata$x	ENDS
;	COMDAT ??0?$CEncrypt@H@@QAE@ABV0@@Z
_TEXT	SEGMENT
_this$ = -16						; size = 4
__$EHRec$ = -12						; size = 12
_value$535293 = 8					; size = 4
_value$535288 = 8					; size = 4
_inValue$ = 8						; size = 4
??0?$CEncrypt@H@@QAE@ABV0@@Z PROC			; CEncrypt<int>::CEncrypt<int>, COMDAT
; _this$ = ecx

; 120  : 	CEncrypt( const CEncrypt<type> &inValue )   //     

  00000	6a 04		 push	 4
  00002	b8 00 00 00 00	 mov	 eax, __ehhandler$??0?$CEncrypt@H@@QAE@ABV0@@Z
  00007	e8 00 00 00 00	 call	 __EH_prolog3
  0000c	8b f1		 mov	 esi, ecx
  0000e	89 75 f0	 mov	 DWORD PTR _this$[ebp], esi
  00011	8d 4e 0c	 lea	 ecx, DWORD PTR [esi+12]
  00014	c7 06 00 00 00
	00		 mov	 DWORD PTR [esi], OFFSET ??_7?$CEncrypt@H@@6B@
  0001a	e8 00 00 00 00	 call	 ??0ccddaabb@@QAE@XZ	; ccddaabb::ccddaabb
  0001f	83 65 fc 00	 and	 DWORD PTR __$EHRec$[ebp+8], 0

; 121  : 	{
; 122  : 		Init();

  00023	8b ce		 mov	 ecx, esi
  00025	e8 00 00 00 00	 call	 ?Init@?$CEncrypt@H@@AAEXXZ ; CEncrypt<int>::Init

; 123  : 		*this = inValue;

  0002a	8b 4d 08	 mov	 ecx, DWORD PTR _inValue$[ebp]
  0002d	8d 45 08	 lea	 eax, DWORD PTR _value$535288[ebp]
  00030	50		 push	 eax
  00031	e8 00 00 00 00	 call	 ?DecryptValueToPool@?$CEncrypt@H@@QAEXPAH@Z ; CEncrypt<int>::DecryptValueToPool
  00036	8b 45 08	 mov	 eax, DWORD PTR _value$535288[ebp]
  00039	89 45 08	 mov	 DWORD PTR _value$535293[ebp], eax
  0003c	8d 45 08	 lea	 eax, DWORD PTR _value$535293[ebp]
  0003f	50		 push	 eax
  00040	8b ce		 mov	 ecx, esi
  00042	e8 00 00 00 00	 call	 ?EncryptValueToPool@?$CEncrypt@H@@AAEXPBD@Z ; CEncrypt<int>::EncryptValueToPool

; 124  : 	}

  00047	8b c6		 mov	 eax, esi
  00049	e8 00 00 00 00	 call	 __EH_epilog3
  0004e	c2 04 00	 ret	 4
_TEXT	ENDS
;	COMDAT text$x
text$x	SEGMENT
__unwindfunclet$??0?$CEncrypt@H@@QAE@ABV0@@Z$0:
  00000	8b 4d f0	 mov	 ecx, DWORD PTR _this$[ebp]
  00003	83 c1 0c	 add	 ecx, 12			; 0000000cH
  00006	e9 00 00 00 00	 jmp	 ??1ccddaabb@@UAE@XZ	; ccddaabb::~ccddaabb
__ehhandler$??0?$CEncrypt@H@@QAE@ABV0@@Z:
  0000b	8b 54 24 08	 mov	 edx, DWORD PTR [esp+8]
  0000f	8d 42 0c	 lea	 eax, DWORD PTR [edx+12]
  00012	8b 4a ec	 mov	 ecx, DWORD PTR [edx-20]
  00015	33 c8		 xor	 ecx, eax
  00017	e8 00 00 00 00	 call	 @__security_check_cookie@4
  0001c	b8 00 00 00 00	 mov	 eax, OFFSET __ehfuncinfo$??0?$CEncrypt@H@@QAE@ABV0@@Z
  00021	e9 00 00 00 00	 jmp	 ___CxxFrameHandler3
text$x	ENDS
??0?$CEncrypt@H@@QAE@ABV0@@Z ENDP			; CEncrypt<int>::CEncrypt<int>
PUBLIC	??4?$CEncrypt@H@@QAE_NAAV0@@Z			; CEncrypt<int>::operator=
; Function compile flags: /Ogsp
;	COMDAT ??4?$CEncrypt@H@@QAE_NAAV0@@Z
_TEXT	SEGMENT
_value$535306 = -4					; size = 4
_value$ = 8						; size = 4
_inValue$ = 8						; size = 4
??4?$CEncrypt@H@@QAE_NAAV0@@Z PROC			; CEncrypt<int>::operator=, COMDAT
; _this$ = ecx

; 3272 : 	 {

  00000	55		 push	 ebp
  00001	8b ec		 mov	 ebp, esp
  00003	51		 push	 ecx
  00004	56		 push	 esi

; 3273 : 		 type value = inValue;

  00005	8d 45 fc	 lea	 eax, DWORD PTR _value$535306[ebp]
  00008	8b f1		 mov	 esi, ecx
  0000a	8b 4d 08	 mov	 ecx, DWORD PTR _inValue$[ebp]
  0000d	50		 push	 eax
  0000e	e8 00 00 00 00	 call	 ?DecryptValueToPool@?$CEncrypt@H@@QAEXPAH@Z ; CEncrypt<int>::DecryptValueToPool
  00013	8b 45 fc	 mov	 eax, DWORD PTR _value$535306[ebp]
  00016	89 45 08	 mov	 DWORD PTR _value$[ebp], eax

; 3274 : 		 EncryptValueToPool((char*)&value);

  00019	8d 45 08	 lea	 eax, DWORD PTR _value$[ebp]
  0001c	50		 push	 eax
  0001d	8b ce		 mov	 ecx, esi
  0001f	e8 00 00 00 00	 call	 ?EncryptValueToPool@?$CEncrypt@H@@AAEXPBD@Z ; CEncrypt<int>::EncryptValueToPool

; 3275 : #ifdef _NOTUSE
; 3276 : 		 m_value = inValue;
; 3277 : 		 Debug();
; 3278 : #endif
; 3279 : 		 return value;

  00024	83 7d 08 00	 cmp	 DWORD PTR _value$[ebp], 0
  00028	5e		 pop	 esi
  00029	0f 95 c0	 setne	 al

; 3280 : 	 }

  0002c	c9		 leave
  0002d	c2 04 00	 ret	 4
??4?$CEncrypt@H@@QAE_NAAV0@@Z ENDP			; CEncrypt<int>::operator=
_TEXT	ENDS
PUBLIC	??0?$vector@UBuffInfo@ioBuffCountSkill@@V?$allocator@UBuffInfo@ioBuffCountSkill@@@std@@@std@@QAE@XZ ; std::vector<ioBuffCountSkill::BuffInfo,std::allocator<ioBuffCountSkill::BuffInfo> >::vector<ioBuffCountSkill::BuffInfo,std::allocator<ioBuffCountSkill::BuffInfo> >
; Function compile flags: /Ogsp
; File c:\program files (x86)\microsoft visual studio 10.0\vc\include\vector
;	COMDAT ??0?$vector@UBuffInfo@ioBuffCountSkill@@V?$allocator@UBuffInfo@ioBuffCountSkill@@@std@@@std@@QAE@XZ
_TEXT	SEGMENT
??0?$vector@UBuffInfo@ioBuffCountSkill@@V?$allocator@UBuffInfo@ioBuffCountSkill@@@std@@@std@@QAE@XZ PROC ; std::vector<ioBuffCountSkill::BuffInfo,std::allocator<ioBuffCountSkill::BuffInfo> >::vector<ioBuffCountSkill::BuffInfo,std::allocator<ioBuffCountSkill::BuffInfo> >, COMDAT
; _this$ = ecx

; 507  : 		{	// construct empty vector

  00000	8b c1		 mov	 eax, ecx
  00002	33 c9		 xor	 ecx, ecx
  00004	89 08		 mov	 DWORD PTR [eax], ecx
  00006	89 48 04	 mov	 DWORD PTR [eax+4], ecx
  00009	89 48 08	 mov	 DWORD PTR [eax+8], ecx

; 508  : 		}

  0000c	c3		 ret	 0
??0?$vector@UBuffInfo@ioBuffCountSkill@@V?$allocator@UBuffInfo@ioBuffCountSkill@@@std@@@std@@QAE@XZ ENDP ; std::vector<ioBuffCountSkill::BuffInfo,std::allocator<ioBuffCountSkill::BuffInfo> >::vector<ioBuffCountSkill::BuffInfo,std::allocator<ioBuffCountSkill::BuffInfo> >
_TEXT	ENDS
PUBLIC	?begin@?$vector@UBuffInfo@ioBuffCountSkill@@V?$allocator@UBuffInfo@ioBuffCountSkill@@@std@@@std@@QAE?AV?$_Vector_iterator@V?$_Vector_val@UBuffInfo@ioBuffCountSkill@@V?$allocator@UBuffInfo@ioBuffCountSkill@@@std@@@std@@@2@XZ ; std::vector<ioBuffCountSkill::BuffInfo,std::allocator<ioBuffCountSkill::BuffInfo> >::begin
; Function compile flags: /Ogsp
;	COMDAT ?begin@?$vector@UBuffInfo@ioBuffCountSkill@@V?$allocator@UBuffInfo@ioBuffCountSkill@@@std@@@std@@QAE?AV?$_Vector_iterator@V?$_Vector_val@UBuffInfo@ioBuffCountSkill@@V?$allocator@UBuffInfo@ioBuffCountSkill@@@std@@@std@@@2@XZ
_TEXT	SEGMENT
___$ReturnUdt$ = 8					; size = 4
?begin@?$vector@UBuffInfo@ioBuffCountSkill@@V?$allocator@UBuffInfo@ioBuffCountSkill@@@std@@@std@@QAE?AV?$_Vector_iterator@V?$_Vector_val@UBuffInfo@ioBuffCountSkill@@V?$allocator@UBuffInfo@ioBuffCountSkill@@@std@@@std@@@2@XZ PROC ; std::vector<ioBuffCountSkill::BuffInfo,std::allocator<ioBuffCountSkill::BuffInfo> >::begin, COMDAT
; _this$ = ecx

; 781  : 		{	// return iterator for beginning of mutable sequence

  00000	55		 push	 ebp
  00001	8b ec		 mov	 ebp, esp

; 782  : 		return (iterator(this->_Myfirst, this));

  00003	8b 09		 mov	 ecx, DWORD PTR [ecx]
  00005	8b 45 08	 mov	 eax, DWORD PTR ___$ReturnUdt$[ebp]
  00008	89 08		 mov	 DWORD PTR [eax], ecx

; 783  : 		}

  0000a	5d		 pop	 ebp
  0000b	c2 04 00	 ret	 4
?begin@?$vector@UBuffInfo@ioBuffCountSkill@@V?$allocator@UBuffInfo@ioBuffCountSkill@@@std@@@std@@QAE?AV?$_Vector_iterator@V?$_Vector_val@UBuffInfo@ioBuffCountSkill@@V?$allocator@UBuffInfo@ioBuffCountSkill@@@std@@@std@@@2@XZ ENDP ; std::vector<ioBuffCountSkill::BuffInfo,std::allocator<ioBuffCountSkill::BuffInfo> >::begin
_TEXT	ENDS
PUBLIC	?end@?$vector@UBuffInfo@ioBuffCountSkill@@V?$allocator@UBuffInfo@ioBuffCountSkill@@@std@@@std@@QAE?AV?$_Vector_iterator@V?$_Vector_val@UBuffInfo@ioBuffCountSkill@@V?$allocator@UBuffInfo@ioBuffCountSkill@@@std@@@std@@@2@XZ ; std::vector<ioBuffCountSkill::BuffInfo,std::allocator<ioBuffCountSkill::BuffInfo> >::end
; Function compile flags: /Ogsp
;	COMDAT ?end@?$vector@UBuffInfo@ioBuffCountSkill@@V?$allocator@UBuffInfo@ioBuffCountSkill@@@std@@@std@@QAE?AV?$_Vector_iterator@V?$_Vector_val@UBuffInfo@ioBuffCountSkill@@V?$allocator@UBuffInfo@ioBuffCountSkill@@@std@@@std@@@2@XZ
_TEXT	SEGMENT
___$ReturnUdt$ = 8					; size = 4
?end@?$vector@UBuffInfo@ioBuffCountSkill@@V?$allocator@UBuffInfo@ioBuffCountSkill@@@std@@@std@@QAE?AV?$_Vector_iterator@V?$_Vector_val@UBuffInfo@ioBuffCountSkill@@V?$allocator@UBuffInfo@ioBuffCountSkill@@@std@@@std@@@2@XZ PROC ; std::vector<ioBuffCountSkill::BuffInfo,std::allocator<ioBuffCountSkill::BuffInfo> >::end, COMDAT
; _this$ = ecx

; 791  : 		{	// return iterator for end of mutable sequence

  00000	55		 push	 ebp
  00001	8b ec		 mov	 ebp, esp

; 792  : 		return (iterator(this->_Mylast, this));

  00003	8b 49 04	 mov	 ecx, DWORD PTR [ecx+4]
  00006	8b 45 08	 mov	 eax, DWORD PTR ___$ReturnUdt$[ebp]
  00009	89 08		 mov	 DWORD PTR [eax], ecx

; 793  : 		}

  0000b	5d		 pop	 ebp
  0000c	c2 04 00	 ret	 4
?end@?$vector@UBuffInfo@ioBuffCountSkill@@V?$allocator@UBuffInfo@ioBuffCountSkill@@@std@@@std@@QAE?AV?$_Vector_iterator@V?$_Vector_val@UBuffInfo@ioBuffCountSkill@@V?$allocator@UBuffInfo@ioBuffCountSkill@@@std@@@std@@@2@XZ ENDP ; std::vector<ioBuffCountSkill::BuffInfo,std::allocator<ioBuffCountSkill::BuffInfo> >::end
_TEXT	ENDS
PUBLIC	?rbegin@?$vector@UBuffInfo@ioBuffCountSkill@@V?$allocator@UBuffInfo@ioBuffCountSkill@@@std@@@std@@QAE?AV?$reverse_iterator@V?$_Vector_iterator@V?$_Vector_val@UBuffInfo@ioBuffCountSkill@@V?$allocator@UBuffInfo@ioBuffCountSkill@@@std@@@std@@@std@@@2@XZ ; std::vector<ioBuffCountSkill::BuffInfo,std::allocator<ioBuffCountSkill::BuffInfo> >::rbegin
; Function compile flags: /Ogsp
;	COMDAT ?rbegin@?$vector@UBuffInfo@ioBuffCountSkill@@V?$allocator@UBuffInfo@ioBuffCountSkill@@@std@@@std@@QAE?AV?$reverse_iterator@V?$_Vector_iterator@V?$_Vector_val@UBuffInfo@ioBuffCountSkill@@V?$allocator@UBuffInfo@ioBuffCountSkill@@@std@@@std@@@std@@@2@XZ
_TEXT	SEGMENT
___$ReturnUdt$ = 8					; size = 4
?rbegin@?$vector@UBuffInfo@ioBuffCountSkill@@V?$allocator@UBuffInfo@ioBuffCountSkill@@@std@@@std@@QAE?AV?$reverse_iterator@V?$_Vector_iterator@V?$_Vector_val@UBuffInfo@ioBuffCountSkill@@V?$allocator@UBuffInfo@ioBuffCountSkill@@@std@@@std@@@std@@@2@XZ PROC ; std::vector<ioBuffCountSkill::BuffInfo,std::allocator<ioBuffCountSkill::BuffInfo> >::rbegin, COMDAT
; _this$ = ecx

; 806  : 		{	// return iterator for beginning of reversed mutable sequence

  00000	55		 push	 ebp
  00001	8b ec		 mov	 ebp, esp

; 807  : 		return (reverse_iterator(end()));

  00003	8b 49 04	 mov	 ecx, DWORD PTR [ecx+4]
  00006	8b 45 08	 mov	 eax, DWORD PTR ___$ReturnUdt$[ebp]
  00009	89 08		 mov	 DWORD PTR [eax], ecx

; 808  : 		}

  0000b	5d		 pop	 ebp
  0000c	c2 04 00	 ret	 4
?rbegin@?$vector@UBuffInfo@ioBuffCountSkill@@V?$allocator@UBuffInfo@ioBuffCountSkill@@@std@@@std@@QAE?AV?$reverse_iterator@V?$_Vector_iterator@V?$_Vector_val@UBuffInfo@ioBuffCountSkill@@V?$allocator@UBuffInfo@ioBuffCountSkill@@@std@@@std@@@std@@@2@XZ ENDP ; std::vector<ioBuffCountSkill::BuffInfo,std::allocator<ioBuffCountSkill::BuffInfo> >::rbegin
_TEXT	ENDS
PUBLIC	?rend@?$vector@UBuffInfo@ioBuffCountSkill@@V?$allocator@UBuffInfo@ioBuffCountSkill@@@std@@@std@@QAE?AV?$reverse_iterator@V?$_Vector_iterator@V?$_Vector_val@UBuffInfo@ioBuffCountSkill@@V?$allocator@UBuffInfo@ioBuffCountSkill@@@std@@@std@@@std@@@2@XZ ; std::vector<ioBuffCountSkill::BuffInfo,std::allocator<ioBuffCountSkill::BuffInfo> >::rend
; Function compile flags: /Ogsp
;	COMDAT ?rend@?$vector@UBuffInfo@ioBuffCountSkill@@V?$allocator@UBuffInfo@ioBuffCountSkill@@@std@@@std@@QAE?AV?$reverse_iterator@V?$_Vector_iterator@V?$_Vector_val@UBuffInfo@ioBuffCountSkill@@V?$allocator@UBuffInfo@ioBuffCountSkill@@@std@@@std@@@std@@@2@XZ
_TEXT	SEGMENT
___$ReturnUdt$ = 8					; size = 4
?rend@?$vector@UBuffInfo@ioBuffCountSkill@@V?$allocator@UBuffInfo@ioBuffCountSkill@@@std@@@std@@QAE?AV?$reverse_iterator@V?$_Vector_iterator@V?$_Vector_val@UBuffInfo@ioBuffCountSkill@@V?$allocator@UBuffInfo@ioBuffCountSkill@@@std@@@std@@@std@@@2@XZ PROC ; std::vector<ioBuffCountSkill::BuffInfo,std::allocator<ioBuffCountSkill::BuffInfo> >::rend, COMDAT
; _this$ = ecx

; 816  : 		{	// return iterator for end of reversed mutable sequence

  00000	55		 push	 ebp
  00001	8b ec		 mov	 ebp, esp

; 817  : 		return (reverse_iterator(begin()));

  00003	8b 09		 mov	 ecx, DWORD PTR [ecx]
  00005	8b 45 08	 mov	 eax, DWORD PTR ___$ReturnUdt$[ebp]
  00008	89 08		 mov	 DWORD PTR [eax], ecx

; 818  : 		}

  0000a	5d		 pop	 ebp
  0000b	c2 04 00	 ret	 4
?rend@?$vector@UBuffInfo@ioBuffCountSkill@@V?$allocator@UBuffInfo@ioBuffCountSkill@@@std@@@std@@QAE?AV?$reverse_iterator@V?$_Vector_iterator@V?$_Vector_val@UBuffInfo@ioBuffCountSkill@@V?$allocator@UBuffInfo@ioBuffCountSkill@@@std@@@std@@@std@@@2@XZ ENDP ; std::vector<ioBuffCountSkill::BuffInfo,std::allocator<ioBuffCountSkill::BuffInfo> >::rend
_TEXT	ENDS
PUBLIC	??E?$reverse_iterator@V?$_Vector_iterator@V?$_Vector_val@UBuffInfo@ioBuffCountSkill@@V?$allocator@UBuffInfo@ioBuffCountSkill@@@std@@@std@@@std@@@std@@QAEAAV01@XZ ; std::reverse_iterator<std::_Vector_iterator<std::_Vector_val<ioBuffCountSkill::BuffInfo,std::allocator<ioBuffCountSkill::BuffInfo> > > >::operator++
; Function compile flags: /Ogsp
; File c:\program files (x86)\microsoft visual studio 10.0\vc\include\xutility
;	COMDAT ??E?$reverse_iterator@V?$_Vector_iterator@V?$_Vector_val@UBuffInfo@ioBuffCountSkill@@V?$allocator@UBuffInfo@ioBuffCountSkill@@@std@@@std@@@std@@@std@@QAEAAV01@XZ
_TEXT	SEGMENT
??E?$reverse_iterator@V?$_Vector_iterator@V?$_Vector_val@UBuffInfo@ioBuffCountSkill@@V?$allocator@UBuffInfo@ioBuffCountSkill@@@std@@@std@@@std@@@std@@QAEAAV01@XZ PROC ; std::reverse_iterator<std::_Vector_iterator<std::_Vector_val<ioBuffCountSkill::BuffInfo,std::allocator<ioBuffCountSkill::BuffInfo> > > >::operator++, COMDAT
; _this$ = ecx

; 1264 : 		{	// preincrement

  00000	8b c1		 mov	 eax, ecx

; 1265 : 		++*((_Mybase *)this);

  00002	83 00 ec	 add	 DWORD PTR [eax], -20	; ffffffecH

; 1266 : 		return (*this);
; 1267 : 		}

  00005	c3		 ret	 0
??E?$reverse_iterator@V?$_Vector_iterator@V?$_Vector_val@UBuffInfo@ioBuffCountSkill@@V?$allocator@UBuffInfo@ioBuffCountSkill@@@std@@@std@@@std@@@std@@QAEAAV01@XZ ENDP ; std::reverse_iterator<std::_Vector_iterator<std::_Vector_val<ioBuffCountSkill::BuffInfo,std::allocator<ioBuffCountSkill::BuffInfo> > > >::operator++
_TEXT	ENDS
PUBLIC	??D?$_Revranit@V?$_Vector_iterator@V?$_Vector_val@UBuffInfo@ioBuffCountSkill@@V?$allocator@UBuffInfo@ioBuffCountSkill@@@std@@@std@@@std@@U?$iterator@Urandom_access_iterator_tag@std@@UBuffInfo@ioBuffCountSkill@@HPAU34@AAU34@@2@@std@@QBEAAUBuffInfo@ioBuffCountSkill@@XZ ; std::_Revranit<std::_Vector_iterator<std::_Vector_val<ioBuffCountSkill::BuffInfo,std::allocator<ioBuffCountSkill::BuffInfo> > >,std::iterator<std::random_access_iterator_tag,ioBuffCountSkill::BuffInfo,int,ioBuffCountSkill::BuffInfo *,ioBuffCountSkill::BuffInfo &> >::operator*
; Function compile flags: /Ogsp
;	COMDAT ??D?$_Revranit@V?$_Vector_iterator@V?$_Vector_val@UBuffInfo@ioBuffCountSkill@@V?$allocator@UBuffInfo@ioBuffCountSkill@@@std@@@std@@@std@@U?$iterator@Urandom_access_iterator_tag@std@@UBuffInfo@ioBuffCountSkill@@HPAU34@AAU34@@2@@std@@QBEAAUBuffInfo@ioBuffCountSkill@@XZ
_TEXT	SEGMENT
??D?$_Revranit@V?$_Vector_iterator@V?$_Vector_val@UBuffInfo@ioBuffCountSkill@@V?$allocator@UBuffInfo@ioBuffCountSkill@@@std@@@std@@@std@@U?$iterator@Urandom_access_iterator_tag@std@@UBuffInfo@ioBuffCountSkill@@HPAU34@AAU34@@2@@std@@QBEAAUBuffInfo@ioBuffCountSkill@@XZ PROC ; std::_Revranit<std::_Vector_iterator<std::_Vector_val<ioBuffCountSkill::BuffInfo,std::allocator<ioBuffCountSkill::BuffInfo> > >,std::iterator<std::random_access_iterator_tag,ioBuffCountSkill::BuffInfo,int,ioBuffCountSkill::BuffInfo *,ioBuffCountSkill::BuffInfo &> >::operator*, COMDAT
; _this$ = ecx

; 1044 : 		_RanIt _Tmp = current;
; 1045 : 		return (*--_Tmp);

  00000	8b 01		 mov	 eax, DWORD PTR [ecx]
  00002	83 e8 14	 sub	 eax, 20			; 00000014H

; 1046 : 		}

  00005	c3		 ret	 0
??D?$_Revranit@V?$_Vector_iterator@V?$_Vector_val@UBuffInfo@ioBuffCountSkill@@V?$allocator@UBuffInfo@ioBuffCountSkill@@@std@@@std@@@std@@U?$iterator@Urandom_access_iterator_tag@std@@UBuffInfo@ioBuffCountSkill@@HPAU34@AAU34@@2@@std@@QBEAAUBuffInfo@ioBuffCountSkill@@XZ ENDP ; std::_Revranit<std::_Vector_iterator<std::_Vector_val<ioBuffCountSkill::BuffInfo,std::allocator<ioBuffCountSkill::BuffInfo> > >,std::iterator<std::random_access_iterator_tag,ioBuffCountSkill::BuffInfo,int,ioBuffCountSkill::BuffInfo *,ioBuffCountSkill::BuffInfo &> >::operator*
_TEXT	ENDS
PUBLIC	?_Buy@?$vector@UBuffInfo@ioBuffCountSkill@@V?$allocator@UBuffInfo@ioBuffCountSkill@@@std@@@std@@IAE_NI@Z ; std::vector<ioBuffCountSkill::BuffInfo,std::allocator<ioBuffCountSkill::BuffInfo> >::_Buy
; Function compile flags: /Ogsp
; File c:\program files (x86)\microsoft visual studio 10.0\vc\include\vector
;	COMDAT ?_Buy@?$vector@UBuffInfo@ioBuffCountSkill@@V?$allocator@UBuffInfo@ioBuffCountSkill@@@std@@@std@@IAE_NI@Z
_TEXT	SEGMENT
__Capacity$ = 8						; size = 4
?_Buy@?$vector@UBuffInfo@ioBuffCountSkill@@V?$allocator@UBuffInfo@ioBuffCountSkill@@@std@@@std@@IAE_NI@Z PROC ; std::vector<ioBuffCountSkill::BuffInfo,std::allocator<ioBuffCountSkill::BuffInfo> >::_Buy, COMDAT
; _this$ = ecx

; 1250 : 		{	// allocate array with _Capacity elements

  00000	55		 push	 ebp
  00001	8b ec		 mov	 ebp, esp
  00003	56		 push	 esi

; 1251 : 		this->_Myfirst = 0;

  00004	33 c0		 xor	 eax, eax
  00006	57		 push	 edi

; 1252 : 		this->_Mylast = 0;
; 1253 : 		this->_Myend = 0;
; 1254 : 
; 1255 : 		if (_Capacity == 0)

  00007	8b 7d 08	 mov	 edi, DWORD PTR __Capacity$[ebp]
  0000a	8b f1		 mov	 esi, ecx
  0000c	89 06		 mov	 DWORD PTR [esi], eax
  0000e	89 46 04	 mov	 DWORD PTR [esi+4], eax
  00011	89 46 08	 mov	 DWORD PTR [esi+8], eax
  00014	3b f8		 cmp	 edi, eax
  00016	75 04		 jne	 SHORT $LN4@Buy

; 1256 : 			return (false);

  00018	32 c0		 xor	 al, al
  0001a	eb 2b		 jmp	 SHORT $LN5@Buy
$LN4@Buy:

; 1257 : 		else if (max_size() < _Capacity)

  0001c	81 ff cc cc cc
	0c		 cmp	 edi, 214748364		; 0cccccccH
  00022	76 0b		 jbe	 SHORT $LN2@Buy

; 1258 : 			_Xlen();	// result too long

  00024	68 00 00 00 00	 push	 OFFSET ??_C@_0BD@OLBABOEK@vector?$DMT?$DO?5too?5long?$AA@
  00029	ff 15 00 00 00
	00		 call	 DWORD PTR __imp_?_Xlength_error@std@@YAXPBD@Z
$LN19@Buy:
$LN2@Buy:

; 1259 : 		else
; 1260 : 			{	// nonempty array, allocate storage
; 1261 : 			this->_Myfirst = this->_Alval.allocate(_Capacity);

  0002f	50		 push	 eax
  00030	57		 push	 edi
  00031	e8 00 00 00 00	 call	 ??$_Allocate@UBuffInfo@ioBuffCountSkill@@@std@@YAPAUBuffInfo@ioBuffCountSkill@@IPAU12@@Z ; std::_Allocate<ioBuffCountSkill::BuffInfo>

; 1262 : 			this->_Mylast = this->_Myfirst;
; 1263 : 			this->_Myend = this->_Myfirst + _Capacity;

  00036	6b ff 14	 imul	 edi, 20			; 00000014H
  00039	03 f8		 add	 edi, eax
  0003b	59		 pop	 ecx
  0003c	89 06		 mov	 DWORD PTR [esi], eax
  0003e	89 46 04	 mov	 DWORD PTR [esi+4], eax
  00041	59		 pop	 ecx
  00042	89 7e 08	 mov	 DWORD PTR [esi+8], edi

; 1264 : 			}
; 1265 : 		return (true);

  00045	b0 01		 mov	 al, 1
$LN5@Buy:
  00047	5f		 pop	 edi
  00048	5e		 pop	 esi

; 1266 : 		}

  00049	5d		 pop	 ebp
  0004a	c2 04 00	 ret	 4
$LN18@Buy:
?_Buy@?$vector@UBuffInfo@ioBuffCountSkill@@V?$allocator@UBuffInfo@ioBuffCountSkill@@@std@@@std@@IAE_NI@Z ENDP ; std::vector<ioBuffCountSkill::BuffInfo,std::allocator<ioBuffCountSkill::BuffInfo> >::_Buy
_TEXT	ENDS
PUBLIC	?_Grow_to@?$vector@VioHashString@@V?$allocator@VioHashString@@@std@@@std@@IBEII@Z ; std::vector<ioHashString,std::allocator<ioHashString> >::_Grow_to
; Function compile flags: /Ogsp
;	COMDAT ?_Grow_to@?$vector@VioHashString@@V?$allocator@VioHashString@@@std@@@std@@IBEII@Z
_TEXT	SEGMENT
__Count$ = 8						; size = 4
?_Grow_to@?$vector@VioHashString@@V?$allocator@VioHashString@@@std@@@std@@IBEII@Z PROC ; std::vector<ioHashString,std::allocator<ioHashString> >::_Grow_to, COMDAT
; _this$ = ecx

; 1274 : 		{	// grow by 50% or at least to _Count

  00000	55		 push	 ebp
  00001	8b ec		 mov	 ebp, esp

; 1275 : 		size_type _Capacity = capacity();

  00003	8b 41 08	 mov	 eax, DWORD PTR [ecx+8]
  00006	2b 01		 sub	 eax, DWORD PTR [ecx]

; 1276 : 
; 1277 : 		_Capacity = max_size() - _Capacity / 2 < _Capacity
; 1278 : 			? 0 : _Capacity + _Capacity / 2;	// try to grow by 50%

  00008	ba ff ff ff 0f	 mov	 edx, 268435455		; 0fffffffH
  0000d	c1 f8 04	 sar	 eax, 4
  00010	8b c8		 mov	 ecx, eax
  00012	d1 e9		 shr	 ecx, 1
  00014	2b d1		 sub	 edx, ecx
  00016	3b d0		 cmp	 edx, eax
  00018	73 04		 jae	 SHORT $LN4@Grow_to@2
  0001a	33 c0		 xor	 eax, eax
  0001c	eb 02		 jmp	 SHORT $LN5@Grow_to@2
$LN4@Grow_to@2:
  0001e	03 c1		 add	 eax, ecx
$LN5@Grow_to@2:

; 1279 : 		if (_Capacity < _Count)

  00020	3b 45 08	 cmp	 eax, DWORD PTR __Count$[ebp]

; 1280 : 			_Capacity = _Count;

  00023	0f 42 45 08	 cmovb	 eax, DWORD PTR __Count$[ebp]

; 1281 : 		return (_Capacity);
; 1282 : 		}

  00027	5d		 pop	 ebp
  00028	c2 04 00	 ret	 4
?_Grow_to@?$vector@VioHashString@@V?$allocator@VioHashString@@@std@@@std@@IBEII@Z ENDP ; std::vector<ioHashString,std::allocator<ioHashString> >::_Grow_to
_TEXT	ENDS
PUBLIC	??$_Cons_val@V?$allocator@VioHashString@@@std@@VioHashString@@AAV3@@std@@YAXAAV?$allocator@VioHashString@@@0@PAVioHashString@@AAV2@@Z ; std::_Cons_val<std::allocator<ioHashString>,ioHashString,ioHashString &>
; Function compile flags: /Ogsp
; File c:\program files (x86)\microsoft visual studio 10.0\vc\include\xmemory
;	COMDAT ??$_Cons_val@V?$allocator@VioHashString@@@std@@VioHashString@@AAV3@@std@@YAXAAV?$allocator@VioHashString@@@0@PAVioHashString@@AAV2@@Z
_TEXT	SEGMENT
__Alval$ = 8						; size = 4
__Pdest$ = 12						; size = 4
__Src$ = 16						; size = 4
??$_Cons_val@V?$allocator@VioHashString@@@std@@VioHashString@@AAV3@@std@@YAXAAV?$allocator@VioHashString@@@0@PAVioHashString@@AAV2@@Z PROC ; std::_Cons_val<std::allocator<ioHashString>,ioHashString,ioHashString &>, COMDAT

; 279  : 	{	// construct using allocator

  00000	55		 push	 ebp
  00001	8b ec		 mov	 ebp, esp

; 280  : 	_Alval.construct(_Pdest, _STD forward<_Ty2>(_Src));

  00003	ff 75 10	 push	 DWORD PTR __Src$[ebp]
  00006	8b 4d 08	 mov	 ecx, DWORD PTR __Alval$[ebp]
  00009	ff 75 0c	 push	 DWORD PTR __Pdest$[ebp]
  0000c	e8 00 00 00 00	 call	 ??$construct@AAVioHashString@@@?$allocator@VioHashString@@@std@@QAEXPAVioHashString@@AAV2@@Z ; std::allocator<ioHashString>::construct<ioHashString &>

; 281  : 	}

  00011	5d		 pop	 ebp
  00012	c3		 ret	 0
??$_Cons_val@V?$allocator@VioHashString@@@std@@VioHashString@@AAV3@@std@@YAXAAV?$allocator@VioHashString@@@0@PAVioHashString@@AAV2@@Z ENDP ; std::_Cons_val<std::allocator<ioHashString>,ioHashString,ioHashString &>
_TEXT	ENDS
PUBLIC	??G?$_Vector_iterator@V?$_Vector_val@UBuffInfo@ioBuffCountSkill@@V?$allocator@UBuffInfo@ioBuffCountSkill@@@std@@@std@@@std@@QBEHABV?$_Vector_const_iterator@V?$_Vector_val@UBuffInfo@ioBuffCountSkill@@V?$allocator@UBuffInfo@ioBuffCountSkill@@@std@@@std@@@1@@Z ; std::_Vector_iterator<std::_Vector_val<ioBuffCountSkill::BuffInfo,std::allocator<ioBuffCountSkill::BuffInfo> > >::operator-
; Function compile flags: /Ogsp
; File c:\program files (x86)\microsoft visual studio 10.0\vc\include\vector
;	COMDAT ??G?$_Vector_iterator@V?$_Vector_val@UBuffInfo@ioBuffCountSkill@@V?$allocator@UBuffInfo@ioBuffCountSkill@@@std@@@std@@@std@@QBEHABV?$_Vector_const_iterator@V?$_Vector_val@UBuffInfo@ioBuffCountSkill@@V?$allocator@UBuffInfo@ioBuffCountSkill@@@std@@@std@@@1@@Z
_TEXT	SEGMENT
__Right$ = 8						; size = 4
??G?$_Vector_iterator@V?$_Vector_val@UBuffInfo@ioBuffCountSkill@@V?$allocator@UBuffInfo@ioBuffCountSkill@@@std@@@std@@@std@@QBEHABV?$_Vector_const_iterator@V?$_Vector_val@UBuffInfo@ioBuffCountSkill@@V?$allocator@UBuffInfo@ioBuffCountSkill@@@std@@@std@@@1@@Z PROC ; std::_Vector_iterator<std::_Vector_val<ioBuffCountSkill::BuffInfo,std::allocator<ioBuffCountSkill::BuffInfo> > >::operator-, COMDAT
; _this$ = ecx

; 380  : 		{	// return difference of iterators

  00000	55		 push	 ebp
  00001	8b ec		 mov	 ebp, esp

; 381  : 		return (*(_Mybase *)this - _Right);

  00003	8b 01		 mov	 eax, DWORD PTR [ecx]
  00005	8b 4d 08	 mov	 ecx, DWORD PTR __Right$[ebp]
  00008	2b 01		 sub	 eax, DWORD PTR [ecx]
  0000a	6a 14		 push	 20			; 00000014H
  0000c	99		 cdq
  0000d	59		 pop	 ecx
  0000e	f7 f9		 idiv	 ecx

; 382  : 		}

  00010	5d		 pop	 ebp
  00011	c2 04 00	 ret	 4
??G?$_Vector_iterator@V?$_Vector_val@UBuffInfo@ioBuffCountSkill@@V?$allocator@UBuffInfo@ioBuffCountSkill@@@std@@@std@@@std@@QBEHABV?$_Vector_const_iterator@V?$_Vector_val@UBuffInfo@ioBuffCountSkill@@V?$allocator@UBuffInfo@ioBuffCountSkill@@@std@@@std@@@1@@Z ENDP ; std::_Vector_iterator<std::_Vector_val<ioBuffCountSkill::BuffInfo,std::allocator<ioBuffCountSkill::BuffInfo> > >::operator-
_TEXT	ENDS
PUBLIC	??$?8V?$_Vector_iterator@V?$_Vector_val@UBuffInfo@ioBuffCountSkill@@V?$allocator@UBuffInfo@ioBuffCountSkill@@@std@@@std@@@std@@V01@@std@@YA_NABV?$reverse_iterator@V?$_Vector_iterator@V?$_Vector_val@UBuffInfo@ioBuffCountSkill@@V?$allocator@UBuffInfo@ioBuffCountSkill@@@std@@@std@@@std@@@0@0@Z ; std::operator==<std::_Vector_iterator<std::_Vector_val<ioBuffCountSkill::BuffInfo,std::allocator<ioBuffCountSkill::BuffInfo> > >,std::_Vector_iterator<std::_Vector_val<ioBuffCountSkill::BuffInfo,std::allocator<ioBuffCountSkill::BuffInfo> > > >
; Function compile flags: /Ogsp
; File c:\program files (x86)\microsoft visual studio 10.0\vc\include\xutility
;	COMDAT ??$?8V?$_Vector_iterator@V?$_Vector_val@UBuffInfo@ioBuffCountSkill@@V?$allocator@UBuffInfo@ioBuffCountSkill@@@std@@@std@@@std@@V01@@std@@YA_NABV?$reverse_iterator@V?$_Vector_iterator@V?$_Vector_val@UBuffInfo@ioBuffCountSkill@@V?$allocator@UBuffInfo@ioBuffCountSkill@@@std@@@std@@@std@@@0@0@Z
_TEXT	SEGMENT
__Left$ = 8						; size = 4
__Right$ = 12						; size = 4
??$?8V?$_Vector_iterator@V?$_Vector_val@UBuffInfo@ioBuffCountSkill@@V?$allocator@UBuffInfo@ioBuffCountSkill@@@std@@@std@@@std@@V01@@std@@YA_NABV?$reverse_iterator@V?$_Vector_iterator@V?$_Vector_val@UBuffInfo@ioBuffCountSkill@@V?$allocator@UBuffInfo@ioBuffCountSkill@@@std@@@std@@@std@@@0@0@Z PROC ; std::operator==<std::_Vector_iterator<std::_Vector_val<ioBuffCountSkill::BuffInfo,std::allocator<ioBuffCountSkill::BuffInfo> > >,std::_Vector_iterator<std::_Vector_val<ioBuffCountSkill::BuffInfo,std::allocator<ioBuffCountSkill::BuffInfo> > > >, COMDAT

; 1342 : 	{	// test for reverse_iterator equality

  00000	55		 push	 ebp
  00001	8b ec		 mov	 ebp, esp

; 1343 : 	return (_Left._Equal(_Right));

  00003	8b 45 0c	 mov	 eax, DWORD PTR __Right$[ebp]
  00006	8b 00		 mov	 eax, DWORD PTR [eax]
  00008	8b 55 08	 mov	 edx, DWORD PTR __Left$[ebp]
  0000b	33 c9		 xor	 ecx, ecx
  0000d	39 02		 cmp	 DWORD PTR [edx], eax
  0000f	0f 94 c0	 sete	 al

; 1344 : 	}

  00012	5d		 pop	 ebp
  00013	c3		 ret	 0
??$?8V?$_Vector_iterator@V?$_Vector_val@UBuffInfo@ioBuffCountSkill@@V?$allocator@UBuffInfo@ioBuffCountSkill@@@std@@@std@@@std@@V01@@std@@YA_NABV?$reverse_iterator@V?$_Vector_iterator@V?$_Vector_val@UBuffInfo@ioBuffCountSkill@@V?$allocator@UBuffInfo@ioBuffCountSkill@@@std@@@std@@@std@@@0@0@Z ENDP ; std::operator==<std::_Vector_iterator<std::_Vector_val<ioBuffCountSkill::BuffInfo,std::allocator<ioBuffCountSkill::BuffInfo> > >,std::_Vector_iterator<std::_Vector_val<ioBuffCountSkill::BuffInfo,std::allocator<ioBuffCountSkill::BuffInfo> > > >
_TEXT	ENDS
PUBLIC	??$_Cons_val@V?$allocator@VioHashString@@@std@@VioHashString@@V3@@std@@YAXAAV?$allocator@VioHashString@@@0@PAVioHashString@@$$QAV2@@Z ; std::_Cons_val<std::allocator<ioHashString>,ioHashString,ioHashString>
; Function compile flags: /Ogsp
; File c:\program files (x86)\microsoft visual studio 10.0\vc\include\xmemory
;	COMDAT ??$_Cons_val@V?$allocator@VioHashString@@@std@@VioHashString@@V3@@std@@YAXAAV?$allocator@VioHashString@@@0@PAVioHashString@@$$QAV2@@Z
_TEXT	SEGMENT
__Alval$ = 8						; size = 4
__Pdest$ = 12						; size = 4
__Src$ = 16						; size = 4
??$_Cons_val@V?$allocator@VioHashString@@@std@@VioHashString@@V3@@std@@YAXAAV?$allocator@VioHashString@@@0@PAVioHashString@@$$QAV2@@Z PROC ; std::_Cons_val<std::allocator<ioHashString>,ioHashString,ioHashString>, COMDAT

; 279  : 	{	// construct using allocator

  00000	55		 push	 ebp
  00001	8b ec		 mov	 ebp, esp

; 280  : 	_Alval.construct(_Pdest, _STD forward<_Ty2>(_Src));

  00003	ff 75 10	 push	 DWORD PTR __Src$[ebp]
  00006	8b 4d 08	 mov	 ecx, DWORD PTR __Alval$[ebp]
  00009	ff 75 0c	 push	 DWORD PTR __Pdest$[ebp]
  0000c	e8 00 00 00 00	 call	 ?construct@?$allocator@VioHashString@@@std@@QAEXPAVioHashString@@$$QAV3@@Z ; std::allocator<ioHashString>::construct

; 281  : 	}

  00011	5d		 pop	 ebp
  00012	c3		 ret	 0
??$_Cons_val@V?$allocator@VioHashString@@@std@@VioHashString@@V3@@std@@YAXAAV?$allocator@VioHashString@@@0@PAVioHashString@@$$QAV2@@Z ENDP ; std::_Cons_val<std::allocator<ioHashString>,ioHashString,ioHashString>
_TEXT	ENDS
PUBLIC	??0?$vector@VioHashString@@V?$allocator@VioHashString@@@std@@@std@@QAE@XZ ; std::vector<ioHashString,std::allocator<ioHashString> >::vector<ioHashString,std::allocator<ioHashString> >
; Function compile flags: /Ogsp
; File c:\program files (x86)\microsoft visual studio 10.0\vc\include\vector
;	COMDAT ??0?$vector@VioHashString@@V?$allocator@VioHashString@@@std@@@std@@QAE@XZ
_TEXT	SEGMENT
??0?$vector@VioHashString@@V?$allocator@VioHashString@@@std@@@std@@QAE@XZ PROC ; std::vector<ioHashString,std::allocator<ioHashString> >::vector<ioHashString,std::allocator<ioHashString> >, COMDAT
; _this$ = ecx

; 507  : 		{	// construct empty vector

  00000	8b c1		 mov	 eax, ecx
  00002	33 c9		 xor	 ecx, ecx
  00004	89 08		 mov	 DWORD PTR [eax], ecx
  00006	89 48 04	 mov	 DWORD PTR [eax+4], ecx
  00009	89 48 08	 mov	 DWORD PTR [eax+8], ecx

; 508  : 		}

  0000c	c3		 ret	 0
??0?$vector@VioHashString@@V?$allocator@VioHashString@@@std@@@std@@QAE@XZ ENDP ; std::vector<ioHashString,std::allocator<ioHashString> >::vector<ioHashString,std::allocator<ioHashString> >
_TEXT	ENDS
PUBLIC	?_Buy@?$vector@VioHashString@@V?$allocator@VioHashString@@@std@@@std@@IAE_NI@Z ; std::vector<ioHashString,std::allocator<ioHashString> >::_Buy
; Function compile flags: /Ogsp
;	COMDAT ?_Buy@?$vector@VioHashString@@V?$allocator@VioHashString@@@std@@@std@@IAE_NI@Z
_TEXT	SEGMENT
__Capacity$ = 8						; size = 4
?_Buy@?$vector@VioHashString@@V?$allocator@VioHashString@@@std@@@std@@IAE_NI@Z PROC ; std::vector<ioHashString,std::allocator<ioHashString> >::_Buy, COMDAT
; _this$ = ecx

; 1250 : 		{	// allocate array with _Capacity elements

  00000	55		 push	 ebp
  00001	8b ec		 mov	 ebp, esp
  00003	56		 push	 esi

; 1251 : 		this->_Myfirst = 0;

  00004	33 c0		 xor	 eax, eax
  00006	57		 push	 edi

; 1252 : 		this->_Mylast = 0;
; 1253 : 		this->_Myend = 0;
; 1254 : 
; 1255 : 		if (_Capacity == 0)

  00007	8b 7d 08	 mov	 edi, DWORD PTR __Capacity$[ebp]
  0000a	8b f1		 mov	 esi, ecx
  0000c	89 06		 mov	 DWORD PTR [esi], eax
  0000e	89 46 04	 mov	 DWORD PTR [esi+4], eax
  00011	89 46 08	 mov	 DWORD PTR [esi+8], eax
  00014	3b f8		 cmp	 edi, eax
  00016	75 04		 jne	 SHORT $LN4@Buy@2

; 1256 : 			return (false);

  00018	32 c0		 xor	 al, al
  0001a	eb 2b		 jmp	 SHORT $LN5@Buy@2
$LN4@Buy@2:

; 1257 : 		else if (max_size() < _Capacity)

  0001c	81 ff ff ff ff
	0f		 cmp	 edi, 268435455		; 0fffffffH
  00022	76 0b		 jbe	 SHORT $LN2@Buy@2

; 1258 : 			_Xlen();	// result too long

  00024	68 00 00 00 00	 push	 OFFSET ??_C@_0BD@OLBABOEK@vector?$DMT?$DO?5too?5long?$AA@
  00029	ff 15 00 00 00
	00		 call	 DWORD PTR __imp_?_Xlength_error@std@@YAXPBD@Z
$LN19@Buy@2:
$LN2@Buy@2:

; 1259 : 		else
; 1260 : 			{	// nonempty array, allocate storage
; 1261 : 			this->_Myfirst = this->_Alval.allocate(_Capacity);

  0002f	50		 push	 eax
  00030	57		 push	 edi
  00031	e8 00 00 00 00	 call	 ??$_Allocate@VioHashString@@@std@@YAPAVioHashString@@IPAV1@@Z ; std::_Allocate<ioHashString>

; 1262 : 			this->_Mylast = this->_Myfirst;
; 1263 : 			this->_Myend = this->_Myfirst + _Capacity;

  00036	c1 e7 04	 shl	 edi, 4
  00039	03 f8		 add	 edi, eax
  0003b	59		 pop	 ecx
  0003c	89 06		 mov	 DWORD PTR [esi], eax
  0003e	89 46 04	 mov	 DWORD PTR [esi+4], eax
  00041	59		 pop	 ecx
  00042	89 7e 08	 mov	 DWORD PTR [esi+8], edi

; 1264 : 			}
; 1265 : 		return (true);

  00045	b0 01		 mov	 al, 1
$LN5@Buy@2:
  00047	5f		 pop	 edi
  00048	5e		 pop	 esi

; 1266 : 		}

  00049	5d		 pop	 ebp
  0004a	c2 04 00	 ret	 4
$LN18@Buy@2:
?_Buy@?$vector@VioHashString@@V?$allocator@VioHashString@@@std@@@std@@IAE_NI@Z ENDP ; std::vector<ioHashString,std::allocator<ioHashString> >::_Buy
_TEXT	ENDS
PUBLIC	??9?$_Vector_const_iterator@V?$_Vector_val@VioHashString@@V?$allocator@VioHashString@@@std@@@std@@@std@@QBE_NABV01@@Z ; std::_Vector_const_iterator<std::_Vector_val<ioHashString,std::allocator<ioHashString> > >::operator!=
; Function compile flags: /Ogsp
;	COMDAT ??9?$_Vector_const_iterator@V?$_Vector_val@VioHashString@@V?$allocator@VioHashString@@@std@@@std@@@std@@QBE_NABV01@@Z
_TEXT	SEGMENT
__Right$ = 8						; size = 4
??9?$_Vector_const_iterator@V?$_Vector_val@VioHashString@@V?$allocator@VioHashString@@@std@@@std@@@std@@QBE_NABV01@@Z PROC ; std::_Vector_const_iterator<std::_Vector_val<ioHashString,std::allocator<ioHashString> > >::operator!=, COMDAT
; _this$ = ecx

; 207  : 		{	// test for iterator inequality

  00000	55		 push	 ebp
  00001	8b ec		 mov	 ebp, esp

; 208  : 		return (!(*this == _Right));

  00003	8b 01		 mov	 eax, DWORD PTR [ecx]
  00005	8b 55 08	 mov	 edx, DWORD PTR __Right$[ebp]
  00008	33 c9		 xor	 ecx, ecx
  0000a	3b 02		 cmp	 eax, DWORD PTR [edx]
  0000c	0f 95 c0	 setne	 al

; 209  : 		}

  0000f	5d		 pop	 ebp
  00010	c2 04 00	 ret	 4
??9?$_Vector_const_iterator@V?$_Vector_val@VioHashString@@V?$allocator@VioHashString@@@std@@@std@@@std@@QBE_NABV01@@Z ENDP ; std::_Vector_const_iterator<std::_Vector_val<ioHashString,std::allocator<ioHashString> > >::operator!=
_TEXT	ENDS
PUBLIC	??$_Move@PAVioHashString@@PAV1@@std@@YAPAVioHashString@@PAV1@00@Z ; std::_Move<ioHashString *,ioHashString *>
; Function compile flags: /Ogsp
; File c:\program files (x86)\microsoft visual studio 10.0\vc\include\xutility
;	COMDAT ??$_Move@PAVioHashString@@PAV1@@std@@YAPAVioHashString@@PAV1@00@Z
_TEXT	SEGMENT
__Cat$535625 = -4					; size = 1
__First$ = 8						; size = 4
__Last$ = 12						; size = 4
__Dest$ = 16						; size = 4
??$_Move@PAVioHashString@@PAV1@@std@@YAPAVioHashString@@PAV1@00@Z PROC ; std::_Move<ioHashString *,ioHashString *>, COMDAT

; 2533 : 	{	// move [_First, _Last) to [_Dest, ...), unchecked

  00000	55		 push	 ebp
  00001	8b ec		 mov	 ebp, esp
  00003	51		 push	 ecx

; 2534 : 	return (_Move(_First, _Last,
; 2535 : 		_Dest, _Ptr_cat(_First, _Dest)));

  00004	ff 75 fc	 push	 DWORD PTR __Cat$535625[ebp]
  00007	ff 75 10	 push	 DWORD PTR __Dest$[ebp]
  0000a	ff 75 0c	 push	 DWORD PTR __Last$[ebp]
  0000d	ff 75 08	 push	 DWORD PTR __First$[ebp]
  00010	e8 00 00 00 00	 call	 ??$_Move@PAVioHashString@@PAV1@@std@@YAPAVioHashString@@PAV1@00U_Nonscalar_ptr_iterator_tag@0@@Z ; std::_Move<ioHashString *,ioHashString *>
  00015	83 c4 10	 add	 esp, 16			; 00000010H

; 2536 : 	}

  00018	c9		 leave
  00019	c3		 ret	 0
??$_Move@PAVioHashString@@PAV1@@std@@YAPAVioHashString@@PAV1@00@Z ENDP ; std::_Move<ioHashString *,ioHashString *>
_TEXT	ENDS
PUBLIC	?destroy@?$allocator@VioHashString@@@std@@QAEXPAVioHashString@@@Z ; std::allocator<ioHashString>::destroy
; Function compile flags: /Ogsp
; File c:\program files (x86)\microsoft visual studio 10.0\vc\include\xmemory
;	COMDAT ?destroy@?$allocator@VioHashString@@@std@@QAEXPAVioHashString@@@Z
_TEXT	SEGMENT
__Ptr$ = 8						; size = 4
?destroy@?$allocator@VioHashString@@@std@@QAEXPAVioHashString@@@Z PROC ; std::allocator<ioHashString>::destroy, COMDAT
; _this$ = ecx

; 212  : 		{	// destroy object at _Ptr

  00000	55		 push	 ebp
  00001	8b ec		 mov	 ebp, esp

; 213  : 		_Destroy(_Ptr);

  00003	8b 4d 08	 mov	 ecx, DWORD PTR __Ptr$[ebp]
  00006	ff 15 00 00 00
	00		 call	 DWORD PTR __imp_??1ioHashString@@QAE@XZ

; 214  : 		}

  0000c	5d		 pop	 ebp
  0000d	c2 04 00	 ret	 4
?destroy@?$allocator@VioHashString@@@std@@QAEXPAVioHashString@@@Z ENDP ; std::allocator<ioHashString>::destroy
_TEXT	ENDS
PUBLIC	??$_Cons_val@V?$allocator@VioHashString@@@std@@VioHashString@@ABV3@@std@@YAXAAV?$allocator@VioHashString@@@0@PAVioHashString@@ABV2@@Z ; std::_Cons_val<std::allocator<ioHashString>,ioHashString,ioHashString const &>
; Function compile flags: /Ogsp
;	COMDAT ??$_Cons_val@V?$allocator@VioHashString@@@std@@VioHashString@@ABV3@@std@@YAXAAV?$allocator@VioHashString@@@0@PAVioHashString@@ABV2@@Z
_TEXT	SEGMENT
__Alval$ = 8						; size = 4
__Pdest$ = 12						; size = 4
__Src$ = 16						; size = 4
??$_Cons_val@V?$allocator@VioHashString@@@std@@VioHashString@@ABV3@@std@@YAXAAV?$allocator@VioHashString@@@0@PAVioHashString@@ABV2@@Z PROC ; std::_Cons_val<std::allocator<ioHashString>,ioHashString,ioHashString const &>, COMDAT

; 279  : 	{	// construct using allocator

  00000	55		 push	 ebp
  00001	8b ec		 mov	 ebp, esp

; 280  : 	_Alval.construct(_Pdest, _STD forward<_Ty2>(_Src));

  00003	ff 75 10	 push	 DWORD PTR __Src$[ebp]
  00006	ff 75 0c	 push	 DWORD PTR __Pdest$[ebp]
  00009	e8 00 00 00 00	 call	 ??$_Construct@VioHashString@@ABV1@@std@@YAXPAVioHashString@@ABV1@@Z ; std::_Construct<ioHashString,ioHashString const &>
  0000e	59		 pop	 ecx
  0000f	59		 pop	 ecx

; 281  : 	}

  00010	5d		 pop	 ebp
  00011	c3		 ret	 0
??$_Cons_val@V?$allocator@VioHashString@@@std@@VioHashString@@ABV3@@std@@YAXAAV?$allocator@VioHashString@@@0@PAVioHashString@@ABV2@@Z ENDP ; std::_Cons_val<std::allocator<ioHashString>,ioHashString,ioHashString const &>
_TEXT	ENDS
PUBLIC	?ReduceNeedCount@ioBuffCountSkill@@UAEHXZ	; ioBuffCountSkill::ReduceNeedCount
EXTRN	__EH_epilog3_GS:PROC
EXTRN	__EH_prolog3_GS:PROC
;	COMDAT xdata$x
; File d:\lost saga for developer\youtube\tutorial\source\src\lsclient\encryptvalue.h
xdata$x	SEGMENT
__unwindtable$?ReduceNeedCount@ioBuffCountSkill@@UAEHXZ DD 0ffffffffH
	DD	FLAT:__unwindfunclet$?ReduceNeedCount@ioBuffCountSkill@@UAEHXZ$0
	DD	00H
	DD	FLAT:__unwindfunclet$?ReduceNeedCount@ioBuffCountSkill@@UAEHXZ$1
__ehfuncinfo$?ReduceNeedCount@ioBuffCountSkill@@UAEHXZ DD 019930522H
	DD	02H
	DD	FLAT:__unwindtable$?ReduceNeedCount@ioBuffCountSkill@@UAEHXZ
	DD	2 DUP(00H)
	DD	2 DUP(00H)
	DD	00H
	DD	01H
; Function compile flags: /Ogsp
; File d:\lost saga for developer\youtube\tutorial\source\src\lsclient\iobuffcountskill.cpp
xdata$x	ENDS
;	COMDAT ?ReduceNeedCount@ioBuffCountSkill@@UAEHXZ
_TEXT	SEGMENT
_value$535664 = -120					; size = 4
$T535654 = -120						; size = 4
_value$535689 = -116					; size = 4
_value$535676 = -116					; size = 4
_value$535668 = -116					; size = 4
_value$535672 = -116					; size = 4
$T535651 = -116						; size = 4
$T531541 = -112						; size = 48
$T531540 = -64						; size = 48
__$EHRec$ = -12						; size = 12
?ReduceNeedCount@ioBuffCountSkill@@UAEHXZ PROC		; ioBuffCountSkill::ReduceNeedCount, COMDAT
; _this$ = ecx

; 84   : {

  00000	6a 6c		 push	 108			; 0000006cH
  00002	b8 00 00 00 00	 mov	 eax, __ehhandler$?ReduceNeedCount@ioBuffCountSkill@@UAEHXZ
  00007	e8 00 00 00 00	 call	 __EH_prolog3_GS
  0000c	8b c1		 mov	 eax, ecx
  0000e	33 db		 xor	 ebx, ebx
  00010	89 5d 88	 mov	 DWORD PTR $T535654[ebp], ebx

; 85   : 	if ( !m_bNoResetCount )
; 86   : 		m_iCurUseCount = 0;

  00013	8d b0 14 11 00
	00		 lea	 esi, DWORD PTR [eax+4372]
  00019	8b ce		 mov	 ecx, esi
  0001b	38 98 90 12 00
	00		 cmp	 BYTE PTR [eax+4752], bl
  00021	75 11		 jne	 SHORT $LN2@ReduceNeed
  00023	8d 45 88	 lea	 eax, DWORD PTR _value$535664[ebp]
  00026	50		 push	 eax
  00027	89 5d 88	 mov	 DWORD PTR _value$535664[ebp], ebx
  0002a	e8 00 00 00 00	 call	 ?EncryptValueToPool@?$CEncrypt@H@@AAEXPBD@Z ; CEncrypt<int>::EncryptValueToPool

; 87   : 	else

  0002f	e9 9b 00 00 00	 jmp	 $LN12@ReduceNeed
$LN2@ReduceNeed:

; 88   : 	{
; 89   : 		m_iCurUseCount -= m_nCurNeedCount;

  00034	05 94 12 00 00	 add	 eax, 4756		; 00001294H
  00039	50		 push	 eax
  0003a	e8 00 00 00 00	 call	 ??Z?$CEncrypt@H@@QAEAAHABH@Z ; CEncrypt<int>::operator-=

; 90   : 		m_iCurUseCount = max( m_iCurUseCount, 0 );

  0003f	8d 45 8c	 lea	 eax, DWORD PTR _value$535668[ebp]
  00042	50		 push	 eax
  00043	8b ce		 mov	 ecx, esi
  00045	e8 00 00 00 00	 call	 ?DecryptValueToPool@?$CEncrypt@H@@QAEXPAH@Z ; CEncrypt<int>::DecryptValueToPool
  0004a	39 5d 8c	 cmp	 DWORD PTR _value$535668[ebp], ebx
  0004d	7e 15		 jle	 SHORT $LN5@ReduceNeed
  0004f	56		 push	 esi
  00050	8d 4d c0	 lea	 ecx, DWORD PTR $T531540[ebp]
  00053	e8 00 00 00 00	 call	 ??0?$CEncrypt@H@@QAE@ABV0@@Z ; CEncrypt<int>::CEncrypt<int>
  00058	89 5d fc	 mov	 DWORD PTR __$EHRec$[ebp+8], ebx
  0005b	c7 45 88 01 00
	00 00		 mov	 DWORD PTR $T535654[ebp], 1
  00062	eb 1d		 jmp	 SHORT $LN6@ReduceNeed
$LN5@ReduceNeed:
  00064	8d 45 8c	 lea	 eax, DWORD PTR $T535651[ebp]
  00067	50		 push	 eax
  00068	8d 4d 90	 lea	 ecx, DWORD PTR $T531541[ebp]
  0006b	89 5d 8c	 mov	 DWORD PTR $T535651[ebp], ebx
  0006e	e8 00 00 00 00	 call	 ??0?$CEncrypt@H@@QAE@ABH@Z ; CEncrypt<int>::CEncrypt<int>
  00073	c7 45 fc 01 00
	00 00		 mov	 DWORD PTR __$EHRec$[ebp+8], 1
  0007a	c7 45 88 02 00
	00 00		 mov	 DWORD PTR $T535654[ebp], 2
$LN6@ReduceNeed:
  00081	8d 4d 8c	 lea	 ecx, DWORD PTR _value$535672[ebp]
  00084	51		 push	 ecx
  00085	8b c8		 mov	 ecx, eax
  00087	e8 00 00 00 00	 call	 ?DecryptValueToPool@?$CEncrypt@H@@QAEXPAH@Z ; CEncrypt<int>::DecryptValueToPool
  0008c	8b 45 8c	 mov	 eax, DWORD PTR _value$535672[ebp]
  0008f	89 45 8c	 mov	 DWORD PTR _value$535676[ebp], eax
  00092	8d 45 8c	 lea	 eax, DWORD PTR _value$535676[ebp]
  00095	50		 push	 eax
  00096	8b ce		 mov	 ecx, esi
  00098	e8 00 00 00 00	 call	 ?EncryptValueToPool@?$CEncrypt@H@@AAEXPBD@Z ; CEncrypt<int>::EncryptValueToPool
  0009d	f6 45 88 02	 test	 BYTE PTR $T535654[ebp], 2
  000a1	89 5d fc	 mov	 DWORD PTR __$EHRec$[ebp+8], ebx
  000a4	bf 00 00 00 00	 mov	 edi, OFFSET ??_7?$CEncrypt@H@@6B@
  000a9	74 0f		 je	 SHORT $LN11@ReduceNeed
  000ab	83 65 88 fd	 and	 DWORD PTR $T535654[ebp], -3 ; fffffffdH
  000af	8d 4d 9c	 lea	 ecx, DWORD PTR $T531541[ebp+12]
  000b2	89 7d 90	 mov	 DWORD PTR $T531541[ebp], edi
  000b5	e8 00 00 00 00	 call	 ??1ccddaabb@@UAE@XZ	; ccddaabb::~ccddaabb
$LN11@ReduceNeed:
  000ba	83 4d fc ff	 or	 DWORD PTR __$EHRec$[ebp+8], -1
  000be	f6 45 88 01	 test	 BYTE PTR $T535654[ebp], 1
  000c2	74 0b		 je	 SHORT $LN12@ReduceNeed
  000c4	8d 4d cc	 lea	 ecx, DWORD PTR $T531540[ebp+12]
  000c7	89 7d c0	 mov	 DWORD PTR $T531540[ebp], edi
  000ca	e8 00 00 00 00	 call	 ??1ccddaabb@@UAE@XZ	; ccddaabb::~ccddaabb
$LN12@ReduceNeed:

; 91   : 	}
; 92   : 
; 93   : 	return m_iCurUseCount;

  000cf	8d 45 8c	 lea	 eax, DWORD PTR _value$535689[ebp]
  000d2	50		 push	 eax
  000d3	8b ce		 mov	 ecx, esi
  000d5	e8 00 00 00 00	 call	 ?DecryptValueToPool@?$CEncrypt@H@@QAEXPAH@Z ; CEncrypt<int>::DecryptValueToPool
  000da	8b 45 8c	 mov	 eax, DWORD PTR _value$535689[ebp]

; 94   : }

  000dd	e8 00 00 00 00	 call	 __EH_epilog3_GS
  000e2	c3		 ret	 0
_TEXT	ENDS
;	COMDAT text$x
text$x	SEGMENT
__unwindfunclet$?ReduceNeedCount@ioBuffCountSkill@@UAEHXZ$0:
  00000	8b 45 88	 mov	 eax, DWORD PTR $T535654[ebp]
  00003	83 e0 01	 and	 eax, 1
  00006	0f 84 0c 00 00
	00		 je	 $LN8@ReduceNeed
  0000c	83 65 88 fe	 and	 DWORD PTR $T535654[ebp], -2 ; fffffffeH
  00010	8d 4d c0	 lea	 ecx, DWORD PTR $T531540[ebp]
  00013	e9 00 00 00 00	 jmp	 ??1?$CEncrypt@H@@UAE@XZ	; CEncrypt<int>::~CEncrypt<int>
$LN8@ReduceNeed:
  00018	c3		 ret	 0
__unwindfunclet$?ReduceNeedCount@ioBuffCountSkill@@UAEHXZ$1:
  00019	8b 45 88	 mov	 eax, DWORD PTR $T535654[ebp]
  0001c	83 e0 02	 and	 eax, 2
  0001f	0f 84 0c 00 00
	00		 je	 $LN10@ReduceNeed
  00025	83 65 88 fd	 and	 DWORD PTR $T535654[ebp], -3 ; fffffffdH
  00029	8d 4d 90	 lea	 ecx, DWORD PTR $T531541[ebp]
  0002c	e9 00 00 00 00	 jmp	 ??1?$CEncrypt@H@@UAE@XZ	; CEncrypt<int>::~CEncrypt<int>
$LN10@ReduceNeed:
  00031	c3		 ret	 0
__ehhandler$?ReduceNeedCount@ioBuffCountSkill@@UAEHXZ:
  00032	8b 54 24 08	 mov	 edx, DWORD PTR [esp+8]
  00036	8d 42 0c	 lea	 eax, DWORD PTR [edx+12]
  00039	8b 4a 84	 mov	 ecx, DWORD PTR [edx-124]
  0003c	33 c8		 xor	 ecx, eax
  0003e	e8 00 00 00 00	 call	 @__security_check_cookie@4
  00043	8b 4a fc	 mov	 ecx, DWORD PTR [edx-4]
  00046	33 c8		 xor	 ecx, eax
  00048	e8 00 00 00 00	 call	 @__security_check_cookie@4
  0004d	b8 00 00 00 00	 mov	 eax, OFFSET __ehfuncinfo$?ReduceNeedCount@ioBuffCountSkill@@UAEHXZ
  00052	e9 00 00 00 00	 jmp	 ___CxxFrameHandler3
text$x	ENDS
?ReduceNeedCount@ioBuffCountSkill@@UAEHXZ ENDP		; ioBuffCountSkill::ReduceNeedCount
PUBLIC	?OnProcessState@ioBuffCountSkill@@UAEXPAVioBaseChar@@PAVioPlayStage@@@Z ; ioBuffCountSkill::OnProcessState
; Function compile flags: /Ogsp
;	COMDAT ?OnProcessState@ioBuffCountSkill@@UAEXPAVioBaseChar@@PAVioPlayStage@@@Z
_TEXT	SEGMENT
_pOwner$ = 8						; size = 4
_pStage$ = 12						; size = 4
?OnProcessState@ioBuffCountSkill@@UAEXPAVioBaseChar@@PAVioPlayStage@@@Z PROC ; ioBuffCountSkill::OnProcessState, COMDAT
; _this$ = ecx

; 129  : {

  00000	55		 push	 ebp
  00001	8b ec		 mov	 ebp, esp
  00003	56		 push	 esi
  00004	8b f1		 mov	 esi, ecx

; 130  : 	switch( m_SkillState )

  00006	8b 86 68 12 00
	00		 mov	 eax, DWORD PTR [esi+4712]
  0000c	83 e8 00	 sub	 eax, 0
  0000f	57		 push	 edi
  00010	74 3a		 je	 SHORT $LN3@OnProcessS
  00012	48		 dec	 eax
  00013	75 42		 jne	 SHORT $LN4@OnProcessS

; 135  : 		}
; 136  : 		break;
; 137  : 	case SS_ACTION:
; 138  : 		{
; 139  : 			if( 0 < m_dwMotionEndTime && m_dwMotionEndTime < FRAMEGETTIME() )

  00015	39 86 d8 02 00
	00		 cmp	 DWORD PTR [esi+728], eax
  0001b	76 3a		 jbe	 SHORT $LN4@OnProcessS
  0001d	ff 15 00 00 00
	00		 call	 DWORD PTR __imp_?GetSingleton@ioFrameTimer@@SAAAV1@XZ
  00023	8b c8		 mov	 ecx, eax
  00025	ff 15 00 00 00
	00		 call	 DWORD PTR __imp_?GetLoopSec@ioFrameTimer@@QBEKXZ
  0002b	39 86 d8 02 00
	00		 cmp	 DWORD PTR [esi+728], eax
  00031	73 24		 jae	 SHORT $LN4@OnProcessS

; 140  : 			{
; 141  : 				SetOwnerBuff( pOwner, pStage );

  00033	ff 75 0c	 push	 DWORD PTR _pStage$[ebp]
  00036	8b ce		 mov	 ecx, esi
  00038	ff 75 08	 push	 DWORD PTR _pOwner$[ebp]
  0003b	e8 00 00 00 00	 call	 ?SetOwnerBuff@ioBuffCountSkill@@IAEXPAVioBaseChar@@PAVioPlayStage@@@Z ; ioBuffCountSkill::SetOwnerBuff

; 142  : 				m_SkillState = SS_END;

  00040	c7 86 68 12 00
	00 02 00 00 00	 mov	 DWORD PTR [esi+4712], 2

; 143  : 			}
; 144  : 		}
; 145  : 		break;

  0004a	eb 0b		 jmp	 SHORT $LN4@OnProcessS
$LN3@OnProcessS:

; 131  : 	{
; 132  : 	case SS_PRE: 
; 133  : 		{
; 134  : 			CheckPreState( pOwner, pStage );

  0004c	ff 75 0c	 push	 DWORD PTR _pStage$[ebp]
  0004f	ff 75 08	 push	 DWORD PTR _pOwner$[ebp]
  00052	e8 00 00 00 00	 call	 ?CheckPreState@ioBuffCountSkill@@IAEXPAVioBaseChar@@PAVioPlayStage@@@Z ; ioBuffCountSkill::CheckPreState
$LN4@OnProcessS:
  00057	5f		 pop	 edi
  00058	5e		 pop	 esi

; 146  : 	}
; 147  : }

  00059	5d		 pop	 ebp
  0005a	c2 08 00	 ret	 8
?OnProcessState@ioBuffCountSkill@@UAEXPAVioBaseChar@@PAVioPlayStage@@@Z ENDP ; ioBuffCountSkill::OnProcessState
_TEXT	ENDS
PUBLIC	??$?9V?$_Vector_iterator@V?$_Vector_val@UBuffInfo@ioBuffCountSkill@@V?$allocator@UBuffInfo@ioBuffCountSkill@@@std@@@std@@@std@@V01@@std@@YA_NABV?$reverse_iterator@V?$_Vector_iterator@V?$_Vector_val@UBuffInfo@ioBuffCountSkill@@V?$allocator@UBuffInfo@ioBuffCountSkill@@@std@@@std@@@std@@@0@0@Z ; std::operator!=<std::_Vector_iterator<std::_Vector_val<ioBuffCountSkill::BuffInfo,std::allocator<ioBuffCountSkill::BuffInfo> > >,std::_Vector_iterator<std::_Vector_val<ioBuffCountSkill::BuffInfo,std::allocator<ioBuffCountSkill::BuffInfo> > > >
; Function compile flags: /Ogsp
; File c:\program files (x86)\microsoft visual studio 10.0\vc\include\xutility
;	COMDAT ??$?9V?$_Vector_iterator@V?$_Vector_val@UBuffInfo@ioBuffCountSkill@@V?$allocator@UBuffInfo@ioBuffCountSkill@@@std@@@std@@@std@@V01@@std@@YA_NABV?$reverse_iterator@V?$_Vector_iterator@V?$_Vector_val@UBuffInfo@ioBuffCountSkill@@V?$allocator@UBuffInfo@ioBuffCountSkill@@@std@@@std@@@std@@@0@0@Z
_TEXT	SEGMENT
__Left$ = 8						; size = 4
__Right$ = 12						; size = 4
??$?9V?$_Vector_iterator@V?$_Vector_val@UBuffInfo@ioBuffCountSkill@@V?$allocator@UBuffInfo@ioBuffCountSkill@@@std@@@std@@@std@@V01@@std@@YA_NABV?$reverse_iterator@V?$_Vector_iterator@V?$_Vector_val@UBuffInfo@ioBuffCountSkill@@V?$allocator@UBuffInfo@ioBuffCountSkill@@@std@@@std@@@std@@@0@0@Z PROC ; std::operator!=<std::_Vector_iterator<std::_Vector_val<ioBuffCountSkill::BuffInfo,std::allocator<ioBuffCountSkill::BuffInfo> > >,std::_Vector_iterator<std::_Vector_val<ioBuffCountSkill::BuffInfo,std::allocator<ioBuffCountSkill::BuffInfo> > > >, COMDAT

; 1350 : 	{	// test for reverse_iterator inequality

  00000	55		 push	 ebp
  00001	8b ec		 mov	 ebp, esp

; 1351 : 	return (!(_Left == _Right));

  00003	8b 45 0c	 mov	 eax, DWORD PTR __Right$[ebp]
  00006	8b 00		 mov	 eax, DWORD PTR [eax]
  00008	8b 55 08	 mov	 edx, DWORD PTR __Left$[ebp]
  0000b	33 c9		 xor	 ecx, ecx
  0000d	39 02		 cmp	 DWORD PTR [edx], eax
  0000f	0f 95 c0	 setne	 al

; 1352 : 	}

  00012	5d		 pop	 ebp
  00013	c3		 ret	 0
??$?9V?$_Vector_iterator@V?$_Vector_val@UBuffInfo@ioBuffCountSkill@@V?$allocator@UBuffInfo@ioBuffCountSkill@@@std@@@std@@@std@@V01@@std@@YA_NABV?$reverse_iterator@V?$_Vector_iterator@V?$_Vector_val@UBuffInfo@ioBuffCountSkill@@V?$allocator@UBuffInfo@ioBuffCountSkill@@@std@@@std@@@std@@@0@0@Z ENDP ; std::operator!=<std::_Vector_iterator<std::_Vector_val<ioBuffCountSkill::BuffInfo,std::allocator<ioBuffCountSkill::BuffInfo> > >,std::_Vector_iterator<std::_Vector_val<ioBuffCountSkill::BuffInfo,std::allocator<ioBuffCountSkill::BuffInfo> > > >
_TEXT	ENDS
PUBLIC	??$_Dest_val@V?$allocator@VioHashString@@@std@@VioHashString@@@std@@YAXAAV?$allocator@VioHashString@@@0@PAVioHashString@@@Z ; std::_Dest_val<std::allocator<ioHashString>,ioHashString>
; Function compile flags: /Ogsp
; File c:\program files (x86)\microsoft visual studio 10.0\vc\include\xmemory
;	COMDAT ??$_Dest_val@V?$allocator@VioHashString@@@std@@VioHashString@@@std@@YAXAAV?$allocator@VioHashString@@@0@PAVioHashString@@@Z
_TEXT	SEGMENT
__Alval$ = 8						; size = 4
__Pdest$ = 12						; size = 4
??$_Dest_val@V?$allocator@VioHashString@@@std@@VioHashString@@@std@@YAXAAV?$allocator@VioHashString@@@0@PAVioHashString@@@Z PROC ; std::_Dest_val<std::allocator<ioHashString>,ioHashString>, COMDAT

; 286  : 	{	// destroy using allocator

  00000	55		 push	 ebp
  00001	8b ec		 mov	 ebp, esp

; 287  : 	_Alval.destroy(_Pdest);

  00003	8b 4d 0c	 mov	 ecx, DWORD PTR __Pdest$[ebp]

; 288  : 	}

  00006	5d		 pop	 ebp

; 287  : 	_Alval.destroy(_Pdest);

  00007	ff 25 00 00 00
	00		 jmp	 DWORD PTR __imp_??1ioHashString@@QAE@XZ
??$_Dest_val@V?$allocator@VioHashString@@@std@@VioHashString@@@std@@YAXAAV?$allocator@VioHashString@@@0@PAVioHashString@@@Z ENDP ; std::_Dest_val<std::allocator<ioHashString>,ioHashString>
_TEXT	ENDS
PUBLIC	??$_Uninit_copy@PAVioHashString@@PAV1@V?$allocator@VioHashString@@@std@@@std@@YAPAVioHashString@@PAV1@00AAV?$allocator@VioHashString@@@0@U_Nonscalar_ptr_iterator_tag@0@@Z ; std::_Uninit_copy<ioHashString *,ioHashString *,std::allocator<ioHashString> >
EXTRN	__EH_prolog3_catch:PROC
;	COMDAT xdata$x
; File c:\program files (x86)\microsoft visual studio 10.0\vc\include\vector
xdata$x	SEGMENT
__catchsym$??$_Uninit_copy@PAVioHashString@@PAV1@V?$allocator@VioHashString@@@std@@@std@@YAPAVioHashString@@PAV1@00AAV?$allocator@VioHashString@@@0@U_Nonscalar_ptr_iterator_tag@0@@Z$2 DD 040H
	DD	00H
	DD	00H
	DD	FLAT:__catch$??$_Uninit_copy@PAVioHashString@@PAV1@V?$allocator@VioHashString@@@std@@@std@@YAPAVioHashString@@PAV1@00AAV?$allocator@VioHashString@@@0@U_Nonscalar_ptr_iterator_tag@0@@Z$0
__unwindtable$??$_Uninit_copy@PAVioHashString@@PAV1@V?$allocator@VioHashString@@@std@@@std@@YAPAVioHashString@@PAV1@00AAV?$allocator@VioHashString@@@0@U_Nonscalar_ptr_iterator_tag@0@@Z DD 0ffffffffH
	DD	00H
	DD	0ffffffffH
	DD	00H
__tryblocktable$??$_Uninit_copy@PAVioHashString@@PAV1@V?$allocator@VioHashString@@@std@@@std@@YAPAVioHashString@@PAV1@00AAV?$allocator@VioHashString@@@0@U_Nonscalar_ptr_iterator_tag@0@@Z DD 00H
	DD	00H
	DD	01H
	DD	01H
	DD	FLAT:__catchsym$??$_Uninit_copy@PAVioHashString@@PAV1@V?$allocator@VioHashString@@@std@@@std@@YAPAVioHashString@@PAV1@00AAV?$allocator@VioHashString@@@0@U_Nonscalar_ptr_iterator_tag@0@@Z$2
__ehfuncinfo$??$_Uninit_copy@PAVioHashString@@PAV1@V?$allocator@VioHashString@@@std@@@std@@YAPAVioHashString@@PAV1@00AAV?$allocator@VioHashString@@@0@U_Nonscalar_ptr_iterator_tag@0@@Z DD 019930522H
	DD	02H
	DD	FLAT:__unwindtable$??$_Uninit_copy@PAVioHashString@@PAV1@V?$allocator@VioHashString@@@std@@@std@@YAPAVioHashString@@PAV1@00AAV?$allocator@VioHashString@@@0@U_Nonscalar_ptr_iterator_tag@0@@Z
	DD	01H
	DD	FLAT:__tryblocktable$??$_Uninit_copy@PAVioHashString@@PAV1@V?$allocator@VioHashString@@@std@@@std@@YAPAVioHashString@@PAV1@00AAV?$allocator@VioHashString@@@0@U_Nonscalar_ptr_iterator_tag@0@@Z
	DD	2 DUP(00H)
	DD	00H
	DD	01H
; Function compile flags: /Ogsp
; File c:\program files (x86)\microsoft visual studio 10.0\vc\include\memory
xdata$x	ENDS
;	COMDAT ??$_Uninit_copy@PAVioHashString@@PAV1@V?$allocator@VioHashString@@@std@@@std@@YAPAVioHashString@@PAV1@00AAV?$allocator@VioHashString@@@0@U_Nonscalar_ptr_iterator_tag@0@@Z
_TEXT	SEGMENT
__Next$ = -20						; size = 4
__$EHRec$ = -16						; size = 16
__First$ = 8						; size = 4
__Last$ = 12						; size = 4
__Dest$ = 16						; size = 4
__Al$ = 20						; size = 4
___formal$ = 24						; size = 1
??$_Uninit_copy@PAVioHashString@@PAV1@V?$allocator@VioHashString@@@std@@@std@@YAPAVioHashString@@PAV1@00AAV?$allocator@VioHashString@@@0@U_Nonscalar_ptr_iterator_tag@0@@Z PROC ; std::_Uninit_copy<ioHashString *,ioHashString *,std::allocator<ioHashString> >, COMDAT

; 369  : 	{	// copy [_First, _Last) to raw _Dest, using _Al, arbitrary type

  00000	6a 08		 push	 8
  00002	b8 00 00 00 00	 mov	 eax, __ehhandler$??$_Uninit_copy@PAVioHashString@@PAV1@V?$allocator@VioHashString@@@std@@@std@@YAPAVioHashString@@PAV1@00AAV?$allocator@VioHashString@@@0@U_Nonscalar_ptr_iterator_tag@0@@Z
  00007	e8 00 00 00 00	 call	 __EH_prolog3_catch

; 370  : 	_DEBUG_RANGE(_First, _Last);
; 371  : 	_DEBUG_POINTER(_Dest);
; 372  : 	_FwdIt _Next = _Dest;

  0000c	8b 45 10	 mov	 eax, DWORD PTR __Dest$[ebp]

; 373  : 
; 374  : 	_TRY_BEGIN

  0000f	83 65 fc 00	 and	 DWORD PTR __$EHRec$[ebp+12], 0
  00013	8b 75 08	 mov	 esi, DWORD PTR __First$[ebp]
  00016	89 45 ec	 mov	 DWORD PTR __Next$[ebp], eax
$LL6@Uninit_cop:

; 375  : 	for (; _First != _Last; ++_Dest, ++_First)

  00019	3b 75 0c	 cmp	 esi, DWORD PTR __Last$[ebp]
  0001c	74 33		 je	 SHORT $LN4@Uninit_cop

; 376  : 		_Cons_val(_Al, _Dest, *_First);

  0001e	8b 4d 14	 mov	 ecx, DWORD PTR __Al$[ebp]
  00021	56		 push	 esi
  00022	ff 75 10	 push	 DWORD PTR __Dest$[ebp]
  00025	e8 00 00 00 00	 call	 ??$construct@AAVioHashString@@@?$allocator@VioHashString@@@std@@QAEXPAVioHashString@@AAV2@@Z ; std::allocator<ioHashString>::construct<ioHashString &>
  0002a	83 45 10 10	 add	 DWORD PTR __Dest$[ebp], 16 ; 00000010H
  0002e	83 c6 10	 add	 esi, 16			; 00000010H
  00031	eb e6		 jmp	 SHORT $LL6@Uninit_cop
__catch$??$_Uninit_copy@PAVioHashString@@PAV1@V?$allocator@VioHashString@@@std@@@std@@YAPAVioHashString@@PAV1@00AAV?$allocator@VioHashString@@@0@U_Nonscalar_ptr_iterator_tag@0@@Z$0:

; 377  : 	_CATCH_ALL
; 378  : 	for (; _Next != _Dest; ++_Next)

  00033	8b 75 ec	 mov	 esi, DWORD PTR __Next$[ebp]
  00036	eb 0b		 jmp	 SHORT $LN33@Uninit_cop
$LL3@Uninit_cop:

; 379  : 		_Dest_val(_Al, _Next);

  00038	8b ce		 mov	 ecx, esi
  0003a	ff 15 00 00 00
	00		 call	 DWORD PTR __imp_??1ioHashString@@QAE@XZ
  00040	83 c6 10	 add	 esi, 16			; 00000010H
$LN33@Uninit_cop:

; 377  : 	_CATCH_ALL
; 378  : 	for (; _Next != _Dest; ++_Next)

  00043	3b 75 10	 cmp	 esi, DWORD PTR __Dest$[ebp]
  00046	75 f0		 jne	 SHORT $LL3@Uninit_cop

; 380  : 	_RERAISE;

  00048	6a 00		 push	 0
  0004a	6a 00		 push	 0
  0004c	e8 00 00 00 00	 call	 __CxxThrowException@8
$LN34@Uninit_cop:
$LN4@Uninit_cop:

; 381  : 	_CATCH_END
; 382  : 	return (_Dest);

  00051	8b 45 10	 mov	 eax, DWORD PTR __Dest$[ebp]

; 383  : 	}

  00054	e8 00 00 00 00	 call	 __EH_epilog3
  00059	c3		 ret	 0
$LN32@Uninit_cop:
_TEXT	ENDS
;	COMDAT text$x
text$x	SEGMENT
__ehhandler$??$_Uninit_copy@PAVioHashString@@PAV1@V?$allocator@VioHashString@@@std@@@std@@YAPAVioHashString@@PAV1@00AAV?$allocator@VioHashString@@@0@U_Nonscalar_ptr_iterator_tag@0@@Z:
  00000	8b 54 24 08	 mov	 edx, DWORD PTR [esp+8]
  00004	8d 42 0c	 lea	 eax, DWORD PTR [edx+12]
  00007	8b 4a e8	 mov	 ecx, DWORD PTR [edx-24]
  0000a	33 c8		 xor	 ecx, eax
  0000c	e8 00 00 00 00	 call	 @__security_check_cookie@4
  00011	b8 00 00 00 00	 mov	 eax, OFFSET __ehfuncinfo$??$_Uninit_copy@PAVioHashString@@PAV1@V?$allocator@VioHashString@@@std@@@std@@YAPAVioHashString@@PAV1@00AAV?$allocator@VioHashString@@@0@U_Nonscalar_ptr_iterator_tag@0@@Z
  00016	e9 00 00 00 00	 jmp	 ___CxxFrameHandler3
text$x	ENDS
??$_Uninit_copy@PAVioHashString@@PAV1@V?$allocator@VioHashString@@@std@@@std@@YAPAVioHashString@@PAV1@00AAV?$allocator@VioHashString@@@0@U_Nonscalar_ptr_iterator_tag@0@@Z ENDP ; std::_Uninit_copy<ioHashString *,ioHashString *,std::allocator<ioHashString> >
PUBLIC	??$_Uninit_move@PAVioHashString@@PAV1@V?$allocator@VioHashString@@@std@@V1@@std@@YAPAVioHashString@@PAV1@00AAV?$allocator@VioHashString@@@0@0U_Nonscalar_ptr_iterator_tag@0@@Z ; std::_Uninit_move<ioHashString *,ioHashString *,std::allocator<ioHashString>,ioHashString>
;	COMDAT xdata$x
; File c:\program files (x86)\microsoft visual studio 10.0\vc\include\vector
xdata$x	SEGMENT
__catchsym$??$_Uninit_move@PAVioHashString@@PAV1@V?$allocator@VioHashString@@@std@@V1@@std@@YAPAVioHashString@@PAV1@00AAV?$allocator@VioHashString@@@0@0U_Nonscalar_ptr_iterator_tag@0@@Z$2 DD 040H
	DD	00H
	DD	00H
	DD	FLAT:__catch$??$_Uninit_move@PAVioHashString@@PAV1@V?$allocator@VioHashString@@@std@@V1@@std@@YAPAVioHashString@@PAV1@00AAV?$allocator@VioHashString@@@0@0U_Nonscalar_ptr_iterator_tag@0@@Z$0
__unwindtable$??$_Uninit_move@PAVioHashString@@PAV1@V?$allocator@VioHashString@@@std@@V1@@std@@YAPAVioHashString@@PAV1@00AAV?$allocator@VioHashString@@@0@0U_Nonscalar_ptr_iterator_tag@0@@Z DD 0ffffffffH
	DD	00H
	DD	0ffffffffH
	DD	00H
__tryblocktable$??$_Uninit_move@PAVioHashString@@PAV1@V?$allocator@VioHashString@@@std@@V1@@std@@YAPAVioHashString@@PAV1@00AAV?$allocator@VioHashString@@@0@0U_Nonscalar_ptr_iterator_tag@0@@Z DD 00H
	DD	00H
	DD	01H
	DD	01H
	DD	FLAT:__catchsym$??$_Uninit_move@PAVioHashString@@PAV1@V?$allocator@VioHashString@@@std@@V1@@std@@YAPAVioHashString@@PAV1@00AAV?$allocator@VioHashString@@@0@0U_Nonscalar_ptr_iterator_tag@0@@Z$2
__ehfuncinfo$??$_Uninit_move@PAVioHashString@@PAV1@V?$allocator@VioHashString@@@std@@V1@@std@@YAPAVioHashString@@PAV1@00AAV?$allocator@VioHashString@@@0@0U_Nonscalar_ptr_iterator_tag@0@@Z DD 019930522H
	DD	02H
	DD	FLAT:__unwindtable$??$_Uninit_move@PAVioHashString@@PAV1@V?$allocator@VioHashString@@@std@@V1@@std@@YAPAVioHashString@@PAV1@00AAV?$allocator@VioHashString@@@0@0U_Nonscalar_ptr_iterator_tag@0@@Z
	DD	01H
	DD	FLAT:__tryblocktable$??$_Uninit_move@PAVioHashString@@PAV1@V?$allocator@VioHashString@@@std@@V1@@std@@YAPAVioHashString@@PAV1@00AAV?$allocator@VioHashString@@@0@0U_Nonscalar_ptr_iterator_tag@0@@Z
	DD	2 DUP(00H)
	DD	00H
	DD	01H
; Function compile flags: /Ogsp
; File c:\program files (x86)\microsoft visual studio 10.0\vc\include\memory
xdata$x	ENDS
;	COMDAT ??$_Uninit_move@PAVioHashString@@PAV1@V?$allocator@VioHashString@@@std@@V1@@std@@YAPAVioHashString@@PAV1@00AAV?$allocator@VioHashString@@@0@0U_Nonscalar_ptr_iterator_tag@0@@Z
_TEXT	SEGMENT
__Next$ = -20						; size = 4
__$EHRec$ = -16						; size = 16
__First$ = 8						; size = 4
__Last$ = 12						; size = 4
__Dest$ = 16						; size = 4
__Al$ = 20						; size = 4
___formal$ = 24						; size = 4
___formal$ = 28						; size = 1
??$_Uninit_move@PAVioHashString@@PAV1@V?$allocator@VioHashString@@@std@@V1@@std@@YAPAVioHashString@@PAV1@00AAV?$allocator@VioHashString@@@0@0U_Nonscalar_ptr_iterator_tag@0@@Z PROC ; std::_Uninit_move<ioHashString *,ioHashString *,std::allocator<ioHashString>,ioHashString>, COMDAT

; 424  : 	{	// move [_First, _Last) to raw _Dest, using _Al, arbitrary type

  00000	6a 08		 push	 8
  00002	b8 00 00 00 00	 mov	 eax, __ehhandler$??$_Uninit_move@PAVioHashString@@PAV1@V?$allocator@VioHashString@@@std@@V1@@std@@YAPAVioHashString@@PAV1@00AAV?$allocator@VioHashString@@@0@0U_Nonscalar_ptr_iterator_tag@0@@Z
  00007	e8 00 00 00 00	 call	 __EH_prolog3_catch

; 425  : 	_DEBUG_RANGE(_First, _Last);
; 426  : 	_DEBUG_POINTER(_Dest);
; 427  : 	_FwdIt _Next = _Dest;

  0000c	8b 45 10	 mov	 eax, DWORD PTR __Dest$[ebp]

; 428  : 
; 429  : 	_TRY_BEGIN

  0000f	83 65 fc 00	 and	 DWORD PTR __$EHRec$[ebp+12], 0
  00013	8b 75 08	 mov	 esi, DWORD PTR __First$[ebp]
  00016	89 45 ec	 mov	 DWORD PTR __Next$[ebp], eax
$LL6@Uninit_mov:

; 430  : 	for (; _First != _Last; ++_Dest, ++_First)

  00019	3b 75 0c	 cmp	 esi, DWORD PTR __Last$[ebp]
  0001c	74 33		 je	 SHORT $LN4@Uninit_mov

; 431  : 		_Cons_val(_Al, _Dest, (_Valty &&)*_First);

  0001e	8b 4d 14	 mov	 ecx, DWORD PTR __Al$[ebp]
  00021	56		 push	 esi
  00022	ff 75 10	 push	 DWORD PTR __Dest$[ebp]
  00025	e8 00 00 00 00	 call	 ?construct@?$allocator@VioHashString@@@std@@QAEXPAVioHashString@@$$QAV3@@Z ; std::allocator<ioHashString>::construct
  0002a	83 45 10 10	 add	 DWORD PTR __Dest$[ebp], 16 ; 00000010H
  0002e	83 c6 10	 add	 esi, 16			; 00000010H
  00031	eb e6		 jmp	 SHORT $LL6@Uninit_mov
__catch$??$_Uninit_move@PAVioHashString@@PAV1@V?$allocator@VioHashString@@@std@@V1@@std@@YAPAVioHashString@@PAV1@00AAV?$allocator@VioHashString@@@0@0U_Nonscalar_ptr_iterator_tag@0@@Z$0:

; 432  : 	_CATCH_ALL
; 433  : 	for (; _Next != _Dest; ++_Next)

  00033	8b 75 ec	 mov	 esi, DWORD PTR __Next$[ebp]
  00036	eb 0b		 jmp	 SHORT $LN33@Uninit_mov
$LL3@Uninit_mov:

; 434  : 		_Dest_val(_Al, _Next);

  00038	8b ce		 mov	 ecx, esi
  0003a	ff 15 00 00 00
	00		 call	 DWORD PTR __imp_??1ioHashString@@QAE@XZ
  00040	83 c6 10	 add	 esi, 16			; 00000010H
$LN33@Uninit_mov:

; 432  : 	_CATCH_ALL
; 433  : 	for (; _Next != _Dest; ++_Next)

  00043	3b 75 10	 cmp	 esi, DWORD PTR __Dest$[ebp]
  00046	75 f0		 jne	 SHORT $LL3@Uninit_mov

; 435  : 	_RERAISE;

  00048	6a 00		 push	 0
  0004a	6a 00		 push	 0
  0004c	e8 00 00 00 00	 call	 __CxxThrowException@8
$LN34@Uninit_mov:
$LN4@Uninit_mov:

; 436  : 	_CATCH_END
; 437  : 	return (_Dest);

  00051	8b 45 10	 mov	 eax, DWORD PTR __Dest$[ebp]

; 438  : 	}

  00054	e8 00 00 00 00	 call	 __EH_epilog3
  00059	c3		 ret	 0
$LN32@Uninit_mov:
_TEXT	ENDS
;	COMDAT text$x
text$x	SEGMENT
__ehhandler$??$_Uninit_move@PAVioHashString@@PAV1@V?$allocator@VioHashString@@@std@@V1@@std@@YAPAVioHashString@@PAV1@00AAV?$allocator@VioHashString@@@0@0U_Nonscalar_ptr_iterator_tag@0@@Z:
  00000	8b 54 24 08	 mov	 edx, DWORD PTR [esp+8]
  00004	8d 42 0c	 lea	 eax, DWORD PTR [edx+12]
  00007	8b 4a e8	 mov	 ecx, DWORD PTR [edx-24]
  0000a	33 c8		 xor	 ecx, eax
  0000c	e8 00 00 00 00	 call	 @__security_check_cookie@4
  00011	b8 00 00 00 00	 mov	 eax, OFFSET __ehfuncinfo$??$_Uninit_move@PAVioHashString@@PAV1@V?$allocator@VioHashString@@@std@@V1@@std@@YAPAVioHashString@@PAV1@00AAV?$allocator@VioHashString@@@0@0U_Nonscalar_ptr_iterator_tag@0@@Z
  00016	e9 00 00 00 00	 jmp	 ___CxxFrameHandler3
text$x	ENDS
??$_Uninit_move@PAVioHashString@@PAV1@V?$allocator@VioHashString@@@std@@V1@@std@@YAPAVioHashString@@PAV1@00AAV?$allocator@VioHashString@@@0@0U_Nonscalar_ptr_iterator_tag@0@@Z ENDP ; std::_Uninit_move<ioHashString *,ioHashString *,std::allocator<ioHashString>,ioHashString>
PUBLIC	??$_Destroy_range@V?$allocator@VioHashString@@@std@@@std@@YAXPAVioHashString@@0AAV?$allocator@VioHashString@@@0@U_Nonscalar_ptr_iterator_tag@0@@Z ; std::_Destroy_range<std::allocator<ioHashString> >
; Function compile flags: /Ogsp
; File c:\program files (x86)\microsoft visual studio 10.0\vc\include\xmemory
;	COMDAT ??$_Destroy_range@V?$allocator@VioHashString@@@std@@@std@@YAXPAVioHashString@@0AAV?$allocator@VioHashString@@@0@U_Nonscalar_ptr_iterator_tag@0@@Z
_TEXT	SEGMENT
__First$ = 8						; size = 4
__Last$ = 12						; size = 4
__Al$ = 16						; size = 4
___formal$ = 20						; size = 1
??$_Destroy_range@V?$allocator@VioHashString@@@std@@@std@@YAXPAVioHashString@@0AAV?$allocator@VioHashString@@@0@U_Nonscalar_ptr_iterator_tag@0@@Z PROC ; std::_Destroy_range<std::allocator<ioHashString> >, COMDAT

; 95   : 	{	// destroy [_First, _Last), arbitrary type

  00000	55		 push	 ebp
  00001	8b ec		 mov	 ebp, esp
  00003	56		 push	 esi

; 96   : 	for (; _First != _Last; ++_First)

  00004	8b 75 08	 mov	 esi, DWORD PTR __First$[ebp]
  00007	eb 0b		 jmp	 SHORT $LN17@Destroy_ra
$LL3@Destroy_ra:

; 97   : 		_Dest_val(_Al, _First);

  00009	8b ce		 mov	 ecx, esi
  0000b	ff 15 00 00 00
	00		 call	 DWORD PTR __imp_??1ioHashString@@QAE@XZ
  00011	83 c6 10	 add	 esi, 16			; 00000010H
$LN17@Destroy_ra:

; 96   : 	for (; _First != _Last; ++_First)

  00014	3b 75 0c	 cmp	 esi, DWORD PTR __Last$[ebp]
  00017	75 f0		 jne	 SHORT $LL3@Destroy_ra
  00019	5e		 pop	 esi

; 98   : 	}

  0001a	5d		 pop	 ebp
  0001b	c3		 ret	 0
??$_Destroy_range@V?$allocator@VioHashString@@@std@@@std@@YAXPAVioHashString@@0AAV?$allocator@VioHashString@@@0@U_Nonscalar_ptr_iterator_tag@0@@Z ENDP ; std::_Destroy_range<std::allocator<ioHashString> >
_TEXT	ENDS
PUBLIC	??$_Uninit_copy@V?$_Vector_const_iterator@V?$_Vector_val@VioHashString@@V?$allocator@VioHashString@@@std@@@std@@@std@@PAVioHashString@@V?$allocator@VioHashString@@@2@@std@@YAPAVioHashString@@V?$_Vector_const_iterator@V?$_Vector_val@VioHashString@@V?$allocator@VioHashString@@@std@@@std@@@0@0PAV1@AAV?$allocator@VioHashString@@@0@U_Nonscalar_ptr_iterator_tag@0@@Z ; std::_Uninit_copy<std::_Vector_const_iterator<std::_Vector_val<ioHashString,std::allocator<ioHashString> > >,ioHashString *,std::allocator<ioHashString> >
;	COMDAT xdata$x
; File c:\program files (x86)\microsoft visual studio 10.0\vc\include\vector
xdata$x	SEGMENT
__catchsym$??$_Uninit_copy@V?$_Vector_const_iterator@V?$_Vector_val@VioHashString@@V?$allocator@VioHashString@@@std@@@std@@@std@@PAVioHashString@@V?$allocator@VioHashString@@@2@@std@@YAPAVioHashString@@V?$_Vector_const_iterator@V?$_Vector_val@VioHashString@@V?$allocator@VioHashString@@@std@@@std@@@0@0PAV1@AAV?$allocator@VioHashString@@@0@U_Nonscalar_ptr_iterator_tag@0@@Z$2 DD 040H
	DD	00H
	DD	00H
	DD	FLAT:__catch$??$_Uninit_copy@V?$_Vector_const_iterator@V?$_Vector_val@VioHashString@@V?$allocator@VioHashString@@@std@@@std@@@std@@PAVioHashString@@V?$allocator@VioHashString@@@2@@std@@YAPAVioHashString@@V?$_Vector_const_iterator@V?$_Vector_val@VioHashString@@V?$allocator@VioHashString@@@std@@@std@@@0@0PAV1@AAV?$allocator@VioHashString@@@0@U_Nonscalar_ptr_iterator_tag@0@@Z$0
__unwindtable$??$_Uninit_copy@V?$_Vector_const_iterator@V?$_Vector_val@VioHashString@@V?$allocator@VioHashString@@@std@@@std@@@std@@PAVioHashString@@V?$allocator@VioHashString@@@2@@std@@YAPAVioHashString@@V?$_Vector_const_iterator@V?$_Vector_val@VioHashString@@V?$allocator@VioHashString@@@std@@@std@@@0@0PAV1@AAV?$allocator@VioHashString@@@0@U_Nonscalar_ptr_iterator_tag@0@@Z DD 0ffffffffH
	DD	00H
	DD	0ffffffffH
	DD	00H
__tryblocktable$??$_Uninit_copy@V?$_Vector_const_iterator@V?$_Vector_val@VioHashString@@V?$allocator@VioHashString@@@std@@@std@@@std@@PAVioHashString@@V?$allocator@VioHashString@@@2@@std@@YAPAVioHashString@@V?$_Vector_const_iterator@V?$_Vector_val@VioHashString@@V?$allocator@VioHashString@@@std@@@std@@@0@0PAV1@AAV?$allocator@VioHashString@@@0@U_Nonscalar_ptr_iterator_tag@0@@Z DD 00H
	DD	00H
	DD	01H
	DD	01H
	DD	FLAT:__catchsym$??$_Uninit_copy@V?$_Vector_const_iterator@V?$_Vector_val@VioHashString@@V?$allocator@VioHashString@@@std@@@std@@@std@@PAVioHashString@@V?$allocator@VioHashString@@@2@@std@@YAPAVioHashString@@V?$_Vector_const_iterator@V?$_Vector_val@VioHashString@@V?$allocator@VioHashString@@@std@@@std@@@0@0PAV1@AAV?$allocator@VioHashString@@@0@U_Nonscalar_ptr_iterator_tag@0@@Z$2
__ehfuncinfo$??$_Uninit_copy@V?$_Vector_const_iterator@V?$_Vector_val@VioHashString@@V?$allocator@VioHashString@@@std@@@std@@@std@@PAVioHashString@@V?$allocator@VioHashString@@@2@@std@@YAPAVioHashString@@V?$_Vector_const_iterator@V?$_Vector_val@VioHashString@@V?$allocator@VioHashString@@@std@@@std@@@0@0PAV1@AAV?$allocator@VioHashString@@@0@U_Nonscalar_ptr_iterator_tag@0@@Z DD 019930522H
	DD	02H
	DD	FLAT:__unwindtable$??$_Uninit_copy@V?$_Vector_const_iterator@V?$_Vector_val@VioHashString@@V?$allocator@VioHashString@@@std@@@std@@@std@@PAVioHashString@@V?$allocator@VioHashString@@@2@@std@@YAPAVioHashString@@V?$_Vector_const_iterator@V?$_Vector_val@VioHashString@@V?$allocator@VioHashString@@@std@@@std@@@0@0PAV1@AAV?$allocator@VioHashString@@@0@U_Nonscalar_ptr_iterator_tag@0@@Z
	DD	01H
	DD	FLAT:__tryblocktable$??$_Uninit_copy@V?$_Vector_const_iterator@V?$_Vector_val@VioHashString@@V?$allocator@VioHashString@@@std@@@std@@@std@@PAVioHashString@@V?$allocator@VioHashString@@@2@@std@@YAPAVioHashString@@V?$_Vector_const_iterator@V?$_Vector_val@VioHashString@@V?$allocator@VioHashString@@@std@@@std@@@0@0PAV1@AAV?$allocator@VioHashString@@@0@U_Nonscalar_ptr_iterator_tag@0@@Z
	DD	2 DUP(00H)
	DD	00H
	DD	01H
; Function compile flags: /Ogsp
; File c:\program files (x86)\microsoft visual studio 10.0\vc\include\memory
xdata$x	ENDS
;	COMDAT ??$_Uninit_copy@V?$_Vector_const_iterator@V?$_Vector_val@VioHashString@@V?$allocator@VioHashString@@@std@@@std@@@std@@PAVioHashString@@V?$allocator@VioHashString@@@2@@std@@YAPAVioHashString@@V?$_Vector_const_iterator@V?$_Vector_val@VioHashString@@V?$allocator@VioHashString@@@std@@@std@@@0@0PAV1@AAV?$allocator@VioHashString@@@0@U_Nonscalar_ptr_iterator_tag@0@@Z
_TEXT	SEGMENT
__Next$ = -20						; size = 4
__$EHRec$ = -16						; size = 16
__First$ = 8						; size = 4
__Last$ = 12						; size = 4
__Dest$ = 16						; size = 4
__Al$ = 20						; size = 4
___formal$ = 24						; size = 1
??$_Uninit_copy@V?$_Vector_const_iterator@V?$_Vector_val@VioHashString@@V?$allocator@VioHashString@@@std@@@std@@@std@@PAVioHashString@@V?$allocator@VioHashString@@@2@@std@@YAPAVioHashString@@V?$_Vector_const_iterator@V?$_Vector_val@VioHashString@@V?$allocator@VioHashString@@@std@@@std@@@0@0PAV1@AAV?$allocator@VioHashString@@@0@U_Nonscalar_ptr_iterator_tag@0@@Z PROC ; std::_Uninit_copy<std::_Vector_const_iterator<std::_Vector_val<ioHashString,std::allocator<ioHashString> > >,ioHashString *,std::allocator<ioHashString> >, COMDAT

; 369  : 	{	// copy [_First, _Last) to raw _Dest, using _Al, arbitrary type

  00000	6a 08		 push	 8
  00002	b8 00 00 00 00	 mov	 eax, __ehhandler$??$_Uninit_copy@V?$_Vector_const_iterator@V?$_Vector_val@VioHashString@@V?$allocator@VioHashString@@@std@@@std@@@std@@PAVioHashString@@V?$allocator@VioHashString@@@2@@std@@YAPAVioHashString@@V?$_Vector_const_iterator@V?$_Vector_val@VioHashString@@V?$allocator@VioHashString@@@std@@@std@@@0@0PAV1@AAV?$allocator@VioHashString@@@0@U_Nonscalar_ptr_iterator_tag@0@@Z
  00007	e8 00 00 00 00	 call	 __EH_prolog3_catch

; 370  : 	_DEBUG_RANGE(_First, _Last);
; 371  : 	_DEBUG_POINTER(_Dest);
; 372  : 	_FwdIt _Next = _Dest;

  0000c	8b 45 10	 mov	 eax, DWORD PTR __Dest$[ebp]

; 373  : 
; 374  : 	_TRY_BEGIN

  0000f	83 65 fc 00	 and	 DWORD PTR __$EHRec$[ebp+12], 0
  00013	89 45 ec	 mov	 DWORD PTR __Next$[ebp], eax

; 375  : 	for (; _First != _Last; ++_Dest, ++_First)

$LL14@Uninit_cop@2:
  00016	8b 45 08	 mov	 eax, DWORD PTR __First$[ebp]
  00019	3b 45 0c	 cmp	 eax, DWORD PTR __Last$[ebp]
  0001c	74 33		 je	 SHORT $LN4@Uninit_cop@2

; 376  : 		_Cons_val(_Al, _Dest, *_First);

  0001e	50		 push	 eax
  0001f	ff 75 10	 push	 DWORD PTR __Dest$[ebp]
  00022	e8 00 00 00 00	 call	 ??$_Construct@VioHashString@@ABV1@@std@@YAXPAVioHashString@@ABV1@@Z ; std::_Construct<ioHashString,ioHashString const &>
  00027	83 45 10 10	 add	 DWORD PTR __Dest$[ebp], 16 ; 00000010H
  0002b	83 45 08 10	 add	 DWORD PTR __First$[ebp], 16 ; 00000010H
  0002f	59		 pop	 ecx
  00030	59		 pop	 ecx
  00031	eb e3		 jmp	 SHORT $LL14@Uninit_cop@2
__catch$??$_Uninit_copy@V?$_Vector_const_iterator@V?$_Vector_val@VioHashString@@V?$allocator@VioHashString@@@std@@@std@@@std@@PAVioHashString@@V?$allocator@VioHashString@@@2@@std@@YAPAVioHashString@@V?$_Vector_const_iterator@V?$_Vector_val@VioHashString@@V?$allocator@VioHashString@@@std@@@std@@@0@0PAV1@AAV?$allocator@VioHashString@@@0@U_Nonscalar_ptr_iterator_tag@0@@Z$0:

; 377  : 	_CATCH_ALL
; 378  : 	for (; _Next != _Dest; ++_Next)

  00033	8b 75 ec	 mov	 esi, DWORD PTR __Next$[ebp]
  00036	eb 0b		 jmp	 SHORT $LN45@Uninit_cop@2
$LL3@Uninit_cop@2:

; 379  : 		_Dest_val(_Al, _Next);

  00038	8b ce		 mov	 ecx, esi
  0003a	ff 15 00 00 00
	00		 call	 DWORD PTR __imp_??1ioHashString@@QAE@XZ
  00040	83 c6 10	 add	 esi, 16			; 00000010H
$LN45@Uninit_cop@2:

; 377  : 	_CATCH_ALL
; 378  : 	for (; _Next != _Dest; ++_Next)

  00043	3b 75 10	 cmp	 esi, DWORD PTR __Dest$[ebp]
  00046	75 f0		 jne	 SHORT $LL3@Uninit_cop@2

; 380  : 	_RERAISE;

  00048	6a 00		 push	 0
  0004a	6a 00		 push	 0
  0004c	e8 00 00 00 00	 call	 __CxxThrowException@8
$LN46@Uninit_cop@2:
$LN4@Uninit_cop@2:

; 381  : 	_CATCH_END
; 382  : 	return (_Dest);

  00051	8b 45 10	 mov	 eax, DWORD PTR __Dest$[ebp]

; 383  : 	}

  00054	e8 00 00 00 00	 call	 __EH_epilog3
  00059	c3		 ret	 0
$LN44@Uninit_cop@2:
_TEXT	ENDS
;	COMDAT text$x
text$x	SEGMENT
__ehhandler$??$_Uninit_copy@V?$_Vector_const_iterator@V?$_Vector_val@VioHashString@@V?$allocator@VioHashString@@@std@@@std@@@std@@PAVioHashString@@V?$allocator@VioHashString@@@2@@std@@YAPAVioHashString@@V?$_Vector_const_iterator@V?$_Vector_val@VioHashString@@V?$allocator@VioHashString@@@std@@@std@@@0@0PAV1@AAV?$allocator@VioHashString@@@0@U_Nonscalar_ptr_iterator_tag@0@@Z:
  00000	8b 54 24 08	 mov	 edx, DWORD PTR [esp+8]
  00004	8d 42 0c	 lea	 eax, DWORD PTR [edx+12]
  00007	8b 4a e8	 mov	 ecx, DWORD PTR [edx-24]
  0000a	33 c8		 xor	 ecx, eax
  0000c	e8 00 00 00 00	 call	 @__security_check_cookie@4
  00011	b8 00 00 00 00	 mov	 eax, OFFSET __ehfuncinfo$??$_Uninit_copy@V?$_Vector_const_iterator@V?$_Vector_val@VioHashString@@V?$allocator@VioHashString@@@std@@@std@@@std@@PAVioHashString@@V?$allocator@VioHashString@@@2@@std@@YAPAVioHashString@@V?$_Vector_const_iterator@V?$_Vector_val@VioHashString@@V?$allocator@VioHashString@@@std@@@std@@@0@0PAV1@AAV?$allocator@VioHashString@@@0@U_Nonscalar_ptr_iterator_tag@0@@Z
  00016	e9 00 00 00 00	 jmp	 ___CxxFrameHandler3
text$x	ENDS
??$_Uninit_copy@V?$_Vector_const_iterator@V?$_Vector_val@VioHashString@@V?$allocator@VioHashString@@@std@@@std@@@std@@PAVioHashString@@V?$allocator@VioHashString@@@2@@std@@YAPAVioHashString@@V?$_Vector_const_iterator@V?$_Vector_val@VioHashString@@V?$allocator@VioHashString@@@std@@@std@@@0@0PAV1@AAV?$allocator@VioHashString@@@0@U_Nonscalar_ptr_iterator_tag@0@@Z ENDP ; std::_Uninit_copy<std::_Vector_const_iterator<std::_Vector_val<ioHashString,std::allocator<ioHashString> > >,ioHashString *,std::allocator<ioHashString> >
PUBLIC	??$_Uninitialized_copy@PAVioHashString@@PAV1@V?$allocator@VioHashString@@@std@@@std@@YAPAVioHashString@@PAV1@00AAV?$allocator@VioHashString@@@0@@Z ; std::_Uninitialized_copy<ioHashString *,ioHashString *,std::allocator<ioHashString> >
; Function compile flags: /Ogsp
;	COMDAT ??$_Uninitialized_copy@PAVioHashString@@PAV1@V?$allocator@VioHashString@@@std@@@std@@YAPAVioHashString@@PAV1@00AAV?$allocator@VioHashString@@@0@@Z
_TEXT	SEGMENT
__Cat$535995 = -4					; size = 1
__First$ = 8						; size = 4
__Last$ = 12						; size = 4
__Dest$ = 16						; size = 4
__Al$ = 20						; size = 4
??$_Uninitialized_copy@PAVioHashString@@PAV1@V?$allocator@VioHashString@@@std@@@std@@YAPAVioHashString@@PAV1@00AAV?$allocator@VioHashString@@@0@@Z PROC ; std::_Uninitialized_copy<ioHashString *,ioHashString *,std::allocator<ioHashString> >, COMDAT

; 412  : 	{	// copy [_First, _Last) to raw _Dest, using _Al

  00000	55		 push	 ebp
  00001	8b ec		 mov	 ebp, esp
  00003	51		 push	 ecx

; 413  : 	return (_Uninit_copy(_First, _Last, _Dest, _Al,
; 414  : 		_Ptr_cat(_First, _Dest)));

  00004	ff 75 fc	 push	 DWORD PTR __Cat$535995[ebp]
  00007	ff 75 14	 push	 DWORD PTR __Al$[ebp]
  0000a	ff 75 10	 push	 DWORD PTR __Dest$[ebp]
  0000d	ff 75 0c	 push	 DWORD PTR __Last$[ebp]
  00010	ff 75 08	 push	 DWORD PTR __First$[ebp]
  00013	e8 00 00 00 00	 call	 ??$_Uninit_copy@PAVioHashString@@PAV1@V?$allocator@VioHashString@@@std@@@std@@YAPAVioHashString@@PAV1@00AAV?$allocator@VioHashString@@@0@U_Nonscalar_ptr_iterator_tag@0@@Z ; std::_Uninit_copy<ioHashString *,ioHashString *,std::allocator<ioHashString> >
  00018	83 c4 14	 add	 esp, 20			; 00000014H

; 415  : 	}

  0001b	c9		 leave
  0001c	c3		 ret	 0
??$_Uninitialized_copy@PAVioHashString@@PAV1@V?$allocator@VioHashString@@@std@@@std@@YAPAVioHashString@@PAV1@00AAV?$allocator@VioHashString@@@0@@Z ENDP ; std::_Uninitialized_copy<ioHashString *,ioHashString *,std::allocator<ioHashString> >
_TEXT	ENDS
PUBLIC	??$_Uninitialized_move@PAVioHashString@@PAV1@V?$allocator@VioHashString@@@std@@@std@@YAPAVioHashString@@PAV1@00AAV?$allocator@VioHashString@@@0@@Z ; std::_Uninitialized_move<ioHashString *,ioHashString *,std::allocator<ioHashString> >
; Function compile flags: /Ogsp
;	COMDAT ??$_Uninitialized_move@PAVioHashString@@PAV1@V?$allocator@VioHashString@@@std@@@std@@YAPAVioHashString@@PAV1@00AAV?$allocator@VioHashString@@@0@@Z
_TEXT	SEGMENT
__Cat$536002 = -4					; size = 1
__First$ = 8						; size = 4
__Last$ = 12						; size = 4
__Dest$ = 16						; size = 4
__Al$ = 20						; size = 4
??$_Uninitialized_move@PAVioHashString@@PAV1@V?$allocator@VioHashString@@@std@@@std@@YAPAVioHashString@@PAV1@00AAV?$allocator@VioHashString@@@0@@Z PROC ; std::_Uninitialized_move<ioHashString *,ioHashString *,std::allocator<ioHashString> >, COMDAT

; 469  : 	{	// move [_First, _Last) to raw _Dest, using _Al

  00000	55		 push	 ebp
  00001	8b ec		 mov	 ebp, esp
  00003	51		 push	 ecx

; 470  : 	return (_Uninit_move(_First, _Last, _Dest, _Al,
; 471  : 		_Val_type(_First), _Ptr_cat(_First, _Dest)));

  00004	ff 75 fc	 push	 DWORD PTR __Cat$536002[ebp]
  00007	6a 00		 push	 0
  00009	ff 75 14	 push	 DWORD PTR __Al$[ebp]
  0000c	ff 75 10	 push	 DWORD PTR __Dest$[ebp]
  0000f	ff 75 0c	 push	 DWORD PTR __Last$[ebp]
  00012	ff 75 08	 push	 DWORD PTR __First$[ebp]
  00015	e8 00 00 00 00	 call	 ??$_Uninit_move@PAVioHashString@@PAV1@V?$allocator@VioHashString@@@std@@V1@@std@@YAPAVioHashString@@PAV1@00AAV?$allocator@VioHashString@@@0@0U_Nonscalar_ptr_iterator_tag@0@@Z ; std::_Uninit_move<ioHashString *,ioHashString *,std::allocator<ioHashString>,ioHashString>
  0001a	83 c4 18	 add	 esp, 24			; 00000018H

; 472  : 	}

  0001d	c9		 leave
  0001e	c3		 ret	 0
??$_Uninitialized_move@PAVioHashString@@PAV1@V?$allocator@VioHashString@@@std@@@std@@YAPAVioHashString@@PAV1@00AAV?$allocator@VioHashString@@@0@@Z ENDP ; std::_Uninitialized_move<ioHashString *,ioHashString *,std::allocator<ioHashString> >
_TEXT	ENDS
PUBLIC	??$_Destroy_range@V?$allocator@VioHashString@@@std@@@std@@YAXPAVioHashString@@0AAV?$allocator@VioHashString@@@0@@Z ; std::_Destroy_range<std::allocator<ioHashString> >
; Function compile flags: /Ogsp
; File c:\program files (x86)\microsoft visual studio 10.0\vc\include\xmemory
;	COMDAT ??$_Destroy_range@V?$allocator@VioHashString@@@std@@@std@@YAXPAVioHashString@@0AAV?$allocator@VioHashString@@@0@@Z
_TEXT	SEGMENT
__First$ = 8						; size = 4
__Last$ = 12						; size = 4
__Al$ = 16						; size = 4
??$_Destroy_range@V?$allocator@VioHashString@@@std@@@std@@YAXPAVioHashString@@0AAV?$allocator@VioHashString@@@0@@Z PROC ; std::_Destroy_range<std::allocator<ioHashString> >, COMDAT

; 87   : 	{	// destroy [_First, _Last)

  00000	55		 push	 ebp
  00001	8b ec		 mov	 ebp, esp
  00003	56		 push	 esi

; 88   : 	_Destroy_range(_First, _Last, _Al, _Ptr_cat(_First, _Last));

  00004	8b 75 08	 mov	 esi, DWORD PTR __First$[ebp]
  00007	eb 0b		 jmp	 SHORT $LN21@Destroy_ra@2
$LL7@Destroy_ra@2:
  00009	8b ce		 mov	 ecx, esi
  0000b	ff 15 00 00 00
	00		 call	 DWORD PTR __imp_??1ioHashString@@QAE@XZ
  00011	83 c6 10	 add	 esi, 16			; 00000010H
$LN21@Destroy_ra@2:
  00014	3b 75 0c	 cmp	 esi, DWORD PTR __Last$[ebp]
  00017	75 f0		 jne	 SHORT $LL7@Destroy_ra@2
  00019	5e		 pop	 esi

; 89   : 	}

  0001a	5d		 pop	 ebp
  0001b	c3		 ret	 0
??$_Destroy_range@V?$allocator@VioHashString@@@std@@@std@@YAXPAVioHashString@@0AAV?$allocator@VioHashString@@@0@@Z ENDP ; std::_Destroy_range<std::allocator<ioHashString> >
_TEXT	ENDS
PUBLIC	??$_Uninitialized_copy@V?$_Vector_const_iterator@V?$_Vector_val@VioHashString@@V?$allocator@VioHashString@@@std@@@std@@@std@@PAVioHashString@@V?$allocator@VioHashString@@@2@@std@@YAPAVioHashString@@V?$_Vector_const_iterator@V?$_Vector_val@VioHashString@@V?$allocator@VioHashString@@@std@@@std@@@0@0PAV1@AAV?$allocator@VioHashString@@@0@@Z ; std::_Uninitialized_copy<std::_Vector_const_iterator<std::_Vector_val<ioHashString,std::allocator<ioHashString> > >,ioHashString *,std::allocator<ioHashString> >
; Function compile flags: /Ogsp
; File c:\program files (x86)\microsoft visual studio 10.0\vc\include\memory
;	COMDAT ??$_Uninitialized_copy@V?$_Vector_const_iterator@V?$_Vector_val@VioHashString@@V?$allocator@VioHashString@@@std@@@std@@@std@@PAVioHashString@@V?$allocator@VioHashString@@@2@@std@@YAPAVioHashString@@V?$_Vector_const_iterator@V?$_Vector_val@VioHashString@@V?$allocator@VioHashString@@@std@@@std@@@0@0PAV1@AAV?$allocator@VioHashString@@@0@@Z
_TEXT	SEGMENT
__Cat$536066 = -4					; size = 1
__First$ = 8						; size = 4
__Last$ = 12						; size = 4
__Dest$ = 16						; size = 4
__Al$ = 20						; size = 4
??$_Uninitialized_copy@V?$_Vector_const_iterator@V?$_Vector_val@VioHashString@@V?$allocator@VioHashString@@@std@@@std@@@std@@PAVioHashString@@V?$allocator@VioHashString@@@2@@std@@YAPAVioHashString@@V?$_Vector_const_iterator@V?$_Vector_val@VioHashString@@V?$allocator@VioHashString@@@std@@@std@@@0@0PAV1@AAV?$allocator@VioHashString@@@0@@Z PROC ; std::_Uninitialized_copy<std::_Vector_const_iterator<std::_Vector_val<ioHashString,std::allocator<ioHashString> > >,ioHashString *,std::allocator<ioHashString> >, COMDAT

; 412  : 	{	// copy [_First, _Last) to raw _Dest, using _Al

  00000	55		 push	 ebp
  00001	8b ec		 mov	 ebp, esp
  00003	51		 push	 ecx

; 413  : 	return (_Uninit_copy(_First, _Last, _Dest, _Al,
; 414  : 		_Ptr_cat(_First, _Dest)));

  00004	ff 75 fc	 push	 DWORD PTR __Cat$536066[ebp]
  00007	ff 75 14	 push	 DWORD PTR __Al$[ebp]
  0000a	ff 75 10	 push	 DWORD PTR __Dest$[ebp]
  0000d	ff 75 0c	 push	 DWORD PTR __Last$[ebp]
  00010	ff 75 08	 push	 DWORD PTR __First$[ebp]
  00013	e8 00 00 00 00	 call	 ??$_Uninit_copy@V?$_Vector_const_iterator@V?$_Vector_val@VioHashString@@V?$allocator@VioHashString@@@std@@@std@@@std@@PAVioHashString@@V?$allocator@VioHashString@@@2@@std@@YAPAVioHashString@@V?$_Vector_const_iterator@V?$_Vector_val@VioHashString@@V?$allocator@VioHashString@@@std@@@std@@@0@0PAV1@AAV?$allocator@VioHashString@@@0@U_Nonscalar_ptr_iterator_tag@0@@Z ; std::_Uninit_copy<std::_Vector_const_iterator<std::_Vector_val<ioHashString,std::allocator<ioHashString> > >,ioHashString *,std::allocator<ioHashString> >
  00018	83 c4 14	 add	 esp, 20			; 00000014H

; 415  : 	}

  0001b	c9		 leave
  0001c	c3		 ret	 0
??$_Uninitialized_copy@V?$_Vector_const_iterator@V?$_Vector_val@VioHashString@@V?$allocator@VioHashString@@@std@@@std@@@std@@PAVioHashString@@V?$allocator@VioHashString@@@2@@std@@YAPAVioHashString@@V?$_Vector_const_iterator@V?$_Vector_val@VioHashString@@V?$allocator@VioHashString@@@std@@@std@@@0@0PAV1@AAV?$allocator@VioHashString@@@0@@Z ENDP ; std::_Uninitialized_copy<std::_Vector_const_iterator<std::_Vector_val<ioHashString,std::allocator<ioHashString> > >,ioHashString *,std::allocator<ioHashString> >
_TEXT	ENDS
PUBLIC	??$_Ucopy@PAVioHashString@@@?$vector@VioHashString@@V?$allocator@VioHashString@@@std@@@std@@IAEPAVioHashString@@PAV2@00@Z ; std::vector<ioHashString,std::allocator<ioHashString> >::_Ucopy<ioHashString *>
; Function compile flags: /Ogsp
; File c:\program files (x86)\microsoft visual studio 10.0\vc\include\vector
;	COMDAT ??$_Ucopy@PAVioHashString@@@?$vector@VioHashString@@V?$allocator@VioHashString@@@std@@@std@@IAEPAVioHashString@@PAV2@00@Z
_TEXT	SEGMENT
__First$ = 8						; size = 4
__Last$ = 12						; size = 4
__Cat$536079 = 16					; size = 1
__Ptr$ = 16						; size = 4
??$_Ucopy@PAVioHashString@@@?$vector@VioHashString@@V?$allocator@VioHashString@@@std@@@std@@IAEPAVioHashString@@PAV2@00@Z PROC ; std::vector<ioHashString,std::allocator<ioHashString> >::_Ucopy<ioHashString *>, COMDAT
; _this$ = ecx

; 1315 : 		pointer _Ucopy(_Iter _First, _Iter _Last, pointer _Ptr)

  00000	55		 push	 ebp
  00001	8b ec		 mov	 ebp, esp

; 1316 : 		{	// copy initializing [_First, _Last), using allocator
; 1317 : 		return (_Uninitialized_copy(_First, _Last,
; 1318 : 			_Ptr, this->_Alval));

  00003	ff 75 10	 push	 DWORD PTR __Cat$536079[ebp]
  00006	83 c1 0c	 add	 ecx, 12			; 0000000cH
  00009	51		 push	 ecx
  0000a	ff 75 10	 push	 DWORD PTR __Ptr$[ebp]
  0000d	ff 75 0c	 push	 DWORD PTR __Last$[ebp]
  00010	ff 75 08	 push	 DWORD PTR __First$[ebp]
  00013	e8 00 00 00 00	 call	 ??$_Uninit_copy@PAVioHashString@@PAV1@V?$allocator@VioHashString@@@std@@@std@@YAPAVioHashString@@PAV1@00AAV?$allocator@VioHashString@@@0@U_Nonscalar_ptr_iterator_tag@0@@Z ; std::_Uninit_copy<ioHashString *,ioHashString *,std::allocator<ioHashString> >
  00018	83 c4 14	 add	 esp, 20			; 00000014H

; 1319 : 		}

  0001b	5d		 pop	 ebp
  0001c	c2 0c 00	 ret	 12			; 0000000cH
??$_Ucopy@PAVioHashString@@@?$vector@VioHashString@@V?$allocator@VioHashString@@@std@@@std@@IAEPAVioHashString@@PAV2@00@Z ENDP ; std::vector<ioHashString,std::allocator<ioHashString> >::_Ucopy<ioHashString *>
_TEXT	ENDS
PUBLIC	??$_Umove@PAVioHashString@@@?$vector@VioHashString@@V?$allocator@VioHashString@@@std@@@std@@IAEPAVioHashString@@PAV2@00@Z ; std::vector<ioHashString,std::allocator<ioHashString> >::_Umove<ioHashString *>
; Function compile flags: /Ogsp
;	COMDAT ??$_Umove@PAVioHashString@@@?$vector@VioHashString@@V?$allocator@VioHashString@@@std@@@std@@IAEPAVioHashString@@PAV2@00@Z
_TEXT	SEGMENT
__First$ = 8						; size = 4
__Last$ = 12						; size = 4
__Ptr$ = 16						; size = 4
??$_Umove@PAVioHashString@@@?$vector@VioHashString@@V?$allocator@VioHashString@@@std@@@std@@IAEPAVioHashString@@PAV2@00@Z PROC ; std::vector<ioHashString,std::allocator<ioHashString> >::_Umove<ioHashString *>, COMDAT
; _this$ = ecx

; 1322 : 		pointer _Umove(_Iter _First, _Iter _Last, pointer _Ptr)

  00000	55		 push	 ebp
  00001	8b ec		 mov	 ebp, esp

; 1323 : 		{	// move initializing [_First, _Last), using allocator
; 1324 : 		return (_Uninitialized_move(_First, _Last,
; 1325 : 			_Ptr, this->_Alval));

  00003	83 c1 0c	 add	 ecx, 12			; 0000000cH
  00006	51		 push	 ecx
  00007	ff 75 10	 push	 DWORD PTR __Ptr$[ebp]
  0000a	ff 75 0c	 push	 DWORD PTR __Last$[ebp]
  0000d	ff 75 08	 push	 DWORD PTR __First$[ebp]
  00010	e8 00 00 00 00	 call	 ??$_Uninitialized_move@PAVioHashString@@PAV1@V?$allocator@VioHashString@@@std@@@std@@YAPAVioHashString@@PAV1@00AAV?$allocator@VioHashString@@@0@@Z ; std::_Uninitialized_move<ioHashString *,ioHashString *,std::allocator<ioHashString> >
  00015	83 c4 10	 add	 esp, 16			; 00000010H

; 1326 : 		}

  00018	5d		 pop	 ebp
  00019	c2 0c 00	 ret	 12			; 0000000cH
??$_Umove@PAVioHashString@@@?$vector@VioHashString@@V?$allocator@VioHashString@@@std@@@std@@IAEPAVioHashString@@PAV2@00@Z ENDP ; std::vector<ioHashString,std::allocator<ioHashString> >::_Umove<ioHashString *>
_TEXT	ENDS
PUBLIC	?_Destroy@?$vector@VioHashString@@V?$allocator@VioHashString@@@std@@@std@@IAEXPAVioHashString@@0@Z ; std::vector<ioHashString,std::allocator<ioHashString> >::_Destroy
; Function compile flags: /Ogsp
;	COMDAT ?_Destroy@?$vector@VioHashString@@V?$allocator@VioHashString@@@std@@@std@@IAEXPAVioHashString@@0@Z
_TEXT	SEGMENT
__First$ = 8						; size = 4
__Last$ = 12						; size = 4
?_Destroy@?$vector@VioHashString@@V?$allocator@VioHashString@@@std@@@std@@IAEXPAVioHashString@@0@Z PROC ; std::vector<ioHashString,std::allocator<ioHashString> >::_Destroy, COMDAT
; _this$ = ecx

; 1269 : 		{	// destroy [_First, _Last) using allocator

  00000	55		 push	 ebp
  00001	8b ec		 mov	 ebp, esp
  00003	56		 push	 esi

; 1270 : 		_Destroy_range(_First, _Last, this->_Alval);

  00004	8b 75 08	 mov	 esi, DWORD PTR __First$[ebp]
  00007	eb 0b		 jmp	 SHORT $LN23@Destroy
$LL9@Destroy:
  00009	8b ce		 mov	 ecx, esi
  0000b	ff 15 00 00 00
	00		 call	 DWORD PTR __imp_??1ioHashString@@QAE@XZ
  00011	83 c6 10	 add	 esi, 16			; 00000010H
$LN23@Destroy:
  00014	3b 75 0c	 cmp	 esi, DWORD PTR __Last$[ebp]
  00017	75 f0		 jne	 SHORT $LL9@Destroy
  00019	5e		 pop	 esi

; 1271 : 		}

  0001a	5d		 pop	 ebp
  0001b	c2 08 00	 ret	 8
?_Destroy@?$vector@VioHashString@@V?$allocator@VioHashString@@@std@@@std@@IAEXPAVioHashString@@0@Z ENDP ; std::vector<ioHashString,std::allocator<ioHashString> >::_Destroy
_TEXT	ENDS
PUBLIC	??$_Ucopy@V?$_Vector_const_iterator@V?$_Vector_val@VioHashString@@V?$allocator@VioHashString@@@std@@@std@@@std@@@?$vector@VioHashString@@V?$allocator@VioHashString@@@std@@@std@@IAEPAVioHashString@@V?$_Vector_const_iterator@V?$_Vector_val@VioHashString@@V?$allocator@VioHashString@@@std@@@std@@@1@0PAV2@@Z ; std::vector<ioHashString,std::allocator<ioHashString> >::_Ucopy<std::_Vector_const_iterator<std::_Vector_val<ioHashString,std::allocator<ioHashString> > > >
; Function compile flags: /Ogsp
;	COMDAT ??$_Ucopy@V?$_Vector_const_iterator@V?$_Vector_val@VioHashString@@V?$allocator@VioHashString@@@std@@@std@@@std@@@?$vector@VioHashString@@V?$allocator@VioHashString@@@std@@@std@@IAEPAVioHashString@@V?$_Vector_const_iterator@V?$_Vector_val@VioHashString@@V?$allocator@VioHashString@@@std@@@std@@@1@0PAV2@@Z
_TEXT	SEGMENT
__First$ = 8						; size = 4
__Last$ = 12						; size = 4
__Cat$536171 = 16					; size = 1
__Ptr$ = 16						; size = 4
??$_Ucopy@V?$_Vector_const_iterator@V?$_Vector_val@VioHashString@@V?$allocator@VioHashString@@@std@@@std@@@std@@@?$vector@VioHashString@@V?$allocator@VioHashString@@@std@@@std@@IAEPAVioHashString@@V?$_Vector_const_iterator@V?$_Vector_val@VioHashString@@V?$allocator@VioHashString@@@std@@@std@@@1@0PAV2@@Z PROC ; std::vector<ioHashString,std::allocator<ioHashString> >::_Ucopy<std::_Vector_const_iterator<std::_Vector_val<ioHashString,std::allocator<ioHashString> > > >, COMDAT
; _this$ = ecx

; 1315 : 		pointer _Ucopy(_Iter _First, _Iter _Last, pointer _Ptr)

  00000	55		 push	 ebp
  00001	8b ec		 mov	 ebp, esp

; 1316 : 		{	// copy initializing [_First, _Last), using allocator
; 1317 : 		return (_Uninitialized_copy(_First, _Last,
; 1318 : 			_Ptr, this->_Alval));

  00003	ff 75 10	 push	 DWORD PTR __Cat$536171[ebp]
  00006	83 c1 0c	 add	 ecx, 12			; 0000000cH
  00009	51		 push	 ecx
  0000a	ff 75 10	 push	 DWORD PTR __Ptr$[ebp]
  0000d	ff 75 0c	 push	 DWORD PTR __Last$[ebp]
  00010	ff 75 08	 push	 DWORD PTR __First$[ebp]
  00013	e8 00 00 00 00	 call	 ??$_Uninit_copy@V?$_Vector_const_iterator@V?$_Vector_val@VioHashString@@V?$allocator@VioHashString@@@std@@@std@@@std@@PAVioHashString@@V?$allocator@VioHashString@@@2@@std@@YAPAVioHashString@@V?$_Vector_const_iterator@V?$_Vector_val@VioHashString@@V?$allocator@VioHashString@@@std@@@std@@@0@0PAV1@AAV?$allocator@VioHashString@@@0@U_Nonscalar_ptr_iterator_tag@0@@Z ; std::_Uninit_copy<std::_Vector_const_iterator<std::_Vector_val<ioHashString,std::allocator<ioHashString> > >,ioHashString *,std::allocator<ioHashString> >
  00018	83 c4 14	 add	 esp, 20			; 00000014H

; 1319 : 		}

  0001b	5d		 pop	 ebp
  0001c	c2 0c 00	 ret	 12			; 0000000cH
??$_Ucopy@V?$_Vector_const_iterator@V?$_Vector_val@VioHashString@@V?$allocator@VioHashString@@@std@@@std@@@std@@@?$vector@VioHashString@@V?$allocator@VioHashString@@@std@@@std@@IAEPAVioHashString@@V?$_Vector_const_iterator@V?$_Vector_val@VioHashString@@V?$allocator@VioHashString@@@std@@@std@@@1@0PAV2@@Z ENDP ; std::vector<ioHashString,std::allocator<ioHashString> >::_Ucopy<std::_Vector_const_iterator<std::_Vector_val<ioHashString,std::allocator<ioHashString> > > >
_TEXT	ENDS
PUBLIC	?reserve@?$vector@VioHashString@@V?$allocator@VioHashString@@@std@@@std@@QAEXI@Z ; std::vector<ioHashString,std::allocator<ioHashString> >::reserve
EXTRN	__imp_?_Orphan_all@_Container_base0@std@@QAEXXZ:PROC
;	COMDAT xdata$x
; File c:\program files (x86)\microsoft visual studio 10.0\vc\include\xmemory
xdata$x	SEGMENT
__catchsym$?reserve@?$vector@VioHashString@@V?$allocator@VioHashString@@@std@@@std@@QAEXI@Z$2 DD 040H
	DD	00H
	DD	00H
	DD	FLAT:__catch$?reserve@?$vector@VioHashString@@V?$allocator@VioHashString@@@std@@@std@@QAEXI@Z$0
__unwindtable$?reserve@?$vector@VioHashString@@V?$allocator@VioHashString@@@std@@@std@@QAEXI@Z DD 0ffffffffH
	DD	00H
	DD	0ffffffffH
	DD	00H
__tryblocktable$?reserve@?$vector@VioHashString@@V?$allocator@VioHashString@@@std@@@std@@QAEXI@Z DD 00H
	DD	00H
	DD	01H
	DD	01H
	DD	FLAT:__catchsym$?reserve@?$vector@VioHashString@@V?$allocator@VioHashString@@@std@@@std@@QAEXI@Z$2
__ehfuncinfo$?reserve@?$vector@VioHashString@@V?$allocator@VioHashString@@@std@@@std@@QAEXI@Z DD 019930522H
	DD	02H
	DD	FLAT:__unwindtable$?reserve@?$vector@VioHashString@@V?$allocator@VioHashString@@@std@@@std@@QAEXI@Z
	DD	01H
	DD	FLAT:__tryblocktable$?reserve@?$vector@VioHashString@@V?$allocator@VioHashString@@@std@@@std@@QAEXI@Z
	DD	2 DUP(00H)
	DD	00H
	DD	01H
; Function compile flags: /Ogsp
; File c:\program files (x86)\microsoft visual studio 10.0\vc\include\vector
xdata$x	ENDS
;	COMDAT ?reserve@?$vector@VioHashString@@V?$allocator@VioHashString@@@std@@@std@@QAEXI@Z
_TEXT	SEGMENT
tv300 = -24						; size = 4
__Ptr$532153 = -20					; size = 4
__$EHRec$ = -16						; size = 16
$T536268 = 8						; size = 4
__Count$ = 8						; size = 4
?reserve@?$vector@VioHashString@@V?$allocator@VioHashString@@@std@@@std@@QAEXI@Z PROC ; std::vector<ioHashString,std::allocator<ioHashString> >::reserve, COMDAT
; _this$ = ecx

; 746  : 		{	// determine new minimum length of allocated storage

  00000	6a 0c		 push	 12			; 0000000cH
  00002	b8 00 00 00 00	 mov	 eax, __ehhandler$?reserve@?$vector@VioHashString@@V?$allocator@VioHashString@@@std@@@std@@QAEXI@Z
  00007	e8 00 00 00 00	 call	 __EH_prolog3_catch
  0000c	8b f1		 mov	 esi, ecx

; 747  : 		if (max_size() < _Count)

  0000e	8b 5d 08	 mov	 ebx, DWORD PTR __Count$[ebp]
  00011	81 fb ff ff ff
	0f		 cmp	 ebx, 268435455		; 0fffffffH
  00017	76 0b		 jbe	 SHORT $LN5@reserve

; 748  : 			_Xlen();	// result too long

  00019	68 00 00 00 00	 push	 OFFSET ??_C@_0BD@OLBABOEK@vector?$DMT?$DO?5too?5long?$AA@
  0001e	ff 15 00 00 00
	00		 call	 DWORD PTR __imp_?_Xlength_error@std@@YAXPBD@Z
$LN59@reserve:
$LN5@reserve:

; 749  : 		else if (capacity() < _Count)

  00024	8b 46 08	 mov	 eax, DWORD PTR [esi+8]
  00027	2b 06		 sub	 eax, DWORD PTR [esi]
  00029	c1 f8 04	 sar	 eax, 4
  0002c	3b c3		 cmp	 eax, ebx
  0002e	73 7a		 jae	 SHORT $LN3@reserve

; 750  : 			{	// not enough room, reallocate
; 751  : 			pointer _Ptr = this->_Alval.allocate(_Count);

  00030	6a 00		 push	 0
  00032	53		 push	 ebx
  00033	e8 00 00 00 00	 call	 ??$_Allocate@VioHashString@@@std@@YAPAVioHashString@@IPAV1@@Z ; std::_Allocate<ioHashString>

; 752  : 
; 753  : 			_TRY_BEGIN
; 754  : 			_Umove(this->_Myfirst, this->_Mylast, _Ptr);

  00038	8b 0e		 mov	 ecx, DWORD PTR [esi]
  0003a	83 65 fc 00	 and	 DWORD PTR __$EHRec$[ebp+12], 0
  0003e	8d 56 0c	 lea	 edx, DWORD PTR [esi+12]
  00041	52		 push	 edx
  00042	89 45 ec	 mov	 DWORD PTR __Ptr$532153[ebp], eax
  00045	ff 75 ec	 push	 DWORD PTR __Ptr$532153[ebp]
  00048	8b 46 04	 mov	 eax, DWORD PTR [esi+4]
  0004b	50		 push	 eax
  0004c	51		 push	 ecx
  0004d	e8 00 00 00 00	 call	 ??$_Uninitialized_move@PAVioHashString@@PAV1@V?$allocator@VioHashString@@@std@@@std@@YAPAVioHashString@@PAV1@00AAV?$allocator@VioHashString@@@0@@Z ; std::_Uninitialized_move<ioHashString *,ioHashString *,std::allocator<ioHashString> >

; 758  : 			_CATCH_END
; 759  : 
; 760  : 			size_type _Size = size();

  00052	8b 4e 04	 mov	 ecx, DWORD PTR [esi+4]
  00055	8b 06		 mov	 eax, DWORD PTR [esi]
  00057	83 4d fc ff	 or	 DWORD PTR __$EHRec$[ebp+12], -1
  0005b	8b f9		 mov	 edi, ecx
  0005d	83 c4 18	 add	 esp, 24			; 00000018H
  00060	2b f8		 sub	 edi, eax
  00062	89 4d e8	 mov	 DWORD PTR tv300[ebp], ecx
  00065	85 c0		 test	 eax, eax
  00067	74 24		 je	 SHORT $LN51@reserve

; 761  : 			if (this->_Myfirst != 0)
; 762  : 				{	// destroy and deallocate old array
; 763  : 				_Destroy(this->_Myfirst, this->_Mylast);

  00069	89 45 08	 mov	 DWORD PTR $T536268[ebp], eax
  0006c	3b c1		 cmp	 eax, ecx
  0006e	74 15		 je	 SHORT $LN37@reserve
$LN39@reserve:
  00070	8b 4d 08	 mov	 ecx, DWORD PTR $T536268[ebp]
  00073	ff 15 00 00 00
	00		 call	 DWORD PTR __imp_??1ioHashString@@QAE@XZ
  00079	83 45 08 10	 add	 DWORD PTR $T536268[ebp], 16 ; 00000010H
  0007d	8b 45 08	 mov	 eax, DWORD PTR $T536268[ebp]
  00080	3b 45 e8	 cmp	 eax, DWORD PTR tv300[ebp]
  00083	75 eb		 jne	 SHORT $LN39@reserve
$LN37@reserve:

; 764  : 				this->_Alval.deallocate(this->_Myfirst,
; 765  : 					this->_Myend - this->_Myfirst);

  00085	ff 36		 push	 DWORD PTR [esi]
  00087	e8 00 00 00 00	 call	 ??3@YAXPAX@Z		; operator delete
  0008c	59		 pop	 ecx
$LN51@reserve:

; 766  : 				}
; 767  : 
; 768  : 			this->_Orphan_all();

  0008d	8b ce		 mov	 ecx, esi
  0008f	ff 15 00 00 00
	00		 call	 DWORD PTR __imp_?_Orphan_all@_Container_base0@std@@QAEXXZ

; 769  : 			this->_Myend = _Ptr + _Count;

  00095	8b 45 ec	 mov	 eax, DWORD PTR __Ptr$532153[ebp]
  00098	c1 e3 04	 shl	 ebx, 4
  0009b	03 d8		 add	 ebx, eax

; 770  : 			this->_Mylast = _Ptr + _Size;

  0009d	83 e7 f0	 and	 edi, -16		; fffffff0H
  000a0	03 f8		 add	 edi, eax
  000a2	89 5e 08	 mov	 DWORD PTR [esi+8], ebx
  000a5	89 7e 04	 mov	 DWORD PTR [esi+4], edi

; 771  : 			this->_Myfirst = _Ptr;

  000a8	89 06		 mov	 DWORD PTR [esi], eax
$LN3@reserve:

; 772  : 			}
; 773  : 		}

  000aa	e8 00 00 00 00	 call	 __EH_epilog3
  000af	c2 04 00	 ret	 4
__catch$?reserve@?$vector@VioHashString@@V?$allocator@VioHashString@@@std@@@std@@QAEXI@Z$0:

; 755  : 			_CATCH_ALL
; 756  : 			this->_Alval.deallocate(_Ptr, _Count);

  000b2	ff 75 ec	 push	 DWORD PTR __Ptr$532153[ebp]
  000b5	e8 00 00 00 00	 call	 ??3@YAXPAX@Z		; operator delete
  000ba	59		 pop	 ecx

; 757  : 			_RERAISE;

  000bb	6a 00		 push	 0
  000bd	6a 00		 push	 0
  000bf	e8 00 00 00 00	 call	 __CxxThrowException@8
$LN60@reserve:
$LN58@reserve:
  000c4	cc		 int	 3
_TEXT	ENDS
;	COMDAT text$x
text$x	SEGMENT
__ehhandler$?reserve@?$vector@VioHashString@@V?$allocator@VioHashString@@@std@@@std@@QAEXI@Z:
  00000	8b 54 24 08	 mov	 edx, DWORD PTR [esp+8]
  00004	8d 42 0c	 lea	 eax, DWORD PTR [edx+12]
  00007	8b 4a e4	 mov	 ecx, DWORD PTR [edx-28]
  0000a	33 c8		 xor	 ecx, eax
  0000c	e8 00 00 00 00	 call	 @__security_check_cookie@4
  00011	b8 00 00 00 00	 mov	 eax, OFFSET __ehfuncinfo$?reserve@?$vector@VioHashString@@V?$allocator@VioHashString@@@std@@@std@@QAEXI@Z
  00016	e9 00 00 00 00	 jmp	 ___CxxFrameHandler3
text$x	ENDS
?reserve@?$vector@VioHashString@@V?$allocator@VioHashString@@@std@@@std@@QAEXI@Z ENDP ; std::vector<ioHashString,std::allocator<ioHashString> >::reserve
PUBLIC	?erase@?$vector@VioHashString@@V?$allocator@VioHashString@@@std@@@std@@QAE?AV?$_Vector_iterator@V?$_Vector_val@VioHashString@@V?$allocator@VioHashString@@@std@@@std@@@2@V?$_Vector_const_iterator@V?$_Vector_val@VioHashString@@V?$allocator@VioHashString@@@std@@@std@@@2@0@Z ; std::vector<ioHashString,std::allocator<ioHashString> >::erase
; Function compile flags: /Ogsp
;	COMDAT ?erase@?$vector@VioHashString@@V?$allocator@VioHashString@@@std@@@std@@QAE?AV?$_Vector_iterator@V?$_Vector_val@VioHashString@@V?$allocator@VioHashString@@@std@@@std@@@2@V?$_Vector_const_iterator@V?$_Vector_val@VioHashString@@V?$allocator@VioHashString@@@std@@@std@@@2@0@Z
_TEXT	SEGMENT
$T536463 = -4						; size = 4
___$ReturnUdt$ = 8					; size = 4
__First_arg$ = 12					; size = 4
__Cat$536407 = 16					; size = 1
__Last_arg$ = 16					; size = 4
?erase@?$vector@VioHashString@@V?$allocator@VioHashString@@@std@@@std@@QAE?AV?$_Vector_iterator@V?$_Vector_val@VioHashString@@V?$allocator@VioHashString@@@std@@@std@@@2@V?$_Vector_const_iterator@V?$_Vector_val@VioHashString@@V?$allocator@VioHashString@@@std@@@std@@@2@0@Z PROC ; std::vector<ioHashString,std::allocator<ioHashString> >::erase, COMDAT
; _this$ = ecx

; 1190 : 		{	// erase [_First, _Last)

  00000	55		 push	 ebp
  00001	8b ec		 mov	 ebp, esp
  00003	51		 push	 ecx

; 1191 : 		iterator _First = _Make_iter(_First_arg);

  00004	8b 45 08	 mov	 eax, DWORD PTR ___$ReturnUdt$[ebp]
  00007	56		 push	 esi
  00008	8b f1		 mov	 esi, ecx
  0000a	8b 4d 0c	 mov	 ecx, DWORD PTR __First_arg$[ebp]
  0000d	89 08		 mov	 DWORD PTR [eax], ecx

; 1192 : 		iterator _Last = _Make_iter(_Last_arg);
; 1193 : 
; 1194 : 		if (_First != _Last)

  0000f	3b 4d 10	 cmp	 ecx, DWORD PTR __Last_arg$[ebp]
  00012	74 38		 je	 SHORT $LN1@erase

; 1195 : 			{	// worth doing, copy down over hole
; 1196 :  #if _ITERATOR_DEBUG_LEVEL == 2
; 1197 : 			if (_Last < _First || _VICONT(_First) != this
; 1198 : 				|| _VIPTR(_First) < this->_Myfirst
; 1199 : 				|| this->_Mylast < _VIPTR(_Last))
; 1200 : 				_DEBUG_ERROR("vector erase iterator outside range");
; 1201 : 			pointer _Ptr = _Move(_VIPTR(_Last), this->_Mylast,
; 1202 : 				_VIPTR(_First));
; 1203 : 			_Orphan_range(_VIPTR(_First), this->_Mylast);
; 1204 : 
; 1205 :  #else /* _ITERATOR_DEBUG_LEVEL == 2 */
; 1206 : 			pointer _Ptr = _Move(_VIPTR(_Last), this->_Mylast,
; 1207 : 				_VIPTR(_First));

  00014	8b 46 04	 mov	 eax, DWORD PTR [esi+4]
  00017	53		 push	 ebx
  00018	57		 push	 edi
  00019	ff 75 10	 push	 DWORD PTR __Cat$536407[ebp]
  0001c	51		 push	 ecx
  0001d	50		 push	 eax
  0001e	ff 75 10	 push	 DWORD PTR __Last_arg$[ebp]
  00021	e8 00 00 00 00	 call	 ??$_Move@PAVioHashString@@PAV1@@std@@YAPAVioHashString@@PAV1@00U_Nonscalar_ptr_iterator_tag@0@@Z ; std::_Move<ioHashString *,ioHashString *>

; 1208 :  #endif /* _ITERATOR_DEBUG_LEVEL == 2 */
; 1209 : 
; 1210 : 			_Destroy(_Ptr, this->_Mylast);

  00026	8b 7e 04	 mov	 edi, DWORD PTR [esi+4]
  00029	8b d8		 mov	 ebx, eax
  0002b	83 c4 10	 add	 esp, 16			; 00000010H
  0002e	89 5d fc	 mov	 DWORD PTR $T536463[ebp], ebx
  00031	3b df		 cmp	 ebx, edi
  00033	74 12		 je	 SHORT $LN36@erase
$LL52@erase:
  00035	8b 4d fc	 mov	 ecx, DWORD PTR $T536463[ebp]
  00038	ff 15 00 00 00
	00		 call	 DWORD PTR __imp_??1ioHashString@@QAE@XZ
  0003e	83 45 fc 10	 add	 DWORD PTR $T536463[ebp], 16 ; 00000010H
  00042	39 7d fc	 cmp	 DWORD PTR $T536463[ebp], edi
  00045	75 ee		 jne	 SHORT $LL52@erase
$LN36@erase:

; 1211 : 			this->_Mylast = _Ptr;

  00047	5f		 pop	 edi
  00048	89 5e 04	 mov	 DWORD PTR [esi+4], ebx
  0004b	5b		 pop	 ebx
$LN1@erase:

; 1212 : 			}
; 1213 : 		return (_First);

  0004c	8b 45 08	 mov	 eax, DWORD PTR ___$ReturnUdt$[ebp]
  0004f	5e		 pop	 esi

; 1214 : 		}

  00050	c9		 leave
  00051	c2 0c 00	 ret	 12			; 0000000cH
?erase@?$vector@VioHashString@@V?$allocator@VioHashString@@@std@@@std@@QAE?AV?$_Vector_iterator@V?$_Vector_val@VioHashString@@V?$allocator@VioHashString@@@std@@@std@@@2@V?$_Vector_const_iterator@V?$_Vector_val@VioHashString@@V?$allocator@VioHashString@@@std@@@std@@@2@0@Z ENDP ; std::vector<ioHashString,std::allocator<ioHashString> >::erase
_TEXT	ENDS
PUBLIC	?_Tidy@?$vector@VioHashString@@V?$allocator@VioHashString@@@std@@@std@@IAEXXZ ; std::vector<ioHashString,std::allocator<ioHashString> >::_Tidy
; Function compile flags: /Ogsp
;	COMDAT ?_Tidy@?$vector@VioHashString@@V?$allocator@VioHashString@@@std@@@std@@IAEXXZ
_TEXT	SEGMENT
?_Tidy@?$vector@VioHashString@@V?$allocator@VioHashString@@@std@@@std@@IAEXXZ PROC ; std::vector<ioHashString,std::allocator<ioHashString> >::_Tidy, COMDAT
; _this$ = ecx

; 1301 : 		{	// free all storage

  00000	56		 push	 esi
  00001	8b f1		 mov	 esi, ecx

; 1302 : 		if (this->_Myfirst != 0)

  00003	83 3e 00	 cmp	 DWORD PTR [esi], 0
  00006	74 28		 je	 SHORT $LN24@Tidy

; 1303 : 			{	// something to free, destroy and deallocate it
; 1304 : 			this->_Orphan_all();

  00008	53		 push	 ebx
  00009	57		 push	 edi
  0000a	ff 15 00 00 00
	00		 call	 DWORD PTR __imp_?_Orphan_all@_Container_base0@std@@QAEXXZ

; 1305 : 			_Destroy(this->_Myfirst, this->_Mylast);

  00010	8b 5e 04	 mov	 ebx, DWORD PTR [esi+4]
  00013	8b 3e		 mov	 edi, DWORD PTR [esi]
  00015	eb 0b		 jmp	 SHORT $LN28@Tidy
$LL12@Tidy:
  00017	8b cf		 mov	 ecx, edi
  00019	ff 15 00 00 00
	00		 call	 DWORD PTR __imp_??1ioHashString@@QAE@XZ
  0001f	83 c7 10	 add	 edi, 16			; 00000010H
$LN28@Tidy:
  00022	3b fb		 cmp	 edi, ebx
  00024	75 f1		 jne	 SHORT $LL12@Tidy

; 1306 : 			this->_Alval.deallocate(this->_Myfirst,
; 1307 : 				this->_Myend - this->_Myfirst);

  00026	ff 36		 push	 DWORD PTR [esi]
  00028	e8 00 00 00 00	 call	 ??3@YAXPAX@Z		; operator delete
  0002d	59		 pop	 ecx
  0002e	5f		 pop	 edi
  0002f	5b		 pop	 ebx
$LN24@Tidy:

; 1308 : 			}
; 1309 : 		this->_Myfirst = 0;

  00030	33 c0		 xor	 eax, eax
  00032	89 06		 mov	 DWORD PTR [esi], eax

; 1310 : 		this->_Mylast = 0;

  00034	89 46 04	 mov	 DWORD PTR [esi+4], eax

; 1311 : 		this->_Myend = 0;

  00037	89 46 08	 mov	 DWORD PTR [esi+8], eax
  0003a	5e		 pop	 esi

; 1312 : 		}

  0003b	c3		 ret	 0
?_Tidy@?$vector@VioHashString@@V?$allocator@VioHashString@@@std@@@std@@IAEXXZ ENDP ; std::vector<ioHashString,std::allocator<ioHashString> >::_Tidy
_TEXT	ENDS
PUBLIC	?_Reserve@?$vector@VioHashString@@V?$allocator@VioHashString@@@std@@@std@@IAEXI@Z ; std::vector<ioHashString,std::allocator<ioHashString> >::_Reserve
; Function compile flags: /Ogsp
;	COMDAT ?_Reserve@?$vector@VioHashString@@V?$allocator@VioHashString@@@std@@@std@@IAEXI@Z
_TEXT	SEGMENT
__Count$ = 8						; size = 4
?_Reserve@?$vector@VioHashString@@V?$allocator@VioHashString@@@std@@@std@@IAEXI@Z PROC ; std::vector<ioHashString,std::allocator<ioHashString> >::_Reserve, COMDAT
; _this$ = ecx

; 1290 : 		{	// ensure room for _Count new elements, grow exponentially

  00000	55		 push	 ebp
  00001	8b ec		 mov	 ebp, esp
  00003	56		 push	 esi
  00004	8b f1		 mov	 esi, ecx

; 1291 : 		size_type _Size = size();

  00006	8b 0e		 mov	 ecx, DWORD PTR [esi]
  00008	8b 46 04	 mov	 eax, DWORD PTR [esi+4]
  0000b	2b c1		 sub	 eax, ecx

; 1292 : 		if (max_size() - _Count < _Size)

  0000d	ba ff ff ff 0f	 mov	 edx, 268435455		; 0fffffffH
  00012	2b 55 08	 sub	 edx, DWORD PTR __Count$[ebp]
  00015	c1 f8 04	 sar	 eax, 4
  00018	3b d0		 cmp	 edx, eax
  0001a	73 0b		 jae	 SHORT $LN4@Reserve

; 1293 : 			_Xlen();

  0001c	68 00 00 00 00	 push	 OFFSET ??_C@_0BD@OLBABOEK@vector?$DMT?$DO?5too?5long?$AA@
  00021	ff 15 00 00 00
	00		 call	 DWORD PTR __imp_?_Xlength_error@std@@YAXPBD@Z
$LN21@Reserve:
$LN4@Reserve:

; 1294 : 		else if ((_Size += _Count) <= capacity())

  00027	8b 56 08	 mov	 edx, DWORD PTR [esi+8]
  0002a	03 45 08	 add	 eax, DWORD PTR __Count$[ebp]
  0002d	2b d1		 sub	 edx, ecx
  0002f	c1 fa 04	 sar	 edx, 4
  00032	3b c2		 cmp	 eax, edx
  00034	76 10		 jbe	 SHORT $LN1@Reserve

; 1295 : 			;
; 1296 : 		else
; 1297 : 			reserve(_Grow_to(_Size));

  00036	50		 push	 eax
  00037	8b ce		 mov	 ecx, esi
  00039	e8 00 00 00 00	 call	 ?_Grow_to@?$vector@VioHashString@@V?$allocator@VioHashString@@@std@@@std@@IBEII@Z ; std::vector<ioHashString,std::allocator<ioHashString> >::_Grow_to
  0003e	50		 push	 eax
  0003f	8b ce		 mov	 ecx, esi
  00041	e8 00 00 00 00	 call	 ?reserve@?$vector@VioHashString@@V?$allocator@VioHashString@@@std@@@std@@QAEXI@Z ; std::vector<ioHashString,std::allocator<ioHashString> >::reserve
$LN1@Reserve:
  00046	5e		 pop	 esi

; 1298 : 		}

  00047	5d		 pop	 ebp
  00048	c2 04 00	 ret	 4
$LN20@Reserve:
?_Reserve@?$vector@VioHashString@@V?$allocator@VioHashString@@@std@@@std@@IAEXI@Z ENDP ; std::vector<ioHashString,std::allocator<ioHashString> >::_Reserve
_TEXT	ENDS
PUBLIC	??0?$vector@VioHashString@@V?$allocator@VioHashString@@@std@@@std@@QAE@ABV01@@Z ; std::vector<ioHashString,std::allocator<ioHashString> >::vector<ioHashString,std::allocator<ioHashString> >
;	COMDAT xdata$x
; File c:\program files (x86)\microsoft visual studio 10.0\vc\include\xutility
xdata$x	SEGMENT
__catchsym$??0?$vector@VioHashString@@V?$allocator@VioHashString@@@std@@@std@@QAE@ABV01@@Z$2 DD 040H
	DD	00H
	DD	00H
	DD	FLAT:__catch$??0?$vector@VioHashString@@V?$allocator@VioHashString@@@std@@@std@@QAE@ABV01@@Z$0
__unwindtable$??0?$vector@VioHashString@@V?$allocator@VioHashString@@@std@@@std@@QAE@ABV01@@Z DD 0ffffffffH
	DD	00H
	DD	0ffffffffH
	DD	00H
__tryblocktable$??0?$vector@VioHashString@@V?$allocator@VioHashString@@@std@@@std@@QAE@ABV01@@Z DD 00H
	DD	00H
	DD	01H
	DD	01H
	DD	FLAT:__catchsym$??0?$vector@VioHashString@@V?$allocator@VioHashString@@@std@@@std@@QAE@ABV01@@Z$2
__ehfuncinfo$??0?$vector@VioHashString@@V?$allocator@VioHashString@@@std@@@std@@QAE@ABV01@@Z DD 019930522H
	DD	02H
	DD	FLAT:__unwindtable$??0?$vector@VioHashString@@V?$allocator@VioHashString@@@std@@@std@@QAE@ABV01@@Z
	DD	01H
	DD	FLAT:__tryblocktable$??0?$vector@VioHashString@@V?$allocator@VioHashString@@@std@@@std@@QAE@ABV01@@Z
	DD	2 DUP(00H)
	DD	00H
	DD	01H
; Function compile flags: /Ogsp
; File c:\program files (x86)\microsoft visual studio 10.0\vc\include\vector
xdata$x	ENDS
;	COMDAT ??0?$vector@VioHashString@@V?$allocator@VioHashString@@@std@@@std@@QAE@ABV01@@Z
_TEXT	SEGMENT
_this$ = -20						; size = 4
__$EHRec$ = -16						; size = 16
__Cat$536723 = 8					; size = 1
__Right$ = 8						; size = 4
??0?$vector@VioHashString@@V?$allocator@VioHashString@@@std@@@std@@QAE@ABV01@@Z PROC ; std::vector<ioHashString,std::allocator<ioHashString> >::vector<ioHashString,std::allocator<ioHashString> >, COMDAT
; _this$ = ecx

; 535  : 		{	// construct by copying _Right

  00000	6a 08		 push	 8
  00002	b8 00 00 00 00	 mov	 eax, __ehhandler$??0?$vector@VioHashString@@V?$allocator@VioHashString@@@std@@@std@@QAE@ABV01@@Z
  00007	e8 00 00 00 00	 call	 __EH_prolog3_catch
  0000c	8b f1		 mov	 esi, ecx
  0000e	89 75 ec	 mov	 DWORD PTR _this$[ebp], esi

; 536  : 		if (_Buy(_Right.size()))

  00011	8b 7d 08	 mov	 edi, DWORD PTR __Right$[ebp]
  00014	33 db		 xor	 ebx, ebx
  00016	89 1e		 mov	 DWORD PTR [esi], ebx
  00018	89 5e 04	 mov	 DWORD PTR [esi+4], ebx
  0001b	89 5e 08	 mov	 DWORD PTR [esi+8], ebx
  0001e	8b 47 04	 mov	 eax, DWORD PTR [edi+4]
  00021	2b 07		 sub	 eax, DWORD PTR [edi]
  00023	c1 f8 04	 sar	 eax, 4
  00026	50		 push	 eax
  00027	e8 00 00 00 00	 call	 ?_Buy@?$vector@VioHashString@@V?$allocator@VioHashString@@@std@@@std@@IAE_NI@Z ; std::vector<ioHashString,std::allocator<ioHashString> >::_Buy
  0002c	84 c0		 test	 al, al
  0002e	74 1f		 je	 SHORT $LN7@vector

; 537  : 			_TRY_BEGIN
; 538  : 			this->_Mylast = _Ucopy(_Right.begin(), _Right.end(),
; 539  : 				this->_Myfirst);

  00030	ff 75 08	 push	 DWORD PTR __Cat$536723[ebp]
  00033	8b 0e		 mov	 ecx, DWORD PTR [esi]
  00035	8b 47 04	 mov	 eax, DWORD PTR [edi+4]
  00038	8b 3f		 mov	 edi, DWORD PTR [edi]
  0003a	8d 56 0c	 lea	 edx, DWORD PTR [esi+12]
  0003d	52		 push	 edx
  0003e	51		 push	 ecx
  0003f	50		 push	 eax
  00040	57		 push	 edi
  00041	89 5d fc	 mov	 DWORD PTR __$EHRec$[ebp+12], ebx
  00044	e8 00 00 00 00	 call	 ??$_Uninit_copy@V?$_Vector_const_iterator@V?$_Vector_val@VioHashString@@V?$allocator@VioHashString@@@std@@@std@@@std@@PAVioHashString@@V?$allocator@VioHashString@@@2@@std@@YAPAVioHashString@@V?$_Vector_const_iterator@V?$_Vector_val@VioHashString@@V?$allocator@VioHashString@@@std@@@std@@@0@0PAV1@AAV?$allocator@VioHashString@@@0@U_Nonscalar_ptr_iterator_tag@0@@Z ; std::_Uninit_copy<std::_Vector_const_iterator<std::_Vector_val<ioHashString,std::allocator<ioHashString> > >,ioHashString *,std::allocator<ioHashString> >
  00049	83 c4 14	 add	 esp, 20			; 00000014H
  0004c	89 46 04	 mov	 DWORD PTR [esi+4], eax
$LN7@vector:

; 543  : 			_CATCH_END
; 544  : 		}

  0004f	8b c6		 mov	 eax, esi
  00051	e8 00 00 00 00	 call	 __EH_epilog3
  00056	c2 04 00	 ret	 4
__catch$??0?$vector@VioHashString@@V?$allocator@VioHashString@@@std@@@std@@QAE@ABV01@@Z$0:

; 540  : 			_CATCH_ALL
; 541  : 			_Tidy();

  00059	8b 4d ec	 mov	 ecx, DWORD PTR _this$[ebp]
  0005c	e8 00 00 00 00	 call	 ?_Tidy@?$vector@VioHashString@@V?$allocator@VioHashString@@@std@@@std@@IAEXXZ ; std::vector<ioHashString,std::allocator<ioHashString> >::_Tidy

; 542  : 			_RERAISE;

  00061	33 db		 xor	 ebx, ebx
  00063	53		 push	 ebx
  00064	53		 push	 ebx
  00065	e8 00 00 00 00	 call	 __CxxThrowException@8
$LN38@vector:
$LN37@vector:
  0006a	cc		 int	 3
_TEXT	ENDS
;	COMDAT text$x
text$x	SEGMENT
__ehhandler$??0?$vector@VioHashString@@V?$allocator@VioHashString@@@std@@@std@@QAE@ABV01@@Z:
  00000	8b 54 24 08	 mov	 edx, DWORD PTR [esp+8]
  00004	8d 42 0c	 lea	 eax, DWORD PTR [edx+12]
  00007	8b 4a e8	 mov	 ecx, DWORD PTR [edx-24]
  0000a	33 c8		 xor	 ecx, eax
  0000c	e8 00 00 00 00	 call	 @__security_check_cookie@4
  00011	b8 00 00 00 00	 mov	 eax, OFFSET __ehfuncinfo$??0?$vector@VioHashString@@V?$allocator@VioHashString@@@std@@@std@@QAE@ABV01@@Z
  00016	e9 00 00 00 00	 jmp	 ___CxxFrameHandler3
text$x	ENDS
??0?$vector@VioHashString@@V?$allocator@VioHashString@@@std@@@std@@QAE@ABV01@@Z ENDP ; std::vector<ioHashString,std::allocator<ioHashString> >::vector<ioHashString,std::allocator<ioHashString> >
PUBLIC	??1?$vector@VioHashString@@V?$allocator@VioHashString@@@std@@@std@@QAE@XZ ; std::vector<ioHashString,std::allocator<ioHashString> >::~vector<ioHashString,std::allocator<ioHashString> >
; Function compile flags: /Ogsp
;	COMDAT ??1?$vector@VioHashString@@V?$allocator@VioHashString@@@std@@@std@@QAE@XZ
_TEXT	SEGMENT
??1?$vector@VioHashString@@V?$allocator@VioHashString@@@std@@@std@@QAE@XZ PROC ; std::vector<ioHashString,std::allocator<ioHashString> >::~vector<ioHashString,std::allocator<ioHashString> >, COMDAT
; _this$ = ecx

; 705  : 		_Tidy();

  00000	e9 00 00 00 00	 jmp	 ?_Tidy@?$vector@VioHashString@@V?$allocator@VioHashString@@@std@@@std@@IAEXXZ ; std::vector<ioHashString,std::allocator<ioHashString> >::_Tidy
??1?$vector@VioHashString@@V?$allocator@VioHashString@@@std@@@std@@QAE@XZ ENDP ; std::vector<ioHashString,std::allocator<ioHashString> >::~vector<ioHashString,std::allocator<ioHashString> >
_TEXT	ENDS
PUBLIC	?clear@?$vector@VioHashString@@V?$allocator@VioHashString@@@std@@@std@@QAEXXZ ; std::vector<ioHashString,std::allocator<ioHashString> >::clear
; Function compile flags: /Ogsp
;	COMDAT ?clear@?$vector@VioHashString@@V?$allocator@VioHashString@@@std@@@std@@QAEXXZ
_TEXT	SEGMENT
$T536754 = -4						; size = 4
?clear@?$vector@VioHashString@@V?$allocator@VioHashString@@@std@@@std@@QAEXXZ PROC ; std::vector<ioHashString,std::allocator<ioHashString> >::clear, COMDAT
; _this$ = ecx

; 1217 : 		{	// erase all

  00000	55		 push	 ebp
  00001	8b ec		 mov	 ebp, esp
  00003	51		 push	 ecx

; 1218 : 		erase(begin(), end());

  00004	8b 41 04	 mov	 eax, DWORD PTR [ecx+4]
  00007	8b 11		 mov	 edx, DWORD PTR [ecx]
  00009	50		 push	 eax
  0000a	52		 push	 edx
  0000b	8d 45 fc	 lea	 eax, DWORD PTR $T536754[ebp]
  0000e	50		 push	 eax
  0000f	e8 00 00 00 00	 call	 ?erase@?$vector@VioHashString@@V?$allocator@VioHashString@@@std@@@std@@QAE?AV?$_Vector_iterator@V?$_Vector_val@VioHashString@@V?$allocator@VioHashString@@@std@@@std@@@2@V?$_Vector_const_iterator@V?$_Vector_val@VioHashString@@V?$allocator@VioHashString@@@std@@@std@@@2@0@Z ; std::vector<ioHashString,std::allocator<ioHashString> >::erase

; 1219 : 		}

  00014	c9		 leave
  00015	c3		 ret	 0
?clear@?$vector@VioHashString@@V?$allocator@VioHashString@@@std@@@std@@QAEXXZ ENDP ; std::vector<ioHashString,std::allocator<ioHashString> >::clear
_TEXT	ENDS
PUBLIC	??0BuffInfo@ioBuffCountSkill@@QAE@XZ		; ioBuffCountSkill::BuffInfo::BuffInfo
; Function compile flags: /Ogsp
; File d:\lost saga for developer\youtube\tutorial\source\src\lsclient\iobuffcountskill.h
;	COMDAT ??0BuffInfo@ioBuffCountSkill@@QAE@XZ
_TEXT	SEGMENT
??0BuffInfo@ioBuffCountSkill@@QAE@XZ PROC		; ioBuffCountSkill::BuffInfo::BuffInfo, COMDAT
; _this$ = ecx

; 27   : 		BuffInfo()

  00000	8b c1		 mov	 eax, ecx
  00002	33 c9		 xor	 ecx, ecx
  00004	89 08		 mov	 DWORD PTR [eax], ecx
  00006	89 48 04	 mov	 DWORD PTR [eax+4], ecx
  00009	89 48 08	 mov	 DWORD PTR [eax+8], ecx

; 28   : 		{
; 29   : 			nNeedCount = 0;

  0000c	89 48 10	 mov	 DWORD PTR [eax+16], ecx

; 30   : 		}

  0000f	c3		 ret	 0
??0BuffInfo@ioBuffCountSkill@@QAE@XZ ENDP		; ioBuffCountSkill::BuffInfo::BuffInfo
_TEXT	ENDS
PUBLIC	?Init@ioBuffCountSkill@@IAEXXZ			; ioBuffCountSkill::Init
; Function compile flags: /Ogsp
; File d:\lost saga for developer\youtube\tutorial\source\src\lsclient\iobuffcountskill.cpp
;	COMDAT ?Init@ioBuffCountSkill@@IAEXXZ
_TEXT	SEGMENT
$T536897 = -4						; size = 4
?Init@ioBuffCountSkill@@IAEXXZ PROC			; ioBuffCountSkill::Init, COMDAT
; _this$ = ecx

; 29   : {

  00000	55		 push	 ebp
  00001	8b ec		 mov	 ebp, esp
  00003	51		 push	 ecx
  00004	56		 push	 esi
  00005	8b f1		 mov	 esi, ecx

; 30   : 	m_SkillState		= SS_PRE;	

  00007	83 a6 68 12 00
	00 00		 and	 DWORD PTR [esi+4712], 0

; 31   : 	m_dwMotionEndTime	= 0;

  0000e	83 a6 d8 02 00
	00 00		 and	 DWORD PTR [esi+728], 0

; 32   : 	m_bSetHandMesh      = false;
; 33   : 
; 34   : 	m_CurrBuffList.clear();

  00015	8d 8e 7c 12 00
	00		 lea	 ecx, DWORD PTR [esi+4732]
  0001b	c6 86 0a 0f 00
	00 00		 mov	 BYTE PTR [esi+3850], 0
  00022	8b 41 04	 mov	 eax, DWORD PTR [ecx+4]
  00025	8b 11		 mov	 edx, DWORD PTR [ecx]
  00027	50		 push	 eax
  00028	52		 push	 edx
  00029	8d 45 fc	 lea	 eax, DWORD PTR $T536897[ebp]
  0002c	50		 push	 eax
  0002d	e8 00 00 00 00	 call	 ?erase@?$vector@VioHashString@@V?$allocator@VioHashString@@@std@@@std@@QAE?AV?$_Vector_iterator@V?$_Vector_val@VioHashString@@V?$allocator@VioHashString@@@std@@@std@@@2@V?$_Vector_const_iterator@V?$_Vector_val@VioHashString@@V?$allocator@VioHashString@@@std@@@std@@@2@0@Z ; std::vector<ioHashString,std::allocator<ioHashString> >::erase

; 35   : 
; 36   : 	m_nCurNeedCount = 0;

  00032	83 a6 94 12 00
	00 00		 and	 DWORD PTR [esi+4756], 0
  00039	5e		 pop	 esi

; 37   : }

  0003a	c9		 leave
  0003b	c3		 ret	 0
?Init@ioBuffCountSkill@@IAEXXZ ENDP			; ioBuffCountSkill::Init
_TEXT	ENDS
PUBLIC	??1BuffInfo@ioBuffCountSkill@@QAE@XZ		; ioBuffCountSkill::BuffInfo::~BuffInfo
; Function compile flags: /Ogsp
;	COMDAT ??1BuffInfo@ioBuffCountSkill@@QAE@XZ
_TEXT	SEGMENT
??1BuffInfo@ioBuffCountSkill@@QAE@XZ PROC		; ioBuffCountSkill::BuffInfo::~BuffInfo, COMDAT
; _this$ = ecx
  00000	e9 00 00 00 00	 jmp	 ?_Tidy@?$vector@VioHashString@@V?$allocator@VioHashString@@@std@@@std@@IAEXXZ ; std::vector<ioHashString,std::allocator<ioHashString> >::_Tidy
??1BuffInfo@ioBuffCountSkill@@QAE@XZ ENDP		; ioBuffCountSkill::BuffInfo::~BuffInfo
_TEXT	ENDS
PUBLIC	?OnSkillEnd@ioBuffCountSkill@@UAEXPAVioBaseChar@@@Z ; ioBuffCountSkill::OnSkillEnd
EXTRN	?RestoreSkillWeaponMesh@ioBaseChar@@QAE_NPAVioSkill@@ABVioHashString@@_N2@Z:PROC ; ioBaseChar::RestoreSkillWeaponMesh
EXTRN	__imp_?IsEmpty@ioHashString@@QBE_NXZ:PROC
EXTRN	?ShowWeaponItemMesh@ioBaseChar@@QAEX_N0@Z:PROC	; ioBaseChar::ShowWeaponItemMesh
EXTRN	?SetSkillMoveEnable@ioBaseChar@@QAEX_N0@Z:PROC	; ioBaseChar::SetSkillMoveEnable
EXTRN	?OnSkillEnd@ioCountSkill@@UAEXPAVioBaseChar@@@Z:PROC ; ioCountSkill::OnSkillEnd
; Function compile flags: /Ogsp
;	COMDAT ?OnSkillEnd@ioBuffCountSkill@@UAEXPAVioBaseChar@@@Z
_TEXT	SEGMENT
_pOwner$ = 8						; size = 4
?OnSkillEnd@ioBuffCountSkill@@UAEXPAVioBaseChar@@@Z PROC ; ioBuffCountSkill::OnSkillEnd, COMDAT
; _this$ = ecx

; 205  : {

  00000	55		 push	 ebp
  00001	8b ec		 mov	 ebp, esp
  00003	53		 push	 ebx
  00004	56		 push	 esi
  00005	57		 push	 edi

; 206  : 	ioCountSkill::OnSkillEnd( pOwner );

  00006	ff 75 08	 push	 DWORD PTR _pOwner$[ebp]
  00009	8b f1		 mov	 esi, ecx
  0000b	e8 00 00 00 00	 call	 ?OnSkillEnd@ioCountSkill@@UAEXPAVioBaseChar@@@Z ; ioCountSkill::OnSkillEnd

; 207  : 
; 208  : 	pOwner->SetSkillMoveEnable( false, false );

  00010	8b 4d 08	 mov	 ecx, DWORD PTR _pOwner$[ebp]
  00013	33 db		 xor	 ebx, ebx
  00015	53		 push	 ebx
  00016	53		 push	 ebx
  00017	e8 00 00 00 00	 call	 ?SetSkillMoveEnable@ioBaseChar@@QAEX_N0@Z ; ioBaseChar::SetSkillMoveEnable

; 209  : 
; 210  : 	if( m_bUseItemMesh )

  0001c	38 9e 08 0f 00
	00		 cmp	 BYTE PTR [esi+3848], bl
  00022	74 0b		 je	 SHORT $LN2@OnSkillEnd

; 211  : 		pOwner->ShowWeaponItemMesh( true );

  00024	8b 4d 08	 mov	 ecx, DWORD PTR _pOwner$[ebp]
  00027	53		 push	 ebx
  00028	6a 01		 push	 1
  0002a	e8 00 00 00 00	 call	 ?ShowWeaponItemMesh@ioBaseChar@@QAEX_N0@Z ; ioBaseChar::ShowWeaponItemMesh
$LN2@OnSkillEnd:

; 212  : 
; 213  : 	if( !m_HandMesh.IsEmpty() )

  0002f	8d be f8 0e 00
	00		 lea	 edi, DWORD PTR [esi+3832]
  00035	8b cf		 mov	 ecx, edi
  00037	ff 15 00 00 00
	00		 call	 DWORD PTR __imp_?IsEmpty@ioHashString@@QBE_NXZ
  0003d	84 c0		 test	 al, al
  0003f	75 13		 jne	 SHORT $LN1@OnSkillEnd

; 214  : 		pOwner->RestoreSkillWeaponMesh( this, m_HandMesh, m_bVisibleEquipMesh );

  00041	0f b6 86 09 0f
	00 00		 movzx	 eax, BYTE PTR [esi+3849]
  00048	8b 4d 08	 mov	 ecx, DWORD PTR _pOwner$[ebp]
  0004b	53		 push	 ebx
  0004c	50		 push	 eax
  0004d	57		 push	 edi
  0004e	56		 push	 esi
  0004f	e8 00 00 00 00	 call	 ?RestoreSkillWeaponMesh@ioBaseChar@@QAE_NPAVioSkill@@ABVioHashString@@_N2@Z ; ioBaseChar::RestoreSkillWeaponMesh
$LN1@OnSkillEnd:

; 215  : 
; 216  : 	Init();

  00054	8b ce		 mov	 ecx, esi
  00056	e8 00 00 00 00	 call	 ?Init@ioBuffCountSkill@@IAEXXZ ; ioBuffCountSkill::Init
  0005b	5f		 pop	 edi
  0005c	5e		 pop	 esi
  0005d	5b		 pop	 ebx

; 217  : }

  0005e	5d		 pop	 ebp
  0005f	c2 04 00	 ret	 4
?OnSkillEnd@ioBuffCountSkill@@UAEXPAVioBaseChar@@@Z ENDP ; ioBuffCountSkill::OnSkillEnd
_TEXT	ENDS
PUBLIC	??4?$vector@VioHashString@@V?$allocator@VioHashString@@@std@@@std@@QAEAAV01@ABV01@@Z ; std::vector<ioHashString,std::allocator<ioHashString> >::operator=
; Function compile flags: /Ogsp
; File c:\program files (x86)\microsoft visual studio 10.0\vc\include\vector
;	COMDAT ??4?$vector@VioHashString@@V?$allocator@VioHashString@@@std@@@std@@QAEAAV01@ABV01@@Z
_TEXT	SEGMENT
tv555 = 8						; size = 4
__Cat$537300 = 8					; size = 1
__Cat$537173 = 8					; size = 1
__Cat$537151 = 8					; size = 1
__Cat$537030 = 8					; size = 1
$T537085 = 8						; size = 4
$T536997 = 8						; size = 4
__Right$ = 8						; size = 4
??4?$vector@VioHashString@@V?$allocator@VioHashString@@@std@@@std@@QAEAAV01@ABV01@@Z PROC ; std::vector<ioHashString,std::allocator<ioHashString> >::operator=, COMDAT
; _this$ = ecx

; 709  : 		{	// assign _Right

  00000	55		 push	 ebp
  00001	8b ec		 mov	 ebp, esp
  00003	56		 push	 esi
  00004	57		 push	 edi

; 710  : 		if (this != &_Right)

  00005	8b 7d 08	 mov	 edi, DWORD PTR __Right$[ebp]
  00008	8b f1		 mov	 esi, ecx
  0000a	3b f7		 cmp	 esi, edi
  0000c	0f 84 fd 00 00
	00		 je	 $LN1@operator

; 711  : 			{	// worth doing
; 712  : 			this->_Orphan_all();

  00012	53		 push	 ebx
  00013	ff 15 00 00 00
	00		 call	 DWORD PTR __imp_?_Orphan_all@_Container_base0@std@@QAEXXZ

; 713  : 
; 714  : 			if (_Right.size() == 0)

  00019	8b 5f 04	 mov	 ebx, DWORD PTR [edi+4]

; 715  : 				clear();	// new sequence empty, erase existing sequence

  0001c	8b 46 04	 mov	 eax, DWORD PTR [esi+4]
  0001f	8b cb		 mov	 ecx, ebx
  00021	2b 0f		 sub	 ecx, DWORD PTR [edi]
  00023	c1 f9 04	 sar	 ecx, 4
  00026	85 c9		 test	 ecx, ecx
  00028	75 14		 jne	 SHORT $LN8@operator
  0002a	8b 0e		 mov	 ecx, DWORD PTR [esi]
  0002c	50		 push	 eax
  0002d	51		 push	 ecx
  0002e	8d 45 08	 lea	 eax, DWORD PTR $T536997[ebp]
  00031	50		 push	 eax
  00032	8b ce		 mov	 ecx, esi
  00034	e8 00 00 00 00	 call	 ?erase@?$vector@VioHashString@@V?$allocator@VioHashString@@@std@@@std@@QAE?AV?$_Vector_iterator@V?$_Vector_val@VioHashString@@V?$allocator@VioHashString@@@std@@@std@@@2@V?$_Vector_const_iterator@V?$_Vector_val@VioHashString@@V?$allocator@VioHashString@@@std@@@std@@@2@0@Z ; std::vector<ioHashString,std::allocator<ioHashString> >::erase

; 716  : 			else if (_Right.size() <= size())

  00039	e9 d0 00 00 00	 jmp	 $LN113@operator
$LN8@operator:
  0003e	8b 16		 mov	 edx, DWORD PTR [esi]
  00040	89 45 08	 mov	 DWORD PTR tv555[ebp], eax
  00043	2b c2		 sub	 eax, edx
  00045	c1 f8 04	 sar	 eax, 4
  00048	3b c8		 cmp	 ecx, eax
  0004a	77 3a		 ja	 SHORT $LN6@operator

; 717  : 				{	// enough elements, copy new and destroy old
; 718  : 				pointer _Ptr = _STD _Copy_impl(_Right._Myfirst, _Right._Mylast,
; 719  : 					this->_Myfirst);	// copy new

  0004c	ff 75 08	 push	 DWORD PTR __Cat$537030[ebp]
  0004f	52		 push	 edx
  00050	53		 push	 ebx
  00051	ff 37		 push	 DWORD PTR [edi]
  00053	e8 00 00 00 00	 call	 ??$_Copy_impl@PAVioHashString@@PAV1@@std@@YAPAVioHashString@@PAV1@00U_Nonscalar_ptr_iterator_tag@0@@Z ; std::_Copy_impl<ioHashString *,ioHashString *>

; 720  : 				_Destroy(_Ptr, this->_Mylast);	// destroy old

  00058	8b 5e 04	 mov	 ebx, DWORD PTR [esi+4]
  0005b	83 c4 10	 add	 esp, 16			; 00000010H
  0005e	89 45 08	 mov	 DWORD PTR $T537085[ebp], eax
  00061	3b c3		 cmp	 eax, ebx
  00063	74 12		 je	 SHORT $LN46@operator
$LL112@operator:
  00065	8b 4d 08	 mov	 ecx, DWORD PTR $T537085[ebp]
  00068	ff 15 00 00 00
	00		 call	 DWORD PTR __imp_??1ioHashString@@QAE@XZ
  0006e	83 45 08 10	 add	 DWORD PTR $T537085[ebp], 16 ; 00000010H
  00072	39 5d 08	 cmp	 DWORD PTR $T537085[ebp], ebx
  00075	75 ee		 jne	 SHORT $LL112@operator
$LN46@operator:

; 721  : 				this->_Mylast = this->_Myfirst + _Right.size();

  00077	8b 47 04	 mov	 eax, DWORD PTR [edi+4]
  0007a	2b 07		 sub	 eax, DWORD PTR [edi]
  0007c	83 e0 f0	 and	 eax, -16		; fffffff0H
  0007f	03 06		 add	 eax, DWORD PTR [esi]

; 722  : 				}
; 723  : 			else if (_Right.size() <= capacity())

  00081	e9 85 00 00 00	 jmp	 $LN114@operator
$LN6@operator:
  00086	8b 5e 08	 mov	 ebx, DWORD PTR [esi+8]
  00089	2b da		 sub	 ebx, edx
  0008b	c1 fb 04	 sar	 ebx, 4
  0008e	3b cb		 cmp	 ecx, ebx
  00090	77 2c		 ja	 SHORT $LN4@operator

; 724  : 				{	// enough room, copy and construct new
; 725  : 				pointer _Ptr = _Right._Myfirst + size();
; 726  : 				_STD _Copy_impl(_Right._Myfirst, _Ptr, this->_Myfirst);

  00092	ff 75 08	 push	 DWORD PTR __Cat$537151[ebp]
  00095	8b 0f		 mov	 ecx, DWORD PTR [edi]
  00097	03 c0		 add	 eax, eax
  00099	52		 push	 edx
  0009a	8d 1c c1	 lea	 ebx, DWORD PTR [ecx+eax*8]
  0009d	53		 push	 ebx
  0009e	51		 push	 ecx
  0009f	e8 00 00 00 00	 call	 ??$_Copy_impl@PAVioHashString@@PAV1@@std@@YAPAVioHashString@@PAV1@00U_Nonscalar_ptr_iterator_tag@0@@Z ; std::_Copy_impl<ioHashString *,ioHashString *>

; 727  : 				this->_Mylast = _Ucopy(_Ptr, _Right._Mylast, this->_Mylast);

  000a4	ff 75 08	 push	 DWORD PTR __Cat$537173[ebp]
  000a7	8b 46 04	 mov	 eax, DWORD PTR [esi+4]
  000aa	8b 7f 04	 mov	 edi, DWORD PTR [edi+4]
  000ad	8d 4e 0c	 lea	 ecx, DWORD PTR [esi+12]
  000b0	51		 push	 ecx
  000b1	50		 push	 eax
  000b2	57		 push	 edi
  000b3	53		 push	 ebx
  000b4	e8 00 00 00 00	 call	 ??$_Uninit_copy@PAVioHashString@@PAV1@V?$allocator@VioHashString@@@std@@@std@@YAPAVioHashString@@PAV1@00AAV?$allocator@VioHashString@@@0@U_Nonscalar_ptr_iterator_tag@0@@Z ; std::_Uninit_copy<ioHashString *,ioHashString *,std::allocator<ioHashString> >
  000b9	83 c4 24	 add	 esp, 36			; 00000024H

; 728  : 				}
; 729  : 			else

  000bc	eb 4d		 jmp	 SHORT $LN114@operator
$LN4@operator:

; 730  : 				{	// not enough room, allocate new array and construct new
; 731  : 				if (this->_Myfirst != 0)

  000be	85 d2		 test	 edx, edx
  000c0	74 1c		 je	 SHORT $LN98@operator

; 732  : 					{	// discard old array
; 733  : 					_Destroy(this->_Myfirst, this->_Mylast);

  000c2	8b da		 mov	 ebx, edx
  000c4	eb 0b		 jmp	 SHORT $LN115@operator
$LL86@operator:
  000c6	8b cb		 mov	 ecx, ebx
  000c8	ff 15 00 00 00
	00		 call	 DWORD PTR __imp_??1ioHashString@@QAE@XZ
  000ce	83 c3 10	 add	 ebx, 16			; 00000010H
$LN115@operator:
  000d1	3b 5d 08	 cmp	 ebx, DWORD PTR tv555[ebp]
  000d4	75 f0		 jne	 SHORT $LL86@operator

; 734  : 					this->_Alval.deallocate(this->_Myfirst,
; 735  : 						this->_Myend - this->_Myfirst);

  000d6	ff 36		 push	 DWORD PTR [esi]
  000d8	e8 00 00 00 00	 call	 ??3@YAXPAX@Z		; operator delete
  000dd	59		 pop	 ecx
$LN98@operator:

; 736  : 					}
; 737  : 				if (_Buy(_Right.size()))

  000de	8b 47 04	 mov	 eax, DWORD PTR [edi+4]
  000e1	2b 07		 sub	 eax, DWORD PTR [edi]
  000e3	8b ce		 mov	 ecx, esi
  000e5	c1 f8 04	 sar	 eax, 4
  000e8	50		 push	 eax
  000e9	e8 00 00 00 00	 call	 ?_Buy@?$vector@VioHashString@@V?$allocator@VioHashString@@@std@@@std@@IAE_NI@Z ; std::vector<ioHashString,std::allocator<ioHashString> >::_Buy
  000ee	84 c0		 test	 al, al
  000f0	74 1c		 je	 SHORT $LN113@operator

; 738  : 					this->_Mylast = _Ucopy(_Right._Myfirst, _Right._Mylast,
; 739  : 						this->_Myfirst);

  000f2	ff 75 08	 push	 DWORD PTR __Cat$537300[ebp]
  000f5	8b 06		 mov	 eax, DWORD PTR [esi]
  000f7	8b 4f 04	 mov	 ecx, DWORD PTR [edi+4]
  000fa	8b 3f		 mov	 edi, DWORD PTR [edi]
  000fc	8d 56 0c	 lea	 edx, DWORD PTR [esi+12]
  000ff	52		 push	 edx
  00100	50		 push	 eax
  00101	51		 push	 ecx
  00102	57		 push	 edi
  00103	e8 00 00 00 00	 call	 ??$_Uninit_copy@PAVioHashString@@PAV1@V?$allocator@VioHashString@@@std@@@std@@YAPAVioHashString@@PAV1@00AAV?$allocator@VioHashString@@@0@U_Nonscalar_ptr_iterator_tag@0@@Z ; std::_Uninit_copy<ioHashString *,ioHashString *,std::allocator<ioHashString> >
  00108	83 c4 14	 add	 esp, 20			; 00000014H
$LN114@operator:
  0010b	89 46 04	 mov	 DWORD PTR [esi+4], eax
$LN113@operator:
  0010e	5b		 pop	 ebx
$LN1@operator:
  0010f	5f		 pop	 edi

; 740  : 				}
; 741  : 			}
; 742  : 		return (*this);

  00110	8b c6		 mov	 eax, esi
  00112	5e		 pop	 esi

; 743  : 		}

  00113	5d		 pop	 ebp
  00114	c2 04 00	 ret	 4
??4?$vector@VioHashString@@V?$allocator@VioHashString@@@std@@@std@@QAEAAV01@ABV01@@Z ENDP ; std::vector<ioHashString,std::allocator<ioHashString> >::operator=
_TEXT	ENDS
PUBLIC	?push_back@?$vector@VioHashString@@V?$allocator@VioHashString@@@std@@@std@@QAEXABVioHashString@@@Z ; std::vector<ioHashString,std::allocator<ioHashString> >::push_back
; Function compile flags: /Ogsp
;	COMDAT ?push_back@?$vector@VioHashString@@V?$allocator@VioHashString@@@std@@@std@@QAEXABVioHashString@@@Z
_TEXT	SEGMENT
__Val$ = 8						; size = 4
?push_back@?$vector@VioHashString@@V?$allocator@VioHashString@@@std@@@std@@QAEXABVioHashString@@@Z PROC ; std::vector<ioHashString,std::allocator<ioHashString> >::push_back, COMDAT
; _this$ = ecx

; 976  : 		{	// insert element at end

  00000	55		 push	 ebp
  00001	8b ec		 mov	 ebp, esp
  00003	56		 push	 esi
  00004	8b f1		 mov	 esi, ecx

; 977  : 		if (_Inside(_STD addressof(_Val)))

  00006	8b 46 04	 mov	 eax, DWORD PTR [esi+4]
  00009	57		 push	 edi
  0000a	8b 7d 08	 mov	 edi, DWORD PTR __Val$[ebp]
  0000d	3b f8		 cmp	 edi, eax
  0000f	73 29		 jae	 SHORT $LN4@push_back
  00011	8b 0e		 mov	 ecx, DWORD PTR [esi]
  00013	3b cf		 cmp	 ecx, edi
  00015	77 23		 ja	 SHORT $LN4@push_back

; 978  : 			{	// push back an element
; 979  : 			size_type _Idx = _STD addressof(_Val) - this->_Myfirst;

  00017	2b f9		 sub	 edi, ecx

; 980  : 			if (this->_Mylast == this->_Myend)

  00019	3b 46 08	 cmp	 eax, DWORD PTR [esi+8]
  0001c	75 09		 jne	 SHORT $LN3@push_back

; 981  : 				_Reserve(1);

  0001e	6a 01		 push	 1
  00020	8b ce		 mov	 ecx, esi
  00022	e8 00 00 00 00	 call	 ?_Reserve@?$vector@VioHashString@@V?$allocator@VioHashString@@@std@@@std@@IAEXI@Z ; std::vector<ioHashString,std::allocator<ioHashString> >::_Reserve
$LN3@push_back:

; 982  : 			_Orphan_range(this->_Mylast, this->_Mylast);
; 983  : 			_Cons_val(this->_Alval,
; 984  : 				this->_Mylast,
; 985  : 				this->_Myfirst[_Idx]);

  00027	83 e7 f0	 and	 edi, -16		; fffffff0H
  0002a	03 3e		 add	 edi, DWORD PTR [esi]
  0002c	8d 4e 0c	 lea	 ecx, DWORD PTR [esi+12]
  0002f	57		 push	 edi
  00030	ff 76 04	 push	 DWORD PTR [esi+4]
  00033	e8 00 00 00 00	 call	 ??$construct@AAVioHashString@@@?$allocator@VioHashString@@@std@@QAEXPAVioHashString@@AAV2@@Z ; std::allocator<ioHashString>::construct<ioHashString &>

; 986  : 			++this->_Mylast;
; 987  : 			}
; 988  : 		else

  00038	eb 19		 jmp	 SHORT $LN30@push_back
$LN4@push_back:

; 989  : 			{	// push back a non-element
; 990  : 			if (this->_Mylast == this->_Myend)

  0003a	3b 46 08	 cmp	 eax, DWORD PTR [esi+8]
  0003d	75 09		 jne	 SHORT $LN1@push_back

; 991  : 				_Reserve(1);

  0003f	6a 01		 push	 1
  00041	8b ce		 mov	 ecx, esi
  00043	e8 00 00 00 00	 call	 ?_Reserve@?$vector@VioHashString@@V?$allocator@VioHashString@@@std@@@std@@IAEXI@Z ; std::vector<ioHashString,std::allocator<ioHashString> >::_Reserve
$LN1@push_back:

; 992  : 			_Orphan_range(this->_Mylast, this->_Mylast);
; 993  : 			_Cons_val(this->_Alval,
; 994  : 				this->_Mylast,
; 995  : 				_Val);

  00048	57		 push	 edi
  00049	ff 76 04	 push	 DWORD PTR [esi+4]
  0004c	e8 00 00 00 00	 call	 ??$_Construct@VioHashString@@ABV1@@std@@YAXPAVioHashString@@ABV1@@Z ; std::_Construct<ioHashString,ioHashString const &>
  00051	59		 pop	 ecx
  00052	59		 pop	 ecx
$LN30@push_back:

; 996  : 			++this->_Mylast;

  00053	83 46 04 10	 add	 DWORD PTR [esi+4], 16	; 00000010H
  00057	5f		 pop	 edi
  00058	5e		 pop	 esi

; 997  : 			}
; 998  : 		}

  00059	5d		 pop	 ebp
  0005a	c2 04 00	 ret	 4
?push_back@?$vector@VioHashString@@V?$allocator@VioHashString@@@std@@@std@@QAEXABVioHashString@@@Z ENDP ; std::vector<ioHashString,std::allocator<ioHashString> >::push_back
_TEXT	ENDS
PUBLIC	??0BuffInfo@ioBuffCountSkill@@QAE@ABU01@@Z	; ioBuffCountSkill::BuffInfo::BuffInfo
; Function compile flags: /Ogsp
;	COMDAT ??0BuffInfo@ioBuffCountSkill@@QAE@ABU01@@Z
_TEXT	SEGMENT
___that$ = 8						; size = 4
??0BuffInfo@ioBuffCountSkill@@QAE@ABU01@@Z PROC		; ioBuffCountSkill::BuffInfo::BuffInfo, COMDAT
; _this$ = ecx
  00000	55		 push	 ebp
  00001	8b ec		 mov	 ebp, esp
  00003	56		 push	 esi
  00004	57		 push	 edi
  00005	8b 7d 08	 mov	 edi, DWORD PTR ___that$[ebp]
  00008	57		 push	 edi
  00009	8b f1		 mov	 esi, ecx
  0000b	e8 00 00 00 00	 call	 ??0?$vector@VioHashString@@V?$allocator@VioHashString@@@std@@@std@@QAE@ABV01@@Z ; std::vector<ioHashString,std::allocator<ioHashString> >::vector<ioHashString,std::allocator<ioHashString> >
  00010	8b 47 10	 mov	 eax, DWORD PTR [edi+16]
  00013	89 46 10	 mov	 DWORD PTR [esi+16], eax
  00016	5f		 pop	 edi
  00017	8b c6		 mov	 eax, esi
  00019	5e		 pop	 esi
  0001a	5d		 pop	 ebp
  0001b	c2 04 00	 ret	 4
??0BuffInfo@ioBuffCountSkill@@QAE@ABU01@@Z ENDP		; ioBuffCountSkill::BuffInfo::BuffInfo
_TEXT	ENDS
PUBLIC	??4BuffInfo@ioBuffCountSkill@@QAEAAU01@ABU01@@Z	; ioBuffCountSkill::BuffInfo::operator=
; Function compile flags: /Ogsp
;	COMDAT ??4BuffInfo@ioBuffCountSkill@@QAEAAU01@ABU01@@Z
_TEXT	SEGMENT
___that$ = 8						; size = 4
??4BuffInfo@ioBuffCountSkill@@QAEAAU01@ABU01@@Z PROC	; ioBuffCountSkill::BuffInfo::operator=, COMDAT
; _this$ = ecx
  00000	55		 push	 ebp
  00001	8b ec		 mov	 ebp, esp
  00003	56		 push	 esi
  00004	57		 push	 edi
  00005	8b 7d 08	 mov	 edi, DWORD PTR ___that$[ebp]
  00008	57		 push	 edi
  00009	8b f1		 mov	 esi, ecx
  0000b	e8 00 00 00 00	 call	 ??4?$vector@VioHashString@@V?$allocator@VioHashString@@@std@@@std@@QAEAAV01@ABV01@@Z ; std::vector<ioHashString,std::allocator<ioHashString> >::operator=
  00010	8b 47 10	 mov	 eax, DWORD PTR [edi+16]
  00013	89 46 10	 mov	 DWORD PTR [esi+16], eax
  00016	5f		 pop	 edi
  00017	8b c6		 mov	 eax, esi
  00019	5e		 pop	 esi
  0001a	5d		 pop	 ebp
  0001b	c2 04 00	 ret	 4
??4BuffInfo@ioBuffCountSkill@@QAEAAU01@ABU01@@Z ENDP	; ioBuffCountSkill::BuffInfo::operator=
_TEXT	ENDS
PUBLIC	??_GBuffInfo@ioBuffCountSkill@@QAEPAXI@Z	; ioBuffCountSkill::BuffInfo::`scalar deleting destructor'
; Function compile flags: /Ogsp
;	COMDAT ??_GBuffInfo@ioBuffCountSkill@@QAEPAXI@Z
_TEXT	SEGMENT
___flags$ = 8						; size = 4
??_GBuffInfo@ioBuffCountSkill@@QAEPAXI@Z PROC		; ioBuffCountSkill::BuffInfo::`scalar deleting destructor', COMDAT
; _this$ = ecx
  00000	55		 push	 ebp
  00001	8b ec		 mov	 ebp, esp
  00003	56		 push	 esi
  00004	8b f1		 mov	 esi, ecx
  00006	e8 00 00 00 00	 call	 ?_Tidy@?$vector@VioHashString@@V?$allocator@VioHashString@@@std@@@std@@IAEXXZ ; std::vector<ioHashString,std::allocator<ioHashString> >::_Tidy
  0000b	f6 45 08 01	 test	 BYTE PTR ___flags$[ebp], 1
  0000f	74 07		 je	 SHORT $LN1@scalar@4
  00011	56		 push	 esi
  00012	e8 00 00 00 00	 call	 ??3@YAXPAX@Z		; operator delete
  00017	59		 pop	 ecx
$LN1@scalar@4:
  00018	8b c6		 mov	 eax, esi
  0001a	5e		 pop	 esi
  0001b	5d		 pop	 ebp
  0001c	c2 04 00	 ret	 4
??_GBuffInfo@ioBuffCountSkill@@QAEPAXI@Z ENDP		; ioBuffCountSkill::BuffInfo::`scalar deleting destructor'
_TEXT	ENDS
PUBLIC	?construct@?$allocator@UBuffInfo@ioBuffCountSkill@@@std@@QAEXPAUBuffInfo@ioBuffCountSkill@@$$QAU34@@Z ; std::allocator<ioBuffCountSkill::BuffInfo>::construct
;	COMDAT xdata$x
xdata$x	SEGMENT
__unwindtable$?construct@?$allocator@UBuffInfo@ioBuffCountSkill@@@std@@QAEXPAUBuffInfo@ioBuffCountSkill@@$$QAU34@@Z DD 0ffffffffH
	DD	FLAT:__unwindfunclet$?construct@?$allocator@UBuffInfo@ioBuffCountSkill@@@std@@QAEXPAUBuffInfo@ioBuffCountSkill@@$$QAU34@@Z$0
__ehfuncinfo$?construct@?$allocator@UBuffInfo@ioBuffCountSkill@@@std@@QAEXPAUBuffInfo@ioBuffCountSkill@@$$QAU34@@Z DD 019930522H
	DD	01H
	DD	FLAT:__unwindtable$?construct@?$allocator@UBuffInfo@ioBuffCountSkill@@@std@@QAEXPAUBuffInfo@ioBuffCountSkill@@$$QAU34@@Z
	DD	2 DUP(00H)
	DD	2 DUP(00H)
	DD	00H
	DD	01H
; Function compile flags: /Ogsp
; File c:\program files (x86)\microsoft visual studio 10.0\vc\include\xmemory
xdata$x	ENDS
;	COMDAT ?construct@?$allocator@UBuffInfo@ioBuffCountSkill@@@std@@QAEXPAUBuffInfo@ioBuffCountSkill@@$$QAU34@@Z
_TEXT	SEGMENT
$T537387 = -16						; size = 4
__$EHRec$ = -12						; size = 12
__Ptr$ = 8						; size = 4
__Val$ = 12						; size = 4
?construct@?$allocator@UBuffInfo@ioBuffCountSkill@@@std@@QAEXPAUBuffInfo@ioBuffCountSkill@@$$QAU34@@Z PROC ; std::allocator<ioBuffCountSkill::BuffInfo>::construct, COMDAT
; _this$ = ecx

; 201  : 		{	// construct object at _Ptr with value _Val

  00000	6a 04		 push	 4
  00002	b8 00 00 00 00	 mov	 eax, __ehhandler$?construct@?$allocator@UBuffInfo@ioBuffCountSkill@@@std@@QAEXPAUBuffInfo@ioBuffCountSkill@@$$QAU34@@Z
  00007	e8 00 00 00 00	 call	 __EH_prolog3

; 202  : 		::new ((void _FARQ *)_Ptr) _Ty(_STD forward<_Ty>(_Val));

  0000c	8b 75 08	 mov	 esi, DWORD PTR __Ptr$[ebp]
  0000f	89 75 f0	 mov	 DWORD PTR $T537387[ebp], esi
  00012	83 65 fc 00	 and	 DWORD PTR __$EHRec$[ebp+8], 0
  00016	85 f6		 test	 esi, esi
  00018	74 11		 je	 SHORT $LN3@construct@3
  0001a	8b 7d 0c	 mov	 edi, DWORD PTR __Val$[ebp]
  0001d	57		 push	 edi
  0001e	8b ce		 mov	 ecx, esi
  00020	e8 00 00 00 00	 call	 ??0?$vector@VioHashString@@V?$allocator@VioHashString@@@std@@@std@@QAE@ABV01@@Z ; std::vector<ioHashString,std::allocator<ioHashString> >::vector<ioHashString,std::allocator<ioHashString> >
  00025	8b 47 10	 mov	 eax, DWORD PTR [edi+16]
  00028	89 46 10	 mov	 DWORD PTR [esi+16], eax
$LN3@construct@3:

; 203  : 		}

  0002b	e8 00 00 00 00	 call	 __EH_epilog3
  00030	c2 08 00	 ret	 8
_TEXT	ENDS
;	COMDAT text$x
text$x	SEGMENT
__unwindfunclet$?construct@?$allocator@UBuffInfo@ioBuffCountSkill@@@std@@QAEXPAUBuffInfo@ioBuffCountSkill@@$$QAU34@@Z$0:
  00000	ff 75 08	 push	 DWORD PTR __Ptr$[ebp]
  00003	ff 75 f0	 push	 DWORD PTR $T537387[ebp]
  00006	e8 00 00 00 00	 call	 ??3@YAXPAX0@Z		; operator delete
  0000b	59		 pop	 ecx
  0000c	59		 pop	 ecx
  0000d	c3		 ret	 0
__ehhandler$?construct@?$allocator@UBuffInfo@ioBuffCountSkill@@@std@@QAEXPAUBuffInfo@ioBuffCountSkill@@$$QAU34@@Z:
  0000e	8b 54 24 08	 mov	 edx, DWORD PTR [esp+8]
  00012	8d 42 0c	 lea	 eax, DWORD PTR [edx+12]
  00015	8b 4a ec	 mov	 ecx, DWORD PTR [edx-20]
  00018	33 c8		 xor	 ecx, eax
  0001a	e8 00 00 00 00	 call	 @__security_check_cookie@4
  0001f	b8 00 00 00 00	 mov	 eax, OFFSET __ehfuncinfo$?construct@?$allocator@UBuffInfo@ioBuffCountSkill@@@std@@QAEXPAUBuffInfo@ioBuffCountSkill@@$$QAU34@@Z
  00024	e9 00 00 00 00	 jmp	 ___CxxFrameHandler3
text$x	ENDS
?construct@?$allocator@UBuffInfo@ioBuffCountSkill@@@std@@QAEXPAUBuffInfo@ioBuffCountSkill@@$$QAU34@@Z ENDP ; std::allocator<ioBuffCountSkill::BuffInfo>::construct
PUBLIC	??$swap@UBuffInfo@ioBuffCountSkill@@@std@@YAXAAUBuffInfo@ioBuffCountSkill@@0@Z ; std::swap<ioBuffCountSkill::BuffInfo>
;	COMDAT xdata$x
; File c:\program files (x86)\microsoft visual studio 10.0\vc\include\vector
xdata$x	SEGMENT
__unwindtable$??$swap@UBuffInfo@ioBuffCountSkill@@@std@@YAXAAUBuffInfo@ioBuffCountSkill@@0@Z DD 0ffffffffH
	DD	FLAT:__unwindfunclet$??$swap@UBuffInfo@ioBuffCountSkill@@@std@@YAXAAUBuffInfo@ioBuffCountSkill@@0@Z$0
__ehfuncinfo$??$swap@UBuffInfo@ioBuffCountSkill@@@std@@YAXAAUBuffInfo@ioBuffCountSkill@@0@Z DD 019930522H
	DD	01H
	DD	FLAT:__unwindtable$??$swap@UBuffInfo@ioBuffCountSkill@@@std@@YAXAAUBuffInfo@ioBuffCountSkill@@0@Z
	DD	2 DUP(00H)
	DD	2 DUP(00H)
	DD	00H
	DD	01H
; Function compile flags: /Ogsp
; File c:\program files (x86)\microsoft visual studio 10.0\vc\include\utility
xdata$x	ENDS
;	COMDAT ??$swap@UBuffInfo@ioBuffCountSkill@@@std@@YAXAAUBuffInfo@ioBuffCountSkill@@0@Z
_TEXT	SEGMENT
__Tmp$ = -32						; size = 20
__$EHRec$ = -12						; size = 12
__Left$ = 8						; size = 4
__Right$ = 12						; size = 4
??$swap@UBuffInfo@ioBuffCountSkill@@@std@@YAXAAUBuffInfo@ioBuffCountSkill@@0@Z PROC ; std::swap<ioBuffCountSkill::BuffInfo>, COMDAT

; 101  : 	{	// exchange values stored at _Left and _Right

  00000	6a 14		 push	 20			; 00000014H
  00002	b8 00 00 00 00	 mov	 eax, __ehhandler$??$swap@UBuffInfo@ioBuffCountSkill@@@std@@YAXAAUBuffInfo@ioBuffCountSkill@@0@Z
  00007	e8 00 00 00 00	 call	 __EH_prolog3

; 102  : 	_Ty _Tmp = _Move(_Left);

  0000c	8b 75 08	 mov	 esi, DWORD PTR __Left$[ebp]
  0000f	56		 push	 esi
  00010	8d 4d e0	 lea	 ecx, DWORD PTR __Tmp$[ebp]
  00013	e8 00 00 00 00	 call	 ??0?$vector@VioHashString@@V?$allocator@VioHashString@@@std@@@std@@QAE@ABV01@@Z ; std::vector<ioHashString,std::allocator<ioHashString> >::vector<ioHashString,std::allocator<ioHashString> >
  00018	8b 46 10	 mov	 eax, DWORD PTR [esi+16]
  0001b	89 45 f0	 mov	 DWORD PTR __Tmp$[ebp+16], eax

; 103  : 	_Left = _Move(_Right);

  0001e	8b 7d 0c	 mov	 edi, DWORD PTR __Right$[ebp]
  00021	83 65 fc 00	 and	 DWORD PTR __$EHRec$[ebp+8], 0
  00025	57		 push	 edi
  00026	8b ce		 mov	 ecx, esi
  00028	e8 00 00 00 00	 call	 ??4?$vector@VioHashString@@V?$allocator@VioHashString@@@std@@@std@@QAEAAV01@ABV01@@Z ; std::vector<ioHashString,std::allocator<ioHashString> >::operator=
  0002d	8b 47 10	 mov	 eax, DWORD PTR [edi+16]
  00030	89 46 10	 mov	 DWORD PTR [esi+16], eax

; 104  : 	_Right = _Move(_Tmp);

  00033	8d 45 e0	 lea	 eax, DWORD PTR __Tmp$[ebp]
  00036	50		 push	 eax
  00037	8b cf		 mov	 ecx, edi
  00039	e8 00 00 00 00	 call	 ??4?$vector@VioHashString@@V?$allocator@VioHashString@@@std@@@std@@QAEAAV01@ABV01@@Z ; std::vector<ioHashString,std::allocator<ioHashString> >::operator=
  0003e	8b 45 f0	 mov	 eax, DWORD PTR __Tmp$[ebp+16]

; 105  : 	}

  00041	83 4d fc ff	 or	 DWORD PTR __$EHRec$[ebp+8], -1
  00045	8d 4d e0	 lea	 ecx, DWORD PTR __Tmp$[ebp]
  00048	89 47 10	 mov	 DWORD PTR [edi+16], eax
  0004b	e8 00 00 00 00	 call	 ?_Tidy@?$vector@VioHashString@@V?$allocator@VioHashString@@@std@@@std@@IAEXXZ ; std::vector<ioHashString,std::allocator<ioHashString> >::_Tidy
  00050	e8 00 00 00 00	 call	 __EH_epilog3
  00055	c3		 ret	 0
_TEXT	ENDS
;	COMDAT text$x
text$x	SEGMENT
__unwindfunclet$??$swap@UBuffInfo@ioBuffCountSkill@@@std@@YAXAAUBuffInfo@ioBuffCountSkill@@0@Z$0:
  00000	8d 4d e0	 lea	 ecx, DWORD PTR __Tmp$[ebp]
  00003	e9 00 00 00 00	 jmp	 ??1BuffInfo@ioBuffCountSkill@@QAE@XZ
__ehhandler$??$swap@UBuffInfo@ioBuffCountSkill@@@std@@YAXAAUBuffInfo@ioBuffCountSkill@@0@Z:
  00008	8b 54 24 08	 mov	 edx, DWORD PTR [esp+8]
  0000c	8d 42 0c	 lea	 eax, DWORD PTR [edx+12]
  0000f	8b 4a dc	 mov	 ecx, DWORD PTR [edx-36]
  00012	33 c8		 xor	 ecx, eax
  00014	e8 00 00 00 00	 call	 @__security_check_cookie@4
  00019	b8 00 00 00 00	 mov	 eax, OFFSET __ehfuncinfo$??$swap@UBuffInfo@ioBuffCountSkill@@@std@@YAXAAUBuffInfo@ioBuffCountSkill@@0@Z
  0001e	e9 00 00 00 00	 jmp	 ___CxxFrameHandler3
text$x	ENDS
??$swap@UBuffInfo@ioBuffCountSkill@@@std@@YAXAAUBuffInfo@ioBuffCountSkill@@0@Z ENDP ; std::swap<ioBuffCountSkill::BuffInfo>
PUBLIC	??$_Push_heap@PAUBuffInfo@ioBuffCountSkill@@HU12@VBuffInfoSort@2@@std@@YAXPAUBuffInfo@ioBuffCountSkill@@HH$$QAU12@VBuffInfoSort@2@@Z ; std::_Push_heap<ioBuffCountSkill::BuffInfo *,int,ioBuffCountSkill::BuffInfo,ioBuffCountSkill::BuffInfoSort>
; Function compile flags: /Ogsp
; File c:\program files (x86)\microsoft visual studio 10.0\vc\include\algorithm
;	COMDAT ??$_Push_heap@PAUBuffInfo@ioBuffCountSkill@@HU12@VBuffInfoSort@2@@std@@YAXPAUBuffInfo@ioBuffCountSkill@@HH$$QAU12@VBuffInfoSort@2@@Z
_TEXT	SEGMENT
__First$ = 8						; size = 4
__Hole$ = 12						; size = 4
__Top$ = 16						; size = 4
__Val$ = 20						; size = 4
__Pred$ = 24						; size = 1
??$_Push_heap@PAUBuffInfo@ioBuffCountSkill@@HU12@VBuffInfoSort@2@@std@@YAXPAUBuffInfo@ioBuffCountSkill@@HH$$QAU12@VBuffInfoSort@2@@Z PROC ; std::_Push_heap<ioBuffCountSkill::BuffInfo *,int,ioBuffCountSkill::BuffInfo,ioBuffCountSkill::BuffInfoSort>, COMDAT

; 2455 : 	{	// percolate _Hole to _Top or where _Val belongs, using operator<

  00000	55		 push	 ebp
  00001	8b ec		 mov	 ebp, esp

; 2456 : 	for (_Diff _Idx = (_Hole - 1) / 2;

  00003	8b 4d 0c	 mov	 ecx, DWORD PTR __Hole$[ebp]
  00006	8d 41 ff	 lea	 eax, DWORD PTR [ecx-1]
  00009	99		 cdq
  0000a	53		 push	 ebx
  0000b	56		 push	 esi
  0000c	2b c2		 sub	 eax, edx
  0000e	8b f0		 mov	 esi, eax
  00010	57		 push	 edi
  00011	d1 fe		 sar	 esi, 1
  00013	eb 2f		 jmp	 SHORT $LN21@Push_heap
$LL3@Push_heap:

; 2457 : 		_Top < _Hole && _DEBUG_LT_PRED(_Pred, *(_First + _Idx), _Val);
; 2458 : 		_Idx = (_Hole - 1) / 2)

  00015	8b fe		 mov	 edi, esi
  00017	6b ff 14	 imul	 edi, 20			; 00000014H
  0001a	03 f8		 add	 edi, eax
  0001c	8b 57 10	 mov	 edx, DWORD PTR [edi+16]
  0001f	3b 53 10	 cmp	 edx, DWORD PTR [ebx+16]
  00022	7d 2b		 jge	 SHORT $LN6@Push_heap

; 2459 : 		{	// move _Hole up to parent
; 2460 : 		*(_First + _Hole) = _Move(*(_First + _Idx));

  00024	6b c9 14	 imul	 ecx, 20			; 00000014H
  00027	8d 1c 01	 lea	 ebx, DWORD PTR [ecx+eax]
  0002a	57		 push	 edi
  0002b	8b cb		 mov	 ecx, ebx
  0002d	e8 00 00 00 00	 call	 ??4?$vector@VioHashString@@V?$allocator@VioHashString@@@std@@@std@@QAEAAV01@ABV01@@Z ; std::vector<ioHashString,std::allocator<ioHashString> >::operator=
  00032	8b 47 10	 mov	 eax, DWORD PTR [edi+16]
  00035	89 43 10	 mov	 DWORD PTR [ebx+16], eax
  00038	8d 46 ff	 lea	 eax, DWORD PTR [esi-1]
  0003b	99		 cdq
  0003c	2b c2		 sub	 eax, edx
  0003e	d1 f8		 sar	 eax, 1

; 2461 : 		_Hole = _Idx;

  00040	8b ce		 mov	 ecx, esi
  00042	8b f0		 mov	 esi, eax
$LN21@Push_heap:

; 2457 : 		_Top < _Hole && _DEBUG_LT_PRED(_Pred, *(_First + _Idx), _Val);
; 2458 : 		_Idx = (_Hole - 1) / 2)

  00044	8b 45 08	 mov	 eax, DWORD PTR __First$[ebp]
  00047	8b 5d 14	 mov	 ebx, DWORD PTR __Val$[ebp]
  0004a	39 4d 10	 cmp	 DWORD PTR __Top$[ebp], ecx
  0004d	7c c6		 jl	 SHORT $LL3@Push_heap
$LN6@Push_heap:

; 2462 : 		}
; 2463 : 
; 2464 : 	*(_First + _Hole) = _Move(_Val);	// drop _Val into final hole

  0004f	6b c9 14	 imul	 ecx, 20			; 00000014H
  00052	8d 34 01	 lea	 esi, DWORD PTR [ecx+eax]
  00055	53		 push	 ebx
  00056	8b ce		 mov	 ecx, esi
  00058	e8 00 00 00 00	 call	 ??4?$vector@VioHashString@@V?$allocator@VioHashString@@@std@@@std@@QAEAAV01@ABV01@@Z ; std::vector<ioHashString,std::allocator<ioHashString> >::operator=
  0005d	8b 43 10	 mov	 eax, DWORD PTR [ebx+16]
  00060	5f		 pop	 edi
  00061	89 46 10	 mov	 DWORD PTR [esi+16], eax
  00064	5e		 pop	 esi
  00065	5b		 pop	 ebx

; 2465 : 	}

  00066	5d		 pop	 ebp
  00067	c3		 ret	 0
??$_Push_heap@PAUBuffInfo@ioBuffCountSkill@@HU12@VBuffInfoSort@2@@std@@YAXPAUBuffInfo@ioBuffCountSkill@@HH$$QAU12@VBuffInfoSort@2@@Z ENDP ; std::_Push_heap<ioBuffCountSkill::BuffInfo *,int,ioBuffCountSkill::BuffInfo,ioBuffCountSkill::BuffInfoSort>
_TEXT	ENDS
PUBLIC	??$_Move_backward@PAUBuffInfo@ioBuffCountSkill@@PAU12@@std@@YAPAUBuffInfo@ioBuffCountSkill@@PAU12@00U_Nonscalar_ptr_iterator_tag@0@@Z ; std::_Move_backward<ioBuffCountSkill::BuffInfo *,ioBuffCountSkill::BuffInfo *>
; Function compile flags: /Ogsp
; File c:\program files (x86)\microsoft visual studio 10.0\vc\include\xutility
;	COMDAT ??$_Move_backward@PAUBuffInfo@ioBuffCountSkill@@PAU12@@std@@YAPAUBuffInfo@ioBuffCountSkill@@PAU12@00U_Nonscalar_ptr_iterator_tag@0@@Z
_TEXT	SEGMENT
__First$ = 8						; size = 4
__Last$ = 12						; size = 4
__Dest$ = 16						; size = 4
___formal$ = 20						; size = 1
??$_Move_backward@PAUBuffInfo@ioBuffCountSkill@@PAU12@@std@@YAPAUBuffInfo@ioBuffCountSkill@@PAU12@00U_Nonscalar_ptr_iterator_tag@0@@Z PROC ; std::_Move_backward<ioBuffCountSkill::BuffInfo *,ioBuffCountSkill::BuffInfo *>, COMDAT

; 2617 : 	{	// move [_First, _Last) backwards to [..., _Dest), arbitrary iterators

  00000	55		 push	 ebp
  00001	8b ec		 mov	 ebp, esp
  00003	56		 push	 esi

; 2618 : 	while (_First != _Last)

  00004	8b 75 0c	 mov	 esi, DWORD PTR __Last$[ebp]
  00007	39 75 08	 cmp	 DWORD PTR __First$[ebp], esi
  0000a	74 1e		 je	 SHORT $LN11@Move_backw
$LL2@Move_backw:

; 2619 : 		*--_Dest = _STD move(*--_Last);

  0000c	83 6d 10 14	 sub	 DWORD PTR __Dest$[ebp], 20 ; 00000014H
  00010	8b 4d 10	 mov	 ecx, DWORD PTR __Dest$[ebp]
  00013	83 ee 14	 sub	 esi, 20			; 00000014H
  00016	56		 push	 esi
  00017	e8 00 00 00 00	 call	 ??4?$vector@VioHashString@@V?$allocator@VioHashString@@@std@@@std@@QAEAAV01@ABV01@@Z ; std::vector<ioHashString,std::allocator<ioHashString> >::operator=
  0001c	8b 46 10	 mov	 eax, DWORD PTR [esi+16]
  0001f	8b 4d 10	 mov	 ecx, DWORD PTR __Dest$[ebp]
  00022	89 41 10	 mov	 DWORD PTR [ecx+16], eax
  00025	3b 75 08	 cmp	 esi, DWORD PTR __First$[ebp]
  00028	75 e2		 jne	 SHORT $LL2@Move_backw
$LN11@Move_backw:

; 2620 : 	return (_Dest);

  0002a	8b 45 10	 mov	 eax, DWORD PTR __Dest$[ebp]
  0002d	5e		 pop	 esi

; 2621 : 	}

  0002e	5d		 pop	 ebp
  0002f	c3		 ret	 0
??$_Move_backward@PAUBuffInfo@ioBuffCountSkill@@PAU12@@std@@YAPAUBuffInfo@ioBuffCountSkill@@PAU12@00U_Nonscalar_ptr_iterator_tag@0@@Z ENDP ; std::_Move_backward<ioBuffCountSkill::BuffInfo *,ioBuffCountSkill::BuffInfo *>
_TEXT	ENDS
PUBLIC	?OnSkillStart@ioBuffCountSkill@@UAE_NPAVioBaseChar@@@Z ; ioBuffCountSkill::OnSkillStart
EXTRN	?ChangeSkillWeaponMesh@ioBaseChar@@QAE_NPAVioSkill@@ABVioHashString@@_N@Z:PROC ; ioBaseChar::ChangeSkillWeaponMesh
EXTRN	?OnSkillStart@ioCountSkill@@UAE_NPAVioBaseChar@@@Z:PROC ; ioCountSkill::OnSkillStart
; Function compile flags: /Ogsp
; File d:\lost saga for developer\youtube\tutorial\source\src\lsclient\iobuffcountskill.cpp
;	COMDAT ?OnSkillStart@ioBuffCountSkill@@UAE_NPAVioBaseChar@@@Z
_TEXT	SEGMENT
_value$537695 = -4					; size = 4
_pOwner$ = 8						; size = 4
?OnSkillStart@ioBuffCountSkill@@UAE_NPAVioBaseChar@@@Z PROC ; ioBuffCountSkill::OnSkillStart, COMDAT
; _this$ = ecx

; 97   : {

  00000	55		 push	 ebp
  00001	8b ec		 mov	 ebp, esp
  00003	51		 push	 ecx
  00004	53		 push	 ebx
  00005	56		 push	 esi
  00006	57		 push	 edi
  00007	8b f1		 mov	 esi, ecx

; 98   : 	Init();

  00009	e8 00 00 00 00	 call	 ?Init@ioBuffCountSkill@@IAEXXZ ; ioBuffCountSkill::Init

; 99   : 
; 100  : 	//  
; 101  : 	for( BuffInfoList::reverse_iterator iter = m_BuffInfoList.rbegin(); iter != m_BuffInfoList.rend(); ++iter )

  0000e	8b be 70 12 00
	00		 mov	 edi, DWORD PTR [esi+4720]
  00014	eb 1c		 jmp	 SHORT $LN73@OnSkillSta
$LL30@OnSkillSta:

; 102  : 	{
; 103  : 		const BuffInfo& Info = *iter;
; 104  : 		if( Info.nNeedCount <= m_iCurUseCount )

  00016	8d 45 fc	 lea	 eax, DWORD PTR _value$537695[ebp]
  00019	50		 push	 eax
  0001a	8d 8e 14 11 00
	00		 lea	 ecx, DWORD PTR [esi+4372]
  00020	8d 5f ec	 lea	 ebx, DWORD PTR [edi-20]
  00023	e8 00 00 00 00	 call	 ?DecryptValueToPool@?$CEncrypt@H@@QAEXPAH@Z ; CEncrypt<int>::DecryptValueToPool
  00028	8b 47 fc	 mov	 eax, DWORD PTR [edi-4]
  0002b	3b 45 fc	 cmp	 eax, DWORD PTR _value$537695[ebp]
  0002e	7e 0c		 jle	 SHORT $LN71@OnSkillSta

; 99   : 
; 100  : 	//  
; 101  : 	for( BuffInfoList::reverse_iterator iter = m_BuffInfoList.rbegin(); iter != m_BuffInfoList.rend(); ++iter )

  00030	8b fb		 mov	 edi, ebx
$LN73@OnSkillSta:
  00032	3b be 6c 12 00
	00		 cmp	 edi, DWORD PTR [esi+4716]
  00038	75 dc		 jne	 SHORT $LL30@OnSkillSta

; 102  : 	{
; 103  : 		const BuffInfo& Info = *iter;
; 104  : 		if( Info.nNeedCount <= m_iCurUseCount )

  0003a	eb 15		 jmp	 SHORT $LN5@OnSkillSta
$LN71@OnSkillSta:

; 105  : 		{
; 106  : 			m_CurrBuffList = Info.BuffNameList;

  0003c	53		 push	 ebx
  0003d	8d 8e 7c 12 00
	00		 lea	 ecx, DWORD PTR [esi+4732]
  00043	e8 00 00 00 00	 call	 ??4?$vector@VioHashString@@V?$allocator@VioHashString@@@std@@@std@@QAEAAV01@ABV01@@Z ; std::vector<ioHashString,std::allocator<ioHashString> >::operator=

; 107  : 			m_nCurNeedCount = Info.nNeedCount;

  00048	8b 43 10	 mov	 eax, DWORD PTR [ebx+16]
  0004b	89 86 94 12 00
	00		 mov	 DWORD PTR [esi+4756], eax
$LN5@OnSkillSta:

; 108  : 			break;
; 109  : 		}
; 110  : 	}
; 111  : 	
; 112  : 	// 
; 113  : 	if( !ioCountSkill::OnSkillStart(pOwner) )

  00051	ff 75 08	 push	 DWORD PTR _pOwner$[ebp]
  00054	8b ce		 mov	 ecx, esi
  00056	e8 00 00 00 00	 call	 ?OnSkillStart@ioCountSkill@@UAE_NPAVioBaseChar@@@Z ; ioCountSkill::OnSkillStart
  0005b	84 c0		 test	 al, al
  0005d	74 51		 je	 SHORT $LN8@OnSkillSta
$LN3@OnSkillSta:

; 114  : 		return false;
; 115  : 
; 116  : 	if( m_bUseItemMesh )

  0005f	33 db		 xor	 ebx, ebx
  00061	38 9e 08 0f 00
	00		 cmp	 BYTE PTR [esi+3848], bl
  00067	74 0a		 je	 SHORT $LN2@OnSkillSta

; 117  : 		pOwner->ShowWeaponItemMesh( false );

  00069	8b 4d 08	 mov	 ecx, DWORD PTR _pOwner$[ebp]
  0006c	53		 push	 ebx
  0006d	53		 push	 ebx
  0006e	e8 00 00 00 00	 call	 ?ShowWeaponItemMesh@ioBaseChar@@QAEX_N0@Z ; ioBaseChar::ShowWeaponItemMesh
$LN2@OnSkillSta:

; 118  : 
; 119  : 	if( !m_bSetHandMesh && m_bUseItemMesh && !m_HandMesh.IsEmpty() )

  00073	38 9e 0a 0f 00
	00		 cmp	 BYTE PTR [esi+3850], bl
  00079	75 33		 jne	 SHORT $LN1@OnSkillSta
  0007b	38 9e 08 0f 00
	00		 cmp	 BYTE PTR [esi+3848], bl
  00081	74 2b		 je	 SHORT $LN1@OnSkillSta
  00083	8d be f8 0e 00
	00		 lea	 edi, DWORD PTR [esi+3832]
  00089	8b cf		 mov	 ecx, edi
  0008b	ff 15 00 00 00
	00		 call	 DWORD PTR __imp_?IsEmpty@ioHashString@@QBE_NXZ
  00091	84 c0		 test	 al, al
  00093	75 19		 jne	 SHORT $LN1@OnSkillSta

; 120  : 	{
; 121  : 		pOwner->ChangeSkillWeaponMesh( this, m_HandMesh, m_bVisibleEquipMesh );

  00095	0f b6 86 09 0f
	00 00		 movzx	 eax, BYTE PTR [esi+3849]
  0009c	8b 4d 08	 mov	 ecx, DWORD PTR _pOwner$[ebp]
  0009f	50		 push	 eax
  000a0	57		 push	 edi
  000a1	56		 push	 esi
  000a2	e8 00 00 00 00	 call	 ?ChangeSkillWeaponMesh@ioBaseChar@@QAE_NPAVioSkill@@ABVioHashString@@_N@Z ; ioBaseChar::ChangeSkillWeaponMesh

; 122  : 		m_bSetHandMesh = true;

  000a7	c6 86 0a 0f 00
	00 01		 mov	 BYTE PTR [esi+3850], 1
$LN1@OnSkillSta:

; 123  : 	}
; 124  : 
; 125  : 	return true;

  000ae	b0 01		 mov	 al, 1
$LN8@OnSkillSta:
  000b0	5f		 pop	 edi
  000b1	5e		 pop	 esi
  000b2	5b		 pop	 ebx

; 126  : }

  000b3	c9		 leave
  000b4	c2 04 00	 ret	 4
?OnSkillStart@ioBuffCountSkill@@UAE_NPAVioBaseChar@@@Z ENDP ; ioBuffCountSkill::OnSkillStart
_TEXT	ENDS
PUBLIC	??$construct@AAUBuffInfo@ioBuffCountSkill@@@?$allocator@UBuffInfo@ioBuffCountSkill@@@std@@QAEXPAUBuffInfo@ioBuffCountSkill@@AAU23@@Z ; std::allocator<ioBuffCountSkill::BuffInfo>::construct<ioBuffCountSkill::BuffInfo &>
;	COMDAT xdata$x
; File c:\program files (x86)\microsoft visual studio 10.0\vc\include\vector
xdata$x	SEGMENT
__unwindtable$??$construct@AAUBuffInfo@ioBuffCountSkill@@@?$allocator@UBuffInfo@ioBuffCountSkill@@@std@@QAEXPAUBuffInfo@ioBuffCountSkill@@AAU23@@Z DD 0ffffffffH
	DD	FLAT:__unwindfunclet$??$construct@AAUBuffInfo@ioBuffCountSkill@@@?$allocator@UBuffInfo@ioBuffCountSkill@@@std@@QAEXPAUBuffInfo@ioBuffCountSkill@@AAU23@@Z$0
__ehfuncinfo$??$construct@AAUBuffInfo@ioBuffCountSkill@@@?$allocator@UBuffInfo@ioBuffCountSkill@@@std@@QAEXPAUBuffInfo@ioBuffCountSkill@@AAU23@@Z DD 019930522H
	DD	01H
	DD	FLAT:__unwindtable$??$construct@AAUBuffInfo@ioBuffCountSkill@@@?$allocator@UBuffInfo@ioBuffCountSkill@@@std@@QAEXPAUBuffInfo@ioBuffCountSkill@@AAU23@@Z
	DD	2 DUP(00H)
	DD	2 DUP(00H)
	DD	00H
	DD	01H
; Function compile flags: /Ogsp
; File c:\program files (x86)\microsoft visual studio 10.0\vc\include\xmemory
xdata$x	ENDS
;	COMDAT ??$construct@AAUBuffInfo@ioBuffCountSkill@@@?$allocator@UBuffInfo@ioBuffCountSkill@@@std@@QAEXPAUBuffInfo@ioBuffCountSkill@@AAU23@@Z
_TEXT	SEGMENT
$T537703 = -16						; size = 4
__$EHRec$ = -12						; size = 12
__Ptr$ = 8						; size = 4
__Val$ = 12						; size = 4
??$construct@AAUBuffInfo@ioBuffCountSkill@@@?$allocator@UBuffInfo@ioBuffCountSkill@@@std@@QAEXPAUBuffInfo@ioBuffCountSkill@@AAU23@@Z PROC ; std::allocator<ioBuffCountSkill::BuffInfo>::construct<ioBuffCountSkill::BuffInfo &>, COMDAT
; _this$ = ecx

; 206  : 		void construct(pointer _Ptr, _Other&& _Val)

  00000	6a 04		 push	 4
  00002	b8 00 00 00 00	 mov	 eax, __ehhandler$??$construct@AAUBuffInfo@ioBuffCountSkill@@@?$allocator@UBuffInfo@ioBuffCountSkill@@@std@@QAEXPAUBuffInfo@ioBuffCountSkill@@AAU23@@Z
  00007	e8 00 00 00 00	 call	 __EH_prolog3

; 207  : 		{	// construct object at _Ptr with value _Val
; 208  : 		::new ((void _FARQ *)_Ptr) _Ty(_STD forward<_Other>(_Val));

  0000c	8b 75 08	 mov	 esi, DWORD PTR __Ptr$[ebp]
  0000f	89 75 f0	 mov	 DWORD PTR $T537703[ebp], esi
  00012	83 65 fc 00	 and	 DWORD PTR __$EHRec$[ebp+8], 0
  00016	85 f6		 test	 esi, esi
  00018	74 11		 je	 SHORT $LN3@construct@4
  0001a	8b 7d 0c	 mov	 edi, DWORD PTR __Val$[ebp]
  0001d	57		 push	 edi
  0001e	8b ce		 mov	 ecx, esi
  00020	e8 00 00 00 00	 call	 ??0?$vector@VioHashString@@V?$allocator@VioHashString@@@std@@@std@@QAE@ABV01@@Z ; std::vector<ioHashString,std::allocator<ioHashString> >::vector<ioHashString,std::allocator<ioHashString> >
  00025	8b 47 10	 mov	 eax, DWORD PTR [edi+16]
  00028	89 46 10	 mov	 DWORD PTR [esi+16], eax
$LN3@construct@4:

; 209  : 		}

  0002b	e8 00 00 00 00	 call	 __EH_epilog3
  00030	c2 08 00	 ret	 8
_TEXT	ENDS
;	COMDAT text$x
text$x	SEGMENT
__unwindfunclet$??$construct@AAUBuffInfo@ioBuffCountSkill@@@?$allocator@UBuffInfo@ioBuffCountSkill@@@std@@QAEXPAUBuffInfo@ioBuffCountSkill@@AAU23@@Z$0:
  00000	ff 75 08	 push	 DWORD PTR __Ptr$[ebp]
  00003	ff 75 f0	 push	 DWORD PTR $T537703[ebp]
  00006	e8 00 00 00 00	 call	 ??3@YAXPAX0@Z		; operator delete
  0000b	59		 pop	 ecx
  0000c	59		 pop	 ecx
  0000d	c3		 ret	 0
__ehhandler$??$construct@AAUBuffInfo@ioBuffCountSkill@@@?$allocator@UBuffInfo@ioBuffCountSkill@@@std@@QAEXPAUBuffInfo@ioBuffCountSkill@@AAU23@@Z:
  0000e	8b 54 24 08	 mov	 edx, DWORD PTR [esp+8]
  00012	8d 42 0c	 lea	 eax, DWORD PTR [edx+12]
  00015	8b 4a ec	 mov	 ecx, DWORD PTR [edx-20]
  00018	33 c8		 xor	 ecx, eax
  0001a	e8 00 00 00 00	 call	 @__security_check_cookie@4
  0001f	b8 00 00 00 00	 mov	 eax, OFFSET __ehfuncinfo$??$construct@AAUBuffInfo@ioBuffCountSkill@@@?$allocator@UBuffInfo@ioBuffCountSkill@@@std@@QAEXPAUBuffInfo@ioBuffCountSkill@@AAU23@@Z
  00024	e9 00 00 00 00	 jmp	 ___CxxFrameHandler3
text$x	ENDS
??$construct@AAUBuffInfo@ioBuffCountSkill@@@?$allocator@UBuffInfo@ioBuffCountSkill@@@std@@QAEXPAUBuffInfo@ioBuffCountSkill@@AAU23@@Z ENDP ; std::allocator<ioBuffCountSkill::BuffInfo>::construct<ioBuffCountSkill::BuffInfo &>
PUBLIC	??$_Construct@UBuffInfo@ioBuffCountSkill@@ABU12@@std@@YAXPAUBuffInfo@ioBuffCountSkill@@ABU12@@Z ; std::_Construct<ioBuffCountSkill::BuffInfo,ioBuffCountSkill::BuffInfo const &>
;	COMDAT xdata$x
; File c:\program files (x86)\microsoft visual studio 10.0\vc\include\vector
xdata$x	SEGMENT
__unwindtable$??$_Construct@UBuffInfo@ioBuffCountSkill@@ABU12@@std@@YAXPAUBuffInfo@ioBuffCountSkill@@ABU12@@Z DD 0ffffffffH
	DD	FLAT:__unwindfunclet$??$_Construct@UBuffInfo@ioBuffCountSkill@@ABU12@@std@@YAXPAUBuffInfo@ioBuffCountSkill@@ABU12@@Z$0
__ehfuncinfo$??$_Construct@UBuffInfo@ioBuffCountSkill@@ABU12@@std@@YAXPAUBuffInfo@ioBuffCountSkill@@ABU12@@Z DD 019930522H
	DD	01H
	DD	FLAT:__unwindtable$??$_Construct@UBuffInfo@ioBuffCountSkill@@ABU12@@std@@YAXPAUBuffInfo@ioBuffCountSkill@@ABU12@@Z
	DD	2 DUP(00H)
	DD	2 DUP(00H)
	DD	00H
	DD	01H
; Function compile flags: /Ogsp
; File c:\program files (x86)\microsoft visual studio 10.0\vc\include\xmemory
xdata$x	ENDS
;	COMDAT ??$_Construct@UBuffInfo@ioBuffCountSkill@@ABU12@@std@@YAXPAUBuffInfo@ioBuffCountSkill@@ABU12@@Z
_TEXT	SEGMENT
$T537726 = -16						; size = 4
__$EHRec$ = -12						; size = 12
__Vptr$ = 8						; size = 4
__Ptr$ = 8						; size = 4
__Val$ = 12						; size = 4
??$_Construct@UBuffInfo@ioBuffCountSkill@@ABU12@@std@@YAXPAUBuffInfo@ioBuffCountSkill@@ABU12@@Z PROC ; std::_Construct<ioBuffCountSkill::BuffInfo,ioBuffCountSkill::BuffInfo const &>, COMDAT

; 46   : 	{	// construct object at _Ptr with value _Val

  00000	6a 04		 push	 4
  00002	b8 00 00 00 00	 mov	 eax, __ehhandler$??$_Construct@UBuffInfo@ioBuffCountSkill@@ABU12@@std@@YAXPAUBuffInfo@ioBuffCountSkill@@ABU12@@Z
  00007	e8 00 00 00 00	 call	 __EH_prolog3

; 47   : 	void _FARQ *_Vptr = _Ptr;

  0000c	8b 75 08	 mov	 esi, DWORD PTR __Ptr$[ebp]
  0000f	89 75 08	 mov	 DWORD PTR __Vptr$[ebp], esi

; 48   : 	::new (_Vptr) _Ty1(_STD forward<_Ty2>(_Val));

  00012	89 75 f0	 mov	 DWORD PTR $T537726[ebp], esi
  00015	83 65 fc 00	 and	 DWORD PTR __$EHRec$[ebp+8], 0
  00019	85 f6		 test	 esi, esi
  0001b	74 11		 je	 SHORT $LN3@Construct@2
  0001d	8b 7d 0c	 mov	 edi, DWORD PTR __Val$[ebp]
  00020	57		 push	 edi
  00021	8b ce		 mov	 ecx, esi
  00023	e8 00 00 00 00	 call	 ??0?$vector@VioHashString@@V?$allocator@VioHashString@@@std@@@std@@QAE@ABV01@@Z ; std::vector<ioHashString,std::allocator<ioHashString> >::vector<ioHashString,std::allocator<ioHashString> >
  00028	8b 47 10	 mov	 eax, DWORD PTR [edi+16]
  0002b	89 46 10	 mov	 DWORD PTR [esi+16], eax
$LN3@Construct@2:

; 49   : 	}

  0002e	e8 00 00 00 00	 call	 __EH_epilog3
  00033	c3		 ret	 0
_TEXT	ENDS
;	COMDAT text$x
text$x	SEGMENT
__unwindfunclet$??$_Construct@UBuffInfo@ioBuffCountSkill@@ABU12@@std@@YAXPAUBuffInfo@ioBuffCountSkill@@ABU12@@Z$0:
  00000	ff 75 08	 push	 DWORD PTR __Vptr$[ebp]
  00003	ff 75 f0	 push	 DWORD PTR $T537726[ebp]
  00006	e8 00 00 00 00	 call	 ??3@YAXPAX0@Z		; operator delete
  0000b	59		 pop	 ecx
  0000c	59		 pop	 ecx
  0000d	c3		 ret	 0
__ehhandler$??$_Construct@UBuffInfo@ioBuffCountSkill@@ABU12@@std@@YAXPAUBuffInfo@ioBuffCountSkill@@ABU12@@Z:
  0000e	8b 54 24 08	 mov	 edx, DWORD PTR [esp+8]
  00012	8d 42 0c	 lea	 eax, DWORD PTR [edx+12]
  00015	8b 4a ec	 mov	 ecx, DWORD PTR [edx-20]
  00018	33 c8		 xor	 ecx, eax
  0001a	e8 00 00 00 00	 call	 @__security_check_cookie@4
  0001f	b8 00 00 00 00	 mov	 eax, OFFSET __ehfuncinfo$??$_Construct@UBuffInfo@ioBuffCountSkill@@ABU12@@std@@YAXPAUBuffInfo@ioBuffCountSkill@@ABU12@@Z
  00024	e9 00 00 00 00	 jmp	 ___CxxFrameHandler3
text$x	ENDS
??$_Construct@UBuffInfo@ioBuffCountSkill@@ABU12@@std@@YAXPAUBuffInfo@ioBuffCountSkill@@ABU12@@Z ENDP ; std::_Construct<ioBuffCountSkill::BuffInfo,ioBuffCountSkill::BuffInfo const &>
PUBLIC	??$iter_swap@PAUBuffInfo@ioBuffCountSkill@@PAU12@@std@@YAXPAUBuffInfo@ioBuffCountSkill@@0@Z ; std::iter_swap<ioBuffCountSkill::BuffInfo *,ioBuffCountSkill::BuffInfo *>
; Function compile flags: /Ogsp
; File c:\program files (x86)\microsoft visual studio 10.0\vc\include\xutility
;	COMDAT ??$iter_swap@PAUBuffInfo@ioBuffCountSkill@@PAU12@@std@@YAXPAUBuffInfo@ioBuffCountSkill@@0@Z
_TEXT	SEGMENT
__Left$ = 8						; size = 4
__Right$ = 12						; size = 4
??$iter_swap@PAUBuffInfo@ioBuffCountSkill@@PAU12@@std@@YAXPAUBuffInfo@ioBuffCountSkill@@0@Z PROC ; std::iter_swap<ioBuffCountSkill::BuffInfo *,ioBuffCountSkill::BuffInfo *>, COMDAT

; 2133 : 	{	// swap *_Left and *_Right

  00000	55		 push	 ebp
  00001	8b ec		 mov	 ebp, esp

; 2135 : 	}

  00003	5d		 pop	 ebp

; 2134 : 	swap(*_Left, *_Right);

  00004	e9 00 00 00 00	 jmp	 ??$swap@UBuffInfo@ioBuffCountSkill@@@std@@YAXAAUBuffInfo@ioBuffCountSkill@@0@Z ; std::swap<ioBuffCountSkill::BuffInfo>
??$iter_swap@PAUBuffInfo@ioBuffCountSkill@@PAU12@@std@@YAXPAUBuffInfo@ioBuffCountSkill@@0@Z ENDP ; std::iter_swap<ioBuffCountSkill::BuffInfo *,ioBuffCountSkill::BuffInfo *>
_TEXT	ENDS
PUBLIC	??$_Cons_val@V?$allocator@UBuffInfo@ioBuffCountSkill@@@std@@UBuffInfo@ioBuffCountSkill@@U34@@std@@YAXAAV?$allocator@UBuffInfo@ioBuffCountSkill@@@0@PAUBuffInfo@ioBuffCountSkill@@$$QAU23@@Z ; std::_Cons_val<std::allocator<ioBuffCountSkill::BuffInfo>,ioBuffCountSkill::BuffInfo,ioBuffCountSkill::BuffInfo>
; Function compile flags: /Ogsp
; File c:\program files (x86)\microsoft visual studio 10.0\vc\include\xmemory
;	COMDAT ??$_Cons_val@V?$allocator@UBuffInfo@ioBuffCountSkill@@@std@@UBuffInfo@ioBuffCountSkill@@U34@@std@@YAXAAV?$allocator@UBuffInfo@ioBuffCountSkill@@@0@PAUBuffInfo@ioBuffCountSkill@@$$QAU23@@Z
_TEXT	SEGMENT
__Alval$ = 8						; size = 4
__Pdest$ = 12						; size = 4
__Src$ = 16						; size = 4
??$_Cons_val@V?$allocator@UBuffInfo@ioBuffCountSkill@@@std@@UBuffInfo@ioBuffCountSkill@@U34@@std@@YAXAAV?$allocator@UBuffInfo@ioBuffCountSkill@@@0@PAUBuffInfo@ioBuffCountSkill@@$$QAU23@@Z PROC ; std::_Cons_val<std::allocator<ioBuffCountSkill::BuffInfo>,ioBuffCountSkill::BuffInfo,ioBuffCountSkill::BuffInfo>, COMDAT

; 279  : 	{	// construct using allocator

  00000	55		 push	 ebp
  00001	8b ec		 mov	 ebp, esp

; 280  : 	_Alval.construct(_Pdest, _STD forward<_Ty2>(_Src));

  00003	ff 75 10	 push	 DWORD PTR __Src$[ebp]
  00006	8b 4d 08	 mov	 ecx, DWORD PTR __Alval$[ebp]
  00009	ff 75 0c	 push	 DWORD PTR __Pdest$[ebp]
  0000c	e8 00 00 00 00	 call	 ?construct@?$allocator@UBuffInfo@ioBuffCountSkill@@@std@@QAEXPAUBuffInfo@ioBuffCountSkill@@$$QAU34@@Z ; std::allocator<ioBuffCountSkill::BuffInfo>::construct

; 281  : 	}

  00011	5d		 pop	 ebp
  00012	c3		 ret	 0
??$_Cons_val@V?$allocator@UBuffInfo@ioBuffCountSkill@@@std@@UBuffInfo@ioBuffCountSkill@@U34@@std@@YAXAAV?$allocator@UBuffInfo@ioBuffCountSkill@@@0@PAUBuffInfo@ioBuffCountSkill@@$$QAU23@@Z ENDP ; std::_Cons_val<std::allocator<ioBuffCountSkill::BuffInfo>,ioBuffCountSkill::BuffInfo,ioBuffCountSkill::BuffInfo>
_TEXT	ENDS
PUBLIC	??$_Destroy@UBuffInfo@ioBuffCountSkill@@@std@@YAXPAUBuffInfo@ioBuffCountSkill@@@Z ; std::_Destroy<ioBuffCountSkill::BuffInfo>
; Function compile flags: /Ogsp
;	COMDAT ??$_Destroy@UBuffInfo@ioBuffCountSkill@@@std@@YAXPAUBuffInfo@ioBuffCountSkill@@@Z
_TEXT	SEGMENT
__Ptr$ = 8						; size = 4
??$_Destroy@UBuffInfo@ioBuffCountSkill@@@std@@YAXPAUBuffInfo@ioBuffCountSkill@@@Z PROC ; std::_Destroy<ioBuffCountSkill::BuffInfo>, COMDAT

; 62   : 	{	// destroy object at _Ptr

  00000	55		 push	 ebp
  00001	8b ec		 mov	 ebp, esp

; 63   : 	_Ptr->~_Ty();

  00003	8b 4d 08	 mov	 ecx, DWORD PTR __Ptr$[ebp]

; 64   : 	}

  00006	5d		 pop	 ebp

; 63   : 	_Ptr->~_Ty();

  00007	e9 00 00 00 00	 jmp	 ?_Tidy@?$vector@VioHashString@@V?$allocator@VioHashString@@@std@@@std@@IAEXXZ ; std::vector<ioHashString,std::allocator<ioHashString> >::_Tidy
??$_Destroy@UBuffInfo@ioBuffCountSkill@@@std@@YAXPAUBuffInfo@ioBuffCountSkill@@@Z ENDP ; std::_Destroy<ioBuffCountSkill::BuffInfo>
_TEXT	ENDS
PUBLIC	??$_Med3@PAUBuffInfo@ioBuffCountSkill@@VBuffInfoSort@2@@std@@YAXPAUBuffInfo@ioBuffCountSkill@@00VBuffInfoSort@2@@Z ; std::_Med3<ioBuffCountSkill::BuffInfo *,ioBuffCountSkill::BuffInfoSort>
; Function compile flags: /Ogsp
; File c:\program files (x86)\microsoft visual studio 10.0\vc\include\algorithm
;	COMDAT ??$_Med3@PAUBuffInfo@ioBuffCountSkill@@VBuffInfoSort@2@@std@@YAXPAUBuffInfo@ioBuffCountSkill@@00VBuffInfoSort@2@@Z
_TEXT	SEGMENT
__First$ = 8						; size = 4
__Mid$ = 12						; size = 4
__Last$ = 16						; size = 4
__Pred$ = 20						; size = 1
??$_Med3@PAUBuffInfo@ioBuffCountSkill@@VBuffInfoSort@2@@std@@YAXPAUBuffInfo@ioBuffCountSkill@@00VBuffInfoSort@2@@Z PROC ; std::_Med3<ioBuffCountSkill::BuffInfo *,ioBuffCountSkill::BuffInfoSort>, COMDAT

; 3683 : 	{	// sort median of three elements to middle

  00000	55		 push	 ebp
  00001	8b ec		 mov	 ebp, esp
  00003	56		 push	 esi

; 3684 : 	if (_DEBUG_LT_PRED(_Pred, *_Mid, *_First))

  00004	8b 75 0c	 mov	 esi, DWORD PTR __Mid$[ebp]
  00007	8b 46 10	 mov	 eax, DWORD PTR [esi+16]
  0000a	57		 push	 edi
  0000b	8b 7d 08	 mov	 edi, DWORD PTR __First$[ebp]
  0000e	3b 47 10	 cmp	 eax, DWORD PTR [edi+16]
  00011	7d 09		 jge	 SHORT $LN9@Med3

; 3685 : 		_STD iter_swap(_Mid, _First);

  00013	57		 push	 edi
  00014	56		 push	 esi
  00015	e8 00 00 00 00	 call	 ??$swap@UBuffInfo@ioBuffCountSkill@@@std@@YAXAAUBuffInfo@ioBuffCountSkill@@0@Z ; std::swap<ioBuffCountSkill::BuffInfo>
  0001a	59		 pop	 ecx
  0001b	59		 pop	 ecx
$LN9@Med3:

; 3686 : 	if (_DEBUG_LT_PRED(_Pred, *_Last, *_Mid))

  0001c	8b 45 10	 mov	 eax, DWORD PTR __Last$[ebp]
  0001f	8b 48 10	 mov	 ecx, DWORD PTR [eax+16]
  00022	3b 4e 10	 cmp	 ecx, DWORD PTR [esi+16]
  00025	7d 09		 jge	 SHORT $LN14@Med3

; 3687 : 		_STD iter_swap(_Last, _Mid);

  00027	56		 push	 esi
  00028	50		 push	 eax
  00029	e8 00 00 00 00	 call	 ??$swap@UBuffInfo@ioBuffCountSkill@@@std@@YAXAAUBuffInfo@ioBuffCountSkill@@0@Z ; std::swap<ioBuffCountSkill::BuffInfo>
  0002e	59		 pop	 ecx
  0002f	59		 pop	 ecx
$LN14@Med3:

; 3688 : 	if (_DEBUG_LT_PRED(_Pred, *_Mid, *_First))

  00030	8b 46 10	 mov	 eax, DWORD PTR [esi+16]
  00033	3b 47 10	 cmp	 eax, DWORD PTR [edi+16]
  00036	7d 09		 jge	 SHORT $LN19@Med3

; 3689 : 		_STD iter_swap(_Mid, _First);

  00038	57		 push	 edi
  00039	56		 push	 esi
  0003a	e8 00 00 00 00	 call	 ??$swap@UBuffInfo@ioBuffCountSkill@@@std@@YAXAAUBuffInfo@ioBuffCountSkill@@0@Z ; std::swap<ioBuffCountSkill::BuffInfo>
  0003f	59		 pop	 ecx
  00040	59		 pop	 ecx
$LN19@Med3:
  00041	5f		 pop	 edi
  00042	5e		 pop	 esi

; 3690 : 	}

  00043	5d		 pop	 ebp
  00044	c3		 ret	 0
??$_Med3@PAUBuffInfo@ioBuffCountSkill@@VBuffInfoSort@2@@std@@YAXPAUBuffInfo@ioBuffCountSkill@@00VBuffInfoSort@2@@Z ENDP ; std::_Med3<ioBuffCountSkill::BuffInfo *,ioBuffCountSkill::BuffInfoSort>
_TEXT	ENDS
PUBLIC	??$_Adjust_heap@PAUBuffInfo@ioBuffCountSkill@@HU12@VBuffInfoSort@2@@std@@YAXPAUBuffInfo@ioBuffCountSkill@@HH$$QAU12@VBuffInfoSort@2@@Z ; std::_Adjust_heap<ioBuffCountSkill::BuffInfo *,int,ioBuffCountSkill::BuffInfo,ioBuffCountSkill::BuffInfoSort>
; Function compile flags: /Ogsp
;	COMDAT ??$_Adjust_heap@PAUBuffInfo@ioBuffCountSkill@@HU12@VBuffInfoSort@2@@std@@YAXPAUBuffInfo@ioBuffCountSkill@@HH$$QAU12@VBuffInfoSort@2@@Z
_TEXT	SEGMENT
__Top$ = -4						; size = 4
__First$ = 8						; size = 4
tv175 = 12						; size = 4
__Hole$ = 12						; size = 4
__Bottom$ = 16						; size = 4
__Val$ = 20						; size = 4
__Pred$ = 24						; size = 1
??$_Adjust_heap@PAUBuffInfo@ioBuffCountSkill@@HU12@VBuffInfoSort@2@@std@@YAXPAUBuffInfo@ioBuffCountSkill@@HH$$QAU12@VBuffInfoSort@2@@Z PROC ; std::_Adjust_heap<ioBuffCountSkill::BuffInfo *,int,ioBuffCountSkill::BuffInfo,ioBuffCountSkill::BuffInfoSort>, COMDAT

; 2565 : 	{	// percolate _Hole to _Bottom, then push _Val, using _Pred

  00000	55		 push	 ebp
  00001	8b ec		 mov	 ebp, esp
  00003	51		 push	 ecx

; 2566 : 	_Diff _Top = _Hole;

  00004	8b 45 0c	 mov	 eax, DWORD PTR __Hole$[ebp]
  00007	53		 push	 ebx
  00008	56		 push	 esi

; 2567 : 	_Diff _Idx = 2 * _Hole + 2;
; 2568 : 
; 2569 : 	for (; _Idx < _Bottom; _Idx = 2 * _Idx + 2)

  00009	8b 75 08	 mov	 esi, DWORD PTR __First$[ebp]
  0000c	57		 push	 edi
  0000d	89 45 fc	 mov	 DWORD PTR __Top$[ebp], eax
  00010	8d 7c 00 02	 lea	 edi, DWORD PTR [eax+eax+2]
  00014	eb 35		 jmp	 SHORT $LN24@Adjust_hea
$LL5@Adjust_hea:

; 2570 : 		{	// move _Hole down to larger child
; 2571 : 		if (_DEBUG_LT_PRED(_Pred, *(_First + _Idx), *(_First + (_Idx - 1))))

  00016	8b cf		 mov	 ecx, edi
  00018	6b c9 14	 imul	 ecx, 20			; 00000014H
  0001b	8b 54 31 10	 mov	 edx, DWORD PTR [ecx+esi+16]
  0001f	3b 54 31 fc	 cmp	 edx, DWORD PTR [ecx+esi-4]
  00023	7d 01		 jge	 SHORT $LN2@Adjust_hea

; 2572 : 			--_Idx;

  00025	4f		 dec	 edi
$LN2@Adjust_hea:

; 2573 : 		*(_First + _Hole) = _Move(*(_First + _Idx));

  00026	8b df		 mov	 ebx, edi
  00028	6b c0 14	 imul	 eax, 20			; 00000014H
  0002b	6b db 14	 imul	 ebx, 20			; 00000014H
  0002e	03 de		 add	 ebx, esi
  00030	8d 0c 30	 lea	 ecx, DWORD PTR [eax+esi]
  00033	53		 push	 ebx
  00034	89 4d 0c	 mov	 DWORD PTR tv175[ebp], ecx
  00037	e8 00 00 00 00	 call	 ??4?$vector@VioHashString@@V?$allocator@VioHashString@@@std@@@std@@QAEAAV01@ABV01@@Z ; std::vector<ioHashString,std::allocator<ioHashString> >::operator=
  0003c	8b 43 10	 mov	 eax, DWORD PTR [ebx+16]
  0003f	8b 4d 0c	 mov	 ecx, DWORD PTR tv175[ebp]
  00042	89 41 10	 mov	 DWORD PTR [ecx+16], eax

; 2574 : 		_Hole = _Idx;

  00045	8b c7		 mov	 eax, edi
  00047	8d 7c 3f 02	 lea	 edi, DWORD PTR [edi+edi+2]
$LN24@Adjust_hea:

; 2567 : 	_Diff _Idx = 2 * _Hole + 2;
; 2568 : 
; 2569 : 	for (; _Idx < _Bottom; _Idx = 2 * _Idx + 2)

  0004b	3b 7d 10	 cmp	 edi, DWORD PTR __Bottom$[ebp]
  0004e	7c c6		 jl	 SHORT $LL5@Adjust_hea

; 2575 : 		}
; 2576 : 
; 2577 : 	if (_Idx == _Bottom)

  00050	75 22		 jne	 SHORT $LN1@Adjust_hea

; 2578 : 		{	// only child at bottom, move _Hole down to it
; 2579 : 		*(_First + _Hole) = _Move(*(_First + (_Bottom - 1)));

  00052	8b 4d 10	 mov	 ecx, DWORD PTR __Bottom$[ebp]
  00055	6b c0 14	 imul	 eax, 20			; 00000014H
  00058	6b c9 14	 imul	 ecx, 20			; 00000014H
  0005b	8d 7c 31 ec	 lea	 edi, DWORD PTR [ecx+esi-20]
  0005f	8d 1c 30	 lea	 ebx, DWORD PTR [eax+esi]
  00062	57		 push	 edi
  00063	8b cb		 mov	 ecx, ebx
  00065	e8 00 00 00 00	 call	 ??4?$vector@VioHashString@@V?$allocator@VioHashString@@@std@@@std@@QAEAAV01@ABV01@@Z ; std::vector<ioHashString,std::allocator<ioHashString> >::operator=
  0006a	8b 47 10	 mov	 eax, DWORD PTR [edi+16]
  0006d	89 43 10	 mov	 DWORD PTR [ebx+16], eax

; 2580 : 		_Hole = _Bottom - 1;

  00070	8b 45 10	 mov	 eax, DWORD PTR __Bottom$[ebp]
  00073	48		 dec	 eax
$LN1@Adjust_hea:

; 2581 : 		}
; 2582 : 	_Push_heap(_First, _Hole, _Top, _Move(_Val), _Pred);

  00074	ff 75 18	 push	 DWORD PTR __Pred$[ebp]
  00077	ff 75 14	 push	 DWORD PTR __Val$[ebp]
  0007a	ff 75 fc	 push	 DWORD PTR __Top$[ebp]
  0007d	50		 push	 eax
  0007e	56		 push	 esi
  0007f	e8 00 00 00 00	 call	 ??$_Push_heap@PAUBuffInfo@ioBuffCountSkill@@HU12@VBuffInfoSort@2@@std@@YAXPAUBuffInfo@ioBuffCountSkill@@HH$$QAU12@VBuffInfoSort@2@@Z ; std::_Push_heap<ioBuffCountSkill::BuffInfo *,int,ioBuffCountSkill::BuffInfo,ioBuffCountSkill::BuffInfoSort>
  00084	83 c4 14	 add	 esp, 20			; 00000014H
  00087	5f		 pop	 edi
  00088	5e		 pop	 esi
  00089	5b		 pop	 ebx

; 2583 : 	}

  0008a	c9		 leave
  0008b	c3		 ret	 0
??$_Adjust_heap@PAUBuffInfo@ioBuffCountSkill@@HU12@VBuffInfoSort@2@@std@@YAXPAUBuffInfo@ioBuffCountSkill@@HH$$QAU12@VBuffInfoSort@2@@Z ENDP ; std::_Adjust_heap<ioBuffCountSkill::BuffInfo *,int,ioBuffCountSkill::BuffInfo,ioBuffCountSkill::BuffInfoSort>
_TEXT	ENDS
PUBLIC	??$_Move_backward@PAUBuffInfo@ioBuffCountSkill@@PAU12@@std@@YAPAUBuffInfo@ioBuffCountSkill@@PAU12@00@Z ; std::_Move_backward<ioBuffCountSkill::BuffInfo *,ioBuffCountSkill::BuffInfo *>
; Function compile flags: /Ogsp
; File c:\program files (x86)\microsoft visual studio 10.0\vc\include\xutility
;	COMDAT ??$_Move_backward@PAUBuffInfo@ioBuffCountSkill@@PAU12@@std@@YAPAUBuffInfo@ioBuffCountSkill@@PAU12@00@Z
_TEXT	SEGMENT
__Cat$537850 = -4					; size = 1
__First$ = 8						; size = 4
__Last$ = 12						; size = 4
__Dest$ = 16						; size = 4
??$_Move_backward@PAUBuffInfo@ioBuffCountSkill@@PAU12@@std@@YAPAUBuffInfo@ioBuffCountSkill@@PAU12@00@Z PROC ; std::_Move_backward<ioBuffCountSkill::BuffInfo *,ioBuffCountSkill::BuffInfo *>, COMDAT

; 2638 : 	{	// move [_First, _Last) backwards to [..., _Dest), unchecked

  00000	55		 push	 ebp
  00001	8b ec		 mov	 ebp, esp
  00003	51		 push	 ecx

; 2639 : 	return (_Move_backward(_First, _Last,
; 2640 : 		_Dest, _Ptr_cat(_First, _Dest)));

  00004	ff 75 fc	 push	 DWORD PTR __Cat$537850[ebp]
  00007	ff 75 10	 push	 DWORD PTR __Dest$[ebp]
  0000a	ff 75 0c	 push	 DWORD PTR __Last$[ebp]
  0000d	ff 75 08	 push	 DWORD PTR __First$[ebp]
  00010	e8 00 00 00 00	 call	 ??$_Move_backward@PAUBuffInfo@ioBuffCountSkill@@PAU12@@std@@YAPAUBuffInfo@ioBuffCountSkill@@PAU12@00U_Nonscalar_ptr_iterator_tag@0@@Z ; std::_Move_backward<ioBuffCountSkill::BuffInfo *,ioBuffCountSkill::BuffInfo *>
  00015	83 c4 10	 add	 esp, 16			; 00000010H

; 2641 : 	}

  00018	c9		 leave
  00019	c3		 ret	 0
??$_Move_backward@PAUBuffInfo@ioBuffCountSkill@@PAU12@@std@@YAPAUBuffInfo@ioBuffCountSkill@@PAU12@00@Z ENDP ; std::_Move_backward<ioBuffCountSkill::BuffInfo *,ioBuffCountSkill::BuffInfo *>
_TEXT	ENDS
PUBLIC	??$_Pop_heap@PAUBuffInfo@ioBuffCountSkill@@HU12@VBuffInfoSort@2@@std@@YAXPAUBuffInfo@ioBuffCountSkill@@00$$QAU12@VBuffInfoSort@2@PAH@Z ; std::_Pop_heap<ioBuffCountSkill::BuffInfo *,int,ioBuffCountSkill::BuffInfo,ioBuffCountSkill::BuffInfoSort>
; Function compile flags: /Ogsp
; File c:\program files (x86)\microsoft visual studio 10.0\vc\include\algorithm
;	COMDAT ??$_Pop_heap@PAUBuffInfo@ioBuffCountSkill@@HU12@VBuffInfoSort@2@@std@@YAXPAUBuffInfo@ioBuffCountSkill@@00$$QAU12@VBuffInfoSort@2@PAH@Z
_TEXT	SEGMENT
__First$ = 8						; size = 4
__Last$ = 12						; size = 4
__Dest$ = 16						; size = 4
__Val$ = 20						; size = 4
__Pred$ = 24						; size = 1
___formal$ = 28						; size = 4
??$_Pop_heap@PAUBuffInfo@ioBuffCountSkill@@HU12@VBuffInfoSort@2@@std@@YAXPAUBuffInfo@ioBuffCountSkill@@00$$QAU12@VBuffInfoSort@2@PAH@Z PROC ; std::_Pop_heap<ioBuffCountSkill::BuffInfo *,int,ioBuffCountSkill::BuffInfo,ioBuffCountSkill::BuffInfoSort>, COMDAT

; 2591 : 	{	// pop *_First to *_Dest and reheap, using _Pred

  00000	55		 push	 ebp
  00001	8b ec		 mov	 ebp, esp
  00003	56		 push	 esi

; 2592 : 	*_Dest = _Move(*_First);

  00004	8b 75 08	 mov	 esi, DWORD PTR __First$[ebp]
  00007	57		 push	 edi
  00008	8b 7d 10	 mov	 edi, DWORD PTR __Dest$[ebp]
  0000b	56		 push	 esi
  0000c	8b cf		 mov	 ecx, edi
  0000e	e8 00 00 00 00	 call	 ??4?$vector@VioHashString@@V?$allocator@VioHashString@@@std@@@std@@QAEAAV01@ABV01@@Z ; std::vector<ioHashString,std::allocator<ioHashString> >::operator=

; 2593 : 	_Adjust_heap(_First, _Diff(0), _Diff(_Last - _First),
; 2594 : 		_Move(_Val), _Pred);

  00013	ff 75 18	 push	 DWORD PTR __Pred$[ebp]
  00016	8b 46 10	 mov	 eax, DWORD PTR [esi+16]
  00019	ff 75 14	 push	 DWORD PTR __Val$[ebp]
  0001c	89 47 10	 mov	 DWORD PTR [edi+16], eax
  0001f	8b 45 0c	 mov	 eax, DWORD PTR __Last$[ebp]
  00022	2b c6		 sub	 eax, esi
  00024	6a 14		 push	 20			; 00000014H
  00026	59		 pop	 ecx
  00027	99		 cdq
  00028	f7 f9		 idiv	 ecx
  0002a	50		 push	 eax
  0002b	6a 00		 push	 0
  0002d	56		 push	 esi
  0002e	e8 00 00 00 00	 call	 ??$_Adjust_heap@PAUBuffInfo@ioBuffCountSkill@@HU12@VBuffInfoSort@2@@std@@YAXPAUBuffInfo@ioBuffCountSkill@@HH$$QAU12@VBuffInfoSort@2@@Z ; std::_Adjust_heap<ioBuffCountSkill::BuffInfo *,int,ioBuffCountSkill::BuffInfo,ioBuffCountSkill::BuffInfoSort>
  00033	83 c4 14	 add	 esp, 20			; 00000014H
  00036	5f		 pop	 edi
  00037	5e		 pop	 esi

; 2595 : 	}

  00038	5d		 pop	 ebp
  00039	c3		 ret	 0
??$_Pop_heap@PAUBuffInfo@ioBuffCountSkill@@HU12@VBuffInfoSort@2@@std@@YAXPAUBuffInfo@ioBuffCountSkill@@00$$QAU12@VBuffInfoSort@2@PAH@Z ENDP ; std::_Pop_heap<ioBuffCountSkill::BuffInfo *,int,ioBuffCountSkill::BuffInfo,ioBuffCountSkill::BuffInfoSort>
_TEXT	ENDS
PUBLIC	??$_Cons_val@V?$allocator@UBuffInfo@ioBuffCountSkill@@@std@@UBuffInfo@ioBuffCountSkill@@AAU34@@std@@YAXAAV?$allocator@UBuffInfo@ioBuffCountSkill@@@0@PAUBuffInfo@ioBuffCountSkill@@AAU23@@Z ; std::_Cons_val<std::allocator<ioBuffCountSkill::BuffInfo>,ioBuffCountSkill::BuffInfo,ioBuffCountSkill::BuffInfo &>
; Function compile flags: /Ogsp
; File c:\program files (x86)\microsoft visual studio 10.0\vc\include\xmemory
;	COMDAT ??$_Cons_val@V?$allocator@UBuffInfo@ioBuffCountSkill@@@std@@UBuffInfo@ioBuffCountSkill@@AAU34@@std@@YAXAAV?$allocator@UBuffInfo@ioBuffCountSkill@@@0@PAUBuffInfo@ioBuffCountSkill@@AAU23@@Z
_TEXT	SEGMENT
__Alval$ = 8						; size = 4
__Pdest$ = 12						; size = 4
__Src$ = 16						; size = 4
??$_Cons_val@V?$allocator@UBuffInfo@ioBuffCountSkill@@@std@@UBuffInfo@ioBuffCountSkill@@AAU34@@std@@YAXAAV?$allocator@UBuffInfo@ioBuffCountSkill@@@0@PAUBuffInfo@ioBuffCountSkill@@AAU23@@Z PROC ; std::_Cons_val<std::allocator<ioBuffCountSkill::BuffInfo>,ioBuffCountSkill::BuffInfo,ioBuffCountSkill::BuffInfo &>, COMDAT

; 279  : 	{	// construct using allocator

  00000	55		 push	 ebp
  00001	8b ec		 mov	 ebp, esp

; 280  : 	_Alval.construct(_Pdest, _STD forward<_Ty2>(_Src));

  00003	ff 75 10	 push	 DWORD PTR __Src$[ebp]
  00006	8b 4d 08	 mov	 ecx, DWORD PTR __Alval$[ebp]
  00009	ff 75 0c	 push	 DWORD PTR __Pdest$[ebp]
  0000c	e8 00 00 00 00	 call	 ??$construct@AAUBuffInfo@ioBuffCountSkill@@@?$allocator@UBuffInfo@ioBuffCountSkill@@@std@@QAEXPAUBuffInfo@ioBuffCountSkill@@AAU23@@Z ; std::allocator<ioBuffCountSkill::BuffInfo>::construct<ioBuffCountSkill::BuffInfo &>

; 281  : 	}

  00011	5d		 pop	 ebp
  00012	c3		 ret	 0
??$_Cons_val@V?$allocator@UBuffInfo@ioBuffCountSkill@@@std@@UBuffInfo@ioBuffCountSkill@@AAU34@@std@@YAXAAV?$allocator@UBuffInfo@ioBuffCountSkill@@@0@PAUBuffInfo@ioBuffCountSkill@@AAU23@@Z ENDP ; std::_Cons_val<std::allocator<ioBuffCountSkill::BuffInfo>,ioBuffCountSkill::BuffInfo,ioBuffCountSkill::BuffInfo &>
_TEXT	ENDS
PUBLIC	?construct@?$allocator@UBuffInfo@ioBuffCountSkill@@@std@@QAEXPAUBuffInfo@ioBuffCountSkill@@ABU34@@Z ; std::allocator<ioBuffCountSkill::BuffInfo>::construct
; Function compile flags: /Ogsp
;	COMDAT ?construct@?$allocator@UBuffInfo@ioBuffCountSkill@@@std@@QAEXPAUBuffInfo@ioBuffCountSkill@@ABU34@@Z
_TEXT	SEGMENT
__Ptr$ = 8						; size = 4
__Val$ = 12						; size = 4
?construct@?$allocator@UBuffInfo@ioBuffCountSkill@@@std@@QAEXPAUBuffInfo@ioBuffCountSkill@@ABU34@@Z PROC ; std::allocator<ioBuffCountSkill::BuffInfo>::construct, COMDAT
; _this$ = ecx

; 196  : 		{	// construct object at _Ptr with value _Val

  00000	55		 push	 ebp
  00001	8b ec		 mov	 ebp, esp

; 197  : 		_Construct(_Ptr, _Val);

  00003	ff 75 0c	 push	 DWORD PTR __Val$[ebp]
  00006	ff 75 08	 push	 DWORD PTR __Ptr$[ebp]
  00009	e8 00 00 00 00	 call	 ??$_Construct@UBuffInfo@ioBuffCountSkill@@ABU12@@std@@YAXPAUBuffInfo@ioBuffCountSkill@@ABU12@@Z ; std::_Construct<ioBuffCountSkill::BuffInfo,ioBuffCountSkill::BuffInfo const &>
  0000e	59		 pop	 ecx
  0000f	59		 pop	 ecx

; 198  : 		}

  00010	5d		 pop	 ebp
  00011	c2 08 00	 ret	 8
?construct@?$allocator@UBuffInfo@ioBuffCountSkill@@@std@@QAEXPAUBuffInfo@ioBuffCountSkill@@ABU34@@Z ENDP ; std::allocator<ioBuffCountSkill::BuffInfo>::construct
_TEXT	ENDS
PUBLIC	?destroy@?$allocator@UBuffInfo@ioBuffCountSkill@@@std@@QAEXPAUBuffInfo@ioBuffCountSkill@@@Z ; std::allocator<ioBuffCountSkill::BuffInfo>::destroy
; Function compile flags: /Ogsp
;	COMDAT ?destroy@?$allocator@UBuffInfo@ioBuffCountSkill@@@std@@QAEXPAUBuffInfo@ioBuffCountSkill@@@Z
_TEXT	SEGMENT
__Ptr$ = 8						; size = 4
?destroy@?$allocator@UBuffInfo@ioBuffCountSkill@@@std@@QAEXPAUBuffInfo@ioBuffCountSkill@@@Z PROC ; std::allocator<ioBuffCountSkill::BuffInfo>::destroy, COMDAT
; _this$ = ecx

; 212  : 		{	// destroy object at _Ptr

  00000	55		 push	 ebp
  00001	8b ec		 mov	 ebp, esp

; 213  : 		_Destroy(_Ptr);

  00003	8b 4d 08	 mov	 ecx, DWORD PTR __Ptr$[ebp]
  00006	e8 00 00 00 00	 call	 ?_Tidy@?$vector@VioHashString@@V?$allocator@VioHashString@@@std@@@std@@IAEXXZ ; std::vector<ioHashString,std::allocator<ioHashString> >::_Tidy

; 214  : 		}

  0000b	5d		 pop	 ebp
  0000c	c2 04 00	 ret	 4
?destroy@?$allocator@UBuffInfo@ioBuffCountSkill@@@std@@QAEXPAUBuffInfo@ioBuffCountSkill@@@Z ENDP ; std::allocator<ioBuffCountSkill::BuffInfo>::destroy
_TEXT	ENDS
PUBLIC	??$_Median@PAUBuffInfo@ioBuffCountSkill@@VBuffInfoSort@2@@std@@YAXPAUBuffInfo@ioBuffCountSkill@@00VBuffInfoSort@2@@Z ; std::_Median<ioBuffCountSkill::BuffInfo *,ioBuffCountSkill::BuffInfoSort>
; Function compile flags: /Ogsp
; File c:\program files (x86)\microsoft visual studio 10.0\vc\include\algorithm
;	COMDAT ??$_Median@PAUBuffInfo@ioBuffCountSkill@@VBuffInfoSort@2@@std@@YAXPAUBuffInfo@ioBuffCountSkill@@00VBuffInfoSort@2@@Z
_TEXT	SEGMENT
tv200 = 8						; size = 4
__First$ = 8						; size = 4
__Mid$ = 12						; size = 4
tv203 = 16						; size = 4
__Last$ = 16						; size = 4
__Pred$ = 20						; size = 1
??$_Median@PAUBuffInfo@ioBuffCountSkill@@VBuffInfoSort@2@@std@@YAXPAUBuffInfo@ioBuffCountSkill@@00VBuffInfoSort@2@@Z PROC ; std::_Median<ioBuffCountSkill::BuffInfo *,ioBuffCountSkill::BuffInfoSort>, COMDAT

; 3695 : 	{	// sort median element to middle

  00000	55		 push	 ebp
  00001	8b ec		 mov	 ebp, esp

; 3696 : 	if (40 < _Last - _First)

  00003	8b 4d 08	 mov	 ecx, DWORD PTR __First$[ebp]
  00006	53		 push	 ebx
  00007	8b 5d 10	 mov	 ebx, DWORD PTR __Last$[ebp]
  0000a	56		 push	 esi
  0000b	8b c3		 mov	 eax, ebx
  0000d	2b c1		 sub	 eax, ecx
  0000f	6a 14		 push	 20			; 00000014H
  00011	99		 cdq
  00012	5e		 pop	 esi
  00013	f7 fe		 idiv	 esi
  00015	83 f8 28	 cmp	 eax, 40			; 00000028H
  00018	7e 68		 jle	 SHORT $LN2@Median

; 3697 : 		{	// median of nine
; 3698 : 		size_t _Step = (_Last - _First + 1) / 8;

  0001a	40		 inc	 eax
  0001b	99		 cdq
  0001c	83 e2 07	 and	 edx, 7
  0001f	03 c2		 add	 eax, edx
  00021	57		 push	 edi

; 3699 : 		_Med3(_First, _First + _Step, _First + 2 * _Step, _Pred);

  00022	ff 75 14	 push	 DWORD PTR __Pred$[ebp]
  00025	c1 f8 03	 sar	 eax, 3
  00028	8b f8		 mov	 edi, eax
  0002a	8b f0		 mov	 esi, eax
  0002c	6b ff 28	 imul	 edi, 40			; 00000028H
  0002f	6b f6 14	 imul	 esi, 20			; 00000014H
  00032	8d 14 0f	 lea	 edx, DWORD PTR [edi+ecx]
  00035	8d 04 0e	 lea	 eax, DWORD PTR [esi+ecx]
  00038	52		 push	 edx
  00039	50		 push	 eax
  0003a	51		 push	 ecx
  0003b	89 45 08	 mov	 DWORD PTR tv200[ebp], eax
  0003e	e8 00 00 00 00	 call	 ??$_Med3@PAUBuffInfo@ioBuffCountSkill@@VBuffInfoSort@2@@std@@YAXPAUBuffInfo@ioBuffCountSkill@@00VBuffInfoSort@2@@Z ; std::_Med3<ioBuffCountSkill::BuffInfo *,ioBuffCountSkill::BuffInfoSort>

; 3700 : 		_Med3(_Mid - _Step, _Mid, _Mid + _Step, _Pred);

  00043	ff 75 14	 push	 DWORD PTR __Pred$[ebp]
  00046	8b 45 0c	 mov	 eax, DWORD PTR __Mid$[ebp]
  00049	8d 0c 06	 lea	 ecx, DWORD PTR [esi+eax]
  0004c	51		 push	 ecx
  0004d	50		 push	 eax
  0004e	2b c6		 sub	 eax, esi
  00050	50		 push	 eax
  00051	e8 00 00 00 00	 call	 ??$_Med3@PAUBuffInfo@ioBuffCountSkill@@VBuffInfoSort@2@@std@@YAXPAUBuffInfo@ioBuffCountSkill@@00VBuffInfoSort@2@@Z ; std::_Med3<ioBuffCountSkill::BuffInfo *,ioBuffCountSkill::BuffInfoSort>

; 3701 : 		_Med3(_Last - 2 * _Step, _Last - _Step, _Last, _Pred);

  00056	ff 75 14	 push	 DWORD PTR __Pred$[ebp]
  00059	89 5d 10	 mov	 DWORD PTR tv203[ebp], ebx
  0005c	29 75 10	 sub	 DWORD PTR tv203[ebp], esi
  0005f	53		 push	 ebx
  00060	ff 75 10	 push	 DWORD PTR tv203[ebp]
  00063	2b df		 sub	 ebx, edi
  00065	53		 push	 ebx
  00066	e8 00 00 00 00	 call	 ??$_Med3@PAUBuffInfo@ioBuffCountSkill@@VBuffInfoSort@2@@std@@YAXPAUBuffInfo@ioBuffCountSkill@@00VBuffInfoSort@2@@Z ; std::_Med3<ioBuffCountSkill::BuffInfo *,ioBuffCountSkill::BuffInfoSort>

; 3702 : 		_Med3(_First + _Step, _Mid, _Last - _Step, _Pred);

  0006b	ff 75 14	 push	 DWORD PTR __Pred$[ebp]
  0006e	ff 75 10	 push	 DWORD PTR tv203[ebp]
  00071	ff 75 0c	 push	 DWORD PTR __Mid$[ebp]
  00074	ff 75 08	 push	 DWORD PTR tv200[ebp]
  00077	e8 00 00 00 00	 call	 ??$_Med3@PAUBuffInfo@ioBuffCountSkill@@VBuffInfoSort@2@@std@@YAXPAUBuffInfo@ioBuffCountSkill@@00VBuffInfoSort@2@@Z ; std::_Med3<ioBuffCountSkill::BuffInfo *,ioBuffCountSkill::BuffInfoSort>
  0007c	83 c4 40	 add	 esp, 64			; 00000040H
  0007f	5f		 pop	 edi

; 3703 : 		}
; 3704 : 	else

  00080	eb 10		 jmp	 SHORT $LN1@Median
$LN2@Median:

; 3705 : 		_Med3(_First, _Mid, _Last, _Pred);

  00082	ff 75 14	 push	 DWORD PTR __Pred$[ebp]
  00085	53		 push	 ebx
  00086	ff 75 0c	 push	 DWORD PTR __Mid$[ebp]
  00089	51		 push	 ecx
  0008a	e8 00 00 00 00	 call	 ??$_Med3@PAUBuffInfo@ioBuffCountSkill@@VBuffInfoSort@2@@std@@YAXPAUBuffInfo@ioBuffCountSkill@@00VBuffInfoSort@2@@Z ; std::_Med3<ioBuffCountSkill::BuffInfo *,ioBuffCountSkill::BuffInfoSort>
  0008f	83 c4 10	 add	 esp, 16			; 00000010H
$LN1@Median:
  00092	5e		 pop	 esi
  00093	5b		 pop	 ebx

; 3706 : 	}

  00094	5d		 pop	 ebp
  00095	c3		 ret	 0
??$_Median@PAUBuffInfo@ioBuffCountSkill@@VBuffInfoSort@2@@std@@YAXPAUBuffInfo@ioBuffCountSkill@@00VBuffInfoSort@2@@Z ENDP ; std::_Median<ioBuffCountSkill::BuffInfo *,ioBuffCountSkill::BuffInfoSort>
_TEXT	ENDS
PUBLIC	??$_Make_heap@PAUBuffInfo@ioBuffCountSkill@@HU12@VBuffInfoSort@2@@std@@YAXPAUBuffInfo@ioBuffCountSkill@@0VBuffInfoSort@2@PAH0@Z ; std::_Make_heap<ioBuffCountSkill::BuffInfo *,int,ioBuffCountSkill::BuffInfo,ioBuffCountSkill::BuffInfoSort>
;	COMDAT xdata$x
; File c:\program files (x86)\microsoft visual studio 10.0\vc\include\vector
xdata$x	SEGMENT
__unwindtable$??$_Make_heap@PAUBuffInfo@ioBuffCountSkill@@HU12@VBuffInfoSort@2@@std@@YAXPAUBuffInfo@ioBuffCountSkill@@0VBuffInfoSort@2@PAH0@Z DD 0ffffffffH
	DD	FLAT:__unwindfunclet$??$_Make_heap@PAUBuffInfo@ioBuffCountSkill@@HU12@VBuffInfoSort@2@@std@@YAXPAUBuffInfo@ioBuffCountSkill@@0VBuffInfoSort@2@PAH0@Z$0
__ehfuncinfo$??$_Make_heap@PAUBuffInfo@ioBuffCountSkill@@HU12@VBuffInfoSort@2@@std@@YAXPAUBuffInfo@ioBuffCountSkill@@0VBuffInfoSort@2@PAH0@Z DD 019930522H
	DD	01H
	DD	FLAT:__unwindtable$??$_Make_heap@PAUBuffInfo@ioBuffCountSkill@@HU12@VBuffInfoSort@2@@std@@YAXPAUBuffInfo@ioBuffCountSkill@@0VBuffInfoSort@2@PAH0@Z
	DD	2 DUP(00H)
	DD	2 DUP(00H)
	DD	00H
	DD	01H
; Function compile flags: /Ogsp
; File c:\program files (x86)\microsoft visual studio 10.0\vc\include\algorithm
xdata$x	ENDS
;	COMDAT ??$_Make_heap@PAUBuffInfo@ioBuffCountSkill@@HU12@VBuffInfoSort@2@@std@@YAXPAUBuffInfo@ioBuffCountSkill@@0VBuffInfoSort@2@PAH0@Z
_TEXT	SEGMENT
__Val$533757 = -32					; size = 20
__$EHRec$ = -12						; size = 12
__First$ = 8						; size = 4
__Last$ = 12						; size = 4
__Pred$ = 16						; size = 1
___formal$ = 20						; size = 4
___formal$ = 24						; size = 4
??$_Make_heap@PAUBuffInfo@ioBuffCountSkill@@HU12@VBuffInfoSort@2@@std@@YAXPAUBuffInfo@ioBuffCountSkill@@0VBuffInfoSort@2@PAH0@Z PROC ; std::_Make_heap<ioBuffCountSkill::BuffInfo *,int,ioBuffCountSkill::BuffInfo,ioBuffCountSkill::BuffInfoSort>, COMDAT

; 2658 : 	{	// make nontrivial [_First, _Last) into a heap, using _Pred

  00000	6a 14		 push	 20			; 00000014H
  00002	b8 00 00 00 00	 mov	 eax, __ehhandler$??$_Make_heap@PAUBuffInfo@ioBuffCountSkill@@HU12@VBuffInfoSort@2@@std@@YAXPAUBuffInfo@ioBuffCountSkill@@0VBuffInfoSort@2@PAH0@Z
  00007	e8 00 00 00 00	 call	 __EH_prolog3

; 2659 : 	_Diff _Bottom = _Last - _First;

  0000c	8b 45 0c	 mov	 eax, DWORD PTR __Last$[ebp]
  0000f	2b 45 08	 sub	 eax, DWORD PTR __First$[ebp]
  00012	6a 14		 push	 20			; 00000014H
  00014	99		 cdq
  00015	59		 pop	 ecx
  00016	f7 f9		 idiv	 ecx
  00018	8b d8		 mov	 ebx, eax

; 2660 : 	for (_Diff _Hole = _Bottom / 2; 0 < _Hole; )

  0001a	99		 cdq
  0001b	2b c2		 sub	 eax, edx
  0001d	8b f8		 mov	 edi, eax
  0001f	d1 ff		 sar	 edi, 1
  00021	85 ff		 test	 edi, edi
  00023	7e 43		 jle	 SHORT $LN1@Make_heap

; 2659 : 	_Diff _Bottom = _Last - _First;

  00025	8b f7		 mov	 esi, edi
  00027	6b f6 14	 imul	 esi, 20			; 00000014H
  0002a	03 75 08	 add	 esi, DWORD PTR __First$[ebp]
$LN2@Make_heap:

; 2661 : 		{	// reheap top half, bottom to top
; 2662 : 		--_Hole;

  0002d	83 ee 14	 sub	 esi, 20			; 00000014H

; 2663 : 		_Ty _Val = _Move(*(_First + _Hole));

  00030	56		 push	 esi
  00031	8d 4d e0	 lea	 ecx, DWORD PTR __Val$533757[ebp]
  00034	4f		 dec	 edi
  00035	e8 00 00 00 00	 call	 ??0?$vector@VioHashString@@V?$allocator@VioHashString@@@std@@@std@@QAE@ABV01@@Z ; std::vector<ioHashString,std::allocator<ioHashString> >::vector<ioHashString,std::allocator<ioHashString> >
  0003a	8b 46 10	 mov	 eax, DWORD PTR [esi+16]
  0003d	89 45 f0	 mov	 DWORD PTR __Val$533757[ebp+16], eax

; 2664 : 		_Adjust_heap(_First, _Hole, _Bottom,
; 2665 : 			_Move(_Val), _Pred);

  00040	ff 75 10	 push	 DWORD PTR __Pred$[ebp]
  00043	83 65 fc 00	 and	 DWORD PTR __$EHRec$[ebp+8], 0
  00047	8d 45 e0	 lea	 eax, DWORD PTR __Val$533757[ebp]
  0004a	50		 push	 eax
  0004b	53		 push	 ebx
  0004c	57		 push	 edi
  0004d	ff 75 08	 push	 DWORD PTR __First$[ebp]
  00050	e8 00 00 00 00	 call	 ??$_Adjust_heap@PAUBuffInfo@ioBuffCountSkill@@HU12@VBuffInfoSort@2@@std@@YAXPAUBuffInfo@ioBuffCountSkill@@HH$$QAU12@VBuffInfoSort@2@@Z ; std::_Adjust_heap<ioBuffCountSkill::BuffInfo *,int,ioBuffCountSkill::BuffInfo,ioBuffCountSkill::BuffInfoSort>

; 2666 : 		}

  00055	83 4d fc ff	 or	 DWORD PTR __$EHRec$[ebp+8], -1
  00059	83 c4 14	 add	 esp, 20			; 00000014H
  0005c	8d 4d e0	 lea	 ecx, DWORD PTR __Val$533757[ebp]
  0005f	e8 00 00 00 00	 call	 ?_Tidy@?$vector@VioHashString@@V?$allocator@VioHashString@@@std@@@std@@IAEXXZ ; std::vector<ioHashString,std::allocator<ioHashString> >::_Tidy
  00064	85 ff		 test	 edi, edi
  00066	7f c5		 jg	 SHORT $LN2@Make_heap
$LN1@Make_heap:

; 2667 : 	}

  00068	e8 00 00 00 00	 call	 __EH_epilog3
  0006d	c3		 ret	 0
_TEXT	ENDS
;	COMDAT text$x
text$x	SEGMENT
__unwindfunclet$??$_Make_heap@PAUBuffInfo@ioBuffCountSkill@@HU12@VBuffInfoSort@2@@std@@YAXPAUBuffInfo@ioBuffCountSkill@@0VBuffInfoSort@2@PAH0@Z$0:
  00000	8d 4d e0	 lea	 ecx, DWORD PTR __Val$533757[ebp]
  00003	e9 00 00 00 00	 jmp	 ??1BuffInfo@ioBuffCountSkill@@QAE@XZ
__ehhandler$??$_Make_heap@PAUBuffInfo@ioBuffCountSkill@@HU12@VBuffInfoSort@2@@std@@YAXPAUBuffInfo@ioBuffCountSkill@@0VBuffInfoSort@2@PAH0@Z:
  00008	8b 54 24 08	 mov	 edx, DWORD PTR [esp+8]
  0000c	8d 42 0c	 lea	 eax, DWORD PTR [edx+12]
  0000f	8b 4a dc	 mov	 ecx, DWORD PTR [edx-36]
  00012	33 c8		 xor	 ecx, eax
  00014	e8 00 00 00 00	 call	 @__security_check_cookie@4
  00019	b8 00 00 00 00	 mov	 eax, OFFSET __ehfuncinfo$??$_Make_heap@PAUBuffInfo@ioBuffCountSkill@@HU12@VBuffInfoSort@2@@std@@YAXPAUBuffInfo@ioBuffCountSkill@@0VBuffInfoSort@2@PAH0@Z
  0001e	e9 00 00 00 00	 jmp	 ___CxxFrameHandler3
text$x	ENDS
??$_Make_heap@PAUBuffInfo@ioBuffCountSkill@@HU12@VBuffInfoSort@2@@std@@YAXPAUBuffInfo@ioBuffCountSkill@@0VBuffInfoSort@2@PAH0@Z ENDP ; std::_Make_heap<ioBuffCountSkill::BuffInfo *,int,ioBuffCountSkill::BuffInfo,ioBuffCountSkill::BuffInfoSort>
PUBLIC	??$_Insertion_sort1@PAUBuffInfo@ioBuffCountSkill@@VBuffInfoSort@2@U12@@std@@YAXPAUBuffInfo@ioBuffCountSkill@@0VBuffInfoSort@2@0@Z ; std::_Insertion_sort1<ioBuffCountSkill::BuffInfo *,ioBuffCountSkill::BuffInfoSort,ioBuffCountSkill::BuffInfo>
;	COMDAT xdata$x
; File c:\program files (x86)\microsoft visual studio 10.0\vc\include\vector
xdata$x	SEGMENT
__unwindtable$??$_Insertion_sort1@PAUBuffInfo@ioBuffCountSkill@@VBuffInfoSort@2@U12@@std@@YAXPAUBuffInfo@ioBuffCountSkill@@0VBuffInfoSort@2@0@Z DD 0ffffffffH
	DD	FLAT:__unwindfunclet$??$_Insertion_sort1@PAUBuffInfo@ioBuffCountSkill@@VBuffInfoSort@2@U12@@std@@YAXPAUBuffInfo@ioBuffCountSkill@@0VBuffInfoSort@2@0@Z$0
__ehfuncinfo$??$_Insertion_sort1@PAUBuffInfo@ioBuffCountSkill@@VBuffInfoSort@2@U12@@std@@YAXPAUBuffInfo@ioBuffCountSkill@@0VBuffInfoSort@2@0@Z DD 019930522H
	DD	01H
	DD	FLAT:__unwindtable$??$_Insertion_sort1@PAUBuffInfo@ioBuffCountSkill@@VBuffInfoSort@2@U12@@std@@YAXPAUBuffInfo@ioBuffCountSkill@@0VBuffInfoSort@2@0@Z
	DD	2 DUP(00H)
	DD	2 DUP(00H)
	DD	00H
	DD	01H
; Function compile flags: /Ogsp
; File c:\program files (x86)\microsoft visual studio 10.0\vc\include\algorithm
xdata$x	ENDS
;	COMDAT ??$_Insertion_sort1@PAUBuffInfo@ioBuffCountSkill@@VBuffInfoSort@2@U12@@std@@YAXPAUBuffInfo@ioBuffCountSkill@@0VBuffInfoSort@2@0@Z
_TEXT	SEGMENT
__Val$533801 = -32					; size = 20
__$EHRec$ = -12						; size = 12
__Next1$533800 = 8					; size = 4
__First$ = 8						; size = 4
__Cat$537975 = 12					; size = 1
__Last$ = 12						; size = 4
__Pred$ = 16						; size = 1
___formal$ = 20						; size = 4
??$_Insertion_sort1@PAUBuffInfo@ioBuffCountSkill@@VBuffInfoSort@2@U12@@std@@YAXPAUBuffInfo@ioBuffCountSkill@@0VBuffInfoSort@2@0@Z PROC ; std::_Insertion_sort1<ioBuffCountSkill::BuffInfo *,ioBuffCountSkill::BuffInfoSort,ioBuffCountSkill::BuffInfo>, COMDAT

; 3650 : 	{	// insertion sort [_First, _Last), using _Pred

  00000	6a 14		 push	 20			; 00000014H
  00002	b8 00 00 00 00	 mov	 eax, __ehhandler$??$_Insertion_sort1@PAUBuffInfo@ioBuffCountSkill@@VBuffInfoSort@2@U12@@std@@YAXPAUBuffInfo@ioBuffCountSkill@@0VBuffInfoSort@2@0@Z
  00007	e8 00 00 00 00	 call	 __EH_prolog3

; 3651 : 	if (_First != _Last)

  0000c	8b 5d 08	 mov	 ebx, DWORD PTR __First$[ebp]
  0000f	3b 5d 0c	 cmp	 ebx, DWORD PTR __Last$[ebp]
  00012	0f 84 97 00 00
	00		 je	 $LN6@Insertion_

; 3652 : 		for (_BidIt _Next = _First; ++_Next != _Last; )

  00018	8d 73 14	 lea	 esi, DWORD PTR [ebx+20]
  0001b	e9 86 00 00 00	 jmp	 $LN52@Insertion_
$LL7@Insertion_:

; 3653 : 			{	// order next element
; 3654 : 			_BidIt _Next1 = _Next;
; 3655 : 			_Ty _Val = _Move(*_Next);

  00020	56		 push	 esi
  00021	8d 4d e0	 lea	 ecx, DWORD PTR __Val$533801[ebp]
  00024	89 75 08	 mov	 DWORD PTR __Next1$533800[ebp], esi
  00027	e8 00 00 00 00	 call	 ??0?$vector@VioHashString@@V?$allocator@VioHashString@@@std@@@std@@QAE@ABV01@@Z ; std::vector<ioHashString,std::allocator<ioHashString> >::vector<ioHashString,std::allocator<ioHashString> >
  0002c	8b 46 10	 mov	 eax, DWORD PTR [esi+16]
  0002f	89 45 f0	 mov	 DWORD PTR __Val$533801[ebp+16], eax
  00032	83 65 fc 00	 and	 DWORD PTR __$EHRec$[ebp+8], 0

; 3656 : 
; 3657 : 			if (_DEBUG_LT_PRED(_Pred, _Val, *_First))

  00036	3b 43 10	 cmp	 eax, DWORD PTR [ebx+16]
  00039	7d 24		 jge	 SHORT $LN5@Insertion_

; 3658 : 				{	// found new earliest element, move to front
; 3659 : 				_Move_backward(_First, _Next, ++_Next1);

  0003b	ff 75 0c	 push	 DWORD PTR __Cat$537975[ebp]
  0003e	8d 46 14	 lea	 eax, DWORD PTR [esi+20]
  00041	50		 push	 eax
  00042	56		 push	 esi
  00043	53		 push	 ebx
  00044	e8 00 00 00 00	 call	 ??$_Move_backward@PAUBuffInfo@ioBuffCountSkill@@PAU12@@std@@YAPAUBuffInfo@ioBuffCountSkill@@PAU12@00U_Nonscalar_ptr_iterator_tag@0@@Z ; std::_Move_backward<ioBuffCountSkill::BuffInfo *,ioBuffCountSkill::BuffInfo *>
  00049	83 c4 10	 add	 esp, 16			; 00000010H

; 3660 : 				*_First = _Move(_Val);

  0004c	8d 45 e0	 lea	 eax, DWORD PTR __Val$533801[ebp]
  0004f	50		 push	 eax
  00050	8b cb		 mov	 ecx, ebx
  00052	e8 00 00 00 00	 call	 ??4?$vector@VioHashString@@V?$allocator@VioHashString@@@std@@@std@@QAEAAV01@ABV01@@Z ; std::vector<ioHashString,std::allocator<ioHashString> >::operator=
  00057	8b 45 f0	 mov	 eax, DWORD PTR __Val$533801[ebp+16]
  0005a	89 43 10	 mov	 DWORD PTR [ebx+16], eax

; 3661 : 				}
; 3662 : 			else

  0005d	eb 38		 jmp	 SHORT $LN37@Insertion_
$LN5@Insertion_:

; 3663 : 				{	// look for insertion point after first
; 3664 : 				for (_BidIt _First1 = _Next1;

  0005f	8b fe		 mov	 edi, esi
$LL3@Insertion_:

; 3665 : 					_DEBUG_LT_PRED(_Pred, _Val, *--_First1);
; 3666 : 					_Next1 = _First1)

  00061	83 ef 14	 sub	 edi, 20			; 00000014H
  00064	3b 47 10	 cmp	 eax, DWORD PTR [edi+16]
  00067	7d 1a		 jge	 SHORT $LN28@Insertion_

; 3667 : 					*_Next1 = _Move(*_First1);	// move hole down

  00069	8b 4d 08	 mov	 ecx, DWORD PTR __Next1$533800[ebp]
  0006c	57		 push	 edi
  0006d	e8 00 00 00 00	 call	 ??4?$vector@VioHashString@@V?$allocator@VioHashString@@@std@@@std@@QAEAAV01@ABV01@@Z ; std::vector<ioHashString,std::allocator<ioHashString> >::operator=
  00072	8b 47 10	 mov	 eax, DWORD PTR [edi+16]
  00075	8b 4d 08	 mov	 ecx, DWORD PTR __Next1$533800[ebp]
  00078	89 41 10	 mov	 DWORD PTR [ecx+16], eax
  0007b	8b 45 f0	 mov	 eax, DWORD PTR __Val$533801[ebp+16]
  0007e	89 7d 08	 mov	 DWORD PTR __Next1$533800[ebp], edi
  00081	eb de		 jmp	 SHORT $LL3@Insertion_

; 3665 : 					_DEBUG_LT_PRED(_Pred, _Val, *--_First1);
; 3666 : 					_Next1 = _First1)

$LN28@Insertion_:

; 3668 : 				*_Next1 = _Move(_Val);	// insert element in hole

  00083	8b 7d 08	 mov	 edi, DWORD PTR __Next1$533800[ebp]
  00086	8d 45 e0	 lea	 eax, DWORD PTR __Val$533801[ebp]
  00089	50		 push	 eax
  0008a	8b cf		 mov	 ecx, edi
  0008c	e8 00 00 00 00	 call	 ??4?$vector@VioHashString@@V?$allocator@VioHashString@@@std@@@std@@QAEAAV01@ABV01@@Z ; std::vector<ioHashString,std::allocator<ioHashString> >::operator=
  00091	8b 45 f0	 mov	 eax, DWORD PTR __Val$533801[ebp+16]
  00094	89 47 10	 mov	 DWORD PTR [edi+16], eax
$LN37@Insertion_:

; 3669 : 				}
; 3670 : 			}

  00097	83 4d fc ff	 or	 DWORD PTR __$EHRec$[ebp+8], -1
  0009b	8d 4d e0	 lea	 ecx, DWORD PTR __Val$533801[ebp]
  0009e	e8 00 00 00 00	 call	 ?_Tidy@?$vector@VioHashString@@V?$allocator@VioHashString@@@std@@@std@@IAEXXZ ; std::vector<ioHashString,std::allocator<ioHashString> >::_Tidy
  000a3	83 c6 14	 add	 esi, 20			; 00000014H
$LN52@Insertion_:

; 3652 : 		for (_BidIt _Next = _First; ++_Next != _Last; )

  000a6	3b 75 0c	 cmp	 esi, DWORD PTR __Last$[ebp]
  000a9	0f 85 71 ff ff
	ff		 jne	 $LL7@Insertion_
$LN6@Insertion_:

; 3671 : 	}

  000af	e8 00 00 00 00	 call	 __EH_epilog3
  000b4	c3		 ret	 0
_TEXT	ENDS
;	COMDAT text$x
text$x	SEGMENT
__unwindfunclet$??$_Insertion_sort1@PAUBuffInfo@ioBuffCountSkill@@VBuffInfoSort@2@U12@@std@@YAXPAUBuffInfo@ioBuffCountSkill@@0VBuffInfoSort@2@0@Z$0:
  00000	8d 4d e0	 lea	 ecx, DWORD PTR __Val$533801[ebp]
  00003	e9 00 00 00 00	 jmp	 ??1BuffInfo@ioBuffCountSkill@@QAE@XZ
__ehhandler$??$_Insertion_sort1@PAUBuffInfo@ioBuffCountSkill@@VBuffInfoSort@2@U12@@std@@YAXPAUBuffInfo@ioBuffCountSkill@@0VBuffInfoSort@2@0@Z:
  00008	8b 54 24 08	 mov	 edx, DWORD PTR [esp+8]
  0000c	8d 42 0c	 lea	 eax, DWORD PTR [edx+12]
  0000f	8b 4a dc	 mov	 ecx, DWORD PTR [edx-36]
  00012	33 c8		 xor	 ecx, eax
  00014	e8 00 00 00 00	 call	 @__security_check_cookie@4
  00019	b8 00 00 00 00	 mov	 eax, OFFSET __ehfuncinfo$??$_Insertion_sort1@PAUBuffInfo@ioBuffCountSkill@@VBuffInfoSort@2@U12@@std@@YAXPAUBuffInfo@ioBuffCountSkill@@0VBuffInfoSort@2@0@Z
  0001e	e9 00 00 00 00	 jmp	 ___CxxFrameHandler3
text$x	ENDS
??$_Insertion_sort1@PAUBuffInfo@ioBuffCountSkill@@VBuffInfoSort@2@U12@@std@@YAXPAUBuffInfo@ioBuffCountSkill@@0VBuffInfoSort@2@0@Z ENDP ; std::_Insertion_sort1<ioBuffCountSkill::BuffInfo *,ioBuffCountSkill::BuffInfoSort,ioBuffCountSkill::BuffInfo>
PUBLIC	??$_Pop_heap_0@PAUBuffInfo@ioBuffCountSkill@@U12@VBuffInfoSort@2@@std@@YAXPAUBuffInfo@ioBuffCountSkill@@0VBuffInfoSort@2@0@Z ; std::_Pop_heap_0<ioBuffCountSkill::BuffInfo *,ioBuffCountSkill::BuffInfo,ioBuffCountSkill::BuffInfoSort>
;	COMDAT xdata$x
; File c:\program files (x86)\microsoft visual studio 10.0\vc\include\vector
xdata$x	SEGMENT
__unwindtable$??$_Pop_heap_0@PAUBuffInfo@ioBuffCountSkill@@U12@VBuffInfoSort@2@@std@@YAXPAUBuffInfo@ioBuffCountSkill@@0VBuffInfoSort@2@0@Z DD 0ffffffffH
	DD	FLAT:__unwindfunclet$??$_Pop_heap_0@PAUBuffInfo@ioBuffCountSkill@@U12@VBuffInfoSort@2@@std@@YAXPAUBuffInfo@ioBuffCountSkill@@0VBuffInfoSort@2@0@Z$0
__ehfuncinfo$??$_Pop_heap_0@PAUBuffInfo@ioBuffCountSkill@@U12@VBuffInfoSort@2@@std@@YAXPAUBuffInfo@ioBuffCountSkill@@0VBuffInfoSort@2@0@Z DD 019930522H
	DD	01H
	DD	FLAT:__unwindtable$??$_Pop_heap_0@PAUBuffInfo@ioBuffCountSkill@@U12@VBuffInfoSort@2@@std@@YAXPAUBuffInfo@ioBuffCountSkill@@0VBuffInfoSort@2@0@Z
	DD	2 DUP(00H)
	DD	2 DUP(00H)
	DD	00H
	DD	01H
; Function compile flags: /Ogsp
; File c:\program files (x86)\microsoft visual studio 10.0\vc\include\algorithm
xdata$x	ENDS
;	COMDAT ??$_Pop_heap_0@PAUBuffInfo@ioBuffCountSkill@@U12@VBuffInfoSort@2@@std@@YAXPAUBuffInfo@ioBuffCountSkill@@0VBuffInfoSort@2@0@Z
_TEXT	SEGMENT
__Val$ = -32						; size = 20
__$EHRec$ = -12						; size = 12
__First$ = 8						; size = 4
__Last$ = 12						; size = 4
__Pred$ = 16						; size = 1
___formal$ = 20						; size = 4
??$_Pop_heap_0@PAUBuffInfo@ioBuffCountSkill@@U12@VBuffInfoSort@2@@std@@YAXPAUBuffInfo@ioBuffCountSkill@@0VBuffInfoSort@2@0@Z PROC ; std::_Pop_heap_0<ioBuffCountSkill::BuffInfo *,ioBuffCountSkill::BuffInfo,ioBuffCountSkill::BuffInfoSort>, COMDAT

; 2601 : 	{	// pop *_First to *(_Last - 1) and reheap, using _Pred

  00000	6a 14		 push	 20			; 00000014H
  00002	b8 00 00 00 00	 mov	 eax, __ehhandler$??$_Pop_heap_0@PAUBuffInfo@ioBuffCountSkill@@U12@VBuffInfoSort@2@@std@@YAXPAUBuffInfo@ioBuffCountSkill@@0VBuffInfoSort@2@0@Z
  00007	e8 00 00 00 00	 call	 __EH_prolog3

; 2602 : 	_Ty _Val = _Move(*(_Last - 1));

  0000c	8b 75 0c	 mov	 esi, DWORD PTR __Last$[ebp]
  0000f	83 c6 ec	 add	 esi, -20		; ffffffecH
  00012	56		 push	 esi
  00013	8d 4d e0	 lea	 ecx, DWORD PTR __Val$[ebp]
  00016	e8 00 00 00 00	 call	 ??0?$vector@VioHashString@@V?$allocator@VioHashString@@@std@@@std@@QAE@ABV01@@Z ; std::vector<ioHashString,std::allocator<ioHashString> >::vector<ioHashString,std::allocator<ioHashString> >
  0001b	8b 46 10	 mov	 eax, DWORD PTR [esi+16]
  0001e	89 45 f0	 mov	 DWORD PTR __Val$[ebp+16], eax
  00021	83 65 fc 00	 and	 DWORD PTR __$EHRec$[ebp+8], 0

; 2603 : 	_Pop_heap(_First, _Last - 1, _Last - 1,
; 2604 : 		_Move(_Val), _Pred, _Dist_type(_First));

  00025	6a 00		 push	 0
  00027	ff 75 10	 push	 DWORD PTR __Pred$[ebp]
  0002a	8d 45 e0	 lea	 eax, DWORD PTR __Val$[ebp]
  0002d	50		 push	 eax
  0002e	56		 push	 esi
  0002f	56		 push	 esi
  00030	ff 75 08	 push	 DWORD PTR __First$[ebp]
  00033	e8 00 00 00 00	 call	 ??$_Pop_heap@PAUBuffInfo@ioBuffCountSkill@@HU12@VBuffInfoSort@2@@std@@YAXPAUBuffInfo@ioBuffCountSkill@@00$$QAU12@VBuffInfoSort@2@PAH@Z ; std::_Pop_heap<ioBuffCountSkill::BuffInfo *,int,ioBuffCountSkill::BuffInfo,ioBuffCountSkill::BuffInfoSort>

; 2605 : 	}

  00038	83 4d fc ff	 or	 DWORD PTR __$EHRec$[ebp+8], -1
  0003c	83 c4 18	 add	 esp, 24			; 00000018H
  0003f	8d 4d e0	 lea	 ecx, DWORD PTR __Val$[ebp]
  00042	e8 00 00 00 00	 call	 ?_Tidy@?$vector@VioHashString@@V?$allocator@VioHashString@@@std@@@std@@IAEXXZ ; std::vector<ioHashString,std::allocator<ioHashString> >::_Tidy
  00047	e8 00 00 00 00	 call	 __EH_epilog3
  0004c	c3		 ret	 0
_TEXT	ENDS
;	COMDAT text$x
text$x	SEGMENT
__unwindfunclet$??$_Pop_heap_0@PAUBuffInfo@ioBuffCountSkill@@U12@VBuffInfoSort@2@@std@@YAXPAUBuffInfo@ioBuffCountSkill@@0VBuffInfoSort@2@0@Z$0:
  00000	8d 4d e0	 lea	 ecx, DWORD PTR __Val$[ebp]
  00003	e9 00 00 00 00	 jmp	 ??1BuffInfo@ioBuffCountSkill@@QAE@XZ
__ehhandler$??$_Pop_heap_0@PAUBuffInfo@ioBuffCountSkill@@U12@VBuffInfoSort@2@@std@@YAXPAUBuffInfo@ioBuffCountSkill@@0VBuffInfoSort@2@0@Z:
  00008	8b 54 24 08	 mov	 edx, DWORD PTR [esp+8]
  0000c	8d 42 0c	 lea	 eax, DWORD PTR [edx+12]
  0000f	8b 4a dc	 mov	 ecx, DWORD PTR [edx-36]
  00012	33 c8		 xor	 ecx, eax
  00014	e8 00 00 00 00	 call	 @__security_check_cookie@4
  00019	b8 00 00 00 00	 mov	 eax, OFFSET __ehfuncinfo$??$_Pop_heap_0@PAUBuffInfo@ioBuffCountSkill@@U12@VBuffInfoSort@2@@std@@YAXPAUBuffInfo@ioBuffCountSkill@@0VBuffInfoSort@2@0@Z
  0001e	e9 00 00 00 00	 jmp	 ___CxxFrameHandler3
text$x	ENDS
??$_Pop_heap_0@PAUBuffInfo@ioBuffCountSkill@@U12@VBuffInfoSort@2@@std@@YAXPAUBuffInfo@ioBuffCountSkill@@0VBuffInfoSort@2@0@Z ENDP ; std::_Pop_heap_0<ioBuffCountSkill::BuffInfo *,ioBuffCountSkill::BuffInfo,ioBuffCountSkill::BuffInfoSort>
PUBLIC	??$_Cons_val@V?$allocator@UBuffInfo@ioBuffCountSkill@@@std@@UBuffInfo@ioBuffCountSkill@@ABU34@@std@@YAXAAV?$allocator@UBuffInfo@ioBuffCountSkill@@@0@PAUBuffInfo@ioBuffCountSkill@@ABU23@@Z ; std::_Cons_val<std::allocator<ioBuffCountSkill::BuffInfo>,ioBuffCountSkill::BuffInfo,ioBuffCountSkill::BuffInfo const &>
; Function compile flags: /Ogsp
; File c:\program files (x86)\microsoft visual studio 10.0\vc\include\xmemory
;	COMDAT ??$_Cons_val@V?$allocator@UBuffInfo@ioBuffCountSkill@@@std@@UBuffInfo@ioBuffCountSkill@@ABU34@@std@@YAXAAV?$allocator@UBuffInfo@ioBuffCountSkill@@@0@PAUBuffInfo@ioBuffCountSkill@@ABU23@@Z
_TEXT	SEGMENT
__Alval$ = 8						; size = 4
__Pdest$ = 12						; size = 4
__Src$ = 16						; size = 4
??$_Cons_val@V?$allocator@UBuffInfo@ioBuffCountSkill@@@std@@UBuffInfo@ioBuffCountSkill@@ABU34@@std@@YAXAAV?$allocator@UBuffInfo@ioBuffCountSkill@@@0@PAUBuffInfo@ioBuffCountSkill@@ABU23@@Z PROC ; std::_Cons_val<std::allocator<ioBuffCountSkill::BuffInfo>,ioBuffCountSkill::BuffInfo,ioBuffCountSkill::BuffInfo const &>, COMDAT

; 279  : 	{	// construct using allocator

  00000	55		 push	 ebp
  00001	8b ec		 mov	 ebp, esp

; 280  : 	_Alval.construct(_Pdest, _STD forward<_Ty2>(_Src));

  00003	ff 75 10	 push	 DWORD PTR __Src$[ebp]
  00006	ff 75 0c	 push	 DWORD PTR __Pdest$[ebp]
  00009	e8 00 00 00 00	 call	 ??$_Construct@UBuffInfo@ioBuffCountSkill@@ABU12@@std@@YAXPAUBuffInfo@ioBuffCountSkill@@ABU12@@Z ; std::_Construct<ioBuffCountSkill::BuffInfo,ioBuffCountSkill::BuffInfo const &>
  0000e	59		 pop	 ecx
  0000f	59		 pop	 ecx

; 281  : 	}

  00010	5d		 pop	 ebp
  00011	c3		 ret	 0
??$_Cons_val@V?$allocator@UBuffInfo@ioBuffCountSkill@@@std@@UBuffInfo@ioBuffCountSkill@@ABU34@@std@@YAXAAV?$allocator@UBuffInfo@ioBuffCountSkill@@@0@PAUBuffInfo@ioBuffCountSkill@@ABU23@@Z ENDP ; std::_Cons_val<std::allocator<ioBuffCountSkill::BuffInfo>,ioBuffCountSkill::BuffInfo,ioBuffCountSkill::BuffInfo const &>
_TEXT	ENDS
PUBLIC	??$_Unguarded_partition@PAUBuffInfo@ioBuffCountSkill@@VBuffInfoSort@2@@std@@YA?AU?$pair@PAUBuffInfo@ioBuffCountSkill@@PAU12@@0@PAUBuffInfo@ioBuffCountSkill@@0VBuffInfoSort@3@@Z ; std::_Unguarded_partition<ioBuffCountSkill::BuffInfo *,ioBuffCountSkill::BuffInfoSort>
; Function compile flags: /Ogsp
; File c:\program files (x86)\microsoft visual studio 10.0\vc\include\algorithm
;	COMDAT ??$_Unguarded_partition@PAUBuffInfo@ioBuffCountSkill@@VBuffInfoSort@2@@std@@YA?AU?$pair@PAUBuffInfo@ioBuffCountSkill@@PAU12@@0@PAUBuffInfo@ioBuffCountSkill@@0VBuffInfoSort@3@@Z
_TEXT	SEGMENT
__Glast$ = -4						; size = 4
___$ReturnUdt$ = 8					; size = 4
__First$ = 12						; size = 4
__Last$ = 16						; size = 4
__Pred$ = 20						; size = 1
??$_Unguarded_partition@PAUBuffInfo@ioBuffCountSkill@@VBuffInfoSort@2@@std@@YA?AU?$pair@PAUBuffInfo@ioBuffCountSkill@@PAU12@@0@PAUBuffInfo@ioBuffCountSkill@@0VBuffInfoSort@3@@Z PROC ; std::_Unguarded_partition<ioBuffCountSkill::BuffInfo *,ioBuffCountSkill::BuffInfoSort>, COMDAT

; 3712 : 	{	// partition [_First, _Last), using _Pred

  00000	55		 push	 ebp
  00001	8b ec		 mov	 ebp, esp
  00003	51		 push	 ecx

; 3713 : 	_RanIt _Mid = _First + (_Last - _First) / 2;

  00004	8b 4d 10	 mov	 ecx, DWORD PTR __Last$[ebp]
  00007	53		 push	 ebx
  00008	56		 push	 esi
  00009	57		 push	 edi
  0000a	8b 7d 0c	 mov	 edi, DWORD PTR __First$[ebp]
  0000d	8b c1		 mov	 eax, ecx
  0000f	2b c7		 sub	 eax, edi
  00011	6a 14		 push	 20			; 00000014H
  00013	5e		 pop	 esi
  00014	99		 cdq
  00015	f7 fe		 idiv	 esi

; 3714 : 	_Median(_First, _Mid, _Last - 1, _Pred);

  00017	ff 75 14	 push	 DWORD PTR __Pred$[ebp]
  0001a	83 c1 ec	 add	 ecx, -20		; ffffffecH
  0001d	51		 push	 ecx
  0001e	99		 cdq
  0001f	2b c2		 sub	 eax, edx
  00021	8b f0		 mov	 esi, eax
  00023	d1 fe		 sar	 esi, 1
  00025	6b f6 14	 imul	 esi, 20			; 00000014H
  00028	03 f7		 add	 esi, edi
  0002a	56		 push	 esi
  0002b	57		 push	 edi
  0002c	e8 00 00 00 00	 call	 ??$_Median@PAUBuffInfo@ioBuffCountSkill@@VBuffInfoSort@2@@std@@YAXPAUBuffInfo@ioBuffCountSkill@@00VBuffInfoSort@2@@Z ; std::_Median<ioBuffCountSkill::BuffInfo *,ioBuffCountSkill::BuffInfoSort>
  00031	83 c4 10	 add	 esp, 16			; 00000010H

; 3715 : 	_RanIt _Pfirst = _Mid;
; 3716 : 	_RanIt _Plast = _Pfirst + 1;

  00034	8d 5e 14	 lea	 ebx, DWORD PTR [esi+20]
  00037	eb 0f		 jmp	 SHORT $LN100@Unguarded_
$LL27@Unguarded_:

; 3717 : 
; 3718 : 	while (_First < _Pfirst
; 3719 : 		&& !_DEBUG_LT_PRED(_Pred, *(_Pfirst - 1), *_Pfirst)
; 3720 : 		&& !_Pred(*_Pfirst, *(_Pfirst - 1)))

  00039	8b 46 fc	 mov	 eax, DWORD PTR [esi-4]
  0003c	8b 4e 10	 mov	 ecx, DWORD PTR [esi+16]
  0003f	3b c8		 cmp	 ecx, eax
  00041	7f 09		 jg	 SHORT $LN94@Unguarded_
  00043	7c 07		 jl	 SHORT $LN94@Unguarded_

; 3721 : 		--_Pfirst;

  00045	83 ee 14	 sub	 esi, 20			; 00000014H
$LN100@Unguarded_:

; 3717 : 
; 3718 : 	while (_First < _Pfirst
; 3719 : 		&& !_DEBUG_LT_PRED(_Pred, *(_Pfirst - 1), *_Pfirst)
; 3720 : 		&& !_Pred(*_Pfirst, *(_Pfirst - 1)))

  00048	3b fe		 cmp	 edi, esi
  0004a	72 ed		 jb	 SHORT $LL27@Unguarded_
$LN94@Unguarded_:

; 3722 : 	while (_Plast < _Last
; 3723 : 		&& !_DEBUG_LT_PRED(_Pred, *_Plast, *_Pfirst)
; 3724 : 		&& !_Pred(*_Pfirst, *_Plast))

  0004c	3b 5d 10	 cmp	 ebx, DWORD PTR __Last$[ebp]
  0004f	73 14		 jae	 SHORT $LN96@Unguarded_
  00051	8b 4e 10	 mov	 ecx, DWORD PTR [esi+16]
$LL25@Unguarded_:
  00054	8b 43 10	 mov	 eax, DWORD PTR [ebx+16]
  00057	3b c8		 cmp	 ecx, eax
  00059	7f 0a		 jg	 SHORT $LN96@Unguarded_
  0005b	7c 08		 jl	 SHORT $LN96@Unguarded_

; 3725 : 		++_Plast;

  0005d	83 c3 14	 add	 ebx, 20			; 00000014H
  00060	3b 5d 10	 cmp	 ebx, DWORD PTR __Last$[ebp]
  00063	72 ef		 jb	 SHORT $LL25@Unguarded_
$LN96@Unguarded_:

; 3726 : 
; 3727 : 	_RanIt _Gfirst = _Plast;

  00065	8b fb		 mov	 edi, ebx

; 3728 : 	_RanIt _Glast = _Pfirst;

  00067	89 75 fc	 mov	 DWORD PTR __Glast$[ebp], esi

; 3729 : 
; 3730 : 	for (; ; )
; 3731 : 		{	// partition
; 3732 : 		for (; _Gfirst < _Last; ++_Gfirst)

  0006a	eb 1d		 jmp	 SHORT $LN102@Unguarded_
$LL21@Unguarded_:

; 3733 : 			if (_DEBUG_LT_PRED(_Pred, *_Pfirst, *_Gfirst))

  0006c	8b 46 10	 mov	 eax, DWORD PTR [esi+16]
  0006f	8b 4f 10	 mov	 ecx, DWORD PTR [edi+16]
  00072	3b c8		 cmp	 ecx, eax
  00074	7f 10		 jg	 SHORT $LN20@Unguarded_

; 3734 : 				;
; 3735 : 			else if (_Pred(*_Gfirst, *_Pfirst))

  00076	7c 3d		 jl	 SHORT $LN97@Unguarded_

; 3736 : 				break;
; 3737 : 			else
; 3738 : 				_STD iter_swap(_Plast++, _Gfirst);

  00078	8b c3		 mov	 eax, ebx
  0007a	57		 push	 edi
  0007b	83 c3 14	 add	 ebx, 20			; 00000014H
  0007e	50		 push	 eax
$LN104@Unguarded_:
  0007f	e8 00 00 00 00	 call	 ??$swap@UBuffInfo@ioBuffCountSkill@@@std@@YAXAAUBuffInfo@ioBuffCountSkill@@0@Z ; std::swap<ioBuffCountSkill::BuffInfo>
  00084	59		 pop	 ecx
  00085	59		 pop	 ecx
$LN20@Unguarded_:

; 3729 : 
; 3730 : 	for (; ; )
; 3731 : 		{	// partition
; 3732 : 		for (; _Gfirst < _Last; ++_Gfirst)

  00086	83 c7 14	 add	 edi, 20			; 00000014H
$LN102@Unguarded_:
  00089	3b 7d 10	 cmp	 edi, DWORD PTR __Last$[ebp]
  0008c	72 de		 jb	 SHORT $LL21@Unguarded_

; 3739 : 		for (; _First < _Glast; --_Glast)

  0008e	eb 25		 jmp	 SHORT $LN97@Unguarded_
$LL99@Unguarded_:

; 3740 : 			if (_DEBUG_LT_PRED(_Pred, *(_Glast - 1), *_Pfirst))

  00090	8b 45 fc	 mov	 eax, DWORD PTR __Glast$[ebp]
  00093	8b 40 fc	 mov	 eax, DWORD PTR [eax-4]
  00096	8b 4e 10	 mov	 ecx, DWORD PTR [esi+16]
  00099	3b c8		 cmp	 ecx, eax
  0009b	7f 14		 jg	 SHORT $LN13@Unguarded_

; 3741 : 				;
; 3742 : 			else if (_Pred(*_Pfirst, *(_Glast - 1)))

  0009d	7c 1e		 jl	 SHORT $LN98@Unguarded_

; 3739 : 		for (; _First < _Glast; --_Glast)

  0009f	8b 45 fc	 mov	 eax, DWORD PTR __Glast$[ebp]
  000a2	83 c0 ec	 add	 eax, -20		; ffffffecH

; 3743 : 				break;
; 3744 : 			else
; 3745 : 				_STD iter_swap(--_Pfirst, _Glast - 1);

  000a5	83 ee 14	 sub	 esi, 20			; 00000014H
  000a8	50		 push	 eax
  000a9	56		 push	 esi
  000aa	e8 00 00 00 00	 call	 ??$swap@UBuffInfo@ioBuffCountSkill@@@std@@YAXAAUBuffInfo@ioBuffCountSkill@@0@Z ; std::swap<ioBuffCountSkill::BuffInfo>
  000af	59		 pop	 ecx
  000b0	59		 pop	 ecx
$LN13@Unguarded_:

; 3739 : 		for (; _First < _Glast; --_Glast)

  000b1	83 6d fc 14	 sub	 DWORD PTR __Glast$[ebp], 20 ; 00000014H
$LN97@Unguarded_:
  000b5	8b 55 0c	 mov	 edx, DWORD PTR __First$[ebp]
  000b8	3b 55 fc	 cmp	 edx, DWORD PTR __Glast$[ebp]
  000bb	72 d3		 jb	 SHORT $LL99@Unguarded_
$LN98@Unguarded_:

; 3746 : 		if (_Glast == _First && _Gfirst == _Last)

  000bd	39 55 fc	 cmp	 DWORD PTR __Glast$[ebp], edx
  000c0	75 1f		 jne	 SHORT $LN6@Unguarded_
  000c2	3b 7d 10	 cmp	 edi, DWORD PTR __Last$[ebp]
  000c5	74 50		 je	 SHORT $LN88@Unguarded_

; 3748 : 
; 3749 : 		if (_Glast == _First)
; 3750 : 			{	// no room at bottom, rotate pivot upward
; 3751 : 			if (_Plast != _Gfirst)

  000c7	3b df		 cmp	 ebx, edi
  000c9	74 09		 je	 SHORT $LN70@Unguarded_

; 3752 : 				_STD iter_swap(_Pfirst, _Plast);

  000cb	53		 push	 ebx
  000cc	56		 push	 esi
  000cd	e8 00 00 00 00	 call	 ??$swap@UBuffInfo@ioBuffCountSkill@@@std@@YAXAAUBuffInfo@ioBuffCountSkill@@0@Z ; std::swap<ioBuffCountSkill::BuffInfo>
  000d2	59		 pop	 ecx
  000d3	59		 pop	 ecx
$LN70@Unguarded_:

; 3753 : 			++_Plast;
; 3754 : 			_STD iter_swap(_Pfirst++, _Gfirst++);

  000d4	57		 push	 edi
  000d5	56		 push	 esi
  000d6	83 c3 14	 add	 ebx, 20			; 00000014H
  000d9	83 c6 14	 add	 esi, 20			; 00000014H
  000dc	83 c7 14	 add	 edi, 20			; 00000014H
  000df	eb 21		 jmp	 SHORT $LN101@Unguarded_
$LN6@Unguarded_:

; 3755 : 			}
; 3756 : 		else if (_Gfirst == _Last)
; 3757 : 			{	// no room at top, rotate pivot downward
; 3758 : 			if (--_Glast != --_Pfirst)

  000e1	83 6d fc 14	 sub	 DWORD PTR __Glast$[ebp], 20 ; 00000014H
  000e5	3b 7d 10	 cmp	 edi, DWORD PTR __Last$[ebp]
  000e8	75 24		 jne	 SHORT $LN3@Unguarded_
  000ea	83 ee 14	 sub	 esi, 20			; 00000014H
  000ed	39 75 fc	 cmp	 DWORD PTR __Glast$[ebp], esi
  000f0	74 0b		 je	 SHORT $LN74@Unguarded_

; 3759 : 				_STD iter_swap(_Glast, _Pfirst);

  000f2	56		 push	 esi
  000f3	ff 75 fc	 push	 DWORD PTR __Glast$[ebp]
  000f6	e8 00 00 00 00	 call	 ??$swap@UBuffInfo@ioBuffCountSkill@@@std@@YAXAAUBuffInfo@ioBuffCountSkill@@0@Z ; std::swap<ioBuffCountSkill::BuffInfo>
  000fb	59		 pop	 ecx
  000fc	59		 pop	 ecx
$LN74@Unguarded_:

; 3760 : 			_STD iter_swap(_Pfirst, --_Plast);

  000fd	83 eb 14	 sub	 ebx, 20			; 00000014H
  00100	53		 push	 ebx
  00101	56		 push	 esi
$LN101@Unguarded_:
  00102	e8 00 00 00 00	 call	 ??$swap@UBuffInfo@ioBuffCountSkill@@@std@@YAXAAUBuffInfo@ioBuffCountSkill@@0@Z ; std::swap<ioBuffCountSkill::BuffInfo>
  00107	59		 pop	 ecx
  00108	59		 pop	 ecx

; 3761 : 			}
; 3762 : 		else

  00109	e9 7b ff ff ff	 jmp	 $LN102@Unguarded_
$LN3@Unguarded_:

; 3763 : 			_STD iter_swap(_Gfirst++, --_Glast);

  0010e	ff 75 fc	 push	 DWORD PTR __Glast$[ebp]
  00111	57		 push	 edi

; 3764 : 		}

  00112	e9 68 ff ff ff	 jmp	 $LN104@Unguarded_
$LN88@Unguarded_:

; 3747 : 			return (_STD pair<_RanIt, _RanIt>(_Pfirst, _Plast));

  00117	8b 45 08	 mov	 eax, DWORD PTR ___$ReturnUdt$[ebp]
  0011a	5f		 pop	 edi
  0011b	89 30		 mov	 DWORD PTR [eax], esi
  0011d	5e		 pop	 esi
  0011e	89 58 04	 mov	 DWORD PTR [eax+4], ebx
  00121	5b		 pop	 ebx

; 3765 : 	}

  00122	c9		 leave
  00123	c3		 ret	 0
??$_Unguarded_partition@PAUBuffInfo@ioBuffCountSkill@@VBuffInfoSort@2@@std@@YA?AU?$pair@PAUBuffInfo@ioBuffCountSkill@@PAU12@@0@PAUBuffInfo@ioBuffCountSkill@@0VBuffInfoSort@3@@Z ENDP ; std::_Unguarded_partition<ioBuffCountSkill::BuffInfo *,ioBuffCountSkill::BuffInfoSort>
_TEXT	ENDS
PUBLIC	??$make_heap@PAUBuffInfo@ioBuffCountSkill@@VBuffInfoSort@2@@std@@YAXPAUBuffInfo@ioBuffCountSkill@@0VBuffInfoSort@2@@Z ; std::make_heap<ioBuffCountSkill::BuffInfo *,ioBuffCountSkill::BuffInfoSort>
; Function compile flags: /Ogsp
;	COMDAT ??$make_heap@PAUBuffInfo@ioBuffCountSkill@@VBuffInfoSort@2@@std@@YAXPAUBuffInfo@ioBuffCountSkill@@0VBuffInfoSort@2@@Z
_TEXT	SEGMENT
__First$ = 8						; size = 4
__Last$ = 12						; size = 4
__Pred$ = 16						; size = 1
??$make_heap@PAUBuffInfo@ioBuffCountSkill@@VBuffInfoSort@2@@std@@YAXPAUBuffInfo@ioBuffCountSkill@@0VBuffInfoSort@2@@Z PROC ; std::make_heap<ioBuffCountSkill::BuffInfo *,ioBuffCountSkill::BuffInfoSort>, COMDAT

; 2672 : 	{	// make [_First, _Last) into a heap, using _Pred

  00000	55		 push	 ebp
  00001	8b ec		 mov	 ebp, esp

; 2673 : 	_DEBUG_RANGE(_First, _Last);
; 2674 : 	_DEBUG_POINTER(_Pred);
; 2675 : 	if (1 < _Last - _First)

  00003	8b 45 0c	 mov	 eax, DWORD PTR __Last$[ebp]
  00006	2b 45 08	 sub	 eax, DWORD PTR __First$[ebp]
  00009	6a 14		 push	 20			; 00000014H
  0000b	99		 cdq
  0000c	59		 pop	 ecx
  0000d	f7 f9		 idiv	 ecx
  0000f	83 f8 01	 cmp	 eax, 1
  00012	7e 15		 jle	 SHORT $LN1@make_heap

; 2676 : 		_Make_heap(_Unchecked(_First), _Unchecked(_Last), _Pred,
; 2677 : 			_Dist_type(_First), _Val_type(_First));

  00014	6a 00		 push	 0
  00016	6a 00		 push	 0
  00018	ff 75 10	 push	 DWORD PTR __Pred$[ebp]
  0001b	ff 75 0c	 push	 DWORD PTR __Last$[ebp]
  0001e	ff 75 08	 push	 DWORD PTR __First$[ebp]
  00021	e8 00 00 00 00	 call	 ??$_Make_heap@PAUBuffInfo@ioBuffCountSkill@@HU12@VBuffInfoSort@2@@std@@YAXPAUBuffInfo@ioBuffCountSkill@@0VBuffInfoSort@2@PAH0@Z ; std::_Make_heap<ioBuffCountSkill::BuffInfo *,int,ioBuffCountSkill::BuffInfo,ioBuffCountSkill::BuffInfoSort>
  00026	83 c4 14	 add	 esp, 20			; 00000014H
$LN1@make_heap:

; 2678 : 	}

  00029	5d		 pop	 ebp
  0002a	c3		 ret	 0
??$make_heap@PAUBuffInfo@ioBuffCountSkill@@VBuffInfoSort@2@@std@@YAXPAUBuffInfo@ioBuffCountSkill@@0VBuffInfoSort@2@@Z ENDP ; std::make_heap<ioBuffCountSkill::BuffInfo *,ioBuffCountSkill::BuffInfoSort>
_TEXT	ENDS
PUBLIC	??$_Insertion_sort@PAUBuffInfo@ioBuffCountSkill@@VBuffInfoSort@2@@std@@YAXPAUBuffInfo@ioBuffCountSkill@@0VBuffInfoSort@2@@Z ; std::_Insertion_sort<ioBuffCountSkill::BuffInfo *,ioBuffCountSkill::BuffInfoSort>
; Function compile flags: /Ogsp
;	COMDAT ??$_Insertion_sort@PAUBuffInfo@ioBuffCountSkill@@VBuffInfoSort@2@@std@@YAXPAUBuffInfo@ioBuffCountSkill@@0VBuffInfoSort@2@@Z
_TEXT	SEGMENT
__First$ = 8						; size = 4
__Last$ = 12						; size = 4
__Pred$ = 16						; size = 1
??$_Insertion_sort@PAUBuffInfo@ioBuffCountSkill@@VBuffInfoSort@2@@std@@YAXPAUBuffInfo@ioBuffCountSkill@@0VBuffInfoSort@2@@Z PROC ; std::_Insertion_sort<ioBuffCountSkill::BuffInfo *,ioBuffCountSkill::BuffInfoSort>, COMDAT

; 3676 : 	{	// insertion sort [_First, _Last), using _Pred

  00000	55		 push	 ebp
  00001	8b ec		 mov	 ebp, esp

; 3677 : 	_Insertion_sort1(_First, _Last, _Pred, _Val_type(_First));

  00003	6a 00		 push	 0
  00005	ff 75 10	 push	 DWORD PTR __Pred$[ebp]
  00008	ff 75 0c	 push	 DWORD PTR __Last$[ebp]
  0000b	ff 75 08	 push	 DWORD PTR __First$[ebp]
  0000e	e8 00 00 00 00	 call	 ??$_Insertion_sort1@PAUBuffInfo@ioBuffCountSkill@@VBuffInfoSort@2@U12@@std@@YAXPAUBuffInfo@ioBuffCountSkill@@0VBuffInfoSort@2@0@Z ; std::_Insertion_sort1<ioBuffCountSkill::BuffInfo *,ioBuffCountSkill::BuffInfoSort,ioBuffCountSkill::BuffInfo>
  00013	83 c4 10	 add	 esp, 16			; 00000010H

; 3678 : 	}

  00016	5d		 pop	 ebp
  00017	c3		 ret	 0
??$_Insertion_sort@PAUBuffInfo@ioBuffCountSkill@@VBuffInfoSort@2@@std@@YAXPAUBuffInfo@ioBuffCountSkill@@0VBuffInfoSort@2@@Z ENDP ; std::_Insertion_sort<ioBuffCountSkill::BuffInfo *,ioBuffCountSkill::BuffInfoSort>
_TEXT	ENDS
PUBLIC	??$_Dest_val@V?$allocator@UBuffInfo@ioBuffCountSkill@@@std@@UBuffInfo@ioBuffCountSkill@@@std@@YAXAAV?$allocator@UBuffInfo@ioBuffCountSkill@@@0@PAUBuffInfo@ioBuffCountSkill@@@Z ; std::_Dest_val<std::allocator<ioBuffCountSkill::BuffInfo>,ioBuffCountSkill::BuffInfo>
; Function compile flags: /Ogsp
; File c:\program files (x86)\microsoft visual studio 10.0\vc\include\xmemory
;	COMDAT ??$_Dest_val@V?$allocator@UBuffInfo@ioBuffCountSkill@@@std@@UBuffInfo@ioBuffCountSkill@@@std@@YAXAAV?$allocator@UBuffInfo@ioBuffCountSkill@@@0@PAUBuffInfo@ioBuffCountSkill@@@Z
_TEXT	SEGMENT
__Alval$ = 8						; size = 4
__Pdest$ = 12						; size = 4
??$_Dest_val@V?$allocator@UBuffInfo@ioBuffCountSkill@@@std@@UBuffInfo@ioBuffCountSkill@@@std@@YAXAAV?$allocator@UBuffInfo@ioBuffCountSkill@@@0@PAUBuffInfo@ioBuffCountSkill@@@Z PROC ; std::_Dest_val<std::allocator<ioBuffCountSkill::BuffInfo>,ioBuffCountSkill::BuffInfo>, COMDAT

; 286  : 	{	// destroy using allocator

  00000	55		 push	 ebp
  00001	8b ec		 mov	 ebp, esp

; 287  : 	_Alval.destroy(_Pdest);

  00003	8b 4d 0c	 mov	 ecx, DWORD PTR __Pdest$[ebp]

; 288  : 	}

  00006	5d		 pop	 ebp

; 287  : 	_Alval.destroy(_Pdest);

  00007	e9 00 00 00 00	 jmp	 ?_Tidy@?$vector@VioHashString@@V?$allocator@VioHashString@@@std@@@std@@IAEXXZ ; std::vector<ioHashString,std::allocator<ioHashString> >::_Tidy
??$_Dest_val@V?$allocator@UBuffInfo@ioBuffCountSkill@@@std@@UBuffInfo@ioBuffCountSkill@@@std@@YAXAAV?$allocator@UBuffInfo@ioBuffCountSkill@@@0@PAUBuffInfo@ioBuffCountSkill@@@Z ENDP ; std::_Dest_val<std::allocator<ioBuffCountSkill::BuffInfo>,ioBuffCountSkill::BuffInfo>
_TEXT	ENDS
PUBLIC	??$_Pop_heap@PAUBuffInfo@ioBuffCountSkill@@VBuffInfoSort@2@@std@@YAXPAUBuffInfo@ioBuffCountSkill@@0VBuffInfoSort@2@@Z ; std::_Pop_heap<ioBuffCountSkill::BuffInfo *,ioBuffCountSkill::BuffInfoSort>
; Function compile flags: /Ogsp
; File c:\program files (x86)\microsoft visual studio 10.0\vc\include\algorithm
;	COMDAT ??$_Pop_heap@PAUBuffInfo@ioBuffCountSkill@@VBuffInfoSort@2@@std@@YAXPAUBuffInfo@ioBuffCountSkill@@0VBuffInfoSort@2@@Z
_TEXT	SEGMENT
__First$ = 8						; size = 4
__Last$ = 12						; size = 4
__Pred$ = 16						; size = 1
??$_Pop_heap@PAUBuffInfo@ioBuffCountSkill@@VBuffInfoSort@2@@std@@YAXPAUBuffInfo@ioBuffCountSkill@@0VBuffInfoSort@2@@Z PROC ; std::_Pop_heap<ioBuffCountSkill::BuffInfo *,ioBuffCountSkill::BuffInfoSort>, COMDAT

; 2610 : 	{	// pop *_First to *(_Last - 1) and reheap, using _Pred

  00000	55		 push	 ebp
  00001	8b ec		 mov	 ebp, esp

; 2611 : 	_Pop_heap_0(_Unchecked(_First), _Unchecked(_Last), _Pred,
; 2612 : 		_Val_type(_First));

  00003	6a 00		 push	 0
  00005	ff 75 10	 push	 DWORD PTR __Pred$[ebp]
  00008	ff 75 0c	 push	 DWORD PTR __Last$[ebp]
  0000b	ff 75 08	 push	 DWORD PTR __First$[ebp]
  0000e	e8 00 00 00 00	 call	 ??$_Pop_heap_0@PAUBuffInfo@ioBuffCountSkill@@U12@VBuffInfoSort@2@@std@@YAXPAUBuffInfo@ioBuffCountSkill@@0VBuffInfoSort@2@0@Z ; std::_Pop_heap_0<ioBuffCountSkill::BuffInfo *,ioBuffCountSkill::BuffInfo,ioBuffCountSkill::BuffInfoSort>
  00013	83 c4 10	 add	 esp, 16			; 00000010H

; 2613 : 	}

  00016	5d		 pop	 ebp
  00017	c3		 ret	 0
??$_Pop_heap@PAUBuffInfo@ioBuffCountSkill@@VBuffInfoSort@2@@std@@YAXPAUBuffInfo@ioBuffCountSkill@@0VBuffInfoSort@2@@Z ENDP ; std::_Pop_heap<ioBuffCountSkill::BuffInfo *,ioBuffCountSkill::BuffInfoSort>
_TEXT	ENDS
PUBLIC	??$_Destroy_range@V?$allocator@UBuffInfo@ioBuffCountSkill@@@std@@@std@@YAXPAUBuffInfo@ioBuffCountSkill@@0AAV?$allocator@UBuffInfo@ioBuffCountSkill@@@0@U_Nonscalar_ptr_iterator_tag@0@@Z ; std::_Destroy_range<std::allocator<ioBuffCountSkill::BuffInfo> >
; Function compile flags: /Ogsp
; File c:\program files (x86)\microsoft visual studio 10.0\vc\include\xmemory
;	COMDAT ??$_Destroy_range@V?$allocator@UBuffInfo@ioBuffCountSkill@@@std@@@std@@YAXPAUBuffInfo@ioBuffCountSkill@@0AAV?$allocator@UBuffInfo@ioBuffCountSkill@@@0@U_Nonscalar_ptr_iterator_tag@0@@Z
_TEXT	SEGMENT
__First$ = 8						; size = 4
__Last$ = 12						; size = 4
__Al$ = 16						; size = 4
___formal$ = 20						; size = 1
??$_Destroy_range@V?$allocator@UBuffInfo@ioBuffCountSkill@@@std@@@std@@YAXPAUBuffInfo@ioBuffCountSkill@@0AAV?$allocator@UBuffInfo@ioBuffCountSkill@@@0@U_Nonscalar_ptr_iterator_tag@0@@Z PROC ; std::_Destroy_range<std::allocator<ioBuffCountSkill::BuffInfo> >, COMDAT

; 95   : 	{	// destroy [_First, _Last), arbitrary type

  00000	55		 push	 ebp
  00001	8b ec		 mov	 ebp, esp
  00003	56		 push	 esi

; 96   : 	for (; _First != _Last; ++_First)

  00004	8b 75 08	 mov	 esi, DWORD PTR __First$[ebp]
  00007	eb 0a		 jmp	 SHORT $LN24@Destroy_ra@3
$LL3@Destroy_ra@3:

; 97   : 		_Dest_val(_Al, _First);

  00009	8b ce		 mov	 ecx, esi
  0000b	e8 00 00 00 00	 call	 ?_Tidy@?$vector@VioHashString@@V?$allocator@VioHashString@@@std@@@std@@IAEXXZ ; std::vector<ioHashString,std::allocator<ioHashString> >::_Tidy
  00010	83 c6 14	 add	 esi, 20			; 00000014H
$LN24@Destroy_ra@3:

; 96   : 	for (; _First != _Last; ++_First)

  00013	3b 75 0c	 cmp	 esi, DWORD PTR __Last$[ebp]
  00016	75 f1		 jne	 SHORT $LL3@Destroy_ra@3
  00018	5e		 pop	 esi

; 98   : 	}

  00019	5d		 pop	 ebp
  0001a	c3		 ret	 0
??$_Destroy_range@V?$allocator@UBuffInfo@ioBuffCountSkill@@@std@@@std@@YAXPAUBuffInfo@ioBuffCountSkill@@0AAV?$allocator@UBuffInfo@ioBuffCountSkill@@@0@U_Nonscalar_ptr_iterator_tag@0@@Z ENDP ; std::_Destroy_range<std::allocator<ioBuffCountSkill::BuffInfo> >
_TEXT	ENDS
PUBLIC	??$_Uninit_copy@V?$_Vector_const_iterator@V?$_Vector_val@UBuffInfo@ioBuffCountSkill@@V?$allocator@UBuffInfo@ioBuffCountSkill@@@std@@@std@@@std@@PAUBuffInfo@ioBuffCountSkill@@V?$allocator@UBuffInfo@ioBuffCountSkill@@@2@@std@@YAPAUBuffInfo@ioBuffCountSkill@@V?$_Vector_const_iterator@V?$_Vector_val@UBuffInfo@ioBuffCountSkill@@V?$allocator@UBuffInfo@ioBuffCountSkill@@@std@@@std@@@0@0PAU12@AAV?$allocator@UBuffInfo@ioBuffCountSkill@@@0@U_Nonscalar_ptr_iterator_tag@0@@Z ; std::_Uninit_copy<std::_Vector_const_iterator<std::_Vector_val<ioBuffCountSkill::BuffInfo,std::allocator<ioBuffCountSkill::BuffInfo> > >,ioBuffCountSkill::BuffInfo *,std::allocator<ioBuffCountSkill::BuffInfo> >
;	COMDAT xdata$x
; File c:\program files (x86)\microsoft visual studio 10.0\vc\include\vector
xdata$x	SEGMENT
__catchsym$??$_Uninit_copy@V?$_Vector_const_iterator@V?$_Vector_val@UBuffInfo@ioBuffCountSkill@@V?$allocator@UBuffInfo@ioBuffCountSkill@@@std@@@std@@@std@@PAUBuffInfo@ioBuffCountSkill@@V?$allocator@UBuffInfo@ioBuffCountSkill@@@2@@std@@YAPAUBuffInfo@ioBuffCountSkill@@V?$_Vector_const_iterator@V?$_Vector_val@UBuffInfo@ioBuffCountSkill@@V?$allocator@UBuffInfo@ioBuffCountSkill@@@std@@@std@@@0@0PAU12@AAV?$allocator@UBuffInfo@ioBuffCountSkill@@@0@U_Nonscalar_ptr_iterator_tag@0@@Z$3 DD 040H
	DD	00H
	DD	00H
	DD	FLAT:__catch$??$_Uninit_copy@V?$_Vector_const_iterator@V?$_Vector_val@UBuffInfo@ioBuffCountSkill@@V?$allocator@UBuffInfo@ioBuffCountSkill@@@std@@@std@@@std@@PAUBuffInfo@ioBuffCountSkill@@V?$allocator@UBuffInfo@ioBuffCountSkill@@@2@@std@@YAPAUBuffInfo@ioBuffCountSkill@@V?$_Vector_const_iterator@V?$_Vector_val@UBuffInfo@ioBuffCountSkill@@V?$allocator@UBuffInfo@ioBuffCountSkill@@@std@@@std@@@0@0PAU12@AAV?$allocator@UBuffInfo@ioBuffCountSkill@@@0@U_Nonscalar_ptr_iterator_tag@0@@Z$0
__unwindtable$??$_Uninit_copy@V?$_Vector_const_iterator@V?$_Vector_val@UBuffInfo@ioBuffCountSkill@@V?$allocator@UBuffInfo@ioBuffCountSkill@@@std@@@std@@@std@@PAUBuffInfo@ioBuffCountSkill@@V?$allocator@UBuffInfo@ioBuffCountSkill@@@2@@std@@YAPAUBuffInfo@ioBuffCountSkill@@V?$_Vector_const_iterator@V?$_Vector_val@UBuffInfo@ioBuffCountSkill@@V?$allocator@UBuffInfo@ioBuffCountSkill@@@std@@@std@@@0@0PAU12@AAV?$allocator@UBuffInfo@ioBuffCountSkill@@@0@U_Nonscalar_ptr_iterator_tag@0@@Z DD 0ffffffffH
	DD	00H
	DD	0ffffffffH
	DD	00H
__tryblocktable$??$_Uninit_copy@V?$_Vector_const_iterator@V?$_Vector_val@UBuffInfo@ioBuffCountSkill@@V?$allocator@UBuffInfo@ioBuffCountSkill@@@std@@@std@@@std@@PAUBuffInfo@ioBuffCountSkill@@V?$allocator@UBuffInfo@ioBuffCountSkill@@@2@@std@@YAPAUBuffInfo@ioBuffCountSkill@@V?$_Vector_const_iterator@V?$_Vector_val@UBuffInfo@ioBuffCountSkill@@V?$allocator@UBuffInfo@ioBuffCountSkill@@@std@@@std@@@0@0PAU12@AAV?$allocator@UBuffInfo@ioBuffCountSkill@@@0@U_Nonscalar_ptr_iterator_tag@0@@Z DD 00H
	DD	00H
	DD	01H
	DD	01H
	DD	FLAT:__catchsym$??$_Uninit_copy@V?$_Vector_const_iterator@V?$_Vector_val@UBuffInfo@ioBuffCountSkill@@V?$allocator@UBuffInfo@ioBuffCountSkill@@@std@@@std@@@std@@PAUBuffInfo@ioBuffCountSkill@@V?$allocator@UBuffInfo@ioBuffCountSkill@@@2@@std@@YAPAUBuffInfo@ioBuffCountSkill@@V?$_Vector_const_iterator@V?$_Vector_val@UBuffInfo@ioBuffCountSkill@@V?$allocator@UBuffInfo@ioBuffCountSkill@@@std@@@std@@@0@0PAU12@AAV?$allocator@UBuffInfo@ioBuffCountSkill@@@0@U_Nonscalar_ptr_iterator_tag@0@@Z$3
__ehfuncinfo$??$_Uninit_copy@V?$_Vector_const_iterator@V?$_Vector_val@UBuffInfo@ioBuffCountSkill@@V?$allocator@UBuffInfo@ioBuffCountSkill@@@std@@@std@@@std@@PAUBuffInfo@ioBuffCountSkill@@V?$allocator@UBuffInfo@ioBuffCountSkill@@@2@@std@@YAPAUBuffInfo@ioBuffCountSkill@@V?$_Vector_const_iterator@V?$_Vector_val@UBuffInfo@ioBuffCountSkill@@V?$allocator@UBuffInfo@ioBuffCountSkill@@@std@@@std@@@0@0PAU12@AAV?$allocator@UBuffInfo@ioBuffCountSkill@@@0@U_Nonscalar_ptr_iterator_tag@0@@Z DD 019930522H
	DD	02H
	DD	FLAT:__unwindtable$??$_Uninit_copy@V?$_Vector_const_iterator@V?$_Vector_val@UBuffInfo@ioBuffCountSkill@@V?$allocator@UBuffInfo@ioBuffCountSkill@@@std@@@std@@@std@@PAUBuffInfo@ioBuffCountSkill@@V?$allocator@UBuffInfo@ioBuffCountSkill@@@2@@std@@YAPAUBuffInfo@ioBuffCountSkill@@V?$_Vector_const_iterator@V?$_Vector_val@UBuffInfo@ioBuffCountSkill@@V?$allocator@UBuffInfo@ioBuffCountSkill@@@std@@@std@@@0@0PAU12@AAV?$allocator@UBuffInfo@ioBuffCountSkill@@@0@U_Nonscalar_ptr_iterator_tag@0@@Z
	DD	01H
	DD	FLAT:__tryblocktable$??$_Uninit_copy@V?$_Vector_const_iterator@V?$_Vector_val@UBuffInfo@ioBuffCountSkill@@V?$allocator@UBuffInfo@ioBuffCountSkill@@@std@@@std@@@std@@PAUBuffInfo@ioBuffCountSkill@@V?$allocator@UBuffInfo@ioBuffCountSkill@@@2@@std@@YAPAUBuffInfo@ioBuffCountSkill@@V?$_Vector_const_iterator@V?$_Vector_val@UBuffInfo@ioBuffCountSkill@@V?$allocator@UBuffInfo@ioBuffCountSkill@@@std@@@std@@@0@0PAU12@AAV?$allocator@UBuffInfo@ioBuffCountSkill@@@0@U_Nonscalar_ptr_iterator_tag@0@@Z
	DD	2 DUP(00H)
	DD	00H
	DD	01H
; Function compile flags: /Ogsp
; File c:\program files (x86)\microsoft visual studio 10.0\vc\include\memory
xdata$x	ENDS
;	COMDAT ??$_Uninit_copy@V?$_Vector_const_iterator@V?$_Vector_val@UBuffInfo@ioBuffCountSkill@@V?$allocator@UBuffInfo@ioBuffCountSkill@@@std@@@std@@@std@@PAUBuffInfo@ioBuffCountSkill@@V?$allocator@UBuffInfo@ioBuffCountSkill@@@2@@std@@YAPAUBuffInfo@ioBuffCountSkill@@V?$_Vector_const_iterator@V?$_Vector_val@UBuffInfo@ioBuffCountSkill@@V?$allocator@UBuffInfo@ioBuffCountSkill@@@std@@@std@@@0@0PAU12@AAV?$allocator@UBuffInfo@ioBuffCountSkill@@@0@U_Nonscalar_ptr_iterator_tag@0@@Z
_TEXT	SEGMENT
__Next$ = -20						; size = 4
__$EHRec$ = -16						; size = 16
__First$ = 8						; size = 4
__Last$ = 12						; size = 4
__Dest$ = 16						; size = 4
__Al$ = 20						; size = 4
___formal$ = 24						; size = 1
??$_Uninit_copy@V?$_Vector_const_iterator@V?$_Vector_val@UBuffInfo@ioBuffCountSkill@@V?$allocator@UBuffInfo@ioBuffCountSkill@@@std@@@std@@@std@@PAUBuffInfo@ioBuffCountSkill@@V?$allocator@UBuffInfo@ioBuffCountSkill@@@2@@std@@YAPAUBuffInfo@ioBuffCountSkill@@V?$_Vector_const_iterator@V?$_Vector_val@UBuffInfo@ioBuffCountSkill@@V?$allocator@UBuffInfo@ioBuffCountSkill@@@std@@@std@@@0@0PAU12@AAV?$allocator@UBuffInfo@ioBuffCountSkill@@@0@U_Nonscalar_ptr_iterator_tag@0@@Z PROC ; std::_Uninit_copy<std::_Vector_const_iterator<std::_Vector_val<ioBuffCountSkill::BuffInfo,std::allocator<ioBuffCountSkill::BuffInfo> > >,ioBuffCountSkill::BuffInfo *,std::allocator<ioBuffCountSkill::BuffInfo> >, COMDAT

; 369  : 	{	// copy [_First, _Last) to raw _Dest, using _Al, arbitrary type

  00000	6a 08		 push	 8
  00002	b8 00 00 00 00	 mov	 eax, __ehhandler$??$_Uninit_copy@V?$_Vector_const_iterator@V?$_Vector_val@UBuffInfo@ioBuffCountSkill@@V?$allocator@UBuffInfo@ioBuffCountSkill@@@std@@@std@@@std@@PAUBuffInfo@ioBuffCountSkill@@V?$allocator@UBuffInfo@ioBuffCountSkill@@@2@@std@@YAPAUBuffInfo@ioBuffCountSkill@@V?$_Vector_const_iterator@V?$_Vector_val@UBuffInfo@ioBuffCountSkill@@V?$allocator@UBuffInfo@ioBuffCountSkill@@@std@@@std@@@0@0PAU12@AAV?$allocator@UBuffInfo@ioBuffCountSkill@@@0@U_Nonscalar_ptr_iterator_tag@0@@Z
  00007	e8 00 00 00 00	 call	 __EH_prolog3_catch

; 370  : 	_DEBUG_RANGE(_First, _Last);
; 371  : 	_DEBUG_POINTER(_Dest);
; 372  : 	_FwdIt _Next = _Dest;

  0000c	8b 45 10	 mov	 eax, DWORD PTR __Dest$[ebp]

; 373  : 
; 374  : 	_TRY_BEGIN

  0000f	83 65 fc 00	 and	 DWORD PTR __$EHRec$[ebp+12], 0
  00013	89 45 ec	 mov	 DWORD PTR __Next$[ebp], eax

; 375  : 	for (; _First != _Last; ++_Dest, ++_First)

$LL14@Uninit_cop@3:
  00016	8b 45 08	 mov	 eax, DWORD PTR __First$[ebp]
  00019	3b 45 0c	 cmp	 eax, DWORD PTR __Last$[ebp]
  0001c	74 32		 je	 SHORT $LN4@Uninit_cop@3

; 376  : 		_Cons_val(_Al, _Dest, *_First);

  0001e	50		 push	 eax
  0001f	ff 75 10	 push	 DWORD PTR __Dest$[ebp]
  00022	e8 00 00 00 00	 call	 ??$_Construct@UBuffInfo@ioBuffCountSkill@@ABU12@@std@@YAXPAUBuffInfo@ioBuffCountSkill@@ABU12@@Z ; std::_Construct<ioBuffCountSkill::BuffInfo,ioBuffCountSkill::BuffInfo const &>
  00027	83 45 10 14	 add	 DWORD PTR __Dest$[ebp], 20 ; 00000014H
  0002b	83 45 08 14	 add	 DWORD PTR __First$[ebp], 20 ; 00000014H
  0002f	59		 pop	 ecx
  00030	59		 pop	 ecx
  00031	eb e3		 jmp	 SHORT $LL14@Uninit_cop@3
__catch$??$_Uninit_copy@V?$_Vector_const_iterator@V?$_Vector_val@UBuffInfo@ioBuffCountSkill@@V?$allocator@UBuffInfo@ioBuffCountSkill@@@std@@@std@@@std@@PAUBuffInfo@ioBuffCountSkill@@V?$allocator@UBuffInfo@ioBuffCountSkill@@@2@@std@@YAPAUBuffInfo@ioBuffCountSkill@@V?$_Vector_const_iterator@V?$_Vector_val@UBuffInfo@ioBuffCountSkill@@V?$allocator@UBuffInfo@ioBuffCountSkill@@@std@@@std@@@0@0PAU12@AAV?$allocator@UBuffInfo@ioBuffCountSkill@@@0@U_Nonscalar_ptr_iterator_tag@0@@Z$0:

; 377  : 	_CATCH_ALL
; 378  : 	for (; _Next != _Dest; ++_Next)

  00033	8b 75 ec	 mov	 esi, DWORD PTR __Next$[ebp]
  00036	eb 0a		 jmp	 SHORT $LN52@Uninit_cop@3
$LL3@Uninit_cop@3:

; 379  : 		_Dest_val(_Al, _Next);

  00038	8b ce		 mov	 ecx, esi
  0003a	e8 00 00 00 00	 call	 ?_Tidy@?$vector@VioHashString@@V?$allocator@VioHashString@@@std@@@std@@IAEXXZ ; std::vector<ioHashString,std::allocator<ioHashString> >::_Tidy
  0003f	83 c6 14	 add	 esi, 20			; 00000014H
$LN52@Uninit_cop@3:

; 377  : 	_CATCH_ALL
; 378  : 	for (; _Next != _Dest; ++_Next)

  00042	3b 75 10	 cmp	 esi, DWORD PTR __Dest$[ebp]
  00045	75 f1		 jne	 SHORT $LL3@Uninit_cop@3

; 380  : 	_RERAISE;

  00047	6a 00		 push	 0
  00049	6a 00		 push	 0
  0004b	e8 00 00 00 00	 call	 __CxxThrowException@8
$LN53@Uninit_cop@3:
$LN4@Uninit_cop@3:

; 381  : 	_CATCH_END
; 382  : 	return (_Dest);

  00050	8b 45 10	 mov	 eax, DWORD PTR __Dest$[ebp]

; 383  : 	}

  00053	e8 00 00 00 00	 call	 __EH_epilog3
  00058	c3		 ret	 0
$LN51@Uninit_cop@3:
_TEXT	ENDS
;	COMDAT text$x
text$x	SEGMENT
__ehhandler$??$_Uninit_copy@V?$_Vector_const_iterator@V?$_Vector_val@UBuffInfo@ioBuffCountSkill@@V?$allocator@UBuffInfo@ioBuffCountSkill@@@std@@@std@@@std@@PAUBuffInfo@ioBuffCountSkill@@V?$allocator@UBuffInfo@ioBuffCountSkill@@@2@@std@@YAPAUBuffInfo@ioBuffCountSkill@@V?$_Vector_const_iterator@V?$_Vector_val@UBuffInfo@ioBuffCountSkill@@V?$allocator@UBuffInfo@ioBuffCountSkill@@@std@@@std@@@0@0PAU12@AAV?$allocator@UBuffInfo@ioBuffCountSkill@@@0@U_Nonscalar_ptr_iterator_tag@0@@Z:
  00000	8b 54 24 08	 mov	 edx, DWORD PTR [esp+8]
  00004	8d 42 0c	 lea	 eax, DWORD PTR [edx+12]
  00007	8b 4a e8	 mov	 ecx, DWORD PTR [edx-24]
  0000a	33 c8		 xor	 ecx, eax
  0000c	e8 00 00 00 00	 call	 @__security_check_cookie@4
  00011	b8 00 00 00 00	 mov	 eax, OFFSET __ehfuncinfo$??$_Uninit_copy@V?$_Vector_const_iterator@V?$_Vector_val@UBuffInfo@ioBuffCountSkill@@V?$allocator@UBuffInfo@ioBuffCountSkill@@@std@@@std@@@std@@PAUBuffInfo@ioBuffCountSkill@@V?$allocator@UBuffInfo@ioBuffCountSkill@@@2@@std@@YAPAUBuffInfo@ioBuffCountSkill@@V?$_Vector_const_iterator@V?$_Vector_val@UBuffInfo@ioBuffCountSkill@@V?$allocator@UBuffInfo@ioBuffCountSkill@@@std@@@std@@@0@0PAU12@AAV?$allocator@UBuffInfo@ioBuffCountSkill@@@0@U_Nonscalar_ptr_iterator_tag@0@@Z
  00016	e9 00 00 00 00	 jmp	 ___CxxFrameHandler3
text$x	ENDS
??$_Uninit_copy@V?$_Vector_const_iterator@V?$_Vector_val@UBuffInfo@ioBuffCountSkill@@V?$allocator@UBuffInfo@ioBuffCountSkill@@@std@@@std@@@std@@PAUBuffInfo@ioBuffCountSkill@@V?$allocator@UBuffInfo@ioBuffCountSkill@@@2@@std@@YAPAUBuffInfo@ioBuffCountSkill@@V?$_Vector_const_iterator@V?$_Vector_val@UBuffInfo@ioBuffCountSkill@@V?$allocator@UBuffInfo@ioBuffCountSkill@@@std@@@std@@@0@0PAU12@AAV?$allocator@UBuffInfo@ioBuffCountSkill@@@0@U_Nonscalar_ptr_iterator_tag@0@@Z ENDP ; std::_Uninit_copy<std::_Vector_const_iterator<std::_Vector_val<ioBuffCountSkill::BuffInfo,std::allocator<ioBuffCountSkill::BuffInfo> > >,ioBuffCountSkill::BuffInfo *,std::allocator<ioBuffCountSkill::BuffInfo> >
PUBLIC	??$_Uninit_move@PAUBuffInfo@ioBuffCountSkill@@PAU12@V?$allocator@UBuffInfo@ioBuffCountSkill@@@std@@U12@@std@@YAPAUBuffInfo@ioBuffCountSkill@@PAU12@00AAV?$allocator@UBuffInfo@ioBuffCountSkill@@@0@0U_Nonscalar_ptr_iterator_tag@0@@Z ; std::_Uninit_move<ioBuffCountSkill::BuffInfo *,ioBuffCountSkill::BuffInfo *,std::allocator<ioBuffCountSkill::BuffInfo>,ioBuffCountSkill::BuffInfo>
;	COMDAT xdata$x
; File c:\program files (x86)\microsoft visual studio 10.0\vc\include\vector
xdata$x	SEGMENT
__catchsym$??$_Uninit_move@PAUBuffInfo@ioBuffCountSkill@@PAU12@V?$allocator@UBuffInfo@ioBuffCountSkill@@@std@@U12@@std@@YAPAUBuffInfo@ioBuffCountSkill@@PAU12@00AAV?$allocator@UBuffInfo@ioBuffCountSkill@@@0@0U_Nonscalar_ptr_iterator_tag@0@@Z$3 DD 040H
	DD	00H
	DD	00H
	DD	FLAT:__catch$??$_Uninit_move@PAUBuffInfo@ioBuffCountSkill@@PAU12@V?$allocator@UBuffInfo@ioBuffCountSkill@@@std@@U12@@std@@YAPAUBuffInfo@ioBuffCountSkill@@PAU12@00AAV?$allocator@UBuffInfo@ioBuffCountSkill@@@0@0U_Nonscalar_ptr_iterator_tag@0@@Z$0
__unwindtable$??$_Uninit_move@PAUBuffInfo@ioBuffCountSkill@@PAU12@V?$allocator@UBuffInfo@ioBuffCountSkill@@@std@@U12@@std@@YAPAUBuffInfo@ioBuffCountSkill@@PAU12@00AAV?$allocator@UBuffInfo@ioBuffCountSkill@@@0@0U_Nonscalar_ptr_iterator_tag@0@@Z DD 0ffffffffH
	DD	00H
	DD	0ffffffffH
	DD	00H
__tryblocktable$??$_Uninit_move@PAUBuffInfo@ioBuffCountSkill@@PAU12@V?$allocator@UBuffInfo@ioBuffCountSkill@@@std@@U12@@std@@YAPAUBuffInfo@ioBuffCountSkill@@PAU12@00AAV?$allocator@UBuffInfo@ioBuffCountSkill@@@0@0U_Nonscalar_ptr_iterator_tag@0@@Z DD 00H
	DD	00H
	DD	01H
	DD	01H
	DD	FLAT:__catchsym$??$_Uninit_move@PAUBuffInfo@ioBuffCountSkill@@PAU12@V?$allocator@UBuffInfo@ioBuffCountSkill@@@std@@U12@@std@@YAPAUBuffInfo@ioBuffCountSkill@@PAU12@00AAV?$allocator@UBuffInfo@ioBuffCountSkill@@@0@0U_Nonscalar_ptr_iterator_tag@0@@Z$3
__ehfuncinfo$??$_Uninit_move@PAUBuffInfo@ioBuffCountSkill@@PAU12@V?$allocator@UBuffInfo@ioBuffCountSkill@@@std@@U12@@std@@YAPAUBuffInfo@ioBuffCountSkill@@PAU12@00AAV?$allocator@UBuffInfo@ioBuffCountSkill@@@0@0U_Nonscalar_ptr_iterator_tag@0@@Z DD 019930522H
	DD	02H
	DD	FLAT:__unwindtable$??$_Uninit_move@PAUBuffInfo@ioBuffCountSkill@@PAU12@V?$allocator@UBuffInfo@ioBuffCountSkill@@@std@@U12@@std@@YAPAUBuffInfo@ioBuffCountSkill@@PAU12@00AAV?$allocator@UBuffInfo@ioBuffCountSkill@@@0@0U_Nonscalar_ptr_iterator_tag@0@@Z
	DD	01H
	DD	FLAT:__tryblocktable$??$_Uninit_move@PAUBuffInfo@ioBuffCountSkill@@PAU12@V?$allocator@UBuffInfo@ioBuffCountSkill@@@std@@U12@@std@@YAPAUBuffInfo@ioBuffCountSkill@@PAU12@00AAV?$allocator@UBuffInfo@ioBuffCountSkill@@@0@0U_Nonscalar_ptr_iterator_tag@0@@Z
	DD	2 DUP(00H)
	DD	00H
	DD	01H
; Function compile flags: /Ogsp
; File c:\program files (x86)\microsoft visual studio 10.0\vc\include\memory
xdata$x	ENDS
;	COMDAT ??$_Uninit_move@PAUBuffInfo@ioBuffCountSkill@@PAU12@V?$allocator@UBuffInfo@ioBuffCountSkill@@@std@@U12@@std@@YAPAUBuffInfo@ioBuffCountSkill@@PAU12@00AAV?$allocator@UBuffInfo@ioBuffCountSkill@@@0@0U_Nonscalar_ptr_iterator_tag@0@@Z
_TEXT	SEGMENT
__Next$ = -20						; size = 4
__$EHRec$ = -16						; size = 16
__First$ = 8						; size = 4
__Last$ = 12						; size = 4
__Dest$ = 16						; size = 4
__Al$ = 20						; size = 4
___formal$ = 24						; size = 4
___formal$ = 28						; size = 1
??$_Uninit_move@PAUBuffInfo@ioBuffCountSkill@@PAU12@V?$allocator@UBuffInfo@ioBuffCountSkill@@@std@@U12@@std@@YAPAUBuffInfo@ioBuffCountSkill@@PAU12@00AAV?$allocator@UBuffInfo@ioBuffCountSkill@@@0@0U_Nonscalar_ptr_iterator_tag@0@@Z PROC ; std::_Uninit_move<ioBuffCountSkill::BuffInfo *,ioBuffCountSkill::BuffInfo *,std::allocator<ioBuffCountSkill::BuffInfo>,ioBuffCountSkill::BuffInfo>, COMDAT

; 424  : 	{	// move [_First, _Last) to raw _Dest, using _Al, arbitrary type

  00000	6a 08		 push	 8
  00002	b8 00 00 00 00	 mov	 eax, __ehhandler$??$_Uninit_move@PAUBuffInfo@ioBuffCountSkill@@PAU12@V?$allocator@UBuffInfo@ioBuffCountSkill@@@std@@U12@@std@@YAPAUBuffInfo@ioBuffCountSkill@@PAU12@00AAV?$allocator@UBuffInfo@ioBuffCountSkill@@@0@0U_Nonscalar_ptr_iterator_tag@0@@Z
  00007	e8 00 00 00 00	 call	 __EH_prolog3_catch

; 425  : 	_DEBUG_RANGE(_First, _Last);
; 426  : 	_DEBUG_POINTER(_Dest);
; 427  : 	_FwdIt _Next = _Dest;

  0000c	8b 45 10	 mov	 eax, DWORD PTR __Dest$[ebp]

; 428  : 
; 429  : 	_TRY_BEGIN

  0000f	83 65 fc 00	 and	 DWORD PTR __$EHRec$[ebp+12], 0
  00013	8b 75 08	 mov	 esi, DWORD PTR __First$[ebp]
  00016	89 45 ec	 mov	 DWORD PTR __Next$[ebp], eax
$LL6@Uninit_mov@2:

; 430  : 	for (; _First != _Last; ++_Dest, ++_First)

  00019	3b 75 0c	 cmp	 esi, DWORD PTR __Last$[ebp]
  0001c	74 32		 je	 SHORT $LN4@Uninit_mov@2

; 431  : 		_Cons_val(_Al, _Dest, (_Valty &&)*_First);

  0001e	8b 4d 14	 mov	 ecx, DWORD PTR __Al$[ebp]
  00021	56		 push	 esi
  00022	ff 75 10	 push	 DWORD PTR __Dest$[ebp]
  00025	e8 00 00 00 00	 call	 ?construct@?$allocator@UBuffInfo@ioBuffCountSkill@@@std@@QAEXPAUBuffInfo@ioBuffCountSkill@@$$QAU34@@Z ; std::allocator<ioBuffCountSkill::BuffInfo>::construct
  0002a	83 45 10 14	 add	 DWORD PTR __Dest$[ebp], 20 ; 00000014H
  0002e	83 c6 14	 add	 esi, 20			; 00000014H
  00031	eb e6		 jmp	 SHORT $LL6@Uninit_mov@2
__catch$??$_Uninit_move@PAUBuffInfo@ioBuffCountSkill@@PAU12@V?$allocator@UBuffInfo@ioBuffCountSkill@@@std@@U12@@std@@YAPAUBuffInfo@ioBuffCountSkill@@PAU12@00AAV?$allocator@UBuffInfo@ioBuffCountSkill@@@0@0U_Nonscalar_ptr_iterator_tag@0@@Z$0:

; 432  : 	_CATCH_ALL
; 433  : 	for (; _Next != _Dest; ++_Next)

  00033	8b 75 ec	 mov	 esi, DWORD PTR __Next$[ebp]
  00036	eb 0a		 jmp	 SHORT $LN40@Uninit_mov@2
$LL3@Uninit_mov@2:

; 434  : 		_Dest_val(_Al, _Next);

  00038	8b ce		 mov	 ecx, esi
  0003a	e8 00 00 00 00	 call	 ?_Tidy@?$vector@VioHashString@@V?$allocator@VioHashString@@@std@@@std@@IAEXXZ ; std::vector<ioHashString,std::allocator<ioHashString> >::_Tidy
  0003f	83 c6 14	 add	 esi, 20			; 00000014H
$LN40@Uninit_mov@2:

; 432  : 	_CATCH_ALL
; 433  : 	for (; _Next != _Dest; ++_Next)

  00042	3b 75 10	 cmp	 esi, DWORD PTR __Dest$[ebp]
  00045	75 f1		 jne	 SHORT $LL3@Uninit_mov@2

; 435  : 	_RERAISE;

  00047	6a 00		 push	 0
  00049	6a 00		 push	 0
  0004b	e8 00 00 00 00	 call	 __CxxThrowException@8
$LN41@Uninit_mov@2:
$LN4@Uninit_mov@2:

; 436  : 	_CATCH_END
; 437  : 	return (_Dest);

  00050	8b 45 10	 mov	 eax, DWORD PTR __Dest$[ebp]

; 438  : 	}

  00053	e8 00 00 00 00	 call	 __EH_epilog3
  00058	c3		 ret	 0
$LN39@Uninit_mov@2:
_TEXT	ENDS
;	COMDAT text$x
text$x	SEGMENT
__ehhandler$??$_Uninit_move@PAUBuffInfo@ioBuffCountSkill@@PAU12@V?$allocator@UBuffInfo@ioBuffCountSkill@@@std@@U12@@std@@YAPAUBuffInfo@ioBuffCountSkill@@PAU12@00AAV?$allocator@UBuffInfo@ioBuffCountSkill@@@0@0U_Nonscalar_ptr_iterator_tag@0@@Z:
  00000	8b 54 24 08	 mov	 edx, DWORD PTR [esp+8]
  00004	8d 42 0c	 lea	 eax, DWORD PTR [edx+12]
  00007	8b 4a e8	 mov	 ecx, DWORD PTR [edx-24]
  0000a	33 c8		 xor	 ecx, eax
  0000c	e8 00 00 00 00	 call	 @__security_check_cookie@4
  00011	b8 00 00 00 00	 mov	 eax, OFFSET __ehfuncinfo$??$_Uninit_move@PAUBuffInfo@ioBuffCountSkill@@PAU12@V?$allocator@UBuffInfo@ioBuffCountSkill@@@std@@U12@@std@@YAPAUBuffInfo@ioBuffCountSkill@@PAU12@00AAV?$allocator@UBuffInfo@ioBuffCountSkill@@@0@0U_Nonscalar_ptr_iterator_tag@0@@Z
  00016	e9 00 00 00 00	 jmp	 ___CxxFrameHandler3
text$x	ENDS
??$_Uninit_move@PAUBuffInfo@ioBuffCountSkill@@PAU12@V?$allocator@UBuffInfo@ioBuffCountSkill@@@std@@U12@@std@@YAPAUBuffInfo@ioBuffCountSkill@@PAU12@00AAV?$allocator@UBuffInfo@ioBuffCountSkill@@@0@0U_Nonscalar_ptr_iterator_tag@0@@Z ENDP ; std::_Uninit_move<ioBuffCountSkill::BuffInfo *,ioBuffCountSkill::BuffInfo *,std::allocator<ioBuffCountSkill::BuffInfo>,ioBuffCountSkill::BuffInfo>
PUBLIC	??$_Sort_heap@PAUBuffInfo@ioBuffCountSkill@@VBuffInfoSort@2@@std@@YAXPAUBuffInfo@ioBuffCountSkill@@0VBuffInfoSort@2@@Z ; std::_Sort_heap<ioBuffCountSkill::BuffInfo *,ioBuffCountSkill::BuffInfoSort>
; Function compile flags: /Ogsp
; File c:\program files (x86)\microsoft visual studio 10.0\vc\include\algorithm
;	COMDAT ??$_Sort_heap@PAUBuffInfo@ioBuffCountSkill@@VBuffInfoSort@2@@std@@YAXPAUBuffInfo@ioBuffCountSkill@@0VBuffInfoSort@2@@Z
_TEXT	SEGMENT
__First$ = 8						; size = 4
__Last$ = 12						; size = 4
__Pred$ = 16						; size = 1
??$_Sort_heap@PAUBuffInfo@ioBuffCountSkill@@VBuffInfoSort@2@@std@@YAXPAUBuffInfo@ioBuffCountSkill@@0VBuffInfoSort@2@@Z PROC ; std::_Sort_heap<ioBuffCountSkill::BuffInfo *,ioBuffCountSkill::BuffInfoSort>, COMDAT

; 2700 : 	{	// order heap by repeatedly popping, using _Pred

  00000	55		 push	 ebp
  00001	8b ec		 mov	 ebp, esp

; 2701 : 	for (; 1 < _Last - _First; --_Last)

  00003	8b 4d 0c	 mov	 ecx, DWORD PTR __Last$[ebp]
  00006	2b 4d 08	 sub	 ecx, DWORD PTR __First$[ebp]
  00009	57		 push	 edi
  0000a	8b c1		 mov	 eax, ecx
  0000c	6a 14		 push	 20			; 00000014H
  0000e	99		 cdq
  0000f	5f		 pop	 edi
  00010	f7 ff		 idiv	 edi
  00012	83 f8 01	 cmp	 eax, 1
  00015	7e 29		 jle	 SHORT $LN1@Sort_heap
  00017	8b f9		 mov	 edi, ecx
$LL3@Sort_heap:

; 2702 : 		_Pop_heap(_First, _Last, _Pred);

  00019	6a 00		 push	 0
  0001b	ff 75 10	 push	 DWORD PTR __Pred$[ebp]
  0001e	ff 75 0c	 push	 DWORD PTR __Last$[ebp]
  00021	ff 75 08	 push	 DWORD PTR __First$[ebp]
  00024	e8 00 00 00 00	 call	 ??$_Pop_heap_0@PAUBuffInfo@ioBuffCountSkill@@U12@VBuffInfoSort@2@@std@@YAXPAUBuffInfo@ioBuffCountSkill@@0VBuffInfoSort@2@0@Z ; std::_Pop_heap_0<ioBuffCountSkill::BuffInfo *,ioBuffCountSkill::BuffInfo,ioBuffCountSkill::BuffInfoSort>
  00029	83 c4 10	 add	 esp, 16			; 00000010H
  0002c	83 ef 14	 sub	 edi, 20			; 00000014H
  0002f	8b c7		 mov	 eax, edi
  00031	6a 14		 push	 20			; 00000014H
  00033	99		 cdq
  00034	59		 pop	 ecx
  00035	f7 f9		 idiv	 ecx
  00037	83 6d 0c 14	 sub	 DWORD PTR __Last$[ebp], 20 ; 00000014H
  0003b	83 f8 01	 cmp	 eax, 1
  0003e	7f d9		 jg	 SHORT $LL3@Sort_heap
$LN1@Sort_heap:
  00040	5f		 pop	 edi

; 2703 : 	}

  00041	5d		 pop	 ebp
  00042	c3		 ret	 0
??$_Sort_heap@PAUBuffInfo@ioBuffCountSkill@@VBuffInfoSort@2@@std@@YAXPAUBuffInfo@ioBuffCountSkill@@0VBuffInfoSort@2@@Z ENDP ; std::_Sort_heap<ioBuffCountSkill::BuffInfo *,ioBuffCountSkill::BuffInfoSort>
_TEXT	ENDS
PUBLIC	??$_Destroy_range@V?$allocator@UBuffInfo@ioBuffCountSkill@@@std@@@std@@YAXPAUBuffInfo@ioBuffCountSkill@@0AAV?$allocator@UBuffInfo@ioBuffCountSkill@@@0@@Z ; std::_Destroy_range<std::allocator<ioBuffCountSkill::BuffInfo> >
; Function compile flags: /Ogsp
; File c:\program files (x86)\microsoft visual studio 10.0\vc\include\xmemory
;	COMDAT ??$_Destroy_range@V?$allocator@UBuffInfo@ioBuffCountSkill@@@std@@@std@@YAXPAUBuffInfo@ioBuffCountSkill@@0AAV?$allocator@UBuffInfo@ioBuffCountSkill@@@0@@Z
_TEXT	SEGMENT
__First$ = 8						; size = 4
__Last$ = 12						; size = 4
__Al$ = 16						; size = 4
??$_Destroy_range@V?$allocator@UBuffInfo@ioBuffCountSkill@@@std@@@std@@YAXPAUBuffInfo@ioBuffCountSkill@@0AAV?$allocator@UBuffInfo@ioBuffCountSkill@@@0@@Z PROC ; std::_Destroy_range<std::allocator<ioBuffCountSkill::BuffInfo> >, COMDAT

; 87   : 	{	// destroy [_First, _Last)

  00000	55		 push	 ebp
  00001	8b ec		 mov	 ebp, esp
  00003	56		 push	 esi

; 88   : 	_Destroy_range(_First, _Last, _Al, _Ptr_cat(_First, _Last));

  00004	8b 75 08	 mov	 esi, DWORD PTR __First$[ebp]
  00007	eb 0a		 jmp	 SHORT $LN28@Destroy_ra@4
$LL7@Destroy_ra@4:
  00009	8b ce		 mov	 ecx, esi
  0000b	e8 00 00 00 00	 call	 ?_Tidy@?$vector@VioHashString@@V?$allocator@VioHashString@@@std@@@std@@IAEXXZ ; std::vector<ioHashString,std::allocator<ioHashString> >::_Tidy
  00010	83 c6 14	 add	 esi, 20			; 00000014H
$LN28@Destroy_ra@4:
  00013	3b 75 0c	 cmp	 esi, DWORD PTR __Last$[ebp]
  00016	75 f1		 jne	 SHORT $LL7@Destroy_ra@4
  00018	5e		 pop	 esi

; 89   : 	}

  00019	5d		 pop	 ebp
  0001a	c3		 ret	 0
??$_Destroy_range@V?$allocator@UBuffInfo@ioBuffCountSkill@@@std@@@std@@YAXPAUBuffInfo@ioBuffCountSkill@@0AAV?$allocator@UBuffInfo@ioBuffCountSkill@@@0@@Z ENDP ; std::_Destroy_range<std::allocator<ioBuffCountSkill::BuffInfo> >
_TEXT	ENDS
PUBLIC	??$_Uninitialized_copy@V?$_Vector_const_iterator@V?$_Vector_val@UBuffInfo@ioBuffCountSkill@@V?$allocator@UBuffInfo@ioBuffCountSkill@@@std@@@std@@@std@@PAUBuffInfo@ioBuffCountSkill@@V?$allocator@UBuffInfo@ioBuffCountSkill@@@2@@std@@YAPAUBuffInfo@ioBuffCountSkill@@V?$_Vector_const_iterator@V?$_Vector_val@UBuffInfo@ioBuffCountSkill@@V?$allocator@UBuffInfo@ioBuffCountSkill@@@std@@@std@@@0@0PAU12@AAV?$allocator@UBuffInfo@ioBuffCountSkill@@@0@@Z ; std::_Uninitialized_copy<std::_Vector_const_iterator<std::_Vector_val<ioBuffCountSkill::BuffInfo,std::allocator<ioBuffCountSkill::BuffInfo> > >,ioBuffCountSkill::BuffInfo *,std::allocator<ioBuffCountSkill::BuffInfo> >
; Function compile flags: /Ogsp
; File c:\program files (x86)\microsoft visual studio 10.0\vc\include\memory
;	COMDAT ??$_Uninitialized_copy@V?$_Vector_const_iterator@V?$_Vector_val@UBuffInfo@ioBuffCountSkill@@V?$allocator@UBuffInfo@ioBuffCountSkill@@@std@@@std@@@std@@PAUBuffInfo@ioBuffCountSkill@@V?$allocator@UBuffInfo@ioBuffCountSkill@@@2@@std@@YAPAUBuffInfo@ioBuffCountSkill@@V?$_Vector_const_iterator@V?$_Vector_val@UBuffInfo@ioBuffCountSkill@@V?$allocator@UBuffInfo@ioBuffCountSkill@@@std@@@std@@@0@0PAU12@AAV?$allocator@UBuffInfo@ioBuffCountSkill@@@0@@Z
_TEXT	SEGMENT
__Cat$538713 = -4					; size = 1
__First$ = 8						; size = 4
__Last$ = 12						; size = 4
__Dest$ = 16						; size = 4
__Al$ = 20						; size = 4
??$_Uninitialized_copy@V?$_Vector_const_iterator@V?$_Vector_val@UBuffInfo@ioBuffCountSkill@@V?$allocator@UBuffInfo@ioBuffCountSkill@@@std@@@std@@@std@@PAUBuffInfo@ioBuffCountSkill@@V?$allocator@UBuffInfo@ioBuffCountSkill@@@2@@std@@YAPAUBuffInfo@ioBuffCountSkill@@V?$_Vector_const_iterator@V?$_Vector_val@UBuffInfo@ioBuffCountSkill@@V?$allocator@UBuffInfo@ioBuffCountSkill@@@std@@@std@@@0@0PAU12@AAV?$allocator@UBuffInfo@ioBuffCountSkill@@@0@@Z PROC ; std::_Uninitialized_copy<std::_Vector_const_iterator<std::_Vector_val<ioBuffCountSkill::BuffInfo,std::allocator<ioBuffCountSkill::BuffInfo> > >,ioBuffCountSkill::BuffInfo *,std::allocator<ioBuffCountSkill::BuffInfo> >, COMDAT

; 412  : 	{	// copy [_First, _Last) to raw _Dest, using _Al

  00000	55		 push	 ebp
  00001	8b ec		 mov	 ebp, esp
  00003	51		 push	 ecx

; 413  : 	return (_Uninit_copy(_First, _Last, _Dest, _Al,
; 414  : 		_Ptr_cat(_First, _Dest)));

  00004	ff 75 fc	 push	 DWORD PTR __Cat$538713[ebp]
  00007	ff 75 14	 push	 DWORD PTR __Al$[ebp]
  0000a	ff 75 10	 push	 DWORD PTR __Dest$[ebp]
  0000d	ff 75 0c	 push	 DWORD PTR __Last$[ebp]
  00010	ff 75 08	 push	 DWORD PTR __First$[ebp]
  00013	e8 00 00 00 00	 call	 ??$_Uninit_copy@V?$_Vector_const_iterator@V?$_Vector_val@UBuffInfo@ioBuffCountSkill@@V?$allocator@UBuffInfo@ioBuffCountSkill@@@std@@@std@@@std@@PAUBuffInfo@ioBuffCountSkill@@V?$allocator@UBuffInfo@ioBuffCountSkill@@@2@@std@@YAPAUBuffInfo@ioBuffCountSkill@@V?$_Vector_const_iterator@V?$_Vector_val@UBuffInfo@ioBuffCountSkill@@V?$allocator@UBuffInfo@ioBuffCountSkill@@@std@@@std@@@0@0PAU12@AAV?$allocator@UBuffInfo@ioBuffCountSkill@@@0@U_Nonscalar_ptr_iterator_tag@0@@Z ; std::_Uninit_copy<std::_Vector_const_iterator<std::_Vector_val<ioBuffCountSkill::BuffInfo,std::allocator<ioBuffCountSkill::BuffInfo> > >,ioBuffCountSkill::BuffInfo *,std::allocator<ioBuffCountSkill::BuffInfo> >
  00018	83 c4 14	 add	 esp, 20			; 00000014H

; 415  : 	}

  0001b	c9		 leave
  0001c	c3		 ret	 0
??$_Uninitialized_copy@V?$_Vector_const_iterator@V?$_Vector_val@UBuffInfo@ioBuffCountSkill@@V?$allocator@UBuffInfo@ioBuffCountSkill@@@std@@@std@@@std@@PAUBuffInfo@ioBuffCountSkill@@V?$allocator@UBuffInfo@ioBuffCountSkill@@@2@@std@@YAPAUBuffInfo@ioBuffCountSkill@@V?$_Vector_const_iterator@V?$_Vector_val@UBuffInfo@ioBuffCountSkill@@V?$allocator@UBuffInfo@ioBuffCountSkill@@@std@@@std@@@0@0PAU12@AAV?$allocator@UBuffInfo@ioBuffCountSkill@@@0@@Z ENDP ; std::_Uninitialized_copy<std::_Vector_const_iterator<std::_Vector_val<ioBuffCountSkill::BuffInfo,std::allocator<ioBuffCountSkill::BuffInfo> > >,ioBuffCountSkill::BuffInfo *,std::allocator<ioBuffCountSkill::BuffInfo> >
_TEXT	ENDS
PUBLIC	??$_Uninitialized_move@PAUBuffInfo@ioBuffCountSkill@@PAU12@V?$allocator@UBuffInfo@ioBuffCountSkill@@@std@@@std@@YAPAUBuffInfo@ioBuffCountSkill@@PAU12@00AAV?$allocator@UBuffInfo@ioBuffCountSkill@@@0@@Z ; std::_Uninitialized_move<ioBuffCountSkill::BuffInfo *,ioBuffCountSkill::BuffInfo *,std::allocator<ioBuffCountSkill::BuffInfo> >
; Function compile flags: /Ogsp
;	COMDAT ??$_Uninitialized_move@PAUBuffInfo@ioBuffCountSkill@@PAU12@V?$allocator@UBuffInfo@ioBuffCountSkill@@@std@@@std@@YAPAUBuffInfo@ioBuffCountSkill@@PAU12@00AAV?$allocator@UBuffInfo@ioBuffCountSkill@@@0@@Z
_TEXT	SEGMENT
__Cat$538720 = -4					; size = 1
__First$ = 8						; size = 4
__Last$ = 12						; size = 4
__Dest$ = 16						; size = 4
__Al$ = 20						; size = 4
??$_Uninitialized_move@PAUBuffInfo@ioBuffCountSkill@@PAU12@V?$allocator@UBuffInfo@ioBuffCountSkill@@@std@@@std@@YAPAUBuffInfo@ioBuffCountSkill@@PAU12@00AAV?$allocator@UBuffInfo@ioBuffCountSkill@@@0@@Z PROC ; std::_Uninitialized_move<ioBuffCountSkill::BuffInfo *,ioBuffCountSkill::BuffInfo *,std::allocator<ioBuffCountSkill::BuffInfo> >, COMDAT

; 469  : 	{	// move [_First, _Last) to raw _Dest, using _Al

  00000	55		 push	 ebp
  00001	8b ec		 mov	 ebp, esp
  00003	51		 push	 ecx

; 470  : 	return (_Uninit_move(_First, _Last, _Dest, _Al,
; 471  : 		_Val_type(_First), _Ptr_cat(_First, _Dest)));

  00004	ff 75 fc	 push	 DWORD PTR __Cat$538720[ebp]
  00007	6a 00		 push	 0
  00009	ff 75 14	 push	 DWORD PTR __Al$[ebp]
  0000c	ff 75 10	 push	 DWORD PTR __Dest$[ebp]
  0000f	ff 75 0c	 push	 DWORD PTR __Last$[ebp]
  00012	ff 75 08	 push	 DWORD PTR __First$[ebp]
  00015	e8 00 00 00 00	 call	 ??$_Uninit_move@PAUBuffInfo@ioBuffCountSkill@@PAU12@V?$allocator@UBuffInfo@ioBuffCountSkill@@@std@@U12@@std@@YAPAUBuffInfo@ioBuffCountSkill@@PAU12@00AAV?$allocator@UBuffInfo@ioBuffCountSkill@@@0@0U_Nonscalar_ptr_iterator_tag@0@@Z ; std::_Uninit_move<ioBuffCountSkill::BuffInfo *,ioBuffCountSkill::BuffInfo *,std::allocator<ioBuffCountSkill::BuffInfo>,ioBuffCountSkill::BuffInfo>
  0001a	83 c4 18	 add	 esp, 24			; 00000018H

; 472  : 	}

  0001d	c9		 leave
  0001e	c3		 ret	 0
??$_Uninitialized_move@PAUBuffInfo@ioBuffCountSkill@@PAU12@V?$allocator@UBuffInfo@ioBuffCountSkill@@@std@@@std@@YAPAUBuffInfo@ioBuffCountSkill@@PAU12@00AAV?$allocator@UBuffInfo@ioBuffCountSkill@@@0@@Z ENDP ; std::_Uninitialized_move<ioBuffCountSkill::BuffInfo *,ioBuffCountSkill::BuffInfo *,std::allocator<ioBuffCountSkill::BuffInfo> >
_TEXT	ENDS
PUBLIC	??$sort_heap@PAUBuffInfo@ioBuffCountSkill@@VBuffInfoSort@2@@std@@YAXPAUBuffInfo@ioBuffCountSkill@@0VBuffInfoSort@2@@Z ; std::sort_heap<ioBuffCountSkill::BuffInfo *,ioBuffCountSkill::BuffInfoSort>
; Function compile flags: /Ogsp
; File c:\program files (x86)\microsoft visual studio 10.0\vc\include\algorithm
;	COMDAT ??$sort_heap@PAUBuffInfo@ioBuffCountSkill@@VBuffInfoSort@2@@std@@YAXPAUBuffInfo@ioBuffCountSkill@@0VBuffInfoSort@2@@Z
_TEXT	SEGMENT
__First$ = 8						; size = 4
__Last$ = 12						; size = 4
__Pred$ = 16						; size = 1
??$sort_heap@PAUBuffInfo@ioBuffCountSkill@@VBuffInfoSort@2@@std@@YAXPAUBuffInfo@ioBuffCountSkill@@0VBuffInfoSort@2@@Z PROC ; std::sort_heap<ioBuffCountSkill::BuffInfo *,ioBuffCountSkill::BuffInfoSort>, COMDAT

; 2708 : 	{	// order heap by repeatedly popping, using _Pred

  00000	55		 push	 ebp
  00001	8b ec		 mov	 ebp, esp

; 2709 : 	_DEBUG_RANGE(_First, _Last);
; 2710 : 	_DEBUG_POINTER(_Pred);
; 2711 : 	_DEBUG_HEAP_PRED(_First, _Last, _Pred);
; 2712 : 	_Sort_heap(_Unchecked(_First), _Unchecked(_Last), _Pred);

  00003	ff 75 10	 push	 DWORD PTR __Pred$[ebp]
  00006	ff 75 0c	 push	 DWORD PTR __Last$[ebp]
  00009	ff 75 08	 push	 DWORD PTR __First$[ebp]
  0000c	e8 00 00 00 00	 call	 ??$_Sort_heap@PAUBuffInfo@ioBuffCountSkill@@VBuffInfoSort@2@@std@@YAXPAUBuffInfo@ioBuffCountSkill@@0VBuffInfoSort@2@@Z ; std::_Sort_heap<ioBuffCountSkill::BuffInfo *,ioBuffCountSkill::BuffInfoSort>
  00011	83 c4 0c	 add	 esp, 12			; 0000000cH

; 2713 : 	}

  00014	5d		 pop	 ebp
  00015	c3		 ret	 0
??$sort_heap@PAUBuffInfo@ioBuffCountSkill@@VBuffInfoSort@2@@std@@YAXPAUBuffInfo@ioBuffCountSkill@@0VBuffInfoSort@2@@Z ENDP ; std::sort_heap<ioBuffCountSkill::BuffInfo *,ioBuffCountSkill::BuffInfoSort>
_TEXT	ENDS
PUBLIC	?_Destroy@?$vector@UBuffInfo@ioBuffCountSkill@@V?$allocator@UBuffInfo@ioBuffCountSkill@@@std@@@std@@IAEXPAUBuffInfo@ioBuffCountSkill@@0@Z ; std::vector<ioBuffCountSkill::BuffInfo,std::allocator<ioBuffCountSkill::BuffInfo> >::_Destroy
; Function compile flags: /Ogsp
; File c:\program files (x86)\microsoft visual studio 10.0\vc\include\vector
;	COMDAT ?_Destroy@?$vector@UBuffInfo@ioBuffCountSkill@@V?$allocator@UBuffInfo@ioBuffCountSkill@@@std@@@std@@IAEXPAUBuffInfo@ioBuffCountSkill@@0@Z
_TEXT	SEGMENT
__First$ = 8						; size = 4
__Last$ = 12						; size = 4
?_Destroy@?$vector@UBuffInfo@ioBuffCountSkill@@V?$allocator@UBuffInfo@ioBuffCountSkill@@@std@@@std@@IAEXPAUBuffInfo@ioBuffCountSkill@@0@Z PROC ; std::vector<ioBuffCountSkill::BuffInfo,std::allocator<ioBuffCountSkill::BuffInfo> >::_Destroy, COMDAT
; _this$ = ecx

; 1269 : 		{	// destroy [_First, _Last) using allocator

  00000	55		 push	 ebp
  00001	8b ec		 mov	 ebp, esp
  00003	56		 push	 esi

; 1270 : 		_Destroy_range(_First, _Last, this->_Alval);

  00004	8b 75 08	 mov	 esi, DWORD PTR __First$[ebp]
  00007	eb 0a		 jmp	 SHORT $LN30@Destroy@2
$LL9@Destroy@2:
  00009	8b ce		 mov	 ecx, esi
  0000b	e8 00 00 00 00	 call	 ?_Tidy@?$vector@VioHashString@@V?$allocator@VioHashString@@@std@@@std@@IAEXXZ ; std::vector<ioHashString,std::allocator<ioHashString> >::_Tidy
  00010	83 c6 14	 add	 esi, 20			; 00000014H
$LN30@Destroy@2:
  00013	3b 75 0c	 cmp	 esi, DWORD PTR __Last$[ebp]
  00016	75 f1		 jne	 SHORT $LL9@Destroy@2
  00018	5e		 pop	 esi

; 1271 : 		}

  00019	5d		 pop	 ebp
  0001a	c2 08 00	 ret	 8
?_Destroy@?$vector@UBuffInfo@ioBuffCountSkill@@V?$allocator@UBuffInfo@ioBuffCountSkill@@@std@@@std@@IAEXPAUBuffInfo@ioBuffCountSkill@@0@Z ENDP ; std::vector<ioBuffCountSkill::BuffInfo,std::allocator<ioBuffCountSkill::BuffInfo> >::_Destroy
_TEXT	ENDS
PUBLIC	??$_Ucopy@V?$_Vector_const_iterator@V?$_Vector_val@UBuffInfo@ioBuffCountSkill@@V?$allocator@UBuffInfo@ioBuffCountSkill@@@std@@@std@@@std@@@?$vector@UBuffInfo@ioBuffCountSkill@@V?$allocator@UBuffInfo@ioBuffCountSkill@@@std@@@std@@IAEPAUBuffInfo@ioBuffCountSkill@@V?$_Vector_const_iterator@V?$_Vector_val@UBuffInfo@ioBuffCountSkill@@V?$allocator@UBuffInfo@ioBuffCountSkill@@@std@@@std@@@1@0PAU23@@Z ; std::vector<ioBuffCountSkill::BuffInfo,std::allocator<ioBuffCountSkill::BuffInfo> >::_Ucopy<std::_Vector_const_iterator<std::_Vector_val<ioBuffCountSkill::BuffInfo,std::allocator<ioBuffCountSkill::BuffInfo> > > >
; Function compile flags: /Ogsp
;	COMDAT ??$_Ucopy@V?$_Vector_const_iterator@V?$_Vector_val@UBuffInfo@ioBuffCountSkill@@V?$allocator@UBuffInfo@ioBuffCountSkill@@@std@@@std@@@std@@@?$vector@UBuffInfo@ioBuffCountSkill@@V?$allocator@UBuffInfo@ioBuffCountSkill@@@std@@@std@@IAEPAUBuffInfo@ioBuffCountSkill@@V?$_Vector_const_iterator@V?$_Vector_val@UBuffInfo@ioBuffCountSkill@@V?$allocator@UBuffInfo@ioBuffCountSkill@@@std@@@std@@@1@0PAU23@@Z
_TEXT	SEGMENT
__First$ = 8						; size = 4
__Last$ = 12						; size = 4
__Cat$538870 = 16					; size = 1
__Ptr$ = 16						; size = 4
??$_Ucopy@V?$_Vector_const_iterator@V?$_Vector_val@UBuffInfo@ioBuffCountSkill@@V?$allocator@UBuffInfo@ioBuffCountSkill@@@std@@@std@@@std@@@?$vector@UBuffInfo@ioBuffCountSkill@@V?$allocator@UBuffInfo@ioBuffCountSkill@@@std@@@std@@IAEPAUBuffInfo@ioBuffCountSkill@@V?$_Vector_const_iterator@V?$_Vector_val@UBuffInfo@ioBuffCountSkill@@V?$allocator@UBuffInfo@ioBuffCountSkill@@@std@@@std@@@1@0PAU23@@Z PROC ; std::vector<ioBuffCountSkill::BuffInfo,std::allocator<ioBuffCountSkill::BuffInfo> >::_Ucopy<std::_Vector_const_iterator<std::_Vector_val<ioBuffCountSkill::BuffInfo,std::allocator<ioBuffCountSkill::BuffInfo> > > >, COMDAT
; _this$ = ecx

; 1315 : 		pointer _Ucopy(_Iter _First, _Iter _Last, pointer _Ptr)

  00000	55		 push	 ebp
  00001	8b ec		 mov	 ebp, esp

; 1316 : 		{	// copy initializing [_First, _Last), using allocator
; 1317 : 		return (_Uninitialized_copy(_First, _Last,
; 1318 : 			_Ptr, this->_Alval));

  00003	ff 75 10	 push	 DWORD PTR __Cat$538870[ebp]
  00006	83 c1 0c	 add	 ecx, 12			; 0000000cH
  00009	51		 push	 ecx
  0000a	ff 75 10	 push	 DWORD PTR __Ptr$[ebp]
  0000d	ff 75 0c	 push	 DWORD PTR __Last$[ebp]
  00010	ff 75 08	 push	 DWORD PTR __First$[ebp]
  00013	e8 00 00 00 00	 call	 ??$_Uninit_copy@V?$_Vector_const_iterator@V?$_Vector_val@UBuffInfo@ioBuffCountSkill@@V?$allocator@UBuffInfo@ioBuffCountSkill@@@std@@@std@@@std@@PAUBuffInfo@ioBuffCountSkill@@V?$allocator@UBuffInfo@ioBuffCountSkill@@@2@@std@@YAPAUBuffInfo@ioBuffCountSkill@@V?$_Vector_const_iterator@V?$_Vector_val@UBuffInfo@ioBuffCountSkill@@V?$allocator@UBuffInfo@ioBuffCountSkill@@@std@@@std@@@0@0PAU12@AAV?$allocator@UBuffInfo@ioBuffCountSkill@@@0@U_Nonscalar_ptr_iterator_tag@0@@Z ; std::_Uninit_copy<std::_Vector_const_iterator<std::_Vector_val<ioBuffCountSkill::BuffInfo,std::allocator<ioBuffCountSkill::BuffInfo> > >,ioBuffCountSkill::BuffInfo *,std::allocator<ioBuffCountSkill::BuffInfo> >
  00018	83 c4 14	 add	 esp, 20			; 00000014H

; 1319 : 		}

  0001b	5d		 pop	 ebp
  0001c	c2 0c 00	 ret	 12			; 0000000cH
??$_Ucopy@V?$_Vector_const_iterator@V?$_Vector_val@UBuffInfo@ioBuffCountSkill@@V?$allocator@UBuffInfo@ioBuffCountSkill@@@std@@@std@@@std@@@?$vector@UBuffInfo@ioBuffCountSkill@@V?$allocator@UBuffInfo@ioBuffCountSkill@@@std@@@std@@IAEPAUBuffInfo@ioBuffCountSkill@@V?$_Vector_const_iterator@V?$_Vector_val@UBuffInfo@ioBuffCountSkill@@V?$allocator@UBuffInfo@ioBuffCountSkill@@@std@@@std@@@1@0PAU23@@Z ENDP ; std::vector<ioBuffCountSkill::BuffInfo,std::allocator<ioBuffCountSkill::BuffInfo> >::_Ucopy<std::_Vector_const_iterator<std::_Vector_val<ioBuffCountSkill::BuffInfo,std::allocator<ioBuffCountSkill::BuffInfo> > > >
_TEXT	ENDS
PUBLIC	??$_Umove@PAUBuffInfo@ioBuffCountSkill@@@?$vector@UBuffInfo@ioBuffCountSkill@@V?$allocator@UBuffInfo@ioBuffCountSkill@@@std@@@std@@IAEPAUBuffInfo@ioBuffCountSkill@@PAU23@00@Z ; std::vector<ioBuffCountSkill::BuffInfo,std::allocator<ioBuffCountSkill::BuffInfo> >::_Umove<ioBuffCountSkill::BuffInfo *>
; Function compile flags: /Ogsp
;	COMDAT ??$_Umove@PAUBuffInfo@ioBuffCountSkill@@@?$vector@UBuffInfo@ioBuffCountSkill@@V?$allocator@UBuffInfo@ioBuffCountSkill@@@std@@@std@@IAEPAUBuffInfo@ioBuffCountSkill@@PAU23@00@Z
_TEXT	SEGMENT
__First$ = 8						; size = 4
__Last$ = 12						; size = 4
__Ptr$ = 16						; size = 4
??$_Umove@PAUBuffInfo@ioBuffCountSkill@@@?$vector@UBuffInfo@ioBuffCountSkill@@V?$allocator@UBuffInfo@ioBuffCountSkill@@@std@@@std@@IAEPAUBuffInfo@ioBuffCountSkill@@PAU23@00@Z PROC ; std::vector<ioBuffCountSkill::BuffInfo,std::allocator<ioBuffCountSkill::BuffInfo> >::_Umove<ioBuffCountSkill::BuffInfo *>, COMDAT
; _this$ = ecx

; 1322 : 		pointer _Umove(_Iter _First, _Iter _Last, pointer _Ptr)

  00000	55		 push	 ebp
  00001	8b ec		 mov	 ebp, esp

; 1323 : 		{	// move initializing [_First, _Last), using allocator
; 1324 : 		return (_Uninitialized_move(_First, _Last,
; 1325 : 			_Ptr, this->_Alval));

  00003	83 c1 0c	 add	 ecx, 12			; 0000000cH
  00006	51		 push	 ecx
  00007	ff 75 10	 push	 DWORD PTR __Ptr$[ebp]
  0000a	ff 75 0c	 push	 DWORD PTR __Last$[ebp]
  0000d	ff 75 08	 push	 DWORD PTR __First$[ebp]
  00010	e8 00 00 00 00	 call	 ??$_Uninitialized_move@PAUBuffInfo@ioBuffCountSkill@@PAU12@V?$allocator@UBuffInfo@ioBuffCountSkill@@@std@@@std@@YAPAUBuffInfo@ioBuffCountSkill@@PAU12@00AAV?$allocator@UBuffInfo@ioBuffCountSkill@@@0@@Z ; std::_Uninitialized_move<ioBuffCountSkill::BuffInfo *,ioBuffCountSkill::BuffInfo *,std::allocator<ioBuffCountSkill::BuffInfo> >
  00015	83 c4 10	 add	 esp, 16			; 00000010H

; 1326 : 		}

  00018	5d		 pop	 ebp
  00019	c2 0c 00	 ret	 12			; 0000000cH
??$_Umove@PAUBuffInfo@ioBuffCountSkill@@@?$vector@UBuffInfo@ioBuffCountSkill@@V?$allocator@UBuffInfo@ioBuffCountSkill@@@std@@@std@@IAEPAUBuffInfo@ioBuffCountSkill@@PAU23@00@Z ENDP ; std::vector<ioBuffCountSkill::BuffInfo,std::allocator<ioBuffCountSkill::BuffInfo> >::_Umove<ioBuffCountSkill::BuffInfo *>
_TEXT	ENDS
PUBLIC	??$_Sort@PAUBuffInfo@ioBuffCountSkill@@HVBuffInfoSort@2@@std@@YAXPAUBuffInfo@ioBuffCountSkill@@0HVBuffInfoSort@2@@Z ; std::_Sort<ioBuffCountSkill::BuffInfo *,int,ioBuffCountSkill::BuffInfoSort>
; Function compile flags: /Ogsp
; File c:\program files (x86)\microsoft visual studio 10.0\vc\include\algorithm
;	COMDAT ??$_Sort@PAUBuffInfo@ioBuffCountSkill@@HVBuffInfoSort@2@@std@@YAXPAUBuffInfo@ioBuffCountSkill@@0HVBuffInfoSort@2@@Z
_TEXT	SEGMENT
__Mid$533203 = -8					; size = 8
__First$ = 8						; size = 4
__Last$ = 12						; size = 4
__Ideal$ = 16						; size = 4
__Pred$ = 20						; size = 1
??$_Sort@PAUBuffInfo@ioBuffCountSkill@@HVBuffInfoSort@2@@std@@YAXPAUBuffInfo@ioBuffCountSkill@@0HVBuffInfoSort@2@@Z PROC ; std::_Sort<ioBuffCountSkill::BuffInfo *,int,ioBuffCountSkill::BuffInfoSort>, COMDAT

; 3771 : 	{	// order [_First, _Last), using _Pred

  00000	55		 push	 ebp
  00001	8b ec		 mov	 ebp, esp
  00003	51		 push	 ecx
  00004	51		 push	 ecx
  00005	53		 push	 ebx

; 3772 : 	_Diff _Count;
; 3773 : 	for (; _ISORT_MAX < (_Count = _Last - _First) && 0 < _Ideal; )

  00006	8b 5d 08	 mov	 ebx, DWORD PTR __First$[ebp]
  00009	57		 push	 edi
  0000a	8b 7d 0c	 mov	 edi, DWORD PTR __Last$[ebp]
  0000d	8b c7		 mov	 eax, edi
  0000f	2b c3		 sub	 eax, ebx
  00011	6a 14		 push	 20			; 00000014H
  00013	99		 cdq
  00014	59		 pop	 ecx
  00015	f7 f9		 idiv	 ecx
  00017	83 f8 20	 cmp	 eax, 32			; 00000020H
  0001a	0f 8e 9c 00 00
	00		 jle	 $LN22@Sort
  00020	56		 push	 esi
  00021	8b 75 10	 mov	 esi, DWORD PTR __Ideal$[ebp]
$LL7@Sort:
  00024	85 f6		 test	 esi, esi
  00026	7e 75		 jle	 SHORT $LN6@Sort

; 3774 : 		{	// divide and conquer by quicksort
; 3775 : 		_STD pair<_RanIt, _RanIt> _Mid =
; 3776 : 			_Unguarded_partition(_First, _Last, _Pred);

  00028	ff 75 14	 push	 DWORD PTR __Pred$[ebp]
  0002b	8d 45 f8	 lea	 eax, DWORD PTR __Mid$533203[ebp]
  0002e	57		 push	 edi
  0002f	53		 push	 ebx
  00030	50		 push	 eax
  00031	e8 00 00 00 00	 call	 ??$_Unguarded_partition@PAUBuffInfo@ioBuffCountSkill@@VBuffInfoSort@2@@std@@YA?AU?$pair@PAUBuffInfo@ioBuffCountSkill@@PAU12@@0@PAUBuffInfo@ioBuffCountSkill@@0VBuffInfoSort@3@@Z ; std::_Unguarded_partition<ioBuffCountSkill::BuffInfo *,ioBuffCountSkill::BuffInfoSort>

; 3777 : 		_Ideal /= 2, _Ideal += _Ideal / 2;	// allow 1.5 log2(N) divisions

  00036	8b c6		 mov	 eax, esi
  00038	99		 cdq
  00039	2b c2		 sub	 eax, edx
  0003b	d1 f8		 sar	 eax, 1
  0003d	8b f0		 mov	 esi, eax
  0003f	99		 cdq
  00040	2b c2		 sub	 eax, edx
  00042	d1 f8		 sar	 eax, 1
  00044	03 f0		 add	 esi, eax
  00046	83 c4 10	 add	 esp, 16			; 00000010H

; 3778 : 
; 3779 : 		if (_Mid.first - _First < _Last - _Mid.second)

  00049	8b c7		 mov	 eax, edi
  0004b	2b 45 fc	 sub	 eax, DWORD PTR __Mid$533203[ebp+4]
  0004e	6a 14		 push	 20			; 00000014H
  00050	99		 cdq
  00051	59		 pop	 ecx
  00052	f7 f9		 idiv	 ecx
  00054	6a 14		 push	 20			; 00000014H
  00056	8b c8		 mov	 ecx, eax
  00058	8b 45 f8	 mov	 eax, DWORD PTR __Mid$533203[ebp]
  0005b	2b c3		 sub	 eax, ebx
  0005d	5b		 pop	 ebx
  0005e	99		 cdq
  0005f	f7 fb		 idiv	 ebx

; 3780 : 			{	// loop on second half
; 3781 : 			_Sort(_First, _Mid.first, _Ideal, _Pred);

  00061	ff 75 14	 push	 DWORD PTR __Pred$[ebp]
  00064	56		 push	 esi
  00065	3b c1		 cmp	 eax, ecx
  00067	7d 13		 jge	 SHORT $LN5@Sort
  00069	ff 75 f8	 push	 DWORD PTR __Mid$533203[ebp]
  0006c	ff 75 08	 push	 DWORD PTR __First$[ebp]
  0006f	e8 00 00 00 00	 call	 ??$_Sort@PAUBuffInfo@ioBuffCountSkill@@HVBuffInfoSort@2@@std@@YAXPAUBuffInfo@ioBuffCountSkill@@0HVBuffInfoSort@2@@Z ; std::_Sort<ioBuffCountSkill::BuffInfo *,int,ioBuffCountSkill::BuffInfoSort>

; 3782 : 			_First = _Mid.second;

  00074	8b 5d fc	 mov	 ebx, DWORD PTR __Mid$533203[ebp+4]
  00077	89 5d 08	 mov	 DWORD PTR __First$[ebp], ebx

; 3783 : 			}
; 3784 : 		else

  0007a	eb 0f		 jmp	 SHORT $LN23@Sort
$LN5@Sort:

; 3785 : 			{	// loop on first half
; 3786 : 			_Sort(_Mid.second, _Last, _Ideal, _Pred);

  0007c	57		 push	 edi
  0007d	ff 75 fc	 push	 DWORD PTR __Mid$533203[ebp+4]
  00080	e8 00 00 00 00	 call	 ??$_Sort@PAUBuffInfo@ioBuffCountSkill@@HVBuffInfoSort@2@@std@@YAXPAUBuffInfo@ioBuffCountSkill@@0HVBuffInfoSort@2@@Z ; std::_Sort<ioBuffCountSkill::BuffInfo *,int,ioBuffCountSkill::BuffInfoSort>

; 3787 : 			_Last = _Mid.first;

  00085	8b 7d f8	 mov	 edi, DWORD PTR __Mid$533203[ebp]
  00088	8b 5d 08	 mov	 ebx, DWORD PTR __First$[ebp]
$LN23@Sort:

; 3772 : 	_Diff _Count;
; 3773 : 	for (; _ISORT_MAX < (_Count = _Last - _First) && 0 < _Ideal; )

  0008b	83 c4 10	 add	 esp, 16			; 00000010H
  0008e	8b c7		 mov	 eax, edi
  00090	2b c3		 sub	 eax, ebx
  00092	6a 14		 push	 20			; 00000014H
  00094	99		 cdq
  00095	59		 pop	 ecx
  00096	f7 f9		 idiv	 ecx
  00098	83 f8 20	 cmp	 eax, 32			; 00000020H
  0009b	7f 87		 jg	 SHORT $LL7@Sort
$LN6@Sort:
  0009d	5e		 pop	 esi

; 3788 : 			}
; 3789 : 		}
; 3790 : 
; 3791 : 	if (_ISORT_MAX < _Count)

  0009e	83 f8 20	 cmp	 eax, 32			; 00000020H
  000a1	7e 19		 jle	 SHORT $LN22@Sort

; 3792 : 		{	// heap sort if too many divisions
; 3793 : 		_STD make_heap(_First, _Last, _Pred);

  000a3	ff 75 14	 push	 DWORD PTR __Pred$[ebp]
  000a6	57		 push	 edi
  000a7	53		 push	 ebx
  000a8	e8 00 00 00 00	 call	 ??$make_heap@PAUBuffInfo@ioBuffCountSkill@@VBuffInfoSort@2@@std@@YAXPAUBuffInfo@ioBuffCountSkill@@0VBuffInfoSort@2@@Z ; std::make_heap<ioBuffCountSkill::BuffInfo *,ioBuffCountSkill::BuffInfoSort>

; 3794 : 		_STD sort_heap(_First, _Last, _Pred);

  000ad	ff 75 14	 push	 DWORD PTR __Pred$[ebp]
  000b0	57		 push	 edi
  000b1	53		 push	 ebx
  000b2	e8 00 00 00 00	 call	 ??$_Sort_heap@PAUBuffInfo@ioBuffCountSkill@@VBuffInfoSort@2@@std@@YAXPAUBuffInfo@ioBuffCountSkill@@0VBuffInfoSort@2@@Z ; std::_Sort_heap<ioBuffCountSkill::BuffInfo *,ioBuffCountSkill::BuffInfoSort>
  000b7	83 c4 18	 add	 esp, 24			; 00000018H
  000ba	eb 14		 jmp	 SHORT $LN16@Sort
$LN22@Sort:

; 3795 : 		}
; 3796 : 	else if (1 < _Count)

  000bc	83 f8 01	 cmp	 eax, 1
  000bf	7e 0f		 jle	 SHORT $LN16@Sort

; 3797 : 		_Insertion_sort(_First, _Last, _Pred);	// small

  000c1	6a 00		 push	 0
  000c3	ff 75 14	 push	 DWORD PTR __Pred$[ebp]
  000c6	57		 push	 edi
  000c7	53		 push	 ebx
  000c8	e8 00 00 00 00	 call	 ??$_Insertion_sort1@PAUBuffInfo@ioBuffCountSkill@@VBuffInfoSort@2@U12@@std@@YAXPAUBuffInfo@ioBuffCountSkill@@0VBuffInfoSort@2@0@Z ; std::_Insertion_sort1<ioBuffCountSkill::BuffInfo *,ioBuffCountSkill::BuffInfoSort,ioBuffCountSkill::BuffInfo>
  000cd	83 c4 10	 add	 esp, 16			; 00000010H
$LN16@Sort:
  000d0	5f		 pop	 edi
  000d1	5b		 pop	 ebx

; 3798 : 	}

  000d2	c9		 leave
  000d3	c3		 ret	 0
??$_Sort@PAUBuffInfo@ioBuffCountSkill@@HVBuffInfoSort@2@@std@@YAXPAUBuffInfo@ioBuffCountSkill@@0HVBuffInfoSort@2@@Z ENDP ; std::_Sort<ioBuffCountSkill::BuffInfo *,int,ioBuffCountSkill::BuffInfoSort>
_TEXT	ENDS
PUBLIC	?_Tidy@?$vector@UBuffInfo@ioBuffCountSkill@@V?$allocator@UBuffInfo@ioBuffCountSkill@@@std@@@std@@IAEXXZ ; std::vector<ioBuffCountSkill::BuffInfo,std::allocator<ioBuffCountSkill::BuffInfo> >::_Tidy
; Function compile flags: /Ogsp
; File c:\program files (x86)\microsoft visual studio 10.0\vc\include\vector
;	COMDAT ?_Tidy@?$vector@UBuffInfo@ioBuffCountSkill@@V?$allocator@UBuffInfo@ioBuffCountSkill@@@std@@@std@@IAEXXZ
_TEXT	SEGMENT
?_Tidy@?$vector@UBuffInfo@ioBuffCountSkill@@V?$allocator@UBuffInfo@ioBuffCountSkill@@@std@@@std@@IAEXXZ PROC ; std::vector<ioBuffCountSkill::BuffInfo,std::allocator<ioBuffCountSkill::BuffInfo> >::_Tidy, COMDAT
; _this$ = ecx

; 1301 : 		{	// free all storage

  00000	56		 push	 esi
  00001	8b f1		 mov	 esi, ecx

; 1302 : 		if (this->_Myfirst != 0)

  00003	83 3e 00	 cmp	 DWORD PTR [esi], 0
  00006	74 27		 je	 SHORT $LN31@Tidy@2

; 1303 : 			{	// something to free, destroy and deallocate it
; 1304 : 			this->_Orphan_all();

  00008	53		 push	 ebx
  00009	57		 push	 edi
  0000a	ff 15 00 00 00
	00		 call	 DWORD PTR __imp_?_Orphan_all@_Container_base0@std@@QAEXXZ

; 1305 : 			_Destroy(this->_Myfirst, this->_Mylast);

  00010	8b 5e 04	 mov	 ebx, DWORD PTR [esi+4]
  00013	8b 3e		 mov	 edi, DWORD PTR [esi]
  00015	eb 0a		 jmp	 SHORT $LN35@Tidy@2
$LL12@Tidy@2:
  00017	8b cf		 mov	 ecx, edi
  00019	e8 00 00 00 00	 call	 ?_Tidy@?$vector@VioHashString@@V?$allocator@VioHashString@@@std@@@std@@IAEXXZ ; std::vector<ioHashString,std::allocator<ioHashString> >::_Tidy
  0001e	83 c7 14	 add	 edi, 20			; 00000014H
$LN35@Tidy@2:
  00021	3b fb		 cmp	 edi, ebx
  00023	75 f2		 jne	 SHORT $LL12@Tidy@2

; 1306 : 			this->_Alval.deallocate(this->_Myfirst,
; 1307 : 				this->_Myend - this->_Myfirst);

  00025	ff 36		 push	 DWORD PTR [esi]
  00027	e8 00 00 00 00	 call	 ??3@YAXPAX@Z		; operator delete
  0002c	59		 pop	 ecx
  0002d	5f		 pop	 edi
  0002e	5b		 pop	 ebx
$LN31@Tidy@2:

; 1308 : 			}
; 1309 : 		this->_Myfirst = 0;

  0002f	33 c0		 xor	 eax, eax
  00031	89 06		 mov	 DWORD PTR [esi], eax

; 1310 : 		this->_Mylast = 0;

  00033	89 46 04	 mov	 DWORD PTR [esi+4], eax

; 1311 : 		this->_Myend = 0;

  00036	89 46 08	 mov	 DWORD PTR [esi+8], eax
  00039	5e		 pop	 esi

; 1312 : 		}

  0003a	c3		 ret	 0
?_Tidy@?$vector@UBuffInfo@ioBuffCountSkill@@V?$allocator@UBuffInfo@ioBuffCountSkill@@@std@@@std@@IAEXXZ ENDP ; std::vector<ioBuffCountSkill::BuffInfo,std::allocator<ioBuffCountSkill::BuffInfo> >::_Tidy
_TEXT	ENDS
PUBLIC	?reserve@?$vector@UBuffInfo@ioBuffCountSkill@@V?$allocator@UBuffInfo@ioBuffCountSkill@@@std@@@std@@QAEXI@Z ; std::vector<ioBuffCountSkill::BuffInfo,std::allocator<ioBuffCountSkill::BuffInfo> >::reserve
;	COMDAT xdata$x
; File c:\program files (x86)\microsoft visual studio 10.0\vc\include\xmemory
xdata$x	SEGMENT
__catchsym$?reserve@?$vector@UBuffInfo@ioBuffCountSkill@@V?$allocator@UBuffInfo@ioBuffCountSkill@@@std@@@std@@QAEXI@Z$3 DD 040H
	DD	00H
	DD	00H
	DD	FLAT:__catch$?reserve@?$vector@UBuffInfo@ioBuffCountSkill@@V?$allocator@UBuffInfo@ioBuffCountSkill@@@std@@@std@@QAEXI@Z$0
__unwindtable$?reserve@?$vector@UBuffInfo@ioBuffCountSkill@@V?$allocator@UBuffInfo@ioBuffCountSkill@@@std@@@std@@QAEXI@Z DD 0ffffffffH
	DD	00H
	DD	0ffffffffH
	DD	00H
__tryblocktable$?reserve@?$vector@UBuffInfo@ioBuffCountSkill@@V?$allocator@UBuffInfo@ioBuffCountSkill@@@std@@@std@@QAEXI@Z DD 00H
	DD	00H
	DD	01H
	DD	01H
	DD	FLAT:__catchsym$?reserve@?$vector@UBuffInfo@ioBuffCountSkill@@V?$allocator@UBuffInfo@ioBuffCountSkill@@@std@@@std@@QAEXI@Z$3
__ehfuncinfo$?reserve@?$vector@UBuffInfo@ioBuffCountSkill@@V?$allocator@UBuffInfo@ioBuffCountSkill@@@std@@@std@@QAEXI@Z DD 019930522H
	DD	02H
	DD	FLAT:__unwindtable$?reserve@?$vector@UBuffInfo@ioBuffCountSkill@@V?$allocator@UBuffInfo@ioBuffCountSkill@@@std@@@std@@QAEXI@Z
	DD	01H
	DD	FLAT:__tryblocktable$?reserve@?$vector@UBuffInfo@ioBuffCountSkill@@V?$allocator@UBuffInfo@ioBuffCountSkill@@@std@@@std@@QAEXI@Z
	DD	2 DUP(00H)
	DD	00H
	DD	01H
; Function compile flags: /Ogsp
; File c:\program files (x86)\microsoft visual studio 10.0\vc\include\vector
xdata$x	ENDS
;	COMDAT ?reserve@?$vector@UBuffInfo@ioBuffCountSkill@@V?$allocator@UBuffInfo@ioBuffCountSkill@@@std@@@std@@QAEXI@Z
_TEXT	SEGMENT
__Ptr$532171 = -24					; size = 4
$T539207 = -20						; size = 4
__$EHRec$ = -16						; size = 16
__Count$ = 8						; size = 4
?reserve@?$vector@UBuffInfo@ioBuffCountSkill@@V?$allocator@UBuffInfo@ioBuffCountSkill@@@std@@@std@@QAEXI@Z PROC ; std::vector<ioBuffCountSkill::BuffInfo,std::allocator<ioBuffCountSkill::BuffInfo> >::reserve, COMDAT
; _this$ = ecx

; 746  : 		{	// determine new minimum length of allocated storage

  00000	6a 0c		 push	 12			; 0000000cH
  00002	b8 00 00 00 00	 mov	 eax, __ehhandler$?reserve@?$vector@UBuffInfo@ioBuffCountSkill@@V?$allocator@UBuffInfo@ioBuffCountSkill@@@std@@@std@@QAEXI@Z
  00007	e8 00 00 00 00	 call	 __EH_prolog3_catch
  0000c	8b f1		 mov	 esi, ecx

; 747  : 		if (max_size() < _Count)

  0000e	81 7d 08 cc cc
	cc 0c		 cmp	 DWORD PTR __Count$[ebp], 214748364 ; 0cccccccH
  00015	76 0b		 jbe	 SHORT $LN5@reserve@2

; 748  : 			_Xlen();	// result too long

  00017	68 00 00 00 00	 push	 OFFSET ??_C@_0BD@OLBABOEK@vector?$DMT?$DO?5too?5long?$AA@
  0001c	ff 15 00 00 00
	00		 call	 DWORD PTR __imp_?_Xlength_error@std@@YAXPBD@Z
$LN66@reserve@2:
$LN5@reserve@2:

; 749  : 		else if (capacity() < _Count)

  00022	8b 46 08	 mov	 eax, DWORD PTR [esi+8]
  00025	2b 06		 sub	 eax, DWORD PTR [esi]
  00027	6a 14		 push	 20			; 00000014H
  00029	99		 cdq
  0002a	59		 pop	 ecx
  0002b	f7 f9		 idiv	 ecx
  0002d	3b 45 08	 cmp	 eax, DWORD PTR __Count$[ebp]
  00030	0f 83 80 00 00
	00		 jae	 $LN3@reserve@2

; 750  : 			{	// not enough room, reallocate
; 751  : 			pointer _Ptr = this->_Alval.allocate(_Count);

  00036	6a 00		 push	 0
  00038	ff 75 08	 push	 DWORD PTR __Count$[ebp]
  0003b	e8 00 00 00 00	 call	 ??$_Allocate@UBuffInfo@ioBuffCountSkill@@@std@@YAPAUBuffInfo@ioBuffCountSkill@@IPAU12@@Z ; std::_Allocate<ioBuffCountSkill::BuffInfo>

; 752  : 
; 753  : 			_TRY_BEGIN
; 754  : 			_Umove(this->_Myfirst, this->_Mylast, _Ptr);

  00040	8b 0e		 mov	 ecx, DWORD PTR [esi]
  00042	83 65 fc 00	 and	 DWORD PTR __$EHRec$[ebp+12], 0
  00046	8d 56 0c	 lea	 edx, DWORD PTR [esi+12]
  00049	52		 push	 edx
  0004a	89 45 e8	 mov	 DWORD PTR __Ptr$532171[ebp], eax
  0004d	ff 75 e8	 push	 DWORD PTR __Ptr$532171[ebp]
  00050	8b 46 04	 mov	 eax, DWORD PTR [esi+4]
  00053	50		 push	 eax
  00054	51		 push	 ecx
  00055	e8 00 00 00 00	 call	 ??$_Uninitialized_move@PAUBuffInfo@ioBuffCountSkill@@PAU12@V?$allocator@UBuffInfo@ioBuffCountSkill@@@std@@@std@@YAPAUBuffInfo@ioBuffCountSkill@@PAU12@00AAV?$allocator@UBuffInfo@ioBuffCountSkill@@@0@@Z ; std::_Uninitialized_move<ioBuffCountSkill::BuffInfo *,ioBuffCountSkill::BuffInfo *,std::allocator<ioBuffCountSkill::BuffInfo> >

; 758  : 			_CATCH_END
; 759  : 
; 760  : 			size_type _Size = size();

  0005a	8b 5e 04	 mov	 ebx, DWORD PTR [esi+4]
  0005d	8b 0e		 mov	 ecx, DWORD PTR [esi]
  0005f	83 c4 18	 add	 esp, 24			; 00000018H
  00062	8b c3		 mov	 eax, ebx
  00064	2b c1		 sub	 eax, ecx
  00066	6a 14		 push	 20			; 00000014H
  00068	99		 cdq
  00069	5f		 pop	 edi
  0006a	f7 ff		 idiv	 edi
  0006c	83 4d fc ff	 or	 DWORD PTR __$EHRec$[ebp+12], -1
  00070	8b f8		 mov	 edi, eax
  00072	85 c9		 test	 ecx, ecx
  00074	74 20		 je	 SHORT $LN58@reserve@2

; 761  : 			if (this->_Myfirst != 0)
; 762  : 				{	// destroy and deallocate old array
; 763  : 				_Destroy(this->_Myfirst, this->_Mylast);

  00076	89 4d ec	 mov	 DWORD PTR $T539207[ebp], ecx
  00079	3b cb		 cmp	 ecx, ebx
  0007b	74 11		 je	 SHORT $LN37@reserve@2
$LN39@reserve@2:
  0007d	8b 4d ec	 mov	 ecx, DWORD PTR $T539207[ebp]
  00080	e8 00 00 00 00	 call	 ?_Tidy@?$vector@VioHashString@@V?$allocator@VioHashString@@@std@@@std@@IAEXXZ ; std::vector<ioHashString,std::allocator<ioHashString> >::_Tidy
  00085	83 45 ec 14	 add	 DWORD PTR $T539207[ebp], 20 ; 00000014H
  00089	39 5d ec	 cmp	 DWORD PTR $T539207[ebp], ebx
  0008c	75 ef		 jne	 SHORT $LN39@reserve@2
$LN37@reserve@2:

; 764  : 				this->_Alval.deallocate(this->_Myfirst,
; 765  : 					this->_Myend - this->_Myfirst);

  0008e	ff 36		 push	 DWORD PTR [esi]
  00090	e8 00 00 00 00	 call	 ??3@YAXPAX@Z		; operator delete
  00095	59		 pop	 ecx
$LN58@reserve@2:

; 766  : 				}
; 767  : 
; 768  : 			this->_Orphan_all();

  00096	8b ce		 mov	 ecx, esi
  00098	ff 15 00 00 00
	00		 call	 DWORD PTR __imp_?_Orphan_all@_Container_base0@std@@QAEXXZ

; 769  : 			this->_Myend = _Ptr + _Count;
; 770  : 			this->_Mylast = _Ptr + _Size;

  0009e	6b ff 14	 imul	 edi, 20			; 00000014H
  000a1	8b 45 08	 mov	 eax, DWORD PTR __Count$[ebp]
  000a4	8b 4d e8	 mov	 ecx, DWORD PTR __Ptr$532171[ebp]
  000a7	6b c0 14	 imul	 eax, 20			; 00000014H
  000aa	03 c1		 add	 eax, ecx
  000ac	03 f9		 add	 edi, ecx
  000ae	89 46 08	 mov	 DWORD PTR [esi+8], eax
  000b1	89 7e 04	 mov	 DWORD PTR [esi+4], edi

; 771  : 			this->_Myfirst = _Ptr;

  000b4	89 0e		 mov	 DWORD PTR [esi], ecx
$LN3@reserve@2:

; 772  : 			}
; 773  : 		}

  000b6	e8 00 00 00 00	 call	 __EH_epilog3
  000bb	c2 04 00	 ret	 4
__catch$?reserve@?$vector@UBuffInfo@ioBuffCountSkill@@V?$allocator@UBuffInfo@ioBuffCountSkill@@@std@@@std@@QAEXI@Z$0:

; 755  : 			_CATCH_ALL
; 756  : 			this->_Alval.deallocate(_Ptr, _Count);

  000be	ff 75 e8	 push	 DWORD PTR __Ptr$532171[ebp]
  000c1	e8 00 00 00 00	 call	 ??3@YAXPAX@Z		; operator delete
  000c6	59		 pop	 ecx

; 757  : 			_RERAISE;

  000c7	6a 00		 push	 0
  000c9	6a 00		 push	 0
  000cb	e8 00 00 00 00	 call	 __CxxThrowException@8
$LN67@reserve@2:
$LN65@reserve@2:
  000d0	cc		 int	 3
_TEXT	ENDS
;	COMDAT text$x
text$x	SEGMENT
__ehhandler$?reserve@?$vector@UBuffInfo@ioBuffCountSkill@@V?$allocator@UBuffInfo@ioBuffCountSkill@@@std@@@std@@QAEXI@Z:
  00000	8b 54 24 08	 mov	 edx, DWORD PTR [esp+8]
  00004	8d 42 0c	 lea	 eax, DWORD PTR [edx+12]
  00007	8b 4a e4	 mov	 ecx, DWORD PTR [edx-28]
  0000a	33 c8		 xor	 ecx, eax
  0000c	e8 00 00 00 00	 call	 @__security_check_cookie@4
  00011	b8 00 00 00 00	 mov	 eax, OFFSET __ehfuncinfo$?reserve@?$vector@UBuffInfo@ioBuffCountSkill@@V?$allocator@UBuffInfo@ioBuffCountSkill@@@std@@@std@@QAEXI@Z
  00016	e9 00 00 00 00	 jmp	 ___CxxFrameHandler3
text$x	ENDS
?reserve@?$vector@UBuffInfo@ioBuffCountSkill@@V?$allocator@UBuffInfo@ioBuffCountSkill@@@std@@@std@@QAEXI@Z ENDP ; std::vector<ioBuffCountSkill::BuffInfo,std::allocator<ioBuffCountSkill::BuffInfo> >::reserve
PUBLIC	??$sort@V?$_Vector_iterator@V?$_Vector_val@UBuffInfo@ioBuffCountSkill@@V?$allocator@UBuffInfo@ioBuffCountSkill@@@std@@@std@@@std@@VBuffInfoSort@ioBuffCountSkill@@@std@@YAXV?$_Vector_iterator@V?$_Vector_val@UBuffInfo@ioBuffCountSkill@@V?$allocator@UBuffInfo@ioBuffCountSkill@@@std@@@std@@@0@0VBuffInfoSort@ioBuffCountSkill@@@Z ; std::sort<std::_Vector_iterator<std::_Vector_val<ioBuffCountSkill::BuffInfo,std::allocator<ioBuffCountSkill::BuffInfo> > >,ioBuffCountSkill::BuffInfoSort>
; Function compile flags: /Ogsp
; File c:\program files (x86)\microsoft visual studio 10.0\vc\include\algorithm
;	COMDAT ??$sort@V?$_Vector_iterator@V?$_Vector_val@UBuffInfo@ioBuffCountSkill@@V?$allocator@UBuffInfo@ioBuffCountSkill@@@std@@@std@@@std@@VBuffInfoSort@ioBuffCountSkill@@@std@@YAXV?$_Vector_iterator@V?$_Vector_val@UBuffInfo@ioBuffCountSkill@@V?$allocator@UBuffInfo@ioBuffCountSkill@@@std@@@std@@@0@0VBuffInfoSort@ioBuffCountSkill@@@Z
_TEXT	SEGMENT
__First$ = 8						; size = 4
__Last$ = 12						; size = 4
__Pred$ = 16						; size = 1
??$sort@V?$_Vector_iterator@V?$_Vector_val@UBuffInfo@ioBuffCountSkill@@V?$allocator@UBuffInfo@ioBuffCountSkill@@@std@@@std@@@std@@VBuffInfoSort@ioBuffCountSkill@@@std@@YAXV?$_Vector_iterator@V?$_Vector_val@UBuffInfo@ioBuffCountSkill@@V?$allocator@UBuffInfo@ioBuffCountSkill@@@std@@@std@@@0@0VBuffInfoSort@ioBuffCountSkill@@@Z PROC ; std::sort<std::_Vector_iterator<std::_Vector_val<ioBuffCountSkill::BuffInfo,std::allocator<ioBuffCountSkill::BuffInfo> > >,ioBuffCountSkill::BuffInfoSort>, COMDAT

; 3803 : 	{	// order [_First, _Last), using _Pred

  00000	55		 push	 ebp
  00001	8b ec		 mov	 ebp, esp

; 3804 : 	_DEBUG_RANGE(_First, _Last);
; 3805 : 	_DEBUG_POINTER(_Pred);
; 3806 : 	_Sort(_Unchecked(_First), _Unchecked(_Last), _Last - _First, _Pred);

  00003	ff 75 10	 push	 DWORD PTR __Pred$[ebp]
  00006	8b 45 0c	 mov	 eax, DWORD PTR __Last$[ebp]
  00009	2b 45 08	 sub	 eax, DWORD PTR __First$[ebp]
  0000c	6a 14		 push	 20			; 00000014H
  0000e	59		 pop	 ecx
  0000f	99		 cdq
  00010	f7 f9		 idiv	 ecx
  00012	50		 push	 eax
  00013	ff 75 0c	 push	 DWORD PTR __Last$[ebp]
  00016	ff 75 08	 push	 DWORD PTR __First$[ebp]
  00019	e8 00 00 00 00	 call	 ??$_Sort@PAUBuffInfo@ioBuffCountSkill@@HVBuffInfoSort@2@@std@@YAXPAUBuffInfo@ioBuffCountSkill@@0HVBuffInfoSort@2@@Z ; std::_Sort<ioBuffCountSkill::BuffInfo *,int,ioBuffCountSkill::BuffInfoSort>
  0001e	83 c4 10	 add	 esp, 16			; 00000010H

; 3807 : 	}

  00021	5d		 pop	 ebp
  00022	c3		 ret	 0
??$sort@V?$_Vector_iterator@V?$_Vector_val@UBuffInfo@ioBuffCountSkill@@V?$allocator@UBuffInfo@ioBuffCountSkill@@@std@@@std@@@std@@VBuffInfoSort@ioBuffCountSkill@@@std@@YAXV?$_Vector_iterator@V?$_Vector_val@UBuffInfo@ioBuffCountSkill@@V?$allocator@UBuffInfo@ioBuffCountSkill@@@std@@@std@@@0@0VBuffInfoSort@ioBuffCountSkill@@@Z ENDP ; std::sort<std::_Vector_iterator<std::_Vector_val<ioBuffCountSkill::BuffInfo,std::allocator<ioBuffCountSkill::BuffInfo> > >,ioBuffCountSkill::BuffInfoSort>
_TEXT	ENDS
PUBLIC	??0?$vector@UBuffInfo@ioBuffCountSkill@@V?$allocator@UBuffInfo@ioBuffCountSkill@@@std@@@std@@QAE@ABV01@@Z ; std::vector<ioBuffCountSkill::BuffInfo,std::allocator<ioBuffCountSkill::BuffInfo> >::vector<ioBuffCountSkill::BuffInfo,std::allocator<ioBuffCountSkill::BuffInfo> >
;	COMDAT xdata$x
; File c:\program files (x86)\microsoft visual studio 10.0\vc\include\xutility
xdata$x	SEGMENT
__catchsym$??0?$vector@UBuffInfo@ioBuffCountSkill@@V?$allocator@UBuffInfo@ioBuffCountSkill@@@std@@@std@@QAE@ABV01@@Z$2 DD 040H
	DD	00H
	DD	00H
	DD	FLAT:__catch$??0?$vector@UBuffInfo@ioBuffCountSkill@@V?$allocator@UBuffInfo@ioBuffCountSkill@@@std@@@std@@QAE@ABV01@@Z$0
__unwindtable$??0?$vector@UBuffInfo@ioBuffCountSkill@@V?$allocator@UBuffInfo@ioBuffCountSkill@@@std@@@std@@QAE@ABV01@@Z DD 0ffffffffH
	DD	00H
	DD	0ffffffffH
	DD	00H
__tryblocktable$??0?$vector@UBuffInfo@ioBuffCountSkill@@V?$allocator@UBuffInfo@ioBuffCountSkill@@@std@@@std@@QAE@ABV01@@Z DD 00H
	DD	00H
	DD	01H
	DD	01H
	DD	FLAT:__catchsym$??0?$vector@UBuffInfo@ioBuffCountSkill@@V?$allocator@UBuffInfo@ioBuffCountSkill@@@std@@@std@@QAE@ABV01@@Z$2
__ehfuncinfo$??0?$vector@UBuffInfo@ioBuffCountSkill@@V?$allocator@UBuffInfo@ioBuffCountSkill@@@std@@@std@@QAE@ABV01@@Z DD 019930522H
	DD	02H
	DD	FLAT:__unwindtable$??0?$vector@UBuffInfo@ioBuffCountSkill@@V?$allocator@UBuffInfo@ioBuffCountSkill@@@std@@@std@@QAE@ABV01@@Z
	DD	01H
	DD	FLAT:__tryblocktable$??0?$vector@UBuffInfo@ioBuffCountSkill@@V?$allocator@UBuffInfo@ioBuffCountSkill@@@std@@@std@@QAE@ABV01@@Z
	DD	2 DUP(00H)
	DD	00H
	DD	01H
; Function compile flags: /Ogsp
; File c:\program files (x86)\microsoft visual studio 10.0\vc\include\vector
xdata$x	ENDS
;	COMDAT ??0?$vector@UBuffInfo@ioBuffCountSkill@@V?$allocator@UBuffInfo@ioBuffCountSkill@@@std@@@std@@QAE@ABV01@@Z
_TEXT	SEGMENT
_this$ = -20						; size = 4
__$EHRec$ = -16						; size = 16
__Cat$539397 = 8					; size = 1
__Right$ = 8						; size = 4
??0?$vector@UBuffInfo@ioBuffCountSkill@@V?$allocator@UBuffInfo@ioBuffCountSkill@@@std@@@std@@QAE@ABV01@@Z PROC ; std::vector<ioBuffCountSkill::BuffInfo,std::allocator<ioBuffCountSkill::BuffInfo> >::vector<ioBuffCountSkill::BuffInfo,std::allocator<ioBuffCountSkill::BuffInfo> >, COMDAT
; _this$ = ecx

; 535  : 		{	// construct by copying _Right

  00000	6a 08		 push	 8
  00002	b8 00 00 00 00	 mov	 eax, __ehhandler$??0?$vector@UBuffInfo@ioBuffCountSkill@@V?$allocator@UBuffInfo@ioBuffCountSkill@@@std@@@std@@QAE@ABV01@@Z
  00007	e8 00 00 00 00	 call	 __EH_prolog3_catch
  0000c	8b f1		 mov	 esi, ecx
  0000e	89 75 ec	 mov	 DWORD PTR _this$[ebp], esi

; 536  : 		if (_Buy(_Right.size()))

  00011	8b 7d 08	 mov	 edi, DWORD PTR __Right$[ebp]
  00014	33 db		 xor	 ebx, ebx
  00016	89 1e		 mov	 DWORD PTR [esi], ebx
  00018	89 5e 04	 mov	 DWORD PTR [esi+4], ebx
  0001b	89 5e 08	 mov	 DWORD PTR [esi+8], ebx
  0001e	8b 47 04	 mov	 eax, DWORD PTR [edi+4]
  00021	2b 07		 sub	 eax, DWORD PTR [edi]
  00023	6a 14		 push	 20			; 00000014H
  00025	59		 pop	 ecx
  00026	99		 cdq
  00027	f7 f9		 idiv	 ecx
  00029	8b ce		 mov	 ecx, esi
  0002b	50		 push	 eax
  0002c	e8 00 00 00 00	 call	 ?_Buy@?$vector@UBuffInfo@ioBuffCountSkill@@V?$allocator@UBuffInfo@ioBuffCountSkill@@@std@@@std@@IAE_NI@Z ; std::vector<ioBuffCountSkill::BuffInfo,std::allocator<ioBuffCountSkill::BuffInfo> >::_Buy
  00031	84 c0		 test	 al, al
  00033	74 1f		 je	 SHORT $LN7@vector@2

; 537  : 			_TRY_BEGIN
; 538  : 			this->_Mylast = _Ucopy(_Right.begin(), _Right.end(),
; 539  : 				this->_Myfirst);

  00035	ff 75 08	 push	 DWORD PTR __Cat$539397[ebp]
  00038	8b 0e		 mov	 ecx, DWORD PTR [esi]
  0003a	8b 47 04	 mov	 eax, DWORD PTR [edi+4]
  0003d	8b 3f		 mov	 edi, DWORD PTR [edi]
  0003f	8d 56 0c	 lea	 edx, DWORD PTR [esi+12]
  00042	52		 push	 edx
  00043	51		 push	 ecx
  00044	50		 push	 eax
  00045	57		 push	 edi
  00046	89 5d fc	 mov	 DWORD PTR __$EHRec$[ebp+12], ebx
  00049	e8 00 00 00 00	 call	 ??$_Uninit_copy@V?$_Vector_const_iterator@V?$_Vector_val@UBuffInfo@ioBuffCountSkill@@V?$allocator@UBuffInfo@ioBuffCountSkill@@@std@@@std@@@std@@PAUBuffInfo@ioBuffCountSkill@@V?$allocator@UBuffInfo@ioBuffCountSkill@@@2@@std@@YAPAUBuffInfo@ioBuffCountSkill@@V?$_Vector_const_iterator@V?$_Vector_val@UBuffInfo@ioBuffCountSkill@@V?$allocator@UBuffInfo@ioBuffCountSkill@@@std@@@std@@@0@0PAU12@AAV?$allocator@UBuffInfo@ioBuffCountSkill@@@0@U_Nonscalar_ptr_iterator_tag@0@@Z ; std::_Uninit_copy<std::_Vector_const_iterator<std::_Vector_val<ioBuffCountSkill::BuffInfo,std::allocator<ioBuffCountSkill::BuffInfo> > >,ioBuffCountSkill::BuffInfo *,std::allocator<ioBuffCountSkill::BuffInfo> >
  0004e	83 c4 14	 add	 esp, 20			; 00000014H
  00051	89 46 04	 mov	 DWORD PTR [esi+4], eax
$LN7@vector@2:

; 543  : 			_CATCH_END
; 544  : 		}

  00054	8b c6		 mov	 eax, esi
  00056	e8 00 00 00 00	 call	 __EH_epilog3
  0005b	c2 04 00	 ret	 4
__catch$??0?$vector@UBuffInfo@ioBuffCountSkill@@V?$allocator@UBuffInfo@ioBuffCountSkill@@@std@@@std@@QAE@ABV01@@Z$0:

; 540  : 			_CATCH_ALL
; 541  : 			_Tidy();

  0005e	8b 4d ec	 mov	 ecx, DWORD PTR _this$[ebp]
  00061	e8 00 00 00 00	 call	 ?_Tidy@?$vector@UBuffInfo@ioBuffCountSkill@@V?$allocator@UBuffInfo@ioBuffCountSkill@@@std@@@std@@IAEXXZ ; std::vector<ioBuffCountSkill::BuffInfo,std::allocator<ioBuffCountSkill::BuffInfo> >::_Tidy

; 542  : 			_RERAISE;

  00066	33 db		 xor	 ebx, ebx
  00068	53		 push	 ebx
  00069	53		 push	 ebx
  0006a	e8 00 00 00 00	 call	 __CxxThrowException@8
$LN38@vector@2:
$LN37@vector@2:
  0006f	cc		 int	 3
_TEXT	ENDS
;	COMDAT text$x
text$x	SEGMENT
__ehhandler$??0?$vector@UBuffInfo@ioBuffCountSkill@@V?$allocator@UBuffInfo@ioBuffCountSkill@@@std@@@std@@QAE@ABV01@@Z:
  00000	8b 54 24 08	 mov	 edx, DWORD PTR [esp+8]
  00004	8d 42 0c	 lea	 eax, DWORD PTR [edx+12]
  00007	8b 4a e8	 mov	 ecx, DWORD PTR [edx-24]
  0000a	33 c8		 xor	 ecx, eax
  0000c	e8 00 00 00 00	 call	 @__security_check_cookie@4
  00011	b8 00 00 00 00	 mov	 eax, OFFSET __ehfuncinfo$??0?$vector@UBuffInfo@ioBuffCountSkill@@V?$allocator@UBuffInfo@ioBuffCountSkill@@@std@@@std@@QAE@ABV01@@Z
  00016	e9 00 00 00 00	 jmp	 ___CxxFrameHandler3
text$x	ENDS
??0?$vector@UBuffInfo@ioBuffCountSkill@@V?$allocator@UBuffInfo@ioBuffCountSkill@@@std@@@std@@QAE@ABV01@@Z ENDP ; std::vector<ioBuffCountSkill::BuffInfo,std::allocator<ioBuffCountSkill::BuffInfo> >::vector<ioBuffCountSkill::BuffInfo,std::allocator<ioBuffCountSkill::BuffInfo> >
PUBLIC	??1?$vector@UBuffInfo@ioBuffCountSkill@@V?$allocator@UBuffInfo@ioBuffCountSkill@@@std@@@std@@QAE@XZ ; std::vector<ioBuffCountSkill::BuffInfo,std::allocator<ioBuffCountSkill::BuffInfo> >::~vector<ioBuffCountSkill::BuffInfo,std::allocator<ioBuffCountSkill::BuffInfo> >
; Function compile flags: /Ogsp
;	COMDAT ??1?$vector@UBuffInfo@ioBuffCountSkill@@V?$allocator@UBuffInfo@ioBuffCountSkill@@@std@@@std@@QAE@XZ
_TEXT	SEGMENT
??1?$vector@UBuffInfo@ioBuffCountSkill@@V?$allocator@UBuffInfo@ioBuffCountSkill@@@std@@@std@@QAE@XZ PROC ; std::vector<ioBuffCountSkill::BuffInfo,std::allocator<ioBuffCountSkill::BuffInfo> >::~vector<ioBuffCountSkill::BuffInfo,std::allocator<ioBuffCountSkill::BuffInfo> >, COMDAT
; _this$ = ecx

; 705  : 		_Tidy();

  00000	e9 00 00 00 00	 jmp	 ?_Tidy@?$vector@UBuffInfo@ioBuffCountSkill@@V?$allocator@UBuffInfo@ioBuffCountSkill@@@std@@@std@@IAEXXZ ; std::vector<ioBuffCountSkill::BuffInfo,std::allocator<ioBuffCountSkill::BuffInfo> >::_Tidy
??1?$vector@UBuffInfo@ioBuffCountSkill@@V?$allocator@UBuffInfo@ioBuffCountSkill@@@std@@@std@@QAE@XZ ENDP ; std::vector<ioBuffCountSkill::BuffInfo,std::allocator<ioBuffCountSkill::BuffInfo> >::~vector<ioBuffCountSkill::BuffInfo,std::allocator<ioBuffCountSkill::BuffInfo> >
_TEXT	ENDS
PUBLIC	?_Reserve@?$vector@UBuffInfo@ioBuffCountSkill@@V?$allocator@UBuffInfo@ioBuffCountSkill@@@std@@@std@@IAEXI@Z ; std::vector<ioBuffCountSkill::BuffInfo,std::allocator<ioBuffCountSkill::BuffInfo> >::_Reserve
; Function compile flags: /Ogsp
;	COMDAT ?_Reserve@?$vector@UBuffInfo@ioBuffCountSkill@@V?$allocator@UBuffInfo@ioBuffCountSkill@@@std@@@std@@IAEXI@Z
_TEXT	SEGMENT
__Count$ = 8						; size = 4
?_Reserve@?$vector@UBuffInfo@ioBuffCountSkill@@V?$allocator@UBuffInfo@ioBuffCountSkill@@@std@@@std@@IAEXI@Z PROC ; std::vector<ioBuffCountSkill::BuffInfo,std::allocator<ioBuffCountSkill::BuffInfo> >::_Reserve, COMDAT
; _this$ = ecx

; 1290 : 		{	// ensure room for _Count new elements, grow exponentially

  00000	55		 push	 ebp
  00001	8b ec		 mov	 ebp, esp
  00003	56		 push	 esi
  00004	8b f1		 mov	 esi, ecx

; 1291 : 		size_type _Size = size();

  00006	8b 0e		 mov	 ecx, DWORD PTR [esi]
  00008	8b 46 04	 mov	 eax, DWORD PTR [esi+4]
  0000b	2b c1		 sub	 eax, ecx
  0000d	57		 push	 edi
  0000e	99		 cdq
  0000f	6a 14		 push	 20			; 00000014H
  00011	5f		 pop	 edi
  00012	f7 ff		 idiv	 edi
  00014	8b f8		 mov	 edi, eax

; 1292 : 		if (max_size() - _Count < _Size)

  00016	b8 cc cc cc 0c	 mov	 eax, 214748364		; 0cccccccH
  0001b	2b 45 08	 sub	 eax, DWORD PTR __Count$[ebp]
  0001e	3b c7		 cmp	 eax, edi
  00020	73 0b		 jae	 SHORT $LN4@Reserve@2

; 1293 : 			_Xlen();

  00022	68 00 00 00 00	 push	 OFFSET ??_C@_0BD@OLBABOEK@vector?$DMT?$DO?5too?5long?$AA@
  00027	ff 15 00 00 00
	00		 call	 DWORD PTR __imp_?_Xlength_error@std@@YAXPBD@Z
$LN21@Reserve@2:
$LN4@Reserve@2:

; 1294 : 		else if ((_Size += _Count) <= capacity())

  0002d	8b 46 08	 mov	 eax, DWORD PTR [esi+8]
  00030	2b c1		 sub	 eax, ecx
  00032	6a 14		 push	 20			; 00000014H
  00034	99		 cdq
  00035	59		 pop	 ecx
  00036	f7 f9		 idiv	 ecx
  00038	03 7d 08	 add	 edi, DWORD PTR __Count$[ebp]
  0003b	3b f8		 cmp	 edi, eax
  0003d	76 10		 jbe	 SHORT $LN1@Reserve@2

; 1295 : 			;
; 1296 : 		else
; 1297 : 			reserve(_Grow_to(_Size));

  0003f	57		 push	 edi
  00040	8b ce		 mov	 ecx, esi
  00042	e8 00 00 00 00	 call	 ?_Grow_to@?$vector@UBuffInfo@ioBuffCountSkill@@V?$allocator@UBuffInfo@ioBuffCountSkill@@@std@@@std@@IBEII@Z ; std::vector<ioBuffCountSkill::BuffInfo,std::allocator<ioBuffCountSkill::BuffInfo> >::_Grow_to
  00047	50		 push	 eax
  00048	8b ce		 mov	 ecx, esi
  0004a	e8 00 00 00 00	 call	 ?reserve@?$vector@UBuffInfo@ioBuffCountSkill@@V?$allocator@UBuffInfo@ioBuffCountSkill@@@std@@@std@@QAEXI@Z ; std::vector<ioBuffCountSkill::BuffInfo,std::allocator<ioBuffCountSkill::BuffInfo> >::reserve
$LN1@Reserve@2:
  0004f	5f		 pop	 edi
  00050	5e		 pop	 esi

; 1298 : 		}

  00051	5d		 pop	 ebp
  00052	c2 04 00	 ret	 4
$LN20@Reserve@2:
?_Reserve@?$vector@UBuffInfo@ioBuffCountSkill@@V?$allocator@UBuffInfo@ioBuffCountSkill@@@std@@@std@@IAEXI@Z ENDP ; std::vector<ioBuffCountSkill::BuffInfo,std::allocator<ioBuffCountSkill::BuffInfo> >::_Reserve
_TEXT	ENDS
PUBLIC	??_7ioBuffCountSkill@@6B@			; ioBuffCountSkill::`vftable'
PUBLIC	??0ioBuffCountSkill@@QAE@XZ			; ioBuffCountSkill::ioBuffCountSkill
PUBLIC	??_R4ioBuffCountSkill@@6B@			; ioBuffCountSkill::`RTTI Complete Object Locator'
PUBLIC	??_R0?AVioBuffCountSkill@@@8			; ioBuffCountSkill `RTTI Type Descriptor'
PUBLIC	??_R3ioBuffCountSkill@@8			; ioBuffCountSkill::`RTTI Class Hierarchy Descriptor'
PUBLIC	??_R2ioBuffCountSkill@@8			; ioBuffCountSkill::`RTTI Base Class Array'
PUBLIC	??_R1A@?0A@EA@ioBuffCountSkill@@8		; ioBuffCountSkill::`RTTI Base Class Descriptor at (0,-1,0,64)'
PUBLIC	??_R1A@?0A@EA@ioCountSkill@@8			; ioCountSkill::`RTTI Base Class Descriptor at (0,-1,0,64)'
PUBLIC	??_R0?AVioCountSkill@@@8			; ioCountSkill `RTTI Type Descriptor'
PUBLIC	??_R3ioCountSkill@@8				; ioCountSkill::`RTTI Class Hierarchy Descriptor'
PUBLIC	??_R2ioCountSkill@@8				; ioCountSkill::`RTTI Base Class Array'
PUBLIC	??_R1A@?0A@EA@ioSkill@@8			; ioSkill::`RTTI Base Class Descriptor at (0,-1,0,64)'
PUBLIC	??_R0?AVioSkill@@@8				; ioSkill `RTTI Type Descriptor'
PUBLIC	??_R3ioSkill@@8					; ioSkill::`RTTI Class Hierarchy Descriptor'
PUBLIC	??_R2ioSkill@@8					; ioSkill::`RTTI Base Class Array'
PUBLIC	?LoadProperty@ioBuffCountSkill@@UAEXAAVioINILoader@@@Z ; ioBuffCountSkill::LoadProperty
PUBLIC	?Clone@ioBuffCountSkill@@UAEPAVioSkill@@XZ	; ioBuffCountSkill::Clone
PUBLIC	?GetDefenseSkillBreakeType@ioSkill@@UBE?AW4DefenseBreakType@@XZ ; ioSkill::GetDefenseSkillBreakeType
PUBLIC	?GetSkillEndNextJumpAmt@ioSkill@@UBEMXZ		; ioSkill::GetSkillEndNextJumpAmt
PUBLIC	?GetSkillEndNextLandRate@ioSkill@@UBEMXZ	; ioSkill::GetSkillEndNextLandRate
PUBLIC	?GetSkillEndNextJumpMustEnable@ioSkill@@UAE?AW4SkillEndJumpType@@XZ ; ioSkill::GetSkillEndNextJumpMustEnable
PUBLIC	?EnableChangeGrapplingTargetPos@ioSkill@@UBE_NXZ ; ioSkill::EnableChangeGrapplingTargetPos
PUBLIC	?IsInvisibleBottomCircle@ioSkill@@UAE_NPAVioBaseChar@@@Z ; ioSkill::IsInvisibleBottomCircle
PUBLIC	?IsCanJumpingSkill@ioSkill@@UBE_NXZ		; ioSkill::IsCanJumpingSkill
PUBLIC	?IsCanJumpingSkillOnBlowWound@ioSkill@@UBE_NXZ	; ioSkill::IsCanJumpingSkillOnBlowWound
PUBLIC	?IsCanDownSkill@ioSkill@@UBE_NXZ		; ioSkill::IsCanDownSkill
PUBLIC	?IsCanBlowWoundSkill@ioSkill@@UBE_NXZ		; ioSkill::IsCanBlowWoundSkill
PUBLIC	?IsCanWoundSkill@ioSkill@@UBE_NXZ		; ioSkill::IsCanWoundSkill
PUBLIC	?IsUseActiveCnt@ioSkill@@UBE_NXZ		; ioSkill::IsUseActiveCnt
PUBLIC	?GetMaxActiveCnt@ioSkill@@UBEHPAVioBaseChar@@@Z	; ioSkill::GetMaxActiveCnt
PUBLIC	?GetCurActiveCnt@ioSkill@@UBEHPAVioBaseChar@@@Z	; ioSkill::GetCurActiveCnt
PUBLIC	?GetCurUseCount@ioCountSkill@@UAEHXZ		; ioCountSkill::GetCurUseCount
PUBLIC	?GetMaxUseCount@ioCountSkill@@UAEHXZ		; ioCountSkill::GetMaxUseCount
PUBLIC	?GetNeedCount@ioCountSkill@@UAEHXZ		; ioCountSkill::GetNeedCount
EXTRN	??1ioCountSkill@@UAE@XZ:PROC			; ioCountSkill::~ioCountSkill
EXTRN	??0ioCountSkill@@QAE@XZ:PROC			; ioCountSkill::ioCountSkill
EXTRN	?GetTypeID@ioCountSkill@@UBEHXZ:PROC		; ioCountSkill::GetTypeID
EXTRN	?IsCanSwitchSkill@ioSkill@@UBE_NXZ:PROC		; ioSkill::IsCanSwitchSkill
EXTRN	?IsCanSemiSwitchSkill@ioSkill@@UBE_NXZ:PROC	; ioSkill::IsCanSemiSwitchSkill
EXTRN	?IsCanCancelBySkill@ioSkill@@UBE_NPAVioBaseChar@@AAH@Z:PROC ; ioSkill::IsCanCancelBySkill
EXTRN	?IsCanUseZeroHP@ioSkill@@UBE_NPAVioBaseChar@@@Z:PROC ; ioSkill::IsCanUseZeroHP
EXTRN	?IsCanUseSkillWithCrown@ioSkill@@UAE_NPAVioBaseChar@@@Z:PROC ; ioSkill::IsCanUseSkillWithCrown
EXTRN	?IsCanUseBoss@ioSkill@@UBE_NPAVioBaseChar@@@Z:PROC ; ioSkill::IsCanUseBoss
EXTRN	?IsCanUseFootball@ioSkill@@UBE_NXZ:PROC		; ioSkill::IsCanUseFootball
EXTRN	?IsCanUseGangSiMode@ioSkill@@UBE_NXZ:PROC	; ioSkill::IsCanUseGangSiMode
EXTRN	?IsCanUseByWeaponType@ioSkill@@UBE_NPAVioBaseChar@@@Z:PROC ; ioSkill::IsCanUseByWeaponType
EXTRN	?IsCanUseThunderBirdHold@ioSkill@@UBE_NPAVioBaseChar@@@Z:PROC ; ioSkill::IsCanUseThunderBirdHold
EXTRN	?IsCanUseLimitHP@ioSkill@@UBE_NPAVioBaseChar@@@Z:PROC ; ioSkill::IsCanUseLimitHP
EXTRN	?IsCanUseSkill@ioCountSkill@@UAE_NPAVioBaseChar@@_N@Z:PROC ; ioCountSkill::IsCanUseSkill
EXTRN	?IsOnOffEnable@ioSkill@@UAE_NXZ:PROC		; ioSkill::IsOnOffEnable
EXTRN	?IsCanDefenseStateSkill@ioSkill@@UAE_NXZ:PROC	; ioSkill::IsCanDefenseStateSkill
EXTRN	?SetDefenseStateSkill@ioSkill@@UAEXPAVioBaseChar@@@Z:PROC ; ioSkill::SetDefenseStateSkill
EXTRN	?HasBuff@ioSkill@@UBE_NH@Z:PROC			; ioSkill::HasBuff
EXTRN	?GetBuffType@ioSkill@@UAEHH@Z:PROC		; ioSkill::GetBuffType
EXTRN	?IsEnableReserve@ioSkill@@UBE_NXZ:PROC		; ioSkill::IsEnableReserve
EXTRN	?IsCharSkipState@ioSkill@@UBE?AW4SkillCharColType@@XZ:PROC ; ioSkill::IsCharSkipState
EXTRN	?IsEntityCollisionSkipState@ioSkill@@UBE_NXZ:PROC ; ioSkill::IsEntityCollisionSkipState
EXTRN	?IsEndState@ioSkill@@UBE_NXZ:PROC		; ioSkill::IsEndState
EXTRN	?IsAttackEndState@ioCountSkill@@UBE_NXZ:PROC	; ioCountSkill::IsAttackEndState
EXTRN	?IsJumpState@ioSkill@@UBE_NXZ:PROC		; ioSkill::IsJumpState
EXTRN	?IsDownState@ioSkill@@UBE_NXZ:PROC		; ioSkill::IsDownState
EXTRN	?IsNoDropState@ioSkill@@UBE_NXZ:PROC		; ioSkill::IsNoDropState
EXTRN	?IsCanSendControl@ioSkill@@UBE_NXZ:PROC		; ioSkill::IsCanSendControl
EXTRN	?IsSkipState@ioSkill@@UBE_NXZ:PROC		; ioSkill::IsSkipState
EXTRN	?GetSkillMoveRate@ioSkill@@UBEMXZ:PROC		; ioSkill::GetSkillMoveRate
EXTRN	?SetSkillGrapplingState@ioSkill@@UAE_NPAVioBaseChar@@ABVioHashString@@@Z:PROC ; ioSkill::SetSkillGrapplingState
EXTRN	?GetGrapplingTargetPos@ioSkill@@UAE?AUD3DXVECTOR3@@PAVioBaseChar@@0@Z:PROC ; ioSkill::GetGrapplingTargetPos
EXTRN	?GetGrapplingTargetPos@ioSkill@@UAE?AUD3DXVECTOR3@@PAVioBaseChar@@@Z:PROC ; ioSkill::GetGrapplingTargetPos
EXTRN	?GetSkillWoundGrapplingInfo@ioSkill@@UAE?AUGrapplingSkillWoundedInfo@@XZ:PROC ; ioSkill::GetSkillWoundGrapplingInfo
EXTRN	?SetCreateWeaponDependency@ioSkill@@UAEXPAVioBaseChar@@PAVioPlayStage@@@Z:PROC ; ioSkill::SetCreateWeaponDependency
EXTRN	?SetNextSkillState@ioSkill@@UAEXPAVioBaseChar@@PAVioWeapon@@@Z:PROC ; ioSkill::SetNextSkillState
EXTRN	?OnSkillEndByWounded@ioSkill@@UAEXPAVioBaseChar@@@Z:PROC ; ioSkill::OnSkillEndByWounded
EXTRN	?OnProcessNotUseSkill@ioSkill@@UAEXPAVioBaseChar@@PAVioPlayStage@@@Z:PROC ; ioSkill::OnProcessNotUseSkill
EXTRN	?OnSkillItemRelease@ioSkill@@UAEXPAVioBaseChar@@@Z:PROC ; ioSkill::OnSkillItemRelease
EXTRN	?ApplyAttributeToWeapon@ioSkill@@UAEXPAVioWeapon@@PAVioPlayStage@@@Z:PROC ; ioSkill::ApplyAttributeToWeapon
EXTRN	?ApplyEquipSlotSkillExtraInfo@ioSkill@@UAEXPAVioBaseChar@@PAVioPlayStage@@AAVSP2Packet@@@Z:PROC ; ioSkill::ApplyEquipSlotSkillExtraInfo
EXTRN	?ApplyExtraPassiveSkillInfo@ioSkill@@UAEXPAVioBaseChar@@PAVioPlayStage@@AAVSP2Packet@@@Z:PROC ; ioSkill::ApplyExtraPassiveSkillInfo
EXTRN	?StartPreDelayEffect@ioCountSkill@@UAEXPAVioBaseChar@@@Z:PROC ; ioCountSkill::StartPreDelayEffect
EXTRN	?EndPreDelayEffect@ioCountSkill@@UAEXPAVioBaseChar@@@Z:PROC ; ioCountSkill::EndPreDelayEffect
EXTRN	?IsUseAutoTargetValue@ioCountSkill@@UAE_NXZ:PROC ; ioCountSkill::IsUseAutoTargetValue
EXTRN	?IsAutoTargetDownState@ioSkill@@UAE_NXZ:PROC	; ioSkill::IsAutoTargetDownState
EXTRN	?CheckUseBuff@ioSkill@@UAE_NPAVioBaseChar@@@Z:PROC ; ioSkill::CheckUseBuff
EXTRN	?CheckUseItemMesh@ioSkill@@UAE_NXZ:PROC		; ioSkill::CheckUseItemMesh
EXTRN	?CheckUseActiveCount@ioSkill@@UAE_NXZ:PROC	; ioSkill::CheckUseActiveCount
EXTRN	?CheckAniRotate@ioSkill@@UAEXPAVioBaseChar@@@Z:PROC ; ioSkill::CheckAniRotate
EXTRN	?IsEnableDashCheck@ioSkill@@UAE_NPAVioBaseChar@@@Z:PROC ; ioSkill::IsEnableDashCheck
EXTRN	?IsEnableMultiActive@ioSkill@@UAE_NPAVioBaseChar@@@Z:PROC ; ioSkill::IsEnableMultiActive
EXTRN	?GetAutoTargetValue@ioSkill@@UAEXAAM00@Z:PROC	; ioSkill::GetAutoTargetValue
EXTRN	?GetSkillGravityRate@ioSkill@@UAEMXZ:PROC	; ioSkill::GetSkillGravityRate
EXTRN	?GetSkillMotionName@ioSkill@@UBEABVioHashString@@XZ:PROC ; ioSkill::GetSkillMotionName
EXTRN	?HasSkillMotion@ioSkill@@UBE_NXZ:PROC		; ioSkill::HasSkillMotion
EXTRN	?GetSkillMotionRate@ioSkill@@UBEMXZ:PROC	; ioSkill::GetSkillMotionRate
EXTRN	?IsPreDelayProtect@ioSkill@@UBE_NXZ:PROC	; ioSkill::IsPreDelayProtect
EXTRN	?GetPreDelayAniName@ioSkill@@UBEABVioHashString@@XZ:PROC ; ioSkill::GetPreDelayAniName
EXTRN	?GetPreDelayTime@ioSkill@@UBEKXZ:PROC		; ioSkill::GetPreDelayTime
EXTRN	?GetPreDelayOwnerEffect@ioSkill@@UBEABVioHashString@@XZ:PROC ; ioSkill::GetPreDelayOwnerEffect
EXTRN	?GetPreDelayOtherEffect@ioSkill@@UBEABVioHashString@@XZ:PROC ; ioSkill::GetPreDelayOtherEffect
EXTRN	?SetCancelSkill@ioSkill@@UAEXPAVioBaseChar@@@Z:PROC ; ioSkill::SetCancelSkill
EXTRN	?ClearAirJump@ioSkill@@MAEXXZ:PROC		; ioSkill::ClearAirJump
EXTRN	?SetAirJump@ioSkill@@MAEXPAVioBaseChar@@HM@Z:PROC ; ioSkill::SetAirJump
EXTRN	?CheckAirJump@ioSkill@@MAEXPAVioBaseChar@@@Z:PROC ; ioSkill::CheckAirJump
EXTRN	?UseActiveCount@ioSkill@@UAE_NPAVioBaseChar@@@Z:PROC ; ioSkill::UseActiveCount
EXTRN	?GetMaxActiveCount@ioSkill@@UAEHPAVioBaseChar@@@Z:PROC ; ioSkill::GetMaxActiveCount
EXTRN	?GetCurActiveCount@ioSkill@@UAEHPAVioBaseChar@@@Z:PROC ; ioSkill::GetCurActiveCount
EXTRN	?HideHPGauge@ioSkill@@UAE_NXZ:PROC		; ioSkill::HideHPGauge
EXTRN	?SetInfoByApplyWeapon@ioSkill@@UAEXPAVioBaseChar@@0K_N@Z:PROC ; ioSkill::SetInfoByApplyWeapon
EXTRN	?SetCollisionByApplySkill@ioSkill@@UAEXXZ:PROC	; ioSkill::SetCollisionByApplySkill
EXTRN	?SetChargingRateForWeapon@ioSkill@@UAEXPAVioWeapon@@@Z:PROC ; ioSkill::SetChargingRateForWeapon
EXTRN	?CheckExceptionCamera@ioSkill@@UAE_NXZ:PROC	; ioSkill::CheckExceptionCamera
EXTRN	?GetExceptionCameraPos@ioSkill@@UAE?AUD3DXVECTOR3@@PAVioBaseChar@@@Z:PROC ; ioSkill::GetExceptionCameraPos
EXTRN	?IsFixedExceptionCamera@ioSkill@@UAE_NXZ:PROC	; ioSkill::IsFixedExceptionCamera
EXTRN	??_EioBuffCountSkill@@UAEPAXI@Z:PROC		; ioBuffCountSkill::`vector deleting destructor'
EXTRN	?StartPreDelayAnimation@ioCountSkill@@MAE_NPAVioBaseChar@@@Z:PROC ; ioCountSkill::StartPreDelayAnimation
EXTRN	?AttackSkillFire@ioCountSkill@@MAEXPAVioBaseChar@@@Z:PROC ; ioCountSkill::AttackSkillFire
EXTRN	?GetAttackTimeRate@ioCountSkill@@MBEMXZ:PROC	; ioCountSkill::GetAttackTimeRate
EXTRN	?GetAttackEndTimeRate@ioCountSkill@@MBEMXZ:PROC	; ioCountSkill::GetAttackEndTimeRate
EXTRN	?LoadNormalAttribute@ioCountSkill@@MAEXAAVioINILoader@@@Z:PROC ; ioCountSkill::LoadNormalAttribute
EXTRN	?LoadDownAttribute@ioCountSkill@@MAEXAAVioINILoader@@@Z:PROC ; ioCountSkill::LoadDownAttribute
EXTRN	?LoadJumpAttribute@ioCountSkill@@MAEXAAVioINILoader@@@Z:PROC ; ioCountSkill::LoadJumpAttribute
EXTRN	?GetAttribute@ioCountSkill@@MAEAAUAttackAttribute@@XZ:PROC ; ioCountSkill::GetAttribute
EXTRN	?GetAttributeConst@ioCountSkill@@MBEABUAttackAttribute@@XZ:PROC ; ioCountSkill::GetAttributeConst
EXTRN	?IsCanStateEscape@ioCountSkill@@UBE_NXZ:PROC	; ioCountSkill::IsCanStateEscape
EXTRN	?IsCanStateEscapeOnStand@ioCountSkill@@UBE_NPAVioBaseChar@@@Z:PROC ; ioCountSkill::IsCanStateEscapeOnStand
EXTRN	?IsCanStateEscapeOnAir@ioCountSkill@@UBE_NPAVioBaseChar@@@Z:PROC ; ioCountSkill::IsCanStateEscapeOnAir
EXTRN	?IsCanStateEscapeOnDown@ioCountSkill@@UBE_NPAVioBaseChar@@@Z:PROC ; ioCountSkill::IsCanStateEscapeOnDown
EXTRN	?EnableRecoveryCount@ioCountSkill@@UAE_NPAVioBaseChar@@@Z:PROC ; ioCountSkill::EnableRecoveryCount
EXTRN	?RecoveryCount@ioCountSkill@@UAEXPAVioBaseChar@@@Z:PROC ; ioCountSkill::RecoveryCount
;	COMDAT ??_R2ioSkill@@8
; File c:\program files (x86)\microsoft visual studio 10.0\vc\include\xmemory
rdata$r	SEGMENT
??_R2ioSkill@@8 DD FLAT:??_R1A@?0A@EA@ioSkill@@8	; ioSkill::`RTTI Base Class Array'
rdata$r	ENDS
;	COMDAT ??_R3ioSkill@@8
rdata$r	SEGMENT
??_R3ioSkill@@8 DD 00H					; ioSkill::`RTTI Class Hierarchy Descriptor'
	DD	00H
	DD	01H
	DD	FLAT:??_R2ioSkill@@8
rdata$r	ENDS
;	COMDAT ??_R0?AVioSkill@@@8
_DATA	SEGMENT
??_R0?AVioSkill@@@8 DD FLAT:??_7type_info@@6B@		; ioSkill `RTTI Type Descriptor'
	DD	00H
	DB	'.?AVioSkill@@', 00H
_DATA	ENDS
;	COMDAT ??_R1A@?0A@EA@ioSkill@@8
rdata$r	SEGMENT
??_R1A@?0A@EA@ioSkill@@8 DD FLAT:??_R0?AVioSkill@@@8	; ioSkill::`RTTI Base Class Descriptor at (0,-1,0,64)'
	DD	00H
	DD	00H
	DD	0ffffffffH
	DD	00H
	DD	040H
	DD	FLAT:??_R3ioSkill@@8
rdata$r	ENDS
;	COMDAT ??_R2ioCountSkill@@8
rdata$r	SEGMENT
??_R2ioCountSkill@@8 DD FLAT:??_R1A@?0A@EA@ioCountSkill@@8 ; ioCountSkill::`RTTI Base Class Array'
	DD	FLAT:??_R1A@?0A@EA@ioSkill@@8
rdata$r	ENDS
;	COMDAT ??_R3ioCountSkill@@8
rdata$r	SEGMENT
??_R3ioCountSkill@@8 DD 00H				; ioCountSkill::`RTTI Class Hierarchy Descriptor'
	DD	00H
	DD	02H
	DD	FLAT:??_R2ioCountSkill@@8
rdata$r	ENDS
;	COMDAT ??_R0?AVioCountSkill@@@8
_DATA	SEGMENT
??_R0?AVioCountSkill@@@8 DD FLAT:??_7type_info@@6B@	; ioCountSkill `RTTI Type Descriptor'
	DD	00H
	DB	'.?AVioCountSkill@@', 00H
_DATA	ENDS
;	COMDAT ??_R1A@?0A@EA@ioCountSkill@@8
rdata$r	SEGMENT
??_R1A@?0A@EA@ioCountSkill@@8 DD FLAT:??_R0?AVioCountSkill@@@8 ; ioCountSkill::`RTTI Base Class Descriptor at (0,-1,0,64)'
	DD	01H
	DD	00H
	DD	0ffffffffH
	DD	00H
	DD	040H
	DD	FLAT:??_R3ioCountSkill@@8
rdata$r	ENDS
;	COMDAT ??_R1A@?0A@EA@ioBuffCountSkill@@8
rdata$r	SEGMENT
??_R1A@?0A@EA@ioBuffCountSkill@@8 DD FLAT:??_R0?AVioBuffCountSkill@@@8 ; ioBuffCountSkill::`RTTI Base Class Descriptor at (0,-1,0,64)'
	DD	02H
	DD	00H
	DD	0ffffffffH
	DD	00H
	DD	040H
	DD	FLAT:??_R3ioBuffCountSkill@@8
rdata$r	ENDS
;	COMDAT ??_R2ioBuffCountSkill@@8
rdata$r	SEGMENT
??_R2ioBuffCountSkill@@8 DD FLAT:??_R1A@?0A@EA@ioBuffCountSkill@@8 ; ioBuffCountSkill::`RTTI Base Class Array'
	DD	FLAT:??_R1A@?0A@EA@ioCountSkill@@8
	DD	FLAT:??_R1A@?0A@EA@ioSkill@@8
rdata$r	ENDS
;	COMDAT ??_R3ioBuffCountSkill@@8
rdata$r	SEGMENT
??_R3ioBuffCountSkill@@8 DD 00H				; ioBuffCountSkill::`RTTI Class Hierarchy Descriptor'
	DD	00H
	DD	03H
	DD	FLAT:??_R2ioBuffCountSkill@@8
rdata$r	ENDS
;	COMDAT ??_R0?AVioBuffCountSkill@@@8
_DATA	SEGMENT
??_R0?AVioBuffCountSkill@@@8 DD FLAT:??_7type_info@@6B@	; ioBuffCountSkill `RTTI Type Descriptor'
	DD	00H
	DB	'.?AVioBuffCountSkill@@', 00H
_DATA	ENDS
;	COMDAT ??_R4ioBuffCountSkill@@6B@
rdata$r	SEGMENT
??_R4ioBuffCountSkill@@6B@ DD 00H			; ioBuffCountSkill::`RTTI Complete Object Locator'
	DD	00H
	DD	00H
	DD	FLAT:??_R0?AVioBuffCountSkill@@@8
	DD	FLAT:??_R3ioBuffCountSkill@@8
rdata$r	ENDS
;	COMDAT ??_7ioBuffCountSkill@@6B@
CONST	SEGMENT
??_7ioBuffCountSkill@@6B@ DD FLAT:??_R4ioBuffCountSkill@@6B@ ; ioBuffCountSkill::`vftable'
	DD	FLAT:?LoadProperty@ioBuffCountSkill@@UAEXAAVioINILoader@@@Z
	DD	FLAT:?Clone@ioBuffCountSkill@@UAEPAVioSkill@@XZ
	DD	FLAT:?GetTypeID@ioCountSkill@@UBEHXZ
	DD	FLAT:?IsProtected@ioBuffCountSkill@@UBE_NH@Z
	DD	FLAT:?IsCanSwitchSkill@ioSkill@@UBE_NXZ
	DD	FLAT:?IsCanSemiSwitchSkill@ioSkill@@UBE_NXZ
	DD	FLAT:?IsCanCancelBySkill@ioSkill@@UBE_NPAVioBaseChar@@AAH@Z
	DD	FLAT:?IsCanUseZeroHP@ioSkill@@UBE_NPAVioBaseChar@@@Z
	DD	FLAT:?IsCanUseSkillWithCrown@ioSkill@@UAE_NPAVioBaseChar@@@Z
	DD	FLAT:?IsCanUseBoss@ioSkill@@UBE_NPAVioBaseChar@@@Z
	DD	FLAT:?IsCanUseFootball@ioSkill@@UBE_NXZ
	DD	FLAT:?IsCanUseGangSiMode@ioSkill@@UBE_NXZ
	DD	FLAT:?IsCanUseByWeaponType@ioSkill@@UBE_NPAVioBaseChar@@@Z
	DD	FLAT:?IsCanUseThunderBirdHold@ioSkill@@UBE_NPAVioBaseChar@@@Z
	DD	FLAT:?IsCanUseLimitHP@ioSkill@@UBE_NPAVioBaseChar@@@Z
	DD	FLAT:?IsCanUseSkill@ioCountSkill@@UAE_NPAVioBaseChar@@_N@Z
	DD	FLAT:?IsOnOffEnable@ioSkill@@UAE_NXZ
	DD	FLAT:?IsCanDefenseStateSkill@ioSkill@@UAE_NXZ
	DD	FLAT:?SetDefenseStateSkill@ioSkill@@UAEXPAVioBaseChar@@@Z
	DD	FLAT:?GetDefenseSkillBreakeType@ioSkill@@UBE?AW4DefenseBreakType@@XZ
	DD	FLAT:?HasBuff@ioSkill@@UBE_NH@Z
	DD	FLAT:?GetBuffType@ioSkill@@UAEHH@Z
	DD	FLAT:?IsEnableReserve@ioSkill@@UBE_NXZ
	DD	FLAT:?IsSkillMotionEnd@ioBuffCountSkill@@UBE_NKPAVioBaseChar@@@Z
	DD	FLAT:?IsCharSkipState@ioSkill@@UBE?AW4SkillCharColType@@XZ
	DD	FLAT:?IsEntityCollisionSkipState@ioSkill@@UBE_NXZ
	DD	FLAT:?GetSkillEndNextJumpAmt@ioSkill@@UBEMXZ
	DD	FLAT:?GetSkillEndNextLandRate@ioSkill@@UBEMXZ
	DD	FLAT:?GetSkillEndNextJumpMustEnable@ioSkill@@UAE?AW4SkillEndJumpType@@XZ
	DD	FLAT:?IsEndState@ioSkill@@UBE_NXZ
	DD	FLAT:?IsAttackEndState@ioCountSkill@@UBE_NXZ
	DD	FLAT:?IsJumpState@ioSkill@@UBE_NXZ
	DD	FLAT:?IsDownState@ioSkill@@UBE_NXZ
	DD	FLAT:?IsNoDropState@ioSkill@@UBE_NXZ
	DD	FLAT:?IsCanSendControl@ioSkill@@UBE_NXZ
	DD	FLAT:?IsSkipState@ioSkill@@UBE_NXZ
	DD	FLAT:?GetSkillMoveRate@ioSkill@@UBEMXZ
	DD	FLAT:?SetSkillGrapplingState@ioSkill@@UAE_NPAVioBaseChar@@ABVioHashString@@@Z
	DD	FLAT:?GetGrapplingTargetPos@ioSkill@@UAE?AUD3DXVECTOR3@@PAVioBaseChar@@0@Z
	DD	FLAT:?GetGrapplingTargetPos@ioSkill@@UAE?AUD3DXVECTOR3@@PAVioBaseChar@@@Z
	DD	FLAT:?EnableChangeGrapplingTargetPos@ioSkill@@UBE_NXZ
	DD	FLAT:?GetSkillWoundGrapplingInfo@ioSkill@@UAE?AUGrapplingSkillWoundedInfo@@XZ
	DD	FLAT:?SetCreateWeaponDependency@ioSkill@@UAEXPAVioBaseChar@@PAVioPlayStage@@@Z
	DD	FLAT:?SetNextSkillState@ioSkill@@UAEXPAVioBaseChar@@PAVioWeapon@@@Z
	DD	FLAT:?OnSkillStart@ioBuffCountSkill@@UAE_NPAVioBaseChar@@@Z
	DD	FLAT:?OnProcessState@ioBuffCountSkill@@UAEXPAVioBaseChar@@PAVioPlayStage@@@Z
	DD	FLAT:?OnSkillEndByWounded@ioSkill@@UAEXPAVioBaseChar@@@Z
	DD	FLAT:?OnSkillEnd@ioBuffCountSkill@@UAEXPAVioBaseChar@@@Z
	DD	FLAT:?OnProcessNotUseSkill@ioSkill@@UAEXPAVioBaseChar@@PAVioPlayStage@@@Z
	DD	FLAT:?OnSkillItemRelease@ioSkill@@UAEXPAVioBaseChar@@@Z
	DD	FLAT:?ApplyAttributeToWeapon@ioSkill@@UAEXPAVioWeapon@@PAVioPlayStage@@@Z
	DD	FLAT:?ApplyExtraSkillInfo@ioBuffCountSkill@@UAEXPAVioBaseChar@@PAVioPlayStage@@AAVSP2Packet@@@Z
	DD	FLAT:?ApplyEquipSlotSkillExtraInfo@ioSkill@@UAEXPAVioBaseChar@@PAVioPlayStage@@AAVSP2Packet@@@Z
	DD	FLAT:?ApplyExtraPassiveSkillInfo@ioSkill@@UAEXPAVioBaseChar@@PAVioPlayStage@@AAVSP2Packet@@@Z
	DD	FLAT:?StartPreDelayEffect@ioCountSkill@@UAEXPAVioBaseChar@@@Z
	DD	FLAT:?EndPreDelayEffect@ioCountSkill@@UAEXPAVioBaseChar@@@Z
	DD	FLAT:?IsUseAutoTargetValue@ioCountSkill@@UAE_NXZ
	DD	FLAT:?IsAutoTargetDownState@ioSkill@@UAE_NXZ
	DD	FLAT:?CheckUseBuff@ioSkill@@UAE_NPAVioBaseChar@@@Z
	DD	FLAT:?CheckUseItemMesh@ioSkill@@UAE_NXZ
	DD	FLAT:?CheckUseActiveCount@ioSkill@@UAE_NXZ
	DD	FLAT:?CheckAniRotate@ioSkill@@UAEXPAVioBaseChar@@@Z
	DD	FLAT:?IsEnableDashCheck@ioSkill@@UAE_NPAVioBaseChar@@@Z
	DD	FLAT:?IsEnableMultiActive@ioSkill@@UAE_NPAVioBaseChar@@@Z
	DD	FLAT:?IsInvisibleBottomCircle@ioSkill@@UAE_NPAVioBaseChar@@@Z
	DD	FLAT:?GetAutoTargetValue@ioSkill@@UAEXAAM00@Z
	DD	FLAT:?IsCanJumpingSkill@ioSkill@@UBE_NXZ
	DD	FLAT:?IsCanJumpingSkillOnBlowWound@ioSkill@@UBE_NXZ
	DD	FLAT:?IsCanDownSkill@ioSkill@@UBE_NXZ
	DD	FLAT:?IsCanBlowWoundSkill@ioSkill@@UBE_NXZ
	DD	FLAT:?IsCanWoundSkill@ioSkill@@UBE_NXZ
	DD	FLAT:?GetSkillGravityRate@ioSkill@@UAEMXZ
	DD	FLAT:?GetSkillMotionName@ioSkill@@UBEABVioHashString@@XZ
	DD	FLAT:?HasSkillMotion@ioSkill@@UBE_NXZ
	DD	FLAT:?GetSkillMotionRate@ioSkill@@UBEMXZ
	DD	FLAT:?IsPreDelayProtect@ioSkill@@UBE_NXZ
	DD	FLAT:?GetPreDelayAniName@ioSkill@@UBEABVioHashString@@XZ
	DD	FLAT:?GetPreDelayTime@ioSkill@@UBEKXZ
	DD	FLAT:?GetPreDelayOwnerEffect@ioSkill@@UBEABVioHashString@@XZ
	DD	FLAT:?GetPreDelayOtherEffect@ioSkill@@UBEABVioHashString@@XZ
	DD	FLAT:?SetCancelSkill@ioSkill@@UAEXPAVioBaseChar@@@Z
	DD	FLAT:?ClearAirJump@ioSkill@@MAEXXZ
	DD	FLAT:?SetAirJump@ioSkill@@MAEXPAVioBaseChar@@HM@Z
	DD	FLAT:?CheckAirJump@ioSkill@@MAEXPAVioBaseChar@@@Z
	DD	FLAT:?UseActiveCount@ioSkill@@UAE_NPAVioBaseChar@@@Z
	DD	FLAT:?GetMaxActiveCount@ioSkill@@UAEHPAVioBaseChar@@@Z
	DD	FLAT:?GetCurActiveCount@ioSkill@@UAEHPAVioBaseChar@@@Z
	DD	FLAT:?HideHPGauge@ioSkill@@UAE_NXZ
	DD	FLAT:?SetInfoByApplyWeapon@ioSkill@@UAEXPAVioBaseChar@@0K_N@Z
	DD	FLAT:?SetCollisionByApplySkill@ioSkill@@UAEXXZ
	DD	FLAT:?SetChargingRateForWeapon@ioSkill@@UAEXPAVioWeapon@@@Z
	DD	FLAT:?CheckExceptionCamera@ioSkill@@UAE_NXZ
	DD	FLAT:?GetExceptionCameraPos@ioSkill@@UAE?AUD3DXVECTOR3@@PAVioBaseChar@@@Z
	DD	FLAT:?IsFixedExceptionCamera@ioSkill@@UAE_NXZ
	DD	FLAT:?IsUseActiveCnt@ioSkill@@UBE_NXZ
	DD	FLAT:?GetMaxActiveCnt@ioSkill@@UBEHPAVioBaseChar@@@Z
	DD	FLAT:?GetCurActiveCnt@ioSkill@@UBEHPAVioBaseChar@@@Z
	DD	FLAT:??_EioBuffCountSkill@@UAEPAXI@Z
	DD	FLAT:?StartPreDelayAnimation@ioCountSkill@@MAE_NPAVioBaseChar@@@Z
	DD	FLAT:?AttackSkillFire@ioCountSkill@@MAEXPAVioBaseChar@@@Z
	DD	FLAT:?GetAttackTimeRate@ioCountSkill@@MBEMXZ
	DD	FLAT:?GetAttackEndTimeRate@ioCountSkill@@MBEMXZ
	DD	FLAT:?LoadNormalAttribute@ioCountSkill@@MAEXAAVioINILoader@@@Z
	DD	FLAT:?LoadDownAttribute@ioCountSkill@@MAEXAAVioINILoader@@@Z
	DD	FLAT:?LoadJumpAttribute@ioCountSkill@@MAEXAAVioINILoader@@@Z
	DD	FLAT:?GetAttribute@ioCountSkill@@MAEAAUAttackAttribute@@XZ
	DD	FLAT:?GetAttributeConst@ioCountSkill@@MBEABUAttackAttribute@@XZ
	DD	FLAT:?IsCanStateEscape@ioCountSkill@@UBE_NXZ
	DD	FLAT:?IsCanStateEscapeOnStand@ioCountSkill@@UBE_NPAVioBaseChar@@@Z
	DD	FLAT:?IsCanStateEscapeOnAir@ioCountSkill@@UBE_NPAVioBaseChar@@@Z
	DD	FLAT:?IsCanStateEscapeOnDown@ioCountSkill@@UBE_NPAVioBaseChar@@@Z
	DD	FLAT:?EnableRecoveryCount@ioCountSkill@@UAE_NPAVioBaseChar@@@Z
	DD	FLAT:?RecoveryCount@ioCountSkill@@UAEXPAVioBaseChar@@@Z
	DD	FLAT:?GetCurUseCount@ioCountSkill@@UAEHXZ
	DD	FLAT:?GetMaxUseCount@ioCountSkill@@UAEHXZ
	DD	FLAT:?GetNeedCount@ioCountSkill@@UAEHXZ
	DD	FLAT:?ReduceNeedCount@ioBuffCountSkill@@UAEHXZ
CONST	ENDS
;	COMDAT xdata$x
xdata$x	SEGMENT
__unwindtable$??0ioBuffCountSkill@@QAE@XZ DD 0ffffffffH
	DD	FLAT:__unwindfunclet$??0ioBuffCountSkill@@QAE@XZ$0
	DD	00H
	DD	FLAT:__unwindfunclet$??0ioBuffCountSkill@@QAE@XZ$1
	DD	01H
	DD	FLAT:__unwindfunclet$??0ioBuffCountSkill@@QAE@XZ$2
__ehfuncinfo$??0ioBuffCountSkill@@QAE@XZ DD 019930522H
	DD	03H
	DD	FLAT:__unwindtable$??0ioBuffCountSkill@@QAE@XZ
	DD	2 DUP(00H)
	DD	2 DUP(00H)
	DD	00H
	DD	01H
; Function compile flags: /Ogsp
; File d:\lost saga for developer\youtube\tutorial\source\src\lsclient\iobuffcountskill.cpp
xdata$x	ENDS
;	COMDAT ??0ioBuffCountSkill@@QAE@XZ
_TEXT	SEGMENT
_this$ = -16						; size = 4
__$EHRec$ = -12						; size = 12
??0ioBuffCountSkill@@QAE@XZ PROC			; ioBuffCountSkill::ioBuffCountSkill, COMDAT
; _this$ = ecx

; 11   : {

  00000	6a 04		 push	 4
  00002	b8 00 00 00 00	 mov	 eax, __ehhandler$??0ioBuffCountSkill@@QAE@XZ
  00007	e8 00 00 00 00	 call	 __EH_prolog3
  0000c	8b f1		 mov	 esi, ecx
  0000e	89 75 f0	 mov	 DWORD PTR _this$[ebp], esi
  00011	e8 00 00 00 00	 call	 ??0ioCountSkill@@QAE@XZ	; ioCountSkill::ioCountSkill
  00016	33 c9		 xor	 ecx, ecx
  00018	c7 06 00 00 00
	00		 mov	 DWORD PTR [esi], OFFSET ??_7ioBuffCountSkill@@6B@
  0001e	89 4d fc	 mov	 DWORD PTR __$EHRec$[ebp+8], ecx
  00021	89 8e 6c 12 00
	00		 mov	 DWORD PTR [esi+4716], ecx
  00027	89 8e 70 12 00
	00		 mov	 DWORD PTR [esi+4720], ecx
  0002d	89 8e 74 12 00
	00		 mov	 DWORD PTR [esi+4724], ecx
  00033	89 8e 7c 12 00
	00		 mov	 DWORD PTR [esi+4732], ecx
  00039	89 8e 80 12 00
	00		 mov	 DWORD PTR [esi+4736], ecx
  0003f	89 8e 84 12 00
	00		 mov	 DWORD PTR [esi+4740], ecx

; 12   : 	Init();

  00045	8b ce		 mov	 ecx, esi
  00047	c6 45 fc 02	 mov	 BYTE PTR __$EHRec$[ebp+8], 2
  0004b	e8 00 00 00 00	 call	 ?Init@ioBuffCountSkill@@IAEXXZ ; ioBuffCountSkill::Init

; 13   : }

  00050	8b c6		 mov	 eax, esi
  00052	e8 00 00 00 00	 call	 __EH_epilog3
  00057	c3		 ret	 0
_TEXT	ENDS
;	COMDAT text$x
text$x	SEGMENT
__unwindfunclet$??0ioBuffCountSkill@@QAE@XZ$0:
  00000	8b 4d f0	 mov	 ecx, DWORD PTR _this$[ebp]
  00003	e9 00 00 00 00	 jmp	 ??1ioCountSkill@@UAE@XZ	; ioCountSkill::~ioCountSkill
__unwindfunclet$??0ioBuffCountSkill@@QAE@XZ$1:
  00008	8b 4d f0	 mov	 ecx, DWORD PTR _this$[ebp]
  0000b	81 c1 6c 12 00
	00		 add	 ecx, 4716		; 0000126cH
  00011	e9 00 00 00 00	 jmp	 ??1?$vector@UBuffInfo@ioBuffCountSkill@@V?$allocator@UBuffInfo@ioBuffCountSkill@@@std@@@std@@QAE@XZ ; std::vector<ioBuffCountSkill::BuffInfo,std::allocator<ioBuffCountSkill::BuffInfo> >::~vector<ioBuffCountSkill::BuffInfo,std::allocator<ioBuffCountSkill::BuffInfo> >
__unwindfunclet$??0ioBuffCountSkill@@QAE@XZ$2:
  00016	8b 4d f0	 mov	 ecx, DWORD PTR _this$[ebp]
  00019	81 c1 7c 12 00
	00		 add	 ecx, 4732		; 0000127cH
  0001f	e9 00 00 00 00	 jmp	 ??1?$vector@VioHashString@@V?$allocator@VioHashString@@@std@@@std@@QAE@XZ ; std::vector<ioHashString,std::allocator<ioHashString> >::~vector<ioHashString,std::allocator<ioHashString> >
__ehhandler$??0ioBuffCountSkill@@QAE@XZ:
  00024	8b 54 24 08	 mov	 edx, DWORD PTR [esp+8]
  00028	8d 42 0c	 lea	 eax, DWORD PTR [edx+12]
  0002b	8b 4a ec	 mov	 ecx, DWORD PTR [edx-20]
  0002e	33 c8		 xor	 ecx, eax
  00030	e8 00 00 00 00	 call	 @__security_check_cookie@4
  00035	b8 00 00 00 00	 mov	 eax, OFFSET __ehfuncinfo$??0ioBuffCountSkill@@QAE@XZ
  0003a	e9 00 00 00 00	 jmp	 ___CxxFrameHandler3
text$x	ENDS
??0ioBuffCountSkill@@QAE@XZ ENDP			; ioBuffCountSkill::ioBuffCountSkill
; Function compile flags: /Ogsp
; File d:\lost saga for developer\youtube\tutorial\source\src\lsclient\ioskill.h
;	COMDAT ?GetDefenseSkillBreakeType@ioSkill@@UBE?AW4DefenseBreakType@@XZ
_TEXT	SEGMENT
?GetDefenseSkillBreakeType@ioSkill@@UBE?AW4DefenseBreakType@@XZ PROC ; ioSkill::GetDefenseSkillBreakeType, COMDAT
; _this$ = ecx

; 327  : 	virtual DefenseBreakType GetDefenseSkillBreakeType() const { return m_eDefenseSkillBreakType; }

  00000	8b 81 30 0e 00
	00		 mov	 eax, DWORD PTR [ecx+3632]
  00006	c3		 ret	 0
?GetDefenseSkillBreakeType@ioSkill@@UBE?AW4DefenseBreakType@@XZ ENDP ; ioSkill::GetDefenseSkillBreakeType
; Function compile flags: /Ogsp
_TEXT	ENDS
;	COMDAT ?GetSkillEndNextJumpAmt@ioSkill@@UBEMXZ
_TEXT	SEGMENT
?GetSkillEndNextJumpAmt@ioSkill@@UBEMXZ PROC		; ioSkill::GetSkillEndNextJumpAmt, COMDAT
; _this$ = ecx

; 335  : 	virtual float GetSkillEndNextJumpAmt() const { return m_fSkillEndNextJumpAmt; }

  00000	d9 81 4c 05 00
	00		 fld	 DWORD PTR [ecx+1356]
  00006	c3		 ret	 0
?GetSkillEndNextJumpAmt@ioSkill@@UBEMXZ ENDP		; ioSkill::GetSkillEndNextJumpAmt
; Function compile flags: /Ogsp
_TEXT	ENDS
;	COMDAT ?GetSkillEndNextLandRate@ioSkill@@UBEMXZ
_TEXT	SEGMENT
?GetSkillEndNextLandRate@ioSkill@@UBEMXZ PROC		; ioSkill::GetSkillEndNextLandRate, COMDAT
; _this$ = ecx

; 336  : 	virtual float GetSkillEndNextLandRate() const { return m_fSkillEndNextLandRate; }

  00000	d9 81 50 05 00
	00		 fld	 DWORD PTR [ecx+1360]
  00006	c3		 ret	 0
?GetSkillEndNextLandRate@ioSkill@@UBEMXZ ENDP		; ioSkill::GetSkillEndNextLandRate
; Function compile flags: /Ogsp
_TEXT	ENDS
;	COMDAT ?GetSkillEndNextJumpMustEnable@ioSkill@@UAE?AW4SkillEndJumpType@@XZ
_TEXT	SEGMENT
?GetSkillEndNextJumpMustEnable@ioSkill@@UAE?AW4SkillEndJumpType@@XZ PROC ; ioSkill::GetSkillEndNextJumpMustEnable, COMDAT
; _this$ = ecx

; 337  : 	virtual SkillEndJumpType GetSkillEndNextJumpMustEnable(){ return SEJT_DEFAULT; }

  00000	33 c0		 xor	 eax, eax
  00002	c3		 ret	 0
?GetSkillEndNextJumpMustEnable@ioSkill@@UAE?AW4SkillEndJumpType@@XZ ENDP ; ioSkill::GetSkillEndNextJumpMustEnable
; Function compile flags: /Ogsp
_TEXT	ENDS
;	COMDAT ?EnableChangeGrapplingTargetPos@ioSkill@@UBE_NXZ
_TEXT	SEGMENT
?EnableChangeGrapplingTargetPos@ioSkill@@UBE_NXZ PROC	; ioSkill::EnableChangeGrapplingTargetPos, COMDAT
; _this$ = ecx

; 355  : 	virtual bool EnableChangeGrapplingTargetPos() const { return m_bChangeGrapplingTargetPos; }

  00000	8a 81 40 09 00
	00		 mov	 al, BYTE PTR [ecx+2368]
  00006	c3		 ret	 0
?EnableChangeGrapplingTargetPos@ioSkill@@UBE_NXZ ENDP	; ioSkill::EnableChangeGrapplingTargetPos
; Function compile flags: /Ogsp
_TEXT	ENDS
;	COMDAT ?IsInvisibleBottomCircle@ioSkill@@UAE_NPAVioBaseChar@@@Z
_TEXT	SEGMENT
_pChar$ = 8						; size = 4
?IsInvisibleBottomCircle@ioSkill@@UAE_NPAVioBaseChar@@@Z PROC ; ioSkill::IsInvisibleBottomCircle, COMDAT
; _this$ = ecx

; 393  : 	virtual bool IsInvisibleBottomCircle( ioBaseChar *pChar ) { return false; }

  00000	32 c0		 xor	 al, al
  00002	c2 04 00	 ret	 4
?IsInvisibleBottomCircle@ioSkill@@UAE_NPAVioBaseChar@@@Z ENDP ; ioSkill::IsInvisibleBottomCircle
; Function compile flags: /Ogsp
_TEXT	ENDS
;	COMDAT ?IsUseActiveCnt@ioSkill@@UBE_NXZ
_TEXT	SEGMENT
?IsUseActiveCnt@ioSkill@@UBE_NXZ PROC			; ioSkill::IsUseActiveCnt, COMDAT
; _this$ = ecx

; 544  : 	virtual bool IsUseActiveCnt() const { return false; }

  00000	32 c0		 xor	 al, al
  00002	c3		 ret	 0
?IsUseActiveCnt@ioSkill@@UBE_NXZ ENDP			; ioSkill::IsUseActiveCnt
; Function compile flags: /Ogsp
_TEXT	ENDS
;	COMDAT ?GetMaxActiveCnt@ioSkill@@UBEHPAVioBaseChar@@@Z
_TEXT	SEGMENT
_pChar$ = 8						; size = 4
?GetMaxActiveCnt@ioSkill@@UBEHPAVioBaseChar@@@Z PROC	; ioSkill::GetMaxActiveCnt, COMDAT
; _this$ = ecx

; 545  : 	virtual int GetMaxActiveCnt( ioBaseChar *pChar ) const { return 0; }

  00000	33 c0		 xor	 eax, eax
  00002	c2 04 00	 ret	 4
?GetMaxActiveCnt@ioSkill@@UBEHPAVioBaseChar@@@Z ENDP	; ioSkill::GetMaxActiveCnt
; Function compile flags: /Ogsp
_TEXT	ENDS
;	COMDAT ?GetCurActiveCnt@ioSkill@@UBEHPAVioBaseChar@@@Z
_TEXT	SEGMENT
_pChar$ = 8						; size = 4
?GetCurActiveCnt@ioSkill@@UBEHPAVioBaseChar@@@Z PROC	; ioSkill::GetCurActiveCnt, COMDAT
; _this$ = ecx

; 546  : 	virtual int GetCurActiveCnt( ioBaseChar *pChar ) const { return 0; }

  00000	33 c0		 xor	 eax, eax
  00002	c2 04 00	 ret	 4
?GetCurActiveCnt@ioSkill@@UBEHPAVioBaseChar@@@Z ENDP	; ioSkill::GetCurActiveCnt
; Function compile flags: /Ogsp
_TEXT	ENDS
;	COMDAT ?IsCanJumpingSkill@ioSkill@@UBE_NXZ
_TEXT	SEGMENT
_value$539543 = -1					; size = 1
?IsCanJumpingSkill@ioSkill@@UBE_NXZ PROC		; ioSkill::IsCanJumpingSkill, COMDAT
; _this$ = ecx

; 431  : 	virtual bool IsCanJumpingSkill() const { return m_bEnableJumpingSkill; }

  00000	55		 push	 ebp
  00001	8b ec		 mov	 ebp, esp
  00003	51		 push	 ecx
  00004	8d 45 ff	 lea	 eax, DWORD PTR _value$539543[ebp]
  00007	50		 push	 eax
  00008	81 c1 9c 03 00
	00		 add	 ecx, 924		; 0000039cH
  0000e	e8 00 00 00 00	 call	 ?DecryptValueToPool@?$CEncrypt@_N@@QAEXPA_N@Z ; CEncrypt<bool>::DecryptValueToPool
  00013	8a 45 ff	 mov	 al, BYTE PTR _value$539543[ebp]
  00016	c9		 leave
  00017	c3		 ret	 0
?IsCanJumpingSkill@ioSkill@@UBE_NXZ ENDP		; ioSkill::IsCanJumpingSkill
; Function compile flags: /Ogsp
_TEXT	ENDS
;	COMDAT ?IsCanJumpingSkillOnBlowWound@ioSkill@@UBE_NXZ
_TEXT	SEGMENT
_value$539550 = -1					; size = 1
?IsCanJumpingSkillOnBlowWound@ioSkill@@UBE_NXZ PROC	; ioSkill::IsCanJumpingSkillOnBlowWound, COMDAT
; _this$ = ecx

; 432  : 	virtual bool IsCanJumpingSkillOnBlowWound() const { return m_bEnableJumpingSkillOnBlowWound; }

  00000	55		 push	 ebp
  00001	8b ec		 mov	 ebp, esp
  00003	51		 push	 ecx
  00004	8d 45 ff	 lea	 eax, DWORD PTR _value$539550[ebp]
  00007	50		 push	 eax
  00008	81 c1 cc 03 00
	00		 add	 ecx, 972		; 000003ccH
  0000e	e8 00 00 00 00	 call	 ?DecryptValueToPool@?$CEncrypt@_N@@QAEXPA_N@Z ; CEncrypt<bool>::DecryptValueToPool
  00013	8a 45 ff	 mov	 al, BYTE PTR _value$539550[ebp]
  00016	c9		 leave
  00017	c3		 ret	 0
?IsCanJumpingSkillOnBlowWound@ioSkill@@UBE_NXZ ENDP	; ioSkill::IsCanJumpingSkillOnBlowWound
; Function compile flags: /Ogsp
_TEXT	ENDS
;	COMDAT ?IsCanDownSkill@ioSkill@@UBE_NXZ
_TEXT	SEGMENT
_value$539557 = -1					; size = 1
?IsCanDownSkill@ioSkill@@UBE_NXZ PROC			; ioSkill::IsCanDownSkill, COMDAT
; _this$ = ecx

; 437  : 	virtual bool IsCanDownSkill() const { return m_bEnableDownSkill; }

  00000	55		 push	 ebp
  00001	8b ec		 mov	 ebp, esp
  00003	51		 push	 ecx
  00004	8d 45 ff	 lea	 eax, DWORD PTR _value$539557[ebp]
  00007	50		 push	 eax
  00008	81 c1 5c 04 00
	00		 add	 ecx, 1116		; 0000045cH
  0000e	e8 00 00 00 00	 call	 ?DecryptValueToPool@?$CEncrypt@_N@@QAEXPA_N@Z ; CEncrypt<bool>::DecryptValueToPool
  00013	8a 45 ff	 mov	 al, BYTE PTR _value$539557[ebp]
  00016	c9		 leave
  00017	c3		 ret	 0
?IsCanDownSkill@ioSkill@@UBE_NXZ ENDP			; ioSkill::IsCanDownSkill
; Function compile flags: /Ogsp
_TEXT	ENDS
;	COMDAT ?IsCanBlowWoundSkill@ioSkill@@UBE_NXZ
_TEXT	SEGMENT
_value$539564 = -1					; size = 1
?IsCanBlowWoundSkill@ioSkill@@UBE_NXZ PROC		; ioSkill::IsCanBlowWoundSkill, COMDAT
; _this$ = ecx

; 440  : 	virtual bool IsCanBlowWoundSkill() const { return m_bEnableBlowWoundSkill; }

  00000	55		 push	 ebp
  00001	8b ec		 mov	 ebp, esp
  00003	51		 push	 ecx
  00004	8d 45 ff	 lea	 eax, DWORD PTR _value$539564[ebp]
  00007	50		 push	 eax
  00008	81 c1 8c 04 00
	00		 add	 ecx, 1164		; 0000048cH
  0000e	e8 00 00 00 00	 call	 ?DecryptValueToPool@?$CEncrypt@_N@@QAEXPA_N@Z ; CEncrypt<bool>::DecryptValueToPool
  00013	8a 45 ff	 mov	 al, BYTE PTR _value$539564[ebp]
  00016	c9		 leave
  00017	c3		 ret	 0
?IsCanBlowWoundSkill@ioSkill@@UBE_NXZ ENDP		; ioSkill::IsCanBlowWoundSkill
; Function compile flags: /Ogsp
_TEXT	ENDS
;	COMDAT ?IsCanWoundSkill@ioSkill@@UBE_NXZ
_TEXT	SEGMENT
_value$539571 = -1					; size = 1
?IsCanWoundSkill@ioSkill@@UBE_NXZ PROC			; ioSkill::IsCanWoundSkill, COMDAT
; _this$ = ecx

; 446  : 	virtual bool IsCanWoundSkill() const { return m_bEnableWoundSkill; }

  00000	55		 push	 ebp
  00001	8b ec		 mov	 ebp, esp
  00003	51		 push	 ecx
  00004	8d 45 ff	 lea	 eax, DWORD PTR _value$539571[ebp]
  00007	50		 push	 eax
  00008	81 c1 54 05 00
	00		 add	 ecx, 1364		; 00000554H
  0000e	e8 00 00 00 00	 call	 ?DecryptValueToPool@?$CEncrypt@_N@@QAEXPA_N@Z ; CEncrypt<bool>::DecryptValueToPool
  00013	8a 45 ff	 mov	 al, BYTE PTR _value$539571[ebp]
  00016	c9		 leave
  00017	c3		 ret	 0
?IsCanWoundSkill@ioSkill@@UBE_NXZ ENDP			; ioSkill::IsCanWoundSkill
; Function compile flags: /Ogsp
; File d:\lost saga for developer\youtube\tutorial\source\src\lsclient\iocountskill.h
_TEXT	ENDS
;	COMDAT ?GetCurUseCount@ioCountSkill@@UAEHXZ
_TEXT	SEGMENT
_value$539578 = -4					; size = 4
?GetCurUseCount@ioCountSkill@@UAEHXZ PROC		; ioCountSkill::GetCurUseCount, COMDAT
; _this$ = ecx

; 88   : 	virtual int  GetCurUseCount() { return m_iCurUseCount; }

  00000	55		 push	 ebp
  00001	8b ec		 mov	 ebp, esp
  00003	51		 push	 ecx
  00004	8d 45 fc	 lea	 eax, DWORD PTR _value$539578[ebp]
  00007	50		 push	 eax
  00008	81 c1 14 11 00
	00		 add	 ecx, 4372		; 00001114H
  0000e	e8 00 00 00 00	 call	 ?DecryptValueToPool@?$CEncrypt@H@@QAEXPAH@Z ; CEncrypt<int>::DecryptValueToPool
  00013	8b 45 fc	 mov	 eax, DWORD PTR _value$539578[ebp]
  00016	c9		 leave
  00017	c3		 ret	 0
?GetCurUseCount@ioCountSkill@@UAEHXZ ENDP		; ioCountSkill::GetCurUseCount
; Function compile flags: /Ogsp
_TEXT	ENDS
;	COMDAT ?GetMaxUseCount@ioCountSkill@@UAEHXZ
_TEXT	SEGMENT
_value$539584 = -4					; size = 4
?GetMaxUseCount@ioCountSkill@@UAEHXZ PROC		; ioCountSkill::GetMaxUseCount, COMDAT
; _this$ = ecx

; 89   : 	virtual int  GetMaxUseCount() { return m_iMaxUseCount; }

  00000	55		 push	 ebp
  00001	8b ec		 mov	 ebp, esp
  00003	51		 push	 ecx
  00004	8d 45 fc	 lea	 eax, DWORD PTR _value$539584[ebp]
  00007	50		 push	 eax
  00008	81 c1 e4 10 00
	00		 add	 ecx, 4324		; 000010e4H
  0000e	e8 00 00 00 00	 call	 ?DecryptValueToPool@?$CEncrypt@H@@QAEXPAH@Z ; CEncrypt<int>::DecryptValueToPool
  00013	8b 45 fc	 mov	 eax, DWORD PTR _value$539584[ebp]
  00016	c9		 leave
  00017	c3		 ret	 0
?GetMaxUseCount@ioCountSkill@@UAEHXZ ENDP		; ioCountSkill::GetMaxUseCount
; Function compile flags: /Ogsp
_TEXT	ENDS
;	COMDAT ?GetNeedCount@ioCountSkill@@UAEHXZ
_TEXT	SEGMENT
_value$539590 = -4					; size = 4
?GetNeedCount@ioCountSkill@@UAEHXZ PROC			; ioCountSkill::GetNeedCount, COMDAT
; _this$ = ecx

; 90   : 	virtual int  GetNeedCount() { return m_iNeedCount; }

  00000	55		 push	 ebp
  00001	8b ec		 mov	 ebp, esp
  00003	51		 push	 ecx
  00004	8d 45 fc	 lea	 eax, DWORD PTR _value$539590[ebp]
  00007	50		 push	 eax
  00008	81 c1 44 11 00
	00		 add	 ecx, 4420		; 00001144H
  0000e	e8 00 00 00 00	 call	 ?DecryptValueToPool@?$CEncrypt@H@@QAEXPAH@Z ; CEncrypt<int>::DecryptValueToPool
  00013	8b 45 fc	 mov	 eax, DWORD PTR _value$539590[ebp]
  00016	c9		 leave
  00017	c3		 ret	 0
?GetNeedCount@ioCountSkill@@UAEHXZ ENDP			; ioCountSkill::GetNeedCount
_TEXT	ENDS
PUBLIC	??0ioBuffCountSkill@@QAE@ABV0@@Z		; ioBuffCountSkill::ioBuffCountSkill
EXTRN	??0ioCountSkill@@QAE@ABV0@@Z:PROC		; ioCountSkill::ioCountSkill
;	COMDAT xdata$x
; File c:\program files (x86)\microsoft visual studio 10.0\vc\include\xmemory
xdata$x	SEGMENT
__unwindtable$??0ioBuffCountSkill@@QAE@ABV0@@Z DD 0ffffffffH
	DD	FLAT:__unwindfunclet$??0ioBuffCountSkill@@QAE@ABV0@@Z$0
	DD	00H
	DD	FLAT:__unwindfunclet$??0ioBuffCountSkill@@QAE@ABV0@@Z$1
	DD	01H
	DD	FLAT:__unwindfunclet$??0ioBuffCountSkill@@QAE@ABV0@@Z$2
__ehfuncinfo$??0ioBuffCountSkill@@QAE@ABV0@@Z DD 019930522H
	DD	03H
	DD	FLAT:__unwindtable$??0ioBuffCountSkill@@QAE@ABV0@@Z
	DD	2 DUP(00H)
	DD	2 DUP(00H)
	DD	00H
	DD	01H
; Function compile flags: /Ogsp
; File d:\lost saga for developer\youtube\tutorial\source\src\lsclient\iobuffcountskill.cpp
xdata$x	ENDS
;	COMDAT ??0ioBuffCountSkill@@QAE@ABV0@@Z
_TEXT	SEGMENT
_this$ = -16						; size = 4
__$EHRec$ = -12						; size = 12
_rhs$ = 8						; size = 4
??0ioBuffCountSkill@@QAE@ABV0@@Z PROC			; ioBuffCountSkill::ioBuffCountSkill, COMDAT
; _this$ = ecx

; 20   : {

  00000	6a 04		 push	 4
  00002	b8 00 00 00 00	 mov	 eax, __ehhandler$??0ioBuffCountSkill@@QAE@ABV0@@Z
  00007	e8 00 00 00 00	 call	 __EH_prolog3
  0000c	8b f1		 mov	 esi, ecx
  0000e	89 75 f0	 mov	 DWORD PTR _this$[ebp], esi
  00011	8b 7d 08	 mov	 edi, DWORD PTR _rhs$[ebp]
  00014	57		 push	 edi
  00015	e8 00 00 00 00	 call	 ??0ioCountSkill@@QAE@ABV0@@Z ; ioCountSkill::ioCountSkill
  0001a	83 65 fc 00	 and	 DWORD PTR __$EHRec$[ebp+8], 0
  0001e	8d 87 6c 12 00
	00		 lea	 eax, DWORD PTR [edi+4716]
  00024	50		 push	 eax
  00025	8d 8e 6c 12 00
	00		 lea	 ecx, DWORD PTR [esi+4716]
  0002b	c7 06 00 00 00
	00		 mov	 DWORD PTR [esi], OFFSET ??_7ioBuffCountSkill@@6B@
  00031	e8 00 00 00 00	 call	 ??0?$vector@UBuffInfo@ioBuffCountSkill@@V?$allocator@UBuffInfo@ioBuffCountSkill@@@std@@@std@@QAE@ABV01@@Z ; std::vector<ioBuffCountSkill::BuffInfo,std::allocator<ioBuffCountSkill::BuffInfo> >::vector<ioBuffCountSkill::BuffInfo,std::allocator<ioBuffCountSkill::BuffInfo> >
  00036	83 a6 7c 12 00
	00 00		 and	 DWORD PTR [esi+4732], 0
  0003d	83 a6 80 12 00
	00 00		 and	 DWORD PTR [esi+4736], 0
  00044	83 a6 84 12 00
	00 00		 and	 DWORD PTR [esi+4740], 0
  0004b	8b 87 8c 12 00
	00		 mov	 eax, DWORD PTR [edi+4748]
  00051	89 86 8c 12 00
	00		 mov	 DWORD PTR [esi+4748], eax
  00057	8a 87 90 12 00
	00		 mov	 al, BYTE PTR [edi+4752]

; 21   : 	Init();

  0005d	8b ce		 mov	 ecx, esi
  0005f	c6 45 fc 02	 mov	 BYTE PTR __$EHRec$[ebp+8], 2
  00063	88 86 90 12 00
	00		 mov	 BYTE PTR [esi+4752], al
  00069	e8 00 00 00 00	 call	 ?Init@ioBuffCountSkill@@IAEXXZ ; ioBuffCountSkill::Init

; 22   : }

  0006e	8b c6		 mov	 eax, esi
  00070	e8 00 00 00 00	 call	 __EH_epilog3
  00075	c2 04 00	 ret	 4
_TEXT	ENDS
;	COMDAT text$x
text$x	SEGMENT
__unwindfunclet$??0ioBuffCountSkill@@QAE@ABV0@@Z$0:
  00000	8b 4d f0	 mov	 ecx, DWORD PTR _this$[ebp]
  00003	e9 00 00 00 00	 jmp	 ??1ioCountSkill@@UAE@XZ	; ioCountSkill::~ioCountSkill
__unwindfunclet$??0ioBuffCountSkill@@QAE@ABV0@@Z$1:
  00008	8b 4d f0	 mov	 ecx, DWORD PTR _this$[ebp]
  0000b	81 c1 6c 12 00
	00		 add	 ecx, 4716		; 0000126cH
  00011	e9 00 00 00 00	 jmp	 ??1?$vector@UBuffInfo@ioBuffCountSkill@@V?$allocator@UBuffInfo@ioBuffCountSkill@@@std@@@std@@QAE@XZ ; std::vector<ioBuffCountSkill::BuffInfo,std::allocator<ioBuffCountSkill::BuffInfo> >::~vector<ioBuffCountSkill::BuffInfo,std::allocator<ioBuffCountSkill::BuffInfo> >
__unwindfunclet$??0ioBuffCountSkill@@QAE@ABV0@@Z$2:
  00016	8b 4d f0	 mov	 ecx, DWORD PTR _this$[ebp]
  00019	81 c1 7c 12 00
	00		 add	 ecx, 4732		; 0000127cH
  0001f	e9 00 00 00 00	 jmp	 ??1?$vector@VioHashString@@V?$allocator@VioHashString@@@std@@@std@@QAE@XZ ; std::vector<ioHashString,std::allocator<ioHashString> >::~vector<ioHashString,std::allocator<ioHashString> >
__ehhandler$??0ioBuffCountSkill@@QAE@ABV0@@Z:
  00024	8b 54 24 08	 mov	 edx, DWORD PTR [esp+8]
  00028	8d 42 0c	 lea	 eax, DWORD PTR [edx+12]
  0002b	8b 4a ec	 mov	 ecx, DWORD PTR [edx-20]
  0002e	33 c8		 xor	 ecx, eax
  00030	e8 00 00 00 00	 call	 @__security_check_cookie@4
  00035	b8 00 00 00 00	 mov	 eax, OFFSET __ehfuncinfo$??0ioBuffCountSkill@@QAE@ABV0@@Z
  0003a	e9 00 00 00 00	 jmp	 ___CxxFrameHandler3
text$x	ENDS
??0ioBuffCountSkill@@QAE@ABV0@@Z ENDP			; ioBuffCountSkill::ioBuffCountSkill
PUBLIC	??1ioBuffCountSkill@@UAE@XZ			; ioBuffCountSkill::~ioBuffCountSkill
;	COMDAT xdata$x
; File c:\program files (x86)\microsoft visual studio 10.0\vc\include\vector
xdata$x	SEGMENT
__unwindtable$??1ioBuffCountSkill@@UAE@XZ DD 0ffffffffH
	DD	FLAT:__unwindfunclet$??1ioBuffCountSkill@@UAE@XZ$0
	DD	00H
	DD	FLAT:__unwindfunclet$??1ioBuffCountSkill@@UAE@XZ$1
__ehfuncinfo$??1ioBuffCountSkill@@UAE@XZ DD 019930522H
	DD	02H
	DD	FLAT:__unwindtable$??1ioBuffCountSkill@@UAE@XZ
	DD	2 DUP(00H)
	DD	2 DUP(00H)
	DD	00H
	DD	01H
; Function compile flags: /Ogsp
; File d:\lost saga for developer\youtube\tutorial\source\src\lsclient\iobuffcountskill.cpp
xdata$x	ENDS
;	COMDAT ??1ioBuffCountSkill@@UAE@XZ
_TEXT	SEGMENT
_this$ = -16						; size = 4
__$EHRec$ = -12						; size = 12
??1ioBuffCountSkill@@UAE@XZ PROC			; ioBuffCountSkill::~ioBuffCountSkill, COMDAT
; _this$ = ecx

; 25   : {

  00000	6a 04		 push	 4
  00002	b8 00 00 00 00	 mov	 eax, __ehhandler$??1ioBuffCountSkill@@UAE@XZ
  00007	e8 00 00 00 00	 call	 __EH_prolog3
  0000c	8b f1		 mov	 esi, ecx
  0000e	89 75 f0	 mov	 DWORD PTR _this$[ebp], esi
  00011	c7 06 00 00 00
	00		 mov	 DWORD PTR [esi], OFFSET ??_7ioBuffCountSkill@@6B@

; 26   : }

  00017	8d 8e 7c 12 00
	00		 lea	 ecx, DWORD PTR [esi+4732]
  0001d	c7 45 fc 01 00
	00 00		 mov	 DWORD PTR __$EHRec$[ebp+8], 1
  00024	e8 00 00 00 00	 call	 ?_Tidy@?$vector@VioHashString@@V?$allocator@VioHashString@@@std@@@std@@IAEXXZ ; std::vector<ioHashString,std::allocator<ioHashString> >::_Tidy
  00029	8d 8e 6c 12 00
	00		 lea	 ecx, DWORD PTR [esi+4716]
  0002f	c6 45 fc 00	 mov	 BYTE PTR __$EHRec$[ebp+8], 0
  00033	e8 00 00 00 00	 call	 ?_Tidy@?$vector@UBuffInfo@ioBuffCountSkill@@V?$allocator@UBuffInfo@ioBuffCountSkill@@@std@@@std@@IAEXXZ ; std::vector<ioBuffCountSkill::BuffInfo,std::allocator<ioBuffCountSkill::BuffInfo> >::_Tidy
  00038	83 4d fc ff	 or	 DWORD PTR __$EHRec$[ebp+8], -1
  0003c	8b ce		 mov	 ecx, esi
  0003e	e8 00 00 00 00	 call	 ??1ioCountSkill@@UAE@XZ	; ioCountSkill::~ioCountSkill
  00043	e8 00 00 00 00	 call	 __EH_epilog3
  00048	c3		 ret	 0
_TEXT	ENDS
;	COMDAT text$x
text$x	SEGMENT
__unwindfunclet$??1ioBuffCountSkill@@UAE@XZ$0:
  00000	8b 4d f0	 mov	 ecx, DWORD PTR _this$[ebp]
  00003	e9 00 00 00 00	 jmp	 ??1ioCountSkill@@UAE@XZ	; ioCountSkill::~ioCountSkill
__unwindfunclet$??1ioBuffCountSkill@@UAE@XZ$1:
  00008	8b 4d f0	 mov	 ecx, DWORD PTR _this$[ebp]
  0000b	81 c1 6c 12 00
	00		 add	 ecx, 4716		; 0000126cH
  00011	e9 00 00 00 00	 jmp	 ??1?$vector@UBuffInfo@ioBuffCountSkill@@V?$allocator@UBuffInfo@ioBuffCountSkill@@@std@@@std@@QAE@XZ ; std::vector<ioBuffCountSkill::BuffInfo,std::allocator<ioBuffCountSkill::BuffInfo> >::~vector<ioBuffCountSkill::BuffInfo,std::allocator<ioBuffCountSkill::BuffInfo> >
__ehhandler$??1ioBuffCountSkill@@UAE@XZ:
  00016	8b 54 24 08	 mov	 edx, DWORD PTR [esp+8]
  0001a	8d 42 0c	 lea	 eax, DWORD PTR [edx+12]
  0001d	8b 4a ec	 mov	 ecx, DWORD PTR [edx-20]
  00020	33 c8		 xor	 ecx, eax
  00022	e8 00 00 00 00	 call	 @__security_check_cookie@4
  00027	b8 00 00 00 00	 mov	 eax, OFFSET __ehfuncinfo$??1ioBuffCountSkill@@UAE@XZ
  0002c	e9 00 00 00 00	 jmp	 ___CxxFrameHandler3
text$x	ENDS
??1ioBuffCountSkill@@UAE@XZ ENDP			; ioBuffCountSkill::~ioBuffCountSkill
;	COMDAT xdata$x
xdata$x	SEGMENT
__unwindtable$?Clone@ioBuffCountSkill@@UAEPAVioSkill@@XZ DD 0ffffffffH
	DD	FLAT:__unwindfunclet$?Clone@ioBuffCountSkill@@UAEPAVioSkill@@XZ$0
__ehfuncinfo$?Clone@ioBuffCountSkill@@UAEPAVioSkill@@XZ DD 019930522H
	DD	01H
	DD	FLAT:__unwindtable$?Clone@ioBuffCountSkill@@UAEPAVioSkill@@XZ
	DD	2 DUP(00H)
	DD	2 DUP(00H)
	DD	00H
	DD	01H
; Function compile flags: /Ogsp
xdata$x	ENDS
;	COMDAT ?Clone@ioBuffCountSkill@@UAEPAVioSkill@@XZ
_TEXT	SEGMENT
$T539658 = -16						; size = 4
__$EHRec$ = -12						; size = 12
?Clone@ioBuffCountSkill@@UAEPAVioSkill@@XZ PROC		; ioBuffCountSkill::Clone, COMDAT
; _this$ = ecx

; 79   : {

  00000	6a 04		 push	 4
  00002	b8 00 00 00 00	 mov	 eax, __ehhandler$?Clone@ioBuffCountSkill@@UAEPAVioSkill@@XZ
  00007	e8 00 00 00 00	 call	 __EH_prolog3
  0000c	8b f1		 mov	 esi, ecx

; 80   : 	return new ioBuffCountSkill( *this );		

  0000e	68 98 12 00 00	 push	 4760			; 00001298H
  00013	e8 00 00 00 00	 call	 ??2@YAPAXI@Z		; operator new
  00018	59		 pop	 ecx
  00019	8b c8		 mov	 ecx, eax
  0001b	89 4d f0	 mov	 DWORD PTR $T539658[ebp], ecx
  0001e	33 c0		 xor	 eax, eax
  00020	89 45 fc	 mov	 DWORD PTR __$EHRec$[ebp+8], eax
  00023	3b c8		 cmp	 ecx, eax
  00025	74 06		 je	 SHORT $LN3@Clone
  00027	56		 push	 esi
  00028	e8 00 00 00 00	 call	 ??0ioBuffCountSkill@@QAE@ABV0@@Z ; ioBuffCountSkill::ioBuffCountSkill
$LN3@Clone:

; 81   : }

  0002d	e8 00 00 00 00	 call	 __EH_epilog3
  00032	c3		 ret	 0
_TEXT	ENDS
;	COMDAT text$x
text$x	SEGMENT
__unwindfunclet$?Clone@ioBuffCountSkill@@UAEPAVioSkill@@XZ$0:
  00000	ff 75 f0	 push	 DWORD PTR $T539658[ebp]
  00003	e8 00 00 00 00	 call	 ??3@YAXPAX@Z		; operator delete
  00008	59		 pop	 ecx
  00009	c3		 ret	 0
__ehhandler$?Clone@ioBuffCountSkill@@UAEPAVioSkill@@XZ:
  0000a	8b 54 24 08	 mov	 edx, DWORD PTR [esp+8]
  0000e	8d 42 0c	 lea	 eax, DWORD PTR [edx+12]
  00011	8b 4a ec	 mov	 ecx, DWORD PTR [edx-20]
  00014	33 c8		 xor	 ecx, eax
  00016	e8 00 00 00 00	 call	 @__security_check_cookie@4
  0001b	b8 00 00 00 00	 mov	 eax, OFFSET __ehfuncinfo$?Clone@ioBuffCountSkill@@UAEPAVioSkill@@XZ
  00020	e9 00 00 00 00	 jmp	 ___CxxFrameHandler3
text$x	ENDS
?Clone@ioBuffCountSkill@@UAEPAVioSkill@@XZ ENDP		; ioBuffCountSkill::Clone
PUBLIC	?push_back@?$vector@UBuffInfo@ioBuffCountSkill@@V?$allocator@UBuffInfo@ioBuffCountSkill@@@std@@@std@@QAEXABUBuffInfo@ioBuffCountSkill@@@Z ; std::vector<ioBuffCountSkill::BuffInfo,std::allocator<ioBuffCountSkill::BuffInfo> >::push_back
; Function compile flags: /Ogsp
; File c:\program files (x86)\microsoft visual studio 10.0\vc\include\vector
;	COMDAT ?push_back@?$vector@UBuffInfo@ioBuffCountSkill@@V?$allocator@UBuffInfo@ioBuffCountSkill@@@std@@@std@@QAEXABUBuffInfo@ioBuffCountSkill@@@Z
_TEXT	SEGMENT
__Val$ = 8						; size = 4
?push_back@?$vector@UBuffInfo@ioBuffCountSkill@@V?$allocator@UBuffInfo@ioBuffCountSkill@@@std@@@std@@QAEXABUBuffInfo@ioBuffCountSkill@@@Z PROC ; std::vector<ioBuffCountSkill::BuffInfo,std::allocator<ioBuffCountSkill::BuffInfo> >::push_back, COMDAT
; _this$ = ecx

; 976  : 		{	// insert element at end

  00000	55		 push	 ebp
  00001	8b ec		 mov	 ebp, esp
  00003	56		 push	 esi
  00004	8b f1		 mov	 esi, ecx

; 977  : 		if (_Inside(_STD addressof(_Val)))

  00006	8b 4e 04	 mov	 ecx, DWORD PTR [esi+4]
  00009	57		 push	 edi
  0000a	8b 7d 08	 mov	 edi, DWORD PTR __Val$[ebp]
  0000d	3b f9		 cmp	 edi, ecx
  0000f	73 33		 jae	 SHORT $LN4@push_back@2
  00011	8b 16		 mov	 edx, DWORD PTR [esi]
  00013	3b d7		 cmp	 edx, edi
  00015	77 2d		 ja	 SHORT $LN4@push_back@2

; 978  : 			{	// push back an element
; 979  : 			size_type _Idx = _STD addressof(_Val) - this->_Myfirst;

  00017	8b c7		 mov	 eax, edi
  00019	2b c2		 sub	 eax, edx
  0001b	6a 14		 push	 20			; 00000014H
  0001d	99		 cdq
  0001e	5f		 pop	 edi
  0001f	f7 ff		 idiv	 edi
  00021	8b f8		 mov	 edi, eax

; 980  : 			if (this->_Mylast == this->_Myend)

  00023	3b 4e 08	 cmp	 ecx, DWORD PTR [esi+8]
  00026	75 09		 jne	 SHORT $LN3@push_back@2

; 981  : 				_Reserve(1);

  00028	6a 01		 push	 1
  0002a	8b ce		 mov	 ecx, esi
  0002c	e8 00 00 00 00	 call	 ?_Reserve@?$vector@UBuffInfo@ioBuffCountSkill@@V?$allocator@UBuffInfo@ioBuffCountSkill@@@std@@@std@@IAEXI@Z ; std::vector<ioBuffCountSkill::BuffInfo,std::allocator<ioBuffCountSkill::BuffInfo> >::_Reserve
$LN3@push_back@2:

; 982  : 			_Orphan_range(this->_Mylast, this->_Mylast);
; 983  : 			_Cons_val(this->_Alval,
; 984  : 				this->_Mylast,
; 985  : 				this->_Myfirst[_Idx]);

  00031	6b ff 14	 imul	 edi, 20			; 00000014H
  00034	03 3e		 add	 edi, DWORD PTR [esi]
  00036	8d 4e 0c	 lea	 ecx, DWORD PTR [esi+12]
  00039	57		 push	 edi
  0003a	ff 76 04	 push	 DWORD PTR [esi+4]
  0003d	e8 00 00 00 00	 call	 ??$construct@AAUBuffInfo@ioBuffCountSkill@@@?$allocator@UBuffInfo@ioBuffCountSkill@@@std@@QAEXPAUBuffInfo@ioBuffCountSkill@@AAU23@@Z ; std::allocator<ioBuffCountSkill::BuffInfo>::construct<ioBuffCountSkill::BuffInfo &>

; 986  : 			++this->_Mylast;
; 987  : 			}
; 988  : 		else

  00042	eb 19		 jmp	 SHORT $LN30@push_back@2
$LN4@push_back@2:

; 989  : 			{	// push back a non-element
; 990  : 			if (this->_Mylast == this->_Myend)

  00044	3b 4e 08	 cmp	 ecx, DWORD PTR [esi+8]
  00047	75 09		 jne	 SHORT $LN1@push_back@2

; 991  : 				_Reserve(1);

  00049	6a 01		 push	 1
  0004b	8b ce		 mov	 ecx, esi
  0004d	e8 00 00 00 00	 call	 ?_Reserve@?$vector@UBuffInfo@ioBuffCountSkill@@V?$allocator@UBuffInfo@ioBuffCountSkill@@@std@@@std@@IAEXI@Z ; std::vector<ioBuffCountSkill::BuffInfo,std::allocator<ioBuffCountSkill::BuffInfo> >::_Reserve
$LN1@push_back@2:

; 992  : 			_Orphan_range(this->_Mylast, this->_Mylast);
; 993  : 			_Cons_val(this->_Alval,
; 994  : 				this->_Mylast,
; 995  : 				_Val);

  00052	57		 push	 edi
  00053	ff 76 04	 push	 DWORD PTR [esi+4]
  00056	e8 00 00 00 00	 call	 ??$_Construct@UBuffInfo@ioBuffCountSkill@@ABU12@@std@@YAXPAUBuffInfo@ioBuffCountSkill@@ABU12@@Z ; std::_Construct<ioBuffCountSkill::BuffInfo,ioBuffCountSkill::BuffInfo const &>
  0005b	59		 pop	 ecx
  0005c	59		 pop	 ecx
$LN30@push_back@2:

; 996  : 			++this->_Mylast;

  0005d	83 46 04 14	 add	 DWORD PTR [esi+4], 20	; 00000014H
  00061	5f		 pop	 edi
  00062	5e		 pop	 esi

; 997  : 			}
; 998  : 		}

  00063	5d		 pop	 ebp
  00064	c2 04 00	 ret	 4
?push_back@?$vector@UBuffInfo@ioBuffCountSkill@@V?$allocator@UBuffInfo@ioBuffCountSkill@@@std@@@std@@QAEXABUBuffInfo@ioBuffCountSkill@@@Z ENDP ; std::vector<ioBuffCountSkill::BuffInfo,std::allocator<ioBuffCountSkill::BuffInfo> >::push_back
; Function compile flags: /Ogsp
_TEXT	ENDS
;	COMDAT ??_GioBuffCountSkill@@UAEPAXI@Z
_TEXT	SEGMENT
___flags$ = 8						; size = 4
??_GioBuffCountSkill@@UAEPAXI@Z PROC			; ioBuffCountSkill::`scalar deleting destructor', COMDAT
; _this$ = ecx
  00000	55		 push	 ebp
  00001	8b ec		 mov	 ebp, esp
  00003	56		 push	 esi
  00004	8b f1		 mov	 esi, ecx
  00006	e8 00 00 00 00	 call	 ??1ioBuffCountSkill@@UAE@XZ ; ioBuffCountSkill::~ioBuffCountSkill
  0000b	f6 45 08 01	 test	 BYTE PTR ___flags$[ebp], 1
  0000f	74 07		 je	 SHORT $LN1@scalar@5
  00011	56		 push	 esi
  00012	e8 00 00 00 00	 call	 ??3@YAXPAX@Z		; operator delete
  00017	59		 pop	 ecx
$LN1@scalar@5:
  00018	8b c6		 mov	 eax, esi
  0001a	5e		 pop	 esi
  0001b	5d		 pop	 ebp
  0001c	c2 04 00	 ret	 4
??_GioBuffCountSkill@@UAEPAXI@Z ENDP			; ioBuffCountSkill::`scalar deleting destructor'
_TEXT	ENDS
PUBLIC	_rkLoader$GSCopy$
EXTRN	__imp_?LoadStringA@ioINILoader@@QAEXPBD0PADH@Z:PROC
EXTRN	__imp__wsprintfA:PROC
EXTRN	?LoadProperty@ioCountSkill@@UAEXAAVioINILoader@@@Z:PROC ; ioCountSkill::LoadProperty
;	COMDAT xdata$x
; File c:\program files (x86)\microsoft visual studio 10.0\vc\include\xutility
xdata$x	SEGMENT
__unwindtable$?LoadProperty@ioBuffCountSkill@@UAEXAAVioINILoader@@@Z DD 0ffffffffH
	DD	FLAT:__unwindfunclet$?LoadProperty@ioBuffCountSkill@@UAEXAAVioINILoader@@@Z$0
	DD	00H
	DD	FLAT:__unwindfunclet$?LoadProperty@ioBuffCountSkill@@UAEXAAVioINILoader@@@Z$1
__ehfuncinfo$?LoadProperty@ioBuffCountSkill@@UAEXAAVioINILoader@@@Z DD 019930522H
	DD	02H
	DD	FLAT:__unwindtable$?LoadProperty@ioBuffCountSkill@@UAEXAAVioINILoader@@@Z
	DD	2 DUP(00H)
	DD	2 DUP(00H)
	DD	00H
	DD	01H
; Function compile flags: /Ogsp
; File d:\lost saga for developer\youtube\tutorial\source\src\lsclient\iobuffcountskill.cpp
xdata$x	ENDS
;	COMDAT ?LoadProperty@ioBuffCountSkill@@UAEXAAVioINILoader@@@Z
_TEXT	SEGMENT
$T539720 = -632						; size = 16
_Info$530922 = -616					; size = 20
_value$540151 = -596					; size = 4
tv1225 = -592						; size = 4
$T539721 = -588						; size = 1
_value$540156 = -588					; size = 4
_iMax$531229 = -588					; size = 4
tv5230 = -584						; size = 4
_rkLoader$GSCopy$ = -580				; size = 4
_szBuf$ = -576						; size = 260
_szKey$ = -316						; size = 260
__k$539991 = -56					; size = 9
___encStr$531080 = -56					; size = 11
__k$539754 = -40					; size = 19
___encStr$530926 = -40					; size = 18
__k$539899 = -36					; size = 15
___encStr$531237 = -36					; size = 14
__$EHRec$ = -12						; size = 12
_rkLoader$ = 8						; size = 4
?LoadProperty@ioBuffCountSkill@@UAEXAAVioINILoader@@@Z PROC ; ioBuffCountSkill::LoadProperty, COMDAT
; _this$ = ecx

; 40   : {

  00000	68 6c 02 00 00	 push	 620			; 0000026cH
  00005	b8 00 00 00 00	 mov	 eax, __ehhandler$?LoadProperty@ioBuffCountSkill@@UAEXAAVioINILoader@@@Z
  0000a	e8 00 00 00 00	 call	 __EH_prolog3_GS
  0000f	8b 7d 08	 mov	 edi, DWORD PTR _rkLoader$[ebp]

; 41   : 	ioCountSkill::LoadProperty( rkLoader );

  00012	57		 push	 edi
  00013	8b f1		 mov	 esi, ecx

; 66   : 		{
; 67   : 			wsprintf_e( szKey, "buff%d_name%d", i + 1, j + 1 );

  00015	89 bd bc fd ff
	ff		 mov	 DWORD PTR _rkLoader$GSCopy$[ebp], edi
  0001b	e8 00 00 00 00	 call	 ?LoadProperty@ioCountSkill@@UAEXAAVioINILoader@@@Z ; ioCountSkill::LoadProperty
  00020	33 db		 xor	 ebx, ebx
  00022	6a 04		 push	 4
  00024	c7 45 d8 9e 87
	82 86		 mov	 DWORD PTR __k$539754[ebp], -2038265954 ; 8682879eH
  0002b	c7 45 dc 81 b3
	9b 98		 mov	 DWORD PTR __k$539754[ebp+4], -1734626431 ; 989bb381H
  00032	c7 45 e0 82 98
	8e 89		 mov	 DWORD PTR __k$539754[ebp+8], -1987143550 ; 898e9882H
  00039	c7 45 e4 99 b3
	9f 83		 mov	 DWORD PTR __k$539754[ebp+12], -2086685799 ; 839fb399H
  00040	66 c7 45 e8 80
	89		 mov	 WORD PTR __k$539754[ebp+16], 35200 ; 00008980H
  00046	8d 45 d8	 lea	 eax, DWORD PTR __k$539754[ebp]
  00049	88 5d ea	 mov	 BYTE PTR __k$539754[ebp+18], bl
  0004c	59		 pop	 ecx
$LL412@LoadProper:

; 42   : 
; 43   : 	char szBuf[MAX_PATH];
; 44   : 	char szKey[MAX_PATH];
; 45   : 
; 46   : 	m_dwSkillProtectTime = rkLoader.LoadInt_e( "skill_protect_time", 0 );

  0004d	81 30 ed ec eb
	ea		 xor	 DWORD PTR [eax], -353637139 ; eaebecedH
  00053	83 c0 04	 add	 eax, 4
  00056	49		 dec	 ecx
  00057	75 f4		 jne	 SHORT $LL412@LoadProper
  00059	6a 10		 push	 16			; 00000010H
  0005b	58		 pop	 eax
$LL409@LoadProper:
  0005c	8b c8		 mov	 ecx, eax
  0005e	81 e1 03 00 00
	80		 and	 ecx, -2147483645	; 80000003H
  00064	79 05		 jns	 SHORT $LN719@LoadProper
  00066	49		 dec	 ecx
  00067	83 c9 fc	 or	 ecx, -4			; fffffffcH
  0006a	41		 inc	 ecx
$LN719@LoadProper:
  0006b	b2 ed		 mov	 dl, -19			; ffffffedH
  0006d	2a d1		 sub	 dl, cl
  0006f	30 54 05 d8	 xor	 BYTE PTR __k$539754[ebp+eax], dl
  00073	40		 inc	 eax
  00074	83 f8 12	 cmp	 eax, 18			; 00000012H
  00077	7c e3		 jl	 SHORT $LL409@LoadProper
  00079	53		 push	 ebx
  0007a	8d 45 d8	 lea	 eax, DWORD PTR __k$539754[ebp]
  0007d	8b cf		 mov	 ecx, edi
  0007f	8b 3d 00 00 00
	00		 mov	 edi, DWORD PTR __imp_?LoadInt@ioINILoader@@QAEHPBDH@Z
  00085	50		 push	 eax
  00086	ff d7		 call	 edi
  00088	6a 03		 push	 3
  0008a	89 86 8c 12 00
	00		 mov	 DWORD PTR [esi+4748], eax

; 47   : 	m_bNoResetCount = rkLoader.LoadBool_e( "no_reset_count", false );

  00090	c7 45 dc 83 83
	b4 98		 mov	 DWORD PTR __k$539899[ebp], -1733000317 ; 98b48383H
  00097	c7 45 e0 88 9f
	8e 9e		 mov	 DWORD PTR __k$539899[ebp+4], -1634820216 ; 9e8e9f88H
  0009e	c7 45 e4 b2 8f
	84 9f		 mov	 DWORD PTR __k$539899[ebp+8], -1618702414 ; 9f848fb2H
  000a5	66 c7 45 e8 83
	98		 mov	 WORD PTR __k$539899[ebp+12], 39043 ; 00009883H
  000ab	8d 45 dc	 lea	 eax, DWORD PTR __k$539899[ebp]
  000ae	88 5d ea	 mov	 BYTE PTR __k$539899[ebp+14], bl
  000b1	59		 pop	 ecx
$LL518@LoadProper:
  000b2	81 30 ed ec eb
	ea		 xor	 DWORD PTR [eax], -353637139 ; eaebecedH
  000b8	83 c0 04	 add	 eax, 4
  000bb	49		 dec	 ecx
  000bc	75 f4		 jne	 SHORT $LL518@LoadProper
  000be	6a 0c		 push	 12			; 0000000cH
  000c0	58		 pop	 eax
$LL515@LoadProper:
  000c1	8b c8		 mov	 ecx, eax
  000c3	81 e1 03 00 00
	80		 and	 ecx, -2147483645	; 80000003H
  000c9	79 05		 jns	 SHORT $LN720@LoadProper
  000cb	49		 dec	 ecx
  000cc	83 c9 fc	 or	 ecx, -4			; fffffffcH
  000cf	41		 inc	 ecx
$LN720@LoadProper:
  000d0	b2 ed		 mov	 dl, -19			; ffffffedH
  000d2	2a d1		 sub	 dl, cl
  000d4	30 54 05 dc	 xor	 BYTE PTR __k$539899[ebp+eax], dl
  000d8	40		 inc	 eax
  000d9	83 f8 0e	 cmp	 eax, 14			; 0000000eH
  000dc	7c e3		 jl	 SHORT $LL515@LoadProper
  000de	8b 8d bc fd ff
	ff		 mov	 ecx, DWORD PTR _rkLoader$GSCopy$[ebp]
  000e4	53		 push	 ebx
  000e5	8d 45 dc	 lea	 eax, DWORD PTR __k$539899[ebp]
  000e8	50		 push	 eax
  000e9	ff 15 00 00 00
	00		 call	 DWORD PTR __imp_?LoadBool@ioINILoader@@QAE_NPBD_N@Z
  000ef	88 86 90 12 00
	00		 mov	 BYTE PTR [esi+4752], al

; 48   : 
; 49   : 	// 
; 50   : 	m_iNeedCount = m_iMaxUseCount;

  000f5	8d 86 e4 10 00
	00		 lea	 eax, DWORD PTR [esi+4324]
  000fb	8d 8e 44 11 00
	00		 lea	 ecx, DWORD PTR [esi+4420]
  00101	50		 push	 eax
  00102	e8 00 00 00 00	 call	 ??4?$CEncrypt@H@@QAE_NAAV0@@Z ; CEncrypt<int>::operator=
  00107	6a 02		 push	 2

; 51   : 
; 52   : 	int iCount = rkLoader.LoadInt_e( "buff_max", 0 );

  00109	c7 45 c8 8f 99
	8d 8c		 mov	 DWORD PTR __k$539991[ebp], -1936877169 ; 8c8d998fH
  00110	c7 45 cc b2 81
	8a 92		 mov	 DWORD PTR __k$539991[ebp+4], -1836416590 ; 928a81b2H
  00117	8d 45 c8	 lea	 eax, DWORD PTR __k$539991[ebp]
  0011a	88 5d d0	 mov	 BYTE PTR __k$539991[ebp+8], bl
  0011d	59		 pop	 ecx
$LL624@LoadProper:
  0011e	81 30 ed ec eb
	ea		 xor	 DWORD PTR [eax], -353637139 ; eaebecedH
  00124	83 c0 04	 add	 eax, 4
  00127	49		 dec	 ecx
  00128	75 f4		 jne	 SHORT $LL624@LoadProper
  0012a	8b 8d bc fd ff
	ff		 mov	 ecx, DWORD PTR _rkLoader$GSCopy$[ebp]
  00130	53		 push	 ebx
  00131	8d 45 c8	 lea	 eax, DWORD PTR __k$539991[ebp]
  00134	50		 push	 eax
  00135	ff d7		 call	 edi

; 53   : 	for( int i = 0; i < iCount; ++i )

  00137	3b c3		 cmp	 eax, ebx
  00139	0f 8e 40 02 00
	00		 jle	 $LN302@LoadProper

; 51   : 
; 52   : 	int iCount = rkLoader.LoadInt_e( "buff_max", 0 );

  0013f	c7 85 b8 fd ff
	ff 01 00 00 00	 mov	 DWORD PTR tv5230[ebp], 1
  00149	89 85 b0 fd ff
	ff		 mov	 DWORD PTR tv1225[ebp], eax
$LN304@LoadProper:

; 54   : 	{
; 55   : 		BuffInfo Info;

  0014f	89 9d 98 fd ff
	ff		 mov	 DWORD PTR _Info$530922[ebp], ebx
  00155	89 9d 9c fd ff
	ff		 mov	 DWORD PTR _Info$530922[ebp+4], ebx
  0015b	89 9d a0 fd ff
	ff		 mov	 DWORD PTR _Info$530922[ebp+8], ebx
  00161	89 9d a8 fd ff
	ff		 mov	 DWORD PTR _Info$530922[ebp+16], ebx
  00167	6a 04		 push	 4
  00169	89 5d fc	 mov	 DWORD PTR __$EHRec$[ebp+8], ebx

; 56   : 		wsprintf_e( szKey, "buff%d_need_count", i+1 );

  0016c	c7 45 d8 8f 99
	8d 8c		 mov	 DWORD PTR ___encStr$530926[ebp], -1936877169 ; 8c8d998fH
  00173	c7 45 dc c8 88
	b4 84		 mov	 DWORD PTR ___encStr$530926[ebp+4], -2068543288 ; 84b488c8H
  0017a	c7 45 e0 88 89
	8f b5		 mov	 DWORD PTR ___encStr$530926[ebp+8], -1248884344 ; b58f8988H
  00181	c7 45 e4 8e 83
	9e 84		 mov	 DWORD PTR ___encStr$530926[ebp+12], -2069986418 ; 849e838eH
  00188	8d 45 d8	 lea	 eax, DWORD PTR ___encStr$530926[ebp]
  0018b	66 c7 45 e8 99
	00		 mov	 WORD PTR ___encStr$530926[ebp+16], 153 ; 00000099H
  00191	59		 pop	 ecx
$LL642@LoadProper:
  00192	81 30 ed ec eb
	ea		 xor	 DWORD PTR [eax], -353637139 ; eaebecedH
  00198	83 c0 04	 add	 eax, 4
  0019b	49		 dec	 ecx
  0019c	75 f4		 jne	 SHORT $LL642@LoadProper
  0019e	ff b5 b8 fd ff
	ff		 push	 DWORD PTR tv5230[ebp]
  001a4	80 75 e8 ed	 xor	 BYTE PTR ___encStr$530926[ebp+16], -19 ; ffffffedH
  001a8	8d 45 d8	 lea	 eax, DWORD PTR ___encStr$530926[ebp]
  001ab	50		 push	 eax
  001ac	8d 85 c4 fe ff
	ff		 lea	 eax, DWORD PTR _szKey$[ebp]
  001b2	50		 push	 eax
  001b3	ff 15 00 00 00
	00		 call	 DWORD PTR __imp__wsprintfA

; 57   : 		Info.nNeedCount = rkLoader.LoadInt( szKey, 0 );

  001b9	8b 8d bc fd ff
	ff		 mov	 ecx, DWORD PTR _rkLoader$GSCopy$[ebp]
  001bf	83 c4 0c	 add	 esp, 12			; 0000000cH
  001c2	53		 push	 ebx
  001c3	8d 85 c4 fe ff
	ff		 lea	 eax, DWORD PTR _szKey$[ebp]
  001c9	50		 push	 eax
  001ca	ff d7		 call	 edi
  001cc	89 85 a8 fd ff
	ff		 mov	 DWORD PTR _Info$530922[ebp+16], eax

; 58   : 
; 59   : 		//m_iNeedCount  
; 60   : 		if( m_iNeedCount > Info.nNeedCount )

  001d2	8d 85 ac fd ff
	ff		 lea	 eax, DWORD PTR _value$540151[ebp]
  001d8	50		 push	 eax
  001d9	8d 8e 44 11 00
	00		 lea	 ecx, DWORD PTR [esi+4420]
  001df	e8 00 00 00 00	 call	 ?DecryptValueToPool@?$CEncrypt@H@@QAEXPAH@Z ; CEncrypt<int>::DecryptValueToPool
  001e4	8b 85 a8 fd ff
	ff		 mov	 eax, DWORD PTR _Info$530922[ebp+16]
  001ea	39 85 ac fd ff
	ff		 cmp	 DWORD PTR _value$540151[ebp], eax
  001f0	7e 18		 jle	 SHORT $LN201@LoadProper

; 61   : 			m_iNeedCount = Info.nNeedCount;

  001f2	89 85 b4 fd ff
	ff		 mov	 DWORD PTR _value$540156[ebp], eax
  001f8	8d 85 b4 fd ff
	ff		 lea	 eax, DWORD PTR _value$540156[ebp]
  001fe	50		 push	 eax
  001ff	8d 8e 44 11 00
	00		 lea	 ecx, DWORD PTR [esi+4420]
  00205	e8 00 00 00 00	 call	 ?EncryptValueToPool@?$CEncrypt@H@@AAEXPBD@Z ; CEncrypt<int>::EncryptValueToPool
$LN201@LoadProper:

; 62   : 
; 63   : 		wsprintf_e( szKey, "buff%d_max", i+1 );

  0020a	6a 02		 push	 2
  0020c	c7 45 c8 8f 99
	8d 8c		 mov	 DWORD PTR ___encStr$531080[ebp], -1936877169 ; 8c8d998fH
  00213	c7 45 cc c8 88
	b4 87		 mov	 DWORD PTR ___encStr$531080[ebp+4], -2018211640 ; 87b488c8H
  0021a	66 c7 45 d0 8c
	94		 mov	 WORD PTR ___encStr$531080[ebp+8], 38028 ; 0000948cH
  00220	8d 45 c8	 lea	 eax, DWORD PTR ___encStr$531080[ebp]
  00223	88 5d d2	 mov	 BYTE PTR ___encStr$531080[ebp+10], bl
  00226	59		 pop	 ecx
$LL654@LoadProper:
  00227	81 30 ed ec eb
	ea		 xor	 DWORD PTR [eax], -353637139 ; eaebecedH
  0022d	83 c0 04	 add	 eax, 4
  00230	49		 dec	 ecx
  00231	75 f4		 jne	 SHORT $LL654@LoadProper
  00233	6a 08		 push	 8
  00235	58		 pop	 eax
$LL651@LoadProper:
  00236	8b c8		 mov	 ecx, eax
  00238	81 e1 03 00 00
	80		 and	 ecx, -2147483645	; 80000003H
  0023e	79 05		 jns	 SHORT $LN721@LoadProper
  00240	49		 dec	 ecx
  00241	83 c9 fc	 or	 ecx, -4			; fffffffcH
  00244	41		 inc	 ecx
$LN721@LoadProper:
  00245	b2 ed		 mov	 dl, -19			; ffffffedH
  00247	2a d1		 sub	 dl, cl
  00249	30 54 05 c8	 xor	 BYTE PTR ___encStr$531080[ebp+eax], dl
  0024d	40		 inc	 eax
  0024e	83 f8 0a	 cmp	 eax, 10			; 0000000aH
  00251	7c e3		 jl	 SHORT $LL651@LoadProper
  00253	ff b5 b8 fd ff
	ff		 push	 DWORD PTR tv5230[ebp]
  00259	8d 45 c8	 lea	 eax, DWORD PTR ___encStr$531080[ebp]
  0025c	50		 push	 eax
  0025d	8d 85 c4 fe ff
	ff		 lea	 eax, DWORD PTR _szKey$[ebp]
  00263	50		 push	 eax
  00264	ff 15 00 00 00
	00		 call	 DWORD PTR __imp__wsprintfA

; 64   : 		int iMax = rkLoader.LoadInt( szKey, 0 );

  0026a	8b 8d bc fd ff
	ff		 mov	 ecx, DWORD PTR _rkLoader$GSCopy$[ebp]
  00270	83 c4 0c	 add	 esp, 12			; 0000000cH
  00273	53		 push	 ebx
  00274	8d 85 c4 fe ff
	ff		 lea	 eax, DWORD PTR _szKey$[ebp]
  0027a	50		 push	 eax
  0027b	ff d7		 call	 edi

; 65   : 		for( int j = 0; j < iMax; ++j )

  0027d	33 c9		 xor	 ecx, ecx
  0027f	89 85 b4 fd ff
	ff		 mov	 DWORD PTR _iMax$531229[ebp], eax
  00285	3b c3		 cmp	 eax, ebx
  00287	0f 8e bf 00 00
	00		 jle	 $LN100@LoadProper
$LN102@LoadProper:

; 62   : 
; 63   : 		wsprintf_e( szKey, "buff%d_max", i+1 );

  0028d	6a 03		 push	 3

; 66   : 		{
; 67   : 			wsprintf_e( szKey, "buff%d_name%d", i + 1, j + 1 );

  0028f	c7 45 dc 8f 99
	8d 8c		 mov	 DWORD PTR ___encStr$531237[ebp], -1936877169 ; 8c8d998fH
  00296	c7 45 e0 c8 88
	b4 84		 mov	 DWORD PTR ___encStr$531237[ebp+4], -2068543288 ; 84b488c8H
  0029d	c7 45 e4 8c 81
	8e cf		 mov	 DWORD PTR ___encStr$531237[ebp+8], -812744308 ; cf8e818cH
  002a4	8d 45 dc	 lea	 eax, DWORD PTR ___encStr$531237[ebp]
  002a7	66 c7 45 e8 89
	00		 mov	 WORD PTR ___encStr$531237[ebp+12], 137 ; 00000089H
  002ad	5a		 pop	 edx
$LL662@LoadProper:
  002ae	81 30 ed ec eb
	ea		 xor	 DWORD PTR [eax], -353637139 ; eaebecedH
  002b4	83 c0 04	 add	 eax, 4
  002b7	4a		 dec	 edx
  002b8	75 f4		 jne	 SHORT $LL662@LoadProper
  002ba	80 75 e8 ed	 xor	 BYTE PTR ___encStr$531237[ebp+12], -19 ; ffffffedH
  002be	8d 79 01	 lea	 edi, DWORD PTR [ecx+1]
  002c1	57		 push	 edi
  002c2	ff b5 b8 fd ff
	ff		 push	 DWORD PTR tv5230[ebp]
  002c8	8d 45 dc	 lea	 eax, DWORD PTR ___encStr$531237[ebp]
  002cb	50		 push	 eax
  002cc	8d 85 c4 fe ff
	ff		 lea	 eax, DWORD PTR _szKey$[ebp]
  002d2	50		 push	 eax
  002d3	ff 15 00 00 00
	00		 call	 DWORD PTR __imp__wsprintfA

; 68   : 			rkLoader.LoadString( szKey, "", szBuf, MAX_PATH );

  002d9	8b 8d bc fd ff
	ff		 mov	 ecx, DWORD PTR _rkLoader$GSCopy$[ebp]
  002df	83 c4 10	 add	 esp, 16			; 00000010H
  002e2	68 04 01 00 00	 push	 260			; 00000104H
  002e7	8d 85 c0 fd ff
	ff		 lea	 eax, DWORD PTR _szBuf$[ebp]
  002ed	50		 push	 eax
  002ee	68 00 00 00 00	 push	 OFFSET ??_C@_00CNPNBAHC@?$AA@
  002f3	8d 85 c4 fe ff
	ff		 lea	 eax, DWORD PTR _szKey$[ebp]
  002f9	50		 push	 eax
  002fa	ff 15 00 00 00
	00		 call	 DWORD PTR __imp_?LoadStringA@ioINILoader@@QAEXPBD0PADH@Z

; 69   : 			Info.BuffNameList.push_back( szBuf );

  00300	8d 85 c0 fd ff
	ff		 lea	 eax, DWORD PTR _szBuf$[ebp]
  00306	50		 push	 eax
  00307	8d 8d 88 fd ff
	ff		 lea	 ecx, DWORD PTR $T539720[ebp]
  0030d	ff 15 00 00 00
	00		 call	 DWORD PTR __imp_??0ioHashString@@QAE@PBD@Z
  00313	8d 85 88 fd ff
	ff		 lea	 eax, DWORD PTR $T539720[ebp]
  00319	50		 push	 eax
  0031a	8d 8d 98 fd ff
	ff		 lea	 ecx, DWORD PTR _Info$530922[ebp]
  00320	c6 45 fc 01	 mov	 BYTE PTR __$EHRec$[ebp+8], 1
  00324	e8 00 00 00 00	 call	 ?push_back@?$vector@VioHashString@@V?$allocator@VioHashString@@@std@@@std@@QAEXABVioHashString@@@Z ; std::vector<ioHashString,std::allocator<ioHashString> >::push_back
  00329	8d 8d 88 fd ff
	ff		 lea	 ecx, DWORD PTR $T539720[ebp]
  0032f	88 5d fc	 mov	 BYTE PTR __$EHRec$[ebp+8], bl
  00332	ff 15 00 00 00
	00		 call	 DWORD PTR __imp_??1ioHashString@@QAE@XZ
  00338	8b cf		 mov	 ecx, edi
  0033a	3b 8d b4 fd ff
	ff		 cmp	 ecx, DWORD PTR _iMax$531229[ebp]
  00340	0f 8c 47 ff ff
	ff		 jl	 $LN102@LoadProper

; 65   : 		for( int j = 0; j < iMax; ++j )

  00346	8b 3d 00 00 00
	00		 mov	 edi, DWORD PTR __imp_?LoadInt@ioINILoader@@QAEHPBDH@Z
$LN100@LoadProper:

; 70   : 		}
; 71   : 
; 72   : 		m_BuffInfoList.push_back( Info );

  0034c	8d 85 98 fd ff
	ff		 lea	 eax, DWORD PTR _Info$530922[ebp]
  00352	50		 push	 eax
  00353	8d 8e 6c 12 00
	00		 lea	 ecx, DWORD PTR [esi+4716]
  00359	e8 00 00 00 00	 call	 ?push_back@?$vector@UBuffInfo@ioBuffCountSkill@@V?$allocator@UBuffInfo@ioBuffCountSkill@@@std@@@std@@QAEXABUBuffInfo@ioBuffCountSkill@@@Z ; std::vector<ioBuffCountSkill::BuffInfo,std::allocator<ioBuffCountSkill::BuffInfo> >::push_back

; 73   : 	}

  0035e	83 4d fc ff	 or	 DWORD PTR __$EHRec$[ebp+8], -1
  00362	8d 8d 98 fd ff
	ff		 lea	 ecx, DWORD PTR _Info$530922[ebp]
  00368	e8 00 00 00 00	 call	 ?_Tidy@?$vector@VioHashString@@V?$allocator@VioHashString@@@std@@@std@@IAEXXZ ; std::vector<ioHashString,std::allocator<ioHashString> >::_Tidy
  0036d	ff 85 b8 fd ff
	ff		 inc	 DWORD PTR tv5230[ebp]
  00373	ff 8d b0 fd ff
	ff		 dec	 DWORD PTR tv1225[ebp]
  00379	0f 85 d0 fd ff
	ff		 jne	 $LN304@LoadProper
$LN302@LoadProper:

; 74   : 
; 75   : 	std::sort( m_BuffInfoList.begin(), m_BuffInfoList.end(), BuffInfoSort() );

  0037f	8b 86 70 12 00
	00		 mov	 eax, DWORD PTR [esi+4720]
  00385	ff b5 b4 fd ff
	ff		 push	 DWORD PTR $T539721[ebp]
  0038b	8b b6 6c 12 00
	00		 mov	 esi, DWORD PTR [esi+4716]
  00391	50		 push	 eax
  00392	56		 push	 esi
  00393	e8 00 00 00 00	 call	 ??$sort@V?$_Vector_iterator@V?$_Vector_val@UBuffInfo@ioBuffCountSkill@@V?$allocator@UBuffInfo@ioBuffCountSkill@@@std@@@std@@@std@@VBuffInfoSort@ioBuffCountSkill@@@std@@YAXV?$_Vector_iterator@V?$_Vector_val@UBuffInfo@ioBuffCountSkill@@V?$allocator@UBuffInfo@ioBuffCountSkill@@@std@@@std@@@0@0VBuffInfoSort@ioBuffCountSkill@@@Z ; std::sort<std::_Vector_iterator<std::_Vector_val<ioBuffCountSkill::BuffInfo,std::allocator<ioBuffCountSkill::BuffInfo> > >,ioBuffCountSkill::BuffInfoSort>
  00398	83 c4 0c	 add	 esp, 12			; 0000000cH

; 76   : }

  0039b	e8 00 00 00 00	 call	 __EH_epilog3_GS
  003a0	c2 04 00	 ret	 4
_TEXT	ENDS
;	COMDAT text$x
text$x	SEGMENT
__unwindfunclet$?LoadProperty@ioBuffCountSkill@@UAEXAAVioINILoader@@@Z$0:
  00000	8d 8d 98 fd ff
	ff		 lea	 ecx, DWORD PTR _Info$530922[ebp]
  00006	e9 00 00 00 00	 jmp	 ??1BuffInfo@ioBuffCountSkill@@QAE@XZ
__unwindfunclet$?LoadProperty@ioBuffCountSkill@@UAEXAAVioINILoader@@@Z$1:
  0000b	8d 8d 88 fd ff
	ff		 lea	 ecx, DWORD PTR $T539720[ebp]
  00011	ff 25 00 00 00
	00		 jmp	 DWORD PTR __imp_??1ioHashString@@QAE@XZ
__ehhandler$?LoadProperty@ioBuffCountSkill@@UAEXAAVioINILoader@@@Z:
  00017	8b 54 24 08	 mov	 edx, DWORD PTR [esp+8]
  0001b	8d 42 0c	 lea	 eax, DWORD PTR [edx+12]
  0001e	8b 8a 84 fd ff
	ff		 mov	 ecx, DWORD PTR [edx-636]
  00024	33 c8		 xor	 ecx, eax
  00026	e8 00 00 00 00	 call	 @__security_check_cookie@4
  0002b	8b 4a fc	 mov	 ecx, DWORD PTR [edx-4]
  0002e	33 c8		 xor	 ecx, eax
  00030	e8 00 00 00 00	 call	 @__security_check_cookie@4
  00035	b8 00 00 00 00	 mov	 eax, OFFSET __ehfuncinfo$?LoadProperty@ioBuffCountSkill@@UAEXAAVioINILoader@@@Z
  0003a	e9 00 00 00 00	 jmp	 ___CxxFrameHandler3
text$x	ENDS
?LoadProperty@ioBuffCountSkill@@UAEXAAVioINILoader@@@Z ENDP ; ioBuffCountSkill::LoadProperty
END
