; Listing generated by Microsoft (R) Optimizing Compiler Version 16.00.30319.01 

	TITLE	D:\Lost Saga For Developer\Youtube\Tutorial\Source\src\LSClient\ioBuffMaker.cpp
	.686P
	.XMM
	include listing.inc
	.model	flat

INCLUDELIB MSVCRT
INCLUDELIB OLDNAMES

PUBLIC	?ms_Singleton@?$Singleton@VioBuffMaker@@@@1PAVioBuffMaker@@A ; Singleton<ioBuffMaker>::ms_Singleton
;	COMDAT ?ms_Singleton@?$Singleton@VioBuffMaker@@@@1PAVioBuffMaker@@A
_BSS	SEGMENT
?ms_Singleton@?$Singleton@VioBuffMaker@@@@1PAVioBuffMaker@@A DD 01H DUP (?) ; Singleton<ioBuffMaker>::ms_Singleton
_BSS	ENDS
PUBLIC	??_7bad_alloc@std@@6B@				; std::bad_alloc::`vftable'
PUBLIC	??0bad_alloc@std@@QAE@PBD@Z			; std::bad_alloc::bad_alloc
PUBLIC	??_R4bad_alloc@std@@6B@				; std::bad_alloc::`RTTI Complete Object Locator'
PUBLIC	??_R0?AVbad_alloc@std@@@8			; std::bad_alloc `RTTI Type Descriptor'
PUBLIC	??_R3bad_alloc@std@@8				; std::bad_alloc::`RTTI Class Hierarchy Descriptor'
PUBLIC	??_R2bad_alloc@std@@8				; std::bad_alloc::`RTTI Base Class Array'
PUBLIC	??_R1A@?0A@EA@bad_alloc@std@@8			; std::bad_alloc::`RTTI Base Class Descriptor at (0,-1,0,64)'
PUBLIC	??_R1A@?0A@EA@exception@std@@8			; std::exception::`RTTI Base Class Descriptor at (0,-1,0,64)'
PUBLIC	??_R0?AVexception@std@@@8			; std::exception `RTTI Type Descriptor'
PUBLIC	??_R3exception@std@@8				; std::exception::`RTTI Class Hierarchy Descriptor'
PUBLIC	??_R2exception@std@@8				; std::exception::`RTTI Base Class Array'
EXTRN	__imp_??0exception@std@@QAE@ABQBD@Z:PROC
EXTRN	??_7type_info@@6B@:QWORD			; type_info::`vftable'
EXTRN	??_Ebad_alloc@std@@UAEPAXI@Z:PROC		; std::bad_alloc::`vector deleting destructor'
EXTRN	?what@exception@std@@UBEPBDXZ:PROC		; std::exception::what
;	COMDAT ??_R2exception@std@@8
; File c:\program files (x86)\microsoft visual studio 10.0\vc\include\exception
rdata$r	SEGMENT
??_R2exception@std@@8 DD FLAT:??_R1A@?0A@EA@exception@std@@8 ; std::exception::`RTTI Base Class Array'
rdata$r	ENDS
;	COMDAT ??_R3exception@std@@8
rdata$r	SEGMENT
??_R3exception@std@@8 DD 00H				; std::exception::`RTTI Class Hierarchy Descriptor'
	DD	00H
	DD	01H
	DD	FLAT:??_R2exception@std@@8
rdata$r	ENDS
;	COMDAT ??_R0?AVexception@std@@@8
_DATA	SEGMENT
??_R0?AVexception@std@@@8 DD FLAT:??_7type_info@@6B@	; std::exception `RTTI Type Descriptor'
	DD	00H
	DB	'.?AVexception@std@@', 00H
_DATA	ENDS
;	COMDAT ??_R1A@?0A@EA@exception@std@@8
rdata$r	SEGMENT
??_R1A@?0A@EA@exception@std@@8 DD FLAT:??_R0?AVexception@std@@@8 ; std::exception::`RTTI Base Class Descriptor at (0,-1,0,64)'
	DD	00H
	DD	00H
	DD	0ffffffffH
	DD	00H
	DD	040H
	DD	FLAT:??_R3exception@std@@8
rdata$r	ENDS
;	COMDAT ??_R1A@?0A@EA@bad_alloc@std@@8
rdata$r	SEGMENT
??_R1A@?0A@EA@bad_alloc@std@@8 DD FLAT:??_R0?AVbad_alloc@std@@@8 ; std::bad_alloc::`RTTI Base Class Descriptor at (0,-1,0,64)'
	DD	01H
	DD	00H
	DD	0ffffffffH
	DD	00H
	DD	040H
	DD	FLAT:??_R3bad_alloc@std@@8
rdata$r	ENDS
;	COMDAT ??_R2bad_alloc@std@@8
rdata$r	SEGMENT
??_R2bad_alloc@std@@8 DD FLAT:??_R1A@?0A@EA@bad_alloc@std@@8 ; std::bad_alloc::`RTTI Base Class Array'
	DD	FLAT:??_R1A@?0A@EA@exception@std@@8
rdata$r	ENDS
;	COMDAT ??_R3bad_alloc@std@@8
rdata$r	SEGMENT
??_R3bad_alloc@std@@8 DD 00H				; std::bad_alloc::`RTTI Class Hierarchy Descriptor'
	DD	00H
	DD	02H
	DD	FLAT:??_R2bad_alloc@std@@8
rdata$r	ENDS
;	COMDAT ??_R0?AVbad_alloc@std@@@8
_DATA	SEGMENT
??_R0?AVbad_alloc@std@@@8 DD FLAT:??_7type_info@@6B@	; std::bad_alloc `RTTI Type Descriptor'
	DD	00H
	DB	'.?AVbad_alloc@std@@', 00H
_DATA	ENDS
;	COMDAT ??_R4bad_alloc@std@@6B@
rdata$r	SEGMENT
??_R4bad_alloc@std@@6B@ DD 00H				; std::bad_alloc::`RTTI Complete Object Locator'
	DD	00H
	DD	00H
	DD	FLAT:??_R0?AVbad_alloc@std@@@8
	DD	FLAT:??_R3bad_alloc@std@@8
rdata$r	ENDS
;	COMDAT ??_7bad_alloc@std@@6B@
CONST	SEGMENT
??_7bad_alloc@std@@6B@ DD FLAT:??_R4bad_alloc@std@@6B@	; std::bad_alloc::`vftable'
	DD	FLAT:??_Ebad_alloc@std@@UAEPAXI@Z
	DD	FLAT:?what@exception@std@@UBEPBDXZ
; Function compile flags: /Ogsp
CONST	ENDS
;	COMDAT ??0bad_alloc@std@@QAE@PBD@Z
_TEXT	SEGMENT
__Message$ = 8						; size = 4
??0bad_alloc@std@@QAE@PBD@Z PROC			; std::bad_alloc::bad_alloc, COMDAT
; _this$ = ecx

; 345  : 		{	// construct from message string

  00000	55		 push	 ebp
  00001	8b ec		 mov	 ebp, esp
  00003	56		 push	 esi
  00004	8d 45 08	 lea	 eax, DWORD PTR __Message$[ebp]
  00007	50		 push	 eax
  00008	8b f1		 mov	 esi, ecx
  0000a	ff 15 00 00 00
	00		 call	 DWORD PTR __imp_??0exception@std@@QAE@ABQBD@Z
  00010	c7 06 00 00 00
	00		 mov	 DWORD PTR [esi], OFFSET ??_7bad_alloc@std@@6B@

; 346  : 		}

  00016	8b c6		 mov	 eax, esi
  00018	5e		 pop	 esi
  00019	5d		 pop	 ebp
  0001a	c2 04 00	 ret	 4
??0bad_alloc@std@@QAE@PBD@Z ENDP			; std::bad_alloc::bad_alloc
_TEXT	ENDS
PUBLIC	??1bad_alloc@std@@UAE@XZ			; std::bad_alloc::~bad_alloc
EXTRN	__imp_??1exception@std@@UAE@XZ:PROC
; Function compile flags: /Ogsp
;	COMDAT ??1bad_alloc@std@@UAE@XZ
_TEXT	SEGMENT
??1bad_alloc@std@@UAE@XZ PROC				; std::bad_alloc::~bad_alloc, COMDAT
; _this$ = ecx

; 354  : 		{	// destroy the object

  00000	c7 01 00 00 00
	00		 mov	 DWORD PTR [ecx], OFFSET ??_7bad_alloc@std@@6B@

; 355  : 		}

  00006	ff 25 00 00 00
	00		 jmp	 DWORD PTR __imp_??1exception@std@@UAE@XZ
??1bad_alloc@std@@UAE@XZ ENDP				; std::bad_alloc::~bad_alloc
_TEXT	ENDS
EXTRN	??3@YAXPAX@Z:PROC				; operator delete
; Function compile flags: /Ogsp
;	COMDAT ??_Gbad_alloc@std@@UAEPAXI@Z
_TEXT	SEGMENT
___flags$ = 8						; size = 4
??_Gbad_alloc@std@@UAEPAXI@Z PROC			; std::bad_alloc::`scalar deleting destructor', COMDAT
; _this$ = ecx
  00000	55		 push	 ebp
  00001	8b ec		 mov	 ebp, esp
  00003	56		 push	 esi
  00004	8b f1		 mov	 esi, ecx
  00006	c7 06 00 00 00
	00		 mov	 DWORD PTR [esi], OFFSET ??_7bad_alloc@std@@6B@
  0000c	ff 15 00 00 00
	00		 call	 DWORD PTR __imp_??1exception@std@@UAE@XZ
  00012	f6 45 08 01	 test	 BYTE PTR ___flags$[ebp], 1
  00016	74 07		 je	 SHORT $LN1@scalar
  00018	56		 push	 esi
  00019	e8 00 00 00 00	 call	 ??3@YAXPAX@Z		; operator delete
  0001e	59		 pop	 ecx
$LN1@scalar:
  0001f	8b c6		 mov	 eax, esi
  00021	5e		 pop	 esi
  00022	5d		 pop	 ebp
  00023	c2 04 00	 ret	 4
??_Gbad_alloc@std@@UAEPAXI@Z ENDP			; std::bad_alloc::`scalar deleting destructor'
_TEXT	ENDS
PUBLIC	??2@YAPAXIPAX@Z					; operator new
; Function compile flags: /Ogsp
; File c:\program files (x86)\microsoft visual studio 10.0\vc\include\new
;	COMDAT ??2@YAPAXIPAX@Z
_TEXT	SEGMENT
___formal$ = 8						; size = 4
__Where$ = 12						; size = 4
??2@YAPAXIPAX@Z PROC					; operator new, COMDAT

; 56   : 	{	// construct array with placement at _Where

  00000	55		 push	 ebp
  00001	8b ec		 mov	 ebp, esp

; 57   : 	return (_Where);

  00003	8b 45 0c	 mov	 eax, DWORD PTR __Where$[ebp]

; 58   : 	}

  00006	5d		 pop	 ebp
  00007	c3		 ret	 0
??2@YAPAXIPAX@Z ENDP					; operator new
_TEXT	ENDS
PUBLIC	??3@YAXPAX0@Z					; operator delete
; Function compile flags: /Ogsp
;	COMDAT ??3@YAXPAX0@Z
_TEXT	SEGMENT
___formal$ = 8						; size = 4
___formal$ = 12						; size = 4
??3@YAXPAX0@Z PROC					; operator delete, COMDAT

; 62   : 	}

  00000	c3		 ret	 0
??3@YAXPAX0@Z ENDP					; operator delete
_TEXT	ENDS
PUBLIC	?_Adopt@_Iterator_base0@std@@QAEXPBX@Z		; std::_Iterator_base0::_Adopt
; Function compile flags: /Ogsp
; File c:\program files (x86)\microsoft visual studio 10.0\vc\include\xutility
;	COMDAT ?_Adopt@_Iterator_base0@std@@QAEXPBX@Z
_TEXT	SEGMENT
___formal$ = 8						; size = 4
?_Adopt@_Iterator_base0@std@@QAEXPBX@Z PROC		; std::_Iterator_base0::_Adopt, COMDAT
; _this$ = ecx

; 49   : 		}

  00000	c2 04 00	 ret	 4
?_Adopt@_Iterator_base0@std@@QAEXPBX@Z ENDP		; std::_Iterator_base0::_Adopt
_TEXT	ENDS
PUBLIC	??1?$_Pair_base@$$CBVioHashString@@PAVioBuff@@@std@@QAE@XZ ; std::_Pair_base<ioHashString const ,ioBuff *>::~_Pair_base<ioHashString const ,ioBuff *>
EXTRN	__imp_??1ioHashString@@QAE@XZ:PROC
; Function compile flags: /Ogsp
;	COMDAT ??1?$_Pair_base@$$CBVioHashString@@PAVioBuff@@@std@@QAE@XZ
_TEXT	SEGMENT
??1?$_Pair_base@$$CBVioHashString@@PAVioBuff@@@std@@QAE@XZ PROC ; std::_Pair_base<ioHashString const ,ioBuff *>::~_Pair_base<ioHashString const ,ioBuff *>, COMDAT
; _this$ = ecx
  00000	ff 25 00 00 00
	00		 jmp	 DWORD PTR __imp_??1ioHashString@@QAE@XZ
??1?$_Pair_base@$$CBVioHashString@@PAVioBuff@@@std@@QAE@XZ ENDP ; std::_Pair_base<ioHashString const ,ioBuff *>::~_Pair_base<ioHashString const ,ioBuff *>
_TEXT	ENDS
PUBLIC	??_C@_0DN@LAIAOGKK@ioBuffMaker?3?3CreateNormalBuffTem@ ; `string'
PUBLIC	?CreateNormalBuffTemplete@ioBuffMaker@@IAEPAVioBuff@@HH@Z ; ioBuffMaker::CreateNormalBuffTemplete
EXTRN	__imp_?PrintTimeAndLog@CLog@@QAAXHPADZZ:PROC
EXTRN	__imp_?LOG@@3VCLog@@A:BYTE
EXTRN	?SetTypeID@ioBuff@@QAEXH@Z:PROC			; ioBuff::SetTypeID
EXTRN	?SetBuffCategory@ioBuff@@QAEXH@Z:PROC		; ioBuff::SetBuffCategory
EXTRN	??0ioCreateDummyByAttackedBuff2@@QAE@XZ:PROC	; ioCreateDummyByAttackedBuff2::ioCreateDummyByAttackedBuff2
EXTRN	??0ioCreateWeaponBuff4@@QAE@XZ:PROC		; ioCreateWeaponBuff4::ioCreateWeaponBuff4
EXTRN	??0ioMoveAreaWeaponBuff@@QAE@XZ:PROC		; ioMoveAreaWeaponBuff::ioMoveAreaWeaponBuff
EXTRN	??0ioFlyFollowStateBuff2@@QAE@XZ:PROC		; ioFlyFollowStateBuff2::ioFlyFollowStateBuff2
EXTRN	??0ioFlyFollowStateBuff@@QAE@XZ:PROC		; ioFlyFollowStateBuff::ioFlyFollowStateBuff
EXTRN	??0ioTargetCreateWeaponBuff4@@QAE@XZ:PROC	; ioTargetCreateWeaponBuff4::ioTargetCreateWeaponBuff4
EXTRN	??0ioWeaponFollowedOwnerBuff@@QAE@XZ:PROC	; ioWeaponFollowedOwnerBuff::ioWeaponFollowedOwnerBuff
EXTRN	??0ioSkillAttackBuff@@QAE@XZ:PROC		; ioSkillAttackBuff::ioSkillAttackBuff
EXTRN	??0ioTargetCreateWeaponBuff3@@QAE@XZ:PROC	; ioTargetCreateWeaponBuff3::ioTargetCreateWeaponBuff3
EXTRN	??0ioMoveAttackBuff2@@QAE@XZ:PROC		; ioMoveAttackBuff2::ioMoveAttackBuff2
EXTRN	??0ioCreateAreaWeaponBuff@@QAE@XZ:PROC		; ioCreateAreaWeaponBuff::ioCreateAreaWeaponBuff
EXTRN	??0ioAttachedDummyBuff2@@QAE@XZ:PROC		; ioAttachedDummyBuff2::ioAttachedDummyBuff2
EXTRN	??0ioActiveCountBuff3@@QAE@XZ:PROC		; ioActiveCountBuff3::ioActiveCountBuff3
EXTRN	??0ioCallAndDieBuff@@QAE@XZ:PROC		; ioCallAndDieBuff::ioCallAndDieBuff
EXTRN	??0ioJumpAttackBuff@@QAE@XZ:PROC		; ioJumpAttackBuff::ioJumpAttackBuff
EXTRN	??0ioKeyMarkAttackBuff@@QAE@XZ:PROC		; ioKeyMarkAttackBuff::ioKeyMarkAttackBuff
EXTRN	??0ioCountGatherAttackBuff@@QAE@XZ:PROC		; ioCountGatherAttackBuff::ioCountGatherAttackBuff
EXTRN	??0ioDefenceChangeBuff@@QAE@XZ:PROC		; ioDefenceChangeBuff::ioDefenceChangeBuff
EXTRN	??0ioCallBuffOnAttackBuff2@@QAE@XZ:PROC		; ioCallBuffOnAttackBuff2::ioCallBuffOnAttackBuff2
EXTRN	??0ioNoviceGradeEffectBuff@@QAE@XZ:PROC		; ioNoviceGradeEffectBuff::ioNoviceGradeEffectBuff
EXTRN	??0ioAttachedCreatorCharBuff@@QAE@XZ:PROC	; ioAttachedCreatorCharBuff::ioAttachedCreatorCharBuff
EXTRN	??0ioCheckTargetBuff@@QAE@XZ:PROC		; ioCheckTargetBuff::ioCheckTargetBuff
EXTRN	??0ioHitCountHoldBuff2@@QAE@XZ:PROC		; ioHitCountHoldBuff2::ioHitCountHoldBuff2
EXTRN	??0ioCreateDummyChar9Buff@@QAE@XZ:PROC		; ioCreateDummyChar9Buff::ioCreateDummyChar9Buff
EXTRN	??0ioAttackCountBuff@@QAE@XZ:PROC		; ioAttackCountBuff::ioAttackCountBuff
EXTRN	??0ioAttachedDummyBuff@@QAE@XZ:PROC		; ioAttachedDummyBuff::ioAttachedDummyBuff
EXTRN	??0ioCreateWeaponBuff3@@QAE@XZ:PROC		; ioCreateWeaponBuff3::ioCreateWeaponBuff3
EXTRN	??0ioWoundedAddBuff@@QAE@XZ:PROC		; ioWoundedAddBuff::ioWoundedAddBuff
EXTRN	??0ioTargetMoveAttackBuff@@QAE@XZ:PROC		; ioTargetMoveAttackBuff::ioTargetMoveAttackBuff
EXTRN	??0ioCreateWeaponBuff2@@QAE@XZ:PROC		; ioCreateWeaponBuff2::ioCreateWeaponBuff2
EXTRN	??0ioDummyCheckBuff@@QAE@XZ:PROC		; ioDummyCheckBuff::ioDummyCheckBuff
EXTRN	??0ioFlyJumpExtraAttackBuff@@QAE@XZ:PROC	; ioFlyJumpExtraAttackBuff::ioFlyJumpExtraAttackBuff
EXTRN	??0ioCreateDummyChar8Buff@@QAE@XZ:PROC		; ioCreateDummyChar8Buff::ioCreateDummyChar8Buff
EXTRN	??0ioPassengerBuff@@QAE@XZ:PROC			; ioPassengerBuff::ioPassengerBuff
EXTRN	??0ioCheckChainBuff2@@QAE@XZ:PROC		; ioCheckChainBuff2::ioCheckChainBuff2
EXTRN	??0ioCreateDummyChar7Buff@@QAE@XZ:PROC		; ioCreateDummyChar7Buff::ioCreateDummyChar7Buff
EXTRN	??0ioDummyChainBuff@@QAE@XZ:PROC		; ioDummyChainBuff::ioDummyChainBuff
EXTRN	??0ioMoveAttackBuff@@QAE@XZ:PROC		; ioMoveAttackBuff::ioMoveAttackBuff
EXTRN	??0ioCreateDummyByAttackedBuff@@QAE@XZ:PROC	; ioCreateDummyByAttackedBuff::ioCreateDummyByAttackedBuff
EXTRN	??0ioMapEffectBuff@@QAE@XZ:PROC			; ioMapEffectBuff::ioMapEffectBuff
EXTRN	??0ioCheckStateEndCallBuff@@QAE@XZ:PROC		; ioCheckStateEndCallBuff::ioCheckStateEndCallBuff
EXTRN	??0ioCheckStateEndAttackBuff@@QAE@XZ:PROC	; ioCheckStateEndAttackBuff::ioCheckStateEndAttackBuff
EXTRN	??0ioThunderBirdHoldBuff@@QAE@XZ:PROC		; ioThunderBirdHoldBuff::ioThunderBirdHoldBuff
EXTRN	??0ioTargetRushAttackBuff@@QAE@XZ:PROC		; ioTargetRushAttackBuff::ioTargetRushAttackBuff
EXTRN	??0ioHide4Buff@@QAE@XZ:PROC			; ioHide4Buff::ioHide4Buff
EXTRN	??0ioTargetCreateWeaponBuff2@@QAE@XZ:PROC	; ioTargetCreateWeaponBuff2::ioTargetCreateWeaponBuff2
EXTRN	??0ioFloatBuff2@@QAE@XZ:PROC			; ioFloatBuff2::ioFloatBuff2
EXTRN	??0ioHelipCopterAttachBuff@@QAE@XZ:PROC		; ioHelipCopterAttachBuff::ioHelipCopterAttachBuff
EXTRN	??0ioCheckJumpBuff@@QAE@XZ:PROC			; ioCheckJumpBuff::ioCheckJumpBuff
EXTRN	??0ioDummyAttachBuff3@@QAE@XZ:PROC		; ioDummyAttachBuff3::ioDummyAttachBuff3
EXTRN	??0ioCreateObjectItemBuff@@QAE@XZ:PROC		; ioCreateObjectItemBuff::ioCreateObjectItemBuff
EXTRN	??0ioCheckLifeBuff2@@QAE@XZ:PROC		; ioCheckLifeBuff2::ioCheckLifeBuff2
EXTRN	??0ioDummyAttachBuff2@@QAE@XZ:PROC		; ioDummyAttachBuff2::ioDummyAttachBuff2
EXTRN	??0ioMarkBuff@@QAE@XZ:PROC			; ioMarkBuff::ioMarkBuff
EXTRN	??0ioWarpFindDummyBuff@@QAE@XZ:PROC		; ioWarpFindDummyBuff::ioWarpFindDummyBuff
EXTRN	??0ioHide3Buff@@QAE@XZ:PROC			; ioHide3Buff::ioHide3Buff
EXTRN	??0ioAirBuff@@QAE@XZ:PROC			; ioAirBuff::ioAirBuff
EXTRN	??0ioCreateDummyChar6Buff@@QAE@XZ:PROC		; ioCreateDummyChar6Buff::ioCreateDummyChar6Buff
EXTRN	??0ioActiveCountBuff2@@QAE@XZ:PROC		; ioActiveCountBuff2::ioActiveCountBuff2
EXTRN	??0ioTargetDummyBuff@@QAE@XZ:PROC		; ioTargetDummyBuff::ioTargetDummyBuff
EXTRN	??0ioSelfControlBuff@@QAE@XZ:PROC		; ioSelfControlBuff::ioSelfControlBuff
EXTRN	??0ioTargetMoveBuff@@QAE@XZ:PROC		; ioTargetMoveBuff::ioTargetMoveBuff
EXTRN	??0ioStateProtectionByPassiveBuff@@QAE@XZ:PROC	; ioStateProtectionByPassiveBuff::ioStateProtectionByPassiveBuff
EXTRN	??0ioCheckChainBuff@@QAE@XZ:PROC		; ioCheckChainBuff::ioCheckChainBuff
EXTRN	??0ioLookatDummyBuff@@QAE@XZ:PROC		; ioLookatDummyBuff::ioLookatDummyBuff
EXTRN	??0ioTargetCreateWeaponBuff@@QAE@XZ:PROC	; ioTargetCreateWeaponBuff::ioTargetCreateWeaponBuff
EXTRN	??0ioFlyJumpBuff2@@QAE@XZ:PROC			; ioFlyJumpBuff2::ioFlyJumpBuff2
EXTRN	??0ioLookatWeaponBuff@@QAE@XZ:PROC		; ioLookatWeaponBuff::ioLookatWeaponBuff
EXTRN	??0ioCreateDummyChar5Buff@@QAE@XZ:PROC		; ioCreateDummyChar5Buff::ioCreateDummyChar5Buff
EXTRN	??0ioDummyAttachBuff@@QAE@XZ:PROC		; ioDummyAttachBuff::ioDummyAttachBuff
EXTRN	??0ioWeakAirBombBuff@@QAE@XZ:PROC		; ioWeakAirBombBuff::ioWeakAirBombBuff
EXTRN	??0ioRotateWeaponBuff@@QAE@XZ:PROC		; ioRotateWeaponBuff::ioRotateWeaponBuff
EXTRN	??0ioCreateWeaponCountBuff@@QAE@XZ:PROC		; ioCreateWeaponCountBuff::ioCreateWeaponCountBuff
EXTRN	??0ioDestroyCallBuff@@QAE@XZ:PROC		; ioDestroyCallBuff::ioDestroyCallBuff
EXTRN	??0ioControlWeaponBuff2@@QAE@XZ:PROC		; ioControlWeaponBuff2::ioControlWeaponBuff2
EXTRN	??0ioAlphaRateBuff@@QAE@XZ:PROC			; ioAlphaRateBuff::ioAlphaRateBuff
EXTRN	??0ioReflectDamageBuff@@QAE@XZ:PROC		; ioReflectDamageBuff::ioReflectDamageBuff
EXTRN	??0ioSkillGaugeCheckBuff@@QAE@XZ:PROC		; ioSkillGaugeCheckBuff::ioSkillGaugeCheckBuff
EXTRN	??0ioCreateBuff@@QAE@XZ:PROC			; ioCreateBuff::ioCreateBuff
EXTRN	??0ioTargetControlBuff@@QAE@XZ:PROC		; ioTargetControlBuff::ioTargetControlBuff
EXTRN	??0ioCreateDummyChar4Buff@@QAE@XZ:PROC		; ioCreateDummyChar4Buff::ioCreateDummyChar4Buff
EXTRN	??0ioConcentrateTargetBuff@@QAE@XZ:PROC		; ioConcentrateTargetBuff::ioConcentrateTargetBuff
EXTRN	??0ioTryOutCheckBuff2@@QAE@XZ:PROC		; ioTryOutCheckBuff2::ioTryOutCheckBuff2
EXTRN	??0ioTryOutCheckBuff@@QAE@XZ:PROC		; ioTryOutCheckBuff::ioTryOutCheckBuff
EXTRN	??0ioDispelBuff@@QAE@XZ:PROC			; ioDispelBuff::ioDispelBuff
EXTRN	??0ioDropZoneBuff@@QAE@XZ:PROC			; ioDropZoneBuff::ioDropZoneBuff
EXTRN	??0ioWindMagneticBuff@@QAE@XZ:PROC		; ioWindMagneticBuff::ioWindMagneticBuff
EXTRN	??0ioSpecialGaugeBuff2@@QAE@XZ:PROC		; ioSpecialGaugeBuff2::ioSpecialGaugeBuff2
EXTRN	??0ioMultiFlyJumpBuff@@QAE@XZ:PROC		; ioMultiFlyJumpBuff::ioMultiFlyJumpBuff
EXTRN	??0ioCheckLifeBuff@@QAE@XZ:PROC			; ioCheckLifeBuff::ioCheckLifeBuff
EXTRN	??0ioPositionBuff2@@QAE@XZ:PROC			; ioPositionBuff2::ioPositionBuff2
EXTRN	??0ioCallRandomBuff@@QAE@XZ:PROC		; ioCallRandomBuff::ioCallRandomBuff
EXTRN	??0ioWindLordBuff@@QAE@XZ:PROC			; ioWindLordBuff::ioWindLordBuff
EXTRN	??0ioPushDirectionBuff@@QAE@XZ:PROC		; ioPushDirectionBuff::ioPushDirectionBuff
EXTRN	??0ioEscapeDropZoneBuff@@QAE@XZ:PROC		; ioEscapeDropZoneBuff::ioEscapeDropZoneBuff
EXTRN	??0ioGravityUpDownBuff@@QAE@XZ:PROC		; ioGravityUpDownBuff::ioGravityUpDownBuff
EXTRN	??0ioPositionBuff@@QAE@XZ:PROC			; ioPositionBuff::ioPositionBuff
EXTRN	??0ioCreateDummyChar3Buff@@QAE@XZ:PROC		; ioCreateDummyChar3Buff::ioCreateDummyChar3Buff
EXTRN	??0ioWeaponAttachBuff@@QAE@XZ:PROC		; ioWeaponAttachBuff::ioWeaponAttachBuff
EXTRN	??0ioCreateDummyChar2Buff@@QAE@XZ:PROC		; ioCreateDummyChar2Buff::ioCreateDummyChar2Buff
EXTRN	??0ioMagneticBuff@@QAE@XZ:PROC			; ioMagneticBuff::ioMagneticBuff
EXTRN	??0ioGrapplingPushBuff@@QAE@XZ:PROC		; ioGrapplingPushBuff::ioGrapplingPushBuff
EXTRN	??0ioCreateDummyCharBuff@@QAE@XZ:PROC		; ioCreateDummyCharBuff::ioCreateDummyCharBuff
EXTRN	??0ioCallByNpcBuff@@QAE@XZ:PROC			; ioCallByNpcBuff::ioCallByNpcBuff
EXTRN	??0ioExtraCallBuff@@QAE@XZ:PROC			; ioExtraCallBuff::ioExtraCallBuff
EXTRN	??0ioAffectWoundedValueBuff@@QAE@XZ:PROC	; ioAffectWoundedValueBuff::ioAffectWoundedValueBuff
EXTRN	??0ioCreateWeaponBuff@@QAE@XZ:PROC		; ioCreateWeaponBuff::ioCreateWeaponBuff
EXTRN	??0ioHitCountHoldBuff@@QAE@XZ:PROC		; ioHitCountHoldBuff::ioHitCountHoldBuff
EXTRN	??0ioHide2Buff@@QAE@XZ:PROC			; ioHide2Buff::ioHide2Buff
EXTRN	??0ioDisableRecoverySkillGaugeBuff@@QAE@XZ:PROC	; ioDisableRecoverySkillGaugeBuff::ioDisableRecoverySkillGaugeBuff
EXTRN	??0ioRestorationGaugeBuff2@@QAE@XZ:PROC		; ioRestorationGaugeBuff2::ioRestorationGaugeBuff2
EXTRN	??0ioGaugeStealBuff2@@QAE@XZ:PROC		; ioGaugeStealBuff2::ioGaugeStealBuff2
EXTRN	??0ioTraceMineStateBuff@@QAE@XZ:PROC		; ioTraceMineStateBuff::ioTraceMineStateBuff
EXTRN	??0ioScreenBlindBuff2@@QAE@XZ:PROC		; ioScreenBlindBuff2::ioScreenBlindBuff2
EXTRN	??0ioChangeTeamBuff@@QAE@XZ:PROC		; ioChangeTeamBuff::ioChangeTeamBuff
EXTRN	??0ioTargetEquipObjectItemBuff@@QAE@XZ:PROC	; ioTargetEquipObjectItemBuff::ioTargetEquipObjectItemBuff
EXTRN	??0ioInfectionBuff@@QAE@XZ:PROC			; ioInfectionBuff::ioInfectionBuff
EXTRN	??0ioActiveCountBuff@@QAE@XZ:PROC		; ioActiveCountBuff::ioActiveCountBuff
EXTRN	??0ioDefenseDamageBuff2@@QAE@XZ:PROC		; ioDefenseDamageBuff2::ioDefenseDamageBuff2
EXTRN	??0ioWallCollisionBuff@@QAE@XZ:PROC		; ioWallCollisionBuff::ioWallCollisionBuff
EXTRN	??0ioControlWeaponBuff@@QAE@XZ:PROC		; ioControlWeaponBuff::ioControlWeaponBuff
EXTRN	??0ioSpeedAccumlateBuff@@QAE@XZ:PROC		; ioSpeedAccumlateBuff::ioSpeedAccumlateBuff
EXTRN	??0ioMagicStunBuff@@QAE@XZ:PROC			; ioMagicStunBuff::ioMagicStunBuff
EXTRN	??0ioCallBuffOnAttackBuff@@QAE@XZ:PROC		; ioCallBuffOnAttackBuff::ioCallBuffOnAttackBuff
EXTRN	??0ioSealSkillBuff@@QAE@XZ:PROC			; ioSealSkillBuff::ioSealSkillBuff
EXTRN	??0ioAdhesiveBuff@@QAE@XZ:PROC			; ioAdhesiveBuff::ioAdhesiveBuff
EXTRN	??0ioDefenseDamageBuff@@QAE@XZ:PROC		; ioDefenseDamageBuff::ioDefenseDamageBuff
EXTRN	??0ioChangeMeshBuff@@QAE@XZ:PROC		; ioChangeMeshBuff::ioChangeMeshBuff
EXTRN	??0ioAutoFireBuff@@QAE@XZ:PROC			; ioAutoFireBuff::ioAutoFireBuff
EXTRN	??0ioTeleportOnEndBuff@@QAE@XZ:PROC		; ioTeleportOnEndBuff::ioTeleportOnEndBuff
EXTRN	??0ioRandomMoveBuff@@QAE@XZ:PROC		; ioRandomMoveBuff::ioRandomMoveBuff
EXTRN	??0ioWitchFlyBuff@@QAE@XZ:PROC			; ioWitchFlyBuff::ioWitchFlyBuff
EXTRN	??0ioCallByStateBuff@@QAE@XZ:PROC		; ioCallByStateBuff::ioCallByStateBuff
EXTRN	??0ioGhostStateBuff@@QAE@XZ:PROC		; ioGhostStateBuff::ioGhostStateBuff
EXTRN	??0ioChangeSoldierBuff@@QAE@XZ:PROC		; ioChangeSoldierBuff::ioChangeSoldierBuff
EXTRN	??0ioPullBuff@@QAE@XZ:PROC			; ioPullBuff::ioPullBuff
EXTRN	??0ioEnableWoundStunBuff@@QAE@XZ:PROC		; ioEnableWoundStunBuff::ioEnableWoundStunBuff
EXTRN	??0ioChangeSkinColorBuff@@QAE@XZ:PROC		; ioChangeSkinColorBuff::ioChangeSkinColorBuff
EXTRN	??0ioPreventDropItemBuff@@QAE@XZ:PROC		; ioPreventDropItemBuff::ioPreventDropItemBuff
EXTRN	??0ioRefudBuff@@QAE@XZ:PROC			; ioRefudBuff::ioRefudBuff
EXTRN	??0ioSpecialGaugeBuff@@QAE@XZ:PROC		; ioSpecialGaugeBuff::ioSpecialGaugeBuff
EXTRN	??0ioStopPassiveBuff@@QAE@XZ:PROC		; ioStopPassiveBuff::ioStopPassiveBuff
EXTRN	??0ioChangeMoveSpeedBuff@@QAE@XZ:PROC		; ioChangeMoveSpeedBuff::ioChangeMoveSpeedBuff
EXTRN	??0ioWoundColorChangeBuff@@QAE@XZ:PROC		; ioWoundColorChangeBuff::ioWoundColorChangeBuff
EXTRN	??0ioSkipStunBuff@@QAE@XZ:PROC			; ioSkipStunBuff::ioSkipStunBuff
EXTRN	??0ioDummyBuff@@QAE@XZ:PROC			; ioDummyBuff::ioDummyBuff
EXTRN	??0ioIceBuff@@QAE@XZ:PROC			; ioIceBuff::ioIceBuff
EXTRN	??0ioNotMoveProtectBuff@@QAE@XZ:PROC		; ioNotMoveProtectBuff::ioNotMoveProtectBuff
EXTRN	??0ioLandRollingBuff@@QAE@XZ:PROC		; ioLandRollingBuff::ioLandRollingBuff
EXTRN	??0ioAirAttackBuff@@QAE@XZ:PROC			; ioAirAttackBuff::ioAirAttackBuff
EXTRN	??0ioLandStunBuff@@QAE@XZ:PROC			; ioLandStunBuff::ioLandStunBuff
EXTRN	??0ioFrontBackWoundBuff@@QAE@XZ:PROC		; ioFrontBackWoundBuff::ioFrontBackWoundBuff
EXTRN	??0ioFrictionUpDownBuff@@QAE@XZ:PROC		; ioFrictionUpDownBuff::ioFrictionUpDownBuff
EXTRN	??0ioDownRollingBuff@@QAE@XZ:PROC		; ioDownRollingBuff::ioDownRollingBuff
EXTRN	??0ioCurseBuff@@QAE@XZ:PROC			; ioCurseBuff::ioCurseBuff
EXTRN	??0ioLimitActionBuff@@QAE@XZ:PROC		; ioLimitActionBuff::ioLimitActionBuff
EXTRN	??0ioRangeProtectionBuff@@QAE@XZ:PROC		; ioRangeProtectionBuff::ioRangeProtectionBuff
EXTRN	??0ioSelectCollisionBuff@@QAE@XZ:PROC		; ioSelectCollisionBuff::ioSelectCollisionBuff
EXTRN	??0ioDefenseBreakBuff@@QAE@XZ:PROC		; ioDefenseBreakBuff::ioDefenseBreakBuff
EXTRN	??0ioDownJumppingBuff@@QAE@XZ:PROC		; ioDownJumppingBuff::ioDownJumppingBuff
EXTRN	??0ioFlyJumpBuff@@QAE@XZ:PROC			; ioFlyJumpBuff::ioFlyJumpBuff
EXTRN	??0ioLimitMoveBuff@@QAE@XZ:PROC			; ioLimitMoveBuff::ioLimitMoveBuff
EXTRN	??0ioAccumulateBuff@@QAE@XZ:PROC		; ioAccumulateBuff::ioAccumulateBuff
EXTRN	??0ioFloatModeEventBuff@@QAE@XZ:PROC		; ioFloatModeEventBuff::ioFloatModeEventBuff
EXTRN	??0ioReturnAttackBuff@@QAE@XZ:PROC		; ioReturnAttackBuff::ioReturnAttackBuff
EXTRN	??0ioGaugeStealBuff@@QAE@XZ:PROC		; ioGaugeStealBuff::ioGaugeStealBuff
EXTRN	??0ioChangeMotionBuff@@QAE@XZ:PROC		; ioChangeMotionBuff::ioChangeMotionBuff
EXTRN	??0ioDisableDashBuff@@QAE@XZ:PROC		; ioDisableDashBuff::ioDisableDashBuff
EXTRN	??0ioNoWoundBuff@@QAE@XZ:PROC			; ioNoWoundBuff::ioNoWoundBuff
EXTRN	??0ioHeadScaleBuff@@QAE@XZ:PROC			; ioHeadScaleBuff::ioHeadScaleBuff
EXTRN	??0ioHPStealBuff@@QAE@XZ:PROC			; ioHPStealBuff::ioHPStealBuff
EXTRN	??0ioReverseDirectionBuff@@QAE@XZ:PROC		; ioReverseDirectionBuff::ioReverseDirectionBuff
EXTRN	??0ioSystemDamageRateBuff@@QAE@XZ:PROC		; ioSystemDamageRateBuff::ioSystemDamageRateBuff
EXTRN	??0ioDamageConvertBuff@@QAE@XZ:PROC		; ioDamageConvertBuff::ioDamageConvertBuff
EXTRN	??0ioStopMotionBuff@@QAE@XZ:PROC		; ioStopMotionBuff::ioStopMotionBuff
EXTRN	??0ioHPConvertBuff@@QAE@XZ:PROC			; ioHPConvertBuff::ioHPConvertBuff
EXTRN	??0ioBlowPushPowerBuff@@QAE@XZ:PROC		; ioBlowPushPowerBuff::ioBlowPushPowerBuff
EXTRN	??0ioBreakFallBuff@@QAE@XZ:PROC			; ioBreakFallBuff::ioBreakFallBuff
EXTRN	??0ioPushBlowEnhanceBuff@@QAE@XZ:PROC		; ioPushBlowEnhanceBuff::ioPushBlowEnhanceBuff
EXTRN	??0ioScreenBlindBuff@@QAE@XZ:PROC		; ioScreenBlindBuff::ioScreenBlindBuff
EXTRN	??0ioLandingRateBuff@@QAE@XZ:PROC		; ioLandingRateBuff::ioLandingRateBuff
EXTRN	??0ioJumpPowerRateBuff@@QAE@XZ:PROC		; ioJumpPowerRateBuff::ioJumpPowerRateBuff
EXTRN	??0ioFloatBuff@@QAE@XZ:PROC			; ioFloatBuff::ioFloatBuff
EXTRN	??0ioStateProtectionBuff@@QAE@XZ:PROC		; ioStateProtectionBuff::ioStateProtectionBuff
EXTRN	??0ioCloseOrderBuff@@QAE@XZ:PROC		; ioCloseOrderBuff::ioCloseOrderBuff
EXTRN	??0ioWarpStateBuff@@QAE@XZ:PROC			; ioWarpStateBuff::ioWarpStateBuff
EXTRN	??0ioManaShieldBuff@@QAE@XZ:PROC		; ioManaShieldBuff::ioManaShieldBuff
EXTRN	??0ioEletricBuff@@QAE@XZ:PROC			; ioEletricBuff::ioEletricBuff
EXTRN	??0ioAbsoluteProtectionBuff@@QAE@XZ:PROC	; ioAbsoluteProtectionBuff::ioAbsoluteProtectionBuff
EXTRN	??0ioDoubleJumpBuff@@QAE@XZ:PROC		; ioDoubleJumpBuff::ioDoubleJumpBuff
EXTRN	??0ioFearBuff@@QAE@XZ:PROC			; ioFearBuff::ioFearBuff
EXTRN	??0ioGaugeClearBuff@@QAE@XZ:PROC		; ioGaugeClearBuff::ioGaugeClearBuff
EXTRN	??0ioWeakMagicBuff@@QAE@XZ:PROC			; ioWeakMagicBuff::ioWeakMagicBuff
EXTRN	??0ioWeakBombBuff@@QAE@XZ:PROC			; ioWeakBombBuff::ioWeakBombBuff
EXTRN	??0ioHideBuff@@QAE@XZ:PROC			; ioHideBuff::ioHideBuff
EXTRN	??0ioStealthBuff@@QAE@XZ:PROC			; ioStealthBuff::ioStealthBuff
EXTRN	??0ioCatchBuff@@QAE@XZ:PROC			; ioCatchBuff::ioCatchBuff
EXTRN	??0ioCameraBuff@@QAE@XZ:PROC			; ioCameraBuff::ioCameraBuff
EXTRN	??0ioRestorationGaugeBuff@@QAE@XZ:PROC		; ioRestorationGaugeBuff::ioRestorationGaugeBuff
EXTRN	??0ioRecoveryGaugeBuff@@QAE@XZ:PROC		; ioRecoveryGaugeBuff::ioRecoveryGaugeBuff
EXTRN	??0ioKingScaleBuff@@QAE@XZ:PROC			; ioKingScaleBuff::ioKingScaleBuff
EXTRN	??0ioReflectBuff@@QAE@XZ:PROC			; ioReflectBuff::ioReflectBuff
EXTRN	??0ioPotionBuff@@QAE@XZ:PROC			; ioPotionBuff::ioPotionBuff
EXTRN	??0ioDurationScaleBuff@@QAE@XZ:PROC		; ioDurationScaleBuff::ioDurationScaleBuff
EXTRN	??0ioPushBackBuff@@QAE@XZ:PROC			; ioPushBackBuff::ioPushBackBuff
EXTRN	??0ioProtectionBuff@@QAE@XZ:PROC		; ioProtectionBuff::ioProtectionBuff
EXTRN	??0ioStatEnhanceBuff@@QAE@XZ:PROC		; ioStatEnhanceBuff::ioStatEnhanceBuff
EXTRN	??0ioPoisoningBuff@@QAE@XZ:PROC			; ioPoisoningBuff::ioPoisoningBuff
EXTRN	??0ioStunBuff@@QAE@XZ:PROC			; ioStunBuff::ioStunBuff
EXTRN	??0ioFrozenBuff@@QAE@XZ:PROC			; ioFrozenBuff::ioFrozenBuff
EXTRN	??0ioBurnBuff@@QAE@XZ:PROC			; ioBurnBuff::ioBurnBuff
EXTRN	??0ioFlyBuff@@QAE@XZ:PROC			; ioFlyBuff::ioFlyBuff
EXTRN	??0ioRestorationBuff@@QAE@XZ:PROC		; ioRestorationBuff::ioRestorationBuff
EXTRN	??0ioRecoveryBuff@@QAE@XZ:PROC			; ioRecoveryBuff::ioRecoveryBuff
EXTRN	??0ioWoundedUpDownBuff@@QAE@XZ:PROC		; ioWoundedUpDownBuff::ioWoundedUpDownBuff
EXTRN	??0ioSpeedUpDownBuff@@QAE@XZ:PROC		; ioSpeedUpDownBuff::ioSpeedUpDownBuff
EXTRN	??0ioDamageUpDownBuff@@QAE@XZ:PROC		; ioDamageUpDownBuff::ioDamageUpDownBuff
EXTRN	??2@YAPAXI@Z:PROC				; operator new
EXTRN	___CxxFrameHandler3:PROC
EXTRN	@__security_check_cookie@4:PROC
EXTRN	__EH_epilog3:PROC
EXTRN	__EH_prolog3:PROC
;	COMDAT ??_C@_0DN@LAIAOGKK@ioBuffMaker?3?3CreateNormalBuffTem@
; File d:\lost saga for developer\youtube\tutorial\source\src\lsclient\iobuffmaker.cpp
CONST	SEGMENT
??_C@_0DN@LAIAOGKK@ioBuffMaker?3?3CreateNormalBuffTem@ DB 'ioBuffMaker::C'
	DB	'reateNormalBuffTemplete() Create Fail Buff: %d', 00H ; `string'
CONST	ENDS
;	COMDAT xdata$x
xdata$x	SEGMENT
__ehfuncinfo$?CreateNormalBuffTemplete@ioBuffMaker@@IAEPAVioBuff@@HH@Z DD 019930522H
	DD	0d9H
	DD	FLAT:__unwindtable$?CreateNormalBuffTemplete@ioBuffMaker@@IAEPAVioBuff@@HH@Z
	DD	2 DUP(00H)
	DD	2 DUP(00H)
	DD	00H
	DD	01H
__unwindtable$?CreateNormalBuffTemplete@ioBuffMaker@@IAEPAVioBuff@@HH@Z DD 0ffffffffH
	DD	FLAT:__unwindfunclet$?CreateNormalBuffTemplete@ioBuffMaker@@IAEPAVioBuff@@HH@Z$0
	DD	0ffffffffH
	DD	FLAT:__unwindfunclet$?CreateNormalBuffTemplete@ioBuffMaker@@IAEPAVioBuff@@HH@Z$1
	DD	0ffffffffH
	DD	FLAT:__unwindfunclet$?CreateNormalBuffTemplete@ioBuffMaker@@IAEPAVioBuff@@HH@Z$2
	DD	0ffffffffH
	DD	FLAT:__unwindfunclet$?CreateNormalBuffTemplete@ioBuffMaker@@IAEPAVioBuff@@HH@Z$3
	DD	0ffffffffH
	DD	FLAT:__unwindfunclet$?CreateNormalBuffTemplete@ioBuffMaker@@IAEPAVioBuff@@HH@Z$4
	DD	0ffffffffH
	DD	FLAT:__unwindfunclet$?CreateNormalBuffTemplete@ioBuffMaker@@IAEPAVioBuff@@HH@Z$5
	DD	0ffffffffH
	DD	FLAT:__unwindfunclet$?CreateNormalBuffTemplete@ioBuffMaker@@IAEPAVioBuff@@HH@Z$6
	DD	0ffffffffH
	DD	FLAT:__unwindfunclet$?CreateNormalBuffTemplete@ioBuffMaker@@IAEPAVioBuff@@HH@Z$7
	DD	0ffffffffH
	DD	FLAT:__unwindfunclet$?CreateNormalBuffTemplete@ioBuffMaker@@IAEPAVioBuff@@HH@Z$8
	DD	0ffffffffH
	DD	FLAT:__unwindfunclet$?CreateNormalBuffTemplete@ioBuffMaker@@IAEPAVioBuff@@HH@Z$9
	DD	0ffffffffH
	DD	FLAT:__unwindfunclet$?CreateNormalBuffTemplete@ioBuffMaker@@IAEPAVioBuff@@HH@Z$10
	DD	0ffffffffH
	DD	FLAT:__unwindfunclet$?CreateNormalBuffTemplete@ioBuffMaker@@IAEPAVioBuff@@HH@Z$11
	DD	0ffffffffH
	DD	FLAT:__unwindfunclet$?CreateNormalBuffTemplete@ioBuffMaker@@IAEPAVioBuff@@HH@Z$12
	DD	0ffffffffH
	DD	FLAT:__unwindfunclet$?CreateNormalBuffTemplete@ioBuffMaker@@IAEPAVioBuff@@HH@Z$13
	DD	0ffffffffH
	DD	FLAT:__unwindfunclet$?CreateNormalBuffTemplete@ioBuffMaker@@IAEPAVioBuff@@HH@Z$14
	DD	0ffffffffH
	DD	FLAT:__unwindfunclet$?CreateNormalBuffTemplete@ioBuffMaker@@IAEPAVioBuff@@HH@Z$15
	DD	0ffffffffH
	DD	FLAT:__unwindfunclet$?CreateNormalBuffTemplete@ioBuffMaker@@IAEPAVioBuff@@HH@Z$16
	DD	0ffffffffH
	DD	FLAT:__unwindfunclet$?CreateNormalBuffTemplete@ioBuffMaker@@IAEPAVioBuff@@HH@Z$17
	DD	0ffffffffH
	DD	FLAT:__unwindfunclet$?CreateNormalBuffTemplete@ioBuffMaker@@IAEPAVioBuff@@HH@Z$18
	DD	0ffffffffH
	DD	FLAT:__unwindfunclet$?CreateNormalBuffTemplete@ioBuffMaker@@IAEPAVioBuff@@HH@Z$19
	DD	0ffffffffH
	DD	FLAT:__unwindfunclet$?CreateNormalBuffTemplete@ioBuffMaker@@IAEPAVioBuff@@HH@Z$20
	DD	0ffffffffH
	DD	FLAT:__unwindfunclet$?CreateNormalBuffTemplete@ioBuffMaker@@IAEPAVioBuff@@HH@Z$21
	DD	0ffffffffH
	DD	FLAT:__unwindfunclet$?CreateNormalBuffTemplete@ioBuffMaker@@IAEPAVioBuff@@HH@Z$22
	DD	0ffffffffH
	DD	FLAT:__unwindfunclet$?CreateNormalBuffTemplete@ioBuffMaker@@IAEPAVioBuff@@HH@Z$23
	DD	0ffffffffH
	DD	FLAT:__unwindfunclet$?CreateNormalBuffTemplete@ioBuffMaker@@IAEPAVioBuff@@HH@Z$24
	DD	0ffffffffH
	DD	FLAT:__unwindfunclet$?CreateNormalBuffTemplete@ioBuffMaker@@IAEPAVioBuff@@HH@Z$25
	DD	0ffffffffH
	DD	FLAT:__unwindfunclet$?CreateNormalBuffTemplete@ioBuffMaker@@IAEPAVioBuff@@HH@Z$26
	DD	0ffffffffH
	DD	FLAT:__unwindfunclet$?CreateNormalBuffTemplete@ioBuffMaker@@IAEPAVioBuff@@HH@Z$27
	DD	0ffffffffH
	DD	FLAT:__unwindfunclet$?CreateNormalBuffTemplete@ioBuffMaker@@IAEPAVioBuff@@HH@Z$28
	DD	0ffffffffH
	DD	FLAT:__unwindfunclet$?CreateNormalBuffTemplete@ioBuffMaker@@IAEPAVioBuff@@HH@Z$29
	DD	0ffffffffH
	DD	FLAT:__unwindfunclet$?CreateNormalBuffTemplete@ioBuffMaker@@IAEPAVioBuff@@HH@Z$30
	DD	0ffffffffH
	DD	FLAT:__unwindfunclet$?CreateNormalBuffTemplete@ioBuffMaker@@IAEPAVioBuff@@HH@Z$31
	DD	0ffffffffH
	DD	FLAT:__unwindfunclet$?CreateNormalBuffTemplete@ioBuffMaker@@IAEPAVioBuff@@HH@Z$32
	DD	0ffffffffH
	DD	FLAT:__unwindfunclet$?CreateNormalBuffTemplete@ioBuffMaker@@IAEPAVioBuff@@HH@Z$33
	DD	0ffffffffH
	DD	FLAT:__unwindfunclet$?CreateNormalBuffTemplete@ioBuffMaker@@IAEPAVioBuff@@HH@Z$34
	DD	0ffffffffH
	DD	FLAT:__unwindfunclet$?CreateNormalBuffTemplete@ioBuffMaker@@IAEPAVioBuff@@HH@Z$35
	DD	0ffffffffH
	DD	FLAT:__unwindfunclet$?CreateNormalBuffTemplete@ioBuffMaker@@IAEPAVioBuff@@HH@Z$36
	DD	0ffffffffH
	DD	FLAT:__unwindfunclet$?CreateNormalBuffTemplete@ioBuffMaker@@IAEPAVioBuff@@HH@Z$37
	DD	0ffffffffH
	DD	FLAT:__unwindfunclet$?CreateNormalBuffTemplete@ioBuffMaker@@IAEPAVioBuff@@HH@Z$38
	DD	0ffffffffH
	DD	FLAT:__unwindfunclet$?CreateNormalBuffTemplete@ioBuffMaker@@IAEPAVioBuff@@HH@Z$39
	DD	0ffffffffH
	DD	FLAT:__unwindfunclet$?CreateNormalBuffTemplete@ioBuffMaker@@IAEPAVioBuff@@HH@Z$40
	DD	0ffffffffH
	DD	FLAT:__unwindfunclet$?CreateNormalBuffTemplete@ioBuffMaker@@IAEPAVioBuff@@HH@Z$41
	DD	0ffffffffH
	DD	FLAT:__unwindfunclet$?CreateNormalBuffTemplete@ioBuffMaker@@IAEPAVioBuff@@HH@Z$42
	DD	0ffffffffH
	DD	FLAT:__unwindfunclet$?CreateNormalBuffTemplete@ioBuffMaker@@IAEPAVioBuff@@HH@Z$43
	DD	0ffffffffH
	DD	FLAT:__unwindfunclet$?CreateNormalBuffTemplete@ioBuffMaker@@IAEPAVioBuff@@HH@Z$44
	DD	0ffffffffH
	DD	FLAT:__unwindfunclet$?CreateNormalBuffTemplete@ioBuffMaker@@IAEPAVioBuff@@HH@Z$45
	DD	0ffffffffH
	DD	FLAT:__unwindfunclet$?CreateNormalBuffTemplete@ioBuffMaker@@IAEPAVioBuff@@HH@Z$46
	DD	0ffffffffH
	DD	FLAT:__unwindfunclet$?CreateNormalBuffTemplete@ioBuffMaker@@IAEPAVioBuff@@HH@Z$47
	DD	0ffffffffH
	DD	FLAT:__unwindfunclet$?CreateNormalBuffTemplete@ioBuffMaker@@IAEPAVioBuff@@HH@Z$48
	DD	0ffffffffH
	DD	FLAT:__unwindfunclet$?CreateNormalBuffTemplete@ioBuffMaker@@IAEPAVioBuff@@HH@Z$49
	DD	0ffffffffH
	DD	FLAT:__unwindfunclet$?CreateNormalBuffTemplete@ioBuffMaker@@IAEPAVioBuff@@HH@Z$50
	DD	0ffffffffH
	DD	FLAT:__unwindfunclet$?CreateNormalBuffTemplete@ioBuffMaker@@IAEPAVioBuff@@HH@Z$51
	DD	0ffffffffH
	DD	FLAT:__unwindfunclet$?CreateNormalBuffTemplete@ioBuffMaker@@IAEPAVioBuff@@HH@Z$52
	DD	0ffffffffH
	DD	FLAT:__unwindfunclet$?CreateNormalBuffTemplete@ioBuffMaker@@IAEPAVioBuff@@HH@Z$53
	DD	0ffffffffH
	DD	FLAT:__unwindfunclet$?CreateNormalBuffTemplete@ioBuffMaker@@IAEPAVioBuff@@HH@Z$54
	DD	0ffffffffH
	DD	FLAT:__unwindfunclet$?CreateNormalBuffTemplete@ioBuffMaker@@IAEPAVioBuff@@HH@Z$55
	DD	0ffffffffH
	DD	FLAT:__unwindfunclet$?CreateNormalBuffTemplete@ioBuffMaker@@IAEPAVioBuff@@HH@Z$56
	DD	0ffffffffH
	DD	FLAT:__unwindfunclet$?CreateNormalBuffTemplete@ioBuffMaker@@IAEPAVioBuff@@HH@Z$57
	DD	0ffffffffH
	DD	FLAT:__unwindfunclet$?CreateNormalBuffTemplete@ioBuffMaker@@IAEPAVioBuff@@HH@Z$58
	DD	0ffffffffH
	DD	FLAT:__unwindfunclet$?CreateNormalBuffTemplete@ioBuffMaker@@IAEPAVioBuff@@HH@Z$59
	DD	0ffffffffH
	DD	FLAT:__unwindfunclet$?CreateNormalBuffTemplete@ioBuffMaker@@IAEPAVioBuff@@HH@Z$60
	DD	0ffffffffH
	DD	FLAT:__unwindfunclet$?CreateNormalBuffTemplete@ioBuffMaker@@IAEPAVioBuff@@HH@Z$61
	DD	0ffffffffH
	DD	FLAT:__unwindfunclet$?CreateNormalBuffTemplete@ioBuffMaker@@IAEPAVioBuff@@HH@Z$62
	DD	0ffffffffH
	DD	FLAT:__unwindfunclet$?CreateNormalBuffTemplete@ioBuffMaker@@IAEPAVioBuff@@HH@Z$63
	DD	0ffffffffH
	DD	FLAT:__unwindfunclet$?CreateNormalBuffTemplete@ioBuffMaker@@IAEPAVioBuff@@HH@Z$64
	DD	0ffffffffH
	DD	FLAT:__unwindfunclet$?CreateNormalBuffTemplete@ioBuffMaker@@IAEPAVioBuff@@HH@Z$65
	DD	0ffffffffH
	DD	FLAT:__unwindfunclet$?CreateNormalBuffTemplete@ioBuffMaker@@IAEPAVioBuff@@HH@Z$66
	DD	0ffffffffH
	DD	FLAT:__unwindfunclet$?CreateNormalBuffTemplete@ioBuffMaker@@IAEPAVioBuff@@HH@Z$67
	DD	0ffffffffH
	DD	FLAT:__unwindfunclet$?CreateNormalBuffTemplete@ioBuffMaker@@IAEPAVioBuff@@HH@Z$68
	DD	0ffffffffH
	DD	FLAT:__unwindfunclet$?CreateNormalBuffTemplete@ioBuffMaker@@IAEPAVioBuff@@HH@Z$69
	DD	0ffffffffH
	DD	FLAT:__unwindfunclet$?CreateNormalBuffTemplete@ioBuffMaker@@IAEPAVioBuff@@HH@Z$70
	DD	0ffffffffH
	DD	FLAT:__unwindfunclet$?CreateNormalBuffTemplete@ioBuffMaker@@IAEPAVioBuff@@HH@Z$71
	DD	0ffffffffH
	DD	FLAT:__unwindfunclet$?CreateNormalBuffTemplete@ioBuffMaker@@IAEPAVioBuff@@HH@Z$72
	DD	0ffffffffH
	DD	FLAT:__unwindfunclet$?CreateNormalBuffTemplete@ioBuffMaker@@IAEPAVioBuff@@HH@Z$73
	DD	0ffffffffH
	DD	FLAT:__unwindfunclet$?CreateNormalBuffTemplete@ioBuffMaker@@IAEPAVioBuff@@HH@Z$74
	DD	0ffffffffH
	DD	FLAT:__unwindfunclet$?CreateNormalBuffTemplete@ioBuffMaker@@IAEPAVioBuff@@HH@Z$75
	DD	0ffffffffH
	DD	FLAT:__unwindfunclet$?CreateNormalBuffTemplete@ioBuffMaker@@IAEPAVioBuff@@HH@Z$76
	DD	0ffffffffH
	DD	FLAT:__unwindfunclet$?CreateNormalBuffTemplete@ioBuffMaker@@IAEPAVioBuff@@HH@Z$77
	DD	0ffffffffH
	DD	FLAT:__unwindfunclet$?CreateNormalBuffTemplete@ioBuffMaker@@IAEPAVioBuff@@HH@Z$78
	DD	0ffffffffH
	DD	FLAT:__unwindfunclet$?CreateNormalBuffTemplete@ioBuffMaker@@IAEPAVioBuff@@HH@Z$79
	DD	0ffffffffH
	DD	FLAT:__unwindfunclet$?CreateNormalBuffTemplete@ioBuffMaker@@IAEPAVioBuff@@HH@Z$80
	DD	0ffffffffH
	DD	FLAT:__unwindfunclet$?CreateNormalBuffTemplete@ioBuffMaker@@IAEPAVioBuff@@HH@Z$81
	DD	0ffffffffH
	DD	FLAT:__unwindfunclet$?CreateNormalBuffTemplete@ioBuffMaker@@IAEPAVioBuff@@HH@Z$82
	DD	0ffffffffH
	DD	FLAT:__unwindfunclet$?CreateNormalBuffTemplete@ioBuffMaker@@IAEPAVioBuff@@HH@Z$83
	DD	0ffffffffH
	DD	FLAT:__unwindfunclet$?CreateNormalBuffTemplete@ioBuffMaker@@IAEPAVioBuff@@HH@Z$84
	DD	0ffffffffH
	DD	FLAT:__unwindfunclet$?CreateNormalBuffTemplete@ioBuffMaker@@IAEPAVioBuff@@HH@Z$85
	DD	0ffffffffH
	DD	FLAT:__unwindfunclet$?CreateNormalBuffTemplete@ioBuffMaker@@IAEPAVioBuff@@HH@Z$86
	DD	0ffffffffH
	DD	FLAT:__unwindfunclet$?CreateNormalBuffTemplete@ioBuffMaker@@IAEPAVioBuff@@HH@Z$87
	DD	0ffffffffH
	DD	FLAT:__unwindfunclet$?CreateNormalBuffTemplete@ioBuffMaker@@IAEPAVioBuff@@HH@Z$88
	DD	0ffffffffH
	DD	FLAT:__unwindfunclet$?CreateNormalBuffTemplete@ioBuffMaker@@IAEPAVioBuff@@HH@Z$89
	DD	0ffffffffH
	DD	FLAT:__unwindfunclet$?CreateNormalBuffTemplete@ioBuffMaker@@IAEPAVioBuff@@HH@Z$90
	DD	0ffffffffH
	DD	FLAT:__unwindfunclet$?CreateNormalBuffTemplete@ioBuffMaker@@IAEPAVioBuff@@HH@Z$91
	DD	0ffffffffH
	DD	FLAT:__unwindfunclet$?CreateNormalBuffTemplete@ioBuffMaker@@IAEPAVioBuff@@HH@Z$92
	DD	0ffffffffH
	DD	FLAT:__unwindfunclet$?CreateNormalBuffTemplete@ioBuffMaker@@IAEPAVioBuff@@HH@Z$93
	DD	0ffffffffH
	DD	FLAT:__unwindfunclet$?CreateNormalBuffTemplete@ioBuffMaker@@IAEPAVioBuff@@HH@Z$94
	DD	0ffffffffH
	DD	FLAT:__unwindfunclet$?CreateNormalBuffTemplete@ioBuffMaker@@IAEPAVioBuff@@HH@Z$95
	DD	0ffffffffH
	DD	FLAT:__unwindfunclet$?CreateNormalBuffTemplete@ioBuffMaker@@IAEPAVioBuff@@HH@Z$96
	DD	0ffffffffH
	DD	FLAT:__unwindfunclet$?CreateNormalBuffTemplete@ioBuffMaker@@IAEPAVioBuff@@HH@Z$97
	DD	0ffffffffH
	DD	FLAT:__unwindfunclet$?CreateNormalBuffTemplete@ioBuffMaker@@IAEPAVioBuff@@HH@Z$98
	DD	0ffffffffH
	DD	FLAT:__unwindfunclet$?CreateNormalBuffTemplete@ioBuffMaker@@IAEPAVioBuff@@HH@Z$99
	DD	0ffffffffH
	DD	FLAT:__unwindfunclet$?CreateNormalBuffTemplete@ioBuffMaker@@IAEPAVioBuff@@HH@Z$100
	DD	0ffffffffH
	DD	FLAT:__unwindfunclet$?CreateNormalBuffTemplete@ioBuffMaker@@IAEPAVioBuff@@HH@Z$101
	DD	0ffffffffH
	DD	FLAT:__unwindfunclet$?CreateNormalBuffTemplete@ioBuffMaker@@IAEPAVioBuff@@HH@Z$102
	DD	0ffffffffH
	DD	FLAT:__unwindfunclet$?CreateNormalBuffTemplete@ioBuffMaker@@IAEPAVioBuff@@HH@Z$103
	DD	0ffffffffH
	DD	FLAT:__unwindfunclet$?CreateNormalBuffTemplete@ioBuffMaker@@IAEPAVioBuff@@HH@Z$104
	DD	0ffffffffH
	DD	FLAT:__unwindfunclet$?CreateNormalBuffTemplete@ioBuffMaker@@IAEPAVioBuff@@HH@Z$105
	DD	0ffffffffH
	DD	FLAT:__unwindfunclet$?CreateNormalBuffTemplete@ioBuffMaker@@IAEPAVioBuff@@HH@Z$106
	DD	0ffffffffH
	DD	FLAT:__unwindfunclet$?CreateNormalBuffTemplete@ioBuffMaker@@IAEPAVioBuff@@HH@Z$107
	DD	0ffffffffH
	DD	FLAT:__unwindfunclet$?CreateNormalBuffTemplete@ioBuffMaker@@IAEPAVioBuff@@HH@Z$108
	DD	0ffffffffH
	DD	FLAT:__unwindfunclet$?CreateNormalBuffTemplete@ioBuffMaker@@IAEPAVioBuff@@HH@Z$109
	DD	0ffffffffH
	DD	FLAT:__unwindfunclet$?CreateNormalBuffTemplete@ioBuffMaker@@IAEPAVioBuff@@HH@Z$110
	DD	0ffffffffH
	DD	FLAT:__unwindfunclet$?CreateNormalBuffTemplete@ioBuffMaker@@IAEPAVioBuff@@HH@Z$111
	DD	0ffffffffH
	DD	FLAT:__unwindfunclet$?CreateNormalBuffTemplete@ioBuffMaker@@IAEPAVioBuff@@HH@Z$112
	DD	0ffffffffH
	DD	FLAT:__unwindfunclet$?CreateNormalBuffTemplete@ioBuffMaker@@IAEPAVioBuff@@HH@Z$113
	DD	0ffffffffH
	DD	FLAT:__unwindfunclet$?CreateNormalBuffTemplete@ioBuffMaker@@IAEPAVioBuff@@HH@Z$114
	DD	0ffffffffH
	DD	FLAT:__unwindfunclet$?CreateNormalBuffTemplete@ioBuffMaker@@IAEPAVioBuff@@HH@Z$115
	DD	0ffffffffH
	DD	FLAT:__unwindfunclet$?CreateNormalBuffTemplete@ioBuffMaker@@IAEPAVioBuff@@HH@Z$116
	DD	0ffffffffH
	DD	FLAT:__unwindfunclet$?CreateNormalBuffTemplete@ioBuffMaker@@IAEPAVioBuff@@HH@Z$117
	DD	0ffffffffH
	DD	FLAT:__unwindfunclet$?CreateNormalBuffTemplete@ioBuffMaker@@IAEPAVioBuff@@HH@Z$118
	DD	0ffffffffH
	DD	FLAT:__unwindfunclet$?CreateNormalBuffTemplete@ioBuffMaker@@IAEPAVioBuff@@HH@Z$119
	DD	0ffffffffH
	DD	FLAT:__unwindfunclet$?CreateNormalBuffTemplete@ioBuffMaker@@IAEPAVioBuff@@HH@Z$120
	DD	0ffffffffH
	DD	FLAT:__unwindfunclet$?CreateNormalBuffTemplete@ioBuffMaker@@IAEPAVioBuff@@HH@Z$121
	DD	0ffffffffH
	DD	FLAT:__unwindfunclet$?CreateNormalBuffTemplete@ioBuffMaker@@IAEPAVioBuff@@HH@Z$122
	DD	0ffffffffH
	DD	FLAT:__unwindfunclet$?CreateNormalBuffTemplete@ioBuffMaker@@IAEPAVioBuff@@HH@Z$123
	DD	0ffffffffH
	DD	FLAT:__unwindfunclet$?CreateNormalBuffTemplete@ioBuffMaker@@IAEPAVioBuff@@HH@Z$124
	DD	0ffffffffH
	DD	FLAT:__unwindfunclet$?CreateNormalBuffTemplete@ioBuffMaker@@IAEPAVioBuff@@HH@Z$125
	DD	0ffffffffH
	DD	FLAT:__unwindfunclet$?CreateNormalBuffTemplete@ioBuffMaker@@IAEPAVioBuff@@HH@Z$126
	DD	0ffffffffH
	DD	FLAT:__unwindfunclet$?CreateNormalBuffTemplete@ioBuffMaker@@IAEPAVioBuff@@HH@Z$127
	DD	0ffffffffH
	DD	FLAT:__unwindfunclet$?CreateNormalBuffTemplete@ioBuffMaker@@IAEPAVioBuff@@HH@Z$128
	DD	0ffffffffH
	DD	FLAT:__unwindfunclet$?CreateNormalBuffTemplete@ioBuffMaker@@IAEPAVioBuff@@HH@Z$129
	DD	0ffffffffH
	DD	FLAT:__unwindfunclet$?CreateNormalBuffTemplete@ioBuffMaker@@IAEPAVioBuff@@HH@Z$130
	DD	0ffffffffH
	DD	FLAT:__unwindfunclet$?CreateNormalBuffTemplete@ioBuffMaker@@IAEPAVioBuff@@HH@Z$131
	DD	0ffffffffH
	DD	FLAT:__unwindfunclet$?CreateNormalBuffTemplete@ioBuffMaker@@IAEPAVioBuff@@HH@Z$132
	DD	0ffffffffH
	DD	FLAT:__unwindfunclet$?CreateNormalBuffTemplete@ioBuffMaker@@IAEPAVioBuff@@HH@Z$133
	DD	0ffffffffH
	DD	FLAT:__unwindfunclet$?CreateNormalBuffTemplete@ioBuffMaker@@IAEPAVioBuff@@HH@Z$134
	DD	0ffffffffH
	DD	FLAT:__unwindfunclet$?CreateNormalBuffTemplete@ioBuffMaker@@IAEPAVioBuff@@HH@Z$135
	DD	0ffffffffH
	DD	FLAT:__unwindfunclet$?CreateNormalBuffTemplete@ioBuffMaker@@IAEPAVioBuff@@HH@Z$136
	DD	0ffffffffH
	DD	FLAT:__unwindfunclet$?CreateNormalBuffTemplete@ioBuffMaker@@IAEPAVioBuff@@HH@Z$137
	DD	0ffffffffH
	DD	FLAT:__unwindfunclet$?CreateNormalBuffTemplete@ioBuffMaker@@IAEPAVioBuff@@HH@Z$138
	DD	0ffffffffH
	DD	FLAT:__unwindfunclet$?CreateNormalBuffTemplete@ioBuffMaker@@IAEPAVioBuff@@HH@Z$139
	DD	0ffffffffH
	DD	FLAT:__unwindfunclet$?CreateNormalBuffTemplete@ioBuffMaker@@IAEPAVioBuff@@HH@Z$140
	DD	0ffffffffH
	DD	FLAT:__unwindfunclet$?CreateNormalBuffTemplete@ioBuffMaker@@IAEPAVioBuff@@HH@Z$141
	DD	0ffffffffH
	DD	FLAT:__unwindfunclet$?CreateNormalBuffTemplete@ioBuffMaker@@IAEPAVioBuff@@HH@Z$142
	DD	0ffffffffH
	DD	FLAT:__unwindfunclet$?CreateNormalBuffTemplete@ioBuffMaker@@IAEPAVioBuff@@HH@Z$143
	DD	0ffffffffH
	DD	FLAT:__unwindfunclet$?CreateNormalBuffTemplete@ioBuffMaker@@IAEPAVioBuff@@HH@Z$144
	DD	0ffffffffH
	DD	FLAT:__unwindfunclet$?CreateNormalBuffTemplete@ioBuffMaker@@IAEPAVioBuff@@HH@Z$145
	DD	0ffffffffH
	DD	FLAT:__unwindfunclet$?CreateNormalBuffTemplete@ioBuffMaker@@IAEPAVioBuff@@HH@Z$146
	DD	0ffffffffH
	DD	FLAT:__unwindfunclet$?CreateNormalBuffTemplete@ioBuffMaker@@IAEPAVioBuff@@HH@Z$147
	DD	0ffffffffH
	DD	FLAT:__unwindfunclet$?CreateNormalBuffTemplete@ioBuffMaker@@IAEPAVioBuff@@HH@Z$148
	DD	0ffffffffH
	DD	FLAT:__unwindfunclet$?CreateNormalBuffTemplete@ioBuffMaker@@IAEPAVioBuff@@HH@Z$149
	DD	0ffffffffH
	DD	FLAT:__unwindfunclet$?CreateNormalBuffTemplete@ioBuffMaker@@IAEPAVioBuff@@HH@Z$150
	DD	0ffffffffH
	DD	FLAT:__unwindfunclet$?CreateNormalBuffTemplete@ioBuffMaker@@IAEPAVioBuff@@HH@Z$151
	DD	0ffffffffH
	DD	FLAT:__unwindfunclet$?CreateNormalBuffTemplete@ioBuffMaker@@IAEPAVioBuff@@HH@Z$152
	DD	0ffffffffH
	DD	FLAT:__unwindfunclet$?CreateNormalBuffTemplete@ioBuffMaker@@IAEPAVioBuff@@HH@Z$153
	DD	0ffffffffH
	DD	FLAT:__unwindfunclet$?CreateNormalBuffTemplete@ioBuffMaker@@IAEPAVioBuff@@HH@Z$154
	DD	0ffffffffH
	DD	FLAT:__unwindfunclet$?CreateNormalBuffTemplete@ioBuffMaker@@IAEPAVioBuff@@HH@Z$155
	DD	0ffffffffH
	DD	FLAT:__unwindfunclet$?CreateNormalBuffTemplete@ioBuffMaker@@IAEPAVioBuff@@HH@Z$156
	DD	0ffffffffH
	DD	FLAT:__unwindfunclet$?CreateNormalBuffTemplete@ioBuffMaker@@IAEPAVioBuff@@HH@Z$157
	DD	0ffffffffH
	DD	FLAT:__unwindfunclet$?CreateNormalBuffTemplete@ioBuffMaker@@IAEPAVioBuff@@HH@Z$158
	DD	0ffffffffH
	DD	FLAT:__unwindfunclet$?CreateNormalBuffTemplete@ioBuffMaker@@IAEPAVioBuff@@HH@Z$159
	DD	0ffffffffH
	DD	FLAT:__unwindfunclet$?CreateNormalBuffTemplete@ioBuffMaker@@IAEPAVioBuff@@HH@Z$160
	DD	0ffffffffH
	DD	FLAT:__unwindfunclet$?CreateNormalBuffTemplete@ioBuffMaker@@IAEPAVioBuff@@HH@Z$161
	DD	0ffffffffH
	DD	FLAT:__unwindfunclet$?CreateNormalBuffTemplete@ioBuffMaker@@IAEPAVioBuff@@HH@Z$162
	DD	0ffffffffH
	DD	FLAT:__unwindfunclet$?CreateNormalBuffTemplete@ioBuffMaker@@IAEPAVioBuff@@HH@Z$163
	DD	0ffffffffH
	DD	FLAT:__unwindfunclet$?CreateNormalBuffTemplete@ioBuffMaker@@IAEPAVioBuff@@HH@Z$164
	DD	0ffffffffH
	DD	FLAT:__unwindfunclet$?CreateNormalBuffTemplete@ioBuffMaker@@IAEPAVioBuff@@HH@Z$165
	DD	0ffffffffH
	DD	FLAT:__unwindfunclet$?CreateNormalBuffTemplete@ioBuffMaker@@IAEPAVioBuff@@HH@Z$166
	DD	0ffffffffH
	DD	FLAT:__unwindfunclet$?CreateNormalBuffTemplete@ioBuffMaker@@IAEPAVioBuff@@HH@Z$167
	DD	0ffffffffH
	DD	FLAT:__unwindfunclet$?CreateNormalBuffTemplete@ioBuffMaker@@IAEPAVioBuff@@HH@Z$168
	DD	0ffffffffH
	DD	FLAT:__unwindfunclet$?CreateNormalBuffTemplete@ioBuffMaker@@IAEPAVioBuff@@HH@Z$169
	DD	0ffffffffH
	DD	FLAT:__unwindfunclet$?CreateNormalBuffTemplete@ioBuffMaker@@IAEPAVioBuff@@HH@Z$170
	DD	0ffffffffH
	DD	FLAT:__unwindfunclet$?CreateNormalBuffTemplete@ioBuffMaker@@IAEPAVioBuff@@HH@Z$171
	DD	0ffffffffH
	DD	FLAT:__unwindfunclet$?CreateNormalBuffTemplete@ioBuffMaker@@IAEPAVioBuff@@HH@Z$172
	DD	0ffffffffH
	DD	FLAT:__unwindfunclet$?CreateNormalBuffTemplete@ioBuffMaker@@IAEPAVioBuff@@HH@Z$173
	DD	0ffffffffH
	DD	FLAT:__unwindfunclet$?CreateNormalBuffTemplete@ioBuffMaker@@IAEPAVioBuff@@HH@Z$174
	DD	0ffffffffH
	DD	FLAT:__unwindfunclet$?CreateNormalBuffTemplete@ioBuffMaker@@IAEPAVioBuff@@HH@Z$175
	DD	0ffffffffH
	DD	FLAT:__unwindfunclet$?CreateNormalBuffTemplete@ioBuffMaker@@IAEPAVioBuff@@HH@Z$176
	DD	0ffffffffH
	DD	FLAT:__unwindfunclet$?CreateNormalBuffTemplete@ioBuffMaker@@IAEPAVioBuff@@HH@Z$177
	DD	0ffffffffH
	DD	FLAT:__unwindfunclet$?CreateNormalBuffTemplete@ioBuffMaker@@IAEPAVioBuff@@HH@Z$178
	DD	0ffffffffH
	DD	FLAT:__unwindfunclet$?CreateNormalBuffTemplete@ioBuffMaker@@IAEPAVioBuff@@HH@Z$179
	DD	0ffffffffH
	DD	FLAT:__unwindfunclet$?CreateNormalBuffTemplete@ioBuffMaker@@IAEPAVioBuff@@HH@Z$180
	DD	0ffffffffH
	DD	FLAT:__unwindfunclet$?CreateNormalBuffTemplete@ioBuffMaker@@IAEPAVioBuff@@HH@Z$181
	DD	0ffffffffH
	DD	FLAT:__unwindfunclet$?CreateNormalBuffTemplete@ioBuffMaker@@IAEPAVioBuff@@HH@Z$182
	DD	0ffffffffH
	DD	FLAT:__unwindfunclet$?CreateNormalBuffTemplete@ioBuffMaker@@IAEPAVioBuff@@HH@Z$183
	DD	0ffffffffH
	DD	FLAT:__unwindfunclet$?CreateNormalBuffTemplete@ioBuffMaker@@IAEPAVioBuff@@HH@Z$184
	DD	0ffffffffH
	DD	FLAT:__unwindfunclet$?CreateNormalBuffTemplete@ioBuffMaker@@IAEPAVioBuff@@HH@Z$185
	DD	0ffffffffH
	DD	FLAT:__unwindfunclet$?CreateNormalBuffTemplete@ioBuffMaker@@IAEPAVioBuff@@HH@Z$186
	DD	0ffffffffH
	DD	FLAT:__unwindfunclet$?CreateNormalBuffTemplete@ioBuffMaker@@IAEPAVioBuff@@HH@Z$187
	DD	0ffffffffH
	DD	FLAT:__unwindfunclet$?CreateNormalBuffTemplete@ioBuffMaker@@IAEPAVioBuff@@HH@Z$188
	DD	0ffffffffH
	DD	FLAT:__unwindfunclet$?CreateNormalBuffTemplete@ioBuffMaker@@IAEPAVioBuff@@HH@Z$189
	DD	0ffffffffH
	DD	FLAT:__unwindfunclet$?CreateNormalBuffTemplete@ioBuffMaker@@IAEPAVioBuff@@HH@Z$190
	DD	0ffffffffH
	DD	FLAT:__unwindfunclet$?CreateNormalBuffTemplete@ioBuffMaker@@IAEPAVioBuff@@HH@Z$191
	DD	0ffffffffH
	DD	FLAT:__unwindfunclet$?CreateNormalBuffTemplete@ioBuffMaker@@IAEPAVioBuff@@HH@Z$192
	DD	0ffffffffH
	DD	FLAT:__unwindfunclet$?CreateNormalBuffTemplete@ioBuffMaker@@IAEPAVioBuff@@HH@Z$193
	DD	0ffffffffH
	DD	FLAT:__unwindfunclet$?CreateNormalBuffTemplete@ioBuffMaker@@IAEPAVioBuff@@HH@Z$194
	DD	0ffffffffH
	DD	FLAT:__unwindfunclet$?CreateNormalBuffTemplete@ioBuffMaker@@IAEPAVioBuff@@HH@Z$195
	DD	0ffffffffH
	DD	FLAT:__unwindfunclet$?CreateNormalBuffTemplete@ioBuffMaker@@IAEPAVioBuff@@HH@Z$196
	DD	0ffffffffH
	DD	FLAT:__unwindfunclet$?CreateNormalBuffTemplete@ioBuffMaker@@IAEPAVioBuff@@HH@Z$197
	DD	0ffffffffH
	DD	FLAT:__unwindfunclet$?CreateNormalBuffTemplete@ioBuffMaker@@IAEPAVioBuff@@HH@Z$198
	DD	0ffffffffH
	DD	FLAT:__unwindfunclet$?CreateNormalBuffTemplete@ioBuffMaker@@IAEPAVioBuff@@HH@Z$199
	DD	0ffffffffH
	DD	FLAT:__unwindfunclet$?CreateNormalBuffTemplete@ioBuffMaker@@IAEPAVioBuff@@HH@Z$200
	DD	0ffffffffH
	DD	FLAT:__unwindfunclet$?CreateNormalBuffTemplete@ioBuffMaker@@IAEPAVioBuff@@HH@Z$201
	DD	0ffffffffH
	DD	FLAT:__unwindfunclet$?CreateNormalBuffTemplete@ioBuffMaker@@IAEPAVioBuff@@HH@Z$202
	DD	0ffffffffH
	DD	FLAT:__unwindfunclet$?CreateNormalBuffTemplete@ioBuffMaker@@IAEPAVioBuff@@HH@Z$203
	DD	0ffffffffH
	DD	FLAT:__unwindfunclet$?CreateNormalBuffTemplete@ioBuffMaker@@IAEPAVioBuff@@HH@Z$204
	DD	0ffffffffH
	DD	FLAT:__unwindfunclet$?CreateNormalBuffTemplete@ioBuffMaker@@IAEPAVioBuff@@HH@Z$205
	DD	0ffffffffH
	DD	FLAT:__unwindfunclet$?CreateNormalBuffTemplete@ioBuffMaker@@IAEPAVioBuff@@HH@Z$206
	DD	0ffffffffH
	DD	FLAT:__unwindfunclet$?CreateNormalBuffTemplete@ioBuffMaker@@IAEPAVioBuff@@HH@Z$207
	DD	0ffffffffH
	DD	FLAT:__unwindfunclet$?CreateNormalBuffTemplete@ioBuffMaker@@IAEPAVioBuff@@HH@Z$208
	DD	0ffffffffH
	DD	FLAT:__unwindfunclet$?CreateNormalBuffTemplete@ioBuffMaker@@IAEPAVioBuff@@HH@Z$209
	DD	0ffffffffH
	DD	FLAT:__unwindfunclet$?CreateNormalBuffTemplete@ioBuffMaker@@IAEPAVioBuff@@HH@Z$210
	DD	0ffffffffH
	DD	FLAT:__unwindfunclet$?CreateNormalBuffTemplete@ioBuffMaker@@IAEPAVioBuff@@HH@Z$211
	DD	0ffffffffH
	DD	FLAT:__unwindfunclet$?CreateNormalBuffTemplete@ioBuffMaker@@IAEPAVioBuff@@HH@Z$212
	DD	0ffffffffH
	DD	FLAT:__unwindfunclet$?CreateNormalBuffTemplete@ioBuffMaker@@IAEPAVioBuff@@HH@Z$213
	DD	0ffffffffH
	DD	FLAT:__unwindfunclet$?CreateNormalBuffTemplete@ioBuffMaker@@IAEPAVioBuff@@HH@Z$214
	DD	0ffffffffH
	DD	FLAT:__unwindfunclet$?CreateNormalBuffTemplete@ioBuffMaker@@IAEPAVioBuff@@HH@Z$215
	DD	0ffffffffH
	DD	FLAT:__unwindfunclet$?CreateNormalBuffTemplete@ioBuffMaker@@IAEPAVioBuff@@HH@Z$216
; Function compile flags: /Ogsp
xdata$x	ENDS
;	COMDAT ?CreateNormalBuffTemplete@ioBuffMaker@@IAEPAVioBuff@@HH@Z
_TEXT	SEGMENT
__$EHRec$ = -12						; size = 12
$T530155 = 8						; size = 4
$T530151 = 8						; size = 4
$T530147 = 8						; size = 4
$T530143 = 8						; size = 4
$T530139 = 8						; size = 4
$T530135 = 8						; size = 4
$T530131 = 8						; size = 4
$T530127 = 8						; size = 4
$T530123 = 8						; size = 4
$T530119 = 8						; size = 4
$T530115 = 8						; size = 4
$T530111 = 8						; size = 4
$T530107 = 8						; size = 4
$T530103 = 8						; size = 4
$T530099 = 8						; size = 4
$T530095 = 8						; size = 4
$T530091 = 8						; size = 4
$T530087 = 8						; size = 4
$T530083 = 8						; size = 4
$T530079 = 8						; size = 4
$T530075 = 8						; size = 4
$T530071 = 8						; size = 4
$T530067 = 8						; size = 4
$T530063 = 8						; size = 4
$T530059 = 8						; size = 4
$T530055 = 8						; size = 4
$T530051 = 8						; size = 4
$T530047 = 8						; size = 4
$T530043 = 8						; size = 4
$T530039 = 8						; size = 4
$T530035 = 8						; size = 4
$T530031 = 8						; size = 4
$T530027 = 8						; size = 4
$T530023 = 8						; size = 4
$T530019 = 8						; size = 4
$T530015 = 8						; size = 4
$T530011 = 8						; size = 4
$T530007 = 8						; size = 4
$T530003 = 8						; size = 4
$T529999 = 8						; size = 4
$T529995 = 8						; size = 4
$T529991 = 8						; size = 4
$T529987 = 8						; size = 4
$T529983 = 8						; size = 4
$T529979 = 8						; size = 4
$T529975 = 8						; size = 4
$T529971 = 8						; size = 4
$T529967 = 8						; size = 4
$T529963 = 8						; size = 4
$T529959 = 8						; size = 4
$T529955 = 8						; size = 4
$T529951 = 8						; size = 4
$T529947 = 8						; size = 4
$T529943 = 8						; size = 4
$T529939 = 8						; size = 4
$T529935 = 8						; size = 4
$T529931 = 8						; size = 4
$T529927 = 8						; size = 4
$T529923 = 8						; size = 4
$T529919 = 8						; size = 4
$T529915 = 8						; size = 4
$T529911 = 8						; size = 4
$T529907 = 8						; size = 4
$T529903 = 8						; size = 4
$T529899 = 8						; size = 4
$T529895 = 8						; size = 4
$T529891 = 8						; size = 4
$T529887 = 8						; size = 4
$T529883 = 8						; size = 4
$T529879 = 8						; size = 4
$T529875 = 8						; size = 4
$T529871 = 8						; size = 4
$T529867 = 8						; size = 4
$T529863 = 8						; size = 4
$T529859 = 8						; size = 4
$T529855 = 8						; size = 4
$T529851 = 8						; size = 4
$T529847 = 8						; size = 4
$T529843 = 8						; size = 4
$T529839 = 8						; size = 4
$T529835 = 8						; size = 4
$T529831 = 8						; size = 4
$T529827 = 8						; size = 4
$T529823 = 8						; size = 4
$T529819 = 8						; size = 4
$T529815 = 8						; size = 4
$T529811 = 8						; size = 4
$T529807 = 8						; size = 4
$T529803 = 8						; size = 4
$T529799 = 8						; size = 4
$T529795 = 8						; size = 4
$T529791 = 8						; size = 4
$T529787 = 8						; size = 4
$T529783 = 8						; size = 4
$T529779 = 8						; size = 4
$T529775 = 8						; size = 4
$T529771 = 8						; size = 4
$T529767 = 8						; size = 4
$T529763 = 8						; size = 4
$T529759 = 8						; size = 4
$T529755 = 8						; size = 4
$T529751 = 8						; size = 4
$T529747 = 8						; size = 4
$T529743 = 8						; size = 4
$T529739 = 8						; size = 4
$T529735 = 8						; size = 4
$T529731 = 8						; size = 4
$T529727 = 8						; size = 4
$T529723 = 8						; size = 4
$T529719 = 8						; size = 4
$T529715 = 8						; size = 4
$T529711 = 8						; size = 4
$T529707 = 8						; size = 4
$T529703 = 8						; size = 4
$T529699 = 8						; size = 4
$T529695 = 8						; size = 4
$T529691 = 8						; size = 4
$T529687 = 8						; size = 4
$T529683 = 8						; size = 4
$T529679 = 8						; size = 4
$T529675 = 8						; size = 4
$T529671 = 8						; size = 4
$T529667 = 8						; size = 4
$T529663 = 8						; size = 4
$T529659 = 8						; size = 4
$T529655 = 8						; size = 4
$T529651 = 8						; size = 4
$T529647 = 8						; size = 4
$T529643 = 8						; size = 4
$T529639 = 8						; size = 4
$T529635 = 8						; size = 4
$T529631 = 8						; size = 4
$T529627 = 8						; size = 4
$T529623 = 8						; size = 4
$T529619 = 8						; size = 4
$T529615 = 8						; size = 4
$T529611 = 8						; size = 4
$T529607 = 8						; size = 4
$T529603 = 8						; size = 4
$T529599 = 8						; size = 4
$T529595 = 8						; size = 4
$T529591 = 8						; size = 4
$T529587 = 8						; size = 4
$T529583 = 8						; size = 4
$T529579 = 8						; size = 4
$T529575 = 8						; size = 4
$T529571 = 8						; size = 4
$T529567 = 8						; size = 4
$T529563 = 8						; size = 4
$T529559 = 8						; size = 4
$T529555 = 8						; size = 4
$T529551 = 8						; size = 4
$T529547 = 8						; size = 4
$T529543 = 8						; size = 4
$T529539 = 8						; size = 4
$T529535 = 8						; size = 4
$T529531 = 8						; size = 4
$T529527 = 8						; size = 4
$T529523 = 8						; size = 4
$T529519 = 8						; size = 4
$T529515 = 8						; size = 4
$T529511 = 8						; size = 4
$T529507 = 8						; size = 4
$T529503 = 8						; size = 4
$T529499 = 8						; size = 4
$T529495 = 8						; size = 4
$T529491 = 8						; size = 4
$T529487 = 8						; size = 4
$T529483 = 8						; size = 4
$T529479 = 8						; size = 4
$T529475 = 8						; size = 4
$T529471 = 8						; size = 4
$T529467 = 8						; size = 4
$T529463 = 8						; size = 4
$T529459 = 8						; size = 4
$T529455 = 8						; size = 4
$T529451 = 8						; size = 4
$T529447 = 8						; size = 4
$T529443 = 8						; size = 4
$T529439 = 8						; size = 4
$T529435 = 8						; size = 4
$T529431 = 8						; size = 4
$T529427 = 8						; size = 4
$T529423 = 8						; size = 4
$T529419 = 8						; size = 4
$T529415 = 8						; size = 4
$T529411 = 8						; size = 4
$T529407 = 8						; size = 4
$T529403 = 8						; size = 4
$T529399 = 8						; size = 4
$T529395 = 8						; size = 4
$T529391 = 8						; size = 4
$T529387 = 8						; size = 4
$T529383 = 8						; size = 4
$T529379 = 8						; size = 4
$T529375 = 8						; size = 4
$T529371 = 8						; size = 4
$T529367 = 8						; size = 4
$T529363 = 8						; size = 4
$T529359 = 8						; size = 4
$T529355 = 8						; size = 4
$T529351 = 8						; size = 4
$T529347 = 8						; size = 4
$T529343 = 8						; size = 4
$T529339 = 8						; size = 4
$T529335 = 8						; size = 4
$T529331 = 8						; size = 4
$T529327 = 8						; size = 4
$T529323 = 8						; size = 4
$T529319 = 8						; size = 4
$T529315 = 8						; size = 4
$T529311 = 8						; size = 4
$T529307 = 8						; size = 4
$T529303 = 8						; size = 4
$T529299 = 8						; size = 4
$T529295 = 8						; size = 4
$T529291 = 8						; size = 4
_iTypeID$ = 8						; size = 4
_iBuffCategory$ = 12					; size = 4
?CreateNormalBuffTemplete@ioBuffMaker@@IAEPAVioBuff@@HH@Z PROC ; ioBuffMaker::CreateNormalBuffTemplete, COMDAT
; _this$ = ecx

; 147  : {

  00000	6a 00		 push	 0
  00002	b8 00 00 00 00	 mov	 eax, __ehhandler$?CreateNormalBuffTemplete@ioBuffMaker@@IAEPAVioBuff@@HH@Z
  00007	e8 00 00 00 00	 call	 __EH_prolog3

; 148  : 	ioBuff *pBuff = NULL;
; 149  : 
; 150  : 	switch( iTypeID )

  0000c	8b 7d 08	 mov	 edi, DWORD PTR _iTypeID$[ebp]
  0000f	8d 47 ff	 lea	 eax, DWORD PTR [edi-1]
  00012	3d e6 00 00 00	 cmp	 eax, 230		; 000000e6H
  00017	0f 87 cb 22 00
	00		 ja	 $LN1@CreateNorm
  0001d	ff 24 85 00 00
	00 00		 jmp	 DWORD PTR $LN875@CreateNorm[eax*4]
$LN218@CreateNorm:

; 151  : 	{
; 152  : 	case BT_DAMAGE_UPDOWN:
; 153  : 		pBuff = new ioDamageUpDownBuff;

  00024	68 88 09 00 00	 push	 2440			; 00000988H
  00029	e8 00 00 00 00	 call	 ??2@YAPAXI@Z		; operator new
  0002e	59		 pop	 ecx
  0002f	8b c8		 mov	 ecx, eax
  00031	89 4d 08	 mov	 DWORD PTR $T529291[ebp], ecx
  00034	83 65 fc 00	 and	 DWORD PTR __$EHRec$[ebp+8], 0
  00038	85 c9		 test	 ecx, ecx
  0003a	0f 84 86 22 00
	00		 je	 $LN655@CreateNorm
  00040	e8 00 00 00 00	 call	 ??0ioDamageUpDownBuff@@QAE@XZ ; ioDamageUpDownBuff::ioDamageUpDownBuff
  00045	e9 7e 22 00 00	 jmp	 $LN656@CreateNorm
$LN217@CreateNorm:

; 154  : 		break;
; 155  : 	case BT_SPEED_UPDOWN:
; 156  : 		pBuff = new ioSpeedUpDownBuff;

  0004a	68 80 09 00 00	 push	 2432			; 00000980H
  0004f	e8 00 00 00 00	 call	 ??2@YAPAXI@Z		; operator new
  00054	59		 pop	 ecx
  00055	8b c8		 mov	 ecx, eax
  00057	89 4d 08	 mov	 DWORD PTR $T529295[ebp], ecx
  0005a	c7 45 fc 01 00
	00 00		 mov	 DWORD PTR __$EHRec$[ebp+8], 1
  00061	85 c9		 test	 ecx, ecx
  00063	0f 84 5d 22 00
	00		 je	 $LN655@CreateNorm
  00069	e8 00 00 00 00	 call	 ??0ioSpeedUpDownBuff@@QAE@XZ ; ioSpeedUpDownBuff::ioSpeedUpDownBuff
  0006e	e9 55 22 00 00	 jmp	 $LN656@CreateNorm
$LN216@CreateNorm:

; 157  : 		break;
; 158  : 	case BT_WOUNDED_UPDOWN:
; 159  : 		pBuff = new ioWoundedUpDownBuff;

  00073	68 90 09 00 00	 push	 2448			; 00000990H
  00078	e8 00 00 00 00	 call	 ??2@YAPAXI@Z		; operator new
  0007d	59		 pop	 ecx
  0007e	8b c8		 mov	 ecx, eax
  00080	89 4d 08	 mov	 DWORD PTR $T529299[ebp], ecx
  00083	c7 45 fc 02 00
	00 00		 mov	 DWORD PTR __$EHRec$[ebp+8], 2
  0008a	85 c9		 test	 ecx, ecx
  0008c	0f 84 34 22 00
	00		 je	 $LN655@CreateNorm
  00092	e8 00 00 00 00	 call	 ??0ioWoundedUpDownBuff@@QAE@XZ ; ioWoundedUpDownBuff::ioWoundedUpDownBuff
  00097	e9 2c 22 00 00	 jmp	 $LN656@CreateNorm
$LN215@CreateNorm:

; 160  : 		break;
; 161  : 	case BT_RECOVERY:
; 162  : 		pBuff = new ioRecoveryBuff;

  0009c	68 70 0a 00 00	 push	 2672			; 00000a70H
  000a1	e8 00 00 00 00	 call	 ??2@YAPAXI@Z		; operator new
  000a6	59		 pop	 ecx
  000a7	8b c8		 mov	 ecx, eax
  000a9	89 4d 08	 mov	 DWORD PTR $T529303[ebp], ecx
  000ac	c7 45 fc 03 00
	00 00		 mov	 DWORD PTR __$EHRec$[ebp+8], 3
  000b3	85 c9		 test	 ecx, ecx
  000b5	0f 84 0b 22 00
	00		 je	 $LN655@CreateNorm
  000bb	e8 00 00 00 00	 call	 ??0ioRecoveryBuff@@QAE@XZ ; ioRecoveryBuff::ioRecoveryBuff
  000c0	e9 03 22 00 00	 jmp	 $LN656@CreateNorm
$LN214@CreateNorm:

; 163  : 		break;
; 164  : 	case BT_RESTORATION:
; 165  : 		pBuff = new ioRestorationBuff;

  000c5	68 8c 0a 00 00	 push	 2700			; 00000a8cH
  000ca	e8 00 00 00 00	 call	 ??2@YAPAXI@Z		; operator new
  000cf	59		 pop	 ecx
  000d0	8b c8		 mov	 ecx, eax
  000d2	89 4d 08	 mov	 DWORD PTR $T529307[ebp], ecx
  000d5	c7 45 fc 04 00
	00 00		 mov	 DWORD PTR __$EHRec$[ebp+8], 4
  000dc	85 c9		 test	 ecx, ecx
  000de	0f 84 e2 21 00
	00		 je	 $LN655@CreateNorm
  000e4	e8 00 00 00 00	 call	 ??0ioRestorationBuff@@QAE@XZ ; ioRestorationBuff::ioRestorationBuff
  000e9	e9 da 21 00 00	 jmp	 $LN656@CreateNorm
$LN213@CreateNorm:

; 166  : 		break;
; 167  : 	case BT_FLYING_CONTRAL:
; 168  : 		pBuff = new ioFlyBuff;

  000ee	68 b4 0a 00 00	 push	 2740			; 00000ab4H
  000f3	e8 00 00 00 00	 call	 ??2@YAPAXI@Z		; operator new
  000f8	59		 pop	 ecx
  000f9	8b c8		 mov	 ecx, eax
  000fb	89 4d 08	 mov	 DWORD PTR $T529311[ebp], ecx
  000fe	c7 45 fc 05 00
	00 00		 mov	 DWORD PTR __$EHRec$[ebp+8], 5
  00105	85 c9		 test	 ecx, ecx
  00107	0f 84 b9 21 00
	00		 je	 $LN655@CreateNorm
  0010d	e8 00 00 00 00	 call	 ??0ioFlyBuff@@QAE@XZ	; ioFlyBuff::ioFlyBuff
  00112	e9 b1 21 00 00	 jmp	 $LN656@CreateNorm
$LN212@CreateNorm:

; 169  : 		break;
; 170  : 	case BT_FLAME_STATUE:
; 171  : 		pBuff = new ioBurnBuff;

  00117	68 a0 09 00 00	 push	 2464			; 000009a0H
  0011c	e8 00 00 00 00	 call	 ??2@YAPAXI@Z		; operator new
  00121	59		 pop	 ecx
  00122	8b c8		 mov	 ecx, eax
  00124	89 4d 08	 mov	 DWORD PTR $T529315[ebp], ecx
  00127	c7 45 fc 06 00
	00 00		 mov	 DWORD PTR __$EHRec$[ebp+8], 6
  0012e	85 c9		 test	 ecx, ecx
  00130	0f 84 90 21 00
	00		 je	 $LN655@CreateNorm
  00136	e8 00 00 00 00	 call	 ??0ioBurnBuff@@QAE@XZ	; ioBurnBuff::ioBurnBuff
  0013b	e9 88 21 00 00	 jmp	 $LN656@CreateNorm
$LN211@CreateNorm:

; 172  : 		break;
; 173  : 	case BT_FROZEN_STATUE:
; 174  : 		pBuff = new ioFrozenBuff;

  00140	68 b4 09 00 00	 push	 2484			; 000009b4H
  00145	e8 00 00 00 00	 call	 ??2@YAPAXI@Z		; operator new
  0014a	59		 pop	 ecx
  0014b	8b c8		 mov	 ecx, eax
  0014d	89 4d 08	 mov	 DWORD PTR $T529319[ebp], ecx
  00150	c7 45 fc 07 00
	00 00		 mov	 DWORD PTR __$EHRec$[ebp+8], 7
  00157	85 c9		 test	 ecx, ecx
  00159	0f 84 67 21 00
	00		 je	 $LN655@CreateNorm
  0015f	e8 00 00 00 00	 call	 ??0ioFrozenBuff@@QAE@XZ	; ioFrozenBuff::ioFrozenBuff
  00164	e9 5f 21 00 00	 jmp	 $LN656@CreateNorm
$LN210@CreateNorm:

; 175  : 		break;
; 176  : 	case BT_STUN_STATUE:
; 177  : 		pBuff = new ioStunBuff;

  00169	68 d4 09 00 00	 push	 2516			; 000009d4H
  0016e	e8 00 00 00 00	 call	 ??2@YAPAXI@Z		; operator new
  00173	59		 pop	 ecx
  00174	8b c8		 mov	 ecx, eax
  00176	89 4d 08	 mov	 DWORD PTR $T529323[ebp], ecx
  00179	c7 45 fc 08 00
	00 00		 mov	 DWORD PTR __$EHRec$[ebp+8], 8
  00180	85 c9		 test	 ecx, ecx
  00182	0f 84 3e 21 00
	00		 je	 $LN655@CreateNorm
  00188	e8 00 00 00 00	 call	 ??0ioStunBuff@@QAE@XZ	; ioStunBuff::ioStunBuff
  0018d	e9 36 21 00 00	 jmp	 $LN656@CreateNorm
$LN209@CreateNorm:

; 178  : 		break;
; 179  : 	case BT_TOXIC_STATUE:
; 180  : 		pBuff = new ioPoisoningBuff;

  00192	68 bc 0a 00 00	 push	 2748			; 00000abcH
  00197	e8 00 00 00 00	 call	 ??2@YAPAXI@Z		; operator new
  0019c	59		 pop	 ecx
  0019d	8b c8		 mov	 ecx, eax
  0019f	89 4d 08	 mov	 DWORD PTR $T529327[ebp], ecx
  001a2	c7 45 fc 09 00
	00 00		 mov	 DWORD PTR __$EHRec$[ebp+8], 9
  001a9	85 c9		 test	 ecx, ecx
  001ab	0f 84 15 21 00
	00		 je	 $LN655@CreateNorm
  001b1	e8 00 00 00 00	 call	 ??0ioPoisoningBuff@@QAE@XZ ; ioPoisoningBuff::ioPoisoningBuff
  001b6	e9 0d 21 00 00	 jmp	 $LN656@CreateNorm
$LN208@CreateNorm:

; 181  : 		break;
; 182  : 	case BT_STAT_ENHANCE:
; 183  : 		pBuff = new ioStatEnhanceBuff;

  001bb	68 2c 0a 00 00	 push	 2604			; 00000a2cH
  001c0	e8 00 00 00 00	 call	 ??2@YAPAXI@Z		; operator new
  001c5	59		 pop	 ecx
  001c6	8b c8		 mov	 ecx, eax
  001c8	89 4d 08	 mov	 DWORD PTR $T529331[ebp], ecx
  001cb	c7 45 fc 0a 00
	00 00		 mov	 DWORD PTR __$EHRec$[ebp+8], 10 ; 0000000aH
  001d2	85 c9		 test	 ecx, ecx
  001d4	0f 84 ec 20 00
	00		 je	 $LN655@CreateNorm
  001da	e8 00 00 00 00	 call	 ??0ioStatEnhanceBuff@@QAE@XZ ; ioStatEnhanceBuff::ioStatEnhanceBuff
  001df	e9 e4 20 00 00	 jmp	 $LN656@CreateNorm
$LN207@CreateNorm:

; 184  : 		break;
; 185  : 	case BT_PROTECTION:
; 186  : 		pBuff = new ioProtectionBuff;

  001e4	68 94 09 00 00	 push	 2452			; 00000994H
  001e9	e8 00 00 00 00	 call	 ??2@YAPAXI@Z		; operator new
  001ee	59		 pop	 ecx
  001ef	8b c8		 mov	 ecx, eax
  001f1	89 4d 08	 mov	 DWORD PTR $T529335[ebp], ecx
  001f4	c7 45 fc 0b 00
	00 00		 mov	 DWORD PTR __$EHRec$[ebp+8], 11 ; 0000000bH
  001fb	85 c9		 test	 ecx, ecx
  001fd	0f 84 c3 20 00
	00		 je	 $LN655@CreateNorm
  00203	e8 00 00 00 00	 call	 ??0ioProtectionBuff@@QAE@XZ ; ioProtectionBuff::ioProtectionBuff
  00208	e9 bb 20 00 00	 jmp	 $LN656@CreateNorm
$LN206@CreateNorm:

; 187  : 		break;
; 188  : 	case BT_PUSH_BACK:
; 189  : 		pBuff = new ioPushBackBuff;

  0020d	68 84 09 00 00	 push	 2436			; 00000984H
  00212	e8 00 00 00 00	 call	 ??2@YAPAXI@Z		; operator new
  00217	59		 pop	 ecx
  00218	8b c8		 mov	 ecx, eax
  0021a	89 4d 08	 mov	 DWORD PTR $T529339[ebp], ecx
  0021d	c7 45 fc 0c 00
	00 00		 mov	 DWORD PTR __$EHRec$[ebp+8], 12 ; 0000000cH
  00224	85 c9		 test	 ecx, ecx
  00226	0f 84 9a 20 00
	00		 je	 $LN655@CreateNorm
  0022c	e8 00 00 00 00	 call	 ??0ioPushBackBuff@@QAE@XZ ; ioPushBackBuff::ioPushBackBuff
  00231	e9 92 20 00 00	 jmp	 $LN656@CreateNorm
$LN205@CreateNorm:

; 190  : 		break;
; 191  : 	case BT_DURATION_SCALE:
; 192  : 		pBuff = new ioDurationScaleBuff;

  00236	68 78 09 00 00	 push	 2424			; 00000978H
  0023b	e8 00 00 00 00	 call	 ??2@YAPAXI@Z		; operator new
  00240	59		 pop	 ecx
  00241	8b c8		 mov	 ecx, eax
  00243	89 4d 08	 mov	 DWORD PTR $T529343[ebp], ecx
  00246	c7 45 fc 0d 00
	00 00		 mov	 DWORD PTR __$EHRec$[ebp+8], 13 ; 0000000dH
  0024d	85 c9		 test	 ecx, ecx
  0024f	0f 84 71 20 00
	00		 je	 $LN655@CreateNorm
  00255	e8 00 00 00 00	 call	 ??0ioDurationScaleBuff@@QAE@XZ ; ioDurationScaleBuff::ioDurationScaleBuff
  0025a	e9 69 20 00 00	 jmp	 $LN656@CreateNorm
$LN204@CreateNorm:

; 193  : 		break;
; 194  : 	case BT_POTION:
; 195  : 		pBuff = new ioPotionBuff;

  0025f	68 ec 0a 00 00	 push	 2796			; 00000aecH
  00264	e8 00 00 00 00	 call	 ??2@YAPAXI@Z		; operator new
  00269	59		 pop	 ecx
  0026a	8b c8		 mov	 ecx, eax
  0026c	89 4d 08	 mov	 DWORD PTR $T529347[ebp], ecx
  0026f	c7 45 fc 0e 00
	00 00		 mov	 DWORD PTR __$EHRec$[ebp+8], 14 ; 0000000eH
  00276	85 c9		 test	 ecx, ecx
  00278	0f 84 48 20 00
	00		 je	 $LN655@CreateNorm
  0027e	e8 00 00 00 00	 call	 ??0ioPotionBuff@@QAE@XZ	; ioPotionBuff::ioPotionBuff
  00283	e9 40 20 00 00	 jmp	 $LN656@CreateNorm
$LN203@CreateNorm:

; 196  : 		break;
; 197  : 	case BT_REFLECT:
; 198  : 		pBuff = new ioReflectBuff;

  00288	68 f0 09 00 00	 push	 2544			; 000009f0H
  0028d	e8 00 00 00 00	 call	 ??2@YAPAXI@Z		; operator new
  00292	59		 pop	 ecx
  00293	8b c8		 mov	 ecx, eax
  00295	89 4d 08	 mov	 DWORD PTR $T529351[ebp], ecx
  00298	c7 45 fc 0f 00
	00 00		 mov	 DWORD PTR __$EHRec$[ebp+8], 15 ; 0000000fH
  0029f	85 c9		 test	 ecx, ecx
  002a1	0f 84 1f 20 00
	00		 je	 $LN655@CreateNorm
  002a7	e8 00 00 00 00	 call	 ??0ioReflectBuff@@QAE@XZ ; ioReflectBuff::ioReflectBuff
  002ac	e9 17 20 00 00	 jmp	 $LN656@CreateNorm
$LN202@CreateNorm:

; 199  : 		break;
; 200  : 	case BT_KING_SCALE:
; 201  : 		pBuff = new ioKingScaleBuff;

  002b1	68 e8 09 00 00	 push	 2536			; 000009e8H
  002b6	e8 00 00 00 00	 call	 ??2@YAPAXI@Z		; operator new
  002bb	59		 pop	 ecx
  002bc	8b c8		 mov	 ecx, eax
  002be	89 4d 08	 mov	 DWORD PTR $T529355[ebp], ecx
  002c1	c7 45 fc 10 00
	00 00		 mov	 DWORD PTR __$EHRec$[ebp+8], 16 ; 00000010H
  002c8	85 c9		 test	 ecx, ecx
  002ca	0f 84 f6 1f 00
	00		 je	 $LN655@CreateNorm
  002d0	e8 00 00 00 00	 call	 ??0ioKingScaleBuff@@QAE@XZ ; ioKingScaleBuff::ioKingScaleBuff
  002d5	e9 ee 1f 00 00	 jmp	 $LN656@CreateNorm
$LN201@CreateNorm:

; 202  : 		break;
; 203  : 	case BT_RECOVERY_GAUGE:
; 204  : 		pBuff = new ioRecoveryGaugeBuff;

  002da	68 74 09 00 00	 push	 2420			; 00000974H
  002df	e8 00 00 00 00	 call	 ??2@YAPAXI@Z		; operator new
  002e4	59		 pop	 ecx
  002e5	8b c8		 mov	 ecx, eax
  002e7	89 4d 08	 mov	 DWORD PTR $T529359[ebp], ecx
  002ea	c7 45 fc 11 00
	00 00		 mov	 DWORD PTR __$EHRec$[ebp+8], 17 ; 00000011H
  002f1	85 c9		 test	 ecx, ecx
  002f3	0f 84 cd 1f 00
	00		 je	 $LN655@CreateNorm
  002f9	e8 00 00 00 00	 call	 ??0ioRecoveryGaugeBuff@@QAE@XZ ; ioRecoveryGaugeBuff::ioRecoveryGaugeBuff
  002fe	e9 c5 1f 00 00	 jmp	 $LN656@CreateNorm
$LN200@CreateNorm:

; 205  : 		break;
; 206  : 	case BT_RESTORATION_GAUGE:
; 207  : 		pBuff = new ioRestorationGaugeBuff;

  00303	68 e4 0b 00 00	 push	 3044			; 00000be4H
  00308	e8 00 00 00 00	 call	 ??2@YAPAXI@Z		; operator new
  0030d	59		 pop	 ecx
  0030e	8b c8		 mov	 ecx, eax
  00310	89 4d 08	 mov	 DWORD PTR $T529363[ebp], ecx
  00313	c7 45 fc 12 00
	00 00		 mov	 DWORD PTR __$EHRec$[ebp+8], 18 ; 00000012H
  0031a	85 c9		 test	 ecx, ecx
  0031c	0f 84 a4 1f 00
	00		 je	 $LN655@CreateNorm
  00322	e8 00 00 00 00	 call	 ??0ioRestorationGaugeBuff@@QAE@XZ ; ioRestorationGaugeBuff::ioRestorationGaugeBuff
  00327	e9 9c 1f 00 00	 jmp	 $LN656@CreateNorm
$LN199@CreateNorm:

; 208  : 		break;
; 209  : 	case BT_CAMERA_BUFF:
; 210  : 		pBuff = new ioCameraBuff;

  0032c	68 80 09 00 00	 push	 2432			; 00000980H
  00331	e8 00 00 00 00	 call	 ??2@YAPAXI@Z		; operator new
  00336	59		 pop	 ecx
  00337	8b c8		 mov	 ecx, eax
  00339	89 4d 08	 mov	 DWORD PTR $T529367[ebp], ecx
  0033c	c7 45 fc 13 00
	00 00		 mov	 DWORD PTR __$EHRec$[ebp+8], 19 ; 00000013H
  00343	85 c9		 test	 ecx, ecx
  00345	0f 84 7b 1f 00
	00		 je	 $LN655@CreateNorm
  0034b	e8 00 00 00 00	 call	 ??0ioCameraBuff@@QAE@XZ	; ioCameraBuff::ioCameraBuff
  00350	e9 73 1f 00 00	 jmp	 $LN656@CreateNorm
$LN198@CreateNorm:

; 211  : 		break;
; 212  : 	case BT_CATCH_BUFF:
; 213  : 		pBuff = new ioCatchBuff;

  00355	68 b0 09 00 00	 push	 2480			; 000009b0H
  0035a	e8 00 00 00 00	 call	 ??2@YAPAXI@Z		; operator new
  0035f	59		 pop	 ecx
  00360	8b c8		 mov	 ecx, eax
  00362	89 4d 08	 mov	 DWORD PTR $T529371[ebp], ecx
  00365	c7 45 fc 14 00
	00 00		 mov	 DWORD PTR __$EHRec$[ebp+8], 20 ; 00000014H
  0036c	85 c9		 test	 ecx, ecx
  0036e	0f 84 52 1f 00
	00		 je	 $LN655@CreateNorm
  00374	e8 00 00 00 00	 call	 ??0ioCatchBuff@@QAE@XZ	; ioCatchBuff::ioCatchBuff
  00379	e9 4a 1f 00 00	 jmp	 $LN656@CreateNorm
$LN197@CreateNorm:

; 214  : 		break;
; 215  : 	case BT_STEALTH:
; 216  : 		pBuff = new ioStealthBuff;

  0037e	68 6c 09 00 00	 push	 2412			; 0000096cH
  00383	e8 00 00 00 00	 call	 ??2@YAPAXI@Z		; operator new
  00388	59		 pop	 ecx
  00389	8b c8		 mov	 ecx, eax
  0038b	89 4d 08	 mov	 DWORD PTR $T529375[ebp], ecx
  0038e	c7 45 fc 15 00
	00 00		 mov	 DWORD PTR __$EHRec$[ebp+8], 21 ; 00000015H
  00395	85 c9		 test	 ecx, ecx
  00397	0f 84 29 1f 00
	00		 je	 $LN655@CreateNorm
  0039d	e8 00 00 00 00	 call	 ??0ioStealthBuff@@QAE@XZ ; ioStealthBuff::ioStealthBuff
  003a2	e9 21 1f 00 00	 jmp	 $LN656@CreateNorm
$LN196@CreateNorm:

; 217  : 		break;
; 218  : 	case BT_HIDE:
; 219  : 		pBuff = new ioHideBuff;

  003a7	68 a8 09 00 00	 push	 2472			; 000009a8H
  003ac	e8 00 00 00 00	 call	 ??2@YAPAXI@Z		; operator new
  003b1	59		 pop	 ecx
  003b2	8b c8		 mov	 ecx, eax
  003b4	89 4d 08	 mov	 DWORD PTR $T529379[ebp], ecx
  003b7	c7 45 fc 16 00
	00 00		 mov	 DWORD PTR __$EHRec$[ebp+8], 22 ; 00000016H
  003be	85 c9		 test	 ecx, ecx
  003c0	0f 84 00 1f 00
	00		 je	 $LN655@CreateNorm
  003c6	e8 00 00 00 00	 call	 ??0ioHideBuff@@QAE@XZ	; ioHideBuff::ioHideBuff
  003cb	e9 f8 1e 00 00	 jmp	 $LN656@CreateNorm
$LN195@CreateNorm:

; 220  : 		break;
; 221  : 	case BT_WEAK_BOMB:
; 222  : 		pBuff = new ioWeakBombBuff;

  003d0	68 74 09 00 00	 push	 2420			; 00000974H
  003d5	e8 00 00 00 00	 call	 ??2@YAPAXI@Z		; operator new
  003da	59		 pop	 ecx
  003db	8b c8		 mov	 ecx, eax
  003dd	89 4d 08	 mov	 DWORD PTR $T529383[ebp], ecx
  003e0	c7 45 fc 17 00
	00 00		 mov	 DWORD PTR __$EHRec$[ebp+8], 23 ; 00000017H
  003e7	85 c9		 test	 ecx, ecx
  003e9	0f 84 d7 1e 00
	00		 je	 $LN655@CreateNorm
  003ef	e8 00 00 00 00	 call	 ??0ioWeakBombBuff@@QAE@XZ ; ioWeakBombBuff::ioWeakBombBuff
  003f4	e9 cf 1e 00 00	 jmp	 $LN656@CreateNorm
$LN194@CreateNorm:

; 223  : 		break;
; 224  : 	case BT_WEAK_MAGIC:
; 225  : 		pBuff = new ioWeakMagicBuff;

  003f9	68 7c 09 00 00	 push	 2428			; 0000097cH
  003fe	e8 00 00 00 00	 call	 ??2@YAPAXI@Z		; operator new
  00403	59		 pop	 ecx
  00404	8b c8		 mov	 ecx, eax
  00406	89 4d 08	 mov	 DWORD PTR $T529387[ebp], ecx
  00409	c7 45 fc 18 00
	00 00		 mov	 DWORD PTR __$EHRec$[ebp+8], 24 ; 00000018H
  00410	85 c9		 test	 ecx, ecx
  00412	0f 84 ae 1e 00
	00		 je	 $LN655@CreateNorm
  00418	e8 00 00 00 00	 call	 ??0ioWeakMagicBuff@@QAE@XZ ; ioWeakMagicBuff::ioWeakMagicBuff
  0041d	e9 a6 1e 00 00	 jmp	 $LN656@CreateNorm
$LN193@CreateNorm:

; 226  : 		break;
; 227  : 	case BT_GAUGE_CLEAR:
; 228  : 		pBuff = new ioGaugeClearBuff;

  00422	68 8c 09 00 00	 push	 2444			; 0000098cH
  00427	e8 00 00 00 00	 call	 ??2@YAPAXI@Z		; operator new
  0042c	59		 pop	 ecx
  0042d	8b c8		 mov	 ecx, eax
  0042f	89 4d 08	 mov	 DWORD PTR $T529391[ebp], ecx
  00432	c7 45 fc 19 00
	00 00		 mov	 DWORD PTR __$EHRec$[ebp+8], 25 ; 00000019H
  00439	85 c9		 test	 ecx, ecx
  0043b	0f 84 85 1e 00
	00		 je	 $LN655@CreateNorm
  00441	e8 00 00 00 00	 call	 ??0ioGaugeClearBuff@@QAE@XZ ; ioGaugeClearBuff::ioGaugeClearBuff
  00446	e9 7d 1e 00 00	 jmp	 $LN656@CreateNorm
$LN192@CreateNorm:

; 229  : 		break;
; 230  : 	case BT_FEAR:
; 231  : 		pBuff = new ioFearBuff;

  0044b	68 fc 09 00 00	 push	 2556			; 000009fcH
  00450	e8 00 00 00 00	 call	 ??2@YAPAXI@Z		; operator new
  00455	59		 pop	 ecx
  00456	8b c8		 mov	 ecx, eax
  00458	89 4d 08	 mov	 DWORD PTR $T529395[ebp], ecx
  0045b	c7 45 fc 1a 00
	00 00		 mov	 DWORD PTR __$EHRec$[ebp+8], 26 ; 0000001aH
  00462	85 c9		 test	 ecx, ecx
  00464	0f 84 5c 1e 00
	00		 je	 $LN655@CreateNorm
  0046a	e8 00 00 00 00	 call	 ??0ioFearBuff@@QAE@XZ	; ioFearBuff::ioFearBuff
  0046f	e9 54 1e 00 00	 jmp	 $LN656@CreateNorm
$LN191@CreateNorm:

; 232  : 		break;
; 233  : 	case BT_DOUBLE_JUMP:
; 234  : 		pBuff = new ioDoubleJumpBuff;

  00474	68 b4 0b 00 00	 push	 2996			; 00000bb4H
  00479	e8 00 00 00 00	 call	 ??2@YAPAXI@Z		; operator new
  0047e	59		 pop	 ecx
  0047f	8b c8		 mov	 ecx, eax
  00481	89 4d 08	 mov	 DWORD PTR $T529399[ebp], ecx
  00484	c7 45 fc 1b 00
	00 00		 mov	 DWORD PTR __$EHRec$[ebp+8], 27 ; 0000001bH
  0048b	85 c9		 test	 ecx, ecx
  0048d	0f 84 33 1e 00
	00		 je	 $LN655@CreateNorm
  00493	e8 00 00 00 00	 call	 ??0ioDoubleJumpBuff@@QAE@XZ ; ioDoubleJumpBuff::ioDoubleJumpBuff
  00498	e9 2b 1e 00 00	 jmp	 $LN656@CreateNorm
$LN190@CreateNorm:

; 235  : 		break;
; 236  : 	case BT_ABSOLUTE_PROTECTION:
; 237  : 		pBuff = new ioAbsoluteProtectionBuff;

  0049d	68 80 09 00 00	 push	 2432			; 00000980H
  004a2	e8 00 00 00 00	 call	 ??2@YAPAXI@Z		; operator new
  004a7	59		 pop	 ecx
  004a8	8b c8		 mov	 ecx, eax
  004aa	89 4d 08	 mov	 DWORD PTR $T529403[ebp], ecx
  004ad	c7 45 fc 1c 00
	00 00		 mov	 DWORD PTR __$EHRec$[ebp+8], 28 ; 0000001cH
  004b4	85 c9		 test	 ecx, ecx
  004b6	0f 84 0a 1e 00
	00		 je	 $LN655@CreateNorm
  004bc	e8 00 00 00 00	 call	 ??0ioAbsoluteProtectionBuff@@QAE@XZ ; ioAbsoluteProtectionBuff::ioAbsoluteProtectionBuff
  004c1	e9 02 1e 00 00	 jmp	 $LN656@CreateNorm
$LN189@CreateNorm:

; 238  : 		break;
; 239  : 	case BT_ELETRIC:
; 240  : 		pBuff = new ioEletricBuff;

  004c6	68 e4 09 00 00	 push	 2532			; 000009e4H
  004cb	e8 00 00 00 00	 call	 ??2@YAPAXI@Z		; operator new
  004d0	59		 pop	 ecx
  004d1	8b c8		 mov	 ecx, eax
  004d3	89 4d 08	 mov	 DWORD PTR $T529407[ebp], ecx
  004d6	c7 45 fc 1d 00
	00 00		 mov	 DWORD PTR __$EHRec$[ebp+8], 29 ; 0000001dH
  004dd	85 c9		 test	 ecx, ecx
  004df	0f 84 e1 1d 00
	00		 je	 $LN655@CreateNorm
  004e5	e8 00 00 00 00	 call	 ??0ioEletricBuff@@QAE@XZ ; ioEletricBuff::ioEletricBuff
  004ea	e9 d9 1d 00 00	 jmp	 $LN656@CreateNorm
$LN188@CreateNorm:

; 241  : 		break;
; 242  : 	case BT_MANA_SHIELD:
; 243  : 		pBuff = new ioManaShieldBuff;

  004ef	68 78 09 00 00	 push	 2424			; 00000978H
  004f4	e8 00 00 00 00	 call	 ??2@YAPAXI@Z		; operator new
  004f9	59		 pop	 ecx
  004fa	8b c8		 mov	 ecx, eax
  004fc	89 4d 08	 mov	 DWORD PTR $T529411[ebp], ecx
  004ff	c7 45 fc 1e 00
	00 00		 mov	 DWORD PTR __$EHRec$[ebp+8], 30 ; 0000001eH
  00506	85 c9		 test	 ecx, ecx
  00508	0f 84 b8 1d 00
	00		 je	 $LN655@CreateNorm
  0050e	e8 00 00 00 00	 call	 ??0ioManaShieldBuff@@QAE@XZ ; ioManaShieldBuff::ioManaShieldBuff
  00513	e9 b0 1d 00 00	 jmp	 $LN656@CreateNorm
$LN187@CreateNorm:

; 244  : 		break;
; 245  : 	case BT_WARP:
; 246  : 		pBuff = new ioWarpStateBuff;

  00518	68 bc 09 00 00	 push	 2492			; 000009bcH
  0051d	e8 00 00 00 00	 call	 ??2@YAPAXI@Z		; operator new
  00522	59		 pop	 ecx
  00523	8b c8		 mov	 ecx, eax
  00525	89 4d 08	 mov	 DWORD PTR $T529415[ebp], ecx
  00528	c7 45 fc 1f 00
	00 00		 mov	 DWORD PTR __$EHRec$[ebp+8], 31 ; 0000001fH
  0052f	85 c9		 test	 ecx, ecx
  00531	0f 84 8f 1d 00
	00		 je	 $LN655@CreateNorm
  00537	e8 00 00 00 00	 call	 ??0ioWarpStateBuff@@QAE@XZ ; ioWarpStateBuff::ioWarpStateBuff
  0053c	e9 87 1d 00 00	 jmp	 $LN656@CreateNorm
$LN186@CreateNorm:

; 247  : 		break;
; 248  : 	case BT_CLOSEORDER:
; 249  : 		pBuff = new ioCloseOrderBuff;

  00541	68 34 0a 00 00	 push	 2612			; 00000a34H
  00546	e8 00 00 00 00	 call	 ??2@YAPAXI@Z		; operator new
  0054b	59		 pop	 ecx
  0054c	8b c8		 mov	 ecx, eax
  0054e	89 4d 08	 mov	 DWORD PTR $T529419[ebp], ecx
  00551	c7 45 fc 20 00
	00 00		 mov	 DWORD PTR __$EHRec$[ebp+8], 32 ; 00000020H
  00558	85 c9		 test	 ecx, ecx
  0055a	0f 84 66 1d 00
	00		 je	 $LN655@CreateNorm
  00560	e8 00 00 00 00	 call	 ??0ioCloseOrderBuff@@QAE@XZ ; ioCloseOrderBuff::ioCloseOrderBuff
  00565	e9 5e 1d 00 00	 jmp	 $LN656@CreateNorm
$LN185@CreateNorm:

; 250  : 		break;
; 251  : 	case BT_STATE_PROTECTION:
; 252  : 		pBuff = new ioStateProtectionBuff;

  0056a	68 20 0a 00 00	 push	 2592			; 00000a20H
  0056f	e8 00 00 00 00	 call	 ??2@YAPAXI@Z		; operator new
  00574	59		 pop	 ecx
  00575	8b c8		 mov	 ecx, eax
  00577	89 4d 08	 mov	 DWORD PTR $T529423[ebp], ecx
  0057a	c7 45 fc 21 00
	00 00		 mov	 DWORD PTR __$EHRec$[ebp+8], 33 ; 00000021H
  00581	85 c9		 test	 ecx, ecx
  00583	0f 84 3d 1d 00
	00		 je	 $LN655@CreateNorm
  00589	e8 00 00 00 00	 call	 ??0ioStateProtectionBuff@@QAE@XZ ; ioStateProtectionBuff::ioStateProtectionBuff
  0058e	e9 35 1d 00 00	 jmp	 $LN656@CreateNorm
$LN184@CreateNorm:

; 253  : 		break;
; 254  : 	case BT_FLOAT_BUFF:
; 255  : 		pBuff = new ioFloatBuff;

  00593	68 c8 09 00 00	 push	 2504			; 000009c8H
  00598	e8 00 00 00 00	 call	 ??2@YAPAXI@Z		; operator new
  0059d	59		 pop	 ecx
  0059e	8b c8		 mov	 ecx, eax
  005a0	89 4d 08	 mov	 DWORD PTR $T529427[ebp], ecx
  005a3	c7 45 fc 22 00
	00 00		 mov	 DWORD PTR __$EHRec$[ebp+8], 34 ; 00000022H
  005aa	85 c9		 test	 ecx, ecx
  005ac	0f 84 14 1d 00
	00		 je	 $LN655@CreateNorm
  005b2	e8 00 00 00 00	 call	 ??0ioFloatBuff@@QAE@XZ	; ioFloatBuff::ioFloatBuff
  005b7	e9 0c 1d 00 00	 jmp	 $LN656@CreateNorm
$LN183@CreateNorm:

; 256  : 		break;
; 257  : 	case BT_JUMP_UPDOWN:
; 258  : 		pBuff = new ioJumpPowerRateBuff;

  005bc	68 70 09 00 00	 push	 2416			; 00000970H
  005c1	e8 00 00 00 00	 call	 ??2@YAPAXI@Z		; operator new
  005c6	59		 pop	 ecx
  005c7	8b c8		 mov	 ecx, eax
  005c9	89 4d 08	 mov	 DWORD PTR $T529431[ebp], ecx
  005cc	c7 45 fc 23 00
	00 00		 mov	 DWORD PTR __$EHRec$[ebp+8], 35 ; 00000023H
  005d3	85 c9		 test	 ecx, ecx
  005d5	0f 84 eb 1c 00
	00		 je	 $LN655@CreateNorm
  005db	e8 00 00 00 00	 call	 ??0ioJumpPowerRateBuff@@QAE@XZ ; ioJumpPowerRateBuff::ioJumpPowerRateBuff
  005e0	e9 e3 1c 00 00	 jmp	 $LN656@CreateNorm
$LN182@CreateNorm:

; 259  : 		break;
; 260  : 	case BT_LANDING_RATE:
; 261  : 		pBuff = new ioLandingRateBuff;

  005e5	68 74 09 00 00	 push	 2420			; 00000974H
  005ea	e8 00 00 00 00	 call	 ??2@YAPAXI@Z		; operator new
  005ef	59		 pop	 ecx
  005f0	8b c8		 mov	 ecx, eax
  005f2	89 4d 08	 mov	 DWORD PTR $T529435[ebp], ecx
  005f5	c7 45 fc 24 00
	00 00		 mov	 DWORD PTR __$EHRec$[ebp+8], 36 ; 00000024H
  005fc	85 c9		 test	 ecx, ecx
  005fe	0f 84 c2 1c 00
	00		 je	 $LN655@CreateNorm
  00604	e8 00 00 00 00	 call	 ??0ioLandingRateBuff@@QAE@XZ ; ioLandingRateBuff::ioLandingRateBuff
  00609	e9 ba 1c 00 00	 jmp	 $LN656@CreateNorm
$LN181@CreateNorm:

; 262  : 		break;
; 263  : 	case BT_SCREEN_BLIND:
; 264  : 		pBuff = new ioScreenBlindBuff;

  0060e	68 8c 09 00 00	 push	 2444			; 0000098cH
  00613	e8 00 00 00 00	 call	 ??2@YAPAXI@Z		; operator new
  00618	59		 pop	 ecx
  00619	8b c8		 mov	 ecx, eax
  0061b	89 4d 08	 mov	 DWORD PTR $T529439[ebp], ecx
  0061e	c7 45 fc 25 00
	00 00		 mov	 DWORD PTR __$EHRec$[ebp+8], 37 ; 00000025H
  00625	85 c9		 test	 ecx, ecx
  00627	0f 84 99 1c 00
	00		 je	 $LN655@CreateNorm
  0062d	e8 00 00 00 00	 call	 ??0ioScreenBlindBuff@@QAE@XZ ; ioScreenBlindBuff::ioScreenBlindBuff
  00632	e9 91 1c 00 00	 jmp	 $LN656@CreateNorm
$LN180@CreateNorm:

; 265  : 		break;
; 266  : 	case BT_PUSH_BLOW_ENHANCE:
; 267  : 		pBuff = new ioPushBlowEnhanceBuff;

  00637	68 90 09 00 00	 push	 2448			; 00000990H
  0063c	e8 00 00 00 00	 call	 ??2@YAPAXI@Z		; operator new
  00641	59		 pop	 ecx
  00642	8b c8		 mov	 ecx, eax
  00644	89 4d 08	 mov	 DWORD PTR $T529443[ebp], ecx
  00647	c7 45 fc 26 00
	00 00		 mov	 DWORD PTR __$EHRec$[ebp+8], 38 ; 00000026H
  0064e	85 c9		 test	 ecx, ecx
  00650	0f 84 70 1c 00
	00		 je	 $LN655@CreateNorm
  00656	e8 00 00 00 00	 call	 ??0ioPushBlowEnhanceBuff@@QAE@XZ ; ioPushBlowEnhanceBuff::ioPushBlowEnhanceBuff
  0065b	e9 68 1c 00 00	 jmp	 $LN656@CreateNorm
$LN179@CreateNorm:

; 268  : 		break;
; 269  : 	case BT_BREAK_FALL:
; 270  : 		pBuff = new ioBreakFallBuff;

  00660	68 6c 0a 00 00	 push	 2668			; 00000a6cH
  00665	e8 00 00 00 00	 call	 ??2@YAPAXI@Z		; operator new
  0066a	59		 pop	 ecx
  0066b	8b c8		 mov	 ecx, eax
  0066d	89 4d 08	 mov	 DWORD PTR $T529447[ebp], ecx
  00670	c7 45 fc 27 00
	00 00		 mov	 DWORD PTR __$EHRec$[ebp+8], 39 ; 00000027H
  00677	85 c9		 test	 ecx, ecx
  00679	0f 84 47 1c 00
	00		 je	 $LN655@CreateNorm
  0067f	e8 00 00 00 00	 call	 ??0ioBreakFallBuff@@QAE@XZ ; ioBreakFallBuff::ioBreakFallBuff
  00684	e9 3f 1c 00 00	 jmp	 $LN656@CreateNorm
$LN178@CreateNorm:

; 271  : 		break;
; 272  : 	case BT_BLOW_PUSH_POWER_BUFF:
; 273  : 		pBuff = new ioBlowPushPowerBuff;

  00689	68 e4 09 00 00	 push	 2532			; 000009e4H
  0068e	e8 00 00 00 00	 call	 ??2@YAPAXI@Z		; operator new
  00693	59		 pop	 ecx
  00694	8b c8		 mov	 ecx, eax
  00696	89 4d 08	 mov	 DWORD PTR $T529451[ebp], ecx
  00699	c7 45 fc 28 00
	00 00		 mov	 DWORD PTR __$EHRec$[ebp+8], 40 ; 00000028H
  006a0	85 c9		 test	 ecx, ecx
  006a2	0f 84 1e 1c 00
	00		 je	 $LN655@CreateNorm
  006a8	e8 00 00 00 00	 call	 ??0ioBlowPushPowerBuff@@QAE@XZ ; ioBlowPushPowerBuff::ioBlowPushPowerBuff
  006ad	e9 16 1c 00 00	 jmp	 $LN656@CreateNorm
$LN177@CreateNorm:

; 274  : 		break;
; 275  : 	case BT_HP_CONVERT:
; 276  : 		pBuff = new ioHPConvertBuff;

  006b2	68 2c 0a 00 00	 push	 2604			; 00000a2cH
  006b7	e8 00 00 00 00	 call	 ??2@YAPAXI@Z		; operator new
  006bc	59		 pop	 ecx
  006bd	8b c8		 mov	 ecx, eax
  006bf	89 4d 08	 mov	 DWORD PTR $T529455[ebp], ecx
  006c2	c7 45 fc 29 00
	00 00		 mov	 DWORD PTR __$EHRec$[ebp+8], 41 ; 00000029H
  006c9	85 c9		 test	 ecx, ecx
  006cb	0f 84 f5 1b 00
	00		 je	 $LN655@CreateNorm
  006d1	e8 00 00 00 00	 call	 ??0ioHPConvertBuff@@QAE@XZ ; ioHPConvertBuff::ioHPConvertBuff
  006d6	e9 ed 1b 00 00	 jmp	 $LN656@CreateNorm
$LN176@CreateNorm:

; 277  : 		break;
; 278  : 	case BT_STOP_MOTION:
; 279  : 		pBuff = new ioStopMotionBuff;

  006db	68 a0 09 00 00	 push	 2464			; 000009a0H
  006e0	e8 00 00 00 00	 call	 ??2@YAPAXI@Z		; operator new
  006e5	59		 pop	 ecx
  006e6	8b c8		 mov	 ecx, eax
  006e8	89 4d 08	 mov	 DWORD PTR $T529459[ebp], ecx
  006eb	c7 45 fc 2a 00
	00 00		 mov	 DWORD PTR __$EHRec$[ebp+8], 42 ; 0000002aH
  006f2	85 c9		 test	 ecx, ecx
  006f4	0f 84 cc 1b 00
	00		 je	 $LN655@CreateNorm
  006fa	e8 00 00 00 00	 call	 ??0ioStopMotionBuff@@QAE@XZ ; ioStopMotionBuff::ioStopMotionBuff
  006ff	e9 c4 1b 00 00	 jmp	 $LN656@CreateNorm
$LN175@CreateNorm:

; 280  : 		break;
; 281  : 	case BT_DAMAGE_CONVERT:
; 282  : 		pBuff = new ioDamageConvertBuff;

  00704	68 cc 0a 00 00	 push	 2764			; 00000accH
  00709	e8 00 00 00 00	 call	 ??2@YAPAXI@Z		; operator new
  0070e	59		 pop	 ecx
  0070f	8b c8		 mov	 ecx, eax
  00711	89 4d 08	 mov	 DWORD PTR $T529463[ebp], ecx
  00714	c7 45 fc 2b 00
	00 00		 mov	 DWORD PTR __$EHRec$[ebp+8], 43 ; 0000002bH
  0071b	85 c9		 test	 ecx, ecx
  0071d	0f 84 a3 1b 00
	00		 je	 $LN655@CreateNorm
  00723	e8 00 00 00 00	 call	 ??0ioDamageConvertBuff@@QAE@XZ ; ioDamageConvertBuff::ioDamageConvertBuff
  00728	e9 9b 1b 00 00	 jmp	 $LN656@CreateNorm
$LN174@CreateNorm:

; 283  : 		break;
; 284  : 	case BT_SYSTEM_DAMAGE_RATE:
; 285  : 		pBuff = new ioSystemDamageRateBuff;

  0072d	68 80 09 00 00	 push	 2432			; 00000980H
  00732	e8 00 00 00 00	 call	 ??2@YAPAXI@Z		; operator new
  00737	59		 pop	 ecx
  00738	8b c8		 mov	 ecx, eax
  0073a	89 4d 08	 mov	 DWORD PTR $T529467[ebp], ecx
  0073d	c7 45 fc 2c 00
	00 00		 mov	 DWORD PTR __$EHRec$[ebp+8], 44 ; 0000002cH
  00744	85 c9		 test	 ecx, ecx
  00746	0f 84 7a 1b 00
	00		 je	 $LN655@CreateNorm
  0074c	e8 00 00 00 00	 call	 ??0ioSystemDamageRateBuff@@QAE@XZ ; ioSystemDamageRateBuff::ioSystemDamageRateBuff
  00751	e9 72 1b 00 00	 jmp	 $LN656@CreateNorm
$LN173@CreateNorm:

; 286  : 		break;
; 287  : 	case BT_REVERSE_DIRECTION:
; 288  : 		pBuff = new ioReverseDirectionBuff;

  00756	68 6c 09 00 00	 push	 2412			; 0000096cH
  0075b	e8 00 00 00 00	 call	 ??2@YAPAXI@Z		; operator new
  00760	59		 pop	 ecx
  00761	8b c8		 mov	 ecx, eax
  00763	89 4d 08	 mov	 DWORD PTR $T529471[ebp], ecx
  00766	c7 45 fc 2d 00
	00 00		 mov	 DWORD PTR __$EHRec$[ebp+8], 45 ; 0000002dH
  0076d	85 c9		 test	 ecx, ecx
  0076f	0f 84 51 1b 00
	00		 je	 $LN655@CreateNorm
  00775	e8 00 00 00 00	 call	 ??0ioReverseDirectionBuff@@QAE@XZ ; ioReverseDirectionBuff::ioReverseDirectionBuff
  0077a	e9 49 1b 00 00	 jmp	 $LN656@CreateNorm
$LN172@CreateNorm:

; 289  : 		break;
; 290  : 	case BT_HP_STEAL:
; 291  : 		pBuff = new ioHPStealBuff;

  0077f	68 98 09 00 00	 push	 2456			; 00000998H
  00784	e8 00 00 00 00	 call	 ??2@YAPAXI@Z		; operator new
  00789	59		 pop	 ecx
  0078a	8b c8		 mov	 ecx, eax
  0078c	89 4d 08	 mov	 DWORD PTR $T529475[ebp], ecx
  0078f	c7 45 fc 2e 00
	00 00		 mov	 DWORD PTR __$EHRec$[ebp+8], 46 ; 0000002eH
  00796	85 c9		 test	 ecx, ecx
  00798	0f 84 28 1b 00
	00		 je	 $LN655@CreateNorm
  0079e	e8 00 00 00 00	 call	 ??0ioHPStealBuff@@QAE@XZ ; ioHPStealBuff::ioHPStealBuff
  007a3	e9 20 1b 00 00	 jmp	 $LN656@CreateNorm
$LN171@CreateNorm:

; 292  : 		break;
; 293  : 	case BT_HEAD_SCALE:
; 294  : 		pBuff = new ioHeadScaleBuff;

  007a8	68 78 09 00 00	 push	 2424			; 00000978H
  007ad	e8 00 00 00 00	 call	 ??2@YAPAXI@Z		; operator new
  007b2	59		 pop	 ecx
  007b3	8b c8		 mov	 ecx, eax
  007b5	89 4d 08	 mov	 DWORD PTR $T529479[ebp], ecx
  007b8	c7 45 fc 2f 00
	00 00		 mov	 DWORD PTR __$EHRec$[ebp+8], 47 ; 0000002fH
  007bf	85 c9		 test	 ecx, ecx
  007c1	0f 84 ff 1a 00
	00		 je	 $LN655@CreateNorm
  007c7	e8 00 00 00 00	 call	 ??0ioHeadScaleBuff@@QAE@XZ ; ioHeadScaleBuff::ioHeadScaleBuff
  007cc	e9 f7 1a 00 00	 jmp	 $LN656@CreateNorm
$LN170@CreateNorm:

; 295  : 		break;
; 296  : 	case BT_NOWOUND:
; 297  : 		pBuff = new ioNoWoundBuff;

  007d1	68 2c 0b 00 00	 push	 2860			; 00000b2cH
  007d6	e8 00 00 00 00	 call	 ??2@YAPAXI@Z		; operator new
  007db	59		 pop	 ecx
  007dc	8b c8		 mov	 ecx, eax
  007de	89 4d 08	 mov	 DWORD PTR $T529483[ebp], ecx
  007e1	c7 45 fc 30 00
	00 00		 mov	 DWORD PTR __$EHRec$[ebp+8], 48 ; 00000030H
  007e8	85 c9		 test	 ecx, ecx
  007ea	0f 84 d6 1a 00
	00		 je	 $LN655@CreateNorm
  007f0	e8 00 00 00 00	 call	 ??0ioNoWoundBuff@@QAE@XZ ; ioNoWoundBuff::ioNoWoundBuff
  007f5	e9 ce 1a 00 00	 jmp	 $LN656@CreateNorm
$LN169@CreateNorm:

; 298  : 		break;
; 299  : 	case BT_DISABLE_DASH:
; 300  : 		pBuff = new ioDisableDashBuff;

  007fa	68 80 09 00 00	 push	 2432			; 00000980H
  007ff	e8 00 00 00 00	 call	 ??2@YAPAXI@Z		; operator new
  00804	59		 pop	 ecx
  00805	8b c8		 mov	 ecx, eax
  00807	89 4d 08	 mov	 DWORD PTR $T529487[ebp], ecx
  0080a	c7 45 fc 31 00
	00 00		 mov	 DWORD PTR __$EHRec$[ebp+8], 49 ; 00000031H
  00811	85 c9		 test	 ecx, ecx
  00813	0f 84 ad 1a 00
	00		 je	 $LN655@CreateNorm
  00819	e8 00 00 00 00	 call	 ??0ioDisableDashBuff@@QAE@XZ ; ioDisableDashBuff::ioDisableDashBuff
  0081e	e9 a5 1a 00 00	 jmp	 $LN656@CreateNorm
$LN168@CreateNorm:

; 301  : 		break;
; 302  : 	case BT_CHANGE_MOTION:
; 303  : 		pBuff = new ioChangeMotionBuff;

  00823	68 c4 09 00 00	 push	 2500			; 000009c4H
  00828	e8 00 00 00 00	 call	 ??2@YAPAXI@Z		; operator new
  0082d	59		 pop	 ecx
  0082e	8b c8		 mov	 ecx, eax
  00830	89 4d 08	 mov	 DWORD PTR $T529491[ebp], ecx
  00833	c7 45 fc 32 00
	00 00		 mov	 DWORD PTR __$EHRec$[ebp+8], 50 ; 00000032H
  0083a	85 c9		 test	 ecx, ecx
  0083c	0f 84 84 1a 00
	00		 je	 $LN655@CreateNorm
  00842	e8 00 00 00 00	 call	 ??0ioChangeMotionBuff@@QAE@XZ ; ioChangeMotionBuff::ioChangeMotionBuff
  00847	e9 7c 1a 00 00	 jmp	 $LN656@CreateNorm
$LN167@CreateNorm:

; 304  : 		break;
; 305  : 	case BT_GAUGE_STEAL:
; 306  : 		pBuff = new ioGaugeStealBuff;

  0084c	68 70 09 00 00	 push	 2416			; 00000970H
  00851	e8 00 00 00 00	 call	 ??2@YAPAXI@Z		; operator new
  00856	59		 pop	 ecx
  00857	8b c8		 mov	 ecx, eax
  00859	89 4d 08	 mov	 DWORD PTR $T529495[ebp], ecx
  0085c	c7 45 fc 33 00
	00 00		 mov	 DWORD PTR __$EHRec$[ebp+8], 51 ; 00000033H
  00863	85 c9		 test	 ecx, ecx
  00865	0f 84 5b 1a 00
	00		 je	 $LN655@CreateNorm
  0086b	e8 00 00 00 00	 call	 ??0ioGaugeStealBuff@@QAE@XZ ; ioGaugeStealBuff::ioGaugeStealBuff
  00870	e9 53 1a 00 00	 jmp	 $LN656@CreateNorm
$LN166@CreateNorm:

; 307  : 		break;
; 308  : 	case BT_RETURN_ATTACK:
; 309  : 		pBuff = new ioReturnAttackBuff;

  00875	68 78 09 00 00	 push	 2424			; 00000978H
  0087a	e8 00 00 00 00	 call	 ??2@YAPAXI@Z		; operator new
  0087f	59		 pop	 ecx
  00880	8b c8		 mov	 ecx, eax
  00882	89 4d 08	 mov	 DWORD PTR $T529499[ebp], ecx
  00885	c7 45 fc 34 00
	00 00		 mov	 DWORD PTR __$EHRec$[ebp+8], 52 ; 00000034H
  0088c	85 c9		 test	 ecx, ecx
  0088e	0f 84 32 1a 00
	00		 je	 $LN655@CreateNorm
  00894	e8 00 00 00 00	 call	 ??0ioReturnAttackBuff@@QAE@XZ ; ioReturnAttackBuff::ioReturnAttackBuff
  00899	e9 2a 1a 00 00	 jmp	 $LN656@CreateNorm
$LN165@CreateNorm:

; 310  : 		break;
; 311  : 	case BT_FLOAT_MODE_EVENT_BUFF:
; 312  : 		pBuff = new ioFloatModeEventBuff;

  0089e	68 c8 09 00 00	 push	 2504			; 000009c8H
  008a3	e8 00 00 00 00	 call	 ??2@YAPAXI@Z		; operator new
  008a8	59		 pop	 ecx
  008a9	8b c8		 mov	 ecx, eax
  008ab	89 4d 08	 mov	 DWORD PTR $T529503[ebp], ecx
  008ae	c7 45 fc 35 00
	00 00		 mov	 DWORD PTR __$EHRec$[ebp+8], 53 ; 00000035H
  008b5	85 c9		 test	 ecx, ecx
  008b7	0f 84 09 1a 00
	00		 je	 $LN655@CreateNorm
  008bd	e8 00 00 00 00	 call	 ??0ioFloatModeEventBuff@@QAE@XZ ; ioFloatModeEventBuff::ioFloatModeEventBuff
  008c2	e9 01 1a 00 00	 jmp	 $LN656@CreateNorm
$LN164@CreateNorm:

; 313  : 		break;
; 314  : 	case BT_ACCUMULATE:
; 315  : 		pBuff = new ioAccumulateBuff;

  008c7	68 88 09 00 00	 push	 2440			; 00000988H
  008cc	e8 00 00 00 00	 call	 ??2@YAPAXI@Z		; operator new
  008d1	59		 pop	 ecx
  008d2	8b c8		 mov	 ecx, eax
  008d4	89 4d 08	 mov	 DWORD PTR $T529507[ebp], ecx
  008d7	c7 45 fc 36 00
	00 00		 mov	 DWORD PTR __$EHRec$[ebp+8], 54 ; 00000036H
  008de	85 c9		 test	 ecx, ecx
  008e0	0f 84 e0 19 00
	00		 je	 $LN655@CreateNorm
  008e6	e8 00 00 00 00	 call	 ??0ioAccumulateBuff@@QAE@XZ ; ioAccumulateBuff::ioAccumulateBuff
  008eb	e9 d8 19 00 00	 jmp	 $LN656@CreateNorm
$LN163@CreateNorm:

; 316  : 		break;
; 317  : 	case BT_LIMIT_MOVE:
; 318  : 		pBuff = new ioLimitMoveBuff;

  008f0	68 d4 09 00 00	 push	 2516			; 000009d4H
  008f5	e8 00 00 00 00	 call	 ??2@YAPAXI@Z		; operator new
  008fa	59		 pop	 ecx
  008fb	8b c8		 mov	 ecx, eax
  008fd	89 4d 08	 mov	 DWORD PTR $T529511[ebp], ecx
  00900	c7 45 fc 37 00
	00 00		 mov	 DWORD PTR __$EHRec$[ebp+8], 55 ; 00000037H
  00907	85 c9		 test	 ecx, ecx
  00909	0f 84 b7 19 00
	00		 je	 $LN655@CreateNorm
  0090f	e8 00 00 00 00	 call	 ??0ioLimitMoveBuff@@QAE@XZ ; ioLimitMoveBuff::ioLimitMoveBuff
  00914	e9 af 19 00 00	 jmp	 $LN656@CreateNorm
$LN162@CreateNorm:

; 319  : 		break;
; 320  : 	case BT_BUFF_FLY_JUMP:
; 321  : 		pBuff = new ioFlyJumpBuff;

  00919	68 54 0b 00 00	 push	 2900			; 00000b54H
  0091e	e8 00 00 00 00	 call	 ??2@YAPAXI@Z		; operator new
  00923	59		 pop	 ecx
  00924	8b c8		 mov	 ecx, eax
  00926	89 4d 08	 mov	 DWORD PTR $T529515[ebp], ecx
  00929	c7 45 fc 38 00
	00 00		 mov	 DWORD PTR __$EHRec$[ebp+8], 56 ; 00000038H
  00930	85 c9		 test	 ecx, ecx
  00932	0f 84 8e 19 00
	00		 je	 $LN655@CreateNorm
  00938	e8 00 00 00 00	 call	 ??0ioFlyJumpBuff@@QAE@XZ ; ioFlyJumpBuff::ioFlyJumpBuff
  0093d	e9 86 19 00 00	 jmp	 $LN656@CreateNorm
$LN161@CreateNorm:

; 322  : 		break;
; 323  : 	case BT_DOWN_JUMPPING_BUFF:
; 324  : 		pBuff = new ioDownJumppingBuff;

  00942	68 fc 09 00 00	 push	 2556			; 000009fcH
  00947	e8 00 00 00 00	 call	 ??2@YAPAXI@Z		; operator new
  0094c	59		 pop	 ecx
  0094d	8b c8		 mov	 ecx, eax
  0094f	89 4d 08	 mov	 DWORD PTR $T529519[ebp], ecx
  00952	c7 45 fc 39 00
	00 00		 mov	 DWORD PTR __$EHRec$[ebp+8], 57 ; 00000039H
  00959	85 c9		 test	 ecx, ecx
  0095b	0f 84 65 19 00
	00		 je	 $LN655@CreateNorm
  00961	e8 00 00 00 00	 call	 ??0ioDownJumppingBuff@@QAE@XZ ; ioDownJumppingBuff::ioDownJumppingBuff
  00966	e9 5d 19 00 00	 jmp	 $LN656@CreateNorm
$LN160@CreateNorm:

; 325  : 		break;
; 326  : 	case BT_DEFENSE_BREAK_BUFF:
; 327  : 		pBuff = new ioDefenseBreakBuff;

  0096b	68 70 09 00 00	 push	 2416			; 00000970H
  00970	e8 00 00 00 00	 call	 ??2@YAPAXI@Z		; operator new
  00975	59		 pop	 ecx
  00976	8b c8		 mov	 ecx, eax
  00978	89 4d 08	 mov	 DWORD PTR $T529523[ebp], ecx
  0097b	c7 45 fc 3a 00
	00 00		 mov	 DWORD PTR __$EHRec$[ebp+8], 58 ; 0000003aH
  00982	85 c9		 test	 ecx, ecx
  00984	0f 84 3c 19 00
	00		 je	 $LN655@CreateNorm
  0098a	e8 00 00 00 00	 call	 ??0ioDefenseBreakBuff@@QAE@XZ ; ioDefenseBreakBuff::ioDefenseBreakBuff
  0098f	e9 34 19 00 00	 jmp	 $LN656@CreateNorm
$LN159@CreateNorm:

; 328  : 		break;
; 329  : 	case BT_SELECT_COLLISION_BUFF:
; 330  : 		pBuff = new ioSelectCollisionBuff;

  00994	68 70 09 00 00	 push	 2416			; 00000970H
  00999	e8 00 00 00 00	 call	 ??2@YAPAXI@Z		; operator new
  0099e	59		 pop	 ecx
  0099f	8b c8		 mov	 ecx, eax
  009a1	89 4d 08	 mov	 DWORD PTR $T529527[ebp], ecx
  009a4	c7 45 fc 3b 00
	00 00		 mov	 DWORD PTR __$EHRec$[ebp+8], 59 ; 0000003bH
  009ab	85 c9		 test	 ecx, ecx
  009ad	0f 84 13 19 00
	00		 je	 $LN655@CreateNorm
  009b3	e8 00 00 00 00	 call	 ??0ioSelectCollisionBuff@@QAE@XZ ; ioSelectCollisionBuff::ioSelectCollisionBuff
  009b8	e9 0b 19 00 00	 jmp	 $LN656@CreateNorm
$LN158@CreateNorm:

; 331  : 		break;
; 332  : 	case BT_RANGE_PROTECT_BUFF:
; 333  : 		pBuff = new ioRangeProtectionBuff;

  009bd	68 84 09 00 00	 push	 2436			; 00000984H
  009c2	e8 00 00 00 00	 call	 ??2@YAPAXI@Z		; operator new
  009c7	59		 pop	 ecx
  009c8	8b c8		 mov	 ecx, eax
  009ca	89 4d 08	 mov	 DWORD PTR $T529531[ebp], ecx
  009cd	c7 45 fc 3c 00
	00 00		 mov	 DWORD PTR __$EHRec$[ebp+8], 60 ; 0000003cH
  009d4	85 c9		 test	 ecx, ecx
  009d6	0f 84 ea 18 00
	00		 je	 $LN655@CreateNorm
  009dc	e8 00 00 00 00	 call	 ??0ioRangeProtectionBuff@@QAE@XZ ; ioRangeProtectionBuff::ioRangeProtectionBuff
  009e1	e9 e2 18 00 00	 jmp	 $LN656@CreateNorm
$LN157@CreateNorm:

; 334  : 		break;
; 335  : 	case BT_LIMIT_ACTION:
; 336  : 		pBuff = new ioLimitActionBuff;

  009e6	68 c0 0a 00 00	 push	 2752			; 00000ac0H
  009eb	e8 00 00 00 00	 call	 ??2@YAPAXI@Z		; operator new
  009f0	59		 pop	 ecx
  009f1	8b c8		 mov	 ecx, eax
  009f3	89 4d 08	 mov	 DWORD PTR $T529535[ebp], ecx
  009f6	c7 45 fc 3d 00
	00 00		 mov	 DWORD PTR __$EHRec$[ebp+8], 61 ; 0000003dH
  009fd	85 c9		 test	 ecx, ecx
  009ff	0f 84 c1 18 00
	00		 je	 $LN655@CreateNorm
  00a05	e8 00 00 00 00	 call	 ??0ioLimitActionBuff@@QAE@XZ ; ioLimitActionBuff::ioLimitActionBuff
  00a0a	e9 b9 18 00 00	 jmp	 $LN656@CreateNorm
$LN156@CreateNorm:

; 337  : 		break;
; 338  : 	case BT_CURSE_BUFF:
; 339  : 		pBuff = new ioCurseBuff;

  00a0f	68 a8 09 00 00	 push	 2472			; 000009a8H
  00a14	e8 00 00 00 00	 call	 ??2@YAPAXI@Z		; operator new
  00a19	59		 pop	 ecx
  00a1a	8b c8		 mov	 ecx, eax
  00a1c	89 4d 08	 mov	 DWORD PTR $T529539[ebp], ecx
  00a1f	c7 45 fc 3e 00
	00 00		 mov	 DWORD PTR __$EHRec$[ebp+8], 62 ; 0000003eH
  00a26	85 c9		 test	 ecx, ecx
  00a28	0f 84 98 18 00
	00		 je	 $LN655@CreateNorm
  00a2e	e8 00 00 00 00	 call	 ??0ioCurseBuff@@QAE@XZ	; ioCurseBuff::ioCurseBuff
  00a33	e9 90 18 00 00	 jmp	 $LN656@CreateNorm
$LN155@CreateNorm:

; 340  : 		break;
; 341  : 	case BT_DOWN_ROLLING_BUFF:
; 342  : 		pBuff = new ioDownRollingBuff;

  00a38	68 04 0a 00 00	 push	 2564			; 00000a04H
  00a3d	e8 00 00 00 00	 call	 ??2@YAPAXI@Z		; operator new
  00a42	59		 pop	 ecx
  00a43	8b c8		 mov	 ecx, eax
  00a45	89 4d 08	 mov	 DWORD PTR $T529543[ebp], ecx
  00a48	c7 45 fc 3f 00
	00 00		 mov	 DWORD PTR __$EHRec$[ebp+8], 63 ; 0000003fH
  00a4f	85 c9		 test	 ecx, ecx
  00a51	0f 84 6f 18 00
	00		 je	 $LN655@CreateNorm
  00a57	e8 00 00 00 00	 call	 ??0ioDownRollingBuff@@QAE@XZ ; ioDownRollingBuff::ioDownRollingBuff
  00a5c	e9 67 18 00 00	 jmp	 $LN656@CreateNorm
$LN154@CreateNorm:

; 343  : 		break;
; 344  : 	case BT_FRICTION_UP_DOWN:
; 345  : 		pBuff = new ioFrictionUpDownBuff;

  00a61	68 74 09 00 00	 push	 2420			; 00000974H
  00a66	e8 00 00 00 00	 call	 ??2@YAPAXI@Z		; operator new
  00a6b	59		 pop	 ecx
  00a6c	8b c8		 mov	 ecx, eax
  00a6e	89 4d 08	 mov	 DWORD PTR $T529547[ebp], ecx
  00a71	c7 45 fc 40 00
	00 00		 mov	 DWORD PTR __$EHRec$[ebp+8], 64 ; 00000040H
  00a78	85 c9		 test	 ecx, ecx
  00a7a	0f 84 46 18 00
	00		 je	 $LN655@CreateNorm
  00a80	e8 00 00 00 00	 call	 ??0ioFrictionUpDownBuff@@QAE@XZ ; ioFrictionUpDownBuff::ioFrictionUpDownBuff
  00a85	e9 3e 18 00 00	 jmp	 $LN656@CreateNorm
$LN153@CreateNorm:

; 346  : 		break;
; 347  : 	case BT_FRONT_BACK_WOUND:
; 348  : 		pBuff = new ioFrontBackWoundBuff;

  00a8a	68 58 0a 00 00	 push	 2648			; 00000a58H
  00a8f	e8 00 00 00 00	 call	 ??2@YAPAXI@Z		; operator new
  00a94	59		 pop	 ecx
  00a95	8b c8		 mov	 ecx, eax
  00a97	89 4d 08	 mov	 DWORD PTR $T529551[ebp], ecx
  00a9a	c7 45 fc 41 00
	00 00		 mov	 DWORD PTR __$EHRec$[ebp+8], 65 ; 00000041H
  00aa1	85 c9		 test	 ecx, ecx
  00aa3	0f 84 1d 18 00
	00		 je	 $LN655@CreateNorm
  00aa9	e8 00 00 00 00	 call	 ??0ioFrontBackWoundBuff@@QAE@XZ ; ioFrontBackWoundBuff::ioFrontBackWoundBuff
  00aae	e9 15 18 00 00	 jmp	 $LN656@CreateNorm
$LN152@CreateNorm:

; 349  : 		break;
; 350  : 	case BT_LAND_STUN:
; 351  : 		pBuff = new ioLandStunBuff;

  00ab3	68 94 09 00 00	 push	 2452			; 00000994H
  00ab8	e8 00 00 00 00	 call	 ??2@YAPAXI@Z		; operator new
  00abd	59		 pop	 ecx
  00abe	8b c8		 mov	 ecx, eax
  00ac0	89 4d 08	 mov	 DWORD PTR $T529555[ebp], ecx
  00ac3	c7 45 fc 42 00
	00 00		 mov	 DWORD PTR __$EHRec$[ebp+8], 66 ; 00000042H
  00aca	85 c9		 test	 ecx, ecx
  00acc	0f 84 f4 17 00
	00		 je	 $LN655@CreateNorm
  00ad2	e8 00 00 00 00	 call	 ??0ioLandStunBuff@@QAE@XZ ; ioLandStunBuff::ioLandStunBuff
  00ad7	e9 ec 17 00 00	 jmp	 $LN656@CreateNorm
$LN151@CreateNorm:

; 352  : 		break;
; 353  : 	case BT_AIR_ATTACK:
; 354  : 		pBuff = new ioAirAttackBuff;

  00adc	68 1c 0a 00 00	 push	 2588			; 00000a1cH
  00ae1	e8 00 00 00 00	 call	 ??2@YAPAXI@Z		; operator new
  00ae6	59		 pop	 ecx
  00ae7	8b c8		 mov	 ecx, eax
  00ae9	89 4d 08	 mov	 DWORD PTR $T529559[ebp], ecx
  00aec	c7 45 fc 43 00
	00 00		 mov	 DWORD PTR __$EHRec$[ebp+8], 67 ; 00000043H
  00af3	85 c9		 test	 ecx, ecx
  00af5	0f 84 cb 17 00
	00		 je	 $LN655@CreateNorm
  00afb	e8 00 00 00 00	 call	 ??0ioAirAttackBuff@@QAE@XZ ; ioAirAttackBuff::ioAirAttackBuff
  00b00	e9 c3 17 00 00	 jmp	 $LN656@CreateNorm
$LN150@CreateNorm:

; 355  : 		break;
; 356  : 	case BT_LAND_ROLLING_BUFF:
; 357  : 		pBuff = new ioLandRollingBuff;

  00b05	68 38 0a 00 00	 push	 2616			; 00000a38H
  00b0a	e8 00 00 00 00	 call	 ??2@YAPAXI@Z		; operator new
  00b0f	59		 pop	 ecx
  00b10	8b c8		 mov	 ecx, eax
  00b12	89 4d 08	 mov	 DWORD PTR $T529563[ebp], ecx
  00b15	c7 45 fc 44 00
	00 00		 mov	 DWORD PTR __$EHRec$[ebp+8], 68 ; 00000044H
  00b1c	85 c9		 test	 ecx, ecx
  00b1e	0f 84 a2 17 00
	00		 je	 $LN655@CreateNorm
  00b24	e8 00 00 00 00	 call	 ??0ioLandRollingBuff@@QAE@XZ ; ioLandRollingBuff::ioLandRollingBuff
  00b29	e9 9a 17 00 00	 jmp	 $LN656@CreateNorm
$LN149@CreateNorm:

; 358  : 		break;
; 359  : 	case BT_NOT_MOVE_PROTECT:
; 360  : 		pBuff = new ioNotMoveProtectBuff;

  00b2e	68 a0 09 00 00	 push	 2464			; 000009a0H
  00b33	e8 00 00 00 00	 call	 ??2@YAPAXI@Z		; operator new
  00b38	59		 pop	 ecx
  00b39	8b c8		 mov	 ecx, eax
  00b3b	89 4d 08	 mov	 DWORD PTR $T529567[ebp], ecx
  00b3e	c7 45 fc 45 00
	00 00		 mov	 DWORD PTR __$EHRec$[ebp+8], 69 ; 00000045H
  00b45	85 c9		 test	 ecx, ecx
  00b47	0f 84 79 17 00
	00		 je	 $LN655@CreateNorm
  00b4d	e8 00 00 00 00	 call	 ??0ioNotMoveProtectBuff@@QAE@XZ ; ioNotMoveProtectBuff::ioNotMoveProtectBuff
  00b52	e9 71 17 00 00	 jmp	 $LN656@CreateNorm
$LN148@CreateNorm:

; 361  : 		break;
; 362  : 	case BT_ICE_BUFF:
; 363  : 		pBuff = new ioIceBuff;

  00b57	68 98 09 00 00	 push	 2456			; 00000998H
  00b5c	e8 00 00 00 00	 call	 ??2@YAPAXI@Z		; operator new
  00b61	59		 pop	 ecx
  00b62	8b c8		 mov	 ecx, eax
  00b64	89 4d 08	 mov	 DWORD PTR $T529571[ebp], ecx
  00b67	c7 45 fc 46 00
	00 00		 mov	 DWORD PTR __$EHRec$[ebp+8], 70 ; 00000046H
  00b6e	85 c9		 test	 ecx, ecx
  00b70	0f 84 50 17 00
	00		 je	 $LN655@CreateNorm
  00b76	e8 00 00 00 00	 call	 ??0ioIceBuff@@QAE@XZ	; ioIceBuff::ioIceBuff
  00b7b	e9 48 17 00 00	 jmp	 $LN656@CreateNorm
$LN147@CreateNorm:

; 364  : 		break;
; 365  : 	case BT_DUMMY_BUFF:
; 366  : 		pBuff = new ioDummyBuff;

  00b80	68 8c 0a 00 00	 push	 2700			; 00000a8cH
  00b85	e8 00 00 00 00	 call	 ??2@YAPAXI@Z		; operator new
  00b8a	59		 pop	 ecx
  00b8b	8b c8		 mov	 ecx, eax
  00b8d	89 4d 08	 mov	 DWORD PTR $T529575[ebp], ecx
  00b90	c7 45 fc 47 00
	00 00		 mov	 DWORD PTR __$EHRec$[ebp+8], 71 ; 00000047H
  00b97	85 c9		 test	 ecx, ecx
  00b99	0f 84 27 17 00
	00		 je	 $LN655@CreateNorm
  00b9f	e8 00 00 00 00	 call	 ??0ioDummyBuff@@QAE@XZ	; ioDummyBuff::ioDummyBuff
  00ba4	e9 1f 17 00 00	 jmp	 $LN656@CreateNorm
$LN146@CreateNorm:

; 367  : 		break;
; 368  : 	case BT_SKIP_STUN:
; 369  : 		pBuff = new ioSkipStunBuff;

  00ba9	68 f4 09 00 00	 push	 2548			; 000009f4H
  00bae	e8 00 00 00 00	 call	 ??2@YAPAXI@Z		; operator new
  00bb3	59		 pop	 ecx
  00bb4	8b c8		 mov	 ecx, eax
  00bb6	89 4d 08	 mov	 DWORD PTR $T529579[ebp], ecx
  00bb9	c7 45 fc 48 00
	00 00		 mov	 DWORD PTR __$EHRec$[ebp+8], 72 ; 00000048H
  00bc0	85 c9		 test	 ecx, ecx
  00bc2	0f 84 fe 16 00
	00		 je	 $LN655@CreateNorm
  00bc8	e8 00 00 00 00	 call	 ??0ioSkipStunBuff@@QAE@XZ ; ioSkipStunBuff::ioSkipStunBuff
  00bcd	e9 f6 16 00 00	 jmp	 $LN656@CreateNorm
$LN145@CreateNorm:

; 370  : 		break;
; 371  : 	case BT_WOUND_COLOR_CHANGE:
; 372  : 		pBuff = new ioWoundColorChangeBuff;

  00bd2	68 74 09 00 00	 push	 2420			; 00000974H
  00bd7	e8 00 00 00 00	 call	 ??2@YAPAXI@Z		; operator new
  00bdc	59		 pop	 ecx
  00bdd	8b c8		 mov	 ecx, eax
  00bdf	89 4d 08	 mov	 DWORD PTR $T529583[ebp], ecx
  00be2	c7 45 fc 49 00
	00 00		 mov	 DWORD PTR __$EHRec$[ebp+8], 73 ; 00000049H
  00be9	85 c9		 test	 ecx, ecx
  00beb	0f 84 d5 16 00
	00		 je	 $LN655@CreateNorm
  00bf1	e8 00 00 00 00	 call	 ??0ioWoundColorChangeBuff@@QAE@XZ ; ioWoundColorChangeBuff::ioWoundColorChangeBuff
  00bf6	e9 cd 16 00 00	 jmp	 $LN656@CreateNorm
$LN144@CreateNorm:

; 373  : 		break;
; 374  : 	case BT_CHANGE_MOVE_SPEED:
; 375  : 		pBuff = new ioChangeMoveSpeedBuff;

  00bfb	68 94 0a 00 00	 push	 2708			; 00000a94H
  00c00	e8 00 00 00 00	 call	 ??2@YAPAXI@Z		; operator new
  00c05	59		 pop	 ecx
  00c06	8b c8		 mov	 ecx, eax
  00c08	89 4d 08	 mov	 DWORD PTR $T529587[ebp], ecx
  00c0b	c7 45 fc 4a 00
	00 00		 mov	 DWORD PTR __$EHRec$[ebp+8], 74 ; 0000004aH
  00c12	85 c9		 test	 ecx, ecx
  00c14	0f 84 ac 16 00
	00		 je	 $LN655@CreateNorm
  00c1a	e8 00 00 00 00	 call	 ??0ioChangeMoveSpeedBuff@@QAE@XZ ; ioChangeMoveSpeedBuff::ioChangeMoveSpeedBuff
  00c1f	e9 a4 16 00 00	 jmp	 $LN656@CreateNorm
$LN143@CreateNorm:

; 376  : 		break;
; 377  : 	case BT_STOP_PASSIVE:
; 378  : 		pBuff = new ioStopPassiveBuff;

  00c24	68 94 09 00 00	 push	 2452			; 00000994H
  00c29	e8 00 00 00 00	 call	 ??2@YAPAXI@Z		; operator new
  00c2e	59		 pop	 ecx
  00c2f	8b c8		 mov	 ecx, eax
  00c31	89 4d 08	 mov	 DWORD PTR $T529591[ebp], ecx
  00c34	c7 45 fc 4b 00
	00 00		 mov	 DWORD PTR __$EHRec$[ebp+8], 75 ; 0000004bH
  00c3b	85 c9		 test	 ecx, ecx
  00c3d	0f 84 83 16 00
	00		 je	 $LN655@CreateNorm
  00c43	e8 00 00 00 00	 call	 ??0ioStopPassiveBuff@@QAE@XZ ; ioStopPassiveBuff::ioStopPassiveBuff
  00c48	e9 7b 16 00 00	 jmp	 $LN656@CreateNorm
$LN142@CreateNorm:

; 379  : 		break;
; 380  : 	case BT_ADD_SPECIAL_GAUGE:
; 381  : 		pBuff = new ioSpecialGaugeBuff;

  00c4d	68 a0 09 00 00	 push	 2464			; 000009a0H
  00c52	e8 00 00 00 00	 call	 ??2@YAPAXI@Z		; operator new
  00c57	59		 pop	 ecx
  00c58	8b c8		 mov	 ecx, eax
  00c5a	89 4d 08	 mov	 DWORD PTR $T529595[ebp], ecx
  00c5d	c7 45 fc 4c 00
	00 00		 mov	 DWORD PTR __$EHRec$[ebp+8], 76 ; 0000004cH
  00c64	85 c9		 test	 ecx, ecx
  00c66	0f 84 5a 16 00
	00		 je	 $LN655@CreateNorm
  00c6c	e8 00 00 00 00	 call	 ??0ioSpecialGaugeBuff@@QAE@XZ ; ioSpecialGaugeBuff::ioSpecialGaugeBuff
  00c71	e9 52 16 00 00	 jmp	 $LN656@CreateNorm
$LN141@CreateNorm:

; 382  : 		break;
; 383  : 	case BT_REFUD_GAUGE:
; 384  : 		pBuff = new ioRefudBuff;

  00c76	68 9c 09 00 00	 push	 2460			; 0000099cH
  00c7b	e8 00 00 00 00	 call	 ??2@YAPAXI@Z		; operator new
  00c80	59		 pop	 ecx
  00c81	8b c8		 mov	 ecx, eax
  00c83	89 4d 08	 mov	 DWORD PTR $T529599[ebp], ecx
  00c86	c7 45 fc 4d 00
	00 00		 mov	 DWORD PTR __$EHRec$[ebp+8], 77 ; 0000004dH
  00c8d	85 c9		 test	 ecx, ecx
  00c8f	0f 84 31 16 00
	00		 je	 $LN655@CreateNorm
  00c95	e8 00 00 00 00	 call	 ??0ioRefudBuff@@QAE@XZ	; ioRefudBuff::ioRefudBuff
  00c9a	e9 29 16 00 00	 jmp	 $LN656@CreateNorm
$LN140@CreateNorm:

; 385  : 		break;
; 386  : 	case BT_PREVENT_DROP_ITEM:
; 387  : 		pBuff = new ioPreventDropItemBuff;

  00c9f	68 70 09 00 00	 push	 2416			; 00000970H
  00ca4	e8 00 00 00 00	 call	 ??2@YAPAXI@Z		; operator new
  00ca9	59		 pop	 ecx
  00caa	8b c8		 mov	 ecx, eax
  00cac	89 4d 08	 mov	 DWORD PTR $T529603[ebp], ecx
  00caf	c7 45 fc 4e 00
	00 00		 mov	 DWORD PTR __$EHRec$[ebp+8], 78 ; 0000004eH
  00cb6	85 c9		 test	 ecx, ecx
  00cb8	0f 84 08 16 00
	00		 je	 $LN655@CreateNorm
  00cbe	e8 00 00 00 00	 call	 ??0ioPreventDropItemBuff@@QAE@XZ ; ioPreventDropItemBuff::ioPreventDropItemBuff
  00cc3	e9 00 16 00 00	 jmp	 $LN656@CreateNorm
$LN139@CreateNorm:

; 388  : 		break;
; 389  : 	case BT_CHANGE_SKIN_COLOR:
; 390  : 		pBuff = new ioChangeSkinColorBuff;

  00cc8	68 d0 09 00 00	 push	 2512			; 000009d0H
  00ccd	e8 00 00 00 00	 call	 ??2@YAPAXI@Z		; operator new
  00cd2	59		 pop	 ecx
  00cd3	8b c8		 mov	 ecx, eax
  00cd5	89 4d 08	 mov	 DWORD PTR $T529607[ebp], ecx
  00cd8	c7 45 fc 4f 00
	00 00		 mov	 DWORD PTR __$EHRec$[ebp+8], 79 ; 0000004fH
  00cdf	85 c9		 test	 ecx, ecx
  00ce1	0f 84 df 15 00
	00		 je	 $LN655@CreateNorm
  00ce7	e8 00 00 00 00	 call	 ??0ioChangeSkinColorBuff@@QAE@XZ ; ioChangeSkinColorBuff::ioChangeSkinColorBuff
  00cec	e9 d7 15 00 00	 jmp	 $LN656@CreateNorm
$LN138@CreateNorm:

; 391  : 		break;
; 392  : 	case BT_ENABLE_WOUND_STUN_STATUE:
; 393  : 		pBuff = new ioEnableWoundStunBuff;

  00cf1	68 94 09 00 00	 push	 2452			; 00000994H
  00cf6	e8 00 00 00 00	 call	 ??2@YAPAXI@Z		; operator new
  00cfb	59		 pop	 ecx
  00cfc	8b c8		 mov	 ecx, eax
  00cfe	89 4d 08	 mov	 DWORD PTR $T529611[ebp], ecx
  00d01	c7 45 fc 50 00
	00 00		 mov	 DWORD PTR __$EHRec$[ebp+8], 80 ; 00000050H
  00d08	85 c9		 test	 ecx, ecx
  00d0a	0f 84 b6 15 00
	00		 je	 $LN655@CreateNorm
  00d10	e8 00 00 00 00	 call	 ??0ioEnableWoundStunBuff@@QAE@XZ ; ioEnableWoundStunBuff::ioEnableWoundStunBuff
  00d15	e9 ae 15 00 00	 jmp	 $LN656@CreateNorm
$LN137@CreateNorm:

; 394  : 		break;
; 395  : 	case BT_PULL_BUFF:
; 396  : 		pBuff = new ioPullBuff;

  00d1a	68 74 0a 00 00	 push	 2676			; 00000a74H
  00d1f	e8 00 00 00 00	 call	 ??2@YAPAXI@Z		; operator new
  00d24	59		 pop	 ecx
  00d25	8b c8		 mov	 ecx, eax
  00d27	89 4d 08	 mov	 DWORD PTR $T529615[ebp], ecx
  00d2a	c7 45 fc 51 00
	00 00		 mov	 DWORD PTR __$EHRec$[ebp+8], 81 ; 00000051H
  00d31	85 c9		 test	 ecx, ecx
  00d33	0f 84 8d 15 00
	00		 je	 $LN655@CreateNorm
  00d39	e8 00 00 00 00	 call	 ??0ioPullBuff@@QAE@XZ	; ioPullBuff::ioPullBuff
  00d3e	e9 85 15 00 00	 jmp	 $LN656@CreateNorm
$LN136@CreateNorm:

; 397  : 		break;
; 398  : 	case BT_CHANGE_SOLDIER:
; 399  : 		pBuff = new ioChangeSoldierBuff;

  00d43	68 84 09 00 00	 push	 2436			; 00000984H
  00d48	e8 00 00 00 00	 call	 ??2@YAPAXI@Z		; operator new
  00d4d	59		 pop	 ecx
  00d4e	8b c8		 mov	 ecx, eax
  00d50	89 4d 08	 mov	 DWORD PTR $T529619[ebp], ecx
  00d53	c7 45 fc 52 00
	00 00		 mov	 DWORD PTR __$EHRec$[ebp+8], 82 ; 00000052H
  00d5a	85 c9		 test	 ecx, ecx
  00d5c	0f 84 64 15 00
	00		 je	 $LN655@CreateNorm
  00d62	e8 00 00 00 00	 call	 ??0ioChangeSoldierBuff@@QAE@XZ ; ioChangeSoldierBuff::ioChangeSoldierBuff
  00d67	e9 5c 15 00 00	 jmp	 $LN656@CreateNorm
$LN135@CreateNorm:

; 400  : 		break;
; 401  : 	case BT_GHOST_STATE:
; 402  : 		pBuff = new ioGhostStateBuff;

  00d6c	68 d4 09 00 00	 push	 2516			; 000009d4H
  00d71	e8 00 00 00 00	 call	 ??2@YAPAXI@Z		; operator new
  00d76	59		 pop	 ecx
  00d77	8b c8		 mov	 ecx, eax
  00d79	89 4d 08	 mov	 DWORD PTR $T529623[ebp], ecx
  00d7c	c7 45 fc 53 00
	00 00		 mov	 DWORD PTR __$EHRec$[ebp+8], 83 ; 00000053H
  00d83	85 c9		 test	 ecx, ecx
  00d85	0f 84 3b 15 00
	00		 je	 $LN655@CreateNorm
  00d8b	e8 00 00 00 00	 call	 ??0ioGhostStateBuff@@QAE@XZ ; ioGhostStateBuff::ioGhostStateBuff
  00d90	e9 33 15 00 00	 jmp	 $LN656@CreateNorm
$LN134@CreateNorm:

; 403  : 		break;
; 404  : 	case BT_CALL_BY_STATE:
; 405  : 		pBuff = new ioCallByStateBuff;

  00d95	68 78 09 00 00	 push	 2424			; 00000978H
  00d9a	e8 00 00 00 00	 call	 ??2@YAPAXI@Z		; operator new
  00d9f	59		 pop	 ecx
  00da0	8b c8		 mov	 ecx, eax
  00da2	89 4d 08	 mov	 DWORD PTR $T529627[ebp], ecx
  00da5	c7 45 fc 54 00
	00 00		 mov	 DWORD PTR __$EHRec$[ebp+8], 84 ; 00000054H
  00dac	85 c9		 test	 ecx, ecx
  00dae	0f 84 12 15 00
	00		 je	 $LN655@CreateNorm
  00db4	e8 00 00 00 00	 call	 ??0ioCallByStateBuff@@QAE@XZ ; ioCallByStateBuff::ioCallByStateBuff
  00db9	e9 0a 15 00 00	 jmp	 $LN656@CreateNorm
$LN133@CreateNorm:

; 406  : 		break;
; 407  : 	case BT_WITCH_FLY_STATE:
; 408  : 		pBuff = new ioWitchFlyBuff;

  00dbe	68 5c 0a 00 00	 push	 2652			; 00000a5cH
  00dc3	e8 00 00 00 00	 call	 ??2@YAPAXI@Z		; operator new
  00dc8	59		 pop	 ecx
  00dc9	8b c8		 mov	 ecx, eax
  00dcb	89 4d 08	 mov	 DWORD PTR $T529631[ebp], ecx
  00dce	c7 45 fc 55 00
	00 00		 mov	 DWORD PTR __$EHRec$[ebp+8], 85 ; 00000055H
  00dd5	85 c9		 test	 ecx, ecx
  00dd7	0f 84 e9 14 00
	00		 je	 $LN655@CreateNorm
  00ddd	e8 00 00 00 00	 call	 ??0ioWitchFlyBuff@@QAE@XZ ; ioWitchFlyBuff::ioWitchFlyBuff
  00de2	e9 e1 14 00 00	 jmp	 $LN656@CreateNorm
$LN132@CreateNorm:

; 409  : 		break;
; 410  : 	case BT_RANDOM_MOVE:
; 411  : 		pBuff = new ioRandomMoveBuff;

  00de7	68 2c 0a 00 00	 push	 2604			; 00000a2cH
  00dec	e8 00 00 00 00	 call	 ??2@YAPAXI@Z		; operator new
  00df1	59		 pop	 ecx
  00df2	8b c8		 mov	 ecx, eax
  00df4	89 4d 08	 mov	 DWORD PTR $T529635[ebp], ecx
  00df7	c7 45 fc 56 00
	00 00		 mov	 DWORD PTR __$EHRec$[ebp+8], 86 ; 00000056H
  00dfe	85 c9		 test	 ecx, ecx
  00e00	0f 84 c0 14 00
	00		 je	 $LN655@CreateNorm
  00e06	e8 00 00 00 00	 call	 ??0ioRandomMoveBuff@@QAE@XZ ; ioRandomMoveBuff::ioRandomMoveBuff
  00e0b	e9 b8 14 00 00	 jmp	 $LN656@CreateNorm
$LN131@CreateNorm:

; 412  : 		break;
; 413  : 	case BT_TELEPORT_ON_END_BUFF:
; 414  : 		pBuff = new ioTeleportOnEndBuff;

  00e10	68 84 0a 00 00	 push	 2692			; 00000a84H
  00e15	e8 00 00 00 00	 call	 ??2@YAPAXI@Z		; operator new
  00e1a	59		 pop	 ecx
  00e1b	8b c8		 mov	 ecx, eax
  00e1d	89 4d 08	 mov	 DWORD PTR $T529639[ebp], ecx
  00e20	c7 45 fc 57 00
	00 00		 mov	 DWORD PTR __$EHRec$[ebp+8], 87 ; 00000057H
  00e27	85 c9		 test	 ecx, ecx
  00e29	0f 84 97 14 00
	00		 je	 $LN655@CreateNorm
  00e2f	e8 00 00 00 00	 call	 ??0ioTeleportOnEndBuff@@QAE@XZ ; ioTeleportOnEndBuff::ioTeleportOnEndBuff
  00e34	e9 8f 14 00 00	 jmp	 $LN656@CreateNorm
$LN130@CreateNorm:

; 415  : 		break;
; 416  : 	case BT_AUTO_FIRE:
; 417  : 		pBuff = new ioAutoFireBuff;

  00e39	68 a4 09 00 00	 push	 2468			; 000009a4H
  00e3e	e8 00 00 00 00	 call	 ??2@YAPAXI@Z		; operator new
  00e43	59		 pop	 ecx
  00e44	8b c8		 mov	 ecx, eax
  00e46	89 4d 08	 mov	 DWORD PTR $T529643[ebp], ecx
  00e49	c7 45 fc 58 00
	00 00		 mov	 DWORD PTR __$EHRec$[ebp+8], 88 ; 00000058H
  00e50	85 c9		 test	 ecx, ecx
  00e52	0f 84 6e 14 00
	00		 je	 $LN655@CreateNorm
  00e58	e8 00 00 00 00	 call	 ??0ioAutoFireBuff@@QAE@XZ ; ioAutoFireBuff::ioAutoFireBuff
  00e5d	e9 66 14 00 00	 jmp	 $LN656@CreateNorm
$LN129@CreateNorm:

; 418  : 		break;
; 419  : 	case BT_CHANGE_MESH:
; 420  : 		pBuff = new ioChangeMeshBuff;

  00e62	68 24 0a 00 00	 push	 2596			; 00000a24H
  00e67	e8 00 00 00 00	 call	 ??2@YAPAXI@Z		; operator new
  00e6c	59		 pop	 ecx
  00e6d	8b c8		 mov	 ecx, eax
  00e6f	89 4d 08	 mov	 DWORD PTR $T529647[ebp], ecx
  00e72	c7 45 fc 59 00
	00 00		 mov	 DWORD PTR __$EHRec$[ebp+8], 89 ; 00000059H
  00e79	85 c9		 test	 ecx, ecx
  00e7b	0f 84 45 14 00
	00		 je	 $LN655@CreateNorm
  00e81	e8 00 00 00 00	 call	 ??0ioChangeMeshBuff@@QAE@XZ ; ioChangeMeshBuff::ioChangeMeshBuff
  00e86	e9 3d 14 00 00	 jmp	 $LN656@CreateNorm
$LN128@CreateNorm:

; 421  : 		break;
; 422  : 	case BT_DEFENSE_DAMAGE:
; 423  : 		pBuff = new ioDefenseDamageBuff;

  00e8b	68 bc 09 00 00	 push	 2492			; 000009bcH
  00e90	e8 00 00 00 00	 call	 ??2@YAPAXI@Z		; operator new
  00e95	59		 pop	 ecx
  00e96	8b c8		 mov	 ecx, eax
  00e98	89 4d 08	 mov	 DWORD PTR $T529651[ebp], ecx
  00e9b	c7 45 fc 5a 00
	00 00		 mov	 DWORD PTR __$EHRec$[ebp+8], 90 ; 0000005aH
  00ea2	85 c9		 test	 ecx, ecx
  00ea4	0f 84 1c 14 00
	00		 je	 $LN655@CreateNorm
  00eaa	e8 00 00 00 00	 call	 ??0ioDefenseDamageBuff@@QAE@XZ ; ioDefenseDamageBuff::ioDefenseDamageBuff
  00eaf	e9 14 14 00 00	 jmp	 $LN656@CreateNorm
$LN127@CreateNorm:

; 424  : 		break;
; 425  : 	case BT_ADHESIVE_STATE:
; 426  : 		pBuff = new ioAdhesiveBuff;

  00eb4	68 b0 0a 00 00	 push	 2736			; 00000ab0H
  00eb9	e8 00 00 00 00	 call	 ??2@YAPAXI@Z		; operator new
  00ebe	59		 pop	 ecx
  00ebf	8b c8		 mov	 ecx, eax
  00ec1	89 4d 08	 mov	 DWORD PTR $T529655[ebp], ecx
  00ec4	c7 45 fc 5b 00
	00 00		 mov	 DWORD PTR __$EHRec$[ebp+8], 91 ; 0000005bH
  00ecb	85 c9		 test	 ecx, ecx
  00ecd	0f 84 f3 13 00
	00		 je	 $LN655@CreateNorm
  00ed3	e8 00 00 00 00	 call	 ??0ioAdhesiveBuff@@QAE@XZ ; ioAdhesiveBuff::ioAdhesiveBuff
  00ed8	e9 eb 13 00 00	 jmp	 $LN656@CreateNorm
$LN126@CreateNorm:

; 427  : 		break;
; 428  : 	case BT_SEAL_SKILL:
; 429  : 		pBuff = new ioSealSkillBuff;

  00edd	68 44 0a 00 00	 push	 2628			; 00000a44H
  00ee2	e8 00 00 00 00	 call	 ??2@YAPAXI@Z		; operator new
  00ee7	59		 pop	 ecx
  00ee8	8b c8		 mov	 ecx, eax
  00eea	89 4d 08	 mov	 DWORD PTR $T529659[ebp], ecx
  00eed	c7 45 fc 5c 00
	00 00		 mov	 DWORD PTR __$EHRec$[ebp+8], 92 ; 0000005cH
  00ef4	85 c9		 test	 ecx, ecx
  00ef6	0f 84 ca 13 00
	00		 je	 $LN655@CreateNorm
  00efc	e8 00 00 00 00	 call	 ??0ioSealSkillBuff@@QAE@XZ ; ioSealSkillBuff::ioSealSkillBuff
  00f01	e9 c2 13 00 00	 jmp	 $LN656@CreateNorm
$LN125@CreateNorm:

; 430  : 		break;
; 431  : 	case BT_CALL_BUFF_ON_ATTACK:
; 432  : 		pBuff = new ioCallBuffOnAttackBuff;

  00f06	68 80 09 00 00	 push	 2432			; 00000980H
  00f0b	e8 00 00 00 00	 call	 ??2@YAPAXI@Z		; operator new
  00f10	59		 pop	 ecx
  00f11	8b c8		 mov	 ecx, eax
  00f13	89 4d 08	 mov	 DWORD PTR $T529663[ebp], ecx
  00f16	c7 45 fc 5d 00
	00 00		 mov	 DWORD PTR __$EHRec$[ebp+8], 93 ; 0000005dH
  00f1d	85 c9		 test	 ecx, ecx
  00f1f	0f 84 a1 13 00
	00		 je	 $LN655@CreateNorm
  00f25	e8 00 00 00 00	 call	 ??0ioCallBuffOnAttackBuff@@QAE@XZ ; ioCallBuffOnAttackBuff::ioCallBuffOnAttackBuff
  00f2a	e9 99 13 00 00	 jmp	 $LN656@CreateNorm
$LN124@CreateNorm:

; 433  : 		break;
; 434  : 	case BT_MAGIC_STUN:
; 435  : 		pBuff = new ioMagicStunBuff;

  00f2f	68 00 0b 00 00	 push	 2816			; 00000b00H
  00f34	e8 00 00 00 00	 call	 ??2@YAPAXI@Z		; operator new
  00f39	59		 pop	 ecx
  00f3a	8b c8		 mov	 ecx, eax
  00f3c	89 4d 08	 mov	 DWORD PTR $T529667[ebp], ecx
  00f3f	c7 45 fc 5e 00
	00 00		 mov	 DWORD PTR __$EHRec$[ebp+8], 94 ; 0000005eH
  00f46	85 c9		 test	 ecx, ecx
  00f48	0f 84 78 13 00
	00		 je	 $LN655@CreateNorm
  00f4e	e8 00 00 00 00	 call	 ??0ioMagicStunBuff@@QAE@XZ ; ioMagicStunBuff::ioMagicStunBuff
  00f53	e9 70 13 00 00	 jmp	 $LN656@CreateNorm
$LN123@CreateNorm:

; 436  : 		break;
; 437  : 	case BT_SPEED_ACCUMLATE:
; 438  : 		pBuff = new ioSpeedAccumlateBuff;

  00f58	68 64 0a 00 00	 push	 2660			; 00000a64H
  00f5d	e8 00 00 00 00	 call	 ??2@YAPAXI@Z		; operator new
  00f62	59		 pop	 ecx
  00f63	8b c8		 mov	 ecx, eax
  00f65	89 4d 08	 mov	 DWORD PTR $T529671[ebp], ecx
  00f68	c7 45 fc 5f 00
	00 00		 mov	 DWORD PTR __$EHRec$[ebp+8], 95 ; 0000005fH
  00f6f	85 c9		 test	 ecx, ecx
  00f71	0f 84 4f 13 00
	00		 je	 $LN655@CreateNorm
  00f77	e8 00 00 00 00	 call	 ??0ioSpeedAccumlateBuff@@QAE@XZ ; ioSpeedAccumlateBuff::ioSpeedAccumlateBuff
  00f7c	e9 47 13 00 00	 jmp	 $LN656@CreateNorm
$LN122@CreateNorm:

; 439  : 		break;
; 440  : 	case BT_CONTROL_WEAPON:
; 441  : 		pBuff = new ioControlWeaponBuff;

  00f81	68 64 0a 00 00	 push	 2660			; 00000a64H
  00f86	e8 00 00 00 00	 call	 ??2@YAPAXI@Z		; operator new
  00f8b	59		 pop	 ecx
  00f8c	8b c8		 mov	 ecx, eax
  00f8e	89 4d 08	 mov	 DWORD PTR $T529675[ebp], ecx
  00f91	c7 45 fc 60 00
	00 00		 mov	 DWORD PTR __$EHRec$[ebp+8], 96 ; 00000060H
  00f98	85 c9		 test	 ecx, ecx
  00f9a	0f 84 26 13 00
	00		 je	 $LN655@CreateNorm
  00fa0	e8 00 00 00 00	 call	 ??0ioControlWeaponBuff@@QAE@XZ ; ioControlWeaponBuff::ioControlWeaponBuff
  00fa5	e9 1e 13 00 00	 jmp	 $LN656@CreateNorm
$LN121@CreateNorm:

; 442  : 		break;
; 443  : 	case BT_WALL_COLLISION:
; 444  : 		pBuff = new ioWallCollisionBuff;

  00faa	68 7c 09 00 00	 push	 2428			; 0000097cH
  00faf	e8 00 00 00 00	 call	 ??2@YAPAXI@Z		; operator new
  00fb4	59		 pop	 ecx
  00fb5	8b c8		 mov	 ecx, eax
  00fb7	89 4d 08	 mov	 DWORD PTR $T529679[ebp], ecx
  00fba	c7 45 fc 61 00
	00 00		 mov	 DWORD PTR __$EHRec$[ebp+8], 97 ; 00000061H
  00fc1	85 c9		 test	 ecx, ecx
  00fc3	0f 84 fd 12 00
	00		 je	 $LN655@CreateNorm
  00fc9	e8 00 00 00 00	 call	 ??0ioWallCollisionBuff@@QAE@XZ ; ioWallCollisionBuff::ioWallCollisionBuff
  00fce	e9 f5 12 00 00	 jmp	 $LN656@CreateNorm
$LN120@CreateNorm:

; 445  : 		break;
; 446  : 	case BT_DEFENSE_DAMAGE2:
; 447  : 		pBuff = new ioDefenseDamageBuff2;

  00fd3	68 f8 09 00 00	 push	 2552			; 000009f8H
  00fd8	e8 00 00 00 00	 call	 ??2@YAPAXI@Z		; operator new
  00fdd	59		 pop	 ecx
  00fde	8b c8		 mov	 ecx, eax
  00fe0	89 4d 08	 mov	 DWORD PTR $T529683[ebp], ecx
  00fe3	c7 45 fc 62 00
	00 00		 mov	 DWORD PTR __$EHRec$[ebp+8], 98 ; 00000062H
  00fea	85 c9		 test	 ecx, ecx
  00fec	0f 84 d4 12 00
	00		 je	 $LN655@CreateNorm
  00ff2	e8 00 00 00 00	 call	 ??0ioDefenseDamageBuff2@@QAE@XZ ; ioDefenseDamageBuff2::ioDefenseDamageBuff2
  00ff7	e9 cc 12 00 00	 jmp	 $LN656@CreateNorm
$LN119@CreateNorm:

; 448  : 		break;
; 449  : 	case BT_ACTIVE_COUNT:
; 450  : 		pBuff = new ioActiveCountBuff;

  00ffc	68 cc 09 00 00	 push	 2508			; 000009ccH
  01001	e8 00 00 00 00	 call	 ??2@YAPAXI@Z		; operator new
  01006	59		 pop	 ecx
  01007	8b c8		 mov	 ecx, eax
  01009	89 4d 08	 mov	 DWORD PTR $T529687[ebp], ecx
  0100c	c7 45 fc 63 00
	00 00		 mov	 DWORD PTR __$EHRec$[ebp+8], 99 ; 00000063H
  01013	85 c9		 test	 ecx, ecx
  01015	0f 84 ab 12 00
	00		 je	 $LN655@CreateNorm
  0101b	e8 00 00 00 00	 call	 ??0ioActiveCountBuff@@QAE@XZ ; ioActiveCountBuff::ioActiveCountBuff
  01020	e9 a3 12 00 00	 jmp	 $LN656@CreateNorm
$LN118@CreateNorm:

; 451  : 		break;
; 452  : 	case BT_INFECTION:
; 453  : 		pBuff = new ioInfectionBuff;

  01025	68 d0 09 00 00	 push	 2512			; 000009d0H
  0102a	e8 00 00 00 00	 call	 ??2@YAPAXI@Z		; operator new
  0102f	59		 pop	 ecx
  01030	8b c8		 mov	 ecx, eax
  01032	89 4d 08	 mov	 DWORD PTR $T529691[ebp], ecx
  01035	c7 45 fc 64 00
	00 00		 mov	 DWORD PTR __$EHRec$[ebp+8], 100 ; 00000064H
  0103c	85 c9		 test	 ecx, ecx
  0103e	0f 84 82 12 00
	00		 je	 $LN655@CreateNorm
  01044	e8 00 00 00 00	 call	 ??0ioInfectionBuff@@QAE@XZ ; ioInfectionBuff::ioInfectionBuff
  01049	e9 7a 12 00 00	 jmp	 $LN656@CreateNorm
$LN117@CreateNorm:

; 454  : 		break;
; 455  : 	case BT_TARGET_EQUIP_OBJECTITEM:
; 456  : 		pBuff = new ioTargetEquipObjectItemBuff;

  0104e	68 8c 09 00 00	 push	 2444			; 0000098cH
  01053	e8 00 00 00 00	 call	 ??2@YAPAXI@Z		; operator new
  01058	59		 pop	 ecx
  01059	8b c8		 mov	 ecx, eax
  0105b	89 4d 08	 mov	 DWORD PTR $T529695[ebp], ecx
  0105e	c7 45 fc 65 00
	00 00		 mov	 DWORD PTR __$EHRec$[ebp+8], 101 ; 00000065H
  01065	85 c9		 test	 ecx, ecx
  01067	0f 84 59 12 00
	00		 je	 $LN655@CreateNorm
  0106d	e8 00 00 00 00	 call	 ??0ioTargetEquipObjectItemBuff@@QAE@XZ ; ioTargetEquipObjectItemBuff::ioTargetEquipObjectItemBuff
  01072	e9 51 12 00 00	 jmp	 $LN656@CreateNorm
$LN116@CreateNorm:

; 457  : 		break;
; 458  : 	case BT_CHANGE_TEAM:
; 459  : 		pBuff = new ioChangeTeamBuff;

  01077	68 78 09 00 00	 push	 2424			; 00000978H
  0107c	e8 00 00 00 00	 call	 ??2@YAPAXI@Z		; operator new
  01081	59		 pop	 ecx
  01082	8b c8		 mov	 ecx, eax
  01084	89 4d 08	 mov	 DWORD PTR $T529699[ebp], ecx
  01087	c7 45 fc 66 00
	00 00		 mov	 DWORD PTR __$EHRec$[ebp+8], 102 ; 00000066H
  0108e	85 c9		 test	 ecx, ecx
  01090	0f 84 30 12 00
	00		 je	 $LN655@CreateNorm
  01096	e8 00 00 00 00	 call	 ??0ioChangeTeamBuff@@QAE@XZ ; ioChangeTeamBuff::ioChangeTeamBuff
  0109b	e9 28 12 00 00	 jmp	 $LN656@CreateNorm
$LN115@CreateNorm:

; 460  : 		break;
; 461  : 	case BT_SCREEN_BLIND2:
; 462  : 		pBuff = new ioScreenBlindBuff2;

  010a0	68 b4 09 00 00	 push	 2484			; 000009b4H
  010a5	e8 00 00 00 00	 call	 ??2@YAPAXI@Z		; operator new
  010aa	59		 pop	 ecx
  010ab	8b c8		 mov	 ecx, eax
  010ad	89 4d 08	 mov	 DWORD PTR $T529703[ebp], ecx
  010b0	c7 45 fc 67 00
	00 00		 mov	 DWORD PTR __$EHRec$[ebp+8], 103 ; 00000067H
  010b7	85 c9		 test	 ecx, ecx
  010b9	0f 84 07 12 00
	00		 je	 $LN655@CreateNorm
  010bf	e8 00 00 00 00	 call	 ??0ioScreenBlindBuff2@@QAE@XZ ; ioScreenBlindBuff2::ioScreenBlindBuff2
  010c4	e9 ff 11 00 00	 jmp	 $LN656@CreateNorm
$LN114@CreateNorm:

; 463  : 		break;
; 464  : 	case BT_TRACE_MINE_STATE:
; 465  : 		pBuff = new ioTraceMineStateBuff;

  010c9	68 e0 09 00 00	 push	 2528			; 000009e0H
  010ce	e8 00 00 00 00	 call	 ??2@YAPAXI@Z		; operator new
  010d3	59		 pop	 ecx
  010d4	8b c8		 mov	 ecx, eax
  010d6	89 4d 08	 mov	 DWORD PTR $T529707[ebp], ecx
  010d9	c7 45 fc 68 00
	00 00		 mov	 DWORD PTR __$EHRec$[ebp+8], 104 ; 00000068H
  010e0	85 c9		 test	 ecx, ecx
  010e2	0f 84 de 11 00
	00		 je	 $LN655@CreateNorm
  010e8	e8 00 00 00 00	 call	 ??0ioTraceMineStateBuff@@QAE@XZ ; ioTraceMineStateBuff::ioTraceMineStateBuff
  010ed	e9 d6 11 00 00	 jmp	 $LN656@CreateNorm
$LN113@CreateNorm:

; 466  : 		break;
; 467  : 	case BT_GAUGE_STEAL2:
; 468  : 		pBuff = new ioGaugeStealBuff2;

  010f2	68 ec 0a 00 00	 push	 2796			; 00000aecH
  010f7	e8 00 00 00 00	 call	 ??2@YAPAXI@Z		; operator new
  010fc	59		 pop	 ecx
  010fd	8b c8		 mov	 ecx, eax
  010ff	89 4d 08	 mov	 DWORD PTR $T529711[ebp], ecx
  01102	c7 45 fc 69 00
	00 00		 mov	 DWORD PTR __$EHRec$[ebp+8], 105 ; 00000069H
  01109	85 c9		 test	 ecx, ecx
  0110b	0f 84 b5 11 00
	00		 je	 $LN655@CreateNorm
  01111	e8 00 00 00 00	 call	 ??0ioGaugeStealBuff2@@QAE@XZ ; ioGaugeStealBuff2::ioGaugeStealBuff2
  01116	e9 ad 11 00 00	 jmp	 $LN656@CreateNorm
$LN112@CreateNorm:

; 469  : 		break;
; 470  : 	case BT_RESTORATION_GAUGE2:
; 471  : 		pBuff = new ioRestorationGaugeBuff2;

  0111b	68 9c 09 00 00	 push	 2460			; 0000099cH
  01120	e8 00 00 00 00	 call	 ??2@YAPAXI@Z		; operator new
  01125	59		 pop	 ecx
  01126	8b c8		 mov	 ecx, eax
  01128	89 4d 08	 mov	 DWORD PTR $T529715[ebp], ecx
  0112b	c7 45 fc 6a 00
	00 00		 mov	 DWORD PTR __$EHRec$[ebp+8], 106 ; 0000006aH
  01132	85 c9		 test	 ecx, ecx
  01134	0f 84 8c 11 00
	00		 je	 $LN655@CreateNorm
  0113a	e8 00 00 00 00	 call	 ??0ioRestorationGaugeBuff2@@QAE@XZ ; ioRestorationGaugeBuff2::ioRestorationGaugeBuff2
  0113f	e9 84 11 00 00	 jmp	 $LN656@CreateNorm
$LN111@CreateNorm:

; 472  : 		break;
; 473  : 	case BT_DISABLE_RECOVERY_SKILL_GAUGE:
; 474  : 		pBuff = new ioDisableRecoverySkillGaugeBuff;

  01144	68 b0 09 00 00	 push	 2480			; 000009b0H
  01149	e8 00 00 00 00	 call	 ??2@YAPAXI@Z		; operator new
  0114e	59		 pop	 ecx
  0114f	8b c8		 mov	 ecx, eax
  01151	89 4d 08	 mov	 DWORD PTR $T529719[ebp], ecx
  01154	c7 45 fc 6b 00
	00 00		 mov	 DWORD PTR __$EHRec$[ebp+8], 107 ; 0000006bH
  0115b	85 c9		 test	 ecx, ecx
  0115d	0f 84 63 11 00
	00		 je	 $LN655@CreateNorm
  01163	e8 00 00 00 00	 call	 ??0ioDisableRecoverySkillGaugeBuff@@QAE@XZ ; ioDisableRecoverySkillGaugeBuff::ioDisableRecoverySkillGaugeBuff
  01168	e9 5b 11 00 00	 jmp	 $LN656@CreateNorm
$LN110@CreateNorm:

; 475  : 		break;
; 476  : 	case BT_HIDE2:
; 477  : 		pBuff = new ioHide2Buff;

  0116d	68 80 09 00 00	 push	 2432			; 00000980H
  01172	e8 00 00 00 00	 call	 ??2@YAPAXI@Z		; operator new
  01177	59		 pop	 ecx
  01178	8b c8		 mov	 ecx, eax
  0117a	89 4d 08	 mov	 DWORD PTR $T529723[ebp], ecx
  0117d	c7 45 fc 6c 00
	00 00		 mov	 DWORD PTR __$EHRec$[ebp+8], 108 ; 0000006cH
  01184	85 c9		 test	 ecx, ecx
  01186	0f 84 3a 11 00
	00		 je	 $LN655@CreateNorm
  0118c	e8 00 00 00 00	 call	 ??0ioHide2Buff@@QAE@XZ	; ioHide2Buff::ioHide2Buff
  01191	e9 32 11 00 00	 jmp	 $LN656@CreateNorm
$LN109@CreateNorm:

; 478  : 		break;
; 479  : 	case BT_HIT_COUNT_HOLD:
; 480  : 		pBuff = new ioHitCountHoldBuff;

  01196	68 58 0a 00 00	 push	 2648			; 00000a58H
  0119b	e8 00 00 00 00	 call	 ??2@YAPAXI@Z		; operator new
  011a0	59		 pop	 ecx
  011a1	8b c8		 mov	 ecx, eax
  011a3	89 4d 08	 mov	 DWORD PTR $T529727[ebp], ecx
  011a6	c7 45 fc 6d 00
	00 00		 mov	 DWORD PTR __$EHRec$[ebp+8], 109 ; 0000006dH
  011ad	85 c9		 test	 ecx, ecx
  011af	0f 84 11 11 00
	00		 je	 $LN655@CreateNorm
  011b5	e8 00 00 00 00	 call	 ??0ioHitCountHoldBuff@@QAE@XZ ; ioHitCountHoldBuff::ioHitCountHoldBuff
  011ba	e9 09 11 00 00	 jmp	 $LN656@CreateNorm
$LN108@CreateNorm:

; 481  : 		break;
; 482  : 	case BT_CREATE_WEAPON:
; 483  : 		pBuff = new ioCreateWeaponBuff;

  011bf	68 68 0a 00 00	 push	 2664			; 00000a68H
  011c4	e8 00 00 00 00	 call	 ??2@YAPAXI@Z		; operator new
  011c9	59		 pop	 ecx
  011ca	8b c8		 mov	 ecx, eax
  011cc	89 4d 08	 mov	 DWORD PTR $T529731[ebp], ecx
  011cf	c7 45 fc 6e 00
	00 00		 mov	 DWORD PTR __$EHRec$[ebp+8], 110 ; 0000006eH
  011d6	85 c9		 test	 ecx, ecx
  011d8	0f 84 e8 10 00
	00		 je	 $LN655@CreateNorm
  011de	e8 00 00 00 00	 call	 ??0ioCreateWeaponBuff@@QAE@XZ ; ioCreateWeaponBuff::ioCreateWeaponBuff
  011e3	e9 e0 10 00 00	 jmp	 $LN656@CreateNorm
$LN107@CreateNorm:

; 484  : 		break;
; 485  : 	case BT_AFFECT_WOUNDED_VALUE:
; 486  : 		pBuff = new ioAffectWoundedValueBuff;

  011e8	68 60 0a 00 00	 push	 2656			; 00000a60H
  011ed	e8 00 00 00 00	 call	 ??2@YAPAXI@Z		; operator new
  011f2	59		 pop	 ecx
  011f3	8b c8		 mov	 ecx, eax
  011f5	89 4d 08	 mov	 DWORD PTR $T529735[ebp], ecx
  011f8	c7 45 fc 6f 00
	00 00		 mov	 DWORD PTR __$EHRec$[ebp+8], 111 ; 0000006fH
  011ff	85 c9		 test	 ecx, ecx
  01201	0f 84 bf 10 00
	00		 je	 $LN655@CreateNorm
  01207	e8 00 00 00 00	 call	 ??0ioAffectWoundedValueBuff@@QAE@XZ ; ioAffectWoundedValueBuff::ioAffectWoundedValueBuff
  0120c	e9 b7 10 00 00	 jmp	 $LN656@CreateNorm
$LN106@CreateNorm:

; 487  : 		break;
; 488  : 	case BT_EXTRA_CALL:
; 489  : 		pBuff = new ioExtraCallBuff;

  01211	68 c8 0a 00 00	 push	 2760			; 00000ac8H
  01216	e8 00 00 00 00	 call	 ??2@YAPAXI@Z		; operator new
  0121b	59		 pop	 ecx
  0121c	8b c8		 mov	 ecx, eax
  0121e	89 4d 08	 mov	 DWORD PTR $T529739[ebp], ecx
  01221	c7 45 fc 70 00
	00 00		 mov	 DWORD PTR __$EHRec$[ebp+8], 112 ; 00000070H
  01228	85 c9		 test	 ecx, ecx
  0122a	0f 84 96 10 00
	00		 je	 $LN655@CreateNorm
  01230	e8 00 00 00 00	 call	 ??0ioExtraCallBuff@@QAE@XZ ; ioExtraCallBuff::ioExtraCallBuff
  01235	e9 8e 10 00 00	 jmp	 $LN656@CreateNorm
$LN105@CreateNorm:

; 490  : 		break;
; 491  : 	case BT_CALL_BY_NPC:
; 492  : 		pBuff = new ioCallByNpcBuff;

  0123a	68 8c 09 00 00	 push	 2444			; 0000098cH
  0123f	e8 00 00 00 00	 call	 ??2@YAPAXI@Z		; operator new
  01244	59		 pop	 ecx
  01245	8b c8		 mov	 ecx, eax
  01247	89 4d 08	 mov	 DWORD PTR $T529743[ebp], ecx
  0124a	c7 45 fc 71 00
	00 00		 mov	 DWORD PTR __$EHRec$[ebp+8], 113 ; 00000071H
  01251	85 c9		 test	 ecx, ecx
  01253	0f 84 6d 10 00
	00		 je	 $LN655@CreateNorm
  01259	e8 00 00 00 00	 call	 ??0ioCallByNpcBuff@@QAE@XZ ; ioCallByNpcBuff::ioCallByNpcBuff
  0125e	e9 65 10 00 00	 jmp	 $LN656@CreateNorm
$LN104@CreateNorm:

; 493  : 		break;
; 494  : 	case BT_CREATE_DUMMY_CHAR:
; 495  : 		pBuff = new ioCreateDummyCharBuff;

  01263	68 dc 09 00 00	 push	 2524			; 000009dcH
  01268	e8 00 00 00 00	 call	 ??2@YAPAXI@Z		; operator new
  0126d	59		 pop	 ecx
  0126e	8b c8		 mov	 ecx, eax
  01270	89 4d 08	 mov	 DWORD PTR $T529747[ebp], ecx
  01273	c7 45 fc 72 00
	00 00		 mov	 DWORD PTR __$EHRec$[ebp+8], 114 ; 00000072H
  0127a	85 c9		 test	 ecx, ecx
  0127c	0f 84 44 10 00
	00		 je	 $LN655@CreateNorm
  01282	e8 00 00 00 00	 call	 ??0ioCreateDummyCharBuff@@QAE@XZ ; ioCreateDummyCharBuff::ioCreateDummyCharBuff
  01287	e9 3c 10 00 00	 jmp	 $LN656@CreateNorm
$LN103@CreateNorm:

; 496  : 		break;
; 497  : 	case BT_GRAPPLING_PUSH:
; 498  : 		pBuff = new ioGrapplingPushBuff;

  0128c	68 d8 09 00 00	 push	 2520			; 000009d8H
  01291	e8 00 00 00 00	 call	 ??2@YAPAXI@Z		; operator new
  01296	59		 pop	 ecx
  01297	8b c8		 mov	 ecx, eax
  01299	89 4d 08	 mov	 DWORD PTR $T529751[ebp], ecx
  0129c	c7 45 fc 73 00
	00 00		 mov	 DWORD PTR __$EHRec$[ebp+8], 115 ; 00000073H
  012a3	85 c9		 test	 ecx, ecx
  012a5	0f 84 1b 10 00
	00		 je	 $LN655@CreateNorm
  012ab	e8 00 00 00 00	 call	 ??0ioGrapplingPushBuff@@QAE@XZ ; ioGrapplingPushBuff::ioGrapplingPushBuff
  012b0	e9 13 10 00 00	 jmp	 $LN656@CreateNorm
$LN102@CreateNorm:

; 499  : 		break;
; 500  : 	case BT_MAGNETIC:
; 501  : 		pBuff = new ioMagneticBuff;

  012b5	68 90 0b 00 00	 push	 2960			; 00000b90H
  012ba	e8 00 00 00 00	 call	 ??2@YAPAXI@Z		; operator new
  012bf	59		 pop	 ecx
  012c0	8b c8		 mov	 ecx, eax
  012c2	89 4d 08	 mov	 DWORD PTR $T529755[ebp], ecx
  012c5	c7 45 fc 74 00
	00 00		 mov	 DWORD PTR __$EHRec$[ebp+8], 116 ; 00000074H
  012cc	85 c9		 test	 ecx, ecx
  012ce	0f 84 f2 0f 00
	00		 je	 $LN655@CreateNorm
  012d4	e8 00 00 00 00	 call	 ??0ioMagneticBuff@@QAE@XZ ; ioMagneticBuff::ioMagneticBuff
  012d9	e9 ea 0f 00 00	 jmp	 $LN656@CreateNorm
$LN101@CreateNorm:

; 502  : 		break;
; 503  : 	case BT_CREATE_DUMMY_CHAR2:
; 504  : 		pBuff = new ioCreateDummyChar2Buff;

  012de	68 e0 09 00 00	 push	 2528			; 000009e0H
  012e3	e8 00 00 00 00	 call	 ??2@YAPAXI@Z		; operator new
  012e8	59		 pop	 ecx
  012e9	8b c8		 mov	 ecx, eax
  012eb	89 4d 08	 mov	 DWORD PTR $T529759[ebp], ecx
  012ee	c7 45 fc 75 00
	00 00		 mov	 DWORD PTR __$EHRec$[ebp+8], 117 ; 00000075H
  012f5	85 c9		 test	 ecx, ecx
  012f7	0f 84 c9 0f 00
	00		 je	 $LN655@CreateNorm
  012fd	e8 00 00 00 00	 call	 ??0ioCreateDummyChar2Buff@@QAE@XZ ; ioCreateDummyChar2Buff::ioCreateDummyChar2Buff
  01302	e9 c1 0f 00 00	 jmp	 $LN656@CreateNorm
$LN100@CreateNorm:

; 505  : 		break;
; 506  : 	case BT_WEAPON_ATTACH:
; 507  : 		pBuff = new ioWeaponAttachBuff;

  01307	68 cc 09 00 00	 push	 2508			; 000009ccH
  0130c	e8 00 00 00 00	 call	 ??2@YAPAXI@Z		; operator new
  01311	59		 pop	 ecx
  01312	8b c8		 mov	 ecx, eax
  01314	89 4d 08	 mov	 DWORD PTR $T529763[ebp], ecx
  01317	c7 45 fc 76 00
	00 00		 mov	 DWORD PTR __$EHRec$[ebp+8], 118 ; 00000076H
  0131e	85 c9		 test	 ecx, ecx
  01320	0f 84 a0 0f 00
	00		 je	 $LN655@CreateNorm
  01326	e8 00 00 00 00	 call	 ??0ioWeaponAttachBuff@@QAE@XZ ; ioWeaponAttachBuff::ioWeaponAttachBuff
  0132b	e9 98 0f 00 00	 jmp	 $LN656@CreateNorm
$LN99@CreateNorm:

; 508  : 		break;
; 509  : 	case BT_CREATE_DUMMY_CHAR3:
; 510  : 		pBuff = new ioCreateDummyChar3Buff;

  01330	68 e8 09 00 00	 push	 2536			; 000009e8H
  01335	e8 00 00 00 00	 call	 ??2@YAPAXI@Z		; operator new
  0133a	59		 pop	 ecx
  0133b	8b c8		 mov	 ecx, eax
  0133d	89 4d 08	 mov	 DWORD PTR $T529767[ebp], ecx
  01340	c7 45 fc 77 00
	00 00		 mov	 DWORD PTR __$EHRec$[ebp+8], 119 ; 00000077H
  01347	85 c9		 test	 ecx, ecx
  01349	0f 84 77 0f 00
	00		 je	 $LN655@CreateNorm
  0134f	e8 00 00 00 00	 call	 ??0ioCreateDummyChar3Buff@@QAE@XZ ; ioCreateDummyChar3Buff::ioCreateDummyChar3Buff
  01354	e9 6f 0f 00 00	 jmp	 $LN656@CreateNorm
$LN98@CreateNorm:

; 511  : 		break;
; 512  : 	case BT_POSITION:
; 513  : 		pBuff = new ioPositionBuff;

  01359	68 c8 09 00 00	 push	 2504			; 000009c8H
  0135e	e8 00 00 00 00	 call	 ??2@YAPAXI@Z		; operator new
  01363	59		 pop	 ecx
  01364	8b c8		 mov	 ecx, eax
  01366	89 4d 08	 mov	 DWORD PTR $T529771[ebp], ecx
  01369	c7 45 fc 78 00
	00 00		 mov	 DWORD PTR __$EHRec$[ebp+8], 120 ; 00000078H
  01370	85 c9		 test	 ecx, ecx
  01372	0f 84 4e 0f 00
	00		 je	 $LN655@CreateNorm
  01378	e8 00 00 00 00	 call	 ??0ioPositionBuff@@QAE@XZ ; ioPositionBuff::ioPositionBuff
  0137d	e9 46 0f 00 00	 jmp	 $LN656@CreateNorm
$LN97@CreateNorm:

; 514  : 		break;
; 515  : 	case BT_GARAVITY_UP_DOWN:
; 516  : 		pBuff = new ioGravityUpDownBuff;

  01382	68 74 09 00 00	 push	 2420			; 00000974H
  01387	e8 00 00 00 00	 call	 ??2@YAPAXI@Z		; operator new
  0138c	59		 pop	 ecx
  0138d	8b c8		 mov	 ecx, eax
  0138f	89 4d 08	 mov	 DWORD PTR $T529775[ebp], ecx
  01392	c7 45 fc 79 00
	00 00		 mov	 DWORD PTR __$EHRec$[ebp+8], 121 ; 00000079H
  01399	85 c9		 test	 ecx, ecx
  0139b	0f 84 25 0f 00
	00		 je	 $LN655@CreateNorm
  013a1	e8 00 00 00 00	 call	 ??0ioGravityUpDownBuff@@QAE@XZ ; ioGravityUpDownBuff::ioGravityUpDownBuff
  013a6	e9 1d 0f 00 00	 jmp	 $LN656@CreateNorm
$LN96@CreateNorm:

; 517  : 		break;
; 518  : 	case BT_ESCAPE_DROP_ZONE:
; 519  : 		pBuff = new ioEscapeDropZoneBuff;

  013ab	68 00 0b 00 00	 push	 2816			; 00000b00H
  013b0	e8 00 00 00 00	 call	 ??2@YAPAXI@Z		; operator new
  013b5	59		 pop	 ecx
  013b6	8b c8		 mov	 ecx, eax
  013b8	89 4d 08	 mov	 DWORD PTR $T529779[ebp], ecx
  013bb	c7 45 fc 7a 00
	00 00		 mov	 DWORD PTR __$EHRec$[ebp+8], 122 ; 0000007aH
  013c2	85 c9		 test	 ecx, ecx
  013c4	0f 84 fc 0e 00
	00		 je	 $LN655@CreateNorm
  013ca	e8 00 00 00 00	 call	 ??0ioEscapeDropZoneBuff@@QAE@XZ ; ioEscapeDropZoneBuff::ioEscapeDropZoneBuff
  013cf	e9 f4 0e 00 00	 jmp	 $LN656@CreateNorm
$LN95@CreateNorm:

; 520  : 		break;
; 521  : 	case BT_PUSH_DIRECTION:
; 522  : 		pBuff = new ioPushDirectionBuff;

  013d4	68 7c 09 00 00	 push	 2428			; 0000097cH
  013d9	e8 00 00 00 00	 call	 ??2@YAPAXI@Z		; operator new
  013de	59		 pop	 ecx
  013df	8b c8		 mov	 ecx, eax
  013e1	89 4d 08	 mov	 DWORD PTR $T529783[ebp], ecx
  013e4	c7 45 fc 7b 00
	00 00		 mov	 DWORD PTR __$EHRec$[ebp+8], 123 ; 0000007bH
  013eb	85 c9		 test	 ecx, ecx
  013ed	0f 84 d3 0e 00
	00		 je	 $LN655@CreateNorm
  013f3	e8 00 00 00 00	 call	 ??0ioPushDirectionBuff@@QAE@XZ ; ioPushDirectionBuff::ioPushDirectionBuff
  013f8	e9 cb 0e 00 00	 jmp	 $LN656@CreateNorm
$LN94@CreateNorm:

; 523  : 		break;
; 524  : 	case BT_WINDLORD:
; 525  : 		pBuff = new ioWindLordBuff;

  013fd	68 20 0a 00 00	 push	 2592			; 00000a20H
  01402	e8 00 00 00 00	 call	 ??2@YAPAXI@Z		; operator new
  01407	59		 pop	 ecx
  01408	8b c8		 mov	 ecx, eax
  0140a	89 4d 08	 mov	 DWORD PTR $T529787[ebp], ecx
  0140d	c7 45 fc 7c 00
	00 00		 mov	 DWORD PTR __$EHRec$[ebp+8], 124 ; 0000007cH
  01414	85 c9		 test	 ecx, ecx
  01416	0f 84 aa 0e 00
	00		 je	 $LN655@CreateNorm
  0141c	e8 00 00 00 00	 call	 ??0ioWindLordBuff@@QAE@XZ ; ioWindLordBuff::ioWindLordBuff
  01421	e9 a2 0e 00 00	 jmp	 $LN656@CreateNorm
$LN93@CreateNorm:

; 526  : 		break;
; 527  : 	case BT_CALL_RANDOM:
; 528  : 		pBuff = new ioCallRandomBuff;

  01426	68 e0 09 00 00	 push	 2528			; 000009e0H
  0142b	e8 00 00 00 00	 call	 ??2@YAPAXI@Z		; operator new
  01430	59		 pop	 ecx
  01431	8b c8		 mov	 ecx, eax
  01433	89 4d 08	 mov	 DWORD PTR $T529791[ebp], ecx
  01436	c7 45 fc 7d 00
	00 00		 mov	 DWORD PTR __$EHRec$[ebp+8], 125 ; 0000007dH
  0143d	85 c9		 test	 ecx, ecx
  0143f	0f 84 81 0e 00
	00		 je	 $LN655@CreateNorm
  01445	e8 00 00 00 00	 call	 ??0ioCallRandomBuff@@QAE@XZ ; ioCallRandomBuff::ioCallRandomBuff
  0144a	e9 79 0e 00 00	 jmp	 $LN656@CreateNorm
$LN92@CreateNorm:

; 529  : 		break;
; 530  : 	case BT_POSITION2:
; 531  : 		pBuff = new ioPositionBuff2;

  0144f	68 ec 09 00 00	 push	 2540			; 000009ecH
  01454	e8 00 00 00 00	 call	 ??2@YAPAXI@Z		; operator new
  01459	59		 pop	 ecx
  0145a	8b c8		 mov	 ecx, eax
  0145c	89 4d 08	 mov	 DWORD PTR $T529795[ebp], ecx
  0145f	c7 45 fc 7e 00
	00 00		 mov	 DWORD PTR __$EHRec$[ebp+8], 126 ; 0000007eH
  01466	85 c9		 test	 ecx, ecx
  01468	0f 84 58 0e 00
	00		 je	 $LN655@CreateNorm
  0146e	e8 00 00 00 00	 call	 ??0ioPositionBuff2@@QAE@XZ ; ioPositionBuff2::ioPositionBuff2
  01473	e9 50 0e 00 00	 jmp	 $LN656@CreateNorm
$LN91@CreateNorm:

; 532  : 		break;
; 533  : 	case BT_CHECK_LIFE:
; 534  : 		pBuff = new ioCheckLifeBuff;

  01478	68 7c 09 00 00	 push	 2428			; 0000097cH
  0147d	e8 00 00 00 00	 call	 ??2@YAPAXI@Z		; operator new
  01482	59		 pop	 ecx
  01483	8b c8		 mov	 ecx, eax
  01485	89 4d 08	 mov	 DWORD PTR $T529799[ebp], ecx
  01488	c7 45 fc 7f 00
	00 00		 mov	 DWORD PTR __$EHRec$[ebp+8], 127 ; 0000007fH
  0148f	85 c9		 test	 ecx, ecx
  01491	0f 84 2f 0e 00
	00		 je	 $LN655@CreateNorm
  01497	e8 00 00 00 00	 call	 ??0ioCheckLifeBuff@@QAE@XZ ; ioCheckLifeBuff::ioCheckLifeBuff
  0149c	e9 27 0e 00 00	 jmp	 $LN656@CreateNorm
$LN90@CreateNorm:

; 535  : 		break;
; 536  : 	case BT_BUFF_MULTI_FLY_JUMP:
; 537  : 		pBuff = new ioMultiFlyJumpBuff;

  014a1	68 58 0a 00 00	 push	 2648			; 00000a58H
  014a6	e8 00 00 00 00	 call	 ??2@YAPAXI@Z		; operator new
  014ab	59		 pop	 ecx
  014ac	8b c8		 mov	 ecx, eax
  014ae	89 4d 08	 mov	 DWORD PTR $T529803[ebp], ecx
  014b1	c7 45 fc 80 00
	00 00		 mov	 DWORD PTR __$EHRec$[ebp+8], 128 ; 00000080H
  014b8	85 c9		 test	 ecx, ecx
  014ba	0f 84 06 0e 00
	00		 je	 $LN655@CreateNorm
  014c0	e8 00 00 00 00	 call	 ??0ioMultiFlyJumpBuff@@QAE@XZ ; ioMultiFlyJumpBuff::ioMultiFlyJumpBuff
  014c5	e9 fe 0d 00 00	 jmp	 $LN656@CreateNorm
$LN89@CreateNorm:

; 538  : 		break;
; 539  : 	case BT_SPECIAL_GAUGE_RATE:
; 540  : 		pBuff = new ioSpecialGaugeBuff2;

  014ca	68 a4 09 00 00	 push	 2468			; 000009a4H
  014cf	e8 00 00 00 00	 call	 ??2@YAPAXI@Z		; operator new
  014d4	59		 pop	 ecx
  014d5	8b c8		 mov	 ecx, eax
  014d7	89 4d 08	 mov	 DWORD PTR $T529807[ebp], ecx
  014da	c7 45 fc 81 00
	00 00		 mov	 DWORD PTR __$EHRec$[ebp+8], 129 ; 00000081H
  014e1	85 c9		 test	 ecx, ecx
  014e3	0f 84 dd 0d 00
	00		 je	 $LN655@CreateNorm
  014e9	e8 00 00 00 00	 call	 ??0ioSpecialGaugeBuff2@@QAE@XZ ; ioSpecialGaugeBuff2::ioSpecialGaugeBuff2
  014ee	e9 d5 0d 00 00	 jmp	 $LN656@CreateNorm
$LN88@CreateNorm:

; 541  : 		break;
; 542  : 	case BT_WIND_MAGNETIC:
; 543  : 		pBuff = new ioWindMagneticBuff;

  014f3	68 f0 0a 00 00	 push	 2800			; 00000af0H
  014f8	e8 00 00 00 00	 call	 ??2@YAPAXI@Z		; operator new
  014fd	59		 pop	 ecx
  014fe	8b c8		 mov	 ecx, eax
  01500	89 4d 08	 mov	 DWORD PTR $T529811[ebp], ecx
  01503	c7 45 fc 82 00
	00 00		 mov	 DWORD PTR __$EHRec$[ebp+8], 130 ; 00000082H
  0150a	85 c9		 test	 ecx, ecx
  0150c	0f 84 b4 0d 00
	00		 je	 $LN655@CreateNorm
  01512	e8 00 00 00 00	 call	 ??0ioWindMagneticBuff@@QAE@XZ ; ioWindMagneticBuff::ioWindMagneticBuff
  01517	e9 ac 0d 00 00	 jmp	 $LN656@CreateNorm
$LN87@CreateNorm:

; 544  : 		break;
; 545  : 	case BT_DROP_ZONE:
; 546  : 		pBuff = new ioDropZoneBuff;

  0151c	68 90 09 00 00	 push	 2448			; 00000990H
  01521	e8 00 00 00 00	 call	 ??2@YAPAXI@Z		; operator new
  01526	59		 pop	 ecx
  01527	8b c8		 mov	 ecx, eax
  01529	89 4d 08	 mov	 DWORD PTR $T529815[ebp], ecx
  0152c	c7 45 fc 83 00
	00 00		 mov	 DWORD PTR __$EHRec$[ebp+8], 131 ; 00000083H
  01533	85 c9		 test	 ecx, ecx
  01535	0f 84 8b 0d 00
	00		 je	 $LN655@CreateNorm
  0153b	e8 00 00 00 00	 call	 ??0ioDropZoneBuff@@QAE@XZ ; ioDropZoneBuff::ioDropZoneBuff
  01540	e9 83 0d 00 00	 jmp	 $LN656@CreateNorm
$LN86@CreateNorm:

; 547  : 		break;
; 548  : 	case BT_DISPEL_BUFF:
; 549  : 		pBuff = new ioDispelBuff;

  01545	68 bc 09 00 00	 push	 2492			; 000009bcH
  0154a	e8 00 00 00 00	 call	 ??2@YAPAXI@Z		; operator new
  0154f	59		 pop	 ecx
  01550	8b c8		 mov	 ecx, eax
  01552	89 4d 08	 mov	 DWORD PTR $T529819[ebp], ecx
  01555	c7 45 fc 84 00
	00 00		 mov	 DWORD PTR __$EHRec$[ebp+8], 132 ; 00000084H
  0155c	85 c9		 test	 ecx, ecx
  0155e	0f 84 62 0d 00
	00		 je	 $LN655@CreateNorm
  01564	e8 00 00 00 00	 call	 ??0ioDispelBuff@@QAE@XZ	; ioDispelBuff::ioDispelBuff
  01569	e9 5a 0d 00 00	 jmp	 $LN656@CreateNorm
$LN85@CreateNorm:

; 550  : 		break;
; 551  : 	case BT_TRY_OUT_CHHECK:
; 552  : 		pBuff = new ioTryOutCheckBuff;

  0156e	68 c8 0a 00 00	 push	 2760			; 00000ac8H
  01573	e8 00 00 00 00	 call	 ??2@YAPAXI@Z		; operator new
  01578	59		 pop	 ecx
  01579	8b c8		 mov	 ecx, eax
  0157b	89 4d 08	 mov	 DWORD PTR $T529823[ebp], ecx
  0157e	c7 45 fc 85 00
	00 00		 mov	 DWORD PTR __$EHRec$[ebp+8], 133 ; 00000085H
  01585	85 c9		 test	 ecx, ecx
  01587	0f 84 39 0d 00
	00		 je	 $LN655@CreateNorm
  0158d	e8 00 00 00 00	 call	 ??0ioTryOutCheckBuff@@QAE@XZ ; ioTryOutCheckBuff::ioTryOutCheckBuff
  01592	e9 31 0d 00 00	 jmp	 $LN656@CreateNorm
$LN84@CreateNorm:

; 553  : 		break;
; 554  : 	case BT_TRY_OUT_CHHECK2:
; 555  : 		pBuff = new ioTryOutCheckBuff2;

  01597	68 d4 0a 00 00	 push	 2772			; 00000ad4H
  0159c	e8 00 00 00 00	 call	 ??2@YAPAXI@Z		; operator new
  015a1	59		 pop	 ecx
  015a2	8b c8		 mov	 ecx, eax
  015a4	89 4d 08	 mov	 DWORD PTR $T529827[ebp], ecx
  015a7	c7 45 fc 86 00
	00 00		 mov	 DWORD PTR __$EHRec$[ebp+8], 134 ; 00000086H
  015ae	85 c9		 test	 ecx, ecx
  015b0	0f 84 10 0d 00
	00		 je	 $LN655@CreateNorm
  015b6	e8 00 00 00 00	 call	 ??0ioTryOutCheckBuff2@@QAE@XZ ; ioTryOutCheckBuff2::ioTryOutCheckBuff2
  015bb	e9 08 0d 00 00	 jmp	 $LN656@CreateNorm
$LN83@CreateNorm:

; 556  : 		break;
; 557  : 	case BT_CONCENTRATE_TARGET:
; 558  : 		pBuff = new ioConcentrateTargetBuff;

  015c0	68 04 0d 00 00	 push	 3332			; 00000d04H
  015c5	e8 00 00 00 00	 call	 ??2@YAPAXI@Z		; operator new
  015ca	59		 pop	 ecx
  015cb	8b c8		 mov	 ecx, eax
  015cd	89 4d 08	 mov	 DWORD PTR $T529831[ebp], ecx
  015d0	c7 45 fc 87 00
	00 00		 mov	 DWORD PTR __$EHRec$[ebp+8], 135 ; 00000087H
  015d7	85 c9		 test	 ecx, ecx
  015d9	0f 84 e7 0c 00
	00		 je	 $LN655@CreateNorm
  015df	e8 00 00 00 00	 call	 ??0ioConcentrateTargetBuff@@QAE@XZ ; ioConcentrateTargetBuff::ioConcentrateTargetBuff
  015e4	e9 df 0c 00 00	 jmp	 $LN656@CreateNorm
$LN82@CreateNorm:

; 559  : 		break;
; 560  : 	case BT_CREATE_DUMMY_CHAR4:
; 561  : 		pBuff = new ioCreateDummyChar4Buff;

  015e9	68 e8 09 00 00	 push	 2536			; 000009e8H
  015ee	e8 00 00 00 00	 call	 ??2@YAPAXI@Z		; operator new
  015f3	59		 pop	 ecx
  015f4	8b c8		 mov	 ecx, eax
  015f6	89 4d 08	 mov	 DWORD PTR $T529835[ebp], ecx
  015f9	c7 45 fc 88 00
	00 00		 mov	 DWORD PTR __$EHRec$[ebp+8], 136 ; 00000088H
  01600	85 c9		 test	 ecx, ecx
  01602	0f 84 be 0c 00
	00		 je	 $LN655@CreateNorm
  01608	e8 00 00 00 00	 call	 ??0ioCreateDummyChar4Buff@@QAE@XZ ; ioCreateDummyChar4Buff::ioCreateDummyChar4Buff
  0160d	e9 b6 0c 00 00	 jmp	 $LN656@CreateNorm
$LN81@CreateNorm:

; 562  : 		break;
; 563  : 	case BT_TARGET_CONTOL:
; 564  : 		pBuff = new ioTargetControlBuff;

  01612	68 8c 09 00 00	 push	 2444			; 0000098cH
  01617	e8 00 00 00 00	 call	 ??2@YAPAXI@Z		; operator new
  0161c	59		 pop	 ecx
  0161d	8b c8		 mov	 ecx, eax
  0161f	89 4d 08	 mov	 DWORD PTR $T529839[ebp], ecx
  01622	c7 45 fc 89 00
	00 00		 mov	 DWORD PTR __$EHRec$[ebp+8], 137 ; 00000089H
  01629	85 c9		 test	 ecx, ecx
  0162b	0f 84 95 0c 00
	00		 je	 $LN655@CreateNorm
  01631	e8 00 00 00 00	 call	 ??0ioTargetControlBuff@@QAE@XZ ; ioTargetControlBuff::ioTargetControlBuff
  01636	e9 8d 0c 00 00	 jmp	 $LN656@CreateNorm
$LN80@CreateNorm:

; 565  : 		break;
; 566  : 	case BT_CREATE_BUFF:
; 567  : 		pBuff = new ioCreateBuff;

  0163b	68 7c 09 00 00	 push	 2428			; 0000097cH
  01640	e8 00 00 00 00	 call	 ??2@YAPAXI@Z		; operator new
  01645	59		 pop	 ecx
  01646	8b c8		 mov	 ecx, eax
  01648	89 4d 08	 mov	 DWORD PTR $T529843[ebp], ecx
  0164b	c7 45 fc 8a 00
	00 00		 mov	 DWORD PTR __$EHRec$[ebp+8], 138 ; 0000008aH
  01652	85 c9		 test	 ecx, ecx
  01654	0f 84 6c 0c 00
	00		 je	 $LN655@CreateNorm
  0165a	e8 00 00 00 00	 call	 ??0ioCreateBuff@@QAE@XZ	; ioCreateBuff::ioCreateBuff
  0165f	e9 64 0c 00 00	 jmp	 $LN656@CreateNorm
$LN79@CreateNorm:

; 568  : 		break;
; 569  : 	case BT_SKILL_GAUGE_CHECK:
; 570  : 		pBuff = new ioSkillGaugeCheckBuff;

  01664	68 74 09 00 00	 push	 2420			; 00000974H
  01669	e8 00 00 00 00	 call	 ??2@YAPAXI@Z		; operator new
  0166e	59		 pop	 ecx
  0166f	8b c8		 mov	 ecx, eax
  01671	89 4d 08	 mov	 DWORD PTR $T529847[ebp], ecx
  01674	c7 45 fc 8b 00
	00 00		 mov	 DWORD PTR __$EHRec$[ebp+8], 139 ; 0000008bH
  0167b	85 c9		 test	 ecx, ecx
  0167d	0f 84 43 0c 00
	00		 je	 $LN655@CreateNorm
  01683	e8 00 00 00 00	 call	 ??0ioSkillGaugeCheckBuff@@QAE@XZ ; ioSkillGaugeCheckBuff::ioSkillGaugeCheckBuff
  01688	e9 3b 0c 00 00	 jmp	 $LN656@CreateNorm
$LN78@CreateNorm:

; 571  : 		break;
; 572  : 	case BT_REFLECT_DAMAGE:
; 573  : 		pBuff = new ioReflectDamageBuff;

  0168d	68 80 09 00 00	 push	 2432			; 00000980H
  01692	e8 00 00 00 00	 call	 ??2@YAPAXI@Z		; operator new
  01697	59		 pop	 ecx
  01698	8b c8		 mov	 ecx, eax
  0169a	89 4d 08	 mov	 DWORD PTR $T529851[ebp], ecx
  0169d	c7 45 fc 8c 00
	00 00		 mov	 DWORD PTR __$EHRec$[ebp+8], 140 ; 0000008cH
  016a4	85 c9		 test	 ecx, ecx
  016a6	0f 84 1a 0c 00
	00		 je	 $LN655@CreateNorm
  016ac	e8 00 00 00 00	 call	 ??0ioReflectDamageBuff@@QAE@XZ ; ioReflectDamageBuff::ioReflectDamageBuff
  016b1	e9 12 0c 00 00	 jmp	 $LN656@CreateNorm
$LN77@CreateNorm:

; 574  : 		break;
; 575  : 	case BT_ALPHA_RATE:
; 576  : 		pBuff = new ioAlphaRateBuff;

  016b6	68 f8 0a 00 00	 push	 2808			; 00000af8H
  016bb	e8 00 00 00 00	 call	 ??2@YAPAXI@Z		; operator new
  016c0	59		 pop	 ecx
  016c1	8b c8		 mov	 ecx, eax
  016c3	89 4d 08	 mov	 DWORD PTR $T529855[ebp], ecx
  016c6	c7 45 fc 8d 00
	00 00		 mov	 DWORD PTR __$EHRec$[ebp+8], 141 ; 0000008dH
  016cd	85 c9		 test	 ecx, ecx
  016cf	0f 84 f1 0b 00
	00		 je	 $LN655@CreateNorm
  016d5	e8 00 00 00 00	 call	 ??0ioAlphaRateBuff@@QAE@XZ ; ioAlphaRateBuff::ioAlphaRateBuff
  016da	e9 e9 0b 00 00	 jmp	 $LN656@CreateNorm
$LN76@CreateNorm:

; 577  : 		break;
; 578  : 	case BT_CONTROL_WEAPON2:
; 579  : 		pBuff = new ioControlWeaponBuff2;

  016df	68 8c 0a 00 00	 push	 2700			; 00000a8cH
  016e4	e8 00 00 00 00	 call	 ??2@YAPAXI@Z		; operator new
  016e9	59		 pop	 ecx
  016ea	8b c8		 mov	 ecx, eax
  016ec	89 4d 08	 mov	 DWORD PTR $T529859[ebp], ecx
  016ef	c7 45 fc 8e 00
	00 00		 mov	 DWORD PTR __$EHRec$[ebp+8], 142 ; 0000008eH
  016f6	85 c9		 test	 ecx, ecx
  016f8	0f 84 c8 0b 00
	00		 je	 $LN655@CreateNorm
  016fe	e8 00 00 00 00	 call	 ??0ioControlWeaponBuff2@@QAE@XZ ; ioControlWeaponBuff2::ioControlWeaponBuff2
  01703	e9 c0 0b 00 00	 jmp	 $LN656@CreateNorm
$LN75@CreateNorm:

; 580  : 		break;
; 581  : 	case BT_CALL_DESTROY:
; 582  : 		pBuff = new ioDestroyCallBuff;

  01708	68 a0 09 00 00	 push	 2464			; 000009a0H
  0170d	e8 00 00 00 00	 call	 ??2@YAPAXI@Z		; operator new
  01712	59		 pop	 ecx
  01713	8b c8		 mov	 ecx, eax
  01715	89 4d 08	 mov	 DWORD PTR $T529863[ebp], ecx
  01718	c7 45 fc 8f 00
	00 00		 mov	 DWORD PTR __$EHRec$[ebp+8], 143 ; 0000008fH
  0171f	85 c9		 test	 ecx, ecx
  01721	0f 84 9f 0b 00
	00		 je	 $LN655@CreateNorm
  01727	e8 00 00 00 00	 call	 ??0ioDestroyCallBuff@@QAE@XZ ; ioDestroyCallBuff::ioDestroyCallBuff
  0172c	e9 97 0b 00 00	 jmp	 $LN656@CreateNorm
$LN74@CreateNorm:

; 583  : 		break;
; 584  : 	case BT_CREATE_WEAPON_COUNT:
; 585  : 		pBuff = new ioCreateWeaponCountBuff;

  01731	68 74 0a 00 00	 push	 2676			; 00000a74H
  01736	e8 00 00 00 00	 call	 ??2@YAPAXI@Z		; operator new
  0173b	59		 pop	 ecx
  0173c	8b c8		 mov	 ecx, eax
  0173e	89 4d 08	 mov	 DWORD PTR $T529867[ebp], ecx
  01741	c7 45 fc 90 00
	00 00		 mov	 DWORD PTR __$EHRec$[ebp+8], 144 ; 00000090H
  01748	85 c9		 test	 ecx, ecx
  0174a	0f 84 76 0b 00
	00		 je	 $LN655@CreateNorm
  01750	e8 00 00 00 00	 call	 ??0ioCreateWeaponCountBuff@@QAE@XZ ; ioCreateWeaponCountBuff::ioCreateWeaponCountBuff
  01755	e9 6e 0b 00 00	 jmp	 $LN656@CreateNorm
$LN73@CreateNorm:

; 586  : 		break;
; 587  : 	case BT_ROTATE_WEAPON:
; 588  : 		pBuff = new ioRotateWeaponBuff;

  0175a	68 dc 09 00 00	 push	 2524			; 000009dcH
  0175f	e8 00 00 00 00	 call	 ??2@YAPAXI@Z		; operator new
  01764	59		 pop	 ecx
  01765	8b c8		 mov	 ecx, eax
  01767	89 4d 08	 mov	 DWORD PTR $T529871[ebp], ecx
  0176a	c7 45 fc 91 00
	00 00		 mov	 DWORD PTR __$EHRec$[ebp+8], 145 ; 00000091H
  01771	85 c9		 test	 ecx, ecx
  01773	0f 84 4d 0b 00
	00		 je	 $LN655@CreateNorm
  01779	e8 00 00 00 00	 call	 ??0ioRotateWeaponBuff@@QAE@XZ ; ioRotateWeaponBuff::ioRotateWeaponBuff
  0177e	e9 45 0b 00 00	 jmp	 $LN656@CreateNorm
$LN72@CreateNorm:

; 589  : 		break;
; 590  : 	case BT_WEAK_AIRBOMB:
; 591  : 		pBuff = new ioWeakAirBombBuff;

  01783	68 74 09 00 00	 push	 2420			; 00000974H
  01788	e8 00 00 00 00	 call	 ??2@YAPAXI@Z		; operator new
  0178d	59		 pop	 ecx
  0178e	8b c8		 mov	 ecx, eax
  01790	89 4d 08	 mov	 DWORD PTR $T529875[ebp], ecx
  01793	c7 45 fc 92 00
	00 00		 mov	 DWORD PTR __$EHRec$[ebp+8], 146 ; 00000092H
  0179a	85 c9		 test	 ecx, ecx
  0179c	0f 84 24 0b 00
	00		 je	 $LN655@CreateNorm
  017a2	e8 00 00 00 00	 call	 ??0ioWeakAirBombBuff@@QAE@XZ ; ioWeakAirBombBuff::ioWeakAirBombBuff
  017a7	e9 1c 0b 00 00	 jmp	 $LN656@CreateNorm
$LN71@CreateNorm:

; 592  : 		break;
; 593  : 	case BT_DUMMY_ATTACH:
; 594  : 		pBuff = new ioDummyAttachBuff;

  017ac	68 04 0a 00 00	 push	 2564			; 00000a04H
  017b1	e8 00 00 00 00	 call	 ??2@YAPAXI@Z		; operator new
  017b6	59		 pop	 ecx
  017b7	8b c8		 mov	 ecx, eax
  017b9	89 4d 08	 mov	 DWORD PTR $T529879[ebp], ecx
  017bc	c7 45 fc 93 00
	00 00		 mov	 DWORD PTR __$EHRec$[ebp+8], 147 ; 00000093H
  017c3	85 c9		 test	 ecx, ecx
  017c5	0f 84 fb 0a 00
	00		 je	 $LN655@CreateNorm
  017cb	e8 00 00 00 00	 call	 ??0ioDummyAttachBuff@@QAE@XZ ; ioDummyAttachBuff::ioDummyAttachBuff
  017d0	e9 f3 0a 00 00	 jmp	 $LN656@CreateNorm
$LN70@CreateNorm:

; 595  : 		break;
; 596  : 	case BT_CREATE_DUMMY_CHAR5:
; 597  : 		pBuff = new ioCreateDummyChar5Buff;

  017d5	68 9c 0a 00 00	 push	 2716			; 00000a9cH
  017da	e8 00 00 00 00	 call	 ??2@YAPAXI@Z		; operator new
  017df	59		 pop	 ecx
  017e0	8b c8		 mov	 ecx, eax
  017e2	89 4d 08	 mov	 DWORD PTR $T529883[ebp], ecx
  017e5	c7 45 fc 94 00
	00 00		 mov	 DWORD PTR __$EHRec$[ebp+8], 148 ; 00000094H
  017ec	85 c9		 test	 ecx, ecx
  017ee	0f 84 d2 0a 00
	00		 je	 $LN655@CreateNorm
  017f4	e8 00 00 00 00	 call	 ??0ioCreateDummyChar5Buff@@QAE@XZ ; ioCreateDummyChar5Buff::ioCreateDummyChar5Buff
  017f9	e9 ca 0a 00 00	 jmp	 $LN656@CreateNorm
$LN69@CreateNorm:

; 598  : 		break;
; 599  : 	case BT_LOOK_WEAPON:
; 600  : 		pBuff = new ioLookatWeaponBuff;

  017fe	68 84 09 00 00	 push	 2436			; 00000984H
  01803	e8 00 00 00 00	 call	 ??2@YAPAXI@Z		; operator new
  01808	59		 pop	 ecx
  01809	8b c8		 mov	 ecx, eax
  0180b	89 4d 08	 mov	 DWORD PTR $T529887[ebp], ecx
  0180e	c7 45 fc 95 00
	00 00		 mov	 DWORD PTR __$EHRec$[ebp+8], 149 ; 00000095H
  01815	85 c9		 test	 ecx, ecx
  01817	0f 84 a9 0a 00
	00		 je	 $LN655@CreateNorm
  0181d	e8 00 00 00 00	 call	 ??0ioLookatWeaponBuff@@QAE@XZ ; ioLookatWeaponBuff::ioLookatWeaponBuff
  01822	e9 a1 0a 00 00	 jmp	 $LN656@CreateNorm
$LN68@CreateNorm:

; 601  : 		break;
; 602  : 	case BT_BUFF_FLY_JUMP2:
; 603  : 		pBuff = new ioFlyJumpBuff2;

  01827	68 8c 0a 00 00	 push	 2700			; 00000a8cH
  0182c	e8 00 00 00 00	 call	 ??2@YAPAXI@Z		; operator new
  01831	59		 pop	 ecx
  01832	8b c8		 mov	 ecx, eax
  01834	89 4d 08	 mov	 DWORD PTR $T529891[ebp], ecx
  01837	c7 45 fc 96 00
	00 00		 mov	 DWORD PTR __$EHRec$[ebp+8], 150 ; 00000096H
  0183e	85 c9		 test	 ecx, ecx
  01840	0f 84 80 0a 00
	00		 je	 $LN655@CreateNorm
  01846	e8 00 00 00 00	 call	 ??0ioFlyJumpBuff2@@QAE@XZ ; ioFlyJumpBuff2::ioFlyJumpBuff2
  0184b	e9 78 0a 00 00	 jmp	 $LN656@CreateNorm
$LN67@CreateNorm:

; 604  : 		break;
; 605  : 	case BT_TARGET_WEAPON:
; 606  : 		pBuff = new ioTargetCreateWeaponBuff;

  01850	68 b8 0b 00 00	 push	 3000			; 00000bb8H
  01855	e8 00 00 00 00	 call	 ??2@YAPAXI@Z		; operator new
  0185a	59		 pop	 ecx
  0185b	8b c8		 mov	 ecx, eax
  0185d	89 4d 08	 mov	 DWORD PTR $T529895[ebp], ecx
  01860	c7 45 fc 97 00
	00 00		 mov	 DWORD PTR __$EHRec$[ebp+8], 151 ; 00000097H
  01867	85 c9		 test	 ecx, ecx
  01869	0f 84 57 0a 00
	00		 je	 $LN655@CreateNorm
  0186f	e8 00 00 00 00	 call	 ??0ioTargetCreateWeaponBuff@@QAE@XZ ; ioTargetCreateWeaponBuff::ioTargetCreateWeaponBuff
  01874	e9 4f 0a 00 00	 jmp	 $LN656@CreateNorm
$LN66@CreateNorm:

; 607  : 		break;
; 608  : 	case BT_LOOK_DUMMY:
; 609  : 		pBuff = new ioLookatDummyBuff;

  01879	68 7c 09 00 00	 push	 2428			; 0000097cH
  0187e	e8 00 00 00 00	 call	 ??2@YAPAXI@Z		; operator new
  01883	59		 pop	 ecx
  01884	8b c8		 mov	 ecx, eax
  01886	89 4d 08	 mov	 DWORD PTR $T529899[ebp], ecx
  01889	c7 45 fc 98 00
	00 00		 mov	 DWORD PTR __$EHRec$[ebp+8], 152 ; 00000098H
  01890	85 c9		 test	 ecx, ecx
  01892	0f 84 2e 0a 00
	00		 je	 $LN655@CreateNorm
  01898	e8 00 00 00 00	 call	 ??0ioLookatDummyBuff@@QAE@XZ ; ioLookatDummyBuff::ioLookatDummyBuff
  0189d	e9 26 0a 00 00	 jmp	 $LN656@CreateNorm
$LN65@CreateNorm:

; 610  : 		break;
; 611  : 	case BT_CHECK_CHAIN:
; 612  : 		pBuff = new ioCheckChainBuff;

  018a2	68 e0 09 00 00	 push	 2528			; 000009e0H
  018a7	e8 00 00 00 00	 call	 ??2@YAPAXI@Z		; operator new
  018ac	59		 pop	 ecx
  018ad	8b c8		 mov	 ecx, eax
  018af	89 4d 08	 mov	 DWORD PTR $T529903[ebp], ecx
  018b2	c7 45 fc 99 00
	00 00		 mov	 DWORD PTR __$EHRec$[ebp+8], 153 ; 00000099H
  018b9	85 c9		 test	 ecx, ecx
  018bb	0f 84 05 0a 00
	00		 je	 $LN655@CreateNorm
  018c1	e8 00 00 00 00	 call	 ??0ioCheckChainBuff@@QAE@XZ ; ioCheckChainBuff::ioCheckChainBuff
  018c6	e9 fd 09 00 00	 jmp	 $LN656@CreateNorm
$LN64@CreateNorm:

; 613  : 		break;
; 614  : 	case BT_STATE_PROTECTION_BY_PASSIVE:
; 615  : 		pBuff = new ioStateProtectionByPassiveBuff;

  018cb	68 84 0a 00 00	 push	 2692			; 00000a84H
  018d0	e8 00 00 00 00	 call	 ??2@YAPAXI@Z		; operator new
  018d5	59		 pop	 ecx
  018d6	8b c8		 mov	 ecx, eax
  018d8	89 4d 08	 mov	 DWORD PTR $T529907[ebp], ecx
  018db	c7 45 fc 9a 00
	00 00		 mov	 DWORD PTR __$EHRec$[ebp+8], 154 ; 0000009aH
  018e2	85 c9		 test	 ecx, ecx
  018e4	0f 84 dc 09 00
	00		 je	 $LN655@CreateNorm
  018ea	e8 00 00 00 00	 call	 ??0ioStateProtectionByPassiveBuff@@QAE@XZ ; ioStateProtectionByPassiveBuff::ioStateProtectionByPassiveBuff
  018ef	e9 d4 09 00 00	 jmp	 $LN656@CreateNorm
$LN63@CreateNorm:

; 616  : 		break;
; 617  : 	case BT_TARGET_MOVE:
; 618  : 		pBuff = new ioTargetMoveBuff;

  018f4	68 28 0b 00 00	 push	 2856			; 00000b28H
  018f9	e8 00 00 00 00	 call	 ??2@YAPAXI@Z		; operator new
  018fe	59		 pop	 ecx
  018ff	8b c8		 mov	 ecx, eax
  01901	89 4d 08	 mov	 DWORD PTR $T529911[ebp], ecx
  01904	c7 45 fc 9b 00
	00 00		 mov	 DWORD PTR __$EHRec$[ebp+8], 155 ; 0000009bH
  0190b	85 c9		 test	 ecx, ecx
  0190d	0f 84 b3 09 00
	00		 je	 $LN655@CreateNorm
  01913	e8 00 00 00 00	 call	 ??0ioTargetMoveBuff@@QAE@XZ ; ioTargetMoveBuff::ioTargetMoveBuff
  01918	e9 ab 09 00 00	 jmp	 $LN656@CreateNorm
$LN62@CreateNorm:

; 619  : 		break;
; 620  : 	case BT_SELF_CONTROL:
; 621  : 		pBuff = new ioSelfControlBuff;

  0191d	68 94 09 00 00	 push	 2452			; 00000994H
  01922	e8 00 00 00 00	 call	 ??2@YAPAXI@Z		; operator new
  01927	59		 pop	 ecx
  01928	8b c8		 mov	 ecx, eax
  0192a	89 4d 08	 mov	 DWORD PTR $T529915[ebp], ecx
  0192d	c7 45 fc 9c 00
	00 00		 mov	 DWORD PTR __$EHRec$[ebp+8], 156 ; 0000009cH
  01934	85 c9		 test	 ecx, ecx
  01936	0f 84 8a 09 00
	00		 je	 $LN655@CreateNorm
  0193c	e8 00 00 00 00	 call	 ??0ioSelfControlBuff@@QAE@XZ ; ioSelfControlBuff::ioSelfControlBuff
  01941	e9 82 09 00 00	 jmp	 $LN656@CreateNorm
$LN61@CreateNorm:

; 622  : 		break;
; 623  : 	case BT_TARGET_DUMMY:
; 624  : 		pBuff = new ioTargetDummyBuff;

  01946	68 fc 09 00 00	 push	 2556			; 000009fcH
  0194b	e8 00 00 00 00	 call	 ??2@YAPAXI@Z		; operator new
  01950	59		 pop	 ecx
  01951	8b c8		 mov	 ecx, eax
  01953	89 4d 08	 mov	 DWORD PTR $T529919[ebp], ecx
  01956	c7 45 fc 9d 00
	00 00		 mov	 DWORD PTR __$EHRec$[ebp+8], 157 ; 0000009dH
  0195d	85 c9		 test	 ecx, ecx
  0195f	0f 84 61 09 00
	00		 je	 $LN655@CreateNorm
  01965	e8 00 00 00 00	 call	 ??0ioTargetDummyBuff@@QAE@XZ ; ioTargetDummyBuff::ioTargetDummyBuff
  0196a	e9 59 09 00 00	 jmp	 $LN656@CreateNorm
$LN60@CreateNorm:

; 625  : 		break;
; 626  : 	case BT_ACTIVE_COUNT2:
; 627  : 		pBuff = new ioActiveCountBuff2;

  0196f	68 d0 09 00 00	 push	 2512			; 000009d0H
  01974	e8 00 00 00 00	 call	 ??2@YAPAXI@Z		; operator new
  01979	59		 pop	 ecx
  0197a	8b c8		 mov	 ecx, eax
  0197c	89 4d 08	 mov	 DWORD PTR $T529923[ebp], ecx
  0197f	c7 45 fc 9e 00
	00 00		 mov	 DWORD PTR __$EHRec$[ebp+8], 158 ; 0000009eH
  01986	85 c9		 test	 ecx, ecx
  01988	0f 84 38 09 00
	00		 je	 $LN655@CreateNorm
  0198e	e8 00 00 00 00	 call	 ??0ioActiveCountBuff2@@QAE@XZ ; ioActiveCountBuff2::ioActiveCountBuff2
  01993	e9 30 09 00 00	 jmp	 $LN656@CreateNorm
$LN59@CreateNorm:

; 628  : 		break;
; 629  : 	case BT_CREATE_DUMMY_CHAR6:
; 630  : 		pBuff = new ioCreateDummyChar6Buff;

  01998	68 e8 09 00 00	 push	 2536			; 000009e8H
  0199d	e8 00 00 00 00	 call	 ??2@YAPAXI@Z		; operator new
  019a2	59		 pop	 ecx
  019a3	8b c8		 mov	 ecx, eax
  019a5	89 4d 08	 mov	 DWORD PTR $T529927[ebp], ecx
  019a8	c7 45 fc 9f 00
	00 00		 mov	 DWORD PTR __$EHRec$[ebp+8], 159 ; 0000009fH
  019af	85 c9		 test	 ecx, ecx
  019b1	0f 84 0f 09 00
	00		 je	 $LN655@CreateNorm
  019b7	e8 00 00 00 00	 call	 ??0ioCreateDummyChar6Buff@@QAE@XZ ; ioCreateDummyChar6Buff::ioCreateDummyChar6Buff
  019bc	e9 07 09 00 00	 jmp	 $LN656@CreateNorm
$LN58@CreateNorm:

; 631  : 		break;
; 632  : 	case BT_AIR_BUFF:
; 633  : 		pBuff = new ioAirBuff;

  019c1	68 70 09 00 00	 push	 2416			; 00000970H
  019c6	e8 00 00 00 00	 call	 ??2@YAPAXI@Z		; operator new
  019cb	59		 pop	 ecx
  019cc	8b c8		 mov	 ecx, eax
  019ce	89 4d 08	 mov	 DWORD PTR $T529931[ebp], ecx
  019d1	c7 45 fc a0 00
	00 00		 mov	 DWORD PTR __$EHRec$[ebp+8], 160 ; 000000a0H
  019d8	85 c9		 test	 ecx, ecx
  019da	0f 84 e6 08 00
	00		 je	 $LN655@CreateNorm
  019e0	e8 00 00 00 00	 call	 ??0ioAirBuff@@QAE@XZ	; ioAirBuff::ioAirBuff
  019e5	e9 de 08 00 00	 jmp	 $LN656@CreateNorm
$LN57@CreateNorm:

; 634  : 		break;
; 635  : 	case BT_HIDE3:
; 636  : 		pBuff = new ioHide3Buff;

  019ea	68 88 09 00 00	 push	 2440			; 00000988H
  019ef	e8 00 00 00 00	 call	 ??2@YAPAXI@Z		; operator new
  019f4	59		 pop	 ecx
  019f5	8b c8		 mov	 ecx, eax
  019f7	89 4d 08	 mov	 DWORD PTR $T529935[ebp], ecx
  019fa	c7 45 fc a1 00
	00 00		 mov	 DWORD PTR __$EHRec$[ebp+8], 161 ; 000000a1H
  01a01	85 c9		 test	 ecx, ecx
  01a03	0f 84 bd 08 00
	00		 je	 $LN655@CreateNorm
  01a09	e8 00 00 00 00	 call	 ??0ioHide3Buff@@QAE@XZ	; ioHide3Buff::ioHide3Buff
  01a0e	e9 b5 08 00 00	 jmp	 $LN656@CreateNorm
$LN56@CreateNorm:

; 637  : 		break;
; 638  : 	case BT_WARP_FIND_DUMMY:
; 639  : 		pBuff = new ioWarpFindDummyBuff;

  01a13	68 94 09 00 00	 push	 2452			; 00000994H
  01a18	e8 00 00 00 00	 call	 ??2@YAPAXI@Z		; operator new
  01a1d	59		 pop	 ecx
  01a1e	8b c8		 mov	 ecx, eax
  01a20	89 4d 08	 mov	 DWORD PTR $T529939[ebp], ecx
  01a23	c7 45 fc a2 00
	00 00		 mov	 DWORD PTR __$EHRec$[ebp+8], 162 ; 000000a2H
  01a2a	85 c9		 test	 ecx, ecx
  01a2c	0f 84 94 08 00
	00		 je	 $LN655@CreateNorm
  01a32	e8 00 00 00 00	 call	 ??0ioWarpFindDummyBuff@@QAE@XZ ; ioWarpFindDummyBuff::ioWarpFindDummyBuff
  01a37	e9 8c 08 00 00	 jmp	 $LN656@CreateNorm
$LN55@CreateNorm:

; 640  : 		break;
; 641  : 	case BT_MARK_BUFF:
; 642  : 		pBuff = new ioMarkBuff;

  01a3c	68 90 09 00 00	 push	 2448			; 00000990H
  01a41	e8 00 00 00 00	 call	 ??2@YAPAXI@Z		; operator new
  01a46	59		 pop	 ecx
  01a47	8b c8		 mov	 ecx, eax
  01a49	89 4d 08	 mov	 DWORD PTR $T529943[ebp], ecx
  01a4c	c7 45 fc a3 00
	00 00		 mov	 DWORD PTR __$EHRec$[ebp+8], 163 ; 000000a3H
  01a53	85 c9		 test	 ecx, ecx
  01a55	0f 84 6b 08 00
	00		 je	 $LN655@CreateNorm
  01a5b	e8 00 00 00 00	 call	 ??0ioMarkBuff@@QAE@XZ	; ioMarkBuff::ioMarkBuff
  01a60	e9 63 08 00 00	 jmp	 $LN656@CreateNorm
$LN54@CreateNorm:

; 643  : 		break;
; 644  : 	case BT_DUMMY_ATTACH2:
; 645  : 		pBuff = new ioDummyAttachBuff2;

  01a65	68 9c 09 00 00	 push	 2460			; 0000099cH
  01a6a	e8 00 00 00 00	 call	 ??2@YAPAXI@Z		; operator new
  01a6f	59		 pop	 ecx
  01a70	8b c8		 mov	 ecx, eax
  01a72	89 4d 08	 mov	 DWORD PTR $T529947[ebp], ecx
  01a75	c7 45 fc a4 00
	00 00		 mov	 DWORD PTR __$EHRec$[ebp+8], 164 ; 000000a4H
  01a7c	85 c9		 test	 ecx, ecx
  01a7e	0f 84 42 08 00
	00		 je	 $LN655@CreateNorm
  01a84	e8 00 00 00 00	 call	 ??0ioDummyAttachBuff2@@QAE@XZ ; ioDummyAttachBuff2::ioDummyAttachBuff2
  01a89	e9 3a 08 00 00	 jmp	 $LN656@CreateNorm
$LN53@CreateNorm:

; 646  : 		break;
; 647  : 	case BT_CHECK_LIFE2:
; 648  : 		pBuff = new ioCheckLifeBuff2;

  01a8e	68 94 09 00 00	 push	 2452			; 00000994H
  01a93	e8 00 00 00 00	 call	 ??2@YAPAXI@Z		; operator new
  01a98	59		 pop	 ecx
  01a99	8b c8		 mov	 ecx, eax
  01a9b	89 4d 08	 mov	 DWORD PTR $T529951[ebp], ecx
  01a9e	c7 45 fc a5 00
	00 00		 mov	 DWORD PTR __$EHRec$[ebp+8], 165 ; 000000a5H
  01aa5	85 c9		 test	 ecx, ecx
  01aa7	0f 84 19 08 00
	00		 je	 $LN655@CreateNorm
  01aad	e8 00 00 00 00	 call	 ??0ioCheckLifeBuff2@@QAE@XZ ; ioCheckLifeBuff2::ioCheckLifeBuff2
  01ab2	e9 11 08 00 00	 jmp	 $LN656@CreateNorm
$LN52@CreateNorm:

; 649  : 		break;
; 650  : 	case BT_CREATE_OBJECT_ITEM:
; 651  : 		pBuff = new ioCreateObjectItemBuff;

  01ab7	68 9c 09 00 00	 push	 2460			; 0000099cH
  01abc	e8 00 00 00 00	 call	 ??2@YAPAXI@Z		; operator new
  01ac1	59		 pop	 ecx
  01ac2	8b c8		 mov	 ecx, eax
  01ac4	89 4d 08	 mov	 DWORD PTR $T529955[ebp], ecx
  01ac7	c7 45 fc a6 00
	00 00		 mov	 DWORD PTR __$EHRec$[ebp+8], 166 ; 000000a6H
  01ace	85 c9		 test	 ecx, ecx
  01ad0	0f 84 f0 07 00
	00		 je	 $LN655@CreateNorm
  01ad6	e8 00 00 00 00	 call	 ??0ioCreateObjectItemBuff@@QAE@XZ ; ioCreateObjectItemBuff::ioCreateObjectItemBuff
  01adb	e9 e8 07 00 00	 jmp	 $LN656@CreateNorm
$LN51@CreateNorm:

; 652  : 		break;
; 653  : 	case BT_DUMMY_ATTACH3:
; 654  : 		pBuff = new ioDummyAttachBuff3;

  01ae0	68 b4 09 00 00	 push	 2484			; 000009b4H
  01ae5	e8 00 00 00 00	 call	 ??2@YAPAXI@Z		; operator new
  01aea	59		 pop	 ecx
  01aeb	8b c8		 mov	 ecx, eax
  01aed	89 4d 08	 mov	 DWORD PTR $T529959[ebp], ecx
  01af0	c7 45 fc a7 00
	00 00		 mov	 DWORD PTR __$EHRec$[ebp+8], 167 ; 000000a7H
  01af7	85 c9		 test	 ecx, ecx
  01af9	0f 84 c7 07 00
	00		 je	 $LN655@CreateNorm
  01aff	e8 00 00 00 00	 call	 ??0ioDummyAttachBuff3@@QAE@XZ ; ioDummyAttachBuff3::ioDummyAttachBuff3
  01b04	e9 bf 07 00 00	 jmp	 $LN656@CreateNorm
$LN50@CreateNorm:

; 655  : 		break;
; 656  : 	case BT_CHECK_JUMP:
; 657  : 		pBuff = new ioCheckJumpBuff;

  01b09	68 80 09 00 00	 push	 2432			; 00000980H
  01b0e	e8 00 00 00 00	 call	 ??2@YAPAXI@Z		; operator new
  01b13	59		 pop	 ecx
  01b14	8b c8		 mov	 ecx, eax
  01b16	89 4d 08	 mov	 DWORD PTR $T529963[ebp], ecx
  01b19	c7 45 fc a8 00
	00 00		 mov	 DWORD PTR __$EHRec$[ebp+8], 168 ; 000000a8H
  01b20	85 c9		 test	 ecx, ecx
  01b22	0f 84 9e 07 00
	00		 je	 $LN655@CreateNorm
  01b28	e8 00 00 00 00	 call	 ??0ioCheckJumpBuff@@QAE@XZ ; ioCheckJumpBuff::ioCheckJumpBuff
  01b2d	e9 96 07 00 00	 jmp	 $LN656@CreateNorm
$LN49@CreateNorm:

; 658  : 		break;
; 659  : 	case BT_HELICOPTER_ATTACH:
; 660  : 		pBuff = new ioHelipCopterAttachBuff;

  01b32	68 6c 0a 00 00	 push	 2668			; 00000a6cH
  01b37	e8 00 00 00 00	 call	 ??2@YAPAXI@Z		; operator new
  01b3c	59		 pop	 ecx
  01b3d	8b c8		 mov	 ecx, eax
  01b3f	89 4d 08	 mov	 DWORD PTR $T529967[ebp], ecx
  01b42	c7 45 fc a9 00
	00 00		 mov	 DWORD PTR __$EHRec$[ebp+8], 169 ; 000000a9H
  01b49	85 c9		 test	 ecx, ecx
  01b4b	0f 84 75 07 00
	00		 je	 $LN655@CreateNorm
  01b51	e8 00 00 00 00	 call	 ??0ioHelipCopterAttachBuff@@QAE@XZ ; ioHelipCopterAttachBuff::ioHelipCopterAttachBuff
  01b56	e9 6d 07 00 00	 jmp	 $LN656@CreateNorm
$LN48@CreateNorm:

; 661  : 		break;
; 662  : 	case BT_FLOAT2:
; 663  : 		pBuff = new ioFloatBuff2;

  01b5b	68 a0 09 00 00	 push	 2464			; 000009a0H
  01b60	e8 00 00 00 00	 call	 ??2@YAPAXI@Z		; operator new
  01b65	59		 pop	 ecx
  01b66	8b c8		 mov	 ecx, eax
  01b68	89 4d 08	 mov	 DWORD PTR $T529971[ebp], ecx
  01b6b	c7 45 fc aa 00
	00 00		 mov	 DWORD PTR __$EHRec$[ebp+8], 170 ; 000000aaH
  01b72	85 c9		 test	 ecx, ecx
  01b74	0f 84 4c 07 00
	00		 je	 $LN655@CreateNorm
  01b7a	e8 00 00 00 00	 call	 ??0ioFloatBuff2@@QAE@XZ	; ioFloatBuff2::ioFloatBuff2
  01b7f	e9 44 07 00 00	 jmp	 $LN656@CreateNorm
$LN47@CreateNorm:

; 664  : 		break;
; 665  : 	case BT_TARGET_WEAPON2:
; 666  : 		pBuff = new ioTargetCreateWeaponBuff2;

  01b84	68 88 0b 00 00	 push	 2952			; 00000b88H
  01b89	e8 00 00 00 00	 call	 ??2@YAPAXI@Z		; operator new
  01b8e	59		 pop	 ecx
  01b8f	8b c8		 mov	 ecx, eax
  01b91	89 4d 08	 mov	 DWORD PTR $T529975[ebp], ecx
  01b94	c7 45 fc ab 00
	00 00		 mov	 DWORD PTR __$EHRec$[ebp+8], 171 ; 000000abH
  01b9b	85 c9		 test	 ecx, ecx
  01b9d	0f 84 23 07 00
	00		 je	 $LN655@CreateNorm
  01ba3	e8 00 00 00 00	 call	 ??0ioTargetCreateWeaponBuff2@@QAE@XZ ; ioTargetCreateWeaponBuff2::ioTargetCreateWeaponBuff2
  01ba8	e9 1b 07 00 00	 jmp	 $LN656@CreateNorm
$LN46@CreateNorm:

; 667  : 		break;
; 668  : 	case BT_HIDE4:
; 669  : 		pBuff = new ioHide4Buff;

  01bad	68 9c 09 00 00	 push	 2460			; 0000099cH
  01bb2	e8 00 00 00 00	 call	 ??2@YAPAXI@Z		; operator new
  01bb7	59		 pop	 ecx
  01bb8	8b c8		 mov	 ecx, eax
  01bba	89 4d 08	 mov	 DWORD PTR $T529979[ebp], ecx
  01bbd	c7 45 fc ac 00
	00 00		 mov	 DWORD PTR __$EHRec$[ebp+8], 172 ; 000000acH
  01bc4	85 c9		 test	 ecx, ecx
  01bc6	0f 84 fa 06 00
	00		 je	 $LN655@CreateNorm
  01bcc	e8 00 00 00 00	 call	 ??0ioHide4Buff@@QAE@XZ	; ioHide4Buff::ioHide4Buff
  01bd1	e9 f2 06 00 00	 jmp	 $LN656@CreateNorm
$LN45@CreateNorm:

; 670  : 		break;
; 671  : 	case BT_TARGET_RUSH_ATTACK:
; 672  : 		pBuff = new ioTargetRushAttackBuff;

  01bd6	68 94 0a 00 00	 push	 2708			; 00000a94H
  01bdb	e8 00 00 00 00	 call	 ??2@YAPAXI@Z		; operator new
  01be0	59		 pop	 ecx
  01be1	8b c8		 mov	 ecx, eax
  01be3	89 4d 08	 mov	 DWORD PTR $T529983[ebp], ecx
  01be6	c7 45 fc ad 00
	00 00		 mov	 DWORD PTR __$EHRec$[ebp+8], 173 ; 000000adH
  01bed	85 c9		 test	 ecx, ecx
  01bef	0f 84 d1 06 00
	00		 je	 $LN655@CreateNorm
  01bf5	e8 00 00 00 00	 call	 ??0ioTargetRushAttackBuff@@QAE@XZ ; ioTargetRushAttackBuff::ioTargetRushAttackBuff
  01bfa	e9 c9 06 00 00	 jmp	 $LN656@CreateNorm
$LN44@CreateNorm:

; 673  : 		break;
; 674  : 	case BT_THUNDER_BIRD_HOLD:
; 675  : 		pBuff = new ioThunderBirdHoldBuff;

  01bff	68 98 09 00 00	 push	 2456			; 00000998H
  01c04	e8 00 00 00 00	 call	 ??2@YAPAXI@Z		; operator new
  01c09	59		 pop	 ecx
  01c0a	8b c8		 mov	 ecx, eax
  01c0c	89 4d 08	 mov	 DWORD PTR $T529987[ebp], ecx
  01c0f	c7 45 fc ae 00
	00 00		 mov	 DWORD PTR __$EHRec$[ebp+8], 174 ; 000000aeH
  01c16	85 c9		 test	 ecx, ecx
  01c18	0f 84 a8 06 00
	00		 je	 $LN655@CreateNorm
  01c1e	e8 00 00 00 00	 call	 ??0ioThunderBirdHoldBuff@@QAE@XZ ; ioThunderBirdHoldBuff::ioThunderBirdHoldBuff
  01c23	e9 a0 06 00 00	 jmp	 $LN656@CreateNorm
$LN43@CreateNorm:

; 676  : 		break;
; 677  : 	case BT_CHECK_STATE_END_ATTACK:
; 678  : 		pBuff = new ioCheckStateEndAttackBuff;

  01c28	68 a4 09 00 00	 push	 2468			; 000009a4H
  01c2d	e8 00 00 00 00	 call	 ??2@YAPAXI@Z		; operator new
  01c32	59		 pop	 ecx
  01c33	8b c8		 mov	 ecx, eax
  01c35	89 4d 08	 mov	 DWORD PTR $T529991[ebp], ecx
  01c38	c7 45 fc af 00
	00 00		 mov	 DWORD PTR __$EHRec$[ebp+8], 175 ; 000000afH
  01c3f	85 c9		 test	 ecx, ecx
  01c41	0f 84 7f 06 00
	00		 je	 $LN655@CreateNorm
  01c47	e8 00 00 00 00	 call	 ??0ioCheckStateEndAttackBuff@@QAE@XZ ; ioCheckStateEndAttackBuff::ioCheckStateEndAttackBuff
  01c4c	e9 77 06 00 00	 jmp	 $LN656@CreateNorm
$LN42@CreateNorm:

; 679  : 		break;
; 680  : 	case BT_CHECK_STATE_END_CALL_BUFF:
; 681  : 		pBuff = new ioCheckStateEndCallBuff;

  01c51	68 88 09 00 00	 push	 2440			; 00000988H
  01c56	e8 00 00 00 00	 call	 ??2@YAPAXI@Z		; operator new
  01c5b	59		 pop	 ecx
  01c5c	8b c8		 mov	 ecx, eax
  01c5e	89 4d 08	 mov	 DWORD PTR $T529995[ebp], ecx
  01c61	c7 45 fc b0 00
	00 00		 mov	 DWORD PTR __$EHRec$[ebp+8], 176 ; 000000b0H
  01c68	85 c9		 test	 ecx, ecx
  01c6a	0f 84 56 06 00
	00		 je	 $LN655@CreateNorm
  01c70	e8 00 00 00 00	 call	 ??0ioCheckStateEndCallBuff@@QAE@XZ ; ioCheckStateEndCallBuff::ioCheckStateEndCallBuff
  01c75	e9 4e 06 00 00	 jmp	 $LN656@CreateNorm
$LN41@CreateNorm:

; 682  : 		break;		
; 683  : 	case BT_MAP_EFFECT_BUFF:
; 684  : 		pBuff = new ioMapEffectBuff;

  01c7a	68 e8 09 00 00	 push	 2536			; 000009e8H
  01c7f	e8 00 00 00 00	 call	 ??2@YAPAXI@Z		; operator new
  01c84	59		 pop	 ecx
  01c85	8b c8		 mov	 ecx, eax
  01c87	89 4d 08	 mov	 DWORD PTR $T529999[ebp], ecx
  01c8a	c7 45 fc b1 00
	00 00		 mov	 DWORD PTR __$EHRec$[ebp+8], 177 ; 000000b1H
  01c91	85 c9		 test	 ecx, ecx
  01c93	0f 84 2d 06 00
	00		 je	 $LN655@CreateNorm
  01c99	e8 00 00 00 00	 call	 ??0ioMapEffectBuff@@QAE@XZ ; ioMapEffectBuff::ioMapEffectBuff
  01c9e	e9 25 06 00 00	 jmp	 $LN656@CreateNorm
$LN40@CreateNorm:

; 685  : 		break;
; 686  : 	case BT_CREATE_DUMMY_BY_ATTACKED_BUFF:
; 687  : 		pBuff = new ioCreateDummyByAttackedBuff;

  01ca3	68 9c 09 00 00	 push	 2460			; 0000099cH
  01ca8	e8 00 00 00 00	 call	 ??2@YAPAXI@Z		; operator new
  01cad	59		 pop	 ecx
  01cae	8b c8		 mov	 ecx, eax
  01cb0	89 4d 08	 mov	 DWORD PTR $T530003[ebp], ecx
  01cb3	c7 45 fc b2 00
	00 00		 mov	 DWORD PTR __$EHRec$[ebp+8], 178 ; 000000b2H
  01cba	85 c9		 test	 ecx, ecx
  01cbc	0f 84 04 06 00
	00		 je	 $LN655@CreateNorm
  01cc2	e8 00 00 00 00	 call	 ??0ioCreateDummyByAttackedBuff@@QAE@XZ ; ioCreateDummyByAttackedBuff::ioCreateDummyByAttackedBuff
  01cc7	e9 fc 05 00 00	 jmp	 $LN656@CreateNorm
$LN39@CreateNorm:

; 688  : 		break;
; 689  : 	case BT_MOVE_ATTACK:
; 690  : 		pBuff = new ioMoveAttackBuff;

  01ccc	68 e4 0a 00 00	 push	 2788			; 00000ae4H
  01cd1	e8 00 00 00 00	 call	 ??2@YAPAXI@Z		; operator new
  01cd6	59		 pop	 ecx
  01cd7	8b c8		 mov	 ecx, eax
  01cd9	89 4d 08	 mov	 DWORD PTR $T530007[ebp], ecx
  01cdc	c7 45 fc b3 00
	00 00		 mov	 DWORD PTR __$EHRec$[ebp+8], 179 ; 000000b3H
  01ce3	85 c9		 test	 ecx, ecx
  01ce5	0f 84 db 05 00
	00		 je	 $LN655@CreateNorm
  01ceb	e8 00 00 00 00	 call	 ??0ioMoveAttackBuff@@QAE@XZ ; ioMoveAttackBuff::ioMoveAttackBuff
  01cf0	e9 d3 05 00 00	 jmp	 $LN656@CreateNorm
$LN38@CreateNorm:

; 691  : 		break;
; 692  : 	case BT_DUMMY_CHAIN:
; 693  : 		pBuff = new ioDummyChainBuff;

  01cf5	68 f0 09 00 00	 push	 2544			; 000009f0H
  01cfa	e8 00 00 00 00	 call	 ??2@YAPAXI@Z		; operator new
  01cff	59		 pop	 ecx
  01d00	8b c8		 mov	 ecx, eax
  01d02	89 4d 08	 mov	 DWORD PTR $T530011[ebp], ecx
  01d05	c7 45 fc b4 00
	00 00		 mov	 DWORD PTR __$EHRec$[ebp+8], 180 ; 000000b4H
  01d0c	85 c9		 test	 ecx, ecx
  01d0e	0f 84 b2 05 00
	00		 je	 $LN655@CreateNorm
  01d14	e8 00 00 00 00	 call	 ??0ioDummyChainBuff@@QAE@XZ ; ioDummyChainBuff::ioDummyChainBuff
  01d19	e9 aa 05 00 00	 jmp	 $LN656@CreateNorm
$LN37@CreateNorm:

; 694  : 		break;
; 695  : 	case BT_CREATE_DUMMY_CHAR7:
; 696  : 		pBuff = new ioCreateDummyChar7Buff;

  01d1e	68 9c 0a 00 00	 push	 2716			; 00000a9cH
  01d23	e8 00 00 00 00	 call	 ??2@YAPAXI@Z		; operator new
  01d28	59		 pop	 ecx
  01d29	8b c8		 mov	 ecx, eax
  01d2b	89 4d 08	 mov	 DWORD PTR $T530015[ebp], ecx
  01d2e	c7 45 fc b5 00
	00 00		 mov	 DWORD PTR __$EHRec$[ebp+8], 181 ; 000000b5H
  01d35	85 c9		 test	 ecx, ecx
  01d37	0f 84 89 05 00
	00		 je	 $LN655@CreateNorm
  01d3d	e8 00 00 00 00	 call	 ??0ioCreateDummyChar7Buff@@QAE@XZ ; ioCreateDummyChar7Buff::ioCreateDummyChar7Buff
  01d42	e9 81 05 00 00	 jmp	 $LN656@CreateNorm
$LN36@CreateNorm:

; 697  : 		break;
; 698  : 	case BT_CHECK_CHAIN2:
; 699  : 		pBuff = new ioCheckChainBuff2;

  01d47	68 ac 09 00 00	 push	 2476			; 000009acH
  01d4c	e8 00 00 00 00	 call	 ??2@YAPAXI@Z		; operator new
  01d51	59		 pop	 ecx
  01d52	8b c8		 mov	 ecx, eax
  01d54	89 4d 08	 mov	 DWORD PTR $T530019[ebp], ecx
  01d57	c7 45 fc b6 00
	00 00		 mov	 DWORD PTR __$EHRec$[ebp+8], 182 ; 000000b6H
  01d5e	85 c9		 test	 ecx, ecx
  01d60	0f 84 60 05 00
	00		 je	 $LN655@CreateNorm
  01d66	e8 00 00 00 00	 call	 ??0ioCheckChainBuff2@@QAE@XZ ; ioCheckChainBuff2::ioCheckChainBuff2
  01d6b	e9 58 05 00 00	 jmp	 $LN656@CreateNorm
$LN35@CreateNorm:

; 700  : 		break;
; 701  : 	case BT_PASSENGER_BUFF:
; 702  : 		pBuff = new ioPassengerBuff;

  01d70	68 c4 0a 00 00	 push	 2756			; 00000ac4H
  01d75	e8 00 00 00 00	 call	 ??2@YAPAXI@Z		; operator new
  01d7a	59		 pop	 ecx
  01d7b	8b c8		 mov	 ecx, eax
  01d7d	89 4d 08	 mov	 DWORD PTR $T530023[ebp], ecx
  01d80	c7 45 fc b7 00
	00 00		 mov	 DWORD PTR __$EHRec$[ebp+8], 183 ; 000000b7H
  01d87	85 c9		 test	 ecx, ecx
  01d89	0f 84 37 05 00
	00		 je	 $LN655@CreateNorm
  01d8f	e8 00 00 00 00	 call	 ??0ioPassengerBuff@@QAE@XZ ; ioPassengerBuff::ioPassengerBuff
  01d94	e9 2f 05 00 00	 jmp	 $LN656@CreateNorm
$LN34@CreateNorm:

; 703  : 		break;
; 704  : 	case BT_CREATE_DUMMY_CHAR8:
; 705  : 		pBuff = new ioCreateDummyChar8Buff;

  01d99	68 9c 09 00 00	 push	 2460			; 0000099cH
  01d9e	e8 00 00 00 00	 call	 ??2@YAPAXI@Z		; operator new
  01da3	59		 pop	 ecx
  01da4	8b c8		 mov	 ecx, eax
  01da6	89 4d 08	 mov	 DWORD PTR $T530027[ebp], ecx
  01da9	c7 45 fc b8 00
	00 00		 mov	 DWORD PTR __$EHRec$[ebp+8], 184 ; 000000b8H
  01db0	85 c9		 test	 ecx, ecx
  01db2	0f 84 0e 05 00
	00		 je	 $LN655@CreateNorm
  01db8	e8 00 00 00 00	 call	 ??0ioCreateDummyChar8Buff@@QAE@XZ ; ioCreateDummyChar8Buff::ioCreateDummyChar8Buff
  01dbd	e9 06 05 00 00	 jmp	 $LN656@CreateNorm
$LN33@CreateNorm:

; 706  : 		break;
; 707  : 	case BT_FLY_JUMP_EXTRA_ATTACK:
; 708  : 		pBuff = new ioFlyJumpExtraAttackBuff;

  01dc2	68 d8 0b 00 00	 push	 3032			; 00000bd8H
  01dc7	e8 00 00 00 00	 call	 ??2@YAPAXI@Z		; operator new
  01dcc	59		 pop	 ecx
  01dcd	8b c8		 mov	 ecx, eax
  01dcf	89 4d 08	 mov	 DWORD PTR $T530031[ebp], ecx
  01dd2	c7 45 fc b9 00
	00 00		 mov	 DWORD PTR __$EHRec$[ebp+8], 185 ; 000000b9H
  01dd9	85 c9		 test	 ecx, ecx
  01ddb	0f 84 e5 04 00
	00		 je	 $LN655@CreateNorm
  01de1	e8 00 00 00 00	 call	 ??0ioFlyJumpExtraAttackBuff@@QAE@XZ ; ioFlyJumpExtraAttackBuff::ioFlyJumpExtraAttackBuff
  01de6	e9 dd 04 00 00	 jmp	 $LN656@CreateNorm
$LN32@CreateNorm:

; 709  : 		break;
; 710  : 	case BT_DUMMY_CHECK_BUFF:
; 711  : 		pBuff = new ioDummyCheckBuff;

  01deb	68 94 09 00 00	 push	 2452			; 00000994H
  01df0	e8 00 00 00 00	 call	 ??2@YAPAXI@Z		; operator new
  01df5	59		 pop	 ecx
  01df6	8b c8		 mov	 ecx, eax
  01df8	89 4d 08	 mov	 DWORD PTR $T530035[ebp], ecx
  01dfb	c7 45 fc ba 00
	00 00		 mov	 DWORD PTR __$EHRec$[ebp+8], 186 ; 000000baH
  01e02	85 c9		 test	 ecx, ecx
  01e04	0f 84 bc 04 00
	00		 je	 $LN655@CreateNorm
  01e0a	e8 00 00 00 00	 call	 ??0ioDummyCheckBuff@@QAE@XZ ; ioDummyCheckBuff::ioDummyCheckBuff
  01e0f	e9 b4 04 00 00	 jmp	 $LN656@CreateNorm
$LN31@CreateNorm:

; 712  : 		break;
; 713  : 	case BT_CREATE_WEAPON_BUFF2:
; 714  : 		pBuff = new ioCreateWeaponBuff2;

  01e14	68 6c 0a 00 00	 push	 2668			; 00000a6cH
  01e19	e8 00 00 00 00	 call	 ??2@YAPAXI@Z		; operator new
  01e1e	59		 pop	 ecx
  01e1f	8b c8		 mov	 ecx, eax
  01e21	89 4d 08	 mov	 DWORD PTR $T530039[ebp], ecx
  01e24	c7 45 fc bb 00
	00 00		 mov	 DWORD PTR __$EHRec$[ebp+8], 187 ; 000000bbH
  01e2b	85 c9		 test	 ecx, ecx
  01e2d	0f 84 93 04 00
	00		 je	 $LN655@CreateNorm
  01e33	e8 00 00 00 00	 call	 ??0ioCreateWeaponBuff2@@QAE@XZ ; ioCreateWeaponBuff2::ioCreateWeaponBuff2
  01e38	e9 8b 04 00 00	 jmp	 $LN656@CreateNorm
$LN30@CreateNorm:

; 715  : 		break;
; 716  : 	case BT_TARGET_MOVE_ATTACK:
; 717  : 		pBuff = new ioTargetMoveAttackBuff;

  01e3d	68 44 0b 00 00	 push	 2884			; 00000b44H
  01e42	e8 00 00 00 00	 call	 ??2@YAPAXI@Z		; operator new
  01e47	59		 pop	 ecx
  01e48	8b c8		 mov	 ecx, eax
  01e4a	89 4d 08	 mov	 DWORD PTR $T530043[ebp], ecx
  01e4d	c7 45 fc bc 00
	00 00		 mov	 DWORD PTR __$EHRec$[ebp+8], 188 ; 000000bcH
  01e54	85 c9		 test	 ecx, ecx
  01e56	0f 84 6a 04 00
	00		 je	 $LN655@CreateNorm
  01e5c	e8 00 00 00 00	 call	 ??0ioTargetMoveAttackBuff@@QAE@XZ ; ioTargetMoveAttackBuff::ioTargetMoveAttackBuff
  01e61	e9 62 04 00 00	 jmp	 $LN656@CreateNorm
$LN29@CreateNorm:

; 718  : 		break;
; 719  : 	case BT_WOUNDED_ADD_BUFF:
; 720  : 		pBuff = new ioWoundedAddBuff;

  01e66	68 b4 09 00 00	 push	 2484			; 000009b4H
  01e6b	e8 00 00 00 00	 call	 ??2@YAPAXI@Z		; operator new
  01e70	59		 pop	 ecx
  01e71	8b c8		 mov	 ecx, eax
  01e73	89 4d 08	 mov	 DWORD PTR $T530047[ebp], ecx
  01e76	c7 45 fc bd 00
	00 00		 mov	 DWORD PTR __$EHRec$[ebp+8], 189 ; 000000bdH
  01e7d	85 c9		 test	 ecx, ecx
  01e7f	0f 84 41 04 00
	00		 je	 $LN655@CreateNorm
  01e85	e8 00 00 00 00	 call	 ??0ioWoundedAddBuff@@QAE@XZ ; ioWoundedAddBuff::ioWoundedAddBuff
  01e8a	e9 39 04 00 00	 jmp	 $LN656@CreateNorm
$LN28@CreateNorm:

; 721  : 		break;
; 722  : 	case BT_CREATE_WEAPON_BUFF3:
; 723  : 		pBuff = new ioCreateWeaponBuff3;

  01e8f	68 20 0a 00 00	 push	 2592			; 00000a20H
  01e94	e8 00 00 00 00	 call	 ??2@YAPAXI@Z		; operator new
  01e99	59		 pop	 ecx
  01e9a	8b c8		 mov	 ecx, eax
  01e9c	89 4d 08	 mov	 DWORD PTR $T530051[ebp], ecx
  01e9f	c7 45 fc be 00
	00 00		 mov	 DWORD PTR __$EHRec$[ebp+8], 190 ; 000000beH
  01ea6	85 c9		 test	 ecx, ecx
  01ea8	0f 84 18 04 00
	00		 je	 $LN655@CreateNorm
  01eae	e8 00 00 00 00	 call	 ??0ioCreateWeaponBuff3@@QAE@XZ ; ioCreateWeaponBuff3::ioCreateWeaponBuff3
  01eb3	e9 10 04 00 00	 jmp	 $LN656@CreateNorm
$LN27@CreateNorm:

; 724  : 		break;
; 725  : 	case BT_ATTACHED_DUMMY:
; 726  : 		pBuff = new ioAttachedDummyBuff;

  01eb8	68 c8 09 00 00	 push	 2504			; 000009c8H
  01ebd	e8 00 00 00 00	 call	 ??2@YAPAXI@Z		; operator new
  01ec2	59		 pop	 ecx
  01ec3	8b c8		 mov	 ecx, eax
  01ec5	89 4d 08	 mov	 DWORD PTR $T530055[ebp], ecx
  01ec8	c7 45 fc bf 00
	00 00		 mov	 DWORD PTR __$EHRec$[ebp+8], 191 ; 000000bfH
  01ecf	85 c9		 test	 ecx, ecx
  01ed1	0f 84 ef 03 00
	00		 je	 $LN655@CreateNorm
  01ed7	e8 00 00 00 00	 call	 ??0ioAttachedDummyBuff@@QAE@XZ ; ioAttachedDummyBuff::ioAttachedDummyBuff
  01edc	e9 e7 03 00 00	 jmp	 $LN656@CreateNorm
$LN26@CreateNorm:

; 727  : 		break;
; 728  : 	case BT_ATTACK_COUNT_BUFF:
; 729  : 		pBuff = new ioAttackCountBuff;

  01ee1	68 bc 09 00 00	 push	 2492			; 000009bcH
  01ee6	e8 00 00 00 00	 call	 ??2@YAPAXI@Z		; operator new
  01eeb	59		 pop	 ecx
  01eec	8b c8		 mov	 ecx, eax
  01eee	89 4d 08	 mov	 DWORD PTR $T530059[ebp], ecx
  01ef1	c7 45 fc c0 00
	00 00		 mov	 DWORD PTR __$EHRec$[ebp+8], 192 ; 000000c0H
  01ef8	85 c9		 test	 ecx, ecx
  01efa	0f 84 c6 03 00
	00		 je	 $LN655@CreateNorm
  01f00	e8 00 00 00 00	 call	 ??0ioAttackCountBuff@@QAE@XZ ; ioAttackCountBuff::ioAttackCountBuff
  01f05	e9 be 03 00 00	 jmp	 $LN656@CreateNorm
$LN25@CreateNorm:

; 730  : 		break;
; 731  : 	case BT_CREATE_DUMMY_CHAR9:
; 732  : 		pBuff = new ioCreateDummyChar9Buff;

  01f0a	68 d8 0a 00 00	 push	 2776			; 00000ad8H
  01f0f	e8 00 00 00 00	 call	 ??2@YAPAXI@Z		; operator new
  01f14	59		 pop	 ecx
  01f15	8b c8		 mov	 ecx, eax
  01f17	89 4d 08	 mov	 DWORD PTR $T530063[ebp], ecx
  01f1a	c7 45 fc c1 00
	00 00		 mov	 DWORD PTR __$EHRec$[ebp+8], 193 ; 000000c1H
  01f21	85 c9		 test	 ecx, ecx
  01f23	0f 84 9d 03 00
	00		 je	 $LN655@CreateNorm
  01f29	e8 00 00 00 00	 call	 ??0ioCreateDummyChar9Buff@@QAE@XZ ; ioCreateDummyChar9Buff::ioCreateDummyChar9Buff
  01f2e	e9 95 03 00 00	 jmp	 $LN656@CreateNorm
$LN24@CreateNorm:

; 733  : 		break;
; 734  : 	case BT_HIT_COUNT_HOLD2:
; 735  : 		pBuff = new ioHitCountHoldBuff2;

  01f33	68 58 0a 00 00	 push	 2648			; 00000a58H
  01f38	e8 00 00 00 00	 call	 ??2@YAPAXI@Z		; operator new
  01f3d	59		 pop	 ecx
  01f3e	8b c8		 mov	 ecx, eax
  01f40	89 4d 08	 mov	 DWORD PTR $T530067[ebp], ecx
  01f43	c7 45 fc c2 00
	00 00		 mov	 DWORD PTR __$EHRec$[ebp+8], 194 ; 000000c2H
  01f4a	85 c9		 test	 ecx, ecx
  01f4c	0f 84 74 03 00
	00		 je	 $LN655@CreateNorm
  01f52	e8 00 00 00 00	 call	 ??0ioHitCountHoldBuff2@@QAE@XZ ; ioHitCountHoldBuff2::ioHitCountHoldBuff2
  01f57	e9 6c 03 00 00	 jmp	 $LN656@CreateNorm
$LN23@CreateNorm:

; 736  : 		break;
; 737  : 	case BT_CHECK_TARGET:
; 738  : 		pBuff = new ioCheckTargetBuff;

  01f5c	68 bc 09 00 00	 push	 2492			; 000009bcH
  01f61	e8 00 00 00 00	 call	 ??2@YAPAXI@Z		; operator new
  01f66	59		 pop	 ecx
  01f67	8b c8		 mov	 ecx, eax
  01f69	89 4d 08	 mov	 DWORD PTR $T530071[ebp], ecx
  01f6c	c7 45 fc c3 00
	00 00		 mov	 DWORD PTR __$EHRec$[ebp+8], 195 ; 000000c3H
  01f73	85 c9		 test	 ecx, ecx
  01f75	0f 84 4b 03 00
	00		 je	 $LN655@CreateNorm
  01f7b	e8 00 00 00 00	 call	 ??0ioCheckTargetBuff@@QAE@XZ ; ioCheckTargetBuff::ioCheckTargetBuff
  01f80	e9 43 03 00 00	 jmp	 $LN656@CreateNorm
$LN22@CreateNorm:

; 739  : 		break;
; 740  : 	case BT_ATTACHED_CREATOR_CHAR:
; 741  : 		pBuff = new ioAttachedCreatorCharBuff;

  01f85	68 b0 09 00 00	 push	 2480			; 000009b0H
  01f8a	e8 00 00 00 00	 call	 ??2@YAPAXI@Z		; operator new
  01f8f	59		 pop	 ecx
  01f90	8b c8		 mov	 ecx, eax
  01f92	89 4d 08	 mov	 DWORD PTR $T530075[ebp], ecx
  01f95	c7 45 fc c4 00
	00 00		 mov	 DWORD PTR __$EHRec$[ebp+8], 196 ; 000000c4H
  01f9c	85 c9		 test	 ecx, ecx
  01f9e	0f 84 22 03 00
	00		 je	 $LN655@CreateNorm
  01fa4	e8 00 00 00 00	 call	 ??0ioAttachedCreatorCharBuff@@QAE@XZ ; ioAttachedCreatorCharBuff::ioAttachedCreatorCharBuff
  01fa9	e9 1a 03 00 00	 jmp	 $LN656@CreateNorm
$LN21@CreateNorm:

; 742  : 		break;
; 743  : 	case BT_NOVICE_GRADE_EFFECT:
; 744  : 		pBuff = new ioNoviceGradeEffectBuff;

  01fae	68 94 09 00 00	 push	 2452			; 00000994H
  01fb3	e8 00 00 00 00	 call	 ??2@YAPAXI@Z		; operator new
  01fb8	59		 pop	 ecx
  01fb9	8b c8		 mov	 ecx, eax
  01fbb	89 4d 08	 mov	 DWORD PTR $T530079[ebp], ecx
  01fbe	c7 45 fc c5 00
	00 00		 mov	 DWORD PTR __$EHRec$[ebp+8], 197 ; 000000c5H
  01fc5	85 c9		 test	 ecx, ecx
  01fc7	0f 84 f9 02 00
	00		 je	 $LN655@CreateNorm
  01fcd	e8 00 00 00 00	 call	 ??0ioNoviceGradeEffectBuff@@QAE@XZ ; ioNoviceGradeEffectBuff::ioNoviceGradeEffectBuff
  01fd2	e9 f1 02 00 00	 jmp	 $LN656@CreateNorm
$LN20@CreateNorm:

; 745  : 		break;
; 746  : 	case BT_CALL_BUFF_ON_ATTACK2:
; 747  : 		pBuff = new ioCallBuffOnAttackBuff2;

  01fd7	68 80 09 00 00	 push	 2432			; 00000980H
  01fdc	e8 00 00 00 00	 call	 ??2@YAPAXI@Z		; operator new
  01fe1	59		 pop	 ecx
  01fe2	8b c8		 mov	 ecx, eax
  01fe4	89 4d 08	 mov	 DWORD PTR $T530083[ebp], ecx
  01fe7	c7 45 fc c6 00
	00 00		 mov	 DWORD PTR __$EHRec$[ebp+8], 198 ; 000000c6H
  01fee	85 c9		 test	 ecx, ecx
  01ff0	0f 84 d0 02 00
	00		 je	 $LN655@CreateNorm
  01ff6	e8 00 00 00 00	 call	 ??0ioCallBuffOnAttackBuff2@@QAE@XZ ; ioCallBuffOnAttackBuff2::ioCallBuffOnAttackBuff2
  01ffb	e9 c8 02 00 00	 jmp	 $LN656@CreateNorm
$LN19@CreateNorm:

; 748  : 		break;
; 749  : 	case BT_DEFENCE_CHANGE_BUFF:
; 750  : 		pBuff = new ioDefenceChangeBuff;

  02000	68 90 09 00 00	 push	 2448			; 00000990H
  02005	e8 00 00 00 00	 call	 ??2@YAPAXI@Z		; operator new
  0200a	59		 pop	 ecx
  0200b	8b c8		 mov	 ecx, eax
  0200d	89 4d 08	 mov	 DWORD PTR $T530087[ebp], ecx
  02010	c7 45 fc c7 00
	00 00		 mov	 DWORD PTR __$EHRec$[ebp+8], 199 ; 000000c7H
  02017	85 c9		 test	 ecx, ecx
  02019	0f 84 a7 02 00
	00		 je	 $LN655@CreateNorm
  0201f	e8 00 00 00 00	 call	 ??0ioDefenceChangeBuff@@QAE@XZ ; ioDefenceChangeBuff::ioDefenceChangeBuff
  02024	e9 9f 02 00 00	 jmp	 $LN656@CreateNorm
$LN18@CreateNorm:

; 751  : 		break;
; 752  : 	case BT_COUNT_GATHER_ATTACK:
; 753  : 		pBuff = new ioCountGatherAttackBuff;

  02029	68 cc 09 00 00	 push	 2508			; 000009ccH
  0202e	e8 00 00 00 00	 call	 ??2@YAPAXI@Z		; operator new
  02033	59		 pop	 ecx
  02034	8b c8		 mov	 ecx, eax
  02036	89 4d 08	 mov	 DWORD PTR $T530091[ebp], ecx
  02039	c7 45 fc c8 00
	00 00		 mov	 DWORD PTR __$EHRec$[ebp+8], 200 ; 000000c8H
  02040	85 c9		 test	 ecx, ecx
  02042	0f 84 7e 02 00
	00		 je	 $LN655@CreateNorm
  02048	e8 00 00 00 00	 call	 ??0ioCountGatherAttackBuff@@QAE@XZ ; ioCountGatherAttackBuff::ioCountGatherAttackBuff
  0204d	e9 76 02 00 00	 jmp	 $LN656@CreateNorm
$LN17@CreateNorm:

; 754  : 		break;
; 755  : 	case BT_KEY_MARK_ATTACK:
; 756  : 		pBuff = new ioKeyMarkAttackBuff;

  02052	68 e8 0b 00 00	 push	 3048			; 00000be8H
  02057	e8 00 00 00 00	 call	 ??2@YAPAXI@Z		; operator new
  0205c	59		 pop	 ecx
  0205d	8b c8		 mov	 ecx, eax
  0205f	89 4d 08	 mov	 DWORD PTR $T530095[ebp], ecx
  02062	c7 45 fc c9 00
	00 00		 mov	 DWORD PTR __$EHRec$[ebp+8], 201 ; 000000c9H
  02069	85 c9		 test	 ecx, ecx
  0206b	0f 84 55 02 00
	00		 je	 $LN655@CreateNorm
  02071	e8 00 00 00 00	 call	 ??0ioKeyMarkAttackBuff@@QAE@XZ ; ioKeyMarkAttackBuff::ioKeyMarkAttackBuff
  02076	e9 4d 02 00 00	 jmp	 $LN656@CreateNorm
$LN16@CreateNorm:

; 757  : 		break;
; 758  : 	case BT_BUFF_JUMP_ATTACK:
; 759  : 		pBuff = new ioJumpAttackBuff;

  0207b	68 e0 09 00 00	 push	 2528			; 000009e0H
  02080	e8 00 00 00 00	 call	 ??2@YAPAXI@Z		; operator new
  02085	59		 pop	 ecx
  02086	8b c8		 mov	 ecx, eax
  02088	89 4d 08	 mov	 DWORD PTR $T530099[ebp], ecx
  0208b	c7 45 fc ca 00
	00 00		 mov	 DWORD PTR __$EHRec$[ebp+8], 202 ; 000000caH
  02092	85 c9		 test	 ecx, ecx
  02094	0f 84 2c 02 00
	00		 je	 $LN655@CreateNorm
  0209a	e8 00 00 00 00	 call	 ??0ioJumpAttackBuff@@QAE@XZ ; ioJumpAttackBuff::ioJumpAttackBuff
  0209f	e9 24 02 00 00	 jmp	 $LN656@CreateNorm
$LN15@CreateNorm:

; 760  : 		break;
; 761  : 	case BT_CALL_AND_DIE:
; 762  : 		pBuff = new ioCallAndDieBuff;

  020a4	68 4c 0a 00 00	 push	 2636			; 00000a4cH
  020a9	e8 00 00 00 00	 call	 ??2@YAPAXI@Z		; operator new
  020ae	59		 pop	 ecx
  020af	8b c8		 mov	 ecx, eax
  020b1	89 4d 08	 mov	 DWORD PTR $T530103[ebp], ecx
  020b4	c7 45 fc cb 00
	00 00		 mov	 DWORD PTR __$EHRec$[ebp+8], 203 ; 000000cbH
  020bb	85 c9		 test	 ecx, ecx
  020bd	0f 84 03 02 00
	00		 je	 $LN655@CreateNorm
  020c3	e8 00 00 00 00	 call	 ??0ioCallAndDieBuff@@QAE@XZ ; ioCallAndDieBuff::ioCallAndDieBuff
  020c8	e9 fb 01 00 00	 jmp	 $LN656@CreateNorm
$LN14@CreateNorm:

; 763  : 		break;
; 764  : 	case BT_ACTIVE_COUNT3:
; 765  : 		pBuff = new ioActiveCountBuff3;

  020cd	68 e0 09 00 00	 push	 2528			; 000009e0H
  020d2	e8 00 00 00 00	 call	 ??2@YAPAXI@Z		; operator new
  020d7	59		 pop	 ecx
  020d8	8b c8		 mov	 ecx, eax
  020da	89 4d 08	 mov	 DWORD PTR $T530107[ebp], ecx
  020dd	c7 45 fc cc 00
	00 00		 mov	 DWORD PTR __$EHRec$[ebp+8], 204 ; 000000ccH
  020e4	85 c9		 test	 ecx, ecx
  020e6	0f 84 da 01 00
	00		 je	 $LN655@CreateNorm
  020ec	e8 00 00 00 00	 call	 ??0ioActiveCountBuff3@@QAE@XZ ; ioActiveCountBuff3::ioActiveCountBuff3
  020f1	e9 d2 01 00 00	 jmp	 $LN656@CreateNorm
$LN13@CreateNorm:

; 766  : 		break;
; 767  : 	case BT_ATTACHED_DUMMY2:
; 768  : 		pBuff = new ioAttachedDummyBuff2;

  020f6	68 d0 09 00 00	 push	 2512			; 000009d0H
  020fb	e8 00 00 00 00	 call	 ??2@YAPAXI@Z		; operator new
  02100	59		 pop	 ecx
  02101	8b c8		 mov	 ecx, eax
  02103	89 4d 08	 mov	 DWORD PTR $T530111[ebp], ecx
  02106	c7 45 fc cd 00
	00 00		 mov	 DWORD PTR __$EHRec$[ebp+8], 205 ; 000000cdH
  0210d	85 c9		 test	 ecx, ecx
  0210f	0f 84 b1 01 00
	00		 je	 $LN655@CreateNorm
  02115	e8 00 00 00 00	 call	 ??0ioAttachedDummyBuff2@@QAE@XZ ; ioAttachedDummyBuff2::ioAttachedDummyBuff2
  0211a	e9 a9 01 00 00	 jmp	 $LN656@CreateNorm
$LN12@CreateNorm:

; 769  : 		break;
; 770  : 	case BT_CREATE_AREA_WEAPON:
; 771  : 		pBuff = new ioCreateAreaWeaponBuff;

  0211f	68 94 09 00 00	 push	 2452			; 00000994H
  02124	e8 00 00 00 00	 call	 ??2@YAPAXI@Z		; operator new
  02129	59		 pop	 ecx
  0212a	8b c8		 mov	 ecx, eax
  0212c	89 4d 08	 mov	 DWORD PTR $T530115[ebp], ecx
  0212f	c7 45 fc ce 00
	00 00		 mov	 DWORD PTR __$EHRec$[ebp+8], 206 ; 000000ceH
  02136	85 c9		 test	 ecx, ecx
  02138	0f 84 88 01 00
	00		 je	 $LN655@CreateNorm
  0213e	e8 00 00 00 00	 call	 ??0ioCreateAreaWeaponBuff@@QAE@XZ ; ioCreateAreaWeaponBuff::ioCreateAreaWeaponBuff
  02143	e9 80 01 00 00	 jmp	 $LN656@CreateNorm
$LN11@CreateNorm:

; 772  : 		break;
; 773  : 	case BT_MOVE_ATTACK2:
; 774  : 		pBuff = new ioMoveAttackBuff2;

  02148	68 10 0b 00 00	 push	 2832			; 00000b10H
  0214d	e8 00 00 00 00	 call	 ??2@YAPAXI@Z		; operator new
  02152	59		 pop	 ecx
  02153	8b c8		 mov	 ecx, eax
  02155	89 4d 08	 mov	 DWORD PTR $T530119[ebp], ecx
  02158	c7 45 fc cf 00
	00 00		 mov	 DWORD PTR __$EHRec$[ebp+8], 207 ; 000000cfH
  0215f	85 c9		 test	 ecx, ecx
  02161	0f 84 5f 01 00
	00		 je	 $LN655@CreateNorm
  02167	e8 00 00 00 00	 call	 ??0ioMoveAttackBuff2@@QAE@XZ ; ioMoveAttackBuff2::ioMoveAttackBuff2
  0216c	e9 57 01 00 00	 jmp	 $LN656@CreateNorm
$LN10@CreateNorm:

; 775  : 		break;
; 776  : 	case BT_TARGET_WEAPON3:
; 777  : 		pBuff = new ioTargetCreateWeaponBuff3;

  02171	68 6c 0b 00 00	 push	 2924			; 00000b6cH
  02176	e8 00 00 00 00	 call	 ??2@YAPAXI@Z		; operator new
  0217b	59		 pop	 ecx
  0217c	8b c8		 mov	 ecx, eax
  0217e	89 4d 08	 mov	 DWORD PTR $T530123[ebp], ecx
  02181	c7 45 fc d0 00
	00 00		 mov	 DWORD PTR __$EHRec$[ebp+8], 208 ; 000000d0H
  02188	85 c9		 test	 ecx, ecx
  0218a	0f 84 36 01 00
	00		 je	 $LN655@CreateNorm
  02190	e8 00 00 00 00	 call	 ??0ioTargetCreateWeaponBuff3@@QAE@XZ ; ioTargetCreateWeaponBuff3::ioTargetCreateWeaponBuff3
  02195	e9 2e 01 00 00	 jmp	 $LN656@CreateNorm
$LN9@CreateNorm:

; 778  : 		break;
; 779  : 	case BT_SKILL_ATTACK_BUFF:
; 780  : 		pBuff = new ioSkillAttackBuff;

  0219a	68 80 09 00 00	 push	 2432			; 00000980H
  0219f	e8 00 00 00 00	 call	 ??2@YAPAXI@Z		; operator new
  021a4	59		 pop	 ecx
  021a5	8b c8		 mov	 ecx, eax
  021a7	89 4d 08	 mov	 DWORD PTR $T530127[ebp], ecx
  021aa	c7 45 fc d1 00
	00 00		 mov	 DWORD PTR __$EHRec$[ebp+8], 209 ; 000000d1H
  021b1	85 c9		 test	 ecx, ecx
  021b3	0f 84 0d 01 00
	00		 je	 $LN655@CreateNorm
  021b9	e8 00 00 00 00	 call	 ??0ioSkillAttackBuff@@QAE@XZ ; ioSkillAttackBuff::ioSkillAttackBuff
  021be	e9 05 01 00 00	 jmp	 $LN656@CreateNorm
$LN8@CreateNorm:

; 781  : 		break;
; 782  : 	case BT_WEAPON_FOLLOWED_OWNER:
; 783  : 		pBuff = new ioWeaponFollowedOwnerBuff;

  021c3	68 c0 09 00 00	 push	 2496			; 000009c0H
  021c8	e8 00 00 00 00	 call	 ??2@YAPAXI@Z		; operator new
  021cd	59		 pop	 ecx
  021ce	8b c8		 mov	 ecx, eax
  021d0	89 4d 08	 mov	 DWORD PTR $T530131[ebp], ecx
  021d3	c7 45 fc d2 00
	00 00		 mov	 DWORD PTR __$EHRec$[ebp+8], 210 ; 000000d2H
  021da	85 c9		 test	 ecx, ecx
  021dc	0f 84 e4 00 00
	00		 je	 $LN655@CreateNorm
  021e2	e8 00 00 00 00	 call	 ??0ioWeaponFollowedOwnerBuff@@QAE@XZ ; ioWeaponFollowedOwnerBuff::ioWeaponFollowedOwnerBuff
  021e7	e9 dc 00 00 00	 jmp	 $LN656@CreateNorm
$LN7@CreateNorm:

; 784  : 		break;
; 785  : 	case BT_TARGET_WEAPON4:
; 786  : 		pBuff = new ioTargetCreateWeaponBuff4;

  021ec	68 f4 09 00 00	 push	 2548			; 000009f4H
  021f1	e8 00 00 00 00	 call	 ??2@YAPAXI@Z		; operator new
  021f6	59		 pop	 ecx
  021f7	8b c8		 mov	 ecx, eax
  021f9	89 4d 08	 mov	 DWORD PTR $T530135[ebp], ecx
  021fc	c7 45 fc d3 00
	00 00		 mov	 DWORD PTR __$EHRec$[ebp+8], 211 ; 000000d3H
  02203	85 c9		 test	 ecx, ecx
  02205	0f 84 bb 00 00
	00		 je	 $LN655@CreateNorm
  0220b	e8 00 00 00 00	 call	 ??0ioTargetCreateWeaponBuff4@@QAE@XZ ; ioTargetCreateWeaponBuff4::ioTargetCreateWeaponBuff4
  02210	e9 b3 00 00 00	 jmp	 $LN656@CreateNorm
$LN6@CreateNorm:

; 787  : 		break;
; 788  : 	case BT_FLY_FOLLOW_STATE:
; 789  : 		pBuff = new ioFlyFollowStateBuff;

  02215	68 a0 09 00 00	 push	 2464			; 000009a0H
  0221a	e8 00 00 00 00	 call	 ??2@YAPAXI@Z		; operator new
  0221f	59		 pop	 ecx
  02220	8b c8		 mov	 ecx, eax
  02222	89 4d 08	 mov	 DWORD PTR $T530139[ebp], ecx
  02225	c7 45 fc d4 00
	00 00		 mov	 DWORD PTR __$EHRec$[ebp+8], 212 ; 000000d4H
  0222c	85 c9		 test	 ecx, ecx
  0222e	0f 84 92 00 00
	00		 je	 $LN655@CreateNorm
  02234	e8 00 00 00 00	 call	 ??0ioFlyFollowStateBuff@@QAE@XZ ; ioFlyFollowStateBuff::ioFlyFollowStateBuff
  02239	e9 8a 00 00 00	 jmp	 $LN656@CreateNorm
$LN5@CreateNorm:

; 790  : 		break;
; 791  : 	case BT_FLY_FOLLOW_STATE2:
; 792  : 		pBuff = new ioFlyFollowStateBuff2;

  0223e	68 e8 09 00 00	 push	 2536			; 000009e8H
  02243	e8 00 00 00 00	 call	 ??2@YAPAXI@Z		; operator new
  02248	59		 pop	 ecx
  02249	8b c8		 mov	 ecx, eax
  0224b	89 4d 08	 mov	 DWORD PTR $T530143[ebp], ecx
  0224e	c7 45 fc d5 00
	00 00		 mov	 DWORD PTR __$EHRec$[ebp+8], 213 ; 000000d5H
  02255	85 c9		 test	 ecx, ecx
  02257	74 6d		 je	 SHORT $LN655@CreateNorm
  02259	e8 00 00 00 00	 call	 ??0ioFlyFollowStateBuff2@@QAE@XZ ; ioFlyFollowStateBuff2::ioFlyFollowStateBuff2
  0225e	eb 68		 jmp	 SHORT $LN656@CreateNorm
$LN4@CreateNorm:

; 793  : 		break;
; 794  : 	case BT_MOVE_AREA_WEAPON:
; 795  : 		pBuff = new ioMoveAreaWeaponBuff;

  02260	68 b0 09 00 00	 push	 2480			; 000009b0H
  02265	e8 00 00 00 00	 call	 ??2@YAPAXI@Z		; operator new
  0226a	59		 pop	 ecx
  0226b	8b c8		 mov	 ecx, eax
  0226d	89 4d 08	 mov	 DWORD PTR $T530147[ebp], ecx
  02270	c7 45 fc d6 00
	00 00		 mov	 DWORD PTR __$EHRec$[ebp+8], 214 ; 000000d6H
  02277	85 c9		 test	 ecx, ecx
  02279	74 4b		 je	 SHORT $LN655@CreateNorm
  0227b	e8 00 00 00 00	 call	 ??0ioMoveAreaWeaponBuff@@QAE@XZ ; ioMoveAreaWeaponBuff::ioMoveAreaWeaponBuff
  02280	eb 46		 jmp	 SHORT $LN656@CreateNorm
$LN3@CreateNorm:

; 796  : 		break;
; 797  : 	case BT_CREATE_WEAPON_BUFF4:
; 798  : 		pBuff = new ioCreateWeaponBuff4;

  02282	68 a8 0a 00 00	 push	 2728			; 00000aa8H
  02287	e8 00 00 00 00	 call	 ??2@YAPAXI@Z		; operator new
  0228c	59		 pop	 ecx
  0228d	8b c8		 mov	 ecx, eax
  0228f	89 4d 08	 mov	 DWORD PTR $T530151[ebp], ecx
  02292	c7 45 fc d7 00
	00 00		 mov	 DWORD PTR __$EHRec$[ebp+8], 215 ; 000000d7H
  02299	85 c9		 test	 ecx, ecx
  0229b	74 29		 je	 SHORT $LN655@CreateNorm
  0229d	e8 00 00 00 00	 call	 ??0ioCreateWeaponBuff4@@QAE@XZ ; ioCreateWeaponBuff4::ioCreateWeaponBuff4
  022a2	eb 24		 jmp	 SHORT $LN656@CreateNorm
$LN2@CreateNorm:

; 799  : 		break;
; 800  : 	case BT_CREATE_DUMMY_BY_ATTACKED_BUFF2:
; 801  : 		pBuff = new ioCreateDummyByAttackedBuff2;

  022a4	68 90 09 00 00	 push	 2448			; 00000990H
  022a9	e8 00 00 00 00	 call	 ??2@YAPAXI@Z		; operator new
  022ae	59		 pop	 ecx
  022af	8b c8		 mov	 ecx, eax
  022b1	89 4d 08	 mov	 DWORD PTR $T530155[ebp], ecx
  022b4	c7 45 fc d8 00
	00 00		 mov	 DWORD PTR __$EHRec$[ebp+8], 216 ; 000000d8H
  022bb	85 c9		 test	 ecx, ecx
  022bd	74 07		 je	 SHORT $LN655@CreateNorm
  022bf	e8 00 00 00 00	 call	 ??0ioCreateDummyByAttackedBuff2@@QAE@XZ ; ioCreateDummyByAttackedBuff2::ioCreateDummyByAttackedBuff2
  022c4	eb 02		 jmp	 SHORT $LN656@CreateNorm
$LN655@CreateNorm:
  022c6	33 c0		 xor	 eax, eax
$LN656@CreateNorm:
  022c8	83 4d fc ff	 or	 DWORD PTR __$EHRec$[ebp+8], -1
  022cc	8b f0		 mov	 esi, eax

; 802  : 		break;
; 803  : 	}
; 804  : 
; 805  : 	if( pBuff )

  022ce	85 f6		 test	 esi, esi
  022d0	74 16		 je	 SHORT $LN1@CreateNorm

; 806  : 	{
; 807  : 		pBuff->SetBuffCategory( iBuffCategory );

  022d2	ff 75 0c	 push	 DWORD PTR _iBuffCategory$[ebp]
  022d5	8b ce		 mov	 ecx, esi
  022d7	e8 00 00 00 00	 call	 ?SetBuffCategory@ioBuff@@QAEXH@Z ; ioBuff::SetBuffCategory

; 808  : 		pBuff->SetTypeID( iTypeID );

  022dc	57		 push	 edi
  022dd	8b ce		 mov	 ecx, esi
  022df	e8 00 00 00 00	 call	 ?SetTypeID@ioBuff@@QAEXH@Z ; ioBuff::SetTypeID

; 809  : 		return pBuff;

  022e4	8b c6		 mov	 eax, esi
  022e6	eb 19		 jmp	 SHORT $LN221@CreateNorm
$LN1@CreateNorm:

; 810  : 	}
; 811  : 
; 812  : 	LOG.PrintTimeAndLog( 0, "ioBuffMaker::CreateNormalBuffTemplete() Create Fail Buff: %d", iTypeID );

  022e8	57		 push	 edi
  022e9	68 00 00 00 00	 push	 OFFSET ??_C@_0DN@LAIAOGKK@ioBuffMaker?3?3CreateNormalBuffTem@
  022ee	6a 00		 push	 0
  022f0	ff 35 00 00 00
	00		 push	 DWORD PTR __imp_?LOG@@3VCLog@@A
  022f6	ff 15 00 00 00
	00		 call	 DWORD PTR __imp_?PrintTimeAndLog@CLog@@QAAXHPADZZ
  022fc	83 c4 10	 add	 esp, 16			; 00000010H

; 813  : 
; 814  : 	return NULL;

  022ff	33 c0		 xor	 eax, eax
$LN221@CreateNorm:

; 815  : }

  02301	e8 00 00 00 00	 call	 __EH_epilog3
  02306	c2 08 00	 ret	 8
  02309	8d 49 00	 npad	 3
$LN875@CreateNorm:
  0230c	00 00 00 00	 DD	 $LN218@CreateNorm
  02310	00 00 00 00	 DD	 $LN217@CreateNorm
  02314	00 00 00 00	 DD	 $LN216@CreateNorm
  02318	00 00 00 00	 DD	 $LN215@CreateNorm
  0231c	00 00 00 00	 DD	 $LN214@CreateNorm
  02320	00 00 00 00	 DD	 $LN213@CreateNorm
  02324	00 00 00 00	 DD	 $LN212@CreateNorm
  02328	00 00 00 00	 DD	 $LN211@CreateNorm
  0232c	00 00 00 00	 DD	 $LN210@CreateNorm
  02330	00 00 00 00	 DD	 $LN209@CreateNorm
  02334	00 00 00 00	 DD	 $LN207@CreateNorm
  02338	00 00 00 00	 DD	 $LN204@CreateNorm
  0233c	00 00 00 00	 DD	 $LN206@CreateNorm
  02340	00 00 00 00	 DD	 $LN203@CreateNorm
  02344	00 00 00 00	 DD	 $LN202@CreateNorm
  02348	00 00 00 00	 DD	 $LN201@CreateNorm
  0234c	00 00 00 00	 DD	 $LN200@CreateNorm
  02350	00 00 00 00	 DD	 $LN199@CreateNorm
  02354	00 00 00 00	 DD	 $LN198@CreateNorm
  02358	00 00 00 00	 DD	 $LN197@CreateNorm
  0235c	00 00 00 00	 DD	 $LN208@CreateNorm
  02360	00 00 00 00	 DD	 $LN205@CreateNorm
  02364	00 00 00 00	 DD	 $LN196@CreateNorm
  02368	00 00 00 00	 DD	 $LN195@CreateNorm
  0236c	00 00 00 00	 DD	 $LN194@CreateNorm
  02370	00 00 00 00	 DD	 $LN193@CreateNorm
  02374	00 00 00 00	 DD	 $LN192@CreateNorm
  02378	00 00 00 00	 DD	 $LN191@CreateNorm
  0237c	00 00 00 00	 DD	 $LN190@CreateNorm
  02380	00 00 00 00	 DD	 $LN1@CreateNorm
  02384	00 00 00 00	 DD	 $LN189@CreateNorm
  02388	00 00 00 00	 DD	 $LN188@CreateNorm
  0238c	00 00 00 00	 DD	 $LN187@CreateNorm
  02390	00 00 00 00	 DD	 $LN186@CreateNorm
  02394	00 00 00 00	 DD	 $LN185@CreateNorm
  02398	00 00 00 00	 DD	 $LN184@CreateNorm
  0239c	00 00 00 00	 DD	 $LN183@CreateNorm
  023a0	00 00 00 00	 DD	 $LN182@CreateNorm
  023a4	00 00 00 00	 DD	 $LN181@CreateNorm
  023a8	00 00 00 00	 DD	 $LN180@CreateNorm
  023ac	00 00 00 00	 DD	 $LN179@CreateNorm
  023b0	00 00 00 00	 DD	 $LN178@CreateNorm
  023b4	00 00 00 00	 DD	 $LN177@CreateNorm
  023b8	00 00 00 00	 DD	 $LN176@CreateNorm
  023bc	00 00 00 00	 DD	 $LN175@CreateNorm
  023c0	00 00 00 00	 DD	 $LN174@CreateNorm
  023c4	00 00 00 00	 DD	 $LN173@CreateNorm
  023c8	00 00 00 00	 DD	 $LN172@CreateNorm
  023cc	00 00 00 00	 DD	 $LN171@CreateNorm
  023d0	00 00 00 00	 DD	 $LN170@CreateNorm
  023d4	00 00 00 00	 DD	 $LN1@CreateNorm
  023d8	00 00 00 00	 DD	 $LN169@CreateNorm
  023dc	00 00 00 00	 DD	 $LN168@CreateNorm
  023e0	00 00 00 00	 DD	 $LN167@CreateNorm
  023e4	00 00 00 00	 DD	 $LN166@CreateNorm
  023e8	00 00 00 00	 DD	 $LN165@CreateNorm
  023ec	00 00 00 00	 DD	 $LN164@CreateNorm
  023f0	00 00 00 00	 DD	 $LN163@CreateNorm
  023f4	00 00 00 00	 DD	 $LN162@CreateNorm
  023f8	00 00 00 00	 DD	 $LN161@CreateNorm
  023fc	00 00 00 00	 DD	 $LN160@CreateNorm
  02400	00 00 00 00	 DD	 $LN159@CreateNorm
  02404	00 00 00 00	 DD	 $LN158@CreateNorm
  02408	00 00 00 00	 DD	 $LN157@CreateNorm
  0240c	00 00 00 00	 DD	 $LN156@CreateNorm
  02410	00 00 00 00	 DD	 $LN155@CreateNorm
  02414	00 00 00 00	 DD	 $LN154@CreateNorm
  02418	00 00 00 00	 DD	 $LN153@CreateNorm
  0241c	00 00 00 00	 DD	 $LN152@CreateNorm
  02420	00 00 00 00	 DD	 $LN151@CreateNorm
  02424	00 00 00 00	 DD	 $LN150@CreateNorm
  02428	00 00 00 00	 DD	 $LN149@CreateNorm
  0242c	00 00 00 00	 DD	 $LN148@CreateNorm
  02430	00 00 00 00	 DD	 $LN147@CreateNorm
  02434	00 00 00 00	 DD	 $LN146@CreateNorm
  02438	00 00 00 00	 DD	 $LN145@CreateNorm
  0243c	00 00 00 00	 DD	 $LN144@CreateNorm
  02440	00 00 00 00	 DD	 $LN143@CreateNorm
  02444	00 00 00 00	 DD	 $LN142@CreateNorm
  02448	00 00 00 00	 DD	 $LN141@CreateNorm
  0244c	00 00 00 00	 DD	 $LN140@CreateNorm
  02450	00 00 00 00	 DD	 $LN139@CreateNorm
  02454	00 00 00 00	 DD	 $LN138@CreateNorm
  02458	00 00 00 00	 DD	 $LN137@CreateNorm
  0245c	00 00 00 00	 DD	 $LN136@CreateNorm
  02460	00 00 00 00	 DD	 $LN135@CreateNorm
  02464	00 00 00 00	 DD	 $LN134@CreateNorm
  02468	00 00 00 00	 DD	 $LN133@CreateNorm
  0246c	00 00 00 00	 DD	 $LN132@CreateNorm
  02470	00 00 00 00	 DD	 $LN131@CreateNorm
  02474	00 00 00 00	 DD	 $LN129@CreateNorm
  02478	00 00 00 00	 DD	 $LN130@CreateNorm
  0247c	00 00 00 00	 DD	 $LN128@CreateNorm
  02480	00 00 00 00	 DD	 $LN127@CreateNorm
  02484	00 00 00 00	 DD	 $LN126@CreateNorm
  02488	00 00 00 00	 DD	 $LN125@CreateNorm
  0248c	00 00 00 00	 DD	 $LN124@CreateNorm
  02490	00 00 00 00	 DD	 $LN123@CreateNorm
  02494	00 00 00 00	 DD	 $LN122@CreateNorm
  02498	00 00 00 00	 DD	 $LN121@CreateNorm
  0249c	00 00 00 00	 DD	 $LN120@CreateNorm
  024a0	00 00 00 00	 DD	 $LN119@CreateNorm
  024a4	00 00 00 00	 DD	 $LN118@CreateNorm
  024a8	00 00 00 00	 DD	 $LN117@CreateNorm
  024ac	00 00 00 00	 DD	 $LN116@CreateNorm
  024b0	00 00 00 00	 DD	 $LN115@CreateNorm
  024b4	00 00 00 00	 DD	 $LN114@CreateNorm
  024b8	00 00 00 00	 DD	 $LN113@CreateNorm
  024bc	00 00 00 00	 DD	 $LN112@CreateNorm
  024c0	00 00 00 00	 DD	 $LN111@CreateNorm
  024c4	00 00 00 00	 DD	 $LN110@CreateNorm
  024c8	00 00 00 00	 DD	 $LN109@CreateNorm
  024cc	00 00 00 00	 DD	 $LN108@CreateNorm
  024d0	00 00 00 00	 DD	 $LN107@CreateNorm
  024d4	00 00 00 00	 DD	 $LN106@CreateNorm
  024d8	00 00 00 00	 DD	 $LN105@CreateNorm
  024dc	00 00 00 00	 DD	 $LN104@CreateNorm
  024e0	00 00 00 00	 DD	 $LN103@CreateNorm
  024e4	00 00 00 00	 DD	 $LN102@CreateNorm
  024e8	00 00 00 00	 DD	 $LN101@CreateNorm
  024ec	00 00 00 00	 DD	 $LN100@CreateNorm
  024f0	00 00 00 00	 DD	 $LN99@CreateNorm
  024f4	00 00 00 00	 DD	 $LN98@CreateNorm
  024f8	00 00 00 00	 DD	 $LN97@CreateNorm
  024fc	00 00 00 00	 DD	 $LN96@CreateNorm
  02500	00 00 00 00	 DD	 $LN95@CreateNorm
  02504	00 00 00 00	 DD	 $LN94@CreateNorm
  02508	00 00 00 00	 DD	 $LN93@CreateNorm
  0250c	00 00 00 00	 DD	 $LN92@CreateNorm
  02510	00 00 00 00	 DD	 $LN91@CreateNorm
  02514	00 00 00 00	 DD	 $LN90@CreateNorm
  02518	00 00 00 00	 DD	 $LN89@CreateNorm
  0251c	00 00 00 00	 DD	 $LN88@CreateNorm
  02520	00 00 00 00	 DD	 $LN87@CreateNorm
  02524	00 00 00 00	 DD	 $LN86@CreateNorm
  02528	00 00 00 00	 DD	 $LN85@CreateNorm
  0252c	00 00 00 00	 DD	 $LN83@CreateNorm
  02530	00 00 00 00	 DD	 $LN82@CreateNorm
  02534	00 00 00 00	 DD	 $LN81@CreateNorm
  02538	00 00 00 00	 DD	 $LN80@CreateNorm
  0253c	00 00 00 00	 DD	 $LN79@CreateNorm
  02540	00 00 00 00	 DD	 $LN78@CreateNorm
  02544	00 00 00 00	 DD	 $LN77@CreateNorm
  02548	00 00 00 00	 DD	 $LN76@CreateNorm
  0254c	00 00 00 00	 DD	 $LN75@CreateNorm
  02550	00 00 00 00	 DD	 $LN74@CreateNorm
  02554	00 00 00 00	 DD	 $LN73@CreateNorm
  02558	00 00 00 00	 DD	 $LN72@CreateNorm
  0255c	00 00 00 00	 DD	 $LN71@CreateNorm
  02560	00 00 00 00	 DD	 $LN70@CreateNorm
  02564	00 00 00 00	 DD	 $LN69@CreateNorm
  02568	00 00 00 00	 DD	 $LN68@CreateNorm
  0256c	00 00 00 00	 DD	 $LN67@CreateNorm
  02570	00 00 00 00	 DD	 $LN66@CreateNorm
  02574	00 00 00 00	 DD	 $LN65@CreateNorm
  02578	00 00 00 00	 DD	 $LN64@CreateNorm
  0257c	00 00 00 00	 DD	 $LN1@CreateNorm
  02580	00 00 00 00	 DD	 $LN63@CreateNorm
  02584	00 00 00 00	 DD	 $LN62@CreateNorm
  02588	00 00 00 00	 DD	 $LN61@CreateNorm
  0258c	00 00 00 00	 DD	 $LN60@CreateNorm
  02590	00 00 00 00	 DD	 $LN59@CreateNorm
  02594	00 00 00 00	 DD	 $LN58@CreateNorm
  02598	00 00 00 00	 DD	 $LN57@CreateNorm
  0259c	00 00 00 00	 DD	 $LN56@CreateNorm
  025a0	00 00 00 00	 DD	 $LN55@CreateNorm
  025a4	00 00 00 00	 DD	 $LN54@CreateNorm
  025a8	00 00 00 00	 DD	 $LN53@CreateNorm
  025ac	00 00 00 00	 DD	 $LN52@CreateNorm
  025b0	00 00 00 00	 DD	 $LN51@CreateNorm
  025b4	00 00 00 00	 DD	 $LN50@CreateNorm
  025b8	00 00 00 00	 DD	 $LN49@CreateNorm
  025bc	00 00 00 00	 DD	 $LN48@CreateNorm
  025c0	00 00 00 00	 DD	 $LN47@CreateNorm
  025c4	00 00 00 00	 DD	 $LN46@CreateNorm
  025c8	00 00 00 00	 DD	 $LN45@CreateNorm
  025cc	00 00 00 00	 DD	 $LN44@CreateNorm
  025d0	00 00 00 00	 DD	 $LN43@CreateNorm
  025d4	00 00 00 00	 DD	 $LN42@CreateNorm
  025d8	00 00 00 00	 DD	 $LN41@CreateNorm
  025dc	00 00 00 00	 DD	 $LN40@CreateNorm
  025e0	00 00 00 00	 DD	 $LN39@CreateNorm
  025e4	00 00 00 00	 DD	 $LN38@CreateNorm
  025e8	00 00 00 00	 DD	 $LN37@CreateNorm
  025ec	00 00 00 00	 DD	 $LN36@CreateNorm
  025f0	00 00 00 00	 DD	 $LN35@CreateNorm
  025f4	00 00 00 00	 DD	 $LN34@CreateNorm
  025f8	00 00 00 00	 DD	 $LN33@CreateNorm
  025fc	00 00 00 00	 DD	 $LN32@CreateNorm
  02600	00 00 00 00	 DD	 $LN31@CreateNorm
  02604	00 00 00 00	 DD	 $LN30@CreateNorm
  02608	00 00 00 00	 DD	 $LN29@CreateNorm
  0260c	00 00 00 00	 DD	 $LN28@CreateNorm
  02610	00 00 00 00	 DD	 $LN27@CreateNorm
  02614	00 00 00 00	 DD	 $LN26@CreateNorm
  02618	00 00 00 00	 DD	 $LN25@CreateNorm
  0261c	00 00 00 00	 DD	 $LN24@CreateNorm
  02620	00 00 00 00	 DD	 $LN23@CreateNorm
  02624	00 00 00 00	 DD	 $LN22@CreateNorm
  02628	00 00 00 00	 DD	 $LN21@CreateNorm
  0262c	00 00 00 00	 DD	 $LN20@CreateNorm
  02630	00 00 00 00	 DD	 $LN19@CreateNorm
  02634	00 00 00 00	 DD	 $LN18@CreateNorm
  02638	00 00 00 00	 DD	 $LN17@CreateNorm
  0263c	00 00 00 00	 DD	 $LN16@CreateNorm
  02640	00 00 00 00	 DD	 $LN84@CreateNorm
  02644	00 00 00 00	 DD	 $LN15@CreateNorm
  02648	00 00 00 00	 DD	 $LN14@CreateNorm
  0264c	00 00 00 00	 DD	 $LN13@CreateNorm
  02650	00 00 00 00	 DD	 $LN10@CreateNorm
  02654	00 00 00 00	 DD	 $LN9@CreateNorm
  02658	00 00 00 00	 DD	 $LN12@CreateNorm
  0265c	00 00 00 00	 DD	 $LN11@CreateNorm
  02660	00 00 00 00	 DD	 $LN8@CreateNorm
  02664	00 00 00 00	 DD	 $LN7@CreateNorm
  02668	00 00 00 00	 DD	 $LN6@CreateNorm
  0266c	00 00 00 00	 DD	 $LN5@CreateNorm
  02670	00 00 00 00	 DD	 $LN4@CreateNorm
  02674	00 00 00 00	 DD	 $LN1@CreateNorm
  02678	00 00 00 00	 DD	 $LN1@CreateNorm
  0267c	00 00 00 00	 DD	 $LN1@CreateNorm
  02680	00 00 00 00	 DD	 $LN1@CreateNorm
  02684	00 00 00 00	 DD	 $LN1@CreateNorm
  02688	00 00 00 00	 DD	 $LN1@CreateNorm
  0268c	00 00 00 00	 DD	 $LN1@CreateNorm
  02690	00 00 00 00	 DD	 $LN1@CreateNorm
  02694	00 00 00 00	 DD	 $LN1@CreateNorm
  02698	00 00 00 00	 DD	 $LN1@CreateNorm
  0269c	00 00 00 00	 DD	 $LN1@CreateNorm
  026a0	00 00 00 00	 DD	 $LN3@CreateNorm
  026a4	00 00 00 00	 DD	 $LN2@CreateNorm
_TEXT	ENDS
;	COMDAT text$x
text$x	SEGMENT
__unwindfunclet$?CreateNormalBuffTemplete@ioBuffMaker@@IAEPAVioBuff@@HH@Z$0:
  00000	ff 75 08	 push	 DWORD PTR $T529291[ebp]
  00003	e8 00 00 00 00	 call	 ??3@YAXPAX@Z		; operator delete
  00008	59		 pop	 ecx
  00009	c3		 ret	 0
__unwindfunclet$?CreateNormalBuffTemplete@ioBuffMaker@@IAEPAVioBuff@@HH@Z$1:
  0000a	ff 75 08	 push	 DWORD PTR $T529295[ebp]
  0000d	e8 00 00 00 00	 call	 ??3@YAXPAX@Z		; operator delete
  00012	59		 pop	 ecx
  00013	c3		 ret	 0
__unwindfunclet$?CreateNormalBuffTemplete@ioBuffMaker@@IAEPAVioBuff@@HH@Z$2:
  00014	ff 75 08	 push	 DWORD PTR $T529299[ebp]
  00017	e8 00 00 00 00	 call	 ??3@YAXPAX@Z		; operator delete
  0001c	59		 pop	 ecx
  0001d	c3		 ret	 0
__unwindfunclet$?CreateNormalBuffTemplete@ioBuffMaker@@IAEPAVioBuff@@HH@Z$3:
  0001e	ff 75 08	 push	 DWORD PTR $T529303[ebp]
  00021	e8 00 00 00 00	 call	 ??3@YAXPAX@Z		; operator delete
  00026	59		 pop	 ecx
  00027	c3		 ret	 0
__unwindfunclet$?CreateNormalBuffTemplete@ioBuffMaker@@IAEPAVioBuff@@HH@Z$4:
  00028	ff 75 08	 push	 DWORD PTR $T529307[ebp]
  0002b	e8 00 00 00 00	 call	 ??3@YAXPAX@Z		; operator delete
  00030	59		 pop	 ecx
  00031	c3		 ret	 0
__unwindfunclet$?CreateNormalBuffTemplete@ioBuffMaker@@IAEPAVioBuff@@HH@Z$5:
  00032	ff 75 08	 push	 DWORD PTR $T529311[ebp]
  00035	e8 00 00 00 00	 call	 ??3@YAXPAX@Z		; operator delete
  0003a	59		 pop	 ecx
  0003b	c3		 ret	 0
__unwindfunclet$?CreateNormalBuffTemplete@ioBuffMaker@@IAEPAVioBuff@@HH@Z$6:
  0003c	ff 75 08	 push	 DWORD PTR $T529315[ebp]
  0003f	e8 00 00 00 00	 call	 ??3@YAXPAX@Z		; operator delete
  00044	59		 pop	 ecx
  00045	c3		 ret	 0
__unwindfunclet$?CreateNormalBuffTemplete@ioBuffMaker@@IAEPAVioBuff@@HH@Z$7:
  00046	ff 75 08	 push	 DWORD PTR $T529319[ebp]
  00049	e8 00 00 00 00	 call	 ??3@YAXPAX@Z		; operator delete
  0004e	59		 pop	 ecx
  0004f	c3		 ret	 0
__unwindfunclet$?CreateNormalBuffTemplete@ioBuffMaker@@IAEPAVioBuff@@HH@Z$8:
  00050	ff 75 08	 push	 DWORD PTR $T529323[ebp]
  00053	e8 00 00 00 00	 call	 ??3@YAXPAX@Z		; operator delete
  00058	59		 pop	 ecx
  00059	c3		 ret	 0
__unwindfunclet$?CreateNormalBuffTemplete@ioBuffMaker@@IAEPAVioBuff@@HH@Z$9:
  0005a	ff 75 08	 push	 DWORD PTR $T529327[ebp]
  0005d	e8 00 00 00 00	 call	 ??3@YAXPAX@Z		; operator delete
  00062	59		 pop	 ecx
  00063	c3		 ret	 0
__unwindfunclet$?CreateNormalBuffTemplete@ioBuffMaker@@IAEPAVioBuff@@HH@Z$10:
  00064	ff 75 08	 push	 DWORD PTR $T529331[ebp]
  00067	e8 00 00 00 00	 call	 ??3@YAXPAX@Z		; operator delete
  0006c	59		 pop	 ecx
  0006d	c3		 ret	 0
__unwindfunclet$?CreateNormalBuffTemplete@ioBuffMaker@@IAEPAVioBuff@@HH@Z$11:
  0006e	ff 75 08	 push	 DWORD PTR $T529335[ebp]
  00071	e8 00 00 00 00	 call	 ??3@YAXPAX@Z		; operator delete
  00076	59		 pop	 ecx
  00077	c3		 ret	 0
__unwindfunclet$?CreateNormalBuffTemplete@ioBuffMaker@@IAEPAVioBuff@@HH@Z$12:
  00078	ff 75 08	 push	 DWORD PTR $T529339[ebp]
  0007b	e8 00 00 00 00	 call	 ??3@YAXPAX@Z		; operator delete
  00080	59		 pop	 ecx
  00081	c3		 ret	 0
__unwindfunclet$?CreateNormalBuffTemplete@ioBuffMaker@@IAEPAVioBuff@@HH@Z$13:
  00082	ff 75 08	 push	 DWORD PTR $T529343[ebp]
  00085	e8 00 00 00 00	 call	 ??3@YAXPAX@Z		; operator delete
  0008a	59		 pop	 ecx
  0008b	c3		 ret	 0
__unwindfunclet$?CreateNormalBuffTemplete@ioBuffMaker@@IAEPAVioBuff@@HH@Z$14:
  0008c	ff 75 08	 push	 DWORD PTR $T529347[ebp]
  0008f	e8 00 00 00 00	 call	 ??3@YAXPAX@Z		; operator delete
  00094	59		 pop	 ecx
  00095	c3		 ret	 0
__unwindfunclet$?CreateNormalBuffTemplete@ioBuffMaker@@IAEPAVioBuff@@HH@Z$15:
  00096	ff 75 08	 push	 DWORD PTR $T529351[ebp]
  00099	e8 00 00 00 00	 call	 ??3@YAXPAX@Z		; operator delete
  0009e	59		 pop	 ecx
  0009f	c3		 ret	 0
__unwindfunclet$?CreateNormalBuffTemplete@ioBuffMaker@@IAEPAVioBuff@@HH@Z$16:
  000a0	ff 75 08	 push	 DWORD PTR $T529355[ebp]
  000a3	e8 00 00 00 00	 call	 ??3@YAXPAX@Z		; operator delete
  000a8	59		 pop	 ecx
  000a9	c3		 ret	 0
__unwindfunclet$?CreateNormalBuffTemplete@ioBuffMaker@@IAEPAVioBuff@@HH@Z$17:
  000aa	ff 75 08	 push	 DWORD PTR $T529359[ebp]
  000ad	e8 00 00 00 00	 call	 ??3@YAXPAX@Z		; operator delete
  000b2	59		 pop	 ecx
  000b3	c3		 ret	 0
__unwindfunclet$?CreateNormalBuffTemplete@ioBuffMaker@@IAEPAVioBuff@@HH@Z$18:
  000b4	ff 75 08	 push	 DWORD PTR $T529363[ebp]
  000b7	e8 00 00 00 00	 call	 ??3@YAXPAX@Z		; operator delete
  000bc	59		 pop	 ecx
  000bd	c3		 ret	 0
__unwindfunclet$?CreateNormalBuffTemplete@ioBuffMaker@@IAEPAVioBuff@@HH@Z$19:
  000be	ff 75 08	 push	 DWORD PTR $T529367[ebp]
  000c1	e8 00 00 00 00	 call	 ??3@YAXPAX@Z		; operator delete
  000c6	59		 pop	 ecx
  000c7	c3		 ret	 0
__unwindfunclet$?CreateNormalBuffTemplete@ioBuffMaker@@IAEPAVioBuff@@HH@Z$20:
  000c8	ff 75 08	 push	 DWORD PTR $T529371[ebp]
  000cb	e8 00 00 00 00	 call	 ??3@YAXPAX@Z		; operator delete
  000d0	59		 pop	 ecx
  000d1	c3		 ret	 0
__unwindfunclet$?CreateNormalBuffTemplete@ioBuffMaker@@IAEPAVioBuff@@HH@Z$21:
  000d2	ff 75 08	 push	 DWORD PTR $T529375[ebp]
  000d5	e8 00 00 00 00	 call	 ??3@YAXPAX@Z		; operator delete
  000da	59		 pop	 ecx
  000db	c3		 ret	 0
__unwindfunclet$?CreateNormalBuffTemplete@ioBuffMaker@@IAEPAVioBuff@@HH@Z$22:
  000dc	ff 75 08	 push	 DWORD PTR $T529379[ebp]
  000df	e8 00 00 00 00	 call	 ??3@YAXPAX@Z		; operator delete
  000e4	59		 pop	 ecx
  000e5	c3		 ret	 0
__unwindfunclet$?CreateNormalBuffTemplete@ioBuffMaker@@IAEPAVioBuff@@HH@Z$23:
  000e6	ff 75 08	 push	 DWORD PTR $T529383[ebp]
  000e9	e8 00 00 00 00	 call	 ??3@YAXPAX@Z		; operator delete
  000ee	59		 pop	 ecx
  000ef	c3		 ret	 0
__unwindfunclet$?CreateNormalBuffTemplete@ioBuffMaker@@IAEPAVioBuff@@HH@Z$24:
  000f0	ff 75 08	 push	 DWORD PTR $T529387[ebp]
  000f3	e8 00 00 00 00	 call	 ??3@YAXPAX@Z		; operator delete
  000f8	59		 pop	 ecx
  000f9	c3		 ret	 0
__unwindfunclet$?CreateNormalBuffTemplete@ioBuffMaker@@IAEPAVioBuff@@HH@Z$25:
  000fa	ff 75 08	 push	 DWORD PTR $T529391[ebp]
  000fd	e8 00 00 00 00	 call	 ??3@YAXPAX@Z		; operator delete
  00102	59		 pop	 ecx
  00103	c3		 ret	 0
__unwindfunclet$?CreateNormalBuffTemplete@ioBuffMaker@@IAEPAVioBuff@@HH@Z$26:
  00104	ff 75 08	 push	 DWORD PTR $T529395[ebp]
  00107	e8 00 00 00 00	 call	 ??3@YAXPAX@Z		; operator delete
  0010c	59		 pop	 ecx
  0010d	c3		 ret	 0
__unwindfunclet$?CreateNormalBuffTemplete@ioBuffMaker@@IAEPAVioBuff@@HH@Z$27:
  0010e	ff 75 08	 push	 DWORD PTR $T529399[ebp]
  00111	e8 00 00 00 00	 call	 ??3@YAXPAX@Z		; operator delete
  00116	59		 pop	 ecx
  00117	c3		 ret	 0
__unwindfunclet$?CreateNormalBuffTemplete@ioBuffMaker@@IAEPAVioBuff@@HH@Z$28:
  00118	ff 75 08	 push	 DWORD PTR $T529403[ebp]
  0011b	e8 00 00 00 00	 call	 ??3@YAXPAX@Z		; operator delete
  00120	59		 pop	 ecx
  00121	c3		 ret	 0
__unwindfunclet$?CreateNormalBuffTemplete@ioBuffMaker@@IAEPAVioBuff@@HH@Z$29:
  00122	ff 75 08	 push	 DWORD PTR $T529407[ebp]
  00125	e8 00 00 00 00	 call	 ??3@YAXPAX@Z		; operator delete
  0012a	59		 pop	 ecx
  0012b	c3		 ret	 0
__unwindfunclet$?CreateNormalBuffTemplete@ioBuffMaker@@IAEPAVioBuff@@HH@Z$30:
  0012c	ff 75 08	 push	 DWORD PTR $T529411[ebp]
  0012f	e8 00 00 00 00	 call	 ??3@YAXPAX@Z		; operator delete
  00134	59		 pop	 ecx
  00135	c3		 ret	 0
__unwindfunclet$?CreateNormalBuffTemplete@ioBuffMaker@@IAEPAVioBuff@@HH@Z$31:
  00136	ff 75 08	 push	 DWORD PTR $T529415[ebp]
  00139	e8 00 00 00 00	 call	 ??3@YAXPAX@Z		; operator delete
  0013e	59		 pop	 ecx
  0013f	c3		 ret	 0
__unwindfunclet$?CreateNormalBuffTemplete@ioBuffMaker@@IAEPAVioBuff@@HH@Z$32:
  00140	ff 75 08	 push	 DWORD PTR $T529419[ebp]
  00143	e8 00 00 00 00	 call	 ??3@YAXPAX@Z		; operator delete
  00148	59		 pop	 ecx
  00149	c3		 ret	 0
__unwindfunclet$?CreateNormalBuffTemplete@ioBuffMaker@@IAEPAVioBuff@@HH@Z$33:
  0014a	ff 75 08	 push	 DWORD PTR $T529423[ebp]
  0014d	e8 00 00 00 00	 call	 ??3@YAXPAX@Z		; operator delete
  00152	59		 pop	 ecx
  00153	c3		 ret	 0
__unwindfunclet$?CreateNormalBuffTemplete@ioBuffMaker@@IAEPAVioBuff@@HH@Z$34:
  00154	ff 75 08	 push	 DWORD PTR $T529427[ebp]
  00157	e8 00 00 00 00	 call	 ??3@YAXPAX@Z		; operator delete
  0015c	59		 pop	 ecx
  0015d	c3		 ret	 0
__unwindfunclet$?CreateNormalBuffTemplete@ioBuffMaker@@IAEPAVioBuff@@HH@Z$35:
  0015e	ff 75 08	 push	 DWORD PTR $T529431[ebp]
  00161	e8 00 00 00 00	 call	 ??3@YAXPAX@Z		; operator delete
  00166	59		 pop	 ecx
  00167	c3		 ret	 0
__unwindfunclet$?CreateNormalBuffTemplete@ioBuffMaker@@IAEPAVioBuff@@HH@Z$36:
  00168	ff 75 08	 push	 DWORD PTR $T529435[ebp]
  0016b	e8 00 00 00 00	 call	 ??3@YAXPAX@Z		; operator delete
  00170	59		 pop	 ecx
  00171	c3		 ret	 0
__unwindfunclet$?CreateNormalBuffTemplete@ioBuffMaker@@IAEPAVioBuff@@HH@Z$37:
  00172	ff 75 08	 push	 DWORD PTR $T529439[ebp]
  00175	e8 00 00 00 00	 call	 ??3@YAXPAX@Z		; operator delete
  0017a	59		 pop	 ecx
  0017b	c3		 ret	 0
__unwindfunclet$?CreateNormalBuffTemplete@ioBuffMaker@@IAEPAVioBuff@@HH@Z$38:
  0017c	ff 75 08	 push	 DWORD PTR $T529443[ebp]
  0017f	e8 00 00 00 00	 call	 ??3@YAXPAX@Z		; operator delete
  00184	59		 pop	 ecx
  00185	c3		 ret	 0
__unwindfunclet$?CreateNormalBuffTemplete@ioBuffMaker@@IAEPAVioBuff@@HH@Z$39:
  00186	ff 75 08	 push	 DWORD PTR $T529447[ebp]
  00189	e8 00 00 00 00	 call	 ??3@YAXPAX@Z		; operator delete
  0018e	59		 pop	 ecx
  0018f	c3		 ret	 0
__unwindfunclet$?CreateNormalBuffTemplete@ioBuffMaker@@IAEPAVioBuff@@HH@Z$40:
  00190	ff 75 08	 push	 DWORD PTR $T529451[ebp]
  00193	e8 00 00 00 00	 call	 ??3@YAXPAX@Z		; operator delete
  00198	59		 pop	 ecx
  00199	c3		 ret	 0
__unwindfunclet$?CreateNormalBuffTemplete@ioBuffMaker@@IAEPAVioBuff@@HH@Z$41:
  0019a	ff 75 08	 push	 DWORD PTR $T529455[ebp]
  0019d	e8 00 00 00 00	 call	 ??3@YAXPAX@Z		; operator delete
  001a2	59		 pop	 ecx
  001a3	c3		 ret	 0
__unwindfunclet$?CreateNormalBuffTemplete@ioBuffMaker@@IAEPAVioBuff@@HH@Z$42:
  001a4	ff 75 08	 push	 DWORD PTR $T529459[ebp]
  001a7	e8 00 00 00 00	 call	 ??3@YAXPAX@Z		; operator delete
  001ac	59		 pop	 ecx
  001ad	c3		 ret	 0
__unwindfunclet$?CreateNormalBuffTemplete@ioBuffMaker@@IAEPAVioBuff@@HH@Z$43:
  001ae	ff 75 08	 push	 DWORD PTR $T529463[ebp]
  001b1	e8 00 00 00 00	 call	 ??3@YAXPAX@Z		; operator delete
  001b6	59		 pop	 ecx
  001b7	c3		 ret	 0
__unwindfunclet$?CreateNormalBuffTemplete@ioBuffMaker@@IAEPAVioBuff@@HH@Z$44:
  001b8	ff 75 08	 push	 DWORD PTR $T529467[ebp]
  001bb	e8 00 00 00 00	 call	 ??3@YAXPAX@Z		; operator delete
  001c0	59		 pop	 ecx
  001c1	c3		 ret	 0
__unwindfunclet$?CreateNormalBuffTemplete@ioBuffMaker@@IAEPAVioBuff@@HH@Z$45:
  001c2	ff 75 08	 push	 DWORD PTR $T529471[ebp]
  001c5	e8 00 00 00 00	 call	 ??3@YAXPAX@Z		; operator delete
  001ca	59		 pop	 ecx
  001cb	c3		 ret	 0
__unwindfunclet$?CreateNormalBuffTemplete@ioBuffMaker@@IAEPAVioBuff@@HH@Z$46:
  001cc	ff 75 08	 push	 DWORD PTR $T529475[ebp]
  001cf	e8 00 00 00 00	 call	 ??3@YAXPAX@Z		; operator delete
  001d4	59		 pop	 ecx
  001d5	c3		 ret	 0
__unwindfunclet$?CreateNormalBuffTemplete@ioBuffMaker@@IAEPAVioBuff@@HH@Z$47:
  001d6	ff 75 08	 push	 DWORD PTR $T529479[ebp]
  001d9	e8 00 00 00 00	 call	 ??3@YAXPAX@Z		; operator delete
  001de	59		 pop	 ecx
  001df	c3		 ret	 0
__unwindfunclet$?CreateNormalBuffTemplete@ioBuffMaker@@IAEPAVioBuff@@HH@Z$48:
  001e0	ff 75 08	 push	 DWORD PTR $T529483[ebp]
  001e3	e8 00 00 00 00	 call	 ??3@YAXPAX@Z		; operator delete
  001e8	59		 pop	 ecx
  001e9	c3		 ret	 0
__unwindfunclet$?CreateNormalBuffTemplete@ioBuffMaker@@IAEPAVioBuff@@HH@Z$49:
  001ea	ff 75 08	 push	 DWORD PTR $T529487[ebp]
  001ed	e8 00 00 00 00	 call	 ??3@YAXPAX@Z		; operator delete
  001f2	59		 pop	 ecx
  001f3	c3		 ret	 0
__unwindfunclet$?CreateNormalBuffTemplete@ioBuffMaker@@IAEPAVioBuff@@HH@Z$50:
  001f4	ff 75 08	 push	 DWORD PTR $T529491[ebp]
  001f7	e8 00 00 00 00	 call	 ??3@YAXPAX@Z		; operator delete
  001fc	59		 pop	 ecx
  001fd	c3		 ret	 0
__unwindfunclet$?CreateNormalBuffTemplete@ioBuffMaker@@IAEPAVioBuff@@HH@Z$51:
  001fe	ff 75 08	 push	 DWORD PTR $T529495[ebp]
  00201	e8 00 00 00 00	 call	 ??3@YAXPAX@Z		; operator delete
  00206	59		 pop	 ecx
  00207	c3		 ret	 0
__unwindfunclet$?CreateNormalBuffTemplete@ioBuffMaker@@IAEPAVioBuff@@HH@Z$52:
  00208	ff 75 08	 push	 DWORD PTR $T529499[ebp]
  0020b	e8 00 00 00 00	 call	 ??3@YAXPAX@Z		; operator delete
  00210	59		 pop	 ecx
  00211	c3		 ret	 0
__unwindfunclet$?CreateNormalBuffTemplete@ioBuffMaker@@IAEPAVioBuff@@HH@Z$53:
  00212	ff 75 08	 push	 DWORD PTR $T529503[ebp]
  00215	e8 00 00 00 00	 call	 ??3@YAXPAX@Z		; operator delete
  0021a	59		 pop	 ecx
  0021b	c3		 ret	 0
__unwindfunclet$?CreateNormalBuffTemplete@ioBuffMaker@@IAEPAVioBuff@@HH@Z$54:
  0021c	ff 75 08	 push	 DWORD PTR $T529507[ebp]
  0021f	e8 00 00 00 00	 call	 ??3@YAXPAX@Z		; operator delete
  00224	59		 pop	 ecx
  00225	c3		 ret	 0
__unwindfunclet$?CreateNormalBuffTemplete@ioBuffMaker@@IAEPAVioBuff@@HH@Z$55:
  00226	ff 75 08	 push	 DWORD PTR $T529511[ebp]
  00229	e8 00 00 00 00	 call	 ??3@YAXPAX@Z		; operator delete
  0022e	59		 pop	 ecx
  0022f	c3		 ret	 0
__unwindfunclet$?CreateNormalBuffTemplete@ioBuffMaker@@IAEPAVioBuff@@HH@Z$56:
  00230	ff 75 08	 push	 DWORD PTR $T529515[ebp]
  00233	e8 00 00 00 00	 call	 ??3@YAXPAX@Z		; operator delete
  00238	59		 pop	 ecx
  00239	c3		 ret	 0
__unwindfunclet$?CreateNormalBuffTemplete@ioBuffMaker@@IAEPAVioBuff@@HH@Z$57:
  0023a	ff 75 08	 push	 DWORD PTR $T529519[ebp]
  0023d	e8 00 00 00 00	 call	 ??3@YAXPAX@Z		; operator delete
  00242	59		 pop	 ecx
  00243	c3		 ret	 0
__unwindfunclet$?CreateNormalBuffTemplete@ioBuffMaker@@IAEPAVioBuff@@HH@Z$58:
  00244	ff 75 08	 push	 DWORD PTR $T529523[ebp]
  00247	e8 00 00 00 00	 call	 ??3@YAXPAX@Z		; operator delete
  0024c	59		 pop	 ecx
  0024d	c3		 ret	 0
__unwindfunclet$?CreateNormalBuffTemplete@ioBuffMaker@@IAEPAVioBuff@@HH@Z$59:
  0024e	ff 75 08	 push	 DWORD PTR $T529527[ebp]
  00251	e8 00 00 00 00	 call	 ??3@YAXPAX@Z		; operator delete
  00256	59		 pop	 ecx
  00257	c3		 ret	 0
__unwindfunclet$?CreateNormalBuffTemplete@ioBuffMaker@@IAEPAVioBuff@@HH@Z$60:
  00258	ff 75 08	 push	 DWORD PTR $T529531[ebp]
  0025b	e8 00 00 00 00	 call	 ??3@YAXPAX@Z		; operator delete
  00260	59		 pop	 ecx
  00261	c3		 ret	 0
__unwindfunclet$?CreateNormalBuffTemplete@ioBuffMaker@@IAEPAVioBuff@@HH@Z$61:
  00262	ff 75 08	 push	 DWORD PTR $T529535[ebp]
  00265	e8 00 00 00 00	 call	 ??3@YAXPAX@Z		; operator delete
  0026a	59		 pop	 ecx
  0026b	c3		 ret	 0
__unwindfunclet$?CreateNormalBuffTemplete@ioBuffMaker@@IAEPAVioBuff@@HH@Z$62:
  0026c	ff 75 08	 push	 DWORD PTR $T529539[ebp]
  0026f	e8 00 00 00 00	 call	 ??3@YAXPAX@Z		; operator delete
  00274	59		 pop	 ecx
  00275	c3		 ret	 0
__unwindfunclet$?CreateNormalBuffTemplete@ioBuffMaker@@IAEPAVioBuff@@HH@Z$63:
  00276	ff 75 08	 push	 DWORD PTR $T529543[ebp]
  00279	e8 00 00 00 00	 call	 ??3@YAXPAX@Z		; operator delete
  0027e	59		 pop	 ecx
  0027f	c3		 ret	 0
__unwindfunclet$?CreateNormalBuffTemplete@ioBuffMaker@@IAEPAVioBuff@@HH@Z$64:
  00280	ff 75 08	 push	 DWORD PTR $T529547[ebp]
  00283	e8 00 00 00 00	 call	 ??3@YAXPAX@Z		; operator delete
  00288	59		 pop	 ecx
  00289	c3		 ret	 0
__unwindfunclet$?CreateNormalBuffTemplete@ioBuffMaker@@IAEPAVioBuff@@HH@Z$65:
  0028a	ff 75 08	 push	 DWORD PTR $T529551[ebp]
  0028d	e8 00 00 00 00	 call	 ??3@YAXPAX@Z		; operator delete
  00292	59		 pop	 ecx
  00293	c3		 ret	 0
__unwindfunclet$?CreateNormalBuffTemplete@ioBuffMaker@@IAEPAVioBuff@@HH@Z$66:
  00294	ff 75 08	 push	 DWORD PTR $T529555[ebp]
  00297	e8 00 00 00 00	 call	 ??3@YAXPAX@Z		; operator delete
  0029c	59		 pop	 ecx
  0029d	c3		 ret	 0
__unwindfunclet$?CreateNormalBuffTemplete@ioBuffMaker@@IAEPAVioBuff@@HH@Z$67:
  0029e	ff 75 08	 push	 DWORD PTR $T529559[ebp]
  002a1	e8 00 00 00 00	 call	 ??3@YAXPAX@Z		; operator delete
  002a6	59		 pop	 ecx
  002a7	c3		 ret	 0
__unwindfunclet$?CreateNormalBuffTemplete@ioBuffMaker@@IAEPAVioBuff@@HH@Z$68:
  002a8	ff 75 08	 push	 DWORD PTR $T529563[ebp]
  002ab	e8 00 00 00 00	 call	 ??3@YAXPAX@Z		; operator delete
  002b0	59		 pop	 ecx
  002b1	c3		 ret	 0
__unwindfunclet$?CreateNormalBuffTemplete@ioBuffMaker@@IAEPAVioBuff@@HH@Z$69:
  002b2	ff 75 08	 push	 DWORD PTR $T529567[ebp]
  002b5	e8 00 00 00 00	 call	 ??3@YAXPAX@Z		; operator delete
  002ba	59		 pop	 ecx
  002bb	c3		 ret	 0
__unwindfunclet$?CreateNormalBuffTemplete@ioBuffMaker@@IAEPAVioBuff@@HH@Z$70:
  002bc	ff 75 08	 push	 DWORD PTR $T529571[ebp]
  002bf	e8 00 00 00 00	 call	 ??3@YAXPAX@Z		; operator delete
  002c4	59		 pop	 ecx
  002c5	c3		 ret	 0
__unwindfunclet$?CreateNormalBuffTemplete@ioBuffMaker@@IAEPAVioBuff@@HH@Z$71:
  002c6	ff 75 08	 push	 DWORD PTR $T529575[ebp]
  002c9	e8 00 00 00 00	 call	 ??3@YAXPAX@Z		; operator delete
  002ce	59		 pop	 ecx
  002cf	c3		 ret	 0
__unwindfunclet$?CreateNormalBuffTemplete@ioBuffMaker@@IAEPAVioBuff@@HH@Z$72:
  002d0	ff 75 08	 push	 DWORD PTR $T529579[ebp]
  002d3	e8 00 00 00 00	 call	 ??3@YAXPAX@Z		; operator delete
  002d8	59		 pop	 ecx
  002d9	c3		 ret	 0
__unwindfunclet$?CreateNormalBuffTemplete@ioBuffMaker@@IAEPAVioBuff@@HH@Z$73:
  002da	ff 75 08	 push	 DWORD PTR $T529583[ebp]
  002dd	e8 00 00 00 00	 call	 ??3@YAXPAX@Z		; operator delete
  002e2	59		 pop	 ecx
  002e3	c3		 ret	 0
__unwindfunclet$?CreateNormalBuffTemplete@ioBuffMaker@@IAEPAVioBuff@@HH@Z$74:
  002e4	ff 75 08	 push	 DWORD PTR $T529587[ebp]
  002e7	e8 00 00 00 00	 call	 ??3@YAXPAX@Z		; operator delete
  002ec	59		 pop	 ecx
  002ed	c3		 ret	 0
__unwindfunclet$?CreateNormalBuffTemplete@ioBuffMaker@@IAEPAVioBuff@@HH@Z$75:
  002ee	ff 75 08	 push	 DWORD PTR $T529591[ebp]
  002f1	e8 00 00 00 00	 call	 ??3@YAXPAX@Z		; operator delete
  002f6	59		 pop	 ecx
  002f7	c3		 ret	 0
__unwindfunclet$?CreateNormalBuffTemplete@ioBuffMaker@@IAEPAVioBuff@@HH@Z$76:
  002f8	ff 75 08	 push	 DWORD PTR $T529595[ebp]
  002fb	e8 00 00 00 00	 call	 ??3@YAXPAX@Z		; operator delete
  00300	59		 pop	 ecx
  00301	c3		 ret	 0
__unwindfunclet$?CreateNormalBuffTemplete@ioBuffMaker@@IAEPAVioBuff@@HH@Z$77:
  00302	ff 75 08	 push	 DWORD PTR $T529599[ebp]
  00305	e8 00 00 00 00	 call	 ??3@YAXPAX@Z		; operator delete
  0030a	59		 pop	 ecx
  0030b	c3		 ret	 0
__unwindfunclet$?CreateNormalBuffTemplete@ioBuffMaker@@IAEPAVioBuff@@HH@Z$78:
  0030c	ff 75 08	 push	 DWORD PTR $T529603[ebp]
  0030f	e8 00 00 00 00	 call	 ??3@YAXPAX@Z		; operator delete
  00314	59		 pop	 ecx
  00315	c3		 ret	 0
__unwindfunclet$?CreateNormalBuffTemplete@ioBuffMaker@@IAEPAVioBuff@@HH@Z$79:
  00316	ff 75 08	 push	 DWORD PTR $T529607[ebp]
  00319	e8 00 00 00 00	 call	 ??3@YAXPAX@Z		; operator delete
  0031e	59		 pop	 ecx
  0031f	c3		 ret	 0
__unwindfunclet$?CreateNormalBuffTemplete@ioBuffMaker@@IAEPAVioBuff@@HH@Z$80:
  00320	ff 75 08	 push	 DWORD PTR $T529611[ebp]
  00323	e8 00 00 00 00	 call	 ??3@YAXPAX@Z		; operator delete
  00328	59		 pop	 ecx
  00329	c3		 ret	 0
__unwindfunclet$?CreateNormalBuffTemplete@ioBuffMaker@@IAEPAVioBuff@@HH@Z$81:
  0032a	ff 75 08	 push	 DWORD PTR $T529615[ebp]
  0032d	e8 00 00 00 00	 call	 ??3@YAXPAX@Z		; operator delete
  00332	59		 pop	 ecx
  00333	c3		 ret	 0
__unwindfunclet$?CreateNormalBuffTemplete@ioBuffMaker@@IAEPAVioBuff@@HH@Z$82:
  00334	ff 75 08	 push	 DWORD PTR $T529619[ebp]
  00337	e8 00 00 00 00	 call	 ??3@YAXPAX@Z		; operator delete
  0033c	59		 pop	 ecx
  0033d	c3		 ret	 0
__unwindfunclet$?CreateNormalBuffTemplete@ioBuffMaker@@IAEPAVioBuff@@HH@Z$83:
  0033e	ff 75 08	 push	 DWORD PTR $T529623[ebp]
  00341	e8 00 00 00 00	 call	 ??3@YAXPAX@Z		; operator delete
  00346	59		 pop	 ecx
  00347	c3		 ret	 0
__unwindfunclet$?CreateNormalBuffTemplete@ioBuffMaker@@IAEPAVioBuff@@HH@Z$84:
  00348	ff 75 08	 push	 DWORD PTR $T529627[ebp]
  0034b	e8 00 00 00 00	 call	 ??3@YAXPAX@Z		; operator delete
  00350	59		 pop	 ecx
  00351	c3		 ret	 0
__unwindfunclet$?CreateNormalBuffTemplete@ioBuffMaker@@IAEPAVioBuff@@HH@Z$85:
  00352	ff 75 08	 push	 DWORD PTR $T529631[ebp]
  00355	e8 00 00 00 00	 call	 ??3@YAXPAX@Z		; operator delete
  0035a	59		 pop	 ecx
  0035b	c3		 ret	 0
__unwindfunclet$?CreateNormalBuffTemplete@ioBuffMaker@@IAEPAVioBuff@@HH@Z$86:
  0035c	ff 75 08	 push	 DWORD PTR $T529635[ebp]
  0035f	e8 00 00 00 00	 call	 ??3@YAXPAX@Z		; operator delete
  00364	59		 pop	 ecx
  00365	c3		 ret	 0
__unwindfunclet$?CreateNormalBuffTemplete@ioBuffMaker@@IAEPAVioBuff@@HH@Z$87:
  00366	ff 75 08	 push	 DWORD PTR $T529639[ebp]
  00369	e8 00 00 00 00	 call	 ??3@YAXPAX@Z		; operator delete
  0036e	59		 pop	 ecx
  0036f	c3		 ret	 0
__unwindfunclet$?CreateNormalBuffTemplete@ioBuffMaker@@IAEPAVioBuff@@HH@Z$88:
  00370	ff 75 08	 push	 DWORD PTR $T529643[ebp]
  00373	e8 00 00 00 00	 call	 ??3@YAXPAX@Z		; operator delete
  00378	59		 pop	 ecx
  00379	c3		 ret	 0
__unwindfunclet$?CreateNormalBuffTemplete@ioBuffMaker@@IAEPAVioBuff@@HH@Z$89:
  0037a	ff 75 08	 push	 DWORD PTR $T529647[ebp]
  0037d	e8 00 00 00 00	 call	 ??3@YAXPAX@Z		; operator delete
  00382	59		 pop	 ecx
  00383	c3		 ret	 0
__unwindfunclet$?CreateNormalBuffTemplete@ioBuffMaker@@IAEPAVioBuff@@HH@Z$90:
  00384	ff 75 08	 push	 DWORD PTR $T529651[ebp]
  00387	e8 00 00 00 00	 call	 ??3@YAXPAX@Z		; operator delete
  0038c	59		 pop	 ecx
  0038d	c3		 ret	 0
__unwindfunclet$?CreateNormalBuffTemplete@ioBuffMaker@@IAEPAVioBuff@@HH@Z$91:
  0038e	ff 75 08	 push	 DWORD PTR $T529655[ebp]
  00391	e8 00 00 00 00	 call	 ??3@YAXPAX@Z		; operator delete
  00396	59		 pop	 ecx
  00397	c3		 ret	 0
__unwindfunclet$?CreateNormalBuffTemplete@ioBuffMaker@@IAEPAVioBuff@@HH@Z$92:
  00398	ff 75 08	 push	 DWORD PTR $T529659[ebp]
  0039b	e8 00 00 00 00	 call	 ??3@YAXPAX@Z		; operator delete
  003a0	59		 pop	 ecx
  003a1	c3		 ret	 0
__unwindfunclet$?CreateNormalBuffTemplete@ioBuffMaker@@IAEPAVioBuff@@HH@Z$93:
  003a2	ff 75 08	 push	 DWORD PTR $T529663[ebp]
  003a5	e8 00 00 00 00	 call	 ??3@YAXPAX@Z		; operator delete
  003aa	59		 pop	 ecx
  003ab	c3		 ret	 0
__unwindfunclet$?CreateNormalBuffTemplete@ioBuffMaker@@IAEPAVioBuff@@HH@Z$94:
  003ac	ff 75 08	 push	 DWORD PTR $T529667[ebp]
  003af	e8 00 00 00 00	 call	 ??3@YAXPAX@Z		; operator delete
  003b4	59		 pop	 ecx
  003b5	c3		 ret	 0
__unwindfunclet$?CreateNormalBuffTemplete@ioBuffMaker@@IAEPAVioBuff@@HH@Z$95:
  003b6	ff 75 08	 push	 DWORD PTR $T529671[ebp]
  003b9	e8 00 00 00 00	 call	 ??3@YAXPAX@Z		; operator delete
  003be	59		 pop	 ecx
  003bf	c3		 ret	 0
__unwindfunclet$?CreateNormalBuffTemplete@ioBuffMaker@@IAEPAVioBuff@@HH@Z$96:
  003c0	ff 75 08	 push	 DWORD PTR $T529675[ebp]
  003c3	e8 00 00 00 00	 call	 ??3@YAXPAX@Z		; operator delete
  003c8	59		 pop	 ecx
  003c9	c3		 ret	 0
__unwindfunclet$?CreateNormalBuffTemplete@ioBuffMaker@@IAEPAVioBuff@@HH@Z$97:
  003ca	ff 75 08	 push	 DWORD PTR $T529679[ebp]
  003cd	e8 00 00 00 00	 call	 ??3@YAXPAX@Z		; operator delete
  003d2	59		 pop	 ecx
  003d3	c3		 ret	 0
__unwindfunclet$?CreateNormalBuffTemplete@ioBuffMaker@@IAEPAVioBuff@@HH@Z$98:
  003d4	ff 75 08	 push	 DWORD PTR $T529683[ebp]
  003d7	e8 00 00 00 00	 call	 ??3@YAXPAX@Z		; operator delete
  003dc	59		 pop	 ecx
  003dd	c3		 ret	 0
__unwindfunclet$?CreateNormalBuffTemplete@ioBuffMaker@@IAEPAVioBuff@@HH@Z$99:
  003de	ff 75 08	 push	 DWORD PTR $T529687[ebp]
  003e1	e8 00 00 00 00	 call	 ??3@YAXPAX@Z		; operator delete
  003e6	59		 pop	 ecx
  003e7	c3		 ret	 0
__unwindfunclet$?CreateNormalBuffTemplete@ioBuffMaker@@IAEPAVioBuff@@HH@Z$100:
  003e8	ff 75 08	 push	 DWORD PTR $T529691[ebp]
  003eb	e8 00 00 00 00	 call	 ??3@YAXPAX@Z		; operator delete
  003f0	59		 pop	 ecx
  003f1	c3		 ret	 0
__unwindfunclet$?CreateNormalBuffTemplete@ioBuffMaker@@IAEPAVioBuff@@HH@Z$101:
  003f2	ff 75 08	 push	 DWORD PTR $T529695[ebp]
  003f5	e8 00 00 00 00	 call	 ??3@YAXPAX@Z		; operator delete
  003fa	59		 pop	 ecx
  003fb	c3		 ret	 0
__unwindfunclet$?CreateNormalBuffTemplete@ioBuffMaker@@IAEPAVioBuff@@HH@Z$102:
  003fc	ff 75 08	 push	 DWORD PTR $T529699[ebp]
  003ff	e8 00 00 00 00	 call	 ??3@YAXPAX@Z		; operator delete
  00404	59		 pop	 ecx
  00405	c3		 ret	 0
__unwindfunclet$?CreateNormalBuffTemplete@ioBuffMaker@@IAEPAVioBuff@@HH@Z$103:
  00406	ff 75 08	 push	 DWORD PTR $T529703[ebp]
  00409	e8 00 00 00 00	 call	 ??3@YAXPAX@Z		; operator delete
  0040e	59		 pop	 ecx
  0040f	c3		 ret	 0
__unwindfunclet$?CreateNormalBuffTemplete@ioBuffMaker@@IAEPAVioBuff@@HH@Z$104:
  00410	ff 75 08	 push	 DWORD PTR $T529707[ebp]
  00413	e8 00 00 00 00	 call	 ??3@YAXPAX@Z		; operator delete
  00418	59		 pop	 ecx
  00419	c3		 ret	 0
__unwindfunclet$?CreateNormalBuffTemplete@ioBuffMaker@@IAEPAVioBuff@@HH@Z$105:
  0041a	ff 75 08	 push	 DWORD PTR $T529711[ebp]
  0041d	e8 00 00 00 00	 call	 ??3@YAXPAX@Z		; operator delete
  00422	59		 pop	 ecx
  00423	c3		 ret	 0
__unwindfunclet$?CreateNormalBuffTemplete@ioBuffMaker@@IAEPAVioBuff@@HH@Z$106:
  00424	ff 75 08	 push	 DWORD PTR $T529715[ebp]
  00427	e8 00 00 00 00	 call	 ??3@YAXPAX@Z		; operator delete
  0042c	59		 pop	 ecx
  0042d	c3		 ret	 0
__unwindfunclet$?CreateNormalBuffTemplete@ioBuffMaker@@IAEPAVioBuff@@HH@Z$107:
  0042e	ff 75 08	 push	 DWORD PTR $T529719[ebp]
  00431	e8 00 00 00 00	 call	 ??3@YAXPAX@Z		; operator delete
  00436	59		 pop	 ecx
  00437	c3		 ret	 0
__unwindfunclet$?CreateNormalBuffTemplete@ioBuffMaker@@IAEPAVioBuff@@HH@Z$108:
  00438	ff 75 08	 push	 DWORD PTR $T529723[ebp]
  0043b	e8 00 00 00 00	 call	 ??3@YAXPAX@Z		; operator delete
  00440	59		 pop	 ecx
  00441	c3		 ret	 0
__unwindfunclet$?CreateNormalBuffTemplete@ioBuffMaker@@IAEPAVioBuff@@HH@Z$109:
  00442	ff 75 08	 push	 DWORD PTR $T529727[ebp]
  00445	e8 00 00 00 00	 call	 ??3@YAXPAX@Z		; operator delete
  0044a	59		 pop	 ecx
  0044b	c3		 ret	 0
__unwindfunclet$?CreateNormalBuffTemplete@ioBuffMaker@@IAEPAVioBuff@@HH@Z$110:
  0044c	ff 75 08	 push	 DWORD PTR $T529731[ebp]
  0044f	e8 00 00 00 00	 call	 ??3@YAXPAX@Z		; operator delete
  00454	59		 pop	 ecx
  00455	c3		 ret	 0
__unwindfunclet$?CreateNormalBuffTemplete@ioBuffMaker@@IAEPAVioBuff@@HH@Z$111:
  00456	ff 75 08	 push	 DWORD PTR $T529735[ebp]
  00459	e8 00 00 00 00	 call	 ??3@YAXPAX@Z		; operator delete
  0045e	59		 pop	 ecx
  0045f	c3		 ret	 0
__unwindfunclet$?CreateNormalBuffTemplete@ioBuffMaker@@IAEPAVioBuff@@HH@Z$112:
  00460	ff 75 08	 push	 DWORD PTR $T529739[ebp]
  00463	e8 00 00 00 00	 call	 ??3@YAXPAX@Z		; operator delete
  00468	59		 pop	 ecx
  00469	c3		 ret	 0
__unwindfunclet$?CreateNormalBuffTemplete@ioBuffMaker@@IAEPAVioBuff@@HH@Z$113:
  0046a	ff 75 08	 push	 DWORD PTR $T529743[ebp]
  0046d	e8 00 00 00 00	 call	 ??3@YAXPAX@Z		; operator delete
  00472	59		 pop	 ecx
  00473	c3		 ret	 0
__unwindfunclet$?CreateNormalBuffTemplete@ioBuffMaker@@IAEPAVioBuff@@HH@Z$114:
  00474	ff 75 08	 push	 DWORD PTR $T529747[ebp]
  00477	e8 00 00 00 00	 call	 ??3@YAXPAX@Z		; operator delete
  0047c	59		 pop	 ecx
  0047d	c3		 ret	 0
__unwindfunclet$?CreateNormalBuffTemplete@ioBuffMaker@@IAEPAVioBuff@@HH@Z$115:
  0047e	ff 75 08	 push	 DWORD PTR $T529751[ebp]
  00481	e8 00 00 00 00	 call	 ??3@YAXPAX@Z		; operator delete
  00486	59		 pop	 ecx
  00487	c3		 ret	 0
__unwindfunclet$?CreateNormalBuffTemplete@ioBuffMaker@@IAEPAVioBuff@@HH@Z$116:
  00488	ff 75 08	 push	 DWORD PTR $T529755[ebp]
  0048b	e8 00 00 00 00	 call	 ??3@YAXPAX@Z		; operator delete
  00490	59		 pop	 ecx
  00491	c3		 ret	 0
__unwindfunclet$?CreateNormalBuffTemplete@ioBuffMaker@@IAEPAVioBuff@@HH@Z$117:
  00492	ff 75 08	 push	 DWORD PTR $T529759[ebp]
  00495	e8 00 00 00 00	 call	 ??3@YAXPAX@Z		; operator delete
  0049a	59		 pop	 ecx
  0049b	c3		 ret	 0
__unwindfunclet$?CreateNormalBuffTemplete@ioBuffMaker@@IAEPAVioBuff@@HH@Z$118:
  0049c	ff 75 08	 push	 DWORD PTR $T529763[ebp]
  0049f	e8 00 00 00 00	 call	 ??3@YAXPAX@Z		; operator delete
  004a4	59		 pop	 ecx
  004a5	c3		 ret	 0
__unwindfunclet$?CreateNormalBuffTemplete@ioBuffMaker@@IAEPAVioBuff@@HH@Z$119:
  004a6	ff 75 08	 push	 DWORD PTR $T529767[ebp]
  004a9	e8 00 00 00 00	 call	 ??3@YAXPAX@Z		; operator delete
  004ae	59		 pop	 ecx
  004af	c3		 ret	 0
__unwindfunclet$?CreateNormalBuffTemplete@ioBuffMaker@@IAEPAVioBuff@@HH@Z$120:
  004b0	ff 75 08	 push	 DWORD PTR $T529771[ebp]
  004b3	e8 00 00 00 00	 call	 ??3@YAXPAX@Z		; operator delete
  004b8	59		 pop	 ecx
  004b9	c3		 ret	 0
__unwindfunclet$?CreateNormalBuffTemplete@ioBuffMaker@@IAEPAVioBuff@@HH@Z$121:
  004ba	ff 75 08	 push	 DWORD PTR $T529775[ebp]
  004bd	e8 00 00 00 00	 call	 ??3@YAXPAX@Z		; operator delete
  004c2	59		 pop	 ecx
  004c3	c3		 ret	 0
__unwindfunclet$?CreateNormalBuffTemplete@ioBuffMaker@@IAEPAVioBuff@@HH@Z$122:
  004c4	ff 75 08	 push	 DWORD PTR $T529779[ebp]
  004c7	e8 00 00 00 00	 call	 ??3@YAXPAX@Z		; operator delete
  004cc	59		 pop	 ecx
  004cd	c3		 ret	 0
__unwindfunclet$?CreateNormalBuffTemplete@ioBuffMaker@@IAEPAVioBuff@@HH@Z$123:
  004ce	ff 75 08	 push	 DWORD PTR $T529783[ebp]
  004d1	e8 00 00 00 00	 call	 ??3@YAXPAX@Z		; operator delete
  004d6	59		 pop	 ecx
  004d7	c3		 ret	 0
__unwindfunclet$?CreateNormalBuffTemplete@ioBuffMaker@@IAEPAVioBuff@@HH@Z$124:
  004d8	ff 75 08	 push	 DWORD PTR $T529787[ebp]
  004db	e8 00 00 00 00	 call	 ??3@YAXPAX@Z		; operator delete
  004e0	59		 pop	 ecx
  004e1	c3		 ret	 0
__unwindfunclet$?CreateNormalBuffTemplete@ioBuffMaker@@IAEPAVioBuff@@HH@Z$125:
  004e2	ff 75 08	 push	 DWORD PTR $T529791[ebp]
  004e5	e8 00 00 00 00	 call	 ??3@YAXPAX@Z		; operator delete
  004ea	59		 pop	 ecx
  004eb	c3		 ret	 0
__unwindfunclet$?CreateNormalBuffTemplete@ioBuffMaker@@IAEPAVioBuff@@HH@Z$126:
  004ec	ff 75 08	 push	 DWORD PTR $T529795[ebp]
  004ef	e8 00 00 00 00	 call	 ??3@YAXPAX@Z		; operator delete
  004f4	59		 pop	 ecx
  004f5	c3		 ret	 0
__unwindfunclet$?CreateNormalBuffTemplete@ioBuffMaker@@IAEPAVioBuff@@HH@Z$127:
  004f6	ff 75 08	 push	 DWORD PTR $T529799[ebp]
  004f9	e8 00 00 00 00	 call	 ??3@YAXPAX@Z		; operator delete
  004fe	59		 pop	 ecx
  004ff	c3		 ret	 0
__unwindfunclet$?CreateNormalBuffTemplete@ioBuffMaker@@IAEPAVioBuff@@HH@Z$128:
  00500	ff 75 08	 push	 DWORD PTR $T529803[ebp]
  00503	e8 00 00 00 00	 call	 ??3@YAXPAX@Z		; operator delete
  00508	59		 pop	 ecx
  00509	c3		 ret	 0
__unwindfunclet$?CreateNormalBuffTemplete@ioBuffMaker@@IAEPAVioBuff@@HH@Z$129:
  0050a	ff 75 08	 push	 DWORD PTR $T529807[ebp]
  0050d	e8 00 00 00 00	 call	 ??3@YAXPAX@Z		; operator delete
  00512	59		 pop	 ecx
  00513	c3		 ret	 0
__unwindfunclet$?CreateNormalBuffTemplete@ioBuffMaker@@IAEPAVioBuff@@HH@Z$130:
  00514	ff 75 08	 push	 DWORD PTR $T529811[ebp]
  00517	e8 00 00 00 00	 call	 ??3@YAXPAX@Z		; operator delete
  0051c	59		 pop	 ecx
  0051d	c3		 ret	 0
__unwindfunclet$?CreateNormalBuffTemplete@ioBuffMaker@@IAEPAVioBuff@@HH@Z$131:
  0051e	ff 75 08	 push	 DWORD PTR $T529815[ebp]
  00521	e8 00 00 00 00	 call	 ??3@YAXPAX@Z		; operator delete
  00526	59		 pop	 ecx
  00527	c3		 ret	 0
__unwindfunclet$?CreateNormalBuffTemplete@ioBuffMaker@@IAEPAVioBuff@@HH@Z$132:
  00528	ff 75 08	 push	 DWORD PTR $T529819[ebp]
  0052b	e8 00 00 00 00	 call	 ??3@YAXPAX@Z		; operator delete
  00530	59		 pop	 ecx
  00531	c3		 ret	 0
__unwindfunclet$?CreateNormalBuffTemplete@ioBuffMaker@@IAEPAVioBuff@@HH@Z$133:
  00532	ff 75 08	 push	 DWORD PTR $T529823[ebp]
  00535	e8 00 00 00 00	 call	 ??3@YAXPAX@Z		; operator delete
  0053a	59		 pop	 ecx
  0053b	c3		 ret	 0
__unwindfunclet$?CreateNormalBuffTemplete@ioBuffMaker@@IAEPAVioBuff@@HH@Z$134:
  0053c	ff 75 08	 push	 DWORD PTR $T529827[ebp]
  0053f	e8 00 00 00 00	 call	 ??3@YAXPAX@Z		; operator delete
  00544	59		 pop	 ecx
  00545	c3		 ret	 0
__unwindfunclet$?CreateNormalBuffTemplete@ioBuffMaker@@IAEPAVioBuff@@HH@Z$135:
  00546	ff 75 08	 push	 DWORD PTR $T529831[ebp]
  00549	e8 00 00 00 00	 call	 ??3@YAXPAX@Z		; operator delete
  0054e	59		 pop	 ecx
  0054f	c3		 ret	 0
__unwindfunclet$?CreateNormalBuffTemplete@ioBuffMaker@@IAEPAVioBuff@@HH@Z$136:
  00550	ff 75 08	 push	 DWORD PTR $T529835[ebp]
  00553	e8 00 00 00 00	 call	 ??3@YAXPAX@Z		; operator delete
  00558	59		 pop	 ecx
  00559	c3		 ret	 0
__unwindfunclet$?CreateNormalBuffTemplete@ioBuffMaker@@IAEPAVioBuff@@HH@Z$137:
  0055a	ff 75 08	 push	 DWORD PTR $T529839[ebp]
  0055d	e8 00 00 00 00	 call	 ??3@YAXPAX@Z		; operator delete
  00562	59		 pop	 ecx
  00563	c3		 ret	 0
__unwindfunclet$?CreateNormalBuffTemplete@ioBuffMaker@@IAEPAVioBuff@@HH@Z$138:
  00564	ff 75 08	 push	 DWORD PTR $T529843[ebp]
  00567	e8 00 00 00 00	 call	 ??3@YAXPAX@Z		; operator delete
  0056c	59		 pop	 ecx
  0056d	c3		 ret	 0
__unwindfunclet$?CreateNormalBuffTemplete@ioBuffMaker@@IAEPAVioBuff@@HH@Z$139:
  0056e	ff 75 08	 push	 DWORD PTR $T529847[ebp]
  00571	e8 00 00 00 00	 call	 ??3@YAXPAX@Z		; operator delete
  00576	59		 pop	 ecx
  00577	c3		 ret	 0
__unwindfunclet$?CreateNormalBuffTemplete@ioBuffMaker@@IAEPAVioBuff@@HH@Z$140:
  00578	ff 75 08	 push	 DWORD PTR $T529851[ebp]
  0057b	e8 00 00 00 00	 call	 ??3@YAXPAX@Z		; operator delete
  00580	59		 pop	 ecx
  00581	c3		 ret	 0
__unwindfunclet$?CreateNormalBuffTemplete@ioBuffMaker@@IAEPAVioBuff@@HH@Z$141:
  00582	ff 75 08	 push	 DWORD PTR $T529855[ebp]
  00585	e8 00 00 00 00	 call	 ??3@YAXPAX@Z		; operator delete
  0058a	59		 pop	 ecx
  0058b	c3		 ret	 0
__unwindfunclet$?CreateNormalBuffTemplete@ioBuffMaker@@IAEPAVioBuff@@HH@Z$142:
  0058c	ff 75 08	 push	 DWORD PTR $T529859[ebp]
  0058f	e8 00 00 00 00	 call	 ??3@YAXPAX@Z		; operator delete
  00594	59		 pop	 ecx
  00595	c3		 ret	 0
__unwindfunclet$?CreateNormalBuffTemplete@ioBuffMaker@@IAEPAVioBuff@@HH@Z$143:
  00596	ff 75 08	 push	 DWORD PTR $T529863[ebp]
  00599	e8 00 00 00 00	 call	 ??3@YAXPAX@Z		; operator delete
  0059e	59		 pop	 ecx
  0059f	c3		 ret	 0
__unwindfunclet$?CreateNormalBuffTemplete@ioBuffMaker@@IAEPAVioBuff@@HH@Z$144:
  005a0	ff 75 08	 push	 DWORD PTR $T529867[ebp]
  005a3	e8 00 00 00 00	 call	 ??3@YAXPAX@Z		; operator delete
  005a8	59		 pop	 ecx
  005a9	c3		 ret	 0
__unwindfunclet$?CreateNormalBuffTemplete@ioBuffMaker@@IAEPAVioBuff@@HH@Z$145:
  005aa	ff 75 08	 push	 DWORD PTR $T529871[ebp]
  005ad	e8 00 00 00 00	 call	 ??3@YAXPAX@Z		; operator delete
  005b2	59		 pop	 ecx
  005b3	c3		 ret	 0
__unwindfunclet$?CreateNormalBuffTemplete@ioBuffMaker@@IAEPAVioBuff@@HH@Z$146:
  005b4	ff 75 08	 push	 DWORD PTR $T529875[ebp]
  005b7	e8 00 00 00 00	 call	 ??3@YAXPAX@Z		; operator delete
  005bc	59		 pop	 ecx
  005bd	c3		 ret	 0
__unwindfunclet$?CreateNormalBuffTemplete@ioBuffMaker@@IAEPAVioBuff@@HH@Z$147:
  005be	ff 75 08	 push	 DWORD PTR $T529879[ebp]
  005c1	e8 00 00 00 00	 call	 ??3@YAXPAX@Z		; operator delete
  005c6	59		 pop	 ecx
  005c7	c3		 ret	 0
__unwindfunclet$?CreateNormalBuffTemplete@ioBuffMaker@@IAEPAVioBuff@@HH@Z$148:
  005c8	ff 75 08	 push	 DWORD PTR $T529883[ebp]
  005cb	e8 00 00 00 00	 call	 ??3@YAXPAX@Z		; operator delete
  005d0	59		 pop	 ecx
  005d1	c3		 ret	 0
__unwindfunclet$?CreateNormalBuffTemplete@ioBuffMaker@@IAEPAVioBuff@@HH@Z$149:
  005d2	ff 75 08	 push	 DWORD PTR $T529887[ebp]
  005d5	e8 00 00 00 00	 call	 ??3@YAXPAX@Z		; operator delete
  005da	59		 pop	 ecx
  005db	c3		 ret	 0
__unwindfunclet$?CreateNormalBuffTemplete@ioBuffMaker@@IAEPAVioBuff@@HH@Z$150:
  005dc	ff 75 08	 push	 DWORD PTR $T529891[ebp]
  005df	e8 00 00 00 00	 call	 ??3@YAXPAX@Z		; operator delete
  005e4	59		 pop	 ecx
  005e5	c3		 ret	 0
__unwindfunclet$?CreateNormalBuffTemplete@ioBuffMaker@@IAEPAVioBuff@@HH@Z$151:
  005e6	ff 75 08	 push	 DWORD PTR $T529895[ebp]
  005e9	e8 00 00 00 00	 call	 ??3@YAXPAX@Z		; operator delete
  005ee	59		 pop	 ecx
  005ef	c3		 ret	 0
__unwindfunclet$?CreateNormalBuffTemplete@ioBuffMaker@@IAEPAVioBuff@@HH@Z$152:
  005f0	ff 75 08	 push	 DWORD PTR $T529899[ebp]
  005f3	e8 00 00 00 00	 call	 ??3@YAXPAX@Z		; operator delete
  005f8	59		 pop	 ecx
  005f9	c3		 ret	 0
__unwindfunclet$?CreateNormalBuffTemplete@ioBuffMaker@@IAEPAVioBuff@@HH@Z$153:
  005fa	ff 75 08	 push	 DWORD PTR $T529903[ebp]
  005fd	e8 00 00 00 00	 call	 ??3@YAXPAX@Z		; operator delete
  00602	59		 pop	 ecx
  00603	c3		 ret	 0
__unwindfunclet$?CreateNormalBuffTemplete@ioBuffMaker@@IAEPAVioBuff@@HH@Z$154:
  00604	ff 75 08	 push	 DWORD PTR $T529907[ebp]
  00607	e8 00 00 00 00	 call	 ??3@YAXPAX@Z		; operator delete
  0060c	59		 pop	 ecx
  0060d	c3		 ret	 0
__unwindfunclet$?CreateNormalBuffTemplete@ioBuffMaker@@IAEPAVioBuff@@HH@Z$155:
  0060e	ff 75 08	 push	 DWORD PTR $T529911[ebp]
  00611	e8 00 00 00 00	 call	 ??3@YAXPAX@Z		; operator delete
  00616	59		 pop	 ecx
  00617	c3		 ret	 0
__unwindfunclet$?CreateNormalBuffTemplete@ioBuffMaker@@IAEPAVioBuff@@HH@Z$156:
  00618	ff 75 08	 push	 DWORD PTR $T529915[ebp]
  0061b	e8 00 00 00 00	 call	 ??3@YAXPAX@Z		; operator delete
  00620	59		 pop	 ecx
  00621	c3		 ret	 0
__unwindfunclet$?CreateNormalBuffTemplete@ioBuffMaker@@IAEPAVioBuff@@HH@Z$157:
  00622	ff 75 08	 push	 DWORD PTR $T529919[ebp]
  00625	e8 00 00 00 00	 call	 ??3@YAXPAX@Z		; operator delete
  0062a	59		 pop	 ecx
  0062b	c3		 ret	 0
__unwindfunclet$?CreateNormalBuffTemplete@ioBuffMaker@@IAEPAVioBuff@@HH@Z$158:
  0062c	ff 75 08	 push	 DWORD PTR $T529923[ebp]
  0062f	e8 00 00 00 00	 call	 ??3@YAXPAX@Z		; operator delete
  00634	59		 pop	 ecx
  00635	c3		 ret	 0
__unwindfunclet$?CreateNormalBuffTemplete@ioBuffMaker@@IAEPAVioBuff@@HH@Z$159:
  00636	ff 75 08	 push	 DWORD PTR $T529927[ebp]
  00639	e8 00 00 00 00	 call	 ??3@YAXPAX@Z		; operator delete
  0063e	59		 pop	 ecx
  0063f	c3		 ret	 0
__unwindfunclet$?CreateNormalBuffTemplete@ioBuffMaker@@IAEPAVioBuff@@HH@Z$160:
  00640	ff 75 08	 push	 DWORD PTR $T529931[ebp]
  00643	e8 00 00 00 00	 call	 ??3@YAXPAX@Z		; operator delete
  00648	59		 pop	 ecx
  00649	c3		 ret	 0
__unwindfunclet$?CreateNormalBuffTemplete@ioBuffMaker@@IAEPAVioBuff@@HH@Z$161:
  0064a	ff 75 08	 push	 DWORD PTR $T529935[ebp]
  0064d	e8 00 00 00 00	 call	 ??3@YAXPAX@Z		; operator delete
  00652	59		 pop	 ecx
  00653	c3		 ret	 0
__unwindfunclet$?CreateNormalBuffTemplete@ioBuffMaker@@IAEPAVioBuff@@HH@Z$162:
  00654	ff 75 08	 push	 DWORD PTR $T529939[ebp]
  00657	e8 00 00 00 00	 call	 ??3@YAXPAX@Z		; operator delete
  0065c	59		 pop	 ecx
  0065d	c3		 ret	 0
__unwindfunclet$?CreateNormalBuffTemplete@ioBuffMaker@@IAEPAVioBuff@@HH@Z$163:
  0065e	ff 75 08	 push	 DWORD PTR $T529943[ebp]
  00661	e8 00 00 00 00	 call	 ??3@YAXPAX@Z		; operator delete
  00666	59		 pop	 ecx
  00667	c3		 ret	 0
__unwindfunclet$?CreateNormalBuffTemplete@ioBuffMaker@@IAEPAVioBuff@@HH@Z$164:
  00668	ff 75 08	 push	 DWORD PTR $T529947[ebp]
  0066b	e8 00 00 00 00	 call	 ??3@YAXPAX@Z		; operator delete
  00670	59		 pop	 ecx
  00671	c3		 ret	 0
__unwindfunclet$?CreateNormalBuffTemplete@ioBuffMaker@@IAEPAVioBuff@@HH@Z$165:
  00672	ff 75 08	 push	 DWORD PTR $T529951[ebp]
  00675	e8 00 00 00 00	 call	 ??3@YAXPAX@Z		; operator delete
  0067a	59		 pop	 ecx
  0067b	c3		 ret	 0
__unwindfunclet$?CreateNormalBuffTemplete@ioBuffMaker@@IAEPAVioBuff@@HH@Z$166:
  0067c	ff 75 08	 push	 DWORD PTR $T529955[ebp]
  0067f	e8 00 00 00 00	 call	 ??3@YAXPAX@Z		; operator delete
  00684	59		 pop	 ecx
  00685	c3		 ret	 0
__unwindfunclet$?CreateNormalBuffTemplete@ioBuffMaker@@IAEPAVioBuff@@HH@Z$167:
  00686	ff 75 08	 push	 DWORD PTR $T529959[ebp]
  00689	e8 00 00 00 00	 call	 ??3@YAXPAX@Z		; operator delete
  0068e	59		 pop	 ecx
  0068f	c3		 ret	 0
__unwindfunclet$?CreateNormalBuffTemplete@ioBuffMaker@@IAEPAVioBuff@@HH@Z$168:
  00690	ff 75 08	 push	 DWORD PTR $T529963[ebp]
  00693	e8 00 00 00 00	 call	 ??3@YAXPAX@Z		; operator delete
  00698	59		 pop	 ecx
  00699	c3		 ret	 0
__unwindfunclet$?CreateNormalBuffTemplete@ioBuffMaker@@IAEPAVioBuff@@HH@Z$169:
  0069a	ff 75 08	 push	 DWORD PTR $T529967[ebp]
  0069d	e8 00 00 00 00	 call	 ??3@YAXPAX@Z		; operator delete
  006a2	59		 pop	 ecx
  006a3	c3		 ret	 0
__unwindfunclet$?CreateNormalBuffTemplete@ioBuffMaker@@IAEPAVioBuff@@HH@Z$170:
  006a4	ff 75 08	 push	 DWORD PTR $T529971[ebp]
  006a7	e8 00 00 00 00	 call	 ??3@YAXPAX@Z		; operator delete
  006ac	59		 pop	 ecx
  006ad	c3		 ret	 0
__unwindfunclet$?CreateNormalBuffTemplete@ioBuffMaker@@IAEPAVioBuff@@HH@Z$171:
  006ae	ff 75 08	 push	 DWORD PTR $T529975[ebp]
  006b1	e8 00 00 00 00	 call	 ??3@YAXPAX@Z		; operator delete
  006b6	59		 pop	 ecx
  006b7	c3		 ret	 0
__unwindfunclet$?CreateNormalBuffTemplete@ioBuffMaker@@IAEPAVioBuff@@HH@Z$172:
  006b8	ff 75 08	 push	 DWORD PTR $T529979[ebp]
  006bb	e8 00 00 00 00	 call	 ??3@YAXPAX@Z		; operator delete
  006c0	59		 pop	 ecx
  006c1	c3		 ret	 0
__unwindfunclet$?CreateNormalBuffTemplete@ioBuffMaker@@IAEPAVioBuff@@HH@Z$173:
  006c2	ff 75 08	 push	 DWORD PTR $T529983[ebp]
  006c5	e8 00 00 00 00	 call	 ??3@YAXPAX@Z		; operator delete
  006ca	59		 pop	 ecx
  006cb	c3		 ret	 0
__unwindfunclet$?CreateNormalBuffTemplete@ioBuffMaker@@IAEPAVioBuff@@HH@Z$174:
  006cc	ff 75 08	 push	 DWORD PTR $T529987[ebp]
  006cf	e8 00 00 00 00	 call	 ??3@YAXPAX@Z		; operator delete
  006d4	59		 pop	 ecx
  006d5	c3		 ret	 0
__unwindfunclet$?CreateNormalBuffTemplete@ioBuffMaker@@IAEPAVioBuff@@HH@Z$175:
  006d6	ff 75 08	 push	 DWORD PTR $T529991[ebp]
  006d9	e8 00 00 00 00	 call	 ??3@YAXPAX@Z		; operator delete
  006de	59		 pop	 ecx
  006df	c3		 ret	 0
__unwindfunclet$?CreateNormalBuffTemplete@ioBuffMaker@@IAEPAVioBuff@@HH@Z$176:
  006e0	ff 75 08	 push	 DWORD PTR $T529995[ebp]
  006e3	e8 00 00 00 00	 call	 ??3@YAXPAX@Z		; operator delete
  006e8	59		 pop	 ecx
  006e9	c3		 ret	 0
__unwindfunclet$?CreateNormalBuffTemplete@ioBuffMaker@@IAEPAVioBuff@@HH@Z$177:
  006ea	ff 75 08	 push	 DWORD PTR $T529999[ebp]
  006ed	e8 00 00 00 00	 call	 ??3@YAXPAX@Z		; operator delete
  006f2	59		 pop	 ecx
  006f3	c3		 ret	 0
__unwindfunclet$?CreateNormalBuffTemplete@ioBuffMaker@@IAEPAVioBuff@@HH@Z$178:
  006f4	ff 75 08	 push	 DWORD PTR $T530003[ebp]
  006f7	e8 00 00 00 00	 call	 ??3@YAXPAX@Z		; operator delete
  006fc	59		 pop	 ecx
  006fd	c3		 ret	 0
__unwindfunclet$?CreateNormalBuffTemplete@ioBuffMaker@@IAEPAVioBuff@@HH@Z$179:
  006fe	ff 75 08	 push	 DWORD PTR $T530007[ebp]
  00701	e8 00 00 00 00	 call	 ??3@YAXPAX@Z		; operator delete
  00706	59		 pop	 ecx
  00707	c3		 ret	 0
__unwindfunclet$?CreateNormalBuffTemplete@ioBuffMaker@@IAEPAVioBuff@@HH@Z$180:
  00708	ff 75 08	 push	 DWORD PTR $T530011[ebp]
  0070b	e8 00 00 00 00	 call	 ??3@YAXPAX@Z		; operator delete
  00710	59		 pop	 ecx
  00711	c3		 ret	 0
__unwindfunclet$?CreateNormalBuffTemplete@ioBuffMaker@@IAEPAVioBuff@@HH@Z$181:
  00712	ff 75 08	 push	 DWORD PTR $T530015[ebp]
  00715	e8 00 00 00 00	 call	 ??3@YAXPAX@Z		; operator delete
  0071a	59		 pop	 ecx
  0071b	c3		 ret	 0
__unwindfunclet$?CreateNormalBuffTemplete@ioBuffMaker@@IAEPAVioBuff@@HH@Z$182:
  0071c	ff 75 08	 push	 DWORD PTR $T530019[ebp]
  0071f	e8 00 00 00 00	 call	 ??3@YAXPAX@Z		; operator delete
  00724	59		 pop	 ecx
  00725	c3		 ret	 0
__unwindfunclet$?CreateNormalBuffTemplete@ioBuffMaker@@IAEPAVioBuff@@HH@Z$183:
  00726	ff 75 08	 push	 DWORD PTR $T530023[ebp]
  00729	e8 00 00 00 00	 call	 ??3@YAXPAX@Z		; operator delete
  0072e	59		 pop	 ecx
  0072f	c3		 ret	 0
__unwindfunclet$?CreateNormalBuffTemplete@ioBuffMaker@@IAEPAVioBuff@@HH@Z$184:
  00730	ff 75 08	 push	 DWORD PTR $T530027[ebp]
  00733	e8 00 00 00 00	 call	 ??3@YAXPAX@Z		; operator delete
  00738	59		 pop	 ecx
  00739	c3		 ret	 0
__unwindfunclet$?CreateNormalBuffTemplete@ioBuffMaker@@IAEPAVioBuff@@HH@Z$185:
  0073a	ff 75 08	 push	 DWORD PTR $T530031[ebp]
  0073d	e8 00 00 00 00	 call	 ??3@YAXPAX@Z		; operator delete
  00742	59		 pop	 ecx
  00743	c3		 ret	 0
__unwindfunclet$?CreateNormalBuffTemplete@ioBuffMaker@@IAEPAVioBuff@@HH@Z$186:
  00744	ff 75 08	 push	 DWORD PTR $T530035[ebp]
  00747	e8 00 00 00 00	 call	 ??3@YAXPAX@Z		; operator delete
  0074c	59		 pop	 ecx
  0074d	c3		 ret	 0
__unwindfunclet$?CreateNormalBuffTemplete@ioBuffMaker@@IAEPAVioBuff@@HH@Z$187:
  0074e	ff 75 08	 push	 DWORD PTR $T530039[ebp]
  00751	e8 00 00 00 00	 call	 ??3@YAXPAX@Z		; operator delete
  00756	59		 pop	 ecx
  00757	c3		 ret	 0
__unwindfunclet$?CreateNormalBuffTemplete@ioBuffMaker@@IAEPAVioBuff@@HH@Z$188:
  00758	ff 75 08	 push	 DWORD PTR $T530043[ebp]
  0075b	e8 00 00 00 00	 call	 ??3@YAXPAX@Z		; operator delete
  00760	59		 pop	 ecx
  00761	c3		 ret	 0
__unwindfunclet$?CreateNormalBuffTemplete@ioBuffMaker@@IAEPAVioBuff@@HH@Z$189:
  00762	ff 75 08	 push	 DWORD PTR $T530047[ebp]
  00765	e8 00 00 00 00	 call	 ??3@YAXPAX@Z		; operator delete
  0076a	59		 pop	 ecx
  0076b	c3		 ret	 0
__unwindfunclet$?CreateNormalBuffTemplete@ioBuffMaker@@IAEPAVioBuff@@HH@Z$190:
  0076c	ff 75 08	 push	 DWORD PTR $T530051[ebp]
  0076f	e8 00 00 00 00	 call	 ??3@YAXPAX@Z		; operator delete
  00774	59		 pop	 ecx
  00775	c3		 ret	 0
__unwindfunclet$?CreateNormalBuffTemplete@ioBuffMaker@@IAEPAVioBuff@@HH@Z$191:
  00776	ff 75 08	 push	 DWORD PTR $T530055[ebp]
  00779	e8 00 00 00 00	 call	 ??3@YAXPAX@Z		; operator delete
  0077e	59		 pop	 ecx
  0077f	c3		 ret	 0
__unwindfunclet$?CreateNormalBuffTemplete@ioBuffMaker@@IAEPAVioBuff@@HH@Z$192:
  00780	ff 75 08	 push	 DWORD PTR $T530059[ebp]
  00783	e8 00 00 00 00	 call	 ??3@YAXPAX@Z		; operator delete
  00788	59		 pop	 ecx
  00789	c3		 ret	 0
__unwindfunclet$?CreateNormalBuffTemplete@ioBuffMaker@@IAEPAVioBuff@@HH@Z$193:
  0078a	ff 75 08	 push	 DWORD PTR $T530063[ebp]
  0078d	e8 00 00 00 00	 call	 ??3@YAXPAX@Z		; operator delete
  00792	59		 pop	 ecx
  00793	c3		 ret	 0
__unwindfunclet$?CreateNormalBuffTemplete@ioBuffMaker@@IAEPAVioBuff@@HH@Z$194:
  00794	ff 75 08	 push	 DWORD PTR $T530067[ebp]
  00797	e8 00 00 00 00	 call	 ??3@YAXPAX@Z		; operator delete
  0079c	59		 pop	 ecx
  0079d	c3		 ret	 0
__unwindfunclet$?CreateNormalBuffTemplete@ioBuffMaker@@IAEPAVioBuff@@HH@Z$195:
  0079e	ff 75 08	 push	 DWORD PTR $T530071[ebp]
  007a1	e8 00 00 00 00	 call	 ??3@YAXPAX@Z		; operator delete
  007a6	59		 pop	 ecx
  007a7	c3		 ret	 0
__unwindfunclet$?CreateNormalBuffTemplete@ioBuffMaker@@IAEPAVioBuff@@HH@Z$196:
  007a8	ff 75 08	 push	 DWORD PTR $T530075[ebp]
  007ab	e8 00 00 00 00	 call	 ??3@YAXPAX@Z		; operator delete
  007b0	59		 pop	 ecx
  007b1	c3		 ret	 0
__unwindfunclet$?CreateNormalBuffTemplete@ioBuffMaker@@IAEPAVioBuff@@HH@Z$197:
  007b2	ff 75 08	 push	 DWORD PTR $T530079[ebp]
  007b5	e8 00 00 00 00	 call	 ??3@YAXPAX@Z		; operator delete
  007ba	59		 pop	 ecx
  007bb	c3		 ret	 0
__unwindfunclet$?CreateNormalBuffTemplete@ioBuffMaker@@IAEPAVioBuff@@HH@Z$198:
  007bc	ff 75 08	 push	 DWORD PTR $T530083[ebp]
  007bf	e8 00 00 00 00	 call	 ??3@YAXPAX@Z		; operator delete
  007c4	59		 pop	 ecx
  007c5	c3		 ret	 0
__unwindfunclet$?CreateNormalBuffTemplete@ioBuffMaker@@IAEPAVioBuff@@HH@Z$199:
  007c6	ff 75 08	 push	 DWORD PTR $T530087[ebp]
  007c9	e8 00 00 00 00	 call	 ??3@YAXPAX@Z		; operator delete
  007ce	59		 pop	 ecx
  007cf	c3		 ret	 0
__unwindfunclet$?CreateNormalBuffTemplete@ioBuffMaker@@IAEPAVioBuff@@HH@Z$200:
  007d0	ff 75 08	 push	 DWORD PTR $T530091[ebp]
  007d3	e8 00 00 00 00	 call	 ??3@YAXPAX@Z		; operator delete
  007d8	59		 pop	 ecx
  007d9	c3		 ret	 0
__unwindfunclet$?CreateNormalBuffTemplete@ioBuffMaker@@IAEPAVioBuff@@HH@Z$201:
  007da	ff 75 08	 push	 DWORD PTR $T530095[ebp]
  007dd	e8 00 00 00 00	 call	 ??3@YAXPAX@Z		; operator delete
  007e2	59		 pop	 ecx
  007e3	c3		 ret	 0
__unwindfunclet$?CreateNormalBuffTemplete@ioBuffMaker@@IAEPAVioBuff@@HH@Z$202:
  007e4	ff 75 08	 push	 DWORD PTR $T530099[ebp]
  007e7	e8 00 00 00 00	 call	 ??3@YAXPAX@Z		; operator delete
  007ec	59		 pop	 ecx
  007ed	c3		 ret	 0
__unwindfunclet$?CreateNormalBuffTemplete@ioBuffMaker@@IAEPAVioBuff@@HH@Z$203:
  007ee	ff 75 08	 push	 DWORD PTR $T530103[ebp]
  007f1	e8 00 00 00 00	 call	 ??3@YAXPAX@Z		; operator delete
  007f6	59		 pop	 ecx
  007f7	c3		 ret	 0
__unwindfunclet$?CreateNormalBuffTemplete@ioBuffMaker@@IAEPAVioBuff@@HH@Z$204:
  007f8	ff 75 08	 push	 DWORD PTR $T530107[ebp]
  007fb	e8 00 00 00 00	 call	 ??3@YAXPAX@Z		; operator delete
  00800	59		 pop	 ecx
  00801	c3		 ret	 0
__unwindfunclet$?CreateNormalBuffTemplete@ioBuffMaker@@IAEPAVioBuff@@HH@Z$205:
  00802	ff 75 08	 push	 DWORD PTR $T530111[ebp]
  00805	e8 00 00 00 00	 call	 ??3@YAXPAX@Z		; operator delete
  0080a	59		 pop	 ecx
  0080b	c3		 ret	 0
__unwindfunclet$?CreateNormalBuffTemplete@ioBuffMaker@@IAEPAVioBuff@@HH@Z$206:
  0080c	ff 75 08	 push	 DWORD PTR $T530115[ebp]
  0080f	e8 00 00 00 00	 call	 ??3@YAXPAX@Z		; operator delete
  00814	59		 pop	 ecx
  00815	c3		 ret	 0
__unwindfunclet$?CreateNormalBuffTemplete@ioBuffMaker@@IAEPAVioBuff@@HH@Z$207:
  00816	ff 75 08	 push	 DWORD PTR $T530119[ebp]
  00819	e8 00 00 00 00	 call	 ??3@YAXPAX@Z		; operator delete
  0081e	59		 pop	 ecx
  0081f	c3		 ret	 0
__unwindfunclet$?CreateNormalBuffTemplete@ioBuffMaker@@IAEPAVioBuff@@HH@Z$208:
  00820	ff 75 08	 push	 DWORD PTR $T530123[ebp]
  00823	e8 00 00 00 00	 call	 ??3@YAXPAX@Z		; operator delete
  00828	59		 pop	 ecx
  00829	c3		 ret	 0
__unwindfunclet$?CreateNormalBuffTemplete@ioBuffMaker@@IAEPAVioBuff@@HH@Z$209:
  0082a	ff 75 08	 push	 DWORD PTR $T530127[ebp]
  0082d	e8 00 00 00 00	 call	 ??3@YAXPAX@Z		; operator delete
  00832	59		 pop	 ecx
  00833	c3		 ret	 0
__unwindfunclet$?CreateNormalBuffTemplete@ioBuffMaker@@IAEPAVioBuff@@HH@Z$210:
  00834	ff 75 08	 push	 DWORD PTR $T530131[ebp]
  00837	e8 00 00 00 00	 call	 ??3@YAXPAX@Z		; operator delete
  0083c	59		 pop	 ecx
  0083d	c3		 ret	 0
__unwindfunclet$?CreateNormalBuffTemplete@ioBuffMaker@@IAEPAVioBuff@@HH@Z$211:
  0083e	ff 75 08	 push	 DWORD PTR $T530135[ebp]
  00841	e8 00 00 00 00	 call	 ??3@YAXPAX@Z		; operator delete
  00846	59		 pop	 ecx
  00847	c3		 ret	 0
__unwindfunclet$?CreateNormalBuffTemplete@ioBuffMaker@@IAEPAVioBuff@@HH@Z$212:
  00848	ff 75 08	 push	 DWORD PTR $T530139[ebp]
  0084b	e8 00 00 00 00	 call	 ??3@YAXPAX@Z		; operator delete
  00850	59		 pop	 ecx
  00851	c3		 ret	 0
__unwindfunclet$?CreateNormalBuffTemplete@ioBuffMaker@@IAEPAVioBuff@@HH@Z$213:
  00852	ff 75 08	 push	 DWORD PTR $T530143[ebp]
  00855	e8 00 00 00 00	 call	 ??3@YAXPAX@Z		; operator delete
  0085a	59		 pop	 ecx
  0085b	c3		 ret	 0
__unwindfunclet$?CreateNormalBuffTemplete@ioBuffMaker@@IAEPAVioBuff@@HH@Z$214:
  0085c	ff 75 08	 push	 DWORD PTR $T530147[ebp]
  0085f	e8 00 00 00 00	 call	 ??3@YAXPAX@Z		; operator delete
  00864	59		 pop	 ecx
  00865	c3		 ret	 0
__unwindfunclet$?CreateNormalBuffTemplete@ioBuffMaker@@IAEPAVioBuff@@HH@Z$215:
  00866	ff 75 08	 push	 DWORD PTR $T530151[ebp]
  00869	e8 00 00 00 00	 call	 ??3@YAXPAX@Z		; operator delete
  0086e	59		 pop	 ecx
  0086f	c3		 ret	 0
__unwindfunclet$?CreateNormalBuffTemplete@ioBuffMaker@@IAEPAVioBuff@@HH@Z$216:
  00870	ff 75 08	 push	 DWORD PTR $T530155[ebp]
  00873	e8 00 00 00 00	 call	 ??3@YAXPAX@Z		; operator delete
  00878	59		 pop	 ecx
  00879	c3		 ret	 0
__ehhandler$?CreateNormalBuffTemplete@ioBuffMaker@@IAEPAVioBuff@@HH@Z:
  0087a	8b 54 24 08	 mov	 edx, DWORD PTR [esp+8]
  0087e	8d 42 0c	 lea	 eax, DWORD PTR [edx+12]
  00881	8b 4a f0	 mov	 ecx, DWORD PTR [edx-16]
  00884	33 c8		 xor	 ecx, eax
  00886	e8 00 00 00 00	 call	 @__security_check_cookie@4
  0088b	b8 00 00 00 00	 mov	 eax, OFFSET __ehfuncinfo$?CreateNormalBuffTemplete@ioBuffMaker@@IAEPAVioBuff@@HH@Z
  00890	e9 00 00 00 00	 jmp	 ___CxxFrameHandler3
text$x	ENDS
?CreateNormalBuffTemplete@ioBuffMaker@@IAEPAVioBuff@@HH@Z ENDP ; ioBuffMaker::CreateNormalBuffTemplete
PUBLIC	??_C@_0BI@CFDMOOJD@?$CFs?5Create?5Fail?5Buff?3?5?$CFd?$AA@ ; `string'
PUBLIC	??_C@_0CJ@CHEJNODG@ioBuffMaker?3?3CreateAccessoryBuff@ ; `string'
PUBLIC	?CreateAccessoryBuffTemplete@ioBuffMaker@@IAEPAVioBuff@@HH@Z ; ioBuffMaker::CreateAccessoryBuffTemplete
EXTRN	??0ioAccGetUpProtectionDelayBuff@@QAE@XZ:PROC	; ioAccGetUpProtectionDelayBuff::ioAccGetUpProtectionDelayBuff
EXTRN	??0ioAccCameraBuff@@QAE@XZ:PROC			; ioAccCameraBuff::ioAccCameraBuff
EXTRN	??0ioAccLandingRateBuff@@QAE@XZ:PROC		; ioAccLandingRateBuff::ioAccLandingRateBuff
EXTRN	??0ioAccArmorPentrationBuff@@QAE@XZ:PROC	; ioAccArmorPentrationBuff::ioAccArmorPentrationBuff
EXTRN	??0ioAccCriticalDamageRateBuff@@QAE@XZ:PROC	; ioAccCriticalDamageRateBuff::ioAccCriticalDamageRateBuff
EXTRN	??0ioAccCriticalRateBuff@@QAE@XZ:PROC		; ioAccCriticalRateBuff::ioAccCriticalRateBuff
EXTRN	??0ioAccRestorationGaugeBuff@@QAE@XZ:PROC	; ioAccRestorationGaugeBuff::ioAccRestorationGaugeBuff
EXTRN	??0ioAccArmorClassUpDownBuff@@QAE@XZ:PROC	; ioAccArmorClassUpDownBuff::ioAccArmorClassUpDownBuff
EXTRN	??0ioAccSystemDamageRateBuff@@QAE@XZ:PROC	; ioAccSystemDamageRateBuff::ioAccSystemDamageRateBuff
EXTRN	??0ioAccDamageUpDownBuff@@QAE@XZ:PROC		; ioAccDamageUpDownBuff::ioAccDamageUpDownBuff
EXTRN	??0ioAccSpeedUpDownBuff@@QAE@XZ:PROC		; ioAccSpeedUpDownBuff::ioAccSpeedUpDownBuff
;	COMDAT ??_C@_0BI@CFDMOOJD@?$CFs?5Create?5Fail?5Buff?3?5?$CFd?$AA@
CONST	SEGMENT
??_C@_0BI@CFDMOOJD@?$CFs?5Create?5Fail?5Buff?3?5?$CFd?$AA@ DB '%s Create '
	DB	'Fail Buff: %d', 00H				; `string'
CONST	ENDS
;	COMDAT ??_C@_0CJ@CHEJNODG@ioBuffMaker?3?3CreateAccessoryBuff@
CONST	SEGMENT
??_C@_0CJ@CHEJNODG@ioBuffMaker?3?3CreateAccessoryBuff@ DB 'ioBuffMaker::C'
	DB	'reateAccessoryBuffTemplete', 00H		; `string'
CONST	ENDS
;	COMDAT xdata$x
xdata$x	SEGMENT
__ehfuncinfo$?CreateAccessoryBuffTemplete@ioBuffMaker@@IAEPAVioBuff@@HH@Z DD 019930522H
	DD	0bH
	DD	FLAT:__unwindtable$?CreateAccessoryBuffTemplete@ioBuffMaker@@IAEPAVioBuff@@HH@Z
	DD	2 DUP(00H)
	DD	2 DUP(00H)
	DD	00H
	DD	01H
__unwindtable$?CreateAccessoryBuffTemplete@ioBuffMaker@@IAEPAVioBuff@@HH@Z DD 0ffffffffH
	DD	FLAT:__unwindfunclet$?CreateAccessoryBuffTemplete@ioBuffMaker@@IAEPAVioBuff@@HH@Z$0
	DD	0ffffffffH
	DD	FLAT:__unwindfunclet$?CreateAccessoryBuffTemplete@ioBuffMaker@@IAEPAVioBuff@@HH@Z$1
	DD	0ffffffffH
	DD	FLAT:__unwindfunclet$?CreateAccessoryBuffTemplete@ioBuffMaker@@IAEPAVioBuff@@HH@Z$2
	DD	0ffffffffH
	DD	FLAT:__unwindfunclet$?CreateAccessoryBuffTemplete@ioBuffMaker@@IAEPAVioBuff@@HH@Z$3
	DD	0ffffffffH
	DD	FLAT:__unwindfunclet$?CreateAccessoryBuffTemplete@ioBuffMaker@@IAEPAVioBuff@@HH@Z$4
	DD	0ffffffffH
	DD	FLAT:__unwindfunclet$?CreateAccessoryBuffTemplete@ioBuffMaker@@IAEPAVioBuff@@HH@Z$5
	DD	0ffffffffH
	DD	FLAT:__unwindfunclet$?CreateAccessoryBuffTemplete@ioBuffMaker@@IAEPAVioBuff@@HH@Z$6
	DD	0ffffffffH
	DD	FLAT:__unwindfunclet$?CreateAccessoryBuffTemplete@ioBuffMaker@@IAEPAVioBuff@@HH@Z$7
	DD	0ffffffffH
	DD	FLAT:__unwindfunclet$?CreateAccessoryBuffTemplete@ioBuffMaker@@IAEPAVioBuff@@HH@Z$8
	DD	0ffffffffH
	DD	FLAT:__unwindfunclet$?CreateAccessoryBuffTemplete@ioBuffMaker@@IAEPAVioBuff@@HH@Z$9
	DD	0ffffffffH
	DD	FLAT:__unwindfunclet$?CreateAccessoryBuffTemplete@ioBuffMaker@@IAEPAVioBuff@@HH@Z$10
; Function compile flags: /Ogsp
xdata$x	ENDS
;	COMDAT ?CreateAccessoryBuffTemplete@ioBuffMaker@@IAEPAVioBuff@@HH@Z
_TEXT	SEGMENT
__$EHRec$ = -12						; size = 12
$T530431 = 8						; size = 4
$T530427 = 8						; size = 4
$T530423 = 8						; size = 4
$T530419 = 8						; size = 4
$T530415 = 8						; size = 4
$T530411 = 8						; size = 4
$T530407 = 8						; size = 4
$T530403 = 8						; size = 4
$T530399 = 8						; size = 4
$T530395 = 8						; size = 4
$T530391 = 8						; size = 4
_iTypeID$ = 8						; size = 4
_iBuffCategory$ = 12					; size = 4
?CreateAccessoryBuffTemplete@ioBuffMaker@@IAEPAVioBuff@@HH@Z PROC ; ioBuffMaker::CreateAccessoryBuffTemplete, COMDAT
; _this$ = ecx

; 818  : {

  00000	6a 00		 push	 0
  00002	b8 00 00 00 00	 mov	 eax, __ehhandler$?CreateAccessoryBuffTemplete@ioBuffMaker@@IAEPAVioBuff@@HH@Z
  00007	e8 00 00 00 00	 call	 __EH_prolog3

; 819  : 	ioBuff *pBuff = NULL;
; 820  : 
; 821  : 	switch( iTypeID )

  0000c	8b 7d 08	 mov	 edi, DWORD PTR _iTypeID$[ebp]
  0000f	6a 0a		 push	 10			; 0000000aH
  00011	8d 87 25 ff ff
	ff		 lea	 eax, DWORD PTR [edi-219]
  00017	5e		 pop	 esi
  00018	3b c6		 cmp	 eax, esi
  0001a	0f 87 c9 01 00
	00		 ja	 $LN1@CreateAcce
  00020	ff 24 85 00 00
	00 00		 jmp	 DWORD PTR $LN51@CreateAcce[eax*4]
$LN12@CreateAcce:

; 822  : 	{
; 823  : 	case BT_ACC_SPEED_UPDOWN:
; 824  : 		pBuff = new ioAccSpeedUpDownBuff;

  00027	68 80 09 00 00	 push	 2432			; 00000980H
  0002c	e8 00 00 00 00	 call	 ??2@YAPAXI@Z		; operator new
  00031	59		 pop	 ecx
  00032	8b c8		 mov	 ecx, eax
  00034	89 4d 08	 mov	 DWORD PTR $T530391[ebp], ecx
  00037	83 65 fc 00	 and	 DWORD PTR __$EHRec$[ebp+8], 0
  0003b	85 c9		 test	 ecx, ecx
  0003d	0f 84 84 01 00
	00		 je	 $LN37@CreateAcce
  00043	e8 00 00 00 00	 call	 ??0ioAccSpeedUpDownBuff@@QAE@XZ ; ioAccSpeedUpDownBuff::ioAccSpeedUpDownBuff
  00048	e9 7c 01 00 00	 jmp	 $LN38@CreateAcce
$LN11@CreateAcce:

; 825  : 		break;
; 826  : 	case BT_ACC_DAMAGE_UPDOWN:
; 827  : 		pBuff = new ioAccDamageUpDownBuff;

  0004d	68 8c 09 00 00	 push	 2444			; 0000098cH
  00052	e8 00 00 00 00	 call	 ??2@YAPAXI@Z		; operator new
  00057	59		 pop	 ecx
  00058	8b c8		 mov	 ecx, eax
  0005a	89 4d 08	 mov	 DWORD PTR $T530395[ebp], ecx
  0005d	c7 45 fc 01 00
	00 00		 mov	 DWORD PTR __$EHRec$[ebp+8], 1
  00064	85 c9		 test	 ecx, ecx
  00066	0f 84 5b 01 00
	00		 je	 $LN37@CreateAcce
  0006c	e8 00 00 00 00	 call	 ??0ioAccDamageUpDownBuff@@QAE@XZ ; ioAccDamageUpDownBuff::ioAccDamageUpDownBuff
  00071	e9 53 01 00 00	 jmp	 $LN38@CreateAcce
$LN10@CreateAcce:

; 828  : 		break;
; 829  : 	case BT_ACC_SYSTEM_DAMAGE_RATE:
; 830  : 		pBuff = new ioAccSystemDamageRateBuff;

  00076	68 80 09 00 00	 push	 2432			; 00000980H
  0007b	e8 00 00 00 00	 call	 ??2@YAPAXI@Z		; operator new
  00080	59		 pop	 ecx
  00081	8b c8		 mov	 ecx, eax
  00083	89 4d 08	 mov	 DWORD PTR $T530399[ebp], ecx
  00086	c7 45 fc 02 00
	00 00		 mov	 DWORD PTR __$EHRec$[ebp+8], 2
  0008d	85 c9		 test	 ecx, ecx
  0008f	0f 84 32 01 00
	00		 je	 $LN37@CreateAcce
  00095	e8 00 00 00 00	 call	 ??0ioAccSystemDamageRateBuff@@QAE@XZ ; ioAccSystemDamageRateBuff::ioAccSystemDamageRateBuff
  0009a	e9 2a 01 00 00	 jmp	 $LN38@CreateAcce
$LN9@CreateAcce:

; 831  : 		break;
; 832  : 	case BT_ACC_ARMOR_CLASS_UP_DOWN_BUFF:
; 833  : 		pBuff = new ioAccArmorClassUpDownBuff;

  0009f	68 74 09 00 00	 push	 2420			; 00000974H
  000a4	e8 00 00 00 00	 call	 ??2@YAPAXI@Z		; operator new
  000a9	59		 pop	 ecx
  000aa	8b c8		 mov	 ecx, eax
  000ac	89 4d 08	 mov	 DWORD PTR $T530403[ebp], ecx
  000af	c7 45 fc 03 00
	00 00		 mov	 DWORD PTR __$EHRec$[ebp+8], 3
  000b6	85 c9		 test	 ecx, ecx
  000b8	0f 84 09 01 00
	00		 je	 $LN37@CreateAcce
  000be	e8 00 00 00 00	 call	 ??0ioAccArmorClassUpDownBuff@@QAE@XZ ; ioAccArmorClassUpDownBuff::ioAccArmorClassUpDownBuff
  000c3	e9 01 01 00 00	 jmp	 $LN38@CreateAcce
$LN8@CreateAcce:

; 834  : 		break;
; 835  : 	case BT_ACC_RESTORATION_GAUGE:
; 836  : 		pBuff = new ioAccRestorationGaugeBuff;

  000c8	68 b8 0b 00 00	 push	 3000			; 00000bb8H
  000cd	e8 00 00 00 00	 call	 ??2@YAPAXI@Z		; operator new
  000d2	59		 pop	 ecx
  000d3	8b c8		 mov	 ecx, eax
  000d5	89 4d 08	 mov	 DWORD PTR $T530407[ebp], ecx
  000d8	c7 45 fc 04 00
	00 00		 mov	 DWORD PTR __$EHRec$[ebp+8], 4
  000df	85 c9		 test	 ecx, ecx
  000e1	0f 84 e0 00 00
	00		 je	 $LN37@CreateAcce
  000e7	e8 00 00 00 00	 call	 ??0ioAccRestorationGaugeBuff@@QAE@XZ ; ioAccRestorationGaugeBuff::ioAccRestorationGaugeBuff
  000ec	e9 d8 00 00 00	 jmp	 $LN38@CreateAcce
$LN7@CreateAcce:

; 837  : 		break;
; 838  : 	case BT_ACC_CRITICAL_RATE_BUFF:
; 839  : 		pBuff = new ioAccCriticalRateBuff;

  000f1	68 74 09 00 00	 push	 2420			; 00000974H
  000f6	e8 00 00 00 00	 call	 ??2@YAPAXI@Z		; operator new
  000fb	59		 pop	 ecx
  000fc	8b c8		 mov	 ecx, eax
  000fe	89 4d 08	 mov	 DWORD PTR $T530411[ebp], ecx
  00101	c7 45 fc 05 00
	00 00		 mov	 DWORD PTR __$EHRec$[ebp+8], 5
  00108	85 c9		 test	 ecx, ecx
  0010a	0f 84 b7 00 00
	00		 je	 $LN37@CreateAcce
  00110	e8 00 00 00 00	 call	 ??0ioAccCriticalRateBuff@@QAE@XZ ; ioAccCriticalRateBuff::ioAccCriticalRateBuff
  00115	e9 af 00 00 00	 jmp	 $LN38@CreateAcce
$LN6@CreateAcce:

; 840  : 		break;
; 841  : 	case BT_ACC_CRITICAL_DAMAGE_RATE_BUFF:
; 842  : 		pBuff = new ioAccCriticalDamageRateBuff;

  0011a	68 74 09 00 00	 push	 2420			; 00000974H
  0011f	e8 00 00 00 00	 call	 ??2@YAPAXI@Z		; operator new
  00124	59		 pop	 ecx
  00125	8b c8		 mov	 ecx, eax
  00127	89 4d 08	 mov	 DWORD PTR $T530415[ebp], ecx
  0012a	c7 45 fc 06 00
	00 00		 mov	 DWORD PTR __$EHRec$[ebp+8], 6
  00131	85 c9		 test	 ecx, ecx
  00133	0f 84 8e 00 00
	00		 je	 $LN37@CreateAcce
  00139	e8 00 00 00 00	 call	 ??0ioAccCriticalDamageRateBuff@@QAE@XZ ; ioAccCriticalDamageRateBuff::ioAccCriticalDamageRateBuff
  0013e	e9 86 00 00 00	 jmp	 $LN38@CreateAcce
$LN5@CreateAcce:

; 843  : 		break;
; 844  : 	case BT_ACC_ARMOR_PENTRATION_BUFF:
; 845  : 		pBuff = new ioAccArmorPentrationBuff;

  00143	68 74 09 00 00	 push	 2420			; 00000974H
  00148	e8 00 00 00 00	 call	 ??2@YAPAXI@Z		; operator new
  0014d	59		 pop	 ecx
  0014e	8b c8		 mov	 ecx, eax
  00150	89 4d 08	 mov	 DWORD PTR $T530419[ebp], ecx
  00153	c7 45 fc 07 00
	00 00		 mov	 DWORD PTR __$EHRec$[ebp+8], 7
  0015a	85 c9		 test	 ecx, ecx
  0015c	74 69		 je	 SHORT $LN37@CreateAcce
  0015e	e8 00 00 00 00	 call	 ??0ioAccArmorPentrationBuff@@QAE@XZ ; ioAccArmorPentrationBuff::ioAccArmorPentrationBuff
  00163	eb 64		 jmp	 SHORT $LN38@CreateAcce
$LN4@CreateAcce:

; 846  : 		break;
; 847  : 	case BT_ACC_LANDING_RATE_BUFF:
; 848  : 		pBuff = new ioAccLandingRateBuff;

  00165	68 74 09 00 00	 push	 2420			; 00000974H
  0016a	e8 00 00 00 00	 call	 ??2@YAPAXI@Z		; operator new
  0016f	59		 pop	 ecx
  00170	8b c8		 mov	 ecx, eax
  00172	89 4d 08	 mov	 DWORD PTR $T530423[ebp], ecx
  00175	c7 45 fc 08 00
	00 00		 mov	 DWORD PTR __$EHRec$[ebp+8], 8
  0017c	85 c9		 test	 ecx, ecx
  0017e	74 47		 je	 SHORT $LN37@CreateAcce
  00180	e8 00 00 00 00	 call	 ??0ioAccLandingRateBuff@@QAE@XZ ; ioAccLandingRateBuff::ioAccLandingRateBuff
  00185	eb 42		 jmp	 SHORT $LN38@CreateAcce
$LN3@CreateAcce:

; 849  : 		break;
; 850  : 	case BT_ACC_CAMERA_BUFF:
; 851  : 		pBuff = new ioAccCameraBuff;

  00187	68 84 09 00 00	 push	 2436			; 00000984H
  0018c	e8 00 00 00 00	 call	 ??2@YAPAXI@Z		; operator new
  00191	59		 pop	 ecx
  00192	8b c8		 mov	 ecx, eax
  00194	89 4d 08	 mov	 DWORD PTR $T530427[ebp], ecx
  00197	c7 45 fc 09 00
	00 00		 mov	 DWORD PTR __$EHRec$[ebp+8], 9
  0019e	85 c9		 test	 ecx, ecx
  001a0	74 25		 je	 SHORT $LN37@CreateAcce
  001a2	e8 00 00 00 00	 call	 ??0ioAccCameraBuff@@QAE@XZ ; ioAccCameraBuff::ioAccCameraBuff
  001a7	eb 20		 jmp	 SHORT $LN38@CreateAcce
$LN2@CreateAcce:

; 852  : 		break;
; 853  : 	case BT_ACC_GETUP_PROTECTION_DELAY_BUFF:
; 854  : 		pBuff = new ioAccGetUpProtectionDelayBuff;

  001a9	68 84 09 00 00	 push	 2436			; 00000984H
  001ae	e8 00 00 00 00	 call	 ??2@YAPAXI@Z		; operator new
  001b3	59		 pop	 ecx
  001b4	8b c8		 mov	 ecx, eax
  001b6	89 4d 08	 mov	 DWORD PTR $T530431[ebp], ecx
  001b9	89 75 fc	 mov	 DWORD PTR __$EHRec$[ebp+8], esi
  001bc	85 c9		 test	 ecx, ecx
  001be	74 07		 je	 SHORT $LN37@CreateAcce
  001c0	e8 00 00 00 00	 call	 ??0ioAccGetUpProtectionDelayBuff@@QAE@XZ ; ioAccGetUpProtectionDelayBuff::ioAccGetUpProtectionDelayBuff
  001c5	eb 02		 jmp	 SHORT $LN38@CreateAcce
$LN37@CreateAcce:
  001c7	33 c0		 xor	 eax, eax
$LN38@CreateAcce:
  001c9	83 4d fc ff	 or	 DWORD PTR __$EHRec$[ebp+8], -1
  001cd	8b f0		 mov	 esi, eax

; 855  : 		break;
; 856  : 	}
; 857  : 
; 858  : 	if( pBuff )

  001cf	85 f6		 test	 esi, esi
  001d1	74 16		 je	 SHORT $LN1@CreateAcce

; 859  : 	{
; 860  : 		pBuff->SetBuffCategory( iBuffCategory );

  001d3	ff 75 0c	 push	 DWORD PTR _iBuffCategory$[ebp]
  001d6	8b ce		 mov	 ecx, esi
  001d8	e8 00 00 00 00	 call	 ?SetBuffCategory@ioBuff@@QAEXH@Z ; ioBuff::SetBuffCategory

; 861  : 		pBuff->SetTypeID( iTypeID );

  001dd	57		 push	 edi
  001de	8b ce		 mov	 ecx, esi
  001e0	e8 00 00 00 00	 call	 ?SetTypeID@ioBuff@@QAEXH@Z ; ioBuff::SetTypeID

; 862  : 		return pBuff;

  001e5	8b c6		 mov	 eax, esi
  001e7	eb 1e		 jmp	 SHORT $LN15@CreateAcce
$LN1@CreateAcce:

; 863  : 	}
; 864  : 
; 865  : 	LOG.PrintTimeAndLog( 0, "%s Create Fail Buff: %d", __FUNCTION__, iTypeID );

  001e9	57		 push	 edi
  001ea	68 00 00 00 00	 push	 OFFSET ??_C@_0CJ@CHEJNODG@ioBuffMaker?3?3CreateAccessoryBuff@
  001ef	68 00 00 00 00	 push	 OFFSET ??_C@_0BI@CFDMOOJD@?$CFs?5Create?5Fail?5Buff?3?5?$CFd?$AA@
  001f4	6a 00		 push	 0
  001f6	ff 35 00 00 00
	00		 push	 DWORD PTR __imp_?LOG@@3VCLog@@A
  001fc	ff 15 00 00 00
	00		 call	 DWORD PTR __imp_?PrintTimeAndLog@CLog@@QAAXHPADZZ
  00202	83 c4 14	 add	 esp, 20			; 00000014H

; 866  : 
; 867  : 	return NULL;

  00205	33 c0		 xor	 eax, eax
$LN15@CreateAcce:

; 868  : }

  00207	e8 00 00 00 00	 call	 __EH_epilog3
  0020c	c2 08 00	 ret	 8
  0020f	90		 npad	 1
$LN51@CreateAcce:
  00210	00 00 00 00	 DD	 $LN12@CreateAcce
  00214	00 00 00 00	 DD	 $LN11@CreateAcce
  00218	00 00 00 00	 DD	 $LN10@CreateAcce
  0021c	00 00 00 00	 DD	 $LN9@CreateAcce
  00220	00 00 00 00	 DD	 $LN8@CreateAcce
  00224	00 00 00 00	 DD	 $LN7@CreateAcce
  00228	00 00 00 00	 DD	 $LN6@CreateAcce
  0022c	00 00 00 00	 DD	 $LN5@CreateAcce
  00230	00 00 00 00	 DD	 $LN4@CreateAcce
  00234	00 00 00 00	 DD	 $LN3@CreateAcce
  00238	00 00 00 00	 DD	 $LN2@CreateAcce
_TEXT	ENDS
;	COMDAT text$x
text$x	SEGMENT
__unwindfunclet$?CreateAccessoryBuffTemplete@ioBuffMaker@@IAEPAVioBuff@@HH@Z$0:
  00000	ff 75 08	 push	 DWORD PTR $T530391[ebp]
  00003	e8 00 00 00 00	 call	 ??3@YAXPAX@Z		; operator delete
  00008	59		 pop	 ecx
  00009	c3		 ret	 0
__unwindfunclet$?CreateAccessoryBuffTemplete@ioBuffMaker@@IAEPAVioBuff@@HH@Z$1:
  0000a	ff 75 08	 push	 DWORD PTR $T530395[ebp]
  0000d	e8 00 00 00 00	 call	 ??3@YAXPAX@Z		; operator delete
  00012	59		 pop	 ecx
  00013	c3		 ret	 0
__unwindfunclet$?CreateAccessoryBuffTemplete@ioBuffMaker@@IAEPAVioBuff@@HH@Z$2:
  00014	ff 75 08	 push	 DWORD PTR $T530399[ebp]
  00017	e8 00 00 00 00	 call	 ??3@YAXPAX@Z		; operator delete
  0001c	59		 pop	 ecx
  0001d	c3		 ret	 0
__unwindfunclet$?CreateAccessoryBuffTemplete@ioBuffMaker@@IAEPAVioBuff@@HH@Z$3:
  0001e	ff 75 08	 push	 DWORD PTR $T530403[ebp]
  00021	e8 00 00 00 00	 call	 ??3@YAXPAX@Z		; operator delete
  00026	59		 pop	 ecx
  00027	c3		 ret	 0
__unwindfunclet$?CreateAccessoryBuffTemplete@ioBuffMaker@@IAEPAVioBuff@@HH@Z$4:
  00028	ff 75 08	 push	 DWORD PTR $T530407[ebp]
  0002b	e8 00 00 00 00	 call	 ??3@YAXPAX@Z		; operator delete
  00030	59		 pop	 ecx
  00031	c3		 ret	 0
__unwindfunclet$?CreateAccessoryBuffTemplete@ioBuffMaker@@IAEPAVioBuff@@HH@Z$5:
  00032	ff 75 08	 push	 DWORD PTR $T530411[ebp]
  00035	e8 00 00 00 00	 call	 ??3@YAXPAX@Z		; operator delete
  0003a	59		 pop	 ecx
  0003b	c3		 ret	 0
__unwindfunclet$?CreateAccessoryBuffTemplete@ioBuffMaker@@IAEPAVioBuff@@HH@Z$6:
  0003c	ff 75 08	 push	 DWORD PTR $T530415[ebp]
  0003f	e8 00 00 00 00	 call	 ??3@YAXPAX@Z		; operator delete
  00044	59		 pop	 ecx
  00045	c3		 ret	 0
__unwindfunclet$?CreateAccessoryBuffTemplete@ioBuffMaker@@IAEPAVioBuff@@HH@Z$7:
  00046	ff 75 08	 push	 DWORD PTR $T530419[ebp]
  00049	e8 00 00 00 00	 call	 ??3@YAXPAX@Z		; operator delete
  0004e	59		 pop	 ecx
  0004f	c3		 ret	 0
__unwindfunclet$?CreateAccessoryBuffTemplete@ioBuffMaker@@IAEPAVioBuff@@HH@Z$8:
  00050	ff 75 08	 push	 DWORD PTR $T530423[ebp]
  00053	e8 00 00 00 00	 call	 ??3@YAXPAX@Z		; operator delete
  00058	59		 pop	 ecx
  00059	c3		 ret	 0
__unwindfunclet$?CreateAccessoryBuffTemplete@ioBuffMaker@@IAEPAVioBuff@@HH@Z$9:
  0005a	ff 75 08	 push	 DWORD PTR $T530427[ebp]
  0005d	e8 00 00 00 00	 call	 ??3@YAXPAX@Z		; operator delete
  00062	59		 pop	 ecx
  00063	c3		 ret	 0
__unwindfunclet$?CreateAccessoryBuffTemplete@ioBuffMaker@@IAEPAVioBuff@@HH@Z$10:
  00064	ff 75 08	 push	 DWORD PTR $T530431[ebp]
  00067	e8 00 00 00 00	 call	 ??3@YAXPAX@Z		; operator delete
  0006c	59		 pop	 ecx
  0006d	c3		 ret	 0
__ehhandler$?CreateAccessoryBuffTemplete@ioBuffMaker@@IAEPAVioBuff@@HH@Z:
  0006e	8b 54 24 08	 mov	 edx, DWORD PTR [esp+8]
  00072	8d 42 0c	 lea	 eax, DWORD PTR [edx+12]
  00075	8b 4a f0	 mov	 ecx, DWORD PTR [edx-16]
  00078	33 c8		 xor	 ecx, eax
  0007a	e8 00 00 00 00	 call	 @__security_check_cookie@4
  0007f	b8 00 00 00 00	 mov	 eax, OFFSET __ehfuncinfo$?CreateAccessoryBuffTemplete@ioBuffMaker@@IAEPAVioBuff@@HH@Z
  00084	e9 00 00 00 00	 jmp	 ___CxxFrameHandler3
text$x	ENDS
?CreateAccessoryBuffTemplete@ioBuffMaker@@IAEPAVioBuff@@HH@Z ENDP ; ioBuffMaker::CreateAccessoryBuffTemplete
PUBLIC	??0?$Singleton@VioBuffMaker@@@@QAE@XZ		; Singleton<ioBuffMaker>::Singleton<ioBuffMaker>
; Function compile flags: /Ogsp
; File d:\lost saga for developer\youtube\tutorial\source\src\io3dengine\iosingleton.h
;	COMDAT ??0?$Singleton@VioBuffMaker@@@@QAE@XZ
_TEXT	SEGMENT
??0?$Singleton@VioBuffMaker@@@@QAE@XZ PROC		; Singleton<ioBuffMaker>::Singleton<ioBuffMaker>, COMDAT
; _this$ = ecx

; 27   : 	Singleton()

  00000	8b c1		 mov	 eax, ecx

; 28   : 	{
; 29   : 		assert( !ms_Singleton );
; 30   : 		int offset = (int)(T*)1 - (int)(Singleton <T>*)(T*)1;
; 31   : 		ms_Singleton = (T*)((int)this + offset);

  00002	8d 48 fc	 lea	 ecx, DWORD PTR [eax-4]
  00005	89 0d 00 00 00
	00		 mov	 DWORD PTR ?ms_Singleton@?$Singleton@VioBuffMaker@@@@1PAVioBuffMaker@@A, ecx ; Singleton<ioBuffMaker>::ms_Singleton

; 32   : 	}

  0000b	c3		 ret	 0
??0?$Singleton@VioBuffMaker@@@@QAE@XZ ENDP		; Singleton<ioBuffMaker>::Singleton<ioBuffMaker>
_TEXT	ENDS
PUBLIC	??1?$Singleton@VioBuffMaker@@@@QAE@XZ		; Singleton<ioBuffMaker>::~Singleton<ioBuffMaker>
; Function compile flags: /Ogsp
;	COMDAT ??1?$Singleton@VioBuffMaker@@@@QAE@XZ
_TEXT	SEGMENT
??1?$Singleton@VioBuffMaker@@@@QAE@XZ PROC		; Singleton<ioBuffMaker>::~Singleton<ioBuffMaker>, COMDAT
; _this$ = ecx

; 36   : 		assert( ms_Singleton );
; 37   : 		ms_Singleton = 0;

  00000	83 25 00 00 00
	00 00		 and	 DWORD PTR ?ms_Singleton@?$Singleton@VioBuffMaker@@@@1PAVioBuffMaker@@A, 0 ; Singleton<ioBuffMaker>::ms_Singleton

; 38   : 	}

  00007	c3		 ret	 0
??1?$Singleton@VioBuffMaker@@@@QAE@XZ ENDP		; Singleton<ioBuffMaker>::~Singleton<ioBuffMaker>
_TEXT	ENDS
PUBLIC	?GetSingleton@?$Singleton@VioBuffMaker@@@@SAAAVioBuffMaker@@XZ ; Singleton<ioBuffMaker>::GetSingleton
; Function compile flags: /Ogsp
;	COMDAT ?GetSingleton@?$Singleton@VioBuffMaker@@@@SAAAVioBuffMaker@@XZ
_TEXT	SEGMENT
?GetSingleton@?$Singleton@VioBuffMaker@@@@SAAAVioBuffMaker@@XZ PROC ; Singleton<ioBuffMaker>::GetSingleton, COMDAT

; 42   : 		assert( ms_Singleton );
; 43   : 		return (*ms_Singleton);

  00000	a1 00 00 00 00	 mov	 eax, DWORD PTR ?ms_Singleton@?$Singleton@VioBuffMaker@@@@1PAVioBuffMaker@@A ; Singleton<ioBuffMaker>::ms_Singleton

; 44   : 	}

  00005	c3		 ret	 0
?GetSingleton@?$Singleton@VioBuffMaker@@@@SAAAVioBuffMaker@@XZ ENDP ; Singleton<ioBuffMaker>::GetSingleton
_TEXT	ENDS
PUBLIC	??0?$allocator@U?$pair@$$CBVioHashString@@PAVioBuff@@@std@@@std@@QAE@XZ ; std::allocator<std::pair<ioHashString const ,ioBuff *> >::allocator<std::pair<ioHashString const ,ioBuff *> >
; Function compile flags: /Ogsp
; File c:\program files (x86)\microsoft visual studio 10.0\vc\include\xmemory
;	COMDAT ??0?$allocator@U?$pair@$$CBVioHashString@@PAVioBuff@@@std@@@std@@QAE@XZ
_TEXT	SEGMENT
??0?$allocator@U?$pair@$$CBVioHashString@@PAVioBuff@@@std@@@std@@QAE@XZ PROC ; std::allocator<std::pair<ioHashString const ,ioBuff *> >::allocator<std::pair<ioHashString const ,ioBuff *> >, COMDAT
; _this$ = ecx

; 161  : 	_ALLOCATOR() _THROW0()

  00000	8b c1		 mov	 eax, ecx

; 162  : 		{	// construct default allocator (do nothing)
; 163  : 		}

  00002	c3		 ret	 0
??0?$allocator@U?$pair@$$CBVioHashString@@PAVioBuff@@@std@@@std@@QAE@XZ ENDP ; std::allocator<std::pair<ioHashString const ,ioBuff *> >::allocator<std::pair<ioHashString const ,ioBuff *> >
_TEXT	ENDS
PUBLIC	??8?$_Tree_const_iterator@V?$_Tree_val@V?$_Tmap_traits@VioHashString@@PAVioBuff@@U?$less@VioHashString@@@std@@V?$allocator@U?$pair@$$CBVioHashString@@PAVioBuff@@@std@@@4@$0A@@std@@@std@@@std@@QBE_NABV01@@Z ; std::_Tree_const_iterator<std::_Tree_val<std::_Tmap_traits<ioHashString,ioBuff *,std::less<ioHashString>,std::allocator<std::pair<ioHashString const ,ioBuff *> >,0> > >::operator==
; Function compile flags: /Ogsp
; File c:\program files (x86)\microsoft visual studio 10.0\vc\include\xtree
;	COMDAT ??8?$_Tree_const_iterator@V?$_Tree_val@V?$_Tmap_traits@VioHashString@@PAVioBuff@@U?$less@VioHashString@@@std@@V?$allocator@U?$pair@$$CBVioHashString@@PAVioBuff@@@std@@@4@$0A@@std@@@std@@@std@@QBE_NABV01@@Z
_TEXT	SEGMENT
__Right$ = 8						; size = 4
??8?$_Tree_const_iterator@V?$_Tree_val@V?$_Tmap_traits@VioHashString@@PAVioBuff@@U?$less@VioHashString@@@std@@V?$allocator@U?$pair@$$CBVioHashString@@PAVioBuff@@@std@@@4@$0A@@std@@@std@@@std@@QBE_NABV01@@Z PROC ; std::_Tree_const_iterator<std::_Tree_val<std::_Tmap_traits<ioHashString,ioBuff *,std::less<ioHashString>,std::allocator<std::pair<ioHashString const ,ioBuff *> >,0> > >::operator==, COMDAT
; _this$ = ecx

; 316  : 		{	// test for iterator equality

  00000	55		 push	 ebp
  00001	8b ec		 mov	 ebp, esp

; 317  :  #if _ITERATOR_DEBUG_LEVEL == 2
; 318  : 		if (this->_Getcont() == 0
; 319  : 			|| this->_Getcont() != _Right._Getcont())
; 320  : 			{	// report error
; 321  : 			_DEBUG_ERROR("map/set iterators incompatible");
; 322  : 			_SCL_SECURE_INVALID_ARGUMENT;
; 323  : 			}
; 324  : 
; 325  :  #elif _ITERATOR_DEBUG_LEVEL == 1
; 326  : 		_SCL_SECURE_VALIDATE(this->_Getcont() != 0
; 327  : 			&& this->_Getcont() == _Right._Getcont());
; 328  :  #endif /* _ITERATOR_DEBUG_LEVEL */
; 329  : 
; 330  : 		return (this->_Ptr == _Right._Ptr);

  00003	8b 01		 mov	 eax, DWORD PTR [ecx]
  00005	8b 4d 08	 mov	 ecx, DWORD PTR __Right$[ebp]
  00008	2b 01		 sub	 eax, DWORD PTR [ecx]
  0000a	f7 d8		 neg	 eax
  0000c	1b c0		 sbb	 eax, eax
  0000e	40		 inc	 eax

; 331  : 		}

  0000f	5d		 pop	 ebp
  00010	c2 04 00	 ret	 4
??8?$_Tree_const_iterator@V?$_Tree_val@V?$_Tmap_traits@VioHashString@@PAVioBuff@@U?$less@VioHashString@@@std@@V?$allocator@U?$pair@$$CBVioHashString@@PAVioBuff@@@std@@@4@$0A@@std@@@std@@@std@@QBE_NABV01@@Z ENDP ; std::_Tree_const_iterator<std::_Tree_val<std::_Tmap_traits<ioHashString,ioBuff *,std::less<ioHashString>,std::allocator<std::pair<ioHashString const ,ioBuff *> >,0> > >::operator==
_TEXT	ENDS
PUBLIC	?_Mynode@?$_Tree_unchecked_const_iterator@V?$_Tree_val@V?$_Tmap_traits@VioHashString@@PAVioBuff@@U?$less@VioHashString@@@std@@V?$allocator@U?$pair@$$CBVioHashString@@PAVioBuff@@@std@@@4@$0A@@std@@@std@@U_Iterator_base0@2@@std@@QBEPAU_Node@?$_Tree_nod@V?$_Tmap_traits@VioHashString@@PAVioBuff@@U?$less@VioHashString@@@std@@V?$allocator@U?$pair@$$CBVioHashString@@PAVioBuff@@@std@@@4@$0A@@std@@@2@XZ ; std::_Tree_unchecked_const_iterator<std::_Tree_val<std::_Tmap_traits<ioHashString,ioBuff *,std::less<ioHashString>,std::allocator<std::pair<ioHashString const ,ioBuff *> >,0> >,std::_Iterator_base0>::_Mynode
; Function compile flags: /Ogsp
;	COMDAT ?_Mynode@?$_Tree_unchecked_const_iterator@V?$_Tree_val@V?$_Tmap_traits@VioHashString@@PAVioBuff@@U?$less@VioHashString@@@std@@V?$allocator@U?$pair@$$CBVioHashString@@PAVioBuff@@@std@@@4@$0A@@std@@@std@@U_Iterator_base0@2@@std@@QBEPAU_Node@?$_Tree_nod@V?$_Tmap_traits@VioHashString@@PAVioBuff@@U?$less@VioHashString@@@std@@V?$allocator@U?$pair@$$CBVioHashString@@PAVioBuff@@@std@@@4@$0A@@std@@@2@XZ
_TEXT	SEGMENT
?_Mynode@?$_Tree_unchecked_const_iterator@V?$_Tree_val@V?$_Tmap_traits@VioHashString@@PAVioBuff@@U?$less@VioHashString@@@std@@V?$allocator@U?$pair@$$CBVioHashString@@PAVioBuff@@@std@@@4@$0A@@std@@@std@@U_Iterator_base0@2@@std@@QBEPAU_Node@?$_Tree_nod@V?$_Tmap_traits@VioHashString@@PAVioBuff@@U?$less@VioHashString@@@std@@V?$allocator@U?$pair@$$CBVioHashString@@PAVioBuff@@@std@@@4@$0A@@std@@@2@XZ PROC ; std::_Tree_unchecked_const_iterator<std::_Tree_val<std::_Tmap_traits<ioHashString,ioBuff *,std::less<ioHashString>,std::allocator<std::pair<ioHashString const ,ioBuff *> >,0> >,std::_Iterator_base0>::_Mynode, COMDAT
; _this$ = ecx

; 122  : 		return (_Ptr);

  00000	8b 01		 mov	 eax, DWORD PTR [ecx]

; 123  : 		}

  00002	c3		 ret	 0
?_Mynode@?$_Tree_unchecked_const_iterator@V?$_Tree_val@V?$_Tmap_traits@VioHashString@@PAVioBuff@@U?$less@VioHashString@@@std@@V?$allocator@U?$pair@$$CBVioHashString@@PAVioBuff@@@std@@@4@$0A@@std@@@std@@U_Iterator_base0@2@@std@@QBEPAU_Node@?$_Tree_nod@V?$_Tmap_traits@VioHashString@@PAVioBuff@@U?$less@VioHashString@@@std@@V?$allocator@U?$pair@$$CBVioHashString@@PAVioBuff@@@std@@@4@$0A@@std@@@2@XZ ENDP ; std::_Tree_unchecked_const_iterator<std::_Tree_val<std::_Tmap_traits<ioHashString,ioBuff *,std::less<ioHashString>,std::allocator<std::pair<ioHashString const ,ioBuff *> >,0> >,std::_Iterator_base0>::_Mynode
_TEXT	ENDS
PUBLIC	?_Isnil@?$_Tree_val@V?$_Tmap_traits@VioHashString@@PAVioBuff@@U?$less@VioHashString@@@std@@V?$allocator@U?$pair@$$CBVioHashString@@PAVioBuff@@@std@@@4@$0A@@std@@@std@@SAAADPAU_Node@?$_Tree_nod@V?$_Tmap_traits@VioHashString@@PAVioBuff@@U?$less@VioHashString@@@std@@V?$allocator@U?$pair@$$CBVioHashString@@PAVioBuff@@@std@@@4@$0A@@std@@@2@@Z ; std::_Tree_val<std::_Tmap_traits<ioHashString,ioBuff *,std::less<ioHashString>,std::allocator<std::pair<ioHashString const ,ioBuff *> >,0> >::_Isnil
; Function compile flags: /Ogsp
;	COMDAT ?_Isnil@?$_Tree_val@V?$_Tmap_traits@VioHashString@@PAVioBuff@@U?$less@VioHashString@@@std@@V?$allocator@U?$pair@$$CBVioHashString@@PAVioBuff@@@std@@@4@$0A@@std@@@std@@SAAADPAU_Node@?$_Tree_nod@V?$_Tmap_traits@VioHashString@@PAVioBuff@@U?$less@VioHashString@@@std@@V?$allocator@U?$pair@$$CBVioHashString@@PAVioBuff@@@std@@@4@$0A@@std@@@2@@Z
_TEXT	SEGMENT
__Pnode$ = 8						; size = 4
?_Isnil@?$_Tree_val@V?$_Tmap_traits@VioHashString@@PAVioBuff@@U?$less@VioHashString@@@std@@V?$allocator@U?$pair@$$CBVioHashString@@PAVioBuff@@@std@@@4@$0A@@std@@@std@@SAAADPAU_Node@?$_Tree_nod@V?$_Tmap_traits@VioHashString@@PAVioBuff@@U?$less@VioHashString@@@std@@V?$allocator@U?$pair@$$CBVioHashString@@PAVioBuff@@@std@@@4@$0A@@std@@@2@@Z PROC ; std::_Tree_val<std::_Tmap_traits<ioHashString,ioBuff *,std::less<ioHashString>,std::allocator<std::pair<ioHashString const ,ioBuff *> >,0> >::_Isnil, COMDAT

; 611  : 		{	// return reference to nil flag in node

  00000	55		 push	 ebp
  00001	8b ec		 mov	 ebp, esp

; 612  : 		return ((char&)(*_Pnode)._Isnil);

  00003	8b 45 08	 mov	 eax, DWORD PTR __Pnode$[ebp]
  00006	83 c0 21	 add	 eax, 33			; 00000021H

; 613  : 		}

  00009	5d		 pop	 ebp
  0000a	c3		 ret	 0
?_Isnil@?$_Tree_val@V?$_Tmap_traits@VioHashString@@PAVioBuff@@U?$less@VioHashString@@@std@@V?$allocator@U?$pair@$$CBVioHashString@@PAVioBuff@@@std@@@4@$0A@@std@@@std@@SAAADPAU_Node@?$_Tree_nod@V?$_Tmap_traits@VioHashString@@PAVioBuff@@U?$less@VioHashString@@@std@@V?$allocator@U?$pair@$$CBVioHashString@@PAVioBuff@@@std@@@4@$0A@@std@@@2@@Z ENDP ; std::_Tree_val<std::_Tmap_traits<ioHashString,ioBuff *,std::less<ioHashString>,std::allocator<std::pair<ioHashString const ,ioBuff *> >,0> >::_Isnil
_TEXT	ENDS
PUBLIC	?_Left@?$_Tree_val@V?$_Tmap_traits@VioHashString@@PAVioBuff@@U?$less@VioHashString@@@std@@V?$allocator@U?$pair@$$CBVioHashString@@PAVioBuff@@@std@@@4@$0A@@std@@@std@@SAAAPAU_Node@?$_Tree_nod@V?$_Tmap_traits@VioHashString@@PAVioBuff@@U?$less@VioHashString@@@std@@V?$allocator@U?$pair@$$CBVioHashString@@PAVioBuff@@@std@@@4@$0A@@std@@@2@PAU342@@Z ; std::_Tree_val<std::_Tmap_traits<ioHashString,ioBuff *,std::less<ioHashString>,std::allocator<std::pair<ioHashString const ,ioBuff *> >,0> >::_Left
; Function compile flags: /Ogsp
;	COMDAT ?_Left@?$_Tree_val@V?$_Tmap_traits@VioHashString@@PAVioBuff@@U?$less@VioHashString@@@std@@V?$allocator@U?$pair@$$CBVioHashString@@PAVioBuff@@@std@@@4@$0A@@std@@@std@@SAAAPAU_Node@?$_Tree_nod@V?$_Tmap_traits@VioHashString@@PAVioBuff@@U?$less@VioHashString@@@std@@V?$allocator@U?$pair@$$CBVioHashString@@PAVioBuff@@@std@@@4@$0A@@std@@@2@PAU342@@Z
_TEXT	SEGMENT
__Pnode$ = 8						; size = 4
?_Left@?$_Tree_val@V?$_Tmap_traits@VioHashString@@PAVioBuff@@U?$less@VioHashString@@@std@@V?$allocator@U?$pair@$$CBVioHashString@@PAVioBuff@@@std@@@4@$0A@@std@@@std@@SAAAPAU_Node@?$_Tree_nod@V?$_Tmap_traits@VioHashString@@PAVioBuff@@U?$less@VioHashString@@@std@@V?$allocator@U?$pair@$$CBVioHashString@@PAVioBuff@@@std@@@4@$0A@@std@@@2@PAU342@@Z PROC ; std::_Tree_val<std::_Tmap_traits<ioHashString,ioBuff *,std::less<ioHashString>,std::allocator<std::pair<ioHashString const ,ioBuff *> >,0> >::_Left, COMDAT

; 621  : 		{	// return reference to left pointer in node

  00000	55		 push	 ebp
  00001	8b ec		 mov	 ebp, esp

; 622  : 		return ((_Nodepref)(*_Pnode)._Left);

  00003	8b 45 08	 mov	 eax, DWORD PTR __Pnode$[ebp]

; 623  : 		}

  00006	5d		 pop	 ebp
  00007	c3		 ret	 0
?_Left@?$_Tree_val@V?$_Tmap_traits@VioHashString@@PAVioBuff@@U?$less@VioHashString@@@std@@V?$allocator@U?$pair@$$CBVioHashString@@PAVioBuff@@@std@@@4@$0A@@std@@@std@@SAAAPAU_Node@?$_Tree_nod@V?$_Tmap_traits@VioHashString@@PAVioBuff@@U?$less@VioHashString@@@std@@V?$allocator@U?$pair@$$CBVioHashString@@PAVioBuff@@@std@@@4@$0A@@std@@@2@PAU342@@Z ENDP ; std::_Tree_val<std::_Tmap_traits<ioHashString,ioBuff *,std::less<ioHashString>,std::allocator<std::pair<ioHashString const ,ioBuff *> >,0> >::_Left
_TEXT	ENDS
PUBLIC	?_Parent@?$_Tree_val@V?$_Tmap_traits@VioHashString@@PAVioBuff@@U?$less@VioHashString@@@std@@V?$allocator@U?$pair@$$CBVioHashString@@PAVioBuff@@@std@@@4@$0A@@std@@@std@@SAAAPAU_Node@?$_Tree_nod@V?$_Tmap_traits@VioHashString@@PAVioBuff@@U?$less@VioHashString@@@std@@V?$allocator@U?$pair@$$CBVioHashString@@PAVioBuff@@@std@@@4@$0A@@std@@@2@PAU342@@Z ; std::_Tree_val<std::_Tmap_traits<ioHashString,ioBuff *,std::less<ioHashString>,std::allocator<std::pair<ioHashString const ,ioBuff *> >,0> >::_Parent
; Function compile flags: /Ogsp
;	COMDAT ?_Parent@?$_Tree_val@V?$_Tmap_traits@VioHashString@@PAVioBuff@@U?$less@VioHashString@@@std@@V?$allocator@U?$pair@$$CBVioHashString@@PAVioBuff@@@std@@@4@$0A@@std@@@std@@SAAAPAU_Node@?$_Tree_nod@V?$_Tmap_traits@VioHashString@@PAVioBuff@@U?$less@VioHashString@@@std@@V?$allocator@U?$pair@$$CBVioHashString@@PAVioBuff@@@std@@@4@$0A@@std@@@2@PAU342@@Z
_TEXT	SEGMENT
__Pnode$ = 8						; size = 4
?_Parent@?$_Tree_val@V?$_Tmap_traits@VioHashString@@PAVioBuff@@U?$less@VioHashString@@@std@@V?$allocator@U?$pair@$$CBVioHashString@@PAVioBuff@@@std@@@4@$0A@@std@@@std@@SAAAPAU_Node@?$_Tree_nod@V?$_Tmap_traits@VioHashString@@PAVioBuff@@U?$less@VioHashString@@@std@@V?$allocator@U?$pair@$$CBVioHashString@@PAVioBuff@@@std@@@4@$0A@@std@@@2@PAU342@@Z PROC ; std::_Tree_val<std::_Tmap_traits<ioHashString,ioBuff *,std::less<ioHashString>,std::allocator<std::pair<ioHashString const ,ioBuff *> >,0> >::_Parent, COMDAT

; 626  : 		{	// return reference to parent pointer in node

  00000	55		 push	 ebp
  00001	8b ec		 mov	 ebp, esp

; 627  : 		return ((_Nodepref)(*_Pnode)._Parent);

  00003	8b 45 08	 mov	 eax, DWORD PTR __Pnode$[ebp]
  00006	83 c0 04	 add	 eax, 4

; 628  : 		}

  00009	5d		 pop	 ebp
  0000a	c3		 ret	 0
?_Parent@?$_Tree_val@V?$_Tmap_traits@VioHashString@@PAVioBuff@@U?$less@VioHashString@@@std@@V?$allocator@U?$pair@$$CBVioHashString@@PAVioBuff@@@std@@@4@$0A@@std@@@std@@SAAAPAU_Node@?$_Tree_nod@V?$_Tmap_traits@VioHashString@@PAVioBuff@@U?$less@VioHashString@@@std@@V?$allocator@U?$pair@$$CBVioHashString@@PAVioBuff@@@std@@@4@$0A@@std@@@2@PAU342@@Z ENDP ; std::_Tree_val<std::_Tmap_traits<ioHashString,ioBuff *,std::less<ioHashString>,std::allocator<std::pair<ioHashString const ,ioBuff *> >,0> >::_Parent
_TEXT	ENDS
PUBLIC	?_Right@?$_Tree_val@V?$_Tmap_traits@VioHashString@@PAVioBuff@@U?$less@VioHashString@@@std@@V?$allocator@U?$pair@$$CBVioHashString@@PAVioBuff@@@std@@@4@$0A@@std@@@std@@SAAAPAU_Node@?$_Tree_nod@V?$_Tmap_traits@VioHashString@@PAVioBuff@@U?$less@VioHashString@@@std@@V?$allocator@U?$pair@$$CBVioHashString@@PAVioBuff@@@std@@@4@$0A@@std@@@2@PAU342@@Z ; std::_Tree_val<std::_Tmap_traits<ioHashString,ioBuff *,std::less<ioHashString>,std::allocator<std::pair<ioHashString const ,ioBuff *> >,0> >::_Right
; Function compile flags: /Ogsp
;	COMDAT ?_Right@?$_Tree_val@V?$_Tmap_traits@VioHashString@@PAVioBuff@@U?$less@VioHashString@@@std@@V?$allocator@U?$pair@$$CBVioHashString@@PAVioBuff@@@std@@@4@$0A@@std@@@std@@SAAAPAU_Node@?$_Tree_nod@V?$_Tmap_traits@VioHashString@@PAVioBuff@@U?$less@VioHashString@@@std@@V?$allocator@U?$pair@$$CBVioHashString@@PAVioBuff@@@std@@@4@$0A@@std@@@2@PAU342@@Z
_TEXT	SEGMENT
__Pnode$ = 8						; size = 4
?_Right@?$_Tree_val@V?$_Tmap_traits@VioHashString@@PAVioBuff@@U?$less@VioHashString@@@std@@V?$allocator@U?$pair@$$CBVioHashString@@PAVioBuff@@@std@@@4@$0A@@std@@@std@@SAAAPAU_Node@?$_Tree_nod@V?$_Tmap_traits@VioHashString@@PAVioBuff@@U?$less@VioHashString@@@std@@V?$allocator@U?$pair@$$CBVioHashString@@PAVioBuff@@@std@@@4@$0A@@std@@@2@PAU342@@Z PROC ; std::_Tree_val<std::_Tmap_traits<ioHashString,ioBuff *,std::less<ioHashString>,std::allocator<std::pair<ioHashString const ,ioBuff *> >,0> >::_Right, COMDAT

; 631  : 		{	// return reference to right pointer in node

  00000	55		 push	 ebp
  00001	8b ec		 mov	 ebp, esp

; 632  : 		return ((_Nodepref)(*_Pnode)._Right);

  00003	8b 45 08	 mov	 eax, DWORD PTR __Pnode$[ebp]
  00006	83 c0 08	 add	 eax, 8

; 633  : 		}

  00009	5d		 pop	 ebp
  0000a	c3		 ret	 0
?_Right@?$_Tree_val@V?$_Tmap_traits@VioHashString@@PAVioBuff@@U?$less@VioHashString@@@std@@V?$allocator@U?$pair@$$CBVioHashString@@PAVioBuff@@@std@@@4@$0A@@std@@@std@@SAAAPAU_Node@?$_Tree_nod@V?$_Tmap_traits@VioHashString@@PAVioBuff@@U?$less@VioHashString@@@std@@V?$allocator@U?$pair@$$CBVioHashString@@PAVioBuff@@@std@@@4@$0A@@std@@@2@PAU342@@Z ENDP ; std::_Tree_val<std::_Tmap_traits<ioHashString,ioBuff *,std::less<ioHashString>,std::allocator<std::pair<ioHashString const ,ioBuff *> >,0> >::_Right
_TEXT	ENDS
PUBLIC	?_Myval@?$_Tree_val@V?$_Tmap_traits@VioHashString@@PAVioBuff@@U?$less@VioHashString@@@std@@V?$allocator@U?$pair@$$CBVioHashString@@PAVioBuff@@@std@@@4@$0A@@std@@@std@@SAAAU?$pair@$$CBVioHashString@@PAVioBuff@@@2@PAU_Node@?$_Tree_nod@V?$_Tmap_traits@VioHashString@@PAVioBuff@@U?$less@VioHashString@@@std@@V?$allocator@U?$pair@$$CBVioHashString@@PAVioBuff@@@std@@@4@$0A@@std@@@2@@Z ; std::_Tree_val<std::_Tmap_traits<ioHashString,ioBuff *,std::less<ioHashString>,std::allocator<std::pair<ioHashString const ,ioBuff *> >,0> >::_Myval
; Function compile flags: /Ogsp
;	COMDAT ?_Myval@?$_Tree_val@V?$_Tmap_traits@VioHashString@@PAVioBuff@@U?$less@VioHashString@@@std@@V?$allocator@U?$pair@$$CBVioHashString@@PAVioBuff@@@std@@@4@$0A@@std@@@std@@SAAAU?$pair@$$CBVioHashString@@PAVioBuff@@@2@PAU_Node@?$_Tree_nod@V?$_Tmap_traits@VioHashString@@PAVioBuff@@U?$less@VioHashString@@@std@@V?$allocator@U?$pair@$$CBVioHashString@@PAVioBuff@@@std@@@4@$0A@@std@@@2@@Z
_TEXT	SEGMENT
__Pnode$ = 8						; size = 4
?_Myval@?$_Tree_val@V?$_Tmap_traits@VioHashString@@PAVioBuff@@U?$less@VioHashString@@@std@@V?$allocator@U?$pair@$$CBVioHashString@@PAVioBuff@@@std@@@4@$0A@@std@@@std@@SAAAU?$pair@$$CBVioHashString@@PAVioBuff@@@2@PAU_Node@?$_Tree_nod@V?$_Tmap_traits@VioHashString@@PAVioBuff@@U?$less@VioHashString@@@std@@V?$allocator@U?$pair@$$CBVioHashString@@PAVioBuff@@@std@@@4@$0A@@std@@@2@@Z PROC ; std::_Tree_val<std::_Tmap_traits<ioHashString,ioBuff *,std::less<ioHashString>,std::allocator<std::pair<ioHashString const ,ioBuff *> >,0> >::_Myval, COMDAT

; 636  : 		{	// return reference to value in node

  00000	55		 push	 ebp
  00001	8b ec		 mov	 ebp, esp

; 637  : 		return ((reference)(*_Pnode)._Myval);

  00003	8b 45 08	 mov	 eax, DWORD PTR __Pnode$[ebp]
  00006	83 c0 0c	 add	 eax, 12			; 0000000cH

; 638  : 		}

  00009	5d		 pop	 ebp
  0000a	c3		 ret	 0
?_Myval@?$_Tree_val@V?$_Tmap_traits@VioHashString@@PAVioBuff@@U?$less@VioHashString@@@std@@V?$allocator@U?$pair@$$CBVioHashString@@PAVioBuff@@@std@@@4@$0A@@std@@@std@@SAAAU?$pair@$$CBVioHashString@@PAVioBuff@@@2@PAU_Node@?$_Tree_nod@V?$_Tmap_traits@VioHashString@@PAVioBuff@@U?$less@VioHashString@@@std@@V?$allocator@U?$pair@$$CBVioHashString@@PAVioBuff@@@std@@@4@$0A@@std@@@2@@Z ENDP ; std::_Tree_val<std::_Tmap_traits<ioHashString,ioBuff *,std::less<ioHashString>,std::allocator<std::pair<ioHashString const ,ioBuff *> >,0> >::_Myval
_TEXT	ENDS
PUBLIC	??0?$allocator@U?$pair@$$CBVioHashString@@PAVioBuff@@@std@@@std@@QAE@ABV01@@Z ; std::allocator<std::pair<ioHashString const ,ioBuff *> >::allocator<std::pair<ioHashString const ,ioBuff *> >
; Function compile flags: /Ogsp
; File c:\program files (x86)\microsoft visual studio 10.0\vc\include\xmemory
;	COMDAT ??0?$allocator@U?$pair@$$CBVioHashString@@PAVioBuff@@@std@@@std@@QAE@ABV01@@Z
_TEXT	SEGMENT
___formal$ = 8						; size = 4
??0?$allocator@U?$pair@$$CBVioHashString@@PAVioBuff@@@std@@@std@@QAE@ABV01@@Z PROC ; std::allocator<std::pair<ioHashString const ,ioBuff *> >::allocator<std::pair<ioHashString const ,ioBuff *> >, COMDAT
; _this$ = ecx

; 165  : 	_ALLOCATOR(const _ALLOCATOR<_Ty>&) _THROW0()

  00000	8b c1		 mov	 eax, ecx

; 166  : 		{	// construct by copying (do nothing)
; 167  : 		}

  00002	c2 04 00	 ret	 4
??0?$allocator@U?$pair@$$CBVioHashString@@PAVioBuff@@@std@@@std@@QAE@ABV01@@Z ENDP ; std::allocator<std::pair<ioHashString const ,ioBuff *> >::allocator<std::pair<ioHashString const ,ioBuff *> >
_TEXT	ENDS
PUBLIC	?deallocate@?$allocator@U_Node@?$_Tree_nod@V?$_Tmap_traits@VioHashString@@PAVioBuff@@U?$less@VioHashString@@@std@@V?$allocator@U?$pair@$$CBVioHashString@@PAVioBuff@@@std@@@4@$0A@@std@@@std@@@std@@QAEXPAU_Node@?$_Tree_nod@V?$_Tmap_traits@VioHashString@@PAVioBuff@@U?$less@VioHashString@@@std@@V?$allocator@U?$pair@$$CBVioHashString@@PAVioBuff@@@std@@@4@$0A@@std@@@2@I@Z ; std::allocator<std::_Tree_nod<std::_Tmap_traits<ioHashString,ioBuff *,std::less<ioHashString>,std::allocator<std::pair<ioHashString const ,ioBuff *> >,0> >::_Node>::deallocate
; Function compile flags: /Ogsp
;	COMDAT ?deallocate@?$allocator@U_Node@?$_Tree_nod@V?$_Tmap_traits@VioHashString@@PAVioBuff@@U?$less@VioHashString@@@std@@V?$allocator@U?$pair@$$CBVioHashString@@PAVioBuff@@@std@@@4@$0A@@std@@@std@@@std@@QAEXPAU_Node@?$_Tree_nod@V?$_Tmap_traits@VioHashString@@PAVioBuff@@U?$less@VioHashString@@@std@@V?$allocator@U?$pair@$$CBVioHashString@@PAVioBuff@@@std@@@4@$0A@@std@@@2@I@Z
_TEXT	SEGMENT
__Ptr$ = 8						; size = 4
___formal$ = 12						; size = 4
?deallocate@?$allocator@U_Node@?$_Tree_nod@V?$_Tmap_traits@VioHashString@@PAVioBuff@@U?$less@VioHashString@@@std@@V?$allocator@U?$pair@$$CBVioHashString@@PAVioBuff@@@std@@@4@$0A@@std@@@std@@@std@@QAEXPAU_Node@?$_Tree_nod@V?$_Tmap_traits@VioHashString@@PAVioBuff@@U?$less@VioHashString@@@std@@V?$allocator@U?$pair@$$CBVioHashString@@PAVioBuff@@@std@@@4@$0A@@std@@@2@I@Z PROC ; std::allocator<std::_Tree_nod<std::_Tmap_traits<ioHashString,ioBuff *,std::less<ioHashString>,std::allocator<std::pair<ioHashString const ,ioBuff *> >,0> >::_Node>::deallocate, COMDAT
; _this$ = ecx

; 181  : 		{	// deallocate object at _Ptr, ignore size

  00000	55		 push	 ebp
  00001	8b ec		 mov	 ebp, esp

; 182  : 		::operator delete(_Ptr);

  00003	ff 75 08	 push	 DWORD PTR __Ptr$[ebp]
  00006	e8 00 00 00 00	 call	 ??3@YAXPAX@Z		; operator delete
  0000b	59		 pop	 ecx

; 183  : 		}

  0000c	5d		 pop	 ebp
  0000d	c2 08 00	 ret	 8
?deallocate@?$allocator@U_Node@?$_Tree_nod@V?$_Tmap_traits@VioHashString@@PAVioBuff@@U?$less@VioHashString@@@std@@V?$allocator@U?$pair@$$CBVioHashString@@PAVioBuff@@@std@@@4@$0A@@std@@@std@@@std@@QAEXPAU_Node@?$_Tree_nod@V?$_Tmap_traits@VioHashString@@PAVioBuff@@U?$less@VioHashString@@@std@@V?$allocator@U?$pair@$$CBVioHashString@@PAVioBuff@@@std@@@4@$0A@@std@@@2@I@Z ENDP ; std::allocator<std::_Tree_nod<std::_Tmap_traits<ioHashString,ioBuff *,std::less<ioHashString>,std::allocator<std::pair<ioHashString const ,ioBuff *> >,0> >::_Node>::deallocate
_TEXT	ENDS
PUBLIC	??D?$_Tree_const_iterator@V?$_Tree_val@V?$_Tmap_traits@VioHashString@@PAVioBuff@@U?$less@VioHashString@@@std@@V?$allocator@U?$pair@$$CBVioHashString@@PAVioBuff@@@std@@@4@$0A@@std@@@std@@@std@@QBEABU?$pair@$$CBVioHashString@@PAVioBuff@@@1@XZ ; std::_Tree_const_iterator<std::_Tree_val<std::_Tmap_traits<ioHashString,ioBuff *,std::less<ioHashString>,std::allocator<std::pair<ioHashString const ,ioBuff *> >,0> > >::operator*
; Function compile flags: /Ogsp
; File c:\program files (x86)\microsoft visual studio 10.0\vc\include\xtree
;	COMDAT ??D?$_Tree_const_iterator@V?$_Tree_val@V?$_Tmap_traits@VioHashString@@PAVioBuff@@U?$less@VioHashString@@@std@@V?$allocator@U?$pair@$$CBVioHashString@@PAVioBuff@@@std@@@4@$0A@@std@@@std@@@std@@QBEABU?$pair@$$CBVioHashString@@PAVioBuff@@@1@XZ
_TEXT	SEGMENT
??D?$_Tree_const_iterator@V?$_Tree_val@V?$_Tmap_traits@VioHashString@@PAVioBuff@@U?$less@VioHashString@@@std@@V?$allocator@U?$pair@$$CBVioHashString@@PAVioBuff@@@std@@@4@$0A@@std@@@std@@@std@@QBEABU?$pair@$$CBVioHashString@@PAVioBuff@@@1@XZ PROC ; std::_Tree_const_iterator<std::_Tree_val<std::_Tmap_traits<ioHashString,ioBuff *,std::less<ioHashString>,std::allocator<std::pair<ioHashString const ,ioBuff *> >,0> > >::operator*, COMDAT
; _this$ = ecx

; 231  :  #if _ITERATOR_DEBUG_LEVEL == 2
; 232  : 		if (this->_Getcont() == 0
; 233  : 			|| this->_Ptr == 0
; 234  : 			|| this->_Ptr == ((_Mytree *)this->_Getcont())->_Myhead)
; 235  : 			{	// report error
; 236  : 			_DEBUG_ERROR("map/set iterator not dereferencable");
; 237  : 			_SCL_SECURE_OUT_OF_RANGE;
; 238  : 			}
; 239  : 
; 240  :  #elif _ITERATOR_DEBUG_LEVEL == 1
; 241  : 		_SCL_SECURE_VALIDATE(this->_Getcont() != 0 && this->_Ptr != 0);
; 242  : 		_SCL_SECURE_VALIDATE_RANGE(this->_Ptr !=
; 243  : 			((_Mytree *)this->_Getcont())->_Myhead);
; 244  :  #endif /* _ITERATOR_DEBUG_LEVEL */
; 245  : 
; 246  : 		return (_Mytree::_Myval(this->_Ptr));

  00000	8b 01		 mov	 eax, DWORD PTR [ecx]
  00002	83 c0 0c	 add	 eax, 12			; 0000000cH

; 247  : 		}

  00005	c3		 ret	 0
??D?$_Tree_const_iterator@V?$_Tree_val@V?$_Tmap_traits@VioHashString@@PAVioBuff@@U?$less@VioHashString@@@std@@V?$allocator@U?$pair@$$CBVioHashString@@PAVioBuff@@@std@@@4@$0A@@std@@@std@@@std@@QBEABU?$pair@$$CBVioHashString@@PAVioBuff@@@1@XZ ENDP ; std::_Tree_const_iterator<std::_Tree_val<std::_Tmap_traits<ioHashString,ioBuff *,std::less<ioHashString>,std::allocator<std::pair<ioHashString const ,ioBuff *> >,0> > >::operator*
_TEXT	ENDS
PUBLIC	??0?$_Tree_unchecked_const_iterator@V?$_Tree_val@V?$_Tmap_traits@VioHashString@@PAVioBuff@@U?$less@VioHashString@@@std@@V?$allocator@U?$pair@$$CBVioHashString@@PAVioBuff@@@std@@@4@$0A@@std@@@std@@U_Iterator_base0@2@@std@@QAE@XZ ; std::_Tree_unchecked_const_iterator<std::_Tree_val<std::_Tmap_traits<ioHashString,ioBuff *,std::less<ioHashString>,std::allocator<std::pair<ioHashString const ,ioBuff *> >,0> >,std::_Iterator_base0>::_Tree_unchecked_const_iterator<std::_Tree_val<std::_Tmap_traits<ioHashString,ioBuff *,std::less<ioHashString>,std::allocator<std::pair<ioHashString const ,ioBuff *> >,0> >,std::_Iterator_base0>
; Function compile flags: /Ogsp
;	COMDAT ??0?$_Tree_unchecked_const_iterator@V?$_Tree_val@V?$_Tmap_traits@VioHashString@@PAVioBuff@@U?$less@VioHashString@@@std@@V?$allocator@U?$pair@$$CBVioHashString@@PAVioBuff@@@std@@@4@$0A@@std@@@std@@U_Iterator_base0@2@@std@@QAE@XZ
_TEXT	SEGMENT
??0?$_Tree_unchecked_const_iterator@V?$_Tree_val@V?$_Tmap_traits@VioHashString@@PAVioBuff@@U?$less@VioHashString@@@std@@V?$allocator@U?$pair@$$CBVioHashString@@PAVioBuff@@@std@@@4@$0A@@std@@@std@@U_Iterator_base0@2@@std@@QAE@XZ PROC ; std::_Tree_unchecked_const_iterator<std::_Tree_val<std::_Tmap_traits<ioHashString,ioBuff *,std::less<ioHashString>,std::allocator<std::pair<ioHashString const ,ioBuff *> >,0> >,std::_Iterator_base0>::_Tree_unchecked_const_iterator<std::_Tree_val<std::_Tmap_traits<ioHashString,ioBuff *,std::less<ioHashString>,std::allocator<std::pair<ioHashString const ,ioBuff *> >,0> >,std::_Iterator_base0>, COMDAT
; _this$ = ecx

; 38   : 		{	// construct with null node pointer

  00000	8b c1		 mov	 eax, ecx
  00002	83 20 00	 and	 DWORD PTR [eax], 0

; 39   : 		}

  00005	c3		 ret	 0
??0?$_Tree_unchecked_const_iterator@V?$_Tree_val@V?$_Tmap_traits@VioHashString@@PAVioBuff@@U?$less@VioHashString@@@std@@V?$allocator@U?$pair@$$CBVioHashString@@PAVioBuff@@@std@@@4@$0A@@std@@@std@@U_Iterator_base0@2@@std@@QAE@XZ ENDP ; std::_Tree_unchecked_const_iterator<std::_Tree_val<std::_Tmap_traits<ioHashString,ioBuff *,std::less<ioHashString>,std::allocator<std::pair<ioHashString const ,ioBuff *> >,0> >,std::_Iterator_base0>::_Tree_unchecked_const_iterator<std::_Tree_val<std::_Tmap_traits<ioHashString,ioBuff *,std::less<ioHashString>,std::allocator<std::pair<ioHashString const ,ioBuff *> >,0> >,std::_Iterator_base0>
_TEXT	ENDS
PUBLIC	??0?$_Tree_unchecked_const_iterator@V?$_Tree_val@V?$_Tmap_traits@VioHashString@@PAVioBuff@@U?$less@VioHashString@@@std@@V?$allocator@U?$pair@$$CBVioHashString@@PAVioBuff@@@std@@@4@$0A@@std@@@std@@U_Iterator_base0@2@@std@@QAE@PAU_Node@?$_Tree_nod@V?$_Tmap_traits@VioHashString@@PAVioBuff@@U?$less@VioHashString@@@std@@V?$allocator@U?$pair@$$CBVioHashString@@PAVioBuff@@@std@@@4@$0A@@std@@@1@PBV?$_Tree_val@V?$_Tmap_traits@VioHashString@@PAVioBuff@@U?$less@VioHashString@@@std@@V?$allocator@U?$pair@$$CBVioHashString@@PAVioBuff@@@std@@@4@$0A@@std@@@1@@Z ; std::_Tree_unchecked_const_iterator<std::_Tree_val<std::_Tmap_traits<ioHashString,ioBuff *,std::less<ioHashString>,std::allocator<std::pair<ioHashString const ,ioBuff *> >,0> >,std::_Iterator_base0>::_Tree_unchecked_const_iterator<std::_Tree_val<std::_Tmap_traits<ioHashString,ioBuff *,std::less<ioHashString>,std::allocator<std::pair<ioHashString const ,ioBuff *> >,0> >,std::_Iterator_base0>
; Function compile flags: /Ogsp
;	COMDAT ??0?$_Tree_unchecked_const_iterator@V?$_Tree_val@V?$_Tmap_traits@VioHashString@@PAVioBuff@@U?$less@VioHashString@@@std@@V?$allocator@U?$pair@$$CBVioHashString@@PAVioBuff@@@std@@@4@$0A@@std@@@std@@U_Iterator_base0@2@@std@@QAE@PAU_Node@?$_Tree_nod@V?$_Tmap_traits@VioHashString@@PAVioBuff@@U?$less@VioHashString@@@std@@V?$allocator@U?$pair@$$CBVioHashString@@PAVioBuff@@@std@@@4@$0A@@std@@@1@PBV?$_Tree_val@V?$_Tmap_traits@VioHashString@@PAVioBuff@@U?$less@VioHashString@@@std@@V?$allocator@U?$pair@$$CBVioHashString@@PAVioBuff@@@std@@@4@$0A@@std@@@1@@Z
_TEXT	SEGMENT
__Pnode$ = 8						; size = 4
__Plist$ = 12						; size = 4
??0?$_Tree_unchecked_const_iterator@V?$_Tree_val@V?$_Tmap_traits@VioHashString@@PAVioBuff@@U?$less@VioHashString@@@std@@V?$allocator@U?$pair@$$CBVioHashString@@PAVioBuff@@@std@@@4@$0A@@std@@@std@@U_Iterator_base0@2@@std@@QAE@PAU_Node@?$_Tree_nod@V?$_Tmap_traits@VioHashString@@PAVioBuff@@U?$less@VioHashString@@@std@@V?$allocator@U?$pair@$$CBVioHashString@@PAVioBuff@@@std@@@4@$0A@@std@@@1@PBV?$_Tree_val@V?$_Tmap_traits@VioHashString@@PAVioBuff@@U?$less@VioHashString@@@std@@V?$allocator@U?$pair@$$CBVioHashString@@PAVioBuff@@@std@@@4@$0A@@std@@@1@@Z PROC ; std::_Tree_unchecked_const_iterator<std::_Tree_val<std::_Tmap_traits<ioHashString,ioBuff *,std::less<ioHashString>,std::allocator<std::pair<ioHashString const ,ioBuff *> >,0> >,std::_Iterator_base0>::_Tree_unchecked_const_iterator<std::_Tree_val<std::_Tmap_traits<ioHashString,ioBuff *,std::less<ioHashString>,std::allocator<std::pair<ioHashString const ,ioBuff *> >,0> >,std::_Iterator_base0>, COMDAT
; _this$ = ecx

; 43   : 		{	// construct with node pointer _Pnode

  00000	55		 push	 ebp
  00001	8b ec		 mov	 ebp, esp
  00003	8b c1		 mov	 eax, ecx
  00005	8b 4d 08	 mov	 ecx, DWORD PTR __Pnode$[ebp]
  00008	89 08		 mov	 DWORD PTR [eax], ecx

; 44   : 		this->_Adopt(_Plist);
; 45   : 		}

  0000a	5d		 pop	 ebp
  0000b	c2 08 00	 ret	 8
??0?$_Tree_unchecked_const_iterator@V?$_Tree_val@V?$_Tmap_traits@VioHashString@@PAVioBuff@@U?$less@VioHashString@@@std@@V?$allocator@U?$pair@$$CBVioHashString@@PAVioBuff@@@std@@@4@$0A@@std@@@std@@U_Iterator_base0@2@@std@@QAE@PAU_Node@?$_Tree_nod@V?$_Tmap_traits@VioHashString@@PAVioBuff@@U?$less@VioHashString@@@std@@V?$allocator@U?$pair@$$CBVioHashString@@PAVioBuff@@@std@@@4@$0A@@std@@@1@PBV?$_Tree_val@V?$_Tmap_traits@VioHashString@@PAVioBuff@@U?$less@VioHashString@@@std@@V?$allocator@U?$pair@$$CBVioHashString@@PAVioBuff@@@std@@@4@$0A@@std@@@1@@Z ENDP ; std::_Tree_unchecked_const_iterator<std::_Tree_val<std::_Tmap_traits<ioHashString,ioBuff *,std::less<ioHashString>,std::allocator<std::pair<ioHashString const ,ioBuff *> >,0> >,std::_Iterator_base0>::_Tree_unchecked_const_iterator<std::_Tree_val<std::_Tmap_traits<ioHashString,ioBuff *,std::less<ioHashString>,std::allocator<std::pair<ioHashString const ,ioBuff *> >,0> >,std::_Iterator_base0>
_TEXT	ENDS
PUBLIC	?_Color@?$_Tree_val@V?$_Tmap_traits@VioHashString@@PAVioBuff@@U?$less@VioHashString@@@std@@V?$allocator@U?$pair@$$CBVioHashString@@PAVioBuff@@@std@@@4@$0A@@std@@@std@@SAAADPAU_Node@?$_Tree_nod@V?$_Tmap_traits@VioHashString@@PAVioBuff@@U?$less@VioHashString@@@std@@V?$allocator@U?$pair@$$CBVioHashString@@PAVioBuff@@@std@@@4@$0A@@std@@@2@@Z ; std::_Tree_val<std::_Tmap_traits<ioHashString,ioBuff *,std::less<ioHashString>,std::allocator<std::pair<ioHashString const ,ioBuff *> >,0> >::_Color
; Function compile flags: /Ogsp
;	COMDAT ?_Color@?$_Tree_val@V?$_Tmap_traits@VioHashString@@PAVioBuff@@U?$less@VioHashString@@@std@@V?$allocator@U?$pair@$$CBVioHashString@@PAVioBuff@@@std@@@4@$0A@@std@@@std@@SAAADPAU_Node@?$_Tree_nod@V?$_Tmap_traits@VioHashString@@PAVioBuff@@U?$less@VioHashString@@@std@@V?$allocator@U?$pair@$$CBVioHashString@@PAVioBuff@@@std@@@4@$0A@@std@@@2@@Z
_TEXT	SEGMENT
__Pnode$ = 8						; size = 4
?_Color@?$_Tree_val@V?$_Tmap_traits@VioHashString@@PAVioBuff@@U?$less@VioHashString@@@std@@V?$allocator@U?$pair@$$CBVioHashString@@PAVioBuff@@@std@@@4@$0A@@std@@@std@@SAAADPAU_Node@?$_Tree_nod@V?$_Tmap_traits@VioHashString@@PAVioBuff@@U?$less@VioHashString@@@std@@V?$allocator@U?$pair@$$CBVioHashString@@PAVioBuff@@@std@@@4@$0A@@std@@@2@@Z PROC ; std::_Tree_val<std::_Tmap_traits<ioHashString,ioBuff *,std::less<ioHashString>,std::allocator<std::pair<ioHashString const ,ioBuff *> >,0> >::_Color, COMDAT

; 606  : 		{	// return reference to color in node

  00000	55		 push	 ebp
  00001	8b ec		 mov	 ebp, esp

; 607  : 		return ((char&)(*_Pnode)._Color);

  00003	8b 45 08	 mov	 eax, DWORD PTR __Pnode$[ebp]
  00006	83 c0 20	 add	 eax, 32			; 00000020H

; 608  : 		}

  00009	5d		 pop	 ebp
  0000a	c3		 ret	 0
?_Color@?$_Tree_val@V?$_Tmap_traits@VioHashString@@PAVioBuff@@U?$less@VioHashString@@@std@@V?$allocator@U?$pair@$$CBVioHashString@@PAVioBuff@@@std@@@4@$0A@@std@@@std@@SAAADPAU_Node@?$_Tree_nod@V?$_Tmap_traits@VioHashString@@PAVioBuff@@U?$less@VioHashString@@@std@@V?$allocator@U?$pair@$$CBVioHashString@@PAVioBuff@@@std@@@4@$0A@@std@@@2@@Z ENDP ; std::_Tree_val<std::_Tmap_traits<ioHashString,ioBuff *,std::less<ioHashString>,std::allocator<std::pair<ioHashString const ,ioBuff *> >,0> >::_Color
_TEXT	ENDS
PUBLIC	?_Min@?$_Tree_val@V?$_Tmap_traits@VioHashString@@PAVioBuff@@U?$less@VioHashString@@@std@@V?$allocator@U?$pair@$$CBVioHashString@@PAVioBuff@@@std@@@4@$0A@@std@@@std@@SAPAU_Node@?$_Tree_nod@V?$_Tmap_traits@VioHashString@@PAVioBuff@@U?$less@VioHashString@@@std@@V?$allocator@U?$pair@$$CBVioHashString@@PAVioBuff@@@std@@@4@$0A@@std@@@2@PAU342@@Z ; std::_Tree_val<std::_Tmap_traits<ioHashString,ioBuff *,std::less<ioHashString>,std::allocator<std::pair<ioHashString const ,ioBuff *> >,0> >::_Min
; Function compile flags: /Ogsp
;	COMDAT ?_Min@?$_Tree_val@V?$_Tmap_traits@VioHashString@@PAVioBuff@@U?$less@VioHashString@@@std@@V?$allocator@U?$pair@$$CBVioHashString@@PAVioBuff@@@std@@@4@$0A@@std@@@std@@SAPAU_Node@?$_Tree_nod@V?$_Tmap_traits@VioHashString@@PAVioBuff@@U?$less@VioHashString@@@std@@V?$allocator@U?$pair@$$CBVioHashString@@PAVioBuff@@@std@@@4@$0A@@std@@@2@PAU342@@Z
_TEXT	SEGMENT
__Pnode$ = 8						; size = 4
?_Min@?$_Tree_val@V?$_Tmap_traits@VioHashString@@PAVioBuff@@U?$less@VioHashString@@@std@@V?$allocator@U?$pair@$$CBVioHashString@@PAVioBuff@@@std@@@4@$0A@@std@@@std@@SAPAU_Node@?$_Tree_nod@V?$_Tmap_traits@VioHashString@@PAVioBuff@@U?$less@VioHashString@@@std@@V?$allocator@U?$pair@$$CBVioHashString@@PAVioBuff@@@std@@@4@$0A@@std@@@2@PAU342@@Z PROC ; std::_Tree_val<std::_Tmap_traits<ioHashString,ioBuff *,std::less<ioHashString>,std::allocator<std::pair<ioHashString const ,ioBuff *> >,0> >::_Min, COMDAT

; 648  : 		{	// return leftmost node in subtree at _Pnode

  00000	55		 push	 ebp
  00001	8b ec		 mov	 ebp, esp

; 649  : 		while (!_Isnil(_Left(_Pnode)))

  00003	8b 45 08	 mov	 eax, DWORD PTR __Pnode$[ebp]
  00006	eb 02		 jmp	 SHORT $LN14@Min
$LL2@Min:

; 650  : 			_Pnode = _Left(_Pnode);

  00008	8b c1		 mov	 eax, ecx
$LN14@Min:

; 649  : 		while (!_Isnil(_Left(_Pnode)))

  0000a	8b 08		 mov	 ecx, DWORD PTR [eax]
  0000c	80 79 21 00	 cmp	 BYTE PTR [ecx+33], 0
  00010	74 f6		 je	 SHORT $LL2@Min

; 651  : 		return (_Pnode);
; 652  : 		}

  00012	5d		 pop	 ebp
  00013	c3		 ret	 0
?_Min@?$_Tree_val@V?$_Tmap_traits@VioHashString@@PAVioBuff@@U?$less@VioHashString@@@std@@V?$allocator@U?$pair@$$CBVioHashString@@PAVioBuff@@@std@@@4@$0A@@std@@@std@@SAPAU_Node@?$_Tree_nod@V?$_Tmap_traits@VioHashString@@PAVioBuff@@U?$less@VioHashString@@@std@@V?$allocator@U?$pair@$$CBVioHashString@@PAVioBuff@@@std@@@4@$0A@@std@@@2@PAU342@@Z ENDP ; std::_Tree_val<std::_Tmap_traits<ioHashString,ioBuff *,std::less<ioHashString>,std::allocator<std::pair<ioHashString const ,ioBuff *> >,0> >::_Min
_TEXT	ENDS
PUBLIC	?_Max@?$_Tree_val@V?$_Tmap_traits@VioHashString@@PAVioBuff@@U?$less@VioHashString@@@std@@V?$allocator@U?$pair@$$CBVioHashString@@PAVioBuff@@@std@@@4@$0A@@std@@@std@@SAPAU_Node@?$_Tree_nod@V?$_Tmap_traits@VioHashString@@PAVioBuff@@U?$less@VioHashString@@@std@@V?$allocator@U?$pair@$$CBVioHashString@@PAVioBuff@@@std@@@4@$0A@@std@@@2@PAU342@@Z ; std::_Tree_val<std::_Tmap_traits<ioHashString,ioBuff *,std::less<ioHashString>,std::allocator<std::pair<ioHashString const ,ioBuff *> >,0> >::_Max
; Function compile flags: /Ogsp
;	COMDAT ?_Max@?$_Tree_val@V?$_Tmap_traits@VioHashString@@PAVioBuff@@U?$less@VioHashString@@@std@@V?$allocator@U?$pair@$$CBVioHashString@@PAVioBuff@@@std@@@4@$0A@@std@@@std@@SAPAU_Node@?$_Tree_nod@V?$_Tmap_traits@VioHashString@@PAVioBuff@@U?$less@VioHashString@@@std@@V?$allocator@U?$pair@$$CBVioHashString@@PAVioBuff@@@std@@@4@$0A@@std@@@2@PAU342@@Z
_TEXT	SEGMENT
__Pnode$ = 8						; size = 4
?_Max@?$_Tree_val@V?$_Tmap_traits@VioHashString@@PAVioBuff@@U?$less@VioHashString@@@std@@V?$allocator@U?$pair@$$CBVioHashString@@PAVioBuff@@@std@@@4@$0A@@std@@@std@@SAPAU_Node@?$_Tree_nod@V?$_Tmap_traits@VioHashString@@PAVioBuff@@U?$less@VioHashString@@@std@@V?$allocator@U?$pair@$$CBVioHashString@@PAVioBuff@@@std@@@4@$0A@@std@@@2@PAU342@@Z PROC ; std::_Tree_val<std::_Tmap_traits<ioHashString,ioBuff *,std::less<ioHashString>,std::allocator<std::pair<ioHashString const ,ioBuff *> >,0> >::_Max, COMDAT

; 641  : 		{	// return rightmost node in subtree at _Pnode

  00000	55		 push	 ebp
  00001	8b ec		 mov	 ebp, esp

; 642  : 		while (!_Isnil(_Right(_Pnode)))

  00003	8b 45 08	 mov	 eax, DWORD PTR __Pnode$[ebp]
  00006	eb 02		 jmp	 SHORT $LN14@Max
$LL2@Max:

; 643  : 			_Pnode = _Right(_Pnode);

  00008	8b c1		 mov	 eax, ecx
$LN14@Max:

; 642  : 		while (!_Isnil(_Right(_Pnode)))

  0000a	8b 48 08	 mov	 ecx, DWORD PTR [eax+8]
  0000d	80 79 21 00	 cmp	 BYTE PTR [ecx+33], 0
  00011	74 f5		 je	 SHORT $LL2@Max

; 644  : 		return (_Pnode);
; 645  : 		}

  00013	5d		 pop	 ebp
  00014	c3		 ret	 0
?_Max@?$_Tree_val@V?$_Tmap_traits@VioHashString@@PAVioBuff@@U?$less@VioHashString@@@std@@V?$allocator@U?$pair@$$CBVioHashString@@PAVioBuff@@@std@@@4@$0A@@std@@@std@@SAPAU_Node@?$_Tree_nod@V?$_Tmap_traits@VioHashString@@PAVioBuff@@U?$less@VioHashString@@@std@@V?$allocator@U?$pair@$$CBVioHashString@@PAVioBuff@@@std@@@4@$0A@@std@@@2@PAU342@@Z ENDP ; std::_Tree_val<std::_Tmap_traits<ioHashString,ioBuff *,std::less<ioHashString>,std::allocator<std::pair<ioHashString const ,ioBuff *> >,0> >::_Max
_TEXT	ENDS
PUBLIC	??0?$_Tmap_traits@VioHashString@@PAVioBuff@@U?$less@VioHashString@@@std@@V?$allocator@U?$pair@$$CBVioHashString@@PAVioBuff@@@std@@@4@$0A@@std@@QAE@U?$less@VioHashString@@@1@@Z ; std::_Tmap_traits<ioHashString,ioBuff *,std::less<ioHashString>,std::allocator<std::pair<ioHashString const ,ioBuff *> >,0>::_Tmap_traits<ioHashString,ioBuff *,std::less<ioHashString>,std::allocator<std::pair<ioHashString const ,ioBuff *> >,0>
; Function compile flags: /Ogsp
; File c:\program files (x86)\microsoft visual studio 10.0\vc\include\map
;	COMDAT ??0?$_Tmap_traits@VioHashString@@PAVioBuff@@U?$less@VioHashString@@@std@@V?$allocator@U?$pair@$$CBVioHashString@@PAVioBuff@@@std@@@4@$0A@@std@@QAE@U?$less@VioHashString@@@1@@Z
_TEXT	SEGMENT
__Parg$ = 8						; size = 1
??0?$_Tmap_traits@VioHashString@@PAVioBuff@@U?$less@VioHashString@@@std@@V?$allocator@U?$pair@$$CBVioHashString@@PAVioBuff@@@std@@@4@$0A@@std@@QAE@U?$less@VioHashString@@@1@@Z PROC ; std::_Tmap_traits<ioHashString,ioBuff *,std::less<ioHashString>,std::allocator<std::pair<ioHashString const ,ioBuff *> >,0>::_Tmap_traits<ioHashString,ioBuff *,std::less<ioHashString>,std::allocator<std::pair<ioHashString const ,ioBuff *> >,0>, COMDAT
; _this$ = ecx

; 40   : 		{	// construct with specified comparator

  00000	8b c1		 mov	 eax, ecx

; 41   : 		}

  00002	c2 04 00	 ret	 4
??0?$_Tmap_traits@VioHashString@@PAVioBuff@@U?$less@VioHashString@@@std@@V?$allocator@U?$pair@$$CBVioHashString@@PAVioBuff@@@std@@@4@$0A@@std@@QAE@U?$less@VioHashString@@@1@@Z ENDP ; std::_Tmap_traits<ioHashString,ioBuff *,std::less<ioHashString>,std::allocator<std::pair<ioHashString const ,ioBuff *> >,0>::_Tmap_traits<ioHashString,ioBuff *,std::less<ioHashString>,std::allocator<std::pair<ioHashString const ,ioBuff *> >,0>
_TEXT	ENDS
PUBLIC	??$addressof@U?$pair@$$CBVioHashString@@PAVioBuff@@@std@@@std@@YAPAU?$pair@$$CBVioHashString@@PAVioBuff@@@0@AAU10@@Z ; std::addressof<std::pair<ioHashString const ,ioBuff *> >
; Function compile flags: /Ogsp
; File c:\program files (x86)\microsoft visual studio 10.0\vc\include\xmemory
;	COMDAT ??$addressof@U?$pair@$$CBVioHashString@@PAVioBuff@@@std@@@std@@YAPAU?$pair@$$CBVioHashString@@PAVioBuff@@@0@AAU10@@Z
_TEXT	SEGMENT
__Val$ = 8						; size = 4
??$addressof@U?$pair@$$CBVioHashString@@PAVioBuff@@@std@@@std@@YAPAU?$pair@$$CBVioHashString@@PAVioBuff@@@0@AAU10@@Z PROC ; std::addressof<std::pair<ioHashString const ,ioBuff *> >, COMDAT

; 110  : 	{	// return address of _Val

  00000	55		 push	 ebp
  00001	8b ec		 mov	 ebp, esp

; 111  : 	return ((_Ty *) &(char&)_Val);

  00003	8b 45 08	 mov	 eax, DWORD PTR __Val$[ebp]

; 112  : 	}

  00006	5d		 pop	 ebp
  00007	c3		 ret	 0
??$addressof@U?$pair@$$CBVioHashString@@PAVioBuff@@@std@@@std@@YAPAU?$pair@$$CBVioHashString@@PAVioBuff@@@0@AAU10@@Z ENDP ; std::addressof<std::pair<ioHashString const ,ioBuff *> >
_TEXT	ENDS
PUBLIC	??$_Kfn@$$CBVioHashString@@PAVioBuff@@@?$_Tmap_traits@VioHashString@@PAVioBuff@@U?$less@VioHashString@@@std@@V?$allocator@U?$pair@$$CBVioHashString@@PAVioBuff@@@std@@@4@$0A@@std@@SAABVioHashString@@ABU?$pair@$$CBVioHashString@@PAVioBuff@@@1@@Z ; std::_Tmap_traits<ioHashString,ioBuff *,std::less<ioHashString>,std::allocator<std::pair<ioHashString const ,ioBuff *> >,0>::_Kfn<ioHashString const ,ioBuff *>
; Function compile flags: /Ogsp
; File c:\program files (x86)\microsoft visual studio 10.0\vc\include\map
;	COMDAT ??$_Kfn@$$CBVioHashString@@PAVioBuff@@@?$_Tmap_traits@VioHashString@@PAVioBuff@@U?$less@VioHashString@@@std@@V?$allocator@U?$pair@$$CBVioHashString@@PAVioBuff@@@std@@@4@$0A@@std@@SAABVioHashString@@ABU?$pair@$$CBVioHashString@@PAVioBuff@@@1@@Z
_TEXT	SEGMENT
__Val$ = 8						; size = 4
??$_Kfn@$$CBVioHashString@@PAVioBuff@@@?$_Tmap_traits@VioHashString@@PAVioBuff@@U?$less@VioHashString@@@std@@V?$allocator@U?$pair@$$CBVioHashString@@PAVioBuff@@@std@@@4@$0A@@std@@SAABVioHashString@@ABU?$pair@$$CBVioHashString@@PAVioBuff@@@1@@Z PROC ; std::_Tmap_traits<ioHashString,ioBuff *,std::less<ioHashString>,std::allocator<std::pair<ioHashString const ,ioBuff *> >,0>::_Kfn<ioHashString const ,ioBuff *>, COMDAT

; 66   : 		static const _Kty& _Kfn(const _STD pair<_Ty1, _Ty2>& _Val)

  00000	55		 push	 ebp
  00001	8b ec		 mov	 ebp, esp

; 67   : 		{	// extract key from element value
; 68   : 		return (_Val.first);

  00003	8b 45 08	 mov	 eax, DWORD PTR __Val$[ebp]

; 69   : 		}

  00006	5d		 pop	 ebp
  00007	c3		 ret	 0
??$_Kfn@$$CBVioHashString@@PAVioBuff@@@?$_Tmap_traits@VioHashString@@PAVioBuff@@U?$less@VioHashString@@@std@@V?$allocator@U?$pair@$$CBVioHashString@@PAVioBuff@@@std@@@4@$0A@@std@@SAABVioHashString@@ABU?$pair@$$CBVioHashString@@PAVioBuff@@@1@@Z ENDP ; std::_Tmap_traits<ioHashString,ioBuff *,std::less<ioHashString>,std::allocator<std::pair<ioHashString const ,ioBuff *> >,0>::_Kfn<ioHashString const ,ioBuff *>
_TEXT	ENDS
PUBLIC	??$?0U?$pair@$$CBVioHashString@@PAVioBuff@@@std@@@?$allocator@U_Node@?$_Tree_nod@V?$_Tmap_traits@VioHashString@@PAVioBuff@@U?$less@VioHashString@@@std@@V?$allocator@U?$pair@$$CBVioHashString@@PAVioBuff@@@std@@@4@$0A@@std@@@std@@@std@@QAE@ABV?$allocator@U?$pair@$$CBVioHashString@@PAVioBuff@@@std@@@1@@Z ; std::allocator<std::_Tree_nod<std::_Tmap_traits<ioHashString,ioBuff *,std::less<ioHashString>,std::allocator<std::pair<ioHashString const ,ioBuff *> >,0> >::_Node>::allocator<std::_Tree_nod<std::_Tmap_traits<ioHashString,ioBuff *,std::less<ioHashString>,std::allocator<std::pair<ioHashString const ,ioBuff *> >,0> >::_Node><std::pair<ioHashString const ,ioBuff *> >
; Function compile flags: /Ogsp
; File c:\program files (x86)\microsoft visual studio 10.0\vc\include\xmemory
;	COMDAT ??$?0U?$pair@$$CBVioHashString@@PAVioBuff@@@std@@@?$allocator@U_Node@?$_Tree_nod@V?$_Tmap_traits@VioHashString@@PAVioBuff@@U?$less@VioHashString@@@std@@V?$allocator@U?$pair@$$CBVioHashString@@PAVioBuff@@@std@@@4@$0A@@std@@@std@@@std@@QAE@ABV?$allocator@U?$pair@$$CBVioHashString@@PAVioBuff@@@std@@@1@@Z
_TEXT	SEGMENT
___formal$ = 8						; size = 4
??$?0U?$pair@$$CBVioHashString@@PAVioBuff@@@std@@@?$allocator@U_Node@?$_Tree_nod@V?$_Tmap_traits@VioHashString@@PAVioBuff@@U?$less@VioHashString@@@std@@V?$allocator@U?$pair@$$CBVioHashString@@PAVioBuff@@@std@@@4@$0A@@std@@@std@@@std@@QAE@ABV?$allocator@U?$pair@$$CBVioHashString@@PAVioBuff@@@std@@@1@@Z PROC ; std::allocator<std::_Tree_nod<std::_Tmap_traits<ioHashString,ioBuff *,std::less<ioHashString>,std::allocator<std::pair<ioHashString const ,ioBuff *> >,0> >::_Node>::allocator<std::_Tree_nod<std::_Tmap_traits<ioHashString,ioBuff *,std::less<ioHashString>,std::allocator<std::pair<ioHashString const ,ioBuff *> >,0> >::_Node><std::pair<ioHashString const ,ioBuff *> >, COMDAT
; _this$ = ecx

; 170  : 		_ALLOCATOR(const _ALLOCATOR<_Other>&) _THROW0()

  00000	8b c1		 mov	 eax, ecx

; 171  : 		{	// construct from a related allocator (do nothing)
; 172  : 		}

  00002	c2 04 00	 ret	 4
??$?0U?$pair@$$CBVioHashString@@PAVioBuff@@@std@@@?$allocator@U_Node@?$_Tree_nod@V?$_Tmap_traits@VioHashString@@PAVioBuff@@U?$less@VioHashString@@@std@@V?$allocator@U?$pair@$$CBVioHashString@@PAVioBuff@@@std@@@4@$0A@@std@@@std@@@std@@QAE@ABV?$allocator@U?$pair@$$CBVioHashString@@PAVioBuff@@@std@@@1@@Z ENDP ; std::allocator<std::_Tree_nod<std::_Tmap_traits<ioHashString,ioBuff *,std::less<ioHashString>,std::allocator<std::pair<ioHashString const ,ioBuff *> >,0> >::_Node>::allocator<std::_Tree_nod<std::_Tmap_traits<ioHashString,ioBuff *,std::less<ioHashString>,std::allocator<std::pair<ioHashString const ,ioBuff *> >,0> >::_Node><std::pair<ioHashString const ,ioBuff *> >
_TEXT	ENDS
PUBLIC	__TI2?AVbad_alloc@std@@
PUBLIC	??$_Allocate@U_Node@?$_Tree_nod@V?$_Tmap_traits@VioHashString@@PAVioBuff@@U?$less@VioHashString@@@std@@V?$allocator@U?$pair@$$CBVioHashString@@PAVioBuff@@@std@@@4@$0A@@std@@@std@@@std@@YAPAU_Node@?$_Tree_nod@V?$_Tmap_traits@VioHashString@@PAVioBuff@@U?$less@VioHashString@@@std@@V?$allocator@U?$pair@$$CBVioHashString@@PAVioBuff@@@std@@@4@$0A@@std@@@0@IPAU120@@Z ; std::_Allocate<std::_Tree_nod<std::_Tmap_traits<ioHashString,ioBuff *,std::less<ioHashString>,std::allocator<std::pair<ioHashString const ,ioBuff *> >,0> >::_Node>
PUBLIC	__CTA2?AVbad_alloc@std@@
PUBLIC	__CT??_R0?AVbad_alloc@std@@@8??0bad_alloc@std@@QAE@ABV01@@Z12
PUBLIC	??0bad_alloc@std@@QAE@ABV01@@Z			; std::bad_alloc::bad_alloc
PUBLIC	__CT??_R0?AVexception@std@@@8??0exception@std@@QAE@ABV01@@Z12
EXTRN	__CxxThrowException@8:PROC
EXTRN	??0exception@std@@QAE@ABV01@@Z:PROC		; std::exception::exception
;	COMDAT __CT??_R0?AVexception@std@@@8??0exception@std@@QAE@ABV01@@Z12
; File c:\program files (x86)\microsoft visual studio 10.0\vc\include\exception
xdata$x	SEGMENT
__CT??_R0?AVexception@std@@@8??0exception@std@@QAE@ABV01@@Z12 DD 00H
	DD	FLAT:??_R0?AVexception@std@@@8
	DD	00H
	DD	0ffffffffH
	ORG $+4
	DD	0cH
	DD	FLAT:??0exception@std@@QAE@ABV01@@Z
xdata$x	ENDS
;	COMDAT __CT??_R0?AVbad_alloc@std@@@8??0bad_alloc@std@@QAE@ABV01@@Z12
xdata$x	SEGMENT
__CT??_R0?AVbad_alloc@std@@@8??0bad_alloc@std@@QAE@ABV01@@Z12 DD 00H
	DD	FLAT:??_R0?AVbad_alloc@std@@@8
	DD	00H
	DD	0ffffffffH
	ORG $+4
	DD	0cH
	DD	FLAT:??0bad_alloc@std@@QAE@ABV01@@Z
xdata$x	ENDS
;	COMDAT __CTA2?AVbad_alloc@std@@
xdata$x	SEGMENT
__CTA2?AVbad_alloc@std@@ DD 02H
	DD	FLAT:__CT??_R0?AVbad_alloc@std@@@8??0bad_alloc@std@@QAE@ABV01@@Z12
	DD	FLAT:__CT??_R0?AVexception@std@@@8??0exception@std@@QAE@ABV01@@Z12
xdata$x	ENDS
;	COMDAT __TI2?AVbad_alloc@std@@
xdata$x	SEGMENT
__TI2?AVbad_alloc@std@@ DD 00H
	DD	FLAT:??1bad_alloc@std@@UAE@XZ
	DD	00H
	DD	FLAT:__CTA2?AVbad_alloc@std@@
; Function compile flags: /Ogsp
; File c:\program files (x86)\microsoft visual studio 10.0\vc\include\xmemory
xdata$x	ENDS
;	COMDAT ??$_Allocate@U_Node@?$_Tree_nod@V?$_Tmap_traits@VioHashString@@PAVioBuff@@U?$less@VioHashString@@@std@@V?$allocator@U?$pair@$$CBVioHashString@@PAVioBuff@@@std@@@4@$0A@@std@@@std@@@std@@YAPAU_Node@?$_Tree_nod@V?$_Tmap_traits@VioHashString@@PAVioBuff@@U?$less@VioHashString@@@std@@V?$allocator@U?$pair@$$CBVioHashString@@PAVioBuff@@@std@@@4@$0A@@std@@@0@IPAU120@@Z
_TEXT	SEGMENT
$T530544 = -12						; size = 12
$T530549 = 8						; size = 4
__Count$ = 8						; size = 4
___formal$ = 12						; size = 4
??$_Allocate@U_Node@?$_Tree_nod@V?$_Tmap_traits@VioHashString@@PAVioBuff@@U?$less@VioHashString@@@std@@V?$allocator@U?$pair@$$CBVioHashString@@PAVioBuff@@@std@@@4@$0A@@std@@@std@@@std@@YAPAU_Node@?$_Tree_nod@V?$_Tmap_traits@VioHashString@@PAVioBuff@@U?$less@VioHashString@@@std@@V?$allocator@U?$pair@$$CBVioHashString@@PAVioBuff@@@std@@@4@$0A@@std@@@0@IPAU120@@Z PROC ; std::_Allocate<std::_Tree_nod<std::_Tmap_traits<ioHashString,ioBuff *,std::less<ioHashString>,std::allocator<std::pair<ioHashString const ,ioBuff *> >,0> >::_Node>, COMDAT

; 30   : 	{	// allocate storage for _Count elements of type _Ty

  00000	55		 push	 ebp
  00001	8b ec		 mov	 ebp, esp

; 31   : 	void *_Ptr = 0;
; 32   : 
; 33   : 	if (_Count <= 0)

  00003	8b 4d 08	 mov	 ecx, DWORD PTR __Count$[ebp]
  00006	83 ec 0c	 sub	 esp, 12			; 0000000cH
  00009	33 c0		 xor	 eax, eax
  0000b	85 c9		 test	 ecx, ecx

; 34   : 		_Count = 0;
; 35   : 	else if (((_SIZT)(-1) / sizeof (_Ty) < _Count)

  0000d	74 3c		 je	 SHORT $LN5@Allocate

; 36   : 		|| (_Ptr = ::operator new(_Count * sizeof (_Ty))) == 0)

  0000f	81 f9 c7 71 1c
	07		 cmp	 ecx, 119304647		; 071c71c7H
  00015	77 0e		 ja	 SHORT $LN1@Allocate
  00017	6b c9 24	 imul	 ecx, 36			; 00000024H
  0001a	51		 push	 ecx
  0001b	e8 00 00 00 00	 call	 ??2@YAPAXI@Z		; operator new
  00020	59		 pop	 ecx
  00021	85 c0		 test	 eax, eax

; 38   : 
; 39   : 	return ((_Ty _FARQ *)_Ptr);

  00023	75 26		 jne	 SHORT $LN5@Allocate
$LN1@Allocate:

; 37   : 		_THROW_NCEE(bad_alloc, 0);

  00025	83 65 08 00	 and	 DWORD PTR $T530549[ebp], 0
  00029	8d 45 08	 lea	 eax, DWORD PTR $T530549[ebp]
  0002c	50		 push	 eax
  0002d	8d 4d f4	 lea	 ecx, DWORD PTR $T530544[ebp]
  00030	ff 15 00 00 00
	00		 call	 DWORD PTR __imp_??0exception@std@@QAE@ABQBD@Z
  00036	68 00 00 00 00	 push	 OFFSET __TI2?AVbad_alloc@std@@
  0003b	8d 45 f4	 lea	 eax, DWORD PTR $T530544[ebp]
  0003e	50		 push	 eax
  0003f	c7 45 f4 00 00
	00 00		 mov	 DWORD PTR $T530544[ebp], OFFSET ??_7bad_alloc@std@@6B@
  00046	e8 00 00 00 00	 call	 __CxxThrowException@8
$LN10@Allocate:
$LN5@Allocate:

; 40   : 	}

  0004b	c9		 leave
  0004c	c3		 ret	 0
$LN9@Allocate:
??$_Allocate@U_Node@?$_Tree_nod@V?$_Tmap_traits@VioHashString@@PAVioBuff@@U?$less@VioHashString@@@std@@V?$allocator@U?$pair@$$CBVioHashString@@PAVioBuff@@@std@@@4@$0A@@std@@@std@@@std@@YAPAU_Node@?$_Tree_nod@V?$_Tmap_traits@VioHashString@@PAVioBuff@@U?$less@VioHashString@@@std@@V?$allocator@U?$pair@$$CBVioHashString@@PAVioBuff@@@std@@@4@$0A@@std@@@0@IPAU120@@Z ENDP ; std::_Allocate<std::_Tree_nod<std::_Tmap_traits<ioHashString,ioBuff *,std::less<ioHashString>,std::allocator<std::pair<ioHashString const ,ioBuff *> >,0> >::_Node>
_TEXT	ENDS
PUBLIC	?max_size@?$allocator@U?$pair@$$CBVioHashString@@PAVioBuff@@@std@@@std@@QBEIXZ ; std::allocator<std::pair<ioHashString const ,ioBuff *> >::max_size
; Function compile flags: /Ogsp
;	COMDAT ?max_size@?$allocator@U?$pair@$$CBVioHashString@@PAVioBuff@@@std@@@std@@QBEIXZ
_TEXT	SEGMENT
?max_size@?$allocator@U?$pair@$$CBVioHashString@@PAVioBuff@@@std@@@std@@QBEIXZ PROC ; std::allocator<std::pair<ioHashString const ,ioBuff *> >::max_size, COMDAT
; _this$ = ecx

; 218  : 		_SIZT _Count = (_SIZT)(-1) / sizeof (_Ty);
; 219  : 		return (0 < _Count ? _Count : 1);

  00000	b8 cc cc cc 0c	 mov	 eax, 214748364		; 0cccccccH

; 220  : 		}

  00005	c3		 ret	 0
?max_size@?$allocator@U?$pair@$$CBVioHashString@@PAVioBuff@@@std@@@std@@QBEIXZ ENDP ; std::allocator<std::pair<ioHashString const ,ioBuff *> >::max_size
_TEXT	ENDS
PUBLIC	??F?$_Tree_unchecked_const_iterator@V?$_Tree_val@V?$_Tmap_traits@VioHashString@@PAVioBuff@@U?$less@VioHashString@@@std@@V?$allocator@U?$pair@$$CBVioHashString@@PAVioBuff@@@std@@@4@$0A@@std@@@std@@U_Iterator_base0@2@@std@@QAEAAV01@XZ ; std::_Tree_unchecked_const_iterator<std::_Tree_val<std::_Tmap_traits<ioHashString,ioBuff *,std::less<ioHashString>,std::allocator<std::pair<ioHashString const ,ioBuff *> >,0> >,std::_Iterator_base0>::operator--
; Function compile flags: /Ogsp
; File c:\program files (x86)\microsoft visual studio 10.0\vc\include\xtree
;	COMDAT ??F?$_Tree_unchecked_const_iterator@V?$_Tree_val@V?$_Tmap_traits@VioHashString@@PAVioBuff@@U?$less@VioHashString@@@std@@V?$allocator@U?$pair@$$CBVioHashString@@PAVioBuff@@@std@@@4@$0A@@std@@@std@@U_Iterator_base0@2@@std@@QAEAAV01@XZ
_TEXT	SEGMENT
??F?$_Tree_unchecked_const_iterator@V?$_Tree_val@V?$_Tmap_traits@VioHashString@@PAVioBuff@@U?$less@VioHashString@@@std@@V?$allocator@U?$pair@$$CBVioHashString@@PAVioBuff@@@std@@@4@$0A@@std@@@std@@U_Iterator_base0@2@@std@@QAEAAV01@XZ PROC ; std::_Tree_unchecked_const_iterator<std::_Tree_val<std::_Tmap_traits<ioHashString,ioBuff *,std::less<ioHashString>,std::allocator<std::pair<ioHashString const ,ioBuff *> >,0> >,std::_Iterator_base0>::operator--, COMDAT
; _this$ = ecx

; 83   : 		{	// predecrement

  00000	8b c1		 mov	 eax, ecx

; 84   : 		if (_Mytree::_Isnil(_Ptr))

  00002	8b 08		 mov	 ecx, DWORD PTR [eax]
  00004	53		 push	 ebx
  00005	32 db		 xor	 bl, bl
  00007	38 59 21	 cmp	 BYTE PTR [ecx+33], bl
  0000a	74 07		 je	 SHORT $LN8@operator

; 85   : 			_Ptr = _Mytree::_Right(_Ptr);	// end() ==> rightmost

  0000c	8b 49 08	 mov	 ecx, DWORD PTR [ecx+8]
  0000f	89 08		 mov	 DWORD PTR [eax], ecx
  00011	5b		 pop	 ebx

; 99   : 			}
; 100  : 		return (*this);
; 101  : 		}

  00012	c3		 ret	 0
$LN8@operator:

; 86   : 		else if (!_Mytree::_Isnil(_Mytree::_Left(_Ptr)))

  00013	8b 11		 mov	 edx, DWORD PTR [ecx]
  00015	38 5a 21	 cmp	 BYTE PTR [edx+33], bl
  00018	74 07		 je	 SHORT $LN44@operator

; 90   : 			{	// climb looking for left subtree
; 91   : 			_Nodeptr _Pnode;
; 92   : 			while (!_Mytree::_Isnil(_Pnode = _Mytree::_Parent(_Ptr))
; 93   : 				&& _Ptr == _Mytree::_Left(_Pnode))

  0001a	8b 51 04	 mov	 edx, DWORD PTR [ecx+4]
  0001d	eb 17		 jmp	 SHORT $LN46@operator

; 87   : 			_Ptr = _Mytree::_Max(
; 88   : 				_Mytree::_Left(_Ptr));	// ==> largest of left subtree

$LL22@operator:
  0001f	8b d1		 mov	 edx, ecx
$LN44@operator:
  00021	8b 4a 08	 mov	 ecx, DWORD PTR [edx+8]
  00024	38 59 21	 cmp	 BYTE PTR [ecx+33], bl
  00027	74 f6		 je	 SHORT $LL22@operator

; 89   : 		else

  00029	eb 17		 jmp	 SHORT $LN45@operator
$LL4@operator:

; 90   : 			{	// climb looking for left subtree
; 91   : 			_Nodeptr _Pnode;
; 92   : 			while (!_Mytree::_Isnil(_Pnode = _Mytree::_Parent(_Ptr))
; 93   : 				&& _Ptr == _Mytree::_Left(_Pnode))

  0002b	8b 08		 mov	 ecx, DWORD PTR [eax]
  0002d	3b 0a		 cmp	 ecx, DWORD PTR [edx]
  0002f	75 0a		 jne	 SHORT $LN3@operator

; 94   : 				_Ptr = _Pnode;	// ==> parent while left subtree

  00031	89 10		 mov	 DWORD PTR [eax], edx
  00033	8b 52 04	 mov	 edx, DWORD PTR [edx+4]
$LN46@operator:

; 90   : 			{	// climb looking for left subtree
; 91   : 			_Nodeptr _Pnode;
; 92   : 			while (!_Mytree::_Isnil(_Pnode = _Mytree::_Parent(_Ptr))
; 93   : 				&& _Ptr == _Mytree::_Left(_Pnode))

  00036	38 5a 21	 cmp	 BYTE PTR [edx+33], bl
  00039	74 f0		 je	 SHORT $LL4@operator
$LN3@operator:

; 95   : 			if (_Mytree::_Isnil(_Ptr))

  0003b	8b 08		 mov	 ecx, DWORD PTR [eax]
  0003d	38 59 21	 cmp	 BYTE PTR [ecx+33], bl
  00040	75 02		 jne	 SHORT $LN1@operator
$LN45@operator:

; 96   : 				;	// begin() shouldn't be decremented, don't move
; 97   : 			else
; 98   : 				_Ptr = _Pnode;	// ==> parent if not head

  00042	89 10		 mov	 DWORD PTR [eax], edx
$LN1@operator:
  00044	5b		 pop	 ebx

; 99   : 			}
; 100  : 		return (*this);
; 101  : 		}

  00045	c3		 ret	 0
??F?$_Tree_unchecked_const_iterator@V?$_Tree_val@V?$_Tmap_traits@VioHashString@@PAVioBuff@@U?$less@VioHashString@@@std@@V?$allocator@U?$pair@$$CBVioHashString@@PAVioBuff@@@std@@@4@$0A@@std@@@std@@U_Iterator_base0@2@@std@@QAEAAV01@XZ ENDP ; std::_Tree_unchecked_const_iterator<std::_Tree_val<std::_Tmap_traits<ioHashString,ioBuff *,std::less<ioHashString>,std::allocator<std::pair<ioHashString const ,ioBuff *> >,0> >,std::_Iterator_base0>::operator--
_TEXT	ENDS
PUBLIC	??$forward@AAPAVioBuff@@@std@@YAAAPAVioBuff@@AAPAV1@@Z ; std::forward<ioBuff * &>
; Function compile flags: /Ogsp
; File c:\program files (x86)\microsoft visual studio 10.0\vc\include\utility
;	COMDAT ??$forward@AAPAVioBuff@@@std@@YAAAPAVioBuff@@AAPAV1@@Z
_TEXT	SEGMENT
__Arg$ = 8						; size = 4
??$forward@AAPAVioBuff@@@std@@YAAAPAVioBuff@@AAPAV1@@Z PROC ; std::forward<ioBuff * &>, COMDAT

; 78   : 	{	// forward _Arg, given explicitly specified type parameter

  00000	55		 push	 ebp
  00001	8b ec		 mov	 ebp, esp

; 79   : 	return ((_Ty&&)_Arg);

  00003	8b 45 08	 mov	 eax, DWORD PTR __Arg$[ebp]

; 80   : 	}

  00006	5d		 pop	 ebp
  00007	c3		 ret	 0
??$forward@AAPAVioBuff@@@std@@YAAAPAVioBuff@@AAPAV1@@Z ENDP ; std::forward<ioBuff * &>
_TEXT	ENDS
PUBLIC	??$forward@U?$pair@$$CBVioHashString@@PAVioBuff@@@std@@@std@@YA$$QAU?$pair@$$CBVioHashString@@PAVioBuff@@@0@AAU10@@Z ; std::forward<std::pair<ioHashString const ,ioBuff *> >
; Function compile flags: /Ogsp
;	COMDAT ??$forward@U?$pair@$$CBVioHashString@@PAVioBuff@@@std@@@std@@YA$$QAU?$pair@$$CBVioHashString@@PAVioBuff@@@0@AAU10@@Z
_TEXT	SEGMENT
__Arg$ = 8						; size = 4
??$forward@U?$pair@$$CBVioHashString@@PAVioBuff@@@std@@@std@@YA$$QAU?$pair@$$CBVioHashString@@PAVioBuff@@@0@AAU10@@Z PROC ; std::forward<std::pair<ioHashString const ,ioBuff *> >, COMDAT

; 78   : 	{	// forward _Arg, given explicitly specified type parameter

  00000	55		 push	 ebp
  00001	8b ec		 mov	 ebp, esp

; 79   : 	return ((_Ty&&)_Arg);

  00003	8b 45 08	 mov	 eax, DWORD PTR __Arg$[ebp]

; 80   : 	}

  00006	5d		 pop	 ebp
  00007	c3		 ret	 0
??$forward@U?$pair@$$CBVioHashString@@PAVioBuff@@@std@@@std@@YA$$QAU?$pair@$$CBVioHashString@@PAVioBuff@@@0@AAU10@@Z ENDP ; std::forward<std::pair<ioHashString const ,ioBuff *> >
_TEXT	ENDS
PUBLIC	??$move@AAV?$_Tree_iterator@V?$_Tree_val@V?$_Tmap_traits@VioHashString@@PAVioBuff@@U?$less@VioHashString@@@std@@V?$allocator@U?$pair@$$CBVioHashString@@PAVioBuff@@@std@@@4@$0A@@std@@@std@@@std@@@std@@YA$$QAV?$_Tree_iterator@V?$_Tree_val@V?$_Tmap_traits@VioHashString@@PAVioBuff@@U?$less@VioHashString@@@std@@V?$allocator@U?$pair@$$CBVioHashString@@PAVioBuff@@@std@@@4@$0A@@std@@@std@@@0@AAV10@@Z ; std::move<std::_Tree_iterator<std::_Tree_val<std::_Tmap_traits<ioHashString,ioBuff *,std::less<ioHashString>,std::allocator<std::pair<ioHashString const ,ioBuff *> >,0> > > &>
; Function compile flags: /Ogsp
;	COMDAT ??$move@AAV?$_Tree_iterator@V?$_Tree_val@V?$_Tmap_traits@VioHashString@@PAVioBuff@@U?$less@VioHashString@@@std@@V?$allocator@U?$pair@$$CBVioHashString@@PAVioBuff@@@std@@@4@$0A@@std@@@std@@@std@@@std@@YA$$QAV?$_Tree_iterator@V?$_Tree_val@V?$_Tmap_traits@VioHashString@@PAVioBuff@@U?$less@VioHashString@@@std@@V?$allocator@U?$pair@$$CBVioHashString@@PAVioBuff@@@std@@@4@$0A@@std@@@std@@@0@AAV10@@Z
_TEXT	SEGMENT
__Arg$ = 8						; size = 4
??$move@AAV?$_Tree_iterator@V?$_Tree_val@V?$_Tmap_traits@VioHashString@@PAVioBuff@@U?$less@VioHashString@@@std@@V?$allocator@U?$pair@$$CBVioHashString@@PAVioBuff@@@std@@@4@$0A@@std@@@std@@@std@@@std@@YA$$QAV?$_Tree_iterator@V?$_Tree_val@V?$_Tmap_traits@VioHashString@@PAVioBuff@@U?$less@VioHashString@@@std@@V?$allocator@U?$pair@$$CBVioHashString@@PAVioBuff@@@std@@@4@$0A@@std@@@std@@@0@AAV10@@Z PROC ; std::move<std::_Tree_iterator<std::_Tree_val<std::_Tmap_traits<ioHashString,ioBuff *,std::less<ioHashString>,std::allocator<std::pair<ioHashString const ,ioBuff *> >,0> > > &>, COMDAT

; 86   : 	{	// forward _Arg as movable

  00000	55		 push	 ebp
  00001	8b ec		 mov	 ebp, esp

; 87   : 	return ((typename tr1::_Remove_reference<_Ty>::_Type&&)_Arg);

  00003	8b 45 08	 mov	 eax, DWORD PTR __Arg$[ebp]

; 88   : 	}

  00006	5d		 pop	 ebp
  00007	c3		 ret	 0
??$move@AAV?$_Tree_iterator@V?$_Tree_val@V?$_Tmap_traits@VioHashString@@PAVioBuff@@U?$less@VioHashString@@@std@@V?$allocator@U?$pair@$$CBVioHashString@@PAVioBuff@@@std@@@4@$0A@@std@@@std@@@std@@@std@@YA$$QAV?$_Tree_iterator@V?$_Tree_val@V?$_Tmap_traits@VioHashString@@PAVioBuff@@U?$less@VioHashString@@@std@@V?$allocator@U?$pair@$$CBVioHashString@@PAVioBuff@@@std@@@4@$0A@@std@@@std@@@0@AAV10@@Z ENDP ; std::move<std::_Tree_iterator<std::_Tree_val<std::_Tmap_traits<ioHashString,ioBuff *,std::less<ioHashString>,std::allocator<std::pair<ioHashString const ,ioBuff *> >,0> > > &>
_TEXT	ENDS
PUBLIC	??$forward@AAV?$_Tree_iterator@V?$_Tree_val@V?$_Tmap_traits@VioHashString@@PAVioBuff@@U?$less@VioHashString@@@std@@V?$allocator@U?$pair@$$CBVioHashString@@PAVioBuff@@@std@@@4@$0A@@std@@@std@@@std@@@std@@YAAAV?$_Tree_iterator@V?$_Tree_val@V?$_Tmap_traits@VioHashString@@PAVioBuff@@U?$less@VioHashString@@@std@@V?$allocator@U?$pair@$$CBVioHashString@@PAVioBuff@@@std@@@4@$0A@@std@@@std@@@0@AAV10@@Z ; std::forward<std::_Tree_iterator<std::_Tree_val<std::_Tmap_traits<ioHashString,ioBuff *,std::less<ioHashString>,std::allocator<std::pair<ioHashString const ,ioBuff *> >,0> > > &>
; Function compile flags: /Ogsp
;	COMDAT ??$forward@AAV?$_Tree_iterator@V?$_Tree_val@V?$_Tmap_traits@VioHashString@@PAVioBuff@@U?$less@VioHashString@@@std@@V?$allocator@U?$pair@$$CBVioHashString@@PAVioBuff@@@std@@@4@$0A@@std@@@std@@@std@@@std@@YAAAV?$_Tree_iterator@V?$_Tree_val@V?$_Tmap_traits@VioHashString@@PAVioBuff@@U?$less@VioHashString@@@std@@V?$allocator@U?$pair@$$CBVioHashString@@PAVioBuff@@@std@@@4@$0A@@std@@@std@@@0@AAV10@@Z
_TEXT	SEGMENT
__Arg$ = 8						; size = 4
??$forward@AAV?$_Tree_iterator@V?$_Tree_val@V?$_Tmap_traits@VioHashString@@PAVioBuff@@U?$less@VioHashString@@@std@@V?$allocator@U?$pair@$$CBVioHashString@@PAVioBuff@@@std@@@4@$0A@@std@@@std@@@std@@@std@@YAAAV?$_Tree_iterator@V?$_Tree_val@V?$_Tmap_traits@VioHashString@@PAVioBuff@@U?$less@VioHashString@@@std@@V?$allocator@U?$pair@$$CBVioHashString@@PAVioBuff@@@std@@@4@$0A@@std@@@std@@@0@AAV10@@Z PROC ; std::forward<std::_Tree_iterator<std::_Tree_val<std::_Tmap_traits<ioHashString,ioBuff *,std::less<ioHashString>,std::allocator<std::pair<ioHashString const ,ioBuff *> >,0> > > &>, COMDAT

; 78   : 	{	// forward _Arg, given explicitly specified type parameter

  00000	55		 push	 ebp
  00001	8b ec		 mov	 ebp, esp

; 79   : 	return ((_Ty&&)_Arg);

  00003	8b 45 08	 mov	 eax, DWORD PTR __Arg$[ebp]

; 80   : 	}

  00006	5d		 pop	 ebp
  00007	c3		 ret	 0
??$forward@AAV?$_Tree_iterator@V?$_Tree_val@V?$_Tmap_traits@VioHashString@@PAVioBuff@@U?$less@VioHashString@@@std@@V?$allocator@U?$pair@$$CBVioHashString@@PAVioBuff@@@std@@@4@$0A@@std@@@std@@@std@@@std@@YAAAV?$_Tree_iterator@V?$_Tree_val@V?$_Tmap_traits@VioHashString@@PAVioBuff@@U?$less@VioHashString@@@std@@V?$allocator@U?$pair@$$CBVioHashString@@PAVioBuff@@@std@@@4@$0A@@std@@@std@@@0@AAV10@@Z ENDP ; std::forward<std::_Tree_iterator<std::_Tree_val<std::_Tmap_traits<ioHashString,ioBuff *,std::less<ioHashString>,std::allocator<std::pair<ioHashString const ,ioBuff *> >,0> > > &>
_TEXT	ENDS
PUBLIC	??$forward@PAVioBuff@@@std@@YA$$QAPAVioBuff@@AAPAV1@@Z ; std::forward<ioBuff *>
; Function compile flags: /Ogsp
;	COMDAT ??$forward@PAVioBuff@@@std@@YA$$QAPAVioBuff@@AAPAV1@@Z
_TEXT	SEGMENT
__Arg$ = 8						; size = 4
??$forward@PAVioBuff@@@std@@YA$$QAPAVioBuff@@AAPAV1@@Z PROC ; std::forward<ioBuff *>, COMDAT

; 78   : 	{	// forward _Arg, given explicitly specified type parameter

  00000	55		 push	 ebp
  00001	8b ec		 mov	 ebp, esp

; 79   : 	return ((_Ty&&)_Arg);

  00003	8b 45 08	 mov	 eax, DWORD PTR __Arg$[ebp]

; 80   : 	}

  00006	5d		 pop	 ebp
  00007	c3		 ret	 0
??$forward@PAVioBuff@@@std@@YA$$QAPAVioBuff@@AAPAV1@@Z ENDP ; std::forward<ioBuff *>
_TEXT	ENDS
PUBLIC	??$move@AAPAVioBuff@@@std@@YA$$QAPAVioBuff@@AAPAV1@@Z ; std::move<ioBuff * &>
; Function compile flags: /Ogsp
;	COMDAT ??$move@AAPAVioBuff@@@std@@YA$$QAPAVioBuff@@AAPAV1@@Z
_TEXT	SEGMENT
__Arg$ = 8						; size = 4
??$move@AAPAVioBuff@@@std@@YA$$QAPAVioBuff@@AAPAV1@@Z PROC ; std::move<ioBuff * &>, COMDAT

; 86   : 	{	// forward _Arg as movable

  00000	55		 push	 ebp
  00001	8b ec		 mov	 ebp, esp

; 87   : 	return ((typename tr1::_Remove_reference<_Ty>::_Type&&)_Arg);

  00003	8b 45 08	 mov	 eax, DWORD PTR __Arg$[ebp]

; 88   : 	}

  00006	5d		 pop	 ebp
  00007	c3		 ret	 0
??$move@AAPAVioBuff@@@std@@YA$$QAPAVioBuff@@AAPAV1@@Z ENDP ; std::move<ioBuff * &>
_TEXT	ENDS
PUBLIC	?_DECSTR@@YAXPADH@Z				; _DECSTR
; Function compile flags: /Ogsp
; File d:\lost saga for developer\youtube\tutorial\source\src\lsclient\stringprotect.h
;	COMDAT ?_DECSTR@@YAXPADH@Z
_TEXT	SEGMENT
_s$ = 8							; size = 4
_l$ = 12						; size = 4
?_DECSTR@@YAXPADH@Z PROC				; _DECSTR, COMDAT

; 40   : __forceinline void _DECSTR(char* s, int l){int i=0,l4=(l-1)/4,*p=(int*)s;s[l-1]=0;for(;i<l4;++i)*(p++)^=0xEAEBECED;for(i=l4*4;i<l-1;++i)s[i]^=0xED-i%4;}

  00000	55		 push	 ebp
  00001	8b ec		 mov	 ebp, esp
  00003	8b 4d 0c	 mov	 ecx, DWORD PTR _l$[ebp]
  00006	56		 push	 esi
  00007	8b 75 08	 mov	 esi, DWORD PTR _s$[ebp]
  0000a	57		 push	 edi
  0000b	8d 79 ff	 lea	 edi, DWORD PTR [ecx-1]
  0000e	8b c7		 mov	 eax, edi
  00010	99		 cdq
  00011	83 e2 03	 and	 edx, 3
  00014	03 c2		 add	 eax, edx
  00016	c1 f8 02	 sar	 eax, 2
  00019	8b d6		 mov	 edx, esi
  0001b	c6 44 0e ff 00	 mov	 BYTE PTR [esi+ecx-1], 0
  00020	85 c0		 test	 eax, eax
  00022	7e 0e		 jle	 SHORT $LN4@DECSTR
  00024	8b c8		 mov	 ecx, eax
$LL6@DECSTR:
  00026	81 32 ed ec eb
	ea		 xor	 DWORD PTR [edx], -353637139 ; eaebecedH
  0002c	83 c2 04	 add	 edx, 4
  0002f	49		 dec	 ecx
  00030	75 f4		 jne	 SHORT $LL6@DECSTR
$LN4@DECSTR:
  00032	c1 e0 02	 shl	 eax, 2
  00035	eb 17		 jmp	 SHORT $LN14@DECSTR
$LL3@DECSTR:
  00037	8b c8		 mov	 ecx, eax
  00039	81 e1 03 00 00
	80		 and	 ecx, -2147483645	; 80000003H
  0003f	79 05		 jns	 SHORT $LN13@DECSTR
  00041	49		 dec	 ecx
  00042	83 c9 fc	 or	 ecx, -4			; fffffffcH
  00045	41		 inc	 ecx
$LN13@DECSTR:
  00046	b2 ed		 mov	 dl, -19			; ffffffedH
  00048	2a d1		 sub	 dl, cl
  0004a	30 14 30	 xor	 BYTE PTR [eax+esi], dl
  0004d	40		 inc	 eax
$LN14@DECSTR:
  0004e	3b c7		 cmp	 eax, edi
  00050	7c e5		 jl	 SHORT $LL3@DECSTR
  00052	5f		 pop	 edi
  00053	5e		 pop	 esi
  00054	5d		 pop	 ebp
  00055	c3		 ret	 0
?_DECSTR@@YAXPADH@Z ENDP				; _DECSTR
_TEXT	ENDS
PUBLIC	?GetTypeID@ioBuff@@QBEHXZ			; ioBuff::GetTypeID
; Function compile flags: /Ogsp
; File d:\lost saga for developer\youtube\tutorial\source\src\lsclient\iobuff.h
;	COMDAT ?GetTypeID@ioBuff@@QBEHXZ
_TEXT	SEGMENT
?GetTypeID@ioBuff@@QBEHXZ PROC				; ioBuff::GetTypeID, COMDAT
; _this$ = ecx

; 424  : 	inline int GetTypeID() const { return m_iBuffType; }

  00000	8b 81 cc 03 00
	00		 mov	 eax, DWORD PTR [ecx+972]
  00006	c3		 ret	 0
?GetTypeID@ioBuff@@QBEHXZ ENDP				; ioBuff::GetTypeID
_TEXT	ENDS
PUBLIC	?GetName@ioBuff@@QBEABVioHashString@@XZ		; ioBuff::GetName
; Function compile flags: /Ogsp
;	COMDAT ?GetName@ioBuff@@QBEABVioHashString@@XZ
_TEXT	SEGMENT
?GetName@ioBuff@@QBEABVioHashString@@XZ PROC		; ioBuff::GetName, COMDAT
; _this$ = ecx

; 440  : 	inline const ioHashString& GetName() const { return m_Name; }

  00000	8d 81 34 02 00
	00		 lea	 eax, DWORD PTR [ecx+564]
  00006	c3		 ret	 0
?GetName@ioBuff@@QBEABVioHashString@@XZ ENDP		; ioBuff::GetName
_TEXT	ENDS
PUBLIC	??R?$less@VioHashString@@@std@@QBE_NABVioHashString@@0@Z ; std::less<ioHashString>::operator()
EXTRN	__imp_??MioHashString@@QBE_NABV0@@Z:PROC
; Function compile flags: /Ogsp
; File c:\program files (x86)\microsoft visual studio 10.0\vc\include\xfunctional
;	COMDAT ??R?$less@VioHashString@@@std@@QBE_NABVioHashString@@0@Z
_TEXT	SEGMENT
__Left$ = 8						; size = 4
__Right$ = 12						; size = 4
??R?$less@VioHashString@@@std@@QBE_NABVioHashString@@0@Z PROC ; std::less<ioHashString>::operator(), COMDAT
; _this$ = ecx

; 124  : 		{	// apply operator< to operands

  00000	55		 push	 ebp
  00001	8b ec		 mov	 ebp, esp

; 125  : 		return (_Left < _Right);

  00003	ff 75 0c	 push	 DWORD PTR __Right$[ebp]
  00006	8b 4d 08	 mov	 ecx, DWORD PTR __Left$[ebp]
  00009	ff 15 00 00 00
	00		 call	 DWORD PTR __imp_??MioHashString@@QBE_NABV0@@Z

; 126  : 		}

  0000f	5d		 pop	 ebp
  00010	c2 08 00	 ret	 8
??R?$less@VioHashString@@@std@@QBE_NABVioHashString@@0@Z ENDP ; std::less<ioHashString>::operator()
_TEXT	ENDS
EXTRN	__imp_??0exception@std@@QAE@ABV01@@Z:PROC
; Function compile flags: /Ogsp
;	COMDAT ??0bad_alloc@std@@QAE@ABV01@@Z
_TEXT	SEGMENT
___that$ = 8						; size = 4
??0bad_alloc@std@@QAE@ABV01@@Z PROC			; std::bad_alloc::bad_alloc, COMDAT
; _this$ = ecx
  00000	55		 push	 ebp
  00001	8b ec		 mov	 ebp, esp
  00003	56		 push	 esi
  00004	ff 75 08	 push	 DWORD PTR ___that$[ebp]
  00007	8b f1		 mov	 esi, ecx
  00009	ff 15 00 00 00
	00		 call	 DWORD PTR __imp_??0exception@std@@QAE@ABV01@@Z
  0000f	c7 06 00 00 00
	00		 mov	 DWORD PTR [esi], OFFSET ??_7bad_alloc@std@@6B@
  00015	8b c6		 mov	 eax, esi
  00017	5e		 pop	 esi
  00018	5d		 pop	 ebp
  00019	c2 04 00	 ret	 4
??0bad_alloc@std@@QAE@ABV01@@Z ENDP			; std::bad_alloc::bad_alloc
_TEXT	ENDS
PUBLIC	??$forward@ABVioHashString@@@std@@YAABVioHashString@@ABV1@@Z ; std::forward<ioHashString const &>
; Function compile flags: /Ogsp
; File c:\program files (x86)\microsoft visual studio 10.0\vc\include\utility
;	COMDAT ??$forward@ABVioHashString@@@std@@YAABVioHashString@@ABV1@@Z
_TEXT	SEGMENT
__Arg$ = 8						; size = 4
??$forward@ABVioHashString@@@std@@YAABVioHashString@@ABV1@@Z PROC ; std::forward<ioHashString const &>, COMDAT

; 78   : 	{	// forward _Arg, given explicitly specified type parameter

  00000	55		 push	 ebp
  00001	8b ec		 mov	 ebp, esp

; 79   : 	return ((_Ty&&)_Arg);

  00003	8b 45 08	 mov	 eax, DWORD PTR __Arg$[ebp]

; 80   : 	}

  00006	5d		 pop	 ebp
  00007	c3		 ret	 0
??$forward@ABVioHashString@@@std@@YAABVioHashString@@ABV1@@Z ENDP ; std::forward<ioHashString const &>
_TEXT	ENDS
PUBLIC	??$_Move@AAD@std@@YA$$QADAAD@Z			; std::_Move<char &>
; Function compile flags: /Ogsp
;	COMDAT ??$_Move@AAD@std@@YA$$QADAAD@Z
_TEXT	SEGMENT
__Arg$ = 8						; size = 4
??$_Move@AAD@std@@YA$$QADAAD@Z PROC			; std::_Move<char &>, COMDAT

; 94   : 	{	// forward _Arg as movable

  00000	55		 push	 ebp
  00001	8b ec		 mov	 ebp, esp

; 95   : 	return ((typename tr1::_Remove_reference<_Ty>::_Type&&)_Arg);

  00003	8b 45 08	 mov	 eax, DWORD PTR __Arg$[ebp]

; 96   : 	}

  00006	5d		 pop	 ebp
  00007	c3		 ret	 0
??$_Move@AAD@std@@YA$$QADAAD@Z ENDP			; std::_Move<char &>
_TEXT	ENDS
PUBLIC	??$move@AA_N@std@@YA$$QA_NAA_N@Z		; std::move<bool &>
; Function compile flags: /Ogsp
;	COMDAT ??$move@AA_N@std@@YA$$QA_NAA_N@Z
_TEXT	SEGMENT
__Arg$ = 8						; size = 4
??$move@AA_N@std@@YA$$QA_NAA_N@Z PROC			; std::move<bool &>, COMDAT

; 86   : 	{	// forward _Arg as movable

  00000	55		 push	 ebp
  00001	8b ec		 mov	 ebp, esp

; 87   : 	return ((typename tr1::_Remove_reference<_Ty>::_Type&&)_Arg);

  00003	8b 45 08	 mov	 eax, DWORD PTR __Arg$[ebp]

; 88   : 	}

  00006	5d		 pop	 ebp
  00007	c3		 ret	 0
??$move@AA_N@std@@YA$$QA_NAA_N@Z ENDP			; std::move<bool &>
_TEXT	ENDS
PUBLIC	??$forward@_N@std@@YA$$QA_NAA_N@Z		; std::forward<bool>
; Function compile flags: /Ogsp
;	COMDAT ??$forward@_N@std@@YA$$QA_NAA_N@Z
_TEXT	SEGMENT
__Arg$ = 8						; size = 4
??$forward@_N@std@@YA$$QA_NAA_N@Z PROC			; std::forward<bool>, COMDAT

; 78   : 	{	// forward _Arg, given explicitly specified type parameter

  00000	55		 push	 ebp
  00001	8b ec		 mov	 ebp, esp

; 79   : 	return ((_Ty&&)_Arg);

  00003	8b 45 08	 mov	 eax, DWORD PTR __Arg$[ebp]

; 80   : 	}

  00006	5d		 pop	 ebp
  00007	c3		 ret	 0
??$forward@_N@std@@YA$$QA_NAA_N@Z ENDP			; std::forward<bool>
_TEXT	ENDS
PUBLIC	??$forward@$$CBVioHashString@@@std@@YA$$QBVioHashString@@ABV1@@Z ; std::forward<ioHashString const >
; Function compile flags: /Ogsp
;	COMDAT ??$forward@$$CBVioHashString@@@std@@YA$$QBVioHashString@@ABV1@@Z
_TEXT	SEGMENT
__Arg$ = 8						; size = 4
??$forward@$$CBVioHashString@@@std@@YA$$QBVioHashString@@ABV1@@Z PROC ; std::forward<ioHashString const >, COMDAT

; 78   : 	{	// forward _Arg, given explicitly specified type parameter

  00000	55		 push	 ebp
  00001	8b ec		 mov	 ebp, esp

; 79   : 	return ((_Ty&&)_Arg);

  00003	8b 45 08	 mov	 eax, DWORD PTR __Arg$[ebp]

; 80   : 	}

  00006	5d		 pop	 ebp
  00007	c3		 ret	 0
??$forward@$$CBVioHashString@@@std@@YA$$QBVioHashString@@ABV1@@Z ENDP ; std::forward<ioHashString const >
_TEXT	ENDS
PUBLIC	??$move@ABVioHashString@@@std@@YA$$QBVioHashString@@ABV1@@Z ; std::move<ioHashString const &>
; Function compile flags: /Ogsp
;	COMDAT ??$move@ABVioHashString@@@std@@YA$$QBVioHashString@@ABV1@@Z
_TEXT	SEGMENT
__Arg$ = 8						; size = 4
??$move@ABVioHashString@@@std@@YA$$QBVioHashString@@ABV1@@Z PROC ; std::move<ioHashString const &>, COMDAT

; 86   : 	{	// forward _Arg as movable

  00000	55		 push	 ebp
  00001	8b ec		 mov	 ebp, esp

; 87   : 	return ((typename tr1::_Remove_reference<_Ty>::_Type&&)_Arg);

  00003	8b 45 08	 mov	 eax, DWORD PTR __Arg$[ebp]

; 88   : 	}

  00006	5d		 pop	 ebp
  00007	c3		 ret	 0
??$move@ABVioHashString@@@std@@YA$$QBVioHashString@@ABV1@@Z ENDP ; std::move<ioHashString const &>
_TEXT	ENDS
PUBLIC	??1?$pair@$$CBVioHashString@@PAVioBuff@@@std@@QAE@XZ ; std::pair<ioHashString const ,ioBuff *>::~pair<ioHashString const ,ioBuff *>
; Function compile flags: /Ogsp
;	COMDAT ??1?$pair@$$CBVioHashString@@PAVioBuff@@@std@@QAE@XZ
_TEXT	SEGMENT
??1?$pair@$$CBVioHashString@@PAVioBuff@@@std@@QAE@XZ PROC ; std::pair<ioHashString const ,ioBuff *>::~pair<ioHashString const ,ioBuff *>, COMDAT
; _this$ = ecx
  00000	ff 25 00 00 00
	00		 jmp	 DWORD PTR __imp_??1ioHashString@@QAE@XZ
??1?$pair@$$CBVioHashString@@PAVioBuff@@@std@@QAE@XZ ENDP ; std::pair<ioHashString const ,ioBuff *>::~pair<ioHashString const ,ioBuff *>
_TEXT	ENDS
PUBLIC	??_C@_0CC@FPABLNIH@?$CFs?5?9?5Buff?5Category?5Wrong?5Num?5?3?5?$CF@ ; `string'
PUBLIC	??_C@_0CA@NFAHAHML@ioBuffMaker?3?3CreateBuffTemplete?$AA@ ; `string'
PUBLIC	?CreateBuffTemplete@ioBuffMaker@@IAEPAVioBuff@@HH@Z ; ioBuffMaker::CreateBuffTemplete
;	COMDAT ??_C@_0CC@FPABLNIH@?$CFs?5?9?5Buff?5Category?5Wrong?5Num?5?3?5?$CF@
; File d:\lost saga for developer\youtube\tutorial\source\src\lsclient\iobuffmaker.cpp
CONST	SEGMENT
??_C@_0CC@FPABLNIH@?$CFs?5?9?5Buff?5Category?5Wrong?5Num?5?3?5?$CF@ DB '%'
	DB	's - Buff Category Wrong Num : %d', 00H	; `string'
CONST	ENDS
;	COMDAT ??_C@_0CA@NFAHAHML@ioBuffMaker?3?3CreateBuffTemplete?$AA@
CONST	SEGMENT
??_C@_0CA@NFAHAHML@ioBuffMaker?3?3CreateBuffTemplete?$AA@ DB 'ioBuffMaker'
	DB	'::CreateBuffTemplete', 00H			; `string'
; Function compile flags: /Ogsp
CONST	ENDS
;	COMDAT ?CreateBuffTemplete@ioBuffMaker@@IAEPAVioBuff@@HH@Z
_TEXT	SEGMENT
_iTypeID$ = 8						; size = 4
_iBuffCategory$ = 12					; size = 4
?CreateBuffTemplete@ioBuffMaker@@IAEPAVioBuff@@HH@Z PROC ; ioBuffMaker::CreateBuffTemplete, COMDAT
; _this$ = ecx

; 129  : {

  00000	55		 push	 ebp
  00001	8b ec		 mov	 ebp, esp

; 130  : 	if ( iBuffCategory == BC_NORMAL )

  00003	33 c0		 xor	 eax, eax
  00005	39 45 0c	 cmp	 DWORD PTR _iBuffCategory$[ebp], eax
  00008	75 0b		 jne	 SHORT $LN4@CreateBuff

; 131  : 		return CreateNormalBuffTemplete( iTypeID, iBuffCategory );

  0000a	50		 push	 eax
  0000b	ff 75 08	 push	 DWORD PTR _iTypeID$[ebp]
  0000e	e8 00 00 00 00	 call	 ?CreateNormalBuffTemplete@ioBuffMaker@@IAEPAVioBuff@@HH@Z ; ioBuffMaker::CreateNormalBuffTemplete
  00013	eb 31		 jmp	 SHORT $LN1@CreateBuff
$LN4@CreateBuff:

; 132  : 	else if ( iBuffCategory == BC_ACCESOORY )

  00015	83 7d 0c 01	 cmp	 DWORD PTR _iBuffCategory$[ebp], 1
  00019	75 0c		 jne	 SHORT $LN2@CreateBuff

; 133  : 		return CreateAccessoryBuffTemplete( iTypeID, iBuffCategory );

  0001b	6a 01		 push	 1
  0001d	ff 75 08	 push	 DWORD PTR _iTypeID$[ebp]
  00020	e8 00 00 00 00	 call	 ?CreateAccessoryBuffTemplete@ioBuffMaker@@IAEPAVioBuff@@HH@Z ; ioBuffMaker::CreateAccessoryBuffTemplete
  00025	eb 1f		 jmp	 SHORT $LN1@CreateBuff
$LN2@CreateBuff:

; 134  : 	else
; 135  : 	{
; 136  : 		LOG.PrintTimeAndLog( 0, "%s - Buff Category Wrong Num : %d", __FUNCTION__, iBuffCategory );

  00027	ff 75 0c	 push	 DWORD PTR _iBuffCategory$[ebp]
  0002a	68 00 00 00 00	 push	 OFFSET ??_C@_0CA@NFAHAHML@ioBuffMaker?3?3CreateBuffTemplete?$AA@
  0002f	68 00 00 00 00	 push	 OFFSET ??_C@_0CC@FPABLNIH@?$CFs?5?9?5Buff?5Category?5Wrong?5Num?5?3?5?$CF@
  00034	50		 push	 eax
  00035	ff 35 00 00 00
	00		 push	 DWORD PTR __imp_?LOG@@3VCLog@@A
  0003b	ff 15 00 00 00
	00		 call	 DWORD PTR __imp_?PrintTimeAndLog@CLog@@QAAXHPADZZ
  00041	83 c4 14	 add	 esp, 20			; 00000014H

; 137  : 		return NULL;

  00044	33 c0		 xor	 eax, eax
$LN1@CreateBuff:

; 138  : 	}
; 139  : }

  00046	5d		 pop	 ebp
  00047	c2 08 00	 ret	 8
?CreateBuffTemplete@ioBuffMaker@@IAEPAVioBuff@@HH@Z ENDP ; ioBuffMaker::CreateBuffTemplete
_TEXT	ENDS
PUBLIC	?GetSingleton@ioBuffMaker@@SAAAV1@XZ		; ioBuffMaker::GetSingleton
; Function compile flags: /Ogsp
;	COMDAT ?GetSingleton@ioBuffMaker@@SAAAV1@XZ
_TEXT	SEGMENT
?GetSingleton@ioBuffMaker@@SAAAV1@XZ PROC		; ioBuffMaker::GetSingleton, COMDAT

; 143  : 	return Singleton< ioBuffMaker >::GetSingleton();

  00000	a1 00 00 00 00	 mov	 eax, DWORD PTR ?ms_Singleton@?$Singleton@VioBuffMaker@@@@1PAVioBuffMaker@@A ; Singleton<ioBuffMaker>::ms_Singleton

; 144  : }

  00005	c3		 ret	 0
?GetSingleton@ioBuffMaker@@SAAAV1@XZ ENDP		; ioBuffMaker::GetSingleton
_TEXT	ENDS
PUBLIC	??9?$_Tree_const_iterator@V?$_Tree_val@V?$_Tmap_traits@VioHashString@@PAVioBuff@@U?$less@VioHashString@@@std@@V?$allocator@U?$pair@$$CBVioHashString@@PAVioBuff@@@std@@@4@$0A@@std@@@std@@@std@@QBE_NABV01@@Z ; std::_Tree_const_iterator<std::_Tree_val<std::_Tmap_traits<ioHashString,ioBuff *,std::less<ioHashString>,std::allocator<std::pair<ioHashString const ,ioBuff *> >,0> > >::operator!=
; Function compile flags: /Ogsp
; File c:\program files (x86)\microsoft visual studio 10.0\vc\include\xtree
;	COMDAT ??9?$_Tree_const_iterator@V?$_Tree_val@V?$_Tmap_traits@VioHashString@@PAVioBuff@@U?$less@VioHashString@@@std@@V?$allocator@U?$pair@$$CBVioHashString@@PAVioBuff@@@std@@@4@$0A@@std@@@std@@@std@@QBE_NABV01@@Z
_TEXT	SEGMENT
__Right$ = 8						; size = 4
??9?$_Tree_const_iterator@V?$_Tree_val@V?$_Tmap_traits@VioHashString@@PAVioBuff@@U?$less@VioHashString@@@std@@V?$allocator@U?$pair@$$CBVioHashString@@PAVioBuff@@@std@@@4@$0A@@std@@@std@@@std@@QBE_NABV01@@Z PROC ; std::_Tree_const_iterator<std::_Tree_val<std::_Tmap_traits<ioHashString,ioBuff *,std::less<ioHashString>,std::allocator<std::pair<ioHashString const ,ioBuff *> >,0> > >::operator!=, COMDAT
; _this$ = ecx

; 334  : 		{	// test for iterator inequality

  00000	55		 push	 ebp
  00001	8b ec		 mov	 ebp, esp

; 335  : 		return (!(*this == _Right));

  00003	8b 01		 mov	 eax, DWORD PTR [ecx]
  00005	8b 55 08	 mov	 edx, DWORD PTR __Right$[ebp]
  00008	33 c9		 xor	 ecx, ecx
  0000a	3b 02		 cmp	 eax, DWORD PTR [edx]
  0000c	0f 95 c0	 setne	 al

; 336  : 		}

  0000f	5d		 pop	 ebp
  00010	c2 04 00	 ret	 4
??9?$_Tree_const_iterator@V?$_Tree_val@V?$_Tmap_traits@VioHashString@@PAVioBuff@@U?$less@VioHashString@@@std@@V?$allocator@U?$pair@$$CBVioHashString@@PAVioBuff@@@std@@@4@$0A@@std@@@std@@@std@@QBE_NABV01@@Z ENDP ; std::_Tree_const_iterator<std::_Tree_val<std::_Tmap_traits<ioHashString,ioBuff *,std::less<ioHashString>,std::allocator<std::pair<ioHashString const ,ioBuff *> >,0> > >::operator!=
_TEXT	ENDS
PUBLIC	?_Lmost@?$_Tree@V?$_Tmap_traits@VioHashString@@PAVioBuff@@U?$less@VioHashString@@@std@@V?$allocator@U?$pair@$$CBVioHashString@@PAVioBuff@@@std@@@4@$0A@@std@@@std@@IBEAAPAU_Node@?$_Tree_nod@V?$_Tmap_traits@VioHashString@@PAVioBuff@@U?$less@VioHashString@@@std@@V?$allocator@U?$pair@$$CBVioHashString@@PAVioBuff@@@std@@@4@$0A@@std@@@2@XZ ; std::_Tree<std::_Tmap_traits<ioHashString,ioBuff *,std::less<ioHashString>,std::allocator<std::pair<ioHashString const ,ioBuff *> >,0> >::_Lmost
; Function compile flags: /Ogsp
;	COMDAT ?_Lmost@?$_Tree@V?$_Tmap_traits@VioHashString@@PAVioBuff@@U?$less@VioHashString@@@std@@V?$allocator@U?$pair@$$CBVioHashString@@PAVioBuff@@@std@@@4@$0A@@std@@@std@@IBEAAPAU_Node@?$_Tree_nod@V?$_Tmap_traits@VioHashString@@PAVioBuff@@U?$less@VioHashString@@@std@@V?$allocator@U?$pair@$$CBVioHashString@@PAVioBuff@@@std@@@4@$0A@@std@@@2@XZ
_TEXT	SEGMENT
?_Lmost@?$_Tree@V?$_Tmap_traits@VioHashString@@PAVioBuff@@U?$less@VioHashString@@@std@@V?$allocator@U?$pair@$$CBVioHashString@@PAVioBuff@@@std@@@4@$0A@@std@@@std@@IBEAAPAU_Node@?$_Tree_nod@V?$_Tmap_traits@VioHashString@@PAVioBuff@@U?$less@VioHashString@@@std@@V?$allocator@U?$pair@$$CBVioHashString@@PAVioBuff@@@std@@@4@$0A@@std@@@2@XZ PROC ; std::_Tree<std::_Tmap_traits<ioHashString,ioBuff *,std::less<ioHashString>,std::allocator<std::pair<ioHashString const ,ioBuff *> >,0> >::_Lmost, COMDAT
; _this$ = ecx

; 1759 : 		return (this->_Left(this->_Myhead));

  00000	8b 41 04	 mov	 eax, DWORD PTR [ecx+4]

; 1760 : 		}

  00003	c3		 ret	 0
?_Lmost@?$_Tree@V?$_Tmap_traits@VioHashString@@PAVioBuff@@U?$less@VioHashString@@@std@@V?$allocator@U?$pair@$$CBVioHashString@@PAVioBuff@@@std@@@4@$0A@@std@@@std@@IBEAAPAU_Node@?$_Tree_nod@V?$_Tmap_traits@VioHashString@@PAVioBuff@@U?$less@VioHashString@@@std@@V?$allocator@U?$pair@$$CBVioHashString@@PAVioBuff@@@std@@@4@$0A@@std@@@2@XZ ENDP ; std::_Tree<std::_Tmap_traits<ioHashString,ioBuff *,std::less<ioHashString>,std::allocator<std::pair<ioHashString const ,ioBuff *> >,0> >::_Lmost
_TEXT	ENDS
PUBLIC	?_Rmost@?$_Tree@V?$_Tmap_traits@VioHashString@@PAVioBuff@@U?$less@VioHashString@@@std@@V?$allocator@U?$pair@$$CBVioHashString@@PAVioBuff@@@std@@@4@$0A@@std@@@std@@IBEAAPAU_Node@?$_Tree_nod@V?$_Tmap_traits@VioHashString@@PAVioBuff@@U?$less@VioHashString@@@std@@V?$allocator@U?$pair@$$CBVioHashString@@PAVioBuff@@@std@@@4@$0A@@std@@@2@XZ ; std::_Tree<std::_Tmap_traits<ioHashString,ioBuff *,std::less<ioHashString>,std::allocator<std::pair<ioHashString const ,ioBuff *> >,0> >::_Rmost
; Function compile flags: /Ogsp
;	COMDAT ?_Rmost@?$_Tree@V?$_Tmap_traits@VioHashString@@PAVioBuff@@U?$less@VioHashString@@@std@@V?$allocator@U?$pair@$$CBVioHashString@@PAVioBuff@@@std@@@4@$0A@@std@@@std@@IBEAAPAU_Node@?$_Tree_nod@V?$_Tmap_traits@VioHashString@@PAVioBuff@@U?$less@VioHashString@@@std@@V?$allocator@U?$pair@$$CBVioHashString@@PAVioBuff@@@std@@@4@$0A@@std@@@2@XZ
_TEXT	SEGMENT
?_Rmost@?$_Tree@V?$_Tmap_traits@VioHashString@@PAVioBuff@@U?$less@VioHashString@@@std@@V?$allocator@U?$pair@$$CBVioHashString@@PAVioBuff@@@std@@@4@$0A@@std@@@std@@IBEAAPAU_Node@?$_Tree_nod@V?$_Tmap_traits@VioHashString@@PAVioBuff@@U?$less@VioHashString@@@std@@V?$allocator@U?$pair@$$CBVioHashString@@PAVioBuff@@@std@@@4@$0A@@std@@@2@XZ PROC ; std::_Tree<std::_Tmap_traits<ioHashString,ioBuff *,std::less<ioHashString>,std::allocator<std::pair<ioHashString const ,ioBuff *> >,0> >::_Rmost, COMDAT
; _this$ = ecx

; 1784 : 		return (this->_Right(this->_Myhead));

  00000	8b 41 04	 mov	 eax, DWORD PTR [ecx+4]
  00003	83 c0 08	 add	 eax, 8

; 1785 : 		}

  00006	c3		 ret	 0
?_Rmost@?$_Tree@V?$_Tmap_traits@VioHashString@@PAVioBuff@@U?$less@VioHashString@@@std@@V?$allocator@U?$pair@$$CBVioHashString@@PAVioBuff@@@std@@@4@$0A@@std@@@std@@IBEAAPAU_Node@?$_Tree_nod@V?$_Tmap_traits@VioHashString@@PAVioBuff@@U?$less@VioHashString@@@std@@V?$allocator@U?$pair@$$CBVioHashString@@PAVioBuff@@@std@@@4@$0A@@std@@@2@XZ ENDP ; std::_Tree<std::_Tmap_traits<ioHashString,ioBuff *,std::less<ioHashString>,std::allocator<std::pair<ioHashString const ,ioBuff *> >,0> >::_Rmost
_TEXT	ENDS
PUBLIC	?_Root@?$_Tree@V?$_Tmap_traits@VioHashString@@PAVioBuff@@U?$less@VioHashString@@@std@@V?$allocator@U?$pair@$$CBVioHashString@@PAVioBuff@@@std@@@4@$0A@@std@@@std@@IBEAAPAU_Node@?$_Tree_nod@V?$_Tmap_traits@VioHashString@@PAVioBuff@@U?$less@VioHashString@@@std@@V?$allocator@U?$pair@$$CBVioHashString@@PAVioBuff@@@std@@@4@$0A@@std@@@2@XZ ; std::_Tree<std::_Tmap_traits<ioHashString,ioBuff *,std::less<ioHashString>,std::allocator<std::pair<ioHashString const ,ioBuff *> >,0> >::_Root
; Function compile flags: /Ogsp
;	COMDAT ?_Root@?$_Tree@V?$_Tmap_traits@VioHashString@@PAVioBuff@@U?$less@VioHashString@@@std@@V?$allocator@U?$pair@$$CBVioHashString@@PAVioBuff@@@std@@@4@$0A@@std@@@std@@IBEAAPAU_Node@?$_Tree_nod@V?$_Tmap_traits@VioHashString@@PAVioBuff@@U?$less@VioHashString@@@std@@V?$allocator@U?$pair@$$CBVioHashString@@PAVioBuff@@@std@@@4@$0A@@std@@@2@XZ
_TEXT	SEGMENT
?_Root@?$_Tree@V?$_Tmap_traits@VioHashString@@PAVioBuff@@U?$less@VioHashString@@@std@@V?$allocator@U?$pair@$$CBVioHashString@@PAVioBuff@@@std@@@4@$0A@@std@@@std@@IBEAAPAU_Node@?$_Tree_nod@V?$_Tmap_traits@VioHashString@@PAVioBuff@@U?$less@VioHashString@@@std@@V?$allocator@U?$pair@$$CBVioHashString@@PAVioBuff@@@std@@@4@$0A@@std@@@2@XZ PROC ; std::_Tree<std::_Tmap_traits<ioHashString,ioBuff *,std::less<ioHashString>,std::allocator<std::pair<ioHashString const ,ioBuff *> >,0> >::_Root, COMDAT
; _this$ = ecx

; 1789 : 		return (this->_Parent(this->_Myhead));

  00000	8b 41 04	 mov	 eax, DWORD PTR [ecx+4]
  00003	83 c0 04	 add	 eax, 4

; 1790 : 		}

  00006	c3		 ret	 0
?_Root@?$_Tree@V?$_Tmap_traits@VioHashString@@PAVioBuff@@U?$less@VioHashString@@@std@@V?$allocator@U?$pair@$$CBVioHashString@@PAVioBuff@@@std@@@4@$0A@@std@@@std@@IBEAAPAU_Node@?$_Tree_nod@V?$_Tmap_traits@VioHashString@@PAVioBuff@@U?$less@VioHashString@@@std@@V?$allocator@U?$pair@$$CBVioHashString@@PAVioBuff@@@std@@@4@$0A@@std@@@2@XZ ENDP ; std::_Tree<std::_Tmap_traits<ioHashString,ioBuff *,std::less<ioHashString>,std::allocator<std::pair<ioHashString const ,ioBuff *> >,0> >::_Root
_TEXT	ENDS
PUBLIC	??1?$_Tree_val@V?$_Tmap_traits@VioHashString@@PAVioBuff@@U?$less@VioHashString@@@std@@V?$allocator@U?$pair@$$CBVioHashString@@PAVioBuff@@@std@@@4@$0A@@std@@@std@@QAE@XZ ; std::_Tree_val<std::_Tmap_traits<ioHashString,ioBuff *,std::less<ioHashString>,std::allocator<std::pair<ioHashString const ,ioBuff *> >,0> >::~_Tree_val<std::_Tmap_traits<ioHashString,ioBuff *,std::less<ioHashString>,std::allocator<std::pair<ioHashString const ,ioBuff *> >,0> >
; Function compile flags: /Ogsp
;	COMDAT ??1?$_Tree_val@V?$_Tmap_traits@VioHashString@@PAVioBuff@@U?$less@VioHashString@@@std@@V?$allocator@U?$pair@$$CBVioHashString@@PAVioBuff@@@std@@@4@$0A@@std@@@std@@QAE@XZ
_TEXT	SEGMENT
??1?$_Tree_val@V?$_Tmap_traits@VioHashString@@PAVioBuff@@U?$less@VioHashString@@@std@@V?$allocator@U?$pair@$$CBVioHashString@@PAVioBuff@@@std@@@4@$0A@@std@@@std@@QAE@XZ PROC ; std::_Tree_val<std::_Tmap_traits<ioHashString,ioBuff *,std::less<ioHashString>,std::allocator<std::pair<ioHashString const ,ioBuff *> >,0> >::~_Tree_val<std::_Tmap_traits<ioHashString,ioBuff *,std::less<ioHashString>,std::allocator<std::pair<ioHashString const ,ioBuff *> >,0> >, COMDAT
; _this$ = ecx

; 555  : 		this->_Alnod.deallocate(this->_Myhead, 1);

  00000	ff 71 04	 push	 DWORD PTR [ecx+4]
  00003	e8 00 00 00 00	 call	 ??3@YAXPAX@Z		; operator delete
  00008	59		 pop	 ecx

; 556  : 		}

  00009	c3		 ret	 0
??1?$_Tree_val@V?$_Tmap_traits@VioHashString@@PAVioBuff@@U?$less@VioHashString@@@std@@V?$allocator@U?$pair@$$CBVioHashString@@PAVioBuff@@@std@@@4@$0A@@std@@@std@@QAE@XZ ENDP ; std::_Tree_val<std::_Tmap_traits<ioHashString,ioBuff *,std::less<ioHashString>,std::allocator<std::pair<ioHashString const ,ioBuff *> >,0> >::~_Tree_val<std::_Tmap_traits<ioHashString,ioBuff *,std::less<ioHashString>,std::allocator<std::pair<ioHashString const ,ioBuff *> >,0> >
_TEXT	ENDS
PUBLIC	?_Key@?$_Tree_val@V?$_Tmap_traits@VioHashString@@PAVioBuff@@U?$less@VioHashString@@@std@@V?$allocator@U?$pair@$$CBVioHashString@@PAVioBuff@@@std@@@4@$0A@@std@@@std@@SAAAVioHashString@@PAU_Node@?$_Tree_nod@V?$_Tmap_traits@VioHashString@@PAVioBuff@@U?$less@VioHashString@@@std@@V?$allocator@U?$pair@$$CBVioHashString@@PAVioBuff@@@std@@@4@$0A@@std@@@2@@Z ; std::_Tree_val<std::_Tmap_traits<ioHashString,ioBuff *,std::less<ioHashString>,std::allocator<std::pair<ioHashString const ,ioBuff *> >,0> >::_Key
; Function compile flags: /Ogsp
;	COMDAT ?_Key@?$_Tree_val@V?$_Tmap_traits@VioHashString@@PAVioBuff@@U?$less@VioHashString@@@std@@V?$allocator@U?$pair@$$CBVioHashString@@PAVioBuff@@@std@@@4@$0A@@std@@@std@@SAAAVioHashString@@PAU_Node@?$_Tree_nod@V?$_Tmap_traits@VioHashString@@PAVioBuff@@U?$less@VioHashString@@@std@@V?$allocator@U?$pair@$$CBVioHashString@@PAVioBuff@@@std@@@4@$0A@@std@@@2@@Z
_TEXT	SEGMENT
__Pnode$ = 8						; size = 4
?_Key@?$_Tree_val@V?$_Tmap_traits@VioHashString@@PAVioBuff@@U?$less@VioHashString@@@std@@V?$allocator@U?$pair@$$CBVioHashString@@PAVioBuff@@@std@@@4@$0A@@std@@@std@@SAAAVioHashString@@PAU_Node@?$_Tree_nod@V?$_Tmap_traits@VioHashString@@PAVioBuff@@U?$less@VioHashString@@@std@@V?$allocator@U?$pair@$$CBVioHashString@@PAVioBuff@@@std@@@4@$0A@@std@@@2@@Z PROC ; std::_Tree_val<std::_Tmap_traits<ioHashString,ioBuff *,std::less<ioHashString>,std::allocator<std::pair<ioHashString const ,ioBuff *> >,0> >::_Key, COMDAT

; 616  : 		{	// return reference to key in node

  00000	55		 push	 ebp
  00001	8b ec		 mov	 ebp, esp

; 617  : 		return ((key_type&)_Traits::_Kfn(_Myval(_Pnode)));

  00003	8b 45 08	 mov	 eax, DWORD PTR __Pnode$[ebp]
  00006	83 c0 0c	 add	 eax, 12			; 0000000cH

; 618  : 		}

  00009	5d		 pop	 ebp
  0000a	c3		 ret	 0
?_Key@?$_Tree_val@V?$_Tmap_traits@VioHashString@@PAVioBuff@@U?$less@VioHashString@@@std@@V?$allocator@U?$pair@$$CBVioHashString@@PAVioBuff@@@std@@@4@$0A@@std@@@std@@SAAAVioHashString@@PAU_Node@?$_Tree_nod@V?$_Tmap_traits@VioHashString@@PAVioBuff@@U?$less@VioHashString@@@std@@V?$allocator@U?$pair@$$CBVioHashString@@PAVioBuff@@@std@@@4@$0A@@std@@@2@@Z ENDP ; std::_Tree_val<std::_Tmap_traits<ioHashString,ioBuff *,std::less<ioHashString>,std::allocator<std::pair<ioHashString const ,ioBuff *> >,0> >::_Key
_TEXT	ENDS
PUBLIC	??D?$_Tree_iterator@V?$_Tree_val@V?$_Tmap_traits@VioHashString@@PAVioBuff@@U?$less@VioHashString@@@std@@V?$allocator@U?$pair@$$CBVioHashString@@PAVioBuff@@@std@@@4@$0A@@std@@@std@@@std@@QBEAAU?$pair@$$CBVioHashString@@PAVioBuff@@@1@XZ ; std::_Tree_iterator<std::_Tree_val<std::_Tmap_traits<ioHashString,ioBuff *,std::less<ioHashString>,std::allocator<std::pair<ioHashString const ,ioBuff *> >,0> > >::operator*
; Function compile flags: /Ogsp
;	COMDAT ??D?$_Tree_iterator@V?$_Tree_val@V?$_Tmap_traits@VioHashString@@PAVioBuff@@U?$less@VioHashString@@@std@@V?$allocator@U?$pair@$$CBVioHashString@@PAVioBuff@@@std@@@4@$0A@@std@@@std@@@std@@QBEAAU?$pair@$$CBVioHashString@@PAVioBuff@@@1@XZ
_TEXT	SEGMENT
??D?$_Tree_iterator@V?$_Tree_val@V?$_Tmap_traits@VioHashString@@PAVioBuff@@U?$less@VioHashString@@@std@@V?$allocator@U?$pair@$$CBVioHashString@@PAVioBuff@@@std@@@4@$0A@@std@@@std@@@std@@QBEAAU?$pair@$$CBVioHashString@@PAVioBuff@@@1@XZ PROC ; std::_Tree_iterator<std::_Tree_val<std::_Tmap_traits<ioHashString,ioBuff *,std::less<ioHashString>,std::allocator<std::pair<ioHashString const ,ioBuff *> >,0> > >::operator*, COMDAT
; _this$ = ecx

; 396  : 		return ((reference)**(_Mybase *)this);

  00000	8b 01		 mov	 eax, DWORD PTR [ecx]
  00002	83 c0 0c	 add	 eax, 12			; 0000000cH

; 397  : 		}

  00005	c3		 ret	 0
??D?$_Tree_iterator@V?$_Tree_val@V?$_Tmap_traits@VioHashString@@PAVioBuff@@U?$less@VioHashString@@@std@@V?$allocator@U?$pair@$$CBVioHashString@@PAVioBuff@@@std@@@4@$0A@@std@@@std@@@std@@QBEAAU?$pair@$$CBVioHashString@@PAVioBuff@@@1@XZ ENDP ; std::_Tree_iterator<std::_Tree_val<std::_Tmap_traits<ioHashString,ioBuff *,std::less<ioHashString>,std::allocator<std::pair<ioHashString const ,ioBuff *> >,0> > >::operator*
_TEXT	ENDS
PUBLIC	??0?$_Tree_const_iterator@V?$_Tree_val@V?$_Tmap_traits@VioHashString@@PAVioBuff@@U?$less@VioHashString@@@std@@V?$allocator@U?$pair@$$CBVioHashString@@PAVioBuff@@@std@@@4@$0A@@std@@@std@@@std@@QAE@XZ ; std::_Tree_const_iterator<std::_Tree_val<std::_Tmap_traits<ioHashString,ioBuff *,std::less<ioHashString>,std::allocator<std::pair<ioHashString const ,ioBuff *> >,0> > >::_Tree_const_iterator<std::_Tree_val<std::_Tmap_traits<ioHashString,ioBuff *,std::less<ioHashString>,std::allocator<std::pair<ioHashString const ,ioBuff *> >,0> > >
; Function compile flags: /Ogsp
;	COMDAT ??0?$_Tree_const_iterator@V?$_Tree_val@V?$_Tmap_traits@VioHashString@@PAVioBuff@@U?$less@VioHashString@@@std@@V?$allocator@U?$pair@$$CBVioHashString@@PAVioBuff@@@std@@@4@$0A@@std@@@std@@@std@@QAE@XZ
_TEXT	SEGMENT
??0?$_Tree_const_iterator@V?$_Tree_val@V?$_Tmap_traits@VioHashString@@PAVioBuff@@U?$less@VioHashString@@@std@@V?$allocator@U?$pair@$$CBVioHashString@@PAVioBuff@@@std@@@4@$0A@@std@@@std@@@std@@QAE@XZ PROC ; std::_Tree_const_iterator<std::_Tree_val<std::_Tmap_traits<ioHashString,ioBuff *,std::less<ioHashString>,std::allocator<std::pair<ioHashString const ,ioBuff *> >,0> > >::_Tree_const_iterator<std::_Tree_val<std::_Tmap_traits<ioHashString,ioBuff *,std::less<ioHashString>,std::allocator<std::pair<ioHashString const ,ioBuff *> >,0> > >, COMDAT
; _this$ = ecx

; 208  : 		{	// construct with null node pointer

  00000	8b c1		 mov	 eax, ecx
  00002	83 20 00	 and	 DWORD PTR [eax], 0

; 209  : 		}

  00005	c3		 ret	 0
??0?$_Tree_const_iterator@V?$_Tree_val@V?$_Tmap_traits@VioHashString@@PAVioBuff@@U?$less@VioHashString@@@std@@V?$allocator@U?$pair@$$CBVioHashString@@PAVioBuff@@@std@@@4@$0A@@std@@@std@@@std@@QAE@XZ ENDP ; std::_Tree_const_iterator<std::_Tree_val<std::_Tmap_traits<ioHashString,ioBuff *,std::less<ioHashString>,std::allocator<std::pair<ioHashString const ,ioBuff *> >,0> > >::_Tree_const_iterator<std::_Tree_val<std::_Tmap_traits<ioHashString,ioBuff *,std::less<ioHashString>,std::allocator<std::pair<ioHashString const ,ioBuff *> >,0> > >
_TEXT	ENDS
PUBLIC	??0?$_Tree_const_iterator@V?$_Tree_val@V?$_Tmap_traits@VioHashString@@PAVioBuff@@U?$less@VioHashString@@@std@@V?$allocator@U?$pair@$$CBVioHashString@@PAVioBuff@@@std@@@4@$0A@@std@@@std@@@std@@QAE@PAU_Node@?$_Tree_nod@V?$_Tmap_traits@VioHashString@@PAVioBuff@@U?$less@VioHashString@@@std@@V?$allocator@U?$pair@$$CBVioHashString@@PAVioBuff@@@std@@@4@$0A@@std@@@1@PBV?$_Tree_val@V?$_Tmap_traits@VioHashString@@PAVioBuff@@U?$less@VioHashString@@@std@@V?$allocator@U?$pair@$$CBVioHashString@@PAVioBuff@@@std@@@4@$0A@@std@@@1@@Z ; std::_Tree_const_iterator<std::_Tree_val<std::_Tmap_traits<ioHashString,ioBuff *,std::less<ioHashString>,std::allocator<std::pair<ioHashString const ,ioBuff *> >,0> > >::_Tree_const_iterator<std::_Tree_val<std::_Tmap_traits<ioHashString,ioBuff *,std::less<ioHashString>,std::allocator<std::pair<ioHashString const ,ioBuff *> >,0> > >
; Function compile flags: /Ogsp
;	COMDAT ??0?$_Tree_const_iterator@V?$_Tree_val@V?$_Tmap_traits@VioHashString@@PAVioBuff@@U?$less@VioHashString@@@std@@V?$allocator@U?$pair@$$CBVioHashString@@PAVioBuff@@@std@@@4@$0A@@std@@@std@@@std@@QAE@PAU_Node@?$_Tree_nod@V?$_Tmap_traits@VioHashString@@PAVioBuff@@U?$less@VioHashString@@@std@@V?$allocator@U?$pair@$$CBVioHashString@@PAVioBuff@@@std@@@4@$0A@@std@@@1@PBV?$_Tree_val@V?$_Tmap_traits@VioHashString@@PAVioBuff@@U?$less@VioHashString@@@std@@V?$allocator@U?$pair@$$CBVioHashString@@PAVioBuff@@@std@@@4@$0A@@std@@@1@@Z
_TEXT	SEGMENT
__Pnode$ = 8						; size = 4
__Plist$ = 12						; size = 4
??0?$_Tree_const_iterator@V?$_Tree_val@V?$_Tmap_traits@VioHashString@@PAVioBuff@@U?$less@VioHashString@@@std@@V?$allocator@U?$pair@$$CBVioHashString@@PAVioBuff@@@std@@@4@$0A@@std@@@std@@@std@@QAE@PAU_Node@?$_Tree_nod@V?$_Tmap_traits@VioHashString@@PAVioBuff@@U?$less@VioHashString@@@std@@V?$allocator@U?$pair@$$CBVioHashString@@PAVioBuff@@@std@@@4@$0A@@std@@@1@PBV?$_Tree_val@V?$_Tmap_traits@VioHashString@@PAVioBuff@@U?$less@VioHashString@@@std@@V?$allocator@U?$pair@$$CBVioHashString@@PAVioBuff@@@std@@@4@$0A@@std@@@1@@Z PROC ; std::_Tree_const_iterator<std::_Tree_val<std::_Tmap_traits<ioHashString,ioBuff *,std::less<ioHashString>,std::allocator<std::pair<ioHashString const ,ioBuff *> >,0> > >::_Tree_const_iterator<std::_Tree_val<std::_Tmap_traits<ioHashString,ioBuff *,std::less<ioHashString>,std::allocator<std::pair<ioHashString const ,ioBuff *> >,0> > >, COMDAT
; _this$ = ecx

; 213  : 		{	// construct with node pointer _Pnode

  00000	55		 push	 ebp
  00001	8b ec		 mov	 ebp, esp
  00003	8b c1		 mov	 eax, ecx
  00005	8b 4d 08	 mov	 ecx, DWORD PTR __Pnode$[ebp]
  00008	89 08		 mov	 DWORD PTR [eax], ecx

; 214  : 		}

  0000a	5d		 pop	 ebp
  0000b	c2 08 00	 ret	 8
??0?$_Tree_const_iterator@V?$_Tree_val@V?$_Tmap_traits@VioHashString@@PAVioBuff@@U?$less@VioHashString@@@std@@V?$allocator@U?$pair@$$CBVioHashString@@PAVioBuff@@@std@@@4@$0A@@std@@@std@@@std@@QAE@PAU_Node@?$_Tree_nod@V?$_Tmap_traits@VioHashString@@PAVioBuff@@U?$less@VioHashString@@@std@@V?$allocator@U?$pair@$$CBVioHashString@@PAVioBuff@@@std@@@4@$0A@@std@@@1@PBV?$_Tree_val@V?$_Tmap_traits@VioHashString@@PAVioBuff@@U?$less@VioHashString@@@std@@V?$allocator@U?$pair@$$CBVioHashString@@PAVioBuff@@@std@@@4@$0A@@std@@@1@@Z ENDP ; std::_Tree_const_iterator<std::_Tree_val<std::_Tmap_traits<ioHashString,ioBuff *,std::less<ioHashString>,std::allocator<std::pair<ioHashString const ,ioBuff *> >,0> > >::_Tree_const_iterator<std::_Tree_val<std::_Tmap_traits<ioHashString,ioBuff *,std::less<ioHashString>,std::allocator<std::pair<ioHashString const ,ioBuff *> >,0> > >
_TEXT	ENDS
PUBLIC	??D?$_Tree_unchecked_const_iterator@V?$_Tree_val@V?$_Tmap_traits@VioHashString@@PAVioBuff@@U?$less@VioHashString@@@std@@V?$allocator@U?$pair@$$CBVioHashString@@PAVioBuff@@@std@@@4@$0A@@std@@@std@@U_Iterator_base0@2@@std@@QBEABU?$pair@$$CBVioHashString@@PAVioBuff@@@1@XZ ; std::_Tree_unchecked_const_iterator<std::_Tree_val<std::_Tmap_traits<ioHashString,ioBuff *,std::less<ioHashString>,std::allocator<std::pair<ioHashString const ,ioBuff *> >,0> >,std::_Iterator_base0>::operator*
; Function compile flags: /Ogsp
;	COMDAT ??D?$_Tree_unchecked_const_iterator@V?$_Tree_val@V?$_Tmap_traits@VioHashString@@PAVioBuff@@U?$less@VioHashString@@@std@@V?$allocator@U?$pair@$$CBVioHashString@@PAVioBuff@@@std@@@4@$0A@@std@@@std@@U_Iterator_base0@2@@std@@QBEABU?$pair@$$CBVioHashString@@PAVioBuff@@@1@XZ
_TEXT	SEGMENT
??D?$_Tree_unchecked_const_iterator@V?$_Tree_val@V?$_Tmap_traits@VioHashString@@PAVioBuff@@U?$less@VioHashString@@@std@@V?$allocator@U?$pair@$$CBVioHashString@@PAVioBuff@@@std@@@4@$0A@@std@@@std@@U_Iterator_base0@2@@std@@QBEABU?$pair@$$CBVioHashString@@PAVioBuff@@@1@XZ PROC ; std::_Tree_unchecked_const_iterator<std::_Tree_val<std::_Tmap_traits<ioHashString,ioBuff *,std::less<ioHashString>,std::allocator<std::pair<ioHashString const ,ioBuff *> >,0> >,std::_Iterator_base0>::operator*, COMDAT
; _this$ = ecx

; 49   : 		return (_Mytree::_Myval(_Ptr));

  00000	8b 01		 mov	 eax, DWORD PTR [ecx]
  00002	83 c0 0c	 add	 eax, 12			; 0000000cH

; 50   : 		}

  00005	c3		 ret	 0
??D?$_Tree_unchecked_const_iterator@V?$_Tree_val@V?$_Tmap_traits@VioHashString@@PAVioBuff@@U?$less@VioHashString@@@std@@V?$allocator@U?$pair@$$CBVioHashString@@PAVioBuff@@@std@@@4@$0A@@std@@@std@@U_Iterator_base0@2@@std@@QBEABU?$pair@$$CBVioHashString@@PAVioBuff@@@1@XZ ENDP ; std::_Tree_unchecked_const_iterator<std::_Tree_val<std::_Tmap_traits<ioHashString,ioBuff *,std::less<ioHashString>,std::allocator<std::pair<ioHashString const ,ioBuff *> >,0> >,std::_Iterator_base0>::operator*
_TEXT	ENDS
PUBLIC	?_Lbound@?$_Tree@V?$_Tmap_traits@VioHashString@@PAVioBuff@@U?$less@VioHashString@@@std@@V?$allocator@U?$pair@$$CBVioHashString@@PAVioBuff@@@std@@@4@$0A@@std@@@std@@IBEPAU_Node@?$_Tree_nod@V?$_Tmap_traits@VioHashString@@PAVioBuff@@U?$less@VioHashString@@@std@@V?$allocator@U?$pair@$$CBVioHashString@@PAVioBuff@@@std@@@4@$0A@@std@@@2@ABVioHashString@@@Z ; std::_Tree<std::_Tmap_traits<ioHashString,ioBuff *,std::less<ioHashString>,std::allocator<std::pair<ioHashString const ,ioBuff *> >,0> >::_Lbound
; Function compile flags: /Ogsp
;	COMDAT ?_Lbound@?$_Tree@V?$_Tmap_traits@VioHashString@@PAVioBuff@@U?$less@VioHashString@@@std@@V?$allocator@U?$pair@$$CBVioHashString@@PAVioBuff@@@std@@@4@$0A@@std@@@std@@IBEPAU_Node@?$_Tree_nod@V?$_Tmap_traits@VioHashString@@PAVioBuff@@U?$less@VioHashString@@@std@@V?$allocator@U?$pair@$$CBVioHashString@@PAVioBuff@@@std@@@4@$0A@@std@@@2@ABVioHashString@@@Z
_TEXT	SEGMENT
__Keyval$ = 8						; size = 4
?_Lbound@?$_Tree@V?$_Tmap_traits@VioHashString@@PAVioBuff@@U?$less@VioHashString@@@std@@V?$allocator@U?$pair@$$CBVioHashString@@PAVioBuff@@@std@@@4@$0A@@std@@@std@@IBEPAU_Node@?$_Tree_nod@V?$_Tmap_traits@VioHashString@@PAVioBuff@@U?$less@VioHashString@@@std@@V?$allocator@U?$pair@$$CBVioHashString@@PAVioBuff@@@std@@@4@$0A@@std@@@2@ABVioHashString@@@Z PROC ; std::_Tree<std::_Tmap_traits<ioHashString,ioBuff *,std::less<ioHashString>,std::allocator<std::pair<ioHashString const ,ioBuff *> >,0> >::_Lbound, COMDAT
; _this$ = ecx

; 1724 : 		{	// find leftmost node not less than _Keyval

  00000	55		 push	 ebp
  00001	8b ec		 mov	 ebp, esp

; 1725 : 		_Nodeptr _Pnode = _Root();

  00003	8b 41 04	 mov	 eax, DWORD PTR [ecx+4]
  00006	56		 push	 esi
  00007	8b 70 04	 mov	 esi, DWORD PTR [eax+4]
  0000a	57		 push	 edi

; 1726 : 		_Nodeptr _Wherenode = this->_Myhead;	// end() if search fails

  0000b	8b f8		 mov	 edi, eax
  0000d	eb 19		 jmp	 SHORT $LN26@Lbound
$LL4@Lbound:

; 1729 : 			if (_DEBUG_LT_PRED(this->comp, this->_Key(_Pnode), _Keyval))

  0000f	ff 75 08	 push	 DWORD PTR __Keyval$[ebp]
  00012	8d 4e 0c	 lea	 ecx, DWORD PTR [esi+12]
  00015	ff 15 00 00 00
	00		 call	 DWORD PTR __imp_??MioHashString@@QBE_NABV0@@Z
  0001b	84 c0		 test	 al, al
  0001d	74 05		 je	 SHORT $LN2@Lbound

; 1730 : 				_Pnode = this->_Right(_Pnode);	// descend right subtree

  0001f	8b 76 08	 mov	 esi, DWORD PTR [esi+8]

; 1731 : 			else

  00022	eb 04		 jmp	 SHORT $LN26@Lbound
$LN2@Lbound:

; 1732 : 				{	// _Pnode not less than _Keyval, remember it
; 1733 : 				_Wherenode = _Pnode;

  00024	8b fe		 mov	 edi, esi

; 1734 : 				_Pnode = this->_Left(_Pnode);	// descend left subtree

  00026	8b 36		 mov	 esi, DWORD PTR [esi]
$LN26@Lbound:

; 1727 : 
; 1728 : 		while (!this->_Isnil(_Pnode))

  00028	80 7e 21 00	 cmp	 BYTE PTR [esi+33], 0
  0002c	74 e1		 je	 SHORT $LL4@Lbound

; 1735 : 				}
; 1736 : 
; 1737 : 		return (_Wherenode);	// return best remembered candidate

  0002e	8b c7		 mov	 eax, edi
  00030	5f		 pop	 edi
  00031	5e		 pop	 esi

; 1738 : 		}

  00032	5d		 pop	 ebp
  00033	c2 04 00	 ret	 4
?_Lbound@?$_Tree@V?$_Tmap_traits@VioHashString@@PAVioBuff@@U?$less@VioHashString@@@std@@V?$allocator@U?$pair@$$CBVioHashString@@PAVioBuff@@@std@@@4@$0A@@std@@@std@@IBEPAU_Node@?$_Tree_nod@V?$_Tmap_traits@VioHashString@@PAVioBuff@@U?$less@VioHashString@@@std@@V?$allocator@U?$pair@$$CBVioHashString@@PAVioBuff@@@std@@@4@$0A@@std@@@2@ABVioHashString@@@Z ENDP ; std::_Tree<std::_Tmap_traits<ioHashString,ioBuff *,std::less<ioHashString>,std::allocator<std::pair<ioHashString const ,ioBuff *> >,0> >::_Lbound
_TEXT	ENDS
PUBLIC	?_Lbound@?$_Tree@V?$_Tmap_traits@VioHashString@@PAVioBuff@@U?$less@VioHashString@@@std@@V?$allocator@U?$pair@$$CBVioHashString@@PAVioBuff@@@std@@@4@$0A@@std@@@std@@IAEPAU_Node@?$_Tree_nod@V?$_Tmap_traits@VioHashString@@PAVioBuff@@U?$less@VioHashString@@@std@@V?$allocator@U?$pair@$$CBVioHashString@@PAVioBuff@@@std@@@4@$0A@@std@@@2@ABVioHashString@@@Z ; std::_Tree<std::_Tmap_traits<ioHashString,ioBuff *,std::less<ioHashString>,std::allocator<std::pair<ioHashString const ,ioBuff *> >,0> >::_Lbound
; Function compile flags: /Ogsp
;	COMDAT ?_Lbound@?$_Tree@V?$_Tmap_traits@VioHashString@@PAVioBuff@@U?$less@VioHashString@@@std@@V?$allocator@U?$pair@$$CBVioHashString@@PAVioBuff@@@std@@@4@$0A@@std@@@std@@IAEPAU_Node@?$_Tree_nod@V?$_Tmap_traits@VioHashString@@PAVioBuff@@U?$less@VioHashString@@@std@@V?$allocator@U?$pair@$$CBVioHashString@@PAVioBuff@@@std@@@4@$0A@@std@@@2@ABVioHashString@@@Z
_TEXT	SEGMENT
__Keyval$ = 8						; size = 4
?_Lbound@?$_Tree@V?$_Tmap_traits@VioHashString@@PAVioBuff@@U?$less@VioHashString@@@std@@V?$allocator@U?$pair@$$CBVioHashString@@PAVioBuff@@@std@@@4@$0A@@std@@@std@@IAEPAU_Node@?$_Tree_nod@V?$_Tmap_traits@VioHashString@@PAVioBuff@@U?$less@VioHashString@@@std@@V?$allocator@U?$pair@$$CBVioHashString@@PAVioBuff@@@std@@@4@$0A@@std@@@2@ABVioHashString@@@Z PROC ; std::_Tree<std::_Tmap_traits<ioHashString,ioBuff *,std::less<ioHashString>,std::allocator<std::pair<ioHashString const ,ioBuff *> >,0> >::_Lbound, COMDAT
; _this$ = ecx

; 1741 : 		{	// find leftmost node not less than _Keyval

  00000	55		 push	 ebp
  00001	8b ec		 mov	 ebp, esp

; 1742 : 		_Nodeptr _Pnode = _Root();

  00003	8b 41 04	 mov	 eax, DWORD PTR [ecx+4]
  00006	56		 push	 esi
  00007	8b 70 04	 mov	 esi, DWORD PTR [eax+4]
  0000a	57		 push	 edi

; 1743 : 		_Nodeptr _Wherenode = this->_Myhead;	// end() if search fails

  0000b	8b f8		 mov	 edi, eax
  0000d	eb 19		 jmp	 SHORT $LN26@Lbound@2
$LL4@Lbound@2:

; 1746 : 			if (_DEBUG_LT_PRED(this->comp, this->_Key(_Pnode), _Keyval))

  0000f	ff 75 08	 push	 DWORD PTR __Keyval$[ebp]
  00012	8d 4e 0c	 lea	 ecx, DWORD PTR [esi+12]
  00015	ff 15 00 00 00
	00		 call	 DWORD PTR __imp_??MioHashString@@QBE_NABV0@@Z
  0001b	84 c0		 test	 al, al
  0001d	74 05		 je	 SHORT $LN2@Lbound@2

; 1747 : 				_Pnode = this->_Right(_Pnode);	// descend right subtree

  0001f	8b 76 08	 mov	 esi, DWORD PTR [esi+8]

; 1748 : 			else

  00022	eb 04		 jmp	 SHORT $LN26@Lbound@2
$LN2@Lbound@2:

; 1749 : 				{	// _Pnode not less than _Keyval, remember it
; 1750 : 				_Wherenode = _Pnode;

  00024	8b fe		 mov	 edi, esi

; 1751 : 				_Pnode = this->_Left(_Pnode);	// descend left subtree

  00026	8b 36		 mov	 esi, DWORD PTR [esi]
$LN26@Lbound@2:

; 1744 : 
; 1745 : 		while (!this->_Isnil(_Pnode))

  00028	80 7e 21 00	 cmp	 BYTE PTR [esi+33], 0
  0002c	74 e1		 je	 SHORT $LL4@Lbound@2

; 1752 : 				}
; 1753 : 
; 1754 : 		return (_Wherenode);	// return best remembered candidate

  0002e	8b c7		 mov	 eax, edi
  00030	5f		 pop	 edi
  00031	5e		 pop	 esi

; 1755 : 		}

  00032	5d		 pop	 ebp
  00033	c2 04 00	 ret	 4
?_Lbound@?$_Tree@V?$_Tmap_traits@VioHashString@@PAVioBuff@@U?$less@VioHashString@@@std@@V?$allocator@U?$pair@$$CBVioHashString@@PAVioBuff@@@std@@@4@$0A@@std@@@std@@IAEPAU_Node@?$_Tree_nod@V?$_Tmap_traits@VioHashString@@PAVioBuff@@U?$less@VioHashString@@@std@@V?$allocator@U?$pair@$$CBVioHashString@@PAVioBuff@@@std@@@4@$0A@@std@@@2@ABVioHashString@@@Z ENDP ; std::_Tree<std::_Tmap_traits<ioHashString,ioBuff *,std::less<ioHashString>,std::allocator<std::pair<ioHashString const ,ioBuff *> >,0> >::_Lbound
_TEXT	ENDS
PUBLIC	??E?$_Tree_unchecked_const_iterator@V?$_Tree_val@V?$_Tmap_traits@VioHashString@@PAVioBuff@@U?$less@VioHashString@@@std@@V?$allocator@U?$pair@$$CBVioHashString@@PAVioBuff@@@std@@@4@$0A@@std@@@std@@U_Iterator_base0@2@@std@@QAEAAV01@XZ ; std::_Tree_unchecked_const_iterator<std::_Tree_val<std::_Tmap_traits<ioHashString,ioBuff *,std::less<ioHashString>,std::allocator<std::pair<ioHashString const ,ioBuff *> >,0> >,std::_Iterator_base0>::operator++
; Function compile flags: /Ogsp
;	COMDAT ??E?$_Tree_unchecked_const_iterator@V?$_Tree_val@V?$_Tmap_traits@VioHashString@@PAVioBuff@@U?$less@VioHashString@@@std@@V?$allocator@U?$pair@$$CBVioHashString@@PAVioBuff@@@std@@@4@$0A@@std@@@std@@U_Iterator_base0@2@@std@@QAEAAV01@XZ
_TEXT	SEGMENT
??E?$_Tree_unchecked_const_iterator@V?$_Tree_val@V?$_Tmap_traits@VioHashString@@PAVioBuff@@U?$less@VioHashString@@@std@@V?$allocator@U?$pair@$$CBVioHashString@@PAVioBuff@@@std@@@4@$0A@@std@@@std@@U_Iterator_base0@2@@std@@QAEAAV01@XZ PROC ; std::_Tree_unchecked_const_iterator<std::_Tree_val<std::_Tmap_traits<ioHashString,ioBuff *,std::less<ioHashString>,std::allocator<std::pair<ioHashString const ,ioBuff *> >,0> >,std::_Iterator_base0>::operator++, COMDAT
; _this$ = ecx

; 58   : 		{	// preincrement

  00000	8b c1		 mov	 eax, ecx

; 59   : 		if (_Mytree::_Isnil(_Ptr))

  00002	8b 08		 mov	 ecx, DWORD PTR [eax]
  00004	53		 push	 ebx
  00005	32 db		 xor	 bl, bl
  00007	38 59 21	 cmp	 BYTE PTR [ecx+33], bl
  0000a	75 2d		 jne	 SHORT $LN3@operator@2

; 60   : 			;	// end() shouldn't be incremented, don't move
; 61   : 		else if (!_Mytree::_Isnil(_Mytree::_Right(_Ptr)))

  0000c	8b 51 08	 mov	 edx, DWORD PTR [ecx+8]
  0000f	38 5a 21	 cmp	 BYTE PTR [edx+33], bl
  00012	75 0d		 jne	 SHORT $LN34@operator@2

; 62   : 			_Ptr = _Mytree::_Min(
; 63   : 				_Mytree::_Right(_Ptr));	// ==> smallest of right subtree

$LL18@operator@2:
  00014	8b ca		 mov	 ecx, edx
  00016	8b 11		 mov	 edx, DWORD PTR [ecx]
  00018	38 5a 21	 cmp	 BYTE PTR [edx+33], bl
  0001b	74 f7		 je	 SHORT $LL18@operator@2
  0001d	89 08		 mov	 DWORD PTR [eax], ecx
  0001f	5b		 pop	 ebx

; 71   : 			}
; 72   : 		return (*this);
; 73   : 		}

  00020	c3		 ret	 0
$LN34@operator@2:

; 64   : 		else
; 65   : 			{	// climb looking for right subtree
; 66   : 			_Nodeptr _Pnode;
; 67   : 			while (!_Mytree::_Isnil(_Pnode = _Mytree::_Parent(_Ptr))
; 68   : 				&& _Ptr == _Mytree::_Right(_Pnode))

  00021	8b 51 04	 mov	 edx, DWORD PTR [ecx+4]
  00024	eb 0c		 jmp	 SHORT $LN38@operator@2
$LL2@operator@2:
  00026	8b 08		 mov	 ecx, DWORD PTR [eax]
  00028	3b 4a 08	 cmp	 ecx, DWORD PTR [edx+8]
  0002b	75 0a		 jne	 SHORT $LN1@operator@2

; 69   : 				_Ptr = _Pnode;	// ==> parent while right subtree

  0002d	89 10		 mov	 DWORD PTR [eax], edx
  0002f	8b 52 04	 mov	 edx, DWORD PTR [edx+4]
$LN38@operator@2:

; 64   : 		else
; 65   : 			{	// climb looking for right subtree
; 66   : 			_Nodeptr _Pnode;
; 67   : 			while (!_Mytree::_Isnil(_Pnode = _Mytree::_Parent(_Ptr))
; 68   : 				&& _Ptr == _Mytree::_Right(_Pnode))

  00032	38 5a 21	 cmp	 BYTE PTR [edx+33], bl
  00035	74 ef		 je	 SHORT $LL2@operator@2
$LN1@operator@2:

; 70   : 			_Ptr = _Pnode;	// ==> parent (head if end())

  00037	89 10		 mov	 DWORD PTR [eax], edx
$LN3@operator@2:
  00039	5b		 pop	 ebx

; 71   : 			}
; 72   : 		return (*this);
; 73   : 		}

  0003a	c3		 ret	 0
??E?$_Tree_unchecked_const_iterator@V?$_Tree_val@V?$_Tmap_traits@VioHashString@@PAVioBuff@@U?$less@VioHashString@@@std@@V?$allocator@U?$pair@$$CBVioHashString@@PAVioBuff@@@std@@@4@$0A@@std@@@std@@U_Iterator_base0@2@@std@@QAEAAV01@XZ ENDP ; std::_Tree_unchecked_const_iterator<std::_Tree_val<std::_Tmap_traits<ioHashString,ioBuff *,std::less<ioHashString>,std::allocator<std::pair<ioHashString const ,ioBuff *> >,0> >,std::_Iterator_base0>::operator++
_TEXT	ENDS
PUBLIC	??0?$_Tree_nod@V?$_Tmap_traits@VioHashString@@PAVioBuff@@U?$less@VioHashString@@@std@@V?$allocator@U?$pair@$$CBVioHashString@@PAVioBuff@@@std@@@4@$0A@@std@@@std@@QAE@ABU?$less@VioHashString@@@1@V?$allocator@U?$pair@$$CBVioHashString@@PAVioBuff@@@std@@@1@@Z ; std::_Tree_nod<std::_Tmap_traits<ioHashString,ioBuff *,std::less<ioHashString>,std::allocator<std::pair<ioHashString const ,ioBuff *> >,0> >::_Tree_nod<std::_Tmap_traits<ioHashString,ioBuff *,std::less<ioHashString>,std::allocator<std::pair<ioHashString const ,ioBuff *> >,0> >
; Function compile flags: /Ogsp
;	COMDAT ??0?$_Tree_nod@V?$_Tmap_traits@VioHashString@@PAVioBuff@@U?$less@VioHashString@@@std@@V?$allocator@U?$pair@$$CBVioHashString@@PAVioBuff@@@std@@@4@$0A@@std@@@std@@QAE@ABU?$less@VioHashString@@@1@V?$allocator@U?$pair@$$CBVioHashString@@PAVioBuff@@@std@@@1@@Z
_TEXT	SEGMENT
__Parg$ = 8						; size = 4
__Al$ = 12						; size = 1
??0?$_Tree_nod@V?$_Tmap_traits@VioHashString@@PAVioBuff@@U?$less@VioHashString@@@std@@V?$allocator@U?$pair@$$CBVioHashString@@PAVioBuff@@@std@@@4@$0A@@std@@@std@@QAE@ABU?$less@VioHashString@@@1@V?$allocator@U?$pair@$$CBVioHashString@@PAVioBuff@@@std@@@1@@Z PROC ; std::_Tree_nod<std::_Tmap_traits<ioHashString,ioBuff *,std::less<ioHashString>,std::allocator<std::pair<ioHashString const ,ioBuff *> >,0> >::_Tree_nod<std::_Tmap_traits<ioHashString,ioBuff *,std::less<ioHashString>,std::allocator<std::pair<ioHashString const ,ioBuff *> >,0> >, COMDAT
; _this$ = ecx

; 482  : 		{	// construct traits from _Parg and allocators from _Al

  00000	8b c1		 mov	 eax, ecx

; 483  : 		}

  00002	c2 08 00	 ret	 8
??0?$_Tree_nod@V?$_Tmap_traits@VioHashString@@PAVioBuff@@U?$less@VioHashString@@@std@@V?$allocator@U?$pair@$$CBVioHashString@@PAVioBuff@@@std@@@4@$0A@@std@@@std@@QAE@ABU?$less@VioHashString@@@1@V?$allocator@U?$pair@$$CBVioHashString@@PAVioBuff@@@std@@@1@@Z ENDP ; std::_Tree_nod<std::_Tmap_traits<ioHashString,ioBuff *,std::less<ioHashString>,std::allocator<std::pair<ioHashString const ,ioBuff *> >,0> >::_Tree_nod<std::_Tmap_traits<ioHashString,ioBuff *,std::less<ioHashString>,std::allocator<std::pair<ioHashString const ,ioBuff *> >,0> >
_TEXT	ENDS
PUBLIC	?allocate@?$allocator@U_Node@?$_Tree_nod@V?$_Tmap_traits@VioHashString@@PAVioBuff@@U?$less@VioHashString@@@std@@V?$allocator@U?$pair@$$CBVioHashString@@PAVioBuff@@@std@@@4@$0A@@std@@@std@@@std@@QAEPAU_Node@?$_Tree_nod@V?$_Tmap_traits@VioHashString@@PAVioBuff@@U?$less@VioHashString@@@std@@V?$allocator@U?$pair@$$CBVioHashString@@PAVioBuff@@@std@@@4@$0A@@std@@@2@I@Z ; std::allocator<std::_Tree_nod<std::_Tmap_traits<ioHashString,ioBuff *,std::less<ioHashString>,std::allocator<std::pair<ioHashString const ,ioBuff *> >,0> >::_Node>::allocate
; Function compile flags: /Ogsp
; File c:\program files (x86)\microsoft visual studio 10.0\vc\include\xmemory
;	COMDAT ?allocate@?$allocator@U_Node@?$_Tree_nod@V?$_Tmap_traits@VioHashString@@PAVioBuff@@U?$less@VioHashString@@@std@@V?$allocator@U?$pair@$$CBVioHashString@@PAVioBuff@@@std@@@4@$0A@@std@@@std@@@std@@QAEPAU_Node@?$_Tree_nod@V?$_Tmap_traits@VioHashString@@PAVioBuff@@U?$less@VioHashString@@@std@@V?$allocator@U?$pair@$$CBVioHashString@@PAVioBuff@@@std@@@4@$0A@@std@@@2@I@Z
_TEXT	SEGMENT
__Count$ = 8						; size = 4
?allocate@?$allocator@U_Node@?$_Tree_nod@V?$_Tmap_traits@VioHashString@@PAVioBuff@@U?$less@VioHashString@@@std@@V?$allocator@U?$pair@$$CBVioHashString@@PAVioBuff@@@std@@@4@$0A@@std@@@std@@@std@@QAEPAU_Node@?$_Tree_nod@V?$_Tmap_traits@VioHashString@@PAVioBuff@@U?$less@VioHashString@@@std@@V?$allocator@U?$pair@$$CBVioHashString@@PAVioBuff@@@std@@@4@$0A@@std@@@2@I@Z PROC ; std::allocator<std::_Tree_nod<std::_Tmap_traits<ioHashString,ioBuff *,std::less<ioHashString>,std::allocator<std::pair<ioHashString const ,ioBuff *> >,0> >::_Node>::allocate, COMDAT
; _this$ = ecx

; 186  : 		{	// allocate array of _Count elements

  00000	55		 push	 ebp
  00001	8b ec		 mov	 ebp, esp

; 187  : 		return (_Allocate(_Count, (pointer)0));

  00003	6a 00		 push	 0
  00005	ff 75 08	 push	 DWORD PTR __Count$[ebp]
  00008	e8 00 00 00 00	 call	 ??$_Allocate@U_Node@?$_Tree_nod@V?$_Tmap_traits@VioHashString@@PAVioBuff@@U?$less@VioHashString@@@std@@V?$allocator@U?$pair@$$CBVioHashString@@PAVioBuff@@@std@@@4@$0A@@std@@@std@@@std@@YAPAU_Node@?$_Tree_nod@V?$_Tmap_traits@VioHashString@@PAVioBuff@@U?$less@VioHashString@@@std@@V?$allocator@U?$pair@$$CBVioHashString@@PAVioBuff@@@std@@@4@$0A@@std@@@0@IPAU120@@Z ; std::_Allocate<std::_Tree_nod<std::_Tmap_traits<ioHashString,ioBuff *,std::less<ioHashString>,std::allocator<std::pair<ioHashString const ,ioBuff *> >,0> >::_Node>
  0000d	59		 pop	 ecx
  0000e	59		 pop	 ecx

; 188  : 		}

  0000f	5d		 pop	 ebp
  00010	c2 04 00	 ret	 4
?allocate@?$allocator@U_Node@?$_Tree_nod@V?$_Tmap_traits@VioHashString@@PAVioBuff@@U?$less@VioHashString@@@std@@V?$allocator@U?$pair@$$CBVioHashString@@PAVioBuff@@@std@@@4@$0A@@std@@@std@@@std@@QAEPAU_Node@?$_Tree_nod@V?$_Tmap_traits@VioHashString@@PAVioBuff@@U?$less@VioHashString@@@std@@V?$allocator@U?$pair@$$CBVioHashString@@PAVioBuff@@@std@@@4@$0A@@std@@@2@I@Z ENDP ; std::allocator<std::_Tree_nod<std::_Tmap_traits<ioHashString,ioBuff *,std::less<ioHashString>,std::allocator<std::pair<ioHashString const ,ioBuff *> >,0> >::_Node>::allocate
_TEXT	ENDS
PUBLIC	?_Lrotate@?$_Tree@V?$_Tmap_traits@VioHashString@@PAVioBuff@@U?$less@VioHashString@@@std@@V?$allocator@U?$pair@$$CBVioHashString@@PAVioBuff@@@std@@@4@$0A@@std@@@std@@IAEXPAU_Node@?$_Tree_nod@V?$_Tmap_traits@VioHashString@@PAVioBuff@@U?$less@VioHashString@@@std@@V?$allocator@U?$pair@$$CBVioHashString@@PAVioBuff@@@std@@@4@$0A@@std@@@2@@Z ; std::_Tree<std::_Tmap_traits<ioHashString,ioBuff *,std::less<ioHashString>,std::allocator<std::pair<ioHashString const ,ioBuff *> >,0> >::_Lrotate
; Function compile flags: /Ogsp
; File c:\program files (x86)\microsoft visual studio 10.0\vc\include\xtree
;	COMDAT ?_Lrotate@?$_Tree@V?$_Tmap_traits@VioHashString@@PAVioBuff@@U?$less@VioHashString@@@std@@V?$allocator@U?$pair@$$CBVioHashString@@PAVioBuff@@@std@@@4@$0A@@std@@@std@@IAEXPAU_Node@?$_Tree_nod@V?$_Tmap_traits@VioHashString@@PAVioBuff@@U?$less@VioHashString@@@std@@V?$allocator@U?$pair@$$CBVioHashString@@PAVioBuff@@@std@@@4@$0A@@std@@@2@@Z
_TEXT	SEGMENT
__Wherenode$ = 8					; size = 4
?_Lrotate@?$_Tree@V?$_Tmap_traits@VioHashString@@PAVioBuff@@U?$less@VioHashString@@@std@@V?$allocator@U?$pair@$$CBVioHashString@@PAVioBuff@@@std@@@4@$0A@@std@@@std@@IAEXPAU_Node@?$_Tree_nod@V?$_Tmap_traits@VioHashString@@PAVioBuff@@U?$less@VioHashString@@@std@@V?$allocator@U?$pair@$$CBVioHashString@@PAVioBuff@@@std@@@4@$0A@@std@@@2@@Z PROC ; std::_Tree<std::_Tmap_traits<ioHashString,ioBuff *,std::less<ioHashString>,std::allocator<std::pair<ioHashString const ,ioBuff *> >,0> >::_Lrotate, COMDAT
; _this$ = ecx

; 1763 : 		{	// promote right node to root of subtree

  00000	55		 push	 ebp
  00001	8b ec		 mov	 ebp, esp

; 1764 : 		_Nodeptr _Pnode = this->_Right(_Wherenode);

  00003	8b 55 08	 mov	 edx, DWORD PTR __Wherenode$[ebp]
  00006	8b 42 08	 mov	 eax, DWORD PTR [edx+8]
  00009	56		 push	 esi

; 1765 : 		this->_Right(_Wherenode) = this->_Left(_Pnode);

  0000a	8b 30		 mov	 esi, DWORD PTR [eax]
  0000c	89 72 08	 mov	 DWORD PTR [edx+8], esi

; 1766 : 
; 1767 : 		if (!this->_Isnil(this->_Left(_Pnode)))

  0000f	8b 30		 mov	 esi, DWORD PTR [eax]
  00011	80 7e 21 00	 cmp	 BYTE PTR [esi+33], 0
  00015	75 03		 jne	 SHORT $LN5@Lrotate

; 1768 : 			this->_Parent(this->_Left(_Pnode)) = _Wherenode;

  00017	89 56 04	 mov	 DWORD PTR [esi+4], edx
$LN5@Lrotate:

; 1769 : 		this->_Parent(_Pnode) = this->_Parent(_Wherenode);

  0001a	8b 72 04	 mov	 esi, DWORD PTR [edx+4]
  0001d	89 70 04	 mov	 DWORD PTR [eax+4], esi

; 1770 : 
; 1771 : 		if (_Wherenode == _Root())

  00020	8b 49 04	 mov	 ecx, DWORD PTR [ecx+4]
  00023	5e		 pop	 esi
  00024	3b 51 04	 cmp	 edx, DWORD PTR [ecx+4]
  00027	75 05		 jne	 SHORT $LN4@Lrotate

; 1772 : 			_Root() = _Pnode;

  00029	89 41 04	 mov	 DWORD PTR [ecx+4], eax

; 1773 : 		else if (_Wherenode == this->_Left(this->_Parent(_Wherenode)))

  0002c	eb 0e		 jmp	 SHORT $LN1@Lrotate
$LN4@Lrotate:
  0002e	8b 4a 04	 mov	 ecx, DWORD PTR [edx+4]
  00031	3b 11		 cmp	 edx, DWORD PTR [ecx]
  00033	75 04		 jne	 SHORT $LN2@Lrotate

; 1774 : 			this->_Left(this->_Parent(_Wherenode)) = _Pnode;

  00035	89 01		 mov	 DWORD PTR [ecx], eax

; 1775 : 		else

  00037	eb 03		 jmp	 SHORT $LN1@Lrotate
$LN2@Lrotate:

; 1776 : 			this->_Right(this->_Parent(_Wherenode)) = _Pnode;

  00039	89 41 08	 mov	 DWORD PTR [ecx+8], eax
$LN1@Lrotate:

; 1777 : 
; 1778 : 		this->_Left(_Pnode) = _Wherenode;

  0003c	89 10		 mov	 DWORD PTR [eax], edx

; 1779 : 		this->_Parent(_Wherenode) = _Pnode;

  0003e	89 42 04	 mov	 DWORD PTR [edx+4], eax

; 1780 : 		}

  00041	5d		 pop	 ebp
  00042	c2 04 00	 ret	 4
?_Lrotate@?$_Tree@V?$_Tmap_traits@VioHashString@@PAVioBuff@@U?$less@VioHashString@@@std@@V?$allocator@U?$pair@$$CBVioHashString@@PAVioBuff@@@std@@@4@$0A@@std@@@std@@IAEXPAU_Node@?$_Tree_nod@V?$_Tmap_traits@VioHashString@@PAVioBuff@@U?$less@VioHashString@@@std@@V?$allocator@U?$pair@$$CBVioHashString@@PAVioBuff@@@std@@@4@$0A@@std@@@2@@Z ENDP ; std::_Tree<std::_Tmap_traits<ioHashString,ioBuff *,std::less<ioHashString>,std::allocator<std::pair<ioHashString const ,ioBuff *> >,0> >::_Lrotate
_TEXT	ENDS
PUBLIC	?_Rrotate@?$_Tree@V?$_Tmap_traits@VioHashString@@PAVioBuff@@U?$less@VioHashString@@@std@@V?$allocator@U?$pair@$$CBVioHashString@@PAVioBuff@@@std@@@4@$0A@@std@@@std@@IAEXPAU_Node@?$_Tree_nod@V?$_Tmap_traits@VioHashString@@PAVioBuff@@U?$less@VioHashString@@@std@@V?$allocator@U?$pair@$$CBVioHashString@@PAVioBuff@@@std@@@4@$0A@@std@@@2@@Z ; std::_Tree<std::_Tmap_traits<ioHashString,ioBuff *,std::less<ioHashString>,std::allocator<std::pair<ioHashString const ,ioBuff *> >,0> >::_Rrotate
; Function compile flags: /Ogsp
;	COMDAT ?_Rrotate@?$_Tree@V?$_Tmap_traits@VioHashString@@PAVioBuff@@U?$less@VioHashString@@@std@@V?$allocator@U?$pair@$$CBVioHashString@@PAVioBuff@@@std@@@4@$0A@@std@@@std@@IAEXPAU_Node@?$_Tree_nod@V?$_Tmap_traits@VioHashString@@PAVioBuff@@U?$less@VioHashString@@@std@@V?$allocator@U?$pair@$$CBVioHashString@@PAVioBuff@@@std@@@4@$0A@@std@@@2@@Z
_TEXT	SEGMENT
__Wherenode$ = 8					; size = 4
?_Rrotate@?$_Tree@V?$_Tmap_traits@VioHashString@@PAVioBuff@@U?$less@VioHashString@@@std@@V?$allocator@U?$pair@$$CBVioHashString@@PAVioBuff@@@std@@@4@$0A@@std@@@std@@IAEXPAU_Node@?$_Tree_nod@V?$_Tmap_traits@VioHashString@@PAVioBuff@@U?$less@VioHashString@@@std@@V?$allocator@U?$pair@$$CBVioHashString@@PAVioBuff@@@std@@@4@$0A@@std@@@2@@Z PROC ; std::_Tree<std::_Tmap_traits<ioHashString,ioBuff *,std::less<ioHashString>,std::allocator<std::pair<ioHashString const ,ioBuff *> >,0> >::_Rrotate, COMDAT
; _this$ = ecx

; 1793 : 		{	// promote left node to root of subtree

  00000	55		 push	 ebp
  00001	8b ec		 mov	 ebp, esp

; 1794 : 		_Nodeptr _Pnode = this->_Left(_Wherenode);

  00003	8b 55 08	 mov	 edx, DWORD PTR __Wherenode$[ebp]
  00006	8b 02		 mov	 eax, DWORD PTR [edx]
  00008	56		 push	 esi

; 1795 : 		this->_Left(_Wherenode) = this->_Right(_Pnode);

  00009	8b 70 08	 mov	 esi, DWORD PTR [eax+8]
  0000c	89 32		 mov	 DWORD PTR [edx], esi

; 1796 : 
; 1797 : 		if (!this->_Isnil(this->_Right(_Pnode)))

  0000e	8b 70 08	 mov	 esi, DWORD PTR [eax+8]
  00011	80 7e 21 00	 cmp	 BYTE PTR [esi+33], 0
  00015	75 03		 jne	 SHORT $LN5@Rrotate

; 1798 : 			this->_Parent(this->_Right(_Pnode)) = _Wherenode;

  00017	89 56 04	 mov	 DWORD PTR [esi+4], edx
$LN5@Rrotate:

; 1799 : 		this->_Parent(_Pnode) = this->_Parent(_Wherenode);

  0001a	8b 72 04	 mov	 esi, DWORD PTR [edx+4]
  0001d	89 70 04	 mov	 DWORD PTR [eax+4], esi

; 1800 : 
; 1801 : 		if (_Wherenode == _Root())

  00020	8b 49 04	 mov	 ecx, DWORD PTR [ecx+4]
  00023	5e		 pop	 esi
  00024	3b 51 04	 cmp	 edx, DWORD PTR [ecx+4]
  00027	75 05		 jne	 SHORT $LN4@Rrotate

; 1802 : 			_Root() = _Pnode;

  00029	89 41 04	 mov	 DWORD PTR [ecx+4], eax

; 1803 : 		else if (_Wherenode == this->_Right(this->_Parent(_Wherenode)))

  0002c	eb 0f		 jmp	 SHORT $LN1@Rrotate
$LN4@Rrotate:
  0002e	8b 4a 04	 mov	 ecx, DWORD PTR [edx+4]
  00031	3b 51 08	 cmp	 edx, DWORD PTR [ecx+8]
  00034	75 05		 jne	 SHORT $LN2@Rrotate

; 1804 : 			this->_Right(this->_Parent(_Wherenode)) = _Pnode;

  00036	89 41 08	 mov	 DWORD PTR [ecx+8], eax

; 1805 : 		else

  00039	eb 02		 jmp	 SHORT $LN1@Rrotate
$LN2@Rrotate:

; 1806 : 			this->_Left(this->_Parent(_Wherenode)) = _Pnode;

  0003b	89 01		 mov	 DWORD PTR [ecx], eax
$LN1@Rrotate:

; 1807 : 
; 1808 : 		this->_Right(_Pnode) = _Wherenode;

  0003d	89 50 08	 mov	 DWORD PTR [eax+8], edx

; 1809 : 		this->_Parent(_Wherenode) = _Pnode;

  00040	89 42 04	 mov	 DWORD PTR [edx+4], eax

; 1810 : 		}

  00043	5d		 pop	 ebp
  00044	c2 04 00	 ret	 4
?_Rrotate@?$_Tree@V?$_Tmap_traits@VioHashString@@PAVioBuff@@U?$less@VioHashString@@@std@@V?$allocator@U?$pair@$$CBVioHashString@@PAVioBuff@@@std@@@4@$0A@@std@@@std@@IAEXPAU_Node@?$_Tree_nod@V?$_Tmap_traits@VioHashString@@PAVioBuff@@U?$less@VioHashString@@@std@@V?$allocator@U?$pair@$$CBVioHashString@@PAVioBuff@@@std@@@4@$0A@@std@@@2@@Z ENDP ; std::_Tree<std::_Tmap_traits<ioHashString,ioBuff *,std::less<ioHashString>,std::allocator<std::pair<ioHashString const ,ioBuff *> >,0> >::_Rrotate
_TEXT	ENDS
PUBLIC	__$ArrayPad$
PUBLIC	??$SetTitle_e@$0M@@ioINILoader@@QAEXAAY0M@$$CBD@Z ; ioINILoader::SetTitle_e<12>
EXTRN	__imp_?SetTitle@ioINILoader@@QAEXPBD@Z:PROC
EXTRN	___security_cookie:DWORD
; Function compile flags: /Ogsp
; File d:\lost saga for developer\youtube\tutorial\source\src\io3dengine\ioiniloader.h
;	COMDAT ??$SetTitle_e@$0M@@ioINILoader@@QAEXAAY0M@$$CBD@Z
_TEXT	SEGMENT
__t$ = -20						; size = 12
__$ArrayPad$ = -4					; size = 4
_t$ = 8							; size = 4
??$SetTitle_e@$0M@@ioINILoader@@QAEXAAY0M@$$CBD@Z PROC	; ioINILoader::SetTitle_e<12>, COMDAT
; _this$ = ecx

; 188  : 	{

  00000	55		 push	 ebp
  00001	8b ec		 mov	 ebp, esp
  00003	83 ec 14	 sub	 esp, 20			; 00000014H
  00006	a1 00 00 00 00	 mov	 eax, DWORD PTR ___security_cookie
  0000b	33 c5		 xor	 eax, ebp
  0000d	89 45 fc	 mov	 DWORD PTR __$ArrayPad$[ebp], eax
  00010	8b 45 08	 mov	 eax, DWORD PTR _t$[ebp]

; 189  : 		_ENCSTR(t, _t);

  00013	8a 10		 mov	 dl, BYTE PTR [eax]
  00015	56		 push	 esi
  00016	8b f1		 mov	 esi, ecx
  00018	84 d2		 test	 dl, dl
  0001a	0f 84 32 01 00
	00		 je	 $LN96@SetTitle_e
  00020	80 f2 ed	 xor	 dl, -19			; ffffffedH
  00023	88 55 ec	 mov	 BYTE PTR __t$[ebp], dl
  00026	8a 50 01	 mov	 dl, BYTE PTR [eax+1]
  00029	84 d2		 test	 dl, dl
  0002b	0f 84 1b 01 00
	00		 je	 $LN95@SetTitle_e
  00031	80 f2 ec	 xor	 dl, -20			; ffffffecH
  00034	88 55 ed	 mov	 BYTE PTR __t$[ebp+1], dl
  00037	8a 50 02	 mov	 dl, BYTE PTR [eax+2]
  0003a	84 d2		 test	 dl, dl
  0003c	0f 84 04 01 00
	00		 je	 $LN94@SetTitle_e
  00042	b1 eb		 mov	 cl, -21			; ffffffebH
  00044	32 d1		 xor	 dl, cl
  00046	88 55 ee	 mov	 BYTE PTR __t$[ebp+2], dl
  00049	8a 50 03	 mov	 dl, BYTE PTR [eax+3]
  0004c	84 d2		 test	 dl, dl
  0004e	0f 84 ec 00 00
	00		 je	 $LN93@SetTitle_e
  00054	80 f2 ea	 xor	 dl, -22			; ffffffeaH
  00057	88 55 ef	 mov	 BYTE PTR __t$[ebp+3], dl
  0005a	8a 50 04	 mov	 dl, BYTE PTR [eax+4]
  0005d	84 d2		 test	 dl, dl
  0005f	0f 84 d5 00 00
	00		 je	 $LN92@SetTitle_e
  00065	80 f2 ed	 xor	 dl, -19			; ffffffedH
  00068	88 55 f0	 mov	 BYTE PTR __t$[ebp+4], dl
  0006b	8a 50 05	 mov	 dl, BYTE PTR [eax+5]
  0006e	84 d2		 test	 dl, dl
  00070	0f 84 be 00 00
	00		 je	 $LN91@SetTitle_e
  00076	80 f2 ec	 xor	 dl, -20			; ffffffecH
  00079	88 55 f1	 mov	 BYTE PTR __t$[ebp+5], dl
  0007c	8a 50 06	 mov	 dl, BYTE PTR [eax+6]
  0007f	84 d2		 test	 dl, dl
  00081	0f 84 a8 00 00
	00		 je	 $LN90@SetTitle_e
  00087	32 d1		 xor	 dl, cl
  00089	88 55 f2	 mov	 BYTE PTR __t$[ebp+6], dl
  0008c	8a 50 07	 mov	 dl, BYTE PTR [eax+7]
  0008f	84 d2		 test	 dl, dl
  00091	0f 84 92 00 00
	00		 je	 $LN89@SetTitle_e
  00097	80 f2 ea	 xor	 dl, -22			; ffffffeaH
  0009a	88 55 f3	 mov	 BYTE PTR __t$[ebp+7], dl
  0009d	8a 50 08	 mov	 dl, BYTE PTR [eax+8]
  000a0	84 d2		 test	 dl, dl
  000a2	74 7f		 je	 SHORT $LN88@SetTitle_e
  000a4	80 f2 ed	 xor	 dl, -19			; ffffffedH
  000a7	88 55 f4	 mov	 BYTE PTR __t$[ebp+8], dl
  000aa	8a 50 09	 mov	 dl, BYTE PTR [eax+9]
  000ad	84 d2		 test	 dl, dl
  000af	74 6c		 je	 SHORT $LN87@SetTitle_e
  000b1	80 f2 ec	 xor	 dl, -20			; ffffffecH
  000b4	88 55 f5	 mov	 BYTE PTR __t$[ebp+9], dl
  000b7	8a 50 0a	 mov	 dl, BYTE PTR [eax+10]
  000ba	84 d2		 test	 dl, dl
  000bc	74 5a		 je	 SHORT $LN86@SetTitle_e
  000be	32 d1		 xor	 dl, cl
  000c0	80 78 0b 00	 cmp	 BYTE PTR [eax+11], 0
  000c4	88 55 f6	 mov	 BYTE PTR __t$[ebp+10], dl
  000c7	0f 84 89 00 00
	00		 je	 $LN1@SetTitle_e
  000cd	8a 50 0c	 mov	 dl, BYTE PTR [eax+12]
  000d0	84 d2		 test	 dl, dl
  000d2	74 3e		 je	 SHORT $LN84@SetTitle_e
  000d4	80 f2 ed	 xor	 dl, -19			; ffffffedH
  000d7	88 55 f8	 mov	 BYTE PTR __t$[ebp+12], dl
  000da	8a 50 0d	 mov	 dl, BYTE PTR [eax+13]
  000dd	84 d2		 test	 dl, dl
  000df	74 2b		 je	 SHORT $LN83@SetTitle_e
  000e1	80 f2 ec	 xor	 dl, -20			; ffffffecH
  000e4	88 55 f9	 mov	 BYTE PTR __t$[ebp+13], dl
  000e7	8a 50 0e	 mov	 dl, BYTE PTR [eax+14]
  000ea	84 d2		 test	 dl, dl
  000ec	74 19		 je	 SHORT $LN82@SetTitle_e
  000ee	8a 40 0f	 mov	 al, BYTE PTR [eax+15]
  000f1	32 d1		 xor	 dl, cl
  000f3	88 55 fa	 mov	 BYTE PTR __t$[ebp+14], dl
  000f6	84 c0		 test	 al, al
  000f8	74 07		 je	 SHORT $LN81@SetTitle_e
  000fa	34 ea		 xor	 al, -22			; ffffffeaH
  000fc	88 45 fb	 mov	 BYTE PTR __t$[ebp+15], al
  000ff	eb 55		 jmp	 SHORT $LN1@SetTitle_e
$LN81@SetTitle_e:
  00101	c6 45 fb ea	 mov	 BYTE PTR __t$[ebp+15], -22 ; ffffffeaH
  00105	eb 4f		 jmp	 SHORT $LN1@SetTitle_e
$LN82@SetTitle_e:
  00107	88 4d fa	 mov	 BYTE PTR __t$[ebp+14], cl
  0010a	eb 4a		 jmp	 SHORT $LN1@SetTitle_e
$LN83@SetTitle_e:
  0010c	c6 45 f9 ec	 mov	 BYTE PTR __t$[ebp+13], -20 ; ffffffecH
  00110	eb 44		 jmp	 SHORT $LN1@SetTitle_e
$LN84@SetTitle_e:
  00112	c6 45 f8 ed	 mov	 BYTE PTR __t$[ebp+12], -19 ; ffffffedH
  00116	eb 3e		 jmp	 SHORT $LN1@SetTitle_e
$LN86@SetTitle_e:
  00118	88 4d f6	 mov	 BYTE PTR __t$[ebp+10], cl
  0011b	eb 39		 jmp	 SHORT $LN1@SetTitle_e
$LN87@SetTitle_e:
  0011d	c6 45 f5 ec	 mov	 BYTE PTR __t$[ebp+9], -20 ; ffffffecH
  00121	eb 33		 jmp	 SHORT $LN1@SetTitle_e
$LN88@SetTitle_e:
  00123	c6 45 f4 ed	 mov	 BYTE PTR __t$[ebp+8], -19 ; ffffffedH
  00127	eb 2d		 jmp	 SHORT $LN1@SetTitle_e
$LN89@SetTitle_e:
  00129	c6 45 f3 ea	 mov	 BYTE PTR __t$[ebp+7], -22 ; ffffffeaH
  0012d	eb 27		 jmp	 SHORT $LN1@SetTitle_e
$LN90@SetTitle_e:
  0012f	88 4d f2	 mov	 BYTE PTR __t$[ebp+6], cl
  00132	eb 22		 jmp	 SHORT $LN1@SetTitle_e
$LN91@SetTitle_e:
  00134	c6 45 f1 ec	 mov	 BYTE PTR __t$[ebp+5], -20 ; ffffffecH
  00138	eb 1c		 jmp	 SHORT $LN1@SetTitle_e
$LN92@SetTitle_e:
  0013a	c6 45 f0 ed	 mov	 BYTE PTR __t$[ebp+4], -19 ; ffffffedH
  0013e	eb 16		 jmp	 SHORT $LN1@SetTitle_e
$LN93@SetTitle_e:
  00140	c6 45 ef ea	 mov	 BYTE PTR __t$[ebp+3], -22 ; ffffffeaH
  00144	eb 10		 jmp	 SHORT $LN1@SetTitle_e
$LN94@SetTitle_e:
  00146	c6 45 ee eb	 mov	 BYTE PTR __t$[ebp+2], -21 ; ffffffebH
  0014a	eb 0a		 jmp	 SHORT $LN1@SetTitle_e
$LN95@SetTitle_e:
  0014c	c6 45 ed ec	 mov	 BYTE PTR __t$[ebp+1], -20 ; ffffffecH
  00150	eb 04		 jmp	 SHORT $LN1@SetTitle_e
$LN96@SetTitle_e:
  00152	c6 45 ec ed	 mov	 BYTE PTR __t$[ebp], -19	; ffffffedH
$LN1@SetTitle_e:
  00156	6a 02		 push	 2
  00158	8d 45 ec	 lea	 eax, DWORD PTR __t$[ebp]
  0015b	c6 45 f7 00	 mov	 BYTE PTR __t$[ebp+11], 0
  0015f	5a		 pop	 edx
$LL104@SetTitle_e:
  00160	81 30 ed ec eb
	ea		 xor	 DWORD PTR [eax], -353637139 ; eaebecedH
  00166	83 c0 04	 add	 eax, 4
  00169	4a		 dec	 edx
  0016a	75 f4		 jne	 SHORT $LL104@SetTitle_e
  0016c	6a 08		 push	 8
  0016e	58		 pop	 eax
$LL101@SetTitle_e:
  0016f	8b c8		 mov	 ecx, eax
  00171	81 e1 03 00 00
	80		 and	 ecx, -2147483645	; 80000003H
  00177	79 05		 jns	 SHORT $LN111@SetTitle_e
  00179	49		 dec	 ecx
  0017a	83 c9 fc	 or	 ecx, -4			; fffffffcH
  0017d	41		 inc	 ecx
$LN111@SetTitle_e:
  0017e	b2 ed		 mov	 dl, -19			; ffffffedH
  00180	2a d1		 sub	 dl, cl
  00182	30 54 05 ec	 xor	 BYTE PTR __t$[ebp+eax], dl
  00186	40		 inc	 eax
  00187	83 f8 0b	 cmp	 eax, 11			; 0000000bH
  0018a	7c e3		 jl	 SHORT $LL101@SetTitle_e

; 190  : 		SetTitle(_t);

  0018c	8d 45 ec	 lea	 eax, DWORD PTR __t$[ebp]
  0018f	50		 push	 eax
  00190	8b ce		 mov	 ecx, esi
  00192	ff 15 00 00 00
	00		 call	 DWORD PTR __imp_?SetTitle@ioINILoader@@QAEXPBD@Z

; 191  : 	}

  00198	8b 4d fc	 mov	 ecx, DWORD PTR __$ArrayPad$[ebp]
  0019b	33 cd		 xor	 ecx, ebp
  0019d	5e		 pop	 esi
  0019e	e8 00 00 00 00	 call	 @__security_check_cookie@4
  001a3	c9		 leave
  001a4	c2 04 00	 ret	 4
??$SetTitle_e@$0M@@ioINILoader@@QAEXAAY0M@$$CBD@Z ENDP	; ioINILoader::SetTitle_e<12>
_TEXT	ENDS
PUBLIC	__$ArrayPad$
PUBLIC	??$LoadInt_e@$0P@@ioINILoader@@QAEHAAY0P@$$CBDH@Z ; ioINILoader::LoadInt_e<15>
EXTRN	__imp_?LoadInt@ioINILoader@@QAEHPBDH@Z:PROC
; Function compile flags: /Ogsp
;	COMDAT ??$LoadInt_e@$0P@@ioINILoader@@QAEHAAY0P@$$CBDH@Z
_TEXT	SEGMENT
__k$ = -24						; size = 15
__$ArrayPad$ = -4					; size = 4
_k$ = 8							; size = 4
_i$ = 12						; size = 4
??$LoadInt_e@$0P@@ioINILoader@@QAEHAAY0P@$$CBDH@Z PROC	; ioINILoader::LoadInt_e<15>, COMDAT
; _this$ = ecx

; 118  : 	{

  00000	55		 push	 ebp
  00001	8b ec		 mov	 ebp, esp
  00003	83 ec 18	 sub	 esp, 24			; 00000018H
  00006	a1 00 00 00 00	 mov	 eax, DWORD PTR ___security_cookie
  0000b	33 c5		 xor	 eax, ebp
  0000d	89 45 fc	 mov	 DWORD PTR __$ArrayPad$[ebp], eax
  00010	8b 45 08	 mov	 eax, DWORD PTR _k$[ebp]

; 119  : 		_ENCSTR(k, _k);

  00013	8a 10		 mov	 dl, BYTE PTR [eax]
  00015	56		 push	 esi
  00016	8b f1		 mov	 esi, ecx
  00018	84 d2		 test	 dl, dl
  0001a	0f 84 75 01 00
	00		 je	 $LN96@LoadInt_e
  00020	80 f2 ed	 xor	 dl, -19			; ffffffedH
  00023	88 55 e8	 mov	 BYTE PTR __k$[ebp], dl
  00026	8a 50 01	 mov	 dl, BYTE PTR [eax+1]
  00029	84 d2		 test	 dl, dl
  0002b	0f 84 5e 01 00
	00		 je	 $LN95@LoadInt_e
  00031	b1 ec		 mov	 cl, -20			; ffffffecH
  00033	32 d1		 xor	 dl, cl
  00035	88 55 e9	 mov	 BYTE PTR __k$[ebp+1], dl
  00038	8a 50 02	 mov	 dl, BYTE PTR [eax+2]
  0003b	84 d2		 test	 dl, dl
  0003d	0f 84 46 01 00
	00		 je	 $LN94@LoadInt_e
  00043	80 f2 eb	 xor	 dl, -21			; ffffffebH
  00046	88 55 ea	 mov	 BYTE PTR __k$[ebp+2], dl
  00049	8a 50 03	 mov	 dl, BYTE PTR [eax+3]
  0004c	84 d2		 test	 dl, dl
  0004e	0f 84 2f 01 00
	00		 je	 $LN93@LoadInt_e
  00054	80 f2 ea	 xor	 dl, -22			; ffffffeaH
  00057	88 55 eb	 mov	 BYTE PTR __k$[ebp+3], dl
  0005a	8a 50 04	 mov	 dl, BYTE PTR [eax+4]
  0005d	84 d2		 test	 dl, dl
  0005f	0f 84 18 01 00
	00		 je	 $LN92@LoadInt_e
  00065	80 f2 ed	 xor	 dl, -19			; ffffffedH
  00068	88 55 ec	 mov	 BYTE PTR __k$[ebp+4], dl
  0006b	8a 50 05	 mov	 dl, BYTE PTR [eax+5]
  0006e	84 d2		 test	 dl, dl
  00070	0f 84 02 01 00
	00		 je	 $LN91@LoadInt_e
  00076	32 d1		 xor	 dl, cl
  00078	88 55 ed	 mov	 BYTE PTR __k$[ebp+5], dl
  0007b	8a 50 06	 mov	 dl, BYTE PTR [eax+6]
  0007e	84 d2		 test	 dl, dl
  00080	0f 84 ec 00 00
	00		 je	 $LN90@LoadInt_e
  00086	80 f2 eb	 xor	 dl, -21			; ffffffebH
  00089	88 55 ee	 mov	 BYTE PTR __k$[ebp+6], dl
  0008c	8a 50 07	 mov	 dl, BYTE PTR [eax+7]
  0008f	84 d2		 test	 dl, dl
  00091	0f 84 d5 00 00
	00		 je	 $LN89@LoadInt_e
  00097	80 f2 ea	 xor	 dl, -22			; ffffffeaH
  0009a	88 55 ef	 mov	 BYTE PTR __k$[ebp+7], dl
  0009d	8a 50 08	 mov	 dl, BYTE PTR [eax+8]
  000a0	84 d2		 test	 dl, dl
  000a2	0f 84 be 00 00
	00		 je	 $LN88@LoadInt_e
  000a8	80 f2 ed	 xor	 dl, -19			; ffffffedH
  000ab	88 55 f0	 mov	 BYTE PTR __k$[ebp+8], dl
  000ae	8a 50 09	 mov	 dl, BYTE PTR [eax+9]
  000b1	84 d2		 test	 dl, dl
  000b3	0f 84 a8 00 00
	00		 je	 $LN87@LoadInt_e
  000b9	32 d1		 xor	 dl, cl
  000bb	88 55 f1	 mov	 BYTE PTR __k$[ebp+9], dl
  000be	8a 50 0a	 mov	 dl, BYTE PTR [eax+10]
  000c1	84 d2		 test	 dl, dl
  000c3	0f 84 92 00 00
	00		 je	 $LN86@LoadInt_e
  000c9	80 f2 eb	 xor	 dl, -21			; ffffffebH
  000cc	88 55 f2	 mov	 BYTE PTR __k$[ebp+10], dl
  000cf	8a 50 0b	 mov	 dl, BYTE PTR [eax+11]
  000d2	84 d2		 test	 dl, dl
  000d4	74 7f		 je	 SHORT $LN85@LoadInt_e
  000d6	80 f2 ea	 xor	 dl, -22			; ffffffeaH
  000d9	88 55 f3	 mov	 BYTE PTR __k$[ebp+11], dl
  000dc	8a 50 0c	 mov	 dl, BYTE PTR [eax+12]
  000df	84 d2		 test	 dl, dl
  000e1	74 6c		 je	 SHORT $LN84@LoadInt_e
  000e3	80 f2 ed	 xor	 dl, -19			; ffffffedH
  000e6	88 55 f4	 mov	 BYTE PTR __k$[ebp+12], dl
  000e9	8a 50 0d	 mov	 dl, BYTE PTR [eax+13]
  000ec	84 d2		 test	 dl, dl
  000ee	74 5a		 je	 SHORT $LN83@LoadInt_e
  000f0	32 d1		 xor	 dl, cl
  000f2	80 78 0e 00	 cmp	 BYTE PTR [eax+14], 0
  000f6	88 55 f5	 mov	 BYTE PTR __k$[ebp+13], dl
  000f9	0f 84 9a 00 00
	00		 je	 $LN1@LoadInt_e
  000ff	8a 50 0f	 mov	 dl, BYTE PTR [eax+15]
  00102	84 d2		 test	 dl, dl
  00104	74 3e		 je	 SHORT $LN81@LoadInt_e
  00106	80 f2 ea	 xor	 dl, -22			; ffffffeaH
  00109	88 55 f7	 mov	 BYTE PTR __k$[ebp+15], dl
  0010c	8a 50 10	 mov	 dl, BYTE PTR [eax+16]
  0010f	84 d2		 test	 dl, dl
  00111	74 2b		 je	 SHORT $LN80@LoadInt_e
  00113	80 f2 ed	 xor	 dl, -19			; ffffffedH
  00116	88 55 f8	 mov	 BYTE PTR __k$[ebp+16], dl
  00119	8a 50 11	 mov	 dl, BYTE PTR [eax+17]
  0011c	84 d2		 test	 dl, dl
  0011e	74 19		 je	 SHORT $LN79@LoadInt_e
  00120	8a 40 12	 mov	 al, BYTE PTR [eax+18]
  00123	32 d1		 xor	 dl, cl
  00125	88 55 f9	 mov	 BYTE PTR __k$[ebp+17], dl
  00128	84 c0		 test	 al, al
  0012a	74 07		 je	 SHORT $LN78@LoadInt_e
  0012c	34 eb		 xor	 al, -21			; ffffffebH
  0012e	88 45 fa	 mov	 BYTE PTR __k$[ebp+18], al
  00131	eb 66		 jmp	 SHORT $LN1@LoadInt_e
$LN78@LoadInt_e:
  00133	c6 45 fa eb	 mov	 BYTE PTR __k$[ebp+18], -21 ; ffffffebH
  00137	eb 60		 jmp	 SHORT $LN1@LoadInt_e
$LN79@LoadInt_e:
  00139	88 4d f9	 mov	 BYTE PTR __k$[ebp+17], cl
  0013c	eb 5b		 jmp	 SHORT $LN1@LoadInt_e
$LN80@LoadInt_e:
  0013e	c6 45 f8 ed	 mov	 BYTE PTR __k$[ebp+16], -19 ; ffffffedH
  00142	eb 55		 jmp	 SHORT $LN1@LoadInt_e
$LN81@LoadInt_e:
  00144	c6 45 f7 ea	 mov	 BYTE PTR __k$[ebp+15], -22 ; ffffffeaH
  00148	eb 4f		 jmp	 SHORT $LN1@LoadInt_e
$LN83@LoadInt_e:
  0014a	88 4d f5	 mov	 BYTE PTR __k$[ebp+13], cl
  0014d	eb 4a		 jmp	 SHORT $LN1@LoadInt_e
$LN84@LoadInt_e:
  0014f	c6 45 f4 ed	 mov	 BYTE PTR __k$[ebp+12], -19 ; ffffffedH
  00153	eb 44		 jmp	 SHORT $LN1@LoadInt_e
$LN85@LoadInt_e:
  00155	c6 45 f3 ea	 mov	 BYTE PTR __k$[ebp+11], -22 ; ffffffeaH
  00159	eb 3e		 jmp	 SHORT $LN1@LoadInt_e
$LN86@LoadInt_e:
  0015b	c6 45 f2 eb	 mov	 BYTE PTR __k$[ebp+10], -21 ; ffffffebH
  0015f	eb 38		 jmp	 SHORT $LN1@LoadInt_e
$LN87@LoadInt_e:
  00161	88 4d f1	 mov	 BYTE PTR __k$[ebp+9], cl
  00164	eb 33		 jmp	 SHORT $LN1@LoadInt_e
$LN88@LoadInt_e:
  00166	c6 45 f0 ed	 mov	 BYTE PTR __k$[ebp+8], -19 ; ffffffedH
  0016a	eb 2d		 jmp	 SHORT $LN1@LoadInt_e
$LN89@LoadInt_e:
  0016c	c6 45 ef ea	 mov	 BYTE PTR __k$[ebp+7], -22 ; ffffffeaH
  00170	eb 27		 jmp	 SHORT $LN1@LoadInt_e
$LN90@LoadInt_e:
  00172	c6 45 ee eb	 mov	 BYTE PTR __k$[ebp+6], -21 ; ffffffebH
  00176	eb 21		 jmp	 SHORT $LN1@LoadInt_e
$LN91@LoadInt_e:
  00178	88 4d ed	 mov	 BYTE PTR __k$[ebp+5], cl
  0017b	eb 1c		 jmp	 SHORT $LN1@LoadInt_e
$LN92@LoadInt_e:
  0017d	c6 45 ec ed	 mov	 BYTE PTR __k$[ebp+4], -19 ; ffffffedH
  00181	eb 16		 jmp	 SHORT $LN1@LoadInt_e
$LN93@LoadInt_e:
  00183	c6 45 eb ea	 mov	 BYTE PTR __k$[ebp+3], -22 ; ffffffeaH
  00187	eb 10		 jmp	 SHORT $LN1@LoadInt_e
$LN94@LoadInt_e:
  00189	c6 45 ea eb	 mov	 BYTE PTR __k$[ebp+2], -21 ; ffffffebH
  0018d	eb 0a		 jmp	 SHORT $LN1@LoadInt_e
$LN95@LoadInt_e:
  0018f	c6 45 e9 ec	 mov	 BYTE PTR __k$[ebp+1], -20 ; ffffffecH
  00193	eb 04		 jmp	 SHORT $LN1@LoadInt_e
$LN96@LoadInt_e:
  00195	c6 45 e8 ed	 mov	 BYTE PTR __k$[ebp], -19	; ffffffedH
$LN1@LoadInt_e:
  00199	6a 03		 push	 3
  0019b	8d 45 e8	 lea	 eax, DWORD PTR __k$[ebp]
  0019e	c6 45 f6 00	 mov	 BYTE PTR __k$[ebp+14], 0
  001a2	5a		 pop	 edx
$LL104@LoadInt_e:
  001a3	81 30 ed ec eb
	ea		 xor	 DWORD PTR [eax], -353637139 ; eaebecedH
  001a9	83 c0 04	 add	 eax, 4
  001ac	4a		 dec	 edx
  001ad	75 f4		 jne	 SHORT $LL104@LoadInt_e
  001af	6a 0c		 push	 12			; 0000000cH
  001b1	58		 pop	 eax
$LL101@LoadInt_e:
  001b2	8b c8		 mov	 ecx, eax
  001b4	81 e1 03 00 00
	80		 and	 ecx, -2147483645	; 80000003H
  001ba	79 05		 jns	 SHORT $LN111@LoadInt_e
  001bc	49		 dec	 ecx
  001bd	83 c9 fc	 or	 ecx, -4			; fffffffcH
  001c0	41		 inc	 ecx
$LN111@LoadInt_e:
  001c1	b2 ed		 mov	 dl, -19			; ffffffedH
  001c3	2a d1		 sub	 dl, cl
  001c5	30 54 05 e8	 xor	 BYTE PTR __k$[ebp+eax], dl
  001c9	40		 inc	 eax
  001ca	83 f8 0e	 cmp	 eax, 14			; 0000000eH
  001cd	7c e3		 jl	 SHORT $LL101@LoadInt_e

; 120  : 		return LoadInt(_k, i);

  001cf	ff 75 0c	 push	 DWORD PTR _i$[ebp]
  001d2	8d 45 e8	 lea	 eax, DWORD PTR __k$[ebp]
  001d5	50		 push	 eax
  001d6	8b ce		 mov	 ecx, esi
  001d8	ff 15 00 00 00
	00		 call	 DWORD PTR __imp_?LoadInt@ioINILoader@@QAEHPBDH@Z

; 121  : 	}

  001de	8b 4d fc	 mov	 ecx, DWORD PTR __$ArrayPad$[ebp]
  001e1	33 cd		 xor	 ecx, ebp
  001e3	5e		 pop	 esi
  001e4	e8 00 00 00 00	 call	 @__security_check_cookie@4
  001e9	c9		 leave
  001ea	c2 08 00	 ret	 8
??$LoadInt_e@$0P@@ioINILoader@@QAEHAAY0P@$$CBDH@Z ENDP	; ioINILoader::LoadInt_e<15>
_TEXT	ENDS
PUBLIC	__$ArrayPad$
PUBLIC	??$SetTitle_e@$06@ioINILoader@@QAEXAAY06$$CBD@Z	; ioINILoader::SetTitle_e<7>
; Function compile flags: /Ogsp
;	COMDAT ??$SetTitle_e@$06@ioINILoader@@QAEXAAY06$$CBD@Z
_TEXT	SEGMENT
__t$ = -16						; size = 7
__$ArrayPad$ = -4					; size = 4
_t$ = 8							; size = 4
??$SetTitle_e@$06@ioINILoader@@QAEXAAY06$$CBD@Z PROC	; ioINILoader::SetTitle_e<7>, COMDAT
; _this$ = ecx

; 188  : 	{

  00000	55		 push	 ebp
  00001	8b ec		 mov	 ebp, esp
  00003	83 ec 10	 sub	 esp, 16			; 00000010H
  00006	a1 00 00 00 00	 mov	 eax, DWORD PTR ___security_cookie
  0000b	33 c5		 xor	 eax, ebp
  0000d	89 45 fc	 mov	 DWORD PTR __$ArrayPad$[ebp], eax
  00010	8b 45 08	 mov	 eax, DWORD PTR _t$[ebp]

; 189  : 		_ENCSTR(t, _t);

  00013	8a 10		 mov	 dl, BYTE PTR [eax]
  00015	56		 push	 esi
  00016	8b f1		 mov	 esi, ecx
  00018	84 d2		 test	 dl, dl
  0001a	0f 84 c0 00 00
	00		 je	 $LN96@SetTitle_e@2
  00020	80 f2 ed	 xor	 dl, -19			; ffffffedH
  00023	88 55 f0	 mov	 BYTE PTR __t$[ebp], dl
  00026	8a 50 01	 mov	 dl, BYTE PTR [eax+1]
  00029	84 d2		 test	 dl, dl
  0002b	0f 84 a9 00 00
	00		 je	 $LN95@SetTitle_e@2
  00031	80 f2 ec	 xor	 dl, -20			; ffffffecH
  00034	88 55 f1	 mov	 BYTE PTR __t$[ebp+1], dl
  00037	8a 50 02	 mov	 dl, BYTE PTR [eax+2]
  0003a	84 d2		 test	 dl, dl
  0003c	0f 84 92 00 00
	00		 je	 $LN94@SetTitle_e@2
  00042	80 f2 eb	 xor	 dl, -21			; ffffffebH
  00045	88 55 f2	 mov	 BYTE PTR __t$[ebp+2], dl
  00048	8a 50 03	 mov	 dl, BYTE PTR [eax+3]
  0004b	84 d2		 test	 dl, dl
  0004d	74 7f		 je	 SHORT $LN93@SetTitle_e@2
  0004f	80 f2 ea	 xor	 dl, -22			; ffffffeaH
  00052	88 55 f3	 mov	 BYTE PTR __t$[ebp+3], dl
  00055	8a 50 04	 mov	 dl, BYTE PTR [eax+4]
  00058	84 d2		 test	 dl, dl
  0005a	74 6c		 je	 SHORT $LN92@SetTitle_e@2
  0005c	80 f2 ed	 xor	 dl, -19			; ffffffedH
  0005f	88 55 f4	 mov	 BYTE PTR __t$[ebp+4], dl
  00062	8a 50 05	 mov	 dl, BYTE PTR [eax+5]
  00065	84 d2		 test	 dl, dl
  00067	74 59		 je	 SHORT $LN91@SetTitle_e@2
  00069	80 f2 ec	 xor	 dl, -20			; ffffffecH
  0006c	80 78 06 00	 cmp	 BYTE PTR [eax+6], 0
  00070	88 55 f5	 mov	 BYTE PTR __t$[ebp+5], dl
  00073	74 6f		 je	 SHORT $LN1@SetTitle_e@2
  00075	8a 50 07	 mov	 dl, BYTE PTR [eax+7]
  00078	84 d2		 test	 dl, dl
  0007a	74 40		 je	 SHORT $LN89@SetTitle_e@2
  0007c	80 f2 ea	 xor	 dl, -22			; ffffffeaH
  0007f	88 55 f7	 mov	 BYTE PTR __t$[ebp+7], dl
  00082	8a 50 08	 mov	 dl, BYTE PTR [eax+8]
  00085	84 d2		 test	 dl, dl
  00087	74 2d		 je	 SHORT $LN88@SetTitle_e@2
  00089	80 f2 ed	 xor	 dl, -19			; ffffffedH
  0008c	88 55 f8	 mov	 BYTE PTR __t$[ebp+8], dl
  0008f	8a 50 09	 mov	 dl, BYTE PTR [eax+9]
  00092	84 d2		 test	 dl, dl
  00094	74 1a		 je	 SHORT $LN87@SetTitle_e@2
  00096	8a 40 0a	 mov	 al, BYTE PTR [eax+10]
  00099	80 f2 ec	 xor	 dl, -20			; ffffffecH
  0009c	88 55 f9	 mov	 BYTE PTR __t$[ebp+9], dl
  0009f	84 c0		 test	 al, al
  000a1	74 07		 je	 SHORT $LN86@SetTitle_e@2
  000a3	34 eb		 xor	 al, -21			; ffffffebH
  000a5	88 45 fa	 mov	 BYTE PTR __t$[ebp+10], al
  000a8	eb 3a		 jmp	 SHORT $LN1@SetTitle_e@2
$LN86@SetTitle_e@2:
  000aa	c6 45 fa eb	 mov	 BYTE PTR __t$[ebp+10], -21 ; ffffffebH
  000ae	eb 34		 jmp	 SHORT $LN1@SetTitle_e@2
$LN87@SetTitle_e@2:
  000b0	c6 45 f9 ec	 mov	 BYTE PTR __t$[ebp+9], -20 ; ffffffecH
  000b4	eb 2e		 jmp	 SHORT $LN1@SetTitle_e@2
$LN88@SetTitle_e@2:
  000b6	c6 45 f8 ed	 mov	 BYTE PTR __t$[ebp+8], -19 ; ffffffedH
  000ba	eb 28		 jmp	 SHORT $LN1@SetTitle_e@2
$LN89@SetTitle_e@2:
  000bc	c6 45 f7 ea	 mov	 BYTE PTR __t$[ebp+7], -22 ; ffffffeaH
  000c0	eb 22		 jmp	 SHORT $LN1@SetTitle_e@2
$LN91@SetTitle_e@2:
  000c2	c6 45 f5 ec	 mov	 BYTE PTR __t$[ebp+5], -20 ; ffffffecH
  000c6	eb 1c		 jmp	 SHORT $LN1@SetTitle_e@2
$LN92@SetTitle_e@2:
  000c8	c6 45 f4 ed	 mov	 BYTE PTR __t$[ebp+4], -19 ; ffffffedH
  000cc	eb 16		 jmp	 SHORT $LN1@SetTitle_e@2
$LN93@SetTitle_e@2:
  000ce	c6 45 f3 ea	 mov	 BYTE PTR __t$[ebp+3], -22 ; ffffffeaH
  000d2	eb 10		 jmp	 SHORT $LN1@SetTitle_e@2
$LN94@SetTitle_e@2:
  000d4	c6 45 f2 eb	 mov	 BYTE PTR __t$[ebp+2], -21 ; ffffffebH
  000d8	eb 0a		 jmp	 SHORT $LN1@SetTitle_e@2
$LN95@SetTitle_e@2:
  000da	c6 45 f1 ec	 mov	 BYTE PTR __t$[ebp+1], -20 ; ffffffecH
  000de	eb 04		 jmp	 SHORT $LN1@SetTitle_e@2
$LN96@SetTitle_e@2:
  000e0	c6 45 f0 ed	 mov	 BYTE PTR __t$[ebp], -19	; ffffffedH
$LN1@SetTitle_e@2:
  000e4	81 75 f0 ed ec
	eb ea		 xor	 DWORD PTR __t$[ebp], -353637139 ; eaebecedH
  000eb	6a 04		 push	 4
  000ed	c6 45 f6 00	 mov	 BYTE PTR __t$[ebp+6], 0
  000f1	58		 pop	 eax
$LL101@SetTitle_e@2:
  000f2	8b c8		 mov	 ecx, eax
  000f4	81 e1 03 00 00
	80		 and	 ecx, -2147483645	; 80000003H
  000fa	79 05		 jns	 SHORT $LN111@SetTitle_e@2
  000fc	49		 dec	 ecx
  000fd	83 c9 fc	 or	 ecx, -4			; fffffffcH
  00100	41		 inc	 ecx
$LN111@SetTitle_e@2:
  00101	b2 ed		 mov	 dl, -19			; ffffffedH
  00103	2a d1		 sub	 dl, cl
  00105	30 54 05 f0	 xor	 BYTE PTR __t$[ebp+eax], dl
  00109	40		 inc	 eax
  0010a	83 f8 06	 cmp	 eax, 6
  0010d	7c e3		 jl	 SHORT $LL101@SetTitle_e@2

; 190  : 		SetTitle(_t);

  0010f	8d 45 f0	 lea	 eax, DWORD PTR __t$[ebp]
  00112	50		 push	 eax
  00113	8b ce		 mov	 ecx, esi
  00115	ff 15 00 00 00
	00		 call	 DWORD PTR __imp_?SetTitle@ioINILoader@@QAEXPBD@Z

; 191  : 	}

  0011b	8b 4d fc	 mov	 ecx, DWORD PTR __$ArrayPad$[ebp]
  0011e	33 cd		 xor	 ecx, ebp
  00120	5e		 pop	 esi
  00121	e8 00 00 00 00	 call	 @__security_check_cookie@4
  00126	c9		 leave
  00127	c2 04 00	 ret	 4
??$SetTitle_e@$06@ioINILoader@@QAEXAAY06$$CBD@Z ENDP	; ioINILoader::SetTitle_e<7>
_TEXT	ENDS
PUBLIC	__$ArrayPad$
PUBLIC	??$LoadInt_e@$08@ioINILoader@@QAEHAAY08$$CBDH@Z	; ioINILoader::LoadInt_e<9>
; Function compile flags: /Ogsp
;	COMDAT ??$LoadInt_e@$08@ioINILoader@@QAEHAAY08$$CBDH@Z
_TEXT	SEGMENT
__k$ = -20						; size = 9
__$ArrayPad$ = -4					; size = 4
_k$ = 8							; size = 4
_i$ = 12						; size = 4
??$LoadInt_e@$08@ioINILoader@@QAEHAAY08$$CBDH@Z PROC	; ioINILoader::LoadInt_e<9>, COMDAT
; _this$ = ecx

; 118  : 	{

  00000	55		 push	 ebp
  00001	8b ec		 mov	 ebp, esp
  00003	83 ec 14	 sub	 esp, 20			; 00000014H
  00006	a1 00 00 00 00	 mov	 eax, DWORD PTR ___security_cookie
  0000b	33 c5		 xor	 eax, ebp
  0000d	89 45 fc	 mov	 DWORD PTR __$ArrayPad$[ebp], eax
  00010	8b 45 08	 mov	 eax, DWORD PTR _k$[ebp]

; 119  : 		_ENCSTR(k, _k);

  00013	8a 10		 mov	 dl, BYTE PTR [eax]
  00015	84 d2		 test	 dl, dl
  00017	0f 84 ee 00 00
	00		 je	 $LN96@LoadInt_e@2
  0001d	80 f2 ed	 xor	 dl, -19			; ffffffedH
  00020	88 55 ec	 mov	 BYTE PTR __k$[ebp], dl
  00023	8a 50 01	 mov	 dl, BYTE PTR [eax+1]
  00026	84 d2		 test	 dl, dl
  00028	0f 84 d7 00 00
	00		 je	 $LN95@LoadInt_e@2
  0002e	80 f2 ec	 xor	 dl, -20			; ffffffecH
  00031	88 55 ed	 mov	 BYTE PTR __k$[ebp+1], dl
  00034	8a 50 02	 mov	 dl, BYTE PTR [eax+2]
  00037	84 d2		 test	 dl, dl
  00039	0f 84 c0 00 00
	00		 je	 $LN94@LoadInt_e@2
  0003f	80 f2 eb	 xor	 dl, -21			; ffffffebH
  00042	88 55 ee	 mov	 BYTE PTR __k$[ebp+2], dl
  00045	8a 50 03	 mov	 dl, BYTE PTR [eax+3]
  00048	84 d2		 test	 dl, dl
  0004a	0f 84 a9 00 00
	00		 je	 $LN93@LoadInt_e@2
  00050	80 f2 ea	 xor	 dl, -22			; ffffffeaH
  00053	88 55 ef	 mov	 BYTE PTR __k$[ebp+3], dl
  00056	8a 50 04	 mov	 dl, BYTE PTR [eax+4]
  00059	84 d2		 test	 dl, dl
  0005b	0f 84 92 00 00
	00		 je	 $LN92@LoadInt_e@2
  00061	80 f2 ed	 xor	 dl, -19			; ffffffedH
  00064	88 55 f0	 mov	 BYTE PTR __k$[ebp+4], dl
  00067	8a 50 05	 mov	 dl, BYTE PTR [eax+5]
  0006a	84 d2		 test	 dl, dl
  0006c	74 7f		 je	 SHORT $LN91@LoadInt_e@2
  0006e	80 f2 ec	 xor	 dl, -20			; ffffffecH
  00071	88 55 f1	 mov	 BYTE PTR __k$[ebp+5], dl
  00074	8a 50 06	 mov	 dl, BYTE PTR [eax+6]
  00077	84 d2		 test	 dl, dl
  00079	74 6c		 je	 SHORT $LN90@LoadInt_e@2
  0007b	80 f2 eb	 xor	 dl, -21			; ffffffebH
  0007e	88 55 f2	 mov	 BYTE PTR __k$[ebp+6], dl
  00081	8a 50 07	 mov	 dl, BYTE PTR [eax+7]
  00084	84 d2		 test	 dl, dl
  00086	74 59		 je	 SHORT $LN89@LoadInt_e@2
  00088	80 f2 ea	 xor	 dl, -22			; ffffffeaH
  0008b	80 78 08 00	 cmp	 BYTE PTR [eax+8], 0
  0008f	88 55 f3	 mov	 BYTE PTR __k$[ebp+7], dl
  00092	74 7b		 je	 SHORT $LN1@LoadInt_e@2
  00094	8a 50 09	 mov	 dl, BYTE PTR [eax+9]
  00097	84 d2		 test	 dl, dl
  00099	74 40		 je	 SHORT $LN87@LoadInt_e@2
  0009b	80 f2 ec	 xor	 dl, -20			; ffffffecH
  0009e	88 55 f5	 mov	 BYTE PTR __k$[ebp+9], dl
  000a1	8a 50 0a	 mov	 dl, BYTE PTR [eax+10]
  000a4	84 d2		 test	 dl, dl
  000a6	74 2d		 je	 SHORT $LN86@LoadInt_e@2
  000a8	80 f2 eb	 xor	 dl, -21			; ffffffebH
  000ab	88 55 f6	 mov	 BYTE PTR __k$[ebp+10], dl
  000ae	8a 50 0b	 mov	 dl, BYTE PTR [eax+11]
  000b1	84 d2		 test	 dl, dl
  000b3	74 1a		 je	 SHORT $LN85@LoadInt_e@2
  000b5	8a 40 0c	 mov	 al, BYTE PTR [eax+12]
  000b8	80 f2 ea	 xor	 dl, -22			; ffffffeaH
  000bb	88 55 f7	 mov	 BYTE PTR __k$[ebp+11], dl
  000be	84 c0		 test	 al, al
  000c0	74 07		 je	 SHORT $LN84@LoadInt_e@2
  000c2	34 ed		 xor	 al, -19			; ffffffedH
  000c4	88 45 f8	 mov	 BYTE PTR __k$[ebp+12], al
  000c7	eb 46		 jmp	 SHORT $LN1@LoadInt_e@2
$LN84@LoadInt_e@2:
  000c9	c6 45 f8 ed	 mov	 BYTE PTR __k$[ebp+12], -19 ; ffffffedH
  000cd	eb 40		 jmp	 SHORT $LN1@LoadInt_e@2
$LN85@LoadInt_e@2:
  000cf	c6 45 f7 ea	 mov	 BYTE PTR __k$[ebp+11], -22 ; ffffffeaH
  000d3	eb 3a		 jmp	 SHORT $LN1@LoadInt_e@2
$LN86@LoadInt_e@2:
  000d5	c6 45 f6 eb	 mov	 BYTE PTR __k$[ebp+10], -21 ; ffffffebH
  000d9	eb 34		 jmp	 SHORT $LN1@LoadInt_e@2
$LN87@LoadInt_e@2:
  000db	c6 45 f5 ec	 mov	 BYTE PTR __k$[ebp+9], -20 ; ffffffecH
  000df	eb 2e		 jmp	 SHORT $LN1@LoadInt_e@2
$LN89@LoadInt_e@2:
  000e1	c6 45 f3 ea	 mov	 BYTE PTR __k$[ebp+7], -22 ; ffffffeaH
  000e5	eb 28		 jmp	 SHORT $LN1@LoadInt_e@2
$LN90@LoadInt_e@2:
  000e7	c6 45 f2 eb	 mov	 BYTE PTR __k$[ebp+6], -21 ; ffffffebH
  000eb	eb 22		 jmp	 SHORT $LN1@LoadInt_e@2
$LN91@LoadInt_e@2:
  000ed	c6 45 f1 ec	 mov	 BYTE PTR __k$[ebp+5], -20 ; ffffffecH
  000f1	eb 1c		 jmp	 SHORT $LN1@LoadInt_e@2
$LN92@LoadInt_e@2:
  000f3	c6 45 f0 ed	 mov	 BYTE PTR __k$[ebp+4], -19 ; ffffffedH
  000f7	eb 16		 jmp	 SHORT $LN1@LoadInt_e@2
$LN93@LoadInt_e@2:
  000f9	c6 45 ef ea	 mov	 BYTE PTR __k$[ebp+3], -22 ; ffffffeaH
  000fd	eb 10		 jmp	 SHORT $LN1@LoadInt_e@2
$LN94@LoadInt_e@2:
  000ff	c6 45 ee eb	 mov	 BYTE PTR __k$[ebp+2], -21 ; ffffffebH
  00103	eb 0a		 jmp	 SHORT $LN1@LoadInt_e@2
$LN95@LoadInt_e@2:
  00105	c6 45 ed ec	 mov	 BYTE PTR __k$[ebp+1], -20 ; ffffffecH
  00109	eb 04		 jmp	 SHORT $LN1@LoadInt_e@2
$LN96@LoadInt_e@2:
  0010b	c6 45 ec ed	 mov	 BYTE PTR __k$[ebp], -19	; ffffffedH
$LN1@LoadInt_e@2:
  0010f	6a 02		 push	 2
  00111	8d 45 ec	 lea	 eax, DWORD PTR __k$[ebp]
  00114	c6 45 f4 00	 mov	 BYTE PTR __k$[ebp+8], 0
  00118	5a		 pop	 edx
$LL104@LoadInt_e@2:
  00119	81 30 ed ec eb
	ea		 xor	 DWORD PTR [eax], -353637139 ; eaebecedH
  0011f	83 c0 04	 add	 eax, 4
  00122	4a		 dec	 edx
  00123	75 f4		 jne	 SHORT $LL104@LoadInt_e@2

; 120  : 		return LoadInt(_k, i);

  00125	ff 75 0c	 push	 DWORD PTR _i$[ebp]
  00128	8d 45 ec	 lea	 eax, DWORD PTR __k$[ebp]
  0012b	50		 push	 eax
  0012c	ff 15 00 00 00
	00		 call	 DWORD PTR __imp_?LoadInt@ioINILoader@@QAEHPBDH@Z

; 121  : 	}

  00132	8b 4d fc	 mov	 ecx, DWORD PTR __$ArrayPad$[ebp]
  00135	33 cd		 xor	 ecx, ebp
  00137	e8 00 00 00 00	 call	 @__security_check_cookie@4
  0013c	c9		 leave
  0013d	c2 08 00	 ret	 8
??$LoadInt_e@$08@ioINILoader@@QAEHAAY08$$CBDH@Z ENDP	; ioINILoader::LoadInt_e<9>
_TEXT	ENDS
PUBLIC	__$ArrayPad$
PUBLIC	??$LoadInt_e@$04@ioINILoader@@QAEHAAY04$$CBDH@Z	; ioINILoader::LoadInt_e<5>
; Function compile flags: /Ogsp
;	COMDAT ??$LoadInt_e@$04@ioINILoader@@QAEHAAY04$$CBDH@Z
_TEXT	SEGMENT
__k$ = -16						; size = 5
__$ArrayPad$ = -4					; size = 4
_k$ = 8							; size = 4
_i$ = 12						; size = 4
??$LoadInt_e@$04@ioINILoader@@QAEHAAY04$$CBDH@Z PROC	; ioINILoader::LoadInt_e<5>, COMDAT
; _this$ = ecx

; 118  : 	{

  00000	55		 push	 ebp
  00001	8b ec		 mov	 ebp, esp
  00003	83 ec 10	 sub	 esp, 16			; 00000010H
  00006	a1 00 00 00 00	 mov	 eax, DWORD PTR ___security_cookie
  0000b	33 c5		 xor	 eax, ebp
  0000d	89 45 fc	 mov	 DWORD PTR __$ArrayPad$[ebp], eax
  00010	8b 45 08	 mov	 eax, DWORD PTR _k$[ebp]

; 119  : 		_ENCSTR(k, _k);

  00013	8a 10		 mov	 dl, BYTE PTR [eax]
  00015	84 d2		 test	 dl, dl
  00017	0f 84 92 00 00
	00		 je	 $LN96@LoadInt_e@3
  0001d	80 f2 ed	 xor	 dl, -19			; ffffffedH
  00020	88 55 f0	 mov	 BYTE PTR __k$[ebp], dl
  00023	8a 50 01	 mov	 dl, BYTE PTR [eax+1]
  00026	84 d2		 test	 dl, dl
  00028	74 7f		 je	 SHORT $LN95@LoadInt_e@3
  0002a	80 f2 ec	 xor	 dl, -20			; ffffffecH
  0002d	88 55 f1	 mov	 BYTE PTR __k$[ebp+1], dl
  00030	8a 50 02	 mov	 dl, BYTE PTR [eax+2]
  00033	84 d2		 test	 dl, dl
  00035	74 6c		 je	 SHORT $LN94@LoadInt_e@3
  00037	80 f2 eb	 xor	 dl, -21			; ffffffebH
  0003a	88 55 f2	 mov	 BYTE PTR __k$[ebp+2], dl
  0003d	8a 50 03	 mov	 dl, BYTE PTR [eax+3]
  00040	84 d2		 test	 dl, dl
  00042	74 59		 je	 SHORT $LN93@LoadInt_e@3
  00044	80 f2 ea	 xor	 dl, -22			; ffffffeaH
  00047	80 78 04 00	 cmp	 BYTE PTR [eax+4], 0
  0004b	88 55 f3	 mov	 BYTE PTR __k$[ebp+3], dl
  0004e	74 63		 je	 SHORT $LN1@LoadInt_e@3
  00050	8a 50 05	 mov	 dl, BYTE PTR [eax+5]
  00053	84 d2		 test	 dl, dl
  00055	74 40		 je	 SHORT $LN91@LoadInt_e@3
  00057	80 f2 ec	 xor	 dl, -20			; ffffffecH
  0005a	88 55 f5	 mov	 BYTE PTR __k$[ebp+5], dl
  0005d	8a 50 06	 mov	 dl, BYTE PTR [eax+6]
  00060	84 d2		 test	 dl, dl
  00062	74 2d		 je	 SHORT $LN90@LoadInt_e@3
  00064	80 f2 eb	 xor	 dl, -21			; ffffffebH
  00067	88 55 f6	 mov	 BYTE PTR __k$[ebp+6], dl
  0006a	8a 50 07	 mov	 dl, BYTE PTR [eax+7]
  0006d	84 d2		 test	 dl, dl
  0006f	74 1a		 je	 SHORT $LN89@LoadInt_e@3
  00071	8a 40 08	 mov	 al, BYTE PTR [eax+8]
  00074	80 f2 ea	 xor	 dl, -22			; ffffffeaH
  00077	88 55 f7	 mov	 BYTE PTR __k$[ebp+7], dl
  0007a	84 c0		 test	 al, al
  0007c	74 07		 je	 SHORT $LN88@LoadInt_e@3
  0007e	34 ed		 xor	 al, -19			; ffffffedH
  00080	88 45 f8	 mov	 BYTE PTR __k$[ebp+8], al
  00083	eb 2e		 jmp	 SHORT $LN1@LoadInt_e@3
$LN88@LoadInt_e@3:
  00085	c6 45 f8 ed	 mov	 BYTE PTR __k$[ebp+8], -19 ; ffffffedH
  00089	eb 28		 jmp	 SHORT $LN1@LoadInt_e@3
$LN89@LoadInt_e@3:
  0008b	c6 45 f7 ea	 mov	 BYTE PTR __k$[ebp+7], -22 ; ffffffeaH
  0008f	eb 22		 jmp	 SHORT $LN1@LoadInt_e@3
$LN90@LoadInt_e@3:
  00091	c6 45 f6 eb	 mov	 BYTE PTR __k$[ebp+6], -21 ; ffffffebH
  00095	eb 1c		 jmp	 SHORT $LN1@LoadInt_e@3
$LN91@LoadInt_e@3:
  00097	c6 45 f5 ec	 mov	 BYTE PTR __k$[ebp+5], -20 ; ffffffecH
  0009b	eb 16		 jmp	 SHORT $LN1@LoadInt_e@3
$LN93@LoadInt_e@3:
  0009d	c6 45 f3 ea	 mov	 BYTE PTR __k$[ebp+3], -22 ; ffffffeaH
  000a1	eb 10		 jmp	 SHORT $LN1@LoadInt_e@3
$LN94@LoadInt_e@3:
  000a3	c6 45 f2 eb	 mov	 BYTE PTR __k$[ebp+2], -21 ; ffffffebH
  000a7	eb 0a		 jmp	 SHORT $LN1@LoadInt_e@3
$LN95@LoadInt_e@3:
  000a9	c6 45 f1 ec	 mov	 BYTE PTR __k$[ebp+1], -20 ; ffffffecH
  000ad	eb 04		 jmp	 SHORT $LN1@LoadInt_e@3
$LN96@LoadInt_e@3:
  000af	c6 45 f0 ed	 mov	 BYTE PTR __k$[ebp], -19	; ffffffedH
$LN1@LoadInt_e@3:

; 120  : 		return LoadInt(_k, i);

  000b3	ff 75 0c	 push	 DWORD PTR _i$[ebp]
  000b6	81 75 f0 ed ec
	eb ea		 xor	 DWORD PTR __k$[ebp], -353637139 ; eaebecedH
  000bd	8d 45 f0	 lea	 eax, DWORD PTR __k$[ebp]
  000c0	50		 push	 eax
  000c1	c6 45 f4 00	 mov	 BYTE PTR __k$[ebp+4], 0
  000c5	ff 15 00 00 00
	00		 call	 DWORD PTR __imp_?LoadInt@ioINILoader@@QAEHPBDH@Z

; 121  : 	}

  000cb	8b 4d fc	 mov	 ecx, DWORD PTR __$ArrayPad$[ebp]
  000ce	33 cd		 xor	 ecx, ebp
  000d0	e8 00 00 00 00	 call	 @__security_check_cookie@4
  000d5	c9		 leave
  000d6	c2 08 00	 ret	 8
??$LoadInt_e@$04@ioINILoader@@QAEHAAY04$$CBDH@Z ENDP	; ioINILoader::LoadInt_e<5>
_TEXT	ENDS
PUBLIC	?max_size@?$_Tree@V?$_Tmap_traits@VioHashString@@PAVioBuff@@U?$less@VioHashString@@@std@@V?$allocator@U?$pair@$$CBVioHashString@@PAVioBuff@@@std@@@4@$0A@@std@@@std@@QBEIXZ ; std::_Tree<std::_Tmap_traits<ioHashString,ioBuff *,std::less<ioHashString>,std::allocator<std::pair<ioHashString const ,ioBuff *> >,0> >::max_size
; Function compile flags: /Ogsp
; File c:\program files (x86)\microsoft visual studio 10.0\vc\include\xtree
;	COMDAT ?max_size@?$_Tree@V?$_Tmap_traits@VioHashString@@PAVioBuff@@U?$less@VioHashString@@@std@@V?$allocator@U?$pair@$$CBVioHashString@@PAVioBuff@@@std@@@4@$0A@@std@@@std@@QBEIXZ
_TEXT	SEGMENT
?max_size@?$_Tree@V?$_Tmap_traits@VioHashString@@PAVioBuff@@U?$less@VioHashString@@@std@@V?$allocator@U?$pair@$$CBVioHashString@@PAVioBuff@@@std@@@4@$0A@@std@@@std@@QBEIXZ PROC ; std::_Tree<std::_Tmap_traits<ioHashString,ioBuff *,std::less<ioHashString>,std::allocator<std::pair<ioHashString const ,ioBuff *> >,0> >::max_size, COMDAT
; _this$ = ecx

; 874  : 		return (this->_Alval.max_size());

  00000	b8 cc cc cc 0c	 mov	 eax, 214748364		; 0cccccccH

; 875  : 		}

  00005	c3		 ret	 0
?max_size@?$_Tree@V?$_Tmap_traits@VioHashString@@PAVioBuff@@U?$less@VioHashString@@@std@@V?$allocator@U?$pair@$$CBVioHashString@@PAVioBuff@@@std@@@4@$0A@@std@@@std@@QBEIXZ ENDP ; std::_Tree<std::_Tmap_traits<ioHashString,ioBuff *,std::less<ioHashString>,std::allocator<std::pair<ioHashString const ,ioBuff *> >,0> >::max_size
_TEXT	ENDS
PUBLIC	??F?$_Tree_const_iterator@V?$_Tree_val@V?$_Tmap_traits@VioHashString@@PAVioBuff@@U?$less@VioHashString@@@std@@V?$allocator@U?$pair@$$CBVioHashString@@PAVioBuff@@@std@@@4@$0A@@std@@@std@@@std@@QAEAAV01@XZ ; std::_Tree_const_iterator<std::_Tree_val<std::_Tmap_traits<ioHashString,ioBuff *,std::less<ioHashString>,std::allocator<std::pair<ioHashString const ,ioBuff *> >,0> > >::operator--
; Function compile flags: /Ogsp
;	COMDAT ??F?$_Tree_const_iterator@V?$_Tree_val@V?$_Tmap_traits@VioHashString@@PAVioBuff@@U?$less@VioHashString@@@std@@V?$allocator@U?$pair@$$CBVioHashString@@PAVioBuff@@@std@@@4@$0A@@std@@@std@@@std@@QAEAAV01@XZ
_TEXT	SEGMENT
??F?$_Tree_const_iterator@V?$_Tree_val@V?$_Tmap_traits@VioHashString@@PAVioBuff@@U?$less@VioHashString@@@std@@V?$allocator@U?$pair@$$CBVioHashString@@PAVioBuff@@@std@@@4@$0A@@std@@@std@@@std@@QAEAAV01@XZ PROC ; std::_Tree_const_iterator<std::_Tree_val<std::_Tmap_traits<ioHashString,ioBuff *,std::less<ioHashString>,std::allocator<std::pair<ioHashString const ,ioBuff *> >,0> > >::operator--, COMDAT
; _this$ = ecx

; 277  : 		{	// predecrement

  00000	56		 push	 esi
  00001	8b f1		 mov	 esi, ecx

; 278  :  #if _ITERATOR_DEBUG_LEVEL == 2
; 279  : 		if (this->_Getcont() == 0
; 280  : 			|| this->_Ptr == 0)
; 281  : 			{	// report error
; 282  : 			_DEBUG_ERROR("map/set iterator not decrementable");
; 283  : 			_SCL_SECURE_OUT_OF_RANGE;
; 284  : 			}
; 285  : 
; 286  : 		_Nodeptr _Ptrsav = this->_Ptr;
; 287  : 		--(*(_Mybase *)this);
; 288  : 		if (_Ptrsav == this->_Ptr)
; 289  : 			{	// report error
; 290  : 			_DEBUG_ERROR("map/set iterator not decrementable");
; 291  : 			_SCL_SECURE_OUT_OF_RANGE;
; 292  : 			}
; 293  : 
; 294  :  #elif _ITERATOR_DEBUG_LEVEL == 1
; 295  : 		_SCL_SECURE_VALIDATE(this->_Getcont() != 0 && this->_Ptr != 0);
; 296  : 
; 297  : 		_Nodeptr _Ptrsav = this->_Ptr;
; 298  : 		--(*(_Mybase *)this);
; 299  : 		_SCL_SECURE_VALIDATE(_Ptrsav != this->_Ptr);
; 300  : 
; 301  :  #else /* _ITERATOR_DEBUG_LEVEL == 0 */
; 302  : 		--(*(_Mybase *)this);

  00003	e8 00 00 00 00	 call	 ??F?$_Tree_unchecked_const_iterator@V?$_Tree_val@V?$_Tmap_traits@VioHashString@@PAVioBuff@@U?$less@VioHashString@@@std@@V?$allocator@U?$pair@$$CBVioHashString@@PAVioBuff@@@std@@@4@$0A@@std@@@std@@U_Iterator_base0@2@@std@@QAEAAV01@XZ ; std::_Tree_unchecked_const_iterator<std::_Tree_val<std::_Tmap_traits<ioHashString,ioBuff *,std::less<ioHashString>,std::allocator<std::pair<ioHashString const ,ioBuff *> >,0> >,std::_Iterator_base0>::operator--

; 303  :  #endif /* _ITERATOR_DEBUG_LEVEL */
; 304  : 
; 305  : 		return (*this);

  00008	8b c6		 mov	 eax, esi
  0000a	5e		 pop	 esi

; 306  : 		}

  0000b	c3		 ret	 0
??F?$_Tree_const_iterator@V?$_Tree_val@V?$_Tmap_traits@VioHashString@@PAVioBuff@@U?$less@VioHashString@@@std@@V?$allocator@U?$pair@$$CBVioHashString@@PAVioBuff@@@std@@@4@$0A@@std@@@std@@@std@@QAEAAV01@XZ ENDP ; std::_Tree_const_iterator<std::_Tree_val<std::_Tmap_traits<ioHashString,ioBuff *,std::less<ioHashString>,std::allocator<std::pair<ioHashString const ,ioBuff *> >,0> > >::operator--
_TEXT	ENDS
PUBLIC	??0?$_Pair_base@V?$_Tree_iterator@V?$_Tree_val@V?$_Tmap_traits@VioHashString@@PAVioBuff@@U?$less@VioHashString@@@std@@V?$allocator@U?$pair@$$CBVioHashString@@PAVioBuff@@@std@@@4@$0A@@std@@@std@@@std@@_N@std@@QAE@$$QAV?$_Tree_iterator@V?$_Tree_val@V?$_Tmap_traits@VioHashString@@PAVioBuff@@U?$less@VioHashString@@@std@@V?$allocator@U?$pair@$$CBVioHashString@@PAVioBuff@@@std@@@4@$0A@@std@@@std@@@1@$$QA_N@Z ; std::_Pair_base<std::_Tree_iterator<std::_Tree_val<std::_Tmap_traits<ioHashString,ioBuff *,std::less<ioHashString>,std::allocator<std::pair<ioHashString const ,ioBuff *> >,0> > >,bool>::_Pair_base<std::_Tree_iterator<std::_Tree_val<std::_Tmap_traits<ioHashString,ioBuff *,std::less<ioHashString>,std::allocator<std::pair<ioHashString const ,ioBuff *> >,0> > >,bool>
; Function compile flags: /Ogsp
; File c:\program files (x86)\microsoft visual studio 10.0\vc\include\utility
;	COMDAT ??0?$_Pair_base@V?$_Tree_iterator@V?$_Tree_val@V?$_Tmap_traits@VioHashString@@PAVioBuff@@U?$less@VioHashString@@@std@@V?$allocator@U?$pair@$$CBVioHashString@@PAVioBuff@@@std@@@4@$0A@@std@@@std@@@std@@_N@std@@QAE@$$QAV?$_Tree_iterator@V?$_Tree_val@V?$_Tmap_traits@VioHashString@@PAVioBuff@@U?$less@VioHashString@@@std@@V?$allocator@U?$pair@$$CBVioHashString@@PAVioBuff@@@std@@@4@$0A@@std@@@std@@@1@$$QA_N@Z
_TEXT	SEGMENT
__Val1$ = 8						; size = 4
__Val2$ = 12						; size = 4
??0?$_Pair_base@V?$_Tree_iterator@V?$_Tree_val@V?$_Tmap_traits@VioHashString@@PAVioBuff@@U?$less@VioHashString@@@std@@V?$allocator@U?$pair@$$CBVioHashString@@PAVioBuff@@@std@@@4@$0A@@std@@@std@@@std@@_N@std@@QAE@$$QAV?$_Tree_iterator@V?$_Tree_val@V?$_Tmap_traits@VioHashString@@PAVioBuff@@U?$less@VioHashString@@@std@@V?$allocator@U?$pair@$$CBVioHashString@@PAVioBuff@@@std@@@4@$0A@@std@@@std@@@1@$$QA_N@Z PROC ; std::_Pair_base<std::_Tree_iterator<std::_Tree_val<std::_Tmap_traits<ioHashString,ioBuff *,std::less<ioHashString>,std::allocator<std::pair<ioHashString const ,ioBuff *> >,0> > >,bool>::_Pair_base<std::_Tree_iterator<std::_Tree_val<std::_Tmap_traits<ioHashString,ioBuff *,std::less<ioHashString>,std::allocator<std::pair<ioHashString const ,ioBuff *> >,0> > >,bool>, COMDAT
; _this$ = ecx

; 145  : 		{	// construct from specified values

  00000	55		 push	 ebp
  00001	8b ec		 mov	 ebp, esp
  00003	8b c1		 mov	 eax, ecx
  00005	8b 4d 08	 mov	 ecx, DWORD PTR __Val1$[ebp]
  00008	8b 09		 mov	 ecx, DWORD PTR [ecx]
  0000a	89 08		 mov	 DWORD PTR [eax], ecx
  0000c	8b 4d 0c	 mov	 ecx, DWORD PTR __Val2$[ebp]
  0000f	8a 09		 mov	 cl, BYTE PTR [ecx]
  00011	88 48 04	 mov	 BYTE PTR [eax+4], cl

; 146  : 		}

  00014	5d		 pop	 ebp
  00015	c2 08 00	 ret	 8
??0?$_Pair_base@V?$_Tree_iterator@V?$_Tree_val@V?$_Tmap_traits@VioHashString@@PAVioBuff@@U?$less@VioHashString@@@std@@V?$allocator@U?$pair@$$CBVioHashString@@PAVioBuff@@@std@@@4@$0A@@std@@@std@@@std@@_N@std@@QAE@$$QAV?$_Tree_iterator@V?$_Tree_val@V?$_Tmap_traits@VioHashString@@PAVioBuff@@U?$less@VioHashString@@@std@@V?$allocator@U?$pair@$$CBVioHashString@@PAVioBuff@@@std@@@4@$0A@@std@@@std@@@1@$$QA_N@Z ENDP ; std::_Pair_base<std::_Tree_iterator<std::_Tree_val<std::_Tmap_traits<ioHashString,ioBuff *,std::less<ioHashString>,std::allocator<std::pair<ioHashString const ,ioBuff *> >,0> > >,bool>::_Pair_base<std::_Tree_iterator<std::_Tree_val<std::_Tmap_traits<ioHashString,ioBuff *,std::less<ioHashString>,std::allocator<std::pair<ioHashString const ,ioBuff *> >,0> > >,bool>
_TEXT	ENDS
PUBLIC	??$?0ABVioHashString@@AAPAVioBuff@@@?$_Pair_base@$$CBVioHashString@@PAVioBuff@@@std@@QAE@ABVioHashString@@AAPAVioBuff@@@Z ; std::_Pair_base<ioHashString const ,ioBuff *>::_Pair_base<ioHashString const ,ioBuff *><ioHashString const &,ioBuff * &>
EXTRN	__imp_??0ioHashString@@QAE@ABV0@@Z:PROC
; Function compile flags: /Ogsp
;	COMDAT ??$?0ABVioHashString@@AAPAVioBuff@@@?$_Pair_base@$$CBVioHashString@@PAVioBuff@@@std@@QAE@ABVioHashString@@AAPAVioBuff@@@Z
_TEXT	SEGMENT
__Val1$ = 8						; size = 4
__Val2$ = 12						; size = 4
??$?0ABVioHashString@@AAPAVioBuff@@@?$_Pair_base@$$CBVioHashString@@PAVioBuff@@@std@@QAE@ABVioHashString@@AAPAVioBuff@@@Z PROC ; std::_Pair_base<ioHashString const ,ioBuff *>::_Pair_base<ioHashString const ,ioBuff *><ioHashString const &,ioBuff * &>, COMDAT
; _this$ = ecx

; 163  : 		{	// construct from moved values

  00000	55		 push	 ebp
  00001	8b ec		 mov	 ebp, esp
  00003	56		 push	 esi
  00004	ff 75 08	 push	 DWORD PTR __Val1$[ebp]
  00007	8b f1		 mov	 esi, ecx
  00009	ff 15 00 00 00
	00		 call	 DWORD PTR __imp_??0ioHashString@@QAE@ABV0@@Z
  0000f	8b 45 0c	 mov	 eax, DWORD PTR __Val2$[ebp]
  00012	8b 00		 mov	 eax, DWORD PTR [eax]
  00014	89 46 10	 mov	 DWORD PTR [esi+16], eax

; 164  : 		}

  00017	8b c6		 mov	 eax, esi
  00019	5e		 pop	 esi
  0001a	5d		 pop	 ebp
  0001b	c2 08 00	 ret	 8
??$?0ABVioHashString@@AAPAVioBuff@@@?$_Pair_base@$$CBVioHashString@@PAVioBuff@@@std@@QAE@ABVioHashString@@AAPAVioBuff@@@Z ENDP ; std::_Pair_base<ioHashString const ,ioBuff *>::_Pair_base<ioHashString const ,ioBuff *><ioHashString const &,ioBuff * &>
_TEXT	ENDS
PUBLIC	??_G?$pair@$$CBVioHashString@@PAVioBuff@@@std@@QAEPAXI@Z ; std::pair<ioHashString const ,ioBuff *>::`scalar deleting destructor'
; Function compile flags: /Ogsp
;	COMDAT ??_G?$pair@$$CBVioHashString@@PAVioBuff@@@std@@QAEPAXI@Z
_TEXT	SEGMENT
___flags$ = 8						; size = 4
??_G?$pair@$$CBVioHashString@@PAVioBuff@@@std@@QAEPAXI@Z PROC ; std::pair<ioHashString const ,ioBuff *>::`scalar deleting destructor', COMDAT
; _this$ = ecx
  00000	55		 push	 ebp
  00001	8b ec		 mov	 ebp, esp
  00003	56		 push	 esi
  00004	8b f1		 mov	 esi, ecx
  00006	ff 15 00 00 00
	00		 call	 DWORD PTR __imp_??1ioHashString@@QAE@XZ
  0000c	f6 45 08 01	 test	 BYTE PTR ___flags$[ebp], 1
  00010	74 07		 je	 SHORT $LN1@scalar@2
  00012	56		 push	 esi
  00013	e8 00 00 00 00	 call	 ??3@YAXPAX@Z		; operator delete
  00018	59		 pop	 ecx
$LN1@scalar@2:
  00019	8b c6		 mov	 eax, esi
  0001b	5e		 pop	 esi
  0001c	5d		 pop	 ebp
  0001d	c2 04 00	 ret	 4
??_G?$pair@$$CBVioHashString@@PAVioBuff@@@std@@QAEPAXI@Z ENDP ; std::pair<ioHashString const ,ioBuff *>::`scalar deleting destructor'
_TEXT	ENDS
PUBLIC	?_Buynode@?$_Tree_val@V?$_Tmap_traits@VioHashString@@PAVioBuff@@U?$less@VioHashString@@@std@@V?$allocator@U?$pair@$$CBVioHashString@@PAVioBuff@@@std@@@4@$0A@@std@@@std@@QAEPAU_Node@?$_Tree_nod@V?$_Tmap_traits@VioHashString@@PAVioBuff@@U?$less@VioHashString@@@std@@V?$allocator@U?$pair@$$CBVioHashString@@PAVioBuff@@@std@@@4@$0A@@std@@@2@XZ ; std::_Tree_val<std::_Tmap_traits<ioHashString,ioBuff *,std::less<ioHashString>,std::allocator<std::pair<ioHashString const ,ioBuff *> >,0> >::_Buynode
; Function compile flags: /Ogsp
; File c:\program files (x86)\microsoft visual studio 10.0\vc\include\xtree
;	COMDAT ?_Buynode@?$_Tree_val@V?$_Tmap_traits@VioHashString@@PAVioBuff@@U?$less@VioHashString@@@std@@V?$allocator@U?$pair@$$CBVioHashString@@PAVioBuff@@@std@@@4@$0A@@std@@@std@@QAEPAU_Node@?$_Tree_nod@V?$_Tmap_traits@VioHashString@@PAVioBuff@@U?$less@VioHashString@@@std@@V?$allocator@U?$pair@$$CBVioHashString@@PAVioBuff@@@std@@@4@$0A@@std@@@2@XZ
_TEXT	SEGMENT
$T531212 = -16						; size = 12
$T531189 = -4						; size = 4
?_Buynode@?$_Tree_val@V?$_Tmap_traits@VioHashString@@PAVioBuff@@U?$less@VioHashString@@@std@@V?$allocator@U?$pair@$$CBVioHashString@@PAVioBuff@@@std@@@4@$0A@@std@@@std@@QAEPAU_Node@?$_Tree_nod@V?$_Tmap_traits@VioHashString@@PAVioBuff@@U?$less@VioHashString@@@std@@V?$allocator@U?$pair@$$CBVioHashString@@PAVioBuff@@@std@@@4@$0A@@std@@@2@XZ PROC ; std::_Tree_val<std::_Tmap_traits<ioHashString,ioBuff *,std::less<ioHashString>,std::allocator<std::pair<ioHashString const ,ioBuff *> >,0> >::_Buynode, COMDAT
; _this$ = ecx

; 559  : 		{	// allocate a node

  00000	55		 push	 ebp
  00001	8b ec		 mov	 ebp, esp
  00003	83 ec 10	 sub	 esp, 16			; 00000010H
  00006	56		 push	 esi

; 560  : 		_Nodeptr _Wherenode = this->_Alnod.allocate(1);

  00007	6a 24		 push	 36			; 00000024H
  00009	8b f1		 mov	 esi, ecx
  0000b	e8 00 00 00 00	 call	 ??2@YAPAXI@Z		; operator new
  00010	59		 pop	 ecx
  00011	33 c9		 xor	 ecx, ecx
  00013	3b c1		 cmp	 eax, ecx
  00015	74 18		 je	 SHORT $LN5@Buynode

; 561  : 
; 562  : 		this->_Left(_Wherenode) = this->_Myhead;

  00017	8b 56 04	 mov	 edx, DWORD PTR [esi+4]
  0001a	89 10		 mov	 DWORD PTR [eax], edx

; 563  : 		this->_Parent(_Wherenode) = this->_Myhead;

  0001c	8b 56 04	 mov	 edx, DWORD PTR [esi+4]
  0001f	89 50 04	 mov	 DWORD PTR [eax+4], edx

; 564  : 		this->_Right(_Wherenode) = this->_Myhead;

  00022	8b 56 04	 mov	 edx, DWORD PTR [esi+4]
  00025	89 50 08	 mov	 DWORD PTR [eax+8], edx

; 565  : 		this->_Color(_Wherenode) = this->_Red;

  00028	66 89 48 20	 mov	 WORD PTR [eax+32], cx
  0002c	5e		 pop	 esi

; 566  : 		this->_Isnil(_Wherenode) = false;
; 567  : 		return (_Wherenode);
; 568  : 		}

  0002d	c9		 leave
  0002e	c3		 ret	 0

; 560  : 		_Nodeptr _Wherenode = this->_Alnod.allocate(1);

$LN5@Buynode:
  0002f	8d 45 fc	 lea	 eax, DWORD PTR $T531189[ebp]
  00032	89 4d fc	 mov	 DWORD PTR $T531189[ebp], ecx
  00035	50		 push	 eax
  00036	8d 4d f0	 lea	 ecx, DWORD PTR $T531212[ebp]
  00039	ff 15 00 00 00
	00		 call	 DWORD PTR __imp_??0exception@std@@QAE@ABQBD@Z
  0003f	68 00 00 00 00	 push	 OFFSET __TI2?AVbad_alloc@std@@
  00044	8d 45 f0	 lea	 eax, DWORD PTR $T531212[ebp]
  00047	50		 push	 eax
  00048	c7 45 f0 00 00
	00 00		 mov	 DWORD PTR $T531212[ebp], OFFSET ??_7bad_alloc@std@@6B@
  0004f	e8 00 00 00 00	 call	 __CxxThrowException@8
$LN27@Buynode:
$LN26@Buynode:
  00054	cc		 int	 3
?_Buynode@?$_Tree_val@V?$_Tmap_traits@VioHashString@@PAVioBuff@@U?$less@VioHashString@@@std@@V?$allocator@U?$pair@$$CBVioHashString@@PAVioBuff@@@std@@@4@$0A@@std@@@std@@QAEPAU_Node@?$_Tree_nod@V?$_Tmap_traits@VioHashString@@PAVioBuff@@U?$less@VioHashString@@@std@@V?$allocator@U?$pair@$$CBVioHashString@@PAVioBuff@@@std@@@4@$0A@@std@@@2@XZ ENDP ; std::_Tree_val<std::_Tmap_traits<ioHashString,ioBuff *,std::less<ioHashString>,std::allocator<std::pair<ioHashString const ,ioBuff *> >,0> >::_Buynode
_TEXT	ENDS
PUBLIC	??$?0AAV?$_Tree_iterator@V?$_Tree_val@V?$_Tmap_traits@VioHashString@@PAVioBuff@@U?$less@VioHashString@@@std@@V?$allocator@U?$pair@$$CBVioHashString@@PAVioBuff@@@std@@@4@$0A@@std@@@std@@@std@@_N@?$_Pair_base@V?$_Tree_iterator@V?$_Tree_val@V?$_Tmap_traits@VioHashString@@PAVioBuff@@U?$less@VioHashString@@@std@@V?$allocator@U?$pair@$$CBVioHashString@@PAVioBuff@@@std@@@4@$0A@@std@@@std@@@std@@_N@std@@QAE@AAV?$_Tree_iterator@V?$_Tree_val@V?$_Tmap_traits@VioHashString@@PAVioBuff@@U?$less@VioHashString@@@std@@V?$allocator@U?$pair@$$CBVioHashString@@PAVioBuff@@@std@@@4@$0A@@std@@@std@@@1@$$QA_N@Z ; std::_Pair_base<std::_Tree_iterator<std::_Tree_val<std::_Tmap_traits<ioHashString,ioBuff *,std::less<ioHashString>,std::allocator<std::pair<ioHashString const ,ioBuff *> >,0> > >,bool>::_Pair_base<std::_Tree_iterator<std::_Tree_val<std::_Tmap_traits<ioHashString,ioBuff *,std::less<ioHashString>,std::allocator<std::pair<ioHashString const ,ioBuff *> >,0> > >,bool><std::_Tree_iterator<std::_Tree_val<std::_Tmap_traits<ioHashString,ioBuff *,std::less<ioHashString>,std::allocator<std::pair<ioHashString const ,ioBuff *> >,0> > > &,bool>
; Function compile flags: /Ogsp
; File c:\program files (x86)\microsoft visual studio 10.0\vc\include\utility
;	COMDAT ??$?0AAV?$_Tree_iterator@V?$_Tree_val@V?$_Tmap_traits@VioHashString@@PAVioBuff@@U?$less@VioHashString@@@std@@V?$allocator@U?$pair@$$CBVioHashString@@PAVioBuff@@@std@@@4@$0A@@std@@@std@@@std@@_N@?$_Pair_base@V?$_Tree_iterator@V?$_Tree_val@V?$_Tmap_traits@VioHashString@@PAVioBuff@@U?$less@VioHashString@@@std@@V?$allocator@U?$pair@$$CBVioHashString@@PAVioBuff@@@std@@@4@$0A@@std@@@std@@@std@@_N@std@@QAE@AAV?$_Tree_iterator@V?$_Tree_val@V?$_Tmap_traits@VioHashString@@PAVioBuff@@U?$less@VioHashString@@@std@@V?$allocator@U?$pair@$$CBVioHashString@@PAVioBuff@@@std@@@4@$0A@@std@@@std@@@1@$$QA_N@Z
_TEXT	SEGMENT
__Val1$ = 8						; size = 4
__Val2$ = 12						; size = 4
??$?0AAV?$_Tree_iterator@V?$_Tree_val@V?$_Tmap_traits@VioHashString@@PAVioBuff@@U?$less@VioHashString@@@std@@V?$allocator@U?$pair@$$CBVioHashString@@PAVioBuff@@@std@@@4@$0A@@std@@@std@@@std@@_N@?$_Pair_base@V?$_Tree_iterator@V?$_Tree_val@V?$_Tmap_traits@VioHashString@@PAVioBuff@@U?$less@VioHashString@@@std@@V?$allocator@U?$pair@$$CBVioHashString@@PAVioBuff@@@std@@@4@$0A@@std@@@std@@@std@@_N@std@@QAE@AAV?$_Tree_iterator@V?$_Tree_val@V?$_Tmap_traits@VioHashString@@PAVioBuff@@U?$less@VioHashString@@@std@@V?$allocator@U?$pair@$$CBVioHashString@@PAVioBuff@@@std@@@4@$0A@@std@@@std@@@1@$$QA_N@Z PROC ; std::_Pair_base<std::_Tree_iterator<std::_Tree_val<std::_Tmap_traits<ioHashString,ioBuff *,std::less<ioHashString>,std::allocator<std::pair<ioHashString const ,ioBuff *> >,0> > >,bool>::_Pair_base<std::_Tree_iterator<std::_Tree_val<std::_Tmap_traits<ioHashString,ioBuff *,std::less<ioHashString>,std::allocator<std::pair<ioHashString const ,ioBuff *> >,0> > >,bool><std::_Tree_iterator<std::_Tree_val<std::_Tmap_traits<ioHashString,ioBuff *,std::less<ioHashString>,std::allocator<std::pair<ioHashString const ,ioBuff *> >,0> > > &,bool>, COMDAT
; _this$ = ecx

; 163  : 		{	// construct from moved values

  00000	55		 push	 ebp
  00001	8b ec		 mov	 ebp, esp
  00003	8b c1		 mov	 eax, ecx
  00005	8b 4d 08	 mov	 ecx, DWORD PTR __Val1$[ebp]
  00008	8b 09		 mov	 ecx, DWORD PTR [ecx]
  0000a	89 08		 mov	 DWORD PTR [eax], ecx
  0000c	8b 4d 0c	 mov	 ecx, DWORD PTR __Val2$[ebp]
  0000f	8a 09		 mov	 cl, BYTE PTR [ecx]
  00011	88 48 04	 mov	 BYTE PTR [eax+4], cl

; 164  : 		}

  00014	5d		 pop	 ebp
  00015	c2 08 00	 ret	 8
??$?0AAV?$_Tree_iterator@V?$_Tree_val@V?$_Tmap_traits@VioHashString@@PAVioBuff@@U?$less@VioHashString@@@std@@V?$allocator@U?$pair@$$CBVioHashString@@PAVioBuff@@@std@@@4@$0A@@std@@@std@@@std@@_N@?$_Pair_base@V?$_Tree_iterator@V?$_Tree_val@V?$_Tmap_traits@VioHashString@@PAVioBuff@@U?$less@VioHashString@@@std@@V?$allocator@U?$pair@$$CBVioHashString@@PAVioBuff@@@std@@@4@$0A@@std@@@std@@@std@@_N@std@@QAE@AAV?$_Tree_iterator@V?$_Tree_val@V?$_Tmap_traits@VioHashString@@PAVioBuff@@U?$less@VioHashString@@@std@@V?$allocator@U?$pair@$$CBVioHashString@@PAVioBuff@@@std@@@4@$0A@@std@@@std@@@1@$$QA_N@Z ENDP ; std::_Pair_base<std::_Tree_iterator<std::_Tree_val<std::_Tmap_traits<ioHashString,ioBuff *,std::less<ioHashString>,std::allocator<std::pair<ioHashString const ,ioBuff *> >,0> > >,bool>::_Pair_base<std::_Tree_iterator<std::_Tree_val<std::_Tmap_traits<ioHashString,ioBuff *,std::less<ioHashString>,std::allocator<std::pair<ioHashString const ,ioBuff *> >,0> > >,bool><std::_Tree_iterator<std::_Tree_val<std::_Tmap_traits<ioHashString,ioBuff *,std::less<ioHashString>,std::allocator<std::pair<ioHashString const ,ioBuff *> >,0> > > &,bool>
_TEXT	ENDS
PUBLIC	??0?$_Pair_base@$$CBVioHashString@@PAVioBuff@@@std@@QAE@$$QBVioHashString@@$$QAPAVioBuff@@@Z ; std::_Pair_base<ioHashString const ,ioBuff *>::_Pair_base<ioHashString const ,ioBuff *>
; Function compile flags: /Ogsp
;	COMDAT ??0?$_Pair_base@$$CBVioHashString@@PAVioBuff@@@std@@QAE@$$QBVioHashString@@$$QAPAVioBuff@@@Z
_TEXT	SEGMENT
__Val1$ = 8						; size = 4
__Val2$ = 12						; size = 4
??0?$_Pair_base@$$CBVioHashString@@PAVioBuff@@@std@@QAE@$$QBVioHashString@@$$QAPAVioBuff@@@Z PROC ; std::_Pair_base<ioHashString const ,ioBuff *>::_Pair_base<ioHashString const ,ioBuff *>, COMDAT
; _this$ = ecx

; 145  : 		{	// construct from specified values

  00000	55		 push	 ebp
  00001	8b ec		 mov	 ebp, esp
  00003	56		 push	 esi
  00004	ff 75 08	 push	 DWORD PTR __Val1$[ebp]
  00007	8b f1		 mov	 esi, ecx
  00009	ff 15 00 00 00
	00		 call	 DWORD PTR __imp_??0ioHashString@@QAE@ABV0@@Z
  0000f	8b 45 0c	 mov	 eax, DWORD PTR __Val2$[ebp]
  00012	8b 00		 mov	 eax, DWORD PTR [eax]
  00014	89 46 10	 mov	 DWORD PTR [esi+16], eax

; 146  : 		}

  00017	8b c6		 mov	 eax, esi
  00019	5e		 pop	 esi
  0001a	5d		 pop	 ebp
  0001b	c2 08 00	 ret	 8
??0?$_Pair_base@$$CBVioHashString@@PAVioBuff@@@std@@QAE@$$QBVioHashString@@$$QAPAVioBuff@@@Z ENDP ; std::_Pair_base<ioHashString const ,ioBuff *>::_Pair_base<ioHashString const ,ioBuff *>
_TEXT	ENDS
PUBLIC	??$swap@D@std@@YAXAAD0@Z			; std::swap<char>
; Function compile flags: /Ogsp
;	COMDAT ??$swap@D@std@@YAXAAD0@Z
_TEXT	SEGMENT
__Left$ = 8						; size = 4
__Right$ = 12						; size = 4
??$swap@D@std@@YAXAAD0@Z PROC				; std::swap<char>, COMDAT

; 101  : 	{	// exchange values stored at _Left and _Right

  00000	55		 push	 ebp
  00001	8b ec		 mov	 ebp, esp

; 102  : 	_Ty _Tmp = _Move(_Left);

  00003	8b 45 08	 mov	 eax, DWORD PTR __Left$[ebp]
  00006	8a 08		 mov	 cl, BYTE PTR [eax]
  00008	56		 push	 esi

; 103  : 	_Left = _Move(_Right);

  00009	8b 75 0c	 mov	 esi, DWORD PTR __Right$[ebp]
  0000c	8a 16		 mov	 dl, BYTE PTR [esi]
  0000e	88 10		 mov	 BYTE PTR [eax], dl

; 104  : 	_Right = _Move(_Tmp);

  00010	88 0e		 mov	 BYTE PTR [esi], cl
  00012	5e		 pop	 esi

; 105  : 	}

  00013	5d		 pop	 ebp
  00014	c3		 ret	 0
??$swap@D@std@@YAXAAD0@Z ENDP				; std::swap<char>
_TEXT	ENDS
PUBLIC	?end@?$_Tree@V?$_Tmap_traits@VioHashString@@PAVioBuff@@U?$less@VioHashString@@@std@@V?$allocator@U?$pair@$$CBVioHashString@@PAVioBuff@@@std@@@4@$0A@@std@@@std@@QBE?AV?$_Tree_const_iterator@V?$_Tree_val@V?$_Tmap_traits@VioHashString@@PAVioBuff@@U?$less@VioHashString@@@std@@V?$allocator@U?$pair@$$CBVioHashString@@PAVioBuff@@@std@@@4@$0A@@std@@@std@@@2@XZ ; std::_Tree<std::_Tmap_traits<ioHashString,ioBuff *,std::less<ioHashString>,std::allocator<std::pair<ioHashString const ,ioBuff *> >,0> >::end
; Function compile flags: /Ogsp
; File c:\program files (x86)\microsoft visual studio 10.0\vc\include\xtree
;	COMDAT ?end@?$_Tree@V?$_Tmap_traits@VioHashString@@PAVioBuff@@U?$less@VioHashString@@@std@@V?$allocator@U?$pair@$$CBVioHashString@@PAVioBuff@@@std@@@4@$0A@@std@@@std@@QBE?AV?$_Tree_const_iterator@V?$_Tree_val@V?$_Tmap_traits@VioHashString@@PAVioBuff@@U?$less@VioHashString@@@std@@V?$allocator@U?$pair@$$CBVioHashString@@PAVioBuff@@@std@@@4@$0A@@std@@@std@@@2@XZ
_TEXT	SEGMENT
___$ReturnUdt$ = 8					; size = 4
?end@?$_Tree@V?$_Tmap_traits@VioHashString@@PAVioBuff@@U?$less@VioHashString@@@std@@V?$allocator@U?$pair@$$CBVioHashString@@PAVioBuff@@@std@@@4@$0A@@std@@@std@@QBE?AV?$_Tree_const_iterator@V?$_Tree_val@V?$_Tmap_traits@VioHashString@@PAVioBuff@@U?$less@VioHashString@@@std@@V?$allocator@U?$pair@$$CBVioHashString@@PAVioBuff@@@std@@@4@$0A@@std@@@std@@@2@XZ PROC ; std::_Tree<std::_Tmap_traits<ioHashString,ioBuff *,std::less<ioHashString>,std::allocator<std::pair<ioHashString const ,ioBuff *> >,0> >::end, COMDAT
; _this$ = ecx

; 821  : 		{	// return iterator for end of nonmutable sequence

  00000	55		 push	 ebp
  00001	8b ec		 mov	 ebp, esp

; 822  : 		return (const_iterator(this->_Myhead, this));

  00003	8b 49 04	 mov	 ecx, DWORD PTR [ecx+4]
  00006	8b 45 08	 mov	 eax, DWORD PTR ___$ReturnUdt$[ebp]
  00009	89 08		 mov	 DWORD PTR [eax], ecx

; 823  : 		}

  0000b	5d		 pop	 ebp
  0000c	c2 04 00	 ret	 4
?end@?$_Tree@V?$_Tmap_traits@VioHashString@@PAVioBuff@@U?$less@VioHashString@@@std@@V?$allocator@U?$pair@$$CBVioHashString@@PAVioBuff@@@std@@@4@$0A@@std@@@std@@QBE?AV?$_Tree_const_iterator@V?$_Tree_val@V?$_Tmap_traits@VioHashString@@PAVioBuff@@U?$less@VioHashString@@@std@@V?$allocator@U?$pair@$$CBVioHashString@@PAVioBuff@@@std@@@4@$0A@@std@@@std@@@2@XZ ENDP ; std::_Tree<std::_Tmap_traits<ioHashString,ioBuff *,std::less<ioHashString>,std::allocator<std::pair<ioHashString const ,ioBuff *> >,0> >::end
_TEXT	ENDS
PUBLIC	??0?$_Tree_iterator@V?$_Tree_val@V?$_Tmap_traits@VioHashString@@PAVioBuff@@U?$less@VioHashString@@@std@@V?$allocator@U?$pair@$$CBVioHashString@@PAVioBuff@@@std@@@4@$0A@@std@@@std@@@std@@QAE@XZ ; std::_Tree_iterator<std::_Tree_val<std::_Tmap_traits<ioHashString,ioBuff *,std::less<ioHashString>,std::allocator<std::pair<ioHashString const ,ioBuff *> >,0> > >::_Tree_iterator<std::_Tree_val<std::_Tmap_traits<ioHashString,ioBuff *,std::less<ioHashString>,std::allocator<std::pair<ioHashString const ,ioBuff *> >,0> > >
; Function compile flags: /Ogsp
;	COMDAT ??0?$_Tree_iterator@V?$_Tree_val@V?$_Tmap_traits@VioHashString@@PAVioBuff@@U?$less@VioHashString@@@std@@V?$allocator@U?$pair@$$CBVioHashString@@PAVioBuff@@@std@@@4@$0A@@std@@@std@@@std@@QAE@XZ
_TEXT	SEGMENT
??0?$_Tree_iterator@V?$_Tree_val@V?$_Tmap_traits@VioHashString@@PAVioBuff@@U?$less@VioHashString@@@std@@V?$allocator@U?$pair@$$CBVioHashString@@PAVioBuff@@@std@@@4@$0A@@std@@@std@@@std@@QAE@XZ PROC ; std::_Tree_iterator<std::_Tree_val<std::_Tmap_traits<ioHashString,ioBuff *,std::less<ioHashString>,std::allocator<std::pair<ioHashString const ,ioBuff *> >,0> > >::_Tree_iterator<std::_Tree_val<std::_Tmap_traits<ioHashString,ioBuff *,std::less<ioHashString>,std::allocator<std::pair<ioHashString const ,ioBuff *> >,0> > >, COMDAT
; _this$ = ecx

; 372  : 	_Tree_iterator()

  00000	8b c1		 mov	 eax, ecx
  00002	83 20 00	 and	 DWORD PTR [eax], 0

; 373  : 		{	// construct with null node
; 374  : 		}

  00005	c3		 ret	 0
??0?$_Tree_iterator@V?$_Tree_val@V?$_Tmap_traits@VioHashString@@PAVioBuff@@U?$less@VioHashString@@@std@@V?$allocator@U?$pair@$$CBVioHashString@@PAVioBuff@@@std@@@4@$0A@@std@@@std@@@std@@QAE@XZ ENDP ; std::_Tree_iterator<std::_Tree_val<std::_Tmap_traits<ioHashString,ioBuff *,std::less<ioHashString>,std::allocator<std::pair<ioHashString const ,ioBuff *> >,0> > >::_Tree_iterator<std::_Tree_val<std::_Tmap_traits<ioHashString,ioBuff *,std::less<ioHashString>,std::allocator<std::pair<ioHashString const ,ioBuff *> >,0> > >
_TEXT	ENDS
PUBLIC	??C?$_Tree_iterator@V?$_Tree_val@V?$_Tmap_traits@VioHashString@@PAVioBuff@@U?$less@VioHashString@@@std@@V?$allocator@U?$pair@$$CBVioHashString@@PAVioBuff@@@std@@@4@$0A@@std@@@std@@@std@@QBEPAU?$pair@$$CBVioHashString@@PAVioBuff@@@1@XZ ; std::_Tree_iterator<std::_Tree_val<std::_Tmap_traits<ioHashString,ioBuff *,std::less<ioHashString>,std::allocator<std::pair<ioHashString const ,ioBuff *> >,0> > >::operator->
; Function compile flags: /Ogsp
;	COMDAT ??C?$_Tree_iterator@V?$_Tree_val@V?$_Tmap_traits@VioHashString@@PAVioBuff@@U?$less@VioHashString@@@std@@V?$allocator@U?$pair@$$CBVioHashString@@PAVioBuff@@@std@@@4@$0A@@std@@@std@@@std@@QBEPAU?$pair@$$CBVioHashString@@PAVioBuff@@@1@XZ
_TEXT	SEGMENT
??C?$_Tree_iterator@V?$_Tree_val@V?$_Tmap_traits@VioHashString@@PAVioBuff@@U?$less@VioHashString@@@std@@V?$allocator@U?$pair@$$CBVioHashString@@PAVioBuff@@@std@@@4@$0A@@std@@@std@@@std@@QBEPAU?$pair@$$CBVioHashString@@PAVioBuff@@@1@XZ PROC ; std::_Tree_iterator<std::_Tree_val<std::_Tmap_traits<ioHashString,ioBuff *,std::less<ioHashString>,std::allocator<std::pair<ioHashString const ,ioBuff *> >,0> > >::operator->, COMDAT
; _this$ = ecx

; 401  : 		return (&**this);

  00000	8b 01		 mov	 eax, DWORD PTR [ecx]
  00002	83 c0 0c	 add	 eax, 12			; 0000000cH

; 402  : 		}

  00005	c3		 ret	 0
??C?$_Tree_iterator@V?$_Tree_val@V?$_Tmap_traits@VioHashString@@PAVioBuff@@U?$less@VioHashString@@@std@@V?$allocator@U?$pair@$$CBVioHashString@@PAVioBuff@@@std@@@4@$0A@@std@@@std@@@std@@QBEPAU?$pair@$$CBVioHashString@@PAVioBuff@@@1@XZ ENDP ; std::_Tree_iterator<std::_Tree_val<std::_Tmap_traits<ioHashString,ioBuff *,std::less<ioHashString>,std::allocator<std::pair<ioHashString const ,ioBuff *> >,0> > >::operator->
_TEXT	ENDS
PUBLIC	??C?$_Tree_unchecked_const_iterator@V?$_Tree_val@V?$_Tmap_traits@VioHashString@@PAVioBuff@@U?$less@VioHashString@@@std@@V?$allocator@U?$pair@$$CBVioHashString@@PAVioBuff@@@std@@@4@$0A@@std@@@std@@U_Iterator_base0@2@@std@@QBEPBU?$pair@$$CBVioHashString@@PAVioBuff@@@1@XZ ; std::_Tree_unchecked_const_iterator<std::_Tree_val<std::_Tmap_traits<ioHashString,ioBuff *,std::less<ioHashString>,std::allocator<std::pair<ioHashString const ,ioBuff *> >,0> >,std::_Iterator_base0>::operator->
; Function compile flags: /Ogsp
;	COMDAT ??C?$_Tree_unchecked_const_iterator@V?$_Tree_val@V?$_Tmap_traits@VioHashString@@PAVioBuff@@U?$less@VioHashString@@@std@@V?$allocator@U?$pair@$$CBVioHashString@@PAVioBuff@@@std@@@4@$0A@@std@@@std@@U_Iterator_base0@2@@std@@QBEPBU?$pair@$$CBVioHashString@@PAVioBuff@@@1@XZ
_TEXT	SEGMENT
??C?$_Tree_unchecked_const_iterator@V?$_Tree_val@V?$_Tmap_traits@VioHashString@@PAVioBuff@@U?$less@VioHashString@@@std@@V?$allocator@U?$pair@$$CBVioHashString@@PAVioBuff@@@std@@@4@$0A@@std@@@std@@U_Iterator_base0@2@@std@@QBEPBU?$pair@$$CBVioHashString@@PAVioBuff@@@1@XZ PROC ; std::_Tree_unchecked_const_iterator<std::_Tree_val<std::_Tmap_traits<ioHashString,ioBuff *,std::less<ioHashString>,std::allocator<std::pair<ioHashString const ,ioBuff *> >,0> >,std::_Iterator_base0>::operator->, COMDAT
; _this$ = ecx

; 54   : 		return (&**this);

  00000	8b 01		 mov	 eax, DWORD PTR [ecx]
  00002	83 c0 0c	 add	 eax, 12			; 0000000cH

; 55   : 		}

  00005	c3		 ret	 0
??C?$_Tree_unchecked_const_iterator@V?$_Tree_val@V?$_Tmap_traits@VioHashString@@PAVioBuff@@U?$less@VioHashString@@@std@@V?$allocator@U?$pair@$$CBVioHashString@@PAVioBuff@@@std@@@4@$0A@@std@@@std@@U_Iterator_base0@2@@std@@QBEPBU?$pair@$$CBVioHashString@@PAVioBuff@@@1@XZ ENDP ; std::_Tree_unchecked_const_iterator<std::_Tree_val<std::_Tmap_traits<ioHashString,ioBuff *,std::less<ioHashString>,std::allocator<std::pair<ioHashString const ,ioBuff *> >,0> >,std::_Iterator_base0>::operator->
_TEXT	ENDS
PUBLIC	?lower_bound@?$_Tree@V?$_Tmap_traits@VioHashString@@PAVioBuff@@U?$less@VioHashString@@@std@@V?$allocator@U?$pair@$$CBVioHashString@@PAVioBuff@@@std@@@4@$0A@@std@@@std@@QBE?AV?$_Tree_const_iterator@V?$_Tree_val@V?$_Tmap_traits@VioHashString@@PAVioBuff@@U?$less@VioHashString@@@std@@V?$allocator@U?$pair@$$CBVioHashString@@PAVioBuff@@@std@@@4@$0A@@std@@@std@@@2@ABVioHashString@@@Z ; std::_Tree<std::_Tmap_traits<ioHashString,ioBuff *,std::less<ioHashString>,std::allocator<std::pair<ioHashString const ,ioBuff *> >,0> >::lower_bound
; Function compile flags: /Ogsp
;	COMDAT ?lower_bound@?$_Tree@V?$_Tmap_traits@VioHashString@@PAVioBuff@@U?$less@VioHashString@@@std@@V?$allocator@U?$pair@$$CBVioHashString@@PAVioBuff@@@std@@@4@$0A@@std@@@std@@QBE?AV?$_Tree_const_iterator@V?$_Tree_val@V?$_Tmap_traits@VioHashString@@PAVioBuff@@U?$less@VioHashString@@@std@@V?$allocator@U?$pair@$$CBVioHashString@@PAVioBuff@@@std@@@4@$0A@@std@@@std@@@2@ABVioHashString@@@Z
_TEXT	SEGMENT
___$ReturnUdt$ = 8					; size = 4
__Keyval$ = 12						; size = 4
?lower_bound@?$_Tree@V?$_Tmap_traits@VioHashString@@PAVioBuff@@U?$less@VioHashString@@@std@@V?$allocator@U?$pair@$$CBVioHashString@@PAVioBuff@@@std@@@4@$0A@@std@@@std@@QBE?AV?$_Tree_const_iterator@V?$_Tree_val@V?$_Tmap_traits@VioHashString@@PAVioBuff@@U?$less@VioHashString@@@std@@V?$allocator@U?$pair@$$CBVioHashString@@PAVioBuff@@@std@@@4@$0A@@std@@@std@@@2@ABVioHashString@@@Z PROC ; std::_Tree<std::_Tmap_traits<ioHashString,ioBuff *,std::less<ioHashString>,std::allocator<std::pair<ioHashString const ,ioBuff *> >,0> >::lower_bound, COMDAT
; _this$ = ecx

; 1454 : 		{	// find leftmost node not less than _Keyval in nonmutable tree

  00000	55		 push	 ebp
  00001	8b ec		 mov	 ebp, esp

; 1455 : 		return (const_iterator(_Lbound(_Keyval), this));

  00003	ff 75 0c	 push	 DWORD PTR __Keyval$[ebp]
  00006	e8 00 00 00 00	 call	 ?_Lbound@?$_Tree@V?$_Tmap_traits@VioHashString@@PAVioBuff@@U?$less@VioHashString@@@std@@V?$allocator@U?$pair@$$CBVioHashString@@PAVioBuff@@@std@@@4@$0A@@std@@@std@@IBEPAU_Node@?$_Tree_nod@V?$_Tmap_traits@VioHashString@@PAVioBuff@@U?$less@VioHashString@@@std@@V?$allocator@U?$pair@$$CBVioHashString@@PAVioBuff@@@std@@@4@$0A@@std@@@2@ABVioHashString@@@Z ; std::_Tree<std::_Tmap_traits<ioHashString,ioBuff *,std::less<ioHashString>,std::allocator<std::pair<ioHashString const ,ioBuff *> >,0> >::_Lbound
  0000b	8b 4d 08	 mov	 ecx, DWORD PTR ___$ReturnUdt$[ebp]
  0000e	89 01		 mov	 DWORD PTR [ecx], eax
  00010	8b c1		 mov	 eax, ecx

; 1456 : 		}

  00012	5d		 pop	 ebp
  00013	c2 08 00	 ret	 8
?lower_bound@?$_Tree@V?$_Tmap_traits@VioHashString@@PAVioBuff@@U?$less@VioHashString@@@std@@V?$allocator@U?$pair@$$CBVioHashString@@PAVioBuff@@@std@@@4@$0A@@std@@@std@@QBE?AV?$_Tree_const_iterator@V?$_Tree_val@V?$_Tmap_traits@VioHashString@@PAVioBuff@@U?$less@VioHashString@@@std@@V?$allocator@U?$pair@$$CBVioHashString@@PAVioBuff@@@std@@@4@$0A@@std@@@std@@@2@ABVioHashString@@@Z ENDP ; std::_Tree<std::_Tmap_traits<ioHashString,ioBuff *,std::less<ioHashString>,std::allocator<std::pair<ioHashString const ,ioBuff *> >,0> >::lower_bound
_TEXT	ENDS
PUBLIC	??0?$_Tree_iterator@V?$_Tree_val@V?$_Tmap_traits@VioHashString@@PAVioBuff@@U?$less@VioHashString@@@std@@V?$allocator@U?$pair@$$CBVioHashString@@PAVioBuff@@@std@@@4@$0A@@std@@@std@@@std@@QAE@PAU_Node@?$_Tree_nod@V?$_Tmap_traits@VioHashString@@PAVioBuff@@U?$less@VioHashString@@@std@@V?$allocator@U?$pair@$$CBVioHashString@@PAVioBuff@@@std@@@4@$0A@@std@@@1@PBV?$_Tree_val@V?$_Tmap_traits@VioHashString@@PAVioBuff@@U?$less@VioHashString@@@std@@V?$allocator@U?$pair@$$CBVioHashString@@PAVioBuff@@@std@@@4@$0A@@std@@@1@@Z ; std::_Tree_iterator<std::_Tree_val<std::_Tmap_traits<ioHashString,ioBuff *,std::less<ioHashString>,std::allocator<std::pair<ioHashString const ,ioBuff *> >,0> > >::_Tree_iterator<std::_Tree_val<std::_Tmap_traits<ioHashString,ioBuff *,std::less<ioHashString>,std::allocator<std::pair<ioHashString const ,ioBuff *> >,0> > >
; Function compile flags: /Ogsp
;	COMDAT ??0?$_Tree_iterator@V?$_Tree_val@V?$_Tmap_traits@VioHashString@@PAVioBuff@@U?$less@VioHashString@@@std@@V?$allocator@U?$pair@$$CBVioHashString@@PAVioBuff@@@std@@@4@$0A@@std@@@std@@@std@@QAE@PAU_Node@?$_Tree_nod@V?$_Tmap_traits@VioHashString@@PAVioBuff@@U?$less@VioHashString@@@std@@V?$allocator@U?$pair@$$CBVioHashString@@PAVioBuff@@@std@@@4@$0A@@std@@@1@PBV?$_Tree_val@V?$_Tmap_traits@VioHashString@@PAVioBuff@@U?$less@VioHashString@@@std@@V?$allocator@U?$pair@$$CBVioHashString@@PAVioBuff@@@std@@@4@$0A@@std@@@1@@Z
_TEXT	SEGMENT
__Pnode$ = 8						; size = 4
__Plist$ = 12						; size = 4
??0?$_Tree_iterator@V?$_Tree_val@V?$_Tmap_traits@VioHashString@@PAVioBuff@@U?$less@VioHashString@@@std@@V?$allocator@U?$pair@$$CBVioHashString@@PAVioBuff@@@std@@@4@$0A@@std@@@std@@@std@@QAE@PAU_Node@?$_Tree_nod@V?$_Tmap_traits@VioHashString@@PAVioBuff@@U?$less@VioHashString@@@std@@V?$allocator@U?$pair@$$CBVioHashString@@PAVioBuff@@@std@@@4@$0A@@std@@@1@PBV?$_Tree_val@V?$_Tmap_traits@VioHashString@@PAVioBuff@@U?$less@VioHashString@@@std@@V?$allocator@U?$pair@$$CBVioHashString@@PAVioBuff@@@std@@@4@$0A@@std@@@1@@Z PROC ; std::_Tree_iterator<std::_Tree_val<std::_Tmap_traits<ioHashString,ioBuff *,std::less<ioHashString>,std::allocator<std::pair<ioHashString const ,ioBuff *> >,0> > >::_Tree_iterator<std::_Tree_val<std::_Tmap_traits<ioHashString,ioBuff *,std::less<ioHashString>,std::allocator<std::pair<ioHashString const ,ioBuff *> >,0> > >, COMDAT
; _this$ = ecx

; 378  : 		{	// construct with node pointer _Pnode

  00000	55		 push	 ebp
  00001	8b ec		 mov	 ebp, esp
  00003	8b c1		 mov	 eax, ecx
  00005	8b 4d 08	 mov	 ecx, DWORD PTR __Pnode$[ebp]
  00008	89 08		 mov	 DWORD PTR [eax], ecx

; 379  : 		}

  0000a	5d		 pop	 ebp
  0000b	c2 08 00	 ret	 8
??0?$_Tree_iterator@V?$_Tree_val@V?$_Tmap_traits@VioHashString@@PAVioBuff@@U?$less@VioHashString@@@std@@V?$allocator@U?$pair@$$CBVioHashString@@PAVioBuff@@@std@@@4@$0A@@std@@@std@@@std@@QAE@PAU_Node@?$_Tree_nod@V?$_Tmap_traits@VioHashString@@PAVioBuff@@U?$less@VioHashString@@@std@@V?$allocator@U?$pair@$$CBVioHashString@@PAVioBuff@@@std@@@4@$0A@@std@@@1@PBV?$_Tree_val@V?$_Tmap_traits@VioHashString@@PAVioBuff@@U?$less@VioHashString@@@std@@V?$allocator@U?$pair@$$CBVioHashString@@PAVioBuff@@@std@@@4@$0A@@std@@@1@@Z ENDP ; std::_Tree_iterator<std::_Tree_val<std::_Tmap_traits<ioHashString,ioBuff *,std::less<ioHashString>,std::allocator<std::pair<ioHashString const ,ioBuff *> >,0> > >::_Tree_iterator<std::_Tree_val<std::_Tmap_traits<ioHashString,ioBuff *,std::less<ioHashString>,std::allocator<std::pair<ioHashString const ,ioBuff *> >,0> > >
_TEXT	ENDS
PUBLIC	??E?$_Tree_const_iterator@V?$_Tree_val@V?$_Tmap_traits@VioHashString@@PAVioBuff@@U?$less@VioHashString@@@std@@V?$allocator@U?$pair@$$CBVioHashString@@PAVioBuff@@@std@@@4@$0A@@std@@@std@@@std@@QAEAAV01@XZ ; std::_Tree_const_iterator<std::_Tree_val<std::_Tmap_traits<ioHashString,ioBuff *,std::less<ioHashString>,std::allocator<std::pair<ioHashString const ,ioBuff *> >,0> > >::operator++
; Function compile flags: /Ogsp
;	COMDAT ??E?$_Tree_const_iterator@V?$_Tree_val@V?$_Tmap_traits@VioHashString@@PAVioBuff@@U?$less@VioHashString@@@std@@V?$allocator@U?$pair@$$CBVioHashString@@PAVioBuff@@@std@@@4@$0A@@std@@@std@@@std@@QAEAAV01@XZ
_TEXT	SEGMENT
??E?$_Tree_const_iterator@V?$_Tree_val@V?$_Tmap_traits@VioHashString@@PAVioBuff@@U?$less@VioHashString@@@std@@V?$allocator@U?$pair@$$CBVioHashString@@PAVioBuff@@@std@@@4@$0A@@std@@@std@@@std@@QAEAAV01@XZ PROC ; std::_Tree_const_iterator<std::_Tree_val<std::_Tmap_traits<ioHashString,ioBuff *,std::less<ioHashString>,std::allocator<std::pair<ioHashString const ,ioBuff *> >,0> > >::operator++, COMDAT
; _this$ = ecx

; 250  : 		{	// preincrement

  00000	56		 push	 esi
  00001	8b f1		 mov	 esi, ecx

; 251  :  #if _ITERATOR_DEBUG_LEVEL == 2
; 252  : 		if (this->_Getcont() == 0
; 253  : 			|| this->_Ptr == 0
; 254  : 			|| _Mytree::_Isnil(this->_Ptr))
; 255  : 			{	// report error
; 256  : 			_DEBUG_ERROR("map/set iterator not incrementable");
; 257  : 			_SCL_SECURE_OUT_OF_RANGE;
; 258  : 			}
; 259  : 
; 260  :  #elif _ITERATOR_DEBUG_LEVEL == 1
; 261  : 		_SCL_SECURE_VALIDATE(this->_Getcont() != 0 && this->_Ptr != 0);
; 262  : 		_SCL_SECURE_VALIDATE_RANGE(!_Mytree::_Isnil(this->_Ptr));
; 263  :  #endif /* _ITERATOR_DEBUG_LEVEL */
; 264  : 
; 265  : 		++(*(_Mybase *)this);

  00003	e8 00 00 00 00	 call	 ??E?$_Tree_unchecked_const_iterator@V?$_Tree_val@V?$_Tmap_traits@VioHashString@@PAVioBuff@@U?$less@VioHashString@@@std@@V?$allocator@U?$pair@$$CBVioHashString@@PAVioBuff@@@std@@@4@$0A@@std@@@std@@U_Iterator_base0@2@@std@@QAEAAV01@XZ ; std::_Tree_unchecked_const_iterator<std::_Tree_val<std::_Tmap_traits<ioHashString,ioBuff *,std::less<ioHashString>,std::allocator<std::pair<ioHashString const ,ioBuff *> >,0> >,std::_Iterator_base0>::operator++

; 266  : 		return (*this);

  00008	8b c6		 mov	 eax, esi
  0000a	5e		 pop	 esi

; 267  : 		}

  0000b	c3		 ret	 0
??E?$_Tree_const_iterator@V?$_Tree_val@V?$_Tmap_traits@VioHashString@@PAVioBuff@@U?$less@VioHashString@@@std@@V?$allocator@U?$pair@$$CBVioHashString@@PAVioBuff@@@std@@@4@$0A@@std@@@std@@@std@@QAEAAV01@XZ ENDP ; std::_Tree_const_iterator<std::_Tree_val<std::_Tmap_traits<ioHashString,ioBuff *,std::less<ioHashString>,std::allocator<std::pair<ioHashString const ,ioBuff *> >,0> > >::operator++
_TEXT	ENDS
PUBLIC	??0?$_Tree_val@V?$_Tmap_traits@VioHashString@@PAVioBuff@@U?$less@VioHashString@@@std@@V?$allocator@U?$pair@$$CBVioHashString@@PAVioBuff@@@std@@@4@$0A@@std@@@std@@QAE@ABU?$less@VioHashString@@@1@V?$allocator@U?$pair@$$CBVioHashString@@PAVioBuff@@@std@@@1@@Z ; std::_Tree_val<std::_Tmap_traits<ioHashString,ioBuff *,std::less<ioHashString>,std::allocator<std::pair<ioHashString const ,ioBuff *> >,0> >::_Tree_val<std::_Tmap_traits<ioHashString,ioBuff *,std::less<ioHashString>,std::allocator<std::pair<ioHashString const ,ioBuff *> >,0> >
; Function compile flags: /Ogsp
;	COMDAT ??0?$_Tree_val@V?$_Tmap_traits@VioHashString@@PAVioBuff@@U?$less@VioHashString@@@std@@V?$allocator@U?$pair@$$CBVioHashString@@PAVioBuff@@@std@@@4@$0A@@std@@@std@@QAE@ABU?$less@VioHashString@@@1@V?$allocator@U?$pair@$$CBVioHashString@@PAVioBuff@@@std@@@1@@Z
_TEXT	SEGMENT
$T531413 = -16						; size = 12
$T531390 = -4						; size = 4
__Parg$ = 8						; size = 4
__Al$ = 12						; size = 1
??0?$_Tree_val@V?$_Tmap_traits@VioHashString@@PAVioBuff@@U?$less@VioHashString@@@std@@V?$allocator@U?$pair@$$CBVioHashString@@PAVioBuff@@@std@@@4@$0A@@std@@@std@@QAE@ABU?$less@VioHashString@@@1@V?$allocator@U?$pair@$$CBVioHashString@@PAVioBuff@@@std@@@1@@Z PROC ; std::_Tree_val<std::_Tmap_traits<ioHashString,ioBuff *,std::less<ioHashString>,std::allocator<std::pair<ioHashString const ,ioBuff *> >,0> >::_Tree_val<std::_Tmap_traits<ioHashString,ioBuff *,std::less<ioHashString>,std::allocator<std::pair<ioHashString const ,ioBuff *> >,0> >, COMDAT
; _this$ = ecx

; 542  : 		{	// construct base, and allocator from _Al

  00000	55		 push	 ebp
  00001	8b ec		 mov	 ebp, esp
  00003	83 ec 10	 sub	 esp, 16			; 00000010H
  00006	56		 push	 esi
  00007	8b f1		 mov	 esi, ecx

; 543  : 		this->_Mysize = 0;

  00009	83 66 08 00	 and	 DWORD PTR [esi+8], 0

; 544  : 		this->_Myhead = this->_Alnod.allocate(1);

  0000d	6a 24		 push	 36			; 00000024H
  0000f	e8 00 00 00 00	 call	 ??2@YAPAXI@Z		; operator new
  00014	59		 pop	 ecx
  00015	85 c0		 test	 eax, eax
  00017	74 26		 je	 SHORT $LN15@Tree_val
  00019	89 46 04	 mov	 DWORD PTR [esi+4], eax

; 545  : 
; 546  : 		this->_Left(this->_Myhead) = this->_Myhead;

  0001c	89 00		 mov	 DWORD PTR [eax], eax

; 547  : 		this->_Parent(this->_Myhead) = this->_Myhead;

  0001e	8b 46 04	 mov	 eax, DWORD PTR [esi+4]
  00021	89 40 04	 mov	 DWORD PTR [eax+4], eax

; 548  : 		this->_Right(this->_Myhead) = this->_Myhead;

  00024	8b 46 04	 mov	 eax, DWORD PTR [esi+4]
  00027	89 40 08	 mov	 DWORD PTR [eax+8], eax

; 549  : 		this->_Color(this->_Myhead) = this->_Black;

  0002a	8b 46 04	 mov	 eax, DWORD PTR [esi+4]
  0002d	c6 40 20 01	 mov	 BYTE PTR [eax+32], 1

; 550  : 		this->_Isnil(this->_Myhead) = true;

  00031	8b 46 04	 mov	 eax, DWORD PTR [esi+4]
  00034	c6 40 21 01	 mov	 BYTE PTR [eax+33], 1

; 551  : 		}

  00038	8b c6		 mov	 eax, esi
  0003a	5e		 pop	 esi
  0003b	c9		 leave
  0003c	c2 08 00	 ret	 8

; 544  : 		this->_Myhead = this->_Alnod.allocate(1);

$LN15@Tree_val:
  0003f	83 65 fc 00	 and	 DWORD PTR $T531390[ebp], 0
  00043	8d 45 fc	 lea	 eax, DWORD PTR $T531390[ebp]
  00046	50		 push	 eax
  00047	8d 4d f0	 lea	 ecx, DWORD PTR $T531413[ebp]
  0004a	ff 15 00 00 00
	00		 call	 DWORD PTR __imp_??0exception@std@@QAE@ABQBD@Z
  00050	68 00 00 00 00	 push	 OFFSET __TI2?AVbad_alloc@std@@
  00055	8d 45 f0	 lea	 eax, DWORD PTR $T531413[ebp]
  00058	50		 push	 eax
  00059	c7 45 f0 00 00
	00 00		 mov	 DWORD PTR $T531413[ebp], OFFSET ??_7bad_alloc@std@@6B@
  00060	e8 00 00 00 00	 call	 __CxxThrowException@8
$LN37@Tree_val:
$LN36@Tree_val:
  00065	cc		 int	 3
??0?$_Tree_val@V?$_Tmap_traits@VioHashString@@PAVioBuff@@U?$less@VioHashString@@@std@@V?$allocator@U?$pair@$$CBVioHashString@@PAVioBuff@@@std@@@4@$0A@@std@@@std@@QAE@ABU?$less@VioHashString@@@1@V?$allocator@U?$pair@$$CBVioHashString@@PAVioBuff@@@std@@@1@@Z ENDP ; std::_Tree_val<std::_Tmap_traits<ioHashString,ioBuff *,std::less<ioHashString>,std::allocator<std::pair<ioHashString const ,ioBuff *> >,0> >::_Tree_val<std::_Tmap_traits<ioHashString,ioBuff *,std::less<ioHashString>,std::allocator<std::pair<ioHashString const ,ioBuff *> >,0> >
_TEXT	ENDS
PUBLIC	??E?$_Tree_const_iterator@V?$_Tree_val@V?$_Tmap_traits@VioHashString@@PAVioBuff@@U?$less@VioHashString@@@std@@V?$allocator@U?$pair@$$CBVioHashString@@PAVioBuff@@@std@@@4@$0A@@std@@@std@@@std@@QAE?AV01@H@Z ; std::_Tree_const_iterator<std::_Tree_val<std::_Tmap_traits<ioHashString,ioBuff *,std::less<ioHashString>,std::allocator<std::pair<ioHashString const ,ioBuff *> >,0> > >::operator++
; Function compile flags: /Ogsp
;	COMDAT ??E?$_Tree_const_iterator@V?$_Tree_val@V?$_Tmap_traits@VioHashString@@PAVioBuff@@U?$less@VioHashString@@@std@@V?$allocator@U?$pair@$$CBVioHashString@@PAVioBuff@@@std@@@4@$0A@@std@@@std@@@std@@QAE?AV01@H@Z
_TEXT	SEGMENT
___$ReturnUdt$ = 8					; size = 4
___formal$ = 12						; size = 4
??E?$_Tree_const_iterator@V?$_Tree_val@V?$_Tmap_traits@VioHashString@@PAVioBuff@@U?$less@VioHashString@@@std@@V?$allocator@U?$pair@$$CBVioHashString@@PAVioBuff@@@std@@@4@$0A@@std@@@std@@@std@@QAE?AV01@H@Z PROC ; std::_Tree_const_iterator<std::_Tree_val<std::_Tmap_traits<ioHashString,ioBuff *,std::less<ioHashString>,std::allocator<std::pair<ioHashString const ,ioBuff *> >,0> > >::operator++, COMDAT
; _this$ = ecx

; 270  : 		{	// postincrement

  00000	55		 push	 ebp
  00001	8b ec		 mov	 ebp, esp

; 271  : 		_Myiter _Tmp = *this;

  00003	8b 01		 mov	 eax, DWORD PTR [ecx]
  00005	56		 push	 esi
  00006	8b 75 08	 mov	 esi, DWORD PTR ___$ReturnUdt$[ebp]
  00009	89 06		 mov	 DWORD PTR [esi], eax

; 272  : 		++*this;

  0000b	e8 00 00 00 00	 call	 ??E?$_Tree_unchecked_const_iterator@V?$_Tree_val@V?$_Tmap_traits@VioHashString@@PAVioBuff@@U?$less@VioHashString@@@std@@V?$allocator@U?$pair@$$CBVioHashString@@PAVioBuff@@@std@@@4@$0A@@std@@@std@@U_Iterator_base0@2@@std@@QAEAAV01@XZ ; std::_Tree_unchecked_const_iterator<std::_Tree_val<std::_Tmap_traits<ioHashString,ioBuff *,std::less<ioHashString>,std::allocator<std::pair<ioHashString const ,ioBuff *> >,0> >,std::_Iterator_base0>::operator++

; 273  : 		return (_Tmp);

  00010	8b c6		 mov	 eax, esi
  00012	5e		 pop	 esi

; 274  : 		}

  00013	5d		 pop	 ebp
  00014	c2 08 00	 ret	 8
??E?$_Tree_const_iterator@V?$_Tree_val@V?$_Tmap_traits@VioHashString@@PAVioBuff@@U?$less@VioHashString@@@std@@V?$allocator@U?$pair@$$CBVioHashString@@PAVioBuff@@@std@@@4@$0A@@std@@@std@@@std@@QAE?AV01@H@Z ENDP ; std::_Tree_const_iterator<std::_Tree_val<std::_Tmap_traits<ioHashString,ioBuff *,std::less<ioHashString>,std::allocator<std::pair<ioHashString const ,ioBuff *> >,0> > >::operator++
_TEXT	ENDS
PUBLIC	??$?0ABVioHashString@@AAPAVioBuff@@@?$pair@$$CBVioHashString@@PAVioBuff@@@std@@QAE@ABVioHashString@@AAPAVioBuff@@@Z ; std::pair<ioHashString const ,ioBuff *>::pair<ioHashString const ,ioBuff *><ioHashString const &,ioBuff * &>
; Function compile flags: /Ogsp
; File c:\program files (x86)\microsoft visual studio 10.0\vc\include\utility
;	COMDAT ??$?0ABVioHashString@@AAPAVioBuff@@@?$pair@$$CBVioHashString@@PAVioBuff@@@std@@QAE@ABVioHashString@@AAPAVioBuff@@@Z
_TEXT	SEGMENT
__Val1$ = 8						; size = 4
__Val2$ = 12						; size = 4
??$?0ABVioHashString@@AAPAVioBuff@@@?$pair@$$CBVioHashString@@PAVioBuff@@@std@@QAE@ABVioHashString@@AAPAVioBuff@@@Z PROC ; std::pair<ioHashString const ,ioBuff *>::pair<ioHashString const ,ioBuff *><ioHashString const &,ioBuff * &>, COMDAT
; _this$ = ecx

; 247  : 		{	// construct from moved values

  00000	55		 push	 ebp
  00001	8b ec		 mov	 ebp, esp
  00003	56		 push	 esi
  00004	ff 75 08	 push	 DWORD PTR __Val1$[ebp]
  00007	8b f1		 mov	 esi, ecx
  00009	ff 15 00 00 00
	00		 call	 DWORD PTR __imp_??0ioHashString@@QAE@ABV0@@Z
  0000f	8b 45 0c	 mov	 eax, DWORD PTR __Val2$[ebp]
  00012	8b 00		 mov	 eax, DWORD PTR [eax]
  00014	89 46 10	 mov	 DWORD PTR [esi+16], eax

; 248  : 		}

  00017	8b c6		 mov	 eax, esi
  00019	5e		 pop	 esi
  0001a	5d		 pop	 ebp
  0001b	c2 08 00	 ret	 8
??$?0ABVioHashString@@AAPAVioBuff@@@?$pair@$$CBVioHashString@@PAVioBuff@@@std@@QAE@ABVioHashString@@AAPAVioBuff@@@Z ENDP ; std::pair<ioHashString const ,ioBuff *>::pair<ioHashString const ,ioBuff *><ioHashString const &,ioBuff * &>
_TEXT	ENDS
PUBLIC	??F?$_Tree_iterator@V?$_Tree_val@V?$_Tmap_traits@VioHashString@@PAVioBuff@@U?$less@VioHashString@@@std@@V?$allocator@U?$pair@$$CBVioHashString@@PAVioBuff@@@std@@@4@$0A@@std@@@std@@@std@@QAEAAV01@XZ ; std::_Tree_iterator<std::_Tree_val<std::_Tmap_traits<ioHashString,ioBuff *,std::less<ioHashString>,std::allocator<std::pair<ioHashString const ,ioBuff *> >,0> > >::operator--
; Function compile flags: /Ogsp
; File c:\program files (x86)\microsoft visual studio 10.0\vc\include\xtree
;	COMDAT ??F?$_Tree_iterator@V?$_Tree_val@V?$_Tmap_traits@VioHashString@@PAVioBuff@@U?$less@VioHashString@@@std@@V?$allocator@U?$pair@$$CBVioHashString@@PAVioBuff@@@std@@@4@$0A@@std@@@std@@@std@@QAEAAV01@XZ
_TEXT	SEGMENT
??F?$_Tree_iterator@V?$_Tree_val@V?$_Tmap_traits@VioHashString@@PAVioBuff@@U?$less@VioHashString@@@std@@V?$allocator@U?$pair@$$CBVioHashString@@PAVioBuff@@@std@@@4@$0A@@std@@@std@@@std@@QAEAAV01@XZ PROC ; std::_Tree_iterator<std::_Tree_val<std::_Tmap_traits<ioHashString,ioBuff *,std::less<ioHashString>,std::allocator<std::pair<ioHashString const ,ioBuff *> >,0> > >::operator--, COMDAT
; _this$ = ecx

; 418  : 		{	// predecrement

  00000	56		 push	 esi
  00001	8b f1		 mov	 esi, ecx

; 419  : 		--(*(_Mybase *)this);

  00003	e8 00 00 00 00	 call	 ??F?$_Tree_unchecked_const_iterator@V?$_Tree_val@V?$_Tmap_traits@VioHashString@@PAVioBuff@@U?$less@VioHashString@@@std@@V?$allocator@U?$pair@$$CBVioHashString@@PAVioBuff@@@std@@@4@$0A@@std@@@std@@U_Iterator_base0@2@@std@@QAEAAV01@XZ ; std::_Tree_unchecked_const_iterator<std::_Tree_val<std::_Tmap_traits<ioHashString,ioBuff *,std::less<ioHashString>,std::allocator<std::pair<ioHashString const ,ioBuff *> >,0> >,std::_Iterator_base0>::operator--

; 420  : 		return (*this);

  00008	8b c6		 mov	 eax, esi
  0000a	5e		 pop	 esi

; 421  : 		}

  0000b	c3		 ret	 0
??F?$_Tree_iterator@V?$_Tree_val@V?$_Tmap_traits@VioHashString@@PAVioBuff@@U?$less@VioHashString@@@std@@V?$allocator@U?$pair@$$CBVioHashString@@PAVioBuff@@@std@@@4@$0A@@std@@@std@@@std@@QAEAAV01@XZ ENDP ; std::_Tree_iterator<std::_Tree_val<std::_Tmap_traits<ioHashString,ioBuff *,std::less<ioHashString>,std::allocator<std::pair<ioHashString const ,ioBuff *> >,0> > >::operator--
_TEXT	ENDS
PUBLIC	??0?$pair@V?$_Tree_iterator@V?$_Tree_val@V?$_Tmap_traits@VioHashString@@PAVioBuff@@U?$less@VioHashString@@@std@@V?$allocator@U?$pair@$$CBVioHashString@@PAVioBuff@@@std@@@4@$0A@@std@@@std@@@std@@_N@std@@QAE@$$QAV?$_Tree_iterator@V?$_Tree_val@V?$_Tmap_traits@VioHashString@@PAVioBuff@@U?$less@VioHashString@@@std@@V?$allocator@U?$pair@$$CBVioHashString@@PAVioBuff@@@std@@@4@$0A@@std@@@std@@@1@$$QA_N@Z ; std::pair<std::_Tree_iterator<std::_Tree_val<std::_Tmap_traits<ioHashString,ioBuff *,std::less<ioHashString>,std::allocator<std::pair<ioHashString const ,ioBuff *> >,0> > >,bool>::pair<std::_Tree_iterator<std::_Tree_val<std::_Tmap_traits<ioHashString,ioBuff *,std::less<ioHashString>,std::allocator<std::pair<ioHashString const ,ioBuff *> >,0> > >,bool>
; Function compile flags: /Ogsp
; File c:\program files (x86)\microsoft visual studio 10.0\vc\include\utility
;	COMDAT ??0?$pair@V?$_Tree_iterator@V?$_Tree_val@V?$_Tmap_traits@VioHashString@@PAVioBuff@@U?$less@VioHashString@@@std@@V?$allocator@U?$pair@$$CBVioHashString@@PAVioBuff@@@std@@@4@$0A@@std@@@std@@@std@@_N@std@@QAE@$$QAV?$_Tree_iterator@V?$_Tree_val@V?$_Tmap_traits@VioHashString@@PAVioBuff@@U?$less@VioHashString@@@std@@V?$allocator@U?$pair@$$CBVioHashString@@PAVioBuff@@@std@@@4@$0A@@std@@@std@@@1@$$QA_N@Z
_TEXT	SEGMENT
__Val1$ = 8						; size = 4
__Val2$ = 12						; size = 4
??0?$pair@V?$_Tree_iterator@V?$_Tree_val@V?$_Tmap_traits@VioHashString@@PAVioBuff@@U?$less@VioHashString@@@std@@V?$allocator@U?$pair@$$CBVioHashString@@PAVioBuff@@@std@@@4@$0A@@std@@@std@@@std@@_N@std@@QAE@$$QAV?$_Tree_iterator@V?$_Tree_val@V?$_Tmap_traits@VioHashString@@PAVioBuff@@U?$less@VioHashString@@@std@@V?$allocator@U?$pair@$$CBVioHashString@@PAVioBuff@@@std@@@4@$0A@@std@@@std@@@1@$$QA_N@Z PROC ; std::pair<std::_Tree_iterator<std::_Tree_val<std::_Tmap_traits<ioHashString,ioBuff *,std::less<ioHashString>,std::allocator<std::pair<ioHashString const ,ioBuff *> >,0> > >,bool>::pair<std::_Tree_iterator<std::_Tree_val<std::_Tmap_traits<ioHashString,ioBuff *,std::less<ioHashString>,std::allocator<std::pair<ioHashString const ,ioBuff *> >,0> > >,bool>, COMDAT
; _this$ = ecx

; 227  : 		{	// construct from specified values

  00000	55		 push	 ebp
  00001	8b ec		 mov	 ebp, esp
  00003	8b c1		 mov	 eax, ecx
  00005	8b 4d 08	 mov	 ecx, DWORD PTR __Val1$[ebp]
  00008	8b 09		 mov	 ecx, DWORD PTR [ecx]
  0000a	89 08		 mov	 DWORD PTR [eax], ecx
  0000c	8b 4d 0c	 mov	 ecx, DWORD PTR __Val2$[ebp]
  0000f	8a 09		 mov	 cl, BYTE PTR [ecx]
  00011	88 48 04	 mov	 BYTE PTR [eax+4], cl

; 228  : 		}

  00014	5d		 pop	 ebp
  00015	c2 08 00	 ret	 8
??0?$pair@V?$_Tree_iterator@V?$_Tree_val@V?$_Tmap_traits@VioHashString@@PAVioBuff@@U?$less@VioHashString@@@std@@V?$allocator@U?$pair@$$CBVioHashString@@PAVioBuff@@@std@@@4@$0A@@std@@@std@@@std@@_N@std@@QAE@$$QAV?$_Tree_iterator@V?$_Tree_val@V?$_Tmap_traits@VioHashString@@PAVioBuff@@U?$less@VioHashString@@@std@@V?$allocator@U?$pair@$$CBVioHashString@@PAVioBuff@@@std@@@4@$0A@@std@@@std@@@1@$$QA_N@Z ENDP ; std::pair<std::_Tree_iterator<std::_Tree_val<std::_Tmap_traits<ioHashString,ioBuff *,std::less<ioHashString>,std::allocator<std::pair<ioHashString const ,ioBuff *> >,0> > >,bool>::pair<std::_Tree_iterator<std::_Tree_val<std::_Tmap_traits<ioHashString,ioBuff *,std::less<ioHashString>,std::allocator<std::pair<ioHashString const ,ioBuff *> >,0> > >,bool>
_TEXT	ENDS
PUBLIC	??$?0AAV?$_Tree_iterator@V?$_Tree_val@V?$_Tmap_traits@VioHashString@@PAVioBuff@@U?$less@VioHashString@@@std@@V?$allocator@U?$pair@$$CBVioHashString@@PAVioBuff@@@std@@@4@$0A@@std@@@std@@@std@@_N@?$pair@V?$_Tree_iterator@V?$_Tree_val@V?$_Tmap_traits@VioHashString@@PAVioBuff@@U?$less@VioHashString@@@std@@V?$allocator@U?$pair@$$CBVioHashString@@PAVioBuff@@@std@@@4@$0A@@std@@@std@@@std@@_N@std@@QAE@AAV?$_Tree_iterator@V?$_Tree_val@V?$_Tmap_traits@VioHashString@@PAVioBuff@@U?$less@VioHashString@@@std@@V?$allocator@U?$pair@$$CBVioHashString@@PAVioBuff@@@std@@@4@$0A@@std@@@std@@@1@$$QA_N@Z ; std::pair<std::_Tree_iterator<std::_Tree_val<std::_Tmap_traits<ioHashString,ioBuff *,std::less<ioHashString>,std::allocator<std::pair<ioHashString const ,ioBuff *> >,0> > >,bool>::pair<std::_Tree_iterator<std::_Tree_val<std::_Tmap_traits<ioHashString,ioBuff *,std::less<ioHashString>,std::allocator<std::pair<ioHashString const ,ioBuff *> >,0> > >,bool><std::_Tree_iterator<std::_Tree_val<std::_Tmap_traits<ioHashString,ioBuff *,std::less<ioHashString>,std::allocator<std::pair<ioHashString const ,ioBuff *> >,0> > > &,bool>
; Function compile flags: /Ogsp
;	COMDAT ??$?0AAV?$_Tree_iterator@V?$_Tree_val@V?$_Tmap_traits@VioHashString@@PAVioBuff@@U?$less@VioHashString@@@std@@V?$allocator@U?$pair@$$CBVioHashString@@PAVioBuff@@@std@@@4@$0A@@std@@@std@@@std@@_N@?$pair@V?$_Tree_iterator@V?$_Tree_val@V?$_Tmap_traits@VioHashString@@PAVioBuff@@U?$less@VioHashString@@@std@@V?$allocator@U?$pair@$$CBVioHashString@@PAVioBuff@@@std@@@4@$0A@@std@@@std@@@std@@_N@std@@QAE@AAV?$_Tree_iterator@V?$_Tree_val@V?$_Tmap_traits@VioHashString@@PAVioBuff@@U?$less@VioHashString@@@std@@V?$allocator@U?$pair@$$CBVioHashString@@PAVioBuff@@@std@@@4@$0A@@std@@@std@@@1@$$QA_N@Z
_TEXT	SEGMENT
__Val1$ = 8						; size = 4
__Val2$ = 12						; size = 4
??$?0AAV?$_Tree_iterator@V?$_Tree_val@V?$_Tmap_traits@VioHashString@@PAVioBuff@@U?$less@VioHashString@@@std@@V?$allocator@U?$pair@$$CBVioHashString@@PAVioBuff@@@std@@@4@$0A@@std@@@std@@@std@@_N@?$pair@V?$_Tree_iterator@V?$_Tree_val@V?$_Tmap_traits@VioHashString@@PAVioBuff@@U?$less@VioHashString@@@std@@V?$allocator@U?$pair@$$CBVioHashString@@PAVioBuff@@@std@@@4@$0A@@std@@@std@@@std@@_N@std@@QAE@AAV?$_Tree_iterator@V?$_Tree_val@V?$_Tmap_traits@VioHashString@@PAVioBuff@@U?$less@VioHashString@@@std@@V?$allocator@U?$pair@$$CBVioHashString@@PAVioBuff@@@std@@@4@$0A@@std@@@std@@@1@$$QA_N@Z PROC ; std::pair<std::_Tree_iterator<std::_Tree_val<std::_Tmap_traits<ioHashString,ioBuff *,std::less<ioHashString>,std::allocator<std::pair<ioHashString const ,ioBuff *> >,0> > >,bool>::pair<std::_Tree_iterator<std::_Tree_val<std::_Tmap_traits<ioHashString,ioBuff *,std::less<ioHashString>,std::allocator<std::pair<ioHashString const ,ioBuff *> >,0> > >,bool><std::_Tree_iterator<std::_Tree_val<std::_Tmap_traits<ioHashString,ioBuff *,std::less<ioHashString>,std::allocator<std::pair<ioHashString const ,ioBuff *> >,0> > > &,bool>, COMDAT
; _this$ = ecx

; 247  : 		{	// construct from moved values

  00000	55		 push	 ebp
  00001	8b ec		 mov	 ebp, esp
  00003	8b c1		 mov	 eax, ecx
  00005	8b 4d 08	 mov	 ecx, DWORD PTR __Val1$[ebp]
  00008	8b 09		 mov	 ecx, DWORD PTR [ecx]
  0000a	89 08		 mov	 DWORD PTR [eax], ecx
  0000c	8b 4d 0c	 mov	 ecx, DWORD PTR __Val2$[ebp]
  0000f	8a 09		 mov	 cl, BYTE PTR [ecx]
  00011	88 48 04	 mov	 BYTE PTR [eax+4], cl

; 248  : 		}

  00014	5d		 pop	 ebp
  00015	c2 08 00	 ret	 8
??$?0AAV?$_Tree_iterator@V?$_Tree_val@V?$_Tmap_traits@VioHashString@@PAVioBuff@@U?$less@VioHashString@@@std@@V?$allocator@U?$pair@$$CBVioHashString@@PAVioBuff@@@std@@@4@$0A@@std@@@std@@@std@@_N@?$pair@V?$_Tree_iterator@V?$_Tree_val@V?$_Tmap_traits@VioHashString@@PAVioBuff@@U?$less@VioHashString@@@std@@V?$allocator@U?$pair@$$CBVioHashString@@PAVioBuff@@@std@@@4@$0A@@std@@@std@@@std@@_N@std@@QAE@AAV?$_Tree_iterator@V?$_Tree_val@V?$_Tmap_traits@VioHashString@@PAVioBuff@@U?$less@VioHashString@@@std@@V?$allocator@U?$pair@$$CBVioHashString@@PAVioBuff@@@std@@@4@$0A@@std@@@std@@@1@$$QA_N@Z ENDP ; std::pair<std::_Tree_iterator<std::_Tree_val<std::_Tmap_traits<ioHashString,ioBuff *,std::less<ioHashString>,std::allocator<std::pair<ioHashString const ,ioBuff *> >,0> > >,bool>::pair<std::_Tree_iterator<std::_Tree_val<std::_Tmap_traits<ioHashString,ioBuff *,std::less<ioHashString>,std::allocator<std::pair<ioHashString const ,ioBuff *> >,0> > >,bool><std::_Tree_iterator<std::_Tree_val<std::_Tmap_traits<ioHashString,ioBuff *,std::less<ioHashString>,std::allocator<std::pair<ioHashString const ,ioBuff *> >,0> > > &,bool>
_TEXT	ENDS
PUBLIC	??$_Destroy@U?$pair@$$CBVioHashString@@PAVioBuff@@@std@@@std@@YAXPAU?$pair@$$CBVioHashString@@PAVioBuff@@@0@@Z ; std::_Destroy<std::pair<ioHashString const ,ioBuff *> >
; Function compile flags: /Ogsp
; File c:\program files (x86)\microsoft visual studio 10.0\vc\include\xmemory
;	COMDAT ??$_Destroy@U?$pair@$$CBVioHashString@@PAVioBuff@@@std@@@std@@YAXPAU?$pair@$$CBVioHashString@@PAVioBuff@@@0@@Z
_TEXT	SEGMENT
__Ptr$ = 8						; size = 4
??$_Destroy@U?$pair@$$CBVioHashString@@PAVioBuff@@@std@@@std@@YAXPAU?$pair@$$CBVioHashString@@PAVioBuff@@@0@@Z PROC ; std::_Destroy<std::pair<ioHashString const ,ioBuff *> >, COMDAT

; 62   : 	{	// destroy object at _Ptr

  00000	55		 push	 ebp
  00001	8b ec		 mov	 ebp, esp

; 63   : 	_Ptr->~_Ty();

  00003	8b 4d 08	 mov	 ecx, DWORD PTR __Ptr$[ebp]

; 64   : 	}

  00006	5d		 pop	 ebp

; 63   : 	_Ptr->~_Ty();

  00007	ff 25 00 00 00
	00		 jmp	 DWORD PTR __imp_??1ioHashString@@QAE@XZ
??$_Destroy@U?$pair@$$CBVioHashString@@PAVioBuff@@@std@@@std@@YAXPAU?$pair@$$CBVioHashString@@PAVioBuff@@@0@@Z ENDP ; std::_Destroy<std::pair<ioHashString const ,ioBuff *> >
_TEXT	ENDS
PUBLIC	??$?0$$CBVioHashString@@PAVioBuff@@@?$pair@$$CBVioHashString@@PAVioBuff@@@std@@QAE@$$QAU01@@Z ; std::pair<ioHashString const ,ioBuff *>::pair<ioHashString const ,ioBuff *><ioHashString const ,ioBuff *>
; Function compile flags: /Ogsp
; File c:\program files (x86)\microsoft visual studio 10.0\vc\include\utility
;	COMDAT ??$?0$$CBVioHashString@@PAVioBuff@@@?$pair@$$CBVioHashString@@PAVioBuff@@@std@@QAE@$$QAU01@@Z
_TEXT	SEGMENT
__Right$ = 8						; size = 4
??$?0$$CBVioHashString@@PAVioBuff@@@?$pair@$$CBVioHashString@@PAVioBuff@@@std@@QAE@$$QAU01@@Z PROC ; std::pair<ioHashString const ,ioBuff *>::pair<ioHashString const ,ioBuff *><ioHashString const ,ioBuff *>, COMDAT
; _this$ = ecx

; 255  : 		{	// construct from moved compatible pair

  00000	55		 push	 ebp
  00001	8b ec		 mov	 ebp, esp
  00003	56		 push	 esi
  00004	57		 push	 edi
  00005	8b 7d 08	 mov	 edi, DWORD PTR __Right$[ebp]
  00008	57		 push	 edi
  00009	8b f1		 mov	 esi, ecx
  0000b	ff 15 00 00 00
	00		 call	 DWORD PTR __imp_??0ioHashString@@QAE@ABV0@@Z
  00011	8b 47 10	 mov	 eax, DWORD PTR [edi+16]
  00014	89 46 10	 mov	 DWORD PTR [esi+16], eax
  00017	5f		 pop	 edi

; 256  : 		}

  00018	8b c6		 mov	 eax, esi
  0001a	5e		 pop	 esi
  0001b	5d		 pop	 ebp
  0001c	c2 04 00	 ret	 4
??$?0$$CBVioHashString@@PAVioBuff@@@?$pair@$$CBVioHashString@@PAVioBuff@@@std@@QAE@$$QAU01@@Z ENDP ; std::pair<ioHashString const ,ioBuff *>::pair<ioHashString const ,ioBuff *><ioHashString const ,ioBuff *>
_TEXT	ENDS
PUBLIC	?begin@?$_Tree@V?$_Tmap_traits@VioHashString@@PAVioBuff@@U?$less@VioHashString@@@std@@V?$allocator@U?$pair@$$CBVioHashString@@PAVioBuff@@@std@@@4@$0A@@std@@@std@@QAE?AV?$_Tree_iterator@V?$_Tree_val@V?$_Tmap_traits@VioHashString@@PAVioBuff@@U?$less@VioHashString@@@std@@V?$allocator@U?$pair@$$CBVioHashString@@PAVioBuff@@@std@@@4@$0A@@std@@@std@@@2@XZ ; std::_Tree<std::_Tmap_traits<ioHashString,ioBuff *,std::less<ioHashString>,std::allocator<std::pair<ioHashString const ,ioBuff *> >,0> >::begin
; Function compile flags: /Ogsp
; File c:\program files (x86)\microsoft visual studio 10.0\vc\include\xtree
;	COMDAT ?begin@?$_Tree@V?$_Tmap_traits@VioHashString@@PAVioBuff@@U?$less@VioHashString@@@std@@V?$allocator@U?$pair@$$CBVioHashString@@PAVioBuff@@@std@@@4@$0A@@std@@@std@@QAE?AV?$_Tree_iterator@V?$_Tree_val@V?$_Tmap_traits@VioHashString@@PAVioBuff@@U?$less@VioHashString@@@std@@V?$allocator@U?$pair@$$CBVioHashString@@PAVioBuff@@@std@@@4@$0A@@std@@@std@@@2@XZ
_TEXT	SEGMENT
___$ReturnUdt$ = 8					; size = 4
?begin@?$_Tree@V?$_Tmap_traits@VioHashString@@PAVioBuff@@U?$less@VioHashString@@@std@@V?$allocator@U?$pair@$$CBVioHashString@@PAVioBuff@@@std@@@4@$0A@@std@@@std@@QAE?AV?$_Tree_iterator@V?$_Tree_val@V?$_Tmap_traits@VioHashString@@PAVioBuff@@U?$less@VioHashString@@@std@@V?$allocator@U?$pair@$$CBVioHashString@@PAVioBuff@@@std@@@4@$0A@@std@@@std@@@2@XZ PROC ; std::_Tree<std::_Tmap_traits<ioHashString,ioBuff *,std::less<ioHashString>,std::allocator<std::pair<ioHashString const ,ioBuff *> >,0> >::begin, COMDAT
; _this$ = ecx

; 806  : 		{	// return iterator for beginning of mutable sequence

  00000	55		 push	 ebp
  00001	8b ec		 mov	 ebp, esp

; 807  : 		return (iterator(_Lmost(), this));

  00003	8b 41 04	 mov	 eax, DWORD PTR [ecx+4]
  00006	8b 08		 mov	 ecx, DWORD PTR [eax]
  00008	8b 45 08	 mov	 eax, DWORD PTR ___$ReturnUdt$[ebp]
  0000b	89 08		 mov	 DWORD PTR [eax], ecx

; 808  : 		}

  0000d	5d		 pop	 ebp
  0000e	c2 04 00	 ret	 4
?begin@?$_Tree@V?$_Tmap_traits@VioHashString@@PAVioBuff@@U?$less@VioHashString@@@std@@V?$allocator@U?$pair@$$CBVioHashString@@PAVioBuff@@@std@@@4@$0A@@std@@@std@@QAE?AV?$_Tree_iterator@V?$_Tree_val@V?$_Tmap_traits@VioHashString@@PAVioBuff@@U?$less@VioHashString@@@std@@V?$allocator@U?$pair@$$CBVioHashString@@PAVioBuff@@@std@@@4@$0A@@std@@@std@@@2@XZ ENDP ; std::_Tree<std::_Tmap_traits<ioHashString,ioBuff *,std::less<ioHashString>,std::allocator<std::pair<ioHashString const ,ioBuff *> >,0> >::begin
_TEXT	ENDS
PUBLIC	?end@?$_Tree@V?$_Tmap_traits@VioHashString@@PAVioBuff@@U?$less@VioHashString@@@std@@V?$allocator@U?$pair@$$CBVioHashString@@PAVioBuff@@@std@@@4@$0A@@std@@@std@@QAE?AV?$_Tree_iterator@V?$_Tree_val@V?$_Tmap_traits@VioHashString@@PAVioBuff@@U?$less@VioHashString@@@std@@V?$allocator@U?$pair@$$CBVioHashString@@PAVioBuff@@@std@@@4@$0A@@std@@@std@@@2@XZ ; std::_Tree<std::_Tmap_traits<ioHashString,ioBuff *,std::less<ioHashString>,std::allocator<std::pair<ioHashString const ,ioBuff *> >,0> >::end
; Function compile flags: /Ogsp
;	COMDAT ?end@?$_Tree@V?$_Tmap_traits@VioHashString@@PAVioBuff@@U?$less@VioHashString@@@std@@V?$allocator@U?$pair@$$CBVioHashString@@PAVioBuff@@@std@@@4@$0A@@std@@@std@@QAE?AV?$_Tree_iterator@V?$_Tree_val@V?$_Tmap_traits@VioHashString@@PAVioBuff@@U?$less@VioHashString@@@std@@V?$allocator@U?$pair@$$CBVioHashString@@PAVioBuff@@@std@@@4@$0A@@std@@@std@@@2@XZ
_TEXT	SEGMENT
___$ReturnUdt$ = 8					; size = 4
?end@?$_Tree@V?$_Tmap_traits@VioHashString@@PAVioBuff@@U?$less@VioHashString@@@std@@V?$allocator@U?$pair@$$CBVioHashString@@PAVioBuff@@@std@@@4@$0A@@std@@@std@@QAE?AV?$_Tree_iterator@V?$_Tree_val@V?$_Tmap_traits@VioHashString@@PAVioBuff@@U?$less@VioHashString@@@std@@V?$allocator@U?$pair@$$CBVioHashString@@PAVioBuff@@@std@@@4@$0A@@std@@@std@@@2@XZ PROC ; std::_Tree<std::_Tmap_traits<ioHashString,ioBuff *,std::less<ioHashString>,std::allocator<std::pair<ioHashString const ,ioBuff *> >,0> >::end, COMDAT
; _this$ = ecx

; 816  : 		{	// return iterator for end of mutable sequence

  00000	55		 push	 ebp
  00001	8b ec		 mov	 ebp, esp

; 817  : 		return (iterator(this->_Myhead, this));

  00003	8b 49 04	 mov	 ecx, DWORD PTR [ecx+4]
  00006	8b 45 08	 mov	 eax, DWORD PTR ___$ReturnUdt$[ebp]
  00009	89 08		 mov	 DWORD PTR [eax], ecx

; 818  : 		}

  0000b	5d		 pop	 ebp
  0000c	c2 04 00	 ret	 4
?end@?$_Tree@V?$_Tmap_traits@VioHashString@@PAVioBuff@@U?$less@VioHashString@@@std@@V?$allocator@U?$pair@$$CBVioHashString@@PAVioBuff@@@std@@@4@$0A@@std@@@std@@QAE?AV?$_Tree_iterator@V?$_Tree_val@V?$_Tmap_traits@VioHashString@@PAVioBuff@@U?$less@VioHashString@@@std@@V?$allocator@U?$pair@$$CBVioHashString@@PAVioBuff@@@std@@@4@$0A@@std@@@std@@@2@XZ ENDP ; std::_Tree<std::_Tmap_traits<ioHashString,ioBuff *,std::less<ioHashString>,std::allocator<std::pair<ioHashString const ,ioBuff *> >,0> >::end
_TEXT	ENDS
PUBLIC	?find@?$_Tree@V?$_Tmap_traits@VioHashString@@PAVioBuff@@U?$less@VioHashString@@@std@@V?$allocator@U?$pair@$$CBVioHashString@@PAVioBuff@@@std@@@4@$0A@@std@@@std@@QBE?AV?$_Tree_const_iterator@V?$_Tree_val@V?$_Tmap_traits@VioHashString@@PAVioBuff@@U?$less@VioHashString@@@std@@V?$allocator@U?$pair@$$CBVioHashString@@PAVioBuff@@@std@@@4@$0A@@std@@@std@@@2@ABVioHashString@@@Z ; std::_Tree<std::_Tmap_traits<ioHashString,ioBuff *,std::less<ioHashString>,std::allocator<std::pair<ioHashString const ,ioBuff *> >,0> >::find
; Function compile flags: /Ogsp
;	COMDAT ?find@?$_Tree@V?$_Tmap_traits@VioHashString@@PAVioBuff@@U?$less@VioHashString@@@std@@V?$allocator@U?$pair@$$CBVioHashString@@PAVioBuff@@@std@@@4@$0A@@std@@@std@@QBE?AV?$_Tree_const_iterator@V?$_Tree_val@V?$_Tmap_traits@VioHashString@@PAVioBuff@@U?$less@VioHashString@@@std@@V?$allocator@U?$pair@$$CBVioHashString@@PAVioBuff@@@std@@@4@$0A@@std@@@std@@@2@ABVioHashString@@@Z
_TEXT	SEGMENT
__Where$ = -4						; size = 4
___$ReturnUdt$ = 8					; size = 4
$T531625 = 12						; size = 4
__Keyval$ = 12						; size = 4
?find@?$_Tree@V?$_Tmap_traits@VioHashString@@PAVioBuff@@U?$less@VioHashString@@@std@@V?$allocator@U?$pair@$$CBVioHashString@@PAVioBuff@@@std@@@4@$0A@@std@@@std@@QBE?AV?$_Tree_const_iterator@V?$_Tree_val@V?$_Tmap_traits@VioHashString@@PAVioBuff@@U?$less@VioHashString@@@std@@V?$allocator@U?$pair@$$CBVioHashString@@PAVioBuff@@@std@@@4@$0A@@std@@@std@@@2@ABVioHashString@@@Z PROC ; std::_Tree<std::_Tmap_traits<ioHashString,ioBuff *,std::less<ioHashString>,std::allocator<std::pair<ioHashString const ,ioBuff *> >,0> >::find, COMDAT
; _this$ = ecx

; 1432 : 		{	// find an element in nonmutable sequence that matches _Keyval

  00000	55		 push	 ebp
  00001	8b ec		 mov	 ebp, esp
  00003	51		 push	 ecx
  00004	56		 push	 esi

; 1433 : 		const_iterator _Where = lower_bound(_Keyval);

  00005	ff 75 0c	 push	 DWORD PTR __Keyval$[ebp]
  00008	8b f1		 mov	 esi, ecx
  0000a	e8 00 00 00 00	 call	 ?_Lbound@?$_Tree@V?$_Tmap_traits@VioHashString@@PAVioBuff@@U?$less@VioHashString@@@std@@V?$allocator@U?$pair@$$CBVioHashString@@PAVioBuff@@@std@@@4@$0A@@std@@@std@@IBEPAU_Node@?$_Tree_nod@V?$_Tmap_traits@VioHashString@@PAVioBuff@@U?$less@VioHashString@@@std@@V?$allocator@U?$pair@$$CBVioHashString@@PAVioBuff@@@std@@@4@$0A@@std@@@2@ABVioHashString@@@Z ; std::_Tree<std::_Tmap_traits<ioHashString,ioBuff *,std::less<ioHashString>,std::allocator<std::pair<ioHashString const ,ioBuff *> >,0> >::_Lbound
  0000f	89 45 fc	 mov	 DWORD PTR __Where$[ebp], eax

; 1434 : 		return (_Where == end()
; 1435 : 			|| _DEBUG_LT_PRED(this->comp,
; 1436 : 				_Keyval, this->_Key(_Where._Mynode()))
; 1437 : 					? end() : _Where);

  00012	3b 46 04	 cmp	 eax, DWORD PTR [esi+4]
  00015	74 16		 je	 SHORT $LN3@find
  00017	8b 4d 0c	 mov	 ecx, DWORD PTR __Keyval$[ebp]
  0001a	83 c0 0c	 add	 eax, 12			; 0000000cH
  0001d	50		 push	 eax
  0001e	ff 15 00 00 00
	00		 call	 DWORD PTR __imp_??MioHashString@@QBE_NABV0@@Z
  00024	84 c0		 test	 al, al
  00026	75 05		 jne	 SHORT $LN3@find
  00028	8d 45 fc	 lea	 eax, DWORD PTR __Where$[ebp]
  0002b	eb 09		 jmp	 SHORT $LN4@find
$LN3@find:
  0002d	8b 46 04	 mov	 eax, DWORD PTR [esi+4]
  00030	89 45 0c	 mov	 DWORD PTR $T531625[ebp], eax
  00033	8d 45 0c	 lea	 eax, DWORD PTR $T531625[ebp]
$LN4@find:
  00036	8b 08		 mov	 ecx, DWORD PTR [eax]
  00038	8b 45 08	 mov	 eax, DWORD PTR ___$ReturnUdt$[ebp]
  0003b	89 08		 mov	 DWORD PTR [eax], ecx
  0003d	5e		 pop	 esi

; 1438 : 		}

  0003e	c9		 leave
  0003f	c2 08 00	 ret	 8
?find@?$_Tree@V?$_Tmap_traits@VioHashString@@PAVioBuff@@U?$less@VioHashString@@@std@@V?$allocator@U?$pair@$$CBVioHashString@@PAVioBuff@@@std@@@4@$0A@@std@@@std@@QBE?AV?$_Tree_const_iterator@V?$_Tree_val@V?$_Tmap_traits@VioHashString@@PAVioBuff@@U?$less@VioHashString@@@std@@V?$allocator@U?$pair@$$CBVioHashString@@PAVioBuff@@@std@@@4@$0A@@std@@@std@@@2@ABVioHashString@@@Z ENDP ; std::_Tree<std::_Tmap_traits<ioHashString,ioBuff *,std::less<ioHashString>,std::allocator<std::pair<ioHashString const ,ioBuff *> >,0> >::find
_TEXT	ENDS
PUBLIC	??E?$_Tree_iterator@V?$_Tree_val@V?$_Tmap_traits@VioHashString@@PAVioBuff@@U?$less@VioHashString@@@std@@V?$allocator@U?$pair@$$CBVioHashString@@PAVioBuff@@@std@@@4@$0A@@std@@@std@@@std@@QAEAAV01@XZ ; std::_Tree_iterator<std::_Tree_val<std::_Tmap_traits<ioHashString,ioBuff *,std::less<ioHashString>,std::allocator<std::pair<ioHashString const ,ioBuff *> >,0> > >::operator++
; Function compile flags: /Ogsp
;	COMDAT ??E?$_Tree_iterator@V?$_Tree_val@V?$_Tmap_traits@VioHashString@@PAVioBuff@@U?$less@VioHashString@@@std@@V?$allocator@U?$pair@$$CBVioHashString@@PAVioBuff@@@std@@@4@$0A@@std@@@std@@@std@@QAEAAV01@XZ
_TEXT	SEGMENT
??E?$_Tree_iterator@V?$_Tree_val@V?$_Tmap_traits@VioHashString@@PAVioBuff@@U?$less@VioHashString@@@std@@V?$allocator@U?$pair@$$CBVioHashString@@PAVioBuff@@@std@@@4@$0A@@std@@@std@@@std@@QAEAAV01@XZ PROC ; std::_Tree_iterator<std::_Tree_val<std::_Tmap_traits<ioHashString,ioBuff *,std::less<ioHashString>,std::allocator<std::pair<ioHashString const ,ioBuff *> >,0> > >::operator++, COMDAT
; _this$ = ecx

; 405  : 		{	// preincrement

  00000	56		 push	 esi
  00001	8b f1		 mov	 esi, ecx

; 406  : 		++(*(_Mybase *)this);

  00003	e8 00 00 00 00	 call	 ??E?$_Tree_unchecked_const_iterator@V?$_Tree_val@V?$_Tmap_traits@VioHashString@@PAVioBuff@@U?$less@VioHashString@@@std@@V?$allocator@U?$pair@$$CBVioHashString@@PAVioBuff@@@std@@@4@$0A@@std@@@std@@U_Iterator_base0@2@@std@@QAEAAV01@XZ ; std::_Tree_unchecked_const_iterator<std::_Tree_val<std::_Tmap_traits<ioHashString,ioBuff *,std::less<ioHashString>,std::allocator<std::pair<ioHashString const ,ioBuff *> >,0> >,std::_Iterator_base0>::operator++

; 407  : 		return (*this);

  00008	8b c6		 mov	 eax, esi
  0000a	5e		 pop	 esi

; 408  : 		}

  0000b	c3		 ret	 0
??E?$_Tree_iterator@V?$_Tree_val@V?$_Tmap_traits@VioHashString@@PAVioBuff@@U?$less@VioHashString@@@std@@V?$allocator@U?$pair@$$CBVioHashString@@PAVioBuff@@@std@@@4@$0A@@std@@@std@@@std@@QAEAAV01@XZ ENDP ; std::_Tree_iterator<std::_Tree_val<std::_Tmap_traits<ioHashString,ioBuff *,std::less<ioHashString>,std::allocator<std::pair<ioHashString const ,ioBuff *> >,0> > >::operator++
_TEXT	ENDS
PUBLIC	??0?$_Tree@V?$_Tmap_traits@VioHashString@@PAVioBuff@@U?$less@VioHashString@@@std@@V?$allocator@U?$pair@$$CBVioHashString@@PAVioBuff@@@std@@@4@$0A@@std@@@std@@QAE@ABU?$less@VioHashString@@@1@ABV?$allocator@U?$pair@$$CBVioHashString@@PAVioBuff@@@std@@@1@@Z ; std::_Tree<std::_Tmap_traits<ioHashString,ioBuff *,std::less<ioHashString>,std::allocator<std::pair<ioHashString const ,ioBuff *> >,0> >::_Tree<std::_Tmap_traits<ioHashString,ioBuff *,std::less<ioHashString>,std::allocator<std::pair<ioHashString const ,ioBuff *> >,0> >
; Function compile flags: /Ogsp
;	COMDAT ??0?$_Tree@V?$_Tmap_traits@VioHashString@@PAVioBuff@@U?$less@VioHashString@@@std@@V?$allocator@U?$pair@$$CBVioHashString@@PAVioBuff@@@std@@@4@$0A@@std@@@std@@QAE@ABU?$less@VioHashString@@@1@ABV?$allocator@U?$pair@$$CBVioHashString@@PAVioBuff@@@std@@@1@@Z
_TEXT	SEGMENT
$T531738 = -4						; size = 4
$T531733 = -4						; size = 4
__Parg$ = 8						; size = 4
__Al$ = 12						; size = 4
??0?$_Tree@V?$_Tmap_traits@VioHashString@@PAVioBuff@@U?$less@VioHashString@@@std@@V?$allocator@U?$pair@$$CBVioHashString@@PAVioBuff@@@std@@@4@$0A@@std@@@std@@QAE@ABU?$less@VioHashString@@@1@ABV?$allocator@U?$pair@$$CBVioHashString@@PAVioBuff@@@std@@@1@@Z PROC ; std::_Tree<std::_Tmap_traits<ioHashString,ioBuff *,std::less<ioHashString>,std::allocator<std::pair<ioHashString const ,ioBuff *> >,0> >::_Tree<std::_Tmap_traits<ioHashString,ioBuff *,std::less<ioHashString>,std::allocator<std::pair<ioHashString const ,ioBuff *> >,0> >, COMDAT
; _this$ = ecx

; 698  : 		{	// construct empty tree

  00000	55		 push	 ebp
  00001	8b ec		 mov	 ebp, esp
  00003	51		 push	 ecx
  00004	56		 push	 esi
  00005	51		 push	 ecx
  00006	89 65 fc	 mov	 DWORD PTR $T531733[ebp], esp
  00009	89 65 fc	 mov	 DWORD PTR $T531738[ebp], esp
  0000c	ff 75 08	 push	 DWORD PTR __Parg$[ebp]
  0000f	8b f1		 mov	 esi, ecx
  00011	e8 00 00 00 00	 call	 ??0?$_Tree_val@V?$_Tmap_traits@VioHashString@@PAVioBuff@@U?$less@VioHashString@@@std@@V?$allocator@U?$pair@$$CBVioHashString@@PAVioBuff@@@std@@@4@$0A@@std@@@std@@QAE@ABU?$less@VioHashString@@@1@V?$allocator@U?$pair@$$CBVioHashString@@PAVioBuff@@@std@@@1@@Z ; std::_Tree_val<std::_Tmap_traits<ioHashString,ioBuff *,std::less<ioHashString>,std::allocator<std::pair<ioHashString const ,ioBuff *> >,0> >::_Tree_val<std::_Tmap_traits<ioHashString,ioBuff *,std::less<ioHashString>,std::allocator<std::pair<ioHashString const ,ioBuff *> >,0> >

; 699  : 		}

  00016	8b c6		 mov	 eax, esi
  00018	5e		 pop	 esi
  00019	c9		 leave
  0001a	c2 08 00	 ret	 8
??0?$_Tree@V?$_Tmap_traits@VioHashString@@PAVioBuff@@U?$less@VioHashString@@@std@@V?$allocator@U?$pair@$$CBVioHashString@@PAVioBuff@@@std@@@4@$0A@@std@@@std@@QAE@ABU?$less@VioHashString@@@1@ABV?$allocator@U?$pair@$$CBVioHashString@@PAVioBuff@@@std@@@1@@Z ENDP ; std::_Tree<std::_Tmap_traits<ioHashString,ioBuff *,std::less<ioHashString>,std::allocator<std::pair<ioHashString const ,ioBuff *> >,0> >::_Tree<std::_Tmap_traits<ioHashString,ioBuff *,std::less<ioHashString>,std::allocator<std::pair<ioHashString const ,ioBuff *> >,0> >
_TEXT	ENDS
PUBLIC	?lower_bound@?$_Tree@V?$_Tmap_traits@VioHashString@@PAVioBuff@@U?$less@VioHashString@@@std@@V?$allocator@U?$pair@$$CBVioHashString@@PAVioBuff@@@std@@@4@$0A@@std@@@std@@QAE?AV?$_Tree_iterator@V?$_Tree_val@V?$_Tmap_traits@VioHashString@@PAVioBuff@@U?$less@VioHashString@@@std@@V?$allocator@U?$pair@$$CBVioHashString@@PAVioBuff@@@std@@@4@$0A@@std@@@std@@@2@ABVioHashString@@@Z ; std::_Tree<std::_Tmap_traits<ioHashString,ioBuff *,std::less<ioHashString>,std::allocator<std::pair<ioHashString const ,ioBuff *> >,0> >::lower_bound
; Function compile flags: /Ogsp
;	COMDAT ?lower_bound@?$_Tree@V?$_Tmap_traits@VioHashString@@PAVioBuff@@U?$less@VioHashString@@@std@@V?$allocator@U?$pair@$$CBVioHashString@@PAVioBuff@@@std@@@4@$0A@@std@@@std@@QAE?AV?$_Tree_iterator@V?$_Tree_val@V?$_Tmap_traits@VioHashString@@PAVioBuff@@U?$less@VioHashString@@@std@@V?$allocator@U?$pair@$$CBVioHashString@@PAVioBuff@@@std@@@4@$0A@@std@@@std@@@2@ABVioHashString@@@Z
_TEXT	SEGMENT
___$ReturnUdt$ = 8					; size = 4
__Keyval$ = 12						; size = 4
?lower_bound@?$_Tree@V?$_Tmap_traits@VioHashString@@PAVioBuff@@U?$less@VioHashString@@@std@@V?$allocator@U?$pair@$$CBVioHashString@@PAVioBuff@@@std@@@4@$0A@@std@@@std@@QAE?AV?$_Tree_iterator@V?$_Tree_val@V?$_Tmap_traits@VioHashString@@PAVioBuff@@U?$less@VioHashString@@@std@@V?$allocator@U?$pair@$$CBVioHashString@@PAVioBuff@@@std@@@4@$0A@@std@@@std@@@2@ABVioHashString@@@Z PROC ; std::_Tree<std::_Tmap_traits<ioHashString,ioBuff *,std::less<ioHashString>,std::allocator<std::pair<ioHashString const ,ioBuff *> >,0> >::lower_bound, COMDAT
; _this$ = ecx

; 1449 : 		{	// find leftmost node not less than _Keyval in mutable tree

  00000	55		 push	 ebp
  00001	8b ec		 mov	 ebp, esp

; 1450 : 		return (iterator(_Lbound(_Keyval), this));

  00003	ff 75 0c	 push	 DWORD PTR __Keyval$[ebp]
  00006	e8 00 00 00 00	 call	 ?_Lbound@?$_Tree@V?$_Tmap_traits@VioHashString@@PAVioBuff@@U?$less@VioHashString@@@std@@V?$allocator@U?$pair@$$CBVioHashString@@PAVioBuff@@@std@@@4@$0A@@std@@@std@@IAEPAU_Node@?$_Tree_nod@V?$_Tmap_traits@VioHashString@@PAVioBuff@@U?$less@VioHashString@@@std@@V?$allocator@U?$pair@$$CBVioHashString@@PAVioBuff@@@std@@@4@$0A@@std@@@2@ABVioHashString@@@Z ; std::_Tree<std::_Tmap_traits<ioHashString,ioBuff *,std::less<ioHashString>,std::allocator<std::pair<ioHashString const ,ioBuff *> >,0> >::_Lbound
  0000b	8b 4d 08	 mov	 ecx, DWORD PTR ___$ReturnUdt$[ebp]
  0000e	89 01		 mov	 DWORD PTR [ecx], eax
  00010	8b c1		 mov	 eax, ecx

; 1451 : 		}

  00012	5d		 pop	 ebp
  00013	c2 08 00	 ret	 8
?lower_bound@?$_Tree@V?$_Tmap_traits@VioHashString@@PAVioBuff@@U?$less@VioHashString@@@std@@V?$allocator@U?$pair@$$CBVioHashString@@PAVioBuff@@@std@@@4@$0A@@std@@@std@@QAE?AV?$_Tree_iterator@V?$_Tree_val@V?$_Tmap_traits@VioHashString@@PAVioBuff@@U?$less@VioHashString@@@std@@V?$allocator@U?$pair@$$CBVioHashString@@PAVioBuff@@@std@@@4@$0A@@std@@@std@@@2@ABVioHashString@@@Z ENDP ; std::_Tree<std::_Tmap_traits<ioHashString,ioBuff *,std::less<ioHashString>,std::allocator<std::pair<ioHashString const ,ioBuff *> >,0> >::lower_bound
_TEXT	ENDS
PUBLIC	?destroy@?$allocator@U?$pair@$$CBVioHashString@@PAVioBuff@@@std@@@std@@QAEXPAU?$pair@$$CBVioHashString@@PAVioBuff@@@2@@Z ; std::allocator<std::pair<ioHashString const ,ioBuff *> >::destroy
; Function compile flags: /Ogsp
; File c:\program files (x86)\microsoft visual studio 10.0\vc\include\xmemory
;	COMDAT ?destroy@?$allocator@U?$pair@$$CBVioHashString@@PAVioBuff@@@std@@@std@@QAEXPAU?$pair@$$CBVioHashString@@PAVioBuff@@@2@@Z
_TEXT	SEGMENT
__Ptr$ = 8						; size = 4
?destroy@?$allocator@U?$pair@$$CBVioHashString@@PAVioBuff@@@std@@@std@@QAEXPAU?$pair@$$CBVioHashString@@PAVioBuff@@@2@@Z PROC ; std::allocator<std::pair<ioHashString const ,ioBuff *> >::destroy, COMDAT
; _this$ = ecx

; 212  : 		{	// destroy object at _Ptr

  00000	55		 push	 ebp
  00001	8b ec		 mov	 ebp, esp

; 213  : 		_Destroy(_Ptr);

  00003	8b 4d 08	 mov	 ecx, DWORD PTR __Ptr$[ebp]
  00006	ff 15 00 00 00
	00		 call	 DWORD PTR __imp_??1ioHashString@@QAE@XZ

; 214  : 		}

  0000c	5d		 pop	 ebp
  0000d	c2 04 00	 ret	 4
?destroy@?$allocator@U?$pair@$$CBVioHashString@@PAVioBuff@@@std@@@std@@QAEXPAU?$pair@$$CBVioHashString@@PAVioBuff@@@2@@Z ENDP ; std::allocator<std::pair<ioHashString const ,ioBuff *> >::destroy
_TEXT	ENDS
PUBLIC	?construct@?$allocator@U?$pair@$$CBVioHashString@@PAVioBuff@@@std@@@std@@QAEXPAU?$pair@$$CBVioHashString@@PAVioBuff@@@2@$$QAU32@@Z ; std::allocator<std::pair<ioHashString const ,ioBuff *> >::construct
;	COMDAT xdata$x
; File c:\program files (x86)\microsoft visual studio 10.0\vc\include\utility
xdata$x	SEGMENT
__unwindtable$?construct@?$allocator@U?$pair@$$CBVioHashString@@PAVioBuff@@@std@@@std@@QAEXPAU?$pair@$$CBVioHashString@@PAVioBuff@@@2@$$QAU32@@Z DD 0ffffffffH
	DD	FLAT:__unwindfunclet$?construct@?$allocator@U?$pair@$$CBVioHashString@@PAVioBuff@@@std@@@std@@QAEXPAU?$pair@$$CBVioHashString@@PAVioBuff@@@2@$$QAU32@@Z$0
__ehfuncinfo$?construct@?$allocator@U?$pair@$$CBVioHashString@@PAVioBuff@@@std@@@std@@QAEXPAU?$pair@$$CBVioHashString@@PAVioBuff@@@2@$$QAU32@@Z DD 019930522H
	DD	01H
	DD	FLAT:__unwindtable$?construct@?$allocator@U?$pair@$$CBVioHashString@@PAVioBuff@@@std@@@std@@QAEXPAU?$pair@$$CBVioHashString@@PAVioBuff@@@2@$$QAU32@@Z
	DD	2 DUP(00H)
	DD	2 DUP(00H)
	DD	00H
	DD	01H
; Function compile flags: /Ogsp
; File c:\program files (x86)\microsoft visual studio 10.0\vc\include\xmemory
xdata$x	ENDS
;	COMDAT ?construct@?$allocator@U?$pair@$$CBVioHashString@@PAVioBuff@@@std@@@std@@QAEXPAU?$pair@$$CBVioHashString@@PAVioBuff@@@2@$$QAU32@@Z
_TEXT	SEGMENT
$T531799 = -16						; size = 4
__$EHRec$ = -12						; size = 12
__Ptr$ = 8						; size = 4
__Val$ = 12						; size = 4
?construct@?$allocator@U?$pair@$$CBVioHashString@@PAVioBuff@@@std@@@std@@QAEXPAU?$pair@$$CBVioHashString@@PAVioBuff@@@2@$$QAU32@@Z PROC ; std::allocator<std::pair<ioHashString const ,ioBuff *> >::construct, COMDAT
; _this$ = ecx

; 201  : 		{	// construct object at _Ptr with value _Val

  00000	6a 04		 push	 4
  00002	b8 00 00 00 00	 mov	 eax, __ehhandler$?construct@?$allocator@U?$pair@$$CBVioHashString@@PAVioBuff@@@std@@@std@@QAEXPAU?$pair@$$CBVioHashString@@PAVioBuff@@@2@$$QAU32@@Z
  00007	e8 00 00 00 00	 call	 __EH_prolog3

; 202  : 		::new ((void _FARQ *)_Ptr) _Ty(_STD forward<_Ty>(_Val));

  0000c	8b 75 08	 mov	 esi, DWORD PTR __Ptr$[ebp]
  0000f	89 75 f0	 mov	 DWORD PTR $T531799[ebp], esi
  00012	83 65 fc 00	 and	 DWORD PTR __$EHRec$[ebp+8], 0
  00016	85 f6		 test	 esi, esi
  00018	74 12		 je	 SHORT $LN3@construct
  0001a	8b 7d 0c	 mov	 edi, DWORD PTR __Val$[ebp]
  0001d	57		 push	 edi
  0001e	8b ce		 mov	 ecx, esi
  00020	ff 15 00 00 00
	00		 call	 DWORD PTR __imp_??0ioHashString@@QAE@ABV0@@Z
  00026	8b 47 10	 mov	 eax, DWORD PTR [edi+16]
  00029	89 46 10	 mov	 DWORD PTR [esi+16], eax
$LN3@construct:

; 203  : 		}

  0002c	e8 00 00 00 00	 call	 __EH_epilog3
  00031	c2 08 00	 ret	 8
_TEXT	ENDS
;	COMDAT text$x
text$x	SEGMENT
__unwindfunclet$?construct@?$allocator@U?$pair@$$CBVioHashString@@PAVioBuff@@@std@@@std@@QAEXPAU?$pair@$$CBVioHashString@@PAVioBuff@@@2@$$QAU32@@Z$0:
  00000	ff 75 08	 push	 DWORD PTR __Ptr$[ebp]
  00003	ff 75 f0	 push	 DWORD PTR $T531799[ebp]
  00006	e8 00 00 00 00	 call	 ??3@YAXPAX0@Z		; operator delete
  0000b	59		 pop	 ecx
  0000c	59		 pop	 ecx
  0000d	c3		 ret	 0
__ehhandler$?construct@?$allocator@U?$pair@$$CBVioHashString@@PAVioBuff@@@std@@@std@@QAEXPAU?$pair@$$CBVioHashString@@PAVioBuff@@@2@$$QAU32@@Z:
  0000e	8b 54 24 08	 mov	 edx, DWORD PTR [esp+8]
  00012	8d 42 0c	 lea	 eax, DWORD PTR [edx+12]
  00015	8b 4a ec	 mov	 ecx, DWORD PTR [edx-20]
  00018	33 c8		 xor	 ecx, eax
  0001a	e8 00 00 00 00	 call	 @__security_check_cookie@4
  0001f	b8 00 00 00 00	 mov	 eax, OFFSET __ehfuncinfo$?construct@?$allocator@U?$pair@$$CBVioHashString@@PAVioBuff@@@std@@@std@@QAEXPAU?$pair@$$CBVioHashString@@PAVioBuff@@@2@$$QAU32@@Z
  00024	e9 00 00 00 00	 jmp	 ___CxxFrameHandler3
text$x	ENDS
?construct@?$allocator@U?$pair@$$CBVioHashString@@PAVioBuff@@@std@@@std@@QAEXPAU?$pair@$$CBVioHashString@@PAVioBuff@@@2@$$QAU32@@Z ENDP ; std::allocator<std::pair<ioHashString const ,ioBuff *> >::construct
PUBLIC	??_C@_0CO@LLPAFPGH@ioBuffMaker?3?3GetBuffConst?5?9?5?$CFs?5N@ ; `string'
PUBLIC	?GetBuffConst@ioBuffMaker@@QBEPBVioBuff@@ABVioHashString@@@Z ; ioBuffMaker::GetBuffConst
EXTRN	__imp_?c_str@ioHashString@@QBEPBDXZ:PROC
;	COMDAT ??_C@_0CO@LLPAFPGH@ioBuffMaker?3?3GetBuffConst?5?9?5?$CFs?5N@
; File c:\program files (x86)\microsoft visual studio 10.0\vc\include\xtree
CONST	SEGMENT
??_C@_0CO@LLPAFPGH@ioBuffMaker?3?3GetBuffConst?5?9?5?$CFs?5N@ DB 'ioBuffM'
	DB	'aker::GetBuffConst - %s Not Exist Buff', 00H ; `string'
; Function compile flags: /Ogsp
; File d:\lost saga for developer\youtube\tutorial\source\src\lsclient\iobuffmaker.cpp
CONST	ENDS
;	COMDAT ?GetBuffConst@ioBuffMaker@@QBEPBVioBuff@@ABVioHashString@@@Z
_TEXT	SEGMENT
_iter$ = -4						; size = 4
_rkName$ = 8						; size = 4
?GetBuffConst@ioBuffMaker@@QBEPBVioBuff@@ABVioHashString@@@Z PROC ; ioBuffMaker::GetBuffConst, COMDAT
; _this$ = ecx

; 117  : {

  00000	55		 push	 ebp
  00001	8b ec		 mov	 ebp, esp
  00003	51		 push	 ecx
  00004	56		 push	 esi

; 118  : 	BuffMap::const_iterator iter = m_BuffMap.find( rkName );

  00005	ff 75 08	 push	 DWORD PTR _rkName$[ebp]
  00008	8b f1		 mov	 esi, ecx
  0000a	8d 45 fc	 lea	 eax, DWORD PTR _iter$[ebp]
  0000d	50		 push	 eax
  0000e	8d 4e 04	 lea	 ecx, DWORD PTR [esi+4]
  00011	e8 00 00 00 00	 call	 ?find@?$_Tree@V?$_Tmap_traits@VioHashString@@PAVioBuff@@U?$less@VioHashString@@@std@@V?$allocator@U?$pair@$$CBVioHashString@@PAVioBuff@@@std@@@4@$0A@@std@@@std@@QBE?AV?$_Tree_const_iterator@V?$_Tree_val@V?$_Tmap_traits@VioHashString@@PAVioBuff@@U?$less@VioHashString@@@std@@V?$allocator@U?$pair@$$CBVioHashString@@PAVioBuff@@@std@@@4@$0A@@std@@@std@@@2@ABVioHashString@@@Z ; std::_Tree<std::_Tmap_traits<ioHashString,ioBuff *,std::less<ioHashString>,std::allocator<std::pair<ioHashString const ,ioBuff *> >,0> >::find

; 119  : 	if( iter!=m_BuffMap.end() )

  00016	8b 45 fc	 mov	 eax, DWORD PTR _iter$[ebp]
  00019	3b 46 08	 cmp	 eax, DWORD PTR [esi+8]
  0001c	5e		 pop	 esi
  0001d	74 05		 je	 SHORT $LN1@GetBuffCon

; 120  : 	{
; 121  : 		return iter->second;

  0001f	8b 40 1c	 mov	 eax, DWORD PTR [eax+28]
  00022	eb 22		 jmp	 SHORT $LN2@GetBuffCon
$LN1@GetBuffCon:

; 122  : 	}
; 123  : 
; 124  : 	LOG.PrintTimeAndLog( 0, "ioBuffMaker::GetBuffConst - %s Not Exist Buff", rkName.c_str() );

  00024	8b 4d 08	 mov	 ecx, DWORD PTR _rkName$[ebp]
  00027	ff 15 00 00 00
	00		 call	 DWORD PTR __imp_?c_str@ioHashString@@QBEPBDXZ
  0002d	50		 push	 eax
  0002e	68 00 00 00 00	 push	 OFFSET ??_C@_0CO@LLPAFPGH@ioBuffMaker?3?3GetBuffConst?5?9?5?$CFs?5N@
  00033	6a 00		 push	 0
  00035	ff 35 00 00 00
	00		 push	 DWORD PTR __imp_?LOG@@3VCLog@@A
  0003b	ff 15 00 00 00
	00		 call	 DWORD PTR __imp_?PrintTimeAndLog@CLog@@QAAXHPADZZ
  00041	83 c4 10	 add	 esp, 16			; 00000010H

; 125  : 	return NULL;

  00044	33 c0		 xor	 eax, eax
$LN2@GetBuffCon:

; 126  : }

  00046	c9		 leave
  00047	c2 04 00	 ret	 4
?GetBuffConst@ioBuffMaker@@QBEPBVioBuff@@ABVioHashString@@@Z ENDP ; ioBuffMaker::GetBuffConst
_TEXT	ENDS
PUBLIC	?find@?$_Tree@V?$_Tmap_traits@VioHashString@@PAVioBuff@@U?$less@VioHashString@@@std@@V?$allocator@U?$pair@$$CBVioHashString@@PAVioBuff@@@std@@@4@$0A@@std@@@std@@QAE?AV?$_Tree_iterator@V?$_Tree_val@V?$_Tmap_traits@VioHashString@@PAVioBuff@@U?$less@VioHashString@@@std@@V?$allocator@U?$pair@$$CBVioHashString@@PAVioBuff@@@std@@@4@$0A@@std@@@std@@@2@ABVioHashString@@@Z ; std::_Tree<std::_Tmap_traits<ioHashString,ioBuff *,std::less<ioHashString>,std::allocator<std::pair<ioHashString const ,ioBuff *> >,0> >::find
; Function compile flags: /Ogsp
; File c:\program files (x86)\microsoft visual studio 10.0\vc\include\xtree
;	COMDAT ?find@?$_Tree@V?$_Tmap_traits@VioHashString@@PAVioBuff@@U?$less@VioHashString@@@std@@V?$allocator@U?$pair@$$CBVioHashString@@PAVioBuff@@@std@@@4@$0A@@std@@@std@@QAE?AV?$_Tree_iterator@V?$_Tree_val@V?$_Tmap_traits@VioHashString@@PAVioBuff@@U?$less@VioHashString@@@std@@V?$allocator@U?$pair@$$CBVioHashString@@PAVioBuff@@@std@@@4@$0A@@std@@@std@@@2@ABVioHashString@@@Z
_TEXT	SEGMENT
__Where$ = -4						; size = 4
___$ReturnUdt$ = 8					; size = 4
$T531905 = 12						; size = 4
__Keyval$ = 12						; size = 4
?find@?$_Tree@V?$_Tmap_traits@VioHashString@@PAVioBuff@@U?$less@VioHashString@@@std@@V?$allocator@U?$pair@$$CBVioHashString@@PAVioBuff@@@std@@@4@$0A@@std@@@std@@QAE?AV?$_Tree_iterator@V?$_Tree_val@V?$_Tmap_traits@VioHashString@@PAVioBuff@@U?$less@VioHashString@@@std@@V?$allocator@U?$pair@$$CBVioHashString@@PAVioBuff@@@std@@@4@$0A@@std@@@std@@@2@ABVioHashString@@@Z PROC ; std::_Tree<std::_Tmap_traits<ioHashString,ioBuff *,std::less<ioHashString>,std::allocator<std::pair<ioHashString const ,ioBuff *> >,0> >::find, COMDAT
; _this$ = ecx

; 1423 : 		{	// find an element in mutable sequence that matches _Keyval

  00000	55		 push	 ebp
  00001	8b ec		 mov	 ebp, esp
  00003	51		 push	 ecx
  00004	56		 push	 esi

; 1424 : 		iterator _Where = lower_bound(_Keyval);

  00005	ff 75 0c	 push	 DWORD PTR __Keyval$[ebp]
  00008	8b f1		 mov	 esi, ecx
  0000a	e8 00 00 00 00	 call	 ?_Lbound@?$_Tree@V?$_Tmap_traits@VioHashString@@PAVioBuff@@U?$less@VioHashString@@@std@@V?$allocator@U?$pair@$$CBVioHashString@@PAVioBuff@@@std@@@4@$0A@@std@@@std@@IAEPAU_Node@?$_Tree_nod@V?$_Tmap_traits@VioHashString@@PAVioBuff@@U?$less@VioHashString@@@std@@V?$allocator@U?$pair@$$CBVioHashString@@PAVioBuff@@@std@@@4@$0A@@std@@@2@ABVioHashString@@@Z ; std::_Tree<std::_Tmap_traits<ioHashString,ioBuff *,std::less<ioHashString>,std::allocator<std::pair<ioHashString const ,ioBuff *> >,0> >::_Lbound
  0000f	89 45 fc	 mov	 DWORD PTR __Where$[ebp], eax

; 1425 : 		return (_Where == end()
; 1426 : 			|| _DEBUG_LT_PRED(this->comp,
; 1427 : 				_Keyval, this->_Key(_Where._Mynode()))
; 1428 : 					? end() : _Where);

  00012	3b 46 04	 cmp	 eax, DWORD PTR [esi+4]
  00015	74 16		 je	 SHORT $LN3@find@2
  00017	8b 4d 0c	 mov	 ecx, DWORD PTR __Keyval$[ebp]
  0001a	83 c0 0c	 add	 eax, 12			; 0000000cH
  0001d	50		 push	 eax
  0001e	ff 15 00 00 00
	00		 call	 DWORD PTR __imp_??MioHashString@@QBE_NABV0@@Z
  00024	84 c0		 test	 al, al
  00026	75 05		 jne	 SHORT $LN3@find@2
  00028	8d 45 fc	 lea	 eax, DWORD PTR __Where$[ebp]
  0002b	eb 09		 jmp	 SHORT $LN4@find@2
$LN3@find@2:
  0002d	8b 46 04	 mov	 eax, DWORD PTR [esi+4]
  00030	89 45 0c	 mov	 DWORD PTR $T531905[ebp], eax
  00033	8d 45 0c	 lea	 eax, DWORD PTR $T531905[ebp]
$LN4@find@2:
  00036	8b 08		 mov	 ecx, DWORD PTR [eax]
  00038	8b 45 08	 mov	 eax, DWORD PTR ___$ReturnUdt$[ebp]
  0003b	89 08		 mov	 DWORD PTR [eax], ecx
  0003d	5e		 pop	 esi

; 1429 : 		}

  0003e	c9		 leave
  0003f	c2 08 00	 ret	 8
?find@?$_Tree@V?$_Tmap_traits@VioHashString@@PAVioBuff@@U?$less@VioHashString@@@std@@V?$allocator@U?$pair@$$CBVioHashString@@PAVioBuff@@@std@@@4@$0A@@std@@@std@@QAE?AV?$_Tree_iterator@V?$_Tree_val@V?$_Tmap_traits@VioHashString@@PAVioBuff@@U?$less@VioHashString@@@std@@V?$allocator@U?$pair@$$CBVioHashString@@PAVioBuff@@@std@@@4@$0A@@std@@@std@@@2@ABVioHashString@@@Z ENDP ; std::_Tree<std::_Tmap_traits<ioHashString,ioBuff *,std::less<ioHashString>,std::allocator<std::pair<ioHashString const ,ioBuff *> >,0> >::find
_TEXT	ENDS
PUBLIC	??$_Dest_val@V?$allocator@U?$pair@$$CBVioHashString@@PAVioBuff@@@std@@@std@@U?$pair@$$CBVioHashString@@PAVioBuff@@@2@@std@@YAXAAV?$allocator@U?$pair@$$CBVioHashString@@PAVioBuff@@@std@@@0@PAU?$pair@$$CBVioHashString@@PAVioBuff@@@0@@Z ; std::_Dest_val<std::allocator<std::pair<ioHashString const ,ioBuff *> >,std::pair<ioHashString const ,ioBuff *> >
; Function compile flags: /Ogsp
; File c:\program files (x86)\microsoft visual studio 10.0\vc\include\xmemory
;	COMDAT ??$_Dest_val@V?$allocator@U?$pair@$$CBVioHashString@@PAVioBuff@@@std@@@std@@U?$pair@$$CBVioHashString@@PAVioBuff@@@2@@std@@YAXAAV?$allocator@U?$pair@$$CBVioHashString@@PAVioBuff@@@std@@@0@PAU?$pair@$$CBVioHashString@@PAVioBuff@@@0@@Z
_TEXT	SEGMENT
__Alval$ = 8						; size = 4
__Pdest$ = 12						; size = 4
??$_Dest_val@V?$allocator@U?$pair@$$CBVioHashString@@PAVioBuff@@@std@@@std@@U?$pair@$$CBVioHashString@@PAVioBuff@@@2@@std@@YAXAAV?$allocator@U?$pair@$$CBVioHashString@@PAVioBuff@@@std@@@0@PAU?$pair@$$CBVioHashString@@PAVioBuff@@@0@@Z PROC ; std::_Dest_val<std::allocator<std::pair<ioHashString const ,ioBuff *> >,std::pair<ioHashString const ,ioBuff *> >, COMDAT

; 286  : 	{	// destroy using allocator

  00000	55		 push	 ebp
  00001	8b ec		 mov	 ebp, esp

; 287  : 	_Alval.destroy(_Pdest);

  00003	8b 4d 0c	 mov	 ecx, DWORD PTR __Pdest$[ebp]

; 288  : 	}

  00006	5d		 pop	 ebp

; 287  : 	_Alval.destroy(_Pdest);

  00007	ff 25 00 00 00
	00		 jmp	 DWORD PTR __imp_??1ioHashString@@QAE@XZ
??$_Dest_val@V?$allocator@U?$pair@$$CBVioHashString@@PAVioBuff@@@std@@@std@@U?$pair@$$CBVioHashString@@PAVioBuff@@@2@@std@@YAXAAV?$allocator@U?$pair@$$CBVioHashString@@PAVioBuff@@@std@@@0@PAU?$pair@$$CBVioHashString@@PAVioBuff@@@0@@Z ENDP ; std::_Dest_val<std::allocator<std::pair<ioHashString const ,ioBuff *> >,std::pair<ioHashString const ,ioBuff *> >
_TEXT	ENDS
PUBLIC	??_C@_0BE@JONHPENG@map?1set?$DMT?$DO?5too?5long?$AA@ ; `string'
PUBLIC	?_Insert@?$_Tree@V?$_Tmap_traits@VioHashString@@PAVioBuff@@U?$less@VioHashString@@@std@@V?$allocator@U?$pair@$$CBVioHashString@@PAVioBuff@@@std@@@4@$0A@@std@@@std@@IAE?AV?$_Tree_iterator@V?$_Tree_val@V?$_Tmap_traits@VioHashString@@PAVioBuff@@U?$less@VioHashString@@@std@@V?$allocator@U?$pair@$$CBVioHashString@@PAVioBuff@@@std@@@4@$0A@@std@@@std@@@2@_NPAU_Node@?$_Tree_nod@V?$_Tmap_traits@VioHashString@@PAVioBuff@@U?$less@VioHashString@@@std@@V?$allocator@U?$pair@$$CBVioHashString@@PAVioBuff@@@std@@@4@$0A@@std@@@2@1@Z ; std::_Tree<std::_Tmap_traits<ioHashString,ioBuff *,std::less<ioHashString>,std::allocator<std::pair<ioHashString const ,ioBuff *> >,0> >::_Insert
EXTRN	__imp_?_Xlength_error@std@@YAXPBD@Z:PROC
;	COMDAT ??_C@_0BE@JONHPENG@map?1set?$DMT?$DO?5too?5long?$AA@
; File c:\program files (x86)\microsoft visual studio 10.0\vc\include\xutility
CONST	SEGMENT
??_C@_0BE@JONHPENG@map?1set?$DMT?$DO?5too?5long?$AA@ DB 'map/set<T> too l'
	DB	'ong', 00H					; `string'
; Function compile flags: /Ogsp
; File c:\program files (x86)\microsoft visual studio 10.0\vc\include\xtree
CONST	ENDS
;	COMDAT ?_Insert@?$_Tree@V?$_Tmap_traits@VioHashString@@PAVioBuff@@U?$less@VioHashString@@@std@@V?$allocator@U?$pair@$$CBVioHashString@@PAVioBuff@@@std@@@4@$0A@@std@@@std@@IAE?AV?$_Tree_iterator@V?$_Tree_val@V?$_Tmap_traits@VioHashString@@PAVioBuff@@U?$less@VioHashString@@@std@@V?$allocator@U?$pair@$$CBVioHashString@@PAVioBuff@@@std@@@4@$0A@@std@@@std@@@2@_NPAU_Node@?$_Tree_nod@V?$_Tmap_traits@VioHashString@@PAVioBuff@@U?$less@VioHashString@@@std@@V?$allocator@U?$pair@$$CBVioHashString@@PAVioBuff@@@std@@@4@$0A@@std@@@2@1@Z
_TEXT	SEGMENT
___$ReturnUdt$ = 8					; size = 4
__Addleft$ = 12						; size = 1
__Wherenode$ = 16					; size = 4
__Newnode$ = 20						; size = 4
?_Insert@?$_Tree@V?$_Tmap_traits@VioHashString@@PAVioBuff@@U?$less@VioHashString@@@std@@V?$allocator@U?$pair@$$CBVioHashString@@PAVioBuff@@@std@@@4@$0A@@std@@@std@@IAE?AV?$_Tree_iterator@V?$_Tree_val@V?$_Tmap_traits@VioHashString@@PAVioBuff@@U?$less@VioHashString@@@std@@V?$allocator@U?$pair@$$CBVioHashString@@PAVioBuff@@@std@@@4@$0A@@std@@@std@@@2@_NPAU_Node@?$_Tree_nod@V?$_Tmap_traits@VioHashString@@PAVioBuff@@U?$less@VioHashString@@@std@@V?$allocator@U?$pair@$$CBVioHashString@@PAVioBuff@@@std@@@4@$0A@@std@@@2@1@Z PROC ; std::_Tree<std::_Tmap_traits<ioHashString,ioBuff *,std::less<ioHashString>,std::allocator<std::pair<ioHashString const ,ioBuff *> >,0> >::_Insert, COMDAT
; _this$ = ecx

; 1631 : 		{	// add node with value next to _Wherenode, to left if _Addleft

  00000	55		 push	 ebp
  00001	8b ec		 mov	 ebp, esp
  00003	53		 push	 ebx
  00004	56		 push	 esi
  00005	57		 push	 edi
  00006	8b f9		 mov	 edi, ecx

; 1632 : 		if (max_size() - 1 <= this->_Mysize)

  00008	8b 47 08	 mov	 eax, DWORD PTR [edi+8]
  0000b	3d cb cc cc 0c	 cmp	 eax, 214748363		; 0ccccccbH
  00010	72 1f		 jb	 SHORT $LN17@Insert

; 1633 : 			{	// tree would get too big, fail
; 1634 : 			_Dest_val(this->_Alval,
; 1635 : 				_STD addressof(this->_Myval(_Newnode)));

  00012	8b 75 14	 mov	 esi, DWORD PTR __Newnode$[ebp]
  00015	8d 4e 0c	 lea	 ecx, DWORD PTR [esi+12]
  00018	ff 15 00 00 00
	00		 call	 DWORD PTR __imp_??1ioHashString@@QAE@XZ

; 1636 : 
; 1637 : 			this->_Alnod.deallocate(_Newnode, 1);

  0001e	56		 push	 esi
  0001f	e8 00 00 00 00	 call	 ??3@YAXPAX@Z		; operator delete

; 1638 : 
; 1639 : 			_Xlength_error("map/set<T> too long");

  00024	c7 04 24 00 00
	00 00		 mov	 DWORD PTR [esp], OFFSET ??_C@_0BE@JONHPENG@map?1set?$DMT?$DO?5too?5long?$AA@
  0002b	ff 15 00 00 00
	00		 call	 DWORD PTR __imp_?_Xlength_error@std@@YAXPBD@Z
$LN197@Insert:
$LN17@Insert:

; 1640 : 			}
; 1641 : 		++this->_Mysize;
; 1642 : 		_Newnode->_Parent = _Wherenode;

  00031	8b 5d 14	 mov	 ebx, DWORD PTR __Newnode$[ebp]
  00034	40		 inc	 eax
  00035	89 47 08	 mov	 DWORD PTR [edi+8], eax
  00038	8b 45 10	 mov	 eax, DWORD PTR __Wherenode$[ebp]
  0003b	89 43 04	 mov	 DWORD PTR [ebx+4], eax

; 1643 : 
; 1644 : 		if (_Wherenode == this->_Myhead)

  0003e	8b 4f 04	 mov	 ecx, DWORD PTR [edi+4]
  00041	3b c1		 cmp	 eax, ecx
  00043	75 10		 jne	 SHORT $LN16@Insert

; 1645 : 			{	// first node in tree, just set head values
; 1646 : 			_Root() = _Newnode;

  00045	89 59 04	 mov	 DWORD PTR [ecx+4], ebx

; 1647 : 			_Lmost() = _Newnode;

  00048	8b 47 04	 mov	 eax, DWORD PTR [edi+4]
  0004b	89 18		 mov	 DWORD PTR [eax], ebx

; 1648 : 			_Rmost() = _Newnode;

  0004d	8b 47 04	 mov	 eax, DWORD PTR [edi+4]
  00050	89 58 08	 mov	 DWORD PTR [eax+8], ebx
  00053	eb 21		 jmp	 SHORT $LN11@Insert
$LN16@Insert:

; 1649 : 			}
; 1650 : 		else if (_Addleft)

  00055	80 7d 0c 00	 cmp	 BYTE PTR __Addleft$[ebp], 0
  00059	74 0d		 je	 SHORT $LN14@Insert

; 1651 : 			{	// add to left of _Wherenode
; 1652 : 			this->_Left(_Wherenode) = _Newnode;

  0005b	89 18		 mov	 DWORD PTR [eax], ebx

; 1653 : 			if (_Wherenode == _Lmost())

  0005d	8b 4f 04	 mov	 ecx, DWORD PTR [edi+4]
  00060	3b 01		 cmp	 eax, DWORD PTR [ecx]
  00062	75 12		 jne	 SHORT $LN11@Insert

; 1654 : 				_Lmost() = _Newnode;

  00064	89 19		 mov	 DWORD PTR [ecx], ebx

; 1655 : 			}
; 1656 : 		else

  00066	eb 0e		 jmp	 SHORT $LN11@Insert
$LN14@Insert:

; 1657 : 			{	// add to right of _Wherenode
; 1658 : 			this->_Right(_Wherenode) = _Newnode;

  00068	89 58 08	 mov	 DWORD PTR [eax+8], ebx

; 1659 : 			if (_Wherenode == _Rmost())

  0006b	8b 4f 04	 mov	 ecx, DWORD PTR [edi+4]
  0006e	3b 41 08	 cmp	 eax, DWORD PTR [ecx+8]
  00071	75 03		 jne	 SHORT $LN11@Insert

; 1660 : 				_Rmost() = _Newnode;

  00073	89 59 08	 mov	 DWORD PTR [ecx+8], ebx
$LN11@Insert:

; 1661 : 			}
; 1662 : 
; 1663 : 		for (_Nodeptr _Pnode = _Newnode;
; 1664 : 			this->_Color(this->_Parent(_Pnode)) == this->_Red; )

  00076	8b 43 04	 mov	 eax, DWORD PTR [ebx+4]
  00079	8b f3		 mov	 esi, ebx
  0007b	e9 93 00 00 00	 jmp	 $LN195@Insert
$LL10@Insert:

; 1665 : 			if (this->_Parent(_Pnode)
; 1666 : 				== this->_Left(this->_Parent(this->_Parent(_Pnode))))

  00080	8b 46 04	 mov	 eax, DWORD PTR [esi+4]
  00083	8b 48 04	 mov	 ecx, DWORD PTR [eax+4]
  00086	3b 01		 cmp	 eax, DWORD PTR [ecx]
  00088	75 38		 jne	 SHORT $LN8@Insert

; 1667 : 				{	// fixup red-red in left subtree
; 1668 : 				_Wherenode =
; 1669 : 					this->_Right(this->_Parent(this->_Parent(_Pnode)));

  0008a	8b 49 08	 mov	 ecx, DWORD PTR [ecx+8]

; 1670 : 				if (this->_Color(_Wherenode) == this->_Red)

  0008d	80 79 20 00	 cmp	 BYTE PTR [ecx+32], 0

; 1671 : 					{	// parent has two red children, blacken both
; 1672 : 					this->_Color(this->_Parent(_Pnode)) = this->_Black;
; 1673 : 					this->_Color(_Wherenode) = this->_Black;
; 1674 : 					this->_Color(this->_Parent(this->_Parent(_Pnode)))
; 1675 : 						= this->_Red;
; 1676 : 					_Pnode = this->_Parent(this->_Parent(_Pnode));
; 1677 : 					}
; 1678 : 				else

  00091	74 37		 je	 SHORT $LN196@Insert

; 1679 : 					{	// parent has red and black children
; 1680 : 					if (_Pnode == this->_Right(this->_Parent(_Pnode)))

  00093	3b 70 08	 cmp	 esi, DWORD PTR [eax+8]
  00096	75 0a		 jne	 SHORT $LN5@Insert

; 1681 : 						{	// rotate right child to left
; 1682 : 						_Pnode = this->_Parent(_Pnode);

  00098	8b f0		 mov	 esi, eax

; 1683 : 						_Lrotate(_Pnode);

  0009a	56		 push	 esi
  0009b	8b cf		 mov	 ecx, edi
  0009d	e8 00 00 00 00	 call	 ?_Lrotate@?$_Tree@V?$_Tmap_traits@VioHashString@@PAVioBuff@@U?$less@VioHashString@@@std@@V?$allocator@U?$pair@$$CBVioHashString@@PAVioBuff@@@std@@@4@$0A@@std@@@std@@IAEXPAU_Node@?$_Tree_nod@V?$_Tmap_traits@VioHashString@@PAVioBuff@@U?$less@VioHashString@@@std@@V?$allocator@U?$pair@$$CBVioHashString@@PAVioBuff@@@std@@@4@$0A@@std@@@2@@Z ; std::_Tree<std::_Tmap_traits<ioHashString,ioBuff *,std::less<ioHashString>,std::allocator<std::pair<ioHashString const ,ioBuff *> >,0> >::_Lrotate
$LN5@Insert:

; 1684 : 						}
; 1685 : 					this->_Color(this->_Parent(_Pnode)) =
; 1686 : 						this->_Black;	// propagate red up

  000a2	8b 46 04	 mov	 eax, DWORD PTR [esi+4]
  000a5	c6 40 20 01	 mov	 BYTE PTR [eax+32], 1

; 1687 : 					this->_Color(this->_Parent(this->_Parent(_Pnode))) =
; 1688 : 						this->_Red;

  000a9	8b 46 04	 mov	 eax, DWORD PTR [esi+4]
  000ac	8b 40 04	 mov	 eax, DWORD PTR [eax+4]
  000af	c6 40 20 00	 mov	 BYTE PTR [eax+32], 0

; 1689 : 					_Rrotate(this->_Parent(this->_Parent(_Pnode)));

  000b3	8b 46 04	 mov	 eax, DWORD PTR [esi+4]
  000b6	ff 70 04	 push	 DWORD PTR [eax+4]
  000b9	8b cf		 mov	 ecx, edi
  000bb	e8 00 00 00 00	 call	 ?_Rrotate@?$_Tree@V?$_Tmap_traits@VioHashString@@PAVioBuff@@U?$less@VioHashString@@@std@@V?$allocator@U?$pair@$$CBVioHashString@@PAVioBuff@@@std@@@4@$0A@@std@@@std@@IAEXPAU_Node@?$_Tree_nod@V?$_Tmap_traits@VioHashString@@PAVioBuff@@U?$less@VioHashString@@@std@@V?$allocator@U?$pair@$$CBVioHashString@@PAVioBuff@@@std@@@4@$0A@@std@@@2@@Z ; std::_Tree<std::_Tmap_traits<ioHashString,ioBuff *,std::less<ioHashString>,std::allocator<std::pair<ioHashString const ,ioBuff *> >,0> >::_Rrotate

; 1690 : 					}
; 1691 : 				}
; 1692 : 			else

  000c0	eb 4e		 jmp	 SHORT $LN2@Insert
$LN8@Insert:

; 1693 : 				{	// fixup red-red in right subtree
; 1694 : 				_Wherenode =
; 1695 : 					this->_Left(this->_Parent(this->_Parent(_Pnode)));

  000c2	8b 09		 mov	 ecx, DWORD PTR [ecx]

; 1696 : 				if (this->_Color(_Wherenode) == this->_Red)

  000c4	80 79 20 00	 cmp	 BYTE PTR [ecx+32], 0
  000c8	75 1a		 jne	 SHORT $LN3@Insert
$LN196@Insert:

; 1697 : 					{	// parent has two red children, blacken both
; 1698 : 					this->_Color(this->_Parent(_Pnode)) = this->_Black;

  000ca	c6 40 20 01	 mov	 BYTE PTR [eax+32], 1

; 1699 : 					this->_Color(_Wherenode) = this->_Black;

  000ce	c6 41 20 01	 mov	 BYTE PTR [ecx+32], 1

; 1700 : 					this->_Color(this->_Parent(this->_Parent(_Pnode))) =
; 1701 : 						this->_Red;

  000d2	8b 46 04	 mov	 eax, DWORD PTR [esi+4]
  000d5	8b 40 04	 mov	 eax, DWORD PTR [eax+4]
  000d8	c6 40 20 00	 mov	 BYTE PTR [eax+32], 0

; 1702 : 					_Pnode = this->_Parent(this->_Parent(_Pnode));

  000dc	8b 46 04	 mov	 eax, DWORD PTR [esi+4]
  000df	8b 70 04	 mov	 esi, DWORD PTR [eax+4]

; 1703 : 					}
; 1704 : 				else

  000e2	eb 2c		 jmp	 SHORT $LN2@Insert
$LN3@Insert:

; 1705 : 					{	// parent has red and black children
; 1706 : 					if (_Pnode == this->_Left(this->_Parent(_Pnode)))

  000e4	3b 30		 cmp	 esi, DWORD PTR [eax]
  000e6	75 0a		 jne	 SHORT $LN1@Insert

; 1707 : 						{	// rotate left child to right
; 1708 : 						_Pnode = this->_Parent(_Pnode);

  000e8	8b f0		 mov	 esi, eax

; 1709 : 						_Rrotate(_Pnode);

  000ea	56		 push	 esi
  000eb	8b cf		 mov	 ecx, edi
  000ed	e8 00 00 00 00	 call	 ?_Rrotate@?$_Tree@V?$_Tmap_traits@VioHashString@@PAVioBuff@@U?$less@VioHashString@@@std@@V?$allocator@U?$pair@$$CBVioHashString@@PAVioBuff@@@std@@@4@$0A@@std@@@std@@IAEXPAU_Node@?$_Tree_nod@V?$_Tmap_traits@VioHashString@@PAVioBuff@@U?$less@VioHashString@@@std@@V?$allocator@U?$pair@$$CBVioHashString@@PAVioBuff@@@std@@@4@$0A@@std@@@2@@Z ; std::_Tree<std::_Tmap_traits<ioHashString,ioBuff *,std::less<ioHashString>,std::allocator<std::pair<ioHashString const ,ioBuff *> >,0> >::_Rrotate
$LN1@Insert:

; 1710 : 						}
; 1711 : 					this->_Color(this->_Parent(_Pnode)) =
; 1712 : 						this->_Black;	// propagate red up

  000f2	8b 46 04	 mov	 eax, DWORD PTR [esi+4]
  000f5	c6 40 20 01	 mov	 BYTE PTR [eax+32], 1

; 1713 : 					this->_Color(this->_Parent(this->_Parent(_Pnode))) =
; 1714 : 						this->_Red;

  000f9	8b 46 04	 mov	 eax, DWORD PTR [esi+4]
  000fc	8b 40 04	 mov	 eax, DWORD PTR [eax+4]
  000ff	c6 40 20 00	 mov	 BYTE PTR [eax+32], 0

; 1715 : 					_Lrotate(this->_Parent(this->_Parent(_Pnode)));

  00103	8b 46 04	 mov	 eax, DWORD PTR [esi+4]
  00106	ff 70 04	 push	 DWORD PTR [eax+4]
  00109	8b cf		 mov	 ecx, edi
  0010b	e8 00 00 00 00	 call	 ?_Lrotate@?$_Tree@V?$_Tmap_traits@VioHashString@@PAVioBuff@@U?$less@VioHashString@@@std@@V?$allocator@U?$pair@$$CBVioHashString@@PAVioBuff@@@std@@@4@$0A@@std@@@std@@IAEXPAU_Node@?$_Tree_nod@V?$_Tmap_traits@VioHashString@@PAVioBuff@@U?$less@VioHashString@@@std@@V?$allocator@U?$pair@$$CBVioHashString@@PAVioBuff@@@std@@@4@$0A@@std@@@2@@Z ; std::_Tree<std::_Tmap_traits<ioHashString,ioBuff *,std::less<ioHashString>,std::allocator<std::pair<ioHashString const ,ioBuff *> >,0> >::_Lrotate
$LN2@Insert:

; 1661 : 			}
; 1662 : 
; 1663 : 		for (_Nodeptr _Pnode = _Newnode;
; 1664 : 			this->_Color(this->_Parent(_Pnode)) == this->_Red; )

  00110	8b 46 04	 mov	 eax, DWORD PTR [esi+4]
$LN195@Insert:
  00113	80 78 20 00	 cmp	 BYTE PTR [eax+32], 0
  00117	0f 84 63 ff ff
	ff		 je	 $LL10@Insert

; 1716 : 					}
; 1717 : 				}
; 1718 : 
; 1719 : 		this->_Color(_Root()) = this->_Black;	// root is always black

  0011d	8b 47 04	 mov	 eax, DWORD PTR [edi+4]
  00120	8b 40 04	 mov	 eax, DWORD PTR [eax+4]
  00123	5f		 pop	 edi
  00124	c6 40 20 01	 mov	 BYTE PTR [eax+32], 1

; 1720 : 		return (iterator(_Newnode, this));

  00128	8b 45 08	 mov	 eax, DWORD PTR ___$ReturnUdt$[ebp]
  0012b	5e		 pop	 esi
  0012c	89 18		 mov	 DWORD PTR [eax], ebx
  0012e	5b		 pop	 ebx

; 1721 : 		}

  0012f	5d		 pop	 ebp
  00130	c2 10 00	 ret	 16			; 00000010H
$LN194@Insert:
?_Insert@?$_Tree@V?$_Tmap_traits@VioHashString@@PAVioBuff@@U?$less@VioHashString@@@std@@V?$allocator@U?$pair@$$CBVioHashString@@PAVioBuff@@@std@@@4@$0A@@std@@@std@@IAE?AV?$_Tree_iterator@V?$_Tree_val@V?$_Tmap_traits@VioHashString@@PAVioBuff@@U?$less@VioHashString@@@std@@V?$allocator@U?$pair@$$CBVioHashString@@PAVioBuff@@@std@@@4@$0A@@std@@@std@@@2@_NPAU_Node@?$_Tree_nod@V?$_Tmap_traits@VioHashString@@PAVioBuff@@U?$less@VioHashString@@@std@@V?$allocator@U?$pair@$$CBVioHashString@@PAVioBuff@@@std@@@4@$0A@@std@@@2@1@Z ENDP ; std::_Tree<std::_Tmap_traits<ioHashString,ioBuff *,std::less<ioHashString>,std::allocator<std::pair<ioHashString const ,ioBuff *> >,0> >::_Insert
_TEXT	ENDS
PUBLIC	??$_Cons_val@V?$allocator@U?$pair@$$CBVioHashString@@PAVioBuff@@@std@@@std@@U?$pair@$$CBVioHashString@@PAVioBuff@@@2@U32@@std@@YAXAAV?$allocator@U?$pair@$$CBVioHashString@@PAVioBuff@@@std@@@0@PAU?$pair@$$CBVioHashString@@PAVioBuff@@@0@$$QAU20@@Z ; std::_Cons_val<std::allocator<std::pair<ioHashString const ,ioBuff *> >,std::pair<ioHashString const ,ioBuff *>,std::pair<ioHashString const ,ioBuff *> >
; Function compile flags: /Ogsp
; File c:\program files (x86)\microsoft visual studio 10.0\vc\include\xmemory
;	COMDAT ??$_Cons_val@V?$allocator@U?$pair@$$CBVioHashString@@PAVioBuff@@@std@@@std@@U?$pair@$$CBVioHashString@@PAVioBuff@@@2@U32@@std@@YAXAAV?$allocator@U?$pair@$$CBVioHashString@@PAVioBuff@@@std@@@0@PAU?$pair@$$CBVioHashString@@PAVioBuff@@@0@$$QAU20@@Z
_TEXT	SEGMENT
__Alval$ = 8						; size = 4
__Pdest$ = 12						; size = 4
__Src$ = 16						; size = 4
??$_Cons_val@V?$allocator@U?$pair@$$CBVioHashString@@PAVioBuff@@@std@@@std@@U?$pair@$$CBVioHashString@@PAVioBuff@@@2@U32@@std@@YAXAAV?$allocator@U?$pair@$$CBVioHashString@@PAVioBuff@@@std@@@0@PAU?$pair@$$CBVioHashString@@PAVioBuff@@@0@$$QAU20@@Z PROC ; std::_Cons_val<std::allocator<std::pair<ioHashString const ,ioBuff *> >,std::pair<ioHashString const ,ioBuff *>,std::pair<ioHashString const ,ioBuff *> >, COMDAT

; 279  : 	{	// construct using allocator

  00000	55		 push	 ebp
  00001	8b ec		 mov	 ebp, esp

; 280  : 	_Alval.construct(_Pdest, _STD forward<_Ty2>(_Src));

  00003	ff 75 10	 push	 DWORD PTR __Src$[ebp]
  00006	8b 4d 08	 mov	 ecx, DWORD PTR __Alval$[ebp]
  00009	ff 75 0c	 push	 DWORD PTR __Pdest$[ebp]
  0000c	e8 00 00 00 00	 call	 ?construct@?$allocator@U?$pair@$$CBVioHashString@@PAVioBuff@@@std@@@std@@QAEXPAU?$pair@$$CBVioHashString@@PAVioBuff@@@2@$$QAU32@@Z ; std::allocator<std::pair<ioHashString const ,ioBuff *> >::construct

; 281  : 	}

  00011	5d		 pop	 ebp
  00012	c3		 ret	 0
??$_Cons_val@V?$allocator@U?$pair@$$CBVioHashString@@PAVioBuff@@@std@@@std@@U?$pair@$$CBVioHashString@@PAVioBuff@@@2@U32@@std@@YAXAAV?$allocator@U?$pair@$$CBVioHashString@@PAVioBuff@@@std@@@0@PAU?$pair@$$CBVioHashString@@PAVioBuff@@@0@$$QAU20@@Z ENDP ; std::_Cons_val<std::allocator<std::pair<ioHashString const ,ioBuff *> >,std::pair<ioHashString const ,ioBuff *>,std::pair<ioHashString const ,ioBuff *> >
_TEXT	ENDS
PUBLIC	??_C@_0CL@ECJPBKEL@ioBuffMaker?3?3CreatBuff?5?9?5?$CFs?5Not?5@ ; `string'
PUBLIC	?CreateBuff@ioBuffMaker@@QAEPAVioBuff@@ABVioHashString@@@Z ; ioBuffMaker::CreateBuff
;	COMDAT ??_C@_0CL@ECJPBKEL@ioBuffMaker?3?3CreatBuff?5?9?5?$CFs?5Not?5@
; File c:\program files (x86)\microsoft visual studio 10.0\vc\include\xtree
CONST	SEGMENT
??_C@_0CL@ECJPBKEL@ioBuffMaker?3?3CreatBuff?5?9?5?$CFs?5Not?5@ DB 'ioBuff'
	DB	'Maker::CreatBuff - %s Not Exist Buff', 00H	; `string'
; Function compile flags: /Ogsp
; File d:\lost saga for developer\youtube\tutorial\source\src\lsclient\iobuffmaker.cpp
CONST	ENDS
;	COMDAT ?CreateBuff@ioBuffMaker@@QAEPAVioBuff@@ABVioHashString@@@Z
_TEXT	SEGMENT
_iter$ = -4						; size = 4
_rkName$ = 8						; size = 4
?CreateBuff@ioBuffMaker@@QAEPAVioBuff@@ABVioHashString@@@Z PROC ; ioBuffMaker::CreateBuff, COMDAT
; _this$ = ecx

; 89   : {

  00000	55		 push	 ebp
  00001	8b ec		 mov	 ebp, esp
  00003	51		 push	 ecx
  00004	56		 push	 esi

; 90   : 	BuffMap::iterator iter = m_BuffMap.find( rkName );

  00005	ff 75 08	 push	 DWORD PTR _rkName$[ebp]
  00008	8b f1		 mov	 esi, ecx
  0000a	8d 45 fc	 lea	 eax, DWORD PTR _iter$[ebp]
  0000d	50		 push	 eax
  0000e	8d 4e 04	 lea	 ecx, DWORD PTR [esi+4]
  00011	e8 00 00 00 00	 call	 ?find@?$_Tree@V?$_Tmap_traits@VioHashString@@PAVioBuff@@U?$less@VioHashString@@@std@@V?$allocator@U?$pair@$$CBVioHashString@@PAVioBuff@@@std@@@4@$0A@@std@@@std@@QAE?AV?$_Tree_iterator@V?$_Tree_val@V?$_Tmap_traits@VioHashString@@PAVioBuff@@U?$less@VioHashString@@@std@@V?$allocator@U?$pair@$$CBVioHashString@@PAVioBuff@@@std@@@4@$0A@@std@@@std@@@2@ABVioHashString@@@Z ; std::_Tree<std::_Tmap_traits<ioHashString,ioBuff *,std::less<ioHashString>,std::allocator<std::pair<ioHashString const ,ioBuff *> >,0> >::find

; 91   : 	if( iter != m_BuffMap.end() )

  00016	8b 45 fc	 mov	 eax, DWORD PTR _iter$[ebp]
  00019	3b 46 08	 cmp	 eax, DWORD PTR [esi+8]
  0001c	5e		 pop	 esi
  0001d	74 0c		 je	 SHORT $LN1@CreateBuff@2

; 92   : 	{
; 93   : 		return iter->second->Clone();

  0001f	8b 40 1c	 mov	 eax, DWORD PTR [eax+28]
  00022	8b 10		 mov	 edx, DWORD PTR [eax]
  00024	8b c8		 mov	 ecx, eax
  00026	ff 52 04	 call	 DWORD PTR [edx+4]
  00029	eb 22		 jmp	 SHORT $LN2@CreateBuff@2
$LN1@CreateBuff@2:

; 94   : 	}
; 95   : 
; 96   : 	LOG.PrintTimeAndLog( 0, "ioBuffMaker::CreatBuff - %s Not Exist Buff", rkName.c_str() );

  0002b	8b 4d 08	 mov	 ecx, DWORD PTR _rkName$[ebp]
  0002e	ff 15 00 00 00
	00		 call	 DWORD PTR __imp_?c_str@ioHashString@@QBEPBDXZ
  00034	50		 push	 eax
  00035	68 00 00 00 00	 push	 OFFSET ??_C@_0CL@ECJPBKEL@ioBuffMaker?3?3CreatBuff?5?9?5?$CFs?5Not?5@
  0003a	6a 00		 push	 0
  0003c	ff 35 00 00 00
	00		 push	 DWORD PTR __imp_?LOG@@3VCLog@@A
  00042	ff 15 00 00 00
	00		 call	 DWORD PTR __imp_?PrintTimeAndLog@CLog@@QAAXHPADZZ
  00048	83 c4 10	 add	 esp, 16			; 00000010H

; 97   : 
; 98   : 	/*LOG.PrintTimeAndLog( 0, "ioBuffMaker::CreatBuff - (%d - %d) - (%d - %d)",
; 99   : 		ErrorReport::GetMajorPosition(),	
; 100  : 		ErrorReport::GetMinorPosition(),
; 101  : 		ErrorReport::GetEngineMajorPos(),
; 102  : 		ErrorReport::GetEngineMinorPos() );*/
; 103  : 
; 104  : 	return NULL;

  0004b	33 c0		 xor	 eax, eax
$LN2@CreateBuff@2:

; 105  : }

  0004d	c9		 leave
  0004e	c2 04 00	 ret	 4
?CreateBuff@ioBuffMaker@@QAEPAVioBuff@@ABVioHashString@@@Z ENDP ; ioBuffMaker::CreateBuff
_TEXT	ENDS
PUBLIC	?GetBuffType@ioBuffMaker@@QBEHABVioHashString@@@Z ; ioBuffMaker::GetBuffType
; Function compile flags: /Ogsp
;	COMDAT ?GetBuffType@ioBuffMaker@@QBEHABVioHashString@@@Z
_TEXT	SEGMENT
_rkName$ = 8						; size = 4
?GetBuffType@ioBuffMaker@@QBEHABVioHashString@@@Z PROC	; ioBuffMaker::GetBuffType, COMDAT
; _this$ = ecx

; 108  : {

  00000	55		 push	 ebp
  00001	8b ec		 mov	 ebp, esp

; 109  : 	const ioBuff *pBuff = GetBuffConst( rkName );

  00003	ff 75 08	 push	 DWORD PTR _rkName$[ebp]
  00006	e8 00 00 00 00	 call	 ?GetBuffConst@ioBuffMaker@@QBEPBVioBuff@@ABVioHashString@@@Z ; ioBuffMaker::GetBuffConst

; 110  : 	if( pBuff )

  0000b	85 c0		 test	 eax, eax
  0000d	74 08		 je	 SHORT $LN1@GetBuffTyp

; 111  : 		return pBuff->GetTypeID();

  0000f	8b 80 cc 03 00
	00		 mov	 eax, DWORD PTR [eax+972]
  00015	eb 02		 jmp	 SHORT $LN2@GetBuffTyp
$LN1@GetBuffTyp:

; 112  : 
; 113  : 	return BT_NONE;

  00017	33 c0		 xor	 eax, eax
$LN2@GetBuffTyp:

; 114  : }

  00019	5d		 pop	 ebp
  0001a	c2 04 00	 ret	 4
?GetBuffType@ioBuffMaker@@QBEHABVioHashString@@@Z ENDP	; ioBuffMaker::GetBuffType
_TEXT	ENDS
PUBLIC	?_Erase@?$_Tree@V?$_Tmap_traits@VioHashString@@PAVioBuff@@U?$less@VioHashString@@@std@@V?$allocator@U?$pair@$$CBVioHashString@@PAVioBuff@@@std@@@4@$0A@@std@@@std@@IAEXPAU_Node@?$_Tree_nod@V?$_Tmap_traits@VioHashString@@PAVioBuff@@U?$less@VioHashString@@@std@@V?$allocator@U?$pair@$$CBVioHashString@@PAVioBuff@@@std@@@4@$0A@@std@@@2@@Z ; std::_Tree<std::_Tmap_traits<ioHashString,ioBuff *,std::less<ioHashString>,std::allocator<std::pair<ioHashString const ,ioBuff *> >,0> >::_Erase
; Function compile flags: /Ogsp
; File c:\program files (x86)\microsoft visual studio 10.0\vc\include\xtree
;	COMDAT ?_Erase@?$_Tree@V?$_Tmap_traits@VioHashString@@PAVioBuff@@U?$less@VioHashString@@@std@@V?$allocator@U?$pair@$$CBVioHashString@@PAVioBuff@@@std@@@4@$0A@@std@@@std@@IAEXPAU_Node@?$_Tree_nod@V?$_Tmap_traits@VioHashString@@PAVioBuff@@U?$less@VioHashString@@@std@@V?$allocator@U?$pair@$$CBVioHashString@@PAVioBuff@@@std@@@4@$0A@@std@@@2@@Z
_TEXT	SEGMENT
__Rootnode$ = 8						; size = 4
?_Erase@?$_Tree@V?$_Tmap_traits@VioHashString@@PAVioBuff@@U?$less@VioHashString@@@std@@V?$allocator@U?$pair@$$CBVioHashString@@PAVioBuff@@@std@@@4@$0A@@std@@@std@@IAEXPAU_Node@?$_Tree_nod@V?$_Tmap_traits@VioHashString@@PAVioBuff@@U?$less@VioHashString@@@std@@V?$allocator@U?$pair@$$CBVioHashString@@PAVioBuff@@@std@@@4@$0A@@std@@@2@@Z PROC ; std::_Tree<std::_Tmap_traits<ioHashString,ioBuff *,std::less<ioHashString>,std::allocator<std::pair<ioHashString const ,ioBuff *> >,0> >::_Erase, COMDAT
; _this$ = ecx

; 1610 : 		{	// free entire subtree, recursively

  00000	55		 push	 ebp
  00001	8b ec		 mov	 ebp, esp
  00003	53		 push	 ebx
  00004	56		 push	 esi
  00005	57		 push	 edi

; 1611 : 		for (_Nodeptr _Pnode = _Rootnode;

  00006	8b 7d 08	 mov	 edi, DWORD PTR __Rootnode$[ebp]

; 1612 : 			!this->_Isnil(_Pnode); _Rootnode = _Pnode)

  00009	80 7f 21 00	 cmp	 BYTE PTR [edi+33], 0
  0000d	8b d9		 mov	 ebx, ecx
  0000f	8b f7		 mov	 esi, edi
  00011	75 24		 jne	 SHORT $LN1@Erase
$LL3@Erase:

; 1613 : 			{	// free subtrees, then node
; 1614 : 			_Erase(this->_Right(_Pnode));

  00013	ff 76 08	 push	 DWORD PTR [esi+8]
  00016	8b cb		 mov	 ecx, ebx
  00018	e8 00 00 00 00	 call	 ?_Erase@?$_Tree@V?$_Tmap_traits@VioHashString@@PAVioBuff@@U?$less@VioHashString@@@std@@V?$allocator@U?$pair@$$CBVioHashString@@PAVioBuff@@@std@@@4@$0A@@std@@@std@@IAEXPAU_Node@?$_Tree_nod@V?$_Tmap_traits@VioHashString@@PAVioBuff@@U?$less@VioHashString@@@std@@V?$allocator@U?$pair@$$CBVioHashString@@PAVioBuff@@@std@@@4@$0A@@std@@@2@@Z ; std::_Tree<std::_Tmap_traits<ioHashString,ioBuff *,std::less<ioHashString>,std::allocator<std::pair<ioHashString const ,ioBuff *> >,0> >::_Erase

; 1615 : 			_Pnode = this->_Left(_Pnode);

  0001d	8b 36		 mov	 esi, DWORD PTR [esi]

; 1616 : 			_Dest_val(this->_Alval,
; 1617 : 				_STD addressof(this->_Myval(_Rootnode)));

  0001f	8d 4f 0c	 lea	 ecx, DWORD PTR [edi+12]
  00022	ff 15 00 00 00
	00		 call	 DWORD PTR __imp_??1ioHashString@@QAE@XZ

; 1618 : 
; 1619 : 			this->_Alnod.deallocate(_Rootnode, 1);

  00028	57		 push	 edi
  00029	e8 00 00 00 00	 call	 ??3@YAXPAX@Z		; operator delete
  0002e	80 7e 21 00	 cmp	 BYTE PTR [esi+33], 0
  00032	59		 pop	 ecx
  00033	8b fe		 mov	 edi, esi
  00035	74 dc		 je	 SHORT $LL3@Erase
$LN1@Erase:
  00037	5f		 pop	 edi
  00038	5e		 pop	 esi
  00039	5b		 pop	 ebx

; 1620 : 			}
; 1621 : 		}

  0003a	5d		 pop	 ebp
  0003b	c2 04 00	 ret	 4
?_Erase@?$_Tree@V?$_Tmap_traits@VioHashString@@PAVioBuff@@U?$less@VioHashString@@@std@@V?$allocator@U?$pair@$$CBVioHashString@@PAVioBuff@@@std@@@4@$0A@@std@@@std@@IAEXPAU_Node@?$_Tree_nod@V?$_Tmap_traits@VioHashString@@PAVioBuff@@U?$less@VioHashString@@@std@@V?$allocator@U?$pair@$$CBVioHashString@@PAVioBuff@@@std@@@4@$0A@@std@@@2@@Z ENDP ; std::_Tree<std::_Tmap_traits<ioHashString,ioBuff *,std::less<ioHashString>,std::allocator<std::pair<ioHashString const ,ioBuff *> >,0> >::_Erase
_TEXT	ENDS
PUBLIC	??_C@_0BM@PAPJHAGI@invalid?5map?1set?$DMT?$DO?5iterator?$AA@ ; `string'
PUBLIC	?erase@?$_Tree@V?$_Tmap_traits@VioHashString@@PAVioBuff@@U?$less@VioHashString@@@std@@V?$allocator@U?$pair@$$CBVioHashString@@PAVioBuff@@@std@@@4@$0A@@std@@@std@@QAE?AV?$_Tree_iterator@V?$_Tree_val@V?$_Tmap_traits@VioHashString@@PAVioBuff@@U?$less@VioHashString@@@std@@V?$allocator@U?$pair@$$CBVioHashString@@PAVioBuff@@@std@@@4@$0A@@std@@@std@@@2@V?$_Tree_const_iterator@V?$_Tree_val@V?$_Tmap_traits@VioHashString@@PAVioBuff@@U?$less@VioHashString@@@std@@V?$allocator@U?$pair@$$CBVioHashString@@PAVioBuff@@@std@@@4@$0A@@std@@@std@@@2@@Z ; std::_Tree<std::_Tmap_traits<ioHashString,ioBuff *,std::less<ioHashString>,std::allocator<std::pair<ioHashString const ,ioBuff *> >,0> >::erase
EXTRN	__imp_?_Xout_of_range@std@@YAXPBD@Z:PROC
;	COMDAT ??_C@_0BM@PAPJHAGI@invalid?5map?1set?$DMT?$DO?5iterator?$AA@
; File c:\program files (x86)\microsoft visual studio 10.0\vc\include\xutility
CONST	SEGMENT
??_C@_0BM@PAPJHAGI@invalid?5map?1set?$DMT?$DO?5iterator?$AA@ DB 'invalid '
	DB	'map/set<T> iterator', 00H			; `string'
; Function compile flags: /Ogsp
; File c:\program files (x86)\microsoft visual studio 10.0\vc\include\xtree
CONST	ENDS
;	COMDAT ?erase@?$_Tree@V?$_Tmap_traits@VioHashString@@PAVioBuff@@U?$less@VioHashString@@@std@@V?$allocator@U?$pair@$$CBVioHashString@@PAVioBuff@@@std@@@4@$0A@@std@@@std@@QAE?AV?$_Tree_iterator@V?$_Tree_val@V?$_Tmap_traits@VioHashString@@PAVioBuff@@U?$less@VioHashString@@@std@@V?$allocator@U?$pair@$$CBVioHashString@@PAVioBuff@@@std@@@4@$0A@@std@@@std@@@2@V?$_Tree_const_iterator@V?$_Tree_val@V?$_Tmap_traits@VioHashString@@PAVioBuff@@U?$less@VioHashString@@@std@@V?$allocator@U?$pair@$$CBVioHashString@@PAVioBuff@@@std@@@4@$0A@@std@@@std@@@2@@Z
_TEXT	SEGMENT
_this$ = -4						; size = 4
___$ReturnUdt$ = 8					; size = 4
__Where$ = 12						; size = 4
?erase@?$_Tree@V?$_Tmap_traits@VioHashString@@PAVioBuff@@U?$less@VioHashString@@@std@@V?$allocator@U?$pair@$$CBVioHashString@@PAVioBuff@@@std@@@4@$0A@@std@@@std@@QAE?AV?$_Tree_iterator@V?$_Tree_val@V?$_Tmap_traits@VioHashString@@PAVioBuff@@U?$less@VioHashString@@@std@@V?$allocator@U?$pair@$$CBVioHashString@@PAVioBuff@@@std@@@4@$0A@@std@@@std@@@2@V?$_Tree_const_iterator@V?$_Tree_val@V?$_Tmap_traits@VioHashString@@PAVioBuff@@U?$less@VioHashString@@@std@@V?$allocator@U?$pair@$$CBVioHashString@@PAVioBuff@@@std@@@4@$0A@@std@@@std@@@2@@Z PROC ; std::_Tree<std::_Tmap_traits<ioHashString,ioBuff *,std::less<ioHashString>,std::allocator<std::pair<ioHashString const ,ioBuff *> >,0> >::erase, COMDAT
; _this$ = ecx

; 1195 : 		{	// erase element at _Where

  00000	55		 push	 ebp
  00001	8b ec		 mov	 ebp, esp
  00003	51		 push	 ecx
  00004	53		 push	 ebx
  00005	56		 push	 esi
  00006	57		 push	 edi

; 1196 :  #if _ITERATOR_DEBUG_LEVEL == 2
; 1197 : 		if (_Where._Getcont() != this || this->_Isnil(_Where._Mynode()))
; 1198 : 			_DEBUG_ERROR("map/set erase iterator outside range");
; 1199 : 		_Nodeptr _Erasednode = _Where._Mynode();	// node to erase
; 1200 : 		++_Where;	// save successor iterator for return
; 1201 : 		_Orphan_ptr(*this, _Erasednode);
; 1202 : 
; 1203 :  #else /* _ITERATOR_DEBUG_LEVEL == 2 */
; 1204 : 		if (this->_Isnil(_Where._Mynode()))

  00007	8b 7d 0c	 mov	 edi, DWORD PTR __Where$[ebp]
  0000a	80 7f 21 00	 cmp	 BYTE PTR [edi+33], 0
  0000e	89 4d fc	 mov	 DWORD PTR _this$[ebp], ecx
  00011	74 0b		 je	 SHORT $LN40@erase

; 1205 : 			_Xout_of_range("invalid map/set<T> iterator");

  00013	68 00 00 00 00	 push	 OFFSET ??_C@_0BM@PAPJHAGI@invalid?5map?1set?$DMT?$DO?5iterator?$AA@
  00018	ff 15 00 00 00
	00		 call	 DWORD PTR __imp_?_Xout_of_range@std@@YAXPBD@Z
$LN338@erase:
$LN40@erase:

; 1206 : 		_Nodeptr _Erasednode = _Where._Mynode();	// node to erase
; 1207 : 		++_Where;	// save successor iterator for return

  0001e	8d 4d 0c	 lea	 ecx, DWORD PTR __Where$[ebp]
  00021	e8 00 00 00 00	 call	 ??E?$_Tree_unchecked_const_iterator@V?$_Tree_val@V?$_Tmap_traits@VioHashString@@PAVioBuff@@U?$less@VioHashString@@@std@@V?$allocator@U?$pair@$$CBVioHashString@@PAVioBuff@@@std@@@4@$0A@@std@@@std@@U_Iterator_base0@2@@std@@QAEAAV01@XZ ; std::_Tree_unchecked_const_iterator<std::_Tree_val<std::_Tmap_traits<ioHashString,ioBuff *,std::less<ioHashString>,std::allocator<std::pair<ioHashString const ,ioBuff *> >,0> >,std::_Iterator_base0>::operator++

; 1208 :  #endif /* _ITERATOR_DEBUG_LEVEL == 2 */
; 1209 : 
; 1210 : 		_Nodeptr _Fixnode;	// the node to recolor as needed
; 1211 : 		_Nodeptr _Fixnodeparent;	// parent of _Fixnode (which may be nil)
; 1212 : 		_Nodeptr _Pnode = _Erasednode;
; 1213 : 
; 1214 : 		if (this->_Isnil(this->_Left(_Pnode)))

  00026	8b 17		 mov	 edx, DWORD PTR [edi]
  00028	80 7a 21 00	 cmp	 BYTE PTR [edx+33], 0
  0002c	74 05		 je	 SHORT $LN39@erase

; 1215 : 			_Fixnode = this->_Right(_Pnode);	// stitch up right subtree

  0002e	8b 5f 08	 mov	 ebx, DWORD PTR [edi+8]

; 1216 : 		else if (this->_Isnil(this->_Right(_Pnode)))

  00031	eb 17		 jmp	 SHORT $LN330@erase
$LN39@erase:
  00033	8b 47 08	 mov	 eax, DWORD PTR [edi+8]
  00036	80 78 21 00	 cmp	 BYTE PTR [eax+33], 0
  0003a	74 04		 je	 SHORT $LN37@erase

; 1217 : 			_Fixnode = this->_Left(_Pnode);	// stitch up left subtree

  0003c	8b da		 mov	 ebx, edx

; 1218 : 		else

  0003e	eb 0a		 jmp	 SHORT $LN330@erase
$LN37@erase:

; 1219 : 			{	// two subtrees, must lift successor node to replace erased
; 1220 : 			_Pnode = _Where._Mynode();	// _Pnode is successor node

  00040	8b 45 0c	 mov	 eax, DWORD PTR __Where$[ebp]

; 1221 : 			_Fixnode = this->_Right(_Pnode);	// _Fixnode is only subtree

  00043	8b 58 08	 mov	 ebx, DWORD PTR [eax+8]

; 1222 : 			}
; 1223 : 
; 1224 : 		if (_Pnode == _Erasednode)

  00046	3b c7		 cmp	 eax, edi
  00048	75 76		 jne	 SHORT $LN35@erase
$LN330@erase:

; 1225 : 			{	// at most one subtree, relink it
; 1226 : 			_Fixnodeparent = this->_Parent(_Erasednode);
; 1227 : 			if (!this->_Isnil(_Fixnode))

  0004a	80 7b 21 00	 cmp	 BYTE PTR [ebx+33], 0
  0004e	8b 77 04	 mov	 esi, DWORD PTR [edi+4]
  00051	75 03		 jne	 SHORT $LN34@erase

; 1228 : 				this->_Parent(_Fixnode) = _Fixnodeparent;	// link up

  00053	89 73 04	 mov	 DWORD PTR [ebx+4], esi
$LN34@erase:

; 1229 : 
; 1230 : 			if (_Root() == _Erasednode)

  00056	8b 4d fc	 mov	 ecx, DWORD PTR _this$[ebp]
  00059	8b 41 04	 mov	 eax, DWORD PTR [ecx+4]
  0005c	39 78 04	 cmp	 DWORD PTR [eax+4], edi
  0005f	75 05		 jne	 SHORT $LN33@erase

; 1231 : 				_Root() = _Fixnode;	// link down from root

  00061	89 58 04	 mov	 DWORD PTR [eax+4], ebx

; 1232 : 			else if (this->_Left(_Fixnodeparent) == _Erasednode)

  00064	eb 0b		 jmp	 SHORT $LN30@erase
$LN33@erase:
  00066	39 3e		 cmp	 DWORD PTR [esi], edi
  00068	75 04		 jne	 SHORT $LN31@erase

; 1233 : 				this->_Left(_Fixnodeparent) = _Fixnode;	// link down to left

  0006a	89 1e		 mov	 DWORD PTR [esi], ebx

; 1234 : 			else

  0006c	eb 03		 jmp	 SHORT $LN30@erase
$LN31@erase:

; 1235 : 				this->_Right(_Fixnodeparent) =
; 1236 : 					_Fixnode;	// link down to right

  0006e	89 5e 08	 mov	 DWORD PTR [esi+8], ebx
$LN30@erase:

; 1237 : 
; 1238 : 			if (_Lmost() == _Erasednode)

  00071	8b 49 04	 mov	 ecx, DWORD PTR [ecx+4]
  00074	39 39		 cmp	 DWORD PTR [ecx], edi
  00076	75 1c		 jne	 SHORT $LN29@erase

; 1239 : 				_Lmost() = this->_Isnil(_Fixnode)
; 1240 : 					? _Fixnodeparent	// smallest is parent of erased node
; 1241 : 					: this->_Min(_Fixnode);	// smallest in relinked subtree

  00078	80 7b 21 00	 cmp	 BYTE PTR [ebx+33], 0
  0007c	74 04		 je	 SHORT $LN43@erase
  0007e	8b d6		 mov	 edx, esi
  00080	eb 10		 jmp	 SHORT $LN97@erase
$LN43@erase:
  00082	8b 03		 mov	 eax, DWORD PTR [ebx]
  00084	8b d3		 mov	 edx, ebx
  00086	eb 04		 jmp	 SHORT $LN332@erase
$LL98@erase:
  00088	8b d0		 mov	 edx, eax
  0008a	8b 02		 mov	 eax, DWORD PTR [edx]
$LN332@erase:
  0008c	80 78 21 00	 cmp	 BYTE PTR [eax+33], 0
  00090	74 f6		 je	 SHORT $LL98@erase
$LN97@erase:
  00092	89 11		 mov	 DWORD PTR [ecx], edx
$LN29@erase:

; 1242 : 
; 1243 : 			if (_Rmost() == _Erasednode)

  00094	8b 45 fc	 mov	 eax, DWORD PTR _this$[ebp]
  00097	8b 48 04	 mov	 ecx, DWORD PTR [eax+4]
  0009a	39 79 08	 cmp	 DWORD PTR [ecx+8], edi
  0009d	75 7b		 jne	 SHORT $LN185@erase

; 1244 : 				_Rmost() = this->_Isnil(_Fixnode)
; 1245 : 					? _Fixnodeparent	// largest is parent of erased node
; 1246 : 					: this->_Max(_Fixnode);	// largest in relinked subtree

  0009f	80 7b 21 00	 cmp	 BYTE PTR [ebx+33], 0
  000a3	74 04		 je	 SHORT $LN45@erase
  000a5	8b d6		 mov	 edx, esi
  000a7	eb 12		 jmp	 SHORT $LN117@erase
$LN45@erase:
  000a9	8b 43 08	 mov	 eax, DWORD PTR [ebx+8]
  000ac	8b d3		 mov	 edx, ebx
  000ae	eb 05		 jmp	 SHORT $LN333@erase
$LL118@erase:
  000b0	8b d0		 mov	 edx, eax
  000b2	8b 42 08	 mov	 eax, DWORD PTR [edx+8]
$LN333@erase:
  000b5	80 78 21 00	 cmp	 BYTE PTR [eax+33], 0
  000b9	74 f5		 je	 SHORT $LL118@erase
$LN117@erase:
  000bb	89 51 08	 mov	 DWORD PTR [ecx+8], edx

; 1247 : 			}
; 1248 : 		else

  000be	eb 5a		 jmp	 SHORT $LN185@erase
$LN35@erase:

; 1249 : 			{	// erased has two subtrees, _Pnode is successor to erased
; 1250 : 			this->_Parent(this->_Left(_Erasednode)) =
; 1251 : 				_Pnode;	// link left up

  000c0	89 42 04	 mov	 DWORD PTR [edx+4], eax

; 1252 : 			this->_Left(_Pnode) =
; 1253 : 				this->_Left(_Erasednode);	// link successor down

  000c3	8b 17		 mov	 edx, DWORD PTR [edi]
  000c5	89 10		 mov	 DWORD PTR [eax], edx

; 1254 : 
; 1255 : 			if (_Pnode == this->_Right(_Erasednode))

  000c7	3b 47 08	 cmp	 eax, DWORD PTR [edi+8]
  000ca	75 04		 jne	 SHORT $LN26@erase

; 1256 : 				_Fixnodeparent = _Pnode;	// successor is next to erased

  000cc	8b f0		 mov	 esi, eax

; 1257 : 			else

  000ce	eb 1a		 jmp	 SHORT $LN25@erase
$LN26@erase:

; 1258 : 				{	// successor further down, link in place of erased
; 1259 : 				_Fixnodeparent =
; 1260 : 					this->_Parent(_Pnode);	// parent is successor's
; 1261 : 				if (!this->_Isnil(_Fixnode))

  000d0	80 7b 21 00	 cmp	 BYTE PTR [ebx+33], 0
  000d4	8b 70 04	 mov	 esi, DWORD PTR [eax+4]
  000d7	75 03		 jne	 SHORT $LN24@erase

; 1262 : 					this->_Parent(_Fixnode) = _Fixnodeparent;	// link fix up

  000d9	89 73 04	 mov	 DWORD PTR [ebx+4], esi
$LN24@erase:

; 1263 : 				this->_Left(_Fixnodeparent) = _Fixnode;	// link fix down

  000dc	89 1e		 mov	 DWORD PTR [esi], ebx

; 1264 : 				this->_Right(_Pnode) =
; 1265 : 					this->_Right(_Erasednode);	// link next down

  000de	8b 57 08	 mov	 edx, DWORD PTR [edi+8]
  000e1	89 50 08	 mov	 DWORD PTR [eax+8], edx

; 1266 : 				this->_Parent(this->_Right(_Erasednode)) =
; 1267 : 					_Pnode;	// right up

  000e4	8b 4f 08	 mov	 ecx, DWORD PTR [edi+8]
  000e7	89 41 04	 mov	 DWORD PTR [ecx+4], eax
$LN25@erase:

; 1268 : 				}
; 1269 : 
; 1270 : 			if (_Root() == _Erasednode)

  000ea	8b 4d fc	 mov	 ecx, DWORD PTR _this$[ebp]
  000ed	8b 49 04	 mov	 ecx, DWORD PTR [ecx+4]
  000f0	39 79 04	 cmp	 DWORD PTR [ecx+4], edi
  000f3	75 05		 jne	 SHORT $LN23@erase

; 1271 : 				_Root() = _Pnode;	// link down from root

  000f5	89 41 04	 mov	 DWORD PTR [ecx+4], eax

; 1272 : 			else if (this->_Left(this->_Parent(_Erasednode)) == _Erasednode)

  000f8	eb 0e		 jmp	 SHORT $LN20@erase
$LN23@erase:
  000fa	8b 4f 04	 mov	 ecx, DWORD PTR [edi+4]
  000fd	39 39		 cmp	 DWORD PTR [ecx], edi
  000ff	75 04		 jne	 SHORT $LN21@erase

; 1273 : 				this->_Left(this->_Parent(_Erasednode)) =
; 1274 : 					_Pnode;	// link down to left

  00101	89 01		 mov	 DWORD PTR [ecx], eax

; 1275 : 			else

  00103	eb 03		 jmp	 SHORT $LN20@erase
$LN21@erase:

; 1276 : 				this->_Right(this->_Parent(_Erasednode)) =
; 1277 : 					_Pnode;	// link down to right

  00105	89 41 08	 mov	 DWORD PTR [ecx+8], eax
$LN20@erase:

; 1278 : 
; 1279 : 			this->_Parent(_Pnode) =
; 1280 : 				this->_Parent(_Erasednode);	// link successor up

  00108	8b 4f 04	 mov	 ecx, DWORD PTR [edi+4]
  0010b	89 48 04	 mov	 DWORD PTR [eax+4], ecx

; 1281 : 			_STD swap(this->_Color(_Pnode),
; 1282 : 				this->_Color(_Erasednode));	// recolor it

  0010e	8a 57 20	 mov	 dl, BYTE PTR [edi+32]
  00111	8a 48 20	 mov	 cl, BYTE PTR [eax+32]
  00114	88 50 20	 mov	 BYTE PTR [eax+32], dl
  00117	88 4f 20	 mov	 BYTE PTR [edi+32], cl
$LN185@erase:

; 1283 : 			}
; 1284 : 
; 1285 : 		if (this->_Color(_Erasednode) == this->_Black)

  0011a	80 7f 20 01	 cmp	 BYTE PTR [edi+32], 1
  0011e	0f 85 03 01 00
	00		 jne	 $LN19@erase

; 1286 : 			{	// erasing black link, must recolor/rebalance tree
; 1287 : 			for (; _Fixnode != _Root()
; 1288 : 				&& this->_Color(_Fixnode) == this->_Black;
; 1289 : 				_Fixnodeparent = this->_Parent(_Fixnode))

  00124	e9 b2 00 00 00	 jmp	 $LN335@erase
$LL18@erase:
  00129	80 7b 20 01	 cmp	 BYTE PTR [ebx+32], 1
  0012d	0f 85 f0 00 00
	00		 jne	 $LN16@erase

; 1290 : 				if (_Fixnode == this->_Left(_Fixnodeparent))

  00133	8b 06		 mov	 eax, DWORD PTR [esi]
  00135	3b d8		 cmp	 ebx, eax
  00137	75 6c		 jne	 SHORT $LN15@erase

; 1291 : 					{	// fixup left subtree
; 1292 : 					_Pnode = this->_Right(_Fixnodeparent);

  00139	8b 46 08	 mov	 eax, DWORD PTR [esi+8]

; 1293 : 					if (this->_Color(_Pnode) == this->_Red)

  0013c	80 78 20 00	 cmp	 BYTE PTR [eax+32], 0
  00140	75 11		 jne	 SHORT $LN14@erase

; 1294 : 						{	// rotate red up from right subtree
; 1295 : 						this->_Color(_Pnode) = this->_Black;

  00142	c6 40 20 01	 mov	 BYTE PTR [eax+32], 1

; 1296 : 						this->_Color(_Fixnodeparent) = this->_Red;
; 1297 : 						_Lrotate(_Fixnodeparent);

  00146	56		 push	 esi
  00147	c6 46 20 00	 mov	 BYTE PTR [esi+32], 0
  0014b	e8 00 00 00 00	 call	 ?_Lrotate@?$_Tree@V?$_Tmap_traits@VioHashString@@PAVioBuff@@U?$less@VioHashString@@@std@@V?$allocator@U?$pair@$$CBVioHashString@@PAVioBuff@@@std@@@4@$0A@@std@@@std@@IAEXPAU_Node@?$_Tree_nod@V?$_Tmap_traits@VioHashString@@PAVioBuff@@U?$less@VioHashString@@@std@@V?$allocator@U?$pair@$$CBVioHashString@@PAVioBuff@@@std@@@4@$0A@@std@@@2@@Z ; std::_Tree<std::_Tmap_traits<ioHashString,ioBuff *,std::less<ioHashString>,std::allocator<std::pair<ioHashString const ,ioBuff *> >,0> >::_Lrotate

; 1298 : 						_Pnode = this->_Right(_Fixnodeparent);

  00150	8b 46 08	 mov	 eax, DWORD PTR [esi+8]
$LN14@erase:

; 1299 : 						}
; 1300 : 
; 1301 : 					if (this->_Isnil(_Pnode))

  00153	80 78 21 00	 cmp	 BYTE PTR [eax+33], 0

; 1302 : 						_Fixnode = _Fixnodeparent;	// shouldn't happen
; 1303 : 					else if (this->_Color(this->_Left(_Pnode)) == this->_Black

  00157	75 7d		 jne	 SHORT $LN336@erase

; 1304 : 						&& this->_Color(this->_Right(_Pnode)) == this->_Black)

  00159	8b 08		 mov	 ecx, DWORD PTR [eax]
  0015b	80 79 20 01	 cmp	 BYTE PTR [ecx+32], 1
  0015f	75 09		 jne	 SHORT $LN11@erase
  00161	8b 48 08	 mov	 ecx, DWORD PTR [eax+8]
  00164	80 79 20 01	 cmp	 BYTE PTR [ecx+32], 1
  00168	74 68		 je	 SHORT $LN337@erase
$LN11@erase:

; 1305 : 						{	// redden right subtree with black children
; 1306 : 						this->_Color(_Pnode) = this->_Red;
; 1307 : 						_Fixnode = _Fixnodeparent;
; 1308 : 						}
; 1309 : 					else
; 1310 : 						{	// must rearrange right subtree
; 1311 : 						if (this->_Color(this->_Right(_Pnode))
; 1312 : 							== this->_Black)

  0016a	8b 48 08	 mov	 ecx, DWORD PTR [eax+8]
  0016d	80 79 20 01	 cmp	 BYTE PTR [ecx+32], 1
  00171	75 16		 jne	 SHORT $LN9@erase

; 1313 : 							{	// rotate red up from left sub-subtree
; 1314 : 							this->_Color(this->_Left(_Pnode)) = this->_Black;

  00173	8b 08		 mov	 ecx, DWORD PTR [eax]
  00175	c6 41 20 01	 mov	 BYTE PTR [ecx+32], 1

; 1315 : 							this->_Color(_Pnode) = this->_Red;
; 1316 : 							_Rrotate(_Pnode);

  00179	8b 4d fc	 mov	 ecx, DWORD PTR _this$[ebp]
  0017c	50		 push	 eax
  0017d	c6 40 20 00	 mov	 BYTE PTR [eax+32], 0
  00181	e8 00 00 00 00	 call	 ?_Rrotate@?$_Tree@V?$_Tmap_traits@VioHashString@@PAVioBuff@@U?$less@VioHashString@@@std@@V?$allocator@U?$pair@$$CBVioHashString@@PAVioBuff@@@std@@@4@$0A@@std@@@std@@IAEXPAU_Node@?$_Tree_nod@V?$_Tmap_traits@VioHashString@@PAVioBuff@@U?$less@VioHashString@@@std@@V?$allocator@U?$pair@$$CBVioHashString@@PAVioBuff@@@std@@@4@$0A@@std@@@2@@Z ; std::_Tree<std::_Tmap_traits<ioHashString,ioBuff *,std::less<ioHashString>,std::allocator<std::pair<ioHashString const ,ioBuff *> >,0> >::_Rrotate

; 1317 : 							_Pnode = this->_Right(_Fixnodeparent);

  00186	8b 46 08	 mov	 eax, DWORD PTR [esi+8]
$LN9@erase:

; 1318 : 							}
; 1319 : 
; 1320 : 						this->_Color(_Pnode) = this->_Color(_Fixnodeparent);

  00189	8a 4e 20	 mov	 cl, BYTE PTR [esi+32]
  0018c	88 48 20	 mov	 BYTE PTR [eax+32], cl

; 1321 : 						this->_Color(_Fixnodeparent) = this->_Black;
; 1322 : 						this->_Color(this->_Right(_Pnode)) = this->_Black;
; 1323 : 						_Lrotate(_Fixnodeparent);

  0018f	8b 4d fc	 mov	 ecx, DWORD PTR _this$[ebp]
  00192	c6 46 20 01	 mov	 BYTE PTR [esi+32], 1
  00196	8b 40 08	 mov	 eax, DWORD PTR [eax+8]
  00199	56		 push	 esi
  0019a	c6 40 20 01	 mov	 BYTE PTR [eax+32], 1
  0019e	e8 00 00 00 00	 call	 ?_Lrotate@?$_Tree@V?$_Tmap_traits@VioHashString@@PAVioBuff@@U?$less@VioHashString@@@std@@V?$allocator@U?$pair@$$CBVioHashString@@PAVioBuff@@@std@@@4@$0A@@std@@@std@@IAEXPAU_Node@?$_Tree_nod@V?$_Tmap_traits@VioHashString@@PAVioBuff@@U?$less@VioHashString@@@std@@V?$allocator@U?$pair@$$CBVioHashString@@PAVioBuff@@@std@@@4@$0A@@std@@@2@@Z ; std::_Tree<std::_Tmap_traits<ioHashString,ioBuff *,std::less<ioHashString>,std::allocator<std::pair<ioHashString const ,ioBuff *> >,0> >::_Lrotate

; 1324 : 						break;	// tree now recolored/rebalanced

  001a3	eb 7e		 jmp	 SHORT $LN16@erase
$LN15@erase:

; 1325 : 						}
; 1326 : 					}
; 1327 : 				else
; 1328 : 					{	// fixup right subtree
; 1329 : 					_Pnode = this->_Left(_Fixnodeparent);
; 1330 : 					if (this->_Color(_Pnode) == this->_Red)

  001a5	80 78 20 00	 cmp	 BYTE PTR [eax+32], 0
  001a9	75 10		 jne	 SHORT $LN7@erase

; 1331 : 						{	// rotate red up from left subtree
; 1332 : 						this->_Color(_Pnode) = this->_Black;

  001ab	c6 40 20 01	 mov	 BYTE PTR [eax+32], 1

; 1333 : 						this->_Color(_Fixnodeparent) = this->_Red;
; 1334 : 						_Rrotate(_Fixnodeparent);

  001af	56		 push	 esi
  001b0	c6 46 20 00	 mov	 BYTE PTR [esi+32], 0
  001b4	e8 00 00 00 00	 call	 ?_Rrotate@?$_Tree@V?$_Tmap_traits@VioHashString@@PAVioBuff@@U?$less@VioHashString@@@std@@V?$allocator@U?$pair@$$CBVioHashString@@PAVioBuff@@@std@@@4@$0A@@std@@@std@@IAEXPAU_Node@?$_Tree_nod@V?$_Tmap_traits@VioHashString@@PAVioBuff@@U?$less@VioHashString@@@std@@V?$allocator@U?$pair@$$CBVioHashString@@PAVioBuff@@@std@@@4@$0A@@std@@@2@@Z ; std::_Tree<std::_Tmap_traits<ioHashString,ioBuff *,std::less<ioHashString>,std::allocator<std::pair<ioHashString const ,ioBuff *> >,0> >::_Rrotate

; 1335 : 						_Pnode = this->_Left(_Fixnodeparent);

  001b9	8b 06		 mov	 eax, DWORD PTR [esi]
$LN7@erase:

; 1336 : 						}
; 1337 : 					if (this->_Isnil(_Pnode))

  001bb	80 78 21 00	 cmp	 BYTE PTR [eax+33], 0

; 1338 : 						_Fixnode = _Fixnodeparent;	// shouldn't happen
; 1339 : 					else if (this->_Color(this->_Right(_Pnode)) ==

  001bf	75 15		 jne	 SHORT $LN336@erase

; 1340 : 						this->_Black
; 1341 : 						&& this->_Color(this->_Left(_Pnode)) == this->_Black)

  001c1	8b 48 08	 mov	 ecx, DWORD PTR [eax+8]
  001c4	80 79 20 01	 cmp	 BYTE PTR [ecx+32], 1
  001c8	75 22		 jne	 SHORT $LN4@erase
  001ca	8b 08		 mov	 ecx, DWORD PTR [eax]
  001cc	80 79 20 01	 cmp	 BYTE PTR [ecx+32], 1
  001d0	75 1a		 jne	 SHORT $LN4@erase
$LN337@erase:

; 1342 : 						{	// redden left subtree with black children
; 1343 : 						this->_Color(_Pnode) = this->_Red;

  001d2	c6 40 20 00	 mov	 BYTE PTR [eax+32], 0
$LN336@erase:

; 1344 : 						_Fixnode = _Fixnodeparent;

  001d6	8b de		 mov	 ebx, esi
  001d8	8b 76 04	 mov	 esi, DWORD PTR [esi+4]
$LN335@erase:

; 1286 : 			{	// erasing black link, must recolor/rebalance tree
; 1287 : 			for (; _Fixnode != _Root()
; 1288 : 				&& this->_Color(_Fixnode) == this->_Black;
; 1289 : 				_Fixnodeparent = this->_Parent(_Fixnode))

  001db	8b 4d fc	 mov	 ecx, DWORD PTR _this$[ebp]
  001de	8b 41 04	 mov	 eax, DWORD PTR [ecx+4]
  001e1	3b 58 04	 cmp	 ebx, DWORD PTR [eax+4]
  001e4	0f 85 3f ff ff
	ff		 jne	 $LL18@erase
  001ea	eb 37		 jmp	 SHORT $LN16@erase
$LN4@erase:

; 1345 : 						}
; 1346 : 					else
; 1347 : 						{	// must rearrange left subtree
; 1348 : 						if (this->_Color(this->_Left(_Pnode)) == this->_Black)

  001ec	8b 08		 mov	 ecx, DWORD PTR [eax]
  001ee	80 79 20 01	 cmp	 BYTE PTR [ecx+32], 1
  001f2	75 16		 jne	 SHORT $LN2@erase

; 1349 : 							{	// rotate red up from right sub-subtree
; 1350 : 							this->_Color(this->_Right(_Pnode)) = this->_Black;

  001f4	8b 48 08	 mov	 ecx, DWORD PTR [eax+8]
  001f7	c6 41 20 01	 mov	 BYTE PTR [ecx+32], 1

; 1351 : 							this->_Color(_Pnode) = this->_Red;
; 1352 : 							_Lrotate(_Pnode);

  001fb	8b 4d fc	 mov	 ecx, DWORD PTR _this$[ebp]
  001fe	50		 push	 eax
  001ff	c6 40 20 00	 mov	 BYTE PTR [eax+32], 0
  00203	e8 00 00 00 00	 call	 ?_Lrotate@?$_Tree@V?$_Tmap_traits@VioHashString@@PAVioBuff@@U?$less@VioHashString@@@std@@V?$allocator@U?$pair@$$CBVioHashString@@PAVioBuff@@@std@@@4@$0A@@std@@@std@@IAEXPAU_Node@?$_Tree_nod@V?$_Tmap_traits@VioHashString@@PAVioBuff@@U?$less@VioHashString@@@std@@V?$allocator@U?$pair@$$CBVioHashString@@PAVioBuff@@@std@@@4@$0A@@std@@@2@@Z ; std::_Tree<std::_Tmap_traits<ioHashString,ioBuff *,std::less<ioHashString>,std::allocator<std::pair<ioHashString const ,ioBuff *> >,0> >::_Lrotate

; 1353 : 							_Pnode = this->_Left(_Fixnodeparent);

  00208	8b 06		 mov	 eax, DWORD PTR [esi]
$LN2@erase:

; 1354 : 							}
; 1355 : 
; 1356 : 						this->_Color(_Pnode) = this->_Color(_Fixnodeparent);

  0020a	8a 4e 20	 mov	 cl, BYTE PTR [esi+32]
  0020d	88 48 20	 mov	 BYTE PTR [eax+32], cl

; 1357 : 						this->_Color(_Fixnodeparent) = this->_Black;
; 1358 : 						this->_Color(this->_Left(_Pnode)) = this->_Black;
; 1359 : 						_Rrotate(_Fixnodeparent);

  00210	8b 4d fc	 mov	 ecx, DWORD PTR _this$[ebp]
  00213	c6 46 20 01	 mov	 BYTE PTR [esi+32], 1
  00217	8b 00		 mov	 eax, DWORD PTR [eax]
  00219	56		 push	 esi
  0021a	c6 40 20 01	 mov	 BYTE PTR [eax+32], 1
  0021e	e8 00 00 00 00	 call	 ?_Rrotate@?$_Tree@V?$_Tmap_traits@VioHashString@@PAVioBuff@@U?$less@VioHashString@@@std@@V?$allocator@U?$pair@$$CBVioHashString@@PAVioBuff@@@std@@@4@$0A@@std@@@std@@IAEXPAU_Node@?$_Tree_nod@V?$_Tmap_traits@VioHashString@@PAVioBuff@@U?$less@VioHashString@@@std@@V?$allocator@U?$pair@$$CBVioHashString@@PAVioBuff@@@std@@@4@$0A@@std@@@2@@Z ; std::_Tree<std::_Tmap_traits<ioHashString,ioBuff *,std::less<ioHashString>,std::allocator<std::pair<ioHashString const ,ioBuff *> >,0> >::_Rrotate
$LN16@erase:

; 1360 : 						break;	// tree now recolored/rebalanced
; 1361 : 						}
; 1362 : 					}
; 1363 : 
; 1364 : 			this->_Color(_Fixnode) = this->_Black;	// stopping node is black

  00223	c6 43 20 01	 mov	 BYTE PTR [ebx+32], 1
$LN19@erase:

; 1365 : 			}
; 1366 : 
; 1367 : 		_Dest_val(this->_Alval,
; 1368 : 			_STD addressof(this->_Myval(_Erasednode)));	// delete erased node

  00227	8d 4f 0c	 lea	 ecx, DWORD PTR [edi+12]
  0022a	ff 15 00 00 00
	00		 call	 DWORD PTR __imp_??1ioHashString@@QAE@XZ

; 1369 : 
; 1370 : 		this->_Alnod.deallocate(_Erasednode, 1);

  00230	57		 push	 edi
  00231	e8 00 00 00 00	 call	 ??3@YAXPAX@Z		; operator delete
  00236	59		 pop	 ecx

; 1371 : 
; 1372 : 		if (0 < this->_Mysize)

  00237	8b 4d fc	 mov	 ecx, DWORD PTR _this$[ebp]
  0023a	8b 41 08	 mov	 eax, DWORD PTR [ecx+8]
  0023d	5f		 pop	 edi
  0023e	5e		 pop	 esi
  0023f	5b		 pop	 ebx
  00240	85 c0		 test	 eax, eax
  00242	74 04		 je	 SHORT $LN1@erase

; 1373 : 			--this->_Mysize;

  00244	48		 dec	 eax
  00245	89 41 08	 mov	 DWORD PTR [ecx+8], eax
$LN1@erase:

; 1374 : 
; 1375 : 		return (iterator(_Where._Ptr, this));	// return successor iterator

  00248	8b 45 08	 mov	 eax, DWORD PTR ___$ReturnUdt$[ebp]
  0024b	8b 4d 0c	 mov	 ecx, DWORD PTR __Where$[ebp]
  0024e	89 08		 mov	 DWORD PTR [eax], ecx

; 1376 : 		}

  00250	c9		 leave
  00251	c2 08 00	 ret	 8
$LN331@erase:
?erase@?$_Tree@V?$_Tmap_traits@VioHashString@@PAVioBuff@@U?$less@VioHashString@@@std@@V?$allocator@U?$pair@$$CBVioHashString@@PAVioBuff@@@std@@@4@$0A@@std@@@std@@QAE?AV?$_Tree_iterator@V?$_Tree_val@V?$_Tmap_traits@VioHashString@@PAVioBuff@@U?$less@VioHashString@@@std@@V?$allocator@U?$pair@$$CBVioHashString@@PAVioBuff@@@std@@@4@$0A@@std@@@std@@@2@V?$_Tree_const_iterator@V?$_Tree_val@V?$_Tmap_traits@VioHashString@@PAVioBuff@@U?$less@VioHashString@@@std@@V?$allocator@U?$pair@$$CBVioHashString@@PAVioBuff@@@std@@@4@$0A@@std@@@std@@@2@@Z ENDP ; std::_Tree<std::_Tmap_traits<ioHashString,ioBuff *,std::less<ioHashString>,std::allocator<std::pair<ioHashString const ,ioBuff *> >,0> >::erase
_TEXT	ENDS
PUBLIC	?_Linsert@?$_Tree@V?$_Tmap_traits@VioHashString@@PAVioBuff@@U?$less@VioHashString@@@std@@V?$allocator@U?$pair@$$CBVioHashString@@PAVioBuff@@@std@@@4@$0A@@std@@@std@@QAE?AU?$pair@V?$_Tree_iterator@V?$_Tree_val@V?$_Tmap_traits@VioHashString@@PAVioBuff@@U?$less@VioHashString@@@std@@V?$allocator@U?$pair@$$CBVioHashString@@PAVioBuff@@@std@@@4@$0A@@std@@@std@@@std@@_N@2@PAU_Node@?$_Tree_nod@V?$_Tmap_traits@VioHashString@@PAVioBuff@@U?$less@VioHashString@@@std@@V?$allocator@U?$pair@$$CBVioHashString@@PAVioBuff@@@std@@@4@$0A@@std@@@2@_N@Z ; std::_Tree<std::_Tmap_traits<ioHashString,ioBuff *,std::less<ioHashString>,std::allocator<std::pair<ioHashString const ,ioBuff *> >,0> >::_Linsert
; Function compile flags: /Ogsp
;	COMDAT ?_Linsert@?$_Tree@V?$_Tmap_traits@VioHashString@@PAVioBuff@@U?$less@VioHashString@@@std@@V?$allocator@U?$pair@$$CBVioHashString@@PAVioBuff@@@std@@@4@$0A@@std@@@std@@QAE?AU?$pair@V?$_Tree_iterator@V?$_Tree_val@V?$_Tmap_traits@VioHashString@@PAVioBuff@@U?$less@VioHashString@@@std@@V?$allocator@U?$pair@$$CBVioHashString@@PAVioBuff@@@std@@@4@$0A@@std@@@std@@@std@@_N@2@PAU_Node@?$_Tree_nod@V?$_Tmap_traits@VioHashString@@PAVioBuff@@U?$less@VioHashString@@@std@@V?$allocator@U?$pair@$$CBVioHashString@@PAVioBuff@@@std@@@4@$0A@@std@@@2@_N@Z
_TEXT	SEGMENT
__Addleft$ = -8						; size = 1
__Wherenode$ = -4					; size = 4
___$ReturnUdt$ = 8					; size = 4
__Node$ = 12						; size = 4
$T533113 = 16						; size = 4
__Where$528618 = 16					; size = 4
__Leftish$ = 16						; size = 1
?_Linsert@?$_Tree@V?$_Tmap_traits@VioHashString@@PAVioBuff@@U?$less@VioHashString@@@std@@V?$allocator@U?$pair@$$CBVioHashString@@PAVioBuff@@@std@@@4@$0A@@std@@@std@@QAE?AU?$pair@V?$_Tree_iterator@V?$_Tree_val@V?$_Tmap_traits@VioHashString@@PAVioBuff@@U?$less@VioHashString@@@std@@V?$allocator@U?$pair@$$CBVioHashString@@PAVioBuff@@@std@@@4@$0A@@std@@@std@@@std@@_N@2@PAU_Node@?$_Tree_nod@V?$_Tmap_traits@VioHashString@@PAVioBuff@@U?$less@VioHashString@@@std@@V?$allocator@U?$pair@$$CBVioHashString@@PAVioBuff@@@std@@@4@$0A@@std@@@2@_N@Z PROC ; std::_Tree<std::_Tmap_traits<ioHashString,ioBuff *,std::less<ioHashString>,std::allocator<std::pair<ioHashString const ,ioBuff *> >,0> >::_Linsert, COMDAT
; _this$ = ecx

; 944  : 		{	// try to insert node at _Node, on left if _Leftish

  00000	55		 push	 ebp
  00001	8b ec		 mov	 ebp, esp
  00003	51		 push	 ecx
  00004	51		 push	 ecx
  00005	53		 push	 ebx

; 945  : 		const value_type& _Val = this->_Myval(_Node);

  00006	8b 5d 0c	 mov	 ebx, DWORD PTR __Node$[ebp]
  00009	56		 push	 esi
  0000a	57		 push	 edi
  0000b	8b f9		 mov	 edi, ecx

; 946  : 
; 947  : 		_Nodeptr _Trynode = _Root();

  0000d	8b 47 04	 mov	 eax, DWORD PTR [edi+4]
  00010	8b 70 04	 mov	 esi, DWORD PTR [eax+4]

; 948  : 		_Nodeptr _Wherenode = this->_Myhead;

  00013	89 45 fc	 mov	 DWORD PTR __Wherenode$[ebp], eax

; 949  : 		bool _Addleft = true;	// add to left of head if tree empty

  00016	b0 01		 mov	 al, 1
  00018	83 c3 0c	 add	 ebx, 12			; 0000000cH
  0001b	88 45 f8	 mov	 BYTE PTR __Addleft$[ebp], al
  0001e	eb 35		 jmp	 SHORT $LN160@Linsert
$LL12@Linsert:

; 951  : 			{	// look for leaf to insert before (_Addleft) or after
; 952  : 			_Wherenode = _Trynode;
; 953  : 			if (_Leftish)

  00020	80 7d 10 00	 cmp	 BYTE PTR __Leftish$[ebp], 0
  00024	89 75 fc	 mov	 DWORD PTR __Wherenode$[ebp], esi
  00027	74 12		 je	 SHORT $LN10@Linsert

; 954  : 				_Addleft = !_DEBUG_LT_PRED(this->comp,

  00029	53		 push	 ebx
  0002a	8d 4e 0c	 lea	 ecx, DWORD PTR [esi+12]
  0002d	ff 15 00 00 00
	00		 call	 DWORD PTR __imp_??MioHashString@@QBE_NABV0@@Z
  00033	f6 d8		 neg	 al
  00035	1a c0		 sbb	 al, al
  00037	fe c0		 inc	 al

; 955  : 					this->_Key(_Trynode),
; 956  : 					this->_Kfn(_Val));	// favor left end
; 957  : 			else

  00039	eb 0c		 jmp	 SHORT $LN161@Linsert
$LN10@Linsert:

; 958  : 				_Addleft = _DEBUG_LT_PRED(this->comp,

  0003b	8d 46 0c	 lea	 eax, DWORD PTR [esi+12]
  0003e	50		 push	 eax
  0003f	8b cb		 mov	 ecx, ebx
  00041	ff 15 00 00 00
	00		 call	 DWORD PTR __imp_??MioHashString@@QBE_NABV0@@Z
$LN161@Linsert:
  00047	88 45 f8	 mov	 BYTE PTR __Addleft$[ebp], al

; 959  : 					this->_Kfn(_Val),
; 960  : 					this->_Key(_Trynode));	// favor right end
; 961  : 			_Trynode = _Addleft ? this->_Left(_Trynode)
; 962  : 				: this->_Right(_Trynode);

  0004a	84 c0		 test	 al, al
  0004c	74 04		 je	 SHORT $LN15@Linsert
  0004e	8b 36		 mov	 esi, DWORD PTR [esi]
  00050	eb 03		 jmp	 SHORT $LN160@Linsert
$LN15@Linsert:
  00052	8b 76 08	 mov	 esi, DWORD PTR [esi+8]
$LN160@Linsert:

; 950  : 		while (!this->_Isnil(_Trynode))

  00055	80 7e 21 00	 cmp	 BYTE PTR [esi+33], 0
  00059	74 c5		 je	 SHORT $LL12@Linsert

; 963  : 			}
; 964  : 
; 965  : 		if (this->_Multi)
; 966  : 			return (_Pairib(_Insert(_Addleft, _Wherenode, _Node), true));
; 967  : 		else
; 968  : 			{	// insert only if unique
; 969  : 			iterator _Where = iterator(_Wherenode, this);

  0005b	8b 75 fc	 mov	 esi, DWORD PTR __Wherenode$[ebp]
  0005e	89 75 10	 mov	 DWORD PTR __Where$528618[ebp], esi

; 970  : 			if (!_Addleft)

  00061	84 c0		 test	 al, al
  00063	74 30		 je	 SHORT $LN99@Linsert

; 971  : 				;	// need to test if insert after is okay
; 972  : 			else if (_Where == begin())

  00065	8b 47 04	 mov	 eax, DWORD PTR [edi+4]
  00068	3b 30		 cmp	 esi, DWORD PTR [eax]
  0006a	75 1e		 jne	 SHORT $LN4@Linsert

; 973  : 				return (_Pairib(_Insert(true, _Wherenode, _Node), true));

  0006c	ff 75 0c	 push	 DWORD PTR __Node$[ebp]
  0006f	56		 push	 esi
  00070	6a 01		 push	 1
$LN162@Linsert:
  00072	8d 45 10	 lea	 eax, DWORD PTR $T533113[ebp]
  00075	50		 push	 eax
  00076	8b cf		 mov	 ecx, edi
  00078	e8 00 00 00 00	 call	 ?_Insert@?$_Tree@V?$_Tmap_traits@VioHashString@@PAVioBuff@@U?$less@VioHashString@@@std@@V?$allocator@U?$pair@$$CBVioHashString@@PAVioBuff@@@std@@@4@$0A@@std@@@std@@IAE?AV?$_Tree_iterator@V?$_Tree_val@V?$_Tmap_traits@VioHashString@@PAVioBuff@@U?$less@VioHashString@@@std@@V?$allocator@U?$pair@$$CBVioHashString@@PAVioBuff@@@std@@@4@$0A@@std@@@std@@@2@_NPAU_Node@?$_Tree_nod@V?$_Tmap_traits@VioHashString@@PAVioBuff@@U?$less@VioHashString@@@std@@V?$allocator@U?$pair@$$CBVioHashString@@PAVioBuff@@@std@@@4@$0A@@std@@@2@1@Z ; std::_Tree<std::_Tmap_traits<ioHashString,ioBuff *,std::less<ioHashString>,std::allocator<std::pair<ioHashString const ,ioBuff *> >,0> >::_Insert
  0007d	8b 08		 mov	 ecx, DWORD PTR [eax]
  0007f	8b 45 08	 mov	 eax, DWORD PTR ___$ReturnUdt$[ebp]
  00082	89 08		 mov	 DWORD PTR [eax], ecx
  00084	c6 40 04 01	 mov	 BYTE PTR [eax+4], 1
  00088	eb 3e		 jmp	 SHORT $LN1@Linsert
$LN4@Linsert:

; 974  : 			else
; 975  : 				--_Where;	// need to test if insert before is okay

  0008a	8d 4d 10	 lea	 ecx, DWORD PTR __Where$528618[ebp]
  0008d	e8 00 00 00 00	 call	 ??F?$_Tree_unchecked_const_iterator@V?$_Tree_val@V?$_Tmap_traits@VioHashString@@PAVioBuff@@U?$less@VioHashString@@@std@@V?$allocator@U?$pair@$$CBVioHashString@@PAVioBuff@@@std@@@4@$0A@@std@@@std@@U_Iterator_base0@2@@std@@QAEAAV01@XZ ; std::_Tree_unchecked_const_iterator<std::_Tree_val<std::_Tmap_traits<ioHashString,ioBuff *,std::less<ioHashString>,std::allocator<std::pair<ioHashString const ,ioBuff *> >,0> >,std::_Iterator_base0>::operator--
  00092	8b 75 10	 mov	 esi, DWORD PTR __Where$528618[ebp]
$LN99@Linsert:

; 976  : 
; 977  : 			if (_DEBUG_LT_PRED(this->comp,

  00095	53		 push	 ebx
  00096	8d 4e 0c	 lea	 ecx, DWORD PTR [esi+12]
  00099	ff 15 00 00 00
	00		 call	 DWORD PTR __imp_??MioHashString@@QBE_NABV0@@Z
  0009f	84 c0		 test	 al, al
  000a1	74 0b		 je	 SHORT $LN2@Linsert

; 978  : 				this->_Key(_Where._Mynode()),
; 979  : 				this->_Kfn(_Val)))
; 980  : 				return (_Pairib(_Insert(_Addleft, _Wherenode, _Node), true));

  000a3	ff 75 0c	 push	 DWORD PTR __Node$[ebp]
  000a6	ff 75 fc	 push	 DWORD PTR __Wherenode$[ebp]
  000a9	ff 75 f8	 push	 DWORD PTR __Addleft$[ebp]
  000ac	eb c4		 jmp	 SHORT $LN162@Linsert
$LN2@Linsert:

; 981  : 			else
; 982  : 				{	// duplicate, don't insert
; 983  : 				_Dest_val(this->_Alval,
; 984  : 					_STD addressof(this->_Myval(_Node)));

  000ae	8b cb		 mov	 ecx, ebx
  000b0	ff 15 00 00 00
	00		 call	 DWORD PTR __imp_??1ioHashString@@QAE@XZ

; 985  : 
; 986  : 				this->_Alnod.deallocate(_Node, 1);

  000b6	ff 75 0c	 push	 DWORD PTR __Node$[ebp]
  000b9	e8 00 00 00 00	 call	 ??3@YAXPAX@Z		; operator delete

; 987  : 
; 988  : 				return (_Pairib(_Where, false));

  000be	8b 45 08	 mov	 eax, DWORD PTR ___$ReturnUdt$[ebp]
  000c1	59		 pop	 ecx
  000c2	89 30		 mov	 DWORD PTR [eax], esi
  000c4	c6 40 04 00	 mov	 BYTE PTR [eax+4], 0
$LN1@Linsert:
  000c8	5f		 pop	 edi
  000c9	5e		 pop	 esi
  000ca	5b		 pop	 ebx

; 989  : 				}
; 990  : 			}
; 991  : 		}

  000cb	c9		 leave
  000cc	c2 0c 00	 ret	 12			; 0000000cH
?_Linsert@?$_Tree@V?$_Tmap_traits@VioHashString@@PAVioBuff@@U?$less@VioHashString@@@std@@V?$allocator@U?$pair@$$CBVioHashString@@PAVioBuff@@@std@@@4@$0A@@std@@@std@@QAE?AU?$pair@V?$_Tree_iterator@V?$_Tree_val@V?$_Tmap_traits@VioHashString@@PAVioBuff@@U?$less@VioHashString@@@std@@V?$allocator@U?$pair@$$CBVioHashString@@PAVioBuff@@@std@@@4@$0A@@std@@@std@@@std@@_N@2@PAU_Node@?$_Tree_nod@V?$_Tmap_traits@VioHashString@@PAVioBuff@@U?$less@VioHashString@@@std@@V?$allocator@U?$pair@$$CBVioHashString@@PAVioBuff@@@std@@@4@$0A@@std@@@2@_N@Z ENDP ; std::_Tree<std::_Tmap_traits<ioHashString,ioBuff *,std::less<ioHashString>,std::allocator<std::pair<ioHashString const ,ioBuff *> >,0> >::_Linsert
_TEXT	ENDS
PUBLIC	??$_Buynode@U?$pair@$$CBVioHashString@@PAVioBuff@@@std@@@?$_Tree_val@V?$_Tmap_traits@VioHashString@@PAVioBuff@@U?$less@VioHashString@@@std@@V?$allocator@U?$pair@$$CBVioHashString@@PAVioBuff@@@std@@@4@$0A@@std@@@std@@QAEPAU_Node@?$_Tree_nod@V?$_Tmap_traits@VioHashString@@PAVioBuff@@U?$less@VioHashString@@@std@@V?$allocator@U?$pair@$$CBVioHashString@@PAVioBuff@@@std@@@4@$0A@@std@@@1@$$QAU?$pair@$$CBVioHashString@@PAVioBuff@@@1@@Z ; std::_Tree_val<std::_Tmap_traits<ioHashString,ioBuff *,std::less<ioHashString>,std::allocator<std::pair<ioHashString const ,ioBuff *> >,0> >::_Buynode<std::pair<ioHashString const ,ioBuff *> >
EXTRN	__EH_prolog3_catch:PROC
;	COMDAT xdata$x
; File c:\program files (x86)\microsoft visual studio 10.0\vc\include\xmemory
xdata$x	SEGMENT
__catchsym$??$_Buynode@U?$pair@$$CBVioHashString@@PAVioBuff@@@std@@@?$_Tree_val@V?$_Tmap_traits@VioHashString@@PAVioBuff@@U?$less@VioHashString@@@std@@V?$allocator@U?$pair@$$CBVioHashString@@PAVioBuff@@@std@@@4@$0A@@std@@@std@@QAEPAU_Node@?$_Tree_nod@V?$_Tmap_traits@VioHashString@@PAVioBuff@@U?$less@VioHashString@@@std@@V?$allocator@U?$pair@$$CBVioHashString@@PAVioBuff@@@std@@@4@$0A@@std@@@1@$$QAU?$pair@$$CBVioHashString@@PAVioBuff@@@1@@Z$2 DD 040H
	DD	00H
	DD	00H
	DD	FLAT:__catch$??$_Buynode@U?$pair@$$CBVioHashString@@PAVioBuff@@@std@@@?$_Tree_val@V?$_Tmap_traits@VioHashString@@PAVioBuff@@U?$less@VioHashString@@@std@@V?$allocator@U?$pair@$$CBVioHashString@@PAVioBuff@@@std@@@4@$0A@@std@@@std@@QAEPAU_Node@?$_Tree_nod@V?$_Tmap_traits@VioHashString@@PAVioBuff@@U?$less@VioHashString@@@std@@V?$allocator@U?$pair@$$CBVioHashString@@PAVioBuff@@@std@@@4@$0A@@std@@@1@$$QAU?$pair@$$CBVioHashString@@PAVioBuff@@@1@@Z$0
__unwindtable$??$_Buynode@U?$pair@$$CBVioHashString@@PAVioBuff@@@std@@@?$_Tree_val@V?$_Tmap_traits@VioHashString@@PAVioBuff@@U?$less@VioHashString@@@std@@V?$allocator@U?$pair@$$CBVioHashString@@PAVioBuff@@@std@@@4@$0A@@std@@@std@@QAEPAU_Node@?$_Tree_nod@V?$_Tmap_traits@VioHashString@@PAVioBuff@@U?$less@VioHashString@@@std@@V?$allocator@U?$pair@$$CBVioHashString@@PAVioBuff@@@std@@@4@$0A@@std@@@1@$$QAU?$pair@$$CBVioHashString@@PAVioBuff@@@1@@Z DD 0ffffffffH
	DD	00H
	DD	0ffffffffH
	DD	00H
__tryblocktable$??$_Buynode@U?$pair@$$CBVioHashString@@PAVioBuff@@@std@@@?$_Tree_val@V?$_Tmap_traits@VioHashString@@PAVioBuff@@U?$less@VioHashString@@@std@@V?$allocator@U?$pair@$$CBVioHashString@@PAVioBuff@@@std@@@4@$0A@@std@@@std@@QAEPAU_Node@?$_Tree_nod@V?$_Tmap_traits@VioHashString@@PAVioBuff@@U?$less@VioHashString@@@std@@V?$allocator@U?$pair@$$CBVioHashString@@PAVioBuff@@@std@@@4@$0A@@std@@@1@$$QAU?$pair@$$CBVioHashString@@PAVioBuff@@@1@@Z DD 00H
	DD	00H
	DD	01H
	DD	01H
	DD	FLAT:__catchsym$??$_Buynode@U?$pair@$$CBVioHashString@@PAVioBuff@@@std@@@?$_Tree_val@V?$_Tmap_traits@VioHashString@@PAVioBuff@@U?$less@VioHashString@@@std@@V?$allocator@U?$pair@$$CBVioHashString@@PAVioBuff@@@std@@@4@$0A@@std@@@std@@QAEPAU_Node@?$_Tree_nod@V?$_Tmap_traits@VioHashString@@PAVioBuff@@U?$less@VioHashString@@@std@@V?$allocator@U?$pair@$$CBVioHashString@@PAVioBuff@@@std@@@4@$0A@@std@@@1@$$QAU?$pair@$$CBVioHashString@@PAVioBuff@@@1@@Z$2
__ehfuncinfo$??$_Buynode@U?$pair@$$CBVioHashString@@PAVioBuff@@@std@@@?$_Tree_val@V?$_Tmap_traits@VioHashString@@PAVioBuff@@U?$less@VioHashString@@@std@@V?$allocator@U?$pair@$$CBVioHashString@@PAVioBuff@@@std@@@4@$0A@@std@@@std@@QAEPAU_Node@?$_Tree_nod@V?$_Tmap_traits@VioHashString@@PAVioBuff@@U?$less@VioHashString@@@std@@V?$allocator@U?$pair@$$CBVioHashString@@PAVioBuff@@@std@@@4@$0A@@std@@@1@$$QAU?$pair@$$CBVioHashString@@PAVioBuff@@@1@@Z DD 019930522H
	DD	02H
	DD	FLAT:__unwindtable$??$_Buynode@U?$pair@$$CBVioHashString@@PAVioBuff@@@std@@@?$_Tree_val@V?$_Tmap_traits@VioHashString@@PAVioBuff@@U?$less@VioHashString@@@std@@V?$allocator@U?$pair@$$CBVioHashString@@PAVioBuff@@@std@@@4@$0A@@std@@@std@@QAEPAU_Node@?$_Tree_nod@V?$_Tmap_traits@VioHashString@@PAVioBuff@@U?$less@VioHashString@@@std@@V?$allocator@U?$pair@$$CBVioHashString@@PAVioBuff@@@std@@@4@$0A@@std@@@1@$$QAU?$pair@$$CBVioHashString@@PAVioBuff@@@1@@Z
	DD	01H
	DD	FLAT:__tryblocktable$??$_Buynode@U?$pair@$$CBVioHashString@@PAVioBuff@@@std@@@?$_Tree_val@V?$_Tmap_traits@VioHashString@@PAVioBuff@@U?$less@VioHashString@@@std@@V?$allocator@U?$pair@$$CBVioHashString@@PAVioBuff@@@std@@@4@$0A@@std@@@std@@QAEPAU_Node@?$_Tree_nod@V?$_Tmap_traits@VioHashString@@PAVioBuff@@U?$less@VioHashString@@@std@@V?$allocator@U?$pair@$$CBVioHashString@@PAVioBuff@@@std@@@4@$0A@@std@@@1@$$QAU?$pair@$$CBVioHashString@@PAVioBuff@@@1@@Z
	DD	2 DUP(00H)
	DD	00H
	DD	01H
; Function compile flags: /Ogsp
; File c:\program files (x86)\microsoft visual studio 10.0\vc\include\xtree
xdata$x	ENDS
;	COMDAT ??$_Buynode@U?$pair@$$CBVioHashString@@PAVioBuff@@@std@@@?$_Tree_val@V?$_Tmap_traits@VioHashString@@PAVioBuff@@U?$less@VioHashString@@@std@@V?$allocator@U?$pair@$$CBVioHashString@@PAVioBuff@@@std@@@4@$0A@@std@@@std@@QAEPAU_Node@?$_Tree_nod@V?$_Tmap_traits@VioHashString@@PAVioBuff@@U?$less@VioHashString@@@std@@V?$allocator@U?$pair@$$CBVioHashString@@PAVioBuff@@@std@@@4@$0A@@std@@@1@$$QAU?$pair@$$CBVioHashString@@PAVioBuff@@@1@@Z
_TEXT	SEGMENT
__Wherenode$ = -20					; size = 4
__$EHRec$ = -16						; size = 16
__Val$ = 8						; size = 4
??$_Buynode@U?$pair@$$CBVioHashString@@PAVioBuff@@@std@@@?$_Tree_val@V?$_Tmap_traits@VioHashString@@PAVioBuff@@U?$less@VioHashString@@@std@@V?$allocator@U?$pair@$$CBVioHashString@@PAVioBuff@@@std@@@4@$0A@@std@@@std@@QAEPAU_Node@?$_Tree_nod@V?$_Tmap_traits@VioHashString@@PAVioBuff@@U?$less@VioHashString@@@std@@V?$allocator@U?$pair@$$CBVioHashString@@PAVioBuff@@@std@@@4@$0A@@std@@@1@$$QAU?$pair@$$CBVioHashString@@PAVioBuff@@@1@@Z PROC ; std::_Tree_val<std::_Tmap_traits<ioHashString,ioBuff *,std::less<ioHashString>,std::allocator<std::pair<ioHashString const ,ioBuff *> >,0> >::_Buynode<std::pair<ioHashString const ,ioBuff *> >, COMDAT
; _this$ = ecx

; 586  : 		_Nodeptr _Buynode(_Valty&& _Val)

  00000	6a 08		 push	 8
  00002	b8 00 00 00 00	 mov	 eax, __ehhandler$??$_Buynode@U?$pair@$$CBVioHashString@@PAVioBuff@@@std@@@?$_Tree_val@V?$_Tmap_traits@VioHashString@@PAVioBuff@@U?$less@VioHashString@@@std@@V?$allocator@U?$pair@$$CBVioHashString@@PAVioBuff@@@std@@@4@$0A@@std@@@std@@QAEPAU_Node@?$_Tree_nod@V?$_Tmap_traits@VioHashString@@PAVioBuff@@U?$less@VioHashString@@@std@@V?$allocator@U?$pair@$$CBVioHashString@@PAVioBuff@@@std@@@4@$0A@@std@@@1@$$QAU?$pair@$$CBVioHashString@@PAVioBuff@@@1@@Z
  00007	e8 00 00 00 00	 call	 __EH_prolog3_catch
  0000c	8b f1		 mov	 esi, ecx

; 587  : 		{	// allocate a node with defaults
; 588  : 		_Nodeptr _Wherenode = _Buynode();

  0000e	e8 00 00 00 00	 call	 ?_Buynode@?$_Tree_val@V?$_Tmap_traits@VioHashString@@PAVioBuff@@U?$less@VioHashString@@@std@@V?$allocator@U?$pair@$$CBVioHashString@@PAVioBuff@@@std@@@4@$0A@@std@@@std@@QAEPAU_Node@?$_Tree_nod@V?$_Tmap_traits@VioHashString@@PAVioBuff@@U?$less@VioHashString@@@std@@V?$allocator@U?$pair@$$CBVioHashString@@PAVioBuff@@@std@@@4@$0A@@std@@@2@XZ ; std::_Tree_val<std::_Tmap_traits<ioHashString,ioBuff *,std::less<ioHashString>,std::allocator<std::pair<ioHashString const ,ioBuff *> >,0> >::_Buynode

; 589  : 
; 590  : 		_TRY_BEGIN
; 591  : 		_Cons_val(this->_Alval, _STD addressof(this->_Myval(_Wherenode)),
; 592  : 			_STD forward<_Valty>(_Val));

  00013	ff 75 08	 push	 DWORD PTR __Val$[ebp]
  00016	83 65 fc 00	 and	 DWORD PTR __$EHRec$[ebp+12], 0
  0001a	8b f8		 mov	 edi, eax
  0001c	8d 47 0c	 lea	 eax, DWORD PTR [edi+12]
  0001f	50		 push	 eax
  00020	8d 4e 0d	 lea	 ecx, DWORD PTR [esi+13]
  00023	89 7d ec	 mov	 DWORD PTR __Wherenode$[ebp], edi
  00026	e8 00 00 00 00	 call	 ?construct@?$allocator@U?$pair@$$CBVioHashString@@PAVioBuff@@@std@@@std@@QAEXPAU?$pair@$$CBVioHashString@@PAVioBuff@@@2@$$QAU32@@Z ; std::allocator<std::pair<ioHashString const ,ioBuff *> >::construct

; 596  : 		_CATCH_END
; 597  : 
; 598  : 		return (_Wherenode);

  0002b	8b c7		 mov	 eax, edi

; 599  : 		}

  0002d	e8 00 00 00 00	 call	 __EH_epilog3
  00032	c2 04 00	 ret	 4
__catch$??$_Buynode@U?$pair@$$CBVioHashString@@PAVioBuff@@@std@@@?$_Tree_val@V?$_Tmap_traits@VioHashString@@PAVioBuff@@U?$less@VioHashString@@@std@@V?$allocator@U?$pair@$$CBVioHashString@@PAVioBuff@@@std@@@4@$0A@@std@@@std@@QAEPAU_Node@?$_Tree_nod@V?$_Tmap_traits@VioHashString@@PAVioBuff@@U?$less@VioHashString@@@std@@V?$allocator@U?$pair@$$CBVioHashString@@PAVioBuff@@@std@@@4@$0A@@std@@@1@$$QAU?$pair@$$CBVioHashString@@PAVioBuff@@@1@@Z$0:

; 593  : 		_CATCH_ALL
; 594  : 		this->_Alnod.deallocate(_Wherenode, 1);

  00035	ff 75 ec	 push	 DWORD PTR __Wherenode$[ebp]
  00038	e8 00 00 00 00	 call	 ??3@YAXPAX@Z		; operator delete
  0003d	59		 pop	 ecx

; 595  : 		_RERAISE;

  0003e	6a 00		 push	 0
  00040	6a 00		 push	 0
  00042	e8 00 00 00 00	 call	 __CxxThrowException@8
$LN23@Buynode@2:
$LN22@Buynode@2:
  00047	cc		 int	 3
_TEXT	ENDS
;	COMDAT text$x
text$x	SEGMENT
__ehhandler$??$_Buynode@U?$pair@$$CBVioHashString@@PAVioBuff@@@std@@@?$_Tree_val@V?$_Tmap_traits@VioHashString@@PAVioBuff@@U?$less@VioHashString@@@std@@V?$allocator@U?$pair@$$CBVioHashString@@PAVioBuff@@@std@@@4@$0A@@std@@@std@@QAEPAU_Node@?$_Tree_nod@V?$_Tmap_traits@VioHashString@@PAVioBuff@@U?$less@VioHashString@@@std@@V?$allocator@U?$pair@$$CBVioHashString@@PAVioBuff@@@std@@@4@$0A@@std@@@1@$$QAU?$pair@$$CBVioHashString@@PAVioBuff@@@1@@Z:
  00000	8b 54 24 08	 mov	 edx, DWORD PTR [esp+8]
  00004	8d 42 0c	 lea	 eax, DWORD PTR [edx+12]
  00007	8b 4a e8	 mov	 ecx, DWORD PTR [edx-24]
  0000a	33 c8		 xor	 ecx, eax
  0000c	e8 00 00 00 00	 call	 @__security_check_cookie@4
  00011	b8 00 00 00 00	 mov	 eax, OFFSET __ehfuncinfo$??$_Buynode@U?$pair@$$CBVioHashString@@PAVioBuff@@@std@@@?$_Tree_val@V?$_Tmap_traits@VioHashString@@PAVioBuff@@U?$less@VioHashString@@@std@@V?$allocator@U?$pair@$$CBVioHashString@@PAVioBuff@@@std@@@4@$0A@@std@@@std@@QAEPAU_Node@?$_Tree_nod@V?$_Tmap_traits@VioHashString@@PAVioBuff@@U?$less@VioHashString@@@std@@V?$allocator@U?$pair@$$CBVioHashString@@PAVioBuff@@@std@@@4@$0A@@std@@@1@$$QAU?$pair@$$CBVioHashString@@PAVioBuff@@@1@@Z
  00016	e9 00 00 00 00	 jmp	 ___CxxFrameHandler3
text$x	ENDS
??$_Buynode@U?$pair@$$CBVioHashString@@PAVioBuff@@@std@@@?$_Tree_val@V?$_Tmap_traits@VioHashString@@PAVioBuff@@U?$less@VioHashString@@@std@@V?$allocator@U?$pair@$$CBVioHashString@@PAVioBuff@@@std@@@4@$0A@@std@@@std@@QAEPAU_Node@?$_Tree_nod@V?$_Tmap_traits@VioHashString@@PAVioBuff@@U?$less@VioHashString@@@std@@V?$allocator@U?$pair@$$CBVioHashString@@PAVioBuff@@@std@@@4@$0A@@std@@@1@$$QAU?$pair@$$CBVioHashString@@PAVioBuff@@@1@@Z ENDP ; std::_Tree_val<std::_Tmap_traits<ioHashString,ioBuff *,std::less<ioHashString>,std::allocator<std::pair<ioHashString const ,ioBuff *> >,0> >::_Buynode<std::pair<ioHashString const ,ioBuff *> >
PUBLIC	?clear@?$_Tree@V?$_Tmap_traits@VioHashString@@PAVioBuff@@U?$less@VioHashString@@@std@@V?$allocator@U?$pair@$$CBVioHashString@@PAVioBuff@@@std@@@4@$0A@@std@@@std@@QAEXXZ ; std::_Tree<std::_Tmap_traits<ioHashString,ioBuff *,std::less<ioHashString>,std::allocator<std::pair<ioHashString const ,ioBuff *> >,0> >::clear
; Function compile flags: /Ogsp
;	COMDAT ?clear@?$_Tree@V?$_Tmap_traits@VioHashString@@PAVioBuff@@U?$less@VioHashString@@@std@@V?$allocator@U?$pair@$$CBVioHashString@@PAVioBuff@@@std@@@4@$0A@@std@@@std@@QAEXXZ
_TEXT	SEGMENT
?clear@?$_Tree@V?$_Tmap_traits@VioHashString@@PAVioBuff@@U?$less@VioHashString@@@std@@V?$allocator@U?$pair@$$CBVioHashString@@PAVioBuff@@@std@@@4@$0A@@std@@@std@@QAEXXZ PROC ; std::_Tree<std::_Tmap_traits<ioHashString,ioBuff *,std::less<ioHashString>,std::allocator<std::pair<ioHashString const ,ioBuff *> >,0> >::clear, COMDAT
; _this$ = ecx

; 1410 : 		{	// erase all

  00000	56		 push	 esi
  00001	57		 push	 edi
  00002	8b f9		 mov	 edi, ecx

; 1411 :  #if _ITERATOR_DEBUG_LEVEL == 2
; 1412 : 		this->_Orphan_ptr(*this, 0);
; 1413 :  #endif /* _ITERATOR_DEBUG_LEVEL == 2 */
; 1414 : 
; 1415 : 		_Erase(_Root());

  00004	8b 47 04	 mov	 eax, DWORD PTR [edi+4]
  00007	ff 70 04	 push	 DWORD PTR [eax+4]
  0000a	e8 00 00 00 00	 call	 ?_Erase@?$_Tree@V?$_Tmap_traits@VioHashString@@PAVioBuff@@U?$less@VioHashString@@@std@@V?$allocator@U?$pair@$$CBVioHashString@@PAVioBuff@@@std@@@4@$0A@@std@@@std@@IAEXPAU_Node@?$_Tree_nod@V?$_Tmap_traits@VioHashString@@PAVioBuff@@U?$less@VioHashString@@@std@@V?$allocator@U?$pair@$$CBVioHashString@@PAVioBuff@@@std@@@4@$0A@@std@@@2@@Z ; std::_Tree<std::_Tmap_traits<ioHashString,ioBuff *,std::less<ioHashString>,std::allocator<std::pair<ioHashString const ,ioBuff *> >,0> >::_Erase

; 1416 : 		_Root() = this->_Myhead;

  0000f	8b 47 04	 mov	 eax, DWORD PTR [edi+4]
  00012	89 40 04	 mov	 DWORD PTR [eax+4], eax

; 1417 : 		_Lmost() = this->_Myhead;

  00015	8b 47 04	 mov	 eax, DWORD PTR [edi+4]
  00018	89 00		 mov	 DWORD PTR [eax], eax

; 1418 : 		_Rmost() = this->_Myhead;

  0001a	8b 77 04	 mov	 esi, DWORD PTR [edi+4]
  0001d	89 76 08	 mov	 DWORD PTR [esi+8], esi

; 1419 : 		this->_Mysize = 0;

  00020	83 67 08 00	 and	 DWORD PTR [edi+8], 0
  00024	5f		 pop	 edi
  00025	5e		 pop	 esi

; 1420 : 		}

  00026	c3		 ret	 0
?clear@?$_Tree@V?$_Tmap_traits@VioHashString@@PAVioBuff@@U?$less@VioHashString@@@std@@V?$allocator@U?$pair@$$CBVioHashString@@PAVioBuff@@@std@@@4@$0A@@std@@@std@@QAEXXZ ENDP ; std::_Tree<std::_Tmap_traits<ioHashString,ioBuff *,std::less<ioHashString>,std::allocator<std::pair<ioHashString const ,ioBuff *> >,0> >::clear
_TEXT	ENDS
PUBLIC	?erase@?$_Tree@V?$_Tmap_traits@VioHashString@@PAVioBuff@@U?$less@VioHashString@@@std@@V?$allocator@U?$pair@$$CBVioHashString@@PAVioBuff@@@std@@@4@$0A@@std@@@std@@QAE?AV?$_Tree_iterator@V?$_Tree_val@V?$_Tmap_traits@VioHashString@@PAVioBuff@@U?$less@VioHashString@@@std@@V?$allocator@U?$pair@$$CBVioHashString@@PAVioBuff@@@std@@@4@$0A@@std@@@std@@@2@V?$_Tree_const_iterator@V?$_Tree_val@V?$_Tmap_traits@VioHashString@@PAVioBuff@@U?$less@VioHashString@@@std@@V?$allocator@U?$pair@$$CBVioHashString@@PAVioBuff@@@std@@@4@$0A@@std@@@std@@@2@0@Z ; std::_Tree<std::_Tmap_traits<ioHashString,ioBuff *,std::less<ioHashString>,std::allocator<std::pair<ioHashString const ,ioBuff *> >,0> >::erase
; Function compile flags: /Ogsp
;	COMDAT ?erase@?$_Tree@V?$_Tmap_traits@VioHashString@@PAVioBuff@@U?$less@VioHashString@@@std@@V?$allocator@U?$pair@$$CBVioHashString@@PAVioBuff@@@std@@@4@$0A@@std@@@std@@QAE?AV?$_Tree_iterator@V?$_Tree_val@V?$_Tmap_traits@VioHashString@@PAVioBuff@@U?$less@VioHashString@@@std@@V?$allocator@U?$pair@$$CBVioHashString@@PAVioBuff@@@std@@@4@$0A@@std@@@std@@@2@V?$_Tree_const_iterator@V?$_Tree_val@V?$_Tmap_traits@VioHashString@@PAVioBuff@@U?$less@VioHashString@@@std@@V?$allocator@U?$pair@$$CBVioHashString@@PAVioBuff@@@std@@@4@$0A@@std@@@std@@@2@0@Z
_TEXT	SEGMENT
$T533561 = -4						; size = 4
___$ReturnUdt$ = 8					; size = 4
__First$ = 12						; size = 4
__Last$ = 16						; size = 4
?erase@?$_Tree@V?$_Tmap_traits@VioHashString@@PAVioBuff@@U?$less@VioHashString@@@std@@V?$allocator@U?$pair@$$CBVioHashString@@PAVioBuff@@@std@@@4@$0A@@std@@@std@@QAE?AV?$_Tree_iterator@V?$_Tree_val@V?$_Tmap_traits@VioHashString@@PAVioBuff@@U?$less@VioHashString@@@std@@V?$allocator@U?$pair@$$CBVioHashString@@PAVioBuff@@@std@@@4@$0A@@std@@@std@@@2@V?$_Tree_const_iterator@V?$_Tree_val@V?$_Tmap_traits@VioHashString@@PAVioBuff@@U?$less@VioHashString@@@std@@V?$allocator@U?$pair@$$CBVioHashString@@PAVioBuff@@@std@@@4@$0A@@std@@@std@@@2@0@Z PROC ; std::_Tree<std::_Tmap_traits<ioHashString,ioBuff *,std::less<ioHashString>,std::allocator<std::pair<ioHashString const ,ioBuff *> >,0> >::erase, COMDAT
; _this$ = ecx

; 1379 : 		{	// erase [_First, _Last)

  00000	55		 push	 ebp
  00001	8b ec		 mov	 ebp, esp
  00003	51		 push	 ecx
  00004	56		 push	 esi
  00005	8b f1		 mov	 esi, ecx

; 1380 : 		if (_First == begin() && _Last == end())

  00007	8b 46 04	 mov	 eax, DWORD PTR [esi+4]
  0000a	8b 4d 0c	 mov	 ecx, DWORD PTR __First$[ebp]
  0000d	3b 08		 cmp	 ecx, DWORD PTR [eax]
  0000f	75 13		 jne	 SHORT $LN65@erase@2
  00011	39 45 10	 cmp	 DWORD PTR __Last$[ebp], eax
  00014	75 0e		 jne	 SHORT $LN65@erase@2

; 1381 : 			{	// erase all
; 1382 : 			clear();

  00016	8b ce		 mov	 ecx, esi
  00018	e8 00 00 00 00	 call	 ?clear@?$_Tree@V?$_Tmap_traits@VioHashString@@PAVioBuff@@U?$less@VioHashString@@@std@@V?$allocator@U?$pair@$$CBVioHashString@@PAVioBuff@@@std@@@4@$0A@@std@@@std@@QAEXXZ ; std::_Tree<std::_Tmap_traits<ioHashString,ioBuff *,std::less<ioHashString>,std::allocator<std::pair<ioHashString const ,ioBuff *> >,0> >::clear

; 1383 : 			return (begin());

  0001d	8b 46 04	 mov	 eax, DWORD PTR [esi+4]
  00020	8b 08		 mov	 ecx, DWORD PTR [eax]
  00022	eb 25		 jmp	 SHORT $LN1@erase@2
$LN65@erase@2:

; 1384 : 			}
; 1385 : 		else
; 1386 : 			{	// partial erase, one at a time
; 1387 : 			while (_First != _Last)

  00024	3b 4d 10	 cmp	 ecx, DWORD PTR __Last$[ebp]
  00027	74 20		 je	 SHORT $LN1@erase@2
  00029	57		 push	 edi
$LL2@erase@2:

; 1388 : 				erase(_First++);

  0002a	8b f9		 mov	 edi, ecx
  0002c	8d 4d 0c	 lea	 ecx, DWORD PTR __First$[ebp]
  0002f	e8 00 00 00 00	 call	 ??E?$_Tree_unchecked_const_iterator@V?$_Tree_val@V?$_Tmap_traits@VioHashString@@PAVioBuff@@U?$less@VioHashString@@@std@@V?$allocator@U?$pair@$$CBVioHashString@@PAVioBuff@@@std@@@4@$0A@@std@@@std@@U_Iterator_base0@2@@std@@QAEAAV01@XZ ; std::_Tree_unchecked_const_iterator<std::_Tree_val<std::_Tmap_traits<ioHashString,ioBuff *,std::less<ioHashString>,std::allocator<std::pair<ioHashString const ,ioBuff *> >,0> >,std::_Iterator_base0>::operator++
  00034	57		 push	 edi
  00035	8d 45 fc	 lea	 eax, DWORD PTR $T533561[ebp]
  00038	50		 push	 eax
  00039	8b ce		 mov	 ecx, esi
  0003b	e8 00 00 00 00	 call	 ?erase@?$_Tree@V?$_Tmap_traits@VioHashString@@PAVioBuff@@U?$less@VioHashString@@@std@@V?$allocator@U?$pair@$$CBVioHashString@@PAVioBuff@@@std@@@4@$0A@@std@@@std@@QAE?AV?$_Tree_iterator@V?$_Tree_val@V?$_Tmap_traits@VioHashString@@PAVioBuff@@U?$less@VioHashString@@@std@@V?$allocator@U?$pair@$$CBVioHashString@@PAVioBuff@@@std@@@4@$0A@@std@@@std@@@2@V?$_Tree_const_iterator@V?$_Tree_val@V?$_Tmap_traits@VioHashString@@PAVioBuff@@U?$less@VioHashString@@@std@@V?$allocator@U?$pair@$$CBVioHashString@@PAVioBuff@@@std@@@4@$0A@@std@@@std@@@2@@Z ; std::_Tree<std::_Tmap_traits<ioHashString,ioBuff *,std::less<ioHashString>,std::allocator<std::pair<ioHashString const ,ioBuff *> >,0> >::erase
  00040	8b 4d 0c	 mov	 ecx, DWORD PTR __First$[ebp]
  00043	3b 4d 10	 cmp	 ecx, DWORD PTR __Last$[ebp]
  00046	75 e2		 jne	 SHORT $LL2@erase@2
  00048	5f		 pop	 edi
$LN1@erase@2:

; 1389 : 			return (iterator(_First._Ptr, this));

  00049	8b 45 08	 mov	 eax, DWORD PTR ___$ReturnUdt$[ebp]
  0004c	89 08		 mov	 DWORD PTR [eax], ecx
  0004e	5e		 pop	 esi

; 1390 : 			}
; 1391 : 		}

  0004f	c9		 leave
  00050	c2 0c 00	 ret	 12			; 0000000cH
?erase@?$_Tree@V?$_Tmap_traits@VioHashString@@PAVioBuff@@U?$less@VioHashString@@@std@@V?$allocator@U?$pair@$$CBVioHashString@@PAVioBuff@@@std@@@4@$0A@@std@@@std@@QAE?AV?$_Tree_iterator@V?$_Tree_val@V?$_Tmap_traits@VioHashString@@PAVioBuff@@U?$less@VioHashString@@@std@@V?$allocator@U?$pair@$$CBVioHashString@@PAVioBuff@@@std@@@4@$0A@@std@@@std@@@2@V?$_Tree_const_iterator@V?$_Tree_val@V?$_Tmap_traits@VioHashString@@PAVioBuff@@U?$less@VioHashString@@@std@@V?$allocator@U?$pair@$$CBVioHashString@@PAVioBuff@@@std@@@4@$0A@@std@@@std@@@2@0@Z ENDP ; std::_Tree<std::_Tmap_traits<ioHashString,ioBuff *,std::less<ioHashString>,std::allocator<std::pair<ioHashString const ,ioBuff *> >,0> >::erase
_TEXT	ENDS
PUBLIC	??$insert@U?$pair@$$CBVioHashString@@PAVioBuff@@@std@@@?$_Tree@V?$_Tmap_traits@VioHashString@@PAVioBuff@@U?$less@VioHashString@@@std@@V?$allocator@U?$pair@$$CBVioHashString@@PAVioBuff@@@std@@@4@$0A@@std@@@std@@QAE?AU?$pair@V?$_Tree_iterator@V?$_Tree_val@V?$_Tmap_traits@VioHashString@@PAVioBuff@@U?$less@VioHashString@@@std@@V?$allocator@U?$pair@$$CBVioHashString@@PAVioBuff@@@std@@@4@$0A@@std@@@std@@@std@@_N@1@$$QAU?$pair@$$CBVioHashString@@PAVioBuff@@@1@@Z ; std::_Tree<std::_Tmap_traits<ioHashString,ioBuff *,std::less<ioHashString>,std::allocator<std::pair<ioHashString const ,ioBuff *> >,0> >::insert<std::pair<ioHashString const ,ioBuff *> >
; Function compile flags: /Ogsp
;	COMDAT ??$insert@U?$pair@$$CBVioHashString@@PAVioBuff@@@std@@@?$_Tree@V?$_Tmap_traits@VioHashString@@PAVioBuff@@U?$less@VioHashString@@@std@@V?$allocator@U?$pair@$$CBVioHashString@@PAVioBuff@@@std@@@4@$0A@@std@@@std@@QAE?AU?$pair@V?$_Tree_iterator@V?$_Tree_val@V?$_Tmap_traits@VioHashString@@PAVioBuff@@U?$less@VioHashString@@@std@@V?$allocator@U?$pair@$$CBVioHashString@@PAVioBuff@@@std@@@4@$0A@@std@@@std@@@std@@_N@1@$$QAU?$pair@$$CBVioHashString@@PAVioBuff@@@1@@Z
_TEXT	SEGMENT
___$ReturnUdt$ = 8					; size = 4
__Val$ = 12						; size = 4
??$insert@U?$pair@$$CBVioHashString@@PAVioBuff@@@std@@@?$_Tree@V?$_Tmap_traits@VioHashString@@PAVioBuff@@U?$less@VioHashString@@@std@@V?$allocator@U?$pair@$$CBVioHashString@@PAVioBuff@@@std@@@4@$0A@@std@@@std@@QAE?AU?$pair@V?$_Tree_iterator@V?$_Tree_val@V?$_Tmap_traits@VioHashString@@PAVioBuff@@U?$less@VioHashString@@@std@@V?$allocator@U?$pair@$$CBVioHashString@@PAVioBuff@@@std@@@4@$0A@@std@@@std@@@std@@_N@1@$$QAU?$pair@$$CBVioHashString@@PAVioBuff@@@1@@Z PROC ; std::_Tree<std::_Tmap_traits<ioHashString,ioBuff *,std::less<ioHashString>,std::allocator<std::pair<ioHashString const ,ioBuff *> >,0> >::insert<std::pair<ioHashString const ,ioBuff *> >, COMDAT
; _this$ = ecx

; 753  : 		_Pairib insert(_Valty&& _Val)

  00000	55		 push	 ebp
  00001	8b ec		 mov	 ebp, esp
  00003	56		 push	 esi

; 754  : 		{	// try to insert node with value _Val, favoring right side
; 755  : 		return (_Linsert(this->_Buynode(_STD forward<_Valty>(_Val)),
; 756  : 			false));

  00004	6a 00		 push	 0
  00006	ff 75 0c	 push	 DWORD PTR __Val$[ebp]
  00009	8b f1		 mov	 esi, ecx
  0000b	e8 00 00 00 00	 call	 ??$_Buynode@U?$pair@$$CBVioHashString@@PAVioBuff@@@std@@@?$_Tree_val@V?$_Tmap_traits@VioHashString@@PAVioBuff@@U?$less@VioHashString@@@std@@V?$allocator@U?$pair@$$CBVioHashString@@PAVioBuff@@@std@@@4@$0A@@std@@@std@@QAEPAU_Node@?$_Tree_nod@V?$_Tmap_traits@VioHashString@@PAVioBuff@@U?$less@VioHashString@@@std@@V?$allocator@U?$pair@$$CBVioHashString@@PAVioBuff@@@std@@@4@$0A@@std@@@1@$$QAU?$pair@$$CBVioHashString@@PAVioBuff@@@1@@Z ; std::_Tree_val<std::_Tmap_traits<ioHashString,ioBuff *,std::less<ioHashString>,std::allocator<std::pair<ioHashString const ,ioBuff *> >,0> >::_Buynode<std::pair<ioHashString const ,ioBuff *> >
  00010	50		 push	 eax
  00011	ff 75 08	 push	 DWORD PTR ___$ReturnUdt$[ebp]
  00014	8b ce		 mov	 ecx, esi
  00016	e8 00 00 00 00	 call	 ?_Linsert@?$_Tree@V?$_Tmap_traits@VioHashString@@PAVioBuff@@U?$less@VioHashString@@@std@@V?$allocator@U?$pair@$$CBVioHashString@@PAVioBuff@@@std@@@4@$0A@@std@@@std@@QAE?AU?$pair@V?$_Tree_iterator@V?$_Tree_val@V?$_Tmap_traits@VioHashString@@PAVioBuff@@U?$less@VioHashString@@@std@@V?$allocator@U?$pair@$$CBVioHashString@@PAVioBuff@@@std@@@4@$0A@@std@@@std@@@std@@_N@2@PAU_Node@?$_Tree_nod@V?$_Tmap_traits@VioHashString@@PAVioBuff@@U?$less@VioHashString@@@std@@V?$allocator@U?$pair@$$CBVioHashString@@PAVioBuff@@@std@@@4@$0A@@std@@@2@_N@Z ; std::_Tree<std::_Tmap_traits<ioHashString,ioBuff *,std::less<ioHashString>,std::allocator<std::pair<ioHashString const ,ioBuff *> >,0> >::_Linsert
  0001b	8b 45 08	 mov	 eax, DWORD PTR ___$ReturnUdt$[ebp]
  0001e	5e		 pop	 esi

; 757  : 		}

  0001f	5d		 pop	 ebp
  00020	c2 08 00	 ret	 8
??$insert@U?$pair@$$CBVioHashString@@PAVioBuff@@@std@@@?$_Tree@V?$_Tmap_traits@VioHashString@@PAVioBuff@@U?$less@VioHashString@@@std@@V?$allocator@U?$pair@$$CBVioHashString@@PAVioBuff@@@std@@@4@$0A@@std@@@std@@QAE?AU?$pair@V?$_Tree_iterator@V?$_Tree_val@V?$_Tmap_traits@VioHashString@@PAVioBuff@@U?$less@VioHashString@@@std@@V?$allocator@U?$pair@$$CBVioHashString@@PAVioBuff@@@std@@@4@$0A@@std@@@std@@@std@@_N@1@$$QAU?$pair@$$CBVioHashString@@PAVioBuff@@@1@@Z ENDP ; std::_Tree<std::_Tmap_traits<ioHashString,ioBuff *,std::less<ioHashString>,std::allocator<std::pair<ioHashString const ,ioBuff *> >,0> >::insert<std::pair<ioHashString const ,ioBuff *> >
_TEXT	ENDS
PUBLIC	?ClearBuffList@ioBuffMaker@@QAEXXZ		; ioBuffMaker::ClearBuffList
; Function compile flags: /Ogsp
; File d:\lost saga for developer\youtube\tutorial\source\src\lsclient\iobuffmaker.cpp
;	COMDAT ?ClearBuffList@ioBuffMaker@@QAEXXZ
_TEXT	SEGMENT
_iter$ = -4						; size = 4
?ClearBuffList@ioBuffMaker@@QAEXXZ PROC			; ioBuffMaker::ClearBuffList, COMDAT
; _this$ = ecx

; 22   : {

  00000	55		 push	 ebp
  00001	8b ec		 mov	 ebp, esp
  00003	51		 push	 ecx
  00004	56		 push	 esi
  00005	57		 push	 edi
  00006	8b f9		 mov	 edi, ecx

; 23   : 	BuffMap::iterator iter;
; 24   : 	for( iter=m_BuffMap.begin() ; iter!=m_BuffMap.end() ; ++iter )

  00008	8b 47 08	 mov	 eax, DWORD PTR [edi+8]
  0000b	8b 30		 mov	 esi, DWORD PTR [eax]
  0000d	89 75 fc	 mov	 DWORD PTR _iter$[ebp], esi
  00010	3b f0		 cmp	 esi, eax
  00012	74 22		 je	 SHORT $LN2@ClearBuffL
$LL31@ClearBuffL:

; 25   : 	{
; 26   : 		SAFEDELETE(iter->second);

  00014	8b 4e 1c	 mov	 ecx, DWORD PTR [esi+28]
  00017	85 c9		 test	 ecx, ecx
  00019	74 0b		 je	 SHORT $LN3@ClearBuffL
  0001b	8b 01		 mov	 eax, DWORD PTR [ecx]
  0001d	6a 01		 push	 1
  0001f	ff 50 70	 call	 DWORD PTR [eax+112]
  00022	83 66 1c 00	 and	 DWORD PTR [esi+28], 0
$LN3@ClearBuffL:

; 23   : 	BuffMap::iterator iter;
; 24   : 	for( iter=m_BuffMap.begin() ; iter!=m_BuffMap.end() ; ++iter )

  00026	8d 4d fc	 lea	 ecx, DWORD PTR _iter$[ebp]
  00029	e8 00 00 00 00	 call	 ??E?$_Tree_unchecked_const_iterator@V?$_Tree_val@V?$_Tmap_traits@VioHashString@@PAVioBuff@@U?$less@VioHashString@@@std@@V?$allocator@U?$pair@$$CBVioHashString@@PAVioBuff@@@std@@@4@$0A@@std@@@std@@U_Iterator_base0@2@@std@@QAEAAV01@XZ ; std::_Tree_unchecked_const_iterator<std::_Tree_val<std::_Tmap_traits<ioHashString,ioBuff *,std::less<ioHashString>,std::allocator<std::pair<ioHashString const ,ioBuff *> >,0> >,std::_Iterator_base0>::operator++
  0002e	8b 75 fc	 mov	 esi, DWORD PTR _iter$[ebp]
  00031	3b 77 08	 cmp	 esi, DWORD PTR [edi+8]
  00034	75 de		 jne	 SHORT $LL31@ClearBuffL
$LN2@ClearBuffL:

; 27   : 	}
; 28   : 	m_BuffMap.clear();

  00036	8d 4f 04	 lea	 ecx, DWORD PTR [edi+4]
  00039	e8 00 00 00 00	 call	 ?clear@?$_Tree@V?$_Tmap_traits@VioHashString@@PAVioBuff@@U?$less@VioHashString@@@std@@V?$allocator@U?$pair@$$CBVioHashString@@PAVioBuff@@@std@@@4@$0A@@std@@@std@@QAEXXZ ; std::_Tree<std::_Tmap_traits<ioHashString,ioBuff *,std::less<ioHashString>,std::allocator<std::pair<ioHashString const ,ioBuff *> >,0> >::clear
  0003e	5f		 pop	 edi
  0003f	5e		 pop	 esi

; 29   : }

  00040	c9		 leave
  00041	c3		 ret	 0
?ClearBuffList@ioBuffMaker@@QAEXXZ ENDP			; ioBuffMaker::ClearBuffList
_TEXT	ENDS
PUBLIC	??_C@_0DH@OOFIEKIP@ioBuffMaker?3?3LoadBuffList?5?9?5?$CFd?5?3@ ; `string'
PUBLIC	??_C@_0EE@IFIBLNNA@ioBuffMaker?3?3LoadBuffList?5insert@ ; `string'
PUBLIC	??_C@_00CNPNBAHC@?$AA@				; `string'
PUBLIC	_this$GSCopy$
PUBLIC	?LoadBuffList@ioBuffMaker@@QAEXPBD@Z		; ioBuffMaker::LoadBuffList
EXTRN	__imp_??1ioINILoader@@QAE@XZ:PROC
EXTRN	?SetTitleName@ioBuff@@QAEXABVioHashString@@@Z:PROC ; ioBuff::SetTitleName
EXTRN	?SetGroupName@ioBuff@@QAEXABVioHashString@@@Z:PROC ; ioBuff::SetGroupName
EXTRN	__imp_??0ioHashString@@QAE@PBD@Z:PROC
EXTRN	__imp_?LoadStringA@ioINILoader@@QAEXPBD0PADH@Z:PROC
EXTRN	__imp__wsprintfA:PROC
EXTRN	__imp_??0ioINILoader@@QAE@PBD_N@Z:PROC
EXTRN	__EH_epilog3_GS:PROC
EXTRN	__EH_prolog3_GS:PROC
EXTRN	_memset:PROC
;	COMDAT ??_C@_0DH@OOFIEKIP@ioBuffMaker?3?3LoadBuffList?5?9?5?$CFd?5?3@
CONST	SEGMENT
??_C@_0DH@OOFIEKIP@ioBuffMaker?3?3LoadBuffList?5?9?5?$CFd?5?3@ DB 'ioBuff'
	DB	'Maker::LoadBuffList - %d : %s Unknown TypeID, %s', 00H ; `string'
CONST	ENDS
;	COMDAT ??_C@_0EE@IFIBLNNA@ioBuffMaker?3?3LoadBuffList?5insert@
CONST	SEGMENT
??_C@_0EE@IFIBLNNA@ioBuffMaker?3?3LoadBuffList?5insert@ DB 'ioBuffMaker::'
	DB	'LoadBuffList insert Faild - %d : %s Unknown TypeID, %s', 00H ; `string'
CONST	ENDS
;	COMDAT ??_C@_00CNPNBAHC@?$AA@
CONST	SEGMENT
??_C@_00CNPNBAHC@?$AA@ DB 00H				; `string'
CONST	ENDS
;	COMDAT xdata$x
xdata$x	SEGMENT
__ehfuncinfo$?LoadBuffList@ioBuffMaker@@QAEXPBD@Z DD 019930522H
	DD	05H
	DD	FLAT:__unwindtable$?LoadBuffList@ioBuffMaker@@QAEXPBD@Z
	DD	2 DUP(00H)
	DD	2 DUP(00H)
	DD	00H
	DD	01H
__unwindtable$?LoadBuffList@ioBuffMaker@@QAEXPBD@Z DD 0ffffffffH
	DD	FLAT:__unwindfunclet$?LoadBuffList@ioBuffMaker@@QAEXPBD@Z$0
	DD	00H
	DD	FLAT:__unwindfunclet$?LoadBuffList@ioBuffMaker@@QAEXPBD@Z$1
	DD	01H
	DD	FLAT:__unwindfunclet$?LoadBuffList@ioBuffMaker@@QAEXPBD@Z$2
	DD	01H
	DD	FLAT:__unwindfunclet$?LoadBuffList@ioBuffMaker@@QAEXPBD@Z$3
	DD	01H
	DD	FLAT:__unwindfunclet$?LoadBuffList@ioBuffMaker@@QAEXPBD@Z$4
; Function compile flags: /Ogsp
xdata$x	ENDS
;	COMDAT ?LoadBuffList@ioBuffMaker@@QAEXPBD@Z
_TEXT	SEGMENT
$T533952 = -2804					; size = 16
$T533953 = -2788					; size = 16
$T533954 = -2772					; size = 20
_it$526071 = -2752					; size = 8
_iBuffCategory$525893 = -2744				; size = 4
tv6791 = -2740						; size = 4
_iGroupCnt$ = -2736					; size = 4
_iBuffCnt$525899 = -2732				; size = 4
_this$GSCopy$ = -2728					; size = 4
_i$ = -2724						; size = 4
_i$534502 = -2720					; size = 4
_iTypeID$526061 = -2720					; size = 4
_kLoader$ = -2716					; size = 784
_kSetBuffLoader$525894 = -1932				; size = 784
_szBuf$ = -1148						; size = 260
_szBuffType$ = -888					; size = 260
_szGroupName$ = -628					; size = 260
_szTitle$ = -368					; size = 260
__k$534390 = -108					; size = 9
__k$534635 = -92					; size = 5
___encStr$525912 = -80					; size = 7
__t$534265 = -68					; size = 7
__t$533979 = -56					; size = 12
___encStr$525592 = -56					; size = 10
__k$534104 = -40					; size = 15
___encStr$525744 = -40					; size = 18
___encStr$525439 = -36					; size = 13
__$EHRec$ = -12						; size = 12
_szFileName$ = 8					; size = 4
?LoadBuffList@ioBuffMaker@@QAEXPBD@Z PROC		; ioBuffMaker::LoadBuffList, COMDAT
; _this$ = ecx

; 32   : {

  00000	68 e8 0a 00 00	 push	 2792			; 00000ae8H
  00005	b8 00 00 00 00	 mov	 eax, __ehhandler$?LoadBuffList@ioBuffMaker@@QAEXPBD@Z
  0000a	e8 00 00 00 00	 call	 __EH_prolog3_GS
  0000f	8b 45 08	 mov	 eax, DWORD PTR _szFileName$[ebp]

; 33   : 	ioINILoader kLoader( szFileName );

  00012	6a 01		 push	 1
  00014	89 8d 58 f5 ff
	ff		 mov	 DWORD PTR _this$GSCopy$[ebp], ecx
  0001a	50		 push	 eax
  0001b	8d 8d 64 f5 ff
	ff		 lea	 ecx, DWORD PTR _kLoader$[ebp]
  00021	ff 15 00 00 00
	00		 call	 DWORD PTR __imp_??0ioINILoader@@QAE@PBD_N@Z
  00027	33 db		 xor	 ebx, ebx

; 34   : 
; 35   : 	char szBuf[MAX_PATH] = "";

  00029	be 03 01 00 00	 mov	 esi, 259		; 00000103H
  0002e	56		 push	 esi
  0002f	8d 85 85 fb ff
	ff		 lea	 eax, DWORD PTR _szBuf$[ebp+1]
  00035	53		 push	 ebx
  00036	50		 push	 eax
  00037	89 5d fc	 mov	 DWORD PTR __$EHRec$[ebp+8], ebx
  0003a	88 9d 84 fb ff
	ff		 mov	 BYTE PTR _szBuf$[ebp], bl
  00040	e8 00 00 00 00	 call	 _memset

; 36   : 	char szTitle[MAX_PATH] = "";

  00045	56		 push	 esi
  00046	8d 85 91 fe ff
	ff		 lea	 eax, DWORD PTR _szTitle$[ebp+1]
  0004c	53		 push	 ebx
  0004d	50		 push	 eax
  0004e	88 9d 90 fe ff
	ff		 mov	 BYTE PTR _szTitle$[ebp], bl
  00054	e8 00 00 00 00	 call	 _memset

; 37   : 	char szBuffType[MAX_PATH] = "";

  00059	56		 push	 esi
  0005a	8d 85 89 fc ff
	ff		 lea	 eax, DWORD PTR _szBuffType$[ebp+1]
  00060	53		 push	 ebx
  00061	50		 push	 eax
  00062	88 9d 88 fc ff
	ff		 mov	 BYTE PTR _szBuffType$[ebp], bl
  00068	e8 00 00 00 00	 call	 _memset

; 38   : 	char szGroupName[MAX_PATH] = "";

  0006d	56		 push	 esi
  0006e	8d 85 8d fd ff
	ff		 lea	 eax, DWORD PTR _szGroupName$[ebp+1]
  00074	53		 push	 ebx
  00075	50		 push	 eax
  00076	88 9d 8c fd ff
	ff		 mov	 BYTE PTR _szGroupName$[ebp], bl
  0007c	e8 00 00 00 00	 call	 _memset
  00081	83 c4 30	 add	 esp, 48			; 00000030H

; 39   : 
; 40   : 	kLoader.SetTitle_e( "common_info" );

  00084	6a 02		 push	 2
  00086	c7 45 c8 8e 83
	86 87		 mov	 DWORD PTR __t$533979[ebp], -2021227634 ; 8786838eH
  0008d	c7 45 cc 82 82
	b4 83		 mov	 DWORD PTR __t$533979[ebp+4], -2085322110 ; 83b48282H
  00094	8d 45 c8	 lea	 eax, DWORD PTR __t$533979[ebp]
  00097	c7 45 d0 83 8a
	84 00		 mov	 DWORD PTR __t$533979[ebp+8], 8686211 ; 00848a83H
  0009e	59		 pop	 ecx
$LL518@LoadBuffLi:
  0009f	81 30 ed ec eb
	ea		 xor	 DWORD PTR [eax], -353637139 ; eaebecedH
  000a5	83 c0 04	 add	 eax, 4
  000a8	49		 dec	 ecx
  000a9	75 f4		 jne	 SHORT $LL518@LoadBuffLi
  000ab	6a 08		 push	 8
  000ad	5e		 pop	 esi
$LL515@LoadBuffLi:
  000ae	8b c6		 mov	 eax, esi
  000b0	25 03 00 00 80	 and	 eax, -2147483645	; 80000003H
  000b5	79 05		 jns	 SHORT $LN1046@LoadBuffLi
  000b7	48		 dec	 eax
  000b8	83 c8 fc	 or	 eax, -4			; fffffffcH
  000bb	40		 inc	 eax
$LN1046@LoadBuffLi:
  000bc	b1 ed		 mov	 cl, -19			; ffffffedH
  000be	2a c8		 sub	 cl, al
  000c0	30 4c 35 c8	 xor	 BYTE PTR __t$533979[ebp+esi], cl
  000c4	46		 inc	 esi
  000c5	83 fe 0b	 cmp	 esi, 11			; 0000000bH
  000c8	7c e4		 jl	 SHORT $LL515@LoadBuffLi
  000ca	8d 45 c8	 lea	 eax, DWORD PTR __t$533979[ebp]
  000cd	50		 push	 eax
  000ce	8d 8d 64 f5 ff
	ff		 lea	 ecx, DWORD PTR _kLoader$[ebp]
  000d4	ff 15 00 00 00
	00		 call	 DWORD PTR __imp_?SetTitle@ioINILoader@@QAEXPBD@Z
  000da	6a 03		 push	 3

; 41   : 	int iGroupCnt = kLoader.LoadInt_e( "buff_group_cnt", 0 );

  000dc	c7 45 d8 8f 99
	8d 8c		 mov	 DWORD PTR __k$534104[ebp], -1936877169 ; 8c8d998fH
  000e3	c7 45 dc b2 8b
	99 85		 mov	 DWORD PTR __k$534104[ebp+4], -2053534798 ; 85998bb2H
  000ea	c7 45 e0 98 9c
	b4 89		 mov	 DWORD PTR __k$534104[ebp+8], -1984652136 ; 89b49c98H
  000f1	66 c7 45 e4 83
	98		 mov	 WORD PTR __k$534104[ebp+12], 39043 ; 00009883H
  000f7	8d 45 d8	 lea	 eax, DWORD PTR __k$534104[ebp]
  000fa	88 5d e6	 mov	 BYTE PTR __k$534104[ebp+14], bl
  000fd	59		 pop	 ecx
$LL624@LoadBuffLi:
  000fe	81 30 ed ec eb
	ea		 xor	 DWORD PTR [eax], -353637139 ; eaebecedH
  00104	83 c0 04	 add	 eax, 4
  00107	49		 dec	 ecx
  00108	75 f4		 jne	 SHORT $LL624@LoadBuffLi
  0010a	6a 0c		 push	 12			; 0000000cH
  0010c	5e		 pop	 esi
$LL621@LoadBuffLi:
  0010d	8b c6		 mov	 eax, esi
  0010f	25 03 00 00 80	 and	 eax, -2147483645	; 80000003H
  00114	79 05		 jns	 SHORT $LN1047@LoadBuffLi
  00116	48		 dec	 eax
  00117	83 c8 fc	 or	 eax, -4			; fffffffcH
  0011a	40		 inc	 eax
$LN1047@LoadBuffLi:
  0011b	b1 ed		 mov	 cl, -19			; ffffffedH
  0011d	2a c8		 sub	 cl, al
  0011f	30 4c 35 d8	 xor	 BYTE PTR __k$534104[ebp+esi], cl
  00123	46		 inc	 esi
  00124	83 fe 0e	 cmp	 esi, 14			; 0000000eH
  00127	7c e4		 jl	 SHORT $LL621@LoadBuffLi
  00129	53		 push	 ebx
  0012a	8d 45 d8	 lea	 eax, DWORD PTR __k$534104[ebp]
  0012d	50		 push	 eax
  0012e	8d 8d 64 f5 ff
	ff		 lea	 ecx, DWORD PTR _kLoader$[ebp]
  00134	ff 15 00 00 00
	00		 call	 DWORD PTR __imp_?LoadInt@ioINILoader@@QAEHPBDH@Z
  0013a	89 85 50 f5 ff
	ff		 mov	 DWORD PTR _iGroupCnt$[ebp], eax

; 42   : 
; 43   : 	int i=0;
; 44   : 	for( i=0 ; i<iGroupCnt ; i++ )

  00140	89 9d 5c f5 ff
	ff		 mov	 DWORD PTR _i$[ebp], ebx
  00146	3b c3		 cmp	 eax, ebx
  00148	0f 8e de 03 00
	00		 jle	 $LN403@LoadBuffLi
  0014e	8b 3d 00 00 00
	00		 mov	 edi, DWORD PTR __imp__wsprintfA
$LN405@LoadBuffLi:

; 41   : 	int iGroupCnt = kLoader.LoadInt_e( "buff_group_cnt", 0 );

  00154	6a 03		 push	 3

; 45   : 	{
; 46   : 		//  
; 47   : 		wsprintf_e( szTitle, "buff_group%d", i );

  00156	c7 45 dc 8f 99
	8d 8c		 mov	 DWORD PTR ___encStr$525439[ebp], -1936877169 ; 8c8d998fH
  0015d	c7 45 e0 b2 8b
	99 85		 mov	 DWORD PTR ___encStr$525439[ebp+4], -2053534798 ; 85998bb2H
  00164	c7 45 e4 98 9c
	ce 8e		 mov	 DWORD PTR ___encStr$525439[ebp+8], -1899062120 ; 8ece9c98H
  0016b	8d 45 dc	 lea	 eax, DWORD PTR ___encStr$525439[ebp]
  0016e	88 5d e8	 mov	 BYTE PTR ___encStr$525439[ebp+12], bl
  00171	59		 pop	 ecx
$LL632@LoadBuffLi:
  00172	81 30 ed ec eb
	ea		 xor	 DWORD PTR [eax], -353637139 ; eaebecedH
  00178	83 c0 04	 add	 eax, 4
  0017b	49		 dec	 ecx
  0017c	75 f4		 jne	 SHORT $LL632@LoadBuffLi
  0017e	ff b5 5c f5 ff
	ff		 push	 DWORD PTR _i$[ebp]
  00184	8d 45 dc	 lea	 eax, DWORD PTR ___encStr$525439[ebp]
  00187	50		 push	 eax
  00188	8d 85 90 fe ff
	ff		 lea	 eax, DWORD PTR _szTitle$[ebp]
  0018e	50		 push	 eax
  0018f	ff d7		 call	 edi
  00191	83 c4 0c	 add	 esp, 12			; 0000000cH

; 48   : 		kLoader.LoadString( szTitle, "", szBuf, MAX_PATH );

  00194	68 04 01 00 00	 push	 260			; 00000104H
  00199	8d 85 84 fb ff
	ff		 lea	 eax, DWORD PTR _szBuf$[ebp]
  0019f	50		 push	 eax
  001a0	68 00 00 00 00	 push	 OFFSET ??_C@_00CNPNBAHC@?$AA@
  001a5	8d 85 90 fe ff
	ff		 lea	 eax, DWORD PTR _szTitle$[ebp]
  001ab	50		 push	 eax
  001ac	8d 8d 64 f5 ff
	ff		 lea	 ecx, DWORD PTR _kLoader$[ebp]
  001b2	ff 15 00 00 00
	00		 call	 DWORD PTR __imp_?LoadStringA@ioINILoader@@QAEXPBD0PADH@Z
  001b8	6a 02		 push	 2

; 49   : 		wsprintf_e( szGroupName, "config/%s", szBuf );

  001ba	c7 45 c8 8e 83
	85 8c		 mov	 DWORD PTR ___encStr$525592[ebp], -1937407090 ; 8c85838eH
  001c1	c7 45 cc 84 8b
	c4 cf		 mov	 DWORD PTR ___encStr$525592[ebp+4], -809202812 ; cfc48b84H
  001c8	8d 45 c8	 lea	 eax, DWORD PTR ___encStr$525592[ebp]
  001cb	66 c7 45 d0 9e
	00		 mov	 WORD PTR ___encStr$525592[ebp+8], 158 ; 0000009eH
  001d1	59		 pop	 ecx
$LL640@LoadBuffLi:
  001d2	81 30 ed ec eb
	ea		 xor	 DWORD PTR [eax], -353637139 ; eaebecedH
  001d8	83 c0 04	 add	 eax, 4
  001db	49		 dec	 ecx
  001dc	75 f4		 jne	 SHORT $LL640@LoadBuffLi
  001de	80 75 d0 ed	 xor	 BYTE PTR ___encStr$525592[ebp+8], -19 ; ffffffedH
  001e2	8d 85 84 fb ff
	ff		 lea	 eax, DWORD PTR _szBuf$[ebp]
  001e8	50		 push	 eax
  001e9	8d 45 c8	 lea	 eax, DWORD PTR ___encStr$525592[ebp]
  001ec	50		 push	 eax
  001ed	8d 85 8c fd ff
	ff		 lea	 eax, DWORD PTR _szGroupName$[ebp]
  001f3	50		 push	 eax
  001f4	ff d7		 call	 edi
  001f6	83 c4 0c	 add	 esp, 12			; 0000000cH
  001f9	6a 04		 push	 4

; 50   : 
; 51   : 		wsprintf_e( szBuffType, "buff_group%d_type", i );

  001fb	c7 45 d8 8f 99
	8d 8c		 mov	 DWORD PTR ___encStr$525744[ebp], -1936877169 ; 8c8d998fH
  00202	c7 45 dc b2 8b
	99 85		 mov	 DWORD PTR ___encStr$525744[ebp+4], -2053534798 ; 85998bb2H
  00209	c7 45 e0 98 9c
	ce 8e		 mov	 DWORD PTR ___encStr$525744[ebp+8], -1899062120 ; 8ece9c98H
  00210	c7 45 e4 b2 98
	92 9a		 mov	 DWORD PTR ___encStr$525744[ebp+12], -1701668686 ; 9a9298b2H
  00217	8d 45 d8	 lea	 eax, DWORD PTR ___encStr$525744[ebp]
  0021a	66 c7 45 e8 88
	00		 mov	 WORD PTR ___encStr$525744[ebp+16], 136 ; 00000088H
  00220	59		 pop	 ecx
$LL648@LoadBuffLi:
  00221	81 30 ed ec eb
	ea		 xor	 DWORD PTR [eax], -353637139 ; eaebecedH
  00227	83 c0 04	 add	 eax, 4
  0022a	49		 dec	 ecx
  0022b	75 f4		 jne	 SHORT $LL648@LoadBuffLi
  0022d	ff b5 5c f5 ff
	ff		 push	 DWORD PTR _i$[ebp]
  00233	80 75 e8 ed	 xor	 BYTE PTR ___encStr$525744[ebp+16], -19 ; ffffffedH
  00237	8d 45 d8	 lea	 eax, DWORD PTR ___encStr$525744[ebp]
  0023a	50		 push	 eax
  0023b	8d 85 88 fc ff
	ff		 lea	 eax, DWORD PTR _szBuffType$[ebp]
  00241	50		 push	 eax
  00242	ff d7		 call	 edi
  00244	83 c4 0c	 add	 esp, 12			; 0000000cH

; 52   : 		int iBuffCategory = kLoader.LoadInt( szBuffType, 0 );

  00247	53		 push	 ebx
  00248	8d 85 88 fc ff
	ff		 lea	 eax, DWORD PTR _szBuffType$[ebp]
  0024e	50		 push	 eax
  0024f	8d 8d 64 f5 ff
	ff		 lea	 ecx, DWORD PTR _kLoader$[ebp]
  00255	ff 15 00 00 00
	00		 call	 DWORD PTR __imp_?LoadInt@ioINILoader@@QAEHPBDH@Z
  0025b	89 85 48 f5 ff
	ff		 mov	 DWORD PTR _iBuffCategory$525893[ebp], eax

; 53   : 
; 54   : 		ioINILoader kSetBuffLoader( szGroupName );

  00261	6a 01		 push	 1
  00263	8d 85 8c fd ff
	ff		 lea	 eax, DWORD PTR _szGroupName$[ebp]
  00269	50		 push	 eax
  0026a	8d 8d 74 f8 ff
	ff		 lea	 ecx, DWORD PTR _kSetBuffLoader$525894[ebp]
  00270	ff 15 00 00 00
	00		 call	 DWORD PTR __imp_??0ioINILoader@@QAE@PBD_N@Z

; 55   : 		kSetBuffLoader.SetTitle_e( "common" );

  00276	be ed ec eb ea	 mov	 esi, -353637139		; eaebecedH
  0027b	6a 04		 push	 4
  0027d	c7 45 bc 8e 83
	86 87		 mov	 DWORD PTR __t$534265[ebp], -2021227634 ; 8786838eH
  00284	31 75 bc	 xor	 DWORD PTR __t$534265[ebp], esi
  00287	c6 45 fc 01	 mov	 BYTE PTR __$EHRec$[ebp+8], 1
  0028b	66 c7 45 c0 82
	82		 mov	 WORD PTR __t$534265[ebp+4], 33410 ; 00008282H
  00291	88 5d c2	 mov	 BYTE PTR __t$534265[ebp+6], bl
  00294	58		 pop	 eax
$LL751@LoadBuffLi:
  00295	8b c8		 mov	 ecx, eax
  00297	81 e1 03 00 00
	80		 and	 ecx, -2147483645	; 80000003H
  0029d	79 05		 jns	 SHORT $LN1048@LoadBuffLi
  0029f	49		 dec	 ecx
  002a0	83 c9 fc	 or	 ecx, -4			; fffffffcH
  002a3	41		 inc	 ecx
$LN1048@LoadBuffLi:
  002a4	b2 ed		 mov	 dl, -19			; ffffffedH
  002a6	2a d1		 sub	 dl, cl
  002a8	30 54 05 bc	 xor	 BYTE PTR __t$534265[ebp+eax], dl
  002ac	40		 inc	 eax
  002ad	83 f8 06	 cmp	 eax, 6
  002b0	7c e3		 jl	 SHORT $LL751@LoadBuffLi
  002b2	8d 45 bc	 lea	 eax, DWORD PTR __t$534265[ebp]
  002b5	50		 push	 eax
  002b6	8d 8d 74 f8 ff
	ff		 lea	 ecx, DWORD PTR _kSetBuffLoader$525894[ebp]
  002bc	ff 15 00 00 00
	00		 call	 DWORD PTR __imp_?SetTitle@ioINILoader@@QAEXPBD@Z
  002c2	6a 02		 push	 2

; 56   : 
; 57   : 		int iBuffCnt = kSetBuffLoader.LoadInt_e( "buff_cnt", 0 );

  002c4	c7 45 94 8f 99
	8d 8c		 mov	 DWORD PTR __k$534390[ebp], -1936877169 ; 8c8d998fH
  002cb	c7 45 98 b2 8f
	85 9e		 mov	 DWORD PTR __k$534390[ebp+4], -1635414094 ; 9e858fb2H
  002d2	8d 45 94	 lea	 eax, DWORD PTR __k$534390[ebp]
  002d5	88 5d 9c	 mov	 BYTE PTR __k$534390[ebp+8], bl
  002d8	59		 pop	 ecx
$LL860@LoadBuffLi:
  002d9	31 30		 xor	 DWORD PTR [eax], esi
  002db	83 c0 04	 add	 eax, 4
  002de	49		 dec	 ecx
  002df	75 f8		 jne	 SHORT $LL860@LoadBuffLi
  002e1	53		 push	 ebx
  002e2	8d 45 94	 lea	 eax, DWORD PTR __k$534390[ebp]
  002e5	50		 push	 eax
  002e6	8d 8d 74 f8 ff
	ff		 lea	 ecx, DWORD PTR _kSetBuffLoader$525894[ebp]
  002ec	ff 15 00 00 00
	00		 call	 DWORD PTR __imp_?LoadInt@ioINILoader@@QAEHPBDH@Z
  002f2	89 85 54 f5 ff
	ff		 mov	 DWORD PTR _iBuffCnt$525899[ebp], eax

; 58   : 		for( int j=0; j < iBuffCnt; ++j )

  002f8	33 c0		 xor	 eax, eax
  002fa	39 9d 54 f5 ff
	ff		 cmp	 DWORD PTR _iBuffCnt$525899[ebp], ebx
  00300	0f 8e ff 01 00
	00		 jle	 $LN103@LoadBuffLi
  00306	eb 05		 jmp	 SHORT $LN105@LoadBuffLi
$LL1043@LoadBuffLi:
  00308	be ed ec eb ea	 mov	 esi, -353637139		; eaebecedH
$LN105@LoadBuffLi:

; 59   : 		{
; 60   : 			//    
; 61   : 			wsprintf_e( szTitle, "buff%d", j+1 );

  0030d	c7 45 b0 8f 99
	8d 8c		 mov	 DWORD PTR ___encStr$525912[ebp], -1936877169 ; 8c8d998fH
  00314	31 75 b0	 xor	 DWORD PTR ___encStr$525912[ebp], esi
  00317	66 c7 45 b4 c8
	88		 mov	 WORD PTR ___encStr$525912[ebp+4], 35016 ; 000088c8H
  0031d	88 5d b6	 mov	 BYTE PTR ___encStr$525912[ebp+6], bl
  00320	c7 85 60 f5 ff
	ff 04 00 00 00	 mov	 DWORD PTR _i$534502[ebp], 4
$LL865@LoadBuffLi:
  0032a	8b 8d 60 f5 ff
	ff		 mov	 ecx, DWORD PTR _i$534502[ebp]
  00330	81 e1 03 00 00
	80		 and	 ecx, -2147483645	; 80000003H
  00336	79 05		 jns	 SHORT $LN1049@LoadBuffLi
  00338	49		 dec	 ecx
  00339	83 c9 fc	 or	 ecx, -4			; fffffffcH
  0033c	41		 inc	 ecx
$LN1049@LoadBuffLi:
  0033d	b2 ed		 mov	 dl, -19			; ffffffedH
  0033f	2a d1		 sub	 dl, cl
  00341	8b 8d 60 f5 ff
	ff		 mov	 ecx, DWORD PTR _i$534502[ebp]
  00347	30 54 0d b0	 xor	 BYTE PTR ___encStr$525912[ebp+ecx], dl
  0034b	ff 85 60 f5 ff
	ff		 inc	 DWORD PTR _i$534502[ebp]
  00351	83 bd 60 f5 ff
	ff 06		 cmp	 DWORD PTR _i$534502[ebp], 6
  00358	7c d0		 jl	 SHORT $LL865@LoadBuffLi
  0035a	40		 inc	 eax
  0035b	50		 push	 eax
  0035c	89 85 4c f5 ff
	ff		 mov	 DWORD PTR tv6791[ebp], eax
  00362	8d 45 b0	 lea	 eax, DWORD PTR ___encStr$525912[ebp]
  00365	50		 push	 eax
  00366	8d 85 90 fe ff
	ff		 lea	 eax, DWORD PTR _szTitle$[ebp]
  0036c	50		 push	 eax
  0036d	ff d7		 call	 edi
  0036f	83 c4 0c	 add	 esp, 12			; 0000000cH

; 62   : 			kSetBuffLoader.SetTitle( szTitle );

  00372	8d 85 90 fe ff
	ff		 lea	 eax, DWORD PTR _szTitle$[ebp]
  00378	50		 push	 eax
  00379	8d 8d 74 f8 ff
	ff		 lea	 ecx, DWORD PTR _kSetBuffLoader$525894[ebp]
  0037f	ff 15 00 00 00
	00		 call	 DWORD PTR __imp_?SetTitle@ioINILoader@@QAEXPBD@Z

; 63   : 
; 64   : 			int iTypeID = kSetBuffLoader.LoadInt_e( "type", 0 );

  00385	53		 push	 ebx
  00386	8d 45 a4	 lea	 eax, DWORD PTR __k$534635[ebp]
  00389	c7 45 a4 99 95
	9b 8f		 mov	 DWORD PTR __k$534635[ebp], -1885629031 ; 8f9b9599H
  00390	31 75 a4	 xor	 DWORD PTR __k$534635[ebp], esi
  00393	50		 push	 eax
  00394	8d 8d 74 f8 ff
	ff		 lea	 ecx, DWORD PTR _kSetBuffLoader$525894[ebp]
  0039a	88 5d a8	 mov	 BYTE PTR __k$534635[ebp+4], bl
  0039d	ff 15 00 00 00
	00		 call	 DWORD PTR __imp_?LoadInt@ioINILoader@@QAEHPBDH@Z

; 65   : 
; 66   : 			ioBuff *pBuff = CreateBuffTemplete( iTypeID, iBuffCategory );

  003a3	ff b5 48 f5 ff
	ff		 push	 DWORD PTR _iBuffCategory$525893[ebp]
  003a9	8b 8d 58 f5 ff
	ff		 mov	 ecx, DWORD PTR _this$GSCopy$[ebp]
  003af	50		 push	 eax
  003b0	89 85 60 f5 ff
	ff		 mov	 DWORD PTR _iTypeID$526061[ebp], eax
  003b6	e8 00 00 00 00	 call	 ?CreateBuffTemplete@ioBuffMaker@@IAEPAVioBuff@@HH@Z ; ioBuffMaker::CreateBuffTemplete
  003bb	8b f0		 mov	 esi, eax

; 67   : 			if( pBuff )
; 68   : 			{
; 69   : 				pBuff->SetGroupName( szGroupName );

  003bd	8d 85 8c fd ff
	ff		 lea	 eax, DWORD PTR _szGroupName$[ebp]
  003c3	50		 push	 eax
  003c4	3b f3		 cmp	 esi, ebx
  003c6	0f 84 05 01 00
	00		 je	 $LN3@LoadBuffLi
  003cc	8d 8d 0c f5 ff
	ff		 lea	 ecx, DWORD PTR $T533952[ebp]
  003d2	ff 15 00 00 00
	00		 call	 DWORD PTR __imp_??0ioHashString@@QAE@PBD@Z
  003d8	8d 85 0c f5 ff
	ff		 lea	 eax, DWORD PTR $T533952[ebp]
  003de	50		 push	 eax
  003df	8b ce		 mov	 ecx, esi
  003e1	c6 45 fc 02	 mov	 BYTE PTR __$EHRec$[ebp+8], 2
  003e5	e8 00 00 00 00	 call	 ?SetGroupName@ioBuff@@QAEXABVioHashString@@@Z ; ioBuff::SetGroupName
  003ea	8d 8d 0c f5 ff
	ff		 lea	 ecx, DWORD PTR $T533952[ebp]
  003f0	c6 45 fc 01	 mov	 BYTE PTR __$EHRec$[ebp+8], 1
  003f4	ff 15 00 00 00
	00		 call	 DWORD PTR __imp_??1ioHashString@@QAE@XZ

; 70   : 				pBuff->SetTitleName( szTitle );

  003fa	8d 85 90 fe ff
	ff		 lea	 eax, DWORD PTR _szTitle$[ebp]
  00400	50		 push	 eax
  00401	8d 8d 1c f5 ff
	ff		 lea	 ecx, DWORD PTR $T533953[ebp]
  00407	ff 15 00 00 00
	00		 call	 DWORD PTR __imp_??0ioHashString@@QAE@PBD@Z
  0040d	8d 85 1c f5 ff
	ff		 lea	 eax, DWORD PTR $T533953[ebp]
  00413	50		 push	 eax
  00414	8b ce		 mov	 ecx, esi
  00416	c6 45 fc 03	 mov	 BYTE PTR __$EHRec$[ebp+8], 3
  0041a	e8 00 00 00 00	 call	 ?SetTitleName@ioBuff@@QAEXABVioHashString@@@Z ; ioBuff::SetTitleName
  0041f	8d 8d 1c f5 ff
	ff		 lea	 ecx, DWORD PTR $T533953[ebp]
  00425	c6 45 fc 01	 mov	 BYTE PTR __$EHRec$[ebp+8], 1
  00429	ff 15 00 00 00
	00		 call	 DWORD PTR __imp_??1ioHashString@@QAE@XZ

; 71   : 				pBuff->LoadProperty( kSetBuffLoader );

  0042f	8b 06		 mov	 eax, DWORD PTR [esi]
  00431	8d 8d 74 f8 ff
	ff		 lea	 ecx, DWORD PTR _kSetBuffLoader$525894[ebp]
  00437	51		 push	 ecx
  00438	8b ce		 mov	 ecx, esi
  0043a	ff 10		 call	 DWORD PTR [eax]

; 72   : 
; 73   : 				auto it = m_BuffMap.insert( BuffMap::value_type( pBuff->GetName(), pBuff ) );

  0043c	8d 86 34 02 00
	00		 lea	 eax, DWORD PTR [esi+564]
  00442	50		 push	 eax
  00443	8d 8d 2c f5 ff
	ff		 lea	 ecx, DWORD PTR $T533954[ebp]
  00449	ff 15 00 00 00
	00		 call	 DWORD PTR __imp_??0ioHashString@@QAE@ABV0@@Z
  0044f	89 b5 3c f5 ff
	ff		 mov	 DWORD PTR $T533954[ebp+16], esi
  00455	8b 8d 58 f5 ff
	ff		 mov	 ecx, DWORD PTR _this$GSCopy$[ebp]
  0045b	53		 push	 ebx
  0045c	8d 85 2c f5 ff
	ff		 lea	 eax, DWORD PTR $T533954[ebp]
  00462	83 c1 04	 add	 ecx, 4
  00465	50		 push	 eax
  00466	c6 45 fc 04	 mov	 BYTE PTR __$EHRec$[ebp+8], 4
  0046a	e8 00 00 00 00	 call	 ??$_Buynode@U?$pair@$$CBVioHashString@@PAVioBuff@@@std@@@?$_Tree_val@V?$_Tmap_traits@VioHashString@@PAVioBuff@@U?$less@VioHashString@@@std@@V?$allocator@U?$pair@$$CBVioHashString@@PAVioBuff@@@std@@@4@$0A@@std@@@std@@QAEPAU_Node@?$_Tree_nod@V?$_Tmap_traits@VioHashString@@PAVioBuff@@U?$less@VioHashString@@@std@@V?$allocator@U?$pair@$$CBVioHashString@@PAVioBuff@@@std@@@4@$0A@@std@@@1@$$QAU?$pair@$$CBVioHashString@@PAVioBuff@@@1@@Z ; std::_Tree_val<std::_Tmap_traits<ioHashString,ioBuff *,std::less<ioHashString>,std::allocator<std::pair<ioHashString const ,ioBuff *> >,0> >::_Buynode<std::pair<ioHashString const ,ioBuff *> >
  0046f	8b 8d 58 f5 ff
	ff		 mov	 ecx, DWORD PTR _this$GSCopy$[ebp]
  00475	50		 push	 eax
  00476	8d 85 40 f5 ff
	ff		 lea	 eax, DWORD PTR _it$526071[ebp]
  0047c	50		 push	 eax
  0047d	83 c1 04	 add	 ecx, 4
  00480	e8 00 00 00 00	 call	 ?_Linsert@?$_Tree@V?$_Tmap_traits@VioHashString@@PAVioBuff@@U?$less@VioHashString@@@std@@V?$allocator@U?$pair@$$CBVioHashString@@PAVioBuff@@@std@@@4@$0A@@std@@@std@@QAE?AU?$pair@V?$_Tree_iterator@V?$_Tree_val@V?$_Tmap_traits@VioHashString@@PAVioBuff@@U?$less@VioHashString@@@std@@V?$allocator@U?$pair@$$CBVioHashString@@PAVioBuff@@@std@@@4@$0A@@std@@@std@@@std@@_N@2@PAU_Node@?$_Tree_nod@V?$_Tmap_traits@VioHashString@@PAVioBuff@@U?$less@VioHashString@@@std@@V?$allocator@U?$pair@$$CBVioHashString@@PAVioBuff@@@std@@@4@$0A@@std@@@2@_N@Z ; std::_Tree<std::_Tmap_traits<ioHashString,ioBuff *,std::less<ioHashString>,std::allocator<std::pair<ioHashString const ,ioBuff *> >,0> >::_Linsert
  00485	8d 8d 2c f5 ff
	ff		 lea	 ecx, DWORD PTR $T533954[ebp]
  0048b	c6 45 fc 01	 mov	 BYTE PTR __$EHRec$[ebp+8], 1
  0048f	ff 15 00 00 00
	00		 call	 DWORD PTR __imp_??1ioHashString@@QAE@XZ

; 74   : 				if( !it.second )

  00495	38 9d 44 f5 ff
	ff		 cmp	 BYTE PTR _it$526071[ebp+4], bl
  0049b	75 56		 jne	 SHORT $LN104@LoadBuffLi

; 75   : 				{
; 76   : 					LOG.PrintTimeAndLog( 0, "ioBuffMaker::LoadBuffList insert Faild - %d : %s Unknown TypeID, %s", iTypeID, szTitle, szGroupName );

  0049d	8d 85 8c fd ff
	ff		 lea	 eax, DWORD PTR _szGroupName$[ebp]
  004a3	50		 push	 eax
  004a4	8d 85 90 fe ff
	ff		 lea	 eax, DWORD PTR _szTitle$[ebp]
  004aa	50		 push	 eax
  004ab	ff b5 60 f5 ff
	ff		 push	 DWORD PTR _iTypeID$526061[ebp]
  004b1	68 00 00 00 00	 push	 OFFSET ??_C@_0EE@IFIBLNNA@ioBuffMaker?3?3LoadBuffList?5insert@
  004b6	53		 push	 ebx
  004b7	ff 35 00 00 00
	00		 push	 DWORD PTR __imp_?LOG@@3VCLog@@A
  004bd	ff 15 00 00 00
	00		 call	 DWORD PTR __imp_?PrintTimeAndLog@CLog@@QAAXHPADZZ

; 77   : 					delete pBuff;

  004c3	8b 06		 mov	 eax, DWORD PTR [esi]
  004c5	83 c4 18	 add	 esp, 24			; 00000018H
  004c8	6a 01		 push	 1
  004ca	8b ce		 mov	 ecx, esi
  004cc	ff 50 70	 call	 DWORD PTR [eax+112]

; 78   : 				}
; 79   : 			}
; 80   : 			else

  004cf	eb 22		 jmp	 SHORT $LN104@LoadBuffLi
$LN3@LoadBuffLi:

; 81   : 			{
; 82   : 				LOG.PrintTimeAndLog( 0, "ioBuffMaker::LoadBuffList - %d : %s Unknown TypeID, %s", iTypeID, szTitle, szGroupName );

  004d1	8d 85 90 fe ff
	ff		 lea	 eax, DWORD PTR _szTitle$[ebp]
  004d7	50		 push	 eax
  004d8	ff b5 60 f5 ff
	ff		 push	 DWORD PTR _iTypeID$526061[ebp]
  004de	68 00 00 00 00	 push	 OFFSET ??_C@_0DH@OOFIEKIP@ioBuffMaker?3?3LoadBuffList?5?9?5?$CFd?5?3@
  004e3	53		 push	 ebx
  004e4	ff 35 00 00 00
	00		 push	 DWORD PTR __imp_?LOG@@3VCLog@@A
  004ea	ff 15 00 00 00
	00		 call	 DWORD PTR __imp_?PrintTimeAndLog@CLog@@QAAXHPADZZ
  004f0	83 c4 18	 add	 esp, 24			; 00000018H
$LN104@LoadBuffLi:

; 58   : 		for( int j=0; j < iBuffCnt; ++j )

  004f3	8b 85 4c f5 ff
	ff		 mov	 eax, DWORD PTR tv6791[ebp]
  004f9	3b 85 54 f5 ff
	ff		 cmp	 eax, DWORD PTR _iBuffCnt$525899[ebp]
  004ff	0f 8c 03 fe ff
	ff		 jl	 $LL1043@LoadBuffLi
$LN103@LoadBuffLi:

; 83   : 			}
; 84   : 		}
; 85   : 	}

  00505	8d 8d 74 f8 ff
	ff		 lea	 ecx, DWORD PTR _kSetBuffLoader$525894[ebp]
  0050b	88 5d fc	 mov	 BYTE PTR __$EHRec$[ebp+8], bl
  0050e	ff 15 00 00 00
	00		 call	 DWORD PTR __imp_??1ioINILoader@@QAE@XZ
  00514	ff 85 5c f5 ff
	ff		 inc	 DWORD PTR _i$[ebp]
  0051a	8b 85 5c f5 ff
	ff		 mov	 eax, DWORD PTR _i$[ebp]
  00520	3b 85 50 f5 ff
	ff		 cmp	 eax, DWORD PTR _iGroupCnt$[ebp]
  00526	0f 8c 28 fc ff
	ff		 jl	 $LN405@LoadBuffLi
$LN403@LoadBuffLi:

; 86   : }

  0052c	83 4d fc ff	 or	 DWORD PTR __$EHRec$[ebp+8], -1
  00530	8d 8d 64 f5 ff
	ff		 lea	 ecx, DWORD PTR _kLoader$[ebp]
  00536	ff 15 00 00 00
	00		 call	 DWORD PTR __imp_??1ioINILoader@@QAE@XZ
  0053c	e8 00 00 00 00	 call	 __EH_epilog3_GS
  00541	c2 04 00	 ret	 4
_TEXT	ENDS
;	COMDAT text$x
text$x	SEGMENT
__unwindfunclet$?LoadBuffList@ioBuffMaker@@QAEXPBD@Z$0:
  00000	8d 8d 64 f5 ff
	ff		 lea	 ecx, DWORD PTR _kLoader$[ebp]
  00006	ff 25 00 00 00
	00		 jmp	 DWORD PTR __imp_??1ioINILoader@@QAE@XZ
__unwindfunclet$?LoadBuffList@ioBuffMaker@@QAEXPBD@Z$1:
  0000c	8d 8d 74 f8 ff
	ff		 lea	 ecx, DWORD PTR _kSetBuffLoader$525894[ebp]
  00012	ff 25 00 00 00
	00		 jmp	 DWORD PTR __imp_??1ioINILoader@@QAE@XZ
__unwindfunclet$?LoadBuffList@ioBuffMaker@@QAEXPBD@Z$2:
  00018	8d 8d 0c f5 ff
	ff		 lea	 ecx, DWORD PTR $T533952[ebp]
  0001e	ff 25 00 00 00
	00		 jmp	 DWORD PTR __imp_??1ioHashString@@QAE@XZ
__unwindfunclet$?LoadBuffList@ioBuffMaker@@QAEXPBD@Z$3:
  00024	8d 8d 1c f5 ff
	ff		 lea	 ecx, DWORD PTR $T533953[ebp]
  0002a	ff 25 00 00 00
	00		 jmp	 DWORD PTR __imp_??1ioHashString@@QAE@XZ
__unwindfunclet$?LoadBuffList@ioBuffMaker@@QAEXPBD@Z$4:
  00030	8d 8d 2c f5 ff
	ff		 lea	 ecx, DWORD PTR $T533954[ebp]
  00036	e9 00 00 00 00	 jmp	 ??1?$pair@$$CBVioHashString@@PAVioBuff@@@std@@QAE@XZ
__ehhandler$?LoadBuffList@ioBuffMaker@@QAEXPBD@Z:
  0003b	8b 54 24 08	 mov	 edx, DWORD PTR [esp+8]
  0003f	8d 42 0c	 lea	 eax, DWORD PTR [edx+12]
  00042	8b 8a 08 f5 ff
	ff		 mov	 ecx, DWORD PTR [edx-2808]
  00048	33 c8		 xor	 ecx, eax
  0004a	e8 00 00 00 00	 call	 @__security_check_cookie@4
  0004f	8b 4a fc	 mov	 ecx, DWORD PTR [edx-4]
  00052	33 c8		 xor	 ecx, eax
  00054	e8 00 00 00 00	 call	 @__security_check_cookie@4
  00059	b8 00 00 00 00	 mov	 eax, OFFSET __ehfuncinfo$?LoadBuffList@ioBuffMaker@@QAEXPBD@Z
  0005e	e9 00 00 00 00	 jmp	 ___CxxFrameHandler3
text$x	ENDS
?LoadBuffList@ioBuffMaker@@QAEXPBD@Z ENDP		; ioBuffMaker::LoadBuffList
PUBLIC	?_Tidy@?$_Tree@V?$_Tmap_traits@VioHashString@@PAVioBuff@@U?$less@VioHashString@@@std@@V?$allocator@U?$pair@$$CBVioHashString@@PAVioBuff@@@std@@@4@$0A@@std@@@std@@IAEXXZ ; std::_Tree<std::_Tmap_traits<ioHashString,ioBuff *,std::less<ioHashString>,std::allocator<std::pair<ioHashString const ,ioBuff *> >,0> >::_Tidy
; Function compile flags: /Ogsp
; File c:\program files (x86)\microsoft visual studio 10.0\vc\include\xtree
;	COMDAT ?_Tidy@?$_Tree@V?$_Tmap_traits@VioHashString@@PAVioBuff@@U?$less@VioHashString@@@std@@V?$allocator@U?$pair@$$CBVioHashString@@PAVioBuff@@@std@@@4@$0A@@std@@@std@@IAEXXZ
_TEXT	SEGMENT
$T534758 = -4						; size = 4
?_Tidy@?$_Tree@V?$_Tmap_traits@VioHashString@@PAVioBuff@@U?$less@VioHashString@@@std@@V?$allocator@U?$pair@$$CBVioHashString@@PAVioBuff@@@std@@@4@$0A@@std@@@std@@IAEXXZ PROC ; std::_Tree<std::_Tmap_traits<ioHashString,ioBuff *,std::less<ioHashString>,std::allocator<std::pair<ioHashString const ,ioBuff *> >,0> >::_Tidy, COMDAT
; _this$ = ecx

; 1865 : 		{	// free all storage

  00000	55		 push	 ebp
  00001	8b ec		 mov	 ebp, esp
  00003	51		 push	 ecx

; 1866 : 		erase(begin(), end());

  00004	8b 41 04	 mov	 eax, DWORD PTR [ecx+4]
  00007	8b 10		 mov	 edx, DWORD PTR [eax]
  00009	50		 push	 eax
  0000a	52		 push	 edx
  0000b	8d 45 fc	 lea	 eax, DWORD PTR $T534758[ebp]
  0000e	50		 push	 eax
  0000f	e8 00 00 00 00	 call	 ?erase@?$_Tree@V?$_Tmap_traits@VioHashString@@PAVioBuff@@U?$less@VioHashString@@@std@@V?$allocator@U?$pair@$$CBVioHashString@@PAVioBuff@@@std@@@4@$0A@@std@@@std@@QAE?AV?$_Tree_iterator@V?$_Tree_val@V?$_Tmap_traits@VioHashString@@PAVioBuff@@U?$less@VioHashString@@@std@@V?$allocator@U?$pair@$$CBVioHashString@@PAVioBuff@@@std@@@4@$0A@@std@@@std@@@2@V?$_Tree_const_iterator@V?$_Tree_val@V?$_Tmap_traits@VioHashString@@PAVioBuff@@U?$less@VioHashString@@@std@@V?$allocator@U?$pair@$$CBVioHashString@@PAVioBuff@@@std@@@4@$0A@@std@@@std@@@2@0@Z ; std::_Tree<std::_Tmap_traits<ioHashString,ioBuff *,std::less<ioHashString>,std::allocator<std::pair<ioHashString const ,ioBuff *> >,0> >::erase

; 1867 : 		}

  00014	c9		 leave
  00015	c3		 ret	 0
?_Tidy@?$_Tree@V?$_Tmap_traits@VioHashString@@PAVioBuff@@U?$less@VioHashString@@@std@@V?$allocator@U?$pair@$$CBVioHashString@@PAVioBuff@@@std@@@4@$0A@@std@@@std@@IAEXXZ ENDP ; std::_Tree<std::_Tmap_traits<ioHashString,ioBuff *,std::less<ioHashString>,std::allocator<std::pair<ioHashString const ,ioBuff *> >,0> >::_Tidy
_TEXT	ENDS
PUBLIC	??1?$_Tree@V?$_Tmap_traits@VioHashString@@PAVioBuff@@U?$less@VioHashString@@@std@@V?$allocator@U?$pair@$$CBVioHashString@@PAVioBuff@@@std@@@4@$0A@@std@@@std@@QAE@XZ ; std::_Tree<std::_Tmap_traits<ioHashString,ioBuff *,std::less<ioHashString>,std::allocator<std::pair<ioHashString const ,ioBuff *> >,0> >::~_Tree<std::_Tmap_traits<ioHashString,ioBuff *,std::less<ioHashString>,std::allocator<std::pair<ioHashString const ,ioBuff *> >,0> >
;	COMDAT xdata$x
; File c:\program files (x86)\microsoft visual studio 10.0\vc\include\xmemory
xdata$x	SEGMENT
__unwindtable$??1?$_Tree@V?$_Tmap_traits@VioHashString@@PAVioBuff@@U?$less@VioHashString@@@std@@V?$allocator@U?$pair@$$CBVioHashString@@PAVioBuff@@@std@@@4@$0A@@std@@@std@@QAE@XZ DD 0ffffffffH
	DD	FLAT:__unwindfunclet$??1?$_Tree@V?$_Tmap_traits@VioHashString@@PAVioBuff@@U?$less@VioHashString@@@std@@V?$allocator@U?$pair@$$CBVioHashString@@PAVioBuff@@@std@@@4@$0A@@std@@@std@@QAE@XZ$0
__ehfuncinfo$??1?$_Tree@V?$_Tmap_traits@VioHashString@@PAVioBuff@@U?$less@VioHashString@@@std@@V?$allocator@U?$pair@$$CBVioHashString@@PAVioBuff@@@std@@@4@$0A@@std@@@std@@QAE@XZ DD 019930522H
	DD	01H
	DD	FLAT:__unwindtable$??1?$_Tree@V?$_Tmap_traits@VioHashString@@PAVioBuff@@U?$less@VioHashString@@@std@@V?$allocator@U?$pair@$$CBVioHashString@@PAVioBuff@@@std@@@4@$0A@@std@@@std@@QAE@XZ
	DD	2 DUP(00H)
	DD	2 DUP(00H)
	DD	00H
	DD	01H
; Function compile flags: /Ogsp
; File c:\program files (x86)\microsoft visual studio 10.0\vc\include\xtree
xdata$x	ENDS
;	COMDAT ??1?$_Tree@V?$_Tmap_traits@VioHashString@@PAVioBuff@@U?$less@VioHashString@@@std@@V?$allocator@U?$pair@$$CBVioHashString@@PAVioBuff@@@std@@@4@$0A@@std@@@std@@QAE@XZ
_TEXT	SEGMENT
$T534944 = -20						; size = 4
_this$ = -16						; size = 4
__$EHRec$ = -12						; size = 12
??1?$_Tree@V?$_Tmap_traits@VioHashString@@PAVioBuff@@U?$less@VioHashString@@@std@@V?$allocator@U?$pair@$$CBVioHashString@@PAVioBuff@@@std@@@4@$0A@@std@@@std@@QAE@XZ PROC ; std::_Tree<std::_Tmap_traits<ioHashString,ioBuff *,std::less<ioHashString>,std::allocator<std::pair<ioHashString const ,ioBuff *> >,0> >::~_Tree<std::_Tmap_traits<ioHashString,ioBuff *,std::less<ioHashString>,std::allocator<std::pair<ioHashString const ,ioBuff *> >,0> >, COMDAT
; _this$ = ecx

; 790  : 		{	// destroy tree

  00000	6a 08		 push	 8
  00002	b8 00 00 00 00	 mov	 eax, __ehhandler$??1?$_Tree@V?$_Tmap_traits@VioHashString@@PAVioBuff@@U?$less@VioHashString@@@std@@V?$allocator@U?$pair@$$CBVioHashString@@PAVioBuff@@@std@@@4@$0A@@std@@@std@@QAE@XZ
  00007	e8 00 00 00 00	 call	 __EH_prolog3
  0000c	8b f1		 mov	 esi, ecx
  0000e	89 75 f0	 mov	 DWORD PTR _this$[ebp], esi

; 791  : 		_Tidy();

  00011	8b 46 04	 mov	 eax, DWORD PTR [esi+4]
  00014	8b 08		 mov	 ecx, DWORD PTR [eax]
  00016	83 65 fc 00	 and	 DWORD PTR __$EHRec$[ebp+8], 0
  0001a	50		 push	 eax
  0001b	51		 push	 ecx
  0001c	8d 45 ec	 lea	 eax, DWORD PTR $T534944[ebp]
  0001f	50		 push	 eax
  00020	8b ce		 mov	 ecx, esi
  00022	e8 00 00 00 00	 call	 ?erase@?$_Tree@V?$_Tmap_traits@VioHashString@@PAVioBuff@@U?$less@VioHashString@@@std@@V?$allocator@U?$pair@$$CBVioHashString@@PAVioBuff@@@std@@@4@$0A@@std@@@std@@QAE?AV?$_Tree_iterator@V?$_Tree_val@V?$_Tmap_traits@VioHashString@@PAVioBuff@@U?$less@VioHashString@@@std@@V?$allocator@U?$pair@$$CBVioHashString@@PAVioBuff@@@std@@@4@$0A@@std@@@std@@@2@V?$_Tree_const_iterator@V?$_Tree_val@V?$_Tmap_traits@VioHashString@@PAVioBuff@@U?$less@VioHashString@@@std@@V?$allocator@U?$pair@$$CBVioHashString@@PAVioBuff@@@std@@@4@$0A@@std@@@std@@@2@0@Z ; std::_Tree<std::_Tmap_traits<ioHashString,ioBuff *,std::less<ioHashString>,std::allocator<std::pair<ioHashString const ,ioBuff *> >,0> >::erase

; 792  : 		}

  00027	ff 76 04	 push	 DWORD PTR [esi+4]
  0002a	e8 00 00 00 00	 call	 ??3@YAXPAX@Z		; operator delete
  0002f	59		 pop	 ecx
  00030	e8 00 00 00 00	 call	 __EH_epilog3
  00035	c3		 ret	 0
_TEXT	ENDS
;	COMDAT text$x
text$x	SEGMENT
__unwindfunclet$??1?$_Tree@V?$_Tmap_traits@VioHashString@@PAVioBuff@@U?$less@VioHashString@@@std@@V?$allocator@U?$pair@$$CBVioHashString@@PAVioBuff@@@std@@@4@$0A@@std@@@std@@QAE@XZ$0:
  00000	8b 4d f0	 mov	 ecx, DWORD PTR _this$[ebp]
  00003	e9 00 00 00 00	 jmp	 ??1?$_Tree_val@V?$_Tmap_traits@VioHashString@@PAVioBuff@@U?$less@VioHashString@@@std@@V?$allocator@U?$pair@$$CBVioHashString@@PAVioBuff@@@std@@@4@$0A@@std@@@std@@QAE@XZ ; std::_Tree_val<std::_Tmap_traits<ioHashString,ioBuff *,std::less<ioHashString>,std::allocator<std::pair<ioHashString const ,ioBuff *> >,0> >::~_Tree_val<std::_Tmap_traits<ioHashString,ioBuff *,std::less<ioHashString>,std::allocator<std::pair<ioHashString const ,ioBuff *> >,0> >
__ehhandler$??1?$_Tree@V?$_Tmap_traits@VioHashString@@PAVioBuff@@U?$less@VioHashString@@@std@@V?$allocator@U?$pair@$$CBVioHashString@@PAVioBuff@@@std@@@4@$0A@@std@@@std@@QAE@XZ:
  00008	8b 54 24 08	 mov	 edx, DWORD PTR [esp+8]
  0000c	8d 42 0c	 lea	 eax, DWORD PTR [edx+12]
  0000f	8b 4a e8	 mov	 ecx, DWORD PTR [edx-24]
  00012	33 c8		 xor	 ecx, eax
  00014	e8 00 00 00 00	 call	 @__security_check_cookie@4
  00019	b8 00 00 00 00	 mov	 eax, OFFSET __ehfuncinfo$??1?$_Tree@V?$_Tmap_traits@VioHashString@@PAVioBuff@@U?$less@VioHashString@@@std@@V?$allocator@U?$pair@$$CBVioHashString@@PAVioBuff@@@std@@@4@$0A@@std@@@std@@QAE@XZ
  0001e	e9 00 00 00 00	 jmp	 ___CxxFrameHandler3
text$x	ENDS
??1?$_Tree@V?$_Tmap_traits@VioHashString@@PAVioBuff@@U?$less@VioHashString@@@std@@V?$allocator@U?$pair@$$CBVioHashString@@PAVioBuff@@@std@@@4@$0A@@std@@@std@@QAE@XZ ENDP ; std::_Tree<std::_Tmap_traits<ioHashString,ioBuff *,std::less<ioHashString>,std::allocator<std::pair<ioHashString const ,ioBuff *> >,0> >::~_Tree<std::_Tmap_traits<ioHashString,ioBuff *,std::less<ioHashString>,std::allocator<std::pair<ioHashString const ,ioBuff *> >,0> >
PUBLIC	??1?$map@VioHashString@@PAVioBuff@@U?$less@VioHashString@@@std@@V?$allocator@U?$pair@$$CBVioHashString@@PAVioBuff@@@std@@@4@@std@@QAE@XZ ; std::map<ioHashString,ioBuff *,std::less<ioHashString>,std::allocator<std::pair<ioHashString const ,ioBuff *> > >::~map<ioHashString,ioBuff *,std::less<ioHashString>,std::allocator<std::pair<ioHashString const ,ioBuff *> > >
; Function compile flags: /Ogsp
;	COMDAT ??1?$map@VioHashString@@PAVioBuff@@U?$less@VioHashString@@@std@@V?$allocator@U?$pair@$$CBVioHashString@@PAVioBuff@@@std@@@4@@std@@QAE@XZ
_TEXT	SEGMENT
??1?$map@VioHashString@@PAVioBuff@@U?$less@VioHashString@@@std@@V?$allocator@U?$pair@$$CBVioHashString@@PAVioBuff@@@std@@@4@@std@@QAE@XZ PROC ; std::map<ioHashString,ioBuff *,std::less<ioHashString>,std::allocator<std::pair<ioHashString const ,ioBuff *> > >::~map<ioHashString,ioBuff *,std::less<ioHashString>,std::allocator<std::pair<ioHashString const ,ioBuff *> > >, COMDAT
; _this$ = ecx
  00000	e9 00 00 00 00	 jmp	 ??1?$_Tree@V?$_Tmap_traits@VioHashString@@PAVioBuff@@U?$less@VioHashString@@@std@@V?$allocator@U?$pair@$$CBVioHashString@@PAVioBuff@@@std@@@4@$0A@@std@@@std@@QAE@XZ ; std::_Tree<std::_Tmap_traits<ioHashString,ioBuff *,std::less<ioHashString>,std::allocator<std::pair<ioHashString const ,ioBuff *> >,0> >::~_Tree<std::_Tmap_traits<ioHashString,ioBuff *,std::less<ioHashString>,std::allocator<std::pair<ioHashString const ,ioBuff *> >,0> >
??1?$map@VioHashString@@PAVioBuff@@U?$less@VioHashString@@@std@@V?$allocator@U?$pair@$$CBVioHashString@@PAVioBuff@@@std@@@4@@std@@QAE@XZ ENDP ; std::map<ioHashString,ioBuff *,std::less<ioHashString>,std::allocator<std::pair<ioHashString const ,ioBuff *> > >::~map<ioHashString,ioBuff *,std::less<ioHashString>,std::allocator<std::pair<ioHashString const ,ioBuff *> > >
_TEXT	ENDS
PUBLIC	??_7ioBuffMaker@@6B@				; ioBuffMaker::`vftable'
PUBLIC	??1ioBuffMaker@@UAE@XZ				; ioBuffMaker::~ioBuffMaker
PUBLIC	??_R4ioBuffMaker@@6B@				; ioBuffMaker::`RTTI Complete Object Locator'
PUBLIC	??_R0?AVioBuffMaker@@@8				; ioBuffMaker `RTTI Type Descriptor'
PUBLIC	??_R3ioBuffMaker@@8				; ioBuffMaker::`RTTI Class Hierarchy Descriptor'
PUBLIC	??_R2ioBuffMaker@@8				; ioBuffMaker::`RTTI Base Class Array'
PUBLIC	??_R1A@?0A@EA@ioBuffMaker@@8			; ioBuffMaker::`RTTI Base Class Descriptor at (0,-1,0,64)'
PUBLIC	??_R13?0A@EA@?$Singleton@VioBuffMaker@@@@8	; Singleton<ioBuffMaker>::`RTTI Base Class Descriptor at (4,-1,0,64)'
PUBLIC	??_R0?AV?$Singleton@VioBuffMaker@@@@@8		; Singleton<ioBuffMaker> `RTTI Type Descriptor'
PUBLIC	??_R3?$Singleton@VioBuffMaker@@@@8		; Singleton<ioBuffMaker>::`RTTI Class Hierarchy Descriptor'
PUBLIC	??_R2?$Singleton@VioBuffMaker@@@@8		; Singleton<ioBuffMaker>::`RTTI Base Class Array'
PUBLIC	??_R1A@?0A@EA@?$Singleton@VioBuffMaker@@@@8	; Singleton<ioBuffMaker>::`RTTI Base Class Descriptor at (0,-1,0,64)'
EXTRN	??_EioBuffMaker@@UAEPAXI@Z:PROC			; ioBuffMaker::`vector deleting destructor'
;	COMDAT ??_R1A@?0A@EA@?$Singleton@VioBuffMaker@@@@8
; File d:\lost saga for developer\youtube\tutorial\source\src\io3dengine\iosingleton.h
rdata$r	SEGMENT
??_R1A@?0A@EA@?$Singleton@VioBuffMaker@@@@8 DD FLAT:??_R0?AV?$Singleton@VioBuffMaker@@@@@8 ; Singleton<ioBuffMaker>::`RTTI Base Class Descriptor at (0,-1,0,64)'
	DD	00H
	DD	00H
	DD	0ffffffffH
	DD	00H
	DD	040H
	DD	FLAT:??_R3?$Singleton@VioBuffMaker@@@@8
rdata$r	ENDS
;	COMDAT ??_R2?$Singleton@VioBuffMaker@@@@8
rdata$r	SEGMENT
??_R2?$Singleton@VioBuffMaker@@@@8 DD FLAT:??_R1A@?0A@EA@?$Singleton@VioBuffMaker@@@@8 ; Singleton<ioBuffMaker>::`RTTI Base Class Array'
rdata$r	ENDS
;	COMDAT ??_R3?$Singleton@VioBuffMaker@@@@8
rdata$r	SEGMENT
??_R3?$Singleton@VioBuffMaker@@@@8 DD 00H		; Singleton<ioBuffMaker>::`RTTI Class Hierarchy Descriptor'
	DD	00H
	DD	01H
	DD	FLAT:??_R2?$Singleton@VioBuffMaker@@@@8
rdata$r	ENDS
;	COMDAT ??_R0?AV?$Singleton@VioBuffMaker@@@@@8
_DATA	SEGMENT
??_R0?AV?$Singleton@VioBuffMaker@@@@@8 DD FLAT:??_7type_info@@6B@ ; Singleton<ioBuffMaker> `RTTI Type Descriptor'
	DD	00H
	DB	'.?AV?$Singleton@VioBuffMaker@@@@', 00H
_DATA	ENDS
;	COMDAT ??_R13?0A@EA@?$Singleton@VioBuffMaker@@@@8
rdata$r	SEGMENT
??_R13?0A@EA@?$Singleton@VioBuffMaker@@@@8 DD FLAT:??_R0?AV?$Singleton@VioBuffMaker@@@@@8 ; Singleton<ioBuffMaker>::`RTTI Base Class Descriptor at (4,-1,0,64)'
	DD	00H
	DD	04H
	DD	0ffffffffH
	DD	00H
	DD	040H
	DD	FLAT:??_R3?$Singleton@VioBuffMaker@@@@8
rdata$r	ENDS
;	COMDAT ??_R1A@?0A@EA@ioBuffMaker@@8
rdata$r	SEGMENT
??_R1A@?0A@EA@ioBuffMaker@@8 DD FLAT:??_R0?AVioBuffMaker@@@8 ; ioBuffMaker::`RTTI Base Class Descriptor at (0,-1,0,64)'
	DD	01H
	DD	00H
	DD	0ffffffffH
	DD	00H
	DD	040H
	DD	FLAT:??_R3ioBuffMaker@@8
rdata$r	ENDS
;	COMDAT ??_R2ioBuffMaker@@8
rdata$r	SEGMENT
??_R2ioBuffMaker@@8 DD FLAT:??_R1A@?0A@EA@ioBuffMaker@@8 ; ioBuffMaker::`RTTI Base Class Array'
	DD	FLAT:??_R13?0A@EA@?$Singleton@VioBuffMaker@@@@8
rdata$r	ENDS
;	COMDAT ??_R3ioBuffMaker@@8
rdata$r	SEGMENT
??_R3ioBuffMaker@@8 DD 00H				; ioBuffMaker::`RTTI Class Hierarchy Descriptor'
	DD	00H
	DD	02H
	DD	FLAT:??_R2ioBuffMaker@@8
rdata$r	ENDS
;	COMDAT ??_R0?AVioBuffMaker@@@8
_DATA	SEGMENT
??_R0?AVioBuffMaker@@@8 DD FLAT:??_7type_info@@6B@	; ioBuffMaker `RTTI Type Descriptor'
	DD	00H
	DB	'.?AVioBuffMaker@@', 00H
_DATA	ENDS
;	COMDAT ??_R4ioBuffMaker@@6B@
rdata$r	SEGMENT
??_R4ioBuffMaker@@6B@ DD 00H				; ioBuffMaker::`RTTI Complete Object Locator'
	DD	00H
	DD	00H
	DD	FLAT:??_R0?AVioBuffMaker@@@8
	DD	FLAT:??_R3ioBuffMaker@@8
rdata$r	ENDS
;	COMDAT ??_7ioBuffMaker@@6B@
CONST	SEGMENT
??_7ioBuffMaker@@6B@ DD FLAT:??_R4ioBuffMaker@@6B@	; ioBuffMaker::`vftable'
	DD	FLAT:??_EioBuffMaker@@UAEPAXI@Z
CONST	ENDS
;	COMDAT xdata$x
xdata$x	SEGMENT
__unwindtable$??1ioBuffMaker@@UAE@XZ DD 0ffffffffH
	DD	FLAT:__unwindfunclet$??1ioBuffMaker@@UAE@XZ$0
	DD	00H
	DD	FLAT:__unwindfunclet$??1ioBuffMaker@@UAE@XZ$1
__ehfuncinfo$??1ioBuffMaker@@UAE@XZ DD 019930522H
	DD	02H
	DD	FLAT:__unwindtable$??1ioBuffMaker@@UAE@XZ
	DD	2 DUP(00H)
	DD	2 DUP(00H)
	DD	00H
	DD	01H
; Function compile flags: /Ogsp
; File d:\lost saga for developer\youtube\tutorial\source\src\lsclient\iobuffmaker.cpp
xdata$x	ENDS
;	COMDAT ??1ioBuffMaker@@UAE@XZ
_TEXT	SEGMENT
_this$ = -16						; size = 4
__$EHRec$ = -12						; size = 12
??1ioBuffMaker@@UAE@XZ PROC				; ioBuffMaker::~ioBuffMaker, COMDAT
; _this$ = ecx

; 17   : {

  00000	6a 04		 push	 4
  00002	b8 00 00 00 00	 mov	 eax, __ehhandler$??1ioBuffMaker@@UAE@XZ
  00007	e8 00 00 00 00	 call	 __EH_prolog3
  0000c	8b f1		 mov	 esi, ecx
  0000e	89 75 f0	 mov	 DWORD PTR _this$[ebp], esi
  00011	c7 06 00 00 00
	00		 mov	 DWORD PTR [esi], OFFSET ??_7ioBuffMaker@@6B@
  00017	c7 45 fc 01 00
	00 00		 mov	 DWORD PTR __$EHRec$[ebp+8], 1

; 18   : 	ClearBuffList();

  0001e	e8 00 00 00 00	 call	 ?ClearBuffList@ioBuffMaker@@QAEXXZ ; ioBuffMaker::ClearBuffList

; 19   : }

  00023	8d 4e 04	 lea	 ecx, DWORD PTR [esi+4]
  00026	c6 45 fc 00	 mov	 BYTE PTR __$EHRec$[ebp+8], 0
  0002a	e8 00 00 00 00	 call	 ??1?$_Tree@V?$_Tmap_traits@VioHashString@@PAVioBuff@@U?$less@VioHashString@@@std@@V?$allocator@U?$pair@$$CBVioHashString@@PAVioBuff@@@std@@@4@$0A@@std@@@std@@QAE@XZ ; std::_Tree<std::_Tmap_traits<ioHashString,ioBuff *,std::less<ioHashString>,std::allocator<std::pair<ioHashString const ,ioBuff *> >,0> >::~_Tree<std::_Tmap_traits<ioHashString,ioBuff *,std::less<ioHashString>,std::allocator<std::pair<ioHashString const ,ioBuff *> >,0> >
  0002f	83 25 00 00 00
	00 00		 and	 DWORD PTR ?ms_Singleton@?$Singleton@VioBuffMaker@@@@1PAVioBuffMaker@@A, 0 ; Singleton<ioBuffMaker>::ms_Singleton
  00036	e8 00 00 00 00	 call	 __EH_epilog3
  0003b	c3		 ret	 0
_TEXT	ENDS
;	COMDAT text$x
text$x	SEGMENT
__unwindfunclet$??1ioBuffMaker@@UAE@XZ$0:
  00000	8b 4d f0	 mov	 ecx, DWORD PTR _this$[ebp]
  00003	83 c1 04	 add	 ecx, 4
  00006	e9 00 00 00 00	 jmp	 ??1?$Singleton@VioBuffMaker@@@@QAE@XZ ; Singleton<ioBuffMaker>::~Singleton<ioBuffMaker>
__unwindfunclet$??1ioBuffMaker@@UAE@XZ$1:
  0000b	8b 4d f0	 mov	 ecx, DWORD PTR _this$[ebp]
  0000e	83 c1 04	 add	 ecx, 4
  00011	e9 00 00 00 00	 jmp	 ??1?$map@VioHashString@@PAVioBuff@@U?$less@VioHashString@@@std@@V?$allocator@U?$pair@$$CBVioHashString@@PAVioBuff@@@std@@@4@@std@@QAE@XZ
__ehhandler$??1ioBuffMaker@@UAE@XZ:
  00016	8b 54 24 08	 mov	 edx, DWORD PTR [esp+8]
  0001a	8d 42 0c	 lea	 eax, DWORD PTR [edx+12]
  0001d	8b 4a ec	 mov	 ecx, DWORD PTR [edx-20]
  00020	33 c8		 xor	 ecx, eax
  00022	e8 00 00 00 00	 call	 @__security_check_cookie@4
  00027	b8 00 00 00 00	 mov	 eax, OFFSET __ehfuncinfo$??1ioBuffMaker@@UAE@XZ
  0002c	e9 00 00 00 00	 jmp	 ___CxxFrameHandler3
text$x	ENDS
??1ioBuffMaker@@UAE@XZ ENDP				; ioBuffMaker::~ioBuffMaker
PUBLIC	??0?$map@VioHashString@@PAVioBuff@@U?$less@VioHashString@@@std@@V?$allocator@U?$pair@$$CBVioHashString@@PAVioBuff@@@std@@@4@@std@@QAE@XZ ; std::map<ioHashString,ioBuff *,std::less<ioHashString>,std::allocator<std::pair<ioHashString const ,ioBuff *> > >::map<ioHashString,ioBuff *,std::less<ioHashString>,std::allocator<std::pair<ioHashString const ,ioBuff *> > >
; Function compile flags: /Ogsp
; File c:\program files (x86)\microsoft visual studio 10.0\vc\include\map
;	COMDAT ??0?$map@VioHashString@@PAVioBuff@@U?$less@VioHashString@@@std@@V?$allocator@U?$pair@$$CBVioHashString@@PAVioBuff@@@std@@@4@@std@@QAE@XZ
_TEXT	SEGMENT
$T535021 = -8						; size = 4
$T535024 = -8						; size = 4
$T535010 = -1						; size = 1
??0?$map@VioHashString@@PAVioBuff@@U?$less@VioHashString@@@std@@V?$allocator@U?$pair@$$CBVioHashString@@PAVioBuff@@@std@@@4@@std@@QAE@XZ PROC ; std::map<ioHashString,ioBuff *,std::less<ioHashString>,std::allocator<std::pair<ioHashString const ,ioBuff *> > >::map<ioHashString,ioBuff *,std::less<ioHashString>,std::allocator<std::pair<ioHashString const ,ioBuff *> > >, COMDAT
; _this$ = ecx

; 106  : 		{	// construct empty map from defaults

  00000	55		 push	 ebp
  00001	8b ec		 mov	 ebp, esp
  00003	51		 push	 ecx
  00004	51		 push	 ecx
  00005	56		 push	 esi
  00006	51		 push	 ecx
  00007	89 65 f8	 mov	 DWORD PTR $T535024[ebp], esp
  0000a	8d 45 ff	 lea	 eax, DWORD PTR $T535010[ebp]
  0000d	89 65 f8	 mov	 DWORD PTR $T535021[ebp], esp
  00010	50		 push	 eax
  00011	8b f1		 mov	 esi, ecx
  00013	e8 00 00 00 00	 call	 ??0?$_Tree_val@V?$_Tmap_traits@VioHashString@@PAVioBuff@@U?$less@VioHashString@@@std@@V?$allocator@U?$pair@$$CBVioHashString@@PAVioBuff@@@std@@@4@$0A@@std@@@std@@QAE@ABU?$less@VioHashString@@@1@V?$allocator@U?$pair@$$CBVioHashString@@PAVioBuff@@@std@@@1@@Z ; std::_Tree_val<std::_Tmap_traits<ioHashString,ioBuff *,std::less<ioHashString>,std::allocator<std::pair<ioHashString const ,ioBuff *> >,0> >::_Tree_val<std::_Tmap_traits<ioHashString,ioBuff *,std::less<ioHashString>,std::allocator<std::pair<ioHashString const ,ioBuff *> >,0> >

; 107  : 		}

  00018	8b c6		 mov	 eax, esi
  0001a	5e		 pop	 esi
  0001b	c9		 leave
  0001c	c3		 ret	 0
??0?$map@VioHashString@@PAVioBuff@@U?$less@VioHashString@@@std@@V?$allocator@U?$pair@$$CBVioHashString@@PAVioBuff@@@std@@@4@@std@@QAE@XZ ENDP ; std::map<ioHashString,ioBuff *,std::less<ioHashString>,std::allocator<std::pair<ioHashString const ,ioBuff *> > >::map<ioHashString,ioBuff *,std::less<ioHashString>,std::allocator<std::pair<ioHashString const ,ioBuff *> > >
_TEXT	ENDS
PUBLIC	??0ioBuffMaker@@QAE@XZ				; ioBuffMaker::ioBuffMaker
;	COMDAT xdata$x
; File c:\program files (x86)\microsoft visual studio 10.0\vc\include\xmemory
xdata$x	SEGMENT
__unwindtable$??0ioBuffMaker@@QAE@XZ DD 0ffffffffH
	DD	FLAT:__unwindfunclet$??0ioBuffMaker@@QAE@XZ$0
	DD	00H
	DD	FLAT:__unwindfunclet$??0ioBuffMaker@@QAE@XZ$1
__ehfuncinfo$??0ioBuffMaker@@QAE@XZ DD 019930522H
	DD	02H
	DD	FLAT:__unwindtable$??0ioBuffMaker@@QAE@XZ
	DD	2 DUP(00H)
	DD	2 DUP(00H)
	DD	00H
	DD	01H
; Function compile flags: /Ogsp
; File d:\lost saga for developer\youtube\tutorial\source\src\lsclient\iobuffmaker.cpp
xdata$x	ENDS
;	COMDAT ??0ioBuffMaker@@QAE@XZ
_TEXT	SEGMENT
$T535053 = -24						; size = 4
$T535067 = -24						; size = 4
_this$ = -20						; size = 4
$T535062 = -13						; size = 1
__$EHRec$ = -12						; size = 12
??0ioBuffMaker@@QAE@XZ PROC				; ioBuffMaker::ioBuffMaker, COMDAT
; _this$ = ecx

; 12   : {

  00000	6a 0c		 push	 12			; 0000000cH
  00002	b8 00 00 00 00	 mov	 eax, __ehhandler$??0ioBuffMaker@@QAE@XZ
  00007	e8 00 00 00 00	 call	 __EH_prolog3
  0000c	8b f1		 mov	 esi, ecx
  0000e	89 75 ec	 mov	 DWORD PTR _this$[ebp], esi
  00011	8b c6		 mov	 eax, esi
  00013	a3 00 00 00 00	 mov	 DWORD PTR ?ms_Singleton@?$Singleton@VioBuffMaker@@@@1PAVioBuffMaker@@A, eax ; Singleton<ioBuffMaker>::ms_Singleton
  00018	83 65 fc 00	 and	 DWORD PTR __$EHRec$[ebp+8], 0
  0001c	51		 push	 ecx
  0001d	89 65 e8	 mov	 DWORD PTR $T535067[ebp], esp
  00020	8d 45 f3	 lea	 eax, DWORD PTR $T535062[ebp]
  00023	89 65 e8	 mov	 DWORD PTR $T535053[ebp], esp
  00026	50		 push	 eax
  00027	8d 4e 04	 lea	 ecx, DWORD PTR [esi+4]
  0002a	c7 06 00 00 00
	00		 mov	 DWORD PTR [esi], OFFSET ??_7ioBuffMaker@@6B@
  00030	e8 00 00 00 00	 call	 ??0?$_Tree_val@V?$_Tmap_traits@VioHashString@@PAVioBuff@@U?$less@VioHashString@@@std@@V?$allocator@U?$pair@$$CBVioHashString@@PAVioBuff@@@std@@@4@$0A@@std@@@std@@QAE@ABU?$less@VioHashString@@@1@V?$allocator@U?$pair@$$CBVioHashString@@PAVioBuff@@@std@@@1@@Z ; std::_Tree_val<std::_Tmap_traits<ioHashString,ioBuff *,std::less<ioHashString>,std::allocator<std::pair<ioHashString const ,ioBuff *> >,0> >::_Tree_val<std::_Tmap_traits<ioHashString,ioBuff *,std::less<ioHashString>,std::allocator<std::pair<ioHashString const ,ioBuff *> >,0> >

; 13   : 	m_BuffMap.clear();

  00035	8d 4e 04	 lea	 ecx, DWORD PTR [esi+4]
  00038	c6 45 fc 01	 mov	 BYTE PTR __$EHRec$[ebp+8], 1
  0003c	e8 00 00 00 00	 call	 ?clear@?$_Tree@V?$_Tmap_traits@VioHashString@@PAVioBuff@@U?$less@VioHashString@@@std@@V?$allocator@U?$pair@$$CBVioHashString@@PAVioBuff@@@std@@@4@$0A@@std@@@std@@QAEXXZ ; std::_Tree<std::_Tmap_traits<ioHashString,ioBuff *,std::less<ioHashString>,std::allocator<std::pair<ioHashString const ,ioBuff *> >,0> >::clear

; 14   : }

  00041	8b c6		 mov	 eax, esi
  00043	e8 00 00 00 00	 call	 __EH_epilog3
  00048	c3		 ret	 0
_TEXT	ENDS
;	COMDAT text$x
text$x	SEGMENT
__unwindfunclet$??0ioBuffMaker@@QAE@XZ$0:
  00000	8b 4d ec	 mov	 ecx, DWORD PTR _this$[ebp]
  00003	83 c1 04	 add	 ecx, 4
  00006	e9 00 00 00 00	 jmp	 ??1?$Singleton@VioBuffMaker@@@@QAE@XZ ; Singleton<ioBuffMaker>::~Singleton<ioBuffMaker>
__unwindfunclet$??0ioBuffMaker@@QAE@XZ$1:
  0000b	8b 4d ec	 mov	 ecx, DWORD PTR _this$[ebp]
  0000e	83 c1 04	 add	 ecx, 4
  00011	e9 00 00 00 00	 jmp	 ??1?$map@VioHashString@@PAVioBuff@@U?$less@VioHashString@@@std@@V?$allocator@U?$pair@$$CBVioHashString@@PAVioBuff@@@std@@@4@@std@@QAE@XZ
__ehhandler$??0ioBuffMaker@@QAE@XZ:
  00016	8b 54 24 08	 mov	 edx, DWORD PTR [esp+8]
  0001a	8d 42 0c	 lea	 eax, DWORD PTR [edx+12]
  0001d	8b 4a e4	 mov	 ecx, DWORD PTR [edx-28]
  00020	33 c8		 xor	 ecx, eax
  00022	e8 00 00 00 00	 call	 @__security_check_cookie@4
  00027	b8 00 00 00 00	 mov	 eax, OFFSET __ehfuncinfo$??0ioBuffMaker@@QAE@XZ
  0002c	e9 00 00 00 00	 jmp	 ___CxxFrameHandler3
text$x	ENDS
??0ioBuffMaker@@QAE@XZ ENDP				; ioBuffMaker::ioBuffMaker
; Function compile flags: /Ogsp
;	COMDAT ??_GioBuffMaker@@UAEPAXI@Z
_TEXT	SEGMENT
___flags$ = 8						; size = 4
??_GioBuffMaker@@UAEPAXI@Z PROC				; ioBuffMaker::`scalar deleting destructor', COMDAT
; _this$ = ecx
  00000	55		 push	 ebp
  00001	8b ec		 mov	 ebp, esp
  00003	56		 push	 esi
  00004	8b f1		 mov	 esi, ecx
  00006	e8 00 00 00 00	 call	 ??1ioBuffMaker@@UAE@XZ	; ioBuffMaker::~ioBuffMaker
  0000b	f6 45 08 01	 test	 BYTE PTR ___flags$[ebp], 1
  0000f	74 07		 je	 SHORT $LN1@scalar@3
  00011	56		 push	 esi
  00012	e8 00 00 00 00	 call	 ??3@YAXPAX@Z		; operator delete
  00017	59		 pop	 ecx
$LN1@scalar@3:
  00018	8b c6		 mov	 eax, esi
  0001a	5e		 pop	 esi
  0001b	5d		 pop	 ebp
  0001c	c2 04 00	 ret	 4
??_GioBuffMaker@@UAEPAXI@Z ENDP				; ioBuffMaker::`scalar deleting destructor'
_TEXT	ENDS
END
