; Listing generated by Microsoft (R) Optimizing Compiler Version 16.00.30319.01 

	TITLE	D:\Lost Saga For Developer\Youtube\Tutorial\Source\src\LSClient\ioBuffMaker.cpp
	.686P
	.XMM
	include listing.inc
	.model	flat

INCLUDELIB MSVCRT
INCLUDELIB OLDNAMES

PUBLIC	?ms_Singleton@?$Singleton@VioBuffMaker@@@@1PAVioBuffMaker@@A ; Singleton<ioBuffMaker>::ms_Singleton
;	COMDAT ?ms_Singleton@?$Singleton@VioBuffMaker@@@@1PAVioBuffMaker@@A
_BSS	SEGMENT
?ms_Singleton@?$Singleton@VioBuffMaker@@@@1PAVioBuffMaker@@A DD 01H DUP (?) ; Singleton<ioBuffMaker>::ms_Singleton
_BSS	ENDS
PUBLIC	??_7bad_alloc@std@@6B@				; std::bad_alloc::`vftable'
PUBLIC	??0bad_alloc@std@@QAE@PBD@Z			; std::bad_alloc::bad_alloc
PUBLIC	??_R4bad_alloc@std@@6B@				; std::bad_alloc::`RTTI Complete Object Locator'
PUBLIC	??_R0?AVbad_alloc@std@@@8			; std::bad_alloc `RTTI Type Descriptor'
PUBLIC	??_R3bad_alloc@std@@8				; std::bad_alloc::`RTTI Class Hierarchy Descriptor'
PUBLIC	??_R2bad_alloc@std@@8				; std::bad_alloc::`RTTI Base Class Array'
PUBLIC	??_R1A@?0A@EA@bad_alloc@std@@8			; std::bad_alloc::`RTTI Base Class Descriptor at (0,-1,0,64)'
PUBLIC	??_R1A@?0A@EA@exception@std@@8			; std::exception::`RTTI Base Class Descriptor at (0,-1,0,64)'
PUBLIC	??_R0?AVexception@std@@@8			; std::exception `RTTI Type Descriptor'
PUBLIC	??_R3exception@std@@8				; std::exception::`RTTI Class Hierarchy Descriptor'
PUBLIC	??_R2exception@std@@8				; std::exception::`RTTI Base Class Array'
EXTRN	__imp_??0exception@std@@QAE@ABQBD@Z:PROC
EXTRN	??_7type_info@@6B@:QWORD			; type_info::`vftable'
EXTRN	??_Ebad_alloc@std@@UAEPAXI@Z:PROC		; std::bad_alloc::`vector deleting destructor'
EXTRN	?what@exception@std@@UBEPBDXZ:PROC		; std::exception::what
;	COMDAT ??_R2exception@std@@8
; File c:\program files (x86)\microsoft visual studio 10.0\vc\include\exception
rdata$r	SEGMENT
??_R2exception@std@@8 DD FLAT:??_R1A@?0A@EA@exception@std@@8 ; std::exception::`RTTI Base Class Array'
rdata$r	ENDS
;	COMDAT ??_R3exception@std@@8
rdata$r	SEGMENT
??_R3exception@std@@8 DD 00H				; std::exception::`RTTI Class Hierarchy Descriptor'
	DD	00H
	DD	01H
	DD	FLAT:??_R2exception@std@@8
rdata$r	ENDS
;	COMDAT ??_R0?AVexception@std@@@8
_DATA	SEGMENT
??_R0?AVexception@std@@@8 DD FLAT:??_7type_info@@6B@	; std::exception `RTTI Type Descriptor'
	DD	00H
	DB	'.?AVexception@std@@', 00H
_DATA	ENDS
;	COMDAT ??_R1A@?0A@EA@exception@std@@8
rdata$r	SEGMENT
??_R1A@?0A@EA@exception@std@@8 DD FLAT:??_R0?AVexception@std@@@8 ; std::exception::`RTTI Base Class Descriptor at (0,-1,0,64)'
	DD	00H
	DD	00H
	DD	0ffffffffH
	DD	00H
	DD	040H
	DD	FLAT:??_R3exception@std@@8
rdata$r	ENDS
;	COMDAT ??_R1A@?0A@EA@bad_alloc@std@@8
rdata$r	SEGMENT
??_R1A@?0A@EA@bad_alloc@std@@8 DD FLAT:??_R0?AVbad_alloc@std@@@8 ; std::bad_alloc::`RTTI Base Class Descriptor at (0,-1,0,64)'
	DD	01H
	DD	00H
	DD	0ffffffffH
	DD	00H
	DD	040H
	DD	FLAT:??_R3bad_alloc@std@@8
rdata$r	ENDS
;	COMDAT ??_R2bad_alloc@std@@8
rdata$r	SEGMENT
??_R2bad_alloc@std@@8 DD FLAT:??_R1A@?0A@EA@bad_alloc@std@@8 ; std::bad_alloc::`RTTI Base Class Array'
	DD	FLAT:??_R1A@?0A@EA@exception@std@@8
rdata$r	ENDS
;	COMDAT ??_R3bad_alloc@std@@8
rdata$r	SEGMENT
??_R3bad_alloc@std@@8 DD 00H				; std::bad_alloc::`RTTI Class Hierarchy Descriptor'
	DD	00H
	DD	02H
	DD	FLAT:??_R2bad_alloc@std@@8
rdata$r	ENDS
;	COMDAT ??_R0?AVbad_alloc@std@@@8
_DATA	SEGMENT
??_R0?AVbad_alloc@std@@@8 DD FLAT:??_7type_info@@6B@	; std::bad_alloc `RTTI Type Descriptor'
	DD	00H
	DB	'.?AVbad_alloc@std@@', 00H
_DATA	ENDS
;	COMDAT ??_R4bad_alloc@std@@6B@
rdata$r	SEGMENT
??_R4bad_alloc@std@@6B@ DD 00H				; std::bad_alloc::`RTTI Complete Object Locator'
	DD	00H
	DD	00H
	DD	FLAT:??_R0?AVbad_alloc@std@@@8
	DD	FLAT:??_R3bad_alloc@std@@8
rdata$r	ENDS
;	COMDAT ??_7bad_alloc@std@@6B@
CONST	SEGMENT
??_7bad_alloc@std@@6B@ DD FLAT:??_R4bad_alloc@std@@6B@	; std::bad_alloc::`vftable'
	DD	FLAT:??_Ebad_alloc@std@@UAEPAXI@Z
	DD	FLAT:?what@exception@std@@UBEPBDXZ
; Function compile flags: /Ogsp
CONST	ENDS
;	COMDAT ??0bad_alloc@std@@QAE@PBD@Z
_TEXT	SEGMENT
__Message$ = 8						; size = 4
??0bad_alloc@std@@QAE@PBD@Z PROC			; std::bad_alloc::bad_alloc, COMDAT
; _this$ = ecx

; 345  : 		{	// construct from message string

  00000	55		 push	 ebp
  00001	8b ec		 mov	 ebp, esp
  00003	56		 push	 esi
  00004	8d 45 08	 lea	 eax, DWORD PTR __Message$[ebp]
  00007	50		 push	 eax
  00008	8b f1		 mov	 esi, ecx
  0000a	ff 15 00 00 00
	00		 call	 DWORD PTR __imp_??0exception@std@@QAE@ABQBD@Z
  00010	c7 06 00 00 00
	00		 mov	 DWORD PTR [esi], OFFSET ??_7bad_alloc@std@@6B@

; 346  : 		}

  00016	8b c6		 mov	 eax, esi
  00018	5e		 pop	 esi
  00019	5d		 pop	 ebp
  0001a	c2 04 00	 ret	 4
??0bad_alloc@std@@QAE@PBD@Z ENDP			; std::bad_alloc::bad_alloc
_TEXT	ENDS
PUBLIC	??1bad_alloc@std@@UAE@XZ			; std::bad_alloc::~bad_alloc
EXTRN	__imp_??1exception@std@@UAE@XZ:PROC
; Function compile flags: /Ogsp
;	COMDAT ??1bad_alloc@std@@UAE@XZ
_TEXT	SEGMENT
??1bad_alloc@std@@UAE@XZ PROC				; std::bad_alloc::~bad_alloc, COMDAT
; _this$ = ecx

; 354  : 		{	// destroy the object

  00000	c7 01 00 00 00
	00		 mov	 DWORD PTR [ecx], OFFSET ??_7bad_alloc@std@@6B@

; 355  : 		}

  00006	ff 25 00 00 00
	00		 jmp	 DWORD PTR __imp_??1exception@std@@UAE@XZ
??1bad_alloc@std@@UAE@XZ ENDP				; std::bad_alloc::~bad_alloc
_TEXT	ENDS
EXTRN	??3@YAXPAX@Z:PROC				; operator delete
; Function compile flags: /Ogsp
;	COMDAT ??_Gbad_alloc@std@@UAEPAXI@Z
_TEXT	SEGMENT
___flags$ = 8						; size = 4
??_Gbad_alloc@std@@UAEPAXI@Z PROC			; std::bad_alloc::`scalar deleting destructor', COMDAT
; _this$ = ecx
  00000	55		 push	 ebp
  00001	8b ec		 mov	 ebp, esp
  00003	56		 push	 esi
  00004	8b f1		 mov	 esi, ecx
  00006	c7 06 00 00 00
	00		 mov	 DWORD PTR [esi], OFFSET ??_7bad_alloc@std@@6B@
  0000c	ff 15 00 00 00
	00		 call	 DWORD PTR __imp_??1exception@std@@UAE@XZ
  00012	f6 45 08 01	 test	 BYTE PTR ___flags$[ebp], 1
  00016	74 07		 je	 SHORT $LN1@scalar
  00018	56		 push	 esi
  00019	e8 00 00 00 00	 call	 ??3@YAXPAX@Z		; operator delete
  0001e	59		 pop	 ecx
$LN1@scalar:
  0001f	8b c6		 mov	 eax, esi
  00021	5e		 pop	 esi
  00022	5d		 pop	 ebp
  00023	c2 04 00	 ret	 4
??_Gbad_alloc@std@@UAEPAXI@Z ENDP			; std::bad_alloc::`scalar deleting destructor'
_TEXT	ENDS
PUBLIC	??2@YAPAXIPAX@Z					; operator new
; Function compile flags: /Ogsp
; File c:\program files (x86)\microsoft visual studio 10.0\vc\include\new
;	COMDAT ??2@YAPAXIPAX@Z
_TEXT	SEGMENT
___formal$ = 8						; size = 4
__Where$ = 12						; size = 4
??2@YAPAXIPAX@Z PROC					; operator new, COMDAT

; 56   : 	{	// construct array with placement at _Where

  00000	55		 push	 ebp
  00001	8b ec		 mov	 ebp, esp

; 57   : 	return (_Where);

  00003	8b 45 0c	 mov	 eax, DWORD PTR __Where$[ebp]

; 58   : 	}

  00006	5d		 pop	 ebp
  00007	c3		 ret	 0
??2@YAPAXIPAX@Z ENDP					; operator new
_TEXT	ENDS
PUBLIC	??3@YAXPAX0@Z					; operator delete
; Function compile flags: /Ogsp
;	COMDAT ??3@YAXPAX0@Z
_TEXT	SEGMENT
___formal$ = 8						; size = 4
___formal$ = 12						; size = 4
??3@YAXPAX0@Z PROC					; operator delete, COMDAT

; 62   : 	}

  00000	c3		 ret	 0
??3@YAXPAX0@Z ENDP					; operator delete
_TEXT	ENDS
PUBLIC	?_Adopt@_Iterator_base0@std@@QAEXPBX@Z		; std::_Iterator_base0::_Adopt
; Function compile flags: /Ogsp
; File c:\program files (x86)\microsoft visual studio 10.0\vc\include\xutility
;	COMDAT ?_Adopt@_Iterator_base0@std@@QAEXPBX@Z
_TEXT	SEGMENT
___formal$ = 8						; size = 4
?_Adopt@_Iterator_base0@std@@QAEXPBX@Z PROC		; std::_Iterator_base0::_Adopt, COMDAT
; _this$ = ecx

; 49   : 		}

  00000	c2 04 00	 ret	 4
?_Adopt@_Iterator_base0@std@@QAEXPBX@Z ENDP		; std::_Iterator_base0::_Adopt
_TEXT	ENDS
PUBLIC	??1?$_Pair_base@$$CBVioHashString@@PAVioBuff@@@std@@QAE@XZ ; std::_Pair_base<ioHashString const ,ioBuff *>::~_Pair_base<ioHashString const ,ioBuff *>
EXTRN	__imp_??1ioHashString@@QAE@XZ:PROC
; Function compile flags: /Ogsp
;	COMDAT ??1?$_Pair_base@$$CBVioHashString@@PAVioBuff@@@std@@QAE@XZ
_TEXT	SEGMENT
??1?$_Pair_base@$$CBVioHashString@@PAVioBuff@@@std@@QAE@XZ PROC ; std::_Pair_base<ioHashString const ,ioBuff *>::~_Pair_base<ioHashString const ,ioBuff *>, COMDAT
; _this$ = ecx
  00000	ff 25 00 00 00
	00		 jmp	 DWORD PTR __imp_??1ioHashString@@QAE@XZ
??1?$_Pair_base@$$CBVioHashString@@PAVioBuff@@@std@@QAE@XZ ENDP ; std::_Pair_base<ioHashString const ,ioBuff *>::~_Pair_base<ioHashString const ,ioBuff *>
_TEXT	ENDS
PUBLIC	??_C@_0DN@LAIAOGKK@ioBuffMaker?3?3CreateNormalBuffTem@ ; `string'
PUBLIC	?CreateNormalBuffTemplete@ioBuffMaker@@IAEPAVioBuff@@HH@Z ; ioBuffMaker::CreateNormalBuffTemplete
EXTRN	__imp_?PrintTimeAndLog@CLog@@QAAXHPADZZ:PROC
EXTRN	__imp_?LOG@@3VCLog@@A:BYTE
EXTRN	?SetTypeID@ioBuff@@QAEXH@Z:PROC			; ioBuff::SetTypeID
EXTRN	?SetBuffCategory@ioBuff@@QAEXH@Z:PROC		; ioBuff::SetBuffCategory
EXTRN	??0ioCreateDummyByAttackedBuff2@@QAE@XZ:PROC	; ioCreateDummyByAttackedBuff2::ioCreateDummyByAttackedBuff2
EXTRN	??0ioCreateWeaponBuff4@@QAE@XZ:PROC		; ioCreateWeaponBuff4::ioCreateWeaponBuff4
EXTRN	??0ioMoveAreaWeaponBuff@@QAE@XZ:PROC		; ioMoveAreaWeaponBuff::ioMoveAreaWeaponBuff
EXTRN	??0ioFlyFollowStateBuff2@@QAE@XZ:PROC		; ioFlyFollowStateBuff2::ioFlyFollowStateBuff2
EXTRN	??0ioFlyFollowStateBuff@@QAE@XZ:PROC		; ioFlyFollowStateBuff::ioFlyFollowStateBuff
EXTRN	??0ioTargetCreateWeaponBuff4@@QAE@XZ:PROC	; ioTargetCreateWeaponBuff4::ioTargetCreateWeaponBuff4
EXTRN	??0ioWeaponFollowedOwnerBuff@@QAE@XZ:PROC	; ioWeaponFollowedOwnerBuff::ioWeaponFollowedOwnerBuff
EXTRN	??0ioSkillAttackBuff@@QAE@XZ:PROC		; ioSkillAttackBuff::ioSkillAttackBuff
EXTRN	??0ioTargetCreateWeaponBuff3@@QAE@XZ:PROC	; ioTargetCreateWeaponBuff3::ioTargetCreateWeaponBuff3
EXTRN	??0ioMoveAttackBuff2@@QAE@XZ:PROC		; ioMoveAttackBuff2::ioMoveAttackBuff2
EXTRN	??0ioCreateAreaWeaponBuff@@QAE@XZ:PROC		; ioCreateAreaWeaponBuff::ioCreateAreaWeaponBuff
EXTRN	??0ioAttachedDummyBuff2@@QAE@XZ:PROC		; ioAttachedDummyBuff2::ioAttachedDummyBuff2
EXTRN	??0ioActiveCountBuff3@@QAE@XZ:PROC		; ioActiveCountBuff3::ioActiveCountBuff3
EXTRN	??0ioCallAndDieBuff@@QAE@XZ:PROC		; ioCallAndDieBuff::ioCallAndDieBuff
EXTRN	??0ioJumpAttackBuff@@QAE@XZ:PROC		; ioJumpAttackBuff::ioJumpAttackBuff
EXTRN	??0ioKeyMarkAttackBuff@@QAE@XZ:PROC		; ioKeyMarkAttackBuff::ioKeyMarkAttackBuff
EXTRN	??0ioCountGatherAttackBuff@@QAE@XZ:PROC		; ioCountGatherAttackBuff::ioCountGatherAttackBuff
EXTRN	??0ioDefenceChangeBuff@@QAE@XZ:PROC		; ioDefenceChangeBuff::ioDefenceChangeBuff
EXTRN	??0ioCallBuffOnAttackBuff2@@QAE@XZ:PROC		; ioCallBuffOnAttackBuff2::ioCallBuffOnAttackBuff2
EXTRN	??0ioNoviceGradeEffectBuff@@QAE@XZ:PROC		; ioNoviceGradeEffectBuff::ioNoviceGradeEffectBuff
EXTRN	??0ioAttachedCreatorCharBuff@@QAE@XZ:PROC	; ioAttachedCreatorCharBuff::ioAttachedCreatorCharBuff
EXTRN	??0ioCheckTargetBuff@@QAE@XZ:PROC		; ioCheckTargetBuff::ioCheckTargetBuff
EXTRN	??0ioHitCountHoldBuff2@@QAE@XZ:PROC		; ioHitCountHoldBuff2::ioHitCountHoldBuff2
EXTRN	??0ioCreateDummyChar9Buff@@QAE@XZ:PROC		; ioCreateDummyChar9Buff::ioCreateDummyChar9Buff
EXTRN	??0ioAttackCountBuff@@QAE@XZ:PROC		; ioAttackCountBuff::ioAttackCountBuff
EXTRN	??0ioAttachedDummyBuff@@QAE@XZ:PROC		; ioAttachedDummyBuff::ioAttachedDummyBuff
EXTRN	??0ioCreateWeaponBuff3@@QAE@XZ:PROC		; ioCreateWeaponBuff3::ioCreateWeaponBuff3
EXTRN	??0ioWoundedAddBuff@@QAE@XZ:PROC		; ioWoundedAddBuff::ioWoundedAddBuff
EXTRN	??0ioTargetMoveAttackBuff@@QAE@XZ:PROC		; ioTargetMoveAttackBuff::ioTargetMoveAttackBuff
EXTRN	??0ioCreateWeaponBuff2@@QAE@XZ:PROC		; ioCreateWeaponBuff2::ioCreateWeaponBuff2
EXTRN	??0ioDummyCheckBuff@@QAE@XZ:PROC		; ioDummyCheckBuff::ioDummyCheckBuff
EXTRN	??0ioFlyJumpExtraAttackBuff@@QAE@XZ:PROC	; ioFlyJumpExtraAttackBuff::ioFlyJumpExtraAttackBuff
EXTRN	??0ioCreateDummyChar8Buff@@QAE@XZ:PROC		; ioCreateDummyChar8Buff::ioCreateDummyChar8Buff
EXTRN	??0ioPassengerBuff@@QAE@XZ:PROC			; ioPassengerBuff::ioPassengerBuff
EXTRN	??0ioCheckChainBuff2@@QAE@XZ:PROC		; ioCheckChainBuff2::ioCheckChainBuff2
EXTRN	??0ioCreateDummyChar7Buff@@QAE@XZ:PROC		; ioCreateDummyChar7Buff::ioCreateDummyChar7Buff
EXTRN	??0ioDummyChainBuff@@QAE@XZ:PROC		; ioDummyChainBuff::ioDummyChainBuff
EXTRN	??0ioMoveAttackBuff@@QAE@XZ:PROC		; ioMoveAttackBuff::ioMoveAttackBuff
EXTRN	??0ioCreateDummyByAttackedBuff@@QAE@XZ:PROC	; ioCreateDummyByAttackedBuff::ioCreateDummyByAttackedBuff
EXTRN	??0ioMapEffectBuff@@QAE@XZ:PROC			; ioMapEffectBuff::ioMapEffectBuff
EXTRN	??0ioCheckStateEndCallBuff@@QAE@XZ:PROC		; ioCheckStateEndCallBuff::ioCheckStateEndCallBuff
EXTRN	??0ioCheckStateEndAttackBuff@@QAE@XZ:PROC	; ioCheckStateEndAttackBuff::ioCheckStateEndAttackBuff
EXTRN	??0ioThunderBirdHoldBuff@@QAE@XZ:PROC		; ioThunderBirdHoldBuff::ioThunderBirdHoldBuff
EXTRN	??0ioTargetRushAttackBuff@@QAE@XZ:PROC		; ioTargetRushAttackBuff::ioTargetRushAttackBuff
EXTRN	??0ioHide4Buff@@QAE@XZ:PROC			; ioHide4Buff::ioHide4Buff
EXTRN	??0ioTargetCreateWeaponBuff2@@QAE@XZ:PROC	; ioTargetCreateWeaponBuff2::ioTargetCreateWeaponBuff2
EXTRN	??0ioFloatBuff2@@QAE@XZ:PROC			; ioFloatBuff2::ioFloatBuff2
EXTRN	??0ioHelipCopterAttachBuff@@QAE@XZ:PROC		; ioHelipCopterAttachBuff::ioHelipCopterAttachBuff
EXTRN	??0ioCheckJumpBuff@@QAE@XZ:PROC			; ioCheckJumpBuff::ioCheckJumpBuff
EXTRN	??0ioDummyAttachBuff3@@QAE@XZ:PROC		; ioDummyAttachBuff3::ioDummyAttachBuff3
EXTRN	??0ioCreateObjectItemBuff@@QAE@XZ:PROC		; ioCreateObjectItemBuff::ioCreateObjectItemBuff
EXTRN	??0ioCheckLifeBuff2@@QAE@XZ:PROC		; ioCheckLifeBuff2::ioCheckLifeBuff2
EXTRN	??0ioDummyAttachBuff2@@QAE@XZ:PROC		; ioDummyAttachBuff2::ioDummyAttachBuff2
EXTRN	??0ioMarkBuff@@QAE@XZ:PROC			; ioMarkBuff::ioMarkBuff
EXTRN	??0ioWarpFindDummyBuff@@QAE@XZ:PROC		; ioWarpFindDummyBuff::ioWarpFindDummyBuff
EXTRN	??0ioHide3Buff@@QAE@XZ:PROC			; ioHide3Buff::ioHide3Buff
EXTRN	??0ioAirBuff@@QAE@XZ:PROC			; ioAirBuff::ioAirBuff
EXTRN	??0ioCreateDummyChar6Buff@@QAE@XZ:PROC		; ioCreateDummyChar6Buff::ioCreateDummyChar6Buff
EXTRN	??0ioActiveCountBuff2@@QAE@XZ:PROC		; ioActiveCountBuff2::ioActiveCountBuff2
EXTRN	??0ioTargetDummyBuff@@QAE@XZ:PROC		; ioTargetDummyBuff::ioTargetDummyBuff
EXTRN	??0ioSelfControlBuff@@QAE@XZ:PROC		; ioSelfControlBuff::ioSelfControlBuff
EXTRN	??0ioTargetMoveBuff@@QAE@XZ:PROC		; ioTargetMoveBuff::ioTargetMoveBuff
EXTRN	??0ioStateProtectionByPassiveBuff@@QAE@XZ:PROC	; ioStateProtectionByPassiveBuff::ioStateProtectionByPassiveBuff
EXTRN	??0ioCheckChainBuff@@QAE@XZ:PROC		; ioCheckChainBuff::ioCheckChainBuff
EXTRN	??0ioLookatDummyBuff@@QAE@XZ:PROC		; ioLookatDummyBuff::ioLookatDummyBuff
EXTRN	??0ioTargetCreateWeaponBuff@@QAE@XZ:PROC	; ioTargetCreateWeaponBuff::ioTargetCreateWeaponBuff
EXTRN	??0ioFlyJumpBuff2@@QAE@XZ:PROC			; ioFlyJumpBuff2::ioFlyJumpBuff2
EXTRN	??0ioLookatWeaponBuff@@QAE@XZ:PROC		; ioLookatWeaponBuff::ioLookatWeaponBuff
EXTRN	??0ioCreateDummyChar5Buff@@QAE@XZ:PROC		; ioCreateDummyChar5Buff::ioCreateDummyChar5Buff
EXTRN	??0ioDummyAttachBuff@@QAE@XZ:PROC		; ioDummyAttachBuff::ioDummyAttachBuff
EXTRN	??0ioWeakAirBombBuff@@QAE@XZ:PROC		; ioWeakAirBombBuff::ioWeakAirBombBuff
EXTRN	??0ioRotateWeaponBuff@@QAE@XZ:PROC		; ioRotateWeaponBuff::ioRotateWeaponBuff
EXTRN	??0ioCreateWeaponCountBuff@@QAE@XZ:PROC		; ioCreateWeaponCountBuff::ioCreateWeaponCountBuff
EXTRN	??0ioDestroyCallBuff@@QAE@XZ:PROC		; ioDestroyCallBuff::ioDestroyCallBuff
EXTRN	??0ioControlWeaponBuff2@@QAE@XZ:PROC		; ioControlWeaponBuff2::ioControlWeaponBuff2
EXTRN	??0ioAlphaRateBuff@@QAE@XZ:PROC			; ioAlphaRateBuff::ioAlphaRateBuff
EXTRN	??0ioReflectDamageBuff@@QAE@XZ:PROC		; ioReflectDamageBuff::ioReflectDamageBuff
EXTRN	??0ioSkillGaugeCheckBuff@@QAE@XZ:PROC		; ioSkillGaugeCheckBuff::ioSkillGaugeCheckBuff
EXTRN	??0ioCreateBuff@@QAE@XZ:PROC			; ioCreateBuff::ioCreateBuff
EXTRN	??0ioTargetControlBuff@@QAE@XZ:PROC		; ioTargetControlBuff::ioTargetControlBuff
EXTRN	??0ioCreateDummyChar4Buff@@QAE@XZ:PROC		; ioCreateDummyChar4Buff::ioCreateDummyChar4Buff
EXTRN	??0ioConcentrateTargetBuff@@QAE@XZ:PROC		; ioConcentrateTargetBuff::ioConcentrateTargetBuff
EXTRN	??0ioTryOutCheckBuff2@@QAE@XZ:PROC		; ioTryOutCheckBuff2::ioTryOutCheckBuff2
EXTRN	??0ioTryOutCheckBuff@@QAE@XZ:PROC		; ioTryOutCheckBuff::ioTryOutCheckBuff
EXTRN	??0ioDispelBuff@@QAE@XZ:PROC			; ioDispelBuff::ioDispelBuff
EXTRN	??0ioDropZoneBuff@@QAE@XZ:PROC			; ioDropZoneBuff::ioDropZoneBuff
EXTRN	??0ioWindMagneticBuff@@QAE@XZ:PROC		; ioWindMagneticBuff::ioWindMagneticBuff
EXTRN	??0ioSpecialGaugeBuff2@@QAE@XZ:PROC		; ioSpecialGaugeBuff2::ioSpecialGaugeBuff2
EXTRN	??0ioMultiFlyJumpBuff@@QAE@XZ:PROC		; ioMultiFlyJumpBuff::ioMultiFlyJumpBuff
EXTRN	??0ioCheckLifeBuff@@QAE@XZ:PROC			; ioCheckLifeBuff::ioCheckLifeBuff
EXTRN	??0ioPositionBuff2@@QAE@XZ:PROC			; ioPositionBuff2::ioPositionBuff2
EXTRN	??0ioCallRandomBuff@@QAE@XZ:PROC		; ioCallRandomBuff::ioCallRandomBuff
EXTRN	??0ioWindLordBuff@@QAE@XZ:PROC			; ioWindLordBuff::ioWindLordBuff
EXTRN	??0ioPushDirectionBuff@@QAE@XZ:PROC		; ioPushDirectionBuff::ioPushDirectionBuff
EXTRN	??0ioEscapeDropZoneBuff@@QAE@XZ:PROC		; ioEscapeDropZoneBuff::ioEscapeDropZoneBuff
EXTRN	??0ioGravityUpDownBuff@@QAE@XZ:PROC		; ioGravityUpDownBuff::ioGravityUpDownBuff
EXTRN	??0ioPositionBuff@@QAE@XZ:PROC			; ioPositionBuff::ioPositionBuff
EXTRN	??0ioCreateDummyChar3Buff@@QAE@XZ:PROC		; ioCreateDummyChar3Buff::ioCreateDummyChar3Buff
EXTRN	??0ioWeaponAttachBuff@@QAE@XZ:PROC		; ioWeaponAttachBuff::ioWeaponAttachBuff
EXTRN	??0ioCreateDummyChar2Buff@@QAE@XZ:PROC		; ioCreateDummyChar2Buff::ioCreateDummyChar2Buff
EXTRN	??0ioMagneticBuff@@QAE@XZ:PROC			; ioMagneticBuff::ioMagneticBuff
EXTRN	??0ioGrapplingPushBuff@@QAE@XZ:PROC		; ioGrapplingPushBuff::ioGrapplingPushBuff
EXTRN	??0ioCreateDummyCharBuff@@QAE@XZ:PROC		; ioCreateDummyCharBuff::ioCreateDummyCharBuff
EXTRN	??0ioCallByNpcBuff@@QAE@XZ:PROC			; ioCallByNpcBuff::ioCallByNpcBuff
EXTRN	??0ioExtraCallBuff@@QAE@XZ:PROC			; ioExtraCallBuff::ioExtraCallBuff
EXTRN	??0ioAffectWoundedValueBuff@@QAE@XZ:PROC	; ioAffectWoundedValueBuff::ioAffectWoundedValueBuff
EXTRN	??0ioCreateWeaponBuff@@QAE@XZ:PROC		; ioCreateWeaponBuff::ioCreateWeaponBuff
EXTRN	??0ioHitCountHoldBuff@@QAE@XZ:PROC		; ioHitCountHoldBuff::ioHitCountHoldBuff
EXTRN	??0ioHide2Buff@@QAE@XZ:PROC			; ioHide2Buff::ioHide2Buff
EXTRN	??0ioDisableRecoverySkillGaugeBuff@@QAE@XZ:PROC	; ioDisableRecoverySkillGaugeBuff::ioDisableRecoverySkillGaugeBuff
EXTRN	??0ioRestorationGaugeBuff2@@QAE@XZ:PROC		; ioRestorationGaugeBuff2::ioRestorationGaugeBuff2
EXTRN	??0ioGaugeStealBuff2@@QAE@XZ:PROC		; ioGaugeStealBuff2::ioGaugeStealBuff2
EXTRN	??0ioTraceMineStateBuff@@QAE@XZ:PROC		; ioTraceMineStateBuff::ioTraceMineStateBuff
EXTRN	??0ioScreenBlindBuff2@@QAE@XZ:PROC		; ioScreenBlindBuff2::ioScreenBlindBuff2
EXTRN	??0ioChangeTeamBuff@@QAE@XZ:PROC		; ioChangeTeamBuff::ioChangeTeamBuff
EXTRN	??0ioTargetEquipObjectItemBuff@@QAE@XZ:PROC	; ioTargetEquipObjectItemBuff::ioTargetEquipObjectItemBuff
EXTRN	??0ioInfectionBuff@@QAE@XZ:PROC			; ioInfectionBuff::ioInfectionBuff
EXTRN	??0ioActiveCountBuff@@QAE@XZ:PROC		; ioActiveCountBuff::ioActiveCountBuff
EXTRN	??0ioDefenseDamageBuff2@@QAE@XZ:PROC		; ioDefenseDamageBuff2::ioDefenseDamageBuff2
EXTRN	??0ioWallCollisionBuff@@QAE@XZ:PROC		; ioWallCollisionBuff::ioWallCollisionBuff
EXTRN	??0ioControlWeaponBuff@@QAE@XZ:PROC		; ioControlWeaponBuff::ioControlWeaponBuff
EXTRN	??0ioSpeedAccumlateBuff@@QAE@XZ:PROC		; ioSpeedAccumlateBuff::ioSpeedAccumlateBuff
EXTRN	??0ioMagicStunBuff@@QAE@XZ:PROC			; ioMagicStunBuff::ioMagicStunBuff
EXTRN	??0ioCallBuffOnAttackBuff@@QAE@XZ:PROC		; ioCallBuffOnAttackBuff::ioCallBuffOnAttackBuff
EXTRN	??0ioSealSkillBuff@@QAE@XZ:PROC			; ioSealSkillBuff::ioSealSkillBuff
EXTRN	??0ioAdhesiveBuff@@QAE@XZ:PROC			; ioAdhesiveBuff::ioAdhesiveBuff
EXTRN	??0ioDefenseDamageBuff@@QAE@XZ:PROC		; ioDefenseDamageBuff::ioDefenseDamageBuff
EXTRN	??0ioChangeMeshBuff@@QAE@XZ:PROC		; ioChangeMeshBuff::ioChangeMeshBuff
EXTRN	??0ioAutoFireBuff@@QAE@XZ:PROC			; ioAutoFireBuff::ioAutoFireBuff
EXTRN	??0ioTeleportOnEndBuff@@QAE@XZ:PROC		; ioTeleportOnEndBuff::ioTeleportOnEndBuff
EXTRN	??0ioRandomMoveBuff@@QAE@XZ:PROC		; ioRandomMoveBuff::ioRandomMoveBuff
EXTRN	??0ioWitchFlyBuff@@QAE@XZ:PROC			; ioWitchFlyBuff::ioWitchFlyBuff
EXTRN	??0ioCallByStateBuff@@QAE@XZ:PROC		; ioCallByStateBuff::ioCallByStateBuff
EXTRN	??0ioGhostStateBuff@@QAE@XZ:PROC		; ioGhostStateBuff::ioGhostStateBuff
EXTRN	??0ioChangeSoldierBuff@@QAE@XZ:PROC		; ioChangeSoldierBuff::ioChangeSoldierBuff
EXTRN	??0ioPullBuff@@QAE@XZ:PROC			; ioPullBuff::ioPullBuff
EXTRN	??0ioEnableWoundStunBuff@@QAE@XZ:PROC		; ioEnableWoundStunBuff::ioEnableWoundStunBuff
EXTRN	??0ioChangeSkinColorBuff@@QAE@XZ:PROC		; ioChangeSkinColorBuff::ioChangeSkinColorBuff
EXTRN	??0ioPreventDropItemBuff@@QAE@XZ:PROC		; ioPreventDropItemBuff::ioPreventDropItemBuff
EXTRN	??0ioRefudBuff@@QAE@XZ:PROC			; ioRefudBuff::ioRefudBuff
EXTRN	??0ioSpecialGaugeBuff@@QAE@XZ:PROC		; ioSpecialGaugeBuff::ioSpecialGaugeBuff
EXTRN	??0ioStopPassiveBuff@@QAE@XZ:PROC		; ioStopPassiveBuff::ioStopPassiveBuff
EXTRN	??0ioChangeMoveSpeedBuff@@QAE@XZ:PROC		; ioChangeMoveSpeedBuff::ioChangeMoveSpeedBuff
EXTRN	??0ioWoundColorChangeBuff@@QAE@XZ:PROC		; ioWoundColorChangeBuff::ioWoundColorChangeBuff
EXTRN	??0ioSkipStunBuff@@QAE@XZ:PROC			; ioSkipStunBuff::ioSkipStunBuff
EXTRN	??0ioDummyBuff@@QAE@XZ:PROC			; ioDummyBuff::ioDummyBuff
EXTRN	??0ioIceBuff@@QAE@XZ:PROC			; ioIceBuff::ioIceBuff
EXTRN	??0ioNotMoveProtectBuff@@QAE@XZ:PROC		; ioNotMoveProtectBuff::ioNotMoveProtectBuff
EXTRN	??0ioLandRollingBuff@@QAE@XZ:PROC		; ioLandRollingBuff::ioLandRollingBuff
EXTRN	??0ioAirAttackBuff@@QAE@XZ:PROC			; ioAirAttackBuff::ioAirAttackBuff
EXTRN	??0ioLandStunBuff@@QAE@XZ:PROC			; ioLandStunBuff::ioLandStunBuff
EXTRN	??0ioFrontBackWoundBuff@@QAE@XZ:PROC		; ioFrontBackWoundBuff::ioFrontBackWoundBuff
EXTRN	??0ioFrictionUpDownBuff@@QAE@XZ:PROC		; ioFrictionUpDownBuff::ioFrictionUpDownBuff
EXTRN	??0ioDownRollingBuff@@QAE@XZ:PROC		; ioDownRollingBuff::ioDownRollingBuff
EXTRN	??0ioCurseBuff@@QAE@XZ:PROC			; ioCurseBuff::ioCurseBuff
EXTRN	??0ioLimitActionBuff@@QAE@XZ:PROC		; ioLimitActionBuff::ioLimitActionBuff
EXTRN	??0ioRangeProtectionBuff@@QAE@XZ:PROC		; ioRangeProtectionBuff::ioRangeProtectionBuff
EXTRN	??0ioSelectCollisionBuff@@QAE@XZ:PROC		; ioSelectCollisionBuff::ioSelectCollisionBuff
EXTRN	??0ioDefenseBreakBuff@@QAE@XZ:PROC		; ioDefenseBreakBuff::ioDefenseBreakBuff
EXTRN	??0ioDownJumppingBuff@@QAE@XZ:PROC		; ioDownJumppingBuff::ioDownJumppingBuff
EXTRN	??0ioFlyJumpBuff@@QAE@XZ:PROC			; ioFlyJumpBuff::ioFlyJumpBuff
EXTRN	??0ioLimitMoveBuff@@QAE@XZ:PROC			; ioLimitMoveBuff::ioLimitMoveBuff
EXTRN	??0ioAccumulateBuff@@QAE@XZ:PROC		; ioAccumulateBuff::ioAccumulateBuff
EXTRN	??0ioFloatModeEventBuff@@QAE@XZ:PROC		; ioFloatModeEventBuff::ioFloatModeEventBuff
EXTRN	??0ioReturnAttackBuff@@QAE@XZ:PROC		; ioReturnAttackBuff::ioReturnAttackBuff
EXTRN	??0ioGaugeStealBuff@@QAE@XZ:PROC		; ioGaugeStealBuff::ioGaugeStealBuff
EXTRN	??0ioChangeMotionBuff@@QAE@XZ:PROC		; ioChangeMotionBuff::ioChangeMotionBuff
EXTRN	??0ioDisableDashBuff@@QAE@XZ:PROC		; ioDisableDashBuff::ioDisableDashBuff
EXTRN	??0ioNoWoundBuff@@QAE@XZ:PROC			; ioNoWoundBuff::ioNoWoundBuff
EXTRN	??0ioHeadScaleBuff@@QAE@XZ:PROC			; ioHeadScaleBuff::ioHeadScaleBuff
EXTRN	??0ioHPStealBuff@@QAE@XZ:PROC			; ioHPStealBuff::ioHPStealBuff
EXTRN	??0ioReverseDirectionBuff@@QAE@XZ:PROC		; ioReverseDirectionBuff::ioReverseDirectionBuff
EXTRN	??0ioSystemDamageRateBuff@@QAE@XZ:PROC		; ioSystemDamageRateBuff::ioSystemDamageRateBuff
EXTRN	??0ioDamageConvertBuff@@QAE@XZ:PROC		; ioDamageConvertBuff::ioDamageConvertBuff
EXTRN	??0ioStopMotionBuff@@QAE@XZ:PROC		; ioStopMotionBuff::ioStopMotionBuff
EXTRN	??0ioHPConvertBuff@@QAE@XZ:PROC			; ioHPConvertBuff::ioHPConvertBuff
EXTRN	??0ioBlowPushPowerBuff@@QAE@XZ:PROC		; ioBlowPushPowerBuff::ioBlowPushPowerBuff
EXTRN	??0ioBreakFallBuff@@QAE@XZ:PROC			; ioBreakFallBuff::ioBreakFallBuff
EXTRN	??0ioPushBlowEnhanceBuff@@QAE@XZ:PROC		; ioPushBlowEnhanceBuff::ioPushBlowEnhanceBuff
EXTRN	??0ioScreenBlindBuff@@QAE@XZ:PROC		; ioScreenBlindBuff::ioScreenBlindBuff
EXTRN	??0ioLandingRateBuff@@QAE@XZ:PROC		; ioLandingRateBuff::ioLandingRateBuff
EXTRN	??0ioJumpPowerRateBuff@@QAE@XZ:PROC		; ioJumpPowerRateBuff::ioJumpPowerRateBuff
EXTRN	??0ioFloatBuff@@QAE@XZ:PROC			; ioFloatBuff::ioFloatBuff
EXTRN	??0ioStateProtectionBuff@@QAE@XZ:PROC		; ioStateProtectionBuff::ioStateProtectionBuff
EXTRN	??0ioCloseOrderBuff@@QAE@XZ:PROC		; ioCloseOrderBuff::ioCloseOrderBuff
EXTRN	??0ioWarpStateBuff@@QAE@XZ:PROC			; ioWarpStateBuff::ioWarpStateBuff
EXTRN	??0ioManaShieldBuff@@QAE@XZ:PROC		; ioManaShieldBuff::ioManaShieldBuff
EXTRN	??0ioEletricBuff@@QAE@XZ:PROC			; ioEletricBuff::ioEletricBuff
EXTRN	??0ioAbsoluteProtectionBuff@@QAE@XZ:PROC	; ioAbsoluteProtectionBuff::ioAbsoluteProtectionBuff
EXTRN	??0ioDoubleJumpBuff@@QAE@XZ:PROC		; ioDoubleJumpBuff::ioDoubleJumpBuff
EXTRN	??0ioFearBuff@@QAE@XZ:PROC			; ioFearBuff::ioFearBuff
EXTRN	??0ioGaugeClearBuff@@QAE@XZ:PROC		; ioGaugeClearBuff::ioGaugeClearBuff
EXTRN	??0ioWeakMagicBuff@@QAE@XZ:PROC			; ioWeakMagicBuff::ioWeakMagicBuff
EXTRN	??0ioWeakBombBuff@@QAE@XZ:PROC			; ioWeakBombBuff::ioWeakBombBuff
EXTRN	??0ioHideBuff@@QAE@XZ:PROC			; ioHideBuff::ioHideBuff
EXTRN	??0ioStealthBuff@@QAE@XZ:PROC			; ioStealthBuff::ioStealthBuff
EXTRN	??0ioCatchBuff@@QAE@XZ:PROC			; ioCatchBuff::ioCatchBuff
EXTRN	??0ioCameraBuff@@QAE@XZ:PROC			; ioCameraBuff::ioCameraBuff
EXTRN	??0ioRestorationGaugeBuff@@QAE@XZ:PROC		; ioRestorationGaugeBuff::ioRestorationGaugeBuff
EXTRN	??0ioRecoveryGaugeBuff@@QAE@XZ:PROC		; ioRecoveryGaugeBuff::ioRecoveryGaugeBuff
EXTRN	??0ioKingScaleBuff@@QAE@XZ:PROC			; ioKingScaleBuff::ioKingScaleBuff
EXTRN	??0ioReflectBuff@@QAE@XZ:PROC			; ioReflectBuff::ioReflectBuff
EXTRN	??0ioPotionBuff@@QAE@XZ:PROC			; ioPotionBuff::ioPotionBuff
EXTRN	??0ioDurationScaleBuff@@QAE@XZ:PROC		; ioDurationScaleBuff::ioDurationScaleBuff
EXTRN	??0ioPushBackBuff@@QAE@XZ:PROC			; ioPushBackBuff::ioPushBackBuff
EXTRN	??0ioProtectionBuff@@QAE@XZ:PROC		; ioProtectionBuff::ioProtectionBuff
EXTRN	??0ioStatEnhanceBuff@@QAE@XZ:PROC		; ioStatEnhanceBuff::ioStatEnhanceBuff
EXTRN	??0ioPoisoningBuff@@QAE@XZ:PROC			; ioPoisoningBuff::ioPoisoningBuff
EXTRN	??0ioStunBuff@@QAE@XZ:PROC			; ioStunBuff::ioStunBuff
EXTRN	??0ioFrozenBuff@@QAE@XZ:PROC			; ioFrozenBuff::ioFrozenBuff
EXTRN	??0ioBurnBuff@@QAE@XZ:PROC			; ioBurnBuff::ioBurnBuff
EXTRN	??0ioFlyBuff@@QAE@XZ:PROC			; ioFlyBuff::ioFlyBuff
EXTRN	??0ioRestorationBuff@@QAE@XZ:PROC		; ioRestorationBuff::ioRestorationBuff
EXTRN	??0ioRecoveryBuff@@QAE@XZ:PROC			; ioRecoveryBuff::ioRecoveryBuff
EXTRN	??0ioWoundedUpDownBuff@@QAE@XZ:PROC		; ioWoundedUpDownBuff::ioWoundedUpDownBuff
EXTRN	??0ioSpeedUpDownBuff@@QAE@XZ:PROC		; ioSpeedUpDownBuff::ioSpeedUpDownBuff
EXTRN	??0ioDamageUpDownBuff@@QAE@XZ:PROC		; ioDamageUpDownBuff::ioDamageUpDownBuff
EXTRN	??2@YAPAXI@Z:PROC				; operator new
EXTRN	___CxxFrameHandler3:PROC
EXTRN	@__security_check_cookie@4:PROC
EXTRN	__EH_epilog3:PROC
EXTRN	__EH_prolog3:PROC
;	COMDAT ??_C@_0DN@LAIAOGKK@ioBuffMaker?3?3CreateNormalBuffTem@
; File d:\lost saga for developer\youtube\tutorial\source\src\lsclient\iobuffmaker.cpp
CONST	SEGMENT
??_C@_0DN@LAIAOGKK@ioBuffMaker?3?3CreateNormalBuffTem@ DB 'ioBuffMaker::C'
	DB	'reateNormalBuffTemplete() Create Fail Buff: %d', 00H ; `string'
CONST	ENDS
;	COMDAT xdata$x
xdata$x	SEGMENT
__ehfuncinfo$?CreateNormalBuffTemplete@ioBuffMaker@@IAEPAVioBuff@@HH@Z DD 019930522H
	DD	0d9H
	DD	FLAT:__unwindtable$?CreateNormalBuffTemplete@ioBuffMaker@@IAEPAVioBuff@@HH@Z
	DD	2 DUP(00H)
	DD	2 DUP(00H)
	DD	00H
	DD	01H
__unwindtable$?CreateNormalBuffTemplete@ioBuffMaker@@IAEPAVioBuff@@HH@Z DD 0ffffffffH
	DD	FLAT:__unwindfunclet$?CreateNormalBuffTemplete@ioBuffMaker@@IAEPAVioBuff@@HH@Z$0
	DD	0ffffffffH
	DD	FLAT:__unwindfunclet$?CreateNormalBuffTemplete@ioBuffMaker@@IAEPAVioBuff@@HH@Z$1
	DD	0ffffffffH
	DD	FLAT:__unwindfunclet$?CreateNormalBuffTemplete@ioBuffMaker@@IAEPAVioBuff@@HH@Z$2
	DD	0ffffffffH
	DD	FLAT:__unwindfunclet$?CreateNormalBuffTemplete@ioBuffMaker@@IAEPAVioBuff@@HH@Z$3
	DD	0ffffffffH
	DD	FLAT:__unwindfunclet$?CreateNormalBuffTemplete@ioBuffMaker@@IAEPAVioBuff@@HH@Z$4
	DD	0ffffffffH
	DD	FLAT:__unwindfunclet$?CreateNormalBuffTemplete@ioBuffMaker@@IAEPAVioBuff@@HH@Z$5
	DD	0ffffffffH
	DD	FLAT:__unwindfunclet$?CreateNormalBuffTemplete@ioBuffMaker@@IAEPAVioBuff@@HH@Z$6
	DD	0ffffffffH
	DD	FLAT:__unwindfunclet$?CreateNormalBuffTemplete@ioBuffMaker@@IAEPAVioBuff@@HH@Z$7
	DD	0ffffffffH
	DD	FLAT:__unwindfunclet$?CreateNormalBuffTemplete@ioBuffMaker@@IAEPAVioBuff@@HH@Z$8
	DD	0ffffffffH
	DD	FLAT:__unwindfunclet$?CreateNormalBuffTemplete@ioBuffMaker@@IAEPAVioBuff@@HH@Z$9
	DD	0ffffffffH
	DD	FLAT:__unwindfunclet$?CreateNormalBuffTemplete@ioBuffMaker@@IAEPAVioBuff@@HH@Z$10
	DD	0ffffffffH
	DD	FLAT:__unwindfunclet$?CreateNormalBuffTemplete@ioBuffMaker@@IAEPAVioBuff@@HH@Z$11
	DD	0ffffffffH
	DD	FLAT:__unwindfunclet$?CreateNormalBuffTemplete@ioBuffMaker@@IAEPAVioBuff@@HH@Z$12
	DD	0ffffffffH
	DD	FLAT:__unwindfunclet$?CreateNormalBuffTemplete@ioBuffMaker@@IAEPAVioBuff@@HH@Z$13
	DD	0ffffffffH
	DD	FLAT:__unwindfunclet$?CreateNormalBuffTemplete@ioBuffMaker@@IAEPAVioBuff@@HH@Z$14
	DD	0ffffffffH
	DD	FLAT:__unwindfunclet$?CreateNormalBuffTemplete@ioBuffMaker@@IAEPAVioBuff@@HH@Z$15
	DD	0ffffffffH
	DD	FLAT:__unwindfunclet$?CreateNormalBuffTemplete@ioBuffMaker@@IAEPAVioBuff@@HH@Z$16
	DD	0ffffffffH
	DD	FLAT:__unwindfunclet$?CreateNormalBuffTemplete@ioBuffMaker@@IAEPAVioBuff@@HH@Z$17
	DD	0ffffffffH
	DD	FLAT:__unwindfunclet$?CreateNormalBuffTemplete@ioBuffMaker@@IAEPAVioBuff@@HH@Z$18
	DD	0ffffffffH
	DD	FLAT:__unwindfunclet$?CreateNormalBuffTemplete@ioBuffMaker@@IAEPAVioBuff@@HH@Z$19
	DD	0ffffffffH
	DD	FLAT:__unwindfunclet$?CreateNormalBuffTemplete@ioBuffMaker@@IAEPAVioBuff@@HH@Z$20
	DD	0ffffffffH
	DD	FLAT:__unwindfunclet$?CreateNormalBuffTemplete@ioBuffMaker@@IAEPAVioBuff@@HH@Z$21
	DD	0ffffffffH
	DD	FLAT:__unwindfunclet$?CreateNormalBuffTemplete@ioBuffMaker@@IAEPAVioBuff@@HH@Z$22
	DD	0ffffffffH
	DD	FLAT:__unwindfunclet$?CreateNormalBuffTemplete@ioBuffMaker@@IAEPAVioBuff@@HH@Z$23
	DD	0ffffffffH
	DD	FLAT:__unwindfunclet$?CreateNormalBuffTemplete@ioBuffMaker@@IAEPAVioBuff@@HH@Z$24
	DD	0ffffffffH
	DD	FLAT:__unwindfunclet$?CreateNormalBuffTemplete@ioBuffMaker@@IAEPAVioBuff@@HH@Z$25
	DD	0ffffffffH
	DD	FLAT:__unwindfunclet$?CreateNormalBuffTemplete@ioBuffMaker@@IAEPAVioBuff@@HH@Z$26
	DD	0ffffffffH
	DD	FLAT:__unwindfunclet$?CreateNormalBuffTemplete@ioBuffMaker@@IAEPAVioBuff@@HH@Z$27
	DD	0ffffffffH
	DD	FLAT:__unwindfunclet$?CreateNormalBuffTemplete@ioBuffMaker@@IAEPAVioBuff@@HH@Z$28
	DD	0ffffffffH
	DD	FLAT:__unwindfunclet$?CreateNormalBuffTemplete@ioBuffMaker@@IAEPAVioBuff@@HH@Z$29
	DD	0ffffffffH
	DD	FLAT:__unwindfunclet$?CreateNormalBuffTemplete@ioBuffMaker@@IAEPAVioBuff@@HH@Z$30
	DD	0ffffffffH
	DD	FLAT:__unwindfunclet$?CreateNormalBuffTemplete@ioBuffMaker@@IAEPAVioBuff@@HH@Z$31
	DD	0ffffffffH
	DD	FLAT:__unwindfunclet$?CreateNormalBuffTemplete@ioBuffMaker@@IAEPAVioBuff@@HH@Z$32
	DD	0ffffffffH
	DD	FLAT:__unwindfunclet$?CreateNormalBuffTemplete@ioBuffMaker@@IAEPAVioBuff@@HH@Z$33
	DD	0ffffffffH
	DD	FLAT:__unwindfunclet$?CreateNormalBuffTemplete@ioBuffMaker@@IAEPAVioBuff@@HH@Z$34
	DD	0ffffffffH
	DD	FLAT:__unwindfunclet$?CreateNormalBuffTemplete@ioBuffMaker@@IAEPAVioBuff@@HH@Z$35
	DD	0ffffffffH
	DD	FLAT:__unwindfunclet$?CreateNormalBuffTemplete@ioBuffMaker@@IAEPAVioBuff@@HH@Z$36
	DD	0ffffffffH
	DD	FLAT:__unwindfunclet$?CreateNormalBuffTemplete@ioBuffMaker@@IAEPAVioBuff@@HH@Z$37
	DD	0ffffffffH
	DD	FLAT:__unwindfunclet$?CreateNormalBuffTemplete@ioBuffMaker@@IAEPAVioBuff@@HH@Z$38
	DD	0ffffffffH
	DD	FLAT:__unwindfunclet$?CreateNormalBuffTemplete@ioBuffMaker@@IAEPAVioBuff@@HH@Z$39
	DD	0ffffffffH
	DD	FLAT:__unwindfunclet$?CreateNormalBuffTemplete@ioBuffMaker@@IAEPAVioBuff@@HH@Z$40
	DD	0ffffffffH
	DD	FLAT:__unwindfunclet$?CreateNormalBuffTemplete@ioBuffMaker@@IAEPAVioBuff@@HH@Z$41
	DD	0ffffffffH
	DD	FLAT:__unwindfunclet$?CreateNormalBuffTemplete@ioBuffMaker@@IAEPAVioBuff@@HH@Z$42
	DD	0ffffffffH
	DD	FLAT:__unwindfunclet$?CreateNormalBuffTemplete@ioBuffMaker@@IAEPAVioBuff@@HH@Z$43
	DD	0ffffffffH
	DD	FLAT:__unwindfunclet$?CreateNormalBuffTemplete@ioBuffMaker@@IAEPAVioBuff@@HH@Z$44
	DD	0ffffffffH
	DD	FLAT:__unwindfunclet$?CreateNormalBuffTemplete@ioBuffMaker@@IAEPAVioBuff@@HH@Z$45
	DD	0ffffffffH
	DD	FLAT:__unwindfunclet$?CreateNormalBuffTemplete@ioBuffMaker@@IAEPAVioBuff@@HH@Z$46
	DD	0ffffffffH
	DD	FLAT:__unwindfunclet$?CreateNormalBuffTemplete@ioBuffMaker@@IAEPAVioBuff@@HH@Z$47
	DD	0ffffffffH
	DD	FLAT:__unwindfunclet$?CreateNormalBuffTemplete@ioBuffMaker@@IAEPAVioBuff@@HH@Z$48
	DD	0ffffffffH
	DD	FLAT:__unwindfunclet$?CreateNormalBuffTemplete@ioBuffMaker@@IAEPAVioBuff@@HH@Z$49
	DD	0ffffffffH
	DD	FLAT:__unwindfunclet$?CreateNormalBuffTemplete@ioBuffMaker@@IAEPAVioBuff@@HH@Z$50
	DD	0ffffffffH
	DD	FLAT:__unwindfunclet$?CreateNormalBuffTemplete@ioBuffMaker@@IAEPAVioBuff@@HH@Z$51
	DD	0ffffffffH
	DD	FLAT:__unwindfunclet$?CreateNormalBuffTemplete@ioBuffMaker@@IAEPAVioBuff@@HH@Z$52
	DD	0ffffffffH
	DD	FLAT:__unwindfunclet$?CreateNormalBuffTemplete@ioBuffMaker@@IAEPAVioBuff@@HH@Z$53
	DD	0ffffffffH
	DD	FLAT:__unwindfunclet$?CreateNormalBuffTemplete@ioBuffMaker@@IAEPAVioBuff@@HH@Z$54
	DD	0ffffffffH
	DD	FLAT:__unwindfunclet$?CreateNormalBuffTemplete@ioBuffMaker@@IAEPAVioBuff@@HH@Z$55
	DD	0ffffffffH
	DD	FLAT:__unwindfunclet$?CreateNormalBuffTemplete@ioBuffMaker@@IAEPAVioBuff@@HH@Z$56
	DD	0ffffffffH
	DD	FLAT:__unwindfunclet$?CreateNormalBuffTemplete@ioBuffMaker@@IAEPAVioBuff@@HH@Z$57
	DD	0ffffffffH
	DD	FLAT:__unwindfunclet$?CreateNormalBuffTemplete@ioBuffMaker@@IAEPAVioBuff@@HH@Z$58
	DD	0ffffffffH
	DD	FLAT:__unwindfunclet$?CreateNormalBuffTemplete@ioBuffMaker@@IAEPAVioBuff@@HH@Z$59
	DD	0ffffffffH
	DD	FLAT:__unwindfunclet$?CreateNormalBuffTemplete@ioBuffMaker@@IAEPAVioBuff@@HH@Z$60
	DD	0ffffffffH
	DD	FLAT:__unwindfunclet$?CreateNormalBuffTemplete@ioBuffMaker@@IAEPAVioBuff@@HH@Z$61
	DD	0ffffffffH
	DD	FLAT:__unwindfunclet$?CreateNormalBuffTemplete@ioBuffMaker@@IAEPAVioBuff@@HH@Z$62
	DD	0ffffffffH
	DD	FLAT:__unwindfunclet$?CreateNormalBuffTemplete@ioBuffMaker@@IAEPAVioBuff@@HH@Z$63
	DD	0ffffffffH
	DD	FLAT:__unwindfunclet$?CreateNormalBuffTemplete@ioBuffMaker@@IAEPAVioBuff@@HH@Z$64
	DD	0ffffffffH
	DD	FLAT:__unwindfunclet$?CreateNormalBuffTemplete@ioBuffMaker@@IAEPAVioBuff@@HH@Z$65
	DD	0ffffffffH
	DD	FLAT:__unwindfunclet$?CreateNormalBuffTemplete@ioBuffMaker@@IAEPAVioBuff@@HH@Z$66
	DD	0ffffffffH
	DD	FLAT:__unwindfunclet$?CreateNormalBuffTemplete@ioBuffMaker@@IAEPAVioBuff@@HH@Z$67
	DD	0ffffffffH
	DD	FLAT:__unwindfunclet$?CreateNormalBuffTemplete@ioBuffMaker@@IAEPAVioBuff@@HH@Z$68
	DD	0ffffffffH
	DD	FLAT:__unwindfunclet$?CreateNormalBuffTemplete@ioBuffMaker@@IAEPAVioBuff@@HH@Z$69
	DD	0ffffffffH
	DD	FLAT:__unwindfunclet$?CreateNormalBuffTemplete@ioBuffMaker@@IAEPAVioBuff@@HH@Z$70
	DD	0ffffffffH
	DD	FLAT:__unwindfunclet$?CreateNormalBuffTemplete@ioBuffMaker@@IAEPAVioBuff@@HH@Z$71
	DD	0ffffffffH
	DD	FLAT:__unwindfunclet$?CreateNormalBuffTemplete@ioBuffMaker@@IAEPAVioBuff@@HH@Z$72
	DD	0ffffffffH
	DD	FLAT:__unwindfunclet$?CreateNormalBuffTemplete@ioBuffMaker@@IAEPAVioBuff@@HH@Z$73
	DD	0ffffffffH
	DD	FLAT:__unwindfunclet$?CreateNormalBuffTemplete@ioBuffMaker@@IAEPAVioBuff@@HH@Z$74
	DD	0ffffffffH
	DD	FLAT:__unwindfunclet$?CreateNormalBuffTemplete@ioBuffMaker@@IAEPAVioBuff@@HH@Z$75
	DD	0ffffffffH
	DD	FLAT:__unwindfunclet$?CreateNormalBuffTemplete@ioBuffMaker@@IAEPAVioBuff@@HH@Z$76
	DD	0ffffffffH
	DD	FLAT:__unwindfunclet$?CreateNormalBuffTemplete@ioBuffMaker@@IAEPAVioBuff@@HH@Z$77
	DD	0ffffffffH
	DD	FLAT:__unwindfunclet$?CreateNormalBuffTemplete@ioBuffMaker@@IAEPAVioBuff@@HH@Z$78
	DD	0ffffffffH
	DD	FLAT:__unwindfunclet$?CreateNormalBuffTemplete@ioBuffMaker@@IAEPAVioBuff@@HH@Z$79
	DD	0ffffffffH
	DD	FLAT:__unwindfunclet$?CreateNormalBuffTemplete@ioBuffMaker@@IAEPAVioBuff@@HH@Z$80
	DD	0ffffffffH
	DD	FLAT:__unwindfunclet$?CreateNormalBuffTemplete@ioBuffMaker@@IAEPAVioBuff@@HH@Z$81
	DD	0ffffffffH
	DD	FLAT:__unwindfunclet$?CreateNormalBuffTemplete@ioBuffMaker@@IAEPAVioBuff@@HH@Z$82
	DD	0ffffffffH
	DD	FLAT:__unwindfunclet$?CreateNormalBuffTemplete@ioBuffMaker@@IAEPAVioBuff@@HH@Z$83
	DD	0ffffffffH
	DD	FLAT:__unwindfunclet$?CreateNormalBuffTemplete@ioBuffMaker@@IAEPAVioBuff@@HH@Z$84
	DD	0ffffffffH
	DD	FLAT:__unwindfunclet$?CreateNormalBuffTemplete@ioBuffMaker@@IAEPAVioBuff@@HH@Z$85
	DD	0ffffffffH
	DD	FLAT:__unwindfunclet$?CreateNormalBuffTemplete@ioBuffMaker@@IAEPAVioBuff@@HH@Z$86
	DD	0ffffffffH
	DD	FLAT:__unwindfunclet$?CreateNormalBuffTemplete@ioBuffMaker@@IAEPAVioBuff@@HH@Z$87
	DD	0ffffffffH
	DD	FLAT:__unwindfunclet$?CreateNormalBuffTemplete@ioBuffMaker@@IAEPAVioBuff@@HH@Z$88
	DD	0ffffffffH
	DD	FLAT:__unwindfunclet$?CreateNormalBuffTemplete@ioBuffMaker@@IAEPAVioBuff@@HH@Z$89
	DD	0ffffffffH
	DD	FLAT:__unwindfunclet$?CreateNormalBuffTemplete@ioBuffMaker@@IAEPAVioBuff@@HH@Z$90
	DD	0ffffffffH
	DD	FLAT:__unwindfunclet$?CreateNormalBuffTemplete@ioBuffMaker@@IAEPAVioBuff@@HH@Z$91
	DD	0ffffffffH
	DD	FLAT:__unwindfunclet$?CreateNormalBuffTemplete@ioBuffMaker@@IAEPAVioBuff@@HH@Z$92
	DD	0ffffffffH
	DD	FLAT:__unwindfunclet$?CreateNormalBuffTemplete@ioBuffMaker@@IAEPAVioBuff@@HH@Z$93
	DD	0ffffffffH
	DD	FLAT:__unwindfunclet$?CreateNormalBuffTemplete@ioBuffMaker@@IAEPAVioBuff@@HH@Z$94
	DD	0ffffffffH
	DD	FLAT:__unwindfunclet$?CreateNormalBuffTemplete@ioBuffMaker@@IAEPAVioBuff@@HH@Z$95
	DD	0ffffffffH
	DD	FLAT:__unwindfunclet$?CreateNormalBuffTemplete@ioBuffMaker@@IAEPAVioBuff@@HH@Z$96
	DD	0ffffffffH
	DD	FLAT:__unwindfunclet$?CreateNormalBuffTemplete@ioBuffMaker@@IAEPAVioBuff@@HH@Z$97
	DD	0ffffffffH
	DD	FLAT:__unwindfunclet$?CreateNormalBuffTemplete@ioBuffMaker@@IAEPAVioBuff@@HH@Z$98
	DD	0ffffffffH
	DD	FLAT:__unwindfunclet$?CreateNormalBuffTemplete@ioBuffMaker@@IAEPAVioBuff@@HH@Z$99
	DD	0ffffffffH
	DD	FLAT:__unwindfunclet$?CreateNormalBuffTemplete@ioBuffMaker@@IAEPAVioBuff@@HH@Z$100
	DD	0ffffffffH
	DD	FLAT:__unwindfunclet$?CreateNormalBuffTemplete@ioBuffMaker@@IAEPAVioBuff@@HH@Z$101
	DD	0ffffffffH
	DD	FLAT:__unwindfunclet$?CreateNormalBuffTemplete@ioBuffMaker@@IAEPAVioBuff@@HH@Z$102
	DD	0ffffffffH
	DD	FLAT:__unwindfunclet$?CreateNormalBuffTemplete@ioBuffMaker@@IAEPAVioBuff@@HH@Z$103
	DD	0ffffffffH
	DD	FLAT:__unwindfunclet$?CreateNormalBuffTemplete@ioBuffMaker@@IAEPAVioBuff@@HH@Z$104
	DD	0ffffffffH
	DD	FLAT:__unwindfunclet$?CreateNormalBuffTemplete@ioBuffMaker@@IAEPAVioBuff@@HH@Z$105
	DD	0ffffffffH
	DD	FLAT:__unwindfunclet$?CreateNormalBuffTemplete@ioBuffMaker@@IAEPAVioBuff@@HH@Z$106
	DD	0ffffffffH
	DD	FLAT:__unwindfunclet$?CreateNormalBuffTemplete@ioBuffMaker@@IAEPAVioBuff@@HH@Z$107
	DD	0ffffffffH
	DD	FLAT:__unwindfunclet$?CreateNormalBuffTemplete@ioBuffMaker@@IAEPAVioBuff@@HH@Z$108
	DD	0ffffffffH
	DD	FLAT:__unwindfunclet$?CreateNormalBuffTemplete@ioBuffMaker@@IAEPAVioBuff@@HH@Z$109
	DD	0ffffffffH
	DD	FLAT:__unwindfunclet$?CreateNormalBuffTemplete@ioBuffMaker@@IAEPAVioBuff@@HH@Z$110
	DD	0ffffffffH
	DD	FLAT:__unwindfunclet$?CreateNormalBuffTemplete@ioBuffMaker@@IAEPAVioBuff@@HH@Z$111
	DD	0ffffffffH
	DD	FLAT:__unwindfunclet$?CreateNormalBuffTemplete@ioBuffMaker@@IAEPAVioBuff@@HH@Z$112
	DD	0ffffffffH
	DD	FLAT:__unwindfunclet$?CreateNormalBuffTemplete@ioBuffMaker@@IAEPAVioBuff@@HH@Z$113
	DD	0ffffffffH
	DD	FLAT:__unwindfunclet$?CreateNormalBuffTemplete@ioBuffMaker@@IAEPAVioBuff@@HH@Z$114
	DD	0ffffffffH
	DD	FLAT:__unwindfunclet$?CreateNormalBuffTemplete@ioBuffMaker@@IAEPAVioBuff@@HH@Z$115
	DD	0ffffffffH
	DD	FLAT:__unwindfunclet$?CreateNormalBuffTemplete@ioBuffMaker@@IAEPAVioBuff@@HH@Z$116
	DD	0ffffffffH
	DD	FLAT:__unwindfunclet$?CreateNormalBuffTemplete@ioBuffMaker@@IAEPAVioBuff@@HH@Z$117
	DD	0ffffffffH
	DD	FLAT:__unwindfunclet$?CreateNormalBuffTemplete@ioBuffMaker@@IAEPAVioBuff@@HH@Z$118
	DD	0ffffffffH
	DD	FLAT:__unwindfunclet$?CreateNormalBuffTemplete@ioBuffMaker@@IAEPAVioBuff@@HH@Z$119
	DD	0ffffffffH
	DD	FLAT:__unwindfunclet$?CreateNormalBuffTemplete@ioBuffMaker@@IAEPAVioBuff@@HH@Z$120
	DD	0ffffffffH
	DD	FLAT:__unwindfunclet$?CreateNormalBuffTemplete@ioBuffMaker@@IAEPAVioBuff@@HH@Z$121
	DD	0ffffffffH
	DD	FLAT:__unwindfunclet$?CreateNormalBuffTemplete@ioBuffMaker@@IAEPAVioBuff@@HH@Z$122
	DD	0ffffffffH
	DD	FLAT:__unwindfunclet$?CreateNormalBuffTemplete@ioBuffMaker@@IAEPAVioBuff@@HH@Z$123
	DD	0ffffffffH
	DD	FLAT:__unwindfunclet$?CreateNormalBuffTemplete@ioBuffMaker@@IAEPAVioBuff@@HH@Z$124
	DD	0ffffffffH
	DD	FLAT:__unwindfunclet$?CreateNormalBuffTemplete@ioBuffMaker@@IAEPAVioBuff@@HH@Z$125
	DD	0ffffffffH
	DD	FLAT:__unwindfunclet$?CreateNormalBuffTemplete@ioBuffMaker@@IAEPAVioBuff@@HH@Z$126
	DD	0ffffffffH
	DD	FLAT:__unwindfunclet$?CreateNormalBuffTemplete@ioBuffMaker@@IAEPAVioBuff@@HH@Z$127
	DD	0ffffffffH
	DD	FLAT:__unwindfunclet$?CreateNormalBuffTemplete@ioBuffMaker@@IAEPAVioBuff@@HH@Z$128
	DD	0ffffffffH
	DD	FLAT:__unwindfunclet$?CreateNormalBuffTemplete@ioBuffMaker@@IAEPAVioBuff@@HH@Z$129
	DD	0ffffffffH
	DD	FLAT:__unwindfunclet$?CreateNormalBuffTemplete@ioBuffMaker@@IAEPAVioBuff@@HH@Z$130
	DD	0ffffffffH
	DD	FLAT:__unwindfunclet$?CreateNormalBuffTemplete@ioBuffMaker@@IAEPAVioBuff@@HH@Z$131
	DD	0ffffffffH
	DD	FLAT:__unwindfunclet$?CreateNormalBuffTemplete@ioBuffMaker@@IAEPAVioBuff@@HH@Z$132
	DD	0ffffffffH
	DD	FLAT:__unwindfunclet$?CreateNormalBuffTemplete@ioBuffMaker@@IAEPAVioBuff@@HH@Z$133
	DD	0ffffffffH
	DD	FLAT:__unwindfunclet$?CreateNormalBuffTemplete@ioBuffMaker@@IAEPAVioBuff@@HH@Z$134
	DD	0ffffffffH
	DD	FLAT:__unwindfunclet$?CreateNormalBuffTemplete@ioBuffMaker@@IAEPAVioBuff@@HH@Z$135
	DD	0ffffffffH
	DD	FLAT:__unwindfunclet$?CreateNormalBuffTemplete@ioBuffMaker@@IAEPAVioBuff@@HH@Z$136
	DD	0ffffffffH
	DD	FLAT:__unwindfunclet$?CreateNormalBuffTemplete@ioBuffMaker@@IAEPAVioBuff@@HH@Z$137
	DD	0ffffffffH
	DD	FLAT:__unwindfunclet$?CreateNormalBuffTemplete@ioBuffMaker@@IAEPAVioBuff@@HH@Z$138
	DD	0ffffffffH
	DD	FLAT:__unwindfunclet$?CreateNormalBuffTemplete@ioBuffMaker@@IAEPAVioBuff@@HH@Z$139
	DD	0ffffffffH
	DD	FLAT:__unwindfunclet$?CreateNormalBuffTemplete@ioBuffMaker@@IAEPAVioBuff@@HH@Z$140
	DD	0ffffffffH
	DD	FLAT:__unwindfunclet$?CreateNormalBuffTemplete@ioBuffMaker@@IAEPAVioBuff@@HH@Z$141
	DD	0ffffffffH
	DD	FLAT:__unwindfunclet$?CreateNormalBuffTemplete@ioBuffMaker@@IAEPAVioBuff@@HH@Z$142
	DD	0ffffffffH
	DD	FLAT:__unwindfunclet$?CreateNormalBuffTemplete@ioBuffMaker@@IAEPAVioBuff@@HH@Z$143
	DD	0ffffffffH
	DD	FLAT:__unwindfunclet$?CreateNormalBuffTemplete@ioBuffMaker@@IAEPAVioBuff@@HH@Z$144
	DD	0ffffffffH
	DD	FLAT:__unwindfunclet$?CreateNormalBuffTemplete@ioBuffMaker@@IAEPAVioBuff@@HH@Z$145
	DD	0ffffffffH
	DD	FLAT:__unwindfunclet$?CreateNormalBuffTemplete@ioBuffMaker@@IAEPAVioBuff@@HH@Z$146
	DD	0ffffffffH
	DD	FLAT:__unwindfunclet$?CreateNormalBuffTemplete@ioBuffMaker@@IAEPAVioBuff@@HH@Z$147
	DD	0ffffffffH
	DD	FLAT:__unwindfunclet$?CreateNormalBuffTemplete@ioBuffMaker@@IAEPAVioBuff@@HH@Z$148
	DD	0ffffffffH
	DD	FLAT:__unwindfunclet$?CreateNormalBuffTemplete@ioBuffMaker@@IAEPAVioBuff@@HH@Z$149
	DD	0ffffffffH
	DD	FLAT:__unwindfunclet$?CreateNormalBuffTemplete@ioBuffMaker@@IAEPAVioBuff@@HH@Z$150
	DD	0ffffffffH
	DD	FLAT:__unwindfunclet$?CreateNormalBuffTemplete@ioBuffMaker@@IAEPAVioBuff@@HH@Z$151
	DD	0ffffffffH
	DD	FLAT:__unwindfunclet$?CreateNormalBuffTemplete@ioBuffMaker@@IAEPAVioBuff@@HH@Z$152
	DD	0ffffffffH
	DD	FLAT:__unwindfunclet$?CreateNormalBuffTemplete@ioBuffMaker@@IAEPAVioBuff@@HH@Z$153
	DD	0ffffffffH
	DD	FLAT:__unwindfunclet$?CreateNormalBuffTemplete@ioBuffMaker@@IAEPAVioBuff@@HH@Z$154
	DD	0ffffffffH
	DD	FLAT:__unwindfunclet$?CreateNormalBuffTemplete@ioBuffMaker@@IAEPAVioBuff@@HH@Z$155
	DD	0ffffffffH
	DD	FLAT:__unwindfunclet$?CreateNormalBuffTemplete@ioBuffMaker@@IAEPAVioBuff@@HH@Z$156
	DD	0ffffffffH
	DD	FLAT:__unwindfunclet$?CreateNormalBuffTemplete@ioBuffMaker@@IAEPAVioBuff@@HH@Z$157
	DD	0ffffffffH
	DD	FLAT:__unwindfunclet$?CreateNormalBuffTemplete@ioBuffMaker@@IAEPAVioBuff@@HH@Z$158
	DD	0ffffffffH
	DD	FLAT:__unwindfunclet$?CreateNormalBuffTemplete@ioBuffMaker@@IAEPAVioBuff@@HH@Z$159
	DD	0ffffffffH
	DD	FLAT:__unwindfunclet$?CreateNormalBuffTemplete@ioBuffMaker@@IAEPAVioBuff@@HH@Z$160
	DD	0ffffffffH
	DD	FLAT:__unwindfunclet$?CreateNormalBuffTemplete@ioBuffMaker@@IAEPAVioBuff@@HH@Z$161
	DD	0ffffffffH
	DD	FLAT:__unwindfunclet$?CreateNormalBuffTemplete@ioBuffMaker@@IAEPAVioBuff@@HH@Z$162
	DD	0ffffffffH
	DD	FLAT:__unwindfunclet$?CreateNormalBuffTemplete@ioBuffMaker@@IAEPAVioBuff@@HH@Z$163
	DD	0ffffffffH
	DD	FLAT:__unwindfunclet$?CreateNormalBuffTemplete@ioBuffMaker@@IAEPAVioBuff@@HH@Z$164
	DD	0ffffffffH
	DD	FLAT:__unwindfunclet$?CreateNormalBuffTemplete@ioBuffMaker@@IAEPAVioBuff@@HH@Z$165
	DD	0ffffffffH
	DD	FLAT:__unwindfunclet$?CreateNormalBuffTemplete@ioBuffMaker@@IAEPAVioBuff@@HH@Z$166
	DD	0ffffffffH
	DD	FLAT:__unwindfunclet$?CreateNormalBuffTemplete@ioBuffMaker@@IAEPAVioBuff@@HH@Z$167
	DD	0ffffffffH
	DD	FLAT:__unwindfunclet$?CreateNormalBuffTemplete@ioBuffMaker@@IAEPAVioBuff@@HH@Z$168
	DD	0ffffffffH
	DD	FLAT:__unwindfunclet$?CreateNormalBuffTemplete@ioBuffMaker@@IAEPAVioBuff@@HH@Z$169
	DD	0ffffffffH
	DD	FLAT:__unwindfunclet$?CreateNormalBuffTemplete@ioBuffMaker@@IAEPAVioBuff@@HH@Z$170
	DD	0ffffffffH
	DD	FLAT:__unwindfunclet$?CreateNormalBuffTemplete@ioBuffMaker@@IAEPAVioBuff@@HH@Z$171
	DD	0ffffffffH
	DD	FLAT:__unwindfunclet$?CreateNormalBuffTemplete@ioBuffMaker@@IAEPAVioBuff@@HH@Z$172
	DD	0ffffffffH
	DD	FLAT:__unwindfunclet$?CreateNormalBuffTemplete@ioBuffMaker@@IAEPAVioBuff@@HH@Z$173
	DD	0ffffffffH
	DD	FLAT:__unwindfunclet$?CreateNormalBuffTemplete@ioBuffMaker@@IAEPAVioBuff@@HH@Z$174
	DD	0ffffffffH
	DD	FLAT:__unwindfunclet$?CreateNormalBuffTemplete@ioBuffMaker@@IAEPAVioBuff@@HH@Z$175
	DD	0ffffffffH
	DD	FLAT:__unwindfunclet$?CreateNormalBuffTemplete@ioBuffMaker@@IAEPAVioBuff@@HH@Z$176
	DD	0ffffffffH
	DD	FLAT:__unwindfunclet$?CreateNormalBuffTemplete@ioBuffMaker@@IAEPAVioBuff@@HH@Z$177
	DD	0ffffffffH
	DD	FLAT:__unwindfunclet$?CreateNormalBuffTemplete@ioBuffMaker@@IAEPAVioBuff@@HH@Z$178
	DD	0ffffffffH
	DD	FLAT:__unwindfunclet$?CreateNormalBuffTemplete@ioBuffMaker@@IAEPAVioBuff@@HH@Z$179
	DD	0ffffffffH
	DD	FLAT:__unwindfunclet$?CreateNormalBuffTemplete@ioBuffMaker@@IAEPAVioBuff@@HH@Z$180
	DD	0ffffffffH
	DD	FLAT:__unwindfunclet$?CreateNormalBuffTemplete@ioBuffMaker@@IAEPAVioBuff@@HH@Z$181
	DD	0ffffffffH
	DD	FLAT:__unwindfunclet$?CreateNormalBuffTemplete@ioBuffMaker@@IAEPAVioBuff@@HH@Z$182
	DD	0ffffffffH
	DD	FLAT:__unwindfunclet$?CreateNormalBuffTemplete@ioBuffMaker@@IAEPAVioBuff@@HH@Z$183
	DD	0ffffffffH
	DD	FLAT:__unwindfunclet$?CreateNormalBuffTemplete@ioBuffMaker@@IAEPAVioBuff@@HH@Z$184
	DD	0ffffffffH
	DD	FLAT:__unwindfunclet$?CreateNormalBuffTemplete@ioBuffMaker@@IAEPAVioBuff@@HH@Z$185
	DD	0ffffffffH
	DD	FLAT:__unwindfunclet$?CreateNormalBuffTemplete@ioBuffMaker@@IAEPAVioBuff@@HH@Z$186
	DD	0ffffffffH
	DD	FLAT:__unwindfunclet$?CreateNormalBuffTemplete@ioBuffMaker@@IAEPAVioBuff@@HH@Z$187
	DD	0ffffffffH
	DD	FLAT:__unwindfunclet$?CreateNormalBuffTemplete@ioBuffMaker@@IAEPAVioBuff@@HH@Z$188
	DD	0ffffffffH
	DD	FLAT:__unwindfunclet$?CreateNormalBuffTemplete@ioBuffMaker@@IAEPAVioBuff@@HH@Z$189
	DD	0ffffffffH
	DD	FLAT:__unwindfunclet$?CreateNormalBuffTemplete@ioBuffMaker@@IAEPAVioBuff@@HH@Z$190
	DD	0ffffffffH
	DD	FLAT:__unwindfunclet$?CreateNormalBuffTemplete@ioBuffMaker@@IAEPAVioBuff@@HH@Z$191
	DD	0ffffffffH
	DD	FLAT:__unwindfunclet$?CreateNormalBuffTemplete@ioBuffMaker@@IAEPAVioBuff@@HH@Z$192
	DD	0ffffffffH
	DD	FLAT:__unwindfunclet$?CreateNormalBuffTemplete@ioBuffMaker@@IAEPAVioBuff@@HH@Z$193
	DD	0ffffffffH
	DD	FLAT:__unwindfunclet$?CreateNormalBuffTemplete@ioBuffMaker@@IAEPAVioBuff@@HH@Z$194
	DD	0ffffffffH
	DD	FLAT:__unwindfunclet$?CreateNormalBuffTemplete@ioBuffMaker@@IAEPAVioBuff@@HH@Z$195
	DD	0ffffffffH
	DD	FLAT:__unwindfunclet$?CreateNormalBuffTemplete@ioBuffMaker@@IAEPAVioBuff@@HH@Z$196
	DD	0ffffffffH
	DD	FLAT:__unwindfunclet$?CreateNormalBuffTemplete@ioBuffMaker@@IAEPAVioBuff@@HH@Z$197
	DD	0ffffffffH
	DD	FLAT:__unwindfunclet$?CreateNormalBuffTemplete@ioBuffMaker@@IAEPAVioBuff@@HH@Z$198
	DD	0ffffffffH
	DD	FLAT:__unwindfunclet$?CreateNormalBuffTemplete@ioBuffMaker@@IAEPAVioBuff@@HH@Z$199
	DD	0ffffffffH
	DD	FLAT:__unwindfunclet$?CreateNormalBuffTemplete@ioBuffMaker@@IAEPAVioBuff@@HH@Z$200
	DD	0ffffffffH
	DD	FLAT:__unwindfunclet$?CreateNormalBuffTemplete@ioBuffMaker@@IAEPAVioBuff@@HH@Z$201
	DD	0ffffffffH
	DD	FLAT:__unwindfunclet$?CreateNormalBuffTemplete@ioBuffMaker@@IAEPAVioBuff@@HH@Z$202
	DD	0ffffffffH
	DD	FLAT:__unwindfunclet$?CreateNormalBuffTemplete@ioBuffMaker@@IAEPAVioBuff@@HH@Z$203
	DD	0ffffffffH
	DD	FLAT:__unwindfunclet$?CreateNormalBuffTemplete@ioBuffMaker@@IAEPAVioBuff@@HH@Z$204
	DD	0ffffffffH
	DD	FLAT:__unwindfunclet$?CreateNormalBuffTemplete@ioBuffMaker@@IAEPAVioBuff@@HH@Z$205
	DD	0ffffffffH
	DD	FLAT:__unwindfunclet$?CreateNormalBuffTemplete@ioBuffMaker@@IAEPAVioBuff@@HH@Z$206
	DD	0ffffffffH
	DD	FLAT:__unwindfunclet$?CreateNormalBuffTemplete@ioBuffMaker@@IAEPAVioBuff@@HH@Z$207
	DD	0ffffffffH
	DD	FLAT:__unwindfunclet$?CreateNormalBuffTemplete@ioBuffMaker@@IAEPAVioBuff@@HH@Z$208
	DD	0ffffffffH
	DD	FLAT:__unwindfunclet$?CreateNormalBuffTemplete@ioBuffMaker@@IAEPAVioBuff@@HH@Z$209
	DD	0ffffffffH
	DD	FLAT:__unwindfunclet$?CreateNormalBuffTemplete@ioBuffMaker@@IAEPAVioBuff@@HH@Z$210
	DD	0ffffffffH
	DD	FLAT:__unwindfunclet$?CreateNormalBuffTemplete@ioBuffMaker@@IAEPAVioBuff@@HH@Z$211
	DD	0ffffffffH
	DD	FLAT:__unwindfunclet$?CreateNormalBuffTemplete@ioBuffMaker@@IAEPAVioBuff@@HH@Z$212
	DD	0ffffffffH
	DD	FLAT:__unwindfunclet$?CreateNormalBuffTemplete@ioBuffMaker@@IAEPAVioBuff@@HH@Z$213
	DD	0ffffffffH
	DD	FLAT:__unwindfunclet$?CreateNormalBuffTemplete@ioBuffMaker@@IAEPAVioBuff@@HH@Z$214
	DD	0ffffffffH
	DD	FLAT:__unwindfunclet$?CreateNormalBuffTemplete@ioBuffMaker@@IAEPAVioBuff@@HH@Z$215
	DD	0ffffffffH
	DD	FLAT:__unwindfunclet$?CreateNormalBuffTemplete@ioBuffMaker@@IAEPAVioBuff@@HH@Z$216
; Function compile flags: /Ogsp
xdata$x	ENDS
;	COMDAT ?CreateNormalBuffTemplete@ioBuffMaker@@IAEPAVioBuff@@HH@Z
_TEXT	SEGMENT
__$EHRec$ = -12						; size = 12
$T530155 = 8						; size = 4
$T530151 = 8						; size = 4
$T530147 = 8						; size = 4
$T530143 = 8						; size = 4
$T530139 = 8						; size = 4
$T530135 = 8						; size = 4
$T530131 = 8						; size = 4
$T530127 = 8						; size = 4
$T530123 = 8						; size = 4
$T530119 = 8						; size = 4
$T530115 = 8						; size = 4
$T530111 = 8						; size = 4
$T530107 = 8						; size = 4
$T530103 = 8						; size = 4
$T530099 = 8						; size = 4
$T530095 = 8						; size = 4
$T530091 = 8						; size = 4
$T530087 = 8						; size = 4
$T530083 = 8						; size = 4
$T530079 = 8						; size = 4
$T530075 = 8						; size = 4
$T530071 = 8						; size = 4
$T530067 = 8						; size = 4
$T530063 = 8						; size = 4
$T530059 = 8						; size = 4
$T530055 = 8						; size = 4
$T530051 = 8						; size = 4
$T530047 = 8						; size = 4
$T530043 = 8						; size = 4
$T530039 = 8						; size = 4
$T530035 = 8						; size = 4
$T530031 = 8						; size = 4
$T530027 = 8						; size = 4
$T530023 = 8						; size = 4
$T530019 = 8						; size = 4
$T530015 = 8						; size = 4
$T530011 = 8						; size = 4
$T530007 = 8						; size = 4
$T530003 = 8						; size = 4
$T529999 = 8						; size = 4
$T529995 = 8						; size = 4
$T529991 = 8						; size = 4
$T529987 = 8						; size = 4
$T529983 = 8						; size = 4
$T529979 = 8						; size = 4
$T529975 = 8						; size = 4
$T529971 = 8						; size = 4
$T529967 = 8						; size = 4
$T529963 = 8						; size = 4
$T529959 = 8						; size = 4
$T529955 = 8						; size = 4
$T529951 = 8						; size = 4
$T529947 = 8						; size = 4
$T529943 = 8						; size = 4
$T529939 = 8						; size = 4
$T529935 = 8						; size = 4
$T529931 = 8						; size = 4
$T529927 = 8						; size = 4
$T529923 = 8						; size = 4
$T529919 = 8						; size = 4
$T529915 = 8						; size = 4
$T529911 = 8						; size = 4
$T529907 = 8						; size = 4
$T529903 = 8						; size = 4
$T529899 = 8						; size = 4
$T529895 = 8						; size = 4
$T529891 = 8						; size = 4
$T529887 = 8						; size = 4
$T529883 = 8						; size = 4
$T529879 = 8						; size = 4
$T529875 = 8						; size = 4
$T529871 = 8						; size = 4
$T529867 = 8						; size = 4
$T529863 = 8						; size = 4
$T529859 = 8						; size = 4
$T529855 = 8						; size = 4
$T529851 = 8						; size = 4
$T529847 = 8						; size = 4
$T529843 = 8						; size = 4
$T529839 = 8						; size = 4
$T529835 = 8						; size = 4
$T529831 = 8						; size = 4
$T529827 = 8						; size = 4
$T529823 = 8						; size = 4
$T529819 = 8						; size = 4
$T529815 = 8						; size = 4
$T529811 = 8						; size = 4
$T529807 = 8						; size = 4
$T529803 = 8						; size = 4
$T529799 = 8						; size = 4
$T529795 = 8						; size = 4
$T529791 = 8						; size = 4
$T529787 = 8						; size = 4
$T529783 = 8						; size = 4
$T529779 = 8						; size = 4
$T529775 = 8						; size = 4
$T529771 = 8						; size = 4
$T529767 = 8						; size = 4
$T529763 = 8						; size = 4
$T529759 = 8						; size = 4
$T529755 = 8						; size = 4
$T529751 = 8						; size = 4
$T529747 = 8						; size = 4
$T529743 = 8						; size = 4
$T529739 = 8						; size = 4
$T529735 = 8						; size = 4
$T529731 = 8						; size = 4
$T529727 = 8						; size = 4
$T529723 = 8						; size = 4
$T529719 = 8						; size = 4
$T529715 = 8						; size = 4
$T529711 = 8						; size = 4
$T529707 = 8						; size = 4
$T529703 = 8						; size = 4
$T529699 = 8						; size = 4
$T529695 = 8						; size = 4
$T529691 = 8						; size = 4
$T529687 = 8						; size = 4
$T529683 = 8						; size = 4
$T529679 = 8						; size = 4
$T529675 = 8						; size = 4
$T529671 = 8						; size = 4
$T529667 = 8						; size = 4
$T529663 = 8						; size = 4
$T529659 = 8						; size = 4
$T529655 = 8						; size = 4
$T529651 = 8						; size = 4
$T529647 = 8						; size = 4
$T529643 = 8						; size = 4
$T529639 = 8						; size = 4
$T529635 = 8						; size = 4
$T529631 = 8						; size = 4
$T529627 = 8						; size = 4
$T529623 = 8						; size = 4
$T529619 = 8						; size = 4
$T529615 = 8						; size = 4
$T529611 = 8						; size = 4
$T529607 = 8						; size = 4
$T529603 = 8						; size = 4
$T529599 = 8						; size = 4
$T529595 = 8						; size = 4
$T529591 = 8						; size = 4
$T529587 = 8						; size = 4
$T529583 = 8						; size = 4
$T529579 = 8						; size = 4
$T529575 = 8						; size = 4
$T529571 = 8						; size = 4
$T529567 = 8						; size = 4
$T529563 = 8						; size = 4
$T529559 = 8						; size = 4
$T529555 = 8						; size = 4
$T529551 = 8						; size = 4
$T529547 = 8						; size = 4
$T529543 = 8						; size = 4
$T529539 = 8						; size = 4
$T529535 = 8						; size = 4
$T529531 = 8						; size = 4
$T529527 = 8						; size = 4
$T529523 = 8						; size = 4
$T529519 = 8						; size = 4
$T529515 = 8						; size = 4
$T529511 = 8						; size = 4
$T529507 = 8						; size = 4
$T529503 = 8						; size = 4
$T529499 = 8						; size = 4
$T529495 = 8						; size = 4
$T529491 = 8						; size = 4
$T529487 = 8						; size = 4
$T529483 = 8						; size = 4
$T529479 = 8						; size = 4
$T529475 = 8						; size = 4
$T529471 = 8						; size = 4
$T529467 = 8						; size = 4
$T529463 = 8						; size = 4
$T529459 = 8						; size = 4
$T529455 = 8						; size = 4
$T529451 = 8						; size = 4
$T529447 = 8						; size = 4
$T529443 = 8						; size = 4
$T529439 = 8						; size = 4
$T529435 = 8						; size = 4
$T529431 = 8						; size = 4
$T529427 = 8						; size = 4
$T529423 = 8						; size = 4
$T529419 = 8						; size = 4
$T529415 = 8						; size = 4
$T529411 = 8						; size = 4
$T529407 = 8						; size = 4
$T529403 = 8						; size = 4
$T529399 = 8						; size = 4
$T529395 = 8						; size = 4
$T529391 = 8						; size = 4
$T529387 = 8						; size = 4
$T529383 = 8						; size = 4
$T529379 = 8						; size = 4
$T529375 = 8						; size = 4
$T529371 = 8						; size = 4
$T529367 = 8						; size = 4
$T529363 = 8						; size = 4
$T529359 = 8						; size = 4
$T529355 = 8						; size = 4
$T529351 = 8						; size = 4
$T529347 = 8						; size = 4
$T529343 = 8						; size = 4
$T529339 = 8						; size = 4
$T529335 = 8						; size = 4
$T529331 = 8						; size = 4
$T529327 = 8						; size = 4
$T529323 = 8						; size = 4
$T529319 = 8						; size = 4
$T529315 = 8						; size = 4
$T529311 = 8						; size = 4
$T529307 = 8						; size = 4
$T529303 = 8						; size = 4
$T529299 = 8						; size = 4
$T529295 = 8						; size = 4
$T529291 = 8						; size = 4
_iTypeID$ = 8						; size = 4
_iBuffCategory$ = 12					; size = 4
?CreateNormalBuffTemplete@ioBuffMaker@@IAEPAVioBuff@@HH@Z PROC ; ioBuffMaker::CreateNormalBuffTemplete, COMDAT
; _this$ = ecx

; 147  : {

  00000	6a 00		 push	 0
  00002	b8 00 00 00 00	 mov	 eax, __ehhandler$?CreateNormalBuffTemplete@ioBuffMaker@@IAEPAVioBuff@@HH@Z
  00007	e8 00 00 00 00	 call	 __EH_prolog3

; 148  : 	ioBuff *pBuff = NULL;
; 149  : 
; 150  : 	switch( iTypeID )

  0000c	8b 7d 08	 mov	 edi, DWORD PTR _iTypeID$[ebp]
  0000f	8d 47 ff	 lea	 eax, DWORD PTR [edi-1]
  00012	3d e6 00 00 00	 cmp	 eax, 230		; 000000e6H
  00017	0f 87 cb 22 00
	00		 ja	 $LN1@CreateNorm
  0001d	ff 24 85 00 00
	00 00		 jmp	 DWORD PTR $LN875@CreateNorm[eax*4]
$LN218@CreateNorm:

; 151  : 	{
; 152  : 	case BT_DAMAGE_UPDOWN:
; 153  : 		pBuff = new ioDamageUpDownBuff;

  00024	68 88 09 00 00	 push	 2440			; 00000988H
  00029	e8 00 00 00 00	 call	 ??2@YAPAXI@Z		; operator new
  0002e	59		 pop	 ecx
  0002f	8b c8		 mov	 ecx, eax
  00031	89 4d 08	 mov	 DWORD PTR $T529291[ebp], ecx
  00034	83 65 fc 00	 and	 DWORD PTR __$EHRec$[ebp+8], 0
  00038	85 c9		 test	 ecx, ecx
  0003a	0f 84 86 22 00
	00		 je	 $LN655@CreateNorm
  00040	e8 00 00 00 00	 call	 ??0ioDamageUpDownBuff@@QAE@XZ ; ioDamageUpDownBuff::ioDamageUpDownBuff
  00045	e9 7e 22 00 00	 jmp	 $LN656@CreateNorm
$LN217@CreateNorm:

; 154  : 		break;
; 155  : 	case BT_SPEED_UPDOWN:
; 156  : 		pBuff = new ioSpeedUpDownBuff;

  0004a	68 80 09 00 00	 push	 2432			; 00000980H
  0004f	e8 00 00 00 00	 call	 ??2@YAPAXI@Z		; operator new
  00054	59		 pop	 ecx
  00055	8b c8		 mov	 ecx, eax
  00057	89 4d 08	 mov	 DWORD PTR $T529295[ebp], ecx
  0005a	c7 45 fc 01 00
	00 00		 mov	 DWORD PTR __$EHRec$[ebp+8], 1
  00061	85 c9		 test	 ecx, ecx
  00063	0f 84 5d 22 00
	00		 je	 $LN655@CreateNorm
  00069	e8 00 00 00 00	 call	 ??0ioSpeedUpDownBuff@@QAE@XZ ; ioSpeedUpDownBuff::ioSpeedUpDownBuff
  0006e	e9 55 22 00 00	 jmp	 $LN656@CreateNorm
$LN216@CreateNorm:

; 157  : 		break;
; 158  : 	case BT_WOUNDED_UPDOWN:
; 159  : 		pBuff = new ioWoundedUpDownBuff;

  00073	68 90 09 00 00	 push	 2448			; 00000990H
  00078	e8 00 00 00 00	 call	 ??2@YAPAXI@Z		; operator new
  0007d	59		 pop	 ecx
  0007e	8b c8		 mov	 ecx, eax
  00080	89 4d 08	 mov	 DWORD PTR $T529299[ebp], ecx
  00083	c7 45 fc 02 00
	00 00		 mov	 DWORD PTR __$EHRec$[ebp+8], 2
  0008a	85 c9		 test	 ecx, ecx
  0008c	0f 84 34 22 00
	00		 je	 $LN655@CreateNorm
  00092	e8 00 00 00 00	 call	 ??0ioWoundedUpDownBuff@@QAE@XZ ; ioWoundedUpDownBuff::ioWoundedUpDownBuff
  00097	e9 2c 22 00 00	 jmp	 $LN656@CreateNorm
$LN215@CreateNorm:

; 160  : 		break;
; 161  : 	case BT_RECOVERY:
; 162  : 		pBuff = new ioRecoveryBuff;

  0009c	68 70 0a 00 00	 push	 2672			; 00000a70H
  000a1	e8 00 00 00 00	 call	 ??2@YAPAXI@Z		; operator new
  000a6	59		 pop	 ecx
  000a7	8b c8		 mov	 ecx, eax
  000a9	89 4d 08	 mov	 DWORD PTR $T529303[ebp], ecx
  000ac	c7 45 fc 03 00
	00 00		 mov	 DWORD PTR __$EHRec$[ebp+8], 3
  000b3	85 c9		 test	 ecx, ecx
  000b5	0f 84 0b 22 00
	00		 je	 $LN655@CreateNorm
  000bb	e8 00 00 00 00	 call	 ??0ioRecoveryBuff@@QAE@XZ ; ioRecoveryBuff::ioRecoveryBuff
  000c0	e9 03 22 00 00	 jmp	 $LN656@CreateNorm
$LN214@CreateNorm:

; 163  : 		break;
; 164  : 	case BT_RESTORATION:
; 165  : 		pBuff = new ioRestorationBuff;

  000c5	68 8c 0a 00 00	 push	 2700			; 00000a8cH
  000ca	e8 00 00 00 00	 call	 ??2@YAPAXI@Z		; operator new
  000cf	59		 pop	 ecx
  000d0	8b c8		 mov	 ecx, eax
  000d2	89 4d 08	 mov	 DWORD PTR $T529307[ebp], ecx
  000d5	c7 45 fc 04 00
	00 00		 mov	 DWORD PTR __$EHRec$[ebp+8], 4
  000dc	85 c9		 test	 ecx, ecx
  000de	0f 84 e2 21 00
	00		 je	 $LN655@CreateNorm
  000e4	e8 00 00 00 00	 call	 ??0ioRestorationBuff@@QAE@XZ ; ioRestorationBuff::ioRestorationBuff
  000e9	e9 da 21 00 00	 jmp	 $LN656@CreateNorm
$LN213@CreateNorm:

; 166  : 		break;
; 167  : 	case BT_FLYING_CONTRAL:
; 168  : 		pBuff = new ioFlyBuff;

  000ee	68 b4 0a 00 00	 push	 2740			; 00000ab4H
  000f3	e8 00 00 00 00	 call	 ??2@YAPAXI@Z		; operator new
  000f8	59		 pop	 ecx
  000f9	8b c8		 mov	 ecx, eax
  000fb	89 4d 08	 mov	 DWORD PTR $T529311[ebp], ecx
  000fe	c7 45 fc 05 00
	00 00		 mov	 DWORD PTR __$EHRec$[ebp+8], 5
  00105	85 c9		 test	 ecx, ecx
  00107	0f 84 b9 21 00
	00		 je	 $LN655@CreateNorm
  0010d	e8 00 00 00 00	 call	 ??0ioFlyBuff@@QAE@XZ	; ioFlyBuff::ioFlyBuff
  00112	e9 b1 21 00 00	 jmp	 $LN656@CreateNorm
$LN212@CreateNorm:

; 169  : 		break;
; 170  : 	case BT_FLAME_STATUE:
; 171  : 		pBuff = new ioBurnBuff;

  00117	68 a0 09 00 00	 push	 2464			; 000009a0H
  0011c	e8 00 00 00 00	 call	 ??2@YAPAXI@Z		; operator new
  00121	59		 pop	 ecx
  00122	8b c8		 mov	 ecx, eax
  00124	89 4d 08	 mov	 DWORD PTR $T529315[ebp], ecx
  00127	c7 45 fc 06 00
	00 00		 mov	 DWORD PTR __$EHRec$[ebp+8], 6
  0012e	85 c9		 test	 ecx, ecx
  00130	0f 84 90 21 00
	00		 je	 $LN655@CreateNorm
  00136	e8 00 00 00 00	 call	 ??0ioBurnBuff@@QAE@XZ	; ioBurnBuff::ioBurnBuff
  0013b	e9 88 21 00 00	 jmp	 $LN656@CreateNorm
$LN211@CreateNorm:

; 172  : 		break;
; 173  : 	case BT_FROZEN_STATUE:
; 174  : 		pBuff = new ioFrozenBuff;

  00140	68 b4 09 00 00	 push	 2484			; 000009b4H
  00145	e8 00 00 00 00	 call	 ??2@YAPAXI@Z		; operator new
  0014a	59		 pop	 ecx
  0014b	8b c8		 mov	 ecx, eax
  0014d	89 4d 08	 mov	 DWORD PTR $T529319[ebp], ecx
  00150	c7 45 fc 07 00
	00 00		 mov	 DWORD PTR __$EHRec$[ebp+8], 7
  00157	85 c9		 test	 ecx, ecx
  00159	0f 84 67 21 00
	00		 je	 $LN655@CreateNorm
  0015f	e8 00 00 00 00	 call	 ??0ioFrozenBuff@@QAE@XZ	; ioFrozenBuff::ioFrozenBuff
  00164	e9 5f 21 00 00	 jmp	 $LN656@CreateNorm
$LN210@CreateNorm:

; 175  : 		break;
; 176  : 	case BT_STUN_STATUE:
; 177  : 		pBuff = new ioStunBuff;

  00169	68 d4 09 00 00	 push	 2516			; 000009d4H
  0016e	e8 00 00 00 00	 call	 ??2@YAPAXI@Z		; operator new
  00173	59		 pop	 ecx
  00174	8b c8		 mov	 ecx, eax
  00176	89 4d 08	 mov	 DWORD PTR $T529323[ebp], ecx
  00179	c7 45 fc 08 00
	00 00		 mov	 DWORD PTR __$EHRec$[ebp+8], 8
  00180	85 c9		 test	 ecx, ecx
  00182	0f 84 3e 21 00
	00		 je	 $LN655@CreateNorm
  00188	e8 00 00 00 00	 call	 ??0ioStunBuff@@QAE@XZ	; ioStunBuff::ioStunBuff
  0018d	e9 36 21 00 00	 jmp	 $LN656@CreateNorm
$LN209@CreateNorm:

; 178  : 		break;
; 179  : 	case BT_TOXIC_STATUE:
; 180  : 		pBuff = new ioPoisoningBuff;

  00192	68 bc 0a 00 00	 push	 2748			; 00000abcH
  00197	e8 00 00 00 00	 call	 ??2@YAPAXI@Z		; operator new
  0019c	59		 pop	 ecx
  0019d	8b c8		 mov	 ecx, eax
  0019f	89 4d 08	 mov	 DWORD PTR $T529327[ebp], ecx
  001a2	c7 45 fc 09 00
	00 00		 mov	 DWORD PTR __$EHRec$[ebp+8], 9
  001a9	85 c9		 test	 ecx, ecx
  001ab	0f 84 15 21 00
	00		 je	 $LN655@CreateNorm
  001b1	e8 00 00 00 00	 call	 ??0ioPoisoningBuff@@QAE@XZ ; ioPoisoningBuff::ioPoisoningBuff
  001b6	e9 0d 21 00 00	 jmp	 $LN656@CreateNorm
$LN208@CreateNorm:

; 181  : 		break;
; 182  : 	case BT_STAT_ENHANCE:
; 183  : 		pBuff = new ioStatEnhanceBuff;

  001bb	68 2c 0a 00 00	 push	 2604			; 00000a2cH
  001c0	e8 00 00 00 00	 call	 ??2@YAPAXI@Z		; operator new
  001c5	59		 pop	 ecx
  001c6	8b c8		 mov	 ecx, eax
  001c8	89 4d 08	 mov	 DWORD PTR $T529331[ebp], ecx
  001cb	c7 45 fc 0a 00
	00 00		 mov	 DWORD PTR __$EHRec$[ebp+8], 10 ; 0000000aH
  001d2	85 c9		 test	 ecx, ecx
  001d4	0f 84 ec 20 00
	00		 je	 $LN655@CreateNorm
  001da	e8 00 00 00 00	 call	 ??0ioStatEnhanceBuff@@QAE@XZ ; ioStatEnhanceBuff::ioStatEnhanceBuff
  001df	e9 e4 20 00 00	 jmp	 $LN656@CreateNorm
$LN207@CreateNorm:

; 184  : 		break;
; 185  : 	case BT_PROTECTION:
; 186  : 		pBuff = new ioProtectionBuff;

  001e4	68 94 09 00 00	 push	 2452			; 00000994H
  001e9	e8 00 00 00 00	 call	 ??2@YAPAXI@Z		; operator new
  001ee	59		 pop	 ecx
  001ef	8b c8		 mov	 ecx, eax
  001f1	89 4d 08	 mov	 DWORD PTR $T529335[ebp], ecx
  001f4	c7 45 fc 0b 00
	00 00		 mov	 DWORD PTR __$EHRec$[ebp+8], 11 ; 0000000bH
  001fb	85 c9		 test	 ecx, ecx
  001fd	0f 84 c3 20 00
	00		 je	 $LN655@CreateNorm
  00203	e8 00 00 00 00	 call	 ??0ioProtectionBuff@@QAE@XZ ; ioProtectionBuff::ioProtectionBuff
  00208	e9 bb 20 00 00	 jmp	 $LN656@CreateNorm
$LN206@CreateNorm:

; 187  : 		break;
; 188  : 	case BT_PUSH_BACK:
; 189  : 		pBuff = new ioPushBackBuff;

  0020d	68 84 09 00 00	 push	 2436			; 00000984H
  00212	e8 00 00 00 00	 call	 ??2@YAPAXI@Z		; operator new
  00217	59		 pop	 ecx
  00218	8b c8		 mov	 ecx, eax
  0021a	89 4d 08	 mov	 DWORD PTR $T529339[ebp], ecx
  0021d	c7 45 fc 0c 00
	00 00		 mov	 DWORD PTR __$EHRec$[ebp+8], 12 ; 0000000cH
  00224	85 c9		 test	 ecx, ecx
  00226	0f 84 9a 20 00
	00		 je	 $LN655@CreateNorm
  0022c	e8 00 00 00 00	 call	 ??0ioPushBackBuff@@QAE@XZ ; ioPushBackBuff::ioPushBackBuff
  00231	e9 92 20 00 00	 jmp	 $LN656@CreateNorm
$LN205@CreateNorm:

; 190  : 		break;
; 191  : 	case BT_DURATION_SCALE:
; 192  : 		pBuff = new ioDurationScaleBuff;

  00236	68 78 09 00 00	 push	 2424			; 00000978H
  0023b	e8 00 00 00 00	 call	 ??2@YAPAXI@Z		; operator new
  00240	59		 pop	 ecx
  00241	8b c8		 mov	 ecx, eax
  00243	89 4d 08	 mov	 DWORD PTR $T529343[ebp], ecx
  00246	c7 45 fc 0d 00
	00 00		 mov	 DWORD PTR __$EHRec$[ebp+8], 13 ; 0000000dH
  0024d	85 c9		 test	 ecx, ecx
  0024f	0f 84 71 20 00
	00		 je	 $LN655@CreateNorm
  00255	e8 00 00 00 00	 call	 ??0ioDurationScaleBuff@@QAE@XZ ; ioDurationScaleBuff::ioDurationScaleBuff
  0025a	e9 69 20 00 00	 jmp	 $LN656@CreateNorm
$LN204@CreateNorm:

; 193  : 		break;
; 194  : 	case BT_POTION:
; 195  : 		pBuff = new ioPotionBuff;

  0025f	68 ec 0a 00 00	 push	 2796			; 00000aecH
  00264	e8 00 00 00 00	 call	 ??2@YAPAXI@Z		; operator new
  00269	59		 pop	 ecx
  0026a	8b c8		 mov	 ecx, eax
  0026c	89 4d 08	 mov	 DWORD PTR $T529347[ebp], ecx
  0026f	c7 45 fc 0e 00
	00 00		 mov	 DWORD PTR __$EHRec$[ebp+8], 14 ; 0000000eH
  00276	85 c9		 test	 ecx, ecx
  00278	0f 84 48 20 00
	00		 je	 $LN655@CreateNorm
  0027e	e8 00 00 00 00	 call	 ??0ioPotionBuff@@QAE@XZ	; ioPotionBuff::ioPotionBuff
  00283	e9 40 20 00 00	 jmp	 $LN656@CreateNorm
$LN203@CreateNorm:

; 196  : 		break;
; 197  : 	case BT_REFLECT:
; 198  : 		pBuff = new ioReflectBuff;

  00288	68 f0 09 00 00	 push	 2544			; 000009f0H
  0028d	e8 00 00 00 00	 call	 ??2@YAPAXI@Z		; operator new
  00292	59		 pop	 ecx
  00293	8b c8		 mov	 ecx, eax
  00295	89 4d 08	 mov	 DWORD PTR $T529351[ebp], ecx
  00298	c7 45 fc 0f 00
	00 00		 mov	 DWORD PTR __$EHRec$[ebp+8], 15 ; 0000000fH
  0029f	85 c9		 test	 ecx, ecx
  002a1	0f 84 1f 20 00
	00		 je	 $LN655@CreateNorm
  002a7	e8 00 00 00 00	 call	 ??0ioReflectBuff@@QAE@XZ ; ioReflectBuff::ioReflectBuff
  002ac	e9 17 20 00 00	 jmp	 $LN656@CreateNorm
$LN202@CreateNorm:

; 199  : 		break;
; 200  : 	case BT_KING_SCALE:
; 201  : 		pBuff = new ioKingScaleBuff;

  002b1	68 e8 09 00 00	 push	 2536			; 000009e8H
  002b6	e8 00 00 00 00	 call	 ??2@YAPAXI@Z		; operator new
  002bb	59		 pop	 ecx
  002bc	8b c8		 mov	 ecx, eax
  002be	89 4d 08	 mov	 DWORD PTR $T529355[ebp], ecx
  002c1	c7 45 fc 10 00
	00 00		 mov	 DWORD PTR __$EHRec$[ebp+8], 16 ; 00000010H
  002c8	85 c9		 test	 ecx, ecx
  002ca	0f 84 f6 1f 00
	00		 je	 $LN655@CreateNorm
  002d0	e8 00 00 00 00	 call	 ??0ioKingScaleBuff@@QAE@XZ ; ioKingScaleBuff::ioKingScaleBuff
  002d5	e9 ee 1f 00 00	 jmp	 $LN656@CreateNorm
$LN201@CreateNorm:

; 202  : 		break;
; 203  : 	case BT_RECOVERY_GAUGE:
; 204  : 		pBuff = new ioRecoveryGaugeBuff;

  002da	68 74 09 00 00	 push	 2420			; 00000974H
  002df	e8 00 00 00 00	 call	 ??2@YAPAXI@Z		; operator new
  002e4	59		 pop	 ecx
  002e5	8b c8		 mov	 ecx, eax
  002e7	89 4d 08	 mov	 DWORD PTR $T529359[ebp], ecx
  002ea	c7 45 fc 11 00
	00 00		 mov	 DWORD PTR __$EHRec$[ebp+8], 17 ; 00000011H
  002f1	85 c9		 test	 ecx, ecx
  002f3	0f 84 cd 1f 00
	00		 je	 $LN655@CreateNorm
  002f9	e8 00 00 00 00	 call	 ??0ioRecoveryGaugeBuff@@QAE@XZ ; ioRecoveryGaugeBuff::ioRecoveryGaugeBuff
  002fe	e9 c5 1f 00 00	 jmp	 $LN656@CreateNorm
$LN200@CreateNorm:

; 205  : 		break;
; 206  : 	case BT_RESTORATION_GAUGE:
; 207  : 		pBuff = new ioRestorationGaugeBuff;

  00303	68 e4 0b 00 00	 push	 3044			; 00000be4H
  00308	e8 00 00 00 00	 call	 ??2@YAPAXI@Z		; operator new
  0030d	59		 pop	 ecx
  0030e	8b c8		 mov	 ecx, eax
  00310	89 4d 08	 mov	 DWORD PTR $T529363[ebp], ecx
  00313	c7 45 fc 12 00
	00 00		 mov	 DWORD PTR __$EHRec$[ebp+8], 18 ; 00000012H
  0031a	85 c9		 test	 ecx, ecx
  0031c	0f 84 a4 1f 00
	00		 je	 $LN655@CreateNorm
  00322	e8 00 00 00 00	 call	 ??0ioRestorationGaugeBuff@@QAE@XZ ; ioRestorationGaugeBuff::ioRestorationGaugeBuff
  00327	e9 9c 1f 00 00	 jmp	 $LN656@CreateNorm
$LN199@CreateNorm:

; 208  : 		break;
; 209  : 	case BT_CAMERA_BUFF:
; 210  : 		pBuff = new ioCameraBuff;

  0032c	68 80 09 00 00	 push	 2432			; 00000980H
  00331	e8 00 00 00 00	 call	 ??2@YAPAXI@Z		; operator new
  00336	59		 pop	 ecx
  00337	8b c8		 mov	 ecx, eax
  00339	89 4d 08	 mov	 DWORD PTR $T529367[ebp], ecx
  0033c	c7 45 fc 13 00
	00 00		 mov	 DWORD PTR __$EHRec$[ebp+8], 19 ; 00000013H
  00343	85 c9		 test	 ecx, ecx
  00345	0f 84 7b 1f 00
	00		 je	 $LN655@CreateNorm
  0034b	e8 00 00 00 00	 call	 ??0ioCameraBuff@@QAE@XZ	; ioCameraBuff::ioCameraBuff
  00350	e9 73 1f 00 00	 jmp	 $LN656@CreateNorm
$LN198@CreateNorm:

; 211  : 		break;
; 212  : 	case BT_CATCH_BUFF:
; 213  : 		pBuff = new ioCatchBuff;

  00355	68 b0 09 00 00	 push	 2480			; 000009b0H
  0035a	e8 00 00 00 00	 call	 ??2@YAPAXI@Z		; operator new
  0035f	59		 pop	 ecx
  00360	8b c8		 mov	 ecx, eax
  00362	89 4d 08	 mov	 DWORD PTR $T529371[ebp], ecx
  00365	c7 45 fc 14 00
	00 00		 mov	 DWORD PTR __$EHRec$[ebp+8], 20 ; 00000014H
  0036c	85 c9		 test	 ecx, ecx
  0036e	0f 84 52 1f 00
	00		 je	 $LN655@CreateNorm
  00374	e8 00 00 00 00	 call	 ??0ioCatchBuff@@QAE@XZ	; ioCatchBuff::ioCatchBuff
  00379	e9 4a 1f 00 00	 jmp	 $LN656@CreateNorm
$LN197@CreateNorm:

; 214  : 		break;
; 215  : 	case BT_STEALTH:
; 216  : 		pBuff = new ioStealthBuff;

  0037e	68 6c 09 00 00	 push	 2412			; 0000096cH
  00383	e8 00 00 00 00	 call	 ??2@YAPAXI@Z		; operator new
  00388	59		 pop	 ecx
  00389	8b c8		 mov	 ecx, eax
  0038b	89 4d 08	 mov	 DWORD PTR $T529375[ebp], ecx
  0038e	c7 45 fc 15 00
	00 00		 mov	 DWORD PTR __$EHRec$[ebp+8], 21 ; 00000015H
  00395	85 c9		 test	 ecx, ecx
  00397	0f 84 29 1f 00
	00		 je	 $LN655@CreateNorm
  0039d	e8 00 00 00 00	 call	 ??0ioStealthBuff@@QAE@XZ ; ioStealthBuff::ioStealthBuff
  003a2	e9 21 1f 00 00	 jmp	 $LN656@CreateNorm
$LN196@CreateNorm:

; 217  : 		break;
; 218  : 	case BT_HIDE:
; 219  : 		pBuff = new ioHideBuff;

  003a7	68 a8 09 00 00	 push	 2472			; 000009a8H
  003ac	e8 00 00 00 00	 call	 ??2@YAPAXI@Z		; operator new
  003b1	59		 pop	 ecx
  003b2	8b c8		 mov	 ecx, eax
  003b4	89 4d 08	 mov	 DWORD PTR $T529379[ebp], ecx
  003b7	c7 45 fc 16 00
	00 00		 mov	 DWORD PTR __$EHRec$[ebp+8], 22 ; 00000016H
  003be	85 c9		 test	 ecx, ecx
  003c0	0f 84 00 1f 00
	00		 je	 $LN655@CreateNorm
  003c6	e8 00 00 00 00	 call	 ??0ioHideBuff@@QAE@XZ	; ioHideBuff::ioHideBuff
  003cb	e9 f8 1e 00 00	 jmp	 $LN656@CreateNorm
$LN195@CreateNorm:

; 220  : 		break;
; 221  : 	case BT_WEAK_BOMB:
; 222  : 		pBuff = new ioWeakBombBuff;

  003d0	68 74 09 00 00	 push	 2420			; 00000974H
  003d5	e8 00 00 00 00	 call	 ??2@YAPAXI@Z		; operator new
  003da	59		 pop	 ecx
  003db	8b c8		 mov	 ecx, eax
  003dd	89 4d 08	 mov	 DWORD PTR $T529383[ebp], ecx
  003e0	c7 45 fc 17 00
	00 00		 mov	 DWORD PTR __$EHRec$[ebp+8], 23 ; 00000017H
  003e7	85 c9		 test	 ecx, ecx
  003e9	0f 84 d7 1e 00
	00		 je	 $LN655@CreateNorm
  003ef	e8 00 00 00 00	 call	 ??0ioWeakBombBuff@@QAE@XZ ; ioWeakBombBuff::ioWeakBombBuff
  003f4	e9 cf 1e 00 00	 jmp	 $LN656@CreateNorm
$LN194@CreateNorm:

; 223  : 		break;
; 224  : 	case BT_WEAK_MAGIC:
; 225  : 		pBuff = new ioWeakMagicBuff;

  003f9	68 7c 09 00 00	 push	 2428			; 0000097cH
  003fe	e8 00 00 00 00	 call	 ??2@YAPAXI@Z		; operator new
  00403	59		 pop	 ecx
  00404	8b c8		 mov	 ecx, eax
  00406	89 4d 08	 mov	 DWORD PTR $T529387[ebp], ecx
  00409	c7 45 fc 18 00
	00 00		 mov	 DWORD PTR __$EHRec$[ebp+8], 24 ; 00000018H
  00410	85 c9		 test	 ecx, ecx
  00412	0f 84 ae 1e 00
	00		 je	 $LN655@CreateNorm
  00418	e8 00 00 00 00	 call	 ??0ioWeakMagicBuff@@QAE@XZ ; ioWeakMagicBuff::ioWeakMagicBuff
  0041d	e9 a6 1e 00 00	 jmp	 $LN656@CreateNorm
$LN193@CreateNorm:

; 226  : 		break;
; 227  : 	case BT_GAUGE_CLEAR:
; 228  : 		pBuff = new ioGaugeClearBuff;

  00422	68 8c 09 00 00	 push	 2444			; 0000098cH
  00427	e8 00 00 00 00	 call	 ??2@YAPAXI@Z		; operator new
  0042c	59		 pop	 ecx
  0042d	8b c8		 mov	 ecx, eax
  0042f	89 4d 08	 mov	 DWORD PTR $T529391[ebp], ecx
  00432	c7 45 fc 19 00
	00 00		 mov	 DWORD PTR __$EHRec$[ebp+8], 25 ; 00000019H
  00439	85 c9		 test	 ecx, ecx
  0043b	0f 84 85 1e 00
	00		 je	 $LN655@CreateNorm
  00441	e8 00 00 00 00	 call	 ??0ioGaugeClearBuff@@QAE@XZ ; ioGaugeClearBuff::ioGaugeClearBuff
  00446	e9 7d 1e 00 00	 jmp	 $LN656@CreateNorm
$LN192@CreateNorm:

; 229  : 		break;
; 230  : 	case BT_FEAR:
; 231  : 		pBuff = new ioFearBuff;

  0044b	68 fc 09 00 00	 push	 2556			; 000009fcH
  00450	e8 00 00 00 00	 call	 ??2@YAPAXI@Z		; operator new
  00455	59		 pop	 ecx
  00456	8b c8		 mov	 ecx, eax
  00458	89 4d 08	 mov	 DWORD PTR $T529395[ebp], ecx
  0045b	c7 45 fc 1a 00
	00 00		 mov	 DWORD PTR __$EHRec$[ebp+8], 26 ; 0000001aH
  00462	85 c9		 test	 ecx, ecx
  00464	0f 84 5c 1e 00
	00		 je	 $LN655@CreateNorm
  0046a	e8 00 00 00 00	 call	 ??0ioFearBuff@@QAE@XZ	; ioFearBuff::ioFearBuff
  0046f	e9 54 1e 00 00	 jmp	 $LN656@CreateNorm
$LN191@CreateNorm:

; 232  : 		break;
; 233  : 	case BT_DOUBLE_JUMP:
; 234  : 		pBuff = new ioDoubleJumpBuff;

  00474	68 b4 0b 00 00	 push	 2996			; 00000bb4H
  00479	e8 00 00 00 00	 call	 ??2@YAPAXI@Z		; operator new
  0047e	59		 pop	 ecx
  0047f	8b c8		 mov	 ecx, eax
  00481	89 4d 08	 mov	 DWORD PTR $T529399[ebp], ecx
  00484	c7 45 fc 1b 00
	00 00		 mov	 DWORD PTR __$EHRec$[ebp+8], 27 ; 0000001bH
  0048b	85 c9		 test	 ecx, ecx
  0048d	0f 84 33 1e 00
	00		 je	 $LN655@CreateNorm
  00493	e8 00 00 00 00	 call	 ??0ioDoubleJumpBuff@@QAE@XZ ; ioDoubleJumpBuff::ioDoubleJumpBuff
  00498	e9 2b 1e 00 00	 jmp	 $LN656@CreateNorm
$LN190@CreateNorm:

; 235  : 		break;
; 236  : 	case BT_ABSOLUTE_PROTECTION:
; 237  : 		pBuff = new ioAbsoluteProtectionBuff;

  0049d	68 80 09 00 00	 push	 2432			; 00000980H
  004a2	e8 00 00 00 00	 call	 ??2@YAPAXI@Z		; operator new
  004a7	59		 pop	 ecx
  004a8	8b c8		 mov	 ecx, eax
  004aa	89 4d 08	 mov	 DWORD PTR $T529403[ebp], ecx
  004ad	c7 45 fc 1c 00
	00 00		 mov	 DWORD PTR __$EHRec$[ebp+8], 28 ; 0000001cH
  004b4	85 c9		 test	 ecx, ecx
  004b6	0f 84 0a 1e 00
	00		 je	 $LN655@CreateNorm
  004bc	e8 00 00 00 00	 call	 ??0ioAbsoluteProtectionBuff@@QAE@XZ ; ioAbsoluteProtectionBuff::ioAbsoluteProtectionBuff
  004c1	e9 02 1e 00 00	 jmp	 $LN656@CreateNorm
$LN189@CreateNorm:

; 238  : 		break;
; 239  : 	case BT_ELETRIC:
; 240  : 		pBuff = new ioEletricBuff;

  004c6	68 e4 09 00 00	 push	 2532			; 000009e4H
  004cb	e8 00 00 00 00	 call	 ??2@YAPAXI@Z		; operator new
  004d0	59		 pop	 ecx
  004d1	8b c8		 mov	 ecx, eax
  004d3	89 4d 08	 mov	 DWORD PTR $T529407[ebp], ecx
  004d6	c7 45 fc 1d 00
	00 00		 mov	 DWORD PTR __$EHRec$[ebp+8], 29 ; 0000001dH
  004dd	85 c9		 test	 ecx, ecx
  004df	0f 84 e1 1d 00
	00		 je	 $LN655@CreateNorm
  004e5	e8 00 00 00 00	 call	 ??0ioEletricBuff@@QAE@XZ ; ioEletricBuff::ioEletricBuff
  004ea	e9 d9 1d 00 00	 jmp	 $LN656@CreateNorm
$LN188@CreateNorm:

; 241  : 		break;
; 242  : 	case BT_MANA_SHIELD:
; 243  : 		pBuff = new ioManaShieldBuff;

  004ef	68 78 09 00 00	 push	 2424			; 00000978H
  004f4	e8 00 00 00 00	 call	 ??2@YAPAXI@Z		; operator new
  004f9	59		 pop	 ecx
  004fa	8b c8		 mov	 ecx, eax
  004fc	89 4d 08	 mov	 DWORD PTR $T529411[ebp], ecx
  004ff	c7 45 fc 1e 00
	00 00		 mov	 DWORD PTR __$EHRec$[ebp+8], 30 ; 0000001eH
  00506	85 c9		 test	 ecx, ecx
  00508	0f 84 b8 1d 00
	00		 je	 $LN655@CreateNorm
  0050e	e8 00 00 00 00	 call	 ??0ioManaShieldBuff@@QAE@XZ ; ioManaShieldBuff::ioManaShieldBuff
  00513	e9 b0 1d 00 00	 jmp	 $LN656@CreateNorm
$LN187@CreateNorm:

; 244  : 		break;
; 245  : 	case BT_WARP:
; 246  : 		pBuff = new ioWarpStateBuff;

  00518	68 bc 09 00 00	 push	 2492			; 000009bcH
  0051d	e8 00 00 00 00	 call	 ??2@YAPAXI@Z		; operator new
  00522	59		 pop	 ecx
  00523	8b c8		 mov	 ecx, eax
  00525	89 4d 08	 mov	 DWORD PTR $T529415[ebp], ecx
  00528	c7 45 fc 1f 00
	00 00		 mov	 DWORD PTR __$EHRec$[ebp+8], 31 ; 0000001fH
  0052f	85 c9		 test	 ecx, ecx
  00531	0f 84 8f 1d 00
	00		 je	 $LN655@CreateNorm
  00537	e8 00 00 00 00	 call	 ??0ioWarpStateBuff@@QAE@XZ ; ioWarpStateBuff::ioWarpStateBuff
  0053c	e9 87 1d 00 00	 jmp	 $LN656@CreateNorm
$LN186@CreateNorm:

; 247  : 		break;
; 248  : 	case BT_CLOSEORDER:
; 249  : 		pBuff = new ioCloseOrderBuff;

  00541	68 34 0a 00 00	 push	 2612			; 00000a34H
  00546	e8 00 00 00 00	 call	 ??2@YAPAXI@Z		; operator new
  0054b	59		 pop	 ecx
  0054c	8b c8		 mov	 ecx, eax
  0054e	89 4d 08	 mov	 DWORD PTR $T529419[ebp], ecx
  00551	c7 45 fc 20 00
	00 00		 mov	 DWORD PTR __$EHRec$[ebp+8], 32 ; 00000020H
  00558	85 c9		 test	 ecx, ecx
  0055a	0f 84 66 1d 00
	00		 je	 $LN655@CreateNorm
  00560	e8 00 00 00 00	 call	 ??0ioCloseOrderBuff@@QAE@XZ ; ioCloseOrderBuff::ioCloseOrderBuff
  00565	e9 5e 1d 00 00	 jmp	 $LN656@CreateNorm
$LN185@CreateNorm:

; 250  : 		break;
; 251  : 	case BT_STATE_PROTECTION:
; 252  : 		pBuff = new ioStateProtectionBuff;

  0056a	68 20 0a 00 00	 push	 2592			; 00000a20H
  0056f	e8 00 00 00 00	 call	 ??2@YAPAXI@Z		; operator new
  00574	59		 pop	 ecx
  00575	8b c8		 mov	 ecx, eax
  00577	89 4d 08	 mov	 DWORD PTR $T529423[ebp], ecx
  0057a	c7 45 fc 21 00
	00 00		 mov	 DWORD PTR __$EHRec$[ebp+8], 33 ; 00000021H
  00581	85 c9		 test	 ecx, ecx
  00583	0f 84 3d 1d 00
	00		 je	 $LN655@CreateNorm
  00589	e8 00 00 00 00	 call	 ??0ioStateProtectionBuff@@QAE@XZ ; ioStateProtectionBuff::ioStateProtectionBuff
  0058e	e9 35 1d 00 00	 jmp	 $LN656@CreateNorm
$LN184@CreateNorm:

; 253  : 		break;
; 254  : 	case BT_FLOAT_BUFF:
; 255  : 		pBuff = new ioFloatBuff;

  00593	68 c8 09 00 00	 push	 2504			; 000009c8H
  00598	e8 00 00 00 00	 call	 ??2@YAPAXI@Z		; operator new
  0059d	59		 pop	 ecx
  0059e	8b c8		 mov	 ecx, eax
  005a0	89 4d 08	 mov	 DWORD PTR $T529427[ebp], ecx
  005a3	c7 45 fc 22 00
	00 00		 mov	 DWORD PTR __$EHRec$[ebp+8], 34 ; 00000022H
  005aa	85 c9		 test	 ecx, ecx
  005ac	0f 84 14 1d 00
	00		 je	 $LN655@CreateNorm
  005b2	e8 00 00 00 00	 call	 ??0ioFloatBuff@@QAE@XZ	; ioFloatBuff::ioFloatBuff
  005b7	e9 0c 1d 00 00	 jmp	 $LN656@CreateNorm
$LN183@CreateNorm:

; 256  : 		break;
; 257  : 	case BT_JUMP_UPDOWN:
; 258  : 		pBuff = new ioJumpPowerRateBuff;

  005bc	68 70 09 00 00	 push	 2416			; 00000970H
  005c1	e8 00 00 00 00	 call	 ??2@YAPAXI@Z		; operator new
  005c6	59		 pop	 ecx
  005c7	8b c8		 mov	 ecx, eax
  005c9	89 4d 08	 mov	 DWORD PTR $T529431[ebp], ecx
  005cc	c7 45 fc 23 00
	00 00		 mov	 DWORD PTR __$EHRec$[ebp+8], 35 ; 00000023H
  005d3	85 c9		 test	 ecx, ecx
  005d5	0f 84 eb 1c 00
	00		 je	 $LN655@CreateNorm
  005db	e8 00 00 00 00	 call	 ??0ioJumpPowerRateBuff@@QAE@XZ ; ioJumpPowerRateBuff::ioJumpPowerRateBuff
  005e0	e9 e3 1c 00 00	 jmp	 $LN656@CreateNorm
$LN182@CreateNorm:

; 259  : 		break;
; 260  : 	case BT_LANDING_RATE:
; 261  : 		pBuff = new ioLandingRateBuff;

  005e5	68 74 09 00 00	 push	 2420			; 00000974H
  005ea	e8 00 00 00 00	 call	 ??2@YAPAXI@Z		; operator new
  005ef	59		 pop	 ecx
  005f0	8b c8		 mov	 ecx, eax
  005f2	89 4d 08	 mov	 DWORD PTR $T529435[ebp], ecx
  005f5	c7 45 fc 24 00
	00 00		 mov	 DWORD PTR __$EHRec$[ebp+8], 36 ; 00000024H
  005fc	85 c9		 test	 ecx, ecx
  005fe	0f 84 c2 1c 00
	00		 je	 $LN655@CreateNorm
  00604	e8 00 00 00 00	 call	 ??0ioLandingRateBuff@@QAE@XZ ; ioLandingRateBuff::ioLandingRateBuff
  00609	e9 ba 1c 00 00	 jmp	 $LN656@CreateNorm
$LN181@CreateNorm:

; 262  : 		break;
; 263  : 	case BT_SCREEN_BLIND:
; 264  : 		pBuff = new ioScreenBlindBuff;

  0060e	68 8c 09 00 00	 push	 2444			; 0000098cH
  00613	e8 00 00 00 00	 call	 ??2@YAPAXI@Z		; operator new
  00618	59		 pop	 ecx
  00619	8b c8		 mov	 ecx, eax
  0061b	89 4d 08	 mov	 DWORD PTR $T529439[ebp], ecx
  0061e	c7 45 fc 25 00
	00 00		 mov	 DWORD PTR __$EHRec$[ebp+8], 37 ; 00000025H
  00625	85 c9		 test	 ecx, ecx
  00627	0f 84 99 1c 00
	00		 je	 $LN655@CreateNorm
  0062d	e8 00 00 00 00	 call	 ??0ioScreenBlindBuff@@QAE@XZ ; ioScreenBlindBuff::ioScreenBlindBuff
  00632	e9 91 1c 00 00	 jmp	 $LN656@CreateNorm
$LN180@CreateNorm:

; 265  : 		break;
; 266  : 	case BT_PUSH_BLOW_ENHANCE:
; 267  : 		pBuff = new ioPushBlowEnhanceBuff;

  00637	68 90 09 00 00	 push	 2448			; 00000990H
  0063c	e8 00 00 00 00	 call	 ??2@YAPAXI@Z		; operator new
  00641	59		 pop	 ecx
  00642	8b c8		 mov	 ecx, eax
  00644	89 4d 08	 mov	 DWORD PTR $T529443[ebp], ecx
  00647	c7 45 fc 26 00
	00 00		 mov	 DWORD PTR __$EHRec$[ebp+8], 38 ; 00000026H
  0064e	85 c9		 test	 ecx, ecx
  00650	0f 84 70 1c 00
	00		 je	 $LN655@CreateNorm
  00656	e8 00 00 00 00	 call	 ??0ioPushBlowEnhanceBuff@@QAE@XZ ; ioPushBlowEnhanceBuff::ioPushBlowEnhanceBuff
  0065b	e9 68 1c 00 00	 jmp	 $LN656@CreateNorm
$LN179@CreateNorm:

; 268  : 		break;
; 269  : 	case BT_BREAK_FALL:
; 270  : 		pBuff = new ioBreakFallBuff;

  00660	68 6c 0a 00 00	 push	 2668			; 00000a6cH
  00665	e8 00 00 00 00	 call	 ??2@YAPAXI@Z		; operator new
  0066a	59		 pop	 ecx
  0066b	8b c8		 mov	 ecx, eax
  0066d	89 4d 08	 mov	 DWORD PTR $T529447[ebp], ecx
  00670	c7 45 fc 27 00
	00 00		 mov	 DWORD PTR __$EHRec$[ebp+8], 39 ; 00000027H
  00677	85 c9		 test	 ecx, ecx
  00679	0f 84 47 1c 00
	00		 je	 $LN655@CreateNorm
  0067f	e8 00 00 00 00	 call	 ??0ioBreakFallBuff@@QAE@XZ ; ioBreakFallBuff::ioBreakFallBuff
  00684	e9 3f 1c 00 00	 jmp	 $LN656@CreateNorm
$LN178@CreateNorm:

; 271  : 		break;
; 272  : 	case BT_BLOW_PUSH_POWER_BUFF:
; 273  : 		pBuff = new ioBlowPushPowerBuff;

  00689	68 e4 09 00 00	 push	 2532			; 000009e4H
  0068e	e8 00 00 00 00	 call	 ??2@YAPAXI@Z		; operator new
  00693	59		 pop	 ecx
  00694	8b c8		 mov	 ecx, eax
  00696	89 4d 08	 mov	 DWORD PTR $T529451[ebp], ecx
  00699	c7 45 fc 28 00
	00 00		 mov	 DWORD PTR __$EHRec$[ebp+8], 40 ; 00000028H
  006a0	85 c9		 test	 ecx, ecx
  006a2	0f 84 1e 1c 00
	00		 je	 $LN655@CreateNorm
  006a8	e8 00 00 00 00	 call	 ??0ioBlowPushPowerBuff@@QAE@XZ ; ioBlowPushPowerBuff::ioBlowPushPowerBuff
  006ad	e9 16 1c 00 00	 jmp	 $LN656@CreateNorm
$LN177@CreateNorm:

; 274  : 		break;
; 275  : 	case BT_HP_CONVERT:
; 276  : 		pBuff = new ioHPConvertBuff;

  006b2	68 2c 0a 00 00	 push	 2604			; 00000a2cH
  006b7	e8 00 00 00 00	 call	 ??2@YAPAXI@Z		; operator new
  006bc	59		 pop	 ecx
  006bd	8b c8		 mov	 ecx, eax
  006bf	89 4d 08	 mov	 DWORD PTR $T529455[ebp], ecx
  006c2	c7 45 fc 29 00
	00 00		 mov	 DWORD PTR __$EHRec$[ebp+8], 41 ; 00000029H
  006c9	85 c9		 test	 ecx, ecx
  006cb	0f 84 f5 1b 00
	00		 je	 $LN655@CreateNorm
  006d1	e8 00 00 00 00	 call	 ??0ioHPConvertBuff@@QAE@XZ ; ioHPConvertBuff::ioHPConvertBuff
  006d6	e9 ed 1b 00 00	 jmp	 $LN656@CreateNorm
$LN176@CreateNorm:

; 277  : 		break;
; 278  : 	case BT_STOP_MOTION:
; 279  : 		pBuff = new ioStopMotionBuff;

  006db	68 a0 09 00 00	 push	 2464			; 000009a0H
  006e0	e8 00 00 00 00	 call	 ??2@YAPAXI@Z		; operator new
  006e5	59		 pop	 ecx
  006e6	8b c8		 mov	 ecx, eax
  006e8	89 4d 08	 mov	 DWORD PTR $T529459[ebp], ecx
  006eb	c7 45 fc 2a 00
	00 00		 mov	 DWORD PTR __$EHRec$[ebp+8], 42 ; 0000002aH
  006f2	85 c9		 test	 ecx, ecx
  006f4	0f 84 cc 1b 00
	00		 je	 $LN655@CreateNorm
  006fa	e8 00 00 00 00	 call	 ??0ioStopMotionBuff@@QAE@XZ ; ioStopMotionBuff::ioStopMotionBuff
  006ff	e9 c4 1b 00 00	 jmp	 $LN656@CreateNorm
$LN175@CreateNorm:

; 280  : 		break;
; 281  : 	case BT_DAMAGE_CONVERT:
; 282  : 		pBuff = new ioDamageConvertBuff;

  00704	68 cc 0a 00 00	 push	 2764			; 00000accH
  00709	e8 00 00 00 00	 call	 ??2@YAPAXI@Z		; operator new
  0070e	59		 pop	 ecx
  0070f	8b c8		 mov	 ecx, eax
  00711	89 4d 08	 mov	 DWORD PTR $T529463[ebp], ecx
  00714	c7 45 fc 2b 00
	00 00		 mov	 DWORD PTR __$EHRec$[ebp+8], 43 ; 0000002bH
  0071b	85 c9		 test	 ecx, ecx
  0071d	0f 84 a3 1b 00
	00		 je	 $LN655@CreateNorm
  00723	e8 00 00 00 00	 call	 ??0ioDamageConvertBuff@@QAE@XZ ; ioDamageConvertBuff::ioDamageConvertBuff
  00728	e9 9b 1b 00 00	 jmp	 $LN656@CreateNorm
$LN174@CreateNorm:

; 283  : 		break;
; 284  : 	case BT_SYSTEM_DAMAGE_RATE:
; 285  : 		pBuff = new ioSystemDamageRateBuff;

  0072d	68 80 09 00 00	 push	 2432			; 00000980H
  00732	e8 00 00 00 00	 call	 ??2@YAPAXI@Z		; operator new
  00737	59		 pop	 ecx
  00738	8b c8		 mov	 ecx, eax
  0073a	89 4d 08	 mov	 DWORD PTR $T529467[ebp], ecx
  0073d	c7 45 fc 2c 00
	00 00		 mov	 DWORD PTR __$EHRec$[ebp+8], 44 ; 0000002cH
  00744	85 c9		 test	 ecx, ecx
  00746	0f 84 7a 1b 00
	00		 je	 $LN655@CreateNorm
  0074c	e8 00 00 00 00	 call	 ??0ioSystemDamageRateBuff@@QAE@XZ ; ioSystemDamageRateBuff::ioSystemDamageRateBuff
  00751	e9 72 1b 00 00	 jmp	 $LN656@CreateNorm
$LN173@CreateNorm:

; 286  : 		break;
; 287  : 	case BT_REVERSE_DIRECTION:
; 288  : 		pBuff = new ioReverseDirectionBuff;

  00756	68 6c 09 00 00	 push	 2412			; 0000096cH
  0075b	e8 00 00 00 00	 call	 ??2@YAPAXI@Z		; operator new
  00760	59		 pop	 ecx
  00761	8b c8		 mov	 ecx, eax
  00763	89 4d 08	 mov	 DWORD PTR $T529471[ebp], ecx
  00766	c7 45 fc 2d 00
	00 00		 mov	 DWORD PTR __$EHRec$[ebp+8], 45 ; 0000002dH
  0076d	85 c9		 test	 ecx, ecx
  0076f	0f 84 51 1b 00
	00		 je	 $LN655@CreateNorm
  00775	e8 00 00 00 00	 call	 ??0ioReverseDirectionBuff@@QAE@XZ ; ioReverseDirectionBuff::ioReverseDirectionBuff
  0077a	e9 49 1b 00 00	 jmp	 $LN656@CreateNorm
$LN172@CreateNorm:

; 289  : 		break;
; 290  : 	case BT_HP_STEAL:
; 291  : 		pBuff = new ioHPStealBuff;

  0077f	68 98 09 00 00	 push	 2456			; 00000998H
  00784	e8 00 00 00 00	 call	 ??2@YAPAXI@Z		; operator new
  00789	59		 pop	 ecx
  0078a	8b c8		 mov	 ecx, eax
  0078c	89 4d 08	 mov	 DWORD PTR $T529475[ebp], ecx
  0078f	c7 45 fc 2e 00
	00 00		 mov	 DWORD PTR __$EHRec$[ebp+8], 46 ; 0000002eH
  00796	85 c9		 test	 ecx, ecx
  00798	0f 84 28 1b 00
	00		 je	 $LN655@CreateNorm
  0079e	e8 00 00 00 00	 call	 ??0ioHPStealBuff@@QAE@XZ ; ioHPStealBuff::ioHPStealBuff
  007a3	e9 20 1b 00 00	 jmp	 $LN656@CreateNorm
$LN171@CreateNorm:

; 292  : 		break;
; 293  : 	case BT_HEAD_SCALE:
; 294  : 		pBuff = new ioHeadScaleBuff;

  007a8	68 78 09 00 00	 push	 2424			; 00000978H
  007ad	e8 00 00 00 00	 call	 ??2@YAPAXI@Z		; operator new
  007b2	59		 pop	 ecx
  007b3	8b c8		 mov	 ecx, eax
  007b5	89 4d 08	 mov	 DWORD PTR $T529479[ebp], ecx
  007b8	c7 45 fc 2f 00
	00 00		 mov	 DWORD PTR __$EHRec$[ebp+8], 47 ; 0000002fH
  007bf	85 c9		 test	 ecx, ecx
  007c1	0f 84 ff 1a 00
	00		 je	 $LN655@CreateNorm
  007c7	e8 00 00 00 00	 call	 ??0ioHeadScaleBuff@@QAE@XZ ; ioHeadScaleBuff::ioHeadScaleBuff
  007cc	e9 f7 1a 00 00	 jmp	 $LN656@CreateNorm
$LN170@CreateNorm:

; 295  : 		break;
; 296  : 	case BT_NOWOUND:
; 297  : 		pBuff = new ioNoWoundBuff;

  007d1	68 2c 0b 00 00	 push	 2860			; 00000b2cH
  007d6	e8 00 00 00 00	 call	 ??2@YAPAXI@Z		; operator new
  007db	59		 pop	 ecx
  007dc	8b c8		 mov	 ecx, eax
  007de	89 4d 08	 mov	 DWORD PTR $T529483[ebp], ecx
  007e1	c7 45 fc 30 00
	00 00		 mov	 DWORD PTR __$EHRec$[ebp+8], 48 ; 00000030H
  007e8	85 c9		 test	 ecx, ecx
  007ea	0f 84 d6 1a 00
	00		 je	 $LN655@CreateNorm
  007f0	e8 00 00 00 00	 call	 ??0ioNoWoundBuff@@QAE@XZ ; ioNoWoundBuff::ioNoWoundBuff
  007f5	e9 ce 1a 00 00	 jmp	 $LN656@CreateNorm
$LN169@CreateNorm:

; 298  : 		break;
; 299  : 	case BT_DISABLE_DASH:
; 300  : 		pBuff = new ioDisableDashBuff;

  007fa	68 80 09 00 00	 push	 2432			; 00000980H
  007ff	e8 00 00 00 00	 call	 ??2@YAPAXI@Z		; operator new
  00804	59		 pop	 ecx
  00805	8b c8		 mov	 ecx, eax
  00807	89 4d 08	 mov	 DWORD PTR $T529487[ebp], ecx
  0080a	c7 45 fc 31 00
	00 00		 mov	 DWORD PTR __$EHRec$[ebp+8], 49 ; 00000031H
  00811	85 c9		 test	 ecx, ecx
  00813	0f 84 ad 1a 00
	00		 je	 $LN655@CreateNorm
  00819	e8 00 00 00 00	 call	 ??0ioDisableDashBuff@@QAE@XZ ; ioDisableDashBuff::ioDisableDashBuff
  0081e	e9 a5 1a 00 00	 jmp	 $LN656@CreateNorm
$LN168@CreateNorm:

; 301  : 		break;
; 302  : 	case BT_CHANGE_MOTION:
; 303  : 		pBuff = new ioChangeMotionBuff;

  00823	68 c4 09 00 00	 push	 2500			; 000009c4H
  00828	e8 00 00 00 00	 call	 ??2@YAPAXI@Z		; operator new
  0082d	59		 pop	 ecx
  0082e	8b c8		 mov	 ecx, eax
  00830	89 4d 08	 mov	 DWORD PTR $T529491[ebp], ecx
  00833	c7 45 fc 32 00
	00 00		 mov	 DWORD PTR __$EHRec$[ebp+8], 50 ; 00000032H
  0083a	85 c9		 test	 ecx, ecx
  0083c	0f 84 84 1a 00
	00		 je	 $LN655@CreateNorm
  00842	e8 00 00 00 00	 call	 ??0ioChangeMotionBuff@@QAE@XZ ; ioChangeMotionBuff::ioChangeMotionBuff
  00847	e9 7c 1a 00 00	 jmp	 $LN656@CreateNorm
$LN167@CreateNorm:

; 304  : 		break;
; 305  : 	case BT_GAUGE_STEAL:
; 306  : 		pBuff = new ioGaugeStealBuff;

  0084c	68 70 09 00 00	 push	 2416			; 00000970H
  00851	e8 00 00 00 00	 call	 ??2@YAPAXI@Z		; operator new
  00856	59		 pop	 ecx
  00857	8b c8		 mov	 ecx, eax
  00859	89 4d 08	 mov	 DWORD PTR $T529495[ebp], ecx
  0085c	c7 45 fc 33 00
	00 00		 mov	 DWORD PTR __$EHRec$[ebp+8], 51 ; 00000033H
  00863	85 c9		 test	 ecx, ecx
  00865	0f 84 5b 1a 00
	00		 je	 $LN655@CreateNorm
  0086b	e8 00 00 00 00	 call	 ??0ioGaugeStealBuff@@QAE@XZ ; ioGaugeStealBuff::ioGaugeStealBuff
  00870	e9 53 1a 00 00	 jmp	 $LN656@CreateNorm
$LN166@CreateNorm:

; 307  : 		break;
; 308  : 	case BT_RETURN_ATTACK:
; 309  : 		pBuff = new ioReturnAttackBuff;

  00875	68 78 09 00 00	 push	 2424			; 00000978H
  0087a	e8 00 00 00 00	 call	 ??2@YAPAXI@Z		; operator new
  0087f	59		 pop	 ecx
  00880	8b c8		 mov	 ecx, eax
  00882	89 4d 08	 mov	 DWORD PTR $T529499[ebp], ecx
  00885	c7 45 fc 34 00
	00 00		 mov	 DWORD PTR __$EHRec$[ebp+8], 52 ; 00000034H
  0088c	85 c9		 test	 ecx, ecx
  0088e	0f 84 32 1a 00
	00		 je	 $LN655@CreateNorm
  00894	e8 00 00 00 00	 call	 ??0ioReturnAttackBuff@@QAE@XZ ; ioReturnAttackBuff::ioReturnAttackBuff
  00899	e9 2a 1a 00 00	 jmp	 $LN656@CreateNorm
$LN165@CreateNorm:

; 310  : 		break;
; 311  : 	case BT_FLOAT_MODE_EVENT_BUFF:
; 312  : 		pBuff = new ioFloatModeEventBuff;

  0089e	68 c8 09 00 00	 push	 2504			; 000009c8H
  008a3	e8 00 00 00 00	 call	 ??2@YAPAXI@Z		; operator new
  008a8	59		 pop	 ecx
  008a9	8b c8		 mov	 ecx, eax
  008ab	89 4d 08	 mov	 DWORD PTR $T529503[ebp], ecx
  008ae	c7 45 fc 35 00
	00 00		 mov	 DWORD PTR __$EHRec$[ebp+8], 53 ; 00000035H
  008b5	85 c9		 test	 ecx, ecx
  008b7	0f 84 09 1a 00
	00		 je	 $LN655@CreateNorm
  008bd	e8 00 00 00 00	 call	 ??0ioFloatModeEventBuff@@QAE@XZ ; ioFloatModeEventBuff::ioFloatModeEventBuff
  008c2	e9 01 1a 00 00	 jmp	 $LN656@CreateNorm
$LN164@CreateNorm:

; 313  : 		break;
; 314  : 	case BT_ACCUMULATE:
; 315  : 		pBuff = new ioAccumulateBuff;

  008c7	68 88 09 00 00	 push	 2440			; 00000988H
  008cc	e8 00 00 00 00	 call	 ??2@YAPAXI@Z		; operator new
  008d1	59		 pop	 ecx
  008d2	8b c8		 mov	 ecx, eax
  008d4	89 4d 08	 mov	 DWORD PTR $T529507[ebp], ecx
  008d7	c7 45 fc 36 00
	00 00		 mov	 DWORD PTR __$EHRec$[ebp+8], 54 ; 00000036H
  008de	85 c9		 test	 ecx, ecx
  008e0	0f 84 e0 19 00
	00		 je	 $LN655@CreateNorm
  008e6	e8 00 00 00 00	 call	 ??0ioAccumulateBuff@@QAE@XZ ; ioAccumulateBuff::ioAccumulateBuff
  008eb	e9 d8 19 00 00	 jmp	 $LN656@CreateNorm
$LN163@CreateNorm:

; 316  : 		break;
; 317  : 	case BT_LIMIT_MOVE:
; 318  : 		pBuff = new ioLimitMoveBuff;

  008f0	68 d4 09 00 00	 push	 2516			; 000009d4H
  008f5	e8 00 00 00 00	 call	 ??2@YAPAXI@Z		; operator new
  008fa	59		 pop	 ecx
  008fb	8b c8		 mov	 ecx, eax
  008fd	89 4d 08	 mov	 DWORD PTR $T529511[ebp], ecx
  00900	c7 45 fc 37 00
	00 00		 mov	 DWORD PTR __$EHRec$[ebp+8], 55 ; 00000037H
  00907	85 c9		 test	 ecx, ecx
  00909	0f 84 b7 19 00
	00		 je	 $LN655@CreateNorm
  0090f	e8 00 00 00 00	 call	 ??0ioLimitMoveBuff@@QAE@XZ ; ioLimitMoveBuff::ioLimitMoveBuff
  00914	e9 af 19 00 00	 jmp	 $LN656@CreateNorm
$LN162@CreateNorm:

; 319  : 		break;
; 320  : 	case BT_BUFF_FLY_JUMP:
; 321  : 		pBuff = new ioFlyJumpBuff;

  00919	68 54 0b 00 00	 push	 2900			; 00000b54H
  0091e	e8 00 00 00 00	 call	 ??2@YAPAXI@Z		; operator new
  00923	59		 pop	 ecx
  00924	8b c8		 mov	 ecx, eax
  00926	89 4d 08	 mov	 DWORD PTR $T529515[ebp], ecx
  00929	c7 45 fc 38 00
	00 00		 mov	 DWORD PTR __$EHRec$[ebp+8], 56 ; 00000038H
  00930	85 c9		 test	 ecx, ecx
  00932	0f 84 8e 19 00
	00		 je	 $LN655@CreateNorm
  00938	e8 00 00 00 00	 call	 ??0ioFlyJumpBuff@@QAE@XZ ; ioFlyJumpBuff::ioFlyJumpBuff
  0093d	e9 86 19 00 00	 jmp	 $LN656@CreateNorm
$LN161@CreateNorm:

; 322  : 		break;
; 323  : 	case BT_DOWN_JUMPPING_BUFF:
; 324  : 		pBuff = new ioDownJumppingBuff;

  00942	68 fc 09 00 00	 push	 2556			; 000009fcH
  00947	e8 00 00 00 00	 call	 ??2@YAPAXI@Z		; operator new
  0094c	59		 pop	 ecx
  0094d	8b c8		 mov	 ecx, eax
  0094f	89 4d 08	 mov	 DWORD PTR $T529519[ebp], ecx
  00952	c7 45 fc 39 00
	00 00		 mov	 DWORD PTR __$EHRec$[ebp+8], 57 ; 00000039H
  00959	85 c9		 test	 ecx, ecx
  0095b	0f 84 65 19 00
	00		 je	 $LN655@CreateNorm
  00961	e8 00 00 00 00	 call	 ??0ioDownJumppingBuff@@QAE@XZ ; ioDownJumppingBuff::ioDownJumppingBuff
  00966	e9 5d 19 00 00	 jmp	 $LN656@CreateNorm
$LN160@CreateNorm:

; 325  : 		break;
; 326  : 	case BT_DEFENSE_BREAK_BUFF:
; 327  : 		pBuff = new ioDefenseBreakBuff;

  0096b	68 70 09 00 00	 push	 2416			; 00000970H
  00970	e8 00 00 00 00	 call	 ??2@YAPAXI@Z		; operator new
  00975	59		 pop	 ecx
  00976	8b c8		 mov	 ecx, eax
  00978	89 4d 08	 mov	 DWORD PTR $T529523[ebp], ecx
  0097b	c7 45 fc 3a 00
	00 00		 mov	 DWORD PTR __$EHRec$[ebp+8], 58 ; 0000003aH
  00982	85 c9		 test	 ecx, ecx
  00984	0f 84 3c 19 00
	00		 je	 $LN655@CreateNorm
  0098a	e8 00 00 00 00	 call	 ??0ioDefenseBreakBuff@@QAE@XZ ; ioDefenseBreakBuff::ioDefenseBreakBuff
  0098f	e9 34 19 00 00	 jmp	 $LN656@CreateNorm
$LN159@CreateNorm:

; 328  : 		break;
; 329  : 	case BT_SELECT_COLLISION_BUFF:
; 330  : 		pBuff = new ioSelectCollisionBuff;

  00994	68 70 09 00 00	 push	 2416			; 00000970H
  00999	e8 00 00 00 00	 call	 ??2@YAPAXI@Z		; operator new
  0099e	59		 pop	 ecx
  0099f	8b c8		 mov	 ecx, eax
  009a1	89 4d 08	 mov	 DWORD PTR $T529527[ebp], ecx
  009a4	c7 45 fc 3b 00
	00 00		 mov	 DWORD PTR __$EHRec$[ebp+8], 59 ; 0000003bH
  009ab	85 c9		 test	 ecx, ecx
  009ad	0f 84 13 19 00
	00		 je	 $LN655@CreateNorm
  009b3	e8 00 00 00 00	 call	 ??0ioSelectCollisionBuff@@QAE@XZ ; ioSelectCollisionBuff::ioSelectCollisionBuff
  009b8	e9 0b 19 00 00	 jmp	 $LN656@CreateNorm
$LN158@CreateNorm:

; 331  : 		break;
; 332  : 	case BT_RANGE_PROTECT_BUFF:
; 333  : 		pBuff = new ioRangeProtectionBuff;

  009bd	68 84 09 00 00	 push	 2436			; 00000984H
  009c2	e8 00 00 00 00	 call	 ??2@YAPAXI@Z		; operator new
  009c7	59		 pop	 ecx
  009c8	8b c8		 mov	 ecx, eax
  009ca	89 4d 08	 mov	 DWORD PTR $T529531[ebp], ecx
  009cd	c7 45 fc 3c 00
	00 00		 mov	 DWORD PTR __$EHRec$[ebp+8], 60 ; 0000003cH
  009d4	85 c9		 test	 ecx, ecx
  009d6	0f 84 ea 18 00
	00		 je	 $LN655@CreateNorm
  009dc	e8 00 00 00 00	 call	 ??0ioRangeProtectionBuff@@QAE@XZ ; ioRangeProtectionBuff::ioRangeProtectionBuff
  009e1	e9 e2 18 00 00	 jmp	 $LN656@CreateNorm
$LN157@CreateNorm:

; 334  : 		break;
; 335  : 	case BT_LIMIT_ACTION:
; 336  : 		pBuff = new ioLimitActionBuff;

  009e6	68 c0 0a 00 00	 push	 2752			; 00000ac0H
  009eb	e8 00 00 00 00	 call	 ??2@YAPAXI@Z		; operator new
  009f0	59		 pop	 ecx
  009f1	8b c8		 mov	 ecx, eax
  009f3	89 4d 08	 mov	 DWORD PTR $T529535[ebp], ecx
  009f6	c7 45 fc 3d 00
	00 00		 mov	 DWORD PTR __$EHRec$[ebp+8], 61 ; 0000003dH
  009fd	85 c9		 test	 ecx, ecx
  009ff	0f 84 c1 18 00
	00		 je	 $LN655@CreateNorm
  00a05	e8 00 00 00 00	 call	 ??0ioLimitActionBuff@@QAE@XZ ; ioLimitActionBuff::ioLimitActionBuff
  00a0a	e9 b9 18 00 00	 jmp	 $LN656@CreateNorm
$LN156@CreateNorm:

; 337  : 		break;
; 338  : 	case BT_CURSE_BUFF:
; 339  : 		pBuff = new ioCurseBuff;

  00a0f	68 a8 09 00 00	 push	 2472			; 000009a8H
  00a14	e8 00 00 00 00	 call	 ??2@YAPAXI@Z		; operator new
  00a19	59		 pop	 ecx
  00a1a	8b c8		 mov	 ecx, eax
  00a1c	89 4d 08	 mov	 DWORD PTR $T529539[ebp], ecx
  00a1f	c7 45 fc 3e 00
	00 00		 mov	 DWORD PTR __$EHRec$[ebp+8], 62 ; 0000003eH
  00a26	85 c9		 test	 ecx, ecx
  00a28	0f 84 98 18 00
	00		 je	 $LN655@CreateNorm
  00a2e	e8 00 00 00 00	 call	 ??0ioCurseBuff@@QAE@XZ	; ioCurseBuff::ioCurseBuff
  00a33	e9 90 18 00 00	 jmp	 $LN656@CreateNorm
$LN155@CreateNorm:

; 340  : 		break;
; 341  : 	case BT_DOWN_ROLLING_BUFF:
; 342  : 		pBuff = new ioDownRollingBuff;

  00a38	68 04 0a 00 00	 push	 2564			; 00000a04H
  00a3d	e8 00 00 00 00	 call	 ??2@YAPAXI@Z		; operator new
  00a42	59		 pop	 ecx
  00a43	8b c8		 mov	 ecx, eax
  00a45	89 4d 08	 mov	 DWORD PTR $T529543[ebp], ecx
  00a48	c7 45 fc 3f 00
	00 00		 mov	 DWORD PTR __$EHRec$[ebp+8], 63 ; 0000003fH
  00a4f	85 c9		 test	 ecx, ecx
  00a51	0f 84 6f 18 00
	00		 je	 $LN655@CreateNorm
  00a57	e8 00 00 00 00	 call	 ??0ioDownRollingBuff@@QAE@XZ ; ioDownRollingBuff::ioDownRollingBuff
  00a5c	e9 67 18 00 00	 jmp	 $LN656@CreateNorm
$LN154@CreateNorm:

; 343  : 		break;
; 344  : 	case BT_FRICTION_UP_DOWN:
; 345  : 		pBuff = new ioFrictionUpDownBuff;

  00a61	68 74 09 00 00	 push	 2420			; 00000974H
  00a66	e8 00 00 00 00	 call	 ??2@YAPAXI@Z		; operator new
  00a6b	59		 pop	 ecx
  00a6c	8b c8		 mov	 ecx, eax
  00a6e	89 4d 08	 mov	 DWORD PTR $T529547[ebp], ecx
  00a71	c7 45 fc 40 00
	00 00		 mov	 DWORD PTR __$EHRec$[ebp+8], 64 ; 00000040H
  00a78	85 c9		 test	 ecx, ecx
  00a7a	0f 84 46 18 00
	00		 je	 $LN655@CreateNorm
  00a80	e8 00 00 00 00	 call	 ??0ioFrictionUpDownBuff@@QAE@XZ ; ioFrictionUpDownBuff::ioFrictionUpDownBuff
  00a85	e9 3e 18 00 00	 jmp	 $LN656@CreateNorm
$LN153@CreateNorm:

; 346  : 		break;
; 347  : 	case BT_FRONT_BACK_WOUND:
; 348  : 		pBuff = new ioFrontBackWoundBuff;

  00a8a	68 58 0a 00 00	 push	 2648			; 00000a58H
  00a8f	e8 00 00 00 00	 call	 ??2@YAPAXI@Z		; operator new
  00a94	59		 pop	 ecx
  00a95	8b c8		 mov	 ecx, eax
  00a97	89 4d 08	 mov	 DWORD PTR $T529551[ebp], ecx
  00a9a	c7 45 fc 41 00
	00 00		 mov	 DWORD PTR __$EHRec$[ebp+8], 65 ; 00000041H
  00aa1	85 c9		 test	 ecx, ecx
  00aa3	0f 84 1d 18 00
	00		 je	 $LN655@CreateNorm
  00aa9	e8 00 00 00 00	 call	 ??0ioFrontBackWoundBuff@@QAE@XZ ; ioFrontBackWoundBuff::ioFrontBackWoundBuff
  00aae	e9 15 18 00 00	 jmp	 $LN656@CreateNorm
$LN152@CreateNorm:

; 349  : 		break;
; 350  : 	case BT_LAND_STUN:
; 351  : 		pBuff = new ioLandStunBuff;

  00ab3	68 94 09 00 00	 push	 2452			; 00000994H
  00ab8	e8 00 00 00 00	 call	 ??2@YAPAXI@Z		; operator new
  00abd	59		 pop	 ecx
  00abe	8b c8		 mov	 ecx, eax
  00ac0	89 4d 08	 mov	 DWORD PTR $T529555[ebp], ecx
  00ac3	c7 45 fc 42 00
	00 00		 mov	 DWORD PTR __$EHRec$[ebp+8], 66 ; 00000042H
  00aca	85 c9		 test	 ecx, ecx
  00acc	0f 84 f4 17 00
	00		 je	 $LN655@CreateNorm
  00ad2	e8 00 00 00 00	 call	 ??0ioLandStunBuff@@QAE@XZ ; ioLandStunBuff::ioLandStunBuff
  00ad7	e9 ec 17 00 00	 jmp	 $LN656@CreateNorm
$LN151@CreateNorm:

; 352  : 		break;
; 353  : 	case BT_AIR_ATTACK:
; 354  : 		pBuff = new ioAirAttackBuff;

  00adc	68 1c 0a 00 00	 push	 2588			; 00000a1cH
  00ae1	e8 00 00 00 00	 call	 ??2@YAPAXI@Z		; operator new
  00ae6	59		 pop	 ecx
  00ae7	8b c8		 mov	 ecx, eax
  00ae9	89 4d 08	 mov	 DWORD PTR $T529559[ebp], ecx
  00aec	c7 45 fc 43 00
	00 00		 mov	 DWORD PTR __$EHRec$[ebp+8], 67 ; 00000043H
  00af3	85 c9		 test	 ecx, ecx
  00af5	0f 84 cb 17 00
	00		 je	 $LN655@CreateNorm
  00afb	e8 00 00 00 00	 call	 ??0ioAirAttackBuff@@QAE@XZ ; ioAirAttackBuff::ioAirAttackBuff
  00b00	e9 c3 17 00 00	 jmp	 $LN656@CreateNorm
$LN150@CreateNorm:

; 355  : 		break;
; 356  : 	case BT_LAND_ROLLING_BUFF:
; 357  : 		pBuff = new ioLandRollingBuff;

  00b05	68 38 0a 00 00	 push	 2616			; 00000a38H
  00b0a	e8 00 00 00 00	 call	 ??2@YAPAXI@Z		; operator new
  00b0f	59		 pop	 ecx
  00b10	8b c8		 mov	 ecx, eax
  00b12	89 4d 08	 mov	 DWORD PTR $T529563[ebp], ecx
  00b15	c7 45 fc 44 00
	00 00		 mov	 DWORD PTR __$EHRec$[ebp+8], 68 ; 00000044H
  00b1c	85 c9		 test	 ecx, ecx
  00b1e	0f 84 a2 17 00
	00		 je	 $LN655@CreateNorm
  00b24	e8 00 00 00 00	 call	 ??0ioLandRollingBuff@@QAE@XZ ; ioLandRollingBuff::ioLandRollingBuff
  00b29	e9 9a 17 00 00	 jmp	 $LN656@CreateNorm
$LN149@CreateNorm:

; 358  : 		break;
; 359  : 	case BT_NOT_MOVE_PROTECT:
; 360  : 		pBuff = new ioNotMoveProtectBuff;

  00b2e	68 a0 09 00 00	 push	 2464			; 000009a0H
  00b33	e8 00 00 00 00	 call	 ??2@YAPAXI@Z		; operator new
  00b38	59		 pop	 ecx
  00b39	8b c8		 mov	 ecx, eax
  00b3b	89 4d 08	 mov	 DWORD PTR $T529567[ebp], ecx
  00b3e	c7 45 fc 45 00
	00 00		 mov	 DWORD PTR __$EHRec$[ebp+8], 69 ; 00000045H
  00b45	85 c9		 test	 ecx, ecx
  00b47	0f 84 79 17 00
	00		 je	 $LN655@CreateNorm
  00b4d	e8 00 00 00 00	 call	 ??0ioNotMoveProtectBuff@@QAE@XZ ; ioNotMoveProtectBuff::ioNotMoveProtectBuff
  00b52	e9 71 17 00 00	 jmp	 $LN656@CreateNorm
$LN148@CreateNorm:

; 361  : 		break;
; 362  : 	case BT_ICE_BUFF:
; 363  : 		pBuff = new ioIceBuff;

  00b57	68 98 09 00 00	 push	 2456			; 00000998H
  00b5c	e8 00 00 00 00	 call	 ??2@YAPAXI@Z		; operator new
  00b61	59		 pop	 ecx
  00b62	8b c8		 mov	 ecx, eax
  00b64	89 4d 08	 mov	 DWORD PTR $T529571[ebp], ecx
  00b67	c7 45 fc 46 00
	00 00		 mov	 DWORD PTR __$EHRec$[ebp+8], 70 ; 00000046H
  00b6e	85 c9		 test	 ecx, ecx
  00b70	0f 84 50 17 00
	00		 je	 $LN655@CreateNorm
  00b76	e8 00 00 00 00	 call	 ??0ioIceBuff@@QAE@XZ	; ioIceBuff::ioIceBuff
  00b7b	e9 48 17 00 00	 jmp	 $LN656@CreateNorm
$LN147@CreateNorm:

; 364  : 		break;
; 365  : 	case BT_DUMMY_BUFF:
; 366  : 		pBuff = new ioDummyBuff;

  00b80	68 8c 0a 00 00	 push	 2700			; 00000a8cH
  00b85	e8 00 00 00 00	 call	 ??2@YAPAXI@Z		; operator new
  00b8a	59		 pop	 ecx
  00b8b	8b c8		 mov	 ecx, eax
  00b8d	89 4d 08	 mov	 DWORD PTR $T529575[ebp], ecx
  00b90	c7 45 fc 47 00
	00 00		 mov	 DWORD PTR __$EHRec$[ebp+8], 71 ; 00000047H
  00b97	85 c9		 test	 ecx, ecx
  00b99	0f 84 27 17 00
	00		 je	 $LN655@CreateNorm
  00b9f	e8 00 00 00 00	 call	 ??0ioDummyBuff@@QAE@XZ	; ioDummyBuff::ioDummyBuff
  00ba4	e9 1f 17 00 00	 jmp	 $LN656@CreateNorm
$LN146@CreateNorm:

; 367  : 		break;
; 368  : 	case BT_SKIP_STUN:
; 369  : 		pBuff = new ioSkipStunBuff;

  00ba9	68 f4 09 00 00	 push	 2548			; 000009f4H
  00bae	e8 00 00 00 00	 call	 ??2@YAPAXI@Z		; operator new
  00bb3	59		 pop	 ecx
  00bb4	8b c8		 mov	 ecx, eax
  00bb6	89 4d 08	 mov	 DWORD PTR $T529579[ebp], ecx
  00bb9	c7 45 fc 48 00
	00 00		 mov	 DWORD PTR __$EHRec$[ebp+8], 72 ; 00000048H
  00bc0	85 c9		 test	 ecx, ecx
  00bc2	0f 84 fe 16 00
	00		 je	 $LN655@CreateNorm
  00bc8	e8 00 00 00 00	 call	 ??0ioSkipStunBuff@@QAE@XZ ; ioSkipStunBuff::ioSkipStunBuff
  00bcd	e9 f6 16 00 00	 jmp	 $LN656@CreateNorm
$LN145@CreateNorm:

; 370  : 		break;
; 371  : 	case BT_WOUND_COLOR_CHANGE:
; 372  : 		pBuff = new ioWoundColorChangeBuff;

  00bd2	68 74 09 00 00	 push	 2420			; 00000974H
  00bd7	e8 00 00 00 00	 call	 ??2@YAPAXI@Z		; operator new
  00bdc	59		 pop	 ecx
  00bdd	8b c8		 mov	 ecx, eax
  00bdf	89 4d 08	 mov	 DWORD PTR $T529583[ebp], ecx
  00be2	c7 45 fc 49 00
	00 00		 mov	 DWORD PTR __$EHRec$[ebp+8], 73 ; 00000049H
  00be9	85 c9		 test	 ecx, ecx
  00beb	0f 84 d5 16 00
	00		 je	 $LN655@CreateNorm
  00bf1	e8 00 00 00 00	 call	 ??0ioWoundColorChangeBuff@@QAE@XZ ; ioWoundColorChangeBuff::ioWoundColorChangeBuff
  00bf6	e9 cd 16 00 00	 jmp	 $LN656@CreateNorm
$LN144@CreateNorm:

; 373  : 		break;
; 374  : 	case BT_CHANGE_MOVE_SPEED:
; 375  : 		pBuff = new ioChangeMoveSpeedBuff;

  00bfb	68 94 0a 00 00	 push	 2708			; 00000a94H
  00c00	e8 00 00 00 00	 call	 ??2@YAPAXI@Z		; operator new
  00c05	59		 pop	 ecx
  00c06	8b c8		 mov	 ecx, eax
  00c08	89 4d 08	 mov	 DWORD PTR $T529587[ebp], ecx
  00c0b	c7 45 fc 4a 00
	00 00		 mov	 DWORD PTR __$EHRec$[ebp+8], 74 ; 0000004aH
  00c12	85 c9		 test	 ecx, ecx
  00c14	0f 84 ac 16 00
	00		 je	 $LN655@CreateNorm
  00c1a	e8 00 00 00 00	 call	 ??0ioChangeMoveSpeedBuff@@QAE@XZ ; ioChangeMoveSpeedBuff::ioChangeMoveSpeedBuff
  00c1f	e9 a4 16 00 00	 jmp	 $LN656@CreateNorm
$LN143@CreateNorm:

; 376  : 		break;
; 377  : 	case BT_STOP_PASSIVE:
; 378  : 		pBuff = new ioStopPassiveBuff;

  00c24	68 94 09 00 00	 push	 2452			; 00000994H
  00c29	e8 00 00 00 00	 call	 ??2@YAPAXI@Z		; operator new
  00c2e	59		 pop	 ecx
  00c2f	8b c8		 mov	 ecx, eax
  00c31	89 4d 08	 mov	 DWORD PTR $T529591[ebp], ecx
  00c34	c7 45 fc 4b 00
	00 00		 mov	 DWORD PTR __$EHRec$[ebp+8], 75 ; 0000004bH
  00c3b	85 c9		 test	 ecx, ecx
  00c3d	0f 84 83 16 00
	00		 je	 $LN655@CreateNorm
  00c43	e8 00 00 00 00	 call	 ??0ioStopPassiveBuff@@QAE@XZ ; ioStopPassiveBuff::ioStopPassiveBuff
  00c48	e9 7b 16 00 00	 jmp	 $LN656@CreateNorm
$LN142@CreateNorm:

; 379  : 		break;
; 380  : 	case BT_ADD_SPECIAL_GAUGE:
; 381  : 		pBuff = new ioSpecialGaugeBuff;

  00c4d	68 a0 09 00 00	 push	 2464			; 000009a0H
  00c52	e8 00 00 00 00	 call	 ??2@YAPAXI@Z		; operator new
  00c57	59		 pop	 ecx
  00c58	8b c8		 mov	 ecx, eax
  00c5a	89 4d 08	 mov	 DWORD PTR $T529595[ebp], ecx
  00c5d	c7 45 fc 4c 00
	00 00		 mov	 DWORD PTR __$EHRec$[ebp+8], 76 ; 0000004cH
  00c64	85 c9		 test	 ecx, ecx
  00c66	0f 84 5a 16 00
	00		 je	 $LN655@CreateNorm
  00c6c	e8 00 00 00 00	 call	 ??0ioSpecialGaugeBuff@@QAE@XZ ; ioSpecialGaugeBuff::ioSpecialGaugeBuff
  00c71	e9 52 16 00 00	 jmp	 $LN656@CreateNorm
$LN141@CreateNorm:

; 382  : 		break;
; 383  : 	case BT_REFUD_GAUGE:
; 384  : 		pBuff = new ioRefudBuff;

  00c76	68 9c 09 00 00	 push	 2460			; 0000099cH
  00c7b	e8 00 00 00 00	 call	 ??2@YAPAXI@Z		; operator new
  00c80	59		 pop	 ecx
  00c81	8b c8		 mov	 ecx, eax
  00c83	89 4d 08	 mov	 DWORD PTR $T529599[ebp], ecx
  00c86	c7 45 fc 4d 00
	00 00		 mov	 DWORD PTR __$EHRec$[ebp+8], 77 ; 0000004dH
  00c8d	85 c9		 test	 ecx, ecx
  00c8f	0f 84 31 16 00
	00		 je	 $LN655@CreateNorm
  00c95	e8 00 00 00 00	 call	 ??0ioRefudBuff@@QAE@XZ	; ioRefudBuff::ioRefudBuff
  00c9a	e9 29 16 00 00	 jmp	 $LN656@CreateNorm
$LN140@CreateNorm:

; 385  : 		break;
; 386  : 	case BT_PREVENT_DROP_ITEM:
; 387  : 		pBuff = new ioPreventDropItemBuff;

  00c9f	68 70 09 00 00	 push	 2416			; 00000970H
  00ca4	e8 00 00 00 00	 call	 ??2@YAPAXI@Z		; operator new
  00ca9	59		 pop	 ecx
  00caa	8b c8		 mov	 ecx, eax
  00cac	89 4d 08	 mov	 DWORD PTR $T529603[ebp], ecx
  00caf	c7 45 fc 4e 00
	00 00		 mov	 DWORD PTR __$EHRec$[ebp+8], 78 ; 0000004eH
  00cb6	85 c9		 test	 ecx, ecx
  00cb8	0f 84 08 16 00
	00		 je	 $LN655@CreateNorm
  00cbe	e8 00 00 00 00	 call	 ??0ioPreventDropItemBuff@@QAE@XZ ; ioPreventDropItemBuff::ioPreventDropItemBuff
  00cc3	e9 00 16 00 00	 jmp	 $LN656@CreateNorm
$LN139@CreateNorm:

; 388  : 		break;
; 389  : 	case BT_CHANGE_SKIN_COLOR:
; 390  : 		pBuff = new ioChangeSkinColorBuff;

  00cc8	68 d0 09 00 00	 push	 2512			; 000009d0H
  00ccd	e8 00 00 00 00	 call	 ??2@YAPAXI@Z		; operator new
  00cd2	59		 pop	 ecx
  00cd3	8b c8		 mov	 ecx, eax
  00cd5	89 4d 08	 mov	 DWORD PTR $T529607[ebp], ecx
  00cd8	c7 45 fc 4f 00
	00 00		 mov	 DWORD PTR __$EHRec$[ebp+8], 79 ; 0000004fH
  00cdf	85 c9		 test	 ecx, ecx
  00ce1	0f 84 df 15 00
	00		 je	 $LN655@CreateNorm
  00ce7	e8 00 00 00 00	 call	 ??0ioChangeSkinColorBuff@@QAE@XZ ; ioChangeSkinColorBuff::ioChangeSkinColorBuff
  00cec	e9 d7 15 00 00	 jmp	 $LN656@CreateNorm
$LN138@CreateNorm:

; 391  : 		break;
; 392  : 	case BT_ENABLE_WOUND_STUN_STATUE:
; 393  : 		pBuff = new ioEnableWoundStunBuff;

  00cf1	68 94 09 00 00	 push	 2452			; 00000994H
  00cf6	e8 00 00 00 00	 call	 ??2@YAPAXI@Z		; operator new
  00cfb	59		 pop	 ecx
  00cfc	8b c8		 mov	 ecx, eax
  00cfe	89 4d 08	 mov	 DWORD PTR $T529611[ebp], ecx
  00d01	c7 45 fc 50 00
	00 00		 mov	 DWORD PTR __$EHRec$[ebp+8], 80 ; 00000050H
  00d08	85 c9		 test	 ecx, ecx
  00d0a	0f 84 b6 15 00
	00		 je	 $LN655@CreateNorm
  00d10	e8 00 00 00 00	 call	 ??0ioEnableWoundStunBuff@@QAE@XZ ; ioEnableWoundStunBuff::ioEnableWoundStunBuff
  00d15	e9 ae 15 00 00	 jmp	 $LN656@CreateNorm
$LN137@CreateNorm:

; 394  : 		break;
; 395  : 	case BT_PULL_BUFF:
; 396  : 		pBuff = new ioPullBuff;

  00d1a	68 74 0a 00 00	 push	 2676			; 00000a74H
  00d1f	e8 00 00 00 00	 call	 ??2@YAPAXI@Z		; operator new
  00d24	59		 pop	 ecx
  00d25	8b c8		 mov	 ecx, eax
  00d27	89 4d 08	 mov	 DWORD PTR $T529615[ebp], ecx
  00d2a	c7 45 fc 51 00
	00 00		 mov	 DWORD PTR __$EHRec$[ebp+8], 81 ; 00000051H
  00d31	85 c9		 test	 ecx, ecx
  00d33	0f 84 8d 15 00
	00		 je	 $LN655@CreateNorm
  00d39	e8 00 00 00 00	 call	 ??0ioPullBuff@@QAE@XZ	; ioPullBuff::ioPullBuff
  00d3e	e9 85 15 00 00	 jmp	 $LN656@CreateNorm
$LN136@CreateNorm:

; 397  : 		break;
; 398  : 	case BT_CHANGE_SOLDIER:
; 399  : 		pBuff = new ioChangeSoldierBuff;

  00d43	68 84 09 00 00	 push	 2436			; 00000984H
  00d48	e8 00 00 00 00	 call	 ??2@YAPAXI@Z		; operator new
  00d4d	59		 pop	 ecx
  00d4e	8b c8		 mov	 ecx, eax
  00d50	89 4d 08	 mov	 DWORD PTR $T529619[ebp], ecx
  00d53	c7 45 fc 52 00
	00 00		 mov	 DWORD PTR __$EHRec$[ebp+8], 82 ; 00000052H
  00d5a	85 c9		 test	 ecx, ecx
  00d5c	0f 84 64 15 00
	00		 je	 $LN655@CreateNorm
  00d62	e8 00 00 00 00	 call	 ??0ioChangeSoldierBuff@@QAE@XZ ; ioChangeSoldierBuff::ioChangeSoldierBuff
  00d67	e9 5c 15 00 00	 jmp	 $LN656@CreateNorm
$LN135@CreateNorm:

; 400  : 		break;
; 401  : 	case BT_GHOST_STATE:
; 402  : 		pBuff = new ioGhostStateBuff;

  00d6c	68 d4 09 00 00	 push	 2516			; 000009d4H
  00d71	e8 00 00 00 00	 call	 ??2@YAPAXI@Z		; operator new
  00d76	59		 pop	 ecx
  00d77	8b c8		 mov	 ecx, eax
  00d79	89 4d 08	 mov	 DWORD PTR $T529623[ebp], ecx
  00d7c	c7 45 fc 53 00
	00 00		 mov	 DWORD PTR __$EHRec$[ebp+8], 83 ; 00000053H
  00d83	85 c9		 test	 ecx, ecx
  00d85	0f 84 3b 15 00
	00		 je	 $LN655@CreateNorm
  00d8b	e8 00 00 00 00	 call	 ??0ioGhostStateBuff@@QAE@XZ ; ioGhostStateBuff::ioGhostStateBuff
  00d90	e9 33 15 00 00	 jmp	 $LN656@CreateNorm
$LN134@CreateNorm:

; 403  : 		break;
; 404  : 	case BT_CALL_BY_STATE:
; 405  : 		pBuff = new ioCallByStateBuff;

  00d95	68 78 09 00 00	 push	 2424			; 00000978H
  00d9a	e8 00 00 00 00	 call	 ??2@YAPAXI@Z		; operator new
  00d9f	59		 pop	 ecx
  00da0	8b c8		 mov	 ecx, eax
  00da2	89 4d 08	 mov	 DWORD PTR $T529627[ebp], ecx
  00da5	c7 45 fc 54 00
	00 00		 mov	 DWORD PTR __$EHRec$[ebp+8], 84 ; 00000054H
  00dac	85 c9		 test	 ecx, ecx
  00dae	0f 84 12 15 00
	00		 je	 $LN655@CreateNorm
  00db4	e8 00 00 00 00	 call	 ??0ioCallByStateBuff@@QAE@XZ ; ioCallByStateBuff::ioCallByStateBuff
  00db9	e9 0a 15 00 00	 jmp	 $LN656@CreateNorm
$LN133@CreateNorm:

; 406  : 		break;
; 407  : 	case BT_WITCH_FLY_STATE:
; 408  : 		pBuff = new ioWitchFlyBuff;

  00dbe	68 5c 0a 00 00	 push	 2652			; 00000a5cH
  00dc3	e8 00 00 00 00	 call	 ??2@YAPAXI@Z		; operator new
  00dc8	59		 pop	 ecx
  00dc9	8b c8		 mov	 ecx, eax
  00dcb	89 4d 08	 mov	 DWORD PTR $T529631[ebp], ecx
  00dce	c7 45 fc 55 00
	00 00		 mov	 DWORD PTR __$EHRec$[ebp+8], 85 ; 00000055H
  00dd5	85 c9		 test	 ecx, ecx
  00dd7	0f 84 e9 14 00
	00		 je	 $LN655@CreateNorm
  00ddd	e8 00 00 00 00	 call	 ??0ioWitchFlyBuff@@QAE@XZ ; ioWitchFlyBuff::ioWitchFlyBuff
  00de2	e9 e1 14 00 00	 jmp	 $LN656@CreateNorm
$LN132@CreateNorm:

; 409  : 		break;
; 410  : 	case BT_RANDOM_MOVE:
; 411  : 		pBuff = new ioRandomMoveBuff;

  00de7	68 2c 0a 00 00	 push	 2604			; 00000a2cH
  00dec	e8 00 00 00 00	 call	 ??2@YAPAXI@Z		; operator new
  00df1	59		 pop	 ecx
  00df2	8b c8		 mov	 ecx, eax
  00df4	89 4d 08	 mov	 DWORD PTR $T529635[ebp], ecx
  00df7	c7 45 fc 56 00
	00 00		 mov	 DWORD PTR __$EHRec$[ebp+8], 86 ; 00000056H
  00dfe	85 c9		 test	 ecx, ecx
  00e00	0f 84 c0 14 00
	00		 je	 $LN655@CreateNorm
  00e06	e8 00 00 00 00	 call	 ??0ioRandomMoveBuff@@QAE@XZ ; ioRandomMoveBuff::ioRandomMoveBuff
  00e0b	e9 b8 14 00 00	 jmp	 $LN656@CreateNorm
$LN131@CreateNorm:

; 412  : 		break;
; 413  : 	case BT_TELEPORT_ON_END_BUFF:
; 414  : 		pBuff = new ioTeleportOnEndBuff;

  00e10	68 84 0a 00 00	 push	 2692			; 00000a84H
  00e15	e8 00 00 00 00	 call	 ??2@YAPAXI@Z		; operator new
  00e1a	59		 pop	 ecx
  00e1b	8b c8		 mov	 ecx, eax
  00e1d	89 4d 08	 mov	 DWORD PTR $T529639[ebp], ecx
  00e20	c7 45 fc 57 00
	00 00		 mov	 DWORD PTR __$EHRec$[ebp+8], 87 ; 00000057H
  00e27	85 c9		 test	 ecx, ecx
  00e29	0f 84 97 14 00
	00		 je	 $LN655@CreateNorm
  00e2f	e8 00 00 00 00	 call	 ??0ioTeleportOnEndBuff@@QAE@XZ ; ioTeleportOnEndBuff::ioTeleportOnEndBuff
  00e34	e9 8f 14 00 00	 jmp	 $LN656@CreateNorm
$LN130@CreateNorm:

; 415  : 		break;
; 416  : 	case BT_AUTO_FIRE:
; 417  : 		pBuff = new ioAutoFireBuff;

  00e39	68 a4 09 00 00	 push	 2468			; 000009a4H
  00e3e	e8 00 00 00 00	 call	 ??2@YAPAXI@Z		; operator new
  00e43	59		 pop	 ecx
  00e44	8b c8		 mov	 ecx, eax
  00e46	89 4d 08	 mov	 DWORD PTR $T529643[ebp], ecx
  00e49	c7 45 fc 58 00
	00 00		 mov	 DWORD PTR __$EHRec$[ebp+8], 88 ; 00000058H
  00e50	85 c9		 test	 ecx, ecx
  00e52	0f 84 6e 14 00
	00		 je	 $LN655@CreateNorm
  00e58	e8 00 00 00 00	 call	 ??0ioAutoFireBuff@@QAE@XZ ; ioAutoFireBuff::ioAutoFireBuff
  00e5d	e9 66 14 00 00	 jmp	 $LN656@CreateNorm
$LN129@CreateNorm:

; 418  : 		break;
; 419  : 	case BT_CHANGE_MESH:
; 420  : 		pBuff = new ioChangeMeshBuff;

  00e62	68 24 0a 00 00	 push	 2596			; 00000a24H
  00e67	e8 00 00 00 00	 call	 ??2@YAPAXI@Z		; operator new
  00e6c	59		 pop	 ecx
  00e6d	8b c8		 mov	 ecx, eax
  00e6f	89 4d 08	 mov	 DWORD PTR $T529647[ebp], ecx
  00e72	c7 45 fc 59 00
	00 00		 mov	 DWORD PTR __$EHRec$[ebp+8], 89 ; 00000059H
  00e79	85 c9		 test	 ecx, ecx
  00e7b	0f 84 45 14 00
	00		 je	 $LN655@CreateNorm
  00e81	e8 00 00 00 00	 call	 ??0ioChangeMeshBuff@@QAE@XZ ; ioChangeMeshBuff::ioChangeMeshBuff
  00e86	e9 3d 14 00 00	 jmp	 $LN656@CreateNorm
$LN128@CreateNorm:

; 421  : 		break;
; 422  : 	case BT_DEFENSE_DAMAGE:
; 423  : 		pBuff = new ioDefenseDamageBuff;

  00e8b	68 bc 09 00 00	 push	 2492			; 000009bcH
  00e90	e8 00 00 00 00	 call	 ??2@YAPAXI@Z		; operator new
  00e95	59		 pop	 ecx
  00e96	8b c8		 mov	 ecx, eax
  00e98	89 4d 08	 mov	 DWORD PTR $T529651[ebp], ecx
  00e9b	c7 45 fc 5a 00
	00 00		 mov	 DWORD PTR __$EHRec$[ebp+8], 90 ; 0000005aH
  00ea2	85 c9		 test	 ecx, ecx
  00ea4	0f 84 1c 14 00
	00		 je	 $LN655@CreateNorm
  00eaa	e8 00 00 00 00	 call	 ??0ioDefenseDamageBuff@@QAE@XZ ; ioDefenseDamageBuff::ioDefenseDamageBuff
  00eaf	e9 14 14 00 00	 jmp	 $LN656@CreateNorm
$LN127@CreateNorm:

; 424  : 		break;
; 425  : 	case BT_ADHESIVE_STATE:
; 426  : 		pBuff = new ioAdhesiveBuff;

  00eb4	68 b0 0a 00 00	 push	 2736			; 00000ab0H
  00eb9	e8 00 00 00 00	 call	 ??2@YAPAXI@Z		; operator new
  00ebe	59		 pop	 ecx
  00ebf	8b c8		 mov	 ecx, eax
  00ec1	89 4d 08	 mov	 DWORD PTR $T529655[ebp], ecx
  00ec4	c7 45 fc 5b 00
	00 00		 mov	 DWORD PTR __$EHRec$[ebp+8], 91 ; 0000005bH
  00ecb	85 c9		 test	 ecx, ecx
  00ecd	0f 84 f3 13 00
	00		 je	 $LN655@CreateNorm
  00ed3	e8 00 00 00 00	 call	 ??0ioAdhesiveBuff@@QAE@XZ ; ioAdhesiveBuff::ioAdhesiveBuff
  00ed8	e9 eb 13 00 00	 jmp	 $LN656@CreateNorm
$LN126@CreateNorm:

; 427  : 		break;
; 428  : 	case BT_SEAL_SKILL:
; 429  : 		pBuff = new ioSealSkillBuff;

  00edd	68 44 0a 00 00	 push	 2628			; 00000a44H
  00ee2	e8 00 00 00 00	 call	 ??2@YAPAXI@Z		; operator new
  00ee7	59		 pop	 ecx
  00ee8	8b c8		 mov	 ecx, eax
  00eea	89 4d 08	 mov	 DWORD PTR $T529659[ebp], ecx
  00eed	c7 45 fc 5c 00
	00 00		 mov	 DWORD PTR __$EHRec$[ebp+8], 92 ; 0000005cH
  00ef4	85 c9		 test	 ecx, ecx
  00ef6	0f 84 ca 13 00
	00		 je	 $LN655@CreateNorm
  00efc	e8 00 00 00 00	 call	 ??0ioSealSkillBuff@@QAE@XZ ; ioSealSkillBuff::ioSealSkillBuff
  00f01	e9 c2 13 00 00	 jmp	 $LN656@CreateNorm
$LN125@CreateNorm:

; 430  : 		break;
; 431  : 	case BT_CALL_BUFF_ON_ATTACK:
; 432  : 		pBuff = new ioCallBuffOnAttackBuff;

  00f06	68 80 09 00 00	 push	 2432			; 00000980H
  00f0b	e8 00 00 00 00	 call	 ??2@YAPAXI@Z		; operator new
  00f10	59		 pop	 ecx
  00f11	8b c8		 mov	 ecx, eax
  00f13	89 4d 08	 mov	 DWORD PTR $T529663[ebp], ecx
  00f16	c7 45 fc 5d 00
	00 00		 mov	 DWORD PTR __$EHRec$[ebp+8], 93 ; 0000005dH
  00f1d	85 c9		 test	 ecx, ecx
  00f1f	0f 84 a1 13 00
	00		 je	 $LN655@CreateNorm
  00f25	e8 00 00 00 00	 call	 ??0ioCallBuffOnAttackBuff@@QAE@XZ ; ioCallBuffOnAttackBuff::ioCallBuffOnAttackBuff
  00f2a	e9 99 13 00 00	 jmp	 $LN656@CreateNorm
$LN124@CreateNorm:

; 433  : 		break;
; 434  : 	case BT_MAGIC_STUN:
; 435  : 		pBuff = new ioMagicStunBuff;

  00f2f	68 00 0b 00 00	 push	 2816			; 00000b00H
  00f34	e8 00 00 00 00	 call	 ??2@YAPAXI@Z		; operator new
  00f39	59		 pop	 ecx
  00f3a	8b c8		 mov	 ecx, eax
  00f3c	89 4d 08	 mov	 DWORD PTR $T529667[ebp], ecx
  00f3f	c7 45 fc 5e 00
	00 00		 mov	 DWORD PTR __$EHRec$[ebp+8], 94 ; 0000005eH
  00f46	85 c9		 test	 ecx, ecx
  00f48	0f 84 78 13 00
	00		 je	 $LN655@CreateNorm
  00f4e	e8 00 00 00 00	 call	 ??0ioMagicStunBuff@@QAE@XZ ; ioMagicStunBuff::ioMagicStunBuff
  00f53	e9 70 13 00 00	 jmp	 $LN656@CreateNorm
$LN123@CreateNorm:

; 436  : 		break;
; 437  : 	case BT_SPEED_ACCUMLATE:
; 438  : 		pBuff = new ioSpeedAccumlateBuff;

  00f58	68 64 0a 00 00	 push	 2660			; 00000a64H
  00f5d	e8 00 00 00 00	 call	 ??2@YAPAXI@Z		; operator new
  00f62	59		 pop	 ecx
  00f63	8b c8		 mov	 ecx, eax
  00f65	89 4d 08	 mov	 DWORD PTR $T529671[ebp], ecx
  00f68	c7 45 fc 5f 00
	00 00		 mov	 DWORD PTR __$EHRec$[ebp+8], 95 ; 0000005fH
  00f6f	85 c9		 test	 ecx, ecx
  00f71	0f 84 4f 13 00
	00		 je	 $LN655@CreateNorm
  00f77	e8 00 00 00 00	 call	 ??0ioSpeedAccumlateBuff@@QAE@XZ ; ioSpeedAccumlateBuff::ioSpeedAccumlateBuff
  00f7c	e9 47 13 00 00	 jmp	 $LN656@CreateNorm
$LN122@CreateNorm:

; 439  : 		break;
; 440  : 	case BT_CONTROL_WEAPON:
; 441  : 		pBuff = new ioControlWeaponBuff;

  00f81	68 64 0a 00 00	 push	 2660			; 00000a64H
  00f86	e8 00 00 00 00	 call	 ??2@YAPAXI@Z		; operator new
  00f8b	59		 pop	 ecx
  00f8c	8b c8		 mov	 ecx, eax
  00f8e	89 4d 08	 mov	 DWORD PTR $T529675[ebp], ecx
  00f91	c7 45 fc 60 00
	00 00		 mov	 DWORD PTR __$EHRec$[ebp+8], 96 ; 00000060H
  00f98	85 c9		 test	 ecx, ecx
  00f9a	0f 84 26 13 00
	00		 je	 $LN655@CreateNorm
  00fa0	e8 00 00 00 00	 call	 ??0ioControlWeaponBuff@@QAE@XZ ; ioControlWeaponBuff::ioControlWeaponBuff
  00fa5	e9 1e 13 00 00	 jmp	 $LN656@CreateNorm
$LN121@CreateNorm:

; 442  : 		break;
; 443  : 	case BT_WALL_COLLISION:
; 444  : 		pBuff = new ioWallCollisionBuff;

  00faa	68 7c 09 00 00	 push	 2428			; 0000097cH
  00faf	e8 00 00 00 00	 call	 ??2@YAPAXI@Z		; operator new
  00fb4	59		 pop	 ecx
  00fb5	8b c8		 mov	 ecx, eax
  00fb7	89 4d 08	 mov	 DWORD PTR $T529679[ebp], ecx
  00fba	c7 45 fc 61 00
	00 00		 mov	 DWORD PTR __$EHRec$[ebp+8], 97 ; 00000061H
  00fc1	85 c9		 test	 ecx, ecx
  00fc3	0f 84 fd 12 00
	00		 je	 $LN655@CreateNorm
  00fc9	e8 00 00 00 00	 call	 ??0ioWallCollisionBuff@@QAE@XZ ; ioWallCollisionBuff::ioWallCollisionBuff
  00fce	e9 f5 12 00 00	 jmp	 $LN656@CreateNorm
$LN120@CreateNorm:

; 445  : 		break;
; 446  : 	case BT_DEFENSE_DAMAGE2:
; 447  : 		pBuff = new ioDefenseDamageBuff2;

  00fd3	68 f8 09 00 00	 push	 2552			; 000009f8H
  00fd8	e8 00 00 00 00	 call	 ??2@YAPAXI@Z		; operator new
  00fdd	59		 pop	 ecx
  00fde	8b c8		 mov	 ecx, eax
  00fe0	89 4d 08	 mov	 DWORD PTR $T529683[ebp], ecx
  00fe3	c7 45 fc 62 00
	00 00		 mov	 DWORD PTR __$EHRec$[ebp+8], 98 ; 00000062H
  00fea	85 c9		 test	 ecx, ecx
  00fec	0f 84 d4 12 00
	00		 je	 $LN655@CreateNorm
  00ff2	e8 00 00 00 00	 call	 ??0ioDefenseDamageBuff2@@QAE@XZ ; ioDefenseDamageBuff2::ioDefenseDamageBuff2
  00ff7	e9 cc 12 00 00	 jmp	 $LN656@CreateNorm
$LN119@CreateNorm:

; 448  : 		break;
; 449  : 	case BT_ACTIVE_COUNT:
; 450  : 		pBuff = new ioActiveCountBuff;

  00ffc	68 cc 09 00 00	 push	 2508			; 000009ccH
  01001	e8 00 00 00 00	 call	 ??2@YAPAXI@Z		; operator new
  01006	59		 pop	 ecx
  01007	8b c8		 mov	 ecx, eax
  01009	89 4d 08	 mov	 DWORD PTR $T529687[ebp], ecx
  0100c	c7 45 fc 63 00
	00 00		 mov	 DWORD PTR __$EHRec$[ebp+8], 99 ; 00000063H
  01013	85 c9		 test	 ecx, ecx
  01015	0f 84 ab 12 00
	00		 je	 $LN655@CreateNorm
  0101b	e8 00 00 00 00	 call	 ??0ioActiveCountBuff@@QAE@XZ ; ioActiveCountBuff::ioActiveCountBuff
  01020	e9 a3 12 00 00	 jmp	 $LN656@CreateNorm
$LN118@CreateNorm:

; 451  : 		break;
; 452  : 	case BT_INFECTION:
; 453  : 		pBuff = new ioInfectionBuff;

  01025	68 d0 09 00 00	 push	 2512			; 000009d0H
  0102a	e8 00 00 00 00	 call	 ??2@YAPAXI@Z		; operator new
  0102f	59		 pop	 ecx
  01030	8b c8		 mov	 ecx, eax
  01032	89 4d 08	 mov	 DWORD PTR $T529691[ebp], ecx
  01035	c7 45 fc 64 00
	00 00		 mov	 DWORD PTR __$EHRec$[ebp+8], 100 ; 00000064H
  0103c	85 c9		 test	 ecx, ecx
  0103e	0f 84 82 12 00
	00		 je	 $LN655@CreateNorm
  01044	e8 00 00 00 00	 call	 ??0ioInfectionBuff@@QAE@XZ ; ioInfectionBuff::ioInfectionBuff
  01049	e9 7a 12 00 00	 jmp	 $LN656@CreateNorm
$LN117@CreateNorm:

; 454  : 		break;
; 455  : 	case BT_TARGET_EQUIP_OBJECTITEM:
; 456  : 		pBuff = new ioTargetEquipObjectItemBuff;

  0104e	68 8c 09 00 00	 push	 2444			; 0000098cH
  01053	e8 00 00 00 00	 call	 ??2@YAPAXI@Z		; operator new
  01058	59		 pop	 ecx
  01059	8b c8		 mov	 ecx, eax
  0105b	89 4d 08	 mov	 DWORD PTR $T529695[ebp], ecx
  0105e	c7 45 fc 65 00
	00 00		 mov	 DWORD PTR __$EHRec$[ebp+8], 101 ; 00000065H
  01065	85 c9		 test	 ecx, ecx
  01067	0f 84 59 12 00
	00		 je	 $LN655@CreateNorm
  0106d	e8 00 00 00 00	 call	 ??0ioTargetEquipObjectItemBuff@@QAE@XZ ; ioTargetEquipObjectItemBuff::ioTargetEquipObjectItemBuff
  01072	e9 51 12 00 00	 jmp	 $LN656@CreateNorm
$LN116@CreateNorm:

; 457  : 		break;
; 458  : 	case BT_CHANGE_TEAM:
; 459  : 		pBuff = new ioChangeTeamBuff;

  01077	68 78 09 00 00	 push	 2424			; 00000978H
  0107c	e8 00 00 00 00	 call	 ??2@YAPAXI@Z		; operator new
  01081	59		 pop	 ecx
  01082	8b c8		 mov	 ecx, eax
  01084	89 4d 08	 mov	 DWORD PTR $T529699[ebp], ecx
  01087	c7 45 fc 66 00
	00 00		 mov	 DWORD PTR __$EHRec$[ebp+8], 102 ; 00000066H
  0108e	85 c9		 test	 ecx, ecx
  01090	0f 84 30 12 00
	00		 je	 $LN655@CreateNorm
  01096	e8 00 00 00 00	 call	 ??0ioChangeTeamBuff@@QAE@XZ ; ioChangeTeamBuff::ioChangeTeamBuff
  0109b	e9 28 12 00 00	 jmp	 $LN656@CreateNorm
$LN115@CreateNorm:

; 460  : 		break;
; 461  : 	case BT_SCREEN_BLIND2:
; 462  : 		pBuff = new ioScreenBlindBuff2;

  010a0	68 b4 09 00 00	 push	 2484			; 000009b4H
  010a5	e8 00 00 00 00	 call	 ??2@YAPAXI@Z		; operator new
  010aa	59		 pop	 ecx
  010ab	8b c8		 mov	 ecx, eax
  010ad	89 4d 08	 mov	 DWORD PTR $T529703[ebp], ecx
  010b0	c7 45 fc 67 00
	00 00		 mov	 DWORD PTR __$EHRec$[ebp+8], 103 ; 00000067H
  010b7	85 c9		 test	 ecx, ecx
  010b9	0f 84 07 12 00
	00		 je	 $LN655@CreateNorm
  010bf	e8 00 00 00 00	 call	 ??0ioScreenBlindBuff2@@QAE@XZ ; ioScreenBlindBuff2::ioScreenBlindBuff2
  010c4	e9 ff 11 00 00	 jmp	 $LN656@CreateNorm
$LN114@CreateNorm:

; 463  : 		break;
; 464  : 	case BT_TRACE_MINE_STATE:
; 465  : 		pBuff = new ioTraceMineStateBuff;

  010c9	68 e0 09 00 00	 push	 2528			; 000009e0H
  010ce	e8 00 00 00 00	 call	 ??2@YAPAXI@Z		; operator new
  010d3	59		 pop	 ecx
  010d4	8b c8		 mov	 ecx, eax
  010d6	89 4d 08	 mov	 DWORD PTR $T529707[ebp], ecx
  010d9	c7 45 fc 68 00
	00 00		 mov	 DWORD PTR __$EHRec$[ebp+8], 104 ; 00000068H
  010e0	85 c9		 test	 ecx, ecx
  010e2	0f 84 de 11 00
	00		 je	 $LN655@CreateNorm
  010e8	e8 00 00 00 00	 call	 ??0ioTraceMineStateBuff@@QAE@XZ ; ioTraceMineStateBuff::ioTraceMineStateBuff
  010ed	e9 d6 11 00 00	 jmp	 $LN656@CreateNorm
$LN113@CreateNorm:

; 466  : 		break;
; 467  : 	case BT_GAUGE_STEAL2:
; 468  : 		pBuff = new ioGaugeStealBuff2;

  010f2	68 ec 0a 00 00	 push	 2796			; 00000aecH
  010f7	e8 00 00 00 00	 call	 ??2@YAPAXI@Z		; operator new
  010fc	59		 pop	 ecx
  010fd	8b c8		 mov	 ecx, eax
  010ff	89 4d 08	 mov	 DWORD PTR $T529711[ebp], ecx
  01102	c7 45 fc 69 00
	00 00		 mov	 DWORD PTR __$EHRec$[ebp+8], 105 ; 00000069H
  01109	85 c9		 test	 ecx, ecx
  0110b	0f 84 b5 11 00
	00		 je	 $LN655@CreateNorm
  01111	e8 00 00 00 00	 call	 ??0ioGaugeStealBuff2@@QAE@XZ ; ioGaugeStealBuff2::ioGaugeStealBuff2
  01116	e9 ad 11 00 00	 jmp	 $LN656@CreateNorm
$LN112@CreateNorm:

; 469  : 		break;
; 470  : 	case BT_RESTORATION_GAUGE2:
; 471  : 		pBuff = new ioRestorationGaugeBuff2;

  0111b	68 9c 09 00 00	 push	 2460			; 0000099cH
  01120	e8 00 00 00 00	 call	 ??2@YAPAXI@Z		; operator new
  01125	59		 pop	 ecx
  01126	8b c8		 mov	 ecx, eax
  01128	89 4d 08	 mov	 DWORD PTR $T529715[ebp], ecx
  0112b	c7 45 fc 6a 00
	00 00		 mov	 DWORD PTR __$EHRec$[ebp+8], 106 ; 0000006aH
  01132	85 c9		 test	 ecx, ecx
  01134	0f 84 8c 11 00
	00		 je	 $LN655@CreateNorm
  0113a	e8 00 00 00 00	 call	 ??0ioRestorationGaugeBuff2@@QAE@XZ ; ioRestorationGaugeBuff2::ioRestorationGaugeBuff2
  0113f	e9 84 11 00 00	 jmp	 $LN656@CreateNorm
$LN111@CreateNorm:

; 472  : 		break;
; 473  : 	case BT_DISABLE_RECOVERY_SKILL_GAUGE:
; 474  : 		pBuff = new ioDisableRecoverySkillGaugeBuff;

  01144	68 b0 09 00 00	 push	 2480			; 000009b0H
  01149	e8 00 00 00 00	 call	 ??2@YAPAXI@Z		; operator new
  0114e	59		 pop	 ecx
  0114f	8b c8		 mov	 ecx, eax
  01151	89 4d 08	 mov	 DWORD PTR $T529719[ebp], ecx
  01154	c7 45 fc 6b 00
	00 00		 mov	 DWORD PTR __$EHRec$[ebp+8], 107 ; 0000006bH
  0115b	85 c9		 test	 ecx, ecx
  0115d	0f 84 63 11 00
	00		 je	 $LN655@CreateNorm
  01163	e8 00 00 00 00	 call	 ??0ioDisableRecoverySkillGaugeBuff@@QAE@XZ ; ioDisableRecoverySkillGaugeBuff::ioDisableRecoverySkillGaugeBuff
  01168	e9 5b 11 00 00	 jmp	 $LN656@CreateNorm
$LN110@CreateNorm:

; 475  : 		break;
; 476  : 	case BT_HIDE2:
; 477  : 		pBuff = new ioHide2Buff;

  0116d	68 80 09 00 00	 push	 2432			; 00000980H
  01172	e8 00 00 00 00	 call	 ??2@YAPAXI@Z		; operator new
  01177	59		 pop	 ecx
  01178	8b c8		 mov	 ecx, eax
  0117a	89 4d 08	 mov	 DWORD PTR $T529723[ebp], ecx
  0117d	c7 45 fc 6c 00
	00 00		 mov	 DWORD PTR __$EHRec$[ebp+8], 108 ; 0000006cH
  01184	85 c9		 test	 ecx, ecx
  01186	0f 84 3a 11 00
	00		 je	 $LN655@CreateNorm
  0118c	e8 00 00 00 00	 call	 ??0ioHide2Buff@@QAE@XZ	; ioHide2Buff::ioHide2Buff
  01191	e9 32 11 00 00	 jmp	 $LN656@CreateNorm
$LN109@CreateNorm:

; 478  : 		break;
; 479  : 	case BT_HIT_COUNT_HOLD:
; 480  : 		pBuff = new ioHitCountHoldBuff;

  01196	68 58 0a 00 00	 push	 2648			; 00000a58H
  0119b	e8 00 00 00 00	 call	 ??2@YAPAXI@Z		; operator new
  011a0	59		 pop	 ecx
  011a1	8b c8		 mov	 ecx, eax
  011a3	89 4d 08	 mov	 DWORD PTR $T529727[ebp], ecx
  011a6	c7 45 fc 6d 00
	00 00		 mov	 DWORD PTR __$EHRec$[ebp+8], 109 ; 0000006dH
  011ad	85 c9		 test	 ecx, ecx
  011af	0f 84 11 11 00
	00		 je	 $LN655@CreateNorm
  011b5	e8 00 00 00 00	 call	 ??0ioHitCountHoldBuff@@QAE@XZ ; ioHitCountHoldBuff::ioHitCountHoldBuff
  011ba	e9 09 11 00 00	 jmp	 $LN656@CreateNorm
$LN108@CreateNorm:

; 481  : 		break;
; 482  : 	case BT_CREATE_WEAPON:
; 483  : 		pBuff = new ioCreateWeaponBuff;

  011bf	68 68 0a 00 00	 push	 2664			; 00000a68H
  011c4	e8 00 00 00 00	 call	 ??2@YAPAXI@Z		; operator new
  011c9	59		 pop	 ecx
  011ca	8b c8		 mov	 ecx, eax
  011cc	89 4d 08	 mov	 DWORD PTR $T529731[ebp], ecx
  011cf	c7 45 fc 6e 00
	00 00		 mov	 DWORD PTR __$EHRec$[ebp+8], 110 ; 0000006eH
  011d6	85 c9		 test	 ecx, ecx
  011d8	0f 84 e8 10 00
	00		 je	 $LN655@CreateNorm
  011de	e8 00 00 00 00	 call	 ??0ioCreateWeaponBuff@@QAE@XZ ; ioCreateWeaponBuff::ioCreateWeaponBuff
  011e3	e9 e0 10 00 00	 jmp	 $LN656@CreateNorm
$LN107@CreateNorm:

; 484  : 		break;
; 485  : 	case BT_AFFECT_WOUNDED_VALUE:
; 486  : 		pBuff = new ioAffectWoundedValueBuff;

  011e8	68 60 0a 00 00	 push	 2656			; 00000a60H
  011ed	e8 00 00 00 00	 call	 ??2@YAPAXI@Z		; operator new
  011f2	59		 pop	 ecx
  011f3	8b c8		 mov	 ecx, eax
  011f5	89 4d 08	 mov	 DWORD PTR $T529735[ebp], ecx
  011f8	c7 45 fc 6f 00
	00 00		 mov	 DWORD PTR __$EHRec$[ebp+8], 111 ; 0000006fH
  011ff	85 c9		 test	 ecx, ecx
  01201	0f 84 bf 10 00
	00		 je	 $LN655@CreateNorm
  01207	e8 00 00 00 00	 call	 ??0ioAffectWoundedValueBuff@@QAE@XZ ; ioAffectWoundedValueBuff::ioAffectWoundedValueBuff
  0120c	e9 b7 10 00 00	 jmp	 $LN656@CreateNorm
$LN106@CreateNorm:

; 487  : 		break;
; 488  : 	case BT_EXTRA_CALL:
; 489  : 		pBuff = new ioExtraCallBuff;

  01211	68 c8 0a 00 00	 push	 2760			; 00000ac8H
  01216	e8 00 00 00 00	 call	 ??2@YAPAXI@Z		; operator new
  0121b	59		 pop	 ecx
  0121c	8b c8		 mov	 ecx, eax
  0121e	89 4d 08	 mov	 DWORD PTR $T529739[ebp], ecx
  01221	c7 45 fc 70 00
	00 00		 mov	 DWORD PTR __$EHRec$[ebp+8], 112 ; 00000070H
  01228	85 c9		 test	 ecx, ecx
  0122a	0f 84 96 10 00
	00		 je	 $LN655@CreateNorm
  01230	e8 00 00 00 00	 call	 ??0ioExtraCallBuff@@QAE@XZ ; ioExtraCallBuff::ioExtraCallBuff
  01235	e9 8e 10 00 00	 jmp	 $LN656@CreateNorm
$LN105@CreateNorm:

; 490  : 		break;
; 491  : 	case BT_CALL_BY_NPC:
; 492  : 		pBuff = new ioCallByNpcBuff;

  0123a	68 8c 09 00 00	 push	 2444			; 0000098cH
  0123f	e8 00 00 00 00	 call	 ??2@YAPAXI@Z		; operator new
  01244	59		 pop	 ecx
  01245	8b c8		 mov	 ecx, eax
  01247	89 4d 08	 mov	 DWORD PTR $T529743[ebp], ecx
  0124a	c7 45 fc 71 00
	00 00		 mov	 DWORD PTR __$EHRec$[ebp+8], 113 ; 00000071H
  01251	85 c9		 test	 ecx, ecx
  01253	0f 84 6d 10 00
	00		 je	 $LN655@CreateNorm
  01259	e8 00 00 00 00	 call	 ??0ioCallByNpcBuff@@QAE@XZ ; ioCallByNpcBuff::ioCallByNpcBuff
  0125e	e9 65 10 00 00	 jmp	 $LN656@CreateNorm
$LN104@CreateNorm:

; 493  : 		break;
; 494  : 	case BT_CREATE_DUMMY_CHAR:
; 495  : 		pBuff = new ioCreateDummyCharBuff;

  01263	68 dc 09 00 00	 push	 2524			; 000009dcH
  01268	e8 00 00 00 00	 call	 ??2@YAPAXI@Z		; operator new
  0126d	59		 pop	 ecx
  0126e	8b c8		 mov	 ecx, eax
  01270	89 4d 08	 mov	 DWORD PTR $T529747[ebp], ecx
  01273	c7 45 fc 72 00
	00 00		 mov	 DWORD PTR __$EHRec$[ebp+8], 114 ; 00000072H
  0127a	85 c9		 test	 ecx, ecx
  0127c	0f 84 44 10 00
	00		 je	 $LN655@CreateNorm
  01282	e8 00 00 00 00	 call	 ??0ioCreateDummyCharBuff@@QAE@XZ ; ioCreateDummyCharBuff::ioCreateDummyCharBuff
  01287	e9 3c 10 00 00	 jmp	 $LN656@CreateNorm
$LN103@CreateNorm:

; 496  : 		break;
; 497  : 	case BT_GRAPPLING_PUSH:
; 498  : 		pBuff = new ioGrapplingPushBuff;

  0128c	68 d8 09 00 00	 push	 2520			; 000009d8H
  01291	e8 00 00 00 00	 call	 ??2@YAPAXI@Z		; operator new
  01296	59		 pop	 ecx
  01297	8b c8		 mov	 ecx, eax
  01299	89 4d 08	 mov	 DWORD PTR $T529751[ebp], ecx
  0129c	c7 45 fc 73 00
	00 00		 mov	 DWORD PTR __$EHRec$[ebp+8], 115 ; 00000073H
  012a3	85 c9		 test	 ecx, ecx
  012a5	0f 84 1b 10 00
	00		 je	 $LN655@CreateNorm
  012ab	e8 00 00 00 00	 call	 ??0ioGrapplingPushBuff@@QAE@XZ ; ioGrapplingPushBuff::ioGrapplingPushBuff
  012b0	e9 13 10 00 00	 jmp	 $LN656@CreateNorm
$LN102@CreateNorm:

; 499  : 		break;
; 500  : 	case BT_MAGNETIC:
; 501  : 		pBuff = new ioMagneticBuff;

  012b5	68 90 0b 00 00	 push	 2960			; 00000b90H
  012ba	e8 00 00 00 00	 call	 ??2@YAPAXI@Z		; operator new
  012bf	59		 pop	 ecx
  012c0	8b c8		 mov	 ecx, eax
  012c2	89 4d 08	 mov	 DWORD PTR $T529755[ebp], ecx
  012c5	c7 45 fc 74 00
	00 00		 mov	 DWORD PTR __$EHRec$[ebp+8], 116 ; 00000074H
  012cc	85 c9		 test	 ecx, ecx
  012ce	0f 84 f2 0f 00
	00		 je	 $LN655@CreateNorm
  012d4	e8 00 00 00 00	 call	 ??0ioMagneticBuff@@QAE@XZ ; ioMagneticBuff::ioMagneticBuff
  012d9	e9 ea 0f 00 00	 jmp	 $LN656@CreateNorm
$LN101@CreateNorm:

; 502  : 		break;
; 503  : 	case BT_CREATE_DUMMY_CHAR2:
; 504  : 		pBuff = new ioCreateDummyChar2Buff;

  012de	68 e0 09 00 00	 push	 2528			; 000009e0H
  012e3	e8 00 00 00 00	 call	 ??2@YAPAXI@Z		; operator new
  012e8	59		 pop	 ecx
  012e9	8b c8		 mov	 ecx, eax
  012eb	89 4d 08	 mov	 DWORD PTR $T529759[ebp], ecx
  012ee	c7 45 fc 75 00
	00 00		 mov	 DWORD PTR __$EHRec$[ebp+8], 117 ; 00000075H
  012f5	85 c9		 test	 ecx, ecx
  012f7	0f 84 c9 0f 00
	00		 je	 $LN655@CreateNorm
  012fd	e8 00 00 00 00	 call	 ??0ioCreateDummyChar2Buff@@QAE@XZ ; ioCreateDummyChar2Buff::ioCreateDummyChar2Buff
  01302	e9 c1 0f 00 00	 jmp	 $LN656@CreateNorm
$LN100@CreateNorm:

; 505  : 		break;
; 506  : 	case BT_WEAPON_ATTACH:
; 507  : 		pBuff = new ioWeaponAttachBuff;

  01307	68 cc 09 00 00	 push	 2508			; 000009ccH
  0130c	e8 00 00 00 00	 call	 ??2@YAPAXI@Z		; operator new
  01311	59		 pop	 ecx
  01312	8b c8		 mov	 ecx, eax
  01314	89 4d 08	 mov	 DWORD PTR $T529763[ebp], ecx
  01317	c7 45 fc 76 00
	00 00		 mov	 DWORD PTR __$EHRec$[ebp+8], 118 ; 00000076H
  0131e	85 c9		 test	 ecx, ecx
  01320	0f 84 a0 0f 00
	00		 je	 $LN655@CreateNorm
  01326	e8 00 00 00 00	 call	 ??0ioWeaponAttachBuff@@QAE@XZ ; ioWeaponAttachBuff::ioWeaponAttachBuff
  0132b	e9 98 0f 00 00	 jmp	 $LN656@CreateNorm
$LN99@CreateNorm:

; 508  : 		break;
; 509  : 	case BT_CREATE_DUMMY_CHAR3:
; 510  : 		pBuff = new ioCreateDummyChar3Buff;

  01330	68 e8 09 00 00	 push	 2536			; 000009e8H
  01335	e8 00 00 00 00	 call	 ??2@YAPAXI@Z		; operator new
  0133a	59		 pop	 ecx
  0133b	8b c8		 mov	 ecx, eax
  0133d	89 4d 08	 mov	 DWORD PTR $T529767[ebp], ecx
  01340	c7 45 fc 77 00
	00 00		 mov	 DWORD PTR __$EHRec$[ebp+8], 119 ; 00000077H
  01347	85 c9		 test	 ecx, ecx
  01349	0f 84 77 0f 00
	00		 je	 $LN655@CreateNorm
  0134f	e8 00 00 00 00	 call	 ??0ioCreateDummyChar3Buff@@QAE@XZ ; ioCreateDummyChar3Buff::ioCreateDummyChar3Buff
  01354	e9 6f 0f 00 00	 jmp	 $LN656@CreateNorm
$LN98@CreateNorm:

; 511  : 		break;
; 512  : 	case BT_POSITION:
; 513  : 		pBuff = new ioPositionBuff;

  01359	68 c8 09 00 00	 push	 2504			; 000009c8H
  0135e	e8 00 00 00 00	 call	 ??2@YAPAXI@Z		; operator new
  01363	59		 pop	 ecx
  01364	8b c8		 mov	 ecx, eax
  01366	89 4d 08	 mov	 DWORD PTR $T529771[ebp], ecx
  01369	c7 45 fc 78 00
	00 00		 mov	 DWORD PTR __$EHRec$[ebp+8], 120 ; 00000078H
  01370	85 c9		 test	 ecx, ecx
  01372	0f 84 4e 0f 00
	00		 je	 $LN655@CreateNorm
  01378	e8 00 00 00 00	 call	 ??0ioPositionBuff@@QAE@XZ ; ioPositionBuff::ioPositionBuff
  0137d	e9 46 0f 00 00	 jmp	 $LN656@CreateNorm
$LN97@CreateNorm:

; 514  : 		break;
; 515  : 	case BT_GARAVITY_UP_DOWN:
; 516  : 		pBuff = new ioGravityUpDownBuff;

  01382	68 74 09 00 00	 push	 2420			; 00000974H
  01387	e8 00 00 00 00	 call	 ??2@YAPAXI@Z		; operator new
  0138c	59		 pop	 ecx
  0138d	8b c8		 mov	 ecx, eax
  0138f	89 4d 08	 mov	 DWORD PTR $T529775[ebp], ecx
  01392	c7 45 fc 79 00
	00 00		 mov	 DWORD PTR __$EHRec$[ebp+8], 121 ; 00000079H
  01399	85 c9		 test	 ecx, ecx
  0139b	0f 84 25 0f 00
	00		 je	 $LN655@CreateNorm
  013a1	e8 00 00 00 00	 call	 ??0ioGravityUpDownBuff@@QAE@XZ ; ioGravityUpDownBuff::ioGravityUpDownBuff
  013a6	e9 1d 0f 00 00	 jmp	 $LN656@CreateNorm
$LN96@CreateNorm:

; 517  : 		break;
; 518  : 	case BT_ESCAPE_DROP_ZONE:
; 519  : 		pBuff = new ioEscapeDropZoneBuff;

  013ab	68 00 0b 00 00	 push	 2816			; 00000b00H
  013b0	e8 00 00 00 00	 call	 ??2@YAPAXI@Z		; operator new
  013b5	59		 pop	 ecx
  013b6	8b c8		 mov	 ecx, eax
  013b8	89 4d 08	 mov	 DWORD PTR $T529779[ebp], ecx
  013bb	c7 45 fc 7a 00
	00 00		 mov	 DWORD PTR __$EHRec$[ebp+8], 122 ; 0000007aH
  013c2	85 c9		 test	 ecx, ecx
  013c4	0f 84 fc 0e 00
	00		 je	 $LN655@CreateNorm
  013ca	e8 00 00 00 00	 call	 ??0ioEscapeDropZoneBuff@@QAE@XZ ; ioEscapeDropZoneBuff::ioEscapeDropZoneBuff
  013cf	e9 f4 0e 00 00	 jmp	 $LN656@CreateNorm
$LN95@CreateNorm:

; 520  : 		break;
; 521  : 	case BT_PUSH_DIRECTION:
; 522  : 		pBuff = new ioPushDirectionBuff;

  013d4	68 7c 09 00 00	 push	 2428			; 0000097cH
  013d9	e8 00 00 00 00	 call	 ??2@YAPAXI@Z		; operator new
  013de	59		 pop	 ecx
  013df	8b c8		 mov	 ecx, eax
  013e1	89 4d 08	 mov	 DWORD PTR $T529783[ebp], ecx
  013e4	c7 45 fc 7b 00
	00 00		 mov	 DWORD PTR __$EHRec$[ebp+8], 123 ; 0000007bH
  013eb	85 c9		 test	 ecx, ecx
  013ed	0f 84 d3 0e 00
	00		 je	 $LN655@CreateNorm
  013f3	e8 00 00 00 00	 call	 ??0ioPushDirectionBuff@@QAE@XZ ; ioPushDirectionBuff::ioPushDirectionBuff
  013f8	e9 cb 0e 00 00	 jmp	 $LN656@CreateNorm
$LN94@CreateNorm:

; 523  : 		break;
; 524  : 	case BT_WINDLORD:
; 525  : 		pBuff = new ioWindLordBuff;

  013fd	68 20 0a 00 00	 push	 2592			; 00000a20H
  01402	e8 00 00 00 00	 call	 ??2@YAPAXI@Z		; operator new
  01407	59		 pop	 ecx
  01408	8b c8		 mov	 ecx, eax
  0140a	89 4d 08	 mov	 DWORD PTR $T529787[ebp], ecx
  0140d	c7 45 fc 7c 00
	00 00		 mov	 DWORD PTR __$EHRec$[ebp+8], 124 ; 0000007cH
  01414	85 c9		 test	 ecx, ecx
  01416	0f 84 aa 0e 00
	00		 je	 $LN655@CreateNorm
  0141c	e8 00 00 00 00	 call	 ??0ioWindLordBuff@@QAE@XZ ; ioWindLordBuff::ioWindLordBuff
  01421	e9 a2 0e 00 00	 jmp	 $LN656@CreateNorm
$LN93@CreateNorm:

; 526  : 		break;
; 527  : 	case BT_CALL_RANDOM:
; 528  : 		pBuff = new ioCallRandomBuff;

  01426	68 e0 09 00 00	 push	 2528			; 000009e0H
  0142b	e8 00 00 00 00	 call	 ??2@YAPAXI@Z		; operator new
  01430	59		 pop	 ecx
  01431	8b c8		 mov	 ecx, eax
  01433	89 4d 08	 mov	 DWORD PTR $T529791[ebp], ecx
  01436	c7 45 fc 7d 00
	00 00		 mov	 DWORD PTR __$EHRec$[ebp+8], 125 ; 0000007dH
  0143d	85 c9		 test	 ecx, ecx
  0143f	0f 84 81 0e 00
	00		 je	 $LN655@CreateNorm
  01445	e8 00 00 00 00	 call	 ??0ioCallRandomBuff@@QAE@XZ ; ioCallRandomBuff::ioCallRandomBuff
  0144a	e9 79 0e 00 00	 jmp	 $LN656@CreateNorm
$LN92@CreateNorm:

; 529  : 		break;
; 530  : 	case BT_POSITION2:
; 531  : 		pBuff = new ioPositionBuff2;

  0144f	68 ec 09 00 00	 push	 2540			; 000009ecH
  01454	e8 00 00 00 00	 call	 ??2@YAPAXI@Z		; operator new
  01459	59		 pop	 ecx
  0145a	8b c8		 mov	 ecx, eax
  0145c	89 4d 08	 mov	 DWORD PTR $T529795[ebp], ecx
  0145f	c7 45 fc 7e 00
	00 00		 mov	 DWORD PTR __$EHRec$[ebp+8], 126 ; 0000007eH
  01466	85 c9		 test	 ecx, ecx
  01468	0f 84 58 0e 00
	00		 je	 $LN655@CreateNorm
  0146e	e8 00 00 00 00	 call	 ??0ioPositionBuff2@@QAE@XZ ; ioPositionBuff2::ioPositionBuff2
  01473	e9 50 0e 00 00	 jmp	 $LN656@CreateNorm
$LN91@CreateNorm:

; 532  : 		break;
; 533  : 	case BT_CHECK_LIFE:
; 534  : 		pBuff = new ioCheckLifeBuff;

  01478	68 7c 09 00 00	 push	 2428			; 0000097cH
  0147d	e8 00 00 00 00	 call	 ??2@YAPAXI@Z		; operator new
  01482	59		 pop	 ecx
  01483	8b c8		 mov	 ecx, eax
  01485	89 4d 08	 mov	 DWORD PTR $T529799[ebp], ecx
  01488	c7 45 fc 7f 00
	00 00		 mov	 DWORD PTR __$EHRec$[ebp+8], 127 ; 0000007fH
  0148f	85 c9		 test	 ecx, ecx
  01491	0f 84 2f 0e 00
	00		 je	 $LN655@CreateNorm
  01497	e8 00 00 00 00	 call	 ??0ioCheckLifeBuff@@QAE@XZ ; ioCheckLifeBuff::ioCheckLifeBuff
  0149c	e9 27 0e 00 00	 jmp	 $LN656@CreateNorm
$LN90@CreateNorm:

; 535  : 		break;
; 536  : 	case BT_BUFF_MULTI_FLY_JUMP:
; 537  : 		pBuff = new ioMultiFlyJumpBuff;

  014a1	68 58 0a 00 00	 push	 2648			; 00000a58H
  014a6	e8 00 00 00 00	 call	 ??2@YAPAXI@Z		; operator new
  014ab	59		 pop	 ecx
  014ac	8b c8		 mov	 ecx, eax
  014ae	89 4d 08	 mov	 DWORD PTR $T529803[ebp], ecx
  014b1	c7 45 fc 80 00
	00 00		 mov	 DWORD PTR __$EHRec$[ebp+8], 128 ; 00000080H
  014b8	85 c9		 test	 ecx, ecx
  014ba	0f 84 06 0e 00
	00		 je	 $LN655@CreateNorm
  014c0	e8 00 00 00 00	 call	 ??0ioMultiFlyJumpBuff@@QAE@XZ ; ioMultiFlyJumpBuff::ioMultiFlyJumpBuff
  014c5	e9 fe 0d 00 00	 jmp	 $LN656@CreateNorm
$LN89@CreateNorm:

; 538  : 		break;
; 539  : 	case BT_SPECIAL_GAUGE_RATE:
; 540  : 		pBuff = new ioSpecialGaugeBuff2;

  014ca	68 a4 09 00 00	 push	 2468			; 000009a4H
  014cf	e8 00 00 00 00	 call	 ??2@YAPAXI@Z		; operator new
  014d4	59		 pop	 ecx
  014d5	8b c8		 mov	 ecx, eax
  014d7	89 4d 08	 mov	 DWORD PTR $T529807[ebp], ecx
  014da	c7 45 fc 81 00
	00 00		 mov	 DWORD PTR __$EHRec$[ebp+8], 129 ; 00000081H
  014e1	85 c9		 test	 ecx, ecx
  014e3	0f 84 dd 0d 00
	00		 je	 $LN655@CreateNorm
  014e9	e8 00 00 00 00	 call	 ??0ioSpecialGaugeBuff2@@QAE@XZ ; ioSpecialGaugeBuff2::ioSpecialGaugeBuff2
  014ee	e9 d5 0d 00 00	 jmp	 $LN656@CreateNorm
$LN88@CreateNorm:

; 541  : 		break;
; 542  : 	case BT_WIND_MAGNETIC:
; 543  : 		pBuff = new ioWindMagneticBuff;

  014f3	68 f0 0a 00 00	 push	 2800			; 00000af0H
  014f8	e8 00 00 00 00	 call	 ??2@YAPAXI@Z		; operator new
  014fd	59		 pop	 ecx
  014fe	8b c8		 mov	 ecx, eax
  01500	89 4d 08	 mov	 DWORD PTR $T529811[ebp], ecx
  01503	c7 45 fc 82 00
	00 00		 mov	 DWORD PTR __$EHRec$[ebp+8], 130 ; 00000082H
  0150a	85 c9		 test	 ecx, ecx
  0150c	0f 84 b4 0d 00
	00		 je	 $LN655@CreateNorm
  01512	e8 00 00 00 00	 call	 ??0ioWindMagneticBuff@@QAE@XZ ; ioWindMagneticBuff::ioWindMagneticBuff
  01517	e9 ac 0d 00 00	 jmp	 $LN656@CreateNorm
$LN87@CreateNorm:

; 544  : 		break;
; 545  : 	case BT_DROP_ZONE:
; 546  : 		pBuff = new ioDropZoneBuff;

  0151c	68 90 09 00 00	 push	 2448			; 00000990H
  01521	e8 00 00 00 00	 call	 ??2@YAPAXI@Z		; operator new
  01526	59		 pop	 ecx
  01527	8b c8		 mov	 ecx, eax
  01529	89 4d 08	 mov	 DWORD PTR $T529815[ebp], ecx
  0152c	c7 45 fc 83 00
	00 00		 mov	 DWORD PTR __$EHRec$[ebp+8], 131 ; 00000083H
  01533	85 c9		 test	 ecx, ecx
  01535	0f 84 8b 0d 00
	00		 je	 $LN655@CreateNorm
  0153b	e8 00 00 00 00	 call	 ??0ioDropZoneBuff@@QAE@XZ ; ioDropZoneBuff::ioDropZoneBuff
  01540	e9 83 0d 00 00	 jmp	 $LN656@CreateNorm
$LN86@CreateNorm:

; 547  : 		break;
; 548  : 	case BT_DISPEL_BUFF:
; 549  : 		pBuff = new ioDispelBuff;

  01545	68 bc 09 00 00	 push	 2492			; 000009bcH
  0154a	e8 00 00 00 00	 call	 ??2@YAPAXI@Z		; operator new
  0154f	59		 pop	 ecx
  01550	8b c8		 mov	 ecx, eax
  01552	89 4d 08	 mov	 DWORD PTR $T529819[ebp], ecx
  01555	c7 45 fc 84 00
	00 00		 mov	 DWORD PTR __$EHRec$[ebp+8], 132 ; 00000084H
  0155c	85 c9		 test	 ecx, ecx
  0155e	0f 84 62 0d 00
	00		 je	 $LN655@CreateNorm
  01564	e8 00 00 00 00	 call	 ??0ioDispelBuff@@QAE@XZ	; ioDispelBuff::ioDispelBuff
  01569	e9 5a 0d 00 00	 jmp	 $LN656@CreateNorm
$LN85@CreateNorm:

; 550  : 		break;
; 551  : 	case BT_TRY_OUT_CHHECK:
; 552  : 		pBuff = new ioTryOutCheckBuff;

  0156e	68 c8 0a 00 00	 push	 2760			; 00000ac8H
  01573	e8 00 00 00 00	 call	 ??2@YAPAXI@Z		; operator new
  01578	59		 pop	 ecx
  01579	8b c8		 mov	 ecx, eax
  0157b	89 4d 08	 mov	 DWORD PTR $T529823[ebp], ecx
  0157e	c7 45 fc 85 00
	00 00		 mov	 DWORD PTR __$EHRec$[ebp+8], 133 ; 00000085H
  01585	85 c9		 test	 ecx, ecx
  01587	0f 84 39 0d 00
	00		 je	 $LN655@CreateNorm
  0158d	e8 00 00 00 00	 call	 ??0ioTryOutCheckBuff@@QAE@XZ ; ioTryOutCheckBuff::ioTryOutCheckBuff
  01592	e9 31 0d 00 00	 jmp	 $LN656@CreateNorm
$LN84@CreateNorm:

; 553  : 		break;
; 554  : 	case BT_TRY_OUT_CHHECK2:
; 555  : 		pBuff = new ioTryOutCheckBuff2;

  01597	68 d4 0a 00 00	 push	 2772			; 00000ad4H
  0159c	e8 00 00 00 00	 call	 ??2@YAPAXI@Z		; operator new
  015a1	59		 pop	 ecx
  015a2	8b c8		 mov	 ecx, eax
  015a4	89 4d 08	 mov	 DWORD PTR $T529827[ebp], ecx
  015a7	c7 45 fc 86 00
	00 00		 mov	 DWORD PTR __$EHRec$[ebp+8], 134 ; 00000086H
  015ae	85 c9		 test	 ecx, ecx
  015b0	0f 84 10 0d 00
	00		 je	 $LN655@CreateNorm
  015b6	e8 00 00 00 00	 call	 ??0ioTryOutCheckBuff2@@QAE@XZ ; ioTryOutCheckBuff2::ioTryOutCheckBuff2
  015bb	e9 08 0d 00 00	 jmp	 $LN656@CreateNorm
$LN83@CreateNorm:

; 556  : 		break;
; 557  : 	case BT_CONCENTRATE_TARGET:
; 558  : 		pBuff = new ioConcentrateTargetBuff;

  015c0	68 04 0d 00 00	 push	 3332			; 00000d04H
  015c5	e8 00 00 00 00	 call	 ??2@YAPAXI@Z		; operator new
  015ca	59		 pop	 ecx
  015cb	8b c8		 mov	 ecx, eax
  015cd	89 4d 08	 mov	 DWORD PTR $T529831[ebp], ecx
  015d0	c7 45 fc 87 00
	00 00		 mov	 DWORD PTR __$EHRec$[ebp+8], 135 ; 00000087H
  015d7	85 c9		 test	 ecx, ecx
  015d9	0f 84 e7 0c 00
	00		 je	 $LN655@CreateNorm
  015df	e8 00 00 00 00	 call	 ??0ioConcentrateTargetBuff@@QAE@XZ ; ioConcentrateTargetBuff::ioConcentrateTargetBuff
  015e4	e9 df 0c 00 00	 jmp	 $LN656@CreateNorm
$LN82@CreateNorm:

; 559  : 		break;
; 560  : 	case BT_CREATE_DUMMY_CHAR4:
; 561  : 		pBuff = new ioCreateDummyChar4Buff;

  015e9	68 e8 09 00 00	 push	 2536			; 000009e8H
  015ee	e8 00 00 00 00	 call	 ??2@YAPAXI@Z		; operator new
  015f3	59		 pop	 ecx
  015f4	8b c8		 mov	 ecx, eax
  015f6	89 4d 08	 mov	 DWORD PTR $T529835[ebp], ecx
  015f9	c7 45 fc 88 00
	00 00		 mov	 DWORD PTR __$EHRec$[ebp+8], 136 ; 00000088H
  01600	85 c9		 test	 ecx, ecx
  01602	0f 84 be 0c 00
	00		 je	 $LN655@CreateNorm
  01608	e8 00 00 00 00	 call	 ??0ioCreateDummyChar4Buff@@QAE@XZ ; ioCreateDummyChar4Buff::ioCreateDummyChar4Buff
  0160d	e9 b6 0c 00 00	 jmp	 $LN656@CreateNorm
$LN81@CreateNorm:

; 562  : 		break;
; 563  : 	case BT_TARGET_CONTOL:
; 564  : 		pBuff = new ioTargetControlBuff;

  01612	68 8c 09 00 00	 push	 2444			; 0000098cH
  01617	e8 00 00 00 00	 call	 ??2@YAPAXI@Z		; operator new
  0161c	59		 pop	 ecx
  0161d	8b c8		 mov	 ecx, eax
  0161f	89 4d 08	 mov	 DWORD PTR $T529839[ebp], ecx
  01622	c7 45 fc 89 00
	00 00		 mov	 DWORD PTR __$EHRec$[ebp+8], 137 ; 00000089H
  01629	85 c9		 test	 ecx, ecx
  0162b	0f 84 95 0c 00
	00		 je	 $LN655@CreateNorm
  01631	e8 00 00 00 00	 call	 ??0ioTargetControlBuff@@QAE@XZ ; ioTargetControlBuff::ioTargetControlBuff
  01636	e9 8d 0c 00 00	 jmp	 $LN656@CreateNorm
$LN80@CreateNorm:

; 565  : 		break;
; 566  : 	case BT_CREATE_BUFF:
; 567  : 		pBuff = new ioCreateBuff;

  0163b	68 7c 09 00 00	 push	 2428			; 0000097cH
  01640	e8 00 00 00 00	 call	 ??2@YAPAXI@Z		; operator new
  01645	59		 pop	 ecx
  01646	8b c8		 mov	 ecx, eax
  01648	89 4d 08	 mov	 DWORD PTR $T529843[ebp], ecx
  0164b	c7 45 fc 8a 00
	00 00		 mov	 DWORD PTR __$EHRec$[ebp+8], 138 ; 0000008aH
  01652	85 c9		 test	 ecx, ecx
  01654	0f 84 6c 0c 00
	00		 je	 $LN655@CreateNorm
  0165a	e8 00 00 00 00	 call	 ??0ioCreateBuff@@QAE@XZ	; ioCreateBuff::ioCreateBuff
  0165f	e9 64 0c 00 00	 jmp	 $LN656@CreateNorm
$LN79@CreateNorm:

; 568  : 		break;
; 569  : 	case BT_SKILL_GAUGE_CHECK:
; 570  : 		pBuff = new ioSkillGaugeCheckBuff;

  01664	68 74 09 00 00	 push	 2420			; 00000974H
  01669	e8 00 00 00 00	 call	 ??2@YAPAXI@Z		; operator new
  0166e	59		 pop	 ecx
  0166f	8b c8		 mov	 ecx, eax
  01671	89 4d 08	 mov	 DWORD PTR $T529847[ebp], ecx
  01674	c7 45 fc 8b 00
	00 00		 mov	 DWORD PTR __$EHRec$[ebp+8], 139 ; 0000008bH
  0167b	85 c9		 test	 ecx, ecx
  0167d	0f 84 43 0c 00
	00		 je	 $LN655@CreateNorm
  01683	e8 00 00 00 00	 call	 ??0ioSkillGaugeCheckBuff@@QAE@XZ ; ioSkillGaugeCheckBuff::ioSkillGaugeCheckBuff
  01688	e9 3b 0c 00 00	 jmp	 $LN656@CreateNorm
$LN78@CreateNorm:

; 571  : 		break;
; 572  : 	case BT_REFLECT_DAMAGE:
; 573  : 		pBuff = new ioReflectDamageBuff;

  0168d	68 80 09 00 00	 push	 2432			; 00000980H
  01692	e8 00 00 00 00	 call	 ??2@YAPAXI@Z		; operator new
  01697	59		 pop	 ecx
  01698	8b c8		 mov	 ecx, eax
  0169a	89 4d 08	 mov	 DWORD PTR $T529851[ebp], ecx
  0169d	c7 45 fc 8c 00
	00 00		 mov	 DWORD PTR __$EHRec$[ebp+8], 140 ; 0000008cH
  016a4	85 c9		 test	 ecx, ecx
  016a6	0f 84 1a 0c 00
	00		 je	 $LN655@CreateNorm
  016ac	e8 00 00 00 00	 call	 ??0ioReflectDamageBuff@@QAE@XZ ; ioReflectDamageBuff::ioReflectDamageBuff
  016b1	e9 12 0c 00 00	 jmp	 $LN656@CreateNorm
$LN77@CreateNorm:

; 574  : 		break;
; 575  : 	case BT_ALPHA_RATE:
; 576  : 		pBuff = new ioAlphaRateBuff;

  016b6	68 f8 0a 00 00	 push	 2808			; 00000af8H
  016bb	e8 00 00 00 00	 call	 ??2@YAPAXI@Z		; operator new
  016c0	59		 pop	 ecx
  016c1	8b c8		 mov	 ecx, eax
  016c3	89 4d 08	 mov	 DWORD PTR $T529855[ebp], ecx
  016c6	c7 45 fc 8d 00
	00 00		 mov	 DWORD PTR __$EHRec$[ebp+8], 141 ; 0000008dH
  016cd	85 c9		 test	 ecx, ecx
  016cf	0f 84 f1 0b 00
	00		 je	 $LN655@CreateNorm
  016d5	e8 00 00 00 00	 call	 ??0ioAlphaRateBuff@@QAE@XZ ; ioAlphaRateBuff::ioAlphaRateBuff
  016da	e9 e9 0b 00 00	 jmp	 $LN656@CreateNorm
$LN76@CreateNorm:

; 577  : 		break;
; 578  : 	case BT_CONTROL_WEAPON2:
; 579  : 		pBuff = new ioControlWeaponBuff2;

  016df	68 8c 0a 00 00	 push	 2700			; 00000a8cH
  016e4	e8 00 00 00 00	 call	 ??2@YAPAXI@Z		; operator new
  016e9	59		 pop	 ecx
  016ea	8b c8		 mov	 ecx, eax
  016ec	89 4d 08	 mov	 DWORD PTR $T529859[ebp], ecx
  016ef	c7 45 fc 8e 00
	00 00		 mov	 DWORD PTR __$EHRec$[ebp+8], 142 ; 0000008eH
  016f6	85 c9		 test	 ecx, ecx
  016f8	0f 84 c8 0b 00
	00		 je	 $LN655@CreateNorm
  016fe	e8 00 00 00 00	 call	 ??0ioControlWeaponBuff2@@QAE@XZ ; ioControlWeaponBuff2::ioControlWeaponBuff2
  01703	e9 c0 0b 00 00	 jmp	 $LN656@CreateNorm
$LN75@CreateNorm:

; 580  : 		break;
; 581  : 	case BT_CALL_DESTROY:
; 582  : 		pBuff = new ioDestroyCallBuff;

  01708	68 a0 09 00 00	 push	 2464			; 000009a0H
  0170d	e8 00 00 00 00	 call	 ??2@YAPAXI@Z		; operator new
  01712	59		 pop	 ecx
  01713	8b c8		 mov	 ecx, eax
  01715	89 4d 08	 mov	 DWORD PTR $T529863[ebp], ecx
  01718	c7 45 fc 8f 00
	00 00		 mov	 DWORD PTR __$EHRec$[ebp+8], 143 ; 0000008fH
  0171f	85 c9		 test	 ecx, ecx
  01721	0f 84 9f 0b 00
	00		 je	 $LN655@CreateNorm
  01727	e8 00 00 00 00	 call	 ??0ioDestroyCallBuff@@QAE@XZ ; ioDestroyCallBuff::ioDestroyCallBuff
  0172c	e9 97 0b 00 00	 jmp	 $LN656@CreateNorm
$LN74@CreateNorm:

; 583  : 		break;
; 584  : 	case BT_CREATE_WEAPON_COUNT:
; 585  : 		pBuff = new ioCreateWeaponCountBuff;

  01731	68 74 0a 00 00	 push	 2676			; 00000a74H
  01736	e8 00 00 00 00	 call	 ??2@YAPAXI@Z		; operator new
  0173b	59		 pop	 ecx
  0173c	8b c8		 mov	 ecx, eax
  0173e	89 4d 08	 mov	 DWORD PTR $T529867[ebp], ecx
  01741	c7 45 fc 90 00
	00 00		 mov	 DWORD PTR __$EHRec$[ebp+8], 144 ; 00000090H
  01748	85 c9		 test	 ecx, ecx
  0174a	0f 84 76 0b 00
	00		 je	 $LN655@CreateNorm
  01750	e8 00 00 00 00	 call	 ??0ioCreateWeaponCountBuff@@QAE@XZ ; ioCreateWeaponCountBuff::ioCreateWeaponCountBuff
  01755	e9 6e 0b 00 00	 jmp	 $LN656@CreateNorm
$LN73@CreateNorm:

; 586  : 		break;
; 587  : 	case BT_ROTATE_WEAPON:
; 588  : 		pBuff = new ioRotateWeaponBuff;

  0175a	68 dc 09 00 00	 push	 2524			; 000009dcH
  0175f	e8 00 00 00 00	 call	 ??2@YAPAXI@Z		; operator new
  01764	59		 pop	 ecx
  01765	8b c8		 mov	 ecx, eax
  01767	89 4d 08	 mov	 DWORD PTR $T529871[ebp], ecx
  0176a	c7 45 fc 91 00
	00 00		 mov	 DWORD PTR __$EHRec$[ebp+8], 145 ; 00000091H
  01771	85 c9		 test	 ecx, ecx
  01773	0f 84 4d 0b 00
	00		 je	 $LN655@CreateNorm
  01779	e8 00 00 00 00	 call	 ??0ioRotateWeaponBuff@@QAE@XZ ; ioRotateWeaponBuff::ioRotateWeaponBuff
  0177e	e9 45 0b 00 00	 jmp	 $LN656@CreateNorm
$LN72@CreateNorm:

; 589  : 		break;
; 590  : 	case BT_WEAK_AIRBOMB:
; 591  : 		pBuff = new ioWeakAirBombBuff;

  01783	68 74 09 00 00	 push	 2420			; 00000974H
  01788	e8 00 00 00 00	 call	 ??2@YAPAXI@Z		; operator new
  0178d	59		 pop	 ecx
  0178e	8b c8		 mov	 ecx, eax
  01790	89 4d 08	 mov	 DWORD PTR $T529875[ebp], ecx
  01793	c7 45 fc 92 00
	00 00		 mov	 DWORD PTR __$EHRec$[ebp+8], 146 ; 00000092H
  0179a	85 c9		 test	 ecx, ecx
  0179c	0f 84 24 0b 00
	00		 je	 $LN655@CreateNorm
  017a2	e8 00 00 00 00	 call	 ??0ioWeakAirBombBuff@@QAE@XZ ; ioWeakAirBombBuff::ioWeakAirBombBuff
  017a7	e9 1c 0b 00 00	 jmp	 $LN656@CreateNorm
$LN71@CreateNorm:

; 592  : 		break;
; 593  : 	case BT_DUMMY_ATTACH:
; 594  : 		pBuff = new ioDummyAttachBuff;

  017ac	68 04 0a 00 00	 push	 2564			; 00000a04H
  017b1	e8 00 00 00 00	 call	 ??2@YAPAXI@Z		; operator new
  017b6	59		 pop	 ecx
  017b7	8b c8		 mov	 ecx, eax
  017b9	89 4d 08	 mov	 DWORD PTR $T529879[ebp], ecx
  017bc	c7 45 fc 93 00
	00 00		 mov	 DWORD PTR __$EHRec$[ebp+8], 147 ; 00000093H
  017c3	85 c9		 test	 ecx, ecx
  017c5	0f 84 fb 0a 00
	00		 je	 $LN655@CreateNorm
  017cb	e8 00 00 00 00	 call	 ??0ioDummyAttachBuff@@QAE@XZ ; ioDummyAttachBuff::ioDummyAttachBuff
  017d0	e9 f3 0a 00 00	 jmp	 $LN656@CreateNorm
$LN70@CreateNorm:

; 595  : 		break;
; 596  : 	case BT_CREATE_DUMMY_CHAR5:
; 597  : 		pBuff = new ioCreateDummyChar5Buff;

  017d5	68 9c 0a 00 00	 push	 2716			; 00000a9cH
  017da	e8 00 00 00 00	 call	 ??2@YAPAXI@Z		; operator new
  017df	59		 pop	 ecx
  017e0	8b c8		 mov	 ecx, eax
  017e2	89 4d 08	 mov	 DWORD PTR $T529883[ebp], ecx
  017e5	c7 45 fc 94 00
	00 00		 mov	 DWORD PTR __$EHRec$[ebp+8], 148 ; 00000094H
  017ec	85 c9		 test	 ecx, ecx
  017ee	0f 84 d2 0a 00
	00		 je	 $LN655@CreateNorm
  017f4	e8 00 00 00 00	 call	 ??0ioCreateDummyChar5Buff@@QAE@XZ ; ioCreateDummyChar5Buff::ioCreateDummyChar5Buff
  017f9	e9 ca 0a 00 00	 jmp	 $LN656@CreateNorm
$LN69@CreateNorm:

; 598  : 		break;
; 599  : 	case BT_LOOK_WEAPON:
; 600  : 		pBuff = new ioLookatWeaponBuff;

  017fe	68 84 09 00 00	 push	 2436			; 00000984H
  01803	e8 00 00 00 00	 call	 ??2@YAPAXI@Z		; operator new
  01808	59		 pop	 ecx
  01809	8b c8		 mov	 ecx, eax
  0180b	89 4d 08	 mov	 DWORD PTR $T529887[ebp], ecx
  0180e	c7 45 fc 95 00
	00 00		 mov	 DWORD PTR __$EHRec$[ebp+8], 149 ; 00000095H
  01815	85 c9		 test	 ecx, ecx
  01817	0f 84 a9 0a 00
	00		 je	 $LN655@CreateNorm
  0181d	e8 00 00 00 00	 call	 ??0ioLookatWeaponBuff@@QAE@XZ ; ioLookatWeaponBuff::ioLookatWeaponBuff
  01822	e9 a1 0a 00 00	 jmp	 $LN656@CreateNorm
$LN68@CreateNorm:

; 601  : 		break;
; 602  : 	case BT_BUFF_FLY_JUMP2:
; 603  : 		pBuff = new ioFlyJumpBuff2;

  01827	68 8c 0a 00 00	 push	 2700			; 00000a8cH
  0182c	e8 00 00 00 00	 call	 ??2@YAPAXI@Z		; operator new
  01831	59		 pop	 ecx
  01832	8b c8		 mov	 ecx, eax
  01834	89 4d 08	 mov	 DWORD PTR $T529891[ebp], ecx
  01837	c7 45 fc 96 00
	00 00		 mov	 DWORD PTR __$EHRec$[ebp+8], 150 ; 00000096H
  0183e	85 c9		 test	 ecx, ecx
  01840	0f 84 80 0a 00
	00		 je	 $LN655@CreateNorm
  01846	e8 00 00 00 00	 call	 ??0ioFlyJumpBuff2@@QAE@XZ ; ioFlyJumpBuff2::ioFlyJumpBuff2
  0184b	e9 78 0a 00 00	 jmp	 $LN656@CreateNorm
$LN67@CreateNorm:

; 604  : 		break;
; 605  : 	case BT_TARGET_WEAPON:
; 606  : 		pBuff = new ioTargetCreateWeaponBuff;

  01850	68 b8 0b 00 00	 push	 3000			; 00000bb8H
  01855	e8 00 00 00 00	 call	 ??2@YAPAXI@Z		; operator new
  0185a	59		 pop	 ecx
  0185b	8b c8		 mov	 ecx, eax
  0185d	89 4d 08	 mov	 DWORD PTR $T529895[ebp], ecx
  01860	c7 45 fc 97 00
	00 00		 mov	 DWORD PTR __$EHRec$[ebp+8], 151 ; 00000097H
  01867	85 c9		 test	 ecx, ecx
  01869	0f 84 57 0a 00
	00		 je	 $LN655@CreateNorm
  0186f	e8 00 00 00 00	 call	 ??0ioTargetCreateWeaponBuff@@QAE@XZ ; ioTargetCreateWeaponBuff::ioTargetCreateWeaponBuff
  01874	e9 4f 0a 00 00	 jmp	 $LN656@CreateNorm
$LN66@CreateNorm:

; 607  : 		break;
; 608  : 	case BT_LOOK_DUMMY:
; 609  : 		pBuff = new ioLookatDummyBuff;

  01879	68 7c 09 00 00	 push	 2428			; 0000097cH
  0187e	e8 00 00 00 00	 call	 ??2@YAPAXI@Z		; operator new
  01883	59		 pop	 ecx
  01884	8b c8		 mov	 ecx, eax
  01886	89 4d 08	 mov	 DWORD PTR $T529899[ebp], ecx
  01889	c7 45 fc 98 00
	00 00		 mov	 DWORD PTR __$EHRec$[ebp+8], 152 ; 00000098H
  01890	85 c9		 test	 ecx, ecx
  01892	0f 84 2e 0a 00
	00		 je	 $LN655@CreateNorm
  01898	e8 00 00 00 00	 call	 ??0ioLookatDummyBuff@@QAE@XZ ; ioLookatDummyBuff::ioLookatDummyBuff
  0189d	e9 26 0a 00 00	 jmp	 $LN656@CreateNorm
$LN65@CreateNorm:

; 610  : 		break;
; 611  : 	case BT_CHECK_CHAIN:
; 612  : 		pBuff = new ioCheckChainBuff;

  018a2	68 e0 09 00 00	 push	 2528			; 000009e0H
  018a7	e8 00 00 00 00	 call	 ??2@YAPAXI@Z		; operator new
  018ac	59		 pop	 ecx
  018ad	8b c8		 mov	 ecx, eax
  018af	89 4d 08	 mov	 DWORD PTR $T529903[ebp], ecx
  018b2	c7 45 fc 99 00
	00 00		 mov	 DWORD PTR __$EHRec$[ebp+8], 153 ; 00000099H
  018b9	85 c9		 test	 ecx, ecx
  018bb	0f 84 05 0a 00
	00		 je	 $LN655@CreateNorm
  018c1	e8 00 00 00 00	 call	 ??0ioCheckChainBuff@@QAE@XZ ; ioCheckChainBuff::ioCheckChainBuff
  018c6	e9 fd 09 00 00	 jmp	 $LN656@CreateNorm
$LN64@CreateNorm:

; 613  : 		break;
; 614  : 	case BT_STATE_PROTECTION_BY_PASSIVE:
; 615  : 		pBuff = new ioStateProtectionByPassiveBuff;

  018cb	68 84 0a 00 00	 push	 2692			; 00000a84H
  018d0	e8 00 00 00 00	 call	 ??2@YAPAXI@Z		; operator new
  018d5	59		 pop	 ecx
  018d6	8b c8		 mov	 ecx, eax
  018d8	89 4d 08	 mov	 DWORD PTR $T529907[ebp], ecx
  018db	c7 45 fc 9a 00
	00 00		 mov	 DWORD PTR __$EHRec$[ebp+8], 154 ; 0000009aH
  018e2	85 c9		 test	 ecx, ecx
  018e4	0f 84 dc 09 00
	00		 je	 $LN655@CreateNorm
  018ea	e8 00 00 00 00	 call	 ??0ioStateProtectionByPassiveBuff@@QAE@XZ ; ioStateProtectionByPassiveBuff::ioStateProtectionByPassiveBuff
  018ef	e9 d4 09 00 00	 jmp	 $LN656@CreateNorm
$LN63@CreateNorm:

; 616  : 		break;
; 617  : 	case BT_TARGET_MOVE:
; 618  : 		pBuff = new ioTargetMoveBuff;

  018f4	68 28 0b 00 00	 push	 2856			; 00000b28H
  018f9	e8 00 00 00 00	 call	 ??2@YAPAXI@Z		; operator new
  018fe	59		 pop	 ecx
  018ff	8b c8		 mov	 ecx, eax
  01901	89 4d 08	 mov	 DWORD PTR $T529911[ebp], ecx
  01904	c7 45 fc 9b 00
	00 00		 mov	 DWORD PTR __$EHRec$[ebp+8], 155 ; 0000009bH
  0190b	85 c9		 test	 ecx, ecx
  0190d	0f 84 b3 09 00
	00		 je	 $LN655@CreateNorm
  01913	e8 00 00 00 00	 call	 ??0ioTargetMoveBuff@@QAE@XZ ; ioTargetMoveBuff::ioTargetMoveBuff
  01918	e9 ab 09 00 00	 jmp	 $LN656@CreateNorm
$LN62@CreateNorm:

; 619  : 		break;
; 620  : 	case BT_SELF_CONTROL:
; 621  : 		pBuff = new ioSelfControlBuff;

  0191d	68 94 09 00 00	 push	 2452			; 00000994H
  01922	e8 00 00 00 00	 call	 ??2@YAPAXI@Z		; operator new
  01927	59		 pop	 ecx
  01928	8b c8		 mov	 ecx, eax
  0192a	89 4d 08	 mov	 DWORD PTR $T529915[ebp], ecx
  0192d	c7 45 fc 9c 00
	00 00		 mov	 DWORD PTR __$EHRec$[ebp+8], 156 ; 0000009cH
  01934	85 c9		 test	 ecx, ecx
  01936	0f 84 8a 09 00
	00		 je	 $LN655@CreateNorm
  0193c	e8 00 00 00 00	 call	 ??0ioSelfControlBuff@@QAE@XZ ; ioSelfControlBuff::ioSelfControlBuff
  01941	e9 82 09 00 00	 jmp	 $LN656@CreateNorm
$LN61@CreateNorm:

; 622  : 		break;
; 623  : 	case BT_TARGET_DUMMY:
; 624  : 		pBuff = new ioTargetDummyBuff;

  01946	68 fc 09 00 00	 push	 2556			; 000009fcH
  0194b	e8 00 00 00 00	 call	 ??2@YAPAXI@Z		; operator new
  01950	59		 pop	 ecx
  01951	8b c8		 mov	 ecx, eax
  01953	89 4d 08	 mov	 DWORD PTR $T529919[ebp], ecx
  01956	c7 45 fc 9d 00
	00 00		 mov	 DWORD PTR __$EHRec$[ebp+8], 157 ; 0000009dH
  0195d	85 c9		 test	 ecx, ecx
  0195f	0f 84 61 09 00
	00		 je	 $LN655@CreateNorm
  01965	e8 00 00 00 00	 call	 ??0ioTargetDummyBuff@@QAE@XZ ; ioTargetDummyBuff::ioTargetDummyBuff
  0196a	e9 59 09 00 00	 jmp	 $LN656@CreateNorm
$LN60@CreateNorm:

; 625  : 		break;
; 626  : 	case BT_ACTIVE_COUNT2:
; 627  : 		pBuff = new ioActiveCountBuff2;

  0196f	68 d0 09 00 00	 push	 2512			; 000009d0H
  01974	e8 00 00 00 00	 call	 ??2@YAPAXI@Z		; operator new
  01979	59		 pop	 ecx
  0197a	8b c8		 mov	 ecx, eax
  0197c	89 4d 08	 mov	 DWORD PTR $T529923[ebp], ecx
  0197f	c7 45 fc 9e 00
	00 00		 mov	 DWORD PTR __$EHRec$[ebp+8], 158 ; 0000009eH
  01986	85 c9		 test	 ecx, ecx
  01988	0f 84 38 09 00
	00		 je	 $LN655@CreateNorm
  0198e	e8 00 00 00 00	 call	 ??0ioActiveCountBuff2@@QAE@XZ ; ioActiveCountBuff2::ioActiveCountBuff2
  01993	e9 30 09 00 00	 jmp	 $LN656@CreateNorm
$LN59@CreateNorm:

; 628  : 		break;
; 629  : 	case BT_CREATE_DUMMY_CHAR6:
; 630  : 		pBuff = new ioCreateDummyChar6Buff;

  01998	68 e8 09 00 00	 push	 2536			; 000009e8H
  0199d	e8 00 00 00 00	 call	 ??2@YAPAXI@Z		; operator new
  019a2	59		 pop	 ecx
  019a3	8b c8		 mov	 ecx, eax
  019a5	89 4d 08	 mov	 DWORD PTR $T529927[ebp], ecx
  019a8	c7 45 fc 9f 00
	00 00		 mov	 DWORD PTR __$EHRec$[ebp+8], 159 ; 0000009fH
  019af	85 c9		 test	 ecx, ecx
  019b1	0f 84 0f 09 00
	00		 je	 $LN655@CreateNorm
  019b7	e8 00 00 00 00	 call	 ??0ioCreateDummyChar6Buff@@QAE@XZ ; ioCreateDummyChar6Buff::ioCreateDummyChar6Buff
  019bc	e9 07 09 00 00	 jmp	 $LN656@CreateNorm
$LN58@CreateNorm:

; 631  : 		break;
; 632  : 	case BT_AIR_BUFF:
; 633  : 		pBuff = new ioAirBuff;

  019c1	68 70 09 00 00	 push	 2416			; 00000970H
  019c6	e8 00 00 00 00	 call	 ??2@YAPAXI@Z		; operator new
  019cb	59		 pop	 ecx
  019cc	8b c8		 mov	 ecx, eax
  019ce	89 4d 08	 mov	 DWORD PTR $T529931[ebp], ecx
  019d1	c7 45 fc a0 00
	00 00		 mov	 DWORD PTR __$EHRec$[ebp+8], 160 ; 000000a0H
  019d8	85 c9		 test	 ecx, ecx
  019da	0f 84 e6 08 00
	00		 je	 $LN655@CreateNorm
  019e0	e8 00 00 00 00	 call	 ??0ioAirBuff@@QAE@XZ	; ioAirBuff::ioAirBuff
  019e5	e9 de 08 00 00	 jmp	 $LN656@CreateNorm
$LN57@CreateNorm:

; 634  : 		break;
; 635  : 	case BT_HIDE3:
; 636  : 		pBuff = new ioHide3Buff;

  019ea	68 88 09 00 00	 push	 2440			; 00000988H
  019ef	e8 00 00 00 00	 call	 ??2@YAPAXI@Z		; operator new
  019f4	59		 pop	 ecx
  019f5	8b c8		 mov	 ecx, eax
  019f7	89 4d 08	 mov	 DWORD PTR $T529935[ebp], ecx
  019fa	c7 45 fc a1 00
	00 00		 mov	 DWORD PTR __$EHRec$[ebp+8], 161 ; 000000a1H
  01a01	85 c9		 test	 ecx, ecx
  01a03	0f 84 bd 08 00
	00		 je	 $LN655@CreateNorm
  01a09	e8 00 00 00 00	 call	 ??0ioHide3Buff@@QAE@XZ	; ioHide3Buff::ioHide3Buff
  01a0e	e9 b5 08 00 00	 jmp	 $LN656@CreateNorm
$LN56@CreateNorm:

; 637  : 		break;
; 638  : 	case BT_WARP_FIND_DUMMY:
; 639  : 		pBuff = new ioWarpFindDummyBuff;

  01a13	68 94 09 00 00	 push	 2452			; 00000994H
  01a18	e8 00 00 00 00	 call	 ??2@YAPAXI@Z		; operator new
  01a1d	59		 pop	 ecx
  01a1e	8b c8		 mov	 ecx, eax
  01a20	89 4d 08	 mov	 DWORD PTR $T529939[ebp], ecx
  01a23	c7 45 fc a2 00
	00 00		 mov	 DWORD PTR __$EHRec$[ebp+8], 162 ; 000000a2H
  01a2a	85 c9		 test	 ecx, ecx
  01a2c	0f 84 94 08 00
	00		 je	 $LN655@CreateNorm
  01a32	e8 00 00 00 00	 call	 ??0ioWarpFindDummyBuff@@QAE@XZ ; ioWarpFindDummyBuff::ioWarpFindDummyBuff
  01a37	e9 8c 08 00 00	 jmp	 $LN656@CreateNorm
$LN55@CreateNorm:

; 640  : 		break;
; 641  : 	case BT_MARK_BUFF:
; 642  : 		pBuff = new ioMarkBuff;

  01a3c	68 90 09 00 00	 push	 2448			; 00000990H
  01a41	e8 00 00 00 00	 call	 ??2@YAPAXI@Z		; operator new
  01a46	59		 pop	 ecx
  01a47	8b c8		 mov	 ecx, eax
  01a49	89 4d 08	 mov	 DWORD PTR $T529943[ebp], ecx
  01a4c	c7 45 fc a3 00
	00 00		 mov	 DWORD PTR __$EHRec$[ebp+8], 163 ; 000000a3H
  01a53	85 c9		 test	 ecx, ecx
  01a55	0f 84 6b 08 00
	00		 je	 $LN655@CreateNorm
  01a5b	e8 00 00 00 00	 call	 ??0ioMarkBuff@@QAE@XZ	; ioMarkBuff::ioMarkBuff
  01a60	e9 63 08 00 00	 jmp	 $LN656@CreateNorm
$LN54@CreateNorm:

; 643  : 		break;
; 644  : 	case BT_DUMMY_ATTACH2:
; 645  : 		pBuff = new ioDummyAttachBuff2;

  01a65	68 9c 09 00 00	 push	 2460			; 0000099cH
  01a6a	e8 00 00 00 00	 call	 ??2@YAPAXI@Z		; operator new
  01a6f	59		 pop	 ecx
  01a70	8b c8		 mov	 ecx, eax
  01a72	89 4d 08	 mov	 DWORD PTR $T529947[ebp], ecx
  01a75	c7 45 fc a4 00
	00 00		 mov	 DWORD PTR __$EHRec$[ebp+8], 164 ; 000000a4H
  01a7c	85 c9		 test	 ecx, ecx
  01a7e	0f 84 42 08 00
	00		 je	 $LN655@CreateNorm
  01a84	e8 00 00 00 00	 call	 ??0ioDummyAttachBuff2@@QAE@XZ ; ioDummyAttachBuff2::ioDummyAttachBuff2
  01a89	e9 3a 08 00 00	 jmp	 $LN656@CreateNorm
$LN53@CreateNorm:

; 646  : 		break;
; 647  : 	case BT_CHECK_LIFE2:
; 648  : 		pBuff = new ioCheckLifeBuff2;

  01a8e	68 94 09 00 00	 push	 2452			; 00000994H
  01a93	e8 00 00 00 00	 call	 ??2@YAPAXI@Z		; operator new
  01a98	59		 pop	 ecx
  01a99	8b c8		 mov	 ecx, eax
  01a9b	89 4d 08	 mov	 DWORD PTR $T529951[ebp], ecx
  01a9e	c7 45 fc a5 00
	00 00		 mov	 DWORD PTR __$EHRec$[ebp+8], 165 ; 000000a5H
  01aa5	85 c9		 test	 ecx, ecx
  01aa7	0f 84 19 08 00
	00		 je	 $LN655@CreateNorm
  01aad	e8 00 00 00 00	 call	 ??0ioCheckLifeBuff2@@QAE@XZ ; ioCheckLifeBuff2::ioCheckLifeBuff2
  01ab2	e9 11 08 00 00	 jmp	 $LN656@CreateNorm
$LN52@CreateNorm:

; 649  : 		break;
; 650  : 	case BT_CREATE_OBJECT_ITEM:
; 651  : 		pBuff = new ioCreateObjectItemBuff;

  01ab7	68 9c 09 00 00	 push	 2460			; 0000099cH
  01abc	e8 00 00 00 00	 call	 ??2@YAPAXI@Z		; operator new
  01ac1	59		 pop	 ecx
  01ac2	8b c8		 mov	 ecx, eax
  01ac4	89 4d 08	 mov	 DWORD PTR $T529955[ebp], ecx
  01ac7	c7 45 fc a6 00
	00 00		 mov	 DWORD PTR __$EHRec$[ebp+8], 166 ; 000000a6H
  01ace	85 c9		 test	 ecx, ecx
  01ad0	0f 84 f0 07 00
	00		 je	 $LN655@CreateNorm
  01ad6	e8 00 00 00 00	 call	 ??0ioCreateObjectItemBuff@@QAE@XZ ; ioCreateObjectItemBuff::ioCreateObjectItemBuff
  01adb	e9 e8 07 00 00	 jmp	 $LN656@CreateNorm
$LN51@CreateNorm:

; 652  : 		break;
; 653  : 	case BT_DUMMY_ATTACH3:
; 654  : 		pBuff = new ioDummyAttachBuff3;

  01ae0	68 b4 09 00 00	 push	 2484			; 000009b4H
  01ae5	e8 00 00 00 00	 call	 ??2@YAPAXI@Z		; operator new
  01aea	59		 pop	 ecx
  01aeb	8b c8		 mov	 ecx, eax
  01aed	89 4d 08	 mov	 DWORD PTR $T529959[ebp], ecx
  01af0	c7 45 fc a7 00
	00 00		 mov	 DWORD PTR __$EHRec$[ebp+8], 167 ; 000000a7H
  01af7	85 c9		 test	 ecx, ecx
  01af9	0f 84 c7 07 00
	00		 je	 $LN655@CreateNorm
  01aff	e8 00 00 00 00	 call	 ??0ioDummyAttachBuff3@@QAE@XZ ; ioDummyAttachBuff3::ioDummyAttachBuff3
  01b04	e9 bf 07 00 00	 jmp	 $LN656@CreateNorm
$LN50@CreateNorm:

; 655  : 		break;
; 656  : 	case BT_CHECK_JUMP:
; 657  : 		pBuff = new ioCheckJumpBuff;

  01b09	68 80 09 00 00	 push	 2432			; 00000980H
  01b0e	e8 00 00 00 00	 call	 ??2@YAPAXI@Z		; operator new
  01b13	59		 pop	 ecx
  01b14	8b c8		 mov	 ecx, eax
  01b16	89 4d 08	 mov	 DWORD PTR $T529963[ebp], ecx
  01b19	c7 45 fc a8 00
	00 00		 mov	 DWORD PTR __$EHRec$[ebp+8], 168 ; 000000a8H
  01b20	85 c9		 test	 ecx, ecx
  01b22	0f 84 9e 07 00
	00		 je	 $LN655@CreateNorm
  01b28	e8 00 00 00 00	 call	 ??0ioCheckJumpBuff@@QAE@XZ ; ioCheckJumpBuff::ioCheckJumpBuff
  01b2d	e9 96 07 00 00	 jmp	 $LN656@CreateNorm
$LN49@CreateNorm:

; 658  : 		break;
; 659  : 	case BT_HELICOPTER_ATTACH:
; 660  : 		pBuff = new ioHelipCopterAttachBuff;

  01b32	68 6c 0a 00 00	 push	 2668			; 00000a6cH
  01b37	e8 00 00 00 00	 call	 ??2@YAPAXI@Z		; operator new
  01b3c	59		 pop	 ecx
  01b3d	8b c8		 mov	 ecx, eax
  01b3f	89 4d 08	 mov	 DWORD PTR $T529967[ebp], ecx
  01b42	c7 45 fc a9 00
	00 00		 mov	 DWORD PTR __$EHRec$[ebp+8], 169 ; 000000a9H
  01b49	85 c9		 test	 ecx, ecx
  01b4b	0f 84 75 07 00
	00		 je	 $LN655@CreateNorm
  01b51	e8 00 00 00 00	 call	 ??0ioHelipCopterAttachBuff@@QAE@XZ ; ioHelipCopterAttachBuff::ioHelipCopterAttachBuff
  01b56	e9 6d 07 00 00	 jmp	 $LN656@CreateNorm
$LN48@CreateNorm:

; 661  : 		break;
; 662  : 	case BT_FLOAT2:
; 663  : 		pBuff = new ioFloatBuff2;

  01b5b	68 a0 09 00 00	 push	 2464			; 000009a0H
  01b60	e8 00 00 00 00	 call	 ??2@YAPAXI@Z		; operator new
  01b65	59		 pop	 ecx
  01b66	8b c8		 mov	 ecx, eax
  01b68	89 4d 08	 mov	 DWORD PTR $T529971[ebp], ecx
  01b6b	c7 45 fc aa 00
	00 00		 mov	 DWORD PTR __$EHRec$[ebp+8], 170 ; 000000aaH
  01b72	85 c9		 test	 ecx, ecx
  01b74	0f 84 4c 07 00
	00		 je	 $LN655@CreateNorm
  01b7a	e8 00 00 00 00	 call	 ??0ioFloatBuff2@@QAE@XZ	; ioFloatBuff2::ioFloatBuff2
  01b7f	e9 44 07 00 00	 jmp	 $LN656@CreateNorm
$LN47@CreateNorm:

; 664  : 		break;
; 665  : 	case BT_TARGET_WEAPON2:
; 666  : 		pBuff = new ioTargetCreateWeaponBuff2;

  01b84	68 88 0b 00 00	 push	 2952			; 00000b88H
  01b89	e8 00 00 00 00	 call	 ??2@YAPAXI@Z		; operator new
  01b8e	59		 pop	 ecx
  01b8f	8b c8		 mov	 ecx, eax
  01b91	89 4d 08	 mov	 DWORD PTR $T529975[ebp], ecx
  01b94	c7 45 fc ab 00
	00 00		 mov	 DWORD PTR __$EHRec$[ebp+8], 171 ; 000000abH
  01b9b	85 c9		 test	 ecx, ecx
  01b9d	0f 84 23 07 00
	00		 je	 $LN655@CreateNorm
  01ba3	e8 00 00 00 00	 call	 ??0ioTargetCreateWeaponBuff2@@QAE@XZ ; ioTargetCreateWeaponBuff2::ioTargetCreateWeaponBuff2
  01ba8	e9 1b 07 00 00	 jmp	 $LN656@CreateNorm
$LN46@CreateNorm:

; 667  : 		break;
; 668  : 	case BT_HIDE4:
; 669  : 		pBuff = new ioHide4Buff;

  01bad	68 9c 09 00 00	 push	 2460			; 0000099cH
  01bb2	e8 00 00 00 00	 call	 ??2@YAPAXI@Z		; operator new
  01bb7	59		 pop	 ecx
  01bb8	8b c8		 mov	 ecx, eax
  01bba	89 4d 08	 mov	 DWORD PTR $T529979[ebp], ecx
  01bbd	c7 45 fc ac 00
	00 00		 mov	 DWORD PTR __$EHRec$[ebp+8], 172 ; 000000acH
  01bc4	85 c9		 test	 ecx, ecx
  01bc6	0f 84 fa 06 00
	00		 je	 $LN655@CreateNorm
  01bcc	e8 00 00 00 00	 call	 ??0ioHide4Buff@@QAE@XZ	; ioHide4Buff::ioHide4Buff
  01bd1	e9 f2 06 00 00	 jmp	 $LN656@CreateNorm
$LN45@CreateNorm:

; 670  : 		break;
; 671  : 	case BT_TARGET_RUSH_ATTACK:
; 672  : 		pBuff = new ioTargetRushAttackBuff;

  01bd6	68 94 0a 00 00	 push	 2708			; 00000a94H
  01bdb	e8 00 00 00 00	 call	 ??2@YAPAXI@Z		; operator new
  01be0	59		 pop	 ecx
  01be1	8b c8		 mov	 ecx, eax
  01be3	89 4d 08	 mov	 DWORD PTR $T529983[ebp], ecx
  01be6	c7 45 fc ad 00
	00 00		 mov	 DWORD PTR __$EHRec$[ebp+8], 173 ; 000000adH
  01bed	85 c9		 test	 ecx, ecx
  01bef	0f 84 d1 06 00
	00		 je	 $LN655@CreateNorm
  01bf5	e8 00 00 00 00	 call	 ??0ioTargetRushAttackBuff@@QAE@XZ ; ioTargetRushAttackBuff::ioTargetRushAttackBuff
  01bfa	e9 c9 06 00 00	 jmp	 $LN656@CreateNorm
$LN44@CreateNorm:

; 673  : 		break;
; 674  : 	case BT_THUNDER_BIRD_HOLD:
; 675  : 		pBuff = new ioThunderBirdHoldBuff;

  01bff	68 98 09 00 00	 push	 2456			; 00000998H
  01c04	e8 00 00 00 00	 call	 ??2@YAPAXI@Z		; operator new
  01c09	59		 pop	 ecx
  01c0a	8b c8		 mov	 ecx, eax
  01c0c	89 4d 08	 mov	 DWORD PTR $T529987[ebp], ecx
  01c0f	c7 45 fc ae 00
	00 00		 mov	 DWORD PTR __$EHRec$[ebp+8], 174 ; 000000aeH
  01c16	85 c9		 test	 ecx, ecx
  01c18	0f 84 a8 06 00
	00		 je	 $LN655@CreateNorm
  01c1e	e8 00 00 00 00	 call	 ??0ioThunderBirdHoldBuff@@QAE@XZ ; ioThunderBirdHoldBuff::ioThunderBirdHoldBuff
  01c23	e9 a0 06 00 00	 jmp	 $LN656@CreateNorm
$LN43@CreateNorm:

; 676  : 		break;
; 677  : 	case BT_CHECK_STATE_END_ATTACK:
; 678  : 		pBuff = new ioCheckStateEndAttackBuff;

  01c28	68 a4 09 00 00	 push	 2468			; 000009a4H
  01c2d	e8 00 00 00 00	 call	 ??2@YAPAXI@Z		; operator new
  01c32	59		 pop	 ecx
  01c33	8b c8		 mov	 ecx, eax
  01c35	89 4d 08	 mov	 DWORD PTR $T529991[ebp], ecx
  01c38	c7 45 fc af 00
	00 00		 mov	 DWORD PTR __$EHRec$[ebp+8], 175 ; 000000afH
  01c3f	85 c9		 test	 ecx, ecx
  01c41	0f 84 7f 06 00
	00		 je	 $LN655@CreateNorm
  01c47	e8 00 00 00 00	 call	 ??0ioCheckStateEndAttackBuff@@QAE@XZ ; ioCheckStateEndAttackBuff::ioCheckStateEndAttackBuff
  01c4c	e9 77 06 00 00	 jmp	 $LN656@CreateNorm
$LN42@CreateNorm:

; 679  : 		break;
; 680  : 	case BT_CHECK_STATE_END_CALL_BUFF:
; 681  : 		pBuff = new ioCheckStateEndCallBuff;

  01c51	68 88 09 00 00	 push	 2440			; 00000988H
  01c56	e8 00 00 00 00	 call	 ??2@YAPAXI@Z		; operator new
  01c5b	59		 pop	 ecx
  01c5c	8b c8		 mov	 ecx, eax
  01c5e	89 4d 08	 mov	 DWORD PTR $T529995[ebp], ecx
  01c61	c7 45 fc b0 00
	00 00		 mov	 DWORD PTR __$EHRec$[ebp+8], 176 ; 000000b0H
  01c68	85 c9		 test	 ecx, ecx
  01c6a	0f 84 56 06 00
	00		 je	 $LN655@CreateNorm
  01c70	e8 00 00 00 00	 call	 ??0ioCheckStateEndCallBuff@@QAE@XZ ; ioCheckStateEndCallBuff::ioCheckStateEndCallBuff
  01c75	e9 4e 06 00 00	 jmp	 $LN656@CreateNorm
$LN41@CreateNorm:

; 682  : 		break;		
; 683  : 	case BT_MAP_EFFECT_BUFF:
; 684  : 		pBuff = new ioMapEffectBuff;

  01c7a	68 e8 09 00 00	 push	 2536			; 000009e8H
  01c7f	e8 00 00 00 00	 call	 ??2@YAPAXI@Z		; operator new
  01c84	59		 pop	 ecx
  01c85	8b c8		 mov	 ecx, eax
  01c87	89 4d 08	 mov	 DWORD PTR $T529999[ebp], ecx
  01c8a	c7 45 fc b1 00
	00 00		 mov	 DWORD PTR __$EHRec$[ebp+8], 177 ; 000000b1H
  01c91	85 c9		 test	 ecx, ecx
  01c93	0f 84 2d 06 00
	00		 je	 $LN655@CreateNorm
  01c99	e8 00 00 00 00	 call	 ??0ioMapEffectBuff@@QAE@XZ ; ioMapEffectBuff::ioMapEffectBuff
  01c9e	e9 25 06 00 00	 jmp	 $LN656@CreateNorm
$LN40@CreateNorm:

; 685  : 		break;
; 686  : 	case BT_CREATE_DUMMY_BY_ATTACKED_BUFF:
; 687  : 		pBuff = new ioCreateDummyByAttackedBuff;

  01ca3	68 9c 09 00 00	 push	 2460			; 0000099cH
  01ca8	e8 00 00 00 00	 call	 ??2@YAPAXI@Z		; operator new
  01cad	59		 pop	 ecx
  01cae	8b c8		 mov	 ecx, eax
  01cb0	89 4d 08	 mov	 DWORD PTR $T530003[ebp], ecx
  01cb3	c7 45 fc b2 00
	00 00		 mov	 DWORD PTR __$EHRec$[ebp+8], 178 ; 000000b2H
  01cba	85 c9		 test	 ecx, ecx
  01cbc	0f 84 04 06 00
	00		 je	 $LN655@CreateNorm
  01cc2	e8 00 00 00 00	 call	 ??0ioCreateDummyByAttackedBuff@@QAE@XZ ; ioCreateDummyByAttackedBuff::ioCreateDummyByAttackedBuff
  01cc7	e9 fc 05 00 00	 jmp	 $LN656@CreateNorm
$LN39@CreateNorm:

; 688  : 		break;
; 689  : 	case BT_MOVE_ATTACK:
; 690  : 		pBuff = new ioMoveAttackBuff;

  01ccc	68 e4 0a 00 00	 push	 2788			; 00000ae4H
  01cd1	e8 00 00 00 00	 call	 ??2@YAPAXI@Z		; operator new
  01cd6	59		 pop	 ecx
  01cd7	8b c8		 mov	 ecx, eax
  01cd9	89 4d 08	 mov	 DWORD PTR $T530007[ebp], ecx
  01cdc	c7 45 fc b3 00
	00 00		 mov	 DWORD PTR __$EHRec$[ebp+8], 179 ; 000000b3H
  01ce3	85 c9		 test	 ecx, ecx
  01ce5	0f 84 db 05 00
	00		 je	 $LN655@CreateNorm
  01ceb	e8 00 00 00 00	 call	 ??0ioMoveAttackBuff@@QAE@XZ ; ioMoveAttackBuff::ioMoveAttackBuff
  01cf0	e9 d3 05 00 00	 jmp	 $LN656@CreateNorm
$LN38@CreateNorm:

; 691  : 		break;
; 692  : 	case BT_DUMMY_CHAIN:
; 693  : 		pBuff = new ioDummyChainBuff;

  01cf5	68 f0 09 00 00	 push	 2544			; 000009f0H
  01cfa	e8 00 00 00 00	 call	 ??2@YAPAXI@Z		; operator new
  01cff	59		 pop	 ecx
  01d00	8b c8		 mov	 ecx, eax
  01d02	89 4d 08	 mov	 DWORD PTR $T530011[ebp], ecx
  01d05	c7 45 fc b4 00
	00 00		 mov	 DWORD PTR __$EHRec$[ebp+8], 180 ; 000000b4H
  01d0c	85 c9		 test	 ecx, ecx
  01d0e	0f 84 b2 05 00
	00		 je	 $LN655@CreateNorm
  01d14	e8 00 00 00 00	 call	 ??0ioDummyChainBuff@@QAE@XZ ; ioDummyChainBuff::ioDummyChainBuff
  01d19	e9 aa 05 00 00	 jmp	 $LN656@CreateNorm
$LN37@CreateNorm:

; 694  : 		break;
; 695  : 	case BT_CREATE_DUMMY_CHAR7:
; 696  : 		pBuff = new ioCreateDummyChar7Buff;

  01d1e	68 9c 0a 00 00	 push	 2716			; 00000a9cH
  01d23	e8 00 00 00 00	 call	 ??2@YAPAXI@Z		; operator new
  01d28	59		 pop	 ecx
  01d29	8b c8		 mov	 ecx, eax
  01d2b	89 4d 08	 mov	 DWORD PTR $T530015[ebp], ecx
  01d2e	c7 45 fc b5 00
	00 00		 mov	 DWORD PTR __$EHRec$[ebp+8], 181 ; 000000b5H
  01d35	85 c9		 test	 ecx, ecx
  01d37	0f 84 89 05 00
	00		 je	 $LN655@CreateNorm
  01d3d	e8 00 00 00 00	 call	 ??0ioCreateDummyChar7Buff@@QAE@XZ ; ioCreateDummyChar7Buff::ioCreateDummyChar7Buff
  01d42	e9 81 05 00 00	 jmp	 $LN656@CreateNorm
$LN36@CreateNorm:

; 697  : 		break;
; 698  : 	case BT_CHECK_CHAIN2:
; 699  : 		pBuff = new ioCheckChainBuff2;

  01d47	68 ac 09 00 00	 push	 2476			; 000009acH
  01d4c	e8 00 00 00 00	 call	 ??2@YAPAXI@Z		; operator new
  01d51	59		 pop	 ecx
  01d52	8b c8		 mov	 ecx, eax
  01d54	89 4d 08	 mov	 DWORD PTR $T530019[ebp], ecx
  01d57	c7 45 fc b6 00
	00 00		 mov	 DWORD PTR __$EHRec$[ebp+8], 182 ; 000000b6H
  01d5e	85 c9		 test	 ecx, ecx
  01d60	0f 84 60 05 00
	00		 je	 $LN655@CreateNorm
  01d66	e8 00 00 00 00	 call	 ??0ioCheckChainBuff2@@QAE@XZ ; ioCheckChainBuff2::ioCheckChainBuff2
  01d6b	e9 58 05 00 00	 jmp	 $LN656@CreateNorm
$LN35@CreateNorm:

; 700  : 		break;
; 701  : 	case BT_PASSENGER_BUFF:
; 702  : 		pBuff = new ioPassengerBuff;

  01d70	68 c4 0a 00 00	 push	 2756			; 00000ac4H
  01d75	e8 00 00 00 00	 call	 ??2@YAPAXI@Z		; operator new
  01d7a	59		 pop	 ecx
  01d7b	8b c8		 mov	 ecx, eax
  01d7d	89 4d 08	 mov	 DWORD PTR $T530023[ebp], ecx
  01d80	c7 45 fc b7 00
	00 00		 mov	 DWORD PTR __$EHRec$[ebp+8], 183 ; 000000b7H
  01d87	85 c9		 test	 ecx, ecx
  01d89	0f 84 37 05 00
	00		 je	 $LN655@CreateNorm
  01d8f	e8 00 00 00 00	 call	 ??0ioPassengerBuff@@QAE@XZ ; ioPassengerBuff::ioPassengerBuff
  01d94	e9 2f 05 00 00	 jmp	 $LN656@CreateNorm
$LN34@CreateNorm:

; 703  : 		break;
; 704  : 	case BT_CREATE_DUMMY_CHAR8:
; 705  : 		pBuff = new ioCreateDummyChar8Buff;

  01d99	68 9c 09 00 00	 push	 2460			; 0000099cH
  01d9e	e8 00 00 00 00	 call	 ??2@YAPAXI@Z		; operator new
  01da3	59		 pop	 ecx
  01da4	8b c8		 mov	 ecx, eax
  01da6	89 4d 08	 mov	 DWORD PTR $T530027[ebp], ecx
  01da9	c7 45 fc b8 00
	00 00		 mov	 DWORD PTR __$EHRec$[ebp+8], 184 ; 000000b8H
  01db0	85 c9		 test	 ecx, ecx
  01db2	0f 84 0e 05 00
	00		 je	 $LN655@CreateNorm
  01db8	e8 00 00 00 00	 call	 ??0ioCreateDummyChar8Buff@@QAE@XZ ; ioCreateDummyChar8Buff::ioCreateDummyChar8Buff
  01dbd	e9 06 05 00 00	 jmp	 $LN656@CreateNorm
$LN33@CreateNorm:

; 706  : 		break;
; 707  : 	case BT_FLY_JUMP_EXTRA_ATTACK:
; 708  : 		pBuff = new ioFlyJumpExtraAttackBuff;

  01dc2	68 d8 0b 00 00	 push	 3032			; 00000bd8H
  01dc7	e8 00 00 00 00	 call	 ??2@YAPAXI@Z		; operator new
  01dcc	59		 pop	 ecx
  01dcd	8b c8		 mov	 ecx, eax
  01dcf	89 4d 08	 mov	 DWORD PTR $T530031[ebp], ecx
  01dd2	c7 45 fc b9 00
	00 00		 mov	 DWORD PTR __$EHRec$[ebp+8], 185 ; 000000b9H
  01dd9	85 c9		 test	 ecx, ecx
  01ddb	0f 84 e5 04 00
	00		 je	 $LN655@CreateNorm
  01de1	e8 00 00 00 00	 call	 ??0ioFlyJumpExtraAttackBuff@@QAE@XZ ; ioFlyJumpExtraAttackBuff::ioFlyJumpExtraAttackBuff
  01de6	e9 dd 04 00 00	 jmp	 $LN656@CreateNorm
$LN32@CreateNorm:

; 709  : 		break;
; 710  : 	case BT_DUMMY_CHECK_BUFF:
; 711  : 		pBuff = new ioDummyCheckBuff;

  01deb	68 94 09 00 00	 push	 2452			; 00000994H
  01df0	e8 00 00 00 00	 call	 ??2@YAPAXI@Z		; operator new
  01df5	59		 pop	 ecx
  01df6	8b c8		 mov	 ecx, eax
  01df8	89 4d 08	 mov	 DWORD PTR $T530035[ebp], ecx
  01dfb	c7 45 fc ba 00
	00 00		 mov	 DWORD PTR __$EHRec$[ebp+8], 186 ; 000000baH
  01e02	85 c9		 test	 ecx, ecx
  01e04	0f 84 bc 04 00
	00		 je	 $LN655@CreateNorm
  01e0a	e8 00 00 00 00	 call	 ??0ioDummyCheckBuff@@QAE@XZ ; ioDummyCheckBuff::ioDummyCheckBuff
  01e0f	e9 b4 04 00 00	 jmp	 $LN656@CreateNorm
$LN31@CreateNorm:

; 712  : 		break;
; 713  : 	case BT_CREATE_WEAPON_BUFF2:
; 714  : 		pBuff = new ioCreateWeaponBuff2;

  01e14	68 6c 0a 00 00	 push	 2668			; 00000a6cH
  01e19	e8 00 00 00 00	 call	 ??2@YAPAXI@Z		; operator new
  01e1e	59		 pop	 ecx
  01e1f	8b c8		 mov	 ecx, eax
  01e21	89 4d 08	 mov	 DWORD PTR $T530039[ebp], ecx
  01e24	c7 45 fc bb 00
	00 00		 mov	 DWORD PTR __$EHRec$[ebp+8], 187 ; 000000bbH
  01e2b	85 c9		 test	 ecx, ecx
  01e2d	0f 84 93 04 00
	00		 je	 $LN655@CreateNorm
  01e33	e8 00 00 00 00	 call	 ??0ioCreateWeaponBuff2@@QAE@XZ ; ioCreateWeaponBuff2::ioCreateWeaponBuff2
  01e38	e9 8b 04 00 00	 jmp	 $LN656@CreateNorm
$LN30@CreateNorm:

; 715  : 		break;
; 716  : 	case BT_TARGET_MOVE_ATTACK:
; 717  : 		pBuff = new ioTargetMoveAttackBuff;

  01e3d	68 44 0b 00 00	 push	 2884			; 00000b44H
  01e42	e8 00 00 00 00	 call	 ??2@YAPAXI@Z		; operator new
  01e47	59		 pop	 ecx
  01e48	8b c8		 mov	 ecx, eax
  01e4a	89 4d 08	 mov	 DWORD PTR $T530043[ebp], ecx
  01e4d	c7 45 fc bc 00
	00 00		 mov	 DWORD PTR __$EHRec$[ebp+8], 188 ; 000000bcH
  01e54	85 c9		 test	 ecx, ecx
  01e56	0f 84 6a 04 00
	00		 je	 $LN655@CreateNorm
  01e5c	e8 00 00 00 00	 call	 ??0ioTargetMoveAttackBuff@@QAE@XZ ; ioTargetMoveAttackBuff::ioTargetMoveAttackBuff
  01e61	e9 62 04 00 00	 jmp	 $LN656@CreateNorm
$LN29@CreateNorm:

; 718  : 		break;
; 719  : 	case BT_WOUNDED_ADD_BUFF:
; 720  : 		pBuff = new ioWoundedAddBuff;

  01e66	68 b4 09 00 00	 push	 2484			; 000009b4H
  01e6b	e8 00 00 00 00	 call	 ??2@YAPAXI@Z		; operator new
  01e70	59		 pop	 ecx
  01e71	8b c8		 mov	 ecx, eax
  01e73	89 4d 08	 mov	 DWORD PTR $T530047[ebp], ecx
  01e76	c7 45 fc bd 00
	00 00		 mov	 DWORD PTR __$EHRec$[ebp+8], 189 ; 000000bdH
  01e7d	85 c9		 test	 ecx, ecx
  01e7f	0f 84 41 04 00
	00		 je	 $LN655@CreateNorm
  01e85	e8 00 00 00 00	 call	 ??0ioWoundedAddBuff@@QAE@XZ ; ioWoundedAddBuff::ioWoundedAddBuff
  01e8a	e9 39 04 00 00	 jmp	 $LN656@CreateNorm
$LN28@CreateNorm:

; 721  : 		break;
; 722  : 	case BT_CREATE_WEAPON_BUFF3:
; 723  : 		pBuff = new ioCreateWeaponBuff3;

  01e8f	68 20 0a 00 00	 push	 2592			; 00000a20H
  01e94	e8 00 00 00 00	 call	 ??2@YAPAXI@Z		; operator new
  01e99	59		 pop	 ecx
  01e9a	8b c8		 mov	 ecx, eax
  01e9c	89 4d 08	 mov	 DWORD PTR $T530051[ebp], ecx
  01e9f	c7 45 fc be 00
	00 00		 mov	 DWORD PTR __$EHRec$[ebp+8], 190 ; 000000beH
  01ea6	85 c9		 test	 ecx, ecx
  01ea8	0f 84 18 04 00
	00		 je	 $LN655@CreateNorm
  01eae	e8 00 00 00 00	 call	 ??0ioCreateWeaponBuff3@@QAE@XZ ; ioCreateWeaponBuff3::ioCreateWeaponBuff3
  01eb3	e9 10 04 00 00	 jmp	 $LN656@CreateNorm
$LN27@CreateNorm:

; 724  : 		break;
; 725  : 	case BT_ATTACHED_DUMMY:
; 726  : 		pBuff = new ioAttachedDummyBuff;

  01eb8	68 c8 09 00 00	 push	 2504			; 000009c8H
  01ebd	e8 00 00 00 00	 call	 ??2@YAPAXI@Z		; operator new
  01ec2	59		 pop	 ecx
  01ec3	8b c8		 mov	 ecx, eax
  01ec5	89 4d 08	 mov	 DWORD PTR $T530055[ebp], ecx
  01ec8	c7 45 fc bf 00
	00 00		 mov	 DWORD PTR __$EHRec$[ebp+8], 191 ; 000000bfH
  01ecf	85 c9		 test	 ecx, ecx
  01ed1	0f 84 ef 03 00
	00		 je	 $LN655@CreateNorm
  01ed7	e8 00 00 00 00	 call	 ??0ioAttachedDummyBuff@@QAE@XZ ; ioAttachedDummyBuff::ioAttachedDummyBuff
  01edc	e9 e7 03 00 00	 jmp	 $LN656@CreateNorm
$LN26@CreateNorm:

; 727  : 		break;
; 728  : 	case BT_ATTACK_COUNT_BUFF:
; 729  : 		pBuff = new ioAttackCountBuff;

  01ee1	68 bc 09 00 00	 push	 2492			; 000009bcH
  01ee6	e8 00 00 00 00	 call	 ??2@YAPAXI@Z		; operator new
  01eeb	59		 pop	 ecx
  01eec	8b c8		 mov	 ecx, eax
  01eee	89 4d 08	 mov	 DWORD PTR $T530059[ebp], ecx
  01ef1	c7 45 fc c0 00
	00 00		 mov	 DWORD PTR __$EHRec$[ebp+8], 192 ; 000000c0H
  01ef8	85 c9		 test	 ecx, ecx
  01efa	0f 84 c6 03 00
	00		 je	 $LN655@CreateNorm
  01f00	e8 00 00 00 00	 call	 ??0ioAttackCountBuff@@QAE@XZ ; ioAttackCountBuff::ioAttackCountBuff
  01f05	e9 be 03 00 00	 jmp	 $LN656@CreateNorm
$LN25@CreateNorm:

; 730  : 		break;
; 731  : 	case BT_CREATE_DUMMY_CHAR9:
; 732  : 		pBuff = new ioCreateDummyChar9Buff;

  01f0a	68 d8 0a 00 00	 push	 2776			; 00000ad8H
  01f0f	e8 00 00 00 00	 call	 ??2@YAPAXI@Z		; operator new
  01f14	59		 pop	 ecx
  01f15	8b c8		 mov	 ecx, eax
  01f17	89 4d 08	 mov	 DWORD PTR $T530063[ebp], ecx
  01f1a	c7 45 fc c1 00
	00 00		 mov	 DWORD PTR __$EHRec$[ebp+8], 193 ; 000000c1H
  01f21	85 c9		 test	 ecx, ecx
  01f23	0f 84 9d 03 00
	00		 je	 $LN655@CreateNorm
  01f29	e8 00 00 00 00	 call	 ??0ioCreateDummyChar9Buff@@QAE@XZ ; ioCreateDummyChar9Buff::ioCreateDummyChar9Buff
  01f2e	e9 95 03 00 00	 jmp	 $LN656@CreateNorm
$LN24@CreateNorm:

; 733  : 		break;
; 734  : 	case BT_HIT_COUNT_HOLD2:
; 735  : 		pBuff = new ioHitCountHoldBuff2;

  01f33	68 58 0a 00 00	 push	 2648			; 00000a58H
  01f38	e8 00 00 00 00	 call	 ??2@YAPAXI@Z		; operator new
  01f3d	59		 pop	 ecx
  01f3e	8b c8		 mov	 ecx, eax
  01f40	89 4d 08	 mov	 DWORD PTR $T530067[ebp], ecx
  01f43	c7 45 fc c2 00
	00 00		 mov	 DWORD PTR __$EHRec$[ebp+8], 194 ; 000000c2H
  01f4a	85 c9		 test	 ecx, ecx
  01f4c	0f 84 74 03 00
	00		 je	 $LN655@CreateNorm
  01f52	e8 00 00 00 00	 call	 ??0ioHitCountHoldBuff2@@QAE@XZ ; ioHitCountHoldBuff2::ioHitCountHoldBuff2
  01f57	e9 6c 03 00 00	 jmp	 $LN656@CreateNorm
$LN23@CreateNorm:

; 736  : 		break;
; 737  : 	case BT_CHECK_TARGET:
; 738  : 		pBuff = new ioCheckTargetBuff;

  01f5c	68 bc 09 00 00	 push	 2492			; 000009bcH
  01f61	e8 00 00 00 00	 call	 ??2@YAPAXI@Z		; operator new
  01f66	59		 pop	 ecx
  01f67	8b c8		 mov	 ecx, eax
  01f69	89 4d 08	 mov	 DWORD PTR $T530071[ebp], ecx
  01f6c	c7 45 fc c3 00
	00 00		 mov	 DWORD PTR __$EHRec$[ebp+8], 195 ; 000000c3H
  01f73	85 c9		 test	 ecx, ecx
  01f75	0f 84 4b 03 00
	00		 je	 $LN655@CreateNorm
  01f7b	e8 00 00 00 00	 call	 ??0ioCheckTargetBuff@@QAE@XZ ; ioCheckTargetBuff::ioCheckTargetBuff
  01f80	e9 43 03 00 00	 jmp	 $LN656@CreateNorm
$LN22@CreateNorm:

; 739  : 		break;
; 740  : 	case BT_ATTACHED_CREATOR_CHAR:
; 741  : 		pBuff = new ioAttachedCreatorCharBuff;

  01f85	68 b0 09 00 00	 push	 2480			; 000009b0H
  01f8a	e8 00 00 00 00	 call	 ??2@YAPAXI@Z		; operator new
  01f8f	59		 pop	 ecx
  01f90	8b c8		 mov	 ecx, eax
  01f92	89 4d 08	 mov	 DWORD PTR $T530075[ebp], ecx
  01f95	c7 45 fc c4 00
	00 00		 mov	 DWORD PTR __$EHRec$[ebp+8], 196 ; 000000c4H
  01f9c	85 c9		 test	 ecx, ecx
  01f9e	0f 84 22 03 00
	00		 je	 $LN655@CreateNorm
  01fa4	e8 00 00 00 00	 call	 ??0ioAttachedCreatorCharBuff@@QAE@XZ ; ioAttachedCreatorCharBuff::ioAttachedCreatorCharBuff
  01fa9	e9 1a 03 00 00	 jmp	 $LN656@CreateNorm
$LN21@CreateNorm:

; 742  : 		break;
; 743  : 	case BT_NOVICE_GRADE_EFFECT:
; 744  : 		pBuff = new ioNoviceGradeEffectBuff;

  01fae	68 94 09 00 00	 push	 2452			; 00000994H
  01fb3	e8 00 00 00 00	 call	 ??2@YAPAXI@Z		; operator new
  01fb8	59		 pop	 ecx
  01fb9	8b c8		 mov	 ecx, eax
  01fbb	89 4d 08	 mov	 DWORD PTR $T530079[ebp], ecx
  01fbe	c7 45 fc c5 00
	00 00		 mov	 DWORD PTR __$EHRec$[ebp+8], 197 ; 000000c5H
  01fc5	85 c9		 test	 ecx, ecx
  01fc7	0f 84 f9 02 00
	00		 je	 $LN655@CreateNorm
  01fcd	e8 00 00 00 00	 call	 ??0ioNoviceGradeEffectBuff@@QAE@XZ ; ioNoviceGradeEffectBuff::ioNoviceGradeEffectBuff
  01fd2	e9 f1 02 00 00	 jmp	 $LN656@CreateNorm
$LN20@CreateNorm:

; 745  : 		break;
; 746  : 	case BT_CALL_BUFF_ON_ATTACK2:
; 747  : 		pBuff = new ioCallBuffOnAttackBuff2;

  01fd7	68 80 09 00 00	 push	 2432			; 00000980H
  01fdc	e8 00 00 00 00	 call	 ??2@YAPAXI@Z		; operator new
  01fe1	59		 pop	 ecx
  01fe2	8b c8		 mov	 ecx, eax
  01fe4	89 4d 08	 mov	 DWORD PTR $T530083[ebp], ecx
  01fe7	c7 45 fc c6 00
	00 00		 mov	 DWORD PTR __$EHRec$[ebp+8], 198 ; 000000c6H
  01fee	85 c9		 test	 ecx, ecx
  01ff0	0f 84 d0 02 00
	00		 je	 $LN655@CreateNorm
  01ff6	e8 00 00 00 00	 call	 ??0ioCallBuffOnAttackBuff2@@QAE@XZ ; ioCallBuffOnAttackBuff2::ioCallBuffOnAttackBuff2
  01ffb	e9 c8 02 00 00	 jmp	 $LN656@CreateNorm
$LN19@CreateNorm:

; 748  : 		break;
; 749  : 	case BT_DEFENCE_CHANGE_BUFF:
; 750  : 		pBuff = new ioDefenceChangeBuff;

  02000	68 90 09 00 00	 push	 2448			; 00000990H
  02005	e8 00 00 00 00	 call	 ??2@YAPAXI@Z		; operator new
  0200a	59		 pop	 ecx
  0200b	8b c8		 mov	 ecx, eax
  0200d	89 4d 08	 mov	 DWORD PTR $T530087[ebp], ecx
  02010	c7 45 fc c7 00
	00 00		 mov	 DWORD PTR __$EHRec$[ebp+8], 199 ; 000000c7H
  02017	85 c9		 test	 ecx, ecx
  02019	0f 84 a7 02 00
	00		 je	 $LN655@CreateNorm
  0201f	e8 00 00 00 00	 call	 ??0ioDefenceChangeBuff@@QAE@XZ ; ioDefenceChangeBuff::ioDefenceChangeBuff
  02024	e9 9f 02 00 00	 jmp	 $LN656@CreateNorm
$LN18@CreateNorm:

; 751  : 		break;
; 752  : 	case BT_COUNT_GATHER_ATTACK:
; 753  : 		pBuff = new ioCountGatherAttackBuff;

  02029	68 cc 09 00 00	 push	 2508			; 000009ccH
  0202e	e8 00 00 00 00	 call	 ??2@YAPAXI@Z		; operator new
  02033	59		 pop	 ecx
  02034	8b c8		 mov	 ecx, eax
  02036	89 4d 08	 mov	 DWORD PTR $T530091[ebp], ecx
  02039	c7 45 fc c8 00
	00 00		 mov	 DWORD PTR __$EHRec$[ebp+8], 200 ; 000000c8H
  02040	85 c9		 test	 ecx, ecx
  02042	0f 84 7e 02 00
	00		 je	 $LN655@CreateNorm
  02048	e8 00 00 00 00	 call	 ??0ioCountGatherAttackBuff@@QAE@XZ ; ioCountGatherAttackBuff::ioCountGatherAttackBuff
  0204d	e9 76 02 00 00	 jmp	 $LN656@CreateNorm
$LN17@CreateNorm:

; 754  : 		break;
; 755  : 	case BT_KEY_MARK_ATTACK:
; 756  : 		pBuff = new ioKeyMarkAttackBuff;

  02052	68 e8 0b 00 00	 push	 3048			; 00000be8H
  02057	e8 00 00 00 00	 call	 ??2@YAPAXI@Z		; operator new
  0205c	59		 pop	 ecx
  0205d	8b c8		 mov	 ecx, eax
  0205f	89 4d 08	 mov	 DWORD PTR $T530095[ebp], ecx
  02062	c7 45 fc c9 00
	00 00		 mov	 DWORD PTR __$EHRec$[ebp+8], 201 ; 000000c9H
  02069	85 c9		 test	 ecx, ecx
  0206b	0f 84 55 02 00
	00		 je	 $LN655@CreateNorm
  02071	e8 00 00 00 00	 call	 ??0ioKeyMarkAttackBuff@@QAE@XZ ; ioKeyMarkAttackBuff::ioKeyMarkAttackBuff
  02076	e9 4d 02 00 00	 jmp	 $LN656@CreateNorm
$LN16@CreateNorm:

; 757  : 		break;
; 758  : 	case BT_BUFF_JUMP_ATTACK:
; 759  : 		pBuff = new ioJumpAttackBuff;

  0207b	68 e0 09 00 00	 push	 2528			; 000009e0H
  02080	e8 00 00 00 00	 call	 ??2@YAPAXI@Z		; operator new
  02085	59		 pop	 ecx
  02086	8b c8		 mov	 ecx, eax
  02088	89 4d 08	 mov	 DWORD PTR $T530099[ebp], ecx
  0208b	c7 45 fc ca 00
	00 00		 mov	 DWORD PTR __$EHRec$[ebp+8], 202 ; 000000caH
  02092	85 c9		 test	 ecx, ecx
  02094	0f 84 2c 02 00
	00		 je	 $LN655@CreateNorm
  0209a	e8 00 00 00 00	 call	 ??0ioJumpAttackBuff@@QAE@XZ ; ioJumpAttackBuff::ioJumpAttackBuff
  0209f	e9 24 02 00 00	 jmp	 $LN656@CreateNorm
$LN15@CreateNorm:

; 760  : 		break;
; 761  : 	case BT_CALL_AND_DIE:
; 762  : 		pBuff = new ioCallAndDieBuff;

  020a4	68 4c 0a 00 00	 push	 2636			; 00000a4cH
  020a9	e8 00 00 00 00	 call	 ??2@YAPAXI@Z		; operator new
  020ae	59		 pop	 ecx
  020af	8b c8		 mov	 ecx, eax
  020b1	89 4d 08	 mov	 DWORD PTR $T530103[ebp], ecx
  020b4	c7 45 fc cb 00
	00 00		 mov	 DWORD PTR __$EHRec$[ebp+8], 203 ; 000000cbH
  020bb	85 c9		 test	 ecx, ecx
  020bd	0f 84 03 02 00
	00		 je	 $LN655@CreateNorm
  020c3	e8 00 00 00 00	 call	 ??0ioCallAndDieBuff@@QAE@XZ ; ioCallAndDieBuff::ioCallAndDieBuff
  020c8	e9 fb 01 00 00	 jmp	 $LN656@CreateNorm
$LN14@CreateNorm:

; 763  : 		break;
; 764  : 	case BT_ACTIVE_COUNT3:
; 765  : 		pBuff = new ioActiveCountBuff3;

  020cd	68 e0 09 00 00	 push	 2528			; 000009e0H
  020d2	e8 00 00 00 00	 call	 ??2@YAPAXI@Z		; operator new
  020d7	59		 pop	 ecx
  020d8	8b c8		 mov	 ecx, eax
  020da	89 4d 08	 mov	 DWORD PTR $T530107[ebp], ecx
  020dd	c7 45 fc cc 00
	00 00		 mov	 DWORD PTR __$EHRec$[ebp+8], 204 ; 000000ccH
  020e4	85 c9		 test	 ecx, ecx
  020e6	0f 84 da 01 00
	00		 je	 $LN655@CreateNorm
  020ec	e8 00 00 00 00	 call	 ??0ioActiveCountBuff3@@QAE@XZ ; ioActiveCountBuff3::ioActiveCountBuff3
  020f1	e9 d2 01 00 00	 jmp	 $LN656@CreateNorm
$LN13@CreateNorm:

; 766  : 		break;
; 767  : 	case BT_ATTACHED_DUMMY2:
; 768  : 		pBuff = new ioAttachedDummyBuff2;

  020f6	68 d0 09 00 00	 push	 2512			; 000009d0H
  020fb	e8 00 00 00 00	 call	 ??2@YAPAXI@Z		; operator new
  02100	59		 pop	 ecx
  02101	8b c8		 mov	 ecx, eax
  02103	89 4d 08	 mov	 DWORD PTR $T530111[ebp], ecx
  02106	c7 45 fc cd 00
	00 00		 mov	 DWORD PTR __$EHRec$[ebp+8], 205 ; 000000cdH
  0210d	85 c9		 test	 ecx, ecx
  0210f	0f 84 b1 01 00
	00		 je	 $LN655@CreateNorm
  02115	e8 00 00 00 00	 call	 ??0ioAttachedDummyBuff2@@QAE@XZ ; ioAttachedDummyBuff2::ioAttachedDummyBuff2
  0211a	e9 a9 01 00 00	 jmp	 $LN656@CreateNorm
$LN12@CreateNorm:

; 769  : 		break;
; 770  : 	case BT_CREATE_AREA_WEAPON:
; 771  : 		pBuff = new ioCreateAreaWeaponBuff;

  0211f	68 94 09 00 00	 push	 2452			; 00000994H
  02124	e8 00 00 00 00	 call	 ??2@YAPAXI@Z		; operator new
  02129	59		 pop	 ecx
  0212a	8b c8		 mov	 ecx, eax
  0212c	89 4d 08	 mov	 DWORD PTR $T530115[ebp], ecx
  0212f	c7 45 fc ce 00
	00 00		 mov	 DWORD PTR __$EHRec$[ebp+8], 206 ; 000000ceH
  02136	85 c9		 test	 ecx, ecx
  02138	0f 84 88 01 00
	00		 je	 $LN655@CreateNorm
  0213e	e8 00 00 00 00	 call	 ??0ioCreateAreaWeaponBuff@@QAE@XZ ; ioCreateAreaWeaponBuff::ioCreateAreaWeaponBuff
  02143	e9 80 01 00 00	 jmp	 $LN656@CreateNorm
$LN11@CreateNorm:

; 772  : 		break;
; 773  : 	case BT_MOVE_ATTACK2:
; 774  : 		pBuff = new ioMoveAttackBuff2;

  02148	68 10 0b 00 00	 push	 2832			; 00000b10H
  0214d	e8 00 00 00 00	 call	 ??2@YAPAXI@Z		; operator new
  02152	59		 pop	 ecx
  02153	8b c8		 mov	 ecx, eax
  02155	89 4d 08	 mov	 DWORD PTR $T530119[ebp], ecx
  02158	c7 45 fc cf 00
	00 00		 mov	 DWORD PTR __$EHRec$[ebp+8], 207 ; 000000cfH
  0215f	85 c9		 test	 ecx, ecx
  02161	0f 84 5f 01 00
	00		 je	 $LN655@CreateNorm
  02167	e8 00 00 00 00	 call	 ??0ioMoveAttackBuff2@@QAE@XZ ; ioMoveAttackBuff2::ioMoveAttackBuff2
  0216c	e9 57 01 00 00	 jmp	 $LN656@CreateNorm
$LN10@CreateNorm:

; 775  : 		break;
; 776  : 	case BT_TARGET_WEAPON3:
; 777  : 		pBuff = new ioTargetCreateWeaponBuff3;

  02171	68 6c 0b 00 00	 push	 2924			; 00000b6cH
  02176	e8 00 00 00 00	 call	 ??2@YAPAXI@Z		; operator new
  0217b	59		 pop	 ecx
  0217c	8b c8		 mov	 ecx, eax
  0217e	89 4d 08	 mov	 DWORD PTR $T530123[ebp], ecx
  02181	c7 45 fc d0 00
	00 00		 mov	 DWORD PTR __$EHRec$[ebp+8], 208 ; 000000d0H
  02188	85 c9		 test	 ecx, ecx
  0218a	0f 84 36 01 00
	00		 je	 $LN655@CreateNorm
  02190	e8 00 00 00 00	 call	 ??0ioTargetCreateWeaponBuff3@@QAE@XZ ; ioTargetCreateWeaponBuff3::ioTargetCreateWeaponBuff3
  02195	e9 2e 01 00 00	 jmp	 $LN656@CreateNorm
$LN9@CreateNorm:

; 778  : 		break;
; 779  : 	case BT_SKILL_ATTACK_BUFF:
; 780  : 		pBuff = new ioSkillAttackBuff;

  0219a	68 80 09 00 00	 push	 2432			; 00000980H
  0219f	e8 00 00 00 00	 call	 ??2@YAPAXI@Z		; operator new
  021a4	59		 pop	 ecx
  021a5	8b c8		 mov	 ecx, eax
  021a7	89 4d 08	 mov	 DWORD PTR $T530127[ebp], ecx
  021aa	c7 45 fc d1 00
	00 00		 mov	 DWORD PTR __$EHRec$[ebp+8], 209 ; 000000d1H
  021b1	85 c9		 test	 ecx, ecx
  021b3	0f 84 0d 01 00
	00		 je	 $LN655@CreateNorm
  021b9	e8 00 00 00 00	 call	 ??0ioSkillAttackBuff@@QAE@XZ ; ioSkillAttackBuff::ioSkillAttackBuff
  021be	e9 05 01 00 00	 jmp	 $LN656@CreateNorm
$LN8@CreateNorm:

; 781  : 		break;
; 782  : 	case BT_WEAPON_FOLLOWED_OWNER:
; 783  : 		pBuff = new ioWeaponFollowedOwnerBuff;

  021c3	68 c0 09 00 00	 push	 2496			; 000009c0H
  021c8	e8 00 00 00 00	 call	 ??2@YAPAXI@Z		; operator new
  021cd	59		 pop	 ecx
  021ce	8b c8		 mov	 ecx, eax
  021d0	89 4d 08	 mov	 DWORD PTR $T530131[ebp], ecx
  021d3	c7 45 fc d2 00
	00 00		 mov	 DWORD PTR __$EHRec$[ebp+8], 210 ; 000000d2H
  021da	85 c9		 test	 ecx, ecx
  021dc	0f 84 e4 00 00
	00		 je	 $LN655@CreateNorm
  021e2	e8 00 00 00 00	 call	 ??0ioWeaponFollowedOwnerBuff@@QAE@XZ ; ioWeaponFollowedOwnerBuff::ioWeaponFollowedOwnerBuff
  021e7	e9 dc 00 00 00	 jmp	 $LN656@CreateNorm
$LN7@CreateNorm:

; 784  : 		break;
; 785  : 	case BT_TARGET_WEAPON4:
; 786  : 		pBuff = new ioTargetCreateWeaponBuff4;

  021ec	68 f4 09 00 00	 push	 2548			; 000009f4H
  021f1	e8 00 00 00 00	 call	 ??2@YAPAXI@Z		; operator new
  021f6	59		 pop	 ecx
  021f7	8b c8		 mov	 ecx, eax
  021f9	89 4d 08	 mov	 DWORD PTR $T530135[ebp], ecx
  021fc	c7 45 fc d3 00
	00 00		 mov	 DWORD PTR __$EHRec$[ebp+8], 211 ; 000000d3H
  02203	85 c9		 test	 ecx, ecx
  02205	0f 84 bb 00 00
	00		 je	 $LN655@CreateNorm
  0220b	e8 00 00 00 00	 call	 ??0ioTargetCreateWeaponBuff4@@QAE@XZ ; ioTargetCreateWeaponBuff4::ioTargetCreateWeaponBuff4
  02210	e9 b3 00 00 00	 jmp	 $LN656@CreateNorm
$LN6@CreateNorm:

; 787  : 		break;
; 788  : 	case BT_FLY_FOLLOW_STATE:
; 789  : 		pBuff = new ioFlyFollowStateBuff;

  02215	68 a0 09 00 00	 push	 2464			; 000009a0H
  0221a	e8 00 00 00 00	 call	 ??2@YAPAXI@Z		; operator new
  0221f	59		 pop	 ecx
  02220	8b c8		 mov	 ecx, eax
  02222	89 4d 08	 mov	 DWORD PTR $T530139[ebp], ecx
  02225	c7 45 fc d4 00
	00 00		 mov	 DWORD PTR __$EHRec$[ebp+8], 212 ; 000000d4H
  0222c	85 c9		 test	 ecx, ecx
  0222e	0f 84 92 00 00
	00		 je	 $LN655@CreateNorm
  02234	e8 00 00 00 00	 call	 ??0ioFlyFollowStateBuff@@QAE@XZ ; ioFlyFollowStateBuff::ioFlyFollowStateBuff
  02239	e9 8a 00 00 00	 jmp	 $LN656@CreateNorm
$LN5@CreateNorm:

; 790  : 		break;
; 791  : 	case BT_FLY_FOLLOW_STATE2:
; 792  : 		pBuff = new ioFlyFollowStateBuff2;

  0223e	68 e8 09 00 00	 push	 2536			; 000009e8H
  02243	e8 00 00 00 00	 call	 ??2@YAPAXI@Z		; operator new
  02248	59		 pop	 ecx
  02249	8b c8		 mov	 ecx, eax
  0224b	89 4d 08	 mov	 DWORD PTR $T530143[ebp], ecx
  0224e	c7 45 fc d5 00
	00 00		 mov	 DWORD PTR __$EHRec$[ebp+8], 213 ; 000000d5H
  02255	85 c9		 test	 ecx, ecx
  02257	74 6d		 je	 SHORT $LN655@CreateNorm
  02259	e8 00 00 00 00	 call	 ??0ioFlyFollowStateBuff2@@QAE@XZ ; ioFlyFollowStateBuff2::ioFlyFollowStateBuff2
  0225e	eb 68		 jmp	 SHORT $LN656@CreateNorm
$LN4@CreateNorm:

; 793  : 		break;
; 794  : 	case BT_MOVE_AREA_WEAPON:
; 795  : 		pBuff = new ioMoveAreaWeaponBuff;

  02260	68 b0 09 00 00	 push	 2480			; 000009b0H
  02265	e8 00 00 00 00	 call	 ??2@YAPAXI@Z		; operator new
  0226a	59		 pop	 ecx
  0226b	8b c8		 mov	 ecx, eax
  0226d	89 4d 08	 mov	 DWORD PTR $T530147[ebp], ecx
  02270	c7 45 fc d6 00
	00 00		 mov	 DWORD PTR __$EHRec$[ebp+8], 214 ; 000000d6H
  02277	85 c9		 test	 ecx, ecx
  02279	74 4b		 je	 SHORT $LN655@CreateNorm
  0227b	e8 00 00 00 00	 call	 ??0ioMoveAreaWeaponBuff@@QAE@XZ ; ioMoveAreaWeaponBuff::ioMoveAreaWeaponBuff
  02280	eb 46		 jmp	 SHORT $LN656@CreateNorm
$LN3@CreateNorm:

; 796  : 		break;
; 797  : 	case BT_CREATE_WEAPON_BUFF4:
; 798  : 		pBuff = new ioCreateWeaponBuff4;

  02282	68 a8 0a 00 00	 push	 2728			; 00000aa8H
  02287	e8 00 00 00 00	 call	 ??2@YAPAXI@Z		; operator new
  0228c	59		 pop	 ecx
  0228d	8b c8		 mov	 ecx, eax
  0228f	89 4d 08	 mov	 DWORD PTR $T530151[ebp], ecx
  02292	c7 45 fc d7 00
	00 00		 mov	 DWORD PTR __$EHRec$[ebp+8], 215 ; 000000d7H
  02299	85 c9		 test	 ecx, ecx
  0229b	74 29		 je	 SHORT $LN655@CreateNorm
  0229d	e8 00 00 00 00	 call	 ??0ioCreateWeaponBuff4@@QAE@XZ ; ioCreateWeaponBuff4::ioCreateWeaponBuff4
  022a2	eb 24		 jmp	 SHORT $LN656@CreateNorm
$LN2@CreateNorm:

; 799  : 		break;
; 800  : 	case BT_CREATE_DUMMY_BY_ATTACKED_BUFF2:
; 801  : 		pBuff = new ioCreateDummyByAttackedBuff2;

  022a4	68 90 09 00 00	 push	 2448			; 00000990H
  022a9	e8 00 00 00 00	 call	 ??2@YAPAXI@Z		; operator new
  022ae	59		 pop	 ecx
  022af	8b c8		 mov	 ecx, eax
  022b1	89 4d 08	 mov	 DWORD PTR $T530155[ebp], ecx
  022b4	c7 45 fc d8 00
	00 00		 mov	 DWORD PTR __$EHRec$[ebp+8], 216 ; 000000d8H
  022bb	85 c9		 test	 ecx, ecx
  022bd	74 07		 je	 SHORT $LN655@CreateNorm
  022bf	e8 00 00 00 00	 call	 ??0ioCreateDummyByAttackedBuff2@@QAE@XZ ; ioCreateDummyByAttackedBuff2::ioCreateDummyByAttackedBuff2
  022c4	eb 02		 jmp	 SHORT $LN656@CreateNorm
$LN655@CreateNorm:
  022c6	33 c0		 xor	 eax, eax
$LN656@CreateNorm:
  022c8	83 4d fc ff	 or	 DWORD PTR __$EHRec$[ebp+8], -1
  022cc	8b f0		 mov	 esi, eax

; 802  : 		break;
; 803  : 	}
; 804  : 
; 805  : 	if( pBuff )

  022ce	85 f6		 test	 esi, esi
  022d0	74 16		 je	 SHORT $LN1@CreateNorm

; 806  : 	{
; 807  : 		pBuff->SetBuffCategory( iBuffCategory );

  022d2	ff 75 0c	 push	 DWORD PTR _iBuffCategory$[ebp]
  022d5	8b ce		 mov	 ecx, esi
  022d7	e8 00 00 00 00	 call	 ?SetBuffCategory@ioBuff@@QAEXH@Z ; ioBuff::SetBuffCategory

; 808  : 		pBuff->SetTypeID( iTypeID );

  022dc	57		 push	 edi
  022dd	8b ce		 mov	 ecx, esi
  022df	e8 00 00 00 00	 call	 ?SetTypeID@ioBuff@@QAEXH@Z ; ioBuff::SetTypeID

; 809  : 		return pBuff;

  022e4	8b c6		 mov	 eax, esi
  022e6	eb 19		 jmp	 SHORT $LN221@CreateNorm
$LN1@CreateNorm:

; 810  : 	}
; 811  : 
; 812  : 	LOG.PrintTimeAndLog( 0, "ioBuffMaker::CreateNormalBuffTemplete() Create Fail Buff: %d", iTypeID );

  022e8	57		 push	 edi
  022e9	68 00 00 00 00	 push	 OFFSET ??_C@_0DN@LAIAOGKK@ioBuffMaker?3?3CreateNormalBuffTem@
  022ee	6a 00		 push	 0
  022f0	ff 35 00 00 00
	00		 push	 DWORD PTR __imp_?LOG@@3VCLog@@A
  022f6	ff 15 00 00 00
	00		 call	 DWORD PTR __imp_?PrintTimeAndLog@CLog@@QAAXHPADZZ
  022fc	83 c4 10	 add	 esp, 16			; 00000010H

; 813  : 
; 814  : 	return NULL;

  022ff	33 c0		 xor	 eax, eax
$LN221@CreateNorm:

; 815  : }

  02301	e8 00 00 00 00	 call	 __EH_epilog3
  02306	c2 08 00	 ret	 8
  02309	8d 49 00	 npad	 3
$LN875@CreateNorm:
  0230c	00 00 00 00	 DD	 $LN218@CreateNorm
  02310	00 00 00 00	 DD	 $LN217@CreateNorm
  02314	00 00 00 00	 DD	 $LN216@CreateNorm
  02318	00 00 00 00	 DD	 $LN215@CreateNorm
  0231c	00 00 00 00	 DD	 $LN214@CreateNorm
  02320	00 00 00 00	 DD	 $LN213@CreateNorm
  02324	00 00 00 00	 DD	 $LN212@CreateNorm
  02328	00 00 00 00	 DD	 $LN211@CreateNorm
  0232c	00 00 00 00	 DD	 $LN210@CreateNorm
  02330	00 00 00 00	 DD	 $LN209@CreateNorm
  02334	00 00 00 00	 DD	 $LN207@CreateNorm
  02338	00 00 00 00	 DD	 $LN204@CreateNorm
  0233c	00 00 00 00	 DD	 $LN206@CreateNorm
  02340	00 00 00 00	 DD	 $LN203@CreateNorm
  02344	00 00 00 00	 DD	 $LN202@CreateNorm
  02348	00 00 00 00	 DD	 $LN201@CreateNorm
  0234c	00 00 00 00	 DD	 $LN200@CreateNorm
  02350	00 00 00 00	 DD	 $LN199@CreateNorm
  02354	00 00 00 00	 DD	 $LN198@CreateNorm
  02358	00 00 00 00	 DD	 $LN197@CreateNorm
  0235c	00 00 00 00	 DD	 $LN208@CreateNorm
  02360	00 00 00 00	 DD	 $LN205@CreateNorm
  02364	00 00 00 00	 DD	 $LN196@CreateNorm
  02368	00 00 00 00	 DD	 $LN195@CreateNorm
  0236c	00 00 00 00	 DD	 $LN194@CreateNorm
  02370	00 00 00 00	 DD	 $LN193@CreateNorm
  02374	00 00 00 00	 DD	 $LN192@CreateNorm
  02378	00 00 00 00	 DD	 $LN191@CreateNorm
  0237c	00 00 00 00	 DD	 $LN190@CreateNorm
  02380	00 00 00 00	 DD	 $LN1@CreateNorm
  02384	00 00 00 00	 DD	 $LN189@CreateNorm
  02388	00 00 00 00	 DD	 $LN188@CreateNorm
  0238c	00 00 00 00	 DD	 $LN187@CreateNorm
  02390	00 00 00 00	 DD	 $LN186@CreateNorm
  02394	00 00 00 00	 DD	 $LN185@CreateNorm
  02398	00 00 00 00	 DD	 $LN184@CreateNorm
  0239c	00 00 00 00	 DD	 $LN183@CreateNorm
  023a0	00 00 00 00	 DD	 $LN182@CreateNorm
  023a4	00 00 00 00	 DD	 $LN181@CreateNorm
  023a8	00 00 00 00	 DD	 $LN180@CreateNorm
  023ac	00 00 00 00	 DD	 $LN179@CreateNorm
  023b0	00 00 00 00	 DD	 $LN178@CreateNorm
  023b4	00 00 00 00	 DD	 $LN177@CreateNorm
  023b8	00 00 00 00	 DD	 $LN176@CreateNorm
  023bc	00 00 00 00	 DD	 $LN175@CreateNorm
  023c0	00 00 00 00	 DD	 $LN174@CreateNorm
  023c4	00 00 00 00	 DD	 $LN173@CreateNorm
  023c8	00 00 00 00	 DD	 $LN172@CreateNorm
  023cc	00 00 00 00	 DD	 $LN171@CreateNorm
  023d0	00 00 00 00	 DD	 $LN170@CreateNorm
  023d4	00 00 00 00	 DD	 $LN1@CreateNorm
  023d8	00 00 00 00	 DD	 $LN169@CreateNorm
  023dc	00 00 00 00	 DD	 $LN168@CreateNorm
  023e0	00 00 00 00	 DD	 $LN167@CreateNorm
  023e4	00 00 00 00	 DD	 $LN166@CreateNorm
  023e8	00 00 00 00	 DD	 $LN165@CreateNorm
  023ec	00 00 00 00	 DD	 $LN164@CreateNorm
  023f0	00 00 00 00	 DD	 $LN163@CreateNorm
  023f4	00 00 00 00	 DD	 $LN162@CreateNorm
  023f8	00 00 00 00	 DD	 $LN161@CreateNorm
  023fc	00 00 00 00	 DD	 $LN160@CreateNorm
  02400	00 00 00 00	 DD	 $LN159@CreateNorm
  02404	00 00 00 00	 DD	 $LN158@CreateNorm
  02408	00 00 00 00	 DD	 $LN157@CreateNorm
  0240c	00 00 00 00	 DD	 $LN156@CreateNorm
  02410	00 00 00 00	 DD	 $LN155@CreateNorm
  02414	00 00 00 00	 DD	 $LN154@CreateNorm
  02418	00 00 00 00	 DD	 $LN153@CreateNorm
  0241c	00 00 00 00	 DD	 $LN152@CreateNorm
  02420	00 00 00 00	 DD	 $LN151@CreateNorm
  02424	00 00 00 00	 DD	 $LN150@CreateNorm
  02428	00 00 00 00	 DD	 $LN149@CreateNorm
  0242c	00 00 00 00	 DD	 $LN148@CreateNorm
  02430	00 00 00 00	 DD	 $LN147@CreateNorm
  02434	00 00 00 00	 DD	 $LN146@CreateNorm
  02438	00 00 00 00	 DD	 $LN145@CreateNorm
  0243c	00 00 00 00	 DD	 $LN144@CreateNorm
  02440	00 00 00 00	 DD	 $LN143@CreateNorm
  02444	00 00 00 00	 DD	 $LN142@CreateNorm
  02448	00 00 00 00	 DD	 $LN141@CreateNorm
  0244c	00 00 00 00	 DD	 $LN140@CreateNorm
  02450	00 00 00 00	 DD	 $LN139@CreateNorm
  02454	00 00 00 00	 DD	 $LN138@CreateNorm
  02458	00 00 00 00	 DD	 $LN137@CreateNorm
  0245c	00 00 00 00	 DD	 $LN136@CreateNorm
  02460	00 00 00 00	 DD	 $LN135@CreateNorm
  02464	00 00 00 00	 DD	 $LN134@CreateNorm
  02468	00 00 00 00	 DD	 $LN133@CreateNorm
  0246c	00 00 00 00	 DD	 $LN132@CreateNorm
  02470	00 00 00 00	 DD	 $LN131@CreateNorm
  02474	00 00 00 00	 DD	 $LN129@CreateNorm
  02478	00 00 00 00	 DD	 $LN130@CreateNorm
  0247c	00 00 00 00	 DD	 $LN128@CreateNorm
  02480	00 00 00 00	 DD	 $LN127@CreateNorm
  02484	00 00 00 00	 DD	 $LN126@CreateNorm
  02488	00 00 00 00	 DD	 $LN125@CreateNorm
  0248c	00 00 00 00	 DD	 $LN124@CreateNorm
  02490	00 00 00 00	 DD	 $LN123@CreateNorm
  02494	00 00 00 00	 DD	 $LN122@CreateNorm
  02498	00 00 00 00	 DD	 $LN121@CreateNorm
  0249c	00 00 00 00	 DD	 $LN120@CreateNorm
  024a0	00 00 00 00	 DD	 $LN119@CreateNorm
  024a4	00 00 00 00	 DD	 $LN118@CreateNorm
  024a8	00 00 00 00	 DD	 $LN117@CreateNorm
  024ac	00 00 00 00	 DD	 $LN116@CreateNorm
  024b0	00 00 00 00	 DD	 $LN115@CreateNorm
  024b4	00 00 00 00	 DD	 $LN114@CreateNorm
  024b8	00 00 00 00	 DD	 $LN113@CreateNorm
  024bc	00 00 00 00	 DD	 $LN112@CreateNorm
  024c0	00 00 00 00	 DD	 $LN111@CreateNorm
  024c4	00 00 00 00	 DD	 $LN110@CreateNorm
  024c8	00 00 00 00	 DD	 $LN109@CreateNorm
  024cc	00 00 00 00	 DD	 $LN108@CreateNorm
  024d0	00 00 00 00	 DD	 $LN107@CreateNorm
  024d4	00 00 00 00	 DD	 $LN106@CreateNorm
  024d8	00 00 00 00	 DD	 $LN105@CreateNorm
  024dc	00 00 00 00	 DD	 $LN104@CreateNorm
  024e0	00 00 00 00	 DD	 $LN103@CreateNorm
  024e4	00 00 00 00	 DD	 $LN102@CreateNorm
  024e8	00 00 00 00	 DD	 $LN101@CreateNorm
  024ec	00 00 00 00	 DD	 $LN100@CreateNorm
  024f0	00 00 00 00	 DD	 $LN99@CreateNorm
  024f4	00 00 00 00	 DD	 $LN98@CreateNorm
  024f8	00 00 00 00	 DD	 $LN97@CreateNorm
  024fc	00 00 00 00	 DD	 $LN96@CreateNorm
  02500	00 00 00 00	 DD	 $LN95@CreateNorm
  02504	00 00 00 00	 DD	 $LN94@CreateNorm
  02508	00 00 00 00	 DD	 $LN93@CreateNorm
  0250c	00 00 00 00	 DD	 $LN92@CreateNorm
  02510	00 00 00 00	 DD	 $LN91@CreateNorm
  02514	00 00 00 00	 DD	 $LN90@CreateNorm
  02518	00 00 00 00	 DD	 $LN89@CreateNorm
  0251c	00 00 00 00	 DD	 $LN88@CreateNorm
  02520	00 00 00 00	 DD	 $LN87@CreateNorm
  02524	00 00 00 00	 DD	 $LN86@CreateNorm
  02528	00 00 00 00	 DD	 $LN85@CreateNorm
  0252c	00 00 00 00	 DD	 $LN83@CreateNorm
  02530	00 00 00 00	 DD	 $LN82@CreateNorm
  02534	00 00 00 00	 DD	 $LN81@CreateNorm
  02538	00 00 00 00	 DD	 $LN80@CreateNorm
  0253c	00 00 00 00	 DD	 $LN79@CreateNorm
  02540	00 00 00 00	 DD	 $LN78@CreateNorm
  02544	00 00 00 00	 DD	 $LN77@CreateNorm
  02548	00 00 00 00	 DD	 $LN76@CreateNorm
  0254c	00 00 00 00	 DD	 $LN75@CreateNorm
  02550	00 00 00 00	 DD	 $LN74@CreateNorm
  02554	00 00 00 00	 DD	 $LN73@CreateNorm
  02558	00 00 00 00	 DD	 $LN72@CreateNorm
  0255c	00 00 00 00	 DD	 $LN71@CreateNorm
  02560	00 00 00 00	 DD	 $LN70@CreateNorm
  02564	00 00 00 00	 DD	 $LN69@CreateNorm
  02568	00 00 00 00	 DD	 $LN68@CreateNorm
  0256c	00 00 00 00	 DD	 $LN67@CreateNorm
  02570	00 00 00 00	 DD	 $LN66@CreateNorm
  02574	00 00 00 00	 DD	 $LN65@CreateNorm
  02578	00 00 00 00	 DD	 $LN64@CreateNorm
  0257c	00 00 00 00	 DD	 $LN1@CreateNorm
  02580	00 00 00 00	 DD	 $LN63@CreateNorm
  02584	00 00 00 00	 DD	 $LN62@CreateNorm
  02588	00 00 00 00	 DD	 $LN61@CreateNorm
  0258c	00 00 00 00	 DD	 $LN60@CreateNorm
  02590	00 00 00 00	 DD	 $LN59@CreateNorm
  02594	00 00 00 00	 DD	 $LN58@CreateNorm
  02598	00 00 00 00	 DD	 $LN57@CreateNorm
  0259c	00 00 00 00	 DD	 $LN56@CreateNorm
  025a0	00 00 00 00	 DD	 $LN55@CreateNorm
  025a4	00 00 00 00	 DD	 $LN54@CreateNorm
  025a8	00 00 00 00	 DD	 $LN53@CreateNorm
  025ac	00 00 00 00	 DD	 $LN52@CreateNorm
  025b0	00 00 00 00	 DD	 $LN51@CreateNorm
  025b4	00 00 00 00	 DD	 $LN50@CreateNorm
  025b8	00 00 00 00	 DD	 $LN49@CreateNorm
  025bc	00 00 00 00	 DD	 $LN48@CreateNorm
  025c0	00 00 00 00	 DD	 $LN47@CreateNorm
  025c4	00 00 00 00	 DD	 $LN46@CreateNorm
  025c8	00 00 00 00	 DD	 $LN45@CreateNorm
  025cc	00 00 00 00	 DD	 $LN44@CreateNorm
  025d0	00 00 00 00	 DD	 $LN43@CreateNorm
  025d4	00 00 00 00	 DD	 $LN42@CreateNorm
  025d8	00 00 00 00	 DD	 $LN41@CreateNorm
  025dc	00 00 00 00	 DD	 $LN40@CreateNorm
  025e0	00 00 00 00	 DD	 $LN39@CreateNorm
  025e4	00 00 00 00	 DD	 $LN38@CreateNorm
  025e8	00 00 00 00	 DD	 $LN37@CreateNorm
  025ec	00 00 00 00	 DD	 $LN36@CreateNorm
  025f0	00 00 00 00	 DD	 $LN35@CreateNorm
  025f4	00 00 00 00	 DD	 $LN34@CreateNorm
  025f8	00 00 00 00	 DD	 $LN33@CreateNorm
  025fc	00 00 00 00	 DD	 $LN32@CreateNorm
  02600	00 00 00 00	 DD	 $LN31@CreateNorm
  02604	00 00 00 00	 DD	 $LN30@CreateNorm
  02608	00 00 00 00	 DD	 $LN29@CreateNorm
  0260c	00 00 00 00	 DD	 $LN28@CreateNorm
  02610	00 00 00 00	 DD	 $LN27@CreateNorm
  02614	00 00 00 00	 DD	 $LN26@CreateNorm
  02618	00 00 00 00	 DD	 $LN25@CreateNorm
  0261c	00 00 00 00	 DD	 $LN24@CreateNorm
  02620	00 00 00 00	 DD	 $LN23@CreateNorm
  02624	00 00 00 00	 DD	 $LN22@CreateNorm
  02628	00 00 00 00	 DD	 $LN21@CreateNorm
  0262c	00 00 00 00	 DD	 $LN20@CreateNorm
  02630	00 00 00 00	 DD	 $LN19@CreateNorm
  02634	00 00 00 00	 DD	 $LN18@CreateNorm
  02638	00 00 00 00	 DD	 $LN17@CreateNorm
  0263c	00 00 00 00	 DD	 $LN16@CreateNorm
  02640	00 00 00 00	 DD	 $LN84@CreateNorm
  02644	00 00 00 00	 DD	 $LN15@CreateNorm
  02648	00 00 00 00	 DD	 $LN14@CreateNorm
  0264c	00 00 00 00	 DD	 $LN13@CreateNorm
  02650	00 00 00 00	 DD	 $LN10@CreateNorm
  02654	00 00 00 00	 DD	 $LN9@CreateNorm
  02658	00 00 00 00	 DD	 $LN12@CreateNorm
  0265c	00 00 00 00	 DD	 $LN11@CreateNorm
  02660	00 00 00 00	 DD	 $LN8@CreateNorm
  02664	00 00 00 00	 DD	 $LN7@CreateNorm
  02668	00 00 00 00	 DD	 $LN6@CreateNorm
  0266c	00 00 00 00	 DD	 $LN5@CreateNorm
  02670	00 00 00 00	 DD	 $LN4@CreateNorm
  02674	00 00 00 00	 DD	 $LN1@CreateNorm
  02678	00 00 00 00	 DD	 $LN1@CreateNorm
  0267c	00 00 00 00	 DD	 $LN1@CreateNorm
  02680	00 00 00 00	 DD	 $LN1@CreateNorm
  02684	00 00 00 00	 DD	 $LN1@CreateNorm
  02688	00 00 00 00	 DD	 $LN1@CreateNorm
  0268c	00 00 00 00	 DD	 $LN1@CreateNorm
  02690	00 00 00 00	 DD	 $LN1@CreateNorm
  02694	00 00 00 00	 DD	 $LN1@CreateNorm
  02698	00 00 00 00	 DD	 $LN1@CreateNorm
  0269c	00 00 00 00	 DD	 $LN1@CreateNorm
  026a0	00 00 00 00	 DD	 $LN3@CreateNorm
  026a4	00 00 00 00	 DD	 $LN2@CreateNorm
_TEXT	ENDS
;	COMDAT text$x
text$x	SEGMENT
__unwindfunclet$?CreateNormalBuffTemplete@ioBuffMaker@@IAEPAVioBuff@@HH@Z$0:
  00000	ff 75 08	 push	 DWORD PTR $T529291[ebp]
  00003	e8 00 00 00 00	 call	 ??3@YAXPAX@Z		; operator delete
  00008	59		 pop	 ecx
  00009	c3		 ret	 0
__unwindfunclet$?CreateNormalBuffTemplete@ioBuffMaker@@IAEPAVioBuff@@HH@Z$1:
  0000a	ff 75 08	 push	 DWORD PTR $T529295[ebp]
  0000d	e8 00 00 00 00	 call	 ??3@YAXPAX@Z		; operator delete
  00012	59		 pop	 ecx
  00013	c3		 ret	 0
__unwindfunclet$?CreateNormalBuffTemplete@ioBuffMaker@@IAEPAVioBuff@@HH@Z$2:
  00014	ff 75 08	 push	 DWORD PTR $T529299[ebp]
  00017	e8 00 00 00 00	 call	 ??3@YAXPAX@Z		; operator delete
  0001c	59		 pop	 ecx
  0001d	c3		 ret	 0
__unwindfunclet$?CreateNormalBuffTemplete@ioBuffMaker@@IAEPAVioBuff@@HH@Z$3:
  0001e	ff 75 08	 push	 DWORD PTR $T529303[ebp]
  00021	e8 00 00 00 00	 call	 ??3@YAXPAX@Z		; operator delete
  00026	59		 pop	 ecx
  00027	c3		 ret	 0
__unwindfunclet$?CreateNormalBuffTemplete@ioBuffMaker@@IAEPAVioBuff@@HH@Z$4:
  00028	ff 75 08	 push	 DWORD PTR $T529307[ebp]
  0002b	e8 00 00 00 00	 call	 ??3@YAXPAX@Z		; operator delete
  00030	59		 pop	 ecx
  00031	c3		 ret	 0
__unwindfunclet$?CreateNormalBuffTemplete@ioBuffMaker@@IAEPAVioBuff@@HH@Z$5:
  00032	ff 75 08	 push	 DWORD PTR $T529311[ebp]
  00035	e8 00 00 00 00	 call	 ??3@YAXPAX@Z		; operator delete
  0003a	59		 pop	 ecx
  0003b	c3		 ret	 0
__unwindfunclet$?CreateNormalBuffTemplete@ioBuffMaker@@IAEPAVioBuff@@HH@Z$6:
  0003c	ff 75 08	 push	 DWORD PTR $T529315[ebp]
  0003f	e8 00 00 00 00	 call	 ??3@YAXPAX@Z		; operator delete
  00044	59		 pop	 ecx
  00045	c3		 ret	 0
__unwindfunclet$?CreateNormalBuffTemplete@ioBuffMaker@@IAEPAVioBuff@@HH@Z$7:
  00046	ff 75 08	 push	 DWORD PTR $T529319[ebp]
  00049	e8 00 00 00 00	 call	 ??3@YAXPAX@Z		; operator delete
  0004e	59		 pop	 ecx
  0004f	c3		 ret	 0
__unwindfunclet$?CreateNormalBuffTemplete@ioBuffMaker@@IAEPAVioBuff@@HH@Z$8:
  00050	ff 75 08	 push	 DWORD PTR $T529323[ebp]
  00053	e8 00 00 00 00	 call	 ??3@YAXPAX@Z		; operator delete
  00058	59		 pop	 ecx
  00059	c3		 ret	 0
__unwindfunclet$?CreateNormalBuffTemplete@ioBuffMaker@@IAEPAVioBuff@@HH@Z$9:
  0005a	ff 75 08	 push	 DWORD PTR $T529327[ebp]
  0005d	e8 00 00 00 00	 call	 ??3@YAXPAX@Z		; operator delete
  00062	59		 pop	 ecx
  00063	c3		 ret	 0
__unwindfunclet$?CreateNormalBuffTemplete@ioBuffMaker@@IAEPAVioBuff@@HH@Z$10:
  00064	ff 75 08	 push	 DWORD PTR $T529331[ebp]
  00067	e8 00 00 00 00	 call	 ??3@YAXPAX@Z		; operator delete
  0006c	59		 pop	 ecx
  0006d	c3		 ret	 0
__unwindfunclet$?CreateNormalBuffTemplete@ioBuffMaker@@IAEPAVioBuff@@HH@Z$11:
  0006e	ff 75 08	 push	 DWORD PTR $T529335[ebp]
  00071	e8 00 00 00 00	 call	 ??3@YAXPAX@Z		; operator delete
  00076	59		 pop	 ecx
  00077	c3		 ret	 0
__unwindfunclet$?CreateNormalBuffTemplete@ioBuffMaker@@IAEPAVioBuff@@HH@Z$12:
  00078	ff 75 08	 push	 DWORD PTR $T529339[ebp]
  0007b	e8 00 00 00 00	 call	 ??3@YAXPAX@Z		; operator delete
  00080	59		 pop	 ecx
  00081	c3		 ret	 0
__unwindfunclet$?CreateNormalBuffTemplete@ioBuffMaker@@IAEPAVioBuff@@HH@Z$13:
  00082	ff 75 08	 push	 DWORD PTR $T529343[ebp]
  00085	e8 00 00 00 00	 call	 ??3@YAXPAX@Z		; operator delete
  0008a	59		 pop	 ecx
  0008b	c3		 ret	 0
__unwindfunclet$?CreateNormalBuffTemplete@ioBuffMaker@@IAEPAVioBuff@@HH@Z$14:
  0008c	ff 75 08	 push	 DWORD PTR $T529347[ebp]
  0008f	e8 00 00 00 00	 call	 ??3@YAXPAX@Z		; operator delete
  00094	59		 pop	 ecx
  00095	c3		 ret	 0
__unwindfunclet$?CreateNormalBuffTemplete@ioBuffMaker@@IAEPAVioBuff@@HH@Z$15:
  00096	ff 75 08	 push	 DWORD PTR $T529351[ebp]
  00099	e8 00 00 00 00	 call	 ??3@YAXPAX@Z		; operator delete
  0009e	59		 pop	 ecx
  0009f	c3		 ret	 0
__unwindfunclet$?CreateNormalBuffTemplete@ioBuffMaker@@IAEPAVioBuff@@HH@Z$16:
  000a0	ff 75 08	 push	 DWORD PTR $T529355[ebp]
  000a3	e8 00 00 00 00	 call	 ??3@YAXPAX@Z		; operator delete
  000a8	59		 pop	 ecx
  000a9	c3		 ret	 0
__unwindfunclet$?CreateNormalBuffTemplete@ioBuffMaker@@IAEPAVioBuff@@HH@Z$17:
  000aa	ff 75 08	 push	 DWORD PTR $T529359[ebp]
  000ad	e8 00 00 00 00	 call	 ??3@YAXPAX@Z		; operator delete
  000b2	59		 pop	 ecx
  000b3	c3		 ret	 0
__unwindfunclet$?CreateNormalBuffTemplete@ioBuffMaker@@IAEPAVioBuff@@HH@Z$18:
  000b4	ff 75 08	 push	 DWORD PTR $T529363[ebp]
  000b7	e8 00 00 00 00	 call	 ??3@YAXPAX@Z		; operator delete
  000bc	59		 pop	 ecx
  000bd	c3		 ret	 0
__unwindfunclet$?CreateNormalBuffTemplete@ioBuffMaker@@IAEPAVioBuff@@HH@Z$19:
  000be	ff 75 08	 push	 DWORD PTR $T529367[ebp]
  000c1	e8 00 00 00 00	 call	 ??3@YAXPAX@Z		; operator delete
  000c6	59		 pop	 ecx
  000c7	c3		 ret	 0
__unwindfunclet$?CreateNormalBuffTemplete@ioBuffMaker@@IAEPAVioBuff@@HH@Z$20:
  000c8	ff 75 08	 push	 DWORD PTR $T529371[ebp]
  000cb	e8 00 00 00 00	 call	 ??3@YAXPAX@Z		; operator delete
  000d0	59		 pop	 ecx
  000d1	c3		 ret	 0
__unwindfunclet$?CreateNormalBuffTemplete@ioBuffMaker@@IAEPAVioBuff@@HH@Z$21:
  000d2	ff 75 08	 push	 DWORD PTR $T529375[ebp]
  000d5	e8 00 00 00 00	 call	 ??3@YAXPAX@Z		; operator delete
  000da	59		 pop	 ecx
  000db	c3		 ret	 0
__unwindfunclet$?CreateNormalBuffTemplete@ioBuffMaker@@IAEPAVioBuff@@HH@Z$22:
  000dc	ff 75 08	 push	 DWORD PTR $T529379[ebp]
  000df	e8 00 00 00 00	 call	 ??3@YAXPAX@Z		; operator delete
  000e4	59		 pop	 ecx
  000e5	c3		 ret	 0
__unwindfunclet$?CreateNormalBuffTemplete@ioBuffMaker@@IAEPAVioBuff@@HH@Z$23:
  000e6	ff 75 08	 push	 DWORD PTR $T529383[ebp]
  000e9	e8 00 00 00 00	 call	 ??3@YAXPAX@Z		; operator delete
  000ee	59		 pop	 ecx
  000ef	c3		 ret	 0
__unwindfunclet$?CreateNormalBuffTemplete@ioBuffMaker@@IAEPAVioBuff@@HH@Z$24:
  000f0	ff 75 08	 push	 DWORD PTR $T529387[ebp]
  000f3	e8 00 00 00 00	 call	 ??3@YAXPAX@Z		; operator delete
  000f8	59		 pop	 ecx
  000f9	c3		 ret	 0
__unwindfunclet$?CreateNormalBuffTemplete@ioBuffMaker@@IAEPAVioBuff@@HH@Z$25:
  000fa	ff 75 08	 push	 DWORD PTR $T529391[ebp]
  000fd	e8 00 00 00 00	 call	 ??3@YAXPAX@Z		; operator delete
  00102	59		 pop	 ecx
  00103	c3		 ret	 0
__unwindfunclet$?CreateNormalBuffTemplete@ioBuffMaker@@IAEPAVioBuff@@HH@Z$26:
  00104	ff 75 08	 push	 DWORD PTR $T529395[ebp]
  00107	e8 00 00 00 00	 call	 ??3@YAXPAX@Z		; operator delete
  0010c	59		 pop	 ecx
  0010d	c3		 ret	 0
__unwindfunclet$?CreateNormalBuffTemplete@ioBuffMaker@@IAEPAVioBuff@@HH@Z$27:
  0010e	ff 75 08	 push	 DWORD PTR $T529399[ebp]
  00111	e8 00 00 00 00	 call	 ??3@YAXPAX@Z		; operator delete
  00116	59		 pop	 ecx
  00117	c3		 ret	 0
__unwindfunclet$?CreateNormalBuffTemplete@ioBuffMaker@@IAEPAVioBuff@@HH@Z$28:
  00118	ff 75 08	 push	 DWORD PTR $T529403[ebp]
  0011b	e8 00 00 00 00	 call	 ??3@YAXPAX@Z		; operator delete
  00120	59		 pop	 ecx
  00121	c3		 ret	 0
__unwindfunclet$?CreateNormalBuffTemplete@ioBuffMaker@@IAEPAVioBuff@@HH@Z$29:
  00122	ff 75 08	 push	 DWORD PTR $T529407[ebp]
  00125	e8 00 00 00 00	 call	 ??3@YAXPAX@Z		; operator delete
  0012a	59		 pop	 ecx
  0012b	c3		 ret	 0
__unwindfunclet$?CreateNormalBuffTemplete@ioBuffMaker@@IAEPAVioBuff@@HH@Z$30:
  0012c	ff 75 08	 push	 DWORD PTR $T529411[ebp]
  0012f	e8 00 00 00 00	 call	 ??3@YAXPAX@Z		; operator delete
  00134	59		 pop	 ecx
  00135	c3		 ret	 0
__unwindfunclet$?CreateNormalBuffTemplete@ioBuffMaker@@IAEPAVioBuff@@HH@Z$31:
  00136	ff 75 08	 push	 DWORD PTR $T529415[ebp]
  00139	e8 00 00 00 00	 call	 ??3@YAXPAX@Z		; operator delete
  0013e	59		 pop	 ecx
  0013f	c3		 ret	 0
__unwindfunclet$?CreateNormalBuffTemplete@ioBuffMaker@@IAEPAVioBuff@@HH@Z$32:
  00140	ff 75 08	 push	 DWORD PTR $T529419[ebp]
  00143	e8 00 00 00 00	 call	 ??3@YAXPAX@Z		; operator delete
  00148	59		 pop	 ecx
  00149	c3		 ret	 0
__unwindfunclet$?CreateNormalBuffTemplete@ioBuffMaker@@IAEPAVioBuff@@HH@Z$33:
  0014a	ff 75 08	 push	 DWORD PTR $T529423[ebp]
  0014d	e8 00 00 00 00	 call	 ??3@YAXPAX@Z		; operator delete
  00152	59		 pop	 ecx
  00153	c3		 ret	 0
__unwindfunclet$?CreateNormalBuffTemplete@ioBuffMaker@@IAEPAVioBuff@@HH@Z$34:
  00154	ff 75 08	 push	 DWORD PTR $T529427[ebp]
  00157	e8 00 00 00 00	 call	 ??3@YAXPAX@Z		; operator delete
  0015c	59		 pop	 ecx
  0015d	c3		 ret	 0
__unwindfunclet$?CreateNormalBuffTemplete@ioBuffMaker@@IAEPAVioBuff@@HH@Z$35:
  0015e	ff 75 08	 push	 DWORD PTR $T529431[ebp]
  00161	e8 00 00 00 00	 call	 ??3@YAXPAX@Z		; operator delete
  00166	59		 pop	 ecx
  00167	c3		 ret	 0
__unwindfunclet$?CreateNormalBuffTemplete@ioBuffMaker@@IAEPAVioBuff@@HH@Z$36:
  00168	ff 75 08	 push	 DWORD PTR $T529435[ebp]
  0016b	e8 00 00 00 00	 call	 ??3@YAXPAX@Z		; operator delete
  00170	59		 pop	 ecx
  00171	c3		 ret	 0
__unwindfunclet$?CreateNormalBuffTemplete@ioBuffMaker@@IAEPAVioBuff@@HH@Z$37:
  00172	ff 75 08	 push	 DWORD PTR $T529439[ebp]
  00175	e8 00 00 00 00	 call	 ??3@YAXPAX@Z		; operator delete
  0017a	59		 pop	 ecx
  0017b	c3		 ret	 0
__unwindfunclet$?CreateNormalBuffTemplete@ioBuffMaker@@IAEPAVioBuff@@HH@Z$38:
  0017c	ff 75 08	 push	 DWORD PTR $T529443[ebp]
  0017f	e8 00 00 00 00	 call	 ??3@YAXPAX@Z		; operator delete
  00184	59		 pop	 ecx
  00185	c3		 ret	 0
__unwindfunclet$?CreateNormalBuffTemplete@ioBuffMaker@@IAEPAVioBuff@@HH@Z$39:
  00186	ff 75 08	 push	 DWORD PTR $T529447[ebp]
  00189	e8 00 00 00 00	 call	 ??3@YAXPAX@Z		; operator delete
  0018e	59		 pop	 ecx
  0018f	c3		 ret	 0
__unwindfunclet$?CreateNormalBuffTemplete@ioBuffMaker@@IAEPAVioBuff@@HH@Z$40:
  00190	ff 75 08	 push	 DWORD PTR $T529451[ebp]
  00193	e8 00 00 00 00	 call	 ??3@YAXPAX@Z		; operator delete
  00198	59		 pop	 ecx
  00199	c3		 ret	 0
__unwindfunclet$?CreateNormalBuffTemplete@ioBuffMaker@@IAEPAVioBuff@@HH@Z$41:
  0019a	ff 75 08	 push	 DWORD PTR $T529455[ebp]
  0019d	e8 00 00 00 00	 call	 ??3@YAXPAX@Z		; operator delete
  001a2	59		 pop	 ecx
  001a3	c3		 ret	 0
__unwindfunclet$?CreateNormalBuffTemplete@ioBuffMaker@@IAEPAVioBuff@@HH@Z$42:
  001a4	ff 75 08	 push	 DWORD PTR $T529459[ebp]
  001a7	e8 00 00 00 00	 call	 ??3@YAXPAX@Z		; operator delete
  001ac	59		 pop	 ecx
  001ad	c3		 ret	 0
__unwindfunclet$?CreateNormalBuffTemplete@ioBuffMaker@@IAEPAVioBuff@@HH@Z$43:
  001ae	ff 75 08	 push	 DWORD PTR $T529463[ebp]
  001b1	e8 00 00 00 00	 call	 ??3@YAXPAX@Z		; operator delete
  001b6	59		 pop	 ecx
  001b7	c3		 ret	 0
__unwindfunclet$?CreateNormalBuffTemplete@ioBuffMaker@@IAEPAVioBuff@@HH@Z$44:
  001b8	ff 75 08	 push	 DWORD PTR $T529467[ebp]
  001bb	e8 00 00 00 00	 call	 ??3@YAXPAX@Z		; operator delete
  001c0	59		 pop	 ecx
  001c1	c3		 ret	 0
__unwindfunclet$?CreateNormalBuffTemplete@ioBuffMaker@@IAEPAVioBuff@@HH@Z$45:
  001c2	ff 75 08	 push	 DWORD PTR $T529471[ebp]
  001c5	e8 00 00 00 00	 call	 ??3@YAXPAX@Z		; operator delete
  001ca	59		 pop	 ecx
  001cb	c3		 ret	 0
__unwindfunclet$?CreateNormalBuffTemplete@ioBuffMaker@@IAEPAVioBuff@@HH@Z$46:
  001cc	ff 75 08	 push	 DWORD PTR $T529475[ebp]
  001cf	e8 00 00 00 00	 call	 ??3@YAXPAX@Z		; operator delete
  001d4	59		 pop	 ecx
  001d5	c3		 ret	 0
__unwindfunclet$?CreateNormalBuffTemplete@ioBuffMaker@@IAEPAVioBuff@@HH@Z$47:
  001d6	ff 75 08	 push	 DWORD PTR $T529479[ebp]
  001d9	e8 00 00 00 00	 call	 ??3@YAXPAX@Z		; operator delete
  001de	59		 pop	 ecx
  001df	c3		 ret	 0
__unwindfunclet$?CreateNormalBuffTemplete@ioBuffMaker@@IAEPAVioBuff@@HH@Z$48:
  001e0	ff 75 08	 push	 DWORD PTR $T529483[ebp]
  001e3	e8 00 00 00 00	 call	 ??3@YAXPAX@Z		; operator delete
  001e8	59		 pop	 ecx
  001e9	c3		 ret	 0
__unwindfunclet$?CreateNormalBuffTemplete@ioBuffMaker@@IAEPAVioBuff@@HH@Z$49:
  001ea	ff 75 08	 push	 DWORD PTR $T529487[ebp]
  001ed	e8 00 00 00 00	 call	 ??3@YAXPAX@Z		; operator delete
  001f2	59		 pop	 ecx
  001f3	c3		 ret	 0
__unwindfunclet$?CreateNormalBuffTemplete@ioBuffMaker@@IAEPAVioBuff@@HH@Z$50:
  001f4	ff 75 08	 push	 DWORD PTR $T529491[ebp]
  001f7	e8 00 00 00 00	 call	 ??3@YAXPAX@Z		; operator delete
  001fc	59		 pop	 ecx
  001fd	c3		 ret	 0
__unwindfunclet$?CreateNormalBuffTemplete@ioBuffMaker@@IAEPAVioBuff@@HH@Z$51:
  001fe	ff 75 08	 push	 DWORD PTR $T529495[ebp]
  00201	e8 00 00 00 00	 call	 ??3@YAXPAX@Z		; operator delete
  00206	59		 pop	 ecx
  00207	c3		 ret	 0
__unwindfunclet$?CreateNormalBuffTemplete@ioBuffMaker@@IAEPAVioBuff@@HH@Z$52:
  00208	ff 75 08	 push	 DWORD PTR $T529499[ebp]
  0020b	e8 00 00 00 00	 call	 ??3@YAXPAX@Z		; operator delete
  00210	59		 pop	 ecx
  00211	c3		 ret	 0
__unwindfunclet$?CreateNormalBuffTemplete@ioBuffMaker@@IAEPAVioBuff@@HH@Z$53:
  00212	ff 75 08	 push	 DWORD PTR $T529503[ebp]
  00215	e8 00 00 00 00	 call	 ??3@YAXPAX@Z		; operator delete
  0021a	59		 pop	 ecx
  0021b	c3		 ret	 0
__unwindfunclet$?CreateNormalBuffTemplete@ioBuffMaker@@IAEPAVioBuff@@HH@Z$54:
  0021c	ff 75 08	 push	 DWORD PTR $T529507[ebp]
  0021f	e8 00 00 00 00	 call	 ??3@YAXPAX@Z		; operator delete
  00224	59		 pop	 ecx
  00225	c3		 ret	 0
__unwindfunclet$?CreateNormalBuffTemplete@ioBuffMaker@@IAEPAVioBuff@@HH@Z$55:
  00226	ff 75 08	 push	 DWORD PTR $T529511[ebp]
  00229	e8 00 00 00 00	 call	 ??3@YAXPAX@Z		; operator delete
  0022e	59		 pop	 ecx
  0022f	c3		 ret	 0
__unwindfunclet$?CreateNormalBuffTemplete@ioBuffMaker@@IAEPAVioBuff@@HH@Z$56:
  00230	ff 75 08	 push	 DWORD PTR $T529515[ebp]
  00233	e8 00 00 00 00	 call	 ??3@YAXPAX@Z		; operator delete
  00238	59		 pop	 ecx
  00239	c3		 ret	 0
__unwindfunclet$?CreateNormalBuffTemplete@ioBuffMaker@@IAEPAVioBuff@@HH@Z$57:
  0023a	ff 75 08	 push	 DWORD PTR $T529519[ebp]
  0023d	e8 00 00 00 00	 call	 ??3@YAXPAX@Z		; operator delete
  00242	59		 pop	 ecx
  00243	c3		 ret	 0
__unwindfunclet$?CreateNormalBuffTemplete@ioBuffMaker@@IAEPAVioBuff@@HH@Z$58:
  00244	ff 75 08	 push	 DWORD PTR $T529523[ebp]
  00247	e8 00 00 00 00	 call	 ??3@YAXPAX@Z		; operator delete
  0024c	59		 pop	 ecx
  0024d	c3		 ret	 0
__unwindfunclet$?CreateNormalBuffTemplete@ioBuffMaker@@IAEPAVioBuff@@HH@Z$59:
  0024e	ff 75 08	 push	 DWORD PTR $T529527[ebp]
  00251	e8 00 00 00 00	 call	 ??3@YAXPAX@Z		; operator delete
  00256	59		 pop	 ecx
  00257	c3		 ret	 0
__unwindfunclet$?CreateNormalBuffTemplete@ioBuffMaker@@IAEPAVioBuff@@HH@Z$60:
  00258	ff 75 08	 push	 DWORD PTR $T529531[ebp]
  0025b	e8 00 00 00 00	 call	 ??3@YAXPAX@Z		; operator delete
  00260	59		 pop	 ecx
  00261	c3		 ret	 0
__unwindfunclet$?CreateNormalBuffTemplete@ioBuffMaker@@IAEPAVioBuff@@HH@Z$61:
  00262	ff 75 08	 push	 DWORD PTR $T529535[ebp]
  00265	e8 00 00 00 00	 call	 ??3@YAXPAX@Z		; operator delete
  0026a	59		 pop	 ecx
  0026b	c3		 ret	 0
__unwindfunclet$?CreateNormalBuffTemplete@ioBuffMaker@@IAEPAVioBuff@@HH@Z$62:
  0026c	ff 75 08	 push	 DWORD PTR $T529539[ebp]
  0026f	e8 00 00 00 00	 call	 ??3@YAXPAX@Z		; operator delete
  00274	59		 pop	 ecx
  00275	c3		 ret	 0
__unwindfunclet$?CreateNormalBuffTemplete@ioBuffMaker@@IAEPAVioBuff@@HH@Z$63:
  00276	ff 75 08	 push	 DWORD PTR $T529543[ebp]
  00279	e8 00 00 00 00	 call	 ??3@YAXPAX@Z		; operator delete
  0027e	59		 pop	 ecx
  0027f	c3		 ret	 0
__unwindfunclet$?CreateNormalBuffTemplete@ioBuffMaker@@IAEPAVioBuff@@HH@Z$64:
  00280	ff 75 08	 push	 DWORD PTR $T529547[ebp]
  00283	e8 00 00 00 00	 call	 ??3@YAXPAX@Z		; operator delete
  00288	59		 pop	 ecx
  00289	c3		 ret	 0
__unwindfunclet$?CreateNormalBuffTemplete@ioBuffMaker@@IAEPAVioBuff@@HH@Z$65:
  0028a	ff 75 08	 push	 DWORD PTR $T529551[ebp]
  0028d	e8 00 00 00 00	 call	 ??3@YAXPAX@Z		; operator delete
  00292	59		 pop	 ecx
  00293	c3		 ret	 0
__unwindfunclet$?CreateNormalBuffTemplete@ioBuffMaker@@IAEPAVioBuff@@HH@Z$66:
  00294	ff 75 08	 push	 DWORD PTR $T529555[ebp]
  00297	e8 00 00 00 00	 call	 ??3@YAXPAX@Z		; operator delete
  0029c	59		 pop	 ecx
  0029d	c3		 ret	 0
__unwindfunclet$?CreateNormalBuffTemplete@ioBuffMaker@@IAEPAVioBuff@@HH@Z$67:
  0029e	ff 75 08	 push	 DWORD PTR $T529559[ebp]
  002a1	e8 00 00 00 00	 call	 ??3@YAXPAX@Z		; operator delete
  002a6	59		 pop	 ecx
  002a7	c3		 ret	 0
__unwindfunclet$?CreateNormalBuffTemplete@ioBuffMaker@@IAEPAVioBuff@@HH@Z$68:
  002a8	ff 75 08	 push	 DWORD PTR $T529563[ebp]
  002ab	e8 00 00 00 00	 call	 ??3@YAXPAX@Z		; operator delete
  002b0	59		 pop	 ecx
  002b1	c3		 ret	 0
__unwindfunclet$?CreateNormalBuffTemplete@ioBuffMaker@@IAEPAVioBuff@@HH@Z$69:
  002b2	ff 75 08	 push	 DWORD PTR $T529567[ebp]
  002b5	e8 00 00 00 00	 call	 ??3@YAXPAX@Z		; operator delete
  002ba	59		 pop	 ecx
  002bb	c3		 ret	 0
__unwindfunclet$?CreateNormalBuffTemplete@ioBuffMaker@@IAEPAVioBuff@@HH@Z$70:
  002bc	ff 75 08	 push	 DWORD PTR $T529571[ebp]
  002bf	e8 00 00 00 00	 call	 ??3@YAXPAX@Z		; operator delete
  002c4	59		 pop	 ecx
  002c5	c3		 ret	 0
__unwindfunclet$?CreateNormalBuffTemplete@ioBuffMaker@@IAEPAVioBuff@@HH@Z$71:
  002c6	ff 75 08	 push	 DWORD PTR $T529575[ebp]
  002c9	e8 00 00 00 00	 call	 ??3@YAXPAX@Z		; operator delete
  002ce	59		 pop	 ecx
  002cf	c3		 ret	 0
__unwindfunclet$?CreateNormalBuffTemplete@ioBuffMaker@@IAEPAVioBuff@@HH@Z$72:
  002d0	ff 75 08	 push	 DWORD PTR $T529579[ebp]
  002d3	e8 00 00 00 00	 call	 ??3@YAXPAX@Z		; operator delete
  002d8	59		 pop	 ecx
  002d9	c3		 ret	 0
__unwindfunclet$?CreateNormalBuffTemplete@ioBuffMaker@@IAEPAVioBuff@@HH@Z$73:
  002da	ff 75 08	 push	 DWORD PTR $T529583[ebp]
  002dd	e8 00 00 00 00	 call	 ??3@YAXPAX@Z		; operator delete
  002e2	59		 pop	 ecx
  002e3	c3		 ret	 0
__unwindfunclet$?CreateNormalBuffTemplete@ioBuffMaker@@IAEPAVioBuff@@HH@Z$74:
  002e4	ff 75 08	 push	 DWORD PTR $T529587[ebp]
  002e7	e8 00 00 00 00	 call	 ??3@YAXPAX@Z		; operator delete
  002ec	59		 pop	 ecx
  002ed	c3		 ret	 0
__unwindfunclet$?CreateNormalBuffTemplete@ioBuffMaker@@IAEPAVioBuff@@HH@Z$75:
  002ee	ff 75 08	 push	 DWORD PTR $T529591[ebp]
  002f1	e8 00 00 00 00	 call	 ??3@YAXPAX@Z		; operator delete
  002f6	59		 pop	 ecx
  002f7	c3		 ret	 0
__unwindfunclet$?CreateNormalBuffTemplete@ioBuffMaker@@IAEPAVioBuff@@HH@Z$76:
  002f8	ff 75 08	 push	 DWORD PTR $T529595[ebp]
  002fb	e8 00 00 00 00	 call	 ??3@YAXPAX@Z		; operator delete
  00300	59		 pop	 ecx
  00301	c3		 ret	 0
__unwindfunclet$?CreateNormalBuffTemplete@ioBuffMaker@@IAEPAVioBuff@@HH@Z$77:
  00302	ff 75 08	 push	 DWORD PTR $T529599[ebp]
  00305	e8 00 00 00 00	 call	 ??3@YAXPAX@Z		; operator delete
  0030a	59		 pop	 ecx
  0030b	c3		 ret	 0
__unwindfunclet$?CreateNormalBuffTemplete@ioBuffMaker@@IAEPAVioBuff@@HH@Z$78:
  0030c	ff 75 08	 push	 DWORD PTR $T529603[ebp]
  0030f	e8 00 00 00 00	 call	 ??3@YAXPAX@Z		; operator delete
  00314	59		 pop	 ecx
  00315	c3		 ret	 0
__unwindfunclet$?CreateNormalBuffTemplete@ioBuffMaker@@IAEPAVioBuff@@HH@Z$79:
  00316	ff 75 08	 push	 DWORD PTR $T529607[ebp]
  00319	e8 00 00 00 00	 call	 ??3@YAXPAX@Z		; operator delete
  0031e	59		 pop	 ecx
  0031f	c3		 ret	 0
__unwindfunclet$?CreateNormalBuffTemplete@ioBuffMaker@@IAEPAVioBuff@@HH@Z$80:
  00320	ff 75 08	 push	 DWORD PTR $T529611[ebp]
  00323	e8 00 00 00 00	 call	 ??3@YAXPAX@Z		; operator delete
  00328	59		 pop	 ecx
  00329	c3		 ret	 0
__unwindfunclet$?CreateNormalBuffTemplete@ioBuffMaker@@IAEPAVioBuff@@HH@Z$81:
  0032a	ff 75 08	 push	 DWORD PTR $T529615[ebp]
  0032d	e8 00 00 00 00	 call	 ??3@YAXPAX@Z		; operator delete
  00332	59		 pop	 ecx
  00333	c3		 ret	 0
__unwindfunclet$?CreateNormalBuffTemplete@ioBuffMaker@@IAEPAVioBuff@@HH@Z$82:
  00334	ff 75 08	 push	 DWORD PTR $T529619[ebp]
  00337	e8 00 00 00 00	 call	 ??3@YAXPAX@Z		; operator delete
  0033c	59		 pop	 ecx
  0033d	c3		 ret	 0
__unwindfunclet$?CreateNormalBuffTemplete@ioBuffMaker@@IAEPAVioBuff@@HH@Z$83:
  0033e	ff 75 08	 push	 DWORD PTR $T529623[ebp]
  00341	e8 00 00 00 00	 call	 ??3@YAXPAX@Z		; operator delete
  00346	59		 pop	 ecx
  00347	c3		 ret	 0
__unwindfunclet$?CreateNormalBuffTemplete@ioBuffMaker@@IAEPAVioBuff@@HH@Z$84:
  00348	ff 75 08	 push	 DWORD PTR $T529627[ebp]
  0034b	e8 00 00 00 00	 call	 ??3@YAXPAX@Z		; operator delete
  00350	59		 pop	 ecx
  00351	c3		 ret	 0
__unwindfunclet$?CreateNormalBuffTemplete@ioBuffMaker@@IAEPAVioBuff@@HH@Z$85:
  00352	ff 75 08	 push	 DWORD PTR $T529631[ebp]
  00355	e8 00 00 00 00	 call	 ??3@YAXPAX@Z		; operator delete
  0035a	59		 pop	 ecx
  0035b	c3		 ret	 0
__unwindfunclet$?CreateNormalBuffTemplete@ioBuffMaker@@IAEPAVioBuff@@HH@Z$86:
  0035c	ff 75 08	 push	 DWORD PTR $T529635[ebp]
  0035f	e8 00 00 00 00	 call	 ??3@YAXPAX@Z		; operator delete
  00364	59		 pop	 ecx
  00365	c3		 ret	 0
__unwindfunclet$?CreateNormalBuffTemplete@ioBuffMaker@@IAEPAVioBuff@@HH@Z$87:
  00366	ff 75 08	 push	 DWORD PTR $T529639[ebp]
  00369	e8 00 00 00 00	 call	 ??3@YAXPAX@Z		; operator delete
  0036e	59		 pop	 ecx
  0036f	c3		 ret	 0
__unwindfunclet$?CreateNormalBuffTemplete@ioBuffMaker@@IAEPAVioBuff@@HH@Z$88:
  00370	ff 75 08	 push	 DWORD PTR $T529643[ebp]
  00373	e8 00 00 00 00	 call	 ??3@YAXPAX@Z		; operator delete
  00378	59		 pop	 ecx
  00379	c3		 ret	 0
__unwindfunclet$?CreateNormalBuffTemplete@ioBuffMaker@@IAEPAVioBuff@@HH@Z$89:
  0037a	ff 75 08	 push	 DWORD PTR $T529647[ebp]
  0037d	e8 00 00 00 00	 call	 ??3@YAXPAX@Z		; operator delete
  00382	59		 pop	 ecx
  00383	c3		 ret	 0
__unwindfunclet$?CreateNormalBuffTemplete@ioBuffMaker@@IAEPAVioBuff@@HH@Z$90:
  00384	ff 75 08	 push	 DWORD PTR $T529651[ebp]
  00387	e8 00 00 00 00	 call	 ??3@YAXPAX@Z		; operator delete
  0038c	59		 pop	 ecx
  0038d	c3		 ret	 0
__unwindfunclet$?CreateNormalBuffTemplete@ioBuffMaker@@IAEPAVioBuff@@HH@Z$91:
  0038e	ff 75 08	 push	 DWORD PTR $T529655[ebp]
  00391	e8 00 00 00 00	 call	 ??3@YAXPAX@Z		; operator delete
  00396	59		 pop	 ecx
  00397	c3		 ret	 0
__unwindfunclet$?CreateNormalBuffTemplete@ioBuffMaker@@IAEPAVioBuff@@HH@Z$92:
  00398	ff 75 08	 push	 DWORD PTR $T529659[ebp]
  0039b	e8 00 00 00 00	 call	 ??3@YAXPAX@Z		; operator delete
  003a0	59		 pop	 ecx
  003a1	c3		 ret	 0
__unwindfunclet$?CreateNormalBuffTemplete@ioBuffMaker@@IAEPAVioBuff@@HH@Z$93:
  003a2	ff 75 08	 push	 DWORD PTR $T529663[ebp]
  003a5	e8 00 00 00 00	 call	 ??3@YAXPAX@Z		; operator delete
  003aa	59		 pop	 ecx
  003ab	c3		 ret	 0
__unwindfunclet$?CreateNormalBuffTemplete@ioBuffMaker@@IAEPAVioBuff@@HH@Z$94:
  003ac	ff 75 08	 push	 DWORD PTR $T529667[ebp]
  003af	e8 00 00 00 00	 call	 ??3@YAXPAX@Z		; operator delete
  003b4	59		 pop	 ecx
  003b5	c3		 ret	 0
__unwindfunclet$?CreateNormalBuffTemplete@ioBuffMaker@@IAEPAVioBuff@@HH@Z$95:
  003b6	ff 75 08	 push	 DWORD PTR $T529671[ebp]
  003b9	e8 00 00 00 00	 call	 ??3@YAXPAX@Z		; operator delete
  003be	59		 pop	 ecx
  003bf	c3		 ret	 0
__unwindfunclet$?CreateNormalBuffTemplete@ioBuffMaker@@IAEPAVioBuff@@HH@Z$96:
  003c0	ff 75 08	 push	 DWORD PTR $T529675[ebp]
  003c3	e8 00 00 00 00	 call	 ??3@YAXPAX@Z		; operator delete
  003c8	59		 pop	 ecx
  003c9	c3		 ret	 0
__unwindfunclet$?CreateNormalBuffTemplete@ioBuffMaker@@IAEPAVioBuff@@HH@Z$97:
  003ca	ff 75 08	 push	 DWORD PTR $T529679[ebp]
  003cd	e8 00 00 00 00	 call	 ??3@YAXPAX@Z		; operator delete
  003d2	59		 pop	 ecx
  003d3	c3		 ret	 0
__unwindfunclet$?CreateNormalBuffTemplete@ioBuffMaker@@IAEPAVioBuff@@HH@Z$98:
  003d4	ff 75 08	 push	 DWORD PTR $T529683[ebp]
  003d7	e8 00 00 00 00	 call	 ??3@YAXPAX@Z		; operator delete
  003dc	59		 pop	 ecx
  003dd	c3		 ret	 0
__unwindfunclet$?CreateNormalBuffTemplete@ioBuffMaker@@IAEPAVioBuff@@HH@Z$99:
  003de	ff 75 08	 push	 DWORD PTR $T529687[ebp]
  003e1	e8 00 00 00 00	 call	 ??3@YAXPAX@Z		; operator delete
  003e6	59		 pop	 ecx
  003e7	c3		 ret	 0
__unwindfunclet$?CreateNormalBuffTemplete@ioBuffMaker@@IAEPAVioBuff@@HH@Z$100:
  003e8	ff 75 08	 push	 DWORD PTR $T529691[ebp]
  003eb	e8 00 00 00 00	 call	 ??3@YAXPAX@Z		; operator delete
  003f0	59		 pop	 ecx
  003f1	c3		 ret	 0
__unwindfunclet$?CreateNormalBuffTemplete@ioBuffMaker@@IAEPAVioBuff@@HH@Z$101:
  003f2	ff 75 08	 push	 DWORD PTR $T529695[ebp]
  003f5	e8 00 00 00 00	 call	 ??3@YAXPAX@Z		; operator delete
  003fa	59		 pop	 ecx
  003fb	c3		 ret	 0
__unwindfunclet$?CreateNormalBuffTemplete@ioBuffMaker@@IAEPAVioBuff@@HH@Z$102:
  003fc	ff 75 08	 push	 DWORD PTR $T529699[ebp]
  003ff	e8 00 00 00 00	 call	 ??3@YAXPAX@Z		; operator delete
  00404	59		 pop	 ecx
  00405	c3		 ret	 0
__unwindfunclet$?CreateNormalBuffTemplete@ioBuffMaker@@IAEPAVioBuff@@HH@Z$103:
  00406	ff 75 08	 push	 DWORD PTR $T529703[ebp]
  00409	e8 00 00 00 00	 call	 ??3@YAXPAX@Z		; operator delete
  0040e	59		 pop	 ecx
  0040f	c3		 ret	 0
__unwindfunclet$?CreateNormalBuffTemplete@ioBuffMaker@@IAEPAVioBuff@@HH@Z$104:
  00410	ff 75 08	 push	 DWORD PTR $T529707[ebp]
  00413	e8 00 00 00 00	 call	 ??3@YAXPAX@Z		; operator delete
  00418	59		 pop	 ecx
  00419	c3		 ret	 0
__unwindfunclet$?CreateNormalBuffTemplete@ioBuffMaker@@IAEPAVioBuff@@HH@Z$105:
  0041a	ff 75 08	 push	 DWORD PTR $T529711[ebp]
  0041d	e8 00 00 00 00	 call	 ??3@YAXPAX@Z		; operator delete
  00422	59		 pop	 ecx
  00423	c3		 ret	 0
__unwindfunclet$?CreateNormalBuffTemplete@ioBuffMaker@@IAEPAVioBuff@@HH@Z$106:
  00424	ff 75 08	 push	 DWORD PTR $T529715[ebp]
  00427	e8 00 00 00 00	 call	 ??3@YAXPAX@Z		; operator delete
  0042c	59		 pop	 ecx
  0042d	c3		 ret	 0
__unwindfunclet$?CreateNormalBuffTemplete@ioBuffMaker@@IAEPAVioBuff@@HH@Z$107:
  0042e	ff 75 08	 push	 DWORD PTR $T529719[ebp]
  00431	e8 00 00 00 00	 call	 ??3@YAXPAX@Z		; operator delete
  00436	59		 pop	 ecx
  00437	c3		 ret	 0
__unwindfunclet$?CreateNormalBuffTemplete@ioBuffMaker@@IAEPAVioBuff@@HH@Z$108:
  00438	ff 75 08	 push	 DWORD PTR $T529723[ebp]
  0043b	e8 00 00 00 00	 call	 ??3@YAXPAX@Z		; operator delete
  00440	59		 pop	 ecx
  00441	c3		 ret	 0
__unwindfunclet$?CreateNormalBuffTemplete@ioBuffMaker@@IAEPAVioBuff@@HH@Z$109:
  00442	ff 75 08	 push	 DWORD PTR $T529727[ebp]
  00445	e8 00 00 00 00	 call	 ??3@YAXPAX@Z		; operator delete
  0044a	59		 pop	 ecx
  0044b	c3		 ret	 0
__unwindfunclet$?CreateNormalBuffTemplete@ioBuffMaker@@IAEPAVioBuff@@HH@Z$110:
  0044c	ff 75 08	 push	 DWORD PTR $T529731[ebp]
  0044f	e8 00 00 00 00	 call	 ??3@YAXPAX@Z		; operator delete
  00454	59		 pop	 ecx
  00455	c3		 ret	 0
__unwindfunclet$?CreateNormalBuffTemplete@ioBuffMaker@@IAEPAVioBuff@@HH@Z$111:
  00456	ff 75 08	 push	 DWORD PTR $T529735[ebp]
  00459	e8 00 00 00 00	 call	 ??3@YAXPAX@Z		; operator delete
  0045e	59		 pop	 ecx
  0045f	c3		 ret	 0
__unwindfunclet$?CreateNormalBuffTemplete@ioBuffMaker@@IAEPAVioBuff@@HH@Z$112:
  00460	ff 75 08	 push	 DWORD PTR $T529739[ebp]
  00463	e8 00 00 00 00	 call	 ??3@YAXPAX@Z		; operator delete
  00468	59		 pop	 ecx
  00469	c3		 ret	 0
__unwindfunclet$?CreateNormalBuffTemplete@ioBuffMaker@@IAEPAVioBuff@@HH@Z$113:
  0046a	ff 75 08	 push	 DWORD PTR $T529743[ebp]
  0046d	e8 00 00 00 00	 call	 ??3@YAXPAX@Z		; operator delete
  00472	59		 pop	 ecx
  00473	c3		 ret	 0
__unwindfunclet$?CreateNormalBuffTemplete@ioBuffMaker@@IAEPAVioBuff@@HH@Z$114:
  00474	ff 75 08	 push	 DWORD PTR $T529747[ebp]
  00477	e8 00 00 00 00	 call	 ??3@YAXPAX@Z		; operator delete
  0047c	59		 pop	 ecx
  0047d	c3		 ret	 0
__unwindfunclet$?CreateNormalBuffTemplete@ioBuffMaker@@IAEPAVioBuff@@HH@Z$115:
  0047e	ff 75 08	 push	 DWORD PTR $T529751[ebp]
  00481	e8 00 00 00 00	 call	 ??3@YAXPAX@Z		; operator delete
  00486	59		 pop	 ecx
  00487	c3		 ret	 0
__unwindfunclet$?CreateNormalBuffTemplete@ioBuffMaker@@IAEPAVioBuff@@HH@Z$116:
  00488	ff 75 08	 push	 DWORD PTR $T529755[ebp]
  0048b	e8 00 00 00 00	 call	 ??3@YAXPAX@Z		; operator delete
  00490	59		 pop	 ecx
  00491	c3		 ret	 0
__unwindfunclet$?CreateNormalBuffTemplete@ioBuffMaker@@IAEPAVioBuff@@HH@Z$117:
  00492	ff 75 08	 push	 DWORD PTR $T529759[ebp]
  00495	e8 00 00 00 00	 call	 ??3@YAXPAX@Z		; operator delete
  0049a	59		 pop	 ecx
  0049b	c3		 ret	 0
__unwindfunclet$?CreateNormalBuffTemplete@ioBuffMaker@@IAEPAVioBuff@@HH@Z$118:
  0049c	ff 75 08	 push	 DWORD PTR $T529763[ebp]
  0049f	e8 00 00 00 00	 call	 ??3@YAXPAX@Z		; operator delete
  004a4	59		 pop	 ecx
  004a5	c3		 ret	 0
__unwindfunclet$?CreateNormalBuffTemplete@ioBuffMaker@@IAEPAVioBuff@@HH@Z$119:
  004a6	ff 75 08	 push	 DWORD PTR $T529767[ebp]
  004a9	e8 00 00 00 00	 call	 ??3@YAXPAX@Z		; operator delete
  004ae	59		 pop	 ecx
  004af	c3		 ret	 0
__unwindfunclet$?CreateNormalBuffTemplete@ioBuffMaker@@IAEPAVioBuff@@HH@Z$120:
  004b0	ff 75 08	 push	 DWORD PTR $T529771[ebp]
  004b3	e8 00 00 00 00	 call	 ??3@YAXPAX@Z		; operator delete
  004b8	59		 pop	 ecx
  004b9	c3		 ret	 0
__unwindfunclet$?CreateNormalBuffTemplete@ioBuffMaker@@IAEPAVioBuff@@HH@Z$121:
  004ba	ff 75 08	 push	 DWORD PTR $T529775[ebp]
  004bd	e8 00 00 00 00	 call	 ??3@YAXPAX@Z		; operator delete
  004c2	59		 pop	 ecx
  004c3	c3		 ret	 0
__unwindfunclet$?CreateNormalBuffTemplete@ioBuffMaker@@IAEPAVioBuff@@HH@Z$122:
  004c4	ff 75 08	 push	 DWORD PTR $T529779[ebp]
  004c7	e8 00 00 00 00	 call	 ??3@YAXPAX@Z		; operator delete
  004cc	59		 pop	 ecx
  004cd	c3		 ret	 0
__unwindfunclet$?CreateNormalBuffTemplete@ioBuffMaker@@IAEPAVioBuff@@HH@Z$123:
  004ce	ff 75 08	 push	 DWORD PTR $T529783[ebp]
  004d1	e8 00 00 00 00	 call	 ??3@YAXPAX@Z		; operator delete
  004d6	59		 pop	 ecx
  004d7	c3		 ret	 0
__unwindfunclet$?CreateNormalBuffTemplete@ioBuffMaker@@IAEPAVioBuff@@HH@Z$124:
  004d8	ff 75 08	 push	 DWORD PTR $T529787[ebp]
  004db	e8 00 00 00 00	 call	 ??3@YAXPAX@Z		; operator delete
  004e0	59		 pop	 ecx
  004e1	c3		 ret	 0
__unwindfunclet$?CreateNormalBuffTemplete@ioBuffMaker@@IAEPAVioBuff@@HH@Z$125:
  004e2	ff 75 08	 push	 DWORD PTR $T529791[ebp]
  004e5	e8 00 00 00 00	 call	 ??3@YAXPAX@Z		; operator delete
  004ea	59		 pop	 ecx
  004eb	c3		 ret	 0
__unwindfunclet$?CreateNormalBuffTemplete@ioBuffMaker@@IAEPAVioBuff@@HH@Z$126:
  004ec	ff 75 08	 push	 DWORD PTR $T529795[ebp]
  004ef	e8 00 00 00 00	 call	 ??3@YAXPAX@Z		; operator delete
  004f4	59		 pop	 ecx
  004f5	c3		 ret	 0
__unwindfunclet$?CreateNormalBuffTemplete@ioBuffMaker@@IAEPAVioBuff@@HH@Z$127:
  004f6	ff 75 08	 push	 DWORD PTR $T529799[ebp]
  004f9	e8 00 00 00 00	 call	 ??3@YAXPAX@Z		; operator delete
  004fe	59		 pop	 ecx
  004ff	c3		 ret	 0
__unwindfunclet$?CreateNormalBuffTemplete@ioBuffMaker@@IAEPAVioBuff@@HH@Z$128:
  00500	ff 75 08	 push	 DWORD PTR $T529803[ebp]
  00503	e8 00 00 00 00	 call	 ??3@YAXPAX@Z		; operator delete
  00508	59		 pop	 ecx
  00509	c3		 ret	 0
__unwindfunclet$?CreateNormalBuffTemplete@ioBuffMaker@@IAEPAVioBuff@@HH@Z$129:
  0050a	ff 75 08	 push	 DWORD PTR $T529807[ebp]
  0050d	e8 00 00 00 00	 call	 ??3@YAXPAX@Z		; operator delete
  00512	59		 pop	 ecx
  00513	c3		 ret	 0
__unwindfunclet$?CreateNormalBuffTemplete@ioBuffMaker@@IAEPAVioBuff@@HH@Z$130:
  00514	ff 75 08	 push	 DWORD PTR $T529811[ebp]
  00517	e8 00 00 00 00	 call	 ??3@YAXPAX@Z		; operator delete
  0051c	59		 pop	 ecx
  0051d	c3		 ret	 0
__unwindfunclet$?CreateNormalBuffTemplete@ioBuffMaker@@IAEPAVioBuff@@HH@Z$131:
  0051e	ff 75 08	 push	 DWORD PTR $T529815[ebp]
  00521	e8 00 00 00 00	 call	 ??3@YAXPAX@Z		; operator delete
  00526	59		 pop	 ecx
  00527	c3		 ret	 0
__unwindfunclet$?CreateNormalBuffTemplete@ioBuffMaker@@IAEPAVioBuff@@HH@Z$132:
  00528	ff 75 08	 push	 DWORD PTR $T529819[ebp]
  0052b	e8 00 00 00 00	 call	 ??3@YAXPAX@Z		; operator delete
  00530	59		 pop	 ecx
  00531	c3		 ret	 0
__unwindfunclet$?CreateNormalBuffTemplete@ioBuffMaker@@IAEPAVioBuff@@HH@Z$133:
  00532	ff 75 08	 push	 DWORD PTR $T529823[ebp]
  00535	e8 00 00 00 00	 call	 ??3@YAXPAX@Z		; operator delete
  0053a	59		 pop	 ecx
  0053b	c3		 ret	 0
__unwindfunclet$?CreateNormalBuffTemplete@ioBuffMaker@@IAEPAVioBuff@@HH@Z$134:
  0053c	ff 75 08	 push	 DWORD PTR $T529827[ebp]
  0053f	e8 00 00 00 00	 call	 ??3@YAXPAX@Z		; operator delete
  00544	59		 pop	 ecx
  00545	c3		 ret	 0
__unwindfunclet$?CreateNormalBuffTemplete@ioBuffMaker@@IAEPAVioBuff@@HH@Z$135:
  00546	ff 75 08	 push	 DWORD PTR $T529831[ebp]
  00549	e8 00 00 00 00	 call	 ??3@YAXPAX@Z		; operator delete
  0054e	59		 pop	 ecx
  0054f	c3		 ret	 0
__unwindfunclet$?CreateNormalBuffTemplete@ioBuffMaker@@IAEPAVioBuff@@HH@Z$136:
  00550	ff 75 08	 push	 DWORD PTR $T529835[ebp]
  00553	e8 00 00 00 00	 call	 ??3@YAXPAX@Z		; operator delete
  00558	59		 pop	 ecx
  00559	c3		 ret	 0
__unwindfunclet$?CreateNormalBuffTemplete@ioBuffMaker@@IAEPAVioBuff@@HH@Z$137:
  0055a	ff 75 08	 push	 DWORD PTR $T529839[ebp]
  0055d	e8 00 00 00 00	 call	 ??3@YAXPAX@Z		; operator delete
  00562	59		 pop	 ecx
  00563	c3		 ret	 0
__unwindfunclet$?CreateNormalBuffTemplete@ioBuffMaker@@IAEPAVioBuff@@HH@Z$138:
  00564	ff 75 08	 push	 DWORD PTR $T529843[ebp]
  00567	e8 00 00 00 00	 call	 ??3@YAXPAX@Z		; operator delete
  0056c	59		 pop	 ecx
  0056d	c3		 ret	 0
__unwindfunclet$?CreateNormalBuffTemplete@ioBuffMaker@@IAEPAVioBuff@@HH@Z$139:
  0056e	ff 75 08	 push	 DWORD PTR $T529847[ebp]
  00571	e8 00 00 00 00	 call	 ??3@YAXPAX@Z		; operator delete
  00576	59		 pop	 ecx
  00577	c3		 ret	 0
__unwindfunclet$?CreateNormalBuffTemplete@ioBuffMaker@@IAEPAVioBuff@@HH@Z$140:
  00578	ff 75 08	 push	 DWORD PTR $T529851[ebp]
  0057b	e8 00 00 00 00	 call	 ??3@YAXPAX@Z		; operator delete
  00580	59		 pop	 ecx
  00581	c3		 ret	 0
__unwindfunclet$?CreateNormalBuffTemplete@ioBuffMaker@@IAEPAVioBuff@@HH@Z$141:
  00582	ff 75 08	 push	 DWORD PTR $T529855[ebp]
  00585	e8 00 00 00 00	 call	 ??3@YAXPAX@Z		; operator delete
  0058a	59		 pop	 ecx
  0058b	c3		 ret	 0
__unwindfunclet$?CreateNormalBuffTemplete@ioBuffMaker@@IAEPAVioBuff@@HH@Z$142:
  0058c	ff 75 08	 push	 DWORD PTR $T529859[ebp]
  0058f	e8 00 00 00 00	 call	 ??3@YAXPAX@Z		; operator delete
  00594	59		 pop	 ecx
  00595	c3		 ret	 0
__unwindfunclet$?CreateNormalBuffTemplete@ioBuffMaker@@IAEPAVioBuff@@HH@Z$143:
  00596	ff 75 08	 push	 DWORD PTR $T529863[ebp]
  00599	e8 00 00 00 00	 call	 ??3@YAXPAX@Z		; operator delete
  0059e	59		 pop	 ecx
  0059f	c3		 ret	 0
__unwindfunclet$?CreateNormalBuffTemplete@ioBuffMaker@@IAEPAVioBuff@@HH@Z$144:
  005a0	ff 75 08	 push	 DWORD PTR $T529867[ebp]
  005a3	e8 00 00 00 00	 call	 ??3@YAXPAX@Z		; operator delete
  005a8	59		 pop	 ecx
  005a9	c3		 ret	 0
__unwindfunclet$?CreateNormalBuffTemplete@ioBuffMaker@@IAEPAVioBuff@@HH@Z$145:
  005aa	ff 75 08	 push	 DWORD PTR $T529871[ebp]
  005ad	e8 00 00 00 00	 call	 ??3@YAXPAX@Z		; operator delete
  005b2	59		 pop	 ecx
  005b3	c3		 ret	 0
__unwindfunclet$?CreateNormalBuffTemplete@ioBuffMaker@@IAEPAVioBuff@@HH@Z$146:
  005b4	ff 75 08	 push	 DWORD PTR $T529875[ebp]
  005b7	e8 00 00 00 00	 call	 ??3@YAXPAX@Z		; operator delete
  005bc	59		 pop	 ecx
  005bd	c3		 ret	 0
__unwindfunclet$?CreateNormalBuffTemplete@ioBuffMaker@@IAEPAVioBuff@@HH@Z$147:
  005be	ff 75 08	 push	 DWORD PTR $T529879[ebp]
  005c1	e8 00 00 00 00	 call	 ??3@YAXPAX@Z		; operator delete
  005c6	59		 pop	 ecx
  005c7	c3		 ret	 0
__unwindfunclet$?CreateNormalBuffTemplete@ioBuffMaker@@IAEPAVioBuff@@HH@Z$148:
  005c8	ff 75 08	 push	 DWORD PTR $T529883[ebp]
  005cb	e8 00 00 00 00	 call	 ??3@YAXPAX@Z		; operator delete
  005d0	59		 pop	 ecx
  005d1	c3		 ret	 0
__unwindfunclet$?CreateNormalBuffTemplete@ioBuffMaker@@IAEPAVioBuff@@HH@Z$149:
  005d2	ff 75 08	 push	 DWORD PTR $T529887[ebp]
  005d5	e8 00 00 00 00	 call	 ??3@YAXPAX@Z		; operator delete
  005da	59		 pop	 ecx
  005db	c3		 ret	 0
__unwindfunclet$?CreateNormalBuffTemplete@ioBuffMaker@@IAEPAVioBuff@@HH@Z$150:
  005dc	ff 75 08	 push	 DWORD PTR $T529891[ebp]
  005df	e8 00 00 00 00	 call	 ??3@YAXPAX@Z		; operator delete
  005e4	59		 pop	 ecx
  005e5	c3		 ret	 0
__unwindfunclet$?CreateNormalBuffTemplete@ioBuffMaker@@IAEPAVioBuff@@HH@Z$151:
  005e6	ff 75 08	 push	 DWORD PTR $T529895[ebp]
  005e9	e8 00 00 00 00	 call	 ??3@YAXPAX@Z		; operator delete
  005ee	59		 pop	 ecx
  005ef	c3		 ret	 0
__unwindfunclet$?CreateNormalBuffTemplete@ioBuffMaker@@IAEPAVioBuff@@HH@Z$152:
  005f0	ff 75 08	 push	 DWORD PTR $T529899[ebp]
  005f3	e8 00 00 00 00	 call	 ??3@YAXPAX@Z		; operator delete
  005f8	59		 pop	 ecx
  005f9	c3		 ret	 0
__unwindfunclet$?CreateNormalBuffTemplete@ioBuffMaker@@IAEPAVioBuff@@HH@Z$153:
  005fa	ff 75 08	 push	 DWORD PTR $T529903[ebp]
  005fd	e8 00 00 00 00	 call	 ??3@YAXPAX@Z		; operator delete
  00602	59		 pop	 ecx
  00603	c3		 ret	 0
__unwindfunclet$?CreateNormalBuffTemplete@ioBuffMaker@@IAEPAVioBuff@@HH@Z$154:
  00604	ff 75 08	 push	 DWORD PTR $T529907[ebp]
  00607	e8 00 00 00 00	 call	 ??3@YAXPAX@Z		; operator delete
  0060c	59		 pop	 ecx
  0060d	c3		 ret	 0
__unwindfunclet$?CreateNormalBuffTemplete@ioBuffMaker@@IAEPAVioBuff@@HH@Z$155:
  0060e	ff 75 08	 push	 DWORD PTR $T529911[ebp]
  00611	e8 00 00 00 00	 call	 ??3@YAXPAX@Z		; operator delete
  00616	59		 pop	 ecx
  00617	c3		 ret	 0
__unwindfunclet$?CreateNormalBuffTemplete@ioBuffMaker@@IAEPAVioBuff@@HH@Z$156:
  00618	ff 75 08	 push	 DWORD PTR $T529915[ebp]
  0061b	e8 00 00 00 00	 call	 ??3@YAXPAX@Z		; operator delete
  00620	59		 pop	 ecx
  00621	c3		 ret	 0
__unwindfunclet$?CreateNormalBuffTemplete@ioBuffMaker@@IAEPAVioBuff@@HH@Z$157:
  00622	ff 75 08	 push	 DWORD PTR $T529919[ebp]
  00625	e8 00 00 00 00	 call	 ??3@YAXPAX@Z		; operator delete
  0062a	59		 pop	 ecx
  0062b	c3		 ret	 0
__unwindfunclet$?CreateNormalBuffTemplete@ioBuffMaker@@IAEPAVioBuff@@HH@Z$158:
  0062c	ff 75 08	 push	 DWORD PTR $T529923[ebp]
  0062f	e8 00 00 00 00	 call	 ??3@YAXPAX@Z		; operator delete
  00634	59		 pop	 ecx
  00635	c3		 ret	 0
__unwindfunclet$?CreateNormalBuffTemplete@ioBuffMaker@@IAEPAVioBuff@@HH@Z$159:
  00636	ff 75 08	 push	 DWORD PTR $T529927[ebp]
  00639	e8 00 00 00 00	 call	 ??3@YAXPAX@Z		; operator delete
  0063e	59		 pop	 ecx
  0063f	c3		 ret	 0
__unwindfunclet$?CreateNormalBuffTemplete@ioBuffMaker@@IAEPAVioBuff@@HH@Z$160:
  00640	ff 75 08	 push	 DWORD PTR $T529931[ebp]
  00643	e8 00 00 00 00	 call	 ??3@YAXPAX@Z		; operator delete
  00648	59		 pop	 ecx
  00649	c3		 ret	 0
__unwindfunclet$?CreateNormalBuffTemplete@ioBuffMaker@@IAEPAVioBuff@@HH@Z$161:
  0064a	ff 75 08	 push	 DWORD PTR $T529935[ebp]
  0064d	e8 00 00 00 00	 call	 ??3@YAXPAX@Z		; operator delete
  00652	59		 pop	 ecx
  00653	c3		 ret	 0
__unwindfunclet$?CreateNormalBuffTemplete@ioBuffMaker@@IAEPAVioBuff@@HH@Z$162:
  00654	ff 75 08	 push	 DWORD PTR $T529939[ebp]
  00657	e8 00 00 00 00	 call	 ??3@YAXPAX@Z		; operator delete
  0065c	59		 pop	 ecx
  0065d	c3		 ret	 0
__unwindfunclet$?CreateNormalBuffTemplete@ioBuffMaker@@IAEPAVioBuff@@HH@Z$163:
  0065e	ff 75 08	 push	 DWORD PTR $T529943[ebp]
  00661	e8 00 00 00 00	 call	 ??3@YAXPAX@Z		; operator delete
  00666	59		 pop	 ecx
  00667	c3		 ret	 0
__unwindfunclet$?CreateNormalBuffTemplete@ioBuffMaker@@IAEPAVioBuff@@HH@Z$164:
  00668	ff 75 08	 push	 DWORD PTR $T529947[ebp]
  0066b	e8 00 00 00 00	 call	 ??3@YAXPAX@Z		; operator delete
  00670	59		 pop	 ecx
  00671	c3		 ret	 0
__unwindfunclet$?CreateNormalBuffTemplete@ioBuffMaker@@IAEPAVioBuff@@HH@Z$165:
  00672	ff 75 08	 push	 DWORD PTR $T529951[ebp]
  00675	e8 00 00 00 00	 call	 ??3@YAXPAX@Z		; operator delete
  0067a	59		 pop	 ecx
  0067b	c3		 ret	 0
__unwindfunclet$?CreateNormalBuffTemplete@ioBuffMaker@@IAEPAVioBuff@@HH@Z$166:
  0067c	ff 75 08	 push	 DWORD PTR $T529955[ebp]
  0067f	e8 00 00 00 00	 call	 ??3@YAXPAX@Z		; operator delete
  00684	59		 pop	 ecx
  00685	c3		 ret	 0
__unwindfunclet$?CreateNormalBuffTemplete@ioBuffMaker@@IAEPAVioBuff@@HH@Z$167:
  00686	ff 75 08	 push	 DWORD PTR $T529959[ebp]
  00689	e8 00 00 00 00	 call	 ??3@YAXPAX@Z		; operator delete
  0068e	59		 pop	 ecx
  0068f	c3		 ret	 0
__unwindfunclet$?CreateNormalBuffTemplete@ioBuffMaker@@IAEPAVioBuff@@HH@Z$168:
  00690	ff 75 08	 push	 DWORD PTR $T529963[ebp]
  00693	e8 00 00 00 00	 call	 ??3@YAXPAX@Z		; operator delete
  00698	59		 pop	 ecx
  00699	c3		 ret	 0
__unwindfunclet$?CreateNormalBuffTemplete@ioBuffMaker@@IAEPAVioBuff@@HH@Z$169:
  0069a	ff 75 08	 push	 DWORD PTR $T529967[ebp]
  0069d	e8 00 00 00 00	 call	 ??3@YAXPAX@Z		; operator delete
  006a2	59		 pop	 ecx
  006a3	c3		 ret	 0
__unwindfunclet$?CreateNormalBuffTemplete@ioBuffMaker@@IAEPAVioBuff@@HH@Z$170:
  006a4	ff 75 08	 push	 DWORD PTR $T529971[ebp]
  006a7	e8 00 00 00 00	 call	 ??3@YAXPAX@Z		; operator delete
  006ac	59		 pop	 ecx
  006ad	c3		 ret	 0
__unwindfunclet$?CreateNormalBuffTemplete@ioBuffMaker@@IAEPAVioBuff@@HH@Z$171:
  006ae	ff 75 08	 push	 DWORD PTR $T529975[ebp]
  006b1	e8 00 00 00 00	 call	 ??3@YAXPAX@Z		; operator delete
  006b6	59		 pop	 ecx
  006b7	c3		 ret	 0
__unwindfunclet$?CreateNormalBuffTemplete@ioBuffMaker@@IAEPAVioBuff@@HH@Z$172:
  006b8	ff 75 08	 push	 DWORD PTR $T529979[ebp]
  006bb	e8 00 00 00 00	 call	 ??3@YAXPAX@Z		; operator delete
  006c0	59		 pop	 ecx
  006c1	c3		 ret	 0
__unwindfunclet$?CreateNormalBuffTemplete@ioBuffMaker@@IAEPAVioBuff@@HH@Z$173:
  006c2	ff 75 08	 push	 DWORD PTR $T529983[ebp]
  006c5	e8 00 00 00 00	 call	 ??3@YAXPAX@Z		; operator delete
  006ca	59		 pop	 ecx
  006cb	c3		 ret	 0
__unwindfunclet$?CreateNormalBuffTemplete@ioBuffMaker@@IAEPAVioBuff@@HH@Z$174:
  006cc	ff 75 08	 push	 DWORD PTR $T529987[ebp]
  006cf	e8 00 00 00 00	 call	 ??3@YAXPAX@Z		; operator delete
  006d4	59		 pop	 ecx
  006d5	c3		 ret	 0
__unwindfunclet$?CreateNormalBuffTemplete@ioBuffMaker@@IAEPAVioBuff@@HH@Z$175:
  006d6	ff 75 08	 push	 DWORD PTR $T529991[ebp]
  006d9	e8 00 00 00 00	 call	 ??3@YAXPAX@Z		; operator delete
  006de	59		 pop	 ecx
  006df	c3		 ret	 0
__unwindfunclet$?CreateNormalBuffTemplete@ioBuffMaker@@IAEPAVioBuff@@HH@Z$176:
  006e0	ff 75 08	 push	 DWORD PTR $T529995[ebp]
  006e3	e8 00 00 00 00	 call	 ??3@YAXPAX@Z		; operator delete
  006e8	59		 pop	 ecx
  006e9	c3		 ret	 0
__unwindfunclet$?CreateNormalBuffTemplete@ioBuffMaker@@IAEPAVioBuff@@HH@Z$177:
  006ea	ff 75 08	 push	 DWORD PTR $T529999[ebp]
  006ed	e8 00 00 00 00	 call	 ??3@YAXPAX@Z		; operator delete
  006f2	59		 pop	 ecx
  006f3	c3		 ret	 0
__unwindfunclet$?CreateNormalBuffTemplete@ioBuffMaker@@IAEPAVioBuff@@HH@Z$178:
  006f4	ff 75 08	 push	 DWORD PTR $T530003[ebp]
  006f7	e8 00 00 00 00	 call	 ??3@YAXPAX@Z		; operator delete
  006fc	59		 pop	 ecx
  006fd	c3		 ret	 0
__unwindfunclet$?CreateNormalBuffTemplete@ioBuffMaker@@IAEPAVioBuff@@HH@Z$179:
  006fe	ff 75 08	 push	 DWORD PTR $T530007[ebp]
  00701	e8 00 00 00 00	 call	 ??3@YAXPAX@Z		; operator delete
  00706	59		 pop	 ecx
  00707	c3		 ret	 0
__unwindfunclet$?CreateNormalBuffTemplete@ioBuffMaker@@IAEPAVioBuff@@HH@Z$180:
  00708	ff 75 08	 push	 DWORD PTR $T530011[ebp]
  0070b	e8 00 00 00 00	 call	 ??3@YAXPAX@Z		; operator delete
  00710	59		 pop	 ecx
  00711	c3		 ret	 0
__unwindfunclet$?CreateNormalBuffTemplete@ioBuffMaker@@IAEPAVioBuff@@HH@Z$181:
  00712	ff 75 08	 push	 DWORD PTR $T530015[ebp]
  00715	e8 00 00 00 00	 call	 ??3@YAXPAX@Z		; operator delete
  0071a	59		 pop	 ecx
  0071b	c3		 ret	 0
__unwindfunclet$?CreateNormalBuffTemplete@ioBuffMaker@@IAEPAVioBuff@@HH@Z$182:
  0071c	ff 75 08	 push	 DWORD PTR $T530019[ebp]
  0071f	e8 00 00 00 00	 call	 ??3@YAXPAX@Z		; operator delete
  00724	59		 pop	 ecx
  00725	c3		 ret	 0
__unwindfunclet$?CreateNormalBuffTemplete@ioBuffMaker@@IAEPAVioBuff@@HH@Z$183:
  00726	ff 75 08	 push	 DWORD PTR $T530023[ebp]
  00729	e8 00 00 00 00	 call	 ??3@YAXPAX@Z		; operator delete
  0072e	59		 pop	 ecx
  0072f	c3		 ret	 0
__unwindfunclet$?CreateNormalBuffTemplete@ioBuffMaker@@IAEPAVioBuff@@HH@Z$184:
  00730	ff 75 08	 push	 DWORD PTR $T530027[ebp]
  00733	e8 00 00 00 00	 call	 ??3@YAXPAX@Z		; operator delete
  00738	59		 pop	 ecx
  00739	c3		 ret	 0
__unwindfunclet$?CreateNormalBuffTemplete@ioBuffMaker@@IAEPAVioBuff@@HH@Z$185:
  0073a	ff 75 08	 push	 DWORD PTR $T530031[ebp]
  0073d	e8 00 00 00 00	 call	 ??3@YAXPAX@Z		; operator delete
  00742	59		 pop	 ecx
  00743	c3		 ret	 0
__unwindfunclet$?CreateNormalBuffTemplete@ioBuffMaker@@IAEPAVioBuff@@HH@Z$186:
  00744	ff 75 08	 push	 DWORD PTR $T530035[ebp]
  00747	e8 00 00 00 00	 call	 ??3@YAXPAX@Z		; operator delete
  0074c	59		 pop	 ecx
  0074d	c3		 ret	 0
__unwindfunclet$?CreateNormalBuffTemplete@ioBuffMaker@@IAEPAVioBuff@@HH@Z$187:
  0074e	ff 75 08	 push	 DWORD PTR $T530039[ebp]
  00751	e8 00 00 00 00	 call	 ??3@YAXPAX@Z		; operator delete
  00756	59		 pop	 ecx
  00757	c3		 ret	 0
__unwindfunclet$?CreateNormalBuffTemplete@ioBuffMaker@@IAEPAVioBuff@@HH@Z$188:
  00758	ff 75 08	 push	 DWORD PTR $T530043[ebp]
  0075b	e8 00 00 00 00	 call	 ??3@YAXPAX@Z		; operator delete
  00760	59		 pop	 ecx
  00761	c3		 ret	 0
__unwindfunclet$?CreateNormalBuffTemplete@ioBuffMaker@@IAEPAVioBuff@@HH@Z$189:
  00762	ff 75 08	 push	 DWORD PTR $T530047[ebp]
  00765	e8 00 00 00 00	 call	 ??3@YAXPAX@Z		; operator delete
  0076a	59		 pop	 ecx
  0076b	c3		 ret	 0
__unwindfunclet$?CreateNormalBuffTemplete@ioBuffMaker@@IAEPAVioBuff@@HH@Z$190:
  0076c	ff 75 08	 push	 DWORD PTR $T530051[ebp]
  0076f	e8 00 00 00 00	 call	 ??3@YAXPAX@Z		; operator delete
  00774	59		 pop	 ecx
  00775	c3		 ret	 0
__unwindfunclet$?CreateNormalBuffTemplete@ioBuffMaker@@IAEPAVioBuff@@HH@Z$191:
