; Listing generated by Microsoft (R) Optimizing Compiler Version 16.00.30319.01 

	TITLE	D:\Lost Saga For Developer\Youtube\Tutorial\Source\src\LSClient\ioCalendar.cpp
	.686P
	.XMM
	include listing.inc
	.model	flat

INCLUDELIB MSVCRT
INCLUDELIB OLDNAMES

PUBLIC	??0ioCalendarSet@@QAE@ABV0@@Z			; ioCalendarSet::ioCalendarSet
; Function compile flags: /Ogsp
; File d:\lost saga for developer\youtube\tutorial\source\src\lsclient\iocalendar.cpp
;	COMDAT ??0ioCalendarSet@@QAE@ABV0@@Z
_TEXT	SEGMENT
_rhs$ = 8						; size = 4
??0ioCalendarSet@@QAE@ABV0@@Z PROC			; ioCalendarSet::ioCalendarSet, COMDAT
; _this$ = ecx

; 35   : {

  00000	55		 push	 ebp
  00001	8b ec		 mov	 ebp, esp
  00003	8b c1		 mov	 eax, ecx

; 36   : 	m_iYear		 = rhs.m_iYear;

  00005	8b 4d 08	 mov	 ecx, DWORD PTR _rhs$[ebp]
  00008	8b 51 04	 mov	 edx, DWORD PTR [ecx+4]
  0000b	89 50 04	 mov	 DWORD PTR [eax+4], edx

; 37   : 	m_iMonth	 = rhs.m_iMonth;

  0000e	8b 51 08	 mov	 edx, DWORD PTR [ecx+8]
  00011	89 50 08	 mov	 DWORD PTR [eax+8], edx

; 38   : 	m_iDay		 = rhs.m_iDay;

  00014	8b 51 0c	 mov	 edx, DWORD PTR [ecx+12]
  00017	89 50 0c	 mov	 DWORD PTR [eax+12], edx

; 39   : 	m_iDayOfWeek = rhs.m_iDayOfWeek;

  0001a	8b 51 10	 mov	 edx, DWORD PTR [ecx+16]
  0001d	89 50 10	 mov	 DWORD PTR [eax+16], edx

; 40   : 	m_iHour		 = rhs.m_iHour;

  00020	8b 51 14	 mov	 edx, DWORD PTR [ecx+20]
  00023	89 50 14	 mov	 DWORD PTR [eax+20], edx

; 41   : 	m_iMin		 = rhs.m_iMin;

  00026	8b 49 18	 mov	 ecx, DWORD PTR [ecx+24]
  00029	89 48 18	 mov	 DWORD PTR [eax+24], ecx

; 42   : }

  0002c	5d		 pop	 ebp
  0002d	c2 04 00	 ret	 4
??0ioCalendarSet@@QAE@ABV0@@Z ENDP			; ioCalendarSet::ioCalendarSet
_TEXT	ENDS
PUBLIC	??0ioCalendarSet@@QAE@ABV0@W4DateType@@@Z	; ioCalendarSet::ioCalendarSet
; Function compile flags: /Ogsp
;	COMDAT ??0ioCalendarSet@@QAE@ABV0@W4DateType@@@Z
_TEXT	SEGMENT
_rhs$ = 8						; size = 4
_eType$ = 12						; size = 4
??0ioCalendarSet@@QAE@ABV0@W4DateType@@@Z PROC		; ioCalendarSet::ioCalendarSet, COMDAT
; _this$ = ecx

; 45   : {

  00000	55		 push	 ebp
  00001	8b ec		 mov	 ebp, esp
  00003	8b c1		 mov	 eax, ecx

; 46   : 	m_iYear		 = rhs.m_iYear;

  00005	8b 4d 08	 mov	 ecx, DWORD PTR _rhs$[ebp]
  00008	8b 51 04	 mov	 edx, DWORD PTR [ecx+4]
  0000b	89 50 04	 mov	 DWORD PTR [eax+4], edx

; 47   : 	m_iMonth	 = rhs.m_iMonth;

  0000e	8b 51 08	 mov	 edx, DWORD PTR [ecx+8]
  00011	89 50 08	 mov	 DWORD PTR [eax+8], edx

; 48   : 	m_iDay		 = rhs.m_iDay;

  00014	8b 51 0c	 mov	 edx, DWORD PTR [ecx+12]
  00017	89 50 0c	 mov	 DWORD PTR [eax+12], edx

; 49   : 	m_iDayOfWeek = rhs.m_iDayOfWeek;

  0001a	8b 51 10	 mov	 edx, DWORD PTR [ecx+16]
  0001d	89 50 10	 mov	 DWORD PTR [eax+16], edx

; 50   : 	m_iHour		 = rhs.m_iHour;

  00020	8b 51 14	 mov	 edx, DWORD PTR [ecx+20]
  00023	89 50 14	 mov	 DWORD PTR [eax+20], edx

; 51   : 	m_iMin		 = rhs.m_iMin;

  00026	8b 49 18	 mov	 ecx, DWORD PTR [ecx+24]
  00029	89 48 18	 mov	 DWORD PTR [eax+24], ecx

; 52   : 	m_eDateType  = eType;

  0002c	8b 4d 0c	 mov	 ecx, DWORD PTR _eType$[ebp]
  0002f	89 08		 mov	 DWORD PTR [eax], ecx

; 53   : }

  00031	5d		 pop	 ebp
  00032	c2 08 00	 ret	 8
??0ioCalendarSet@@QAE@ABV0@W4DateType@@@Z ENDP		; ioCalendarSet::ioCalendarSet
_TEXT	ENDS
PUBLIC	??1ioCalendarSet@@QAE@XZ			; ioCalendarSet::~ioCalendarSet
; Function compile flags: /Ogsp
;	COMDAT ??1ioCalendarSet@@QAE@XZ
_TEXT	SEGMENT
??1ioCalendarSet@@QAE@XZ PROC				; ioCalendarSet::~ioCalendarSet, COMDAT
; _this$ = ecx

; 57   : 
; 58   : }

  00000	c3		 ret	 0
??1ioCalendarSet@@QAE@XZ ENDP				; ioCalendarSet::~ioCalendarSet
_TEXT	ENDS
PUBLIC	?SetClear@ioCalendarSet@@QAEXXZ			; ioCalendarSet::SetClear
; Function compile flags: /Ogsp
;	COMDAT ?SetClear@ioCalendarSet@@QAEXXZ
_TEXT	SEGMENT
?SetClear@ioCalendarSet@@QAEXXZ PROC			; ioCalendarSet::SetClear, COMDAT
; _this$ = ecx

; 62   : 	m_iYear		 = 0;

  00000	33 c0		 xor	 eax, eax
  00002	89 41 04	 mov	 DWORD PTR [ecx+4], eax

; 63   : 	m_iMonth	 = 0;

  00005	89 41 08	 mov	 DWORD PTR [ecx+8], eax

; 64   : 	m_iDay		 = 0;

  00008	89 41 0c	 mov	 DWORD PTR [ecx+12], eax

; 65   : 	m_iDayOfWeek = 0;

  0000b	89 41 10	 mov	 DWORD PTR [ecx+16], eax

; 66   : 	m_iHour		 = 0;

  0000e	89 41 14	 mov	 DWORD PTR [ecx+20], eax

; 67   : 	m_iMin		 = 0;

  00011	89 41 18	 mov	 DWORD PTR [ecx+24], eax

; 68   : }

  00014	c3		 ret	 0
?SetClear@ioCalendarSet@@QAEXXZ ENDP			; ioCalendarSet::SetClear
_TEXT	ENDS
PUBLIC	?SetTodayLocalDate@ioCalendarSet@@QAEXXZ	; ioCalendarSet::SetTodayLocalDate
EXTRN	?GetTodayOfMin@DateHelp@@YAHXZ:PROC		; DateHelp::GetTodayOfMin
EXTRN	?GetTodayOfHour@DateHelp@@YAHXZ:PROC		; DateHelp::GetTodayOfHour
EXTRN	?GetTodayOfWeek@DateHelp@@YAHXZ:PROC		; DateHelp::GetTodayOfWeek
EXTRN	?GetTodayOfDay@DateHelp@@YAHXZ:PROC		; DateHelp::GetTodayOfDay
EXTRN	?GetTodayOfMon@DateHelp@@YAHXZ:PROC		; DateHelp::GetTodayOfMon
EXTRN	?GetTodayOfYear@DateHelp@@YAHXZ:PROC		; DateHelp::GetTodayOfYear
; Function compile flags: /Ogsp
;	COMDAT ?SetTodayLocalDate@ioCalendarSet@@QAEXXZ
_TEXT	SEGMENT
?SetTodayLocalDate@ioCalendarSet@@QAEXXZ PROC		; ioCalendarSet::SetTodayLocalDate, COMDAT
; _this$ = ecx

; 71   : {

  00000	56		 push	 esi
  00001	8b f1		 mov	 esi, ecx

; 72   : 	m_iYear		 = DateHelp::GetTodayOfYear();

  00003	e8 00 00 00 00	 call	 ?GetTodayOfYear@DateHelp@@YAHXZ ; DateHelp::GetTodayOfYear
  00008	89 46 04	 mov	 DWORD PTR [esi+4], eax

; 73   : 	m_iMonth	 = DateHelp::GetTodayOfMon();

  0000b	e8 00 00 00 00	 call	 ?GetTodayOfMon@DateHelp@@YAHXZ ; DateHelp::GetTodayOfMon
  00010	89 46 08	 mov	 DWORD PTR [esi+8], eax

; 74   : 	m_iDay		 = DateHelp::GetTodayOfDay();

  00013	e8 00 00 00 00	 call	 ?GetTodayOfDay@DateHelp@@YAHXZ ; DateHelp::GetTodayOfDay
  00018	89 46 0c	 mov	 DWORD PTR [esi+12], eax

; 75   : 	m_iDayOfWeek = DateHelp::GetTodayOfWeek();

  0001b	e8 00 00 00 00	 call	 ?GetTodayOfWeek@DateHelp@@YAHXZ ; DateHelp::GetTodayOfWeek
  00020	89 46 10	 mov	 DWORD PTR [esi+16], eax

; 76   : 	m_iHour		 = DateHelp::GetTodayOfHour();

  00023	e8 00 00 00 00	 call	 ?GetTodayOfHour@DateHelp@@YAHXZ ; DateHelp::GetTodayOfHour
  00028	89 46 14	 mov	 DWORD PTR [esi+20], eax

; 77   : 	m_iMin		 = DateHelp::GetTodayOfMin();

  0002b	e8 00 00 00 00	 call	 ?GetTodayOfMin@DateHelp@@YAHXZ ; DateHelp::GetTodayOfMin
  00030	89 46 18	 mov	 DWORD PTR [esi+24], eax
  00033	5e		 pop	 esi

; 78   : }

  00034	c3		 ret	 0
?SetTodayLocalDate@ioCalendarSet@@QAEXXZ ENDP		; ioCalendarSet::SetTodayLocalDate
_TEXT	ENDS
PUBLIC	__$ArrayPad$
PUBLIC	?SetTodayServerDate@ioCalendarSet@@QAEXXZ	; ioCalendarSet::SetTodayServerDate
EXTRN	?GetServerTime@ioMyInfo@@QAEXAAU_SYSTEMTIME@@@Z:PROC ; ioMyInfo::GetServerTime
EXTRN	?GetSingleton@ioMyInfo@@SAAAV1@XZ:PROC		; ioMyInfo::GetSingleton
EXTRN	___security_cookie:DWORD
EXTRN	@__security_check_cookie@4:PROC
; Function compile flags: /Ogsp
;	COMDAT ?SetTodayServerDate@ioCalendarSet@@QAEXXZ
_TEXT	SEGMENT
_rkServerTime$ = -20					; size = 16
__$ArrayPad$ = -4					; size = 4
?SetTodayServerDate@ioCalendarSet@@QAEXXZ PROC		; ioCalendarSet::SetTodayServerDate, COMDAT
; _this$ = ecx

; 81   : {

  00000	55		 push	 ebp
  00001	8b ec		 mov	 ebp, esp
  00003	83 ec 14	 sub	 esp, 20			; 00000014H
  00006	a1 00 00 00 00	 mov	 eax, DWORD PTR ___security_cookie
  0000b	33 c5		 xor	 eax, ebp
  0000d	89 45 fc	 mov	 DWORD PTR __$ArrayPad$[ebp], eax
  00010	56		 push	 esi

; 82   : 	SYSTEMTIME rkServerTime;
; 83   : 	g_MyInfo.GetServerTime( rkServerTime );

  00011	8d 45 ec	 lea	 eax, DWORD PTR _rkServerTime$[ebp]
  00014	50		 push	 eax
  00015	8b f1		 mov	 esi, ecx
  00017	e8 00 00 00 00	 call	 ?GetSingleton@ioMyInfo@@SAAAV1@XZ ; ioMyInfo::GetSingleton
  0001c	8b c8		 mov	 ecx, eax
  0001e	e8 00 00 00 00	 call	 ?GetServerTime@ioMyInfo@@QAEXAAU_SYSTEMTIME@@@Z ; ioMyInfo::GetServerTime

; 84   : 	m_iYear		 = rkServerTime.wYear;

  00023	0f b7 45 ec	 movzx	 eax, WORD PTR _rkServerTime$[ebp]

; 85   : 	m_iMonth	 = rkServerTime.wMonth;
; 86   : 	m_iDay		 = rkServerTime.wDay;
; 87   : 	m_iDayOfWeek = rkServerTime.wDayOfWeek;
; 88   : 	m_iHour		 = rkServerTime.wHour;
; 89   : 	m_iMin		 = rkServerTime.wMinute;
; 90   : }

  00027	8b 4d fc	 mov	 ecx, DWORD PTR __$ArrayPad$[ebp]
  0002a	89 46 04	 mov	 DWORD PTR [esi+4], eax
  0002d	0f b7 45 ee	 movzx	 eax, WORD PTR _rkServerTime$[ebp+2]
  00031	89 46 08	 mov	 DWORD PTR [esi+8], eax
  00034	0f b7 45 f2	 movzx	 eax, WORD PTR _rkServerTime$[ebp+6]
  00038	89 46 0c	 mov	 DWORD PTR [esi+12], eax
  0003b	0f b7 45 f0	 movzx	 eax, WORD PTR _rkServerTime$[ebp+4]
  0003f	89 46 10	 mov	 DWORD PTR [esi+16], eax
  00042	0f b7 45 f4	 movzx	 eax, WORD PTR _rkServerTime$[ebp+8]
  00046	89 46 14	 mov	 DWORD PTR [esi+20], eax
  00049	0f b7 45 f6	 movzx	 eax, WORD PTR _rkServerTime$[ebp+10]
  0004d	89 46 18	 mov	 DWORD PTR [esi+24], eax
  00050	33 cd		 xor	 ecx, ebp
  00052	5e		 pop	 esi
  00053	e8 00 00 00 00	 call	 @__security_check_cookie@4
  00058	c9		 leave
  00059	c3		 ret	 0
?SetTodayServerDate@ioCalendarSet@@QAEXXZ ENDP		; ioCalendarSet::SetTodayServerDate
_TEXT	ENDS
PUBLIC	?SetCalendarCompareType@ioCalendarSet@@QAEXW4DateType@@@Z ; ioCalendarSet::SetCalendarCompareType
; Function compile flags: /Ogsp
;	COMDAT ?SetCalendarCompareType@ioCalendarSet@@QAEXW4DateType@@@Z
_TEXT	SEGMENT
_eType$ = 8						; size = 4
?SetCalendarCompareType@ioCalendarSet@@QAEXW4DateType@@@Z PROC ; ioCalendarSet::SetCalendarCompareType, COMDAT
; _this$ = ecx

; 93   : {

  00000	55		 push	 ebp
  00001	8b ec		 mov	 ebp, esp

; 94   : 	m_eDateType = eType;

  00003	8b 45 08	 mov	 eax, DWORD PTR _eType$[ebp]
  00006	89 01		 mov	 DWORD PTR [ecx], eax

; 95   : }

  00008	5d		 pop	 ebp
  00009	c2 04 00	 ret	 4
?SetCalendarCompareType@ioCalendarSet@@QAEXW4DateType@@@Z ENDP ; ioCalendarSet::SetCalendarCompareType
_TEXT	ENDS
PUBLIC	?SetTournamentDate@ioCalendarSet@@QAEXK@Z	; ioCalendarSet::SetTournamentDate
EXTRN	?GetDateMinute@DateHelp@@YAHK@Z:PROC		; DateHelp::GetDateMinute
EXTRN	?GetDateHour@DateHelp@@YAHK@Z:PROC		; DateHelp::GetDateHour
EXTRN	?GetDateDay@DateHelp@@YAHK@Z:PROC		; DateHelp::GetDateDay
EXTRN	?GetDateMonth@DateHelp@@YAHK@Z:PROC		; DateHelp::GetDateMonth
EXTRN	?GetDateYear@DateHelp@@YAHK@Z:PROC		; DateHelp::GetDateYear
; Function compile flags: /Ogsp
;	COMDAT ?SetTournamentDate@ioCalendarSet@@QAEXK@Z
_TEXT	SEGMENT
_dwDate$ = 8						; size = 4
?SetTournamentDate@ioCalendarSet@@QAEXK@Z PROC		; ioCalendarSet::SetTournamentDate, COMDAT
; _this$ = ecx

; 98   : {	

  00000	55		 push	 ebp
  00001	8b ec		 mov	 ebp, esp
  00003	56		 push	 esi
  00004	57		 push	 edi

; 99   : 	m_iYear  = DateHelp::GetDateYear( dwDate );

  00005	8b 7d 08	 mov	 edi, DWORD PTR _dwDate$[ebp]
  00008	57		 push	 edi
  00009	8b f1		 mov	 esi, ecx
  0000b	e8 00 00 00 00	 call	 ?GetDateYear@DateHelp@@YAHK@Z ; DateHelp::GetDateYear

; 100  : 	m_iMonth = DateHelp::GetDateMonth( dwDate );

  00010	57		 push	 edi
  00011	89 46 04	 mov	 DWORD PTR [esi+4], eax
  00014	e8 00 00 00 00	 call	 ?GetDateMonth@DateHelp@@YAHK@Z ; DateHelp::GetDateMonth

; 101  : 	m_iDay   = DateHelp::GetDateDay( dwDate );

  00019	57		 push	 edi
  0001a	89 46 08	 mov	 DWORD PTR [esi+8], eax
  0001d	e8 00 00 00 00	 call	 ?GetDateDay@DateHelp@@YAHK@Z ; DateHelp::GetDateDay

; 102  : 	m_iHour  = DateHelp::GetDateHour( dwDate );

  00022	57		 push	 edi
  00023	89 46 0c	 mov	 DWORD PTR [esi+12], eax
  00026	e8 00 00 00 00	 call	 ?GetDateHour@DateHelp@@YAHK@Z ; DateHelp::GetDateHour

; 103  : 	m_iMin   = DateHelp::GetDateMinute( dwDate );

  0002b	57		 push	 edi
  0002c	89 46 14	 mov	 DWORD PTR [esi+20], eax
  0002f	e8 00 00 00 00	 call	 ?GetDateMinute@DateHelp@@YAHK@Z ; DateHelp::GetDateMinute
  00034	83 c4 14	 add	 esp, 20			; 00000014H
  00037	5f		 pop	 edi
  00038	89 46 18	 mov	 DWORD PTR [esi+24], eax
  0003b	5e		 pop	 esi

; 104  : }

  0003c	5d		 pop	 ebp
  0003d	c2 04 00	 ret	 4
?SetTournamentDate@ioCalendarSet@@QAEXK@Z ENDP		; ioCalendarSet::SetTournamentDate
_TEXT	ENDS
PUBLIC	?isEmpty@ioCalendarSet@@QAE_NXZ			; ioCalendarSet::isEmpty
; Function compile flags: /Ogsp
;	COMDAT ?isEmpty@ioCalendarSet@@QAE_NXZ
_TEXT	SEGMENT
?isEmpty@ioCalendarSet@@QAE_NXZ PROC			; ioCalendarSet::isEmpty, COMDAT
; _this$ = ecx

; 116  : 	if( m_eDateType == DT_LAST_HOUR )
; 117  : 	{
; 118  : 		if( m_iYear == 0 && m_iMonth == 0 && m_iDay == 0 && m_iHour == 0 )

  00000	33 c0		 xor	 eax, eax
  00002	83 39 01	 cmp	 DWORD PTR [ecx], 1
  00005	75 17		 jne	 SHORT $LN4@isEmpty
  00007	39 41 04	 cmp	 DWORD PTR [ecx+4], eax
  0000a	75 21		 jne	 SHORT $LN1@isEmpty
  0000c	39 41 08	 cmp	 DWORD PTR [ecx+8], eax
  0000f	75 1c		 jne	 SHORT $LN1@isEmpty
  00011	39 41 0c	 cmp	 DWORD PTR [ecx+12], eax
  00014	75 17		 jne	 SHORT $LN1@isEmpty
  00016	39 41 14	 cmp	 DWORD PTR [ecx+20], eax
$LN10@isEmpty:
  00019	75 12		 jne	 SHORT $LN1@isEmpty

; 119  : 			return true;

  0001b	b0 01		 mov	 al, 1

; 133  : }

  0001d	c3		 ret	 0
$LN4@isEmpty:

; 120  : 	}
; 121  : 	else if( m_eDateType == DT_LAST_HOUR )
; 122  : 	{
; 123  : 		if( m_iYear == 0 && m_iMonth == 0 && m_iDay == 0 && m_iHour == 0 && m_iMin == 0 )
; 124  : 			return true;
; 125  : 	}
; 126  : 	else
; 127  : 	{
; 128  : 		if( m_iYear == 0 && m_iMonth == 0 && m_iDay == 0 )

  0001e	39 41 04	 cmp	 DWORD PTR [ecx+4], eax
  00021	75 0a		 jne	 SHORT $LN1@isEmpty
  00023	39 41 08	 cmp	 DWORD PTR [ecx+8], eax
  00026	75 05		 jne	 SHORT $LN1@isEmpty
  00028	39 41 0c	 cmp	 DWORD PTR [ecx+12], eax

; 129  : 			return true;

  0002b	eb ec		 jmp	 SHORT $LN10@isEmpty
$LN1@isEmpty:

; 130  : 	}
; 131  : 
; 132  : 	return false;

  0002d	32 c0		 xor	 al, al

; 133  : }

  0002f	c3		 ret	 0
?isEmpty@ioCalendarSet@@QAE_NXZ ENDP			; ioCalendarSet::isEmpty
_TEXT	ENDS
PUBLIC	??8ioCalendarSet@@QAE_NABV0@@Z			; ioCalendarSet::operator==
; Function compile flags: /Ogsp
;	COMDAT ??8ioCalendarSet@@QAE_NABV0@@Z
_TEXT	SEGMENT
_rhs$ = 8						; size = 4
??8ioCalendarSet@@QAE_NABV0@@Z PROC			; ioCalendarSet::operator==, COMDAT
; _this$ = ecx

; 136  : {

  00000	55		 push	 ebp
  00001	8b ec		 mov	 ebp, esp

; 137  : 	if( m_eDateType == DT_LAST_HOUR )

  00003	8b 01		 mov	 eax, DWORD PTR [ecx]

; 138  : 	{
; 139  : 		if( m_iYear == rhs.m_iYear && m_iMonth == rhs.m_iMonth && m_iDay == rhs.m_iDay && m_iHour == rhs.m_iHour )

  00005	8b 51 04	 mov	 edx, DWORD PTR [ecx+4]
  00008	83 f8 01	 cmp	 eax, 1
  0000b	75 24		 jne	 SHORT $LN7@operator
  0000d	8b 45 08	 mov	 eax, DWORD PTR _rhs$[ebp]
  00010	3b 50 04	 cmp	 edx, DWORD PTR [eax+4]
  00013	75 5e		 jne	 SHORT $LN1@operator
  00015	8b 51 08	 mov	 edx, DWORD PTR [ecx+8]
  00018	3b 50 08	 cmp	 edx, DWORD PTR [eax+8]
  0001b	75 56		 jne	 SHORT $LN1@operator
  0001d	8b 51 0c	 mov	 edx, DWORD PTR [ecx+12]
  00020	3b 50 0c	 cmp	 edx, DWORD PTR [eax+12]
  00023	75 4e		 jne	 SHORT $LN1@operator
  00025	8b 49 14	 mov	 ecx, DWORD PTR [ecx+20]
  00028	3b 48 14	 cmp	 ecx, DWORD PTR [eax+20]
$LN10@operator:
  0002b	75 46		 jne	 SHORT $LN1@operator

; 140  : 			return true;

  0002d	b0 01		 mov	 al, 1
  0002f	eb 44		 jmp	 SHORT $LN8@operator
$LN7@operator:

; 141  : 	}
; 142  : 	else if( m_eDateType == DT_LAST_MIN )

  00031	83 f8 02	 cmp	 eax, 2

; 143  : 	{
; 144  : 		if( m_iYear == rhs.m_iYear && m_iMonth == rhs.m_iMonth && m_iDay == rhs.m_iDay && m_iHour == rhs.m_iHour && m_iMin == rhs.m_iMin )

  00034	8b 45 08	 mov	 eax, DWORD PTR _rhs$[ebp]
  00037	75 25		 jne	 SHORT $LN4@operator
  00039	3b 50 04	 cmp	 edx, DWORD PTR [eax+4]
  0003c	75 35		 jne	 SHORT $LN1@operator
  0003e	8b 51 08	 mov	 edx, DWORD PTR [ecx+8]
  00041	3b 50 08	 cmp	 edx, DWORD PTR [eax+8]
  00044	75 2d		 jne	 SHORT $LN1@operator
  00046	8b 51 0c	 mov	 edx, DWORD PTR [ecx+12]
  00049	3b 50 0c	 cmp	 edx, DWORD PTR [eax+12]
  0004c	75 25		 jne	 SHORT $LN1@operator
  0004e	8b 51 14	 mov	 edx, DWORD PTR [ecx+20]
  00051	3b 50 14	 cmp	 edx, DWORD PTR [eax+20]
  00054	75 1d		 jne	 SHORT $LN1@operator
  00056	8b 49 18	 mov	 ecx, DWORD PTR [ecx+24]
  00059	3b 48 18	 cmp	 ecx, DWORD PTR [eax+24]

; 145  : 			return true;

  0005c	eb cd		 jmp	 SHORT $LN10@operator
$LN4@operator:

; 146  : 	}
; 147  : 	else
; 148  : 	{
; 149  : 		if( m_iYear == rhs.m_iYear && m_iMonth == rhs.m_iMonth && m_iDay == rhs.m_iDay )

  0005e	3b 50 04	 cmp	 edx, DWORD PTR [eax+4]
  00061	75 10		 jne	 SHORT $LN1@operator
  00063	8b 51 08	 mov	 edx, DWORD PTR [ecx+8]
  00066	3b 50 08	 cmp	 edx, DWORD PTR [eax+8]
  00069	75 08		 jne	 SHORT $LN1@operator
  0006b	8b 49 0c	 mov	 ecx, DWORD PTR [ecx+12]
  0006e	3b 48 0c	 cmp	 ecx, DWORD PTR [eax+12]

; 150  : 			return true;

  00071	eb b8		 jmp	 SHORT $LN10@operator
$LN1@operator:

; 151  : 	}
; 152  : 
; 153  : 	return false;

  00073	32 c0		 xor	 al, al
$LN8@operator:

; 154  : }

  00075	5d		 pop	 ebp
  00076	c2 04 00	 ret	 4
??8ioCalendarSet@@QAE_NABV0@@Z ENDP			; ioCalendarSet::operator==
_TEXT	ENDS
PUBLIC	??OioCalendarSet@@QAE_NABV0@@Z			; ioCalendarSet::operator>
EXTRN	?GetDatePeriod@DateHelp@@YAHHHHHHHHHHHW4PeriodType@1@@Z:PROC ; DateHelp::GetDatePeriod
; Function compile flags: /Ogsp
;	COMDAT ??OioCalendarSet@@QAE_NABV0@@Z
_TEXT	SEGMENT
_rhs$ = 8						; size = 4
??OioCalendarSet@@QAE_NABV0@@Z PROC			; ioCalendarSet::operator>, COMDAT
; _this$ = ecx

; 157  : {

  00000	55		 push	 ebp
  00001	8b ec		 mov	 ebp, esp

; 158  : 
; 159  : 	if( m_eDateType == DT_LAST_HOUR )

  00003	8b 01		 mov	 eax, DWORD PTR [ecx]
  00005	83 f8 01	 cmp	 eax, 1
  00008	75 31		 jne	 SHORT $LN7@operator@2

; 160  : 	{
; 161  : 		if( DateHelp::GetDatePeriod( m_iYear, m_iMonth, m_iDay, m_iHour, 0, rhs.m_iYear, rhs.m_iMonth, rhs.m_iDay, rhs.m_iHour, 0, DateHelp::PT_MIN ) < 0 )

  0000a	8b 45 08	 mov	 eax, DWORD PTR _rhs$[ebp]
  0000d	6a 02		 push	 2
  0000f	33 d2		 xor	 edx, edx
  00011	52		 push	 edx
  00012	ff 70 14	 push	 DWORD PTR [eax+20]
  00015	ff 70 0c	 push	 DWORD PTR [eax+12]
  00018	ff 70 08	 push	 DWORD PTR [eax+8]
  0001b	ff 70 04	 push	 DWORD PTR [eax+4]
  0001e	52		 push	 edx
$LN10@operator@2:
  0001f	ff 71 14	 push	 DWORD PTR [ecx+20]
$LN11@operator@2:
  00022	ff 71 0c	 push	 DWORD PTR [ecx+12]
  00025	ff 71 08	 push	 DWORD PTR [ecx+8]
  00028	ff 71 04	 push	 DWORD PTR [ecx+4]
  0002b	e8 00 00 00 00	 call	 ?GetDatePeriod@DateHelp@@YAHHHHHHHHHHHW4PeriodType@1@@Z ; DateHelp::GetDatePeriod
  00030	83 c4 2c	 add	 esp, 44			; 0000002cH
  00033	85 c0		 test	 eax, eax
  00035	79 34		 jns	 SHORT $LN1@operator@2

; 162  : 			return true;

  00037	b0 01		 mov	 al, 1
  00039	eb 32		 jmp	 SHORT $LN8@operator@2
$LN7@operator@2:

; 163  : 	}
; 164  : 	else if( m_eDateType == DT_LAST_MIN )

  0003b	83 f8 02	 cmp	 eax, 2

; 165  : 	{
; 166  : 		if( DateHelp::GetDatePeriod( m_iYear, m_iMonth, m_iDay, m_iHour, m_iMin, rhs.m_iYear, rhs.m_iMonth, rhs.m_iDay, rhs.m_iHour, rhs.m_iMin, DateHelp::PT_HOUR ) < 0 )

  0003e	8b 45 08	 mov	 eax, DWORD PTR _rhs$[ebp]
  00041	75 16		 jne	 SHORT $LN4@operator@2
  00043	6a 01		 push	 1
  00045	ff 70 18	 push	 DWORD PTR [eax+24]
  00048	ff 70 14	 push	 DWORD PTR [eax+20]
  0004b	ff 70 0c	 push	 DWORD PTR [eax+12]
  0004e	ff 70 08	 push	 DWORD PTR [eax+8]
  00051	ff 70 04	 push	 DWORD PTR [eax+4]
  00054	ff 71 18	 push	 DWORD PTR [ecx+24]

; 167  : 			return true;

  00057	eb c6		 jmp	 SHORT $LN10@operator@2
$LN4@operator@2:

; 168  : 	}
; 169  : 	else
; 170  : 	{
; 171  : 		if( DateHelp::GetDatePeriod( m_iYear, m_iMonth, m_iDay, 0, 0, rhs.m_iYear, rhs.m_iMonth, rhs.m_iDay, 0, 0 ) < 0 )

  00059	33 d2		 xor	 edx, edx
  0005b	52		 push	 edx
  0005c	52		 push	 edx
  0005d	52		 push	 edx
  0005e	ff 70 0c	 push	 DWORD PTR [eax+12]
  00061	ff 70 08	 push	 DWORD PTR [eax+8]
  00064	ff 70 04	 push	 DWORD PTR [eax+4]
  00067	52		 push	 edx
  00068	52		 push	 edx

; 172  : 			return true;

  00069	eb b7		 jmp	 SHORT $LN11@operator@2
$LN1@operator@2:

; 173  : 	}
; 174  : 
; 175  : 	return false;

  0006b	32 c0		 xor	 al, al
$LN8@operator@2:

; 176  : }

  0006d	5d		 pop	 ebp
  0006e	c2 04 00	 ret	 4
??OioCalendarSet@@QAE_NABV0@@Z ENDP			; ioCalendarSet::operator>
_TEXT	ENDS
PUBLIC	??MioCalendarSet@@QAE_NABV0@@Z			; ioCalendarSet::operator<
; Function compile flags: /Ogsp
;	COMDAT ??MioCalendarSet@@QAE_NABV0@@Z
_TEXT	SEGMENT
_rhs$ = 8						; size = 4
??MioCalendarSet@@QAE_NABV0@@Z PROC			; ioCalendarSet::operator<, COMDAT
; _this$ = ecx

; 179  : {

  00000	55		 push	 ebp
  00001	8b ec		 mov	 ebp, esp

; 180  : 	if( m_eDateType == DT_LAST_HOUR )

  00003	8b 01		 mov	 eax, DWORD PTR [ecx]
  00005	83 f8 01	 cmp	 eax, 1
  00008	75 30		 jne	 SHORT $LN7@operator@3

; 181  : 	{
; 182  : 		if( 0 < DateHelp::GetDatePeriod( m_iYear, m_iMonth, m_iDay, m_iHour, 0, rhs.m_iYear, rhs.m_iMonth, rhs.m_iDay, rhs.m_iHour, 0, DateHelp::PT_HOUR ) )

  0000a	50		 push	 eax
  0000b	8b 45 08	 mov	 eax, DWORD PTR _rhs$[ebp]
  0000e	33 d2		 xor	 edx, edx
  00010	52		 push	 edx
  00011	ff 70 14	 push	 DWORD PTR [eax+20]
  00014	ff 70 0c	 push	 DWORD PTR [eax+12]
  00017	ff 70 08	 push	 DWORD PTR [eax+8]
  0001a	ff 70 04	 push	 DWORD PTR [eax+4]
  0001d	52		 push	 edx
$LN10@operator@3:
  0001e	ff 71 14	 push	 DWORD PTR [ecx+20]
$LN11@operator@3:
  00021	ff 71 0c	 push	 DWORD PTR [ecx+12]
  00024	ff 71 08	 push	 DWORD PTR [ecx+8]
  00027	ff 71 04	 push	 DWORD PTR [ecx+4]
  0002a	e8 00 00 00 00	 call	 ?GetDatePeriod@DateHelp@@YAHHHHHHHHHHHW4PeriodType@1@@Z ; DateHelp::GetDatePeriod
  0002f	83 c4 2c	 add	 esp, 44			; 0000002cH
  00032	85 c0		 test	 eax, eax
  00034	7e 34		 jle	 SHORT $LN1@operator@3

; 183  : 			return true;

  00036	b0 01		 mov	 al, 1
  00038	eb 32		 jmp	 SHORT $LN8@operator@3
$LN7@operator@3:

; 184  : 	}
; 185  : 	else if( m_eDateType == DT_LAST_MIN )

  0003a	83 f8 02	 cmp	 eax, 2

; 186  : 	{
; 187  : 		if( 0 < DateHelp::GetDatePeriod( m_iYear, m_iMonth, m_iDay, m_iHour, m_iMin, rhs.m_iYear, rhs.m_iMonth, rhs.m_iDay, rhs.m_iHour, rhs.m_iMin, DateHelp::PT_MIN ) )

  0003d	8b 45 08	 mov	 eax, DWORD PTR _rhs$[ebp]
  00040	75 16		 jne	 SHORT $LN4@operator@3
  00042	6a 02		 push	 2
  00044	ff 70 18	 push	 DWORD PTR [eax+24]
  00047	ff 70 14	 push	 DWORD PTR [eax+20]
  0004a	ff 70 0c	 push	 DWORD PTR [eax+12]
  0004d	ff 70 08	 push	 DWORD PTR [eax+8]
  00050	ff 70 04	 push	 DWORD PTR [eax+4]
  00053	ff 71 18	 push	 DWORD PTR [ecx+24]

; 188  : 			return true;

  00056	eb c6		 jmp	 SHORT $LN10@operator@3
$LN4@operator@3:

; 189  : 	}
; 190  : 	else
; 191  : 	{
; 192  : 		if( 0 < DateHelp::GetDatePeriod( m_iYear, m_iMonth, m_iDay, 0, 0, rhs.m_iYear, rhs.m_iMonth, rhs.m_iDay, 0, 0 ) )

  00058	33 d2		 xor	 edx, edx
  0005a	52		 push	 edx
  0005b	52		 push	 edx
  0005c	52		 push	 edx
  0005d	ff 70 0c	 push	 DWORD PTR [eax+12]
  00060	ff 70 08	 push	 DWORD PTR [eax+8]
  00063	ff 70 04	 push	 DWORD PTR [eax+4]
  00066	52		 push	 edx
  00067	52		 push	 edx

; 193  : 			return true;

  00068	eb b7		 jmp	 SHORT $LN11@operator@3
$LN1@operator@3:

; 194  : 	}
; 195  : 
; 196  : 	return false;

  0006a	32 c0		 xor	 al, al
$LN8@operator@3:

; 197  : }

  0006c	5d		 pop	 ebp
  0006d	c2 04 00	 ret	 4
??MioCalendarSet@@QAE_NABV0@@Z ENDP			; ioCalendarSet::operator<
_TEXT	ENDS
PUBLIC	??NioCalendarSet@@QAE_NABV0@@Z			; ioCalendarSet::operator<=
; Function compile flags: /Ogsp
;	COMDAT ??NioCalendarSet@@QAE_NABV0@@Z
_TEXT	SEGMENT
_rhs$ = 8						; size = 4
??NioCalendarSet@@QAE_NABV0@@Z PROC			; ioCalendarSet::operator<=, COMDAT
; _this$ = ecx

; 200  : {

  00000	55		 push	 ebp
  00001	8b ec		 mov	 ebp, esp
  00003	56		 push	 esi

; 201  : 	if( operator==(rhs) )

  00004	ff 75 08	 push	 DWORD PTR _rhs$[ebp]
  00007	8b f1		 mov	 esi, ecx
  00009	e8 00 00 00 00	 call	 ??8ioCalendarSet@@QAE_NABV0@@Z ; ioCalendarSet::operator==
  0000e	84 c0		 test	 al, al
  00010	74 04		 je	 SHORT $LN3@operator@4

; 202  : 		return true;

  00012	b0 01		 mov	 al, 1
  00014	eb 0f		 jmp	 SHORT $LN1@operator@4
$LN3@operator@4:

; 203  : 	else if( operator<(rhs) )

  00016	ff 75 08	 push	 DWORD PTR _rhs$[ebp]
  00019	8b ce		 mov	 ecx, esi
  0001b	e8 00 00 00 00	 call	 ??MioCalendarSet@@QAE_NABV0@@Z ; ioCalendarSet::operator<
  00020	84 c0		 test	 al, al
  00022	0f 95 c0	 setne	 al
$LN1@operator@4:
  00025	5e		 pop	 esi

; 204  : 		return true;
; 205  : 
; 206  : 	return false;
; 207  : }

  00026	5d		 pop	 ebp
  00027	c2 04 00	 ret	 4
??NioCalendarSet@@QAE_NABV0@@Z ENDP			; ioCalendarSet::operator<=
_TEXT	ENDS
PUBLIC	??PioCalendarSet@@QAE_NABV0@@Z			; ioCalendarSet::operator>=
; Function compile flags: /Ogsp
;	COMDAT ??PioCalendarSet@@QAE_NABV0@@Z
_TEXT	SEGMENT
_rhs$ = 8						; size = 4
??PioCalendarSet@@QAE_NABV0@@Z PROC			; ioCalendarSet::operator>=, COMDAT
; _this$ = ecx

; 210  : {

  00000	55		 push	 ebp
  00001	8b ec		 mov	 ebp, esp
  00003	56		 push	 esi

; 211  : 	if( operator==(rhs) )

  00004	ff 75 08	 push	 DWORD PTR _rhs$[ebp]
  00007	8b f1		 mov	 esi, ecx
  00009	e8 00 00 00 00	 call	 ??8ioCalendarSet@@QAE_NABV0@@Z ; ioCalendarSet::operator==
  0000e	84 c0		 test	 al, al
  00010	74 04		 je	 SHORT $LN3@operator@5

; 212  : 		return true;

  00012	b0 01		 mov	 al, 1
  00014	eb 0f		 jmp	 SHORT $LN1@operator@5
$LN3@operator@5:

; 213  : 	else if( operator>(rhs) )

  00016	ff 75 08	 push	 DWORD PTR _rhs$[ebp]
  00019	8b ce		 mov	 ecx, esi
  0001b	e8 00 00 00 00	 call	 ??OioCalendarSet@@QAE_NABV0@@Z ; ioCalendarSet::operator>
  00020	84 c0		 test	 al, al
  00022	0f 95 c0	 setne	 al
$LN1@operator@5:
  00025	5e		 pop	 esi

; 214  : 		return true;
; 215  : 
; 216  : 	return false;
; 217  : }

  00026	5d		 pop	 ebp
  00027	c2 04 00	 ret	 4
??PioCalendarSet@@QAE_NABV0@@Z ENDP			; ioCalendarSet::operator>=
_TEXT	ENDS
PUBLIC	??HioCalendarSet@@QAE?AV0@H@Z			; ioCalendarSet::operator+
EXTRN	?IncreaseMin@DateHelp@@YAXAAH0000H@Z:PROC	; DateHelp::IncreaseMin
; Function compile flags: /Ogsp
;	COMDAT ??HioCalendarSet@@QAE?AV0@H@Z
_TEXT	SEGMENT
___$ReturnUdt$ = 8					; size = 4
_iMin$ = 12						; size = 4
??HioCalendarSet@@QAE?AV0@H@Z PROC			; ioCalendarSet::operator+, COMDAT
; _this$ = ecx

; 220  : {

  00000	55		 push	 ebp
  00001	8b ec		 mov	 ebp, esp
  00003	56		 push	 esi

; 221  : 	ioCalendarSet kSet = (*this);

  00004	8b 75 08	 mov	 esi, DWORD PTR ___$ReturnUdt$[ebp]
  00007	51		 push	 ecx
  00008	8b ce		 mov	 ecx, esi
  0000a	e8 00 00 00 00	 call	 ??0ioCalendarSet@@QAE@ABV0@@Z ; ioCalendarSet::ioCalendarSet

; 222  : 	DateHelp::IncreaseMin( kSet.m_iYear, kSet.m_iMonth, kSet.m_iDay, kSet.m_iHour, kSet.m_iMin, iMin );

  0000f	ff 75 0c	 push	 DWORD PTR _iMin$[ebp]
  00012	8d 46 18	 lea	 eax, DWORD PTR [esi+24]
  00015	50		 push	 eax
  00016	8d 46 14	 lea	 eax, DWORD PTR [esi+20]
  00019	50		 push	 eax
  0001a	8d 46 0c	 lea	 eax, DWORD PTR [esi+12]
  0001d	50		 push	 eax
  0001e	8d 46 08	 lea	 eax, DWORD PTR [esi+8]
  00021	50		 push	 eax
  00022	8d 46 04	 lea	 eax, DWORD PTR [esi+4]
  00025	50		 push	 eax
  00026	e8 00 00 00 00	 call	 ?IncreaseMin@DateHelp@@YAXAAH0000H@Z ; DateHelp::IncreaseMin
  0002b	83 c4 18	 add	 esp, 24			; 00000018H

; 223  : 
; 224  : 	return kSet;

  0002e	8b c6		 mov	 eax, esi
  00030	5e		 pop	 esi

; 225  : }

  00031	5d		 pop	 ebp
  00032	c2 08 00	 ret	 8
??HioCalendarSet@@QAE?AV0@H@Z ENDP			; ioCalendarSet::operator+
_TEXT	ENDS
PUBLIC	??GioCalendarSet@@QAEHABV0@@Z			; ioCalendarSet::operator-
; Function compile flags: /Ogsp
;	COMDAT ??GioCalendarSet@@QAEHABV0@@Z
_TEXT	SEGMENT
_rhs$ = 8						; size = 4
??GioCalendarSet@@QAEHABV0@@Z PROC			; ioCalendarSet::operator-, COMDAT
; _this$ = ecx

; 228  : {

  00000	55		 push	 ebp
  00001	8b ec		 mov	 ebp, esp

; 229  : 	if( m_eDateType == DT_LAST_HOUR )

  00003	8b 01		 mov	 eax, DWORD PTR [ecx]
  00005	83 f8 01	 cmp	 eax, 1
  00008	75 19		 jne	 SHORT $LN4@operator@6

; 230  : 	{
; 231  : 		return DateHelp::GetDatePeriod( rhs.m_iYear, rhs.m_iMonth, rhs.m_iDay, rhs.m_iHour, 0, m_iYear, m_iMonth, m_iDay, m_iHour, 0, DateHelp::PT_HOUR );

  0000a	50		 push	 eax
  0000b	33 c0		 xor	 eax, eax
  0000d	50		 push	 eax
  0000e	ff 71 14	 push	 DWORD PTR [ecx+20]
  00011	ff 71 0c	 push	 DWORD PTR [ecx+12]
  00014	ff 71 08	 push	 DWORD PTR [ecx+8]
  00017	ff 71 04	 push	 DWORD PTR [ecx+4]
  0001a	50		 push	 eax
  0001b	8b 45 08	 mov	 eax, DWORD PTR _rhs$[ebp]
$LN8@operator@6:
  0001e	ff 70 14	 push	 DWORD PTR [eax+20]
  00021	eb 30		 jmp	 SHORT $LN7@operator@6
$LN4@operator@6:

; 232  : 	}
; 233  : 	else if( m_eDateType == DT_LAST_MIN )

  00023	83 f8 02	 cmp	 eax, 2
  00026	75 18		 jne	 SHORT $LN2@operator@6

; 234  : 	{
; 235  : 		return DateHelp::GetDatePeriod( rhs.m_iYear, rhs.m_iMonth, rhs.m_iDay, rhs.m_iHour, rhs.m_iMin, m_iYear, m_iMonth, m_iDay, m_iHour, m_iMin, DateHelp::PT_MIN );

  00028	50		 push	 eax
  00029	ff 71 18	 push	 DWORD PTR [ecx+24]
  0002c	8b 45 08	 mov	 eax, DWORD PTR _rhs$[ebp]
  0002f	ff 71 14	 push	 DWORD PTR [ecx+20]
  00032	ff 71 0c	 push	 DWORD PTR [ecx+12]
  00035	ff 71 08	 push	 DWORD PTR [ecx+8]
  00038	ff 71 04	 push	 DWORD PTR [ecx+4]
  0003b	ff 70 18	 push	 DWORD PTR [eax+24]
  0003e	eb de		 jmp	 SHORT $LN8@operator@6
$LN2@operator@6:

; 236  : 	}
; 237  : 	else
; 238  : 	{
; 239  : 		return DateHelp::GetDatePeriod( rhs.m_iYear, rhs.m_iMonth, rhs.m_iDay, 0, 0, m_iYear, m_iMonth, m_iDay, 0, 0, DateHelp::PT_DAY );

  00040	33 c0		 xor	 eax, eax
  00042	50		 push	 eax
  00043	50		 push	 eax
  00044	50		 push	 eax
  00045	ff 71 0c	 push	 DWORD PTR [ecx+12]
  00048	ff 71 08	 push	 DWORD PTR [ecx+8]
  0004b	ff 71 04	 push	 DWORD PTR [ecx+4]
  0004e	50		 push	 eax
  0004f	50		 push	 eax
  00050	8b 45 08	 mov	 eax, DWORD PTR _rhs$[ebp]
$LN7@operator@6:
  00053	ff 70 0c	 push	 DWORD PTR [eax+12]
  00056	ff 70 08	 push	 DWORD PTR [eax+8]
  00059	ff 70 04	 push	 DWORD PTR [eax+4]
  0005c	e8 00 00 00 00	 call	 ?GetDatePeriod@DateHelp@@YAHHHHHHHHHHHW4PeriodType@1@@Z ; DateHelp::GetDatePeriod
  00061	83 c4 2c	 add	 esp, 44			; 0000002cH

; 240  : 	}
; 241  : }

  00064	5d		 pop	 ebp
  00065	c2 04 00	 ret	 4
??GioCalendarSet@@QAEHABV0@@Z ENDP			; ioCalendarSet::operator-
_TEXT	ENDS
PUBLIC	??0ioCalendarSet@@QAE@XZ			; ioCalendarSet::ioCalendarSet
; Function compile flags: /Ogsp
;	COMDAT ??0ioCalendarSet@@QAE@XZ
_TEXT	SEGMENT
??0ioCalendarSet@@QAE@XZ PROC				; ioCalendarSet::ioCalendarSet, COMDAT
; _this$ = ecx

; 7    : {

  00000	8b c1		 mov	 eax, ecx

; 8    : 	SetClear();

  00002	33 c9		 xor	 ecx, ecx
  00004	89 48 04	 mov	 DWORD PTR [eax+4], ecx
  00007	89 48 08	 mov	 DWORD PTR [eax+8], ecx
  0000a	89 48 0c	 mov	 DWORD PTR [eax+12], ecx
  0000d	89 48 10	 mov	 DWORD PTR [eax+16], ecx
  00010	89 48 14	 mov	 DWORD PTR [eax+20], ecx
  00013	89 48 18	 mov	 DWORD PTR [eax+24], ecx

; 9    : 	m_eDateType   = DT_LAST_DAY;

  00016	89 08		 mov	 DWORD PTR [eax], ecx

; 10   : }

  00018	c3		 ret	 0
??0ioCalendarSet@@QAE@XZ ENDP				; ioCalendarSet::ioCalendarSet
_TEXT	ENDS
PUBLIC	??0ioCalendarSet@@QAE@W4DateType@@@Z		; ioCalendarSet::ioCalendarSet
; Function compile flags: /Ogsp
;	COMDAT ??0ioCalendarSet@@QAE@W4DateType@@@Z
_TEXT	SEGMENT
_eType$ = 8						; size = 4
??0ioCalendarSet@@QAE@W4DateType@@@Z PROC		; ioCalendarSet::ioCalendarSet, COMDAT
; _this$ = ecx

; 13   : {

  00000	55		 push	 ebp
  00001	8b ec		 mov	 ebp, esp
  00003	8b c1		 mov	 eax, ecx

; 14   : 	SetClear();

  00005	33 c9		 xor	 ecx, ecx
  00007	89 48 04	 mov	 DWORD PTR [eax+4], ecx
  0000a	89 48 08	 mov	 DWORD PTR [eax+8], ecx
  0000d	89 48 0c	 mov	 DWORD PTR [eax+12], ecx
  00010	89 48 10	 mov	 DWORD PTR [eax+16], ecx
  00013	89 48 14	 mov	 DWORD PTR [eax+20], ecx
  00016	89 48 18	 mov	 DWORD PTR [eax+24], ecx

; 15   : 	m_eDateType = eType;

  00019	8b 4d 08	 mov	 ecx, DWORD PTR _eType$[ebp]
  0001c	89 08		 mov	 DWORD PTR [eax], ecx

; 16   : }

  0001e	5d		 pop	 ebp
  0001f	c2 04 00	 ret	 4
??0ioCalendarSet@@QAE@W4DateType@@@Z ENDP		; ioCalendarSet::ioCalendarSet
_TEXT	ENDS
PUBLIC	??0ioCalendarSet@@QAE@K@Z			; ioCalendarSet::ioCalendarSet
; Function compile flags: /Ogsp
;	COMDAT ??0ioCalendarSet@@QAE@K@Z
_TEXT	SEGMENT
_dwDate$ = 8						; size = 4
??0ioCalendarSet@@QAE@K@Z PROC				; ioCalendarSet::ioCalendarSet, COMDAT
; _this$ = ecx

; 19   : {

  00000	55		 push	 ebp
  00001	8b ec		 mov	 ebp, esp

; 20   : 	SetClear();

  00003	33 c0		 xor	 eax, eax
  00005	56		 push	 esi
  00006	8b f1		 mov	 esi, ecx
  00008	89 46 04	 mov	 DWORD PTR [esi+4], eax
  0000b	89 46 08	 mov	 DWORD PTR [esi+8], eax
  0000e	89 46 0c	 mov	 DWORD PTR [esi+12], eax
  00011	89 46 10	 mov	 DWORD PTR [esi+16], eax
  00014	89 46 14	 mov	 DWORD PTR [esi+20], eax
  00017	89 46 18	 mov	 DWORD PTR [esi+24], eax

; 21   : 	if( dwDate != 0 )

  0001a	39 45 08	 cmp	 DWORD PTR _dwDate$[ebp], eax
  0001d	74 08		 je	 SHORT $LN1@ioCalendar

; 22   : 		SetTournamentDate( dwDate );

  0001f	ff 75 08	 push	 DWORD PTR _dwDate$[ebp]
  00022	e8 00 00 00 00	 call	 ?SetTournamentDate@ioCalendarSet@@QAEXK@Z ; ioCalendarSet::SetTournamentDate
$LN1@ioCalendar:

; 23   : }

  00027	8b c6		 mov	 eax, esi
  00029	5e		 pop	 esi
  0002a	5d		 pop	 ebp
  0002b	c2 04 00	 ret	 4
??0ioCalendarSet@@QAE@K@Z ENDP				; ioCalendarSet::ioCalendarSet
_TEXT	ENDS
PUBLIC	??0ioCalendarSet@@QAE@KW4DateType@@@Z		; ioCalendarSet::ioCalendarSet
; Function compile flags: /Ogsp
;	COMDAT ??0ioCalendarSet@@QAE@KW4DateType@@@Z
_TEXT	SEGMENT
_dwDate$ = 8						; size = 4
_eType$ = 12						; size = 4
??0ioCalendarSet@@QAE@KW4DateType@@@Z PROC		; ioCalendarSet::ioCalendarSet, COMDAT
; _this$ = ecx

; 26   : {

  00000	55		 push	 ebp
  00001	8b ec		 mov	 ebp, esp

; 27   : 	SetClear();

  00003	33 c0		 xor	 eax, eax
  00005	56		 push	 esi
  00006	8b f1		 mov	 esi, ecx
  00008	89 46 04	 mov	 DWORD PTR [esi+4], eax
  0000b	89 46 08	 mov	 DWORD PTR [esi+8], eax
  0000e	89 46 0c	 mov	 DWORD PTR [esi+12], eax
  00011	89 46 10	 mov	 DWORD PTR [esi+16], eax
  00014	89 46 14	 mov	 DWORD PTR [esi+20], eax
  00017	89 46 18	 mov	 DWORD PTR [esi+24], eax

; 28   : 	if( dwDate != 0 )

  0001a	39 45 08	 cmp	 DWORD PTR _dwDate$[ebp], eax
  0001d	74 08		 je	 SHORT $LN1@ioCalendar@2

; 29   : 		SetTournamentDate( dwDate );

  0001f	ff 75 08	 push	 DWORD PTR _dwDate$[ebp]
  00022	e8 00 00 00 00	 call	 ?SetTournamentDate@ioCalendarSet@@QAEXK@Z ; ioCalendarSet::SetTournamentDate
$LN1@ioCalendar@2:

; 30   : 
; 31   : 	m_eDateType = eType;

  00027	8b 45 0c	 mov	 eax, DWORD PTR _eType$[ebp]
  0002a	89 06		 mov	 DWORD PTR [esi], eax

; 32   : }

  0002c	8b c6		 mov	 eax, esi
  0002e	5e		 pop	 esi
  0002f	5d		 pop	 ebp
  00030	c2 08 00	 ret	 8
??0ioCalendarSet@@QAE@KW4DateType@@@Z ENDP		; ioCalendarSet::ioCalendarSet
_TEXT	ENDS
PUBLIC	?GetDate@ioCalendarSet@@QAEKXZ			; ioCalendarSet::GetDate
EXTRN	?ConvertDwDate@DateHelp@@YAKHHHHH@Z:PROC	; DateHelp::ConvertDwDate
; Function compile flags: /Ogsp
;	COMDAT ?GetDate@ioCalendarSet@@QAEKXZ
_TEXT	SEGMENT
?GetDate@ioCalendarSet@@QAEKXZ PROC			; ioCalendarSet::GetDate, COMDAT
; _this$ = ecx

; 108  : 	if( isEmpty() )

  00000	e8 00 00 00 00	 call	 ?isEmpty@ioCalendarSet@@QAE_NXZ ; ioCalendarSet::isEmpty
  00005	84 c0		 test	 al, al
  00007	74 03		 je	 SHORT $LN2@GetDate

; 109  : 		return 0;

  00009	33 c0		 xor	 eax, eax

; 112  : }

  0000b	c3		 ret	 0
$LN2@GetDate:

; 110  : 	else
; 111  : 		return DateHelp::ConvertDwDate( m_iYear, m_iMonth, m_iDay, m_iHour, m_iMin );

  0000c	ff 71 18	 push	 DWORD PTR [ecx+24]
  0000f	ff 71 14	 push	 DWORD PTR [ecx+20]
  00012	ff 71 0c	 push	 DWORD PTR [ecx+12]
  00015	ff 71 08	 push	 DWORD PTR [ecx+8]
  00018	ff 71 04	 push	 DWORD PTR [ecx+4]
  0001b	e8 00 00 00 00	 call	 ?ConvertDwDate@DateHelp@@YAKHHHHH@Z ; DateHelp::ConvertDwDate
  00020	83 c4 14	 add	 esp, 20			; 00000014H

; 112  : }

  00023	c3		 ret	 0
?GetDate@ioCalendarSet@@QAEKXZ ENDP			; ioCalendarSet::GetDate
_TEXT	ENDS
END
