; Listing generated by Microsoft (R) Optimizing Compiler Version 16.00.30319.01 

	TITLE	D:\Lost Saga For Developer\Youtube\Tutorial\Source\src\LSClient\ioCampManager.cpp
	.686P
	.XMM
	include listing.inc
	.model	flat

INCLUDELIB MSVCRT
INCLUDELIB OLDNAMES

PUBLIC	?ms_Singleton@?$Singleton@VioCampManager@@@@1PAVioCampManager@@A ; Singleton<ioCampManager>::ms_Singleton
;	COMDAT ?ms_Singleton@?$Singleton@VioCampManager@@@@1PAVioCampManager@@A
_BSS	SEGMENT
?ms_Singleton@?$Singleton@VioCampManager@@@@1PAVioCampManager@@A DD 01H DUP (?) ; Singleton<ioCampManager>::ms_Singleton
_BSS	ENDS
PUBLIC	?return5@@YAIXZ					; return5
; Function compile flags: /Ogsp
; File d:\lost saga for developer\youtube\tutorial\source\src\lsclient\stdafx.h
;	COMDAT ?return5@@YAIXZ
_TEXT	SEGMENT
?return5@@YAIXZ PROC					; return5, COMDAT

; 18   : 	__forceinline unsigned int return5() { __asm mov eax, 5 };

  00000	b8 05 00 00 00	 mov	 eax, 5
  00005	c3		 ret	 0
?return5@@YAIXZ ENDP					; return5
_TEXT	ENDS
PUBLIC	?return10@@YAIXZ				; return10
; Function compile flags: /Ogsp
;	COMDAT ?return10@@YAIXZ
_TEXT	SEGMENT
?return10@@YAIXZ PROC					; return10, COMDAT

; 21   : 	__forceinline unsigned int return10() { __asm mov eax, 10 };

  00000	b8 0a 00 00 00	 mov	 eax, 10			; 0000000aH
  00005	c3		 ret	 0
?return10@@YAIXZ ENDP					; return10
_TEXT	ENDS
PUBLIC	?return100@@YAIXZ				; return100
; Function compile flags: /Ogsp
;	COMDAT ?return100@@YAIXZ
_TEXT	SEGMENT
?return100@@YAIXZ PROC					; return100, COMDAT

; 25   : 	__forceinline unsigned int return100() { __asm mov eax, 100 };

  00000	b8 64 00 00 00	 mov	 eax, 100		; 00000064H
  00005	c3		 ret	 0
?return100@@YAIXZ ENDP					; return100
_TEXT	ENDS
PUBLIC	?return1000@@YAIXZ				; return1000
; Function compile flags: /Ogsp
;	COMDAT ?return1000@@YAIXZ
_TEXT	SEGMENT
?return1000@@YAIXZ PROC					; return1000, COMDAT

; 29   : 	__forceinline unsigned int return1000() { __asm mov eax, 1000 };

  00000	b8 e8 03 00 00	 mov	 eax, 1000		; 000003e8H
  00005	c3		 ret	 0
?return1000@@YAIXZ ENDP					; return1000
_TEXT	ENDS
PUBLIC	??_7bad_alloc@std@@6B@				; std::bad_alloc::`vftable'
PUBLIC	??0bad_alloc@std@@QAE@PBD@Z			; std::bad_alloc::bad_alloc
PUBLIC	??_R4bad_alloc@std@@6B@				; std::bad_alloc::`RTTI Complete Object Locator'
PUBLIC	??_R0?AVbad_alloc@std@@@8			; std::bad_alloc `RTTI Type Descriptor'
PUBLIC	??_R3bad_alloc@std@@8				; std::bad_alloc::`RTTI Class Hierarchy Descriptor'
PUBLIC	??_R2bad_alloc@std@@8				; std::bad_alloc::`RTTI Base Class Array'
PUBLIC	??_R1A@?0A@EA@bad_alloc@std@@8			; std::bad_alloc::`RTTI Base Class Descriptor at (0,-1,0,64)'
PUBLIC	??_R1A@?0A@EA@exception@std@@8			; std::exception::`RTTI Base Class Descriptor at (0,-1,0,64)'
PUBLIC	??_R0?AVexception@std@@@8			; std::exception `RTTI Type Descriptor'
PUBLIC	??_R3exception@std@@8				; std::exception::`RTTI Class Hierarchy Descriptor'
PUBLIC	??_R2exception@std@@8				; std::exception::`RTTI Base Class Array'
EXTRN	__imp_??0exception@std@@QAE@ABQBD@Z:PROC
EXTRN	??_7type_info@@6B@:QWORD			; type_info::`vftable'
EXTRN	??_Ebad_alloc@std@@UAEPAXI@Z:PROC		; std::bad_alloc::`vector deleting destructor'
EXTRN	?what@exception@std@@UBEPBDXZ:PROC		; std::exception::what
;	COMDAT ??_R2exception@std@@8
; File c:\program files (x86)\microsoft visual studio 10.0\vc\include\exception
rdata$r	SEGMENT
??_R2exception@std@@8 DD FLAT:??_R1A@?0A@EA@exception@std@@8 ; std::exception::`RTTI Base Class Array'
rdata$r	ENDS
;	COMDAT ??_R3exception@std@@8
rdata$r	SEGMENT
??_R3exception@std@@8 DD 00H				; std::exception::`RTTI Class Hierarchy Descriptor'
	DD	00H
	DD	01H
	DD	FLAT:??_R2exception@std@@8
rdata$r	ENDS
;	COMDAT ??_R0?AVexception@std@@@8
_DATA	SEGMENT
??_R0?AVexception@std@@@8 DD FLAT:??_7type_info@@6B@	; std::exception `RTTI Type Descriptor'
	DD	00H
	DB	'.?AVexception@std@@', 00H
_DATA	ENDS
;	COMDAT ??_R1A@?0A@EA@exception@std@@8
rdata$r	SEGMENT
??_R1A@?0A@EA@exception@std@@8 DD FLAT:??_R0?AVexception@std@@@8 ; std::exception::`RTTI Base Class Descriptor at (0,-1,0,64)'
	DD	00H
	DD	00H
	DD	0ffffffffH
	DD	00H
	DD	040H
	DD	FLAT:??_R3exception@std@@8
rdata$r	ENDS
;	COMDAT ??_R1A@?0A@EA@bad_alloc@std@@8
rdata$r	SEGMENT
??_R1A@?0A@EA@bad_alloc@std@@8 DD FLAT:??_R0?AVbad_alloc@std@@@8 ; std::bad_alloc::`RTTI Base Class Descriptor at (0,-1,0,64)'
	DD	01H
	DD	00H
	DD	0ffffffffH
	DD	00H
	DD	040H
	DD	FLAT:??_R3bad_alloc@std@@8
rdata$r	ENDS
;	COMDAT ??_R2bad_alloc@std@@8
rdata$r	SEGMENT
??_R2bad_alloc@std@@8 DD FLAT:??_R1A@?0A@EA@bad_alloc@std@@8 ; std::bad_alloc::`RTTI Base Class Array'
	DD	FLAT:??_R1A@?0A@EA@exception@std@@8
rdata$r	ENDS
;	COMDAT ??_R3bad_alloc@std@@8
rdata$r	SEGMENT
??_R3bad_alloc@std@@8 DD 00H				; std::bad_alloc::`RTTI Class Hierarchy Descriptor'
	DD	00H
	DD	02H
	DD	FLAT:??_R2bad_alloc@std@@8
rdata$r	ENDS
;	COMDAT ??_R0?AVbad_alloc@std@@@8
_DATA	SEGMENT
??_R0?AVbad_alloc@std@@@8 DD FLAT:??_7type_info@@6B@	; std::bad_alloc `RTTI Type Descriptor'
	DD	00H
	DB	'.?AVbad_alloc@std@@', 00H
_DATA	ENDS
;	COMDAT ??_R4bad_alloc@std@@6B@
rdata$r	SEGMENT
??_R4bad_alloc@std@@6B@ DD 00H				; std::bad_alloc::`RTTI Complete Object Locator'
	DD	00H
	DD	00H
	DD	FLAT:??_R0?AVbad_alloc@std@@@8
	DD	FLAT:??_R3bad_alloc@std@@8
rdata$r	ENDS
;	COMDAT ??_7bad_alloc@std@@6B@
CONST	SEGMENT
??_7bad_alloc@std@@6B@ DD FLAT:??_R4bad_alloc@std@@6B@	; std::bad_alloc::`vftable'
	DD	FLAT:??_Ebad_alloc@std@@UAEPAXI@Z
	DD	FLAT:?what@exception@std@@UBEPBDXZ
; Function compile flags: /Ogsp
CONST	ENDS
;	COMDAT ??0bad_alloc@std@@QAE@PBD@Z
_TEXT	SEGMENT
__Message$ = 8						; size = 4
??0bad_alloc@std@@QAE@PBD@Z PROC			; std::bad_alloc::bad_alloc, COMDAT
; _this$ = ecx

; 345  : 		{	// construct from message string

  00000	55		 push	 ebp
  00001	8b ec		 mov	 ebp, esp
  00003	56		 push	 esi
  00004	8d 45 08	 lea	 eax, DWORD PTR __Message$[ebp]
  00007	50		 push	 eax
  00008	8b f1		 mov	 esi, ecx
  0000a	ff 15 00 00 00
	00		 call	 DWORD PTR __imp_??0exception@std@@QAE@ABQBD@Z
  00010	c7 06 00 00 00
	00		 mov	 DWORD PTR [esi], OFFSET ??_7bad_alloc@std@@6B@

; 346  : 		}

  00016	8b c6		 mov	 eax, esi
  00018	5e		 pop	 esi
  00019	5d		 pop	 ebp
  0001a	c2 04 00	 ret	 4
??0bad_alloc@std@@QAE@PBD@Z ENDP			; std::bad_alloc::bad_alloc
_TEXT	ENDS
PUBLIC	??1bad_alloc@std@@UAE@XZ			; std::bad_alloc::~bad_alloc
EXTRN	__imp_??1exception@std@@UAE@XZ:PROC
; Function compile flags: /Ogsp
;	COMDAT ??1bad_alloc@std@@UAE@XZ
_TEXT	SEGMENT
??1bad_alloc@std@@UAE@XZ PROC				; std::bad_alloc::~bad_alloc, COMDAT
; _this$ = ecx

; 354  : 		{	// destroy the object

  00000	c7 01 00 00 00
	00		 mov	 DWORD PTR [ecx], OFFSET ??_7bad_alloc@std@@6B@

; 355  : 		}

  00006	ff 25 00 00 00
	00		 jmp	 DWORD PTR __imp_??1exception@std@@UAE@XZ
??1bad_alloc@std@@UAE@XZ ENDP				; std::bad_alloc::~bad_alloc
_TEXT	ENDS
EXTRN	??3@YAXPAX@Z:PROC				; operator delete
; Function compile flags: /Ogsp
;	COMDAT ??_Gbad_alloc@std@@UAEPAXI@Z
_TEXT	SEGMENT
___flags$ = 8						; size = 4
??_Gbad_alloc@std@@UAEPAXI@Z PROC			; std::bad_alloc::`scalar deleting destructor', COMDAT
; _this$ = ecx
  00000	55		 push	 ebp
  00001	8b ec		 mov	 ebp, esp
  00003	56		 push	 esi
  00004	8b f1		 mov	 esi, ecx
  00006	c7 06 00 00 00
	00		 mov	 DWORD PTR [esi], OFFSET ??_7bad_alloc@std@@6B@
  0000c	ff 15 00 00 00
	00		 call	 DWORD PTR __imp_??1exception@std@@UAE@XZ
  00012	f6 45 08 01	 test	 BYTE PTR ___flags$[ebp], 1
  00016	74 07		 je	 SHORT $LN1@scalar
  00018	56		 push	 esi
  00019	e8 00 00 00 00	 call	 ??3@YAXPAX@Z		; operator delete
  0001e	59		 pop	 ecx
$LN1@scalar:
  0001f	8b c6		 mov	 eax, esi
  00021	5e		 pop	 esi
  00022	5d		 pop	 ebp
  00023	c2 04 00	 ret	 4
??_Gbad_alloc@std@@UAEPAXI@Z ENDP			; std::bad_alloc::`scalar deleting destructor'
_TEXT	ENDS
PUBLIC	??2@YAPAXIPAX@Z					; operator new
; Function compile flags: /Ogsp
; File c:\program files (x86)\microsoft visual studio 10.0\vc\include\new
;	COMDAT ??2@YAPAXIPAX@Z
_TEXT	SEGMENT
___formal$ = 8						; size = 4
__Where$ = 12						; size = 4
??2@YAPAXIPAX@Z PROC					; operator new, COMDAT

; 56   : 	{	// construct array with placement at _Where

  00000	55		 push	 ebp
  00001	8b ec		 mov	 ebp, esp

; 57   : 	return (_Where);

  00003	8b 45 0c	 mov	 eax, DWORD PTR __Where$[ebp]

; 58   : 	}

  00006	5d		 pop	 ebp
  00007	c3		 ret	 0
??2@YAPAXIPAX@Z ENDP					; operator new
_TEXT	ENDS
PUBLIC	??3@YAXPAX0@Z					; operator delete
; Function compile flags: /Ogsp
;	COMDAT ??3@YAXPAX0@Z
_TEXT	SEGMENT
___formal$ = 8						; size = 4
___formal$ = 12						; size = 4
??3@YAXPAX0@Z PROC					; operator delete, COMDAT

; 62   : 	}

  00000	c3		 ret	 0
??3@YAXPAX0@Z ENDP					; operator delete
_TEXT	ENDS
PUBLIC	?_Adopt@_Iterator_base0@std@@QAEXPBX@Z		; std::_Iterator_base0::_Adopt
; Function compile flags: /Ogsp
; File c:\program files (x86)\microsoft visual studio 10.0\vc\include\xutility
;	COMDAT ?_Adopt@_Iterator_base0@std@@QAEXPBX@Z
_TEXT	SEGMENT
___formal$ = 8						; size = 4
?_Adopt@_Iterator_base0@std@@QAEXPBX@Z PROC		; std::_Iterator_base0::_Adopt, COMDAT
; _this$ = ecx

; 49   : 		}

  00000	c2 04 00	 ret	 4
?_Adopt@_Iterator_base0@std@@QAEXPBX@Z ENDP		; std::_Iterator_base0::_Adopt
_TEXT	ENDS
PUBLIC	??1ioINILoader_e@@QAE@XZ			; ioINILoader_e::~ioINILoader_e
EXTRN	__imp_??1ioINILoader@@QAE@XZ:PROC
; Function compile flags: /Ogsp
;	COMDAT ??1ioINILoader_e@@QAE@XZ
_TEXT	SEGMENT
??1ioINILoader_e@@QAE@XZ PROC				; ioINILoader_e::~ioINILoader_e, COMDAT
; _this$ = ecx
  00000	ff 25 00 00 00
	00		 jmp	 DWORD PTR __imp_??1ioINILoader@@QAE@XZ
??1ioINILoader_e@@QAE@XZ ENDP				; ioINILoader_e::~ioINILoader_e
_TEXT	ENDS
PUBLIC	__$ArrayPad$
PUBLIC	?SyncCampData@ioCampManager@@QAEXXZ		; ioCampManager::SyncCampData
EXTRN	??1SP2Packet@@UAE@XZ:PROC			; SP2Packet::~SP2Packet
EXTRN	?SendToServer@TCPNetwork@@YAXAAVSP2Packet@@@Z:PROC ; TCPNetwork::SendToServer
EXTRN	??0SP2Packet@@QAE@K@Z:PROC			; SP2Packet::SP2Packet
EXTRN	__imp_?GetLoopSec@ioFrameTimer@@QBEKXZ:PROC
EXTRN	__imp_?GetSingleton@ioFrameTimer@@SAAAV1@XZ:PROC
EXTRN	___security_cookie:DWORD
EXTRN	___CxxFrameHandler3:PROC
EXTRN	@__security_check_cookie@4:PROC
EXTRN	__chkstk:PROC
;	COMDAT xdata$x
; File d:\lost saga for developer\youtube\tutorial\source\src\lsclient\iocampmanager.cpp
xdata$x	SEGMENT
__unwindtable$?SyncCampData@ioCampManager@@QAEXXZ DD 0ffffffffH
	DD	FLAT:__unwindfunclet$?SyncCampData@ioCampManager@@QAEXXZ$0
__ehfuncinfo$?SyncCampData@ioCampManager@@QAEXXZ DD 019930522H
	DD	01H
	DD	FLAT:__unwindtable$?SyncCampData@ioCampManager@@QAEXXZ
	DD	2 DUP(00H)
	DD	2 DUP(00H)
	DD	00H
	DD	01H
; Function compile flags: /Ogsp
xdata$x	ENDS
;	COMDAT ?SyncCampData@ioCampManager@@QAEXXZ
_TEXT	SEGMENT
_kPacket$515213 = -32808				; size = 32792
__$ArrayPad$ = -16					; size = 4
__$EHRec$ = -12						; size = 12
?SyncCampData@ioCampManager@@QAEXXZ PROC		; ioCampManager::SyncCampData, COMDAT
; _this$ = ecx

; 220  : {

  00000	55		 push	 ebp
  00001	8b ec		 mov	 ebp, esp
  00003	6a ff		 push	 -1
  00005	68 00 00 00 00	 push	 __ehhandler$?SyncCampData@ioCampManager@@QAEXXZ
  0000a	64 a1 00 00 00
	00		 mov	 eax, DWORD PTR fs:0
  00010	50		 push	 eax
  00011	b8 1c 80 00 00	 mov	 eax, 32796		; 0000801cH
  00016	e8 00 00 00 00	 call	 __chkstk
  0001b	a1 00 00 00 00	 mov	 eax, DWORD PTR ___security_cookie
  00020	33 c5		 xor	 eax, ebp
  00022	89 45 f0	 mov	 DWORD PTR __$ArrayPad$[ebp], eax
  00025	56		 push	 esi
  00026	57		 push	 edi
  00027	50		 push	 eax
  00028	8d 45 f4	 lea	 eax, DWORD PTR __$EHRec$[ebp]
  0002b	64 a3 00 00 00
	00		 mov	 DWORD PTR fs:0, eax

; 221  : 	if( m_dwCurTimer == 0 || FRAMEGETTIME() - m_dwCurTimer > m_dwSyncTime )

  00031	8b 3d 00 00 00
	00		 mov	 edi, DWORD PTR __imp_?GetSingleton@ioFrameTimer@@SAAAV1@XZ
  00037	8b f1		 mov	 esi, ecx
  00039	83 be bc 00 00
	00 00		 cmp	 DWORD PTR [esi+188], 0
  00040	74 18		 je	 SHORT $LN1@SyncCampDa
  00042	ff d7		 call	 edi
  00044	8b c8		 mov	 ecx, eax
  00046	ff 15 00 00 00
	00		 call	 DWORD PTR __imp_?GetLoopSec@ioFrameTimer@@QBEKXZ
  0004c	2b 86 bc 00 00
	00		 sub	 eax, DWORD PTR [esi+188]
  00052	3b 86 c0 00 00
	00		 cmp	 eax, DWORD PTR [esi+192]
  00058	76 40		 jbe	 SHORT $LN2@SyncCampDa
$LN1@SyncCampDa:

; 222  : 	{
; 223  : 		m_dwCurTimer = FRAMEGETTIME();

  0005a	ff d7		 call	 edi
  0005c	8b c8		 mov	 ecx, eax
  0005e	ff 15 00 00 00
	00		 call	 DWORD PTR __imp_?GetLoopSec@ioFrameTimer@@QBEKXZ

; 224  : 		// SEND
; 225  : 		SP2Packet kPacket( CTPK_CAMP_DATA_SYNC );

  00064	68 78 01 00 00	 push	 376			; 00000178H
  00069	8d 8d d8 7f ff
	ff		 lea	 ecx, DWORD PTR _kPacket$515213[ebp]
  0006f	89 86 bc 00 00
	00		 mov	 DWORD PTR [esi+188], eax
  00075	e8 00 00 00 00	 call	 ??0SP2Packet@@QAE@K@Z	; SP2Packet::SP2Packet
  0007a	83 65 fc 00	 and	 DWORD PTR __$EHRec$[ebp+8], 0

; 226  : 		TCPNetwork::SendToServer( kPacket );

  0007e	8d 85 d8 7f ff
	ff		 lea	 eax, DWORD PTR _kPacket$515213[ebp]
  00084	50		 push	 eax
  00085	e8 00 00 00 00	 call	 ?SendToServer@TCPNetwork@@YAXAAVSP2Packet@@@Z ; TCPNetwork::SendToServer

; 227  : 	}

  0008a	83 4d fc ff	 or	 DWORD PTR __$EHRec$[ebp+8], -1
  0008e	59		 pop	 ecx
  0008f	8d 8d d8 7f ff
	ff		 lea	 ecx, DWORD PTR _kPacket$515213[ebp]
  00095	e8 00 00 00 00	 call	 ??1SP2Packet@@UAE@XZ	; SP2Packet::~SP2Packet
$LN2@SyncCampDa:

; 228  : }

  0009a	8b 4d f4	 mov	 ecx, DWORD PTR __$EHRec$[ebp]
  0009d	64 89 0d 00 00
	00 00		 mov	 DWORD PTR fs:0, ecx
  000a4	59		 pop	 ecx
  000a5	5f		 pop	 edi
  000a6	5e		 pop	 esi
  000a7	8b 4d f0	 mov	 ecx, DWORD PTR __$ArrayPad$[ebp]
  000aa	33 cd		 xor	 ecx, ebp
  000ac	e8 00 00 00 00	 call	 @__security_check_cookie@4
  000b1	c9		 leave
  000b2	c3		 ret	 0
_TEXT	ENDS
;	COMDAT text$x
text$x	SEGMENT
__unwindfunclet$?SyncCampData@ioCampManager@@QAEXXZ$0:
  00000	8d 8d d8 7f ff
	ff		 lea	 ecx, DWORD PTR _kPacket$515213[ebp]
  00006	e9 00 00 00 00	 jmp	 ??1SP2Packet@@UAE@XZ	; SP2Packet::~SP2Packet
__ehhandler$?SyncCampData@ioCampManager@@QAEXXZ:
  0000b	8b 54 24 08	 mov	 edx, DWORD PTR [esp+8]
  0000f	8d 42 0c	 lea	 eax, DWORD PTR [edx+12]
  00012	8b 8a d8 7f ff
	ff		 mov	 ecx, DWORD PTR [edx-32808]
  00018	33 c8		 xor	 ecx, eax
  0001a	e8 00 00 00 00	 call	 @__security_check_cookie@4
  0001f	8b 4a fc	 mov	 ecx, DWORD PTR [edx-4]
  00022	33 c8		 xor	 ecx, eax
  00024	e8 00 00 00 00	 call	 @__security_check_cookie@4
  00029	b8 00 00 00 00	 mov	 eax, OFFSET __ehfuncinfo$?SyncCampData@ioCampManager@@QAEXXZ
  0002e	e9 00 00 00 00	 jmp	 ___CxxFrameHandler3
text$x	ENDS
?SyncCampData@ioCampManager@@QAEXXZ ENDP		; ioCampManager::SyncCampData
PUBLIC	?IsCloseCampBattle@ioCampManager@@QAE_NXZ	; ioCampManager::IsCloseCampBattle
; Function compile flags: /Ogsp
;	COMDAT ?IsCloseCampBattle@ioCampManager@@QAE_NXZ
_TEXT	SEGMENT
?IsCloseCampBattle@ioCampManager@@QAE_NXZ PROC		; ioCampManager::IsCloseCampBattle, COMDAT
; _this$ = ecx

; 570  : 	if( m_SeasonState != SS_PLAY_PROCEED ) return true;

  00000	83 79 30 02	 cmp	 DWORD PTR [ecx+48], 2
  00004	74 03		 je	 SHORT $LN3@IsCloseCam
$LN6@IsCloseCam:
  00006	b0 01		 mov	 al, 1

; 573  : 
; 574  : 	return false;
; 575  : }

  00008	c3		 ret	 0
$LN3@IsCloseCam:

; 571  : 	if( m_iNextTodayBattleSec == -1 ) return true;

  00009	8b 81 c8 00 00
	00		 mov	 eax, DWORD PTR [ecx+200]
  0000f	83 f8 ff	 cmp	 eax, -1
  00012	74 f2		 je	 SHORT $LN6@IsCloseCam

; 572  : 	if( m_iNextTodayBattleSec / 60 < m_iCloseCheckMin ) return true;

  00014	56		 push	 esi
  00015	6a 3c		 push	 60			; 0000003cH
  00017	99		 cdq
  00018	5e		 pop	 esi
  00019	f7 fe		 idiv	 esi
  0001b	5e		 pop	 esi
  0001c	3b 81 e8 00 00
	00		 cmp	 eax, DWORD PTR [ecx+232]
  00022	0f 9c c0	 setl	 al

; 573  : 
; 574  : 	return false;
; 575  : }

  00025	c3		 ret	 0
?IsCloseCampBattle@ioCampManager@@QAE_NXZ ENDP		; ioCampManager::IsCloseCampBattle
_TEXT	ENDS
PUBLIC	??1tagHeroRankData@@QAE@XZ			; tagHeroRankData::~tagHeroRankData
EXTRN	__imp_??1ioHashString@@QAE@XZ:PROC
; Function compile flags: /Ogsp
;	COMDAT ??1tagHeroRankData@@QAE@XZ
_TEXT	SEGMENT
??1tagHeroRankData@@QAE@XZ PROC				; tagHeroRankData::~tagHeroRankData, COMDAT
; _this$ = ecx
  00000	83 c1 08	 add	 ecx, 8
  00003	ff 25 00 00 00
	00		 jmp	 DWORD PTR __imp_??1ioHashString@@QAE@XZ
??1tagHeroRankData@@QAE@XZ ENDP				; tagHeroRankData::~tagHeroRankData
_TEXT	ENDS
PUBLIC	??4tagHeroRankData@@QAEAAU0@ABU0@@Z		; tagHeroRankData::operator=
EXTRN	__imp_??4ioHashString@@QAEAAV0@ABV0@@Z:PROC
; Function compile flags: /Ogsp
;	COMDAT ??4tagHeroRankData@@QAEAAU0@ABU0@@Z
_TEXT	SEGMENT
___that$ = 8						; size = 4
??4tagHeroRankData@@QAEAAU0@ABU0@@Z PROC		; tagHeroRankData::operator=, COMDAT
; _this$ = ecx
  00000	55		 push	 ebp
  00001	8b ec		 mov	 ebp, esp
  00003	56		 push	 esi
  00004	57		 push	 edi
  00005	8b 7d 08	 mov	 edi, DWORD PTR ___that$[ebp]
  00008	8b 07		 mov	 eax, DWORD PTR [edi]
  0000a	8b f1		 mov	 esi, ecx
  0000c	89 06		 mov	 DWORD PTR [esi], eax
  0000e	8b 47 04	 mov	 eax, DWORD PTR [edi+4]
  00011	89 46 04	 mov	 DWORD PTR [esi+4], eax
  00014	8d 47 08	 lea	 eax, DWORD PTR [edi+8]
  00017	50		 push	 eax
  00018	8d 4e 08	 lea	 ecx, DWORD PTR [esi+8]
  0001b	ff 15 00 00 00
	00		 call	 DWORD PTR __imp_??4ioHashString@@QAEAAV0@ABV0@@Z
  00021	8b 47 18	 mov	 eax, DWORD PTR [edi+24]
  00024	89 46 18	 mov	 DWORD PTR [esi+24], eax
  00027	8b 47 1c	 mov	 eax, DWORD PTR [edi+28]
  0002a	89 46 1c	 mov	 DWORD PTR [esi+28], eax
  0002d	8b 47 20	 mov	 eax, DWORD PTR [edi+32]
  00030	89 46 20	 mov	 DWORD PTR [esi+32], eax
  00033	8b 47 24	 mov	 eax, DWORD PTR [edi+36]
  00036	89 46 24	 mov	 DWORD PTR [esi+36], eax
  00039	8a 47 28	 mov	 al, BYTE PTR [edi+40]
  0003c	88 46 28	 mov	 BYTE PTR [esi+40], al
  0003f	5f		 pop	 edi
  00040	8b c6		 mov	 eax, esi
  00042	5e		 pop	 esi
  00043	5d		 pop	 ebp
  00044	c2 04 00	 ret	 4
??4tagHeroRankData@@QAEAAU0@ABU0@@Z ENDP		; tagHeroRankData::operator=
_TEXT	ENDS
PUBLIC	??0tagHeroRankData@@QAE@ABU0@@Z			; tagHeroRankData::tagHeroRankData
EXTRN	__imp_??0ioHashString@@QAE@ABV0@@Z:PROC
; Function compile flags: /Ogsp
;	COMDAT ??0tagHeroRankData@@QAE@ABU0@@Z
_TEXT	SEGMENT
___that$ = 8						; size = 4
??0tagHeroRankData@@QAE@ABU0@@Z PROC			; tagHeroRankData::tagHeroRankData, COMDAT
; _this$ = ecx
  00000	55		 push	 ebp
  00001	8b ec		 mov	 ebp, esp
  00003	56		 push	 esi
  00004	57		 push	 edi
  00005	8b 7d 08	 mov	 edi, DWORD PTR ___that$[ebp]
  00008	8b 07		 mov	 eax, DWORD PTR [edi]
  0000a	8b f1		 mov	 esi, ecx
  0000c	89 06		 mov	 DWORD PTR [esi], eax
  0000e	8b 47 04	 mov	 eax, DWORD PTR [edi+4]
  00011	89 46 04	 mov	 DWORD PTR [esi+4], eax
  00014	8d 47 08	 lea	 eax, DWORD PTR [edi+8]
  00017	50		 push	 eax
  00018	8d 4e 08	 lea	 ecx, DWORD PTR [esi+8]
  0001b	ff 15 00 00 00
	00		 call	 DWORD PTR __imp_??0ioHashString@@QAE@ABV0@@Z
  00021	8b 47 18	 mov	 eax, DWORD PTR [edi+24]
  00024	89 46 18	 mov	 DWORD PTR [esi+24], eax
  00027	8b 47 1c	 mov	 eax, DWORD PTR [edi+28]
  0002a	89 46 1c	 mov	 DWORD PTR [esi+28], eax
  0002d	8b 47 20	 mov	 eax, DWORD PTR [edi+32]
  00030	89 46 20	 mov	 DWORD PTR [esi+32], eax
  00033	8b 47 24	 mov	 eax, DWORD PTR [edi+36]
  00036	89 46 24	 mov	 DWORD PTR [esi+36], eax
  00039	8a 47 28	 mov	 al, BYTE PTR [edi+40]
  0003c	88 46 28	 mov	 BYTE PTR [esi+40], al
  0003f	5f		 pop	 edi
  00040	8b c6		 mov	 eax, esi
  00042	5e		 pop	 esi
  00043	5d		 pop	 ebp
  00044	c2 04 00	 ret	 4
??0tagHeroRankData@@QAE@ABU0@@Z ENDP			; tagHeroRankData::tagHeroRankData
_TEXT	ENDS
PUBLIC	__$ArrayPad$
PUBLIC	?SendHeroTop100@ioCampManager@@QAEXHH@Z		; ioCampManager::SendHeroTop100
EXTRN	??6SP2Packet@@QAEAAV0@H@Z:PROC			; SP2Packet::operator<<
;	COMDAT xdata$x
xdata$x	SEGMENT
__unwindtable$?SendHeroTop100@ioCampManager@@QAEXHH@Z DD 0ffffffffH
	DD	FLAT:__unwindfunclet$?SendHeroTop100@ioCampManager@@QAEXHH@Z$0
__ehfuncinfo$?SendHeroTop100@ioCampManager@@QAEXHH@Z DD 019930522H
	DD	01H
	DD	FLAT:__unwindtable$?SendHeroTop100@ioCampManager@@QAEXHH@Z
	DD	2 DUP(00H)
	DD	2 DUP(00H)
	DD	00H
	DD	01H
; Function compile flags: /Ogsp
xdata$x	ENDS
;	COMDAT ?SendHeroTop100@ioCampManager@@QAEXHH@Z
_TEXT	SEGMENT
_kPacket$ = -32808					; size = 32792
__$ArrayPad$ = -16					; size = 4
__$EHRec$ = -12						; size = 12
_iCurPage$ = 8						; size = 4
_iSyncSize$ = 12					; size = 4
?SendHeroTop100@ioCampManager@@QAEXHH@Z PROC		; ioCampManager::SendHeroTop100, COMDAT
; _this$ = ecx

; 775  : {

  00000	55		 push	 ebp
  00001	8b ec		 mov	 ebp, esp
  00003	6a ff		 push	 -1
  00005	68 00 00 00 00	 push	 __ehhandler$?SendHeroTop100@ioCampManager@@QAEXHH@Z
  0000a	64 a1 00 00 00
	00		 mov	 eax, DWORD PTR fs:0
  00010	50		 push	 eax
  00011	b8 1c 80 00 00	 mov	 eax, 32796		; 0000801cH
  00016	e8 00 00 00 00	 call	 __chkstk
  0001b	a1 00 00 00 00	 mov	 eax, DWORD PTR ___security_cookie
  00020	33 c5		 xor	 eax, ebp
  00022	89 45 f0	 mov	 DWORD PTR __$ArrayPad$[ebp], eax
  00025	56		 push	 esi
  00026	50		 push	 eax
  00027	8d 45 f4	 lea	 eax, DWORD PTR __$EHRec$[ebp]
  0002a	64 a3 00 00 00
	00		 mov	 DWORD PTR fs:0, eax
  00030	8b 75 08	 mov	 esi, DWORD PTR _iCurPage$[ebp]

; 776  : 	SP2Packet kPacket( CTPK_HERO_TOP100_DATA );

  00033	68 10 02 00 00	 push	 528			; 00000210H
  00038	8d 8d d8 7f ff
	ff		 lea	 ecx, DWORD PTR _kPacket$[ebp]
  0003e	e8 00 00 00 00	 call	 ??0SP2Packet@@QAE@K@Z	; SP2Packet::SP2Packet

; 777  : 	kPacket << iCurPage << iSyncSize;

  00043	ff 75 0c	 push	 DWORD PTR _iSyncSize$[ebp]
  00046	83 65 fc 00	 and	 DWORD PTR __$EHRec$[ebp+8], 0
  0004a	56		 push	 esi
  0004b	8d 8d d8 7f ff
	ff		 lea	 ecx, DWORD PTR _kPacket$[ebp]
  00051	e8 00 00 00 00	 call	 ??6SP2Packet@@QAEAAV0@H@Z ; SP2Packet::operator<<
  00056	8b c8		 mov	 ecx, eax
  00058	e8 00 00 00 00	 call	 ??6SP2Packet@@QAEAAV0@H@Z ; SP2Packet::operator<<

; 778  : 	TCPNetwork::SendToServer( kPacket );

  0005d	8d 85 d8 7f ff
	ff		 lea	 eax, DWORD PTR _kPacket$[ebp]
  00063	50		 push	 eax
  00064	e8 00 00 00 00	 call	 ?SendToServer@TCPNetwork@@YAXAAVSP2Packet@@@Z ; TCPNetwork::SendToServer

; 779  : }

  00069	83 4d fc ff	 or	 DWORD PTR __$EHRec$[ebp+8], -1
  0006d	59		 pop	 ecx
  0006e	8d 8d d8 7f ff
	ff		 lea	 ecx, DWORD PTR _kPacket$[ebp]
  00074	e8 00 00 00 00	 call	 ??1SP2Packet@@UAE@XZ	; SP2Packet::~SP2Packet
  00079	8b 4d f4	 mov	 ecx, DWORD PTR __$EHRec$[ebp]
  0007c	64 89 0d 00 00
	00 00		 mov	 DWORD PTR fs:0, ecx
  00083	59		 pop	 ecx
  00084	5e		 pop	 esi
  00085	8b 4d f0	 mov	 ecx, DWORD PTR __$ArrayPad$[ebp]
  00088	33 cd		 xor	 ecx, ebp
  0008a	e8 00 00 00 00	 call	 @__security_check_cookie@4
  0008f	c9		 leave
  00090	c2 08 00	 ret	 8
_TEXT	ENDS
;	COMDAT text$x
text$x	SEGMENT
__unwindfunclet$?SendHeroTop100@ioCampManager@@QAEXHH@Z$0:
  00000	8d 8d d8 7f ff
	ff		 lea	 ecx, DWORD PTR _kPacket$[ebp]
  00006	e9 00 00 00 00	 jmp	 ??1SP2Packet@@UAE@XZ	; SP2Packet::~SP2Packet
__ehhandler$?SendHeroTop100@ioCampManager@@QAEXHH@Z:
  0000b	8b 54 24 08	 mov	 edx, DWORD PTR [esp+8]
  0000f	8d 42 0c	 lea	 eax, DWORD PTR [edx+12]
  00012	8b 8a dc 7f ff
	ff		 mov	 ecx, DWORD PTR [edx-32804]
  00018	33 c8		 xor	 ecx, eax
  0001a	e8 00 00 00 00	 call	 @__security_check_cookie@4
  0001f	8b 4a fc	 mov	 ecx, DWORD PTR [edx-4]
  00022	33 c8		 xor	 ecx, eax
  00024	e8 00 00 00 00	 call	 @__security_check_cookie@4
  00029	b8 00 00 00 00	 mov	 eax, OFFSET __ehfuncinfo$?SendHeroTop100@ioCampManager@@QAEXHH@Z
  0002e	e9 00 00 00 00	 jmp	 ___CxxFrameHandler3
text$x	ENDS
?SendHeroTop100@ioCampManager@@QAEXHH@Z ENDP		; ioCampManager::SendHeroTop100
PUBLIC	??1HeroMatchHistory@ioCampManager@@QAE@XZ	; ioCampManager::HeroMatchHistory::~HeroMatchHistory
; Function compile flags: /Ogsp
;	COMDAT ??1HeroMatchHistory@ioCampManager@@QAE@XZ
_TEXT	SEGMENT
??1HeroMatchHistory@ioCampManager@@QAE@XZ PROC		; ioCampManager::HeroMatchHistory::~HeroMatchHistory, COMDAT
; _this$ = ecx
  00000	83 c1 18	 add	 ecx, 24			; 00000018H
  00003	ff 25 00 00 00
	00		 jmp	 DWORD PTR __imp_??1ioHashString@@QAE@XZ
??1HeroMatchHistory@ioCampManager@@QAE@XZ ENDP		; ioCampManager::HeroMatchHistory::~HeroMatchHistory
_TEXT	ENDS
PUBLIC	??0?$Singleton@VioCampManager@@@@QAE@XZ		; Singleton<ioCampManager>::Singleton<ioCampManager>
; Function compile flags: /Ogsp
; File d:\lost saga for developer\youtube\tutorial\source\src\io3dengine\iosingleton.h
;	COMDAT ??0?$Singleton@VioCampManager@@@@QAE@XZ
_TEXT	SEGMENT
??0?$Singleton@VioCampManager@@@@QAE@XZ PROC		; Singleton<ioCampManager>::Singleton<ioCampManager>, COMDAT
; _this$ = ecx

; 27   : 	Singleton()

  00000	8b c1		 mov	 eax, ecx

; 28   : 	{
; 29   : 		assert( !ms_Singleton );
; 30   : 		int offset = (int)(T*)1 - (int)(Singleton <T>*)(T*)1;
; 31   : 		ms_Singleton = (T*)((int)this + offset);

  00002	8d 48 fc	 lea	 ecx, DWORD PTR [eax-4]
  00005	89 0d 00 00 00
	00		 mov	 DWORD PTR ?ms_Singleton@?$Singleton@VioCampManager@@@@1PAVioCampManager@@A, ecx ; Singleton<ioCampManager>::ms_Singleton

; 32   : 	}

  0000b	c3		 ret	 0
??0?$Singleton@VioCampManager@@@@QAE@XZ ENDP		; Singleton<ioCampManager>::Singleton<ioCampManager>
_TEXT	ENDS
PUBLIC	??1?$Singleton@VioCampManager@@@@QAE@XZ		; Singleton<ioCampManager>::~Singleton<ioCampManager>
; Function compile flags: /Ogsp
;	COMDAT ??1?$Singleton@VioCampManager@@@@QAE@XZ
_TEXT	SEGMENT
??1?$Singleton@VioCampManager@@@@QAE@XZ PROC		; Singleton<ioCampManager>::~Singleton<ioCampManager>, COMDAT
; _this$ = ecx

; 36   : 		assert( ms_Singleton );
; 37   : 		ms_Singleton = 0;

  00000	83 25 00 00 00
	00 00		 and	 DWORD PTR ?ms_Singleton@?$Singleton@VioCampManager@@@@1PAVioCampManager@@A, 0 ; Singleton<ioCampManager>::ms_Singleton

; 38   : 	}

  00007	c3		 ret	 0
??1?$Singleton@VioCampManager@@@@QAE@XZ ENDP		; Singleton<ioCampManager>::~Singleton<ioCampManager>
_TEXT	ENDS
PUBLIC	?GetSingleton@?$Singleton@VioCampManager@@@@SAAAVioCampManager@@XZ ; Singleton<ioCampManager>::GetSingleton
; Function compile flags: /Ogsp
;	COMDAT ?GetSingleton@?$Singleton@VioCampManager@@@@SAAAVioCampManager@@XZ
_TEXT	SEGMENT
?GetSingleton@?$Singleton@VioCampManager@@@@SAAAVioCampManager@@XZ PROC ; Singleton<ioCampManager>::GetSingleton, COMDAT

; 42   : 		assert( ms_Singleton );
; 43   : 		return (*ms_Singleton);

  00000	a1 00 00 00 00	 mov	 eax, DWORD PTR ?ms_Singleton@?$Singleton@VioCampManager@@@@1PAVioCampManager@@A ; Singleton<ioCampManager>::ms_Singleton

; 44   : 	}

  00005	c3		 ret	 0
?GetSingleton@?$Singleton@VioCampManager@@@@SAAAVioCampManager@@XZ ENDP ; Singleton<ioCampManager>::GetSingleton
_TEXT	ENDS
PUBLIC	?size@?$vector@UCampData@ioCampManager@@V?$allocator@UCampData@ioCampManager@@@std@@@std@@QBEIXZ ; std::vector<ioCampManager::CampData,std::allocator<ioCampManager::CampData> >::size
; Function compile flags: /Ogsp
; File c:\program files (x86)\microsoft visual studio 10.0\vc\include\vector
;	COMDAT ?size@?$vector@UCampData@ioCampManager@@V?$allocator@UCampData@ioCampManager@@@std@@@std@@QBEIXZ
_TEXT	SEGMENT
?size@?$vector@UCampData@ioCampManager@@V?$allocator@UCampData@ioCampManager@@@std@@@std@@QBEIXZ PROC ; std::vector<ioCampManager::CampData,std::allocator<ioCampManager::CampData> >::size, COMDAT
; _this$ = ecx

; 879  : 		return (this->_Mylast - this->_Myfirst);

  00000	8b 41 04	 mov	 eax, DWORD PTR [ecx+4]
  00003	2b 01		 sub	 eax, DWORD PTR [ecx]
  00005	6a 18		 push	 24			; 00000018H
  00007	99		 cdq
  00008	59		 pop	 ecx
  00009	f7 f9		 idiv	 ecx

; 880  : 		}

  0000b	c3		 ret	 0
?size@?$vector@UCampData@ioCampManager@@V?$allocator@UCampData@ioCampManager@@@std@@@std@@QBEIXZ ENDP ; std::vector<ioCampManager::CampData,std::allocator<ioCampManager::CampData> >::size
_TEXT	ENDS
PUBLIC	??A?$vector@UCampData@ioCampManager@@V?$allocator@UCampData@ioCampManager@@@std@@@std@@QAEAAUCampData@ioCampManager@@I@Z ; std::vector<ioCampManager::CampData,std::allocator<ioCampManager::CampData> >::operator[]
; Function compile flags: /Ogsp
;	COMDAT ??A?$vector@UCampData@ioCampManager@@V?$allocator@UCampData@ioCampManager@@@std@@@std@@QAEAAUCampData@ioCampManager@@I@Z
_TEXT	SEGMENT
__Pos$ = 8						; size = 4
??A?$vector@UCampData@ioCampManager@@V?$allocator@UCampData@ioCampManager@@@std@@@std@@QAEAAUCampData@ioCampManager@@I@Z PROC ; std::vector<ioCampManager::CampData,std::allocator<ioCampManager::CampData> >::operator[], COMDAT
; _this$ = ecx

; 928  : 		{	// subscript mutable sequence

  00000	55		 push	 ebp
  00001	8b ec		 mov	 ebp, esp

; 929  :  #if _ITERATOR_DEBUG_LEVEL == 2
; 930  : 		if (size() <= _Pos)
; 931  : 			{	// report error
; 932  : 			_DEBUG_ERROR("vector subscript out of range");
; 933  : 			_SCL_SECURE_OUT_OF_RANGE;
; 934  : 			}
; 935  : 
; 936  :  #elif _ITERATOR_DEBUG_LEVEL == 1
; 937  : 		_SCL_SECURE_VALIDATE_RANGE(_Pos < size());
; 938  :  #endif /* _ITERATOR_DEBUG_LEVEL */
; 939  : 
; 940  : 		return (*(this->_Myfirst + _Pos));

  00003	8b 45 08	 mov	 eax, DWORD PTR __Pos$[ebp]
  00006	6b c0 18	 imul	 eax, 24			; 00000018H
  00009	03 01		 add	 eax, DWORD PTR [ecx]

; 941  : 		}

  0000b	5d		 pop	 ebp
  0000c	c2 04 00	 ret	 4
??A?$vector@UCampData@ioCampManager@@V?$allocator@UCampData@ioCampManager@@@std@@@std@@QAEAAUCampData@ioCampManager@@I@Z ENDP ; std::vector<ioCampManager::CampData,std::allocator<ioCampManager::CampData> >::operator[]
_TEXT	ENDS
PUBLIC	?size@?$vector@UMentData@ioCampManager@@V?$allocator@UMentData@ioCampManager@@@std@@@std@@QBEIXZ ; std::vector<ioCampManager::MentData,std::allocator<ioCampManager::MentData> >::size
; Function compile flags: /Ogsp
;	COMDAT ?size@?$vector@UMentData@ioCampManager@@V?$allocator@UMentData@ioCampManager@@@std@@@std@@QBEIXZ
_TEXT	SEGMENT
?size@?$vector@UMentData@ioCampManager@@V?$allocator@UMentData@ioCampManager@@@std@@@std@@QBEIXZ PROC ; std::vector<ioCampManager::MentData,std::allocator<ioCampManager::MentData> >::size, COMDAT
; _this$ = ecx

; 879  : 		return (this->_Mylast - this->_Myfirst);

  00000	8b 41 04	 mov	 eax, DWORD PTR [ecx+4]
  00003	2b 01		 sub	 eax, DWORD PTR [ecx]
  00005	b9 08 01 00 00	 mov	 ecx, 264		; 00000108H
  0000a	99		 cdq
  0000b	f7 f9		 idiv	 ecx

; 880  : 		}

  0000d	c3		 ret	 0
?size@?$vector@UMentData@ioCampManager@@V?$allocator@UMentData@ioCampManager@@@std@@@std@@QBEIXZ ENDP ; std::vector<ioCampManager::MentData,std::allocator<ioCampManager::MentData> >::size
_TEXT	ENDS
PUBLIC	??A?$vector@UMentData@ioCampManager@@V?$allocator@UMentData@ioCampManager@@@std@@@std@@QAEAAUMentData@ioCampManager@@I@Z ; std::vector<ioCampManager::MentData,std::allocator<ioCampManager::MentData> >::operator[]
; Function compile flags: /Ogsp
;	COMDAT ??A?$vector@UMentData@ioCampManager@@V?$allocator@UMentData@ioCampManager@@@std@@@std@@QAEAAUMentData@ioCampManager@@I@Z
_TEXT	SEGMENT
__Pos$ = 8						; size = 4
??A?$vector@UMentData@ioCampManager@@V?$allocator@UMentData@ioCampManager@@@std@@@std@@QAEAAUMentData@ioCampManager@@I@Z PROC ; std::vector<ioCampManager::MentData,std::allocator<ioCampManager::MentData> >::operator[], COMDAT
; _this$ = ecx

; 928  : 		{	// subscript mutable sequence

  00000	55		 push	 ebp
  00001	8b ec		 mov	 ebp, esp

; 929  :  #if _ITERATOR_DEBUG_LEVEL == 2
; 930  : 		if (size() <= _Pos)
; 931  : 			{	// report error
; 932  : 			_DEBUG_ERROR("vector subscript out of range");
; 933  : 			_SCL_SECURE_OUT_OF_RANGE;
; 934  : 			}
; 935  : 
; 936  :  #elif _ITERATOR_DEBUG_LEVEL == 1
; 937  : 		_SCL_SECURE_VALIDATE_RANGE(_Pos < size());
; 938  :  #endif /* _ITERATOR_DEBUG_LEVEL */
; 939  : 
; 940  : 		return (*(this->_Myfirst + _Pos));

  00003	8b 45 08	 mov	 eax, DWORD PTR __Pos$[ebp]
  00006	69 c0 08 01 00
	00		 imul	 eax, 264		; 00000108H
  0000c	03 01		 add	 eax, DWORD PTR [ecx]

; 941  : 		}

  0000e	5d		 pop	 ebp
  0000f	c2 04 00	 ret	 4
??A?$vector@UMentData@ioCampManager@@V?$allocator@UMentData@ioCampManager@@@std@@@std@@QAEAAUMentData@ioCampManager@@I@Z ENDP ; std::vector<ioCampManager::MentData,std::allocator<ioCampManager::MentData> >::operator[]
_TEXT	ENDS
PUBLIC	?size@?$vector@UEntryMentList@ioCampManager@@V?$allocator@UEntryMentList@ioCampManager@@@std@@@std@@QBEIXZ ; std::vector<ioCampManager::EntryMentList,std::allocator<ioCampManager::EntryMentList> >::size
; Function compile flags: /Ogsp
;	COMDAT ?size@?$vector@UEntryMentList@ioCampManager@@V?$allocator@UEntryMentList@ioCampManager@@@std@@@std@@QBEIXZ
_TEXT	SEGMENT
?size@?$vector@UEntryMentList@ioCampManager@@V?$allocator@UEntryMentList@ioCampManager@@@std@@@std@@QBEIXZ PROC ; std::vector<ioCampManager::EntryMentList,std::allocator<ioCampManager::EntryMentList> >::size, COMDAT
; _this$ = ecx

; 879  : 		return (this->_Mylast - this->_Myfirst);

  00000	8b 41 04	 mov	 eax, DWORD PTR [ecx+4]
  00003	2b 01		 sub	 eax, DWORD PTR [ecx]
  00005	6a 18		 push	 24			; 00000018H
  00007	99		 cdq
  00008	59		 pop	 ecx
  00009	f7 f9		 idiv	 ecx

; 880  : 		}

  0000b	c3		 ret	 0
?size@?$vector@UEntryMentList@ioCampManager@@V?$allocator@UEntryMentList@ioCampManager@@@std@@@std@@QBEIXZ ENDP ; std::vector<ioCampManager::EntryMentList,std::allocator<ioCampManager::EntryMentList> >::size
_TEXT	ENDS
PUBLIC	??A?$vector@UEntryMentList@ioCampManager@@V?$allocator@UEntryMentList@ioCampManager@@@std@@@std@@QAEAAUEntryMentList@ioCampManager@@I@Z ; std::vector<ioCampManager::EntryMentList,std::allocator<ioCampManager::EntryMentList> >::operator[]
; Function compile flags: /Ogsp
;	COMDAT ??A?$vector@UEntryMentList@ioCampManager@@V?$allocator@UEntryMentList@ioCampManager@@@std@@@std@@QAEAAUEntryMentList@ioCampManager@@I@Z
_TEXT	SEGMENT
__Pos$ = 8						; size = 4
??A?$vector@UEntryMentList@ioCampManager@@V?$allocator@UEntryMentList@ioCampManager@@@std@@@std@@QAEAAUEntryMentList@ioCampManager@@I@Z PROC ; std::vector<ioCampManager::EntryMentList,std::allocator<ioCampManager::EntryMentList> >::operator[], COMDAT
; _this$ = ecx

; 928  : 		{	// subscript mutable sequence

  00000	55		 push	 ebp
  00001	8b ec		 mov	 ebp, esp

; 929  :  #if _ITERATOR_DEBUG_LEVEL == 2
; 930  : 		if (size() <= _Pos)
; 931  : 			{	// report error
; 932  : 			_DEBUG_ERROR("vector subscript out of range");
; 933  : 			_SCL_SECURE_OUT_OF_RANGE;
; 934  : 			}
; 935  : 
; 936  :  #elif _ITERATOR_DEBUG_LEVEL == 1
; 937  : 		_SCL_SECURE_VALIDATE_RANGE(_Pos < size());
; 938  :  #endif /* _ITERATOR_DEBUG_LEVEL */
; 939  : 
; 940  : 		return (*(this->_Myfirst + _Pos));

  00003	8b 45 08	 mov	 eax, DWORD PTR __Pos$[ebp]
  00006	6b c0 18	 imul	 eax, 24			; 00000018H
  00009	03 01		 add	 eax, DWORD PTR [ecx]

; 941  : 		}

  0000b	5d		 pop	 ebp
  0000c	c2 04 00	 ret	 4
??A?$vector@UEntryMentList@ioCampManager@@V?$allocator@UEntryMentList@ioCampManager@@@std@@@std@@QAEAAUEntryMentList@ioCampManager@@I@Z ENDP ; std::vector<ioCampManager::EntryMentList,std::allocator<ioCampManager::EntryMentList> >::operator[]
_TEXT	ENDS
PUBLIC	?size@?$vector@UAlarmMent@ioCampManager@@V?$allocator@UAlarmMent@ioCampManager@@@std@@@std@@QBEIXZ ; std::vector<ioCampManager::AlarmMent,std::allocator<ioCampManager::AlarmMent> >::size
; Function compile flags: /Ogsp
;	COMDAT ?size@?$vector@UAlarmMent@ioCampManager@@V?$allocator@UAlarmMent@ioCampManager@@@std@@@std@@QBEIXZ
_TEXT	SEGMENT
?size@?$vector@UAlarmMent@ioCampManager@@V?$allocator@UAlarmMent@ioCampManager@@@std@@@std@@QBEIXZ PROC ; std::vector<ioCampManager::AlarmMent,std::allocator<ioCampManager::AlarmMent> >::size, COMDAT
; _this$ = ecx

; 879  : 		return (this->_Mylast - this->_Myfirst);

  00000	8b 41 04	 mov	 eax, DWORD PTR [ecx+4]
  00003	2b 01		 sub	 eax, DWORD PTR [ecx]
  00005	6a 14		 push	 20			; 00000014H
  00007	99		 cdq
  00008	59		 pop	 ecx
  00009	f7 f9		 idiv	 ecx

; 880  : 		}

  0000b	c3		 ret	 0
?size@?$vector@UAlarmMent@ioCampManager@@V?$allocator@UAlarmMent@ioCampManager@@@std@@@std@@QBEIXZ ENDP ; std::vector<ioCampManager::AlarmMent,std::allocator<ioCampManager::AlarmMent> >::size
_TEXT	ENDS
PUBLIC	??A?$vector@UAlarmMent@ioCampManager@@V?$allocator@UAlarmMent@ioCampManager@@@std@@@std@@QAEAAUAlarmMent@ioCampManager@@I@Z ; std::vector<ioCampManager::AlarmMent,std::allocator<ioCampManager::AlarmMent> >::operator[]
; Function compile flags: /Ogsp
;	COMDAT ??A?$vector@UAlarmMent@ioCampManager@@V?$allocator@UAlarmMent@ioCampManager@@@std@@@std@@QAEAAUAlarmMent@ioCampManager@@I@Z
_TEXT	SEGMENT
__Pos$ = 8						; size = 4
??A?$vector@UAlarmMent@ioCampManager@@V?$allocator@UAlarmMent@ioCampManager@@@std@@@std@@QAEAAUAlarmMent@ioCampManager@@I@Z PROC ; std::vector<ioCampManager::AlarmMent,std::allocator<ioCampManager::AlarmMent> >::operator[], COMDAT
; _this$ = ecx

; 928  : 		{	// subscript mutable sequence

  00000	55		 push	 ebp
  00001	8b ec		 mov	 ebp, esp

; 929  :  #if _ITERATOR_DEBUG_LEVEL == 2
; 930  : 		if (size() <= _Pos)
; 931  : 			{	// report error
; 932  : 			_DEBUG_ERROR("vector subscript out of range");
; 933  : 			_SCL_SECURE_OUT_OF_RANGE;
; 934  : 			}
; 935  : 
; 936  :  #elif _ITERATOR_DEBUG_LEVEL == 1
; 937  : 		_SCL_SECURE_VALIDATE_RANGE(_Pos < size());
; 938  :  #endif /* _ITERATOR_DEBUG_LEVEL */
; 939  : 
; 940  : 		return (*(this->_Myfirst + _Pos));

  00003	8b 45 08	 mov	 eax, DWORD PTR __Pos$[ebp]
  00006	6b c0 14	 imul	 eax, 20			; 00000014H
  00009	03 01		 add	 eax, DWORD PTR [ecx]

; 941  : 		}

  0000b	5d		 pop	 ebp
  0000c	c2 04 00	 ret	 4
??A?$vector@UAlarmMent@ioCampManager@@V?$allocator@UAlarmMent@ioCampManager@@@std@@@std@@QAEAAUAlarmMent@ioCampManager@@I@Z ENDP ; std::vector<ioCampManager::AlarmMent,std::allocator<ioCampManager::AlarmMent> >::operator[]
_TEXT	ENDS
PUBLIC	?size@?$vector@UtagHeroRankData@@V?$allocator@UtagHeroRankData@@@std@@@std@@QBEIXZ ; std::vector<tagHeroRankData,std::allocator<tagHeroRankData> >::size
; Function compile flags: /Ogsp
;	COMDAT ?size@?$vector@UtagHeroRankData@@V?$allocator@UtagHeroRankData@@@std@@@std@@QBEIXZ
_TEXT	SEGMENT
?size@?$vector@UtagHeroRankData@@V?$allocator@UtagHeroRankData@@@std@@@std@@QBEIXZ PROC ; std::vector<tagHeroRankData,std::allocator<tagHeroRankData> >::size, COMDAT
; _this$ = ecx

; 879  : 		return (this->_Mylast - this->_Myfirst);

  00000	8b 41 04	 mov	 eax, DWORD PTR [ecx+4]
  00003	2b 01		 sub	 eax, DWORD PTR [ecx]
  00005	6a 2c		 push	 44			; 0000002cH
  00007	99		 cdq
  00008	59		 pop	 ecx
  00009	f7 f9		 idiv	 ecx

; 880  : 		}

  0000b	c3		 ret	 0
?size@?$vector@UtagHeroRankData@@V?$allocator@UtagHeroRankData@@@std@@@std@@QBEIXZ ENDP ; std::vector<tagHeroRankData,std::allocator<tagHeroRankData> >::size
_TEXT	ENDS
PUBLIC	??A?$vector@UtagHeroRankData@@V?$allocator@UtagHeroRankData@@@std@@@std@@QAEAAUtagHeroRankData@@I@Z ; std::vector<tagHeroRankData,std::allocator<tagHeroRankData> >::operator[]
; Function compile flags: /Ogsp
;	COMDAT ??A?$vector@UtagHeroRankData@@V?$allocator@UtagHeroRankData@@@std@@@std@@QAEAAUtagHeroRankData@@I@Z
_TEXT	SEGMENT
__Pos$ = 8						; size = 4
??A?$vector@UtagHeroRankData@@V?$allocator@UtagHeroRankData@@@std@@@std@@QAEAAUtagHeroRankData@@I@Z PROC ; std::vector<tagHeroRankData,std::allocator<tagHeroRankData> >::operator[], COMDAT
; _this$ = ecx

; 928  : 		{	// subscript mutable sequence

  00000	55		 push	 ebp
  00001	8b ec		 mov	 ebp, esp

; 929  :  #if _ITERATOR_DEBUG_LEVEL == 2
; 930  : 		if (size() <= _Pos)
; 931  : 			{	// report error
; 932  : 			_DEBUG_ERROR("vector subscript out of range");
; 933  : 			_SCL_SECURE_OUT_OF_RANGE;
; 934  : 			}
; 935  : 
; 936  :  #elif _ITERATOR_DEBUG_LEVEL == 1
; 937  : 		_SCL_SECURE_VALIDATE_RANGE(_Pos < size());
; 938  :  #endif /* _ITERATOR_DEBUG_LEVEL */
; 939  : 
; 940  : 		return (*(this->_Myfirst + _Pos));

  00003	8b 45 08	 mov	 eax, DWORD PTR __Pos$[ebp]
  00006	6b c0 2c	 imul	 eax, 44			; 0000002cH
  00009	03 01		 add	 eax, DWORD PTR [ecx]

; 941  : 		}

  0000b	5d		 pop	 ebp
  0000c	c2 04 00	 ret	 4
??A?$vector@UtagHeroRankData@@V?$allocator@UtagHeroRankData@@@std@@@std@@QAEAAUtagHeroRankData@@I@Z ENDP ; std::vector<tagHeroRankData,std::allocator<tagHeroRankData> >::operator[]
_TEXT	ENDS
PUBLIC	?empty@?$vector@UHeroMatchHistory@ioCampManager@@V?$allocator@UHeroMatchHistory@ioCampManager@@@std@@@std@@QBE_NXZ ; std::vector<ioCampManager::HeroMatchHistory,std::allocator<ioCampManager::HeroMatchHistory> >::empty
; Function compile flags: /Ogsp
;	COMDAT ?empty@?$vector@UHeroMatchHistory@ioCampManager@@V?$allocator@UHeroMatchHistory@ioCampManager@@@std@@@std@@QBE_NXZ
_TEXT	SEGMENT
?empty@?$vector@UHeroMatchHistory@ioCampManager@@V?$allocator@UHeroMatchHistory@ioCampManager@@@std@@@std@@QBE_NXZ PROC ; std::vector<ioCampManager::HeroMatchHistory,std::allocator<ioCampManager::HeroMatchHistory> >::empty, COMDAT
; _this$ = ecx

; 889  : 		return (this->_Myfirst == this->_Mylast);

  00000	8b 01		 mov	 eax, DWORD PTR [ecx]
  00002	2b 41 04	 sub	 eax, DWORD PTR [ecx+4]
  00005	f7 d8		 neg	 eax
  00007	1b c0		 sbb	 eax, eax
  00009	40		 inc	 eax

; 890  : 		}

  0000a	c3		 ret	 0
?empty@?$vector@UHeroMatchHistory@ioCampManager@@V?$allocator@UHeroMatchHistory@ioCampManager@@@std@@@std@@QBE_NXZ ENDP ; std::vector<ioCampManager::HeroMatchHistory,std::allocator<ioCampManager::HeroMatchHistory> >::empty
_TEXT	ENDS
PUBLIC	??A?$vector@UHeroMatchHistory@ioCampManager@@V?$allocator@UHeroMatchHistory@ioCampManager@@@std@@@std@@QAEAAUHeroMatchHistory@ioCampManager@@I@Z ; std::vector<ioCampManager::HeroMatchHistory,std::allocator<ioCampManager::HeroMatchHistory> >::operator[]
; Function compile flags: /Ogsp
;	COMDAT ??A?$vector@UHeroMatchHistory@ioCampManager@@V?$allocator@UHeroMatchHistory@ioCampManager@@@std@@@std@@QAEAAUHeroMatchHistory@ioCampManager@@I@Z
_TEXT	SEGMENT
__Pos$ = 8						; size = 4
??A?$vector@UHeroMatchHistory@ioCampManager@@V?$allocator@UHeroMatchHistory@ioCampManager@@@std@@@std@@QAEAAUHeroMatchHistory@ioCampManager@@I@Z PROC ; std::vector<ioCampManager::HeroMatchHistory,std::allocator<ioCampManager::HeroMatchHistory> >::operator[], COMDAT
; _this$ = ecx

; 928  : 		{	// subscript mutable sequence

  00000	55		 push	 ebp
  00001	8b ec		 mov	 ebp, esp

; 929  :  #if _ITERATOR_DEBUG_LEVEL == 2
; 930  : 		if (size() <= _Pos)
; 931  : 			{	// report error
; 932  : 			_DEBUG_ERROR("vector subscript out of range");
; 933  : 			_SCL_SECURE_OUT_OF_RANGE;
; 934  : 			}
; 935  : 
; 936  :  #elif _ITERATOR_DEBUG_LEVEL == 1
; 937  : 		_SCL_SECURE_VALIDATE_RANGE(_Pos < size());
; 938  :  #endif /* _ITERATOR_DEBUG_LEVEL */
; 939  : 
; 940  : 		return (*(this->_Myfirst + _Pos));

  00003	8b 45 08	 mov	 eax, DWORD PTR __Pos$[ebp]
  00006	6b c0 3c	 imul	 eax, 60			; 0000003cH
  00009	03 01		 add	 eax, DWORD PTR [ecx]

; 941  : 		}

  0000b	5d		 pop	 ebp
  0000c	c2 04 00	 ret	 4
??A?$vector@UHeroMatchHistory@ioCampManager@@V?$allocator@UHeroMatchHistory@ioCampManager@@@std@@@std@@QAEAAUHeroMatchHistory@ioCampManager@@I@Z ENDP ; std::vector<ioCampManager::HeroMatchHistory,std::allocator<ioCampManager::HeroMatchHistory> >::operator[]
_TEXT	ENDS
PUBLIC	?_Inside@?$vector@UCampData@ioCampManager@@V?$allocator@UCampData@ioCampManager@@@std@@@std@@IBE_NPBUCampData@ioCampManager@@@Z ; std::vector<ioCampManager::CampData,std::allocator<ioCampManager::CampData> >::_Inside
; Function compile flags: /Ogsp
;	COMDAT ?_Inside@?$vector@UCampData@ioCampManager@@V?$allocator@UCampData@ioCampManager@@@std@@@std@@IBE_NPBUCampData@ioCampManager@@@Z
_TEXT	SEGMENT
__Ptr$ = 8						; size = 4
?_Inside@?$vector@UCampData@ioCampManager@@V?$allocator@UCampData@ioCampManager@@@std@@@std@@IBE_NPBUCampData@ioCampManager@@@Z PROC ; std::vector<ioCampManager::CampData,std::allocator<ioCampManager::CampData> >::_Inside, COMDAT
; _this$ = ecx

; 1285 : 		{	// test if _Ptr points inside vector

  00000	55		 push	 ebp
  00001	8b ec		 mov	 ebp, esp

; 1286 : 		return (_Ptr < this->_Mylast && this->_Myfirst <= _Ptr);

  00003	8b 45 08	 mov	 eax, DWORD PTR __Ptr$[ebp]
  00006	3b 41 04	 cmp	 eax, DWORD PTR [ecx+4]
  00009	73 09		 jae	 SHORT $LN3@Inside
  0000b	39 01		 cmp	 DWORD PTR [ecx], eax
  0000d	77 05		 ja	 SHORT $LN3@Inside
  0000f	33 c0		 xor	 eax, eax
  00011	40		 inc	 eax
  00012	eb 02		 jmp	 SHORT $LN4@Inside
$LN3@Inside:
  00014	33 c0		 xor	 eax, eax
$LN4@Inside:

; 1287 : 		}

  00016	5d		 pop	 ebp
  00017	c2 04 00	 ret	 4
?_Inside@?$vector@UCampData@ioCampManager@@V?$allocator@UCampData@ioCampManager@@@std@@@std@@IBE_NPBUCampData@ioCampManager@@@Z ENDP ; std::vector<ioCampManager::CampData,std::allocator<ioCampManager::CampData> >::_Inside
_TEXT	ENDS
PUBLIC	?_Orphan_range@?$vector@UCampData@ioCampManager@@V?$allocator@UCampData@ioCampManager@@@std@@@std@@IBEXPAUCampData@ioCampManager@@0@Z ; std::vector<ioCampManager::CampData,std::allocator<ioCampManager::CampData> >::_Orphan_range
; Function compile flags: /Ogsp
;	COMDAT ?_Orphan_range@?$vector@UCampData@ioCampManager@@V?$allocator@UCampData@ioCampManager@@@std@@@std@@IBEXPAUCampData@ioCampManager@@0@Z
_TEXT	SEGMENT
___formal$ = 8						; size = 4
___formal$ = 12						; size = 4
?_Orphan_range@?$vector@UCampData@ioCampManager@@V?$allocator@UCampData@ioCampManager@@@std@@@std@@IBEXPAUCampData@ioCampManager@@0@Z PROC ; std::vector<ioCampManager::CampData,std::allocator<ioCampManager::CampData> >::_Orphan_range, COMDAT
; _this$ = ecx

; 1454 : 		}

  00000	c2 08 00	 ret	 8
?_Orphan_range@?$vector@UCampData@ioCampManager@@V?$allocator@UCampData@ioCampManager@@@std@@@std@@IBEXPAUCampData@ioCampManager@@0@Z ENDP ; std::vector<ioCampManager::CampData,std::allocator<ioCampManager::CampData> >::_Orphan_range
_TEXT	ENDS
PUBLIC	??1?$_Vector_val@UCampData@ioCampManager@@V?$allocator@UCampData@ioCampManager@@@std@@@std@@QAE@XZ ; std::_Vector_val<ioCampManager::CampData,std::allocator<ioCampManager::CampData> >::~_Vector_val<ioCampManager::CampData,std::allocator<ioCampManager::CampData> >
; Function compile flags: /Ogsp
;	COMDAT ??1?$_Vector_val@UCampData@ioCampManager@@V?$allocator@UCampData@ioCampManager@@@std@@@std@@QAE@XZ
_TEXT	SEGMENT
??1?$_Vector_val@UCampData@ioCampManager@@V?$allocator@UCampData@ioCampManager@@@std@@@std@@QAE@XZ PROC ; std::_Vector_val<ioCampManager::CampData,std::allocator<ioCampManager::CampData> >::~_Vector_val<ioCampManager::CampData,std::allocator<ioCampManager::CampData> >, COMDAT
; _this$ = ecx

; 434  : 		}

  00000	c3		 ret	 0
??1?$_Vector_val@UCampData@ioCampManager@@V?$allocator@UCampData@ioCampManager@@@std@@@std@@QAE@XZ ENDP ; std::_Vector_val<ioCampManager::CampData,std::allocator<ioCampManager::CampData> >::~_Vector_val<ioCampManager::CampData,std::allocator<ioCampManager::CampData> >
_TEXT	ENDS
PUBLIC	??0?$allocator@UCampData@ioCampManager@@@std@@QAE@XZ ; std::allocator<ioCampManager::CampData>::allocator<ioCampManager::CampData>
; Function compile flags: /Ogsp
; File c:\program files (x86)\microsoft visual studio 10.0\vc\include\xmemory
;	COMDAT ??0?$allocator@UCampData@ioCampManager@@@std@@QAE@XZ
_TEXT	SEGMENT
??0?$allocator@UCampData@ioCampManager@@@std@@QAE@XZ PROC ; std::allocator<ioCampManager::CampData>::allocator<ioCampManager::CampData>, COMDAT
; _this$ = ecx

; 161  : 	_ALLOCATOR() _THROW0()

  00000	8b c1		 mov	 eax, ecx

; 162  : 		{	// construct default allocator (do nothing)
; 163  : 		}

  00002	c3		 ret	 0
??0?$allocator@UCampData@ioCampManager@@@std@@QAE@XZ ENDP ; std::allocator<ioCampManager::CampData>::allocator<ioCampManager::CampData>
_TEXT	ENDS
PUBLIC	?_Inside@?$vector@UMentData@ioCampManager@@V?$allocator@UMentData@ioCampManager@@@std@@@std@@IBE_NPBUMentData@ioCampManager@@@Z ; std::vector<ioCampManager::MentData,std::allocator<ioCampManager::MentData> >::_Inside
; Function compile flags: /Ogsp
; File c:\program files (x86)\microsoft visual studio 10.0\vc\include\vector
;	COMDAT ?_Inside@?$vector@UMentData@ioCampManager@@V?$allocator@UMentData@ioCampManager@@@std@@@std@@IBE_NPBUMentData@ioCampManager@@@Z
_TEXT	SEGMENT
__Ptr$ = 8						; size = 4
?_Inside@?$vector@UMentData@ioCampManager@@V?$allocator@UMentData@ioCampManager@@@std@@@std@@IBE_NPBUMentData@ioCampManager@@@Z PROC ; std::vector<ioCampManager::MentData,std::allocator<ioCampManager::MentData> >::_Inside, COMDAT
; _this$ = ecx

; 1285 : 		{	// test if _Ptr points inside vector

  00000	55		 push	 ebp
  00001	8b ec		 mov	 ebp, esp

; 1286 : 		return (_Ptr < this->_Mylast && this->_Myfirst <= _Ptr);

  00003	8b 45 08	 mov	 eax, DWORD PTR __Ptr$[ebp]
  00006	3b 41 04	 cmp	 eax, DWORD PTR [ecx+4]
  00009	73 09		 jae	 SHORT $LN3@Inside@2
  0000b	39 01		 cmp	 DWORD PTR [ecx], eax
  0000d	77 05		 ja	 SHORT $LN3@Inside@2
  0000f	33 c0		 xor	 eax, eax
  00011	40		 inc	 eax
  00012	eb 02		 jmp	 SHORT $LN4@Inside@2
$LN3@Inside@2:
  00014	33 c0		 xor	 eax, eax
$LN4@Inside@2:

; 1287 : 		}

  00016	5d		 pop	 ebp
  00017	c2 04 00	 ret	 4
?_Inside@?$vector@UMentData@ioCampManager@@V?$allocator@UMentData@ioCampManager@@@std@@@std@@IBE_NPBUMentData@ioCampManager@@@Z ENDP ; std::vector<ioCampManager::MentData,std::allocator<ioCampManager::MentData> >::_Inside
_TEXT	ENDS
PUBLIC	?_Orphan_range@?$vector@UMentData@ioCampManager@@V?$allocator@UMentData@ioCampManager@@@std@@@std@@IBEXPAUMentData@ioCampManager@@0@Z ; std::vector<ioCampManager::MentData,std::allocator<ioCampManager::MentData> >::_Orphan_range
; Function compile flags: /Ogsp
;	COMDAT ?_Orphan_range@?$vector@UMentData@ioCampManager@@V?$allocator@UMentData@ioCampManager@@@std@@@std@@IBEXPAUMentData@ioCampManager@@0@Z
_TEXT	SEGMENT
___formal$ = 8						; size = 4
___formal$ = 12						; size = 4
?_Orphan_range@?$vector@UMentData@ioCampManager@@V?$allocator@UMentData@ioCampManager@@@std@@@std@@IBEXPAUMentData@ioCampManager@@0@Z PROC ; std::vector<ioCampManager::MentData,std::allocator<ioCampManager::MentData> >::_Orphan_range, COMDAT
; _this$ = ecx

; 1454 : 		}

  00000	c2 08 00	 ret	 8
?_Orphan_range@?$vector@UMentData@ioCampManager@@V?$allocator@UMentData@ioCampManager@@@std@@@std@@IBEXPAUMentData@ioCampManager@@0@Z ENDP ; std::vector<ioCampManager::MentData,std::allocator<ioCampManager::MentData> >::_Orphan_range
_TEXT	ENDS
PUBLIC	?_Inside@?$vector@UEntryMentList@ioCampManager@@V?$allocator@UEntryMentList@ioCampManager@@@std@@@std@@IBE_NPBUEntryMentList@ioCampManager@@@Z ; std::vector<ioCampManager::EntryMentList,std::allocator<ioCampManager::EntryMentList> >::_Inside
; Function compile flags: /Ogsp
;	COMDAT ?_Inside@?$vector@UEntryMentList@ioCampManager@@V?$allocator@UEntryMentList@ioCampManager@@@std@@@std@@IBE_NPBUEntryMentList@ioCampManager@@@Z
_TEXT	SEGMENT
__Ptr$ = 8						; size = 4
?_Inside@?$vector@UEntryMentList@ioCampManager@@V?$allocator@UEntryMentList@ioCampManager@@@std@@@std@@IBE_NPBUEntryMentList@ioCampManager@@@Z PROC ; std::vector<ioCampManager::EntryMentList,std::allocator<ioCampManager::EntryMentList> >::_Inside, COMDAT
; _this$ = ecx

; 1285 : 		{	// test if _Ptr points inside vector

  00000	55		 push	 ebp
  00001	8b ec		 mov	 ebp, esp

; 1286 : 		return (_Ptr < this->_Mylast && this->_Myfirst <= _Ptr);

  00003	8b 45 08	 mov	 eax, DWORD PTR __Ptr$[ebp]
  00006	3b 41 04	 cmp	 eax, DWORD PTR [ecx+4]
  00009	73 09		 jae	 SHORT $LN3@Inside@3
  0000b	39 01		 cmp	 DWORD PTR [ecx], eax
  0000d	77 05		 ja	 SHORT $LN3@Inside@3
  0000f	33 c0		 xor	 eax, eax
  00011	40		 inc	 eax
  00012	eb 02		 jmp	 SHORT $LN4@Inside@3
$LN3@Inside@3:
  00014	33 c0		 xor	 eax, eax
$LN4@Inside@3:

; 1287 : 		}

  00016	5d		 pop	 ebp
  00017	c2 04 00	 ret	 4
?_Inside@?$vector@UEntryMentList@ioCampManager@@V?$allocator@UEntryMentList@ioCampManager@@@std@@@std@@IBE_NPBUEntryMentList@ioCampManager@@@Z ENDP ; std::vector<ioCampManager::EntryMentList,std::allocator<ioCampManager::EntryMentList> >::_Inside
_TEXT	ENDS
PUBLIC	?_Orphan_range@?$vector@UEntryMentList@ioCampManager@@V?$allocator@UEntryMentList@ioCampManager@@@std@@@std@@IBEXPAUEntryMentList@ioCampManager@@0@Z ; std::vector<ioCampManager::EntryMentList,std::allocator<ioCampManager::EntryMentList> >::_Orphan_range
; Function compile flags: /Ogsp
;	COMDAT ?_Orphan_range@?$vector@UEntryMentList@ioCampManager@@V?$allocator@UEntryMentList@ioCampManager@@@std@@@std@@IBEXPAUEntryMentList@ioCampManager@@0@Z
_TEXT	SEGMENT
___formal$ = 8						; size = 4
___formal$ = 12						; size = 4
?_Orphan_range@?$vector@UEntryMentList@ioCampManager@@V?$allocator@UEntryMentList@ioCampManager@@@std@@@std@@IBEXPAUEntryMentList@ioCampManager@@0@Z PROC ; std::vector<ioCampManager::EntryMentList,std::allocator<ioCampManager::EntryMentList> >::_Orphan_range, COMDAT
; _this$ = ecx

; 1454 : 		}

  00000	c2 08 00	 ret	 8
?_Orphan_range@?$vector@UEntryMentList@ioCampManager@@V?$allocator@UEntryMentList@ioCampManager@@@std@@@std@@IBEXPAUEntryMentList@ioCampManager@@0@Z ENDP ; std::vector<ioCampManager::EntryMentList,std::allocator<ioCampManager::EntryMentList> >::_Orphan_range
_TEXT	ENDS
PUBLIC	??1?$_Vector_val@UEntryMentList@ioCampManager@@V?$allocator@UEntryMentList@ioCampManager@@@std@@@std@@QAE@XZ ; std::_Vector_val<ioCampManager::EntryMentList,std::allocator<ioCampManager::EntryMentList> >::~_Vector_val<ioCampManager::EntryMentList,std::allocator<ioCampManager::EntryMentList> >
; Function compile flags: /Ogsp
;	COMDAT ??1?$_Vector_val@UEntryMentList@ioCampManager@@V?$allocator@UEntryMentList@ioCampManager@@@std@@@std@@QAE@XZ
_TEXT	SEGMENT
??1?$_Vector_val@UEntryMentList@ioCampManager@@V?$allocator@UEntryMentList@ioCampManager@@@std@@@std@@QAE@XZ PROC ; std::_Vector_val<ioCampManager::EntryMentList,std::allocator<ioCampManager::EntryMentList> >::~_Vector_val<ioCampManager::EntryMentList,std::allocator<ioCampManager::EntryMentList> >, COMDAT
; _this$ = ecx

; 434  : 		}

  00000	c3		 ret	 0
??1?$_Vector_val@UEntryMentList@ioCampManager@@V?$allocator@UEntryMentList@ioCampManager@@@std@@@std@@QAE@XZ ENDP ; std::_Vector_val<ioCampManager::EntryMentList,std::allocator<ioCampManager::EntryMentList> >::~_Vector_val<ioCampManager::EntryMentList,std::allocator<ioCampManager::EntryMentList> >
_TEXT	ENDS
PUBLIC	??0?$allocator@UEntryMentList@ioCampManager@@@std@@QAE@XZ ; std::allocator<ioCampManager::EntryMentList>::allocator<ioCampManager::EntryMentList>
; Function compile flags: /Ogsp
; File c:\program files (x86)\microsoft visual studio 10.0\vc\include\xmemory
;	COMDAT ??0?$allocator@UEntryMentList@ioCampManager@@@std@@QAE@XZ
_TEXT	SEGMENT
??0?$allocator@UEntryMentList@ioCampManager@@@std@@QAE@XZ PROC ; std::allocator<ioCampManager::EntryMentList>::allocator<ioCampManager::EntryMentList>, COMDAT
; _this$ = ecx

; 161  : 	_ALLOCATOR() _THROW0()

  00000	8b c1		 mov	 eax, ecx

; 162  : 		{	// construct default allocator (do nothing)
; 163  : 		}

  00002	c3		 ret	 0
??0?$allocator@UEntryMentList@ioCampManager@@@std@@QAE@XZ ENDP ; std::allocator<ioCampManager::EntryMentList>::allocator<ioCampManager::EntryMentList>
_TEXT	ENDS
PUBLIC	?_Inside@?$vector@UAlarmMent@ioCampManager@@V?$allocator@UAlarmMent@ioCampManager@@@std@@@std@@IBE_NPBUAlarmMent@ioCampManager@@@Z ; std::vector<ioCampManager::AlarmMent,std::allocator<ioCampManager::AlarmMent> >::_Inside
; Function compile flags: /Ogsp
; File c:\program files (x86)\microsoft visual studio 10.0\vc\include\vector
;	COMDAT ?_Inside@?$vector@UAlarmMent@ioCampManager@@V?$allocator@UAlarmMent@ioCampManager@@@std@@@std@@IBE_NPBUAlarmMent@ioCampManager@@@Z
_TEXT	SEGMENT
__Ptr$ = 8						; size = 4
?_Inside@?$vector@UAlarmMent@ioCampManager@@V?$allocator@UAlarmMent@ioCampManager@@@std@@@std@@IBE_NPBUAlarmMent@ioCampManager@@@Z PROC ; std::vector<ioCampManager::AlarmMent,std::allocator<ioCampManager::AlarmMent> >::_Inside, COMDAT
; _this$ = ecx

; 1285 : 		{	// test if _Ptr points inside vector

  00000	55		 push	 ebp
  00001	8b ec		 mov	 ebp, esp

; 1286 : 		return (_Ptr < this->_Mylast && this->_Myfirst <= _Ptr);

  00003	8b 45 08	 mov	 eax, DWORD PTR __Ptr$[ebp]
  00006	3b 41 04	 cmp	 eax, DWORD PTR [ecx+4]
  00009	73 09		 jae	 SHORT $LN3@Inside@4
  0000b	39 01		 cmp	 DWORD PTR [ecx], eax
  0000d	77 05		 ja	 SHORT $LN3@Inside@4
  0000f	33 c0		 xor	 eax, eax
  00011	40		 inc	 eax
  00012	eb 02		 jmp	 SHORT $LN4@Inside@4
$LN3@Inside@4:
  00014	33 c0		 xor	 eax, eax
$LN4@Inside@4:

; 1287 : 		}

  00016	5d		 pop	 ebp
  00017	c2 04 00	 ret	 4
?_Inside@?$vector@UAlarmMent@ioCampManager@@V?$allocator@UAlarmMent@ioCampManager@@@std@@@std@@IBE_NPBUAlarmMent@ioCampManager@@@Z ENDP ; std::vector<ioCampManager::AlarmMent,std::allocator<ioCampManager::AlarmMent> >::_Inside
_TEXT	ENDS
PUBLIC	?_Orphan_range@?$vector@UAlarmMent@ioCampManager@@V?$allocator@UAlarmMent@ioCampManager@@@std@@@std@@IBEXPAUAlarmMent@ioCampManager@@0@Z ; std::vector<ioCampManager::AlarmMent,std::allocator<ioCampManager::AlarmMent> >::_Orphan_range
; Function compile flags: /Ogsp
;	COMDAT ?_Orphan_range@?$vector@UAlarmMent@ioCampManager@@V?$allocator@UAlarmMent@ioCampManager@@@std@@@std@@IBEXPAUAlarmMent@ioCampManager@@0@Z
_TEXT	SEGMENT
___formal$ = 8						; size = 4
___formal$ = 12						; size = 4
?_Orphan_range@?$vector@UAlarmMent@ioCampManager@@V?$allocator@UAlarmMent@ioCampManager@@@std@@@std@@IBEXPAUAlarmMent@ioCampManager@@0@Z PROC ; std::vector<ioCampManager::AlarmMent,std::allocator<ioCampManager::AlarmMent> >::_Orphan_range, COMDAT
; _this$ = ecx

; 1454 : 		}

  00000	c2 08 00	 ret	 8
?_Orphan_range@?$vector@UAlarmMent@ioCampManager@@V?$allocator@UAlarmMent@ioCampManager@@@std@@@std@@IBEXPAUAlarmMent@ioCampManager@@0@Z ENDP ; std::vector<ioCampManager::AlarmMent,std::allocator<ioCampManager::AlarmMent> >::_Orphan_range
_TEXT	ENDS
PUBLIC	??1?$_Vector_val@UAlarmMent@ioCampManager@@V?$allocator@UAlarmMent@ioCampManager@@@std@@@std@@QAE@XZ ; std::_Vector_val<ioCampManager::AlarmMent,std::allocator<ioCampManager::AlarmMent> >::~_Vector_val<ioCampManager::AlarmMent,std::allocator<ioCampManager::AlarmMent> >
; Function compile flags: /Ogsp
;	COMDAT ??1?$_Vector_val@UAlarmMent@ioCampManager@@V?$allocator@UAlarmMent@ioCampManager@@@std@@@std@@QAE@XZ
_TEXT	SEGMENT
??1?$_Vector_val@UAlarmMent@ioCampManager@@V?$allocator@UAlarmMent@ioCampManager@@@std@@@std@@QAE@XZ PROC ; std::_Vector_val<ioCampManager::AlarmMent,std::allocator<ioCampManager::AlarmMent> >::~_Vector_val<ioCampManager::AlarmMent,std::allocator<ioCampManager::AlarmMent> >, COMDAT
; _this$ = ecx

; 434  : 		}

  00000	c3		 ret	 0
??1?$_Vector_val@UAlarmMent@ioCampManager@@V?$allocator@UAlarmMent@ioCampManager@@@std@@@std@@QAE@XZ ENDP ; std::_Vector_val<ioCampManager::AlarmMent,std::allocator<ioCampManager::AlarmMent> >::~_Vector_val<ioCampManager::AlarmMent,std::allocator<ioCampManager::AlarmMent> >
_TEXT	ENDS
PUBLIC	??0?$allocator@UAlarmMent@ioCampManager@@@std@@QAE@XZ ; std::allocator<ioCampManager::AlarmMent>::allocator<ioCampManager::AlarmMent>
; Function compile flags: /Ogsp
; File c:\program files (x86)\microsoft visual studio 10.0\vc\include\xmemory
;	COMDAT ??0?$allocator@UAlarmMent@ioCampManager@@@std@@QAE@XZ
_TEXT	SEGMENT
??0?$allocator@UAlarmMent@ioCampManager@@@std@@QAE@XZ PROC ; std::allocator<ioCampManager::AlarmMent>::allocator<ioCampManager::AlarmMent>, COMDAT
; _this$ = ecx

; 161  : 	_ALLOCATOR() _THROW0()

  00000	8b c1		 mov	 eax, ecx

; 162  : 		{	// construct default allocator (do nothing)
; 163  : 		}

  00002	c3		 ret	 0
??0?$allocator@UAlarmMent@ioCampManager@@@std@@QAE@XZ ENDP ; std::allocator<ioCampManager::AlarmMent>::allocator<ioCampManager::AlarmMent>
_TEXT	ENDS
PUBLIC	?_Inside@?$vector@UtagHeroRankData@@V?$allocator@UtagHeroRankData@@@std@@@std@@IBE_NPBUtagHeroRankData@@@Z ; std::vector<tagHeroRankData,std::allocator<tagHeroRankData> >::_Inside
; Function compile flags: /Ogsp
; File c:\program files (x86)\microsoft visual studio 10.0\vc\include\vector
;	COMDAT ?_Inside@?$vector@UtagHeroRankData@@V?$allocator@UtagHeroRankData@@@std@@@std@@IBE_NPBUtagHeroRankData@@@Z
_TEXT	SEGMENT
__Ptr$ = 8						; size = 4
?_Inside@?$vector@UtagHeroRankData@@V?$allocator@UtagHeroRankData@@@std@@@std@@IBE_NPBUtagHeroRankData@@@Z PROC ; std::vector<tagHeroRankData,std::allocator<tagHeroRankData> >::_Inside, COMDAT
; _this$ = ecx

; 1285 : 		{	// test if _Ptr points inside vector

  00000	55		 push	 ebp
  00001	8b ec		 mov	 ebp, esp

; 1286 : 		return (_Ptr < this->_Mylast && this->_Myfirst <= _Ptr);

  00003	8b 45 08	 mov	 eax, DWORD PTR __Ptr$[ebp]
  00006	3b 41 04	 cmp	 eax, DWORD PTR [ecx+4]
  00009	73 09		 jae	 SHORT $LN3@Inside@5
  0000b	39 01		 cmp	 DWORD PTR [ecx], eax
  0000d	77 05		 ja	 SHORT $LN3@Inside@5
  0000f	33 c0		 xor	 eax, eax
  00011	40		 inc	 eax
  00012	eb 02		 jmp	 SHORT $LN4@Inside@5
$LN3@Inside@5:
  00014	33 c0		 xor	 eax, eax
$LN4@Inside@5:

; 1287 : 		}

  00016	5d		 pop	 ebp
  00017	c2 04 00	 ret	 4
?_Inside@?$vector@UtagHeroRankData@@V?$allocator@UtagHeroRankData@@@std@@@std@@IBE_NPBUtagHeroRankData@@@Z ENDP ; std::vector<tagHeroRankData,std::allocator<tagHeroRankData> >::_Inside
_TEXT	ENDS
PUBLIC	?_Orphan_range@?$vector@UtagHeroRankData@@V?$allocator@UtagHeroRankData@@@std@@@std@@IBEXPAUtagHeroRankData@@0@Z ; std::vector<tagHeroRankData,std::allocator<tagHeroRankData> >::_Orphan_range
; Function compile flags: /Ogsp
;	COMDAT ?_Orphan_range@?$vector@UtagHeroRankData@@V?$allocator@UtagHeroRankData@@@std@@@std@@IBEXPAUtagHeroRankData@@0@Z
_TEXT	SEGMENT
___formal$ = 8						; size = 4
___formal$ = 12						; size = 4
?_Orphan_range@?$vector@UtagHeroRankData@@V?$allocator@UtagHeroRankData@@@std@@@std@@IBEXPAUtagHeroRankData@@0@Z PROC ; std::vector<tagHeroRankData,std::allocator<tagHeroRankData> >::_Orphan_range, COMDAT
; _this$ = ecx

; 1454 : 		}

  00000	c2 08 00	 ret	 8
?_Orphan_range@?$vector@UtagHeroRankData@@V?$allocator@UtagHeroRankData@@@std@@@std@@IBEXPAUtagHeroRankData@@0@Z ENDP ; std::vector<tagHeroRankData,std::allocator<tagHeroRankData> >::_Orphan_range
_TEXT	ENDS
PUBLIC	??1?$_Vector_val@UtagHeroRankData@@V?$allocator@UtagHeroRankData@@@std@@@std@@QAE@XZ ; std::_Vector_val<tagHeroRankData,std::allocator<tagHeroRankData> >::~_Vector_val<tagHeroRankData,std::allocator<tagHeroRankData> >
; Function compile flags: /Ogsp
;	COMDAT ??1?$_Vector_val@UtagHeroRankData@@V?$allocator@UtagHeroRankData@@@std@@@std@@QAE@XZ
_TEXT	SEGMENT
??1?$_Vector_val@UtagHeroRankData@@V?$allocator@UtagHeroRankData@@@std@@@std@@QAE@XZ PROC ; std::_Vector_val<tagHeroRankData,std::allocator<tagHeroRankData> >::~_Vector_val<tagHeroRankData,std::allocator<tagHeroRankData> >, COMDAT
; _this$ = ecx

; 434  : 		}

  00000	c3		 ret	 0
??1?$_Vector_val@UtagHeroRankData@@V?$allocator@UtagHeroRankData@@@std@@@std@@QAE@XZ ENDP ; std::_Vector_val<tagHeroRankData,std::allocator<tagHeroRankData> >::~_Vector_val<tagHeroRankData,std::allocator<tagHeroRankData> >
_TEXT	ENDS
PUBLIC	??0?$allocator@UtagHeroRankData@@@std@@QAE@XZ	; std::allocator<tagHeroRankData>::allocator<tagHeroRankData>
; Function compile flags: /Ogsp
; File c:\program files (x86)\microsoft visual studio 10.0\vc\include\xmemory
;	COMDAT ??0?$allocator@UtagHeroRankData@@@std@@QAE@XZ
_TEXT	SEGMENT
??0?$allocator@UtagHeroRankData@@@std@@QAE@XZ PROC	; std::allocator<tagHeroRankData>::allocator<tagHeroRankData>, COMDAT
; _this$ = ecx

; 161  : 	_ALLOCATOR() _THROW0()

  00000	8b c1		 mov	 eax, ecx

; 162  : 		{	// construct default allocator (do nothing)
; 163  : 		}

  00002	c3		 ret	 0
??0?$allocator@UtagHeroRankData@@@std@@QAE@XZ ENDP	; std::allocator<tagHeroRankData>::allocator<tagHeroRankData>
_TEXT	ENDS
PUBLIC	??1?$_Vector_val@UHeroMatchHistory@ioCampManager@@V?$allocator@UHeroMatchHistory@ioCampManager@@@std@@@std@@QAE@XZ ; std::_Vector_val<ioCampManager::HeroMatchHistory,std::allocator<ioCampManager::HeroMatchHistory> >::~_Vector_val<ioCampManager::HeroMatchHistory,std::allocator<ioCampManager::HeroMatchHistory> >
; Function compile flags: /Ogsp
; File c:\program files (x86)\microsoft visual studio 10.0\vc\include\vector
;	COMDAT ??1?$_Vector_val@UHeroMatchHistory@ioCampManager@@V?$allocator@UHeroMatchHistory@ioCampManager@@@std@@@std@@QAE@XZ
_TEXT	SEGMENT
??1?$_Vector_val@UHeroMatchHistory@ioCampManager@@V?$allocator@UHeroMatchHistory@ioCampManager@@@std@@@std@@QAE@XZ PROC ; std::_Vector_val<ioCampManager::HeroMatchHistory,std::allocator<ioCampManager::HeroMatchHistory> >::~_Vector_val<ioCampManager::HeroMatchHistory,std::allocator<ioCampManager::HeroMatchHistory> >, COMDAT
; _this$ = ecx

; 434  : 		}

  00000	c3		 ret	 0
??1?$_Vector_val@UHeroMatchHistory@ioCampManager@@V?$allocator@UHeroMatchHistory@ioCampManager@@@std@@@std@@QAE@XZ ENDP ; std::_Vector_val<ioCampManager::HeroMatchHistory,std::allocator<ioCampManager::HeroMatchHistory> >::~_Vector_val<ioCampManager::HeroMatchHistory,std::allocator<ioCampManager::HeroMatchHistory> >
_TEXT	ENDS
PUBLIC	??0?$allocator@UHeroMatchHistory@ioCampManager@@@std@@QAE@XZ ; std::allocator<ioCampManager::HeroMatchHistory>::allocator<ioCampManager::HeroMatchHistory>
; Function compile flags: /Ogsp
; File c:\program files (x86)\microsoft visual studio 10.0\vc\include\xmemory
;	COMDAT ??0?$allocator@UHeroMatchHistory@ioCampManager@@@std@@QAE@XZ
_TEXT	SEGMENT
??0?$allocator@UHeroMatchHistory@ioCampManager@@@std@@QAE@XZ PROC ; std::allocator<ioCampManager::HeroMatchHistory>::allocator<ioCampManager::HeroMatchHistory>, COMDAT
; _this$ = ecx

; 161  : 	_ALLOCATOR() _THROW0()

  00000	8b c1		 mov	 eax, ecx

; 162  : 		{	// construct default allocator (do nothing)
; 163  : 		}

  00002	c3		 ret	 0
??0?$allocator@UHeroMatchHistory@ioCampManager@@@std@@QAE@XZ ENDP ; std::allocator<ioCampManager::HeroMatchHistory>::allocator<ioCampManager::HeroMatchHistory>
_TEXT	ENDS
PUBLIC	?capacity@?$vector@UCampData@ioCampManager@@V?$allocator@UCampData@ioCampManager@@@std@@@std@@QBEIXZ ; std::vector<ioCampManager::CampData,std::allocator<ioCampManager::CampData> >::capacity
; Function compile flags: /Ogsp
; File c:\program files (x86)\microsoft visual studio 10.0\vc\include\vector
;	COMDAT ?capacity@?$vector@UCampData@ioCampManager@@V?$allocator@UCampData@ioCampManager@@@std@@@std@@QBEIXZ
_TEXT	SEGMENT
?capacity@?$vector@UCampData@ioCampManager@@V?$allocator@UCampData@ioCampManager@@@std@@@std@@QBEIXZ PROC ; std::vector<ioCampManager::CampData,std::allocator<ioCampManager::CampData> >::capacity, COMDAT
; _this$ = ecx

; 777  : 		return (this->_Myend - this->_Myfirst);

  00000	8b 41 08	 mov	 eax, DWORD PTR [ecx+8]
  00003	2b 01		 sub	 eax, DWORD PTR [ecx]
  00005	6a 18		 push	 24			; 00000018H
  00007	99		 cdq
  00008	59		 pop	 ecx
  00009	f7 f9		 idiv	 ecx

; 778  : 		}

  0000b	c3		 ret	 0
?capacity@?$vector@UCampData@ioCampManager@@V?$allocator@UCampData@ioCampManager@@@std@@@std@@QBEIXZ ENDP ; std::vector<ioCampManager::CampData,std::allocator<ioCampManager::CampData> >::capacity
_TEXT	ENDS
PUBLIC	??_C@_0BD@OLBABOEK@vector?$DMT?$DO?5too?5long?$AA@ ; `string'
PUBLIC	?_Xlen@?$vector@UCampData@ioCampManager@@V?$allocator@UCampData@ioCampManager@@@std@@@std@@IBEXXZ ; std::vector<ioCampManager::CampData,std::allocator<ioCampManager::CampData> >::_Xlen
EXTRN	__imp_?_Xlength_error@std@@YAXPBD@Z:PROC
;	COMDAT ??_C@_0BD@OLBABOEK@vector?$DMT?$DO?5too?5long?$AA@
CONST	SEGMENT
??_C@_0BD@OLBABOEK@vector?$DMT?$DO?5too?5long?$AA@ DB 'vector<T> too long'
	DB	00H						; `string'
; Function compile flags: /Ogsp
CONST	ENDS
;	COMDAT ?_Xlen@?$vector@UCampData@ioCampManager@@V?$allocator@UCampData@ioCampManager@@@std@@@std@@IBEXXZ
_TEXT	SEGMENT
?_Xlen@?$vector@UCampData@ioCampManager@@V?$allocator@UCampData@ioCampManager@@@std@@@std@@IBEXXZ PROC ; std::vector<ioCampManager::CampData,std::allocator<ioCampManager::CampData> >::_Xlen, COMDAT
; _this$ = ecx

; 1427 : 		_Xlength_error("vector<T> too long");

  00000	68 00 00 00 00	 push	 OFFSET ??_C@_0BD@OLBABOEK@vector?$DMT?$DO?5too?5long?$AA@
  00005	ff 15 00 00 00
	00		 call	 DWORD PTR __imp_?_Xlength_error@std@@YAXPBD@Z
$LN4@Xlen:
$LN3@Xlen:
  0000b	cc		 int	 3
?_Xlen@?$vector@UCampData@ioCampManager@@V?$allocator@UCampData@ioCampManager@@@std@@@std@@IBEXXZ ENDP ; std::vector<ioCampManager::CampData,std::allocator<ioCampManager::CampData> >::_Xlen
_TEXT	ENDS
PUBLIC	??0?$allocator@UCampData@ioCampManager@@@std@@QAE@ABV01@@Z ; std::allocator<ioCampManager::CampData>::allocator<ioCampManager::CampData>
; Function compile flags: /Ogsp
; File c:\program files (x86)\microsoft visual studio 10.0\vc\include\xmemory
;	COMDAT ??0?$allocator@UCampData@ioCampManager@@@std@@QAE@ABV01@@Z
_TEXT	SEGMENT
___formal$ = 8						; size = 4
??0?$allocator@UCampData@ioCampManager@@@std@@QAE@ABV01@@Z PROC ; std::allocator<ioCampManager::CampData>::allocator<ioCampManager::CampData>, COMDAT
; _this$ = ecx

; 165  : 	_ALLOCATOR(const _ALLOCATOR<_Ty>&) _THROW0()

  00000	8b c1		 mov	 eax, ecx

; 166  : 		{	// construct by copying (do nothing)
; 167  : 		}

  00002	c2 04 00	 ret	 4
??0?$allocator@UCampData@ioCampManager@@@std@@QAE@ABV01@@Z ENDP ; std::allocator<ioCampManager::CampData>::allocator<ioCampManager::CampData>
_TEXT	ENDS
PUBLIC	?deallocate@?$allocator@UCampData@ioCampManager@@@std@@QAEXPAUCampData@ioCampManager@@I@Z ; std::allocator<ioCampManager::CampData>::deallocate
; Function compile flags: /Ogsp
;	COMDAT ?deallocate@?$allocator@UCampData@ioCampManager@@@std@@QAEXPAUCampData@ioCampManager@@I@Z
_TEXT	SEGMENT
__Ptr$ = 8						; size = 4
___formal$ = 12						; size = 4
?deallocate@?$allocator@UCampData@ioCampManager@@@std@@QAEXPAUCampData@ioCampManager@@I@Z PROC ; std::allocator<ioCampManager::CampData>::deallocate, COMDAT
; _this$ = ecx

; 181  : 		{	// deallocate object at _Ptr, ignore size

  00000	55		 push	 ebp
  00001	8b ec		 mov	 ebp, esp

; 182  : 		::operator delete(_Ptr);

  00003	ff 75 08	 push	 DWORD PTR __Ptr$[ebp]
  00006	e8 00 00 00 00	 call	 ??3@YAXPAX@Z		; operator delete
  0000b	59		 pop	 ecx

; 183  : 		}

  0000c	5d		 pop	 ebp
  0000d	c2 08 00	 ret	 8
?deallocate@?$allocator@UCampData@ioCampManager@@@std@@QAEXPAUCampData@ioCampManager@@I@Z ENDP ; std::allocator<ioCampManager::CampData>::deallocate
_TEXT	ENDS
PUBLIC	?capacity@?$vector@UMentData@ioCampManager@@V?$allocator@UMentData@ioCampManager@@@std@@@std@@QBEIXZ ; std::vector<ioCampManager::MentData,std::allocator<ioCampManager::MentData> >::capacity
; Function compile flags: /Ogsp
; File c:\program files (x86)\microsoft visual studio 10.0\vc\include\vector
;	COMDAT ?capacity@?$vector@UMentData@ioCampManager@@V?$allocator@UMentData@ioCampManager@@@std@@@std@@QBEIXZ
_TEXT	SEGMENT
?capacity@?$vector@UMentData@ioCampManager@@V?$allocator@UMentData@ioCampManager@@@std@@@std@@QBEIXZ PROC ; std::vector<ioCampManager::MentData,std::allocator<ioCampManager::MentData> >::capacity, COMDAT
; _this$ = ecx

; 777  : 		return (this->_Myend - this->_Myfirst);

  00000	8b 41 08	 mov	 eax, DWORD PTR [ecx+8]
  00003	2b 01		 sub	 eax, DWORD PTR [ecx]
  00005	b9 08 01 00 00	 mov	 ecx, 264		; 00000108H
  0000a	99		 cdq
  0000b	f7 f9		 idiv	 ecx

; 778  : 		}

  0000d	c3		 ret	 0
?capacity@?$vector@UMentData@ioCampManager@@V?$allocator@UMentData@ioCampManager@@@std@@@std@@QBEIXZ ENDP ; std::vector<ioCampManager::MentData,std::allocator<ioCampManager::MentData> >::capacity
_TEXT	ENDS
PUBLIC	?_Xlen@?$vector@UMentData@ioCampManager@@V?$allocator@UMentData@ioCampManager@@@std@@@std@@IBEXXZ ; std::vector<ioCampManager::MentData,std::allocator<ioCampManager::MentData> >::_Xlen
; Function compile flags: /Ogsp
;	COMDAT ?_Xlen@?$vector@UMentData@ioCampManager@@V?$allocator@UMentData@ioCampManager@@@std@@@std@@IBEXXZ
_TEXT	SEGMENT
?_Xlen@?$vector@UMentData@ioCampManager@@V?$allocator@UMentData@ioCampManager@@@std@@@std@@IBEXXZ PROC ; std::vector<ioCampManager::MentData,std::allocator<ioCampManager::MentData> >::_Xlen, COMDAT
; _this$ = ecx

; 1427 : 		_Xlength_error("vector<T> too long");

  00000	68 00 00 00 00	 push	 OFFSET ??_C@_0BD@OLBABOEK@vector?$DMT?$DO?5too?5long?$AA@
  00005	ff 15 00 00 00
	00		 call	 DWORD PTR __imp_?_Xlength_error@std@@YAXPBD@Z
$LN4@Xlen@2:
$LN3@Xlen@2:
  0000b	cc		 int	 3
?_Xlen@?$vector@UMentData@ioCampManager@@V?$allocator@UMentData@ioCampManager@@@std@@@std@@IBEXXZ ENDP ; std::vector<ioCampManager::MentData,std::allocator<ioCampManager::MentData> >::_Xlen
_TEXT	ENDS
PUBLIC	?capacity@?$vector@UEntryMentList@ioCampManager@@V?$allocator@UEntryMentList@ioCampManager@@@std@@@std@@QBEIXZ ; std::vector<ioCampManager::EntryMentList,std::allocator<ioCampManager::EntryMentList> >::capacity
; Function compile flags: /Ogsp
;	COMDAT ?capacity@?$vector@UEntryMentList@ioCampManager@@V?$allocator@UEntryMentList@ioCampManager@@@std@@@std@@QBEIXZ
_TEXT	SEGMENT
?capacity@?$vector@UEntryMentList@ioCampManager@@V?$allocator@UEntryMentList@ioCampManager@@@std@@@std@@QBEIXZ PROC ; std::vector<ioCampManager::EntryMentList,std::allocator<ioCampManager::EntryMentList> >::capacity, COMDAT
; _this$ = ecx

; 777  : 		return (this->_Myend - this->_Myfirst);

  00000	8b 41 08	 mov	 eax, DWORD PTR [ecx+8]
  00003	2b 01		 sub	 eax, DWORD PTR [ecx]
  00005	6a 18		 push	 24			; 00000018H
  00007	99		 cdq
  00008	59		 pop	 ecx
  00009	f7 f9		 idiv	 ecx

; 778  : 		}

  0000b	c3		 ret	 0
?capacity@?$vector@UEntryMentList@ioCampManager@@V?$allocator@UEntryMentList@ioCampManager@@@std@@@std@@QBEIXZ ENDP ; std::vector<ioCampManager::EntryMentList,std::allocator<ioCampManager::EntryMentList> >::capacity
_TEXT	ENDS
PUBLIC	?_Xlen@?$vector@UEntryMentList@ioCampManager@@V?$allocator@UEntryMentList@ioCampManager@@@std@@@std@@IBEXXZ ; std::vector<ioCampManager::EntryMentList,std::allocator<ioCampManager::EntryMentList> >::_Xlen
; Function compile flags: /Ogsp
;	COMDAT ?_Xlen@?$vector@UEntryMentList@ioCampManager@@V?$allocator@UEntryMentList@ioCampManager@@@std@@@std@@IBEXXZ
_TEXT	SEGMENT
?_Xlen@?$vector@UEntryMentList@ioCampManager@@V?$allocator@UEntryMentList@ioCampManager@@@std@@@std@@IBEXXZ PROC ; std::vector<ioCampManager::EntryMentList,std::allocator<ioCampManager::EntryMentList> >::_Xlen, COMDAT
; _this$ = ecx

; 1427 : 		_Xlength_error("vector<T> too long");

  00000	68 00 00 00 00	 push	 OFFSET ??_C@_0BD@OLBABOEK@vector?$DMT?$DO?5too?5long?$AA@
  00005	ff 15 00 00 00
	00		 call	 DWORD PTR __imp_?_Xlength_error@std@@YAXPBD@Z
$LN4@Xlen@3:
$LN3@Xlen@3:
  0000b	cc		 int	 3
?_Xlen@?$vector@UEntryMentList@ioCampManager@@V?$allocator@UEntryMentList@ioCampManager@@@std@@@std@@IBEXXZ ENDP ; std::vector<ioCampManager::EntryMentList,std::allocator<ioCampManager::EntryMentList> >::_Xlen
_TEXT	ENDS
PUBLIC	??0?$allocator@UEntryMentList@ioCampManager@@@std@@QAE@ABV01@@Z ; std::allocator<ioCampManager::EntryMentList>::allocator<ioCampManager::EntryMentList>
; Function compile flags: /Ogsp
; File c:\program files (x86)\microsoft visual studio 10.0\vc\include\xmemory
;	COMDAT ??0?$allocator@UEntryMentList@ioCampManager@@@std@@QAE@ABV01@@Z
_TEXT	SEGMENT
___formal$ = 8						; size = 4
??0?$allocator@UEntryMentList@ioCampManager@@@std@@QAE@ABV01@@Z PROC ; std::allocator<ioCampManager::EntryMentList>::allocator<ioCampManager::EntryMentList>, COMDAT
; _this$ = ecx

; 165  : 	_ALLOCATOR(const _ALLOCATOR<_Ty>&) _THROW0()

  00000	8b c1		 mov	 eax, ecx

; 166  : 		{	// construct by copying (do nothing)
; 167  : 		}

  00002	c2 04 00	 ret	 4
??0?$allocator@UEntryMentList@ioCampManager@@@std@@QAE@ABV01@@Z ENDP ; std::allocator<ioCampManager::EntryMentList>::allocator<ioCampManager::EntryMentList>
_TEXT	ENDS
PUBLIC	?deallocate@?$allocator@UEntryMentList@ioCampManager@@@std@@QAEXPAUEntryMentList@ioCampManager@@I@Z ; std::allocator<ioCampManager::EntryMentList>::deallocate
; Function compile flags: /Ogsp
;	COMDAT ?deallocate@?$allocator@UEntryMentList@ioCampManager@@@std@@QAEXPAUEntryMentList@ioCampManager@@I@Z
_TEXT	SEGMENT
__Ptr$ = 8						; size = 4
___formal$ = 12						; size = 4
?deallocate@?$allocator@UEntryMentList@ioCampManager@@@std@@QAEXPAUEntryMentList@ioCampManager@@I@Z PROC ; std::allocator<ioCampManager::EntryMentList>::deallocate, COMDAT
; _this$ = ecx

; 181  : 		{	// deallocate object at _Ptr, ignore size

  00000	55		 push	 ebp
  00001	8b ec		 mov	 ebp, esp

; 182  : 		::operator delete(_Ptr);

  00003	ff 75 08	 push	 DWORD PTR __Ptr$[ebp]
  00006	e8 00 00 00 00	 call	 ??3@YAXPAX@Z		; operator delete
  0000b	59		 pop	 ecx

; 183  : 		}

  0000c	5d		 pop	 ebp
  0000d	c2 08 00	 ret	 8
?deallocate@?$allocator@UEntryMentList@ioCampManager@@@std@@QAEXPAUEntryMentList@ioCampManager@@I@Z ENDP ; std::allocator<ioCampManager::EntryMentList>::deallocate
_TEXT	ENDS
PUBLIC	?capacity@?$vector@UAlarmMent@ioCampManager@@V?$allocator@UAlarmMent@ioCampManager@@@std@@@std@@QBEIXZ ; std::vector<ioCampManager::AlarmMent,std::allocator<ioCampManager::AlarmMent> >::capacity
; Function compile flags: /Ogsp
; File c:\program files (x86)\microsoft visual studio 10.0\vc\include\vector
;	COMDAT ?capacity@?$vector@UAlarmMent@ioCampManager@@V?$allocator@UAlarmMent@ioCampManager@@@std@@@std@@QBEIXZ
_TEXT	SEGMENT
?capacity@?$vector@UAlarmMent@ioCampManager@@V?$allocator@UAlarmMent@ioCampManager@@@std@@@std@@QBEIXZ PROC ; std::vector<ioCampManager::AlarmMent,std::allocator<ioCampManager::AlarmMent> >::capacity, COMDAT
; _this$ = ecx

; 777  : 		return (this->_Myend - this->_Myfirst);

  00000	8b 41 08	 mov	 eax, DWORD PTR [ecx+8]
  00003	2b 01		 sub	 eax, DWORD PTR [ecx]
  00005	6a 14		 push	 20			; 00000014H
  00007	99		 cdq
  00008	59		 pop	 ecx
  00009	f7 f9		 idiv	 ecx

; 778  : 		}

  0000b	c3		 ret	 0
?capacity@?$vector@UAlarmMent@ioCampManager@@V?$allocator@UAlarmMent@ioCampManager@@@std@@@std@@QBEIXZ ENDP ; std::vector<ioCampManager::AlarmMent,std::allocator<ioCampManager::AlarmMent> >::capacity
_TEXT	ENDS
PUBLIC	?_Xlen@?$vector@UAlarmMent@ioCampManager@@V?$allocator@UAlarmMent@ioCampManager@@@std@@@std@@IBEXXZ ; std::vector<ioCampManager::AlarmMent,std::allocator<ioCampManager::AlarmMent> >::_Xlen
; Function compile flags: /Ogsp
;	COMDAT ?_Xlen@?$vector@UAlarmMent@ioCampManager@@V?$allocator@UAlarmMent@ioCampManager@@@std@@@std@@IBEXXZ
_TEXT	SEGMENT
?_Xlen@?$vector@UAlarmMent@ioCampManager@@V?$allocator@UAlarmMent@ioCampManager@@@std@@@std@@IBEXXZ PROC ; std::vector<ioCampManager::AlarmMent,std::allocator<ioCampManager::AlarmMent> >::_Xlen, COMDAT
; _this$ = ecx

; 1427 : 		_Xlength_error("vector<T> too long");

  00000	68 00 00 00 00	 push	 OFFSET ??_C@_0BD@OLBABOEK@vector?$DMT?$DO?5too?5long?$AA@
  00005	ff 15 00 00 00
	00		 call	 DWORD PTR __imp_?_Xlength_error@std@@YAXPBD@Z
$LN4@Xlen@4:
$LN3@Xlen@4:
  0000b	cc		 int	 3
?_Xlen@?$vector@UAlarmMent@ioCampManager@@V?$allocator@UAlarmMent@ioCampManager@@@std@@@std@@IBEXXZ ENDP ; std::vector<ioCampManager::AlarmMent,std::allocator<ioCampManager::AlarmMent> >::_Xlen
_TEXT	ENDS
PUBLIC	??0?$allocator@UAlarmMent@ioCampManager@@@std@@QAE@ABV01@@Z ; std::allocator<ioCampManager::AlarmMent>::allocator<ioCampManager::AlarmMent>
; Function compile flags: /Ogsp
; File c:\program files (x86)\microsoft visual studio 10.0\vc\include\xmemory
;	COMDAT ??0?$allocator@UAlarmMent@ioCampManager@@@std@@QAE@ABV01@@Z
_TEXT	SEGMENT
___formal$ = 8						; size = 4
??0?$allocator@UAlarmMent@ioCampManager@@@std@@QAE@ABV01@@Z PROC ; std::allocator<ioCampManager::AlarmMent>::allocator<ioCampManager::AlarmMent>, COMDAT
; _this$ = ecx

; 165  : 	_ALLOCATOR(const _ALLOCATOR<_Ty>&) _THROW0()

  00000	8b c1		 mov	 eax, ecx

; 166  : 		{	// construct by copying (do nothing)
; 167  : 		}

  00002	c2 04 00	 ret	 4
??0?$allocator@UAlarmMent@ioCampManager@@@std@@QAE@ABV01@@Z ENDP ; std::allocator<ioCampManager::AlarmMent>::allocator<ioCampManager::AlarmMent>
_TEXT	ENDS
PUBLIC	?deallocate@?$allocator@UAlarmMent@ioCampManager@@@std@@QAEXPAUAlarmMent@ioCampManager@@I@Z ; std::allocator<ioCampManager::AlarmMent>::deallocate
; Function compile flags: /Ogsp
;	COMDAT ?deallocate@?$allocator@UAlarmMent@ioCampManager@@@std@@QAEXPAUAlarmMent@ioCampManager@@I@Z
_TEXT	SEGMENT
__Ptr$ = 8						; size = 4
___formal$ = 12						; size = 4
?deallocate@?$allocator@UAlarmMent@ioCampManager@@@std@@QAEXPAUAlarmMent@ioCampManager@@I@Z PROC ; std::allocator<ioCampManager::AlarmMent>::deallocate, COMDAT
; _this$ = ecx

; 181  : 		{	// deallocate object at _Ptr, ignore size

  00000	55		 push	 ebp
  00001	8b ec		 mov	 ebp, esp

; 182  : 		::operator delete(_Ptr);

  00003	ff 75 08	 push	 DWORD PTR __Ptr$[ebp]
  00006	e8 00 00 00 00	 call	 ??3@YAXPAX@Z		; operator delete
  0000b	59		 pop	 ecx

; 183  : 		}

  0000c	5d		 pop	 ebp
  0000d	c2 08 00	 ret	 8
?deallocate@?$allocator@UAlarmMent@ioCampManager@@@std@@QAEXPAUAlarmMent@ioCampManager@@I@Z ENDP ; std::allocator<ioCampManager::AlarmMent>::deallocate
_TEXT	ENDS
PUBLIC	?capacity@?$vector@UtagHeroRankData@@V?$allocator@UtagHeroRankData@@@std@@@std@@QBEIXZ ; std::vector<tagHeroRankData,std::allocator<tagHeroRankData> >::capacity
; Function compile flags: /Ogsp
; File c:\program files (x86)\microsoft visual studio 10.0\vc\include\vector
;	COMDAT ?capacity@?$vector@UtagHeroRankData@@V?$allocator@UtagHeroRankData@@@std@@@std@@QBEIXZ
_TEXT	SEGMENT
?capacity@?$vector@UtagHeroRankData@@V?$allocator@UtagHeroRankData@@@std@@@std@@QBEIXZ PROC ; std::vector<tagHeroRankData,std::allocator<tagHeroRankData> >::capacity, COMDAT
; _this$ = ecx

; 777  : 		return (this->_Myend - this->_Myfirst);

  00000	8b 41 08	 mov	 eax, DWORD PTR [ecx+8]
  00003	2b 01		 sub	 eax, DWORD PTR [ecx]
  00005	6a 2c		 push	 44			; 0000002cH
  00007	99		 cdq
  00008	59		 pop	 ecx
  00009	f7 f9		 idiv	 ecx

; 778  : 		}

  0000b	c3		 ret	 0
?capacity@?$vector@UtagHeroRankData@@V?$allocator@UtagHeroRankData@@@std@@@std@@QBEIXZ ENDP ; std::vector<tagHeroRankData,std::allocator<tagHeroRankData> >::capacity
_TEXT	ENDS
PUBLIC	?_Xlen@?$vector@UtagHeroRankData@@V?$allocator@UtagHeroRankData@@@std@@@std@@IBEXXZ ; std::vector<tagHeroRankData,std::allocator<tagHeroRankData> >::_Xlen
; Function compile flags: /Ogsp
;	COMDAT ?_Xlen@?$vector@UtagHeroRankData@@V?$allocator@UtagHeroRankData@@@std@@@std@@IBEXXZ
_TEXT	SEGMENT
?_Xlen@?$vector@UtagHeroRankData@@V?$allocator@UtagHeroRankData@@@std@@@std@@IBEXXZ PROC ; std::vector<tagHeroRankData,std::allocator<tagHeroRankData> >::_Xlen, COMDAT
; _this$ = ecx

; 1427 : 		_Xlength_error("vector<T> too long");

  00000	68 00 00 00 00	 push	 OFFSET ??_C@_0BD@OLBABOEK@vector?$DMT?$DO?5too?5long?$AA@
  00005	ff 15 00 00 00
	00		 call	 DWORD PTR __imp_?_Xlength_error@std@@YAXPBD@Z
$LN4@Xlen@5:
$LN3@Xlen@5:
  0000b	cc		 int	 3
?_Xlen@?$vector@UtagHeroRankData@@V?$allocator@UtagHeroRankData@@@std@@@std@@IBEXXZ ENDP ; std::vector<tagHeroRankData,std::allocator<tagHeroRankData> >::_Xlen
_TEXT	ENDS
PUBLIC	??0?$allocator@UtagHeroRankData@@@std@@QAE@ABV01@@Z ; std::allocator<tagHeroRankData>::allocator<tagHeroRankData>
; Function compile flags: /Ogsp
; File c:\program files (x86)\microsoft visual studio 10.0\vc\include\xmemory
;	COMDAT ??0?$allocator@UtagHeroRankData@@@std@@QAE@ABV01@@Z
_TEXT	SEGMENT
___formal$ = 8						; size = 4
??0?$allocator@UtagHeroRankData@@@std@@QAE@ABV01@@Z PROC ; std::allocator<tagHeroRankData>::allocator<tagHeroRankData>, COMDAT
; _this$ = ecx

; 165  : 	_ALLOCATOR(const _ALLOCATOR<_Ty>&) _THROW0()

  00000	8b c1		 mov	 eax, ecx

; 166  : 		{	// construct by copying (do nothing)
; 167  : 		}

  00002	c2 04 00	 ret	 4
??0?$allocator@UtagHeroRankData@@@std@@QAE@ABV01@@Z ENDP ; std::allocator<tagHeroRankData>::allocator<tagHeroRankData>
_TEXT	ENDS
PUBLIC	?deallocate@?$allocator@UtagHeroRankData@@@std@@QAEXPAUtagHeroRankData@@I@Z ; std::allocator<tagHeroRankData>::deallocate
; Function compile flags: /Ogsp
;	COMDAT ?deallocate@?$allocator@UtagHeroRankData@@@std@@QAEXPAUtagHeroRankData@@I@Z
_TEXT	SEGMENT
__Ptr$ = 8						; size = 4
___formal$ = 12						; size = 4
?deallocate@?$allocator@UtagHeroRankData@@@std@@QAEXPAUtagHeroRankData@@I@Z PROC ; std::allocator<tagHeroRankData>::deallocate, COMDAT
; _this$ = ecx

; 181  : 		{	// deallocate object at _Ptr, ignore size

  00000	55		 push	 ebp
  00001	8b ec		 mov	 ebp, esp

; 182  : 		::operator delete(_Ptr);

  00003	ff 75 08	 push	 DWORD PTR __Ptr$[ebp]
  00006	e8 00 00 00 00	 call	 ??3@YAXPAX@Z		; operator delete
  0000b	59		 pop	 ecx

; 183  : 		}

  0000c	5d		 pop	 ebp
  0000d	c2 08 00	 ret	 8
?deallocate@?$allocator@UtagHeroRankData@@@std@@QAEXPAUtagHeroRankData@@I@Z ENDP ; std::allocator<tagHeroRankData>::deallocate
_TEXT	ENDS
PUBLIC	??0?$allocator@UHeroMatchHistory@ioCampManager@@@std@@QAE@ABV01@@Z ; std::allocator<ioCampManager::HeroMatchHistory>::allocator<ioCampManager::HeroMatchHistory>
; Function compile flags: /Ogsp
;	COMDAT ??0?$allocator@UHeroMatchHistory@ioCampManager@@@std@@QAE@ABV01@@Z
_TEXT	SEGMENT
___formal$ = 8						; size = 4
??0?$allocator@UHeroMatchHistory@ioCampManager@@@std@@QAE@ABV01@@Z PROC ; std::allocator<ioCampManager::HeroMatchHistory>::allocator<ioCampManager::HeroMatchHistory>, COMDAT
; _this$ = ecx

; 165  : 	_ALLOCATOR(const _ALLOCATOR<_Ty>&) _THROW0()

  00000	8b c1		 mov	 eax, ecx

; 166  : 		{	// construct by copying (do nothing)
; 167  : 		}

  00002	c2 04 00	 ret	 4
??0?$allocator@UHeroMatchHistory@ioCampManager@@@std@@QAE@ABV01@@Z ENDP ; std::allocator<ioCampManager::HeroMatchHistory>::allocator<ioCampManager::HeroMatchHistory>
_TEXT	ENDS
PUBLIC	?deallocate@?$allocator@UHeroMatchHistory@ioCampManager@@@std@@QAEXPAUHeroMatchHistory@ioCampManager@@I@Z ; std::allocator<ioCampManager::HeroMatchHistory>::deallocate
; Function compile flags: /Ogsp
;	COMDAT ?deallocate@?$allocator@UHeroMatchHistory@ioCampManager@@@std@@QAEXPAUHeroMatchHistory@ioCampManager@@I@Z
_TEXT	SEGMENT
__Ptr$ = 8						; size = 4
___formal$ = 12						; size = 4
?deallocate@?$allocator@UHeroMatchHistory@ioCampManager@@@std@@QAEXPAUHeroMatchHistory@ioCampManager@@I@Z PROC ; std::allocator<ioCampManager::HeroMatchHistory>::deallocate, COMDAT
; _this$ = ecx

; 181  : 		{	// deallocate object at _Ptr, ignore size

  00000	55		 push	 ebp
  00001	8b ec		 mov	 ebp, esp

; 182  : 		::operator delete(_Ptr);

  00003	ff 75 08	 push	 DWORD PTR __Ptr$[ebp]
  00006	e8 00 00 00 00	 call	 ??3@YAXPAX@Z		; operator delete
  0000b	59		 pop	 ecx

; 183  : 		}

  0000c	5d		 pop	 ebp
  0000d	c2 08 00	 ret	 8
?deallocate@?$allocator@UHeroMatchHistory@ioCampManager@@@std@@QAEXPAUHeroMatchHistory@ioCampManager@@I@Z ENDP ; std::allocator<ioCampManager::HeroMatchHistory>::deallocate
_TEXT	ENDS
PUBLIC	??0?$_Vector_const_iterator@V?$_Vector_val@UHeroMatchHistory@ioCampManager@@V?$allocator@UHeroMatchHistory@ioCampManager@@@std@@@std@@@std@@QAE@PAUHeroMatchHistory@ioCampManager@@PBU_Container_base0@1@@Z ; std::_Vector_const_iterator<std::_Vector_val<ioCampManager::HeroMatchHistory,std::allocator<ioCampManager::HeroMatchHistory> > >::_Vector_const_iterator<std::_Vector_val<ioCampManager::HeroMatchHistory,std::allocator<ioCampManager::HeroMatchHistory> > >
; Function compile flags: /Ogsp
; File c:\program files (x86)\microsoft visual studio 10.0\vc\include\vector
;	COMDAT ??0?$_Vector_const_iterator@V?$_Vector_val@UHeroMatchHistory@ioCampManager@@V?$allocator@UHeroMatchHistory@ioCampManager@@@std@@@std@@@std@@QAE@PAUHeroMatchHistory@ioCampManager@@PBU_Container_base0@1@@Z
_TEXT	SEGMENT
__Parg$ = 8						; size = 4
__Pvector$ = 12						; size = 4
??0?$_Vector_const_iterator@V?$_Vector_val@UHeroMatchHistory@ioCampManager@@V?$allocator@UHeroMatchHistory@ioCampManager@@@std@@@std@@@std@@QAE@PAUHeroMatchHistory@ioCampManager@@PBU_Container_base0@1@@Z PROC ; std::_Vector_const_iterator<std::_Vector_val<ioCampManager::HeroMatchHistory,std::allocator<ioCampManager::HeroMatchHistory> > >::_Vector_const_iterator<std::_Vector_val<ioCampManager::HeroMatchHistory,std::allocator<ioCampManager::HeroMatchHistory> > >, COMDAT
; _this$ = ecx

; 45   : 		{	// construct with pointer _Parg

  00000	55		 push	 ebp
  00001	8b ec		 mov	 ebp, esp
  00003	8b c1		 mov	 eax, ecx
  00005	8b 4d 08	 mov	 ecx, DWORD PTR __Parg$[ebp]
  00008	89 08		 mov	 DWORD PTR [eax], ecx

; 46   : 		this->_Adopt(_Pvector);
; 47   : 		}

  0000a	5d		 pop	 ebp
  0000b	c2 08 00	 ret	 8
??0?$_Vector_const_iterator@V?$_Vector_val@UHeroMatchHistory@ioCampManager@@V?$allocator@UHeroMatchHistory@ioCampManager@@@std@@@std@@@std@@QAE@PAUHeroMatchHistory@ioCampManager@@PBU_Container_base0@1@@Z ENDP ; std::_Vector_const_iterator<std::_Vector_val<ioCampManager::HeroMatchHistory,std::allocator<ioCampManager::HeroMatchHistory> > >::_Vector_const_iterator<std::_Vector_val<ioCampManager::HeroMatchHistory,std::allocator<ioCampManager::HeroMatchHistory> > >
_TEXT	ENDS
PUBLIC	?max_size@?$allocator@UCampData@ioCampManager@@@std@@QBEIXZ ; std::allocator<ioCampManager::CampData>::max_size
; Function compile flags: /Ogsp
; File c:\program files (x86)\microsoft visual studio 10.0\vc\include\xmemory
;	COMDAT ?max_size@?$allocator@UCampData@ioCampManager@@@std@@QBEIXZ
_TEXT	SEGMENT
?max_size@?$allocator@UCampData@ioCampManager@@@std@@QBEIXZ PROC ; std::allocator<ioCampManager::CampData>::max_size, COMDAT
; _this$ = ecx

; 218  : 		_SIZT _Count = (_SIZT)(-1) / sizeof (_Ty);
; 219  : 		return (0 < _Count ? _Count : 1);

  00000	b8 aa aa aa 0a	 mov	 eax, 178956970		; 0aaaaaaaH

; 220  : 		}

  00005	c3		 ret	 0
?max_size@?$allocator@UCampData@ioCampManager@@@std@@QBEIXZ ENDP ; std::allocator<ioCampManager::CampData>::max_size
_TEXT	ENDS
PUBLIC	?max_size@?$allocator@UMentData@ioCampManager@@@std@@QBEIXZ ; std::allocator<ioCampManager::MentData>::max_size
; Function compile flags: /Ogsp
;	COMDAT ?max_size@?$allocator@UMentData@ioCampManager@@@std@@QBEIXZ
_TEXT	SEGMENT
?max_size@?$allocator@UMentData@ioCampManager@@@std@@QBEIXZ PROC ; std::allocator<ioCampManager::MentData>::max_size, COMDAT
; _this$ = ecx

; 218  : 		_SIZT _Count = (_SIZT)(-1) / sizeof (_Ty);
; 219  : 		return (0 < _Count ? _Count : 1);

  00000	b8 0f 3e f8 00	 mov	 eax, 16268815		; 00f83e0fH

; 220  : 		}

  00005	c3		 ret	 0
?max_size@?$allocator@UMentData@ioCampManager@@@std@@QBEIXZ ENDP ; std::allocator<ioCampManager::MentData>::max_size
_TEXT	ENDS
PUBLIC	?max_size@?$allocator@UEntryMentList@ioCampManager@@@std@@QBEIXZ ; std::allocator<ioCampManager::EntryMentList>::max_size
; Function compile flags: /Ogsp
;	COMDAT ?max_size@?$allocator@UEntryMentList@ioCampManager@@@std@@QBEIXZ
_TEXT	SEGMENT
?max_size@?$allocator@UEntryMentList@ioCampManager@@@std@@QBEIXZ PROC ; std::allocator<ioCampManager::EntryMentList>::max_size, COMDAT
; _this$ = ecx

; 218  : 		_SIZT _Count = (_SIZT)(-1) / sizeof (_Ty);
; 219  : 		return (0 < _Count ? _Count : 1);

  00000	b8 aa aa aa 0a	 mov	 eax, 178956970		; 0aaaaaaaH

; 220  : 		}

  00005	c3		 ret	 0
?max_size@?$allocator@UEntryMentList@ioCampManager@@@std@@QBEIXZ ENDP ; std::allocator<ioCampManager::EntryMentList>::max_size
_TEXT	ENDS
PUBLIC	?max_size@?$allocator@UAlarmMent@ioCampManager@@@std@@QBEIXZ ; std::allocator<ioCampManager::AlarmMent>::max_size
; Function compile flags: /Ogsp
;	COMDAT ?max_size@?$allocator@UAlarmMent@ioCampManager@@@std@@QBEIXZ
_TEXT	SEGMENT
?max_size@?$allocator@UAlarmMent@ioCampManager@@@std@@QBEIXZ PROC ; std::allocator<ioCampManager::AlarmMent>::max_size, COMDAT
; _this$ = ecx

; 218  : 		_SIZT _Count = (_SIZT)(-1) / sizeof (_Ty);
; 219  : 		return (0 < _Count ? _Count : 1);

  00000	b8 cc cc cc 0c	 mov	 eax, 214748364		; 0cccccccH

; 220  : 		}

  00005	c3		 ret	 0
?max_size@?$allocator@UAlarmMent@ioCampManager@@@std@@QBEIXZ ENDP ; std::allocator<ioCampManager::AlarmMent>::max_size
_TEXT	ENDS
PUBLIC	?max_size@?$allocator@UtagHeroRankData@@@std@@QBEIXZ ; std::allocator<tagHeroRankData>::max_size
; Function compile flags: /Ogsp
;	COMDAT ?max_size@?$allocator@UtagHeroRankData@@@std@@QBEIXZ
_TEXT	SEGMENT
?max_size@?$allocator@UtagHeroRankData@@@std@@QBEIXZ PROC ; std::allocator<tagHeroRankData>::max_size, COMDAT
; _this$ = ecx

; 218  : 		_SIZT _Count = (_SIZT)(-1) / sizeof (_Ty);
; 219  : 		return (0 < _Count ? _Count : 1);

  00000	b8 5d 74 d1 05	 mov	 eax, 97612893		; 05d1745dH

; 220  : 		}

  00005	c3		 ret	 0
?max_size@?$allocator@UtagHeroRankData@@@std@@QBEIXZ ENDP ; std::allocator<tagHeroRankData>::max_size
_TEXT	ENDS
PUBLIC	??0?$_Vector_const_iterator@V?$_Vector_val@UCampData@ioCampManager@@V?$allocator@UCampData@ioCampManager@@@std@@@std@@@std@@QAE@PAUCampData@ioCampManager@@PBU_Container_base0@1@@Z ; std::_Vector_const_iterator<std::_Vector_val<ioCampManager::CampData,std::allocator<ioCampManager::CampData> > >::_Vector_const_iterator<std::_Vector_val<ioCampManager::CampData,std::allocator<ioCampManager::CampData> > >
; Function compile flags: /Ogsp
; File c:\program files (x86)\microsoft visual studio 10.0\vc\include\vector
;	COMDAT ??0?$_Vector_const_iterator@V?$_Vector_val@UCampData@ioCampManager@@V?$allocator@UCampData@ioCampManager@@@std@@@std@@@std@@QAE@PAUCampData@ioCampManager@@PBU_Container_base0@1@@Z
_TEXT	SEGMENT
__Parg$ = 8						; size = 4
__Pvector$ = 12						; size = 4
??0?$_Vector_const_iterator@V?$_Vector_val@UCampData@ioCampManager@@V?$allocator@UCampData@ioCampManager@@@std@@@std@@@std@@QAE@PAUCampData@ioCampManager@@PBU_Container_base0@1@@Z PROC ; std::_Vector_const_iterator<std::_Vector_val<ioCampManager::CampData,std::allocator<ioCampManager::CampData> > >::_Vector_const_iterator<std::_Vector_val<ioCampManager::CampData,std::allocator<ioCampManager::CampData> > >, COMDAT
; _this$ = ecx

; 45   : 		{	// construct with pointer _Parg

  00000	55		 push	 ebp
  00001	8b ec		 mov	 ebp, esp
  00003	8b c1		 mov	 eax, ecx
  00005	8b 4d 08	 mov	 ecx, DWORD PTR __Parg$[ebp]
  00008	89 08		 mov	 DWORD PTR [eax], ecx

; 46   : 		this->_Adopt(_Pvector);
; 47   : 		}

  0000a	5d		 pop	 ebp
  0000b	c2 08 00	 ret	 8
??0?$_Vector_const_iterator@V?$_Vector_val@UCampData@ioCampManager@@V?$allocator@UCampData@ioCampManager@@@std@@@std@@@std@@QAE@PAUCampData@ioCampManager@@PBU_Container_base0@1@@Z ENDP ; std::_Vector_const_iterator<std::_Vector_val<ioCampManager::CampData,std::allocator<ioCampManager::CampData> > >::_Vector_const_iterator<std::_Vector_val<ioCampManager::CampData,std::allocator<ioCampManager::CampData> > >
_TEXT	ENDS
PUBLIC	??0?$_Vector_const_iterator@V?$_Vector_val@UMentData@ioCampManager@@V?$allocator@UMentData@ioCampManager@@@std@@@std@@@std@@QAE@PAUMentData@ioCampManager@@PBU_Container_base0@1@@Z ; std::_Vector_const_iterator<std::_Vector_val<ioCampManager::MentData,std::allocator<ioCampManager::MentData> > >::_Vector_const_iterator<std::_Vector_val<ioCampManager::MentData,std::allocator<ioCampManager::MentData> > >
; Function compile flags: /Ogsp
;	COMDAT ??0?$_Vector_const_iterator@V?$_Vector_val@UMentData@ioCampManager@@V?$allocator@UMentData@ioCampManager@@@std@@@std@@@std@@QAE@PAUMentData@ioCampManager@@PBU_Container_base0@1@@Z
_TEXT	SEGMENT
__Parg$ = 8						; size = 4
__Pvector$ = 12						; size = 4
??0?$_Vector_const_iterator@V?$_Vector_val@UMentData@ioCampManager@@V?$allocator@UMentData@ioCampManager@@@std@@@std@@@std@@QAE@PAUMentData@ioCampManager@@PBU_Container_base0@1@@Z PROC ; std::_Vector_const_iterator<std::_Vector_val<ioCampManager::MentData,std::allocator<ioCampManager::MentData> > >::_Vector_const_iterator<std::_Vector_val<ioCampManager::MentData,std::allocator<ioCampManager::MentData> > >, COMDAT
; _this$ = ecx

; 45   : 		{	// construct with pointer _Parg

  00000	55		 push	 ebp
  00001	8b ec		 mov	 ebp, esp
  00003	8b c1		 mov	 eax, ecx
  00005	8b 4d 08	 mov	 ecx, DWORD PTR __Parg$[ebp]
  00008	89 08		 mov	 DWORD PTR [eax], ecx

; 46   : 		this->_Adopt(_Pvector);
; 47   : 		}

  0000a	5d		 pop	 ebp
  0000b	c2 08 00	 ret	 8
??0?$_Vector_const_iterator@V?$_Vector_val@UMentData@ioCampManager@@V?$allocator@UMentData@ioCampManager@@@std@@@std@@@std@@QAE@PAUMentData@ioCampManager@@PBU_Container_base0@1@@Z ENDP ; std::_Vector_const_iterator<std::_Vector_val<ioCampManager::MentData,std::allocator<ioCampManager::MentData> > >::_Vector_const_iterator<std::_Vector_val<ioCampManager::MentData,std::allocator<ioCampManager::MentData> > >
_TEXT	ENDS
PUBLIC	??0?$_Vector_const_iterator@V?$_Vector_val@UEntryMentList@ioCampManager@@V?$allocator@UEntryMentList@ioCampManager@@@std@@@std@@@std@@QAE@PAUEntryMentList@ioCampManager@@PBU_Container_base0@1@@Z ; std::_Vector_const_iterator<std::_Vector_val<ioCampManager::EntryMentList,std::allocator<ioCampManager::EntryMentList> > >::_Vector_const_iterator<std::_Vector_val<ioCampManager::EntryMentList,std::allocator<ioCampManager::EntryMentList> > >
; Function compile flags: /Ogsp
;	COMDAT ??0?$_Vector_const_iterator@V?$_Vector_val@UEntryMentList@ioCampManager@@V?$allocator@UEntryMentList@ioCampManager@@@std@@@std@@@std@@QAE@PAUEntryMentList@ioCampManager@@PBU_Container_base0@1@@Z
_TEXT	SEGMENT
__Parg$ = 8						; size = 4
__Pvector$ = 12						; size = 4
??0?$_Vector_const_iterator@V?$_Vector_val@UEntryMentList@ioCampManager@@V?$allocator@UEntryMentList@ioCampManager@@@std@@@std@@@std@@QAE@PAUEntryMentList@ioCampManager@@PBU_Container_base0@1@@Z PROC ; std::_Vector_const_iterator<std::_Vector_val<ioCampManager::EntryMentList,std::allocator<ioCampManager::EntryMentList> > >::_Vector_const_iterator<std::_Vector_val<ioCampManager::EntryMentList,std::allocator<ioCampManager::EntryMentList> > >, COMDAT
; _this$ = ecx

; 45   : 		{	// construct with pointer _Parg

  00000	55		 push	 ebp
  00001	8b ec		 mov	 ebp, esp
  00003	8b c1		 mov	 eax, ecx
  00005	8b 4d 08	 mov	 ecx, DWORD PTR __Parg$[ebp]
  00008	89 08		 mov	 DWORD PTR [eax], ecx

; 46   : 		this->_Adopt(_Pvector);
; 47   : 		}

  0000a	5d		 pop	 ebp
  0000b	c2 08 00	 ret	 8
??0?$_Vector_const_iterator@V?$_Vector_val@UEntryMentList@ioCampManager@@V?$allocator@UEntryMentList@ioCampManager@@@std@@@std@@@std@@QAE@PAUEntryMentList@ioCampManager@@PBU_Container_base0@1@@Z ENDP ; std::_Vector_const_iterator<std::_Vector_val<ioCampManager::EntryMentList,std::allocator<ioCampManager::EntryMentList> > >::_Vector_const_iterator<std::_Vector_val<ioCampManager::EntryMentList,std::allocator<ioCampManager::EntryMentList> > >
_TEXT	ENDS
PUBLIC	??0?$_Vector_const_iterator@V?$_Vector_val@UAlarmMent@ioCampManager@@V?$allocator@UAlarmMent@ioCampManager@@@std@@@std@@@std@@QAE@PAUAlarmMent@ioCampManager@@PBU_Container_base0@1@@Z ; std::_Vector_const_iterator<std::_Vector_val<ioCampManager::AlarmMent,std::allocator<ioCampManager::AlarmMent> > >::_Vector_const_iterator<std::_Vector_val<ioCampManager::AlarmMent,std::allocator<ioCampManager::AlarmMent> > >
; Function compile flags: /Ogsp
;	COMDAT ??0?$_Vector_const_iterator@V?$_Vector_val@UAlarmMent@ioCampManager@@V?$allocator@UAlarmMent@ioCampManager@@@std@@@std@@@std@@QAE@PAUAlarmMent@ioCampManager@@PBU_Container_base0@1@@Z
_TEXT	SEGMENT
__Parg$ = 8						; size = 4
__Pvector$ = 12						; size = 4
??0?$_Vector_const_iterator@V?$_Vector_val@UAlarmMent@ioCampManager@@V?$allocator@UAlarmMent@ioCampManager@@@std@@@std@@@std@@QAE@PAUAlarmMent@ioCampManager@@PBU_Container_base0@1@@Z PROC ; std::_Vector_const_iterator<std::_Vector_val<ioCampManager::AlarmMent,std::allocator<ioCampManager::AlarmMent> > >::_Vector_const_iterator<std::_Vector_val<ioCampManager::AlarmMent,std::allocator<ioCampManager::AlarmMent> > >, COMDAT
; _this$ = ecx

; 45   : 		{	// construct with pointer _Parg

  00000	55		 push	 ebp
  00001	8b ec		 mov	 ebp, esp
  00003	8b c1		 mov	 eax, ecx
  00005	8b 4d 08	 mov	 ecx, DWORD PTR __Parg$[ebp]
  00008	89 08		 mov	 DWORD PTR [eax], ecx

; 46   : 		this->_Adopt(_Pvector);
; 47   : 		}

  0000a	5d		 pop	 ebp
  0000b	c2 08 00	 ret	 8
??0?$_Vector_const_iterator@V?$_Vector_val@UAlarmMent@ioCampManager@@V?$allocator@UAlarmMent@ioCampManager@@@std@@@std@@@std@@QAE@PAUAlarmMent@ioCampManager@@PBU_Container_base0@1@@Z ENDP ; std::_Vector_const_iterator<std::_Vector_val<ioCampManager::AlarmMent,std::allocator<ioCampManager::AlarmMent> > >::_Vector_const_iterator<std::_Vector_val<ioCampManager::AlarmMent,std::allocator<ioCampManager::AlarmMent> > >
_TEXT	ENDS
PUBLIC	??0?$_Vector_const_iterator@V?$_Vector_val@UtagHeroRankData@@V?$allocator@UtagHeroRankData@@@std@@@std@@@std@@QAE@PAUtagHeroRankData@@PBU_Container_base0@1@@Z ; std::_Vector_const_iterator<std::_Vector_val<tagHeroRankData,std::allocator<tagHeroRankData> > >::_Vector_const_iterator<std::_Vector_val<tagHeroRankData,std::allocator<tagHeroRankData> > >
; Function compile flags: /Ogsp
;	COMDAT ??0?$_Vector_const_iterator@V?$_Vector_val@UtagHeroRankData@@V?$allocator@UtagHeroRankData@@@std@@@std@@@std@@QAE@PAUtagHeroRankData@@PBU_Container_base0@1@@Z
_TEXT	SEGMENT
__Parg$ = 8						; size = 4
__Pvector$ = 12						; size = 4
??0?$_Vector_const_iterator@V?$_Vector_val@UtagHeroRankData@@V?$allocator@UtagHeroRankData@@@std@@@std@@@std@@QAE@PAUtagHeroRankData@@PBU_Container_base0@1@@Z PROC ; std::_Vector_const_iterator<std::_Vector_val<tagHeroRankData,std::allocator<tagHeroRankData> > >::_Vector_const_iterator<std::_Vector_val<tagHeroRankData,std::allocator<tagHeroRankData> > >, COMDAT
; _this$ = ecx

; 45   : 		{	// construct with pointer _Parg

  00000	55		 push	 ebp
  00001	8b ec		 mov	 ebp, esp
  00003	8b c1		 mov	 eax, ecx
  00005	8b 4d 08	 mov	 ecx, DWORD PTR __Parg$[ebp]
  00008	89 08		 mov	 DWORD PTR [eax], ecx

; 46   : 		this->_Adopt(_Pvector);
; 47   : 		}

  0000a	5d		 pop	 ebp
  0000b	c2 08 00	 ret	 8
??0?$_Vector_const_iterator@V?$_Vector_val@UtagHeroRankData@@V?$allocator@UtagHeroRankData@@@std@@@std@@@std@@QAE@PAUtagHeroRankData@@PBU_Container_base0@1@@Z ENDP ; std::_Vector_const_iterator<std::_Vector_val<tagHeroRankData,std::allocator<tagHeroRankData> > >::_Vector_const_iterator<std::_Vector_val<tagHeroRankData,std::allocator<tagHeroRankData> > >
_TEXT	ENDS
PUBLIC	?_Compat@?$_Vector_const_iterator@V?$_Vector_val@UHeroMatchHistory@ioCampManager@@V?$allocator@UHeroMatchHistory@ioCampManager@@@std@@@std@@@std@@QBEXABV12@@Z ; std::_Vector_const_iterator<std::_Vector_val<ioCampManager::HeroMatchHistory,std::allocator<ioCampManager::HeroMatchHistory> > >::_Compat
; Function compile flags: /Ogsp
;	COMDAT ?_Compat@?$_Vector_const_iterator@V?$_Vector_val@UHeroMatchHistory@ioCampManager@@V?$allocator@UHeroMatchHistory@ioCampManager@@@std@@@std@@@std@@QBEXABV12@@Z
_TEXT	SEGMENT
___formal$ = 8						; size = 4
?_Compat@?$_Vector_const_iterator@V?$_Vector_val@UHeroMatchHistory@ioCampManager@@V?$allocator@UHeroMatchHistory@ioCampManager@@@std@@@std@@@std@@QBEXABV12@@Z PROC ; std::_Vector_const_iterator<std::_Vector_val<ioCampManager::HeroMatchHistory,std::allocator<ioCampManager::HeroMatchHistory> > >::_Compat, COMDAT
; _this$ = ecx

; 253  : 		}

  00000	c2 04 00	 ret	 4
?_Compat@?$_Vector_const_iterator@V?$_Vector_val@UHeroMatchHistory@ioCampManager@@V?$allocator@UHeroMatchHistory@ioCampManager@@@std@@@std@@@std@@QBEXABV12@@Z ENDP ; std::_Vector_const_iterator<std::_Vector_val<ioCampManager::HeroMatchHistory,std::allocator<ioCampManager::HeroMatchHistory> > >::_Compat
_TEXT	ENDS
PUBLIC	?_Compat@?$_Vector_const_iterator@V?$_Vector_val@UCampData@ioCampManager@@V?$allocator@UCampData@ioCampManager@@@std@@@std@@@std@@QBEXABV12@@Z ; std::_Vector_const_iterator<std::_Vector_val<ioCampManager::CampData,std::allocator<ioCampManager::CampData> > >::_Compat
; Function compile flags: /Ogsp
;	COMDAT ?_Compat@?$_Vector_const_iterator@V?$_Vector_val@UCampData@ioCampManager@@V?$allocator@UCampData@ioCampManager@@@std@@@std@@@std@@QBEXABV12@@Z
_TEXT	SEGMENT
___formal$ = 8						; size = 4
?_Compat@?$_Vector_const_iterator@V?$_Vector_val@UCampData@ioCampManager@@V?$allocator@UCampData@ioCampManager@@@std@@@std@@@std@@QBEXABV12@@Z PROC ; std::_Vector_const_iterator<std::_Vector_val<ioCampManager::CampData,std::allocator<ioCampManager::CampData> > >::_Compat, COMDAT
; _this$ = ecx

; 253  : 		}

  00000	c2 04 00	 ret	 4
?_Compat@?$_Vector_const_iterator@V?$_Vector_val@UCampData@ioCampManager@@V?$allocator@UCampData@ioCampManager@@@std@@@std@@@std@@QBEXABV12@@Z ENDP ; std::_Vector_const_iterator<std::_Vector_val<ioCampManager::CampData,std::allocator<ioCampManager::CampData> > >::_Compat
_TEXT	ENDS
PUBLIC	?_Compat@?$_Vector_const_iterator@V?$_Vector_val@UMentData@ioCampManager@@V?$allocator@UMentData@ioCampManager@@@std@@@std@@@std@@QBEXABV12@@Z ; std::_Vector_const_iterator<std::_Vector_val<ioCampManager::MentData,std::allocator<ioCampManager::MentData> > >::_Compat
; Function compile flags: /Ogsp
;	COMDAT ?_Compat@?$_Vector_const_iterator@V?$_Vector_val@UMentData@ioCampManager@@V?$allocator@UMentData@ioCampManager@@@std@@@std@@@std@@QBEXABV12@@Z
_TEXT	SEGMENT
___formal$ = 8						; size = 4
?_Compat@?$_Vector_const_iterator@V?$_Vector_val@UMentData@ioCampManager@@V?$allocator@UMentData@ioCampManager@@@std@@@std@@@std@@QBEXABV12@@Z PROC ; std::_Vector_const_iterator<std::_Vector_val<ioCampManager::MentData,std::allocator<ioCampManager::MentData> > >::_Compat, COMDAT
; _this$ = ecx

; 253  : 		}

  00000	c2 04 00	 ret	 4
?_Compat@?$_Vector_const_iterator@V?$_Vector_val@UMentData@ioCampManager@@V?$allocator@UMentData@ioCampManager@@@std@@@std@@@std@@QBEXABV12@@Z ENDP ; std::_Vector_const_iterator<std::_Vector_val<ioCampManager::MentData,std::allocator<ioCampManager::MentData> > >::_Compat
_TEXT	ENDS
PUBLIC	?_Compat@?$_Vector_const_iterator@V?$_Vector_val@UEntryMentList@ioCampManager@@V?$allocator@UEntryMentList@ioCampManager@@@std@@@std@@@std@@QBEXABV12@@Z ; std::_Vector_const_iterator<std::_Vector_val<ioCampManager::EntryMentList,std::allocator<ioCampManager::EntryMentList> > >::_Compat
; Function compile flags: /Ogsp
;	COMDAT ?_Compat@?$_Vector_const_iterator@V?$_Vector_val@UEntryMentList@ioCampManager@@V?$allocator@UEntryMentList@ioCampManager@@@std@@@std@@@std@@QBEXABV12@@Z
_TEXT	SEGMENT
___formal$ = 8						; size = 4
?_Compat@?$_Vector_const_iterator@V?$_Vector_val@UEntryMentList@ioCampManager@@V?$allocator@UEntryMentList@ioCampManager@@@std@@@std@@@std@@QBEXABV12@@Z PROC ; std::_Vector_const_iterator<std::_Vector_val<ioCampManager::EntryMentList,std::allocator<ioCampManager::EntryMentList> > >::_Compat, COMDAT
; _this$ = ecx

; 253  : 		}

  00000	c2 04 00	 ret	 4
?_Compat@?$_Vector_const_iterator@V?$_Vector_val@UEntryMentList@ioCampManager@@V?$allocator@UEntryMentList@ioCampManager@@@std@@@std@@@std@@QBEXABV12@@Z ENDP ; std::_Vector_const_iterator<std::_Vector_val<ioCampManager::EntryMentList,std::allocator<ioCampManager::EntryMentList> > >::_Compat
_TEXT	ENDS
PUBLIC	?_Compat@?$_Vector_const_iterator@V?$_Vector_val@UAlarmMent@ioCampManager@@V?$allocator@UAlarmMent@ioCampManager@@@std@@@std@@@std@@QBEXABV12@@Z ; std::_Vector_const_iterator<std::_Vector_val<ioCampManager::AlarmMent,std::allocator<ioCampManager::AlarmMent> > >::_Compat
; Function compile flags: /Ogsp
;	COMDAT ?_Compat@?$_Vector_const_iterator@V?$_Vector_val@UAlarmMent@ioCampManager@@V?$allocator@UAlarmMent@ioCampManager@@@std@@@std@@@std@@QBEXABV12@@Z
_TEXT	SEGMENT
___formal$ = 8						; size = 4
?_Compat@?$_Vector_const_iterator@V?$_Vector_val@UAlarmMent@ioCampManager@@V?$allocator@UAlarmMent@ioCampManager@@@std@@@std@@@std@@QBEXABV12@@Z PROC ; std::_Vector_const_iterator<std::_Vector_val<ioCampManager::AlarmMent,std::allocator<ioCampManager::AlarmMent> > >::_Compat, COMDAT
; _this$ = ecx

; 253  : 		}

  00000	c2 04 00	 ret	 4
?_Compat@?$_Vector_const_iterator@V?$_Vector_val@UAlarmMent@ioCampManager@@V?$allocator@UAlarmMent@ioCampManager@@@std@@@std@@@std@@QBEXABV12@@Z ENDP ; std::_Vector_const_iterator<std::_Vector_val<ioCampManager::AlarmMent,std::allocator<ioCampManager::AlarmMent> > >::_Compat
_TEXT	ENDS
PUBLIC	?_Compat@?$_Vector_const_iterator@V?$_Vector_val@UtagHeroRankData@@V?$allocator@UtagHeroRankData@@@std@@@std@@@std@@QBEXABV12@@Z ; std::_Vector_const_iterator<std::_Vector_val<tagHeroRankData,std::allocator<tagHeroRankData> > >::_Compat
; Function compile flags: /Ogsp
;	COMDAT ?_Compat@?$_Vector_const_iterator@V?$_Vector_val@UtagHeroRankData@@V?$allocator@UtagHeroRankData@@@std@@@std@@@std@@QBEXABV12@@Z
_TEXT	SEGMENT
___formal$ = 8						; size = 4
?_Compat@?$_Vector_const_iterator@V?$_Vector_val@UtagHeroRankData@@V?$allocator@UtagHeroRankData@@@std@@@std@@@std@@QBEXABV12@@Z PROC ; std::_Vector_const_iterator<std::_Vector_val<tagHeroRankData,std::allocator<tagHeroRankData> > >::_Compat, COMDAT
; _this$ = ecx

; 253  : 		}

  00000	c2 04 00	 ret	 4
?_Compat@?$_Vector_const_iterator@V?$_Vector_val@UtagHeroRankData@@V?$allocator@UtagHeroRankData@@@std@@@std@@@std@@QBEXABV12@@Z ENDP ; std::_Vector_const_iterator<std::_Vector_val<tagHeroRankData,std::allocator<tagHeroRankData> > >::_Compat
_TEXT	ENDS
PUBLIC	??$addressof@$$CBUCampData@ioCampManager@@@std@@YAPBUCampData@ioCampManager@@ABU12@@Z ; std::addressof<ioCampManager::CampData const >
; Function compile flags: /Ogsp
; File c:\program files (x86)\microsoft visual studio 10.0\vc\include\xmemory
;	COMDAT ??$addressof@$$CBUCampData@ioCampManager@@@std@@YAPBUCampData@ioCampManager@@ABU12@@Z
_TEXT	SEGMENT
__Val$ = 8						; size = 4
??$addressof@$$CBUCampData@ioCampManager@@@std@@YAPBUCampData@ioCampManager@@ABU12@@Z PROC ; std::addressof<ioCampManager::CampData const >, COMDAT

; 110  : 	{	// return address of _Val

  00000	55		 push	 ebp
  00001	8b ec		 mov	 ebp, esp

; 111  : 	return ((_Ty *) &(char&)_Val);

  00003	8b 45 08	 mov	 eax, DWORD PTR __Val$[ebp]

; 112  : 	}

  00006	5d		 pop	 ebp
  00007	c3		 ret	 0
??$addressof@$$CBUCampData@ioCampManager@@@std@@YAPBUCampData@ioCampManager@@ABU12@@Z ENDP ; std::addressof<ioCampManager::CampData const >
_TEXT	ENDS
PUBLIC	??$addressof@$$CBUMentData@ioCampManager@@@std@@YAPBUMentData@ioCampManager@@ABU12@@Z ; std::addressof<ioCampManager::MentData const >
; Function compile flags: /Ogsp
;	COMDAT ??$addressof@$$CBUMentData@ioCampManager@@@std@@YAPBUMentData@ioCampManager@@ABU12@@Z
_TEXT	SEGMENT
__Val$ = 8						; size = 4
??$addressof@$$CBUMentData@ioCampManager@@@std@@YAPBUMentData@ioCampManager@@ABU12@@Z PROC ; std::addressof<ioCampManager::MentData const >, COMDAT

; 110  : 	{	// return address of _Val

  00000	55		 push	 ebp
  00001	8b ec		 mov	 ebp, esp

; 111  : 	return ((_Ty *) &(char&)_Val);

  00003	8b 45 08	 mov	 eax, DWORD PTR __Val$[ebp]

; 112  : 	}

  00006	5d		 pop	 ebp
  00007	c3		 ret	 0
??$addressof@$$CBUMentData@ioCampManager@@@std@@YAPBUMentData@ioCampManager@@ABU12@@Z ENDP ; std::addressof<ioCampManager::MentData const >
_TEXT	ENDS
PUBLIC	??$addressof@$$CBUEntryMentList@ioCampManager@@@std@@YAPBUEntryMentList@ioCampManager@@ABU12@@Z ; std::addressof<ioCampManager::EntryMentList const >
; Function compile flags: /Ogsp
;	COMDAT ??$addressof@$$CBUEntryMentList@ioCampManager@@@std@@YAPBUEntryMentList@ioCampManager@@ABU12@@Z
_TEXT	SEGMENT
__Val$ = 8						; size = 4
??$addressof@$$CBUEntryMentList@ioCampManager@@@std@@YAPBUEntryMentList@ioCampManager@@ABU12@@Z PROC ; std::addressof<ioCampManager::EntryMentList const >, COMDAT

; 110  : 	{	// return address of _Val

  00000	55		 push	 ebp
  00001	8b ec		 mov	 ebp, esp

; 111  : 	return ((_Ty *) &(char&)_Val);

  00003	8b 45 08	 mov	 eax, DWORD PTR __Val$[ebp]

; 112  : 	}

  00006	5d		 pop	 ebp
  00007	c3		 ret	 0
??$addressof@$$CBUEntryMentList@ioCampManager@@@std@@YAPBUEntryMentList@ioCampManager@@ABU12@@Z ENDP ; std::addressof<ioCampManager::EntryMentList const >
_TEXT	ENDS
PUBLIC	??$addressof@$$CBUAlarmMent@ioCampManager@@@std@@YAPBUAlarmMent@ioCampManager@@ABU12@@Z ; std::addressof<ioCampManager::AlarmMent const >
; Function compile flags: /Ogsp
;	COMDAT ??$addressof@$$CBUAlarmMent@ioCampManager@@@std@@YAPBUAlarmMent@ioCampManager@@ABU12@@Z
_TEXT	SEGMENT
__Val$ = 8						; size = 4
??$addressof@$$CBUAlarmMent@ioCampManager@@@std@@YAPBUAlarmMent@ioCampManager@@ABU12@@Z PROC ; std::addressof<ioCampManager::AlarmMent const >, COMDAT

; 110  : 	{	// return address of _Val

  00000	55		 push	 ebp
  00001	8b ec		 mov	 ebp, esp

; 111  : 	return ((_Ty *) &(char&)_Val);

  00003	8b 45 08	 mov	 eax, DWORD PTR __Val$[ebp]

; 112  : 	}

  00006	5d		 pop	 ebp
  00007	c3		 ret	 0
??$addressof@$$CBUAlarmMent@ioCampManager@@@std@@YAPBUAlarmMent@ioCampManager@@ABU12@@Z ENDP ; std::addressof<ioCampManager::AlarmMent const >
_TEXT	ENDS
PUBLIC	??$addressof@$$CBUtagHeroRankData@@@std@@YAPBUtagHeroRankData@@ABU1@@Z ; std::addressof<tagHeroRankData const >
; Function compile flags: /Ogsp
;	COMDAT ??$addressof@$$CBUtagHeroRankData@@@std@@YAPBUtagHeroRankData@@ABU1@@Z
_TEXT	SEGMENT
__Val$ = 8						; size = 4
??$addressof@$$CBUtagHeroRankData@@@std@@YAPBUtagHeroRankData@@ABU1@@Z PROC ; std::addressof<tagHeroRankData const >, COMDAT

; 110  : 	{	// return address of _Val

  00000	55		 push	 ebp
  00001	8b ec		 mov	 ebp, esp

; 111  : 	return ((_Ty *) &(char&)_Val);

  00003	8b 45 08	 mov	 eax, DWORD PTR __Val$[ebp]

; 112  : 	}

  00006	5d		 pop	 ebp
  00007	c3		 ret	 0
??$addressof@$$CBUtagHeroRankData@@@std@@YAPBUtagHeroRankData@@ABU1@@Z ENDP ; std::addressof<tagHeroRankData const >
_TEXT	ENDS
PUBLIC	__TI2?AVbad_alloc@std@@
PUBLIC	??$_Allocate@UCampData@ioCampManager@@@std@@YAPAUCampData@ioCampManager@@IPAU12@@Z ; std::_Allocate<ioCampManager::CampData>
PUBLIC	__CTA2?AVbad_alloc@std@@
PUBLIC	__CT??_R0?AVbad_alloc@std@@@8??0bad_alloc@std@@QAE@ABV01@@Z12
PUBLIC	??0bad_alloc@std@@QAE@ABV01@@Z			; std::bad_alloc::bad_alloc
PUBLIC	__CT??_R0?AVexception@std@@@8??0exception@std@@QAE@ABV01@@Z12
EXTRN	??2@YAPAXI@Z:PROC				; operator new
EXTRN	__CxxThrowException@8:PROC
EXTRN	??0exception@std@@QAE@ABV01@@Z:PROC		; std::exception::exception
;	COMDAT __CT??_R0?AVexception@std@@@8??0exception@std@@QAE@ABV01@@Z12
; File c:\program files (x86)\microsoft visual studio 10.0\vc\include\exception
xdata$x	SEGMENT
__CT??_R0?AVexception@std@@@8??0exception@std@@QAE@ABV01@@Z12 DD 00H
	DD	FLAT:??_R0?AVexception@std@@@8
	DD	00H
	DD	0ffffffffH
	ORG $+4
	DD	0cH
	DD	FLAT:??0exception@std@@QAE@ABV01@@Z
xdata$x	ENDS
;	COMDAT __CT??_R0?AVbad_alloc@std@@@8??0bad_alloc@std@@QAE@ABV01@@Z12
xdata$x	SEGMENT
__CT??_R0?AVbad_alloc@std@@@8??0bad_alloc@std@@QAE@ABV01@@Z12 DD 00H
	DD	FLAT:??_R0?AVbad_alloc@std@@@8
	DD	00H
	DD	0ffffffffH
	ORG $+4
	DD	0cH
	DD	FLAT:??0bad_alloc@std@@QAE@ABV01@@Z
xdata$x	ENDS
;	COMDAT __CTA2?AVbad_alloc@std@@
xdata$x	SEGMENT
__CTA2?AVbad_alloc@std@@ DD 02H
	DD	FLAT:__CT??_R0?AVbad_alloc@std@@@8??0bad_alloc@std@@QAE@ABV01@@Z12
	DD	FLAT:__CT??_R0?AVexception@std@@@8??0exception@std@@QAE@ABV01@@Z12
xdata$x	ENDS
;	COMDAT __TI2?AVbad_alloc@std@@
xdata$x	SEGMENT
__TI2?AVbad_alloc@std@@ DD 00H
	DD	FLAT:??1bad_alloc@std@@UAE@XZ
	DD	00H
	DD	FLAT:__CTA2?AVbad_alloc@std@@
; Function compile flags: /Ogsp
; File c:\program files (x86)\microsoft visual studio 10.0\vc\include\xmemory
xdata$x	ENDS
;	COMDAT ??$_Allocate@UCampData@ioCampManager@@@std@@YAPAUCampData@ioCampManager@@IPAU12@@Z
_TEXT	SEGMENT
$T524285 = -12						; size = 12
$T524290 = 8						; size = 4
__Count$ = 8						; size = 4
___formal$ = 12						; size = 4
??$_Allocate@UCampData@ioCampManager@@@std@@YAPAUCampData@ioCampManager@@IPAU12@@Z PROC ; std::_Allocate<ioCampManager::CampData>, COMDAT

; 30   : 	{	// allocate storage for _Count elements of type _Ty

  00000	55		 push	 ebp
  00001	8b ec		 mov	 ebp, esp

; 31   : 	void *_Ptr = 0;
; 32   : 
; 33   : 	if (_Count <= 0)

  00003	8b 4d 08	 mov	 ecx, DWORD PTR __Count$[ebp]
  00006	83 ec 0c	 sub	 esp, 12			; 0000000cH
  00009	33 c0		 xor	 eax, eax
  0000b	85 c9		 test	 ecx, ecx

; 34   : 		_Count = 0;
; 35   : 	else if (((_SIZT)(-1) / sizeof (_Ty) < _Count)

  0000d	74 3c		 je	 SHORT $LN5@Allocate

; 36   : 		|| (_Ptr = ::operator new(_Count * sizeof (_Ty))) == 0)

  0000f	81 f9 aa aa aa
	0a		 cmp	 ecx, 178956970		; 0aaaaaaaH
  00015	77 0e		 ja	 SHORT $LN1@Allocate
  00017	6b c9 18	 imul	 ecx, 24			; 00000018H
  0001a	51		 push	 ecx
  0001b	e8 00 00 00 00	 call	 ??2@YAPAXI@Z		; operator new
  00020	59		 pop	 ecx
  00021	85 c0		 test	 eax, eax

; 38   : 
; 39   : 	return ((_Ty _FARQ *)_Ptr);

  00023	75 26		 jne	 SHORT $LN5@Allocate
$LN1@Allocate:

; 37   : 		_THROW_NCEE(bad_alloc, 0);

  00025	83 65 08 00	 and	 DWORD PTR $T524290[ebp], 0
  00029	8d 45 08	 lea	 eax, DWORD PTR $T524290[ebp]
  0002c	50		 push	 eax
  0002d	8d 4d f4	 lea	 ecx, DWORD PTR $T524285[ebp]
  00030	ff 15 00 00 00
	00		 call	 DWORD PTR __imp_??0exception@std@@QAE@ABQBD@Z
  00036	68 00 00 00 00	 push	 OFFSET __TI2?AVbad_alloc@std@@
  0003b	8d 45 f4	 lea	 eax, DWORD PTR $T524285[ebp]
  0003e	50		 push	 eax
  0003f	c7 45 f4 00 00
	00 00		 mov	 DWORD PTR $T524285[ebp], OFFSET ??_7bad_alloc@std@@6B@
  00046	e8 00 00 00 00	 call	 __CxxThrowException@8
$LN10@Allocate:
$LN5@Allocate:

; 40   : 	}

  0004b	c9		 leave
  0004c	c3		 ret	 0
$LN9@Allocate:
??$_Allocate@UCampData@ioCampManager@@@std@@YAPAUCampData@ioCampManager@@IPAU12@@Z ENDP ; std::_Allocate<ioCampManager::CampData>
_TEXT	ENDS
PUBLIC	??$_Allocate@UMentData@ioCampManager@@@std@@YAPAUMentData@ioCampManager@@IPAU12@@Z ; std::_Allocate<ioCampManager::MentData>
; Function compile flags: /Ogsp
;	COMDAT ??$_Allocate@UMentData@ioCampManager@@@std@@YAPAUMentData@ioCampManager@@IPAU12@@Z
_TEXT	SEGMENT
$T524295 = -12						; size = 12
$T524299 = 8						; size = 4
__Count$ = 8						; size = 4
___formal$ = 12						; size = 4
??$_Allocate@UMentData@ioCampManager@@@std@@YAPAUMentData@ioCampManager@@IPAU12@@Z PROC ; std::_Allocate<ioCampManager::MentData>, COMDAT

; 30   : 	{	// allocate storage for _Count elements of type _Ty

  00000	55		 push	 ebp
  00001	8b ec		 mov	 ebp, esp

; 31   : 	void *_Ptr = 0;
; 32   : 
; 33   : 	if (_Count <= 0)

  00003	8b 4d 08	 mov	 ecx, DWORD PTR __Count$[ebp]
  00006	83 ec 0c	 sub	 esp, 12			; 0000000cH
  00009	33 c0		 xor	 eax, eax
  0000b	85 c9		 test	 ecx, ecx

; 34   : 		_Count = 0;
; 35   : 	else if (((_SIZT)(-1) / sizeof (_Ty) < _Count)

  0000d	74 3f		 je	 SHORT $LN5@Allocate@2

; 36   : 		|| (_Ptr = ::operator new(_Count * sizeof (_Ty))) == 0)

  0000f	81 f9 0f 3e f8
	00		 cmp	 ecx, 16268815		; 00f83e0fH
  00015	77 11		 ja	 SHORT $LN1@Allocate@2
  00017	69 c9 08 01 00
	00		 imul	 ecx, 264		; 00000108H
  0001d	51		 push	 ecx
  0001e	e8 00 00 00 00	 call	 ??2@YAPAXI@Z		; operator new
  00023	59		 pop	 ecx
  00024	85 c0		 test	 eax, eax

; 38   : 
; 39   : 	return ((_Ty _FARQ *)_Ptr);

  00026	75 26		 jne	 SHORT $LN5@Allocate@2
$LN1@Allocate@2:

; 37   : 		_THROW_NCEE(bad_alloc, 0);

  00028	83 65 08 00	 and	 DWORD PTR $T524299[ebp], 0
  0002c	8d 45 08	 lea	 eax, DWORD PTR $T524299[ebp]
  0002f	50		 push	 eax
  00030	8d 4d f4	 lea	 ecx, DWORD PTR $T524295[ebp]
  00033	ff 15 00 00 00
	00		 call	 DWORD PTR __imp_??0exception@std@@QAE@ABQBD@Z
  00039	68 00 00 00 00	 push	 OFFSET __TI2?AVbad_alloc@std@@
  0003e	8d 45 f4	 lea	 eax, DWORD PTR $T524295[ebp]
  00041	50		 push	 eax
  00042	c7 45 f4 00 00
	00 00		 mov	 DWORD PTR $T524295[ebp], OFFSET ??_7bad_alloc@std@@6B@
  00049	e8 00 00 00 00	 call	 __CxxThrowException@8
$LN10@Allocate@2:
$LN5@Allocate@2:

; 40   : 	}

  0004e	c9		 leave
  0004f	c3		 ret	 0
$LN9@Allocate@2:
??$_Allocate@UMentData@ioCampManager@@@std@@YAPAUMentData@ioCampManager@@IPAU12@@Z ENDP ; std::_Allocate<ioCampManager::MentData>
_TEXT	ENDS
PUBLIC	??$_Allocate@UEntryMentList@ioCampManager@@@std@@YAPAUEntryMentList@ioCampManager@@IPAU12@@Z ; std::_Allocate<ioCampManager::EntryMentList>
; Function compile flags: /Ogsp
;	COMDAT ??$_Allocate@UEntryMentList@ioCampManager@@@std@@YAPAUEntryMentList@ioCampManager@@IPAU12@@Z
_TEXT	SEGMENT
$T524304 = -12						; size = 12
$T524308 = 8						; size = 4
__Count$ = 8						; size = 4
___formal$ = 12						; size = 4
??$_Allocate@UEntryMentList@ioCampManager@@@std@@YAPAUEntryMentList@ioCampManager@@IPAU12@@Z PROC ; std::_Allocate<ioCampManager::EntryMentList>, COMDAT

; 30   : 	{	// allocate storage for _Count elements of type _Ty

  00000	55		 push	 ebp
  00001	8b ec		 mov	 ebp, esp

; 31   : 	void *_Ptr = 0;
; 32   : 
; 33   : 	if (_Count <= 0)

  00003	8b 4d 08	 mov	 ecx, DWORD PTR __Count$[ebp]
  00006	83 ec 0c	 sub	 esp, 12			; 0000000cH
  00009	33 c0		 xor	 eax, eax
  0000b	85 c9		 test	 ecx, ecx

; 34   : 		_Count = 0;
; 35   : 	else if (((_SIZT)(-1) / sizeof (_Ty) < _Count)

  0000d	74 3c		 je	 SHORT $LN5@Allocate@3

; 36   : 		|| (_Ptr = ::operator new(_Count * sizeof (_Ty))) == 0)

  0000f	81 f9 aa aa aa
	0a		 cmp	 ecx, 178956970		; 0aaaaaaaH
  00015	77 0e		 ja	 SHORT $LN1@Allocate@3
  00017	6b c9 18	 imul	 ecx, 24			; 00000018H
  0001a	51		 push	 ecx
  0001b	e8 00 00 00 00	 call	 ??2@YAPAXI@Z		; operator new
  00020	59		 pop	 ecx
  00021	85 c0		 test	 eax, eax

; 38   : 
; 39   : 	return ((_Ty _FARQ *)_Ptr);

  00023	75 26		 jne	 SHORT $LN5@Allocate@3
$LN1@Allocate@3:

; 37   : 		_THROW_NCEE(bad_alloc, 0);

  00025	83 65 08 00	 and	 DWORD PTR $T524308[ebp], 0
  00029	8d 45 08	 lea	 eax, DWORD PTR $T524308[ebp]
  0002c	50		 push	 eax
  0002d	8d 4d f4	 lea	 ecx, DWORD PTR $T524304[ebp]
  00030	ff 15 00 00 00
	00		 call	 DWORD PTR __imp_??0exception@std@@QAE@ABQBD@Z
  00036	68 00 00 00 00	 push	 OFFSET __TI2?AVbad_alloc@std@@
  0003b	8d 45 f4	 lea	 eax, DWORD PTR $T524304[ebp]
  0003e	50		 push	 eax
  0003f	c7 45 f4 00 00
	00 00		 mov	 DWORD PTR $T524304[ebp], OFFSET ??_7bad_alloc@std@@6B@
  00046	e8 00 00 00 00	 call	 __CxxThrowException@8
$LN10@Allocate@3:
$LN5@Allocate@3:

; 40   : 	}

  0004b	c9		 leave
  0004c	c3		 ret	 0
$LN9@Allocate@3:
??$_Allocate@UEntryMentList@ioCampManager@@@std@@YAPAUEntryMentList@ioCampManager@@IPAU12@@Z ENDP ; std::_Allocate<ioCampManager::EntryMentList>
_TEXT	ENDS
PUBLIC	??$_Allocate@UAlarmMent@ioCampManager@@@std@@YAPAUAlarmMent@ioCampManager@@IPAU12@@Z ; std::_Allocate<ioCampManager::AlarmMent>
; Function compile flags: /Ogsp
;	COMDAT ??$_Allocate@UAlarmMent@ioCampManager@@@std@@YAPAUAlarmMent@ioCampManager@@IPAU12@@Z
_TEXT	SEGMENT
$T524313 = -12						; size = 12
$T524317 = 8						; size = 4
__Count$ = 8						; size = 4
___formal$ = 12						; size = 4
??$_Allocate@UAlarmMent@ioCampManager@@@std@@YAPAUAlarmMent@ioCampManager@@IPAU12@@Z PROC ; std::_Allocate<ioCampManager::AlarmMent>, COMDAT

; 30   : 	{	// allocate storage for _Count elements of type _Ty

  00000	55		 push	 ebp
  00001	8b ec		 mov	 ebp, esp

; 31   : 	void *_Ptr = 0;
; 32   : 
; 33   : 	if (_Count <= 0)

  00003	8b 4d 08	 mov	 ecx, DWORD PTR __Count$[ebp]
  00006	83 ec 0c	 sub	 esp, 12			; 0000000cH
  00009	33 c0		 xor	 eax, eax
  0000b	85 c9		 test	 ecx, ecx

; 34   : 		_Count = 0;
; 35   : 	else if (((_SIZT)(-1) / sizeof (_Ty) < _Count)

  0000d	74 3c		 je	 SHORT $LN5@Allocate@4

; 36   : 		|| (_Ptr = ::operator new(_Count * sizeof (_Ty))) == 0)

  0000f	81 f9 cc cc cc
	0c		 cmp	 ecx, 214748364		; 0cccccccH
  00015	77 0e		 ja	 SHORT $LN1@Allocate@4
  00017	6b c9 14	 imul	 ecx, 20			; 00000014H
  0001a	51		 push	 ecx
  0001b	e8 00 00 00 00	 call	 ??2@YAPAXI@Z		; operator new
  00020	59		 pop	 ecx
  00021	85 c0		 test	 eax, eax

; 38   : 
; 39   : 	return ((_Ty _FARQ *)_Ptr);

  00023	75 26		 jne	 SHORT $LN5@Allocate@4
$LN1@Allocate@4:

; 37   : 		_THROW_NCEE(bad_alloc, 0);

  00025	83 65 08 00	 and	 DWORD PTR $T524317[ebp], 0
  00029	8d 45 08	 lea	 eax, DWORD PTR $T524317[ebp]
  0002c	50		 push	 eax
  0002d	8d 4d f4	 lea	 ecx, DWORD PTR $T524313[ebp]
  00030	ff 15 00 00 00
	00		 call	 DWORD PTR __imp_??0exception@std@@QAE@ABQBD@Z
  00036	68 00 00 00 00	 push	 OFFSET __TI2?AVbad_alloc@std@@
  0003b	8d 45 f4	 lea	 eax, DWORD PTR $T524313[ebp]
  0003e	50		 push	 eax
  0003f	c7 45 f4 00 00
	00 00		 mov	 DWORD PTR $T524313[ebp], OFFSET ??_7bad_alloc@std@@6B@
  00046	e8 00 00 00 00	 call	 __CxxThrowException@8
$LN10@Allocate@4:
$LN5@Allocate@4:

; 40   : 	}

  0004b	c9		 leave
  0004c	c3		 ret	 0
$LN9@Allocate@4:
??$_Allocate@UAlarmMent@ioCampManager@@@std@@YAPAUAlarmMent@ioCampManager@@IPAU12@@Z ENDP ; std::_Allocate<ioCampManager::AlarmMent>
_TEXT	ENDS
PUBLIC	??$_Allocate@UtagHeroRankData@@@std@@YAPAUtagHeroRankData@@IPAU1@@Z ; std::_Allocate<tagHeroRankData>
; Function compile flags: /Ogsp
;	COMDAT ??$_Allocate@UtagHeroRankData@@@std@@YAPAUtagHeroRankData@@IPAU1@@Z
_TEXT	SEGMENT
$T524322 = -12						; size = 12
$T524326 = 8						; size = 4
__Count$ = 8						; size = 4
___formal$ = 12						; size = 4
??$_Allocate@UtagHeroRankData@@@std@@YAPAUtagHeroRankData@@IPAU1@@Z PROC ; std::_Allocate<tagHeroRankData>, COMDAT

; 30   : 	{	// allocate storage for _Count elements of type _Ty

  00000	55		 push	 ebp
  00001	8b ec		 mov	 ebp, esp

; 31   : 	void *_Ptr = 0;
; 32   : 
; 33   : 	if (_Count <= 0)

  00003	8b 4d 08	 mov	 ecx, DWORD PTR __Count$[ebp]
  00006	83 ec 0c	 sub	 esp, 12			; 0000000cH
  00009	33 c0		 xor	 eax, eax
  0000b	85 c9		 test	 ecx, ecx

; 34   : 		_Count = 0;
; 35   : 	else if (((_SIZT)(-1) / sizeof (_Ty) < _Count)

  0000d	74 3c		 je	 SHORT $LN5@Allocate@5

; 36   : 		|| (_Ptr = ::operator new(_Count * sizeof (_Ty))) == 0)

  0000f	81 f9 5d 74 d1
	05		 cmp	 ecx, 97612893		; 05d1745dH
  00015	77 0e		 ja	 SHORT $LN1@Allocate@5
  00017	6b c9 2c	 imul	 ecx, 44			; 0000002cH
  0001a	51		 push	 ecx
  0001b	e8 00 00 00 00	 call	 ??2@YAPAXI@Z		; operator new
  00020	59		 pop	 ecx
  00021	85 c0		 test	 eax, eax

; 38   : 
; 39   : 	return ((_Ty _FARQ *)_Ptr);

  00023	75 26		 jne	 SHORT $LN5@Allocate@5
$LN1@Allocate@5:

; 37   : 		_THROW_NCEE(bad_alloc, 0);

  00025	83 65 08 00	 and	 DWORD PTR $T524326[ebp], 0
  00029	8d 45 08	 lea	 eax, DWORD PTR $T524326[ebp]
  0002c	50		 push	 eax
  0002d	8d 4d f4	 lea	 ecx, DWORD PTR $T524322[ebp]
  00030	ff 15 00 00 00
	00		 call	 DWORD PTR __imp_??0exception@std@@QAE@ABQBD@Z
  00036	68 00 00 00 00	 push	 OFFSET __TI2?AVbad_alloc@std@@
  0003b	8d 45 f4	 lea	 eax, DWORD PTR $T524322[ebp]
  0003e	50		 push	 eax
  0003f	c7 45 f4 00 00
	00 00		 mov	 DWORD PTR $T524322[ebp], OFFSET ??_7bad_alloc@std@@6B@
  00046	e8 00 00 00 00	 call	 __CxxThrowException@8
$LN10@Allocate@5:
$LN5@Allocate@5:

; 40   : 	}

  0004b	c9		 leave
  0004c	c3		 ret	 0
$LN9@Allocate@5:
??$_Allocate@UtagHeroRankData@@@std@@YAPAUtagHeroRankData@@IPAU1@@Z ENDP ; std::_Allocate<tagHeroRankData>
_TEXT	ENDS
PUBLIC	??$forward@AAUHeroMatchHistory@ioCampManager@@@std@@YAAAUHeroMatchHistory@ioCampManager@@AAU12@@Z ; std::forward<ioCampManager::HeroMatchHistory &>
; Function compile flags: /Ogsp
; File c:\program files (x86)\microsoft visual studio 10.0\vc\include\utility
;	COMDAT ??$forward@AAUHeroMatchHistory@ioCampManager@@@std@@YAAAUHeroMatchHistory@ioCampManager@@AAU12@@Z
_TEXT	SEGMENT
__Arg$ = 8						; size = 4
??$forward@AAUHeroMatchHistory@ioCampManager@@@std@@YAAAUHeroMatchHistory@ioCampManager@@AAU12@@Z PROC ; std::forward<ioCampManager::HeroMatchHistory &>, COMDAT

; 78   : 	{	// forward _Arg, given explicitly specified type parameter

  00000	55		 push	 ebp
  00001	8b ec		 mov	 ebp, esp

; 79   : 	return ((_Ty&&)_Arg);

  00003	8b 45 08	 mov	 eax, DWORD PTR __Arg$[ebp]

; 80   : 	}

  00006	5d		 pop	 ebp
  00007	c3		 ret	 0
??$forward@AAUHeroMatchHistory@ioCampManager@@@std@@YAAAUHeroMatchHistory@ioCampManager@@AAU12@@Z ENDP ; std::forward<ioCampManager::HeroMatchHistory &>
_TEXT	ENDS
PUBLIC	??$forward@AAUCampData@ioCampManager@@@std@@YAAAUCampData@ioCampManager@@AAU12@@Z ; std::forward<ioCampManager::CampData &>
; Function compile flags: /Ogsp
;	COMDAT ??$forward@AAUCampData@ioCampManager@@@std@@YAAAUCampData@ioCampManager@@AAU12@@Z
_TEXT	SEGMENT
__Arg$ = 8						; size = 4
??$forward@AAUCampData@ioCampManager@@@std@@YAAAUCampData@ioCampManager@@AAU12@@Z PROC ; std::forward<ioCampManager::CampData &>, COMDAT

; 78   : 	{	// forward _Arg, given explicitly specified type parameter

  00000	55		 push	 ebp
  00001	8b ec		 mov	 ebp, esp

; 79   : 	return ((_Ty&&)_Arg);

  00003	8b 45 08	 mov	 eax, DWORD PTR __Arg$[ebp]

; 80   : 	}

  00006	5d		 pop	 ebp
  00007	c3		 ret	 0
??$forward@AAUCampData@ioCampManager@@@std@@YAAAUCampData@ioCampManager@@AAU12@@Z ENDP ; std::forward<ioCampManager::CampData &>
_TEXT	ENDS
PUBLIC	??$construct@AAUCampData@ioCampManager@@@?$allocator@UCampData@ioCampManager@@@std@@QAEXPAUCampData@ioCampManager@@AAU23@@Z ; std::allocator<ioCampManager::CampData>::construct<ioCampManager::CampData &>
; Function compile flags: /Ogsp
; File c:\program files (x86)\microsoft visual studio 10.0\vc\include\xmemory
;	COMDAT ??$construct@AAUCampData@ioCampManager@@@?$allocator@UCampData@ioCampManager@@@std@@QAEXPAUCampData@ioCampManager@@AAU23@@Z
_TEXT	SEGMENT
__Ptr$ = 8						; size = 4
__Val$ = 12						; size = 4
??$construct@AAUCampData@ioCampManager@@@?$allocator@UCampData@ioCampManager@@@std@@QAEXPAUCampData@ioCampManager@@AAU23@@Z PROC ; std::allocator<ioCampManager::CampData>::construct<ioCampManager::CampData &>, COMDAT
; _this$ = ecx

; 206  : 		void construct(pointer _Ptr, _Other&& _Val)

  00000	55		 push	 ebp
  00001	8b ec		 mov	 ebp, esp
  00003	57		 push	 edi

; 207  : 		{	// construct object at _Ptr with value _Val
; 208  : 		::new ((void _FARQ *)_Ptr) _Ty(_STD forward<_Other>(_Val));

  00004	8b 7d 08	 mov	 edi, DWORD PTR __Ptr$[ebp]
  00007	85 ff		 test	 edi, edi
  00009	74 0a		 je	 SHORT $LN3@construct
  0000b	56		 push	 esi
  0000c	8b 75 0c	 mov	 esi, DWORD PTR __Val$[ebp]
  0000f	6a 06		 push	 6
  00011	59		 pop	 ecx
  00012	f3 a5		 rep movsd
  00014	5e		 pop	 esi
$LN3@construct:
  00015	5f		 pop	 edi

; 209  : 		}

  00016	5d		 pop	 ebp
  00017	c2 08 00	 ret	 8
??$construct@AAUCampData@ioCampManager@@@?$allocator@UCampData@ioCampManager@@@std@@QAEXPAUCampData@ioCampManager@@AAU23@@Z ENDP ; std::allocator<ioCampManager::CampData>::construct<ioCampManager::CampData &>
_TEXT	ENDS
PUBLIC	??$forward@ABUCampData@ioCampManager@@@std@@YAABUCampData@ioCampManager@@ABU12@@Z ; std::forward<ioCampManager::CampData const &>
; Function compile flags: /Ogsp
; File c:\program files (x86)\microsoft visual studio 10.0\vc\include\utility
;	COMDAT ??$forward@ABUCampData@ioCampManager@@@std@@YAABUCampData@ioCampManager@@ABU12@@Z
_TEXT	SEGMENT
__Arg$ = 8						; size = 4
??$forward@ABUCampData@ioCampManager@@@std@@YAABUCampData@ioCampManager@@ABU12@@Z PROC ; std::forward<ioCampManager::CampData const &>, COMDAT

; 78   : 	{	// forward _Arg, given explicitly specified type parameter

  00000	55		 push	 ebp
  00001	8b ec		 mov	 ebp, esp

; 79   : 	return ((_Ty&&)_Arg);

  00003	8b 45 08	 mov	 eax, DWORD PTR __Arg$[ebp]

; 80   : 	}

  00006	5d		 pop	 ebp
  00007	c3		 ret	 0
??$forward@ABUCampData@ioCampManager@@@std@@YAABUCampData@ioCampManager@@ABU12@@Z ENDP ; std::forward<ioCampManager::CampData const &>
_TEXT	ENDS
PUBLIC	??$forward@AAUMentData@ioCampManager@@@std@@YAAAUMentData@ioCampManager@@AAU12@@Z ; std::forward<ioCampManager::MentData &>
; Function compile flags: /Ogsp
;	COMDAT ??$forward@AAUMentData@ioCampManager@@@std@@YAAAUMentData@ioCampManager@@AAU12@@Z
_TEXT	SEGMENT
__Arg$ = 8						; size = 4
??$forward@AAUMentData@ioCampManager@@@std@@YAAAUMentData@ioCampManager@@AAU12@@Z PROC ; std::forward<ioCampManager::MentData &>, COMDAT

; 78   : 	{	// forward _Arg, given explicitly specified type parameter

  00000	55		 push	 ebp
  00001	8b ec		 mov	 ebp, esp

; 79   : 	return ((_Ty&&)_Arg);

  00003	8b 45 08	 mov	 eax, DWORD PTR __Arg$[ebp]

; 80   : 	}

  00006	5d		 pop	 ebp
  00007	c3		 ret	 0
??$forward@AAUMentData@ioCampManager@@@std@@YAAAUMentData@ioCampManager@@AAU12@@Z ENDP ; std::forward<ioCampManager::MentData &>
_TEXT	ENDS
PUBLIC	??$construct@AAUMentData@ioCampManager@@@?$allocator@UMentData@ioCampManager@@@std@@QAEXPAUMentData@ioCampManager@@AAU23@@Z ; std::allocator<ioCampManager::MentData>::construct<ioCampManager::MentData &>
; Function compile flags: /Ogsp
; File c:\program files (x86)\microsoft visual studio 10.0\vc\include\xmemory
;	COMDAT ??$construct@AAUMentData@ioCampManager@@@?$allocator@UMentData@ioCampManager@@@std@@QAEXPAUMentData@ioCampManager@@AAU23@@Z
_TEXT	SEGMENT
__Ptr$ = 8						; size = 4
__Val$ = 12						; size = 4
??$construct@AAUMentData@ioCampManager@@@?$allocator@UMentData@ioCampManager@@@std@@QAEXPAUMentData@ioCampManager@@AAU23@@Z PROC ; std::allocator<ioCampManager::MentData>::construct<ioCampManager::MentData &>, COMDAT
; _this$ = ecx

; 206  : 		void construct(pointer _Ptr, _Other&& _Val)

  00000	55		 push	 ebp
  00001	8b ec		 mov	 ebp, esp
  00003	57		 push	 edi

; 207  : 		{	// construct object at _Ptr with value _Val
; 208  : 		::new ((void _FARQ *)_Ptr) _Ty(_STD forward<_Other>(_Val));

  00004	8b 7d 08	 mov	 edi, DWORD PTR __Ptr$[ebp]
  00007	85 ff		 test	 edi, edi
  00009	74 0a		 je	 SHORT $LN3@construct@2
  0000b	56		 push	 esi
  0000c	8b 75 0c	 mov	 esi, DWORD PTR __Val$[ebp]
  0000f	6a 42		 push	 66			; 00000042H
  00011	59		 pop	 ecx
  00012	f3 a5		 rep movsd
  00014	5e		 pop	 esi
$LN3@construct@2:
  00015	5f		 pop	 edi

; 209  : 		}

  00016	5d		 pop	 ebp
  00017	c2 08 00	 ret	 8
??$construct@AAUMentData@ioCampManager@@@?$allocator@UMentData@ioCampManager@@@std@@QAEXPAUMentData@ioCampManager@@AAU23@@Z ENDP ; std::allocator<ioCampManager::MentData>::construct<ioCampManager::MentData &>
_TEXT	ENDS
PUBLIC	??$forward@ABUMentData@ioCampManager@@@std@@YAABUMentData@ioCampManager@@ABU12@@Z ; std::forward<ioCampManager::MentData const &>
; Function compile flags: /Ogsp
; File c:\program files (x86)\microsoft visual studio 10.0\vc\include\utility
;	COMDAT ??$forward@ABUMentData@ioCampManager@@@std@@YAABUMentData@ioCampManager@@ABU12@@Z
_TEXT	SEGMENT
__Arg$ = 8						; size = 4
??$forward@ABUMentData@ioCampManager@@@std@@YAABUMentData@ioCampManager@@ABU12@@Z PROC ; std::forward<ioCampManager::MentData const &>, COMDAT

; 78   : 	{	// forward _Arg, given explicitly specified type parameter

  00000	55		 push	 ebp
  00001	8b ec		 mov	 ebp, esp

; 79   : 	return ((_Ty&&)_Arg);

  00003	8b 45 08	 mov	 eax, DWORD PTR __Arg$[ebp]

; 80   : 	}

  00006	5d		 pop	 ebp
  00007	c3		 ret	 0
??$forward@ABUMentData@ioCampManager@@@std@@YAABUMentData@ioCampManager@@ABU12@@Z ENDP ; std::forward<ioCampManager::MentData const &>
_TEXT	ENDS
PUBLIC	??$forward@AAUEntryMentList@ioCampManager@@@std@@YAAAUEntryMentList@ioCampManager@@AAU12@@Z ; std::forward<ioCampManager::EntryMentList &>
; Function compile flags: /Ogsp
;	COMDAT ??$forward@AAUEntryMentList@ioCampManager@@@std@@YAAAUEntryMentList@ioCampManager@@AAU12@@Z
_TEXT	SEGMENT
__Arg$ = 8						; size = 4
??$forward@AAUEntryMentList@ioCampManager@@@std@@YAAAUEntryMentList@ioCampManager@@AAU12@@Z PROC ; std::forward<ioCampManager::EntryMentList &>, COMDAT

; 78   : 	{	// forward _Arg, given explicitly specified type parameter

  00000	55		 push	 ebp
  00001	8b ec		 mov	 ebp, esp

; 79   : 	return ((_Ty&&)_Arg);

  00003	8b 45 08	 mov	 eax, DWORD PTR __Arg$[ebp]

; 80   : 	}

  00006	5d		 pop	 ebp
  00007	c3		 ret	 0
??$forward@AAUEntryMentList@ioCampManager@@@std@@YAAAUEntryMentList@ioCampManager@@AAU12@@Z ENDP ; std::forward<ioCampManager::EntryMentList &>
_TEXT	ENDS
PUBLIC	??$forward@ABUEntryMentList@ioCampManager@@@std@@YAABUEntryMentList@ioCampManager@@ABU12@@Z ; std::forward<ioCampManager::EntryMentList const &>
; Function compile flags: /Ogsp
;	COMDAT ??$forward@ABUEntryMentList@ioCampManager@@@std@@YAABUEntryMentList@ioCampManager@@ABU12@@Z
_TEXT	SEGMENT
__Arg$ = 8						; size = 4
??$forward@ABUEntryMentList@ioCampManager@@@std@@YAABUEntryMentList@ioCampManager@@ABU12@@Z PROC ; std::forward<ioCampManager::EntryMentList const &>, COMDAT

; 78   : 	{	// forward _Arg, given explicitly specified type parameter

  00000	55		 push	 ebp
  00001	8b ec		 mov	 ebp, esp

; 79   : 	return ((_Ty&&)_Arg);

  00003	8b 45 08	 mov	 eax, DWORD PTR __Arg$[ebp]

; 80   : 	}

  00006	5d		 pop	 ebp
  00007	c3		 ret	 0
??$forward@ABUEntryMentList@ioCampManager@@@std@@YAABUEntryMentList@ioCampManager@@ABU12@@Z ENDP ; std::forward<ioCampManager::EntryMentList const &>
_TEXT	ENDS
PUBLIC	??$forward@AAUAlarmMent@ioCampManager@@@std@@YAAAUAlarmMent@ioCampManager@@AAU12@@Z ; std::forward<ioCampManager::AlarmMent &>
; Function compile flags: /Ogsp
;	COMDAT ??$forward@AAUAlarmMent@ioCampManager@@@std@@YAAAUAlarmMent@ioCampManager@@AAU12@@Z
_TEXT	SEGMENT
__Arg$ = 8						; size = 4
??$forward@AAUAlarmMent@ioCampManager@@@std@@YAAAUAlarmMent@ioCampManager@@AAU12@@Z PROC ; std::forward<ioCampManager::AlarmMent &>, COMDAT

; 78   : 	{	// forward _Arg, given explicitly specified type parameter

  00000	55		 push	 ebp
  00001	8b ec		 mov	 ebp, esp

; 79   : 	return ((_Ty&&)_Arg);

  00003	8b 45 08	 mov	 eax, DWORD PTR __Arg$[ebp]

; 80   : 	}

  00006	5d		 pop	 ebp
  00007	c3		 ret	 0
??$forward@AAUAlarmMent@ioCampManager@@@std@@YAAAUAlarmMent@ioCampManager@@AAU12@@Z ENDP ; std::forward<ioCampManager::AlarmMent &>
_TEXT	ENDS
PUBLIC	??$forward@ABUAlarmMent@ioCampManager@@@std@@YAABUAlarmMent@ioCampManager@@ABU12@@Z ; std::forward<ioCampManager::AlarmMent const &>
; Function compile flags: /Ogsp
;	COMDAT ??$forward@ABUAlarmMent@ioCampManager@@@std@@YAABUAlarmMent@ioCampManager@@ABU12@@Z
_TEXT	SEGMENT
__Arg$ = 8						; size = 4
??$forward@ABUAlarmMent@ioCampManager@@@std@@YAABUAlarmMent@ioCampManager@@ABU12@@Z PROC ; std::forward<ioCampManager::AlarmMent const &>, COMDAT

; 78   : 	{	// forward _Arg, given explicitly specified type parameter

  00000	55		 push	 ebp
  00001	8b ec		 mov	 ebp, esp

; 79   : 	return ((_Ty&&)_Arg);

  00003	8b 45 08	 mov	 eax, DWORD PTR __Arg$[ebp]

; 80   : 	}

  00006	5d		 pop	 ebp
  00007	c3		 ret	 0
??$forward@ABUAlarmMent@ioCampManager@@@std@@YAABUAlarmMent@ioCampManager@@ABU12@@Z ENDP ; std::forward<ioCampManager::AlarmMent const &>
_TEXT	ENDS
PUBLIC	??$forward@AAUtagHeroRankData@@@std@@YAAAUtagHeroRankData@@AAU1@@Z ; std::forward<tagHeroRankData &>
; Function compile flags: /Ogsp
;	COMDAT ??$forward@AAUtagHeroRankData@@@std@@YAAAUtagHeroRankData@@AAU1@@Z
_TEXT	SEGMENT
__Arg$ = 8						; size = 4
??$forward@AAUtagHeroRankData@@@std@@YAAAUtagHeroRankData@@AAU1@@Z PROC ; std::forward<tagHeroRankData &>, COMDAT

; 78   : 	{	// forward _Arg, given explicitly specified type parameter

  00000	55		 push	 ebp
  00001	8b ec		 mov	 ebp, esp

; 79   : 	return ((_Ty&&)_Arg);

  00003	8b 45 08	 mov	 eax, DWORD PTR __Arg$[ebp]

; 80   : 	}

  00006	5d		 pop	 ebp
  00007	c3		 ret	 0
??$forward@AAUtagHeroRankData@@@std@@YAAAUtagHeroRankData@@AAU1@@Z ENDP ; std::forward<tagHeroRankData &>
_TEXT	ENDS
PUBLIC	??$construct@AAUtagHeroRankData@@@?$allocator@UtagHeroRankData@@@std@@QAEXPAUtagHeroRankData@@AAU2@@Z ; std::allocator<tagHeroRankData>::construct<tagHeroRankData &>
EXTRN	__EH_epilog3:PROC
EXTRN	__EH_prolog3:PROC
;	COMDAT xdata$x
xdata$x	SEGMENT
__unwindtable$??$construct@AAUtagHeroRankData@@@?$allocator@UtagHeroRankData@@@std@@QAEXPAUtagHeroRankData@@AAU2@@Z DD 0ffffffffH
	DD	FLAT:__unwindfunclet$??$construct@AAUtagHeroRankData@@@?$allocator@UtagHeroRankData@@@std@@QAEXPAUtagHeroRankData@@AAU2@@Z$0
__ehfuncinfo$??$construct@AAUtagHeroRankData@@@?$allocator@UtagHeroRankData@@@std@@QAEXPAUtagHeroRankData@@AAU2@@Z DD 019930522H
	DD	01H
	DD	FLAT:__unwindtable$??$construct@AAUtagHeroRankData@@@?$allocator@UtagHeroRankData@@@std@@QAEXPAUtagHeroRankData@@AAU2@@Z
	DD	2 DUP(00H)
	DD	2 DUP(00H)
	DD	00H
	DD	01H
; Function compile flags: /Ogsp
; File c:\program files (x86)\microsoft visual studio 10.0\vc\include\xmemory
xdata$x	ENDS
;	COMDAT ??$construct@AAUtagHeroRankData@@@?$allocator@UtagHeroRankData@@@std@@QAEXPAUtagHeroRankData@@AAU2@@Z
_TEXT	SEGMENT
$T524378 = -16						; size = 4
__$EHRec$ = -12						; size = 12
__Ptr$ = 8						; size = 4
__Val$ = 12						; size = 4
??$construct@AAUtagHeroRankData@@@?$allocator@UtagHeroRankData@@@std@@QAEXPAUtagHeroRankData@@AAU2@@Z PROC ; std::allocator<tagHeroRankData>::construct<tagHeroRankData &>, COMDAT
; _this$ = ecx

; 206  : 		void construct(pointer _Ptr, _Other&& _Val)

  00000	6a 04		 push	 4
  00002	b8 00 00 00 00	 mov	 eax, __ehhandler$??$construct@AAUtagHeroRankData@@@?$allocator@UtagHeroRankData@@@std@@QAEXPAUtagHeroRankData@@AAU2@@Z
  00007	e8 00 00 00 00	 call	 __EH_prolog3

; 207  : 		{	// construct object at _Ptr with value _Val
; 208  : 		::new ((void _FARQ *)_Ptr) _Ty(_STD forward<_Other>(_Val));

  0000c	8b 4d 08	 mov	 ecx, DWORD PTR __Ptr$[ebp]
  0000f	89 4d f0	 mov	 DWORD PTR $T524378[ebp], ecx
  00012	83 65 fc 00	 and	 DWORD PTR __$EHRec$[ebp+8], 0
  00016	85 c9		 test	 ecx, ecx
  00018	74 08		 je	 SHORT $LN3@construct@3
  0001a	ff 75 0c	 push	 DWORD PTR __Val$[ebp]
  0001d	e8 00 00 00 00	 call	 ??0tagHeroRankData@@QAE@ABU0@@Z
$LN3@construct@3:

; 209  : 		}

  00022	e8 00 00 00 00	 call	 __EH_epilog3
  00027	c2 08 00	 ret	 8
_TEXT	ENDS
;	COMDAT text$x
text$x	SEGMENT
__unwindfunclet$??$construct@AAUtagHeroRankData@@@?$allocator@UtagHeroRankData@@@std@@QAEXPAUtagHeroRankData@@AAU2@@Z$0:
  00000	ff 75 08	 push	 DWORD PTR __Ptr$[ebp]
  00003	ff 75 f0	 push	 DWORD PTR $T524378[ebp]
  00006	e8 00 00 00 00	 call	 ??3@YAXPAX0@Z		; operator delete
  0000b	59		 pop	 ecx
  0000c	59		 pop	 ecx
  0000d	c3		 ret	 0
__ehhandler$??$construct@AAUtagHeroRankData@@@?$allocator@UtagHeroRankData@@@std@@QAEXPAUtagHeroRankData@@AAU2@@Z:
  0000e	8b 54 24 08	 mov	 edx, DWORD PTR [esp+8]
  00012	8d 42 0c	 lea	 eax, DWORD PTR [edx+12]
  00015	8b 4a ec	 mov	 ecx, DWORD PTR [edx-20]
  00018	33 c8		 xor	 ecx, eax
  0001a	e8 00 00 00 00	 call	 @__security_check_cookie@4
  0001f	b8 00 00 00 00	 mov	 eax, OFFSET __ehfuncinfo$??$construct@AAUtagHeroRankData@@@?$allocator@UtagHeroRankData@@@std@@QAEXPAUtagHeroRankData@@AAU2@@Z
  00024	e9 00 00 00 00	 jmp	 ___CxxFrameHandler3
text$x	ENDS
??$construct@AAUtagHeroRankData@@@?$allocator@UtagHeroRankData@@@std@@QAEXPAUtagHeroRankData@@AAU2@@Z ENDP ; std::allocator<tagHeroRankData>::construct<tagHeroRankData &>
PUBLIC	??$forward@ABUtagHeroRankData@@@std@@YAABUtagHeroRankData@@ABU1@@Z ; std::forward<tagHeroRankData const &>
; Function compile flags: /Ogsp
; File c:\program files (x86)\microsoft visual studio 10.0\vc\include\utility
;	COMDAT ??$forward@ABUtagHeroRankData@@@std@@YAABUtagHeroRankData@@ABU1@@Z
_TEXT	SEGMENT
__Arg$ = 8						; size = 4
??$forward@ABUtagHeroRankData@@@std@@YAABUtagHeroRankData@@ABU1@@Z PROC ; std::forward<tagHeroRankData const &>, COMDAT

; 78   : 	{	// forward _Arg, given explicitly specified type parameter

  00000	55		 push	 ebp
  00001	8b ec		 mov	 ebp, esp

; 79   : 	return ((_Ty&&)_Arg);

  00003	8b 45 08	 mov	 eax, DWORD PTR __Arg$[ebp]

; 80   : 	}

  00006	5d		 pop	 ebp
  00007	c3		 ret	 0
??$forward@ABUtagHeroRankData@@@std@@YAABUtagHeroRankData@@ABU1@@Z ENDP ; std::forward<tagHeroRankData const &>
_TEXT	ENDS
PUBLIC	??$_Ptr_cat@UCampData@ioCampManager@@U12@@std@@YA?AU_Nonscalar_ptr_iterator_tag@0@PAUCampData@ioCampManager@@0@Z ; std::_Ptr_cat<ioCampManager::CampData,ioCampManager::CampData>
; Function compile flags: /Ogsp
; File c:\program files (x86)\microsoft visual studio 10.0\vc\include\xutility
;	COMDAT ??$_Ptr_cat@UCampData@ioCampManager@@U12@@std@@YA?AU_Nonscalar_ptr_iterator_tag@0@PAUCampData@ioCampManager@@0@Z
_TEXT	SEGMENT
__Cat$ = -1						; size = 1
___formal$ = 8						; size = 4
___formal$ = 12						; size = 4
??$_Ptr_cat@UCampData@ioCampManager@@U12@@std@@YA?AU_Nonscalar_ptr_iterator_tag@0@PAUCampData@ioCampManager@@0@Z PROC ; std::_Ptr_cat<ioCampManager::CampData,ioCampManager::CampData>, COMDAT

; 516  : 	{	// return pointer category from pointers

  00000	55		 push	 ebp
  00001	8b ec		 mov	 ebp, esp
  00003	51		 push	 ecx

; 517  : 	typename _Ptr_cat_helper<_Elem1, _Elem2>::_Type _Cat;
; 518  : 	return (_Cat);

  00004	8a 45 ff	 mov	 al, BYTE PTR __Cat$[ebp]

; 519  : 	}

  00007	c9		 leave
  00008	c3		 ret	 0
??$_Ptr_cat@UCampData@ioCampManager@@U12@@std@@YA?AU_Nonscalar_ptr_iterator_tag@0@PAUCampData@ioCampManager@@0@Z ENDP ; std::_Ptr_cat<ioCampManager::CampData,ioCampManager::CampData>
_TEXT	ENDS
PUBLIC	??$_Ptr_cat@UEntryMentList@ioCampManager@@U12@@std@@YA?AU_Nonscalar_ptr_iterator_tag@0@PAUEntryMentList@ioCampManager@@0@Z ; std::_Ptr_cat<ioCampManager::EntryMentList,ioCampManager::EntryMentList>
; Function compile flags: /Ogsp
;	COMDAT ??$_Ptr_cat@UEntryMentList@ioCampManager@@U12@@std@@YA?AU_Nonscalar_ptr_iterator_tag@0@PAUEntryMentList@ioCampManager@@0@Z
_TEXT	SEGMENT
__Cat$ = -1						; size = 1
___formal$ = 8						; size = 4
___formal$ = 12						; size = 4
??$_Ptr_cat@UEntryMentList@ioCampManager@@U12@@std@@YA?AU_Nonscalar_ptr_iterator_tag@0@PAUEntryMentList@ioCampManager@@0@Z PROC ; std::_Ptr_cat<ioCampManager::EntryMentList,ioCampManager::EntryMentList>, COMDAT

; 516  : 	{	// return pointer category from pointers

  00000	55		 push	 ebp
  00001	8b ec		 mov	 ebp, esp
  00003	51		 push	 ecx

; 517  : 	typename _Ptr_cat_helper<_Elem1, _Elem2>::_Type _Cat;
; 518  : 	return (_Cat);

  00004	8a 45 ff	 mov	 al, BYTE PTR __Cat$[ebp]

; 519  : 	}

  00007	c9		 leave
  00008	c3		 ret	 0
??$_Ptr_cat@UEntryMentList@ioCampManager@@U12@@std@@YA?AU_Nonscalar_ptr_iterator_tag@0@PAUEntryMentList@ioCampManager@@0@Z ENDP ; std::_Ptr_cat<ioCampManager::EntryMentList,ioCampManager::EntryMentList>
_TEXT	ENDS
PUBLIC	??$_Ptr_cat@UAlarmMent@ioCampManager@@U12@@std@@YA?AU_Nonscalar_ptr_iterator_tag@0@PAUAlarmMent@ioCampManager@@0@Z ; std::_Ptr_cat<ioCampManager::AlarmMent,ioCampManager::AlarmMent>
; Function compile flags: /Ogsp
;	COMDAT ??$_Ptr_cat@UAlarmMent@ioCampManager@@U12@@std@@YA?AU_Nonscalar_ptr_iterator_tag@0@PAUAlarmMent@ioCampManager@@0@Z
_TEXT	SEGMENT
__Cat$ = -1						; size = 1
___formal$ = 8						; size = 4
___formal$ = 12						; size = 4
??$_Ptr_cat@UAlarmMent@ioCampManager@@U12@@std@@YA?AU_Nonscalar_ptr_iterator_tag@0@PAUAlarmMent@ioCampManager@@0@Z PROC ; std::_Ptr_cat<ioCampManager::AlarmMent,ioCampManager::AlarmMent>, COMDAT

; 516  : 	{	// return pointer category from pointers

  00000	55		 push	 ebp
  00001	8b ec		 mov	 ebp, esp
  00003	51		 push	 ecx

; 517  : 	typename _Ptr_cat_helper<_Elem1, _Elem2>::_Type _Cat;
; 518  : 	return (_Cat);

  00004	8a 45 ff	 mov	 al, BYTE PTR __Cat$[ebp]

; 519  : 	}

  00007	c9		 leave
  00008	c3		 ret	 0
??$_Ptr_cat@UAlarmMent@ioCampManager@@U12@@std@@YA?AU_Nonscalar_ptr_iterator_tag@0@PAUAlarmMent@ioCampManager@@0@Z ENDP ; std::_Ptr_cat<ioCampManager::AlarmMent,ioCampManager::AlarmMent>
_TEXT	ENDS
PUBLIC	??$_Ptr_cat@UtagHeroRankData@@U1@@std@@YA?AU_Nonscalar_ptr_iterator_tag@0@PAUtagHeroRankData@@0@Z ; std::_Ptr_cat<tagHeroRankData,tagHeroRankData>
; Function compile flags: /Ogsp
;	COMDAT ??$_Ptr_cat@UtagHeroRankData@@U1@@std@@YA?AU_Nonscalar_ptr_iterator_tag@0@PAUtagHeroRankData@@0@Z
_TEXT	SEGMENT
__Cat$ = -1						; size = 1
___formal$ = 8						; size = 4
___formal$ = 12						; size = 4
??$_Ptr_cat@UtagHeroRankData@@U1@@std@@YA?AU_Nonscalar_ptr_iterator_tag@0@PAUtagHeroRankData@@0@Z PROC ; std::_Ptr_cat<tagHeroRankData,tagHeroRankData>, COMDAT

; 516  : 	{	// return pointer category from pointers

  00000	55		 push	 ebp
  00001	8b ec		 mov	 ebp, esp
  00003	51		 push	 ecx

; 517  : 	typename _Ptr_cat_helper<_Elem1, _Elem2>::_Type _Cat;
; 518  : 	return (_Cat);

  00004	8a 45 ff	 mov	 al, BYTE PTR __Cat$[ebp]

; 519  : 	}

  00007	c9		 leave
  00008	c3		 ret	 0
??$_Ptr_cat@UtagHeroRankData@@U1@@std@@YA?AU_Nonscalar_ptr_iterator_tag@0@PAUtagHeroRankData@@0@Z ENDP ; std::_Ptr_cat<tagHeroRankData,tagHeroRankData>
_TEXT	ENDS
PUBLIC	??$_Ptr_cat@UHeroMatchHistory@ioCampManager@@U12@@std@@YA?AU_Nonscalar_ptr_iterator_tag@0@PAUHeroMatchHistory@ioCampManager@@0@Z ; std::_Ptr_cat<ioCampManager::HeroMatchHistory,ioCampManager::HeroMatchHistory>
; Function compile flags: /Ogsp
;	COMDAT ??$_Ptr_cat@UHeroMatchHistory@ioCampManager@@U12@@std@@YA?AU_Nonscalar_ptr_iterator_tag@0@PAUHeroMatchHistory@ioCampManager@@0@Z
_TEXT	SEGMENT
__Cat$ = -1						; size = 1
___formal$ = 8						; size = 4
___formal$ = 12						; size = 4
??$_Ptr_cat@UHeroMatchHistory@ioCampManager@@U12@@std@@YA?AU_Nonscalar_ptr_iterator_tag@0@PAUHeroMatchHistory@ioCampManager@@0@Z PROC ; std::_Ptr_cat<ioCampManager::HeroMatchHistory,ioCampManager::HeroMatchHistory>, COMDAT

; 516  : 	{	// return pointer category from pointers

  00000	55		 push	 ebp
  00001	8b ec		 mov	 ebp, esp
  00003	51		 push	 ecx

; 517  : 	typename _Ptr_cat_helper<_Elem1, _Elem2>::_Type _Cat;
; 518  : 	return (_Cat);

  00004	8a 45 ff	 mov	 al, BYTE PTR __Cat$[ebp]

; 519  : 	}

  00007	c9		 leave
  00008	c3		 ret	 0
??$_Ptr_cat@UHeroMatchHistory@ioCampManager@@U12@@std@@YA?AU_Nonscalar_ptr_iterator_tag@0@PAUHeroMatchHistory@ioCampManager@@0@Z ENDP ; std::_Ptr_cat<ioCampManager::HeroMatchHistory,ioCampManager::HeroMatchHistory>
_TEXT	ENDS
PUBLIC	??$_Construct@UCampData@ioCampManager@@ABU12@@std@@YAXPAUCampData@ioCampManager@@ABU12@@Z ; std::_Construct<ioCampManager::CampData,ioCampManager::CampData const &>
; Function compile flags: /Ogsp
; File c:\program files (x86)\microsoft visual studio 10.0\vc\include\xmemory
;	COMDAT ??$_Construct@UCampData@ioCampManager@@ABU12@@std@@YAXPAUCampData@ioCampManager@@ABU12@@Z
_TEXT	SEGMENT
__Ptr$ = 8						; size = 4
__Val$ = 12						; size = 4
??$_Construct@UCampData@ioCampManager@@ABU12@@std@@YAXPAUCampData@ioCampManager@@ABU12@@Z PROC ; std::_Construct<ioCampManager::CampData,ioCampManager::CampData const &>, COMDAT

; 46   : 	{	// construct object at _Ptr with value _Val

  00000	55		 push	 ebp
  00001	8b ec		 mov	 ebp, esp
  00003	57		 push	 edi

; 47   : 	void _FARQ *_Vptr = _Ptr;
; 48   : 	::new (_Vptr) _Ty1(_STD forward<_Ty2>(_Val));

  00004	8b 7d 08	 mov	 edi, DWORD PTR __Ptr$[ebp]
  00007	85 ff		 test	 edi, edi
  00009	74 0a		 je	 SHORT $LN3@Construct
  0000b	56		 push	 esi
  0000c	8b 75 0c	 mov	 esi, DWORD PTR __Val$[ebp]
  0000f	6a 06		 push	 6
  00011	59		 pop	 ecx
  00012	f3 a5		 rep movsd
  00014	5e		 pop	 esi
$LN3@Construct:
  00015	5f		 pop	 edi

; 49   : 	}

  00016	5d		 pop	 ebp
  00017	c3		 ret	 0
??$_Construct@UCampData@ioCampManager@@ABU12@@std@@YAXPAUCampData@ioCampManager@@ABU12@@Z ENDP ; std::_Construct<ioCampManager::CampData,ioCampManager::CampData const &>
_TEXT	ENDS
PUBLIC	??$_Construct@UMentData@ioCampManager@@ABU12@@std@@YAXPAUMentData@ioCampManager@@ABU12@@Z ; std::_Construct<ioCampManager::MentData,ioCampManager::MentData const &>
; Function compile flags: /Ogsp
;	COMDAT ??$_Construct@UMentData@ioCampManager@@ABU12@@std@@YAXPAUMentData@ioCampManager@@ABU12@@Z
_TEXT	SEGMENT
__Ptr$ = 8						; size = 4
__Val$ = 12						; size = 4
??$_Construct@UMentData@ioCampManager@@ABU12@@std@@YAXPAUMentData@ioCampManager@@ABU12@@Z PROC ; std::_Construct<ioCampManager::MentData,ioCampManager::MentData const &>, COMDAT

; 46   : 	{	// construct object at _Ptr with value _Val

  00000	55		 push	 ebp
  00001	8b ec		 mov	 ebp, esp
  00003	57		 push	 edi

; 47   : 	void _FARQ *_Vptr = _Ptr;
; 48   : 	::new (_Vptr) _Ty1(_STD forward<_Ty2>(_Val));

  00004	8b 7d 08	 mov	 edi, DWORD PTR __Ptr$[ebp]
  00007	85 ff		 test	 edi, edi
  00009	74 0a		 je	 SHORT $LN3@Construct@2
  0000b	56		 push	 esi
  0000c	8b 75 0c	 mov	 esi, DWORD PTR __Val$[ebp]
  0000f	6a 42		 push	 66			; 00000042H
  00011	59		 pop	 ecx
  00012	f3 a5		 rep movsd
  00014	5e		 pop	 esi
$LN3@Construct@2:
  00015	5f		 pop	 edi

; 49   : 	}

  00016	5d		 pop	 ebp
  00017	c3		 ret	 0
??$_Construct@UMentData@ioCampManager@@ABU12@@std@@YAXPAUMentData@ioCampManager@@ABU12@@Z ENDP ; std::_Construct<ioCampManager::MentData,ioCampManager::MentData const &>
_TEXT	ENDS
PUBLIC	??$_Construct@UtagHeroRankData@@ABU1@@std@@YAXPAUtagHeroRankData@@ABU1@@Z ; std::_Construct<tagHeroRankData,tagHeroRankData const &>
;	COMDAT xdata$x
; File c:\program files (x86)\microsoft visual studio 10.0\vc\include\utility
xdata$x	SEGMENT
__unwindtable$??$_Construct@UtagHeroRankData@@ABU1@@std@@YAXPAUtagHeroRankData@@ABU1@@Z DD 0ffffffffH
	DD	FLAT:__unwindfunclet$??$_Construct@UtagHeroRankData@@ABU1@@std@@YAXPAUtagHeroRankData@@ABU1@@Z$0
__ehfuncinfo$??$_Construct@UtagHeroRankData@@ABU1@@std@@YAXPAUtagHeroRankData@@ABU1@@Z DD 019930522H
	DD	01H
	DD	FLAT:__unwindtable$??$_Construct@UtagHeroRankData@@ABU1@@std@@YAXPAUtagHeroRankData@@ABU1@@Z
	DD	2 DUP(00H)
	DD	2 DUP(00H)
	DD	00H
	DD	01H
; Function compile flags: /Ogsp
; File c:\program files (x86)\microsoft visual studio 10.0\vc\include\xmemory
xdata$x	ENDS
;	COMDAT ??$_Construct@UtagHeroRankData@@ABU1@@std@@YAXPAUtagHeroRankData@@ABU1@@Z
_TEXT	SEGMENT
$T524437 = -16						; size = 4
__$EHRec$ = -12						; size = 12
__Vptr$ = 8						; size = 4
__Ptr$ = 8						; size = 4
__Val$ = 12						; size = 4
??$_Construct@UtagHeroRankData@@ABU1@@std@@YAXPAUtagHeroRankData@@ABU1@@Z PROC ; std::_Construct<tagHeroRankData,tagHeroRankData const &>, COMDAT

; 46   : 	{	// construct object at _Ptr with value _Val

  00000	6a 04		 push	 4
  00002	b8 00 00 00 00	 mov	 eax, __ehhandler$??$_Construct@UtagHeroRankData@@ABU1@@std@@YAXPAUtagHeroRankData@@ABU1@@Z
  00007	e8 00 00 00 00	 call	 __EH_prolog3

; 47   : 	void _FARQ *_Vptr = _Ptr;

  0000c	8b 4d 08	 mov	 ecx, DWORD PTR __Ptr$[ebp]
  0000f	89 4d 08	 mov	 DWORD PTR __Vptr$[ebp], ecx

; 48   : 	::new (_Vptr) _Ty1(_STD forward<_Ty2>(_Val));

  00012	89 4d f0	 mov	 DWORD PTR $T524437[ebp], ecx
  00015	83 65 fc 00	 and	 DWORD PTR __$EHRec$[ebp+8], 0
  00019	85 c9		 test	 ecx, ecx
  0001b	74 08		 je	 SHORT $LN3@Construct@3
  0001d	ff 75 0c	 push	 DWORD PTR __Val$[ebp]
  00020	e8 00 00 00 00	 call	 ??0tagHeroRankData@@QAE@ABU0@@Z
$LN3@Construct@3:

; 49   : 	}

  00025	e8 00 00 00 00	 call	 __EH_epilog3
  0002a	c3		 ret	 0
_TEXT	ENDS
;	COMDAT text$x
text$x	SEGMENT
__unwindfunclet$??$_Construct@UtagHeroRankData@@ABU1@@std@@YAXPAUtagHeroRankData@@ABU1@@Z$0:
  00000	ff 75 08	 push	 DWORD PTR __Vptr$[ebp]
  00003	ff 75 f0	 push	 DWORD PTR $T524437[ebp]
  00006	e8 00 00 00 00	 call	 ??3@YAXPAX0@Z		; operator delete
  0000b	59		 pop	 ecx
  0000c	59		 pop	 ecx
  0000d	c3		 ret	 0
__ehhandler$??$_Construct@UtagHeroRankData@@ABU1@@std@@YAXPAUtagHeroRankData@@ABU1@@Z:
  0000e	8b 54 24 08	 mov	 edx, DWORD PTR [esp+8]
  00012	8d 42 0c	 lea	 eax, DWORD PTR [edx+12]
  00015	8b 4a ec	 mov	 ecx, DWORD PTR [edx-20]
  00018	33 c8		 xor	 ecx, eax
  0001a	e8 00 00 00 00	 call	 @__security_check_cookie@4
  0001f	b8 00 00 00 00	 mov	 eax, OFFSET __ehfuncinfo$??$_Construct@UtagHeroRankData@@ABU1@@std@@YAXPAUtagHeroRankData@@ABU1@@Z
  00024	e9 00 00 00 00	 jmp	 ___CxxFrameHandler3
text$x	ENDS
??$_Construct@UtagHeroRankData@@ABU1@@std@@YAXPAUtagHeroRankData@@ABU1@@Z ENDP ; std::_Construct<tagHeroRankData,tagHeroRankData const &>
PUBLIC	??4HeroMatchHistory@ioCampManager@@QAEAAU01@ABU01@@Z ; ioCampManager::HeroMatchHistory::operator=
; Function compile flags: /Ogsp
;	COMDAT ??4HeroMatchHistory@ioCampManager@@QAEAAU01@ABU01@@Z
_TEXT	SEGMENT
___that$ = 8						; size = 4
??4HeroMatchHistory@ioCampManager@@QAEAAU01@ABU01@@Z PROC ; ioCampManager::HeroMatchHistory::operator=, COMDAT
; _this$ = ecx
  00000	55		 push	 ebp
  00001	8b ec		 mov	 ebp, esp
  00003	56		 push	 esi
  00004	8b f1		 mov	 esi, ecx
  00006	57		 push	 edi
  00007	8b 7d 08	 mov	 edi, DWORD PTR ___that$[ebp]
  0000a	8b 07		 mov	 eax, DWORD PTR [edi]
  0000c	89 06		 mov	 DWORD PTR [esi], eax
  0000e	8b 47 04	 mov	 eax, DWORD PTR [edi+4]
  00011	89 46 04	 mov	 DWORD PTR [esi+4], eax
  00014	8b 47 08	 mov	 eax, DWORD PTR [edi+8]
  00017	89 46 08	 mov	 DWORD PTR [esi+8], eax
  0001a	8b 47 0c	 mov	 eax, DWORD PTR [edi+12]
  0001d	89 46 0c	 mov	 DWORD PTR [esi+12], eax
  00020	8b 47 10	 mov	 eax, DWORD PTR [edi+16]
  00023	89 46 10	 mov	 DWORD PTR [esi+16], eax
  00026	8b 47 14	 mov	 eax, DWORD PTR [edi+20]
  00029	89 46 14	 mov	 DWORD PTR [esi+20], eax
  0002c	8d 47 18	 lea	 eax, DWORD PTR [edi+24]
  0002f	50		 push	 eax
  00030	8d 4e 18	 lea	 ecx, DWORD PTR [esi+24]
  00033	ff 15 00 00 00
	00		 call	 DWORD PTR __imp_??4ioHashString@@QAEAAV0@ABV0@@Z
  00039	8a 47 28	 mov	 al, BYTE PTR [edi+40]
  0003c	88 46 28	 mov	 BYTE PTR [esi+40], al
  0003f	8b 47 2c	 mov	 eax, DWORD PTR [edi+44]
  00042	89 46 2c	 mov	 DWORD PTR [esi+44], eax
  00045	8b 47 30	 mov	 eax, DWORD PTR [edi+48]
  00048	89 46 30	 mov	 DWORD PTR [esi+48], eax
  0004b	8a 47 34	 mov	 al, BYTE PTR [edi+52]
  0004e	88 46 34	 mov	 BYTE PTR [esi+52], al
  00051	8b 47 38	 mov	 eax, DWORD PTR [edi+56]
  00054	89 46 38	 mov	 DWORD PTR [esi+56], eax
  00057	5f		 pop	 edi
  00058	8b c6		 mov	 eax, esi
  0005a	5e		 pop	 esi
  0005b	5d		 pop	 ebp
  0005c	c2 04 00	 ret	 4
??4HeroMatchHistory@ioCampManager@@QAEAAU01@ABU01@@Z ENDP ; ioCampManager::HeroMatchHistory::operator=
_TEXT	ENDS
PUBLIC	?begin@?$vector@UMentData@ioCampManager@@V?$allocator@UMentData@ioCampManager@@@std@@@std@@QBE?AV?$_Vector_const_iterator@V?$_Vector_val@UMentData@ioCampManager@@V?$allocator@UMentData@ioCampManager@@@std@@@std@@@2@XZ ; std::vector<ioCampManager::MentData,std::allocator<ioCampManager::MentData> >::begin
; Function compile flags: /Ogsp
; File c:\program files (x86)\microsoft visual studio 10.0\vc\include\vector
;	COMDAT ?begin@?$vector@UMentData@ioCampManager@@V?$allocator@UMentData@ioCampManager@@@std@@@std@@QBE?AV?$_Vector_const_iterator@V?$_Vector_val@UMentData@ioCampManager@@V?$allocator@UMentData@ioCampManager@@@std@@@std@@@2@XZ
_TEXT	SEGMENT
___$ReturnUdt$ = 8					; size = 4
?begin@?$vector@UMentData@ioCampManager@@V?$allocator@UMentData@ioCampManager@@@std@@@std@@QBE?AV?$_Vector_const_iterator@V?$_Vector_val@UMentData@ioCampManager@@V?$allocator@UMentData@ioCampManager@@@std@@@std@@@2@XZ PROC ; std::vector<ioCampManager::MentData,std::allocator<ioCampManager::MentData> >::begin, COMDAT
; _this$ = ecx

; 786  : 		{	// return iterator for beginning of nonmutable sequence

  00000	55		 push	 ebp
  00001	8b ec		 mov	 ebp, esp

; 787  : 		return (const_iterator(this->_Myfirst, this));

  00003	8b 09		 mov	 ecx, DWORD PTR [ecx]
  00005	8b 45 08	 mov	 eax, DWORD PTR ___$ReturnUdt$[ebp]
  00008	89 08		 mov	 DWORD PTR [eax], ecx

; 788  : 		}

  0000a	5d		 pop	 ebp
  0000b	c2 04 00	 ret	 4
?begin@?$vector@UMentData@ioCampManager@@V?$allocator@UMentData@ioCampManager@@@std@@@std@@QBE?AV?$_Vector_const_iterator@V?$_Vector_val@UMentData@ioCampManager@@V?$allocator@UMentData@ioCampManager@@@std@@@std@@@2@XZ ENDP ; std::vector<ioCampManager::MentData,std::allocator<ioCampManager::MentData> >::begin
_TEXT	ENDS
PUBLIC	?end@?$vector@UMentData@ioCampManager@@V?$allocator@UMentData@ioCampManager@@@std@@@std@@QBE?AV?$_Vector_const_iterator@V?$_Vector_val@UMentData@ioCampManager@@V?$allocator@UMentData@ioCampManager@@@std@@@std@@@2@XZ ; std::vector<ioCampManager::MentData,std::allocator<ioCampManager::MentData> >::end
; Function compile flags: /Ogsp
;	COMDAT ?end@?$vector@UMentData@ioCampManager@@V?$allocator@UMentData@ioCampManager@@@std@@@std@@QBE?AV?$_Vector_const_iterator@V?$_Vector_val@UMentData@ioCampManager@@V?$allocator@UMentData@ioCampManager@@@std@@@std@@@2@XZ
_TEXT	SEGMENT
___$ReturnUdt$ = 8					; size = 4
?end@?$vector@UMentData@ioCampManager@@V?$allocator@UMentData@ioCampManager@@@std@@@std@@QBE?AV?$_Vector_const_iterator@V?$_Vector_val@UMentData@ioCampManager@@V?$allocator@UMentData@ioCampManager@@@std@@@std@@@2@XZ PROC ; std::vector<ioCampManager::MentData,std::allocator<ioCampManager::MentData> >::end, COMDAT
; _this$ = ecx

; 796  : 		{	// return iterator for end of nonmutable sequence

  00000	55		 push	 ebp
  00001	8b ec		 mov	 ebp, esp

; 797  : 		return (const_iterator(this->_Mylast, this));

  00003	8b 49 04	 mov	 ecx, DWORD PTR [ecx+4]
  00006	8b 45 08	 mov	 eax, DWORD PTR ___$ReturnUdt$[ebp]
  00009	89 08		 mov	 DWORD PTR [eax], ecx

; 798  : 		}

  0000b	5d		 pop	 ebp
  0000c	c2 04 00	 ret	 4
?end@?$vector@UMentData@ioCampManager@@V?$allocator@UMentData@ioCampManager@@@std@@@std@@QBE?AV?$_Vector_const_iterator@V?$_Vector_val@UMentData@ioCampManager@@V?$allocator@UMentData@ioCampManager@@@std@@@std@@@2@XZ ENDP ; std::vector<ioCampManager::MentData,std::allocator<ioCampManager::MentData> >::end
_TEXT	ENDS
PUBLIC	??Y?$_Vector_const_iterator@V?$_Vector_val@UHeroMatchHistory@ioCampManager@@V?$allocator@UHeroMatchHistory@ioCampManager@@@std@@@std@@@std@@QAEAAV01@H@Z ; std::_Vector_const_iterator<std::_Vector_val<ioCampManager::HeroMatchHistory,std::allocator<ioCampManager::HeroMatchHistory> > >::operator+=
; Function compile flags: /Ogsp
;	COMDAT ??Y?$_Vector_const_iterator@V?$_Vector_val@UHeroMatchHistory@ioCampManager@@V?$allocator@UHeroMatchHistory@ioCampManager@@@std@@@std@@@std@@QAEAAV01@H@Z
_TEXT	SEGMENT
__Off$ = 8						; size = 4
??Y?$_Vector_const_iterator@V?$_Vector_val@UHeroMatchHistory@ioCampManager@@V?$allocator@UHeroMatchHistory@ioCampManager@@@std@@@std@@@std@@QAEAAV01@H@Z PROC ; std::_Vector_const_iterator<std::_Vector_val<ioCampManager::HeroMatchHistory,std::allocator<ioCampManager::HeroMatchHistory> > >::operator+=, COMDAT
; _this$ = ecx

; 151  : 		{	// increment by integer

  00000	55		 push	 ebp
  00001	8b ec		 mov	 ebp, esp
  00003	8b c1		 mov	 eax, ecx

; 152  :  #if _ITERATOR_DEBUG_LEVEL == 2
; 153  : 		if (this->_Getcont() == 0
; 154  : 			|| this->_Ptr + _Off < ((_Myvec *)this->_Getcont())->_Myfirst
; 155  : 			|| ((_Myvec *)this->_Getcont())->_Mylast < this->_Ptr + _Off)
; 156  : 			{	// report error
; 157  : 			_DEBUG_ERROR("vector iterator + offset out of range");
; 158  : 			_SCL_SECURE_OUT_OF_RANGE;
; 159  : 			}
; 160  : 
; 161  :  #elif _ITERATOR_DEBUG_LEVEL == 1
; 162  : 		_SCL_SECURE_VALIDATE(this->_Getcont() != 0);
; 163  : 		_SCL_SECURE_VALIDATE_RANGE(
; 164  : 			((_Myvec *)this->_Getcont())->_Myfirst <= this->_Ptr + _Off
; 165  : 			&& this->_Ptr + _Off <= ((_Myvec *)this->_Getcont())->_Mylast);
; 166  :  #endif /* _ITERATOR_DEBUG_LEVEL */
; 167  : 
; 168  : 		_Ptr += _Off;

  00005	8b 4d 08	 mov	 ecx, DWORD PTR __Off$[ebp]
  00008	6b c9 3c	 imul	 ecx, 60			; 0000003cH
  0000b	01 08		 add	 DWORD PTR [eax], ecx

; 169  : 		return (*this);
; 170  : 		}

  0000d	5d		 pop	 ebp
  0000e	c2 04 00	 ret	 4
??Y?$_Vector_const_iterator@V?$_Vector_val@UHeroMatchHistory@ioCampManager@@V?$allocator@UHeroMatchHistory@ioCampManager@@@std@@@std@@@std@@QAEAAV01@H@Z ENDP ; std::_Vector_const_iterator<std::_Vector_val<ioCampManager::HeroMatchHistory,std::allocator<ioCampManager::HeroMatchHistory> > >::operator+=
_TEXT	ENDS
PUBLIC	??$move@AAUCampData@ioCampManager@@@std@@YA$$QAUCampData@ioCampManager@@AAU12@@Z ; std::move<ioCampManager::CampData &>
; Function compile flags: /Ogsp
; File c:\program files (x86)\microsoft visual studio 10.0\vc\include\utility
;	COMDAT ??$move@AAUCampData@ioCampManager@@@std@@YA$$QAUCampData@ioCampManager@@AAU12@@Z
_TEXT	SEGMENT
__Arg$ = 8						; size = 4
??$move@AAUCampData@ioCampManager@@@std@@YA$$QAUCampData@ioCampManager@@AAU12@@Z PROC ; std::move<ioCampManager::CampData &>, COMDAT

; 86   : 	{	// forward _Arg as movable

  00000	55		 push	 ebp
  00001	8b ec		 mov	 ebp, esp

; 87   : 	return ((typename tr1::_Remove_reference<_Ty>::_Type&&)_Arg);

  00003	8b 45 08	 mov	 eax, DWORD PTR __Arg$[ebp]

; 88   : 	}

  00006	5d		 pop	 ebp
  00007	c3		 ret	 0
??$move@AAUCampData@ioCampManager@@@std@@YA$$QAUCampData@ioCampManager@@AAU12@@Z ENDP ; std::move<ioCampManager::CampData &>
_TEXT	ENDS
PUBLIC	??$move@AAUMentData@ioCampManager@@@std@@YA$$QAUMentData@ioCampManager@@AAU12@@Z ; std::move<ioCampManager::MentData &>
; Function compile flags: /Ogsp
;	COMDAT ??$move@AAUMentData@ioCampManager@@@std@@YA$$QAUMentData@ioCampManager@@AAU12@@Z
_TEXT	SEGMENT
__Arg$ = 8						; size = 4
??$move@AAUMentData@ioCampManager@@@std@@YA$$QAUMentData@ioCampManager@@AAU12@@Z PROC ; std::move<ioCampManager::MentData &>, COMDAT

; 86   : 	{	// forward _Arg as movable

  00000	55		 push	 ebp
  00001	8b ec		 mov	 ebp, esp

; 87   : 	return ((typename tr1::_Remove_reference<_Ty>::_Type&&)_Arg);

  00003	8b 45 08	 mov	 eax, DWORD PTR __Arg$[ebp]

; 88   : 	}

  00006	5d		 pop	 ebp
  00007	c3		 ret	 0
??$move@AAUMentData@ioCampManager@@@std@@YA$$QAUMentData@ioCampManager@@AAU12@@Z ENDP ; std::move<ioCampManager::MentData &>
_TEXT	ENDS
PUBLIC	??$move@AAUEntryMentList@ioCampManager@@@std@@YA$$QAUEntryMentList@ioCampManager@@AAU12@@Z ; std::move<ioCampManager::EntryMentList &>
; Function compile flags: /Ogsp
;	COMDAT ??$move@AAUEntryMentList@ioCampManager@@@std@@YA$$QAUEntryMentList@ioCampManager@@AAU12@@Z
_TEXT	SEGMENT
__Arg$ = 8						; size = 4
??$move@AAUEntryMentList@ioCampManager@@@std@@YA$$QAUEntryMentList@ioCampManager@@AAU12@@Z PROC ; std::move<ioCampManager::EntryMentList &>, COMDAT

; 86   : 	{	// forward _Arg as movable

  00000	55		 push	 ebp
  00001	8b ec		 mov	 ebp, esp

; 87   : 	return ((typename tr1::_Remove_reference<_Ty>::_Type&&)_Arg);

  00003	8b 45 08	 mov	 eax, DWORD PTR __Arg$[ebp]

; 88   : 	}

  00006	5d		 pop	 ebp
  00007	c3		 ret	 0
??$move@AAUEntryMentList@ioCampManager@@@std@@YA$$QAUEntryMentList@ioCampManager@@AAU12@@Z ENDP ; std::move<ioCampManager::EntryMentList &>
_TEXT	ENDS
PUBLIC	??$move@AAUAlarmMent@ioCampManager@@@std@@YA$$QAUAlarmMent@ioCampManager@@AAU12@@Z ; std::move<ioCampManager::AlarmMent &>
; Function compile flags: /Ogsp
;	COMDAT ??$move@AAUAlarmMent@ioCampManager@@@std@@YA$$QAUAlarmMent@ioCampManager@@AAU12@@Z
_TEXT	SEGMENT
__Arg$ = 8						; size = 4
??$move@AAUAlarmMent@ioCampManager@@@std@@YA$$QAUAlarmMent@ioCampManager@@AAU12@@Z PROC ; std::move<ioCampManager::AlarmMent &>, COMDAT

; 86   : 	{	// forward _Arg as movable

  00000	55		 push	 ebp
  00001	8b ec		 mov	 ebp, esp

; 87   : 	return ((typename tr1::_Remove_reference<_Ty>::_Type&&)_Arg);

  00003	8b 45 08	 mov	 eax, DWORD PTR __Arg$[ebp]

; 88   : 	}

  00006	5d		 pop	 ebp
  00007	c3		 ret	 0
??$move@AAUAlarmMent@ioCampManager@@@std@@YA$$QAUAlarmMent@ioCampManager@@AAU12@@Z ENDP ; std::move<ioCampManager::AlarmMent &>
_TEXT	ENDS
PUBLIC	??$move@AAUtagHeroRankData@@@std@@YA$$QAUtagHeroRankData@@AAU1@@Z ; std::move<tagHeroRankData &>
; Function compile flags: /Ogsp
;	COMDAT ??$move@AAUtagHeroRankData@@@std@@YA$$QAUtagHeroRankData@@AAU1@@Z
_TEXT	SEGMENT
__Arg$ = 8						; size = 4
??$move@AAUtagHeroRankData@@@std@@YA$$QAUtagHeroRankData@@AAU1@@Z PROC ; std::move<tagHeroRankData &>, COMDAT

; 86   : 	{	// forward _Arg as movable

  00000	55		 push	 ebp
  00001	8b ec		 mov	 ebp, esp

; 87   : 	return ((typename tr1::_Remove_reference<_Ty>::_Type&&)_Arg);

  00003	8b 45 08	 mov	 eax, DWORD PTR __Arg$[ebp]

; 88   : 	}

  00006	5d		 pop	 ebp
  00007	c3		 ret	 0
??$move@AAUtagHeroRankData@@@std@@YA$$QAUtagHeroRankData@@AAU1@@Z ENDP ; std::move<tagHeroRankData &>
_TEXT	ENDS
PUBLIC	??$move@AAUHeroMatchHistory@ioCampManager@@@std@@YA$$QAUHeroMatchHistory@ioCampManager@@AAU12@@Z ; std::move<ioCampManager::HeroMatchHistory &>
; Function compile flags: /Ogsp
;	COMDAT ??$move@AAUHeroMatchHistory@ioCampManager@@@std@@YA$$QAUHeroMatchHistory@ioCampManager@@AAU12@@Z
_TEXT	SEGMENT
__Arg$ = 8						; size = 4
??$move@AAUHeroMatchHistory@ioCampManager@@@std@@YA$$QAUHeroMatchHistory@ioCampManager@@AAU12@@Z PROC ; std::move<ioCampManager::HeroMatchHistory &>, COMDAT

; 86   : 	{	// forward _Arg as movable

  00000	55		 push	 ebp
  00001	8b ec		 mov	 ebp, esp

; 87   : 	return ((typename tr1::_Remove_reference<_Ty>::_Type&&)_Arg);

  00003	8b 45 08	 mov	 eax, DWORD PTR __Arg$[ebp]

; 88   : 	}

  00006	5d		 pop	 ebp
  00007	c3		 ret	 0
??$move@AAUHeroMatchHistory@ioCampManager@@@std@@YA$$QAUHeroMatchHistory@ioCampManager@@AAU12@@Z ENDP ; std::move<ioCampManager::HeroMatchHistory &>
_TEXT	ENDS
PUBLIC	??$_Val_type@PAUCampData@ioCampManager@@@std@@YAPAUCampData@ioCampManager@@PAU12@@Z ; std::_Val_type<ioCampManager::CampData *>
; Function compile flags: /Ogsp
; File c:\program files (x86)\microsoft visual studio 10.0\vc\include\xutility
;	COMDAT ??$_Val_type@PAUCampData@ioCampManager@@@std@@YAPAUCampData@ioCampManager@@PAU12@@Z
_TEXT	SEGMENT
___formal$ = 8						; size = 4
??$_Val_type@PAUCampData@ioCampManager@@@std@@YAPAUCampData@ioCampManager@@PAU12@@Z PROC ; std::_Val_type<ioCampManager::CampData *>, COMDAT

; 790  : 	return (0);

  00000	33 c0		 xor	 eax, eax

; 791  : 	}

  00002	c3		 ret	 0
??$_Val_type@PAUCampData@ioCampManager@@@std@@YAPAUCampData@ioCampManager@@PAU12@@Z ENDP ; std::_Val_type<ioCampManager::CampData *>
_TEXT	ENDS
PUBLIC	??$_Val_type@PAUMentData@ioCampManager@@@std@@YAPAUMentData@ioCampManager@@PAU12@@Z ; std::_Val_type<ioCampManager::MentData *>
; Function compile flags: /Ogsp
;	COMDAT ??$_Val_type@PAUMentData@ioCampManager@@@std@@YAPAUMentData@ioCampManager@@PAU12@@Z
_TEXT	SEGMENT
___formal$ = 8						; size = 4
??$_Val_type@PAUMentData@ioCampManager@@@std@@YAPAUMentData@ioCampManager@@PAU12@@Z PROC ; std::_Val_type<ioCampManager::MentData *>, COMDAT

; 790  : 	return (0);

  00000	33 c0		 xor	 eax, eax

; 791  : 	}

  00002	c3		 ret	 0
??$_Val_type@PAUMentData@ioCampManager@@@std@@YAPAUMentData@ioCampManager@@PAU12@@Z ENDP ; std::_Val_type<ioCampManager::MentData *>
_TEXT	ENDS
PUBLIC	??$_Val_type@PAUEntryMentList@ioCampManager@@@std@@YAPAUEntryMentList@ioCampManager@@PAU12@@Z ; std::_Val_type<ioCampManager::EntryMentList *>
; Function compile flags: /Ogsp
;	COMDAT ??$_Val_type@PAUEntryMentList@ioCampManager@@@std@@YAPAUEntryMentList@ioCampManager@@PAU12@@Z
_TEXT	SEGMENT
___formal$ = 8						; size = 4
??$_Val_type@PAUEntryMentList@ioCampManager@@@std@@YAPAUEntryMentList@ioCampManager@@PAU12@@Z PROC ; std::_Val_type<ioCampManager::EntryMentList *>, COMDAT

; 790  : 	return (0);

  00000	33 c0		 xor	 eax, eax

; 791  : 	}

  00002	c3		 ret	 0
??$_Val_type@PAUEntryMentList@ioCampManager@@@std@@YAPAUEntryMentList@ioCampManager@@PAU12@@Z ENDP ; std::_Val_type<ioCampManager::EntryMentList *>
_TEXT	ENDS
PUBLIC	??$_Val_type@PAUAlarmMent@ioCampManager@@@std@@YAPAUAlarmMent@ioCampManager@@PAU12@@Z ; std::_Val_type<ioCampManager::AlarmMent *>
; Function compile flags: /Ogsp
;	COMDAT ??$_Val_type@PAUAlarmMent@ioCampManager@@@std@@YAPAUAlarmMent@ioCampManager@@PAU12@@Z
_TEXT	SEGMENT
___formal$ = 8						; size = 4
??$_Val_type@PAUAlarmMent@ioCampManager@@@std@@YAPAUAlarmMent@ioCampManager@@PAU12@@Z PROC ; std::_Val_type<ioCampManager::AlarmMent *>, COMDAT

; 790  : 	return (0);

  00000	33 c0		 xor	 eax, eax

; 791  : 	}

  00002	c3		 ret	 0
??$_Val_type@PAUAlarmMent@ioCampManager@@@std@@YAPAUAlarmMent@ioCampManager@@PAU12@@Z ENDP ; std::_Val_type<ioCampManager::AlarmMent *>
_TEXT	ENDS
PUBLIC	??$_Val_type@PAUtagHeroRankData@@@std@@YAPAUtagHeroRankData@@PAU1@@Z ; std::_Val_type<tagHeroRankData *>
; Function compile flags: /Ogsp
;	COMDAT ??$_Val_type@PAUtagHeroRankData@@@std@@YAPAUtagHeroRankData@@PAU1@@Z
_TEXT	SEGMENT
___formal$ = 8						; size = 4
??$_Val_type@PAUtagHeroRankData@@@std@@YAPAUtagHeroRankData@@PAU1@@Z PROC ; std::_Val_type<tagHeroRankData *>, COMDAT

; 790  : 	return (0);

  00000	33 c0		 xor	 eax, eax

; 791  : 	}

  00002	c3		 ret	 0
??$_Val_type@PAUtagHeroRankData@@@std@@YAPAUtagHeroRankData@@PAU1@@Z ENDP ; std::_Val_type<tagHeroRankData *>
_TEXT	ENDS
PUBLIC	?_Orphan_range@?$vector@UHeroMatchHistory@ioCampManager@@V?$allocator@UHeroMatchHistory@ioCampManager@@@std@@@std@@IBEXPAUHeroMatchHistory@ioCampManager@@0@Z ; std::vector<ioCampManager::HeroMatchHistory,std::allocator<ioCampManager::HeroMatchHistory> >::_Orphan_range
; Function compile flags: /Ogsp
; File c:\program files (x86)\microsoft visual studio 10.0\vc\include\vector
;	COMDAT ?_Orphan_range@?$vector@UHeroMatchHistory@ioCampManager@@V?$allocator@UHeroMatchHistory@ioCampManager@@@std@@@std@@IBEXPAUHeroMatchHistory@ioCampManager@@0@Z
_TEXT	SEGMENT
___formal$ = 8						; size = 4
___formal$ = 12						; size = 4
?_Orphan_range@?$vector@UHeroMatchHistory@ioCampManager@@V?$allocator@UHeroMatchHistory@ioCampManager@@@std@@@std@@IBEXPAUHeroMatchHistory@ioCampManager@@0@Z PROC ; std::vector<ioCampManager::HeroMatchHistory,std::allocator<ioCampManager::HeroMatchHistory> >::_Orphan_range, COMDAT
; _this$ = ecx

; 1454 : 		}

  00000	c2 08 00	 ret	 8
?_Orphan_range@?$vector@UHeroMatchHistory@ioCampManager@@V?$allocator@UHeroMatchHistory@ioCampManager@@@std@@@std@@IBEXPAUHeroMatchHistory@ioCampManager@@0@Z ENDP ; std::vector<ioCampManager::HeroMatchHistory,std::allocator<ioCampManager::HeroMatchHistory> >::_Orphan_range
_TEXT	ENDS
PUBLIC	?capacity@?$vector@UHeroMatchHistory@ioCampManager@@V?$allocator@UHeroMatchHistory@ioCampManager@@@std@@@std@@QBEIXZ ; std::vector<ioCampManager::HeroMatchHistory,std::allocator<ioCampManager::HeroMatchHistory> >::capacity
; Function compile flags: /Ogsp
;	COMDAT ?capacity@?$vector@UHeroMatchHistory@ioCampManager@@V?$allocator@UHeroMatchHistory@ioCampManager@@@std@@@std@@QBEIXZ
_TEXT	SEGMENT
?capacity@?$vector@UHeroMatchHistory@ioCampManager@@V?$allocator@UHeroMatchHistory@ioCampManager@@@std@@@std@@QBEIXZ PROC ; std::vector<ioCampManager::HeroMatchHistory,std::allocator<ioCampManager::HeroMatchHistory> >::capacity, COMDAT
; _this$ = ecx

; 777  : 		return (this->_Myend - this->_Myfirst);

  00000	8b 41 08	 mov	 eax, DWORD PTR [ecx+8]
  00003	2b 01		 sub	 eax, DWORD PTR [ecx]
  00005	6a 3c		 push	 60			; 0000003cH
  00007	99		 cdq
  00008	59		 pop	 ecx
  00009	f7 f9		 idiv	 ecx

; 778  : 		}

  0000b	c3		 ret	 0
?capacity@?$vector@UHeroMatchHistory@ioCampManager@@V?$allocator@UHeroMatchHistory@ioCampManager@@@std@@@std@@QBEIXZ ENDP ; std::vector<ioCampManager::HeroMatchHistory,std::allocator<ioCampManager::HeroMatchHistory> >::capacity
_TEXT	ENDS
PUBLIC	?_Xlen@?$vector@UHeroMatchHistory@ioCampManager@@V?$allocator@UHeroMatchHistory@ioCampManager@@@std@@@std@@IBEXXZ ; std::vector<ioCampManager::HeroMatchHistory,std::allocator<ioCampManager::HeroMatchHistory> >::_Xlen
; Function compile flags: /Ogsp
;	COMDAT ?_Xlen@?$vector@UHeroMatchHistory@ioCampManager@@V?$allocator@UHeroMatchHistory@ioCampManager@@@std@@@std@@IBEXXZ
_TEXT	SEGMENT
?_Xlen@?$vector@UHeroMatchHistory@ioCampManager@@V?$allocator@UHeroMatchHistory@ioCampManager@@@std@@@std@@IBEXXZ PROC ; std::vector<ioCampManager::HeroMatchHistory,std::allocator<ioCampManager::HeroMatchHistory> >::_Xlen, COMDAT
; _this$ = ecx

; 1427 : 		_Xlength_error("vector<T> too long");

  00000	68 00 00 00 00	 push	 OFFSET ??_C@_0BD@OLBABOEK@vector?$DMT?$DO?5too?5long?$AA@
  00005	ff 15 00 00 00
	00		 call	 DWORD PTR __imp_?_Xlength_error@std@@YAXPBD@Z
$LN4@Xlen@6:
$LN3@Xlen@6:
  0000b	cc		 int	 3
?_Xlen@?$vector@UHeroMatchHistory@ioCampManager@@V?$allocator@UHeroMatchHistory@ioCampManager@@@std@@@std@@IBEXXZ ENDP ; std::vector<ioCampManager::HeroMatchHistory,std::allocator<ioCampManager::HeroMatchHistory> >::_Xlen
_TEXT	ENDS
PUBLIC	?max_size@?$allocator@UHeroMatchHistory@ioCampManager@@@std@@QBEIXZ ; std::allocator<ioCampManager::HeroMatchHistory>::max_size
; Function compile flags: /Ogsp
; File c:\program files (x86)\microsoft visual studio 10.0\vc\include\xmemory
;	COMDAT ?max_size@?$allocator@UHeroMatchHistory@ioCampManager@@@std@@QBEIXZ
_TEXT	SEGMENT
?max_size@?$allocator@UHeroMatchHistory@ioCampManager@@@std@@QBEIXZ PROC ; std::allocator<ioCampManager::HeroMatchHistory>::max_size, COMDAT
; _this$ = ecx

; 218  : 		_SIZT _Count = (_SIZT)(-1) / sizeof (_Ty);
; 219  : 		return (0 < _Count ? _Count : 1);

  00000	b8 44 44 44 04	 mov	 eax, 71582788		; 04444444H

; 220  : 		}

  00005	c3		 ret	 0
?max_size@?$allocator@UHeroMatchHistory@ioCampManager@@@std@@QBEIXZ ENDP ; std::allocator<ioCampManager::HeroMatchHistory>::max_size
_TEXT	ENDS
PUBLIC	??$_Iter_cat@V?$_Vector_iterator@V?$_Vector_val@UHeroMatchHistory@ioCampManager@@V?$allocator@UHeroMatchHistory@ioCampManager@@@std@@@std@@@std@@@std@@YA?AUrandom_access_iterator_tag@0@ABV?$_Vector_iterator@V?$_Vector_val@UHeroMatchHistory@ioCampManager@@V?$allocator@UHeroMatchHistory@ioCampManager@@@std@@@std@@@0@@Z ; std::_Iter_cat<std::_Vector_iterator<std::_Vector_val<ioCampManager::HeroMatchHistory,std::allocator<ioCampManager::HeroMatchHistory> > > >
; Function compile flags: /Ogsp
; File c:\program files (x86)\microsoft visual studio 10.0\vc\include\xutility
;	COMDAT ??$_Iter_cat@V?$_Vector_iterator@V?$_Vector_val@UHeroMatchHistory@ioCampManager@@V?$allocator@UHeroMatchHistory@ioCampManager@@@std@@@std@@@std@@@std@@YA?AUrandom_access_iterator_tag@0@ABV?$_Vector_iterator@V?$_Vector_val@UHeroMatchHistory@ioCampManager@@V?$allocator@UHeroMatchHistory@ioCampManager@@@std@@@std@@@0@@Z
_TEXT	SEGMENT
___$ReturnUdt$ = 8					; size = 4
___formal$ = 12						; size = 4
??$_Iter_cat@V?$_Vector_iterator@V?$_Vector_val@UHeroMatchHistory@ioCampManager@@V?$allocator@UHeroMatchHistory@ioCampManager@@@std@@@std@@@std@@@std@@YA?AUrandom_access_iterator_tag@0@ABV?$_Vector_iterator@V?$_Vector_val@UHeroMatchHistory@ioCampManager@@V?$allocator@UHeroMatchHistory@ioCampManager@@@std@@@std@@@0@@Z PROC ; std::_Iter_cat<std::_Vector_iterator<std::_Vector_val<ioCampManager::HeroMatchHistory,std::allocator<ioCampManager::HeroMatchHistory> > > >, COMDAT

; 476  : 	{	// return category from iterator argument

  00000	55		 push	 ebp
  00001	8b ec		 mov	 ebp, esp

; 477  : 	typename iterator_traits<_Iter>::iterator_category _Cat;
; 478  : 	return (_Cat);

  00003	8b 45 08	 mov	 eax, DWORD PTR ___$ReturnUdt$[ebp]

; 479  : 	}

  00006	5d		 pop	 ebp
  00007	c3		 ret	 0
??$_Iter_cat@V?$_Vector_iterator@V?$_Vector_val@UHeroMatchHistory@ioCampManager@@V?$allocator@UHeroMatchHistory@ioCampManager@@@std@@@std@@@std@@@std@@YA?AUrandom_access_iterator_tag@0@ABV?$_Vector_iterator@V?$_Vector_val@UHeroMatchHistory@ioCampManager@@V?$allocator@UHeroMatchHistory@ioCampManager@@@std@@@std@@@0@@Z ENDP ; std::_Iter_cat<std::_Vector_iterator<std::_Vector_val<ioCampManager::HeroMatchHistory,std::allocator<ioCampManager::HeroMatchHistory> > > >
_TEXT	ENDS
PUBLIC	??$_Copy_impl@PAUMentData@ioCampManager@@PAU12@@std@@YAPAUMentData@ioCampManager@@PAU12@00U_Nonscalar_ptr_iterator_tag@0@@Z ; std::_Copy_impl<ioCampManager::MentData *,ioCampManager::MentData *>
; Function compile flags: /Ogsp
;	COMDAT ??$_Copy_impl@PAUMentData@ioCampManager@@PAU12@@std@@YAPAUMentData@ioCampManager@@PAU12@00U_Nonscalar_ptr_iterator_tag@0@@Z
_TEXT	SEGMENT
__First$ = 8						; size = 4
__Last$ = 12						; size = 4
__Dest$ = 16						; size = 4
___formal$ = 20						; size = 1
??$_Copy_impl@PAUMentData@ioCampManager@@PAU12@@std@@YAPAUMentData@ioCampManager@@PAU12@00U_Nonscalar_ptr_iterator_tag@0@@Z PROC ; std::_Copy_impl<ioCampManager::MentData *,ioCampManager::MentData *>, COMDAT

; 2142 : 	{	// copy [_First, _Last) to [_Dest, ...), arbitrary iterators

  00000	55		 push	 ebp
  00001	8b ec		 mov	 ebp, esp

; 2143 : 	for (; _First != _Last; ++_Dest, ++_First)

  00003	8b 55 08	 mov	 edx, DWORD PTR __First$[ebp]
  00006	3b 55 0c	 cmp	 edx, DWORD PTR __Last$[ebp]
  00009	74 1d		 je	 SHORT $LN8@Copy_impl
  0000b	56		 push	 esi
  0000c	b8 08 01 00 00	 mov	 eax, 264		; 00000108H
  00011	57		 push	 edi
$LL3@Copy_impl:

; 2144 : 		*_Dest = *_First;

  00012	8b 7d 10	 mov	 edi, DWORD PTR __Dest$[ebp]
  00015	01 45 10	 add	 DWORD PTR __Dest$[ebp], eax
  00018	8b f2		 mov	 esi, edx
  0001a	6a 42		 push	 66			; 00000042H
  0001c	03 d0		 add	 edx, eax
  0001e	59		 pop	 ecx
  0001f	f3 a5		 rep movsd
  00021	3b 55 0c	 cmp	 edx, DWORD PTR __Last$[ebp]
  00024	75 ec		 jne	 SHORT $LL3@Copy_impl
  00026	5f		 pop	 edi
  00027	5e		 pop	 esi
$LN8@Copy_impl:

; 2145 : 	return (_Dest);

  00028	8b 45 10	 mov	 eax, DWORD PTR __Dest$[ebp]

; 2146 : 	}

  0002b	5d		 pop	 ebp
  0002c	c3		 ret	 0
??$_Copy_impl@PAUMentData@ioCampManager@@PAU12@@std@@YAPAUMentData@ioCampManager@@PAU12@00U_Nonscalar_ptr_iterator_tag@0@@Z ENDP ; std::_Copy_impl<ioCampManager::MentData *,ioCampManager::MentData *>
_TEXT	ENDS
PUBLIC	??$_Destroy@UCampData@ioCampManager@@@std@@YAXPAUCampData@ioCampManager@@@Z ; std::_Destroy<ioCampManager::CampData>
; Function compile flags: /Ogsp
; File c:\program files (x86)\microsoft visual studio 10.0\vc\include\xmemory
;	COMDAT ??$_Destroy@UCampData@ioCampManager@@@std@@YAXPAUCampData@ioCampManager@@@Z
_TEXT	SEGMENT
__Ptr$ = 8						; size = 4
??$_Destroy@UCampData@ioCampManager@@@std@@YAXPAUCampData@ioCampManager@@@Z PROC ; std::_Destroy<ioCampManager::CampData>, COMDAT

; 63   : 	_Ptr->~_Ty();
; 64   : 	}

  00000	c3		 ret	 0
??$_Destroy@UCampData@ioCampManager@@@std@@YAXPAUCampData@ioCampManager@@@Z ENDP ; std::_Destroy<ioCampManager::CampData>
_TEXT	ENDS
PUBLIC	??$_Allocate@UHeroMatchHistory@ioCampManager@@@std@@YAPAUHeroMatchHistory@ioCampManager@@IPAU12@@Z ; std::_Allocate<ioCampManager::HeroMatchHistory>
; Function compile flags: /Ogsp
;	COMDAT ??$_Allocate@UHeroMatchHistory@ioCampManager@@@std@@YAPAUHeroMatchHistory@ioCampManager@@IPAU12@@Z
_TEXT	SEGMENT
$T524534 = -12						; size = 12
$T524538 = 8						; size = 4
__Count$ = 8						; size = 4
___formal$ = 12						; size = 4
??$_Allocate@UHeroMatchHistory@ioCampManager@@@std@@YAPAUHeroMatchHistory@ioCampManager@@IPAU12@@Z PROC ; std::_Allocate<ioCampManager::HeroMatchHistory>, COMDAT

; 30   : 	{	// allocate storage for _Count elements of type _Ty

  00000	55		 push	 ebp
  00001	8b ec		 mov	 ebp, esp

; 31   : 	void *_Ptr = 0;
; 32   : 
; 33   : 	if (_Count <= 0)

  00003	8b 4d 08	 mov	 ecx, DWORD PTR __Count$[ebp]
  00006	83 ec 0c	 sub	 esp, 12			; 0000000cH
  00009	33 c0		 xor	 eax, eax
  0000b	85 c9		 test	 ecx, ecx

; 34   : 		_Count = 0;
; 35   : 	else if (((_SIZT)(-1) / sizeof (_Ty) < _Count)

  0000d	74 3c		 je	 SHORT $LN5@Allocate@6

; 36   : 		|| (_Ptr = ::operator new(_Count * sizeof (_Ty))) == 0)

  0000f	81 f9 44 44 44
	04		 cmp	 ecx, 71582788		; 04444444H
  00015	77 0e		 ja	 SHORT $LN1@Allocate@6
  00017	6b c9 3c	 imul	 ecx, 60			; 0000003cH
  0001a	51		 push	 ecx
  0001b	e8 00 00 00 00	 call	 ??2@YAPAXI@Z		; operator new
  00020	59		 pop	 ecx
  00021	85 c0		 test	 eax, eax

; 38   : 
; 39   : 	return ((_Ty _FARQ *)_Ptr);

  00023	75 26		 jne	 SHORT $LN5@Allocate@6
$LN1@Allocate@6:

; 37   : 		_THROW_NCEE(bad_alloc, 0);

  00025	83 65 08 00	 and	 DWORD PTR $T524538[ebp], 0
  00029	8d 45 08	 lea	 eax, DWORD PTR $T524538[ebp]
  0002c	50		 push	 eax
  0002d	8d 4d f4	 lea	 ecx, DWORD PTR $T524534[ebp]
  00030	ff 15 00 00 00
	00		 call	 DWORD PTR __imp_??0exception@std@@QAE@ABQBD@Z
  00036	68 00 00 00 00	 push	 OFFSET __TI2?AVbad_alloc@std@@
  0003b	8d 45 f4	 lea	 eax, DWORD PTR $T524534[ebp]
  0003e	50		 push	 eax
  0003f	c7 45 f4 00 00
	00 00		 mov	 DWORD PTR $T524534[ebp], OFFSET ??_7bad_alloc@std@@6B@
  00046	e8 00 00 00 00	 call	 __CxxThrowException@8
$LN10@Allocate@6:
$LN5@Allocate@6:

; 40   : 	}

  0004b	c9		 leave
  0004c	c3		 ret	 0
$LN9@Allocate@6:
??$_Allocate@UHeroMatchHistory@ioCampManager@@@std@@YAPAUHeroMatchHistory@ioCampManager@@IPAU12@@Z ENDP ; std::_Allocate<ioCampManager::HeroMatchHistory>
_TEXT	ENDS
PUBLIC	??_GtagHeroRankData@@QAEPAXI@Z			; tagHeroRankData::`scalar deleting destructor'
; Function compile flags: /Ogsp
;	COMDAT ??_GtagHeroRankData@@QAEPAXI@Z
_TEXT	SEGMENT
___flags$ = 8						; size = 4
??_GtagHeroRankData@@QAEPAXI@Z PROC			; tagHeroRankData::`scalar deleting destructor', COMDAT
; _this$ = ecx
  00000	55		 push	 ebp
  00001	8b ec		 mov	 ebp, esp
  00003	56		 push	 esi
  00004	8b f1		 mov	 esi, ecx
  00006	8d 4e 08	 lea	 ecx, DWORD PTR [esi+8]
  00009	ff 15 00 00 00
	00		 call	 DWORD PTR __imp_??1ioHashString@@QAE@XZ
  0000f	f6 45 08 01	 test	 BYTE PTR ___flags$[ebp], 1
  00013	74 07		 je	 SHORT $LN1@scalar@2
  00015	56		 push	 esi
  00016	e8 00 00 00 00	 call	 ??3@YAXPAX@Z		; operator delete
  0001b	59		 pop	 ecx
$LN1@scalar@2:
  0001c	8b c6		 mov	 eax, esi
  0001e	5e		 pop	 esi
  0001f	5d		 pop	 ebp
  00020	c2 04 00	 ret	 4
??_GtagHeroRankData@@QAEPAXI@Z ENDP			; tagHeroRankData::`scalar deleting destructor'
_TEXT	ENDS
PUBLIC	??_GHeroMatchHistory@ioCampManager@@QAEPAXI@Z	; ioCampManager::HeroMatchHistory::`scalar deleting destructor'
; Function compile flags: /Ogsp
;	COMDAT ??_GHeroMatchHistory@ioCampManager@@QAEPAXI@Z
_TEXT	SEGMENT
___flags$ = 8						; size = 4
??_GHeroMatchHistory@ioCampManager@@QAEPAXI@Z PROC	; ioCampManager::HeroMatchHistory::`scalar deleting destructor', COMDAT
; _this$ = ecx
  00000	55		 push	 ebp
  00001	8b ec		 mov	 ebp, esp
  00003	56		 push	 esi
  00004	8b f1		 mov	 esi, ecx
  00006	8d 4e 18	 lea	 ecx, DWORD PTR [esi+24]
  00009	ff 15 00 00 00
	00		 call	 DWORD PTR __imp_??1ioHashString@@QAE@XZ
  0000f	f6 45 08 01	 test	 BYTE PTR ___flags$[ebp], 1
  00013	74 07		 je	 SHORT $LN1@scalar@3
  00015	56		 push	 esi
  00016	e8 00 00 00 00	 call	 ??3@YAXPAX@Z		; operator delete
  0001b	59		 pop	 ecx
$LN1@scalar@3:
  0001c	8b c6		 mov	 eax, esi
  0001e	5e		 pop	 esi
  0001f	5d		 pop	 ebp
  00020	c2 04 00	 ret	 4
??_GHeroMatchHistory@ioCampManager@@QAEPAXI@Z ENDP	; ioCampManager::HeroMatchHistory::`scalar deleting destructor'
_TEXT	ENDS
PUBLIC	?_Unchecked@?$_Vector_iterator@V?$_Vector_val@UHeroMatchHistory@ioCampManager@@V?$allocator@UHeroMatchHistory@ioCampManager@@@std@@@std@@@std@@QBEPAUHeroMatchHistory@ioCampManager@@XZ ; std::_Vector_iterator<std::_Vector_val<ioCampManager::HeroMatchHistory,std::allocator<ioCampManager::HeroMatchHistory> > >::_Unchecked
; Function compile flags: /Ogsp
; File c:\program files (x86)\microsoft visual studio 10.0\vc\include\vector
;	COMDAT ?_Unchecked@?$_Vector_iterator@V?$_Vector_val@UHeroMatchHistory@ioCampManager@@V?$allocator@UHeroMatchHistory@ioCampManager@@@std@@@std@@@std@@QBEPAUHeroMatchHistory@ioCampManager@@XZ
_TEXT	SEGMENT
?_Unchecked@?$_Vector_iterator@V?$_Vector_val@UHeroMatchHistory@ioCampManager@@V?$allocator@UHeroMatchHistory@ioCampManager@@@std@@@std@@@std@@QBEPAUHeroMatchHistory@ioCampManager@@XZ PROC ; std::_Vector_iterator<std::_Vector_val<ioCampManager::HeroMatchHistory,std::allocator<ioCampManager::HeroMatchHistory> > >::_Unchecked, COMDAT
; _this$ = ecx

; 317  : 		return (_Unchecked_type(this->_Ptr));

  00000	8b 01		 mov	 eax, DWORD PTR [ecx]

; 318  : 		}

  00002	c3		 ret	 0
?_Unchecked@?$_Vector_iterator@V?$_Vector_val@UHeroMatchHistory@ioCampManager@@V?$allocator@UHeroMatchHistory@ioCampManager@@@std@@@std@@@std@@QBEPAUHeroMatchHistory@ioCampManager@@XZ ENDP ; std::_Vector_iterator<std::_Vector_val<ioCampManager::HeroMatchHistory,std::allocator<ioCampManager::HeroMatchHistory> > >::_Unchecked
_TEXT	ENDS
PUBLIC	??$_Dist_type@PAUHeroMatchHistory@ioCampManager@@@std@@YAPAHPAUHeroMatchHistory@ioCampManager@@@Z ; std::_Dist_type<ioCampManager::HeroMatchHistory *>
; Function compile flags: /Ogsp
; File c:\program files (x86)\microsoft visual studio 10.0\vc\include\xutility
;	COMDAT ??$_Dist_type@PAUHeroMatchHistory@ioCampManager@@@std@@YAPAHPAUHeroMatchHistory@ioCampManager@@@Z
_TEXT	SEGMENT
___formal$ = 8						; size = 4
??$_Dist_type@PAUHeroMatchHistory@ioCampManager@@@std@@YAPAHPAUHeroMatchHistory@ioCampManager@@@Z PROC ; std::_Dist_type<ioCampManager::HeroMatchHistory *>, COMDAT

; 850  : 	return (0);

  00000	33 c0		 xor	 eax, eax

; 851  : 	}

  00002	c3		 ret	 0
??$_Dist_type@PAUHeroMatchHistory@ioCampManager@@@std@@YAPAHPAUHeroMatchHistory@ioCampManager@@@Z ENDP ; std::_Dist_type<ioCampManager::HeroMatchHistory *>
_TEXT	ENDS
PUBLIC	??$_Val_type@PAUHeroMatchHistory@ioCampManager@@@std@@YAPAUHeroMatchHistory@ioCampManager@@PAU12@@Z ; std::_Val_type<ioCampManager::HeroMatchHistory *>
; Function compile flags: /Ogsp
;	COMDAT ??$_Val_type@PAUHeroMatchHistory@ioCampManager@@@std@@YAPAUHeroMatchHistory@ioCampManager@@PAU12@@Z
_TEXT	SEGMENT
___formal$ = 8						; size = 4
??$_Val_type@PAUHeroMatchHistory@ioCampManager@@@std@@YAPAUHeroMatchHistory@ioCampManager@@PAU12@@Z PROC ; std::_Val_type<ioCampManager::HeroMatchHistory *>, COMDAT

; 790  : 	return (0);

  00000	33 c0		 xor	 eax, eax

; 791  : 	}

  00002	c3		 ret	 0
??$_Val_type@PAUHeroMatchHistory@ioCampManager@@@std@@YAPAUHeroMatchHistory@ioCampManager@@PAU12@@Z ENDP ; std::_Val_type<ioCampManager::HeroMatchHistory *>
_TEXT	ENDS
PUBLIC	??$forward@UCampData@ioCampManager@@@std@@YA$$QAUCampData@ioCampManager@@AAU12@@Z ; std::forward<ioCampManager::CampData>
; Function compile flags: /Ogsp
; File c:\program files (x86)\microsoft visual studio 10.0\vc\include\utility
;	COMDAT ??$forward@UCampData@ioCampManager@@@std@@YA$$QAUCampData@ioCampManager@@AAU12@@Z
_TEXT	SEGMENT
__Arg$ = 8						; size = 4
??$forward@UCampData@ioCampManager@@@std@@YA$$QAUCampData@ioCampManager@@AAU12@@Z PROC ; std::forward<ioCampManager::CampData>, COMDAT

; 78   : 	{	// forward _Arg, given explicitly specified type parameter

  00000	55		 push	 ebp
  00001	8b ec		 mov	 ebp, esp

; 79   : 	return ((_Ty&&)_Arg);

  00003	8b 45 08	 mov	 eax, DWORD PTR __Arg$[ebp]

; 80   : 	}

  00006	5d		 pop	 ebp
  00007	c3		 ret	 0
??$forward@UCampData@ioCampManager@@@std@@YA$$QAUCampData@ioCampManager@@AAU12@@Z ENDP ; std::forward<ioCampManager::CampData>
_TEXT	ENDS
PUBLIC	??$forward@UMentData@ioCampManager@@@std@@YA$$QAUMentData@ioCampManager@@AAU12@@Z ; std::forward<ioCampManager::MentData>
; Function compile flags: /Ogsp
;	COMDAT ??$forward@UMentData@ioCampManager@@@std@@YA$$QAUMentData@ioCampManager@@AAU12@@Z
_TEXT	SEGMENT
__Arg$ = 8						; size = 4
??$forward@UMentData@ioCampManager@@@std@@YA$$QAUMentData@ioCampManager@@AAU12@@Z PROC ; std::forward<ioCampManager::MentData>, COMDAT

; 78   : 	{	// forward _Arg, given explicitly specified type parameter

  00000	55		 push	 ebp
  00001	8b ec		 mov	 ebp, esp

; 79   : 	return ((_Ty&&)_Arg);

  00003	8b 45 08	 mov	 eax, DWORD PTR __Arg$[ebp]

; 80   : 	}

  00006	5d		 pop	 ebp
  00007	c3		 ret	 0
??$forward@UMentData@ioCampManager@@@std@@YA$$QAUMentData@ioCampManager@@AAU12@@Z ENDP ; std::forward<ioCampManager::MentData>
_TEXT	ENDS
PUBLIC	??$forward@UEntryMentList@ioCampManager@@@std@@YA$$QAUEntryMentList@ioCampManager@@AAU12@@Z ; std::forward<ioCampManager::EntryMentList>
; Function compile flags: /Ogsp
;	COMDAT ??$forward@UEntryMentList@ioCampManager@@@std@@YA$$QAUEntryMentList@ioCampManager@@AAU12@@Z
_TEXT	SEGMENT
__Arg$ = 8						; size = 4
??$forward@UEntryMentList@ioCampManager@@@std@@YA$$QAUEntryMentList@ioCampManager@@AAU12@@Z PROC ; std::forward<ioCampManager::EntryMentList>, COMDAT

; 78   : 	{	// forward _Arg, given explicitly specified type parameter

  00000	55		 push	 ebp
  00001	8b ec		 mov	 ebp, esp

; 79   : 	return ((_Ty&&)_Arg);

  00003	8b 45 08	 mov	 eax, DWORD PTR __Arg$[ebp]

; 80   : 	}

  00006	5d		 pop	 ebp
  00007	c3		 ret	 0
??$forward@UEntryMentList@ioCampManager@@@std@@YA$$QAUEntryMentList@ioCampManager@@AAU12@@Z ENDP ; std::forward<ioCampManager::EntryMentList>
_TEXT	ENDS
PUBLIC	??$forward@UAlarmMent@ioCampManager@@@std@@YA$$QAUAlarmMent@ioCampManager@@AAU12@@Z ; std::forward<ioCampManager::AlarmMent>
; Function compile flags: /Ogsp
;	COMDAT ??$forward@UAlarmMent@ioCampManager@@@std@@YA$$QAUAlarmMent@ioCampManager@@AAU12@@Z
_TEXT	SEGMENT
__Arg$ = 8						; size = 4
??$forward@UAlarmMent@ioCampManager@@@std@@YA$$QAUAlarmMent@ioCampManager@@AAU12@@Z PROC ; std::forward<ioCampManager::AlarmMent>, COMDAT

; 78   : 	{	// forward _Arg, given explicitly specified type parameter

  00000	55		 push	 ebp
  00001	8b ec		 mov	 ebp, esp

; 79   : 	return ((_Ty&&)_Arg);

  00003	8b 45 08	 mov	 eax, DWORD PTR __Arg$[ebp]

; 80   : 	}

  00006	5d		 pop	 ebp
  00007	c3		 ret	 0
??$forward@UAlarmMent@ioCampManager@@@std@@YA$$QAUAlarmMent@ioCampManager@@AAU12@@Z ENDP ; std::forward<ioCampManager::AlarmMent>
_TEXT	ENDS
PUBLIC	??$forward@UtagHeroRankData@@@std@@YA$$QAUtagHeroRankData@@AAU1@@Z ; std::forward<tagHeroRankData>
; Function compile flags: /Ogsp
;	COMDAT ??$forward@UtagHeroRankData@@@std@@YA$$QAUtagHeroRankData@@AAU1@@Z
_TEXT	SEGMENT
__Arg$ = 8						; size = 4
??$forward@UtagHeroRankData@@@std@@YA$$QAUtagHeroRankData@@AAU1@@Z PROC ; std::forward<tagHeroRankData>, COMDAT

; 78   : 	{	// forward _Arg, given explicitly specified type parameter

  00000	55		 push	 ebp
  00001	8b ec		 mov	 ebp, esp

; 79   : 	return ((_Ty&&)_Arg);

  00003	8b 45 08	 mov	 eax, DWORD PTR __Arg$[ebp]

; 80   : 	}

  00006	5d		 pop	 ebp
  00007	c3		 ret	 0
??$forward@UtagHeroRankData@@@std@@YA$$QAUtagHeroRankData@@AAU1@@Z ENDP ; std::forward<tagHeroRankData>
_TEXT	ENDS
PUBLIC	??$_Ptr_cat@V?$_Vector_const_iterator@V?$_Vector_val@UMentData@ioCampManager@@V?$allocator@UMentData@ioCampManager@@@std@@@std@@@std@@PAUMentData@ioCampManager@@@std@@YA?AU_Nonscalar_ptr_iterator_tag@0@AAV?$_Vector_const_iterator@V?$_Vector_val@UMentData@ioCampManager@@V?$allocator@UMentData@ioCampManager@@@std@@@std@@@0@AAPAUMentData@ioCampManager@@@Z ; std::_Ptr_cat<std::_Vector_const_iterator<std::_Vector_val<ioCampManager::MentData,std::allocator<ioCampManager::MentData> > >,ioCampManager::MentData *>
; Function compile flags: /Ogsp
; File c:\program files (x86)\microsoft visual studio 10.0\vc\include\xutility
;	COMDAT ??$_Ptr_cat@V?$_Vector_const_iterator@V?$_Vector_val@UMentData@ioCampManager@@V?$allocator@UMentData@ioCampManager@@@std@@@std@@@std@@PAUMentData@ioCampManager@@@std@@YA?AU_Nonscalar_ptr_iterator_tag@0@AAV?$_Vector_const_iterator@V?$_Vector_val@UMentData@ioCampManager@@V?$allocator@UMentData@ioCampManager@@@std@@@std@@@0@AAPAUMentData@ioCampManager@@@Z
_TEXT	SEGMENT
__Cat$ = -1						; size = 1
___formal$ = 8						; size = 4
___formal$ = 12						; size = 4
??$_Ptr_cat@V?$_Vector_const_iterator@V?$_Vector_val@UMentData@ioCampManager@@V?$allocator@UMentData@ioCampManager@@@std@@@std@@@std@@PAUMentData@ioCampManager@@@std@@YA?AU_Nonscalar_ptr_iterator_tag@0@AAV?$_Vector_const_iterator@V?$_Vector_val@UMentData@ioCampManager@@V?$allocator@UMentData@ioCampManager@@@std@@@std@@@0@AAPAUMentData@ioCampManager@@@Z PROC ; std::_Ptr_cat<std::_Vector_const_iterator<std::_Vector_val<ioCampManager::MentData,std::allocator<ioCampManager::MentData> > >,ioCampManager::MentData *>, COMDAT

; 485  : 	{	// return pointer category from arbitrary arguments

  00000	55		 push	 ebp
  00001	8b ec		 mov	 ebp, esp
  00003	51		 push	 ecx

; 486  : 	_Nonscalar_ptr_iterator_tag _Cat;
; 487  : 	return (_Cat);

  00004	8a 45 ff	 mov	 al, BYTE PTR __Cat$[ebp]

; 488  : 	}

  00007	c9		 leave
  00008	c3		 ret	 0
??$_Ptr_cat@V?$_Vector_const_iterator@V?$_Vector_val@UMentData@ioCampManager@@V?$allocator@UMentData@ioCampManager@@@std@@@std@@@std@@PAUMentData@ioCampManager@@@std@@YA?AU_Nonscalar_ptr_iterator_tag@0@AAV?$_Vector_const_iterator@V?$_Vector_val@UMentData@ioCampManager@@V?$allocator@UMentData@ioCampManager@@@std@@@std@@@0@AAPAUMentData@ioCampManager@@@Z ENDP ; std::_Ptr_cat<std::_Vector_const_iterator<std::_Vector_val<ioCampManager::MentData,std::allocator<ioCampManager::MentData> > >,ioCampManager::MentData *>
_TEXT	ENDS
PUBLIC	??0HeroMatchHistory@ioCampManager@@QAE@ABU01@@Z	; ioCampManager::HeroMatchHistory::HeroMatchHistory
; Function compile flags: /Ogsp
;	COMDAT ??0HeroMatchHistory@ioCampManager@@QAE@ABU01@@Z
_TEXT	SEGMENT
___that$ = 8						; size = 4
??0HeroMatchHistory@ioCampManager@@QAE@ABU01@@Z PROC	; ioCampManager::HeroMatchHistory::HeroMatchHistory, COMDAT
; _this$ = ecx
  00000	55		 push	 ebp
  00001	8b ec		 mov	 ebp, esp
  00003	56		 push	 esi
  00004	8b f1		 mov	 esi, ecx
  00006	57		 push	 edi
  00007	8b 7d 08	 mov	 edi, DWORD PTR ___that$[ebp]
  0000a	8b 07		 mov	 eax, DWORD PTR [edi]
  0000c	89 06		 mov	 DWORD PTR [esi], eax
  0000e	8b 47 04	 mov	 eax, DWORD PTR [edi+4]
  00011	89 46 04	 mov	 DWORD PTR [esi+4], eax
  00014	8b 47 08	 mov	 eax, DWORD PTR [edi+8]
  00017	89 46 08	 mov	 DWORD PTR [esi+8], eax
  0001a	8b 47 0c	 mov	 eax, DWORD PTR [edi+12]
  0001d	89 46 0c	 mov	 DWORD PTR [esi+12], eax
  00020	8b 47 10	 mov	 eax, DWORD PTR [edi+16]
  00023	89 46 10	 mov	 DWORD PTR [esi+16], eax
  00026	8b 47 14	 mov	 eax, DWORD PTR [edi+20]
  00029	89 46 14	 mov	 DWORD PTR [esi+20], eax
  0002c	8d 47 18	 lea	 eax, DWORD PTR [edi+24]
  0002f	50		 push	 eax
  00030	8d 4e 18	 lea	 ecx, DWORD PTR [esi+24]
  00033	ff 15 00 00 00
	00		 call	 DWORD PTR __imp_??0ioHashString@@QAE@ABV0@@Z
  00039	8a 47 28	 mov	 al, BYTE PTR [edi+40]
  0003c	88 46 28	 mov	 BYTE PTR [esi+40], al
  0003f	8b 47 2c	 mov	 eax, DWORD PTR [edi+44]
  00042	89 46 2c	 mov	 DWORD PTR [esi+44], eax
  00045	8b 47 30	 mov	 eax, DWORD PTR [edi+48]
  00048	89 46 30	 mov	 DWORD PTR [esi+48], eax
  0004b	8a 47 34	 mov	 al, BYTE PTR [edi+52]
  0004e	88 46 34	 mov	 BYTE PTR [esi+52], al
  00051	8b 47 38	 mov	 eax, DWORD PTR [edi+56]
  00054	89 46 38	 mov	 DWORD PTR [esi+56], eax
  00057	5f		 pop	 edi
  00058	8b c6		 mov	 eax, esi
  0005a	5e		 pop	 esi
  0005b	5d		 pop	 ebp
  0005c	c2 04 00	 ret	 4
??0HeroMatchHistory@ioCampManager@@QAE@ABU01@@Z ENDP	; ioCampManager::HeroMatchHistory::HeroMatchHistory
_TEXT	ENDS
PUBLIC	??D?$_Vector_const_iterator@V?$_Vector_val@UMentData@ioCampManager@@V?$allocator@UMentData@ioCampManager@@@std@@@std@@@std@@QBEABUMentData@ioCampManager@@XZ ; std::_Vector_const_iterator<std::_Vector_val<ioCampManager::MentData,std::allocator<ioCampManager::MentData> > >::operator*
; Function compile flags: /Ogsp
; File c:\program files (x86)\microsoft visual studio 10.0\vc\include\vector
;	COMDAT ??D?$_Vector_const_iterator@V?$_Vector_val@UMentData@ioCampManager@@V?$allocator@UMentData@ioCampManager@@@std@@@std@@@std@@QBEABUMentData@ioCampManager@@XZ
_TEXT	SEGMENT
??D?$_Vector_const_iterator@V?$_Vector_val@UMentData@ioCampManager@@V?$allocator@UMentData@ioCampManager@@@std@@@std@@@std@@QBEABUMentData@ioCampManager@@XZ PROC ; std::_Vector_const_iterator<std::_Vector_val<ioCampManager::MentData,std::allocator<ioCampManager::MentData> > >::operator*, COMDAT
; _this$ = ecx

; 64   :  #if _ITERATOR_DEBUG_LEVEL == 2
; 65   : 		if (this->_Getcont() == 0
; 66   : 			|| this->_Ptr == 0
; 67   : 			|| this->_Ptr < ((_Myvec *)this->_Getcont())->_Myfirst
; 68   : 			|| ((_Myvec *)this->_Getcont())->_Mylast <= this->_Ptr)
; 69   : 			{	// report error
; 70   : 			_DEBUG_ERROR("vector iterator not dereferencable");
; 71   : 			_SCL_SECURE_OUT_OF_RANGE;
; 72   : 			}
; 73   : 
; 74   :  #elif _ITERATOR_DEBUG_LEVEL == 1
; 75   : 		_SCL_SECURE_VALIDATE(this->_Getcont() != 0);
; 76   : 		_SCL_SECURE_VALIDATE_RANGE(
; 77   : 			this->_Ptr != 0
; 78   : 			&& ((_Myvec *)this->_Getcont())->_Myfirst <= this->_Ptr
; 79   : 			&& this->_Ptr < ((_Myvec *)this->_Getcont())->_Mylast);
; 80   :  #endif /* _ITERATOR_DEBUG_LEVEL */
; 81   : 
; 82   : 		__analysis_assume(this->_Ptr != 0);
; 83   : 
; 84   : 		return (*this->_Ptr);

  00000	8b 01		 mov	 eax, DWORD PTR [ecx]

; 85   : 		}

  00002	c3		 ret	 0
??D?$_Vector_const_iterator@V?$_Vector_val@UMentData@ioCampManager@@V?$allocator@UMentData@ioCampManager@@@std@@@std@@@std@@QBEABUMentData@ioCampManager@@XZ ENDP ; std::_Vector_const_iterator<std::_Vector_val<ioCampManager::MentData,std::allocator<ioCampManager::MentData> > >::operator*
_TEXT	ENDS
PUBLIC	??E?$_Vector_const_iterator@V?$_Vector_val@UMentData@ioCampManager@@V?$allocator@UMentData@ioCampManager@@@std@@@std@@@std@@QAEAAV01@XZ ; std::_Vector_const_iterator<std::_Vector_val<ioCampManager::MentData,std::allocator<ioCampManager::MentData> > >::operator++
; Function compile flags: /Ogsp
;	COMDAT ??E?$_Vector_const_iterator@V?$_Vector_val@UMentData@ioCampManager@@V?$allocator@UMentData@ioCampManager@@@std@@@std@@@std@@QAEAAV01@XZ
_TEXT	SEGMENT
??E?$_Vector_const_iterator@V?$_Vector_val@UMentData@ioCampManager@@V?$allocator@UMentData@ioCampManager@@@std@@@std@@@std@@QAEAAV01@XZ PROC ; std::_Vector_const_iterator<std::_Vector_val<ioCampManager::MentData,std::allocator<ioCampManager::MentData> > >::operator++, COMDAT
; _this$ = ecx

; 93   : 		{	// preincrement

  00000	8b c1		 mov	 eax, ecx

; 94   :  #if _ITERATOR_DEBUG_LEVEL == 2
; 95   : 		if (this->_Getcont() == 0
; 96   : 			|| this->_Ptr == 0
; 97   : 			|| ((_Myvec *)this->_Getcont())->_Mylast <= this->_Ptr)
; 98   : 			{	// report error
; 99   : 			_DEBUG_ERROR("vector iterator not incrementable");
; 100  : 			_SCL_SECURE_OUT_OF_RANGE;
; 101  : 			}
; 102  : 
; 103  :  #elif _ITERATOR_DEBUG_LEVEL == 1
; 104  : 		_SCL_SECURE_VALIDATE(this->_Getcont() != 0);
; 105  : 		_SCL_SECURE_VALIDATE_RANGE(
; 106  : 			this->_Ptr != 0
; 107  : 			&& this->_Ptr < ((_Myvec *)this->_Getcont())->_Mylast);
; 108  :  #endif /* _ITERATOR_DEBUG_LEVEL */
; 109  : 
; 110  : 		++this->_Ptr;

  00002	81 00 08 01 00
	00		 add	 DWORD PTR [eax], 264	; 00000108H

; 111  : 		return (*this);
; 112  : 		}

  00008	c3		 ret	 0
??E?$_Vector_const_iterator@V?$_Vector_val@UMentData@ioCampManager@@V?$allocator@UMentData@ioCampManager@@@std@@@std@@@std@@QAEAAV01@XZ ENDP ; std::_Vector_const_iterator<std::_Vector_val<ioCampManager::MentData,std::allocator<ioCampManager::MentData> > >::operator++
_TEXT	ENDS
PUBLIC	??G?$_Vector_const_iterator@V?$_Vector_val@UHeroMatchHistory@ioCampManager@@V?$allocator@UHeroMatchHistory@ioCampManager@@@std@@@std@@@std@@QBEHABV01@@Z ; std::_Vector_const_iterator<std::_Vector_val<ioCampManager::HeroMatchHistory,std::allocator<ioCampManager::HeroMatchHistory> > >::operator-
; Function compile flags: /Ogsp
;	COMDAT ??G?$_Vector_const_iterator@V?$_Vector_val@UHeroMatchHistory@ioCampManager@@V?$allocator@UHeroMatchHistory@ioCampManager@@@std@@@std@@@std@@QBEHABV01@@Z
_TEXT	SEGMENT
__Right$ = 8						; size = 4
??G?$_Vector_const_iterator@V?$_Vector_val@UHeroMatchHistory@ioCampManager@@V?$allocator@UHeroMatchHistory@ioCampManager@@@std@@@std@@@std@@QBEHABV01@@Z PROC ; std::_Vector_const_iterator<std::_Vector_val<ioCampManager::HeroMatchHistory,std::allocator<ioCampManager::HeroMatchHistory> > >::operator-, COMDAT
; _this$ = ecx

; 190  : 		{	// return difference of iterators

  00000	55		 push	 ebp
  00001	8b ec		 mov	 ebp, esp

; 191  : 		_Compat(_Right);
; 192  : 		return (this->_Ptr - _Right._Ptr);

  00003	8b 01		 mov	 eax, DWORD PTR [ecx]
  00005	8b 4d 08	 mov	 ecx, DWORD PTR __Right$[ebp]
  00008	2b 01		 sub	 eax, DWORD PTR [ecx]
  0000a	6a 3c		 push	 60			; 0000003cH
  0000c	99		 cdq
  0000d	59		 pop	 ecx
  0000e	f7 f9		 idiv	 ecx

; 193  : 		}

  00010	5d		 pop	 ebp
  00011	c2 04 00	 ret	 4
??G?$_Vector_const_iterator@V?$_Vector_val@UHeroMatchHistory@ioCampManager@@V?$allocator@UHeroMatchHistory@ioCampManager@@@std@@@std@@@std@@QBEHABV01@@Z ENDP ; std::_Vector_const_iterator<std::_Vector_val<ioCampManager::HeroMatchHistory,std::allocator<ioCampManager::HeroMatchHistory> > >::operator-
_TEXT	ENDS
PUBLIC	??$_Move@AAUHeroMatchHistory@ioCampManager@@@std@@YA$$QAUHeroMatchHistory@ioCampManager@@AAU12@@Z ; std::_Move<ioCampManager::HeroMatchHistory &>
; Function compile flags: /Ogsp
; File c:\program files (x86)\microsoft visual studio 10.0\vc\include\utility
;	COMDAT ??$_Move@AAUHeroMatchHistory@ioCampManager@@@std@@YA$$QAUHeroMatchHistory@ioCampManager@@AAU12@@Z
_TEXT	SEGMENT
__Arg$ = 8						; size = 4
??$_Move@AAUHeroMatchHistory@ioCampManager@@@std@@YA$$QAUHeroMatchHistory@ioCampManager@@AAU12@@Z PROC ; std::_Move<ioCampManager::HeroMatchHistory &>, COMDAT

; 94   : 	{	// forward _Arg as movable

  00000	55		 push	 ebp
  00001	8b ec		 mov	 ebp, esp

; 95   : 	return ((typename tr1::_Remove_reference<_Ty>::_Type&&)_Arg);

  00003	8b 45 08	 mov	 eax, DWORD PTR __Arg$[ebp]

; 96   : 	}

  00006	5d		 pop	 ebp
  00007	c3		 ret	 0
??$_Move@AAUHeroMatchHistory@ioCampManager@@@std@@YA$$QAUHeroMatchHistory@ioCampManager@@AAU12@@Z ENDP ; std::_Move<ioCampManager::HeroMatchHistory &>
_TEXT	ENDS
PUBLIC	??$forward@UHeroMatchHistory@ioCampManager@@@std@@YA$$QAUHeroMatchHistory@ioCampManager@@AAU12@@Z ; std::forward<ioCampManager::HeroMatchHistory>
; Function compile flags: /Ogsp
;	COMDAT ??$forward@UHeroMatchHistory@ioCampManager@@@std@@YA$$QAUHeroMatchHistory@ioCampManager@@AAU12@@Z
_TEXT	SEGMENT
__Arg$ = 8						; size = 4
??$forward@UHeroMatchHistory@ioCampManager@@@std@@YA$$QAUHeroMatchHistory@ioCampManager@@AAU12@@Z PROC ; std::forward<ioCampManager::HeroMatchHistory>, COMDAT

; 78   : 	{	// forward _Arg, given explicitly specified type parameter

  00000	55		 push	 ebp
  00001	8b ec		 mov	 ebp, esp

; 79   : 	return ((_Ty&&)_Arg);

  00003	8b 45 08	 mov	 eax, DWORD PTR __Arg$[ebp]

; 80   : 	}

  00006	5d		 pop	 ebp
  00007	c3		 ret	 0
??$forward@UHeroMatchHistory@ioCampManager@@@std@@YA$$QAUHeroMatchHistory@ioCampManager@@AAU12@@Z ENDP ; std::forward<ioCampManager::HeroMatchHistory>
_TEXT	ENDS
PUBLIC	??_H@YGXPAXIHP6EPAX0@Z@Z			; `vector constructor iterator'
; Function compile flags: /Ogsp
;	COMDAT ??_H@YGXPAXIHP6EPAX0@Z@Z
_TEXT	SEGMENT
___t$ = 8						; size = 4
___s$ = 12						; size = 4
___n$ = 16						; size = 4
___f$ = 20						; size = 4
??_H@YGXPAXIHP6EPAX0@Z@Z PROC				; `vector constructor iterator', COMDAT
  00000	55		 push	 ebp
  00001	8b ec		 mov	 ebp, esp
  00003	ff 4d 10	 dec	 DWORD PTR ___n$[ebp]
  00006	78 12		 js	 SHORT $LN1@vector
  00008	56		 push	 esi
  00009	8b 75 08	 mov	 esi, DWORD PTR ___t$[ebp]
$LL2@vector:
  0000c	8b ce		 mov	 ecx, esi
  0000e	ff 55 14	 call	 DWORD PTR ___f$[ebp]
  00011	03 75 0c	 add	 esi, DWORD PTR ___s$[ebp]
  00014	ff 4d 10	 dec	 DWORD PTR ___n$[ebp]
  00017	79 f3		 jns	 SHORT $LL2@vector
  00019	5e		 pop	 esi
$LN1@vector:
  0001a	5d		 pop	 ebp
  0001b	c2 10 00	 ret	 16			; 00000010H
??_H@YGXPAXIHP6EPAX0@Z@Z ENDP				; `vector constructor iterator'
_TEXT	ENDS
PUBLIC	?_DECSTR@@YAXPADH@Z				; _DECSTR
; Function compile flags: /Ogsp
; File d:\lost saga for developer\youtube\tutorial\source\src\lsclient\stringprotect.h
;	COMDAT ?_DECSTR@@YAXPADH@Z
_TEXT	SEGMENT
_s$ = 8							; size = 4
_l$ = 12						; size = 4
?_DECSTR@@YAXPADH@Z PROC				; _DECSTR, COMDAT

; 40   : __forceinline void _DECSTR(char* s, int l){int i=0,l4=(l-1)/4,*p=(int*)s;s[l-1]=0;for(;i<l4;++i)*(p++)^=0xEAEBECED;for(i=l4*4;i<l-1;++i)s[i]^=0xED-i%4;}

  00000	55		 push	 ebp
  00001	8b ec		 mov	 ebp, esp
  00003	8b 4d 0c	 mov	 ecx, DWORD PTR _l$[ebp]
  00006	56		 push	 esi
  00007	8b 75 08	 mov	 esi, DWORD PTR _s$[ebp]
  0000a	57		 push	 edi
  0000b	8d 79 ff	 lea	 edi, DWORD PTR [ecx-1]
  0000e	8b c7		 mov	 eax, edi
  00010	99		 cdq
  00011	83 e2 03	 and	 edx, 3
  00014	03 c2		 add	 eax, edx
  00016	c1 f8 02	 sar	 eax, 2
  00019	8b d6		 mov	 edx, esi
  0001b	c6 44 0e ff 00	 mov	 BYTE PTR [esi+ecx-1], 0
  00020	85 c0		 test	 eax, eax
  00022	7e 0e		 jle	 SHORT $LN4@DECSTR
  00024	8b c8		 mov	 ecx, eax
$LL6@DECSTR:
  00026	81 32 ed ec eb
	ea		 xor	 DWORD PTR [edx], -353637139 ; eaebecedH
  0002c	83 c2 04	 add	 edx, 4
  0002f	49		 dec	 ecx
  00030	75 f4		 jne	 SHORT $LL6@DECSTR
$LN4@DECSTR:
  00032	c1 e0 02	 shl	 eax, 2
  00035	eb 17		 jmp	 SHORT $LN14@DECSTR
$LL3@DECSTR:
  00037	8b c8		 mov	 ecx, eax
  00039	81 e1 03 00 00
	80		 and	 ecx, -2147483645	; 80000003H
  0003f	79 05		 jns	 SHORT $LN13@DECSTR
  00041	49		 dec	 ecx
  00042	83 c9 fc	 or	 ecx, -4			; fffffffcH
  00045	41		 inc	 ecx
$LN13@DECSTR:
  00046	b2 ed		 mov	 dl, -19			; ffffffedH
  00048	2a d1		 sub	 dl, cl
  0004a	30 14 30	 xor	 BYTE PTR [eax+esi], dl
  0004d	40		 inc	 eax
$LN14@DECSTR:
  0004e	3b c7		 cmp	 eax, edi
  00050	7c e5		 jl	 SHORT $LL3@DECSTR
  00052	5f		 pop	 edi
  00053	5e		 pop	 esi
  00054	5d		 pop	 ebp
  00055	c3		 ret	 0
?_DECSTR@@YAXPADH@Z ENDP				; _DECSTR
_TEXT	ENDS
PUBLIC	?GetChatFontScale@ioSP2ChatManager@@QAEMXZ	; ioSP2ChatManager::GetChatFontScale
EXTRN	__fltused:DWORD
; Function compile flags: /Ogsp
; File d:\lost saga for developer\youtube\tutorial\source\src\lsclient\chatmessagefunc.h
;	COMDAT ?GetChatFontScale@ioSP2ChatManager@@QAEMXZ
_TEXT	SEGMENT
?GetChatFontScale@ioSP2ChatManager@@QAEMXZ PROC		; ioSP2ChatManager::GetChatFontScale, COMDAT
; _this$ = ecx

; 326  : 	inline float GetChatFontScale(){ return m_fChatFontScale; }

  00000	d9 81 74 04 00
	00		 fld	 DWORD PTR [ecx+1140]
  00006	c3		 ret	 0
?GetChatFontScale@ioSP2ChatManager@@QAEMXZ ENDP		; ioSP2ChatManager::GetChatFontScale
_TEXT	ENDS
PUBLIC	?GetUserCampPos@ioMyInfo@@QBE?BHXZ		; ioMyInfo::GetUserCampPos
; Function compile flags: /Ogsp
; File d:\lost saga for developer\youtube\tutorial\source\src\lsclient\iomyinfo.h
;	COMDAT ?GetUserCampPos@ioMyInfo@@QBE?BHXZ
_TEXT	SEGMENT
?GetUserCampPos@ioMyInfo@@QBE?BHXZ PROC			; ioMyInfo::GetUserCampPos, COMDAT
; _this$ = ecx

; 519  : 	const int GetUserCampPos() const { return m_user_data.m_camp_position; }

  00000	8b 41 60	 mov	 eax, DWORD PTR [ecx+96]
  00003	c3		 ret	 0
?GetUserCampPos@ioMyInfo@@QBE?BHXZ ENDP			; ioMyInfo::GetUserCampPos
_TEXT	ENDS
PUBLIC	?IsSync@ioGuildData@@QAE_NXZ			; ioGuildData::IsSync
; Function compile flags: /Ogsp
; File d:\lost saga for developer\youtube\tutorial\source\src\lsclient\ioguildinfo.h
;	COMDAT ?IsSync@ioGuildData@@QAE_NXZ
_TEXT	SEGMENT
?IsSync@ioGuildData@@QAE_NXZ PROC			; ioGuildData::IsSync, COMDAT
; _this$ = ecx

; 172  : 	bool IsSync(){ return m_bSync; }

  00000	8a 41 75	 mov	 al, BYTE PTR [ecx+117]
  00003	c3		 ret	 0
?IsSync@ioGuildData@@QAE_NXZ ENDP			; ioGuildData::IsSync
_TEXT	ENDS
PUBLIC	?GetGuildIndex@ioGuildInfo@@QAEKXZ		; ioGuildInfo::GetGuildIndex
; Function compile flags: /Ogsp
;	COMDAT ?GetGuildIndex@ioGuildInfo@@QAEKXZ
_TEXT	SEGMENT
?GetGuildIndex@ioGuildInfo@@QAEKXZ PROC			; ioGuildInfo::GetGuildIndex, COMDAT
; _this$ = ecx

; 302  : 	inline DWORD GetGuildIndex(){ return m_dwGuildIndex; }

  00000	8b 81 90 00 00
	00		 mov	 eax, DWORD PTR [ecx+144]
  00006	c3		 ret	 0
?GetGuildIndex@ioGuildInfo@@QAEKXZ ENDP			; ioGuildInfo::GetGuildIndex
_TEXT	ENDS
PUBLIC	??0tagHeroRankData@@QAE@XZ			; tagHeroRankData::tagHeroRankData
EXTRN	__imp_??0ioHashString@@QAE@XZ:PROC
; Function compile flags: /Ogsp
; File d:\lost saga for developer\youtube\tutorial\source\src\lsclient\iocampmanager.h
;	COMDAT ??0tagHeroRankData@@QAE@XZ
_TEXT	SEGMENT
??0tagHeroRankData@@QAE@XZ PROC				; tagHeroRankData::tagHeroRankData, COMDAT
; _this$ = ecx

; 16   : 	tagHeroRankData()

  00000	56		 push	 esi
  00001	8b f1		 mov	 esi, ecx
  00003	8d 4e 08	 lea	 ecx, DWORD PTR [esi+8]
  00006	ff 15 00 00 00
	00		 call	 DWORD PTR __imp_??0ioHashString@@QAE@XZ

; 17   : 	{
; 18   : 		m_iRank = m_iGradeLevel = m_iHeroTitle = m_iHeroWin = m_iHeroLose = m_iCampPos = 0;

  0000c	33 c0		 xor	 eax, eax
  0000e	89 46 24	 mov	 DWORD PTR [esi+36], eax
  00011	89 46 20	 mov	 DWORD PTR [esi+32], eax
  00014	89 46 1c	 mov	 DWORD PTR [esi+28], eax
  00017	89 46 18	 mov	 DWORD PTR [esi+24], eax
  0001a	89 46 04	 mov	 DWORD PTR [esi+4], eax
  0001d	89 06		 mov	 DWORD PTR [esi], eax

; 19   : 		m_bLogIn = false;

  0001f	88 46 28	 mov	 BYTE PTR [esi+40], al

; 20   : 	}

  00022	8b c6		 mov	 eax, esi
  00024	5e		 pop	 esi
  00025	c3		 ret	 0
??0tagHeroRankData@@QAE@XZ ENDP				; tagHeroRankData::tagHeroRankData
_TEXT	ENDS
PUBLIC	??0SeasonDate@ioCampManager@@QAE@XZ		; ioCampManager::SeasonDate::SeasonDate
; Function compile flags: /Ogsp
;	COMDAT ??0SeasonDate@ioCampManager@@QAE@XZ
_TEXT	SEGMENT
??0SeasonDate@ioCampManager@@QAE@XZ PROC		; ioCampManager::SeasonDate::SeasonDate, COMDAT
; _this$ = ecx

; 56   : 		SeasonDate()

  00000	8b c1		 mov	 eax, ecx

; 57   : 		{
; 58   : 			m_iStartYear = m_iStartMonth = m_iStartDay = m_iStartHour = m_iStartWeekDay = 0;

  00002	33 c9		 xor	 ecx, ecx
  00004	89 48 10	 mov	 DWORD PTR [eax+16], ecx
  00007	89 48 0c	 mov	 DWORD PTR [eax+12], ecx
  0000a	89 48 08	 mov	 DWORD PTR [eax+8], ecx
  0000d	89 48 04	 mov	 DWORD PTR [eax+4], ecx
  00010	89 08		 mov	 DWORD PTR [eax], ecx

; 59   : 			m_iNextYear = m_iNextMonth = m_iNextDay = m_iNextHour = m_iNextWeekDay = 0;

  00012	89 48 24	 mov	 DWORD PTR [eax+36], ecx
  00015	89 48 20	 mov	 DWORD PTR [eax+32], ecx
  00018	89 48 1c	 mov	 DWORD PTR [eax+28], ecx
  0001b	89 48 18	 mov	 DWORD PTR [eax+24], ecx
  0001e	89 48 14	 mov	 DWORD PTR [eax+20], ecx

; 60   : 			m_wPlayStartHour = m_wPlayPreceedTime = 0;

  00021	66 89 48 2a	 mov	 WORD PTR [eax+42], cx
  00025	66 89 48 28	 mov	 WORD PTR [eax+40], cx

; 61   : 		}

  00029	c3		 ret	 0
??0SeasonDate@ioCampManager@@QAE@XZ ENDP		; ioCampManager::SeasonDate::SeasonDate
_TEXT	ENDS
PUBLIC	??0CampData@ioCampManager@@QAE@XZ		; ioCampManager::CampData::CampData
; Function compile flags: /Ogsp
;	COMDAT ??0CampData@ioCampManager@@QAE@XZ
_TEXT	SEGMENT
??0CampData@ioCampManager@@QAE@XZ PROC			; ioCampManager::CampData::CampData, COMDAT
; _this$ = ecx

; 75   : 		CampData()

  00000	8b c1		 mov	 eax, ecx

; 76   : 		{
; 77   : 			m_iCampType = m_iCampPoint = m_iCampEntryUserCount = 0;

  00002	33 c9		 xor	 ecx, ecx
  00004	89 48 10	 mov	 DWORD PTR [eax+16], ecx
  00007	89 48 04	 mov	 DWORD PTR [eax+4], ecx
  0000a	89 08		 mov	 DWORD PTR [eax], ecx

; 78   : 			m_iCampSpecialEntryUserCount = m_iCampTodayPoint = m_iCampBonusPoint = 0;

  0000c	89 48 0c	 mov	 DWORD PTR [eax+12], ecx
  0000f	89 48 08	 mov	 DWORD PTR [eax+8], ecx
  00012	89 48 14	 mov	 DWORD PTR [eax+20], ecx

; 79   : 		}

  00015	c3		 ret	 0
??0CampData@ioCampManager@@QAE@XZ ENDP			; ioCampManager::CampData::CampData
_TEXT	ENDS
PUBLIC	??0MentData@ioCampManager@@QAE@XZ		; ioCampManager::MentData::MentData
EXTRN	_memset:PROC
; Function compile flags: /Ogsp
;	COMDAT ??0MentData@ioCampManager@@QAE@XZ
_TEXT	SEGMENT
??0MentData@ioCampManager@@QAE@XZ PROC			; ioCampManager::MentData::MentData, COMDAT
; _this$ = ecx

; 92   : 		MentData()

  00000	56		 push	 esi
  00001	8b f1		 mov	 esi, ecx

; 93   : 		{
; 94   : 			m_dwMentColor = 0;

  00003	83 26 00	 and	 DWORD PTR [esi], 0

; 95   : 			memset( m_szMentText, 0, sizeof( m_szMentText ) );

  00006	68 04 01 00 00	 push	 260			; 00000104H
  0000b	8d 46 04	 lea	 eax, DWORD PTR [esi+4]
  0000e	6a 00		 push	 0
  00010	50		 push	 eax
  00011	e8 00 00 00 00	 call	 _memset
  00016	83 c4 0c	 add	 esp, 12			; 0000000cH

; 96   : 		}

  00019	8b c6		 mov	 eax, esi
  0001b	5e		 pop	 esi
  0001c	c3		 ret	 0
??0MentData@ioCampManager@@QAE@XZ ENDP			; ioCampManager::MentData::MentData
_TEXT	ENDS
PUBLIC	??0HeroMatchHistory@ioCampManager@@QAE@XZ	; ioCampManager::HeroMatchHistory::HeroMatchHistory
; Function compile flags: /Ogsp
;	COMDAT ??0HeroMatchHistory@ioCampManager@@QAE@XZ
_TEXT	SEGMENT
??0HeroMatchHistory@ioCampManager@@QAE@XZ PROC		; ioCampManager::HeroMatchHistory::HeroMatchHistory, COMDAT
; _this$ = ecx

; 174  : 		HeroMatchHistory()

  00000	56		 push	 esi
  00001	8b f1		 mov	 esi, ecx
  00003	8d 4e 18	 lea	 ecx, DWORD PTR [esi+24]
  00006	ff 15 00 00 00
	00		 call	 DWORD PTR __imp_??0ioHashString@@QAE@XZ

; 175  : 		{
; 176  : 			m_iHeroRank = m_iHeroTitle = m_iCampType = m_iGradeLevel = 0;

  0000c	33 c0		 xor	 eax, eax
  0000e	89 46 08	 mov	 DWORD PTR [esi+8], eax
  00011	89 46 0c	 mov	 DWORD PTR [esi+12], eax
  00014	89 46 04	 mov	 DWORD PTR [esi+4], eax
  00017	89 06		 mov	 DWORD PTR [esi], eax

; 177  : 			m_iBlueScore = m_iRedScore = 0;

  00019	89 46 30	 mov	 DWORD PTR [esi+48], eax
  0001c	89 46 2c	 mov	 DWORD PTR [esi+44], eax

; 178  : 			m_eWinTeam = WTT_NONE;

  0001f	89 46 14	 mov	 DWORD PTR [esi+20], eax

; 179  : 			m_bResultCheck = false;

  00022	88 46 34	 mov	 BYTE PTR [esi+52], al

; 180  : 			m_bLeave = false;

  00025	88 46 28	 mov	 BYTE PTR [esi+40], al

; 181  : 			m_dwResultTime = 0;

  00028	89 46 38	 mov	 DWORD PTR [esi+56], eax

; 182  : 		}

  0002b	8b c6		 mov	 eax, esi
  0002d	5e		 pop	 esi
  0002e	c3		 ret	 0
??0HeroMatchHistory@ioCampManager@@QAE@XZ ENDP		; ioCampManager::HeroMatchHistory::HeroMatchHistory
_TEXT	ENDS
PUBLIC	?GetStartSeasonHour@ioCampManager@@QAEHXZ	; ioCampManager::GetStartSeasonHour
; Function compile flags: /Ogsp
;	COMDAT ?GetStartSeasonHour@ioCampManager@@QAEHXZ
_TEXT	SEGMENT
?GetStartSeasonHour@ioCampManager@@QAEHXZ PROC		; ioCampManager::GetStartSeasonHour, COMDAT
; _this$ = ecx

; 227  : 	int GetStartSeasonHour(){ return m_SeasonDate.m_iStartHour; }

  00000	8b 41 10	 mov	 eax, DWORD PTR [ecx+16]
  00003	c3		 ret	 0
?GetStartSeasonHour@ioCampManager@@QAEHXZ ENDP		; ioCampManager::GetStartSeasonHour
_TEXT	ENDS
PUBLIC	?GetNextSeasonHour@ioCampManager@@QAEHXZ	; ioCampManager::GetNextSeasonHour
; Function compile flags: /Ogsp
;	COMDAT ?GetNextSeasonHour@ioCampManager@@QAEHXZ
_TEXT	SEGMENT
?GetNextSeasonHour@ioCampManager@@QAEHXZ PROC		; ioCampManager::GetNextSeasonHour, COMDAT
; _this$ = ecx

; 234  : 	int GetNextSeasonHour(){ return m_SeasonDate.m_iNextHour; }

  00000	8b 41 24	 mov	 eax, DWORD PTR [ecx+36]
  00003	c3		 ret	 0
?GetNextSeasonHour@ioCampManager@@QAEHXZ ENDP		; ioCampManager::GetNextSeasonHour
_TEXT	ENDS
PUBLIC	?size@?$vector@KV?$allocator@K@std@@@std@@QBEIXZ ; std::vector<unsigned long,std::allocator<unsigned long> >::size
; Function compile flags: /Ogsp
; File c:\program files (x86)\microsoft visual studio 10.0\vc\include\vector
;	COMDAT ?size@?$vector@KV?$allocator@K@std@@@std@@QBEIXZ
_TEXT	SEGMENT
?size@?$vector@KV?$allocator@K@std@@@std@@QBEIXZ PROC	; std::vector<unsigned long,std::allocator<unsigned long> >::size, COMDAT
; _this$ = ecx

; 879  : 		return (this->_Mylast - this->_Myfirst);

  00000	8b 41 04	 mov	 eax, DWORD PTR [ecx+4]
  00003	2b 01		 sub	 eax, DWORD PTR [ecx]
  00005	c1 f8 02	 sar	 eax, 2

; 880  : 		}

  00008	c3		 ret	 0
?size@?$vector@KV?$allocator@K@std@@@std@@QBEIXZ ENDP	; std::vector<unsigned long,std::allocator<unsigned long> >::size
_TEXT	ENDS
PUBLIC	??A?$vector@KV?$allocator@K@std@@@std@@QAEAAKI@Z ; std::vector<unsigned long,std::allocator<unsigned long> >::operator[]
; Function compile flags: /Ogsp
;	COMDAT ??A?$vector@KV?$allocator@K@std@@@std@@QAEAAKI@Z
_TEXT	SEGMENT
__Pos$ = 8						; size = 4
??A?$vector@KV?$allocator@K@std@@@std@@QAEAAKI@Z PROC	; std::vector<unsigned long,std::allocator<unsigned long> >::operator[], COMDAT
; _this$ = ecx

; 928  : 		{	// subscript mutable sequence

  00000	55		 push	 ebp
  00001	8b ec		 mov	 ebp, esp

; 929  :  #if _ITERATOR_DEBUG_LEVEL == 2
; 930  : 		if (size() <= _Pos)
; 931  : 			{	// report error
; 932  : 			_DEBUG_ERROR("vector subscript out of range");
; 933  : 			_SCL_SECURE_OUT_OF_RANGE;
; 934  : 			}
; 935  : 
; 936  :  #elif _ITERATOR_DEBUG_LEVEL == 1
; 937  : 		_SCL_SECURE_VALIDATE_RANGE(_Pos < size());
; 938  :  #endif /* _ITERATOR_DEBUG_LEVEL */
; 939  : 
; 940  : 		return (*(this->_Myfirst + _Pos));

  00003	8b 01		 mov	 eax, DWORD PTR [ecx]
  00005	8b 4d 08	 mov	 ecx, DWORD PTR __Pos$[ebp]
  00008	8d 04 88	 lea	 eax, DWORD PTR [eax+ecx*4]

; 941  : 		}

  0000b	5d		 pop	 ebp
  0000c	c2 04 00	 ret	 4
??A?$vector@KV?$allocator@K@std@@@std@@QAEAAKI@Z ENDP	; std::vector<unsigned long,std::allocator<unsigned long> >::operator[]
_TEXT	ENDS
PUBLIC	?size@?$vector@UHeroMatchHistory@ioCampManager@@V?$allocator@UHeroMatchHistory@ioCampManager@@@std@@@std@@QBEIXZ ; std::vector<ioCampManager::HeroMatchHistory,std::allocator<ioCampManager::HeroMatchHistory> >::size
; Function compile flags: /Ogsp
;	COMDAT ?size@?$vector@UHeroMatchHistory@ioCampManager@@V?$allocator@UHeroMatchHistory@ioCampManager@@@std@@@std@@QBEIXZ
_TEXT	SEGMENT
?size@?$vector@UHeroMatchHistory@ioCampManager@@V?$allocator@UHeroMatchHistory@ioCampManager@@@std@@@std@@QBEIXZ PROC ; std::vector<ioCampManager::HeroMatchHistory,std::allocator<ioCampManager::HeroMatchHistory> >::size, COMDAT
; _this$ = ecx

; 879  : 		return (this->_Mylast - this->_Myfirst);

  00000	8b 41 04	 mov	 eax, DWORD PTR [ecx+4]
  00003	2b 01		 sub	 eax, DWORD PTR [ecx]
  00005	6a 3c		 push	 60			; 0000003cH
  00007	99		 cdq
  00008	59		 pop	 ecx
  00009	f7 f9		 idiv	 ecx

; 880  : 		}

  0000b	c3		 ret	 0
?size@?$vector@UHeroMatchHistory@ioCampManager@@V?$allocator@UHeroMatchHistory@ioCampManager@@@std@@@std@@QBEIXZ ENDP ; std::vector<ioCampManager::HeroMatchHistory,std::allocator<ioCampManager::HeroMatchHistory> >::size
_TEXT	ENDS
PUBLIC	??1?$_Vector_val@KV?$allocator@K@std@@@std@@QAE@XZ ; std::_Vector_val<unsigned long,std::allocator<unsigned long> >::~_Vector_val<unsigned long,std::allocator<unsigned long> >
; Function compile flags: /Ogsp
;	COMDAT ??1?$_Vector_val@KV?$allocator@K@std@@@std@@QAE@XZ
_TEXT	SEGMENT
??1?$_Vector_val@KV?$allocator@K@std@@@std@@QAE@XZ PROC	; std::_Vector_val<unsigned long,std::allocator<unsigned long> >::~_Vector_val<unsigned long,std::allocator<unsigned long> >, COMDAT
; _this$ = ecx

; 434  : 		}

  00000	c3		 ret	 0
??1?$_Vector_val@KV?$allocator@K@std@@@std@@QAE@XZ ENDP	; std::_Vector_val<unsigned long,std::allocator<unsigned long> >::~_Vector_val<unsigned long,std::allocator<unsigned long> >
_TEXT	ENDS
PUBLIC	??0?$allocator@K@std@@QAE@XZ			; std::allocator<unsigned long>::allocator<unsigned long>
; Function compile flags: /Ogsp
; File c:\program files (x86)\microsoft visual studio 10.0\vc\include\xmemory
;	COMDAT ??0?$allocator@K@std@@QAE@XZ
_TEXT	SEGMENT
??0?$allocator@K@std@@QAE@XZ PROC			; std::allocator<unsigned long>::allocator<unsigned long>, COMDAT
; _this$ = ecx

; 161  : 	_ALLOCATOR() _THROW0()

  00000	8b c1		 mov	 eax, ecx

; 162  : 		{	// construct default allocator (do nothing)
; 163  : 		}

  00002	c3		 ret	 0
??0?$allocator@K@std@@QAE@XZ ENDP			; std::allocator<unsigned long>::allocator<unsigned long>
_TEXT	ENDS
PUBLIC	??1?$_Vector_val@UMentData@ioCampManager@@V?$allocator@UMentData@ioCampManager@@@std@@@std@@QAE@XZ ; std::_Vector_val<ioCampManager::MentData,std::allocator<ioCampManager::MentData> >::~_Vector_val<ioCampManager::MentData,std::allocator<ioCampManager::MentData> >
; Function compile flags: /Ogsp
; File c:\program files (x86)\microsoft visual studio 10.0\vc\include\vector
;	COMDAT ??1?$_Vector_val@UMentData@ioCampManager@@V?$allocator@UMentData@ioCampManager@@@std@@@std@@QAE@XZ
_TEXT	SEGMENT
??1?$_Vector_val@UMentData@ioCampManager@@V?$allocator@UMentData@ioCampManager@@@std@@@std@@QAE@XZ PROC ; std::_Vector_val<ioCampManager::MentData,std::allocator<ioCampManager::MentData> >::~_Vector_val<ioCampManager::MentData,std::allocator<ioCampManager::MentData> >, COMDAT
; _this$ = ecx

; 434  : 		}

  00000	c3		 ret	 0
??1?$_Vector_val@UMentData@ioCampManager@@V?$allocator@UMentData@ioCampManager@@@std@@@std@@QAE@XZ ENDP ; std::_Vector_val<ioCampManager::MentData,std::allocator<ioCampManager::MentData> >::~_Vector_val<ioCampManager::MentData,std::allocator<ioCampManager::MentData> >
_TEXT	ENDS
PUBLIC	??0?$allocator@UMentData@ioCampManager@@@std@@QAE@XZ ; std::allocator<ioCampManager::MentData>::allocator<ioCampManager::MentData>
; Function compile flags: /Ogsp
; File c:\program files (x86)\microsoft visual studio 10.0\vc\include\xmemory
;	COMDAT ??0?$allocator@UMentData@ioCampManager@@@std@@QAE@XZ
_TEXT	SEGMENT
??0?$allocator@UMentData@ioCampManager@@@std@@QAE@XZ PROC ; std::allocator<ioCampManager::MentData>::allocator<ioCampManager::MentData>, COMDAT
; _this$ = ecx

; 161  : 	_ALLOCATOR() _THROW0()

  00000	8b c1		 mov	 eax, ecx

; 162  : 		{	// construct default allocator (do nothing)
; 163  : 		}

  00002	c3		 ret	 0
??0?$allocator@UMentData@ioCampManager@@@std@@QAE@XZ ENDP ; std::allocator<ioCampManager::MentData>::allocator<ioCampManager::MentData>
_TEXT	ENDS
PUBLIC	??0?$allocator@K@std@@QAE@ABV01@@Z		; std::allocator<unsigned long>::allocator<unsigned long>
; Function compile flags: /Ogsp
;	COMDAT ??0?$allocator@K@std@@QAE@ABV01@@Z
_TEXT	SEGMENT
___formal$ = 8						; size = 4
??0?$allocator@K@std@@QAE@ABV01@@Z PROC			; std::allocator<unsigned long>::allocator<unsigned long>, COMDAT
; _this$ = ecx

; 165  : 	_ALLOCATOR(const _ALLOCATOR<_Ty>&) _THROW0()

  00000	8b c1		 mov	 eax, ecx

; 166  : 		{	// construct by copying (do nothing)
; 167  : 		}

  00002	c2 04 00	 ret	 4
??0?$allocator@K@std@@QAE@ABV01@@Z ENDP			; std::allocator<unsigned long>::allocator<unsigned long>
_TEXT	ENDS
PUBLIC	?deallocate@?$allocator@K@std@@QAEXPAKI@Z	; std::allocator<unsigned long>::deallocate
; Function compile flags: /Ogsp
;	COMDAT ?deallocate@?$allocator@K@std@@QAEXPAKI@Z
_TEXT	SEGMENT
__Ptr$ = 8						; size = 4
___formal$ = 12						; size = 4
?deallocate@?$allocator@K@std@@QAEXPAKI@Z PROC		; std::allocator<unsigned long>::deallocate, COMDAT
; _this$ = ecx

; 181  : 		{	// deallocate object at _Ptr, ignore size

  00000	55		 push	 ebp
  00001	8b ec		 mov	 ebp, esp

; 182  : 		::operator delete(_Ptr);

  00003	ff 75 08	 push	 DWORD PTR __Ptr$[ebp]
  00006	e8 00 00 00 00	 call	 ??3@YAXPAX@Z		; operator delete
  0000b	59		 pop	 ecx

; 183  : 		}

  0000c	5d		 pop	 ebp
  0000d	c2 08 00	 ret	 8
?deallocate@?$allocator@K@std@@QAEXPAKI@Z ENDP		; std::allocator<unsigned long>::deallocate
_TEXT	ENDS
PUBLIC	??0?$allocator@UMentData@ioCampManager@@@std@@QAE@ABV01@@Z ; std::allocator<ioCampManager::MentData>::allocator<ioCampManager::MentData>
; Function compile flags: /Ogsp
;	COMDAT ??0?$allocator@UMentData@ioCampManager@@@std@@QAE@ABV01@@Z
_TEXT	SEGMENT
___formal$ = 8						; size = 4
??0?$allocator@UMentData@ioCampManager@@@std@@QAE@ABV01@@Z PROC ; std::allocator<ioCampManager::MentData>::allocator<ioCampManager::MentData>, COMDAT
; _this$ = ecx

; 165  : 	_ALLOCATOR(const _ALLOCATOR<_Ty>&) _THROW0()

  00000	8b c1		 mov	 eax, ecx

; 166  : 		{	// construct by copying (do nothing)
; 167  : 		}

  00002	c2 04 00	 ret	 4
??0?$allocator@UMentData@ioCampManager@@@std@@QAE@ABV01@@Z ENDP ; std::allocator<ioCampManager::MentData>::allocator<ioCampManager::MentData>
_TEXT	ENDS
PUBLIC	?deallocate@?$allocator@UMentData@ioCampManager@@@std@@QAEXPAUMentData@ioCampManager@@I@Z ; std::allocator<ioCampManager::MentData>::deallocate
; Function compile flags: /Ogsp
;	COMDAT ?deallocate@?$allocator@UMentData@ioCampManager@@@std@@QAEXPAUMentData@ioCampManager@@I@Z
_TEXT	SEGMENT
__Ptr$ = 8						; size = 4
___formal$ = 12						; size = 4
?deallocate@?$allocator@UMentData@ioCampManager@@@std@@QAEXPAUMentData@ioCampManager@@I@Z PROC ; std::allocator<ioCampManager::MentData>::deallocate, COMDAT
; _this$ = ecx

; 181  : 		{	// deallocate object at _Ptr, ignore size

  00000	55		 push	 ebp
  00001	8b ec		 mov	 ebp, esp

; 182  : 		::operator delete(_Ptr);

  00003	ff 75 08	 push	 DWORD PTR __Ptr$[ebp]
  00006	e8 00 00 00 00	 call	 ??3@YAXPAX@Z		; operator delete
  0000b	59		 pop	 ecx

; 183  : 		}

  0000c	5d		 pop	 ebp
  0000d	c2 08 00	 ret	 8
?deallocate@?$allocator@UMentData@ioCampManager@@@std@@QAEXPAUMentData@ioCampManager@@I@Z ENDP ; std::allocator<ioCampManager::MentData>::deallocate
_TEXT	ENDS
EXTRN	__imp_??0exception@std@@QAE@ABV01@@Z:PROC
; Function compile flags: /Ogsp
;	COMDAT ??0bad_alloc@std@@QAE@ABV01@@Z
_TEXT	SEGMENT
___that$ = 8						; size = 4
??0bad_alloc@std@@QAE@ABV01@@Z PROC			; std::bad_alloc::bad_alloc, COMDAT
; _this$ = ecx
  00000	55		 push	 ebp
  00001	8b ec		 mov	 ebp, esp
  00003	56		 push	 esi
  00004	ff 75 08	 push	 DWORD PTR ___that$[ebp]
  00007	8b f1		 mov	 esi, ecx
  00009	ff 15 00 00 00
	00		 call	 DWORD PTR __imp_??0exception@std@@QAE@ABV01@@Z
  0000f	c7 06 00 00 00
	00		 mov	 DWORD PTR [esi], OFFSET ??_7bad_alloc@std@@6B@
  00015	8b c6		 mov	 eax, esi
  00017	5e		 pop	 esi
  00018	5d		 pop	 ebp
  00019	c2 04 00	 ret	 4
??0bad_alloc@std@@QAE@ABV01@@Z ENDP			; std::bad_alloc::bad_alloc
_TEXT	ENDS
PUBLIC	??$_Ptr_cat@KK@std@@YA?AU_Scalar_ptr_iterator_tag@0@PAK0@Z ; std::_Ptr_cat<unsigned long,unsigned long>
; Function compile flags: /Ogsp
; File c:\program files (x86)\microsoft visual studio 10.0\vc\include\xutility
;	COMDAT ??$_Ptr_cat@KK@std@@YA?AU_Scalar_ptr_iterator_tag@0@PAK0@Z
_TEXT	SEGMENT
__Cat$ = -1						; size = 1
___formal$ = 8						; size = 4
___formal$ = 12						; size = 4
??$_Ptr_cat@KK@std@@YA?AU_Scalar_ptr_iterator_tag@0@PAK0@Z PROC ; std::_Ptr_cat<unsigned long,unsigned long>, COMDAT

; 516  : 	{	// return pointer category from pointers

  00000	55		 push	 ebp
  00001	8b ec		 mov	 ebp, esp
  00003	51		 push	 ecx

; 517  : 	typename _Ptr_cat_helper<_Elem1, _Elem2>::_Type _Cat;
; 518  : 	return (_Cat);

  00004	8a 45 ff	 mov	 al, BYTE PTR __Cat$[ebp]

; 519  : 	}

  00007	c9		 leave
  00008	c3		 ret	 0
??$_Ptr_cat@KK@std@@YA?AU_Scalar_ptr_iterator_tag@0@PAK0@Z ENDP ; std::_Ptr_cat<unsigned long,unsigned long>
_TEXT	ENDS
PUBLIC	??$_Destroy_range@V?$allocator@K@std@@@std@@YAXPAK0AAV?$allocator@K@0@U_Scalar_ptr_iterator_tag@0@@Z ; std::_Destroy_range<std::allocator<unsigned long> >
; Function compile flags: /Ogsp
; File c:\program files (x86)\microsoft visual studio 10.0\vc\include\xmemory
;	COMDAT ??$_Destroy_range@V?$allocator@K@std@@@std@@YAXPAK0AAV?$allocator@K@0@U_Scalar_ptr_iterator_tag@0@@Z
_TEXT	SEGMENT
__First$ = 8						; size = 4
__Last$ = 12						; size = 4
__Al$ = 16						; size = 4
___formal$ = 20						; size = 1
??$_Destroy_range@V?$allocator@K@std@@@std@@YAXPAK0AAV?$allocator@K@0@U_Scalar_ptr_iterator_tag@0@@Z PROC ; std::_Destroy_range<std::allocator<unsigned long> >, COMDAT

; 105  : 	}

  00000	c3		 ret	 0
??$_Destroy_range@V?$allocator@K@std@@@std@@YAXPAK0AAV?$allocator@K@0@U_Scalar_ptr_iterator_tag@0@@Z ENDP ; std::_Destroy_range<std::allocator<unsigned long> >
_TEXT	ENDS
PUBLIC	??$_Ptr_cat@UMentData@ioCampManager@@U12@@std@@YA?AU_Nonscalar_ptr_iterator_tag@0@PAUMentData@ioCampManager@@0@Z ; std::_Ptr_cat<ioCampManager::MentData,ioCampManager::MentData>
; Function compile flags: /Ogsp
; File c:\program files (x86)\microsoft visual studio 10.0\vc\include\xutility
;	COMDAT ??$_Ptr_cat@UMentData@ioCampManager@@U12@@std@@YA?AU_Nonscalar_ptr_iterator_tag@0@PAUMentData@ioCampManager@@0@Z
_TEXT	SEGMENT
__Cat$ = -1						; size = 1
___formal$ = 8						; size = 4
___formal$ = 12						; size = 4
??$_Ptr_cat@UMentData@ioCampManager@@U12@@std@@YA?AU_Nonscalar_ptr_iterator_tag@0@PAUMentData@ioCampManager@@0@Z PROC ; std::_Ptr_cat<ioCampManager::MentData,ioCampManager::MentData>, COMDAT

; 516  : 	{	// return pointer category from pointers

  00000	55		 push	 ebp
  00001	8b ec		 mov	 ebp, esp
  00003	51		 push	 ecx

; 517  : 	typename _Ptr_cat_helper<_Elem1, _Elem2>::_Type _Cat;
; 518  : 	return (_Cat);

  00004	8a 45 ff	 mov	 al, BYTE PTR __Cat$[ebp]

; 519  : 	}

  00007	c9		 leave
  00008	c3		 ret	 0
??$_Ptr_cat@UMentData@ioCampManager@@U12@@std@@YA?AU_Nonscalar_ptr_iterator_tag@0@PAUMentData@ioCampManager@@0@Z ENDP ; std::_Ptr_cat<ioCampManager::MentData,ioCampManager::MentData>
_TEXT	ENDS
PUBLIC	??$_Destroy@UMentData@ioCampManager@@@std@@YAXPAUMentData@ioCampManager@@@Z ; std::_Destroy<ioCampManager::MentData>
; Function compile flags: /Ogsp
; File c:\program files (x86)\microsoft visual studio 10.0\vc\include\xmemory
;	COMDAT ??$_Destroy@UMentData@ioCampManager@@@std@@YAXPAUMentData@ioCampManager@@@Z
_TEXT	SEGMENT
__Ptr$ = 8						; size = 4
??$_Destroy@UMentData@ioCampManager@@@std@@YAXPAUMentData@ioCampManager@@@Z PROC ; std::_Destroy<ioCampManager::MentData>, COMDAT

; 63   : 	_Ptr->~_Ty();
; 64   : 	}

  00000	c3		 ret	 0
??$_Destroy@UMentData@ioCampManager@@@std@@YAXPAUMentData@ioCampManager@@@Z ENDP ; std::_Destroy<ioCampManager::MentData>
_TEXT	ENDS
PUBLIC	?GetSingleton@ioCampManager@@SAAAV1@XZ		; ioCampManager::GetSingleton
; Function compile flags: /Ogsp
; File d:\lost saga for developer\youtube\tutorial\source\src\lsclient\iocampmanager.cpp
;	COMDAT ?GetSingleton@ioCampManager@@SAAAV1@XZ
_TEXT	SEGMENT
?GetSingleton@ioCampManager@@SAAAV1@XZ PROC		; ioCampManager::GetSingleton, COMDAT

; 62   : 	return Singleton< ioCampManager >::GetSingleton();

  00000	a1 00 00 00 00	 mov	 eax, DWORD PTR ?ms_Singleton@?$Singleton@VioCampManager@@@@1PAVioCampManager@@A ; Singleton<ioCampManager>::ms_Singleton

; 63   : }

  00005	c3		 ret	 0
?GetSingleton@ioCampManager@@SAAAV1@XZ ENDP		; ioCampManager::GetSingleton
_TEXT	ENDS
PUBLIC	?GetCampPoint@ioCampManager@@QAEHW4CampType@@@Z	; ioCampManager::GetCampPoint
; Function compile flags: /Ogsp
;	COMDAT ?GetCampPoint@ioCampManager@@QAEHW4CampType@@@Z
_TEXT	SEGMENT
_eCampType$ = 8						; size = 4
?GetCampPoint@ioCampManager@@QAEHW4CampType@@@Z PROC	; ioCampManager::GetCampPoint, COMDAT
; _this$ = ecx

; 245  : {

  00000	55		 push	 ebp
  00001	8b ec		 mov	 ebp, esp

; 246  : 	int iSize = m_CampData.size();

  00003	8b 41 38	 mov	 eax, DWORD PTR [ecx+56]
  00006	2b 41 34	 sub	 eax, DWORD PTR [ecx+52]
  00009	56		 push	 esi
  0000a	6a 18		 push	 24			; 00000018H
  0000c	99		 cdq
  0000d	5e		 pop	 esi
  0000e	f7 fe		 idiv	 esi

; 247  : 	for(int i = 0;i < iSize;i++)

  00010	33 d2		 xor	 edx, edx
  00012	85 c0		 test	 eax, eax
  00014	7e 12		 jle	 SHORT $LN2@GetCampPoi

; 246  : 	int iSize = m_CampData.size();

  00016	8b 49 34	 mov	 ecx, DWORD PTR [ecx+52]
$LL4@GetCampPoi:

; 248  : 	{
; 249  : 		CampData &rkCampData = m_CampData[i];
; 250  : 		if( (CampType)rkCampData.m_iCampType == eCampType )

  00019	8b 31		 mov	 esi, DWORD PTR [ecx]
  0001b	3b 75 08	 cmp	 esi, DWORD PTR _eCampType$[ebp]
  0001e	74 0f		 je	 SHORT $LN12@GetCampPoi

; 247  : 	for(int i = 0;i < iSize;i++)

  00020	42		 inc	 edx
  00021	83 c1 18	 add	 ecx, 24			; 00000018H
  00024	3b d0		 cmp	 edx, eax
  00026	7c f1		 jl	 SHORT $LL4@GetCampPoi
$LN2@GetCampPoi:

; 252  : 	}
; 253  : 	return 0;

  00028	33 c0		 xor	 eax, eax
$LN5@GetCampPoi:
  0002a	5e		 pop	 esi

; 254  : }

  0002b	5d		 pop	 ebp
  0002c	c2 04 00	 ret	 4
$LN12@GetCampPoi:

; 251  : 			return rkCampData.m_iCampPoint;

  0002f	8b 41 04	 mov	 eax, DWORD PTR [ecx+4]
  00032	eb f6		 jmp	 SHORT $LN5@GetCampPoi
?GetCampPoint@ioCampManager@@QAEHW4CampType@@@Z ENDP	; ioCampManager::GetCampPoint
_TEXT	ENDS
PUBLIC	?GetCampTodayPoint@ioCampManager@@QAEHW4CampType@@@Z ; ioCampManager::GetCampTodayPoint
; Function compile flags: /Ogsp
;	COMDAT ?GetCampTodayPoint@ioCampManager@@QAEHW4CampType@@@Z
_TEXT	SEGMENT
_eCampType$ = 8						; size = 4
?GetCampTodayPoint@ioCampManager@@QAEHW4CampType@@@Z PROC ; ioCampManager::GetCampTodayPoint, COMDAT
; _this$ = ecx

; 257  : {

  00000	55		 push	 ebp
  00001	8b ec		 mov	 ebp, esp

; 258  : 	int iSize = m_CampData.size();

  00003	8b 41 38	 mov	 eax, DWORD PTR [ecx+56]
  00006	2b 41 34	 sub	 eax, DWORD PTR [ecx+52]
  00009	56		 push	 esi
  0000a	6a 18		 push	 24			; 00000018H
  0000c	99		 cdq
  0000d	5e		 pop	 esi
  0000e	f7 fe		 idiv	 esi

; 259  : 	for(int i = 0;i < iSize;i++)

  00010	33 d2		 xor	 edx, edx
  00012	85 c0		 test	 eax, eax
  00014	7e 12		 jle	 SHORT $LN2@GetCampTod

; 258  : 	int iSize = m_CampData.size();

  00016	8b 49 34	 mov	 ecx, DWORD PTR [ecx+52]
$LL4@GetCampTod:

; 260  : 	{
; 261  : 		CampData &rkCampData = m_CampData[i];
; 262  : 		if( (CampType)rkCampData.m_iCampType == eCampType )

  00019	8b 31		 mov	 esi, DWORD PTR [ecx]
  0001b	3b 75 08	 cmp	 esi, DWORD PTR _eCampType$[ebp]
  0001e	74 0f		 je	 SHORT $LN12@GetCampTod

; 259  : 	for(int i = 0;i < iSize;i++)

  00020	42		 inc	 edx
  00021	83 c1 18	 add	 ecx, 24			; 00000018H
  00024	3b d0		 cmp	 edx, eax
  00026	7c f1		 jl	 SHORT $LL4@GetCampTod
$LN2@GetCampTod:

; 264  : 	}
; 265  : 	return 0;

  00028	33 c0		 xor	 eax, eax
$LN5@GetCampTod:
  0002a	5e		 pop	 esi

; 266  : }

  0002b	5d		 pop	 ebp
  0002c	c2 04 00	 ret	 4
$LN12@GetCampTod:

; 263  : 			return rkCampData.m_iCampTodayPoint;

  0002f	8b 41 08	 mov	 eax, DWORD PTR [ecx+8]
  00032	eb f6		 jmp	 SHORT $LN5@GetCampTod
?GetCampTodayPoint@ioCampManager@@QAEHW4CampType@@@Z ENDP ; ioCampManager::GetCampTodayPoint
_TEXT	ENDS
PUBLIC	?GetCampBonusPoint@ioCampManager@@QAEHW4CampType@@@Z ; ioCampManager::GetCampBonusPoint
; Function compile flags: /Ogsp
;	COMDAT ?GetCampBonusPoint@ioCampManager@@QAEHW4CampType@@@Z
_TEXT	SEGMENT
_eCampType$ = 8						; size = 4
?GetCampBonusPoint@ioCampManager@@QAEHW4CampType@@@Z PROC ; ioCampManager::GetCampBonusPoint, COMDAT
; _this$ = ecx

; 269  : {

  00000	55		 push	 ebp
  00001	8b ec		 mov	 ebp, esp

; 270  : 	int iSize = m_CampData.size();

  00003	8b 41 38	 mov	 eax, DWORD PTR [ecx+56]
  00006	2b 41 34	 sub	 eax, DWORD PTR [ecx+52]
  00009	56		 push	 esi
  0000a	6a 18		 push	 24			; 00000018H
  0000c	99		 cdq
  0000d	5e		 pop	 esi
  0000e	f7 fe		 idiv	 esi

; 271  : 	for(int i = 0;i < iSize;i++)

  00010	33 d2		 xor	 edx, edx
  00012	85 c0		 test	 eax, eax
  00014	7e 12		 jle	 SHORT $LN2@GetCampBon

; 270  : 	int iSize = m_CampData.size();

  00016	8b 49 34	 mov	 ecx, DWORD PTR [ecx+52]
$LL4@GetCampBon:

; 272  : 	{
; 273  : 		CampData &rkCampData = m_CampData[i];
; 274  : 		if( (CampType)rkCampData.m_iCampType == eCampType )

  00019	8b 31		 mov	 esi, DWORD PTR [ecx]
  0001b	3b 75 08	 cmp	 esi, DWORD PTR _eCampType$[ebp]
  0001e	74 0f		 je	 SHORT $LN12@GetCampBon

; 271  : 	for(int i = 0;i < iSize;i++)

  00020	42		 inc	 edx
  00021	83 c1 18	 add	 ecx, 24			; 00000018H
  00024	3b d0		 cmp	 edx, eax
  00026	7c f1		 jl	 SHORT $LL4@GetCampBon
$LN2@GetCampBon:

; 276  : 	}
; 277  : 	return 0;

  00028	33 c0		 xor	 eax, eax
$LN5@GetCampBon:
  0002a	5e		 pop	 esi

; 278  : }

  0002b	5d		 pop	 ebp
  0002c	c2 04 00	 ret	 4
$LN12@GetCampBon:

; 275  : 			return rkCampData.m_iCampBonusPoint;

  0002f	8b 41 0c	 mov	 eax, DWORD PTR [ecx+12]
  00032	eb f6		 jmp	 SHORT $LN5@GetCampBon
?GetCampBonusPoint@ioCampManager@@QAEHW4CampType@@@Z ENDP ; ioCampManager::GetCampBonusPoint
_TEXT	ENDS
PUBLIC	?GetCampEntryUserCount@ioCampManager@@QAEHW4CampType@@@Z ; ioCampManager::GetCampEntryUserCount
; Function compile flags: /Ogsp
;	COMDAT ?GetCampEntryUserCount@ioCampManager@@QAEHW4CampType@@@Z
_TEXT	SEGMENT
_eCampType$ = 8						; size = 4
?GetCampEntryUserCount@ioCampManager@@QAEHW4CampType@@@Z PROC ; ioCampManager::GetCampEntryUserCount, COMDAT
; _this$ = ecx

; 281  : {

  00000	55		 push	 ebp
  00001	8b ec		 mov	 ebp, esp

; 282  : 	int iSize = m_CampData.size();

  00003	8b 41 38	 mov	 eax, DWORD PTR [ecx+56]
  00006	2b 41 34	 sub	 eax, DWORD PTR [ecx+52]
  00009	56		 push	 esi
  0000a	6a 18		 push	 24			; 00000018H
  0000c	99		 cdq
  0000d	5e		 pop	 esi
  0000e	f7 fe		 idiv	 esi

; 283  : 	for(int i = 0;i < iSize;i++)

  00010	33 d2		 xor	 edx, edx
  00012	85 c0		 test	 eax, eax
  00014	7e 12		 jle	 SHORT $LN2@GetCampEnt

; 282  : 	int iSize = m_CampData.size();

  00016	8b 49 34	 mov	 ecx, DWORD PTR [ecx+52]
$LL4@GetCampEnt:

; 284  : 	{
; 285  : 		CampData &rkCampData = m_CampData[i];
; 286  : 		if( (CampType)rkCampData.m_iCampType == eCampType )

  00019	8b 31		 mov	 esi, DWORD PTR [ecx]
  0001b	3b 75 08	 cmp	 esi, DWORD PTR _eCampType$[ebp]
  0001e	74 0f		 je	 SHORT $LN12@GetCampEnt

; 283  : 	for(int i = 0;i < iSize;i++)

  00020	42		 inc	 edx
  00021	83 c1 18	 add	 ecx, 24			; 00000018H
  00024	3b d0		 cmp	 edx, eax
  00026	7c f1		 jl	 SHORT $LL4@GetCampEnt
$LN2@GetCampEnt:

; 288  : 	}
; 289  : 	return 0;

  00028	33 c0		 xor	 eax, eax
$LN5@GetCampEnt:
  0002a	5e		 pop	 esi

; 290  : }

  0002b	5d		 pop	 ebp
  0002c	c2 04 00	 ret	 4
$LN12@GetCampEnt:

; 287  : 			return rkCampData.m_iCampEntryUserCount;

  0002f	8b 41 10	 mov	 eax, DWORD PTR [ecx+16]
  00032	eb f6		 jmp	 SHORT $LN5@GetCampEnt
?GetCampEntryUserCount@ioCampManager@@QAEHW4CampType@@@Z ENDP ; ioCampManager::GetCampEntryUserCount
_TEXT	ENDS
PUBLIC	?GetCampSpecialEntryUserCount@ioCampManager@@QAEHW4CampType@@@Z ; ioCampManager::GetCampSpecialEntryUserCount
; Function compile flags: /Ogsp
;	COMDAT ?GetCampSpecialEntryUserCount@ioCampManager@@QAEHW4CampType@@@Z
_TEXT	SEGMENT
_eCampType$ = 8						; size = 4
?GetCampSpecialEntryUserCount@ioCampManager@@QAEHW4CampType@@@Z PROC ; ioCampManager::GetCampSpecialEntryUserCount, COMDAT
; _this$ = ecx

; 293  : {

  00000	55		 push	 ebp
  00001	8b ec		 mov	 ebp, esp

; 294  : 	int iSize = m_CampData.size();

  00003	8b 41 38	 mov	 eax, DWORD PTR [ecx+56]
  00006	2b 41 34	 sub	 eax, DWORD PTR [ecx+52]
  00009	56		 push	 esi
  0000a	6a 18		 push	 24			; 00000018H
  0000c	99		 cdq
  0000d	5e		 pop	 esi
  0000e	f7 fe		 idiv	 esi

; 295  : 	for(int i = 0;i < iSize;i++)

  00010	33 d2		 xor	 edx, edx
  00012	85 c0		 test	 eax, eax
  00014	7e 12		 jle	 SHORT $LN2@GetCampSpe

; 294  : 	int iSize = m_CampData.size();

  00016	8b 49 34	 mov	 ecx, DWORD PTR [ecx+52]
$LL4@GetCampSpe:

; 296  : 	{
; 297  : 		CampData &rkCampData = m_CampData[i];
; 298  : 		if( (CampType)rkCampData.m_iCampType == eCampType )

  00019	8b 31		 mov	 esi, DWORD PTR [ecx]
  0001b	3b 75 08	 cmp	 esi, DWORD PTR _eCampType$[ebp]
  0001e	74 0f		 je	 SHORT $LN12@GetCampSpe

; 295  : 	for(int i = 0;i < iSize;i++)

  00020	42		 inc	 edx
  00021	83 c1 18	 add	 ecx, 24			; 00000018H
  00024	3b d0		 cmp	 edx, eax
  00026	7c f1		 jl	 SHORT $LL4@GetCampSpe
$LN2@GetCampSpe:

; 300  : 	}
; 301  : 	return 0;

  00028	33 c0		 xor	 eax, eax
$LN5@GetCampSpe:
  0002a	5e		 pop	 esi

; 302  : }

  0002b	5d		 pop	 ebp
  0002c	c2 04 00	 ret	 4
$LN12@GetCampSpe:

; 299  : 			return rkCampData.m_iCampSpecialEntryUserCount;

  0002f	8b 41 14	 mov	 eax, DWORD PTR [ecx+20]
  00032	eb f6		 jmp	 SHORT $LN5@GetCampSpe
?GetCampSpecialEntryUserCount@ioCampManager@@QAEHW4CampType@@@Z ENDP ; ioCampManager::GetCampSpecialEntryUserCount
_TEXT	ENDS
PUBLIC	__real@3f0a36e2e0000000
PUBLIC	__real@4f800000
PUBLIC	?GetCampInfluencePointF@ioCampManager@@QAEMW4CampType@@@Z ; ioCampManager::GetCampInfluencePointF
;	COMDAT __real@3f0a36e2e0000000
; File d:\lost saga for developer\youtube\tutorial\source\src\lsclient\stdafx.h
CONST	SEGMENT
__real@3f0a36e2e0000000 DQ 03f0a36e2e0000000r	; 5e-005
CONST	ENDS
;	COMDAT __real@4f800000
CONST	SEGMENT
__real@4f800000 DD 04f800000r			; 4.29497e+009
; Function compile flags: /Ogsp
; File d:\lost saga for developer\youtube\tutorial\source\src\lsclient\iocampmanager.cpp
CONST	ENDS
;	COMDAT ?GetCampInfluencePointF@ioCampManager@@QAEMW4CampType@@@Z
_TEXT	SEGMENT
_iRedPoint$ = -12					; size = 4
_iBluePoint$ = -8					; size = 4
_iTotalGauge$ = -4					; size = 4
tv212 = 8						; size = 4
tv208 = 8						; size = 4
tv204 = 8						; size = 4
tv198 = 8						; size = 4
tv193 = 8						; size = 4
tv168 = 8						; size = 4
tv163 = 8						; size = 4
tv152 = 8						; size = 4
_eCampType$ = 8						; size = 4
?GetCampInfluencePointF@ioCampManager@@QAEMW4CampType@@@Z PROC ; ioCampManager::GetCampInfluencePointF, COMDAT
; _this$ = ecx

; 305  : {

  00000	55		 push	 ebp
  00001	8b ec		 mov	 ebp, esp
  00003	83 ec 0c	 sub	 esp, 12			; 0000000cH
  00006	53		 push	 ebx
  00007	56		 push	 esi
  00008	57		 push	 edi

; 306  : 	int iBluePoint = GetCampPoint( CAMP_BLUE ) + GetCampBonusPoint( CAMP_BLUE );

  00009	6a 01		 push	 1
  0000b	8b d9		 mov	 ebx, ecx
  0000d	e8 00 00 00 00	 call	 ?GetCampPoint@ioCampManager@@QAEHW4CampType@@@Z ; ioCampManager::GetCampPoint
  00012	6a 01		 push	 1
  00014	8b cb		 mov	 ecx, ebx
  00016	8b f0		 mov	 esi, eax
  00018	e8 00 00 00 00	 call	 ?GetCampBonusPoint@ioCampManager@@QAEHW4CampType@@@Z ; ioCampManager::GetCampBonusPoint
  0001d	03 f0		 add	 esi, eax

; 307  : 	int iRedPoint = GetCampPoint( CAMP_RED ) + GetCampBonusPoint( CAMP_RED );

  0001f	6a 02		 push	 2
  00021	8b cb		 mov	 ecx, ebx
  00023	89 75 f8	 mov	 DWORD PTR _iBluePoint$[ebp], esi
  00026	e8 00 00 00 00	 call	 ?GetCampPoint@ioCampManager@@QAEHW4CampType@@@Z ; ioCampManager::GetCampPoint
  0002b	6a 02		 push	 2
  0002d	8b cb		 mov	 ecx, ebx
  0002f	8b f8		 mov	 edi, eax
  00031	e8 00 00 00 00	 call	 ?GetCampBonusPoint@ioCampManager@@QAEHW4CampType@@@Z ; ioCampManager::GetCampBonusPoint
  00036	03 f8		 add	 edi, eax

; 308  : 	int iTotalGauge = iBluePoint + iRedPoint;

  00038	03 f7		 add	 esi, edi
  0003a	89 7d f4	 mov	 DWORD PTR _iRedPoint$[ebp], edi
  0003d	5f		 pop	 edi
  0003e	89 75 fc	 mov	 DWORD PTR _iTotalGauge$[ebp], esi

; 309  : 	if( iTotalGauge <= 0 )

  00041	85 f6		 test	 esi, esi
  00043	5e		 pop	 esi
  00044	5b		 pop	 ebx
  00045	7f 36		 jg	 SHORT $LN5@GetCampInf

; 310  : 		return FLOAT05;

  00047	b8 05 00 00 00	 mov	 eax, 5
  0004c	8b c8		 mov	 ecx, eax
  0004e	b8 0a 00 00 00	 mov	 eax, 10			; 0000000aH
  00053	89 4d 08	 mov	 DWORD PTR tv212[ebp], ecx
  00056	db 45 08	 fild	 DWORD PTR tv212[ebp]
  00059	85 c9		 test	 ecx, ecx
  0005b	79 06		 jns	 SHORT $LN16@GetCampInf
  0005d	d8 05 00 00 00
	00		 fadd	 DWORD PTR __real@4f800000
$LN16@GetCampInf:
  00063	89 45 08	 mov	 DWORD PTR tv208[ebp], eax
  00066	db 45 08	 fild	 DWORD PTR tv208[ebp]
  00069	85 c0		 test	 eax, eax
  0006b	79 06		 jns	 SHORT $LN17@GetCampInf
  0006d	d8 05 00 00 00
	00		 fadd	 DWORD PTR __real@4f800000
$LN17@GetCampInf:
  00073	de f9		 fdivp	 ST(1), ST(0)
  00075	d9 5d 08	 fstp	 DWORD PTR tv204[ebp]
  00078	d9 45 08	 fld	 DWORD PTR tv204[ebp]
  0007b	eb 68		 jmp	 SHORT $LN6@GetCampInf
$LN5@GetCampInf:

; 311  : 	else if( eCampType == CAMP_BLUE )

  0007d	83 7d 08 01	 cmp	 DWORD PTR _eCampType$[ebp], 1
  00081	75 14		 jne	 SHORT $LN3@GetCampInf

; 312  : 		return ( (float)iBluePoint / (float)iTotalGauge ) + 0.00005f ;

  00083	db 45 f8	 fild	 DWORD PTR _iBluePoint$[ebp]
  00086	da 75 fc	 fidiv	 DWORD PTR _iTotalGauge$[ebp]
  00089	dc 05 00 00 00
	00		 fadd	 QWORD PTR __real@3f0a36e2e0000000
  0008f	d9 5d 08	 fstp	 DWORD PTR tv198[ebp]
  00092	d9 45 08	 fld	 DWORD PTR tv198[ebp]
  00095	eb 4e		 jmp	 SHORT $LN6@GetCampInf
$LN3@GetCampInf:

; 313  : 	else if( eCampType == CAMP_RED )

  00097	83 7d 08 02	 cmp	 DWORD PTR _eCampType$[ebp], 2
  0009b	75 14		 jne	 SHORT $LN1@GetCampInf

; 314  : 		return ( (float)iRedPoint / (float)iTotalGauge ) + 0.00005f;

  0009d	db 45 f4	 fild	 DWORD PTR _iRedPoint$[ebp]
  000a0	da 75 fc	 fidiv	 DWORD PTR _iTotalGauge$[ebp]
  000a3	dc 05 00 00 00
	00		 fadd	 QWORD PTR __real@3f0a36e2e0000000
  000a9	d9 5d 08	 fstp	 DWORD PTR tv193[ebp]
  000ac	d9 45 08	 fld	 DWORD PTR tv193[ebp]
  000af	eb 34		 jmp	 SHORT $LN6@GetCampInf
$LN1@GetCampInf:

; 315  : 	return FLOAT05;

  000b1	b8 05 00 00 00	 mov	 eax, 5
  000b6	8b c8		 mov	 ecx, eax
  000b8	b8 0a 00 00 00	 mov	 eax, 10			; 0000000aH
  000bd	89 4d 08	 mov	 DWORD PTR tv152[ebp], ecx
  000c0	db 45 08	 fild	 DWORD PTR tv152[ebp]
  000c3	85 c9		 test	 ecx, ecx
  000c5	79 06		 jns	 SHORT $LN18@GetCampInf
  000c7	d8 05 00 00 00
	00		 fadd	 DWORD PTR __real@4f800000
$LN18@GetCampInf:
  000cd	89 45 08	 mov	 DWORD PTR tv168[ebp], eax
  000d0	db 45 08	 fild	 DWORD PTR tv168[ebp]
  000d3	85 c0		 test	 eax, eax
  000d5	79 06		 jns	 SHORT $LN19@GetCampInf
  000d7	d8 05 00 00 00
	00		 fadd	 DWORD PTR __real@4f800000
$LN19@GetCampInf:
  000dd	de f9		 fdivp	 ST(1), ST(0)
  000df	d9 5d 08	 fstp	 DWORD PTR tv163[ebp]
  000e2	d9 45 08	 fld	 DWORD PTR tv163[ebp]
$LN6@GetCampInf:

; 316  : }

  000e5	c9		 leave
  000e6	c2 04 00	 ret	 4
?GetCampInfluencePointF@ioCampManager@@QAEMW4CampType@@@Z ENDP ; ioCampManager::GetCampInfluencePointF
_TEXT	ENDS
PUBLIC	?GetCampInfluencePoint@ioCampManager@@QAEHW4CampType@@@Z ; ioCampManager::GetCampInfluencePoint
EXTRN	__ftol2_sse:PROC
; Function compile flags: /Ogsp
;	COMDAT ?GetCampInfluencePoint@ioCampManager@@QAEHW4CampType@@@Z
_TEXT	SEGMENT
tv74 = 8						; size = 4
_eCampType$ = 8						; size = 4
?GetCampInfluencePoint@ioCampManager@@QAEHW4CampType@@@Z PROC ; ioCampManager::GetCampInfluencePoint, COMDAT
; _this$ = ecx

; 319  : {

  00000	55		 push	 ebp
  00001	8b ec		 mov	 ebp, esp
  00003	56		 push	 esi

; 320  : 	return GetCampInfluencePointF( eCampType ) * FLOAT100;

  00004	b8 64 00 00 00	 mov	 eax, 100		; 00000064H
  00009	ff 75 08	 push	 DWORD PTR _eCampType$[ebp]
  0000c	8b f0		 mov	 esi, eax
  0000e	e8 00 00 00 00	 call	 ?GetCampInfluencePointF@ioCampManager@@QAEMW4CampType@@@Z ; ioCampManager::GetCampInfluencePointF
  00013	89 75 08	 mov	 DWORD PTR tv74[ebp], esi
  00016	db 45 08	 fild	 DWORD PTR tv74[ebp]
  00019	85 f6		 test	 esi, esi
  0001b	79 06		 jns	 SHORT $LN5@GetCampInf@2
  0001d	d8 05 00 00 00
	00		 fadd	 DWORD PTR __real@4f800000
$LN5@GetCampInf@2:
  00023	de c9		 fmulp	 ST(1), ST(0)
  00025	e8 00 00 00 00	 call	 __ftol2_sse
  0002a	5e		 pop	 esi

; 321  : }

  0002b	5d		 pop	 ebp
  0002c	c2 04 00	 ret	 4
?GetCampInfluencePoint@ioCampManager@@QAEHW4CampType@@@Z ENDP ; ioCampManager::GetCampInfluencePoint
_TEXT	ENDS
PUBLIC	?GetDefaultCampType@ioCampManager@@QAE?AW4CampType@@XZ ; ioCampManager::GetDefaultCampType
; Function compile flags: /Ogsp
;	COMDAT ?GetDefaultCampType@ioCampManager@@QAE?AW4CampType@@XZ
_TEXT	SEGMENT
_iBlueEntryUser$ = -12					; size = 4
_fRedInfluence$ = -8					; size = 4
_fBlueInfluence$ = -4					; size = 4
?GetDefaultCampType@ioCampManager@@QAE?AW4CampType@@XZ PROC ; ioCampManager::GetDefaultCampType, COMDAT
; _this$ = ecx

; 324  : {

  00000	55		 push	 ebp
  00001	8b ec		 mov	 ebp, esp
  00003	83 ec 0c	 sub	 esp, 12			; 0000000cH
  00006	56		 push	 esi

; 325  : 	float fBlueInfluence = GetCampInfluencePointF( CAMP_BLUE );

  00007	6a 01		 push	 1
  00009	8b f1		 mov	 esi, ecx
  0000b	e8 00 00 00 00	 call	 ?GetCampInfluencePointF@ioCampManager@@QAEMW4CampType@@@Z ; ioCampManager::GetCampInfluencePointF
  00010	d9 5d fc	 fstp	 DWORD PTR _fBlueInfluence$[ebp]

; 326  : 	float fRedInfluence = GetCampInfluencePointF( CAMP_RED );

  00013	6a 02		 push	 2
  00015	8b ce		 mov	 ecx, esi
  00017	e8 00 00 00 00	 call	 ?GetCampInfluencePointF@ioCampManager@@QAEMW4CampType@@@Z ; ioCampManager::GetCampInfluencePointF
  0001c	d9 5d f8	 fstp	 DWORD PTR _fRedInfluence$[ebp]

; 327  : 	int iBlueEntryUser = GetCampEntryUserCount( CAMP_BLUE );

  0001f	6a 01		 push	 1
  00021	8b ce		 mov	 ecx, esi
  00023	e8 00 00 00 00	 call	 ?GetCampEntryUserCount@ioCampManager@@QAEHW4CampType@@@Z ; ioCampManager::GetCampEntryUserCount

; 328  : 	int iRedEntryUser = GetCampEntryUserCount( CAMP_RED );

  00028	6a 02		 push	 2
  0002a	8b ce		 mov	 ecx, esi
  0002c	89 45 f4	 mov	 DWORD PTR _iBlueEntryUser$[ebp], eax
  0002f	e8 00 00 00 00	 call	 ?GetCampEntryUserCount@ioCampManager@@QAEHW4CampType@@@Z ; ioCampManager::GetCampEntryUserCount

; 329  : 
; 330  : 	if( fBlueInfluence > fRedInfluence )

  00034	d9 45 f8	 fld	 DWORD PTR _fRedInfluence$[ebp]
  00037	d9 45 fc	 fld	 DWORD PTR _fBlueInfluence$[ebp]
  0003a	8b c8		 mov	 ecx, eax
  0003c	df f1		 fcomip	 ST(1)
  0003e	dd d8		 fstp	 ST(0)
  00040	5e		 pop	 esi
  00041	76 05		 jbe	 SHORT $LN7@GetDefault
$LN10@GetDefault:

; 331  : 		return CAMP_RED;

  00043	6a 02		 push	 2
  00045	58		 pop	 eax

; 337  : 		return CAMP_BLUE;
; 338  : 	return CAMP_BLUE;
; 339  : }

  00046	c9		 leave
  00047	c3		 ret	 0
$LN7@GetDefault:

; 332  : 	else if( fBlueInfluence < fRedInfluence )

  00048	f3 0f 10 45 fc	 movss	 xmm0, DWORD PTR _fBlueInfluence$[ebp]
  0004d	f3 0f 10 4d f8	 movss	 xmm1, DWORD PTR _fRedInfluence$[ebp]
  00052	0f 5a c0	 cvtps2pd xmm0, xmm0
  00055	0f 5a c9	 cvtps2pd xmm1, xmm1
  00058	66 0f 2f c8	 comisd	 xmm1, xmm0

; 333  : 		return CAMP_BLUE;

  0005c	77 05		 ja	 SHORT $LN3@GetDefault

; 334  : 	else if( iBlueEntryUser > iRedEntryUser )

  0005e	39 4d f4	 cmp	 DWORD PTR _iBlueEntryUser$[ebp], ecx

; 335  : 		return CAMP_RED;

  00061	7f e0		 jg	 SHORT $LN10@GetDefault
$LN3@GetDefault:

; 336  : 	else if( iBlueEntryUser < iRedEntryUser )

  00063	33 c0		 xor	 eax, eax
  00065	40		 inc	 eax

; 337  : 		return CAMP_BLUE;
; 338  : 	return CAMP_BLUE;
; 339  : }

  00066	c9		 leave
  00067	c3		 ret	 0
?GetDefaultCampType@ioCampManager@@QAE?AW4CampType@@XZ ENDP ; ioCampManager::GetDefaultCampType
_TEXT	ENDS
PUBLIC	?IsCloseEntry@ioCampManager@@QAE_NW4CampType@@@Z ; ioCampManager::IsCloseEntry
; Function compile flags: /Ogsp
;	COMDAT ?IsCloseEntry@ioCampManager@@QAE_NW4CampType@@@Z
_TEXT	SEGMENT
_eCampType$ = 8						; size = 4
?IsCloseEntry@ioCampManager@@QAE_NW4CampType@@@Z PROC	; ioCampManager::IsCloseEntry, COMDAT
; _this$ = ecx

; 342  : {

  00000	55		 push	 ebp
  00001	8b ec		 mov	 ebp, esp
  00003	56		 push	 esi

; 343  : 	if( GetCampInfluencePoint( eCampType ) >= m_iInfluenceCloseEntry )

  00004	ff 75 08	 push	 DWORD PTR _eCampType$[ebp]
  00007	8b f1		 mov	 esi, ecx
  00009	e8 00 00 00 00	 call	 ?GetCampInfluencePoint@ioCampManager@@QAEHW4CampType@@@Z ; ioCampManager::GetCampInfluencePoint
  0000e	3b 86 d8 00 00
	00		 cmp	 eax, DWORD PTR [esi+216]
  00014	5e		 pop	 esi
  00015	0f 9d c0	 setge	 al

; 344  : 		return true;
; 345  : 
; 346  : 	return false;
; 347  : }

  00018	5d		 pop	 ebp
  00019	c2 04 00	 ret	 4
?IsCloseEntry@ioCampManager@@QAE_NW4CampType@@@Z ENDP	; ioCampManager::IsCloseEntry
_TEXT	ENDS
PUBLIC	??_C@_0CA@GOONKFFJ@ioCampManager?3?3GetStartHourText?$AA@ ; `string'
PUBLIC	??_C@_00CNPNBAHC@?$AA@				; `string'
PUBLIC	?GetStartHourText@ioCampManager@@QAEABVioHashString@@XZ ; ioCampManager::GetStartHourText
EXTRN	__imp_??4ioHashString@@QAEAAV0@PBD@Z:PROC
EXTRN	__imp_?SafeSprintf@@YAXPADHPBDH@Z:PROC
EXTRN	__imp_?GetString@ioStringManager@@QAEPADPBD0HW4FileNamePrefix@1@@Z:PROC
EXTRN	__imp_?GetSingleton@ioStringManager@@SAAAV1@XZ:PROC
EXTRN	_atexit:PROC
EXTRN	__imp_??0ioHashString@@QAE@PBD@Z:PROC
EXTRN	__EH_epilog3_GS:PROC
EXTRN	__EH_prolog3_GS:PROC
;	COMDAT ?szReturn@?1??GetStartHourText@ioCampManager@@QAEABVioHashString@@XZ@4V3@A
; File d:\lost saga for developer\youtube\tutorial\source\src\lsclient\iocampmanager.h
_BSS	SEGMENT
?szReturn@?1??GetStartHourText@ioCampManager@@QAEABVioHashString@@XZ@4V3@A DB 010H DUP (?) ; `ioCampManager::GetStartHourText'::`2'::szReturn
_BSS	ENDS
;	COMDAT ?$S1@?1??GetStartHourText@ioCampManager@@QAEABVioHashString@@XZ@4IA
_BSS	SEGMENT
?$S1@?1??GetStartHourText@ioCampManager@@QAEABVioHashString@@XZ@4IA DD 01H DUP (?) ; `ioCampManager::GetStartHourText'::`2'::$S1
_BSS	ENDS
;	COMDAT ??_C@_0CA@GOONKFFJ@ioCampManager?3?3GetStartHourText?$AA@
CONST	SEGMENT
??_C@_0CA@GOONKFFJ@ioCampManager?3?3GetStartHourText?$AA@ DB 'ioCampManag'
	DB	'er::GetStartHourText', 00H			; `string'
CONST	ENDS
;	COMDAT ??_C@_00CNPNBAHC@?$AA@
