; Listing generated by Microsoft (R) Optimizing Compiler Version 16.00.30319.01 

	TITLE	D:\Lost Saga For Developer\Youtube\Tutorial\Source\src\LSClient\ioChainWeapon.cpp
	.686P
	.XMM
	include listing.inc
	.model	flat

INCLUDELIB MSVCRT
INCLUDELIB OLDNAMES

PUBLIC	?m_ActionStopType@ioChainWeapon@@2W4ActionStopType@@A ; ioChainWeapon::m_ActionStopType
PUBLIC	?m_DieActionStopType@ioChainWeapon@@2W4ActionStopType@@A ; ioChainWeapon::m_DieActionStopType
_BSS	SEGMENT
?m_ActionStopType@ioChainWeapon@@2W4ActionStopType@@A DD 01H DUP (?) ; ioChainWeapon::m_ActionStopType
?m_DieActionStopType@ioChainWeapon@@2W4ActionStopType@@A DD 01H DUP (?) ; ioChainWeapon::m_DieActionStopType
_BSS	ENDS
PUBLIC	??0ChainInfo@ioChainWeapon@@QAE@XZ		; ioChainWeapon::ChainInfo::ChainInfo
EXTRN	__fltused:DWORD
; Function compile flags: /Ogsp
; File d:\lost saga for developer\youtube\tutorial\source\src\lsclient\iochainweapon.h
;	COMDAT ??0ChainInfo@ioChainWeapon@@QAE@XZ
_TEXT	SEGMENT
??0ChainInfo@ioChainWeapon@@QAE@XZ PROC			; ioChainWeapon::ChainInfo::ChainInfo, COMDAT
; _this$ = ecx

; 25   : 		{
; 26   : 			m_fRange = 0.0f;

  00000	0f 57 c0	 xorps	 xmm0, xmm0
  00003	8b c1		 mov	 eax, ecx
  00005	f3 0f 11 40 04	 movss	 DWORD PTR [eax+4], xmm0

; 27   : 			m_fSpeed = 0.0f;

  0000a	f3 0f 11 00	 movss	 DWORD PTR [eax], xmm0

; 28   : 		}

  0000e	c3		 ret	 0
??0ChainInfo@ioChainWeapon@@QAE@XZ ENDP			; ioChainWeapon::ChainInfo::ChainInfo
_TEXT	ENDS
PUBLIC	?return5@@YAIXZ					; return5
; Function compile flags: /Ogsp
; File d:\lost saga for developer\youtube\tutorial\source\src\lsclient\stdafx.h
;	COMDAT ?return5@@YAIXZ
_TEXT	SEGMENT
?return5@@YAIXZ PROC					; return5, COMDAT

; 18   : 	__forceinline unsigned int return5() { __asm mov eax, 5 };

  00000	b8 05 00 00 00	 mov	 eax, 5
  00005	c3		 ret	 0
?return5@@YAIXZ ENDP					; return5
_TEXT	ENDS
PUBLIC	?return10@@YAIXZ				; return10
; Function compile flags: /Ogsp
;	COMDAT ?return10@@YAIXZ
_TEXT	SEGMENT
?return10@@YAIXZ PROC					; return10, COMDAT

; 21   : 	__forceinline unsigned int return10() { __asm mov eax, 10 };

  00000	b8 0a 00 00 00	 mov	 eax, 10			; 0000000aH
  00005	c3		 ret	 0
?return10@@YAIXZ ENDP					; return10
_TEXT	ENDS
PUBLIC	?return1000@@YAIXZ				; return1000
; Function compile flags: /Ogsp
;	COMDAT ?return1000@@YAIXZ
_TEXT	SEGMENT
?return1000@@YAIXZ PROC					; return1000, COMDAT

; 29   : 	__forceinline unsigned int return1000() { __asm mov eax, 1000 };

  00000	b8 e8 03 00 00	 mov	 eax, 1000		; 000003e8H
  00005	c3		 ret	 0
?return1000@@YAIXZ ENDP					; return1000
_TEXT	ENDS
PUBLIC	_sqrtf
EXTRN	__CIsqrt:PROC
; Function compile flags: /Ogsp
; File c:\program files (x86)\microsoft visual studio 10.0\vc\include\math.h
;	COMDAT _sqrtf
_TEXT	SEGMENT
tv69 = 8						; size = 4
__X$ = 8						; size = 4
_sqrtf	PROC						; COMDAT

; 434  :         {return ((float)sqrt((double)_X)); }

  00000	55		 push	 ebp
  00001	8b ec		 mov	 ebp, esp
  00003	d9 45 08	 fld	 DWORD PTR __X$[ebp]
  00006	e8 00 00 00 00	 call	 __CIsqrt
  0000b	d9 5d 08	 fstp	 DWORD PTR tv69[ebp]
  0000e	d9 45 08	 fld	 DWORD PTR tv69[ebp]
  00011	5d		 pop	 ebp
  00012	c3		 ret	 0
_sqrtf	ENDP
_TEXT	ENDS
PUBLIC	??_7bad_alloc@std@@6B@				; std::bad_alloc::`vftable'
PUBLIC	??0bad_alloc@std@@QAE@PBD@Z			; std::bad_alloc::bad_alloc
PUBLIC	??_R4bad_alloc@std@@6B@				; std::bad_alloc::`RTTI Complete Object Locator'
PUBLIC	??_R0?AVbad_alloc@std@@@8			; std::bad_alloc `RTTI Type Descriptor'
PUBLIC	??_R3bad_alloc@std@@8				; std::bad_alloc::`RTTI Class Hierarchy Descriptor'
PUBLIC	??_R2bad_alloc@std@@8				; std::bad_alloc::`RTTI Base Class Array'
PUBLIC	??_R1A@?0A@EA@bad_alloc@std@@8			; std::bad_alloc::`RTTI Base Class Descriptor at (0,-1,0,64)'
PUBLIC	??_R1A@?0A@EA@exception@std@@8			; std::exception::`RTTI Base Class Descriptor at (0,-1,0,64)'
PUBLIC	??_R0?AVexception@std@@@8			; std::exception `RTTI Type Descriptor'
PUBLIC	??_R3exception@std@@8				; std::exception::`RTTI Class Hierarchy Descriptor'
PUBLIC	??_R2exception@std@@8				; std::exception::`RTTI Base Class Array'
EXTRN	__imp_??0exception@std@@QAE@ABQBD@Z:PROC
EXTRN	??_7type_info@@6B@:QWORD			; type_info::`vftable'
EXTRN	??_Ebad_alloc@std@@UAEPAXI@Z:PROC		; std::bad_alloc::`vector deleting destructor'
EXTRN	?what@exception@std@@UBEPBDXZ:PROC		; std::exception::what
;	COMDAT ??_R2exception@std@@8
; File c:\program files (x86)\microsoft visual studio 10.0\vc\include\exception
rdata$r	SEGMENT
??_R2exception@std@@8 DD FLAT:??_R1A@?0A@EA@exception@std@@8 ; std::exception::`RTTI Base Class Array'
rdata$r	ENDS
;	COMDAT ??_R3exception@std@@8
rdata$r	SEGMENT
??_R3exception@std@@8 DD 00H				; std::exception::`RTTI Class Hierarchy Descriptor'
	DD	00H
	DD	01H
	DD	FLAT:??_R2exception@std@@8
rdata$r	ENDS
;	COMDAT ??_R0?AVexception@std@@@8
_DATA	SEGMENT
??_R0?AVexception@std@@@8 DD FLAT:??_7type_info@@6B@	; std::exception `RTTI Type Descriptor'
	DD	00H
	DB	'.?AVexception@std@@', 00H
_DATA	ENDS
;	COMDAT ??_R1A@?0A@EA@exception@std@@8
rdata$r	SEGMENT
??_R1A@?0A@EA@exception@std@@8 DD FLAT:??_R0?AVexception@std@@@8 ; std::exception::`RTTI Base Class Descriptor at (0,-1,0,64)'
	DD	00H
	DD	00H
	DD	0ffffffffH
	DD	00H
	DD	040H
	DD	FLAT:??_R3exception@std@@8
rdata$r	ENDS
;	COMDAT ??_R1A@?0A@EA@bad_alloc@std@@8
rdata$r	SEGMENT
??_R1A@?0A@EA@bad_alloc@std@@8 DD FLAT:??_R0?AVbad_alloc@std@@@8 ; std::bad_alloc::`RTTI Base Class Descriptor at (0,-1,0,64)'
	DD	01H
	DD	00H
	DD	0ffffffffH
	DD	00H
	DD	040H
	DD	FLAT:??_R3bad_alloc@std@@8
rdata$r	ENDS
;	COMDAT ??_R2bad_alloc@std@@8
rdata$r	SEGMENT
??_R2bad_alloc@std@@8 DD FLAT:??_R1A@?0A@EA@bad_alloc@std@@8 ; std::bad_alloc::`RTTI Base Class Array'
	DD	FLAT:??_R1A@?0A@EA@exception@std@@8
rdata$r	ENDS
;	COMDAT ??_R3bad_alloc@std@@8
rdata$r	SEGMENT
??_R3bad_alloc@std@@8 DD 00H				; std::bad_alloc::`RTTI Class Hierarchy Descriptor'
	DD	00H
	DD	02H
	DD	FLAT:??_R2bad_alloc@std@@8
rdata$r	ENDS
;	COMDAT ??_R0?AVbad_alloc@std@@@8
_DATA	SEGMENT
??_R0?AVbad_alloc@std@@@8 DD FLAT:??_7type_info@@6B@	; std::bad_alloc `RTTI Type Descriptor'
	DD	00H
	DB	'.?AVbad_alloc@std@@', 00H
_DATA	ENDS
;	COMDAT ??_R4bad_alloc@std@@6B@
rdata$r	SEGMENT
??_R4bad_alloc@std@@6B@ DD 00H				; std::bad_alloc::`RTTI Complete Object Locator'
	DD	00H
	DD	00H
	DD	FLAT:??_R0?AVbad_alloc@std@@@8
	DD	FLAT:??_R3bad_alloc@std@@8
rdata$r	ENDS
;	COMDAT ??_7bad_alloc@std@@6B@
CONST	SEGMENT
??_7bad_alloc@std@@6B@ DD FLAT:??_R4bad_alloc@std@@6B@	; std::bad_alloc::`vftable'
	DD	FLAT:??_Ebad_alloc@std@@UAEPAXI@Z
	DD	FLAT:?what@exception@std@@UBEPBDXZ
; Function compile flags: /Ogsp
CONST	ENDS
;	COMDAT ??0bad_alloc@std@@QAE@PBD@Z
_TEXT	SEGMENT
__Message$ = 8						; size = 4
??0bad_alloc@std@@QAE@PBD@Z PROC			; std::bad_alloc::bad_alloc, COMDAT
; _this$ = ecx

; 345  : 		{	// construct from message string

  00000	55		 push	 ebp
  00001	8b ec		 mov	 ebp, esp
  00003	56		 push	 esi
  00004	8d 45 08	 lea	 eax, DWORD PTR __Message$[ebp]
  00007	50		 push	 eax
  00008	8b f1		 mov	 esi, ecx
  0000a	ff 15 00 00 00
	00		 call	 DWORD PTR __imp_??0exception@std@@QAE@ABQBD@Z
  00010	c7 06 00 00 00
	00		 mov	 DWORD PTR [esi], OFFSET ??_7bad_alloc@std@@6B@

; 346  : 		}

  00016	8b c6		 mov	 eax, esi
  00018	5e		 pop	 esi
  00019	5d		 pop	 ebp
  0001a	c2 04 00	 ret	 4
??0bad_alloc@std@@QAE@PBD@Z ENDP			; std::bad_alloc::bad_alloc
_TEXT	ENDS
PUBLIC	??1bad_alloc@std@@UAE@XZ			; std::bad_alloc::~bad_alloc
EXTRN	__imp_??1exception@std@@UAE@XZ:PROC
; Function compile flags: /Ogsp
;	COMDAT ??1bad_alloc@std@@UAE@XZ
_TEXT	SEGMENT
??1bad_alloc@std@@UAE@XZ PROC				; std::bad_alloc::~bad_alloc, COMDAT
; _this$ = ecx

; 354  : 		{	// destroy the object

  00000	c7 01 00 00 00
	00		 mov	 DWORD PTR [ecx], OFFSET ??_7bad_alloc@std@@6B@

; 355  : 		}

  00006	ff 25 00 00 00
	00		 jmp	 DWORD PTR __imp_??1exception@std@@UAE@XZ
??1bad_alloc@std@@UAE@XZ ENDP				; std::bad_alloc::~bad_alloc
_TEXT	ENDS
EXTRN	??3@YAXPAX@Z:PROC				; operator delete
; Function compile flags: /Ogsp
;	COMDAT ??_Gbad_alloc@std@@UAEPAXI@Z
_TEXT	SEGMENT
___flags$ = 8						; size = 4
??_Gbad_alloc@std@@UAEPAXI@Z PROC			; std::bad_alloc::`scalar deleting destructor', COMDAT
; _this$ = ecx
  00000	55		 push	 ebp
  00001	8b ec		 mov	 ebp, esp
  00003	56		 push	 esi
  00004	8b f1		 mov	 esi, ecx
  00006	c7 06 00 00 00
	00		 mov	 DWORD PTR [esi], OFFSET ??_7bad_alloc@std@@6B@
  0000c	ff 15 00 00 00
	00		 call	 DWORD PTR __imp_??1exception@std@@UAE@XZ
  00012	f6 45 08 01	 test	 BYTE PTR ___flags$[ebp], 1
  00016	74 07		 je	 SHORT $LN1@scalar
  00018	56		 push	 esi
  00019	e8 00 00 00 00	 call	 ??3@YAXPAX@Z		; operator delete
  0001e	59		 pop	 ecx
$LN1@scalar:
  0001f	8b c6		 mov	 eax, esi
  00021	5e		 pop	 esi
  00022	5d		 pop	 ebp
  00023	c2 04 00	 ret	 4
??_Gbad_alloc@std@@UAEPAXI@Z ENDP			; std::bad_alloc::`scalar deleting destructor'
_TEXT	ENDS
PUBLIC	??2@YAPAXIPAX@Z					; operator new
; Function compile flags: /Ogsp
; File c:\program files (x86)\microsoft visual studio 10.0\vc\include\new
;	COMDAT ??2@YAPAXIPAX@Z
_TEXT	SEGMENT
___formal$ = 8						; size = 4
__Where$ = 12						; size = 4
??2@YAPAXIPAX@Z PROC					; operator new, COMDAT

; 56   : 	{	// construct array with placement at _Where

  00000	55		 push	 ebp
  00001	8b ec		 mov	 ebp, esp

; 57   : 	return (_Where);

  00003	8b 45 0c	 mov	 eax, DWORD PTR __Where$[ebp]

; 58   : 	}

  00006	5d		 pop	 ebp
  00007	c3		 ret	 0
??2@YAPAXIPAX@Z ENDP					; operator new
_TEXT	ENDS
PUBLIC	??3@YAXPAX0@Z					; operator delete
; Function compile flags: /Ogsp
;	COMDAT ??3@YAXPAX0@Z
_TEXT	SEGMENT
___formal$ = 8						; size = 4
___formal$ = 12						; size = 4
??3@YAXPAX0@Z PROC					; operator delete, COMDAT

; 62   : 	}

  00000	c3		 ret	 0
??3@YAXPAX0@Z ENDP					; operator delete
_TEXT	ENDS
PUBLIC	?_Adopt@_Iterator_base0@std@@QAEXPBX@Z		; std::_Iterator_base0::_Adopt
; Function compile flags: /Ogsp
; File c:\program files (x86)\microsoft visual studio 10.0\vc\include\xutility
;	COMDAT ?_Adopt@_Iterator_base0@std@@QAEXPBX@Z
_TEXT	SEGMENT
___formal$ = 8						; size = 4
?_Adopt@_Iterator_base0@std@@QAEXPBX@Z PROC		; std::_Iterator_base0::_Adopt, COMDAT
; _this$ = ecx

; 49   : 		}

  00000	c2 04 00	 ret	 4
?_Adopt@_Iterator_base0@std@@QAEXPBX@Z ENDP		; std::_Iterator_base0::_Adopt
_TEXT	ENDS
PUBLIC	?GetMoveDir@ioChainWeapon@@UAE?AUD3DXVECTOR3@@XZ ; ioChainWeapon::GetMoveDir
; Function compile flags: /Ogsp
; File d:\lost saga for developer\youtube\tutorial\source\src\lsclient\iochainweapon.cpp
;	COMDAT ?GetMoveDir@ioChainWeapon@@UAE?AUD3DXVECTOR3@@XZ
_TEXT	SEGMENT
___$ReturnUdt$ = 8					; size = 4
?GetMoveDir@ioChainWeapon@@UAE?AUD3DXVECTOR3@@XZ PROC	; ioChainWeapon::GetMoveDir, COMDAT
; _this$ = ecx

; 154  : {

  00000	55		 push	 ebp
  00001	8b ec		 mov	 ebp, esp

; 155  : 	return m_vMoveDir;

  00003	8b 45 08	 mov	 eax, DWORD PTR ___$ReturnUdt$[ebp]
  00006	56		 push	 esi
  00007	57		 push	 edi
  00008	8d b1 ac 08 00
	00		 lea	 esi, DWORD PTR [ecx+2220]
  0000e	8b f8		 mov	 edi, eax
  00010	a5		 movsd
  00011	a5		 movsd
  00012	a5		 movsd
  00013	5f		 pop	 edi
  00014	5e		 pop	 esi

; 156  : }

  00015	5d		 pop	 ebp
  00016	c2 04 00	 ret	 4
?GetMoveDir@ioChainWeapon@@UAE?AUD3DXVECTOR3@@XZ ENDP	; ioChainWeapon::GetMoveDir
_TEXT	ENDS
PUBLIC	?DestroyResource@ioChainWeapon@@UAEXPAVioPlayStage@@@Z ; ioChainWeapon::DestroyResource
EXTRN	__imp_?DestroyEffect@ioEffectFactory@@QAEXPAVioEffect@@@Z:PROC
EXTRN	__imp_?GetSingleton@ioEffectFactory@@SAAAV1@XZ:PROC
; Function compile flags: /Ogsp
;	COMDAT ?DestroyResource@ioChainWeapon@@UAEXPAVioPlayStage@@@Z
_TEXT	SEGMENT
_pStage$ = 8						; size = 4
?DestroyResource@ioChainWeapon@@UAEXPAVioPlayStage@@@Z PROC ; ioChainWeapon::DestroyResource, COMDAT
; _this$ = ecx

; 260  : {

  00000	56		 push	 esi

; 261  : 	if( m_pFireBall )

  00001	8d b1 94 08 00
	00		 lea	 esi, DWORD PTR [ecx+2196]
  00007	8b 06		 mov	 eax, DWORD PTR [esi]
  00009	85 c0		 test	 eax, eax
  0000b	74 12		 je	 SHORT $LN1@DestroyRes

; 262  : 	{
; 263  : 		g_EffectFactory.DestroyEffect( m_pFireBall );

  0000d	50		 push	 eax
  0000e	ff 15 00 00 00
	00		 call	 DWORD PTR __imp_?GetSingleton@ioEffectFactory@@SAAAV1@XZ
  00014	8b c8		 mov	 ecx, eax
  00016	ff 15 00 00 00
	00		 call	 DWORD PTR __imp_?DestroyEffect@ioEffectFactory@@QAEXPAVioEffect@@@Z

; 264  : 		m_pFireBall = NULL;

  0001c	83 26 00	 and	 DWORD PTR [esi], 0
$LN1@DestroyRes:
  0001f	5e		 pop	 esi

; 265  : 	}
; 266  : }

  00020	c2 04 00	 ret	 4
?DestroyResource@ioChainWeapon@@UAEXPAVioPlayStage@@@Z ENDP ; ioChainWeapon::DestroyResource
_TEXT	ENDS
PUBLIC	?GetAttackDir@ioChainWeapon@@UBE?AUD3DXVECTOR3@@PBVioPlayEntity@@@Z ; ioChainWeapon::GetAttackDir
; Function compile flags: /Ogsp
;	COMDAT ?GetAttackDir@ioChainWeapon@@UBE?AUD3DXVECTOR3@@PBVioPlayEntity@@@Z
_TEXT	SEGMENT
___$ReturnUdt$ = 8					; size = 4
_pEntity$ = 12						; size = 4
?GetAttackDir@ioChainWeapon@@UBE?AUD3DXVECTOR3@@PBVioPlayEntity@@@Z PROC ; ioChainWeapon::GetAttackDir, COMDAT
; _this$ = ecx

; 269  : {

  00000	55		 push	 ebp
  00001	8b ec		 mov	 ebp, esp

; 270  : 	return m_vMoveDir;

  00003	8b 45 08	 mov	 eax, DWORD PTR ___$ReturnUdt$[ebp]
  00006	56		 push	 esi
  00007	57		 push	 edi
  00008	8d b1 ac 08 00
	00		 lea	 esi, DWORD PTR [ecx+2220]
  0000e	8b f8		 mov	 edi, eax
  00010	a5		 movsd
  00011	a5		 movsd
  00012	a5		 movsd
  00013	5f		 pop	 edi
  00014	5e		 pop	 esi

; 271  : }

  00015	5d		 pop	 ebp
  00016	c2 08 00	 ret	 8
?GetAttackDir@ioChainWeapon@@UBE?AUD3DXVECTOR3@@PBVioPlayEntity@@@Z ENDP ; ioChainWeapon::GetAttackDir
_TEXT	ENDS
PUBLIC	?GetLocalAttackBox@ioChainWeapon@@UBEABVioOrientBox@@XZ ; ioChainWeapon::GetLocalAttackBox
EXTRN	?GetLocalAttackBox@ioWeapon@@UBEABVioOrientBox@@XZ:PROC ; ioWeapon::GetLocalAttackBox
EXTRN	__imp_?GetCollisionBox@ioEffect@@QBEABVioOrientBox@@XZ:PROC
; Function compile flags: /Ogsp
;	COMDAT ?GetLocalAttackBox@ioChainWeapon@@UBEABVioOrientBox@@XZ
_TEXT	SEGMENT
?GetLocalAttackBox@ioChainWeapon@@UBEABVioOrientBox@@XZ PROC ; ioChainWeapon::GetLocalAttackBox, COMDAT
; _this$ = ecx

; 275  : 	if( m_pFireBall )

  00000	8b 81 94 08 00
	00		 mov	 eax, DWORD PTR [ecx+2196]
  00006	85 c0		 test	 eax, eax
  00008	74 08		 je	 SHORT $LN1@GetLocalAt

; 276  : 		return m_pFireBall->GetCollisionBox();

  0000a	8b c8		 mov	 ecx, eax
  0000c	ff 25 00 00 00
	00		 jmp	 DWORD PTR __imp_?GetCollisionBox@ioEffect@@QBEABVioOrientBox@@XZ
$LN1@GetLocalAt:

; 277  : 
; 278  : 	return ioWeapon::GetLocalAttackBox();

  00012	e9 00 00 00 00	 jmp	 ?GetLocalAttackBox@ioWeapon@@UBEABVioOrientBox@@XZ ; ioWeapon::GetLocalAttackBox
?GetLocalAttackBox@ioChainWeapon@@UBEABVioOrientBox@@XZ ENDP ; ioChainWeapon::GetLocalAttackBox
_TEXT	ENDS
PUBLIC	?GetType@ioChainWeapon@@UBE?AW4WeaponType@ioWeapon@@XZ ; ioChainWeapon::GetType
; Function compile flags: /Ogsp
;	COMDAT ?GetType@ioChainWeapon@@UBE?AW4WeaponType@ioWeapon@@XZ
_TEXT	SEGMENT
?GetType@ioChainWeapon@@UBE?AW4WeaponType@ioWeapon@@XZ PROC ; ioChainWeapon::GetType, COMDAT
; _this$ = ecx

; 283  : 	return WT_CHAIN;

  00000	6a 17		 push	 23			; 00000017H
  00002	58		 pop	 eax

; 284  : }

  00003	c3		 ret	 0
?GetType@ioChainWeapon@@UBE?AW4WeaponType@ioWeapon@@XZ ENDP ; ioChainWeapon::GetType
_TEXT	ENDS
PUBLIC	?GetActionStopType@ioChainWeapon@@UBE?AW4ActionStopType@@XZ ; ioChainWeapon::GetActionStopType
; Function compile flags: /Ogsp
;	COMDAT ?GetActionStopType@ioChainWeapon@@UBE?AW4ActionStopType@@XZ
_TEXT	SEGMENT
?GetActionStopType@ioChainWeapon@@UBE?AW4ActionStopType@@XZ PROC ; ioChainWeapon::GetActionStopType, COMDAT
; _this$ = ecx

; 288  : 	return m_ActionStopType;

  00000	a1 00 00 00 00	 mov	 eax, DWORD PTR ?m_ActionStopType@ioChainWeapon@@2W4ActionStopType@@A ; ioChainWeapon::m_ActionStopType

; 289  : }

  00005	c3		 ret	 0
?GetActionStopType@ioChainWeapon@@UBE?AW4ActionStopType@@XZ ENDP ; ioChainWeapon::GetActionStopType
_TEXT	ENDS
PUBLIC	?GetDieActionStopType@ioChainWeapon@@UBE?AW4ActionStopType@@XZ ; ioChainWeapon::GetDieActionStopType
; Function compile flags: /Ogsp
;	COMDAT ?GetDieActionStopType@ioChainWeapon@@UBE?AW4ActionStopType@@XZ
_TEXT	SEGMENT
?GetDieActionStopType@ioChainWeapon@@UBE?AW4ActionStopType@@XZ PROC ; ioChainWeapon::GetDieActionStopType, COMDAT
; _this$ = ecx

; 293  : 	return m_DieActionStopType;

  00000	a1 00 00 00 00	 mov	 eax, DWORD PTR ?m_DieActionStopType@ioChainWeapon@@2W4ActionStopType@@A ; ioChainWeapon::m_DieActionStopType

; 294  : }

  00005	c3		 ret	 0
?GetDieActionStopType@ioChainWeapon@@UBE?AW4ActionStopType@@XZ ENDP ; ioChainWeapon::GetDieActionStopType
_TEXT	ENDS
PUBLIC	__real@00000000
PUBLIC	?GetMoveSpeed@ioChainWeapon@@IAEMXZ		; ioChainWeapon::GetMoveSpeed
;	COMDAT __real@00000000
CONST	SEGMENT
__real@00000000 DD 000000000r			; 0
; Function compile flags: /Ogsp
CONST	ENDS
;	COMDAT ?GetMoveSpeed@ioChainWeapon@@IAEMXZ
_TEXT	SEGMENT
?GetMoveSpeed@ioChainWeapon@@IAEMXZ PROC		; ioChainWeapon::GetMoveSpeed, COMDAT
; _this$ = ecx

; 297  : {

  00000	56		 push	 esi
  00001	8b f1		 mov	 esi, ecx

; 298  : 	if( m_fCurMoveSpeed == 0.0f )

  00003	f3 0f 10 86 9c
	08 00 00	 movss	 xmm0, DWORD PTR [esi+2204]
  0000b	0f 2e 05 00 00
	00 00		 ucomiss xmm0, DWORD PTR __real@00000000
  00012	9f		 lahf
  00013	f6 c4 44	 test	 ah, 68			; 00000044H
  00016	7a 14		 jp	 SHORT $LN1@GetMoveSpe

; 299  : 		m_fCurMoveSpeed = GetAttribute()->m_fMoveSpeed;

  00018	8b 06		 mov	 eax, DWORD PTR [esi]
  0001a	ff 90 3c 01 00
	00		 call	 DWORD PTR [eax+316]
  00020	d9 80 98 01 00
	00		 fld	 DWORD PTR [eax+408]
  00026	d9 9e 9c 08 00
	00		 fstp	 DWORD PTR [esi+2204]
$LN1@GetMoveSpe:

; 300  : 
; 301  : 	return m_fCurMoveSpeed;

  0002c	d9 86 9c 08 00
	00		 fld	 DWORD PTR [esi+2204]
  00032	5e		 pop	 esi

; 302  : }

  00033	c3		 ret	 0
?GetMoveSpeed@ioChainWeapon@@IAEMXZ ENDP		; ioChainWeapon::GetMoveSpeed
_TEXT	ENDS
PUBLIC	?size@?$vector@UChainInfo@ioChainWeapon@@V?$allocator@UChainInfo@ioChainWeapon@@@std@@@std@@QBEIXZ ; std::vector<ioChainWeapon::ChainInfo,std::allocator<ioChainWeapon::ChainInfo> >::size
; Function compile flags: /Ogsp
; File c:\program files (x86)\microsoft visual studio 10.0\vc\include\vector
;	COMDAT ?size@?$vector@UChainInfo@ioChainWeapon@@V?$allocator@UChainInfo@ioChainWeapon@@@std@@@std@@QBEIXZ
_TEXT	SEGMENT
?size@?$vector@UChainInfo@ioChainWeapon@@V?$allocator@UChainInfo@ioChainWeapon@@@std@@@std@@QBEIXZ PROC ; std::vector<ioChainWeapon::ChainInfo,std::allocator<ioChainWeapon::ChainInfo> >::size, COMDAT
; _this$ = ecx

; 879  : 		return (this->_Mylast - this->_Myfirst);

  00000	8b 41 04	 mov	 eax, DWORD PTR [ecx+4]
  00003	2b 01		 sub	 eax, DWORD PTR [ecx]
  00005	c1 f8 03	 sar	 eax, 3

; 880  : 		}

  00008	c3		 ret	 0
?size@?$vector@UChainInfo@ioChainWeapon@@V?$allocator@UChainInfo@ioChainWeapon@@@std@@@std@@QBEIXZ ENDP ; std::vector<ioChainWeapon::ChainInfo,std::allocator<ioChainWeapon::ChainInfo> >::size
_TEXT	ENDS
PUBLIC	?empty@?$vector@UChainInfo@ioChainWeapon@@V?$allocator@UChainInfo@ioChainWeapon@@@std@@@std@@QBE_NXZ ; std::vector<ioChainWeapon::ChainInfo,std::allocator<ioChainWeapon::ChainInfo> >::empty
; Function compile flags: /Ogsp
;	COMDAT ?empty@?$vector@UChainInfo@ioChainWeapon@@V?$allocator@UChainInfo@ioChainWeapon@@@std@@@std@@QBE_NXZ
_TEXT	SEGMENT
?empty@?$vector@UChainInfo@ioChainWeapon@@V?$allocator@UChainInfo@ioChainWeapon@@@std@@@std@@QBE_NXZ PROC ; std::vector<ioChainWeapon::ChainInfo,std::allocator<ioChainWeapon::ChainInfo> >::empty, COMDAT
; _this$ = ecx

; 889  : 		return (this->_Myfirst == this->_Mylast);

  00000	8b 01		 mov	 eax, DWORD PTR [ecx]
  00002	2b 41 04	 sub	 eax, DWORD PTR [ecx+4]
  00005	f7 d8		 neg	 eax
  00007	1b c0		 sbb	 eax, eax
  00009	40		 inc	 eax

; 890  : 		}

  0000a	c3		 ret	 0
?empty@?$vector@UChainInfo@ioChainWeapon@@V?$allocator@UChainInfo@ioChainWeapon@@@std@@@std@@QBE_NXZ ENDP ; std::vector<ioChainWeapon::ChainInfo,std::allocator<ioChainWeapon::ChainInfo> >::empty
_TEXT	ENDS
PUBLIC	??A?$vector@UChainInfo@ioChainWeapon@@V?$allocator@UChainInfo@ioChainWeapon@@@std@@@std@@QAEAAUChainInfo@ioChainWeapon@@I@Z ; std::vector<ioChainWeapon::ChainInfo,std::allocator<ioChainWeapon::ChainInfo> >::operator[]
; Function compile flags: /Ogsp
;	COMDAT ??A?$vector@UChainInfo@ioChainWeapon@@V?$allocator@UChainInfo@ioChainWeapon@@@std@@@std@@QAEAAUChainInfo@ioChainWeapon@@I@Z
_TEXT	SEGMENT
__Pos$ = 8						; size = 4
??A?$vector@UChainInfo@ioChainWeapon@@V?$allocator@UChainInfo@ioChainWeapon@@@std@@@std@@QAEAAUChainInfo@ioChainWeapon@@I@Z PROC ; std::vector<ioChainWeapon::ChainInfo,std::allocator<ioChainWeapon::ChainInfo> >::operator[], COMDAT
; _this$ = ecx

; 928  : 		{	// subscript mutable sequence

  00000	55		 push	 ebp
  00001	8b ec		 mov	 ebp, esp

; 929  :  #if _ITERATOR_DEBUG_LEVEL == 2
; 930  : 		if (size() <= _Pos)
; 931  : 			{	// report error
; 932  : 			_DEBUG_ERROR("vector subscript out of range");
; 933  : 			_SCL_SECURE_OUT_OF_RANGE;
; 934  : 			}
; 935  : 
; 936  :  #elif _ITERATOR_DEBUG_LEVEL == 1
; 937  : 		_SCL_SECURE_VALIDATE_RANGE(_Pos < size());
; 938  :  #endif /* _ITERATOR_DEBUG_LEVEL */
; 939  : 
; 940  : 		return (*(this->_Myfirst + _Pos));

  00003	8b 01		 mov	 eax, DWORD PTR [ecx]
  00005	8b 4d 08	 mov	 ecx, DWORD PTR __Pos$[ebp]
  00008	8d 04 c8	 lea	 eax, DWORD PTR [eax+ecx*8]

; 941  : 		}

  0000b	5d		 pop	 ebp
  0000c	c2 04 00	 ret	 4
??A?$vector@UChainInfo@ioChainWeapon@@V?$allocator@UChainInfo@ioChainWeapon@@@std@@@std@@QAEAAUChainInfo@ioChainWeapon@@I@Z ENDP ; std::vector<ioChainWeapon::ChainInfo,std::allocator<ioChainWeapon::ChainInfo> >::operator[]
_TEXT	ENDS
PUBLIC	?_Inside@?$vector@HV?$allocator@H@std@@@std@@IBE_NPBH@Z ; std::vector<int,std::allocator<int> >::_Inside
; Function compile flags: /Ogsp
;	COMDAT ?_Inside@?$vector@HV?$allocator@H@std@@@std@@IBE_NPBH@Z
_TEXT	SEGMENT
__Ptr$ = 8						; size = 4
?_Inside@?$vector@HV?$allocator@H@std@@@std@@IBE_NPBH@Z PROC ; std::vector<int,std::allocator<int> >::_Inside, COMDAT
; _this$ = ecx

; 1285 : 		{	// test if _Ptr points inside vector

  00000	55		 push	 ebp
  00001	8b ec		 mov	 ebp, esp

; 1286 : 		return (_Ptr < this->_Mylast && this->_Myfirst <= _Ptr);

  00003	8b 45 08	 mov	 eax, DWORD PTR __Ptr$[ebp]
  00006	3b 41 04	 cmp	 eax, DWORD PTR [ecx+4]
  00009	73 09		 jae	 SHORT $LN3@Inside
  0000b	39 01		 cmp	 DWORD PTR [ecx], eax
  0000d	77 05		 ja	 SHORT $LN3@Inside
  0000f	33 c0		 xor	 eax, eax
  00011	40		 inc	 eax
  00012	eb 02		 jmp	 SHORT $LN4@Inside
$LN3@Inside:
  00014	33 c0		 xor	 eax, eax
$LN4@Inside:

; 1287 : 		}

  00016	5d		 pop	 ebp
  00017	c2 04 00	 ret	 4
?_Inside@?$vector@HV?$allocator@H@std@@@std@@IBE_NPBH@Z ENDP ; std::vector<int,std::allocator<int> >::_Inside
_TEXT	ENDS
PUBLIC	?_Orphan_range@?$vector@HV?$allocator@H@std@@@std@@IBEXPAH0@Z ; std::vector<int,std::allocator<int> >::_Orphan_range
; Function compile flags: /Ogsp
;	COMDAT ?_Orphan_range@?$vector@HV?$allocator@H@std@@@std@@IBEXPAH0@Z
_TEXT	SEGMENT
___formal$ = 8						; size = 4
___formal$ = 12						; size = 4
?_Orphan_range@?$vector@HV?$allocator@H@std@@@std@@IBEXPAH0@Z PROC ; std::vector<int,std::allocator<int> >::_Orphan_range, COMDAT
; _this$ = ecx

; 1454 : 		}

  00000	c2 08 00	 ret	 8
?_Orphan_range@?$vector@HV?$allocator@H@std@@@std@@IBEXPAH0@Z ENDP ; std::vector<int,std::allocator<int> >::_Orphan_range
_TEXT	ENDS
PUBLIC	?capacity@?$vector@UChainInfo@ioChainWeapon@@V?$allocator@UChainInfo@ioChainWeapon@@@std@@@std@@QBEIXZ ; std::vector<ioChainWeapon::ChainInfo,std::allocator<ioChainWeapon::ChainInfo> >::capacity
; Function compile flags: /Ogsp
;	COMDAT ?capacity@?$vector@UChainInfo@ioChainWeapon@@V?$allocator@UChainInfo@ioChainWeapon@@@std@@@std@@QBEIXZ
_TEXT	SEGMENT
?capacity@?$vector@UChainInfo@ioChainWeapon@@V?$allocator@UChainInfo@ioChainWeapon@@@std@@@std@@QBEIXZ PROC ; std::vector<ioChainWeapon::ChainInfo,std::allocator<ioChainWeapon::ChainInfo> >::capacity, COMDAT
; _this$ = ecx

; 777  : 		return (this->_Myend - this->_Myfirst);

  00000	8b 41 08	 mov	 eax, DWORD PTR [ecx+8]
  00003	2b 01		 sub	 eax, DWORD PTR [ecx]
  00005	c1 f8 03	 sar	 eax, 3

; 778  : 		}

  00008	c3		 ret	 0
?capacity@?$vector@UChainInfo@ioChainWeapon@@V?$allocator@UChainInfo@ioChainWeapon@@@std@@@std@@QBEIXZ ENDP ; std::vector<ioChainWeapon::ChainInfo,std::allocator<ioChainWeapon::ChainInfo> >::capacity
_TEXT	ENDS
PUBLIC	?_Inside@?$vector@UChainInfo@ioChainWeapon@@V?$allocator@UChainInfo@ioChainWeapon@@@std@@@std@@IBE_NPBUChainInfo@ioChainWeapon@@@Z ; std::vector<ioChainWeapon::ChainInfo,std::allocator<ioChainWeapon::ChainInfo> >::_Inside
; Function compile flags: /Ogsp
;	COMDAT ?_Inside@?$vector@UChainInfo@ioChainWeapon@@V?$allocator@UChainInfo@ioChainWeapon@@@std@@@std@@IBE_NPBUChainInfo@ioChainWeapon@@@Z
_TEXT	SEGMENT
__Ptr$ = 8						; size = 4
?_Inside@?$vector@UChainInfo@ioChainWeapon@@V?$allocator@UChainInfo@ioChainWeapon@@@std@@@std@@IBE_NPBUChainInfo@ioChainWeapon@@@Z PROC ; std::vector<ioChainWeapon::ChainInfo,std::allocator<ioChainWeapon::ChainInfo> >::_Inside, COMDAT
; _this$ = ecx

; 1285 : 		{	// test if _Ptr points inside vector

  00000	55		 push	 ebp
  00001	8b ec		 mov	 ebp, esp

; 1286 : 		return (_Ptr < this->_Mylast && this->_Myfirst <= _Ptr);

  00003	8b 45 08	 mov	 eax, DWORD PTR __Ptr$[ebp]
  00006	3b 41 04	 cmp	 eax, DWORD PTR [ecx+4]
  00009	73 09		 jae	 SHORT $LN3@Inside@2
  0000b	39 01		 cmp	 DWORD PTR [ecx], eax
  0000d	77 05		 ja	 SHORT $LN3@Inside@2
  0000f	33 c0		 xor	 eax, eax
  00011	40		 inc	 eax
  00012	eb 02		 jmp	 SHORT $LN4@Inside@2
$LN3@Inside@2:
  00014	33 c0		 xor	 eax, eax
$LN4@Inside@2:

; 1287 : 		}

  00016	5d		 pop	 ebp
  00017	c2 04 00	 ret	 4
?_Inside@?$vector@UChainInfo@ioChainWeapon@@V?$allocator@UChainInfo@ioChainWeapon@@@std@@@std@@IBE_NPBUChainInfo@ioChainWeapon@@@Z ENDP ; std::vector<ioChainWeapon::ChainInfo,std::allocator<ioChainWeapon::ChainInfo> >::_Inside
_TEXT	ENDS
PUBLIC	??_C@_0BD@OLBABOEK@vector?$DMT?$DO?5too?5long?$AA@ ; `string'
PUBLIC	?_Xlen@?$vector@UChainInfo@ioChainWeapon@@V?$allocator@UChainInfo@ioChainWeapon@@@std@@@std@@IBEXXZ ; std::vector<ioChainWeapon::ChainInfo,std::allocator<ioChainWeapon::ChainInfo> >::_Xlen
EXTRN	__imp_?_Xlength_error@std@@YAXPBD@Z:PROC
;	COMDAT ??_C@_0BD@OLBABOEK@vector?$DMT?$DO?5too?5long?$AA@
CONST	SEGMENT
??_C@_0BD@OLBABOEK@vector?$DMT?$DO?5too?5long?$AA@ DB 'vector<T> too long'
	DB	00H						; `string'
; Function compile flags: /Ogsp
CONST	ENDS
;	COMDAT ?_Xlen@?$vector@UChainInfo@ioChainWeapon@@V?$allocator@UChainInfo@ioChainWeapon@@@std@@@std@@IBEXXZ
_TEXT	SEGMENT
?_Xlen@?$vector@UChainInfo@ioChainWeapon@@V?$allocator@UChainInfo@ioChainWeapon@@@std@@@std@@IBEXXZ PROC ; std::vector<ioChainWeapon::ChainInfo,std::allocator<ioChainWeapon::ChainInfo> >::_Xlen, COMDAT
; _this$ = ecx

; 1427 : 		_Xlength_error("vector<T> too long");

  00000	68 00 00 00 00	 push	 OFFSET ??_C@_0BD@OLBABOEK@vector?$DMT?$DO?5too?5long?$AA@
  00005	ff 15 00 00 00
	00		 call	 DWORD PTR __imp_?_Xlength_error@std@@YAXPBD@Z
$LN4@Xlen:
$LN3@Xlen:
  0000b	cc		 int	 3
?_Xlen@?$vector@UChainInfo@ioChainWeapon@@V?$allocator@UChainInfo@ioChainWeapon@@@std@@@std@@IBEXXZ ENDP ; std::vector<ioChainWeapon::ChainInfo,std::allocator<ioChainWeapon::ChainInfo> >::_Xlen
_TEXT	ENDS
PUBLIC	?_Orphan_range@?$vector@UChainInfo@ioChainWeapon@@V?$allocator@UChainInfo@ioChainWeapon@@@std@@@std@@IBEXPAUChainInfo@ioChainWeapon@@0@Z ; std::vector<ioChainWeapon::ChainInfo,std::allocator<ioChainWeapon::ChainInfo> >::_Orphan_range
; Function compile flags: /Ogsp
;	COMDAT ?_Orphan_range@?$vector@UChainInfo@ioChainWeapon@@V?$allocator@UChainInfo@ioChainWeapon@@@std@@@std@@IBEXPAUChainInfo@ioChainWeapon@@0@Z
_TEXT	SEGMENT
___formal$ = 8						; size = 4
___formal$ = 12						; size = 4
?_Orphan_range@?$vector@UChainInfo@ioChainWeapon@@V?$allocator@UChainInfo@ioChainWeapon@@@std@@@std@@IBEXPAUChainInfo@ioChainWeapon@@0@Z PROC ; std::vector<ioChainWeapon::ChainInfo,std::allocator<ioChainWeapon::ChainInfo> >::_Orphan_range, COMDAT
; _this$ = ecx

; 1454 : 		}

  00000	c2 08 00	 ret	 8
?_Orphan_range@?$vector@UChainInfo@ioChainWeapon@@V?$allocator@UChainInfo@ioChainWeapon@@@std@@@std@@IBEXPAUChainInfo@ioChainWeapon@@0@Z ENDP ; std::vector<ioChainWeapon::ChainInfo,std::allocator<ioChainWeapon::ChainInfo> >::_Orphan_range
_TEXT	ENDS
PUBLIC	??1?$_Vector_val@UChainInfo@ioChainWeapon@@V?$allocator@UChainInfo@ioChainWeapon@@@std@@@std@@QAE@XZ ; std::_Vector_val<ioChainWeapon::ChainInfo,std::allocator<ioChainWeapon::ChainInfo> >::~_Vector_val<ioChainWeapon::ChainInfo,std::allocator<ioChainWeapon::ChainInfo> >
; Function compile flags: /Ogsp
;	COMDAT ??1?$_Vector_val@UChainInfo@ioChainWeapon@@V?$allocator@UChainInfo@ioChainWeapon@@@std@@@std@@QAE@XZ
_TEXT	SEGMENT
??1?$_Vector_val@UChainInfo@ioChainWeapon@@V?$allocator@UChainInfo@ioChainWeapon@@@std@@@std@@QAE@XZ PROC ; std::_Vector_val<ioChainWeapon::ChainInfo,std::allocator<ioChainWeapon::ChainInfo> >::~_Vector_val<ioChainWeapon::ChainInfo,std::allocator<ioChainWeapon::ChainInfo> >, COMDAT
; _this$ = ecx

; 434  : 		}

  00000	c3		 ret	 0
??1?$_Vector_val@UChainInfo@ioChainWeapon@@V?$allocator@UChainInfo@ioChainWeapon@@@std@@@std@@QAE@XZ ENDP ; std::_Vector_val<ioChainWeapon::ChainInfo,std::allocator<ioChainWeapon::ChainInfo> >::~_Vector_val<ioChainWeapon::ChainInfo,std::allocator<ioChainWeapon::ChainInfo> >
_TEXT	ENDS
PUBLIC	??0?$allocator@UChainInfo@ioChainWeapon@@@std@@QAE@XZ ; std::allocator<ioChainWeapon::ChainInfo>::allocator<ioChainWeapon::ChainInfo>
; Function compile flags: /Ogsp
; File c:\program files (x86)\microsoft visual studio 10.0\vc\include\xmemory
;	COMDAT ??0?$allocator@UChainInfo@ioChainWeapon@@@std@@QAE@XZ
_TEXT	SEGMENT
??0?$allocator@UChainInfo@ioChainWeapon@@@std@@QAE@XZ PROC ; std::allocator<ioChainWeapon::ChainInfo>::allocator<ioChainWeapon::ChainInfo>, COMDAT
; _this$ = ecx

; 161  : 	_ALLOCATOR() _THROW0()

  00000	8b c1		 mov	 eax, ecx

; 162  : 		{	// construct default allocator (do nothing)
; 163  : 		}

  00002	c3		 ret	 0
??0?$allocator@UChainInfo@ioChainWeapon@@@std@@QAE@XZ ENDP ; std::allocator<ioChainWeapon::ChainInfo>::allocator<ioChainWeapon::ChainInfo>
_TEXT	ENDS
PUBLIC	?deallocate@?$allocator@UChainInfo@ioChainWeapon@@@std@@QAEXPAUChainInfo@ioChainWeapon@@I@Z ; std::allocator<ioChainWeapon::ChainInfo>::deallocate
; Function compile flags: /Ogsp
;	COMDAT ?deallocate@?$allocator@UChainInfo@ioChainWeapon@@@std@@QAEXPAUChainInfo@ioChainWeapon@@I@Z
_TEXT	SEGMENT
__Ptr$ = 8						; size = 4
___formal$ = 12						; size = 4
?deallocate@?$allocator@UChainInfo@ioChainWeapon@@@std@@QAEXPAUChainInfo@ioChainWeapon@@I@Z PROC ; std::allocator<ioChainWeapon::ChainInfo>::deallocate, COMDAT
; _this$ = ecx

; 181  : 		{	// deallocate object at _Ptr, ignore size

  00000	55		 push	 ebp
  00001	8b ec		 mov	 ebp, esp

; 182  : 		::operator delete(_Ptr);

  00003	ff 75 08	 push	 DWORD PTR __Ptr$[ebp]
  00006	e8 00 00 00 00	 call	 ??3@YAXPAX@Z		; operator delete
  0000b	59		 pop	 ecx

; 183  : 		}

  0000c	5d		 pop	 ebp
  0000d	c2 08 00	 ret	 8
?deallocate@?$allocator@UChainInfo@ioChainWeapon@@@std@@QAEXPAUChainInfo@ioChainWeapon@@I@Z ENDP ; std::allocator<ioChainWeapon::ChainInfo>::deallocate
_TEXT	ENDS
PUBLIC	??0?$allocator@UChainInfo@ioChainWeapon@@@std@@QAE@ABV01@@Z ; std::allocator<ioChainWeapon::ChainInfo>::allocator<ioChainWeapon::ChainInfo>
; Function compile flags: /Ogsp
;	COMDAT ??0?$allocator@UChainInfo@ioChainWeapon@@@std@@QAE@ABV01@@Z
_TEXT	SEGMENT
___formal$ = 8						; size = 4
??0?$allocator@UChainInfo@ioChainWeapon@@@std@@QAE@ABV01@@Z PROC ; std::allocator<ioChainWeapon::ChainInfo>::allocator<ioChainWeapon::ChainInfo>, COMDAT
; _this$ = ecx

; 165  : 	_ALLOCATOR(const _ALLOCATOR<_Ty>&) _THROW0()

  00000	8b c1		 mov	 eax, ecx

; 166  : 		{	// construct by copying (do nothing)
; 167  : 		}

  00002	c2 04 00	 ret	 4
??0?$allocator@UChainInfo@ioChainWeapon@@@std@@QAE@ABV01@@Z ENDP ; std::allocator<ioChainWeapon::ChainInfo>::allocator<ioChainWeapon::ChainInfo>
_TEXT	ENDS
PUBLIC	?max_size@?$allocator@UChainInfo@ioChainWeapon@@@std@@QBEIXZ ; std::allocator<ioChainWeapon::ChainInfo>::max_size
; Function compile flags: /Ogsp
;	COMDAT ?max_size@?$allocator@UChainInfo@ioChainWeapon@@@std@@QBEIXZ
_TEXT	SEGMENT
?max_size@?$allocator@UChainInfo@ioChainWeapon@@@std@@QBEIXZ PROC ; std::allocator<ioChainWeapon::ChainInfo>::max_size, COMDAT
; _this$ = ecx

; 218  : 		_SIZT _Count = (_SIZT)(-1) / sizeof (_Ty);
; 219  : 		return (0 < _Count ? _Count : 1);

  00000	b8 ff ff ff 1f	 mov	 eax, 536870911		; 1fffffffH

; 220  : 		}

  00005	c3		 ret	 0
?max_size@?$allocator@UChainInfo@ioChainWeapon@@@std@@QBEIXZ ENDP ; std::allocator<ioChainWeapon::ChainInfo>::max_size
_TEXT	ENDS
PUBLIC	??0?$_Vector_const_iterator@V?$_Vector_val@UChainInfo@ioChainWeapon@@V?$allocator@UChainInfo@ioChainWeapon@@@std@@@std@@@std@@QAE@PAUChainInfo@ioChainWeapon@@PBU_Container_base0@1@@Z ; std::_Vector_const_iterator<std::_Vector_val<ioChainWeapon::ChainInfo,std::allocator<ioChainWeapon::ChainInfo> > >::_Vector_const_iterator<std::_Vector_val<ioChainWeapon::ChainInfo,std::allocator<ioChainWeapon::ChainInfo> > >
; Function compile flags: /Ogsp
; File c:\program files (x86)\microsoft visual studio 10.0\vc\include\vector
;	COMDAT ??0?$_Vector_const_iterator@V?$_Vector_val@UChainInfo@ioChainWeapon@@V?$allocator@UChainInfo@ioChainWeapon@@@std@@@std@@@std@@QAE@PAUChainInfo@ioChainWeapon@@PBU_Container_base0@1@@Z
_TEXT	SEGMENT
__Parg$ = 8						; size = 4
__Pvector$ = 12						; size = 4
??0?$_Vector_const_iterator@V?$_Vector_val@UChainInfo@ioChainWeapon@@V?$allocator@UChainInfo@ioChainWeapon@@@std@@@std@@@std@@QAE@PAUChainInfo@ioChainWeapon@@PBU_Container_base0@1@@Z PROC ; std::_Vector_const_iterator<std::_Vector_val<ioChainWeapon::ChainInfo,std::allocator<ioChainWeapon::ChainInfo> > >::_Vector_const_iterator<std::_Vector_val<ioChainWeapon::ChainInfo,std::allocator<ioChainWeapon::ChainInfo> > >, COMDAT
; _this$ = ecx

; 45   : 		{	// construct with pointer _Parg

  00000	55		 push	 ebp
  00001	8b ec		 mov	 ebp, esp
  00003	8b c1		 mov	 eax, ecx
  00005	8b 4d 08	 mov	 ecx, DWORD PTR __Parg$[ebp]
  00008	89 08		 mov	 DWORD PTR [eax], ecx

; 46   : 		this->_Adopt(_Pvector);
; 47   : 		}

  0000a	5d		 pop	 ebp
  0000b	c2 08 00	 ret	 8
??0?$_Vector_const_iterator@V?$_Vector_val@UChainInfo@ioChainWeapon@@V?$allocator@UChainInfo@ioChainWeapon@@@std@@@std@@@std@@QAE@PAUChainInfo@ioChainWeapon@@PBU_Container_base0@1@@Z ENDP ; std::_Vector_const_iterator<std::_Vector_val<ioChainWeapon::ChainInfo,std::allocator<ioChainWeapon::ChainInfo> > >::_Vector_const_iterator<std::_Vector_val<ioChainWeapon::ChainInfo,std::allocator<ioChainWeapon::ChainInfo> > >
_TEXT	ENDS
PUBLIC	?_Compat@?$_Vector_const_iterator@V?$_Vector_val@UChainInfo@ioChainWeapon@@V?$allocator@UChainInfo@ioChainWeapon@@@std@@@std@@@std@@QBEXABV12@@Z ; std::_Vector_const_iterator<std::_Vector_val<ioChainWeapon::ChainInfo,std::allocator<ioChainWeapon::ChainInfo> > >::_Compat
; Function compile flags: /Ogsp
;	COMDAT ?_Compat@?$_Vector_const_iterator@V?$_Vector_val@UChainInfo@ioChainWeapon@@V?$allocator@UChainInfo@ioChainWeapon@@@std@@@std@@@std@@QBEXABV12@@Z
_TEXT	SEGMENT
___formal$ = 8						; size = 4
?_Compat@?$_Vector_const_iterator@V?$_Vector_val@UChainInfo@ioChainWeapon@@V?$allocator@UChainInfo@ioChainWeapon@@@std@@@std@@@std@@QBEXABV12@@Z PROC ; std::_Vector_const_iterator<std::_Vector_val<ioChainWeapon::ChainInfo,std::allocator<ioChainWeapon::ChainInfo> > >::_Compat, COMDAT
; _this$ = ecx

; 253  : 		}

  00000	c2 04 00	 ret	 4
?_Compat@?$_Vector_const_iterator@V?$_Vector_val@UChainInfo@ioChainWeapon@@V?$allocator@UChainInfo@ioChainWeapon@@@std@@@std@@@std@@QBEXABV12@@Z ENDP ; std::_Vector_const_iterator<std::_Vector_val<ioChainWeapon::ChainInfo,std::allocator<ioChainWeapon::ChainInfo> > >::_Compat
_TEXT	ENDS
PUBLIC	??$addressof@H@std@@YAPAHAAH@Z			; std::addressof<int>
; Function compile flags: /Ogsp
; File c:\program files (x86)\microsoft visual studio 10.0\vc\include\xmemory
;	COMDAT ??$addressof@H@std@@YAPAHAAH@Z
_TEXT	SEGMENT
__Val$ = 8						; size = 4
??$addressof@H@std@@YAPAHAAH@Z PROC			; std::addressof<int>, COMDAT

; 110  : 	{	// return address of _Val

  00000	55		 push	 ebp
  00001	8b ec		 mov	 ebp, esp

; 111  : 	return ((_Ty *) &(char&)_Val);

  00003	8b 45 08	 mov	 eax, DWORD PTR __Val$[ebp]

; 112  : 	}

  00006	5d		 pop	 ebp
  00007	c3		 ret	 0
??$addressof@H@std@@YAPAHAAH@Z ENDP			; std::addressof<int>
_TEXT	ENDS
PUBLIC	??$addressof@$$CBUChainInfo@ioChainWeapon@@@std@@YAPBUChainInfo@ioChainWeapon@@ABU12@@Z ; std::addressof<ioChainWeapon::ChainInfo const >
; Function compile flags: /Ogsp
;	COMDAT ??$addressof@$$CBUChainInfo@ioChainWeapon@@@std@@YAPBUChainInfo@ioChainWeapon@@ABU12@@Z
_TEXT	SEGMENT
__Val$ = 8						; size = 4
??$addressof@$$CBUChainInfo@ioChainWeapon@@@std@@YAPBUChainInfo@ioChainWeapon@@ABU12@@Z PROC ; std::addressof<ioChainWeapon::ChainInfo const >, COMDAT

; 110  : 	{	// return address of _Val

  00000	55		 push	 ebp
  00001	8b ec		 mov	 ebp, esp

; 111  : 	return ((_Ty *) &(char&)_Val);

  00003	8b 45 08	 mov	 eax, DWORD PTR __Val$[ebp]

; 112  : 	}

  00006	5d		 pop	 ebp
  00007	c3		 ret	 0
??$addressof@$$CBUChainInfo@ioChainWeapon@@@std@@YAPBUChainInfo@ioChainWeapon@@ABU12@@Z ENDP ; std::addressof<ioChainWeapon::ChainInfo const >
_TEXT	ENDS
PUBLIC	__TI2?AVbad_alloc@std@@
PUBLIC	??$_Allocate@UChainInfo@ioChainWeapon@@@std@@YAPAUChainInfo@ioChainWeapon@@IPAU12@@Z ; std::_Allocate<ioChainWeapon::ChainInfo>
PUBLIC	__CTA2?AVbad_alloc@std@@
PUBLIC	__CT??_R0?AVbad_alloc@std@@@8??0bad_alloc@std@@QAE@ABV01@@Z12
PUBLIC	??0bad_alloc@std@@QAE@ABV01@@Z			; std::bad_alloc::bad_alloc
PUBLIC	__CT??_R0?AVexception@std@@@8??0exception@std@@QAE@ABV01@@Z12
EXTRN	??2@YAPAXI@Z:PROC				; operator new
EXTRN	__CxxThrowException@8:PROC
EXTRN	??0exception@std@@QAE@ABV01@@Z:PROC		; std::exception::exception
;	COMDAT __CT??_R0?AVexception@std@@@8??0exception@std@@QAE@ABV01@@Z12
; File c:\program files (x86)\microsoft visual studio 10.0\vc\include\exception
xdata$x	SEGMENT
__CT??_R0?AVexception@std@@@8??0exception@std@@QAE@ABV01@@Z12 DD 00H
	DD	FLAT:??_R0?AVexception@std@@@8
	DD	00H
	DD	0ffffffffH
	ORG $+4
	DD	0cH
	DD	FLAT:??0exception@std@@QAE@ABV01@@Z
xdata$x	ENDS
;	COMDAT __CT??_R0?AVbad_alloc@std@@@8??0bad_alloc@std@@QAE@ABV01@@Z12
xdata$x	SEGMENT
__CT??_R0?AVbad_alloc@std@@@8??0bad_alloc@std@@QAE@ABV01@@Z12 DD 00H
	DD	FLAT:??_R0?AVbad_alloc@std@@@8
	DD	00H
	DD	0ffffffffH
	ORG $+4
	DD	0cH
	DD	FLAT:??0bad_alloc@std@@QAE@ABV01@@Z
xdata$x	ENDS
;	COMDAT __CTA2?AVbad_alloc@std@@
xdata$x	SEGMENT
__CTA2?AVbad_alloc@std@@ DD 02H
	DD	FLAT:__CT??_R0?AVbad_alloc@std@@@8??0bad_alloc@std@@QAE@ABV01@@Z12
	DD	FLAT:__CT??_R0?AVexception@std@@@8??0exception@std@@QAE@ABV01@@Z12
xdata$x	ENDS
;	COMDAT __TI2?AVbad_alloc@std@@
xdata$x	SEGMENT
__TI2?AVbad_alloc@std@@ DD 00H
	DD	FLAT:??1bad_alloc@std@@UAE@XZ
	DD	00H
	DD	FLAT:__CTA2?AVbad_alloc@std@@
; Function compile flags: /Ogsp
; File c:\program files (x86)\microsoft visual studio 10.0\vc\include\xmemory
xdata$x	ENDS
;	COMDAT ??$_Allocate@UChainInfo@ioChainWeapon@@@std@@YAPAUChainInfo@ioChainWeapon@@IPAU12@@Z
_TEXT	SEGMENT
$T527227 = -12						; size = 12
$T527232 = 8						; size = 4
__Count$ = 8						; size = 4
___formal$ = 12						; size = 4
??$_Allocate@UChainInfo@ioChainWeapon@@@std@@YAPAUChainInfo@ioChainWeapon@@IPAU12@@Z PROC ; std::_Allocate<ioChainWeapon::ChainInfo>, COMDAT

; 30   : 	{	// allocate storage for _Count elements of type _Ty

  00000	55		 push	 ebp
  00001	8b ec		 mov	 ebp, esp

; 31   : 	void *_Ptr = 0;
; 32   : 
; 33   : 	if (_Count <= 0)

  00003	8b 4d 08	 mov	 ecx, DWORD PTR __Count$[ebp]
  00006	83 ec 0c	 sub	 esp, 12			; 0000000cH
  00009	33 c0		 xor	 eax, eax
  0000b	85 c9		 test	 ecx, ecx

; 34   : 		_Count = 0;
; 35   : 	else if (((_SIZT)(-1) / sizeof (_Ty) < _Count)

  0000d	74 3e		 je	 SHORT $LN5@Allocate

; 36   : 		|| (_Ptr = ::operator new(_Count * sizeof (_Ty))) == 0)

  0000f	81 f9 ff ff ff
	1f		 cmp	 ecx, 536870911		; 1fffffffH
  00015	77 10		 ja	 SHORT $LN1@Allocate
  00017	8b c1		 mov	 eax, ecx
  00019	c1 e0 03	 shl	 eax, 3
  0001c	50		 push	 eax
  0001d	e8 00 00 00 00	 call	 ??2@YAPAXI@Z		; operator new
  00022	59		 pop	 ecx
  00023	85 c0		 test	 eax, eax

; 38   : 
; 39   : 	return ((_Ty _FARQ *)_Ptr);

  00025	75 26		 jne	 SHORT $LN5@Allocate
$LN1@Allocate:

; 37   : 		_THROW_NCEE(bad_alloc, 0);

  00027	83 65 08 00	 and	 DWORD PTR $T527232[ebp], 0
  0002b	8d 45 08	 lea	 eax, DWORD PTR $T527232[ebp]
  0002e	50		 push	 eax
  0002f	8d 4d f4	 lea	 ecx, DWORD PTR $T527227[ebp]
  00032	ff 15 00 00 00
	00		 call	 DWORD PTR __imp_??0exception@std@@QAE@ABQBD@Z
  00038	68 00 00 00 00	 push	 OFFSET __TI2?AVbad_alloc@std@@
  0003d	8d 45 f4	 lea	 eax, DWORD PTR $T527227[ebp]
  00040	50		 push	 eax
  00041	c7 45 f4 00 00
	00 00		 mov	 DWORD PTR $T527227[ebp], OFFSET ??_7bad_alloc@std@@6B@
  00048	e8 00 00 00 00	 call	 __CxxThrowException@8
$LN10@Allocate:
$LN5@Allocate:

; 40   : 	}

  0004d	c9		 leave
  0004e	c3		 ret	 0
$LN9@Allocate:
??$_Allocate@UChainInfo@ioChainWeapon@@@std@@YAPAUChainInfo@ioChainWeapon@@IPAU12@@Z ENDP ; std::_Allocate<ioChainWeapon::ChainInfo>
_TEXT	ENDS
PUBLIC	??$forward@AAUChainInfo@ioChainWeapon@@@std@@YAAAUChainInfo@ioChainWeapon@@AAU12@@Z ; std::forward<ioChainWeapon::ChainInfo &>
; Function compile flags: /Ogsp
; File c:\program files (x86)\microsoft visual studio 10.0\vc\include\utility
;	COMDAT ??$forward@AAUChainInfo@ioChainWeapon@@@std@@YAAAUChainInfo@ioChainWeapon@@AAU12@@Z
_TEXT	SEGMENT
__Arg$ = 8						; size = 4
??$forward@AAUChainInfo@ioChainWeapon@@@std@@YAAAUChainInfo@ioChainWeapon@@AAU12@@Z PROC ; std::forward<ioChainWeapon::ChainInfo &>, COMDAT

; 78   : 	{	// forward _Arg, given explicitly specified type parameter

  00000	55		 push	 ebp
  00001	8b ec		 mov	 ebp, esp

; 79   : 	return ((_Ty&&)_Arg);

  00003	8b 45 08	 mov	 eax, DWORD PTR __Arg$[ebp]

; 80   : 	}

  00006	5d		 pop	 ebp
  00007	c3		 ret	 0
??$forward@AAUChainInfo@ioChainWeapon@@@std@@YAAAUChainInfo@ioChainWeapon@@AAU12@@Z ENDP ; std::forward<ioChainWeapon::ChainInfo &>
_TEXT	ENDS
PUBLIC	??$construct@AAUChainInfo@ioChainWeapon@@@?$allocator@UChainInfo@ioChainWeapon@@@std@@QAEXPAUChainInfo@ioChainWeapon@@AAU23@@Z ; std::allocator<ioChainWeapon::ChainInfo>::construct<ioChainWeapon::ChainInfo &>
; Function compile flags: /Ogsp
; File c:\program files (x86)\microsoft visual studio 10.0\vc\include\xmemory
;	COMDAT ??$construct@AAUChainInfo@ioChainWeapon@@@?$allocator@UChainInfo@ioChainWeapon@@@std@@QAEXPAUChainInfo@ioChainWeapon@@AAU23@@Z
_TEXT	SEGMENT
__Ptr$ = 8						; size = 4
__Val$ = 12						; size = 4
??$construct@AAUChainInfo@ioChainWeapon@@@?$allocator@UChainInfo@ioChainWeapon@@@std@@QAEXPAUChainInfo@ioChainWeapon@@AAU23@@Z PROC ; std::allocator<ioChainWeapon::ChainInfo>::construct<ioChainWeapon::ChainInfo &>, COMDAT
; _this$ = ecx

; 206  : 		void construct(pointer _Ptr, _Other&& _Val)

  00000	55		 push	 ebp
  00001	8b ec		 mov	 ebp, esp

; 207  : 		{	// construct object at _Ptr with value _Val
; 208  : 		::new ((void _FARQ *)_Ptr) _Ty(_STD forward<_Other>(_Val));

  00003	8b 45 08	 mov	 eax, DWORD PTR __Ptr$[ebp]
  00006	85 c0		 test	 eax, eax
  00008	74 0d		 je	 SHORT $LN3@construct
  0000a	8b 4d 0c	 mov	 ecx, DWORD PTR __Val$[ebp]
  0000d	8b 11		 mov	 edx, DWORD PTR [ecx]
  0000f	89 10		 mov	 DWORD PTR [eax], edx
  00011	8b 49 04	 mov	 ecx, DWORD PTR [ecx+4]
  00014	89 48 04	 mov	 DWORD PTR [eax+4], ecx
$LN3@construct:

; 209  : 		}

  00017	5d		 pop	 ebp
  00018	c2 08 00	 ret	 8
??$construct@AAUChainInfo@ioChainWeapon@@@?$allocator@UChainInfo@ioChainWeapon@@@std@@QAEXPAUChainInfo@ioChainWeapon@@AAU23@@Z ENDP ; std::allocator<ioChainWeapon::ChainInfo>::construct<ioChainWeapon::ChainInfo &>
_TEXT	ENDS
PUBLIC	??$forward@ABUChainInfo@ioChainWeapon@@@std@@YAABUChainInfo@ioChainWeapon@@ABU12@@Z ; std::forward<ioChainWeapon::ChainInfo const &>
; Function compile flags: /Ogsp
; File c:\program files (x86)\microsoft visual studio 10.0\vc\include\utility
;	COMDAT ??$forward@ABUChainInfo@ioChainWeapon@@@std@@YAABUChainInfo@ioChainWeapon@@ABU12@@Z
_TEXT	SEGMENT
__Arg$ = 8						; size = 4
??$forward@ABUChainInfo@ioChainWeapon@@@std@@YAABUChainInfo@ioChainWeapon@@ABU12@@Z PROC ; std::forward<ioChainWeapon::ChainInfo const &>, COMDAT

; 78   : 	{	// forward _Arg, given explicitly specified type parameter

  00000	55		 push	 ebp
  00001	8b ec		 mov	 ebp, esp

; 79   : 	return ((_Ty&&)_Arg);

  00003	8b 45 08	 mov	 eax, DWORD PTR __Arg$[ebp]

; 80   : 	}

  00006	5d		 pop	 ebp
  00007	c3		 ret	 0
??$forward@ABUChainInfo@ioChainWeapon@@@std@@YAABUChainInfo@ioChainWeapon@@ABU12@@Z ENDP ; std::forward<ioChainWeapon::ChainInfo const &>
_TEXT	ENDS
PUBLIC	??$_Ptr_cat@UChainInfo@ioChainWeapon@@U12@@std@@YA?AU_Nonscalar_ptr_iterator_tag@0@PAUChainInfo@ioChainWeapon@@0@Z ; std::_Ptr_cat<ioChainWeapon::ChainInfo,ioChainWeapon::ChainInfo>
; Function compile flags: /Ogsp
; File c:\program files (x86)\microsoft visual studio 10.0\vc\include\xutility
;	COMDAT ??$_Ptr_cat@UChainInfo@ioChainWeapon@@U12@@std@@YA?AU_Nonscalar_ptr_iterator_tag@0@PAUChainInfo@ioChainWeapon@@0@Z
_TEXT	SEGMENT
__Cat$ = -1						; size = 1
___formal$ = 8						; size = 4
___formal$ = 12						; size = 4
??$_Ptr_cat@UChainInfo@ioChainWeapon@@U12@@std@@YA?AU_Nonscalar_ptr_iterator_tag@0@PAUChainInfo@ioChainWeapon@@0@Z PROC ; std::_Ptr_cat<ioChainWeapon::ChainInfo,ioChainWeapon::ChainInfo>, COMDAT

; 516  : 	{	// return pointer category from pointers

  00000	55		 push	 ebp
  00001	8b ec		 mov	 ebp, esp
  00003	51		 push	 ecx

; 517  : 	typename _Ptr_cat_helper<_Elem1, _Elem2>::_Type _Cat;
; 518  : 	return (_Cat);

  00004	8a 45 ff	 mov	 al, BYTE PTR __Cat$[ebp]

; 519  : 	}

  00007	c9		 leave
  00008	c3		 ret	 0
??$_Ptr_cat@UChainInfo@ioChainWeapon@@U12@@std@@YA?AU_Nonscalar_ptr_iterator_tag@0@PAUChainInfo@ioChainWeapon@@0@Z ENDP ; std::_Ptr_cat<ioChainWeapon::ChainInfo,ioChainWeapon::ChainInfo>
_TEXT	ENDS
PUBLIC	??$_Construct@UChainInfo@ioChainWeapon@@ABU12@@std@@YAXPAUChainInfo@ioChainWeapon@@ABU12@@Z ; std::_Construct<ioChainWeapon::ChainInfo,ioChainWeapon::ChainInfo const &>
; Function compile flags: /Ogsp
; File c:\program files (x86)\microsoft visual studio 10.0\vc\include\xmemory
;	COMDAT ??$_Construct@UChainInfo@ioChainWeapon@@ABU12@@std@@YAXPAUChainInfo@ioChainWeapon@@ABU12@@Z
_TEXT	SEGMENT
__Ptr$ = 8						; size = 4
__Val$ = 12						; size = 4
??$_Construct@UChainInfo@ioChainWeapon@@ABU12@@std@@YAXPAUChainInfo@ioChainWeapon@@ABU12@@Z PROC ; std::_Construct<ioChainWeapon::ChainInfo,ioChainWeapon::ChainInfo const &>, COMDAT

; 46   : 	{	// construct object at _Ptr with value _Val

  00000	55		 push	 ebp
  00001	8b ec		 mov	 ebp, esp

; 47   : 	void _FARQ *_Vptr = _Ptr;
; 48   : 	::new (_Vptr) _Ty1(_STD forward<_Ty2>(_Val));

  00003	8b 45 08	 mov	 eax, DWORD PTR __Ptr$[ebp]
  00006	85 c0		 test	 eax, eax
  00008	74 0d		 je	 SHORT $LN3@Construct
  0000a	8b 4d 0c	 mov	 ecx, DWORD PTR __Val$[ebp]
  0000d	8b 11		 mov	 edx, DWORD PTR [ecx]
  0000f	89 10		 mov	 DWORD PTR [eax], edx
  00011	8b 49 04	 mov	 ecx, DWORD PTR [ecx+4]
  00014	89 48 04	 mov	 DWORD PTR [eax+4], ecx
$LN3@Construct:

; 49   : 	}

  00017	5d		 pop	 ebp
  00018	c3		 ret	 0
??$_Construct@UChainInfo@ioChainWeapon@@ABU12@@std@@YAXPAUChainInfo@ioChainWeapon@@ABU12@@Z ENDP ; std::_Construct<ioChainWeapon::ChainInfo,ioChainWeapon::ChainInfo const &>
_TEXT	ENDS
PUBLIC	??$_Val_type@PAUChainInfo@ioChainWeapon@@@std@@YAPAUChainInfo@ioChainWeapon@@PAU12@@Z ; std::_Val_type<ioChainWeapon::ChainInfo *>
; Function compile flags: /Ogsp
; File c:\program files (x86)\microsoft visual studio 10.0\vc\include\xutility
;	COMDAT ??$_Val_type@PAUChainInfo@ioChainWeapon@@@std@@YAPAUChainInfo@ioChainWeapon@@PAU12@@Z
_TEXT	SEGMENT
___formal$ = 8						; size = 4
??$_Val_type@PAUChainInfo@ioChainWeapon@@@std@@YAPAUChainInfo@ioChainWeapon@@PAU12@@Z PROC ; std::_Val_type<ioChainWeapon::ChainInfo *>, COMDAT

; 790  : 	return (0);

  00000	33 c0		 xor	 eax, eax

; 791  : 	}

  00002	c3		 ret	 0
??$_Val_type@PAUChainInfo@ioChainWeapon@@@std@@YAPAUChainInfo@ioChainWeapon@@PAU12@@Z ENDP ; std::_Val_type<ioChainWeapon::ChainInfo *>
_TEXT	ENDS
PUBLIC	??$move@AAUChainInfo@ioChainWeapon@@@std@@YA$$QAUChainInfo@ioChainWeapon@@AAU12@@Z ; std::move<ioChainWeapon::ChainInfo &>
; Function compile flags: /Ogsp
; File c:\program files (x86)\microsoft visual studio 10.0\vc\include\utility
;	COMDAT ??$move@AAUChainInfo@ioChainWeapon@@@std@@YA$$QAUChainInfo@ioChainWeapon@@AAU12@@Z
_TEXT	SEGMENT
__Arg$ = 8						; size = 4
??$move@AAUChainInfo@ioChainWeapon@@@std@@YA$$QAUChainInfo@ioChainWeapon@@AAU12@@Z PROC ; std::move<ioChainWeapon::ChainInfo &>, COMDAT

; 86   : 	{	// forward _Arg as movable

  00000	55		 push	 ebp
  00001	8b ec		 mov	 ebp, esp

; 87   : 	return ((typename tr1::_Remove_reference<_Ty>::_Type&&)_Arg);

  00003	8b 45 08	 mov	 eax, DWORD PTR __Arg$[ebp]

; 88   : 	}

  00006	5d		 pop	 ebp
  00007	c3		 ret	 0
??$move@AAUChainInfo@ioChainWeapon@@@std@@YA$$QAUChainInfo@ioChainWeapon@@AAU12@@Z ENDP ; std::move<ioChainWeapon::ChainInfo &>
_TEXT	ENDS
PUBLIC	??$_Destroy@UChainInfo@ioChainWeapon@@@std@@YAXPAUChainInfo@ioChainWeapon@@@Z ; std::_Destroy<ioChainWeapon::ChainInfo>
; Function compile flags: /Ogsp
; File c:\program files (x86)\microsoft visual studio 10.0\vc\include\xmemory
;	COMDAT ??$_Destroy@UChainInfo@ioChainWeapon@@@std@@YAXPAUChainInfo@ioChainWeapon@@@Z
_TEXT	SEGMENT
__Ptr$ = 8						; size = 4
??$_Destroy@UChainInfo@ioChainWeapon@@@std@@YAXPAUChainInfo@ioChainWeapon@@@Z PROC ; std::_Destroy<ioChainWeapon::ChainInfo>, COMDAT

; 63   : 	_Ptr->~_Ty();
; 64   : 	}

  00000	c3		 ret	 0
??$_Destroy@UChainInfo@ioChainWeapon@@@std@@YAXPAUChainInfo@ioChainWeapon@@@Z ENDP ; std::_Destroy<ioChainWeapon::ChainInfo>
_TEXT	ENDS
PUBLIC	??$forward@UChainInfo@ioChainWeapon@@@std@@YA$$QAUChainInfo@ioChainWeapon@@AAU12@@Z ; std::forward<ioChainWeapon::ChainInfo>
; Function compile flags: /Ogsp
; File c:\program files (x86)\microsoft visual studio 10.0\vc\include\utility
;	COMDAT ??$forward@UChainInfo@ioChainWeapon@@@std@@YA$$QAUChainInfo@ioChainWeapon@@AAU12@@Z
_TEXT	SEGMENT
__Arg$ = 8						; size = 4
??$forward@UChainInfo@ioChainWeapon@@@std@@YA$$QAUChainInfo@ioChainWeapon@@AAU12@@Z PROC ; std::forward<ioChainWeapon::ChainInfo>, COMDAT

; 78   : 	{	// forward _Arg, given explicitly specified type parameter

  00000	55		 push	 ebp
  00001	8b ec		 mov	 ebp, esp

; 79   : 	return ((_Ty&&)_Arg);

  00003	8b 45 08	 mov	 eax, DWORD PTR __Arg$[ebp]

; 80   : 	}

  00006	5d		 pop	 ebp
  00007	c3		 ret	 0
??$forward@UChainInfo@ioChainWeapon@@@std@@YA$$QAUChainInfo@ioChainWeapon@@AAU12@@Z ENDP ; std::forward<ioChainWeapon::ChainInfo>
_TEXT	ENDS
PUBLIC	??0D3DXVECTOR3@@QAE@XZ				; D3DXVECTOR3::D3DXVECTOR3
; Function compile flags: /Ogsp
; File c:\program files (x86)\microsoft directx sdk (june 2010)\include\d3dx9math.h
;	COMDAT ??0D3DXVECTOR3@@QAE@XZ
_TEXT	SEGMENT
??0D3DXVECTOR3@@QAE@XZ PROC				; D3DXVECTOR3::D3DXVECTOR3, COMDAT
; _this$ = ecx

; 165  :     D3DXVECTOR3() {};

  00000	8b c1		 mov	 eax, ecx
  00002	c3		 ret	 0
??0D3DXVECTOR3@@QAE@XZ ENDP				; D3DXVECTOR3::D3DXVECTOR3
_TEXT	ENDS
PUBLIC	??0D3DXQUATERNION@@QAE@XZ			; D3DXQUATERNION::D3DXQUATERNION
; Function compile flags: /Ogsp
;	COMDAT ??0D3DXQUATERNION@@QAE@XZ
_TEXT	SEGMENT
??0D3DXQUATERNION@@QAE@XZ PROC				; D3DXQUATERNION::D3DXQUATERNION, COMDAT
; _this$ = ecx

; 429  :     D3DXQUATERNION() {}

  00000	8b c1		 mov	 eax, ecx
  00002	c3		 ret	 0
??0D3DXQUATERNION@@QAE@XZ ENDP				; D3DXQUATERNION::D3DXQUATERNION
_TEXT	ENDS
PUBLIC	??0D3DXVECTOR3@@QAE@MMM@Z			; D3DXVECTOR3::D3DXVECTOR3
; Function compile flags: /Ogsp
; File c:\program files (x86)\microsoft directx sdk (june 2010)\include\d3dx9math.inl
;	COMDAT ??0D3DXVECTOR3@@QAE@MMM@Z
_TEXT	SEGMENT
_fx$ = 8						; size = 4
_fy$ = 12						; size = 4
_fz$ = 16						; size = 4
??0D3DXVECTOR3@@QAE@MMM@Z PROC				; D3DXVECTOR3::D3DXVECTOR3, COMDAT
; _this$ = ecx

; 303  : {

  00000	55		 push	 ebp
  00001	8b ec		 mov	 ebp, esp

; 304  :     x = fx;

  00003	f3 0f 10 45 08	 movss	 xmm0, DWORD PTR _fx$[ebp]
  00008	8b c1		 mov	 eax, ecx
  0000a	f3 0f 11 00	 movss	 DWORD PTR [eax], xmm0

; 305  :     y = fy;

  0000e	f3 0f 10 45 0c	 movss	 xmm0, DWORD PTR _fy$[ebp]
  00013	f3 0f 11 40 04	 movss	 DWORD PTR [eax+4], xmm0

; 306  :     z = fz;

  00018	f3 0f 10 45 10	 movss	 xmm0, DWORD PTR _fz$[ebp]
  0001d	f3 0f 11 40 08	 movss	 DWORD PTR [eax+8], xmm0

; 307  : }

  00022	5d		 pop	 ebp
  00023	c2 0c 00	 ret	 12			; 0000000cH
??0D3DXVECTOR3@@QAE@MMM@Z ENDP				; D3DXVECTOR3::D3DXVECTOR3
_TEXT	ENDS
PUBLIC	__mask@@NegFloat@
PUBLIC	??GD3DXVECTOR3@@QBE?AU0@XZ			; D3DXVECTOR3::operator-
;	COMDAT __mask@@NegFloat@
CONST	SEGMENT
__mask@@NegFloat@ DB 00H, 00H, 00H, 080H, 00H, 00H, 00H, 080H, 00H, 00H, 00H
	DB	080H, 00H, 00H, 00H, 080H
; Function compile flags: /Ogsp
CONST	ENDS
;	COMDAT ??GD3DXVECTOR3@@QBE?AU0@XZ
_TEXT	SEGMENT
___$ReturnUdt$ = 8					; size = 4
??GD3DXVECTOR3@@QBE?AU0@XZ PROC				; D3DXVECTOR3::operator-, COMDAT
; _this$ = ecx

; 372  : {

  00000	55		 push	 ebp
  00001	8b ec		 mov	 ebp, esp

; 373  :     return D3DXVECTOR3(-x, -y, -z);

  00003	f3 0f 10 05 00
	00 00 00	 movss	 xmm0, DWORD PTR __mask@@NegFloat@
  0000b	8b 45 08	 mov	 eax, DWORD PTR ___$ReturnUdt$[ebp]
  0000e	f3 0f 10 09	 movss	 xmm1, DWORD PTR [ecx]
  00012	0f 57 c8	 xorps	 xmm1, xmm0
  00015	f3 0f 11 08	 movss	 DWORD PTR [eax], xmm1
  00019	f3 0f 10 49 04	 movss	 xmm1, DWORD PTR [ecx+4]
  0001e	0f 57 c8	 xorps	 xmm1, xmm0
  00021	f3 0f 11 48 04	 movss	 DWORD PTR [eax+4], xmm1
  00026	f3 0f 10 49 08	 movss	 xmm1, DWORD PTR [ecx+8]
  0002b	0f 57 c8	 xorps	 xmm1, xmm0
  0002e	f3 0f 11 48 08	 movss	 DWORD PTR [eax+8], xmm1

; 374  : }

  00033	5d		 pop	 ebp
  00034	c2 04 00	 ret	 4
??GD3DXVECTOR3@@QBE?AU0@XZ ENDP				; D3DXVECTOR3::operator-
_TEXT	ENDS
PUBLIC	??HD3DXVECTOR3@@QBE?AU0@ABU0@@Z			; D3DXVECTOR3::operator+
; Function compile flags: /Ogsp
;	COMDAT ??HD3DXVECTOR3@@QBE?AU0@ABU0@@Z
_TEXT	SEGMENT
___$ReturnUdt$ = 8					; size = 4
_v$ = 12						; size = 4
??HD3DXVECTOR3@@QBE?AU0@ABU0@@Z PROC			; D3DXVECTOR3::operator+, COMDAT
; _this$ = ecx

; 380  : {

  00000	55		 push	 ebp
  00001	8b ec		 mov	 ebp, esp

; 381  :     return D3DXVECTOR3(x + v.x, y + v.y, z + v.z);

  00003	8b 55 0c	 mov	 edx, DWORD PTR _v$[ebp]
  00006	f3 0f 10 02	 movss	 xmm0, DWORD PTR [edx]
  0000a	f3 0f 10 09	 movss	 xmm1, DWORD PTR [ecx]
  0000e	8b 45 08	 mov	 eax, DWORD PTR ___$ReturnUdt$[ebp]
  00011	0f 5a c0	 cvtps2pd xmm0, xmm0
  00014	0f 5a c9	 cvtps2pd xmm1, xmm1
  00017	f2 0f 58 c1	 addsd	 xmm0, xmm1
  0001b	f3 0f 10 49 04	 movss	 xmm1, DWORD PTR [ecx+4]
  00020	66 0f 5a c0	 cvtpd2ps xmm0, xmm0
  00024	f3 0f 11 00	 movss	 DWORD PTR [eax], xmm0
  00028	f3 0f 10 42 04	 movss	 xmm0, DWORD PTR [edx+4]
  0002d	0f 5a c0	 cvtps2pd xmm0, xmm0
  00030	0f 5a c9	 cvtps2pd xmm1, xmm1
  00033	f2 0f 58 c1	 addsd	 xmm0, xmm1
  00037	f3 0f 10 49 08	 movss	 xmm1, DWORD PTR [ecx+8]
  0003c	66 0f 5a c0	 cvtpd2ps xmm0, xmm0
  00040	f3 0f 11 40 04	 movss	 DWORD PTR [eax+4], xmm0
  00045	f3 0f 10 42 08	 movss	 xmm0, DWORD PTR [edx+8]
  0004a	0f 5a c0	 cvtps2pd xmm0, xmm0
  0004d	0f 5a c9	 cvtps2pd xmm1, xmm1
  00050	f2 0f 58 c1	 addsd	 xmm0, xmm1
  00054	66 0f 5a c0	 cvtpd2ps xmm0, xmm0
  00058	f3 0f 11 40 08	 movss	 DWORD PTR [eax+8], xmm0

; 382  : }

  0005d	5d		 pop	 ebp
  0005e	c2 08 00	 ret	 8
??HD3DXVECTOR3@@QBE?AU0@ABU0@@Z ENDP			; D3DXVECTOR3::operator+
_TEXT	ENDS
PUBLIC	??GD3DXVECTOR3@@QBE?AU0@ABU0@@Z			; D3DXVECTOR3::operator-
; Function compile flags: /Ogsp
;	COMDAT ??GD3DXVECTOR3@@QBE?AU0@ABU0@@Z
_TEXT	SEGMENT
___$ReturnUdt$ = 8					; size = 4
_v$ = 12						; size = 4
??GD3DXVECTOR3@@QBE?AU0@ABU0@@Z PROC			; D3DXVECTOR3::operator-, COMDAT
; _this$ = ecx

; 386  : {

  00000	55		 push	 ebp
  00001	8b ec		 mov	 ebp, esp

; 387  :     return D3DXVECTOR3(x - v.x, y - v.y, z - v.z);

  00003	8b 55 0c	 mov	 edx, DWORD PTR _v$[ebp]
  00006	f3 0f 10 01	 movss	 xmm0, DWORD PTR [ecx]
  0000a	f3 0f 10 0a	 movss	 xmm1, DWORD PTR [edx]
  0000e	8b 45 08	 mov	 eax, DWORD PTR ___$ReturnUdt$[ebp]
  00011	0f 5a c0	 cvtps2pd xmm0, xmm0
  00014	0f 5a c9	 cvtps2pd xmm1, xmm1
  00017	f2 0f 5c c1	 subsd	 xmm0, xmm1
  0001b	f3 0f 10 4a 04	 movss	 xmm1, DWORD PTR [edx+4]
  00020	66 0f 5a c0	 cvtpd2ps xmm0, xmm0
  00024	f3 0f 11 00	 movss	 DWORD PTR [eax], xmm0
  00028	f3 0f 10 41 04	 movss	 xmm0, DWORD PTR [ecx+4]
  0002d	0f 5a c0	 cvtps2pd xmm0, xmm0
  00030	0f 5a c9	 cvtps2pd xmm1, xmm1
  00033	f2 0f 5c c1	 subsd	 xmm0, xmm1
  00037	f3 0f 10 4a 08	 movss	 xmm1, DWORD PTR [edx+8]
  0003c	66 0f 5a c0	 cvtpd2ps xmm0, xmm0
  00040	f3 0f 11 40 04	 movss	 DWORD PTR [eax+4], xmm0
  00045	f3 0f 10 41 08	 movss	 xmm0, DWORD PTR [ecx+8]
  0004a	0f 5a c0	 cvtps2pd xmm0, xmm0
  0004d	0f 5a c9	 cvtps2pd xmm1, xmm1
  00050	f2 0f 5c c1	 subsd	 xmm0, xmm1
  00054	66 0f 5a c0	 cvtpd2ps xmm0, xmm0
  00058	f3 0f 11 40 08	 movss	 DWORD PTR [eax+8], xmm0

; 388  : }

  0005d	5d		 pop	 ebp
  0005e	c2 08 00	 ret	 8
??GD3DXVECTOR3@@QBE?AU0@ABU0@@Z ENDP			; D3DXVECTOR3::operator-
_TEXT	ENDS
PUBLIC	??DD3DXVECTOR3@@QBE?AU0@M@Z			; D3DXVECTOR3::operator*
; Function compile flags: /Ogsp
;	COMDAT ??DD3DXVECTOR3@@QBE?AU0@M@Z
_TEXT	SEGMENT
___$ReturnUdt$ = 8					; size = 4
_f$ = 12						; size = 4
??DD3DXVECTOR3@@QBE?AU0@M@Z PROC			; D3DXVECTOR3::operator*, COMDAT
; _this$ = ecx

; 392  : {

  00000	55		 push	 ebp
  00001	8b ec		 mov	 ebp, esp

; 393  :     return D3DXVECTOR3(x * f, y * f, z * f);

  00003	f3 0f 10 4d 0c	 movss	 xmm1, DWORD PTR _f$[ebp]
  00008	f3 0f 10 01	 movss	 xmm0, DWORD PTR [ecx]
  0000c	8b 45 08	 mov	 eax, DWORD PTR ___$ReturnUdt$[ebp]
  0000f	0f 5a c0	 cvtps2pd xmm0, xmm0
  00012	0f 5a c9	 cvtps2pd xmm1, xmm1
  00015	f2 0f 59 c1	 mulsd	 xmm0, xmm1
  00019	f3 0f 10 4d 0c	 movss	 xmm1, DWORD PTR _f$[ebp]
  0001e	66 0f 5a c0	 cvtpd2ps xmm0, xmm0
  00022	f3 0f 11 00	 movss	 DWORD PTR [eax], xmm0
  00026	f3 0f 10 41 04	 movss	 xmm0, DWORD PTR [ecx+4]
  0002b	0f 5a c0	 cvtps2pd xmm0, xmm0
  0002e	0f 5a c9	 cvtps2pd xmm1, xmm1
  00031	f2 0f 59 c1	 mulsd	 xmm0, xmm1
  00035	f3 0f 10 4d 0c	 movss	 xmm1, DWORD PTR _f$[ebp]
  0003a	66 0f 5a c0	 cvtpd2ps xmm0, xmm0
  0003e	f3 0f 11 40 04	 movss	 DWORD PTR [eax+4], xmm0
  00043	f3 0f 10 41 08	 movss	 xmm0, DWORD PTR [ecx+8]
  00048	0f 5a c0	 cvtps2pd xmm0, xmm0
  0004b	0f 5a c9	 cvtps2pd xmm1, xmm1
  0004e	f2 0f 59 c1	 mulsd	 xmm0, xmm1
  00052	66 0f 5a c0	 cvtpd2ps xmm0, xmm0
  00056	f3 0f 11 40 08	 movss	 DWORD PTR [eax+8], xmm0

; 394  : }

  0005b	5d		 pop	 ebp
  0005c	c2 08 00	 ret	 8
??DD3DXVECTOR3@@QBE?AU0@M@Z ENDP			; D3DXVECTOR3::operator*
_TEXT	ENDS
PUBLIC	?D3DXVec3Length@@YAMPBUD3DXVECTOR3@@@Z		; D3DXVec3Length
; Function compile flags: /Ogsp
;	COMDAT ?D3DXVec3Length@@YAMPBUD3DXVECTOR3@@@Z
_TEXT	SEGMENT
tv169 = 8						; size = 4
tv160 = 8						; size = 4
_pV$ = 8						; size = 4
?D3DXVec3Length@@YAMPBUD3DXVECTOR3@@@Z PROC		; D3DXVec3Length, COMDAT

; 1710 : {

  00000	55		 push	 ebp
  00001	8b ec		 mov	 ebp, esp

; 1711 : #ifdef D3DX_DEBUG
; 1712 :     if(!pV)
; 1713 :         return 0.0f;
; 1714 : #endif
; 1715 : 
; 1716 : #ifdef __cplusplus
; 1717 :     return sqrtf(pV->x * pV->x + pV->y * pV->y + pV->z * pV->z);

  00003	8b 45 08	 mov	 eax, DWORD PTR _pV$[ebp]
  00006	d9 40 04	 fld	 DWORD PTR [eax+4]
  00009	d9 00		 fld	 DWORD PTR [eax]
  0000b	d9 40 08	 fld	 DWORD PTR [eax+8]
  0000e	d9 c1		 fld	 ST(1)
  00010	de ca		 fmulp	 ST(2), ST(0)
  00012	d9 c2		 fld	 ST(2)
  00014	de cb		 fmulp	 ST(3), ST(0)
  00016	d9 c9		 fxch	 ST(1)
  00018	de c2		 faddp	 ST(2), ST(0)
  0001a	d9 c0		 fld	 ST(0)
  0001c	de c9		 fmulp	 ST(1), ST(0)
  0001e	de c1		 faddp	 ST(1), ST(0)
  00020	d9 5d 08	 fstp	 DWORD PTR tv169[ebp]
  00023	d9 45 08	 fld	 DWORD PTR tv169[ebp]
  00026	e8 00 00 00 00	 call	 __CIsqrt
  0002b	d9 5d 08	 fstp	 DWORD PTR tv160[ebp]
  0002e	d9 45 08	 fld	 DWORD PTR tv160[ebp]

; 1718 : #else
; 1719 :     return (FLOAT) sqrt(pV->x * pV->x + pV->y * pV->y + pV->z * pV->z);
; 1720 : #endif
; 1721 : }

  00031	5d		 pop	 ebp
  00032	c3		 ret	 0
?D3DXVec3Length@@YAMPBUD3DXVECTOR3@@@Z ENDP		; D3DXVec3Length
_TEXT	ENDS
PUBLIC	?_DECSTR@@YAXPADH@Z				; _DECSTR
; Function compile flags: /Ogsp
; File d:\lost saga for developer\youtube\tutorial\source\src\lsclient\stringprotect.h
;	COMDAT ?_DECSTR@@YAXPADH@Z
_TEXT	SEGMENT
_s$ = 8							; size = 4
_l$ = 12						; size = 4
?_DECSTR@@YAXPADH@Z PROC				; _DECSTR, COMDAT

; 40   : __forceinline void _DECSTR(char* s, int l){int i=0,l4=(l-1)/4,*p=(int*)s;s[l-1]=0;for(;i<l4;++i)*(p++)^=0xEAEBECED;for(i=l4*4;i<l-1;++i)s[i]^=0xED-i%4;}

  00000	55		 push	 ebp
  00001	8b ec		 mov	 ebp, esp
  00003	8b 4d 0c	 mov	 ecx, DWORD PTR _l$[ebp]
  00006	56		 push	 esi
  00007	8b 75 08	 mov	 esi, DWORD PTR _s$[ebp]
  0000a	57		 push	 edi
  0000b	8d 79 ff	 lea	 edi, DWORD PTR [ecx-1]
  0000e	8b c7		 mov	 eax, edi
  00010	99		 cdq
  00011	83 e2 03	 and	 edx, 3
  00014	03 c2		 add	 eax, edx
  00016	c1 f8 02	 sar	 eax, 2
  00019	8b d6		 mov	 edx, esi
  0001b	c6 44 0e ff 00	 mov	 BYTE PTR [esi+ecx-1], 0
  00020	85 c0		 test	 eax, eax
  00022	7e 0e		 jle	 SHORT $LN4@DECSTR
  00024	8b c8		 mov	 ecx, eax
$LL6@DECSTR:
  00026	81 32 ed ec eb
	ea		 xor	 DWORD PTR [edx], -353637139 ; eaebecedH
  0002c	83 c2 04	 add	 edx, 4
  0002f	49		 dec	 ecx
  00030	75 f4		 jne	 SHORT $LL6@DECSTR
$LN4@DECSTR:
  00032	c1 e0 02	 shl	 eax, 2
  00035	eb 17		 jmp	 SHORT $LN14@DECSTR
$LL3@DECSTR:
  00037	8b c8		 mov	 ecx, eax
  00039	81 e1 03 00 00
	80		 and	 ecx, -2147483645	; 80000003H
  0003f	79 05		 jns	 SHORT $LN13@DECSTR
  00041	49		 dec	 ecx
  00042	83 c9 fc	 or	 ecx, -4			; fffffffcH
  00045	41		 inc	 ecx
$LN13@DECSTR:
  00046	b2 ed		 mov	 dl, -19			; ffffffedH
  00048	2a d1		 sub	 dl, cl
  0004a	30 14 30	 xor	 BYTE PTR [eax+esi], dl
  0004d	40		 inc	 eax
$LN14@DECSTR:
  0004e	3b c7		 cmp	 eax, edi
  00050	7c e5		 jl	 SHORT $LL3@DECSTR
  00052	5f		 pop	 edi
  00053	5e		 pop	 esi
  00054	5d		 pop	 ebp
  00055	c3		 ret	 0
?_DECSTR@@YAXPADH@Z ENDP				; _DECSTR
_TEXT	ENDS
PUBLIC	?GetGroup@ioGameEntity@@QBEPAVioEntityGroup@@XZ	; ioGameEntity::GetGroup
; Function compile flags: /Ogsp
; File d:\lost saga for developer\youtube\tutorial\source\src\lsclient\iogameentity.h
;	COMDAT ?GetGroup@ioGameEntity@@QBEPAVioEntityGroup@@XZ
_TEXT	SEGMENT
?GetGroup@ioGameEntity@@QBEPAVioEntityGroup@@XZ PROC	; ioGameEntity::GetGroup, COMDAT
; _this$ = ecx

; 166  : 	inline ioEntityGroup* GetGroup() const { return m_pGroup; }

  00000	8b 41 04	 mov	 eax, DWORD PTR [ecx+4]
  00003	c3		 ret	 0
?GetGroup@ioGameEntity@@QBEPAVioEntityGroup@@XZ ENDP	; ioGameEntity::GetGroup
_TEXT	ENDS
PUBLIC	??_R0?AVioGameEntity@@@8			; ioGameEntity `RTTI Type Descriptor'
PUBLIC	??_R0?AVioPlayEntity@@@8			; ioPlayEntity `RTTI Type Descriptor'
PUBLIC	?ToPlayEntity@@YAPAVioPlayEntity@@PAVioGameEntity@@@Z ; ToPlayEntity
EXTRN	___RTDynamicCast:PROC
;	COMDAT ??_R0?AVioGameEntity@@@8
; File d:\lost saga for developer\youtube\tutorial\source\src\lsclient\ioplayentity.h
_DATA	SEGMENT
??_R0?AVioGameEntity@@@8 DD FLAT:??_7type_info@@6B@	; ioGameEntity `RTTI Type Descriptor'
	DD	00H
	DB	'.?AVioGameEntity@@', 00H
_DATA	ENDS
;	COMDAT ??_R0?AVioPlayEntity@@@8
_DATA	SEGMENT
??_R0?AVioPlayEntity@@@8 DD FLAT:??_7type_info@@6B@	; ioPlayEntity `RTTI Type Descriptor'
	DD	00H
	DB	'.?AVioPlayEntity@@', 00H
; Function compile flags: /Ogsp
_DATA	ENDS
;	COMDAT ?ToPlayEntity@@YAPAVioPlayEntity@@PAVioGameEntity@@@Z
_TEXT	SEGMENT
_pObj$ = 8						; size = 4
?ToPlayEntity@@YAPAVioPlayEntity@@PAVioGameEntity@@@Z PROC ; ToPlayEntity, COMDAT

; 121  : {

  00000	55		 push	 ebp
  00001	8b ec		 mov	 ebp, esp
  00003	56		 push	 esi

; 122  : 	if( !pObj || pObj->GetTypeID() != ioGameEntity::GET_PLAY_ENTITY )

  00004	8b 75 08	 mov	 esi, DWORD PTR _pObj$[ebp]
  00007	85 f6		 test	 esi, esi
  00009	74 25		 je	 SHORT $LN1@ToPlayEnti
  0000b	8b 06		 mov	 eax, DWORD PTR [esi]
  0000d	8b ce		 mov	 ecx, esi
  0000f	ff 50 10	 call	 DWORD PTR [eax+16]
  00012	83 f8 01	 cmp	 eax, 1
  00015	75 19		 jne	 SHORT $LN1@ToPlayEnti

; 124  : 
; 125  : 	return dynamic_cast< ioPlayEntity* >( pObj );

  00017	6a 00		 push	 0
  00019	68 00 00 00 00	 push	 OFFSET ??_R0?AVioPlayEntity@@@8
  0001e	68 00 00 00 00	 push	 OFFSET ??_R0?AVioGameEntity@@@8
  00023	6a 00		 push	 0
  00025	56		 push	 esi
  00026	e8 00 00 00 00	 call	 ___RTDynamicCast
  0002b	83 c4 14	 add	 esp, 20			; 00000014H
  0002e	eb 02		 jmp	 SHORT $LN3@ToPlayEnti
$LN1@ToPlayEnti:

; 123  : 		return NULL;

  00030	33 c0		 xor	 eax, eax
$LN3@ToPlayEnti:
  00032	5e		 pop	 esi

; 126  : }

  00033	5d		 pop	 ebp
  00034	c3		 ret	 0
?ToPlayEntity@@YAPAVioPlayEntity@@PAVioGameEntity@@@Z ENDP ; ToPlayEntity
_TEXT	ENDS
PUBLIC	?IsLive@ioWeapon@@QBE_NXZ			; ioWeapon::IsLive
; Function compile flags: /Ogsp
; File d:\lost saga for developer\youtube\tutorial\source\src\lsclient\ioweapon.h
;	COMDAT ?IsLive@ioWeapon@@QBE_NXZ
_TEXT	SEGMENT
?IsLive@ioWeapon@@QBE_NXZ PROC				; ioWeapon::IsLive, COMDAT
; _this$ = ecx

; 533  : 	inline bool IsLive() const { return m_bLive; }

  00000	8a 81 82 05 00
	00		 mov	 al, BYTE PTR [ecx+1410]
  00006	c3		 ret	 0
?IsLive@ioWeapon@@QBE_NXZ ENDP				; ioWeapon::IsLive
_TEXT	ENDS
PUBLIC	?GetParentSceneNode@ioWeapon@@QBEPAVioSceneNode@@XZ ; ioWeapon::GetParentSceneNode
; Function compile flags: /Ogsp
;	COMDAT ?GetParentSceneNode@ioWeapon@@QBEPAVioSceneNode@@XZ
_TEXT	SEGMENT
?GetParentSceneNode@ioWeapon@@QBEPAVioSceneNode@@XZ PROC ; ioWeapon::GetParentSceneNode, COMDAT
; _this$ = ecx

; 797  : 	ioSceneNode* GetParentSceneNode() const { return m_pSceneNode; }

  00000	8b 41 04	 mov	 eax, DWORD PTR [ecx+4]
  00003	c3		 ret	 0
?GetParentSceneNode@ioWeapon@@QBEPAVioSceneNode@@XZ ENDP ; ioWeapon::GetParentSceneNode
_TEXT	ENDS
PUBLIC	?size@?$vector@HV?$allocator@H@std@@@std@@QBEIXZ ; std::vector<int,std::allocator<int> >::size
; Function compile flags: /Ogsp
; File c:\program files (x86)\microsoft visual studio 10.0\vc\include\vector
;	COMDAT ?size@?$vector@HV?$allocator@H@std@@@std@@QBEIXZ
_TEXT	SEGMENT
?size@?$vector@HV?$allocator@H@std@@@std@@QBEIXZ PROC	; std::vector<int,std::allocator<int> >::size, COMDAT
; _this$ = ecx

; 879  : 		return (this->_Mylast - this->_Myfirst);

  00000	8b 41 04	 mov	 eax, DWORD PTR [ecx+4]
  00003	2b 01		 sub	 eax, DWORD PTR [ecx]
  00005	c1 f8 02	 sar	 eax, 2

; 880  : 		}

  00008	c3		 ret	 0
?size@?$vector@HV?$allocator@H@std@@@std@@QBEIXZ ENDP	; std::vector<int,std::allocator<int> >::size
_TEXT	ENDS
PUBLIC	??A?$vector@HV?$allocator@H@std@@@std@@QAEAAHI@Z ; std::vector<int,std::allocator<int> >::operator[]
; Function compile flags: /Ogsp
;	COMDAT ??A?$vector@HV?$allocator@H@std@@@std@@QAEAAHI@Z
_TEXT	SEGMENT
__Pos$ = 8						; size = 4
??A?$vector@HV?$allocator@H@std@@@std@@QAEAAHI@Z PROC	; std::vector<int,std::allocator<int> >::operator[], COMDAT
; _this$ = ecx

; 928  : 		{	// subscript mutable sequence

  00000	55		 push	 ebp
  00001	8b ec		 mov	 ebp, esp

; 929  :  #if _ITERATOR_DEBUG_LEVEL == 2
; 930  : 		if (size() <= _Pos)
; 931  : 			{	// report error
; 932  : 			_DEBUG_ERROR("vector subscript out of range");
; 933  : 			_SCL_SECURE_OUT_OF_RANGE;
; 934  : 			}
; 935  : 
; 936  :  #elif _ITERATOR_DEBUG_LEVEL == 1
; 937  : 		_SCL_SECURE_VALIDATE_RANGE(_Pos < size());
; 938  :  #endif /* _ITERATOR_DEBUG_LEVEL */
; 939  : 
; 940  : 		return (*(this->_Myfirst + _Pos));

  00003	8b 01		 mov	 eax, DWORD PTR [ecx]
  00005	8b 4d 08	 mov	 ecx, DWORD PTR __Pos$[ebp]
  00008	8d 04 88	 lea	 eax, DWORD PTR [eax+ecx*4]

; 941  : 		}

  0000b	5d		 pop	 ebp
  0000c	c2 04 00	 ret	 4
??A?$vector@HV?$allocator@H@std@@@std@@QAEAAHI@Z ENDP	; std::vector<int,std::allocator<int> >::operator[]
_TEXT	ENDS
PUBLIC	??_7?$CEncrypt@M@@6B@				; CEncrypt<float>::`vftable'
PUBLIC	??1?$CEncrypt@M@@UAE@XZ				; CEncrypt<float>::~CEncrypt<float>
PUBLIC	??_R4?$CEncrypt@M@@6B@				; CEncrypt<float>::`RTTI Complete Object Locator'
PUBLIC	??_R0?AV?$CEncrypt@M@@@8			; CEncrypt<float> `RTTI Type Descriptor'
PUBLIC	??_R3?$CEncrypt@M@@8				; CEncrypt<float>::`RTTI Class Hierarchy Descriptor'
PUBLIC	??_R2?$CEncrypt@M@@8				; CEncrypt<float>::`RTTI Base Class Array'
PUBLIC	??_R1A@?0A@EA@?$CEncrypt@M@@8			; CEncrypt<float>::`RTTI Base Class Descriptor at (0,-1,0,64)'
EXTRN	??1ccddaabb@@UAE@XZ:PROC			; ccddaabb::~ccddaabb
EXTRN	??_E?$CEncrypt@M@@UAEPAXI@Z:PROC		; CEncrypt<float>::`vector deleting destructor'
;	COMDAT ??_R1A@?0A@EA@?$CEncrypt@M@@8
; File d:\lost saga for developer\youtube\tutorial\source\src\lsclient\encryptvalue.h
rdata$r	SEGMENT
??_R1A@?0A@EA@?$CEncrypt@M@@8 DD FLAT:??_R0?AV?$CEncrypt@M@@@8 ; CEncrypt<float>::`RTTI Base Class Descriptor at (0,-1,0,64)'
	DD	00H
	DD	00H
	DD	0ffffffffH
	DD	00H
	DD	040H
	DD	FLAT:??_R3?$CEncrypt@M@@8
rdata$r	ENDS
;	COMDAT ??_R2?$CEncrypt@M@@8
rdata$r	SEGMENT
??_R2?$CEncrypt@M@@8 DD FLAT:??_R1A@?0A@EA@?$CEncrypt@M@@8 ; CEncrypt<float>::`RTTI Base Class Array'
rdata$r	ENDS
;	COMDAT ??_R3?$CEncrypt@M@@8
rdata$r	SEGMENT
??_R3?$CEncrypt@M@@8 DD 00H				; CEncrypt<float>::`RTTI Class Hierarchy Descriptor'
	DD	00H
	DD	01H
	DD	FLAT:??_R2?$CEncrypt@M@@8
rdata$r	ENDS
;	COMDAT ??_R0?AV?$CEncrypt@M@@@8
_DATA	SEGMENT
??_R0?AV?$CEncrypt@M@@@8 DD FLAT:??_7type_info@@6B@	; CEncrypt<float> `RTTI Type Descriptor'
	DD	00H
	DB	'.?AV?$CEncrypt@M@@', 00H
_DATA	ENDS
;	COMDAT ??_R4?$CEncrypt@M@@6B@
rdata$r	SEGMENT
??_R4?$CEncrypt@M@@6B@ DD 00H				; CEncrypt<float>::`RTTI Complete Object Locator'
	DD	00H
	DD	00H
	DD	FLAT:??_R0?AV?$CEncrypt@M@@@8
	DD	FLAT:??_R3?$CEncrypt@M@@8
rdata$r	ENDS
;	COMDAT ??_7?$CEncrypt@M@@6B@
CONST	SEGMENT
??_7?$CEncrypt@M@@6B@ DD FLAT:??_R4?$CEncrypt@M@@6B@	; CEncrypt<float>::`vftable'
	DD	FLAT:??_E?$CEncrypt@M@@UAEPAXI@Z
; Function compile flags: /Ogsp
CONST	ENDS
;	COMDAT ??1?$CEncrypt@M@@UAE@XZ
_TEXT	SEGMENT
??1?$CEncrypt@M@@UAE@XZ PROC				; CEncrypt<float>::~CEncrypt<float>, COMDAT
; _this$ = ecx

; 127  : 	{

  00000	c7 01 00 00 00
	00		 mov	 DWORD PTR [ecx], OFFSET ??_7?$CEncrypt@M@@6B@

; 128  : 	}

  00006	83 c1 0c	 add	 ecx, 12			; 0000000cH
  00009	e9 00 00 00 00	 jmp	 ??1ccddaabb@@UAE@XZ	; ccddaabb::~ccddaabb
??1?$CEncrypt@M@@UAE@XZ ENDP				; CEncrypt<float>::~CEncrypt<float>
_TEXT	ENDS
PUBLIC	??_7?$CEncrypt@_N@@6B@				; CEncrypt<bool>::`vftable'
PUBLIC	??1?$CEncrypt@_N@@UAE@XZ			; CEncrypt<bool>::~CEncrypt<bool>
PUBLIC	??_R4?$CEncrypt@_N@@6B@				; CEncrypt<bool>::`RTTI Complete Object Locator'
PUBLIC	??_R0?AV?$CEncrypt@_N@@@8			; CEncrypt<bool> `RTTI Type Descriptor'
PUBLIC	??_R3?$CEncrypt@_N@@8				; CEncrypt<bool>::`RTTI Class Hierarchy Descriptor'
PUBLIC	??_R2?$CEncrypt@_N@@8				; CEncrypt<bool>::`RTTI Base Class Array'
PUBLIC	??_R1A@?0A@EA@?$CEncrypt@_N@@8			; CEncrypt<bool>::`RTTI Base Class Descriptor at (0,-1,0,64)'
EXTRN	??_E?$CEncrypt@_N@@UAEPAXI@Z:PROC		; CEncrypt<bool>::`vector deleting destructor'
;	COMDAT ??_R1A@?0A@EA@?$CEncrypt@_N@@8
rdata$r	SEGMENT
??_R1A@?0A@EA@?$CEncrypt@_N@@8 DD FLAT:??_R0?AV?$CEncrypt@_N@@@8 ; CEncrypt<bool>::`RTTI Base Class Descriptor at (0,-1,0,64)'
	DD	00H
	DD	00H
	DD	0ffffffffH
	DD	00H
	DD	040H
	DD	FLAT:??_R3?$CEncrypt@_N@@8
rdata$r	ENDS
;	COMDAT ??_R2?$CEncrypt@_N@@8
rdata$r	SEGMENT
??_R2?$CEncrypt@_N@@8 DD FLAT:??_R1A@?0A@EA@?$CEncrypt@_N@@8 ; CEncrypt<bool>::`RTTI Base Class Array'
rdata$r	ENDS
;	COMDAT ??_R3?$CEncrypt@_N@@8
rdata$r	SEGMENT
??_R3?$CEncrypt@_N@@8 DD 00H				; CEncrypt<bool>::`RTTI Class Hierarchy Descriptor'
	DD	00H
	DD	01H
	DD	FLAT:??_R2?$CEncrypt@_N@@8
rdata$r	ENDS
;	COMDAT ??_R0?AV?$CEncrypt@_N@@@8
_DATA	SEGMENT
??_R0?AV?$CEncrypt@_N@@@8 DD FLAT:??_7type_info@@6B@	; CEncrypt<bool> `RTTI Type Descriptor'
	DD	00H
	DB	'.?AV?$CEncrypt@_N@@', 00H
_DATA	ENDS
;	COMDAT ??_R4?$CEncrypt@_N@@6B@
rdata$r	SEGMENT
??_R4?$CEncrypt@_N@@6B@ DD 00H				; CEncrypt<bool>::`RTTI Complete Object Locator'
	DD	00H
	DD	00H
	DD	FLAT:??_R0?AV?$CEncrypt@_N@@@8
	DD	FLAT:??_R3?$CEncrypt@_N@@8
rdata$r	ENDS
;	COMDAT ??_7?$CEncrypt@_N@@6B@
CONST	SEGMENT
??_7?$CEncrypt@_N@@6B@ DD FLAT:??_R4?$CEncrypt@_N@@6B@	; CEncrypt<bool>::`vftable'
	DD	FLAT:??_E?$CEncrypt@_N@@UAEPAXI@Z
; Function compile flags: /Ogsp
CONST	ENDS
;	COMDAT ??1?$CEncrypt@_N@@UAE@XZ
_TEXT	SEGMENT
??1?$CEncrypt@_N@@UAE@XZ PROC				; CEncrypt<bool>::~CEncrypt<bool>, COMDAT
; _this$ = ecx

; 127  : 	{

  00000	c7 01 00 00 00
	00		 mov	 DWORD PTR [ecx], OFFSET ??_7?$CEncrypt@_N@@6B@

; 128  : 	}

  00006	83 c1 0c	 add	 ecx, 12			; 0000000cH
  00009	e9 00 00 00 00	 jmp	 ??1ccddaabb@@UAE@XZ	; ccddaabb::~ccddaabb
??1?$CEncrypt@_N@@UAE@XZ ENDP				; CEncrypt<bool>::~CEncrypt<bool>
_TEXT	ENDS
PUBLIC	??_7?$CEncrypt@H@@6B@				; CEncrypt<int>::`vftable'
PUBLIC	??1?$CEncrypt@H@@UAE@XZ				; CEncrypt<int>::~CEncrypt<int>
PUBLIC	??_R4?$CEncrypt@H@@6B@				; CEncrypt<int>::`RTTI Complete Object Locator'
PUBLIC	??_R0?AV?$CEncrypt@H@@@8			; CEncrypt<int> `RTTI Type Descriptor'
PUBLIC	??_R3?$CEncrypt@H@@8				; CEncrypt<int>::`RTTI Class Hierarchy Descriptor'
PUBLIC	??_R2?$CEncrypt@H@@8				; CEncrypt<int>::`RTTI Base Class Array'
PUBLIC	??_R1A@?0A@EA@?$CEncrypt@H@@8			; CEncrypt<int>::`RTTI Base Class Descriptor at (0,-1,0,64)'
EXTRN	??_E?$CEncrypt@H@@UAEPAXI@Z:PROC		; CEncrypt<int>::`vector deleting destructor'
;	COMDAT ??_R1A@?0A@EA@?$CEncrypt@H@@8
rdata$r	SEGMENT
??_R1A@?0A@EA@?$CEncrypt@H@@8 DD FLAT:??_R0?AV?$CEncrypt@H@@@8 ; CEncrypt<int>::`RTTI Base Class Descriptor at (0,-1,0,64)'
	DD	00H
	DD	00H
	DD	0ffffffffH
	DD	00H
	DD	040H
	DD	FLAT:??_R3?$CEncrypt@H@@8
rdata$r	ENDS
;	COMDAT ??_R2?$CEncrypt@H@@8
rdata$r	SEGMENT
??_R2?$CEncrypt@H@@8 DD FLAT:??_R1A@?0A@EA@?$CEncrypt@H@@8 ; CEncrypt<int>::`RTTI Base Class Array'
rdata$r	ENDS
;	COMDAT ??_R3?$CEncrypt@H@@8
rdata$r	SEGMENT
??_R3?$CEncrypt@H@@8 DD 00H				; CEncrypt<int>::`RTTI Class Hierarchy Descriptor'
	DD	00H
	DD	01H
	DD	FLAT:??_R2?$CEncrypt@H@@8
rdata$r	ENDS
;	COMDAT ??_R0?AV?$CEncrypt@H@@@8
_DATA	SEGMENT
??_R0?AV?$CEncrypt@H@@@8 DD FLAT:??_7type_info@@6B@	; CEncrypt<int> `RTTI Type Descriptor'
	DD	00H
	DB	'.?AV?$CEncrypt@H@@', 00H
_DATA	ENDS
;	COMDAT ??_R4?$CEncrypt@H@@6B@
rdata$r	SEGMENT
??_R4?$CEncrypt@H@@6B@ DD 00H				; CEncrypt<int>::`RTTI Complete Object Locator'
	DD	00H
	DD	00H
	DD	FLAT:??_R0?AV?$CEncrypt@H@@@8
	DD	FLAT:??_R3?$CEncrypt@H@@8
rdata$r	ENDS
;	COMDAT ??_7?$CEncrypt@H@@6B@
CONST	SEGMENT
??_7?$CEncrypt@H@@6B@ DD FLAT:??_R4?$CEncrypt@H@@6B@	; CEncrypt<int>::`vftable'
	DD	FLAT:??_E?$CEncrypt@H@@UAEPAXI@Z
; Function compile flags: /Ogsp
CONST	ENDS
;	COMDAT ??1?$CEncrypt@H@@UAE@XZ
_TEXT	SEGMENT
??1?$CEncrypt@H@@UAE@XZ PROC				; CEncrypt<int>::~CEncrypt<int>, COMDAT
; _this$ = ecx

; 127  : 	{

  00000	c7 01 00 00 00
	00		 mov	 DWORD PTR [ecx], OFFSET ??_7?$CEncrypt@H@@6B@

; 128  : 	}

  00006	83 c1 0c	 add	 ecx, 12			; 0000000cH
  00009	e9 00 00 00 00	 jmp	 ??1ccddaabb@@UAE@XZ	; ccddaabb::~ccddaabb
??1?$CEncrypt@H@@UAE@XZ ENDP				; CEncrypt<int>::~CEncrypt<int>
; Function compile flags: /Ogsp
_TEXT	ENDS
;	COMDAT ??_G?$CEncrypt@M@@UAEPAXI@Z
_TEXT	SEGMENT
___flags$ = 8						; size = 4
??_G?$CEncrypt@M@@UAEPAXI@Z PROC			; CEncrypt<float>::`scalar deleting destructor', COMDAT
; _this$ = ecx
  00000	55		 push	 ebp
  00001	8b ec		 mov	 ebp, esp
  00003	56		 push	 esi
  00004	8b f1		 mov	 esi, ecx
  00006	8d 4e 0c	 lea	 ecx, DWORD PTR [esi+12]
  00009	c7 06 00 00 00
	00		 mov	 DWORD PTR [esi], OFFSET ??_7?$CEncrypt@M@@6B@
  0000f	e8 00 00 00 00	 call	 ??1ccddaabb@@UAE@XZ	; ccddaabb::~ccddaabb
  00014	f6 45 08 01	 test	 BYTE PTR ___flags$[ebp], 1
  00018	74 07		 je	 SHORT $LN1@scalar@2
  0001a	56		 push	 esi
  0001b	e8 00 00 00 00	 call	 ??3@YAXPAX@Z		; operator delete
  00020	59		 pop	 ecx
$LN1@scalar@2:
  00021	8b c6		 mov	 eax, esi
  00023	5e		 pop	 esi
  00024	5d		 pop	 ebp
  00025	c2 04 00	 ret	 4
??_G?$CEncrypt@M@@UAEPAXI@Z ENDP			; CEncrypt<float>::`scalar deleting destructor'
; Function compile flags: /Ogsp
_TEXT	ENDS
;	COMDAT ??_G?$CEncrypt@_N@@UAEPAXI@Z
_TEXT	SEGMENT
___flags$ = 8						; size = 4
??_G?$CEncrypt@_N@@UAEPAXI@Z PROC			; CEncrypt<bool>::`scalar deleting destructor', COMDAT
; _this$ = ecx
  00000	55		 push	 ebp
  00001	8b ec		 mov	 ebp, esp
  00003	56		 push	 esi
  00004	8b f1		 mov	 esi, ecx
  00006	8d 4e 0c	 lea	 ecx, DWORD PTR [esi+12]
  00009	c7 06 00 00 00
	00		 mov	 DWORD PTR [esi], OFFSET ??_7?$CEncrypt@_N@@6B@
  0000f	e8 00 00 00 00	 call	 ??1ccddaabb@@UAE@XZ	; ccddaabb::~ccddaabb
  00014	f6 45 08 01	 test	 BYTE PTR ___flags$[ebp], 1
  00018	74 07		 je	 SHORT $LN1@scalar@3
  0001a	56		 push	 esi
  0001b	e8 00 00 00 00	 call	 ??3@YAXPAX@Z		; operator delete
  00020	59		 pop	 ecx
$LN1@scalar@3:
  00021	8b c6		 mov	 eax, esi
  00023	5e		 pop	 esi
  00024	5d		 pop	 ebp
  00025	c2 04 00	 ret	 4
??_G?$CEncrypt@_N@@UAEPAXI@Z ENDP			; CEncrypt<bool>::`scalar deleting destructor'
; Function compile flags: /Ogsp
_TEXT	ENDS
;	COMDAT ??_G?$CEncrypt@H@@UAEPAXI@Z
_TEXT	SEGMENT
___flags$ = 8						; size = 4
??_G?$CEncrypt@H@@UAEPAXI@Z PROC			; CEncrypt<int>::`scalar deleting destructor', COMDAT
; _this$ = ecx
  00000	55		 push	 ebp
  00001	8b ec		 mov	 ebp, esp
  00003	56		 push	 esi
  00004	8b f1		 mov	 esi, ecx
  00006	8d 4e 0c	 lea	 ecx, DWORD PTR [esi+12]
  00009	c7 06 00 00 00
	00		 mov	 DWORD PTR [esi], OFFSET ??_7?$CEncrypt@H@@6B@
  0000f	e8 00 00 00 00	 call	 ??1ccddaabb@@UAE@XZ	; ccddaabb::~ccddaabb
  00014	f6 45 08 01	 test	 BYTE PTR ___flags$[ebp], 1
  00018	74 07		 je	 SHORT $LN1@scalar@4
  0001a	56		 push	 esi
  0001b	e8 00 00 00 00	 call	 ??3@YAXPAX@Z		; operator delete
  00020	59		 pop	 ecx
$LN1@scalar@4:
  00021	8b c6		 mov	 eax, esi
  00023	5e		 pop	 esi
  00024	5d		 pop	 ebp
  00025	c2 04 00	 ret	 4
??_G?$CEncrypt@H@@UAEPAXI@Z ENDP			; CEncrypt<int>::`scalar deleting destructor'
_TEXT	ENDS
PUBLIC	??0?$allocator@H@std@@QAE@XZ			; std::allocator<int>::allocator<int>
; Function compile flags: /Ogsp
; File c:\program files (x86)\microsoft visual studio 10.0\vc\include\xmemory
;	COMDAT ??0?$allocator@H@std@@QAE@XZ
_TEXT	SEGMENT
??0?$allocator@H@std@@QAE@XZ PROC			; std::allocator<int>::allocator<int>, COMDAT
; _this$ = ecx

; 161  : 	_ALLOCATOR() _THROW0()

  00000	8b c1		 mov	 eax, ecx

; 162  : 		{	// construct default allocator (do nothing)
; 163  : 		}

  00002	c3		 ret	 0
??0?$allocator@H@std@@QAE@XZ ENDP			; std::allocator<int>::allocator<int>
_TEXT	ENDS
PUBLIC	??1?$_Vector_val@HV?$allocator@H@std@@@std@@QAE@XZ ; std::_Vector_val<int,std::allocator<int> >::~_Vector_val<int,std::allocator<int> >
; Function compile flags: /Ogsp
; File c:\program files (x86)\microsoft visual studio 10.0\vc\include\vector
;	COMDAT ??1?$_Vector_val@HV?$allocator@H@std@@@std@@QAE@XZ
_TEXT	SEGMENT
??1?$_Vector_val@HV?$allocator@H@std@@@std@@QAE@XZ PROC	; std::_Vector_val<int,std::allocator<int> >::~_Vector_val<int,std::allocator<int> >, COMDAT
; _this$ = ecx

; 434  : 		}

  00000	c3		 ret	 0
??1?$_Vector_val@HV?$allocator@H@std@@@std@@QAE@XZ ENDP	; std::_Vector_val<int,std::allocator<int> >::~_Vector_val<int,std::allocator<int> >
_TEXT	ENDS
PUBLIC	?EncryptValueToPool@?$CEncrypt@M@@AAEXPBD@Z	; CEncrypt<float>::EncryptValueToPool
EXTRN	?EncryptByte@ccddaabb@@QAEXPBDPADH@Z:PROC	; ccddaabb::EncryptByte
; Function compile flags: /Ogsp
; File d:\lost saga for developer\youtube\tutorial\source\src\lsclient\encryptvalue.h
;	COMDAT ?EncryptValueToPool@?$CEncrypt@M@@AAEXPBD@Z
_TEXT	SEGMENT
_value$ = 8						; size = 4
?EncryptValueToPool@?$CEncrypt@M@@AAEXPBD@Z PROC	; CEncrypt<float>::EncryptValueToPool, COMDAT
; _this$ = ecx

; 67   : 	{

  00000	55		 push	 ebp
  00001	8b ec		 mov	 ebp, esp

; 68   : 		m_RC5.EncryptByte( value, m_MemPool, max(m_ValueSize, DEFAULT_ENCRYPT) );

  00003	0f b7 41 06	 movzx	 eax, WORD PTR [ecx+6]
  00007	83 f8 04	 cmp	 eax, 4
  0000a	77 03		 ja	 SHORT $LN4@EncryptVal
  0000c	6a 04		 push	 4
  0000e	58		 pop	 eax
$LN4@EncryptVal:
  0000f	50		 push	 eax
  00010	8d 41 1c	 lea	 eax, DWORD PTR [ecx+28]
  00013	50		 push	 eax
  00014	ff 75 08	 push	 DWORD PTR _value$[ebp]
  00017	83 c1 0c	 add	 ecx, 12			; 0000000cH
  0001a	e8 00 00 00 00	 call	 ?EncryptByte@ccddaabb@@QAEXPBDPADH@Z ; ccddaabb::EncryptByte

; 69   : 		
; 70   : 	}

  0001f	5d		 pop	 ebp
  00020	c2 04 00	 ret	 4
?EncryptValueToPool@?$CEncrypt@M@@AAEXPBD@Z ENDP	; CEncrypt<float>::EncryptValueToPool
_TEXT	ENDS
PUBLIC	?Init@?$CEncrypt@M@@AAEXXZ			; CEncrypt<float>::Init
EXTRN	?Setup@ccddaabb@@QAEXPBDHH@Z:PROC		; ccddaabb::Setup
EXTRN	__imp__rand:PROC
EXTRN	__imp__timeGetTime@0:PROC
EXTRN	__imp__GetCurrentProcessId@0:PROC
; Function compile flags: /Ogsp
;	COMDAT ?Init@?$CEncrypt@M@@AAEXXZ
_TEXT	SEGMENT
_pid$ = -8						; size = 4
_tick$ = -4						; size = 4
?Init@?$CEncrypt@M@@AAEXXZ PROC				; CEncrypt<float>::Init, COMDAT
; _this$ = ecx

; 73   : 	{

  00000	55		 push	 ebp
  00001	8b ec		 mov	 ebp, esp
  00003	51		 push	 ecx
  00004	51		 push	 ecx
  00005	53		 push	 ebx
  00006	56		 push	 esi
  00007	57		 push	 edi
  00008	8b f1		 mov	 esi, ecx

; 74   : 		DWORD pid = GetCurrentProcessId();

  0000a	ff 15 00 00 00
	00		 call	 DWORD PTR __imp__GetCurrentProcessId@0
  00010	89 45 f8	 mov	 DWORD PTR _pid$[ebp], eax

; 75   : 		DWORD tick = timeGetTime();

  00013	ff 15 00 00 00
	00		 call	 DWORD PTR __imp__timeGetTime@0

; 76   : 		m_ValueSize    = sizeof(type);
; 77   : 		m_MemPoolPos   = (unsigned short)( rand()+pid+tick )%(MAX_MEM_POOL-m_ValueSize);

  00019	8b 3d 00 00 00
	00		 mov	 edi, DWORD PTR __imp__rand
  0001f	89 45 fc	 mov	 DWORD PTR _tick$[ebp], eax
  00022	6a 04		 push	 4
  00024	58		 pop	 eax
  00025	66 89 46 06	 mov	 WORD PTR [esi+6], ax
  00029	ff d7		 call	 edi
  0002b	03 45 f8	 add	 eax, DWORD PTR _pid$[ebp]
  0002e	0f b7 4e 06	 movzx	 ecx, WORD PTR [esi+6]
  00032	03 45 fc	 add	 eax, DWORD PTR _tick$[ebp]
  00035	6a 0c		 push	 12			; 0000000cH
  00037	0f b7 c0	 movzx	 eax, ax
  0003a	5b		 pop	 ebx
  0003b	99		 cdq
  0003c	2b d9		 sub	 ebx, ecx
  0003e	f7 fb		 idiv	 ebx
  00040	66 89 56 04	 mov	 WORD PTR [esi+4], dx

; 78   : 		m_EncryptSeed  = (char)( rand()+pid+tick )%256;

  00044	ff d7		 call	 edi
  00046	02 45 f8	 add	 al, BYTE PTR _pid$[ebp]
  00049	02 45 fc	 add	 al, BYTE PTR _tick$[ebp]
  0004c	0f be c0	 movsx	 eax, al
  0004f	25 ff 00 00 80	 and	 eax, -2147483393	; 800000ffH
  00054	79 07		 jns	 SHORT $LN8@Init
  00056	48		 dec	 eax
  00057	0d 00 ff ff ff	 or	 eax, -256		; ffffff00H
  0005c	40		 inc	 eax
$LN8@Init:
  0005d	88 46 08	 mov	 BYTE PTR [esi+8], al

; 79   : 
; 80   : 		for (int i = 0; i < MAX_MEM_POOL ; i++)

  00060	33 db		 xor	 ebx, ebx
$LL3@Init:

; 81   : 			m_MemPool[i] = (char)( rand()+pid+tick )%256; // 

  00062	ff d7		 call	 edi
  00064	02 45 f8	 add	 al, BYTE PTR _pid$[ebp]
  00067	02 45 fc	 add	 al, BYTE PTR _tick$[ebp]
  0006a	0f be c0	 movsx	 eax, al
  0006d	25 ff 00 00 80	 and	 eax, -2147483393	; 800000ffH
  00072	79 07		 jns	 SHORT $LN9@Init
  00074	48		 dec	 eax
  00075	0d 00 ff ff ff	 or	 eax, -256		; ffffff00H
  0007a	40		 inc	 eax
$LN9@Init:
  0007b	88 44 1e 1c	 mov	 BYTE PTR [esi+ebx+28], al
  0007f	43		 inc	 ebx
  00080	83 fb 0c	 cmp	 ebx, 12			; 0000000cH
  00083	7c dd		 jl	 SHORT $LL3@Init

; 82   : 
; 83   : 		//UJ 130913, : szKey  
; 84   : 		//char szKey[ccddaabb::KEY_SIZE];//="";
; 85   : 		//for (int i = 0; i < ccddaabb::KEY_SIZE  ; i++)
; 86   : 		//	szKey[i] = (char)( rand()+pid+tick )%256; // 
; 87   : 		m_RC5.Setup( NULL, pid, tick );

  00085	ff 75 fc	 push	 DWORD PTR _tick$[ebp]
  00088	8d 4e 0c	 lea	 ecx, DWORD PTR [esi+12]
  0008b	ff 75 f8	 push	 DWORD PTR _pid$[ebp]
  0008e	6a 00		 push	 0
  00090	e8 00 00 00 00	 call	 ?Setup@ccddaabb@@QAEXPBDHH@Z ; ccddaabb::Setup
  00095	5f		 pop	 edi
  00096	5e		 pop	 esi
  00097	5b		 pop	 ebx

; 88   : 
; 89   : #ifdef _NOTUSE
; 90   : 		m_value        = 0;
; 91   : 		EncryptValueToPool((char*)&m_value);
; 92   : 		Debug();
; 93   : #endif
; 94   : 	}

  00098	c9		 leave
  00099	c3		 ret	 0
?Init@?$CEncrypt@M@@AAEXXZ ENDP				; CEncrypt<float>::Init
_TEXT	ENDS
PUBLIC	?DecryptValueToPool@?$CEncrypt@M@@QAEXPAM@Z	; CEncrypt<float>::DecryptValueToPool
EXTRN	?DecryptByte@ccddaabb@@QBEXPBDPADH@Z:PROC	; ccddaabb::DecryptByte
; Function compile flags: /Ogsp
;	COMDAT ?DecryptValueToPool@?$CEncrypt@M@@QAEXPAM@Z
_TEXT	SEGMENT
_value$ = 8						; size = 4
?DecryptValueToPool@?$CEncrypt@M@@QAEXPAM@Z PROC	; CEncrypt<float>::DecryptValueToPool, COMDAT
; _this$ = ecx

; 1648 : 	{

  00000	55		 push	 ebp
  00001	8b ec		 mov	 ebp, esp
  00003	56		 push	 esi

; 1649 : 		m_RC5.DecryptByte( m_MemPool, m_TempMem, 4 );

  00004	8d 71 28	 lea	 esi, DWORD PTR [ecx+40]
  00007	6a 04		 push	 4
  00009	8d 41 1c	 lea	 eax, DWORD PTR [ecx+28]
  0000c	56		 push	 esi
  0000d	50		 push	 eax
  0000e	83 c1 0c	 add	 ecx, 12			; 0000000cH
  00011	e8 00 00 00 00	 call	 ?DecryptByte@ccddaabb@@QBEXPBDPADH@Z ; ccddaabb::DecryptByte

; 1650 : 		*value = *((float*)m_TempMem);

  00016	d9 06		 fld	 DWORD PTR [esi]
  00018	8b 45 08	 mov	 eax, DWORD PTR _value$[ebp]
  0001b	d9 18		 fstp	 DWORD PTR [eax]
  0001d	5e		 pop	 esi

; 1651 : 	}

  0001e	5d		 pop	 ebp
  0001f	c2 04 00	 ret	 4
?DecryptValueToPool@?$CEncrypt@M@@QAEXPAM@Z ENDP	; CEncrypt<float>::DecryptValueToPool
_TEXT	ENDS
PUBLIC	?EncryptValueToPool@?$CEncrypt@_N@@AAEXPBD@Z	; CEncrypt<bool>::EncryptValueToPool
; Function compile flags: /Ogsp
;	COMDAT ?EncryptValueToPool@?$CEncrypt@_N@@AAEXPBD@Z
_TEXT	SEGMENT
_value$ = 8						; size = 4
?EncryptValueToPool@?$CEncrypt@_N@@AAEXPBD@Z PROC	; CEncrypt<bool>::EncryptValueToPool, COMDAT
; _this$ = ecx

; 67   : 	{

  00000	55		 push	 ebp
  00001	8b ec		 mov	 ebp, esp

; 68   : 		m_RC5.EncryptByte( value, m_MemPool, max(m_ValueSize, DEFAULT_ENCRYPT) );

  00003	0f b7 41 06	 movzx	 eax, WORD PTR [ecx+6]
  00007	83 f8 04	 cmp	 eax, 4
  0000a	77 03		 ja	 SHORT $LN4@EncryptVal@2
  0000c	6a 04		 push	 4
  0000e	58		 pop	 eax
$LN4@EncryptVal@2:
  0000f	50		 push	 eax
  00010	8d 41 1c	 lea	 eax, DWORD PTR [ecx+28]
  00013	50		 push	 eax
  00014	ff 75 08	 push	 DWORD PTR _value$[ebp]
  00017	83 c1 0c	 add	 ecx, 12			; 0000000cH
  0001a	e8 00 00 00 00	 call	 ?EncryptByte@ccddaabb@@QAEXPBDPADH@Z ; ccddaabb::EncryptByte

; 69   : 		
; 70   : 	}

  0001f	5d		 pop	 ebp
  00020	c2 04 00	 ret	 4
?EncryptValueToPool@?$CEncrypt@_N@@AAEXPBD@Z ENDP	; CEncrypt<bool>::EncryptValueToPool
_TEXT	ENDS
PUBLIC	?Init@?$CEncrypt@_N@@AAEXXZ			; CEncrypt<bool>::Init
; Function compile flags: /Ogsp
;	COMDAT ?Init@?$CEncrypt@_N@@AAEXXZ
_TEXT	SEGMENT
_pid$ = -8						; size = 4
_tick$ = -4						; size = 4
?Init@?$CEncrypt@_N@@AAEXXZ PROC			; CEncrypt<bool>::Init, COMDAT
; _this$ = ecx

; 73   : 	{

  00000	55		 push	 ebp
  00001	8b ec		 mov	 ebp, esp
  00003	51		 push	 ecx
  00004	51		 push	 ecx
  00005	53		 push	 ebx
  00006	56		 push	 esi
  00007	57		 push	 edi
  00008	8b f1		 mov	 esi, ecx

; 74   : 		DWORD pid = GetCurrentProcessId();

  0000a	ff 15 00 00 00
	00		 call	 DWORD PTR __imp__GetCurrentProcessId@0
  00010	89 45 f8	 mov	 DWORD PTR _pid$[ebp], eax

; 75   : 		DWORD tick = timeGetTime();

  00013	ff 15 00 00 00
	00		 call	 DWORD PTR __imp__timeGetTime@0

; 76   : 		m_ValueSize    = sizeof(type);
; 77   : 		m_MemPoolPos   = (unsigned short)( rand()+pid+tick )%(MAX_MEM_POOL-m_ValueSize);

  00019	8b 3d 00 00 00
	00		 mov	 edi, DWORD PTR __imp__rand
  0001f	89 45 fc	 mov	 DWORD PTR _tick$[ebp], eax
  00022	33 c0		 xor	 eax, eax
  00024	40		 inc	 eax
  00025	66 89 46 06	 mov	 WORD PTR [esi+6], ax
  00029	ff d7		 call	 edi
  0002b	03 45 f8	 add	 eax, DWORD PTR _pid$[ebp]
  0002e	0f b7 4e 06	 movzx	 ecx, WORD PTR [esi+6]
  00032	03 45 fc	 add	 eax, DWORD PTR _tick$[ebp]
  00035	6a 0c		 push	 12			; 0000000cH
  00037	0f b7 c0	 movzx	 eax, ax
  0003a	5b		 pop	 ebx
  0003b	99		 cdq
  0003c	2b d9		 sub	 ebx, ecx
  0003e	f7 fb		 idiv	 ebx
  00040	66 89 56 04	 mov	 WORD PTR [esi+4], dx

; 78   : 		m_EncryptSeed  = (char)( rand()+pid+tick )%256;

  00044	ff d7		 call	 edi
  00046	02 45 f8	 add	 al, BYTE PTR _pid$[ebp]
  00049	02 45 fc	 add	 al, BYTE PTR _tick$[ebp]
  0004c	0f be c0	 movsx	 eax, al
  0004f	25 ff 00 00 80	 and	 eax, -2147483393	; 800000ffH
  00054	79 07		 jns	 SHORT $LN8@Init@2
  00056	48		 dec	 eax
  00057	0d 00 ff ff ff	 or	 eax, -256		; ffffff00H
  0005c	40		 inc	 eax
$LN8@Init@2:
  0005d	88 46 08	 mov	 BYTE PTR [esi+8], al

; 79   : 
; 80   : 		for (int i = 0; i < MAX_MEM_POOL ; i++)

  00060	33 db		 xor	 ebx, ebx
$LL3@Init@2:

; 81   : 			m_MemPool[i] = (char)( rand()+pid+tick )%256; // 

  00062	ff d7		 call	 edi
  00064	02 45 f8	 add	 al, BYTE PTR _pid$[ebp]
  00067	02 45 fc	 add	 al, BYTE PTR _tick$[ebp]
  0006a	0f be c0	 movsx	 eax, al
  0006d	25 ff 00 00 80	 and	 eax, -2147483393	; 800000ffH
  00072	79 07		 jns	 SHORT $LN9@Init@2
  00074	48		 dec	 eax
  00075	0d 00 ff ff ff	 or	 eax, -256		; ffffff00H
  0007a	40		 inc	 eax
$LN9@Init@2:
  0007b	88 44 1e 1c	 mov	 BYTE PTR [esi+ebx+28], al
  0007f	43		 inc	 ebx
  00080	83 fb 0c	 cmp	 ebx, 12			; 0000000cH
  00083	7c dd		 jl	 SHORT $LL3@Init@2

; 82   : 
; 83   : 		//UJ 130913, : szKey  
; 84   : 		//char szKey[ccddaabb::KEY_SIZE];//="";
; 85   : 		//for (int i = 0; i < ccddaabb::KEY_SIZE  ; i++)
; 86   : 		//	szKey[i] = (char)( rand()+pid+tick )%256; // 
; 87   : 		m_RC5.Setup( NULL, pid, tick );

  00085	ff 75 fc	 push	 DWORD PTR _tick$[ebp]
  00088	8d 4e 0c	 lea	 ecx, DWORD PTR [esi+12]
  0008b	ff 75 f8	 push	 DWORD PTR _pid$[ebp]
  0008e	6a 00		 push	 0
  00090	e8 00 00 00 00	 call	 ?Setup@ccddaabb@@QAEXPBDHH@Z ; ccddaabb::Setup
  00095	5f		 pop	 edi
  00096	5e		 pop	 esi
  00097	5b		 pop	 ebx

; 88   : 
; 89   : #ifdef _NOTUSE
; 90   : 		m_value        = 0;
; 91   : 		EncryptValueToPool((char*)&m_value);
; 92   : 		Debug();
; 93   : #endif
; 94   : 	}

  00098	c9		 leave
  00099	c3		 ret	 0
?Init@?$CEncrypt@_N@@AAEXXZ ENDP			; CEncrypt<bool>::Init
_TEXT	ENDS
PUBLIC	?DecryptValueToPool@?$CEncrypt@_N@@QAEXPA_N@Z	; CEncrypt<bool>::DecryptValueToPool
; Function compile flags: /Ogsp
;	COMDAT ?DecryptValueToPool@?$CEncrypt@_N@@QAEXPA_N@Z
_TEXT	SEGMENT
_value$ = 8						; size = 4
?DecryptValueToPool@?$CEncrypt@_N@@QAEXPA_N@Z PROC	; CEncrypt<bool>::DecryptValueToPool, COMDAT
; _this$ = ecx

; 219  : 	{

  00000	55		 push	 ebp
  00001	8b ec		 mov	 ebp, esp
  00003	56		 push	 esi

; 220  : 		m_RC5.DecryptByte( m_MemPool, m_TempMem, 4 );

  00004	8d 71 28	 lea	 esi, DWORD PTR [ecx+40]
  00007	6a 04		 push	 4
  00009	8d 41 1c	 lea	 eax, DWORD PTR [ecx+28]
  0000c	56		 push	 esi
  0000d	50		 push	 eax
  0000e	83 c1 0c	 add	 ecx, 12			; 0000000cH
  00011	e8 00 00 00 00	 call	 ?DecryptByte@ccddaabb@@QBEXPBDPADH@Z ; ccddaabb::DecryptByte

; 221  : 		*value = *((bool*)m_TempMem);

  00016	8a 06		 mov	 al, BYTE PTR [esi]
  00018	8b 4d 08	 mov	 ecx, DWORD PTR _value$[ebp]
  0001b	88 01		 mov	 BYTE PTR [ecx], al
  0001d	5e		 pop	 esi

; 222  : 	}

  0001e	5d		 pop	 ebp
  0001f	c2 04 00	 ret	 4
?DecryptValueToPool@?$CEncrypt@_N@@QAEXPA_N@Z ENDP	; CEncrypt<bool>::DecryptValueToPool
_TEXT	ENDS
PUBLIC	?EncryptValueToPool@?$CEncrypt@H@@AAEXPBD@Z	; CEncrypt<int>::EncryptValueToPool
; Function compile flags: /Ogsp
;	COMDAT ?EncryptValueToPool@?$CEncrypt@H@@AAEXPBD@Z
_TEXT	SEGMENT
_value$ = 8						; size = 4
?EncryptValueToPool@?$CEncrypt@H@@AAEXPBD@Z PROC	; CEncrypt<int>::EncryptValueToPool, COMDAT
; _this$ = ecx

; 67   : 	{

  00000	55		 push	 ebp
  00001	8b ec		 mov	 ebp, esp

; 68   : 		m_RC5.EncryptByte( value, m_MemPool, max(m_ValueSize, DEFAULT_ENCRYPT) );

  00003	0f b7 41 06	 movzx	 eax, WORD PTR [ecx+6]
  00007	83 f8 04	 cmp	 eax, 4
  0000a	77 03		 ja	 SHORT $LN4@EncryptVal@3
  0000c	6a 04		 push	 4
  0000e	58		 pop	 eax
$LN4@EncryptVal@3:
  0000f	50		 push	 eax
  00010	8d 41 1c	 lea	 eax, DWORD PTR [ecx+28]
  00013	50		 push	 eax
  00014	ff 75 08	 push	 DWORD PTR _value$[ebp]
  00017	83 c1 0c	 add	 ecx, 12			; 0000000cH
  0001a	e8 00 00 00 00	 call	 ?EncryptByte@ccddaabb@@QAEXPBDPADH@Z ; ccddaabb::EncryptByte

; 69   : 		
; 70   : 	}

  0001f	5d		 pop	 ebp
  00020	c2 04 00	 ret	 4
?EncryptValueToPool@?$CEncrypt@H@@AAEXPBD@Z ENDP	; CEncrypt<int>::EncryptValueToPool
_TEXT	ENDS
PUBLIC	?Init@?$CEncrypt@H@@AAEXXZ			; CEncrypt<int>::Init
; Function compile flags: /Ogsp
;	COMDAT ?Init@?$CEncrypt@H@@AAEXXZ
_TEXT	SEGMENT
_pid$ = -8						; size = 4
_tick$ = -4						; size = 4
?Init@?$CEncrypt@H@@AAEXXZ PROC				; CEncrypt<int>::Init, COMDAT
; _this$ = ecx

; 73   : 	{

  00000	55		 push	 ebp
  00001	8b ec		 mov	 ebp, esp
  00003	51		 push	 ecx
  00004	51		 push	 ecx
  00005	53		 push	 ebx
  00006	56		 push	 esi
  00007	57		 push	 edi
  00008	8b f1		 mov	 esi, ecx

; 74   : 		DWORD pid = GetCurrentProcessId();

  0000a	ff 15 00 00 00
	00		 call	 DWORD PTR __imp__GetCurrentProcessId@0
  00010	89 45 f8	 mov	 DWORD PTR _pid$[ebp], eax

; 75   : 		DWORD tick = timeGetTime();

  00013	ff 15 00 00 00
	00		 call	 DWORD PTR __imp__timeGetTime@0

; 76   : 		m_ValueSize    = sizeof(type);
; 77   : 		m_MemPoolPos   = (unsigned short)( rand()+pid+tick )%(MAX_MEM_POOL-m_ValueSize);

  00019	8b 3d 00 00 00
	00		 mov	 edi, DWORD PTR __imp__rand
  0001f	89 45 fc	 mov	 DWORD PTR _tick$[ebp], eax
  00022	6a 04		 push	 4
  00024	58		 pop	 eax
  00025	66 89 46 06	 mov	 WORD PTR [esi+6], ax
  00029	ff d7		 call	 edi
  0002b	03 45 f8	 add	 eax, DWORD PTR _pid$[ebp]
  0002e	0f b7 4e 06	 movzx	 ecx, WORD PTR [esi+6]
  00032	03 45 fc	 add	 eax, DWORD PTR _tick$[ebp]
  00035	6a 0c		 push	 12			; 0000000cH
  00037	0f b7 c0	 movzx	 eax, ax
  0003a	5b		 pop	 ebx
  0003b	99		 cdq
  0003c	2b d9		 sub	 ebx, ecx
  0003e	f7 fb		 idiv	 ebx
  00040	66 89 56 04	 mov	 WORD PTR [esi+4], dx

; 78   : 		m_EncryptSeed  = (char)( rand()+pid+tick )%256;

  00044	ff d7		 call	 edi
  00046	02 45 f8	 add	 al, BYTE PTR _pid$[ebp]
  00049	02 45 fc	 add	 al, BYTE PTR _tick$[ebp]
  0004c	0f be c0	 movsx	 eax, al
  0004f	25 ff 00 00 80	 and	 eax, -2147483393	; 800000ffH
  00054	79 07		 jns	 SHORT $LN8@Init@3
  00056	48		 dec	 eax
  00057	0d 00 ff ff ff	 or	 eax, -256		; ffffff00H
  0005c	40		 inc	 eax
$LN8@Init@3:
  0005d	88 46 08	 mov	 BYTE PTR [esi+8], al

; 79   : 
; 80   : 		for (int i = 0; i < MAX_MEM_POOL ; i++)

  00060	33 db		 xor	 ebx, ebx
$LL3@Init@3:

; 81   : 			m_MemPool[i] = (char)( rand()+pid+tick )%256; // 

  00062	ff d7		 call	 edi
  00064	02 45 f8	 add	 al, BYTE PTR _pid$[ebp]
  00067	02 45 fc	 add	 al, BYTE PTR _tick$[ebp]
  0006a	0f be c0	 movsx	 eax, al
  0006d	25 ff 00 00 80	 and	 eax, -2147483393	; 800000ffH
  00072	79 07		 jns	 SHORT $LN9@Init@3
  00074	48		 dec	 eax
  00075	0d 00 ff ff ff	 or	 eax, -256		; ffffff00H
  0007a	40		 inc	 eax
$LN9@Init@3:
  0007b	88 44 1e 1c	 mov	 BYTE PTR [esi+ebx+28], al
  0007f	43		 inc	 ebx
  00080	83 fb 0c	 cmp	 ebx, 12			; 0000000cH
  00083	7c dd		 jl	 SHORT $LL3@Init@3

; 82   : 
; 83   : 		//UJ 130913, : szKey  
; 84   : 		//char szKey[ccddaabb::KEY_SIZE];//="";
; 85   : 		//for (int i = 0; i < ccddaabb::KEY_SIZE  ; i++)
; 86   : 		//	szKey[i] = (char)( rand()+pid+tick )%256; // 
; 87   : 		m_RC5.Setup( NULL, pid, tick );

  00085	ff 75 fc	 push	 DWORD PTR _tick$[ebp]
  00088	8d 4e 0c	 lea	 ecx, DWORD PTR [esi+12]
  0008b	ff 75 f8	 push	 DWORD PTR _pid$[ebp]
  0008e	6a 00		 push	 0
  00090	e8 00 00 00 00	 call	 ?Setup@ccddaabb@@QAEXPBDHH@Z ; ccddaabb::Setup
  00095	5f		 pop	 edi
  00096	5e		 pop	 esi
  00097	5b		 pop	 ebx

; 88   : 
; 89   : #ifdef _NOTUSE
; 90   : 		m_value        = 0;
; 91   : 		EncryptValueToPool((char*)&m_value);
; 92   : 		Debug();
; 93   : #endif
; 94   : 	}

  00098	c9		 leave
  00099	c3		 ret	 0
?Init@?$CEncrypt@H@@AAEXXZ ENDP				; CEncrypt<int>::Init
_TEXT	ENDS
PUBLIC	?DecryptValueToPool@?$CEncrypt@H@@QAEXPAH@Z	; CEncrypt<int>::DecryptValueToPool
; Function compile flags: /Ogsp
;	COMDAT ?DecryptValueToPool@?$CEncrypt@H@@QAEXPAH@Z
_TEXT	SEGMENT
_value$ = 8						; size = 4
?DecryptValueToPool@?$CEncrypt@H@@QAEXPAH@Z PROC	; CEncrypt<int>::DecryptValueToPool, COMDAT
; _this$ = ecx

; 837  : 	{

  00000	55		 push	 ebp
  00001	8b ec		 mov	 ebp, esp
  00003	56		 push	 esi

; 838  : 		m_RC5.DecryptByte( m_MemPool, m_TempMem, 4 );

  00004	8d 71 28	 lea	 esi, DWORD PTR [ecx+40]
  00007	6a 04		 push	 4
  00009	8d 41 1c	 lea	 eax, DWORD PTR [ecx+28]
  0000c	56		 push	 esi
  0000d	50		 push	 eax
  0000e	83 c1 0c	 add	 ecx, 12			; 0000000cH
  00011	e8 00 00 00 00	 call	 ?DecryptByte@ccddaabb@@QBEXPBDPADH@Z ; ccddaabb::DecryptByte

; 839  : 		*value = *((int*)m_TempMem);

  00016	8b 06		 mov	 eax, DWORD PTR [esi]
  00018	8b 4d 08	 mov	 ecx, DWORD PTR _value$[ebp]
  0001b	89 01		 mov	 DWORD PTR [ecx], eax
  0001d	5e		 pop	 esi

; 840  : 	}

  0001e	5d		 pop	 ebp
  0001f	c2 04 00	 ret	 4
?DecryptValueToPool@?$CEncrypt@H@@QAEXPAH@Z ENDP	; CEncrypt<int>::DecryptValueToPool
_TEXT	ENDS
PUBLIC	??0?$allocator@H@std@@QAE@ABV01@@Z		; std::allocator<int>::allocator<int>
; Function compile flags: /Ogsp
; File c:\program files (x86)\microsoft visual studio 10.0\vc\include\xmemory
;	COMDAT ??0?$allocator@H@std@@QAE@ABV01@@Z
_TEXT	SEGMENT
___formal$ = 8						; size = 4
??0?$allocator@H@std@@QAE@ABV01@@Z PROC			; std::allocator<int>::allocator<int>, COMDAT
; _this$ = ecx

; 165  : 	_ALLOCATOR(const _ALLOCATOR<_Ty>&) _THROW0()

  00000	8b c1		 mov	 eax, ecx

; 166  : 		{	// construct by copying (do nothing)
; 167  : 		}

  00002	c2 04 00	 ret	 4
??0?$allocator@H@std@@QAE@ABV01@@Z ENDP			; std::allocator<int>::allocator<int>
_TEXT	ENDS
PUBLIC	?deallocate@?$allocator@H@std@@QAEXPAHI@Z	; std::allocator<int>::deallocate
; Function compile flags: /Ogsp
;	COMDAT ?deallocate@?$allocator@H@std@@QAEXPAHI@Z
_TEXT	SEGMENT
__Ptr$ = 8						; size = 4
___formal$ = 12						; size = 4
?deallocate@?$allocator@H@std@@QAEXPAHI@Z PROC		; std::allocator<int>::deallocate, COMDAT
; _this$ = ecx

; 181  : 		{	// deallocate object at _Ptr, ignore size

  00000	55		 push	 ebp
  00001	8b ec		 mov	 ebp, esp

; 182  : 		::operator delete(_Ptr);

  00003	ff 75 08	 push	 DWORD PTR __Ptr$[ebp]
  00006	e8 00 00 00 00	 call	 ??3@YAXPAX@Z		; operator delete
  0000b	59		 pop	 ecx

; 183  : 		}

  0000c	5d		 pop	 ebp
  0000d	c2 08 00	 ret	 8
?deallocate@?$allocator@H@std@@QAEXPAHI@Z ENDP		; std::allocator<int>::deallocate
_TEXT	ENDS
PUBLIC	?capacity@?$vector@HV?$allocator@H@std@@@std@@QBEIXZ ; std::vector<int,std::allocator<int> >::capacity
; Function compile flags: /Ogsp
; File c:\program files (x86)\microsoft visual studio 10.0\vc\include\vector
;	COMDAT ?capacity@?$vector@HV?$allocator@H@std@@@std@@QBEIXZ
_TEXT	SEGMENT
?capacity@?$vector@HV?$allocator@H@std@@@std@@QBEIXZ PROC ; std::vector<int,std::allocator<int> >::capacity, COMDAT
; _this$ = ecx

; 777  : 		return (this->_Myend - this->_Myfirst);

  00000	8b 41 08	 mov	 eax, DWORD PTR [ecx+8]
  00003	2b 01		 sub	 eax, DWORD PTR [ecx]
  00005	c1 f8 02	 sar	 eax, 2

; 778  : 		}

  00008	c3		 ret	 0
?capacity@?$vector@HV?$allocator@H@std@@@std@@QBEIXZ ENDP ; std::vector<int,std::allocator<int> >::capacity
_TEXT	ENDS
PUBLIC	?_Xlen@?$vector@HV?$allocator@H@std@@@std@@IBEXXZ ; std::vector<int,std::allocator<int> >::_Xlen
; Function compile flags: /Ogsp
;	COMDAT ?_Xlen@?$vector@HV?$allocator@H@std@@@std@@IBEXXZ
_TEXT	SEGMENT
?_Xlen@?$vector@HV?$allocator@H@std@@@std@@IBEXXZ PROC	; std::vector<int,std::allocator<int> >::_Xlen, COMDAT
; _this$ = ecx

; 1427 : 		_Xlength_error("vector<T> too long");

  00000	68 00 00 00 00	 push	 OFFSET ??_C@_0BD@OLBABOEK@vector?$DMT?$DO?5too?5long?$AA@
  00005	ff 15 00 00 00
	00		 call	 DWORD PTR __imp_?_Xlength_error@std@@YAXPBD@Z
$LN4@Xlen@2:
$LN3@Xlen@2:
  0000b	cc		 int	 3
?_Xlen@?$vector@HV?$allocator@H@std@@@std@@IBEXXZ ENDP	; std::vector<int,std::allocator<int> >::_Xlen
_TEXT	ENDS
PUBLIC	?max_size@?$allocator@H@std@@QBEIXZ		; std::allocator<int>::max_size
; Function compile flags: /Ogsp
; File c:\program files (x86)\microsoft visual studio 10.0\vc\include\xmemory
;	COMDAT ?max_size@?$allocator@H@std@@QBEIXZ
_TEXT	SEGMENT
?max_size@?$allocator@H@std@@QBEIXZ PROC		; std::allocator<int>::max_size, COMDAT
; _this$ = ecx

; 218  : 		_SIZT _Count = (_SIZT)(-1) / sizeof (_Ty);
; 219  : 		return (0 < _Count ? _Count : 1);

  00000	b8 ff ff ff 3f	 mov	 eax, 1073741823		; 3fffffffH

; 220  : 		}

  00005	c3		 ret	 0
?max_size@?$allocator@H@std@@QBEIXZ ENDP		; std::allocator<int>::max_size
_TEXT	ENDS
PUBLIC	??$_Allocate@H@std@@YAPAHIPAH@Z			; std::_Allocate<int>
; Function compile flags: /Ogsp
;	COMDAT ??$_Allocate@H@std@@YAPAHIPAH@Z
_TEXT	SEGMENT
$T527446 = -12						; size = 12
$T527450 = 8						; size = 4
__Count$ = 8						; size = 4
___formal$ = 12						; size = 4
??$_Allocate@H@std@@YAPAHIPAH@Z PROC			; std::_Allocate<int>, COMDAT

; 30   : 	{	// allocate storage for _Count elements of type _Ty

  00000	55		 push	 ebp
  00001	8b ec		 mov	 ebp, esp

; 31   : 	void *_Ptr = 0;
; 32   : 
; 33   : 	if (_Count <= 0)

  00003	8b 4d 08	 mov	 ecx, DWORD PTR __Count$[ebp]
  00006	83 ec 0c	 sub	 esp, 12			; 0000000cH
  00009	33 c0		 xor	 eax, eax
  0000b	85 c9		 test	 ecx, ecx

; 34   : 		_Count = 0;
; 35   : 	else if (((_SIZT)(-1) / sizeof (_Ty) < _Count)

  0000d	74 3e		 je	 SHORT $LN5@Allocate@2

; 36   : 		|| (_Ptr = ::operator new(_Count * sizeof (_Ty))) == 0)

  0000f	81 f9 ff ff ff
	3f		 cmp	 ecx, 1073741823		; 3fffffffH
  00015	77 10		 ja	 SHORT $LN1@Allocate@2
  00017	8b c1		 mov	 eax, ecx
  00019	c1 e0 02	 shl	 eax, 2
  0001c	50		 push	 eax
  0001d	e8 00 00 00 00	 call	 ??2@YAPAXI@Z		; operator new
  00022	59		 pop	 ecx
  00023	85 c0		 test	 eax, eax

; 38   : 
; 39   : 	return ((_Ty _FARQ *)_Ptr);

  00025	75 26		 jne	 SHORT $LN5@Allocate@2
$LN1@Allocate@2:

; 37   : 		_THROW_NCEE(bad_alloc, 0);

  00027	83 65 08 00	 and	 DWORD PTR $T527450[ebp], 0
  0002b	8d 45 08	 lea	 eax, DWORD PTR $T527450[ebp]
  0002e	50		 push	 eax
  0002f	8d 4d f4	 lea	 ecx, DWORD PTR $T527446[ebp]
  00032	ff 15 00 00 00
	00		 call	 DWORD PTR __imp_??0exception@std@@QAE@ABQBD@Z
  00038	68 00 00 00 00	 push	 OFFSET __TI2?AVbad_alloc@std@@
  0003d	8d 45 f4	 lea	 eax, DWORD PTR $T527446[ebp]
  00040	50		 push	 eax
  00041	c7 45 f4 00 00
	00 00		 mov	 DWORD PTR $T527446[ebp], OFFSET ??_7bad_alloc@std@@6B@
  00048	e8 00 00 00 00	 call	 __CxxThrowException@8
$LN10@Allocate@2:
$LN5@Allocate@2:

; 40   : 	}

  0004d	c9		 leave
  0004e	c3		 ret	 0
$LN9@Allocate@2:
??$_Allocate@H@std@@YAPAHIPAH@Z ENDP			; std::_Allocate<int>
_TEXT	ENDS
EXTRN	__imp_??0exception@std@@QAE@ABV01@@Z:PROC
; Function compile flags: /Ogsp
;	COMDAT ??0bad_alloc@std@@QAE@ABV01@@Z
_TEXT	SEGMENT
___that$ = 8						; size = 4
??0bad_alloc@std@@QAE@ABV01@@Z PROC			; std::bad_alloc::bad_alloc, COMDAT
; _this$ = ecx
  00000	55		 push	 ebp
  00001	8b ec		 mov	 ebp, esp
  00003	56		 push	 esi
  00004	ff 75 08	 push	 DWORD PTR ___that$[ebp]
  00007	8b f1		 mov	 esi, ecx
  00009	ff 15 00 00 00
	00		 call	 DWORD PTR __imp_??0exception@std@@QAE@ABV01@@Z
  0000f	c7 06 00 00 00
	00		 mov	 DWORD PTR [esi], OFFSET ??_7bad_alloc@std@@6B@
  00015	8b c6		 mov	 eax, esi
  00017	5e		 pop	 esi
  00018	5d		 pop	 ebp
  00019	c2 04 00	 ret	 4
??0bad_alloc@std@@QAE@ABV01@@Z ENDP			; std::bad_alloc::bad_alloc
_TEXT	ENDS
PUBLIC	??$_Val_type@PAH@std@@YAPAHPAH@Z		; std::_Val_type<int *>
; Function compile flags: /Ogsp
; File c:\program files (x86)\microsoft visual studio 10.0\vc\include\xutility
;	COMDAT ??$_Val_type@PAH@std@@YAPAHPAH@Z
_TEXT	SEGMENT
___formal$ = 8						; size = 4
??$_Val_type@PAH@std@@YAPAHPAH@Z PROC			; std::_Val_type<int *>, COMDAT

; 790  : 	return (0);

  00000	33 c0		 xor	 eax, eax

; 791  : 	}

  00002	c3		 ret	 0
??$_Val_type@PAH@std@@YAPAHPAH@Z ENDP			; std::_Val_type<int *>
_TEXT	ENDS
PUBLIC	??$_Ptr_cat@HH@std@@YA?AU_Scalar_ptr_iterator_tag@0@PAH0@Z ; std::_Ptr_cat<int,int>
; Function compile flags: /Ogsp
;	COMDAT ??$_Ptr_cat@HH@std@@YA?AU_Scalar_ptr_iterator_tag@0@PAH0@Z
_TEXT	SEGMENT
__Cat$ = -1						; size = 1
___formal$ = 8						; size = 4
___formal$ = 12						; size = 4
??$_Ptr_cat@HH@std@@YA?AU_Scalar_ptr_iterator_tag@0@PAH0@Z PROC ; std::_Ptr_cat<int,int>, COMDAT

; 516  : 	{	// return pointer category from pointers

  00000	55		 push	 ebp
  00001	8b ec		 mov	 ebp, esp
  00003	51		 push	 ecx

; 517  : 	typename _Ptr_cat_helper<_Elem1, _Elem2>::_Type _Cat;
; 518  : 	return (_Cat);

  00004	8a 45 ff	 mov	 al, BYTE PTR __Cat$[ebp]

; 519  : 	}

  00007	c9		 leave
  00008	c3		 ret	 0
??$_Ptr_cat@HH@std@@YA?AU_Scalar_ptr_iterator_tag@0@PAH0@Z ENDP ; std::_Ptr_cat<int,int>
_TEXT	ENDS
PUBLIC	??$_Destroy_range@V?$allocator@H@std@@@std@@YAXPAH0AAV?$allocator@H@0@U_Scalar_ptr_iterator_tag@0@@Z ; std::_Destroy_range<std::allocator<int> >
; Function compile flags: /Ogsp
; File c:\program files (x86)\microsoft visual studio 10.0\vc\include\xmemory
;	COMDAT ??$_Destroy_range@V?$allocator@H@std@@@std@@YAXPAH0AAV?$allocator@H@0@U_Scalar_ptr_iterator_tag@0@@Z
_TEXT	SEGMENT
__First$ = 8						; size = 4
__Last$ = 12						; size = 4
__Al$ = 16						; size = 4
___formal$ = 20						; size = 1
??$_Destroy_range@V?$allocator@H@std@@@std@@YAXPAH0AAV?$allocator@H@0@U_Scalar_ptr_iterator_tag@0@@Z PROC ; std::_Destroy_range<std::allocator<int> >, COMDAT

; 105  : 	}

  00000	c3		 ret	 0
??$_Destroy_range@V?$allocator@H@std@@@std@@YAXPAH0AAV?$allocator@H@0@U_Scalar_ptr_iterator_tag@0@@Z ENDP ; std::_Destroy_range<std::allocator<int> >
_TEXT	ENDS
PUBLIC	??$_Uninit_move@HHH@std@@YAPAHPAH00AAV?$allocator@H@0@0U_Scalar_ptr_iterator_tag@0@@Z ; std::_Uninit_move<int,int,int>
EXTRN	__imp__memmove:PROC
; Function compile flags: /Ogsp
; File c:\program files (x86)\microsoft visual studio 10.0\vc\include\memory
;	COMDAT ??$_Uninit_move@HHH@std@@YAPAHPAH00AAV?$allocator@H@0@0U_Scalar_ptr_iterator_tag@0@@Z
_TEXT	SEGMENT
__First$ = 8						; size = 4
__Last$ = 12						; size = 4
__Dest$ = 16						; size = 4
___formal$ = 20						; size = 4
___formal$ = 24						; size = 4
___formal$ = 28						; size = 1
??$_Uninit_move@HHH@std@@YAPAHPAH00AAV?$allocator@H@0@0U_Scalar_ptr_iterator_tag@0@@Z PROC ; std::_Uninit_move<int,int,int>, COMDAT

; 456  : 	{	// move [_First, _Last) to raw _Dest, scalar type

  00000	55		 push	 ebp
  00001	8b ec		 mov	 ebp, esp
  00003	56		 push	 esi

; 457  : 	_DEBUG_RANGE(_First, _Last);
; 458  : 	_DEBUG_POINTER(_Dest);
; 459  : 	size_t _Count = (size_t)(_Last - _First);

  00004	8b 75 0c	 mov	 esi, DWORD PTR __Last$[ebp]
  00007	2b 75 08	 sub	 esi, DWORD PTR __First$[ebp]
  0000a	c1 fe 02	 sar	 esi, 2

; 460  : 	return ((_Ty2 *)_CSTD memmove(&*_Dest, &*_First,
; 461  : 		_Count * sizeof (*_First)) + _Count);	// NB: non-overlapping move

  0000d	c1 e6 02	 shl	 esi, 2
  00010	56		 push	 esi
  00011	ff 75 08	 push	 DWORD PTR __First$[ebp]
  00014	ff 75 10	 push	 DWORD PTR __Dest$[ebp]
  00017	ff 15 00 00 00
	00		 call	 DWORD PTR __imp__memmove
  0001d	83 c4 0c	 add	 esp, 12			; 0000000cH
  00020	03 c6		 add	 eax, esi
  00022	5e		 pop	 esi

; 462  : 	}

  00023	5d		 pop	 ebp
  00024	c3		 ret	 0
??$_Uninit_move@HHH@std@@YAPAHPAH00AAV?$allocator@H@0@0U_Scalar_ptr_iterator_tag@0@@Z ENDP ; std::_Uninit_move<int,int,int>
_TEXT	ENDS
PUBLIC	??$forward@H@std@@YA$$QAHAAH@Z			; std::forward<int>
; Function compile flags: /Ogsp
; File c:\program files (x86)\microsoft visual studio 10.0\vc\include\utility
;	COMDAT ??$forward@H@std@@YA$$QAHAAH@Z
_TEXT	SEGMENT
__Arg$ = 8						; size = 4
??$forward@H@std@@YA$$QAHAAH@Z PROC			; std::forward<int>, COMDAT

; 78   : 	{	// forward _Arg, given explicitly specified type parameter

  00000	55		 push	 ebp
  00001	8b ec		 mov	 ebp, esp

; 79   : 	return ((_Ty&&)_Arg);

  00003	8b 45 08	 mov	 eax, DWORD PTR __Arg$[ebp]

; 80   : 	}

  00006	5d		 pop	 ebp
  00007	c3		 ret	 0
??$forward@H@std@@YA$$QAHAAH@Z ENDP			; std::forward<int>
_TEXT	ENDS
PUBLIC	??_R0?AVioBaseChar@@@8				; ioBaseChar `RTTI Type Descriptor'
PUBLIC	?ToBaseChar@@YAPAVioBaseChar@@PAVioGameEntity@@@Z ; ToBaseChar
;	COMDAT ??_R0?AVioBaseChar@@@8
; File d:\lost saga for developer\youtube\tutorial\source\src\lsclient\iobasechar.h
_DATA	SEGMENT
??_R0?AVioBaseChar@@@8 DD FLAT:??_7type_info@@6B@	; ioBaseChar `RTTI Type Descriptor'
	DD	00H
	DB	'.?AVioBaseChar@@', 00H
; Function compile flags: /Ogsp
_DATA	ENDS
;	COMDAT ?ToBaseChar@@YAPAVioBaseChar@@PAVioGameEntity@@@Z
_TEXT	SEGMENT
_pObj$ = 8						; size = 4
?ToBaseChar@@YAPAVioBaseChar@@PAVioGameEntity@@@Z PROC	; ToBaseChar, COMDAT

; 4326 : {

  00000	55		 push	 ebp
  00001	8b ec		 mov	 ebp, esp
  00003	56		 push	 esi

; 4327 : 	ioPlayEntity *pPlay = ToPlayEntity( pObj );

  00004	ff 75 08	 push	 DWORD PTR _pObj$[ebp]
  00007	e8 00 00 00 00	 call	 ?ToPlayEntity@@YAPAVioPlayEntity@@PAVioGameEntity@@@Z ; ToPlayEntity
  0000c	8b f0		 mov	 esi, eax
  0000e	59		 pop	 ecx

; 4328 : 	if( !pPlay || pPlay->GetSubType() != ioPlayEntity::PST_CHAR )

  0000f	85 f6		 test	 esi, esi
  00011	74 25		 je	 SHORT $LN1@ToBaseChar
  00013	8b 06		 mov	 eax, DWORD PTR [esi]
  00015	8b ce		 mov	 ecx, esi
  00017	ff 90 a4 00 00
	00		 call	 DWORD PTR [eax+164]
  0001d	85 c0		 test	 eax, eax
  0001f	75 17		 jne	 SHORT $LN1@ToBaseChar

; 4330 : 
; 4331 : 	return dynamic_cast< ioBaseChar* >( pPlay );

  00021	50		 push	 eax
  00022	68 00 00 00 00	 push	 OFFSET ??_R0?AVioBaseChar@@@8
  00027	68 00 00 00 00	 push	 OFFSET ??_R0?AVioPlayEntity@@@8
  0002c	50		 push	 eax
  0002d	56		 push	 esi
  0002e	e8 00 00 00 00	 call	 ___RTDynamicCast
  00033	83 c4 14	 add	 esp, 20			; 00000014H
  00036	eb 02		 jmp	 SHORT $LN3@ToBaseChar
$LN1@ToBaseChar:

; 4329 : 		return NULL;

  00038	33 c0		 xor	 eax, eax
$LN3@ToBaseChar:
  0003a	5e		 pop	 esi

; 4332 : }

  0003b	5d		 pop	 ebp
  0003c	c3		 ret	 0
?ToBaseChar@@YAPAVioBaseChar@@PAVioGameEntity@@@Z ENDP	; ToBaseChar
_TEXT	ENDS
PUBLIC	__$ArrayPad$
PUBLIC	?SetMoveDir@ioChainWeapon@@UAEXABUD3DXVECTOR3@@@Z ; ioChainWeapon::SetMoveDir
EXTRN	?SetOrientation@ioWeapon@@QAEXABUD3DXQUATERNION@@@Z:PROC ; ioWeapon::SetOrientation
EXTRN	__imp_?CalcDirectionQuaternion@ioMath@@SAXAAUD3DXQUATERNION@@ABUD3DXVECTOR3@@@Z:PROC
EXTRN	___security_cookie:DWORD
EXTRN	@__security_check_cookie@4:PROC
; Function compile flags: /Ogsp
; File d:\lost saga for developer\youtube\tutorial\source\src\lsclient\iochainweapon.cpp
;	COMDAT ?SetMoveDir@ioChainWeapon@@UAEXABUD3DXVECTOR3@@@Z
_TEXT	SEGMENT
_qtRot$ = -32						; size = 16
$T524699 = -16						; size = 12
__$ArrayPad$ = -4					; size = 4
_vDir$ = 8						; size = 4
?SetMoveDir@ioChainWeapon@@UAEXABUD3DXVECTOR3@@@Z PROC	; ioChainWeapon::SetMoveDir, COMDAT
; _this$ = ecx

; 145  : {

  00000	55		 push	 ebp
  00001	8b ec		 mov	 ebp, esp
  00003	83 ec 20	 sub	 esp, 32			; 00000020H
  00006	a1 00 00 00 00	 mov	 eax, DWORD PTR ___security_cookie
  0000b	33 c5		 xor	 eax, ebp
  0000d	89 45 fc	 mov	 DWORD PTR __$ArrayPad$[ebp], eax
  00010	8b 45 08	 mov	 eax, DWORD PTR _vDir$[ebp]
  00013	53		 push	 ebx
  00014	56		 push	 esi
  00015	57		 push	 edi
  00016	8b d9		 mov	 ebx, ecx

; 146  : 	m_vMoveDir = vDir;

  00018	8b f0		 mov	 esi, eax
  0001a	8d bb ac 08 00
	00		 lea	 edi, DWORD PTR [ebx+2220]
  00020	a5		 movsd
  00021	a5		 movsd
  00022	a5		 movsd

; 147  : 
; 148  : 	D3DXQUATERNION qtRot;
; 149  : 	ioMath::CalcDirectionQuaternion( qtRot, -vDir );

  00023	f3 0f 10 08	 movss	 xmm1, DWORD PTR [eax]
  00027	f3 0f 10 05 00
	00 00 00	 movss	 xmm0, DWORD PTR __mask@@NegFloat@
  0002f	0f 57 c8	 xorps	 xmm1, xmm0
  00032	f3 0f 11 4d f0	 movss	 DWORD PTR $T524699[ebp], xmm1
  00037	f3 0f 10 48 04	 movss	 xmm1, DWORD PTR [eax+4]
  0003c	0f 57 c8	 xorps	 xmm1, xmm0
  0003f	f3 0f 11 4d f4	 movss	 DWORD PTR $T524699[ebp+4], xmm1
  00044	f3 0f 10 48 08	 movss	 xmm1, DWORD PTR [eax+8]
  00049	8d 45 f0	 lea	 eax, DWORD PTR $T524699[ebp]
  0004c	50		 push	 eax
  0004d	8d 45 e0	 lea	 eax, DWORD PTR _qtRot$[ebp]
  00050	0f 57 c8	 xorps	 xmm1, xmm0
  00053	50		 push	 eax
  00054	f3 0f 11 4d f8	 movss	 DWORD PTR $T524699[ebp+8], xmm1
  00059	ff 15 00 00 00
	00		 call	 DWORD PTR __imp_?CalcDirectionQuaternion@ioMath@@SAXAAUD3DXQUATERNION@@ABUD3DXVECTOR3@@@Z
  0005f	59		 pop	 ecx
  00060	59		 pop	 ecx

; 150  : 	SetOrientation( qtRot );

  00061	8d 45 e0	 lea	 eax, DWORD PTR _qtRot$[ebp]
  00064	50		 push	 eax
  00065	8b cb		 mov	 ecx, ebx
  00067	e8 00 00 00 00	 call	 ?SetOrientation@ioWeapon@@QAEXABUD3DXQUATERNION@@@Z ; ioWeapon::SetOrientation

; 151  : }

  0006c	8b 4d fc	 mov	 ecx, DWORD PTR __$ArrayPad$[ebp]
  0006f	5f		 pop	 edi
  00070	5e		 pop	 esi
  00071	33 cd		 xor	 ecx, ebp
  00073	5b		 pop	 ebx
  00074	e8 00 00 00 00	 call	 @__security_check_cookie@4
  00079	c9		 leave
  0007a	c2 04 00	 ret	 4
?SetMoveDir@ioChainWeapon@@UAEXABUD3DXVECTOR3@@@Z ENDP	; ioChainWeapon::SetMoveDir
_TEXT	ENDS
PUBLIC	?UpdateWorldAttackBox@ioChainWeapon@@MAEXM_N@Z	; ioChainWeapon::UpdateWorldAttackBox
EXTRN	__imp_?SetNull@ioOrientBox@@QAEXXZ:PROC
EXTRN	__imp_?Transform@ioOrientBox@@QAEXABUD3DXVECTOR3@@0ABUD3DXQUATERNION@@@Z:PROC
EXTRN	?GetScale@ioWeapon@@QBEABUD3DXVECTOR3@@XZ:PROC	; ioWeapon::GetScale
EXTRN	__imp_?IsNull@ioOrientBox@@QBE_NXZ:PROC
EXTRN	__imp_?SetExtents@ioOrientBox@@QAEXHM@Z:PROC
EXTRN	__imp_?GetExtents@ioOrientBox@@QBEMH@Z:PROC
; Function compile flags: /Ogsp
;	COMDAT ?UpdateWorldAttackBox@ioChainWeapon@@MAEXM_N@Z
_TEXT	SEGMENT
tv359 = -8						; size = 4
tv365 = -4						; size = 4
tv341 = -4						; size = 4
_fTimePerSec$ = 8					; size = 4
tv351 = 12						; size = 4
_fMapCollisionRate$ = 12				; size = 4
_bSetNull$ = 12						; size = 1
?UpdateWorldAttackBox@ioChainWeapon@@MAEXM_N@Z PROC	; ioChainWeapon::UpdateWorldAttackBox, COMDAT
; _this$ = ecx

; 305  : {

  00000	55		 push	 ebp
  00001	8b ec		 mov	 ebp, esp
  00003	51		 push	 ecx
  00004	51		 push	 ecx
  00005	53		 push	 ebx
  00006	8b d9		 mov	 ebx, ecx

; 306  : 	if( !IsLive() || bSetNull )

  00008	80 bb 82 05 00
	00 00		 cmp	 BYTE PTR [ebx+1410], 0
  0000f	56		 push	 esi
  00010	57		 push	 edi
  00011	0f 84 0c 01 00
	00		 je	 $LN2@UpdateWorl
  00017	80 7d 0c 00	 cmp	 BYTE PTR _bSetNull$[ebp], 0
  0001b	0f 85 02 01 00
	00		 jne	 $LN2@UpdateWorl

; 310  : 		return;
; 311  : 	}
; 312  : 
; 313  : 	m_WorldAttackBox = GetLocalAttackBox();

  00021	8b 03		 mov	 eax, DWORD PTR [ebx]
  00023	ff 90 00 01 00
	00		 call	 DWORD PTR [eax+256]
  00029	6a 11		 push	 17			; 00000011H
  0002b	8b f0		 mov	 esi, eax

; 314  : 
; 315  : 	float fMapCollisionRate = GetAttribute()->m_fMapCollisionBoxRate;

  0002d	8b 03		 mov	 eax, DWORD PTR [ebx]
  0002f	59		 pop	 ecx
  00030	8d bb e8 04 00
	00		 lea	 edi, DWORD PTR [ebx+1256]
  00036	f3 a5		 rep movsd
  00038	8b cb		 mov	 ecx, ebx
  0003a	ff 90 3c 01 00
	00		 call	 DWORD PTR [eax+316]

; 316  : 	m_WorldAttackBoxForMap = m_WorldAttackBox;

  00040	6a 11		 push	 17			; 00000011H
  00042	d9 80 a8 01 00
	00		 fld	 DWORD PTR [eax+424]
  00048	59		 pop	 ecx
  00049	8d bb 2c 05 00
	00		 lea	 edi, DWORD PTR [ebx+1324]
  0004f	d9 5d 0c	 fstp	 DWORD PTR _fMapCollisionRate$[ebp]
  00052	8d b3 e8 04 00
	00		 lea	 esi, DWORD PTR [ebx+1256]
  00058	f3 a5		 rep movsd

; 317  : 	m_WorldAttackBoxForMap.SetExtents( 0, m_WorldAttackBox.GetExtents(0)*fMapCollisionRate );

  0005a	6a 00		 push	 0
  0005c	8d 8b e8 04 00
	00		 lea	 ecx, DWORD PTR [ebx+1256]
  00062	ff 15 00 00 00
	00		 call	 DWORD PTR __imp_?GetExtents@ioOrientBox@@QBEMH@Z
  00068	8b 35 00 00 00
	00		 mov	 esi, DWORD PTR __imp_?SetExtents@ioOrientBox@@QAEXHM@Z
  0006e	d8 4d 0c	 fmul	 DWORD PTR _fMapCollisionRate$[ebp]
  00071	51		 push	 ecx
  00072	8d 8b 2c 05 00
	00		 lea	 ecx, DWORD PTR [ebx+1324]
  00078	d9 5d fc	 fstp	 DWORD PTR tv365[ebp]
  0007b	d9 45 fc	 fld	 DWORD PTR tv365[ebp]
  0007e	89 4d fc	 mov	 DWORD PTR tv341[ebp], ecx
  00081	d9 1c 24	 fstp	 DWORD PTR [esp]
  00084	6a 00		 push	 0
  00086	ff d6		 call	 esi

; 318  : 	m_WorldAttackBoxForMap.SetExtents( 1, m_WorldAttackBox.GetExtents(1)*fMapCollisionRate );

  00088	6a 01		 push	 1
  0008a	8d 8b e8 04 00
	00		 lea	 ecx, DWORD PTR [ebx+1256]
  00090	ff 15 00 00 00
	00		 call	 DWORD PTR __imp_?GetExtents@ioOrientBox@@QBEMH@Z
  00096	d8 4d 0c	 fmul	 DWORD PTR _fMapCollisionRate$[ebp]
  00099	51		 push	 ecx
  0009a	8b 4d fc	 mov	 ecx, DWORD PTR tv341[ebp]
  0009d	d9 5d f8	 fstp	 DWORD PTR tv359[ebp]
  000a0	d9 45 f8	 fld	 DWORD PTR tv359[ebp]
  000a3	d9 1c 24	 fstp	 DWORD PTR [esp]
  000a6	6a 01		 push	 1
  000a8	ff d6		 call	 esi

; 319  : 	m_WorldAttackBoxForMap.SetExtents( 2, m_WorldAttackBox.GetExtents(2)*fMapCollisionRate );

  000aa	6a 02		 push	 2
  000ac	8d 8b e8 04 00
	00		 lea	 ecx, DWORD PTR [ebx+1256]
  000b2	ff 15 00 00 00
	00		 call	 DWORD PTR __imp_?GetExtents@ioOrientBox@@QBEMH@Z
  000b8	d8 4d 0c	 fmul	 DWORD PTR _fMapCollisionRate$[ebp]
  000bb	51		 push	 ecx
  000bc	8b 4d fc	 mov	 ecx, DWORD PTR tv341[ebp]
  000bf	d9 5d 0c	 fstp	 DWORD PTR tv351[ebp]
  000c2	d9 45 0c	 fld	 DWORD PTR tv351[ebp]
  000c5	d9 1c 24	 fstp	 DWORD PTR [esp]
  000c8	6a 02		 push	 2
  000ca	ff d6		 call	 esi

; 320  : 
; 321  : 	if( !m_WorldAttackBox.IsNull() )

  000cc	8d 8b e8 04 00
	00		 lea	 ecx, DWORD PTR [ebx+1256]
  000d2	ff 15 00 00 00
	00		 call	 DWORD PTR __imp_?IsNull@ioOrientBox@@QBE_NXZ
  000d8	84 c0		 test	 al, al
  000da	75 5d		 jne	 SHORT $LN1@UpdateWorl

; 322  : 	{
; 323  : 		m_WorldAttackBox.Transform( GetPosition(),
; 324  : 									GetScale(),
; 325  : 									GetParentSceneNode()->GetDerivedOrientation() );

  000dc	8b 4b 04	 mov	 ecx, DWORD PTR [ebx+4]
  000df	8b 01		 mov	 eax, DWORD PTR [ecx]
  000e1	ff 50 78	 call	 DWORD PTR [eax+120]
  000e4	50		 push	 eax
  000e5	8b cb		 mov	 ecx, ebx
  000e7	e8 00 00 00 00	 call	 ?GetScale@ioWeapon@@QBEABUD3DXVECTOR3@@XZ ; ioWeapon::GetScale
  000ec	50		 push	 eax
  000ed	8b 03		 mov	 eax, DWORD PTR [ebx]
  000ef	8b cb		 mov	 ecx, ebx
  000f1	ff 50 70	 call	 DWORD PTR [eax+112]
  000f4	8b 35 00 00 00
	00		 mov	 esi, DWORD PTR __imp_?Transform@ioOrientBox@@QAEXABUD3DXVECTOR3@@0ABUD3DXQUATERNION@@@Z
  000fa	50		 push	 eax
  000fb	8d 8b e8 04 00
	00		 lea	 ecx, DWORD PTR [ebx+1256]
  00101	ff d6		 call	 esi

; 326  : 
; 327  : 		m_WorldAttackBoxForMap.Transform( GetPosition(),
; 328  : 										  GetScale(),
; 329  : 										  GetParentSceneNode()->GetDerivedOrientation() );

  00103	8b 4b 04	 mov	 ecx, DWORD PTR [ebx+4]
  00106	8b 01		 mov	 eax, DWORD PTR [ecx]
  00108	ff 50 78	 call	 DWORD PTR [eax+120]
  0010b	50		 push	 eax
  0010c	8b cb		 mov	 ecx, ebx
  0010e	e8 00 00 00 00	 call	 ?GetScale@ioWeapon@@QBEABUD3DXVECTOR3@@XZ ; ioWeapon::GetScale
  00113	50		 push	 eax
  00114	8b 03		 mov	 eax, DWORD PTR [ebx]
  00116	8b cb		 mov	 ecx, ebx
  00118	ff 50 70	 call	 DWORD PTR [eax+112]
  0011b	8b 4d fc	 mov	 ecx, DWORD PTR tv341[ebp]
  0011e	50		 push	 eax
  0011f	ff d6		 call	 esi
  00121	eb 16		 jmp	 SHORT $LN1@UpdateWorl
$LN2@UpdateWorl:

; 307  : 	{
; 308  : 		m_WorldAttackBox.SetNull();

  00123	8b 35 00 00 00
	00		 mov	 esi, DWORD PTR __imp_?SetNull@ioOrientBox@@QAEXXZ
  00129	8d 8b e8 04 00
	00		 lea	 ecx, DWORD PTR [ebx+1256]
  0012f	ff d6		 call	 esi

; 309  : 		m_WorldAttackBoxForMap.SetNull();

  00131	8d 8b 2c 05 00
	00		 lea	 ecx, DWORD PTR [ebx+1324]
  00137	ff d6		 call	 esi
$LN1@UpdateWorl:
  00139	5f		 pop	 edi
  0013a	5e		 pop	 esi
  0013b	5b		 pop	 ebx

; 330  : 	}
; 331  : }

  0013c	c9		 leave
  0013d	c2 08 00	 ret	 8
?UpdateWorldAttackBox@ioChainWeapon@@MAEXM_N@Z ENDP	; ioChainWeapon::UpdateWorldAttackBox
_TEXT	ENDS
PUBLIC	?CheckCollisionLine@ioChainWeapon@@IAE_NPAVioPlayEntity@@ABUD3DXVECTOR3@@@Z ; ioChainWeapon::CheckCollisionLine
EXTRN	?CheckCollisionLine@ioBaseChar@@QAE_NABUD3DXVECTOR3@@0_N@Z:PROC ; ioBaseChar::CheckCollisionLine
EXTRN	?GetOwner@ioWeapon@@QBEPAVioBaseChar@@XZ:PROC	; ioWeapon::GetOwner
; Function compile flags: /Ogsp
;	COMDAT ?CheckCollisionLine@ioChainWeapon@@IAE_NPAVioPlayEntity@@ABUD3DXVECTOR3@@@Z
_TEXT	SEGMENT
_pTarget$ = 8						; size = 4
_vColPoint$ = 12					; size = 4
?CheckCollisionLine@ioChainWeapon@@IAE_NPAVioPlayEntity@@ABUD3DXVECTOR3@@@Z PROC ; ioChainWeapon::CheckCollisionLine, COMDAT
; _this$ = ecx

; 383  : {

  00000	55		 push	 ebp
  00001	8b ec		 mov	 ebp, esp
  00003	56		 push	 esi

; 384  : 	//     
; 385  : 	ioBaseChar *pTargetChar = ToBaseChar( pTarget );

  00004	ff 75 08	 push	 DWORD PTR _pTarget$[ebp]
  00007	8b f1		 mov	 esi, ecx
  00009	e8 00 00 00 00	 call	 ?ToBaseChar@@YAPAVioBaseChar@@PAVioGameEntity@@@Z ; ToBaseChar
  0000e	59		 pop	 ecx

; 386  : 	if( !pTargetChar )	return true;

  0000f	85 c0		 test	 eax, eax
  00011	75 04		 jne	 SHORT $LN2@CheckColli
  00013	b0 01		 mov	 al, 1
  00015	eb 22		 jmp	 SHORT $LN3@CheckColli
$LN2@CheckColli:

; 387  : 
; 388  : 	ioBaseChar *pOwner = GetOwner();

  00017	8b ce		 mov	 ecx, esi
  00019	e8 00 00 00 00	 call	 ?GetOwner@ioWeapon@@QBEPAVioBaseChar@@XZ ; ioWeapon::GetOwner

; 389  : 	if( pOwner )

  0001e	85 c0		 test	 eax, eax
  00020	74 15		 je	 SHORT $LN1@CheckColli

; 390  : 		return pOwner->CheckCollisionLine( m_StartPos, vColPoint );

  00022	6a 01		 push	 1
  00024	ff 75 0c	 push	 DWORD PTR _vColPoint$[ebp]
  00027	81 c6 a0 08 00
	00		 add	 esi, 2208		; 000008a0H
  0002d	56		 push	 esi
  0002e	8b c8		 mov	 ecx, eax
  00030	e8 00 00 00 00	 call	 ?CheckCollisionLine@ioBaseChar@@QAE_NABUD3DXVECTOR3@@0_N@Z ; ioBaseChar::CheckCollisionLine
  00035	eb 02		 jmp	 SHORT $LN3@CheckColli
$LN1@CheckColli:

; 391  : 
; 392  : 	return false;	//     

  00037	32 c0		 xor	 al, al
$LN3@CheckColli:
  00039	5e		 pop	 esi

; 393  : }

  0003a	5d		 pop	 ebp
  0003b	c2 08 00	 ret	 8
?CheckCollisionLine@ioChainWeapon@@IAE_NPAVioPlayEntity@@ABUD3DXVECTOR3@@@Z ENDP ; ioChainWeapon::CheckCollisionLine
_TEXT	ENDS
PUBLIC	??H?$CEncrypt@H@@QAEHABH@Z			; CEncrypt<int>::operator+
; Function compile flags: /Ogsp
; File d:\lost saga for developer\youtube\tutorial\source\src\lsclient\encryptvalue.h
;	COMDAT ??H?$CEncrypt@H@@QAEHABH@Z
_TEXT	SEGMENT
_value$ = -4						; size = 4
_inValue$ = 8						; size = 4
??H?$CEncrypt@H@@QAEHABH@Z PROC				; CEncrypt<int>::operator+, COMDAT
; _this$ = ecx

; 864  : 	{

  00000	55		 push	 ebp
  00001	8b ec		 mov	 ebp, esp
  00003	51		 push	 ecx

; 865  : 		type value;
; 866  : 		DecryptValueToPool(&value);

  00004	8d 45 fc	 lea	 eax, DWORD PTR _value$[ebp]
  00007	50		 push	 eax
  00008	e8 00 00 00 00	 call	 ?DecryptValueToPool@?$CEncrypt@H@@QAEXPAH@Z ; CEncrypt<int>::DecryptValueToPool

; 867  : #ifdef _NOTUSE
; 868  : 		Debug();
; 869  : #endif
; 870  : 		return value + inValue;

  0000d	8b 45 08	 mov	 eax, DWORD PTR _inValue$[ebp]
  00010	8b 00		 mov	 eax, DWORD PTR [eax]
  00012	03 45 fc	 add	 eax, DWORD PTR _value$[ebp]

; 871  : 	}

  00015	c9		 leave
  00016	c2 04 00	 ret	 4
??H?$CEncrypt@H@@QAEHABH@Z ENDP				; CEncrypt<int>::operator+
_TEXT	ENDS
PUBLIC	??8?$CEncrypt@H@@QAE_NABH@Z			; CEncrypt<int>::operator==
; Function compile flags: /Ogsp
;	COMDAT ??8?$CEncrypt@H@@QAE_NABH@Z
_TEXT	SEGMENT
_value$ = -4						; size = 4
_inValue$ = 8						; size = 4
??8?$CEncrypt@H@@QAE_NABH@Z PROC			; CEncrypt<int>::operator==, COMDAT
; _this$ = ecx

; 976  : 	{

  00000	55		 push	 ebp
  00001	8b ec		 mov	 ebp, esp
  00003	51		 push	 ecx

; 977  : 		
; 978  : 		type value;
; 979  : 		DecryptValueToPool(&value);

  00004	8d 45 fc	 lea	 eax, DWORD PTR _value$[ebp]
  00007	50		 push	 eax
  00008	e8 00 00 00 00	 call	 ?DecryptValueToPool@?$CEncrypt@H@@QAEXPAH@Z ; CEncrypt<int>::DecryptValueToPool

; 980  : #ifdef _NOTUSE
; 981  : 		Debug();
; 982  : #endif
; 983  : 		return (value == inValue);

  0000d	8b 4d 08	 mov	 ecx, DWORD PTR _inValue$[ebp]
  00010	8b 55 fc	 mov	 edx, DWORD PTR _value$[ebp]
  00013	33 c0		 xor	 eax, eax
  00015	3b 11		 cmp	 edx, DWORD PTR [ecx]
  00017	0f 94 c0	 sete	 al

; 984  : 	} 

  0001a	c9		 leave
  0001b	c2 04 00	 ret	 4
??8?$CEncrypt@H@@QAE_NABH@Z ENDP			; CEncrypt<int>::operator==
_TEXT	ENDS
PUBLIC	??N?$CEncrypt@H@@QAE_NABH@Z			; CEncrypt<int>::operator<=
; Function compile flags: /Ogsp
;	COMDAT ??N?$CEncrypt@H@@QAE_NABH@Z
_TEXT	SEGMENT
_value$ = -4						; size = 4
_inValue$ = 8						; size = 4
??N?$CEncrypt@H@@QAE_NABH@Z PROC			; CEncrypt<int>::operator<=, COMDAT
; _this$ = ecx

; 1020 : 	{

  00000	55		 push	 ebp
  00001	8b ec		 mov	 ebp, esp
  00003	51		 push	 ecx

; 1021 : 		
; 1022 : 		type value;
; 1023 : 		DecryptValueToPool(&value);

  00004	8d 45 fc	 lea	 eax, DWORD PTR _value$[ebp]
  00007	50		 push	 eax
  00008	e8 00 00 00 00	 call	 ?DecryptValueToPool@?$CEncrypt@H@@QAEXPAH@Z ; CEncrypt<int>::DecryptValueToPool

; 1024 : #ifdef _NOTUSE
; 1025 : 		Debug();
; 1026 : #endif
; 1027 : 		return (value <= inValue);

  0000d	8b 4d 08	 mov	 ecx, DWORD PTR _inValue$[ebp]
  00010	8b 55 fc	 mov	 edx, DWORD PTR _value$[ebp]
  00013	33 c0		 xor	 eax, eax
  00015	3b 11		 cmp	 edx, DWORD PTR [ecx]
  00017	0f 9e c0	 setle	 al

; 1028 : 	}		

  0001a	c9		 leave
  0001b	c2 04 00	 ret	 4
??N?$CEncrypt@H@@QAE_NABH@Z ENDP			; CEncrypt<int>::operator<=
_TEXT	ENDS
PUBLIC	?max_size@?$vector@UChainInfo@ioChainWeapon@@V?$allocator@UChainInfo@ioChainWeapon@@@std@@@std@@QBEIXZ ; std::vector<ioChainWeapon::ChainInfo,std::allocator<ioChainWeapon::ChainInfo> >::max_size
; Function compile flags: /Ogsp
; File c:\program files (x86)\microsoft visual studio 10.0\vc\include\vector
;	COMDAT ?max_size@?$vector@UChainInfo@ioChainWeapon@@V?$allocator@UChainInfo@ioChainWeapon@@@std@@@std@@QBEIXZ
_TEXT	SEGMENT
?max_size@?$vector@UChainInfo@ioChainWeapon@@V?$allocator@UChainInfo@ioChainWeapon@@@std@@@std@@QBEIXZ PROC ; std::vector<ioChainWeapon::ChainInfo,std::allocator<ioChainWeapon::ChainInfo> >::max_size, COMDAT
; _this$ = ecx

; 884  : 		return (this->_Alval.max_size());

  00000	b8 ff ff ff 1f	 mov	 eax, 536870911		; 1fffffffH

; 885  : 		}

  00005	c3		 ret	 0
?max_size@?$vector@UChainInfo@ioChainWeapon@@V?$allocator@UChainInfo@ioChainWeapon@@@std@@@std@@QBEIXZ ENDP ; std::vector<ioChainWeapon::ChainInfo,std::allocator<ioChainWeapon::ChainInfo> >::max_size
_TEXT	ENDS
PUBLIC	??0?$_Vector_val@UChainInfo@ioChainWeapon@@V?$allocator@UChainInfo@ioChainWeapon@@@std@@@std@@QAE@V?$allocator@UChainInfo@ioChainWeapon@@@1@@Z ; std::_Vector_val<ioChainWeapon::ChainInfo,std::allocator<ioChainWeapon::ChainInfo> >::_Vector_val<ioChainWeapon::ChainInfo,std::allocator<ioChainWeapon::ChainInfo> >
; Function compile flags: /Ogsp
;	COMDAT ??0?$_Vector_val@UChainInfo@ioChainWeapon@@V?$allocator@UChainInfo@ioChainWeapon@@@std@@@std@@QAE@V?$allocator@UChainInfo@ioChainWeapon@@@1@@Z
_TEXT	SEGMENT
__Al$ = 8						; size = 1
??0?$_Vector_val@UChainInfo@ioChainWeapon@@V?$allocator@UChainInfo@ioChainWeapon@@@std@@@std@@QAE@V?$allocator@UChainInfo@ioChainWeapon@@@1@@Z PROC ; std::_Vector_val<ioChainWeapon::ChainInfo,std::allocator<ioChainWeapon::ChainInfo> >::_Vector_val<ioChainWeapon::ChainInfo,std::allocator<ioChainWeapon::ChainInfo> >, COMDAT
; _this$ = ecx

; 426  : 		{	// construct allocator from _Al

  00000	8b c1		 mov	 eax, ecx

; 427  : 		_Myfirst = 0;

  00002	33 c9		 xor	 ecx, ecx
  00004	89 08		 mov	 DWORD PTR [eax], ecx

; 428  : 		_Mylast = 0;

  00006	89 48 04	 mov	 DWORD PTR [eax+4], ecx

; 429  : 		_Myend = 0;

  00009	89 48 08	 mov	 DWORD PTR [eax+8], ecx

; 430  : 		}

  0000c	c2 04 00	 ret	 4
??0?$_Vector_val@UChainInfo@ioChainWeapon@@V?$allocator@UChainInfo@ioChainWeapon@@@std@@@std@@QAE@V?$allocator@UChainInfo@ioChainWeapon@@@1@@Z ENDP ; std::_Vector_val<ioChainWeapon::ChainInfo,std::allocator<ioChainWeapon::ChainInfo> >::_Vector_val<ioChainWeapon::ChainInfo,std::allocator<ioChainWeapon::ChainInfo> >
_TEXT	ENDS
PUBLIC	?allocate@?$allocator@UChainInfo@ioChainWeapon@@@std@@QAEPAUChainInfo@ioChainWeapon@@I@Z ; std::allocator<ioChainWeapon::ChainInfo>::allocate
; Function compile flags: /Ogsp
; File c:\program files (x86)\microsoft visual studio 10.0\vc\include\xmemory
;	COMDAT ?allocate@?$allocator@UChainInfo@ioChainWeapon@@@std@@QAEPAUChainInfo@ioChainWeapon@@I@Z
_TEXT	SEGMENT
__Count$ = 8						; size = 4
?allocate@?$allocator@UChainInfo@ioChainWeapon@@@std@@QAEPAUChainInfo@ioChainWeapon@@I@Z PROC ; std::allocator<ioChainWeapon::ChainInfo>::allocate, COMDAT
; _this$ = ecx

; 186  : 		{	// allocate array of _Count elements

  00000	55		 push	 ebp
  00001	8b ec		 mov	 ebp, esp

; 187  : 		return (_Allocate(_Count, (pointer)0));

  00003	6a 00		 push	 0
  00005	ff 75 08	 push	 DWORD PTR __Count$[ebp]
  00008	e8 00 00 00 00	 call	 ??$_Allocate@UChainInfo@ioChainWeapon@@@std@@YAPAUChainInfo@ioChainWeapon@@IPAU12@@Z ; std::_Allocate<ioChainWeapon::ChainInfo>
  0000d	59		 pop	 ecx
  0000e	59		 pop	 ecx

; 188  : 		}

  0000f	5d		 pop	 ebp
  00010	c2 04 00	 ret	 4
?allocate@?$allocator@UChainInfo@ioChainWeapon@@@std@@QAEPAUChainInfo@ioChainWeapon@@I@Z ENDP ; std::allocator<ioChainWeapon::ChainInfo>::allocate
_TEXT	ENDS
PUBLIC	?_Grow_to@?$vector@UChainInfo@ioChainWeapon@@V?$allocator@UChainInfo@ioChainWeapon@@@std@@@std@@IBEII@Z ; std::vector<ioChainWeapon::ChainInfo,std::allocator<ioChainWeapon::ChainInfo> >::_Grow_to
; Function compile flags: /Ogsp
; File c:\program files (x86)\microsoft visual studio 10.0\vc\include\vector
;	COMDAT ?_Grow_to@?$vector@UChainInfo@ioChainWeapon@@V?$allocator@UChainInfo@ioChainWeapon@@@std@@@std@@IBEII@Z
_TEXT	SEGMENT
__Count$ = 8						; size = 4
?_Grow_to@?$vector@UChainInfo@ioChainWeapon@@V?$allocator@UChainInfo@ioChainWeapon@@@std@@@std@@IBEII@Z PROC ; std::vector<ioChainWeapon::ChainInfo,std::allocator<ioChainWeapon::ChainInfo> >::_Grow_to, COMDAT
; _this$ = ecx

; 1274 : 		{	// grow by 50% or at least to _Count

  00000	55		 push	 ebp
  00001	8b ec		 mov	 ebp, esp

; 1275 : 		size_type _Capacity = capacity();

  00003	8b 41 08	 mov	 eax, DWORD PTR [ecx+8]
  00006	2b 01		 sub	 eax, DWORD PTR [ecx]

; 1276 : 
; 1277 : 		_Capacity = max_size() - _Capacity / 2 < _Capacity
; 1278 : 			? 0 : _Capacity + _Capacity / 2;	// try to grow by 50%

  00008	ba ff ff ff 1f	 mov	 edx, 536870911		; 1fffffffH
  0000d	c1 f8 03	 sar	 eax, 3
  00010	8b c8		 mov	 ecx, eax
  00012	d1 e9		 shr	 ecx, 1
  00014	2b d1		 sub	 edx, ecx
  00016	3b d0		 cmp	 edx, eax
  00018	73 04		 jae	 SHORT $LN4@Grow_to
  0001a	33 c0		 xor	 eax, eax
  0001c	eb 02		 jmp	 SHORT $LN5@Grow_to
$LN4@Grow_to:
  0001e	03 c1		 add	 eax, ecx
$LN5@Grow_to:

; 1279 : 		if (_Capacity < _Count)

  00020	3b 45 08	 cmp	 eax, DWORD PTR __Count$[ebp]

; 1280 : 			_Capacity = _Count;

  00023	0f 42 45 08	 cmovb	 eax, DWORD PTR __Count$[ebp]

; 1281 : 		return (_Capacity);
; 1282 : 		}

  00027	5d		 pop	 ebp
  00028	c2 04 00	 ret	 4
?_Grow_to@?$vector@UChainInfo@ioChainWeapon@@V?$allocator@UChainInfo@ioChainWeapon@@@std@@@std@@IBEII@Z ENDP ; std::vector<ioChainWeapon::ChainInfo,std::allocator<ioChainWeapon::ChainInfo> >::_Grow_to
_TEXT	ENDS
PUBLIC	??0?$_Vector_iterator@V?$_Vector_val@UChainInfo@ioChainWeapon@@V?$allocator@UChainInfo@ioChainWeapon@@@std@@@std@@@std@@QAE@PAUChainInfo@ioChainWeapon@@PBU_Container_base0@1@@Z ; std::_Vector_iterator<std::_Vector_val<ioChainWeapon::ChainInfo,std::allocator<ioChainWeapon::ChainInfo> > >::_Vector_iterator<std::_Vector_val<ioChainWeapon::ChainInfo,std::allocator<ioChainWeapon::ChainInfo> > >
; Function compile flags: /Ogsp
;	COMDAT ??0?$_Vector_iterator@V?$_Vector_val@UChainInfo@ioChainWeapon@@V?$allocator@UChainInfo@ioChainWeapon@@@std@@@std@@@std@@QAE@PAUChainInfo@ioChainWeapon@@PBU_Container_base0@1@@Z
_TEXT	SEGMENT
__Parg$ = 8						; size = 4
__Pvector$ = 12						; size = 4
??0?$_Vector_iterator@V?$_Vector_val@UChainInfo@ioChainWeapon@@V?$allocator@UChainInfo@ioChainWeapon@@@std@@@std@@@std@@QAE@PAUChainInfo@ioChainWeapon@@PBU_Container_base0@1@@Z PROC ; std::_Vector_iterator<std::_Vector_val<ioChainWeapon::ChainInfo,std::allocator<ioChainWeapon::ChainInfo> > >::_Vector_iterator<std::_Vector_val<ioChainWeapon::ChainInfo,std::allocator<ioChainWeapon::ChainInfo> > >, COMDAT
; _this$ = ecx

; 304  : 		{	// construct with pointer _Parg

  00000	55		 push	 ebp
  00001	8b ec		 mov	 ebp, esp
  00003	8b c1		 mov	 eax, ecx
  00005	8b 4d 08	 mov	 ecx, DWORD PTR __Parg$[ebp]
  00008	89 08		 mov	 DWORD PTR [eax], ecx

; 305  : 		}

  0000a	5d		 pop	 ebp
  0000b	c2 08 00	 ret	 8
??0?$_Vector_iterator@V?$_Vector_val@UChainInfo@ioChainWeapon@@V?$allocator@UChainInfo@ioChainWeapon@@@std@@@std@@@std@@QAE@PAUChainInfo@ioChainWeapon@@PBU_Container_base0@1@@Z ENDP ; std::_Vector_iterator<std::_Vector_val<ioChainWeapon::ChainInfo,std::allocator<ioChainWeapon::ChainInfo> > >::_Vector_iterator<std::_Vector_val<ioChainWeapon::ChainInfo,std::allocator<ioChainWeapon::ChainInfo> > >
_TEXT	ENDS
PUBLIC	??8?$_Vector_const_iterator@V?$_Vector_val@UChainInfo@ioChainWeapon@@V?$allocator@UChainInfo@ioChainWeapon@@@std@@@std@@@std@@QBE_NABV01@@Z ; std::_Vector_const_iterator<std::_Vector_val<ioChainWeapon::ChainInfo,std::allocator<ioChainWeapon::ChainInfo> > >::operator==
; Function compile flags: /Ogsp
;	COMDAT ??8?$_Vector_const_iterator@V?$_Vector_val@UChainInfo@ioChainWeapon@@V?$allocator@UChainInfo@ioChainWeapon@@@std@@@std@@@std@@QBE_NABV01@@Z
_TEXT	SEGMENT
__Right$ = 8						; size = 4
??8?$_Vector_const_iterator@V?$_Vector_val@UChainInfo@ioChainWeapon@@V?$allocator@UChainInfo@ioChainWeapon@@@std@@@std@@@std@@QBE_NABV01@@Z PROC ; std::_Vector_const_iterator<std::_Vector_val<ioChainWeapon::ChainInfo,std::allocator<ioChainWeapon::ChainInfo> > >::operator==, COMDAT
; _this$ = ecx

; 201  : 		{	// test for iterator equality

  00000	55		 push	 ebp
  00001	8b ec		 mov	 ebp, esp

; 202  : 		_Compat(_Right);
; 203  : 		return (this->_Ptr == _Right._Ptr);

  00003	8b 01		 mov	 eax, DWORD PTR [ecx]
  00005	8b 4d 08	 mov	 ecx, DWORD PTR __Right$[ebp]
  00008	2b 01		 sub	 eax, DWORD PTR [ecx]
  0000a	f7 d8		 neg	 eax
  0000c	1b c0		 sbb	 eax, eax
  0000e	40		 inc	 eax

; 204  : 		}

  0000f	5d		 pop	 ebp
  00010	c2 04 00	 ret	 4
??8?$_Vector_const_iterator@V?$_Vector_val@UChainInfo@ioChainWeapon@@V?$allocator@UChainInfo@ioChainWeapon@@@std@@@std@@@std@@QBE_NABV01@@Z ENDP ; std::_Vector_const_iterator<std::_Vector_val<ioChainWeapon::ChainInfo,std::allocator<ioChainWeapon::ChainInfo> > >::operator==
_TEXT	ENDS
PUBLIC	__$ArrayPad$
PUBLIC	??$LoadBool_e@$0BE@@ioINILoader@@QAE_NAAY0BE@$$CBD_N@Z ; ioINILoader::LoadBool_e<20>
EXTRN	__imp_?LoadBool@ioINILoader@@QAE_NPBD_N@Z:PROC
; Function compile flags: /Ogsp
; File d:\lost saga for developer\youtube\tutorial\source\src\io3dengine\ioiniloader.h
;	COMDAT ??$LoadBool_e@$0BE@@ioINILoader@@QAE_NAAY0BE@$$CBD_N@Z
_TEXT	SEGMENT
__k$ = -28						; size = 20
__$ArrayPad$ = -4					; size = 4
_k$ = 8							; size = 4
_b$ = 12						; size = 1
??$LoadBool_e@$0BE@@ioINILoader@@QAE_NAAY0BE@$$CBD_N@Z PROC ; ioINILoader::LoadBool_e<20>, COMDAT
; _this$ = ecx

; 101  : 	{

  00000	55		 push	 ebp
  00001	8b ec		 mov	 ebp, esp
  00003	83 ec 1c	 sub	 esp, 28			; 0000001cH
  00006	a1 00 00 00 00	 mov	 eax, DWORD PTR ___security_cookie
  0000b	33 c5		 xor	 eax, ebp
  0000d	89 45 fc	 mov	 DWORD PTR __$ArrayPad$[ebp], eax
  00010	8b 45 08	 mov	 eax, DWORD PTR _k$[ebp]

; 102  : 		_ENCSTR(k, _k);

  00013	8a 10		 mov	 dl, BYTE PTR [eax]
  00015	53		 push	 ebx
  00016	56		 push	 esi
  00017	8b f1		 mov	 esi, ecx
  00019	84 d2		 test	 dl, dl
  0001b	0f 84 dd 01 00
	00		 je	 $LN96@LoadBool_e
  00021	80 f2 ed	 xor	 dl, -19			; ffffffedH
  00024	88 55 e4	 mov	 BYTE PTR __k$[ebp], dl
  00027	8a 50 01	 mov	 dl, BYTE PTR [eax+1]
  0002a	84 d2		 test	 dl, dl
  0002c	0f 84 c6 01 00
	00		 je	 $LN95@LoadBool_e
  00032	b3 ec		 mov	 bl, -20			; ffffffecH
  00034	32 d3		 xor	 dl, bl
  00036	88 55 e5	 mov	 BYTE PTR __k$[ebp+1], dl
  00039	8a 50 02	 mov	 dl, BYTE PTR [eax+2]
  0003c	84 d2		 test	 dl, dl
  0003e	0f 84 ae 01 00
	00		 je	 $LN94@LoadBool_e
  00044	b1 eb		 mov	 cl, -21			; ffffffebH
  00046	32 d1		 xor	 dl, cl
  00048	88 55 e6	 mov	 BYTE PTR __k$[ebp+2], dl
  0004b	8a 50 03	 mov	 dl, BYTE PTR [eax+3]
  0004e	84 d2		 test	 dl, dl
  00050	0f 84 96 01 00
	00		 je	 $LN93@LoadBool_e
  00056	80 f2 ea	 xor	 dl, -22			; ffffffeaH
  00059	88 55 e7	 mov	 BYTE PTR __k$[ebp+3], dl
  0005c	8a 50 04	 mov	 dl, BYTE PTR [eax+4]
  0005f	84 d2		 test	 dl, dl
  00061	0f 84 7f 01 00
	00		 je	 $LN92@LoadBool_e
  00067	80 f2 ed	 xor	 dl, -19			; ffffffedH
  0006a	88 55 e8	 mov	 BYTE PTR __k$[ebp+4], dl
  0006d	8a 50 05	 mov	 dl, BYTE PTR [eax+5]
  00070	84 d2		 test	 dl, dl
  00072	0f 84 69 01 00
	00		 je	 $LN91@LoadBool_e
  00078	32 d3		 xor	 dl, bl
  0007a	88 55 e9	 mov	 BYTE PTR __k$[ebp+5], dl
  0007d	8a 50 06	 mov	 dl, BYTE PTR [eax+6]
  00080	84 d2		 test	 dl, dl
  00082	0f 84 54 01 00
	00		 je	 $LN90@LoadBool_e
  00088	32 d1		 xor	 dl, cl
  0008a	88 55 ea	 mov	 BYTE PTR __k$[ebp+6], dl
  0008d	8a 50 07	 mov	 dl, BYTE PTR [eax+7]
  00090	84 d2		 test	 dl, dl
  00092	0f 84 3e 01 00
	00		 je	 $LN89@LoadBool_e
  00098	80 f2 ea	 xor	 dl, -22			; ffffffeaH
  0009b	88 55 eb	 mov	 BYTE PTR __k$[ebp+7], dl
  0009e	8a 50 08	 mov	 dl, BYTE PTR [eax+8]
  000a1	84 d2		 test	 dl, dl
  000a3	0f 84 27 01 00
	00		 je	 $LN88@LoadBool_e
  000a9	80 f2 ed	 xor	 dl, -19			; ffffffedH
  000ac	88 55 ec	 mov	 BYTE PTR __k$[ebp+8], dl
  000af	8a 50 09	 mov	 dl, BYTE PTR [eax+9]
  000b2	84 d2		 test	 dl, dl
  000b4	0f 84 11 01 00
	00		 je	 $LN87@LoadBool_e
  000ba	32 d3		 xor	 dl, bl
  000bc	88 55 ed	 mov	 BYTE PTR __k$[ebp+9], dl
  000bf	8a 50 0a	 mov	 dl, BYTE PTR [eax+10]
  000c2	84 d2		 test	 dl, dl
  000c4	0f 84 fc 00 00
	00		 je	 $LN86@LoadBool_e
  000ca	32 d1		 xor	 dl, cl
  000cc	88 55 ee	 mov	 BYTE PTR __k$[ebp+10], dl
  000cf	8a 50 0b	 mov	 dl, BYTE PTR [eax+11]
  000d2	84 d2		 test	 dl, dl
  000d4	0f 84 e6 00 00
	00		 je	 $LN85@LoadBool_e
  000da	80 f2 ea	 xor	 dl, -22			; ffffffeaH
  000dd	88 55 ef	 mov	 BYTE PTR __k$[ebp+11], dl
  000e0	8a 50 0c	 mov	 dl, BYTE PTR [eax+12]
  000e3	84 d2		 test	 dl, dl
  000e5	0f 84 cf 00 00
	00		 je	 $LN84@LoadBool_e
  000eb	80 f2 ed	 xor	 dl, -19			; ffffffedH
  000ee	88 55 f0	 mov	 BYTE PTR __k$[ebp+12], dl
  000f1	8a 50 0d	 mov	 dl, BYTE PTR [eax+13]
  000f4	84 d2		 test	 dl, dl
  000f6	0f 84 b9 00 00
	00		 je	 $LN83@LoadBool_e
  000fc	32 d3		 xor	 dl, bl
  000fe	88 55 f1	 mov	 BYTE PTR __k$[ebp+13], dl
  00101	8a 50 0e	 mov	 dl, BYTE PTR [eax+14]
  00104	84 d2		 test	 dl, dl
  00106	0f 84 a4 00 00
	00		 je	 $LN82@LoadBool_e
  0010c	32 d1		 xor	 dl, cl
  0010e	88 55 f2	 mov	 BYTE PTR __k$[ebp+14], dl
  00111	8a 50 0f	 mov	 dl, BYTE PTR [eax+15]
  00114	84 d2		 test	 dl, dl
  00116	0f 84 8e 00 00
	00		 je	 $LN81@LoadBool_e
  0011c	80 f2 ea	 xor	 dl, -22			; ffffffeaH
  0011f	88 55 f3	 mov	 BYTE PTR __k$[ebp+15], dl
  00122	8a 50 10	 mov	 dl, BYTE PTR [eax+16]
  00125	84 d2		 test	 dl, dl
  00127	74 7b		 je	 SHORT $LN80@LoadBool_e
  00129	80 f2 ed	 xor	 dl, -19			; ffffffedH
  0012c	88 55 f4	 mov	 BYTE PTR __k$[ebp+16], dl
  0012f	8a 50 11	 mov	 dl, BYTE PTR [eax+17]
  00132	84 d2		 test	 dl, dl
  00134	74 69		 je	 SHORT $LN79@LoadBool_e
  00136	32 d3		 xor	 dl, bl
  00138	88 55 f5	 mov	 BYTE PTR __k$[ebp+17], dl
  0013b	8a 50 12	 mov	 dl, BYTE PTR [eax+18]
  0013e	84 d2		 test	 dl, dl
  00140	74 58		 je	 SHORT $LN78@LoadBool_e
  00142	32 d1		 xor	 dl, cl
  00144	80 78 13 00	 cmp	 BYTE PTR [eax+19], 0
  00148	88 55 f6	 mov	 BYTE PTR __k$[ebp+18], dl
  0014b	0f 84 b1 00 00
	00		 je	 $LN1@LoadBool_e
  00151	8a 50 14	 mov	 dl, BYTE PTR [eax+20]
  00154	84 d2		 test	 dl, dl
  00156	74 3c		 je	 SHORT $LN76@LoadBool_e
  00158	80 f2 ed	 xor	 dl, -19			; ffffffedH
  0015b	88 55 f8	 mov	 BYTE PTR __k$[ebp+20], dl
  0015e	8a 50 15	 mov	 dl, BYTE PTR [eax+21]
  00161	84 d2		 test	 dl, dl
  00163	74 2a		 je	 SHORT $LN75@LoadBool_e
  00165	32 d3		 xor	 dl, bl
  00167	88 55 f9	 mov	 BYTE PTR __k$[ebp+21], dl
  0016a	8a 50 16	 mov	 dl, BYTE PTR [eax+22]
  0016d	84 d2		 test	 dl, dl
  0016f	74 19		 je	 SHORT $LN74@LoadBool_e
  00171	8a 40 17	 mov	 al, BYTE PTR [eax+23]
  00174	32 d1		 xor	 dl, cl
  00176	88 55 fa	 mov	 BYTE PTR __k$[ebp+22], dl
  00179	84 c0		 test	 al, al
  0017b	74 07		 je	 SHORT $LN73@LoadBool_e
  0017d	34 ea		 xor	 al, -22			; ffffffeaH
  0017f	88 45 fb	 mov	 BYTE PTR __k$[ebp+23], al
  00182	eb 7e		 jmp	 SHORT $LN1@LoadBool_e
$LN73@LoadBool_e:
  00184	c6 45 fb ea	 mov	 BYTE PTR __k$[ebp+23], -22 ; ffffffeaH
  00188	eb 78		 jmp	 SHORT $LN1@LoadBool_e
$LN74@LoadBool_e:
  0018a	88 4d fa	 mov	 BYTE PTR __k$[ebp+22], cl
  0018d	eb 73		 jmp	 SHORT $LN1@LoadBool_e
$LN75@LoadBool_e:
  0018f	88 5d f9	 mov	 BYTE PTR __k$[ebp+21], bl
  00192	eb 6e		 jmp	 SHORT $LN1@LoadBool_e
$LN76@LoadBool_e:
  00194	c6 45 f8 ed	 mov	 BYTE PTR __k$[ebp+20], -19 ; ffffffedH
  00198	eb 68		 jmp	 SHORT $LN1@LoadBool_e
$LN78@LoadBool_e:
  0019a	88 4d f6	 mov	 BYTE PTR __k$[ebp+18], cl
  0019d	eb 63		 jmp	 SHORT $LN1@LoadBool_e
$LN79@LoadBool_e:
  0019f	88 5d f5	 mov	 BYTE PTR __k$[ebp+17], bl
  001a2	eb 5e		 jmp	 SHORT $LN1@LoadBool_e
$LN80@LoadBool_e:
  001a4	c6 45 f4 ed	 mov	 BYTE PTR __k$[ebp+16], -19 ; ffffffedH
  001a8	eb 58		 jmp	 SHORT $LN1@LoadBool_e
$LN81@LoadBool_e:
  001aa	c6 45 f3 ea	 mov	 BYTE PTR __k$[ebp+15], -22 ; ffffffeaH
  001ae	eb 52		 jmp	 SHORT $LN1@LoadBool_e
$LN82@LoadBool_e:
  001b0	88 4d f2	 mov	 BYTE PTR __k$[ebp+14], cl
  001b3	eb 4d		 jmp	 SHORT $LN1@LoadBool_e
$LN83@LoadBool_e:
  001b5	88 5d f1	 mov	 BYTE PTR __k$[ebp+13], bl
  001b8	eb 48		 jmp	 SHORT $LN1@LoadBool_e
$LN84@LoadBool_e:
  001ba	c6 45 f0 ed	 mov	 BYTE PTR __k$[ebp+12], -19 ; ffffffedH
  001be	eb 42		 jmp	 SHORT $LN1@LoadBool_e
$LN85@LoadBool_e:
  001c0	c6 45 ef ea	 mov	 BYTE PTR __k$[ebp+11], -22 ; ffffffeaH
  001c4	eb 3c		 jmp	 SHORT $LN1@LoadBool_e
$LN86@LoadBool_e:
  001c6	88 4d ee	 mov	 BYTE PTR __k$[ebp+10], cl
  001c9	eb 37		 jmp	 SHORT $LN1@LoadBool_e
$LN87@LoadBool_e:
  001cb	88 5d ed	 mov	 BYTE PTR __k$[ebp+9], bl
  001ce	eb 32		 jmp	 SHORT $LN1@LoadBool_e
$LN88@LoadBool_e:
  001d0	c6 45 ec ed	 mov	 BYTE PTR __k$[ebp+8], -19 ; ffffffedH
  001d4	eb 2c		 jmp	 SHORT $LN1@LoadBool_e
$LN89@LoadBool_e:
  001d6	c6 45 eb ea	 mov	 BYTE PTR __k$[ebp+7], -22 ; ffffffeaH
  001da	eb 26		 jmp	 SHORT $LN1@LoadBool_e
$LN90@LoadBool_e:
  001dc	88 4d ea	 mov	 BYTE PTR __k$[ebp+6], cl
  001df	eb 21		 jmp	 SHORT $LN1@LoadBool_e
$LN91@LoadBool_e:
  001e1	88 5d e9	 mov	 BYTE PTR __k$[ebp+5], bl
  001e4	eb 1c		 jmp	 SHORT $LN1@LoadBool_e
$LN92@LoadBool_e:
  001e6	c6 45 e8 ed	 mov	 BYTE PTR __k$[ebp+4], -19 ; ffffffedH
  001ea	eb 16		 jmp	 SHORT $LN1@LoadBool_e
$LN93@LoadBool_e:
  001ec	c6 45 e7 ea	 mov	 BYTE PTR __k$[ebp+3], -22 ; ffffffeaH
  001f0	eb 10		 jmp	 SHORT $LN1@LoadBool_e
$LN94@LoadBool_e:
  001f2	c6 45 e6 eb	 mov	 BYTE PTR __k$[ebp+2], -21 ; ffffffebH
  001f6	eb 0a		 jmp	 SHORT $LN1@LoadBool_e
$LN95@LoadBool_e:
  001f8	c6 45 e5 ec	 mov	 BYTE PTR __k$[ebp+1], -20 ; ffffffecH
  001fc	eb 04		 jmp	 SHORT $LN1@LoadBool_e
$LN96@LoadBool_e:
  001fe	c6 45 e4 ed	 mov	 BYTE PTR __k$[ebp], -19	; ffffffedH
$LN1@LoadBool_e:
  00202	6a 04		 push	 4
  00204	8d 45 e4	 lea	 eax, DWORD PTR __k$[ebp]
  00207	c6 45 f7 00	 mov	 BYTE PTR __k$[ebp+19], 0
  0020b	5a		 pop	 edx
$LL104@LoadBool_e:
  0020c	81 30 ed ec eb
	ea		 xor	 DWORD PTR [eax], -353637139 ; eaebecedH
  00212	83 c0 04	 add	 eax, 4
  00215	4a		 dec	 edx
  00216	75 f4		 jne	 SHORT $LL104@LoadBool_e
  00218	6a 10		 push	 16			; 00000010H
  0021a	58		 pop	 eax
$LL101@LoadBool_e:
  0021b	8b c8		 mov	 ecx, eax
  0021d	81 e1 03 00 00
	80		 and	 ecx, -2147483645	; 80000003H
  00223	79 05		 jns	 SHORT $LN111@LoadBool_e
  00225	49		 dec	 ecx
  00226	83 c9 fc	 or	 ecx, -4			; fffffffcH
  00229	41		 inc	 ecx
$LN111@LoadBool_e:
  0022a	b2 ed		 mov	 dl, -19			; ffffffedH
  0022c	2a d1		 sub	 dl, cl
  0022e	30 54 05 e4	 xor	 BYTE PTR __k$[ebp+eax], dl
  00232	40		 inc	 eax
  00233	83 f8 13	 cmp	 eax, 19			; 00000013H
  00236	7c e3		 jl	 SHORT $LL101@LoadBool_e

; 103  : 		return LoadBool(_k, b);

  00238	ff 75 0c	 push	 DWORD PTR _b$[ebp]
  0023b	8d 45 e4	 lea	 eax, DWORD PTR __k$[ebp]
  0023e	50		 push	 eax
  0023f	8b ce		 mov	 ecx, esi
  00241	ff 15 00 00 00
	00		 call	 DWORD PTR __imp_?LoadBool@ioINILoader@@QAE_NPBD_N@Z

; 104  : 	}

  00247	8b 4d fc	 mov	 ecx, DWORD PTR __$ArrayPad$[ebp]
  0024a	5e		 pop	 esi
  0024b	33 cd		 xor	 ecx, ebp
  0024d	5b		 pop	 ebx
  0024e	e8 00 00 00 00	 call	 @__security_check_cookie@4
  00253	c9		 leave
  00254	c2 08 00	 ret	 8
??$LoadBool_e@$0BE@@ioINILoader@@QAE_NAAY0BE@$$CBD_N@Z ENDP ; ioINILoader::LoadBool_e<20>
_TEXT	ENDS
PUBLIC	__$ArrayPad$
PUBLIC	??$LoadFloat_e@$0M@@ioINILoader@@QAEMAAY0M@$$CBDM@Z ; ioINILoader::LoadFloat_e<12>
EXTRN	__imp_?LoadFloat@ioINILoader@@QAEMPBDM@Z:PROC
; Function compile flags: /Ogsp
;	COMDAT ??$LoadFloat_e@$0M@@ioINILoader@@QAEMAAY0M@$$CBDM@Z
_TEXT	SEGMENT
__k$ = -20						; size = 12
__$ArrayPad$ = -4					; size = 4
_k$ = 8							; size = 4
_f$ = 12						; size = 4
??$LoadFloat_e@$0M@@ioINILoader@@QAEMAAY0M@$$CBDM@Z PROC ; ioINILoader::LoadFloat_e<12>, COMDAT
; _this$ = ecx

; 135  : 	{

  00000	55		 push	 ebp
  00001	8b ec		 mov	 ebp, esp
  00003	83 ec 14	 sub	 esp, 20			; 00000014H
  00006	a1 00 00 00 00	 mov	 eax, DWORD PTR ___security_cookie
  0000b	33 c5		 xor	 eax, ebp
  0000d	89 45 fc	 mov	 DWORD PTR __$ArrayPad$[ebp], eax
  00010	8b 45 08	 mov	 eax, DWORD PTR _k$[ebp]

; 136  : 		_ENCSTR(k, _k);

  00013	8a 10		 mov	 dl, BYTE PTR [eax]
  00015	56		 push	 esi
  00016	8b f1		 mov	 esi, ecx
  00018	84 d2		 test	 dl, dl
  0001a	0f 84 32 01 00
	00		 je	 $LN96@LoadFloat_
  00020	80 f2 ed	 xor	 dl, -19			; ffffffedH
  00023	88 55 ec	 mov	 BYTE PTR __k$[ebp], dl
  00026	8a 50 01	 mov	 dl, BYTE PTR [eax+1]
  00029	84 d2		 test	 dl, dl
  0002b	0f 84 1b 01 00
	00		 je	 $LN95@LoadFloat_
  00031	80 f2 ec	 xor	 dl, -20			; ffffffecH
  00034	88 55 ed	 mov	 BYTE PTR __k$[ebp+1], dl
  00037	8a 50 02	 mov	 dl, BYTE PTR [eax+2]
  0003a	84 d2		 test	 dl, dl
  0003c	0f 84 04 01 00
	00		 je	 $LN94@LoadFloat_
  00042	b1 eb		 mov	 cl, -21			; ffffffebH
  00044	32 d1		 xor	 dl, cl
  00046	88 55 ee	 mov	 BYTE PTR __k$[ebp+2], dl
  00049	8a 50 03	 mov	 dl, BYTE PTR [eax+3]
  0004c	84 d2		 test	 dl, dl
  0004e	0f 84 ec 00 00
	00		 je	 $LN93@LoadFloat_
  00054	80 f2 ea	 xor	 dl, -22			; ffffffeaH
  00057	88 55 ef	 mov	 BYTE PTR __k$[ebp+3], dl
  0005a	8a 50 04	 mov	 dl, BYTE PTR [eax+4]
  0005d	84 d2		 test	 dl, dl
  0005f	0f 84 d5 00 00
	00		 je	 $LN92@LoadFloat_
  00065	80 f2 ed	 xor	 dl, -19			; ffffffedH
  00068	88 55 f0	 mov	 BYTE PTR __k$[ebp+4], dl
  0006b	8a 50 05	 mov	 dl, BYTE PTR [eax+5]
  0006e	84 d2		 test	 dl, dl
  00070	0f 84 be 00 00
	00		 je	 $LN91@LoadFloat_
  00076	80 f2 ec	 xor	 dl, -20			; ffffffecH
  00079	88 55 f1	 mov	 BYTE PTR __k$[ebp+5], dl
  0007c	8a 50 06	 mov	 dl, BYTE PTR [eax+6]
  0007f	84 d2		 test	 dl, dl
  00081	0f 84 a8 00 00
	00		 je	 $LN90@LoadFloat_
  00087	32 d1		 xor	 dl, cl
  00089	88 55 f2	 mov	 BYTE PTR __k$[ebp+6], dl
  0008c	8a 50 07	 mov	 dl, BYTE PTR [eax+7]
  0008f	84 d2		 test	 dl, dl
  00091	0f 84 92 00 00
	00		 je	 $LN89@LoadFloat_
  00097	80 f2 ea	 xor	 dl, -22			; ffffffeaH
  0009a	88 55 f3	 mov	 BYTE PTR __k$[ebp+7], dl
  0009d	8a 50 08	 mov	 dl, BYTE PTR [eax+8]
  000a0	84 d2		 test	 dl, dl
  000a2	74 7f		 je	 SHORT $LN88@LoadFloat_
  000a4	80 f2 ed	 xor	 dl, -19			; ffffffedH
  000a7	88 55 f4	 mov	 BYTE PTR __k$[ebp+8], dl
  000aa	8a 50 09	 mov	 dl, BYTE PTR [eax+9]
  000ad	84 d2		 test	 dl, dl
  000af	74 6c		 je	 SHORT $LN87@LoadFloat_
  000b1	80 f2 ec	 xor	 dl, -20			; ffffffecH
  000b4	88 55 f5	 mov	 BYTE PTR __k$[ebp+9], dl
  000b7	8a 50 0a	 mov	 dl, BYTE PTR [eax+10]
  000ba	84 d2		 test	 dl, dl
  000bc	74 5a		 je	 SHORT $LN86@LoadFloat_
  000be	32 d1		 xor	 dl, cl
  000c0	80 78 0b 00	 cmp	 BYTE PTR [eax+11], 0
  000c4	88 55 f6	 mov	 BYTE PTR __k$[ebp+10], dl
  000c7	0f 84 89 00 00
	00		 je	 $LN1@LoadFloat_
  000cd	8a 50 0c	 mov	 dl, BYTE PTR [eax+12]
  000d0	84 d2		 test	 dl, dl
  000d2	74 3e		 je	 SHORT $LN84@LoadFloat_
  000d4	80 f2 ed	 xor	 dl, -19			; ffffffedH
  000d7	88 55 f8	 mov	 BYTE PTR __k$[ebp+12], dl
  000da	8a 50 0d	 mov	 dl, BYTE PTR [eax+13]
  000dd	84 d2		 test	 dl, dl
  000df	74 2b		 je	 SHORT $LN83@LoadFloat_
  000e1	80 f2 ec	 xor	 dl, -20			; ffffffecH
  000e4	88 55 f9	 mov	 BYTE PTR __k$[ebp+13], dl
  000e7	8a 50 0e	 mov	 dl, BYTE PTR [eax+14]
  000ea	84 d2		 test	 dl, dl
  000ec	74 19		 je	 SHORT $LN82@LoadFloat_
  000ee	8a 40 0f	 mov	 al, BYTE PTR [eax+15]
  000f1	32 d1		 xor	 dl, cl
  000f3	88 55 fa	 mov	 BYTE PTR __k$[ebp+14], dl
  000f6	84 c0		 test	 al, al
  000f8	74 07		 je	 SHORT $LN81@LoadFloat_
  000fa	34 ea		 xor	 al, -22			; ffffffeaH
  000fc	88 45 fb	 mov	 BYTE PTR __k$[ebp+15], al
  000ff	eb 55		 jmp	 SHORT $LN1@LoadFloat_
$LN81@LoadFloat_:
  00101	c6 45 fb ea	 mov	 BYTE PTR __k$[ebp+15], -22 ; ffffffeaH
  00105	eb 4f		 jmp	 SHORT $LN1@LoadFloat_
$LN82@LoadFloat_:
  00107	88 4d fa	 mov	 BYTE PTR __k$[ebp+14], cl
  0010a	eb 4a		 jmp	 SHORT $LN1@LoadFloat_
$LN83@LoadFloat_:
  0010c	c6 45 f9 ec	 mov	 BYTE PTR __k$[ebp+13], -20 ; ffffffecH
  00110	eb 44		 jmp	 SHORT $LN1@LoadFloat_
$LN84@LoadFloat_:
  00112	c6 45 f8 ed	 mov	 BYTE PTR __k$[ebp+12], -19 ; ffffffedH
  00116	eb 3e		 jmp	 SHORT $LN1@LoadFloat_
$LN86@LoadFloat_:
  00118	88 4d f6	 mov	 BYTE PTR __k$[ebp+10], cl
  0011b	eb 39		 jmp	 SHORT $LN1@LoadFloat_
$LN87@LoadFloat_:
  0011d	c6 45 f5 ec	 mov	 BYTE PTR __k$[ebp+9], -20 ; ffffffecH
  00121	eb 33		 jmp	 SHORT $LN1@LoadFloat_
$LN88@LoadFloat_:
  00123	c6 45 f4 ed	 mov	 BYTE PTR __k$[ebp+8], -19 ; ffffffedH
  00127	eb 2d		 jmp	 SHORT $LN1@LoadFloat_
$LN89@LoadFloat_:
  00129	c6 45 f3 ea	 mov	 BYTE PTR __k$[ebp+7], -22 ; ffffffeaH
  0012d	eb 27		 jmp	 SHORT $LN1@LoadFloat_
$LN90@LoadFloat_:
  0012f	88 4d f2	 mov	 BYTE PTR __k$[ebp+6], cl
  00132	eb 22		 jmp	 SHORT $LN1@LoadFloat_
$LN91@LoadFloat_:
  00134	c6 45 f1 ec	 mov	 BYTE PTR __k$[ebp+5], -20 ; ffffffecH
  00138	eb 1c		 jmp	 SHORT $LN1@LoadFloat_
$LN92@LoadFloat_:
  0013a	c6 45 f0 ed	 mov	 BYTE PTR __k$[ebp+4], -19 ; ffffffedH
  0013e	eb 16		 jmp	 SHORT $LN1@LoadFloat_
$LN93@LoadFloat_:
  00140	c6 45 ef ea	 mov	 BYTE PTR __k$[ebp+3], -22 ; ffffffeaH
  00144	eb 10		 jmp	 SHORT $LN1@LoadFloat_
$LN94@LoadFloat_:
  00146	c6 45 ee eb	 mov	 BYTE PTR __k$[ebp+2], -21 ; ffffffebH
  0014a	eb 0a		 jmp	 SHORT $LN1@LoadFloat_
$LN95@LoadFloat_:
  0014c	c6 45 ed ec	 mov	 BYTE PTR __k$[ebp+1], -20 ; ffffffecH
  00150	eb 04		 jmp	 SHORT $LN1@LoadFloat_
$LN96@LoadFloat_:
  00152	c6 45 ec ed	 mov	 BYTE PTR __k$[ebp], -19	; ffffffedH
$LN1@LoadFloat_:
  00156	6a 02		 push	 2
  00158	8d 45 ec	 lea	 eax, DWORD PTR __k$[ebp]
  0015b	c6 45 f7 00	 mov	 BYTE PTR __k$[ebp+11], 0
  0015f	5a		 pop	 edx
$LL104@LoadFloat_:
  00160	81 30 ed ec eb
	ea		 xor	 DWORD PTR [eax], -353637139 ; eaebecedH
  00166	83 c0 04	 add	 eax, 4
  00169	4a		 dec	 edx
  0016a	75 f4		 jne	 SHORT $LL104@LoadFloat_
  0016c	6a 08		 push	 8
  0016e	58		 pop	 eax
$LL101@LoadFloat_:
  0016f	8b c8		 mov	 ecx, eax
  00171	81 e1 03 00 00
	80		 and	 ecx, -2147483645	; 80000003H
  00177	79 05		 jns	 SHORT $LN111@LoadFloat_
  00179	49		 dec	 ecx
  0017a	83 c9 fc	 or	 ecx, -4			; fffffffcH
  0017d	41		 inc	 ecx
$LN111@LoadFloat_:
  0017e	b2 ed		 mov	 dl, -19			; ffffffedH
  00180	2a d1		 sub	 dl, cl
  00182	30 54 05 ec	 xor	 BYTE PTR __k$[ebp+eax], dl
  00186	40		 inc	 eax
  00187	83 f8 0b	 cmp	 eax, 11			; 0000000bH
  0018a	7c e3		 jl	 SHORT $LL101@LoadFloat_

; 137  : 		return LoadFloat(_k, f);

  0018c	f3 0f 10 45 0c	 movss	 xmm0, DWORD PTR _f$[ebp]
  00191	51		 push	 ecx
  00192	8d 45 ec	 lea	 eax, DWORD PTR __k$[ebp]
  00195	f3 0f 11 04 24	 movss	 DWORD PTR [esp], xmm0
  0019a	50		 push	 eax
  0019b	8b ce		 mov	 ecx, esi
  0019d	ff 15 00 00 00
	00		 call	 DWORD PTR __imp_?LoadFloat@ioINILoader@@QAEMPBDM@Z

; 138  : 	}

  001a3	8b 4d fc	 mov	 ecx, DWORD PTR __$ArrayPad$[ebp]
  001a6	33 cd		 xor	 ecx, ebp
  001a8	5e		 pop	 esi
  001a9	e8 00 00 00 00	 call	 @__security_check_cookie@4
  001ae	c9		 leave
  001af	c2 08 00	 ret	 8
??$LoadFloat_e@$0M@@ioINILoader@@QAEMAAY0M@$$CBDM@Z ENDP ; ioINILoader::LoadFloat_e<12>
_TEXT	ENDS
PUBLIC	__$ArrayPad$
PUBLIC	??$LoadInt_e@$0O@@ioINILoader@@QAEHAAY0O@$$CBDH@Z ; ioINILoader::LoadInt_e<14>
EXTRN	__imp_?LoadInt@ioINILoader@@QAEHPBDH@Z:PROC
; Function compile flags: /Ogsp
;	COMDAT ??$LoadInt_e@$0O@@ioINILoader@@QAEHAAY0O@$$CBDH@Z
_TEXT	SEGMENT
__k$ = -24						; size = 14
__$ArrayPad$ = -4					; size = 4
_k$ = 8							; size = 4
_i$ = 12						; size = 4
??$LoadInt_e@$0O@@ioINILoader@@QAEHAAY0O@$$CBDH@Z PROC	; ioINILoader::LoadInt_e<14>, COMDAT
; _this$ = ecx

; 118  : 	{

  00000	55		 push	 ebp
  00001	8b ec		 mov	 ebp, esp
  00003	83 ec 18	 sub	 esp, 24			; 00000018H
  00006	a1 00 00 00 00	 mov	 eax, DWORD PTR ___security_cookie
  0000b	33 c5		 xor	 eax, ebp
  0000d	89 45 fc	 mov	 DWORD PTR __$ArrayPad$[ebp], eax
  00010	8b 45 08	 mov	 eax, DWORD PTR _k$[ebp]

; 119  : 		_ENCSTR(k, _k);

  00013	8a 10		 mov	 dl, BYTE PTR [eax]
  00015	56		 push	 esi
  00016	8b f1		 mov	 esi, ecx
  00018	84 d2		 test	 dl, dl
  0001a	0f 84 64 01 00
	00		 je	 $LN96@LoadInt_e
  00020	80 f2 ed	 xor	 dl, -19			; ffffffedH
  00023	88 55 e8	 mov	 BYTE PTR __k$[ebp], dl
  00026	8a 50 01	 mov	 dl, BYTE PTR [eax+1]
  00029	84 d2		 test	 dl, dl
  0002b	0f 84 4d 01 00
	00		 je	 $LN95@LoadInt_e
  00031	80 f2 ec	 xor	 dl, -20			; ffffffecH
  00034	88 55 e9	 mov	 BYTE PTR __k$[ebp+1], dl
  00037	8a 50 02	 mov	 dl, BYTE PTR [eax+2]
  0003a	84 d2		 test	 dl, dl
  0003c	0f 84 36 01 00
	00		 je	 $LN94@LoadInt_e
  00042	b1 eb		 mov	 cl, -21			; ffffffebH
  00044	32 d1		 xor	 dl, cl
  00046	88 55 ea	 mov	 BYTE PTR __k$[ebp+2], dl
  00049	8a 50 03	 mov	 dl, BYTE PTR [eax+3]
  0004c	84 d2		 test	 dl, dl
  0004e	0f 84 1e 01 00
	00		 je	 $LN93@LoadInt_e
  00054	80 f2 ea	 xor	 dl, -22			; ffffffeaH
  00057	88 55 eb	 mov	 BYTE PTR __k$[ebp+3], dl
  0005a	8a 50 04	 mov	 dl, BYTE PTR [eax+4]
  0005d	84 d2		 test	 dl, dl
  0005f	0f 84 07 01 00
	00		 je	 $LN92@LoadInt_e
  00065	80 f2 ed	 xor	 dl, -19			; ffffffedH
  00068	88 55 ec	 mov	 BYTE PTR __k$[ebp+4], dl
  0006b	8a 50 05	 mov	 dl, BYTE PTR [eax+5]
  0006e	84 d2		 test	 dl, dl
  00070	0f 84 f0 00 00
	00		 je	 $LN91@LoadInt_e
  00076	80 f2 ec	 xor	 dl, -20			; ffffffecH
  00079	88 55 ed	 mov	 BYTE PTR __k$[ebp+5], dl
  0007c	8a 50 06	 mov	 dl, BYTE PTR [eax+6]
  0007f	84 d2		 test	 dl, dl
  00081	0f 84 da 00 00
	00		 je	 $LN90@LoadInt_e
  00087	32 d1		 xor	 dl, cl
  00089	88 55 ee	 mov	 BYTE PTR __k$[ebp+6], dl
  0008c	8a 50 07	 mov	 dl, BYTE PTR [eax+7]
  0008f	84 d2		 test	 dl, dl
  00091	0f 84 c4 00 00
	00		 je	 $LN89@LoadInt_e
  00097	80 f2 ea	 xor	 dl, -22			; ffffffeaH
  0009a	88 55 ef	 mov	 BYTE PTR __k$[ebp+7], dl
  0009d	8a 50 08	 mov	 dl, BYTE PTR [eax+8]
  000a0	84 d2		 test	 dl, dl
  000a2	0f 84 ad 00 00
	00		 je	 $LN88@LoadInt_e
  000a8	80 f2 ed	 xor	 dl, -19			; ffffffedH
  000ab	88 55 f0	 mov	 BYTE PTR __k$[ebp+8], dl
  000ae	8a 50 09	 mov	 dl, BYTE PTR [eax+9]
  000b1	84 d2		 test	 dl, dl
  000b3	0f 84 96 00 00
	00		 je	 $LN87@LoadInt_e
  000b9	80 f2 ec	 xor	 dl, -20			; ffffffecH
  000bc	88 55 f1	 mov	 BYTE PTR __k$[ebp+9], dl
  000bf	8a 50 0a	 mov	 dl, BYTE PTR [eax+10]
  000c2	84 d2		 test	 dl, dl
  000c4	0f 84 80 00 00
	00		 je	 $LN86@LoadInt_e
  000ca	32 d1		 xor	 dl, cl
  000cc	88 55 f2	 mov	 BYTE PTR __k$[ebp+10], dl
  000cf	8a 50 0b	 mov	 dl, BYTE PTR [eax+11]
  000d2	84 d2		 test	 dl, dl
  000d4	74 6e		 je	 SHORT $LN85@LoadInt_e
  000d6	80 f2 ea	 xor	 dl, -22			; ffffffeaH
  000d9	88 55 f3	 mov	 BYTE PTR __k$[ebp+11], dl
  000dc	8a 50 0c	 mov	 dl, BYTE PTR [eax+12]
  000df	84 d2		 test	 dl, dl
  000e1	74 5b		 je	 SHORT $LN84@LoadInt_e
  000e3	80 f2 ed	 xor	 dl, -19			; ffffffedH
  000e6	80 78 0d 00	 cmp	 BYTE PTR [eax+13], 0
  000ea	88 55 f4	 mov	 BYTE PTR __k$[ebp+12], dl
  000ed	0f 84 95 00 00
	00		 je	 $LN1@LoadInt_e
  000f3	8a 50 0e	 mov	 dl, BYTE PTR [eax+14]
  000f6	84 d2		 test	 dl, dl
  000f8	74 3f		 je	 SHORT $LN82@LoadInt_e
  000fa	32 d1		 xor	 dl, cl
  000fc	88 55 f6	 mov	 BYTE PTR __k$[ebp+14], dl
  000ff	8a 50 0f	 mov	 dl, BYTE PTR [eax+15]
  00102	84 d2		 test	 dl, dl
  00104	74 2d		 je	 SHORT $LN81@LoadInt_e
  00106	80 f2 ea	 xor	 dl, -22			; ffffffeaH
  00109	88 55 f7	 mov	 BYTE PTR __k$[ebp+15], dl
  0010c	8a 50 10	 mov	 dl, BYTE PTR [eax+16]
  0010f	84 d2		 test	 dl, dl
  00111	74 1a		 je	 SHORT $LN80@LoadInt_e
  00113	8a 40 11	 mov	 al, BYTE PTR [eax+17]
  00116	80 f2 ed	 xor	 dl, -19			; ffffffedH
  00119	88 55 f8	 mov	 BYTE PTR __k$[ebp+16], dl
  0011c	84 c0		 test	 al, al
  0011e	74 07		 je	 SHORT $LN79@LoadInt_e
  00120	34 ec		 xor	 al, -20			; ffffffecH
  00122	88 45 f9	 mov	 BYTE PTR __k$[ebp+17], al
  00125	eb 61		 jmp	 SHORT $LN1@LoadInt_e
$LN79@LoadInt_e:
  00127	c6 45 f9 ec	 mov	 BYTE PTR __k$[ebp+17], -20 ; ffffffecH
  0012b	eb 5b		 jmp	 SHORT $LN1@LoadInt_e
$LN80@LoadInt_e:
  0012d	c6 45 f8 ed	 mov	 BYTE PTR __k$[ebp+16], -19 ; ffffffedH
  00131	eb 55		 jmp	 SHORT $LN1@LoadInt_e
$LN81@LoadInt_e:
  00133	c6 45 f7 ea	 mov	 BYTE PTR __k$[ebp+15], -22 ; ffffffeaH
  00137	eb 4f		 jmp	 SHORT $LN1@LoadInt_e
$LN82@LoadInt_e:
  00139	88 4d f6	 mov	 BYTE PTR __k$[ebp+14], cl
  0013c	eb 4a		 jmp	 SHORT $LN1@LoadInt_e
$LN84@LoadInt_e:
  0013e	c6 45 f4 ed	 mov	 BYTE PTR __k$[ebp+12], -19 ; ffffffedH
  00142	eb 44		 jmp	 SHORT $LN1@LoadInt_e
$LN85@LoadInt_e:
  00144	c6 45 f3 ea	 mov	 BYTE PTR __k$[ebp+11], -22 ; ffffffeaH
  00148	eb 3e		 jmp	 SHORT $LN1@LoadInt_e
$LN86@LoadInt_e:
  0014a	88 4d f2	 mov	 BYTE PTR __k$[ebp+10], cl
  0014d	eb 39		 jmp	 SHORT $LN1@LoadInt_e
$LN87@LoadInt_e:
  0014f	c6 45 f1 ec	 mov	 BYTE PTR __k$[ebp+9], -20 ; ffffffecH
  00153	eb 33		 jmp	 SHORT $LN1@LoadInt_e
$LN88@LoadInt_e:
  00155	c6 45 f0 ed	 mov	 BYTE PTR __k$[ebp+8], -19 ; ffffffedH
  00159	eb 2d		 jmp	 SHORT $LN1@LoadInt_e
$LN89@LoadInt_e:
  0015b	c6 45 ef ea	 mov	 BYTE PTR __k$[ebp+7], -22 ; ffffffeaH
  0015f	eb 27		 jmp	 SHORT $LN1@LoadInt_e
$LN90@LoadInt_e:
  00161	88 4d ee	 mov	 BYTE PTR __k$[ebp+6], cl
  00164	eb 22		 jmp	 SHORT $LN1@LoadInt_e
$LN91@LoadInt_e:
  00166	c6 45 ed ec	 mov	 BYTE PTR __k$[ebp+5], -20 ; ffffffecH
  0016a	eb 1c		 jmp	 SHORT $LN1@LoadInt_e
$LN92@LoadInt_e:
  0016c	c6 45 ec ed	 mov	 BYTE PTR __k$[ebp+4], -19 ; ffffffedH
  00170	eb 16		 jmp	 SHORT $LN1@LoadInt_e
$LN93@LoadInt_e:
  00172	c6 45 eb ea	 mov	 BYTE PTR __k$[ebp+3], -22 ; ffffffeaH
  00176	eb 10		 jmp	 SHORT $LN1@LoadInt_e
$LN94@LoadInt_e:
  00178	c6 45 ea eb	 mov	 BYTE PTR __k$[ebp+2], -21 ; ffffffebH
  0017c	eb 0a		 jmp	 SHORT $LN1@LoadInt_e
$LN95@LoadInt_e:
  0017e	c6 45 e9 ec	 mov	 BYTE PTR __k$[ebp+1], -20 ; ffffffecH
  00182	eb 04		 jmp	 SHORT $LN1@LoadInt_e
$LN96@LoadInt_e:
  00184	c6 45 e8 ed	 mov	 BYTE PTR __k$[ebp], -19	; ffffffedH
$LN1@LoadInt_e:
  00188	6a 03		 push	 3
  0018a	8d 45 e8	 lea	 eax, DWORD PTR __k$[ebp]
  0018d	c6 45 f5 00	 mov	 BYTE PTR __k$[ebp+13], 0
  00191	5a		 pop	 edx
$LL104@LoadInt_e:
  00192	81 30 ed ec eb
	ea		 xor	 DWORD PTR [eax], -353637139 ; eaebecedH
  00198	83 c0 04	 add	 eax, 4
  0019b	4a		 dec	 edx
  0019c	75 f4		 jne	 SHORT $LL104@LoadInt_e

; 120  : 		return LoadInt(_k, i);

  0019e	ff 75 0c	 push	 DWORD PTR _i$[ebp]
  001a1	80 75 f4 ed	 xor	 BYTE PTR __k$[ebp+12], -19 ; ffffffedH
  001a5	8d 45 e8	 lea	 eax, DWORD PTR __k$[ebp]
  001a8	50		 push	 eax
  001a9	8b ce		 mov	 ecx, esi
  001ab	ff 15 00 00 00
	00		 call	 DWORD PTR __imp_?LoadInt@ioINILoader@@QAEHPBDH@Z

; 121  : 	}

  001b1	8b 4d fc	 mov	 ecx, DWORD PTR __$ArrayPad$[ebp]
  001b4	33 cd		 xor	 ecx, ebp
  001b6	5e		 pop	 esi
  001b7	e8 00 00 00 00	 call	 @__security_check_cookie@4
  001bc	c9		 leave
  001bd	c2 08 00	 ret	 8
??$LoadInt_e@$0O@@ioINILoader@@QAEHAAY0O@$$CBDH@Z ENDP	; ioINILoader::LoadInt_e<14>
_TEXT	ENDS
PUBLIC	__$ArrayPad$
PUBLIC	??$LoadInt_e@$0BD@@ioINILoader@@QAEHAAY0BD@$$CBDH@Z ; ioINILoader::LoadInt_e<19>
; Function compile flags: /Ogsp
;	COMDAT ??$LoadInt_e@$0BD@@ioINILoader@@QAEHAAY0BD@$$CBDH@Z
_TEXT	SEGMENT
__k$ = -28						; size = 19
__$ArrayPad$ = -4					; size = 4
_k$ = 8							; size = 4
_i$ = 12						; size = 4
??$LoadInt_e@$0BD@@ioINILoader@@QAEHAAY0BD@$$CBDH@Z PROC ; ioINILoader::LoadInt_e<19>, COMDAT
; _this$ = ecx

; 118  : 	{

  00000	55		 push	 ebp
  00001	8b ec		 mov	 ebp, esp
  00003	83 ec 1c	 sub	 esp, 28			; 0000001cH
  00006	a1 00 00 00 00	 mov	 eax, DWORD PTR ___security_cookie
  0000b	33 c5		 xor	 eax, ebp
  0000d	89 45 fc	 mov	 DWORD PTR __$ArrayPad$[ebp], eax
  00010	8b 45 08	 mov	 eax, DWORD PTR _k$[ebp]

; 119  : 		_ENCSTR(k, _k);

  00013	8a 10		 mov	 dl, BYTE PTR [eax]
  00015	56		 push	 esi
  00016	8b f1		 mov	 esi, ecx
  00018	84 d2		 test	 dl, dl
  0001a	0f 84 cf 01 00
	00		 je	 $LN96@LoadInt_e@2
  00020	80 f2 ed	 xor	 dl, -19			; ffffffedH
  00023	88 55 e4	 mov	 BYTE PTR __k$[ebp], dl
  00026	8a 50 01	 mov	 dl, BYTE PTR [eax+1]
  00029	84 d2		 test	 dl, dl
  0002b	0f 84 b8 01 00
	00		 je	 $LN95@LoadInt_e@2
  00031	b1 ec		 mov	 cl, -20			; ffffffecH
  00033	32 d1		 xor	 dl, cl
  00035	88 55 e5	 mov	 BYTE PTR __k$[ebp+1], dl
  00038	8a 50 02	 mov	 dl, BYTE PTR [eax+2]
  0003b	84 d2		 test	 dl, dl
  0003d	0f 84 a0 01 00
	00		 je	 $LN94@LoadInt_e@2
  00043	80 f2 eb	 xor	 dl, -21			; ffffffebH
  00046	88 55 e6	 mov	 BYTE PTR __k$[ebp+2], dl
  00049	8a 50 03	 mov	 dl, BYTE PTR [eax+3]
  0004c	84 d2		 test	 dl, dl
  0004e	0f 84 89 01 00
	00		 je	 $LN93@LoadInt_e@2
  00054	80 f2 ea	 xor	 dl, -22			; ffffffeaH
  00057	88 55 e7	 mov	 BYTE PTR __k$[ebp+3], dl
  0005a	8a 50 04	 mov	 dl, BYTE PTR [eax+4]
  0005d	84 d2		 test	 dl, dl
  0005f	0f 84 72 01 00
	00		 je	 $LN92@LoadInt_e@2
  00065	80 f2 ed	 xor	 dl, -19			; ffffffedH
  00068	88 55 e8	 mov	 BYTE PTR __k$[ebp+4], dl
  0006b	8a 50 05	 mov	 dl, BYTE PTR [eax+5]
  0006e	84 d2		 test	 dl, dl
  00070	0f 84 5c 01 00
	00		 je	 $LN91@LoadInt_e@2
  00076	32 d1		 xor	 dl, cl
  00078	88 55 e9	 mov	 BYTE PTR __k$[ebp+5], dl
  0007b	8a 50 06	 mov	 dl, BYTE PTR [eax+6]
  0007e	84 d2		 test	 dl, dl
  00080	0f 84 46 01 00
	00		 je	 $LN90@LoadInt_e@2
  00086	80 f2 eb	 xor	 dl, -21			; ffffffebH
  00089	88 55 ea	 mov	 BYTE PTR __k$[ebp+6], dl
  0008c	8a 50 07	 mov	 dl, BYTE PTR [eax+7]
  0008f	84 d2		 test	 dl, dl
  00091	0f 84 2f 01 00
	00		 je	 $LN89@LoadInt_e@2
  00097	80 f2 ea	 xor	 dl, -22			; ffffffeaH
  0009a	88 55 eb	 mov	 BYTE PTR __k$[ebp+7], dl
  0009d	8a 50 08	 mov	 dl, BYTE PTR [eax+8]
  000a0	84 d2		 test	 dl, dl
  000a2	0f 84 18 01 00
	00		 je	 $LN88@LoadInt_e@2
  000a8	80 f2 ed	 xor	 dl, -19			; ffffffedH
  000ab	88 55 ec	 mov	 BYTE PTR __k$[ebp+8], dl
  000ae	8a 50 09	 mov	 dl, BYTE PTR [eax+9]
  000b1	84 d2		 test	 dl, dl
  000b3	0f 84 02 01 00
	00		 je	 $LN87@LoadInt_e@2
  000b9	32 d1		 xor	 dl, cl
  000bb	88 55 ed	 mov	 BYTE PTR __k$[ebp+9], dl
  000be	8a 50 0a	 mov	 dl, BYTE PTR [eax+10]
  000c1	84 d2		 test	 dl, dl
  000c3	0f 84 ec 00 00
	00		 je	 $LN86@LoadInt_e@2
  000c9	80 f2 eb	 xor	 dl, -21			; ffffffebH
  000cc	88 55 ee	 mov	 BYTE PTR __k$[ebp+10], dl
  000cf	8a 50 0b	 mov	 dl, BYTE PTR [eax+11]
  000d2	84 d2		 test	 dl, dl
  000d4	0f 84 d5 00 00
	00		 je	 $LN85@LoadInt_e@2
  000da	80 f2 ea	 xor	 dl, -22			; ffffffeaH
  000dd	88 55 ef	 mov	 BYTE PTR __k$[ebp+11], dl
  000e0	8a 50 0c	 mov	 dl, BYTE PTR [eax+12]
  000e3	84 d2		 test	 dl, dl
  000e5	0f 84 be 00 00
	00		 je	 $LN84@LoadInt_e@2
  000eb	80 f2 ed	 xor	 dl, -19			; ffffffedH
  000ee	88 55 f0	 mov	 BYTE PTR __k$[ebp+12], dl
  000f1	8a 50 0d	 mov	 dl, BYTE PTR [eax+13]
  000f4	84 d2		 test	 dl, dl
  000f6	0f 84 a8 00 00
	00		 je	 $LN83@LoadInt_e@2
  000fc	32 d1		 xor	 dl, cl
  000fe	88 55 f1	 mov	 BYTE PTR __k$[ebp+13], dl
  00101	8a 50 0e	 mov	 dl, BYTE PTR [eax+14]
  00104	84 d2		 test	 dl, dl
  00106	0f 84 92 00 00
	00		 je	 $LN82@LoadInt_e@2
  0010c	80 f2 eb	 xor	 dl, -21			; ffffffebH
  0010f	88 55 f2	 mov	 BYTE PTR __k$[ebp+14], dl
  00112	8a 50 0f	 mov	 dl, BYTE PTR [eax+15]
  00115	84 d2		 test	 dl, dl
  00117	74 7f		 je	 SHORT $LN81@LoadInt_e@2
  00119	80 f2 ea	 xor	 dl, -22			; ffffffeaH
  0011c	88 55 f3	 mov	 BYTE PTR __k$[ebp+15], dl
  0011f	8a 50 10	 mov	 dl, BYTE PTR [eax+16]
  00122	84 d2		 test	 dl, dl
  00124	74 6c		 je	 SHORT $LN80@LoadInt_e@2
  00126	80 f2 ed	 xor	 dl, -19			; ffffffedH
  00129	88 55 f4	 mov	 BYTE PTR __k$[ebp+16], dl
  0012c	8a 50 11	 mov	 dl, BYTE PTR [eax+17]
  0012f	84 d2		 test	 dl, dl
  00131	74 5a		 je	 SHORT $LN79@LoadInt_e@2
  00133	32 d1		 xor	 dl, cl
  00135	80 78 12 00	 cmp	 BYTE PTR [eax+18], 0
  00139	88 55 f5	 mov	 BYTE PTR __k$[ebp+17], dl
  0013c	0f 84 b1 00 00
	00		 je	 $LN1@LoadInt_e@2
  00142	8a 50 13	 mov	 dl, BYTE PTR [eax+19]
  00145	84 d2		 test	 dl, dl
  00147	74 3e		 je	 SHORT $LN77@LoadInt_e@2
  00149	80 f2 ea	 xor	 dl, -22			; ffffffeaH
  0014c	88 55 f7	 mov	 BYTE PTR __k$[ebp+19], dl
  0014f	8a 50 14	 mov	 dl, BYTE PTR [eax+20]
  00152	84 d2		 test	 dl, dl
  00154	74 2b		 je	 SHORT $LN76@LoadInt_e@2
  00156	80 f2 ed	 xor	 dl, -19			; ffffffedH
  00159	88 55 f8	 mov	 BYTE PTR __k$[ebp+20], dl
  0015c	8a 50 15	 mov	 dl, BYTE PTR [eax+21]
  0015f	84 d2		 test	 dl, dl
  00161	74 19		 je	 SHORT $LN75@LoadInt_e@2
  00163	8a 40 16	 mov	 al, BYTE PTR [eax+22]
  00166	32 d1		 xor	 dl, cl
  00168	88 55 f9	 mov	 BYTE PTR __k$[ebp+21], dl
  0016b	84 c0		 test	 al, al
  0016d	74 07		 je	 SHORT $LN74@LoadInt_e@2
  0016f	34 eb		 xor	 al, -21			; ffffffebH
  00171	88 45 fa	 mov	 BYTE PTR __k$[ebp+22], al
  00174	eb 7d		 jmp	 SHORT $LN1@LoadInt_e@2
$LN74@LoadInt_e@2:
  00176	c6 45 fa eb	 mov	 BYTE PTR __k$[ebp+22], -21 ; ffffffebH
  0017a	eb 77		 jmp	 SHORT $LN1@LoadInt_e@2
$LN75@LoadInt_e@2:
  0017c	88 4d f9	 mov	 BYTE PTR __k$[ebp+21], cl
  0017f	eb 72		 jmp	 SHORT $LN1@LoadInt_e@2
$LN76@LoadInt_e@2:
  00181	c6 45 f8 ed	 mov	 BYTE PTR __k$[ebp+20], -19 ; ffffffedH
  00185	eb 6c		 jmp	 SHORT $LN1@LoadInt_e@2
$LN77@LoadInt_e@2:
  00187	c6 45 f7 ea	 mov	 BYTE PTR __k$[ebp+19], -22 ; ffffffeaH
  0018b	eb 66		 jmp	 SHORT $LN1@LoadInt_e@2
$LN79@LoadInt_e@2:
  0018d	88 4d f5	 mov	 BYTE PTR __k$[ebp+17], cl
  00190	eb 61		 jmp	 SHORT $LN1@LoadInt_e@2
$LN80@LoadInt_e@2:
  00192	c6 45 f4 ed	 mov	 BYTE PTR __k$[ebp+16], -19 ; ffffffedH
  00196	eb 5b		 jmp	 SHORT $LN1@LoadInt_e@2
$LN81@LoadInt_e@2:
  00198	c6 45 f3 ea	 mov	 BYTE PTR __k$[ebp+15], -22 ; ffffffeaH
  0019c	eb 55		 jmp	 SHORT $LN1@LoadInt_e@2
$LN82@LoadInt_e@2:
  0019e	c6 45 f2 eb	 mov	 BYTE PTR __k$[ebp+14], -21 ; ffffffebH
  001a2	eb 4f		 jmp	 SHORT $LN1@LoadInt_e@2
$LN83@LoadInt_e@2:
  001a4	88 4d f1	 mov	 BYTE PTR __k$[ebp+13], cl
  001a7	eb 4a		 jmp	 SHORT $LN1@LoadInt_e@2
$LN84@LoadInt_e@2:
  001a9	c6 45 f0 ed	 mov	 BYTE PTR __k$[ebp+12], -19 ; ffffffedH
  001ad	eb 44		 jmp	 SHORT $LN1@LoadInt_e@2
$LN85@LoadInt_e@2:
  001af	c6 45 ef ea	 mov	 BYTE PTR __k$[ebp+11], -22 ; ffffffeaH
  001b3	eb 3e		 jmp	 SHORT $LN1@LoadInt_e@2
$LN86@LoadInt_e@2:
  001b5	c6 45 ee eb	 mov	 BYTE PTR __k$[ebp+10], -21 ; ffffffebH
  001b9	eb 38		 jmp	 SHORT $LN1@LoadInt_e@2
$LN87@LoadInt_e@2:
  001bb	88 4d ed	 mov	 BYTE PTR __k$[ebp+9], cl
  001be	eb 33		 jmp	 SHORT $LN1@LoadInt_e@2
$LN88@LoadInt_e@2:
  001c0	c6 45 ec ed	 mov	 BYTE PTR __k$[ebp+8], -19 ; ffffffedH
  001c4	eb 2d		 jmp	 SHORT $LN1@LoadInt_e@2
$LN89@LoadInt_e@2:
  001c6	c6 45 eb ea	 mov	 BYTE PTR __k$[ebp+7], -22 ; ffffffeaH
  001ca	eb 27		 jmp	 SHORT $LN1@LoadInt_e@2
$LN90@LoadInt_e@2:
  001cc	c6 45 ea eb	 mov	 BYTE PTR __k$[ebp+6], -21 ; ffffffebH
  001d0	eb 21		 jmp	 SHORT $LN1@LoadInt_e@2
$LN91@LoadInt_e@2:
  001d2	88 4d e9	 mov	 BYTE PTR __k$[ebp+5], cl
  001d5	eb 1c		 jmp	 SHORT $LN1@LoadInt_e@2
$LN92@LoadInt_e@2:
  001d7	c6 45 e8 ed	 mov	 BYTE PTR __k$[ebp+4], -19 ; ffffffedH
  001db	eb 16		 jmp	 SHORT $LN1@LoadInt_e@2
$LN93@LoadInt_e@2:
  001dd	c6 45 e7 ea	 mov	 BYTE PTR __k$[ebp+3], -22 ; ffffffeaH
  001e1	eb 10		 jmp	 SHORT $LN1@LoadInt_e@2
$LN94@LoadInt_e@2:
  001e3	c6 45 e6 eb	 mov	 BYTE PTR __k$[ebp+2], -21 ; ffffffebH
  001e7	eb 0a		 jmp	 SHORT $LN1@LoadInt_e@2
$LN95@LoadInt_e@2:
  001e9	c6 45 e5 ec	 mov	 BYTE PTR __k$[ebp+1], -20 ; ffffffecH
  001ed	eb 04		 jmp	 SHORT $LN1@LoadInt_e@2
$LN96@LoadInt_e@2:
  001ef	c6 45 e4 ed	 mov	 BYTE PTR __k$[ebp], -19	; ffffffedH
$LN1@LoadInt_e@2:
  001f3	6a 04		 push	 4
  001f5	8d 45 e4	 lea	 eax, DWORD PTR __k$[ebp]
  001f8	c6 45 f6 00	 mov	 BYTE PTR __k$[ebp+18], 0
  001fc	5a		 pop	 edx
$LL104@LoadInt_e@2:
  001fd	81 30 ed ec eb
	ea		 xor	 DWORD PTR [eax], -353637139 ; eaebecedH
  00203	83 c0 04	 add	 eax, 4
  00206	4a		 dec	 edx
  00207	75 f4		 jne	 SHORT $LL104@LoadInt_e@2
  00209	6a 10		 push	 16			; 00000010H
  0020b	58		 pop	 eax
$LL101@LoadInt_e@2:
  0020c	8b c8		 mov	 ecx, eax
  0020e	81 e1 03 00 00
	80		 and	 ecx, -2147483645	; 80000003H
  00214	79 05		 jns	 SHORT $LN111@LoadInt_e@2
  00216	49		 dec	 ecx
  00217	83 c9 fc	 or	 ecx, -4			; fffffffcH
  0021a	41		 inc	 ecx
$LN111@LoadInt_e@2:
  0021b	b2 ed		 mov	 dl, -19			; ffffffedH
  0021d	2a d1		 sub	 dl, cl
  0021f	30 54 05 e4	 xor	 BYTE PTR __k$[ebp+eax], dl
  00223	40		 inc	 eax
  00224	83 f8 12	 cmp	 eax, 18			; 00000012H
  00227	7c e3		 jl	 SHORT $LL101@LoadInt_e@2

; 120  : 		return LoadInt(_k, i);

  00229	ff 75 0c	 push	 DWORD PTR _i$[ebp]
  0022c	8d 45 e4	 lea	 eax, DWORD PTR __k$[ebp]
  0022f	50		 push	 eax
  00230	8b ce		 mov	 ecx, esi
  00232	ff 15 00 00 00
	00		 call	 DWORD PTR __imp_?LoadInt@ioINILoader@@QAEHPBDH@Z

; 121  : 	}

  00238	8b 4d fc	 mov	 ecx, DWORD PTR __$ArrayPad$[ebp]
  0023b	33 cd		 xor	 ecx, ebp
  0023d	5e		 pop	 esi
  0023e	e8 00 00 00 00	 call	 @__security_check_cookie@4
  00243	c9		 leave
  00244	c2 08 00	 ret	 8
??$LoadInt_e@$0BD@@ioINILoader@@QAEHAAY0BD@$$CBDH@Z ENDP ; ioINILoader::LoadInt_e<19>
_TEXT	ENDS
PUBLIC	__$ArrayPad$
PUBLIC	??$LoadFloat_e@$0BG@@ioINILoader@@QAEMAAY0BG@$$CBDM@Z ; ioINILoader::LoadFloat_e<22>
; Function compile flags: /Ogsp
;	COMDAT ??$LoadFloat_e@$0BG@@ioINILoader@@QAEMAAY0BG@$$CBDM@Z
_TEXT	SEGMENT
__k$ = -32						; size = 22
__$ArrayPad$ = -4					; size = 4
_k$ = 8							; size = 4
_f$ = 12						; size = 4
??$LoadFloat_e@$0BG@@ioINILoader@@QAEMAAY0BG@$$CBDM@Z PROC ; ioINILoader::LoadFloat_e<22>, COMDAT
; _this$ = ecx

; 135  : 	{

  00000	55		 push	 ebp
  00001	8b ec		 mov	 ebp, esp
  00003	83 ec 20	 sub	 esp, 32			; 00000020H
  00006	a1 00 00 00 00	 mov	 eax, DWORD PTR ___security_cookie
  0000b	33 c5		 xor	 eax, ebp
  0000d	89 45 fc	 mov	 DWORD PTR __$ArrayPad$[ebp], eax
  00010	8b 45 08	 mov	 eax, DWORD PTR _k$[ebp]

; 136  : 		_ENCSTR(k, _k);

  00013	8a 10		 mov	 dl, BYTE PTR [eax]
  00015	53		 push	 ebx
  00016	56		 push	 esi
  00017	8b f1		 mov	 esi, ecx
  00019	84 d2		 test	 dl, dl
  0001b	0f 84 15 02 00
	00		 je	 $LN96@LoadFloat_@2
  00021	80 f2 ed	 xor	 dl, -19			; ffffffedH
  00024	88 55 e0	 mov	 BYTE PTR __k$[ebp], dl
  00027	8a 50 01	 mov	 dl, BYTE PTR [eax+1]
  0002a	84 d2		 test	 dl, dl
  0002c	0f 84 fe 01 00
	00		 je	 $LN95@LoadFloat_@2
  00032	80 f2 ec	 xor	 dl, -20			; ffffffecH
  00035	88 55 e1	 mov	 BYTE PTR __k$[ebp+1], dl
  00038	8a 50 02	 mov	 dl, BYTE PTR [eax+2]
  0003b	84 d2		 test	 dl, dl
  0003d	0f 84 e7 01 00
	00		 je	 $LN94@LoadFloat_@2
  00043	b1 eb		 mov	 cl, -21			; ffffffebH
  00045	32 d1		 xor	 dl, cl
  00047	88 55 e2	 mov	 BYTE PTR __k$[ebp+2], dl
  0004a	8a 50 03	 mov	 dl, BYTE PTR [eax+3]
  0004d	84 d2		 test	 dl, dl
  0004f	0f 84 cf 01 00
	00		 je	 $LN93@LoadFloat_@2
  00055	b3 ea		 mov	 bl, -22			; ffffffeaH
  00057	32 d3		 xor	 dl, bl
  00059	88 55 e3	 mov	 BYTE PTR __k$[ebp+3], dl
  0005c	8a 50 04	 mov	 dl, BYTE PTR [eax+4]
  0005f	84 d2		 test	 dl, dl
  00061	0f 84 b7 01 00
	00		 je	 $LN92@LoadFloat_@2
  00067	80 f2 ed	 xor	 dl, -19			; ffffffedH
  0006a	88 55 e4	 mov	 BYTE PTR __k$[ebp+4], dl
  0006d	8a 50 05	 mov	 dl, BYTE PTR [eax+5]
  00070	84 d2		 test	 dl, dl
  00072	0f 84 a0 01 00
	00		 je	 $LN91@LoadFloat_@2
  00078	80 f2 ec	 xor	 dl, -20			; ffffffecH
  0007b	88 55 e5	 mov	 BYTE PTR __k$[ebp+5], dl
  0007e	8a 50 06	 mov	 dl, BYTE PTR [eax+6]
  00081	84 d2		 test	 dl, dl
  00083	0f 84 8a 01 00
	00		 je	 $LN90@LoadFloat_@2
  00089	32 d1		 xor	 dl, cl
  0008b	88 55 e6	 mov	 BYTE PTR __k$[ebp+6], dl
  0008e	8a 50 07	 mov	 dl, BYTE PTR [eax+7]
  00091	84 d2		 test	 dl, dl
  00093	0f 84 75 01 00
	00		 je	 $LN89@LoadFloat_@2
  00099	32 d3		 xor	 dl, bl
  0009b	88 55 e7	 mov	 BYTE PTR __k$[ebp+7], dl
  0009e	8a 50 08	 mov	 dl, BYTE PTR [eax+8]
  000a1	84 d2		 test	 dl, dl
  000a3	0f 84 5f 01 00
	00		 je	 $LN88@LoadFloat_@2
  000a9	80 f2 ed	 xor	 dl, -19			; ffffffedH
  000ac	88 55 e8	 mov	 BYTE PTR __k$[ebp+8], dl
  000af	8a 50 09	 mov	 dl, BYTE PTR [eax+9]
  000b2	84 d2		 test	 dl, dl
  000b4	0f 84 48 01 00
	00		 je	 $LN87@LoadFloat_@2
  000ba	80 f2 ec	 xor	 dl, -20			; ffffffecH
  000bd	88 55 e9	 mov	 BYTE PTR __k$[ebp+9], dl
  000c0	8a 50 0a	 mov	 dl, BYTE PTR [eax+10]
  000c3	84 d2		 test	 dl, dl
  000c5	0f 84 32 01 00
	00		 je	 $LN86@LoadFloat_@2
  000cb	32 d1		 xor	 dl, cl
  000cd	88 55 ea	 mov	 BYTE PTR __k$[ebp+10], dl
  000d0	8a 50 0b	 mov	 dl, BYTE PTR [eax+11]
  000d3	84 d2		 test	 dl, dl
  000d5	0f 84 1d 01 00
	00		 je	 $LN85@LoadFloat_@2
  000db	32 d3		 xor	 dl, bl
  000dd	88 55 eb	 mov	 BYTE PTR __k$[ebp+11], dl
  000e0	8a 50 0c	 mov	 dl, BYTE PTR [eax+12]
  000e3	84 d2		 test	 dl, dl
  000e5	0f 84 07 01 00
	00		 je	 $LN84@LoadFloat_@2
  000eb	80 f2 ed	 xor	 dl, -19			; ffffffedH
  000ee	88 55 ec	 mov	 BYTE PTR __k$[ebp+12], dl
  000f1	8a 50 0d	 mov	 dl, BYTE PTR [eax+13]
  000f4	84 d2		 test	 dl, dl
  000f6	0f 84 f0 00 00
	00		 je	 $LN83@LoadFloat_@2
  000fc	80 f2 ec	 xor	 dl, -20			; ffffffecH
  000ff	88 55 ed	 mov	 BYTE PTR __k$[ebp+13], dl
  00102	8a 50 0e	 mov	 dl, BYTE PTR [eax+14]
  00105	84 d2		 test	 dl, dl
  00107	0f 84 da 00 00
	00		 je	 $LN82@LoadFloat_@2
  0010d	32 d1		 xor	 dl, cl
  0010f	88 55 ee	 mov	 BYTE PTR __k$[ebp+14], dl
  00112	8a 50 0f	 mov	 dl, BYTE PTR [eax+15]
  00115	84 d2		 test	 dl, dl
  00117	0f 84 c5 00 00
	00		 je	 $LN81@LoadFloat_@2
  0011d	32 d3		 xor	 dl, bl
  0011f	88 55 ef	 mov	 BYTE PTR __k$[ebp+15], dl
  00122	8a 50 10	 mov	 dl, BYTE PTR [eax+16]
  00125	84 d2		 test	 dl, dl
  00127	0f 84 af 00 00
	00		 je	 $LN80@LoadFloat_@2
  0012d	80 f2 ed	 xor	 dl, -19			; ffffffedH
  00130	88 55 f0	 mov	 BYTE PTR __k$[ebp+16], dl
  00133	8a 50 11	 mov	 dl, BYTE PTR [eax+17]
  00136	84 d2		 test	 dl, dl
  00138	0f 84 98 00 00
	00		 je	 $LN79@LoadFloat_@2
  0013e	80 f2 ec	 xor	 dl, -20			; ffffffecH
  00141	88 55 f1	 mov	 BYTE PTR __k$[ebp+17], dl
  00144	8a 50 12	 mov	 dl, BYTE PTR [eax+18]
  00147	84 d2		 test	 dl, dl
  00149	0f 84 82 00 00
	00		 je	 $LN78@LoadFloat_@2
  0014f	32 d1		 xor	 dl, cl
  00151	88 55 f2	 mov	 BYTE PTR __k$[ebp+18], dl
  00154	8a 50 13	 mov	 dl, BYTE PTR [eax+19]
  00157	84 d2		 test	 dl, dl
  00159	74 71		 je	 SHORT $LN77@LoadFloat_@2
  0015b	32 d3		 xor	 dl, bl
  0015d	88 55 f3	 mov	 BYTE PTR __k$[ebp+19], dl
  00160	8a 50 14	 mov	 dl, BYTE PTR [eax+20]
  00163	84 d2		 test	 dl, dl
  00165	74 5f		 je	 SHORT $LN76@LoadFloat_@2
  00167	80 f2 ed	 xor	 dl, -19			; ffffffedH
  0016a	80 78 15 00	 cmp	 BYTE PTR [eax+21], 0
  0016e	88 55 f4	 mov	 BYTE PTR __k$[ebp+20], dl
  00171	0f 84 c3 00 00
	00		 je	 $LN1@LoadFloat_@2
  00177	8a 50 16	 mov	 dl, BYTE PTR [eax+22]
  0017a	84 d2		 test	 dl, dl
  0017c	74 43		 je	 SHORT $LN74@LoadFloat_@2
  0017e	32 d1		 xor	 dl, cl
  00180	88 55 f6	 mov	 BYTE PTR __k$[ebp+22], dl
  00183	8a 50 17	 mov	 dl, BYTE PTR [eax+23]
  00186	84 d2		 test	 dl, dl
  00188	74 32		 je	 SHORT $LN73@LoadFloat_@2
  0018a	32 d3		 xor	 dl, bl
  0018c	88 55 f7	 mov	 BYTE PTR __k$[ebp+23], dl
  0018f	8a 50 18	 mov	 dl, BYTE PTR [eax+24]
  00192	84 d2		 test	 dl, dl
  00194	74 20		 je	 SHORT $LN72@LoadFloat_@2
  00196	8a 40 19	 mov	 al, BYTE PTR [eax+25]
  00199	80 f2 ed	 xor	 dl, -19			; ffffffedH
  0019c	88 55 f8	 mov	 BYTE PTR __k$[ebp+24], dl
  0019f	84 c0		 test	 al, al
  001a1	74 0a		 je	 SHORT $LN71@LoadFloat_@2
  001a3	34 ec		 xor	 al, -20			; ffffffecH
  001a5	88 45 f9	 mov	 BYTE PTR __k$[ebp+25], al
  001a8	e9 8d 00 00 00	 jmp	 $LN1@LoadFloat_@2
$LN71@LoadFloat_@2:
  001ad	c6 45 f9 ec	 mov	 BYTE PTR __k$[ebp+25], -20 ; ffffffecH
  001b1	e9 84 00 00 00	 jmp	 $LN1@LoadFloat_@2
$LN72@LoadFloat_@2:
  001b6	c6 45 f8 ed	 mov	 BYTE PTR __k$[ebp+24], -19 ; ffffffedH
  001ba	eb 7e		 jmp	 SHORT $LN1@LoadFloat_@2
$LN73@LoadFloat_@2:
  001bc	88 5d f7	 mov	 BYTE PTR __k$[ebp+23], bl
  001bf	eb 79		 jmp	 SHORT $LN1@LoadFloat_@2
$LN74@LoadFloat_@2:
  001c1	88 4d f6	 mov	 BYTE PTR __k$[ebp+22], cl
  001c4	eb 74		 jmp	 SHORT $LN1@LoadFloat_@2
$LN76@LoadFloat_@2:
  001c6	c6 45 f4 ed	 mov	 BYTE PTR __k$[ebp+20], -19 ; ffffffedH
  001ca	eb 6e		 jmp	 SHORT $LN1@LoadFloat_@2
$LN77@LoadFloat_@2:
  001cc	88 5d f3	 mov	 BYTE PTR __k$[ebp+19], bl
  001cf	eb 69		 jmp	 SHORT $LN1@LoadFloat_@2
$LN78@LoadFloat_@2:
  001d1	88 4d f2	 mov	 BYTE PTR __k$[ebp+18], cl
  001d4	eb 64		 jmp	 SHORT $LN1@LoadFloat_@2
$LN79@LoadFloat_@2:
  001d6	c6 45 f1 ec	 mov	 BYTE PTR __k$[ebp+17], -20 ; ffffffecH
  001da	eb 5e		 jmp	 SHORT $LN1@LoadFloat_@2
$LN80@LoadFloat_@2:
  001dc	c6 45 f0 ed	 mov	 BYTE PTR __k$[ebp+16], -19 ; ffffffedH
  001e0	eb 58		 jmp	 SHORT $LN1@LoadFloat_@2
$LN81@LoadFloat_@2:
  001e2	88 5d ef	 mov	 BYTE PTR __k$[ebp+15], bl
  001e5	eb 53		 jmp	 SHORT $LN1@LoadFloat_@2
$LN82@LoadFloat_@2:
  001e7	88 4d ee	 mov	 BYTE PTR __k$[ebp+14], cl
  001ea	eb 4e		 jmp	 SHORT $LN1@LoadFloat_@2
$LN83@LoadFloat_@2:
  001ec	c6 45 ed ec	 mov	 BYTE PTR __k$[ebp+13], -20 ; ffffffecH
  001f0	eb 48		 jmp	 SHORT $LN1@LoadFloat_@2
$LN84@LoadFloat_@2:
  001f2	c6 45 ec ed	 mov	 BYTE PTR __k$[ebp+12], -19 ; ffffffedH
  001f6	eb 42		 jmp	 SHORT $LN1@LoadFloat_@2
$LN85@LoadFloat_@2:
  001f8	88 5d eb	 mov	 BYTE PTR __k$[ebp+11], bl
  001fb	eb 3d		 jmp	 SHORT $LN1@LoadFloat_@2
$LN86@LoadFloat_@2:
  001fd	88 4d ea	 mov	 BYTE PTR __k$[ebp+10], cl
  00200	eb 38		 jmp	 SHORT $LN1@LoadFloat_@2
$LN87@LoadFloat_@2:
  00202	c6 45 e9 ec	 mov	 BYTE PTR __k$[ebp+9], -20 ; ffffffecH
  00206	eb 32		 jmp	 SHORT $LN1@LoadFloat_@2
$LN88@LoadFloat_@2:
  00208	c6 45 e8 ed	 mov	 BYTE PTR __k$[ebp+8], -19 ; ffffffedH
  0020c	eb 2c		 jmp	 SHORT $LN1@LoadFloat_@2
$LN89@LoadFloat_@2:
  0020e	88 5d e7	 mov	 BYTE PTR __k$[ebp+7], bl
  00211	eb 27		 jmp	 SHORT $LN1@LoadFloat_@2
$LN90@LoadFloat_@2:
  00213	88 4d e6	 mov	 BYTE PTR __k$[ebp+6], cl
  00216	eb 22		 jmp	 SHORT $LN1@LoadFloat_@2
$LN91@LoadFloat_@2:
  00218	c6 45 e5 ec	 mov	 BYTE PTR __k$[ebp+5], -20 ; ffffffecH
  0021c	eb 1c		 jmp	 SHORT $LN1@LoadFloat_@2
$LN92@LoadFloat_@2:
  0021e	c6 45 e4 ed	 mov	 BYTE PTR __k$[ebp+4], -19 ; ffffffedH
  00222	eb 16		 jmp	 SHORT $LN1@LoadFloat_@2
$LN93@LoadFloat_@2:
  00224	c6 45 e3 ea	 mov	 BYTE PTR __k$[ebp+3], -22 ; ffffffeaH
  00228	eb 10		 jmp	 SHORT $LN1@LoadFloat_@2
$LN94@LoadFloat_@2:
  0022a	c6 45 e2 eb	 mov	 BYTE PTR __k$[ebp+2], -21 ; ffffffebH
  0022e	eb 0a		 jmp	 SHORT $LN1@LoadFloat_@2
$LN95@LoadFloat_@2:
  00230	c6 45 e1 ec	 mov	 BYTE PTR __k$[ebp+1], -20 ; ffffffecH
  00234	eb 04		 jmp	 SHORT $LN1@LoadFloat_@2
$LN96@LoadFloat_@2:
  00236	c6 45 e0 ed	 mov	 BYTE PTR __k$[ebp], -19	; ffffffedH
$LN1@LoadFloat_@2:
  0023a	6a 05		 push	 5
  0023c	8d 45 e0	 lea	 eax, DWORD PTR __k$[ebp]
  0023f	c6 45 f5 00	 mov	 BYTE PTR __k$[ebp+21], 0
  00243	5a		 pop	 edx
$LL104@LoadFloat_@2:
  00244	81 30 ed ec eb
	ea		 xor	 DWORD PTR [eax], -353637139 ; eaebecedH
  0024a	83 c0 04	 add	 eax, 4
  0024d	4a		 dec	 edx
  0024e	75 f4		 jne	 SHORT $LL104@LoadFloat_@2

; 137  : 		return LoadFloat(_k, f);

  00250	f3 0f 10 45 0c	 movss	 xmm0, DWORD PTR _f$[ebp]
  00255	80 75 f4 ed	 xor	 BYTE PTR __k$[ebp+20], -19 ; ffffffedH
  00259	51		 push	 ecx
  0025a	8d 45 e0	 lea	 eax, DWORD PTR __k$[ebp]
  0025d	f3 0f 11 04 24	 movss	 DWORD PTR [esp], xmm0
  00262	50		 push	 eax
  00263	8b ce		 mov	 ecx, esi
  00265	ff 15 00 00 00
	00		 call	 DWORD PTR __imp_?LoadFloat@ioINILoader@@QAEMPBDM@Z

; 138  : 	}

  0026b	8b 4d fc	 mov	 ecx, DWORD PTR __$ArrayPad$[ebp]
  0026e	5e		 pop	 esi
  0026f	33 cd		 xor	 ecx, ebp
  00271	5b		 pop	 ebx
  00272	e8 00 00 00 00	 call	 @__security_check_cookie@4
  00277	c9		 leave
  00278	c2 08 00	 ret	 8
??$LoadFloat_e@$0BG@@ioINILoader@@QAEMAAY0BG@$$CBDM@Z ENDP ; ioINILoader::LoadFloat_e<22>
_TEXT	ENDS
PUBLIC	__$ArrayPad$
PUBLIC	??$LoadBool_e@$0BB@@ioINILoader@@QAE_NAAY0BB@$$CBD_N@Z ; ioINILoader::LoadBool_e<17>
; Function compile flags: /Ogsp
;	COMDAT ??$LoadBool_e@$0BB@@ioINILoader@@QAE_NAAY0BB@$$CBD_N@Z
_TEXT	SEGMENT
__k$ = -28						; size = 17
__$ArrayPad$ = -4					; size = 4
_k$ = 8							; size = 4
_b$ = 12						; size = 1
??$LoadBool_e@$0BB@@ioINILoader@@QAE_NAAY0BB@$$CBD_N@Z PROC ; ioINILoader::LoadBool_e<17>, COMDAT
; _this$ = ecx

; 101  : 	{

  00000	55		 push	 ebp
  00001	8b ec		 mov	 ebp, esp
  00003	83 ec 1c	 sub	 esp, 28			; 0000001cH
  00006	a1 00 00 00 00	 mov	 eax, DWORD PTR ___security_cookie
  0000b	33 c5		 xor	 eax, ebp
  0000d	89 45 fc	 mov	 DWORD PTR __$ArrayPad$[ebp], eax
  00010	8b 45 08	 mov	 eax, DWORD PTR _k$[ebp]

; 102  : 		_ENCSTR(k, _k);

  00013	8a 10		 mov	 dl, BYTE PTR [eax]
  00015	56		 push	 esi
  00016	8b f1		 mov	 esi, ecx
  00018	84 d2		 test	 dl, dl
  0001a	0f 84 a7 01 00
	00		 je	 $LN96@LoadBool_e@2
  00020	80 f2 ed	 xor	 dl, -19			; ffffffedH
  00023	88 55 e4	 mov	 BYTE PTR __k$[ebp], dl
  00026	8a 50 01	 mov	 dl, BYTE PTR [eax+1]
  00029	84 d2		 test	 dl, dl
  0002b	0f 84 90 01 00
	00		 je	 $LN95@LoadBool_e@2
  00031	b1 ec		 mov	 cl, -20			; ffffffecH
  00033	32 d1		 xor	 dl, cl
  00035	88 55 e5	 mov	 BYTE PTR __k$[ebp+1], dl
  00038	8a 50 02	 mov	 dl, BYTE PTR [eax+2]
  0003b	84 d2		 test	 dl, dl
  0003d	0f 84 78 01 00
	00		 je	 $LN94@LoadBool_e@2
  00043	80 f2 eb	 xor	 dl, -21			; ffffffebH
  00046	88 55 e6	 mov	 BYTE PTR __k$[ebp+2], dl
  00049	8a 50 03	 mov	 dl, BYTE PTR [eax+3]
  0004c	84 d2		 test	 dl, dl
  0004e	0f 84 61 01 00
	00		 je	 $LN93@LoadBool_e@2
  00054	80 f2 ea	 xor	 dl, -22			; ffffffeaH
  00057	88 55 e7	 mov	 BYTE PTR __k$[ebp+3], dl
  0005a	8a 50 04	 mov	 dl, BYTE PTR [eax+4]
  0005d	84 d2		 test	 dl, dl
  0005f	0f 84 4a 01 00
	00		 je	 $LN92@LoadBool_e@2
  00065	80 f2 ed	 xor	 dl, -19			; ffffffedH
  00068	88 55 e8	 mov	 BYTE PTR __k$[ebp+4], dl
  0006b	8a 50 05	 mov	 dl, BYTE PTR [eax+5]
  0006e	84 d2		 test	 dl, dl
  00070	0f 84 34 01 00
	00		 je	 $LN91@LoadBool_e@2
  00076	32 d1		 xor	 dl, cl
  00078	88 55 e9	 mov	 BYTE PTR __k$[ebp+5], dl
  0007b	8a 50 06	 mov	 dl, BYTE PTR [eax+6]
  0007e	84 d2		 test	 dl, dl
  00080	0f 84 1e 01 00
	00		 je	 $LN90@LoadBool_e@2
  00086	80 f2 eb	 xor	 dl, -21			; ffffffebH
  00089	88 55 ea	 mov	 BYTE PTR __k$[ebp+6], dl
  0008c	8a 50 07	 mov	 dl, BYTE PTR [eax+7]
  0008f	84 d2		 test	 dl, dl
  00091	0f 84 07 01 00
	00		 je	 $LN89@LoadBool_e@2
  00097	80 f2 ea	 xor	 dl, -22			; ffffffeaH
  0009a	88 55 eb	 mov	 BYTE PTR __k$[ebp+7], dl
  0009d	8a 50 08	 mov	 dl, BYTE PTR [eax+8]
  000a0	84 d2		 test	 dl, dl
  000a2	0f 84 f0 00 00
	00		 je	 $LN88@LoadBool_e@2
  000a8	80 f2 ed	 xor	 dl, -19			; ffffffedH
  000ab	88 55 ec	 mov	 BYTE PTR __k$[ebp+8], dl
  000ae	8a 50 09	 mov	 dl, BYTE PTR [eax+9]
  000b1	84 d2		 test	 dl, dl
  000b3	0f 84 da 00 00
	00		 je	 $LN87@LoadBool_e@2
  000b9	32 d1		 xor	 dl, cl
  000bb	88 55 ed	 mov	 BYTE PTR __k$[ebp+9], dl
  000be	8a 50 0a	 mov	 dl, BYTE PTR [eax+10]
  000c1	84 d2		 test	 dl, dl
  000c3	0f 84 c4 00 00
	00		 je	 $LN86@LoadBool_e@2
  000c9	80 f2 eb	 xor	 dl, -21			; ffffffebH
  000cc	88 55 ee	 mov	 BYTE PTR __k$[ebp+10], dl
  000cf	8a 50 0b	 mov	 dl, BYTE PTR [eax+11]
  000d2	84 d2		 test	 dl, dl
  000d4	0f 84 ad 00 00
	00		 je	 $LN85@LoadBool_e@2
  000da	80 f2 ea	 xor	 dl, -22			; ffffffeaH
  000dd	88 55 ef	 mov	 BYTE PTR __k$[ebp+11], dl
  000e0	8a 50 0c	 mov	 dl, BYTE PTR [eax+12]
  000e3	84 d2		 test	 dl, dl
  000e5	0f 84 96 00 00
	00		 je	 $LN84@LoadBool_e@2
  000eb	80 f2 ed	 xor	 dl, -19			; ffffffedH
  000ee	88 55 f0	 mov	 BYTE PTR __k$[ebp+12], dl
  000f1	8a 50 0d	 mov	 dl, BYTE PTR [eax+13]
  000f4	84 d2		 test	 dl, dl
  000f6	0f 84 80 00 00
	00		 je	 $LN83@LoadBool_e@2
  000fc	32 d1		 xor	 dl, cl
  000fe	88 55 f1	 mov	 BYTE PTR __k$[ebp+13], dl
  00101	8a 50 0e	 mov	 dl, BYTE PTR [eax+14]
  00104	84 d2		 test	 dl, dl
  00106	74 6e		 je	 SHORT $LN82@LoadBool_e@2
  00108	80 f2 eb	 xor	 dl, -21			; ffffffebH
  0010b	88 55 f2	 mov	 BYTE PTR __k$[ebp+14], dl
  0010e	8a 50 0f	 mov	 dl, BYTE PTR [eax+15]
  00111	84 d2		 test	 dl, dl
  00113	74 5b		 je	 SHORT $LN81@LoadBool_e@2
  00115	80 f2 ea	 xor	 dl, -22			; ffffffeaH
  00118	80 78 10 00	 cmp	 BYTE PTR [eax+16], 0
  0011c	88 55 f3	 mov	 BYTE PTR __k$[ebp+15], dl
  0011f	0f 84 a6 00 00
	00		 je	 $LN1@LoadBool_e@2
  00125	8a 50 11	 mov	 dl, BYTE PTR [eax+17]
  00128	84 d2		 test	 dl, dl
  0012a	74 3f		 je	 SHORT $LN79@LoadBool_e@2
  0012c	32 d1		 xor	 dl, cl
  0012e	88 55 f5	 mov	 BYTE PTR __k$[ebp+17], dl
  00131	8a 50 12	 mov	 dl, BYTE PTR [eax+18]
  00134	84 d2		 test	 dl, dl
  00136	74 2d		 je	 SHORT $LN78@LoadBool_e@2
  00138	80 f2 eb	 xor	 dl, -21			; ffffffebH
  0013b	88 55 f6	 mov	 BYTE PTR __k$[ebp+18], dl
  0013e	8a 50 13	 mov	 dl, BYTE PTR [eax+19]
  00141	84 d2		 test	 dl, dl
  00143	74 1a		 je	 SHORT $LN77@LoadBool_e@2
  00145	8a 40 14	 mov	 al, BYTE PTR [eax+20]
  00148	80 f2 ea	 xor	 dl, -22			; ffffffeaH
  0014b	88 55 f7	 mov	 BYTE PTR __k$[ebp+19], dl
  0014e	84 c0		 test	 al, al
  00150	74 07		 je	 SHORT $LN76@LoadBool_e@2
  00152	34 ed		 xor	 al, -19			; ffffffedH
  00154	88 45 f8	 mov	 BYTE PTR __k$[ebp+20], al
  00157	eb 72		 jmp	 SHORT $LN1@LoadBool_e@2
$LN76@LoadBool_e@2:
  00159	c6 45 f8 ed	 mov	 BYTE PTR __k$[ebp+20], -19 ; ffffffedH
  0015d	eb 6c		 jmp	 SHORT $LN1@LoadBool_e@2
$LN77@LoadBool_e@2:
  0015f	c6 45 f7 ea	 mov	 BYTE PTR __k$[ebp+19], -22 ; ffffffeaH
  00163	eb 66		 jmp	 SHORT $LN1@LoadBool_e@2
$LN78@LoadBool_e@2:
  00165	c6 45 f6 eb	 mov	 BYTE PTR __k$[ebp+18], -21 ; ffffffebH
  00169	eb 60		 jmp	 SHORT $LN1@LoadBool_e@2
$LN79@LoadBool_e@2:
  0016b	88 4d f5	 mov	 BYTE PTR __k$[ebp+17], cl
  0016e	eb 5b		 jmp	 SHORT $LN1@LoadBool_e@2
$LN81@LoadBool_e@2:
  00170	c6 45 f3 ea	 mov	 BYTE PTR __k$[ebp+15], -22 ; ffffffeaH
  00174	eb 55		 jmp	 SHORT $LN1@LoadBool_e@2
$LN82@LoadBool_e@2:
  00176	c6 45 f2 eb	 mov	 BYTE PTR __k$[ebp+14], -21 ; ffffffebH
  0017a	eb 4f		 jmp	 SHORT $LN1@LoadBool_e@2
$LN83@LoadBool_e@2:
  0017c	88 4d f1	 mov	 BYTE PTR __k$[ebp+13], cl
  0017f	eb 4a		 jmp	 SHORT $LN1@LoadBool_e@2
$LN84@LoadBool_e@2:
  00181	c6 45 f0 ed	 mov	 BYTE PTR __k$[ebp+12], -19 ; ffffffedH
  00185	eb 44		 jmp	 SHORT $LN1@LoadBool_e@2
$LN85@LoadBool_e@2:
  00187	c6 45 ef ea	 mov	 BYTE PTR __k$[ebp+11], -22 ; ffffffeaH
  0018b	eb 3e		 jmp	 SHORT $LN1@LoadBool_e@2
$LN86@LoadBool_e@2:
  0018d	c6 45 ee eb	 mov	 BYTE PTR __k$[ebp+10], -21 ; ffffffebH
  00191	eb 38		 jmp	 SHORT $LN1@LoadBool_e@2
$LN87@LoadBool_e@2:
  00193	88 4d ed	 mov	 BYTE PTR __k$[ebp+9], cl
  00196	eb 33		 jmp	 SHORT $LN1@LoadBool_e@2
$LN88@LoadBool_e@2:
  00198	c6 45 ec ed	 mov	 BYTE PTR __k$[ebp+8], -19 ; ffffffedH
  0019c	eb 2d		 jmp	 SHORT $LN1@LoadBool_e@2
$LN89@LoadBool_e@2:
  0019e	c6 45 eb ea	 mov	 BYTE PTR __k$[ebp+7], -22 ; ffffffeaH
  001a2	eb 27		 jmp	 SHORT $LN1@LoadBool_e@2
$LN90@LoadBool_e@2:
  001a4	c6 45 ea eb	 mov	 BYTE PTR __k$[ebp+6], -21 ; ffffffebH
  001a8	eb 21		 jmp	 SHORT $LN1@LoadBool_e@2
$LN91@LoadBool_e@2:
  001aa	88 4d e9	 mov	 BYTE PTR __k$[ebp+5], cl
  001ad	eb 1c		 jmp	 SHORT $LN1@LoadBool_e@2
$LN92@LoadBool_e@2:
  001af	c6 45 e8 ed	 mov	 BYTE PTR __k$[ebp+4], -19 ; ffffffedH
  001b3	eb 16		 jmp	 SHORT $LN1@LoadBool_e@2
$LN93@LoadBool_e@2:
  001b5	c6 45 e7 ea	 mov	 BYTE PTR __k$[ebp+3], -22 ; ffffffeaH
  001b9	eb 10		 jmp	 SHORT $LN1@LoadBool_e@2
$LN94@LoadBool_e@2:
  001bb	c6 45 e6 eb	 mov	 BYTE PTR __k$[ebp+2], -21 ; ffffffebH
  001bf	eb 0a		 jmp	 SHORT $LN1@LoadBool_e@2
$LN95@LoadBool_e@2:
  001c1	c6 45 e5 ec	 mov	 BYTE PTR __k$[ebp+1], -20 ; ffffffecH
  001c5	eb 04		 jmp	 SHORT $LN1@LoadBool_e@2
$LN96@LoadBool_e@2:
  001c7	c6 45 e4 ed	 mov	 BYTE PTR __k$[ebp], -19	; ffffffedH
$LN1@LoadBool_e@2:
  001cb	6a 04		 push	 4
  001cd	8d 45 e4	 lea	 eax, DWORD PTR __k$[ebp]
  001d0	c6 45 f4 00	 mov	 BYTE PTR __k$[ebp+16], 0
  001d4	5a		 pop	 edx
$LL104@LoadBool_e@2:
  001d5	81 30 ed ec eb
	ea		 xor	 DWORD PTR [eax], -353637139 ; eaebecedH
  001db	83 c0 04	 add	 eax, 4
  001de	4a		 dec	 edx
  001df	75 f4		 jne	 SHORT $LL104@LoadBool_e@2

; 103  : 		return LoadBool(_k, b);

  001e1	ff 75 0c	 push	 DWORD PTR _b$[ebp]
  001e4	8d 45 e4	 lea	 eax, DWORD PTR __k$[ebp]
  001e7	50		 push	 eax
  001e8	8b ce		 mov	 ecx, esi
  001ea	ff 15 00 00 00
	00		 call	 DWORD PTR __imp_?LoadBool@ioINILoader@@QAE_NPBD_N@Z

; 104  : 	}

  001f0	8b 4d fc	 mov	 ecx, DWORD PTR __$ArrayPad$[ebp]
  001f3	33 cd		 xor	 ecx, ebp
  001f5	5e		 pop	 esi
  001f6	e8 00 00 00 00	 call	 @__security_check_cookie@4
  001fb	c9		 leave
  001fc	c2 08 00	 ret	 8
??$LoadBool_e@$0BB@@ioINILoader@@QAE_NAAY0BB@$$CBD_N@Z ENDP ; ioINILoader::LoadBool_e<17>
_TEXT	ENDS
PUBLIC	??$_Cons_val@V?$allocator@UChainInfo@ioChainWeapon@@@std@@UChainInfo@ioChainWeapon@@AAU34@@std@@YAXAAV?$allocator@UChainInfo@ioChainWeapon@@@0@PAUChainInfo@ioChainWeapon@@AAU23@@Z ; std::_Cons_val<std::allocator<ioChainWeapon::ChainInfo>,ioChainWeapon::ChainInfo,ioChainWeapon::ChainInfo &>
; Function compile flags: /Ogsp
; File c:\program files (x86)\microsoft visual studio 10.0\vc\include\xmemory
;	COMDAT ??$_Cons_val@V?$allocator@UChainInfo@ioChainWeapon@@@std@@UChainInfo@ioChainWeapon@@AAU34@@std@@YAXAAV?$allocator@UChainInfo@ioChainWeapon@@@0@PAUChainInfo@ioChainWeapon@@AAU23@@Z
_TEXT	SEGMENT
__Alval$ = 8						; size = 4
__Pdest$ = 12						; size = 4
__Src$ = 16						; size = 4
??$_Cons_val@V?$allocator@UChainInfo@ioChainWeapon@@@std@@UChainInfo@ioChainWeapon@@AAU34@@std@@YAXAAV?$allocator@UChainInfo@ioChainWeapon@@@0@PAUChainInfo@ioChainWeapon@@AAU23@@Z PROC ; std::_Cons_val<std::allocator<ioChainWeapon::ChainInfo>,ioChainWeapon::ChainInfo,ioChainWeapon::ChainInfo &>, COMDAT

; 279  : 	{	// construct using allocator

  00000	55		 push	 ebp
  00001	8b ec		 mov	 ebp, esp

; 280  : 	_Alval.construct(_Pdest, _STD forward<_Ty2>(_Src));

  00003	8b 45 0c	 mov	 eax, DWORD PTR __Pdest$[ebp]
  00006	85 c0		 test	 eax, eax
  00008	74 0d		 je	 SHORT $LN7@Cons_val
  0000a	8b 4d 10	 mov	 ecx, DWORD PTR __Src$[ebp]
  0000d	8b 11		 mov	 edx, DWORD PTR [ecx]
  0000f	89 10		 mov	 DWORD PTR [eax], edx
  00011	8b 49 04	 mov	 ecx, DWORD PTR [ecx+4]
  00014	89 48 04	 mov	 DWORD PTR [eax+4], ecx
$LN7@Cons_val:

; 281  : 	}

  00017	5d		 pop	 ebp
  00018	c3		 ret	 0
??$_Cons_val@V?$allocator@UChainInfo@ioChainWeapon@@@std@@UChainInfo@ioChainWeapon@@AAU34@@std@@YAXAAV?$allocator@UChainInfo@ioChainWeapon@@@0@PAUChainInfo@ioChainWeapon@@AAU23@@Z ENDP ; std::_Cons_val<std::allocator<ioChainWeapon::ChainInfo>,ioChainWeapon::ChainInfo,ioChainWeapon::ChainInfo &>
_TEXT	ENDS
PUBLIC	?construct@?$allocator@H@std@@QAEXPAH$$QAH@Z	; std::allocator<int>::construct
; Function compile flags: /Ogsp
;	COMDAT ?construct@?$allocator@H@std@@QAEXPAH$$QAH@Z
_TEXT	SEGMENT
__Ptr$ = 8						; size = 4
__Val$ = 12						; size = 4
?construct@?$allocator@H@std@@QAEXPAH$$QAH@Z PROC	; std::allocator<int>::construct, COMDAT
; _this$ = ecx

; 201  : 		{	// construct object at _Ptr with value _Val

  00000	55		 push	 ebp
  00001	8b ec		 mov	 ebp, esp

; 202  : 		::new ((void _FARQ *)_Ptr) _Ty(_STD forward<_Ty>(_Val));

  00003	8b 45 08	 mov	 eax, DWORD PTR __Ptr$[ebp]
  00006	85 c0		 test	 eax, eax
  00008	74 07		 je	 SHORT $LN3@construct@2
  0000a	8b 4d 0c	 mov	 ecx, DWORD PTR __Val$[ebp]
  0000d	8b 09		 mov	 ecx, DWORD PTR [ecx]
  0000f	89 08		 mov	 DWORD PTR [eax], ecx
$LN3@construct@2:

; 203  : 		}

  00011	5d		 pop	 ebp
  00012	c2 08 00	 ret	 8
?construct@?$allocator@H@std@@QAEXPAH$$QAH@Z ENDP	; std::allocator<int>::construct
_TEXT	ENDS
PUBLIC	?construct@?$allocator@UChainInfo@ioChainWeapon@@@std@@QAEXPAUChainInfo@ioChainWeapon@@ABU34@@Z ; std::allocator<ioChainWeapon::ChainInfo>::construct
; Function compile flags: /Ogsp
;	COMDAT ?construct@?$allocator@UChainInfo@ioChainWeapon@@@std@@QAEXPAUChainInfo@ioChainWeapon@@ABU34@@Z
_TEXT	SEGMENT
__Ptr$ = 8						; size = 4
__Val$ = 12						; size = 4
?construct@?$allocator@UChainInfo@ioChainWeapon@@@std@@QAEXPAUChainInfo@ioChainWeapon@@ABU34@@Z PROC ; std::allocator<ioChainWeapon::ChainInfo>::construct, COMDAT
; _this$ = ecx

; 196  : 		{	// construct object at _Ptr with value _Val

  00000	55		 push	 ebp
  00001	8b ec		 mov	 ebp, esp

; 197  : 		_Construct(_Ptr, _Val);

  00003	8b 45 08	 mov	 eax, DWORD PTR __Ptr$[ebp]
  00006	85 c0		 test	 eax, eax
  00008	74 0d		 je	 SHORT $LN5@construct@3
  0000a	8b 4d 0c	 mov	 ecx, DWORD PTR __Val$[ebp]
  0000d	8b 11		 mov	 edx, DWORD PTR [ecx]
  0000f	89 10		 mov	 DWORD PTR [eax], edx
  00011	8b 49 04	 mov	 ecx, DWORD PTR [ecx+4]
  00014	89 48 04	 mov	 DWORD PTR [eax+4], ecx
$LN5@construct@3:

; 198  : 		}

  00017	5d		 pop	 ebp
  00018	c2 08 00	 ret	 8
?construct@?$allocator@UChainInfo@ioChainWeapon@@@std@@QAEXPAUChainInfo@ioChainWeapon@@ABU34@@Z ENDP ; std::allocator<ioChainWeapon::ChainInfo>::construct
_TEXT	ENDS
PUBLIC	??$_Move@PAUChainInfo@ioChainWeapon@@PAU12@@std@@YAPAUChainInfo@ioChainWeapon@@PAU12@00U_Nonscalar_ptr_iterator_tag@0@@Z ; std::_Move<ioChainWeapon::ChainInfo *,ioChainWeapon::ChainInfo *>
; Function compile flags: /Ogsp
; File c:\program files (x86)\microsoft visual studio 10.0\vc\include\xutility
;	COMDAT ??$_Move@PAUChainInfo@ioChainWeapon@@PAU12@@std@@YAPAUChainInfo@ioChainWeapon@@PAU12@00U_Nonscalar_ptr_iterator_tag@0@@Z
_TEXT	SEGMENT
__First$ = 8						; size = 4
__Last$ = 12						; size = 4
__Dest$ = 16						; size = 4
___formal$ = 20						; size = 1
??$_Move@PAUChainInfo@ioChainWeapon@@PAU12@@std@@YAPAUChainInfo@ioChainWeapon@@PAU12@00U_Nonscalar_ptr_iterator_tag@0@@Z PROC ; std::_Move<ioChainWeapon::ChainInfo *,ioChainWeapon::ChainInfo *>, COMDAT

; 2512 : 	{	// move [_First, _Last) to [_Dest, ...), arbitrary iterators

  00000	55		 push	 ebp
  00001	8b ec		 mov	 ebp, esp

; 2513 : 	for (; _First != _Last; ++_Dest, ++_First)

  00003	8b 4d 08	 mov	 ecx, DWORD PTR __First$[ebp]
  00006	8b 45 10	 mov	 eax, DWORD PTR __Dest$[ebp]
$LN11@Move:
  00009	3b 4d 0c	 cmp	 ecx, DWORD PTR __Last$[ebp]
  0000c	74 12		 je	 SHORT $LN1@Move

; 2514 : 		*_Dest = _STD move(*_First);

  0000e	8b 11		 mov	 edx, DWORD PTR [ecx]
  00010	89 10		 mov	 DWORD PTR [eax], edx
  00012	8b 51 04	 mov	 edx, DWORD PTR [ecx+4]
  00015	89 50 04	 mov	 DWORD PTR [eax+4], edx
  00018	83 c0 08	 add	 eax, 8
  0001b	83 c1 08	 add	 ecx, 8
  0001e	eb e9		 jmp	 SHORT $LN11@Move
$LN1@Move:

; 2515 : 	return (_Dest);
; 2516 : 	}

  00020	5d		 pop	 ebp
  00021	c3		 ret	 0
??$_Move@PAUChainInfo@ioChainWeapon@@PAU12@@std@@YAPAUChainInfo@ioChainWeapon@@PAU12@00U_Nonscalar_ptr_iterator_tag@0@@Z ENDP ; std::_Move<ioChainWeapon::ChainInfo *,ioChainWeapon::ChainInfo *>
_TEXT	ENDS
PUBLIC	?destroy@?$allocator@UChainInfo@ioChainWeapon@@@std@@QAEXPAUChainInfo@ioChainWeapon@@@Z ; std::allocator<ioChainWeapon::ChainInfo>::destroy
; Function compile flags: /Ogsp
; File c:\program files (x86)\microsoft visual studio 10.0\vc\include\xmemory
;	COMDAT ?destroy@?$allocator@UChainInfo@ioChainWeapon@@@std@@QAEXPAUChainInfo@ioChainWeapon@@@Z
_TEXT	SEGMENT
__Ptr$ = 8						; size = 4
?destroy@?$allocator@UChainInfo@ioChainWeapon@@@std@@QAEXPAUChainInfo@ioChainWeapon@@@Z PROC ; std::allocator<ioChainWeapon::ChainInfo>::destroy, COMDAT
; _this$ = ecx

; 213  : 		_Destroy(_Ptr);
; 214  : 		}

  00000	c2 04 00	 ret	 4
?destroy@?$allocator@UChainInfo@ioChainWeapon@@@std@@QAEXPAUChainInfo@ioChainWeapon@@@Z ENDP ; std::allocator<ioChainWeapon::ChainInfo>::destroy
_TEXT	ENDS
PUBLIC	?construct@?$allocator@UChainInfo@ioChainWeapon@@@std@@QAEXPAUChainInfo@ioChainWeapon@@$$QAU34@@Z ; std::allocator<ioChainWeapon::ChainInfo>::construct
; Function compile flags: /Ogsp
;	COMDAT ?construct@?$allocator@UChainInfo@ioChainWeapon@@@std@@QAEXPAUChainInfo@ioChainWeapon@@$$QAU34@@Z
_TEXT	SEGMENT
__Ptr$ = 8						; size = 4
__Val$ = 12						; size = 4
?construct@?$allocator@UChainInfo@ioChainWeapon@@@std@@QAEXPAUChainInfo@ioChainWeapon@@$$QAU34@@Z PROC ; std::allocator<ioChainWeapon::ChainInfo>::construct, COMDAT
; _this$ = ecx

; 201  : 		{	// construct object at _Ptr with value _Val

  00000	55		 push	 ebp
  00001	8b ec		 mov	 ebp, esp

; 202  : 		::new ((void _FARQ *)_Ptr) _Ty(_STD forward<_Ty>(_Val));

  00003	8b 45 08	 mov	 eax, DWORD PTR __Ptr$[ebp]
  00006	85 c0		 test	 eax, eax
  00008	74 0d		 je	 SHORT $LN3@construct@4
  0000a	8b 4d 0c	 mov	 ecx, DWORD PTR __Val$[ebp]
  0000d	8b 11		 mov	 edx, DWORD PTR [ecx]
  0000f	89 10		 mov	 DWORD PTR [eax], edx
  00011	8b 49 04	 mov	 ecx, DWORD PTR [ecx+4]
  00014	89 48 04	 mov	 DWORD PTR [eax+4], ecx
$LN3@construct@4:

; 203  : 		}

  00017	5d		 pop	 ebp
  00018	c2 08 00	 ret	 8
?construct@?$allocator@UChainInfo@ioChainWeapon@@@std@@QAEXPAUChainInfo@ioChainWeapon@@$$QAU34@@Z ENDP ; std::allocator<ioChainWeapon::ChainInfo>::construct
_TEXT	ENDS
PUBLIC	??0?$CEncrypt@M@@QAE@XZ				; CEncrypt<float>::CEncrypt<float>
EXTRN	??0ccddaabb@@QAE@XZ:PROC			; ccddaabb::ccddaabb
EXTRN	___CxxFrameHandler3:PROC
EXTRN	__EH_epilog3:PROC
EXTRN	__EH_prolog3:PROC
;	COMDAT xdata$x
; File d:\lost saga for developer\youtube\tutorial\source\src\lsclient\encryptvalue.h
xdata$x	SEGMENT
__unwindtable$??0?$CEncrypt@M@@QAE@XZ DD 0ffffffffH
	DD	FLAT:__unwindfunclet$??0?$CEncrypt@M@@QAE@XZ$0
__ehfuncinfo$??0?$CEncrypt@M@@QAE@XZ DD 019930522H
	DD	01H
	DD	FLAT:__unwindtable$??0?$CEncrypt@M@@QAE@XZ
	DD	2 DUP(00H)
	DD	2 DUP(00H)
	DD	00H
	DD	01H
; Function compile flags: /Ogsp
xdata$x	ENDS
;	COMDAT ??0?$CEncrypt@M@@QAE@XZ
_TEXT	SEGMENT
_this$ = -16						; size = 4
__$EHRec$ = -12						; size = 12
??0?$CEncrypt@M@@QAE@XZ PROC				; CEncrypt<float>::CEncrypt<float>, COMDAT
; _this$ = ecx

; 109  : 	CEncrypt()

  00000	6a 04		 push	 4
  00002	b8 00 00 00 00	 mov	 eax, __ehhandler$??0?$CEncrypt@M@@QAE@XZ
  00007	e8 00 00 00 00	 call	 __EH_prolog3
  0000c	8b f1		 mov	 esi, ecx
  0000e	89 75 f0	 mov	 DWORD PTR _this$[ebp], esi
  00011	8d 4e 0c	 lea	 ecx, DWORD PTR [esi+12]
  00014	c7 06 00 00 00
	00		 mov	 DWORD PTR [esi], OFFSET ??_7?$CEncrypt@M@@6B@
  0001a	e8 00 00 00 00	 call	 ??0ccddaabb@@QAE@XZ	; ccddaabb::ccddaabb
  0001f	83 65 fc 00	 and	 DWORD PTR __$EHRec$[ebp+8], 0

; 110  : 	{
; 111  : 		Init();

  00023	8b ce		 mov	 ecx, esi
  00025	e8 00 00 00 00	 call	 ?Init@?$CEncrypt@M@@AAEXXZ ; CEncrypt<float>::Init

; 112  : 	}

  0002a	8b c6		 mov	 eax, esi
  0002c	e8 00 00 00 00	 call	 __EH_epilog3
  00031	c3		 ret	 0
_TEXT	ENDS
;	COMDAT text$x
text$x	SEGMENT
__unwindfunclet$??0?$CEncrypt@M@@QAE@XZ$0:
  00000	8b 4d f0	 mov	 ecx, DWORD PTR _this$[ebp]
  00003	83 c1 0c	 add	 ecx, 12			; 0000000cH
  00006	e9 00 00 00 00	 jmp	 ??1ccddaabb@@UAE@XZ	; ccddaabb::~ccddaabb
__ehhandler$??0?$CEncrypt@M@@QAE@XZ:
  0000b	8b 54 24 08	 mov	 edx, DWORD PTR [esp+8]
  0000f	8d 42 0c	 lea	 eax, DWORD PTR [edx+12]
  00012	8b 4a ec	 mov	 ecx, DWORD PTR [edx-20]
  00015	33 c8		 xor	 ecx, eax
  00017	e8 00 00 00 00	 call	 @__security_check_cookie@4
  0001c	b8 00 00 00 00	 mov	 eax, OFFSET __ehfuncinfo$??0?$CEncrypt@M@@QAE@XZ
  00021	e9 00 00 00 00	 jmp	 ___CxxFrameHandler3
text$x	ENDS
??0?$CEncrypt@M@@QAE@XZ ENDP				; CEncrypt<float>::CEncrypt<float>
PUBLIC	??B?$CEncrypt@M@@QAEMXZ				; CEncrypt<float>::operator float
; Function compile flags: /Ogsp
;	COMDAT ??B?$CEncrypt@M@@QAEMXZ
_TEXT	SEGMENT
_value$ = -4						; size = 4
??B?$CEncrypt@M@@QAEMXZ PROC				; CEncrypt<float>::operator float, COMDAT
; _this$ = ecx

; 134  : 	{

  00000	55		 push	 ebp
  00001	8b ec		 mov	 ebp, esp
  00003	51		 push	 ecx

; 135  : 		type value;
; 136  : 		DecryptValueToPool(&value);

  00004	8d 45 fc	 lea	 eax, DWORD PTR _value$[ebp]
  00007	50		 push	 eax
  00008	e8 00 00 00 00	 call	 ?DecryptValueToPool@?$CEncrypt@M@@QAEXPAM@Z ; CEncrypt<float>::DecryptValueToPool

; 137  : 
; 138  : #ifdef _NOTUSE
; 139  : 		Debug();
; 140  : #endif
; 141  : 		return value;

  0000d	d9 45 fc	 fld	 DWORD PTR _value$[ebp]

; 142  : 	}

  00010	c9		 leave
  00011	c3		 ret	 0
??B?$CEncrypt@M@@QAEMXZ ENDP				; CEncrypt<float>::operator float
_TEXT	ENDS
PUBLIC	??4?$CEncrypt@M@@QAEMM@Z			; CEncrypt<float>::operator=
; Function compile flags: /Ogsp
;	COMDAT ??4?$CEncrypt@M@@QAEMM@Z
_TEXT	SEGMENT
_value$ = 8						; size = 4
_inValue$ = 8						; size = 4
??4?$CEncrypt@M@@QAEMM@Z PROC				; CEncrypt<float>::operator=, COMDAT
; _this$ = ecx

; 1654 : 	{	

  00000	55		 push	 ebp
  00001	8b ec		 mov	 ebp, esp

; 1655 : 		type value = inValue;

  00003	d9 45 08	 fld	 DWORD PTR _inValue$[ebp]

; 1656 : 		EncryptValueToPool((char*)&value);

  00006	8d 45 08	 lea	 eax, DWORD PTR _value$[ebp]
  00009	50		 push	 eax
  0000a	d9 5d 08	 fstp	 DWORD PTR _value$[ebp]
  0000d	e8 00 00 00 00	 call	 ?EncryptValueToPool@?$CEncrypt@M@@AAEXPBD@Z ; CEncrypt<float>::EncryptValueToPool

; 1657 : #ifdef _NOTUSE
; 1658 : 		m_value = inValue;
; 1659 : 		Debug();
; 1660 : #endif
; 1661 : 		return value;

  00012	d9 45 08	 fld	 DWORD PTR _value$[ebp]

; 1662 : 	}

  00015	5d		 pop	 ebp
  00016	c2 04 00	 ret	 4
??4?$CEncrypt@M@@QAEMM@Z ENDP				; CEncrypt<float>::operator=
_TEXT	ENDS
PUBLIC	??O?$CEncrypt@M@@QAE_NABM@Z			; CEncrypt<float>::operator>
; Function compile flags: /Ogsp
;	COMDAT ??O?$CEncrypt@M@@QAE_NABM@Z
_TEXT	SEGMENT
_value$ = -4						; size = 4
_inValue$ = 8						; size = 4
??O?$CEncrypt@M@@QAE_NABM@Z PROC			; CEncrypt<float>::operator>, COMDAT
; _this$ = ecx

; 1811 : 	{

  00000	55		 push	 ebp
  00001	8b ec		 mov	 ebp, esp
  00003	51		 push	 ecx

; 1812 : 		type value;
; 1813 : 		DecryptValueToPool(&value);

  00004	8d 45 fc	 lea	 eax, DWORD PTR _value$[ebp]
  00007	50		 push	 eax
  00008	e8 00 00 00 00	 call	 ?DecryptValueToPool@?$CEncrypt@M@@QAEXPAM@Z ; CEncrypt<float>::DecryptValueToPool

; 1814 : #ifdef _NOTUSE
; 1815 : 		Debug();
; 1816 : #endif
; 1817 : 		return (value > inValue);

  0000d	8b 45 08	 mov	 eax, DWORD PTR _inValue$[ebp]
  00010	f3 0f 10 08	 movss	 xmm1, DWORD PTR [eax]
  00014	f3 0f 10 45 fc	 movss	 xmm0, DWORD PTR _value$[ebp]
  00019	0f 5a c0	 cvtps2pd xmm0, xmm0
  0001c	0f 5a c9	 cvtps2pd xmm1, xmm1
  0001f	33 c0		 xor	 eax, eax
  00021	66 0f 2f c1	 comisd	 xmm0, xmm1
  00025	76 01		 jbe	 SHORT $LN4@operator
  00027	40		 inc	 eax
$LN4@operator:

; 1818 : 	}		

  00028	c9		 leave
  00029	c2 04 00	 ret	 4
??O?$CEncrypt@M@@QAE_NABM@Z ENDP			; CEncrypt<float>::operator>
_TEXT	ENDS
PUBLIC	??0?$CEncrypt@_N@@QAE@XZ			; CEncrypt<bool>::CEncrypt<bool>
;	COMDAT xdata$x
xdata$x	SEGMENT
__unwindtable$??0?$CEncrypt@_N@@QAE@XZ DD 0ffffffffH
	DD	FLAT:__unwindfunclet$??0?$CEncrypt@_N@@QAE@XZ$0
__ehfuncinfo$??0?$CEncrypt@_N@@QAE@XZ DD 019930522H
	DD	01H
	DD	FLAT:__unwindtable$??0?$CEncrypt@_N@@QAE@XZ
	DD	2 DUP(00H)
	DD	2 DUP(00H)
	DD	00H
	DD	01H
; Function compile flags: /Ogsp
xdata$x	ENDS
;	COMDAT ??0?$CEncrypt@_N@@QAE@XZ
_TEXT	SEGMENT
_this$ = -16						; size = 4
__$EHRec$ = -12						; size = 12
??0?$CEncrypt@_N@@QAE@XZ PROC				; CEncrypt<bool>::CEncrypt<bool>, COMDAT
; _this$ = ecx

; 109  : 	CEncrypt()

  00000	6a 04		 push	 4
  00002	b8 00 00 00 00	 mov	 eax, __ehhandler$??0?$CEncrypt@_N@@QAE@XZ
  00007	e8 00 00 00 00	 call	 __EH_prolog3
  0000c	8b f1		 mov	 esi, ecx
  0000e	89 75 f0	 mov	 DWORD PTR _this$[ebp], esi
  00011	8d 4e 0c	 lea	 ecx, DWORD PTR [esi+12]
  00014	c7 06 00 00 00
	00		 mov	 DWORD PTR [esi], OFFSET ??_7?$CEncrypt@_N@@6B@
  0001a	e8 00 00 00 00	 call	 ??0ccddaabb@@QAE@XZ	; ccddaabb::ccddaabb
  0001f	83 65 fc 00	 and	 DWORD PTR __$EHRec$[ebp+8], 0

; 110  : 	{
; 111  : 		Init();

  00023	8b ce		 mov	 ecx, esi
  00025	e8 00 00 00 00	 call	 ?Init@?$CEncrypt@_N@@AAEXXZ ; CEncrypt<bool>::Init

; 112  : 	}

  0002a	8b c6		 mov	 eax, esi
  0002c	e8 00 00 00 00	 call	 __EH_epilog3
  00031	c3		 ret	 0
_TEXT	ENDS
;	COMDAT text$x
text$x	SEGMENT
__unwindfunclet$??0?$CEncrypt@_N@@QAE@XZ$0:
  00000	8b 4d f0	 mov	 ecx, DWORD PTR _this$[ebp]
  00003	83 c1 0c	 add	 ecx, 12			; 0000000cH
  00006	e9 00 00 00 00	 jmp	 ??1ccddaabb@@UAE@XZ	; ccddaabb::~ccddaabb
__ehhandler$??0?$CEncrypt@_N@@QAE@XZ:
  0000b	8b 54 24 08	 mov	 edx, DWORD PTR [esp+8]
  0000f	8d 42 0c	 lea	 eax, DWORD PTR [edx+12]
  00012	8b 4a ec	 mov	 ecx, DWORD PTR [edx-20]
  00015	33 c8		 xor	 ecx, eax
  00017	e8 00 00 00 00	 call	 @__security_check_cookie@4
  0001c	b8 00 00 00 00	 mov	 eax, OFFSET __ehfuncinfo$??0?$CEncrypt@_N@@QAE@XZ
  00021	e9 00 00 00 00	 jmp	 ___CxxFrameHandler3
text$x	ENDS
??0?$CEncrypt@_N@@QAE@XZ ENDP				; CEncrypt<bool>::CEncrypt<bool>
PUBLIC	??B?$CEncrypt@_N@@QAE_NXZ			; CEncrypt<bool>::operator bool
; Function compile flags: /Ogsp
;	COMDAT ??B?$CEncrypt@_N@@QAE_NXZ
_TEXT	SEGMENT
_value$ = -1						; size = 1
??B?$CEncrypt@_N@@QAE_NXZ PROC				; CEncrypt<bool>::operator bool, COMDAT
; _this$ = ecx

; 134  : 	{

  00000	55		 push	 ebp
  00001	8b ec		 mov	 ebp, esp
  00003	51		 push	 ecx

; 135  : 		type value;
; 136  : 		DecryptValueToPool(&value);

  00004	8d 45 ff	 lea	 eax, DWORD PTR _value$[ebp]
  00007	50		 push	 eax
  00008	e8 00 00 00 00	 call	 ?DecryptValueToPool@?$CEncrypt@_N@@QAEXPA_N@Z ; CEncrypt<bool>::DecryptValueToPool

; 137  : 
; 138  : #ifdef _NOTUSE
; 139  : 		Debug();
; 140  : #endif
; 141  : 		return value;

  0000d	8a 45 ff	 mov	 al, BYTE PTR _value$[ebp]

; 142  : 	}

  00010	c9		 leave
  00011	c3		 ret	 0
??B?$CEncrypt@_N@@QAE_NXZ ENDP				; CEncrypt<bool>::operator bool
_TEXT	ENDS
PUBLIC	??4?$CEncrypt@_N@@QAE_N_N@Z			; CEncrypt<bool>::operator=
; Function compile flags: /Ogsp
;	COMDAT ??4?$CEncrypt@_N@@QAE_N_N@Z
_TEXT	SEGMENT
_inValue$ = 8						; size = 1
_value$ = 11						; size = 1
??4?$CEncrypt@_N@@QAE_N_N@Z PROC			; CEncrypt<bool>::operator=, COMDAT
; _this$ = ecx

; 225  : 	{

  00000	55		 push	 ebp
  00001	8b ec		 mov	 ebp, esp

; 226  : 		type value = inValue;

  00003	8a 45 08	 mov	 al, BYTE PTR _inValue$[ebp]
  00006	88 45 0b	 mov	 BYTE PTR _value$[ebp], al

; 227  : 		EncryptValueToPool((char*)&value);

  00009	8d 45 0b	 lea	 eax, DWORD PTR _value$[ebp]
  0000c	50		 push	 eax
  0000d	e8 00 00 00 00	 call	 ?EncryptValueToPool@?$CEncrypt@_N@@AAEXPBD@Z ; CEncrypt<bool>::EncryptValueToPool

; 228  : #ifdef _NOTUSE
; 229  : 		m_value = inValue;
; 230  : 		Debug();
; 231  : #endif
; 232  : 		return value;

  00012	8a 45 0b	 mov	 al, BYTE PTR _value$[ebp]

; 233  : 	}

  00015	5d		 pop	 ebp
  00016	c2 04 00	 ret	 4
??4?$CEncrypt@_N@@QAE_N_N@Z ENDP			; CEncrypt<bool>::operator=
_TEXT	ENDS
PUBLIC	??0?$CEncrypt@H@@QAE@XZ				; CEncrypt<int>::CEncrypt<int>
;	COMDAT xdata$x
xdata$x	SEGMENT
__unwindtable$??0?$CEncrypt@H@@QAE@XZ DD 0ffffffffH
	DD	FLAT:__unwindfunclet$??0?$CEncrypt@H@@QAE@XZ$0
__ehfuncinfo$??0?$CEncrypt@H@@QAE@XZ DD 019930522H
	DD	01H
	DD	FLAT:__unwindtable$??0?$CEncrypt@H@@QAE@XZ
	DD	2 DUP(00H)
	DD	2 DUP(00H)
	DD	00H
	DD	01H
; Function compile flags: /Ogsp
xdata$x	ENDS
;	COMDAT ??0?$CEncrypt@H@@QAE@XZ
_TEXT	SEGMENT
_this$ = -16						; size = 4
__$EHRec$ = -12						; size = 12
??0?$CEncrypt@H@@QAE@XZ PROC				; CEncrypt<int>::CEncrypt<int>, COMDAT
; _this$ = ecx

; 109  : 	CEncrypt()

  00000	6a 04		 push	 4
  00002	b8 00 00 00 00	 mov	 eax, __ehhandler$??0?$CEncrypt@H@@QAE@XZ
  00007	e8 00 00 00 00	 call	 __EH_prolog3
  0000c	8b f1		 mov	 esi, ecx
  0000e	89 75 f0	 mov	 DWORD PTR _this$[ebp], esi
  00011	8d 4e 0c	 lea	 ecx, DWORD PTR [esi+12]
  00014	c7 06 00 00 00
	00		 mov	 DWORD PTR [esi], OFFSET ??_7?$CEncrypt@H@@6B@
  0001a	e8 00 00 00 00	 call	 ??0ccddaabb@@QAE@XZ	; ccddaabb::ccddaabb
  0001f	83 65 fc 00	 and	 DWORD PTR __$EHRec$[ebp+8], 0

; 110  : 	{
; 111  : 		Init();

  00023	8b ce		 mov	 ecx, esi
  00025	e8 00 00 00 00	 call	 ?Init@?$CEncrypt@H@@AAEXXZ ; CEncrypt<int>::Init

; 112  : 	}

  0002a	8b c6		 mov	 eax, esi
  0002c	e8 00 00 00 00	 call	 __EH_epilog3
  00031	c3		 ret	 0
_TEXT	ENDS
;	COMDAT text$x
text$x	SEGMENT
__unwindfunclet$??0?$CEncrypt@H@@QAE@XZ$0:
  00000	8b 4d f0	 mov	 ecx, DWORD PTR _this$[ebp]
  00003	83 c1 0c	 add	 ecx, 12			; 0000000cH
  00006	e9 00 00 00 00	 jmp	 ??1ccddaabb@@UAE@XZ	; ccddaabb::~ccddaabb
__ehhandler$??0?$CEncrypt@H@@QAE@XZ:
  0000b	8b 54 24 08	 mov	 edx, DWORD PTR [esp+8]
  0000f	8d 42 0c	 lea	 eax, DWORD PTR [edx+12]
  00012	8b 4a ec	 mov	 ecx, DWORD PTR [edx-20]
  00015	33 c8		 xor	 ecx, eax
  00017	e8 00 00 00 00	 call	 @__security_check_cookie@4
  0001c	b8 00 00 00 00	 mov	 eax, OFFSET __ehfuncinfo$??0?$CEncrypt@H@@QAE@XZ
  00021	e9 00 00 00 00	 jmp	 ___CxxFrameHandler3
text$x	ENDS
??0?$CEncrypt@H@@QAE@XZ ENDP				; CEncrypt<int>::CEncrypt<int>
PUBLIC	??B?$CEncrypt@H@@QAEHXZ				; CEncrypt<int>::operator int
; Function compile flags: /Ogsp
;	COMDAT ??B?$CEncrypt@H@@QAEHXZ
_TEXT	SEGMENT
_value$ = -4						; size = 4
??B?$CEncrypt@H@@QAEHXZ PROC				; CEncrypt<int>::operator int, COMDAT
; _this$ = ecx

; 134  : 	{

  00000	55		 push	 ebp
  00001	8b ec		 mov	 ebp, esp
  00003	51		 push	 ecx

; 135  : 		type value;
; 136  : 		DecryptValueToPool(&value);

  00004	8d 45 fc	 lea	 eax, DWORD PTR _value$[ebp]
  00007	50		 push	 eax
  00008	e8 00 00 00 00	 call	 ?DecryptValueToPool@?$CEncrypt@H@@QAEXPAH@Z ; CEncrypt<int>::DecryptValueToPool

; 137  : 
; 138  : #ifdef _NOTUSE
; 139  : 		Debug();
; 140  : #endif
; 141  : 		return value;

  0000d	8b 45 fc	 mov	 eax, DWORD PTR _value$[ebp]

; 142  : 	}

  00010	c9		 leave
  00011	c3		 ret	 0
??B?$CEncrypt@H@@QAEHXZ ENDP				; CEncrypt<int>::operator int
_TEXT	ENDS
PUBLIC	??4?$CEncrypt@H@@QAEHH@Z			; CEncrypt<int>::operator=
; Function compile flags: /Ogsp
;	COMDAT ??4?$CEncrypt@H@@QAEHH@Z
_TEXT	SEGMENT
_value$ = 8						; size = 4
_inValue$ = 8						; size = 4
??4?$CEncrypt@H@@QAEHH@Z PROC				; CEncrypt<int>::operator=, COMDAT
; _this$ = ecx

; 843  : 	{

  00000	55		 push	 ebp
  00001	8b ec		 mov	 ebp, esp

; 844  : 		type value = inValue;

  00003	8b 45 08	 mov	 eax, DWORD PTR _inValue$[ebp]
  00006	89 45 08	 mov	 DWORD PTR _value$[ebp], eax

; 845  : 		EncryptValueToPool((char*)&value);

  00009	8d 45 08	 lea	 eax, DWORD PTR _value$[ebp]
  0000c	50		 push	 eax
  0000d	e8 00 00 00 00	 call	 ?EncryptValueToPool@?$CEncrypt@H@@AAEXPBD@Z ; CEncrypt<int>::EncryptValueToPool

; 846  : #ifdef _NOTUSE
; 847  : 		m_value = inValue;
; 848  : 		Debug();
; 849  : #endif
; 850  : 		return value;

  00012	8b 45 08	 mov	 eax, DWORD PTR _value$[ebp]

; 851  : 	}

  00015	5d		 pop	 ebp
  00016	c2 04 00	 ret	 4
??4?$CEncrypt@H@@QAEHH@Z ENDP				; CEncrypt<int>::operator=
_TEXT	ENDS
PUBLIC	??0?$_Vector_val@HV?$allocator@H@std@@@std@@QAE@V?$allocator@H@1@@Z ; std::_Vector_val<int,std::allocator<int> >::_Vector_val<int,std::allocator<int> >
; Function compile flags: /Ogsp
; File c:\program files (x86)\microsoft visual studio 10.0\vc\include\vector
;	COMDAT ??0?$_Vector_val@HV?$allocator@H@std@@@std@@QAE@V?$allocator@H@1@@Z
_TEXT	SEGMENT
__Al$ = 8						; size = 1
??0?$_Vector_val@HV?$allocator@H@std@@@std@@QAE@V?$allocator@H@1@@Z PROC ; std::_Vector_val<int,std::allocator<int> >::_Vector_val<int,std::allocator<int> >, COMDAT
; _this$ = ecx

; 426  : 		{	// construct allocator from _Al

  00000	8b c1		 mov	 eax, ecx

; 427  : 		_Myfirst = 0;

  00002	33 c9		 xor	 ecx, ecx
  00004	89 08		 mov	 DWORD PTR [eax], ecx

; 428  : 		_Mylast = 0;

  00006	89 48 04	 mov	 DWORD PTR [eax+4], ecx

; 429  : 		_Myend = 0;

  00009	89 48 08	 mov	 DWORD PTR [eax+8], ecx

; 430  : 		}

  0000c	c2 04 00	 ret	 4
??0?$_Vector_val@HV?$allocator@H@std@@@std@@QAE@V?$allocator@H@1@@Z ENDP ; std::_Vector_val<int,std::allocator<int> >::_Vector_val<int,std::allocator<int> >
_TEXT	ENDS
PUBLIC	?max_size@?$vector@HV?$allocator@H@std@@@std@@QBEIXZ ; std::vector<int,std::allocator<int> >::max_size
; Function compile flags: /Ogsp
;	COMDAT ?max_size@?$vector@HV?$allocator@H@std@@@std@@QBEIXZ
_TEXT	SEGMENT
?max_size@?$vector@HV?$allocator@H@std@@@std@@QBEIXZ PROC ; std::vector<int,std::allocator<int> >::max_size, COMDAT
; _this$ = ecx

; 884  : 		return (this->_Alval.max_size());

  00000	b8 ff ff ff 3f	 mov	 eax, 1073741823		; 3fffffffH

; 885  : 		}

  00005	c3		 ret	 0
?max_size@?$vector@HV?$allocator@H@std@@@std@@QBEIXZ ENDP ; std::vector<int,std::allocator<int> >::max_size
_TEXT	ENDS
PUBLIC	?_Grow_to@?$vector@HV?$allocator@H@std@@@std@@IBEII@Z ; std::vector<int,std::allocator<int> >::_Grow_to
; Function compile flags: /Ogsp
;	COMDAT ?_Grow_to@?$vector@HV?$allocator@H@std@@@std@@IBEII@Z
_TEXT	SEGMENT
__Count$ = 8						; size = 4
?_Grow_to@?$vector@HV?$allocator@H@std@@@std@@IBEII@Z PROC ; std::vector<int,std::allocator<int> >::_Grow_to, COMDAT
; _this$ = ecx

; 1274 : 		{	// grow by 50% or at least to _Count

  00000	55		 push	 ebp
  00001	8b ec		 mov	 ebp, esp

; 1275 : 		size_type _Capacity = capacity();

  00003	8b 41 08	 mov	 eax, DWORD PTR [ecx+8]
  00006	2b 01		 sub	 eax, DWORD PTR [ecx]

; 1276 : 
; 1277 : 		_Capacity = max_size() - _Capacity / 2 < _Capacity
; 1278 : 			? 0 : _Capacity + _Capacity / 2;	// try to grow by 50%

  00008	ba ff ff ff 3f	 mov	 edx, 1073741823		; 3fffffffH
  0000d	c1 f8 02	 sar	 eax, 2
  00010	8b c8		 mov	 ecx, eax
  00012	d1 e9		 shr	 ecx, 1
  00014	2b d1		 sub	 edx, ecx
  00016	3b d0		 cmp	 edx, eax
  00018	73 04		 jae	 SHORT $LN4@Grow_to@2
  0001a	33 c0		 xor	 eax, eax
  0001c	eb 02		 jmp	 SHORT $LN5@Grow_to@2
$LN4@Grow_to@2:
  0001e	03 c1		 add	 eax, ecx
$LN5@Grow_to@2:

; 1279 : 		if (_Capacity < _Count)

  00020	3b 45 08	 cmp	 eax, DWORD PTR __Count$[ebp]

; 1280 : 			_Capacity = _Count;

  00023	0f 42 45 08	 cmovb	 eax, DWORD PTR __Count$[ebp]

; 1281 : 		return (_Capacity);
; 1282 : 		}

  00027	5d		 pop	 ebp
  00028	c2 04 00	 ret	 4
?_Grow_to@?$vector@HV?$allocator@H@std@@@std@@IBEII@Z ENDP ; std::vector<int,std::allocator<int> >::_Grow_to
_TEXT	ENDS
PUBLIC	?allocate@?$allocator@H@std@@QAEPAHI@Z		; std::allocator<int>::allocate
; Function compile flags: /Ogsp
; File c:\program files (x86)\microsoft visual studio 10.0\vc\include\xmemory
;	COMDAT ?allocate@?$allocator@H@std@@QAEPAHI@Z
_TEXT	SEGMENT
__Count$ = 8						; size = 4
?allocate@?$allocator@H@std@@QAEPAHI@Z PROC		; std::allocator<int>::allocate, COMDAT
; _this$ = ecx

; 186  : 		{	// allocate array of _Count elements

  00000	55		 push	 ebp
  00001	8b ec		 mov	 ebp, esp

; 187  : 		return (_Allocate(_Count, (pointer)0));

  00003	6a 00		 push	 0
  00005	ff 75 08	 push	 DWORD PTR __Count$[ebp]
  00008	e8 00 00 00 00	 call	 ??$_Allocate@H@std@@YAPAHIPAH@Z ; std::_Allocate<int>
  0000d	59		 pop	 ecx
  0000e	59		 pop	 ecx

; 188  : 		}

  0000f	5d		 pop	 ebp
  00010	c2 04 00	 ret	 4
?allocate@?$allocator@H@std@@QAEPAHI@Z ENDP		; std::allocator<int>::allocate
_TEXT	ENDS
PUBLIC	??$_Destroy_range@V?$allocator@H@std@@@std@@YAXPAH0AAV?$allocator@H@0@@Z ; std::_Destroy_range<std::allocator<int> >
; Function compile flags: /Ogsp
;	COMDAT ??$_Destroy_range@V?$allocator@H@std@@@std@@YAXPAH0AAV?$allocator@H@0@@Z
_TEXT	SEGMENT
__First$ = 8						; size = 4
__Last$ = 12						; size = 4
__Al$ = 16						; size = 4
??$_Destroy_range@V?$allocator@H@std@@@std@@YAXPAH0AAV?$allocator@H@0@@Z PROC ; std::_Destroy_range<std::allocator<int> >, COMDAT

; 88   : 	_Destroy_range(_First, _Last, _Al, _Ptr_cat(_First, _Last));
; 89   : 	}

  00000	c3		 ret	 0
??$_Destroy_range@V?$allocator@H@std@@@std@@YAXPAH0AAV?$allocator@H@0@@Z ENDP ; std::_Destroy_range<std::allocator<int> >
_TEXT	ENDS
PUBLIC	??$_Uninitialized_move@PAHPAHV?$allocator@H@std@@@std@@YAPAHPAH00AAV?$allocator@H@0@@Z ; std::_Uninitialized_move<int *,int *,std::allocator<int> >
; Function compile flags: /Ogsp
; File c:\program files (x86)\microsoft visual studio 10.0\vc\include\memory
;	COMDAT ??$_Uninitialized_move@PAHPAHV?$allocator@H@std@@@std@@YAPAHPAH00AAV?$allocator@H@0@@Z
_TEXT	SEGMENT
__First$ = 8						; size = 4
__Last$ = 12						; size = 4
__Dest$ = 16						; size = 4
__Al$ = 20						; size = 4
??$_Uninitialized_move@PAHPAHV?$allocator@H@std@@@std@@YAPAHPAH00AAV?$allocator@H@0@@Z PROC ; std::_Uninitialized_move<int *,int *,std::allocator<int> >, COMDAT

; 469  : 	{	// move [_First, _Last) to raw _Dest, using _Al

  00000	55		 push	 ebp
  00001	8b ec		 mov	 ebp, esp
  00003	56		 push	 esi

; 470  : 	return (_Uninit_move(_First, _Last, _Dest, _Al,
; 471  : 		_Val_type(_First), _Ptr_cat(_First, _Dest)));

  00004	8b 75 0c	 mov	 esi, DWORD PTR __Last$[ebp]
  00007	2b 75 08	 sub	 esi, DWORD PTR __First$[ebp]
  0000a	c1 fe 02	 sar	 esi, 2
  0000d	c1 e6 02	 shl	 esi, 2
  00010	56		 push	 esi
  00011	ff 75 08	 push	 DWORD PTR __First$[ebp]
  00014	ff 75 10	 push	 DWORD PTR __Dest$[ebp]
  00017	ff 15 00 00 00
	00		 call	 DWORD PTR __imp__memmove
  0001d	83 c4 0c	 add	 esp, 12			; 0000000cH
  00020	03 c6		 add	 eax, esi
  00022	5e		 pop	 esi

; 472  : 	}

  00023	5d		 pop	 ebp
  00024	c3		 ret	 0
??$_Uninitialized_move@PAHPAHV?$allocator@H@std@@@std@@YAPAHPAH00AAV?$allocator@H@0@@Z ENDP ; std::_Uninitialized_move<int *,int *,std::allocator<int> >
_TEXT	ENDS
PUBLIC	?CreateFireBall@ioChainWeapon@@IAE_NABVioHashString@@@Z ; ioChainWeapon::CreateFireBall
EXTRN	?SetPosition@ioWeapon@@QAEXABUD3DXVECTOR3@@@Z:PROC ; ioWeapon::SetPosition
EXTRN	__imp_??D@YA?AUD3DXVECTOR3@@ABU0@0@Z:PROC
EXTRN	__imp_??D@YA?AUD3DXVECTOR3@@ABUD3DXQUATERNION@@ABU0@@Z:PROC
EXTRN	__imp_?GetBiped@ioEntityGroup@@QAEPAVioBiped@@ABVioHashString@@@Z:PROC
EXTRN	__imp_??1ioHashString@@QAE@XZ:PROC
EXTRN	__imp_?GetFirstLinkOffset@ioEffect@@QAE_NAAVioHashString@@AAUD3DXVECTOR3@@AAUD3DXQUATERNION@@@Z:PROC
EXTRN	__imp_?IsEmpty@ioHashString@@QBE_NXZ:PROC
EXTRN	__imp_?GetSkeletonName@ioEffect@@QBE?AVioHashString@@XZ:PROC
EXTRN	__imp_??0ioHashString@@QAE@XZ:PROC
EXTRN	__imp_?CreateEffect@ioEffectFactory@@QAEPAVioEffect@@ABVioHashString@@@Z:PROC
EXTRN	__EH_epilog3_GS:PROC
EXTRN	__EH_prolog3_GS:PROC
;	COMDAT xdata$x
; File d:\lost saga for developer\youtube\tutorial\source\src\lsclient\encryptvalue.h
xdata$x	SEGMENT
__unwindtable$?CreateFireBall@ioChainWeapon@@IAE_NABVioHashString@@@Z DD 0ffffffffH
	DD	FLAT:__unwindfunclet$?CreateFireBall@ioChainWeapon@@IAE_NABVioHashString@@@Z$0
	DD	00H
	DD	FLAT:__unwindfunclet$?CreateFireBall@ioChainWeapon@@IAE_NABVioHashString@@@Z$1
__ehfuncinfo$?CreateFireBall@ioChainWeapon@@IAE_NABVioHashString@@@Z DD 019930522H
	DD	02H
	DD	FLAT:__unwindtable$?CreateFireBall@ioChainWeapon@@IAE_NABVioHashString@@@Z
	DD	2 DUP(00H)
	DD	2 DUP(00H)
	DD	00H
	DD	01H
; Function compile flags: /Ogsp
; File d:\lost saga for developer\youtube\tutorial\source\src\lsclient\iochainweapon.cpp
xdata$x	ENDS
;	COMDAT ?CreateFireBall@ioChainWeapon@@IAE_NABVioHashString@@@Z
_TEXT	SEGMENT
_qtLinkRotOffset$ = -88					; size = 16
_szLinkBiped$ = -72					; size = 16
_pOwner$ = -56						; size = 4
_value$527978 = -52					; size = 4
$T527916 = -52						; size = 4
_value$527982 = -45					; size = 1
$T527910 = -45						; size = 1
_vLinkPosOffset$ = -44					; size = 12
$T527911 = -32						; size = 16
$T524689 = -28						; size = 12
$T524688 = -28						; size = 12
$T524687 = -28						; size = 12
$T524686 = -28						; size = 12
$T524685 = -28						; size = 12
__$EHRec$ = -12						; size = 12
_szFileName$ = 8					; size = 4
?CreateFireBall@ioChainWeapon@@IAE_NABVioHashString@@@Z PROC ; ioChainWeapon::CreateFireBall, COMDAT
; _this$ = ecx

; 98   : {

  00000	6a 4c		 push	 76			; 0000004cH
  00002	b8 00 00 00 00	 mov	 eax, __ehhandler$?CreateFireBall@ioChainWeapon@@IAE_NABVioHashString@@@Z
  00007	e8 00 00 00 00	 call	 __EH_prolog3_GS
  0000c	8b 7d 08	 mov	 edi, DWORD PTR _szFileName$[ebp]
  0000f	33 f6		 xor	 esi, esi
  00011	8b d9		 mov	 ebx, ecx
  00013	89 75 cc	 mov	 DWORD PTR $T527916[ebp], esi

; 99   : 	ioBaseChar *pOwner = GetOwner();

  00016	e8 00 00 00 00	 call	 ?GetOwner@ioWeapon@@QBEPAVioBaseChar@@XZ ; ioWeapon::GetOwner
  0001b	89 45 c8	 mov	 DWORD PTR _pOwner$[ebp], eax

; 100  : 	if( !pOwner )	return false;

  0001e	3b c6		 cmp	 eax, esi
  00020	75 07		 jne	 SHORT $LN7@CreateFire
$LN48@CreateFire:
  00022	32 c0		 xor	 al, al
  00024	e9 7c 02 00 00	 jmp	 $LN8@CreateFire
$LN7@CreateFire:

; 101  : 
; 102  : 	m_pFireBall = g_EffectFactory.CreateEffect( szFileName );

  00029	57		 push	 edi
  0002a	ff 15 00 00 00
	00		 call	 DWORD PTR __imp_?GetSingleton@ioEffectFactory@@SAAAV1@XZ
  00030	8b c8		 mov	 ecx, eax
  00032	ff 15 00 00 00
	00		 call	 DWORD PTR __imp_?CreateEffect@ioEffectFactory@@QAEPAVioEffect@@ABVioHashString@@@Z
  00038	89 83 94 08 00
	00		 mov	 DWORD PTR [ebx+2196], eax

; 103  : 	if( !m_pFireBall )	return false;

  0003e	3b c6		 cmp	 eax, esi
  00040	74 e0		 je	 SHORT $LN48@CreateFire

; 104  : 
; 105  : 	GetParentSceneNode()->AttachObject( m_pFireBall );

  00042	8b 4b 04	 mov	 ecx, DWORD PTR [ebx+4]
  00045	8b 11		 mov	 edx, DWORD PTR [ecx]
  00047	83 c0 14	 add	 eax, 20			; 00000014H
  0004a	50		 push	 eax
  0004b	ff 92 ac 00 00
	00		 call	 DWORD PTR [edx+172]

; 106  : 
; 107  : 	ioHashString szLinkBiped;

  00051	8d 4d b8	 lea	 ecx, DWORD PTR _szLinkBiped$[ebp]
  00054	ff 15 00 00 00
	00		 call	 DWORD PTR __imp_??0ioHashString@@QAE@XZ

; 108  : 	D3DXVECTOR3 vLinkPosOffset;
; 109  : 	D3DXQUATERNION qtLinkRotOffset;
; 110  : 
; 111  : 	if( m_pFireBall->GetSkeletonName().IsEmpty() && m_pFireBall->GetFirstLinkOffset(szLinkBiped, vLinkPosOffset, qtLinkRotOffset ) )

  0005a	8b 8b 94 08 00
	00		 mov	 ecx, DWORD PTR [ebx+2196]
  00060	8d 45 e0	 lea	 eax, DWORD PTR $T527911[ebp]
  00063	50		 push	 eax
  00064	89 75 fc	 mov	 DWORD PTR __$EHRec$[ebp+8], esi
  00067	ff 15 00 00 00
	00		 call	 DWORD PTR __imp_?GetSkeletonName@ioEffect@@QBE?AVioHashString@@XZ
  0006d	8b c8		 mov	 ecx, eax
  0006f	c6 45 fc 01	 mov	 BYTE PTR __$EHRec$[ebp+8], 1
  00073	c7 45 cc 01 00
	00 00		 mov	 DWORD PTR $T527916[ebp], 1
  0007a	ff 15 00 00 00
	00		 call	 DWORD PTR __imp_?IsEmpty@ioHashString@@QBE_NXZ
  00080	84 c0		 test	 al, al
  00082	74 20		 je	 SHORT $LN12@CreateFire
  00084	8b 8b 94 08 00
	00		 mov	 ecx, DWORD PTR [ebx+2196]
  0008a	8d 45 a8	 lea	 eax, DWORD PTR _qtLinkRotOffset$[ebp]
  0008d	50		 push	 eax
  0008e	8d 45 d4	 lea	 eax, DWORD PTR _vLinkPosOffset$[ebp]
  00091	50		 push	 eax
  00092	8d 45 b8	 lea	 eax, DWORD PTR _szLinkBiped$[ebp]
  00095	50		 push	 eax
  00096	ff 15 00 00 00
	00		 call	 DWORD PTR __imp_?GetFirstLinkOffset@ioEffect@@QAE_NAAVioHashString@@AAUD3DXVECTOR3@@AAUD3DXQUATERNION@@@Z
  0009c	c6 45 d3 01	 mov	 BYTE PTR $T527910[ebp], 1
  000a0	84 c0		 test	 al, al
  000a2	75 04		 jne	 SHORT $LN13@CreateFire
$LN12@CreateFire:
  000a4	c6 45 d3 00	 mov	 BYTE PTR $T527910[ebp], 0
$LN13@CreateFire:
  000a8	8d 4d e0	 lea	 ecx, DWORD PTR $T527911[ebp]
  000ab	89 75 fc	 mov	 DWORD PTR __$EHRec$[ebp+8], esi
  000ae	ff 15 00 00 00
	00		 call	 DWORD PTR __imp_??1ioHashString@@QAE@XZ
  000b4	80 7d d3 00	 cmp	 BYTE PTR $T527910[ebp], 0
  000b8	0f 84 4a 01 00
	00		 je	 $LN4@CreateFire

; 112  : 	{
; 113  : 		ioBiped *pLinked = pOwner->GetGroup()->GetBiped( szLinkBiped );

  000be	8b 45 c8	 mov	 eax, DWORD PTR _pOwner$[ebp]
  000c1	8b 48 04	 mov	 ecx, DWORD PTR [eax+4]
  000c4	8d 45 b8	 lea	 eax, DWORD PTR _szLinkBiped$[ebp]
  000c7	50		 push	 eax
  000c8	ff 15 00 00 00
	00		 call	 DWORD PTR __imp_?GetBiped@ioEntityGroup@@QAEPAVioBiped@@ABVioHashString@@@Z
  000ce	8b f8		 mov	 edi, eax

; 114  : 		if( pLinked )

  000d0	3b fe		 cmp	 edi, esi
  000d2	0f 84 30 01 00
	00		 je	 $LN4@CreateFire

; 115  : 		{
; 116  : 			vLinkPosOffset = pLinked->GetDerivedOrientation() * vLinkPosOffset + pLinked->GetDerivedPosition();

  000d8	8b 07		 mov	 eax, DWORD PTR [edi]
  000da	8b cf		 mov	 ecx, edi
  000dc	ff 50 7c	 call	 DWORD PTR [eax+124]
  000df	8b f0		 mov	 esi, eax
  000e1	8d 45 d4	 lea	 eax, DWORD PTR _vLinkPosOffset$[ebp]
  000e4	50		 push	 eax
  000e5	8b 07		 mov	 eax, DWORD PTR [edi]
  000e7	8b cf		 mov	 ecx, edi
  000e9	ff 50 78	 call	 DWORD PTR [eax+120]
  000ec	50		 push	 eax
  000ed	8d 45 e4	 lea	 eax, DWORD PTR $T524685[ebp]
  000f0	50		 push	 eax
  000f1	ff 15 00 00 00
	00		 call	 DWORD PTR __imp_??D@YA?AUD3DXVECTOR3@@ABUD3DXQUATERNION@@ABU0@@Z
  000f7	f3 0f 10 06	 movss	 xmm0, DWORD PTR [esi]
  000fb	f3 0f 10 08	 movss	 xmm1, DWORD PTR [eax]
  000ff	f3 0f 10 50 04	 movss	 xmm2, DWORD PTR [eax+4]
  00104	f3 0f 10 58 08	 movss	 xmm3, DWORD PTR [eax+8]

; 117  : 			vLinkPosOffset = vLinkPosOffset * pOwner->GetWorldScale();

  00109	8b 4d c8	 mov	 ecx, DWORD PTR _pOwner$[ebp]
  0010c	0f 5a c9	 cvtps2pd xmm1, xmm1
  0010f	0f 5a c0	 cvtps2pd xmm0, xmm0
  00112	f2 0f 58 c1	 addsd	 xmm0, xmm1
  00116	f3 0f 10 4e 04	 movss	 xmm1, DWORD PTR [esi+4]
  0011b	0f 5a d2	 cvtps2pd xmm2, xmm2
  0011e	0f 5a c9	 cvtps2pd xmm1, xmm1
  00121	f2 0f 58 ca	 addsd	 xmm1, xmm2
  00125	f3 0f 10 56 08	 movss	 xmm2, DWORD PTR [esi+8]
  0012a	0f 5a d2	 cvtps2pd xmm2, xmm2
  0012d	0f 5a db	 cvtps2pd xmm3, xmm3
  00130	f2 0f 58 d3	 addsd	 xmm2, xmm3
  00134	66 0f 5a c0	 cvtpd2ps xmm0, xmm0
  00138	f3 0f 11 45 e4	 movss	 DWORD PTR $T524686[ebp], xmm0
  0013d	66 0f 5a c9	 cvtpd2ps xmm1, xmm1
  00141	f3 0f 11 4d e8	 movss	 DWORD PTR $T524686[ebp+4], xmm1
  00146	66 0f 5a d2	 cvtpd2ps xmm2, xmm2
  0014a	f3 0f 11 55 ec	 movss	 DWORD PTR $T524686[ebp+8], xmm2
  0014f	8d 75 e4	 lea	 esi, DWORD PTR $T524686[ebp]
  00152	8d 7d d4	 lea	 edi, DWORD PTR _vLinkPosOffset$[ebp]
  00155	a5		 movsd
  00156	a5		 movsd
  00157	a5		 movsd
  00158	8b 01		 mov	 eax, DWORD PTR [ecx]
  0015a	83 c4 0c	 add	 esp, 12			; 0000000cH
  0015d	ff 50 78	 call	 DWORD PTR [eax+120]
  00160	50		 push	 eax
  00161	8d 45 d4	 lea	 eax, DWORD PTR _vLinkPosOffset$[ebp]
  00164	50		 push	 eax
  00165	8d 45 e4	 lea	 eax, DWORD PTR $T524687[ebp]
  00168	50		 push	 eax
  00169	ff 15 00 00 00
	00		 call	 DWORD PTR __imp_??D@YA?AUD3DXVECTOR3@@ABU0@0@Z
  0016f	8b f0		 mov	 esi, eax
  00171	8d 7d d4	 lea	 edi, DWORD PTR _vLinkPosOffset$[ebp]
  00174	a5		 movsd
  00175	a5		 movsd
  00176	a5		 movsd

; 118  : 			vLinkPosOffset = pOwner->GetWorldOrientation() * vLinkPosOffset + pOwner->GetWorldPosition();

  00177	8b 7d c8	 mov	 edi, DWORD PTR _pOwner$[ebp]
  0017a	8b 07		 mov	 eax, DWORD PTR [edi]
  0017c	83 c4 0c	 add	 esp, 12			; 0000000cH
  0017f	8b cf		 mov	 ecx, edi
  00181	ff 50 70	 call	 DWORD PTR [eax+112]
  00184	8b f0		 mov	 esi, eax
  00186	8d 45 d4	 lea	 eax, DWORD PTR _vLinkPosOffset$[ebp]
  00189	50		 push	 eax
  0018a	8b 07		 mov	 eax, DWORD PTR [edi]
  0018c	8b cf		 mov	 ecx, edi
  0018e	ff 50 74	 call	 DWORD PTR [eax+116]
  00191	50		 push	 eax
  00192	8d 45 e4	 lea	 eax, DWORD PTR $T524688[ebp]
  00195	50		 push	 eax
  00196	ff 15 00 00 00
	00		 call	 DWORD PTR __imp_??D@YA?AUD3DXVECTOR3@@ABUD3DXQUATERNION@@ABU0@@Z
  0019c	f3 0f 10 06	 movss	 xmm0, DWORD PTR [esi]
  001a0	f3 0f 10 08	 movss	 xmm1, DWORD PTR [eax]
  001a4	f3 0f 10 50 04	 movss	 xmm2, DWORD PTR [eax+4]
  001a9	0f 5a c9	 cvtps2pd xmm1, xmm1
  001ac	0f 5a c0	 cvtps2pd xmm0, xmm0
  001af	f2 0f 58 c1	 addsd	 xmm0, xmm1
  001b3	f3 0f 10 4e 04	 movss	 xmm1, DWORD PTR [esi+4]
  001b8	0f 5a c9	 cvtps2pd xmm1, xmm1
  001bb	0f 5a d2	 cvtps2pd xmm2, xmm2
  001be	83 c4 0c	 add	 esp, 12			; 0000000cH
  001c1	66 0f 5a c0	 cvtpd2ps xmm0, xmm0
  001c5	f2 0f 58 ca	 addsd	 xmm1, xmm2
  001c9	f3 0f 10 56 08	 movss	 xmm2, DWORD PTR [esi+8]
  001ce	f3 0f 10 58 08	 movss	 xmm3, DWORD PTR [eax+8]
  001d3	0f 5a d2	 cvtps2pd xmm2, xmm2
  001d6	0f 5a db	 cvtps2pd xmm3, xmm3
  001d9	f2 0f 58 d3	 addsd	 xmm2, xmm3
  001dd	f3 0f 11 45 e4	 movss	 DWORD PTR $T524689[ebp], xmm0
  001e2	66 0f 5a c9	 cvtpd2ps xmm1, xmm1
  001e6	f3 0f 11 4d e8	 movss	 DWORD PTR $T524689[ebp+4], xmm1
  001eb	66 0f 5a d2	 cvtpd2ps xmm2, xmm2
  001ef	f3 0f 11 55 ec	 movss	 DWORD PTR $T524689[ebp+8], xmm2
  001f4	8d 75 e4	 lea	 esi, DWORD PTR $T524689[ebp]
  001f7	8d 7d d4	 lea	 edi, DWORD PTR _vLinkPosOffset$[ebp]
  001fa	a5		 movsd
  001fb	a5		 movsd

; 119  : 			SetPosition( vLinkPosOffset );

  001fc	8d 45 d4	 lea	 eax, DWORD PTR _vLinkPosOffset$[ebp]
  001ff	50		 push	 eax
  00200	8b cb		 mov	 ecx, ebx
  00202	a5		 movsd
  00203	e8 00 00 00 00	 call	 ?SetPosition@ioWeapon@@QAEXABUD3DXVECTOR3@@@Z ; ioWeapon::SetPosition
$LN4@CreateFire:

; 120  : 		}
; 121  : 	}
; 122  : 
; 123  : 	m_StartPos = GetPosition();

  00208	8b 03		 mov	 eax, DWORD PTR [ebx]
  0020a	8b cb		 mov	 ecx, ebx
  0020c	ff 50 70	 call	 DWORD PTR [eax+112]
  0020f	8d bb a0 08 00
	00		 lea	 edi, DWORD PTR [ebx+2208]
  00215	8b f0		 mov	 esi, eax
  00217	a5		 movsd
  00218	a5		 movsd
  00219	a5		 movsd

; 124  : 	
; 125  : 	if( !m_vChainInfoList.empty() )

  0021a	8b 8b 20 0a 00
	00		 mov	 ecx, DWORD PTR [ebx+2592]
  00220	3b 8b 24 0a 00
	00		 cmp	 ecx, DWORD PTR [ebx+2596]
  00226	74 11		 je	 SHORT $LN3@CreateFire

; 126  : 	{
; 127  : 		m_fCurMoveSpeed = m_vChainInfoList[0].m_fSpeed;

  00228	8b c1		 mov	 eax, ecx
  0022a	d9 00		 fld	 DWORD PTR [eax]
  0022c	d9 9b 9c 08 00
	00		 fstp	 DWORD PTR [ebx+2204]

; 128  : 		m_fCurChainRange = m_vChainInfoList[0].m_fRange;

  00232	f3 0f 10 40 04	 movss	 xmm0, DWORD PTR [eax+4]

; 129  : 	}
; 130  : 	else

  00237	eb 0b		 jmp	 SHORT $LN47@CreateFire
$LN3@CreateFire:

; 131  : 	{
; 132  : 		m_fCurMoveSpeed = 0.0f;

  00239	0f 57 c0	 xorps	 xmm0, xmm0
  0023c	f3 0f 11 83 9c
	08 00 00	 movss	 DWORD PTR [ebx+2204], xmm0
$LN47@CreateFire:

; 133  : 		m_fCurChainRange = 0.0f;

  00244	8d 45 cc	 lea	 eax, DWORD PTR _value$527978[ebp]
  00247	50		 push	 eax
  00248	8d 8b 18 09 00
	00		 lea	 ecx, DWORD PTR [ebx+2328]
  0024e	f3 0f 11 45 cc	 movss	 DWORD PTR _value$527978[ebp], xmm0
  00253	e8 00 00 00 00	 call	 ?EncryptValueToPool@?$CEncrypt@M@@AAEXPBD@Z ; CEncrypt<float>::EncryptValueToPool

; 134  : 	}
; 135  : 
; 136  : 	m_ChainState = CWS_MOVE;
; 137  : 	AddEffectEvent( m_pFireBall );

  00258	ff b3 94 08 00
	00		 push	 DWORD PTR [ebx+2196]
  0025e	8b 03		 mov	 eax, DWORD PTR [ebx]
  00260	8b cb		 mov	 ecx, ebx
  00262	c7 83 98 08 00
	00 01 00 00 00	 mov	 DWORD PTR [ebx+2200], 1
  0026c	ff 90 68 01 00
	00		 call	 DWORD PTR [eax+360]

; 138  : 	if( m_bWeaponInvisible )

  00272	8d 45 d3	 lea	 eax, DWORD PTR _value$527982[ebp]
  00275	50		 push	 eax
  00276	8d 8b e8 09 00
	00		 lea	 ecx, DWORD PTR [ebx+2536]
  0027c	e8 00 00 00 00	 call	 ?DecryptValueToPool@?$CEncrypt@_N@@QAEXPA_N@Z ; CEncrypt<bool>::DecryptValueToPool
  00281	80 7d d3 00	 cmp	 BYTE PTR _value$527982[ebp], 0
  00285	74 0f		 je	 SHORT $LN1@CreateFire

; 139  : 		m_pFireBall->SetVisible( false );

  00287	8b 8b 94 08 00
	00		 mov	 ecx, DWORD PTR [ebx+2196]
  0028d	83 c1 14	 add	 ecx, 20			; 00000014H
  00290	8b 01		 mov	 eax, DWORD PTR [ecx]
  00292	6a 00		 push	 0
  00294	ff 10		 call	 DWORD PTR [eax]
$LN1@CreateFire:

; 140  : 
; 141  : 	return true;

  00296	83 4d fc ff	 or	 DWORD PTR __$EHRec$[ebp+8], -1
  0029a	8d 4d b8	 lea	 ecx, DWORD PTR _szLinkBiped$[ebp]
  0029d	ff 15 00 00 00
	00		 call	 DWORD PTR __imp_??1ioHashString@@QAE@XZ
  002a3	b0 01		 mov	 al, 1
$LN8@CreateFire:

; 142  : }

  002a5	e8 00 00 00 00	 call	 __EH_epilog3_GS
  002aa	c2 04 00	 ret	 4
_TEXT	ENDS
;	COMDAT text$x
text$x	SEGMENT
__unwindfunclet$?CreateFireBall@ioChainWeapon@@IAE_NABVioHashString@@@Z$0:
  00000	8d 4d b8	 lea	 ecx, DWORD PTR _szLinkBiped$[ebp]
  00003	ff 25 00 00 00
	00		 jmp	 DWORD PTR __imp_??1ioHashString@@QAE@XZ
__unwindfunclet$?CreateFireBall@ioChainWeapon@@IAE_NABVioHashString@@@Z$1:
  00009	8b 45 cc	 mov	 eax, DWORD PTR $T527916[ebp]
  0000c	83 e0 01	 and	 eax, 1
  0000f	0f 84 0d 00 00
	00		 je	 $LN16@CreateFire
  00015	83 65 cc fe	 and	 DWORD PTR $T527916[ebp], -2 ; fffffffeH
  00019	8d 4d e0	 lea	 ecx, DWORD PTR $T527911[ebp]
  0001c	ff 25 00 00 00
	00		 jmp	 DWORD PTR __imp_??1ioHashString@@QAE@XZ
$LN16@CreateFire:
  00022	c3		 ret	 0
__ehhandler$?CreateFireBall@ioChainWeapon@@IAE_NABVioHashString@@@Z:
  00023	8b 54 24 08	 mov	 edx, DWORD PTR [esp+8]
  00027	8d 42 0c	 lea	 eax, DWORD PTR [edx+12]
  0002a	8b 4a a4	 mov	 ecx, DWORD PTR [edx-92]
  0002d	33 c8		 xor	 ecx, eax
  0002f	e8 00 00 00 00	 call	 @__security_check_cookie@4
  00034	8b 4a fc	 mov	 ecx, DWORD PTR [edx-4]
  00037	33 c8		 xor	 ecx, eax
  00039	e8 00 00 00 00	 call	 @__security_check_cookie@4
  0003e	b8 00 00 00 00	 mov	 eax, OFFSET __ehfuncinfo$?CreateFireBall@ioChainWeapon@@IAE_NABVioHashString@@@Z
  00043	e9 00 00 00 00	 jmp	 ___CxxFrameHandler3
text$x	ENDS
?CreateFireBall@ioChainWeapon@@IAE_NABVioHashString@@@Z ENDP ; ioChainWeapon::CreateFireBall
PUBLIC	?ChangeChainWeapon@ioChainWeapon@@QAEXHABUD3DXVECTOR3@@0@Z ; ioChainWeapon::ChangeChainWeapon
; Function compile flags: /Ogsp
;	COMDAT ?ChangeChainWeapon@ioChainWeapon@@QAEXHABUD3DXVECTOR3@@0@Z
_TEXT	SEGMENT
_value$528018 = 8					; size = 4
_value$528008 = 8					; size = 4
_value$528000 = 8					; size = 4
_iCurCnt$ = 8						; size = 4
_vPos$ = 12						; size = 4
_vMoveDir$ = 16						; size = 4
?ChangeChainWeapon@ioChainWeapon@@QAEXHABUD3DXVECTOR3@@0@Z PROC ; ioChainWeapon::ChangeChainWeapon, COMDAT
; _this$ = ecx

; 159  : {

  00000	55		 push	 ebp
  00001	8b ec		 mov	 ebp, esp
  00003	53		 push	 ebx
  00004	56		 push	 esi

; 160  : 	if( !COMPARE( iCurCnt, 0, m_iMaxChainCnt ) )

  00005	8b 75 08	 mov	 esi, DWORD PTR _iCurCnt$[ebp]
  00008	8b d9		 mov	 ebx, ecx
  0000a	85 f6		 test	 esi, esi
  0000c	0f 88 a3 00 00
	00		 js	 $LN3@ChangeChai
  00012	8d 45 08	 lea	 eax, DWORD PTR _value$528000[ebp]
  00015	50		 push	 eax
  00016	8d 8b b8 08 00
	00		 lea	 ecx, DWORD PTR [ebx+2232]
  0001c	e8 00 00 00 00	 call	 ?DecryptValueToPool@?$CEncrypt@H@@QAEXPAH@Z ; CEncrypt<int>::DecryptValueToPool
  00021	3b 75 08	 cmp	 esi, DWORD PTR _value$528000[ebp]
  00024	0f 8d 8b 00 00
	00		 jge	 $LN3@ChangeChai

; 164  : 		return;
; 165  : 	}
; 166  : 
; 167  : 	int iCnt = m_vChainInfoList.size();

  0002a	8b 83 24 0a 00
	00		 mov	 eax, DWORD PTR [ebx+2596]
  00030	2b 83 20 0a 00
	00		 sub	 eax, DWORD PTR [ebx+2592]
  00036	c1 f8 03	 sar	 eax, 3

; 168  : 	if( !COMPARE( iCurCnt, 0, iCnt ) )

  00039	3b f0		 cmp	 esi, eax
  0003b	7d 78		 jge	 SHORT $LN3@ChangeChai

; 169  : 	{
; 170  : 		m_ChainState = CWS_NONE;
; 171  : 		SetWeaponDead();
; 172  : 		return;
; 173  : 	}
; 174  : 
; 175  : 	m_iCurChainCnt = iCurCnt;

  0003d	57		 push	 edi
  0003e	8d 45 08	 lea	 eax, DWORD PTR _value$528008[ebp]
  00041	50		 push	 eax
  00042	8d 8b e8 08 00
	00		 lea	 ecx, DWORD PTR [ebx+2280]
  00048	89 75 08	 mov	 DWORD PTR _value$528008[ebp], esi
  0004b	e8 00 00 00 00	 call	 ?EncryptValueToPool@?$CEncrypt@H@@AAEXPBD@Z ; CEncrypt<int>::EncryptValueToPool

; 176  : 	m_fCurMoveSpeed = m_vChainInfoList[iCurCnt].m_fSpeed;

  00050	8b 83 20 0a 00
	00		 mov	 eax, DWORD PTR [ebx+2592]
  00056	8d 04 f0	 lea	 eax, DWORD PTR [eax+esi*8]
  00059	d9 00		 fld	 DWORD PTR [eax]

; 177  : 	m_fCurChainRange = m_vChainInfoList[iCurCnt].m_fRange;

  0005b	8d 8b 18 09 00
	00		 lea	 ecx, DWORD PTR [ebx+2328]
  00061	d9 9b 9c 08 00
	00		 fstp	 DWORD PTR [ebx+2204]
  00067	f3 0f 10 40 04	 movss	 xmm0, DWORD PTR [eax+4]
  0006c	8d 45 08	 lea	 eax, DWORD PTR _value$528018[ebp]
  0006f	50		 push	 eax
  00070	f3 0f 11 45 08	 movss	 DWORD PTR _value$528018[ebp], xmm0
  00075	e8 00 00 00 00	 call	 ?EncryptValueToPool@?$CEncrypt@M@@AAEXPBD@Z ; CEncrypt<float>::EncryptValueToPool

; 178  : 
; 179  : 	m_StartPos = vPos;

  0007a	8b 75 0c	 mov	 esi, DWORD PTR _vPos$[ebp]
  0007d	8d 83 a0 08 00
	00		 lea	 eax, DWORD PTR [ebx+2208]
  00083	8b f8		 mov	 edi, eax
  00085	a5		 movsd
  00086	a5		 movsd

; 180  : 	SetPosition( m_StartPos );

  00087	50		 push	 eax
  00088	8b cb		 mov	 ecx, ebx
  0008a	a5		 movsd
  0008b	e8 00 00 00 00	 call	 ?SetPosition@ioWeapon@@QAEXABUD3DXVECTOR3@@@Z ; ioWeapon::SetPosition

; 181  : 	SetMoveDir( vMoveDir );

  00090	ff 75 10	 push	 DWORD PTR _vMoveDir$[ebp]
  00093	8b 03		 mov	 eax, DWORD PTR [ebx]
  00095	8b cb		 mov	 ecx, ebx
  00097	ff 90 b0 00 00
	00		 call	 DWORD PTR [eax+176]

; 182  : 
; 183  : 	m_ChainState = CWS_MOVE;
; 184  : 	m_fCurMoveDistance = 0.0f;

  0009d	0f 57 c0	 xorps	 xmm0, xmm0
  000a0	c7 83 98 08 00
	00 01 00 00 00	 mov	 DWORD PTR [ebx+2200], 1
  000aa	f3 0f 11 83 18
	0a 00 00	 movss	 DWORD PTR [ebx+2584], xmm0
  000b2	5f		 pop	 edi
  000b3	eb 0e		 jmp	 SHORT $LN5@ChangeChai
$LN3@ChangeChai:

; 161  : 	{
; 162  : 		m_ChainState = CWS_NONE;
; 163  : 		SetWeaponDead();

  000b5	8b 03		 mov	 eax, DWORD PTR [ebx]
  000b7	83 a3 98 08 00
	00 00		 and	 DWORD PTR [ebx+2200], 0
  000be	8b cb		 mov	 ecx, ebx
  000c0	ff 50 4c	 call	 DWORD PTR [eax+76]
$LN5@ChangeChai:
  000c3	5e		 pop	 esi
  000c4	5b		 pop	 ebx

; 185  : }

  000c5	5d		 pop	 ebp
  000c6	c2 0c 00	 ret	 12			; 0000000cH
?ChangeChainWeapon@ioChainWeapon@@QAEXHABUD3DXVECTOR3@@0@Z ENDP ; ioChainWeapon::ChangeChainWeapon
_TEXT	ENDS
PUBLIC	?SetStartPosition@ioChainWeapon@@UAEXABUD3DXVECTOR3@@PAVioPlayStage@@@Z ; ioChainWeapon::SetStartPosition
; Function compile flags: /Ogsp
;	COMDAT ?SetStartPosition@ioChainWeapon@@UAEXABUD3DXVECTOR3@@PAVioPlayStage@@@Z
_TEXT	SEGMENT
_value$528025 = -4					; size = 4
_vPos$ = 8						; size = 4
_pStage$ = 12						; size = 4
?SetStartPosition@ioChainWeapon@@UAEXABUD3DXVECTOR3@@PAVioPlayStage@@@Z PROC ; ioChainWeapon::SetStartPosition, COMDAT
; _this$ = ecx

; 188  : {

  00000	55		 push	 ebp
  00001	8b ec		 mov	 ebp, esp
  00003	51		 push	 ecx
  00004	57		 push	 edi
  00005	8b f9		 mov	 edi, ecx

; 189  : 	if( m_iCurChainCnt == 0 )

  00007	8d 45 fc	 lea	 eax, DWORD PTR _value$528025[ebp]
  0000a	50		 push	 eax
  0000b	8d 8f e8 08 00
	00		 lea	 ecx, DWORD PTR [edi+2280]
  00011	e8 00 00 00 00	 call	 ?DecryptValueToPool@?$CEncrypt@H@@QAEXPAH@Z ; CEncrypt<int>::DecryptValueToPool
  00016	83 7d fc 00	 cmp	 DWORD PTR _value$528025[ebp], 0
  0001a	75 1e		 jne	 SHORT $LN1@SetStartPo

; 190  : 	{
; 191  : 		SetPosition( vPos );

  0001c	56		 push	 esi
  0001d	ff 75 08	 push	 DWORD PTR _vPos$[ebp]
  00020	8b cf		 mov	 ecx, edi
  00022	e8 00 00 00 00	 call	 ?SetPosition@ioWeapon@@QAEXABUD3DXVECTOR3@@@Z ; ioWeapon::SetPosition

; 192  : 		m_StartPos = GetPosition();

  00027	8b 07		 mov	 eax, DWORD PTR [edi]
  00029	8b cf		 mov	 ecx, edi
  0002b	ff 50 70	 call	 DWORD PTR [eax+112]
  0002e	81 c7 a0 08 00
	00		 add	 edi, 2208		; 000008a0H
  00034	8b f0		 mov	 esi, eax
  00036	a5		 movsd
  00037	a5		 movsd
  00038	a5		 movsd
  00039	5e		 pop	 esi
$LN1@SetStartPo:
  0003a	5f		 pop	 edi

; 193  : 	}
; 194  : }

  0003b	c9		 leave
  0003c	c2 08 00	 ret	 8
?SetStartPosition@ioChainWeapon@@UAEXABUD3DXVECTOR3@@PAVioPlayStage@@@Z ENDP ; ioChainWeapon::SetStartPosition
_TEXT	ENDS
PUBLIC	_bMapCollision$GSCopy$
PUBLIC	__$ArrayPad$
PUBLIC	?IsCollision@ioChainWeapon@@UAE_NPAVioPlayEntity@@_N@Z ; ioChainWeapon::IsCollision
EXTRN	?CheckChainWeapon@ioBaseChar@@QAEXPAVioWeapon@@@Z:PROC ; ioBaseChar::CheckChainWeapon
EXTRN	__imp_?GetLoopSec@ioFrameTimer@@QBEKXZ:PROC
EXTRN	__imp_?GetSingleton@ioFrameTimer@@SAAAV1@XZ:PROC
EXTRN	?GetWorldAttackBox@ioWeapon@@QBEABVioOrientBox@@_N@Z:PROC ; ioWeapon::GetWorldAttackBox
; Function compile flags: /Ogsp
;	COMDAT ?IsCollision@ioChainWeapon@@UAE_NPAVioPlayEntity@@_N@Z
_TEXT	SEGMENT
_pTarget$524797 = -32					; size = 4
_bCollision$ = -28					; size = 1
_bMapCollision$GSCopy$ = -24				; size = 1
_i$524801 = -24						; size = 4
_bCheck$524799 = -17					; size = 1
_vColPoint$ = -16					; size = 12
__$ArrayPad$ = -4					; size = 4
_pEntity$ = 8						; size = 4
_bMapCollision$ = 12					; size = 1
?IsCollision@ioChainWeapon@@UAE_NPAVioPlayEntity@@_N@Z PROC ; ioChainWeapon::IsCollision, COMDAT
; _this$ = ecx

; 334  : {

  00000	55		 push	 ebp
  00001	8b ec		 mov	 ebp, esp
  00003	83 ec 20	 sub	 esp, 32			; 00000020H
  00006	a1 00 00 00 00	 mov	 eax, DWORD PTR ___security_cookie
  0000b	33 c5		 xor	 eax, ebp
  0000d	89 45 fc	 mov	 DWORD PTR __$ArrayPad$[ebp], eax

; 335  : 	if( m_ChainState != CWS_MOVE )

  00010	8a 45 0c	 mov	 al, BYTE PTR _bMapCollision$[ebp]
  00013	53		 push	 ebx
  00014	8b 5d 08	 mov	 ebx, DWORD PTR _pEntity$[ebp]
  00017	56		 push	 esi
  00018	8b f1		 mov	 esi, ecx
  0001a	83 be 98 08 00
	00 01		 cmp	 DWORD PTR [esi+2200], 1
  00021	88 45 e8	 mov	 BYTE PTR _bMapCollision$GSCopy$[ebp], al
  00024	74 07		 je	 SHORT $LN10@IsCollisio

; 336  : 	{
; 337  : 		return false;

  00026	32 c0		 xor	 al, al
  00028	e9 f6 00 00 00	 jmp	 $LN11@IsCollisio
$LN10@IsCollisio:

; 338  : 	}
; 339  : 
; 340  : 	bool bCollision = false;
; 341  : 
; 342  : 	D3DXVECTOR3 vColPoint( 0.0f, 0.0f, 0.0f );

  0002d	0f 57 c0	 xorps	 xmm0, xmm0
  00030	57		 push	 edi

; 343  : 	if( pEntity->IsWoundedCollision( GetWorldAttackBox(bMapCollision), &vColPoint ) )

  00031	8b 3b		 mov	 edi, DWORD PTR [ebx]
  00033	8d 45 f0	 lea	 eax, DWORD PTR _vColPoint$[ebp]
  00036	50		 push	 eax
  00037	ff 75 e8	 push	 DWORD PTR _bMapCollision$GSCopy$[ebp]
  0003a	c6 45 e4 00	 mov	 BYTE PTR _bCollision$[ebp], 0
  0003e	f3 0f 11 45 f0	 movss	 DWORD PTR _vColPoint$[ebp], xmm0
  00043	f3 0f 11 45 f4	 movss	 DWORD PTR _vColPoint$[ebp+4], xmm0
  00048	f3 0f 11 45 f8	 movss	 DWORD PTR _vColPoint$[ebp+8], xmm0
  0004d	e8 00 00 00 00	 call	 ?GetWorldAttackBox@ioWeapon@@QBEABVioOrientBox@@_N@Z ; ioWeapon::GetWorldAttackBox
  00052	50		 push	 eax
  00053	8b cb		 mov	 ecx, ebx
  00055	ff 97 90 00 00
	00		 call	 DWORD PTR [edi+144]
  0005b	84 c0		 test	 al, al
  0005d	74 0f		 je	 SHORT $LN9@IsCollisio

; 344  : 	{
; 345  : 		bCollision = CheckCollisionLine( pEntity, vColPoint );

  0005f	8d 45 f0	 lea	 eax, DWORD PTR _vColPoint$[ebp]
  00062	50		 push	 eax
  00063	53		 push	 ebx
  00064	8b ce		 mov	 ecx, esi
  00066	e8 00 00 00 00	 call	 ?CheckCollisionLine@ioChainWeapon@@IAE_NPAVioPlayEntity@@ABUD3DXVECTOR3@@@Z ; ioChainWeapon::CheckCollisionLine
  0006b	88 45 e4	 mov	 BYTE PTR _bCollision$[ebp], al
$LN9@IsCollisio:

; 346  : 	}
; 347  : 
; 348  : 	CheckPiercing( bCollision );

  0006e	ff 75 e4	 push	 DWORD PTR _bCollision$[ebp]
  00071	8b 06		 mov	 eax, DWORD PTR [esi]
  00073	8b ce		 mov	 ecx, esi
  00075	ff 90 48 01 00
	00		 call	 DWORD PTR [eax+328]

; 349  : 
; 350  : 	if( bCollision )

  0007b	80 7d e4 00	 cmp	 BYTE PTR _bCollision$[ebp], 0
  0007f	0f 84 9a 00 00
	00		 je	 $LN24@IsCollisio

; 351  : 	{
; 352  : 		m_ChainState = CWS_COLLISION;

  00085	c7 86 98 08 00
	00 02 00 00 00	 mov	 DWORD PTR [esi+2200], 2

; 353  : 		m_dwCollisionTime = FRAMEGETTIME();

  0008f	ff 15 00 00 00
	00		 call	 DWORD PTR __imp_?GetSingleton@ioFrameTimer@@SAAAV1@XZ
  00095	8b c8		 mov	 ecx, eax
  00097	ff 15 00 00 00
	00		 call	 DWORD PTR __imp_?GetLoopSec@ioFrameTimer@@QBEKXZ

; 354  : 		m_fCurMoveDistance = 0.0f;

  0009d	0f 57 c0	 xorps	 xmm0, xmm0

; 355  : 	}
; 356  : 
; 357  : 	if( bCollision )
; 358  : 	{
; 359  : 		ioBaseChar *pTarget = ToBaseChar( pEntity );

  000a0	53		 push	 ebx
  000a1	89 86 1c 0a 00
	00		 mov	 DWORD PTR [esi+2588], eax
  000a7	f3 0f 11 86 18
	0a 00 00	 movss	 DWORD PTR [esi+2584], xmm0
  000af	e8 00 00 00 00	 call	 ?ToBaseChar@@YAPAVioBaseChar@@PAVioGameEntity@@@Z ; ToBaseChar
  000b4	59		 pop	 ecx
  000b5	89 45 e0	 mov	 DWORD PTR _pTarget$524797[ebp], eax

; 360  : 		if( pTarget )

  000b8	85 c0		 test	 eax, eax
  000ba	74 63		 je	 SHORT $LN24@IsCollisio

; 361  : 		{
; 362  : 			bool bCheck = false;
; 363  : 			int iCnt = m_iIgnoreCountList.size();

  000bc	8b be ac 09 00
	00		 mov	 edi, DWORD PTR [esi+2476]
  000c2	2b be a8 09 00
	00		 sub	 edi, DWORD PTR [esi+2472]

; 364  : 			for( int i=0; i<iCnt; ++i )

  000c8	83 65 e8 00	 and	 DWORD PTR _i$524801[ebp], 0
  000cc	c1 ff 02	 sar	 edi, 2
  000cf	c6 45 ef 00	 mov	 BYTE PTR _bCheck$524799[ebp], 0
  000d3	85 ff		 test	 edi, edi
  000d5	7e 48		 jle	 SHORT $LN24@IsCollisio
$LL5@IsCollisio:
  000d7	8b 86 a8 09 00
	00		 mov	 eax, DWORD PTR [esi+2472]
  000dd	8b 4d e8	 mov	 ecx, DWORD PTR _i$524801[ebp]
  000e0	8d 04 88	 lea	 eax, DWORD PTR [eax+ecx*4]

; 365  : 			{
; 366  : 				if( m_iIgnoreCountList[i] != -1 && m_iCurChainCnt == m_iIgnoreCountList[i] )

  000e3	83 38 ff	 cmp	 DWORD PTR [eax], -1
  000e6	74 14		 je	 SHORT $LN4@IsCollisio
  000e8	50		 push	 eax
  000e9	8d 8e e8 08 00
	00		 lea	 ecx, DWORD PTR [esi+2280]
  000ef	e8 00 00 00 00	 call	 ??8?$CEncrypt@H@@QAE_NABH@Z ; CEncrypt<int>::operator==
  000f4	84 c0		 test	 al, al
  000f6	74 04		 je	 SHORT $LN4@IsCollisio

; 367  : 					bCheck = true;

  000f8	c6 45 ef 01	 mov	 BYTE PTR _bCheck$524799[ebp], 1
$LN4@IsCollisio:

; 364  : 			for( int i=0; i<iCnt; ++i )

  000fc	ff 45 e8	 inc	 DWORD PTR _i$524801[ebp]
  000ff	39 7d e8	 cmp	 DWORD PTR _i$524801[ebp], edi
  00102	7c d3		 jl	 SHORT $LL5@IsCollisio

; 368  : 			}
; 369  : 			
; 370  : 			if( bCheck )

  00104	80 7d ef 00	 cmp	 BYTE PTR _bCheck$524799[ebp], 0
  00108	74 15		 je	 SHORT $LN24@IsCollisio

; 371  : 			{			
; 372  : 				AddCollisionEntity( pEntity );

  0010a	8b 06		 mov	 eax, DWORD PTR [esi]
  0010c	53		 push	 ebx
  0010d	8b ce		 mov	 ecx, esi
  0010f	ff 50 04	 call	 DWORD PTR [eax+4]

; 373  : 				pTarget->CheckChainWeapon( this );

  00112	8b 4d e0	 mov	 ecx, DWORD PTR _pTarget$524797[ebp]
  00115	56		 push	 esi
  00116	e8 00 00 00 00	 call	 ?CheckChainWeapon@ioBaseChar@@QAEXPAVioWeapon@@@Z ; ioBaseChar::CheckChainWeapon

; 374  : 				bCollision = false;

  0011b	c6 45 e4 00	 mov	 BYTE PTR _bCollision$[ebp], 0
$LN24@IsCollisio:

; 375  : 			}
; 376  : 		}
; 377  : 	}
; 378  : 
; 379  : 	return bCollision;

  0011f	8a 45 e4	 mov	 al, BYTE PTR _bCollision$[ebp]
  00122	5f		 pop	 edi
$LN11@IsCollisio:

; 380  : }

  00123	8b 4d fc	 mov	 ecx, DWORD PTR __$ArrayPad$[ebp]
  00126	5e		 pop	 esi
  00127	33 cd		 xor	 ecx, ebp
  00129	5b		 pop	 ebx
  0012a	e8 00 00 00 00	 call	 @__security_check_cookie@4
  0012f	c9		 leave
  00130	c2 08 00	 ret	 8
?IsCollision@ioChainWeapon@@UAE_NPAVioPlayEntity@@_N@Z ENDP ; ioChainWeapon::IsCollision
_TEXT	ENDS
PUBLIC	?GetNextChainRange@ioChainWeapon@@QAEMXZ	; ioChainWeapon::GetNextChainRange
; Function compile flags: /Ogsp
;	COMDAT ?GetNextChainRange@ioChainWeapon@@QAEMXZ
_TEXT	SEGMENT
_value$528056 = -4					; size = 4
_value$528061 = -4					; size = 4
?GetNextChainRange@ioChainWeapon@@QAEMXZ PROC		; ioChainWeapon::GetNextChainRange, COMDAT
; _this$ = ecx

; 396  : {

  00000	55		 push	 ebp
  00001	8b ec		 mov	 ebp, esp
  00003	51		 push	 ecx
  00004	56		 push	 esi
  00005	57		 push	 edi
  00006	8b f1		 mov	 esi, ecx

; 397  : 	int iNextCnt = m_iCurChainCnt + 1;

  00008	8d 45 fc	 lea	 eax, DWORD PTR _value$528056[ebp]
  0000b	50		 push	 eax
  0000c	8d 8e e8 08 00
	00		 lea	 ecx, DWORD PTR [esi+2280]
  00012	e8 00 00 00 00	 call	 ?DecryptValueToPool@?$CEncrypt@H@@QAEXPAH@Z ; CEncrypt<int>::DecryptValueToPool
  00017	8b 7d fc	 mov	 edi, DWORD PTR _value$528056[ebp]
  0001a	47		 inc	 edi

; 398  : 
; 399  : 	if( !COMPARE( iNextCnt, 0, m_iMaxChainCnt ) )

  0001b	78 2f		 js	 SHORT $LN3@GetNextCha
  0001d	8d 45 fc	 lea	 eax, DWORD PTR _value$528061[ebp]
  00020	50		 push	 eax
  00021	8d 8e b8 08 00
	00		 lea	 ecx, DWORD PTR [esi+2232]
  00027	e8 00 00 00 00	 call	 ?DecryptValueToPool@?$CEncrypt@H@@QAEXPAH@Z ; CEncrypt<int>::DecryptValueToPool
  0002c	3b 7d fc	 cmp	 edi, DWORD PTR _value$528061[ebp]
  0002f	7d 1b		 jge	 SHORT $LN3@GetNextCha

; 401  : 
; 402  : 	int iCnt = m_vChainInfoList.size();

  00031	8b 8e 20 0a 00
	00		 mov	 ecx, DWORD PTR [esi+2592]
  00037	8b 86 24 0a 00
	00		 mov	 eax, DWORD PTR [esi+2596]
  0003d	2b c1		 sub	 eax, ecx
  0003f	c1 f8 03	 sar	 eax, 3

; 403  : 	if( !COMPARE( iNextCnt, 0, iCnt ) )

  00042	3b f8		 cmp	 edi, eax
  00044	7d 06		 jge	 SHORT $LN3@GetNextCha

; 404  : 		return 0.0f;
; 405  : 
; 406  : 	return m_vChainInfoList[iNextCnt].m_fRange;

  00046	d9 44 f9 04	 fld	 DWORD PTR [ecx+edi*8+4]
  0004a	eb 02		 jmp	 SHORT $LN5@GetNextCha
$LN3@GetNextCha:

; 400  : 		return 0.0f;

  0004c	d9 ee		 fldz
$LN5@GetNextCha:
  0004e	5f		 pop	 edi
  0004f	5e		 pop	 esi

; 407  : }

  00050	c9		 leave
  00051	c3		 ret	 0
?GetNextChainRange@ioChainWeapon@@QAEMXZ ENDP		; ioChainWeapon::GetNextChainRange
_TEXT	ENDS
PUBLIC	?SetWaitState@ioChainWeapon@@QAEXXZ		; ioChainWeapon::SetWaitState
EXTRN	__imp_?EndEffectForce@ioEffect@@QAEXXZ:PROC
EXTRN	__imp_?EndEffectGrace@ioEffect@@QAEXXZ:PROC
; Function compile flags: /Ogsp
;	COMDAT ?SetWaitState@ioChainWeapon@@QAEXXZ
_TEXT	SEGMENT
_value$528074 = -1					; size = 1
?SetWaitState@ioChainWeapon@@QAEXXZ PROC		; ioChainWeapon::SetWaitState, COMDAT
; _this$ = ecx

; 410  : {

  00000	55		 push	 ebp
  00001	8b ec		 mov	 ebp, esp
  00003	51		 push	 ecx
  00004	56		 push	 esi
  00005	8b f1		 mov	 esi, ecx

; 411  : 	if( m_ChainState == CWS_WAIT )

  00007	6a 03		 push	 3
  00009	59		 pop	 ecx
  0000a	39 8e 98 08 00
	00		 cmp	 DWORD PTR [esi+2200], ecx
  00010	74 3f		 je	 SHORT $LN5@SetWaitSta

; 412  : 		return;
; 413  : 
; 414  : 	m_ChainState = CWS_WAIT;
; 415  : 
; 416  : 	if( m_pFireBall )

  00012	83 be 94 08 00
	00 00		 cmp	 DWORD PTR [esi+2196], 0
  00019	89 8e 98 08 00
	00		 mov	 DWORD PTR [esi+2200], ecx
  0001f	74 29		 je	 SHORT $LN1@SetWaitSta

; 417  : 	{
; 418  : 		if( m_bEndEffectGrace )

  00021	8d 45 ff	 lea	 eax, DWORD PTR _value$528074[ebp]
  00024	50		 push	 eax
  00025	8d 8e 08 08 00
	00		 lea	 ecx, DWORD PTR [esi+2056]
  0002b	e8 00 00 00 00	 call	 ?DecryptValueToPool@?$CEncrypt@_N@@QAEXPA_N@Z ; CEncrypt<bool>::DecryptValueToPool
  00030	80 7d ff 00	 cmp	 BYTE PTR _value$528074[ebp], 0

; 419  : 			m_pFireBall->EndEffectGrace();

  00034	8b 8e 94 08 00
	00		 mov	 ecx, DWORD PTR [esi+2196]
  0003a	74 08		 je	 SHORT $LN2@SetWaitSta
  0003c	ff 15 00 00 00
	00		 call	 DWORD PTR __imp_?EndEffectGrace@ioEffect@@QAEXXZ

; 420  : 		else

  00042	eb 06		 jmp	 SHORT $LN1@SetWaitSta
$LN2@SetWaitSta:

; 421  : 			m_pFireBall->EndEffectForce();

  00044	ff 15 00 00 00
	00		 call	 DWORD PTR __imp_?EndEffectForce@ioEffect@@QAEXXZ
$LN1@SetWaitSta:

; 422  : 	}
; 423  : 
; 424  : 	StopLoopSound();

  0004a	8b 06		 mov	 eax, DWORD PTR [esi]
  0004c	8b ce		 mov	 ecx, esi
  0004e	ff 50 60	 call	 DWORD PTR [eax+96]
$LN5@SetWaitSta:
  00051	5e		 pop	 esi

; 425  : }

  00052	c9		 leave
  00053	c3		 ret	 0
?SetWaitState@ioChainWeapon@@QAEXXZ ENDP		; ioChainWeapon::SetWaitState
_TEXT	ENDS
PUBLIC	??0?$vector@UChainInfo@ioChainWeapon@@V?$allocator@UChainInfo@ioChainWeapon@@@std@@@std@@QAE@XZ ; std::vector<ioChainWeapon::ChainInfo,std::allocator<ioChainWeapon::ChainInfo> >::vector<ioChainWeapon::ChainInfo,std::allocator<ioChainWeapon::ChainInfo> >
; Function compile flags: /Ogsp
; File c:\program files (x86)\microsoft visual studio 10.0\vc\include\vector
;	COMDAT ??0?$vector@UChainInfo@ioChainWeapon@@V?$allocator@UChainInfo@ioChainWeapon@@@std@@@std@@QAE@XZ
_TEXT	SEGMENT
??0?$vector@UChainInfo@ioChainWeapon@@V?$allocator@UChainInfo@ioChainWeapon@@@std@@@std@@QAE@XZ PROC ; std::vector<ioChainWeapon::ChainInfo,std::allocator<ioChainWeapon::ChainInfo> >::vector<ioChainWeapon::ChainInfo,std::allocator<ioChainWeapon::ChainInfo> >, COMDAT
; _this$ = ecx

; 507  : 		{	// construct empty vector

  00000	8b c1		 mov	 eax, ecx
  00002	33 c9		 xor	 ecx, ecx
  00004	89 08		 mov	 DWORD PTR [eax], ecx
  00006	89 48 04	 mov	 DWORD PTR [eax+4], ecx
  00009	89 48 08	 mov	 DWORD PTR [eax+8], ecx

; 508  : 		}

  0000c	c3		 ret	 0
??0?$vector@UChainInfo@ioChainWeapon@@V?$allocator@UChainInfo@ioChainWeapon@@@std@@@std@@QAE@XZ ENDP ; std::vector<ioChainWeapon::ChainInfo,std::allocator<ioChainWeapon::ChainInfo> >::vector<ioChainWeapon::ChainInfo,std::allocator<ioChainWeapon::ChainInfo> >
_TEXT	ENDS
PUBLIC	?begin@?$vector@UChainInfo@ioChainWeapon@@V?$allocator@UChainInfo@ioChainWeapon@@@std@@@std@@QAE?AV?$_Vector_iterator@V?$_Vector_val@UChainInfo@ioChainWeapon@@V?$allocator@UChainInfo@ioChainWeapon@@@std@@@std@@@2@XZ ; std::vector<ioChainWeapon::ChainInfo,std::allocator<ioChainWeapon::ChainInfo> >::begin
; Function compile flags: /Ogsp
;	COMDAT ?begin@?$vector@UChainInfo@ioChainWeapon@@V?$allocator@UChainInfo@ioChainWeapon@@@std@@@std@@QAE?AV?$_Vector_iterator@V?$_Vector_val@UChainInfo@ioChainWeapon@@V?$allocator@UChainInfo@ioChainWeapon@@@std@@@std@@@2@XZ
_TEXT	SEGMENT
___$ReturnUdt$ = 8					; size = 4
?begin@?$vector@UChainInfo@ioChainWeapon@@V?$allocator@UChainInfo@ioChainWeapon@@@std@@@std@@QAE?AV?$_Vector_iterator@V?$_Vector_val@UChainInfo@ioChainWeapon@@V?$allocator@UChainInfo@ioChainWeapon@@@std@@@std@@@2@XZ PROC ; std::vector<ioChainWeapon::ChainInfo,std::allocator<ioChainWeapon::ChainInfo> >::begin, COMDAT
; _this$ = ecx

; 781  : 		{	// return iterator for beginning of mutable sequence

  00000	55		 push	 ebp
  00001	8b ec		 mov	 ebp, esp

; 782  : 		return (iterator(this->_Myfirst, this));

  00003	8b 09		 mov	 ecx, DWORD PTR [ecx]
  00005	8b 45 08	 mov	 eax, DWORD PTR ___$ReturnUdt$[ebp]
  00008	89 08		 mov	 DWORD PTR [eax], ecx

; 783  : 		}

  0000a	5d		 pop	 ebp
  0000b	c2 04 00	 ret	 4
?begin@?$vector@UChainInfo@ioChainWeapon@@V?$allocator@UChainInfo@ioChainWeapon@@@std@@@std@@QAE?AV?$_Vector_iterator@V?$_Vector_val@UChainInfo@ioChainWeapon@@V?$allocator@UChainInfo@ioChainWeapon@@@std@@@std@@@2@XZ ENDP ; std::vector<ioChainWeapon::ChainInfo,std::allocator<ioChainWeapon::ChainInfo> >::begin
_TEXT	ENDS
PUBLIC	?end@?$vector@UChainInfo@ioChainWeapon@@V?$allocator@UChainInfo@ioChainWeapon@@@std@@@std@@QAE?AV?$_Vector_iterator@V?$_Vector_val@UChainInfo@ioChainWeapon@@V?$allocator@UChainInfo@ioChainWeapon@@@std@@@std@@@2@XZ ; std::vector<ioChainWeapon::ChainInfo,std::allocator<ioChainWeapon::ChainInfo> >::end
; Function compile flags: /Ogsp
;	COMDAT ?end@?$vector@UChainInfo@ioChainWeapon@@V?$allocator@UChainInfo@ioChainWeapon@@@std@@@std@@QAE?AV?$_Vector_iterator@V?$_Vector_val@UChainInfo@ioChainWeapon@@V?$allocator@UChainInfo@ioChainWeapon@@@std@@@std@@@2@XZ
_TEXT	SEGMENT
___$ReturnUdt$ = 8					; size = 4
?end@?$vector@UChainInfo@ioChainWeapon@@V?$allocator@UChainInfo@ioChainWeapon@@@std@@@std@@QAE?AV?$_Vector_iterator@V?$_Vector_val@UChainInfo@ioChainWeapon@@V?$allocator@UChainInfo@ioChainWeapon@@@std@@@std@@@2@XZ PROC ; std::vector<ioChainWeapon::ChainInfo,std::allocator<ioChainWeapon::ChainInfo> >::end, COMDAT
; _this$ = ecx

; 791  : 		{	// return iterator for end of mutable sequence

  00000	55		 push	 ebp
  00001	8b ec		 mov	 ebp, esp

; 792  : 		return (iterator(this->_Mylast, this));

  00003	8b 49 04	 mov	 ecx, DWORD PTR [ecx+4]
  00006	8b 45 08	 mov	 eax, DWORD PTR ___$ReturnUdt$[ebp]
  00009	89 08		 mov	 DWORD PTR [eax], ecx

; 793  : 		}

  0000b	5d		 pop	 ebp
  0000c	c2 04 00	 ret	 4
?end@?$vector@UChainInfo@ioChainWeapon@@V?$allocator@UChainInfo@ioChainWeapon@@@std@@@std@@QAE?AV?$_Vector_iterator@V?$_Vector_val@UChainInfo@ioChainWeapon@@V?$allocator@UChainInfo@ioChainWeapon@@@std@@@std@@@2@XZ ENDP ; std::vector<ioChainWeapon::ChainInfo,std::allocator<ioChainWeapon::ChainInfo> >::end
_TEXT	ENDS
PUBLIC	?_Make_iter@?$vector@UChainInfo@ioChainWeapon@@V?$allocator@UChainInfo@ioChainWeapon@@@std@@@std@@QBE?AV?$_Vector_iterator@V?$_Vector_val@UChainInfo@ioChainWeapon@@V?$allocator@UChainInfo@ioChainWeapon@@@std@@@std@@@2@V?$_Vector_const_iterator@V?$_Vector_val@UChainInfo@ioChainWeapon@@V?$allocator@UChainInfo@ioChainWeapon@@@std@@@std@@@2@@Z ; std::vector<ioChainWeapon::ChainInfo,std::allocator<ioChainWeapon::ChainInfo> >::_Make_iter
; Function compile flags: /Ogsp
;	COMDAT ?_Make_iter@?$vector@UChainInfo@ioChainWeapon@@V?$allocator@UChainInfo@ioChainWeapon@@@std@@@std@@QBE?AV?$_Vector_iterator@V?$_Vector_val@UChainInfo@ioChainWeapon@@V?$allocator@UChainInfo@ioChainWeapon@@@std@@@std@@@2@V?$_Vector_const_iterator@V?$_Vector_val@UChainInfo@ioChainWeapon@@V?$allocator@UChainInfo@ioChainWeapon@@@std@@@std@@@2@@Z
_TEXT	SEGMENT
___$ReturnUdt$ = 8					; size = 4
__Where$ = 12						; size = 4
?_Make_iter@?$vector@UChainInfo@ioChainWeapon@@V?$allocator@UChainInfo@ioChainWeapon@@@std@@@std@@QBE?AV?$_Vector_iterator@V?$_Vector_val@UChainInfo@ioChainWeapon@@V?$allocator@UChainInfo@ioChainWeapon@@@std@@@std@@@2@V?$_Vector_const_iterator@V?$_Vector_val@UChainInfo@ioChainWeapon@@V?$allocator@UChainInfo@ioChainWeapon@@@std@@@std@@@2@@Z PROC ; std::vector<ioChainWeapon::ChainInfo,std::allocator<ioChainWeapon::ChainInfo> >::_Make_iter, COMDAT
; _this$ = ecx

; 801  : 		{	// make iterator from const_iterator

  00000	55		 push	 ebp
  00001	8b ec		 mov	 ebp, esp

; 802  : 		return (iterator(_Where._Ptr, this));

  00003	8b 45 08	 mov	 eax, DWORD PTR ___$ReturnUdt$[ebp]
  00006	8b 4d 0c	 mov	 ecx, DWORD PTR __Where$[ebp]
  00009	89 08		 mov	 DWORD PTR [eax], ecx

; 803  : 		}

  0000b	5d		 pop	 ebp
  0000c	c2 08 00	 ret	 8
?_Make_iter@?$vector@UChainInfo@ioChainWeapon@@V?$allocator@UChainInfo@ioChainWeapon@@@std@@@std@@QBE?AV?$_Vector_iterator@V?$_Vector_val@UChainInfo@ioChainWeapon@@V?$allocator@UChainInfo@ioChainWeapon@@@std@@@std@@@2@V?$_Vector_const_iterator@V?$_Vector_val@UChainInfo@ioChainWeapon@@V?$allocator@UChainInfo@ioChainWeapon@@@std@@@std@@@2@@Z ENDP ; std::vector<ioChainWeapon::ChainInfo,std::allocator<ioChainWeapon::ChainInfo> >::_Make_iter
_TEXT	ENDS
PUBLIC	??9?$_Vector_const_iterator@V?$_Vector_val@UChainInfo@ioChainWeapon@@V?$allocator@UChainInfo@ioChainWeapon@@@std@@@std@@@std@@QBE_NABV01@@Z ; std::_Vector_const_iterator<std::_Vector_val<ioChainWeapon::ChainInfo,std::allocator<ioChainWeapon::ChainInfo> > >::operator!=
; Function compile flags: /Ogsp
;	COMDAT ??9?$_Vector_const_iterator@V?$_Vector_val@UChainInfo@ioChainWeapon@@V?$allocator@UChainInfo@ioChainWeapon@@@std@@@std@@@std@@QBE_NABV01@@Z
_TEXT	SEGMENT
__Right$ = 8						; size = 4
??9?$_Vector_const_iterator@V?$_Vector_val@UChainInfo@ioChainWeapon@@V?$allocator@UChainInfo@ioChainWeapon@@@std@@@std@@@std@@QBE_NABV01@@Z PROC ; std::_Vector_const_iterator<std::_Vector_val<ioChainWeapon::ChainInfo,std::allocator<ioChainWeapon::ChainInfo> > >::operator!=, COMDAT
; _this$ = ecx

; 207  : 		{	// test for iterator inequality

  00000	55		 push	 ebp
  00001	8b ec		 mov	 ebp, esp

; 208  : 		return (!(*this == _Right));

  00003	8b 01		 mov	 eax, DWORD PTR [ecx]
  00005	8b 55 08	 mov	 edx, DWORD PTR __Right$[ebp]
  00008	33 c9		 xor	 ecx, ecx
  0000a	3b 02		 cmp	 eax, DWORD PTR [edx]
  0000c	0f 95 c0	 setne	 al

; 209  : 		}

  0000f	5d		 pop	 ebp
  00010	c2 04 00	 ret	 4
??9?$_Vector_const_iterator@V?$_Vector_val@UChainInfo@ioChainWeapon@@V?$allocator@UChainInfo@ioChainWeapon@@@std@@@std@@@std@@QBE_NABV01@@Z ENDP ; std::_Vector_const_iterator<std::_Vector_val<ioChainWeapon::ChainInfo,std::allocator<ioChainWeapon::ChainInfo> > >::operator!=
_TEXT	ENDS
PUBLIC	??$_Cons_val@V?$allocator@H@std@@HH@std@@YAXAAV?$allocator@H@0@PAH$$QAH@Z ; std::_Cons_val<std::allocator<int>,int,int>
; Function compile flags: /Ogsp
; File c:\program files (x86)\microsoft visual studio 10.0\vc\include\xmemory
;	COMDAT ??$_Cons_val@V?$allocator@H@std@@HH@std@@YAXAAV?$allocator@H@0@PAH$$QAH@Z
_TEXT	SEGMENT
__Alval$ = 8						; size = 4
__Pdest$ = 12						; size = 4
__Src$ = 16						; size = 4
??$_Cons_val@V?$allocator@H@std@@HH@std@@YAXAAV?$allocator@H@0@PAH$$QAH@Z PROC ; std::_Cons_val<std::allocator<int>,int,int>, COMDAT

; 279  : 	{	// construct using allocator

  00000	55		 push	 ebp
  00001	8b ec		 mov	 ebp, esp

; 280  : 	_Alval.construct(_Pdest, _STD forward<_Ty2>(_Src));

  00003	8b 45 0c	 mov	 eax, DWORD PTR __Pdest$[ebp]
  00006	85 c0		 test	 eax, eax
  00008	74 07		 je	 SHORT $LN7@Cons_val@2
  0000a	8b 4d 10	 mov	 ecx, DWORD PTR __Src$[ebp]
  0000d	8b 09		 mov	 ecx, DWORD PTR [ecx]
  0000f	89 08		 mov	 DWORD PTR [eax], ecx
$LN7@Cons_val@2:

; 281  : 	}

  00011	5d		 pop	 ebp
  00012	c3		 ret	 0
??$_Cons_val@V?$allocator@H@std@@HH@std@@YAXAAV?$allocator@H@0@PAH$$QAH@Z ENDP ; std::_Cons_val<std::allocator<int>,int,int>
_TEXT	ENDS
PUBLIC	??$_Cons_val@V?$allocator@UChainInfo@ioChainWeapon@@@std@@UChainInfo@ioChainWeapon@@ABU34@@std@@YAXAAV?$allocator@UChainInfo@ioChainWeapon@@@0@PAUChainInfo@ioChainWeapon@@ABU23@@Z ; std::_Cons_val<std::allocator<ioChainWeapon::ChainInfo>,ioChainWeapon::ChainInfo,ioChainWeapon::ChainInfo const &>
; Function compile flags: /Ogsp
;	COMDAT ??$_Cons_val@V?$allocator@UChainInfo@ioChainWeapon@@@std@@UChainInfo@ioChainWeapon@@ABU34@@std@@YAXAAV?$allocator@UChainInfo@ioChainWeapon@@@0@PAUChainInfo@ioChainWeapon@@ABU23@@Z
_TEXT	SEGMENT
__Alval$ = 8						; size = 4
__Pdest$ = 12						; size = 4
__Src$ = 16						; size = 4
??$_Cons_val@V?$allocator@UChainInfo@ioChainWeapon@@@std@@UChainInfo@ioChainWeapon@@ABU34@@std@@YAXAAV?$allocator@UChainInfo@ioChainWeapon@@@0@PAUChainInfo@ioChainWeapon@@ABU23@@Z PROC ; std::_Cons_val<std::allocator<ioChainWeapon::ChainInfo>,ioChainWeapon::ChainInfo,ioChainWeapon::ChainInfo const &>, COMDAT

; 279  : 	{	// construct using allocator

  00000	55		 push	 ebp
  00001	8b ec		 mov	 ebp, esp

; 280  : 	_Alval.construct(_Pdest, _STD forward<_Ty2>(_Src));

  00003	8b 45 0c	 mov	 eax, DWORD PTR __Pdest$[ebp]
  00006	85 c0		 test	 eax, eax
  00008	74 0d		 je	 SHORT $LN9@Cons_val@3
  0000a	8b 4d 10	 mov	 ecx, DWORD PTR __Src$[ebp]
  0000d	8b 11		 mov	 edx, DWORD PTR [ecx]
  0000f	89 10		 mov	 DWORD PTR [eax], edx
  00011	8b 49 04	 mov	 ecx, DWORD PTR [ecx+4]
  00014	89 48 04	 mov	 DWORD PTR [eax+4], ecx
$LN9@Cons_val@3:

; 281  : 	}

  00017	5d		 pop	 ebp
  00018	c3		 ret	 0
??$_Cons_val@V?$allocator@UChainInfo@ioChainWeapon@@@std@@UChainInfo@ioChainWeapon@@ABU34@@std@@YAXAAV?$allocator@UChainInfo@ioChainWeapon@@@0@PAUChainInfo@ioChainWeapon@@ABU23@@Z ENDP ; std::_Cons_val<std::allocator<ioChainWeapon::ChainInfo>,ioChainWeapon::ChainInfo,ioChainWeapon::ChainInfo const &>
_TEXT	ENDS
PUBLIC	??$_Move@PAUChainInfo@ioChainWeapon@@PAU12@@std@@YAPAUChainInfo@ioChainWeapon@@PAU12@00@Z ; std::_Move<ioChainWeapon::ChainInfo *,ioChainWeapon::ChainInfo *>
; Function compile flags: /Ogsp
; File c:\program files (x86)\microsoft visual studio 10.0\vc\include\xutility
;	COMDAT ??$_Move@PAUChainInfo@ioChainWeapon@@PAU12@@std@@YAPAUChainInfo@ioChainWeapon@@PAU12@00@Z
_TEXT	SEGMENT
__Cat$528227 = -4					; size = 1
__First$ = 8						; size = 4
__Last$ = 12						; size = 4
__Dest$ = 16						; size = 4
??$_Move@PAUChainInfo@ioChainWeapon@@PAU12@@std@@YAPAUChainInfo@ioChainWeapon@@PAU12@00@Z PROC ; std::_Move<ioChainWeapon::ChainInfo *,ioChainWeapon::ChainInfo *>, COMDAT

; 2533 : 	{	// move [_First, _Last) to [_Dest, ...), unchecked

  00000	55		 push	 ebp
  00001	8b ec		 mov	 ebp, esp
  00003	51		 push	 ecx

; 2534 : 	return (_Move(_First, _Last,
; 2535 : 		_Dest, _Ptr_cat(_First, _Dest)));

  00004	ff 75 fc	 push	 DWORD PTR __Cat$528227[ebp]
  00007	ff 75 10	 push	 DWORD PTR __Dest$[ebp]
  0000a	ff 75 0c	 push	 DWORD PTR __Last$[ebp]
  0000d	ff 75 08	 push	 DWORD PTR __First$[ebp]
  00010	e8 00 00 00 00	 call	 ??$_Move@PAUChainInfo@ioChainWeapon@@PAU12@@std@@YAPAUChainInfo@ioChainWeapon@@PAU12@00U_Nonscalar_ptr_iterator_tag@0@@Z ; std::_Move<ioChainWeapon::ChainInfo *,ioChainWeapon::ChainInfo *>
  00015	83 c4 10	 add	 esp, 16			; 00000010H

; 2536 : 	}

  00018	c9		 leave
  00019	c3		 ret	 0
??$_Move@PAUChainInfo@ioChainWeapon@@PAU12@@std@@YAPAUChainInfo@ioChainWeapon@@PAU12@00@Z ENDP ; std::_Move<ioChainWeapon::ChainInfo *,ioChainWeapon::ChainInfo *>
_TEXT	ENDS
PUBLIC	??$_Dest_val@V?$allocator@UChainInfo@ioChainWeapon@@@std@@UChainInfo@ioChainWeapon@@@std@@YAXAAV?$allocator@UChainInfo@ioChainWeapon@@@0@PAUChainInfo@ioChainWeapon@@@Z ; std::_Dest_val<std::allocator<ioChainWeapon::ChainInfo>,ioChainWeapon::ChainInfo>
; Function compile flags: /Ogsp
; File c:\program files (x86)\microsoft visual studio 10.0\vc\include\xmemory
;	COMDAT ??$_Dest_val@V?$allocator@UChainInfo@ioChainWeapon@@@std@@UChainInfo@ioChainWeapon@@@std@@YAXAAV?$allocator@UChainInfo@ioChainWeapon@@@0@PAUChainInfo@ioChainWeapon@@@Z
_TEXT	SEGMENT
__Alval$ = 8						; size = 4
__Pdest$ = 12						; size = 4
??$_Dest_val@V?$allocator@UChainInfo@ioChainWeapon@@@std@@UChainInfo@ioChainWeapon@@@std@@YAXAAV?$allocator@UChainInfo@ioChainWeapon@@@0@PAUChainInfo@ioChainWeapon@@@Z PROC ; std::_Dest_val<std::allocator<ioChainWeapon::ChainInfo>,ioChainWeapon::ChainInfo>, COMDAT

; 287  : 	_Alval.destroy(_Pdest);
; 288  : 	}

  00000	c3		 ret	 0
??$_Dest_val@V?$allocator@UChainInfo@ioChainWeapon@@@std@@UChainInfo@ioChainWeapon@@@std@@YAXAAV?$allocator@UChainInfo@ioChainWeapon@@@0@PAUChainInfo@ioChainWeapon@@@Z ENDP ; std::_Dest_val<std::allocator<ioChainWeapon::ChainInfo>,ioChainWeapon::ChainInfo>
_TEXT	ENDS
PUBLIC	??$_Cons_val@V?$allocator@UChainInfo@ioChainWeapon@@@std@@UChainInfo@ioChainWeapon@@U34@@std@@YAXAAV?$allocator@UChainInfo@ioChainWeapon@@@0@PAUChainInfo@ioChainWeapon@@$$QAU23@@Z ; std::_Cons_val<std::allocator<ioChainWeapon::ChainInfo>,ioChainWeapon::ChainInfo,ioChainWeapon::ChainInfo>
; Function compile flags: /Ogsp
;	COMDAT ??$_Cons_val@V?$allocator@UChainInfo@ioChainWeapon@@@std@@UChainInfo@ioChainWeapon@@U34@@std@@YAXAAV?$allocator@UChainInfo@ioChainWeapon@@@0@PAUChainInfo@ioChainWeapon@@$$QAU23@@Z
_TEXT	SEGMENT
__Alval$ = 8						; size = 4
__Pdest$ = 12						; size = 4
__Src$ = 16						; size = 4
??$_Cons_val@V?$allocator@UChainInfo@ioChainWeapon@@@std@@UChainInfo@ioChainWeapon@@U34@@std@@YAXAAV?$allocator@UChainInfo@ioChainWeapon@@@0@PAUChainInfo@ioChainWeapon@@$$QAU23@@Z PROC ; std::_Cons_val<std::allocator<ioChainWeapon::ChainInfo>,ioChainWeapon::ChainInfo,ioChainWeapon::ChainInfo>, COMDAT

; 279  : 	{	// construct using allocator

  00000	55		 push	 ebp
  00001	8b ec		 mov	 ebp, esp

; 280  : 	_Alval.construct(_Pdest, _STD forward<_Ty2>(_Src));

  00003	8b 45 0c	 mov	 eax, DWORD PTR __Pdest$[ebp]
  00006	85 c0		 test	 eax, eax
  00008	74 0d		 je	 SHORT $LN7@Cons_val@4
  0000a	8b 4d 10	 mov	 ecx, DWORD PTR __Src$[ebp]
  0000d	8b 11		 mov	 edx, DWORD PTR [ecx]
  0000f	89 10		 mov	 DWORD PTR [eax], edx
  00011	8b 49 04	 mov	 ecx, DWORD PTR [ecx+4]
  00014	89 48 04	 mov	 DWORD PTR [eax+4], ecx
$LN7@Cons_val@4:

; 281  : 	}

  00017	5d		 pop	 ebp
  00018	c3		 ret	 0
??$_Cons_val@V?$allocator@UChainInfo@ioChainWeapon@@@std@@UChainInfo@ioChainWeapon@@U34@@std@@YAXAAV?$allocator@UChainInfo@ioChainWeapon@@@0@PAUChainInfo@ioChainWeapon@@$$QAU23@@Z ENDP ; std::_Cons_val<std::allocator<ioChainWeapon::ChainInfo>,ioChainWeapon::ChainInfo,ioChainWeapon::ChainInfo>
_TEXT	ENDS
PUBLIC	??0?$vector@HV?$allocator@H@std@@@std@@QAE@XZ	; std::vector<int,std::allocator<int> >::vector<int,std::allocator<int> >
; Function compile flags: /Ogsp
; File c:\program files (x86)\microsoft visual studio 10.0\vc\include\vector
;	COMDAT ??0?$vector@HV?$allocator@H@std@@@std@@QAE@XZ
_TEXT	SEGMENT
??0?$vector@HV?$allocator@H@std@@@std@@QAE@XZ PROC	; std::vector<int,std::allocator<int> >::vector<int,std::allocator<int> >, COMDAT
; _this$ = ecx

; 507  : 		{	// construct empty vector

  00000	8b c1		 mov	 eax, ecx
  00002	33 c9		 xor	 ecx, ecx
  00004	89 08		 mov	 DWORD PTR [eax], ecx
  00006	89 48 04	 mov	 DWORD PTR [eax+4], ecx
  00009	89 48 08	 mov	 DWORD PTR [eax+8], ecx

; 508  : 		}

  0000c	c3		 ret	 0
??0?$vector@HV?$allocator@H@std@@@std@@QAE@XZ ENDP	; std::vector<int,std::allocator<int> >::vector<int,std::allocator<int> >
_TEXT	ENDS
PUBLIC	?_Destroy@?$vector@HV?$allocator@H@std@@@std@@IAEXPAH0@Z ; std::vector<int,std::allocator<int> >::_Destroy
; Function compile flags: /Ogsp
;	COMDAT ?_Destroy@?$vector@HV?$allocator@H@std@@@std@@IAEXPAH0@Z
_TEXT	SEGMENT
__First$ = 8						; size = 4
__Last$ = 12						; size = 4
?_Destroy@?$vector@HV?$allocator@H@std@@@std@@IAEXPAH0@Z PROC ; std::vector<int,std::allocator<int> >::_Destroy, COMDAT
; _this$ = ecx

; 1270 : 		_Destroy_range(_First, _Last, this->_Alval);
; 1271 : 		}

  00000	c2 08 00	 ret	 8
?_Destroy@?$vector@HV?$allocator@H@std@@@std@@IAEXPAH0@Z ENDP ; std::vector<int,std::allocator<int> >::_Destroy
_TEXT	ENDS
PUBLIC	??$_Umove@PAH@?$vector@HV?$allocator@H@std@@@std@@IAEPAHPAH00@Z ; std::vector<int,std::allocator<int> >::_Umove<int *>
; Function compile flags: /Ogsp
;	COMDAT ??$_Umove@PAH@?$vector@HV?$allocator@H@std@@@std@@IAEPAHPAH00@Z
_TEXT	SEGMENT
__First$ = 8						; size = 4
__Last$ = 12						; size = 4
__Ptr$ = 16						; size = 4
??$_Umove@PAH@?$vector@HV?$allocator@H@std@@@std@@IAEPAHPAH00@Z PROC ; std::vector<int,std::allocator<int> >::_Umove<int *>, COMDAT
; _this$ = ecx

; 1322 : 		pointer _Umove(_Iter _First, _Iter _Last, pointer _Ptr)

  00000	55		 push	 ebp
  00001	8b ec		 mov	 ebp, esp

; 1323 : 		{	// move initializing [_First, _Last), using allocator
; 1324 : 		return (_Uninitialized_move(_First, _Last,
; 1325 : 			_Ptr, this->_Alval));

  00003	83 c1 0c	 add	 ecx, 12			; 0000000cH
  00006	51		 push	 ecx
  00007	ff 75 10	 push	 DWORD PTR __Ptr$[ebp]
  0000a	ff 75 0c	 push	 DWORD PTR __Last$[ebp]
  0000d	ff 75 08	 push	 DWORD PTR __First$[ebp]
  00010	e8 00 00 00 00	 call	 ??$_Uninitialized_move@PAHPAHV?$allocator@H@std@@@std@@YAPAHPAH00AAV?$allocator@H@0@@Z ; std::_Uninitialized_move<int *,int *,std::allocator<int> >
  00015	83 c4 10	 add	 esp, 16			; 00000010H

; 1326 : 		}

  00018	5d		 pop	 ebp
  00019	c2 0c 00	 ret	 12			; 0000000cH
??$_Umove@PAH@?$vector@HV?$allocator@H@std@@@std@@IAEPAHPAH00@Z ENDP ; std::vector<int,std::allocator<int> >::_Umove<int *>
_TEXT	ENDS
PUBLIC	?InitResource@ioChainWeapon@@UAE_NXZ		; ioChainWeapon::InitResource
EXTRN	?InitResource@ioWeapon@@UAE_NXZ:PROC		; ioWeapon::InitResource
; Function compile flags: /Ogsp
; File d:\lost saga for developer\youtube\tutorial\source\src\lsclient\iochainweapon.cpp
;	COMDAT ?InitResource@ioChainWeapon@@UAE_NXZ
_TEXT	SEGMENT
?InitResource@ioChainWeapon@@UAE_NXZ PROC		; ioChainWeapon::InitResource, COMDAT
; _this$ = ecx

; 44   : {

  00000	56		 push	 esi
  00001	8b f1		 mov	 esi, ecx

; 45   : 	if( ioWeapon::InitResource() )

  00003	e8 00 00 00 00	 call	 ?InitResource@ioWeapon@@UAE_NXZ ; ioWeapon::InitResource
  00008	84 c0		 test	 al, al
  0000a	74 25		 je	 SHORT $LN1@InitResour

; 46   : 	{
; 47   : 		DestroyResource();

  0000c	8b 06		 mov	 eax, DWORD PTR [esi]
  0000e	6a 00		 push	 0
  00010	8b ce		 mov	 ecx, esi
  00012	ff 90 9c 00 00
	00		 call	 DWORD PTR [eax+156]

; 48   : 		return CreateFireBall( GetAttribute()->m_WeaponEffect );

  00018	8b 06		 mov	 eax, DWORD PTR [esi]
  0001a	8b ce		 mov	 ecx, esi
  0001c	ff 90 3c 01 00
	00		 call	 DWORD PTR [eax+316]
  00022	05 34 01 00 00	 add	 eax, 308		; 00000134H
  00027	50		 push	 eax
  00028	8b ce		 mov	 ecx, esi
  0002a	e8 00 00 00 00	 call	 ?CreateFireBall@ioChainWeapon@@IAE_NABVioHashString@@@Z ; ioChainWeapon::CreateFireBall
  0002f	5e		 pop	 esi

; 52   : }

  00030	c3		 ret	 0
$LN1@InitResour:

; 49   : 	}
; 50   : 
; 51   : 	return false;

  00031	32 c0		 xor	 al, al
  00033	5e		 pop	 esi

; 52   : }

  00034	c3		 ret	 0
?InitResource@ioChainWeapon@@UAE_NXZ ENDP		; ioChainWeapon::InitResource
_TEXT	ENDS
PUBLIC	__real@4f800000
PUBLIC	__$ArrayPad$
PUBLIC	?Process@ioChainWeapon@@UAEXMPAVioPlayStage@@@Z	; ioChainWeapon::Process
EXTRN	__imp_?IsLive@ioEffect@@QBE_NXZ:PROC
EXTRN	?GetMidPositionByRate@ioGameEntity@@QBE?AUD3DXVECTOR3@@M@Z:PROC ; ioGameEntity::GetMidPositionByRate
;	COMDAT __real@4f800000
; File d:\lost saga for developer\youtube\tutorial\source\src\lsclient\stdafx.h
CONST	SEGMENT
__real@4f800000 DD 04f800000r			; 4.29497e+009
; Function compile flags: /Ogsp
; File d:\lost saga for developer\youtube\tutorial\source\src\lsclient\iochainweapon.cpp
CONST	ENDS
;	COMDAT ?Process@ioChainWeapon@@UAEXMPAVioPlayStage@@@Z
_TEXT	SEGMENT
_vDiff$524733 = -44					; size = 12
tv646 = -32						; size = 4
tv642 = -32						; size = 4
tv638 = -32						; size = 4
tv569 = -32						; size = 4
tv566 = -32						; size = 4
_value$528374 = -32					; size = 4
_value$528350 = -32					; size = 4
_value$528316 = -32					; size = 4
_fMoveDist$524738 = -32					; size = 4
$T524740 = -28						; size = 12
_vTargetPos$524732 = -28				; size = 12
_vOwnerPos$524730 = -16					; size = 12
__$ArrayPad$ = -4					; size = 4
_fTimePerSec$ = 8					; size = 4
_pStage$ = 12						; size = 4
?Process@ioChainWeapon@@UAEXMPAVioPlayStage@@@Z PROC	; ioChainWeapon::Process, COMDAT
; _this$ = ecx

; 197  : {

  00000	55		 push	 ebp
  00001	8b ec		 mov	 ebp, esp
  00003	83 ec 2c	 sub	 esp, 44			; 0000002cH
  00006	a1 00 00 00 00	 mov	 eax, DWORD PTR ___security_cookie
  0000b	33 c5		 xor	 eax, ebp
  0000d	89 45 fc	 mov	 DWORD PTR __$ArrayPad$[ebp], eax
  00010	53		 push	 ebx
  00011	8b d9		 mov	 ebx, ecx

; 198  : 	if( !CheckPiercing() )

  00013	8b 03		 mov	 eax, DWORD PTR [ebx]
  00015	6a 00		 push	 0
  00017	ff 90 48 01 00
	00		 call	 DWORD PTR [eax+328]
  0001d	84 c0		 test	 al, al
  0001f	0f 84 85 02 00
	00		 je	 $LN1@Process

; 199  : 		return;
; 200  : 
; 201  : 	if( GetOwner() && m_fLimitLengthToOwner > 0.0f )

  00025	8b cb		 mov	 ecx, ebx
  00027	e8 00 00 00 00	 call	 ?GetOwner@ioWeapon@@QBEPAVioBaseChar@@XZ ; ioWeapon::GetOwner
  0002c	85 c0		 test	 eax, eax
  0002e	0f 84 3b 01 00
	00		 je	 $LN47@Process
  00034	8d 45 e0	 lea	 eax, DWORD PTR _value$528316[ebp]
  00037	8d 8b b8 09 00
	00		 lea	 ecx, DWORD PTR [ebx+2488]
  0003d	50		 push	 eax
  0003e	e8 00 00 00 00	 call	 ?DecryptValueToPool@?$CEncrypt@M@@QAEXPAM@Z ; CEncrypt<float>::DecryptValueToPool
  00043	f3 0f 10 45 e0	 movss	 xmm0, DWORD PTR _value$528316[ebp]
  00048	0f 2f 05 00 00
	00 00		 comiss	 xmm0, DWORD PTR __real@00000000
  0004f	0f 86 1a 01 00
	00		 jbe	 $LN47@Process

; 202  : 	{
; 203  : 		D3DXVECTOR3 vOwnerPos = GetOwner()->GetMidPositionByRate();

  00055	56		 push	 esi
  00056	57		 push	 edi
  00057	b8 05 00 00 00	 mov	 eax, 5
  0005c	8b c8		 mov	 ecx, eax
  0005e	b8 0a 00 00 00	 mov	 eax, 10			; 0000000aH
  00063	89 4d e0	 mov	 DWORD PTR tv646[ebp], ecx
  00066	db 45 e0	 fild	 DWORD PTR tv646[ebp]
  00069	85 c9		 test	 ecx, ecx
  0006b	79 06		 jns	 SHORT $LN48@Process
  0006d	d8 05 00 00 00
	00		 fadd	 DWORD PTR __real@4f800000
$LN48@Process:
  00073	89 45 e0	 mov	 DWORD PTR tv642[ebp], eax
  00076	db 45 e0	 fild	 DWORD PTR tv642[ebp]
  00079	85 c0		 test	 eax, eax
  0007b	79 06		 jns	 SHORT $LN49@Process
  0007d	d8 05 00 00 00
	00		 fadd	 DWORD PTR __real@4f800000
$LN49@Process:
  00083	de f9		 fdivp	 ST(1), ST(0)
  00085	51		 push	 ecx
  00086	8d 45 f0	 lea	 eax, DWORD PTR _vOwnerPos$524730[ebp]
  00089	8b cb		 mov	 ecx, ebx
  0008b	d9 5d e0	 fstp	 DWORD PTR tv638[ebp]
  0008e	d9 45 e0	 fld	 DWORD PTR tv638[ebp]
  00091	d9 1c 24	 fstp	 DWORD PTR [esp]
  00094	50		 push	 eax
  00095	e8 00 00 00 00	 call	 ?GetOwner@ioWeapon@@QBEPAVioBaseChar@@XZ ; ioWeapon::GetOwner
  0009a	8b c8		 mov	 ecx, eax
  0009c	e8 00 00 00 00	 call	 ?GetMidPositionByRate@ioGameEntity@@QBE?AUD3DXVECTOR3@@M@Z ; ioGameEntity::GetMidPositionByRate

; 204  : 		D3DXVECTOR3 vTargetPos = GetPosition();

  000a1	8b 03		 mov	 eax, DWORD PTR [ebx]
  000a3	8b cb		 mov	 ecx, ebx
  000a5	ff 50 70	 call	 DWORD PTR [eax+112]

; 205  : 		D3DXVECTOR3 vDiff = vTargetPos - vOwnerPos;

  000a8	f3 0f 10 4d f0	 movss	 xmm1, DWORD PTR _vOwnerPos$524730[ebp]
  000ad	8b f0		 mov	 esi, eax
  000af	8d 7d e4	 lea	 edi, DWORD PTR _vTargetPos$524732[ebp]
  000b2	a5		 movsd
  000b3	a5		 movsd
  000b4	a5		 movsd
  000b5	f3 0f 10 45 e4	 movss	 xmm0, DWORD PTR _vTargetPos$524732[ebp]
  000ba	0f 5a c0	 cvtps2pd xmm0, xmm0
  000bd	0f 5a c9	 cvtps2pd xmm1, xmm1
  000c0	f2 0f 5c c1	 subsd	 xmm0, xmm1
  000c4	f3 0f 10 4d f4	 movss	 xmm1, DWORD PTR _vOwnerPos$524730[ebp+4]
  000c9	66 0f 5a c0	 cvtpd2ps xmm0, xmm0
  000cd	f3 0f 11 45 d4	 movss	 DWORD PTR _vDiff$524733[ebp], xmm0
  000d2	f3 0f 10 45 e8	 movss	 xmm0, DWORD PTR _vTargetPos$524732[ebp+4]
  000d7	0f 5a c0	 cvtps2pd xmm0, xmm0
  000da	0f 5a c9	 cvtps2pd xmm1, xmm1
  000dd	f2 0f 5c c1	 subsd	 xmm0, xmm1
  000e1	f3 0f 10 4d f8	 movss	 xmm1, DWORD PTR _vOwnerPos$524730[ebp+8]
  000e6	66 0f 5a c0	 cvtpd2ps xmm0, xmm0
  000ea	f3 0f 11 45 d8	 movss	 DWORD PTR _vDiff$524733[ebp+4], xmm0
  000ef	f3 0f 10 45 ec	 movss	 xmm0, DWORD PTR _vTargetPos$524732[ebp+8]
  000f4	0f 5a c0	 cvtps2pd xmm0, xmm0
  000f7	0f 5a c9	 cvtps2pd xmm1, xmm1

; 206  : 		float fLength = D3DXVec3Length( &vDiff );
; 207  : 		if( fLength > m_fLimitLengthToOwner )

  000fa	8d 45 e0	 lea	 eax, DWORD PTR _value$528350[ebp]
  000fd	f2 0f 5c c1	 subsd	 xmm0, xmm1
  00101	66 0f 5a c0	 cvtpd2ps xmm0, xmm0
  00105	50		 push	 eax
  00106	8d 8b b8 09 00
	00		 lea	 ecx, DWORD PTR [ebx+2488]
  0010c	f3 0f 11 45 dc	 movss	 DWORD PTR _vDiff$524733[ebp+8], xmm0
  00111	e8 00 00 00 00	 call	 ?DecryptValueToPool@?$CEncrypt@M@@QAEXPAM@Z ; CEncrypt<float>::DecryptValueToPool
  00116	f3 0f 10 45 d8	 movss	 xmm0, DWORD PTR _vDiff$524733[ebp+4]
  0011b	f3 0f 10 4d d4	 movss	 xmm1, DWORD PTR _vDiff$524733[ebp]
  00120	f3 0f 10 55 dc	 movss	 xmm2, DWORD PTR _vDiff$524733[ebp+8]
  00125	0f 5a c0	 cvtps2pd xmm0, xmm0
  00128	f2 0f 59 c0	 mulsd	 xmm0, xmm0
  0012c	0f 5a c9	 cvtps2pd xmm1, xmm1
  0012f	f2 0f 59 c9	 mulsd	 xmm1, xmm1
  00133	f2 0f 58 c8	 addsd	 xmm1, xmm0
  00137	0f 57 c0	 xorps	 xmm0, xmm0
  0013a	0f 5a d2	 cvtps2pd xmm2, xmm2
  0013d	f2 0f 59 d2	 mulsd	 xmm2, xmm2
  00141	f2 0f 58 ca	 addsd	 xmm1, xmm2
  00145	f2 0f 5a c1	 cvtsd2ss xmm0, xmm1
  00149	f3 0f 10 4d e0	 movss	 xmm1, DWORD PTR _value$528350[ebp]
  0014e	0f 5a c0	 cvtps2pd xmm0, xmm0
  00151	f2 0f 51 c0	 sqrtsd	 xmm0, xmm0
  00155	66 0f 5a c0	 cvtpd2ps xmm0, xmm0
  00159	f3 0f 5a c0	 cvtss2sd xmm0, xmm0
  0015d	0f 5a c9	 cvtps2pd xmm1, xmm1
  00160	66 0f 2f c1	 comisd	 xmm0, xmm1
  00164	5f		 pop	 edi
  00165	5e		 pop	 esi
  00166	76 07		 jbe	 SHORT $LN47@Process

; 208  : 		{
; 209  : 			SetWeaponDead();

  00168	8b 03		 mov	 eax, DWORD PTR [ebx]
  0016a	8b cb		 mov	 ecx, ebx
  0016c	ff 50 4c	 call	 DWORD PTR [eax+76]
$LN47@Process:

; 210  : 		}
; 211  : 	}
; 212  : 
; 213  : 	if( !m_bFirst )

  0016f	80 bb 30 0a 00
	00 00		 cmp	 BYTE PTR [ebx+2608], 0
  00176	0f 85 9f 00 00
	00		 jne	 $LN10@Process

; 214  : 	{
; 215  : 		float fMoveDist = GetMoveSpeed() * fTimePerSec;

  0017c	8b cb		 mov	 ecx, ebx
  0017e	e8 00 00 00 00	 call	 ?GetMoveSpeed@ioChainWeapon@@IAEMXZ ; ioChainWeapon::GetMoveSpeed
  00183	d8 4d 08	 fmul	 DWORD PTR _fTimePerSec$[ebp]

; 216  : 
; 217  : 		if( m_ChainState == CWS_MOVE )

  00186	83 bb 98 08 00
	00 01		 cmp	 DWORD PTR [ebx+2200], 1

; 220  : 			GetParentSceneNode()->Translate( m_vMoveDir * fMoveDist );

  0018d	6a 01		 push	 1
  0018f	d9 5d e0	 fstp	 DWORD PTR _fMoveDist$524738[ebp]
  00192	0f 85 21 01 00
	00		 jne	 $LN9@Process

; 218  : 		{
; 219  : 			m_fCurMoveDistance += fMoveDist;

  00198	f3 0f 10 93 18
	0a 00 00	 movss	 xmm2, DWORD PTR [ebx+2584]
  001a0	f3 0f 10 45 e0	 movss	 xmm0, DWORD PTR _fMoveDist$524738[ebp]
  001a5	0f 5a c8	 cvtps2pd xmm1, xmm0

; 220  : 			GetParentSceneNode()->Translate( m_vMoveDir * fMoveDist );

  001a8	8b 4b 04	 mov	 ecx, DWORD PTR [ebx+4]
  001ab	0f 5a d2	 cvtps2pd xmm2, xmm2
  001ae	f2 0f 58 ca	 addsd	 xmm1, xmm2
  001b2	66 0f 5a c9	 cvtpd2ps xmm1, xmm1
  001b6	f3 0f 11 8b 18
	0a 00 00	 movss	 DWORD PTR [ebx+2584], xmm1
  001be	f3 0f 10 8b ac
	08 00 00	 movss	 xmm1, DWORD PTR [ebx+2220]
  001c6	0f 5a c9	 cvtps2pd xmm1, xmm1
  001c9	0f 5a d0	 cvtps2pd xmm2, xmm0
  001cc	f2 0f 59 ca	 mulsd	 xmm1, xmm2
  001d0	66 0f 5a c9	 cvtpd2ps xmm1, xmm1
  001d4	f3 0f 11 4d e4	 movss	 DWORD PTR $T524740[ebp], xmm1
  001d9	f3 0f 10 8b b0
	08 00 00	 movss	 xmm1, DWORD PTR [ebx+2224]
  001e1	0f 5a c9	 cvtps2pd xmm1, xmm1
  001e4	0f 5a d0	 cvtps2pd xmm2, xmm0
  001e7	f2 0f 59 ca	 mulsd	 xmm1, xmm2
  001eb	66 0f 5a c9	 cvtpd2ps xmm1, xmm1
  001ef	f3 0f 11 4d e8	 movss	 DWORD PTR $T524740[ebp+4], xmm1
  001f4	f3 0f 10 8b b4
	08 00 00	 movss	 xmm1, DWORD PTR [ebx+2228]
  001fc	0f 5a c0	 cvtps2pd xmm0, xmm0
  001ff	0f 5a c9	 cvtps2pd xmm1, xmm1
  00202	f2 0f 59 c8	 mulsd	 xmm1, xmm0
  00206	0f 57 c0	 xorps	 xmm0, xmm0
  00209	66 0f 5a c1	 cvtpd2ps xmm0, xmm1
  0020d	8d 55 e4	 lea	 edx, DWORD PTR $T524740[ebp]
  00210	f3 0f 11 45 ec	 movss	 DWORD PTR $T524740[ebp+8], xmm0
  00215	8b 01		 mov	 eax, DWORD PTR [ecx]
  00217	52		 push	 edx
  00218	ff 50 3c	 call	 DWORD PTR [eax+60]
$LN10@Process:

; 242  : 	{
; 243  : 		UpdateWorldAttackBox( fTimePerSec, false );

  0021b	f3 0f 10 45 08	 movss	 xmm0, DWORD PTR _fTimePerSec$[ebp]
  00220	8b 03		 mov	 eax, DWORD PTR [ebx]
  00222	6a 00		 push	 0
  00224	51		 push	 ecx
  00225	8b cb		 mov	 ecx, ebx
  00227	f3 0f 11 04 24	 movss	 DWORD PTR [esp], xmm0
  0022c	ff 90 38 01 00
	00		 call	 DWORD PTR [eax+312]
$LN3@Process:

; 244  : 	}
; 245  : 
; 246  : 	if( IsLive() && m_fCurMoveDistance >= m_fCurChainRange )

  00232	80 bb 82 05 00
	00 00		 cmp	 BYTE PTR [ebx+1410], 0
  00239	74 2f		 je	 SHORT $LN2@Process
  0023b	8d 45 e0	 lea	 eax, DWORD PTR _value$528374[ebp]
  0023e	50		 push	 eax
  0023f	8d 8b 18 09 00
	00		 lea	 ecx, DWORD PTR [ebx+2328]
  00245	e8 00 00 00 00	 call	 ?DecryptValueToPool@?$CEncrypt@M@@QAEXPAM@Z ; CEncrypt<float>::DecryptValueToPool
  0024a	f3 0f 10 83 18
	0a 00 00	 movss	 xmm0, DWORD PTR [ebx+2584]
  00252	f3 0f 10 4d e0	 movss	 xmm1, DWORD PTR _value$528374[ebp]
  00257	0f 5a c0	 cvtps2pd xmm0, xmm0
  0025a	0f 5a c9	 cvtps2pd xmm1, xmm1
  0025d	66 0f 2f c1	 comisd	 xmm0, xmm1
  00261	72 07		 jb	 SHORT $LN2@Process

; 247  : 	{
; 248  : 		SetWaitState();

  00263	8b cb		 mov	 ecx, ebx
  00265	e8 00 00 00 00	 call	 ?SetWaitState@ioChainWeapon@@QAEXXZ ; ioChainWeapon::SetWaitState
$LN2@Process:

; 249  : 	}
; 250  : 
; 251  : 	m_bFirst = false;
; 252  : 	
; 253  : 	if( m_pFireBall )

  0026a	83 bb 94 08 00
	00 00		 cmp	 DWORD PTR [ebx+2196], 0
  00271	c6 83 30 0a 00
	00 00		 mov	 BYTE PTR [ebx+2608], 0
  00278	74 30		 je	 SHORT $LN1@Process

; 254  : 	{
; 255  : 		m_pFireBall->Update( fTimePerSec * FLOAT1000 );

  0027a	b8 e8 03 00 00	 mov	 eax, 1000		; 000003e8H
  0027f	8b 8b 94 08 00
	00		 mov	 ecx, DWORD PTR [ebx+2196]
  00285	83 c1 14	 add	 ecx, 20			; 00000014H
  00288	8b 11		 mov	 edx, DWORD PTR [ecx]
  0028a	89 45 e0	 mov	 DWORD PTR tv569[ebp], eax
  0028d	db 45 e0	 fild	 DWORD PTR tv569[ebp]
  00290	85 c0		 test	 eax, eax
  00292	79 06		 jns	 SHORT $LN50@Process
  00294	d8 05 00 00 00
	00		 fadd	 DWORD PTR __real@4f800000
$LN50@Process:
  0029a	d8 4d 08	 fmul	 DWORD PTR _fTimePerSec$[ebp]
  0029d	51		 push	 ecx
  0029e	d9 5d e0	 fstp	 DWORD PTR tv566[ebp]
  002a1	d9 45 e0	 fld	 DWORD PTR tv566[ebp]
  002a4	d9 1c 24	 fstp	 DWORD PTR [esp]
  002a7	ff 52 40	 call	 DWORD PTR [edx+64]
$LN1@Process:

; 256  : 	}
; 257  : }

  002aa	8b 4d fc	 mov	 ecx, DWORD PTR __$ArrayPad$[ebp]
  002ad	33 cd		 xor	 ecx, ebp
  002af	5b		 pop	 ebx
  002b0	e8 00 00 00 00	 call	 @__security_check_cookie@4
  002b5	c9		 leave
  002b6	c2 08 00	 ret	 8
$LN9@Process:

; 221  : 			UpdateWorldAttackBox( fTimePerSec, false );
; 222  : 		}
; 223  : 		else
; 224  : 		{
; 225  : 			UpdateWorldAttackBox( fTimePerSec, true );

  002b9	f3 0f 10 45 08	 movss	 xmm0, DWORD PTR _fTimePerSec$[ebp]
  002be	8b 03		 mov	 eax, DWORD PTR [ebx]
  002c0	51		 push	 ecx
  002c1	8b cb		 mov	 ecx, ebx
  002c3	f3 0f 11 04 24	 movss	 DWORD PTR [esp], xmm0
  002c8	ff 90 38 01 00
	00		 call	 DWORD PTR [eax+312]

; 226  : 
; 227  : 			if( m_ChainState == CWS_COLLISION )

  002ce	83 bb 98 08 00
	00 02		 cmp	 DWORD PTR [ebx+2200], 2
  002d5	75 25		 jne	 SHORT $LN6@Process

; 228  : 			{
; 229  : 				if( m_dwCollisionTime+200 < FRAMEGETTIME() )

  002d7	ff 15 00 00 00
	00		 call	 DWORD PTR __imp_?GetSingleton@ioFrameTimer@@SAAAV1@XZ
  002dd	8b c8		 mov	 ecx, eax
  002df	ff 15 00 00 00
	00		 call	 DWORD PTR __imp_?GetLoopSec@ioFrameTimer@@QBEKXZ
  002e5	8b 8b 1c 0a 00
	00		 mov	 ecx, DWORD PTR [ebx+2588]
  002eb	81 c1 c8 00 00
	00		 add	 ecx, 200		; 000000c8H
  002f1	3b c8		 cmp	 ecx, eax
  002f3	73 07		 jae	 SHORT $LN6@Process

; 230  : 				{
; 231  : 					SetWaitState();

  002f5	8b cb		 mov	 ecx, ebx
  002f7	e8 00 00 00 00	 call	 ?SetWaitState@ioChainWeapon@@QAEXXZ ; ioChainWeapon::SetWaitState
$LN6@Process:

; 232  : 				}
; 233  : 			}
; 234  : 
; 235  : 			if( !m_pFireBall || !m_pFireBall->IsLive() )

  002fc	8b 8b 94 08 00
	00		 mov	 ecx, DWORD PTR [ebx+2196]
  00302	85 c9		 test	 ecx, ecx
  00304	74 0e		 je	 SHORT $LN4@Process
  00306	ff 15 00 00 00
	00		 call	 DWORD PTR __imp_?IsLive@ioEffect@@QBE_NXZ
  0030c	84 c0		 test	 al, al
  0030e	0f 85 1e ff ff
	ff		 jne	 $LN3@Process
$LN4@Process:

; 236  : 			{
; 237  : 				SetWeaponDead();

  00314	8b 03		 mov	 eax, DWORD PTR [ebx]
  00316	8b cb		 mov	 ecx, ebx
  00318	ff 50 4c	 call	 DWORD PTR [eax+76]

; 238  : 			}
; 239  : 		}
; 240  : 	}
; 241  : 	else

  0031b	e9 12 ff ff ff	 jmp	 $LN3@Process
?Process@ioChainWeapon@@UAEXMPAVioPlayStage@@@Z ENDP	; ioChainWeapon::Process
_TEXT	ENDS
PUBLIC	??$_Destroy_range@V?$allocator@UChainInfo@ioChainWeapon@@@std@@@std@@YAXPAUChainInfo@ioChainWeapon@@0AAV?$allocator@UChainInfo@ioChainWeapon@@@0@U_Nonscalar_ptr_iterator_tag@0@@Z ; std::_Destroy_range<std::allocator<ioChainWeapon::ChainInfo> >
; Function compile flags: /Ogsp
; File c:\program files (x86)\microsoft visual studio 10.0\vc\include\xmemory
;	COMDAT ??$_Destroy_range@V?$allocator@UChainInfo@ioChainWeapon@@@std@@@std@@YAXPAUChainInfo@ioChainWeapon@@0AAV?$allocator@UChainInfo@ioChainWeapon@@@0@U_Nonscalar_ptr_iterator_tag@0@@Z
_TEXT	SEGMENT
__First$ = 8						; size = 4
__Last$ = 12						; size = 4
__Al$ = 16						; size = 4
___formal$ = 20						; size = 1
??$_Destroy_range@V?$allocator@UChainInfo@ioChainWeapon@@@std@@@std@@YAXPAUChainInfo@ioChainWeapon@@0AAV?$allocator@UChainInfo@ioChainWeapon@@@0@U_Nonscalar_ptr_iterator_tag@0@@Z PROC ; std::_Destroy_range<std::allocator<ioChainWeapon::ChainInfo> >, COMDAT

; 96   : 	for (; _First != _Last; ++_First)
; 97   : 		_Dest_val(_Al, _First);
; 98   : 	}

  00000	c3		 ret	 0
??$_Destroy_range@V?$allocator@UChainInfo@ioChainWeapon@@@std@@@std@@YAXPAUChainInfo@ioChainWeapon@@0AAV?$allocator@UChainInfo@ioChainWeapon@@@0@U_Nonscalar_ptr_iterator_tag@0@@Z ENDP ; std::_Destroy_range<std::allocator<ioChainWeapon::ChainInfo> >
_TEXT	ENDS
PUBLIC	??$_Uninit_move@PAUChainInfo@ioChainWeapon@@PAU12@V?$allocator@UChainInfo@ioChainWeapon@@@std@@U12@@std@@YAPAUChainInfo@ioChainWeapon@@PAU12@00AAV?$allocator@UChainInfo@ioChainWeapon@@@0@0U_Nonscalar_ptr_iterator_tag@0@@Z ; std::_Uninit_move<ioChainWeapon::ChainInfo *,ioChainWeapon::ChainInfo *,std::allocator<ioChainWeapon::ChainInfo>,ioChainWeapon::ChainInfo>
; Function compile flags: /Ogsp
; File c:\program files (x86)\microsoft visual studio 10.0\vc\include\memory
;	COMDAT ??$_Uninit_move@PAUChainInfo@ioChainWeapon@@PAU12@V?$allocator@UChainInfo@ioChainWeapon@@@std@@U12@@std@@YAPAUChainInfo@ioChainWeapon@@PAU12@00AAV?$allocator@UChainInfo@ioChainWeapon@@@0@0U_Nonscalar_ptr_iterator_tag@0@@Z
_TEXT	SEGMENT
__First$ = 8						; size = 4
__Last$ = 12						; size = 4
__Dest$ = 16						; size = 4
__Al$ = 20						; size = 4
___formal$ = 24						; size = 4
___formal$ = 28						; size = 1
??$_Uninit_move@PAUChainInfo@ioChainWeapon@@PAU12@V?$allocator@UChainInfo@ioChainWeapon@@@std@@U12@@std@@YAPAUChainInfo@ioChainWeapon@@PAU12@00AAV?$allocator@UChainInfo@ioChainWeapon@@@0@0U_Nonscalar_ptr_iterator_tag@0@@Z PROC ; std::_Uninit_move<ioChainWeapon::ChainInfo *,ioChainWeapon::ChainInfo *,std::allocator<ioChainWeapon::ChainInfo>,ioChainWeapon::ChainInfo>, COMDAT

; 424  : 	{	// move [_First, _Last) to raw _Dest, using _Al, arbitrary type

  00000	55		 push	 ebp
  00001	8b ec		 mov	 ebp, esp
  00003	56		 push	 esi

; 425  : 	_DEBUG_RANGE(_First, _Last);
; 426  : 	_DEBUG_POINTER(_Dest);
; 427  : 	_FwdIt _Next = _Dest;
; 428  : 
; 429  : 	_TRY_BEGIN
; 430  : 	for (; _First != _Last; ++_Dest, ++_First)

  00004	8b 75 08	 mov	 esi, DWORD PTR __First$[ebp]
  00007	eb 16		 jmp	 SHORT $LN24@Uninit_mov
$LL6@Uninit_mov:

; 431  : 		_Cons_val(_Al, _Dest, (_Valty &&)*_First);

  00009	56		 push	 esi
  0000a	ff 75 10	 push	 DWORD PTR __Dest$[ebp]
  0000d	ff 75 14	 push	 DWORD PTR __Al$[ebp]
  00010	e8 00 00 00 00	 call	 ??$_Cons_val@V?$allocator@UChainInfo@ioChainWeapon@@@std@@UChainInfo@ioChainWeapon@@U34@@std@@YAXAAV?$allocator@UChainInfo@ioChainWeapon@@@0@PAUChainInfo@ioChainWeapon@@$$QAU23@@Z ; std::_Cons_val<std::allocator<ioChainWeapon::ChainInfo>,ioChainWeapon::ChainInfo,ioChainWeapon::ChainInfo>
  00015	83 45 10 08	 add	 DWORD PTR __Dest$[ebp], 8
  00019	83 c4 0c	 add	 esp, 12			; 0000000cH
  0001c	83 c6 08	 add	 esi, 8
$LN24@Uninit_mov:

; 425  : 	_DEBUG_RANGE(_First, _Last);
; 426  : 	_DEBUG_POINTER(_Dest);
; 427  : 	_FwdIt _Next = _Dest;
; 428  : 
; 429  : 	_TRY_BEGIN
; 430  : 	for (; _First != _Last; ++_Dest, ++_First)

  0001f	3b 75 0c	 cmp	 esi, DWORD PTR __Last$[ebp]
  00022	75 e5		 jne	 SHORT $LL6@Uninit_mov

; 432  : 	_CATCH_ALL
; 433  : 	for (; _Next != _Dest; ++_Next)
; 434  : 		_Dest_val(_Al, _Next);
; 435  : 	_RERAISE;
; 436  : 	_CATCH_END
; 437  : 	return (_Dest);

  00024	8b 45 10	 mov	 eax, DWORD PTR __Dest$[ebp]
  00027	5e		 pop	 esi

; 438  : 	}

  00028	5d		 pop	 ebp
  00029	c3		 ret	 0
??$_Uninit_move@PAUChainInfo@ioChainWeapon@@PAU12@V?$allocator@UChainInfo@ioChainWeapon@@@std@@U12@@std@@YAPAUChainInfo@ioChainWeapon@@PAU12@00AAV?$allocator@UChainInfo@ioChainWeapon@@@0@0U_Nonscalar_ptr_iterator_tag@0@@Z ENDP ; std::_Uninit_move<ioChainWeapon::ChainInfo *,ioChainWeapon::ChainInfo *,std::allocator<ioChainWeapon::ChainInfo>,ioChainWeapon::ChainInfo>
_TEXT	ENDS
PUBLIC	?_Tidy@?$vector@HV?$allocator@H@std@@@std@@IAEXXZ ; std::vector<int,std::allocator<int> >::_Tidy
EXTRN	__imp_?_Orphan_all@_Container_base0@std@@QAEXXZ:PROC
; Function compile flags: /Ogsp
; File c:\program files (x86)\microsoft visual studio 10.0\vc\include\vector
;	COMDAT ?_Tidy@?$vector@HV?$allocator@H@std@@@std@@IAEXXZ
_TEXT	SEGMENT
?_Tidy@?$vector@HV?$allocator@H@std@@@std@@IAEXXZ PROC	; std::vector<int,std::allocator<int> >::_Tidy, COMDAT
; _this$ = ecx

; 1301 : 		{	// free all storage

  00000	56		 push	 esi
  00001	8b f1		 mov	 esi, ecx

; 1302 : 		if (this->_Myfirst != 0)

  00003	83 3e 00	 cmp	 DWORD PTR [esi], 0
  00006	74 0e		 je	 SHORT $LN12@Tidy

; 1303 : 			{	// something to free, destroy and deallocate it
; 1304 : 			this->_Orphan_all();

  00008	ff 15 00 00 00
	00		 call	 DWORD PTR __imp_?_Orphan_all@_Container_base0@std@@QAEXXZ

; 1305 : 			_Destroy(this->_Myfirst, this->_Mylast);
; 1306 : 			this->_Alval.deallocate(this->_Myfirst,
; 1307 : 				this->_Myend - this->_Myfirst);

  0000e	ff 36		 push	 DWORD PTR [esi]
  00010	e8 00 00 00 00	 call	 ??3@YAXPAX@Z		; operator delete
  00015	59		 pop	 ecx
$LN12@Tidy:

; 1308 : 			}
; 1309 : 		this->_Myfirst = 0;

  00016	83 26 00	 and	 DWORD PTR [esi], 0

; 1310 : 		this->_Mylast = 0;

  00019	83 66 04 00	 and	 DWORD PTR [esi+4], 0

; 1311 : 		this->_Myend = 0;

  0001d	83 66 08 00	 and	 DWORD PTR [esi+8], 0
  00021	5e		 pop	 esi

; 1312 : 		}

  00022	c3		 ret	 0
?_Tidy@?$vector@HV?$allocator@H@std@@@std@@IAEXXZ ENDP	; std::vector<int,std::allocator<int> >::_Tidy
_TEXT	ENDS
PUBLIC	?reserve@?$vector@HV?$allocator@H@std@@@std@@QAEXI@Z ; std::vector<int,std::allocator<int> >::reserve
; Function compile flags: /Ogsp
;	COMDAT ?reserve@?$vector@HV?$allocator@H@std@@@std@@QAEXI@Z
_TEXT	SEGMENT
__Count$ = 8						; size = 4
?reserve@?$vector@HV?$allocator@H@std@@@std@@QAEXI@Z PROC ; std::vector<int,std::allocator<int> >::reserve, COMDAT
; _this$ = ecx

; 746  : 		{	// determine new minimum length of allocated storage

  00000	55		 push	 ebp
  00001	8b ec		 mov	 ebp, esp

; 747  : 		if (max_size() < _Count)

  00003	81 7d 08 ff ff
	ff 3f		 cmp	 DWORD PTR __Count$[ebp], 1073741823 ; 3fffffffH
  0000a	56		 push	 esi
  0000b	8b f1		 mov	 esi, ecx
  0000d	76 0b		 jbe	 SHORT $LN5@reserve

; 748  : 			_Xlen();	// result too long

  0000f	68 00 00 00 00	 push	 OFFSET ??_C@_0BD@OLBABOEK@vector?$DMT?$DO?5too?5long?$AA@
  00014	ff 15 00 00 00
	00		 call	 DWORD PTR __imp_?_Xlength_error@std@@YAXPBD@Z
$LN43@reserve:
$LN5@reserve:

; 749  : 		else if (capacity() < _Count)

  0001a	8b 46 08	 mov	 eax, DWORD PTR [esi+8]
  0001d	2b 06		 sub	 eax, DWORD PTR [esi]
  0001f	c1 f8 02	 sar	 eax, 2
  00022	3b 45 08	 cmp	 eax, DWORD PTR __Count$[ebp]
  00025	73 52		 jae	 SHORT $LN3@reserve

; 750  : 			{	// not enough room, reallocate
; 751  : 			pointer _Ptr = this->_Alval.allocate(_Count);

  00027	53		 push	 ebx
  00028	57		 push	 edi
  00029	6a 00		 push	 0
  0002b	ff 75 08	 push	 DWORD PTR __Count$[ebp]
  0002e	e8 00 00 00 00	 call	 ??$_Allocate@H@std@@YAPAHIPAH@Z ; std::_Allocate<int>

; 752  : 
; 753  : 			_TRY_BEGIN
; 754  : 			_Umove(this->_Myfirst, this->_Mylast, _Ptr);

  00033	8b 0e		 mov	 ecx, DWORD PTR [esi]
  00035	8d 56 0c	 lea	 edx, DWORD PTR [esi+12]
  00038	52		 push	 edx
  00039	8b d8		 mov	 ebx, eax
  0003b	8b 46 04	 mov	 eax, DWORD PTR [esi+4]
  0003e	53		 push	 ebx
  0003f	50		 push	 eax
  00040	51		 push	 ecx
  00041	e8 00 00 00 00	 call	 ??$_Uninitialized_move@PAHPAHV?$allocator@H@std@@@std@@YAPAHPAH00AAV?$allocator@H@0@@Z ; std::_Uninitialized_move<int *,int *,std::allocator<int> >

; 755  : 			_CATCH_ALL
; 756  : 			this->_Alval.deallocate(_Ptr, _Count);
; 757  : 			_RERAISE;
; 758  : 			_CATCH_END
; 759  : 
; 760  : 			size_type _Size = size();

  00046	8b 06		 mov	 eax, DWORD PTR [esi]
  00048	8b 7e 04	 mov	 edi, DWORD PTR [esi+4]
  0004b	2b f8		 sub	 edi, eax
  0004d	83 c4 18	 add	 esp, 24			; 00000018H
  00050	c1 ff 02	 sar	 edi, 2

; 761  : 			if (this->_Myfirst != 0)

  00053	85 c0		 test	 eax, eax
  00055	74 07		 je	 SHORT $LN39@reserve

; 762  : 				{	// destroy and deallocate old array
; 763  : 				_Destroy(this->_Myfirst, this->_Mylast);
; 764  : 				this->_Alval.deallocate(this->_Myfirst,
; 765  : 					this->_Myend - this->_Myfirst);

  00057	50		 push	 eax
  00058	e8 00 00 00 00	 call	 ??3@YAXPAX@Z		; operator delete
  0005d	59		 pop	 ecx
$LN39@reserve:

; 766  : 				}
; 767  : 
; 768  : 			this->_Orphan_all();

  0005e	8b ce		 mov	 ecx, esi
  00060	ff 15 00 00 00
	00		 call	 DWORD PTR __imp_?_Orphan_all@_Container_base0@std@@QAEXXZ

; 769  : 			this->_Myend = _Ptr + _Count;

  00066	8b 45 08	 mov	 eax, DWORD PTR __Count$[ebp]
  00069	8d 04 83	 lea	 eax, DWORD PTR [ebx+eax*4]
  0006c	89 46 08	 mov	 DWORD PTR [esi+8], eax

; 770  : 			this->_Mylast = _Ptr + _Size;

  0006f	8d 04 bb	 lea	 eax, DWORD PTR [ebx+edi*4]
  00072	5f		 pop	 edi

; 771  : 			this->_Myfirst = _Ptr;

  00073	89 1e		 mov	 DWORD PTR [esi], ebx
  00075	89 46 04	 mov	 DWORD PTR [esi+4], eax
  00078	5b		 pop	 ebx
$LN3@reserve:
  00079	5e		 pop	 esi

; 772  : 			}
; 773  : 		}

  0007a	5d		 pop	 ebp
  0007b	c2 04 00	 ret	 4
$LN42@reserve:
?reserve@?$vector@HV?$allocator@H@std@@@std@@QAEXI@Z ENDP ; std::vector<int,std::allocator<int> >::reserve
_TEXT	ENDS
PUBLIC	??$_Destroy_range@V?$allocator@UChainInfo@ioChainWeapon@@@std@@@std@@YAXPAUChainInfo@ioChainWeapon@@0AAV?$allocator@UChainInfo@ioChainWeapon@@@0@@Z ; std::_Destroy_range<std::allocator<ioChainWeapon::ChainInfo> >
; Function compile flags: /Ogsp
; File c:\program files (x86)\microsoft visual studio 10.0\vc\include\xmemory
;	COMDAT ??$_Destroy_range@V?$allocator@UChainInfo@ioChainWeapon@@@std@@@std@@YAXPAUChainInfo@ioChainWeapon@@0AAV?$allocator@UChainInfo@ioChainWeapon@@@0@@Z
_TEXT	SEGMENT
__First$ = 8						; size = 4
__Last$ = 12						; size = 4
__Al$ = 16						; size = 4
??$_Destroy_range@V?$allocator@UChainInfo@ioChainWeapon@@@std@@@std@@YAXPAUChainInfo@ioChainWeapon@@0AAV?$allocator@UChainInfo@ioChainWeapon@@@0@@Z PROC ; std::_Destroy_range<std::allocator<ioChainWeapon::ChainInfo> >, COMDAT

; 88   : 	_Destroy_range(_First, _Last, _Al, _Ptr_cat(_First, _Last));
; 89   : 	}

  00000	c3		 ret	 0
??$_Destroy_range@V?$allocator@UChainInfo@ioChainWeapon@@@std@@@std@@YAXPAUChainInfo@ioChainWeapon@@0AAV?$allocator@UChainInfo@ioChainWeapon@@@0@@Z ENDP ; std::_Destroy_range<std::allocator<ioChainWeapon::ChainInfo> >
_TEXT	ENDS
PUBLIC	??$_Uninitialized_move@PAUChainInfo@ioChainWeapon@@PAU12@V?$allocator@UChainInfo@ioChainWeapon@@@std@@@std@@YAPAUChainInfo@ioChainWeapon@@PAU12@00AAV?$allocator@UChainInfo@ioChainWeapon@@@0@@Z ; std::_Uninitialized_move<ioChainWeapon::ChainInfo *,ioChainWeapon::ChainInfo *,std::allocator<ioChainWeapon::ChainInfo> >
; Function compile flags: /Ogsp
; File c:\program files (x86)\microsoft visual studio 10.0\vc\include\memory
;	COMDAT ??$_Uninitialized_move@PAUChainInfo@ioChainWeapon@@PAU12@V?$allocator@UChainInfo@ioChainWeapon@@@std@@@std@@YAPAUChainInfo@ioChainWeapon@@PAU12@00AAV?$allocator@UChainInfo@ioChainWeapon@@@0@@Z
_TEXT	SEGMENT
__Cat$528597 = -4					; size = 1
__First$ = 8						; size = 4
__Last$ = 12						; size = 4
__Dest$ = 16						; size = 4
__Al$ = 20						; size = 4
??$_Uninitialized_move@PAUChainInfo@ioChainWeapon@@PAU12@V?$allocator@UChainInfo@ioChainWeapon@@@std@@@std@@YAPAUChainInfo@ioChainWeapon@@PAU12@00AAV?$allocator@UChainInfo@ioChainWeapon@@@0@@Z PROC ; std::_Uninitialized_move<ioChainWeapon::ChainInfo *,ioChainWeapon::ChainInfo *,std::allocator<ioChainWeapon::ChainInfo> >, COMDAT

; 469  : 	{	// move [_First, _Last) to raw _Dest, using _Al

  00000	55		 push	 ebp
  00001	8b ec		 mov	 ebp, esp
  00003	51		 push	 ecx

; 470  : 	return (_Uninit_move(_First, _Last, _Dest, _Al,
; 471  : 		_Val_type(_First), _Ptr_cat(_First, _Dest)));

  00004	ff 75 fc	 push	 DWORD PTR __Cat$528597[ebp]
  00007	6a 00		 push	 0
  00009	ff 75 14	 push	 DWORD PTR __Al$[ebp]
  0000c	ff 75 10	 push	 DWORD PTR __Dest$[ebp]
  0000f	ff 75 0c	 push	 DWORD PTR __Last$[ebp]
  00012	ff 75 08	 push	 DWORD PTR __First$[ebp]
  00015	e8 00 00 00 00	 call	 ??$_Uninit_move@PAUChainInfo@ioChainWeapon@@PAU12@V?$allocator@UChainInfo@ioChainWeapon@@@std@@U12@@std@@YAPAUChainInfo@ioChainWeapon@@PAU12@00AAV?$allocator@UChainInfo@ioChainWeapon@@@0@0U_Nonscalar_ptr_iterator_tag@0@@Z ; std::_Uninit_move<ioChainWeapon::ChainInfo *,ioChainWeapon::ChainInfo *,std::allocator<ioChainWeapon::ChainInfo>,ioChainWeapon::ChainInfo>
  0001a	83 c4 18	 add	 esp, 24			; 00000018H

; 472  : 	}

  0001d	c9		 leave
  0001e	c3		 ret	 0
??$_Uninitialized_move@PAUChainInfo@ioChainWeapon@@PAU12@V?$allocator@UChainInfo@ioChainWeapon@@@std@@@std@@YAPAUChainInfo@ioChainWeapon@@PAU12@00AAV?$allocator@UChainInfo@ioChainWeapon@@@0@@Z ENDP ; std::_Uninitialized_move<ioChainWeapon::ChainInfo *,ioChainWeapon::ChainInfo *,std::allocator<ioChainWeapon::ChainInfo> >
_TEXT	ENDS
PUBLIC	??1?$vector@HV?$allocator@H@std@@@std@@QAE@XZ	; std::vector<int,std::allocator<int> >::~vector<int,std::allocator<int> >
; Function compile flags: /Ogsp
; File c:\program files (x86)\microsoft visual studio 10.0\vc\include\vector
;	COMDAT ??1?$vector@HV?$allocator@H@std@@@std@@QAE@XZ
_TEXT	SEGMENT
??1?$vector@HV?$allocator@H@std@@@std@@QAE@XZ PROC	; std::vector<int,std::allocator<int> >::~vector<int,std::allocator<int> >, COMDAT
; _this$ = ecx

; 705  : 		_Tidy();

  00000	e9 00 00 00 00	 jmp	 ?_Tidy@?$vector@HV?$allocator@H@std@@@std@@IAEXXZ ; std::vector<int,std::allocator<int> >::_Tidy
??1?$vector@HV?$allocator@H@std@@@std@@QAE@XZ ENDP	; std::vector<int,std::allocator<int> >::~vector<int,std::allocator<int> >
_TEXT	ENDS
PUBLIC	?_Reserve@?$vector@HV?$allocator@H@std@@@std@@IAEXI@Z ; std::vector<int,std::allocator<int> >::_Reserve
; Function compile flags: /Ogsp
;	COMDAT ?_Reserve@?$vector@HV?$allocator@H@std@@@std@@IAEXI@Z
_TEXT	SEGMENT
__Count$ = 8						; size = 4
?_Reserve@?$vector@HV?$allocator@H@std@@@std@@IAEXI@Z PROC ; std::vector<int,std::allocator<int> >::_Reserve, COMDAT
; _this$ = ecx

; 1290 : 		{	// ensure room for _Count new elements, grow exponentially

  00000	55		 push	 ebp
  00001	8b ec		 mov	 ebp, esp
  00003	56		 push	 esi
  00004	8b f1		 mov	 esi, ecx

; 1291 : 		size_type _Size = size();

  00006	8b 0e		 mov	 ecx, DWORD PTR [esi]
  00008	8b 46 04	 mov	 eax, DWORD PTR [esi+4]
  0000b	2b c1		 sub	 eax, ecx

; 1292 : 		if (max_size() - _Count < _Size)

  0000d	ba ff ff ff 3f	 mov	 edx, 1073741823		; 3fffffffH
  00012	2b 55 08	 sub	 edx, DWORD PTR __Count$[ebp]
  00015	c1 f8 02	 sar	 eax, 2
  00018	3b d0		 cmp	 edx, eax
  0001a	73 0b		 jae	 SHORT $LN4@Reserve

; 1293 : 			_Xlen();

  0001c	68 00 00 00 00	 push	 OFFSET ??_C@_0BD@OLBABOEK@vector?$DMT?$DO?5too?5long?$AA@
  00021	ff 15 00 00 00
	00		 call	 DWORD PTR __imp_?_Xlength_error@std@@YAXPBD@Z
$LN21@Reserve:
$LN4@Reserve:

; 1294 : 		else if ((_Size += _Count) <= capacity())

  00027	8b 56 08	 mov	 edx, DWORD PTR [esi+8]
  0002a	03 45 08	 add	 eax, DWORD PTR __Count$[ebp]
  0002d	2b d1		 sub	 edx, ecx
  0002f	c1 fa 02	 sar	 edx, 2
  00032	3b c2		 cmp	 eax, edx
  00034	76 10		 jbe	 SHORT $LN1@Reserve

; 1295 : 			;
; 1296 : 		else
; 1297 : 			reserve(_Grow_to(_Size));

  00036	50		 push	 eax
  00037	8b ce		 mov	 ecx, esi
  00039	e8 00 00 00 00	 call	 ?_Grow_to@?$vector@HV?$allocator@H@std@@@std@@IBEII@Z ; std::vector<int,std::allocator<int> >::_Grow_to
  0003e	50		 push	 eax
  0003f	8b ce		 mov	 ecx, esi
  00041	e8 00 00 00 00	 call	 ?reserve@?$vector@HV?$allocator@H@std@@@std@@QAEXI@Z ; std::vector<int,std::allocator<int> >::reserve
$LN1@Reserve:
  00046	5e		 pop	 esi

; 1298 : 		}

  00047	5d		 pop	 ebp
  00048	c2 04 00	 ret	 4
$LN20@Reserve:
?_Reserve@?$vector@HV?$allocator@H@std@@@std@@IAEXI@Z ENDP ; std::vector<int,std::allocator<int> >::_Reserve
_TEXT	ENDS
PUBLIC	?push_back@?$vector@HV?$allocator@H@std@@@std@@QAEX$$QAH@Z ; std::vector<int,std::allocator<int> >::push_back
; Function compile flags: /Ogsp
;	COMDAT ?push_back@?$vector@HV?$allocator@H@std@@@std@@QAEX$$QAH@Z
_TEXT	SEGMENT
__Val$ = 8						; size = 4
?push_back@?$vector@HV?$allocator@H@std@@@std@@QAEX$$QAH@Z PROC ; std::vector<int,std::allocator<int> >::push_back, COMDAT
; _this$ = ecx

; 631  : 		{	// insert element at end

  00000	55		 push	 ebp
  00001	8b ec		 mov	 ebp, esp
  00003	56		 push	 esi
  00004	8b f1		 mov	 esi, ecx

; 632  : 		if (_Inside(_STD addressof(_Val)))

  00006	8b 46 04	 mov	 eax, DWORD PTR [esi+4]
  00009	57		 push	 edi
  0000a	8b 7d 08	 mov	 edi, DWORD PTR __Val$[ebp]
  0000d	3b f8		 cmp	 edi, eax
  0000f	73 27		 jae	 SHORT $LN4@push_back
  00011	8b 0e		 mov	 ecx, DWORD PTR [esi]
  00013	3b cf		 cmp	 ecx, edi
  00015	77 21		 ja	 SHORT $LN4@push_back

; 633  : 			{	// push back an element
; 634  : 			size_type _Idx = _STD addressof(_Val) - this->_Myfirst;

  00017	2b f9		 sub	 edi, ecx
  00019	c1 ff 02	 sar	 edi, 2

; 635  : 			if (this->_Mylast == this->_Myend)

  0001c	3b 46 08	 cmp	 eax, DWORD PTR [esi+8]
  0001f	75 09		 jne	 SHORT $LN3@push_back

; 636  : 				_Reserve(1);

  00021	6a 01		 push	 1
  00023	8b ce		 mov	 ecx, esi
  00025	e8 00 00 00 00	 call	 ?_Reserve@?$vector@HV?$allocator@H@std@@@std@@IAEXI@Z ; std::vector<int,std::allocator<int> >::_Reserve
$LN3@push_back:

; 637  : 			_Orphan_range(this->_Mylast, this->_Mylast);
; 638  : 			_Cons_val(this->_Alval,
; 639  : 				this->_Mylast,
; 640  : 				_STD forward<_Ty>(this->_Myfirst[_Idx]));

  0002a	8b 46 04	 mov	 eax, DWORD PTR [esi+4]
  0002d	85 c0		 test	 eax, eax
  0002f	74 20		 je	 SHORT $LN41@push_back
  00031	8b 0e		 mov	 ecx, DWORD PTR [esi]
  00033	8b 0c b9	 mov	 ecx, DWORD PTR [ecx+edi*4]

; 641  : 			++this->_Mylast;
; 642  : 			}
; 643  : 		else

  00036	eb 17		 jmp	 SHORT $LN48@push_back
$LN4@push_back:

; 644  : 			{	// push back a non-element
; 645  : 			if (this->_Mylast == this->_Myend)

  00038	3b 46 08	 cmp	 eax, DWORD PTR [esi+8]
  0003b	75 09		 jne	 SHORT $LN1@push_back

; 646  : 				_Reserve(1);

  0003d	6a 01		 push	 1
  0003f	8b ce		 mov	 ecx, esi
  00041	e8 00 00 00 00	 call	 ?_Reserve@?$vector@HV?$allocator@H@std@@@std@@IAEXI@Z ; std::vector<int,std::allocator<int> >::_Reserve
$LN1@push_back:

; 647  : 			_Orphan_range(this->_Mylast, this->_Mylast);
; 648  : 			_Cons_val(this->_Alval,
; 649  : 				this->_Mylast,
; 650  : 				_STD forward<_Ty>(_Val));

  00046	8b 46 04	 mov	 eax, DWORD PTR [esi+4]
  00049	85 c0		 test	 eax, eax
  0004b	74 04		 je	 SHORT $LN41@push_back
  0004d	8b 0f		 mov	 ecx, DWORD PTR [edi]
$LN48@push_back:
  0004f	89 08		 mov	 DWORD PTR [eax], ecx
$LN41@push_back:

; 651  : 			++this->_Mylast;

  00051	83 46 04 04	 add	 DWORD PTR [esi+4], 4
  00055	5f		 pop	 edi
  00056	5e		 pop	 esi

; 652  : 			}
; 653  : 		}

  00057	5d		 pop	 ebp
  00058	c2 04 00	 ret	 4
?push_back@?$vector@HV?$allocator@H@std@@@std@@QAEX$$QAH@Z ENDP ; std::vector<int,std::allocator<int> >::push_back
_TEXT	ENDS
PUBLIC	?_Destroy@?$vector@UChainInfo@ioChainWeapon@@V?$allocator@UChainInfo@ioChainWeapon@@@std@@@std@@IAEXPAUChainInfo@ioChainWeapon@@0@Z ; std::vector<ioChainWeapon::ChainInfo,std::allocator<ioChainWeapon::ChainInfo> >::_Destroy
; Function compile flags: /Ogsp
;	COMDAT ?_Destroy@?$vector@UChainInfo@ioChainWeapon@@V?$allocator@UChainInfo@ioChainWeapon@@@std@@@std@@IAEXPAUChainInfo@ioChainWeapon@@0@Z
_TEXT	SEGMENT
__First$ = 8						; size = 4
__Last$ = 12						; size = 4
?_Destroy@?$vector@UChainInfo@ioChainWeapon@@V?$allocator@UChainInfo@ioChainWeapon@@@std@@@std@@IAEXPAUChainInfo@ioChainWeapon@@0@Z PROC ; std::vector<ioChainWeapon::ChainInfo,std::allocator<ioChainWeapon::ChainInfo> >::_Destroy, COMDAT
; _this$ = ecx

; 1270 : 		_Destroy_range(_First, _Last, this->_Alval);
; 1271 : 		}

  00000	c2 08 00	 ret	 8
?_Destroy@?$vector@UChainInfo@ioChainWeapon@@V?$allocator@UChainInfo@ioChainWeapon@@@std@@@std@@IAEXPAUChainInfo@ioChainWeapon@@0@Z ENDP ; std::vector<ioChainWeapon::ChainInfo,std::allocator<ioChainWeapon::ChainInfo> >::_Destroy
_TEXT	ENDS
PUBLIC	?_Tidy@?$vector@UChainInfo@ioChainWeapon@@V?$allocator@UChainInfo@ioChainWeapon@@@std@@@std@@IAEXXZ ; std::vector<ioChainWeapon::ChainInfo,std::allocator<ioChainWeapon::ChainInfo> >::_Tidy
; Function compile flags: /Ogsp
;	COMDAT ?_Tidy@?$vector@UChainInfo@ioChainWeapon@@V?$allocator@UChainInfo@ioChainWeapon@@@std@@@std@@IAEXXZ
_TEXT	SEGMENT
?_Tidy@?$vector@UChainInfo@ioChainWeapon@@V?$allocator@UChainInfo@ioChainWeapon@@@std@@@std@@IAEXXZ PROC ; std::vector<ioChainWeapon::ChainInfo,std::allocator<ioChainWeapon::ChainInfo> >::_Tidy, COMDAT
; _this$ = ecx

; 1301 : 		{	// free all storage

  00000	56		 push	 esi
  00001	8b f1		 mov	 esi, ecx

; 1302 : 		if (this->_Myfirst != 0)

  00003	83 3e 00	 cmp	 DWORD PTR [esi], 0
  00006	74 0e		 je	 SHORT $LN21@Tidy@2

; 1303 : 			{	// something to free, destroy and deallocate it
; 1304 : 			this->_Orphan_all();

  00008	ff 15 00 00 00
	00		 call	 DWORD PTR __imp_?_Orphan_all@_Container_base0@std@@QAEXXZ

; 1305 : 			_Destroy(this->_Myfirst, this->_Mylast);
; 1306 : 			this->_Alval.deallocate(this->_Myfirst,
; 1307 : 				this->_Myend - this->_Myfirst);

  0000e	ff 36		 push	 DWORD PTR [esi]
  00010	e8 00 00 00 00	 call	 ??3@YAXPAX@Z		; operator delete
  00015	59		 pop	 ecx
$LN21@Tidy@2:

; 1308 : 			}
; 1309 : 		this->_Myfirst = 0;

  00016	83 26 00	 and	 DWORD PTR [esi], 0

; 1310 : 		this->_Mylast = 0;

  00019	83 66 04 00	 and	 DWORD PTR [esi+4], 0

; 1311 : 		this->_Myend = 0;

  0001d	83 66 08 00	 and	 DWORD PTR [esi+8], 0
  00021	5e		 pop	 esi

; 1312 : 		}

  00022	c3		 ret	 0
?_Tidy@?$vector@UChainInfo@ioChainWeapon@@V?$allocator@UChainInfo@ioChainWeapon@@@std@@@std@@IAEXXZ ENDP ; std::vector<ioChainWeapon::ChainInfo,std::allocator<ioChainWeapon::ChainInfo> >::_Tidy
_TEXT	ENDS
PUBLIC	??$_Umove@PAUChainInfo@ioChainWeapon@@@?$vector@UChainInfo@ioChainWeapon@@V?$allocator@UChainInfo@ioChainWeapon@@@std@@@std@@IAEPAUChainInfo@ioChainWeapon@@PAU23@00@Z ; std::vector<ioChainWeapon::ChainInfo,std::allocator<ioChainWeapon::ChainInfo> >::_Umove<ioChainWeapon::ChainInfo *>
; Function compile flags: /Ogsp
;	COMDAT ??$_Umove@PAUChainInfo@ioChainWeapon@@@?$vector@UChainInfo@ioChainWeapon@@V?$allocator@UChainInfo@ioChainWeapon@@@std@@@std@@IAEPAUChainInfo@ioChainWeapon@@PAU23@00@Z
_TEXT	SEGMENT
__First$ = 8						; size = 4
__Last$ = 12						; size = 4
__Ptr$ = 16						; size = 4
??$_Umove@PAUChainInfo@ioChainWeapon@@@?$vector@UChainInfo@ioChainWeapon@@V?$allocator@UChainInfo@ioChainWeapon@@@std@@@std@@IAEPAUChainInfo@ioChainWeapon@@PAU23@00@Z PROC ; std::vector<ioChainWeapon::ChainInfo,std::allocator<ioChainWeapon::ChainInfo> >::_Umove<ioChainWeapon::ChainInfo *>, COMDAT
; _this$ = ecx

; 1322 : 		pointer _Umove(_Iter _First, _Iter _Last, pointer _Ptr)

  00000	55		 push	 ebp
  00001	8b ec		 mov	 ebp, esp

; 1323 : 		{	// move initializing [_First, _Last), using allocator
; 1324 : 		return (_Uninitialized_move(_First, _Last,
; 1325 : 			_Ptr, this->_Alval));

  00003	83 c1 0c	 add	 ecx, 12			; 0000000cH
  00006	51		 push	 ecx
  00007	ff 75 10	 push	 DWORD PTR __Ptr$[ebp]
  0000a	ff 75 0c	 push	 DWORD PTR __Last$[ebp]
  0000d	ff 75 08	 push	 DWORD PTR __First$[ebp]
  00010	e8 00 00 00 00	 call	 ??$_Uninitialized_move@PAUChainInfo@ioChainWeapon@@PAU12@V?$allocator@UChainInfo@ioChainWeapon@@@std@@@std@@YAPAUChainInfo@ioChainWeapon@@PAU12@00AAV?$allocator@UChainInfo@ioChainWeapon@@@0@@Z ; std::_Uninitialized_move<ioChainWeapon::ChainInfo *,ioChainWeapon::ChainInfo *,std::allocator<ioChainWeapon::ChainInfo> >
  00015	83 c4 10	 add	 esp, 16			; 00000010H

; 1326 : 		}

  00018	5d		 pop	 ebp
  00019	c2 0c 00	 ret	 12			; 0000000cH
??$_Umove@PAUChainInfo@ioChainWeapon@@@?$vector@UChainInfo@ioChainWeapon@@V?$allocator@UChainInfo@ioChainWeapon@@@std@@@std@@IAEPAUChainInfo@ioChainWeapon@@PAU23@00@Z ENDP ; std::vector<ioChainWeapon::ChainInfo,std::allocator<ioChainWeapon::ChainInfo> >::_Umove<ioChainWeapon::ChainInfo *>
_TEXT	ENDS
PUBLIC	??1?$vector@UChainInfo@ioChainWeapon@@V?$allocator@UChainInfo@ioChainWeapon@@@std@@@std@@QAE@XZ ; std::vector<ioChainWeapon::ChainInfo,std::allocator<ioChainWeapon::ChainInfo> >::~vector<ioChainWeapon::ChainInfo,std::allocator<ioChainWeapon::ChainInfo> >
; Function compile flags: /Ogsp
;	COMDAT ??1?$vector@UChainInfo@ioChainWeapon@@V?$allocator@UChainInfo@ioChainWeapon@@@std@@@std@@QAE@XZ
_TEXT	SEGMENT
??1?$vector@UChainInfo@ioChainWeapon@@V?$allocator@UChainInfo@ioChainWeapon@@@std@@@std@@QAE@XZ PROC ; std::vector<ioChainWeapon::ChainInfo,std::allocator<ioChainWeapon::ChainInfo> >::~vector<ioChainWeapon::ChainInfo,std::allocator<ioChainWeapon::ChainInfo> >, COMDAT
; _this$ = ecx

; 705  : 		_Tidy();

  00000	e9 00 00 00 00	 jmp	 ?_Tidy@?$vector@UChainInfo@ioChainWeapon@@V?$allocator@UChainInfo@ioChainWeapon@@@std@@@std@@IAEXXZ ; std::vector<ioChainWeapon::ChainInfo,std::allocator<ioChainWeapon::ChainInfo> >::_Tidy
??1?$vector@UChainInfo@ioChainWeapon@@V?$allocator@UChainInfo@ioChainWeapon@@@std@@@std@@QAE@XZ ENDP ; std::vector<ioChainWeapon::ChainInfo,std::allocator<ioChainWeapon::ChainInfo> >::~vector<ioChainWeapon::ChainInfo,std::allocator<ioChainWeapon::ChainInfo> >
_TEXT	ENDS
PUBLIC	?reserve@?$vector@UChainInfo@ioChainWeapon@@V?$allocator@UChainInfo@ioChainWeapon@@@std@@@std@@QAEXI@Z ; std::vector<ioChainWeapon::ChainInfo,std::allocator<ioChainWeapon::ChainInfo> >::reserve
EXTRN	__EH_prolog3_catch:PROC
;	COMDAT xdata$x
; File c:\program files (x86)\microsoft visual studio 10.0\vc\include\xmemory
xdata$x	SEGMENT
__catchsym$?reserve@?$vector@UChainInfo@ioChainWeapon@@V?$allocator@UChainInfo@ioChainWeapon@@@std@@@std@@QAEXI@Z$2 DD 040H
	DD	00H
	DD	00H
	DD	FLAT:__catch$?reserve@?$vector@UChainInfo@ioChainWeapon@@V?$allocator@UChainInfo@ioChainWeapon@@@std@@@std@@QAEXI@Z$0
__unwindtable$?reserve@?$vector@UChainInfo@ioChainWeapon@@V?$allocator@UChainInfo@ioChainWeapon@@@std@@@std@@QAEXI@Z DD 0ffffffffH
	DD	00H
	DD	0ffffffffH
	DD	00H
__tryblocktable$?reserve@?$vector@UChainInfo@ioChainWeapon@@V?$allocator@UChainInfo@ioChainWeapon@@@std@@@std@@QAEXI@Z DD 00H
	DD	00H
	DD	01H
	DD	01H
	DD	FLAT:__catchsym$?reserve@?$vector@UChainInfo@ioChainWeapon@@V?$allocator@UChainInfo@ioChainWeapon@@@std@@@std@@QAEXI@Z$2
__ehfuncinfo$?reserve@?$vector@UChainInfo@ioChainWeapon@@V?$allocator@UChainInfo@ioChainWeapon@@@std@@@std@@QAEXI@Z DD 019930522H
	DD	02H
	DD	FLAT:__unwindtable$?reserve@?$vector@UChainInfo@ioChainWeapon@@V?$allocator@UChainInfo@ioChainWeapon@@@std@@@std@@QAEXI@Z
	DD	01H
	DD	FLAT:__tryblocktable$?reserve@?$vector@UChainInfo@ioChainWeapon@@V?$allocator@UChainInfo@ioChainWeapon@@@std@@@std@@QAEXI@Z
	DD	2 DUP(00H)
	DD	00H
	DD	01H
; Function compile flags: /Ogsp
; File c:\program files (x86)\microsoft visual studio 10.0\vc\include\vector
xdata$x	ENDS
;	COMDAT ?reserve@?$vector@UChainInfo@ioChainWeapon@@V?$allocator@UChainInfo@ioChainWeapon@@@std@@@std@@QAEXI@Z
_TEXT	SEGMENT
__Ptr$524880 = -20					; size = 4
__$EHRec$ = -16						; size = 16
__Count$ = 8						; size = 4
?reserve@?$vector@UChainInfo@ioChainWeapon@@V?$allocator@UChainInfo@ioChainWeapon@@@std@@@std@@QAEXI@Z PROC ; std::vector<ioChainWeapon::ChainInfo,std::allocator<ioChainWeapon::ChainInfo> >::reserve, COMDAT
; _this$ = ecx

; 746  : 		{	// determine new minimum length of allocated storage

  00000	6a 08		 push	 8
  00002	b8 00 00 00 00	 mov	 eax, __ehhandler$?reserve@?$vector@UChainInfo@ioChainWeapon@@V?$allocator@UChainInfo@ioChainWeapon@@@std@@@std@@QAEXI@Z
  00007	e8 00 00 00 00	 call	 __EH_prolog3_catch
  0000c	8b f1		 mov	 esi, ecx

; 747  : 		if (max_size() < _Count)

  0000e	81 7d 08 ff ff
	ff 1f		 cmp	 DWORD PTR __Count$[ebp], 536870911 ; 1fffffffH
  00015	76 0b		 jbe	 SHORT $LN5@reserve@2

; 748  : 			_Xlen();	// result too long

  00017	68 00 00 00 00	 push	 OFFSET ??_C@_0BD@OLBABOEK@vector?$DMT?$DO?5too?5long?$AA@
  0001c	ff 15 00 00 00
	00		 call	 DWORD PTR __imp_?_Xlength_error@std@@YAXPBD@Z
$LN56@reserve@2:
$LN5@reserve@2:

; 749  : 		else if (capacity() < _Count)

  00022	8b 46 08	 mov	 eax, DWORD PTR [esi+8]
  00025	2b 06		 sub	 eax, DWORD PTR [esi]
  00027	c1 f8 03	 sar	 eax, 3
  0002a	3b 45 08	 cmp	 eax, DWORD PTR __Count$[ebp]
  0002d	73 65		 jae	 SHORT $LN3@reserve@2

; 750  : 			{	// not enough room, reallocate
; 751  : 			pointer _Ptr = this->_Alval.allocate(_Count);

  0002f	6a 00		 push	 0
  00031	ff 75 08	 push	 DWORD PTR __Count$[ebp]
  00034	e8 00 00 00 00	 call	 ??$_Allocate@UChainInfo@ioChainWeapon@@@std@@YAPAUChainInfo@ioChainWeapon@@IPAU12@@Z ; std::_Allocate<ioChainWeapon::ChainInfo>

; 752  : 
; 753  : 			_TRY_BEGIN
; 754  : 			_Umove(this->_Myfirst, this->_Mylast, _Ptr);

  00039	8b 0e		 mov	 ecx, DWORD PTR [esi]
  0003b	83 65 fc 00	 and	 DWORD PTR __$EHRec$[ebp+12], 0
  0003f	8b d8		 mov	 ebx, eax
  00041	8b 46 04	 mov	 eax, DWORD PTR [esi+4]
  00044	8d 56 0c	 lea	 edx, DWORD PTR [esi+12]
  00047	52		 push	 edx
  00048	53		 push	 ebx
  00049	50		 push	 eax
  0004a	51		 push	 ecx
  0004b	89 5d ec	 mov	 DWORD PTR __Ptr$524880[ebp], ebx
  0004e	e8 00 00 00 00	 call	 ??$_Uninitialized_move@PAUChainInfo@ioChainWeapon@@PAU12@V?$allocator@UChainInfo@ioChainWeapon@@@std@@@std@@YAPAUChainInfo@ioChainWeapon@@PAU12@00AAV?$allocator@UChainInfo@ioChainWeapon@@@0@@Z ; std::_Uninitialized_move<ioChainWeapon::ChainInfo *,ioChainWeapon::ChainInfo *,std::allocator<ioChainWeapon::ChainInfo> >

; 758  : 			_CATCH_END
; 759  : 
; 760  : 			size_type _Size = size();

  00053	8b 4e 04	 mov	 ecx, DWORD PTR [esi+4]
  00056	8b 06		 mov	 eax, DWORD PTR [esi]
  00058	83 4d fc ff	 or	 DWORD PTR __$EHRec$[ebp+12], -1
  0005c	8b f9		 mov	 edi, ecx
  0005e	2b f8		 sub	 edi, eax
  00060	83 c4 18	 add	 esp, 24			; 00000018H
  00063	c1 ff 03	 sar	 edi, 3
  00066	85 c0		 test	 eax, eax
  00068	74 11		 je	 SHORT $LN48@reserve@2

; 761  : 			if (this->_Myfirst != 0)

  0006a	eb 03		 jmp	 SHORT $LN55@reserve@2

; 762  : 				{	// destroy and deallocate old array
; 763  : 				_Destroy(this->_Myfirst, this->_Mylast);

$LL39@reserve@2:
  0006c	83 c0 08	 add	 eax, 8
$LN55@reserve@2:
  0006f	3b c1		 cmp	 eax, ecx
  00071	75 f9		 jne	 SHORT $LL39@reserve@2

; 764  : 				this->_Alval.deallocate(this->_Myfirst,
; 765  : 					this->_Myend - this->_Myfirst);

  00073	ff 36		 push	 DWORD PTR [esi]
  00075	e8 00 00 00 00	 call	 ??3@YAXPAX@Z		; operator delete
  0007a	59		 pop	 ecx
$LN48@reserve@2:

; 766  : 				}
; 767  : 
; 768  : 			this->_Orphan_all();

  0007b	8b ce		 mov	 ecx, esi
  0007d	ff 15 00 00 00
	00		 call	 DWORD PTR __imp_?_Orphan_all@_Container_base0@std@@QAEXXZ

; 769  : 			this->_Myend = _Ptr + _Count;

  00083	8b 45 08	 mov	 eax, DWORD PTR __Count$[ebp]
  00086	8d 04 c3	 lea	 eax, DWORD PTR [ebx+eax*8]
  00089	89 46 08	 mov	 DWORD PTR [esi+8], eax

; 770  : 			this->_Mylast = _Ptr + _Size;

  0008c	8d 04 fb	 lea	 eax, DWORD PTR [ebx+edi*8]
  0008f	89 46 04	 mov	 DWORD PTR [esi+4], eax

; 771  : 			this->_Myfirst = _Ptr;

  00092	89 1e		 mov	 DWORD PTR [esi], ebx
$LN3@reserve@2:

; 772  : 			}
; 773  : 		}

  00094	e8 00 00 00 00	 call	 __EH_epilog3
  00099	c2 04 00	 ret	 4
__catch$?reserve@?$vector@UChainInfo@ioChainWeapon@@V?$allocator@UChainInfo@ioChainWeapon@@@std@@@std@@QAEXI@Z$0:

; 755  : 			_CATCH_ALL
; 756  : 			this->_Alval.deallocate(_Ptr, _Count);

  0009c	ff 75 ec	 push	 DWORD PTR __Ptr$524880[ebp]
  0009f	e8 00 00 00 00	 call	 ??3@YAXPAX@Z		; operator delete
  000a4	59		 pop	 ecx

; 757  : 			_RERAISE;

  000a5	6a 00		 push	 0
  000a7	6a 00		 push	 0
  000a9	e8 00 00 00 00	 call	 __CxxThrowException@8
$LN57@reserve@2:
$LN54@reserve@2:
  000ae	cc		 int	 3
_TEXT	ENDS
;	COMDAT text$x
text$x	SEGMENT
__ehhandler$?reserve@?$vector@UChainInfo@ioChainWeapon@@V?$allocator@UChainInfo@ioChainWeapon@@@std@@@std@@QAEXI@Z:
  00000	8b 54 24 08	 mov	 edx, DWORD PTR [esp+8]
  00004	8d 42 0c	 lea	 eax, DWORD PTR [edx+12]
  00007	8b 4a e8	 mov	 ecx, DWORD PTR [edx-24]
  0000a	33 c8		 xor	 ecx, eax
  0000c	e8 00 00 00 00	 call	 @__security_check_cookie@4
  00011	b8 00 00 00 00	 mov	 eax, OFFSET __ehfuncinfo$?reserve@?$vector@UChainInfo@ioChainWeapon@@V?$allocator@UChainInfo@ioChainWeapon@@@std@@@std@@QAEXI@Z
  00016	e9 00 00 00 00	 jmp	 ___CxxFrameHandler3
text$x	ENDS
?reserve@?$vector@UChainInfo@ioChainWeapon@@V?$allocator@UChainInfo@ioChainWeapon@@@std@@@std@@QAEXI@Z ENDP ; std::vector<ioChainWeapon::ChainInfo,std::allocator<ioChainWeapon::ChainInfo> >::reserve
PUBLIC	?erase@?$vector@UChainInfo@ioChainWeapon@@V?$allocator@UChainInfo@ioChainWeapon@@@std@@@std@@QAE?AV?$_Vector_iterator@V?$_Vector_val@UChainInfo@ioChainWeapon@@V?$allocator@UChainInfo@ioChainWeapon@@@std@@@std@@@2@V?$_Vector_const_iterator@V?$_Vector_val@UChainInfo@ioChainWeapon@@V?$allocator@UChainInfo@ioChainWeapon@@@std@@@std@@@2@0@Z ; std::vector<ioChainWeapon::ChainInfo,std::allocator<ioChainWeapon::ChainInfo> >::erase
; Function compile flags: /Ogsp
;	COMDAT ?erase@?$vector@UChainInfo@ioChainWeapon@@V?$allocator@UChainInfo@ioChainWeapon@@@std@@@std@@QAE?AV?$_Vector_iterator@V?$_Vector_val@UChainInfo@ioChainWeapon@@V?$allocator@UChainInfo@ioChainWeapon@@@std@@@std@@@2@V?$_Vector_const_iterator@V?$_Vector_val@UChainInfo@ioChainWeapon@@V?$allocator@UChainInfo@ioChainWeapon@@@std@@@std@@@2@0@Z
_TEXT	SEGMENT
___$ReturnUdt$ = 8					; size = 4
__First_arg$ = 12					; size = 4
__Cat$529103 = 16					; size = 1
__Last_arg$ = 16					; size = 4
?erase@?$vector@UChainInfo@ioChainWeapon@@V?$allocator@UChainInfo@ioChainWeapon@@@std@@@std@@QAE?AV?$_Vector_iterator@V?$_Vector_val@UChainInfo@ioChainWeapon@@V?$allocator@UChainInfo@ioChainWeapon@@@std@@@std@@@2@V?$_Vector_const_iterator@V?$_Vector_val@UChainInfo@ioChainWeapon@@V?$allocator@UChainInfo@ioChainWeapon@@@std@@@std@@@2@0@Z PROC ; std::vector<ioChainWeapon::ChainInfo,std::allocator<ioChainWeapon::ChainInfo> >::erase, COMDAT
; _this$ = ecx

; 1190 : 		{	// erase [_First, _Last)

  00000	55		 push	 ebp
  00001	8b ec		 mov	 ebp, esp

; 1191 : 		iterator _First = _Make_iter(_First_arg);

  00003	8b 45 0c	 mov	 eax, DWORD PTR __First_arg$[ebp]
  00006	56		 push	 esi
  00007	57		 push	 edi
  00008	8b 7d 08	 mov	 edi, DWORD PTR ___$ReturnUdt$[ebp]
  0000b	8b f1		 mov	 esi, ecx
  0000d	89 07		 mov	 DWORD PTR [edi], eax

; 1192 : 		iterator _Last = _Make_iter(_Last_arg);
; 1193 : 
; 1194 : 		if (_First != _Last)

  0000f	3b 45 10	 cmp	 eax, DWORD PTR __Last_arg$[ebp]
  00012	74 16		 je	 SHORT $LN1@erase

; 1195 : 			{	// worth doing, copy down over hole
; 1196 :  #if _ITERATOR_DEBUG_LEVEL == 2
; 1197 : 			if (_Last < _First || _VICONT(_First) != this
; 1198 : 				|| _VIPTR(_First) < this->_Myfirst
; 1199 : 				|| this->_Mylast < _VIPTR(_Last))
; 1200 : 				_DEBUG_ERROR("vector erase iterator outside range");
; 1201 : 			pointer _Ptr = _Move(_VIPTR(_Last), this->_Mylast,
; 1202 : 				_VIPTR(_First));
; 1203 : 			_Orphan_range(_VIPTR(_First), this->_Mylast);
; 1204 : 
; 1205 :  #else /* _ITERATOR_DEBUG_LEVEL == 2 */
; 1206 : 			pointer _Ptr = _Move(_VIPTR(_Last), this->_Mylast,
; 1207 : 				_VIPTR(_First));

  00014	ff 75 10	 push	 DWORD PTR __Cat$529103[ebp]
  00017	8b 4e 04	 mov	 ecx, DWORD PTR [esi+4]
  0001a	50		 push	 eax
  0001b	51		 push	 ecx
  0001c	ff 75 10	 push	 DWORD PTR __Last_arg$[ebp]
  0001f	e8 00 00 00 00	 call	 ??$_Move@PAUChainInfo@ioChainWeapon@@PAU12@@std@@YAPAUChainInfo@ioChainWeapon@@PAU12@00U_Nonscalar_ptr_iterator_tag@0@@Z ; std::_Move<ioChainWeapon::ChainInfo *,ioChainWeapon::ChainInfo *>
  00024	83 c4 10	 add	 esp, 16			; 00000010H

; 1208 :  #endif /* _ITERATOR_DEBUG_LEVEL == 2 */
; 1209 : 
; 1210 : 			_Destroy(_Ptr, this->_Mylast);
; 1211 : 			this->_Mylast = _Ptr;

  00027	89 46 04	 mov	 DWORD PTR [esi+4], eax
$LN1@erase:

; 1212 : 			}
; 1213 : 		return (_First);

  0002a	8b c7		 mov	 eax, edi
  0002c	5f		 pop	 edi
  0002d	5e		 pop	 esi

; 1214 : 		}

  0002e	5d		 pop	 ebp
  0002f	c2 0c 00	 ret	 12			; 0000000cH
?erase@?$vector@UChainInfo@ioChainWeapon@@V?$allocator@UChainInfo@ioChainWeapon@@@std@@@std@@QAE?AV?$_Vector_iterator@V?$_Vector_val@UChainInfo@ioChainWeapon@@V?$allocator@UChainInfo@ioChainWeapon@@@std@@@std@@@2@V?$_Vector_const_iterator@V?$_Vector_val@UChainInfo@ioChainWeapon@@V?$allocator@UChainInfo@ioChainWeapon@@@std@@@std@@@2@0@Z ENDP ; std::vector<ioChainWeapon::ChainInfo,std::allocator<ioChainWeapon::ChainInfo> >::erase
_TEXT	ENDS
PUBLIC	?_Reserve@?$vector@UChainInfo@ioChainWeapon@@V?$allocator@UChainInfo@ioChainWeapon@@@std@@@std@@IAEXI@Z ; std::vector<ioChainWeapon::ChainInfo,std::allocator<ioChainWeapon::ChainInfo> >::_Reserve
; Function compile flags: /Ogsp
;	COMDAT ?_Reserve@?$vector@UChainInfo@ioChainWeapon@@V?$allocator@UChainInfo@ioChainWeapon@@@std@@@std@@IAEXI@Z
_TEXT	SEGMENT
__Count$ = 8						; size = 4
?_Reserve@?$vector@UChainInfo@ioChainWeapon@@V?$allocator@UChainInfo@ioChainWeapon@@@std@@@std@@IAEXI@Z PROC ; std::vector<ioChainWeapon::ChainInfo,std::allocator<ioChainWeapon::ChainInfo> >::_Reserve, COMDAT
; _this$ = ecx

; 1290 : 		{	// ensure room for _Count new elements, grow exponentially

  00000	55		 push	 ebp
  00001	8b ec		 mov	 ebp, esp
  00003	56		 push	 esi
  00004	8b f1		 mov	 esi, ecx

; 1291 : 		size_type _Size = size();

  00006	8b 0e		 mov	 ecx, DWORD PTR [esi]
  00008	8b 46 04	 mov	 eax, DWORD PTR [esi+4]
  0000b	2b c1		 sub	 eax, ecx

; 1292 : 		if (max_size() - _Count < _Size)

  0000d	ba ff ff ff 1f	 mov	 edx, 536870911		; 1fffffffH
  00012	2b 55 08	 sub	 edx, DWORD PTR __Count$[ebp]
  00015	c1 f8 03	 sar	 eax, 3
  00018	3b d0		 cmp	 edx, eax
  0001a	73 0b		 jae	 SHORT $LN4@Reserve@2

; 1293 : 			_Xlen();

  0001c	68 00 00 00 00	 push	 OFFSET ??_C@_0BD@OLBABOEK@vector?$DMT?$DO?5too?5long?$AA@
  00021	ff 15 00 00 00
	00		 call	 DWORD PTR __imp_?_Xlength_error@std@@YAXPBD@Z
$LN21@Reserve@2:
$LN4@Reserve@2:

; 1294 : 		else if ((_Size += _Count) <= capacity())

  00027	8b 56 08	 mov	 edx, DWORD PTR [esi+8]
  0002a	03 45 08	 add	 eax, DWORD PTR __Count$[ebp]
  0002d	2b d1		 sub	 edx, ecx
  0002f	c1 fa 03	 sar	 edx, 3
  00032	3b c2		 cmp	 eax, edx
  00034	76 10		 jbe	 SHORT $LN1@Reserve@2

; 1295 : 			;
; 1296 : 		else
; 1297 : 			reserve(_Grow_to(_Size));

  00036	50		 push	 eax
  00037	8b ce		 mov	 ecx, esi
  00039	e8 00 00 00 00	 call	 ?_Grow_to@?$vector@UChainInfo@ioChainWeapon@@V?$allocator@UChainInfo@ioChainWeapon@@@std@@@std@@IBEII@Z ; std::vector<ioChainWeapon::ChainInfo,std::allocator<ioChainWeapon::ChainInfo> >::_Grow_to
  0003e	50		 push	 eax
  0003f	8b ce		 mov	 ecx, esi
  00041	e8 00 00 00 00	 call	 ?reserve@?$vector@UChainInfo@ioChainWeapon@@V?$allocator@UChainInfo@ioChainWeapon@@@std@@@std@@QAEXI@Z ; std::vector<ioChainWeapon::ChainInfo,std::allocator<ioChainWeapon::ChainInfo> >::reserve
$LN1@Reserve@2:
  00046	5e		 pop	 esi

; 1298 : 		}

  00047	5d		 pop	 ebp
  00048	c2 04 00	 ret	 4
$LN20@Reserve@2:
?_Reserve@?$vector@UChainInfo@ioChainWeapon@@V?$allocator@UChainInfo@ioChainWeapon@@@std@@@std@@IAEXI@Z ENDP ; std::vector<ioChainWeapon::ChainInfo,std::allocator<ioChainWeapon::ChainInfo> >::_Reserve
_TEXT	ENDS
PUBLIC	?push_back@?$vector@UChainInfo@ioChainWeapon@@V?$allocator@UChainInfo@ioChainWeapon@@@std@@@std@@QAEXABUChainInfo@ioChainWeapon@@@Z ; std::vector<ioChainWeapon::ChainInfo,std::allocator<ioChainWeapon::ChainInfo> >::push_back
; Function compile flags: /Ogsp
;	COMDAT ?push_back@?$vector@UChainInfo@ioChainWeapon@@V?$allocator@UChainInfo@ioChainWeapon@@@std@@@std@@QAEXABUChainInfo@ioChainWeapon@@@Z
_TEXT	SEGMENT
__Val$ = 8						; size = 4
?push_back@?$vector@UChainInfo@ioChainWeapon@@V?$allocator@UChainInfo@ioChainWeapon@@@std@@@std@@QAEXABUChainInfo@ioChainWeapon@@@Z PROC ; std::vector<ioChainWeapon::ChainInfo,std::allocator<ioChainWeapon::ChainInfo> >::push_back, COMDAT
; _this$ = ecx

; 976  : 		{	// insert element at end

  00000	55		 push	 ebp
  00001	8b ec		 mov	 ebp, esp
  00003	56		 push	 esi
  00004	8b f1		 mov	 esi, ecx

; 977  : 		if (_Inside(_STD addressof(_Val)))

  00006	8b 46 04	 mov	 eax, DWORD PTR [esi+4]
  00009	57		 push	 edi
  0000a	8b 7d 08	 mov	 edi, DWORD PTR __Val$[ebp]
  0000d	3b f8		 cmp	 edi, eax
  0000f	73 2d		 jae	 SHORT $LN4@push_back@2
  00011	8b 0e		 mov	 ecx, DWORD PTR [esi]
  00013	3b cf		 cmp	 ecx, edi
  00015	77 27		 ja	 SHORT $LN4@push_back@2

; 978  : 			{	// push back an element
; 979  : 			size_type _Idx = _STD addressof(_Val) - this->_Myfirst;

  00017	2b f9		 sub	 edi, ecx
  00019	c1 ff 03	 sar	 edi, 3

; 980  : 			if (this->_Mylast == this->_Myend)

  0001c	3b 46 08	 cmp	 eax, DWORD PTR [esi+8]
  0001f	75 09		 jne	 SHORT $LN3@push_back@2

; 981  : 				_Reserve(1);

  00021	6a 01		 push	 1
  00023	8b ce		 mov	 ecx, esi
  00025	e8 00 00 00 00	 call	 ?_Reserve@?$vector@UChainInfo@ioChainWeapon@@V?$allocator@UChainInfo@ioChainWeapon@@@std@@@std@@IAEXI@Z ; std::vector<ioChainWeapon::ChainInfo,std::allocator<ioChainWeapon::ChainInfo> >::_Reserve
$LN3@push_back@2:

; 982  : 			_Orphan_range(this->_Mylast, this->_Mylast);
; 983  : 			_Cons_val(this->_Alval,
; 984  : 				this->_Mylast,
; 985  : 				this->_Myfirst[_Idx]);

  0002a	8b 06		 mov	 eax, DWORD PTR [esi]
  0002c	8d 04 f8	 lea	 eax, DWORD PTR [eax+edi*8]
  0002f	50		 push	 eax
  00030	ff 76 04	 push	 DWORD PTR [esi+4]
  00033	8d 46 0c	 lea	 eax, DWORD PTR [esi+12]
  00036	50		 push	 eax
  00037	e8 00 00 00 00	 call	 ??$_Cons_val@V?$allocator@UChainInfo@ioChainWeapon@@@std@@UChainInfo@ioChainWeapon@@AAU34@@std@@YAXAAV?$allocator@UChainInfo@ioChainWeapon@@@0@PAUChainInfo@ioChainWeapon@@AAU23@@Z ; std::_Cons_val<std::allocator<ioChainWeapon::ChainInfo>,ioChainWeapon::ChainInfo,ioChainWeapon::ChainInfo &>

; 986  : 			++this->_Mylast;
; 987  : 			}
; 988  : 		else

  0003c	eb 1b		 jmp	 SHORT $LN20@push_back@2
$LN4@push_back@2:

; 989  : 			{	// push back a non-element
; 990  : 			if (this->_Mylast == this->_Myend)

  0003e	3b 46 08	 cmp	 eax, DWORD PTR [esi+8]
  00041	75 09		 jne	 SHORT $LN1@push_back@2

; 991  : 				_Reserve(1);

  00043	6a 01		 push	 1
  00045	8b ce		 mov	 ecx, esi
  00047	e8 00 00 00 00	 call	 ?_Reserve@?$vector@UChainInfo@ioChainWeapon@@V?$allocator@UChainInfo@ioChainWeapon@@@std@@@std@@IAEXI@Z ; std::vector<ioChainWeapon::ChainInfo,std::allocator<ioChainWeapon::ChainInfo> >::_Reserve
$LN1@push_back@2:

; 992  : 			_Orphan_range(this->_Mylast, this->_Mylast);
; 993  : 			_Cons_val(this->_Alval,
; 994  : 				this->_Mylast,
; 995  : 				_Val);

  0004c	57		 push	 edi
  0004d	ff 76 04	 push	 DWORD PTR [esi+4]
  00050	8d 46 0c	 lea	 eax, DWORD PTR [esi+12]
  00053	50		 push	 eax
  00054	e8 00 00 00 00	 call	 ??$_Cons_val@V?$allocator@UChainInfo@ioChainWeapon@@@std@@UChainInfo@ioChainWeapon@@ABU34@@std@@YAXAAV?$allocator@UChainInfo@ioChainWeapon@@@0@PAUChainInfo@ioChainWeapon@@ABU23@@Z ; std::_Cons_val<std::allocator<ioChainWeapon::ChainInfo>,ioChainWeapon::ChainInfo,ioChainWeapon::ChainInfo const &>
$LN20@push_back@2:
  00059	83 c4 0c	 add	 esp, 12			; 0000000cH

; 996  : 			++this->_Mylast;

  0005c	83 46 04 08	 add	 DWORD PTR [esi+4], 8
  00060	5f		 pop	 edi
  00061	5e		 pop	 esi

; 997  : 			}
; 998  : 		}

  00062	5d		 pop	 ebp
  00063	c2 04 00	 ret	 4
?push_back@?$vector@UChainInfo@ioChainWeapon@@V?$allocator@UChainInfo@ioChainWeapon@@@std@@@std@@QAEXABUChainInfo@ioChainWeapon@@@Z ENDP ; std::vector<ioChainWeapon::ChainInfo,std::allocator<ioChainWeapon::ChainInfo> >::push_back
_TEXT	ENDS
PUBLIC	?clear@?$vector@UChainInfo@ioChainWeapon@@V?$allocator@UChainInfo@ioChainWeapon@@@std@@@std@@QAEXXZ ; std::vector<ioChainWeapon::ChainInfo,std::allocator<ioChainWeapon::ChainInfo> >::clear
; Function compile flags: /Ogsp
;	COMDAT ?clear@?$vector@UChainInfo@ioChainWeapon@@V?$allocator@UChainInfo@ioChainWeapon@@@std@@@std@@QAEXXZ
_TEXT	SEGMENT
$T529241 = -4						; size = 4
?clear@?$vector@UChainInfo@ioChainWeapon@@V?$allocator@UChainInfo@ioChainWeapon@@@std@@@std@@QAEXXZ PROC ; std::vector<ioChainWeapon::ChainInfo,std::allocator<ioChainWeapon::ChainInfo> >::clear, COMDAT
; _this$ = ecx

; 1217 : 		{	// erase all

  00000	55		 push	 ebp
  00001	8b ec		 mov	 ebp, esp
  00003	51		 push	 ecx

; 1218 : 		erase(begin(), end());

  00004	8b 41 04	 mov	 eax, DWORD PTR [ecx+4]
  00007	8b 11		 mov	 edx, DWORD PTR [ecx]
  00009	50		 push	 eax
  0000a	52		 push	 edx
  0000b	8d 45 fc	 lea	 eax, DWORD PTR $T529241[ebp]
  0000e	50		 push	 eax
  0000f	e8 00 00 00 00	 call	 ?erase@?$vector@UChainInfo@ioChainWeapon@@V?$allocator@UChainInfo@ioChainWeapon@@@std@@@std@@QAE?AV?$_Vector_iterator@V?$_Vector_val@UChainInfo@ioChainWeapon@@V?$allocator@UChainInfo@ioChainWeapon@@@std@@@std@@@2@V?$_Vector_const_iterator@V?$_Vector_val@UChainInfo@ioChainWeapon@@V?$allocator@UChainInfo@ioChainWeapon@@@std@@@std@@@2@0@Z ; std::vector<ioChainWeapon::ChainInfo,std::allocator<ioChainWeapon::ChainInfo> >::erase

; 1219 : 		}

  00014	c9		 leave
  00015	c3		 ret	 0
?clear@?$vector@UChainInfo@ioChainWeapon@@V?$allocator@UChainInfo@ioChainWeapon@@@std@@@std@@QAEXXZ ENDP ; std::vector<ioChainWeapon::ChainInfo,std::allocator<ioChainWeapon::ChainInfo> >::clear
_TEXT	ENDS
PUBLIC	??_7ioChainWeapon@@6B@				; ioChainWeapon::`vftable'
PUBLIC	??0ioChainWeapon@@QAE@PAVioBaseChar@@PBUWeaponAttribute@@@Z ; ioChainWeapon::ioChainWeapon
PUBLIC	??_R4ioChainWeapon@@6B@				; ioChainWeapon::`RTTI Complete Object Locator'
PUBLIC	??_R0?AVioChainWeapon@@@8			; ioChainWeapon `RTTI Type Descriptor'
PUBLIC	??_R3ioChainWeapon@@8				; ioChainWeapon::`RTTI Class Hierarchy Descriptor'
PUBLIC	??_R2ioChainWeapon@@8				; ioChainWeapon::`RTTI Base Class Array'
PUBLIC	??_R1A@?0A@EA@ioChainWeapon@@8			; ioChainWeapon::`RTTI Base Class Descriptor at (0,-1,0,64)'
PUBLIC	??_R1A@?0A@EA@ioWeapon@@8			; ioWeapon::`RTTI Base Class Descriptor at (0,-1,0,64)'
PUBLIC	??_R0?AVioWeapon@@@8				; ioWeapon `RTTI Type Descriptor'
PUBLIC	??_R3ioWeapon@@8				; ioWeapon::`RTTI Class Hierarchy Descriptor'
PUBLIC	??_R2ioWeapon@@8				; ioWeapon::`RTTI Base Class Array'
PUBLIC	?LoadProperty@ioChainWeapon@@UAEXAAVioINILoader@@@Z ; ioChainWeapon::LoadProperty
EXTRN	??1ioWeapon@@UAE@XZ:PROC			; ioWeapon::~ioWeapon
EXTRN	__imp_?VEC3_ZERO@ioMath@@2UD3DXVECTOR3@@A:BYTE
EXTRN	?SetPeculiarity@ioWeapon@@QAEXK@Z:PROC		; ioWeapon::SetPeculiarity
EXTRN	??0ioWeapon@@QAE@PAVioBaseChar@@PBUWeaponAttribute@@@Z:PROC ; ioWeapon::ioWeapon
EXTRN	?IsAlreadyCollisioned@ioWeapon@@UAE_NPAVioPlayEntity@@@Z:PROC ; ioWeapon::IsAlreadyCollisioned
EXTRN	?AddCollisionEntity@ioWeapon@@UAEXPAVioPlayEntity@@@Z:PROC ; ioWeapon::AddCollisionEntity
EXTRN	?SetOwnerDamageRate@ioWeapon@@UAEXM@Z:PROC	; ioWeapon::SetOwnerDamageRate
EXTRN	?SetOwnerChargeDamageRate@ioWeapon@@UAEXM@Z:PROC ; ioWeapon::SetOwnerChargeDamageRate
EXTRN	?SetOwnerChargeForceRate@ioWeapon@@UAEXM@Z:PROC	; ioWeapon::SetOwnerChargeForceRate
EXTRN	?SetOwnerChargeRangeRate@ioWeapon@@UAEXM@Z:PROC	; ioWeapon::SetOwnerChargeRangeRate
EXTRN	?SetOwnerChargeSpeedRate@ioWeapon@@UAEXM@Z:PROC	; ioWeapon::SetOwnerChargeSpeedRate
EXTRN	?SetOwnerChargeBlowRate@ioWeapon@@UAEXM@Z:PROC	; ioWeapon::SetOwnerChargeBlowRate
EXTRN	?SetOwnerChargeFloatRate@ioWeapon@@UAEXM@Z:PROC	; ioWeapon::SetOwnerChargeFloatRate
EXTRN	?SetOwnerChargeScaleRate@ioWeapon@@UAEXM@Z:PROC	; ioWeapon::SetOwnerChargeScaleRate
EXTRN	?SetOwnerChargeExplosionRate@ioWeapon@@UAEXM@Z:PROC ; ioWeapon::SetOwnerChargeExplosionRate
EXTRN	?SetOwnerChargeWoundedTimeRate@ioWeapon@@UAEXM@Z:PROC ; ioWeapon::SetOwnerChargeWoundedTimeRate
EXTRN	?SetOwnerChargeLiveTimeRate@ioWeapon@@UAEXM@Z:PROC ; ioWeapon::SetOwnerChargeLiveTimeRate
EXTRN	?SetOwnerChargeBuffLiveTimeRate@ioWeapon@@UAEXM@Z:PROC ; ioWeapon::SetOwnerChargeBuffLiveTimeRate
EXTRN	?SetWeaponIndex@ioWeapon@@UAEXK@Z:PROC		; ioWeapon::SetWeaponIndex
EXTRN	?SetGrapplingTargetName@ioWeapon@@UAEXABVioHashString@@@Z:PROC ; ioWeapon::SetGrapplingTargetName
EXTRN	?SetCreateItem@ioWeapon@@UAEXABVioHashString@@@Z:PROC ; ioWeapon::SetCreateItem
EXTRN	?SetTeam@ioWeapon@@UAEXPAVioPlayStage@@W4TeamType@@@Z:PROC ; ioWeapon::SetTeam
EXTRN	?CallReserveAreaWeapon@ioWeapon@@UAEXXZ:PROC	; ioWeapon::CallReserveAreaWeapon
EXTRN	?SetWeaponDead@ioWeapon@@UAEXXZ:PROC		; ioWeapon::SetWeaponDead
EXTRN	?PlayExplosionSound@ioWeapon@@UAEXXZ:PROC	; ioWeapon::PlayExplosionSound
EXTRN	?PlayWoundedSound@ioWeapon@@UAEXPAVioPlayEntity@@@Z:PROC ; ioWeapon::PlayWoundedSound
EXTRN	?PlayDefensedSound@ioWeapon@@UAEXPAVioPlayEntity@@@Z:PROC ; ioWeapon::PlayDefensedSound
EXTRN	?PlayLoopSound@ioWeapon@@UAEXXZ:PROC		; ioWeapon::PlayLoopSound
EXTRN	?StopLoopSound@ioWeapon@@UAEXXZ:PROC		; ioWeapon::StopLoopSound
EXTRN	?GetTargetAirBuffList@ioWeapon@@UBEABV?$vector@UBuffInfoStruct@@V?$allocator@UBuffInfoStruct@@@std@@@std@@XZ:PROC ; ioWeapon::GetTargetAirBuffList
EXTRN	?GetTargetBuffList@ioWeapon@@UBEABV?$vector@UBuffInfoStruct@@V?$allocator@UBuffInfoStruct@@@std@@@std@@XZ:PROC ; ioWeapon::GetTargetBuffList
EXTRN	?GetTargetDownBuffList@ioWeapon@@UBEABV?$vector@UBuffInfoStruct@@V?$allocator@UBuffInfoStruct@@@std@@@std@@XZ:PROC ; ioWeapon::GetTargetDownBuffList
EXTRN	?GetPosition@ioWeapon@@UBEABUD3DXVECTOR3@@XZ:PROC ; ioWeapon::GetPosition
EXTRN	?GetBlowType@ioWeapon@@UBE?AW4BlowTargetType@@XZ:PROC ; ioWeapon::GetBlowType
EXTRN	?GetPushPower@ioWeapon@@UBEMM@Z:PROC		; ioWeapon::GetPushPower
EXTRN	?GetBlowPower@ioWeapon@@UBEMM@Z:PROC		; ioWeapon::GetBlowPower
EXTRN	?GetAirPushPower@ioWeapon@@UBEMM@Z:PROC		; ioWeapon::GetAirPushPower
EXTRN	?GetAirBlowPower@ioWeapon@@UBEMM@Z:PROC		; ioWeapon::GetAirBlowPower
EXTRN	?GetDefensePushPower@ioWeapon@@UBEMM@Z:PROC	; ioWeapon::GetDefensePushPower
EXTRN	?GetCollisionEnableTime@ioWeapon@@UBEKXZ:PROC	; ioWeapon::GetCollisionEnableTime
EXTRN	?SetSylphid@ioWeapon@@UAEHXZ:PROC		; ioWeapon::SetSylphid
EXTRN	?ApplyExtraReserveWeaponByWeaponInfo@ioWeapon@@UAEXPAV1@@Z:PROC ; ioWeapon::ApplyExtraReserveWeaponByWeaponInfo
EXTRN	?SetResistanceAttr@ioWeapon@@UAEXH@Z:PROC	; ioWeapon::SetResistanceAttr
EXTRN	?SetStartCollisionBox@ioWeapon@@UAEXXZ:PROC	; ioWeapon::SetStartCollisionBox
EXTRN	?SetLiveTime@ioWeapon@@UAEXK@Z:PROC		; ioWeapon::SetLiveTime
EXTRN	?SetMoveSpeed@ioWeapon@@UAEXM@Z:PROC		; ioWeapon::SetMoveSpeed
EXTRN	?SetFloatPower@ioWeapon@@UAEXM@Z:PROC		; ioWeapon::SetFloatPower
EXTRN	?TestMapCollision@ioWeapon@@UAE_NPAVioOpcodeShape@@PAVioPlayStage@@PBUD3DXMATRIX@@@Z:PROC ; ioWeapon::TestMapCollision
EXTRN	?CheckPreCollision@ioWeapon@@UAEXPAVioPlayEntity@@PAVioPlayStage@@@Z:PROC ; ioWeapon::CheckPreCollision
EXTRN	?CheckStructAndDummy@ioWeapon@@UAEXPAVioPlayEntity@@PAVioPlayStage@@@Z:PROC ; ioWeapon::CheckStructAndDummy
EXTRN	?GetDamage@ioWeapon@@UAEMPAVioPlayEntity@@@Z:PROC ; ioWeapon::GetDamage
EXTRN	?GetBaseDamage@ioWeapon@@UAEMPAVioPlayEntity@@@Z:PROC ; ioWeapon::GetBaseDamage
EXTRN	?GetPushAngle@ioWeapon@@UBEMXZ:PROC		; ioWeapon::GetPushAngle
EXTRN	?IsResistanceMagic@ioWeapon@@UAEHPAVioBaseChar@@@Z:PROC ; ioWeapon::IsResistanceMagic
EXTRN	?IsResistanceBomb@ioWeapon@@UAEHPAVioBaseChar@@@Z:PROC ; ioWeapon::IsResistanceBomb
EXTRN	?IsCanMineExplosion@ioWeapon@@UAE_NXZ:PROC	; ioWeapon::IsCanMineExplosion
EXTRN	?CheckGrapplingState@ioWeapon@@UAE?AW4GrapplingType@@XZ:PROC ; ioWeapon::CheckGrapplingState
EXTRN	?CheckCurAttribute@ioWeapon@@UAEXPBVioPlayEntity@@@Z:PROC ; ioWeapon::CheckCurAttribute
EXTRN	?CheckItemNotDrop@ioWeapon@@UAE_NPAVioBaseChar@@@Z:PROC ; ioWeapon::CheckItemNotDrop
EXTRN	?GetWorldAttackBoxList@ioWeapon@@UAEXAAV?$vector@VioOrientBox@@V?$allocator@VioOrientBox@@@std@@@std@@@Z:PROC ; ioWeapon::GetWorldAttackBoxList
EXTRN	?GetLiveTime@ioWeapon@@UAEKXZ:PROC		; ioWeapon::GetLiveTime
EXTRN	?CheckWeaponCollision@ioWeapon@@UAEXXZ:PROC	; ioWeapon::CheckWeaponCollision
EXTRN	?GetRefreshDuration@ioWeapon@@UAEKXZ:PROC	; ioWeapon::GetRefreshDuration
EXTRN	?GetIgnoreDuration@ioWeapon@@UAEKXZ:PROC	; ioWeapon::GetIgnoreDuration
EXTRN	?GetIgnoreTimeTypeDuration@ioWeapon@@UAEKXZ:PROC ; ioWeapon::GetIgnoreTimeTypeDuration
EXTRN	?GetIgnoreTimeType@ioWeapon@@UAEKXZ:PROC	; ioWeapon::GetIgnoreTimeType
EXTRN	?ApplyWeaponSync@ioWeapon@@UAEXAAVSP2Packet@@PAVioPlayStage@@@Z:PROC ; ioWeapon::ApplyWeaponSync
EXTRN	?IsSkillDependency@ioWeapon@@UAE_NABVioHashString@@@Z:PROC ; ioWeapon::IsSkillDependency
EXTRN	?SetSkillDependencyAction@ioWeapon@@UAEXXZ:PROC	; ioWeapon::SetSkillDependencyAction
EXTRN	?GetAttribute@ioWeapon@@MBEPBUWeaponAttribute@@XZ:PROC ; ioWeapon::GetAttribute
EXTRN	?CalcFinalDamage@ioWeapon@@MAEMXZ:PROC		; ioWeapon::CalcFinalDamage
EXTRN	?CalcFinalBoundDamage@ioWeapon@@MAEMXZ:PROC	; ioWeapon::CalcFinalBoundDamage
EXTRN	?CheckPiercing@ioWeapon@@MAE_N_N@Z:PROC		; ioWeapon::CheckPiercing
EXTRN	?ClearCollisionList@ioWeapon@@MAEXXZ:PROC	; ioWeapon::ClearCollisionList
EXTRN	?CheckCreateWeaponList@ioWeapon@@MAEXXZ:PROC	; ioWeapon::CheckCreateWeaponList
EXTRN	?CreateCollisionAreaWeapon@ioWeapon@@MAEXXZ:PROC ; ioWeapon::CreateCollisionAreaWeapon
EXTRN	?SetMapCollision@ioWeapon@@UAEXXZ:PROC		; ioWeapon::SetMapCollision
EXTRN	?IsIgnoreMapCollision@ioWeapon@@UBE_NXZ:PROC	; ioWeapon::IsIgnoreMapCollision
EXTRN	?IsIgnoreTestMapCollision@ioWeapon@@UBE_NXZ:PROC ; ioWeapon::IsIgnoreTestMapCollision
EXTRN	?IsIgnoreMapCollisionEffect@ioWeapon@@UBE_NXZ:PROC ; ioWeapon::IsIgnoreMapCollisionEffect
EXTRN	?AddEffectEvent@ioWeapon@@MAEXPAVioEffect@@@Z:PROC ; ioWeapon::AddEffectEvent
EXTRN	??_EioChainWeapon@@UAEPAXI@Z:PROC		; ioChainWeapon::`vector deleting destructor'
;	COMDAT ??_R2ioWeapon@@8
; File c:\program files (x86)\microsoft visual studio 10.0\vc\include\xutility
rdata$r	SEGMENT
??_R2ioWeapon@@8 DD FLAT:??_R1A@?0A@EA@ioWeapon@@8	; ioWeapon::`RTTI Base Class Array'
rdata$r	ENDS
;	COMDAT ??_R3ioWeapon@@8
rdata$r	SEGMENT
??_R3ioWeapon@@8 DD 00H					; ioWeapon::`RTTI Class Hierarchy Descriptor'
	DD	00H
	DD	01H
	DD	FLAT:??_R2ioWeapon@@8
rdata$r	ENDS
;	COMDAT ??_R0?AVioWeapon@@@8
_DATA	SEGMENT
??_R0?AVioWeapon@@@8 DD FLAT:??_7type_info@@6B@		; ioWeapon `RTTI Type Descriptor'
	DD	00H
	DB	'.?AVioWeapon@@', 00H
_DATA	ENDS
;	COMDAT ??_R1A@?0A@EA@ioWeapon@@8
rdata$r	SEGMENT
??_R1A@?0A@EA@ioWeapon@@8 DD FLAT:??_R0?AVioWeapon@@@8	; ioWeapon::`RTTI Base Class Descriptor at (0,-1,0,64)'
	DD	00H
	DD	00H
	DD	0ffffffffH
	DD	00H
	DD	040H
	DD	FLAT:??_R3ioWeapon@@8
rdata$r	ENDS
;	COMDAT ??_R1A@?0A@EA@ioChainWeapon@@8
rdata$r	SEGMENT
??_R1A@?0A@EA@ioChainWeapon@@8 DD FLAT:??_R0?AVioChainWeapon@@@8 ; ioChainWeapon::`RTTI Base Class Descriptor at (0,-1,0,64)'
	DD	01H
	DD	00H
	DD	0ffffffffH
	DD	00H
	DD	040H
	DD	FLAT:??_R3ioChainWeapon@@8
rdata$r	ENDS
;	COMDAT ??_R2ioChainWeapon@@8
rdata$r	SEGMENT
??_R2ioChainWeapon@@8 DD FLAT:??_R1A@?0A@EA@ioChainWeapon@@8 ; ioChainWeapon::`RTTI Base Class Array'
	DD	FLAT:??_R1A@?0A@EA@ioWeapon@@8
rdata$r	ENDS
;	COMDAT ??_R3ioChainWeapon@@8
rdata$r	SEGMENT
??_R3ioChainWeapon@@8 DD 00H				; ioChainWeapon::`RTTI Class Hierarchy Descriptor'
	DD	00H
	DD	02H
	DD	FLAT:??_R2ioChainWeapon@@8
rdata$r	ENDS
;	COMDAT ??_R0?AVioChainWeapon@@@8
_DATA	SEGMENT
??_R0?AVioChainWeapon@@@8 DD FLAT:??_7type_info@@6B@	; ioChainWeapon `RTTI Type Descriptor'
	DD	00H
	DB	'.?AVioChainWeapon@@', 00H
_DATA	ENDS
;	COMDAT ??_R4ioChainWeapon@@6B@
rdata$r	SEGMENT
??_R4ioChainWeapon@@6B@ DD 00H				; ioChainWeapon::`RTTI Complete Object Locator'
	DD	00H
	DD	00H
	DD	FLAT:??_R0?AVioChainWeapon@@@8
	DD	FLAT:??_R3ioChainWeapon@@8
rdata$r	ENDS
;	COMDAT ??_7ioChainWeapon@@6B@
CONST	SEGMENT
??_7ioChainWeapon@@6B@ DD FLAT:??_R4ioChainWeapon@@6B@	; ioChainWeapon::`vftable'
	DD	FLAT:?IsAlreadyCollisioned@ioWeapon@@UAE_NPAVioPlayEntity@@@Z
	DD	FLAT:?AddCollisionEntity@ioWeapon@@UAEXPAVioPlayEntity@@@Z
	DD	FLAT:?SetOwnerDamageRate@ioWeapon@@UAEXM@Z
	DD	FLAT:?SetOwnerChargeDamageRate@ioWeapon@@UAEXM@Z
	DD	FLAT:?SetOwnerChargeForceRate@ioWeapon@@UAEXM@Z
	DD	FLAT:?SetOwnerChargeRangeRate@ioWeapon@@UAEXM@Z
	DD	FLAT:?SetOwnerChargeSpeedRate@ioWeapon@@UAEXM@Z
	DD	FLAT:?SetOwnerChargeBlowRate@ioWeapon@@UAEXM@Z
	DD	FLAT:?SetOwnerChargeFloatRate@ioWeapon@@UAEXM@Z
	DD	FLAT:?SetOwnerChargeScaleRate@ioWeapon@@UAEXM@Z
	DD	FLAT:?SetOwnerChargeExplosionRate@ioWeapon@@UAEXM@Z
	DD	FLAT:?SetOwnerChargeWoundedTimeRate@ioWeapon@@UAEXM@Z
	DD	FLAT:?SetOwnerChargeLiveTimeRate@ioWeapon@@UAEXM@Z
	DD	FLAT:?SetOwnerChargeBuffLiveTimeRate@ioWeapon@@UAEXM@Z
	DD	FLAT:?SetWeaponIndex@ioWeapon@@UAEXK@Z
	DD	FLAT:?SetGrapplingTargetName@ioWeapon@@UAEXABVioHashString@@@Z
	DD	FLAT:?SetCreateItem@ioWeapon@@UAEXABVioHashString@@@Z
	DD	FLAT:?SetTeam@ioWeapon@@UAEXPAVioPlayStage@@W4TeamType@@@Z
	DD	FLAT:?CallReserveAreaWeapon@ioWeapon@@UAEXXZ
	DD	FLAT:?SetWeaponDead@ioWeapon@@UAEXXZ
	DD	FLAT:?PlayExplosionSound@ioWeapon@@UAEXXZ
	DD	FLAT:?PlayWoundedSound@ioWeapon@@UAEXPAVioPlayEntity@@@Z
	DD	FLAT:?PlayDefensedSound@ioWeapon@@UAEXPAVioPlayEntity@@@Z
	DD	FLAT:?PlayLoopSound@ioWeapon@@UAEXXZ
	DD	FLAT:?StopLoopSound@ioWeapon@@UAEXXZ
	DD	FLAT:?GetTargetAirBuffList@ioWeapon@@UBEABV?$vector@UBuffInfoStruct@@V?$allocator@UBuffInfoStruct@@@std@@@std@@XZ
	DD	FLAT:?GetTargetBuffList@ioWeapon@@UBEABV?$vector@UBuffInfoStruct@@V?$allocator@UBuffInfoStruct@@@std@@@std@@XZ
	DD	FLAT:?GetTargetDownBuffList@ioWeapon@@UBEABV?$vector@UBuffInfoStruct@@V?$allocator@UBuffInfoStruct@@@std@@@std@@XZ
	DD	FLAT:?GetPosition@ioWeapon@@UBEABUD3DXVECTOR3@@XZ
	DD	FLAT:?GetBlowType@ioWeapon@@UBE?AW4BlowTargetType@@XZ
	DD	FLAT:?GetPushPower@ioWeapon@@UBEMM@Z
	DD	FLAT:?GetBlowPower@ioWeapon@@UBEMM@Z
	DD	FLAT:?GetAirPushPower@ioWeapon@@UBEMM@Z
	DD	FLAT:?GetAirBlowPower@ioWeapon@@UBEMM@Z
	DD	FLAT:?GetDefensePushPower@ioWeapon@@UBEMM@Z
	DD	FLAT:?GetCollisionEnableTime@ioWeapon@@UBEKXZ
	DD	FLAT:?SetSylphid@ioWeapon@@UAEHXZ
	DD	FLAT:?ApplyExtraReserveWeaponByWeaponInfo@ioWeapon@@UAEXPAV1@@Z
	DD	FLAT:?InitResource@ioChainWeapon@@UAE_NXZ
	DD	FLAT:?DestroyResource@ioChainWeapon@@UAEXPAVioPlayStage@@@Z
	DD	FLAT:?LoadProperty@ioChainWeapon@@UAEXAAVioINILoader@@@Z
	DD	FLAT:?SetResistanceAttr@ioWeapon@@UAEXH@Z
	DD	FLAT:?SetStartCollisionBox@ioWeapon@@UAEXXZ
	DD	FLAT:?SetLiveTime@ioWeapon@@UAEXK@Z
	DD	FLAT:?SetMoveDir@ioChainWeapon@@UAEXABUD3DXVECTOR3@@@Z
	DD	FLAT:?SetMoveSpeed@ioWeapon@@UAEXM@Z
	DD	FLAT:?SetFloatPower@ioWeapon@@UAEXM@Z
	DD	FLAT:?SetStartPosition@ioChainWeapon@@UAEXABUD3DXVECTOR3@@PAVioPlayStage@@@Z
	DD	FLAT:?Process@ioChainWeapon@@UAEXMPAVioPlayStage@@@Z
	DD	FLAT:?IsCollision@ioChainWeapon@@UAE_NPAVioPlayEntity@@_N@Z
	DD	FLAT:?TestMapCollision@ioWeapon@@UAE_NPAVioOpcodeShape@@PAVioPlayStage@@PBUD3DXMATRIX@@@Z
	DD	FLAT:?CheckPreCollision@ioWeapon@@UAEXPAVioPlayEntity@@PAVioPlayStage@@@Z
	DD	FLAT:?CheckStructAndDummy@ioWeapon@@UAEXPAVioPlayEntity@@PAVioPlayStage@@@Z
	DD	FLAT:?GetDamage@ioWeapon@@UAEMPAVioPlayEntity@@@Z
	DD	FLAT:?GetBaseDamage@ioWeapon@@UAEMPAVioPlayEntity@@@Z
	DD	FLAT:?GetPushAngle@ioWeapon@@UBEMXZ
	DD	FLAT:?IsResistanceMagic@ioWeapon@@UAEHPAVioBaseChar@@@Z
	DD	FLAT:?IsResistanceBomb@ioWeapon@@UAEHPAVioBaseChar@@@Z
	DD	FLAT:?IsCanMineExplosion@ioWeapon@@UAE_NXZ
	DD	FLAT:?CheckGrapplingState@ioWeapon@@UAE?AW4GrapplingType@@XZ
	DD	FLAT:?CheckCurAttribute@ioWeapon@@UAEXPBVioPlayEntity@@@Z
	DD	FLAT:?CheckItemNotDrop@ioWeapon@@UAE_NPAVioBaseChar@@@Z
	DD	FLAT:?GetWorldAttackBoxList@ioWeapon@@UAEXAAV?$vector@VioOrientBox@@V?$allocator@VioOrientBox@@@std@@@std@@@Z
	DD	FLAT:?GetAttackDir@ioChainWeapon@@UBE?AUD3DXVECTOR3@@PBVioPlayEntity@@@Z
	DD	FLAT:?GetLocalAttackBox@ioChainWeapon@@UBEABVioOrientBox@@XZ
	DD	FLAT:?GetLiveTime@ioWeapon@@UAEKXZ
	DD	FLAT:?GetMoveDir@ioChainWeapon@@UAE?AUD3DXVECTOR3@@XZ
	DD	FLAT:?CheckWeaponCollision@ioWeapon@@UAEXXZ
	DD	FLAT:?GetType@ioChainWeapon@@UBE?AW4WeaponType@ioWeapon@@XZ
	DD	FLAT:?GetActionStopType@ioChainWeapon@@UBE?AW4ActionStopType@@XZ
	DD	FLAT:?GetDieActionStopType@ioChainWeapon@@UBE?AW4ActionStopType@@XZ
	DD	FLAT:?GetRefreshDuration@ioWeapon@@UAEKXZ
	DD	FLAT:?GetIgnoreDuration@ioWeapon@@UAEKXZ
	DD	FLAT:?GetIgnoreTimeTypeDuration@ioWeapon@@UAEKXZ
	DD	FLAT:?GetIgnoreTimeType@ioWeapon@@UAEKXZ
	DD	FLAT:?ApplyWeaponSync@ioWeapon@@UAEXAAVSP2Packet@@PAVioPlayStage@@@Z
	DD	FLAT:?IsSkillDependency@ioWeapon@@UAE_NABVioHashString@@@Z
	DD	FLAT:?SetSkillDependencyAction@ioWeapon@@UAEXXZ
	DD	FLAT:?UpdateWorldAttackBox@ioChainWeapon@@MAEXM_N@Z
	DD	FLAT:?GetAttribute@ioWeapon@@MBEPBUWeaponAttribute@@XZ
	DD	FLAT:?CalcFinalDamage@ioWeapon@@MAEMXZ
	DD	FLAT:?CalcFinalBoundDamage@ioWeapon@@MAEMXZ
	DD	FLAT:?CheckPiercing@ioWeapon@@MAE_N_N@Z
	DD	FLAT:?ClearCollisionList@ioWeapon@@MAEXXZ
	DD	FLAT:?CheckCreateWeaponList@ioWeapon@@MAEXXZ
	DD	FLAT:?CreateCollisionAreaWeapon@ioWeapon@@MAEXXZ
	DD	FLAT:?SetMapCollision@ioWeapon@@UAEXXZ
	DD	FLAT:?IsIgnoreMapCollision@ioWeapon@@UBE_NXZ
	DD	FLAT:?IsIgnoreTestMapCollision@ioWeapon@@UBE_NXZ
	DD	FLAT:?IsIgnoreMapCollisionEffect@ioWeapon@@UBE_NXZ
	DD	FLAT:?AddEffectEvent@ioWeapon@@MAEXPAVioEffect@@@Z
	DD	FLAT:??_EioChainWeapon@@UAEPAXI@Z
CONST	ENDS
;	COMDAT xdata$x
xdata$x	SEGMENT
__ehfuncinfo$??0ioChainWeapon@@QAE@PAVioBaseChar@@PBUWeaponAttribute@@@Z DD 019930522H
	DD	0aH
	DD	FLAT:__unwindtable$??0ioChainWeapon@@QAE@PAVioBaseChar@@PBUWeaponAttribute@@@Z
	DD	2 DUP(00H)
	DD	2 DUP(00H)
	DD	00H
	DD	01H
__unwindtable$??0ioChainWeapon@@QAE@PAVioBaseChar@@PBUWeaponAttribute@@@Z DD 0ffffffffH
	DD	FLAT:__unwindfunclet$??0ioChainWeapon@@QAE@PAVioBaseChar@@PBUWeaponAttribute@@@Z$0
	DD	00H
	DD	FLAT:__unwindfunclet$??0ioChainWeapon@@QAE@PAVioBaseChar@@PBUWeaponAttribute@@@Z$1
	DD	01H
	DD	FLAT:__unwindfunclet$??0ioChainWeapon@@QAE@PAVioBaseChar@@PBUWeaponAttribute@@@Z$2
	DD	02H
	DD	FLAT:__unwindfunclet$??0ioChainWeapon@@QAE@PAVioBaseChar@@PBUWeaponAttribute@@@Z$3
	DD	03H
	DD	FLAT:__unwindfunclet$??0ioChainWeapon@@QAE@PAVioBaseChar@@PBUWeaponAttribute@@@Z$4
	DD	04H
	DD	FLAT:__unwindfunclet$??0ioChainWeapon@@QAE@PAVioBaseChar@@PBUWeaponAttribute@@@Z$5
	DD	05H
	DD	FLAT:__unwindfunclet$??0ioChainWeapon@@QAE@PAVioBaseChar@@PBUWeaponAttribute@@@Z$6
	DD	06H
	DD	FLAT:__unwindfunclet$??0ioChainWeapon@@QAE@PAVioBaseChar@@PBUWeaponAttribute@@@Z$7
	DD	07H
	DD	FLAT:__unwindfunclet$??0ioChainWeapon@@QAE@PAVioBaseChar@@PBUWeaponAttribute@@@Z$8
	DD	08H
	DD	FLAT:__unwindfunclet$??0ioChainWeapon@@QAE@PAVioBaseChar@@PBUWeaponAttribute@@@Z$9
; Function compile flags: /Ogsp
; File d:\lost saga for developer\youtube\tutorial\source\src\lsclient\iochainweapon.cpp
xdata$x	ENDS
;	COMDAT ??0ioChainWeapon@@QAE@PAVioBaseChar@@PBUWeaponAttribute@@@Z
_TEXT	SEGMENT
_this$ = -16						; size = 4
__$EHRec$ = -12						; size = 12
_pOwner$ = 8						; size = 4
$T529438 = 12						; size = 4
_value$529366 = 12					; size = 4
_value$529362 = 12					; size = 4
_pAttr$ = 12						; size = 4
??0ioChainWeapon@@QAE@PAVioBaseChar@@PBUWeaponAttribute@@@Z PROC ; ioChainWeapon::ioChainWeapon, COMDAT
; _this$ = ecx

; 14   : {

  00000	6a 04		 push	 4
  00002	b8 00 00 00 00	 mov	 eax, __ehhandler$??0ioChainWeapon@@QAE@PAVioBaseChar@@PBUWeaponAttribute@@@Z
  00007	e8 00 00 00 00	 call	 __EH_prolog3
  0000c	8b d9		 mov	 ebx, ecx
  0000e	89 5d f0	 mov	 DWORD PTR _this$[ebp], ebx
  00011	ff 75 0c	 push	 DWORD PTR _pAttr$[ebp]
  00014	ff 75 08	 push	 DWORD PTR _pOwner$[ebp]
  00017	e8 00 00 00 00	 call	 ??0ioWeapon@@QAE@PAVioBaseChar@@PBUWeaponAttribute@@@Z ; ioWeapon::ioWeapon
  0001c	33 ff		 xor	 edi, edi
  0001e	8d 8b b8 08 00
	00		 lea	 ecx, DWORD PTR [ebx+2232]
  00024	89 7d fc	 mov	 DWORD PTR __$EHRec$[ebp+8], edi
  00027	c7 03 00 00 00
	00		 mov	 DWORD PTR [ebx], OFFSET ??_7ioChainWeapon@@6B@
  0002d	e8 00 00 00 00	 call	 ??0?$CEncrypt@H@@QAE@XZ	; CEncrypt<int>::CEncrypt<int>
  00032	8d 8b e8 08 00
	00		 lea	 ecx, DWORD PTR [ebx+2280]
  00038	c6 45 fc 01	 mov	 BYTE PTR __$EHRec$[ebp+8], 1
  0003c	e8 00 00 00 00	 call	 ??0?$CEncrypt@H@@QAE@XZ	; CEncrypt<int>::CEncrypt<int>
  00041	8d 8b 18 09 00
	00		 lea	 ecx, DWORD PTR [ebx+2328]
  00047	c6 45 fc 02	 mov	 BYTE PTR __$EHRec$[ebp+8], 2
  0004b	e8 00 00 00 00	 call	 ??0?$CEncrypt@M@@QAE@XZ	; CEncrypt<float>::CEncrypt<float>
  00050	8d 8b 48 09 00
	00		 lea	 ecx, DWORD PTR [ebx+2376]
  00056	c6 45 fc 03	 mov	 BYTE PTR __$EHRec$[ebp+8], 3
  0005a	e8 00 00 00 00	 call	 ??0?$CEncrypt@M@@QAE@XZ	; CEncrypt<float>::CEncrypt<float>
  0005f	8d 8b 78 09 00
	00		 lea	 ecx, DWORD PTR [ebx+2424]
  00065	c6 45 fc 04	 mov	 BYTE PTR __$EHRec$[ebp+8], 4
  00069	e8 00 00 00 00	 call	 ??0?$CEncrypt@_N@@QAE@XZ ; CEncrypt<bool>::CEncrypt<bool>
  0006e	89 bb a8 09 00
	00		 mov	 DWORD PTR [ebx+2472], edi
  00074	89 bb ac 09 00
	00		 mov	 DWORD PTR [ebx+2476], edi
  0007a	89 bb b0 09 00
	00		 mov	 DWORD PTR [ebx+2480], edi
  00080	8d 8b b8 09 00
	00		 lea	 ecx, DWORD PTR [ebx+2488]
  00086	c6 45 fc 06	 mov	 BYTE PTR __$EHRec$[ebp+8], 6
  0008a	e8 00 00 00 00	 call	 ??0?$CEncrypt@M@@QAE@XZ	; CEncrypt<float>::CEncrypt<float>
  0008f	8d 8b e8 09 00
	00		 lea	 ecx, DWORD PTR [ebx+2536]
  00095	c6 45 fc 07	 mov	 BYTE PTR __$EHRec$[ebp+8], 7
  00099	e8 00 00 00 00	 call	 ??0?$CEncrypt@_N@@QAE@XZ ; CEncrypt<bool>::CEncrypt<bool>
  0009e	89 bb 20 0a 00
	00		 mov	 DWORD PTR [ebx+2592], edi
  000a4	89 bb 24 0a 00
	00		 mov	 DWORD PTR [ebx+2596], edi
  000aa	89 bb 28 0a 00
	00		 mov	 DWORD PTR [ebx+2600], edi

; 15   : 	SetPeculiarity( WP_MISSILE_WEAPON | WP_DIVIDE_ACTION );

  000b0	68 02 01 00 00	 push	 258			; 00000102H
  000b5	8b cb		 mov	 ecx, ebx
  000b7	c6 45 fc 09	 mov	 BYTE PTR __$EHRec$[ebp+8], 9
  000bb	e8 00 00 00 00	 call	 ?SetPeculiarity@ioWeapon@@QAEXK@Z ; ioWeapon::SetPeculiarity

; 16   : 
; 17   : 	m_pFireBall = NULL;
; 18   : 
; 19   : 	m_ChainState = CWS_NONE;
; 20   : 	m_fCurMoveSpeed = 0.0f;

  000c0	0f 57 c0	 xorps	 xmm0, xmm0

; 21   : 	m_fCurChainRange = 0.0f;

  000c3	8d 45 0c	 lea	 eax, DWORD PTR _value$529362[ebp]
  000c6	50		 push	 eax
  000c7	8d 8b 18 09 00
	00		 lea	 ecx, DWORD PTR [ebx+2328]
  000cd	89 bb 94 08 00
	00		 mov	 DWORD PTR [ebx+2196], edi
  000d3	89 bb 98 08 00
	00		 mov	 DWORD PTR [ebx+2200], edi
  000d9	f3 0f 11 83 9c
	08 00 00	 movss	 DWORD PTR [ebx+2204], xmm0
  000e1	f3 0f 11 45 0c	 movss	 DWORD PTR _value$529362[ebp], xmm0
  000e6	e8 00 00 00 00	 call	 ?EncryptValueToPool@?$CEncrypt@M@@AAEXPBD@Z ; CEncrypt<float>::EncryptValueToPool

; 22   : 	m_iCurChainCnt = 0;

  000eb	8d 45 0c	 lea	 eax, DWORD PTR _value$529366[ebp]
  000ee	50		 push	 eax
  000ef	8d 8b e8 08 00
	00		 lea	 ecx, DWORD PTR [ebx+2280]
  000f5	89 7d 0c	 mov	 DWORD PTR _value$529366[ebp], edi
  000f8	e8 00 00 00 00	 call	 ?EncryptValueToPool@?$CEncrypt@H@@AAEXPBD@Z ; CEncrypt<int>::EncryptValueToPool

; 23   : 
; 24   : 	m_fCurMoveDistance = 0.0f;

  000fd	0f 57 c0	 xorps	 xmm0, xmm0
  00100	f3 0f 11 83 18
	0a 00 00	 movss	 DWORD PTR [ebx+2584], xmm0

; 25   : 	m_dwCollisionTime = 0;

  00108	89 bb 1c 0a 00
	00		 mov	 DWORD PTR [ebx+2588], edi

; 26   : 
; 27   : 	m_vChainInfoList.clear();

  0010e	8b 83 24 0a 00
	00		 mov	 eax, DWORD PTR [ebx+2596]
  00114	8b 8b 20 0a 00
	00		 mov	 ecx, DWORD PTR [ebx+2592]
  0011a	50		 push	 eax
  0011b	51		 push	 ecx
  0011c	8d 45 0c	 lea	 eax, DWORD PTR $T529438[ebp]
  0011f	50		 push	 eax
  00120	8d 8b 20 0a 00
	00		 lea	 ecx, DWORD PTR [ebx+2592]
  00126	e8 00 00 00 00	 call	 ?erase@?$vector@UChainInfo@ioChainWeapon@@V?$allocator@UChainInfo@ioChainWeapon@@@std@@@std@@QAE?AV?$_Vector_iterator@V?$_Vector_val@UChainInfo@ioChainWeapon@@V?$allocator@UChainInfo@ioChainWeapon@@@std@@@std@@@2@V?$_Vector_const_iterator@V?$_Vector_val@UChainInfo@ioChainWeapon@@V?$allocator@UChainInfo@ioChainWeapon@@@std@@@std@@@2@0@Z ; std::vector<ioChainWeapon::ChainInfo,std::allocator<ioChainWeapon::ChainInfo> >::erase

; 28   : 
; 29   : 	m_bFirst = true;

  0012b	c6 83 30 0a 00
	00 01		 mov	 BYTE PTR [ebx+2608], 1

; 30   : 	m_vMoveDir = ioMath::VEC3_ZERO;

  00132	8b 35 00 00 00
	00		 mov	 esi, DWORD PTR __imp_?VEC3_ZERO@ioMath@@2UD3DXVECTOR3@@A
  00138	8d bb ac 08 00
	00		 lea	 edi, DWORD PTR [ebx+2220]
  0013e	a5		 movsd
  0013f	a5		 movsd
  00140	a5		 movsd

; 31   : }

  00141	8b c3		 mov	 eax, ebx
  00143	e8 00 00 00 00	 call	 __EH_epilog3
  00148	c2 08 00	 ret	 8
_TEXT	ENDS
;	COMDAT text$x
text$x	SEGMENT
__unwindfunclet$??0ioChainWeapon@@QAE@PAVioBaseChar@@PBUWeaponAttribute@@@Z$0:
  00000	8b 4d f0	 mov	 ecx, DWORD PTR _this$[ebp]
  00003	e9 00 00 00 00	 jmp	 ??1ioWeapon@@UAE@XZ	; ioWeapon::~ioWeapon
__unwindfunclet$??0ioChainWeapon@@QAE@PAVioBaseChar@@PBUWeaponAttribute@@@Z$1:
  00008	8b 4d f0	 mov	 ecx, DWORD PTR _this$[ebp]
  0000b	81 c1 b8 08 00
	00		 add	 ecx, 2232		; 000008b8H
  00011	e9 00 00 00 00	 jmp	 ??1?$CEncrypt@H@@UAE@XZ	; CEncrypt<int>::~CEncrypt<int>
__unwindfunclet$??0ioChainWeapon@@QAE@PAVioBaseChar@@PBUWeaponAttribute@@@Z$2:
  00016	8b 4d f0	 mov	 ecx, DWORD PTR _this$[ebp]
  00019	81 c1 e8 08 00
	00		 add	 ecx, 2280		; 000008e8H
  0001f	e9 00 00 00 00	 jmp	 ??1?$CEncrypt@H@@UAE@XZ	; CEncrypt<int>::~CEncrypt<int>
__unwindfunclet$??0ioChainWeapon@@QAE@PAVioBaseChar@@PBUWeaponAttribute@@@Z$3:
  00024	8b 4d f0	 mov	 ecx, DWORD PTR _this$[ebp]
  00027	81 c1 18 09 00
	00		 add	 ecx, 2328		; 00000918H
  0002d	e9 00 00 00 00	 jmp	 ??1?$CEncrypt@M@@UAE@XZ	; CEncrypt<float>::~CEncrypt<float>
__unwindfunclet$??0ioChainWeapon@@QAE@PAVioBaseChar@@PBUWeaponAttribute@@@Z$4:
  00032	8b 4d f0	 mov	 ecx, DWORD PTR _this$[ebp]
  00035	81 c1 48 09 00
	00		 add	 ecx, 2376		; 00000948H
  0003b	e9 00 00 00 00	 jmp	 ??1?$CEncrypt@M@@UAE@XZ	; CEncrypt<float>::~CEncrypt<float>
__unwindfunclet$??0ioChainWeapon@@QAE@PAVioBaseChar@@PBUWeaponAttribute@@@Z$5:
  00040	8b 4d f0	 mov	 ecx, DWORD PTR _this$[ebp]
  00043	81 c1 78 09 00
	00		 add	 ecx, 2424		; 00000978H
  00049	e9 00 00 00 00	 jmp	 ??1?$CEncrypt@_N@@UAE@XZ ; CEncrypt<bool>::~CEncrypt<bool>
__unwindfunclet$??0ioChainWeapon@@QAE@PAVioBaseChar@@PBUWeaponAttribute@@@Z$6:
  0004e	8b 4d f0	 mov	 ecx, DWORD PTR _this$[ebp]
  00051	81 c1 a8 09 00
	00		 add	 ecx, 2472		; 000009a8H
  00057	e9 00 00 00 00	 jmp	 ??1?$vector@HV?$allocator@H@std@@@std@@QAE@XZ ; std::vector<int,std::allocator<int> >::~vector<int,std::allocator<int> >
__unwindfunclet$??0ioChainWeapon@@QAE@PAVioBaseChar@@PBUWeaponAttribute@@@Z$7:
  0005c	8b 4d f0	 mov	 ecx, DWORD PTR _this$[ebp]
  0005f	81 c1 b8 09 00
	00		 add	 ecx, 2488		; 000009b8H
  00065	e9 00 00 00 00	 jmp	 ??1?$CEncrypt@M@@UAE@XZ	; CEncrypt<float>::~CEncrypt<float>
__unwindfunclet$??0ioChainWeapon@@QAE@PAVioBaseChar@@PBUWeaponAttribute@@@Z$8:
  0006a	8b 4d f0	 mov	 ecx, DWORD PTR _this$[ebp]
  0006d	81 c1 e8 09 00
	00		 add	 ecx, 2536		; 000009e8H
  00073	e9 00 00 00 00	 jmp	 ??1?$CEncrypt@_N@@UAE@XZ ; CEncrypt<bool>::~CEncrypt<bool>
__unwindfunclet$??0ioChainWeapon@@QAE@PAVioBaseChar@@PBUWeaponAttribute@@@Z$9:
  00078	8b 4d f0	 mov	 ecx, DWORD PTR _this$[ebp]
  0007b	81 c1 20 0a 00
	00		 add	 ecx, 2592		; 00000a20H
  00081	e9 00 00 00 00	 jmp	 ??1?$vector@UChainInfo@ioChainWeapon@@V?$allocator@UChainInfo@ioChainWeapon@@@std@@@std@@QAE@XZ ; std::vector<ioChainWeapon::ChainInfo,std::allocator<ioChainWeapon::ChainInfo> >::~vector<ioChainWeapon::ChainInfo,std::allocator<ioChainWeapon::ChainInfo> >
__ehhandler$??0ioChainWeapon@@QAE@PAVioBaseChar@@PBUWeaponAttribute@@@Z:
  00086	8b 54 24 08	 mov	 edx, DWORD PTR [esp+8]
  0008a	8d 42 0c	 lea	 eax, DWORD PTR [edx+12]
  0008d	8b 4a ec	 mov	 ecx, DWORD PTR [edx-20]
  00090	33 c8		 xor	 ecx, eax
  00092	e8 00 00 00 00	 call	 @__security_check_cookie@4
  00097	b8 00 00 00 00	 mov	 eax, OFFSET __ehfuncinfo$??0ioChainWeapon@@QAE@PAVioBaseChar@@PBUWeaponAttribute@@@Z
  0009c	e9 00 00 00 00	 jmp	 ___CxxFrameHandler3
text$x	ENDS
??0ioChainWeapon@@QAE@PAVioBaseChar@@PBUWeaponAttribute@@@Z ENDP ; ioChainWeapon::ioChainWeapon
PUBLIC	??_C@_0DH@MBJCOOCD@ioMissileWeapon?3?3?$HOioMissileWeapo@ ; `string'
PUBLIC	??1ioChainWeapon@@UAE@XZ			; ioChainWeapon::~ioChainWeapon
EXTRN	__imp_?PrintTimeAndLog@CLog@@QAAXHPADZZ:PROC
EXTRN	__imp_?LOG@@3VCLog@@A:BYTE
;	COMDAT ??_C@_0DH@MBJCOOCD@ioMissileWeapon?3?3?$HOioMissileWeapo@
; File d:\lost saga for developer\youtube\tutorial\source\src\lsclient\encryptvalue.h
CONST	SEGMENT
??_C@_0DH@MBJCOOCD@ioMissileWeapon?3?3?$HOioMissileWeapo@ DB 'ioMissileWe'
	DB	'apon::~ioMissileWeapon - UnReleased Resouce', 00H ; `string'
CONST	ENDS
;	COMDAT xdata$x
xdata$x	SEGMENT
__ehfuncinfo$??1ioChainWeapon@@UAE@XZ DD 019930522H
	DD	0aH
	DD	FLAT:__unwindtable$??1ioChainWeapon@@UAE@XZ
	DD	2 DUP(00H)
	DD	2 DUP(00H)
	DD	00H
	DD	01H
__unwindtable$??1ioChainWeapon@@UAE@XZ DD 0ffffffffH
	DD	FLAT:__unwindfunclet$??1ioChainWeapon@@UAE@XZ$0
	DD	00H
	DD	FLAT:__unwindfunclet$??1ioChainWeapon@@UAE@XZ$1
	DD	01H
	DD	FLAT:__unwindfunclet$??1ioChainWeapon@@UAE@XZ$2
	DD	02H
	DD	FLAT:__unwindfunclet$??1ioChainWeapon@@UAE@XZ$3
	DD	03H
	DD	FLAT:__unwindfunclet$??1ioChainWeapon@@UAE@XZ$4
	DD	04H
	DD	FLAT:__unwindfunclet$??1ioChainWeapon@@UAE@XZ$5
	DD	05H
	DD	FLAT:__unwindfunclet$??1ioChainWeapon@@UAE@XZ$6
	DD	06H
	DD	FLAT:__unwindfunclet$??1ioChainWeapon@@UAE@XZ$7
	DD	07H
	DD	FLAT:__unwindfunclet$??1ioChainWeapon@@UAE@XZ$8
	DD	08H
	DD	FLAT:__unwindfunclet$??1ioChainWeapon@@UAE@XZ$9
; Function compile flags: /Ogsp
; File d:\lost saga for developer\youtube\tutorial\source\src\lsclient\iochainweapon.cpp
xdata$x	ENDS
;	COMDAT ??1ioChainWeapon@@UAE@XZ
_TEXT	SEGMENT
$T529527 = -20						; size = 4
_this$ = -16						; size = 4
__$EHRec$ = -12						; size = 12
??1ioChainWeapon@@UAE@XZ PROC				; ioChainWeapon::~ioChainWeapon, COMDAT
; _this$ = ecx

; 34   : {

  00000	6a 08		 push	 8
  00002	b8 00 00 00 00	 mov	 eax, __ehhandler$??1ioChainWeapon@@UAE@XZ
  00007	e8 00 00 00 00	 call	 __EH_prolog3
  0000c	8b f1		 mov	 esi, ecx
  0000e	89 75 f0	 mov	 DWORD PTR _this$[ebp], esi
  00011	c7 06 00 00 00
	00		 mov	 DWORD PTR [esi], OFFSET ??_7ioChainWeapon@@6B@

; 35   : 	if( m_pFireBall )

  00017	83 be 94 08 00
	00 00		 cmp	 DWORD PTR [esi+2196], 0
  0001e	c7 45 fc 09 00
	00 00		 mov	 DWORD PTR __$EHRec$[ebp+8], 9
  00025	74 16		 je	 SHORT $LN1@ioChainWea

; 36   : 	{
; 37   : 		LOG.PrintTimeAndLog( 0, "ioMissileWeapon::~ioMissileWeapon - UnReleased Resouce" );

  00027	68 00 00 00 00	 push	 OFFSET ??_C@_0DH@MBJCOOCD@ioMissileWeapon?3?3?$HOioMissileWeapo@
  0002c	6a 00		 push	 0
  0002e	ff 35 00 00 00
	00		 push	 DWORD PTR __imp_?LOG@@3VCLog@@A
  00034	ff 15 00 00 00
	00		 call	 DWORD PTR __imp_?PrintTimeAndLog@CLog@@QAAXHPADZZ
  0003a	83 c4 0c	 add	 esp, 12			; 0000000cH
$LN1@ioChainWea:

; 38   : 	}
; 39   : 
; 40   : 	m_vChainInfoList.clear();

  0003d	8b 86 24 0a 00
	00		 mov	 eax, DWORD PTR [esi+2596]
  00043	8b 8e 20 0a 00
	00		 mov	 ecx, DWORD PTR [esi+2592]
  00049	50		 push	 eax
  0004a	51		 push	 ecx
  0004b	8d 45 ec	 lea	 eax, DWORD PTR $T529527[ebp]
  0004e	50		 push	 eax
  0004f	8d 8e 20 0a 00
	00		 lea	 ecx, DWORD PTR [esi+2592]
  00055	e8 00 00 00 00	 call	 ?erase@?$vector@UChainInfo@ioChainWeapon@@V?$allocator@UChainInfo@ioChainWeapon@@@std@@@std@@QAE?AV?$_Vector_iterator@V?$_Vector_val@UChainInfo@ioChainWeapon@@V?$allocator@UChainInfo@ioChainWeapon@@@std@@@std@@@2@V?$_Vector_const_iterator@V?$_Vector_val@UChainInfo@ioChainWeapon@@V?$allocator@UChainInfo@ioChainWeapon@@@std@@@std@@@2@0@Z ; std::vector<ioChainWeapon::ChainInfo,std::allocator<ioChainWeapon::ChainInfo> >::erase

; 41   : }

  0005a	8d 8e 20 0a 00
	00		 lea	 ecx, DWORD PTR [esi+2592]
  00060	c6 45 fc 08	 mov	 BYTE PTR __$EHRec$[ebp+8], 8
  00064	e8 00 00 00 00	 call	 ?_Tidy@?$vector@UChainInfo@ioChainWeapon@@V?$allocator@UChainInfo@ioChainWeapon@@@std@@@std@@IAEXXZ ; std::vector<ioChainWeapon::ChainInfo,std::allocator<ioChainWeapon::ChainInfo> >::_Tidy
  00069	bb 00 00 00 00	 mov	 ebx, OFFSET ??_7?$CEncrypt@_N@@6B@
  0006e	8d 8e f4 09 00
	00		 lea	 ecx, DWORD PTR [esi+2548]
  00074	c6 45 fc 07	 mov	 BYTE PTR __$EHRec$[ebp+8], 7
  00078	89 9e e8 09 00
	00		 mov	 DWORD PTR [esi+2536], ebx
  0007e	e8 00 00 00 00	 call	 ??1ccddaabb@@UAE@XZ	; ccddaabb::~ccddaabb
  00083	bf 00 00 00 00	 mov	 edi, OFFSET ??_7?$CEncrypt@M@@6B@
  00088	8d 8e c4 09 00
	00		 lea	 ecx, DWORD PTR [esi+2500]
  0008e	c6 45 fc 06	 mov	 BYTE PTR __$EHRec$[ebp+8], 6
  00092	89 be b8 09 00
	00		 mov	 DWORD PTR [esi+2488], edi
  00098	e8 00 00 00 00	 call	 ??1ccddaabb@@UAE@XZ	; ccddaabb::~ccddaabb
  0009d	8d 8e a8 09 00
	00		 lea	 ecx, DWORD PTR [esi+2472]
  000a3	c6 45 fc 05	 mov	 BYTE PTR __$EHRec$[ebp+8], 5
  000a7	e8 00 00 00 00	 call	 ?_Tidy@?$vector@HV?$allocator@H@std@@@std@@IAEXXZ ; std::vector<int,std::allocator<int> >::_Tidy
  000ac	8d 8e 84 09 00
	00		 lea	 ecx, DWORD PTR [esi+2436]
  000b2	c6 45 fc 04	 mov	 BYTE PTR __$EHRec$[ebp+8], 4
  000b6	89 9e 78 09 00
	00		 mov	 DWORD PTR [esi+2424], ebx
  000bc	e8 00 00 00 00	 call	 ??1ccddaabb@@UAE@XZ	; ccddaabb::~ccddaabb
  000c1	8d 8e 54 09 00
	00		 lea	 ecx, DWORD PTR [esi+2388]
  000c7	c6 45 fc 03	 mov	 BYTE PTR __$EHRec$[ebp+8], 3
  000cb	89 be 48 09 00
	00		 mov	 DWORD PTR [esi+2376], edi
  000d1	e8 00 00 00 00	 call	 ??1ccddaabb@@UAE@XZ	; ccddaabb::~ccddaabb
  000d6	8d 8e 24 09 00
	00		 lea	 ecx, DWORD PTR [esi+2340]
  000dc	c6 45 fc 02	 mov	 BYTE PTR __$EHRec$[ebp+8], 2
  000e0	89 be 18 09 00
	00		 mov	 DWORD PTR [esi+2328], edi
  000e6	e8 00 00 00 00	 call	 ??1ccddaabb@@UAE@XZ	; ccddaabb::~ccddaabb
  000eb	bf 00 00 00 00	 mov	 edi, OFFSET ??_7?$CEncrypt@H@@6B@
  000f0	8d 8e f4 08 00
	00		 lea	 ecx, DWORD PTR [esi+2292]
  000f6	c6 45 fc 01	 mov	 BYTE PTR __$EHRec$[ebp+8], 1
  000fa	89 be e8 08 00
	00		 mov	 DWORD PTR [esi+2280], edi
  00100	e8 00 00 00 00	 call	 ??1ccddaabb@@UAE@XZ	; ccddaabb::~ccddaabb
  00105	8d 8e c4 08 00
	00		 lea	 ecx, DWORD PTR [esi+2244]
  0010b	c6 45 fc 00	 mov	 BYTE PTR __$EHRec$[ebp+8], 0
  0010f	89 be b8 08 00
	00		 mov	 DWORD PTR [esi+2232], edi
  00115	e8 00 00 00 00	 call	 ??1ccddaabb@@UAE@XZ	; ccddaabb::~ccddaabb
  0011a	83 4d fc ff	 or	 DWORD PTR __$EHRec$[ebp+8], -1
  0011e	8b ce		 mov	 ecx, esi
  00120	e8 00 00 00 00	 call	 ??1ioWeapon@@UAE@XZ	; ioWeapon::~ioWeapon
  00125	e8 00 00 00 00	 call	 __EH_epilog3
  0012a	c3		 ret	 0
_TEXT	ENDS
;	COMDAT text$x
text$x	SEGMENT
__unwindfunclet$??1ioChainWeapon@@UAE@XZ$0:
  00000	8b 4d f0	 mov	 ecx, DWORD PTR _this$[ebp]
  00003	e9 00 00 00 00	 jmp	 ??1ioWeapon@@UAE@XZ	; ioWeapon::~ioWeapon
__unwindfunclet$??1ioChainWeapon@@UAE@XZ$1:
  00008	8b 4d f0	 mov	 ecx, DWORD PTR _this$[ebp]
  0000b	81 c1 b8 08 00
	00		 add	 ecx, 2232		; 000008b8H
  00011	e9 00 00 00 00	 jmp	 ??1?$CEncrypt@H@@UAE@XZ	; CEncrypt<int>::~CEncrypt<int>
__unwindfunclet$??1ioChainWeapon@@UAE@XZ$2:
  00016	8b 4d f0	 mov	 ecx, DWORD PTR _this$[ebp]
  00019	81 c1 e8 08 00
	00		 add	 ecx, 2280		; 000008e8H
  0001f	e9 00 00 00 00	 jmp	 ??1?$CEncrypt@H@@UAE@XZ	; CEncrypt<int>::~CEncrypt<int>
__unwindfunclet$??1ioChainWeapon@@UAE@XZ$3:
  00024	8b 4d f0	 mov	 ecx, DWORD PTR _this$[ebp]
  00027	81 c1 18 09 00
	00		 add	 ecx, 2328		; 00000918H
  0002d	e9 00 00 00 00	 jmp	 ??1?$CEncrypt@M@@UAE@XZ	; CEncrypt<float>::~CEncrypt<float>
__unwindfunclet$??1ioChainWeapon@@UAE@XZ$4:
  00032	8b 4d f0	 mov	 ecx, DWORD PTR _this$[ebp]
  00035	81 c1 48 09 00
	00		 add	 ecx, 2376		; 00000948H
  0003b	e9 00 00 00 00	 jmp	 ??1?$CEncrypt@M@@UAE@XZ	; CEncrypt<float>::~CEncrypt<float>
__unwindfunclet$??1ioChainWeapon@@UAE@XZ$5:
  00040	8b 4d f0	 mov	 ecx, DWORD PTR _this$[ebp]
  00043	81 c1 78 09 00
	00		 add	 ecx, 2424		; 00000978H
  00049	e9 00 00 00 00	 jmp	 ??1?$CEncrypt@_N@@UAE@XZ ; CEncrypt<bool>::~CEncrypt<bool>
__unwindfunclet$??1ioChainWeapon@@UAE@XZ$6:
  0004e	8b 4d f0	 mov	 ecx, DWORD PTR _this$[ebp]
  00051	81 c1 a8 09 00
	00		 add	 ecx, 2472		; 000009a8H
  00057	e9 00 00 00 00	 jmp	 ??1?$vector@HV?$allocator@H@std@@@std@@QAE@XZ ; std::vector<int,std::allocator<int> >::~vector<int,std::allocator<int> >
__unwindfunclet$??1ioChainWeapon@@UAE@XZ$7:
  0005c	8b 4d f0	 mov	 ecx, DWORD PTR _this$[ebp]
  0005f	81 c1 b8 09 00
	00		 add	 ecx, 2488		; 000009b8H
  00065	e9 00 00 00 00	 jmp	 ??1?$CEncrypt@M@@UAE@XZ	; CEncrypt<float>::~CEncrypt<float>
__unwindfunclet$??1ioChainWeapon@@UAE@XZ$8:
  0006a	8b 4d f0	 mov	 ecx, DWORD PTR _this$[ebp]
  0006d	81 c1 e8 09 00
	00		 add	 ecx, 2536		; 000009e8H
  00073	e9 00 00 00 00	 jmp	 ??1?$CEncrypt@_N@@UAE@XZ ; CEncrypt<bool>::~CEncrypt<bool>
__unwindfunclet$??1ioChainWeapon@@UAE@XZ$9:
  00078	8b 4d f0	 mov	 ecx, DWORD PTR _this$[ebp]
  0007b	81 c1 20 0a 00
	00		 add	 ecx, 2592		; 00000a20H
  00081	e9 00 00 00 00	 jmp	 ??1?$vector@UChainInfo@ioChainWeapon@@V?$allocator@UChainInfo@ioChainWeapon@@@std@@@std@@QAE@XZ ; std::vector<ioChainWeapon::ChainInfo,std::allocator<ioChainWeapon::ChainInfo> >::~vector<ioChainWeapon::ChainInfo,std::allocator<ioChainWeapon::ChainInfo> >
__ehhandler$??1ioChainWeapon@@UAE@XZ:
  00086	8b 54 24 08	 mov	 edx, DWORD PTR [esp+8]
  0008a	8d 42 0c	 lea	 eax, DWORD PTR [edx+12]
  0008d	8b 4a e8	 mov	 ecx, DWORD PTR [edx-24]
  00090	33 c8		 xor	 ecx, eax
  00092	e8 00 00 00 00	 call	 @__security_check_cookie@4
  00097	b8 00 00 00 00	 mov	 eax, OFFSET __ehfuncinfo$??1ioChainWeapon@@UAE@XZ
  0009c	e9 00 00 00 00	 jmp	 ___CxxFrameHandler3
text$x	ENDS
??1ioChainWeapon@@UAE@XZ ENDP				; ioChainWeapon::~ioChainWeapon
PUBLIC	__$ArrayPad$
EXTRN	__imp__wsprintfA:PROC
EXTRN	?LoadProperty@ioWeapon@@UAEXAAVioINILoader@@@Z:PROC ; ioWeapon::LoadProperty
; Function compile flags: /Ogsp
;	COMDAT ?LoadProperty@ioChainWeapon@@UAEXAAVioINILoader@@@Z
_TEXT	SEGMENT
_value$530381 = -588					; size = 4
$T530063 = -588						; size = 4
$T529607 = -588						; size = 4
_fSpeed$524341 = -588					; size = 4
tv7989 = -584						; size = 4
tv6756 = -584						; size = 4
_i$530244 = -584					; size = 4
_value$530089 = -580					; size = 4
_value$530085 = -580					; size = 4
_value$530000 = -580					; size = 4
_value$529996 = -580					; size = 4
_value$529866 = -580					; size = 4
_iCnt$ = -580						; size = 4
_value$530512 = -573					; size = 1
_value$529736 = -573					; size = 1
_szKey$ = -572						; size = 260
_szBuf$ = -312						; size = 260
__k$529883 = -52					; size = 14
__k$529753 = -52					; size = 12
_kInfo$524495 = -44					; size = 8
__k$530269 = -32					; size = 22
__k$530132 = -32					; size = 19
__k$529707 = -32					; size = 20
__k$530399 = -28					; size = 17
___encStr$524509 = -28					; size = 15
___encStr$524345 = -24					; size = 14
___encStr$524191 = -24					; size = 14
__$ArrayPad$ = -4					; size = 4
_rkLoader$ = 8						; size = 4
?LoadProperty@ioChainWeapon@@UAEXAAVioINILoader@@@Z PROC ; ioChainWeapon::LoadProperty, COMDAT
; _this$ = ecx

; 55   : {

  00000	55		 push	 ebp
  00001	8b ec		 mov	 ebp, esp
  00003	81 ec 4c 02 00
	00		 sub	 esp, 588		; 0000024cH
  00009	a1 00 00 00 00	 mov	 eax, DWORD PTR ___security_cookie
  0000e	33 c5		 xor	 eax, ebp
  00010	89 45 fc	 mov	 DWORD PTR __$ArrayPad$[ebp], eax
  00013	53		 push	 ebx
  00014	56		 push	 esi
  00015	57		 push	 edi
  00016	8b 7d 08	 mov	 edi, DWORD PTR _rkLoader$[ebp]

; 56   : 	ioWeapon::LoadProperty( rkLoader );

  00019	57		 push	 edi
  0001a	8b f1		 mov	 esi, ecx
  0001c	e8 00 00 00 00	 call	 ?LoadProperty@ioWeapon@@UAEXAAVioINILoader@@@Z ; ioWeapon::LoadProperty

; 57   : 
; 58   : 	char szBuf[MAX_PATH], szKey[MAX_PATH];
; 59   : 
; 60   : 	m_bDisableDownTarget = rkLoader.LoadBool_e( "disable_down_target", false );

  00021	6a 04		 push	 4
  00023	c7 45 e0 89 85
	98 8b		 mov	 DWORD PTR __k$529707[ebp], -1952938615 ; 8b988589H
  0002a	c7 45 e4 8f 80
	8e b5		 mov	 DWORD PTR __k$529707[ebp+4], -1248952177 ; b58e808fH
  00031	c7 45 e8 89 83
	9c 84		 mov	 DWORD PTR __k$529707[ebp+8], -2070117495 ; 849c8389H
  00038	c7 45 ec b2 98
	8a 98		 mov	 DWORD PTR __k$529707[ebp+12], -1735747406 ; 988a98b2H
  0003f	8d 45 e0	 lea	 eax, DWORD PTR __k$529707[ebp]
  00042	33 db		 xor	 ebx, ebx
  00044	c7 45 f0 8a 89
	9f 00		 mov	 DWORD PTR __k$529707[ebp+16], 10455434 ; 009f898aH
  0004b	59		 pop	 ecx
$LL410@LoadProper:
  0004c	81 30 ed ec eb
	ea		 xor	 DWORD PTR [eax], -353637139 ; eaebecedH
  00052	83 c0 04	 add	 eax, 4
  00055	49		 dec	 ecx
  00056	75 f4		 jne	 SHORT $LL410@LoadProper
  00058	6a 10		 push	 16			; 00000010H
  0005a	58		 pop	 eax
$LL407@LoadProper:
  0005b	8b c8		 mov	 ecx, eax
  0005d	81 e1 03 00 00
	80		 and	 ecx, -2147483645	; 80000003H
  00063	79 05		 jns	 SHORT $LN1046@LoadProper
  00065	49		 dec	 ecx
  00066	83 c9 fc	 or	 ecx, -4			; fffffffcH
  00069	41		 inc	 ecx
$LN1046@LoadProper:
  0006a	b2 ed		 mov	 dl, -19			; ffffffedH
  0006c	2a d1		 sub	 dl, cl
  0006e	30 54 05 e0	 xor	 BYTE PTR __k$529707[ebp+eax], dl
  00072	40		 inc	 eax
  00073	83 f8 13	 cmp	 eax, 19			; 00000013H
  00076	7c e3		 jl	 SHORT $LL407@LoadProper
  00078	53		 push	 ebx
  00079	8d 45 e0	 lea	 eax, DWORD PTR __k$529707[ebp]
  0007c	50		 push	 eax
  0007d	8b cf		 mov	 ecx, edi
  0007f	ff 15 00 00 00
	00		 call	 DWORD PTR __imp_?LoadBool@ioINILoader@@QAE_NPBD_N@Z
  00085	88 85 c3 fd ff
	ff		 mov	 BYTE PTR _value$529736[ebp], al
  0008b	8d 85 c3 fd ff
	ff		 lea	 eax, DWORD PTR _value$529736[ebp]
  00091	50		 push	 eax
  00092	8d 8e 78 09 00
	00		 lea	 ecx, DWORD PTR [esi+2424]
  00098	e8 00 00 00 00	 call	 ?EncryptValueToPool@?$CEncrypt@_N@@AAEXPBD@Z ; CEncrypt<bool>::EncryptValueToPool
  0009d	6a 02		 push	 2

; 61   : 	m_fChainAngle = rkLoader.LoadFloat_e( "chain_angle", 0.0f );

  0009f	c7 45 cc 8e 84
	8a 83		 mov	 DWORD PTR __k$529753[ebp], -2088074098 ; 838a848eH
  000a6	c7 45 d0 83 b3
	8a 84		 mov	 DWORD PTR __k$529753[ebp+4], -2071284861 ; 848ab383H
  000ad	8d 45 cc	 lea	 eax, DWORD PTR __k$529753[ebp]
  000b0	c7 45 d4 8a 80
	8e 00		 mov	 DWORD PTR __k$529753[ebp+8], 9339018 ; 008e808aH
  000b7	59		 pop	 ecx
$LL518@LoadProper:
  000b8	81 30 ed ec eb
	ea		 xor	 DWORD PTR [eax], -353637139 ; eaebecedH
  000be	83 c0 04	 add	 eax, 4
  000c1	49		 dec	 ecx
  000c2	75 f4		 jne	 SHORT $LL518@LoadProper
  000c4	6a 08		 push	 8
  000c6	58		 pop	 eax
$LL515@LoadProper:
  000c7	8b c8		 mov	 ecx, eax
  000c9	81 e1 03 00 00
	80		 and	 ecx, -2147483645	; 80000003H
  000cf	79 05		 jns	 SHORT $LN1047@LoadProper
  000d1	49		 dec	 ecx
  000d2	83 c9 fc	 or	 ecx, -4			; fffffffcH
  000d5	41		 inc	 ecx
$LN1047@LoadProper:
  000d6	b2 ed		 mov	 dl, -19			; ffffffedH
  000d8	2a d1		 sub	 dl, cl
  000da	30 54 05 cc	 xor	 BYTE PTR __k$529753[ebp+eax], dl
  000de	40		 inc	 eax
  000df	83 f8 0b	 cmp	 eax, 11			; 0000000bH
  000e2	7c e3		 jl	 SHORT $LL515@LoadProper
  000e4	0f 57 c0	 xorps	 xmm0, xmm0
  000e7	51		 push	 ecx
  000e8	8d 45 cc	 lea	 eax, DWORD PTR __k$529753[ebp]
  000eb	f3 0f 11 04 24	 movss	 DWORD PTR [esp], xmm0
  000f0	50		 push	 eax
  000f1	8b cf		 mov	 ecx, edi
  000f3	ff 15 00 00 00
	00		 call	 DWORD PTR __imp_?LoadFloat@ioINILoader@@QAEMPBDM@Z
  000f9	d9 9d bc fd ff
	ff		 fstp	 DWORD PTR _value$529866[ebp]
  000ff	8d 85 bc fd ff
	ff		 lea	 eax, DWORD PTR _value$529866[ebp]
  00105	50		 push	 eax
  00106	8d 8e 48 09 00
	00		 lea	 ecx, DWORD PTR [esi+2376]
  0010c	e8 00 00 00 00	 call	 ?EncryptValueToPool@?$CEncrypt@M@@AAEXPBD@Z ; CEncrypt<float>::EncryptValueToPool
  00111	6a 03		 push	 3

; 62   : 
; 63   : 	m_iMaxChainCnt = (int)rkLoader.LoadInt_e( "max_chain_cnt", 0 );

  00113	c7 45 cc 80 8d
	93 b5		 mov	 DWORD PTR __k$529883[ebp], -1248621184 ; b5938d80H
  0011a	c7 45 d0 8e 84
	8a 83		 mov	 DWORD PTR __k$529883[ebp+4], -2088074098 ; 838a848eH
  00121	c7 45 d4 83 b3
	88 84		 mov	 DWORD PTR __k$529883[ebp+8], -2071415933 ; 8488b383H
  00128	8d 45 cc	 lea	 eax, DWORD PTR __k$529883[ebp]
  0012b	66 c7 45 d8 99
	00		 mov	 WORD PTR __k$529883[ebp+12], 153 ; 00000099H
  00131	59		 pop	 ecx
$LL626@LoadProper:
  00132	81 30 ed ec eb
	ea		 xor	 DWORD PTR [eax], -353637139 ; eaebecedH
  00138	83 c0 04	 add	 eax, 4
  0013b	49		 dec	 ecx
  0013c	75 f4		 jne	 SHORT $LL626@LoadProper
  0013e	80 75 d8 ed	 xor	 BYTE PTR __k$529883[ebp+12], -19 ; ffffffedH
  00142	53		 push	 ebx
  00143	8d 45 cc	 lea	 eax, DWORD PTR __k$529883[ebp]
  00146	50		 push	 eax
  00147	8b cf		 mov	 ecx, edi
  00149	ff 15 00 00 00
	00		 call	 DWORD PTR __imp_?LoadInt@ioINILoader@@QAEHPBDH@Z
  0014f	89 85 bc fd ff
	ff		 mov	 DWORD PTR _value$529996[ebp], eax
  00155	8d 85 bc fd ff
	ff		 lea	 eax, DWORD PTR _value$529996[ebp]
  0015b	8d 8e b8 08 00
	00		 lea	 ecx, DWORD PTR [esi+2232]
  00161	50		 push	 eax
  00162	e8 00 00 00 00	 call	 ?EncryptValueToPool@?$CEncrypt@H@@AAEXPBD@Z ; CEncrypt<int>::EncryptValueToPool

; 64   : 
; 65   : 	if( m_iMaxChainCnt <= 0 ) return;

  00167	8d 85 bc fd ff
	ff		 lea	 eax, DWORD PTR _value$530000[ebp]
  0016d	50		 push	 eax
  0016e	8d 8e b8 08 00
	00		 lea	 ecx, DWORD PTR [esi+2232]
  00174	e8 00 00 00 00	 call	 ?DecryptValueToPool@?$CEncrypt@H@@QAEXPAH@Z ; CEncrypt<int>::DecryptValueToPool
  00179	39 9d bc fd ff
	ff		 cmp	 DWORD PTR _value$530000[ebp], ebx
  0017f	0f 8e 7f 03 00
	00		 jle	 $LN1001@LoadProper

; 66   : 
; 67   : 	m_vChainInfoList.clear();

  00185	8d 8e 20 0a 00
	00		 lea	 ecx, DWORD PTR [esi+2592]
  0018b	8b 41 04	 mov	 eax, DWORD PTR [ecx+4]
  0018e	8b 11		 mov	 edx, DWORD PTR [ecx]
  00190	50		 push	 eax
  00191	52		 push	 edx
  00192	8d 85 b4 fd ff
	ff		 lea	 eax, DWORD PTR $T530063[ebp]
  00198	50		 push	 eax
  00199	e8 00 00 00 00	 call	 ?erase@?$vector@UChainInfo@ioChainWeapon@@V?$allocator@UChainInfo@ioChainWeapon@@@std@@@std@@QAE?AV?$_Vector_iterator@V?$_Vector_val@UChainInfo@ioChainWeapon@@V?$allocator@UChainInfo@ioChainWeapon@@@std@@@std@@@2@V?$_Vector_const_iterator@V?$_Vector_val@UChainInfo@ioChainWeapon@@V?$allocator@UChainInfo@ioChainWeapon@@@std@@@std@@@2@0@Z ; std::vector<ioChainWeapon::ChainInfo,std::allocator<ioChainWeapon::ChainInfo> >::erase

; 68   : 	m_vChainInfoList.reserve( m_iMaxChainCnt );

  0019e	8d 85 bc fd ff
	ff		 lea	 eax, DWORD PTR _value$530085[ebp]
  001a4	50		 push	 eax
  001a5	8d 8e b8 08 00
	00		 lea	 ecx, DWORD PTR [esi+2232]
  001ab	e8 00 00 00 00	 call	 ?DecryptValueToPool@?$CEncrypt@H@@QAEXPAH@Z ; CEncrypt<int>::DecryptValueToPool
  001b0	ff b5 bc fd ff
	ff		 push	 DWORD PTR _value$530085[ebp]
  001b6	8d 8e 20 0a 00
	00		 lea	 ecx, DWORD PTR [esi+2592]
  001bc	e8 00 00 00 00	 call	 ?reserve@?$vector@UChainInfo@ioChainWeapon@@V?$allocator@UChainInfo@ioChainWeapon@@@std@@@std@@QAEXI@Z ; std::vector<ioChainWeapon::ChainInfo,std::allocator<ioChainWeapon::ChainInfo> >::reserve

; 69   : 
; 70   : 	for( int i=0; i < m_iMaxChainCnt; ++i )

  001c1	8d 85 bc fd ff
	ff		 lea	 eax, DWORD PTR _value$530089[ebp]
  001c7	50		 push	 eax
  001c8	8d 8e b8 08 00
	00		 lea	 ecx, DWORD PTR [esi+2232]
  001ce	e8 00 00 00 00	 call	 ?DecryptValueToPool@?$CEncrypt@H@@QAEXPAH@Z ; CEncrypt<int>::DecryptValueToPool
  001d3	39 9d bc fd ff
	ff		 cmp	 DWORD PTR _value$530089[ebp], ebx
  001d9	0f 8e 1c 01 00
	00		 jle	 $LN301@LoadProper

; 66   : 
; 67   : 	m_vChainInfoList.clear();

  001df	c7 85 b8 fd ff
	ff 01 00 00 00	 mov	 DWORD PTR tv7989[ebp], 1
$LL1045@LoadProper:

; 69   : 
; 70   : 	for( int i=0; i < m_iMaxChainCnt; ++i )

  001e9	6a 03		 push	 3

; 71   : 	{
; 72   : 		wsprintf_e( szBuf, "chain_speed%d", i+1 );

  001eb	c7 45 e8 8e 84
	8a 83		 mov	 DWORD PTR ___encStr$524191[ebp], -2088074098 ; 838a848eH
  001f2	c7 45 ec 83 b3
	98 9a		 mov	 DWORD PTR ___encStr$524191[ebp+4], -1701268605 ; 9a98b383H
  001f9	c7 45 f0 88 89
	8f cf		 mov	 DWORD PTR ___encStr$524191[ebp+8], -812676728 ; cf8f8988H
  00200	8d 45 e8	 lea	 eax, DWORD PTR ___encStr$524191[ebp]
  00203	66 c7 45 f4 89
	00		 mov	 WORD PTR ___encStr$524191[ebp+12], 137 ; 00000089H
  00209	59		 pop	 ecx
$LL660@LoadProper:
  0020a	81 30 ed ec eb
	ea		 xor	 DWORD PTR [eax], -353637139 ; eaebecedH
  00210	83 c0 04	 add	 eax, 4
  00213	49		 dec	 ecx
  00214	75 f4		 jne	 SHORT $LL660@LoadProper
  00216	ff b5 b8 fd ff
	ff		 push	 DWORD PTR tv7989[ebp]
  0021c	80 75 f4 ed	 xor	 BYTE PTR ___encStr$524191[ebp+12], -19 ; ffffffedH
  00220	8d 45 e8	 lea	 eax, DWORD PTR ___encStr$524191[ebp]
  00223	50		 push	 eax
  00224	8d 85 c8 fe ff
	ff		 lea	 eax, DWORD PTR _szBuf$[ebp]
  0022a	50		 push	 eax
  0022b	ff 15 00 00 00
	00		 call	 DWORD PTR __imp__wsprintfA

; 73   : 		float fSpeed = rkLoader.LoadFloat( szBuf, 0.0f );

  00231	0f 57 c0	 xorps	 xmm0, xmm0
  00234	59		 pop	 ecx
  00235	59		 pop	 ecx
  00236	8d 85 c8 fe ff
	ff		 lea	 eax, DWORD PTR _szBuf$[ebp]
  0023c	f3 0f 11 04 24	 movss	 DWORD PTR [esp], xmm0
  00241	50		 push	 eax
  00242	8b cf		 mov	 ecx, edi
  00244	ff 15 00 00 00
	00		 call	 DWORD PTR __imp_?LoadFloat@ioINILoader@@QAEMPBDM@Z
  0024a	d9 9d b4 fd ff
	ff		 fstp	 DWORD PTR _fSpeed$524341[ebp]
  00250	6a 03		 push	 3

; 74   : 
; 75   : 		wsprintf_e( szBuf, "chain_range%d", i+1 );

  00252	c7 45 e8 8e 84
	8a 83		 mov	 DWORD PTR ___encStr$524345[ebp], -2088074098 ; 838a848eH
  00259	c7 45 ec 83 b3
	99 8b		 mov	 DWORD PTR ___encStr$524345[ebp+4], -1952861309 ; 8b99b383H
  00260	c7 45 f0 83 8b
	8e cf		 mov	 DWORD PTR ___encStr$524345[ebp+8], -812741757 ; cf8e8b83H
  00267	8d 45 e8	 lea	 eax, DWORD PTR ___encStr$524345[ebp]
  0026a	66 c7 45 f4 89
	00		 mov	 WORD PTR ___encStr$524345[ebp+12], 137 ; 00000089H
  00270	59		 pop	 ecx
$LL668@LoadProper:
  00271	81 30 ed ec eb
	ea		 xor	 DWORD PTR [eax], -353637139 ; eaebecedH
  00277	83 c0 04	 add	 eax, 4
  0027a	49		 dec	 ecx
  0027b	75 f4		 jne	 SHORT $LL668@LoadProper
  0027d	ff b5 b8 fd ff
	ff		 push	 DWORD PTR tv7989[ebp]
  00283	80 75 f4 ed	 xor	 BYTE PTR ___encStr$524345[ebp+12], -19 ; ffffffedH
  00287	8d 45 e8	 lea	 eax, DWORD PTR ___encStr$524345[ebp]
  0028a	50		 push	 eax
  0028b	8d 85 c8 fe ff
	ff		 lea	 eax, DWORD PTR _szBuf$[ebp]
  00291	50		 push	 eax
  00292	ff 15 00 00 00
	00		 call	 DWORD PTR __imp__wsprintfA

; 76   : 		float fRange = rkLoader.LoadFloat( szBuf, 0.0f );

  00298	0f 57 c0	 xorps	 xmm0, xmm0
  0029b	59		 pop	 ecx
  0029c	59		 pop	 ecx
  0029d	8d 85 c8 fe ff
	ff		 lea	 eax, DWORD PTR _szBuf$[ebp]
  002a3	f3 0f 11 04 24	 movss	 DWORD PTR [esp], xmm0
  002a8	50		 push	 eax
  002a9	8b cf		 mov	 ecx, edi
  002ab	ff 15 00 00 00
	00		 call	 DWORD PTR __imp_?LoadFloat@ioINILoader@@QAEMPBDM@Z

; 77   : 
; 78   : 		ChainInfo kInfo;
; 79   : 		kInfo.m_fRange = fRange;

  002b1	d9 5d d8	 fstp	 DWORD PTR _kInfo$524495[ebp+4]

; 80   : 		kInfo.m_fSpeed = fSpeed;

  002b4	f3 0f 10 85 b4
	fd ff ff	 movss	 xmm0, DWORD PTR _fSpeed$524341[ebp]

; 81   : 
; 82   : 		m_vChainInfoList.push_back( kInfo );

  002bc	8d 45 d4	 lea	 eax, DWORD PTR _kInfo$524495[ebp]
  002bf	50		 push	 eax
  002c0	8d 8e 20 0a 00
	00		 lea	 ecx, DWORD PTR [esi+2592]
  002c6	f3 0f 11 45 d4	 movss	 DWORD PTR _kInfo$524495[ebp], xmm0
  002cb	e8 00 00 00 00	 call	 ?push_back@?$vector@UChainInfo@ioChainWeapon@@V?$allocator@UChainInfo@ioChainWeapon@@@std@@@std@@QAEXABUChainInfo@ioChainWeapon@@@Z ; std::vector<ioChainWeapon::ChainInfo,std::allocator<ioChainWeapon::ChainInfo> >::push_back
  002d0	ff 85 b8 fd ff
	ff		 inc	 DWORD PTR tv7989[ebp]
  002d6	8d 85 bc fd ff
	ff		 lea	 eax, DWORD PTR _value$530089[ebp]
  002dc	50		 push	 eax
  002dd	8d 8e b8 08 00
	00		 lea	 ecx, DWORD PTR [esi+2232]
  002e3	e8 00 00 00 00	 call	 ?DecryptValueToPool@?$CEncrypt@H@@QAEXPAH@Z ; CEncrypt<int>::DecryptValueToPool
  002e8	8b 85 b8 fd ff
	ff		 mov	 eax, DWORD PTR tv7989[ebp]
  002ee	48		 dec	 eax
  002ef	3b 85 bc fd ff
	ff		 cmp	 eax, DWORD PTR _value$530089[ebp]
  002f5	0f 8c ee fe ff
	ff		 jl	 $LL1045@LoadProper
$LN301@LoadProper:

; 83   : 	}
; 84   : 
; 85   : 	int iCnt = rkLoader.LoadInt_e( "ignore_chain_count", 0 );

  002fb	6a 04		 push	 4
  002fd	c7 45 e0 84 8b
	85 85		 mov	 DWORD PTR __k$530132[ebp], -2054845564 ; 85858b84H
  00304	c7 45 e4 9f 89
	b4 89		 mov	 DWORD PTR __k$530132[ebp+4], -1984656993 ; 89b4899fH
  0030b	c7 45 e8 85 8d
	82 84		 mov	 DWORD PTR __k$530132[ebp+8], -2071818875 ; 84828d85H
  00312	c7 45 ec b2 8f
	84 9f		 mov	 DWORD PTR __k$530132[ebp+12], -1618702414 ; 9f848fb2H
  00319	66 c7 45 f0 83
	98		 mov	 WORD PTR __k$530132[ebp+16], 39043 ; 00009883H
  0031f	8d 45 e0	 lea	 eax, DWORD PTR __k$530132[ebp]
  00322	88 5d f2	 mov	 BYTE PTR __k$530132[ebp+18], bl
  00325	59		 pop	 ecx
$LL776@LoadProper:
  00326	81 30 ed ec eb
	ea		 xor	 DWORD PTR [eax], -353637139 ; eaebecedH
  0032c	83 c0 04	 add	 eax, 4
  0032f	49		 dec	 ecx
  00330	75 f4		 jne	 SHORT $LL776@LoadProper
  00332	6a 10		 push	 16			; 00000010H
  00334	58		 pop	 eax
$LL773@LoadProper:
  00335	8b c8		 mov	 ecx, eax
  00337	81 e1 03 00 00
	80		 and	 ecx, -2147483645	; 80000003H
  0033d	79 05		 jns	 SHORT $LN1048@LoadProper
  0033f	49		 dec	 ecx
  00340	83 c9 fc	 or	 ecx, -4			; fffffffcH
  00343	41		 inc	 ecx
$LN1048@LoadProper:
  00344	b2 ed		 mov	 dl, -19			; ffffffedH
  00346	2a d1		 sub	 dl, cl
  00348	30 54 05 e0	 xor	 BYTE PTR __k$530132[ebp+eax], dl
  0034c	40		 inc	 eax
  0034d	83 f8 12	 cmp	 eax, 18			; 00000012H
  00350	7c e3		 jl	 SHORT $LL773@LoadProper
  00352	53		 push	 ebx
  00353	8d 45 e0	 lea	 eax, DWORD PTR __k$530132[ebp]
  00356	50		 push	 eax
  00357	8b cf		 mov	 ecx, edi
  00359	ff 15 00 00 00
	00		 call	 DWORD PTR __imp_?LoadInt@ioINILoader@@QAEHPBDH@Z

; 86   : 	m_iIgnoreCountList.reserve( iCnt );

  0035f	8d 8e a8 09 00
	00		 lea	 ecx, DWORD PTR [esi+2472]
  00365	50		 push	 eax
  00366	89 85 bc fd ff
	ff		 mov	 DWORD PTR _iCnt$[ebp], eax
  0036c	e8 00 00 00 00	 call	 ?reserve@?$vector@HV?$allocator@H@std@@@std@@QAEXI@Z ; std::vector<int,std::allocator<int> >::reserve

; 87   : 	for( int i=0; i<iCnt; ++i )

  00371	33 c9		 xor	 ecx, ecx
  00373	39 9d bc fd ff
	ff		 cmp	 DWORD PTR _iCnt$[ebp], ebx
  00379	0f 8e c3 00 00
	00		 jle	 $LN100@LoadProper
$LL102@LoadProper:

; 83   : 	}
; 84   : 
; 85   : 	int iCnt = rkLoader.LoadInt_e( "ignore_chain_count", 0 );

  0037f	6a 03		 push	 3

; 88   : 	{
; 89   : 		wsprintf_e( szKey, "ignore_chain%d", i+1 );

  00381	c7 45 e4 84 8b
	85 85		 mov	 DWORD PTR ___encStr$524509[ebp], -2054845564 ; 85858b84H
  00388	c7 45 e8 9f 89
	b4 89		 mov	 DWORD PTR ___encStr$524509[ebp+4], -1984656993 ; 89b4899fH
  0038f	c7 45 ec 85 8d
	82 84		 mov	 DWORD PTR ___encStr$524509[ebp+8], -2071818875 ; 84828d85H
  00396	66 c7 45 f0 c8
	88		 mov	 WORD PTR ___encStr$524509[ebp+12], 35016 ; 000088c8H
  0039c	8d 45 e4	 lea	 eax, DWORD PTR ___encStr$524509[ebp]
  0039f	88 5d f2	 mov	 BYTE PTR ___encStr$524509[ebp+14], bl
  003a2	5a		 pop	 edx
$LL784@LoadProper:
  003a3	81 30 ed ec eb
	ea		 xor	 DWORD PTR [eax], -353637139 ; eaebecedH
  003a9	83 c0 04	 add	 eax, 4
  003ac	4a		 dec	 edx
  003ad	75 f4		 jne	 SHORT $LL784@LoadProper
  003af	c7 85 b8 fd ff
	ff 0c 00 00 00	 mov	 DWORD PTR _i$530244[ebp], 12 ; 0000000cH
$LL781@LoadProper:
  003b9	8b 85 b8 fd ff
	ff		 mov	 eax, DWORD PTR _i$530244[ebp]
  003bf	25 03 00 00 80	 and	 eax, -2147483645	; 80000003H
  003c4	79 05		 jns	 SHORT $LN1049@LoadProper
  003c6	48		 dec	 eax
  003c7	83 c8 fc	 or	 eax, -4			; fffffffcH
  003ca	40		 inc	 eax
$LN1049@LoadProper:
  003cb	b2 ed		 mov	 dl, -19			; ffffffedH
  003cd	2a d0		 sub	 dl, al
  003cf	8b 85 b8 fd ff
	ff		 mov	 eax, DWORD PTR _i$530244[ebp]
  003d5	30 54 05 e4	 xor	 BYTE PTR ___encStr$524509[ebp+eax], dl
  003d9	ff 85 b8 fd ff
	ff		 inc	 DWORD PTR _i$530244[ebp]
  003df	83 bd b8 fd ff
	ff 0e		 cmp	 DWORD PTR _i$530244[ebp], 14 ; 0000000eH
  003e6	7c d1		 jl	 SHORT $LL781@LoadProper
  003e8	8d 41 01	 lea	 eax, DWORD PTR [ecx+1]
  003eb	50		 push	 eax
  003ec	89 85 b8 fd ff
	ff		 mov	 DWORD PTR tv6756[ebp], eax
  003f2	8d 45 e4	 lea	 eax, DWORD PTR ___encStr$524509[ebp]
  003f5	50		 push	 eax
  003f6	8d 85 c4 fd ff
	ff		 lea	 eax, DWORD PTR _szKey$[ebp]
  003fc	50		 push	 eax
  003fd	ff 15 00 00 00
	00		 call	 DWORD PTR __imp__wsprintfA
  00403	83 c4 0c	 add	 esp, 12			; 0000000cH

; 90   : 		int iChainCount = rkLoader.LoadInt( szKey, -1 );

  00406	6a ff		 push	 -1
  00408	8d 85 c4 fd ff
	ff		 lea	 eax, DWORD PTR _szKey$[ebp]
  0040e	50		 push	 eax
  0040f	8b cf		 mov	 ecx, edi
  00411	ff 15 00 00 00
	00		 call	 DWORD PTR __imp_?LoadInt@ioINILoader@@QAEHPBDH@Z

; 91   : 		m_iIgnoreCountList.push_back( iChainCount-1 );

  00417	48		 dec	 eax
  00418	89 85 b4 fd ff
	ff		 mov	 DWORD PTR $T529607[ebp], eax
  0041e	8d 85 b4 fd ff
	ff		 lea	 eax, DWORD PTR $T529607[ebp]
  00424	50		 push	 eax
  00425	8d 8e a8 09 00
	00		 lea	 ecx, DWORD PTR [esi+2472]
  0042b	e8 00 00 00 00	 call	 ?push_back@?$vector@HV?$allocator@H@std@@@std@@QAEX$$QAH@Z ; std::vector<int,std::allocator<int> >::push_back
  00430	8b 8d b8 fd ff
	ff		 mov	 ecx, DWORD PTR tv6756[ebp]
  00436	3b 8d bc fd ff
	ff		 cmp	 ecx, DWORD PTR _iCnt$[ebp]
  0043c	0f 8c 3d ff ff
	ff		 jl	 $LL102@LoadProper
$LN100@LoadProper:

; 92   : 	}
; 93   : 	m_fLimitLengthToOwner = rkLoader.LoadFloat_e( "limit_length_to_owner", 0.0f );

  00442	6a 05		 push	 5
  00444	c7 45 e0 81 85
	86 83		 mov	 DWORD PTR __k$530269[ebp], -2088335999 ; 83868581H
  0044b	c7 45 e4 99 b3
	87 8f		 mov	 DWORD PTR __k$530269[ebp+4], -1886932071 ; 8f87b399H
  00452	c7 45 e8 83 8b
	9f 82		 mov	 DWORD PTR __k$530269[ebp+8], -2103473277 ; 829f8b83H
  00459	c7 45 ec b2 98
	84 b5		 mov	 DWORD PTR __k$530269[ebp+12], -1249601358 ; b58498b2H
  00460	c7 45 f0 82 9b
	85 8f		 mov	 DWORD PTR __k$530269[ebp+16], -1887069310 ; 8f859b82H
  00467	8d 45 e0	 lea	 eax, DWORD PTR __k$530269[ebp]
  0046a	66 c7 45 f4 9f
	00		 mov	 WORD PTR __k$530269[ebp+20], 159 ; 0000009fH
  00470	59		 pop	 ecx
$LL890@LoadProper:
  00471	81 30 ed ec eb
	ea		 xor	 DWORD PTR [eax], -353637139 ; eaebecedH
  00477	83 c0 04	 add	 eax, 4
  0047a	49		 dec	 ecx
  0047b	75 f4		 jne	 SHORT $LL890@LoadProper
  0047d	0f 57 c0	 xorps	 xmm0, xmm0
  00480	80 75 f4 ed	 xor	 BYTE PTR __k$530269[ebp+20], -19 ; ffffffedH
  00484	51		 push	 ecx
  00485	8d 45 e0	 lea	 eax, DWORD PTR __k$530269[ebp]
  00488	f3 0f 11 04 24	 movss	 DWORD PTR [esp], xmm0
  0048d	50		 push	 eax
  0048e	8b cf		 mov	 ecx, edi
  00490	ff 15 00 00 00
	00		 call	 DWORD PTR __imp_?LoadFloat@ioINILoader@@QAEMPBDM@Z
  00496	d9 9d b4 fd ff
	ff		 fstp	 DWORD PTR _value$530381[ebp]
  0049c	8d 85 b4 fd ff
	ff		 lea	 eax, DWORD PTR _value$530381[ebp]
  004a2	50		 push	 eax
  004a3	8d 8e b8 09 00
	00		 lea	 ecx, DWORD PTR [esi+2488]
  004a9	e8 00 00 00 00	 call	 ?EncryptValueToPool@?$CEncrypt@M@@AAEXPBD@Z ; CEncrypt<float>::EncryptValueToPool
  004ae	6a 04		 push	 4

; 94   : 	m_bWeaponInvisible = rkLoader.LoadBool_e( "invisible_weapon", false );

  004b0	c7 45 e4 84 82
	9d 83		 mov	 DWORD PTR __k$530399[ebp], -2086829436 ; 839d8284H
  004b7	c7 45 e8 9e 85
	89 86		 mov	 DWORD PTR __k$530399[ebp+4], -2037807714 ; 8689859eH
  004be	c7 45 ec 88 b3
	9c 8f		 mov	 DWORD PTR __k$530399[ebp+8], -1885555832 ; 8f9cb388H
  004c5	c7 45 f0 8c 9c
	84 84		 mov	 DWORD PTR __k$530399[ebp+12], -2071683956 ; 84849c8cH
  004cc	8d 45 e4	 lea	 eax, DWORD PTR __k$530399[ebp]
  004cf	88 5d f4	 mov	 BYTE PTR __k$530399[ebp+16], bl
  004d2	59		 pop	 ecx
$LL998@LoadProper:
  004d3	81 30 ed ec eb
	ea		 xor	 DWORD PTR [eax], -353637139 ; eaebecedH
  004d9	83 c0 04	 add	 eax, 4
  004dc	49		 dec	 ecx
  004dd	75 f4		 jne	 SHORT $LL998@LoadProper
  004df	53		 push	 ebx
  004e0	8d 45 e4	 lea	 eax, DWORD PTR __k$530399[ebp]
  004e3	50		 push	 eax
  004e4	8b cf		 mov	 ecx, edi
  004e6	ff 15 00 00 00
	00		 call	 DWORD PTR __imp_?LoadBool@ioINILoader@@QAE_NPBD_N@Z
  004ec	88 85 c3 fd ff
	ff		 mov	 BYTE PTR _value$530512[ebp], al
  004f2	8d 85 c3 fd ff
	ff		 lea	 eax, DWORD PTR _value$530512[ebp]
  004f8	50		 push	 eax
  004f9	8d 8e e8 09 00
	00		 lea	 ecx, DWORD PTR [esi+2536]
  004ff	e8 00 00 00 00	 call	 ?EncryptValueToPool@?$CEncrypt@_N@@AAEXPBD@Z ; CEncrypt<bool>::EncryptValueToPool
$LN1001@LoadProper:

; 95   : }

  00504	8b 4d fc	 mov	 ecx, DWORD PTR __$ArrayPad$[ebp]
  00507	5f		 pop	 edi
  00508	5e		 pop	 esi
  00509	33 cd		 xor	 ecx, ebp
  0050b	5b		 pop	 ebx
  0050c	e8 00 00 00 00	 call	 @__security_check_cookie@4
  00511	c9		 leave
  00512	c2 04 00	 ret	 4
?LoadProperty@ioChainWeapon@@UAEXAAVioINILoader@@@Z ENDP ; ioChainWeapon::LoadProperty
; Function compile flags: /Ogsp
_TEXT	ENDS
;	COMDAT ??_GioChainWeapon@@UAEPAXI@Z
_TEXT	SEGMENT
___flags$ = 8						; size = 4
??_GioChainWeapon@@UAEPAXI@Z PROC			; ioChainWeapon::`scalar deleting destructor', COMDAT
; _this$ = ecx
  00000	55		 push	 ebp
  00001	8b ec		 mov	 ebp, esp
  00003	56		 push	 esi
  00004	8b f1		 mov	 esi, ecx
  00006	e8 00 00 00 00	 call	 ??1ioChainWeapon@@UAE@XZ ; ioChainWeapon::~ioChainWeapon
  0000b	f6 45 08 01	 test	 BYTE PTR ___flags$[ebp], 1
  0000f	74 07		 je	 SHORT $LN1@scalar@5
  00011	56		 push	 esi
  00012	e8 00 00 00 00	 call	 ??3@YAXPAX@Z		; operator delete
  00017	59		 pop	 ecx
$LN1@scalar@5:
  00018	8b c6		 mov	 eax, esi
  0001a	5e		 pop	 esi
  0001b	5d		 pop	 ebp
  0001c	c2 04 00	 ret	 4
??_GioChainWeapon@@UAEPAXI@Z ENDP			; ioChainWeapon::`scalar deleting destructor'
_TEXT	ENDS
END
