; Listing generated by Microsoft (R) Optimizing Compiler Version 16.00.30319.01 

	TITLE	D:\Lost Saga For Developer\Youtube\Tutorial\Source\src\LSClient\ioChangeSoldierBuff.cpp
	.686P
	.XMM
	include listing.inc
	.model	flat

INCLUDELIB MSVCRT
INCLUDELIB OLDNAMES

PUBLIC	?GetBlowStopMotionState@ioBaseChar@@QBE_NXZ	; ioBaseChar::GetBlowStopMotionState
; Function compile flags: /Ogsp
; File d:\lost saga for developer\youtube\tutorial\source\src\lsclient\iobasechar.h
;	COMDAT ?GetBlowStopMotionState@ioBaseChar@@QBE_NXZ
_TEXT	SEGMENT
?GetBlowStopMotionState@ioBaseChar@@QBE_NXZ PROC	; ioBaseChar::GetBlowStopMotionState, COMDAT
; _this$ = ecx

; 1566 : 	inline bool GetBlowStopMotionState() const { return m_bBlowStopMotion; }

  00000	8a 81 c7 15 00
	00		 mov	 al, BYTE PTR [ecx+5575]
  00006	c3		 ret	 0
?GetBlowStopMotionState@ioBaseChar@@QBE_NXZ ENDP	; ioBaseChar::GetBlowStopMotionState
_TEXT	ENDS
PUBLIC	?GetBlowFrozenState@ioBaseChar@@QBE_NXZ		; ioBaseChar::GetBlowFrozenState
; Function compile flags: /Ogsp
;	COMDAT ?GetBlowFrozenState@ioBaseChar@@QBE_NXZ
_TEXT	SEGMENT
?GetBlowFrozenState@ioBaseChar@@QBE_NXZ PROC		; ioBaseChar::GetBlowFrozenState, COMDAT
; _this$ = ecx

; 1571 : 	inline bool GetBlowFrozenState() const { return m_bBlowFrozenState; }

  00000	8a 81 c5 15 00
	00		 mov	 al, BYTE PTR [ecx+5573]
  00006	c3		 ret	 0
?GetBlowFrozenState@ioBaseChar@@QBE_NXZ ENDP		; ioBaseChar::GetBlowFrozenState
_TEXT	ENDS
PUBLIC	?GetState@ioBaseChar@@QBE?AW4CharState@@XZ	; ioBaseChar::GetState
; Function compile flags: /Ogsp
;	COMDAT ?GetState@ioBaseChar@@QBE?AW4CharState@@XZ
_TEXT	SEGMENT
?GetState@ioBaseChar@@QBE?AW4CharState@@XZ PROC		; ioBaseChar::GetState, COMDAT
; _this$ = ecx

; 2156 : 	inline CharState GetState() const { return m_CharState; }	

  00000	8a 81 10 03 00
	00		 mov	 al, BYTE PTR [ecx+784]
  00006	c3		 ret	 0
?GetState@ioBaseChar@@QBE?AW4CharState@@XZ ENDP		; ioBaseChar::GetState
_TEXT	ENDS
PUBLIC	?GetUsedBuffFlyJump@ioBaseChar@@QBEHXZ		; ioBaseChar::GetUsedBuffFlyJump
; Function compile flags: /Ogsp
;	COMDAT ?GetUsedBuffFlyJump@ioBaseChar@@QBEHXZ
_TEXT	SEGMENT
?GetUsedBuffFlyJump@ioBaseChar@@QBEHXZ PROC		; ioBaseChar::GetUsedBuffFlyJump, COMDAT
; _this$ = ecx

; 2623 : 	inline int GetUsedBuffFlyJump() const { return m_UsedBuffFlyJump; }

  00000	8b 81 b0 0e 00
	00		 mov	 eax, DWORD PTR [ecx+3760]
  00006	c3		 ret	 0
?GetUsedBuffFlyJump@ioBaseChar@@QBEHXZ ENDP		; ioBaseChar::GetUsedBuffFlyJump
_TEXT	ENDS
PUBLIC	??_7ioChangeSoldierBuff@@6B@			; ioChangeSoldierBuff::`vftable'
PUBLIC	??0ioChangeSoldierBuff@@QAE@XZ			; ioChangeSoldierBuff::ioChangeSoldierBuff
PUBLIC	??_R4ioChangeSoldierBuff@@6B@			; ioChangeSoldierBuff::`RTTI Complete Object Locator'
PUBLIC	??_R0?AVioChangeSoldierBuff@@@8			; ioChangeSoldierBuff `RTTI Type Descriptor'
PUBLIC	??_R3ioChangeSoldierBuff@@8			; ioChangeSoldierBuff::`RTTI Class Hierarchy Descriptor'
PUBLIC	??_R2ioChangeSoldierBuff@@8			; ioChangeSoldierBuff::`RTTI Base Class Array'
PUBLIC	??_R1A@?0A@EA@ioChangeSoldierBuff@@8		; ioChangeSoldierBuff::`RTTI Base Class Descriptor at (0,-1,0,64)'
PUBLIC	??_R1A@?0A@EA@ioBuff@@8				; ioBuff::`RTTI Base Class Descriptor at (0,-1,0,64)'
PUBLIC	??_R0?AVioBuff@@@8				; ioBuff `RTTI Type Descriptor'
PUBLIC	??_R3ioBuff@@8					; ioBuff::`RTTI Class Hierarchy Descriptor'
PUBLIC	??_R2ioBuff@@8					; ioBuff::`RTTI Base Class Array'
PUBLIC	?LoadProperty@ioChangeSoldierBuff@@UAEXAAVioINILoader@@@Z ; ioChangeSoldierBuff::LoadProperty
PUBLIC	?Clone@ioChangeSoldierBuff@@UAEPAVioBuff@@XZ	; ioChangeSoldierBuff::Clone
PUBLIC	?StartBuff@ioChangeSoldierBuff@@UAEXPAVioBaseChar@@@Z ; ioChangeSoldierBuff::StartBuff
PUBLIC	?ApplyStartBuff@ioChangeSoldierBuff@@UAE_NPAVioBaseChar@@KK@Z ; ioChangeSoldierBuff::ApplyStartBuff
PUBLIC	?ProcessBuff@ioChangeSoldierBuff@@UAEXM@Z	; ioChangeSoldierBuff::ProcessBuff
PUBLIC	?EndBuff@ioChangeSoldierBuff@@UAEXXZ		; ioChangeSoldierBuff::EndBuff
PUBLIC	?IsWaitSelfRemove@ioBuff@@UAE_NXZ		; ioBuff::IsWaitSelfRemove
EXTRN	??1ioBuff@@UAE@XZ:PROC				; ioBuff::~ioBuff
EXTRN	__imp_??0ioHashString@@QAE@XZ:PROC
EXTRN	??0ioBuff@@QAE@XZ:PROC				; ioBuff::ioBuff
EXTRN	___CxxFrameHandler3:PROC
EXTRN	@__security_check_cookie@4:PROC
EXTRN	__EH_epilog3:PROC
EXTRN	__EH_prolog3:PROC
EXTRN	??_7type_info@@6B@:QWORD			; type_info::`vftable'
EXTRN	?StartBuffWithAniTime@ioBuff@@UAEXPAVioBaseChar@@K@Z:PROC ; ioBuff::StartBuffWithAniTime
EXTRN	?CancelBuff@ioBuff@@UAEXXZ:PROC			; ioBuff::CancelBuff
EXTRN	?GetBuffInfo@ioBuff@@UAEXAAVSP2Packet@@@Z:PROC	; ioBuff::GetBuffInfo
EXTRN	?ApplyBuffInfo@ioBuff@@UAEXAAVSP2Packet@@@Z:PROC ; ioBuff::ApplyBuffInfo
EXTRN	?AccumulateBuff@ioBuff@@UAEXXZ:PROC		; ioBuff::AccumulateBuff
EXTRN	?IsLiveButStopped@ioBuff@@UBE_NXZ:PROC		; ioBuff::IsLiveButStopped
EXTRN	?IsCanJumpAttack@ioBuff@@UBE_NXZ:PROC		; ioBuff::IsCanJumpAttack
EXTRN	?SetAction@ioBuff@@MAEXXZ:PROC			; ioBuff::SetAction
EXTRN	?ProcessDelay@ioBuff@@MAEXM@Z:PROC		; ioBuff::ProcessDelay
EXTRN	?SetExtraDurationByGrowth@ioBuff@@UAEXM@Z:PROC	; ioBuff::SetExtraDurationByGrowth
EXTRN	?SetWeaponIndex@ioBuff@@UAEXK@Z:PROC		; ioBuff::SetWeaponIndex
EXTRN	?OnReduceGauge@ioBuff@@UBE_NXZ:PROC		; ioBuff::OnReduceGauge
EXTRN	?IsCharCollisionSkip@ioBuff@@UBE_NXZ:PROC	; ioBuff::IsCharCollisionSkip
EXTRN	?IsCollisionAvailableWeapon@ioBuff@@UBE_NXZ:PROC ; ioBuff::IsCollisionAvailableWeapon
EXTRN	?IsProtected@ioBuff@@UBE_NXZ:PROC		; ioBuff::IsProtected
EXTRN	?UseActiveCount@ioBuff@@UBE_NXZ:PROC		; ioBuff::UseActiveCount
EXTRN	?CheckActiveCount@ioBuff@@UAEXXZ:PROC		; ioBuff::CheckActiveCount
EXTRN	?CheckRemoveEquipSkillBuff@ioBuff@@UAEX_N@Z:PROC ; ioBuff::CheckRemoveEquipSkillBuff
EXTRN	?ApplyExtraBuffInfo@ioBuff@@UAEXAAVSP2Packet@@@Z:PROC ; ioBuff::ApplyExtraBuffInfo
EXTRN	?SetBuffGrapplingState@ioBuff@@UAE_NPAVioBaseChar@@ABVioHashString@@@Z:PROC ; ioBuff::SetBuffGrapplingState
EXTRN	?GetGrapplingTargetPos@ioBuff@@UAE?AUD3DXVECTOR3@@PAVioBaseChar@@@Z:PROC ; ioBuff::GetGrapplingTargetPos
EXTRN	??_EioChangeSoldierBuff@@UAEPAXI@Z:PROC		; ioChangeSoldierBuff::`vector deleting destructor'
;	COMDAT ??_R2ioBuff@@8
; File d:\lost saga for developer\youtube\tutorial\source\src\lsclient\iochangesoldierbuff.cpp
rdata$r	SEGMENT
??_R2ioBuff@@8 DD FLAT:??_R1A@?0A@EA@ioBuff@@8		; ioBuff::`RTTI Base Class Array'
rdata$r	ENDS
;	COMDAT ??_R3ioBuff@@8
rdata$r	SEGMENT
??_R3ioBuff@@8 DD 00H					; ioBuff::`RTTI Class Hierarchy Descriptor'
	DD	00H
	DD	01H
	DD	FLAT:??_R2ioBuff@@8
rdata$r	ENDS
;	COMDAT ??_R0?AVioBuff@@@8
_DATA	SEGMENT
??_R0?AVioBuff@@@8 DD FLAT:??_7type_info@@6B@		; ioBuff `RTTI Type Descriptor'
	DD	00H
	DB	'.?AVioBuff@@', 00H
_DATA	ENDS
;	COMDAT ??_R1A@?0A@EA@ioBuff@@8
rdata$r	SEGMENT
??_R1A@?0A@EA@ioBuff@@8 DD FLAT:??_R0?AVioBuff@@@8	; ioBuff::`RTTI Base Class Descriptor at (0,-1,0,64)'
	DD	00H
	DD	00H
	DD	0ffffffffH
	DD	00H
	DD	040H
	DD	FLAT:??_R3ioBuff@@8
rdata$r	ENDS
;	COMDAT ??_R1A@?0A@EA@ioChangeSoldierBuff@@8
rdata$r	SEGMENT
??_R1A@?0A@EA@ioChangeSoldierBuff@@8 DD FLAT:??_R0?AVioChangeSoldierBuff@@@8 ; ioChangeSoldierBuff::`RTTI Base Class Descriptor at (0,-1,0,64)'
	DD	01H
	DD	00H
	DD	0ffffffffH
	DD	00H
	DD	040H
	DD	FLAT:??_R3ioChangeSoldierBuff@@8
rdata$r	ENDS
;	COMDAT ??_R2ioChangeSoldierBuff@@8
rdata$r	SEGMENT
??_R2ioChangeSoldierBuff@@8 DD FLAT:??_R1A@?0A@EA@ioChangeSoldierBuff@@8 ; ioChangeSoldierBuff::`RTTI Base Class Array'
	DD	FLAT:??_R1A@?0A@EA@ioBuff@@8
rdata$r	ENDS
;	COMDAT ??_R3ioChangeSoldierBuff@@8
rdata$r	SEGMENT
??_R3ioChangeSoldierBuff@@8 DD 00H			; ioChangeSoldierBuff::`RTTI Class Hierarchy Descriptor'
	DD	00H
	DD	02H
	DD	FLAT:??_R2ioChangeSoldierBuff@@8
rdata$r	ENDS
;	COMDAT ??_R0?AVioChangeSoldierBuff@@@8
_DATA	SEGMENT
??_R0?AVioChangeSoldierBuff@@@8 DD FLAT:??_7type_info@@6B@ ; ioChangeSoldierBuff `RTTI Type Descriptor'
	DD	00H
	DB	'.?AVioChangeSoldierBuff@@', 00H
_DATA	ENDS
;	COMDAT ??_R4ioChangeSoldierBuff@@6B@
rdata$r	SEGMENT
??_R4ioChangeSoldierBuff@@6B@ DD 00H			; ioChangeSoldierBuff::`RTTI Complete Object Locator'
	DD	00H
	DD	00H
	DD	FLAT:??_R0?AVioChangeSoldierBuff@@@8
	DD	FLAT:??_R3ioChangeSoldierBuff@@8
rdata$r	ENDS
;	COMDAT ??_7ioChangeSoldierBuff@@6B@
CONST	SEGMENT
??_7ioChangeSoldierBuff@@6B@ DD FLAT:??_R4ioChangeSoldierBuff@@6B@ ; ioChangeSoldierBuff::`vftable'
	DD	FLAT:?LoadProperty@ioChangeSoldierBuff@@UAEXAAVioINILoader@@@Z
	DD	FLAT:?Clone@ioChangeSoldierBuff@@UAEPAVioBuff@@XZ
	DD	FLAT:?StartBuff@ioChangeSoldierBuff@@UAEXPAVioBaseChar@@@Z
	DD	FLAT:?StartBuffWithAniTime@ioBuff@@UAEXPAVioBaseChar@@K@Z
	DD	FLAT:?ApplyStartBuff@ioChangeSoldierBuff@@UAE_NPAVioBaseChar@@KK@Z
	DD	FLAT:?ProcessBuff@ioChangeSoldierBuff@@UAEXM@Z
	DD	FLAT:?EndBuff@ioChangeSoldierBuff@@UAEXXZ
	DD	FLAT:?CancelBuff@ioBuff@@UAEXXZ
	DD	FLAT:?GetBuffInfo@ioBuff@@UAEXAAVSP2Packet@@@Z
	DD	FLAT:?ApplyBuffInfo@ioBuff@@UAEXAAVSP2Packet@@@Z
	DD	FLAT:?AccumulateBuff@ioBuff@@UAEXXZ
	DD	FLAT:?IsLiveButStopped@ioBuff@@UBE_NXZ
	DD	FLAT:?IsCanJumpAttack@ioBuff@@UBE_NXZ
	DD	FLAT:?SetAction@ioBuff@@MAEXXZ
	DD	FLAT:?ProcessDelay@ioBuff@@MAEXM@Z
	DD	FLAT:?SetExtraDurationByGrowth@ioBuff@@UAEXM@Z
	DD	FLAT:?SetWeaponIndex@ioBuff@@UAEXK@Z
	DD	FLAT:?OnReduceGauge@ioBuff@@UBE_NXZ
	DD	FLAT:?IsCharCollisionSkip@ioBuff@@UBE_NXZ
	DD	FLAT:?IsCollisionAvailableWeapon@ioBuff@@UBE_NXZ
	DD	FLAT:?IsProtected@ioBuff@@UBE_NXZ
	DD	FLAT:?UseActiveCount@ioBuff@@UBE_NXZ
	DD	FLAT:?CheckActiveCount@ioBuff@@UAEXXZ
	DD	FLAT:?CheckRemoveEquipSkillBuff@ioBuff@@UAEX_N@Z
	DD	FLAT:?ApplyExtraBuffInfo@ioBuff@@UAEXAAVSP2Packet@@@Z
	DD	FLAT:?SetBuffGrapplingState@ioBuff@@UAE_NPAVioBaseChar@@ABVioHashString@@@Z
	DD	FLAT:?GetGrapplingTargetPos@ioBuff@@UAE?AUD3DXVECTOR3@@PAVioBaseChar@@@Z
	DD	FLAT:?IsWaitSelfRemove@ioBuff@@UAE_NXZ
	DD	FLAT:??_EioChangeSoldierBuff@@UAEPAXI@Z
CONST	ENDS
;	COMDAT xdata$x
xdata$x	SEGMENT
__unwindtable$??0ioChangeSoldierBuff@@QAE@XZ DD 0ffffffffH
	DD	FLAT:__unwindfunclet$??0ioChangeSoldierBuff@@QAE@XZ$0
__ehfuncinfo$??0ioChangeSoldierBuff@@QAE@XZ DD 019930522H
	DD	01H
	DD	FLAT:__unwindtable$??0ioChangeSoldierBuff@@QAE@XZ
	DD	2 DUP(00H)
	DD	2 DUP(00H)
	DD	00H
	DD	01H
; Function compile flags: /Ogsp
xdata$x	ENDS
;	COMDAT ??0ioChangeSoldierBuff@@QAE@XZ
_TEXT	SEGMENT
_this$ = -16						; size = 4
__$EHRec$ = -12						; size = 12
??0ioChangeSoldierBuff@@QAE@XZ PROC			; ioChangeSoldierBuff::ioChangeSoldierBuff, COMDAT
; _this$ = ecx

; 9    : {

  00000	6a 04		 push	 4
  00002	b8 00 00 00 00	 mov	 eax, __ehhandler$??0ioChangeSoldierBuff@@QAE@XZ
  00007	e8 00 00 00 00	 call	 __EH_prolog3
  0000c	8b f1		 mov	 esi, ecx
  0000e	89 75 f0	 mov	 DWORD PTR _this$[ebp], esi
  00011	e8 00 00 00 00	 call	 ??0ioBuff@@QAE@XZ	; ioBuff::ioBuff
  00016	83 65 fc 00	 and	 DWORD PTR __$EHRec$[ebp+8], 0
  0001a	8d 8e 70 09 00
	00		 lea	 ecx, DWORD PTR [esi+2416]
  00020	c7 06 00 00 00
	00		 mov	 DWORD PTR [esi], OFFSET ??_7ioChangeSoldierBuff@@6B@
  00026	ff 15 00 00 00
	00		 call	 DWORD PTR __imp_??0ioHashString@@QAE@XZ

; 10   : }

  0002c	8b c6		 mov	 eax, esi
  0002e	e8 00 00 00 00	 call	 __EH_epilog3
  00033	c3		 ret	 0
_TEXT	ENDS
;	COMDAT text$x
text$x	SEGMENT
__unwindfunclet$??0ioChangeSoldierBuff@@QAE@XZ$0:
  00000	8b 4d f0	 mov	 ecx, DWORD PTR _this$[ebp]
  00003	e9 00 00 00 00	 jmp	 ??1ioBuff@@UAE@XZ	; ioBuff::~ioBuff
__ehhandler$??0ioChangeSoldierBuff@@QAE@XZ:
  00008	8b 54 24 08	 mov	 edx, DWORD PTR [esp+8]
  0000c	8d 42 0c	 lea	 eax, DWORD PTR [edx+12]
  0000f	8b 4a ec	 mov	 ecx, DWORD PTR [edx-20]
  00012	33 c8		 xor	 ecx, eax
  00014	e8 00 00 00 00	 call	 @__security_check_cookie@4
  00019	b8 00 00 00 00	 mov	 eax, OFFSET __ehfuncinfo$??0ioChangeSoldierBuff@@QAE@XZ
  0001e	e9 00 00 00 00	 jmp	 ___CxxFrameHandler3
text$x	ENDS
??0ioChangeSoldierBuff@@QAE@XZ ENDP			; ioChangeSoldierBuff::ioChangeSoldierBuff
PUBLIC	??0ioChangeSoldierBuff@@QAE@ABV0@@Z		; ioChangeSoldierBuff::ioChangeSoldierBuff
EXTRN	__imp_??0ioHashString@@QAE@ABV0@@Z:PROC
EXTRN	??0ioBuff@@QAE@ABV0@@Z:PROC			; ioBuff::ioBuff
;	COMDAT xdata$x
xdata$x	SEGMENT
__unwindtable$??0ioChangeSoldierBuff@@QAE@ABV0@@Z DD 0ffffffffH
	DD	FLAT:__unwindfunclet$??0ioChangeSoldierBuff@@QAE@ABV0@@Z$0
__ehfuncinfo$??0ioChangeSoldierBuff@@QAE@ABV0@@Z DD 019930522H
	DD	01H
	DD	FLAT:__unwindtable$??0ioChangeSoldierBuff@@QAE@ABV0@@Z
	DD	2 DUP(00H)
	DD	2 DUP(00H)
	DD	00H
	DD	01H
; Function compile flags: /Ogsp
xdata$x	ENDS
;	COMDAT ??0ioChangeSoldierBuff@@QAE@ABV0@@Z
_TEXT	SEGMENT
_this$ = -16						; size = 4
__$EHRec$ = -12						; size = 12
_rhs$ = 8						; size = 4
??0ioChangeSoldierBuff@@QAE@ABV0@@Z PROC		; ioChangeSoldierBuff::ioChangeSoldierBuff, COMDAT
; _this$ = ecx

; 17   : {

  00000	6a 04		 push	 4
  00002	b8 00 00 00 00	 mov	 eax, __ehhandler$??0ioChangeSoldierBuff@@QAE@ABV0@@Z
  00007	e8 00 00 00 00	 call	 __EH_prolog3
  0000c	8b f1		 mov	 esi, ecx
  0000e	89 75 f0	 mov	 DWORD PTR _this$[ebp], esi
  00011	8b 7d 08	 mov	 edi, DWORD PTR _rhs$[ebp]
  00014	57		 push	 edi
  00015	e8 00 00 00 00	 call	 ??0ioBuff@@QAE@ABV0@@Z	; ioBuff::ioBuff
  0001a	83 65 fc 00	 and	 DWORD PTR __$EHRec$[ebp+8], 0
  0001e	c7 06 00 00 00
	00		 mov	 DWORD PTR [esi], OFFSET ??_7ioChangeSoldierBuff@@6B@
  00024	8a 87 6c 09 00
	00		 mov	 al, BYTE PTR [edi+2412]
  0002a	88 86 6c 09 00
	00		 mov	 BYTE PTR [esi+2412], al
  00030	8a 87 6d 09 00
	00		 mov	 al, BYTE PTR [edi+2413]
  00036	81 c7 70 09 00
	00		 add	 edi, 2416		; 00000970H
  0003c	57		 push	 edi
  0003d	8d 8e 70 09 00
	00		 lea	 ecx, DWORD PTR [esi+2416]
  00043	88 86 6d 09 00
	00		 mov	 BYTE PTR [esi+2413], al
  00049	ff 15 00 00 00
	00		 call	 DWORD PTR __imp_??0ioHashString@@QAE@ABV0@@Z

; 18   : }

  0004f	8b c6		 mov	 eax, esi
  00051	e8 00 00 00 00	 call	 __EH_epilog3
  00056	c2 04 00	 ret	 4
_TEXT	ENDS
;	COMDAT text$x
text$x	SEGMENT
__unwindfunclet$??0ioChangeSoldierBuff@@QAE@ABV0@@Z$0:
  00000	8b 4d f0	 mov	 ecx, DWORD PTR _this$[ebp]
  00003	e9 00 00 00 00	 jmp	 ??1ioBuff@@UAE@XZ	; ioBuff::~ioBuff
__ehhandler$??0ioChangeSoldierBuff@@QAE@ABV0@@Z:
  00008	8b 54 24 08	 mov	 edx, DWORD PTR [esp+8]
  0000c	8d 42 0c	 lea	 eax, DWORD PTR [edx+12]
  0000f	8b 4a ec	 mov	 ecx, DWORD PTR [edx-20]
  00012	33 c8		 xor	 ecx, eax
  00014	e8 00 00 00 00	 call	 @__security_check_cookie@4
  00019	b8 00 00 00 00	 mov	 eax, OFFSET __ehfuncinfo$??0ioChangeSoldierBuff@@QAE@ABV0@@Z
  0001e	e9 00 00 00 00	 jmp	 ___CxxFrameHandler3
text$x	ENDS
??0ioChangeSoldierBuff@@QAE@ABV0@@Z ENDP		; ioChangeSoldierBuff::ioChangeSoldierBuff
PUBLIC	??1ioChangeSoldierBuff@@UAE@XZ			; ioChangeSoldierBuff::~ioChangeSoldierBuff
EXTRN	__imp_??1ioHashString@@QAE@XZ:PROC
;	COMDAT xdata$x
xdata$x	SEGMENT
__unwindtable$??1ioChangeSoldierBuff@@UAE@XZ DD 0ffffffffH
	DD	FLAT:__unwindfunclet$??1ioChangeSoldierBuff@@UAE@XZ$0
__ehfuncinfo$??1ioChangeSoldierBuff@@UAE@XZ DD 019930522H
	DD	01H
	DD	FLAT:__unwindtable$??1ioChangeSoldierBuff@@UAE@XZ
	DD	2 DUP(00H)
	DD	2 DUP(00H)
	DD	00H
	DD	01H
; Function compile flags: /Ogsp
xdata$x	ENDS
;	COMDAT ??1ioChangeSoldierBuff@@UAE@XZ
_TEXT	SEGMENT
_this$ = -16						; size = 4
__$EHRec$ = -12						; size = 12
??1ioChangeSoldierBuff@@UAE@XZ PROC			; ioChangeSoldierBuff::~ioChangeSoldierBuff, COMDAT
; _this$ = ecx

; 21   : {

  00000	6a 04		 push	 4
  00002	b8 00 00 00 00	 mov	 eax, __ehhandler$??1ioChangeSoldierBuff@@UAE@XZ
  00007	e8 00 00 00 00	 call	 __EH_prolog3
  0000c	8b f1		 mov	 esi, ecx
  0000e	89 75 f0	 mov	 DWORD PTR _this$[ebp], esi
  00011	c7 06 00 00 00
	00		 mov	 DWORD PTR [esi], OFFSET ??_7ioChangeSoldierBuff@@6B@
  00017	83 65 fc 00	 and	 DWORD PTR __$EHRec$[ebp+8], 0

; 22   : }

  0001b	8d 8e 70 09 00
	00		 lea	 ecx, DWORD PTR [esi+2416]
  00021	ff 15 00 00 00
	00		 call	 DWORD PTR __imp_??1ioHashString@@QAE@XZ
  00027	83 4d fc ff	 or	 DWORD PTR __$EHRec$[ebp+8], -1
  0002b	8b ce		 mov	 ecx, esi
  0002d	e8 00 00 00 00	 call	 ??1ioBuff@@UAE@XZ	; ioBuff::~ioBuff
  00032	e8 00 00 00 00	 call	 __EH_epilog3
  00037	c3		 ret	 0
_TEXT	ENDS
;	COMDAT text$x
text$x	SEGMENT
__unwindfunclet$??1ioChangeSoldierBuff@@UAE@XZ$0:
  00000	8b 4d f0	 mov	 ecx, DWORD PTR _this$[ebp]
  00003	e9 00 00 00 00	 jmp	 ??1ioBuff@@UAE@XZ	; ioBuff::~ioBuff
__ehhandler$??1ioChangeSoldierBuff@@UAE@XZ:
  00008	8b 54 24 08	 mov	 edx, DWORD PTR [esp+8]
  0000c	8d 42 0c	 lea	 eax, DWORD PTR [edx+12]
  0000f	8b 4a ec	 mov	 ecx, DWORD PTR [edx-20]
  00012	33 c8		 xor	 ecx, eax
  00014	e8 00 00 00 00	 call	 @__security_check_cookie@4
  00019	b8 00 00 00 00	 mov	 eax, OFFSET __ehfuncinfo$??1ioChangeSoldierBuff@@UAE@XZ
  0001e	e9 00 00 00 00	 jmp	 ___CxxFrameHandler3
text$x	ENDS
??1ioChangeSoldierBuff@@UAE@XZ ENDP			; ioChangeSoldierBuff::~ioChangeSoldierBuff
EXTRN	??3@YAXPAX@Z:PROC				; operator delete
EXTRN	??2@YAPAXI@Z:PROC				; operator new
;	COMDAT xdata$x
xdata$x	SEGMENT
__unwindtable$?Clone@ioChangeSoldierBuff@@UAEPAVioBuff@@XZ DD 0ffffffffH
	DD	FLAT:__unwindfunclet$?Clone@ioChangeSoldierBuff@@UAEPAVioBuff@@XZ$0
__ehfuncinfo$?Clone@ioChangeSoldierBuff@@UAEPAVioBuff@@XZ DD 019930522H
	DD	01H
	DD	FLAT:__unwindtable$?Clone@ioChangeSoldierBuff@@UAEPAVioBuff@@XZ
	DD	2 DUP(00H)
	DD	2 DUP(00H)
	DD	00H
	DD	01H
; Function compile flags: /Ogsp
xdata$x	ENDS
;	COMDAT ?Clone@ioChangeSoldierBuff@@UAEPAVioBuff@@XZ
_TEXT	SEGMENT
$T524737 = -16						; size = 4
__$EHRec$ = -12						; size = 12
?Clone@ioChangeSoldierBuff@@UAEPAVioBuff@@XZ PROC	; ioChangeSoldierBuff::Clone, COMDAT
; _this$ = ecx

; 38   : {

  00000	6a 04		 push	 4
  00002	b8 00 00 00 00	 mov	 eax, __ehhandler$?Clone@ioChangeSoldierBuff@@UAEPAVioBuff@@XZ
  00007	e8 00 00 00 00	 call	 __EH_prolog3
  0000c	8b f1		 mov	 esi, ecx

; 39   : 	return new ioChangeSoldierBuff( *this );

  0000e	68 84 09 00 00	 push	 2436			; 00000984H
  00013	e8 00 00 00 00	 call	 ??2@YAPAXI@Z		; operator new
  00018	59		 pop	 ecx
  00019	8b c8		 mov	 ecx, eax
  0001b	89 4d f0	 mov	 DWORD PTR $T524737[ebp], ecx
  0001e	33 c0		 xor	 eax, eax
  00020	89 45 fc	 mov	 DWORD PTR __$EHRec$[ebp+8], eax
  00023	3b c8		 cmp	 ecx, eax
  00025	74 06		 je	 SHORT $LN3@Clone
  00027	56		 push	 esi
  00028	e8 00 00 00 00	 call	 ??0ioChangeSoldierBuff@@QAE@ABV0@@Z ; ioChangeSoldierBuff::ioChangeSoldierBuff
$LN3@Clone:

; 40   : }

  0002d	e8 00 00 00 00	 call	 __EH_epilog3
  00032	c3		 ret	 0
_TEXT	ENDS
;	COMDAT text$x
text$x	SEGMENT
__unwindfunclet$?Clone@ioChangeSoldierBuff@@UAEPAVioBuff@@XZ$0:
  00000	ff 75 f0	 push	 DWORD PTR $T524737[ebp]
  00003	e8 00 00 00 00	 call	 ??3@YAXPAX@Z		; operator delete
  00008	59		 pop	 ecx
  00009	c3		 ret	 0
__ehhandler$?Clone@ioChangeSoldierBuff@@UAEPAVioBuff@@XZ:
  0000a	8b 54 24 08	 mov	 edx, DWORD PTR [esp+8]
  0000e	8d 42 0c	 lea	 eax, DWORD PTR [edx+12]
  00011	8b 4a ec	 mov	 ecx, DWORD PTR [edx-20]
  00014	33 c8		 xor	 ecx, eax
  00016	e8 00 00 00 00	 call	 @__security_check_cookie@4
  0001b	b8 00 00 00 00	 mov	 eax, OFFSET __ehfuncinfo$?Clone@ioChangeSoldierBuff@@UAEPAVioBuff@@XZ
  00020	e9 00 00 00 00	 jmp	 ___CxxFrameHandler3
text$x	ENDS
?Clone@ioChangeSoldierBuff@@UAEPAVioBuff@@XZ ENDP	; ioChangeSoldierBuff::Clone
EXTRN	?SetChangeEquipMesh@ioBaseChar@@QAEXABVioHashString@@_N@Z:PROC ; ioBaseChar::SetChangeEquipMesh
EXTRN	?StartBuff@ioBuff@@UAEXPAVioBaseChar@@@Z:PROC	; ioBuff::StartBuff
; Function compile flags: /Ogsp
;	COMDAT ?StartBuff@ioChangeSoldierBuff@@UAEXPAVioBaseChar@@@Z
_TEXT	SEGMENT
_pOwner$ = 8						; size = 4
?StartBuff@ioChangeSoldierBuff@@UAEXPAVioBaseChar@@@Z PROC ; ioChangeSoldierBuff::StartBuff, COMDAT
; _this$ = ecx

; 43   : {

  00000	55		 push	 ebp
  00001	8b ec		 mov	 ebp, esp
  00003	56		 push	 esi

; 44   : 	ioBuff::StartBuff( pOwner );

  00004	ff 75 08	 push	 DWORD PTR _pOwner$[ebp]
  00007	8b f1		 mov	 esi, ecx
  00009	e8 00 00 00 00	 call	 ?StartBuff@ioBuff@@UAEXPAVioBaseChar@@@Z ; ioBuff::StartBuff

; 45   : 
; 46   : 	if( m_bUseWeaponEquipMesh && pOwner )

  0000e	80 be 6d 09 00
	00 00		 cmp	 BYTE PTR [esi+2413], 0
  00015	74 17		 je	 SHORT $LN1@StartBuff
  00017	83 7d 08 00	 cmp	 DWORD PTR _pOwner$[ebp], 0
  0001b	74 11		 je	 SHORT $LN1@StartBuff

; 47   : 	{
; 48   : 		pOwner->SetChangeEquipMesh( m_ItemName, true );

  0001d	8b 4d 08	 mov	 ecx, DWORD PTR _pOwner$[ebp]
  00020	6a 01		 push	 1
  00022	8d 86 44 02 00
	00		 lea	 eax, DWORD PTR [esi+580]
  00028	50		 push	 eax
  00029	e8 00 00 00 00	 call	 ?SetChangeEquipMesh@ioBaseChar@@QAEXABVioHashString@@_N@Z ; ioBaseChar::SetChangeEquipMesh
$LN1@StartBuff:

; 49   : 	}
; 50   : 	m_dwEnableEffectID = -1;

  0002e	83 8e 80 09 00
	00 ff		 or	 DWORD PTR [esi+2432], -1
  00035	5e		 pop	 esi

; 51   : }

  00036	5d		 pop	 ebp
  00037	c2 04 00	 ret	 4
?StartBuff@ioChangeSoldierBuff@@UAEXPAVioBaseChar@@@Z ENDP ; ioChangeSoldierBuff::StartBuff
_TEXT	ENDS
EXTRN	?ApplyStartBuff@ioBuff@@UAE_NPAVioBaseChar@@KK@Z:PROC ; ioBuff::ApplyStartBuff
; Function compile flags: /Ogsp
;	COMDAT ?ApplyStartBuff@ioChangeSoldierBuff@@UAE_NPAVioBaseChar@@KK@Z
_TEXT	SEGMENT
_pOwner$ = 8						; size = 4
_dwGlobalTime$ = 12					; size = 4
_dwGapTime$ = 16					; size = 4
?ApplyStartBuff@ioChangeSoldierBuff@@UAE_NPAVioBaseChar@@KK@Z PROC ; ioChangeSoldierBuff::ApplyStartBuff, COMDAT
; _this$ = ecx

; 54   : {

  00000	55		 push	 ebp
  00001	8b ec		 mov	 ebp, esp
  00003	56		 push	 esi

; 55   : 	if( !ioBuff::ApplyStartBuff( pOwner, dwGlobalTime, dwGapTime ) )

  00004	ff 75 10	 push	 DWORD PTR _dwGapTime$[ebp]
  00007	8b f1		 mov	 esi, ecx
  00009	ff 75 0c	 push	 DWORD PTR _dwGlobalTime$[ebp]
  0000c	ff 75 08	 push	 DWORD PTR _pOwner$[ebp]
  0000f	e8 00 00 00 00	 call	 ?ApplyStartBuff@ioBuff@@UAE_NPAVioBaseChar@@KK@Z ; ioBuff::ApplyStartBuff
  00014	84 c0		 test	 al, al
  00016	74 29		 je	 SHORT $LN3@ApplyStart
$LN2@ApplyStart:

; 56   : 		return false;
; 57   : 
; 58   : 	if( m_bUseWeaponEquipMesh && pOwner )

  00018	80 be 6d 09 00
	00 00		 cmp	 BYTE PTR [esi+2413], 0
  0001f	74 17		 je	 SHORT $LN1@ApplyStart
  00021	83 7d 08 00	 cmp	 DWORD PTR _pOwner$[ebp], 0
  00025	74 11		 je	 SHORT $LN1@ApplyStart

; 59   : 	{
; 60   : 		pOwner->SetChangeEquipMesh( m_ItemName, true );

  00027	8b 4d 08	 mov	 ecx, DWORD PTR _pOwner$[ebp]
  0002a	6a 01		 push	 1
  0002c	8d 86 44 02 00
	00		 lea	 eax, DWORD PTR [esi+580]
  00032	50		 push	 eax
  00033	e8 00 00 00 00	 call	 ?SetChangeEquipMesh@ioBaseChar@@QAEXABVioHashString@@_N@Z ; ioBaseChar::SetChangeEquipMesh
$LN1@ApplyStart:

; 61   : 	}
; 62   : 	m_dwEnableEffectID = -1;

  00038	83 8e 80 09 00
	00 ff		 or	 DWORD PTR [esi+2432], -1

; 63   : 	return true;

  0003f	b0 01		 mov	 al, 1
$LN3@ApplyStart:
  00041	5e		 pop	 esi

; 64   : }

  00042	5d		 pop	 ebp
  00043	c2 0c 00	 ret	 12			; 0000000cH
?ApplyStartBuff@ioChangeSoldierBuff@@UAE_NPAVioBaseChar@@KK@Z ENDP ; ioChangeSoldierBuff::ApplyStartBuff
_TEXT	ENDS
PUBLIC	?CheckRestoreStateCheck@ioChangeSoldierBuff@@IAE_NXZ ; ioChangeSoldierBuff::CheckRestoreStateCheck
; Function compile flags: /Ogsp
;	COMDAT ?CheckRestoreStateCheck@ioChangeSoldierBuff@@IAE_NXZ
_TEXT	SEGMENT
?CheckRestoreStateCheck@ioChangeSoldierBuff@@IAE_NXZ PROC ; ioChangeSoldierBuff::CheckRestoreStateCheck, COMDAT
; _this$ = ecx

; 194  : 	if( !m_pOwner ) return false;

  00000	8b 81 74 02 00
	00		 mov	 eax, DWORD PTR [ecx+628]
  00006	85 c0		 test	 eax, eax
  00008	75 03		 jne	 SHORT $LN4@CheckResto
  0000a	32 c0		 xor	 al, al

; 199  : 	{
; 200  : 	case CS_DELAY:
; 201  : 	case CS_RUN:
; 202  : 	case CS_DASH:
; 203  : 		return true;
; 204  : 	}
; 205  : 
; 206  : 	return false;
; 207  : }

  0000c	c3		 ret	 0
$LN4@CheckResto:

; 195  : 
; 196  : 	CharState eState = m_pOwner->GetState();

  0000d	8a 80 10 03 00
	00		 mov	 al, BYTE PTR [eax+784]

; 197  : 
; 198  : 	switch( eState )

  00013	b1 02		 mov	 cl, 2
  00015	3a c8		 cmp	 cl, al
  00017	1a c0		 sbb	 al, al
  00019	fe c0		 inc	 al

; 199  : 	{
; 200  : 	case CS_DELAY:
; 201  : 	case CS_RUN:
; 202  : 	case CS_DASH:
; 203  : 		return true;
; 204  : 	}
; 205  : 
; 206  : 	return false;
; 207  : }

  0001b	c3		 ret	 0
?CheckRestoreStateCheck@ioChangeSoldierBuff@@IAE_NXZ ENDP ; ioChangeSoldierBuff::CheckRestoreStateCheck
_TEXT	ENDS
EXTRN	?EndBuff@ioBuff@@UAEXXZ:PROC			; ioBuff::EndBuff
EXTRN	?EndEffect@ioBaseChar@@QAEXK_N@Z:PROC		; ioBaseChar::EndEffect
; Function compile flags: /Ogsp
;	COMDAT ?EndBuff@ioChangeSoldierBuff@@UAEXXZ
_TEXT	SEGMENT
?EndBuff@ioChangeSoldierBuff@@UAEXXZ PROC		; ioChangeSoldierBuff::EndBuff, COMDAT
; _this$ = ecx

; 210  : {

  00000	56		 push	 esi
  00001	8b f1		 mov	 esi, ecx

; 211  : 	if( m_bUseWeaponEquipMesh && m_pOwner )

  00003	80 be 6d 09 00
	00 00		 cmp	 BYTE PTR [esi+2413], 0
  0000a	57		 push	 edi
  0000b	74 18		 je	 SHORT $LN2@EndBuff
  0000d	8b 8e 74 02 00
	00		 mov	 ecx, DWORD PTR [esi+628]
  00013	85 c9		 test	 ecx, ecx
  00015	74 0e		 je	 SHORT $LN2@EndBuff

; 212  : 	{
; 213  : 		m_pOwner->SetChangeEquipMesh( m_ItemName, false );

  00017	6a 00		 push	 0
  00019	8d 86 44 02 00
	00		 lea	 eax, DWORD PTR [esi+580]
  0001f	50		 push	 eax
  00020	e8 00 00 00 00	 call	 ?SetChangeEquipMesh@ioBaseChar@@QAEXABVioHashString@@_N@Z ; ioBaseChar::SetChangeEquipMesh
$LN2@EndBuff:

; 214  : 	}
; 215  : 
; 216  : 	if( m_dwEnableEffectID != -1 )

  00025	8b 86 80 09 00
	00		 mov	 eax, DWORD PTR [esi+2432]
  0002b	83 f8 ff	 cmp	 eax, -1
  0002e	74 15		 je	 SHORT $LN1@EndBuff

; 217  : 	{
; 218  : 		m_pOwner->EndEffect( m_dwEnableEffectID, false );

  00030	8b 8e 74 02 00
	00		 mov	 ecx, DWORD PTR [esi+628]
  00036	6a 00		 push	 0
  00038	50		 push	 eax
  00039	e8 00 00 00 00	 call	 ?EndEffect@ioBaseChar@@QAEXK_N@Z ; ioBaseChar::EndEffect

; 219  : 		m_dwEnableEffectID = -1;

  0003e	83 8e 80 09 00
	00 ff		 or	 DWORD PTR [esi+2432], -1
$LN1@EndBuff:

; 220  : 	}
; 221  : 
; 222  : 	ioBuff::EndBuff();

  00045	5f		 pop	 edi
  00046	8b ce		 mov	 ecx, esi
  00048	5e		 pop	 esi
  00049	e9 00 00 00 00	 jmp	 ?EndBuff@ioBuff@@UAEXXZ	; ioBuff::EndBuff
?EndBuff@ioChangeSoldierBuff@@UAEXXZ ENDP		; ioChangeSoldierBuff::EndBuff
_TEXT	ENDS
PUBLIC	?IsWoundedState@ioChangeSoldierBuff@@QAE_NXZ	; ioChangeSoldierBuff::IsWoundedState
EXTRN	?IsApplyDownState@ioBaseChar@@QAE_N_N@Z:PROC	; ioBaseChar::IsApplyDownState
; Function compile flags: /Ogsp
;	COMDAT ?IsWoundedState@ioChangeSoldierBuff@@QAE_NXZ
_TEXT	SEGMENT
?IsWoundedState@ioChangeSoldierBuff@@QAE_NXZ PROC	; ioChangeSoldierBuff::IsWoundedState, COMDAT
; _this$ = ecx

; 279  : {

  00000	56		 push	 esi
  00001	8b f1		 mov	 esi, ecx

; 280  : 	if( !m_pOwner )

  00003	8b 8e 74 02 00
	00		 mov	 ecx, DWORD PTR [esi+628]
  00009	85 c9		 test	 ecx, ecx
  0000b	75 04		 jne	 SHORT $LN5@IsWoundedS
$LN10@IsWoundedS:

; 281  : 		return false;

  0000d	32 c0		 xor	 al, al
  0000f	5e		 pop	 esi

; 295  : }

  00010	c3		 ret	 0
$LN5@IsWoundedS:

; 282  : 
; 283  : 	if( m_pOwner->IsApplyDownState() || m_pOwner->IsApplyDownState(false) )

  00011	6a 01		 push	 1
  00013	e8 00 00 00 00	 call	 ?IsApplyDownState@ioBaseChar@@QAE_N_N@Z ; ioBaseChar::IsApplyDownState
  00018	84 c0		 test	 al, al
  0001a	75 39		 jne	 SHORT $LN3@IsWoundedS
  0001c	8b 8e 74 02 00
	00		 mov	 ecx, DWORD PTR [esi+628]
  00022	6a 00		 push	 0
  00024	e8 00 00 00 00	 call	 ?IsApplyDownState@ioBaseChar@@QAE_N_N@Z ; ioBaseChar::IsApplyDownState
  00029	84 c0		 test	 al, al
  0002b	75 28		 jne	 SHORT $LN3@IsWoundedS

; 285  : 
; 286  : 	CharState eState = m_pOwner->GetState();

  0002d	8b 86 74 02 00
	00		 mov	 eax, DWORD PTR [esi+628]
  00033	8a 80 10 03 00
	00		 mov	 al, BYTE PTR [eax+784]

; 287  : 	if( eState == CS_WOUNDED ||
; 288  : 		eState == CS_GRAPPLING_WOUNDED || eState == CS_GRAPPLING_WOUNDED_SKILL ||
; 289  : 		eState == CS_GRAPPLING_WOUNDED_SWING || eState == CS_JUMP_GRAPPLING_WOUNDED ||
; 290  : 		eState == CS_GRAPPLING_WOUNDED_ITEM ||
; 291  : 		eState == CS_GRAPPLING_WOUNDED_BUFF )

  00039	3c 0b		 cmp	 al, 11			; 0000000bH
  0003b	74 18		 je	 SHORT $LN3@IsWoundedS
  0003d	3c 41		 cmp	 al, 65			; 00000041H
  0003f	74 14		 je	 SHORT $LN3@IsWoundedS
  00041	3c 43		 cmp	 al, 67			; 00000043H
  00043	74 10		 je	 SHORT $LN3@IsWoundedS
  00045	3c 44		 cmp	 al, 68			; 00000044H
  00047	74 0c		 je	 SHORT $LN3@IsWoundedS
  00049	3c 4a		 cmp	 al, 74			; 0000004aH
  0004b	74 08		 je	 SHORT $LN3@IsWoundedS
  0004d	3c 57		 cmp	 al, 87			; 00000057H
  0004f	74 04		 je	 SHORT $LN3@IsWoundedS
  00051	3c 8b		 cmp	 al, 139			; 0000008bH

; 292  : 		return true;
; 293  : 
; 294  : 	return false;

  00053	75 b8		 jne	 SHORT $LN10@IsWoundedS
$LN3@IsWoundedS:

; 284  : 		return true;

  00055	b0 01		 mov	 al, 1
  00057	5e		 pop	 esi

; 295  : }

  00058	c3		 ret	 0
?IsWoundedState@ioChangeSoldierBuff@@QAE_NXZ ENDP	; ioChangeSoldierBuff::IsWoundedState
_TEXT	ENDS
PUBLIC	?DecryptValueToPool@?$CEncrypt@W4JumpState@@@@QAEXPAW4JumpState@@@Z ; CEncrypt<enum JumpState>::DecryptValueToPool
EXTRN	?DecryptByte@ccddaabb@@QBEXPBDPADH@Z:PROC	; ccddaabb::DecryptByte
; Function compile flags: /Ogsp
; File d:\lost saga for developer\youtube\tutorial\source\src\lsclient\encryptvalue.h
;	COMDAT ?DecryptValueToPool@?$CEncrypt@W4JumpState@@@@QAEXPAW4JumpState@@@Z
_TEXT	SEGMENT
_value$ = 8						; size = 4
?DecryptValueToPool@?$CEncrypt@W4JumpState@@@@QAEXPAW4JumpState@@@Z PROC ; CEncrypt<enum JumpState>::DecryptValueToPool, COMDAT
; _this$ = ecx

; 2317 : 	{

  00000	55		 push	 ebp
  00001	8b ec		 mov	 ebp, esp
  00003	56		 push	 esi

; 2318 : 		m_RC5.DecryptByte( m_MemPool, m_TempMem, sizeof(JumpState) );

  00004	8d 71 28	 lea	 esi, DWORD PTR [ecx+40]
  00007	6a 04		 push	 4
  00009	8d 41 1c	 lea	 eax, DWORD PTR [ecx+28]
  0000c	56		 push	 esi
  0000d	50		 push	 eax
  0000e	83 c1 0c	 add	 ecx, 12			; 0000000cH
  00011	e8 00 00 00 00	 call	 ?DecryptByte@ccddaabb@@QBEXPBDPADH@Z ; ccddaabb::DecryptByte

; 2319 : 		*value = *((JumpState*)m_TempMem);

  00016	8b 06		 mov	 eax, DWORD PTR [esi]
  00018	8b 4d 08	 mov	 ecx, DWORD PTR _value$[ebp]
  0001b	89 01		 mov	 DWORD PTR [ecx], eax
  0001d	5e		 pop	 esi

; 2320 : 	}

  0001e	5d		 pop	 ebp
  0001f	c2 04 00	 ret	 4
?DecryptValueToPool@?$CEncrypt@W4JumpState@@@@QAEXPAW4JumpState@@@Z ENDP ; CEncrypt<enum JumpState>::DecryptValueToPool
_TEXT	ENDS
PUBLIC	?_DECSTR@@YAXPADH@Z				; _DECSTR
; Function compile flags: /Ogsp
; File d:\lost saga for developer\youtube\tutorial\source\src\lsclient\stringprotect.h
;	COMDAT ?_DECSTR@@YAXPADH@Z
_TEXT	SEGMENT
_s$ = 8							; size = 4
_l$ = 12						; size = 4
?_DECSTR@@YAXPADH@Z PROC				; _DECSTR, COMDAT

; 40   : __forceinline void _DECSTR(char* s, int l){int i=0,l4=(l-1)/4,*p=(int*)s;s[l-1]=0;for(;i<l4;++i)*(p++)^=0xEAEBECED;for(i=l4*4;i<l-1;++i)s[i]^=0xED-i%4;}

  00000	55		 push	 ebp
  00001	8b ec		 mov	 ebp, esp
  00003	8b 4d 0c	 mov	 ecx, DWORD PTR _l$[ebp]
  00006	56		 push	 esi
  00007	8b 75 08	 mov	 esi, DWORD PTR _s$[ebp]
  0000a	57		 push	 edi
  0000b	8d 79 ff	 lea	 edi, DWORD PTR [ecx-1]
  0000e	8b c7		 mov	 eax, edi
  00010	99		 cdq
  00011	83 e2 03	 and	 edx, 3
  00014	03 c2		 add	 eax, edx
  00016	c1 f8 02	 sar	 eax, 2
  00019	8b d6		 mov	 edx, esi
  0001b	c6 44 0e ff 00	 mov	 BYTE PTR [esi+ecx-1], 0
  00020	85 c0		 test	 eax, eax
  00022	7e 0e		 jle	 SHORT $LN4@DECSTR
  00024	8b c8		 mov	 ecx, eax
$LL6@DECSTR:
  00026	81 32 ed ec eb
	ea		 xor	 DWORD PTR [edx], -353637139 ; eaebecedH
  0002c	83 c2 04	 add	 edx, 4
  0002f	49		 dec	 ecx
  00030	75 f4		 jne	 SHORT $LL6@DECSTR
$LN4@DECSTR:
  00032	c1 e0 02	 shl	 eax, 2
  00035	eb 17		 jmp	 SHORT $LN14@DECSTR
$LL3@DECSTR:
  00037	8b c8		 mov	 ecx, eax
  00039	81 e1 03 00 00
	80		 and	 ecx, -2147483645	; 80000003H
  0003f	79 05		 jns	 SHORT $LN13@DECSTR
  00041	49		 dec	 ecx
  00042	83 c9 fc	 or	 ecx, -4			; fffffffcH
  00045	41		 inc	 ecx
$LN13@DECSTR:
  00046	b2 ed		 mov	 dl, -19			; ffffffedH
  00048	2a d1		 sub	 dl, cl
  0004a	30 14 30	 xor	 BYTE PTR [eax+esi], dl
  0004d	40		 inc	 eax
$LN14@DECSTR:
  0004e	3b c7		 cmp	 eax, edi
  00050	7c e5		 jl	 SHORT $LL3@DECSTR
  00052	5f		 pop	 edi
  00053	5e		 pop	 esi
  00054	5d		 pop	 ebp
  00055	c3		 ret	 0
?_DECSTR@@YAXPADH@Z ENDP				; _DECSTR
_TEXT	ENDS
PUBLIC	?GetName@ioSkill@@QBEABVioHashString@@XZ	; ioSkill::GetName
; Function compile flags: /Ogsp
; File d:\lost saga for developer\youtube\tutorial\source\src\lsclient\ioskill.h
;	COMDAT ?GetName@ioSkill@@QBEABVioHashString@@XZ
_TEXT	SEGMENT
?GetName@ioSkill@@QBEABVioHashString@@XZ PROC		; ioSkill::GetName, COMDAT
; _this$ = ecx

; 414  : 	inline const ioHashString& GetName() const { return m_Name; }

  00000	8d 41 24	 lea	 eax, DWORD PTR [ecx+36]
  00003	c3		 ret	 0
?GetName@ioSkill@@QBEABVioHashString@@XZ ENDP		; ioSkill::GetName
_TEXT	ENDS
PUBLIC	??_R0?AVioSkill@@@8				; ioSkill `RTTI Type Descriptor'
PUBLIC	??_R0?AVioPassiveSkill@@@8			; ioPassiveSkill `RTTI Type Descriptor'
PUBLIC	?ToPassiveSkill@@YAPAVioPassiveSkill@@PAVioSkill@@@Z ; ToPassiveSkill
EXTRN	___RTDynamicCast:PROC
;	COMDAT ??_R0?AVioSkill@@@8
; File d:\lost saga for developer\youtube\tutorial\source\src\lsclient\iopassiveskill.h
_DATA	SEGMENT
??_R0?AVioSkill@@@8 DD FLAT:??_7type_info@@6B@		; ioSkill `RTTI Type Descriptor'
	DD	00H
	DB	'.?AVioSkill@@', 00H
_DATA	ENDS
;	COMDAT ??_R0?AVioPassiveSkill@@@8
_DATA	SEGMENT
??_R0?AVioPassiveSkill@@@8 DD FLAT:??_7type_info@@6B@	; ioPassiveSkill `RTTI Type Descriptor'
	DD	00H
	DB	'.?AVioPassiveSkill@@', 00H
; Function compile flags: /Ogsp
_DATA	ENDS
;	COMDAT ?ToPassiveSkill@@YAPAVioPassiveSkill@@PAVioSkill@@@Z
_TEXT	SEGMENT
_pSkill$ = 8						; size = 4
?ToPassiveSkill@@YAPAVioPassiveSkill@@PAVioSkill@@@Z PROC ; ToPassiveSkill, COMDAT

; 200  : {

  00000	55		 push	 ebp
  00001	8b ec		 mov	 ebp, esp
  00003	56		 push	 esi

; 201  : 	if( !pSkill || pSkill->GetTypeID() != ST_PASSIVE )

  00004	8b 75 08	 mov	 esi, DWORD PTR _pSkill$[ebp]
  00007	85 f6		 test	 esi, esi
  00009	74 25		 je	 SHORT $LN1@ToPassiveS
  0000b	8b 06		 mov	 eax, DWORD PTR [esi]
  0000d	8b ce		 mov	 ecx, esi
  0000f	ff 50 08	 call	 DWORD PTR [eax+8]
  00012	83 f8 04	 cmp	 eax, 4
  00015	75 19		 jne	 SHORT $LN1@ToPassiveS

; 203  : 	
; 204  : 	return dynamic_cast< ioPassiveSkill* >( pSkill );

  00017	6a 00		 push	 0
  00019	68 00 00 00 00	 push	 OFFSET ??_R0?AVioPassiveSkill@@@8
  0001e	68 00 00 00 00	 push	 OFFSET ??_R0?AVioSkill@@@8
  00023	6a 00		 push	 0
  00025	56		 push	 esi
  00026	e8 00 00 00 00	 call	 ___RTDynamicCast
  0002b	83 c4 14	 add	 esp, 20			; 00000014H
  0002e	eb 02		 jmp	 SHORT $LN3@ToPassiveS
$LN1@ToPassiveS:

; 202  : 		return NULL;

  00030	33 c0		 xor	 eax, eax
$LN3@ToPassiveS:
  00032	5e		 pop	 esi

; 205  : }

  00033	5d		 pop	 ebp
  00034	c3		 ret	 0
?ToPassiveSkill@@YAPAVioPassiveSkill@@PAVioSkill@@@Z ENDP ; ToPassiveSkill
_TEXT	ENDS
PUBLIC	?GetSkillName@ioBuff@@QBEABVioHashString@@XZ	; ioBuff::GetSkillName
; Function compile flags: /Ogsp
; File d:\lost saga for developer\youtube\tutorial\source\src\lsclient\iobuff.h
;	COMDAT ?GetSkillName@ioBuff@@QBEABVioHashString@@XZ
_TEXT	SEGMENT
?GetSkillName@ioBuff@@QBEABVioHashString@@XZ PROC	; ioBuff::GetSkillName, COMDAT
; _this$ = ecx

; 441  : 	inline const ioHashString& GetSkillName() const { return m_SkillName; }

  00000	8d 81 54 02 00
	00		 lea	 eax, DWORD PTR [ecx+596]
  00006	c3		 ret	 0
?GetSkillName@ioBuff@@QBEABVioHashString@@XZ ENDP	; ioBuff::GetSkillName
; Function compile flags: /Ogsp
_TEXT	ENDS
;	COMDAT ?IsWaitSelfRemove@ioBuff@@UAE_NXZ
_TEXT	SEGMENT
?IsWaitSelfRemove@ioBuff@@UAE_NXZ PROC			; ioBuff::IsWaitSelfRemove, COMDAT
; _this$ = ecx

; 519  : 	virtual bool IsWaitSelfRemove() { return m_bWaitSelfRemove; }

  00000	8a 81 65 09 00
	00		 mov	 al, BYTE PTR [ecx+2405]
  00006	c3		 ret	 0
?IsWaitSelfRemove@ioBuff@@UAE_NXZ ENDP			; ioBuff::IsWaitSelfRemove
_TEXT	ENDS
PUBLIC	?DecryptValueToPool@?$CEncrypt@M@@QAEXPAM@Z	; CEncrypt<float>::DecryptValueToPool
EXTRN	__fltused:DWORD
; Function compile flags: /Ogsp
; File d:\lost saga for developer\youtube\tutorial\source\src\lsclient\encryptvalue.h
;	COMDAT ?DecryptValueToPool@?$CEncrypt@M@@QAEXPAM@Z
_TEXT	SEGMENT
_value$ = 8						; size = 4
?DecryptValueToPool@?$CEncrypt@M@@QAEXPAM@Z PROC	; CEncrypt<float>::DecryptValueToPool, COMDAT
; _this$ = ecx

; 1648 : 	{

  00000	55		 push	 ebp
  00001	8b ec		 mov	 ebp, esp
  00003	56		 push	 esi

; 1649 : 		m_RC5.DecryptByte( m_MemPool, m_TempMem, 4 );

  00004	8d 71 28	 lea	 esi, DWORD PTR [ecx+40]
  00007	6a 04		 push	 4
  00009	8d 41 1c	 lea	 eax, DWORD PTR [ecx+28]
  0000c	56		 push	 esi
  0000d	50		 push	 eax
  0000e	83 c1 0c	 add	 ecx, 12			; 0000000cH
  00011	e8 00 00 00 00	 call	 ?DecryptByte@ccddaabb@@QBEXPBDPADH@Z ; ccddaabb::DecryptByte

; 1650 : 		*value = *((float*)m_TempMem);

  00016	d9 06		 fld	 DWORD PTR [esi]
  00018	8b 45 08	 mov	 eax, DWORD PTR _value$[ebp]
  0001b	d9 18		 fstp	 DWORD PTR [eax]
  0001d	5e		 pop	 esi

; 1651 : 	}

  0001e	5d		 pop	 ebp
  0001f	c2 04 00	 ret	 4
?DecryptValueToPool@?$CEncrypt@M@@QAEXPAM@Z ENDP	; CEncrypt<float>::DecryptValueToPool
_TEXT	ENDS
PUBLIC	?DecryptValueToPool@?$CEncrypt@K@@QAEXPAK@Z	; CEncrypt<unsigned long>::DecryptValueToPool
; Function compile flags: /Ogsp
;	COMDAT ?DecryptValueToPool@?$CEncrypt@K@@QAEXPAK@Z
_TEXT	SEGMENT
_value$ = 8						; size = 4
?DecryptValueToPool@?$CEncrypt@K@@QAEXPAK@Z PROC	; CEncrypt<unsigned long>::DecryptValueToPool, COMDAT
; _this$ = ecx

; 1256 : 	{

  00000	55		 push	 ebp
  00001	8b ec		 mov	 ebp, esp
  00003	56		 push	 esi

; 1257 : 		m_RC5.DecryptByte( m_MemPool, m_TempMem, 4 );

  00004	8d 71 28	 lea	 esi, DWORD PTR [ecx+40]
  00007	6a 04		 push	 4
  00009	8d 41 1c	 lea	 eax, DWORD PTR [ecx+28]
  0000c	56		 push	 esi
  0000d	50		 push	 eax
  0000e	83 c1 0c	 add	 ecx, 12			; 0000000cH
  00011	e8 00 00 00 00	 call	 ?DecryptByte@ccddaabb@@QBEXPBDPADH@Z ; ccddaabb::DecryptByte

; 1258 : 		*value = *((DWORD*)m_TempMem);

  00016	8b 06		 mov	 eax, DWORD PTR [esi]
  00018	8b 4d 08	 mov	 ecx, DWORD PTR _value$[ebp]
  0001b	89 01		 mov	 DWORD PTR [ecx], eax
  0001d	5e		 pop	 esi

; 1259 : 	}

  0001e	5d		 pop	 ebp
  0001f	c2 04 00	 ret	 4
?DecryptValueToPool@?$CEncrypt@K@@QAEXPAK@Z ENDP	; CEncrypt<unsigned long>::DecryptValueToPool
; Function compile flags: /Ogsp
_TEXT	ENDS
;	COMDAT ??_GioChangeSoldierBuff@@UAEPAXI@Z
_TEXT	SEGMENT
___flags$ = 8						; size = 4
??_GioChangeSoldierBuff@@UAEPAXI@Z PROC			; ioChangeSoldierBuff::`scalar deleting destructor', COMDAT
; _this$ = ecx
  00000	55		 push	 ebp
  00001	8b ec		 mov	 ebp, esp
  00003	56		 push	 esi
  00004	8b f1		 mov	 esi, ecx
  00006	e8 00 00 00 00	 call	 ??1ioChangeSoldierBuff@@UAE@XZ ; ioChangeSoldierBuff::~ioChangeSoldierBuff
  0000b	f6 45 08 01	 test	 BYTE PTR ___flags$[ebp], 1
  0000f	74 07		 je	 SHORT $LN1@scalar
  00011	56		 push	 esi
  00012	e8 00 00 00 00	 call	 ??3@YAXPAX@Z		; operator delete
  00017	59		 pop	 ecx
$LN1@scalar:
  00018	8b c6		 mov	 eax, esi
  0001a	5e		 pop	 esi
  0001b	5d		 pop	 ebp
  0001c	c2 04 00	 ret	 4
??_GioChangeSoldierBuff@@UAEPAXI@Z ENDP			; ioChangeSoldierBuff::`scalar deleting destructor'
_TEXT	ENDS
PUBLIC	?CheckOwnerStateCheck@ioChangeSoldierBuff@@IAE_NXZ ; ioChangeSoldierBuff::CheckOwnerStateCheck
EXTRN	?SetReserveEndBuff@ioBuff@@QAEXXZ:PROC		; ioBuff::SetReserveEndBuff
EXTRN	?CheckUseBuffSkill@ioBaseChar@@QAEXABVioHashString@@_N@Z:PROC ; ioBaseChar::CheckUseBuffSkill
EXTRN	?SetState@ioBaseChar@@QAEXH_N@Z:PROC		; ioBaseChar::SetState
EXTRN	?IsFloatingState@ioBaseChar@@QBE_NXZ:PROC	; ioBaseChar::IsFloatingState
; Function compile flags: /Ogsp
; File d:\lost saga for developer\youtube\tutorial\source\src\lsclient\iochangesoldierbuff.cpp
;	COMDAT ?CheckOwnerStateCheck@ioChangeSoldierBuff@@IAE_NXZ
_TEXT	SEGMENT
?CheckOwnerStateCheck@ioChangeSoldierBuff@@IAE_NXZ PROC	; ioChangeSoldierBuff::CheckOwnerStateCheck, COMDAT
; _this$ = ecx

; 153  : {

  00000	53		 push	 ebx
  00001	56		 push	 esi
  00002	8b f1		 mov	 esi, ecx

; 154  : 	if( !m_pOwner ) return false;

  00004	8b 8e 74 02 00
	00		 mov	 ecx, DWORD PTR [esi+628]
  0000a	33 db		 xor	 ebx, ebx
  0000c	3b cb		 cmp	 ecx, ebx
  0000e	74 27		 je	 SHORT $LN2@CheckOwner

; 155  : 
; 156  : 	CharState eState = m_pOwner->GetState();

  00010	8a 81 10 03 00
	00		 mov	 al, BYTE PTR [ecx+784]

; 157  : 
; 158  : 	bool bDown = false;
; 159  : 	if( m_bDisableDownState )

  00016	38 9e 6c 09 00
	00		 cmp	 BYTE PTR [esi+2412], bl
  0001c	74 19		 je	 SHORT $LN2@CheckOwner

; 160  : 	{
; 161  : 		if( eState == CS_FROZEN && m_pOwner->GetBlowFrozenState() )

  0001e	3c 17		 cmp	 al, 23			; 00000017H
  00020	75 08		 jne	 SHORT $LN15@CheckOwner
  00022	38 99 c5 15 00
	00		 cmp	 BYTE PTR [ecx+5573], bl

; 162  : 			bDown = true;

  00028	eb 36		 jmp	 SHORT $LN29@CheckOwner
$LN15@CheckOwner:

; 163  : 		else if( eState == CS_BLOW_WOUNDED && !m_pOwner->IsFloatingState() )

  0002a	3c 0c		 cmp	 al, 12			; 0000000cH
  0002c	75 0e		 jne	 SHORT $LN13@CheckOwner
$LN31@CheckOwner:
  0002e	e8 00 00 00 00	 call	 ?IsFloatingState@ioBaseChar@@QBE_NXZ ; ioBaseChar::IsFloatingState
  00033	84 c0		 test	 al, al
  00035	74 2b		 je	 SHORT $LN3@CheckOwner
$LN2@CheckOwner:

; 186  : 		}
; 187  : 	}
; 188  : 
; 189  : 	return false;

  00037	32 c0		 xor	 al, al
$LN18@CheckOwner:
  00039	5e		 pop	 esi
  0003a	5b		 pop	 ebx

; 190  : }

  0003b	c3		 ret	 0
$LN13@CheckOwner:

; 164  : 			bDown = true;
; 165  : 		else if( eState == CS_BOUND_BLOW_WOUNDED && !m_pOwner->IsFloatingState() )

  0003c	3c 31		 cmp	 al, 49			; 00000031H

; 166  : 			bDown = true;

  0003e	74 ee		 je	 SHORT $LN31@CheckOwner

; 167  : 		else if( eState == CS_ETC_STATE && m_pOwner->IsApplyDownState(false) )

  00040	3c 0f		 cmp	 al, 15			; 0000000fH
  00042	75 0a		 jne	 SHORT $LN9@CheckOwner
  00044	53		 push	 ebx
  00045	e8 00 00 00 00	 call	 ?IsApplyDownState@ioBaseChar@@QAE_N_N@Z ; ioBaseChar::IsApplyDownState
  0004a	84 c0		 test	 al, al

; 168  : 			bDown = true;

  0004c	eb 12		 jmp	 SHORT $LN29@CheckOwner
$LN9@CheckOwner:

; 169  : 		else if( eState == CS_STOP_MOTION && m_pOwner->GetBlowStopMotionState() )

  0004e	3c 26		 cmp	 al, 38			; 00000026H

; 170  : 			bDown = true;

  00050	74 08		 je	 SHORT $LN30@CheckOwner

; 171  : 		else if( eState == CS_DROP_ZONE_DOWN )

  00052	3c 10		 cmp	 al, 16			; 00000010H

; 172  : 			bDown = true;

  00054	74 0c		 je	 SHORT $LN3@CheckOwner

; 173  : 		else if( eState == CS_ICE_STATE && m_pOwner->GetBlowStopMotionState() )

  00056	3c 3b		 cmp	 al, 59			; 0000003bH
  00058	75 dd		 jne	 SHORT $LN2@CheckOwner
$LN30@CheckOwner:
  0005a	38 99 c7 15 00
	00		 cmp	 BYTE PTR [ecx+5575], bl
$LN29@CheckOwner:
  00060	74 d5		 je	 SHORT $LN2@CheckOwner
$LN3@CheckOwner:

; 174  : 			bDown = true;
; 175  : 
; 176  : 		if( bDown )
; 177  : 		{
; 178  : 			if( CheckRestoreStateCheck() )

  00062	8b ce		 mov	 ecx, esi
  00064	e8 00 00 00 00	 call	 ?CheckRestoreStateCheck@ioChangeSoldierBuff@@IAE_NXZ ; ioChangeSoldierBuff::CheckRestoreStateCheck
  00069	84 c0		 test	 al, al
  0006b	74 14		 je	 SHORT $LN1@CheckOwner

; 179  : 			{
; 180  : 				m_pOwner->SetState( CS_DELAY, m_bSendDelayNetWork );

  0006d	0f b6 86 f9 08
	00 00		 movzx	 eax, BYTE PTR [esi+2297]
  00074	8b 8e 74 02 00
	00		 mov	 ecx, DWORD PTR [esi+628]
  0007a	50		 push	 eax
  0007b	53		 push	 ebx
  0007c	e8 00 00 00 00	 call	 ?SetState@ioBaseChar@@QAEXH_N@Z ; ioBaseChar::SetState
$LN1@CheckOwner:

; 181  : 			}
; 182  : 
; 183  : 			m_pOwner->CheckUseBuffSkill( m_Name, false );

  00081	8b 8e 74 02 00
	00		 mov	 ecx, DWORD PTR [esi+628]
  00087	53		 push	 ebx
  00088	8d 86 34 02 00
	00		 lea	 eax, DWORD PTR [esi+564]
  0008e	50		 push	 eax
  0008f	e8 00 00 00 00	 call	 ?CheckUseBuffSkill@ioBaseChar@@QAEXABVioHashString@@_N@Z ; ioBaseChar::CheckUseBuffSkill

; 184  : 			SetReserveEndBuff();

  00094	8b ce		 mov	 ecx, esi
  00096	e8 00 00 00 00	 call	 ?SetReserveEndBuff@ioBuff@@QAEXXZ ; ioBuff::SetReserveEndBuff

; 185  : 			return true;

  0009b	b0 01		 mov	 al, 1
  0009d	eb 9a		 jmp	 SHORT $LN18@CheckOwner
?CheckOwnerStateCheck@ioChangeSoldierBuff@@IAE_NXZ ENDP	; ioChangeSoldierBuff::CheckOwnerStateCheck
_TEXT	ENDS
PUBLIC	??N?$CEncrypt@K@@QAE_NABK@Z			; CEncrypt<unsigned long>::operator<=
; Function compile flags: /Ogsp
; File d:\lost saga for developer\youtube\tutorial\source\src\lsclient\encryptvalue.h
;	COMDAT ??N?$CEncrypt@K@@QAE_NABK@Z
_TEXT	SEGMENT
_value$ = -4						; size = 4
_inValue$ = 8						; size = 4
??N?$CEncrypt@K@@QAE_NABK@Z PROC			; CEncrypt<unsigned long>::operator<=, COMDAT
; _this$ = ecx

; 1431 : 	{

  00000	55		 push	 ebp
  00001	8b ec		 mov	 ebp, esp
  00003	51		 push	 ecx

; 1432 : 		
; 1433 : 		type value;
; 1434 : 		DecryptValueToPool(&value);

  00004	8d 45 fc	 lea	 eax, DWORD PTR _value$[ebp]
  00007	50		 push	 eax
  00008	e8 00 00 00 00	 call	 ?DecryptValueToPool@?$CEncrypt@K@@QAEXPAK@Z ; CEncrypt<unsigned long>::DecryptValueToPool

; 1435 : #ifdef _NOTUSE
; 1436 : 		Debug();
; 1437 : #endif
; 1438 : 		return (value <= inValue);

  0000d	8b 45 08	 mov	 eax, DWORD PTR _inValue$[ebp]
  00010	8b 00		 mov	 eax, DWORD PTR [eax]
  00012	3b 45 fc	 cmp	 eax, DWORD PTR _value$[ebp]
  00015	1b c0		 sbb	 eax, eax
  00017	40		 inc	 eax

; 1439 : 	}		

  00018	c9		 leave
  00019	c2 04 00	 ret	 4
??N?$CEncrypt@K@@QAE_NABK@Z ENDP			; CEncrypt<unsigned long>::operator<=
_TEXT	ENDS
PUBLIC	??B?$CEncrypt@W4JumpState@@@@QBE?AW4JumpState@@XZ ; CEncrypt<enum JumpState>::operator enum JumpState
; Function compile flags: /Ogsp
;	COMDAT ??B?$CEncrypt@W4JumpState@@@@QBE?AW4JumpState@@XZ
_TEXT	SEGMENT
_value$ = -4						; size = 4
??B?$CEncrypt@W4JumpState@@@@QBE?AW4JumpState@@XZ PROC	; CEncrypt<enum JumpState>::operator enum JumpState, COMDAT
; _this$ = ecx

; 145  : 	{

  00000	55		 push	 ebp
  00001	8b ec		 mov	 ebp, esp
  00003	51		 push	 ecx

; 146  : 		//UJ 130829, const도 똑같이 하면 된다 --start
; 147  : 		type value;
; 148  : 		CEncrypt<type>* pThis = const_cast<CEncrypt<type>*>(this);
; 149  : 		pThis->DecryptValueToPool(&value);

  00004	8d 45 fc	 lea	 eax, DWORD PTR _value$[ebp]
  00007	50		 push	 eax
  00008	e8 00 00 00 00	 call	 ?DecryptValueToPool@?$CEncrypt@W4JumpState@@@@QAEXPAW4JumpState@@@Z ; CEncrypt<enum JumpState>::DecryptValueToPool

; 150  : 		//// const에서 DecryptValueToPool 사용할 수 없으므로 아래와 같이함.
; 151  :  		//type value;
; 152  : 		//char szTempMem[MAX_ENCRYPT];
; 153  : 		//m_RC5.DecryptByte( m_MemPool, szTempMem, max(m_ValueSize, DEFAULT_ENCRYPT) );
; 154  : 		//memcpy( &value, szTempMem, m_ValueSize );
; 155  : 		//UJ --end
; 156  : 
; 157  : #ifdef _NOTUSE
; 158  : 		Debug();
; 159  : #endif
; 160  : 		return value;

  0000d	8b 45 fc	 mov	 eax, DWORD PTR _value$[ebp]

; 161  : 	}

  00010	c9		 leave
  00011	c3		 ret	 0
??B?$CEncrypt@W4JumpState@@@@QBE?AW4JumpState@@XZ ENDP	; CEncrypt<enum JumpState>::operator enum JumpState
_TEXT	ENDS
PUBLIC	__$ArrayPad$
PUBLIC	??$LoadBool_e@$0BD@@ioINILoader@@QAE_NAAY0BD@$$CBD_N@Z ; ioINILoader::LoadBool_e<19>
EXTRN	__imp_?LoadBool@ioINILoader@@QAE_NPBD_N@Z:PROC
EXTRN	___security_cookie:DWORD
; Function compile flags: /Ogsp
; File d:\lost saga for developer\youtube\tutorial\source\src\io3dengine\ioiniloader.h
;	COMDAT ??$LoadBool_e@$0BD@@ioINILoader@@QAE_NAAY0BD@$$CBD_N@Z
_TEXT	SEGMENT
__k$ = -28						; size = 19
__$ArrayPad$ = -4					; size = 4
_k$ = 8							; size = 4
_b$ = 12						; size = 1
??$LoadBool_e@$0BD@@ioINILoader@@QAE_NAAY0BD@$$CBD_N@Z PROC ; ioINILoader::LoadBool_e<19>, COMDAT
; _this$ = ecx

; 101  : 	{

  00000	55		 push	 ebp
  00001	8b ec		 mov	 ebp, esp
  00003	83 ec 1c	 sub	 esp, 28			; 0000001cH
  00006	a1 00 00 00 00	 mov	 eax, DWORD PTR ___security_cookie
  0000b	33 c5		 xor	 eax, ebp
  0000d	89 45 fc	 mov	 DWORD PTR __$ArrayPad$[ebp], eax
  00010	8b 45 08	 mov	 eax, DWORD PTR _k$[ebp]

; 102  : 		_ENCSTR(k, _k);

  00013	8a 10		 mov	 dl, BYTE PTR [eax]
  00015	56		 push	 esi
  00016	8b f1		 mov	 esi, ecx
  00018	84 d2		 test	 dl, dl
  0001a	0f 84 cf 01 00
	00		 je	 $LN96@LoadBool_e
  00020	80 f2 ed	 xor	 dl, -19			; ffffffedH
  00023	88 55 e4	 mov	 BYTE PTR __k$[ebp], dl
  00026	8a 50 01	 mov	 dl, BYTE PTR [eax+1]
  00029	84 d2		 test	 dl, dl
  0002b	0f 84 b8 01 00
	00		 je	 $LN95@LoadBool_e
  00031	b1 ec		 mov	 cl, -20			; ffffffecH
  00033	32 d1		 xor	 dl, cl
  00035	88 55 e5	 mov	 BYTE PTR __k$[ebp+1], dl
  00038	8a 50 02	 mov	 dl, BYTE PTR [eax+2]
  0003b	84 d2		 test	 dl, dl
  0003d	0f 84 a0 01 00
	00		 je	 $LN94@LoadBool_e
  00043	80 f2 eb	 xor	 dl, -21			; ffffffebH
  00046	88 55 e6	 mov	 BYTE PTR __k$[ebp+2], dl
  00049	8a 50 03	 mov	 dl, BYTE PTR [eax+3]
  0004c	84 d2		 test	 dl, dl
  0004e	0f 84 89 01 00
	00		 je	 $LN93@LoadBool_e
  00054	80 f2 ea	 xor	 dl, -22			; ffffffeaH
  00057	88 55 e7	 mov	 BYTE PTR __k$[ebp+3], dl
  0005a	8a 50 04	 mov	 dl, BYTE PTR [eax+4]
  0005d	84 d2		 test	 dl, dl
  0005f	0f 84 72 01 00
	00		 je	 $LN92@LoadBool_e
  00065	80 f2 ed	 xor	 dl, -19			; ffffffedH
  00068	88 55 e8	 mov	 BYTE PTR __k$[ebp+4], dl
  0006b	8a 50 05	 mov	 dl, BYTE PTR [eax+5]
  0006e	84 d2		 test	 dl, dl
  00070	0f 84 5c 01 00
	00		 je	 $LN91@LoadBool_e
  00076	32 d1		 xor	 dl, cl
  00078	88 55 e9	 mov	 BYTE PTR __k$[ebp+5], dl
  0007b	8a 50 06	 mov	 dl, BYTE PTR [eax+6]
  0007e	84 d2		 test	 dl, dl
  00080	0f 84 46 01 00
	00		 je	 $LN90@LoadBool_e
  00086	80 f2 eb	 xor	 dl, -21			; ffffffebH
  00089	88 55 ea	 mov	 BYTE PTR __k$[ebp+6], dl
  0008c	8a 50 07	 mov	 dl, BYTE PTR [eax+7]
  0008f	84 d2		 test	 dl, dl
  00091	0f 84 2f 01 00
	00		 je	 $LN89@LoadBool_e
  00097	80 f2 ea	 xor	 dl, -22			; ffffffeaH
  0009a	88 55 eb	 mov	 BYTE PTR __k$[ebp+7], dl
  0009d	8a 50 08	 mov	 dl, BYTE PTR [eax+8]
  000a0	84 d2		 test	 dl, dl
  000a2	0f 84 18 01 00
	00		 je	 $LN88@LoadBool_e
  000a8	80 f2 ed	 xor	 dl, -19			; ffffffedH
  000ab	88 55 ec	 mov	 BYTE PTR __k$[ebp+8], dl
  000ae	8a 50 09	 mov	 dl, BYTE PTR [eax+9]
  000b1	84 d2		 test	 dl, dl
  000b3	0f 84 02 01 00
	00		 je	 $LN87@LoadBool_e
  000b9	32 d1		 xor	 dl, cl
  000bb	88 55 ed	 mov	 BYTE PTR __k$[ebp+9], dl
  000be	8a 50 0a	 mov	 dl, BYTE PTR [eax+10]
  000c1	84 d2		 test	 dl, dl
  000c3	0f 84 ec 00 00
	00		 je	 $LN86@LoadBool_e
  000c9	80 f2 eb	 xor	 dl, -21			; ffffffebH
  000cc	88 55 ee	 mov	 BYTE PTR __k$[ebp+10], dl
  000cf	8a 50 0b	 mov	 dl, BYTE PTR [eax+11]
  000d2	84 d2		 test	 dl, dl
  000d4	0f 84 d5 00 00
	00		 je	 $LN85@LoadBool_e
  000da	80 f2 ea	 xor	 dl, -22			; ffffffeaH
  000dd	88 55 ef	 mov	 BYTE PTR __k$[ebp+11], dl
  000e0	8a 50 0c	 mov	 dl, BYTE PTR [eax+12]
  000e3	84 d2		 test	 dl, dl
  000e5	0f 84 be 00 00
	00		 je	 $LN84@LoadBool_e
  000eb	80 f2 ed	 xor	 dl, -19			; ffffffedH
  000ee	88 55 f0	 mov	 BYTE PTR __k$[ebp+12], dl
  000f1	8a 50 0d	 mov	 dl, BYTE PTR [eax+13]
  000f4	84 d2		 test	 dl, dl
  000f6	0f 84 a8 00 00
	00		 je	 $LN83@LoadBool_e
  000fc	32 d1		 xor	 dl, cl
  000fe	88 55 f1	 mov	 BYTE PTR __k$[ebp+13], dl
  00101	8a 50 0e	 mov	 dl, BYTE PTR [eax+14]
  00104	84 d2		 test	 dl, dl
  00106	0f 84 92 00 00
	00		 je	 $LN82@LoadBool_e
  0010c	80 f2 eb	 xor	 dl, -21			; ffffffebH
  0010f	88 55 f2	 mov	 BYTE PTR __k$[ebp+14], dl
  00112	8a 50 0f	 mov	 dl, BYTE PTR [eax+15]
  00115	84 d2		 test	 dl, dl
  00117	74 7f		 je	 SHORT $LN81@LoadBool_e
  00119	80 f2 ea	 xor	 dl, -22			; ffffffeaH
  0011c	88 55 f3	 mov	 BYTE PTR __k$[ebp+15], dl
  0011f	8a 50 10	 mov	 dl, BYTE PTR [eax+16]
  00122	84 d2		 test	 dl, dl
  00124	74 6c		 je	 SHORT $LN80@LoadBool_e
  00126	80 f2 ed	 xor	 dl, -19			; ffffffedH
  00129	88 55 f4	 mov	 BYTE PTR __k$[ebp+16], dl
  0012c	8a 50 11	 mov	 dl, BYTE PTR [eax+17]
  0012f	84 d2		 test	 dl, dl
  00131	74 5a		 je	 SHORT $LN79@LoadBool_e
  00133	32 d1		 xor	 dl, cl
  00135	80 78 12 00	 cmp	 BYTE PTR [eax+18], 0
  00139	88 55 f5	 mov	 BYTE PTR __k$[ebp+17], dl
  0013c	0f 84 b1 00 00
	00		 je	 $LN1@LoadBool_e
  00142	8a 50 13	 mov	 dl, BYTE PTR [eax+19]
  00145	84 d2		 test	 dl, dl
  00147	74 3e		 je	 SHORT $LN77@LoadBool_e
  00149	80 f2 ea	 xor	 dl, -22			; ffffffeaH
  0014c	88 55 f7	 mov	 BYTE PTR __k$[ebp+19], dl
  0014f	8a 50 14	 mov	 dl, BYTE PTR [eax+20]
  00152	84 d2		 test	 dl, dl
  00154	74 2b		 je	 SHORT $LN76@LoadBool_e
  00156	80 f2 ed	 xor	 dl, -19			; ffffffedH
  00159	88 55 f8	 mov	 BYTE PTR __k$[ebp+20], dl
  0015c	8a 50 15	 mov	 dl, BYTE PTR [eax+21]
  0015f	84 d2		 test	 dl, dl
  00161	74 19		 je	 SHORT $LN75@LoadBool_e
  00163	8a 40 16	 mov	 al, BYTE PTR [eax+22]
  00166	32 d1		 xor	 dl, cl
  00168	88 55 f9	 mov	 BYTE PTR __k$[ebp+21], dl
  0016b	84 c0		 test	 al, al
  0016d	74 07		 je	 SHORT $LN74@LoadBool_e
  0016f	34 eb		 xor	 al, -21			; ffffffebH
  00171	88 45 fa	 mov	 BYTE PTR __k$[ebp+22], al
  00174	eb 7d		 jmp	 SHORT $LN1@LoadBool_e
$LN74@LoadBool_e:
  00176	c6 45 fa eb	 mov	 BYTE PTR __k$[ebp+22], -21 ; ffffffebH
  0017a	eb 77		 jmp	 SHORT $LN1@LoadBool_e
$LN75@LoadBool_e:
  0017c	88 4d f9	 mov	 BYTE PTR __k$[ebp+21], cl
  0017f	eb 72		 jmp	 SHORT $LN1@LoadBool_e
$LN76@LoadBool_e:
  00181	c6 45 f8 ed	 mov	 BYTE PTR __k$[ebp+20], -19 ; ffffffedH
  00185	eb 6c		 jmp	 SHORT $LN1@LoadBool_e
$LN77@LoadBool_e:
  00187	c6 45 f7 ea	 mov	 BYTE PTR __k$[ebp+19], -22 ; ffffffeaH
  0018b	eb 66		 jmp	 SHORT $LN1@LoadBool_e
$LN79@LoadBool_e:
  0018d	88 4d f5	 mov	 BYTE PTR __k$[ebp+17], cl
  00190	eb 61		 jmp	 SHORT $LN1@LoadBool_e
$LN80@LoadBool_e:
  00192	c6 45 f4 ed	 mov	 BYTE PTR __k$[ebp+16], -19 ; ffffffedH
  00196	eb 5b		 jmp	 SHORT $LN1@LoadBool_e
$LN81@LoadBool_e:
  00198	c6 45 f3 ea	 mov	 BYTE PTR __k$[ebp+15], -22 ; ffffffeaH
  0019c	eb 55		 jmp	 SHORT $LN1@LoadBool_e
$LN82@LoadBool_e:
  0019e	c6 45 f2 eb	 mov	 BYTE PTR __k$[ebp+14], -21 ; ffffffebH
  001a2	eb 4f		 jmp	 SHORT $LN1@LoadBool_e
$LN83@LoadBool_e:
  001a4	88 4d f1	 mov	 BYTE PTR __k$[ebp+13], cl
  001a7	eb 4a		 jmp	 SHORT $LN1@LoadBool_e
$LN84@LoadBool_e:
  001a9	c6 45 f0 ed	 mov	 BYTE PTR __k$[ebp+12], -19 ; ffffffedH
  001ad	eb 44		 jmp	 SHORT $LN1@LoadBool_e
$LN85@LoadBool_e:
  001af	c6 45 ef ea	 mov	 BYTE PTR __k$[ebp+11], -22 ; ffffffeaH
  001b3	eb 3e		 jmp	 SHORT $LN1@LoadBool_e
$LN86@LoadBool_e:
  001b5	c6 45 ee eb	 mov	 BYTE PTR __k$[ebp+10], -21 ; ffffffebH
  001b9	eb 38		 jmp	 SHORT $LN1@LoadBool_e
$LN87@LoadBool_e:
  001bb	88 4d ed	 mov	 BYTE PTR __k$[ebp+9], cl
  001be	eb 33		 jmp	 SHORT $LN1@LoadBool_e
$LN88@LoadBool_e:
  001c0	c6 45 ec ed	 mov	 BYTE PTR __k$[ebp+8], -19 ; ffffffedH
  001c4	eb 2d		 jmp	 SHORT $LN1@LoadBool_e
$LN89@LoadBool_e:
  001c6	c6 45 eb ea	 mov	 BYTE PTR __k$[ebp+7], -22 ; ffffffeaH
  001ca	eb 27		 jmp	 SHORT $LN1@LoadBool_e
$LN90@LoadBool_e:
  001cc	c6 45 ea eb	 mov	 BYTE PTR __k$[ebp+6], -21 ; ffffffebH
  001d0	eb 21		 jmp	 SHORT $LN1@LoadBool_e
$LN91@LoadBool_e:
  001d2	88 4d e9	 mov	 BYTE PTR __k$[ebp+5], cl
  001d5	eb 1c		 jmp	 SHORT $LN1@LoadBool_e
$LN92@LoadBool_e:
  001d7	c6 45 e8 ed	 mov	 BYTE PTR __k$[ebp+4], -19 ; ffffffedH
  001db	eb 16		 jmp	 SHORT $LN1@LoadBool_e
$LN93@LoadBool_e:
  001dd	c6 45 e7 ea	 mov	 BYTE PTR __k$[ebp+3], -22 ; ffffffeaH
  001e1	eb 10		 jmp	 SHORT $LN1@LoadBool_e
$LN94@LoadBool_e:
  001e3	c6 45 e6 eb	 mov	 BYTE PTR __k$[ebp+2], -21 ; ffffffebH
  001e7	eb 0a		 jmp	 SHORT $LN1@LoadBool_e
$LN95@LoadBool_e:
  001e9	c6 45 e5 ec	 mov	 BYTE PTR __k$[ebp+1], -20 ; ffffffecH
  001ed	eb 04		 jmp	 SHORT $LN1@LoadBool_e
$LN96@LoadBool_e:
  001ef	c6 45 e4 ed	 mov	 BYTE PTR __k$[ebp], -19	; ffffffedH
$LN1@LoadBool_e:
  001f3	6a 04		 push	 4
  001f5	8d 45 e4	 lea	 eax, DWORD PTR __k$[ebp]
  001f8	c6 45 f6 00	 mov	 BYTE PTR __k$[ebp+18], 0
  001fc	5a		 pop	 edx
$LL104@LoadBool_e:
  001fd	81 30 ed ec eb
	ea		 xor	 DWORD PTR [eax], -353637139 ; eaebecedH
  00203	83 c0 04	 add	 eax, 4
  00206	4a		 dec	 edx
  00207	75 f4		 jne	 SHORT $LL104@LoadBool_e
  00209	6a 10		 push	 16			; 00000010H
  0020b	58		 pop	 eax
$LL101@LoadBool_e:
  0020c	8b c8		 mov	 ecx, eax
  0020e	81 e1 03 00 00
	80		 and	 ecx, -2147483645	; 80000003H
  00214	79 05		 jns	 SHORT $LN111@LoadBool_e
  00216	49		 dec	 ecx
  00217	83 c9 fc	 or	 ecx, -4			; fffffffcH
  0021a	41		 inc	 ecx
$LN111@LoadBool_e:
  0021b	b2 ed		 mov	 dl, -19			; ffffffedH
  0021d	2a d1		 sub	 dl, cl
  0021f	30 54 05 e4	 xor	 BYTE PTR __k$[ebp+eax], dl
  00223	40		 inc	 eax
  00224	83 f8 12	 cmp	 eax, 18			; 00000012H
  00227	7c e3		 jl	 SHORT $LL101@LoadBool_e

; 103  : 		return LoadBool(_k, b);

  00229	ff 75 0c	 push	 DWORD PTR _b$[ebp]
  0022c	8d 45 e4	 lea	 eax, DWORD PTR __k$[ebp]
  0022f	50		 push	 eax
  00230	8b ce		 mov	 ecx, esi
  00232	ff 15 00 00 00
	00		 call	 DWORD PTR __imp_?LoadBool@ioINILoader@@QAE_NPBD_N@Z

; 104  : 	}

  00238	8b 4d fc	 mov	 ecx, DWORD PTR __$ArrayPad$[ebp]
  0023b	33 cd		 xor	 ecx, ebp
  0023d	5e		 pop	 esi
  0023e	e8 00 00 00 00	 call	 @__security_check_cookie@4
  00243	c9		 leave
  00244	c2 08 00	 ret	 8
??$LoadBool_e@$0BD@@ioINILoader@@QAE_NAAY0BD@$$CBD_N@Z ENDP ; ioINILoader::LoadBool_e<19>
_TEXT	ENDS
PUBLIC	__$ArrayPad$
PUBLIC	??$LoadBool_e@$0BG@@ioINILoader@@QAE_NAAY0BG@$$CBD_N@Z ; ioINILoader::LoadBool_e<22>
; Function compile flags: /Ogsp
;	COMDAT ??$LoadBool_e@$0BG@@ioINILoader@@QAE_NAAY0BG@$$CBD_N@Z
_TEXT	SEGMENT
__k$ = -32						; size = 22
__$ArrayPad$ = -4					; size = 4
_k$ = 8							; size = 4
_b$ = 12						; size = 1
??$LoadBool_e@$0BG@@ioINILoader@@QAE_NAAY0BG@$$CBD_N@Z PROC ; ioINILoader::LoadBool_e<22>, COMDAT
; _this$ = ecx

; 101  : 	{

  00000	55		 push	 ebp
  00001	8b ec		 mov	 ebp, esp
  00003	83 ec 20	 sub	 esp, 32			; 00000020H
  00006	a1 00 00 00 00	 mov	 eax, DWORD PTR ___security_cookie
  0000b	33 c5		 xor	 eax, ebp
  0000d	89 45 fc	 mov	 DWORD PTR __$ArrayPad$[ebp], eax
  00010	8b 45 08	 mov	 eax, DWORD PTR _k$[ebp]

; 102  : 		_ENCSTR(k, _k);

  00013	8a 10		 mov	 dl, BYTE PTR [eax]
  00015	53		 push	 ebx
  00016	56		 push	 esi
  00017	8b f1		 mov	 esi, ecx
  00019	84 d2		 test	 dl, dl
  0001b	0f 84 15 02 00
	00		 je	 $LN96@LoadBool_e@2
  00021	80 f2 ed	 xor	 dl, -19			; ffffffedH
  00024	88 55 e0	 mov	 BYTE PTR __k$[ebp], dl
  00027	8a 50 01	 mov	 dl, BYTE PTR [eax+1]
  0002a	84 d2		 test	 dl, dl
  0002c	0f 84 fe 01 00
	00		 je	 $LN95@LoadBool_e@2
  00032	80 f2 ec	 xor	 dl, -20			; ffffffecH
  00035	88 55 e1	 mov	 BYTE PTR __k$[ebp+1], dl
  00038	8a 50 02	 mov	 dl, BYTE PTR [eax+2]
  0003b	84 d2		 test	 dl, dl
  0003d	0f 84 e7 01 00
	00		 je	 $LN94@LoadBool_e@2
  00043	b1 eb		 mov	 cl, -21			; ffffffebH
  00045	32 d1		 xor	 dl, cl
  00047	88 55 e2	 mov	 BYTE PTR __k$[ebp+2], dl
  0004a	8a 50 03	 mov	 dl, BYTE PTR [eax+3]
  0004d	84 d2		 test	 dl, dl
  0004f	0f 84 cf 01 00
	00		 je	 $LN93@LoadBool_e@2
  00055	b3 ea		 mov	 bl, -22			; ffffffeaH
  00057	32 d3		 xor	 dl, bl
  00059	88 55 e3	 mov	 BYTE PTR __k$[ebp+3], dl
  0005c	8a 50 04	 mov	 dl, BYTE PTR [eax+4]
  0005f	84 d2		 test	 dl, dl
  00061	0f 84 b7 01 00
	00		 je	 $LN92@LoadBool_e@2
  00067	80 f2 ed	 xor	 dl, -19			; ffffffedH
  0006a	88 55 e4	 mov	 BYTE PTR __k$[ebp+4], dl
  0006d	8a 50 05	 mov	 dl, BYTE PTR [eax+5]
  00070	84 d2		 test	 dl, dl
  00072	0f 84 a0 01 00
	00		 je	 $LN91@LoadBool_e@2
  00078	80 f2 ec	 xor	 dl, -20			; ffffffecH
  0007b	88 55 e5	 mov	 BYTE PTR __k$[ebp+5], dl
  0007e	8a 50 06	 mov	 dl, BYTE PTR [eax+6]
  00081	84 d2		 test	 dl, dl
  00083	0f 84 8a 01 00
	00		 je	 $LN90@LoadBool_e@2
  00089	32 d1		 xor	 dl, cl
  0008b	88 55 e6	 mov	 BYTE PTR __k$[ebp+6], dl
  0008e	8a 50 07	 mov	 dl, BYTE PTR [eax+7]
  00091	84 d2		 test	 dl, dl
  00093	0f 84 75 01 00
	00		 je	 $LN89@LoadBool_e@2
  00099	32 d3		 xor	 dl, bl
  0009b	88 55 e7	 mov	 BYTE PTR __k$[ebp+7], dl
  0009e	8a 50 08	 mov	 dl, BYTE PTR [eax+8]
  000a1	84 d2		 test	 dl, dl
  000a3	0f 84 5f 01 00
	00		 je	 $LN88@LoadBool_e@2
  000a9	80 f2 ed	 xor	 dl, -19			; ffffffedH
  000ac	88 55 e8	 mov	 BYTE PTR __k$[ebp+8], dl
  000af	8a 50 09	 mov	 dl, BYTE PTR [eax+9]
  000b2	84 d2		 test	 dl, dl
  000b4	0f 84 48 01 00
	00		 je	 $LN87@LoadBool_e@2
  000ba	80 f2 ec	 xor	 dl, -20			; ffffffecH
  000bd	88 55 e9	 mov	 BYTE PTR __k$[ebp+9], dl
  000c0	8a 50 0a	 mov	 dl, BYTE PTR [eax+10]
  000c3	84 d2		 test	 dl, dl
  000c5	0f 84 32 01 00
	00		 je	 $LN86@LoadBool_e@2
  000cb	32 d1		 xor	 dl, cl
  000cd	88 55 ea	 mov	 BYTE PTR __k$[ebp+10], dl
  000d0	8a 50 0b	 mov	 dl, BYTE PTR [eax+11]
  000d3	84 d2		 test	 dl, dl
  000d5	0f 84 1d 01 00
	00		 je	 $LN85@LoadBool_e@2
  000db	32 d3		 xor	 dl, bl
  000dd	88 55 eb	 mov	 BYTE PTR __k$[ebp+11], dl
  000e0	8a 50 0c	 mov	 dl, BYTE PTR [eax+12]
  000e3	84 d2		 test	 dl, dl
  000e5	0f 84 07 01 00
	00		 je	 $LN84@LoadBool_e@2
  000eb	80 f2 ed	 xor	 dl, -19			; ffffffedH
  000ee	88 55 ec	 mov	 BYTE PTR __k$[ebp+12], dl
  000f1	8a 50 0d	 mov	 dl, BYTE PTR [eax+13]
  000f4	84 d2		 test	 dl, dl
  000f6	0f 84 f0 00 00
	00		 je	 $LN83@LoadBool_e@2
  000fc	80 f2 ec	 xor	 dl, -20			; ffffffecH
  000ff	88 55 ed	 mov	 BYTE PTR __k$[ebp+13], dl
  00102	8a 50 0e	 mov	 dl, BYTE PTR [eax+14]
  00105	84 d2		 test	 dl, dl
  00107	0f 84 da 00 00
	00		 je	 $LN82@LoadBool_e@2
  0010d	32 d1		 xor	 dl, cl
  0010f	88 55 ee	 mov	 BYTE PTR __k$[ebp+14], dl
  00112	8a 50 0f	 mov	 dl, BYTE PTR [eax+15]
  00115	84 d2		 test	 dl, dl
  00117	0f 84 c5 00 00
	00		 je	 $LN81@LoadBool_e@2
  0011d	32 d3		 xor	 dl, bl
  0011f	88 55 ef	 mov	 BYTE PTR __k$[ebp+15], dl
  00122	8a 50 10	 mov	 dl, BYTE PTR [eax+16]
  00125	84 d2		 test	 dl, dl
  00127	0f 84 af 00 00
	00		 je	 $LN80@LoadBool_e@2
  0012d	80 f2 ed	 xor	 dl, -19			; ffffffedH
  00130	88 55 f0	 mov	 BYTE PTR __k$[ebp+16], dl
  00133	8a 50 11	 mov	 dl, BYTE PTR [eax+17]
  00136	84 d2		 test	 dl, dl
  00138	0f 84 98 00 00
	00		 je	 $LN79@LoadBool_e@2
  0013e	80 f2 ec	 xor	 dl, -20			; ffffffecH
  00141	88 55 f1	 mov	 BYTE PTR __k$[ebp+17], dl
  00144	8a 50 12	 mov	 dl, BYTE PTR [eax+18]
  00147	84 d2		 test	 dl, dl
  00149	0f 84 82 00 00
	00		 je	 $LN78@LoadBool_e@2
  0014f	32 d1		 xor	 dl, cl
  00151	88 55 f2	 mov	 BYTE PTR __k$[ebp+18], dl
  00154	8a 50 13	 mov	 dl, BYTE PTR [eax+19]
  00157	84 d2		 test	 dl, dl
  00159	74 71		 je	 SHORT $LN77@LoadBool_e@2
  0015b	32 d3		 xor	 dl, bl
  0015d	88 55 f3	 mov	 BYTE PTR __k$[ebp+19], dl
  00160	8a 50 14	 mov	 dl, BYTE PTR [eax+20]
  00163	84 d2		 test	 dl, dl
  00165	74 5f		 je	 SHORT $LN76@LoadBool_e@2
  00167	80 f2 ed	 xor	 dl, -19			; ffffffedH
  0016a	80 78 15 00	 cmp	 BYTE PTR [eax+21], 0
  0016e	88 55 f4	 mov	 BYTE PTR __k$[ebp+20], dl
  00171	0f 84 c3 00 00
	00		 je	 $LN1@LoadBool_e@2
  00177	8a 50 16	 mov	 dl, BYTE PTR [eax+22]
  0017a	84 d2		 test	 dl, dl
  0017c	74 43		 je	 SHORT $LN74@LoadBool_e@2
  0017e	32 d1		 xor	 dl, cl
  00180	88 55 f6	 mov	 BYTE PTR __k$[ebp+22], dl
  00183	8a 50 17	 mov	 dl, BYTE PTR [eax+23]
  00186	84 d2		 test	 dl, dl
  00188	74 32		 je	 SHORT $LN73@LoadBool_e@2
  0018a	32 d3		 xor	 dl, bl
  0018c	88 55 f7	 mov	 BYTE PTR __k$[ebp+23], dl
  0018f	8a 50 18	 mov	 dl, BYTE PTR [eax+24]
  00192	84 d2		 test	 dl, dl
  00194	74 20		 je	 SHORT $LN72@LoadBool_e@2
  00196	8a 40 19	 mov	 al, BYTE PTR [eax+25]
  00199	80 f2 ed	 xor	 dl, -19			; ffffffedH
  0019c	88 55 f8	 mov	 BYTE PTR __k$[ebp+24], dl
  0019f	84 c0		 test	 al, al
  001a1	74 0a		 je	 SHORT $LN71@LoadBool_e@2
  001a3	34 ec		 xor	 al, -20			; ffffffecH
  001a5	88 45 f9	 mov	 BYTE PTR __k$[ebp+25], al
  001a8	e9 8d 00 00 00	 jmp	 $LN1@LoadBool_e@2
$LN71@LoadBool_e@2:
  001ad	c6 45 f9 ec	 mov	 BYTE PTR __k$[ebp+25], -20 ; ffffffecH
  001b1	e9 84 00 00 00	 jmp	 $LN1@LoadBool_e@2
$LN72@LoadBool_e@2:
  001b6	c6 45 f8 ed	 mov	 BYTE PTR __k$[ebp+24], -19 ; ffffffedH
  001ba	eb 7e		 jmp	 SHORT $LN1@LoadBool_e@2
$LN73@LoadBool_e@2:
  001bc	88 5d f7	 mov	 BYTE PTR __k$[ebp+23], bl
  001bf	eb 79		 jmp	 SHORT $LN1@LoadBool_e@2
$LN74@LoadBool_e@2:
  001c1	88 4d f6	 mov	 BYTE PTR __k$[ebp+22], cl
  001c4	eb 74		 jmp	 SHORT $LN1@LoadBool_e@2
$LN76@LoadBool_e@2:
  001c6	c6 45 f4 ed	 mov	 BYTE PTR __k$[ebp+20], -19 ; ffffffedH
  001ca	eb 6e		 jmp	 SHORT $LN1@LoadBool_e@2
$LN77@LoadBool_e@2:
  001cc	88 5d f3	 mov	 BYTE PTR __k$[ebp+19], bl
  001cf	eb 69		 jmp	 SHORT $LN1@LoadBool_e@2
$LN78@LoadBool_e@2:
  001d1	88 4d f2	 mov	 BYTE PTR __k$[ebp+18], cl
  001d4	eb 64		 jmp	 SHORT $LN1@LoadBool_e@2
$LN79@LoadBool_e@2:
  001d6	c6 45 f1 ec	 mov	 BYTE PTR __k$[ebp+17], -20 ; ffffffecH
  001da	eb 5e		 jmp	 SHORT $LN1@LoadBool_e@2
$LN80@LoadBool_e@2:
  001dc	c6 45 f0 ed	 mov	 BYTE PTR __k$[ebp+16], -19 ; ffffffedH
  001e0	eb 58		 jmp	 SHORT $LN1@LoadBool_e@2
$LN81@LoadBool_e@2:
  001e2	88 5d ef	 mov	 BYTE PTR __k$[ebp+15], bl
  001e5	eb 53		 jmp	 SHORT $LN1@LoadBool_e@2
$LN82@LoadBool_e@2:
  001e7	88 4d ee	 mov	 BYTE PTR __k$[ebp+14], cl
  001ea	eb 4e		 jmp	 SHORT $LN1@LoadBool_e@2
$LN83@LoadBool_e@2:
  001ec	c6 45 ed ec	 mov	 BYTE PTR __k$[ebp+13], -20 ; ffffffecH
  001f0	eb 48		 jmp	 SHORT $LN1@LoadBool_e@2
$LN84@LoadBool_e@2:
  001f2	c6 45 ec ed	 mov	 BYTE PTR __k$[ebp+12], -19 ; ffffffedH
  001f6	eb 42		 jmp	 SHORT $LN1@LoadBool_e@2
$LN85@LoadBool_e@2:
  001f8	88 5d eb	 mov	 BYTE PTR __k$[ebp+11], bl
  001fb	eb 3d		 jmp	 SHORT $LN1@LoadBool_e@2
$LN86@LoadBool_e@2:
  001fd	88 4d ea	 mov	 BYTE PTR __k$[ebp+10], cl
  00200	eb 38		 jmp	 SHORT $LN1@LoadBool_e@2
$LN87@LoadBool_e@2:
  00202	c6 45 e9 ec	 mov	 BYTE PTR __k$[ebp+9], -20 ; ffffffecH
  00206	eb 32		 jmp	 SHORT $LN1@LoadBool_e@2
$LN88@LoadBool_e@2:
  00208	c6 45 e8 ed	 mov	 BYTE PTR __k$[ebp+8], -19 ; ffffffedH
  0020c	eb 2c		 jmp	 SHORT $LN1@LoadBool_e@2
$LN89@LoadBool_e@2:
  0020e	88 5d e7	 mov	 BYTE PTR __k$[ebp+7], bl
  00211	eb 27		 jmp	 SHORT $LN1@LoadBool_e@2
$LN90@LoadBool_e@2:
  00213	88 4d e6	 mov	 BYTE PTR __k$[ebp+6], cl
  00216	eb 22		 jmp	 SHORT $LN1@LoadBool_e@2
$LN91@LoadBool_e@2:
  00218	c6 45 e5 ec	 mov	 BYTE PTR __k$[ebp+5], -20 ; ffffffecH
  0021c	eb 1c		 jmp	 SHORT $LN1@LoadBool_e@2
$LN92@LoadBool_e@2:
  0021e	c6 45 e4 ed	 mov	 BYTE PTR __k$[ebp+4], -19 ; ffffffedH
  00222	eb 16		 jmp	 SHORT $LN1@LoadBool_e@2
$LN93@LoadBool_e@2:
  00224	c6 45 e3 ea	 mov	 BYTE PTR __k$[ebp+3], -22 ; ffffffeaH
  00228	eb 10		 jmp	 SHORT $LN1@LoadBool_e@2
$LN94@LoadBool_e@2:
  0022a	c6 45 e2 eb	 mov	 BYTE PTR __k$[ebp+2], -21 ; ffffffebH
  0022e	eb 0a		 jmp	 SHORT $LN1@LoadBool_e@2
$LN95@LoadBool_e@2:
  00230	c6 45 e1 ec	 mov	 BYTE PTR __k$[ebp+1], -20 ; ffffffecH
  00234	eb 04		 jmp	 SHORT $LN1@LoadBool_e@2
$LN96@LoadBool_e@2:
  00236	c6 45 e0 ed	 mov	 BYTE PTR __k$[ebp], -19	; ffffffedH
$LN1@LoadBool_e@2:
  0023a	6a 05		 push	 5
  0023c	8d 45 e0	 lea	 eax, DWORD PTR __k$[ebp]
  0023f	c6 45 f5 00	 mov	 BYTE PTR __k$[ebp+21], 0
  00243	5a		 pop	 edx
$LL104@LoadBool_e@2:
  00244	81 30 ed ec eb
	ea		 xor	 DWORD PTR [eax], -353637139 ; eaebecedH
  0024a	83 c0 04	 add	 eax, 4
  0024d	4a		 dec	 edx
  0024e	75 f4		 jne	 SHORT $LL104@LoadBool_e@2

; 103  : 		return LoadBool(_k, b);

  00250	ff 75 0c	 push	 DWORD PTR _b$[ebp]
  00253	80 75 f4 ed	 xor	 BYTE PTR __k$[ebp+20], -19 ; ffffffedH
  00257	8d 45 e0	 lea	 eax, DWORD PTR __k$[ebp]
  0025a	50		 push	 eax
  0025b	8b ce		 mov	 ecx, esi
  0025d	ff 15 00 00 00
	00		 call	 DWORD PTR __imp_?LoadBool@ioINILoader@@QAE_NPBD_N@Z

; 104  : 	}

  00263	8b 4d fc	 mov	 ecx, DWORD PTR __$ArrayPad$[ebp]
  00266	5e		 pop	 esi
  00267	33 cd		 xor	 ecx, ebp
  00269	5b		 pop	 ebx
  0026a	e8 00 00 00 00	 call	 @__security_check_cookie@4
  0026f	c9		 leave
  00270	c2 08 00	 ret	 8
??$LoadBool_e@$0BG@@ioINILoader@@QAE_NAAY0BG@$$CBD_N@Z ENDP ; ioINILoader::LoadBool_e<22>
_TEXT	ENDS
PUBLIC	_this$GSCopy$
PUBLIC	__$ArrayPad$
PUBLIC	??$LoadString_e@$0O@@ioINILoader@@QAEXAAY0O@$$CBDAAY00$$CBDPADH@Z ; ioINILoader::LoadString_e<14>
EXTRN	__imp_?LoadStringA@ioINILoader@@QAEXPBD0PADH@Z:PROC
; Function compile flags: /Ogsp
;	COMDAT ??$LoadString_e@$0O@@ioINILoader@@QAEXAAY0O@$$CBDAAY00$$CBDPADH@Z
_TEXT	SEGMENT
_this$GSCopy$ = -28					; size = 4
__k$ = -24						; size = 14
__$ArrayPad$ = -4					; size = 4
_k$ = 8							; size = 4
_d$ = 12						; size = 4
_b$ = 16						; size = 4
_i$ = 20						; size = 4
??$LoadString_e@$0O@@ioINILoader@@QAEXAAY0O@$$CBDAAY00$$CBDPADH@Z PROC ; ioINILoader::LoadString_e<14>, COMDAT
; _this$ = ecx

; 161  : 	{

  00000	55		 push	 ebp
  00001	8b ec		 mov	 ebp, esp
  00003	83 ec 1c	 sub	 esp, 28			; 0000001cH
  00006	a1 00 00 00 00	 mov	 eax, DWORD PTR ___security_cookie
  0000b	33 c5		 xor	 eax, ebp
  0000d	89 45 fc	 mov	 DWORD PTR __$ArrayPad$[ebp], eax
  00010	8b 45 08	 mov	 eax, DWORD PTR _k$[ebp]

; 162  : 		_ENCSTR(k, _k);

  00013	8a 10		 mov	 dl, BYTE PTR [eax]
  00015	56		 push	 esi
  00016	8b 75 0c	 mov	 esi, DWORD PTR _d$[ebp]
  00019	57		 push	 edi
  0001a	8b 7d 10	 mov	 edi, DWORD PTR _b$[ebp]
  0001d	89 4d e4	 mov	 DWORD PTR _this$GSCopy$[ebp], ecx
  00020	84 d2		 test	 dl, dl
  00022	0f 84 64 01 00
	00		 je	 $LN96@LoadString
  00028	80 f2 ed	 xor	 dl, -19			; ffffffedH
  0002b	88 55 e8	 mov	 BYTE PTR __k$[ebp], dl
  0002e	8a 50 01	 mov	 dl, BYTE PTR [eax+1]
  00031	84 d2		 test	 dl, dl
  00033	0f 84 4d 01 00
	00		 je	 $LN95@LoadString
  00039	80 f2 ec	 xor	 dl, -20			; ffffffecH
  0003c	88 55 e9	 mov	 BYTE PTR __k$[ebp+1], dl
  0003f	8a 50 02	 mov	 dl, BYTE PTR [eax+2]
  00042	84 d2		 test	 dl, dl
  00044	0f 84 36 01 00
	00		 je	 $LN94@LoadString
  0004a	b1 eb		 mov	 cl, -21			; ffffffebH
  0004c	32 d1		 xor	 dl, cl
  0004e	88 55 ea	 mov	 BYTE PTR __k$[ebp+2], dl
  00051	8a 50 03	 mov	 dl, BYTE PTR [eax+3]
  00054	84 d2		 test	 dl, dl
  00056	0f 84 1e 01 00
	00		 je	 $LN93@LoadString
  0005c	80 f2 ea	 xor	 dl, -22			; ffffffeaH
  0005f	88 55 eb	 mov	 BYTE PTR __k$[ebp+3], dl
  00062	8a 50 04	 mov	 dl, BYTE PTR [eax+4]
  00065	84 d2		 test	 dl, dl
  00067	0f 84 07 01 00
	00		 je	 $LN92@LoadString
  0006d	80 f2 ed	 xor	 dl, -19			; ffffffedH
  00070	88 55 ec	 mov	 BYTE PTR __k$[ebp+4], dl
  00073	8a 50 05	 mov	 dl, BYTE PTR [eax+5]
  00076	84 d2		 test	 dl, dl
  00078	0f 84 f0 00 00
	00		 je	 $LN91@LoadString
  0007e	80 f2 ec	 xor	 dl, -20			; ffffffecH
  00081	88 55 ed	 mov	 BYTE PTR __k$[ebp+5], dl
  00084	8a 50 06	 mov	 dl, BYTE PTR [eax+6]
  00087	84 d2		 test	 dl, dl
  00089	0f 84 da 00 00
	00		 je	 $LN90@LoadString
  0008f	32 d1		 xor	 dl, cl
  00091	88 55 ee	 mov	 BYTE PTR __k$[ebp+6], dl
  00094	8a 50 07	 mov	 dl, BYTE PTR [eax+7]
  00097	84 d2		 test	 dl, dl
  00099	0f 84 c4 00 00
	00		 je	 $LN89@LoadString
  0009f	80 f2 ea	 xor	 dl, -22			; ffffffeaH
  000a2	88 55 ef	 mov	 BYTE PTR __k$[ebp+7], dl
  000a5	8a 50 08	 mov	 dl, BYTE PTR [eax+8]
  000a8	84 d2		 test	 dl, dl
  000aa	0f 84 ad 00 00
	00		 je	 $LN88@LoadString
  000b0	80 f2 ed	 xor	 dl, -19			; ffffffedH
  000b3	88 55 f0	 mov	 BYTE PTR __k$[ebp+8], dl
  000b6	8a 50 09	 mov	 dl, BYTE PTR [eax+9]
  000b9	84 d2		 test	 dl, dl
  000bb	0f 84 96 00 00
	00		 je	 $LN87@LoadString
  000c1	80 f2 ec	 xor	 dl, -20			; ffffffecH
  000c4	88 55 f1	 mov	 BYTE PTR __k$[ebp+9], dl
  000c7	8a 50 0a	 mov	 dl, BYTE PTR [eax+10]
  000ca	84 d2		 test	 dl, dl
  000cc	0f 84 80 00 00
	00		 je	 $LN86@LoadString
  000d2	32 d1		 xor	 dl, cl
  000d4	88 55 f2	 mov	 BYTE PTR __k$[ebp+10], dl
  000d7	8a 50 0b	 mov	 dl, BYTE PTR [eax+11]
  000da	84 d2		 test	 dl, dl
  000dc	74 6e		 je	 SHORT $LN85@LoadString
  000de	80 f2 ea	 xor	 dl, -22			; ffffffeaH
  000e1	88 55 f3	 mov	 BYTE PTR __k$[ebp+11], dl
  000e4	8a 50 0c	 mov	 dl, BYTE PTR [eax+12]
  000e7	84 d2		 test	 dl, dl
  000e9	74 5b		 je	 SHORT $LN84@LoadString
  000eb	80 f2 ed	 xor	 dl, -19			; ffffffedH
  000ee	80 78 0d 00	 cmp	 BYTE PTR [eax+13], 0
  000f2	88 55 f4	 mov	 BYTE PTR __k$[ebp+12], dl
  000f5	0f 84 95 00 00
	00		 je	 $LN111@LoadString
  000fb	8a 50 0e	 mov	 dl, BYTE PTR [eax+14]
  000fe	84 d2		 test	 dl, dl
  00100	74 3f		 je	 SHORT $LN82@LoadString
  00102	32 d1		 xor	 dl, cl
  00104	88 55 f6	 mov	 BYTE PTR __k$[ebp+14], dl
  00107	8a 50 0f	 mov	 dl, BYTE PTR [eax+15]
  0010a	84 d2		 test	 dl, dl
  0010c	74 2d		 je	 SHORT $LN81@LoadString
  0010e	80 f2 ea	 xor	 dl, -22			; ffffffeaH
  00111	88 55 f7	 mov	 BYTE PTR __k$[ebp+15], dl
  00114	8a 50 10	 mov	 dl, BYTE PTR [eax+16]
  00117	84 d2		 test	 dl, dl
  00119	74 1a		 je	 SHORT $LN80@LoadString
  0011b	8a 40 11	 mov	 al, BYTE PTR [eax+17]
  0011e	80 f2 ed	 xor	 dl, -19			; ffffffedH
  00121	88 55 f8	 mov	 BYTE PTR __k$[ebp+16], dl
  00124	84 c0		 test	 al, al
  00126	74 07		 je	 SHORT $LN79@LoadString
  00128	34 ec		 xor	 al, -20			; ffffffecH
  0012a	88 45 f9	 mov	 BYTE PTR __k$[ebp+17], al
  0012d	eb 61		 jmp	 SHORT $LN111@LoadString
$LN79@LoadString:
  0012f	c6 45 f9 ec	 mov	 BYTE PTR __k$[ebp+17], -20 ; ffffffecH
  00133	eb 5b		 jmp	 SHORT $LN111@LoadString
$LN80@LoadString:
  00135	c6 45 f8 ed	 mov	 BYTE PTR __k$[ebp+16], -19 ; ffffffedH
  00139	eb 55		 jmp	 SHORT $LN111@LoadString
$LN81@LoadString:
  0013b	c6 45 f7 ea	 mov	 BYTE PTR __k$[ebp+15], -22 ; ffffffeaH
  0013f	eb 4f		 jmp	 SHORT $LN111@LoadString
$LN82@LoadString:
  00141	88 4d f6	 mov	 BYTE PTR __k$[ebp+14], cl
  00144	eb 4a		 jmp	 SHORT $LN111@LoadString
$LN84@LoadString:
  00146	c6 45 f4 ed	 mov	 BYTE PTR __k$[ebp+12], -19 ; ffffffedH
  0014a	eb 44		 jmp	 SHORT $LN111@LoadString
$LN85@LoadString:
  0014c	c6 45 f3 ea	 mov	 BYTE PTR __k$[ebp+11], -22 ; ffffffeaH
  00150	eb 3e		 jmp	 SHORT $LN111@LoadString
$LN86@LoadString:
  00152	88 4d f2	 mov	 BYTE PTR __k$[ebp+10], cl
  00155	eb 39		 jmp	 SHORT $LN111@LoadString
$LN87@LoadString:
  00157	c6 45 f1 ec	 mov	 BYTE PTR __k$[ebp+9], -20 ; ffffffecH
  0015b	eb 33		 jmp	 SHORT $LN111@LoadString
$LN88@LoadString:
  0015d	c6 45 f0 ed	 mov	 BYTE PTR __k$[ebp+8], -19 ; ffffffedH
  00161	eb 2d		 jmp	 SHORT $LN111@LoadString
$LN89@LoadString:
  00163	c6 45 ef ea	 mov	 BYTE PTR __k$[ebp+7], -22 ; ffffffeaH
  00167	eb 27		 jmp	 SHORT $LN111@LoadString
$LN90@LoadString:
  00169	88 4d ee	 mov	 BYTE PTR __k$[ebp+6], cl
  0016c	eb 22		 jmp	 SHORT $LN111@LoadString
$LN91@LoadString:
  0016e	c6 45 ed ec	 mov	 BYTE PTR __k$[ebp+5], -20 ; ffffffecH
  00172	eb 1c		 jmp	 SHORT $LN111@LoadString
$LN92@LoadString:
  00174	c6 45 ec ed	 mov	 BYTE PTR __k$[ebp+4], -19 ; ffffffedH
  00178	eb 16		 jmp	 SHORT $LN111@LoadString
$LN93@LoadString:
  0017a	c6 45 eb ea	 mov	 BYTE PTR __k$[ebp+3], -22 ; ffffffeaH
  0017e	eb 10		 jmp	 SHORT $LN111@LoadString
$LN94@LoadString:
  00180	c6 45 ea eb	 mov	 BYTE PTR __k$[ebp+2], -21 ; ffffffebH
  00184	eb 0a		 jmp	 SHORT $LN111@LoadString
$LN95@LoadString:
  00186	c6 45 e9 ec	 mov	 BYTE PTR __k$[ebp+1], -20 ; ffffffecH
  0018a	eb 04		 jmp	 SHORT $LN111@LoadString
$LN96@LoadString:
  0018c	c6 45 e8 ed	 mov	 BYTE PTR __k$[ebp], -19	; ffffffedH
$LN111@LoadString:
  00190	6a 03		 push	 3
  00192	8d 45 e8	 lea	 eax, DWORD PTR __k$[ebp]
  00195	c6 45 f5 00	 mov	 BYTE PTR __k$[ebp+13], 0
  00199	5a		 pop	 edx
$LL104@LoadString:
  0019a	81 30 ed ec eb
	ea		 xor	 DWORD PTR [eax], -353637139 ; eaebecedH
  001a0	83 c0 04	 add	 eax, 4
  001a3	4a		 dec	 edx
  001a4	75 f4		 jne	 SHORT $LL104@LoadString

; 163  : 		LoadString(_k, d, b, i);

  001a6	ff 75 14	 push	 DWORD PTR _i$[ebp]
  001a9	8b 4d e4	 mov	 ecx, DWORD PTR _this$GSCopy$[ebp]
  001ac	80 75 f4 ed	 xor	 BYTE PTR __k$[ebp+12], -19 ; ffffffedH
  001b0	57		 push	 edi
  001b1	56		 push	 esi
  001b2	8d 45 e8	 lea	 eax, DWORD PTR __k$[ebp]
  001b5	50		 push	 eax
  001b6	ff 15 00 00 00
	00		 call	 DWORD PTR __imp_?LoadStringA@ioINILoader@@QAEXPBD0PADH@Z

; 164  : 	}

  001bc	8b 4d fc	 mov	 ecx, DWORD PTR __$ArrayPad$[ebp]
  001bf	5f		 pop	 edi
  001c0	33 cd		 xor	 ecx, ebp
  001c2	5e		 pop	 esi
  001c3	e8 00 00 00 00	 call	 @__security_check_cookie@4
  001c8	c9		 leave
  001c9	c2 10 00	 ret	 16			; 00000010H
??$LoadString_e@$0O@@ioINILoader@@QAEXAAY0O@$$CBDAAY00$$CBDPADH@Z ENDP ; ioINILoader::LoadString_e<14>
_TEXT	ENDS
PUBLIC	??B?$CEncrypt@M@@QAEMXZ				; CEncrypt<float>::operator float
; Function compile flags: /Ogsp
; File d:\lost saga for developer\youtube\tutorial\source\src\lsclient\encryptvalue.h
;	COMDAT ??B?$CEncrypt@M@@QAEMXZ
_TEXT	SEGMENT
_value$ = -4						; size = 4
??B?$CEncrypt@M@@QAEMXZ PROC				; CEncrypt<float>::operator float, COMDAT
; _this$ = ecx

; 134  : 	{

  00000	55		 push	 ebp
  00001	8b ec		 mov	 ebp, esp
  00003	51		 push	 ecx

; 135  : 		type value;
; 136  : 		DecryptValueToPool(&value);

  00004	8d 45 fc	 lea	 eax, DWORD PTR _value$[ebp]
  00007	50		 push	 eax
  00008	e8 00 00 00 00	 call	 ?DecryptValueToPool@?$CEncrypt@M@@QAEXPAM@Z ; CEncrypt<float>::DecryptValueToPool

; 137  : 
; 138  : #ifdef _NOTUSE
; 139  : 		Debug();
; 140  : #endif
; 141  : 		return value;

  0000d	d9 45 fc	 fld	 DWORD PTR _value$[ebp]

; 142  : 	}

  00010	c9		 leave
  00011	c3		 ret	 0
??B?$CEncrypt@M@@QAEMXZ ENDP				; CEncrypt<float>::operator float
_TEXT	ENDS
PUBLIC	?GetJumpState@ioBaseChar@@QBE?AW4JumpState@@XZ	; ioBaseChar::GetJumpState
; Function compile flags: /Ogsp
; File d:\lost saga for developer\youtube\tutorial\source\src\lsclient\iobasechar.h
;	COMDAT ?GetJumpState@ioBaseChar@@QBE?AW4JumpState@@XZ
_TEXT	SEGMENT
_value$524899 = -4					; size = 4
?GetJumpState@ioBaseChar@@QBE?AW4JumpState@@XZ PROC	; ioBaseChar::GetJumpState, COMDAT
; _this$ = ecx

; 2158 : 	inline JumpState GetJumpState() const { return m_JumpState; }

  00000	55		 push	 ebp
  00001	8b ec		 mov	 ebp, esp
  00003	51		 push	 ecx
  00004	8d 45 fc	 lea	 eax, DWORD PTR _value$524899[ebp]
  00007	50		 push	 eax
  00008	81 c1 40 0e 00
	00		 add	 ecx, 3648		; 00000e40H
  0000e	e8 00 00 00 00	 call	 ?DecryptValueToPool@?$CEncrypt@W4JumpState@@@@QAEXPAW4JumpState@@@Z ; CEncrypt<enum JumpState>::DecryptValueToPool
  00013	8b 45 fc	 mov	 eax, DWORD PTR _value$524899[ebp]
  00016	c9		 leave
  00017	c3		 ret	 0
?GetJumpState@ioBaseChar@@QBE?AW4JumpState@@XZ ENDP	; ioBaseChar::GetJumpState
_TEXT	ENDS
PUBLIC	??_C@_00CNPNBAHC@?$AA@				; `string'
PUBLIC	__$ArrayPad$
EXTRN	__imp_??4ioHashString@@QAEAAV0@PBD@Z:PROC
EXTRN	?LoadProperty@ioBuff@@UAEXAAVioINILoader@@@Z:PROC ; ioBuff::LoadProperty
;	COMDAT ??_C@_00CNPNBAHC@?$AA@
; File d:\lost saga for developer\youtube\tutorial\source\src\lsclient\stringprotect.h
CONST	SEGMENT
??_C@_00CNPNBAHC@?$AA@ DB 00H				; `string'
; Function compile flags: /Ogsp
; File d:\lost saga for developer\youtube\tutorial\source\src\lsclient\iochangesoldierbuff.cpp
CONST	ENDS
;	COMDAT ?LoadProperty@ioChangeSoldierBuff@@UAEXAAVioINILoader@@@Z
_TEXT	SEGMENT
_szBuf$ = -292						; size = 260
__k$525068 = -32					; size = 22
__k$524932 = -32					; size = 19
__k$525169 = -24					; size = 14
__$ArrayPad$ = -4					; size = 4
_rkLoader$ = 8						; size = 4
?LoadProperty@ioChangeSoldierBuff@@UAEXAAVioINILoader@@@Z PROC ; ioChangeSoldierBuff::LoadProperty, COMDAT
; _this$ = ecx

; 25   : {

  00000	55		 push	 ebp
  00001	8b ec		 mov	 ebp, esp
  00003	81 ec 24 01 00
	00		 sub	 esp, 292		; 00000124H
  00009	a1 00 00 00 00	 mov	 eax, DWORD PTR ___security_cookie
  0000e	33 c5		 xor	 eax, ebp
  00010	89 45 fc	 mov	 DWORD PTR __$ArrayPad$[ebp], eax
  00013	53		 push	 ebx
  00014	8b 5d 08	 mov	 ebx, DWORD PTR _rkLoader$[ebp]
  00017	57		 push	 edi

; 26   : 	ioBuff::LoadProperty( rkLoader );

  00018	53		 push	 ebx
  00019	8b f9		 mov	 edi, ecx
  0001b	e8 00 00 00 00	 call	 ?LoadProperty@ioBuff@@UAEXAAVioINILoader@@@Z ; ioBuff::LoadProperty

; 27   : 
; 28   : 	char szBuf[MAX_PATH];
; 29   : 
; 30   : 	m_bDisableDownState  = rkLoader.LoadBool_e( "disable_down_state", false );

  00020	6a 04		 push	 4
  00022	c7 45 e0 89 85
	98 8b		 mov	 DWORD PTR __k$524932[ebp], -1952938615 ; 8b988589H
  00029	c7 45 e4 8f 80
	8e b5		 mov	 DWORD PTR __k$524932[ebp+4], -1248952177 ; b58e808fH
  00030	c7 45 e8 89 83
	9c 84		 mov	 DWORD PTR __k$524932[ebp+8], -2070117495 ; 849c8389H
  00037	c7 45 ec b2 9f
	9f 8b		 mov	 DWORD PTR __k$524932[ebp+12], -1952473166 ; 8b9f9fb2H
  0003e	66 c7 45 f0 99
	89		 mov	 WORD PTR __k$524932[ebp+16], 35225 ; 00008999H
  00044	8d 45 e0	 lea	 eax, DWORD PTR __k$524932[ebp]
  00047	c6 45 f2 00	 mov	 BYTE PTR __k$524932[ebp+18], 0
  0004b	59		 pop	 ecx
$LL106@LoadProper:
  0004c	81 30 ed ec eb
	ea		 xor	 DWORD PTR [eax], -353637139 ; eaebecedH
  00052	83 c0 04	 add	 eax, 4
  00055	49		 dec	 ecx
  00056	75 f4		 jne	 SHORT $LL106@LoadProper
  00058	56		 push	 esi
  00059	6a 10		 push	 16			; 00000010H
  0005b	5e		 pop	 esi
$LL103@LoadProper:
  0005c	8b c6		 mov	 eax, esi
  0005e	25 03 00 00 80	 and	 eax, -2147483645	; 80000003H
  00063	79 05		 jns	 SHORT $LN333@LoadProper
  00065	48		 dec	 eax
  00066	83 c8 fc	 or	 eax, -4			; fffffffcH
  00069	40		 inc	 eax
$LN333@LoadProper:
  0006a	b1 ed		 mov	 cl, -19			; ffffffedH
  0006c	2a c8		 sub	 cl, al
  0006e	30 4c 35 e0	 xor	 BYTE PTR __k$524932[ebp+esi], cl
  00072	46		 inc	 esi
  00073	83 fe 12	 cmp	 esi, 18			; 00000012H
  00076	7c e4		 jl	 SHORT $LL103@LoadProper
  00078	8b 35 00 00 00
	00		 mov	 esi, DWORD PTR __imp_?LoadBool@ioINILoader@@QAE_NPBD_N@Z
  0007e	6a 00		 push	 0
  00080	8d 45 e0	 lea	 eax, DWORD PTR __k$524932[ebp]
  00083	50		 push	 eax
  00084	8b cb		 mov	 ecx, ebx
  00086	ff d6		 call	 esi
  00088	6a 05		 push	 5
  0008a	88 87 6c 09 00
	00		 mov	 BYTE PTR [edi+2412], al

; 31   : 	m_bUseWeaponEquipMesh = rkLoader.LoadBool_e( "use_weapon_equip_mesh", false );

  00090	c7 45 e0 98 9f
	8e b5		 mov	 DWORD PTR __k$525068[ebp], -1248944232 ; b58e9f98H
  00097	c7 45 e4 9a 89
	8a 9a		 mov	 DWORD PTR __k$525068[ebp+4], -1702196838 ; 9a8a899aH
  0009e	c7 45 e8 82 82
	b4 8f		 mov	 DWORD PTR __k$525068[ebp+8], -1883995518 ; 8fb48282H
  000a5	c7 45 ec 9c 99
	82 9a		 mov	 DWORD PTR __k$525068[ebp+12], -1702717028 ; 9a82999cH
  000ac	c7 45 f0 b2 81
	8e 99		 mov	 DWORD PTR __k$525068[ebp+16], -1718713934 ; 998e81b2H
  000b3	8d 45 e0	 lea	 eax, DWORD PTR __k$525068[ebp]
  000b6	66 c7 45 f4 85
	00		 mov	 WORD PTR __k$525068[ebp+20], 133 ; 00000085H
  000bc	59		 pop	 ecx
$LL212@LoadProper:
  000bd	81 30 ed ec eb
	ea		 xor	 DWORD PTR [eax], -353637139 ; eaebecedH
  000c3	83 c0 04	 add	 eax, 4
  000c6	49		 dec	 ecx
  000c7	75 f4		 jne	 SHORT $LL212@LoadProper
  000c9	80 75 f4 ed	 xor	 BYTE PTR __k$525068[ebp+20], -19 ; ffffffedH
  000cd	51		 push	 ecx
  000ce	8d 45 e0	 lea	 eax, DWORD PTR __k$525068[ebp]
  000d1	50		 push	 eax
  000d2	8b cb		 mov	 ecx, ebx
  000d4	ff d6		 call	 esi
  000d6	6a 03		 push	 3
  000d8	59		 pop	 ecx
  000d9	88 87 6d 09 00
	00		 mov	 BYTE PTR [edi+2413], al

; 32   : 
; 33   : 	rkLoader.LoadString_e( "enable_effect", "", szBuf, MAX_PATH );

  000df	c7 45 e8 88 82
	8a 88		 mov	 DWORD PTR __k$525169[ebp], -2004188536 ; 888a8288H
  000e6	c7 45 ec 81 89
	b4 8f		 mov	 DWORD PTR __k$525169[ebp+4], -1883993727 ; 8fb48981H
  000ed	c7 45 f0 8b 8a
	8e 89		 mov	 DWORD PTR __k$525169[ebp+8], -1987147125 ; 898e8a8bH
  000f4	8d 45 e8	 lea	 eax, DWORD PTR __k$525169[ebp]
  000f7	66 c7 45 f4 99
	00		 mov	 WORD PTR __k$525169[ebp+12], 153 ; 00000099H
  000fd	5e		 pop	 esi
$LL318@LoadProper:
  000fe	81 30 ed ec eb
	ea		 xor	 DWORD PTR [eax], -353637139 ; eaebecedH
  00104	83 c0 04	 add	 eax, 4
  00107	49		 dec	 ecx
  00108	75 f4		 jne	 SHORT $LL318@LoadProper
  0010a	80 75 f4 ed	 xor	 BYTE PTR __k$525169[ebp+12], -19 ; ffffffedH
  0010e	68 04 01 00 00	 push	 260			; 00000104H
  00113	8d 85 dc fe ff
	ff		 lea	 eax, DWORD PTR _szBuf$[ebp]
  00119	50		 push	 eax
  0011a	68 00 00 00 00	 push	 OFFSET ??_C@_00CNPNBAHC@?$AA@
  0011f	8d 45 e8	 lea	 eax, DWORD PTR __k$525169[ebp]
  00122	50		 push	 eax
  00123	8b cb		 mov	 ecx, ebx
  00125	ff 15 00 00 00
	00		 call	 DWORD PTR __imp_?LoadStringA@ioINILoader@@QAEXPBD0PADH@Z

; 34   : 	m_EnableEffect = szBuf;

  0012b	8d 85 dc fe ff
	ff		 lea	 eax, DWORD PTR _szBuf$[ebp]
  00131	50		 push	 eax
  00132	8d 8f 70 09 00
	00		 lea	 ecx, DWORD PTR [edi+2416]
  00138	ff 15 00 00 00
	00		 call	 DWORD PTR __imp_??4ioHashString@@QAEAAV0@PBD@Z

; 35   : }

  0013e	8b 4d fc	 mov	 ecx, DWORD PTR __$ArrayPad$[ebp]
  00141	5f		 pop	 edi
  00142	33 cd		 xor	 ecx, ebp
  00144	5b		 pop	 ebx
  00145	e8 00 00 00 00	 call	 @__security_check_cookie@4
  0014a	c9		 leave
  0014b	c2 04 00	 ret	 4
?LoadProperty@ioChangeSoldierBuff@@UAEXAAVioINILoader@@@Z ENDP ; ioChangeSoldierBuff::LoadProperty
_TEXT	ENDS
PUBLIC	?GetMaxPassiveGauge@ioPassiveSkill@@QAEMXZ	; ioPassiveSkill::GetMaxPassiveGauge
; Function compile flags: /Ogsp
; File d:\lost saga for developer\youtube\tutorial\source\src\lsclient\iopassiveskill.h
;	COMDAT ?GetMaxPassiveGauge@ioPassiveSkill@@QAEMXZ
_TEXT	SEGMENT
_value$525298 = -4					; size = 4
?GetMaxPassiveGauge@ioPassiveSkill@@QAEMXZ PROC		; ioPassiveSkill::GetMaxPassiveGauge, COMDAT
; _this$ = ecx

; 172  : 	float GetMaxPassiveGauge() { return m_fMaxPassiveGauge; }

  00000	55		 push	 ebp
  00001	8b ec		 mov	 ebp, esp
  00003	51		 push	 ecx
  00004	8d 45 fc	 lea	 eax, DWORD PTR _value$525298[ebp]
  00007	50		 push	 eax
  00008	81 c1 04 10 00
	00		 add	 ecx, 4100		; 00001004H
  0000e	e8 00 00 00 00	 call	 ?DecryptValueToPool@?$CEncrypt@M@@QAEXPAM@Z ; CEncrypt<float>::DecryptValueToPool
  00013	d9 45 fc	 fld	 DWORD PTR _value$525298[ebp]
  00016	c9		 leave
  00017	c3		 ret	 0
?GetMaxPassiveGauge@ioPassiveSkill@@QAEMXZ ENDP		; ioPassiveSkill::GetMaxPassiveGauge
_TEXT	ENDS
PUBLIC	?GetCurPassiveGauge@ioPassiveSkill@@QAEMXZ	; ioPassiveSkill::GetCurPassiveGauge
; Function compile flags: /Ogsp
;	COMDAT ?GetCurPassiveGauge@ioPassiveSkill@@QAEMXZ
_TEXT	SEGMENT
_value$525304 = -4					; size = 4
?GetCurPassiveGauge@ioPassiveSkill@@QAEMXZ PROC		; ioPassiveSkill::GetCurPassiveGauge, COMDAT
; _this$ = ecx

; 173  : 	float GetCurPassiveGauge() { return m_fCurPassiveGauge; }

  00000	55		 push	 ebp
  00001	8b ec		 mov	 ebp, esp
  00003	51		 push	 ecx
  00004	8d 45 fc	 lea	 eax, DWORD PTR _value$525304[ebp]
  00007	50		 push	 eax
  00008	81 c1 64 10 00
	00		 add	 ecx, 4196		; 00001064H
  0000e	e8 00 00 00 00	 call	 ?DecryptValueToPool@?$CEncrypt@M@@QAEXPAM@Z ; CEncrypt<float>::DecryptValueToPool
  00013	d9 45 fc	 fld	 DWORD PTR _value$525304[ebp]
  00016	c9		 leave
  00017	c3		 ret	 0
?GetCurPassiveGauge@ioPassiveSkill@@QAEMXZ ENDP		; ioPassiveSkill::GetCurPassiveGauge
_TEXT	ENDS
EXTRN	?CheckCallingAreaWeapon@ioBuff@@IAEXXZ:PROC	; ioBuff::CheckCallingAreaWeapon
EXTRN	?GetOwner@ioBuff@@QAEPAVioBaseChar@@XZ:PROC	; ioBuff::GetOwner
EXTRN	?CheckSwitchType@ioBuff@@IAE_NM@Z:PROC		; ioBuff::CheckSwitchType
EXTRN	__imp_?GetLoopSec@ioFrameTimer@@QBEKXZ:PROC
EXTRN	__imp_?GetSingleton@ioFrameTimer@@SAAAV1@XZ:PROC
EXTRN	?GetBuffDuration@ioBuff@@IAEKXZ:PROC		; ioBuff::GetBuffDuration
EXTRN	?CheckCallingProcess@ioBuff@@IAEXXZ:PROC	; ioBuff::CheckCallingProcess
EXTRN	?CheckEnableDelayState@ioBuff@@IAE_NXZ:PROC	; ioBuff::CheckEnableDelayState
EXTRN	__imp_?GetUniqueID@ioMovableObject@@QBEKXZ:PROC
EXTRN	?AttachEffect@ioBaseChar@@QAEPAVioEffect@@ABVioHashString@@PAVioEntityEvent@@_N@Z:PROC ; ioBaseChar::AttachEffect
EXTRN	__imp_??9ioHashString@@QBE_NABV0@@Z:PROC
EXTRN	?GetEquipedSkill@ioBaseChar@@QAEPAVioSkill@@H@Z:PROC ; ioBaseChar::GetEquipedSkill
EXTRN	__imp_?IsEmpty@ioHashString@@QBE_NXZ:PROC
; Function compile flags: /Ogsp
; File d:\lost saga for developer\youtube\tutorial\source\src\lsclient\iochangesoldierbuff.cpp
;	COMDAT ?ProcessBuff@ioChangeSoldierBuff@@UAEXM@Z
_TEXT	SEGMENT
_value$525337 = -12					; size = 4
_value$525326 = -8					; size = 4
_i$523811 = -4						; size = 4
_value$525342 = 8					; size = 4
_fTimePerSec$ = 8					; size = 4
?ProcessBuff@ioChangeSoldierBuff@@UAEXM@Z PROC		; ioChangeSoldierBuff::ProcessBuff, COMDAT
; _this$ = ecx

; 67   : {

  00000	55		 push	 ebp
  00001	8b ec		 mov	 ebp, esp
  00003	83 ec 0c	 sub	 esp, 12			; 0000000cH
  00006	56		 push	 esi
  00007	8b f1		 mov	 esi, ecx

; 68   : 	if( CheckOwnerStateCheck() )

  00009	e8 00 00 00 00	 call	 ?CheckOwnerStateCheck@ioChangeSoldierBuff@@IAE_NXZ ; ioChangeSoldierBuff::CheckOwnerStateCheck
  0000e	84 c0		 test	 al, al
  00010	0f 85 01 02 00
	00		 jne	 $LN10@ProcessBuf

; 69   : 		return;
; 70   : 
; 71   : 	for( int i=ES_WEAPON; i < MAX_EQUIP_SLOT; ++i )

  00016	83 65 fc 00	 and	 DWORD PTR _i$523811[ebp], 0
  0001a	53		 push	 ebx
  0001b	57		 push	 edi
$LL47@ProcessBuf:

; 72   : 	{
; 73   : 		if( m_EnableEffect.IsEmpty() )

  0001c	8d 8e 70 09 00
	00		 lea	 ecx, DWORD PTR [esi+2416]
  00022	ff 15 00 00 00
	00		 call	 DWORD PTR __imp_?IsEmpty@ioHashString@@QBE_NXZ
  00028	84 c0		 test	 al, al
  0002a	0f 85 e1 00 00
	00		 jne	 $LN23@ProcessBuf

; 74   : 			continue;
; 75   : 
; 76   : 		ioSkill *pSkill = m_pOwner->GetEquipedSkill(i);

  00030	ff 75 fc	 push	 DWORD PTR _i$523811[ebp]
  00033	8b 8e 74 02 00
	00		 mov	 ecx, DWORD PTR [esi+628]
  00039	e8 00 00 00 00	 call	 ?GetEquipedSkill@ioBaseChar@@QAEPAVioSkill@@H@Z ; ioBaseChar::GetEquipedSkill

; 77   : 		ioPassiveSkill *pPassiveSkill = ToPassiveSkill(pSkill);

  0003e	50		 push	 eax
  0003f	e8 00 00 00 00	 call	 ?ToPassiveSkill@@YAPAVioPassiveSkill@@PAVioSkill@@@Z ; ToPassiveSkill
  00044	8b f8		 mov	 edi, eax
  00046	59		 pop	 ecx

; 78   : 
; 79   : 		if( !pPassiveSkill )

  00047	85 ff		 test	 edi, edi
  00049	0f 84 c2 00 00
	00		 je	 $LN23@ProcessBuf

; 80   : 			continue;
; 81   : 
; 82   : 		if( GetSkillName().IsEmpty() ||  pPassiveSkill->GetName() != GetSkillName() )

  0004f	8d 9e 54 02 00
	00		 lea	 ebx, DWORD PTR [esi+596]
  00055	8b cb		 mov	 ecx, ebx
  00057	ff 15 00 00 00
	00		 call	 DWORD PTR __imp_?IsEmpty@ioHashString@@QBE_NXZ
  0005d	84 c0		 test	 al, al
  0005f	0f 85 ac 00 00
	00		 jne	 $LN23@ProcessBuf
  00065	53		 push	 ebx
  00066	8d 4f 24	 lea	 ecx, DWORD PTR [edi+36]
  00069	ff 15 00 00 00
	00		 call	 DWORD PTR __imp_??9ioHashString@@QBE_NABV0@@Z
  0006f	84 c0		 test	 al, al
  00071	0f 85 9a 00 00
	00		 jne	 $LN23@ProcessBuf

; 83   : 			continue;
; 84   : 
; 85   : 		if( pPassiveSkill->UsePassiveGauge() )

  00077	8b 07		 mov	 eax, DWORD PTR [edi]
  00079	8b cf		 mov	 ecx, edi
  0007b	ff 90 a4 01 00
	00		 call	 DWORD PTR [eax+420]
  00081	84 c0		 test	 al, al
  00083	0f 84 88 00 00
	00		 je	 $LN23@ProcessBuf

; 86   : 		{
; 87   : 			if( pPassiveSkill->GetCurPassiveGauge() >= pPassiveSkill->GetMaxPassiveGauge() )

  00089	8d 45 f8	 lea	 eax, DWORD PTR _value$525326[ebp]
  0008c	50		 push	 eax
  0008d	8d 8f 64 10 00
	00		 lea	 ecx, DWORD PTR [edi+4196]
  00093	e8 00 00 00 00	 call	 ?DecryptValueToPool@?$CEncrypt@M@@QAEXPAM@Z ; CEncrypt<float>::DecryptValueToPool
  00098	8d 45 f4	 lea	 eax, DWORD PTR _value$525337[ebp]
  0009b	50		 push	 eax
  0009c	8d 8f 04 10 00
	00		 lea	 ecx, DWORD PTR [edi+4100]
  000a2	e8 00 00 00 00	 call	 ?DecryptValueToPool@?$CEncrypt@M@@QAEXPAM@Z ; CEncrypt<float>::DecryptValueToPool
  000a7	f3 0f 10 45 f8	 movss	 xmm0, DWORD PTR _value$525326[ebp]
  000ac	f3 0f 10 4d f4	 movss	 xmm1, DWORD PTR _value$525337[ebp]
  000b1	0f 5a c0	 cvtps2pd xmm0, xmm0
  000b4	0f 5a c9	 cvtps2pd xmm1, xmm1
  000b7	66 0f 2f c1	 comisd	 xmm0, xmm1
  000bb	72 34		 jb	 SHORT $LN16@ProcessBuf

; 88   : 			{
; 89   : 				if( m_dwEnableEffectID == -1 )

  000bd	83 be 80 09 00
	00 ff		 cmp	 DWORD PTR [esi+2432], -1
  000c4	75 4b		 jne	 SHORT $LN23@ProcessBuf

; 90   : 				{
; 91   : 					ioEffect *pEffect = m_pOwner->AttachEffect( m_EnableEffect );

  000c6	8b 8e 74 02 00
	00		 mov	 ecx, DWORD PTR [esi+628]
  000cc	6a 01		 push	 1
  000ce	6a 00		 push	 0
  000d0	8d 86 70 09 00
	00		 lea	 eax, DWORD PTR [esi+2416]
  000d6	50		 push	 eax
  000d7	e8 00 00 00 00	 call	 ?AttachEffect@ioBaseChar@@QAEPAVioEffect@@ABVioHashString@@PAVioEntityEvent@@_N@Z ; ioBaseChar::AttachEffect

; 92   : 					if( pEffect )

  000dc	85 c0		 test	 eax, eax
  000de	74 31		 je	 SHORT $LN23@ProcessBuf

; 93   : 						m_dwEnableEffectID = pEffect->GetUniqueID();

  000e0	8d 48 14	 lea	 ecx, DWORD PTR [eax+20]
  000e3	ff 15 00 00 00
	00		 call	 DWORD PTR __imp_?GetUniqueID@ioMovableObject@@QBEKXZ
  000e9	89 86 80 09 00
	00		 mov	 DWORD PTR [esi+2432], eax

; 94   : 				}
; 95   : 			}
; 96   : 			else

  000ef	eb 20		 jmp	 SHORT $LN23@ProcessBuf
$LN16@ProcessBuf:

; 97   : 			{
; 98   : 				if( m_dwEnableEffectID != -1 )

  000f1	8b 86 80 09 00
	00		 mov	 eax, DWORD PTR [esi+2432]
  000f7	83 f8 ff	 cmp	 eax, -1
  000fa	74 15		 je	 SHORT $LN23@ProcessBuf

; 99   : 				{
; 100  : 					m_pOwner->EndEffect( m_dwEnableEffectID, false );

  000fc	8b 8e 74 02 00
	00		 mov	 ecx, DWORD PTR [esi+628]
  00102	6a 00		 push	 0
  00104	50		 push	 eax
  00105	e8 00 00 00 00	 call	 ?EndEffect@ioBaseChar@@QAEXK_N@Z ; ioBaseChar::EndEffect

; 101  : 					m_dwEnableEffectID = -1;

  0010a	83 8e 80 09 00
	00 ff		 or	 DWORD PTR [esi+2432], -1
$LN23@ProcessBuf:

; 69   : 		return;
; 70   : 
; 71   : 	for( int i=ES_WEAPON; i < MAX_EQUIP_SLOT; ++i )

  00111	ff 45 fc	 inc	 DWORD PTR _i$523811[ebp]
  00114	83 7d fc 09	 cmp	 DWORD PTR _i$523811[ebp], 9
  00118	0f 8c fe fe ff
	ff		 jl	 $LL47@ProcessBuf

; 102  : 				}
; 103  : 			}
; 104  : 		}
; 105  : 	}
; 106  : 
; 107  : 	switch( m_iOperationType )

  0011e	8b 86 d0 03 00
	00		 mov	 eax, DWORD PTR [esi+976]
  00124	33 db		 xor	 ebx, ebx
  00126	2b c3		 sub	 eax, ebx
  00128	0f 84 e0 00 00
	00		 je	 $LN1@ProcessBuf
  0012e	48		 dec	 eax
  0012f	74 0e		 je	 SHORT $LN6@ProcessBuf
  00131	48		 dec	 eax
  00132	0f 84 8f 00 00
	00		 je	 $LN9@ProcessBuf
  00138	48		 dec	 eax
  00139	0f 85 d6 00 00
	00		 jne	 $LN48@ProcessBuf
$LN6@ProcessBuf:

; 122  : 	case OT_DELAY:
; 123  : 	case OT_ACTIVE:
; 124  : 		{
; 125  : 			if( CheckEnableDelayState() )

  0013f	8b ce		 mov	 ecx, esi
  00141	e8 00 00 00 00	 call	 ?CheckEnableDelayState@ioBuff@@IAE_NXZ ; ioBuff::CheckEnableDelayState
  00146	84 c0		 test	 al, al
  00148	0f 85 c7 00 00
	00		 jne	 $LN48@ProcessBuf

; 126  : 				return;
; 127  : 
; 128  : 			CheckCallingProcess();

  0014e	8b ce		 mov	 ecx, esi
  00150	e8 00 00 00 00	 call	 ?CheckCallingProcess@ioBuff@@IAEXXZ ; ioBuff::CheckCallingProcess

; 129  : 
; 130  : 			if( GetBuffDuration() == 0 )

  00155	8b ce		 mov	 ecx, esi
  00157	e8 00 00 00 00	 call	 ?GetBuffDuration@ioBuff@@IAEKXZ ; ioBuff::GetBuffDuration
  0015c	85 c0		 test	 eax, eax
  0015e	0f 84 b1 00 00
	00		 je	 $LN48@ProcessBuf

; 131  : 				return;
; 132  : 
; 133  : 			if( m_dwBuffEndTime <= FRAMEGETTIME() )

  00164	ff 15 00 00 00
	00		 call	 DWORD PTR __imp_?GetSingleton@ioFrameTimer@@SAAAV1@XZ
  0016a	8b c8		 mov	 ecx, eax
  0016c	ff 15 00 00 00
	00		 call	 DWORD PTR __imp_?GetLoopSec@ioFrameTimer@@QBEKXZ
  00172	8b f8		 mov	 edi, eax
  00174	8d 45 08	 lea	 eax, DWORD PTR _value$525342[ebp]
  00177	50		 push	 eax
  00178	8d 8e 9c 03 00
	00		 lea	 ecx, DWORD PTR [esi+924]
  0017e	e8 00 00 00 00	 call	 ?DecryptValueToPool@?$CEncrypt@K@@QAEXPAK@Z ; CEncrypt<unsigned long>::DecryptValueToPool
  00183	39 7d 08	 cmp	 DWORD PTR _value$525342[ebp], edi
  00186	0f 87 89 00 00
	00		 ja	 $LN48@ProcessBuf

; 134  : 			{
; 135  : 				if( CheckRestoreStateCheck() )

  0018c	8b ce		 mov	 ecx, esi
  0018e	e8 00 00 00 00	 call	 ?CheckRestoreStateCheck@ioChangeSoldierBuff@@IAE_NXZ ; ioChangeSoldierBuff::CheckRestoreStateCheck
  00193	84 c0		 test	 al, al
  00195	74 14		 je	 SHORT $LN2@ProcessBuf

; 136  : 				{
; 137  : 					m_pOwner->SetState( CS_DELAY, m_bSendDelayNetWork );

  00197	0f b6 86 f9 08
	00 00		 movzx	 eax, BYTE PTR [esi+2297]
  0019e	8b 8e 74 02 00
	00		 mov	 ecx, DWORD PTR [esi+628]
  001a4	50		 push	 eax
  001a5	53		 push	 ebx
$LN50@ProcessBuf:
  001a6	e8 00 00 00 00	 call	 ?SetState@ioBaseChar@@QAEXH_N@Z ; ioBaseChar::SetState
$LN2@ProcessBuf:

; 138  : 				}
; 139  : 
; 140  : 				m_pOwner->CheckUseBuffSkill( m_Name, false );

  001ab	8b 8e 74 02 00
	00		 mov	 ecx, DWORD PTR [esi+628]
  001b1	53		 push	 ebx
  001b2	8d 86 34 02 00
	00		 lea	 eax, DWORD PTR [esi+564]
  001b8	50		 push	 eax
  001b9	e8 00 00 00 00	 call	 ?CheckUseBuffSkill@ioBaseChar@@QAEXABVioHashString@@_N@Z ; ioBaseChar::CheckUseBuffSkill

; 141  : 				SetReserveEndBuff();

  001be	8b ce		 mov	 ecx, esi
  001c0	e8 00 00 00 00	 call	 ?SetReserveEndBuff@ioBuff@@QAEXXZ ; ioBuff::SetReserveEndBuff

; 142  : 				return;

  001c5	eb 4e		 jmp	 SHORT $LN48@ProcessBuf
$LN9@ProcessBuf:

; 108  : 	{
; 109  : 	case OT_SWITCH:
; 110  : 		if( !CheckSwitchType( fTimePerSec ) )

  001c7	f3 0f 10 45 08	 movss	 xmm0, DWORD PTR _fTimePerSec$[ebp]
  001cc	51		 push	 ecx
  001cd	8b ce		 mov	 ecx, esi
  001cf	f3 0f 11 04 24	 movss	 DWORD PTR [esp], xmm0
  001d4	e8 00 00 00 00	 call	 ?CheckSwitchType@ioBuff@@IAE_NM@Z ; ioBuff::CheckSwitchType

; 111  : 		{
; 112  : 			if( GetOwner() && CheckRestoreStateCheck() )

  001d9	8b ce		 mov	 ecx, esi
  001db	84 c0		 test	 al, al
  001dd	75 28		 jne	 SHORT $LN8@ProcessBuf
  001df	e8 00 00 00 00	 call	 ?GetOwner@ioBuff@@QAEPAVioBaseChar@@XZ ; ioBuff::GetOwner
  001e4	85 c0		 test	 eax, eax
  001e6	74 c3		 je	 SHORT $LN2@ProcessBuf
  001e8	8b ce		 mov	 ecx, esi
  001ea	e8 00 00 00 00	 call	 ?CheckRestoreStateCheck@ioChangeSoldierBuff@@IAE_NXZ ; ioChangeSoldierBuff::CheckRestoreStateCheck
  001ef	84 c0		 test	 al, al
  001f1	74 b8		 je	 SHORT $LN2@ProcessBuf

; 113  : 				GetOwner()->SetState( CS_DELAY, m_bSendDelayNetWork );

  001f3	0f b6 86 f9 08
	00 00		 movzx	 eax, BYTE PTR [esi+2297]
  001fa	50		 push	 eax
  001fb	53		 push	 ebx
  001fc	8b ce		 mov	 ecx, esi
  001fe	e8 00 00 00 00	 call	 ?GetOwner@ioBuff@@QAEPAVioBaseChar@@XZ ; ioBuff::GetOwner
  00203	8b c8		 mov	 ecx, eax

; 114  : 
; 115  : 			m_pOwner->CheckUseBuffSkill( m_Name, false );
; 116  : 			SetReserveEndBuff();
; 117  : 			return;

  00205	eb 9f		 jmp	 SHORT $LN50@ProcessBuf
$LN8@ProcessBuf:

; 118  : 		}
; 119  : 
; 120  : 		CheckCallingProcess();

  00207	e8 00 00 00 00	 call	 ?CheckCallingProcess@ioBuff@@IAEXXZ ; ioBuff::CheckCallingProcess

; 121  : 		break;

  0020c	eb 07		 jmp	 SHORT $LN48@ProcessBuf
$LN1@ProcessBuf:

; 143  : 			}
; 144  : 		}
; 145  : 		break;
; 146  : 	case OT_PASSIVE:
; 147  : 		CheckCallingAreaWeapon();

  0020e	8b ce		 mov	 ecx, esi
  00210	e8 00 00 00 00	 call	 ?CheckCallingAreaWeapon@ioBuff@@IAEXXZ ; ioBuff::CheckCallingAreaWeapon
$LN48@ProcessBuf:
  00215	5f		 pop	 edi
  00216	5b		 pop	 ebx
$LN10@ProcessBuf:
  00217	5e		 pop	 esi

; 148  : 		break;
; 149  : 	}
; 150  : }

  00218	c9		 leave
  00219	c2 04 00	 ret	 4
?ProcessBuff@ioChangeSoldierBuff@@UAEXM@Z ENDP		; ioChangeSoldierBuff::ProcessBuff
_TEXT	ENDS
PUBLIC	?EnableChangeSoldier@ioChangeSoldierBuff@@QAE_NXZ ; ioChangeSoldierBuff::EnableChangeSoldier
EXTRN	?IsJumppingState@ioBaseChar@@QBE_NXZ:PROC	; ioBaseChar::IsJumppingState
; Function compile flags: /Ogsp
;	COMDAT ?EnableChangeSoldier@ioChangeSoldierBuff@@QAE_NXZ
_TEXT	SEGMENT
_value$525402 = -16					; size = 4
_value$525380 = -12					; size = 4
_value$525369 = -8					; size = 4
_i$523882 = -4						; size = 4
?EnableChangeSoldier@ioChangeSoldierBuff@@QAE_NXZ PROC	; ioChangeSoldierBuff::EnableChangeSoldier, COMDAT
; _this$ = ecx

; 226  : {	

  00000	55		 push	 ebp
  00001	8b ec		 mov	 ebp, esp
  00003	83 ec 10	 sub	 esp, 16			; 00000010H

; 227  : 	for( int i=ES_WEAPON; i < MAX_EQUIP_SLOT; ++i )

  00006	83 65 fc 00	 and	 DWORD PTR _i$523882[ebp], 0
  0000a	53		 push	 ebx
  0000b	56		 push	 esi
  0000c	57		 push	 edi
  0000d	8b f9		 mov	 edi, ecx
$LL51@EnableChan:

; 228  : 	{
; 229  : 		ioSkill *pSkill = m_pOwner->GetEquipedSkill(i);

  0000f	ff 75 fc	 push	 DWORD PTR _i$523882[ebp]
  00012	8b 8f 74 02 00
	00		 mov	 ecx, DWORD PTR [edi+628]
  00018	e8 00 00 00 00	 call	 ?GetEquipedSkill@ioBaseChar@@QAEPAVioSkill@@H@Z ; ioBaseChar::GetEquipedSkill

; 230  : 		ioPassiveSkill *pPassiveSkill = ToPassiveSkill(pSkill);

  0001d	50		 push	 eax
  0001e	e8 00 00 00 00	 call	 ?ToPassiveSkill@@YAPAVioPassiveSkill@@PAVioSkill@@@Z ; ToPassiveSkill
  00023	8b f0		 mov	 esi, eax
  00025	59		 pop	 ecx

; 231  : 		
; 232  : 		if( !pPassiveSkill )

  00026	85 f6		 test	 esi, esi
  00028	0f 84 ff 00 00
	00		 je	 $LN14@EnableChan

; 233  : 			continue;
; 234  : 
; 235  : 		if( GetSkillName().IsEmpty() ||  pPassiveSkill->GetName() != GetSkillName() )

  0002e	8d 9f 54 02 00
	00		 lea	 ebx, DWORD PTR [edi+596]
  00034	8b cb		 mov	 ecx, ebx
  00036	ff 15 00 00 00
	00		 call	 DWORD PTR __imp_?IsEmpty@ioHashString@@QBE_NXZ
  0003c	84 c0		 test	 al, al
  0003e	0f 85 e9 00 00
	00		 jne	 $LN14@EnableChan
  00044	53		 push	 ebx
  00045	8d 4e 24	 lea	 ecx, DWORD PTR [esi+36]
  00048	ff 15 00 00 00
	00		 call	 DWORD PTR __imp_??9ioHashString@@QBE_NABV0@@Z
  0004e	84 c0		 test	 al, al
  00050	0f 85 d7 00 00
	00		 jne	 $LN14@EnableChan

; 236  : 			continue;
; 237  : 
; 238  : 		if( pPassiveSkill->UsePassiveGauge() )

  00056	8b 06		 mov	 eax, DWORD PTR [esi]
  00058	8b ce		 mov	 ecx, esi
  0005a	ff 90 a4 01 00
	00		 call	 DWORD PTR [eax+420]
  00060	84 c0		 test	 al, al
  00062	0f 84 c5 00 00
	00		 je	 $LN14@EnableChan

; 239  : 		{
; 240  : 			if( pPassiveSkill->GetCurPassiveGauge() >= pPassiveSkill->GetMaxPassiveGauge() )

  00068	8d 45 f8	 lea	 eax, DWORD PTR _value$525369[ebp]
  0006b	50		 push	 eax
  0006c	8d 8e 64 10 00
	00		 lea	 ecx, DWORD PTR [esi+4196]
  00072	e8 00 00 00 00	 call	 ?DecryptValueToPool@?$CEncrypt@M@@QAEXPAM@Z ; CEncrypt<float>::DecryptValueToPool
  00077	8d 45 f4	 lea	 eax, DWORD PTR _value$525380[ebp]
  0007a	50		 push	 eax
  0007b	8d 8e 04 10 00
	00		 lea	 ecx, DWORD PTR [esi+4100]
  00081	e8 00 00 00 00	 call	 ?DecryptValueToPool@?$CEncrypt@M@@QAEXPAM@Z ; CEncrypt<float>::DecryptValueToPool
  00086	f3 0f 10 45 f8	 movss	 xmm0, DWORD PTR _value$525369[ebp]
  0008b	f3 0f 10 4d f4	 movss	 xmm1, DWORD PTR _value$525380[ebp]
  00090	0f 5a c0	 cvtps2pd xmm0, xmm0
  00093	0f 5a c9	 cvtps2pd xmm1, xmm1
  00096	66 0f 2f c1	 comisd	 xmm0, xmm1
  0009a	0f 82 8d 00 00
	00		 jb	 $LN14@EnableChan

; 241  : 			{
; 242  : 				CharState eState = m_pOwner->GetState();

  000a0	8b 97 74 02 00
	00		 mov	 edx, DWORD PTR [edi+628]
  000a6	8a 82 10 03 00
	00		 mov	 al, BYTE PTR [edx+784]

; 243  : 				if( eState == CS_USING_SKILL )

  000ac	3c 07		 cmp	 al, 7
  000ae	0f 84 86 00 00
	00		 je	 $LN13@EnableChan

; 244  : 					return false;
; 245  : 
; 246  : 				if( m_pOwner->GetUsedBuffFlyJump() != BJUT_NONE && m_pOwner->GetUsedBuffFlyJump() != BJUT_END )

  000b4	8b 8a b0 0e 00
	00		 mov	 ecx, DWORD PTR [edx+3760]
  000ba	85 c9		 test	 ecx, ecx
  000bc	74 05		 je	 SHORT $LN6@EnableChan
  000be	83 f9 04	 cmp	 ecx, 4
  000c1	75 77		 jne	 SHORT $LN13@EnableChan
$LN6@EnableChan:

; 247  : 					return false;
; 248  : 
; 249  : 				if( eState == CS_DELAY || eState == CS_RUN ||
; 250  : 					eState == CS_FALL || eState == CS_ETC_STATE ||
; 251  : 					eState == CS_CHANGE_WAIT || eState == CS_ICE_STATE || eState == CS_FROZEN ||
; 252  : 					eState == CS_STOP_MOTION || eState == CS_CLOSEORDER ||
; 253  : 					eState == CS_PANIC_MOVE )

  000c3	84 c0		 test	 al, al
  000c5	74 7a		 je	 SHORT $LN4@EnableChan
  000c7	3c 01		 cmp	 al, 1
  000c9	74 76		 je	 SHORT $LN4@EnableChan
  000cb	3c 12		 cmp	 al, 18			; 00000012H
  000cd	74 72		 je	 SHORT $LN4@EnableChan
  000cf	3c 0f		 cmp	 al, 15			; 0000000fH
  000d1	74 6e		 je	 SHORT $LN4@EnableChan
  000d3	3c 1c		 cmp	 al, 28			; 0000001cH
  000d5	74 6a		 je	 SHORT $LN4@EnableChan
  000d7	3c 3b		 cmp	 al, 59			; 0000003bH
  000d9	74 66		 je	 SHORT $LN4@EnableChan
  000db	3c 17		 cmp	 al, 23			; 00000017H
  000dd	74 62		 je	 SHORT $LN4@EnableChan
  000df	3c 26		 cmp	 al, 38			; 00000026H
  000e1	74 5e		 je	 SHORT $LN4@EnableChan
  000e3	3c 21		 cmp	 al, 33			; 00000021H
  000e5	74 5a		 je	 SHORT $LN4@EnableChan
  000e7	3c 4f		 cmp	 al, 79			; 0000004fH
  000e9	74 56		 je	 SHORT $LN4@EnableChan

; 256  : 				}
; 257  : 
; 258  : 				if( eState == CS_JUMP && m_pOwner->GetJumpState() == JS_JUMPPING )

  000eb	3c 04		 cmp	 al, 4
  000ed	75 15		 jne	 SHORT $LN3@EnableChan
  000ef	8d 45 f0	 lea	 eax, DWORD PTR _value$525402[ebp]
  000f2	50		 push	 eax
  000f3	8d 8a 40 0e 00
	00		 lea	 ecx, DWORD PTR [edx+3648]
  000f9	e8 00 00 00 00	 call	 ?DecryptValueToPool@?$CEncrypt@W4JumpState@@@@QAEXPAW4JumpState@@@Z ; CEncrypt<enum JumpState>::DecryptValueToPool
  000fe	83 7d f0 02	 cmp	 DWORD PTR _value$525402[ebp], 2
  00102	74 3d		 je	 SHORT $LN4@EnableChan
$LN3@EnableChan:

; 259  : 				{
; 260  : 					return true;
; 261  : 				}
; 262  : 
; 263  : 				if( IsWoundedState() )

  00104	8b cf		 mov	 ecx, edi
  00106	e8 00 00 00 00	 call	 ?IsWoundedState@ioChangeSoldierBuff@@QAE_NXZ ; ioChangeSoldierBuff::IsWoundedState
  0010b	84 c0		 test	 al, al
  0010d	75 32		 jne	 SHORT $LN4@EnableChan

; 264  : 				{
; 265  : 					return true;				
; 266  : 				}
; 267  : 
; 268  : 				if( !m_pOwner->IsJumppingState() && m_pOwner->IsFloatingState() )

  0010f	8b 8f 74 02 00
	00		 mov	 ecx, DWORD PTR [edi+628]
  00115	e8 00 00 00 00	 call	 ?IsJumppingState@ioBaseChar@@QBE_NXZ ; ioBaseChar::IsJumppingState
  0011a	84 c0		 test	 al, al
  0011c	75 0f		 jne	 SHORT $LN14@EnableChan
  0011e	8b 8f 74 02 00
	00		 mov	 ecx, DWORD PTR [edi+628]
  00124	e8 00 00 00 00	 call	 ?IsFloatingState@ioBaseChar@@QBE_NXZ ; ioBaseChar::IsFloatingState
  00129	84 c0		 test	 al, al
  0012b	75 14		 jne	 SHORT $LN4@EnableChan
$LN14@EnableChan:

; 227  : 	for( int i=ES_WEAPON; i < MAX_EQUIP_SLOT; ++i )

  0012d	ff 45 fc	 inc	 DWORD PTR _i$523882[ebp]
  00130	83 7d fc 09	 cmp	 DWORD PTR _i$523882[ebp], 9
  00134	0f 8c d5 fe ff
	ff		 jl	 $LL51@EnableChan
$LN13@EnableChan:

; 269  : 				{
; 270  : 					return true;
; 271  : 				}
; 272  : 			}
; 273  : 		}
; 274  : 	}
; 275  : 	return false;

  0013a	32 c0		 xor	 al, al
$LN16@EnableChan:
  0013c	5f		 pop	 edi
  0013d	5e		 pop	 esi
  0013e	5b		 pop	 ebx

; 276  : }

  0013f	c9		 leave
  00140	c3		 ret	 0
$LN4@EnableChan:

; 254  : 				{
; 255  : 					return true;				

  00141	b0 01		 mov	 al, 1
  00143	eb f7		 jmp	 SHORT $LN16@EnableChan
?EnableChangeSoldier@ioChangeSoldierBuff@@QAE_NXZ ENDP	; ioChangeSoldierBuff::EnableChangeSoldier
_TEXT	ENDS
END
