; Listing generated by Microsoft (R) Optimizing Compiler Version 16.00.30319.01 

	TITLE	D:\Lost Saga For Developer\Youtube\Tutorial\Source\src\LSClient\Channeling\ioChannelingNodeParent.cpp
	.686P
	.XMM
	include listing.inc
	.model	flat

INCLUDELIB MSVCRT
INCLUDELIB OLDNAMES

PUBLIC	??_7ioChannelingNodeParent@@6B@			; ioChannelingNodeParent::`vftable'
PUBLIC	??0ioChannelingNodeParent@@QAE@XZ		; ioChannelingNodeParent::ioChannelingNodeParent
PUBLIC	??_R4ioChannelingNodeParent@@6B@		; ioChannelingNodeParent::`RTTI Complete Object Locator'
PUBLIC	??_R0?AVioChannelingNodeParent@@@8		; ioChannelingNodeParent `RTTI Type Descriptor'
PUBLIC	??_R3ioChannelingNodeParent@@8			; ioChannelingNodeParent::`RTTI Class Hierarchy Descriptor'
PUBLIC	??_R2ioChannelingNodeParent@@8			; ioChannelingNodeParent::`RTTI Base Class Array'
PUBLIC	??_R1A@?0A@EA@ioChannelingNodeParent@@8		; ioChannelingNodeParent::`RTTI Base Class Descriptor at (0,-1,0,64)'
PUBLIC	?GetBillingErrorMent@ioChannelingNodeParent@@UAEPBDAAVioHashString@@@Z ; ioChannelingNodeParent::GetBillingErrorMent
PUBLIC	?IsSendFillCashURL@ioChannelingNodeParent@@UAE_NXZ ; ioChannelingNodeParent::IsSendFillCashURL
PUBLIC	?GetCashSendTime@ioChannelingNodeParent@@UAEKXZ	; ioChannelingNodeParent::GetCashSendTime
PUBLIC	?OnRecieveAddCash@ioChannelingNodeParent@@UAE_NAAVSP2Packet@@@Z ; ioChannelingNodeParent::OnRecieveAddCash
PUBLIC	?IsSubscriptionRetractCheck@ioChannelingNodeParent@@UAE_NXZ ; ioChannelingNodeParent::IsSubscriptionRetractCheck
PUBLIC	?IsSubscriptionRetract@ioChannelingNodeParent@@UAE_NXZ ; ioChannelingNodeParent::IsSubscriptionRetract
EXTRN	??_7type_info@@6B@:QWORD			; type_info::`vftable'
EXTRN	__purecall:PROC
EXTRN	??_EioChannelingNodeParent@@UAEPAXI@Z:PROC	; ioChannelingNodeParent::`vector deleting destructor'
;	COMDAT ??_R1A@?0A@EA@ioChannelingNodeParent@@8
; File d:\lost saga for developer\youtube\tutorial\source\src\lsclient\channeling\iochannelingnodeparent.cpp
rdata$r	SEGMENT
??_R1A@?0A@EA@ioChannelingNodeParent@@8 DD FLAT:??_R0?AVioChannelingNodeParent@@@8 ; ioChannelingNodeParent::`RTTI Base Class Descriptor at (0,-1,0,64)'
	DD	00H
	DD	00H
	DD	0ffffffffH
	DD	00H
	DD	040H
	DD	FLAT:??_R3ioChannelingNodeParent@@8
rdata$r	ENDS
;	COMDAT ??_R2ioChannelingNodeParent@@8
rdata$r	SEGMENT
??_R2ioChannelingNodeParent@@8 DD FLAT:??_R1A@?0A@EA@ioChannelingNodeParent@@8 ; ioChannelingNodeParent::`RTTI Base Class Array'
rdata$r	ENDS
;	COMDAT ??_R3ioChannelingNodeParent@@8
rdata$r	SEGMENT
??_R3ioChannelingNodeParent@@8 DD 00H			; ioChannelingNodeParent::`RTTI Class Hierarchy Descriptor'
	DD	00H
	DD	01H
	DD	FLAT:??_R2ioChannelingNodeParent@@8
rdata$r	ENDS
;	COMDAT ??_R0?AVioChannelingNodeParent@@@8
_DATA	SEGMENT
??_R0?AVioChannelingNodeParent@@@8 DD FLAT:??_7type_info@@6B@ ; ioChannelingNodeParent `RTTI Type Descriptor'
	DD	00H
	DB	'.?AVioChannelingNodeParent@@', 00H
_DATA	ENDS
;	COMDAT ??_R4ioChannelingNodeParent@@6B@
rdata$r	SEGMENT
??_R4ioChannelingNodeParent@@6B@ DD 00H			; ioChannelingNodeParent::`RTTI Complete Object Locator'
	DD	00H
	DD	00H
	DD	FLAT:??_R0?AVioChannelingNodeParent@@@8
	DD	FLAT:??_R3ioChannelingNodeParent@@8
rdata$r	ENDS
;	COMDAT ??_7ioChannelingNodeParent@@6B@
CONST	SEGMENT
??_7ioChannelingNodeParent@@6B@ DD FLAT:??_R4ioChannelingNodeParent@@6B@ ; ioChannelingNodeParent::`vftable'
	DD	FLAT:__purecall
	DD	FLAT:__purecall
	DD	FLAT:__purecall
	DD	FLAT:?GetBillingErrorMent@ioChannelingNodeParent@@UAEPBDAAVioHashString@@@Z
	DD	FLAT:__purecall
	DD	FLAT:__purecall
	DD	FLAT:__purecall
	DD	FLAT:__purecall
	DD	FLAT:__purecall
	DD	FLAT:__purecall
	DD	FLAT:?IsSendFillCashURL@ioChannelingNodeParent@@UAE_NXZ
	DD	FLAT:__purecall
	DD	FLAT:?GetCashSendTime@ioChannelingNodeParent@@UAEKXZ
	DD	FLAT:?OnRecieveAddCash@ioChannelingNodeParent@@UAE_NAAVSP2Packet@@@Z
	DD	FLAT:?IsSubscriptionRetractCheck@ioChannelingNodeParent@@UAE_NXZ
	DD	FLAT:?IsSubscriptionRetract@ioChannelingNodeParent@@UAE_NXZ
	DD	FLAT:??_EioChannelingNodeParent@@UAEPAXI@Z
; Function compile flags: /Ogsp
CONST	ENDS
;	COMDAT ??0ioChannelingNodeParent@@QAE@XZ
_TEXT	SEGMENT
??0ioChannelingNodeParent@@QAE@XZ PROC			; ioChannelingNodeParent::ioChannelingNodeParent, COMDAT
; _this$ = ecx

; 7    : {

  00000	8b c1		 mov	 eax, ecx
  00002	c7 00 00 00 00
	00		 mov	 DWORD PTR [eax], OFFSET ??_7ioChannelingNodeParent@@6B@

; 8    : }

  00008	c3		 ret	 0
??0ioChannelingNodeParent@@QAE@XZ ENDP			; ioChannelingNodeParent::ioChannelingNodeParent
; Function compile flags: /Ogsp
; File d:\lost saga for developer\youtube\tutorial\source\src\lsclient\channeling\iochannelingnodeparent.h
_TEXT	ENDS
;	COMDAT ?IsSendFillCashURL@ioChannelingNodeParent@@UAE_NXZ
_TEXT	SEGMENT
?IsSendFillCashURL@ioChannelingNodeParent@@UAE_NXZ PROC	; ioChannelingNodeParent::IsSendFillCashURL, COMDAT
; _this$ = ecx

; 27   : 	virtual bool IsSendFillCashURL() { return false; }

  00000	32 c0		 xor	 al, al
  00002	c3		 ret	 0
?IsSendFillCashURL@ioChannelingNodeParent@@UAE_NXZ ENDP	; ioChannelingNodeParent::IsSendFillCashURL
; Function compile flags: /Ogsp
_TEXT	ENDS
;	COMDAT ?GetCashSendTime@ioChannelingNodeParent@@UAEKXZ
_TEXT	SEGMENT
?GetCashSendTime@ioChannelingNodeParent@@UAEKXZ PROC	; ioChannelingNodeParent::GetCashSendTime, COMDAT
; _this$ = ecx

; 31   : 	virtual DWORD GetCashSendTime() { return 15000; } // ms

  00000	b8 98 3a 00 00	 mov	 eax, 15000		; 00003a98H
  00005	c3		 ret	 0
?GetCashSendTime@ioChannelingNodeParent@@UAEKXZ ENDP	; ioChannelingNodeParent::GetCashSendTime
; Function compile flags: /Ogsp
_TEXT	ENDS
;	COMDAT ?OnRecieveAddCash@ioChannelingNodeParent@@UAE_NAAVSP2Packet@@@Z
_TEXT	SEGMENT
_rkReceivePacket$ = 8					; size = 4
?OnRecieveAddCash@ioChannelingNodeParent@@UAE_NAAVSP2Packet@@@Z PROC ; ioChannelingNodeParent::OnRecieveAddCash, COMDAT
; _this$ = ecx

; 32   : 	virtual bool OnRecieveAddCash( SP2Packet &rkReceivePacket ){ return true; }

  00000	b0 01		 mov	 al, 1
  00002	c2 04 00	 ret	 4
?OnRecieveAddCash@ioChannelingNodeParent@@UAE_NAAVSP2Packet@@@Z ENDP ; ioChannelingNodeParent::OnRecieveAddCash
; Function compile flags: /Ogsp
_TEXT	ENDS
;	COMDAT ?IsSubscriptionRetractCheck@ioChannelingNodeParent@@UAE_NXZ
_TEXT	SEGMENT
?IsSubscriptionRetractCheck@ioChannelingNodeParent@@UAE_NXZ PROC ; ioChannelingNodeParent::IsSubscriptionRetractCheck, COMDAT
; _this$ = ecx

; 35   : 	virtual bool IsSubscriptionRetractCheck() { return false; }

  00000	32 c0		 xor	 al, al
  00002	c3		 ret	 0
?IsSubscriptionRetractCheck@ioChannelingNodeParent@@UAE_NXZ ENDP ; ioChannelingNodeParent::IsSubscriptionRetractCheck
; Function compile flags: /Ogsp
_TEXT	ENDS
;	COMDAT ?IsSubscriptionRetract@ioChannelingNodeParent@@UAE_NXZ
_TEXT	SEGMENT
?IsSubscriptionRetract@ioChannelingNodeParent@@UAE_NXZ PROC ; ioChannelingNodeParent::IsSubscriptionRetract, COMDAT
; _this$ = ecx

; 36   : 	virtual bool IsSubscriptionRetract() { return false; }

  00000	32 c0		 xor	 al, al
  00002	c3		 ret	 0
?IsSubscriptionRetract@ioChannelingNodeParent@@UAE_NXZ ENDP ; ioChannelingNodeParent::IsSubscriptionRetract
_TEXT	ENDS
PUBLIC	??1ioChannelingNodeParent@@UAE@XZ		; ioChannelingNodeParent::~ioChannelingNodeParent
; Function compile flags: /Ogsp
; File d:\lost saga for developer\youtube\tutorial\source\src\lsclient\channeling\iochannelingnodeparent.cpp
;	COMDAT ??1ioChannelingNodeParent@@UAE@XZ
_TEXT	SEGMENT
??1ioChannelingNodeParent@@UAE@XZ PROC			; ioChannelingNodeParent::~ioChannelingNodeParent, COMDAT
; _this$ = ecx

; 11   : {

  00000	c7 01 00 00 00
	00		 mov	 DWORD PTR [ecx], OFFSET ??_7ioChannelingNodeParent@@6B@

; 12   : }

  00006	c3		 ret	 0
??1ioChannelingNodeParent@@UAE@XZ ENDP			; ioChannelingNodeParent::~ioChannelingNodeParent
_TEXT	ENDS
PUBLIC	??_C@_0BB@ODHJJBLN@Billing?5Error?5?3?5?$AA@	; `string'
;	COMDAT ??_C@_0BB@ODHJJBLN@Billing?5Error?5?3?5?$AA@
CONST	SEGMENT
??_C@_0BB@ODHJJBLN@Billing?5Error?5?3?5?$AA@ DB 'Billing Error : ', 00H ; `string'
; Function compile flags: /Ogsp
CONST	ENDS
;	COMDAT ?GetBillingErrorMent@ioChannelingNodeParent@@UAEPBDAAVioHashString@@@Z
_TEXT	SEGMENT
_sServerError$ = 8					; size = 4
?GetBillingErrorMent@ioChannelingNodeParent@@UAEPBDAAVioHashString@@@Z PROC ; ioChannelingNodeParent::GetBillingErrorMent, COMDAT
; _this$ = ecx

; 26   : 	return "Billing Error : ";

  00000	b8 00 00 00 00	 mov	 eax, OFFSET ??_C@_0BB@ODHJJBLN@Billing?5Error?5?3?5?$AA@

; 27   : }

  00005	c2 04 00	 ret	 4
?GetBillingErrorMent@ioChannelingNodeParent@@UAEPBDAAVioHashString@@@Z ENDP ; ioChannelingNodeParent::GetBillingErrorMent
_TEXT	ENDS
PUBLIC	?_DECSTR@@YAXPADH@Z				; _DECSTR
; Function compile flags: /Ogsp
; File d:\lost saga for developer\youtube\tutorial\source\src\lsclient\stringprotect.h
;	COMDAT ?_DECSTR@@YAXPADH@Z
_TEXT	SEGMENT
_s$ = 8							; size = 4
_l$ = 12						; size = 4
?_DECSTR@@YAXPADH@Z PROC				; _DECSTR, COMDAT

; 40   : __forceinline void _DECSTR(char* s, int l){int i=0,l4=(l-1)/4,*p=(int*)s;s[l-1]=0;for(;i<l4;++i)*(p++)^=0xEAEBECED;for(i=l4*4;i<l-1;++i)s[i]^=0xED-i%4;}

  00000	55		 push	 ebp
  00001	8b ec		 mov	 ebp, esp
  00003	8b 4d 0c	 mov	 ecx, DWORD PTR _l$[ebp]
  00006	56		 push	 esi
  00007	8b 75 08	 mov	 esi, DWORD PTR _s$[ebp]
  0000a	57		 push	 edi
  0000b	8d 79 ff	 lea	 edi, DWORD PTR [ecx-1]
  0000e	8b c7		 mov	 eax, edi
  00010	99		 cdq
  00011	83 e2 03	 and	 edx, 3
  00014	03 c2		 add	 eax, edx
  00016	c1 f8 02	 sar	 eax, 2
  00019	8b d6		 mov	 edx, esi
  0001b	c6 44 0e ff 00	 mov	 BYTE PTR [esi+ecx-1], 0
  00020	85 c0		 test	 eax, eax
  00022	7e 0e		 jle	 SHORT $LN4@DECSTR
  00024	8b c8		 mov	 ecx, eax
$LL6@DECSTR:
  00026	81 32 ed ec eb
	ea		 xor	 DWORD PTR [edx], -353637139 ; eaebecedH
  0002c	83 c2 04	 add	 edx, 4
  0002f	49		 dec	 ecx
  00030	75 f4		 jne	 SHORT $LL6@DECSTR
$LN4@DECSTR:
  00032	c1 e0 02	 shl	 eax, 2
  00035	eb 17		 jmp	 SHORT $LN14@DECSTR
$LL3@DECSTR:
  00037	8b c8		 mov	 ecx, eax
  00039	81 e1 03 00 00
	80		 and	 ecx, -2147483645	; 80000003H
  0003f	79 05		 jns	 SHORT $LN13@DECSTR
  00041	49		 dec	 ecx
  00042	83 c9 fc	 or	 ecx, -4			; fffffffcH
  00045	41		 inc	 ecx
$LN13@DECSTR:
  00046	b2 ed		 mov	 dl, -19			; ffffffedH
  00048	2a d1		 sub	 dl, cl
  0004a	30 14 30	 xor	 BYTE PTR [eax+esi], dl
  0004d	40		 inc	 eax
$LN14@DECSTR:
  0004e	3b c7		 cmp	 eax, edi
  00050	7c e5		 jl	 SHORT $LL3@DECSTR
  00052	5f		 pop	 edi
  00053	5e		 pop	 esi
  00054	5d		 pop	 ebp
  00055	c3		 ret	 0
?_DECSTR@@YAXPADH@Z ENDP				; _DECSTR
_TEXT	ENDS
EXTRN	??3@YAXPAX@Z:PROC				; operator delete
; Function compile flags: /Ogsp
;	COMDAT ??_GioChannelingNodeParent@@UAEPAXI@Z
_TEXT	SEGMENT
___flags$ = 8						; size = 4
??_GioChannelingNodeParent@@UAEPAXI@Z PROC		; ioChannelingNodeParent::`scalar deleting destructor', COMDAT
; _this$ = ecx
  00000	55		 push	 ebp
  00001	8b ec		 mov	 ebp, esp
  00003	f6 45 08 01	 test	 BYTE PTR ___flags$[ebp], 1
  00007	56		 push	 esi
  00008	8b f1		 mov	 esi, ecx
  0000a	c7 06 00 00 00
	00		 mov	 DWORD PTR [esi], OFFSET ??_7ioChannelingNodeParent@@6B@
  00010	74 07		 je	 SHORT $LN1@scalar
  00012	56		 push	 esi
  00013	e8 00 00 00 00	 call	 ??3@YAXPAX@Z		; operator delete
  00018	59		 pop	 ecx
$LN1@scalar:
  00019	8b c6		 mov	 eax, esi
  0001b	5e		 pop	 esi
  0001c	5d		 pop	 ebp
  0001d	c2 04 00	 ret	 4
??_GioChannelingNodeParent@@UAEPAXI@Z ENDP		; ioChannelingNodeParent::`scalar deleting destructor'
_TEXT	ENDS
PUBLIC	__$ArrayPad$
PUBLIC	??$?8$04@@YA_NABVioHashString@@AAY04$$CBD@Z	; operator==<5>
EXTRN	__imp_?c_str@ioHashString@@QBEPBDXZ:PROC
EXTRN	___security_cookie:DWORD
EXTRN	@__security_check_cookie@4:PROC
; Function compile flags: /Ogsp
; File d:\lost saga for developer\youtube\tutorial\source\src\io3dengine\iohashstring.h
;	COMDAT ??$?8$04@@YA_NABVioHashString@@AAY04$$CBD@Z
_TEXT	SEGMENT
__t$ = -16						; size = 5
__$ArrayPad$ = -4					; size = 4
_lhs$ = 8						; size = 4
_t$ = 12						; size = 4
??$?8$04@@YA_NABVioHashString@@AAY04$$CBD@Z PROC	; operator==<5>, COMDAT

; 146  : {

  00000	55		 push	 ebp
  00001	8b ec		 mov	 ebp, esp
  00003	83 ec 10	 sub	 esp, 16			; 00000010H
  00006	a1 00 00 00 00	 mov	 eax, DWORD PTR ___security_cookie
  0000b	33 c5		 xor	 eax, ebp
  0000d	89 45 fc	 mov	 DWORD PTR __$ArrayPad$[ebp], eax
  00010	8b 45 0c	 mov	 eax, DWORD PTR _t$[ebp]

; 147  : 	_ENCSTR(t, _t); return ( strcmp( lhs.c_str(), _t ) == 0 );

  00013	8a 10		 mov	 dl, BYTE PTR [eax]
  00015	8b 4d 08	 mov	 ecx, DWORD PTR _lhs$[ebp]
  00018	84 d2		 test	 dl, dl
  0001a	0f 84 92 00 00
	00		 je	 $LN96@operator
  00020	80 f2 ed	 xor	 dl, -19			; ffffffedH
  00023	88 55 f0	 mov	 BYTE PTR __t$[ebp], dl
  00026	8a 50 01	 mov	 dl, BYTE PTR [eax+1]
  00029	84 d2		 test	 dl, dl
  0002b	74 7f		 je	 SHORT $LN95@operator
  0002d	80 f2 ec	 xor	 dl, -20			; ffffffecH
  00030	88 55 f1	 mov	 BYTE PTR __t$[ebp+1], dl
  00033	8a 50 02	 mov	 dl, BYTE PTR [eax+2]
  00036	84 d2		 test	 dl, dl
  00038	74 6c		 je	 SHORT $LN94@operator
  0003a	80 f2 eb	 xor	 dl, -21			; ffffffebH
  0003d	88 55 f2	 mov	 BYTE PTR __t$[ebp+2], dl
  00040	8a 50 03	 mov	 dl, BYTE PTR [eax+3]
  00043	84 d2		 test	 dl, dl
  00045	74 59		 je	 SHORT $LN93@operator
  00047	80 f2 ea	 xor	 dl, -22			; ffffffeaH
  0004a	80 78 04 00	 cmp	 BYTE PTR [eax+4], 0
  0004e	88 55 f3	 mov	 BYTE PTR __t$[ebp+3], dl
  00051	74 63		 je	 SHORT $LN1@operator
  00053	8a 50 05	 mov	 dl, BYTE PTR [eax+5]
  00056	84 d2		 test	 dl, dl
  00058	74 40		 je	 SHORT $LN91@operator
  0005a	80 f2 ec	 xor	 dl, -20			; ffffffecH
  0005d	88 55 f5	 mov	 BYTE PTR __t$[ebp+5], dl
  00060	8a 50 06	 mov	 dl, BYTE PTR [eax+6]
  00063	84 d2		 test	 dl, dl
  00065	74 2d		 je	 SHORT $LN90@operator
  00067	80 f2 eb	 xor	 dl, -21			; ffffffebH
  0006a	88 55 f6	 mov	 BYTE PTR __t$[ebp+6], dl
  0006d	8a 50 07	 mov	 dl, BYTE PTR [eax+7]
  00070	84 d2		 test	 dl, dl
  00072	74 1a		 je	 SHORT $LN89@operator
  00074	8a 40 08	 mov	 al, BYTE PTR [eax+8]
  00077	80 f2 ea	 xor	 dl, -22			; ffffffeaH
  0007a	88 55 f7	 mov	 BYTE PTR __t$[ebp+7], dl
  0007d	84 c0		 test	 al, al
  0007f	74 07		 je	 SHORT $LN88@operator
  00081	34 ed		 xor	 al, -19			; ffffffedH
  00083	88 45 f8	 mov	 BYTE PTR __t$[ebp+8], al
  00086	eb 2e		 jmp	 SHORT $LN1@operator
$LN88@operator:
  00088	c6 45 f8 ed	 mov	 BYTE PTR __t$[ebp+8], -19 ; ffffffedH
  0008c	eb 28		 jmp	 SHORT $LN1@operator
$LN89@operator:
  0008e	c6 45 f7 ea	 mov	 BYTE PTR __t$[ebp+7], -22 ; ffffffeaH
  00092	eb 22		 jmp	 SHORT $LN1@operator
$LN90@operator:
  00094	c6 45 f6 eb	 mov	 BYTE PTR __t$[ebp+6], -21 ; ffffffebH
  00098	eb 1c		 jmp	 SHORT $LN1@operator
$LN91@operator:
  0009a	c6 45 f5 ec	 mov	 BYTE PTR __t$[ebp+5], -20 ; ffffffecH
  0009e	eb 16		 jmp	 SHORT $LN1@operator
$LN93@operator:
  000a0	c6 45 f3 ea	 mov	 BYTE PTR __t$[ebp+3], -22 ; ffffffeaH
  000a4	eb 10		 jmp	 SHORT $LN1@operator
$LN94@operator:
  000a6	c6 45 f2 eb	 mov	 BYTE PTR __t$[ebp+2], -21 ; ffffffebH
  000aa	eb 0a		 jmp	 SHORT $LN1@operator
$LN95@operator:
  000ac	c6 45 f1 ec	 mov	 BYTE PTR __t$[ebp+1], -20 ; ffffffecH
  000b0	eb 04		 jmp	 SHORT $LN1@operator
$LN96@operator:
  000b2	c6 45 f0 ed	 mov	 BYTE PTR __t$[ebp], -19	; ffffffedH
$LN1@operator:
  000b6	81 75 f0 ed ec
	eb ea		 xor	 DWORD PTR __t$[ebp], -353637139 ; eaebecedH
  000bd	56		 push	 esi
  000be	c6 45 f4 00	 mov	 BYTE PTR __t$[ebp+4], 0
  000c2	8d 75 f0	 lea	 esi, DWORD PTR __t$[ebp]
  000c5	ff 15 00 00 00
	00		 call	 DWORD PTR __imp_?c_str@ioHashString@@QBEPBDXZ
$LL111@operator:
  000cb	8a 08		 mov	 cl, BYTE PTR [eax]
  000cd	3a 0e		 cmp	 cl, BYTE PTR [esi]
  000cf	75 1a		 jne	 SHORT $LN112@operator
  000d1	84 c9		 test	 cl, cl
  000d3	74 12		 je	 SHORT $LN113@operator
  000d5	8a 48 01	 mov	 cl, BYTE PTR [eax+1]
  000d8	3a 4e 01	 cmp	 cl, BYTE PTR [esi+1]
  000db	75 0e		 jne	 SHORT $LN112@operator
  000dd	83 c0 02	 add	 eax, 2
  000e0	83 c6 02	 add	 esi, 2
  000e3	84 c9		 test	 cl, cl
  000e5	75 e4		 jne	 SHORT $LL111@operator
$LN113@operator:
  000e7	33 c0		 xor	 eax, eax
  000e9	eb 05		 jmp	 SHORT $LN114@operator
$LN112@operator:
  000eb	1b c0		 sbb	 eax, eax
  000ed	83 d8 ff	 sbb	 eax, -1
$LN114@operator:
  000f0	33 c9		 xor	 ecx, ecx
  000f2	85 c0		 test	 eax, eax
  000f4	0f 94 c0	 sete	 al

; 148  : }

  000f7	8b 4d fc	 mov	 ecx, DWORD PTR __$ArrayPad$[ebp]
  000fa	33 cd		 xor	 ecx, ebp
  000fc	5e		 pop	 esi
  000fd	e8 00 00 00 00	 call	 @__security_check_cookie@4
  00102	c9		 leave
  00103	c3		 ret	 0
??$?8$04@@YA_NABVioHashString@@AAY04$$CBD@Z ENDP	; operator==<5>
_TEXT	ENDS
PUBLIC	__$ArrayPad$
PUBLIC	??$?8$06@@YA_NABVioHashString@@AAY06$$CBD@Z	; operator==<7>
; Function compile flags: /Ogsp
;	COMDAT ??$?8$06@@YA_NABVioHashString@@AAY06$$CBD@Z
_TEXT	SEGMENT
__t$ = -16						; size = 7
__$ArrayPad$ = -4					; size = 4
_lhs$ = 8						; size = 4
_t$ = 12						; size = 4
??$?8$06@@YA_NABVioHashString@@AAY06$$CBD@Z PROC	; operator==<7>, COMDAT

; 146  : {

  00000	55		 push	 ebp
  00001	8b ec		 mov	 ebp, esp
  00003	83 ec 10	 sub	 esp, 16			; 00000010H
  00006	a1 00 00 00 00	 mov	 eax, DWORD PTR ___security_cookie
  0000b	33 c5		 xor	 eax, ebp
  0000d	89 45 fc	 mov	 DWORD PTR __$ArrayPad$[ebp], eax
  00010	8b 45 0c	 mov	 eax, DWORD PTR _t$[ebp]

; 147  : 	_ENCSTR(t, _t); return ( strcmp( lhs.c_str(), _t ) == 0 );

  00013	8a 10		 mov	 dl, BYTE PTR [eax]
  00015	56		 push	 esi
  00016	57		 push	 edi
  00017	8b 7d 08	 mov	 edi, DWORD PTR _lhs$[ebp]
  0001a	84 d2		 test	 dl, dl
  0001c	0f 84 c0 00 00
	00		 je	 $LN96@operator@2
  00022	80 f2 ed	 xor	 dl, -19			; ffffffedH
  00025	88 55 f0	 mov	 BYTE PTR __t$[ebp], dl
  00028	8a 50 01	 mov	 dl, BYTE PTR [eax+1]
  0002b	84 d2		 test	 dl, dl
  0002d	0f 84 a9 00 00
	00		 je	 $LN95@operator@2
  00033	80 f2 ec	 xor	 dl, -20			; ffffffecH
  00036	88 55 f1	 mov	 BYTE PTR __t$[ebp+1], dl
  00039	8a 50 02	 mov	 dl, BYTE PTR [eax+2]
  0003c	84 d2		 test	 dl, dl
  0003e	0f 84 92 00 00
	00		 je	 $LN94@operator@2
  00044	80 f2 eb	 xor	 dl, -21			; ffffffebH
  00047	88 55 f2	 mov	 BYTE PTR __t$[ebp+2], dl
  0004a	8a 50 03	 mov	 dl, BYTE PTR [eax+3]
  0004d	84 d2		 test	 dl, dl
  0004f	74 7f		 je	 SHORT $LN93@operator@2
  00051	80 f2 ea	 xor	 dl, -22			; ffffffeaH
  00054	88 55 f3	 mov	 BYTE PTR __t$[ebp+3], dl
  00057	8a 50 04	 mov	 dl, BYTE PTR [eax+4]
  0005a	84 d2		 test	 dl, dl
  0005c	74 6c		 je	 SHORT $LN92@operator@2
  0005e	80 f2 ed	 xor	 dl, -19			; ffffffedH
  00061	88 55 f4	 mov	 BYTE PTR __t$[ebp+4], dl
  00064	8a 50 05	 mov	 dl, BYTE PTR [eax+5]
  00067	84 d2		 test	 dl, dl
  00069	74 59		 je	 SHORT $LN91@operator@2
  0006b	80 f2 ec	 xor	 dl, -20			; ffffffecH
  0006e	80 78 06 00	 cmp	 BYTE PTR [eax+6], 0
  00072	88 55 f5	 mov	 BYTE PTR __t$[ebp+5], dl
  00075	74 6f		 je	 SHORT $LN1@operator@2
  00077	8a 50 07	 mov	 dl, BYTE PTR [eax+7]
  0007a	84 d2		 test	 dl, dl
  0007c	74 40		 je	 SHORT $LN89@operator@2
  0007e	80 f2 ea	 xor	 dl, -22			; ffffffeaH
  00081	88 55 f7	 mov	 BYTE PTR __t$[ebp+7], dl
  00084	8a 50 08	 mov	 dl, BYTE PTR [eax+8]
  00087	84 d2		 test	 dl, dl
  00089	74 2d		 je	 SHORT $LN88@operator@2
  0008b	80 f2 ed	 xor	 dl, -19			; ffffffedH
  0008e	88 55 f8	 mov	 BYTE PTR __t$[ebp+8], dl
  00091	8a 50 09	 mov	 dl, BYTE PTR [eax+9]
  00094	84 d2		 test	 dl, dl
  00096	74 1a		 je	 SHORT $LN87@operator@2
  00098	8a 40 0a	 mov	 al, BYTE PTR [eax+10]
  0009b	80 f2 ec	 xor	 dl, -20			; ffffffecH
  0009e	88 55 f9	 mov	 BYTE PTR __t$[ebp+9], dl
  000a1	84 c0		 test	 al, al
  000a3	74 07		 je	 SHORT $LN86@operator@2
  000a5	34 eb		 xor	 al, -21			; ffffffebH
  000a7	88 45 fa	 mov	 BYTE PTR __t$[ebp+10], al
  000aa	eb 3a		 jmp	 SHORT $LN1@operator@2
$LN86@operator@2:
  000ac	c6 45 fa eb	 mov	 BYTE PTR __t$[ebp+10], -21 ; ffffffebH
  000b0	eb 34		 jmp	 SHORT $LN1@operator@2
$LN87@operator@2:
  000b2	c6 45 f9 ec	 mov	 BYTE PTR __t$[ebp+9], -20 ; ffffffecH
  000b6	eb 2e		 jmp	 SHORT $LN1@operator@2
$LN88@operator@2:
  000b8	c6 45 f8 ed	 mov	 BYTE PTR __t$[ebp+8], -19 ; ffffffedH
  000bc	eb 28		 jmp	 SHORT $LN1@operator@2
$LN89@operator@2:
  000be	c6 45 f7 ea	 mov	 BYTE PTR __t$[ebp+7], -22 ; ffffffeaH
  000c2	eb 22		 jmp	 SHORT $LN1@operator@2
$LN91@operator@2:
  000c4	c6 45 f5 ec	 mov	 BYTE PTR __t$[ebp+5], -20 ; ffffffecH
  000c8	eb 1c		 jmp	 SHORT $LN1@operator@2
$LN92@operator@2:
  000ca	c6 45 f4 ed	 mov	 BYTE PTR __t$[ebp+4], -19 ; ffffffedH
  000ce	eb 16		 jmp	 SHORT $LN1@operator@2
$LN93@operator@2:
  000d0	c6 45 f3 ea	 mov	 BYTE PTR __t$[ebp+3], -22 ; ffffffeaH
  000d4	eb 10		 jmp	 SHORT $LN1@operator@2
$LN94@operator@2:
  000d6	c6 45 f2 eb	 mov	 BYTE PTR __t$[ebp+2], -21 ; ffffffebH
  000da	eb 0a		 jmp	 SHORT $LN1@operator@2
$LN95@operator@2:
  000dc	c6 45 f1 ec	 mov	 BYTE PTR __t$[ebp+1], -20 ; ffffffecH
  000e0	eb 04		 jmp	 SHORT $LN1@operator@2
$LN96@operator@2:
  000e2	c6 45 f0 ed	 mov	 BYTE PTR __t$[ebp], -19	; ffffffedH
$LN1@operator@2:
  000e6	81 75 f0 ed ec
	eb ea		 xor	 DWORD PTR __t$[ebp], -353637139 ; eaebecedH
  000ed	6a 04		 push	 4
  000ef	c6 45 f6 00	 mov	 BYTE PTR __t$[ebp+6], 0
  000f3	58		 pop	 eax
$LL101@operator@2:
  000f4	8b c8		 mov	 ecx, eax
  000f6	81 e1 03 00 00
	80		 and	 ecx, -2147483645	; 80000003H
  000fc	79 05		 jns	 SHORT $LN115@operator@2
  000fe	49		 dec	 ecx
  000ff	83 c9 fc	 or	 ecx, -4			; fffffffcH
  00102	41		 inc	 ecx
$LN115@operator@2:
  00103	b2 ed		 mov	 dl, -19			; ffffffedH
  00105	2a d1		 sub	 dl, cl
  00107	30 54 05 f0	 xor	 BYTE PTR __t$[ebp+eax], dl
  0010b	40		 inc	 eax
  0010c	83 f8 06	 cmp	 eax, 6
  0010f	7c e3		 jl	 SHORT $LL101@operator@2
  00111	8b cf		 mov	 ecx, edi
  00113	8d 75 f0	 lea	 esi, DWORD PTR __t$[ebp]
  00116	ff 15 00 00 00
	00		 call	 DWORD PTR __imp_?c_str@ioHashString@@QBEPBDXZ
$LL111@operator@2:
  0011c	8a 08		 mov	 cl, BYTE PTR [eax]
  0011e	3a 0e		 cmp	 cl, BYTE PTR [esi]
  00120	75 1a		 jne	 SHORT $LN112@operator@2
  00122	84 c9		 test	 cl, cl
  00124	74 12		 je	 SHORT $LN113@operator@2
  00126	8a 48 01	 mov	 cl, BYTE PTR [eax+1]
  00129	3a 4e 01	 cmp	 cl, BYTE PTR [esi+1]
  0012c	75 0e		 jne	 SHORT $LN112@operator@2
  0012e	83 c0 02	 add	 eax, 2
  00131	83 c6 02	 add	 esi, 2
  00134	84 c9		 test	 cl, cl
  00136	75 e4		 jne	 SHORT $LL111@operator@2
$LN113@operator@2:
  00138	33 c0		 xor	 eax, eax
  0013a	eb 05		 jmp	 SHORT $LN114@operator@2
$LN112@operator@2:
  0013c	1b c0		 sbb	 eax, eax
  0013e	83 d8 ff	 sbb	 eax, -1
$LN114@operator@2:
  00141	33 c9		 xor	 ecx, ecx
  00143	85 c0		 test	 eax, eax
  00145	0f 94 c0	 sete	 al

; 148  : }

  00148	8b 4d fc	 mov	 ecx, DWORD PTR __$ArrayPad$[ebp]
  0014b	5f		 pop	 edi
  0014c	33 cd		 xor	 ecx, ebp
  0014e	5e		 pop	 esi
  0014f	e8 00 00 00 00	 call	 @__security_check_cookie@4
  00154	c9		 leave
  00155	c3		 ret	 0
??$?8$06@@YA_NABVioHashString@@AAY06$$CBD@Z ENDP	; operator==<7>
_TEXT	ENDS
PUBLIC	__$ArrayPad$
PUBLIC	??$?8$0N@@@YA_NABVioHashString@@AAY0N@$$CBD@Z	; operator==<13>
; Function compile flags: /Ogsp
;	COMDAT ??$?8$0N@@@YA_NABVioHashString@@AAY0N@$$CBD@Z
_TEXT	SEGMENT
__t$ = -24						; size = 13
__$ArrayPad$ = -4					; size = 4
_lhs$ = 8						; size = 4
_t$ = 12						; size = 4
??$?8$0N@@@YA_NABVioHashString@@AAY0N@$$CBD@Z PROC	; operator==<13>, COMDAT

; 146  : {

  00000	55		 push	 ebp
  00001	8b ec		 mov	 ebp, esp
  00003	83 ec 18	 sub	 esp, 24			; 00000018H
  00006	a1 00 00 00 00	 mov	 eax, DWORD PTR ___security_cookie
  0000b	33 c5		 xor	 eax, ebp
  0000d	89 45 fc	 mov	 DWORD PTR __$ArrayPad$[ebp], eax
  00010	8b 45 0c	 mov	 eax, DWORD PTR _t$[ebp]

; 147  : 	_ENCSTR(t, _t); return ( strcmp( lhs.c_str(), _t ) == 0 );

  00013	8a 10		 mov	 dl, BYTE PTR [eax]
  00015	56		 push	 esi
  00016	57		 push	 edi
  00017	8b 7d 08	 mov	 edi, DWORD PTR _lhs$[ebp]
  0001a	84 d2		 test	 dl, dl
  0001c	0f 84 4d 01 00
	00		 je	 $LN96@operator@3
  00022	80 f2 ed	 xor	 dl, -19			; ffffffedH
  00025	88 55 e8	 mov	 BYTE PTR __t$[ebp], dl
  00028	8a 50 01	 mov	 dl, BYTE PTR [eax+1]
  0002b	84 d2		 test	 dl, dl
  0002d	0f 84 36 01 00
	00		 je	 $LN95@operator@3
  00033	b1 ec		 mov	 cl, -20			; ffffffecH
  00035	32 d1		 xor	 dl, cl
  00037	88 55 e9	 mov	 BYTE PTR __t$[ebp+1], dl
  0003a	8a 50 02	 mov	 dl, BYTE PTR [eax+2]
  0003d	84 d2		 test	 dl, dl
  0003f	0f 84 1e 01 00
	00		 je	 $LN94@operator@3
  00045	80 f2 eb	 xor	 dl, -21			; ffffffebH
  00048	88 55 ea	 mov	 BYTE PTR __t$[ebp+2], dl
  0004b	8a 50 03	 mov	 dl, BYTE PTR [eax+3]
  0004e	84 d2		 test	 dl, dl
  00050	0f 84 07 01 00
	00		 je	 $LN93@operator@3
  00056	80 f2 ea	 xor	 dl, -22			; ffffffeaH
  00059	88 55 eb	 mov	 BYTE PTR __t$[ebp+3], dl
  0005c	8a 50 04	 mov	 dl, BYTE PTR [eax+4]
  0005f	84 d2		 test	 dl, dl
  00061	0f 84 f0 00 00
	00		 je	 $LN92@operator@3
  00067	80 f2 ed	 xor	 dl, -19			; ffffffedH
  0006a	88 55 ec	 mov	 BYTE PTR __t$[ebp+4], dl
  0006d	8a 50 05	 mov	 dl, BYTE PTR [eax+5]
  00070	84 d2		 test	 dl, dl
  00072	0f 84 da 00 00
	00		 je	 $LN91@operator@3
  00078	32 d1		 xor	 dl, cl
  0007a	88 55 ed	 mov	 BYTE PTR __t$[ebp+5], dl
  0007d	8a 50 06	 mov	 dl, BYTE PTR [eax+6]
  00080	84 d2		 test	 dl, dl
  00082	0f 84 c4 00 00
	00		 je	 $LN90@operator@3
  00088	80 f2 eb	 xor	 dl, -21			; ffffffebH
  0008b	88 55 ee	 mov	 BYTE PTR __t$[ebp+6], dl
  0008e	8a 50 07	 mov	 dl, BYTE PTR [eax+7]
  00091	84 d2		 test	 dl, dl
  00093	0f 84 ad 00 00
	00		 je	 $LN89@operator@3
  00099	80 f2 ea	 xor	 dl, -22			; ffffffeaH
  0009c	88 55 ef	 mov	 BYTE PTR __t$[ebp+7], dl
  0009f	8a 50 08	 mov	 dl, BYTE PTR [eax+8]
  000a2	84 d2		 test	 dl, dl
  000a4	0f 84 96 00 00
	00		 je	 $LN88@operator@3
  000aa	80 f2 ed	 xor	 dl, -19			; ffffffedH
  000ad	88 55 f0	 mov	 BYTE PTR __t$[ebp+8], dl
  000b0	8a 50 09	 mov	 dl, BYTE PTR [eax+9]
  000b3	84 d2		 test	 dl, dl
  000b5	0f 84 80 00 00
	00		 je	 $LN87@operator@3
  000bb	32 d1		 xor	 dl, cl
  000bd	88 55 f1	 mov	 BYTE PTR __t$[ebp+9], dl
  000c0	8a 50 0a	 mov	 dl, BYTE PTR [eax+10]
  000c3	84 d2		 test	 dl, dl
  000c5	74 6e		 je	 SHORT $LN86@operator@3
  000c7	80 f2 eb	 xor	 dl, -21			; ffffffebH
  000ca	88 55 f2	 mov	 BYTE PTR __t$[ebp+10], dl
  000cd	8a 50 0b	 mov	 dl, BYTE PTR [eax+11]
  000d0	84 d2		 test	 dl, dl
  000d2	74 5b		 je	 SHORT $LN85@operator@3
  000d4	80 f2 ea	 xor	 dl, -22			; ffffffeaH
  000d7	80 78 0c 00	 cmp	 BYTE PTR [eax+12], 0
  000db	88 55 f3	 mov	 BYTE PTR __t$[ebp+11], dl
  000de	0f 84 8f 00 00
	00		 je	 $LN1@operator@3
  000e4	8a 50 0d	 mov	 dl, BYTE PTR [eax+13]
  000e7	84 d2		 test	 dl, dl
  000e9	74 3f		 je	 SHORT $LN83@operator@3
  000eb	32 d1		 xor	 dl, cl
  000ed	88 55 f5	 mov	 BYTE PTR __t$[ebp+13], dl
  000f0	8a 50 0e	 mov	 dl, BYTE PTR [eax+14]
  000f3	84 d2		 test	 dl, dl
  000f5	74 2d		 je	 SHORT $LN82@operator@3
  000f7	80 f2 eb	 xor	 dl, -21			; ffffffebH
  000fa	88 55 f6	 mov	 BYTE PTR __t$[ebp+14], dl
  000fd	8a 50 0f	 mov	 dl, BYTE PTR [eax+15]
  00100	84 d2		 test	 dl, dl
  00102	74 1a		 je	 SHORT $LN81@operator@3
  00104	8a 40 10	 mov	 al, BYTE PTR [eax+16]
  00107	80 f2 ea	 xor	 dl, -22			; ffffffeaH
  0010a	88 55 f7	 mov	 BYTE PTR __t$[ebp+15], dl
  0010d	84 c0		 test	 al, al
  0010f	74 07		 je	 SHORT $LN80@operator@3
  00111	34 ed		 xor	 al, -19			; ffffffedH
  00113	88 45 f8	 mov	 BYTE PTR __t$[ebp+16], al
  00116	eb 5b		 jmp	 SHORT $LN1@operator@3
$LN80@operator@3:
  00118	c6 45 f8 ed	 mov	 BYTE PTR __t$[ebp+16], -19 ; ffffffedH
  0011c	eb 55		 jmp	 SHORT $LN1@operator@3
$LN81@operator@3:
  0011e	c6 45 f7 ea	 mov	 BYTE PTR __t$[ebp+15], -22 ; ffffffeaH
  00122	eb 4f		 jmp	 SHORT $LN1@operator@3
$LN82@operator@3:
  00124	c6 45 f6 eb	 mov	 BYTE PTR __t$[ebp+14], -21 ; ffffffebH
  00128	eb 49		 jmp	 SHORT $LN1@operator@3
$LN83@operator@3:
  0012a	88 4d f5	 mov	 BYTE PTR __t$[ebp+13], cl
  0012d	eb 44		 jmp	 SHORT $LN1@operator@3
$LN85@operator@3:
  0012f	c6 45 f3 ea	 mov	 BYTE PTR __t$[ebp+11], -22 ; ffffffeaH
  00133	eb 3e		 jmp	 SHORT $LN1@operator@3
$LN86@operator@3:
  00135	c6 45 f2 eb	 mov	 BYTE PTR __t$[ebp+10], -21 ; ffffffebH
  00139	eb 38		 jmp	 SHORT $LN1@operator@3
$LN87@operator@3:
  0013b	88 4d f1	 mov	 BYTE PTR __t$[ebp+9], cl
  0013e	eb 33		 jmp	 SHORT $LN1@operator@3
$LN88@operator@3:
  00140	c6 45 f0 ed	 mov	 BYTE PTR __t$[ebp+8], -19 ; ffffffedH
  00144	eb 2d		 jmp	 SHORT $LN1@operator@3
$LN89@operator@3:
  00146	c6 45 ef ea	 mov	 BYTE PTR __t$[ebp+7], -22 ; ffffffeaH
  0014a	eb 27		 jmp	 SHORT $LN1@operator@3
$LN90@operator@3:
  0014c	c6 45 ee eb	 mov	 BYTE PTR __t$[ebp+6], -21 ; ffffffebH
  00150	eb 21		 jmp	 SHORT $LN1@operator@3
$LN91@operator@3:
  00152	88 4d ed	 mov	 BYTE PTR __t$[ebp+5], cl
  00155	eb 1c		 jmp	 SHORT $LN1@operator@3
$LN92@operator@3:
  00157	c6 45 ec ed	 mov	 BYTE PTR __t$[ebp+4], -19 ; ffffffedH
  0015b	eb 16		 jmp	 SHORT $LN1@operator@3
$LN93@operator@3:
  0015d	c6 45 eb ea	 mov	 BYTE PTR __t$[ebp+3], -22 ; ffffffeaH
  00161	eb 10		 jmp	 SHORT $LN1@operator@3
$LN94@operator@3:
  00163	c6 45 ea eb	 mov	 BYTE PTR __t$[ebp+2], -21 ; ffffffebH
  00167	eb 0a		 jmp	 SHORT $LN1@operator@3
$LN95@operator@3:
  00169	c6 45 e9 ec	 mov	 BYTE PTR __t$[ebp+1], -20 ; ffffffecH
  0016d	eb 04		 jmp	 SHORT $LN1@operator@3
$LN96@operator@3:
  0016f	c6 45 e8 ed	 mov	 BYTE PTR __t$[ebp], -19	; ffffffedH
$LN1@operator@3:
  00173	6a 03		 push	 3
  00175	8d 45 e8	 lea	 eax, DWORD PTR __t$[ebp]
  00178	c6 45 f4 00	 mov	 BYTE PTR __t$[ebp+12], 0
  0017c	5a		 pop	 edx
$LL104@operator@3:
  0017d	81 30 ed ec eb
	ea		 xor	 DWORD PTR [eax], -353637139 ; eaebecedH
  00183	83 c0 04	 add	 eax, 4
  00186	4a		 dec	 edx
  00187	75 f4		 jne	 SHORT $LL104@operator@3
  00189	8b cf		 mov	 ecx, edi
  0018b	8d 75 e8	 lea	 esi, DWORD PTR __t$[ebp]
  0018e	ff 15 00 00 00
	00		 call	 DWORD PTR __imp_?c_str@ioHashString@@QBEPBDXZ
$LL111@operator@3:
  00194	8a 08		 mov	 cl, BYTE PTR [eax]
  00196	3a 0e		 cmp	 cl, BYTE PTR [esi]
  00198	75 1a		 jne	 SHORT $LN112@operator@3
  0019a	84 c9		 test	 cl, cl
  0019c	74 12		 je	 SHORT $LN113@operator@3
  0019e	8a 48 01	 mov	 cl, BYTE PTR [eax+1]
  001a1	3a 4e 01	 cmp	 cl, BYTE PTR [esi+1]
  001a4	75 0e		 jne	 SHORT $LN112@operator@3
  001a6	83 c0 02	 add	 eax, 2
  001a9	83 c6 02	 add	 esi, 2
  001ac	84 c9		 test	 cl, cl
  001ae	75 e4		 jne	 SHORT $LL111@operator@3
$LN113@operator@3:
  001b0	33 c0		 xor	 eax, eax
  001b2	eb 05		 jmp	 SHORT $LN114@operator@3
$LN112@operator@3:
  001b4	1b c0		 sbb	 eax, eax
  001b6	83 d8 ff	 sbb	 eax, -1
$LN114@operator@3:
  001b9	33 c9		 xor	 ecx, ecx
  001bb	85 c0		 test	 eax, eax
  001bd	0f 94 c0	 sete	 al

; 148  : }

  001c0	8b 4d fc	 mov	 ecx, DWORD PTR __$ArrayPad$[ebp]
  001c3	5f		 pop	 edi
  001c4	33 cd		 xor	 ecx, ebp
  001c6	5e		 pop	 esi
  001c7	e8 00 00 00 00	 call	 @__security_check_cookie@4
  001cc	c9		 leave
  001cd	c3		 ret	 0
??$?8$0N@@@YA_NABVioHashString@@AAY0N@$$CBD@Z ENDP	; operator==<13>
_TEXT	ENDS
PUBLIC	_rsPublicID$GSCopy$
PUBLIC	__$ArrayPad$
PUBLIC	?IsBillingTestID@ioChannelingNodeParent@@SA_NABVioHashString@@@Z ; ioChannelingNodeParent::IsBillingTestID
; Function compile flags: /Ogsp
; File d:\lost saga for developer\youtube\tutorial\source\src\lsclient\channeling\iochannelingnodeparent.cpp
;	COMDAT ?IsBillingTestID@ioChannelingNodeParent@@SA_NABVioHashString@@@Z
_TEXT	SEGMENT
_rsPublicID$GSCopy$ = -28				; size = 4
__t$506052 = -24					; size = 13
__t$505927 = -20					; size = 7
__t$505789 = -16					; size = 5
__$ArrayPad$ = -4					; size = 4
_rsPublicID$ = 8					; size = 4
?IsBillingTestID@ioChannelingNodeParent@@SA_NABVioHashString@@@Z PROC ; ioChannelingNodeParent::IsBillingTestID, COMDAT

; 15   : {

  00000	55		 push	 ebp
  00001	8b ec		 mov	 ebp, esp
  00003	83 ec 1c	 sub	 esp, 28			; 0000001cH
  00006	a1 00 00 00 00	 mov	 eax, DWORD PTR ___security_cookie
  0000b	33 c5		 xor	 eax, ebp
  0000d	89 45 fc	 mov	 DWORD PTR __$ArrayPad$[ebp], eax
  00010	8b 4d 08	 mov	 ecx, DWORD PTR _rsPublicID$[ebp]
  00013	56		 push	 esi
  00014	57		 push	 edi

; 16   : 	// 아래 "금벌", "금벌인" 아이디 수정시 반드시 대윤씨에게 문의해주세요.
; 17   : 	// 금벌 : 일반, 금벌인 : 엠게임, 실리콘베이브 : 네이버 (재우씨ID)
; 18   : 	if( rsPublicID == "금벌" || rsPublicID == "금벌인" || rsPublicID == "실리콘베이브" ) //Except Extracting Hangeul

  00015	bf ed ec eb ea	 mov	 edi, -353637139		; eaebecedH
  0001a	c7 45 f0 5c 31
	52 10		 mov	 DWORD PTR __t$505789[ebp], 273822044 ; 1052315cH
  00021	31 7d f0	 xor	 DWORD PTR __t$505789[ebp], edi
  00024	89 4d e4	 mov	 DWORD PTR _rsPublicID$GSCopy$[ebp], ecx
  00027	c6 45 f4 00	 mov	 BYTE PTR __t$505789[ebp+4], 0
  0002b	8d 75 f0	 lea	 esi, DWORD PTR __t$505789[ebp]
  0002e	ff 15 00 00 00
	00		 call	 DWORD PTR __imp_?c_str@ioHashString@@QBEPBDXZ
$LL335@IsBillingT:
  00034	8a 08		 mov	 cl, BYTE PTR [eax]
  00036	3a 0e		 cmp	 cl, BYTE PTR [esi]
  00038	75 1a		 jne	 SHORT $LN336@IsBillingT
  0003a	84 c9		 test	 cl, cl
  0003c	74 12		 je	 SHORT $LN337@IsBillingT
  0003e	8a 48 01	 mov	 cl, BYTE PTR [eax+1]
  00041	3a 4e 01	 cmp	 cl, BYTE PTR [esi+1]
  00044	75 0e		 jne	 SHORT $LN336@IsBillingT
  00046	83 c0 02	 add	 eax, 2
  00049	83 c6 02	 add	 esi, 2
  0004c	84 c9		 test	 cl, cl
  0004e	75 e4		 jne	 SHORT $LL335@IsBillingT
$LN337@IsBillingT:
  00050	33 c0		 xor	 eax, eax
  00052	eb 05		 jmp	 SHORT $LN338@IsBillingT
$LN336@IsBillingT:
  00054	1b c0		 sbb	 eax, eax
  00056	83 d8 ff	 sbb	 eax, -1
$LN338@IsBillingT:
  00059	85 c0		 test	 eax, eax
  0005b	0f 84 c9 00 00
	00		 je	 $LN1@IsBillingT
  00061	6a 04		 push	 4
  00063	c7 45 ec 5c 31
	52 10		 mov	 DWORD PTR __t$505927[ebp], 273822044 ; 1052315cH
  0006a	31 7d ec	 xor	 DWORD PTR __t$505927[ebp], edi
  0006d	66 c7 45 f0 2d
	22		 mov	 WORD PTR __t$505927[ebp+4], 8749 ; 0000222dH
  00073	c6 45 f2 00	 mov	 BYTE PTR __t$505927[ebp+6], 0
  00077	58		 pop	 eax
$LL211@IsBillingT:
  00078	8b c8		 mov	 ecx, eax
  0007a	81 e1 03 00 00
	80		 and	 ecx, -2147483645	; 80000003H
  00080	79 05		 jns	 SHORT $LN347@IsBillingT
  00082	49		 dec	 ecx
  00083	83 c9 fc	 or	 ecx, -4			; fffffffcH
  00086	41		 inc	 ecx
$LN347@IsBillingT:
  00087	b2 ed		 mov	 dl, -19			; ffffffedH
  00089	2a d1		 sub	 dl, cl
  0008b	30 54 05 ec	 xor	 BYTE PTR __t$505927[ebp+eax], dl
  0008f	40		 inc	 eax
  00090	83 f8 06	 cmp	 eax, 6
  00093	7c e3		 jl	 SHORT $LL211@IsBillingT
  00095	8b 4d e4	 mov	 ecx, DWORD PTR _rsPublicID$GSCopy$[ebp]
  00098	8d 75 ec	 lea	 esi, DWORD PTR __t$505927[ebp]
  0009b	ff 15 00 00 00
	00		 call	 DWORD PTR __imp_?c_str@ioHashString@@QBEPBDXZ
$LL339@IsBillingT:
  000a1	8a 08		 mov	 cl, BYTE PTR [eax]
  000a3	3a 0e		 cmp	 cl, BYTE PTR [esi]
  000a5	75 1a		 jne	 SHORT $LN340@IsBillingT
  000a7	84 c9		 test	 cl, cl
  000a9	74 12		 je	 SHORT $LN341@IsBillingT
  000ab	8a 48 01	 mov	 cl, BYTE PTR [eax+1]
  000ae	3a 4e 01	 cmp	 cl, BYTE PTR [esi+1]
  000b1	75 0e		 jne	 SHORT $LN340@IsBillingT
  000b3	83 c0 02	 add	 eax, 2
  000b6	83 c6 02	 add	 esi, 2
  000b9	84 c9		 test	 cl, cl
  000bb	75 e4		 jne	 SHORT $LL339@IsBillingT
$LN341@IsBillingT:
  000bd	33 c0		 xor	 eax, eax
  000bf	eb 05		 jmp	 SHORT $LN342@IsBillingT
$LN340@IsBillingT:
  000c1	1b c0		 sbb	 eax, eax
  000c3	83 d8 ff	 sbb	 eax, -1
$LN342@IsBillingT:
  000c6	85 c0		 test	 eax, eax
  000c8	74 60		 je	 SHORT $LN1@IsBillingT
  000ca	6a 03		 push	 3
  000cc	c7 45 e8 50 2b
	53 44		 mov	 DWORD PTR __t$506052[ebp], 1146301264 ; 44532b50H
  000d3	c7 45 ec 29 30
	51 49		 mov	 DWORD PTR __t$506052[ebp+4], 1230057513 ; 49513029H
  000da	c7 45 f0 2d 20
	51 00		 mov	 DWORD PTR __t$506052[ebp+8], 5316653 ; 0051202dH
  000e1	8d 45 e8	 lea	 eax, DWORD PTR __t$506052[ebp]
  000e4	c6 45 f4 00	 mov	 BYTE PTR __t$506052[ebp+12], 0
  000e8	59		 pop	 ecx
$LL320@IsBillingT:
  000e9	31 38		 xor	 DWORD PTR [eax], edi
  000eb	83 c0 04	 add	 eax, 4
  000ee	49		 dec	 ecx
  000ef	75 f8		 jne	 SHORT $LL320@IsBillingT
  000f1	8b 4d e4	 mov	 ecx, DWORD PTR _rsPublicID$GSCopy$[ebp]
  000f4	8d 75 e8	 lea	 esi, DWORD PTR __t$506052[ebp]
  000f7	ff 15 00 00 00
	00		 call	 DWORD PTR __imp_?c_str@ioHashString@@QBEPBDXZ
$LL343@IsBillingT:
  000fd	8a 08		 mov	 cl, BYTE PTR [eax]
  000ff	3a 0e		 cmp	 cl, BYTE PTR [esi]
  00101	75 1a		 jne	 SHORT $LN344@IsBillingT
  00103	84 c9		 test	 cl, cl
  00105	74 12		 je	 SHORT $LN345@IsBillingT
  00107	8a 48 01	 mov	 cl, BYTE PTR [eax+1]
  0010a	3a 4e 01	 cmp	 cl, BYTE PTR [esi+1]
  0010d	75 0e		 jne	 SHORT $LN344@IsBillingT
  0010f	83 c0 02	 add	 eax, 2
  00112	83 c6 02	 add	 esi, 2
  00115	84 c9		 test	 cl, cl
  00117	75 e4		 jne	 SHORT $LL343@IsBillingT
$LN345@IsBillingT:
  00119	33 c0		 xor	 eax, eax
  0011b	eb 05		 jmp	 SHORT $LN346@IsBillingT
$LN344@IsBillingT:
  0011d	1b c0		 sbb	 eax, eax
  0011f	83 d8 ff	 sbb	 eax, -1
$LN346@IsBillingT:
  00122	85 c0		 test	 eax, eax
  00124	74 04		 je	 SHORT $LN1@IsBillingT

; 20   : 
; 21   : 	return false;

  00126	32 c0		 xor	 al, al
  00128	eb 02		 jmp	 SHORT $LN3@IsBillingT
$LN1@IsBillingT:

; 19   : 		return true;

  0012a	b0 01		 mov	 al, 1
$LN3@IsBillingT:

; 22   : }

  0012c	8b 4d fc	 mov	 ecx, DWORD PTR __$ArrayPad$[ebp]
  0012f	5f		 pop	 edi
  00130	33 cd		 xor	 ecx, ebp
  00132	5e		 pop	 esi
  00133	e8 00 00 00 00	 call	 @__security_check_cookie@4
  00138	c9		 leave
  00139	c3		 ret	 0
?IsBillingTestID@ioChannelingNodeParent@@SA_NABVioHashString@@@Z ENDP ; ioChannelingNodeParent::IsBillingTestID
_TEXT	ENDS
END
