; Listing generated by Microsoft (R) Optimizing Compiler Version 16.00.30319.01 

	TITLE	D:\Lost Saga For Developer\Youtube\Tutorial\Source\src\LSClient\ioChargeCounter.cpp
	.686P
	.XMM
	include listing.inc
	.model	flat

INCLUDELIB MSVCRT
INCLUDELIB OLDNAMES

PUBLIC	??_7ioChargeCounter@@6B@			; ioChargeCounter::`vftable'
PUBLIC	??0ioChargeCounter@@QAE@XZ			; ioChargeCounter::ioChargeCounter
PUBLIC	??_R4ioChargeCounter@@6B@			; ioChargeCounter::`RTTI Complete Object Locator'
PUBLIC	??_R0?AVioChargeCounter@@@8			; ioChargeCounter `RTTI Type Descriptor'
PUBLIC	??_R3ioChargeCounter@@8				; ioChargeCounter::`RTTI Class Hierarchy Descriptor'
PUBLIC	??_R2ioChargeCounter@@8				; ioChargeCounter::`RTTI Base Class Array'
PUBLIC	??_R1A@?0A@EA@ioChargeCounter@@8		; ioChargeCounter::`RTTI Base Class Descriptor at (0,-1,0,64)'
PUBLIC	??_R1A@?0A@EA@ioCounterAttack@@8		; ioCounterAttack::`RTTI Base Class Descriptor at (0,-1,0,64)'
PUBLIC	??_R0?AVioCounterAttack@@@8			; ioCounterAttack `RTTI Type Descriptor'
PUBLIC	??_R3ioCounterAttack@@8				; ioCounterAttack::`RTTI Class Hierarchy Descriptor'
PUBLIC	??_R2ioCounterAttack@@8				; ioCounterAttack::`RTTI Base Class Array'
PUBLIC	?LoadProperty@ioChargeCounter@@UAEXAAVioINILoader@@@Z ; ioChargeCounter::LoadProperty
PUBLIC	?GetType@ioChargeCounter@@UBE?AW4CounterAttackType@@XZ ; ioChargeCounter::GetType
PUBLIC	?Clone@ioChargeCounter@@UAEPAVioCounterAttack@@XZ ; ioChargeCounter::Clone
PUBLIC	?StartCAT@ioChargeCounter@@UAE_NPAVioBaseChar@@H@Z ; ioChargeCounter::StartCAT
PUBLIC	?ProcessCAT@ioChargeCounter@@UAEXPAVioBaseChar@@@Z ; ioChargeCounter::ProcessCAT
PUBLIC	?ApplyCAT@ioChargeCounter@@UAEXPAVioBaseChar@@AAVSP2Packet@@@Z ; ioChargeCounter::ApplyCAT
PUBLIC	?IsEnableDashCheck@ioCounterAttack@@UAE_NXZ	; ioCounterAttack::IsEnableDashCheck
EXTRN	??0ioCounterAttack@@QAE@XZ:PROC			; ioCounterAttack::ioCounterAttack
EXTRN	??_7type_info@@6B@:QWORD			; type_info::`vftable'
EXTRN	?InitAniRotate@ioCounterAttack@@UAEXXZ:PROC	; ioCounterAttack::InitAniRotate
EXTRN	?SetAniRotate@ioCounterAttack@@UAEXPAVioBaseChar@@HM@Z:PROC ; ioCounterAttack::SetAniRotate
EXTRN	?CheckAniRotate@ioCounterAttack@@UAEXPAVioBaseChar@@@Z:PROC ; ioCounterAttack::CheckAniRotate
EXTRN	?SetInputSpecialDash@ioCounterAttack@@UAEXPAVioBaseChar@@ABUAttackAttribute@@@Z:PROC ; ioCounterAttack::SetInputSpecialDash
EXTRN	?CheckInputSpecialDash@ioCounterAttack@@UAE_NPAVioBaseChar@@@Z:PROC ; ioCounterAttack::CheckInputSpecialDash
EXTRN	??_EioChargeCounter@@UAEPAXI@Z:PROC		; ioChargeCounter::`vector deleting destructor'
;	COMDAT ??_R2ioCounterAttack@@8
; File d:\lost saga for developer\youtube\tutorial\source\src\lsclient\iochargecounter.cpp
rdata$r	SEGMENT
??_R2ioCounterAttack@@8 DD FLAT:??_R1A@?0A@EA@ioCounterAttack@@8 ; ioCounterAttack::`RTTI Base Class Array'
rdata$r	ENDS
;	COMDAT ??_R3ioCounterAttack@@8
rdata$r	SEGMENT
??_R3ioCounterAttack@@8 DD 00H				; ioCounterAttack::`RTTI Class Hierarchy Descriptor'
	DD	00H
	DD	01H
	DD	FLAT:??_R2ioCounterAttack@@8
rdata$r	ENDS
;	COMDAT ??_R0?AVioCounterAttack@@@8
_DATA	SEGMENT
??_R0?AVioCounterAttack@@@8 DD FLAT:??_7type_info@@6B@	; ioCounterAttack `RTTI Type Descriptor'
	DD	00H
	DB	'.?AVioCounterAttack@@', 00H
_DATA	ENDS
;	COMDAT ??_R1A@?0A@EA@ioCounterAttack@@8
rdata$r	SEGMENT
??_R1A@?0A@EA@ioCounterAttack@@8 DD FLAT:??_R0?AVioCounterAttack@@@8 ; ioCounterAttack::`RTTI Base Class Descriptor at (0,-1,0,64)'
	DD	00H
	DD	00H
	DD	0ffffffffH
	DD	00H
	DD	040H
	DD	FLAT:??_R3ioCounterAttack@@8
rdata$r	ENDS
;	COMDAT ??_R1A@?0A@EA@ioChargeCounter@@8
rdata$r	SEGMENT
??_R1A@?0A@EA@ioChargeCounter@@8 DD FLAT:??_R0?AVioChargeCounter@@@8 ; ioChargeCounter::`RTTI Base Class Descriptor at (0,-1,0,64)'
	DD	01H
	DD	00H
	DD	0ffffffffH
	DD	00H
	DD	040H
	DD	FLAT:??_R3ioChargeCounter@@8
rdata$r	ENDS
;	COMDAT ??_R2ioChargeCounter@@8
rdata$r	SEGMENT
??_R2ioChargeCounter@@8 DD FLAT:??_R1A@?0A@EA@ioChargeCounter@@8 ; ioChargeCounter::`RTTI Base Class Array'
	DD	FLAT:??_R1A@?0A@EA@ioCounterAttack@@8
rdata$r	ENDS
;	COMDAT ??_R3ioChargeCounter@@8
rdata$r	SEGMENT
??_R3ioChargeCounter@@8 DD 00H				; ioChargeCounter::`RTTI Class Hierarchy Descriptor'
	DD	00H
	DD	02H
	DD	FLAT:??_R2ioChargeCounter@@8
rdata$r	ENDS
;	COMDAT ??_R0?AVioChargeCounter@@@8
_DATA	SEGMENT
??_R0?AVioChargeCounter@@@8 DD FLAT:??_7type_info@@6B@	; ioChargeCounter `RTTI Type Descriptor'
	DD	00H
	DB	'.?AVioChargeCounter@@', 00H
_DATA	ENDS
;	COMDAT ??_R4ioChargeCounter@@6B@
rdata$r	SEGMENT
??_R4ioChargeCounter@@6B@ DD 00H			; ioChargeCounter::`RTTI Complete Object Locator'
	DD	00H
	DD	00H
	DD	FLAT:??_R0?AVioChargeCounter@@@8
	DD	FLAT:??_R3ioChargeCounter@@8
rdata$r	ENDS
;	COMDAT ??_7ioChargeCounter@@6B@
CONST	SEGMENT
??_7ioChargeCounter@@6B@ DD FLAT:??_R4ioChargeCounter@@6B@ ; ioChargeCounter::`vftable'
	DD	FLAT:?LoadProperty@ioChargeCounter@@UAEXAAVioINILoader@@@Z
	DD	FLAT:?GetType@ioChargeCounter@@UBE?AW4CounterAttackType@@XZ
	DD	FLAT:?Clone@ioChargeCounter@@UAEPAVioCounterAttack@@XZ
	DD	FLAT:?StartCAT@ioChargeCounter@@UAE_NPAVioBaseChar@@H@Z
	DD	FLAT:?ProcessCAT@ioChargeCounter@@UAEXPAVioBaseChar@@@Z
	DD	FLAT:?ApplyCAT@ioChargeCounter@@UAEXPAVioBaseChar@@AAVSP2Packet@@@Z
	DD	FLAT:?InitAniRotate@ioCounterAttack@@UAEXXZ
	DD	FLAT:?SetAniRotate@ioCounterAttack@@UAEXPAVioBaseChar@@HM@Z
	DD	FLAT:?CheckAniRotate@ioCounterAttack@@UAEXPAVioBaseChar@@@Z
	DD	FLAT:?IsEnableDashCheck@ioCounterAttack@@UAE_NXZ
	DD	FLAT:?SetInputSpecialDash@ioCounterAttack@@UAEXPAVioBaseChar@@ABUAttackAttribute@@@Z
	DD	FLAT:?CheckInputSpecialDash@ioCounterAttack@@UAE_NPAVioBaseChar@@@Z
	DD	FLAT:??_EioChargeCounter@@UAEPAXI@Z
; Function compile flags: /Ogsp
CONST	ENDS
;	COMDAT ??0ioChargeCounter@@QAE@XZ
_TEXT	SEGMENT
??0ioChargeCounter@@QAE@XZ PROC				; ioChargeCounter::ioChargeCounter, COMDAT
; _this$ = ecx

; 10   : {

  00000	56		 push	 esi
  00001	8b f1		 mov	 esi, ecx
  00003	e8 00 00 00 00	 call	 ??0ioCounterAttack@@QAE@XZ ; ioCounterAttack::ioCounterAttack
  00008	c7 06 00 00 00
	00		 mov	 DWORD PTR [esi], OFFSET ??_7ioChargeCounter@@6B@

; 11   : }

  0000e	8b c6		 mov	 eax, esi
  00010	5e		 pop	 esi
  00011	c3		 ret	 0
??0ioChargeCounter@@QAE@XZ ENDP				; ioChargeCounter::ioChargeCounter
; Function compile flags: /Ogsp
; File d:\lost saga for developer\youtube\tutorial\source\src\lsclient\iocounterattack.h
_TEXT	ENDS
;	COMDAT ?IsEnableDashCheck@ioCounterAttack@@UAE_NXZ
_TEXT	SEGMENT
?IsEnableDashCheck@ioCounterAttack@@UAE_NXZ PROC	; ioCounterAttack::IsEnableDashCheck, COMDAT
; _this$ = ecx

; 37   : 	virtual bool IsEnableDashCheck() { return m_bEnableDashCheck; }

  00000	8a 81 c0 00 00
	00		 mov	 al, BYTE PTR [ecx+192]
  00006	c3		 ret	 0
?IsEnableDashCheck@ioCounterAttack@@UAE_NXZ ENDP	; ioCounterAttack::IsEnableDashCheck
_TEXT	ENDS
PUBLIC	??0ioChargeCounter@@QAE@ABV0@@Z			; ioChargeCounter::ioChargeCounter
EXTRN	??0ioCounterAttack@@QAE@ABV0@@Z:PROC		; ioCounterAttack::ioCounterAttack
; Function compile flags: /Ogsp
; File d:\lost saga for developer\youtube\tutorial\source\src\lsclient\iochargecounter.cpp
;	COMDAT ??0ioChargeCounter@@QAE@ABV0@@Z
_TEXT	SEGMENT
_rhs$ = 8						; size = 4
??0ioChargeCounter@@QAE@ABV0@@Z PROC			; ioChargeCounter::ioChargeCounter, COMDAT
; _this$ = ecx

; 15   : {

  00000	55		 push	 ebp
  00001	8b ec		 mov	 ebp, esp
  00003	56		 push	 esi
  00004	ff 75 08	 push	 DWORD PTR _rhs$[ebp]
  00007	8b f1		 mov	 esi, ecx
  00009	e8 00 00 00 00	 call	 ??0ioCounterAttack@@QAE@ABV0@@Z ; ioCounterAttack::ioCounterAttack
  0000e	c7 06 00 00 00
	00		 mov	 DWORD PTR [esi], OFFSET ??_7ioChargeCounter@@6B@

; 16   : }

  00014	8b c6		 mov	 eax, esi
  00016	5e		 pop	 esi
  00017	5d		 pop	 ebp
  00018	c2 04 00	 ret	 4
??0ioChargeCounter@@QAE@ABV0@@Z ENDP			; ioChargeCounter::ioChargeCounter
_TEXT	ENDS
PUBLIC	??1ioChargeCounter@@UAE@XZ			; ioChargeCounter::~ioChargeCounter
EXTRN	??1ioCounterAttack@@UAE@XZ:PROC			; ioCounterAttack::~ioCounterAttack
; Function compile flags: /Ogsp
;	COMDAT ??1ioChargeCounter@@UAE@XZ
_TEXT	SEGMENT
??1ioChargeCounter@@UAE@XZ PROC				; ioChargeCounter::~ioChargeCounter, COMDAT
; _this$ = ecx

; 19   : {

  00000	c7 01 00 00 00
	00		 mov	 DWORD PTR [ecx], OFFSET ??_7ioChargeCounter@@6B@

; 20   : }

  00006	e9 00 00 00 00	 jmp	 ??1ioCounterAttack@@UAE@XZ ; ioCounterAttack::~ioCounterAttack
??1ioChargeCounter@@UAE@XZ ENDP				; ioChargeCounter::~ioChargeCounter
_TEXT	ENDS
EXTRN	?LoadProperty@ioCounterAttack@@UAEXAAVioINILoader@@@Z:PROC ; ioCounterAttack::LoadProperty
; Function compile flags: /Ogsp
;	COMDAT ?LoadProperty@ioChargeCounter@@UAEXAAVioINILoader@@@Z
_TEXT	SEGMENT
_rkLoader$ = 8						; size = 4
?LoadProperty@ioChargeCounter@@UAEXAAVioINILoader@@@Z PROC ; ioChargeCounter::LoadProperty, COMDAT
; _this$ = ecx

; 23   : {

  00000	55		 push	 ebp
  00001	8b ec		 mov	 ebp, esp

; 25   : }

  00003	5d		 pop	 ebp

; 24   : 	ioCounterAttack::LoadProperty( rkLoader );

  00004	e9 00 00 00 00	 jmp	 ?LoadProperty@ioCounterAttack@@UAEXAAVioINILoader@@@Z ; ioCounterAttack::LoadProperty
?LoadProperty@ioChargeCounter@@UAEXAAVioINILoader@@@Z ENDP ; ioChargeCounter::LoadProperty
_TEXT	ENDS
EXTRN	??3@YAXPAX@Z:PROC				; operator delete
EXTRN	??2@YAPAXI@Z:PROC				; operator new
EXTRN	___CxxFrameHandler3:PROC
EXTRN	@__security_check_cookie@4:PROC
EXTRN	__EH_epilog3:PROC
EXTRN	__EH_prolog3:PROC
;	COMDAT xdata$x
xdata$x	SEGMENT
__unwindtable$?Clone@ioChargeCounter@@UAEPAVioCounterAttack@@XZ DD 0ffffffffH
	DD	FLAT:__unwindfunclet$?Clone@ioChargeCounter@@UAEPAVioCounterAttack@@XZ$0
__ehfuncinfo$?Clone@ioChargeCounter@@UAEPAVioCounterAttack@@XZ DD 019930522H
	DD	01H
	DD	FLAT:__unwindtable$?Clone@ioChargeCounter@@UAEPAVioCounterAttack@@XZ
	DD	2 DUP(00H)
	DD	2 DUP(00H)
	DD	00H
	DD	01H
; Function compile flags: /Ogsp
xdata$x	ENDS
;	COMDAT ?Clone@ioChargeCounter@@UAEPAVioCounterAttack@@XZ
_TEXT	SEGMENT
$T585656 = -16						; size = 4
__$EHRec$ = -12						; size = 12
?Clone@ioChargeCounter@@UAEPAVioCounterAttack@@XZ PROC	; ioChargeCounter::Clone, COMDAT
; _this$ = ecx

; 28   : {

  00000	6a 04		 push	 4
  00002	b8 00 00 00 00	 mov	 eax, __ehhandler$?Clone@ioChargeCounter@@UAEPAVioCounterAttack@@XZ
  00007	e8 00 00 00 00	 call	 __EH_prolog3
  0000c	8b f1		 mov	 esi, ecx

; 29   : 	return new ioChargeCounter( *this );

  0000e	68 c8 00 00 00	 push	 200			; 000000c8H
  00013	e8 00 00 00 00	 call	 ??2@YAPAXI@Z		; operator new
  00018	59		 pop	 ecx
  00019	8b c8		 mov	 ecx, eax
  0001b	89 4d f0	 mov	 DWORD PTR $T585656[ebp], ecx
  0001e	33 c0		 xor	 eax, eax
  00020	89 45 fc	 mov	 DWORD PTR __$EHRec$[ebp+8], eax
  00023	3b c8		 cmp	 ecx, eax
  00025	74 06		 je	 SHORT $LN3@Clone
  00027	56		 push	 esi
  00028	e8 00 00 00 00	 call	 ??0ioChargeCounter@@QAE@ABV0@@Z ; ioChargeCounter::ioChargeCounter
$LN3@Clone:

; 30   : }

  0002d	e8 00 00 00 00	 call	 __EH_epilog3
  00032	c3		 ret	 0
_TEXT	ENDS
;	COMDAT text$x
text$x	SEGMENT
__unwindfunclet$?Clone@ioChargeCounter@@UAEPAVioCounterAttack@@XZ$0:
  00000	ff 75 f0	 push	 DWORD PTR $T585656[ebp]
  00003	e8 00 00 00 00	 call	 ??3@YAXPAX@Z		; operator delete
  00008	59		 pop	 ecx
  00009	c3		 ret	 0
__ehhandler$?Clone@ioChargeCounter@@UAEPAVioCounterAttack@@XZ:
  0000a	8b 54 24 08	 mov	 edx, DWORD PTR [esp+8]
  0000e	8d 42 0c	 lea	 eax, DWORD PTR [edx+12]
  00011	8b 4a ec	 mov	 ecx, DWORD PTR [edx-20]
  00014	33 c8		 xor	 ecx, eax
  00016	e8 00 00 00 00	 call	 @__security_check_cookie@4
  0001b	b8 00 00 00 00	 mov	 eax, OFFSET __ehfuncinfo$?Clone@ioChargeCounter@@UAEPAVioCounterAttack@@XZ
  00020	e9 00 00 00 00	 jmp	 ___CxxFrameHandler3
text$x	ENDS
?Clone@ioChargeCounter@@UAEPAVioCounterAttack@@XZ ENDP	; ioChargeCounter::Clone
; Function compile flags: /Ogsp
;	COMDAT ?GetType@ioChargeCounter@@UBE?AW4CounterAttackType@@XZ
_TEXT	SEGMENT
?GetType@ioChargeCounter@@UBE?AW4CounterAttackType@@XZ PROC ; ioChargeCounter::GetType, COMDAT
; _this$ = ecx

; 34   : 	return CAT_CHARGE;

  00000	6a 02		 push	 2
  00002	58		 pop	 eax

; 35   : }

  00003	c3		 ret	 0
?GetType@ioChargeCounter@@UBE?AW4CounterAttackType@@XZ ENDP ; ioChargeCounter::GetType
; Function compile flags: /Ogsp
_TEXT	ENDS
;	COMDAT ?ApplyCAT@ioChargeCounter@@UAEXPAVioBaseChar@@AAVSP2Packet@@@Z
_TEXT	SEGMENT
_pOwner$ = 8						; size = 4
_rkPacket$ = 12						; size = 4
?ApplyCAT@ioChargeCounter@@UAEXPAVioBaseChar@@AAVSP2Packet@@@Z PROC ; ioChargeCounter::ApplyCAT, COMDAT
; _this$ = ecx

; 39   : }

  00000	c2 08 00	 ret	 8
?ApplyCAT@ioChargeCounter@@UAEXPAVioBaseChar@@AAVSP2Packet@@@Z ENDP ; ioChargeCounter::ApplyCAT
; Function compile flags: /Ogsp
_TEXT	ENDS
;	COMDAT ?ProcessCAT@ioChargeCounter@@UAEXPAVioBaseChar@@@Z
_TEXT	SEGMENT
_pOwner$ = 8						; size = 4
?ProcessCAT@ioChargeCounter@@UAEXPAVioBaseChar@@@Z PROC	; ioChargeCounter::ProcessCAT, COMDAT
; _this$ = ecx

; 61   : }

  00000	c2 04 00	 ret	 4
?ProcessCAT@ioChargeCounter@@UAEXPAVioBaseChar@@@Z ENDP	; ioChargeCounter::ProcessCAT
_TEXT	ENDS
PUBLIC	??_R0?AVioItem@@@8				; ioItem `RTTI Type Descriptor'
PUBLIC	??_R0?AVioWeaponItem@@@8			; ioWeaponItem `RTTI Type Descriptor'
PUBLIC	?ToWeaponItem@@YAPAVioWeaponItem@@PAVioItem@@@Z	; ToWeaponItem
EXTRN	___RTDynamicCast:PROC
;	COMDAT ??_R0?AVioItem@@@8
; File d:\lost saga for developer\youtube\tutorial\source\src\lsclient\ioweaponitem.h
_DATA	SEGMENT
??_R0?AVioItem@@@8 DD FLAT:??_7type_info@@6B@		; ioItem `RTTI Type Descriptor'
	DD	00H
	DB	'.?AVioItem@@', 00H
_DATA	ENDS
;	COMDAT ??_R0?AVioWeaponItem@@@8
_DATA	SEGMENT
??_R0?AVioWeaponItem@@@8 DD FLAT:??_7type_info@@6B@	; ioWeaponItem `RTTI Type Descriptor'
	DD	00H
	DB	'.?AVioWeaponItem@@', 00H
; Function compile flags: /Ogsp
_DATA	ENDS
;	COMDAT ?ToWeaponItem@@YAPAVioWeaponItem@@PAVioItem@@@Z
_TEXT	SEGMENT
_pItem$ = 8						; size = 4
?ToWeaponItem@@YAPAVioWeaponItem@@PAVioItem@@@Z PROC	; ToWeaponItem, COMDAT

; 303  : {

  00000	55		 push	 ebp
  00001	8b ec		 mov	 ebp, esp
  00003	56		 push	 esi

; 304  : 	if( !pItem || pItem->GetType() != ioItem::IT_WEAPON )

  00004	8b 75 08	 mov	 esi, DWORD PTR _pItem$[ebp]
  00007	85 f6		 test	 esi, esi
  00009	74 25		 je	 SHORT $LN1@ToWeaponIt
  0000b	8b 06		 mov	 eax, DWORD PTR [esi]
  0000d	8b ce		 mov	 ecx, esi
  0000f	ff 50 08	 call	 DWORD PTR [eax+8]
  00012	83 f8 01	 cmp	 eax, 1
  00015	75 19		 jne	 SHORT $LN1@ToWeaponIt

; 306  : 
; 307  : 	return dynamic_cast< ioWeaponItem* >( pItem );

  00017	6a 00		 push	 0
  00019	68 00 00 00 00	 push	 OFFSET ??_R0?AVioWeaponItem@@@8
  0001e	68 00 00 00 00	 push	 OFFSET ??_R0?AVioItem@@@8
  00023	6a 00		 push	 0
  00025	56		 push	 esi
  00026	e8 00 00 00 00	 call	 ___RTDynamicCast
  0002b	83 c4 14	 add	 esp, 20			; 00000014H
  0002e	eb 02		 jmp	 SHORT $LN3@ToWeaponIt
$LN1@ToWeaponIt:

; 305  : 		return NULL;

  00030	33 c0		 xor	 eax, eax
$LN3@ToWeaponIt:
  00032	5e		 pop	 esi

; 308  : }

  00033	5d		 pop	 ebp
  00034	c3		 ret	 0
?ToWeaponItem@@YAPAVioWeaponItem@@PAVioItem@@@Z ENDP	; ToWeaponItem
_TEXT	ENDS
PUBLIC	??_R0?AVioChargeContactWeaponItem2@@@8		; ioChargeContactWeaponItem2 `RTTI Type Descriptor'
PUBLIC	?ToChargeContactWeaponItem2@@YAPAVioChargeContactWeaponItem2@@PAVioItem@@@Z ; ToChargeContactWeaponItem2
;	COMDAT ??_R0?AVioChargeContactWeaponItem2@@@8
; File d:\lost saga for developer\youtube\tutorial\source\src\lsclient\iochargecontactweaponitem2.h
_DATA	SEGMENT
??_R0?AVioChargeContactWeaponItem2@@@8 DD FLAT:??_7type_info@@6B@ ; ioChargeContactWeaponItem2 `RTTI Type Descriptor'
	DD	00H
	DB	'.?AVioChargeContactWeaponItem2@@', 00H
; Function compile flags: /Ogsp
_DATA	ENDS
;	COMDAT ?ToChargeContactWeaponItem2@@YAPAVioChargeContactWeaponItem2@@PAVioItem@@@Z
_TEXT	SEGMENT
_pItem$ = 8						; size = 4
?ToChargeContactWeaponItem2@@YAPAVioChargeContactWeaponItem2@@PAVioItem@@@Z PROC ; ToChargeContactWeaponItem2, COMDAT

; 106  : {

  00000	55		 push	 ebp
  00001	8b ec		 mov	 ebp, esp

; 107  : 	ioWeaponItem *pWeapon = ToWeaponItem( pItem );

  00003	ff 75 08	 push	 DWORD PTR _pItem$[ebp]
  00006	e8 00 00 00 00	 call	 ?ToWeaponItem@@YAPAVioWeaponItem@@PAVioItem@@@Z ; ToWeaponItem
  0000b	59		 pop	 ecx

; 108  : 	if( !pWeapon || pWeapon->GetSubType() != ioWeaponItem::WST_CHARGE_CONTACT2 )

  0000c	85 c0		 test	 eax, eax
  0000e	74 2a		 je	 SHORT $LN1@ToChargeCo
  00010	8b 10		 mov	 edx, DWORD PTR [eax]
  00012	8b c8		 mov	 ecx, eax
  00014	ff 92 f0 02 00
	00		 call	 DWORD PTR [edx+752]
  0001a	83 f8 34	 cmp	 eax, 52			; 00000034H
  0001d	75 1b		 jne	 SHORT $LN1@ToChargeCo

; 110  : 
; 111  : 	return dynamic_cast< ioChargeContactWeaponItem2* >( pItem );

  0001f	6a 00		 push	 0
  00021	68 00 00 00 00	 push	 OFFSET ??_R0?AVioChargeContactWeaponItem2@@@8
  00026	68 00 00 00 00	 push	 OFFSET ??_R0?AVioItem@@@8
  0002b	6a 00		 push	 0
  0002d	ff 75 08	 push	 DWORD PTR _pItem$[ebp]
  00030	e8 00 00 00 00	 call	 ___RTDynamicCast
  00035	83 c4 14	 add	 esp, 20			; 00000014H

; 112  : }

  00038	5d		 pop	 ebp
  00039	c3		 ret	 0
$LN1@ToChargeCo:

; 109  : 		return NULL;

  0003a	33 c0		 xor	 eax, eax

; 112  : }

  0003c	5d		 pop	 ebp
  0003d	c3		 ret	 0
?ToChargeContactWeaponItem2@@YAPAVioChargeContactWeaponItem2@@PAVioItem@@@Z ENDP ; ToChargeContactWeaponItem2
; Function compile flags: /Ogsp
_TEXT	ENDS
;	COMDAT ??_GioChargeCounter@@UAEPAXI@Z
_TEXT	SEGMENT
___flags$ = 8						; size = 4
??_GioChargeCounter@@UAEPAXI@Z PROC			; ioChargeCounter::`scalar deleting destructor', COMDAT
; _this$ = ecx
  00000	55		 push	 ebp
  00001	8b ec		 mov	 ebp, esp
  00003	56		 push	 esi
  00004	8b f1		 mov	 esi, ecx
  00006	c7 06 00 00 00
	00		 mov	 DWORD PTR [esi], OFFSET ??_7ioChargeCounter@@6B@
  0000c	e8 00 00 00 00	 call	 ??1ioCounterAttack@@UAE@XZ ; ioCounterAttack::~ioCounterAttack
  00011	f6 45 08 01	 test	 BYTE PTR ___flags$[ebp], 1
  00015	74 07		 je	 SHORT $LN1@scalar
  00017	56		 push	 esi
  00018	e8 00 00 00 00	 call	 ??3@YAXPAX@Z		; operator delete
  0001d	59		 pop	 ecx
$LN1@scalar:
  0001e	8b c6		 mov	 eax, esi
  00020	5e		 pop	 esi
  00021	5d		 pop	 ebp
  00022	c2 04 00	 ret	 4
??_GioChargeCounter@@UAEPAXI@Z ENDP			; ioChargeCounter::`scalar deleting destructor'
_TEXT	ENDS
EXTRN	?SetChargeAttackByCounter@ioChargeContactWeaponItem2@@QAEXPAVioBaseChar@@@Z:PROC ; ioChargeContactWeaponItem2::SetChargeAttackByCounter
EXTRN	?GetPriorityItem@ioBaseChar@@QBEPAVioAttackableItem@@W4StatePriorityType@@@Z:PROC ; ioBaseChar::GetPriorityItem
; Function compile flags: /Ogsp
; File d:\lost saga for developer\youtube\tutorial\source\src\lsclient\iochargecounter.cpp
;	COMDAT ?StartCAT@ioChargeCounter@@UAE_NPAVioBaseChar@@H@Z
_TEXT	SEGMENT
_pOwner$ = 8						; size = 4
_iCounterAttackKeyState$ = 12				; size = 4
?StartCAT@ioChargeCounter@@UAE_NPAVioBaseChar@@H@Z PROC	; ioChargeCounter::StartCAT, COMDAT
; _this$ = ecx

; 42   : {

  00000	55		 push	 ebp
  00001	8b ec		 mov	 ebp, esp

; 43   : 	if( !pOwner )

  00003	83 7d 08 00	 cmp	 DWORD PTR _pOwner$[ebp], 0

; 44   : 		return false;

  00007	74 29		 je	 SHORT $LN3@StartCAT

; 45   : 
; 46   : 	if ( iCounterAttackKeyState == CAKS_ATTACK_KEY )

  00009	83 7d 0c 00	 cmp	 DWORD PTR _iCounterAttackKeyState$[ebp], 0
  0000d	75 23		 jne	 SHORT $LN3@StartCAT

; 47   : 	{
; 48   : 		ioAttackableItem *pItem = pOwner->GetPriorityItem( SPT_DEFENSE );

  0000f	8b 4d 08	 mov	 ecx, DWORD PTR _pOwner$[ebp]
  00012	6a 00		 push	 0
  00014	e8 00 00 00 00	 call	 ?GetPriorityItem@ioBaseChar@@QBEPAVioAttackableItem@@W4StatePriorityType@@@Z ; ioBaseChar::GetPriorityItem

; 49   : 		ioChargeContactWeaponItem2 *pChargeItem2 = ToChargeContactWeaponItem2( pItem );

  00019	50		 push	 eax
  0001a	e8 00 00 00 00	 call	 ?ToChargeContactWeaponItem2@@YAPAVioChargeContactWeaponItem2@@PAVioItem@@@Z ; ToChargeContactWeaponItem2
  0001f	59		 pop	 ecx

; 50   : 		if( pChargeItem2 )

  00020	85 c0		 test	 eax, eax
  00022	74 0a		 je	 SHORT $LN2@StartCAT

; 51   : 			pChargeItem2->SetChargeAttackByCounter( pOwner );

  00024	ff 75 08	 push	 DWORD PTR _pOwner$[ebp]
  00027	8b c8		 mov	 ecx, eax
  00029	e8 00 00 00 00	 call	 ?SetChargeAttackByCounter@ioChargeContactWeaponItem2@@QAEXPAVioBaseChar@@@Z ; ioChargeContactWeaponItem2::SetChargeAttackByCounter
$LN2@StartCAT:

; 52   : 		return true;

  0002e	b0 01		 mov	 al, 1
  00030	eb 02		 jmp	 SHORT $LN1@StartCAT
$LN3@StartCAT:

; 53   : 	}
; 54   : 	else
; 55   : 		return false;

  00032	32 c0		 xor	 al, al
$LN1@StartCAT:

; 56   : 	
; 57   : }

  00034	5d		 pop	 ebp
  00035	c2 08 00	 ret	 8
?StartCAT@ioChargeCounter@@UAE_NPAVioBaseChar@@H@Z ENDP	; ioChargeCounter::StartCAT
_TEXT	ENDS
END
