; Listing generated by Microsoft (R) Optimizing Compiler Version 16.00.30319.01 

	TITLE	D:\Lost Saga For Developer\Youtube\Tutorial\Source\src\LSClient\ioCharEmoticon.cpp
	.686P
	.XMM
	include listing.inc
	.model	flat

INCLUDELIB MSVCRT
INCLUDELIB OLDNAMES

PUBLIC	?m_dwDefaultDuration@ioCharEmoticon@@1KA	; ioCharEmoticon::m_dwDefaultDuration
PUBLIC	?m_iEmoticonXPos@ioCharEmoticon@@1HA		; ioCharEmoticon::m_iEmoticonXPos
PUBLIC	?m_iEmoticonYPos@ioCharEmoticon@@1HA		; ioCharEmoticon::m_iEmoticonYPos
PUBLIC	?m_iEmoticonNameOffsetX@ioCharEmoticon@@1HA	; ioCharEmoticon::m_iEmoticonNameOffsetX
PUBLIC	?m_iEmoticonNameOffsetY@ioCharEmoticon@@1HA	; ioCharEmoticon::m_iEmoticonNameOffsetY
PUBLIC	?m_iEmoticonNameAlignType@ioCharEmoticon@@1HA	; ioCharEmoticon::m_iEmoticonNameAlignType
PUBLIC	?m_dwChatIconDuration@ioCharEmoticon@@1KA	; ioCharEmoticon::m_dwChatIconDuration
PUBLIC	?m_dw3DChatIconDuration@ioCharEmoticon@@1KA	; ioCharEmoticon::m_dw3DChatIconDuration
PUBLIC	?m_dwLongDuration@ioCharEmoticon@@1KA		; ioCharEmoticon::m_dwLongDuration
PUBLIC	?m_fEmoticonEndScale@ioCharEmoticon@@1MA	; ioCharEmoticon::m_fEmoticonEndScale
PUBLIC	?m_fFishingGradeEndScale@ioCharEmoticon@@1MA	; ioCharEmoticon::m_fFishingGradeEndScale
PUBLIC	?m_fOwnerGameEventScale@ioCharEmoticon@@1MA	; ioCharEmoticon::m_fOwnerGameEventScale
PUBLIC	?m_fOwnerSkillBuffScale@ioCharEmoticon@@1MA	; ioCharEmoticon::m_fOwnerSkillBuffScale
PUBLIC	?m_fOwnerBadStateScale@ioCharEmoticon@@1MA	; ioCharEmoticon::m_fOwnerBadStateScale
PUBLIC	?m_fOwnerMovieEventScale@ioCharEmoticon@@1MA	; ioCharEmoticon::m_fOwnerMovieEventScale
PUBLIC	?m_fOtherGameEventScale@ioCharEmoticon@@1MA	; ioCharEmoticon::m_fOtherGameEventScale
PUBLIC	?m_fOtherSkillBuffScale@ioCharEmoticon@@1MA	; ioCharEmoticon::m_fOtherSkillBuffScale
PUBLIC	?m_fOtherBadStateScale@ioCharEmoticon@@1MA	; ioCharEmoticon::m_fOtherBadStateScale
PUBLIC	?m_fOtherMovieEventScale@ioCharEmoticon@@1MA	; ioCharEmoticon::m_fOtherMovieEventScale
PUBLIC	?m_dwOwnerGameEventTime@ioCharEmoticon@@1KA	; ioCharEmoticon::m_dwOwnerGameEventTime
PUBLIC	?m_dwOwnerSkillBuffTime@ioCharEmoticon@@1KA	; ioCharEmoticon::m_dwOwnerSkillBuffTime
PUBLIC	?m_dwOwnerBadStateTime@ioCharEmoticon@@1KA	; ioCharEmoticon::m_dwOwnerBadStateTime
PUBLIC	?m_dwOtherGameEventTime@ioCharEmoticon@@1KA	; ioCharEmoticon::m_dwOtherGameEventTime
PUBLIC	?m_dwOtherSkillBuffTime@ioCharEmoticon@@1KA	; ioCharEmoticon::m_dwOtherSkillBuffTime
PUBLIC	?m_dwOtherBadStateTime@ioCharEmoticon@@1KA	; ioCharEmoticon::m_dwOtherBadStateTime
PUBLIC	?m_dwDisapearWhiteTime@ioCharEmoticon@@1KA	; ioCharEmoticon::m_dwDisapearWhiteTime
PUBLIC	?m_dwDisapearAlphaTime@ioCharEmoticon@@1KA	; ioCharEmoticon::m_dwDisapearAlphaTime
PUBLIC	?m_fDurationScaleRate@ioCharEmoticon@@1MA	; ioCharEmoticon::m_fDurationScaleRate
PUBLIC	?m_fDurationScaleFastRate@ioCharEmoticon@@1MA	; ioCharEmoticon::m_fDurationScaleFastRate
PUBLIC	?m_dwDurationScaleTime@ioCharEmoticon@@1KA	; ioCharEmoticon::m_dwDurationScaleTime
PUBLIC	?m_dwDurationScaleFastTime@ioCharEmoticon@@1KA	; ioCharEmoticon::m_dwDurationScaleFastTime
_BSS	SEGMENT
?m_dwDefaultDuration@ioCharEmoticon@@1KA DD 01H DUP (?)	; ioCharEmoticon::m_dwDefaultDuration
?m_iEmoticonXPos@ioCharEmoticon@@1HA DD 01H DUP (?)	; ioCharEmoticon::m_iEmoticonXPos
?m_iEmoticonYPos@ioCharEmoticon@@1HA DD 01H DUP (?)	; ioCharEmoticon::m_iEmoticonYPos
?m_iEmoticonNameOffsetX@ioCharEmoticon@@1HA DD 01H DUP (?) ; ioCharEmoticon::m_iEmoticonNameOffsetX
?m_iEmoticonNameOffsetY@ioCharEmoticon@@1HA DD 01H DUP (?) ; ioCharEmoticon::m_iEmoticonNameOffsetY
?m_iEmoticonNameAlignType@ioCharEmoticon@@1HA DD 01H DUP (?) ; ioCharEmoticon::m_iEmoticonNameAlignType
?m_dwChatIconDuration@ioCharEmoticon@@1KA DD 01H DUP (?) ; ioCharEmoticon::m_dwChatIconDuration
?m_dw3DChatIconDuration@ioCharEmoticon@@1KA DD 01H DUP (?) ; ioCharEmoticon::m_dw3DChatIconDuration
?m_dwLongDuration@ioCharEmoticon@@1KA DD 01H DUP (?)	; ioCharEmoticon::m_dwLongDuration
?m_fEmoticonEndScale@ioCharEmoticon@@1MA DD 01H DUP (?)	; ioCharEmoticon::m_fEmoticonEndScale
?m_fFishingGradeEndScale@ioCharEmoticon@@1MA DD 01H DUP (?) ; ioCharEmoticon::m_fFishingGradeEndScale
?m_fOwnerGameEventScale@ioCharEmoticon@@1MA DD 01H DUP (?) ; ioCharEmoticon::m_fOwnerGameEventScale
?m_fOwnerSkillBuffScale@ioCharEmoticon@@1MA DD 01H DUP (?) ; ioCharEmoticon::m_fOwnerSkillBuffScale
?m_fOwnerBadStateScale@ioCharEmoticon@@1MA DD 01H DUP (?) ; ioCharEmoticon::m_fOwnerBadStateScale
?m_fOwnerMovieEventScale@ioCharEmoticon@@1MA DD 01H DUP (?) ; ioCharEmoticon::m_fOwnerMovieEventScale
?m_fOtherGameEventScale@ioCharEmoticon@@1MA DD 01H DUP (?) ; ioCharEmoticon::m_fOtherGameEventScale
?m_fOtherSkillBuffScale@ioCharEmoticon@@1MA DD 01H DUP (?) ; ioCharEmoticon::m_fOtherSkillBuffScale
?m_fOtherBadStateScale@ioCharEmoticon@@1MA DD 01H DUP (?) ; ioCharEmoticon::m_fOtherBadStateScale
?m_fOtherMovieEventScale@ioCharEmoticon@@1MA DD 01H DUP (?) ; ioCharEmoticon::m_fOtherMovieEventScale
?m_dwOwnerGameEventTime@ioCharEmoticon@@1KA DD 01H DUP (?) ; ioCharEmoticon::m_dwOwnerGameEventTime
?m_dwOwnerSkillBuffTime@ioCharEmoticon@@1KA DD 01H DUP (?) ; ioCharEmoticon::m_dwOwnerSkillBuffTime
?m_dwOwnerBadStateTime@ioCharEmoticon@@1KA DD 01H DUP (?) ; ioCharEmoticon::m_dwOwnerBadStateTime
?m_dwOtherGameEventTime@ioCharEmoticon@@1KA DD 01H DUP (?) ; ioCharEmoticon::m_dwOtherGameEventTime
?m_dwOtherSkillBuffTime@ioCharEmoticon@@1KA DD 01H DUP (?) ; ioCharEmoticon::m_dwOtherSkillBuffTime
?m_dwOtherBadStateTime@ioCharEmoticon@@1KA DD 01H DUP (?) ; ioCharEmoticon::m_dwOtherBadStateTime
?m_dwDisapearWhiteTime@ioCharEmoticon@@1KA DD 01H DUP (?) ; ioCharEmoticon::m_dwDisapearWhiteTime
?m_dwDisapearAlphaTime@ioCharEmoticon@@1KA DD 01H DUP (?) ; ioCharEmoticon::m_dwDisapearAlphaTime
?m_fDurationScaleRate@ioCharEmoticon@@1MA DD 01H DUP (?) ; ioCharEmoticon::m_fDurationScaleRate
?m_fDurationScaleFastRate@ioCharEmoticon@@1MA DD 01H DUP (?) ; ioCharEmoticon::m_fDurationScaleFastRate
?m_dwDurationScaleTime@ioCharEmoticon@@1KA DD 01H DUP (?) ; ioCharEmoticon::m_dwDurationScaleTime
?m_dwDurationScaleFastTime@ioCharEmoticon@@1KA DD 01H DUP (?) ; ioCharEmoticon::m_dwDurationScaleFastTime
_BSS	ENDS
PUBLIC	??0EmoticonInfo@@QAE@XZ				; EmoticonInfo::EmoticonInfo
EXTRN	??1ioComplexStringPrinter@@QAE@XZ:PROC		; ioComplexStringPrinter::~ioComplexStringPrinter
EXTRN	__imp_??1ioHashString@@QAE@XZ:PROC
EXTRN	?ClearList@ioComplexStringPrinter@@QAEXXZ:PROC	; ioComplexStringPrinter::ClearList
EXTRN	??0ioComplexStringPrinter@@QAE@XZ:PROC		; ioComplexStringPrinter::ioComplexStringPrinter
EXTRN	__imp_??0ioHashString@@QAE@XZ:PROC
EXTRN	___CxxFrameHandler3:PROC
EXTRN	@__security_check_cookie@4:PROC
EXTRN	__EH_epilog3:PROC
EXTRN	__EH_prolog3:PROC
;	COMDAT xdata$x
; File d:\lost saga for developer\youtube\tutorial\source\src\lsclient\iocharemoticon.h
xdata$x	SEGMENT
__unwindtable$??0EmoticonInfo@@QAE@XZ DD 0ffffffffH
	DD	FLAT:__unwindfunclet$??0EmoticonInfo@@QAE@XZ$0
	DD	00H
	DD	FLAT:__unwindfunclet$??0EmoticonInfo@@QAE@XZ$1
__ehfuncinfo$??0EmoticonInfo@@QAE@XZ DD 019930522H
	DD	02H
	DD	FLAT:__unwindtable$??0EmoticonInfo@@QAE@XZ
	DD	2 DUP(00H)
	DD	2 DUP(00H)
	DD	00H
	DD	01H
; Function compile flags: /Ogsp
xdata$x	ENDS
;	COMDAT ??0EmoticonInfo@@QAE@XZ
_TEXT	SEGMENT
_this$ = -16						; size = 4
__$EHRec$ = -12						; size = 12
??0EmoticonInfo@@QAE@XZ PROC				; EmoticonInfo::EmoticonInfo, COMDAT
; _this$ = ecx

; 26   : 	EmoticonInfo()

  00000	6a 04		 push	 4
  00002	b8 00 00 00 00	 mov	 eax, __ehhandler$??0EmoticonInfo@@QAE@XZ
  00007	e8 00 00 00 00	 call	 __EH_prolog3
  0000c	8b f1		 mov	 esi, ecx
  0000e	89 75 f0	 mov	 DWORD PTR _this$[ebp], esi
  00011	ff 15 00 00 00
	00		 call	 DWORD PTR __imp_??0ioHashString@@QAE@XZ
  00017	33 db		 xor	 ebx, ebx
  00019	8d 4e 1c	 lea	 ecx, DWORD PTR [esi+28]
  0001c	89 5d fc	 mov	 DWORD PTR __$EHRec$[ebp+8], ebx
  0001f	e8 00 00 00 00	 call	 ??0ioComplexStringPrinter@@QAE@XZ ; ioComplexStringPrinter::ioComplexStringPrinter

; 27   : 	{
; 28   : 		m_bOwner = false;
; 29   : 		m_Type = EMT_DEFAULT;
; 30   : 		m_iPriority = 0;
; 31   : 		m_dwStartTime = 0;
; 32   : 		m_dwDuration = 0;
; 33   : 		m_DescString.ClearList();

  00024	8d 4e 1c	 lea	 ecx, DWORD PTR [esi+28]
  00027	c6 45 fc 01	 mov	 BYTE PTR __$EHRec$[ebp+8], 1
  0002b	88 5e 14	 mov	 BYTE PTR [esi+20], bl
  0002e	89 5e 10	 mov	 DWORD PTR [esi+16], ebx
  00031	89 5e 18	 mov	 DWORD PTR [esi+24], ebx
  00034	89 5e 3c	 mov	 DWORD PTR [esi+60], ebx
  00037	89 5e 40	 mov	 DWORD PTR [esi+64], ebx
  0003a	e8 00 00 00 00	 call	 ?ClearList@ioComplexStringPrinter@@QAEXXZ ; ioComplexStringPrinter::ClearList

; 34   : 	}

  0003f	8b c6		 mov	 eax, esi
  00041	e8 00 00 00 00	 call	 __EH_epilog3
  00046	c3		 ret	 0
_TEXT	ENDS
;	COMDAT text$x
text$x	SEGMENT
__unwindfunclet$??0EmoticonInfo@@QAE@XZ$0:
  00000	8b 4d f0	 mov	 ecx, DWORD PTR _this$[ebp]
  00003	ff 25 00 00 00
	00		 jmp	 DWORD PTR __imp_??1ioHashString@@QAE@XZ
__unwindfunclet$??0EmoticonInfo@@QAE@XZ$1:
  00009	8b 4d f0	 mov	 ecx, DWORD PTR _this$[ebp]
  0000c	83 c1 1c	 add	 ecx, 28			; 0000001cH
  0000f	e9 00 00 00 00	 jmp	 ??1ioComplexStringPrinter@@QAE@XZ ; ioComplexStringPrinter::~ioComplexStringPrinter
__ehhandler$??0EmoticonInfo@@QAE@XZ:
  00014	8b 54 24 08	 mov	 edx, DWORD PTR [esp+8]
  00018	8d 42 0c	 lea	 eax, DWORD PTR [edx+12]
  0001b	8b 4a ec	 mov	 ecx, DWORD PTR [edx-20]
  0001e	33 c8		 xor	 ecx, eax
  00020	e8 00 00 00 00	 call	 @__security_check_cookie@4
  00025	b8 00 00 00 00	 mov	 eax, OFFSET __ehfuncinfo$??0EmoticonInfo@@QAE@XZ
  0002a	e9 00 00 00 00	 jmp	 ___CxxFrameHandler3
text$x	ENDS
??0EmoticonInfo@@QAE@XZ ENDP				; EmoticonInfo::EmoticonInfo
PUBLIC	??REmoticonInfoSort@@QBE_NPBUEmoticonInfo@@0@Z	; EmoticonInfoSort::operator()
EXTRN	__imp__stricmp:PROC
EXTRN	__imp_?c_str@ioHashString@@QBEPBDXZ:PROC
; Function compile flags: /Ogsp
;	COMDAT ??REmoticonInfoSort@@QBE_NPBUEmoticonInfo@@0@Z
_TEXT	SEGMENT
_lhs$ = 8						; size = 4
_rhs$ = 12						; size = 4
??REmoticonInfoSort@@QBE_NPBUEmoticonInfo@@0@Z PROC	; EmoticonInfoSort::operator(), COMDAT
; _this$ = ecx

; 42   : 	{

  00000	55		 push	 ebp
  00001	8b ec		 mov	 ebp, esp

; 43   : 		if( lhs->m_iPriority < rhs->m_iPriority )

  00003	8b 4d 0c	 mov	 ecx, DWORD PTR _rhs$[ebp]
  00006	8b 51 18	 mov	 edx, DWORD PTR [ecx+24]
  00009	56		 push	 esi
  0000a	8b 75 08	 mov	 esi, DWORD PTR _lhs$[ebp]
  0000d	8b 46 18	 mov	 eax, DWORD PTR [esi+24]
  00010	3b c2		 cmp	 eax, edx
  00012	7d 04		 jge	 SHORT $LN10@operator
$LN12@operator:

; 44   : 		{
; 45   : 			return true;

  00014	b0 01		 mov	 al, 1
  00016	eb 2c		 jmp	 SHORT $LN8@operator
$LN10@operator:

; 46   : 		}
; 47   : 		else if( lhs->m_iPriority == rhs->m_iPriority )

  00018	75 28		 jne	 SHORT $LN1@operator

; 48   : 		{
; 49   : 			if( lhs->m_dwStartTime > rhs->m_dwStartTime )

  0001a	8b 46 3c	 mov	 eax, DWORD PTR [esi+60]
  0001d	8b 51 3c	 mov	 edx, DWORD PTR [ecx+60]
  00020	3b c2		 cmp	 eax, edx

; 50   : 			{
; 51   : 				return true;

  00022	77 f0		 ja	 SHORT $LN12@operator

; 52   : 			}
; 53   : 			else if( lhs->m_dwStartTime == rhs->m_dwStartTime )

  00024	75 1c		 jne	 SHORT $LN1@operator

; 54   : 			{
; 55   : 				int iCmpValue = stricmp( lhs->m_EmoticonName.c_str(), rhs->m_EmoticonName.c_str() );

  00026	ff 15 00 00 00
	00		 call	 DWORD PTR __imp_?c_str@ioHashString@@QBEPBDXZ
  0002c	50		 push	 eax
  0002d	8b ce		 mov	 ecx, esi
  0002f	ff 15 00 00 00
	00		 call	 DWORD PTR __imp_?c_str@ioHashString@@QBEPBDXZ
  00035	50		 push	 eax
  00036	ff 15 00 00 00
	00		 call	 DWORD PTR __imp__stricmp
  0003c	59		 pop	 ecx
  0003d	59		 pop	 ecx

; 56   : 				if( iCmpValue < 0 )

  0003e	85 c0		 test	 eax, eax

; 57   : 					return true;

  00040	78 d2		 js	 SHORT $LN12@operator
$LN1@operator:

; 58   : 			}
; 59   : 		}
; 60   : 
; 61   : 		return false;

  00042	32 c0		 xor	 al, al
$LN8@operator:
  00044	5e		 pop	 esi

; 62   : 	}

  00045	5d		 pop	 ebp
  00046	c2 08 00	 ret	 8
??REmoticonInfoSort@@QBE_NPBUEmoticonInfo@@0@Z ENDP	; EmoticonInfoSort::operator()
_TEXT	ENDS
PUBLIC	?return1@@YAIXZ					; return1
; Function compile flags: /Ogsp
; File d:\lost saga for developer\youtube\tutorial\source\src\lsclient\stdafx.h
;	COMDAT ?return1@@YAIXZ
_TEXT	SEGMENT
?return1@@YAIXZ PROC					; return1, COMDAT

; 17   : 	__forceinline unsigned int return1() { __asm mov eax, 1 };

  00000	b8 01 00 00 00	 mov	 eax, 1
  00005	c3		 ret	 0
?return1@@YAIXZ ENDP					; return1
_TEXT	ENDS
PUBLIC	?return100@@YAIXZ				; return100
; Function compile flags: /Ogsp
;	COMDAT ?return100@@YAIXZ
_TEXT	SEGMENT
?return100@@YAIXZ PROC					; return100, COMDAT

; 25   : 	__forceinline unsigned int return100() { __asm mov eax, 100 };

  00000	b8 64 00 00 00	 mov	 eax, 100		; 00000064H
  00005	c3		 ret	 0
?return100@@YAIXZ ENDP					; return100
_TEXT	ENDS
PUBLIC	?GetState@ioBaseChar@@QBE?AW4CharState@@XZ	; ioBaseChar::GetState
; Function compile flags: /Ogsp
; File d:\lost saga for developer\youtube\tutorial\source\src\lsclient\iobasechar.h
;	COMDAT ?GetState@ioBaseChar@@QBE?AW4CharState@@XZ
_TEXT	SEGMENT
?GetState@ioBaseChar@@QBE?AW4CharState@@XZ PROC		; ioBaseChar::GetState, COMDAT
; _this$ = ecx

; 2156 : 	inline CharState GetState() const { return m_CharState; }	

  00000	8a 81 10 03 00
	00		 mov	 al, BYTE PTR [ecx+784]
  00006	c3		 ret	 0
?GetState@ioBaseChar@@QBE?AW4CharState@@XZ ENDP		; ioBaseChar::GetState
_TEXT	ENDS
PUBLIC	_fabsf
EXTRN	__fltused:DWORD
; Function compile flags: /Ogsp
; File c:\program files (x86)\microsoft visual studio 10.0\vc\include\math.h
;	COMDAT _fabsf
_TEXT	SEGMENT
tv129 = 8						; size = 4
__X$ = 8						; size = 4
_fabsf	PROC						; COMDAT

; 395  :         {return ((float)fabs((double)_X)); }

  00000	55		 push	 ebp
  00001	8b ec		 mov	 ebp, esp
  00003	d9 45 08	 fld	 DWORD PTR __X$[ebp]
  00006	d9 e1		 fabs
  00008	d9 5d 08	 fstp	 DWORD PTR tv129[ebp]
  0000b	d9 45 08	 fld	 DWORD PTR tv129[ebp]
  0000e	5d		 pop	 ebp
  0000f	c3		 ret	 0
_fabsf	ENDP
_TEXT	ENDS
PUBLIC	_sinf
EXTRN	__CIsin:PROC
; Function compile flags: /Ogsp
;	COMDAT _sinf
_TEXT	SEGMENT
tv69 = 8						; size = 4
__X$ = 8						; size = 4
_sinf	PROC						; COMDAT

; 430  :         {return ((float)sin((double)_X)); }

  00000	55		 push	 ebp
  00001	8b ec		 mov	 ebp, esp
  00003	d9 45 08	 fld	 DWORD PTR __X$[ebp]
  00006	e8 00 00 00 00	 call	 __CIsin
  0000b	d9 5d 08	 fstp	 DWORD PTR tv69[ebp]
  0000e	d9 45 08	 fld	 DWORD PTR tv69[ebp]
  00011	5d		 pop	 ebp
  00012	c3		 ret	 0
_sinf	ENDP
_TEXT	ENDS
PUBLIC	?fabs@@YAMM@Z					; fabs
; Function compile flags: /Ogsp
;	COMDAT ?fabs@@YAMM@Z
_TEXT	SEGMENT
tv131 = 8						; size = 4
__X$ = 8						; size = 4
?fabs@@YAMM@Z PROC					; fabs, COMDAT

; 518  :         {return (fabsf(_X)); }

  00000	55		 push	 ebp
  00001	8b ec		 mov	 ebp, esp
  00003	d9 45 08	 fld	 DWORD PTR __X$[ebp]
  00006	d9 e1		 fabs
  00008	d9 5d 08	 fstp	 DWORD PTR tv131[ebp]
  0000b	d9 45 08	 fld	 DWORD PTR tv131[ebp]
  0000e	5d		 pop	 ebp
  0000f	c3		 ret	 0
?fabs@@YAMM@Z ENDP					; fabs
_TEXT	ENDS
PUBLIC	??_7bad_alloc@std@@6B@				; std::bad_alloc::`vftable'
PUBLIC	??0bad_alloc@std@@QAE@PBD@Z			; std::bad_alloc::bad_alloc
PUBLIC	??_R4bad_alloc@std@@6B@				; std::bad_alloc::`RTTI Complete Object Locator'
PUBLIC	??_R0?AVbad_alloc@std@@@8			; std::bad_alloc `RTTI Type Descriptor'
PUBLIC	??_R3bad_alloc@std@@8				; std::bad_alloc::`RTTI Class Hierarchy Descriptor'
PUBLIC	??_R2bad_alloc@std@@8				; std::bad_alloc::`RTTI Base Class Array'
PUBLIC	??_R1A@?0A@EA@bad_alloc@std@@8			; std::bad_alloc::`RTTI Base Class Descriptor at (0,-1,0,64)'
PUBLIC	??_R1A@?0A@EA@exception@std@@8			; std::exception::`RTTI Base Class Descriptor at (0,-1,0,64)'
PUBLIC	??_R0?AVexception@std@@@8			; std::exception `RTTI Type Descriptor'
PUBLIC	??_R3exception@std@@8				; std::exception::`RTTI Class Hierarchy Descriptor'
PUBLIC	??_R2exception@std@@8				; std::exception::`RTTI Base Class Array'
EXTRN	__imp_??0exception@std@@QAE@ABQBD@Z:PROC
EXTRN	??_7type_info@@6B@:QWORD			; type_info::`vftable'
EXTRN	??_Ebad_alloc@std@@UAEPAXI@Z:PROC		; std::bad_alloc::`vector deleting destructor'
EXTRN	?what@exception@std@@UBEPBDXZ:PROC		; std::exception::what
;	COMDAT ??_R2exception@std@@8
; File c:\program files (x86)\microsoft visual studio 10.0\vc\include\exception
rdata$r	SEGMENT
??_R2exception@std@@8 DD FLAT:??_R1A@?0A@EA@exception@std@@8 ; std::exception::`RTTI Base Class Array'
rdata$r	ENDS
;	COMDAT ??_R3exception@std@@8
rdata$r	SEGMENT
??_R3exception@std@@8 DD 00H				; std::exception::`RTTI Class Hierarchy Descriptor'
	DD	00H
	DD	01H
	DD	FLAT:??_R2exception@std@@8
rdata$r	ENDS
;	COMDAT ??_R0?AVexception@std@@@8
_DATA	SEGMENT
??_R0?AVexception@std@@@8 DD FLAT:??_7type_info@@6B@	; std::exception `RTTI Type Descriptor'
	DD	00H
	DB	'.?AVexception@std@@', 00H
_DATA	ENDS
;	COMDAT ??_R1A@?0A@EA@exception@std@@8
rdata$r	SEGMENT
??_R1A@?0A@EA@exception@std@@8 DD FLAT:??_R0?AVexception@std@@@8 ; std::exception::`RTTI Base Class Descriptor at (0,-1,0,64)'
	DD	00H
	DD	00H
	DD	0ffffffffH
	DD	00H
	DD	040H
	DD	FLAT:??_R3exception@std@@8
rdata$r	ENDS
;	COMDAT ??_R1A@?0A@EA@bad_alloc@std@@8
rdata$r	SEGMENT
??_R1A@?0A@EA@bad_alloc@std@@8 DD FLAT:??_R0?AVbad_alloc@std@@@8 ; std::bad_alloc::`RTTI Base Class Descriptor at (0,-1,0,64)'
	DD	01H
	DD	00H
	DD	0ffffffffH
	DD	00H
	DD	040H
	DD	FLAT:??_R3bad_alloc@std@@8
rdata$r	ENDS
;	COMDAT ??_R2bad_alloc@std@@8
rdata$r	SEGMENT
??_R2bad_alloc@std@@8 DD FLAT:??_R1A@?0A@EA@bad_alloc@std@@8 ; std::bad_alloc::`RTTI Base Class Array'
	DD	FLAT:??_R1A@?0A@EA@exception@std@@8
rdata$r	ENDS
;	COMDAT ??_R3bad_alloc@std@@8
rdata$r	SEGMENT
??_R3bad_alloc@std@@8 DD 00H				; std::bad_alloc::`RTTI Class Hierarchy Descriptor'
	DD	00H
	DD	02H
	DD	FLAT:??_R2bad_alloc@std@@8
rdata$r	ENDS
;	COMDAT ??_R0?AVbad_alloc@std@@@8
_DATA	SEGMENT
??_R0?AVbad_alloc@std@@@8 DD FLAT:??_7type_info@@6B@	; std::bad_alloc `RTTI Type Descriptor'
	DD	00H
	DB	'.?AVbad_alloc@std@@', 00H
_DATA	ENDS
;	COMDAT ??_R4bad_alloc@std@@6B@
rdata$r	SEGMENT
??_R4bad_alloc@std@@6B@ DD 00H				; std::bad_alloc::`RTTI Complete Object Locator'
	DD	00H
	DD	00H
	DD	FLAT:??_R0?AVbad_alloc@std@@@8
	DD	FLAT:??_R3bad_alloc@std@@8
rdata$r	ENDS
;	COMDAT ??_7bad_alloc@std@@6B@
CONST	SEGMENT
??_7bad_alloc@std@@6B@ DD FLAT:??_R4bad_alloc@std@@6B@	; std::bad_alloc::`vftable'
	DD	FLAT:??_Ebad_alloc@std@@UAEPAXI@Z
	DD	FLAT:?what@exception@std@@UBEPBDXZ
; Function compile flags: /Ogsp
CONST	ENDS
;	COMDAT ??0bad_alloc@std@@QAE@PBD@Z
_TEXT	SEGMENT
__Message$ = 8						; size = 4
??0bad_alloc@std@@QAE@PBD@Z PROC			; std::bad_alloc::bad_alloc, COMDAT
; _this$ = ecx

; 345  : 		{	// construct from message string

  00000	55		 push	 ebp
  00001	8b ec		 mov	 ebp, esp
  00003	56		 push	 esi
  00004	8d 45 08	 lea	 eax, DWORD PTR __Message$[ebp]
  00007	50		 push	 eax
  00008	8b f1		 mov	 esi, ecx
  0000a	ff 15 00 00 00
	00		 call	 DWORD PTR __imp_??0exception@std@@QAE@ABQBD@Z
  00010	c7 06 00 00 00
	00		 mov	 DWORD PTR [esi], OFFSET ??_7bad_alloc@std@@6B@

; 346  : 		}

  00016	8b c6		 mov	 eax, esi
  00018	5e		 pop	 esi
  00019	5d		 pop	 ebp
  0001a	c2 04 00	 ret	 4
??0bad_alloc@std@@QAE@PBD@Z ENDP			; std::bad_alloc::bad_alloc
_TEXT	ENDS
PUBLIC	??1bad_alloc@std@@UAE@XZ			; std::bad_alloc::~bad_alloc
EXTRN	__imp_??1exception@std@@UAE@XZ:PROC
; Function compile flags: /Ogsp
;	COMDAT ??1bad_alloc@std@@UAE@XZ
_TEXT	SEGMENT
??1bad_alloc@std@@UAE@XZ PROC				; std::bad_alloc::~bad_alloc, COMDAT
; _this$ = ecx

; 354  : 		{	// destroy the object

  00000	c7 01 00 00 00
	00		 mov	 DWORD PTR [ecx], OFFSET ??_7bad_alloc@std@@6B@

; 355  : 		}

  00006	ff 25 00 00 00
	00		 jmp	 DWORD PTR __imp_??1exception@std@@UAE@XZ
??1bad_alloc@std@@UAE@XZ ENDP				; std::bad_alloc::~bad_alloc
_TEXT	ENDS
EXTRN	??3@YAXPAX@Z:PROC				; operator delete
; Function compile flags: /Ogsp
;	COMDAT ??_Gbad_alloc@std@@UAEPAXI@Z
_TEXT	SEGMENT
___flags$ = 8						; size = 4
??_Gbad_alloc@std@@UAEPAXI@Z PROC			; std::bad_alloc::`scalar deleting destructor', COMDAT
; _this$ = ecx
  00000	55		 push	 ebp
  00001	8b ec		 mov	 ebp, esp
  00003	56		 push	 esi
  00004	8b f1		 mov	 esi, ecx
  00006	c7 06 00 00 00
	00		 mov	 DWORD PTR [esi], OFFSET ??_7bad_alloc@std@@6B@
  0000c	ff 15 00 00 00
	00		 call	 DWORD PTR __imp_??1exception@std@@UAE@XZ
  00012	f6 45 08 01	 test	 BYTE PTR ___flags$[ebp], 1
  00016	74 07		 je	 SHORT $LN1@scalar
  00018	56		 push	 esi
  00019	e8 00 00 00 00	 call	 ??3@YAXPAX@Z		; operator delete
  0001e	59		 pop	 ecx
$LN1@scalar:
  0001f	8b c6		 mov	 eax, esi
  00021	5e		 pop	 esi
  00022	5d		 pop	 ebp
  00023	c2 04 00	 ret	 4
??_Gbad_alloc@std@@UAEPAXI@Z ENDP			; std::bad_alloc::`scalar deleting destructor'
_TEXT	ENDS
PUBLIC	??2@YAPAXIPAX@Z					; operator new
; Function compile flags: /Ogsp
; File c:\program files (x86)\microsoft visual studio 10.0\vc\include\new
;	COMDAT ??2@YAPAXIPAX@Z
_TEXT	SEGMENT
___formal$ = 8						; size = 4
__Where$ = 12						; size = 4
??2@YAPAXIPAX@Z PROC					; operator new, COMDAT

; 56   : 	{	// construct array with placement at _Where

  00000	55		 push	 ebp
  00001	8b ec		 mov	 ebp, esp

; 57   : 	return (_Where);

  00003	8b 45 0c	 mov	 eax, DWORD PTR __Where$[ebp]

; 58   : 	}

  00006	5d		 pop	 ebp
  00007	c3		 ret	 0
??2@YAPAXIPAX@Z ENDP					; operator new
_TEXT	ENDS
PUBLIC	??3@YAXPAX0@Z					; operator delete
; Function compile flags: /Ogsp
;	COMDAT ??3@YAXPAX0@Z
_TEXT	SEGMENT
___formal$ = 8						; size = 4
___formal$ = 12						; size = 4
??3@YAXPAX0@Z PROC					; operator delete, COMDAT

; 62   : 	}

  00000	c3		 ret	 0
??3@YAXPAX0@Z ENDP					; operator delete
_TEXT	ENDS
PUBLIC	??_Gio3DCharEmoticon@@QAEPAXI@Z			; io3DCharEmoticon::`scalar deleting destructor'
EXTRN	??1io3DCharEmoticon@@QAE@XZ:PROC		; io3DCharEmoticon::~io3DCharEmoticon
; Function compile flags: /Ogsp
;	COMDAT ??_Gio3DCharEmoticon@@QAEPAXI@Z
_TEXT	SEGMENT
___flags$ = 8						; size = 4
??_Gio3DCharEmoticon@@QAEPAXI@Z PROC			; io3DCharEmoticon::`scalar deleting destructor', COMDAT
; _this$ = ecx
  00000	55		 push	 ebp
  00001	8b ec		 mov	 ebp, esp
  00003	56		 push	 esi
  00004	8b f1		 mov	 esi, ecx
  00006	e8 00 00 00 00	 call	 ??1io3DCharEmoticon@@QAE@XZ ; io3DCharEmoticon::~io3DCharEmoticon
  0000b	f6 45 08 01	 test	 BYTE PTR ___flags$[ebp], 1
  0000f	74 07		 je	 SHORT $LN1@scalar@2
  00011	56		 push	 esi
  00012	e8 00 00 00 00	 call	 ??3@YAXPAX@Z		; operator delete
  00017	59		 pop	 ecx
$LN1@scalar@2:
  00018	8b c6		 mov	 eax, esi
  0001a	5e		 pop	 esi
  0001b	5d		 pop	 ebp
  0001c	c2 04 00	 ret	 4
??_Gio3DCharEmoticon@@QAEPAXI@Z ENDP			; io3DCharEmoticon::`scalar deleting destructor'
_TEXT	ENDS
PUBLIC	??1EmoticonInfo@@QAE@XZ				; EmoticonInfo::~EmoticonInfo
;	COMDAT xdata$x
xdata$x	SEGMENT
__unwindtable$??1EmoticonInfo@@QAE@XZ DD 0ffffffffH
	DD	FLAT:__unwindfunclet$??1EmoticonInfo@@QAE@XZ$0
__ehfuncinfo$??1EmoticonInfo@@QAE@XZ DD 019930522H
	DD	01H
	DD	FLAT:__unwindtable$??1EmoticonInfo@@QAE@XZ
	DD	2 DUP(00H)
	DD	2 DUP(00H)
	DD	00H
	DD	01H
; Function compile flags: /Ogsp
xdata$x	ENDS
;	COMDAT ??1EmoticonInfo@@QAE@XZ
_TEXT	SEGMENT
_this$ = -16						; size = 4
__$EHRec$ = -12						; size = 12
??1EmoticonInfo@@QAE@XZ PROC				; EmoticonInfo::~EmoticonInfo, COMDAT
; _this$ = ecx
  00000	6a 04		 push	 4
  00002	b8 00 00 00 00	 mov	 eax, __ehhandler$??1EmoticonInfo@@QAE@XZ
  00007	e8 00 00 00 00	 call	 __EH_prolog3
  0000c	8b f1		 mov	 esi, ecx
  0000e	89 75 f0	 mov	 DWORD PTR _this$[ebp], esi
  00011	83 65 fc 00	 and	 DWORD PTR __$EHRec$[ebp+8], 0
  00015	8d 4e 1c	 lea	 ecx, DWORD PTR [esi+28]
  00018	e8 00 00 00 00	 call	 ??1ioComplexStringPrinter@@QAE@XZ ; ioComplexStringPrinter::~ioComplexStringPrinter
  0001d	83 4d fc ff	 or	 DWORD PTR __$EHRec$[ebp+8], -1
  00021	8b ce		 mov	 ecx, esi
  00023	ff 15 00 00 00
	00		 call	 DWORD PTR __imp_??1ioHashString@@QAE@XZ
  00029	e8 00 00 00 00	 call	 __EH_epilog3
  0002e	c3		 ret	 0
_TEXT	ENDS
;	COMDAT text$x
text$x	SEGMENT
__unwindfunclet$??1EmoticonInfo@@QAE@XZ$0:
  00000	8b 4d f0	 mov	 ecx, DWORD PTR _this$[ebp]
  00003	ff 25 00 00 00
	00		 jmp	 DWORD PTR __imp_??1ioHashString@@QAE@XZ
__ehhandler$??1EmoticonInfo@@QAE@XZ:
  00009	8b 54 24 08	 mov	 edx, DWORD PTR [esp+8]
  0000d	8d 42 0c	 lea	 eax, DWORD PTR [edx+12]
  00010	8b 4a ec	 mov	 ecx, DWORD PTR [edx-20]
  00013	33 c8		 xor	 ecx, eax
  00015	e8 00 00 00 00	 call	 @__security_check_cookie@4
  0001a	b8 00 00 00 00	 mov	 eax, OFFSET __ehfuncinfo$??1EmoticonInfo@@QAE@XZ
  0001f	e9 00 00 00 00	 jmp	 ___CxxFrameHandler3
text$x	ENDS
??1EmoticonInfo@@QAE@XZ ENDP				; EmoticonInfo::~EmoticonInfo
PUBLIC	??1ioINILoader_e@@QAE@XZ			; ioINILoader_e::~ioINILoader_e
EXTRN	__imp_??1ioINILoader@@QAE@XZ:PROC
; Function compile flags: /Ogsp
;	COMDAT ??1ioINILoader_e@@QAE@XZ
_TEXT	SEGMENT
??1ioINILoader_e@@QAE@XZ PROC				; ioINILoader_e::~ioINILoader_e, COMDAT
; _this$ = ecx
  00000	ff 25 00 00 00
	00		 jmp	 DWORD PTR __imp_??1ioINILoader@@QAE@XZ
??1ioINILoader_e@@QAE@XZ ENDP				; ioINILoader_e::~ioINILoader_e
_TEXT	ENDS
PUBLIC	?IsEmoticonEvent@ioCharEmoticon@@QAE_NXZ	; ioCharEmoticon::IsEmoticonEvent
; Function compile flags: /Ogsp
; File d:\lost saga for developer\youtube\tutorial\source\src\lsclient\iocharemoticon.cpp
;	COMDAT ?IsEmoticonEvent@ioCharEmoticon@@QAE_NXZ
_TEXT	SEGMENT
?IsEmoticonEvent@ioCharEmoticon@@QAE_NXZ PROC		; ioCharEmoticon::IsEmoticonEvent, COMDAT
; _this$ = ecx

; 206  : 	if( m_State == ES_NONE )

  00000	83 79 68 00	 cmp	 DWORD PTR [ecx+104], 0
  00004	0f 95 c0	 setne	 al

; 207  : 		return false;
; 208  : 	return true;
; 209  : }

  00007	c3		 ret	 0
?IsEmoticonEvent@ioCharEmoticon@@QAE_NXZ ENDP		; ioCharEmoticon::IsEmoticonEvent
_TEXT	ENDS
PUBLIC	?CheckEmoticonBackImage@ioCharEmoticon@@IAEXXZ	; ioCharEmoticon::CheckEmoticonBackImage
EXTRN	__imp_?CreateImageByFullName@ioUIImageSetManager@@QAEPAVioUIRenderImage@@ABVioHashString@@_N@Z:PROC
EXTRN	__imp_?GetSingleton@ioUIImageSetManager@@SAAAV1@XZ:PROC
EXTRN	__imp_?IsEmpty@ioHashString@@QBE_NXZ:PROC
; Function compile flags: /Ogsp
;	COMDAT ?CheckEmoticonBackImage@ioCharEmoticon@@IAEXXZ
_TEXT	SEGMENT
?CheckEmoticonBackImage@ioCharEmoticon@@IAEXXZ PROC	; ioCharEmoticon::CheckEmoticonBackImage, COMDAT
; _this$ = ecx

; 212  : {

  00000	56		 push	 esi
  00001	8b f1		 mov	 esi, ecx

; 213  : 	if( !m_pEmoticonBack && !m_EmoticonBack.IsEmpty() )

  00003	83 7e 04 00	 cmp	 DWORD PTR [esi+4], 0
  00007	75 27		 jne	 SHORT $LN1@CheckEmoti
  00009	57		 push	 edi
  0000a	bf 00 00 00 00	 mov	 edi, OFFSET ?m_EmoticonBack@ioCharEmoticon@@1VioHashString@@A ; ioCharEmoticon::m_EmoticonBack
  0000f	8b cf		 mov	 ecx, edi
  00011	ff 15 00 00 00
	00		 call	 DWORD PTR __imp_?IsEmpty@ioHashString@@QBE_NXZ
  00017	84 c0		 test	 al, al
  00019	75 14		 jne	 SHORT $LN4@CheckEmoti

; 214  : 	{
; 215  : 		m_pEmoticonBack = g_UIImageSetMgr.CreateImageByFullName( m_EmoticonBack );

  0001b	6a 00		 push	 0
  0001d	57		 push	 edi
  0001e	ff 15 00 00 00
	00		 call	 DWORD PTR __imp_?GetSingleton@ioUIImageSetManager@@SAAAV1@XZ
  00024	8b c8		 mov	 ecx, eax
  00026	ff 15 00 00 00
	00		 call	 DWORD PTR __imp_?CreateImageByFullName@ioUIImageSetManager@@QAEPAVioUIRenderImage@@ABVioHashString@@_N@Z
  0002c	89 46 04	 mov	 DWORD PTR [esi+4], eax
$LN4@CheckEmoti:
  0002f	5f		 pop	 edi
$LN1@CheckEmoti:
  00030	5e		 pop	 esi

; 216  : 	}
; 217  : }

  00031	c3		 ret	 0
?CheckEmoticonBackImage@ioCharEmoticon@@IAEXXZ ENDP	; ioCharEmoticon::CheckEmoticonBackImage
_TEXT	ENDS
PUBLIC	?SetLongTimeLiveEmoticon@ioCharEmoticon@@QAEXABVioHashString@@@Z ; ioCharEmoticon::SetLongTimeLiveEmoticon
EXTRN	__imp_??4ioHashString@@QAEAAV0@ABV0@@Z:PROC
EXTRN	__imp_?GetLoopSec@ioFrameTimer@@QBEKXZ:PROC
EXTRN	__imp_?GetSingleton@ioFrameTimer@@SAAAV1@XZ:PROC
EXTRN	__imp_?Clear@ioHashString@@QAEXXZ:PROC
; Function compile flags: /Ogsp
;	COMDAT ?SetLongTimeLiveEmoticon@ioCharEmoticon@@QAEXABVioHashString@@@Z
_TEXT	SEGMENT
_szEmoticon$ = 8					; size = 4
?SetLongTimeLiveEmoticon@ioCharEmoticon@@QAEXABVioHashString@@@Z PROC ; ioCharEmoticon::SetLongTimeLiveEmoticon, COMDAT
; _this$ = ecx

; 337  : {

  00000	55		 push	 ebp
  00001	8b ec		 mov	 ebp, esp
  00003	56		 push	 esi
  00004	8b f1		 mov	 esi, ecx

; 338  : 	if( szEmoticon.IsEmpty() ) return;

  00006	8b 4d 08	 mov	 ecx, DWORD PTR _szEmoticon$[ebp]
  00009	ff 15 00 00 00
	00		 call	 DWORD PTR __imp_?IsEmpty@ioHashString@@QBE_NXZ
  0000f	84 c0		 test	 al, al
  00011	0f 85 ae 00 00
	00		 jne	 $LN6@SetLongTim

; 339  : 
; 340  : 	ioUIRenderImage *pEmoticon = g_UIImageSetMgr.CreateImageByFullName( szEmoticon );

  00017	53		 push	 ebx
  00018	6a 00		 push	 0
  0001a	ff 75 08	 push	 DWORD PTR _szEmoticon$[ebp]
  0001d	ff 15 00 00 00
	00		 call	 DWORD PTR __imp_?GetSingleton@ioUIImageSetManager@@SAAAV1@XZ
  00023	8b c8		 mov	 ecx, eax
  00025	ff 15 00 00 00
	00		 call	 DWORD PTR __imp_?CreateImageByFullName@ioUIImageSetManager@@QAEPAVioUIRenderImage@@ABVioHashString@@_N@Z
  0002b	8b d8		 mov	 ebx, eax

; 341  : 	if( !pEmoticon ) return;

  0002d	85 db		 test	 ebx, ebx
  0002f	0f 84 8f 00 00
	00		 je	 $LN12@SetLongTim

; 342  : 
; 343  : 	SAFEDELETE( m_pEmoticon );

  00035	8b 0e		 mov	 ecx, DWORD PTR [esi]
  00037	85 c9		 test	 ecx, ecx
  00039	74 0a		 je	 SHORT $LN3@SetLongTim
  0003b	8b 01		 mov	 eax, DWORD PTR [ecx]
  0003d	6a 01		 push	 1
  0003f	ff 50 40	 call	 DWORD PTR [eax+64]
  00042	83 26 00	 and	 DWORD PTR [esi], 0
$LN3@SetLongTim:

; 344  : 	SAFEDELETE( m_pEmoticonNum );

  00045	8b 4e 08	 mov	 ecx, DWORD PTR [esi+8]
  00048	85 c9		 test	 ecx, ecx
  0004a	74 0b		 je	 SHORT $LN2@SetLongTim
  0004c	8b 01		 mov	 eax, DWORD PTR [ecx]
  0004e	6a 01		 push	 1
  00050	ff 50 40	 call	 DWORD PTR [eax+64]
  00053	83 66 08 00	 and	 DWORD PTR [esi+8], 0
$LN2@SetLongTim:

; 345  : 
; 346  : 	m_szEmoticonName.Clear();

  00057	8d 8e 90 00 00
	00		 lea	 ecx, DWORD PTR [esi+144]
  0005d	ff 15 00 00 00
	00		 call	 DWORD PTR __imp_?Clear@ioHashString@@QAEXXZ

; 347  : 	m_pEmoticon = pEmoticon;
; 348  : 
; 349  : 	CheckEmoticonBackImage();

  00063	8b ce		 mov	 ecx, esi
  00065	89 1e		 mov	 DWORD PTR [esi], ebx
  00067	e8 00 00 00 00	 call	 ?CheckEmoticonBackImage@ioCharEmoticon@@IAEXXZ ; ioCharEmoticon::CheckEmoticonBackImage

; 350  : 
; 351  : 	m_dwEmoticonStartTime = FRAMEGETTIME();

  0006c	ff 15 00 00 00
	00		 call	 DWORD PTR __imp_?GetSingleton@ioFrameTimer@@SAAAV1@XZ
  00072	8b c8		 mov	 ecx, eax
  00074	ff 15 00 00 00
	00		 call	 DWORD PTR __imp_?GetLoopSec@ioFrameTimer@@QBEKXZ

; 352  : 	m_dwCurEmoticonDuration = 100000000;
; 353  : 	m_dwCurScaleDuration = 0;

  0007a	83 66 18 00	 and	 DWORD PTR [esi+24], 0

; 354  : 	m_fCurStartScale = m_fEmoticonEndScale;
; 355  : 
; 356  : 	m_State = ES_DURATION;
; 357  : 	m_Type  = EMT_CHAT_ICON;
; 358  : 
; 359  : 	if( m_pEmoticon )

  0007e	8b 0e		 mov	 ecx, DWORD PTR [esi]
  00080	89 46 10	 mov	 DWORD PTR [esi+16], eax
  00083	c7 46 14 00 e1
	f5 05		 mov	 DWORD PTR [esi+20], 100000000 ; 05f5e100H
  0008a	f3 0f 10 05 00
	00 00 00	 movss	 xmm0, DWORD PTR ?m_fEmoticonEndScale@ioCharEmoticon@@1MA
  00092	f3 0f 11 46 1c	 movss	 DWORD PTR [esi+28], xmm0
  00097	c7 46 68 02 00
	00 00		 mov	 DWORD PTR [esi+104], 2
  0009e	c7 46 6c 05 00
	00 00		 mov	 DWORD PTR [esi+108], 5
  000a5	85 c9		 test	 ecx, ecx
  000a7	74 0b		 je	 SHORT $LN1@SetLongTim

; 360  : 		m_pEmoticon->SetScale( m_fCurStartScale );

  000a9	8b 01		 mov	 eax, DWORD PTR [ecx]
  000ab	51		 push	 ecx
  000ac	f3 0f 11 04 24	 movss	 DWORD PTR [esp], xmm0
  000b1	ff 50 1c	 call	 DWORD PTR [eax+28]
$LN1@SetLongTim:

; 361  : 
; 362  : 	m_LongTimeLiveEmoticon = szEmoticon;

  000b4	ff 75 08	 push	 DWORD PTR _szEmoticon$[ebp]
  000b7	8d 4e 2c	 lea	 ecx, DWORD PTR [esi+44]
  000ba	ff 15 00 00 00
	00		 call	 DWORD PTR __imp_??4ioHashString@@QAEAAV0@ABV0@@Z

; 363  : 	m_bLongTimeLiveEmoticon = true;

  000c0	c6 46 3c 01	 mov	 BYTE PTR [esi+60], 1
$LN12@SetLongTim:
  000c4	5b		 pop	 ebx
$LN6@SetLongTim:
  000c5	5e		 pop	 esi

; 364  : }

  000c6	5d		 pop	 ebp
  000c7	c2 04 00	 ret	 4
?SetLongTimeLiveEmoticon@ioCharEmoticon@@QAEXABVioHashString@@@Z ENDP ; ioCharEmoticon::SetLongTimeLiveEmoticon
_TEXT	ENDS
PUBLIC	?_Adopt@_Iterator_base0@std@@QAEXPBX@Z		; std::_Iterator_base0::_Adopt
; Function compile flags: /Ogsp
; File c:\program files (x86)\microsoft visual studio 10.0\vc\include\xutility
;	COMDAT ?_Adopt@_Iterator_base0@std@@QAEXPBX@Z
_TEXT	SEGMENT
___formal$ = 8						; size = 4
?_Adopt@_Iterator_base0@std@@QAEXPBX@Z PROC		; std::_Iterator_base0::_Adopt, COMDAT
; _this$ = ecx

; 49   : 		}

  00000	c2 04 00	 ret	 4
?_Adopt@_Iterator_base0@std@@QAEXPBX@Z ENDP		; std::_Iterator_base0::_Adopt
_TEXT	ENDS
PUBLIC	?SetLongTimeLiveEmoticonAndScale@ioCharEmoticon@@QAEXABVioHashString@@_N@Z ; ioCharEmoticon::SetLongTimeLiveEmoticonAndScale
; Function compile flags: /Ogsp
; File d:\lost saga for developer\youtube\tutorial\source\src\lsclient\iocharemoticon.cpp
;	COMDAT ?SetLongTimeLiveEmoticonAndScale@ioCharEmoticon@@QAEXABVioHashString@@_N@Z
_TEXT	SEGMENT
_szEmoticon$ = 8					; size = 4
_bFast$ = 12						; size = 1
?SetLongTimeLiveEmoticonAndScale@ioCharEmoticon@@QAEXABVioHashString@@_N@Z PROC ; ioCharEmoticon::SetLongTimeLiveEmoticonAndScale, COMDAT
; _this$ = ecx

; 367  : {

  00000	55		 push	 ebp
  00001	8b ec		 mov	 ebp, esp
  00003	56		 push	 esi
  00004	8b f1		 mov	 esi, ecx

; 368  : 	if( szEmoticon.IsEmpty() ) return;

  00006	8b 4d 08	 mov	 ecx, DWORD PTR _szEmoticon$[ebp]
  00009	ff 15 00 00 00
	00		 call	 DWORD PTR __imp_?IsEmpty@ioHashString@@QBE_NXZ
  0000f	84 c0		 test	 al, al
  00011	0f 85 b3 00 00
	00		 jne	 $LN6@SetLongTim@2

; 369  : 
; 370  : 	ioUIRenderImage *pEmoticon = g_UIImageSetMgr.CreateImageByFullName( szEmoticon );

  00017	53		 push	 ebx
  00018	57		 push	 edi
  00019	33 ff		 xor	 edi, edi
  0001b	57		 push	 edi
  0001c	ff 75 08	 push	 DWORD PTR _szEmoticon$[ebp]
  0001f	ff 15 00 00 00
	00		 call	 DWORD PTR __imp_?GetSingleton@ioUIImageSetManager@@SAAAV1@XZ
  00025	8b c8		 mov	 ecx, eax
  00027	ff 15 00 00 00
	00		 call	 DWORD PTR __imp_?CreateImageByFullName@ioUIImageSetManager@@QAEPAVioUIRenderImage@@ABVioHashString@@_N@Z
  0002d	8b d8		 mov	 ebx, eax

; 371  : 	if( !pEmoticon ) return;

  0002f	3b df		 cmp	 ebx, edi
  00031	0f 84 91 00 00
	00		 je	 $LN12@SetLongTim@2

; 372  : 
; 373  : 	SAFEDELETE( m_pEmoticon );

  00037	8b 0e		 mov	 ecx, DWORD PTR [esi]
  00039	3b cf		 cmp	 ecx, edi
  0003b	74 09		 je	 SHORT $LN3@SetLongTim@2
  0003d	8b 01		 mov	 eax, DWORD PTR [ecx]
  0003f	6a 01		 push	 1
  00041	ff 50 40	 call	 DWORD PTR [eax+64]
  00044	89 3e		 mov	 DWORD PTR [esi], edi
$LN3@SetLongTim@2:

; 374  : 	SAFEDELETE( m_pEmoticonNum );

  00046	8b 4e 08	 mov	 ecx, DWORD PTR [esi+8]
  00049	3b cf		 cmp	 ecx, edi
  0004b	74 0a		 je	 SHORT $LN2@SetLongTim@2
  0004d	8b 01		 mov	 eax, DWORD PTR [ecx]
  0004f	6a 01		 push	 1
  00051	ff 50 40	 call	 DWORD PTR [eax+64]
  00054	89 7e 08	 mov	 DWORD PTR [esi+8], edi
$LN2@SetLongTim@2:

; 375  : 
; 376  : 	m_szEmoticonName.Clear();

  00057	8d 8e 90 00 00
	00		 lea	 ecx, DWORD PTR [esi+144]
  0005d	ff 15 00 00 00
	00		 call	 DWORD PTR __imp_?Clear@ioHashString@@QAEXXZ

; 377  : 	m_pEmoticon = pEmoticon;
; 378  : 
; 379  : 	CheckEmoticonBackImage();

  00063	8b ce		 mov	 ecx, esi
  00065	89 1e		 mov	 DWORD PTR [esi], ebx
  00067	e8 00 00 00 00	 call	 ?CheckEmoticonBackImage@ioCharEmoticon@@IAEXXZ ; ioCharEmoticon::CheckEmoticonBackImage

; 380  : 
; 381  : 	m_bFastDuration = bFast;

  0006c	8a 45 0c	 mov	 al, BYTE PTR _bFast$[ebp]
  0006f	88 86 e0 00 00
	00		 mov	 BYTE PTR [esi+224], al

; 382  : 
; 383  : 	m_dwEmoticonStartTime = FRAMEGETTIME();

  00075	ff 15 00 00 00
	00		 call	 DWORD PTR __imp_?GetSingleton@ioFrameTimer@@SAAAV1@XZ
  0007b	8b c8		 mov	 ecx, eax
  0007d	ff 15 00 00 00
	00		 call	 DWORD PTR __imp_?GetLoopSec@ioFrameTimer@@QBEKXZ

; 384  : 	m_dwCurEmoticonDuration = 100000000;
; 385  : 	m_dwCurScaleDuration = 0;
; 386  : 	m_fCurStartScale = m_fEmoticonEndScale;
; 387  : 
; 388  : 	m_State = ES_DURATION_SCALE;
; 389  : 	m_Type  = EMT_DEFAULT;
; 390  : 
; 391  : 	if( m_pEmoticon )

  00083	8b 0e		 mov	 ecx, DWORD PTR [esi]
  00085	89 46 10	 mov	 DWORD PTR [esi+16], eax
  00088	c7 46 14 00 e1
	f5 05		 mov	 DWORD PTR [esi+20], 100000000 ; 05f5e100H
  0008f	89 7e 18	 mov	 DWORD PTR [esi+24], edi
  00092	f3 0f 10 05 00
	00 00 00	 movss	 xmm0, DWORD PTR ?m_fEmoticonEndScale@ioCharEmoticon@@1MA
  0009a	f3 0f 11 46 1c	 movss	 DWORD PTR [esi+28], xmm0
  0009f	c7 46 68 07 00
	00 00		 mov	 DWORD PTR [esi+104], 7
  000a6	89 7e 6c	 mov	 DWORD PTR [esi+108], edi
  000a9	3b cf		 cmp	 ecx, edi
  000ab	74 0b		 je	 SHORT $LN1@SetLongTim@2

; 392  : 		m_pEmoticon->SetScale( m_fCurStartScale );

  000ad	8b 01		 mov	 eax, DWORD PTR [ecx]
  000af	51		 push	 ecx
  000b0	f3 0f 11 04 24	 movss	 DWORD PTR [esp], xmm0
  000b5	ff 50 1c	 call	 DWORD PTR [eax+28]
$LN1@SetLongTim@2:

; 393  : 
; 394  : 	m_LongTimeLiveEmoticon = szEmoticon;

  000b8	ff 75 08	 push	 DWORD PTR _szEmoticon$[ebp]
  000bb	8d 4e 2c	 lea	 ecx, DWORD PTR [esi+44]
  000be	ff 15 00 00 00
	00		 call	 DWORD PTR __imp_??4ioHashString@@QAEAAV0@ABV0@@Z

; 395  : 	m_bLongTimeLiveEmoticon = true;

  000c4	c6 46 3c 01	 mov	 BYTE PTR [esi+60], 1
$LN12@SetLongTim@2:
  000c8	5f		 pop	 edi
  000c9	5b		 pop	 ebx
$LN6@SetLongTim@2:
  000ca	5e		 pop	 esi

; 396  : }

  000cb	5d		 pop	 ebp
  000cc	c2 08 00	 ret	 8
?SetLongTimeLiveEmoticonAndScale@ioCharEmoticon@@QAEXABVioHashString@@_N@Z ENDP ; ioCharEmoticon::SetLongTimeLiveEmoticonAndScale
_TEXT	ENDS
PUBLIC	__real@400921fb60000000
PUBLIC	__real@4f800000
PUBLIC	?ProcessDurationScale@ioCharEmoticon@@IAEXXZ	; ioCharEmoticon::ProcessDurationScale
;	COMDAT __real@400921fb60000000
; File c:\program files (x86)\microsoft visual studio 10.0\vc\include\math.h
CONST	SEGMENT
__real@400921fb60000000 DQ 0400921fb60000000r	; 3.14159
CONST	ENDS
;	COMDAT __real@4f800000
CONST	SEGMENT
__real@4f800000 DD 04f800000r			; 4.29497e+009
; Function compile flags: /Ogsp
; File d:\lost saga for developer\youtube\tutorial\source\src\lsclient\iocharemoticon.cpp
CONST	ENDS
;	COMDAT ?ProcessDurationScale@ioCharEmoticon@@IAEXXZ
_TEXT	SEGMENT
tv221 = -12						; size = 4
tv218 = -12						; size = 4
tv203 = -12						; size = 4
tv231 = -8						; size = 4
tv200 = -8						; size = 4
_fScaleRate$ = -8					; size = 4
tv216 = -4						; size = 4
tv213 = -4						; size = 4
tv207 = -4						; size = 4
_dwScaleTime$ = -4					; size = 4
?ProcessDurationScale@ioCharEmoticon@@IAEXXZ PROC	; ioCharEmoticon::ProcessDurationScale, COMDAT
; _this$ = ecx

; 410  : {

  00000	55		 push	 ebp
  00001	8b ec		 mov	 ebp, esp
  00003	83 ec 0c	 sub	 esp, 12			; 0000000cH
  00006	53		 push	 ebx

; 411  : 	if( m_dwDurationScaleStartTime == 0 )

  00007	8b 1d 00 00 00
	00		 mov	 ebx, DWORD PTR __imp_?GetSingleton@ioFrameTimer@@SAAAV1@XZ
  0000d	56		 push	 esi
  0000e	8b f1		 mov	 esi, ecx
  00010	83 be e8 00 00
	00 00		 cmp	 DWORD PTR [esi+232], 0
  00017	57		 push	 edi
  00018	75 10		 jne	 SHORT $LN4@ProcessDur

; 412  : 		m_dwDurationScaleStartTime = FRAMEGETTIME();

  0001a	ff d3		 call	 ebx
  0001c	8b c8		 mov	 ecx, eax
  0001e	ff 15 00 00 00
	00		 call	 DWORD PTR __imp_?GetLoopSec@ioFrameTimer@@QBEKXZ
  00024	89 86 e8 00 00
	00		 mov	 DWORD PTR [esi+232], eax
$LN4@ProcessDur:

; 413  : 
; 414  : 	DWORD dwScaleTime = m_dwDurationScaleTime;
; 415  : 	float fScaleRate = m_fDurationScaleRate;
; 416  : 
; 417  : 	if( m_bFastDuration )

  0002a	80 be e0 00 00
	00 00		 cmp	 BYTE PTR [esi+224], 0
  00031	a1 00 00 00 00	 mov	 eax, DWORD PTR ?m_dwDurationScaleTime@ioCharEmoticon@@1KA ; ioCharEmoticon::m_dwDurationScaleTime
  00036	f3 0f 10 05 00
	00 00 00	 movss	 xmm0, DWORD PTR ?m_fDurationScaleRate@ioCharEmoticon@@1MA
  0003e	89 45 fc	 mov	 DWORD PTR _dwScaleTime$[ebp], eax
  00041	f3 0f 11 45 f8	 movss	 DWORD PTR _fScaleRate$[ebp], xmm0
  00046	74 15		 je	 SHORT $LN3@ProcessDur

; 418  : 	{
; 419  : 		dwScaleTime = m_dwDurationScaleFastTime;

  00048	a1 00 00 00 00	 mov	 eax, DWORD PTR ?m_dwDurationScaleFastTime@ioCharEmoticon@@1KA ; ioCharEmoticon::m_dwDurationScaleFastTime

; 420  : 		fScaleRate = m_fDurationScaleFastRate;

  0004d	f3 0f 10 05 00
	00 00 00	 movss	 xmm0, DWORD PTR ?m_fDurationScaleFastRate@ioCharEmoticon@@1MA
  00055	89 45 fc	 mov	 DWORD PTR _dwScaleTime$[ebp], eax
  00058	f3 0f 11 45 f8	 movss	 DWORD PTR _fScaleRate$[ebp], xmm0
$LN3@ProcessDur:

; 421  : 	}
; 422  : 
; 423  : 	DWORD dwGapTime = FRAMEGETTIME() - m_dwDurationScaleStartTime;

  0005d	ff d3		 call	 ebx
  0005f	8b c8		 mov	 ecx, eax
  00061	ff 15 00 00 00
	00		 call	 DWORD PTR __imp_?GetLoopSec@ioFrameTimer@@QBEKXZ
  00067	8b f8		 mov	 edi, eax
  00069	2b be e8 00 00
	00		 sub	 edi, DWORD PTR [esi+232]

; 424  : 	if( dwGapTime > dwScaleTime )

  0006f	3b 7d fc	 cmp	 edi, DWORD PTR _dwScaleTime$[ebp]
  00072	76 1e		 jbe	 SHORT $LN2@ProcessDur

; 425  : 	{
; 426  : 		dwGapTime -= dwScaleTime;

  00074	2b 7d fc	 sub	 edi, DWORD PTR _dwScaleTime$[ebp]

; 427  : 		m_dwDurationScaleStartTime = FRAMEGETTIME() - ( dwGapTime % dwScaleTime );

  00077	ff d3		 call	 ebx
  00079	8b c8		 mov	 ecx, eax
  0007b	ff 15 00 00 00
	00		 call	 DWORD PTR __imp_?GetLoopSec@ioFrameTimer@@QBEKXZ
  00081	8b c8		 mov	 ecx, eax
  00083	33 d2		 xor	 edx, edx
  00085	8b c7		 mov	 eax, edi
  00087	f7 75 fc	 div	 DWORD PTR _dwScaleTime$[ebp]
  0008a	2b ca		 sub	 ecx, edx
  0008c	89 8e e8 00 00
	00		 mov	 DWORD PTR [esi+232], ecx
$LN2@ProcessDur:

; 431  : 	float fCurRate = FLOAT1 + fScaleRate * sinf( D3DX_PI * fTimeRate );

  00092	b8 01 00 00 00	 mov	 eax, 1

; 432  : 	
; 433  : 	m_fCurDurationScaleRate = m_fEmoticonEndScale * fCurRate;

  00097	89 7d f4	 mov	 DWORD PTR tv221[ebp], edi
  0009a	db 45 f4	 fild	 DWORD PTR tv221[ebp]
  0009d	8b d8		 mov	 ebx, eax
  0009f	85 ff		 test	 edi, edi
  000a1	79 06		 jns	 SHORT $LN11@ProcessDur
  000a3	d8 05 00 00 00
	00		 fadd	 DWORD PTR __real@4f800000
$LN11@ProcessDur:
  000a9	8b 45 fc	 mov	 eax, DWORD PTR _dwScaleTime$[ebp]
  000ac	db 45 fc	 fild	 DWORD PTR _dwScaleTime$[ebp]
  000af	85 c0		 test	 eax, eax
  000b1	79 06		 jns	 SHORT $LN12@ProcessDur
  000b3	d8 05 00 00 00
	00		 fadd	 DWORD PTR __real@4f800000
$LN12@ProcessDur:

; 428  : 	}
; 429  : 
; 430  : 	float fTimeRate = (float)dwGapTime / (float)dwScaleTime;

  000b9	de f9		 fdivp	 ST(1), ST(0)

; 432  : 	
; 433  : 	m_fCurDurationScaleRate = m_fEmoticonEndScale * fCurRate;

  000bb	d9 5d fc	 fstp	 DWORD PTR tv216[ebp]
  000be	d9 45 fc	 fld	 DWORD PTR tv216[ebp]
  000c1	dc 0d 00 00 00
	00		 fmul	 QWORD PTR __real@400921fb60000000
  000c7	d9 5d fc	 fstp	 DWORD PTR tv213[ebp]
  000ca	d9 45 fc	 fld	 DWORD PTR tv213[ebp]
  000cd	e8 00 00 00 00	 call	 __CIsin
  000d2	d9 5d fc	 fstp	 DWORD PTR tv207[ebp]
  000d5	d9 45 fc	 fld	 DWORD PTR tv207[ebp]
  000d8	89 5d f4	 mov	 DWORD PTR tv203[ebp], ebx
  000db	d8 4d f8	 fmul	 DWORD PTR _fScaleRate$[ebp]
  000de	db 45 f4	 fild	 DWORD PTR tv203[ebp]
  000e1	85 db		 test	 ebx, ebx
  000e3	79 06		 jns	 SHORT $LN13@ProcessDur
  000e5	d8 05 00 00 00
	00		 fadd	 DWORD PTR __real@4f800000
$LN13@ProcessDur:

; 431  : 	float fCurRate = FLOAT1 + fScaleRate * sinf( D3DX_PI * fTimeRate );

  000eb	de c1		 faddp	 ST(1), ST(0)

; 432  : 	
; 433  : 	m_fCurDurationScaleRate = m_fEmoticonEndScale * fCurRate;

  000ed	d9 5d f8	 fstp	 DWORD PTR tv200[ebp]
  000f0	d9 45 f8	 fld	 DWORD PTR tv200[ebp]
  000f3	d8 0d 00 00 00
	00		 fmul	 DWORD PTR ?m_fEmoticonEndScale@ioCharEmoticon@@1MA ; ioCharEmoticon::m_fEmoticonEndScale
  000f9	d9 5d f8	 fstp	 DWORD PTR tv231[ebp]
  000fc	d9 45 f8	 fld	 DWORD PTR tv231[ebp]
  000ff	d9 9e e4 00 00
	00		 fstp	 DWORD PTR [esi+228]

; 434  : 
; 435  : 	if( m_pEmoticon )

  00105	8b 36		 mov	 esi, DWORD PTR [esi]
  00107	85 f6		 test	 esi, esi
  00109	74 12		 je	 SHORT $LN1@ProcessDur

; 436  : 	{
; 437  : 		m_pEmoticon->SetScale( m_fCurDurationScaleRate );

  0010b	f3 0f 10 45 f8	 movss	 xmm0, DWORD PTR tv231[ebp]
  00110	8b 06		 mov	 eax, DWORD PTR [esi]
  00112	51		 push	 ecx
  00113	8b ce		 mov	 ecx, esi
  00115	f3 0f 11 04 24	 movss	 DWORD PTR [esp], xmm0
  0011a	ff 50 1c	 call	 DWORD PTR [eax+28]
$LN1@ProcessDur:
  0011d	5f		 pop	 edi
  0011e	5e		 pop	 esi
  0011f	5b		 pop	 ebx

; 438  : 	}
; 439  : }

  00120	c9		 leave
  00121	c3		 ret	 0
?ProcessDurationScale@ioCharEmoticon@@IAEXXZ ENDP	; ioCharEmoticon::ProcessDurationScale
_TEXT	ENDS
PUBLIC	?SetNamedUnLimitedEmoticon@ioCharEmoticon@@QAEXPAVioBaseChar@@ABVioHashString@@1K@Z ; ioCharEmoticon::SetNamedUnLimitedEmoticon
; Function compile flags: /Ogsp
;	COMDAT ?SetNamedUnLimitedEmoticon@ioCharEmoticon@@QAEXPAVioBaseChar@@ABVioHashString@@1K@Z
_TEXT	SEGMENT
_pChar$ = 8						; size = 4
_szEmoticon$ = 12					; size = 4
_szDescName$ = 16					; size = 4
_dwColor$ = 20						; size = 4
?SetNamedUnLimitedEmoticon@ioCharEmoticon@@QAEXPAVioBaseChar@@ABVioHashString@@1K@Z PROC ; ioCharEmoticon::SetNamedUnLimitedEmoticon, COMDAT
; _this$ = ecx

; 442  : {

  00000	55		 push	 ebp
  00001	8b ec		 mov	 ebp, esp
  00003	56		 push	 esi
  00004	8b f1		 mov	 esi, ecx

; 443  : 	if( szEmoticon.IsEmpty() ) return;

  00006	8b 4d 0c	 mov	 ecx, DWORD PTR _szEmoticon$[ebp]
  00009	ff 15 00 00 00
	00		 call	 DWORD PTR __imp_?IsEmpty@ioHashString@@QBE_NXZ
  0000f	84 c0		 test	 al, al
  00011	0f 85 e4 00 00
	00		 jne	 $LN10@SetNamedUn

; 444  : 
; 445  : 	if( !pChar || pChar->GetState() != CS_FISHING )

  00017	8b 45 08	 mov	 eax, DWORD PTR _pChar$[ebp]
  0001a	57		 push	 edi
  0001b	85 c0		 test	 eax, eax
  0001d	74 09		 je	 SHORT $LN7@SetNamedUn
  0001f	80 b8 10 03 00
	00 2b		 cmp	 BYTE PTR [eax+784], 43	; 0000002bH
  00026	74 4d		 je	 SHORT $LN8@SetNamedUn
$LN7@SetNamedUn:

; 446  : 	{
; 447  : 		ioUIRenderImage *pEmoticon = g_UIImageSetMgr.CreateImageByFullName( szEmoticon );

  00028	6a 00		 push	 0
  0002a	ff 75 0c	 push	 DWORD PTR _szEmoticon$[ebp]
  0002d	ff 15 00 00 00
	00		 call	 DWORD PTR __imp_?GetSingleton@ioUIImageSetManager@@SAAAV1@XZ
  00033	8b c8		 mov	 ecx, eax
  00035	ff 15 00 00 00
	00		 call	 DWORD PTR __imp_?CreateImageByFullName@ioUIImageSetManager@@QAEPAVioUIRenderImage@@ABVioHashString@@_N@Z
  0003b	8b f8		 mov	 edi, eax

; 448  : 		if( !pEmoticon ) return;

  0003d	85 ff		 test	 edi, edi
  0003f	0f 84 b5 00 00
	00		 je	 $LN21@SetNamedUn

; 449  : 
; 450  : 		SAFEDELETE( m_pEmoticon );

  00045	8b 0e		 mov	 ecx, DWORD PTR [esi]
  00047	85 c9		 test	 ecx, ecx
  00049	74 0a		 je	 SHORT $LN20@SetNamedUn
  0004b	8b 01		 mov	 eax, DWORD PTR [ecx]
  0004d	6a 01		 push	 1
  0004f	ff 50 40	 call	 DWORD PTR [eax+64]
  00052	83 26 00	 and	 DWORD PTR [esi], 0
$LN20@SetNamedUn:

; 451  : 		SAFEDELETE( m_pEmoticonNum );

  00055	8b 4e 08	 mov	 ecx, DWORD PTR [esi+8]
  00058	85 c9		 test	 ecx, ecx
  0005a	74 0b		 je	 SHORT $LN4@SetNamedUn
  0005c	8b 01		 mov	 eax, DWORD PTR [ecx]
  0005e	6a 01		 push	 1
  00060	ff 50 40	 call	 DWORD PTR [eax+64]
  00063	83 66 08 00	 and	 DWORD PTR [esi+8], 0
$LN4@SetNamedUn:

; 452  : 
; 453  : 		m_szEmoticonName.Clear();

  00067	8d 8e 90 00 00
	00		 lea	 ecx, DWORD PTR [esi+144]
  0006d	ff 15 00 00 00
	00		 call	 DWORD PTR __imp_?Clear@ioHashString@@QAEXXZ

; 454  : 		m_pEmoticon = pEmoticon;

  00073	89 3e		 mov	 DWORD PTR [esi], edi
$LN8@SetNamedUn:

; 455  : 	}
; 456  : 
; 457  : 	m_szUnLimitedEmoticonName = szDescName;

  00075	ff 75 10	 push	 DWORD PTR _szDescName$[ebp]
  00078	8b 3d 00 00 00
	00		 mov	 edi, DWORD PTR __imp_??4ioHashString@@QAEAAV0@ABV0@@Z
  0007e	8d 8e a4 00 00
	00		 lea	 ecx, DWORD PTR [esi+164]
  00084	ff d7		 call	 edi

; 458  : 	m_dwUnLimitedEmoticonNameColor = dwColor;

  00086	8b 45 14	 mov	 eax, DWORD PTR _dwColor$[ebp]
  00089	89 86 a0 00 00
	00		 mov	 DWORD PTR [esi+160], eax

; 459  : 
; 460  : 	if( !pChar || pChar->GetState() != CS_FISHING )

  0008f	8b 45 08	 mov	 eax, DWORD PTR _pChar$[ebp]
  00092	85 c0		 test	 eax, eax
  00094	74 09		 je	 SHORT $LN2@SetNamedUn
  00096	80 b8 10 03 00
	00 2b		 cmp	 BYTE PTR [eax+784], 43	; 0000002bH
  0009d	74 4f		 je	 SHORT $LN1@SetNamedUn
$LN2@SetNamedUn:

; 461  : 	{
; 462  : 		CheckEmoticonBackImage();

  0009f	8b ce		 mov	 ecx, esi
  000a1	e8 00 00 00 00	 call	 ?CheckEmoticonBackImage@ioCharEmoticon@@IAEXXZ ; ioCharEmoticon::CheckEmoticonBackImage

; 463  : 
; 464  : 		m_dwEmoticonStartTime = FRAMEGETTIME();

  000a6	ff 15 00 00 00
	00		 call	 DWORD PTR __imp_?GetSingleton@ioFrameTimer@@SAAAV1@XZ
  000ac	8b c8		 mov	 ecx, eax
  000ae	ff 15 00 00 00
	00		 call	 DWORD PTR __imp_?GetLoopSec@ioFrameTimer@@QBEKXZ

; 465  : 		m_dwCurEmoticonDuration = 100000000;
; 466  : 		m_dwCurScaleDuration = 0;

  000b4	83 66 18 00	 and	 DWORD PTR [esi+24], 0

; 467  : 		m_fCurStartScale = m_fEmoticonEndScale;
; 468  : 
; 469  : 		m_State = ES_UNLIMITED;
; 470  : 		m_Type  = EMT_NAMED_UNLIMITED_ICON;
; 471  : 
; 472  : 		if( m_pEmoticon )

  000b8	8b 0e		 mov	 ecx, DWORD PTR [esi]
  000ba	89 46 10	 mov	 DWORD PTR [esi+16], eax
  000bd	c7 46 14 00 e1
	f5 05		 mov	 DWORD PTR [esi+20], 100000000 ; 05f5e100H
  000c4	f3 0f 10 05 00
	00 00 00	 movss	 xmm0, DWORD PTR ?m_fEmoticonEndScale@ioCharEmoticon@@1MA
  000cc	f3 0f 11 46 1c	 movss	 DWORD PTR [esi+28], xmm0
  000d1	c7 46 68 05 00
	00 00		 mov	 DWORD PTR [esi+104], 5
  000d8	c7 46 6c 0a 00
	00 00		 mov	 DWORD PTR [esi+108], 10	; 0000000aH
  000df	85 c9		 test	 ecx, ecx
  000e1	74 0b		 je	 SHORT $LN1@SetNamedUn

; 473  : 			m_pEmoticon->SetScale( m_fCurStartScale );

  000e3	8b 01		 mov	 eax, DWORD PTR [ecx]
  000e5	51		 push	 ecx
  000e6	f3 0f 11 04 24	 movss	 DWORD PTR [esp], xmm0
  000eb	ff 50 1c	 call	 DWORD PTR [eax+28]
$LN1@SetNamedUn:

; 474  : 	}
; 475  : 
; 476  : 	m_UnLimitedEmoticon = szEmoticon;

  000ee	ff 75 0c	 push	 DWORD PTR _szEmoticon$[ebp]
  000f1	8d 4e 40	 lea	 ecx, DWORD PTR [esi+64]
  000f4	ff d7		 call	 edi

; 477  : 	m_bUnLimitedEmoticon = true;

  000f6	c6 46 50 01	 mov	 BYTE PTR [esi+80], 1
$LN21@SetNamedUn:
  000fa	5f		 pop	 edi
$LN10@SetNamedUn:
  000fb	5e		 pop	 esi

; 478  : }

  000fc	5d		 pop	 ebp
  000fd	c2 10 00	 ret	 16			; 00000010H
?SetNamedUnLimitedEmoticon@ioCharEmoticon@@QAEXPAVioBaseChar@@ABVioHashString@@1K@Z ENDP ; ioCharEmoticon::SetNamedUnLimitedEmoticon
_TEXT	ENDS
PUBLIC	?SetEmoticon@ioCharEmoticon@@QAEXABVioHashString@@W4EmoticonType@@_NK@Z ; ioCharEmoticon::SetEmoticon
; Function compile flags: /Ogsp
;	COMDAT ?SetEmoticon@ioCharEmoticon@@QAEXABVioHashString@@W4EmoticonType@@_NK@Z
_TEXT	SEGMENT
_szEmoticon$ = 8					; size = 4
_eType$ = 12						; size = 4
_bOwnerChar$ = 16					; size = 1
_dwDuration$ = 20					; size = 4
?SetEmoticon@ioCharEmoticon@@QAEXABVioHashString@@W4EmoticonType@@_NK@Z PROC ; ioCharEmoticon::SetEmoticon, COMDAT
; _this$ = ecx

; 496  : {

  00000	55		 push	 ebp
  00001	8b ec		 mov	 ebp, esp
  00003	56		 push	 esi
  00004	8b f1		 mov	 esi, ecx

; 497  : 	if( szEmoticon.IsEmpty() )	return;

  00006	8b 4d 08	 mov	 ecx, DWORD PTR _szEmoticon$[ebp]
  00009	ff 15 00 00 00
	00		 call	 DWORD PTR __imp_?IsEmpty@ioHashString@@QBE_NXZ
  0000f	84 c0		 test	 al, al
  00011	0f 85 9d 01 00
	00		 jne	 $LN23@SetEmotico

; 498  : 
; 499  : 	ioUIRenderImage *pEmoticon = g_UIImageSetMgr.CreateImageByFullName( szEmoticon );

  00017	53		 push	 ebx
  00018	57		 push	 edi
  00019	33 db		 xor	 ebx, ebx
  0001b	53		 push	 ebx
  0001c	ff 75 08	 push	 DWORD PTR _szEmoticon$[ebp]
  0001f	ff 15 00 00 00
	00		 call	 DWORD PTR __imp_?GetSingleton@ioUIImageSetManager@@SAAAV1@XZ
  00025	8b c8		 mov	 ecx, eax
  00027	ff 15 00 00 00
	00		 call	 DWORD PTR __imp_?CreateImageByFullName@ioUIImageSetManager@@QAEPAVioUIRenderImage@@ABVioHashString@@_N@Z
  0002d	8b f8		 mov	 edi, eax

; 500  : 	if( !pEmoticon ) return;

  0002f	3b fb		 cmp	 edi, ebx
  00031	0f 84 7b 01 00
	00		 je	 $LN30@SetEmotico

; 501  : 
; 502  : 	SAFEDELETE( m_pEmoticon );

  00037	8b 0e		 mov	 ecx, DWORD PTR [esi]
  00039	3b cb		 cmp	 ecx, ebx
  0003b	74 09		 je	 SHORT $LN20@SetEmotico
  0003d	8b 01		 mov	 eax, DWORD PTR [ecx]
  0003f	6a 01		 push	 1
  00041	ff 50 40	 call	 DWORD PTR [eax+64]
  00044	89 1e		 mov	 DWORD PTR [esi], ebx
$LN20@SetEmotico:

; 503  : 	SAFEDELETE( m_pEmoticonNum );

  00046	8b 4e 08	 mov	 ecx, DWORD PTR [esi+8]
  00049	3b cb		 cmp	 ecx, ebx
  0004b	74 0a		 je	 SHORT $LN19@SetEmotico
  0004d	8b 01		 mov	 eax, DWORD PTR [ecx]
  0004f	6a 01		 push	 1
  00051	ff 50 40	 call	 DWORD PTR [eax+64]
  00054	89 5e 08	 mov	 DWORD PTR [esi+8], ebx
$LN19@SetEmotico:

; 504  : 
; 505  : 	m_szEmoticonName.Clear();

  00057	8d 8e 90 00 00
	00		 lea	 ecx, DWORD PTR [esi+144]
  0005d	ff 15 00 00 00
	00		 call	 DWORD PTR __imp_?Clear@ioHashString@@QAEXXZ

; 506  : 	m_pEmoticon = pEmoticon;
; 507  : 
; 508  : 	CheckEmoticonBackImage();

  00063	8b ce		 mov	 ecx, esi
  00065	89 3e		 mov	 DWORD PTR [esi], edi
  00067	e8 00 00 00 00	 call	 ?CheckEmoticonBackImage@ioCharEmoticon@@IAEXXZ ; ioCharEmoticon::CheckEmoticonBackImage

; 509  : 
; 510  : 	m_dwEmoticonStartTime = FRAMEGETTIME();

  0006c	ff 15 00 00 00
	00		 call	 DWORD PTR __imp_?GetSingleton@ioFrameTimer@@SAAAV1@XZ
  00072	8b c8		 mov	 ecx, eax
  00074	ff 15 00 00 00
	00		 call	 DWORD PTR __imp_?GetLoopSec@ioFrameTimer@@QBEKXZ

; 511  : 	m_bOwnerChar = bOwnerChar;
; 512  : 
; 513  : 	switch( eType )

  0007a	8b 7d 0c	 mov	 edi, DWORD PTR _eType$[ebp]
  0007d	89 46 10	 mov	 DWORD PTR [esi+16], eax
  00080	8a 45 10	 mov	 al, BYTE PTR _bOwnerChar$[ebp]
  00083	88 46 70	 mov	 BYTE PTR [esi+112], al
  00086	83 ff 0d	 cmp	 edi, 13			; 0000000dH
  00089	0f 87 f9 00 00
	00		 ja	 $LN3@SetEmotico
  0008f	0f b6 8f 00 00
	00 00		 movzx	 ecx, BYTE PTR $LN29@SetEmotico[edi]
  00096	ff 24 8d 00 00
	00 00		 jmp	 DWORD PTR $LN36@SetEmotico[ecx*4]
$LN16@SetEmotico:

; 514  : 	{
; 515  : 	case EMT_DEFAULT:
; 516  : 		m_dwCurEmoticonDuration = m_dwDefaultDuration;

  0009d	a1 00 00 00 00	 mov	 eax, DWORD PTR ?m_dwDefaultDuration@ioCharEmoticon@@1KA ; ioCharEmoticon::m_dwDefaultDuration
$LN35@SetEmotico:
  000a2	89 46 14	 mov	 DWORD PTR [esi+20], eax

; 517  : 		m_fCurStartScale = m_fEmoticonEndScale;

  000a5	f3 0f 10 05 00
	00 00 00	 movss	 xmm0, DWORD PTR ?m_fEmoticonEndScale@ioCharEmoticon@@1MA
  000ad	f3 0f 11 46 1c	 movss	 DWORD PTR [esi+28], xmm0

; 518  : 		m_dwCurScaleDuration = 0;

  000b2	89 5e 18	 mov	 DWORD PTR [esi+24], ebx

; 519  : 		break;

  000b5	e9 ce 00 00 00	 jmp	 $LN3@SetEmotico
$LN15@SetEmotico:

; 520  : 	case EMT_CHAT_ICON:
; 521  : 		m_dwCurEmoticonDuration = m_dwChatIconDuration;

  000ba	a1 00 00 00 00	 mov	 eax, DWORD PTR ?m_dwChatIconDuration@ioCharEmoticon@@1KA ; ioCharEmoticon::m_dwChatIconDuration

; 522  : 		m_fCurStartScale = m_fEmoticonEndScale;
; 523  : 		m_dwCurScaleDuration = 0;
; 524  : 		break;

  000bf	eb e1		 jmp	 SHORT $LN35@SetEmotico
$LN14@SetEmotico:

; 525  : 	case EMT_KILL_POINT:
; 526  : 	case EMT_GAME_EVENT:
; 527  : 	case EMT_HIT_COMBO:
; 528  : 	case EMT_USER_RANK:
; 529  : 	case EMT_FISHING_GRADE:
; 530  : 	case EMT_FISHING_LEVEL_UP:
; 531  : 		m_dwCurEmoticonDuration = m_dwLongDuration;

  000c1	8b 0d 00 00 00
	00		 mov	 ecx, DWORD PTR ?m_dwLongDuration@ioCharEmoticon@@1KA ; ioCharEmoticon::m_dwLongDuration
  000c7	89 4e 14	 mov	 DWORD PTR [esi+20], ecx

; 532  : 		
; 533  : 		if( m_bOwnerChar )

  000ca	3a c3		 cmp	 al, bl
  000cc	74 17		 je	 SHORT $LN13@SetEmotico

; 534  : 		{
; 535  : 			m_fCurStartScale = m_fOwnerGameEventScale;

  000ce	f3 0f 10 05 00
	00 00 00	 movss	 xmm0, DWORD PTR ?m_fOwnerGameEventScale@ioCharEmoticon@@1MA
$LN33@SetEmotico:
  000d6	f3 0f 11 46 1c	 movss	 DWORD PTR [esi+28], xmm0

; 536  : 			m_dwCurScaleDuration = m_dwOwnerGameEventTime;

  000db	a1 00 00 00 00	 mov	 eax, DWORD PTR ?m_dwOwnerGameEventTime@ioCharEmoticon@@1KA ; ioCharEmoticon::m_dwOwnerGameEventTime

; 537  : 		}
; 538  : 		else

  000e0	e9 a0 00 00 00	 jmp	 $LN32@SetEmotico
$LN13@SetEmotico:

; 539  : 		{
; 540  : 			m_fCurStartScale = m_fOtherGameEventScale;

  000e5	f3 0f 10 05 00
	00 00 00	 movss	 xmm0, DWORD PTR ?m_fOtherGameEventScale@ioCharEmoticon@@1MA
$LN34@SetEmotico:
  000ed	f3 0f 11 46 1c	 movss	 DWORD PTR [esi+28], xmm0

; 541  : 			m_dwCurScaleDuration = m_dwOtherGameEventTime;

  000f2	a1 00 00 00 00	 mov	 eax, DWORD PTR ?m_dwOtherGameEventTime@ioCharEmoticon@@1KA ; ioCharEmoticon::m_dwOtherGameEventTime

; 542  : 		}
; 543  : 		break;

  000f7	e9 89 00 00 00	 jmp	 $LN32@SetEmotico
$LN11@SetEmotico:

; 544  : 	case EMT_MOVIE_EVENT:
; 545  : 		m_dwCurEmoticonDuration = m_dwLongDuration;

  000fc	8b 0d 00 00 00
	00		 mov	 ecx, DWORD PTR ?m_dwLongDuration@ioCharEmoticon@@1KA ; ioCharEmoticon::m_dwLongDuration
  00102	89 4e 14	 mov	 DWORD PTR [esi+20], ecx

; 546  : 
; 547  : 		if( m_bOwnerChar )

  00105	3a c3		 cmp	 al, bl
  00107	74 0a		 je	 SHORT $LN10@SetEmotico

; 548  : 		{
; 549  : 			m_fCurStartScale = m_fOwnerMovieEventScale;

  00109	f3 0f 10 05 00
	00 00 00	 movss	 xmm0, DWORD PTR ?m_fOwnerMovieEventScale@ioCharEmoticon@@1MA

; 550  : 			m_dwCurScaleDuration = m_dwOwnerGameEventTime;
; 551  : 		}
; 552  : 		else

  00111	eb c3		 jmp	 SHORT $LN33@SetEmotico
$LN10@SetEmotico:

; 553  : 		{
; 554  : 			m_fCurStartScale = m_fOtherMovieEventScale;

  00113	f3 0f 10 05 00
	00 00 00	 movss	 xmm0, DWORD PTR ?m_fOtherMovieEventScale@ioCharEmoticon@@1MA

; 555  : 			m_dwCurScaleDuration = m_dwOtherGameEventTime;
; 556  : 		}
; 557  : 		break;

  0011b	eb d0		 jmp	 SHORT $LN34@SetEmotico
$LN8@SetEmotico:

; 558  : 	case EMT_SKILL_BUFF:
; 559  : 		m_dwCurEmoticonDuration = m_dwDefaultDuration;

  0011d	8b 0d 00 00 00
	00		 mov	 ecx, DWORD PTR ?m_dwDefaultDuration@ioCharEmoticon@@1KA ; ioCharEmoticon::m_dwDefaultDuration
  00123	89 4e 14	 mov	 DWORD PTR [esi+20], ecx

; 560  : 
; 561  : 		if( m_bOwnerChar )

  00126	3a c3		 cmp	 al, bl
  00128	74 14		 je	 SHORT $LN7@SetEmotico

; 562  : 		{
; 563  : 			m_fCurStartScale = m_fOwnerSkillBuffScale;

  0012a	f3 0f 10 05 00
	00 00 00	 movss	 xmm0, DWORD PTR ?m_fOwnerSkillBuffScale@ioCharEmoticon@@1MA
  00132	f3 0f 11 46 1c	 movss	 DWORD PTR [esi+28], xmm0

; 564  : 			m_dwCurScaleDuration = m_dwOwnerSkillBuffTime;

  00137	a1 00 00 00 00	 mov	 eax, DWORD PTR ?m_dwOwnerSkillBuffTime@ioCharEmoticon@@1KA ; ioCharEmoticon::m_dwOwnerSkillBuffTime

; 565  : 		}
; 566  : 		else

  0013c	eb 47		 jmp	 SHORT $LN32@SetEmotico
$LN7@SetEmotico:

; 567  : 		{
; 568  : 			m_fCurStartScale = m_fOtherSkillBuffScale;

  0013e	f3 0f 10 05 00
	00 00 00	 movss	 xmm0, DWORD PTR ?m_fOtherSkillBuffScale@ioCharEmoticon@@1MA
  00146	f3 0f 11 46 1c	 movss	 DWORD PTR [esi+28], xmm0

; 569  : 			m_dwCurScaleDuration = m_dwOtherSkillBuffTime;

  0014b	a1 00 00 00 00	 mov	 eax, DWORD PTR ?m_dwOtherSkillBuffTime@ioCharEmoticon@@1KA ; ioCharEmoticon::m_dwOtherSkillBuffTime

; 570  : 		}
; 571  : 		break;

  00150	eb 33		 jmp	 SHORT $LN32@SetEmotico
$LN5@SetEmotico:

; 572  : 	case EMT_BAD_STATE:
; 573  : 		m_dwCurEmoticonDuration = m_dwDefaultDuration;

  00152	8b 0d 00 00 00
	00		 mov	 ecx, DWORD PTR ?m_dwDefaultDuration@ioCharEmoticon@@1KA ; ioCharEmoticon::m_dwDefaultDuration
  00158	89 4e 14	 mov	 DWORD PTR [esi+20], ecx

; 574  : 
; 575  : 		if( m_bOwnerChar )

  0015b	3a c3		 cmp	 al, bl
  0015d	74 14		 je	 SHORT $LN4@SetEmotico

; 576  : 		{
; 577  : 			m_fCurStartScale = m_fOwnerBadStateScale;

  0015f	f3 0f 10 05 00
	00 00 00	 movss	 xmm0, DWORD PTR ?m_fOwnerBadStateScale@ioCharEmoticon@@1MA
  00167	f3 0f 11 46 1c	 movss	 DWORD PTR [esi+28], xmm0

; 578  : 			m_dwCurScaleDuration = m_dwOwnerBadStateTime;

  0016c	a1 00 00 00 00	 mov	 eax, DWORD PTR ?m_dwOwnerBadStateTime@ioCharEmoticon@@1KA ; ioCharEmoticon::m_dwOwnerBadStateTime

; 579  : 		}
; 580  : 		else

  00171	eb 12		 jmp	 SHORT $LN32@SetEmotico
$LN4@SetEmotico:

; 581  : 		{
; 582  : 			m_fCurStartScale = m_fOtherBadStateScale;

  00173	f3 0f 10 05 00
	00 00 00	 movss	 xmm0, DWORD PTR ?m_fOtherBadStateScale@ioCharEmoticon@@1MA
  0017b	f3 0f 11 46 1c	 movss	 DWORD PTR [esi+28], xmm0

; 583  : 			m_dwCurScaleDuration = m_dwOtherBadStateTime;

  00180	a1 00 00 00 00	 mov	 eax, DWORD PTR ?m_dwOtherBadStateTime@ioCharEmoticon@@1KA ; ioCharEmoticon::m_dwOtherBadStateTime
$LN32@SetEmotico:
  00185	89 46 18	 mov	 DWORD PTR [esi+24], eax
$LN3@SetEmotico:

; 584  : 		}
; 585  : 		break;
; 586  : 	}
; 587  : 
; 588  : 	//      
; 589  : 	if( dwDuration > 0 )

  00188	8b 45 14	 mov	 eax, DWORD PTR _dwDuration$[ebp]
  0018b	3b c3		 cmp	 eax, ebx
  0018d	76 03		 jbe	 SHORT $LN2@SetEmotico

; 590  : 		m_dwCurEmoticonDuration = dwDuration;

  0018f	89 46 14	 mov	 DWORD PTR [esi+20], eax
$LN2@SetEmotico:

; 591  : 
; 592  : 	if( m_pEmoticon )

  00192	8b 0e		 mov	 ecx, DWORD PTR [esi]
  00194	3b cb		 cmp	 ecx, ebx
  00196	74 10		 je	 SHORT $LN1@SetEmotico

; 593  : 		m_pEmoticon->SetScale( m_fCurStartScale );

  00198	f3 0f 10 46 1c	 movss	 xmm0, DWORD PTR [esi+28]
  0019d	8b 01		 mov	 eax, DWORD PTR [ecx]
  0019f	51		 push	 ecx
  001a0	f3 0f 11 04 24	 movss	 DWORD PTR [esp], xmm0
  001a5	ff 50 1c	 call	 DWORD PTR [eax+28]
$LN1@SetEmotico:

; 594  : 
; 595  : 	m_State = ES_SCALE;

  001a8	c7 46 68 01 00
	00 00		 mov	 DWORD PTR [esi+104], 1

; 596  : 	m_Type  = eType;

  001af	89 7e 6c	 mov	 DWORD PTR [esi+108], edi
$LN30@SetEmotico:
  001b2	5f		 pop	 edi
  001b3	5b		 pop	 ebx
$LN23@SetEmotico:
  001b4	5e		 pop	 esi

; 597  : }

  001b5	5d		 pop	 ebp
  001b6	c2 10 00	 ret	 16			; 00000010H
  001b9	8d 49 00	 npad	 3
$LN36@SetEmotico:
  001bc	00 00 00 00	 DD	 $LN16@SetEmotico
  001c0	00 00 00 00	 DD	 $LN14@SetEmotico
  001c4	00 00 00 00	 DD	 $LN8@SetEmotico
  001c8	00 00 00 00	 DD	 $LN5@SetEmotico
  001cc	00 00 00 00	 DD	 $LN15@SetEmotico
  001d0	00 00 00 00	 DD	 $LN11@SetEmotico
  001d4	00 00 00 00	 DD	 $LN3@SetEmotico
$LN29@SetEmotico:
  001d8	00		 DB	 0
  001d9	01		 DB	 1
  001da	02		 DB	 2
  001db	03		 DB	 3
  001dc	01		 DB	 1
  001dd	04		 DB	 4
  001de	06		 DB	 6
  001df	01		 DB	 1
  001e0	05		 DB	 5
  001e1	06		 DB	 6
  001e2	06		 DB	 6
  001e3	01		 DB	 1
  001e4	01		 DB	 1
  001e5	01		 DB	 1
?SetEmoticon@ioCharEmoticon@@QAEXABVioHashString@@W4EmoticonType@@_NK@Z ENDP ; ioCharEmoticon::SetEmoticon
_TEXT	ENDS
PUBLIC	?SetNamedEmoticon@ioCharEmoticon@@QAEXABVioHashString@@0K_NK@Z ; ioCharEmoticon::SetNamedEmoticon
; Function compile flags: /Ogsp
;	COMDAT ?SetNamedEmoticon@ioCharEmoticon@@QAEXABVioHashString@@0K_NK@Z
_TEXT	SEGMENT
_szEmoticon$ = 8					; size = 4
_szDescName$ = 12					; size = 4
_dwColor$ = 16						; size = 4
_bOwnerChar$ = 20					; size = 1
_dwDuration$ = 24					; size = 4
?SetNamedEmoticon@ioCharEmoticon@@QAEXABVioHashString@@0K_NK@Z PROC ; ioCharEmoticon::SetNamedEmoticon, COMDAT
; _this$ = ecx

; 600  : {

  00000	55		 push	 ebp
  00001	8b ec		 mov	 ebp, esp
  00003	56		 push	 esi
  00004	8b f1		 mov	 esi, ecx

; 601  : 	if( szEmoticon.IsEmpty() )	return;

  00006	8b 4d 08	 mov	 ecx, DWORD PTR _szEmoticon$[ebp]
  00009	ff 15 00 00 00
	00		 call	 DWORD PTR __imp_?IsEmpty@ioHashString@@QBE_NXZ
  0000f	84 c0		 test	 al, al
  00011	0f 85 dd 00 00
	00		 jne	 $LN9@SetNamedEm

; 602  : 
; 603  : 	ioUIRenderImage *pEmoticon = g_UIImageSetMgr.CreateImageByFullName( szEmoticon );

  00017	57		 push	 edi
  00018	6a 00		 push	 0
  0001a	ff 75 08	 push	 DWORD PTR _szEmoticon$[ebp]
  0001d	ff 15 00 00 00
	00		 call	 DWORD PTR __imp_?GetSingleton@ioUIImageSetManager@@SAAAV1@XZ
  00023	8b c8		 mov	 ecx, eax
  00025	ff 15 00 00 00
	00		 call	 DWORD PTR __imp_?CreateImageByFullName@ioUIImageSetManager@@QAEPAVioUIRenderImage@@ABVioHashString@@_N@Z
  0002b	8b f8		 mov	 edi, eax

; 604  : 	if( !pEmoticon ) return;

  0002d	85 ff		 test	 edi, edi
  0002f	0f 84 be 00 00
	00		 je	 $LN15@SetNamedEm

; 605  : 
; 606  : 	SAFEDELETE( m_pEmoticon );

  00035	8b 0e		 mov	 ecx, DWORD PTR [esi]
  00037	85 c9		 test	 ecx, ecx
  00039	74 0a		 je	 SHORT $LN6@SetNamedEm
  0003b	8b 01		 mov	 eax, DWORD PTR [ecx]
  0003d	6a 01		 push	 1
  0003f	ff 50 40	 call	 DWORD PTR [eax+64]
  00042	83 26 00	 and	 DWORD PTR [esi], 0
$LN6@SetNamedEm:

; 607  : 	SAFEDELETE( m_pEmoticonNum );

  00045	8b 4e 08	 mov	 ecx, DWORD PTR [esi+8]
  00048	85 c9		 test	 ecx, ecx
  0004a	74 0b		 je	 SHORT $LN5@SetNamedEm
  0004c	8b 01		 mov	 eax, DWORD PTR [ecx]
  0004e	6a 01		 push	 1
  00050	ff 50 40	 call	 DWORD PTR [eax+64]
  00053	83 66 08 00	 and	 DWORD PTR [esi+8], 0
$LN5@SetNamedEm:

; 608  : 
; 609  : 	m_pEmoticon = pEmoticon;
; 610  : 
; 611  : 	m_szEmoticonName = szDescName;

  00057	ff 75 0c	 push	 DWORD PTR _szDescName$[ebp]
  0005a	8d 8e 90 00 00
	00		 lea	 ecx, DWORD PTR [esi+144]
  00060	89 3e		 mov	 DWORD PTR [esi], edi
  00062	ff 15 00 00 00
	00		 call	 DWORD PTR __imp_??4ioHashString@@QAEAAV0@ABV0@@Z

; 612  : 	m_dwEmoticonNameColor = dwColor;

  00068	8b 45 10	 mov	 eax, DWORD PTR _dwColor$[ebp]

; 613  : 
; 614  : 	CheckEmoticonBackImage();

  0006b	8b ce		 mov	 ecx, esi
  0006d	89 86 8c 00 00
	00		 mov	 DWORD PTR [esi+140], eax
  00073	e8 00 00 00 00	 call	 ?CheckEmoticonBackImage@ioCharEmoticon@@IAEXXZ ; ioCharEmoticon::CheckEmoticonBackImage

; 615  : 
; 616  : 	m_dwEmoticonStartTime = FRAMEGETTIME();

  00078	ff 15 00 00 00
	00		 call	 DWORD PTR __imp_?GetSingleton@ioFrameTimer@@SAAAV1@XZ
  0007e	8b c8		 mov	 ecx, eax
  00080	ff 15 00 00 00
	00		 call	 DWORD PTR __imp_?GetLoopSec@ioFrameTimer@@QBEKXZ
  00086	89 46 10	 mov	 DWORD PTR [esi+16], eax

; 617  : 	m_bOwnerChar = bOwnerChar;

  00089	8a 45 14	 mov	 al, BYTE PTR _bOwnerChar$[ebp]
  0008c	88 46 70	 mov	 BYTE PTR [esi+112], al

; 618  : 
; 619  : 	m_dwCurEmoticonDuration = m_dwDefaultDuration;

  0008f	8b 0d 00 00 00
	00		 mov	 ecx, DWORD PTR ?m_dwDefaultDuration@ioCharEmoticon@@1KA ; ioCharEmoticon::m_dwDefaultDuration
  00095	89 4e 14	 mov	 DWORD PTR [esi+20], ecx

; 620  : 
; 621  : 	if( m_bOwnerChar )

  00098	84 c0		 test	 al, al
  0009a	74 14		 je	 SHORT $LN4@SetNamedEm

; 622  : 	{
; 623  : 		m_fCurStartScale = m_fOwnerSkillBuffScale;

  0009c	f3 0f 10 05 00
	00 00 00	 movss	 xmm0, DWORD PTR ?m_fOwnerSkillBuffScale@ioCharEmoticon@@1MA
  000a4	f3 0f 11 46 1c	 movss	 DWORD PTR [esi+28], xmm0

; 624  : 		m_dwCurScaleDuration = m_dwOwnerSkillBuffTime;

  000a9	a1 00 00 00 00	 mov	 eax, DWORD PTR ?m_dwOwnerSkillBuffTime@ioCharEmoticon@@1KA ; ioCharEmoticon::m_dwOwnerSkillBuffTime

; 625  : 	}
; 626  : 	else

  000ae	eb 12		 jmp	 SHORT $LN16@SetNamedEm
$LN4@SetNamedEm:

; 627  : 	{
; 628  : 		m_fCurStartScale = m_fOtherSkillBuffScale;

  000b0	f3 0f 10 05 00
	00 00 00	 movss	 xmm0, DWORD PTR ?m_fOtherSkillBuffScale@ioCharEmoticon@@1MA
  000b8	f3 0f 11 46 1c	 movss	 DWORD PTR [esi+28], xmm0

; 629  : 		m_dwCurScaleDuration = m_dwOtherSkillBuffTime;

  000bd	a1 00 00 00 00	 mov	 eax, DWORD PTR ?m_dwOtherSkillBuffTime@ioCharEmoticon@@1KA ; ioCharEmoticon::m_dwOtherSkillBuffTime
$LN16@SetNamedEm:
  000c2	89 46 18	 mov	 DWORD PTR [esi+24], eax

; 630  : 	}
; 631  : 
; 632  : 	//      
; 633  : 	if( dwDuration > 0 )

  000c5	8b 45 18	 mov	 eax, DWORD PTR _dwDuration$[ebp]
  000c8	85 c0		 test	 eax, eax
  000ca	74 03		 je	 SHORT $LN2@SetNamedEm

; 634  : 		m_dwCurEmoticonDuration = dwDuration;

  000cc	89 46 14	 mov	 DWORD PTR [esi+20], eax
$LN2@SetNamedEm:

; 635  : 
; 636  : 	if( m_pEmoticon )

  000cf	8b 0e		 mov	 ecx, DWORD PTR [esi]
  000d1	85 c9		 test	 ecx, ecx
  000d3	74 10		 je	 SHORT $LN1@SetNamedEm

; 637  : 		m_pEmoticon->SetScale( m_fCurStartScale );

  000d5	f3 0f 10 46 1c	 movss	 xmm0, DWORD PTR [esi+28]
  000da	8b 01		 mov	 eax, DWORD PTR [ecx]
  000dc	51		 push	 ecx
  000dd	f3 0f 11 04 24	 movss	 DWORD PTR [esp], xmm0
  000e2	ff 50 1c	 call	 DWORD PTR [eax+28]
$LN1@SetNamedEm:

; 638  : 
; 639  : 	m_State = ES_SCALE;

  000e5	c7 46 68 01 00
	00 00		 mov	 DWORD PTR [esi+104], 1

; 640  : 	m_Type  = EMT_NAMED_ICON;

  000ec	c7 46 6c 09 00
	00 00		 mov	 DWORD PTR [esi+108], 9
$LN15@SetNamedEm:
  000f3	5f		 pop	 edi
$LN9@SetNamedEm:
  000f4	5e		 pop	 esi

; 641  : }

  000f5	5d		 pop	 ebp
  000f6	c2 14 00	 ret	 20			; 00000014H
?SetNamedEmoticon@ioCharEmoticon@@QAEXABVioHashString@@0K_NK@Z ENDP ; ioCharEmoticon::SetNamedEmoticon
_TEXT	ENDS
PUBLIC	??_C@_0P@NCEBKFHD@char_state_cam?$AA@		; `string'
PUBLIC	?Set3DChatEmoticon@ioCharEmoticon@@QAEXABUCHARACTER@@H_N1@Z ; ioCharEmoticon::Set3DChatEmoticon
EXTRN	?SetAvata@io3DCharEmoticon@@QAEXABUCHARACTER@@H_NW4SpecialAtcionType@@@Z:PROC ; io3DCharEmoticon::SetAvata
EXTRN	?Initialize@io3DCharEmoticon@@QAEXABVioHashString@@@Z:PROC ; io3DCharEmoticon::Initialize
EXTRN	__imp_??0ioHashString@@QAE@PBD@Z:PROC
EXTRN	??0io3DCharEmoticon@@QAE@XZ:PROC		; io3DCharEmoticon::io3DCharEmoticon
EXTRN	??2@YAPAXI@Z:PROC				; operator new
;	COMDAT ??_C@_0P@NCEBKFHD@char_state_cam?$AA@
CONST	SEGMENT
??_C@_0P@NCEBKFHD@char_state_cam?$AA@ DB 'char_state_cam', 00H ; `string'
CONST	ENDS
;	COMDAT xdata$x
xdata$x	SEGMENT
__unwindtable$?Set3DChatEmoticon@ioCharEmoticon@@QAEXABUCHARACTER@@H_N1@Z DD 0ffffffffH
	DD	FLAT:__unwindfunclet$?Set3DChatEmoticon@ioCharEmoticon@@QAEXABUCHARACTER@@H_N1@Z$0
	DD	0ffffffffH
	DD	FLAT:__unwindfunclet$?Set3DChatEmoticon@ioCharEmoticon@@QAEXABUCHARACTER@@H_N1@Z$1
__ehfuncinfo$?Set3DChatEmoticon@ioCharEmoticon@@QAEXABUCHARACTER@@H_N1@Z DD 019930522H
	DD	02H
	DD	FLAT:__unwindtable$?Set3DChatEmoticon@ioCharEmoticon@@QAEXABUCHARACTER@@H_N1@Z
	DD	2 DUP(00H)
	DD	2 DUP(00H)
	DD	00H
	DD	01H
; Function compile flags: /Ogsp
xdata$x	ENDS
;	COMDAT ?Set3DChatEmoticon@ioCharEmoticon@@QAEXABUCHARACTER@@H_N1@Z
_TEXT	SEGMENT
$T531073 = -32						; size = 16
$T531070 = -16						; size = 4
__$EHRec$ = -12						; size = 12
_rkInfo$ = 8						; size = 4
_iChatLen$ = 12						; size = 4
_bOwnerChar$ = 16					; size = 1
_bNoSound$ = 20						; size = 1
?Set3DChatEmoticon@ioCharEmoticon@@QAEXABUCHARACTER@@H_N1@Z PROC ; ioCharEmoticon::Set3DChatEmoticon, COMDAT
; _this$ = ecx

; 644  : {

  00000	6a 14		 push	 20			; 00000014H
  00002	b8 00 00 00 00	 mov	 eax, __ehhandler$?Set3DChatEmoticon@ioCharEmoticon@@QAEXABUCHARACTER@@H_N1@Z
  00007	e8 00 00 00 00	 call	 __EH_prolog3
  0000c	8b f1		 mov	 esi, ecx

; 645  : 	SAFEDELETE( m_pEmoticon );

  0000e	8b 0e		 mov	 ecx, DWORD PTR [esi]
  00010	33 ff		 xor	 edi, edi
  00012	3b cf		 cmp	 ecx, edi
  00014	74 09		 je	 SHORT $LN3@Set3DChatE
  00016	8b 01		 mov	 eax, DWORD PTR [ecx]
  00018	6a 01		 push	 1
  0001a	ff 50 40	 call	 DWORD PTR [eax+64]
  0001d	89 3e		 mov	 DWORD PTR [esi], edi
$LN3@Set3DChatE:

; 646  : 	SAFEDELETE( m_pEmoticonNum );

  0001f	8b 4e 08	 mov	 ecx, DWORD PTR [esi+8]
  00022	3b cf		 cmp	 ecx, edi
  00024	74 0a		 je	 SHORT $LN2@Set3DChatE
  00026	8b 01		 mov	 eax, DWORD PTR [ecx]
  00028	6a 01		 push	 1
  0002a	ff 50 40	 call	 DWORD PTR [eax+64]
  0002d	89 7e 08	 mov	 DWORD PTR [esi+8], edi
$LN2@Set3DChatE:

; 647  : 
; 648  : 	if( !m_p3DChatEmoticon )

  00030	39 7e 0c	 cmp	 DWORD PTR [esi+12], edi
  00033	75 52		 jne	 SHORT $LN1@Set3DChatE

; 649  : 	{
; 650  : 		m_p3DChatEmoticon = new io3DCharEmoticon;

  00035	6a 44		 push	 68			; 00000044H
  00037	e8 00 00 00 00	 call	 ??2@YAPAXI@Z		; operator new
  0003c	59		 pop	 ecx
  0003d	8b c8		 mov	 ecx, eax
  0003f	89 4d f0	 mov	 DWORD PTR $T531070[ebp], ecx
  00042	89 7d fc	 mov	 DWORD PTR __$EHRec$[ebp+8], edi
  00045	3b cf		 cmp	 ecx, edi
  00047	74 07		 je	 SHORT $LN10@Set3DChatE
  00049	e8 00 00 00 00	 call	 ??0io3DCharEmoticon@@QAE@XZ ; io3DCharEmoticon::io3DCharEmoticon
  0004e	eb 02		 jmp	 SHORT $LN11@Set3DChatE
$LN10@Set3DChatE:
  00050	33 c0		 xor	 eax, eax
$LN11@Set3DChatE:
  00052	83 4d fc ff	 or	 DWORD PTR __$EHRec$[ebp+8], -1

; 651  : 		m_p3DChatEmoticon->Initialize( "char_state_cam" );

  00056	68 00 00 00 00	 push	 OFFSET ??_C@_0P@NCEBKFHD@char_state_cam?$AA@
  0005b	8d 4d e0	 lea	 ecx, DWORD PTR $T531073[ebp]
  0005e	89 46 0c	 mov	 DWORD PTR [esi+12], eax
  00061	ff 15 00 00 00
	00		 call	 DWORD PTR __imp_??0ioHashString@@QAE@PBD@Z
  00067	8b 4e 0c	 mov	 ecx, DWORD PTR [esi+12]
  0006a	8d 45 e0	 lea	 eax, DWORD PTR $T531073[ebp]
  0006d	50		 push	 eax
  0006e	c7 45 fc 01 00
	00 00		 mov	 DWORD PTR __$EHRec$[ebp+8], 1
  00075	e8 00 00 00 00	 call	 ?Initialize@io3DCharEmoticon@@QAEXABVioHashString@@@Z ; io3DCharEmoticon::Initialize
  0007a	83 4d fc ff	 or	 DWORD PTR __$EHRec$[ebp+8], -1
  0007e	8d 4d e0	 lea	 ecx, DWORD PTR $T531073[ebp]
  00081	ff 15 00 00 00
	00		 call	 DWORD PTR __imp_??1ioHashString@@QAE@XZ
$LN1@Set3DChatE:

; 652  : 	}
; 653  : 
; 654  : 	m_p3DChatEmoticon->SetAvata( rkInfo, iChatLen, bNoSound, SPA_NONE );

  00087	8b 4e 0c	 mov	 ecx, DWORD PTR [esi+12]
  0008a	57		 push	 edi
  0008b	ff 75 14	 push	 DWORD PTR _bNoSound$[ebp]
  0008e	ff 75 0c	 push	 DWORD PTR _iChatLen$[ebp]
  00091	ff 75 08	 push	 DWORD PTR _rkInfo$[ebp]
  00094	e8 00 00 00 00	 call	 ?SetAvata@io3DCharEmoticon@@QAEXABUCHARACTER@@H_NW4SpecialAtcionType@@@Z ; io3DCharEmoticon::SetAvata

; 655  : 
; 656  : 	m_dwEmoticonStartTime = FRAMEGETTIME();

  00099	ff 15 00 00 00
	00		 call	 DWORD PTR __imp_?GetSingleton@ioFrameTimer@@SAAAV1@XZ
  0009f	8b c8		 mov	 ecx, eax
  000a1	ff 15 00 00 00
	00		 call	 DWORD PTR __imp_?GetLoopSec@ioFrameTimer@@QBEKXZ
  000a7	89 46 10	 mov	 DWORD PTR [esi+16], eax

; 657  : 	m_bOwnerChar = bOwnerChar;

  000aa	8a 45 10	 mov	 al, BYTE PTR _bOwnerChar$[ebp]
  000ad	88 46 70	 mov	 BYTE PTR [esi+112], al

; 658  : 
; 659  : 	m_dwCurEmoticonDuration = m_dw3DChatIconDuration;

  000b0	a1 00 00 00 00	 mov	 eax, DWORD PTR ?m_dw3DChatIconDuration@ioCharEmoticon@@1KA ; ioCharEmoticon::m_dw3DChatIconDuration
  000b5	89 46 14	 mov	 DWORD PTR [esi+20], eax

; 660  : 	m_fCurStartScale = m_fEmoticonEndScale;

  000b8	f3 0f 10 05 00
	00 00 00	 movss	 xmm0, DWORD PTR ?m_fEmoticonEndScale@ioCharEmoticon@@1MA

; 661  : 	m_dwCurScaleDuration = 0;
; 662  : 
; 663  : 	m_State = ES_3D_CHAT;

  000c0	6a 06		 push	 6
  000c2	58		 pop	 eax
  000c3	f3 0f 11 46 1c	 movss	 DWORD PTR [esi+28], xmm0
  000c8	89 7e 18	 mov	 DWORD PTR [esi+24], edi
  000cb	89 46 68	 mov	 DWORD PTR [esi+104], eax

; 664  : 	m_Type  = EMT_3D_CHAT_ICON;

  000ce	89 46 6c	 mov	 DWORD PTR [esi+108], eax

; 665  : }

  000d1	e8 00 00 00 00	 call	 __EH_epilog3
  000d6	c2 10 00	 ret	 16			; 00000010H
_TEXT	ENDS
;	COMDAT text$x
text$x	SEGMENT
__unwindfunclet$?Set3DChatEmoticon@ioCharEmoticon@@QAEXABUCHARACTER@@H_N1@Z$0:
  00000	ff 75 f0	 push	 DWORD PTR $T531070[ebp]
  00003	e8 00 00 00 00	 call	 ??3@YAXPAX@Z		; operator delete
  00008	59		 pop	 ecx
  00009	c3		 ret	 0
__unwindfunclet$?Set3DChatEmoticon@ioCharEmoticon@@QAEXABUCHARACTER@@H_N1@Z$1:
  0000a	8d 4d e0	 lea	 ecx, DWORD PTR $T531073[ebp]
  0000d	ff 25 00 00 00
	00		 jmp	 DWORD PTR __imp_??1ioHashString@@QAE@XZ
__ehhandler$?Set3DChatEmoticon@ioCharEmoticon@@QAEXABUCHARACTER@@H_N1@Z:
  00013	8b 54 24 08	 mov	 edx, DWORD PTR [esp+8]
  00017	8d 42 0c	 lea	 eax, DWORD PTR [edx+12]
  0001a	8b 4a dc	 mov	 ecx, DWORD PTR [edx-36]
  0001d	33 c8		 xor	 ecx, eax
  0001f	e8 00 00 00 00	 call	 @__security_check_cookie@4
  00024	b8 00 00 00 00	 mov	 eax, OFFSET __ehfuncinfo$?Set3DChatEmoticon@ioCharEmoticon@@QAEXABUCHARACTER@@H_N1@Z
  00029	e9 00 00 00 00	 jmp	 ___CxxFrameHandler3
text$x	ENDS
?Set3DChatEmoticon@ioCharEmoticon@@QAEXABUCHARACTER@@H_N1@Z ENDP ; ioCharEmoticon::Set3DChatEmoticon
PUBLIC	?EndEmoticonByName@ioCharEmoticon@@QAEXABVioHashString@@@Z ; ioCharEmoticon::EndEmoticonByName
EXTRN	__imp_??9ioHashString@@QBE_NABV0@@Z:PROC
; Function compile flags: /Ogsp
;	COMDAT ?EndEmoticonByName@ioCharEmoticon@@QAEXABVioHashString@@@Z
_TEXT	SEGMENT
_rszDescName$ = 8					; size = 4
?EndEmoticonByName@ioCharEmoticon@@QAEXABVioHashString@@@Z PROC ; ioCharEmoticon::EndEmoticonByName, COMDAT
; _this$ = ecx

; 701  : {

  00000	55		 push	 ebp
  00001	8b ec		 mov	 ebp, esp
  00003	56		 push	 esi
  00004	8b f1		 mov	 esi, ecx

; 702  : 	if( rszDescName.IsEmpty() )

  00006	8b 4d 08	 mov	 ecx, DWORD PTR _rszDescName$[ebp]
  00009	ff 15 00 00 00
	00		 call	 DWORD PTR __imp_?IsEmpty@ioHashString@@QBE_NXZ
  0000f	84 c0		 test	 al, al
  00011	75 2e		 jne	 SHORT $LN3@EndEmotico

; 703  : 		return;
; 704  : 	if( m_szEmoticonName != rszDescName )

  00013	ff 75 08	 push	 DWORD PTR _rszDescName$[ebp]
  00016	8d 8e 90 00 00
	00		 lea	 ecx, DWORD PTR [esi+144]
  0001c	ff 15 00 00 00
	00		 call	 DWORD PTR __imp_??9ioHashString@@QBE_NABV0@@Z
  00022	84 c0		 test	 al, al
  00024	75 1b		 jne	 SHORT $LN3@EndEmotico

; 705  : 		return;
; 706  : 
; 707  : 	m_dwCurEmoticonDuration = FRAMEGETTIME() - m_dwEmoticonStartTime; // Duration  pasttime .

  00026	ff 15 00 00 00
	00		 call	 DWORD PTR __imp_?GetSingleton@ioFrameTimer@@SAAAV1@XZ
  0002c	8b c8		 mov	 ecx, eax
  0002e	ff 15 00 00 00
	00		 call	 DWORD PTR __imp_?GetLoopSec@ioFrameTimer@@QBEKXZ
  00034	2b 46 10	 sub	 eax, DWORD PTR [esi+16]

; 708  : 	m_State = ES_END_WHITE;

  00037	c7 46 68 03 00
	00 00		 mov	 DWORD PTR [esi+104], 3
  0003e	89 46 14	 mov	 DWORD PTR [esi+20], eax
$LN3@EndEmotico:
  00041	5e		 pop	 esi

; 709  : }

  00042	5d		 pop	 ebp
  00043	c2 04 00	 ret	 4
?EndEmoticonByName@ioCharEmoticon@@QAEXABVioHashString@@@Z ENDP ; ioCharEmoticon::EndEmoticonByName
_TEXT	ENDS
PUBLIC	__real@405fc00000000000
PUBLIC	__real@4022000000000000
PUBLIC	__real@4041800000000000
PUBLIC	__real@3fe51eb860000000
PUBLIC	__real@406fe00000000000
PUBLIC	?CheckNamedEmoticon@ioCharEmoticon@@IAEXMM@Z	; ioCharEmoticon::CheckNamedEmoticon
EXTRN	__imp_?SetTextColor@ioFontManager@@QAEXK@Z:PROC
EXTRN	__imp_?PrintTextAlpha@ioFontManager@@QAAXMMMEPBDZZ:PROC
EXTRN	__imp_?SetTextColor@ioFontManager@@QAEXHHH@Z:PROC
EXTRN	__imp_?SetTextStyle@ioFontManager@@QAEXW4TextStyle@@@Z:PROC
EXTRN	__imp_?SetBkColor@ioFontManager@@QAEXHHH@Z:PROC
EXTRN	__imp_?SetAlignType@ioFontManager@@QAEXW4TextAlignType@@@Z:PROC
EXTRN	__imp_?GetSingleton@ioFontManager@@SAAAV1@XZ:PROC
;	COMDAT __real@405fc00000000000
CONST	SEGMENT
__real@405fc00000000000 DQ 0405fc00000000000r	; 127
CONST	ENDS
;	COMDAT __real@4022000000000000
CONST	SEGMENT
__real@4022000000000000 DQ 04022000000000000r	; 9
CONST	ENDS
;	COMDAT __real@4041800000000000
CONST	SEGMENT
__real@4041800000000000 DQ 04041800000000000r	; 35
CONST	ENDS
;	COMDAT __real@3fe51eb860000000
CONST	SEGMENT
__real@3fe51eb860000000 DQ 03fe51eb860000000r	; 0.66
CONST	ENDS
;	COMDAT __real@406fe00000000000
CONST	SEGMENT
__real@406fe00000000000 DQ 0406fe00000000000r	; 255
; Function compile flags: /Ogsp
CONST	ENDS
;	COMDAT ?CheckNamedEmoticon@ioCharEmoticon@@IAEXMM@Z
_TEXT	SEGMENT
_iAlpha2$ = -8						; size = 1
_fOffSet$ = -4						; size = 4
_fAlphaRate$ = 8					; size = 4
_fCurSize$ = 12						; size = 4
_fScale$ = 12						; size = 4
?CheckNamedEmoticon@ioCharEmoticon@@IAEXMM@Z PROC	; ioCharEmoticon::CheckNamedEmoticon, COMDAT
; _this$ = ecx

; 907  : {

  00000	55		 push	 ebp
  00001	8b ec		 mov	 ebp, esp
  00003	51		 push	 ecx
  00004	51		 push	 ecx

; 915  : 	fOffSet -= 9.0f * (fScale / m_fEmoticonEndScale);

  00005	53		 push	 ebx
  00006	56		 push	 esi

; 916  : 
; 917  : 
; 918  : 	g_FontMgr.SetAlignType( (TextAlignType)m_iEmoticonNameAlignType );

  00007	57		 push	 edi
  00008	8b f9		 mov	 edi, ecx

; 908  : 	BYTE iAlpha = (BYTE)(int)(127.0f * fAlphaRate);
; 909  : 	BYTE iAlpha2 = (BYTE)(int)(255.0f * fAlphaRate);

  0000a	f3 0f 10 45 08	 movss	 xmm0, DWORD PTR _fAlphaRate$[ebp]

; 910  : 	float fCurSize = 0.0f;
; 911  : 	float fOffSet = 0.0f;
; 912  : 	
; 913  : 	fCurSize = 0.66f * (fScale / m_fEmoticonEndScale);

  0000f	f3 0f 10 0d 00
	00 00 00	 movss	 xmm1, DWORD PTR ?m_fEmoticonEndScale@ioCharEmoticon@@1MA

; 914  : 	fOffSet -= 35.0f * (fScale / m_fEmoticonEndScale);

  00017	0f 57 d2	 xorps	 xmm2, xmm2
  0001a	0f 5a c0	 cvtps2pd xmm0, xmm0
  0001d	f2 0f 59 05 00
	00 00 00	 mulsd	 xmm0, QWORD PTR __real@406fe00000000000
  00025	0f 5a c9	 cvtps2pd xmm1, xmm1
  00028	f2 0f 2c c0	 cvttsd2si eax, xmm0
  0002c	f3 0f 10 45 0c	 movss	 xmm0, DWORD PTR _fScale$[ebp]
  00031	0f 5a c0	 cvtps2pd xmm0, xmm0
  00034	f2 0f 5e c1	 divsd	 xmm0, xmm1
  00038	66 0f 28 c8	 movapd	 xmm1, xmm0
  0003c	f2 0f 59 0d 00
	00 00 00	 mulsd	 xmm1, QWORD PTR __real@3fe51eb860000000
  00044	66 0f 5a c9	 cvtpd2ps xmm1, xmm1
  00048	f3 0f 11 4d 0c	 movss	 DWORD PTR _fCurSize$[ebp], xmm1
  0004d	66 0f 28 c8	 movapd	 xmm1, xmm0
  00051	f2 0f 59 0d 00
	00 00 00	 mulsd	 xmm1, QWORD PTR __real@4041800000000000

; 915  : 	fOffSet -= 9.0f * (fScale / m_fEmoticonEndScale);

  00059	f2 0f 59 05 00
	00 00 00	 mulsd	 xmm0, QWORD PTR __real@4022000000000000
  00061	f2 0f 5c d1	 subsd	 xmm2, xmm1

; 916  : 
; 917  : 
; 918  : 	g_FontMgr.SetAlignType( (TextAlignType)m_iEmoticonNameAlignType );

  00065	8b 35 00 00 00
	00		 mov	 esi, DWORD PTR __imp_?GetSingleton@ioFontManager@@SAAAV1@XZ
  0006b	0f 57 c9	 xorps	 xmm1, xmm1
  0006e	66 0f 5a ca	 cvtpd2ps xmm1, xmm2
  00072	ff 35 00 00 00
	00		 push	 DWORD PTR ?m_iEmoticonNameAlignType@ioCharEmoticon@@1HA ; ioCharEmoticon::m_iEmoticonNameAlignType
  00078	0f 5a c9	 cvtps2pd xmm1, xmm1
  0007b	f2 0f 5c c8	 subsd	 xmm1, xmm0
  0007f	66 0f 5a c1	 cvtpd2ps xmm0, xmm1
  00083	88 45 f8	 mov	 BYTE PTR _iAlpha2$[ebp], al
  00086	f3 0f 11 45 fc	 movss	 DWORD PTR _fOffSet$[ebp], xmm0
  0008b	ff d6		 call	 esi
  0008d	8b c8		 mov	 ecx, eax
  0008f	ff 15 00 00 00
	00		 call	 DWORD PTR __imp_?SetAlignType@ioFontManager@@QAEXW4TextAlignType@@@Z

; 919  : 	g_FontMgr.SetBkColor( m_iNamedBkColor, m_iNamedBkColor, m_iNamedBkColor );

  00095	8b 87 bc 00 00
	00		 mov	 eax, DWORD PTR [edi+188]
  0009b	50		 push	 eax
  0009c	50		 push	 eax
  0009d	50		 push	 eax
  0009e	ff d6		 call	 esi
  000a0	8b c8		 mov	 ecx, eax
  000a2	ff 15 00 00 00
	00		 call	 DWORD PTR __imp_?SetBkColor@ioFontManager@@QAEXHHH@Z

; 920  : 
; 921  : 	g_FontMgr.SetTextStyle( TS_OUTLINE_FULL_2X );

  000a8	6a 05		 push	 5
  000aa	ff d6		 call	 esi
  000ac	8b 1d 00 00 00
	00		 mov	 ebx, DWORD PTR __imp_?SetTextStyle@ioFontManager@@QAEXW4TextStyle@@@Z
  000b2	8b c8		 mov	 ecx, eax
  000b4	ff d3		 call	 ebx

; 922  : 	g_FontMgr.SetTextColor( 0, 0, 0 );

  000b6	33 c0		 xor	 eax, eax
  000b8	50		 push	 eax
  000b9	50		 push	 eax
  000ba	50		 push	 eax
  000bb	ff d6		 call	 esi
  000bd	8b c8		 mov	 ecx, eax
  000bf	ff 15 00 00 00
	00		 call	 DWORD PTR __imp_?SetTextColor@ioFontManager@@QAEXHHH@Z

; 923  : 
; 924  : 	if( !m_szEmoticonName.IsEmpty() )

  000c5	8d 8f 90 00 00
	00		 lea	 ecx, DWORD PTR [edi+144]
  000cb	ff 15 00 00 00
	00		 call	 DWORD PTR __imp_?IsEmpty@ioHashString@@QBE_NXZ
  000d1	84 c0		 test	 al, al
  000d3	0f 85 89 00 00
	00		 jne	 $LN4@CheckNamed

; 925  : 		g_FontMgr.PrintTextAlpha( m_iRenderXPos + m_iEmoticonNameOffsetX, m_iRenderYPos + fOffSet + m_iEmoticonNameOffsetY, fCurSize, iAlpha, m_szEmoticonName.c_str() );

  000d9	8d 8f 90 00 00
	00		 lea	 ecx, DWORD PTR [edi+144]
  000df	ff 15 00 00 00
	00		 call	 DWORD PTR __imp_?c_str@ioHashString@@QBEPBDXZ
  000e5	f3 0f 10 45 08	 movss	 xmm0, DWORD PTR _fAlphaRate$[ebp]
  000ea	f3 0f 10 4d fc	 movss	 xmm1, DWORD PTR _fOffSet$[ebp]
  000ef	0f 5a c0	 cvtps2pd xmm0, xmm0
  000f2	f2 0f 59 05 00
	00 00 00	 mulsd	 xmm0, QWORD PTR __real@405fc00000000000
  000fa	50		 push	 eax
  000fb	f2 0f 2c c0	 cvttsd2si eax, xmm0
  000ff	f3 0f 10 45 0c	 movss	 xmm0, DWORD PTR _fCurSize$[ebp]
  00104	0f b6 c0	 movzx	 eax, al
  00107	50		 push	 eax
  00108	8b 47 78	 mov	 eax, DWORD PTR [edi+120]
  0010b	03 05 00 00 00
	00		 add	 eax, DWORD PTR ?m_iEmoticonNameOffsetX@ioCharEmoticon@@1HA ; ioCharEmoticon::m_iEmoticonNameOffsetX
  00111	83 ec 0c	 sub	 esp, 12			; 0000000cH
  00114	f3 0f 11 44 24
	08		 movss	 DWORD PTR [esp+8], xmm0
  0011a	66 0f 6e 47 7c	 movd	 xmm0, DWORD PTR [edi+124]
  0011f	0f 5b c0	 cvtdq2ps xmm0, xmm0
  00122	f3 0f 5a c0	 cvtss2sd xmm0, xmm0
  00126	0f 5a c9	 cvtps2pd xmm1, xmm1
  00129	f2 0f 58 c1	 addsd	 xmm0, xmm1
  0012d	66 0f 6e 0d 00
	00 00 00	 movd	 xmm1, DWORD PTR ?m_iEmoticonNameOffsetY@ioCharEmoticon@@1HA ; ioCharEmoticon::m_iEmoticonNameOffsetY
  00135	0f 5b c9	 cvtdq2ps xmm1, xmm1
  00138	f3 0f 5a c9	 cvtss2sd xmm1, xmm1
  0013c	f2 0f 58 c1	 addsd	 xmm0, xmm1
  00140	f2 0f 5a c0	 cvtsd2ss xmm0, xmm0
  00144	f3 0f 11 44 24
	04		 movss	 DWORD PTR [esp+4], xmm0
  0014a	0f 57 c0	 xorps	 xmm0, xmm0
  0014d	f3 0f 2a c0	 cvtsi2ss xmm0, eax
  00151	f3 0f 11 04 24	 movss	 DWORD PTR [esp], xmm0
  00156	ff d6		 call	 esi
  00158	50		 push	 eax
  00159	ff 15 00 00 00
	00		 call	 DWORD PTR __imp_?PrintTextAlpha@ioFontManager@@QAAXMMMEPBDZZ
  0015f	83 c4 18	 add	 esp, 24			; 00000018H
$LN4@CheckNamed:

; 926  : 
; 927  : 	g_FontMgr.SetTextStyle( TS_OUTLINE_FULL );

  00162	6a 04		 push	 4
  00164	ff d6		 call	 esi
  00166	8b c8		 mov	 ecx, eax
  00168	ff d3		 call	 ebx

; 928  : 	if( m_iNamedBkColor > 0 )

  0016a	83 bf bc 00 00
	00 00		 cmp	 DWORD PTR [edi+188], 0
  00171	7e 15		 jle	 SHORT $LN3@CheckNamed

; 929  : 		g_FontMgr.SetTextColor( m_iNamedBkColor, m_iNamedBkColor, m_iNamedBkColor );

  00173	8b 87 bc 00 00
	00		 mov	 eax, DWORD PTR [edi+188]
  00179	50		 push	 eax
  0017a	50		 push	 eax
  0017b	50		 push	 eax
  0017c	ff d6		 call	 esi
  0017e	8b c8		 mov	 ecx, eax
  00180	ff 15 00 00 00
	00		 call	 DWORD PTR __imp_?SetTextColor@ioFontManager@@QAEXHHH@Z

; 930  : 	else

  00186	eb 10		 jmp	 SHORT $LN2@CheckNamed
$LN3@CheckNamed:

; 931  : 		g_FontMgr.SetTextColor( m_dwEmoticonNameColor );

  00188	ff b7 8c 00 00
	00		 push	 DWORD PTR [edi+140]
  0018e	ff d6		 call	 esi
  00190	8b c8		 mov	 ecx, eax
  00192	ff 15 00 00 00
	00		 call	 DWORD PTR __imp_?SetTextColor@ioFontManager@@QAEXK@Z
$LN2@CheckNamed:

; 932  : 
; 933  : 	if( !m_szEmoticonName.IsEmpty() )

  00198	8d 8f 90 00 00
	00		 lea	 ecx, DWORD PTR [edi+144]
  0019e	ff 15 00 00 00
	00		 call	 DWORD PTR __imp_?IsEmpty@ioHashString@@QBE_NXZ
  001a4	84 c0		 test	 al, al
  001a6	75 74		 jne	 SHORT $LN1@CheckNamed

; 934  : 		g_FontMgr.PrintTextAlpha( m_iRenderXPos + m_iEmoticonNameOffsetX, m_iRenderYPos + fOffSet + m_iEmoticonNameOffsetY, fCurSize, iAlpha2, m_szEmoticonName.c_str() );

  001a8	8d 8f 90 00 00
	00		 lea	 ecx, DWORD PTR [edi+144]
  001ae	ff 15 00 00 00
	00		 call	 DWORD PTR __imp_?c_str@ioHashString@@QBEPBDXZ
  001b4	f3 0f 10 45 0c	 movss	 xmm0, DWORD PTR _fCurSize$[ebp]
  001b9	f3 0f 10 4d fc	 movss	 xmm1, DWORD PTR _fOffSet$[ebp]
  001be	50		 push	 eax
  001bf	ff 75 f8	 push	 DWORD PTR _iAlpha2$[ebp]
  001c2	8b 47 78	 mov	 eax, DWORD PTR [edi+120]
  001c5	03 05 00 00 00
	00		 add	 eax, DWORD PTR ?m_iEmoticonNameOffsetX@ioCharEmoticon@@1HA ; ioCharEmoticon::m_iEmoticonNameOffsetX
  001cb	83 ec 0c	 sub	 esp, 12			; 0000000cH
  001ce	f3 0f 11 44 24
	08		 movss	 DWORD PTR [esp+8], xmm0
  001d4	66 0f 6e 47 7c	 movd	 xmm0, DWORD PTR [edi+124]
  001d9	0f 5b c0	 cvtdq2ps xmm0, xmm0
  001dc	f3 0f 5a c0	 cvtss2sd xmm0, xmm0
  001e0	0f 5a c9	 cvtps2pd xmm1, xmm1
  001e3	f2 0f 58 c1	 addsd	 xmm0, xmm1
  001e7	66 0f 6e 0d 00
	00 00 00	 movd	 xmm1, DWORD PTR ?m_iEmoticonNameOffsetY@ioCharEmoticon@@1HA ; ioCharEmoticon::m_iEmoticonNameOffsetY
  001ef	0f 5b c9	 cvtdq2ps xmm1, xmm1
  001f2	f3 0f 5a c9	 cvtss2sd xmm1, xmm1
  001f6	f2 0f 58 c1	 addsd	 xmm0, xmm1
  001fa	f2 0f 5a c0	 cvtsd2ss xmm0, xmm0
  001fe	f3 0f 11 44 24
	04		 movss	 DWORD PTR [esp+4], xmm0
  00204	0f 57 c0	 xorps	 xmm0, xmm0
  00207	f3 0f 2a c0	 cvtsi2ss xmm0, eax
  0020b	f3 0f 11 04 24	 movss	 DWORD PTR [esp], xmm0
  00210	ff d6		 call	 esi
  00212	50		 push	 eax
  00213	ff 15 00 00 00
	00		 call	 DWORD PTR __imp_?PrintTextAlpha@ioFontManager@@QAAXMMMEPBDZZ
  00219	83 c4 18	 add	 esp, 24			; 00000018H
$LN1@CheckNamed:
  0021c	5f		 pop	 edi
  0021d	5e		 pop	 esi
  0021e	5b		 pop	 ebx

; 935  : }

  0021f	c9		 leave
  00220	c2 08 00	 ret	 8
?CheckNamedEmoticon@ioCharEmoticon@@IAEXMM@Z ENDP	; ioCharEmoticon::CheckNamedEmoticon
_TEXT	ENDS
PUBLIC	?CheckNamedUnLimitedEmoticon@ioCharEmoticon@@IAEXMM@Z ; ioCharEmoticon::CheckNamedUnLimitedEmoticon
; Function compile flags: /Ogsp
;	COMDAT ?CheckNamedUnLimitedEmoticon@ioCharEmoticon@@IAEXMM@Z
_TEXT	SEGMENT
_iAlpha2$ = -8						; size = 1
_fOffSet$ = -4						; size = 4
_fAlphaRate$ = 8					; size = 4
_fCurSize$ = 12						; size = 4
_fScale$ = 12						; size = 4
?CheckNamedUnLimitedEmoticon@ioCharEmoticon@@IAEXMM@Z PROC ; ioCharEmoticon::CheckNamedUnLimitedEmoticon, COMDAT
; _this$ = ecx

; 938  : {

  00000	55		 push	 ebp
  00001	8b ec		 mov	 ebp, esp
  00003	51		 push	 ecx
  00004	51		 push	 ecx

; 946  : 	fOffSet -= 9.0f * (fScale / m_fEmoticonEndScale);

  00005	53		 push	 ebx
  00006	56		 push	 esi

; 947  : 
; 948  : 	g_FontMgr.SetAlignType( (TextAlignType)m_iEmoticonNameAlignType );

  00007	57		 push	 edi
  00008	8b f9		 mov	 edi, ecx

; 939  : 	BYTE iAlpha = (BYTE)(int)(127.0f * fAlphaRate);
; 940  : 	BYTE iAlpha2 = (BYTE)(int)(255.0f * fAlphaRate);

  0000a	f3 0f 10 45 08	 movss	 xmm0, DWORD PTR _fAlphaRate$[ebp]

; 941  : 	float fCurSize = 0.0f;
; 942  : 	float fOffSet = 0.0f;
; 943  : 	
; 944  : 	fCurSize = 0.66f * (fScale / m_fEmoticonEndScale);

  0000f	f3 0f 10 0d 00
	00 00 00	 movss	 xmm1, DWORD PTR ?m_fEmoticonEndScale@ioCharEmoticon@@1MA

; 945  : 	fOffSet -= 35.0f * (fScale / m_fEmoticonEndScale);

  00017	0f 57 d2	 xorps	 xmm2, xmm2
  0001a	0f 5a c0	 cvtps2pd xmm0, xmm0
  0001d	f2 0f 59 05 00
	00 00 00	 mulsd	 xmm0, QWORD PTR __real@406fe00000000000
  00025	0f 5a c9	 cvtps2pd xmm1, xmm1
  00028	f2 0f 2c c0	 cvttsd2si eax, xmm0
  0002c	f3 0f 10 45 0c	 movss	 xmm0, DWORD PTR _fScale$[ebp]
  00031	0f 5a c0	 cvtps2pd xmm0, xmm0
  00034	f2 0f 5e c1	 divsd	 xmm0, xmm1
  00038	66 0f 28 c8	 movapd	 xmm1, xmm0
  0003c	f2 0f 59 0d 00
	00 00 00	 mulsd	 xmm1, QWORD PTR __real@3fe51eb860000000
  00044	66 0f 5a c9	 cvtpd2ps xmm1, xmm1
  00048	f3 0f 11 4d 0c	 movss	 DWORD PTR _fCurSize$[ebp], xmm1
  0004d	66 0f 28 c8	 movapd	 xmm1, xmm0
  00051	f2 0f 59 0d 00
	00 00 00	 mulsd	 xmm1, QWORD PTR __real@4041800000000000

; 946  : 	fOffSet -= 9.0f * (fScale / m_fEmoticonEndScale);

  00059	f2 0f 59 05 00
	00 00 00	 mulsd	 xmm0, QWORD PTR __real@4022000000000000
  00061	f2 0f 5c d1	 subsd	 xmm2, xmm1

; 947  : 
; 948  : 	g_FontMgr.SetAlignType( (TextAlignType)m_iEmoticonNameAlignType );

  00065	8b 35 00 00 00
	00		 mov	 esi, DWORD PTR __imp_?GetSingleton@ioFontManager@@SAAAV1@XZ
  0006b	0f 57 c9	 xorps	 xmm1, xmm1
  0006e	66 0f 5a ca	 cvtpd2ps xmm1, xmm2
  00072	ff 35 00 00 00
	00		 push	 DWORD PTR ?m_iEmoticonNameAlignType@ioCharEmoticon@@1HA ; ioCharEmoticon::m_iEmoticonNameAlignType
  00078	0f 5a c9	 cvtps2pd xmm1, xmm1
  0007b	f2 0f 5c c8	 subsd	 xmm1, xmm0
  0007f	66 0f 5a c1	 cvtpd2ps xmm0, xmm1
  00083	88 45 f8	 mov	 BYTE PTR _iAlpha2$[ebp], al
  00086	f3 0f 11 45 fc	 movss	 DWORD PTR _fOffSet$[ebp], xmm0
  0008b	ff d6		 call	 esi
  0008d	8b c8		 mov	 ecx, eax
  0008f	ff 15 00 00 00
	00		 call	 DWORD PTR __imp_?SetAlignType@ioFontManager@@QAEXW4TextAlignType@@@Z

; 949  : 	g_FontMgr.SetBkColor( m_iNamedBkColor, m_iNamedBkColor, m_iNamedBkColor );

  00095	8b 87 bc 00 00
	00		 mov	 eax, DWORD PTR [edi+188]
  0009b	50		 push	 eax
  0009c	50		 push	 eax
  0009d	50		 push	 eax
  0009e	ff d6		 call	 esi
  000a0	8b c8		 mov	 ecx, eax
  000a2	ff 15 00 00 00
	00		 call	 DWORD PTR __imp_?SetBkColor@ioFontManager@@QAEXHHH@Z

; 950  : 
; 951  : 	g_FontMgr.SetTextStyle( TS_OUTLINE_FULL_2X );

  000a8	6a 05		 push	 5
  000aa	ff d6		 call	 esi
  000ac	8b 1d 00 00 00
	00		 mov	 ebx, DWORD PTR __imp_?SetTextStyle@ioFontManager@@QAEXW4TextStyle@@@Z
  000b2	8b c8		 mov	 ecx, eax
  000b4	ff d3		 call	 ebx

; 952  : 	g_FontMgr.SetTextColor( 0, 0, 0 );

  000b6	33 c0		 xor	 eax, eax
  000b8	50		 push	 eax
  000b9	50		 push	 eax
  000ba	50		 push	 eax
  000bb	ff d6		 call	 esi
  000bd	8b c8		 mov	 ecx, eax
  000bf	ff 15 00 00 00
	00		 call	 DWORD PTR __imp_?SetTextColor@ioFontManager@@QAEXHHH@Z

; 953  : 
; 954  : 	if( !m_szUnLimitedEmoticonName.IsEmpty() )

  000c5	8d 8f a4 00 00
	00		 lea	 ecx, DWORD PTR [edi+164]
  000cb	ff 15 00 00 00
	00		 call	 DWORD PTR __imp_?IsEmpty@ioHashString@@QBE_NXZ
  000d1	84 c0		 test	 al, al
  000d3	0f 85 89 00 00
	00		 jne	 $LN2@CheckNamed@2

; 955  : 		g_FontMgr.PrintTextAlpha( m_iRenderXPos + m_iEmoticonNameOffsetX, m_iRenderYPos + fOffSet + m_iEmoticonNameOffsetY, fCurSize, iAlpha, m_szUnLimitedEmoticonName.c_str() );

  000d9	8d 8f a4 00 00
	00		 lea	 ecx, DWORD PTR [edi+164]
  000df	ff 15 00 00 00
	00		 call	 DWORD PTR __imp_?c_str@ioHashString@@QBEPBDXZ
  000e5	f3 0f 10 45 08	 movss	 xmm0, DWORD PTR _fAlphaRate$[ebp]
  000ea	f3 0f 10 4d fc	 movss	 xmm1, DWORD PTR _fOffSet$[ebp]
  000ef	0f 5a c0	 cvtps2pd xmm0, xmm0
  000f2	f2 0f 59 05 00
	00 00 00	 mulsd	 xmm0, QWORD PTR __real@405fc00000000000
  000fa	50		 push	 eax
  000fb	f2 0f 2c c0	 cvttsd2si eax, xmm0
  000ff	f3 0f 10 45 0c	 movss	 xmm0, DWORD PTR _fCurSize$[ebp]
  00104	0f b6 c0	 movzx	 eax, al
  00107	50		 push	 eax
  00108	8b 47 78	 mov	 eax, DWORD PTR [edi+120]
  0010b	03 05 00 00 00
	00		 add	 eax, DWORD PTR ?m_iEmoticonNameOffsetX@ioCharEmoticon@@1HA ; ioCharEmoticon::m_iEmoticonNameOffsetX
  00111	83 ec 0c	 sub	 esp, 12			; 0000000cH
  00114	f3 0f 11 44 24
	08		 movss	 DWORD PTR [esp+8], xmm0
  0011a	66 0f 6e 47 7c	 movd	 xmm0, DWORD PTR [edi+124]
  0011f	0f 5b c0	 cvtdq2ps xmm0, xmm0
  00122	f3 0f 5a c0	 cvtss2sd xmm0, xmm0
  00126	0f 5a c9	 cvtps2pd xmm1, xmm1
  00129	f2 0f 58 c1	 addsd	 xmm0, xmm1
  0012d	66 0f 6e 0d 00
	00 00 00	 movd	 xmm1, DWORD PTR ?m_iEmoticonNameOffsetY@ioCharEmoticon@@1HA ; ioCharEmoticon::m_iEmoticonNameOffsetY
  00135	0f 5b c9	 cvtdq2ps xmm1, xmm1
  00138	f3 0f 5a c9	 cvtss2sd xmm1, xmm1
  0013c	f2 0f 58 c1	 addsd	 xmm0, xmm1
  00140	f2 0f 5a c0	 cvtsd2ss xmm0, xmm0
  00144	f3 0f 11 44 24
	04		 movss	 DWORD PTR [esp+4], xmm0
  0014a	0f 57 c0	 xorps	 xmm0, xmm0
  0014d	f3 0f 2a c0	 cvtsi2ss xmm0, eax
  00151	f3 0f 11 04 24	 movss	 DWORD PTR [esp], xmm0
  00156	ff d6		 call	 esi
  00158	50		 push	 eax
  00159	ff 15 00 00 00
	00		 call	 DWORD PTR __imp_?PrintTextAlpha@ioFontManager@@QAAXMMMEPBDZZ
  0015f	83 c4 18	 add	 esp, 24			; 00000018H
$LN2@CheckNamed@2:

; 956  : 
; 957  : 	g_FontMgr.SetTextStyle( TS_OUTLINE_FULL );

  00162	6a 04		 push	 4
  00164	ff d6		 call	 esi
  00166	8b c8		 mov	 ecx, eax
  00168	ff d3		 call	 ebx

; 958  : 	g_FontMgr.SetTextColor( m_dwUnLimitedEmoticonNameColor );

  0016a	ff b7 a0 00 00
	00		 push	 DWORD PTR [edi+160]
  00170	ff d6		 call	 esi
  00172	8b c8		 mov	 ecx, eax
  00174	ff 15 00 00 00
	00		 call	 DWORD PTR __imp_?SetTextColor@ioFontManager@@QAEXK@Z

; 959  : 
; 960  : 	if( !m_szUnLimitedEmoticonName.IsEmpty() )

  0017a	8d 8f a4 00 00
	00		 lea	 ecx, DWORD PTR [edi+164]
  00180	ff 15 00 00 00
	00		 call	 DWORD PTR __imp_?IsEmpty@ioHashString@@QBE_NXZ
  00186	84 c0		 test	 al, al
  00188	75 74		 jne	 SHORT $LN1@CheckNamed@2

; 961  : 		g_FontMgr.PrintTextAlpha( m_iRenderXPos + m_iEmoticonNameOffsetX, m_iRenderYPos + fOffSet + m_iEmoticonNameOffsetY, fCurSize, iAlpha2, m_szUnLimitedEmoticonName.c_str() );

  0018a	8d 8f a4 00 00
	00		 lea	 ecx, DWORD PTR [edi+164]
  00190	ff 15 00 00 00
	00		 call	 DWORD PTR __imp_?c_str@ioHashString@@QBEPBDXZ
  00196	f3 0f 10 45 0c	 movss	 xmm0, DWORD PTR _fCurSize$[ebp]
  0019b	f3 0f 10 4d fc	 movss	 xmm1, DWORD PTR _fOffSet$[ebp]
  001a0	50		 push	 eax
  001a1	ff 75 f8	 push	 DWORD PTR _iAlpha2$[ebp]
  001a4	8b 47 78	 mov	 eax, DWORD PTR [edi+120]
  001a7	03 05 00 00 00
	00		 add	 eax, DWORD PTR ?m_iEmoticonNameOffsetX@ioCharEmoticon@@1HA ; ioCharEmoticon::m_iEmoticonNameOffsetX
  001ad	83 ec 0c	 sub	 esp, 12			; 0000000cH
  001b0	f3 0f 11 44 24
	08		 movss	 DWORD PTR [esp+8], xmm0
  001b6	66 0f 6e 47 7c	 movd	 xmm0, DWORD PTR [edi+124]
  001bb	0f 5b c0	 cvtdq2ps xmm0, xmm0
  001be	f3 0f 5a c0	 cvtss2sd xmm0, xmm0
  001c2	0f 5a c9	 cvtps2pd xmm1, xmm1
  001c5	f2 0f 58 c1	 addsd	 xmm0, xmm1
  001c9	66 0f 6e 0d 00
	00 00 00	 movd	 xmm1, DWORD PTR ?m_iEmoticonNameOffsetY@ioCharEmoticon@@1HA ; ioCharEmoticon::m_iEmoticonNameOffsetY
  001d1	0f 5b c9	 cvtdq2ps xmm1, xmm1
  001d4	f3 0f 5a c9	 cvtss2sd xmm1, xmm1
  001d8	f2 0f 58 c1	 addsd	 xmm0, xmm1
  001dc	f2 0f 5a c0	 cvtsd2ss xmm0, xmm0
  001e0	f3 0f 11 44 24
	04		 movss	 DWORD PTR [esp+4], xmm0
  001e6	0f 57 c0	 xorps	 xmm0, xmm0
  001e9	f3 0f 2a c0	 cvtsi2ss xmm0, eax
  001ed	f3 0f 11 04 24	 movss	 DWORD PTR [esp], xmm0
  001f2	ff d6		 call	 esi
  001f4	50		 push	 eax
  001f5	ff 15 00 00 00
	00		 call	 DWORD PTR __imp_?PrintTextAlpha@ioFontManager@@QAAXMMMEPBDZZ
  001fb	83 c4 18	 add	 esp, 24			; 00000018H
$LN1@CheckNamed@2:
  001fe	5f		 pop	 edi
  001ff	5e		 pop	 esi
  00200	5b		 pop	 ebx

; 962  : }

  00201	c9		 leave
  00202	c2 08 00	 ret	 8
?CheckNamedUnLimitedEmoticon@ioCharEmoticon@@IAEXMM@Z ENDP ; ioCharEmoticon::CheckNamedUnLimitedEmoticon
_TEXT	ENDS
PUBLIC	?GetEmoticonRenderRect@ioCharEmoticon@@QBE?AUtagRECT@@XZ ; ioCharEmoticon::GetEmoticonRenderRect
EXTRN	__imp_?GetOffsetY@ioUIRenderImage@@QBEHXZ:PROC
EXTRN	__imp_?GetOffsetX@ioUIRenderImage@@QBEHXZ:PROC
EXTRN	__imp_?GetSize@ioUIRenderElement@@QBE?AUD3DXVECTOR2@@XZ:PROC
EXTRN	__imp__SetRect@20:PROC
; Function compile flags: /Ogsp
;	COMDAT ?GetEmoticonRenderRect@ioCharEmoticon@@QBE?AUtagRECT@@XZ
_TEXT	SEGMENT
_vSize$ = -8						; size = 8
___$ReturnUdt$ = 8					; size = 4
?GetEmoticonRenderRect@ioCharEmoticon@@QBE?AUtagRECT@@XZ PROC ; ioCharEmoticon::GetEmoticonRenderRect, COMDAT
; _this$ = ecx

; 1099 : {

  00000	55		 push	 ebp
  00001	8b ec		 mov	 ebp, esp
  00003	51		 push	 ecx
  00004	51		 push	 ecx
  00005	56		 push	 esi
  00006	8b f1		 mov	 esi, ecx

; 1100 : 	RECT rcRect;
; 1101 : 	
; 1102 : 	if( !m_pEmoticon )

  00008	8b 0e		 mov	 ecx, DWORD PTR [esi]
  0000a	85 c9		 test	 ecx, ecx
  0000c	75 24		 jne	 SHORT $LN1@GetEmotico

; 1103 : 	{
; 1104 : 		SetRect( &rcRect, m_iRenderXPos - 20,
; 1105 : 						  m_iRenderYPos - 20,
; 1106 : 						  m_iRenderXPos + 20,
; 1107 : 						  m_iRenderYPos + 20 );

  0000e	8b 46 7c	 mov	 eax, DWORD PTR [esi+124]
  00011	8b 76 78	 mov	 esi, DWORD PTR [esi+120]
  00014	8d 48 14	 lea	 ecx, DWORD PTR [eax+20]
  00017	51		 push	 ecx
  00018	8d 4e 14	 lea	 ecx, DWORD PTR [esi+20]
  0001b	51		 push	 ecx
  0001c	83 c0 ec	 add	 eax, -20		; ffffffecH
  0001f	50		 push	 eax
  00020	83 c6 ec	 add	 esi, -20		; ffffffecH
  00023	56		 push	 esi
  00024	ff 75 08	 push	 DWORD PTR ___$ReturnUdt$[ebp]
  00027	ff 15 00 00 00
	00		 call	 DWORD PTR __imp__SetRect@20

; 1108 : 
; 1109 : 		return rcRect;

  0002d	8b 45 08	 mov	 eax, DWORD PTR ___$ReturnUdt$[ebp]
  00030	eb 44		 jmp	 SHORT $LN2@GetEmotico
$LN1@GetEmotico:
  00032	57		 push	 edi

; 1110 : 	}
; 1111 : 
; 1112 : 	D3DXVECTOR2 vSize = m_pEmoticon->GetSize();

  00033	8d 45 f8	 lea	 eax, DWORD PTR _vSize$[ebp]
  00036	50		 push	 eax
  00037	ff 15 00 00 00
	00		 call	 DWORD PTR __imp_?GetSize@ioUIRenderElement@@QBE?AUD3DXVECTOR2@@XZ

; 1113 : 	rcRect.left = m_iRenderXPos - (int)m_pEmoticon->GetOffsetX();

  0003d	8b 0e		 mov	 ecx, DWORD PTR [esi]
  0003f	ff 15 00 00 00
	00		 call	 DWORD PTR __imp_?GetOffsetX@ioUIRenderImage@@QBEHXZ
  00045	8b 4e 78	 mov	 ecx, DWORD PTR [esi+120]
  00048	8b 7d 08	 mov	 edi, DWORD PTR ___$ReturnUdt$[ebp]
  0004b	2b c8		 sub	 ecx, eax
  0004d	89 0f		 mov	 DWORD PTR [edi], ecx

; 1114 : 	rcRect.top  = m_iRenderYPos - (int)m_pEmoticon->GetOffsetY();

  0004f	8b 0e		 mov	 ecx, DWORD PTR [esi]
  00051	ff 15 00 00 00
	00		 call	 DWORD PTR __imp_?GetOffsetY@ioUIRenderImage@@QBEHXZ
  00057	8b 4e 7c	 mov	 ecx, DWORD PTR [esi+124]
  0005a	2b c8		 sub	 ecx, eax

; 1115 : 	rcRect.right = rcRect.left + (int)vSize.x;

  0005c	f3 0f 2c 45 f8	 cvttss2si eax, DWORD PTR _vSize$[ebp]
  00061	03 07		 add	 eax, DWORD PTR [edi]
  00063	89 4f 04	 mov	 DWORD PTR [edi+4], ecx
  00066	89 47 08	 mov	 DWORD PTR [edi+8], eax

; 1116 : 	rcRect.bottom = rcRect.top + (int)vSize.y;

  00069	f3 0f 2c 45 fc	 cvttss2si eax, DWORD PTR _vSize$[ebp+4]
  0006e	03 c1		 add	 eax, ecx
  00070	89 47 0c	 mov	 DWORD PTR [edi+12], eax

; 1117 : 
; 1118 : 	return rcRect;

  00073	8b c7		 mov	 eax, edi
  00075	5f		 pop	 edi
$LN2@GetEmotico:
  00076	5e		 pop	 esi

; 1119 : }

  00077	c9		 leave
  00078	c2 04 00	 ret	 4
?GetEmoticonRenderRect@ioCharEmoticon@@QBE?AUtagRECT@@XZ ENDP ; ioCharEmoticon::GetEmoticonRenderRect
_TEXT	ENDS
PUBLIC	__mask@@AbsDouble@
PUBLIC	__real@00000000
PUBLIC	__mask@@NegFloat@
PUBLIC	__real@3f800000
PUBLIC	__real@42080000
PUBLIC	__real@42000000
PUBLIC	_iYPos$GSCopy$
PUBLIC	_vPos$GSCopy$
PUBLIC	_iXPos$GSCopy$
PUBLIC	__$ArrayPad$
PUBLIC	?CheckOutScreen@ioCharEmoticon@@IAEXABUD3DXVECTOR3@@0AAH1M_N@Z ; ioCharEmoticon::CheckOutScreen
EXTRN	?Convert3DTo2D@Setting@@SA?AUD3DXVECTOR3@@ABU2@@Z:PROC ; Setting::Convert3DTo2D
EXTRN	?Height@Setting@@SAHXZ:PROC			; Setting::Height
EXTRN	?Width@Setting@@SAHXZ:PROC			; Setting::Width
EXTRN	___security_cookie:DWORD
;	COMDAT __mask@@AbsDouble@
; File c:\program files (x86)\microsoft visual studio 10.0\vc\include\math.h
CONST	SEGMENT
__mask@@AbsDouble@ DB 0ffH, 0ffH, 0ffH, 0ffH, 0ffH, 0ffH, 0ffH, 07fH, 0ffH
	DB	0ffH, 0ffH, 0ffH, 0ffH, 0ffH, 0ffH, 07fH
CONST	ENDS
;	COMDAT __real@00000000
CONST	SEGMENT
__real@00000000 DD 000000000r			; 0
CONST	ENDS
;	COMDAT __mask@@NegFloat@
CONST	SEGMENT
__mask@@NegFloat@ DB 00H, 00H, 00H, 080H, 00H, 00H, 00H, 080H, 00H, 00H, 00H
	DB	080H, 00H, 00H, 00H, 080H
CONST	ENDS
;	COMDAT __real@3f800000
CONST	SEGMENT
__real@3f800000 DD 03f800000r			; 1
CONST	ENDS
;	COMDAT __real@42080000
CONST	SEGMENT
__real@42080000 DD 042080000r			; 34
CONST	ENDS
;	COMDAT __real@42000000
CONST	SEGMENT
__real@42000000 DD 042000000r			; 32
; Function compile flags: /Ogsp
; File d:\lost saga for developer\youtube\tutorial\source\src\lsclient\iocharemoticon.cpp
CONST	ENDS
;	COMDAT ?CheckOutScreen@ioCharEmoticon@@IAEXABUD3DXVECTOR3@@0AAH1M_N@Z
_TEXT	SEGMENT
tv554 = -68						; size = 8
tv543 = -68						; size = 8
tv552 = -60						; size = 8
tv548 = -60						; size = 8
tv545 = -60						; size = 8
tv559 = -52						; size = 8
tv550 = -52						; size = 8
tv567 = -48						; size = 4
_vPos$GSCopy$ = -48					; size = 4
tv540 = -44						; size = 8
tv583 = -40						; size = 4
_iCurYPos$ = -40					; size = 4
_iEmoticonWidth$ = -36					; size = 4
_iEmoticonHeight$ = -32					; size = 4
_iXPos$GSCopy$ = -28					; size = 4
_iYPos$GSCopy$ = -24					; size = 4
_bRePosition$ = -18					; size = 1
_bAxisX$ = -17						; size = 1
_v2DPos$525780 = -16					; size = 12
__$ArrayPad$ = -4					; size = 4
_vPos$ = 8						; size = 4
_vCamTargetPos$ = 12					; size = 4
_iXPos$ = 16						; size = 4
_iYPos$ = 20						; size = 4
_fScale$ = 24						; size = 4
_bVisible$ = 28						; size = 1
?CheckOutScreen@ioCharEmoticon@@IAEXABUD3DXVECTOR3@@0AAH1M_N@Z PROC ; ioCharEmoticon::CheckOutScreen, COMDAT
; _this$ = ecx

; 1127 : {

  00000	55		 push	 ebp
  00001	8b ec		 mov	 ebp, esp
  00003	83 ec 44	 sub	 esp, 68			; 00000044H
  00006	a1 00 00 00 00	 mov	 eax, DWORD PTR ___security_cookie
  0000b	33 c5		 xor	 eax, ebp
  0000d	89 45 fc	 mov	 DWORD PTR __$ArrayPad$[ebp], eax
  00010	8b 45 10	 mov	 eax, DWORD PTR _iXPos$[ebp]
  00013	53		 push	 ebx
  00014	8b 5d 08	 mov	 ebx, DWORD PTR _vPos$[ebp]

; 1128 : 	int iCenterX = Setting::Width() / 2;
; 1129 : 	int iCenterY = Setting::Height() / 2;
; 1130 : 
; 1131 : 	int iEmoticonWidth = 65;
; 1132 : 	int iEmoticonHeight = 68;
; 1133 : 
; 1134 : 	int iCurXPos, iCurYPos;
; 1135 : 	iCurXPos = iXPos;
; 1136 : 	iCurYPos = iYPos;
; 1137 : 
; 1138 : 	iEmoticonWidth /= 2;
; 1139 : 	iEmoticonHeight /= 2;
; 1140 : 	iEmoticonWidth *= fScale;

  00017	89 45 e4	 mov	 DWORD PTR _iXPos$GSCopy$[ebp], eax
  0001a	8b 45 14	 mov	 eax, DWORD PTR _iYPos$[ebp]
  0001d	56		 push	 esi
  0001e	57		 push	 edi
  0001f	89 5d d0	 mov	 DWORD PTR _vPos$GSCopy$[ebp], ebx
  00022	89 45 e8	 mov	 DWORD PTR _iYPos$GSCopy$[ebp], eax
  00025	e8 00 00 00 00	 call	 ?Width@Setting@@SAHXZ	; Setting::Width
  0002a	99		 cdq
  0002b	2b c2		 sub	 eax, edx
  0002d	8b f0		 mov	 esi, eax
  0002f	d1 fe		 sar	 esi, 1
  00031	e8 00 00 00 00	 call	 ?Height@Setting@@SAHXZ	; Setting::Height
  00036	f3 0f 10 45 18	 movss	 xmm0, DWORD PTR _fScale$[ebp]
  0003b	99		 cdq
  0003c	2b c2		 sub	 eax, edx

; 1141 : 	iEmoticonHeight *= fScale;
; 1142 : 
; 1143 : 	int iXGap = (int)(vCamTargetPos.x - vPos.x);
; 1144 : 	int iZGap = (int)(vPos.z - vCamTargetPos.z);
; 1145 : 
; 1146 : 	iCurXPos = iCenterX - iXGap;
; 1147 : 	iCurYPos = iCenterY - iZGap;
; 1148 : 
; 1149 : 	iXPos = iCurXPos;
; 1150 : 	iYPos = iCurYPos;

  0003e	8b 55 e8	 mov	 edx, DWORD PTR _iYPos$GSCopy$[ebp]
  00041	0f 28 c8	 movaps	 xmm1, xmm0
  00044	f3 0f 59 0d 00
	00 00 00	 mulss	 xmm1, DWORD PTR __real@42000000
  0004c	f3 0f 59 05 00
	00 00 00	 mulss	 xmm0, DWORD PTR __real@42080000
  00054	8b f8		 mov	 edi, eax
  00056	f3 0f 2c c1	 cvttss2si eax, xmm1
  0005a	f3 0f 10 0b	 movss	 xmm1, DWORD PTR [ebx]
  0005e	89 45 dc	 mov	 DWORD PTR _iEmoticonWidth$[ebp], eax
  00061	f3 0f 2c c0	 cvttss2si eax, xmm0
  00065	89 45 e0	 mov	 DWORD PTR _iEmoticonHeight$[ebp], eax
  00068	8b 45 0c	 mov	 eax, DWORD PTR _vCamTargetPos$[ebp]
  0006b	f3 0f 10 00	 movss	 xmm0, DWORD PTR [eax]
  0006f	0f 5a c0	 cvtps2pd xmm0, xmm0
  00072	0f 5a c9	 cvtps2pd xmm1, xmm1
  00075	f2 0f 5c c1	 subsd	 xmm0, xmm1
  00079	f3 0f 10 48 08	 movss	 xmm1, DWORD PTR [eax+8]
  0007e	f2 0f 2c c8	 cvttsd2si ecx, xmm0
  00082	8b de		 mov	 ebx, esi
  00084	2b d9		 sub	 ebx, ecx
  00086	8b 4d d0	 mov	 ecx, DWORD PTR _vPos$GSCopy$[ebp]
  00089	f3 0f 10 41 08	 movss	 xmm0, DWORD PTR [ecx+8]
  0008e	d1 ff		 sar	 edi, 1
  00090	0f 5a c0	 cvtps2pd xmm0, xmm0
  00093	0f 5a c9	 cvtps2pd xmm1, xmm1
  00096	f2 0f 5c c1	 subsd	 xmm0, xmm1
  0009a	f2 0f 2c c8	 cvttsd2si ecx, xmm0
  0009e	8b c7		 mov	 eax, edi
  000a0	2b c1		 sub	 eax, ecx

; 1151 : 
; 1152 : 	bool bAxisX = false;
; 1153 : 	if( !bVisible )

  000a2	80 7d 1c 00	 cmp	 BYTE PTR _bVisible$[ebp], 0
  000a6	8b 4d e4	 mov	 ecx, DWORD PTR _iXPos$GSCopy$[ebp]
  000a9	89 19		 mov	 DWORD PTR [ecx], ebx
  000ab	89 45 d8	 mov	 DWORD PTR _iCurYPos$[ebp], eax
  000ae	89 02		 mov	 DWORD PTR [edx], eax
  000b0	c6 45 ef 00	 mov	 BYTE PTR _bAxisX$[ebp], 0
  000b4	0f 85 07 02 00
	00		 jne	 $LN26@CheckOutSc

; 1154 : 	{
; 1155 : 		D3DXVECTOR3 v2DPos = Setting::Convert3DTo2D( vPos );

  000ba	ff 75 d0	 push	 DWORD PTR _vPos$GSCopy$[ebp]
  000bd	8d 45 f0	 lea	 eax, DWORD PTR _v2DPos$525780[ebp]
  000c0	50		 push	 eax
  000c1	e8 00 00 00 00	 call	 ?Convert3DTo2D@Setting@@SA?AUD3DXVECTOR3@@ABU2@@Z ; Setting::Convert3DTo2D

; 1156 : 		if( v2DPos.z > 1 )

  000c6	f3 0f 10 45 f8	 movss	 xmm0, DWORD PTR _v2DPos$525780[ebp+8]
  000cb	0f 2f 05 00 00
	00 00		 comiss	 xmm0, DWORD PTR __real@3f800000
  000d2	59		 pop	 ecx
  000d3	59		 pop	 ecx
  000d4	0f 86 d0 00 00
	00		 jbe	 $LN52@CheckOutSc

; 1157 : 		{
; 1158 : 			v2DPos.x = -v2DPos.x;
; 1159 : 			v2DPos.y = fabs( v2DPos.y );

  000da	f3 0f 10 4d f4	 movss	 xmm1, DWORD PTR _v2DPos$525780[ebp+4]
  000df	f3 0f 10 45 f0	 movss	 xmm0, DWORD PTR _v2DPos$525780[ebp]
  000e4	0f 57 05 00 00
	00 00		 xorps	 xmm0, DWORD PTR __mask@@NegFloat@

; 1160 : 
; 1161 : 			if( COMPARE( v2DPos.x, 0.0f, Setting::Width() ) )

  000eb	0f 2f 05 00 00
	00 00		 comiss	 xmm0, DWORD PTR __real@00000000
  000f2	f2 0f 10 15 00
	00 00 00	 movsd	 xmm2, QWORD PTR __mask@@AbsDouble@
  000fa	0f 5a c9	 cvtps2pd xmm1, xmm1
  000fd	66 0f 54 ca	 andpd	 xmm1, xmm2
  00101	f2 0f 5a c9	 cvtsd2ss xmm1, xmm1
  00105	f3 0f 11 45 f0	 movss	 DWORD PTR _v2DPos$525780[ebp], xmm0
  0010a	f3 0f 11 4d f4	 movss	 DWORD PTR _v2DPos$525780[ebp+4], xmm1
  0010f	72 49		 jb	 SHORT $LN24@CheckOutSc
  00111	0f 5a c0	 cvtps2pd xmm0, xmm0
  00114	f2 0f 11 45 cc	 movsd	 QWORD PTR tv550[ebp], xmm0
  00119	e8 00 00 00 00	 call	 ?Width@Setting@@SAHXZ	; Setting::Width
  0011e	0f 57 c0	 xorps	 xmm0, xmm0
  00121	f3 0f 2a c0	 cvtsi2ss xmm0, eax
  00125	0f 5a c0	 cvtps2pd xmm0, xmm0
  00128	66 0f 2f 45 cc	 comisd	 xmm0, QWORD PTR tv550[ebp]
  0012d	76 26		 jbe	 SHORT $LN50@CheckOutSc

; 1162 : 				v2DPos.x += Setting::Width();

  0012f	e8 00 00 00 00	 call	 ?Width@Setting@@SAHXZ	; Setting::Width
  00134	f3 0f 10 4d f0	 movss	 xmm1, DWORD PTR _v2DPos$525780[ebp]
  00139	0f 57 c0	 xorps	 xmm0, xmm0
  0013c	f3 0f 2a c0	 cvtsi2ss xmm0, eax
  00140	0f 5a c0	 cvtps2pd xmm0, xmm0
  00143	0f 5a c9	 cvtps2pd xmm1, xmm1
  00146	f2 0f 58 c1	 addsd	 xmm0, xmm1
  0014a	66 0f 5a c0	 cvtpd2ps xmm0, xmm0
  0014e	f3 0f 11 45 f0	 movss	 DWORD PTR _v2DPos$525780[ebp], xmm0
  00153	eb 05		 jmp	 SHORT $LN24@CheckOutSc
$LN50@CheckOutSc:
  00155	f3 0f 10 45 f0	 movss	 xmm0, DWORD PTR _v2DPos$525780[ebp]
$LN24@CheckOutSc:

; 1163 : 
; 1164 : 			if( COMPARE( v2DPos.y, 0.0f, Setting::Height() ) )

  0015a	f3 0f 10 4d f4	 movss	 xmm1, DWORD PTR _v2DPos$525780[ebp+4]
  0015f	0f 2f 0d 00 00
	00 00		 comiss	 xmm1, DWORD PTR __real@00000000
  00166	72 47		 jb	 SHORT $LN23@CheckOutSc
  00168	0f 5a c1	 cvtps2pd xmm0, xmm1
  0016b	f2 0f 11 45 cc	 movsd	 QWORD PTR tv559[ebp], xmm0
  00170	e8 00 00 00 00	 call	 ?Height@Setting@@SAHXZ	; Setting::Height
  00175	0f 57 c0	 xorps	 xmm0, xmm0
  00178	f3 0f 2a c0	 cvtsi2ss xmm0, eax
  0017c	0f 5a c0	 cvtps2pd xmm0, xmm0
  0017f	66 0f 2f 45 cc	 comisd	 xmm0, QWORD PTR tv559[ebp]
  00184	76 24		 jbe	 SHORT $LN52@CheckOutSc

; 1165 : 				v2DPos.y += Setting::Height();

  00186	e8 00 00 00 00	 call	 ?Height@Setting@@SAHXZ	; Setting::Height
  0018b	f3 0f 10 4d f4	 movss	 xmm1, DWORD PTR _v2DPos$525780[ebp+4]
  00190	0f 57 c0	 xorps	 xmm0, xmm0
  00193	f3 0f 2a c0	 cvtsi2ss xmm0, eax
  00197	0f 5a c0	 cvtps2pd xmm0, xmm0
  0019a	0f 5a c9	 cvtps2pd xmm1, xmm1
  0019d	f2 0f 58 c1	 addsd	 xmm0, xmm1
  001a1	66 0f 5a c0	 cvtpd2ps xmm0, xmm0
  001a5	f3 0f 11 45 f4	 movss	 DWORD PTR _v2DPos$525780[ebp+4], xmm0
$LN52@CheckOutSc:
  001aa	f3 0f 10 45 f0	 movss	 xmm0, DWORD PTR _v2DPos$525780[ebp]
$LN23@CheckOutSc:

; 1166 : 		}
; 1167 : 
; 1168 : 		float fXRate = fabs( (float)(iCenterX - v2DPos.x) ) / (float)Setting::Width();

  001af	f3 0f 5a c0	 cvtss2sd xmm0, xmm0
  001b3	0f 57 c9	 xorps	 xmm1, xmm1
  001b6	f3 0f 2a ce	 cvtsi2ss xmm1, esi
  001ba	f3 0f 11 4d d0	 movss	 DWORD PTR tv567[ebp], xmm1
  001bf	0f 5a c9	 cvtps2pd xmm1, xmm1
  001c2	f2 0f 5c c8	 subsd	 xmm1, xmm0
  001c6	0f 57 c0	 xorps	 xmm0, xmm0
  001c9	66 0f 5a c1	 cvtpd2ps xmm0, xmm1
  001cd	0f 5a c0	 cvtps2pd xmm0, xmm0
  001d0	66 0f 54 05 00
	00 00 00	 andpd	 xmm0, QWORD PTR __mask@@AbsDouble@
  001d8	f2 0f 5a c0	 cvtsd2ss xmm0, xmm0
  001dc	f3 0f 5a c0	 cvtss2sd xmm0, xmm0
  001e0	f2 0f 11 45 d4	 movsd	 QWORD PTR tv540[ebp], xmm0
  001e5	e8 00 00 00 00	 call	 ?Width@Setting@@SAHXZ	; Setting::Width
  001ea	f2 0f 10 4d d4	 movsd	 xmm1, QWORD PTR tv540[ebp]

; 1169 : 		float fYRate = fabs( (float)(iCenterY - v2DPos.y) ) / (float)Setting::Height();

  001ef	f3 0f 10 55 f4	 movss	 xmm2, DWORD PTR _v2DPos$525780[ebp+4]
  001f4	0f 57 c0	 xorps	 xmm0, xmm0
  001f7	f3 0f 2a c0	 cvtsi2ss xmm0, eax
  001fb	0f 5a c0	 cvtps2pd xmm0, xmm0
  001fe	f2 0f 5e c8	 divsd	 xmm1, xmm0
  00202	0f 57 c0	 xorps	 xmm0, xmm0
  00205	66 0f 5a c1	 cvtpd2ps xmm0, xmm1
  00209	0f 57 c9	 xorps	 xmm1, xmm1
  0020c	f3 0f 2a cf	 cvtsi2ss xmm1, edi
  00210	f3 0f 11 4d d8	 movss	 DWORD PTR tv583[ebp], xmm1
  00215	0f 5a c9	 cvtps2pd xmm1, xmm1
  00218	0f 5a d2	 cvtps2pd xmm2, xmm2
  0021b	f2 0f 5c ca	 subsd	 xmm1, xmm2
  0021f	66 0f 5a c9	 cvtpd2ps xmm1, xmm1

; 1170 : 
; 1171 : 		if( fXRate >= fYRate )

  00223	0f 5a c0	 cvtps2pd xmm0, xmm0
  00226	f3 0f 5a c9	 cvtss2sd xmm1, xmm1
  0022a	66 0f 54 0d 00
	00 00 00	 andpd	 xmm1, QWORD PTR __mask@@AbsDouble@
  00232	f2 0f 11 45 c4	 movsd	 QWORD PTR tv545[ebp], xmm0
  00237	f2 0f 5a c9	 cvtsd2ss xmm1, xmm1
  0023b	0f 57 c0	 xorps	 xmm0, xmm0
  0023e	f3 0f 5a c1	 cvtss2sd xmm0, xmm1
  00242	f2 0f 11 45 bc	 movsd	 QWORD PTR tv543[ebp], xmm0
  00247	e8 00 00 00 00	 call	 ?Height@Setting@@SAHXZ	; Setting::Height
  0024c	f2 0f 10 4d bc	 movsd	 xmm1, QWORD PTR tv543[ebp]
  00251	0f 57 c0	 xorps	 xmm0, xmm0
  00254	f3 0f 2a c0	 cvtsi2ss xmm0, eax
  00258	0f 5a c0	 cvtps2pd xmm0, xmm0
  0025b	f2 0f 5e c8	 divsd	 xmm1, xmm0
  0025f	0f 57 c0	 xorps	 xmm0, xmm0
  00262	66 0f 5a c1	 cvtpd2ps xmm0, xmm1
  00266	f2 0f 10 4d c4	 movsd	 xmm1, QWORD PTR tv545[ebp]
  0026b	0f 5a c0	 cvtps2pd xmm0, xmm0
  0026e	66 0f 2f c8	 comisd	 xmm1, xmm0
  00272	72 2b		 jb	 SHORT $LN21@CheckOutSc

; 1172 : 			bAxisX = true;
; 1173 : 
; 1174 : 		if( bAxisX )
; 1175 : 		{
; 1176 : 			if( v2DPos.x < iCenterX )

  00274	f3 0f 10 45 f0	 movss	 xmm0, DWORD PTR _v2DPos$525780[ebp]
  00279	f3 0f 10 4d d0	 movss	 xmm1, DWORD PTR tv567[ebp]
  0027e	0f 5a c0	 cvtps2pd xmm0, xmm0
  00281	0f 5a c9	 cvtps2pd xmm1, xmm1
  00284	66 0f 2f c8	 comisd	 xmm1, xmm0
  00288	76 0b		 jbe	 SHORT $LN20@CheckOutSc

; 1177 : 				iXPos = iEmoticonWidth;

  0028a	8b 45 dc	 mov	 eax, DWORD PTR _iEmoticonWidth$[ebp]
$LN58@CheckOutSc:
  0028d	8b 4d e4	 mov	 ecx, DWORD PTR _iXPos$GSCopy$[ebp]

; 1178 : 			else

  00290	e9 61 01 00 00	 jmp	 $LN55@CheckOutSc
$LN20@CheckOutSc:

; 1179 : 				iXPos = Setting::Width() - iEmoticonWidth;

  00295	e8 00 00 00 00	 call	 ?Width@Setting@@SAHXZ	; Setting::Width
  0029a	2b 45 dc	 sub	 eax, DWORD PTR _iEmoticonWidth$[ebp]

; 1180 : 		}
; 1181 : 		else

  0029d	eb ee		 jmp	 SHORT $LN58@CheckOutSc
$LN21@CheckOutSc:

; 1182 : 		{
; 1183 : 			if( v2DPos.y < iCenterY )

  0029f	f3 0f 10 45 f4	 movss	 xmm0, DWORD PTR _v2DPos$525780[ebp+4]
  002a4	f3 0f 10 4d d8	 movss	 xmm1, DWORD PTR tv583[ebp]
  002a9	0f 5a c0	 cvtps2pd xmm0, xmm0
  002ac	0f 5a c9	 cvtps2pd xmm1, xmm1
  002af	66 0f 2f c8	 comisd	 xmm1, xmm0
  002b3	0f 86 2d 01 00
	00		 jbe	 $LN6@CheckOutSc

; 1184 : 			{
; 1185 : 				iYPos = iEmoticonHeight;

  002b9	8b 45 e0	 mov	 eax, DWORD PTR _iEmoticonHeight$[ebp]

; 1186 : 			}
; 1187 : 			else

  002bc	e9 32 01 00 00	 jmp	 $LN56@CheckOutSc
$LN26@CheckOutSc:

; 1188 : 			{
; 1189 : 				iYPos = Setting::Height() - iEmoticonHeight;
; 1190 : 				iYPos -= 32;
; 1191 : 			}
; 1192 : 		}
; 1193 : 
; 1194 : 		return;
; 1195 : 	}
; 1196 : 
; 1197 : 	bool bRePosition = true;

  002c1	c6 45 ee 01	 mov	 BYTE PTR _bRePosition$[ebp], 1

; 1198 : 	if( COMPARE( iCurXPos, 0, Setting::Width() ) &&
; 1199 : 		COMPARE( iCurYPos, 0, Setting::Height() ) )

  002c5	85 db		 test	 ebx, ebx
  002c7	0f 88 e6 00 00
	00		 js	 $LN49@CheckOutSc
  002cd	e8 00 00 00 00	 call	 ?Width@Setting@@SAHXZ	; Setting::Width
  002d2	3b d8		 cmp	 ebx, eax
  002d4	0f 8d b7 00 00
	00		 jge	 $LN13@CheckOutSc
  002da	83 7d d8 00	 cmp	 DWORD PTR _iCurYPos$[ebp], 0
  002de	0f 8c ad 00 00
	00		 jl	 $LN13@CheckOutSc
  002e4	e8 00 00 00 00	 call	 ?Height@Setting@@SAHXZ	; Setting::Height
  002e9	39 45 d8	 cmp	 DWORD PTR _iCurYPos$[ebp], eax
  002ec	0f 8d 9f 00 00
	00		 jge	 $LN13@CheckOutSc

; 1200 : 	{
; 1201 : 		bRePosition = false;
; 1202 : 		float fXRate = fabs( (float)(iCenterX - iCurXPos) ) / (float)Setting::Width();

  002f2	0f 57 c0	 xorps	 xmm0, xmm0
  002f5	2b f3		 sub	 esi, ebx
  002f7	f3 0f 2a c6	 cvtsi2ss xmm0, esi
  002fb	0f 5a c0	 cvtps2pd xmm0, xmm0
  002fe	66 0f 54 05 00
	00 00 00	 andpd	 xmm0, QWORD PTR __mask@@AbsDouble@
  00306	f2 0f 5a c0	 cvtsd2ss xmm0, xmm0
  0030a	f3 0f 5a c0	 cvtss2sd xmm0, xmm0
  0030e	c6 45 ee 00	 mov	 BYTE PTR _bRePosition$[ebp], 0
  00312	f2 0f 11 45 c4	 movsd	 QWORD PTR tv548[ebp], xmm0
  00317	e8 00 00 00 00	 call	 ?Width@Setting@@SAHXZ	; Setting::Width
  0031c	f2 0f 10 4d c4	 movsd	 xmm1, QWORD PTR tv548[ebp]

; 1203 : 		float fYRate = fabs( (float)(iCenterY - iCurYPos) ) / (float)Setting::Height();

  00321	2b 7d d8	 sub	 edi, DWORD PTR _iCurYPos$[ebp]
  00324	0f 57 c0	 xorps	 xmm0, xmm0
  00327	f3 0f 2a c0	 cvtsi2ss xmm0, eax
  0032b	0f 5a c0	 cvtps2pd xmm0, xmm0
  0032e	f2 0f 5e c8	 divsd	 xmm1, xmm0
  00332	0f 57 c0	 xorps	 xmm0, xmm0
  00335	66 0f 5a c1	 cvtpd2ps xmm0, xmm1

; 1204 : 
; 1205 : 		if( fXRate >= fYRate )

  00339	0f 5a c0	 cvtps2pd xmm0, xmm0
  0033c	f2 0f 11 45 bc	 movsd	 QWORD PTR tv554[ebp], xmm0
  00341	0f 57 c0	 xorps	 xmm0, xmm0
  00344	f3 0f 2a c7	 cvtsi2ss xmm0, edi
  00348	0f 5a c0	 cvtps2pd xmm0, xmm0
  0034b	66 0f 54 05 00
	00 00 00	 andpd	 xmm0, QWORD PTR __mask@@AbsDouble@
  00353	f2 0f 5a c0	 cvtsd2ss xmm0, xmm0
  00357	f3 0f 5a c0	 cvtss2sd xmm0, xmm0
  0035b	f2 0f 11 45 c4	 movsd	 QWORD PTR tv552[ebp], xmm0
  00360	e8 00 00 00 00	 call	 ?Height@Setting@@SAHXZ	; Setting::Height
  00365	f2 0f 10 4d c4	 movsd	 xmm1, QWORD PTR tv552[ebp]
  0036a	0f 57 c0	 xorps	 xmm0, xmm0
  0036d	f3 0f 2a c0	 cvtsi2ss xmm0, eax
  00371	0f 5a c0	 cvtps2pd xmm0, xmm0
  00374	f2 0f 5e c8	 divsd	 xmm1, xmm0
  00378	0f 57 c0	 xorps	 xmm0, xmm0
  0037b	66 0f 5a c1	 cvtpd2ps xmm0, xmm1
  0037f	f2 0f 10 4d bc	 movsd	 xmm1, QWORD PTR tv554[ebp]
  00384	0f 5a c0	 cvtps2pd xmm0, xmm0
  00387	66 0f 2f c8	 comisd	 xmm1, xmm0
  0038b	72 04		 jb	 SHORT $LN13@CheckOutSc

; 1206 : 			bAxisX = true;

  0038d	c6 45 ef 01	 mov	 BYTE PTR _bAxisX$[ebp], 1
$LN13@CheckOutSc:

; 1212 : 	}
; 1213 : 	else if( iCurXPos > Setting::Width() )

  00391	e8 00 00 00 00	 call	 ?Width@Setting@@SAHXZ	; Setting::Width
  00396	3b d8		 cmp	 ebx, eax
  00398	7e 0d		 jle	 SHORT $LN53@CheckOutSc

; 1214 : 	{
; 1215 : 		iXPos = Setting::Width() - iEmoticonWidth;

  0039a	e8 00 00 00 00	 call	 ?Width@Setting@@SAHXZ	; Setting::Width
  0039f	2b 45 dc	 sub	 eax, DWORD PTR _iEmoticonWidth$[ebp]
  003a2	8b 4d e4	 mov	 ecx, DWORD PTR _iXPos$GSCopy$[ebp]
  003a5	89 01		 mov	 DWORD PTR [ecx], eax
$LN53@CheckOutSc:
  003a7	8b 45 d8	 mov	 eax, DWORD PTR _iCurYPos$[ebp]
$LN11@CheckOutSc:

; 1216 : 	}
; 1217 : 
; 1218 : 	if( iCurYPos < 0 )

  003aa	85 c0		 test	 eax, eax
  003ac	79 0c		 jns	 SHORT $LN10@CheckOutSc

; 1219 : 	{
; 1220 : 		iYPos = iEmoticonHeight;

  003ae	8b 45 e0	 mov	 eax, DWORD PTR _iEmoticonHeight$[ebp]
  003b1	eb 1e		 jmp	 SHORT $LN57@CheckOutSc
$LN49@CheckOutSc:

; 1207 : 	}
; 1208 : 
; 1209 : 	if( iCurXPos < 0 )
; 1210 : 	{
; 1211 : 		iXPos = iEmoticonWidth;

  003b3	8b 55 dc	 mov	 edx, DWORD PTR _iEmoticonWidth$[ebp]
  003b6	89 11		 mov	 DWORD PTR [ecx], edx
  003b8	eb f0		 jmp	 SHORT $LN11@CheckOutSc
$LN10@CheckOutSc:

; 1221 : 	}
; 1222 : 	else if( iCurYPos > Setting::Height() )

  003ba	e8 00 00 00 00	 call	 ?Height@Setting@@SAHXZ	; Setting::Height
  003bf	39 45 d8	 cmp	 DWORD PTR _iCurYPos$[ebp], eax
  003c2	7e 12		 jle	 SHORT $LN54@CheckOutSc

; 1223 : 	{
; 1224 : 		iYPos = Setting::Height() - iEmoticonHeight;

  003c4	e8 00 00 00 00	 call	 ?Height@Setting@@SAHXZ	; Setting::Height

; 1225 : 		iYPos -= 32;

  003c9	6a e0		 push	 -32			; ffffffe0H
  003cb	59		 pop	 ecx
  003cc	2b 4d e0	 sub	 ecx, DWORD PTR _iEmoticonHeight$[ebp]
  003cf	03 c1		 add	 eax, ecx
$LN57@CheckOutSc:
  003d1	8b 4d e8	 mov	 ecx, DWORD PTR _iYPos$GSCopy$[ebp]
  003d4	89 01		 mov	 DWORD PTR [ecx], eax
$LN54@CheckOutSc:

; 1226 : 	}
; 1227 : 
; 1228 : 	if( !bRePosition )

  003d6	80 7d ee 00	 cmp	 BYTE PTR _bRePosition$[ebp], 0
  003da	75 1c		 jne	 SHORT $LN1@CheckOutSc

; 1229 : 	{
; 1230 : 		if( bAxisX )

  003dc	80 7d ef 00	 cmp	 BYTE PTR _bAxisX$[ebp], 0

; 1231 : 		{
; 1232 : 			if( iCenterX < iCenterX )
; 1233 : 				iXPos = iEmoticonWidth;
; 1234 : 			else
; 1235 : 				iXPos = Setting::Width() - iEmoticonWidth;
; 1236 : 		}
; 1237 : 		else

  003e0	0f 85 af fe ff
	ff		 jne	 $LN20@CheckOutSc
$LN6@CheckOutSc:

; 1238 : 		{
; 1239 : 			if( iCenterY < iCenterY )
; 1240 : 			{
; 1241 : 				iYPos = iEmoticonHeight;
; 1242 : 			}
; 1243 : 			else
; 1244 : 			{
; 1245 : 				iYPos = Setting::Height() - iEmoticonHeight;

  003e6	e8 00 00 00 00	 call	 ?Height@Setting@@SAHXZ	; Setting::Height

; 1246 : 				iYPos -= 32;

  003eb	6a e0		 push	 -32			; ffffffe0H
  003ed	59		 pop	 ecx
  003ee	2b 4d e0	 sub	 ecx, DWORD PTR _iEmoticonHeight$[ebp]
  003f1	03 c1		 add	 eax, ecx
$LN56@CheckOutSc:
  003f3	8b 4d e8	 mov	 ecx, DWORD PTR _iYPos$GSCopy$[ebp]
$LN55@CheckOutSc:
  003f6	89 01		 mov	 DWORD PTR [ecx], eax
$LN1@CheckOutSc:

; 1247 : 			}
; 1248 : 		}
; 1249 : 	}
; 1250 : }

  003f8	8b 4d fc	 mov	 ecx, DWORD PTR __$ArrayPad$[ebp]
  003fb	5f		 pop	 edi
  003fc	5e		 pop	 esi
  003fd	33 cd		 xor	 ecx, ebp
  003ff	5b		 pop	 ebx
  00400	e8 00 00 00 00	 call	 @__security_check_cookie@4
  00405	c9		 leave
  00406	c2 18 00	 ret	 24			; 00000018H
?CheckOutScreen@ioCharEmoticon@@IAEXABUD3DXVECTOR3@@0AAH1M_N@Z ENDP ; ioCharEmoticon::CheckOutScreen
_TEXT	ENDS
PUBLIC	?empty@?$vector@VioHashString@@V?$allocator@VioHashString@@@std@@@std@@QBE_NXZ ; std::vector<ioHashString,std::allocator<ioHashString> >::empty
; Function compile flags: /Ogsp
; File c:\program files (x86)\microsoft visual studio 10.0\vc\include\vector
;	COMDAT ?empty@?$vector@VioHashString@@V?$allocator@VioHashString@@@std@@@std@@QBE_NXZ
_TEXT	SEGMENT
?empty@?$vector@VioHashString@@V?$allocator@VioHashString@@@std@@@std@@QBE_NXZ PROC ; std::vector<ioHashString,std::allocator<ioHashString> >::empty, COMDAT
; _this$ = ecx

; 889  : 		return (this->_Myfirst == this->_Mylast);

  00000	8b 01		 mov	 eax, DWORD PTR [ecx]
  00002	2b 41 04	 sub	 eax, DWORD PTR [ecx+4]
  00005	f7 d8		 neg	 eax
  00007	1b c0		 sbb	 eax, eax
  00009	40		 inc	 eax

; 890  : 		}

  0000a	c3		 ret	 0
?empty@?$vector@VioHashString@@V?$allocator@VioHashString@@@std@@@std@@QBE_NXZ ENDP ; std::vector<ioHashString,std::allocator<ioHashString> >::empty
_TEXT	ENDS
PUBLIC	??A?$vector@VioHashString@@V?$allocator@VioHashString@@@std@@@std@@QAEAAVioHashString@@I@Z ; std::vector<ioHashString,std::allocator<ioHashString> >::operator[]
; Function compile flags: /Ogsp
;	COMDAT ??A?$vector@VioHashString@@V?$allocator@VioHashString@@@std@@@std@@QAEAAVioHashString@@I@Z
_TEXT	SEGMENT
__Pos$ = 8						; size = 4
??A?$vector@VioHashString@@V?$allocator@VioHashString@@@std@@@std@@QAEAAVioHashString@@I@Z PROC ; std::vector<ioHashString,std::allocator<ioHashString> >::operator[], COMDAT
; _this$ = ecx

; 928  : 		{	// subscript mutable sequence

  00000	55		 push	 ebp
  00001	8b ec		 mov	 ebp, esp

; 929  :  #if _ITERATOR_DEBUG_LEVEL == 2
; 930  : 		if (size() <= _Pos)
; 931  : 			{	// report error
; 932  : 			_DEBUG_ERROR("vector subscript out of range");
; 933  : 			_SCL_SECURE_OUT_OF_RANGE;
; 934  : 			}
; 935  : 
; 936  :  #elif _ITERATOR_DEBUG_LEVEL == 1
; 937  : 		_SCL_SECURE_VALIDATE_RANGE(_Pos < size());
; 938  :  #endif /* _ITERATOR_DEBUG_LEVEL */
; 939  : 
; 940  : 		return (*(this->_Myfirst + _Pos));

  00003	8b 45 08	 mov	 eax, DWORD PTR __Pos$[ebp]
  00006	c1 e0 04	 shl	 eax, 4
  00009	03 01		 add	 eax, DWORD PTR [ecx]

; 941  : 		}

  0000b	5d		 pop	 ebp
  0000c	c2 04 00	 ret	 4
??A?$vector@VioHashString@@V?$allocator@VioHashString@@@std@@@std@@QAEAAVioHashString@@I@Z ENDP ; std::vector<ioHashString,std::allocator<ioHashString> >::operator[]
_TEXT	ENDS
PUBLIC	?size@?$vector@PAUEmoticonInfo@@V?$allocator@PAUEmoticonInfo@@@std@@@std@@QBEIXZ ; std::vector<EmoticonInfo *,std::allocator<EmoticonInfo *> >::size
; Function compile flags: /Ogsp
;	COMDAT ?size@?$vector@PAUEmoticonInfo@@V?$allocator@PAUEmoticonInfo@@@std@@@std@@QBEIXZ
_TEXT	SEGMENT
?size@?$vector@PAUEmoticonInfo@@V?$allocator@PAUEmoticonInfo@@@std@@@std@@QBEIXZ PROC ; std::vector<EmoticonInfo *,std::allocator<EmoticonInfo *> >::size, COMDAT
; _this$ = ecx

; 879  : 		return (this->_Mylast - this->_Myfirst);

  00000	8b 41 04	 mov	 eax, DWORD PTR [ecx+4]
  00003	2b 01		 sub	 eax, DWORD PTR [ecx]
  00005	c1 f8 02	 sar	 eax, 2

; 880  : 		}

  00008	c3		 ret	 0
?size@?$vector@PAUEmoticonInfo@@V?$allocator@PAUEmoticonInfo@@@std@@@std@@QBEIXZ ENDP ; std::vector<EmoticonInfo *,std::allocator<EmoticonInfo *> >::size
_TEXT	ENDS
PUBLIC	?_Inside@?$vector@VioHashString@@V?$allocator@VioHashString@@@std@@@std@@IBE_NPBVioHashString@@@Z ; std::vector<ioHashString,std::allocator<ioHashString> >::_Inside
; Function compile flags: /Ogsp
;	COMDAT ?_Inside@?$vector@VioHashString@@V?$allocator@VioHashString@@@std@@@std@@IBE_NPBVioHashString@@@Z
_TEXT	SEGMENT
__Ptr$ = 8						; size = 4
?_Inside@?$vector@VioHashString@@V?$allocator@VioHashString@@@std@@@std@@IBE_NPBVioHashString@@@Z PROC ; std::vector<ioHashString,std::allocator<ioHashString> >::_Inside, COMDAT
; _this$ = ecx

; 1285 : 		{	// test if _Ptr points inside vector

  00000	55		 push	 ebp
  00001	8b ec		 mov	 ebp, esp

; 1286 : 		return (_Ptr < this->_Mylast && this->_Myfirst <= _Ptr);

  00003	8b 45 08	 mov	 eax, DWORD PTR __Ptr$[ebp]
  00006	3b 41 04	 cmp	 eax, DWORD PTR [ecx+4]
  00009	73 09		 jae	 SHORT $LN3@Inside
  0000b	39 01		 cmp	 DWORD PTR [ecx], eax
  0000d	77 05		 ja	 SHORT $LN3@Inside
  0000f	33 c0		 xor	 eax, eax
  00011	40		 inc	 eax
  00012	eb 02		 jmp	 SHORT $LN4@Inside
$LN3@Inside:
  00014	33 c0		 xor	 eax, eax
$LN4@Inside:

; 1287 : 		}

  00016	5d		 pop	 ebp
  00017	c2 04 00	 ret	 4
?_Inside@?$vector@VioHashString@@V?$allocator@VioHashString@@@std@@@std@@IBE_NPBVioHashString@@@Z ENDP ; std::vector<ioHashString,std::allocator<ioHashString> >::_Inside
_TEXT	ENDS
PUBLIC	?_Orphan_range@?$vector@VioHashString@@V?$allocator@VioHashString@@@std@@@std@@IBEXPAVioHashString@@0@Z ; std::vector<ioHashString,std::allocator<ioHashString> >::_Orphan_range
; Function compile flags: /Ogsp
;	COMDAT ?_Orphan_range@?$vector@VioHashString@@V?$allocator@VioHashString@@@std@@@std@@IBEXPAVioHashString@@0@Z
_TEXT	SEGMENT
___formal$ = 8						; size = 4
___formal$ = 12						; size = 4
?_Orphan_range@?$vector@VioHashString@@V?$allocator@VioHashString@@@std@@@std@@IBEXPAVioHashString@@0@Z PROC ; std::vector<ioHashString,std::allocator<ioHashString> >::_Orphan_range, COMDAT
; _this$ = ecx

; 1454 : 		}

  00000	c2 08 00	 ret	 8
?_Orphan_range@?$vector@VioHashString@@V?$allocator@VioHashString@@@std@@@std@@IBEXPAVioHashString@@0@Z ENDP ; std::vector<ioHashString,std::allocator<ioHashString> >::_Orphan_range
_TEXT	ENDS
PUBLIC	?_Inside@?$vector@PAUEmoticonInfo@@V?$allocator@PAUEmoticonInfo@@@std@@@std@@IBE_NPBQAUEmoticonInfo@@@Z ; std::vector<EmoticonInfo *,std::allocator<EmoticonInfo *> >::_Inside
; Function compile flags: /Ogsp
;	COMDAT ?_Inside@?$vector@PAUEmoticonInfo@@V?$allocator@PAUEmoticonInfo@@@std@@@std@@IBE_NPBQAUEmoticonInfo@@@Z
_TEXT	SEGMENT
__Ptr$ = 8						; size = 4
?_Inside@?$vector@PAUEmoticonInfo@@V?$allocator@PAUEmoticonInfo@@@std@@@std@@IBE_NPBQAUEmoticonInfo@@@Z PROC ; std::vector<EmoticonInfo *,std::allocator<EmoticonInfo *> >::_Inside, COMDAT
; _this$ = ecx

; 1285 : 		{	// test if _Ptr points inside vector

  00000	55		 push	 ebp
  00001	8b ec		 mov	 ebp, esp

; 1286 : 		return (_Ptr < this->_Mylast && this->_Myfirst <= _Ptr);

  00003	8b 45 08	 mov	 eax, DWORD PTR __Ptr$[ebp]
  00006	3b 41 04	 cmp	 eax, DWORD PTR [ecx+4]
  00009	73 09		 jae	 SHORT $LN3@Inside@2
  0000b	39 01		 cmp	 DWORD PTR [ecx], eax
  0000d	77 05		 ja	 SHORT $LN3@Inside@2
  0000f	33 c0		 xor	 eax, eax
  00011	40		 inc	 eax
  00012	eb 02		 jmp	 SHORT $LN4@Inside@2
$LN3@Inside@2:
  00014	33 c0		 xor	 eax, eax
$LN4@Inside@2:

; 1287 : 		}

  00016	5d		 pop	 ebp
  00017	c2 04 00	 ret	 4
?_Inside@?$vector@PAUEmoticonInfo@@V?$allocator@PAUEmoticonInfo@@@std@@@std@@IBE_NPBQAUEmoticonInfo@@@Z ENDP ; std::vector<EmoticonInfo *,std::allocator<EmoticonInfo *> >::_Inside
_TEXT	ENDS
PUBLIC	?_Orphan_range@?$vector@PAUEmoticonInfo@@V?$allocator@PAUEmoticonInfo@@@std@@@std@@IBEXPAPAUEmoticonInfo@@0@Z ; std::vector<EmoticonInfo *,std::allocator<EmoticonInfo *> >::_Orphan_range
; Function compile flags: /Ogsp
;	COMDAT ?_Orphan_range@?$vector@PAUEmoticonInfo@@V?$allocator@PAUEmoticonInfo@@@std@@@std@@IBEXPAPAUEmoticonInfo@@0@Z
_TEXT	SEGMENT
___formal$ = 8						; size = 4
___formal$ = 12						; size = 4
?_Orphan_range@?$vector@PAUEmoticonInfo@@V?$allocator@PAUEmoticonInfo@@@std@@@std@@IBEXPAPAUEmoticonInfo@@0@Z PROC ; std::vector<EmoticonInfo *,std::allocator<EmoticonInfo *> >::_Orphan_range, COMDAT
; _this$ = ecx

; 1454 : 		}

  00000	c2 08 00	 ret	 8
?_Orphan_range@?$vector@PAUEmoticonInfo@@V?$allocator@PAUEmoticonInfo@@@std@@@std@@IBEXPAPAUEmoticonInfo@@0@Z ENDP ; std::vector<EmoticonInfo *,std::allocator<EmoticonInfo *> >::_Orphan_range
_TEXT	ENDS
PUBLIC	??1?$_Vector_val@PAUEmoticonInfo@@V?$allocator@PAUEmoticonInfo@@@std@@@std@@QAE@XZ ; std::_Vector_val<EmoticonInfo *,std::allocator<EmoticonInfo *> >::~_Vector_val<EmoticonInfo *,std::allocator<EmoticonInfo *> >
; Function compile flags: /Ogsp
;	COMDAT ??1?$_Vector_val@PAUEmoticonInfo@@V?$allocator@PAUEmoticonInfo@@@std@@@std@@QAE@XZ
_TEXT	SEGMENT
??1?$_Vector_val@PAUEmoticonInfo@@V?$allocator@PAUEmoticonInfo@@@std@@@std@@QAE@XZ PROC ; std::_Vector_val<EmoticonInfo *,std::allocator<EmoticonInfo *> >::~_Vector_val<EmoticonInfo *,std::allocator<EmoticonInfo *> >, COMDAT
; _this$ = ecx

; 434  : 		}

  00000	c3		 ret	 0
??1?$_Vector_val@PAUEmoticonInfo@@V?$allocator@PAUEmoticonInfo@@@std@@@std@@QAE@XZ ENDP ; std::_Vector_val<EmoticonInfo *,std::allocator<EmoticonInfo *> >::~_Vector_val<EmoticonInfo *,std::allocator<EmoticonInfo *> >
_TEXT	ENDS
PUBLIC	??0?$allocator@PAUEmoticonInfo@@@std@@QAE@XZ	; std::allocator<EmoticonInfo *>::allocator<EmoticonInfo *>
; Function compile flags: /Ogsp
; File c:\program files (x86)\microsoft visual studio 10.0\vc\include\xmemory
;	COMDAT ??0?$allocator@PAUEmoticonInfo@@@std@@QAE@XZ
_TEXT	SEGMENT
??0?$allocator@PAUEmoticonInfo@@@std@@QAE@XZ PROC	; std::allocator<EmoticonInfo *>::allocator<EmoticonInfo *>, COMDAT
; _this$ = ecx

; 161  : 	_ALLOCATOR() _THROW0()

  00000	8b c1		 mov	 eax, ecx

; 162  : 		{	// construct default allocator (do nothing)
; 163  : 		}

  00002	c3		 ret	 0
??0?$allocator@PAUEmoticonInfo@@@std@@QAE@XZ ENDP	; std::allocator<EmoticonInfo *>::allocator<EmoticonInfo *>
_TEXT	ENDS
PUBLIC	??D?$_Vector_const_iterator@V?$_Vector_val@PAUEmoticonInfo@@V?$allocator@PAUEmoticonInfo@@@std@@@std@@@std@@QBEABQAUEmoticonInfo@@XZ ; std::_Vector_const_iterator<std::_Vector_val<EmoticonInfo *,std::allocator<EmoticonInfo *> > >::operator*
; Function compile flags: /Ogsp
; File c:\program files (x86)\microsoft visual studio 10.0\vc\include\vector
;	COMDAT ??D?$_Vector_const_iterator@V?$_Vector_val@PAUEmoticonInfo@@V?$allocator@PAUEmoticonInfo@@@std@@@std@@@std@@QBEABQAUEmoticonInfo@@XZ
_TEXT	SEGMENT
??D?$_Vector_const_iterator@V?$_Vector_val@PAUEmoticonInfo@@V?$allocator@PAUEmoticonInfo@@@std@@@std@@@std@@QBEABQAUEmoticonInfo@@XZ PROC ; std::_Vector_const_iterator<std::_Vector_val<EmoticonInfo *,std::allocator<EmoticonInfo *> > >::operator*, COMDAT
; _this$ = ecx

; 64   :  #if _ITERATOR_DEBUG_LEVEL == 2
; 65   : 		if (this->_Getcont() == 0
; 66   : 			|| this->_Ptr == 0
; 67   : 			|| this->_Ptr < ((_Myvec *)this->_Getcont())->_Myfirst
; 68   : 			|| ((_Myvec *)this->_Getcont())->_Mylast <= this->_Ptr)
; 69   : 			{	// report error
; 70   : 			_DEBUG_ERROR("vector iterator not dereferencable");
; 71   : 			_SCL_SECURE_OUT_OF_RANGE;
; 72   : 			}
; 73   : 
; 74   :  #elif _ITERATOR_DEBUG_LEVEL == 1
; 75   : 		_SCL_SECURE_VALIDATE(this->_Getcont() != 0);
; 76   : 		_SCL_SECURE_VALIDATE_RANGE(
; 77   : 			this->_Ptr != 0
; 78   : 			&& ((_Myvec *)this->_Getcont())->_Myfirst <= this->_Ptr
; 79   : 			&& this->_Ptr < ((_Myvec *)this->_Getcont())->_Mylast);
; 80   :  #endif /* _ITERATOR_DEBUG_LEVEL */
; 81   : 
; 82   : 		__analysis_assume(this->_Ptr != 0);
; 83   : 
; 84   : 		return (*this->_Ptr);

  00000	8b 01		 mov	 eax, DWORD PTR [ecx]

; 85   : 		}

  00002	c3		 ret	 0
??D?$_Vector_const_iterator@V?$_Vector_val@PAUEmoticonInfo@@V?$allocator@PAUEmoticonInfo@@@std@@@std@@@std@@QBEABQAUEmoticonInfo@@XZ ENDP ; std::_Vector_const_iterator<std::_Vector_val<EmoticonInfo *,std::allocator<EmoticonInfo *> > >::operator*
_TEXT	ENDS
PUBLIC	??E?$_Vector_const_iterator@V?$_Vector_val@PAUEmoticonInfo@@V?$allocator@PAUEmoticonInfo@@@std@@@std@@@std@@QAEAAV01@XZ ; std::_Vector_const_iterator<std::_Vector_val<EmoticonInfo *,std::allocator<EmoticonInfo *> > >::operator++
; Function compile flags: /Ogsp
;	COMDAT ??E?$_Vector_const_iterator@V?$_Vector_val@PAUEmoticonInfo@@V?$allocator@PAUEmoticonInfo@@@std@@@std@@@std@@QAEAAV01@XZ
_TEXT	SEGMENT
??E?$_Vector_const_iterator@V?$_Vector_val@PAUEmoticonInfo@@V?$allocator@PAUEmoticonInfo@@@std@@@std@@@std@@QAEAAV01@XZ PROC ; std::_Vector_const_iterator<std::_Vector_val<EmoticonInfo *,std::allocator<EmoticonInfo *> > >::operator++, COMDAT
; _this$ = ecx

; 93   : 		{	// preincrement

  00000	8b c1		 mov	 eax, ecx

; 94   :  #if _ITERATOR_DEBUG_LEVEL == 2
; 95   : 		if (this->_Getcont() == 0
; 96   : 			|| this->_Ptr == 0
; 97   : 			|| ((_Myvec *)this->_Getcont())->_Mylast <= this->_Ptr)
; 98   : 			{	// report error
; 99   : 			_DEBUG_ERROR("vector iterator not incrementable");
; 100  : 			_SCL_SECURE_OUT_OF_RANGE;
; 101  : 			}
; 102  : 
; 103  :  #elif _ITERATOR_DEBUG_LEVEL == 1
; 104  : 		_SCL_SECURE_VALIDATE(this->_Getcont() != 0);
; 105  : 		_SCL_SECURE_VALIDATE_RANGE(
; 106  : 			this->_Ptr != 0
; 107  : 			&& this->_Ptr < ((_Myvec *)this->_Getcont())->_Mylast);
; 108  :  #endif /* _ITERATOR_DEBUG_LEVEL */
; 109  : 
; 110  : 		++this->_Ptr;

  00002	83 00 04	 add	 DWORD PTR [eax], 4

; 111  : 		return (*this);
; 112  : 		}

  00005	c3		 ret	 0
??E?$_Vector_const_iterator@V?$_Vector_val@PAUEmoticonInfo@@V?$allocator@PAUEmoticonInfo@@@std@@@std@@@std@@QAEAAV01@XZ ENDP ; std::_Vector_const_iterator<std::_Vector_val<EmoticonInfo *,std::allocator<EmoticonInfo *> > >::operator++
_TEXT	ENDS
PUBLIC	?capacity@?$vector@VioHashString@@V?$allocator@VioHashString@@@std@@@std@@QBEIXZ ; std::vector<ioHashString,std::allocator<ioHashString> >::capacity
; Function compile flags: /Ogsp
;	COMDAT ?capacity@?$vector@VioHashString@@V?$allocator@VioHashString@@@std@@@std@@QBEIXZ
_TEXT	SEGMENT
?capacity@?$vector@VioHashString@@V?$allocator@VioHashString@@@std@@@std@@QBEIXZ PROC ; std::vector<ioHashString,std::allocator<ioHashString> >::capacity, COMDAT
; _this$ = ecx

; 777  : 		return (this->_Myend - this->_Myfirst);

  00000	8b 41 08	 mov	 eax, DWORD PTR [ecx+8]
  00003	2b 01		 sub	 eax, DWORD PTR [ecx]
  00005	c1 f8 04	 sar	 eax, 4

; 778  : 		}

  00008	c3		 ret	 0
?capacity@?$vector@VioHashString@@V?$allocator@VioHashString@@@std@@@std@@QBEIXZ ENDP ; std::vector<ioHashString,std::allocator<ioHashString> >::capacity
_TEXT	ENDS
PUBLIC	?capacity@?$vector@PAUEmoticonInfo@@V?$allocator@PAUEmoticonInfo@@@std@@@std@@QBEIXZ ; std::vector<EmoticonInfo *,std::allocator<EmoticonInfo *> >::capacity
; Function compile flags: /Ogsp
;	COMDAT ?capacity@?$vector@PAUEmoticonInfo@@V?$allocator@PAUEmoticonInfo@@@std@@@std@@QBEIXZ
_TEXT	SEGMENT
?capacity@?$vector@PAUEmoticonInfo@@V?$allocator@PAUEmoticonInfo@@@std@@@std@@QBEIXZ PROC ; std::vector<EmoticonInfo *,std::allocator<EmoticonInfo *> >::capacity, COMDAT
; _this$ = ecx

; 777  : 		return (this->_Myend - this->_Myfirst);

  00000	8b 41 08	 mov	 eax, DWORD PTR [ecx+8]
  00003	2b 01		 sub	 eax, DWORD PTR [ecx]
  00005	c1 f8 02	 sar	 eax, 2

; 778  : 		}

  00008	c3		 ret	 0
?capacity@?$vector@PAUEmoticonInfo@@V?$allocator@PAUEmoticonInfo@@@std@@@std@@QBEIXZ ENDP ; std::vector<EmoticonInfo *,std::allocator<EmoticonInfo *> >::capacity
_TEXT	ENDS
PUBLIC	??_C@_0BD@OLBABOEK@vector?$DMT?$DO?5too?5long?$AA@ ; `string'
PUBLIC	?_Xlen@?$vector@PAUEmoticonInfo@@V?$allocator@PAUEmoticonInfo@@@std@@@std@@IBEXXZ ; std::vector<EmoticonInfo *,std::allocator<EmoticonInfo *> >::_Xlen
EXTRN	__imp_?_Xlength_error@std@@YAXPBD@Z:PROC
;	COMDAT ??_C@_0BD@OLBABOEK@vector?$DMT?$DO?5too?5long?$AA@
CONST	SEGMENT
??_C@_0BD@OLBABOEK@vector?$DMT?$DO?5too?5long?$AA@ DB 'vector<T> too long'
	DB	00H						; `string'
; Function compile flags: /Ogsp
CONST	ENDS
;	COMDAT ?_Xlen@?$vector@PAUEmoticonInfo@@V?$allocator@PAUEmoticonInfo@@@std@@@std@@IBEXXZ
_TEXT	SEGMENT
?_Xlen@?$vector@PAUEmoticonInfo@@V?$allocator@PAUEmoticonInfo@@@std@@@std@@IBEXXZ PROC ; std::vector<EmoticonInfo *,std::allocator<EmoticonInfo *> >::_Xlen, COMDAT
; _this$ = ecx

; 1427 : 		_Xlength_error("vector<T> too long");

  00000	68 00 00 00 00	 push	 OFFSET ??_C@_0BD@OLBABOEK@vector?$DMT?$DO?5too?5long?$AA@
  00005	ff 15 00 00 00
	00		 call	 DWORD PTR __imp_?_Xlength_error@std@@YAXPBD@Z
$LN4@Xlen:
$LN3@Xlen:
  0000b	cc		 int	 3
?_Xlen@?$vector@PAUEmoticonInfo@@V?$allocator@PAUEmoticonInfo@@@std@@@std@@IBEXXZ ENDP ; std::vector<EmoticonInfo *,std::allocator<EmoticonInfo *> >::_Xlen
_TEXT	ENDS
PUBLIC	??0?$allocator@PAUEmoticonInfo@@@std@@QAE@ABV01@@Z ; std::allocator<EmoticonInfo *>::allocator<EmoticonInfo *>
; Function compile flags: /Ogsp
; File c:\program files (x86)\microsoft visual studio 10.0\vc\include\xmemory
;	COMDAT ??0?$allocator@PAUEmoticonInfo@@@std@@QAE@ABV01@@Z
_TEXT	SEGMENT
___formal$ = 8						; size = 4
??0?$allocator@PAUEmoticonInfo@@@std@@QAE@ABV01@@Z PROC	; std::allocator<EmoticonInfo *>::allocator<EmoticonInfo *>, COMDAT
; _this$ = ecx

; 165  : 	_ALLOCATOR(const _ALLOCATOR<_Ty>&) _THROW0()

  00000	8b c1		 mov	 eax, ecx

; 166  : 		{	// construct by copying (do nothing)
; 167  : 		}

  00002	c2 04 00	 ret	 4
??0?$allocator@PAUEmoticonInfo@@@std@@QAE@ABV01@@Z ENDP	; std::allocator<EmoticonInfo *>::allocator<EmoticonInfo *>
_TEXT	ENDS
PUBLIC	?deallocate@?$allocator@PAUEmoticonInfo@@@std@@QAEXPAPAUEmoticonInfo@@I@Z ; std::allocator<EmoticonInfo *>::deallocate
; Function compile flags: /Ogsp
;	COMDAT ?deallocate@?$allocator@PAUEmoticonInfo@@@std@@QAEXPAPAUEmoticonInfo@@I@Z
_TEXT	SEGMENT
__Ptr$ = 8						; size = 4
___formal$ = 12						; size = 4
?deallocate@?$allocator@PAUEmoticonInfo@@@std@@QAEXPAPAUEmoticonInfo@@I@Z PROC ; std::allocator<EmoticonInfo *>::deallocate, COMDAT
; _this$ = ecx

; 181  : 		{	// deallocate object at _Ptr, ignore size

  00000	55		 push	 ebp
  00001	8b ec		 mov	 ebp, esp

; 182  : 		::operator delete(_Ptr);

  00003	ff 75 08	 push	 DWORD PTR __Ptr$[ebp]
  00006	e8 00 00 00 00	 call	 ??3@YAXPAX@Z		; operator delete
  0000b	59		 pop	 ecx

; 183  : 		}

  0000c	5d		 pop	 ebp
  0000d	c2 08 00	 ret	 8
?deallocate@?$allocator@PAUEmoticonInfo@@@std@@QAEXPAPAUEmoticonInfo@@I@Z ENDP ; std::allocator<EmoticonInfo *>::deallocate
_TEXT	ENDS
PUBLIC	??0?$_Vector_const_iterator@V?$_Vector_val@PAUEmoticonInfo@@V?$allocator@PAUEmoticonInfo@@@std@@@std@@@std@@QAE@PAPAUEmoticonInfo@@PBU_Container_base0@1@@Z ; std::_Vector_const_iterator<std::_Vector_val<EmoticonInfo *,std::allocator<EmoticonInfo *> > >::_Vector_const_iterator<std::_Vector_val<EmoticonInfo *,std::allocator<EmoticonInfo *> > >
; Function compile flags: /Ogsp
; File c:\program files (x86)\microsoft visual studio 10.0\vc\include\vector
;	COMDAT ??0?$_Vector_const_iterator@V?$_Vector_val@PAUEmoticonInfo@@V?$allocator@PAUEmoticonInfo@@@std@@@std@@@std@@QAE@PAPAUEmoticonInfo@@PBU_Container_base0@1@@Z
_TEXT	SEGMENT
__Parg$ = 8						; size = 4
__Pvector$ = 12						; size = 4
??0?$_Vector_const_iterator@V?$_Vector_val@PAUEmoticonInfo@@V?$allocator@PAUEmoticonInfo@@@std@@@std@@@std@@QAE@PAPAUEmoticonInfo@@PBU_Container_base0@1@@Z PROC ; std::_Vector_const_iterator<std::_Vector_val<EmoticonInfo *,std::allocator<EmoticonInfo *> > >::_Vector_const_iterator<std::_Vector_val<EmoticonInfo *,std::allocator<EmoticonInfo *> > >, COMDAT
; _this$ = ecx

; 45   : 		{	// construct with pointer _Parg

  00000	55		 push	 ebp
  00001	8b ec		 mov	 ebp, esp
  00003	8b c1		 mov	 eax, ecx
  00005	8b 4d 08	 mov	 ecx, DWORD PTR __Parg$[ebp]
  00008	89 08		 mov	 DWORD PTR [eax], ecx

; 46   : 		this->_Adopt(_Pvector);
; 47   : 		}

  0000a	5d		 pop	 ebp
  0000b	c2 08 00	 ret	 8
??0?$_Vector_const_iterator@V?$_Vector_val@PAUEmoticonInfo@@V?$allocator@PAUEmoticonInfo@@@std@@@std@@@std@@QAE@PAPAUEmoticonInfo@@PBU_Container_base0@1@@Z ENDP ; std::_Vector_const_iterator<std::_Vector_val<EmoticonInfo *,std::allocator<EmoticonInfo *> > >::_Vector_const_iterator<std::_Vector_val<EmoticonInfo *,std::allocator<EmoticonInfo *> > >
_TEXT	ENDS
PUBLIC	?_Compat@?$_Vector_const_iterator@V?$_Vector_val@PAUEmoticonInfo@@V?$allocator@PAUEmoticonInfo@@@std@@@std@@@std@@QBEXABV12@@Z ; std::_Vector_const_iterator<std::_Vector_val<EmoticonInfo *,std::allocator<EmoticonInfo *> > >::_Compat
; Function compile flags: /Ogsp
;	COMDAT ?_Compat@?$_Vector_const_iterator@V?$_Vector_val@PAUEmoticonInfo@@V?$allocator@PAUEmoticonInfo@@@std@@@std@@@std@@QBEXABV12@@Z
_TEXT	SEGMENT
___formal$ = 8						; size = 4
?_Compat@?$_Vector_const_iterator@V?$_Vector_val@PAUEmoticonInfo@@V?$allocator@PAUEmoticonInfo@@@std@@@std@@@std@@QBEXABV12@@Z PROC ; std::_Vector_const_iterator<std::_Vector_val<EmoticonInfo *,std::allocator<EmoticonInfo *> > >::_Compat, COMDAT
; _this$ = ecx

; 253  : 		}

  00000	c2 04 00	 ret	 4
?_Compat@?$_Vector_const_iterator@V?$_Vector_val@PAUEmoticonInfo@@V?$allocator@PAUEmoticonInfo@@@std@@@std@@@std@@QBEXABV12@@Z ENDP ; std::_Vector_const_iterator<std::_Vector_val<EmoticonInfo *,std::allocator<EmoticonInfo *> > >::_Compat
_TEXT	ENDS
PUBLIC	?max_size@?$allocator@PAUEmoticonInfo@@@std@@QBEIXZ ; std::allocator<EmoticonInfo *>::max_size
; Function compile flags: /Ogsp
; File c:\program files (x86)\microsoft visual studio 10.0\vc\include\xmemory
;	COMDAT ?max_size@?$allocator@PAUEmoticonInfo@@@std@@QBEIXZ
_TEXT	SEGMENT
?max_size@?$allocator@PAUEmoticonInfo@@@std@@QBEIXZ PROC ; std::allocator<EmoticonInfo *>::max_size, COMDAT
; _this$ = ecx

; 218  : 		_SIZT _Count = (_SIZT)(-1) / sizeof (_Ty);
; 219  : 		return (0 < _Count ? _Count : 1);

  00000	b8 ff ff ff 3f	 mov	 eax, 1073741823		; 3fffffffH

; 220  : 		}

  00005	c3		 ret	 0
?max_size@?$allocator@PAUEmoticonInfo@@@std@@QBEIXZ ENDP ; std::allocator<EmoticonInfo *>::max_size
_TEXT	ENDS
PUBLIC	??$addressof@$$CBVioHashString@@@std@@YAPBVioHashString@@ABV1@@Z ; std::addressof<ioHashString const >
; Function compile flags: /Ogsp
;	COMDAT ??$addressof@$$CBVioHashString@@@std@@YAPBVioHashString@@ABV1@@Z
_TEXT	SEGMENT
__Val$ = 8						; size = 4
??$addressof@$$CBVioHashString@@@std@@YAPBVioHashString@@ABV1@@Z PROC ; std::addressof<ioHashString const >, COMDAT

; 110  : 	{	// return address of _Val

  00000	55		 push	 ebp
  00001	8b ec		 mov	 ebp, esp

; 111  : 	return ((_Ty *) &(char&)_Val);

  00003	8b 45 08	 mov	 eax, DWORD PTR __Val$[ebp]

; 112  : 	}

  00006	5d		 pop	 ebp
  00007	c3		 ret	 0
??$addressof@$$CBVioHashString@@@std@@YAPBVioHashString@@ABV1@@Z ENDP ; std::addressof<ioHashString const >
_TEXT	ENDS
PUBLIC	??$addressof@QAUEmoticonInfo@@@std@@YAPBQAUEmoticonInfo@@ABQAU1@@Z ; std::addressof<EmoticonInfo * const>
; Function compile flags: /Ogsp
;	COMDAT ??$addressof@QAUEmoticonInfo@@@std@@YAPBQAUEmoticonInfo@@ABQAU1@@Z
_TEXT	SEGMENT
__Val$ = 8						; size = 4
??$addressof@QAUEmoticonInfo@@@std@@YAPBQAUEmoticonInfo@@ABQAU1@@Z PROC ; std::addressof<EmoticonInfo * const>, COMDAT

; 110  : 	{	// return address of _Val

  00000	55		 push	 ebp
  00001	8b ec		 mov	 ebp, esp

; 111  : 	return ((_Ty *) &(char&)_Val);

  00003	8b 45 08	 mov	 eax, DWORD PTR __Val$[ebp]

; 112  : 	}

  00006	5d		 pop	 ebp
  00007	c3		 ret	 0
??$addressof@QAUEmoticonInfo@@@std@@YAPBQAUEmoticonInfo@@ABQAU1@@Z ENDP ; std::addressof<EmoticonInfo * const>
_TEXT	ENDS
PUBLIC	__TI2?AVbad_alloc@std@@
PUBLIC	??$_Allocate@PAUEmoticonInfo@@@std@@YAPAPAUEmoticonInfo@@IPAPAU1@@Z ; std::_Allocate<EmoticonInfo *>
PUBLIC	__CTA2?AVbad_alloc@std@@
PUBLIC	__CT??_R0?AVbad_alloc@std@@@8??0bad_alloc@std@@QAE@ABV01@@Z12
PUBLIC	??0bad_alloc@std@@QAE@ABV01@@Z			; std::bad_alloc::bad_alloc
PUBLIC	__CT??_R0?AVexception@std@@@8??0exception@std@@QAE@ABV01@@Z12
EXTRN	__CxxThrowException@8:PROC
EXTRN	??0exception@std@@QAE@ABV01@@Z:PROC		; std::exception::exception
;	COMDAT __CT??_R0?AVexception@std@@@8??0exception@std@@QAE@ABV01@@Z12
; File c:\program files (x86)\microsoft visual studio 10.0\vc\include\exception
xdata$x	SEGMENT
__CT??_R0?AVexception@std@@@8??0exception@std@@QAE@ABV01@@Z12 DD 00H
	DD	FLAT:??_R0?AVexception@std@@@8
	DD	00H
	DD	0ffffffffH
	ORG $+4
	DD	0cH
	DD	FLAT:??0exception@std@@QAE@ABV01@@Z
xdata$x	ENDS
;	COMDAT __CT??_R0?AVbad_alloc@std@@@8??0bad_alloc@std@@QAE@ABV01@@Z12
xdata$x	SEGMENT
__CT??_R0?AVbad_alloc@std@@@8??0bad_alloc@std@@QAE@ABV01@@Z12 DD 00H
	DD	FLAT:??_R0?AVbad_alloc@std@@@8
	DD	00H
	DD	0ffffffffH
	ORG $+4
	DD	0cH
	DD	FLAT:??0bad_alloc@std@@QAE@ABV01@@Z
xdata$x	ENDS
;	COMDAT __CTA2?AVbad_alloc@std@@
xdata$x	SEGMENT
__CTA2?AVbad_alloc@std@@ DD 02H
	DD	FLAT:__CT??_R0?AVbad_alloc@std@@@8??0bad_alloc@std@@QAE@ABV01@@Z12
	DD	FLAT:__CT??_R0?AVexception@std@@@8??0exception@std@@QAE@ABV01@@Z12
xdata$x	ENDS
;	COMDAT __TI2?AVbad_alloc@std@@
xdata$x	SEGMENT
__TI2?AVbad_alloc@std@@ DD 00H
	DD	FLAT:??1bad_alloc@std@@UAE@XZ
	DD	00H
	DD	FLAT:__CTA2?AVbad_alloc@std@@
; Function compile flags: /Ogsp
; File c:\program files (x86)\microsoft visual studio 10.0\vc\include\xmemory
xdata$x	ENDS
;	COMDAT ??$_Allocate@PAUEmoticonInfo@@@std@@YAPAPAUEmoticonInfo@@IPAPAU1@@Z
_TEXT	SEGMENT
$T531250 = -12						; size = 12
$T531255 = 8						; size = 4
__Count$ = 8						; size = 4
___formal$ = 12						; size = 4
??$_Allocate@PAUEmoticonInfo@@@std@@YAPAPAUEmoticonInfo@@IPAPAU1@@Z PROC ; std::_Allocate<EmoticonInfo *>, COMDAT

; 30   : 	{	// allocate storage for _Count elements of type _Ty

  00000	55		 push	 ebp
  00001	8b ec		 mov	 ebp, esp

; 31   : 	void *_Ptr = 0;
; 32   : 
; 33   : 	if (_Count <= 0)

  00003	8b 4d 08	 mov	 ecx, DWORD PTR __Count$[ebp]
  00006	83 ec 0c	 sub	 esp, 12			; 0000000cH
  00009	33 c0		 xor	 eax, eax
  0000b	85 c9		 test	 ecx, ecx

; 34   : 		_Count = 0;
; 35   : 	else if (((_SIZT)(-1) / sizeof (_Ty) < _Count)

  0000d	74 3e		 je	 SHORT $LN5@Allocate

; 36   : 		|| (_Ptr = ::operator new(_Count * sizeof (_Ty))) == 0)

  0000f	81 f9 ff ff ff
	3f		 cmp	 ecx, 1073741823		; 3fffffffH
  00015	77 10		 ja	 SHORT $LN1@Allocate
  00017	8b c1		 mov	 eax, ecx
  00019	c1 e0 02	 shl	 eax, 2
  0001c	50		 push	 eax
  0001d	e8 00 00 00 00	 call	 ??2@YAPAXI@Z		; operator new
  00022	59		 pop	 ecx
  00023	85 c0		 test	 eax, eax

; 38   : 
; 39   : 	return ((_Ty _FARQ *)_Ptr);

  00025	75 26		 jne	 SHORT $LN5@Allocate
$LN1@Allocate:

; 37   : 		_THROW_NCEE(bad_alloc, 0);

  00027	83 65 08 00	 and	 DWORD PTR $T531255[ebp], 0
  0002b	8d 45 08	 lea	 eax, DWORD PTR $T531255[ebp]
  0002e	50		 push	 eax
  0002f	8d 4d f4	 lea	 ecx, DWORD PTR $T531250[ebp]
  00032	ff 15 00 00 00
	00		 call	 DWORD PTR __imp_??0exception@std@@QAE@ABQBD@Z
  00038	68 00 00 00 00	 push	 OFFSET __TI2?AVbad_alloc@std@@
  0003d	8d 45 f4	 lea	 eax, DWORD PTR $T531250[ebp]
  00040	50		 push	 eax
  00041	c7 45 f4 00 00
	00 00		 mov	 DWORD PTR $T531250[ebp], OFFSET ??_7bad_alloc@std@@6B@
  00048	e8 00 00 00 00	 call	 __CxxThrowException@8
$LN10@Allocate:
$LN5@Allocate:

; 40   : 	}

  0004d	c9		 leave
  0004e	c3		 ret	 0
$LN9@Allocate:
??$_Allocate@PAUEmoticonInfo@@@std@@YAPAPAUEmoticonInfo@@IPAPAU1@@Z ENDP ; std::_Allocate<EmoticonInfo *>
_TEXT	ENDS
PUBLIC	??G?$_Vector_const_iterator@V?$_Vector_val@PAUEmoticonInfo@@V?$allocator@PAUEmoticonInfo@@@std@@@std@@@std@@QBEHABV01@@Z ; std::_Vector_const_iterator<std::_Vector_val<EmoticonInfo *,std::allocator<EmoticonInfo *> > >::operator-
; Function compile flags: /Ogsp
; File c:\program files (x86)\microsoft visual studio 10.0\vc\include\vector
;	COMDAT ??G?$_Vector_const_iterator@V?$_Vector_val@PAUEmoticonInfo@@V?$allocator@PAUEmoticonInfo@@@std@@@std@@@std@@QBEHABV01@@Z
_TEXT	SEGMENT
__Right$ = 8						; size = 4
??G?$_Vector_const_iterator@V?$_Vector_val@PAUEmoticonInfo@@V?$allocator@PAUEmoticonInfo@@@std@@@std@@@std@@QBEHABV01@@Z PROC ; std::_Vector_const_iterator<std::_Vector_val<EmoticonInfo *,std::allocator<EmoticonInfo *> > >::operator-, COMDAT
; _this$ = ecx

; 190  : 		{	// return difference of iterators

  00000	55		 push	 ebp
  00001	8b ec		 mov	 ebp, esp

; 191  : 		_Compat(_Right);
; 192  : 		return (this->_Ptr - _Right._Ptr);

  00003	8b 01		 mov	 eax, DWORD PTR [ecx]
  00005	8b 4d 08	 mov	 ecx, DWORD PTR __Right$[ebp]
  00008	2b 01		 sub	 eax, DWORD PTR [ecx]
  0000a	c1 f8 02	 sar	 eax, 2

; 193  : 		}

  0000d	5d		 pop	 ebp
  0000e	c2 04 00	 ret	 4
??G?$_Vector_const_iterator@V?$_Vector_val@PAUEmoticonInfo@@V?$allocator@PAUEmoticonInfo@@@std@@@std@@@std@@QBEHABV01@@Z ENDP ; std::_Vector_const_iterator<std::_Vector_val<EmoticonInfo *,std::allocator<EmoticonInfo *> > >::operator-
_TEXT	ENDS
PUBLIC	??$forward@AAPAUEmoticonInfo@@@std@@YAAAPAUEmoticonInfo@@AAPAU1@@Z ; std::forward<EmoticonInfo * &>
; Function compile flags: /Ogsp
; File c:\program files (x86)\microsoft visual studio 10.0\vc\include\utility
;	COMDAT ??$forward@AAPAUEmoticonInfo@@@std@@YAAAPAUEmoticonInfo@@AAPAU1@@Z
_TEXT	SEGMENT
__Arg$ = 8						; size = 4
??$forward@AAPAUEmoticonInfo@@@std@@YAAAPAUEmoticonInfo@@AAPAU1@@Z PROC ; std::forward<EmoticonInfo * &>, COMDAT

; 78   : 	{	// forward _Arg, given explicitly specified type parameter

  00000	55		 push	 ebp
  00001	8b ec		 mov	 ebp, esp

; 79   : 	return ((_Ty&&)_Arg);

  00003	8b 45 08	 mov	 eax, DWORD PTR __Arg$[ebp]

; 80   : 	}

  00006	5d		 pop	 ebp
  00007	c3		 ret	 0
??$forward@AAPAUEmoticonInfo@@@std@@YAAAPAUEmoticonInfo@@AAPAU1@@Z ENDP ; std::forward<EmoticonInfo * &>
_TEXT	ENDS
PUBLIC	??$construct@AAPAUEmoticonInfo@@@?$allocator@PAUEmoticonInfo@@@std@@QAEXPAPAUEmoticonInfo@@AAPAU2@@Z ; std::allocator<EmoticonInfo *>::construct<EmoticonInfo * &>
; Function compile flags: /Ogsp
; File c:\program files (x86)\microsoft visual studio 10.0\vc\include\xmemory
;	COMDAT ??$construct@AAPAUEmoticonInfo@@@?$allocator@PAUEmoticonInfo@@@std@@QAEXPAPAUEmoticonInfo@@AAPAU2@@Z
_TEXT	SEGMENT
__Ptr$ = 8						; size = 4
__Val$ = 12						; size = 4
??$construct@AAPAUEmoticonInfo@@@?$allocator@PAUEmoticonInfo@@@std@@QAEXPAPAUEmoticonInfo@@AAPAU2@@Z PROC ; std::allocator<EmoticonInfo *>::construct<EmoticonInfo * &>, COMDAT
; _this$ = ecx

; 206  : 		void construct(pointer _Ptr, _Other&& _Val)

  00000	55		 push	 ebp
  00001	8b ec		 mov	 ebp, esp

; 207  : 		{	// construct object at _Ptr with value _Val
; 208  : 		::new ((void _FARQ *)_Ptr) _Ty(_STD forward<_Other>(_Val));

  00003	8b 45 08	 mov	 eax, DWORD PTR __Ptr$[ebp]
  00006	85 c0		 test	 eax, eax
  00008	74 07		 je	 SHORT $LN3@construct
  0000a	8b 4d 0c	 mov	 ecx, DWORD PTR __Val$[ebp]
  0000d	8b 09		 mov	 ecx, DWORD PTR [ecx]
  0000f	89 08		 mov	 DWORD PTR [eax], ecx
$LN3@construct:

; 209  : 		}

  00011	5d		 pop	 ebp
  00012	c2 08 00	 ret	 8
??$construct@AAPAUEmoticonInfo@@@?$allocator@PAUEmoticonInfo@@@std@@QAEXPAPAUEmoticonInfo@@AAPAU2@@Z ENDP ; std::allocator<EmoticonInfo *>::construct<EmoticonInfo * &>
_TEXT	ENDS
PUBLIC	??$forward@ABQAUEmoticonInfo@@@std@@YAABQAUEmoticonInfo@@ABQAU1@@Z ; std::forward<EmoticonInfo * const &>
; Function compile flags: /Ogsp
; File c:\program files (x86)\microsoft visual studio 10.0\vc\include\utility
;	COMDAT ??$forward@ABQAUEmoticonInfo@@@std@@YAABQAUEmoticonInfo@@ABQAU1@@Z
_TEXT	SEGMENT
__Arg$ = 8						; size = 4
??$forward@ABQAUEmoticonInfo@@@std@@YAABQAUEmoticonInfo@@ABQAU1@@Z PROC ; std::forward<EmoticonInfo * const &>, COMDAT

; 78   : 	{	// forward _Arg, given explicitly specified type parameter

  00000	55		 push	 ebp
  00001	8b ec		 mov	 ebp, esp

; 79   : 	return ((_Ty&&)_Arg);

  00003	8b 45 08	 mov	 eax, DWORD PTR __Arg$[ebp]

; 80   : 	}

  00006	5d		 pop	 ebp
  00007	c3		 ret	 0
??$forward@ABQAUEmoticonInfo@@@std@@YAABQAUEmoticonInfo@@ABQAU1@@Z ENDP ; std::forward<EmoticonInfo * const &>
_TEXT	ENDS
PUBLIC	??$_Ptr_cat@PAUEmoticonInfo@@PAU1@@std@@YA?AU_Scalar_ptr_iterator_tag@0@PAPAUEmoticonInfo@@0@Z ; std::_Ptr_cat<EmoticonInfo *,EmoticonInfo *>
; Function compile flags: /Ogsp
; File c:\program files (x86)\microsoft visual studio 10.0\vc\include\xutility
;	COMDAT ??$_Ptr_cat@PAUEmoticonInfo@@PAU1@@std@@YA?AU_Scalar_ptr_iterator_tag@0@PAPAUEmoticonInfo@@0@Z
_TEXT	SEGMENT
__Cat$ = -1						; size = 1
___formal$ = 8						; size = 4
___formal$ = 12						; size = 4
??$_Ptr_cat@PAUEmoticonInfo@@PAU1@@std@@YA?AU_Scalar_ptr_iterator_tag@0@PAPAUEmoticonInfo@@0@Z PROC ; std::_Ptr_cat<EmoticonInfo *,EmoticonInfo *>, COMDAT

; 516  : 	{	// return pointer category from pointers

  00000	55		 push	 ebp
  00001	8b ec		 mov	 ebp, esp
  00003	51		 push	 ecx

; 517  : 	typename _Ptr_cat_helper<_Elem1, _Elem2>::_Type _Cat;
; 518  : 	return (_Cat);

  00004	8a 45 ff	 mov	 al, BYTE PTR __Cat$[ebp]

; 519  : 	}

  00007	c9		 leave
  00008	c3		 ret	 0
??$_Ptr_cat@PAUEmoticonInfo@@PAU1@@std@@YA?AU_Scalar_ptr_iterator_tag@0@PAPAUEmoticonInfo@@0@Z ENDP ; std::_Ptr_cat<EmoticonInfo *,EmoticonInfo *>
_TEXT	ENDS
PUBLIC	??$_Move@PAPAUEmoticonInfo@@PAPAU1@@std@@YAPAPAUEmoticonInfo@@PAPAU1@00U_Scalar_ptr_iterator_tag@0@@Z ; std::_Move<EmoticonInfo * *,EmoticonInfo * *>
EXTRN	__imp__memmove:PROC
; Function compile flags: /Ogsp
;	COMDAT ??$_Move@PAPAUEmoticonInfo@@PAPAU1@@std@@YAPAPAUEmoticonInfo@@PAPAU1@00U_Scalar_ptr_iterator_tag@0@@Z
_TEXT	SEGMENT
__First$ = 8						; size = 4
__Last$ = 12						; size = 4
__Dest$ = 16						; size = 4
___formal$ = 20						; size = 1
??$_Move@PAPAUEmoticonInfo@@PAPAU1@@std@@YAPAPAUEmoticonInfo@@PAPAU1@00U_Scalar_ptr_iterator_tag@0@@Z PROC ; std::_Move<EmoticonInfo * *,EmoticonInfo * *>, COMDAT

; 2522 : 	{	// move [_First, _Last) to [_Dest, ...), pointers to scalars

  00000	55		 push	 ebp
  00001	8b ec		 mov	 ebp, esp
  00003	56		 push	 esi

; 2523 : 	ptrdiff_t _Count = _Last - _First;

  00004	8b 75 0c	 mov	 esi, DWORD PTR __Last$[ebp]
  00007	2b 75 08	 sub	 esi, DWORD PTR __First$[ebp]
  0000a	57		 push	 edi

; 2524 : 	_CSTD memmove(&*_Dest, &*_First,
; 2525 : 		_Count * sizeof (*_First));

  0000b	8b 7d 10	 mov	 edi, DWORD PTR __Dest$[ebp]
  0000e	c1 fe 02	 sar	 esi, 2
  00011	c1 e6 02	 shl	 esi, 2
  00014	56		 push	 esi
  00015	ff 75 08	 push	 DWORD PTR __First$[ebp]
  00018	57		 push	 edi
  00019	ff 15 00 00 00
	00		 call	 DWORD PTR __imp__memmove
  0001f	83 c4 0c	 add	 esp, 12			; 0000000cH

; 2526 : 	return (_Dest + _Count);

  00022	8d 04 3e	 lea	 eax, DWORD PTR [esi+edi]
  00025	5f		 pop	 edi
  00026	5e		 pop	 esi

; 2527 : 	}

  00027	5d		 pop	 ebp
  00028	c3		 ret	 0
??$_Move@PAPAUEmoticonInfo@@PAPAU1@@std@@YAPAPAUEmoticonInfo@@PAPAU1@00U_Scalar_ptr_iterator_tag@0@@Z ENDP ; std::_Move<EmoticonInfo * *,EmoticonInfo * *>
_TEXT	ENDS
PUBLIC	??$_Destroy_range@V?$allocator@PAUEmoticonInfo@@@std@@@std@@YAXPAPAUEmoticonInfo@@0AAV?$allocator@PAUEmoticonInfo@@@0@U_Scalar_ptr_iterator_tag@0@@Z ; std::_Destroy_range<std::allocator<EmoticonInfo *> >
; Function compile flags: /Ogsp
; File c:\program files (x86)\microsoft visual studio 10.0\vc\include\xmemory
;	COMDAT ??$_Destroy_range@V?$allocator@PAUEmoticonInfo@@@std@@@std@@YAXPAPAUEmoticonInfo@@0AAV?$allocator@PAUEmoticonInfo@@@0@U_Scalar_ptr_iterator_tag@0@@Z
_TEXT	SEGMENT
__First$ = 8						; size = 4
__Last$ = 12						; size = 4
__Al$ = 16						; size = 4
___formal$ = 20						; size = 1
??$_Destroy_range@V?$allocator@PAUEmoticonInfo@@@std@@@std@@YAXPAPAUEmoticonInfo@@0AAV?$allocator@PAUEmoticonInfo@@@0@U_Scalar_ptr_iterator_tag@0@@Z PROC ; std::_Destroy_range<std::allocator<EmoticonInfo *> >, COMDAT

; 105  : 	}

  00000	c3		 ret	 0
??$_Destroy_range@V?$allocator@PAUEmoticonInfo@@@std@@@std@@YAXPAPAUEmoticonInfo@@0AAV?$allocator@PAUEmoticonInfo@@@0@U_Scalar_ptr_iterator_tag@0@@Z ENDP ; std::_Destroy_range<std::allocator<EmoticonInfo *> >
_TEXT	ENDS
PUBLIC	??$_Construct@PAUEmoticonInfo@@ABQAU1@@std@@YAXPAPAUEmoticonInfo@@ABQAU1@@Z ; std::_Construct<EmoticonInfo *,EmoticonInfo * const &>
; Function compile flags: /Ogsp
;	COMDAT ??$_Construct@PAUEmoticonInfo@@ABQAU1@@std@@YAXPAPAUEmoticonInfo@@ABQAU1@@Z
_TEXT	SEGMENT
__Ptr$ = 8						; size = 4
__Val$ = 12						; size = 4
??$_Construct@PAUEmoticonInfo@@ABQAU1@@std@@YAXPAPAUEmoticonInfo@@ABQAU1@@Z PROC ; std::_Construct<EmoticonInfo *,EmoticonInfo * const &>, COMDAT

; 46   : 	{	// construct object at _Ptr with value _Val

  00000	55		 push	 ebp
  00001	8b ec		 mov	 ebp, esp

; 47   : 	void _FARQ *_Vptr = _Ptr;
; 48   : 	::new (_Vptr) _Ty1(_STD forward<_Ty2>(_Val));

  00003	8b 45 08	 mov	 eax, DWORD PTR __Ptr$[ebp]
  00006	85 c0		 test	 eax, eax
  00008	74 07		 je	 SHORT $LN3@Construct
  0000a	8b 4d 0c	 mov	 ecx, DWORD PTR __Val$[ebp]
  0000d	8b 09		 mov	 ecx, DWORD PTR [ecx]
  0000f	89 08		 mov	 DWORD PTR [eax], ecx
$LN3@Construct:

; 49   : 	}

  00011	5d		 pop	 ebp
  00012	c3		 ret	 0
??$_Construct@PAUEmoticonInfo@@ABQAU1@@std@@YAXPAPAUEmoticonInfo@@ABQAU1@@Z ENDP ; std::_Construct<EmoticonInfo *,EmoticonInfo * const &>
_TEXT	ENDS
PUBLIC	?_Unchecked@?$_Vector_iterator@V?$_Vector_val@PAUEmoticonInfo@@V?$allocator@PAUEmoticonInfo@@@std@@@std@@@std@@QBEPAPAUEmoticonInfo@@XZ ; std::_Vector_iterator<std::_Vector_val<EmoticonInfo *,std::allocator<EmoticonInfo *> > >::_Unchecked
; Function compile flags: /Ogsp
; File c:\program files (x86)\microsoft visual studio 10.0\vc\include\vector
;	COMDAT ?_Unchecked@?$_Vector_iterator@V?$_Vector_val@PAUEmoticonInfo@@V?$allocator@PAUEmoticonInfo@@@std@@@std@@@std@@QBEPAPAUEmoticonInfo@@XZ
_TEXT	SEGMENT
?_Unchecked@?$_Vector_iterator@V?$_Vector_val@PAUEmoticonInfo@@V?$allocator@PAUEmoticonInfo@@@std@@@std@@@std@@QBEPAPAUEmoticonInfo@@XZ PROC ; std::_Vector_iterator<std::_Vector_val<EmoticonInfo *,std::allocator<EmoticonInfo *> > >::_Unchecked, COMDAT
; _this$ = ecx

; 317  : 		return (_Unchecked_type(this->_Ptr));

  00000	8b 01		 mov	 eax, DWORD PTR [ecx]

; 318  : 		}

  00002	c3		 ret	 0
?_Unchecked@?$_Vector_iterator@V?$_Vector_val@PAUEmoticonInfo@@V?$allocator@PAUEmoticonInfo@@@std@@@std@@@std@@QBEPAPAUEmoticonInfo@@XZ ENDP ; std::_Vector_iterator<std::_Vector_val<EmoticonInfo *,std::allocator<EmoticonInfo *> > >::_Unchecked
_TEXT	ENDS
PUBLIC	??$_Val_type@PAVioHashString@@@std@@YAPAVioHashString@@PAV1@@Z ; std::_Val_type<ioHashString *>
; Function compile flags: /Ogsp
; File c:\program files (x86)\microsoft visual studio 10.0\vc\include\xutility
;	COMDAT ??$_Val_type@PAVioHashString@@@std@@YAPAVioHashString@@PAV1@@Z
_TEXT	SEGMENT
___formal$ = 8						; size = 4
??$_Val_type@PAVioHashString@@@std@@YAPAVioHashString@@PAV1@@Z PROC ; std::_Val_type<ioHashString *>, COMDAT

; 790  : 	return (0);

  00000	33 c0		 xor	 eax, eax

; 791  : 	}

  00002	c3		 ret	 0
??$_Val_type@PAVioHashString@@@std@@YAPAVioHashString@@PAV1@@Z ENDP ; std::_Val_type<ioHashString *>
_TEXT	ENDS
PUBLIC	??$_Val_type@PAPAUEmoticonInfo@@@std@@YAPAPAUEmoticonInfo@@PAPAU1@@Z ; std::_Val_type<EmoticonInfo * *>
; Function compile flags: /Ogsp
;	COMDAT ??$_Val_type@PAPAUEmoticonInfo@@@std@@YAPAPAUEmoticonInfo@@PAPAU1@@Z
_TEXT	SEGMENT
___formal$ = 8						; size = 4
??$_Val_type@PAPAUEmoticonInfo@@@std@@YAPAPAUEmoticonInfo@@PAPAU1@@Z PROC ; std::_Val_type<EmoticonInfo * *>, COMDAT

; 790  : 	return (0);

  00000	33 c0		 xor	 eax, eax

; 791  : 	}

  00002	c3		 ret	 0
??$_Val_type@PAPAUEmoticonInfo@@@std@@YAPAPAUEmoticonInfo@@PAPAU1@@Z ENDP ; std::_Val_type<EmoticonInfo * *>
_TEXT	ENDS
PUBLIC	??$_Uninit_move@PAUEmoticonInfo@@PAU1@PAU1@@std@@YAPAPAUEmoticonInfo@@PAPAU1@00AAV?$allocator@PAUEmoticonInfo@@@0@0U_Scalar_ptr_iterator_tag@0@@Z ; std::_Uninit_move<EmoticonInfo *,EmoticonInfo *,EmoticonInfo *>
; Function compile flags: /Ogsp
; File c:\program files (x86)\microsoft visual studio 10.0\vc\include\memory
;	COMDAT ??$_Uninit_move@PAUEmoticonInfo@@PAU1@PAU1@@std@@YAPAPAUEmoticonInfo@@PAPAU1@00AAV?$allocator@PAUEmoticonInfo@@@0@0U_Scalar_ptr_iterator_tag@0@@Z
_TEXT	SEGMENT
__First$ = 8						; size = 4
__Last$ = 12						; size = 4
__Dest$ = 16						; size = 4
___formal$ = 20						; size = 4
___formal$ = 24						; size = 4
___formal$ = 28						; size = 1
??$_Uninit_move@PAUEmoticonInfo@@PAU1@PAU1@@std@@YAPAPAUEmoticonInfo@@PAPAU1@00AAV?$allocator@PAUEmoticonInfo@@@0@0U_Scalar_ptr_iterator_tag@0@@Z PROC ; std::_Uninit_move<EmoticonInfo *,EmoticonInfo *,EmoticonInfo *>, COMDAT

; 456  : 	{	// move [_First, _Last) to raw _Dest, scalar type

  00000	55		 push	 ebp
  00001	8b ec		 mov	 ebp, esp
  00003	56		 push	 esi

; 457  : 	_DEBUG_RANGE(_First, _Last);
; 458  : 	_DEBUG_POINTER(_Dest);
; 459  : 	size_t _Count = (size_t)(_Last - _First);

  00004	8b 75 0c	 mov	 esi, DWORD PTR __Last$[ebp]
  00007	2b 75 08	 sub	 esi, DWORD PTR __First$[ebp]
  0000a	c1 fe 02	 sar	 esi, 2

; 460  : 	return ((_Ty2 *)_CSTD memmove(&*_Dest, &*_First,
; 461  : 		_Count * sizeof (*_First)) + _Count);	// NB: non-overlapping move

  0000d	c1 e6 02	 shl	 esi, 2
  00010	56		 push	 esi
  00011	ff 75 08	 push	 DWORD PTR __First$[ebp]
  00014	ff 75 10	 push	 DWORD PTR __Dest$[ebp]
  00017	ff 15 00 00 00
	00		 call	 DWORD PTR __imp__memmove
  0001d	83 c4 0c	 add	 esp, 12			; 0000000cH
  00020	03 c6		 add	 eax, esi
  00022	5e		 pop	 esi

; 462  : 	}

  00023	5d		 pop	 ebp
  00024	c3		 ret	 0
??$_Uninit_move@PAUEmoticonInfo@@PAU1@PAU1@@std@@YAPAPAUEmoticonInfo@@PAPAU1@00AAV?$allocator@PAUEmoticonInfo@@@0@0U_Scalar_ptr_iterator_tag@0@@Z ENDP ; std::_Uninit_move<EmoticonInfo *,EmoticonInfo *,EmoticonInfo *>
_TEXT	ENDS
PUBLIC	??$_Unchecked@PAPAUEmoticonInfo@@@std@@YAPAPAUEmoticonInfo@@PAPAU1@@Z ; std::_Unchecked<EmoticonInfo * *>
; Function compile flags: /Ogsp
; File c:\program files (x86)\microsoft visual studio 10.0\vc\include\xutility
;	COMDAT ??$_Unchecked@PAPAUEmoticonInfo@@@std@@YAPAPAUEmoticonInfo@@PAPAU1@@Z
_TEXT	SEGMENT
__Src$ = 8						; size = 4
??$_Unchecked@PAPAUEmoticonInfo@@@std@@YAPAPAUEmoticonInfo@@PAPAU1@@Z PROC ; std::_Unchecked<EmoticonInfo * *>, COMDAT

; 266  : 	{	// construct unchecked from checked, generic

  00000	55		 push	 ebp
  00001	8b ec		 mov	 ebp, esp

; 267  : 	return (_Src);

  00003	8b 45 08	 mov	 eax, DWORD PTR __Src$[ebp]

; 268  : 	}

  00006	5d		 pop	 ebp
  00007	c3		 ret	 0
??$_Unchecked@PAPAUEmoticonInfo@@@std@@YAPAPAUEmoticonInfo@@PAPAU1@@Z ENDP ; std::_Unchecked<EmoticonInfo * *>
_TEXT	ENDS
PUBLIC	??$_Dist_type@PAPAUEmoticonInfo@@@std@@YAPAHPAPAUEmoticonInfo@@@Z ; std::_Dist_type<EmoticonInfo * *>
; Function compile flags: /Ogsp
;	COMDAT ??$_Dist_type@PAPAUEmoticonInfo@@@std@@YAPAHPAPAUEmoticonInfo@@@Z
_TEXT	SEGMENT
___formal$ = 8						; size = 4
??$_Dist_type@PAPAUEmoticonInfo@@@std@@YAPAHPAPAUEmoticonInfo@@@Z PROC ; std::_Dist_type<EmoticonInfo * *>, COMDAT

; 850  : 	return (0);

  00000	33 c0		 xor	 eax, eax

; 851  : 	}

  00002	c3		 ret	 0
??$_Dist_type@PAPAUEmoticonInfo@@@std@@YAPAHPAPAUEmoticonInfo@@@Z ENDP ; std::_Dist_type<EmoticonInfo * *>
_TEXT	ENDS
PUBLIC	??$forward@AAPAPAUEmoticonInfo@@@std@@YAAAPAPAUEmoticonInfo@@AAPAPAU1@@Z ; std::forward<EmoticonInfo * * &>
; Function compile flags: /Ogsp
; File c:\program files (x86)\microsoft visual studio 10.0\vc\include\utility
;	COMDAT ??$forward@AAPAPAUEmoticonInfo@@@std@@YAAAPAPAUEmoticonInfo@@AAPAPAU1@@Z
_TEXT	SEGMENT
__Arg$ = 8						; size = 4
??$forward@AAPAPAUEmoticonInfo@@@std@@YAAAPAPAUEmoticonInfo@@AAPAPAU1@@Z PROC ; std::forward<EmoticonInfo * * &>, COMDAT

; 78   : 	{	// forward _Arg, given explicitly specified type parameter

  00000	55		 push	 ebp
  00001	8b ec		 mov	 ebp, esp

; 79   : 	return ((_Ty&&)_Arg);

  00003	8b 45 08	 mov	 eax, DWORD PTR __Arg$[ebp]

; 80   : 	}

  00006	5d		 pop	 ebp
  00007	c3		 ret	 0
??$forward@AAPAPAUEmoticonInfo@@@std@@YAAAPAPAUEmoticonInfo@@AAPAPAU1@@Z ENDP ; std::forward<EmoticonInfo * * &>
_TEXT	ENDS
PUBLIC	??$?0AAPAPAUEmoticonInfo@@AAPAPAU0@@?$_Pair_base@PAPAUEmoticonInfo@@PAPAU1@@std@@QAE@AAPAPAUEmoticonInfo@@0@Z ; std::_Pair_base<EmoticonInfo * *,EmoticonInfo * *>::_Pair_base<EmoticonInfo * *,EmoticonInfo * *><EmoticonInfo * * &,EmoticonInfo * * &>
; Function compile flags: /Ogsp
;	COMDAT ??$?0AAPAPAUEmoticonInfo@@AAPAPAU0@@?$_Pair_base@PAPAUEmoticonInfo@@PAPAU1@@std@@QAE@AAPAPAUEmoticonInfo@@0@Z
_TEXT	SEGMENT
__Val1$ = 8						; size = 4
__Val2$ = 12						; size = 4
??$?0AAPAPAUEmoticonInfo@@AAPAPAU0@@?$_Pair_base@PAPAUEmoticonInfo@@PAPAU1@@std@@QAE@AAPAPAUEmoticonInfo@@0@Z PROC ; std::_Pair_base<EmoticonInfo * *,EmoticonInfo * *>::_Pair_base<EmoticonInfo * *,EmoticonInfo * *><EmoticonInfo * * &,EmoticonInfo * * &>, COMDAT
; _this$ = ecx

; 163  : 		{	// construct from moved values

  00000	55		 push	 ebp
  00001	8b ec		 mov	 ebp, esp
  00003	8b c1		 mov	 eax, ecx
  00005	8b 4d 08	 mov	 ecx, DWORD PTR __Val1$[ebp]
  00008	8b 09		 mov	 ecx, DWORD PTR [ecx]
  0000a	89 08		 mov	 DWORD PTR [eax], ecx
  0000c	8b 4d 0c	 mov	 ecx, DWORD PTR __Val2$[ebp]
  0000f	8b 09		 mov	 ecx, DWORD PTR [ecx]
  00011	89 48 04	 mov	 DWORD PTR [eax+4], ecx

; 164  : 		}

  00014	5d		 pop	 ebp
  00015	c2 08 00	 ret	 8
??$?0AAPAPAUEmoticonInfo@@AAPAPAU0@@?$_Pair_base@PAPAUEmoticonInfo@@PAPAU1@@std@@QAE@AAPAPAUEmoticonInfo@@0@Z ENDP ; std::_Pair_base<EmoticonInfo * *,EmoticonInfo * *>::_Pair_base<EmoticonInfo * *,EmoticonInfo * *><EmoticonInfo * * &,EmoticonInfo * * &>
_TEXT	ENDS
PUBLIC	??$_Move@AAPAUEmoticonInfo@@@std@@YA$$QAPAUEmoticonInfo@@AAPAU1@@Z ; std::_Move<EmoticonInfo * &>
; Function compile flags: /Ogsp
;	COMDAT ??$_Move@AAPAUEmoticonInfo@@@std@@YA$$QAPAUEmoticonInfo@@AAPAU1@@Z
_TEXT	SEGMENT
__Arg$ = 8						; size = 4
??$_Move@AAPAUEmoticonInfo@@@std@@YA$$QAPAUEmoticonInfo@@AAPAU1@@Z PROC ; std::_Move<EmoticonInfo * &>, COMDAT

; 94   : 	{	// forward _Arg as movable

  00000	55		 push	 ebp
  00001	8b ec		 mov	 ebp, esp

; 95   : 	return ((typename tr1::_Remove_reference<_Ty>::_Type&&)_Arg);

  00003	8b 45 08	 mov	 eax, DWORD PTR __Arg$[ebp]

; 96   : 	}

  00006	5d		 pop	 ebp
  00007	c3		 ret	 0
??$_Move@AAPAUEmoticonInfo@@@std@@YA$$QAPAUEmoticonInfo@@AAPAU1@@Z ENDP ; std::_Move<EmoticonInfo * &>
_TEXT	ENDS
PUBLIC	??$forward@VioHashString@@@std@@YA$$QAVioHashString@@AAV1@@Z ; std::forward<ioHashString>
; Function compile flags: /Ogsp
;	COMDAT ??$forward@VioHashString@@@std@@YA$$QAVioHashString@@AAV1@@Z
_TEXT	SEGMENT
__Arg$ = 8						; size = 4
??$forward@VioHashString@@@std@@YA$$QAVioHashString@@AAV1@@Z PROC ; std::forward<ioHashString>, COMDAT

; 78   : 	{	// forward _Arg, given explicitly specified type parameter

  00000	55		 push	 ebp
  00001	8b ec		 mov	 ebp, esp

; 79   : 	return ((_Ty&&)_Arg);

  00003	8b 45 08	 mov	 eax, DWORD PTR __Arg$[ebp]

; 80   : 	}

  00006	5d		 pop	 ebp
  00007	c3		 ret	 0
??$forward@VioHashString@@@std@@YA$$QAVioHashString@@AAV1@@Z ENDP ; std::forward<ioHashString>
_TEXT	ENDS
PUBLIC	??$_Push_heap@PAPAUEmoticonInfo@@HPAU1@VEmoticonInfoSort@@@std@@YAXPAPAUEmoticonInfo@@HH$$QAPAU1@VEmoticonInfoSort@@@Z ; std::_Push_heap<EmoticonInfo * *,int,EmoticonInfo *,EmoticonInfoSort>
; Function compile flags: /Ogsp
; File c:\program files (x86)\microsoft visual studio 10.0\vc\include\algorithm
;	COMDAT ??$_Push_heap@PAPAUEmoticonInfo@@HPAU1@VEmoticonInfoSort@@@std@@YAXPAPAUEmoticonInfo@@HH$$QAPAU1@VEmoticonInfoSort@@@Z
_TEXT	SEGMENT
__First$ = 8						; size = 4
__Hole$ = 12						; size = 4
__Top$ = 16						; size = 4
__Val$ = 20						; size = 4
__Pred$ = 24						; size = 1
??$_Push_heap@PAPAUEmoticonInfo@@HPAU1@VEmoticonInfoSort@@@std@@YAXPAPAUEmoticonInfo@@HH$$QAPAU1@VEmoticonInfoSort@@@Z PROC ; std::_Push_heap<EmoticonInfo * *,int,EmoticonInfo *,EmoticonInfoSort>, COMDAT

; 2455 : 	{	// percolate _Hole to _Top or where _Val belongs, using operator<

  00000	55		 push	 ebp
  00001	8b ec		 mov	 ebp, esp
  00003	53		 push	 ebx

; 2456 : 	for (_Diff _Idx = (_Hole - 1) / 2;
; 2457 : 		_Top < _Hole && _DEBUG_LT_PRED(_Pred, *(_First + _Idx), _Val);
; 2458 : 		_Idx = (_Hole - 1) / 2)

  00004	8b 5d 08	 mov	 ebx, DWORD PTR __First$[ebp]
  00007	56		 push	 esi
  00008	57		 push	 edi
  00009	8b 7d 0c	 mov	 edi, DWORD PTR __Hole$[ebp]
  0000c	8d 47 ff	 lea	 eax, DWORD PTR [edi-1]
  0000f	99		 cdq
  00010	2b c2		 sub	 eax, edx
  00012	8b f0		 mov	 esi, eax
  00014	d1 fe		 sar	 esi, 1
  00016	eb 26		 jmp	 SHORT $LN12@Push_heap
$LL3@Push_heap:
  00018	8b 45 14	 mov	 eax, DWORD PTR __Val$[ebp]
  0001b	ff 30		 push	 DWORD PTR [eax]
  0001d	8d 4d 18	 lea	 ecx, DWORD PTR __Pred$[ebp]
  00020	ff 34 b3	 push	 DWORD PTR [ebx+esi*4]
  00023	e8 00 00 00 00	 call	 ??REmoticonInfoSort@@QBE_NPBUEmoticonInfo@@0@Z ; EmoticonInfoSort::operator()
  00028	84 c0		 test	 al, al
  0002a	74 17		 je	 SHORT $LN1@Push_heap

; 2459 : 		{	// move _Hole up to parent
; 2460 : 		*(_First + _Hole) = _Move(*(_First + _Idx));

  0002c	8b 04 b3	 mov	 eax, DWORD PTR [ebx+esi*4]
  0002f	89 04 bb	 mov	 DWORD PTR [ebx+edi*4], eax
  00032	8d 46 ff	 lea	 eax, DWORD PTR [esi-1]
  00035	99		 cdq
  00036	2b c2		 sub	 eax, edx
  00038	d1 f8		 sar	 eax, 1

; 2461 : 		_Hole = _Idx;

  0003a	8b fe		 mov	 edi, esi
  0003c	8b f0		 mov	 esi, eax
$LN12@Push_heap:

; 2456 : 	for (_Diff _Idx = (_Hole - 1) / 2;
; 2457 : 		_Top < _Hole && _DEBUG_LT_PRED(_Pred, *(_First + _Idx), _Val);
; 2458 : 		_Idx = (_Hole - 1) / 2)

  0003e	39 7d 10	 cmp	 DWORD PTR __Top$[ebp], edi
  00041	7c d5		 jl	 SHORT $LL3@Push_heap
$LN1@Push_heap:

; 2462 : 		}
; 2463 : 
; 2464 : 	*(_First + _Hole) = _Move(_Val);	// drop _Val into final hole

  00043	8b 45 14	 mov	 eax, DWORD PTR __Val$[ebp]
  00046	8b 00		 mov	 eax, DWORD PTR [eax]
  00048	89 04 bb	 mov	 DWORD PTR [ebx+edi*4], eax
  0004b	5f		 pop	 edi
  0004c	5e		 pop	 esi
  0004d	5b		 pop	 ebx

; 2465 : 	}

  0004e	5d		 pop	 ebp
  0004f	c3		 ret	 0
??$_Push_heap@PAPAUEmoticonInfo@@HPAU1@VEmoticonInfoSort@@@std@@YAXPAPAUEmoticonInfo@@HH$$QAPAU1@VEmoticonInfoSort@@@Z ENDP ; std::_Push_heap<EmoticonInfo * *,int,EmoticonInfo *,EmoticonInfoSort>
_TEXT	ENDS
PUBLIC	??$_Move_backward@PAPAUEmoticonInfo@@PAPAU1@@std@@YAPAPAUEmoticonInfo@@PAPAU1@00U_Scalar_ptr_iterator_tag@0@@Z ; std::_Move_backward<EmoticonInfo * *,EmoticonInfo * *>
; Function compile flags: /Ogsp
; File c:\program files (x86)\microsoft visual studio 10.0\vc\include\xutility
;	COMDAT ??$_Move_backward@PAPAUEmoticonInfo@@PAPAU1@@std@@YAPAPAUEmoticonInfo@@PAPAU1@00U_Scalar_ptr_iterator_tag@0@@Z
_TEXT	SEGMENT
__First$ = 8						; size = 4
__Last$ = 12						; size = 4
__Dest$ = 16						; size = 4
___formal$ = 20						; size = 1
??$_Move_backward@PAPAUEmoticonInfo@@PAPAU1@@std@@YAPAPAUEmoticonInfo@@PAPAU1@00U_Scalar_ptr_iterator_tag@0@@Z PROC ; std::_Move_backward<EmoticonInfo * *,EmoticonInfo * *>, COMDAT

; 2627 : 	{	// move [_First, _Last) backwards to [..., _Dest), pointers to scalars

  00000	55		 push	 ebp
  00001	8b ec		 mov	 ebp, esp

; 2628 : 	ptrdiff_t _Count = _Last - _First;

  00003	8b 45 0c	 mov	 eax, DWORD PTR __Last$[ebp]
  00006	2b 45 08	 sub	 eax, DWORD PTR __First$[ebp]
  00009	56		 push	 esi

; 2629 : 	_CSTD memmove(&*_Dest - _Count, &*_First,
; 2630 : 		_Count * sizeof (*_First));

  0000a	8b 75 10	 mov	 esi, DWORD PTR __Dest$[ebp]
  0000d	83 e0 fc	 and	 eax, -4			; fffffffcH
  00010	50		 push	 eax
  00011	ff 75 08	 push	 DWORD PTR __First$[ebp]
  00014	2b f0		 sub	 esi, eax
  00016	56		 push	 esi
  00017	ff 15 00 00 00
	00		 call	 DWORD PTR __imp__memmove
  0001d	83 c4 0c	 add	 esp, 12			; 0000000cH

; 2631 : 	return (_Dest - _Count);

  00020	8b c6		 mov	 eax, esi
  00022	5e		 pop	 esi

; 2632 : 	}

  00023	5d		 pop	 ebp
  00024	c3		 ret	 0
??$_Move_backward@PAPAUEmoticonInfo@@PAPAU1@@std@@YAPAPAUEmoticonInfo@@PAPAU1@00U_Scalar_ptr_iterator_tag@0@@Z ENDP ; std::_Move_backward<EmoticonInfo * *,EmoticonInfo * *>
_TEXT	ENDS
PUBLIC	?_DECSTR@@YAXPADH@Z				; _DECSTR
; Function compile flags: /Ogsp
; File d:\lost saga for developer\youtube\tutorial\source\src\lsclient\stringprotect.h
;	COMDAT ?_DECSTR@@YAXPADH@Z
_TEXT	SEGMENT
_s$ = 8							; size = 4
_l$ = 12						; size = 4
?_DECSTR@@YAXPADH@Z PROC				; _DECSTR, COMDAT

; 40   : __forceinline void _DECSTR(char* s, int l){int i=0,l4=(l-1)/4,*p=(int*)s;s[l-1]=0;for(;i<l4;++i)*(p++)^=0xEAEBECED;for(i=l4*4;i<l-1;++i)s[i]^=0xED-i%4;}

  00000	55		 push	 ebp
  00001	8b ec		 mov	 ebp, esp
  00003	8b 4d 0c	 mov	 ecx, DWORD PTR _l$[ebp]
  00006	56		 push	 esi
  00007	8b 75 08	 mov	 esi, DWORD PTR _s$[ebp]
  0000a	57		 push	 edi
  0000b	8d 79 ff	 lea	 edi, DWORD PTR [ecx-1]
  0000e	8b c7		 mov	 eax, edi
  00010	99		 cdq
  00011	83 e2 03	 and	 edx, 3
  00014	03 c2		 add	 eax, edx
  00016	c1 f8 02	 sar	 eax, 2
  00019	8b d6		 mov	 edx, esi
  0001b	c6 44 0e ff 00	 mov	 BYTE PTR [esi+ecx-1], 0
  00020	85 c0		 test	 eax, eax
  00022	7e 0e		 jle	 SHORT $LN4@DECSTR
  00024	8b c8		 mov	 ecx, eax
$LL6@DECSTR:
  00026	81 32 ed ec eb
	ea		 xor	 DWORD PTR [edx], -353637139 ; eaebecedH
  0002c	83 c2 04	 add	 edx, 4
  0002f	49		 dec	 ecx
  00030	75 f4		 jne	 SHORT $LL6@DECSTR
$LN4@DECSTR:
  00032	c1 e0 02	 shl	 eax, 2
  00035	eb 17		 jmp	 SHORT $LN14@DECSTR
$LL3@DECSTR:
  00037	8b c8		 mov	 ecx, eax
  00039	81 e1 03 00 00
	80		 and	 ecx, -2147483645	; 80000003H
  0003f	79 05		 jns	 SHORT $LN13@DECSTR
  00041	49		 dec	 ecx
  00042	83 c9 fc	 or	 ecx, -4			; fffffffcH
  00045	41		 inc	 ecx
$LN13@DECSTR:
  00046	b2 ed		 mov	 dl, -19			; ffffffedH
  00048	2a d1		 sub	 dl, cl
  0004a	30 14 30	 xor	 BYTE PTR [eax+esi], dl
  0004d	40		 inc	 eax
$LN14@DECSTR:
  0004e	3b c7		 cmp	 eax, edi
  00050	7c e5		 jl	 SHORT $LL3@DECSTR
  00052	5f		 pop	 edi
  00053	5e		 pop	 esi
  00054	5d		 pop	 ebp
  00055	c3		 ret	 0
?_DECSTR@@YAXPADH@Z ENDP				; _DECSTR
_TEXT	ENDS
PUBLIC	?size@?$vector@VioHashString@@V?$allocator@VioHashString@@@std@@@std@@QBEIXZ ; std::vector<ioHashString,std::allocator<ioHashString> >::size
; Function compile flags: /Ogsp
; File c:\program files (x86)\microsoft visual studio 10.0\vc\include\vector
;	COMDAT ?size@?$vector@VioHashString@@V?$allocator@VioHashString@@@std@@@std@@QBEIXZ
_TEXT	SEGMENT
?size@?$vector@VioHashString@@V?$allocator@VioHashString@@@std@@@std@@QBEIXZ PROC ; std::vector<ioHashString,std::allocator<ioHashString> >::size, COMDAT
; _this$ = ecx

; 879  : 		return (this->_Mylast - this->_Myfirst);

  00000	8b 41 04	 mov	 eax, DWORD PTR [ecx+4]
  00003	2b 01		 sub	 eax, DWORD PTR [ecx]
  00005	c1 f8 04	 sar	 eax, 4

; 880  : 		}

  00008	c3		 ret	 0
?size@?$vector@VioHashString@@V?$allocator@VioHashString@@@std@@@std@@QBEIXZ ENDP ; std::vector<ioHashString,std::allocator<ioHashString> >::size
_TEXT	ENDS
PUBLIC	?empty@?$vector@UtagTextPiece@ioComplexStringPrinter@@V?$allocator@UtagTextPiece@ioComplexStringPrinter@@@std@@@std@@QBE_NXZ ; std::vector<ioComplexStringPrinter::tagTextPiece,std::allocator<ioComplexStringPrinter::tagTextPiece> >::empty
; Function compile flags: /Ogsp
;	COMDAT ?empty@?$vector@UtagTextPiece@ioComplexStringPrinter@@V?$allocator@UtagTextPiece@ioComplexStringPrinter@@@std@@@std@@QBE_NXZ
_TEXT	SEGMENT
?empty@?$vector@UtagTextPiece@ioComplexStringPrinter@@V?$allocator@UtagTextPiece@ioComplexStringPrinter@@@std@@@std@@QBE_NXZ PROC ; std::vector<ioComplexStringPrinter::tagTextPiece,std::allocator<ioComplexStringPrinter::tagTextPiece> >::empty, COMDAT
; _this$ = ecx

; 889  : 		return (this->_Myfirst == this->_Mylast);

  00000	8b 01		 mov	 eax, DWORD PTR [ecx]
  00002	2b 41 04	 sub	 eax, DWORD PTR [ecx+4]
  00005	f7 d8		 neg	 eax
  00007	1b c0		 sbb	 eax, eax
  00009	40		 inc	 eax

; 890  : 		}

  0000a	c3		 ret	 0
?empty@?$vector@UtagTextPiece@ioComplexStringPrinter@@V?$allocator@UtagTextPiece@ioComplexStringPrinter@@@std@@@std@@QBE_NXZ ENDP ; std::vector<ioComplexStringPrinter::tagTextPiece,std::allocator<ioComplexStringPrinter::tagTextPiece> >::empty
_TEXT	ENDS
PUBLIC	??1?$_Vector_val@VioHashString@@V?$allocator@VioHashString@@@std@@@std@@QAE@XZ ; std::_Vector_val<ioHashString,std::allocator<ioHashString> >::~_Vector_val<ioHashString,std::allocator<ioHashString> >
; Function compile flags: /Ogsp
;	COMDAT ??1?$_Vector_val@VioHashString@@V?$allocator@VioHashString@@@std@@@std@@QAE@XZ
_TEXT	SEGMENT
??1?$_Vector_val@VioHashString@@V?$allocator@VioHashString@@@std@@@std@@QAE@XZ PROC ; std::_Vector_val<ioHashString,std::allocator<ioHashString> >::~_Vector_val<ioHashString,std::allocator<ioHashString> >, COMDAT
; _this$ = ecx

; 434  : 		}

  00000	c3		 ret	 0
??1?$_Vector_val@VioHashString@@V?$allocator@VioHashString@@@std@@@std@@QAE@XZ ENDP ; std::_Vector_val<ioHashString,std::allocator<ioHashString> >::~_Vector_val<ioHashString,std::allocator<ioHashString> >
_TEXT	ENDS
PUBLIC	??0?$allocator@VioHashString@@@std@@QAE@XZ	; std::allocator<ioHashString>::allocator<ioHashString>
; Function compile flags: /Ogsp
; File c:\program files (x86)\microsoft visual studio 10.0\vc\include\xmemory
;	COMDAT ??0?$allocator@VioHashString@@@std@@QAE@XZ
_TEXT	SEGMENT
??0?$allocator@VioHashString@@@std@@QAE@XZ PROC		; std::allocator<ioHashString>::allocator<ioHashString>, COMDAT
; _this$ = ecx

; 161  : 	_ALLOCATOR() _THROW0()

  00000	8b c1		 mov	 eax, ecx

; 162  : 		{	// construct default allocator (do nothing)
; 163  : 		}

  00002	c3		 ret	 0
??0?$allocator@VioHashString@@@std@@QAE@XZ ENDP		; std::allocator<ioHashString>::allocator<ioHashString>
_TEXT	ENDS
PUBLIC	??0?$allocator@VioHashString@@@std@@QAE@ABV01@@Z ; std::allocator<ioHashString>::allocator<ioHashString>
; Function compile flags: /Ogsp
;	COMDAT ??0?$allocator@VioHashString@@@std@@QAE@ABV01@@Z
_TEXT	SEGMENT
___formal$ = 8						; size = 4
??0?$allocator@VioHashString@@@std@@QAE@ABV01@@Z PROC	; std::allocator<ioHashString>::allocator<ioHashString>, COMDAT
; _this$ = ecx

; 165  : 	_ALLOCATOR(const _ALLOCATOR<_Ty>&) _THROW0()

  00000	8b c1		 mov	 eax, ecx

; 166  : 		{	// construct by copying (do nothing)
; 167  : 		}

  00002	c2 04 00	 ret	 4
??0?$allocator@VioHashString@@@std@@QAE@ABV01@@Z ENDP	; std::allocator<ioHashString>::allocator<ioHashString>
_TEXT	ENDS
PUBLIC	?_Xlen@?$vector@VioHashString@@V?$allocator@VioHashString@@@std@@@std@@IBEXXZ ; std::vector<ioHashString,std::allocator<ioHashString> >::_Xlen
; Function compile flags: /Ogsp
; File c:\program files (x86)\microsoft visual studio 10.0\vc\include\vector
;	COMDAT ?_Xlen@?$vector@VioHashString@@V?$allocator@VioHashString@@@std@@@std@@IBEXXZ
_TEXT	SEGMENT
?_Xlen@?$vector@VioHashString@@V?$allocator@VioHashString@@@std@@@std@@IBEXXZ PROC ; std::vector<ioHashString,std::allocator<ioHashString> >::_Xlen, COMDAT
; _this$ = ecx

; 1427 : 		_Xlength_error("vector<T> too long");

  00000	68 00 00 00 00	 push	 OFFSET ??_C@_0BD@OLBABOEK@vector?$DMT?$DO?5too?5long?$AA@
  00005	ff 15 00 00 00
	00		 call	 DWORD PTR __imp_?_Xlength_error@std@@YAXPBD@Z
$LN4@Xlen@2:
$LN3@Xlen@2:
  0000b	cc		 int	 3
?_Xlen@?$vector@VioHashString@@V?$allocator@VioHashString@@@std@@@std@@IBEXXZ ENDP ; std::vector<ioHashString,std::allocator<ioHashString> >::_Xlen
_TEXT	ENDS
PUBLIC	?deallocate@?$allocator@VioHashString@@@std@@QAEXPAVioHashString@@I@Z ; std::allocator<ioHashString>::deallocate
; Function compile flags: /Ogsp
; File c:\program files (x86)\microsoft visual studio 10.0\vc\include\xmemory
;	COMDAT ?deallocate@?$allocator@VioHashString@@@std@@QAEXPAVioHashString@@I@Z
_TEXT	SEGMENT
__Ptr$ = 8						; size = 4
___formal$ = 12						; size = 4
?deallocate@?$allocator@VioHashString@@@std@@QAEXPAVioHashString@@I@Z PROC ; std::allocator<ioHashString>::deallocate, COMDAT
; _this$ = ecx

; 181  : 		{	// deallocate object at _Ptr, ignore size

  00000	55		 push	 ebp
  00001	8b ec		 mov	 ebp, esp

; 182  : 		::operator delete(_Ptr);

  00003	ff 75 08	 push	 DWORD PTR __Ptr$[ebp]
  00006	e8 00 00 00 00	 call	 ??3@YAXPAX@Z		; operator delete
  0000b	59		 pop	 ecx

; 183  : 		}

  0000c	5d		 pop	 ebp
  0000d	c2 08 00	 ret	 8
?deallocate@?$allocator@VioHashString@@@std@@QAEXPAVioHashString@@I@Z ENDP ; std::allocator<ioHashString>::deallocate
_TEXT	ENDS
PUBLIC	??0?$_Vector_const_iterator@V?$_Vector_val@VioHashString@@V?$allocator@VioHashString@@@std@@@std@@@std@@QAE@PAVioHashString@@PBU_Container_base0@1@@Z ; std::_Vector_const_iterator<std::_Vector_val<ioHashString,std::allocator<ioHashString> > >::_Vector_const_iterator<std::_Vector_val<ioHashString,std::allocator<ioHashString> > >
; Function compile flags: /Ogsp
; File c:\program files (x86)\microsoft visual studio 10.0\vc\include\vector
;	COMDAT ??0?$_Vector_const_iterator@V?$_Vector_val@VioHashString@@V?$allocator@VioHashString@@@std@@@std@@@std@@QAE@PAVioHashString@@PBU_Container_base0@1@@Z
_TEXT	SEGMENT
__Parg$ = 8						; size = 4
__Pvector$ = 12						; size = 4
??0?$_Vector_const_iterator@V?$_Vector_val@VioHashString@@V?$allocator@VioHashString@@@std@@@std@@@std@@QAE@PAVioHashString@@PBU_Container_base0@1@@Z PROC ; std::_Vector_const_iterator<std::_Vector_val<ioHashString,std::allocator<ioHashString> > >::_Vector_const_iterator<std::_Vector_val<ioHashString,std::allocator<ioHashString> > >, COMDAT
; _this$ = ecx

; 45   : 		{	// construct with pointer _Parg

  00000	55		 push	 ebp
  00001	8b ec		 mov	 ebp, esp
  00003	8b c1		 mov	 eax, ecx
  00005	8b 4d 08	 mov	 ecx, DWORD PTR __Parg$[ebp]
  00008	89 08		 mov	 DWORD PTR [eax], ecx

; 46   : 		this->_Adopt(_Pvector);
; 47   : 		}

  0000a	5d		 pop	 ebp
  0000b	c2 08 00	 ret	 8
??0?$_Vector_const_iterator@V?$_Vector_val@VioHashString@@V?$allocator@VioHashString@@@std@@@std@@@std@@QAE@PAVioHashString@@PBU_Container_base0@1@@Z ENDP ; std::_Vector_const_iterator<std::_Vector_val<ioHashString,std::allocator<ioHashString> > >::_Vector_const_iterator<std::_Vector_val<ioHashString,std::allocator<ioHashString> > >
_TEXT	ENDS
PUBLIC	??0?$_Vector_iterator@V?$_Vector_val@VioHashString@@V?$allocator@VioHashString@@@std@@@std@@@std@@QAE@PAVioHashString@@PBU_Container_base0@1@@Z ; std::_Vector_iterator<std::_Vector_val<ioHashString,std::allocator<ioHashString> > >::_Vector_iterator<std::_Vector_val<ioHashString,std::allocator<ioHashString> > >
; Function compile flags: /Ogsp
;	COMDAT ??0?$_Vector_iterator@V?$_Vector_val@VioHashString@@V?$allocator@VioHashString@@@std@@@std@@@std@@QAE@PAVioHashString@@PBU_Container_base0@1@@Z
_TEXT	SEGMENT
__Parg$ = 8						; size = 4
__Pvector$ = 12						; size = 4
??0?$_Vector_iterator@V?$_Vector_val@VioHashString@@V?$allocator@VioHashString@@@std@@@std@@@std@@QAE@PAVioHashString@@PBU_Container_base0@1@@Z PROC ; std::_Vector_iterator<std::_Vector_val<ioHashString,std::allocator<ioHashString> > >::_Vector_iterator<std::_Vector_val<ioHashString,std::allocator<ioHashString> > >, COMDAT
; _this$ = ecx

; 304  : 		{	// construct with pointer _Parg

  00000	55		 push	 ebp
  00001	8b ec		 mov	 ebp, esp
  00003	8b c1		 mov	 eax, ecx
  00005	8b 4d 08	 mov	 ecx, DWORD PTR __Parg$[ebp]
  00008	89 08		 mov	 DWORD PTR [eax], ecx

; 305  : 		}

  0000a	5d		 pop	 ebp
  0000b	c2 08 00	 ret	 8
??0?$_Vector_iterator@V?$_Vector_val@VioHashString@@V?$allocator@VioHashString@@@std@@@std@@@std@@QAE@PAVioHashString@@PBU_Container_base0@1@@Z ENDP ; std::_Vector_iterator<std::_Vector_val<ioHashString,std::allocator<ioHashString> > >::_Vector_iterator<std::_Vector_val<ioHashString,std::allocator<ioHashString> > >
_TEXT	ENDS
PUBLIC	?max_size@?$allocator@VioHashString@@@std@@QBEIXZ ; std::allocator<ioHashString>::max_size
; Function compile flags: /Ogsp
; File c:\program files (x86)\microsoft visual studio 10.0\vc\include\xmemory
;	COMDAT ?max_size@?$allocator@VioHashString@@@std@@QBEIXZ
_TEXT	SEGMENT
?max_size@?$allocator@VioHashString@@@std@@QBEIXZ PROC	; std::allocator<ioHashString>::max_size, COMDAT
; _this$ = ecx

; 218  : 		_SIZT _Count = (_SIZT)(-1) / sizeof (_Ty);
; 219  : 		return (0 < _Count ? _Count : 1);

  00000	b8 ff ff ff 0f	 mov	 eax, 268435455		; 0fffffffH

; 220  : 		}

  00005	c3		 ret	 0
?max_size@?$allocator@VioHashString@@@std@@QBEIXZ ENDP	; std::allocator<ioHashString>::max_size
_TEXT	ENDS
PUBLIC	?_Compat@?$_Vector_const_iterator@V?$_Vector_val@VioHashString@@V?$allocator@VioHashString@@@std@@@std@@@std@@QBEXABV12@@Z ; std::_Vector_const_iterator<std::_Vector_val<ioHashString,std::allocator<ioHashString> > >::_Compat
; Function compile flags: /Ogsp
; File c:\program files (x86)\microsoft visual studio 10.0\vc\include\vector
;	COMDAT ?_Compat@?$_Vector_const_iterator@V?$_Vector_val@VioHashString@@V?$allocator@VioHashString@@@std@@@std@@@std@@QBEXABV12@@Z
_TEXT	SEGMENT
___formal$ = 8						; size = 4
?_Compat@?$_Vector_const_iterator@V?$_Vector_val@VioHashString@@V?$allocator@VioHashString@@@std@@@std@@@std@@QBEXABV12@@Z PROC ; std::_Vector_const_iterator<std::_Vector_val<ioHashString,std::allocator<ioHashString> > >::_Compat, COMDAT
; _this$ = ecx

; 253  : 		}

  00000	c2 04 00	 ret	 4
?_Compat@?$_Vector_const_iterator@V?$_Vector_val@VioHashString@@V?$allocator@VioHashString@@@std@@@std@@@std@@QBEXABV12@@Z ENDP ; std::_Vector_const_iterator<std::_Vector_val<ioHashString,std::allocator<ioHashString> > >::_Compat
_TEXT	ENDS
PUBLIC	??$_Allocate@VioHashString@@@std@@YAPAVioHashString@@IPAV1@@Z ; std::_Allocate<ioHashString>
; Function compile flags: /Ogsp
; File c:\program files (x86)\microsoft visual studio 10.0\vc\include\xmemory
;	COMDAT ??$_Allocate@VioHashString@@@std@@YAPAVioHashString@@IPAV1@@Z
_TEXT	SEGMENT
$T531398 = -12						; size = 12
$T531402 = 8						; size = 4
__Count$ = 8						; size = 4
___formal$ = 12						; size = 4
??$_Allocate@VioHashString@@@std@@YAPAVioHashString@@IPAV1@@Z PROC ; std::_Allocate<ioHashString>, COMDAT

; 30   : 	{	// allocate storage for _Count elements of type _Ty

  00000	55		 push	 ebp
  00001	8b ec		 mov	 ebp, esp

; 31   : 	void *_Ptr = 0;
; 32   : 
; 33   : 	if (_Count <= 0)

  00003	8b 4d 08	 mov	 ecx, DWORD PTR __Count$[ebp]
  00006	83 ec 0c	 sub	 esp, 12			; 0000000cH
  00009	33 c0		 xor	 eax, eax
  0000b	85 c9		 test	 ecx, ecx

; 34   : 		_Count = 0;
; 35   : 	else if (((_SIZT)(-1) / sizeof (_Ty) < _Count)

  0000d	74 3c		 je	 SHORT $LN5@Allocate@2

; 36   : 		|| (_Ptr = ::operator new(_Count * sizeof (_Ty))) == 0)

  0000f	81 f9 ff ff ff
	0f		 cmp	 ecx, 268435455		; 0fffffffH
  00015	77 0e		 ja	 SHORT $LN1@Allocate@2
  00017	c1 e1 04	 shl	 ecx, 4
  0001a	51		 push	 ecx
  0001b	e8 00 00 00 00	 call	 ??2@YAPAXI@Z		; operator new
  00020	59		 pop	 ecx
  00021	85 c0		 test	 eax, eax

; 38   : 
; 39   : 	return ((_Ty _FARQ *)_Ptr);

  00023	75 26		 jne	 SHORT $LN5@Allocate@2
$LN1@Allocate@2:

; 37   : 		_THROW_NCEE(bad_alloc, 0);

  00025	83 65 08 00	 and	 DWORD PTR $T531402[ebp], 0
  00029	8d 45 08	 lea	 eax, DWORD PTR $T531402[ebp]
  0002c	50		 push	 eax
  0002d	8d 4d f4	 lea	 ecx, DWORD PTR $T531398[ebp]
  00030	ff 15 00 00 00
	00		 call	 DWORD PTR __imp_??0exception@std@@QAE@ABQBD@Z
  00036	68 00 00 00 00	 push	 OFFSET __TI2?AVbad_alloc@std@@
  0003b	8d 45 f4	 lea	 eax, DWORD PTR $T531398[ebp]
  0003e	50		 push	 eax
  0003f	c7 45 f4 00 00
	00 00		 mov	 DWORD PTR $T531398[ebp], OFFSET ??_7bad_alloc@std@@6B@
  00046	e8 00 00 00 00	 call	 __CxxThrowException@8
$LN10@Allocate@2:
$LN5@Allocate@2:

; 40   : 	}

  0004b	c9		 leave
  0004c	c3		 ret	 0
$LN9@Allocate@2:
??$_Allocate@VioHashString@@@std@@YAPAVioHashString@@IPAV1@@Z ENDP ; std::_Allocate<ioHashString>
_TEXT	ENDS
EXTRN	__imp_??0exception@std@@QAE@ABV01@@Z:PROC
; Function compile flags: /Ogsp
;	COMDAT ??0bad_alloc@std@@QAE@ABV01@@Z
_TEXT	SEGMENT
___that$ = 8						; size = 4
??0bad_alloc@std@@QAE@ABV01@@Z PROC			; std::bad_alloc::bad_alloc, COMDAT
; _this$ = ecx
  00000	55		 push	 ebp
  00001	8b ec		 mov	 ebp, esp
  00003	56		 push	 esi
  00004	ff 75 08	 push	 DWORD PTR ___that$[ebp]
  00007	8b f1		 mov	 esi, ecx
  00009	ff 15 00 00 00
	00		 call	 DWORD PTR __imp_??0exception@std@@QAE@ABV01@@Z
  0000f	c7 06 00 00 00
	00		 mov	 DWORD PTR [esi], OFFSET ??_7bad_alloc@std@@6B@
  00015	8b c6		 mov	 eax, esi
  00017	5e		 pop	 esi
  00018	5d		 pop	 ebp
  00019	c2 04 00	 ret	 4
??0bad_alloc@std@@QAE@ABV01@@Z ENDP			; std::bad_alloc::bad_alloc
_TEXT	ENDS
PUBLIC	??$forward@ABVioHashString@@@std@@YAABVioHashString@@ABV1@@Z ; std::forward<ioHashString const &>
; Function compile flags: /Ogsp
; File c:\program files (x86)\microsoft visual studio 10.0\vc\include\utility
;	COMDAT ??$forward@ABVioHashString@@@std@@YAABVioHashString@@ABV1@@Z
_TEXT	SEGMENT
__Arg$ = 8						; size = 4
??$forward@ABVioHashString@@@std@@YAABVioHashString@@ABV1@@Z PROC ; std::forward<ioHashString const &>, COMDAT

; 78   : 	{	// forward _Arg, given explicitly specified type parameter

  00000	55		 push	 ebp
  00001	8b ec		 mov	 ebp, esp

; 79   : 	return ((_Ty&&)_Arg);

  00003	8b 45 08	 mov	 eax, DWORD PTR __Arg$[ebp]

; 80   : 	}

  00006	5d		 pop	 ebp
  00007	c3		 ret	 0
??$forward@ABVioHashString@@@std@@YAABVioHashString@@ABV1@@Z ENDP ; std::forward<ioHashString const &>
_TEXT	ENDS
PUBLIC	??$forward@AAVioHashString@@@std@@YAAAVioHashString@@AAV1@@Z ; std::forward<ioHashString &>
; Function compile flags: /Ogsp
;	COMDAT ??$forward@AAVioHashString@@@std@@YAAAVioHashString@@AAV1@@Z
_TEXT	SEGMENT
__Arg$ = 8						; size = 4
??$forward@AAVioHashString@@@std@@YAAAVioHashString@@AAV1@@Z PROC ; std::forward<ioHashString &>, COMDAT

; 78   : 	{	// forward _Arg, given explicitly specified type parameter

  00000	55		 push	 ebp
  00001	8b ec		 mov	 ebp, esp

; 79   : 	return ((_Ty&&)_Arg);

  00003	8b 45 08	 mov	 eax, DWORD PTR __Arg$[ebp]

; 80   : 	}

  00006	5d		 pop	 ebp
  00007	c3		 ret	 0
??$forward@AAVioHashString@@@std@@YAAAVioHashString@@AAV1@@Z ENDP ; std::forward<ioHashString &>
_TEXT	ENDS
PUBLIC	??$_Ptr_cat@VioHashString@@V1@@std@@YA?AU_Nonscalar_ptr_iterator_tag@0@PAVioHashString@@0@Z ; std::_Ptr_cat<ioHashString,ioHashString>
; Function compile flags: /Ogsp
; File c:\program files (x86)\microsoft visual studio 10.0\vc\include\xutility
;	COMDAT ??$_Ptr_cat@VioHashString@@V1@@std@@YA?AU_Nonscalar_ptr_iterator_tag@0@PAVioHashString@@0@Z
_TEXT	SEGMENT
__Cat$ = -1						; size = 1
___formal$ = 8						; size = 4
___formal$ = 12						; size = 4
??$_Ptr_cat@VioHashString@@V1@@std@@YA?AU_Nonscalar_ptr_iterator_tag@0@PAVioHashString@@0@Z PROC ; std::_Ptr_cat<ioHashString,ioHashString>, COMDAT

; 516  : 	{	// return pointer category from pointers

  00000	55		 push	 ebp
  00001	8b ec		 mov	 ebp, esp
  00003	51		 push	 ecx

; 517  : 	typename _Ptr_cat_helper<_Elem1, _Elem2>::_Type _Cat;
; 518  : 	return (_Cat);

  00004	8a 45 ff	 mov	 al, BYTE PTR __Cat$[ebp]

; 519  : 	}

  00007	c9		 leave
  00008	c3		 ret	 0
??$_Ptr_cat@VioHashString@@V1@@std@@YA?AU_Nonscalar_ptr_iterator_tag@0@PAVioHashString@@0@Z ENDP ; std::_Ptr_cat<ioHashString,ioHashString>
_TEXT	ENDS
PUBLIC	??$move@AAVioHashString@@@std@@YA$$QAVioHashString@@AAV1@@Z ; std::move<ioHashString &>
; Function compile flags: /Ogsp
; File c:\program files (x86)\microsoft visual studio 10.0\vc\include\utility
;	COMDAT ??$move@AAVioHashString@@@std@@YA$$QAVioHashString@@AAV1@@Z
_TEXT	SEGMENT
__Arg$ = 8						; size = 4
??$move@AAVioHashString@@@std@@YA$$QAVioHashString@@AAV1@@Z PROC ; std::move<ioHashString &>, COMDAT

; 86   : 	{	// forward _Arg as movable

  00000	55		 push	 ebp
  00001	8b ec		 mov	 ebp, esp

; 87   : 	return ((typename tr1::_Remove_reference<_Ty>::_Type&&)_Arg);

  00003	8b 45 08	 mov	 eax, DWORD PTR __Arg$[ebp]

; 88   : 	}

  00006	5d		 pop	 ebp
  00007	c3		 ret	 0
??$move@AAVioHashString@@@std@@YA$$QAVioHashString@@AAV1@@Z ENDP ; std::move<ioHashString &>
_TEXT	ENDS
PUBLIC	??_GioHashString@@QAEPAXI@Z			; ioHashString::`scalar deleting destructor'
; Function compile flags: /Ogsp
;	COMDAT ??_GioHashString@@QAEPAXI@Z
_TEXT	SEGMENT
___flags$ = 8						; size = 4
??_GioHashString@@QAEPAXI@Z PROC			; ioHashString::`scalar deleting destructor', COMDAT
; _this$ = ecx
  00000	55		 push	 ebp
  00001	8b ec		 mov	 ebp, esp
  00003	56		 push	 esi
  00004	8b f1		 mov	 esi, ecx
  00006	ff 15 00 00 00
	00		 call	 DWORD PTR __imp_??1ioHashString@@QAE@XZ
  0000c	f6 45 08 01	 test	 BYTE PTR ___flags$[ebp], 1
  00010	74 07		 je	 SHORT $LN1@scalar@3
  00012	56		 push	 esi
  00013	e8 00 00 00 00	 call	 ??3@YAXPAX@Z		; operator delete
  00018	59		 pop	 ecx
$LN1@scalar@3:
  00019	8b c6		 mov	 eax, esi
  0001b	5e		 pop	 esi
  0001c	5d		 pop	 ebp
  0001d	c2 04 00	 ret	 4
??_GioHashString@@QAEPAXI@Z ENDP			; ioHashString::`scalar deleting destructor'
_TEXT	ENDS
PUBLIC	??$_Construct@VioHashString@@ABV1@@std@@YAXPAVioHashString@@ABV1@@Z ; std::_Construct<ioHashString,ioHashString const &>
EXTRN	__imp_??0ioHashString@@QAE@ABV0@@Z:PROC
;	COMDAT xdata$x
xdata$x	SEGMENT
__unwindtable$??$_Construct@VioHashString@@ABV1@@std@@YAXPAVioHashString@@ABV1@@Z DD 0ffffffffH
	DD	FLAT:__unwindfunclet$??$_Construct@VioHashString@@ABV1@@std@@YAXPAVioHashString@@ABV1@@Z$0
__ehfuncinfo$??$_Construct@VioHashString@@ABV1@@std@@YAXPAVioHashString@@ABV1@@Z DD 019930522H
	DD	01H
	DD	FLAT:__unwindtable$??$_Construct@VioHashString@@ABV1@@std@@YAXPAVioHashString@@ABV1@@Z
	DD	2 DUP(00H)
	DD	2 DUP(00H)
	DD	00H
	DD	01H
; Function compile flags: /Ogsp
; File c:\program files (x86)\microsoft visual studio 10.0\vc\include\xmemory
xdata$x	ENDS
;	COMDAT ??$_Construct@VioHashString@@ABV1@@std@@YAXPAVioHashString@@ABV1@@Z
_TEXT	SEGMENT
$T531421 = -16						; size = 4
__$EHRec$ = -12						; size = 12
__Vptr$ = 8						; size = 4
__Ptr$ = 8						; size = 4
__Val$ = 12						; size = 4
??$_Construct@VioHashString@@ABV1@@std@@YAXPAVioHashString@@ABV1@@Z PROC ; std::_Construct<ioHashString,ioHashString const &>, COMDAT

; 46   : 	{	// construct object at _Ptr with value _Val

  00000	6a 04		 push	 4
  00002	b8 00 00 00 00	 mov	 eax, __ehhandler$??$_Construct@VioHashString@@ABV1@@std@@YAXPAVioHashString@@ABV1@@Z
  00007	e8 00 00 00 00	 call	 __EH_prolog3

; 47   : 	void _FARQ *_Vptr = _Ptr;

  0000c	8b 4d 08	 mov	 ecx, DWORD PTR __Ptr$[ebp]
  0000f	89 4d 08	 mov	 DWORD PTR __Vptr$[ebp], ecx

; 48   : 	::new (_Vptr) _Ty1(_STD forward<_Ty2>(_Val));

  00012	89 4d f0	 mov	 DWORD PTR $T531421[ebp], ecx
  00015	83 65 fc 00	 and	 DWORD PTR __$EHRec$[ebp+8], 0
  00019	85 c9		 test	 ecx, ecx
  0001b	74 09		 je	 SHORT $LN3@Construct@2
  0001d	ff 75 0c	 push	 DWORD PTR __Val$[ebp]
  00020	ff 15 00 00 00
	00		 call	 DWORD PTR __imp_??0ioHashString@@QAE@ABV0@@Z
$LN3@Construct@2:

; 49   : 	}

  00026	e8 00 00 00 00	 call	 __EH_epilog3
  0002b	c3		 ret	 0
_TEXT	ENDS
;	COMDAT text$x
text$x	SEGMENT
__unwindfunclet$??$_Construct@VioHashString@@ABV1@@std@@YAXPAVioHashString@@ABV1@@Z$0:
  00000	ff 75 08	 push	 DWORD PTR __Vptr$[ebp]
  00003	ff 75 f0	 push	 DWORD PTR $T531421[ebp]
  00006	e8 00 00 00 00	 call	 ??3@YAXPAX0@Z		; operator delete
  0000b	59		 pop	 ecx
  0000c	59		 pop	 ecx
  0000d	c3		 ret	 0
__ehhandler$??$_Construct@VioHashString@@ABV1@@std@@YAXPAVioHashString@@ABV1@@Z:
  0000e	8b 54 24 08	 mov	 edx, DWORD PTR [esp+8]
  00012	8d 42 0c	 lea	 eax, DWORD PTR [edx+12]
  00015	8b 4a ec	 mov	 ecx, DWORD PTR [edx-20]
  00018	33 c8		 xor	 ecx, eax
  0001a	e8 00 00 00 00	 call	 @__security_check_cookie@4
  0001f	b8 00 00 00 00	 mov	 eax, OFFSET __ehfuncinfo$??$_Construct@VioHashString@@ABV1@@std@@YAXPAVioHashString@@ABV1@@Z
  00024	e9 00 00 00 00	 jmp	 ___CxxFrameHandler3
text$x	ENDS
??$_Construct@VioHashString@@ABV1@@std@@YAXPAVioHashString@@ABV1@@Z ENDP ; std::_Construct<ioHashString,ioHashString const &>
PUBLIC	??_GEmoticonInfo@@QAEPAXI@Z			; EmoticonInfo::`scalar deleting destructor'
; Function compile flags: /Ogsp
;	COMDAT ??_GEmoticonInfo@@QAEPAXI@Z
_TEXT	SEGMENT
___flags$ = 8						; size = 4
??_GEmoticonInfo@@QAEPAXI@Z PROC			; EmoticonInfo::`scalar deleting destructor', COMDAT
; _this$ = ecx
  00000	55		 push	 ebp
  00001	8b ec		 mov	 ebp, esp
  00003	56		 push	 esi
  00004	8b f1		 mov	 esi, ecx
  00006	e8 00 00 00 00	 call	 ??1EmoticonInfo@@QAE@XZ
  0000b	f6 45 08 01	 test	 BYTE PTR ___flags$[ebp], 1
  0000f	74 07		 je	 SHORT $LN1@scalar@4
  00011	56		 push	 esi
  00012	e8 00 00 00 00	 call	 ??3@YAXPAX@Z		; operator delete
  00017	59		 pop	 ecx
$LN1@scalar@4:
  00018	8b c6		 mov	 eax, esi
  0001a	5e		 pop	 esi
  0001b	5d		 pop	 ebp
  0001c	c2 04 00	 ret	 4
??_GEmoticonInfo@@QAEPAXI@Z ENDP			; EmoticonInfo::`scalar deleting destructor'
_TEXT	ENDS
PUBLIC	?SetKillPoint@ioCharEmoticon@@QAEXABVioHashString@@00H_N@Z ; ioCharEmoticon::SetKillPoint
; Function compile flags: /Ogsp
; File d:\lost saga for developer\youtube\tutorial\source\src\lsclient\iocharemoticon.cpp
;	COMDAT ?SetKillPoint@ioCharEmoticon@@QAEXABVioHashString@@00H_N@Z
_TEXT	SEGMENT
_szEmoticon$ = 8					; size = 4
_szIconNum$ = 12					; size = 4
_szPer$ = 16						; size = 4
_iPoint$ = 20						; size = 4
_bOwnerChar$ = 24					; size = 1
?SetKillPoint@ioCharEmoticon@@QAEXABVioHashString@@00H_N@Z PROC ; ioCharEmoticon::SetKillPoint, COMDAT
; _this$ = ecx

; 247  : {

  00000	55		 push	 ebp
  00001	8b ec		 mov	 ebp, esp

; 248  : 	m_iKillPoint = iPoint;

  00003	8b 45 14	 mov	 eax, DWORD PTR _iPoint$[ebp]
  00006	53		 push	 ebx
  00007	56		 push	 esi

; 249  : 	SetEmoticon( szEmoticon, EMT_KILL_POINT, bOwnerChar );

  00008	6a 00		 push	 0
  0000a	ff 75 18	 push	 DWORD PTR _bOwnerChar$[ebp]
  0000d	8b f1		 mov	 esi, ecx
  0000f	6a 0b		 push	 11			; 0000000bH
  00011	ff 75 08	 push	 DWORD PTR _szEmoticon$[ebp]
  00014	89 46 28	 mov	 DWORD PTR [esi+40], eax
  00017	e8 00 00 00 00	 call	 ?SetEmoticon@ioCharEmoticon@@QAEXABVioHashString@@W4EmoticonType@@_NK@Z ; ioCharEmoticon::SetEmoticon

; 250  : 
; 251  : 	if( !szIconNum.IsEmpty() && !m_pKillPointNum )

  0001c	8b 4d 0c	 mov	 ecx, DWORD PTR _szIconNum$[ebp]
  0001f	ff 15 00 00 00
	00		 call	 DWORD PTR __imp_?IsEmpty@ioHashString@@QBE_NXZ
  00025	8b 1d 00 00 00
	00		 mov	 ebx, DWORD PTR __imp_?CreateImageByFullName@ioUIImageSetManager@@QAEPAVioUIRenderImage@@ABVioHashString@@_N@Z
  0002b	84 c0		 test	 al, al
  0002d	75 20		 jne	 SHORT $LN5@SetKillPoi
  0002f	83 be c0 00 00
	00 00		 cmp	 DWORD PTR [esi+192], 0
  00036	57		 push	 edi
  00037	75 15		 jne	 SHORT $LN6@SetKillPoi

; 252  : 	{
; 253  : 		m_pKillPointNum = g_UIImageSetMgr.CreateImageByFullName( szIconNum );

  00039	6a 00		 push	 0
  0003b	ff 75 0c	 push	 DWORD PTR _szIconNum$[ebp]
  0003e	ff 15 00 00 00
	00		 call	 DWORD PTR __imp_?GetSingleton@ioUIImageSetManager@@SAAAV1@XZ
  00044	8b c8		 mov	 ecx, eax
  00046	ff d3		 call	 ebx
  00048	89 86 c0 00 00
	00		 mov	 DWORD PTR [esi+192], eax
$LN6@SetKillPoi:
  0004e	5f		 pop	 edi
$LN5@SetKillPoi:

; 254  : 	}
; 255  : 
; 256  : 	if( !szPer.IsEmpty() && !m_pKillPointPer )

  0004f	8b 4d 10	 mov	 ecx, DWORD PTR _szPer$[ebp]
  00052	ff 15 00 00 00
	00		 call	 DWORD PTR __imp_?IsEmpty@ioHashString@@QBE_NXZ
  00058	84 c0		 test	 al, al
  0005a	75 1e		 jne	 SHORT $LN1@SetKillPoi
  0005c	83 be c4 00 00
	00 00		 cmp	 DWORD PTR [esi+196], 0
  00063	75 15		 jne	 SHORT $LN1@SetKillPoi

; 257  : 	{
; 258  : 		m_pKillPointPer = g_UIImageSetMgr.CreateImageByFullName( szPer );

  00065	6a 00		 push	 0
  00067	ff 75 10	 push	 DWORD PTR _szPer$[ebp]
  0006a	ff 15 00 00 00
	00		 call	 DWORD PTR __imp_?GetSingleton@ioUIImageSetManager@@SAAAV1@XZ
  00070	8b c8		 mov	 ecx, eax
  00072	ff d3		 call	 ebx
  00074	89 86 c4 00 00
	00		 mov	 DWORD PTR [esi+196], eax
$LN1@SetKillPoi:
  0007a	5e		 pop	 esi
  0007b	5b		 pop	 ebx

; 259  : 	}
; 260  : }

  0007c	5d		 pop	 ebp
  0007d	c2 14 00	 ret	 20			; 00000014H
?SetKillPoint@ioCharEmoticon@@QAEXABVioHashString@@00H_N@Z ENDP ; ioCharEmoticon::SetKillPoint
_TEXT	ENDS
PUBLIC	?SetFishingGrade@ioCharEmoticon@@QAEXABVioHashString@@0_NK@Z ; ioCharEmoticon::SetFishingGrade
; Function compile flags: /Ogsp
;	COMDAT ?SetFishingGrade@ioCharEmoticon@@QAEXABVioHashString@@0_NK@Z
_TEXT	SEGMENT
_szEmoticon$ = 8					; size = 4
_szGrade$ = 12						; size = 4
_bOwnerChar$ = 16					; size = 1
_dwDuration$ = 20					; size = 4
?SetFishingGrade@ioCharEmoticon@@QAEXABVioHashString@@0_NK@Z PROC ; ioCharEmoticon::SetFishingGrade, COMDAT
; _this$ = ecx

; 263  : {

  00000	55		 push	 ebp
  00001	8b ec		 mov	 ebp, esp
  00003	56		 push	 esi

; 264  : 	SetEmoticon( szEmoticon, EMT_FISHING_GRADE, bOwnerChar );

  00004	6a 00		 push	 0
  00006	ff 75 10	 push	 DWORD PTR _bOwnerChar$[ebp]
  00009	8b f1		 mov	 esi, ecx
  0000b	6a 0c		 push	 12			; 0000000cH
  0000d	ff 75 08	 push	 DWORD PTR _szEmoticon$[ebp]
  00010	e8 00 00 00 00	 call	 ?SetEmoticon@ioCharEmoticon@@QAEXABVioHashString@@W4EmoticonType@@_NK@Z ; ioCharEmoticon::SetEmoticon

; 265  : 
; 266  : 	if( !szGrade.IsEmpty() )

  00015	8b 4d 0c	 mov	 ecx, DWORD PTR _szGrade$[ebp]
  00018	ff 15 00 00 00
	00		 call	 DWORD PTR __imp_?IsEmpty@ioHashString@@QBE_NXZ
  0001e	84 c0		 test	 al, al
  00020	75 31		 jne	 SHORT $LN2@SetFishing

; 267  : 	{
; 268  : 		SAFEDELETE( m_pFishingGrade );

  00022	8b 8e ec 00 00
	00		 mov	 ecx, DWORD PTR [esi+236]
  00028	85 c9		 test	 ecx, ecx
  0002a	74 0e		 je	 SHORT $LN1@SetFishing
  0002c	8b 01		 mov	 eax, DWORD PTR [ecx]
  0002e	6a 01		 push	 1
  00030	ff 50 40	 call	 DWORD PTR [eax+64]
  00033	83 a6 ec 00 00
	00 00		 and	 DWORD PTR [esi+236], 0
$LN1@SetFishing:

; 269  : 		m_pFishingGrade = g_UIImageSetMgr.CreateImageByFullName( szGrade );

  0003a	6a 00		 push	 0
  0003c	ff 75 0c	 push	 DWORD PTR _szGrade$[ebp]
  0003f	ff 15 00 00 00
	00		 call	 DWORD PTR __imp_?GetSingleton@ioUIImageSetManager@@SAAAV1@XZ
  00045	8b c8		 mov	 ecx, eax
  00047	ff 15 00 00 00
	00		 call	 DWORD PTR __imp_?CreateImageByFullName@ioUIImageSetManager@@QAEPAVioUIRenderImage@@ABVioHashString@@_N@Z
  0004d	89 86 ec 00 00
	00		 mov	 DWORD PTR [esi+236], eax
$LN2@SetFishing:
  00053	5e		 pop	 esi

; 270  : 	}
; 271  : }

  00054	5d		 pop	 ebp
  00055	c2 10 00	 ret	 16			; 00000010H
?SetFishingGrade@ioCharEmoticon@@QAEXABVioHashString@@0_NK@Z ENDP ; ioCharEmoticon::SetFishingGrade
_TEXT	ENDS
PUBLIC	?SetFishingLevelUp@ioCharEmoticon@@QAEXABVioHashString@@0_NK@Z ; ioCharEmoticon::SetFishingLevelUp
; Function compile flags: /Ogsp
;	COMDAT ?SetFishingLevelUp@ioCharEmoticon@@QAEXABVioHashString@@0_NK@Z
_TEXT	SEGMENT
_szEmoticon$ = 8					; size = 4
_szLevelUp$ = 12					; size = 4
_bOwnerChar$ = 16					; size = 1
_dwDuration$ = 20					; size = 4
?SetFishingLevelUp@ioCharEmoticon@@QAEXABVioHashString@@0_NK@Z PROC ; ioCharEmoticon::SetFishingLevelUp, COMDAT
; _this$ = ecx

; 274  : {

  00000	55		 push	 ebp
  00001	8b ec		 mov	 ebp, esp
  00003	56		 push	 esi

; 275  : 	SetEmoticon( szEmoticon, EMT_FISHING_LEVEL_UP, bOwnerChar );

  00004	6a 00		 push	 0
  00006	ff 75 10	 push	 DWORD PTR _bOwnerChar$[ebp]
  00009	8b f1		 mov	 esi, ecx
  0000b	6a 0d		 push	 13			; 0000000dH
  0000d	ff 75 08	 push	 DWORD PTR _szEmoticon$[ebp]
  00010	e8 00 00 00 00	 call	 ?SetEmoticon@ioCharEmoticon@@QAEXABVioHashString@@W4EmoticonType@@_NK@Z ; ioCharEmoticon::SetEmoticon

; 276  : 
; 277  : 	SAFEDELETE( m_pFishingLevelUp );

  00015	8b 8e f0 00 00
	00		 mov	 ecx, DWORD PTR [esi+240]
  0001b	85 c9		 test	 ecx, ecx
  0001d	74 0e		 je	 SHORT $LN2@SetFishing@2
  0001f	8b 01		 mov	 eax, DWORD PTR [ecx]
  00021	6a 01		 push	 1
  00023	ff 50 40	 call	 DWORD PTR [eax+64]
  00026	83 a6 f0 00 00
	00 00		 and	 DWORD PTR [esi+240], 0
$LN2@SetFishing@2:

; 278  : 
; 279  : 	if( !szLevelUp.IsEmpty() )

  0002d	8b 4d 0c	 mov	 ecx, DWORD PTR _szLevelUp$[ebp]
  00030	ff 15 00 00 00
	00		 call	 DWORD PTR __imp_?IsEmpty@ioHashString@@QBE_NXZ
  00036	84 c0		 test	 al, al
  00038	75 19		 jne	 SHORT $LN1@SetFishing@2

; 280  : 	{
; 281  : 		m_pFishingLevelUp = g_UIImageSetMgr.CreateImageByFullName( szLevelUp );

  0003a	6a 00		 push	 0
  0003c	ff 75 0c	 push	 DWORD PTR _szLevelUp$[ebp]
  0003f	ff 15 00 00 00
	00		 call	 DWORD PTR __imp_?GetSingleton@ioUIImageSetManager@@SAAAV1@XZ
  00045	8b c8		 mov	 ecx, eax
  00047	ff 15 00 00 00
	00		 call	 DWORD PTR __imp_?CreateImageByFullName@ioUIImageSetManager@@QAEPAVioUIRenderImage@@ABVioHashString@@_N@Z
  0004d	89 86 f0 00 00
	00		 mov	 DWORD PTR [esi+240], eax
$LN1@SetFishing@2:
  00053	5e		 pop	 esi

; 282  : 	}
; 283  : }

  00054	5d		 pop	 ebp
  00055	c2 10 00	 ret	 16			; 00000010H
?SetFishingLevelUp@ioCharEmoticon@@QAEXABVioHashString@@0_NK@Z ENDP ; ioCharEmoticon::SetFishingLevelUp
_TEXT	ENDS
PUBLIC	?SetUserRankEmoticon@ioCharEmoticon@@QAEXABVioHashString@@0H_N@Z ; ioCharEmoticon::SetUserRankEmoticon
; Function compile flags: /Ogsp
;	COMDAT ?SetUserRankEmoticon@ioCharEmoticon@@QAEXABVioHashString@@0H_N@Z
_TEXT	SEGMENT
_szEmoticon$ = 8					; size = 4
_szRankNumber$ = 12					; size = 4
_iRank$ = 16						; size = 4
_bOwnerChar$ = 20					; size = 1
?SetUserRankEmoticon@ioCharEmoticon@@QAEXABVioHashString@@0H_N@Z PROC ; ioCharEmoticon::SetUserRankEmoticon, COMDAT
; _this$ = ecx

; 289  : {

  00000	55		 push	 ebp
  00001	8b ec		 mov	 ebp, esp

; 290  : 	m_iCharRank = iRank;

  00003	8b 45 10	 mov	 eax, DWORD PTR _iRank$[ebp]
  00006	56		 push	 esi

; 291  : 	SetEmoticon( szEmoticon, EMT_USER_RANK, bOwnerChar );

  00007	6a 00		 push	 0
  00009	ff 75 14	 push	 DWORD PTR _bOwnerChar$[ebp]
  0000c	8b f1		 mov	 esi, ecx
  0000e	6a 07		 push	 7
  00010	ff 75 08	 push	 DWORD PTR _szEmoticon$[ebp]
  00013	89 46 64	 mov	 DWORD PTR [esi+100], eax
  00016	e8 00 00 00 00	 call	 ?SetEmoticon@ioCharEmoticon@@QAEXABVioHashString@@W4EmoticonType@@_NK@Z ; ioCharEmoticon::SetEmoticon

; 292  : 
; 293  : 	if( !szRankNumber.IsEmpty() )

  0001b	8b 4d 0c	 mov	 ecx, DWORD PTR _szRankNumber$[ebp]
  0001e	ff 15 00 00 00
	00		 call	 DWORD PTR __imp_?IsEmpty@ioHashString@@QBE_NXZ
  00024	84 c0		 test	 al, al
  00026	75 28		 jne	 SHORT $LN2@SetUserRan

; 294  : 	{
; 295  : 		SAFEDELETE( m_pEmoticonNum );

  00028	8b 4e 08	 mov	 ecx, DWORD PTR [esi+8]
  0002b	85 c9		 test	 ecx, ecx
  0002d	74 0b		 je	 SHORT $LN1@SetUserRan
  0002f	8b 01		 mov	 eax, DWORD PTR [ecx]
  00031	6a 01		 push	 1
  00033	ff 50 40	 call	 DWORD PTR [eax+64]
  00036	83 66 08 00	 and	 DWORD PTR [esi+8], 0
$LN1@SetUserRan:

; 296  : 		m_pEmoticonNum = g_UIImageSetMgr.CreateImageByFullName( szRankNumber );

  0003a	6a 00		 push	 0
  0003c	ff 75 0c	 push	 DWORD PTR _szRankNumber$[ebp]
  0003f	ff 15 00 00 00
	00		 call	 DWORD PTR __imp_?GetSingleton@ioUIImageSetManager@@SAAAV1@XZ
  00045	8b c8		 mov	 ecx, eax
  00047	ff 15 00 00 00
	00		 call	 DWORD PTR __imp_?CreateImageByFullName@ioUIImageSetManager@@QAEPAVioUIRenderImage@@ABVioHashString@@_N@Z
  0004d	89 46 08	 mov	 DWORD PTR [esi+8], eax
$LN2@SetUserRan:
  00050	5e		 pop	 esi

; 297  : 	}
; 298  : }

  00051	5d		 pop	 ebp
  00052	c2 10 00	 ret	 16			; 00000010H
?SetUserRankEmoticon@ioCharEmoticon@@QAEXABVioHashString@@0H_N@Z ENDP ; ioCharEmoticon::SetUserRankEmoticon
_TEXT	ENDS
PUBLIC	?RenderChatBubble@ioCharEmoticon@@IAE_NXZ	; ioCharEmoticon::RenderChatBubble
EXTRN	__imp_?GetWidth@ioUIRenderElement@@QBEHXZ:PROC
; Function compile flags: /Ogsp
;	COMDAT ?RenderChatBubble@ioCharEmoticon@@IAE_NXZ
_TEXT	SEGMENT
?RenderChatBubble@ioCharEmoticon@@IAE_NXZ PROC		; ioCharEmoticon::RenderChatBubble, COMDAT
; _this$ = ecx

; 1253 : {

  00000	53		 push	 ebx
  00001	56		 push	 esi
  00002	8b f1		 mov	 esi, ecx

; 1254 : 	if( !m_bInScreen )

  00004	33 db		 xor	 ebx, ebx
  00006	38 9e 89 00 00
	00		 cmp	 BYTE PTR [esi+137], bl

; 1255 : 		return false;

  0000c	0f 84 1a 01 00
	00		 je	 $LN8@RenderChat

; 1256 : 
; 1257 : 	if(    m_State == ES_END_WHITE 
; 1258 : 		|| m_State == ES_END_ALPHA )

  00012	8b 46 68	 mov	 eax, DWORD PTR [esi+104]
  00015	83 f8 03	 cmp	 eax, 3
  00018	0f 84 0e 01 00
	00		 je	 $LN8@RenderChat
  0001e	83 f8 04	 cmp	 eax, 4
  00021	0f 84 05 01 00
	00		 je	 $LN8@RenderChat

; 1261 : 	}
; 1262 : 
; 1263 : 	if(    m_Type != EMT_CHAT_ICON 
; 1264 : 		&& m_Type != EMT_3D_CHAT_ICON )

  00027	8b 46 6c	 mov	 eax, DWORD PTR [esi+108]
  0002a	83 f8 05	 cmp	 eax, 5
  0002d	74 09		 je	 SHORT $LN7@RenderChat
  0002f	83 f8 06	 cmp	 eax, 6

; 1265 : 	{
; 1266 : 		return false;

  00032	0f 85 f4 00 00
	00		 jne	 $LN8@RenderChat
$LN7@RenderChat:

; 1267 : 	}
; 1268 : 
; 1269 : 	if( m_vChatTextVec.empty() )

  00038	8b 8e d0 00 00
	00		 mov	 ecx, DWORD PTR [esi+208]
  0003e	8b 86 d4 00 00
	00		 mov	 eax, DWORD PTR [esi+212]
  00044	3b c8		 cmp	 ecx, eax

; 1270 : 		return false;

  00046	0f 84 e0 00 00
	00		 je	 $LN8@RenderChat

; 1271 : 
; 1272 : 	if(	   !m_pChatBubbleCenter 
; 1273 : 		|| !m_pChatBubbleRight )

  0004c	39 9e c8 00 00
	00		 cmp	 DWORD PTR [esi+200], ebx
  00052	0f 84 d4 00 00
	00		 je	 $LN8@RenderChat
  00058	39 9e cc 00 00
	00		 cmp	 DWORD PTR [esi+204], ebx
  0005e	0f 84 c8 00 00
	00		 je	 $LN8@RenderChat

; 1274 : 	{
; 1275 : 		return false;
; 1276 : 	}
; 1277 : 	
; 1278 : 	enum 
; 1279 : 	{
; 1280 : 		ONE_LINE_YOFFSET      = -12,
; 1281 : 		TWO_LINE_YOFFSET      = -20,
; 1282 : 	};
; 1283 : 
; 1284 : 	int iSzie = m_vChatTextVec.size();

  00064	2b c1		 sub	 eax, ecx
  00066	c1 f8 04	 sar	 eax, 4
  00069	57		 push	 edi

; 1285 : 	if( iSzie == 1 )

  0006a	83 f8 01	 cmp	 eax, 1
  0006d	75 40		 jne	 SHORT $LN3@RenderChat

; 1286 : 	{
; 1287 : 		m_pChatBubbleCenter->Render( m_iRenderXPos, m_iRenderYPos + ONE_LINE_YOFFSET );

  0006f	8b 8e c8 00 00
	00		 mov	 ecx, DWORD PTR [esi+200]
  00075	8b 56 7c	 mov	 edx, DWORD PTR [esi+124]
  00078	8b 01		 mov	 eax, DWORD PTR [ecx]
  0007a	53		 push	 ebx
  0007b	53		 push	 ebx
  0007c	53		 push	 ebx
  0007d	53		 push	 ebx
  0007e	0f 57 c0	 xorps	 xmm0, xmm0
  00081	51		 push	 ecx
  00082	83 ea 0c	 sub	 edx, 12			; 0000000cH
  00085	f3 0f 2a c2	 cvtsi2ss xmm0, edx
  00089	51		 push	 ecx
  0008a	f3 0f 11 44 24
	04		 movss	 DWORD PTR [esp+4], xmm0
  00090	66 0f 6e 46 78	 movd	 xmm0, DWORD PTR [esi+120]
  00095	0f 5b c0	 cvtdq2ps xmm0, xmm0
  00098	f3 0f 11 04 24	 movss	 DWORD PTR [esp], xmm0
  0009d	ff 10		 call	 DWORD PTR [eax]

; 1288 : 		m_pChatBubbleRight->Render( m_iRenderXPos + m_pChatBubbleCenter->GetWidth(), m_iRenderYPos + ONE_LINE_YOFFSET );

  0009f	8b 86 cc 00 00
	00		 mov	 eax, DWORD PTR [esi+204]
  000a5	8b 38		 mov	 edi, DWORD PTR [eax]
  000a7	8b 46 7c	 mov	 eax, DWORD PTR [esi+124]
  000aa	83 e8 0c	 sub	 eax, 12			; 0000000cH
  000ad	eb 43		 jmp	 SHORT $LN17@RenderChat
$LN3@RenderChat:

; 1289 : 	}
; 1290 : 	else if( iSzie == 2 )

  000af	83 f8 02	 cmp	 eax, 2
  000b2	75 73		 jne	 SHORT $LN1@RenderChat

; 1291 : 	{
; 1292 : 		m_pChatBubbleCenter->Render( m_iRenderXPos, m_iRenderYPos + TWO_LINE_YOFFSET );

  000b4	8b 8e c8 00 00
	00		 mov	 ecx, DWORD PTR [esi+200]
  000ba	8b 56 7c	 mov	 edx, DWORD PTR [esi+124]
  000bd	8b 01		 mov	 eax, DWORD PTR [ecx]
  000bf	53		 push	 ebx
  000c0	53		 push	 ebx
  000c1	53		 push	 ebx
  000c2	53		 push	 ebx
  000c3	0f 57 c0	 xorps	 xmm0, xmm0
  000c6	51		 push	 ecx
  000c7	83 ea 14	 sub	 edx, 20			; 00000014H
  000ca	f3 0f 2a c2	 cvtsi2ss xmm0, edx
  000ce	51		 push	 ecx
  000cf	f3 0f 11 44 24
	04		 movss	 DWORD PTR [esp+4], xmm0
  000d5	66 0f 6e 46 78	 movd	 xmm0, DWORD PTR [esi+120]
  000da	0f 5b c0	 cvtdq2ps xmm0, xmm0
  000dd	f3 0f 11 04 24	 movss	 DWORD PTR [esp], xmm0
  000e2	ff 10		 call	 DWORD PTR [eax]

; 1293 : 		m_pChatBubbleRight->Render( m_iRenderXPos + m_pChatBubbleCenter->GetWidth(), m_iRenderYPos + TWO_LINE_YOFFSET );

  000e4	8b 86 cc 00 00
	00		 mov	 eax, DWORD PTR [esi+204]
  000ea	8b 38		 mov	 edi, DWORD PTR [eax]
  000ec	8b 46 7c	 mov	 eax, DWORD PTR [esi+124]
  000ef	83 e8 14	 sub	 eax, 20			; 00000014H
$LN17@RenderChat:
  000f2	53		 push	 ebx
  000f3	53		 push	 ebx
  000f4	53		 push	 ebx
  000f5	53		 push	 ebx
  000f6	51		 push	 ecx
  000f7	8b 8e c8 00 00
	00		 mov	 ecx, DWORD PTR [esi+200]
  000fd	0f 57 c0	 xorps	 xmm0, xmm0
  00100	f3 0f 2a c0	 cvtsi2ss xmm0, eax
  00104	f3 0f 11 04 24	 movss	 DWORD PTR [esp], xmm0
  00109	ff 15 00 00 00
	00		 call	 DWORD PTR __imp_?GetWidth@ioUIRenderElement@@QBEHXZ
  0010f	03 46 78	 add	 eax, DWORD PTR [esi+120]
  00112	51		 push	 ecx
  00113	8b 8e cc 00 00
	00		 mov	 ecx, DWORD PTR [esi+204]
  00119	0f 57 c0	 xorps	 xmm0, xmm0
  0011c	f3 0f 2a c0	 cvtsi2ss xmm0, eax
  00120	f3 0f 11 04 24	 movss	 DWORD PTR [esp], xmm0
  00125	ff 17		 call	 DWORD PTR [edi]
$LN1@RenderChat:

; 1294 : 	}
; 1295 : 
; 1296 : 	return true;

  00127	b0 01		 mov	 al, 1
  00129	5f		 pop	 edi
  0012a	eb 02		 jmp	 SHORT $LN11@RenderChat
$LN8@RenderChat:

; 1259 : 	{
; 1260 : 		return false;

  0012c	32 c0		 xor	 al, al
$LN11@RenderChat:
  0012e	5e		 pop	 esi
  0012f	5b		 pop	 ebx

; 1297 : }

  00130	c3		 ret	 0
?RenderChatBubble@ioCharEmoticon@@IAE_NXZ ENDP		; ioCharEmoticon::RenderChatBubble
_TEXT	ENDS
PUBLIC	__real@42be0000
PUBLIC	__real@3f266666
PUBLIC	?RenderChatText@ioCharEmoticon@@IAEXXZ		; ioCharEmoticon::RenderChatText
EXTRN	__imp_?PrintTextWidthCut@ioFontManager@@QAAXMMMMPBDZZ:PROC
EXTRN	__imp_?PrintText@ioFontManager@@QAAXMMMPBDZZ:PROC
;	COMDAT __real@42be0000
; File c:\program files (x86)\microsoft visual studio 10.0\vc\include\vector
CONST	SEGMENT
__real@42be0000 DD 042be0000r			; 95
CONST	ENDS
;	COMDAT __real@3f266666
CONST	SEGMENT
__real@3f266666 DD 03f266666r			; 0.65
; Function compile flags: /Ogsp
; File d:\lost saga for developer\youtube\tutorial\source\src\lsclient\iocharemoticon.cpp
CONST	ENDS
;	COMDAT ?RenderChatText@ioCharEmoticon@@IAEXXZ
_TEXT	SEGMENT
?RenderChatText@ioCharEmoticon@@IAEXXZ PROC		; ioCharEmoticon::RenderChatText, COMDAT
; _this$ = ecx

; 1300 : {

  00000	56		 push	 esi
  00001	8b f1		 mov	 esi, ecx

; 1301 : 	if( m_vChatTextVec.empty() )

  00003	8b 86 d0 00 00
	00		 mov	 eax, DWORD PTR [esi+208]
  00009	3b 86 d4 00 00
	00		 cmp	 eax, DWORD PTR [esi+212]
  0000f	0f 84 55 01 00
	00		 je	 $LN1@RenderChat@2

; 1302 : 		return;
; 1303 : 
; 1304 : 	enum 
; 1305 : 	{
; 1306 : 		ONE_LINE_TEXT_XOFFSET     =  26,
; 1307 : 		ONE_LINE_TEXT_YOFFSET     = -10,
; 1308 : 
; 1309 : 		TWO_LINE_TEXT_1_XOFFSET   =  26,
; 1310 : 		TWO_LINE_TEXT_1_YOFFSET   = -18,
; 1311 : 		TWO_LINE_TEXT_2_XOFFSET   =  26,
; 1312 : 		TWO_LINE_TEXT_2_YOFFSET   =  -2,
; 1313 : 
; 1314 : 		MAX_TEXT_WIDTH            = 95,
; 1315 : 	};
; 1316 : 
; 1317 : 	g_FontMgr.SetBkColor( 0, 0, 0 );

  00015	57		 push	 edi
  00016	8b 3d 00 00 00
	00		 mov	 edi, DWORD PTR __imp_?GetSingleton@ioFontManager@@SAAAV1@XZ
  0001c	6a 00		 push	 0
  0001e	6a 00		 push	 0
  00020	6a 00		 push	 0
  00022	ff d7		 call	 edi
  00024	8b c8		 mov	 ecx, eax
  00026	ff 15 00 00 00
	00		 call	 DWORD PTR __imp_?SetBkColor@ioFontManager@@QAEXHHH@Z

; 1318 : 	g_FontMgr.SetTextStyle( TS_OUTLINE_FULL_2X );

  0002c	6a 05		 push	 5
  0002e	ff d7		 call	 edi
  00030	8b c8		 mov	 ecx, eax
  00032	ff 15 00 00 00
	00		 call	 DWORD PTR __imp_?SetTextStyle@ioFontManager@@QAEXW4TextStyle@@@Z

; 1319 : 	g_FontMgr.SetAlignType( TAT_LEFT );

  00038	6a 00		 push	 0
  0003a	ff d7		 call	 edi
  0003c	8b c8		 mov	 ecx, eax
  0003e	ff 15 00 00 00
	00		 call	 DWORD PTR __imp_?SetAlignType@ioFontManager@@QAEXW4TextAlignType@@@Z

; 1320 : 	g_FontMgr.SetTextColor( TCT_DEFAULT_GRAY );

  00044	68 6e 6e 6e ff	 push	 -9539986		; ff6e6e6eH
  00049	ff d7		 call	 edi
  0004b	8b c8		 mov	 ecx, eax
  0004d	ff 15 00 00 00
	00		 call	 DWORD PTR __imp_?SetTextColor@ioFontManager@@QAEXK@Z

; 1321 : 
; 1322 : 	int iSzie = m_vChatTextVec.size();

  00053	8b 8e d0 00 00
	00		 mov	 ecx, DWORD PTR [esi+208]
  00059	8b 86 d4 00 00
	00		 mov	 eax, DWORD PTR [esi+212]
  0005f	2b c1		 sub	 eax, ecx
  00061	c1 f8 04	 sar	 eax, 4

; 1323 : 	if( iSzie == 1 )

  00064	83 f8 01	 cmp	 eax, 1
  00067	75 4e		 jne	 SHORT $LN3@RenderChat@2

; 1324 : 	{
; 1325 : 		g_FontMgr.PrintText( m_iRenderXPos + ONE_LINE_TEXT_XOFFSET, m_iRenderYPos + ONE_LINE_TEXT_YOFFSET, FONT_SIZE_13, m_vChatTextVec[0].c_str() );

  00069	ff 15 00 00 00
	00		 call	 DWORD PTR __imp_?c_str@ioHashString@@QBEPBDXZ
  0006f	f3 0f 10 05 00
	00 00 00	 movss	 xmm0, DWORD PTR __real@3f266666
  00077	50		 push	 eax
  00078	8b 46 7c	 mov	 eax, DWORD PTR [esi+124]
  0007b	83 ec 0c	 sub	 esp, 12			; 0000000cH
  0007e	f3 0f 11 44 24
	08		 movss	 DWORD PTR [esp+8], xmm0
  00084	83 e8 0a	 sub	 eax, 10			; 0000000aH
  00087	0f 57 c0	 xorps	 xmm0, xmm0
  0008a	f3 0f 2a c0	 cvtsi2ss xmm0, eax
  0008e	8b 46 78	 mov	 eax, DWORD PTR [esi+120]
  00091	f3 0f 11 44 24
	04		 movss	 DWORD PTR [esp+4], xmm0
  00097	83 c0 1a	 add	 eax, 26			; 0000001aH
  0009a	0f 57 c0	 xorps	 xmm0, xmm0
  0009d	f3 0f 2a c0	 cvtsi2ss xmm0, eax
  000a1	f3 0f 11 04 24	 movss	 DWORD PTR [esp], xmm0
  000a6	ff d7		 call	 edi
  000a8	50		 push	 eax
  000a9	ff 15 00 00 00
	00		 call	 DWORD PTR __imp_?PrintText@ioFontManager@@QAAXMMMPBDZZ
  000af	83 c4 14	 add	 esp, 20			; 00000014H
  000b2	e9 b2 00 00 00	 jmp	 $LN17@RenderChat@2
$LN3@RenderChat@2:

; 1326 : 	}
; 1327 : 	else if( iSzie == 2 )

  000b7	83 f8 02	 cmp	 eax, 2
  000ba	0f 85 a9 00 00
	00		 jne	 $LN17@RenderChat@2

; 1328 : 	{
; 1329 : 		g_FontMgr.PrintText( m_iRenderXPos + TWO_LINE_TEXT_1_XOFFSET, m_iRenderYPos + TWO_LINE_TEXT_1_YOFFSET, FONT_SIZE_13, m_vChatTextVec[0].c_str() );

  000c0	ff 15 00 00 00
	00		 call	 DWORD PTR __imp_?c_str@ioHashString@@QBEPBDXZ
  000c6	f3 0f 10 05 00
	00 00 00	 movss	 xmm0, DWORD PTR __real@3f266666
  000ce	50		 push	 eax
  000cf	8b 46 7c	 mov	 eax, DWORD PTR [esi+124]
  000d2	83 ec 0c	 sub	 esp, 12			; 0000000cH
  000d5	f3 0f 11 44 24
	08		 movss	 DWORD PTR [esp+8], xmm0
  000db	83 e8 12	 sub	 eax, 18			; 00000012H
  000de	0f 57 c0	 xorps	 xmm0, xmm0
  000e1	f3 0f 2a c0	 cvtsi2ss xmm0, eax
  000e5	8b 46 78	 mov	 eax, DWORD PTR [esi+120]
  000e8	f3 0f 11 44 24
	04		 movss	 DWORD PTR [esp+4], xmm0
  000ee	83 c0 1a	 add	 eax, 26			; 0000001aH
  000f1	0f 57 c0	 xorps	 xmm0, xmm0
  000f4	f3 0f 2a c0	 cvtsi2ss xmm0, eax
  000f8	f3 0f 11 04 24	 movss	 DWORD PTR [esp], xmm0
  000fd	ff d7		 call	 edi
  000ff	50		 push	 eax
  00100	ff 15 00 00 00
	00		 call	 DWORD PTR __imp_?PrintText@ioFontManager@@QAAXMMMPBDZZ

; 1330 : 		g_FontMgr.PrintTextWidthCut( m_iRenderXPos + TWO_LINE_TEXT_2_XOFFSET, m_iRenderYPos + TWO_LINE_TEXT_2_YOFFSET, FONT_SIZE_13, MAX_TEXT_WIDTH, m_vChatTextVec[1].c_str() );

  00106	8b 8e d0 00 00
	00		 mov	 ecx, DWORD PTR [esi+208]
  0010c	83 c4 14	 add	 esp, 20			; 00000014H
  0010f	83 c1 10	 add	 ecx, 16			; 00000010H
  00112	ff 15 00 00 00
	00		 call	 DWORD PTR __imp_?c_str@ioHashString@@QBEPBDXZ
  00118	f3 0f 10 05 00
	00 00 00	 movss	 xmm0, DWORD PTR __real@42be0000
  00120	50		 push	 eax
  00121	8b 46 7c	 mov	 eax, DWORD PTR [esi+124]
  00124	83 ec 10	 sub	 esp, 16			; 00000010H
  00127	f3 0f 11 44 24
	0c		 movss	 DWORD PTR [esp+12], xmm0
  0012d	f3 0f 10 05 00
	00 00 00	 movss	 xmm0, DWORD PTR __real@3f266666
  00135	f3 0f 11 44 24
	08		 movss	 DWORD PTR [esp+8], xmm0
  0013b	83 e8 02	 sub	 eax, 2
  0013e	0f 57 c0	 xorps	 xmm0, xmm0
  00141	f3 0f 2a c0	 cvtsi2ss xmm0, eax
  00145	8b 46 78	 mov	 eax, DWORD PTR [esi+120]
  00148	f3 0f 11 44 24
	04		 movss	 DWORD PTR [esp+4], xmm0
  0014e	83 c0 1a	 add	 eax, 26			; 0000001aH
  00151	0f 57 c0	 xorps	 xmm0, xmm0
  00154	f3 0f 2a c0	 cvtsi2ss xmm0, eax
  00158	f3 0f 11 04 24	 movss	 DWORD PTR [esp], xmm0
  0015d	ff d7		 call	 edi
  0015f	50		 push	 eax
  00160	ff 15 00 00 00
	00		 call	 DWORD PTR __imp_?PrintTextWidthCut@ioFontManager@@QAAXMMMMPBDZZ
  00166	83 c4 18	 add	 esp, 24			; 00000018H
$LN17@RenderChat@2:
  00169	5f		 pop	 edi
$LN1@RenderChat@2:
  0016a	5e		 pop	 esi

; 1331 : 	}
; 1332 : }

  0016b	c3		 ret	 0
?RenderChatText@ioCharEmoticon@@IAEXXZ ENDP		; ioCharEmoticon::RenderChatText
_TEXT	ENDS
PUBLIC	??D?$_Vector_iterator@V?$_Vector_val@PAUEmoticonInfo@@V?$allocator@PAUEmoticonInfo@@@std@@@std@@@std@@QBEAAPAUEmoticonInfo@@XZ ; std::_Vector_iterator<std::_Vector_val<EmoticonInfo *,std::allocator<EmoticonInfo *> > >::operator*
; Function compile flags: /Ogsp
; File c:\program files (x86)\microsoft visual studio 10.0\vc\include\vector
;	COMDAT ??D?$_Vector_iterator@V?$_Vector_val@PAUEmoticonInfo@@V?$allocator@PAUEmoticonInfo@@@std@@@std@@@std@@QBEAAPAUEmoticonInfo@@XZ
_TEXT	SEGMENT
??D?$_Vector_iterator@V?$_Vector_val@PAUEmoticonInfo@@V?$allocator@PAUEmoticonInfo@@@std@@@std@@@std@@QBEAAPAUEmoticonInfo@@XZ PROC ; std::_Vector_iterator<std::_Vector_val<EmoticonInfo *,std::allocator<EmoticonInfo *> > >::operator*, COMDAT
; _this$ = ecx

; 322  : 		return ((reference)**(_Mybase *)this);

  00000	8b 01		 mov	 eax, DWORD PTR [ecx]

; 323  : 		}

  00002	c3		 ret	 0
??D?$_Vector_iterator@V?$_Vector_val@PAUEmoticonInfo@@V?$allocator@PAUEmoticonInfo@@@std@@@std@@@std@@QBEAAPAUEmoticonInfo@@XZ ENDP ; std::_Vector_iterator<std::_Vector_val<EmoticonInfo *,std::allocator<EmoticonInfo *> > >::operator*
_TEXT	ENDS
PUBLIC	??E?$_Vector_iterator@V?$_Vector_val@PAUEmoticonInfo@@V?$allocator@PAUEmoticonInfo@@@std@@@std@@@std@@QAEAAV01@XZ ; std::_Vector_iterator<std::_Vector_val<EmoticonInfo *,std::allocator<EmoticonInfo *> > >::operator++
; Function compile flags: /Ogsp
;	COMDAT ??E?$_Vector_iterator@V?$_Vector_val@PAUEmoticonInfo@@V?$allocator@PAUEmoticonInfo@@@std@@@std@@@std@@QAEAAV01@XZ
_TEXT	SEGMENT
??E?$_Vector_iterator@V?$_Vector_val@PAUEmoticonInfo@@V?$allocator@PAUEmoticonInfo@@@std@@@std@@@std@@QAEAAV01@XZ PROC ; std::_Vector_iterator<std::_Vector_val<EmoticonInfo *,std::allocator<EmoticonInfo *> > >::operator++, COMDAT
; _this$ = ecx

; 331  : 		{	// preincrement

  00000	8b c1		 mov	 eax, ecx

; 332  : 		++*(_Mybase *)this;

  00002	83 00 04	 add	 DWORD PTR [eax], 4

; 333  : 		return (*this);
; 334  : 		}

  00005	c3		 ret	 0
??E?$_Vector_iterator@V?$_Vector_val@PAUEmoticonInfo@@V?$allocator@PAUEmoticonInfo@@@std@@@std@@@std@@QAEAAV01@XZ ENDP ; std::_Vector_iterator<std::_Vector_val<EmoticonInfo *,std::allocator<EmoticonInfo *> > >::operator++
_TEXT	ENDS
PUBLIC	??0?$_Vector_val@PAUEmoticonInfo@@V?$allocator@PAUEmoticonInfo@@@std@@@std@@QAE@V?$allocator@PAUEmoticonInfo@@@1@@Z ; std::_Vector_val<EmoticonInfo *,std::allocator<EmoticonInfo *> >::_Vector_val<EmoticonInfo *,std::allocator<EmoticonInfo *> >
; Function compile flags: /Ogsp
;	COMDAT ??0?$_Vector_val@PAUEmoticonInfo@@V?$allocator@PAUEmoticonInfo@@@std@@@std@@QAE@V?$allocator@PAUEmoticonInfo@@@1@@Z
_TEXT	SEGMENT
__Al$ = 8						; size = 1
??0?$_Vector_val@PAUEmoticonInfo@@V?$allocator@PAUEmoticonInfo@@@std@@@std@@QAE@V?$allocator@PAUEmoticonInfo@@@1@@Z PROC ; std::_Vector_val<EmoticonInfo *,std::allocator<EmoticonInfo *> >::_Vector_val<EmoticonInfo *,std::allocator<EmoticonInfo *> >, COMDAT
; _this$ = ecx

; 426  : 		{	// construct allocator from _Al

  00000	8b c1		 mov	 eax, ecx

; 427  : 		_Myfirst = 0;

  00002	33 c9		 xor	 ecx, ecx
  00004	89 08		 mov	 DWORD PTR [eax], ecx

; 428  : 		_Mylast = 0;

  00006	89 48 04	 mov	 DWORD PTR [eax+4], ecx

; 429  : 		_Myend = 0;

  00009	89 48 08	 mov	 DWORD PTR [eax+8], ecx

; 430  : 		}

  0000c	c2 04 00	 ret	 4
??0?$_Vector_val@PAUEmoticonInfo@@V?$allocator@PAUEmoticonInfo@@@std@@@std@@QAE@V?$allocator@PAUEmoticonInfo@@@1@@Z ENDP ; std::_Vector_val<EmoticonInfo *,std::allocator<EmoticonInfo *> >::_Vector_val<EmoticonInfo *,std::allocator<EmoticonInfo *> >
_TEXT	ENDS
PUBLIC	??0?$_Vector_iterator@V?$_Vector_val@PAUEmoticonInfo@@V?$allocator@PAUEmoticonInfo@@@std@@@std@@@std@@QAE@PAPAUEmoticonInfo@@PBU_Container_base0@1@@Z ; std::_Vector_iterator<std::_Vector_val<EmoticonInfo *,std::allocator<EmoticonInfo *> > >::_Vector_iterator<std::_Vector_val<EmoticonInfo *,std::allocator<EmoticonInfo *> > >
; Function compile flags: /Ogsp
;	COMDAT ??0?$_Vector_iterator@V?$_Vector_val@PAUEmoticonInfo@@V?$allocator@PAUEmoticonInfo@@@std@@@std@@@std@@QAE@PAPAUEmoticonInfo@@PBU_Container_base0@1@@Z
_TEXT	SEGMENT
__Parg$ = 8						; size = 4
__Pvector$ = 12						; size = 4
??0?$_Vector_iterator@V?$_Vector_val@PAUEmoticonInfo@@V?$allocator@PAUEmoticonInfo@@@std@@@std@@@std@@QAE@PAPAUEmoticonInfo@@PBU_Container_base0@1@@Z PROC ; std::_Vector_iterator<std::_Vector_val<EmoticonInfo *,std::allocator<EmoticonInfo *> > >::_Vector_iterator<std::_Vector_val<EmoticonInfo *,std::allocator<EmoticonInfo *> > >, COMDAT
; _this$ = ecx

; 304  : 		{	// construct with pointer _Parg

  00000	55		 push	 ebp
  00001	8b ec		 mov	 ebp, esp
  00003	8b c1		 mov	 eax, ecx
  00005	8b 4d 08	 mov	 ecx, DWORD PTR __Parg$[ebp]
  00008	89 08		 mov	 DWORD PTR [eax], ecx

; 305  : 		}

  0000a	5d		 pop	 ebp
  0000b	c2 08 00	 ret	 8
??0?$_Vector_iterator@V?$_Vector_val@PAUEmoticonInfo@@V?$allocator@PAUEmoticonInfo@@@std@@@std@@@std@@QAE@PAPAUEmoticonInfo@@PBU_Container_base0@1@@Z ENDP ; std::_Vector_iterator<std::_Vector_val<EmoticonInfo *,std::allocator<EmoticonInfo *> > >::_Vector_iterator<std::_Vector_val<EmoticonInfo *,std::allocator<EmoticonInfo *> > >
_TEXT	ENDS
PUBLIC	??8?$_Vector_const_iterator@V?$_Vector_val@PAUEmoticonInfo@@V?$allocator@PAUEmoticonInfo@@@std@@@std@@@std@@QBE_NABV01@@Z ; std::_Vector_const_iterator<std::_Vector_val<EmoticonInfo *,std::allocator<EmoticonInfo *> > >::operator==
; Function compile flags: /Ogsp
;	COMDAT ??8?$_Vector_const_iterator@V?$_Vector_val@PAUEmoticonInfo@@V?$allocator@PAUEmoticonInfo@@@std@@@std@@@std@@QBE_NABV01@@Z
_TEXT	SEGMENT
__Right$ = 8						; size = 4
??8?$_Vector_const_iterator@V?$_Vector_val@PAUEmoticonInfo@@V?$allocator@PAUEmoticonInfo@@@std@@@std@@@std@@QBE_NABV01@@Z PROC ; std::_Vector_const_iterator<std::_Vector_val<EmoticonInfo *,std::allocator<EmoticonInfo *> > >::operator==, COMDAT
; _this$ = ecx

; 201  : 		{	// test for iterator equality

  00000	55		 push	 ebp
  00001	8b ec		 mov	 ebp, esp

; 202  : 		_Compat(_Right);
; 203  : 		return (this->_Ptr == _Right._Ptr);

  00003	8b 01		 mov	 eax, DWORD PTR [ecx]
  00005	8b 4d 08	 mov	 ecx, DWORD PTR __Right$[ebp]
  00008	2b 01		 sub	 eax, DWORD PTR [ecx]
  0000a	f7 d8		 neg	 eax
  0000c	1b c0		 sbb	 eax, eax
  0000e	40		 inc	 eax

; 204  : 		}

  0000f	5d		 pop	 ebp
  00010	c2 04 00	 ret	 4
??8?$_Vector_const_iterator@V?$_Vector_val@PAUEmoticonInfo@@V?$allocator@PAUEmoticonInfo@@@std@@@std@@@std@@QBE_NABV01@@Z ENDP ; std::_Vector_const_iterator<std::_Vector_val<EmoticonInfo *,std::allocator<EmoticonInfo *> > >::operator==
_TEXT	ENDS
PUBLIC	?max_size@?$vector@PAUEmoticonInfo@@V?$allocator@PAUEmoticonInfo@@@std@@@std@@QBEIXZ ; std::vector<EmoticonInfo *,std::allocator<EmoticonInfo *> >::max_size
; Function compile flags: /Ogsp
;	COMDAT ?max_size@?$vector@PAUEmoticonInfo@@V?$allocator@PAUEmoticonInfo@@@std@@@std@@QBEIXZ
_TEXT	SEGMENT
?max_size@?$vector@PAUEmoticonInfo@@V?$allocator@PAUEmoticonInfo@@@std@@@std@@QBEIXZ PROC ; std::vector<EmoticonInfo *,std::allocator<EmoticonInfo *> >::max_size, COMDAT
; _this$ = ecx

; 884  : 		return (this->_Alval.max_size());

  00000	b8 ff ff ff 3f	 mov	 eax, 1073741823		; 3fffffffH

; 885  : 		}

  00005	c3		 ret	 0
?max_size@?$vector@PAUEmoticonInfo@@V?$allocator@PAUEmoticonInfo@@@std@@@std@@QBEIXZ ENDP ; std::vector<EmoticonInfo *,std::allocator<EmoticonInfo *> >::max_size
_TEXT	ENDS
PUBLIC	?_Grow_to@?$vector@PAUEmoticonInfo@@V?$allocator@PAUEmoticonInfo@@@std@@@std@@IBEII@Z ; std::vector<EmoticonInfo *,std::allocator<EmoticonInfo *> >::_Grow_to
; Function compile flags: /Ogsp
;	COMDAT ?_Grow_to@?$vector@PAUEmoticonInfo@@V?$allocator@PAUEmoticonInfo@@@std@@@std@@IBEII@Z
_TEXT	SEGMENT
__Count$ = 8						; size = 4
?_Grow_to@?$vector@PAUEmoticonInfo@@V?$allocator@PAUEmoticonInfo@@@std@@@std@@IBEII@Z PROC ; std::vector<EmoticonInfo *,std::allocator<EmoticonInfo *> >::_Grow_to, COMDAT
; _this$ = ecx

; 1274 : 		{	// grow by 50% or at least to _Count

  00000	55		 push	 ebp
  00001	8b ec		 mov	 ebp, esp

; 1275 : 		size_type _Capacity = capacity();

  00003	8b 41 08	 mov	 eax, DWORD PTR [ecx+8]
  00006	2b 01		 sub	 eax, DWORD PTR [ecx]

; 1276 : 
; 1277 : 		_Capacity = max_size() - _Capacity / 2 < _Capacity
; 1278 : 			? 0 : _Capacity + _Capacity / 2;	// try to grow by 50%

  00008	ba ff ff ff 3f	 mov	 edx, 1073741823		; 3fffffffH
  0000d	c1 f8 02	 sar	 eax, 2
  00010	8b c8		 mov	 ecx, eax
  00012	d1 e9		 shr	 ecx, 1
  00014	2b d1		 sub	 edx, ecx
  00016	3b d0		 cmp	 edx, eax
  00018	73 04		 jae	 SHORT $LN4@Grow_to
  0001a	33 c0		 xor	 eax, eax
  0001c	eb 02		 jmp	 SHORT $LN5@Grow_to
$LN4@Grow_to:
  0001e	03 c1		 add	 eax, ecx
$LN5@Grow_to:

; 1279 : 		if (_Capacity < _Count)

  00020	3b 45 08	 cmp	 eax, DWORD PTR __Count$[ebp]

; 1280 : 			_Capacity = _Count;

  00023	0f 42 45 08	 cmovb	 eax, DWORD PTR __Count$[ebp]

; 1281 : 		return (_Capacity);
; 1282 : 		}

  00027	5d		 pop	 ebp
  00028	c2 04 00	 ret	 4
?_Grow_to@?$vector@PAUEmoticonInfo@@V?$allocator@PAUEmoticonInfo@@@std@@@std@@IBEII@Z ENDP ; std::vector<EmoticonInfo *,std::allocator<EmoticonInfo *> >::_Grow_to
_TEXT	ENDS
PUBLIC	?allocate@?$allocator@PAUEmoticonInfo@@@std@@QAEPAPAUEmoticonInfo@@I@Z ; std::allocator<EmoticonInfo *>::allocate
; Function compile flags: /Ogsp
; File c:\program files (x86)\microsoft visual studio 10.0\vc\include\xmemory
;	COMDAT ?allocate@?$allocator@PAUEmoticonInfo@@@std@@QAEPAPAUEmoticonInfo@@I@Z
_TEXT	SEGMENT
__Count$ = 8						; size = 4
?allocate@?$allocator@PAUEmoticonInfo@@@std@@QAEPAPAUEmoticonInfo@@I@Z PROC ; std::allocator<EmoticonInfo *>::allocate, COMDAT
; _this$ = ecx

; 186  : 		{	// allocate array of _Count elements

  00000	55		 push	 ebp
  00001	8b ec		 mov	 ebp, esp

; 187  : 		return (_Allocate(_Count, (pointer)0));

  00003	6a 00		 push	 0
  00005	ff 75 08	 push	 DWORD PTR __Count$[ebp]
  00008	e8 00 00 00 00	 call	 ??$_Allocate@PAUEmoticonInfo@@@std@@YAPAPAUEmoticonInfo@@IPAPAU1@@Z ; std::_Allocate<EmoticonInfo *>
  0000d	59		 pop	 ecx
  0000e	59		 pop	 ecx

; 188  : 		}

  0000f	5d		 pop	 ebp
  00010	c2 04 00	 ret	 4
?allocate@?$allocator@PAUEmoticonInfo@@@std@@QAEPAPAUEmoticonInfo@@I@Z ENDP ; std::allocator<EmoticonInfo *>::allocate
_TEXT	ENDS
PUBLIC	__$ArrayPad$
PUBLIC	??$SetTitle_e@$08@ioINILoader@@QAEXAAY08$$CBD@Z	; ioINILoader::SetTitle_e<9>
EXTRN	__imp_?SetTitle@ioINILoader@@QAEXPBD@Z:PROC
; Function compile flags: /Ogsp
; File d:\lost saga for developer\youtube\tutorial\source\src\io3dengine\ioiniloader.h
;	COMDAT ??$SetTitle_e@$08@ioINILoader@@QAEXAAY08$$CBD@Z
_TEXT	SEGMENT
__t$ = -20						; size = 9
__$ArrayPad$ = -4					; size = 4
_t$ = 8							; size = 4
??$SetTitle_e@$08@ioINILoader@@QAEXAAY08$$CBD@Z PROC	; ioINILoader::SetTitle_e<9>, COMDAT
; _this$ = ecx

; 188  : 	{

  00000	55		 push	 ebp
  00001	8b ec		 mov	 ebp, esp
  00003	83 ec 14	 sub	 esp, 20			; 00000014H
  00006	a1 00 00 00 00	 mov	 eax, DWORD PTR ___security_cookie
  0000b	33 c5		 xor	 eax, ebp
  0000d	89 45 fc	 mov	 DWORD PTR __$ArrayPad$[ebp], eax
  00010	8b 45 08	 mov	 eax, DWORD PTR _t$[ebp]

; 189  : 		_ENCSTR(t, _t);

  00013	8a 10		 mov	 dl, BYTE PTR [eax]
  00015	84 d2		 test	 dl, dl
  00017	0f 84 ee 00 00
	00		 je	 $LN96@SetTitle_e
  0001d	80 f2 ed	 xor	 dl, -19			; ffffffedH
  00020	88 55 ec	 mov	 BYTE PTR __t$[ebp], dl
  00023	8a 50 01	 mov	 dl, BYTE PTR [eax+1]
  00026	84 d2		 test	 dl, dl
  00028	0f 84 d7 00 00
	00		 je	 $LN95@SetTitle_e
  0002e	80 f2 ec	 xor	 dl, -20			; ffffffecH
  00031	88 55 ed	 mov	 BYTE PTR __t$[ebp+1], dl
  00034	8a 50 02	 mov	 dl, BYTE PTR [eax+2]
  00037	84 d2		 test	 dl, dl
  00039	0f 84 c0 00 00
	00		 je	 $LN94@SetTitle_e
  0003f	80 f2 eb	 xor	 dl, -21			; ffffffebH
  00042	88 55 ee	 mov	 BYTE PTR __t$[ebp+2], dl
  00045	8a 50 03	 mov	 dl, BYTE PTR [eax+3]
  00048	84 d2		 test	 dl, dl
  0004a	0f 84 a9 00 00
	00		 je	 $LN93@SetTitle_e
  00050	80 f2 ea	 xor	 dl, -22			; ffffffeaH
  00053	88 55 ef	 mov	 BYTE PTR __t$[ebp+3], dl
  00056	8a 50 04	 mov	 dl, BYTE PTR [eax+4]
  00059	84 d2		 test	 dl, dl
  0005b	0f 84 92 00 00
	00		 je	 $LN92@SetTitle_e
  00061	80 f2 ed	 xor	 dl, -19			; ffffffedH
  00064	88 55 f0	 mov	 BYTE PTR __t$[ebp+4], dl
  00067	8a 50 05	 mov	 dl, BYTE PTR [eax+5]
  0006a	84 d2		 test	 dl, dl
  0006c	74 7f		 je	 SHORT $LN91@SetTitle_e
  0006e	80 f2 ec	 xor	 dl, -20			; ffffffecH
  00071	88 55 f1	 mov	 BYTE PTR __t$[ebp+5], dl
  00074	8a 50 06	 mov	 dl, BYTE PTR [eax+6]
  00077	84 d2		 test	 dl, dl
  00079	74 6c		 je	 SHORT $LN90@SetTitle_e
  0007b	80 f2 eb	 xor	 dl, -21			; ffffffebH
  0007e	88 55 f2	 mov	 BYTE PTR __t$[ebp+6], dl
  00081	8a 50 07	 mov	 dl, BYTE PTR [eax+7]
  00084	84 d2		 test	 dl, dl
  00086	74 59		 je	 SHORT $LN89@SetTitle_e
  00088	80 f2 ea	 xor	 dl, -22			; ffffffeaH
  0008b	80 78 08 00	 cmp	 BYTE PTR [eax+8], 0
  0008f	88 55 f3	 mov	 BYTE PTR __t$[ebp+7], dl
  00092	74 7b		 je	 SHORT $LN1@SetTitle_e
  00094	8a 50 09	 mov	 dl, BYTE PTR [eax+9]
  00097	84 d2		 test	 dl, dl
  00099	74 40		 je	 SHORT $LN87@SetTitle_e
  0009b	80 f2 ec	 xor	 dl, -20			; ffffffecH
  0009e	88 55 f5	 mov	 BYTE PTR __t$[ebp+9], dl
  000a1	8a 50 0a	 mov	 dl, BYTE PTR [eax+10]
  000a4	84 d2		 test	 dl, dl
  000a6	74 2d		 je	 SHORT $LN86@SetTitle_e
  000a8	80 f2 eb	 xor	 dl, -21			; ffffffebH
  000ab	88 55 f6	 mov	 BYTE PTR __t$[ebp+10], dl
  000ae	8a 50 0b	 mov	 dl, BYTE PTR [eax+11]
  000b1	84 d2		 test	 dl, dl
  000b3	74 1a		 je	 SHORT $LN85@SetTitle_e
  000b5	8a 40 0c	 mov	 al, BYTE PTR [eax+12]
  000b8	80 f2 ea	 xor	 dl, -22			; ffffffeaH
  000bb	88 55 f7	 mov	 BYTE PTR __t$[ebp+11], dl
  000be	84 c0		 test	 al, al
  000c0	74 07		 je	 SHORT $LN84@SetTitle_e
  000c2	34 ed		 xor	 al, -19			; ffffffedH
  000c4	88 45 f8	 mov	 BYTE PTR __t$[ebp+12], al
  000c7	eb 46		 jmp	 SHORT $LN1@SetTitle_e
$LN84@SetTitle_e:
  000c9	c6 45 f8 ed	 mov	 BYTE PTR __t$[ebp+12], -19 ; ffffffedH
  000cd	eb 40		 jmp	 SHORT $LN1@SetTitle_e
$LN85@SetTitle_e:
  000cf	c6 45 f7 ea	 mov	 BYTE PTR __t$[ebp+11], -22 ; ffffffeaH
  000d3	eb 3a		 jmp	 SHORT $LN1@SetTitle_e
$LN86@SetTitle_e:
  000d5	c6 45 f6 eb	 mov	 BYTE PTR __t$[ebp+10], -21 ; ffffffebH
  000d9	eb 34		 jmp	 SHORT $LN1@SetTitle_e
$LN87@SetTitle_e:
  000db	c6 45 f5 ec	 mov	 BYTE PTR __t$[ebp+9], -20 ; ffffffecH
  000df	eb 2e		 jmp	 SHORT $LN1@SetTitle_e
$LN89@SetTitle_e:
  000e1	c6 45 f3 ea	 mov	 BYTE PTR __t$[ebp+7], -22 ; ffffffeaH
  000e5	eb 28		 jmp	 SHORT $LN1@SetTitle_e
$LN90@SetTitle_e:
  000e7	c6 45 f2 eb	 mov	 BYTE PTR __t$[ebp+6], -21 ; ffffffebH
  000eb	eb 22		 jmp	 SHORT $LN1@SetTitle_e
$LN91@SetTitle_e:
  000ed	c6 45 f1 ec	 mov	 BYTE PTR __t$[ebp+5], -20 ; ffffffecH
  000f1	eb 1c		 jmp	 SHORT $LN1@SetTitle_e
$LN92@SetTitle_e:
  000f3	c6 45 f0 ed	 mov	 BYTE PTR __t$[ebp+4], -19 ; ffffffedH
  000f7	eb 16		 jmp	 SHORT $LN1@SetTitle_e
$LN93@SetTitle_e:
  000f9	c6 45 ef ea	 mov	 BYTE PTR __t$[ebp+3], -22 ; ffffffeaH
  000fd	eb 10		 jmp	 SHORT $LN1@SetTitle_e
$LN94@SetTitle_e:
  000ff	c6 45 ee eb	 mov	 BYTE PTR __t$[ebp+2], -21 ; ffffffebH
  00103	eb 0a		 jmp	 SHORT $LN1@SetTitle_e
$LN95@SetTitle_e:
  00105	c6 45 ed ec	 mov	 BYTE PTR __t$[ebp+1], -20 ; ffffffecH
  00109	eb 04		 jmp	 SHORT $LN1@SetTitle_e
$LN96@SetTitle_e:
  0010b	c6 45 ec ed	 mov	 BYTE PTR __t$[ebp], -19	; ffffffedH
$LN1@SetTitle_e:
  0010f	6a 02		 push	 2
  00111	8d 45 ec	 lea	 eax, DWORD PTR __t$[ebp]
  00114	c6 45 f4 00	 mov	 BYTE PTR __t$[ebp+8], 0
  00118	5a		 pop	 edx
$LL104@SetTitle_e:
  00119	81 30 ed ec eb
	ea		 xor	 DWORD PTR [eax], -353637139 ; eaebecedH
  0011f	83 c0 04	 add	 eax, 4
  00122	4a		 dec	 edx
  00123	75 f4		 jne	 SHORT $LL104@SetTitle_e

; 190  : 		SetTitle(_t);

  00125	8d 45 ec	 lea	 eax, DWORD PTR __t$[ebp]
  00128	50		 push	 eax
  00129	ff 15 00 00 00
	00		 call	 DWORD PTR __imp_?SetTitle@ioINILoader@@QAEXPBD@Z

; 191  : 	}

  0012f	8b 4d fc	 mov	 ecx, DWORD PTR __$ArrayPad$[ebp]
  00132	33 cd		 xor	 ecx, ebp
  00134	e8 00 00 00 00	 call	 @__security_check_cookie@4
  00139	c9		 leave
  0013a	c2 04 00	 ret	 4
??$SetTitle_e@$08@ioINILoader@@QAEXAAY08$$CBD@Z ENDP	; ioINILoader::SetTitle_e<9>
_TEXT	ENDS
PUBLIC	__$ArrayPad$
PUBLIC	??$LoadString_e@$0L@@ioINILoader@@QAEXAAY0L@$$CBDAAY00$$CBDPADH@Z ; ioINILoader::LoadString_e<11>
EXTRN	__imp_?LoadStringA@ioINILoader@@QAEXPBD0PADH@Z:PROC
; Function compile flags: /Ogsp
;	COMDAT ??$LoadString_e@$0L@@ioINILoader@@QAEXAAY0L@$$CBDAAY00$$CBDPADH@Z
_TEXT	SEGMENT
__k$ = -20						; size = 11
__$ArrayPad$ = -4					; size = 4
_k$ = 8							; size = 4
_d$ = 12						; size = 4
_b$ = 16						; size = 4
_i$ = 20						; size = 4
??$LoadString_e@$0L@@ioINILoader@@QAEXAAY0L@$$CBDAAY00$$CBDPADH@Z PROC ; ioINILoader::LoadString_e<11>, COMDAT
; _this$ = ecx

; 161  : 	{

  00000	55		 push	 ebp
  00001	8b ec		 mov	 ebp, esp
  00003	83 ec 14	 sub	 esp, 20			; 00000014H
  00006	a1 00 00 00 00	 mov	 eax, DWORD PTR ___security_cookie
  0000b	33 c5		 xor	 eax, ebp
  0000d	89 45 fc	 mov	 DWORD PTR __$ArrayPad$[ebp], eax
  00010	8b 45 08	 mov	 eax, DWORD PTR _k$[ebp]

; 162  : 		_ENCSTR(k, _k);

  00013	8a 10		 mov	 dl, BYTE PTR [eax]
  00015	53		 push	 ebx
  00016	56		 push	 esi
  00017	8b 75 0c	 mov	 esi, DWORD PTR _d$[ebp]
  0001a	57		 push	 edi
  0001b	8b 7d 10	 mov	 edi, DWORD PTR _b$[ebp]
  0001e	84 d2		 test	 dl, dl
  00020	0f 84 1b 01 00
	00		 je	 $LN96@LoadString
  00026	80 f2 ed	 xor	 dl, -19			; ffffffedH
  00029	88 55 ec	 mov	 BYTE PTR __k$[ebp], dl
  0002c	8a 50 01	 mov	 dl, BYTE PTR [eax+1]
  0002f	84 d2		 test	 dl, dl
  00031	0f 84 04 01 00
	00		 je	 $LN95@LoadString
  00037	b3 ec		 mov	 bl, -20			; ffffffecH
  00039	32 d3		 xor	 dl, bl
  0003b	88 55 ed	 mov	 BYTE PTR __k$[ebp+1], dl
  0003e	8a 50 02	 mov	 dl, BYTE PTR [eax+2]
  00041	84 d2		 test	 dl, dl
  00043	0f 84 ec 00 00
	00		 je	 $LN94@LoadString
  00049	80 f2 eb	 xor	 dl, -21			; ffffffebH
  0004c	88 55 ee	 mov	 BYTE PTR __k$[ebp+2], dl
  0004f	8a 50 03	 mov	 dl, BYTE PTR [eax+3]
  00052	84 d2		 test	 dl, dl
  00054	0f 84 d5 00 00
	00		 je	 $LN93@LoadString
  0005a	80 f2 ea	 xor	 dl, -22			; ffffffeaH
  0005d	88 55 ef	 mov	 BYTE PTR __k$[ebp+3], dl
  00060	8a 50 04	 mov	 dl, BYTE PTR [eax+4]
  00063	84 d2		 test	 dl, dl
  00065	0f 84 be 00 00
	00		 je	 $LN92@LoadString
  0006b	80 f2 ed	 xor	 dl, -19			; ffffffedH
  0006e	88 55 f0	 mov	 BYTE PTR __k$[ebp+4], dl
  00071	8a 50 05	 mov	 dl, BYTE PTR [eax+5]
  00074	84 d2		 test	 dl, dl
  00076	0f 84 a8 00 00
	00		 je	 $LN91@LoadString
  0007c	32 d3		 xor	 dl, bl
  0007e	88 55 f1	 mov	 BYTE PTR __k$[ebp+5], dl
  00081	8a 50 06	 mov	 dl, BYTE PTR [eax+6]
  00084	84 d2		 test	 dl, dl
  00086	0f 84 92 00 00
	00		 je	 $LN90@LoadString
  0008c	80 f2 eb	 xor	 dl, -21			; ffffffebH
  0008f	88 55 f2	 mov	 BYTE PTR __k$[ebp+6], dl
  00092	8a 50 07	 mov	 dl, BYTE PTR [eax+7]
  00095	84 d2		 test	 dl, dl
  00097	74 7f		 je	 SHORT $LN89@LoadString
  00099	80 f2 ea	 xor	 dl, -22			; ffffffeaH
  0009c	88 55 f3	 mov	 BYTE PTR __k$[ebp+7], dl
  0009f	8a 50 08	 mov	 dl, BYTE PTR [eax+8]
  000a2	84 d2		 test	 dl, dl
  000a4	74 6c		 je	 SHORT $LN88@LoadString
  000a6	80 f2 ed	 xor	 dl, -19			; ffffffedH
  000a9	88 55 f4	 mov	 BYTE PTR __k$[ebp+8], dl
  000ac	8a 50 09	 mov	 dl, BYTE PTR [eax+9]
  000af	84 d2		 test	 dl, dl
  000b1	74 5a		 je	 SHORT $LN87@LoadString
  000b3	32 d3		 xor	 dl, bl
  000b5	80 78 0a 00	 cmp	 BYTE PTR [eax+10], 0
  000b9	88 55 f5	 mov	 BYTE PTR __k$[ebp+9], dl
  000bc	0f 84 83 00 00
	00		 je	 $LN1@LoadString
  000c2	8a 50 0b	 mov	 dl, BYTE PTR [eax+11]
  000c5	84 d2		 test	 dl, dl
  000c7	74 3e		 je	 SHORT $LN85@LoadString
  000c9	80 f2 ea	 xor	 dl, -22			; ffffffeaH
  000cc	88 55 f7	 mov	 BYTE PTR __k$[ebp+11], dl
  000cf	8a 50 0c	 mov	 dl, BYTE PTR [eax+12]
  000d2	84 d2		 test	 dl, dl
  000d4	74 2b		 je	 SHORT $LN84@LoadString
  000d6	80 f2 ed	 xor	 dl, -19			; ffffffedH
  000d9	88 55 f8	 mov	 BYTE PTR __k$[ebp+12], dl
  000dc	8a 50 0d	 mov	 dl, BYTE PTR [eax+13]
  000df	84 d2		 test	 dl, dl
  000e1	74 19		 je	 SHORT $LN83@LoadString
  000e3	8a 40 0e	 mov	 al, BYTE PTR [eax+14]
  000e6	32 d3		 xor	 dl, bl
  000e8	88 55 f9	 mov	 BYTE PTR __k$[ebp+13], dl
  000eb	84 c0		 test	 al, al
  000ed	74 07		 je	 SHORT $LN82@LoadString
  000ef	34 eb		 xor	 al, -21			; ffffffebH
  000f1	88 45 fa	 mov	 BYTE PTR __k$[ebp+14], al
  000f4	eb 4f		 jmp	 SHORT $LN1@LoadString
$LN82@LoadString:
  000f6	c6 45 fa eb	 mov	 BYTE PTR __k$[ebp+14], -21 ; ffffffebH
  000fa	eb 49		 jmp	 SHORT $LN1@LoadString
$LN83@LoadString:
  000fc	88 5d f9	 mov	 BYTE PTR __k$[ebp+13], bl
  000ff	eb 44		 jmp	 SHORT $LN1@LoadString
$LN84@LoadString:
  00101	c6 45 f8 ed	 mov	 BYTE PTR __k$[ebp+12], -19 ; ffffffedH
  00105	eb 3e		 jmp	 SHORT $LN1@LoadString
$LN85@LoadString:
  00107	c6 45 f7 ea	 mov	 BYTE PTR __k$[ebp+11], -22 ; ffffffeaH
  0010b	eb 38		 jmp	 SHORT $LN1@LoadString
$LN87@LoadString:
  0010d	88 5d f5	 mov	 BYTE PTR __k$[ebp+9], bl
  00110	eb 33		 jmp	 SHORT $LN1@LoadString
$LN88@LoadString:
  00112	c6 45 f4 ed	 mov	 BYTE PTR __k$[ebp+8], -19 ; ffffffedH
  00116	eb 2d		 jmp	 SHORT $LN1@LoadString
$LN89@LoadString:
  00118	c6 45 f3 ea	 mov	 BYTE PTR __k$[ebp+7], -22 ; ffffffeaH
  0011c	eb 27		 jmp	 SHORT $LN1@LoadString
$LN90@LoadString:
  0011e	c6 45 f2 eb	 mov	 BYTE PTR __k$[ebp+6], -21 ; ffffffebH
  00122	eb 21		 jmp	 SHORT $LN1@LoadString
$LN91@LoadString:
  00124	88 5d f1	 mov	 BYTE PTR __k$[ebp+5], bl
  00127	eb 1c		 jmp	 SHORT $LN1@LoadString
$LN92@LoadString:
  00129	c6 45 f0 ed	 mov	 BYTE PTR __k$[ebp+4], -19 ; ffffffedH
  0012d	eb 16		 jmp	 SHORT $LN1@LoadString
$LN93@LoadString:
  0012f	c6 45 ef ea	 mov	 BYTE PTR __k$[ebp+3], -22 ; ffffffeaH
  00133	eb 10		 jmp	 SHORT $LN1@LoadString
$LN94@LoadString:
  00135	c6 45 ee eb	 mov	 BYTE PTR __k$[ebp+2], -21 ; ffffffebH
  00139	eb 0a		 jmp	 SHORT $LN1@LoadString
$LN95@LoadString:
  0013b	c6 45 ed ec	 mov	 BYTE PTR __k$[ebp+1], -20 ; ffffffecH
  0013f	eb 04		 jmp	 SHORT $LN1@LoadString
$LN96@LoadString:
  00141	c6 45 ec ed	 mov	 BYTE PTR __k$[ebp], -19	; ffffffedH
$LN1@LoadString:
  00145	6a 02		 push	 2
  00147	8d 45 ec	 lea	 eax, DWORD PTR __k$[ebp]
  0014a	c6 45 f6 00	 mov	 BYTE PTR __k$[ebp+10], 0
  0014e	5a		 pop	 edx
$LL104@LoadString:
  0014f	81 30 ed ec eb
	ea		 xor	 DWORD PTR [eax], -353637139 ; eaebecedH
  00155	83 c0 04	 add	 eax, 4
  00158	4a		 dec	 edx
  00159	75 f4		 jne	 SHORT $LL104@LoadString
  0015b	6a 08		 push	 8
  0015d	58		 pop	 eax
$LL101@LoadString:
  0015e	8b d0		 mov	 edx, eax
  00160	81 e2 03 00 00
	80		 and	 edx, -2147483645	; 80000003H
  00166	79 05		 jns	 SHORT $LN111@LoadString
  00168	4a		 dec	 edx
  00169	83 ca fc	 or	 edx, -4			; fffffffcH
  0016c	42		 inc	 edx
$LN111@LoadString:
  0016d	b3 ed		 mov	 bl, -19			; ffffffedH
  0016f	2a da		 sub	 bl, dl
  00171	30 5c 05 ec	 xor	 BYTE PTR __k$[ebp+eax], bl
  00175	40		 inc	 eax
  00176	83 f8 0a	 cmp	 eax, 10			; 0000000aH
  00179	7c e3		 jl	 SHORT $LL101@LoadString

; 163  : 		LoadString(_k, d, b, i);

  0017b	ff 75 14	 push	 DWORD PTR _i$[ebp]
  0017e	8d 45 ec	 lea	 eax, DWORD PTR __k$[ebp]
  00181	57		 push	 edi
  00182	56		 push	 esi
  00183	50		 push	 eax
  00184	ff 15 00 00 00
	00		 call	 DWORD PTR __imp_?LoadStringA@ioINILoader@@QAEXPBD0PADH@Z

; 164  : 	}

  0018a	8b 4d fc	 mov	 ecx, DWORD PTR __$ArrayPad$[ebp]
  0018d	5f		 pop	 edi
  0018e	5e		 pop	 esi
  0018f	33 cd		 xor	 ecx, ebp
  00191	5b		 pop	 ebx
  00192	e8 00 00 00 00	 call	 @__security_check_cookie@4
  00197	c9		 leave
  00198	c2 10 00	 ret	 16			; 00000010H
??$LoadString_e@$0L@@ioINILoader@@QAEXAAY0L@$$CBDAAY00$$CBDPADH@Z ENDP ; ioINILoader::LoadString_e<11>
_TEXT	ENDS
PUBLIC	__$ArrayPad$
PUBLIC	??$LoadInt_e@$08@ioINILoader@@QAEHAAY08$$CBDH@Z	; ioINILoader::LoadInt_e<9>
EXTRN	__imp_?LoadInt@ioINILoader@@QAEHPBDH@Z:PROC
; Function compile flags: /Ogsp
;	COMDAT ??$LoadInt_e@$08@ioINILoader@@QAEHAAY08$$CBDH@Z
_TEXT	SEGMENT
__k$ = -20						; size = 9
__$ArrayPad$ = -4					; size = 4
_k$ = 8							; size = 4
_i$ = 12						; size = 4
??$LoadInt_e@$08@ioINILoader@@QAEHAAY08$$CBDH@Z PROC	; ioINILoader::LoadInt_e<9>, COMDAT
; _this$ = ecx

; 118  : 	{

  00000	55		 push	 ebp
  00001	8b ec		 mov	 ebp, esp
  00003	83 ec 14	 sub	 esp, 20			; 00000014H
  00006	a1 00 00 00 00	 mov	 eax, DWORD PTR ___security_cookie
  0000b	33 c5		 xor	 eax, ebp
  0000d	89 45 fc	 mov	 DWORD PTR __$ArrayPad$[ebp], eax
  00010	8b 45 08	 mov	 eax, DWORD PTR _k$[ebp]

; 119  : 		_ENCSTR(k, _k);

  00013	8a 10		 mov	 dl, BYTE PTR [eax]
  00015	84 d2		 test	 dl, dl
  00017	0f 84 ee 00 00
	00		 je	 $LN96@LoadInt_e
  0001d	80 f2 ed	 xor	 dl, -19			; ffffffedH
  00020	88 55 ec	 mov	 BYTE PTR __k$[ebp], dl
  00023	8a 50 01	 mov	 dl, BYTE PTR [eax+1]
  00026	84 d2		 test	 dl, dl
  00028	0f 84 d7 00 00
	00		 je	 $LN95@LoadInt_e
  0002e	80 f2 ec	 xor	 dl, -20			; ffffffecH
  00031	88 55 ed	 mov	 BYTE PTR __k$[ebp+1], dl
  00034	8a 50 02	 mov	 dl, BYTE PTR [eax+2]
  00037	84 d2		 test	 dl, dl
  00039	0f 84 c0 00 00
	00		 je	 $LN94@LoadInt_e
  0003f	80 f2 eb	 xor	 dl, -21			; ffffffebH
  00042	88 55 ee	 mov	 BYTE PTR __k$[ebp+2], dl
  00045	8a 50 03	 mov	 dl, BYTE PTR [eax+3]
  00048	84 d2		 test	 dl, dl
  0004a	0f 84 a9 00 00
	00		 je	 $LN93@LoadInt_e
  00050	80 f2 ea	 xor	 dl, -22			; ffffffeaH
  00053	88 55 ef	 mov	 BYTE PTR __k$[ebp+3], dl
  00056	8a 50 04	 mov	 dl, BYTE PTR [eax+4]
  00059	84 d2		 test	 dl, dl
  0005b	0f 84 92 00 00
	00		 je	 $LN92@LoadInt_e
  00061	80 f2 ed	 xor	 dl, -19			; ffffffedH
  00064	88 55 f0	 mov	 BYTE PTR __k$[ebp+4], dl
  00067	8a 50 05	 mov	 dl, BYTE PTR [eax+5]
  0006a	84 d2		 test	 dl, dl
  0006c	74 7f		 je	 SHORT $LN91@LoadInt_e
  0006e	80 f2 ec	 xor	 dl, -20			; ffffffecH
  00071	88 55 f1	 mov	 BYTE PTR __k$[ebp+5], dl
  00074	8a 50 06	 mov	 dl, BYTE PTR [eax+6]
  00077	84 d2		 test	 dl, dl
  00079	74 6c		 je	 SHORT $LN90@LoadInt_e
  0007b	80 f2 eb	 xor	 dl, -21			; ffffffebH
  0007e	88 55 f2	 mov	 BYTE PTR __k$[ebp+6], dl
  00081	8a 50 07	 mov	 dl, BYTE PTR [eax+7]
  00084	84 d2		 test	 dl, dl
  00086	74 59		 je	 SHORT $LN89@LoadInt_e
  00088	80 f2 ea	 xor	 dl, -22			; ffffffeaH
  0008b	80 78 08 00	 cmp	 BYTE PTR [eax+8], 0
  0008f	88 55 f3	 mov	 BYTE PTR __k$[ebp+7], dl
  00092	74 7b		 je	 SHORT $LN1@LoadInt_e
  00094	8a 50 09	 mov	 dl, BYTE PTR [eax+9]
  00097	84 d2		 test	 dl, dl
  00099	74 40		 je	 SHORT $LN87@LoadInt_e
  0009b	80 f2 ec	 xor	 dl, -20			; ffffffecH
  0009e	88 55 f5	 mov	 BYTE PTR __k$[ebp+9], dl
  000a1	8a 50 0a	 mov	 dl, BYTE PTR [eax+10]
  000a4	84 d2		 test	 dl, dl
  000a6	74 2d		 je	 SHORT $LN86@LoadInt_e
  000a8	80 f2 eb	 xor	 dl, -21			; ffffffebH
  000ab	88 55 f6	 mov	 BYTE PTR __k$[ebp+10], dl
  000ae	8a 50 0b	 mov	 dl, BYTE PTR [eax+11]
  000b1	84 d2		 test	 dl, dl
  000b3	74 1a		 je	 SHORT $LN85@LoadInt_e
  000b5	8a 40 0c	 mov	 al, BYTE PTR [eax+12]
  000b8	80 f2 ea	 xor	 dl, -22			; ffffffeaH
  000bb	88 55 f7	 mov	 BYTE PTR __k$[ebp+11], dl
  000be	84 c0		 test	 al, al
  000c0	74 07		 je	 SHORT $LN84@LoadInt_e
  000c2	34 ed		 xor	 al, -19			; ffffffedH
  000c4	88 45 f8	 mov	 BYTE PTR __k$[ebp+12], al
  000c7	eb 46		 jmp	 SHORT $LN1@LoadInt_e
$LN84@LoadInt_e:
  000c9	c6 45 f8 ed	 mov	 BYTE PTR __k$[ebp+12], -19 ; ffffffedH
  000cd	eb 40		 jmp	 SHORT $LN1@LoadInt_e
$LN85@LoadInt_e:
  000cf	c6 45 f7 ea	 mov	 BYTE PTR __k$[ebp+11], -22 ; ffffffeaH
  000d3	eb 3a		 jmp	 SHORT $LN1@LoadInt_e
$LN86@LoadInt_e:
  000d5	c6 45 f6 eb	 mov	 BYTE PTR __k$[ebp+10], -21 ; ffffffebH
  000d9	eb 34		 jmp	 SHORT $LN1@LoadInt_e
$LN87@LoadInt_e:
  000db	c6 45 f5 ec	 mov	 BYTE PTR __k$[ebp+9], -20 ; ffffffecH
  000df	eb 2e		 jmp	 SHORT $LN1@LoadInt_e
$LN89@LoadInt_e:
  000e1	c6 45 f3 ea	 mov	 BYTE PTR __k$[ebp+7], -22 ; ffffffeaH
  000e5	eb 28		 jmp	 SHORT $LN1@LoadInt_e
$LN90@LoadInt_e:
  000e7	c6 45 f2 eb	 mov	 BYTE PTR __k$[ebp+6], -21 ; ffffffebH
  000eb	eb 22		 jmp	 SHORT $LN1@LoadInt_e
$LN91@LoadInt_e:
  000ed	c6 45 f1 ec	 mov	 BYTE PTR __k$[ebp+5], -20 ; ffffffecH
  000f1	eb 1c		 jmp	 SHORT $LN1@LoadInt_e
$LN92@LoadInt_e:
  000f3	c6 45 f0 ed	 mov	 BYTE PTR __k$[ebp+4], -19 ; ffffffedH
  000f7	eb 16		 jmp	 SHORT $LN1@LoadInt_e
$LN93@LoadInt_e:
  000f9	c6 45 ef ea	 mov	 BYTE PTR __k$[ebp+3], -22 ; ffffffeaH
  000fd	eb 10		 jmp	 SHORT $LN1@LoadInt_e
$LN94@LoadInt_e:
  000ff	c6 45 ee eb	 mov	 BYTE PTR __k$[ebp+2], -21 ; ffffffebH
  00103	eb 0a		 jmp	 SHORT $LN1@LoadInt_e
$LN95@LoadInt_e:
  00105	c6 45 ed ec	 mov	 BYTE PTR __k$[ebp+1], -20 ; ffffffecH
  00109	eb 04		 jmp	 SHORT $LN1@LoadInt_e
$LN96@LoadInt_e:
  0010b	c6 45 ec ed	 mov	 BYTE PTR __k$[ebp], -19	; ffffffedH
$LN1@LoadInt_e:
  0010f	6a 02		 push	 2
  00111	8d 45 ec	 lea	 eax, DWORD PTR __k$[ebp]
  00114	c6 45 f4 00	 mov	 BYTE PTR __k$[ebp+8], 0
  00118	5a		 pop	 edx
$LL104@LoadInt_e:
  00119	81 30 ed ec eb
	ea		 xor	 DWORD PTR [eax], -353637139 ; eaebecedH
  0011f	83 c0 04	 add	 eax, 4
  00122	4a		 dec	 edx
  00123	75 f4		 jne	 SHORT $LL104@LoadInt_e

; 120  : 		return LoadInt(_k, i);

  00125	ff 75 0c	 push	 DWORD PTR _i$[ebp]
  00128	8d 45 ec	 lea	 eax, DWORD PTR __k$[ebp]
  0012b	50		 push	 eax
  0012c	ff 15 00 00 00
	00		 call	 DWORD PTR __imp_?LoadInt@ioINILoader@@QAEHPBDH@Z

; 121  : 	}

  00132	8b 4d fc	 mov	 ecx, DWORD PTR __$ArrayPad$[ebp]
  00135	33 cd		 xor	 ecx, ebp
  00137	e8 00 00 00 00	 call	 @__security_check_cookie@4
  0013c	c9		 leave
  0013d	c2 08 00	 ret	 8
??$LoadInt_e@$08@ioINILoader@@QAEHAAY08$$CBDH@Z ENDP	; ioINILoader::LoadInt_e<9>
_TEXT	ENDS
PUBLIC	__$ArrayPad$
PUBLIC	??$LoadInt_e@$0P@@ioINILoader@@QAEHAAY0P@$$CBDH@Z ; ioINILoader::LoadInt_e<15>
; Function compile flags: /Ogsp
;	COMDAT ??$LoadInt_e@$0P@@ioINILoader@@QAEHAAY0P@$$CBDH@Z
_TEXT	SEGMENT
__k$ = -24						; size = 15
__$ArrayPad$ = -4					; size = 4
_k$ = 8							; size = 4
_i$ = 12						; size = 4
??$LoadInt_e@$0P@@ioINILoader@@QAEHAAY0P@$$CBDH@Z PROC	; ioINILoader::LoadInt_e<15>, COMDAT
; _this$ = ecx

; 118  : 	{

  00000	55		 push	 ebp
  00001	8b ec		 mov	 ebp, esp
  00003	83 ec 18	 sub	 esp, 24			; 00000018H
  00006	a1 00 00 00 00	 mov	 eax, DWORD PTR ___security_cookie
  0000b	33 c5		 xor	 eax, ebp
  0000d	89 45 fc	 mov	 DWORD PTR __$ArrayPad$[ebp], eax
  00010	8b 45 08	 mov	 eax, DWORD PTR _k$[ebp]

; 119  : 		_ENCSTR(k, _k);

  00013	8a 10		 mov	 dl, BYTE PTR [eax]
  00015	56		 push	 esi
  00016	8b f1		 mov	 esi, ecx
  00018	84 d2		 test	 dl, dl
  0001a	0f 84 75 01 00
	00		 je	 $LN96@LoadInt_e@2
  00020	80 f2 ed	 xor	 dl, -19			; ffffffedH
  00023	88 55 e8	 mov	 BYTE PTR __k$[ebp], dl
  00026	8a 50 01	 mov	 dl, BYTE PTR [eax+1]
  00029	84 d2		 test	 dl, dl
  0002b	0f 84 5e 01 00
	00		 je	 $LN95@LoadInt_e@2
  00031	b1 ec		 mov	 cl, -20			; ffffffecH
  00033	32 d1		 xor	 dl, cl
  00035	88 55 e9	 mov	 BYTE PTR __k$[ebp+1], dl
  00038	8a 50 02	 mov	 dl, BYTE PTR [eax+2]
  0003b	84 d2		 test	 dl, dl
  0003d	0f 84 46 01 00
	00		 je	 $LN94@LoadInt_e@2
  00043	80 f2 eb	 xor	 dl, -21			; ffffffebH
  00046	88 55 ea	 mov	 BYTE PTR __k$[ebp+2], dl
  00049	8a 50 03	 mov	 dl, BYTE PTR [eax+3]
  0004c	84 d2		 test	 dl, dl
  0004e	0f 84 2f 01 00
	00		 je	 $LN93@LoadInt_e@2
  00054	80 f2 ea	 xor	 dl, -22			; ffffffeaH
  00057	88 55 eb	 mov	 BYTE PTR __k$[ebp+3], dl
  0005a	8a 50 04	 mov	 dl, BYTE PTR [eax+4]
  0005d	84 d2		 test	 dl, dl
  0005f	0f 84 18 01 00
	00		 je	 $LN92@LoadInt_e@2
  00065	80 f2 ed	 xor	 dl, -19			; ffffffedH
  00068	88 55 ec	 mov	 BYTE PTR __k$[ebp+4], dl
  0006b	8a 50 05	 mov	 dl, BYTE PTR [eax+5]
  0006e	84 d2		 test	 dl, dl
  00070	0f 84 02 01 00
	00		 je	 $LN91@LoadInt_e@2
  00076	32 d1		 xor	 dl, cl
  00078	88 55 ed	 mov	 BYTE PTR __k$[ebp+5], dl
  0007b	8a 50 06	 mov	 dl, BYTE PTR [eax+6]
  0007e	84 d2		 test	 dl, dl
  00080	0f 84 ec 00 00
	00		 je	 $LN90@LoadInt_e@2
  00086	80 f2 eb	 xor	 dl, -21			; ffffffebH
  00089	88 55 ee	 mov	 BYTE PTR __k$[ebp+6], dl
  0008c	8a 50 07	 mov	 dl, BYTE PTR [eax+7]
  0008f	84 d2		 test	 dl, dl
  00091	0f 84 d5 00 00
	00		 je	 $LN89@LoadInt_e@2
  00097	80 f2 ea	 xor	 dl, -22			; ffffffeaH
  0009a	88 55 ef	 mov	 BYTE PTR __k$[ebp+7], dl
  0009d	8a 50 08	 mov	 dl, BYTE PTR [eax+8]
  000a0	84 d2		 test	 dl, dl
  000a2	0f 84 be 00 00
	00		 je	 $LN88@LoadInt_e@2
  000a8	80 f2 ed	 xor	 dl, -19			; ffffffedH
  000ab	88 55 f0	 mov	 BYTE PTR __k$[ebp+8], dl
  000ae	8a 50 09	 mov	 dl, BYTE PTR [eax+9]
  000b1	84 d2		 test	 dl, dl
  000b3	0f 84 a8 00 00
	00		 je	 $LN87@LoadInt_e@2
  000b9	32 d1		 xor	 dl, cl
  000bb	88 55 f1	 mov	 BYTE PTR __k$[ebp+9], dl
  000be	8a 50 0a	 mov	 dl, BYTE PTR [eax+10]
  000c1	84 d2		 test	 dl, dl
  000c3	0f 84 92 00 00
	00		 je	 $LN86@LoadInt_e@2
  000c9	80 f2 eb	 xor	 dl, -21			; ffffffebH
  000cc	88 55 f2	 mov	 BYTE PTR __k$[ebp+10], dl
  000cf	8a 50 0b	 mov	 dl, BYTE PTR [eax+11]
  000d2	84 d2		 test	 dl, dl
  000d4	74 7f		 je	 SHORT $LN85@LoadInt_e@2
  000d6	80 f2 ea	 xor	 dl, -22			; ffffffeaH
  000d9	88 55 f3	 mov	 BYTE PTR __k$[ebp+11], dl
  000dc	8a 50 0c	 mov	 dl, BYTE PTR [eax+12]
  000df	84 d2		 test	 dl, dl
  000e1	74 6c		 je	 SHORT $LN84@LoadInt_e@2
  000e3	80 f2 ed	 xor	 dl, -19			; ffffffedH
  000e6	88 55 f4	 mov	 BYTE PTR __k$[ebp+12], dl
  000e9	8a 50 0d	 mov	 dl, BYTE PTR [eax+13]
  000ec	84 d2		 test	 dl, dl
  000ee	74 5a		 je	 SHORT $LN83@LoadInt_e@2
  000f0	32 d1		 xor	 dl, cl
  000f2	80 78 0e 00	 cmp	 BYTE PTR [eax+14], 0
  000f6	88 55 f5	 mov	 BYTE PTR __k$[ebp+13], dl
  000f9	0f 84 9a 00 00
	00		 je	 $LN1@LoadInt_e@2
  000ff	8a 50 0f	 mov	 dl, BYTE PTR [eax+15]
  00102	84 d2		 test	 dl, dl
  00104	74 3e		 je	 SHORT $LN81@LoadInt_e@2
  00106	80 f2 ea	 xor	 dl, -22			; ffffffeaH
  00109	88 55 f7	 mov	 BYTE PTR __k$[ebp+15], dl
  0010c	8a 50 10	 mov	 dl, BYTE PTR [eax+16]
  0010f	84 d2		 test	 dl, dl
  00111	74 2b		 je	 SHORT $LN80@LoadInt_e@2
  00113	80 f2 ed	 xor	 dl, -19			; ffffffedH
  00116	88 55 f8	 mov	 BYTE PTR __k$[ebp+16], dl
  00119	8a 50 11	 mov	 dl, BYTE PTR [eax+17]
  0011c	84 d2		 test	 dl, dl
  0011e	74 19		 je	 SHORT $LN79@LoadInt_e@2
