; Listing generated by Microsoft (R) Optimizing Compiler Version 16.00.30319.01 

	TITLE	D:\Lost Saga For Developer\Youtube\Tutorial\Source\src\LSClient\ioChargeComboCounter.cpp
	.686P
	.XMM
	include listing.inc
	.model	flat

INCLUDELIB MSVCRT
INCLUDELIB OLDNAMES

PUBLIC	?_EEM_DS@?$deque@UD3DXVECTOR3@@V?$allocator@UD3DXVECTOR3@@@std@@@std@@2HB ; std::deque<D3DXVECTOR3,std::allocator<D3DXVECTOR3> >::_EEM_DS
;	COMDAT ?_EEM_DS@?$deque@UD3DXVECTOR3@@V?$allocator@UD3DXVECTOR3@@@std@@@std@@2HB
CONST	SEGMENT
?_EEM_DS@?$deque@UD3DXVECTOR3@@V?$allocator@UD3DXVECTOR3@@@std@@@std@@2HB DD 01H ; std::deque<D3DXVECTOR3,std::allocator<D3DXVECTOR3> >::_EEM_DS
CONST	ENDS
PUBLIC	?SetChargeComboState@ioChargeComboCounter@@QAEXW4ChargeComboState@1@@Z ; ioChargeComboCounter::SetChargeComboState
; Function compile flags: /Ogsp
; File d:\lost saga for developer\youtube\tutorial\source\src\lsclient\iochargecombocounter.h
;	COMDAT ?SetChargeComboState@ioChargeComboCounter@@QAEXW4ChargeComboState@1@@Z
_TEXT	SEGMENT
_eChargeComboState$ = 8					; size = 4
?SetChargeComboState@ioChargeComboCounter@@QAEXW4ChargeComboState@1@@Z PROC ; ioChargeComboCounter::SetChargeComboState, COMDAT
; _this$ = ecx

; 123  : 	void SetChargeComboState( ioChargeComboCounter::ChargeComboState eChargeComboState ){ m_ChargeComboState = eChargeComboState; }

  00000	55		 push	 ebp
  00001	8b ec		 mov	 ebp, esp
  00003	8b 45 08	 mov	 eax, DWORD PTR _eChargeComboState$[ebp]
  00006	89 81 a0 01 00
	00		 mov	 DWORD PTR [ecx+416], eax
  0000c	5d		 pop	 ebp
  0000d	c2 04 00	 ret	 4
?SetChargeComboState@ioChargeComboCounter@@QAEXW4ChargeComboState@1@@Z ENDP ; ioChargeComboCounter::SetChargeComboState
_TEXT	ENDS
PUBLIC	?SetEnableReserveKeyTime@ioChargeComboCounter@@QAEXK@Z ; ioChargeComboCounter::SetEnableReserveKeyTime
; Function compile flags: /Ogsp
;	COMDAT ?SetEnableReserveKeyTime@ioChargeComboCounter@@QAEXK@Z
_TEXT	SEGMENT
_dwEnableReserveKeyTime$ = 8				; size = 4
?SetEnableReserveKeyTime@ioChargeComboCounter@@QAEXK@Z PROC ; ioChargeComboCounter::SetEnableReserveKeyTime, COMDAT
; _this$ = ecx

; 124  : 	void SetEnableReserveKeyTime( DWORD dwEnableReserveKeyTime ){ m_dwEnableReserveKeyTime = dwEnableReserveKeyTime; }

  00000	55		 push	 ebp
  00001	8b ec		 mov	 ebp, esp
  00003	8b 45 08	 mov	 eax, DWORD PTR _dwEnableReserveKeyTime$[ebp]
  00006	89 81 b0 01 00
	00		 mov	 DWORD PTR [ecx+432], eax
  0000c	5d		 pop	 ebp
  0000d	c2 04 00	 ret	 4
?SetEnableReserveKeyTime@ioChargeComboCounter@@QAEXK@Z ENDP ; ioChargeComboCounter::SetEnableReserveKeyTime
_TEXT	ENDS
PUBLIC	?SetAttackKeyReserved@ioChargeComboCounter@@QAEX_N@Z ; ioChargeComboCounter::SetAttackKeyReserved
; Function compile flags: /Ogsp
;	COMDAT ?SetAttackKeyReserved@ioChargeComboCounter@@QAEX_N@Z
_TEXT	SEGMENT
_bAttackKeyReserved$ = 8				; size = 1
?SetAttackKeyReserved@ioChargeComboCounter@@QAEX_N@Z PROC ; ioChargeComboCounter::SetAttackKeyReserved, COMDAT
; _this$ = ecx

; 125  : 	void SetAttackKeyReserved( bool bAttackKeyReserved ){ m_bAttackKeyReserved = bAttackKeyReserved; }

  00000	55		 push	 ebp
  00001	8b ec		 mov	 ebp, esp
  00003	8a 45 08	 mov	 al, BYTE PTR _bAttackKeyReserved$[ebp]
  00006	88 81 b8 01 00
	00		 mov	 BYTE PTR [ecx+440], al
  0000c	5d		 pop	 ebp
  0000d	c2 04 00	 ret	 4
?SetAttackKeyReserved@ioChargeComboCounter@@QAEX_N@Z ENDP ; ioChargeComboCounter::SetAttackKeyReserved
_TEXT	ENDS
PUBLIC	?SetDefenseKeyReserved@ioChargeComboCounter@@QAEX_N@Z ; ioChargeComboCounter::SetDefenseKeyReserved
; Function compile flags: /Ogsp
;	COMDAT ?SetDefenseKeyReserved@ioChargeComboCounter@@QAEX_N@Z
_TEXT	SEGMENT
_bDefenseKeyReserved$ = 8				; size = 1
?SetDefenseKeyReserved@ioChargeComboCounter@@QAEX_N@Z PROC ; ioChargeComboCounter::SetDefenseKeyReserved, COMDAT
; _this$ = ecx

; 126  : 	void SetDefenseKeyReserved( bool bDefenseKeyReserved ){ m_bDefenseKeyReserved = bDefenseKeyReserved; }

  00000	55		 push	 ebp
  00001	8b ec		 mov	 ebp, esp
  00003	8a 45 08	 mov	 al, BYTE PTR _bDefenseKeyReserved$[ebp]
  00006	88 81 b9 01 00
	00		 mov	 BYTE PTR [ecx+441], al
  0000c	5d		 pop	 ebp
  0000d	c2 04 00	 ret	 4
?SetDefenseKeyReserved@ioChargeComboCounter@@QAEX_N@Z ENDP ; ioChargeComboCounter::SetDefenseKeyReserved
_TEXT	ENDS
PUBLIC	?SetJumpKeyReserved@ioChargeComboCounter@@QAEX_N@Z ; ioChargeComboCounter::SetJumpKeyReserved
; Function compile flags: /Ogsp
;	COMDAT ?SetJumpKeyReserved@ioChargeComboCounter@@QAEX_N@Z
_TEXT	SEGMENT
_bJumpKeyReserved$ = 8					; size = 1
?SetJumpKeyReserved@ioChargeComboCounter@@QAEX_N@Z PROC	; ioChargeComboCounter::SetJumpKeyReserved, COMDAT
; _this$ = ecx

; 127  : 	void SetJumpKeyReserved( bool bJumpKeyReserved ){ m_bJumpKeyReserved = bJumpKeyReserved; }

  00000	55		 push	 ebp
  00001	8b ec		 mov	 ebp, esp
  00003	8a 45 08	 mov	 al, BYTE PTR _bJumpKeyReserved$[ebp]
  00006	88 81 ba 01 00
	00		 mov	 BYTE PTR [ecx+442], al
  0000c	5d		 pop	 ebp
  0000d	c2 04 00	 ret	 4
?SetJumpKeyReserved@ioChargeComboCounter@@QAEX_N@Z ENDP	; ioChargeComboCounter::SetJumpKeyReserved
_TEXT	ENDS
PUBLIC	?GetEnableReserveKeyTime@ioChargeComboCounter@@QAEKXZ ; ioChargeComboCounter::GetEnableReserveKeyTime
; Function compile flags: /Ogsp
;	COMDAT ?GetEnableReserveKeyTime@ioChargeComboCounter@@QAEKXZ
_TEXT	SEGMENT
?GetEnableReserveKeyTime@ioChargeComboCounter@@QAEKXZ PROC ; ioChargeComboCounter::GetEnableReserveKeyTime, COMDAT
; _this$ = ecx

; 131  : 	DWORD GetEnableReserveKeyTime(){ return m_dwEnableReserveKeyTime; }

  00000	8b 81 b0 01 00
	00		 mov	 eax, DWORD PTR [ecx+432]
  00006	c3		 ret	 0
?GetEnableReserveKeyTime@ioChargeComboCounter@@QAEKXZ ENDP ; ioChargeComboCounter::GetEnableReserveKeyTime
_TEXT	ENDS
PUBLIC	_fabsf
EXTRN	__fltused:DWORD
; Function compile flags: /Ogsp
; File c:\program files (x86)\microsoft visual studio 10.0\vc\include\math.h
;	COMDAT _fabsf
_TEXT	SEGMENT
tv129 = 8						; size = 4
__X$ = 8						; size = 4
_fabsf	PROC						; COMDAT

; 395  :         {return ((float)fabs((double)_X)); }

  00000	55		 push	 ebp
  00001	8b ec		 mov	 ebp, esp
  00003	d9 45 08	 fld	 DWORD PTR __X$[ebp]
  00006	d9 e1		 fabs
  00008	d9 5d 08	 fstp	 DWORD PTR tv129[ebp]
  0000b	d9 45 08	 fld	 DWORD PTR tv129[ebp]
  0000e	5d		 pop	 ebp
  0000f	c3		 ret	 0
_fabsf	ENDP
_TEXT	ENDS
PUBLIC	?GetCharName@ioBaseChar@@QBEABVioHashString@@XZ	; ioBaseChar::GetCharName
; Function compile flags: /Ogsp
; File d:\lost saga for developer\youtube\tutorial\source\src\lsclient\iobasechar.h
;	COMDAT ?GetCharName@ioBaseChar@@QBEABVioHashString@@XZ
_TEXT	SEGMENT
?GetCharName@ioBaseChar@@QBEABVioHashString@@XZ PROC	; ioBaseChar::GetCharName, COMDAT
; _this$ = ecx

; 2594 : 	inline const ioHashString& GetCharName() const { return m_Name; }

  00000	8d 81 d4 02 00
	00		 lea	 eax, DWORD PTR [ecx+724]
  00006	c3		 ret	 0
?GetCharName@ioBaseChar@@QBEABVioHashString@@XZ ENDP	; ioBaseChar::GetCharName
_TEXT	ENDS
PUBLIC	?SetCurJumpPowerAmt@ioBaseChar@@QAEXM@Z		; ioBaseChar::SetCurJumpPowerAmt
; Function compile flags: /Ogsp
;	COMDAT ?SetCurJumpPowerAmt@ioBaseChar@@QAEXM@Z
_TEXT	SEGMENT
_fAmt$ = 8						; size = 4
?SetCurJumpPowerAmt@ioBaseChar@@QAEXM@Z PROC		; ioBaseChar::SetCurJumpPowerAmt, COMDAT
; _this$ = ecx

; 2628 : 	inline void SetCurJumpPowerAmt( float fAmt ) { m_fCurJumpPowerAmt = fAmt; }

  00000	55		 push	 ebp
  00001	8b ec		 mov	 ebp, esp
  00003	f3 0f 10 45 08	 movss	 xmm0, DWORD PTR _fAmt$[ebp]
  00008	f3 0f 11 81 90
	0e 00 00	 movss	 DWORD PTR [ecx+3728], xmm0
  00010	5d		 pop	 ebp
  00011	c2 04 00	 ret	 4
?SetCurJumpPowerAmt@ioBaseChar@@QAEXM@Z ENDP		; ioBaseChar::SetCurJumpPowerAmt
_TEXT	ENDS
PUBLIC	?fabs@@YAMM@Z					; fabs
; Function compile flags: /Ogsp
; File c:\program files (x86)\microsoft visual studio 10.0\vc\include\math.h
;	COMDAT ?fabs@@YAMM@Z
_TEXT	SEGMENT
tv131 = 8						; size = 4
__X$ = 8						; size = 4
?fabs@@YAMM@Z PROC					; fabs, COMDAT

; 518  :         {return (fabsf(_X)); }

  00000	55		 push	 ebp
  00001	8b ec		 mov	 ebp, esp
  00003	d9 45 08	 fld	 DWORD PTR __X$[ebp]
  00006	d9 e1		 fabs
  00008	d9 5d 08	 fstp	 DWORD PTR tv131[ebp]
  0000b	d9 45 08	 fld	 DWORD PTR tv131[ebp]
  0000e	5d		 pop	 ebp
  0000f	c3		 ret	 0
?fabs@@YAMM@Z ENDP					; fabs
_TEXT	ENDS
PUBLIC	??_7bad_alloc@std@@6B@				; std::bad_alloc::`vftable'
PUBLIC	??0bad_alloc@std@@QAE@PBD@Z			; std::bad_alloc::bad_alloc
PUBLIC	??_R4bad_alloc@std@@6B@				; std::bad_alloc::`RTTI Complete Object Locator'
PUBLIC	??_R0?AVbad_alloc@std@@@8			; std::bad_alloc `RTTI Type Descriptor'
PUBLIC	??_R3bad_alloc@std@@8				; std::bad_alloc::`RTTI Class Hierarchy Descriptor'
PUBLIC	??_R2bad_alloc@std@@8				; std::bad_alloc::`RTTI Base Class Array'
PUBLIC	??_R1A@?0A@EA@bad_alloc@std@@8			; std::bad_alloc::`RTTI Base Class Descriptor at (0,-1,0,64)'
PUBLIC	??_R1A@?0A@EA@exception@std@@8			; std::exception::`RTTI Base Class Descriptor at (0,-1,0,64)'
PUBLIC	??_R0?AVexception@std@@@8			; std::exception `RTTI Type Descriptor'
PUBLIC	??_R3exception@std@@8				; std::exception::`RTTI Class Hierarchy Descriptor'
PUBLIC	??_R2exception@std@@8				; std::exception::`RTTI Base Class Array'
EXTRN	__imp_??0exception@std@@QAE@ABQBD@Z:PROC
EXTRN	??_7type_info@@6B@:QWORD			; type_info::`vftable'
EXTRN	??_Ebad_alloc@std@@UAEPAXI@Z:PROC		; std::bad_alloc::`vector deleting destructor'
EXTRN	?what@exception@std@@UBEPBDXZ:PROC		; std::exception::what
;	COMDAT ??_R2exception@std@@8
; File c:\program files (x86)\microsoft visual studio 10.0\vc\include\exception
rdata$r	SEGMENT
??_R2exception@std@@8 DD FLAT:??_R1A@?0A@EA@exception@std@@8 ; std::exception::`RTTI Base Class Array'
rdata$r	ENDS
;	COMDAT ??_R3exception@std@@8
rdata$r	SEGMENT
??_R3exception@std@@8 DD 00H				; std::exception::`RTTI Class Hierarchy Descriptor'
	DD	00H
	DD	01H
	DD	FLAT:??_R2exception@std@@8
rdata$r	ENDS
;	COMDAT ??_R0?AVexception@std@@@8
_DATA	SEGMENT
??_R0?AVexception@std@@@8 DD FLAT:??_7type_info@@6B@	; std::exception `RTTI Type Descriptor'
	DD	00H
	DB	'.?AVexception@std@@', 00H
_DATA	ENDS
;	COMDAT ??_R1A@?0A@EA@exception@std@@8
rdata$r	SEGMENT
??_R1A@?0A@EA@exception@std@@8 DD FLAT:??_R0?AVexception@std@@@8 ; std::exception::`RTTI Base Class Descriptor at (0,-1,0,64)'
	DD	00H
	DD	00H
	DD	0ffffffffH
	DD	00H
	DD	040H
	DD	FLAT:??_R3exception@std@@8
rdata$r	ENDS
;	COMDAT ??_R1A@?0A@EA@bad_alloc@std@@8
rdata$r	SEGMENT
??_R1A@?0A@EA@bad_alloc@std@@8 DD FLAT:??_R0?AVbad_alloc@std@@@8 ; std::bad_alloc::`RTTI Base Class Descriptor at (0,-1,0,64)'
	DD	01H
	DD	00H
	DD	0ffffffffH
	DD	00H
	DD	040H
	DD	FLAT:??_R3bad_alloc@std@@8
rdata$r	ENDS
;	COMDAT ??_R2bad_alloc@std@@8
rdata$r	SEGMENT
??_R2bad_alloc@std@@8 DD FLAT:??_R1A@?0A@EA@bad_alloc@std@@8 ; std::bad_alloc::`RTTI Base Class Array'
	DD	FLAT:??_R1A@?0A@EA@exception@std@@8
rdata$r	ENDS
;	COMDAT ??_R3bad_alloc@std@@8
rdata$r	SEGMENT
??_R3bad_alloc@std@@8 DD 00H				; std::bad_alloc::`RTTI Class Hierarchy Descriptor'
	DD	00H
	DD	02H
	DD	FLAT:??_R2bad_alloc@std@@8
rdata$r	ENDS
;	COMDAT ??_R0?AVbad_alloc@std@@@8
_DATA	SEGMENT
??_R0?AVbad_alloc@std@@@8 DD FLAT:??_7type_info@@6B@	; std::bad_alloc `RTTI Type Descriptor'
	DD	00H
	DB	'.?AVbad_alloc@std@@', 00H
_DATA	ENDS
;	COMDAT ??_R4bad_alloc@std@@6B@
rdata$r	SEGMENT
??_R4bad_alloc@std@@6B@ DD 00H				; std::bad_alloc::`RTTI Complete Object Locator'
	DD	00H
	DD	00H
	DD	FLAT:??_R0?AVbad_alloc@std@@@8
	DD	FLAT:??_R3bad_alloc@std@@8
rdata$r	ENDS
;	COMDAT ??_7bad_alloc@std@@6B@
CONST	SEGMENT
??_7bad_alloc@std@@6B@ DD FLAT:??_R4bad_alloc@std@@6B@	; std::bad_alloc::`vftable'
	DD	FLAT:??_Ebad_alloc@std@@UAEPAXI@Z
	DD	FLAT:?what@exception@std@@UBEPBDXZ
; Function compile flags: /Ogsp
CONST	ENDS
;	COMDAT ??0bad_alloc@std@@QAE@PBD@Z
_TEXT	SEGMENT
__Message$ = 8						; size = 4
??0bad_alloc@std@@QAE@PBD@Z PROC			; std::bad_alloc::bad_alloc, COMDAT
; _this$ = ecx

; 345  : 		{	// construct from message string

  00000	55		 push	 ebp
  00001	8b ec		 mov	 ebp, esp
  00003	56		 push	 esi
  00004	8d 45 08	 lea	 eax, DWORD PTR __Message$[ebp]
  00007	50		 push	 eax
  00008	8b f1		 mov	 esi, ecx
  0000a	ff 15 00 00 00
	00		 call	 DWORD PTR __imp_??0exception@std@@QAE@ABQBD@Z
  00010	c7 06 00 00 00
	00		 mov	 DWORD PTR [esi], OFFSET ??_7bad_alloc@std@@6B@

; 346  : 		}

  00016	8b c6		 mov	 eax, esi
  00018	5e		 pop	 esi
  00019	5d		 pop	 ebp
  0001a	c2 04 00	 ret	 4
??0bad_alloc@std@@QAE@PBD@Z ENDP			; std::bad_alloc::bad_alloc
_TEXT	ENDS
PUBLIC	??1bad_alloc@std@@UAE@XZ			; std::bad_alloc::~bad_alloc
EXTRN	__imp_??1exception@std@@UAE@XZ:PROC
; Function compile flags: /Ogsp
;	COMDAT ??1bad_alloc@std@@UAE@XZ
_TEXT	SEGMENT
??1bad_alloc@std@@UAE@XZ PROC				; std::bad_alloc::~bad_alloc, COMDAT
; _this$ = ecx

; 354  : 		{	// destroy the object

  00000	c7 01 00 00 00
	00		 mov	 DWORD PTR [ecx], OFFSET ??_7bad_alloc@std@@6B@

; 355  : 		}

  00006	ff 25 00 00 00
	00		 jmp	 DWORD PTR __imp_??1exception@std@@UAE@XZ
??1bad_alloc@std@@UAE@XZ ENDP				; std::bad_alloc::~bad_alloc
_TEXT	ENDS
EXTRN	??3@YAXPAX@Z:PROC				; operator delete
; Function compile flags: /Ogsp
;	COMDAT ??_Gbad_alloc@std@@UAEPAXI@Z
_TEXT	SEGMENT
___flags$ = 8						; size = 4
??_Gbad_alloc@std@@UAEPAXI@Z PROC			; std::bad_alloc::`scalar deleting destructor', COMDAT
; _this$ = ecx
  00000	55		 push	 ebp
  00001	8b ec		 mov	 ebp, esp
  00003	56		 push	 esi
  00004	8b f1		 mov	 esi, ecx
  00006	c7 06 00 00 00
	00		 mov	 DWORD PTR [esi], OFFSET ??_7bad_alloc@std@@6B@
  0000c	ff 15 00 00 00
	00		 call	 DWORD PTR __imp_??1exception@std@@UAE@XZ
  00012	f6 45 08 01	 test	 BYTE PTR ___flags$[ebp], 1
  00016	74 07		 je	 SHORT $LN1@scalar
  00018	56		 push	 esi
  00019	e8 00 00 00 00	 call	 ??3@YAXPAX@Z		; operator delete
  0001e	59		 pop	 ecx
$LN1@scalar:
  0001f	8b c6		 mov	 eax, esi
  00021	5e		 pop	 esi
  00022	5d		 pop	 ebp
  00023	c2 04 00	 ret	 4
??_Gbad_alloc@std@@UAEPAXI@Z ENDP			; std::bad_alloc::`scalar deleting destructor'
_TEXT	ENDS
PUBLIC	??2@YAPAXIPAX@Z					; operator new
; Function compile flags: /Ogsp
; File c:\program files (x86)\microsoft visual studio 10.0\vc\include\new
;	COMDAT ??2@YAPAXIPAX@Z
_TEXT	SEGMENT
___formal$ = 8						; size = 4
__Where$ = 12						; size = 4
??2@YAPAXIPAX@Z PROC					; operator new, COMDAT

; 56   : 	{	// construct array with placement at _Where

  00000	55		 push	 ebp
  00001	8b ec		 mov	 ebp, esp

; 57   : 	return (_Where);

  00003	8b 45 0c	 mov	 eax, DWORD PTR __Where$[ebp]

; 58   : 	}

  00006	5d		 pop	 ebp
  00007	c3		 ret	 0
??2@YAPAXIPAX@Z ENDP					; operator new
_TEXT	ENDS
PUBLIC	??3@YAXPAX0@Z					; operator delete
; Function compile flags: /Ogsp
;	COMDAT ??3@YAXPAX0@Z
_TEXT	SEGMENT
___formal$ = 8						; size = 4
___formal$ = 12						; size = 4
??3@YAXPAX0@Z PROC					; operator delete, COMDAT

; 62   : 	}

  00000	c3		 ret	 0
??3@YAXPAX0@Z ENDP					; operator delete
_TEXT	ENDS
PUBLIC	?GetCreator@ioBaseChar@@QAEPAVioPlayStage@@XZ	; ioBaseChar::GetCreator
; Function compile flags: /Ogsp
; File d:\lost saga for developer\youtube\tutorial\source\src\lsclient\iobasechar.h
;	COMDAT ?GetCreator@ioBaseChar@@QAEPAVioPlayStage@@XZ
_TEXT	SEGMENT
?GetCreator@ioBaseChar@@QAEPAVioPlayStage@@XZ PROC	; ioBaseChar::GetCreator, COMDAT
; _this$ = ecx

; 4013 : 	inline ioPlayStage* GetCreator() { return m_pCreator; }

  00000	8b 81 44 03 00
	00		 mov	 eax, DWORD PTR [ecx+836]
  00006	c3		 ret	 0
?GetCreator@ioBaseChar@@QAEPAVioPlayStage@@XZ ENDP	; ioBaseChar::GetCreator
_TEXT	ENDS
PUBLIC	?_Adopt@_Iterator_base0@std@@QAEXPBX@Z		; std::_Iterator_base0::_Adopt
; Function compile flags: /Ogsp
; File c:\program files (x86)\microsoft visual studio 10.0\vc\include\xutility
;	COMDAT ?_Adopt@_Iterator_base0@std@@QAEXPBX@Z
_TEXT	SEGMENT
___formal$ = 8						; size = 4
?_Adopt@_Iterator_base0@std@@QAEXPBX@Z PROC		; std::_Iterator_base0::_Adopt, COMDAT
; _this$ = ecx

; 49   : 		}

  00000	c2 04 00	 ret	 4
?_Adopt@_Iterator_base0@std@@QAEXPBX@Z ENDP		; std::_Iterator_base0::_Adopt
_TEXT	ENDS
PUBLIC	??0CounterBranchAniInfo@ioChargeComboCounter@@QAE@XZ ; ioChargeComboCounter::CounterBranchAniInfo::CounterBranchAniInfo
EXTRN	__imp_??0ioHashString@@QAE@XZ:PROC
; Function compile flags: /Ogsp
;	COMDAT ??0CounterBranchAniInfo@ioChargeComboCounter@@QAE@XZ
_TEXT	SEGMENT
??0CounterBranchAniInfo@ioChargeComboCounter@@QAE@XZ PROC ; ioChargeComboCounter::CounterBranchAniInfo::CounterBranchAniInfo, COMDAT
; _this$ = ecx
  00000	56		 push	 esi
  00001	8b f1		 mov	 esi, ecx
  00003	ff 15 00 00 00
	00		 call	 DWORD PTR __imp_??0ioHashString@@QAE@XZ
  00009	8b c6		 mov	 eax, esi
  0000b	5e		 pop	 esi
  0000c	c3		 ret	 0
??0CounterBranchAniInfo@ioChargeComboCounter@@QAE@XZ ENDP ; ioChargeComboCounter::CounterBranchAniInfo::CounterBranchAniInfo
_TEXT	ENDS
PUBLIC	??1CounterBranchAniInfo@ioChargeComboCounter@@QAE@XZ ; ioChargeComboCounter::CounterBranchAniInfo::~CounterBranchAniInfo
EXTRN	__imp_??1ioHashString@@QAE@XZ:PROC
; Function compile flags: /Ogsp
;	COMDAT ??1CounterBranchAniInfo@ioChargeComboCounter@@QAE@XZ
_TEXT	SEGMENT
??1CounterBranchAniInfo@ioChargeComboCounter@@QAE@XZ PROC ; ioChargeComboCounter::CounterBranchAniInfo::~CounterBranchAniInfo, COMDAT
; _this$ = ecx
  00000	ff 25 00 00 00
	00		 jmp	 DWORD PTR __imp_??1ioHashString@@QAE@XZ
??1CounterBranchAniInfo@ioChargeComboCounter@@QAE@XZ ENDP ; ioChargeComboCounter::CounterBranchAniInfo::~CounterBranchAniInfo
_TEXT	ENDS
PUBLIC	?GetType@ioChargeComboCounter@@UBE?AW4CounterAttackType@@XZ ; ioChargeComboCounter::GetType
; Function compile flags: /Ogsp
; File d:\lost saga for developer\youtube\tutorial\source\src\lsclient\iochargecombocounter.cpp
;	COMDAT ?GetType@ioChargeComboCounter@@UBE?AW4CounterAttackType@@XZ
_TEXT	SEGMENT
?GetType@ioChargeComboCounter@@UBE?AW4CounterAttackType@@XZ PROC ; ioChargeComboCounter::GetType, COMDAT
; _this$ = ecx

; 106  : 	return CAT_CHARGE_COMBO;

  00000	6a 05		 push	 5
  00002	58		 pop	 eax

; 107  : }

  00003	c3		 ret	 0
?GetType@ioChargeComboCounter@@UBE?AW4CounterAttackType@@XZ ENDP ; ioChargeComboCounter::GetType
_TEXT	ENDS
PUBLIC	?GetExtendType@ioChargeComboCounter@@UBE?AW4CounterExtendType@@XZ ; ioChargeComboCounter::GetExtendType
; Function compile flags: /Ogsp
;	COMDAT ?GetExtendType@ioChargeComboCounter@@UBE?AW4CounterExtendType@@XZ
_TEXT	SEGMENT
?GetExtendType@ioChargeComboCounter@@UBE?AW4CounterExtendType@@XZ PROC ; ioChargeComboCounter::GetExtendType, COMDAT
; _this$ = ecx

; 111  : 	return m_CounterExtendType;

  00000	8b 81 c8 00 00
	00		 mov	 eax, DWORD PTR [ecx+200]

; 112  : }

  00006	c3		 ret	 0
?GetExtendType@ioChargeComboCounter@@UBE?AW4CounterExtendType@@XZ ENDP ; ioChargeComboCounter::GetExtendType
_TEXT	ENDS
PUBLIC	?GetExtendCounter@ioChargeComboCounter@@UBEPAVExtendCounter@@XZ ; ioChargeComboCounter::GetExtendCounter
; Function compile flags: /Ogsp
;	COMDAT ?GetExtendCounter@ioChargeComboCounter@@UBEPAVExtendCounter@@XZ
_TEXT	SEGMENT
?GetExtendCounter@ioChargeComboCounter@@UBEPAVExtendCounter@@XZ PROC ; ioChargeComboCounter::GetExtendCounter, COMDAT
; _this$ = ecx

; 116  : 	return m_pExtendCounter;

  00000	8b 81 cc 00 00
	00		 mov	 eax, DWORD PTR [ecx+204]

; 117  : }

  00006	c3		 ret	 0
?GetExtendCounter@ioChargeComboCounter@@UBEPAVExtendCounter@@XZ ENDP ; ioChargeComboCounter::GetExtendCounter
_TEXT	ENDS
PUBLIC	?Init@ioChargeComboCounter@@IAEXXZ		; ioChargeComboCounter::Init
; Function compile flags: /Ogsp
;	COMDAT ?Init@ioChargeComboCounter@@IAEXXZ
_TEXT	SEGMENT
?Init@ioChargeComboCounter@@IAEXXZ PROC			; ioChargeComboCounter::Init, COMDAT
; _this$ = ecx

; 121  : 	m_ChargeComboState			= CCS_None;

  00000	33 c0		 xor	 eax, eax
  00002	89 81 a0 01 00
	00		 mov	 DWORD PTR [ecx+416], eax

; 122  : 	m_dwCounterStartTime		= 0;

  00008	89 81 a4 01 00
	00		 mov	 DWORD PTR [ecx+420], eax

; 123  : 	m_dwEnableReserveKeyTime	= 0;

  0000e	89 81 b0 01 00
	00		 mov	 DWORD PTR [ecx+432], eax

; 124  : 	m_dwMotionEndTime			= 0;

  00014	89 81 b4 01 00
	00		 mov	 DWORD PTR [ecx+436], eax

; 125  : 	m_nCurCounterCombo			= 0;

  0001a	89 81 c4 01 00
	00		 mov	 DWORD PTR [ecx+452], eax

; 126  : 
; 127  : 	m_bAttackKeyReserved		= false;

  00020	66 89 81 b8 01
	00 00		 mov	 WORD PTR [ecx+440], ax

; 128  : 	m_bDefenseKeyReserved		= false;
; 129  : 	m_bJumpKeyReserved			= false;

  00027	88 81 ba 01 00
	00		 mov	 BYTE PTR [ecx+442], al

; 130  : 
; 131  : 	m_dwRedHoodSpecialMoveMacroTime_S = 0;

  0002d	89 81 bc 01 00
	00		 mov	 DWORD PTR [ecx+444], eax

; 132  : 	m_dwRedHoodSpecialMoveMacroTime_E = 0;

  00033	89 81 c0 01 00
	00		 mov	 DWORD PTR [ecx+448], eax

; 133  : }

  00039	c3		 ret	 0
?Init@ioChargeComboCounter@@IAEXXZ ENDP			; ioChargeComboCounter::Init
_TEXT	ENDS
PUBLIC	??0CounterBranchAniInfo@ioChargeComboCounter@@QAE@ABU01@@Z ; ioChargeComboCounter::CounterBranchAniInfo::CounterBranchAniInfo
EXTRN	__imp_??0ioHashString@@QAE@ABV0@@Z:PROC
; Function compile flags: /Ogsp
;	COMDAT ??0CounterBranchAniInfo@ioChargeComboCounter@@QAE@ABU01@@Z
_TEXT	SEGMENT
___that$ = 8						; size = 4
??0CounterBranchAniInfo@ioChargeComboCounter@@QAE@ABU01@@Z PROC ; ioChargeComboCounter::CounterBranchAniInfo::CounterBranchAniInfo, COMDAT
; _this$ = ecx
  00000	55		 push	 ebp
  00001	8b ec		 mov	 ebp, esp
  00003	56		 push	 esi
  00004	57		 push	 edi
  00005	8b 7d 08	 mov	 edi, DWORD PTR ___that$[ebp]
  00008	57		 push	 edi
  00009	8b f1		 mov	 esi, ecx
  0000b	ff 15 00 00 00
	00		 call	 DWORD PTR __imp_??0ioHashString@@QAE@ABV0@@Z
  00011	d9 47 10	 fld	 DWORD PTR [edi+16]
  00014	5f		 pop	 edi
  00015	d9 5e 10	 fstp	 DWORD PTR [esi+16]
  00018	8b c6		 mov	 eax, esi
  0001a	5e		 pop	 esi
  0001b	5d		 pop	 ebp
  0001c	c2 04 00	 ret	 4
??0CounterBranchAniInfo@ioChargeComboCounter@@QAE@ABU01@@Z ENDP ; ioChargeComboCounter::CounterBranchAniInfo::CounterBranchAniInfo
_TEXT	ENDS
PUBLIC	?ProcessSpecialCAT@ioChargeComboCounter@@UAEXPAVioBaseChar@@@Z ; ioChargeComboCounter::ProcessSpecialCAT
; Function compile flags: /Ogsp
;	COMDAT ?ProcessSpecialCAT@ioChargeComboCounter@@UAEXPAVioBaseChar@@@Z
_TEXT	SEGMENT
_pOwner$ = 8						; size = 4
?ProcessSpecialCAT@ioChargeComboCounter@@UAEXPAVioBaseChar@@@Z PROC ; ioChargeComboCounter::ProcessSpecialCAT, COMDAT
; _this$ = ecx

; 343  : {

  00000	55		 push	 ebp
  00001	8b ec		 mov	 ebp, esp

; 344  : 	if( !pOwner )

  00003	83 7d 08 00	 cmp	 DWORD PTR _pOwner$[ebp], 0
  00007	74 1a		 je	 SHORT $LN1@ProcessSpe

; 345  : 		return;
; 346  : 
; 347  : 	if( m_pExtendCounter )

  00009	83 b9 cc 00 00
	00 00		 cmp	 DWORD PTR [ecx+204], 0
  00010	74 11		 je	 SHORT $LN1@ProcessSpe

; 348  : 		m_pExtendCounter->ProcessSpecialCAT( pOwner, this );

  00012	8b 81 cc 00 00
	00		 mov	 eax, DWORD PTR [ecx+204]
  00018	8b 10		 mov	 edx, DWORD PTR [eax]
  0001a	51		 push	 ecx
  0001b	ff 75 08	 push	 DWORD PTR _pOwner$[ebp]
  0001e	8b c8		 mov	 ecx, eax
  00020	ff 52 10	 call	 DWORD PTR [edx+16]
$LN1@ProcessSpe:

; 349  : }

  00023	5d		 pop	 ebp
  00024	c2 04 00	 ret	 4
?ProcessSpecialCAT@ioChargeComboCounter@@UAEXPAVioBaseChar@@@Z ENDP ; ioChargeComboCounter::ProcessSpecialCAT
_TEXT	ENDS
PUBLIC	?ApplySpecialCAT@ioChargeComboCounter@@UAEXPAVioBaseChar@@AAVSP2Packet@@@Z ; ioChargeComboCounter::ApplySpecialCAT
; Function compile flags: /Ogsp
;	COMDAT ?ApplySpecialCAT@ioChargeComboCounter@@UAEXPAVioBaseChar@@AAVSP2Packet@@@Z
_TEXT	SEGMENT
_pOwner$ = 8						; size = 4
_rkPacket$ = 12						; size = 4
?ApplySpecialCAT@ioChargeComboCounter@@UAEXPAVioBaseChar@@AAVSP2Packet@@@Z PROC ; ioChargeComboCounter::ApplySpecialCAT, COMDAT
; _this$ = ecx

; 428  : {

  00000	55		 push	 ebp
  00001	8b ec		 mov	 ebp, esp

; 429  : 	if ( !pOwner )

  00003	83 7d 08 00	 cmp	 DWORD PTR _pOwner$[ebp], 0
  00007	74 1d		 je	 SHORT $LN1@ApplySpeci

; 430  : 		return;
; 431  : 
; 432  : 	if( m_pExtendCounter )

  00009	83 b9 cc 00 00
	00 00		 cmp	 DWORD PTR [ecx+204], 0
  00010	74 14		 je	 SHORT $LN1@ApplySpeci

; 433  : 		m_pExtendCounter->ApplySpecialCAT( pOwner, this, rkPacket );

  00012	ff 75 0c	 push	 DWORD PTR _rkPacket$[ebp]
  00015	8b 81 cc 00 00
	00		 mov	 eax, DWORD PTR [ecx+204]
  0001b	8b 10		 mov	 edx, DWORD PTR [eax]
  0001d	51		 push	 ecx
  0001e	ff 75 08	 push	 DWORD PTR _pOwner$[ebp]
  00021	8b c8		 mov	 ecx, eax
  00023	ff 52 24	 call	 DWORD PTR [edx+36]
$LN1@ApplySpeci:

; 434  : }

  00026	5d		 pop	 ebp
  00027	c2 08 00	 ret	 8
?ApplySpecialCAT@ioChargeComboCounter@@UAEXPAVioBaseChar@@AAVSP2Packet@@@Z ENDP ; ioChargeComboCounter::ApplySpecialCAT
_TEXT	ENDS
PUBLIC	?IsNoDropState@ioChargeComboCounter@@QBE_NXZ	; ioChargeComboCounter::IsNoDropState
; Function compile flags: /Ogsp
;	COMDAT ?IsNoDropState@ioChargeComboCounter@@QBE_NXZ
_TEXT	SEGMENT
?IsNoDropState@ioChargeComboCounter@@QBE_NXZ PROC	; ioChargeComboCounter::IsNoDropState, COMDAT
; _this$ = ecx

; 438  : 	if( m_pExtendCounter )

  00000	8d 81 cc 00 00
	00		 lea	 eax, DWORD PTR [ecx+204]
  00006	83 38 00	 cmp	 DWORD PTR [eax], 0
  00009	74 09		 je	 SHORT $LN1@IsNoDropSt

; 439  : 		return m_pExtendCounter->IsNoDropState();

  0000b	8b 00		 mov	 eax, DWORD PTR [eax]
  0000d	8b 10		 mov	 edx, DWORD PTR [eax]
  0000f	8b c8		 mov	 ecx, eax
  00011	ff 62 1c	 jmp	 DWORD PTR [edx+28]
$LN1@IsNoDropSt:

; 440  : 
; 441  : 	return false;

  00014	32 c0		 xor	 al, al

; 442  : }

  00016	c3		 ret	 0
?IsNoDropState@ioChargeComboCounter@@QBE_NXZ ENDP	; ioChargeComboCounter::IsNoDropState
_TEXT	ENDS
PUBLIC	?SetChargeState@ioChargeComboCounter@@IAE_NPAVioBaseChar@@@Z ; ioChargeComboCounter::SetChargeState
; Function compile flags: /Ogsp
;	COMDAT ?SetChargeState@ioChargeComboCounter@@IAE_NPAVioBaseChar@@@Z
_TEXT	SEGMENT
_pOwner$ = 8						; size = 4
?SetChargeState@ioChargeComboCounter@@IAE_NPAVioBaseChar@@@Z PROC ; ioChargeComboCounter::SetChargeState, COMDAT
; _this$ = ecx

; 492  : {

  00000	55		 push	 ebp
  00001	8b ec		 mov	 ebp, esp

; 493  : 	if ( !pOwner )

  00003	83 7d 08 00	 cmp	 DWORD PTR _pOwner$[ebp], 0

; 494  : 		return false;

  00007	74 1a		 je	 SHORT $LN1@SetChargeS

; 495  : 
; 496  : 	if( m_pExtendCounter )

  00009	8d 81 cc 00 00
	00		 lea	 eax, DWORD PTR [ecx+204]
  0000f	83 38 00	 cmp	 DWORD PTR [eax], 0
  00012	74 0f		 je	 SHORT $LN1@SetChargeS

; 497  : 	{
; 498  : 		return m_pExtendCounter->SetChargeState( pOwner, this );

  00014	8b 00		 mov	 eax, DWORD PTR [eax]
  00016	8b 10		 mov	 edx, DWORD PTR [eax]
  00018	51		 push	 ecx
  00019	ff 75 08	 push	 DWORD PTR _pOwner$[ebp]
  0001c	8b c8		 mov	 ecx, eax
  0001e	ff 52 14	 call	 DWORD PTR [edx+20]
  00021	eb 02		 jmp	 SHORT $LN3@SetChargeS
$LN1@SetChargeS:

; 499  : 	}
; 500  : 
; 501  : 	return false;

  00023	32 c0		 xor	 al, al
$LN3@SetChargeS:

; 502  : }

  00025	5d		 pop	 ebp
  00026	c2 04 00	 ret	 4
?SetChargeState@ioChargeComboCounter@@IAE_NPAVioBaseChar@@@Z ENDP ; ioChargeComboCounter::SetChargeState
_TEXT	ENDS
PUBLIC	?ReserveInputKey@ioChargeComboCounter@@QAEXPAVioBaseChar@@_N11@Z ; ioChargeComboCounter::ReserveInputKey
EXTRN	?IsJumpKey@ioBaseChar@@QBE_NXZ:PROC		; ioBaseChar::IsJumpKey
EXTRN	?IsDefenseKey@ioBaseChar@@QBE_NXZ:PROC		; ioBaseChar::IsDefenseKey
EXTRN	?IsAttackKey@ioBaseChar@@QBE_NXZ:PROC		; ioBaseChar::IsAttackKey
; Function compile flags: /Ogsp
;	COMDAT ?ReserveInputKey@ioChargeComboCounter@@QAEXPAVioBaseChar@@_N11@Z
_TEXT	SEGMENT
_pOwner$ = 8						; size = 4
_bEnableAttack$ = 12					; size = 1
_bEnableDefence$ = 16					; size = 1
_bEnableJump$ = 20					; size = 1
?ReserveInputKey@ioChargeComboCounter@@QAEXPAVioBaseChar@@_N11@Z PROC ; ioChargeComboCounter::ReserveInputKey, COMDAT
; _this$ = ecx

; 713  : {

  00000	55		 push	 ebp
  00001	8b ec		 mov	 ebp, esp
  00003	56		 push	 esi
  00004	57		 push	 edi

; 714  : 	if ( !pOwner || !pOwner->IsNeedProcess() )

  00005	8b 7d 08	 mov	 edi, DWORD PTR _pOwner$[ebp]
  00008	8b f1		 mov	 esi, ecx
  0000a	85 ff		 test	 edi, edi
  0000c	74 56		 je	 SHORT $LN4@ReserveInp
  0000e	8b 07		 mov	 eax, DWORD PTR [edi]
  00010	8b cf		 mov	 ecx, edi
  00012	ff 90 00 01 00
	00		 call	 DWORD PTR [eax+256]
  00018	84 c0		 test	 al, al
  0001a	74 48		 je	 SHORT $LN4@ReserveInp

; 715  : 		return;
; 716  : 
; 717  : 	if( bEnableAttack && pOwner->IsAttackKey() )

  0001c	80 7d 0c 00	 cmp	 BYTE PTR _bEnableAttack$[ebp], 0
  00020	74 12		 je	 SHORT $LN3@ReserveInp
  00022	8b cf		 mov	 ecx, edi
  00024	e8 00 00 00 00	 call	 ?IsAttackKey@ioBaseChar@@QBE_NXZ ; ioBaseChar::IsAttackKey
  00029	84 c0		 test	 al, al
  0002b	74 07		 je	 SHORT $LN3@ReserveInp

; 718  : 		m_bAttackKeyReserved = true;

  0002d	c6 86 b8 01 00
	00 01		 mov	 BYTE PTR [esi+440], 1
$LN3@ReserveInp:

; 719  : 
; 720  : 	if( bEnableDefence && pOwner->IsDefenseKey() )

  00034	80 7d 10 00	 cmp	 BYTE PTR _bEnableDefence$[ebp], 0
  00038	74 12		 je	 SHORT $LN2@ReserveInp
  0003a	8b cf		 mov	 ecx, edi
  0003c	e8 00 00 00 00	 call	 ?IsDefenseKey@ioBaseChar@@QBE_NXZ ; ioBaseChar::IsDefenseKey
  00041	84 c0		 test	 al, al
  00043	74 07		 je	 SHORT $LN2@ReserveInp

; 721  : 		m_bDefenseKeyReserved = true;

  00045	c6 86 b9 01 00
	00 01		 mov	 BYTE PTR [esi+441], 1
$LN2@ReserveInp:

; 722  : 
; 723  : 	if( bEnableJump && pOwner->IsJumpKey() )

  0004c	80 7d 14 00	 cmp	 BYTE PTR _bEnableJump$[ebp], 0
  00050	74 12		 je	 SHORT $LN4@ReserveInp
  00052	8b cf		 mov	 ecx, edi
  00054	e8 00 00 00 00	 call	 ?IsJumpKey@ioBaseChar@@QBE_NXZ ; ioBaseChar::IsJumpKey
  00059	84 c0		 test	 al, al
  0005b	74 07		 je	 SHORT $LN4@ReserveInp

; 724  : 		m_bJumpKeyReserved = true;

  0005d	c6 86 ba 01 00
	00 01		 mov	 BYTE PTR [esi+442], 1
$LN4@ReserveInp:
  00064	5f		 pop	 edi
  00065	5e		 pop	 esi

; 725  : }

  00066	5d		 pop	 ebp
  00067	c2 10 00	 ret	 16			; 00000010H
?ReserveInputKey@ioChargeComboCounter@@QAEXPAVioBaseChar@@_N11@Z ENDP ; ioChargeComboCounter::ReserveInputKey
_TEXT	ENDS
PUBLIC	?SetReserveAttack@ioChargeComboCounter@@IAEXPAVioBaseChar@@@Z ; ioChargeComboCounter::SetReserveAttack
EXTRN	?SetNormalAttack@ioBaseChar@@QAEXH@Z:PROC	; ioBaseChar::SetNormalAttack
; Function compile flags: /Ogsp
;	COMDAT ?SetReserveAttack@ioChargeComboCounter@@IAEXPAVioBaseChar@@@Z
_TEXT	SEGMENT
_pOwner$ = 8						; size = 4
?SetReserveAttack@ioChargeComboCounter@@IAEXPAVioBaseChar@@@Z PROC ; ioChargeComboCounter::SetReserveAttack, COMDAT
; _this$ = ecx

; 762  : {

  00000	55		 push	 ebp
  00001	8b ec		 mov	 ebp, esp
  00003	56		 push	 esi
  00004	57		 push	 edi

; 763  : 	if ( !pOwner || !pOwner->IsNeedProcess() )

  00005	8b 7d 08	 mov	 edi, DWORD PTR _pOwner$[ebp]
  00008	8b f1		 mov	 esi, ecx
  0000a	85 ff		 test	 edi, edi
  0000c	74 1e		 je	 SHORT $LN1@SetReserve
  0000e	8b 07		 mov	 eax, DWORD PTR [edi]
  00010	8b cf		 mov	 ecx, edi
  00012	ff 90 00 01 00
	00		 call	 DWORD PTR [eax+256]
  00018	84 c0		 test	 al, al
  0001a	74 10		 je	 SHORT $LN1@SetReserve

; 764  : 		return;
; 765  : 
; 766  : 	pOwner->SetNormalAttack(0);

  0001c	6a 00		 push	 0
  0001e	8b cf		 mov	 ecx, edi
  00020	e8 00 00 00 00	 call	 ?SetNormalAttack@ioBaseChar@@QAEXH@Z ; ioBaseChar::SetNormalAttack

; 767  : 
; 768  : 	m_bAttackKeyReserved = false;

  00025	c6 86 b8 01 00
	00 00		 mov	 BYTE PTR [esi+440], 0
$LN1@SetReserve:
  0002c	5f		 pop	 edi
  0002d	5e		 pop	 esi

; 769  : }

  0002e	5d		 pop	 ebp
  0002f	c2 04 00	 ret	 4
?SetReserveAttack@ioChargeComboCounter@@IAEXPAVioBaseChar@@@Z ENDP ; ioChargeComboCounter::SetReserveAttack
_TEXT	ENDS
PUBLIC	?SetReserveDefence@ioChargeComboCounter@@IAEXPAVioBaseChar@@@Z ; ioChargeComboCounter::SetReserveDefence
EXTRN	?SetDefenseState@ioBaseChar@@QAEXXZ:PROC	; ioBaseChar::SetDefenseState
; Function compile flags: /Ogsp
;	COMDAT ?SetReserveDefence@ioChargeComboCounter@@IAEXPAVioBaseChar@@@Z
_TEXT	SEGMENT
_pOwner$ = 8						; size = 4
?SetReserveDefence@ioChargeComboCounter@@IAEXPAVioBaseChar@@@Z PROC ; ioChargeComboCounter::SetReserveDefence, COMDAT
; _this$ = ecx

; 772  : {

  00000	55		 push	 ebp
  00001	8b ec		 mov	 ebp, esp
  00003	56		 push	 esi
  00004	57		 push	 edi

; 773  : 	if ( !pOwner || !pOwner->IsNeedProcess() )

  00005	8b 7d 08	 mov	 edi, DWORD PTR _pOwner$[ebp]
  00008	8b f1		 mov	 esi, ecx
  0000a	85 ff		 test	 edi, edi
  0000c	74 1c		 je	 SHORT $LN1@SetReserve@2
  0000e	8b 07		 mov	 eax, DWORD PTR [edi]
  00010	8b cf		 mov	 ecx, edi
  00012	ff 90 00 01 00
	00		 call	 DWORD PTR [eax+256]
  00018	84 c0		 test	 al, al
  0001a	74 0e		 je	 SHORT $LN1@SetReserve@2

; 774  : 		return;
; 775  : 
; 776  : 	pOwner->SetDefenseState();

  0001c	8b cf		 mov	 ecx, edi
  0001e	e8 00 00 00 00	 call	 ?SetDefenseState@ioBaseChar@@QAEXXZ ; ioBaseChar::SetDefenseState

; 777  : 	m_bDefenseKeyReserved = false;

  00023	c6 86 b9 01 00
	00 00		 mov	 BYTE PTR [esi+441], 0
$LN1@SetReserve@2:
  0002a	5f		 pop	 edi
  0002b	5e		 pop	 esi

; 778  : }

  0002c	5d		 pop	 ebp
  0002d	c2 04 00	 ret	 4
?SetReserveDefence@ioChargeComboCounter@@IAEXPAVioBaseChar@@@Z ENDP ; ioChargeComboCounter::SetReserveDefence
_TEXT	ENDS
PUBLIC	?SetReserveJump@ioChargeComboCounter@@IAEXPAVioBaseChar@@@Z ; ioChargeComboCounter::SetReserveJump
EXTRN	?SetJumpState@ioBaseChar@@QAEX_N@Z:PROC		; ioBaseChar::SetJumpState
; Function compile flags: /Ogsp
;	COMDAT ?SetReserveJump@ioChargeComboCounter@@IAEXPAVioBaseChar@@@Z
_TEXT	SEGMENT
_pOwner$ = 8						; size = 4
?SetReserveJump@ioChargeComboCounter@@IAEXPAVioBaseChar@@@Z PROC ; ioChargeComboCounter::SetReserveJump, COMDAT
; _this$ = ecx

; 781  : {

  00000	55		 push	 ebp
  00001	8b ec		 mov	 ebp, esp
  00003	56		 push	 esi
  00004	57		 push	 edi

; 782  : 	if ( !pOwner || !pOwner->IsNeedProcess() )

  00005	8b 7d 08	 mov	 edi, DWORD PTR _pOwner$[ebp]
  00008	8b f1		 mov	 esi, ecx
  0000a	85 ff		 test	 edi, edi
  0000c	74 1e		 je	 SHORT $LN1@SetReserve@3
  0000e	8b 07		 mov	 eax, DWORD PTR [edi]
  00010	8b cf		 mov	 ecx, edi
  00012	ff 90 00 01 00
	00		 call	 DWORD PTR [eax+256]
  00018	84 c0		 test	 al, al
  0001a	74 10		 je	 SHORT $LN1@SetReserve@3

; 783  : 		return;
; 784  : 
; 785  : 	pOwner->SetJumpState();

  0001c	6a 01		 push	 1
  0001e	8b cf		 mov	 ecx, edi
  00020	e8 00 00 00 00	 call	 ?SetJumpState@ioBaseChar@@QAEX_N@Z ; ioBaseChar::SetJumpState

; 786  : 	m_bJumpKeyReserved = false;	

  00025	c6 86 ba 01 00
	00 00		 mov	 BYTE PTR [esi+442], 0
$LN1@SetReserve@3:
  0002c	5f		 pop	 edi
  0002d	5e		 pop	 esi

; 787  : }

  0002e	5d		 pop	 ebp
  0002f	c2 04 00	 ret	 4
?SetReserveJump@ioChargeComboCounter@@IAEXPAVioBaseChar@@@Z ENDP ; ioChargeComboCounter::SetReserveJump
_TEXT	ENDS
PUBLIC	?IsFloatState@ioChargeComboCounter@@IAE_NPAVioBaseChar@@@Z ; ioChargeComboCounter::IsFloatState
EXTRN	?GetMapHeightOnlyTerrain@ioPlayStage@@QAEMMMM@Z:PROC ; ioPlayStage::GetMapHeightOnlyTerrain
; Function compile flags: /Ogsp
;	COMDAT ?IsFloatState@ioChargeComboCounter@@IAE_NPAVioBaseChar@@@Z
_TEXT	SEGMENT
_vPos$ = -16						; size = 12
_this$ = -4						; size = 4
tv169 = 8						; size = 4
tv166 = 8						; size = 4
_fMapHeight$ = 8					; size = 4
_pOwner$ = 8						; size = 4
?IsFloatState@ioChargeComboCounter@@IAE_NPAVioBaseChar@@@Z PROC ; ioChargeComboCounter::IsFloatState, COMDAT
; _this$ = ecx

; 790  : {	

  00000	55		 push	 ebp
  00001	8b ec		 mov	 ebp, esp
  00003	83 ec 10	 sub	 esp, 16			; 00000010H
  00006	89 4d fc	 mov	 DWORD PTR _this$[ebp], ecx

; 791  : 	if ( !pOwner )

  00009	8b 4d 08	 mov	 ecx, DWORD PTR _pOwner$[ebp]
  0000c	85 c9		 test	 ecx, ecx
  0000e	75 04		 jne	 SHORT $LN3@IsFloatSta

; 792  : 		return false;

  00010	32 c0		 xor	 al, al
  00012	eb 73		 jmp	 SHORT $LN4@IsFloatSta
$LN3@IsFloatSta:
  00014	53		 push	 ebx

; 793  : 
; 794  : 	ioPlayStage *pStage = pOwner->GetCreator();

  00015	8b 99 44 03 00
	00		 mov	 ebx, DWORD PTR [ecx+836]

; 795  : 	if ( !pStage )

  0001b	85 db		 test	 ebx, ebx

; 796  : 		return false;

  0001d	74 65		 je	 SHORT $LN1@IsFloatSta

; 797  : 
; 798  : 	D3DXVECTOR3 vPos = pOwner->GetWorldPosition();

  0001f	8b 01		 mov	 eax, DWORD PTR [ecx]
  00021	56		 push	 esi
  00022	57		 push	 edi
  00023	ff 50 70	 call	 DWORD PTR [eax+112]

; 799  : 	float fMapHeight = pStage->GetMapHeightOnlyTerrain( vPos.x, vPos.z );

  00026	0f 57 c0	 xorps	 xmm0, xmm0
  00029	8b f0		 mov	 esi, eax
  0002b	8d 7d f0	 lea	 edi, DWORD PTR _vPos$[ebp]
  0002e	a5		 movsd
  0002f	a5		 movsd
  00030	83 ec 0c	 sub	 esp, 12			; 0000000cH
  00033	f3 0f 11 44 24
	08		 movss	 DWORD PTR [esp+8], xmm0
  00039	a5		 movsd
  0003a	f3 0f 10 45 f8	 movss	 xmm0, DWORD PTR _vPos$[ebp+8]
  0003f	f3 0f 11 44 24
	04		 movss	 DWORD PTR [esp+4], xmm0
  00045	f3 0f 10 45 f0	 movss	 xmm0, DWORD PTR _vPos$[ebp]
  0004a	8b cb		 mov	 ecx, ebx
  0004c	f3 0f 11 04 24	 movss	 DWORD PTR [esp], xmm0
  00051	e8 00 00 00 00	 call	 ?GetMapHeightOnlyTerrain@ioPlayStage@@QAEMMMM@Z ; ioPlayStage::GetMapHeightOnlyTerrain
  00056	d9 5d 08	 fstp	 DWORD PTR _fMapHeight$[ebp]

; 800  : 
; 801  : 	if ( fabs( fMapHeight - vPos.y ) >= m_fJumpHeightGap )

  00059	d9 45 08	 fld	 DWORD PTR _fMapHeight$[ebp]
  0005c	8b 45 fc	 mov	 eax, DWORD PTR _this$[ebp]
  0005f	d8 65 f4	 fsub	 DWORD PTR _vPos$[ebp+4]
  00062	5f		 pop	 edi
  00063	5e		 pop	 esi
  00064	d9 5d 08	 fstp	 DWORD PTR tv169[ebp]
  00067	d9 45 08	 fld	 DWORD PTR tv169[ebp]
  0006a	d9 e1		 fabs
  0006c	d9 5d 08	 fstp	 DWORD PTR tv166[ebp]
  0006f	d9 45 08	 fld	 DWORD PTR tv166[ebp]
  00072	d9 80 9c 01 00
	00		 fld	 DWORD PTR [eax+412]
  00078	d9 c9		 fxch	 ST(1)
  0007a	df f1		 fcomip	 ST(1)
  0007c	dd d8		 fstp	 ST(0)
  0007e	72 04		 jb	 SHORT $LN1@IsFloatSta

; 802  : 	{
; 803  : 		return true;

  00080	b0 01		 mov	 al, 1
  00082	eb 02		 jmp	 SHORT $LN12@IsFloatSta
$LN1@IsFloatSta:

; 804  : 	}
; 805  : 
; 806  : 	return false;

  00084	32 c0		 xor	 al, al
$LN12@IsFloatSta:
  00086	5b		 pop	 ebx
$LN4@IsFloatSta:

; 807  : }

  00087	c9		 leave
  00088	c2 04 00	 ret	 4
?IsFloatState@ioChargeComboCounter@@IAE_NPAVioBaseChar@@@Z ENDP ; ioChargeComboCounter::IsFloatState
_TEXT	ENDS
PUBLIC	??_7ExtendCounter@@6B@				; ExtendCounter::`vftable'
PUBLIC	??0ExtendCounter@@QAE@XZ			; ExtendCounter::ExtendCounter
PUBLIC	??_R4ExtendCounter@@6B@				; ExtendCounter::`RTTI Complete Object Locator'
PUBLIC	??_R0?AVExtendCounter@@@8			; ExtendCounter `RTTI Type Descriptor'
PUBLIC	??_R3ExtendCounter@@8				; ExtendCounter::`RTTI Class Hierarchy Descriptor'
PUBLIC	??_R2ExtendCounter@@8				; ExtendCounter::`RTTI Base Class Array'
PUBLIC	??_R1A@?0A@EA@ExtendCounter@@8			; ExtendCounter::`RTTI Base Class Descriptor at (0,-1,0,64)'
PUBLIC	?Clone@ExtendCounter@@UAEPAV1@XZ		; ExtendCounter::Clone
PUBLIC	?LoadProperty@ExtendCounter@@UAEXAAVioINILoader@@@Z ; ExtendCounter::LoadProperty
PUBLIC	?StartCAT@ExtendCounter@@UAE_NPAVioBaseChar@@PAVioChargeComboCounter@@@Z ; ExtendCounter::StartCAT
PUBLIC	?ProcessCAT@ExtendCounter@@UAEXPAVioBaseChar@@PAVioChargeComboCounter@@@Z ; ExtendCounter::ProcessCAT
PUBLIC	?ProcessSpecialCAT@ExtendCounter@@UAEXPAVioBaseChar@@PAVioChargeComboCounter@@@Z ; ExtendCounter::ProcessSpecialCAT
PUBLIC	?SetChargeState@ExtendCounter@@UAE_NPAVioBaseChar@@PAVioChargeComboCounter@@@Z ; ExtendCounter::SetChargeState
PUBLIC	?CounterAttack@ExtendCounter@@MAEXPAVioBaseChar@@PAVioChargeComboCounter@@PBUAttackAttribute@@_N@Z ; ExtendCounter::CounterAttack
PUBLIC	?IsNoDropState@ExtendCounter@@UBE_NXZ		; ExtendCounter::IsNoDropState
PUBLIC	?ApplyCAT@ExtendCounter@@UAEXPAVioBaseChar@@PAVioChargeComboCounter@@AAVSP2Packet@@@Z ; ExtendCounter::ApplyCAT
PUBLIC	?ApplySpecialCAT@ExtendCounter@@UAEXPAVioBaseChar@@PAVioChargeComboCounter@@AAVSP2Packet@@@Z ; ExtendCounter::ApplySpecialCAT
EXTRN	??_EExtendCounter@@UAEPAXI@Z:PROC		; ExtendCounter::`vector deleting destructor'
;	COMDAT ??_R1A@?0A@EA@ExtendCounter@@8
rdata$r	SEGMENT
??_R1A@?0A@EA@ExtendCounter@@8 DD FLAT:??_R0?AVExtendCounter@@@8 ; ExtendCounter::`RTTI Base Class Descriptor at (0,-1,0,64)'
	DD	00H
	DD	00H
	DD	0ffffffffH
	DD	00H
	DD	040H
	DD	FLAT:??_R3ExtendCounter@@8
rdata$r	ENDS
;	COMDAT ??_R2ExtendCounter@@8
rdata$r	SEGMENT
??_R2ExtendCounter@@8 DD FLAT:??_R1A@?0A@EA@ExtendCounter@@8 ; ExtendCounter::`RTTI Base Class Array'
rdata$r	ENDS
;	COMDAT ??_R3ExtendCounter@@8
rdata$r	SEGMENT
??_R3ExtendCounter@@8 DD 00H				; ExtendCounter::`RTTI Class Hierarchy Descriptor'
	DD	00H
	DD	01H
	DD	FLAT:??_R2ExtendCounter@@8
rdata$r	ENDS
;	COMDAT ??_R0?AVExtendCounter@@@8
_DATA	SEGMENT
??_R0?AVExtendCounter@@@8 DD FLAT:??_7type_info@@6B@	; ExtendCounter `RTTI Type Descriptor'
	DD	00H
	DB	'.?AVExtendCounter@@', 00H
_DATA	ENDS
;	COMDAT ??_R4ExtendCounter@@6B@
rdata$r	SEGMENT
??_R4ExtendCounter@@6B@ DD 00H				; ExtendCounter::`RTTI Complete Object Locator'
	DD	00H
	DD	00H
	DD	FLAT:??_R0?AVExtendCounter@@@8
	DD	FLAT:??_R3ExtendCounter@@8
rdata$r	ENDS
;	COMDAT ??_7ExtendCounter@@6B@
CONST	SEGMENT
??_7ExtendCounter@@6B@ DD FLAT:??_R4ExtendCounter@@6B@	; ExtendCounter::`vftable'
	DD	FLAT:?Clone@ExtendCounter@@UAEPAV1@XZ
	DD	FLAT:?LoadProperty@ExtendCounter@@UAEXAAVioINILoader@@@Z
	DD	FLAT:?StartCAT@ExtendCounter@@UAE_NPAVioBaseChar@@PAVioChargeComboCounter@@@Z
	DD	FLAT:?ProcessCAT@ExtendCounter@@UAEXPAVioBaseChar@@PAVioChargeComboCounter@@@Z
	DD	FLAT:?ProcessSpecialCAT@ExtendCounter@@UAEXPAVioBaseChar@@PAVioChargeComboCounter@@@Z
	DD	FLAT:?SetChargeState@ExtendCounter@@UAE_NPAVioBaseChar@@PAVioChargeComboCounter@@@Z
	DD	FLAT:?CounterAttack@ExtendCounter@@MAEXPAVioBaseChar@@PAVioChargeComboCounter@@PBUAttackAttribute@@_N@Z
	DD	FLAT:?IsNoDropState@ExtendCounter@@UBE_NXZ
	DD	FLAT:?ApplyCAT@ExtendCounter@@UAEXPAVioBaseChar@@PAVioChargeComboCounter@@AAVSP2Packet@@@Z
	DD	FLAT:?ApplySpecialCAT@ExtendCounter@@UAEXPAVioBaseChar@@PAVioChargeComboCounter@@AAVSP2Packet@@@Z
	DD	FLAT:??_EExtendCounter@@UAEPAXI@Z
; Function compile flags: /Ogsp
CONST	ENDS
;	COMDAT ??0ExtendCounter@@QAE@XZ
_TEXT	SEGMENT
??0ExtendCounter@@QAE@XZ PROC				; ExtendCounter::ExtendCounter, COMDAT
; _this$ = ecx

; 831  : {

  00000	8b c1		 mov	 eax, ecx

; 832  : 	m_dwMotionEndTime = 0;

  00002	83 60 08 00	 and	 DWORD PTR [eax+8], 0
  00006	c7 00 00 00 00
	00		 mov	 DWORD PTR [eax], OFFSET ??_7ExtendCounter@@6B@

; 833  : }

  0000c	c3		 ret	 0
??0ExtendCounter@@QAE@XZ ENDP				; ExtendCounter::ExtendCounter
; Function compile flags: /Ogsp
; File d:\lost saga for developer\youtube\tutorial\source\src\lsclient\iochargecombocounter.h
_TEXT	ENDS
;	COMDAT ?LoadProperty@ExtendCounter@@UAEXAAVioINILoader@@@Z
_TEXT	SEGMENT
_rkLoader$ = 8						; size = 4
?LoadProperty@ExtendCounter@@UAEXAAVioINILoader@@@Z PROC ; ExtendCounter::LoadProperty, COMDAT
; _this$ = ecx

; 165  : 	virtual void LoadProperty( ioINILoader &rkLoader ){};

  00000	c2 04 00	 ret	 4
?LoadProperty@ExtendCounter@@UAEXAAVioINILoader@@@Z ENDP ; ExtendCounter::LoadProperty
; Function compile flags: /Ogsp
_TEXT	ENDS
;	COMDAT ?StartCAT@ExtendCounter@@UAE_NPAVioBaseChar@@PAVioChargeComboCounter@@@Z
_TEXT	SEGMENT
_pOwner$ = 8						; size = 4
_pCounter$ = 12						; size = 4
?StartCAT@ExtendCounter@@UAE_NPAVioBaseChar@@PAVioChargeComboCounter@@@Z PROC ; ExtendCounter::StartCAT, COMDAT
; _this$ = ecx

; 168  : 	virtual bool StartCAT( ioBaseChar *pOwner, ioChargeComboCounter* pCounter ){  return false; }

  00000	32 c0		 xor	 al, al
  00002	c2 08 00	 ret	 8
?StartCAT@ExtendCounter@@UAE_NPAVioBaseChar@@PAVioChargeComboCounter@@@Z ENDP ; ExtendCounter::StartCAT
; Function compile flags: /Ogsp
_TEXT	ENDS
;	COMDAT ?ProcessCAT@ExtendCounter@@UAEXPAVioBaseChar@@PAVioChargeComboCounter@@@Z
_TEXT	SEGMENT
_pOwner$ = 8						; size = 4
_pCounter$ = 12						; size = 4
?ProcessCAT@ExtendCounter@@UAEXPAVioBaseChar@@PAVioChargeComboCounter@@@Z PROC ; ExtendCounter::ProcessCAT, COMDAT
; _this$ = ecx

; 169  : 	virtual void ProcessCAT( ioBaseChar *pOwner, ioChargeComboCounter* pCounter ){}

  00000	c2 08 00	 ret	 8
?ProcessCAT@ExtendCounter@@UAEXPAVioBaseChar@@PAVioChargeComboCounter@@@Z ENDP ; ExtendCounter::ProcessCAT
; Function compile flags: /Ogsp
_TEXT	ENDS
;	COMDAT ?ProcessSpecialCAT@ExtendCounter@@UAEXPAVioBaseChar@@PAVioChargeComboCounter@@@Z
_TEXT	SEGMENT
_pOwner$ = 8						; size = 4
_pCounter$ = 12						; size = 4
?ProcessSpecialCAT@ExtendCounter@@UAEXPAVioBaseChar@@PAVioChargeComboCounter@@@Z PROC ; ExtendCounter::ProcessSpecialCAT, COMDAT
; _this$ = ecx

; 170  : 	virtual void ProcessSpecialCAT( ioBaseChar *pOwner, ioChargeComboCounter* pCounter ){}	

  00000	c2 08 00	 ret	 8
?ProcessSpecialCAT@ExtendCounter@@UAEXPAVioBaseChar@@PAVioChargeComboCounter@@@Z ENDP ; ExtendCounter::ProcessSpecialCAT
; Function compile flags: /Ogsp
_TEXT	ENDS
;	COMDAT ?SetChargeState@ExtendCounter@@UAE_NPAVioBaseChar@@PAVioChargeComboCounter@@@Z
_TEXT	SEGMENT
_pOwner$ = 8						; size = 4
_pCounter$ = 12						; size = 4
?SetChargeState@ExtendCounter@@UAE_NPAVioBaseChar@@PAVioChargeComboCounter@@@Z PROC ; ExtendCounter::SetChargeState, COMDAT
; _this$ = ecx

; 171  : 	virtual bool SetChargeState( ioBaseChar *pOwner, ioChargeComboCounter* pCounter ){ return false; }

  00000	32 c0		 xor	 al, al
  00002	c2 08 00	 ret	 8
?SetChargeState@ExtendCounter@@UAE_NPAVioBaseChar@@PAVioChargeComboCounter@@@Z ENDP ; ExtendCounter::SetChargeState
; Function compile flags: /Ogsp
_TEXT	ENDS
;	COMDAT ?IsNoDropState@ExtendCounter@@UBE_NXZ
_TEXT	SEGMENT
?IsNoDropState@ExtendCounter@@UBE_NXZ PROC		; ExtendCounter::IsNoDropState, COMDAT
; _this$ = ecx

; 177  : 	virtual bool IsNoDropState() const {  return false; }

  00000	32 c0		 xor	 al, al
  00002	c3		 ret	 0
?IsNoDropState@ExtendCounter@@UBE_NXZ ENDP		; ExtendCounter::IsNoDropState
; Function compile flags: /Ogsp
_TEXT	ENDS
;	COMDAT ?ApplyCAT@ExtendCounter@@UAEXPAVioBaseChar@@PAVioChargeComboCounter@@AAVSP2Packet@@@Z
_TEXT	SEGMENT
_pOwner$ = 8						; size = 4
_pCounter$ = 12						; size = 4
_rkPacket$ = 16						; size = 4
?ApplyCAT@ExtendCounter@@UAEXPAVioBaseChar@@PAVioChargeComboCounter@@AAVSP2Packet@@@Z PROC ; ExtendCounter::ApplyCAT, COMDAT
; _this$ = ecx

; 180  : 	virtual void ApplyCAT( ioBaseChar *pOwner, ioChargeComboCounter* pCounter, SP2Packet &rkPacket ){}

  00000	c2 0c 00	 ret	 12			; 0000000cH
?ApplyCAT@ExtendCounter@@UAEXPAVioBaseChar@@PAVioChargeComboCounter@@AAVSP2Packet@@@Z ENDP ; ExtendCounter::ApplyCAT
; Function compile flags: /Ogsp
_TEXT	ENDS
;	COMDAT ?ApplySpecialCAT@ExtendCounter@@UAEXPAVioBaseChar@@PAVioChargeComboCounter@@AAVSP2Packet@@@Z
_TEXT	SEGMENT
_pOwner$ = 8						; size = 4
_pCounter$ = 12						; size = 4
_rkPacket$ = 16						; size = 4
?ApplySpecialCAT@ExtendCounter@@UAEXPAVioBaseChar@@PAVioChargeComboCounter@@AAVSP2Packet@@@Z PROC ; ExtendCounter::ApplySpecialCAT, COMDAT
; _this$ = ecx

; 181  : 	virtual void ApplySpecialCAT( ioBaseChar *pOwner,ioChargeComboCounter* pCounter, SP2Packet &rkPacket ){}

  00000	c2 0c 00	 ret	 12			; 0000000cH
?ApplySpecialCAT@ExtendCounter@@UAEXPAVioBaseChar@@PAVioChargeComboCounter@@AAVSP2Packet@@@Z ENDP ; ExtendCounter::ApplySpecialCAT
_TEXT	ENDS
PUBLIC	??0ExtendCounter@@QAE@ABV0@@Z			; ExtendCounter::ExtendCounter
; Function compile flags: /Ogsp
; File d:\lost saga for developer\youtube\tutorial\source\src\lsclient\iochargecombocounter.cpp
;	COMDAT ??0ExtendCounter@@QAE@ABV0@@Z
_TEXT	SEGMENT
_rhs$ = 8						; size = 4
??0ExtendCounter@@QAE@ABV0@@Z PROC			; ExtendCounter::ExtendCounter, COMDAT
; _this$ = ecx

; 836  : {

  00000	8b c1		 mov	 eax, ecx

; 837  : 	m_dwMotionEndTime = 0;

  00002	83 60 08 00	 and	 DWORD PTR [eax+8], 0
  00006	c7 00 00 00 00
	00		 mov	 DWORD PTR [eax], OFFSET ??_7ExtendCounter@@6B@

; 838  : }

  0000c	c2 04 00	 ret	 4
??0ExtendCounter@@QAE@ABV0@@Z ENDP			; ExtendCounter::ExtendCounter
_TEXT	ENDS
PUBLIC	??1ExtendCounter@@UAE@XZ			; ExtendCounter::~ExtendCounter
; Function compile flags: /Ogsp
;	COMDAT ??1ExtendCounter@@UAE@XZ
_TEXT	SEGMENT
??1ExtendCounter@@UAE@XZ PROC				; ExtendCounter::~ExtendCounter, COMDAT
; _this$ = ecx

; 841  : {

  00000	c7 01 00 00 00
	00		 mov	 DWORD PTR [ecx], OFFSET ??_7ExtendCounter@@6B@

; 842  : }

  00006	c3		 ret	 0
??1ExtendCounter@@UAE@XZ ENDP				; ExtendCounter::~ExtendCounter
_TEXT	ENDS
EXTRN	??2@YAPAXI@Z:PROC				; operator new
; Function compile flags: /Ogsp
;	COMDAT ?Clone@ExtendCounter@@UAEPAV1@XZ
_TEXT	SEGMENT
?Clone@ExtendCounter@@UAEPAV1@XZ PROC			; ExtendCounter::Clone, COMDAT
; _this$ = ecx

; 846  : 	return new ExtendCounter( *this );

  00000	6a 0c		 push	 12			; 0000000cH
  00002	e8 00 00 00 00	 call	 ??2@YAPAXI@Z		; operator new
  00007	59		 pop	 ecx
  00008	85 c0		 test	 eax, eax
  0000a	74 0b		 je	 SHORT $LN3@Clone
  0000c	c7 00 00 00 00
	00		 mov	 DWORD PTR [eax], OFFSET ??_7ExtendCounter@@6B@
  00012	83 60 08 00	 and	 DWORD PTR [eax+8], 0

; 847  : }

  00016	c3		 ret	 0
$LN3@Clone:

; 846  : 	return new ExtendCounter( *this );

  00017	33 c0		 xor	 eax, eax

; 847  : }

  00019	c3		 ret	 0
?Clone@ExtendCounter@@UAEPAV1@XZ ENDP			; ExtendCounter::Clone
_TEXT	ENDS
PUBLIC	?IsNoDropState@ioShadowChargeComboCounter@@MBE_NXZ ; ioShadowChargeComboCounter::IsNoDropState
; Function compile flags: /Ogsp
;	COMDAT ?IsNoDropState@ioShadowChargeComboCounter@@MBE_NXZ
_TEXT	SEGMENT
?IsNoDropState@ioShadowChargeComboCounter@@MBE_NXZ PROC	; ioShadowChargeComboCounter::IsNoDropState, COMDAT
; _this$ = ecx

; 1116 : 	switch ( m_ShadowSpecialState )

  00000	8b 41 7c	 mov	 eax, DWORD PTR [ecx+124]
  00003	33 c9		 xor	 ecx, ecx
  00005	48		 dec	 eax
  00006	41		 inc	 ecx
  00007	3b c8		 cmp	 ecx, eax
  00009	1a c0		 sbb	 al, al
  0000b	fe c0		 inc	 al

; 1117 : 	{
; 1118 : 	case SSS_Move:
; 1119 : 	case SSS_Combo:
; 1120 : 		return true;
; 1121 : 	}
; 1122 : 
; 1123 : 	return false;
; 1124 : }

  0000d	c3		 ret	 0
?IsNoDropState@ioShadowChargeComboCounter@@MBE_NXZ ENDP	; ioShadowChargeComboCounter::IsNoDropState
_TEXT	ENDS
PUBLIC	?ApplySpecialCAT@ioLeeSunSinExtendCounter@@MAEXPAVioBaseChar@@PAVioChargeComboCounter@@AAVSP2Packet@@@Z ; ioLeeSunSinExtendCounter::ApplySpecialCAT
; Function compile flags: /Ogsp
;	COMDAT ?ApplySpecialCAT@ioLeeSunSinExtendCounter@@MAEXPAVioBaseChar@@PAVioChargeComboCounter@@AAVSP2Packet@@@Z
_TEXT	SEGMENT
_pOwner$ = 8						; size = 4
_pCounter$ = 12						; size = 4
_rkPacket$ = 16						; size = 4
?ApplySpecialCAT@ioLeeSunSinExtendCounter@@MAEXPAVioBaseChar@@PAVioChargeComboCounter@@AAVSP2Packet@@@Z PROC ; ioLeeSunSinExtendCounter::ApplySpecialCAT, COMDAT
; _this$ = ecx

; 1209 : }

  00000	c2 0c 00	 ret	 12			; 0000000cH
?ApplySpecialCAT@ioLeeSunSinExtendCounter@@MAEXPAVioBaseChar@@PAVioChargeComboCounter@@AAVSP2Packet@@@Z ENDP ; ioLeeSunSinExtendCounter::ApplySpecialCAT
_TEXT	ENDS
PUBLIC	?ApplySpecialCAT@ioRedHoodExtendCounter@@MAEXPAVioBaseChar@@PAVioChargeComboCounter@@AAVSP2Packet@@@Z ; ioRedHoodExtendCounter::ApplySpecialCAT
; Function compile flags: /Ogsp
;	COMDAT ?ApplySpecialCAT@ioRedHoodExtendCounter@@MAEXPAVioBaseChar@@PAVioChargeComboCounter@@AAVSP2Packet@@@Z
_TEXT	SEGMENT
_pOwner$ = 8						; size = 4
_pCounter$ = 12						; size = 4
_rkPacket$ = 16						; size = 4
?ApplySpecialCAT@ioRedHoodExtendCounter@@MAEXPAVioBaseChar@@PAVioChargeComboCounter@@AAVSP2Packet@@@Z PROC ; ioRedHoodExtendCounter::ApplySpecialCAT, COMDAT
; _this$ = ecx

; 1306 : }

  00000	c2 0c 00	 ret	 12			; 0000000cH
?ApplySpecialCAT@ioRedHoodExtendCounter@@MAEXPAVioBaseChar@@PAVioChargeComboCounter@@AAVSP2Packet@@@Z ENDP ; ioRedHoodExtendCounter::ApplySpecialCAT
_TEXT	ENDS
PUBLIC	?size@?$vector@UAttackAttribute@@V?$allocator@UAttackAttribute@@@std@@@std@@QBEIXZ ; std::vector<AttackAttribute,std::allocator<AttackAttribute> >::size
; Function compile flags: /Ogsp
; File c:\program files (x86)\microsoft visual studio 10.0\vc\include\vector
;	COMDAT ?size@?$vector@UAttackAttribute@@V?$allocator@UAttackAttribute@@@std@@@std@@QBEIXZ
_TEXT	SEGMENT
?size@?$vector@UAttackAttribute@@V?$allocator@UAttackAttribute@@@std@@@std@@QBEIXZ PROC ; std::vector<AttackAttribute,std::allocator<AttackAttribute> >::size, COMDAT
; _this$ = ecx

; 879  : 		return (this->_Mylast - this->_Myfirst);

  00000	8b 41 04	 mov	 eax, DWORD PTR [ecx+4]
  00003	2b 01		 sub	 eax, DWORD PTR [ecx]
  00005	6a 50		 push	 80			; 00000050H
  00007	99		 cdq
  00008	59		 pop	 ecx
  00009	f7 f9		 idiv	 ecx

; 880  : 		}

  0000b	c3		 ret	 0
?size@?$vector@UAttackAttribute@@V?$allocator@UAttackAttribute@@@std@@@std@@QBEIXZ ENDP ; std::vector<AttackAttribute,std::allocator<AttackAttribute> >::size
_TEXT	ENDS
PUBLIC	?empty@?$vector@UAttackAttribute@@V?$allocator@UAttackAttribute@@@std@@@std@@QBE_NXZ ; std::vector<AttackAttribute,std::allocator<AttackAttribute> >::empty
; Function compile flags: /Ogsp
;	COMDAT ?empty@?$vector@UAttackAttribute@@V?$allocator@UAttackAttribute@@@std@@@std@@QBE_NXZ
_TEXT	SEGMENT
?empty@?$vector@UAttackAttribute@@V?$allocator@UAttackAttribute@@@std@@@std@@QBE_NXZ PROC ; std::vector<AttackAttribute,std::allocator<AttackAttribute> >::empty, COMDAT
; _this$ = ecx

; 889  : 		return (this->_Myfirst == this->_Mylast);

  00000	8b 01		 mov	 eax, DWORD PTR [ecx]
  00002	2b 41 04	 sub	 eax, DWORD PTR [ecx+4]
  00005	f7 d8		 neg	 eax
  00007	1b c0		 sbb	 eax, eax
  00009	40		 inc	 eax

; 890  : 		}

  0000a	c3		 ret	 0
?empty@?$vector@UAttackAttribute@@V?$allocator@UAttackAttribute@@@std@@@std@@QBE_NXZ ENDP ; std::vector<AttackAttribute,std::allocator<AttackAttribute> >::empty
_TEXT	ENDS
PUBLIC	??A?$vector@UAttackAttribute@@V?$allocator@UAttackAttribute@@@std@@@std@@QAEAAUAttackAttribute@@I@Z ; std::vector<AttackAttribute,std::allocator<AttackAttribute> >::operator[]
; Function compile flags: /Ogsp
;	COMDAT ??A?$vector@UAttackAttribute@@V?$allocator@UAttackAttribute@@@std@@@std@@QAEAAUAttackAttribute@@I@Z
_TEXT	SEGMENT
__Pos$ = 8						; size = 4
??A?$vector@UAttackAttribute@@V?$allocator@UAttackAttribute@@@std@@@std@@QAEAAUAttackAttribute@@I@Z PROC ; std::vector<AttackAttribute,std::allocator<AttackAttribute> >::operator[], COMDAT
; _this$ = ecx

; 928  : 		{	// subscript mutable sequence

  00000	55		 push	 ebp
  00001	8b ec		 mov	 ebp, esp

; 929  :  #if _ITERATOR_DEBUG_LEVEL == 2
; 930  : 		if (size() <= _Pos)
; 931  : 			{	// report error
; 932  : 			_DEBUG_ERROR("vector subscript out of range");
; 933  : 			_SCL_SECURE_OUT_OF_RANGE;
; 934  : 			}
; 935  : 
; 936  :  #elif _ITERATOR_DEBUG_LEVEL == 1
; 937  : 		_SCL_SECURE_VALIDATE_RANGE(_Pos < size());
; 938  :  #endif /* _ITERATOR_DEBUG_LEVEL */
; 939  : 
; 940  : 		return (*(this->_Myfirst + _Pos));

  00003	8b 45 08	 mov	 eax, DWORD PTR __Pos$[ebp]
  00006	6b c0 50	 imul	 eax, 80			; 00000050H
  00009	03 01		 add	 eax, DWORD PTR [ecx]

; 941  : 		}

  0000b	5d		 pop	 ebp
  0000c	c2 04 00	 ret	 4
??A?$vector@UAttackAttribute@@V?$allocator@UAttackAttribute@@@std@@@std@@QAEAAUAttackAttribute@@I@Z ENDP ; std::vector<AttackAttribute,std::allocator<AttackAttribute> >::operator[]
_TEXT	ENDS
PUBLIC	?size@?$vector@UCounterBranchAniInfo@ioChargeComboCounter@@V?$allocator@UCounterBranchAniInfo@ioChargeComboCounter@@@std@@@std@@QBEIXZ ; std::vector<ioChargeComboCounter::CounterBranchAniInfo,std::allocator<ioChargeComboCounter::CounterBranchAniInfo> >::size
; Function compile flags: /Ogsp
;	COMDAT ?size@?$vector@UCounterBranchAniInfo@ioChargeComboCounter@@V?$allocator@UCounterBranchAniInfo@ioChargeComboCounter@@@std@@@std@@QBEIXZ
_TEXT	SEGMENT
?size@?$vector@UCounterBranchAniInfo@ioChargeComboCounter@@V?$allocator@UCounterBranchAniInfo@ioChargeComboCounter@@@std@@@std@@QBEIXZ PROC ; std::vector<ioChargeComboCounter::CounterBranchAniInfo,std::allocator<ioChargeComboCounter::CounterBranchAniInfo> >::size, COMDAT
; _this$ = ecx

; 879  : 		return (this->_Mylast - this->_Myfirst);

  00000	8b 41 04	 mov	 eax, DWORD PTR [ecx+4]
  00003	2b 01		 sub	 eax, DWORD PTR [ecx]
  00005	6a 14		 push	 20			; 00000014H
  00007	99		 cdq
  00008	59		 pop	 ecx
  00009	f7 f9		 idiv	 ecx

; 880  : 		}

  0000b	c3		 ret	 0
?size@?$vector@UCounterBranchAniInfo@ioChargeComboCounter@@V?$allocator@UCounterBranchAniInfo@ioChargeComboCounter@@@std@@@std@@QBEIXZ ENDP ; std::vector<ioChargeComboCounter::CounterBranchAniInfo,std::allocator<ioChargeComboCounter::CounterBranchAniInfo> >::size
_TEXT	ENDS
PUBLIC	??A?$vector@UCounterBranchAniInfo@ioChargeComboCounter@@V?$allocator@UCounterBranchAniInfo@ioChargeComboCounter@@@std@@@std@@QAEAAUCounterBranchAniInfo@ioChargeComboCounter@@I@Z ; std::vector<ioChargeComboCounter::CounterBranchAniInfo,std::allocator<ioChargeComboCounter::CounterBranchAniInfo> >::operator[]
; Function compile flags: /Ogsp
;	COMDAT ??A?$vector@UCounterBranchAniInfo@ioChargeComboCounter@@V?$allocator@UCounterBranchAniInfo@ioChargeComboCounter@@@std@@@std@@QAEAAUCounterBranchAniInfo@ioChargeComboCounter@@I@Z
_TEXT	SEGMENT
__Pos$ = 8						; size = 4
??A?$vector@UCounterBranchAniInfo@ioChargeComboCounter@@V?$allocator@UCounterBranchAniInfo@ioChargeComboCounter@@@std@@@std@@QAEAAUCounterBranchAniInfo@ioChargeComboCounter@@I@Z PROC ; std::vector<ioChargeComboCounter::CounterBranchAniInfo,std::allocator<ioChargeComboCounter::CounterBranchAniInfo> >::operator[], COMDAT
; _this$ = ecx

; 928  : 		{	// subscript mutable sequence

  00000	55		 push	 ebp
  00001	8b ec		 mov	 ebp, esp

; 929  :  #if _ITERATOR_DEBUG_LEVEL == 2
; 930  : 		if (size() <= _Pos)
; 931  : 			{	// report error
; 932  : 			_DEBUG_ERROR("vector subscript out of range");
; 933  : 			_SCL_SECURE_OUT_OF_RANGE;
; 934  : 			}
; 935  : 
; 936  :  #elif _ITERATOR_DEBUG_LEVEL == 1
; 937  : 		_SCL_SECURE_VALIDATE_RANGE(_Pos < size());
; 938  :  #endif /* _ITERATOR_DEBUG_LEVEL */
; 939  : 
; 940  : 		return (*(this->_Myfirst + _Pos));

  00003	8b 45 08	 mov	 eax, DWORD PTR __Pos$[ebp]
  00006	6b c0 14	 imul	 eax, 20			; 00000014H
  00009	03 01		 add	 eax, DWORD PTR [ecx]

; 941  : 		}

  0000b	5d		 pop	 ebp
  0000c	c2 04 00	 ret	 4
??A?$vector@UCounterBranchAniInfo@ioChargeComboCounter@@V?$allocator@UCounterBranchAniInfo@ioChargeComboCounter@@@std@@@std@@QAEAAUCounterBranchAniInfo@ioChargeComboCounter@@I@Z ENDP ; std::vector<ioChargeComboCounter::CounterBranchAniInfo,std::allocator<ioChargeComboCounter::CounterBranchAniInfo> >::operator[]
_TEXT	ENDS
PUBLIC	?_Inside@?$vector@UAttackAttribute@@V?$allocator@UAttackAttribute@@@std@@@std@@IBE_NPBUAttackAttribute@@@Z ; std::vector<AttackAttribute,std::allocator<AttackAttribute> >::_Inside
; Function compile flags: /Ogsp
;	COMDAT ?_Inside@?$vector@UAttackAttribute@@V?$allocator@UAttackAttribute@@@std@@@std@@IBE_NPBUAttackAttribute@@@Z
_TEXT	SEGMENT
__Ptr$ = 8						; size = 4
?_Inside@?$vector@UAttackAttribute@@V?$allocator@UAttackAttribute@@@std@@@std@@IBE_NPBUAttackAttribute@@@Z PROC ; std::vector<AttackAttribute,std::allocator<AttackAttribute> >::_Inside, COMDAT
; _this$ = ecx

; 1285 : 		{	// test if _Ptr points inside vector

  00000	55		 push	 ebp
  00001	8b ec		 mov	 ebp, esp

; 1286 : 		return (_Ptr < this->_Mylast && this->_Myfirst <= _Ptr);

  00003	8b 45 08	 mov	 eax, DWORD PTR __Ptr$[ebp]
  00006	3b 41 04	 cmp	 eax, DWORD PTR [ecx+4]
  00009	73 09		 jae	 SHORT $LN3@Inside
  0000b	39 01		 cmp	 DWORD PTR [ecx], eax
  0000d	77 05		 ja	 SHORT $LN3@Inside
  0000f	33 c0		 xor	 eax, eax
  00011	40		 inc	 eax
  00012	eb 02		 jmp	 SHORT $LN4@Inside
$LN3@Inside:
  00014	33 c0		 xor	 eax, eax
$LN4@Inside:

; 1287 : 		}

  00016	5d		 pop	 ebp
  00017	c2 04 00	 ret	 4
?_Inside@?$vector@UAttackAttribute@@V?$allocator@UAttackAttribute@@@std@@@std@@IBE_NPBUAttackAttribute@@@Z ENDP ; std::vector<AttackAttribute,std::allocator<AttackAttribute> >::_Inside
_TEXT	ENDS
PUBLIC	?_Orphan_range@?$vector@UAttackAttribute@@V?$allocator@UAttackAttribute@@@std@@@std@@IBEXPAUAttackAttribute@@0@Z ; std::vector<AttackAttribute,std::allocator<AttackAttribute> >::_Orphan_range
; Function compile flags: /Ogsp
;	COMDAT ?_Orphan_range@?$vector@UAttackAttribute@@V?$allocator@UAttackAttribute@@@std@@@std@@IBEXPAUAttackAttribute@@0@Z
_TEXT	SEGMENT
___formal$ = 8						; size = 4
___formal$ = 12						; size = 4
?_Orphan_range@?$vector@UAttackAttribute@@V?$allocator@UAttackAttribute@@@std@@@std@@IBEXPAUAttackAttribute@@0@Z PROC ; std::vector<AttackAttribute,std::allocator<AttackAttribute> >::_Orphan_range, COMDAT
; _this$ = ecx

; 1454 : 		}

  00000	c2 08 00	 ret	 8
?_Orphan_range@?$vector@UAttackAttribute@@V?$allocator@UAttackAttribute@@@std@@@std@@IBEXPAUAttackAttribute@@0@Z ENDP ; std::vector<AttackAttribute,std::allocator<AttackAttribute> >::_Orphan_range
_TEXT	ENDS
PUBLIC	?_Inside@?$vector@UCounterBranchAniInfo@ioChargeComboCounter@@V?$allocator@UCounterBranchAniInfo@ioChargeComboCounter@@@std@@@std@@IBE_NPBUCounterBranchAniInfo@ioChargeComboCounter@@@Z ; std::vector<ioChargeComboCounter::CounterBranchAniInfo,std::allocator<ioChargeComboCounter::CounterBranchAniInfo> >::_Inside
; Function compile flags: /Ogsp
;	COMDAT ?_Inside@?$vector@UCounterBranchAniInfo@ioChargeComboCounter@@V?$allocator@UCounterBranchAniInfo@ioChargeComboCounter@@@std@@@std@@IBE_NPBUCounterBranchAniInfo@ioChargeComboCounter@@@Z
_TEXT	SEGMENT
__Ptr$ = 8						; size = 4
?_Inside@?$vector@UCounterBranchAniInfo@ioChargeComboCounter@@V?$allocator@UCounterBranchAniInfo@ioChargeComboCounter@@@std@@@std@@IBE_NPBUCounterBranchAniInfo@ioChargeComboCounter@@@Z PROC ; std::vector<ioChargeComboCounter::CounterBranchAniInfo,std::allocator<ioChargeComboCounter::CounterBranchAniInfo> >::_Inside, COMDAT
; _this$ = ecx

; 1285 : 		{	// test if _Ptr points inside vector

  00000	55		 push	 ebp
  00001	8b ec		 mov	 ebp, esp

; 1286 : 		return (_Ptr < this->_Mylast && this->_Myfirst <= _Ptr);

  00003	8b 45 08	 mov	 eax, DWORD PTR __Ptr$[ebp]
  00006	3b 41 04	 cmp	 eax, DWORD PTR [ecx+4]
  00009	73 09		 jae	 SHORT $LN3@Inside@2
  0000b	39 01		 cmp	 DWORD PTR [ecx], eax
  0000d	77 05		 ja	 SHORT $LN3@Inside@2
  0000f	33 c0		 xor	 eax, eax
  00011	40		 inc	 eax
  00012	eb 02		 jmp	 SHORT $LN4@Inside@2
$LN3@Inside@2:
  00014	33 c0		 xor	 eax, eax
$LN4@Inside@2:

; 1287 : 		}

  00016	5d		 pop	 ebp
  00017	c2 04 00	 ret	 4
?_Inside@?$vector@UCounterBranchAniInfo@ioChargeComboCounter@@V?$allocator@UCounterBranchAniInfo@ioChargeComboCounter@@@std@@@std@@IBE_NPBUCounterBranchAniInfo@ioChargeComboCounter@@@Z ENDP ; std::vector<ioChargeComboCounter::CounterBranchAniInfo,std::allocator<ioChargeComboCounter::CounterBranchAniInfo> >::_Inside
_TEXT	ENDS
PUBLIC	?_Orphan_range@?$vector@UCounterBranchAniInfo@ioChargeComboCounter@@V?$allocator@UCounterBranchAniInfo@ioChargeComboCounter@@@std@@@std@@IBEXPAUCounterBranchAniInfo@ioChargeComboCounter@@0@Z ; std::vector<ioChargeComboCounter::CounterBranchAniInfo,std::allocator<ioChargeComboCounter::CounterBranchAniInfo> >::_Orphan_range
; Function compile flags: /Ogsp
;	COMDAT ?_Orphan_range@?$vector@UCounterBranchAniInfo@ioChargeComboCounter@@V?$allocator@UCounterBranchAniInfo@ioChargeComboCounter@@@std@@@std@@IBEXPAUCounterBranchAniInfo@ioChargeComboCounter@@0@Z
_TEXT	SEGMENT
___formal$ = 8						; size = 4
___formal$ = 12						; size = 4
?_Orphan_range@?$vector@UCounterBranchAniInfo@ioChargeComboCounter@@V?$allocator@UCounterBranchAniInfo@ioChargeComboCounter@@@std@@@std@@IBEXPAUCounterBranchAniInfo@ioChargeComboCounter@@0@Z PROC ; std::vector<ioChargeComboCounter::CounterBranchAniInfo,std::allocator<ioChargeComboCounter::CounterBranchAniInfo> >::_Orphan_range, COMDAT
; _this$ = ecx

; 1454 : 		}

  00000	c2 08 00	 ret	 8
?_Orphan_range@?$vector@UCounterBranchAniInfo@ioChargeComboCounter@@V?$allocator@UCounterBranchAniInfo@ioChargeComboCounter@@@std@@@std@@IBEXPAUCounterBranchAniInfo@ioChargeComboCounter@@0@Z ENDP ; std::vector<ioChargeComboCounter::CounterBranchAniInfo,std::allocator<ioChargeComboCounter::CounterBranchAniInfo> >::_Orphan_range
_TEXT	ENDS
PUBLIC	??1?$_Vector_val@UCounterBranchAniInfo@ioChargeComboCounter@@V?$allocator@UCounterBranchAniInfo@ioChargeComboCounter@@@std@@@std@@QAE@XZ ; std::_Vector_val<ioChargeComboCounter::CounterBranchAniInfo,std::allocator<ioChargeComboCounter::CounterBranchAniInfo> >::~_Vector_val<ioChargeComboCounter::CounterBranchAniInfo,std::allocator<ioChargeComboCounter::CounterBranchAniInfo> >
; Function compile flags: /Ogsp
;	COMDAT ??1?$_Vector_val@UCounterBranchAniInfo@ioChargeComboCounter@@V?$allocator@UCounterBranchAniInfo@ioChargeComboCounter@@@std@@@std@@QAE@XZ
_TEXT	SEGMENT
??1?$_Vector_val@UCounterBranchAniInfo@ioChargeComboCounter@@V?$allocator@UCounterBranchAniInfo@ioChargeComboCounter@@@std@@@std@@QAE@XZ PROC ; std::_Vector_val<ioChargeComboCounter::CounterBranchAniInfo,std::allocator<ioChargeComboCounter::CounterBranchAniInfo> >::~_Vector_val<ioChargeComboCounter::CounterBranchAniInfo,std::allocator<ioChargeComboCounter::CounterBranchAniInfo> >, COMDAT
; _this$ = ecx

; 434  : 		}

  00000	c3		 ret	 0
??1?$_Vector_val@UCounterBranchAniInfo@ioChargeComboCounter@@V?$allocator@UCounterBranchAniInfo@ioChargeComboCounter@@@std@@@std@@QAE@XZ ENDP ; std::_Vector_val<ioChargeComboCounter::CounterBranchAniInfo,std::allocator<ioChargeComboCounter::CounterBranchAniInfo> >::~_Vector_val<ioChargeComboCounter::CounterBranchAniInfo,std::allocator<ioChargeComboCounter::CounterBranchAniInfo> >
_TEXT	ENDS
PUBLIC	??0?$allocator@UCounterBranchAniInfo@ioChargeComboCounter@@@std@@QAE@XZ ; std::allocator<ioChargeComboCounter::CounterBranchAniInfo>::allocator<ioChargeComboCounter::CounterBranchAniInfo>
; Function compile flags: /Ogsp
; File c:\program files (x86)\microsoft visual studio 10.0\vc\include\xmemory
;	COMDAT ??0?$allocator@UCounterBranchAniInfo@ioChargeComboCounter@@@std@@QAE@XZ
_TEXT	SEGMENT
??0?$allocator@UCounterBranchAniInfo@ioChargeComboCounter@@@std@@QAE@XZ PROC ; std::allocator<ioChargeComboCounter::CounterBranchAniInfo>::allocator<ioChargeComboCounter::CounterBranchAniInfo>, COMDAT
; _this$ = ecx

; 161  : 	_ALLOCATOR() _THROW0()

  00000	8b c1		 mov	 eax, ecx

; 162  : 		{	// construct default allocator (do nothing)
; 163  : 		}

  00002	c3		 ret	 0
??0?$allocator@UCounterBranchAniInfo@ioChargeComboCounter@@@std@@QAE@XZ ENDP ; std::allocator<ioChargeComboCounter::CounterBranchAniInfo>::allocator<ioChargeComboCounter::CounterBranchAniInfo>
_TEXT	ENDS
PUBLIC	??0?$allocator@UCounterBranchAniInfo@ioChargeComboCounter@@@std@@QAE@ABV01@@Z ; std::allocator<ioChargeComboCounter::CounterBranchAniInfo>::allocator<ioChargeComboCounter::CounterBranchAniInfo>
; Function compile flags: /Ogsp
;	COMDAT ??0?$allocator@UCounterBranchAniInfo@ioChargeComboCounter@@@std@@QAE@ABV01@@Z
_TEXT	SEGMENT
___formal$ = 8						; size = 4
??0?$allocator@UCounterBranchAniInfo@ioChargeComboCounter@@@std@@QAE@ABV01@@Z PROC ; std::allocator<ioChargeComboCounter::CounterBranchAniInfo>::allocator<ioChargeComboCounter::CounterBranchAniInfo>, COMDAT
; _this$ = ecx

; 165  : 	_ALLOCATOR(const _ALLOCATOR<_Ty>&) _THROW0()

  00000	8b c1		 mov	 eax, ecx

; 166  : 		{	// construct by copying (do nothing)
; 167  : 		}

  00002	c2 04 00	 ret	 4
??0?$allocator@UCounterBranchAniInfo@ioChargeComboCounter@@@std@@QAE@ABV01@@Z ENDP ; std::allocator<ioChargeComboCounter::CounterBranchAniInfo>::allocator<ioChargeComboCounter::CounterBranchAniInfo>
_TEXT	ENDS
PUBLIC	?capacity@?$vector@UAttackAttribute@@V?$allocator@UAttackAttribute@@@std@@@std@@QBEIXZ ; std::vector<AttackAttribute,std::allocator<AttackAttribute> >::capacity
; Function compile flags: /Ogsp
; File c:\program files (x86)\microsoft visual studio 10.0\vc\include\vector
;	COMDAT ?capacity@?$vector@UAttackAttribute@@V?$allocator@UAttackAttribute@@@std@@@std@@QBEIXZ
_TEXT	SEGMENT
?capacity@?$vector@UAttackAttribute@@V?$allocator@UAttackAttribute@@@std@@@std@@QBEIXZ PROC ; std::vector<AttackAttribute,std::allocator<AttackAttribute> >::capacity, COMDAT
; _this$ = ecx

; 777  : 		return (this->_Myend - this->_Myfirst);

  00000	8b 41 08	 mov	 eax, DWORD PTR [ecx+8]
  00003	2b 01		 sub	 eax, DWORD PTR [ecx]
  00005	6a 50		 push	 80			; 00000050H
  00007	99		 cdq
  00008	59		 pop	 ecx
  00009	f7 f9		 idiv	 ecx

; 778  : 		}

  0000b	c3		 ret	 0
?capacity@?$vector@UAttackAttribute@@V?$allocator@UAttackAttribute@@@std@@@std@@QBEIXZ ENDP ; std::vector<AttackAttribute,std::allocator<AttackAttribute> >::capacity
_TEXT	ENDS
PUBLIC	??_C@_0BD@OLBABOEK@vector?$DMT?$DO?5too?5long?$AA@ ; `string'
PUBLIC	?_Xlen@?$vector@UAttackAttribute@@V?$allocator@UAttackAttribute@@@std@@@std@@IBEXXZ ; std::vector<AttackAttribute,std::allocator<AttackAttribute> >::_Xlen
EXTRN	__imp_?_Xlength_error@std@@YAXPBD@Z:PROC
;	COMDAT ??_C@_0BD@OLBABOEK@vector?$DMT?$DO?5too?5long?$AA@
CONST	SEGMENT
??_C@_0BD@OLBABOEK@vector?$DMT?$DO?5too?5long?$AA@ DB 'vector<T> too long'
	DB	00H						; `string'
; Function compile flags: /Ogsp
CONST	ENDS
;	COMDAT ?_Xlen@?$vector@UAttackAttribute@@V?$allocator@UAttackAttribute@@@std@@@std@@IBEXXZ
_TEXT	SEGMENT
?_Xlen@?$vector@UAttackAttribute@@V?$allocator@UAttackAttribute@@@std@@@std@@IBEXXZ PROC ; std::vector<AttackAttribute,std::allocator<AttackAttribute> >::_Xlen, COMDAT
; _this$ = ecx

; 1427 : 		_Xlength_error("vector<T> too long");

  00000	68 00 00 00 00	 push	 OFFSET ??_C@_0BD@OLBABOEK@vector?$DMT?$DO?5too?5long?$AA@
  00005	ff 15 00 00 00
	00		 call	 DWORD PTR __imp_?_Xlength_error@std@@YAXPBD@Z
$LN4@Xlen:
$LN3@Xlen:
  0000b	cc		 int	 3
?_Xlen@?$vector@UAttackAttribute@@V?$allocator@UAttackAttribute@@@std@@@std@@IBEXXZ ENDP ; std::vector<AttackAttribute,std::allocator<AttackAttribute> >::_Xlen
_TEXT	ENDS
PUBLIC	?capacity@?$vector@UCounterBranchAniInfo@ioChargeComboCounter@@V?$allocator@UCounterBranchAniInfo@ioChargeComboCounter@@@std@@@std@@QBEIXZ ; std::vector<ioChargeComboCounter::CounterBranchAniInfo,std::allocator<ioChargeComboCounter::CounterBranchAniInfo> >::capacity
; Function compile flags: /Ogsp
;	COMDAT ?capacity@?$vector@UCounterBranchAniInfo@ioChargeComboCounter@@V?$allocator@UCounterBranchAniInfo@ioChargeComboCounter@@@std@@@std@@QBEIXZ
_TEXT	SEGMENT
?capacity@?$vector@UCounterBranchAniInfo@ioChargeComboCounter@@V?$allocator@UCounterBranchAniInfo@ioChargeComboCounter@@@std@@@std@@QBEIXZ PROC ; std::vector<ioChargeComboCounter::CounterBranchAniInfo,std::allocator<ioChargeComboCounter::CounterBranchAniInfo> >::capacity, COMDAT
; _this$ = ecx

; 777  : 		return (this->_Myend - this->_Myfirst);

  00000	8b 41 08	 mov	 eax, DWORD PTR [ecx+8]
  00003	2b 01		 sub	 eax, DWORD PTR [ecx]
  00005	6a 14		 push	 20			; 00000014H
  00007	99		 cdq
  00008	59		 pop	 ecx
  00009	f7 f9		 idiv	 ecx

; 778  : 		}

  0000b	c3		 ret	 0
?capacity@?$vector@UCounterBranchAniInfo@ioChargeComboCounter@@V?$allocator@UCounterBranchAniInfo@ioChargeComboCounter@@@std@@@std@@QBEIXZ ENDP ; std::vector<ioChargeComboCounter::CounterBranchAniInfo,std::allocator<ioChargeComboCounter::CounterBranchAniInfo> >::capacity
_TEXT	ENDS
PUBLIC	?_Xlen@?$vector@UCounterBranchAniInfo@ioChargeComboCounter@@V?$allocator@UCounterBranchAniInfo@ioChargeComboCounter@@@std@@@std@@IBEXXZ ; std::vector<ioChargeComboCounter::CounterBranchAniInfo,std::allocator<ioChargeComboCounter::CounterBranchAniInfo> >::_Xlen
; Function compile flags: /Ogsp
;	COMDAT ?_Xlen@?$vector@UCounterBranchAniInfo@ioChargeComboCounter@@V?$allocator@UCounterBranchAniInfo@ioChargeComboCounter@@@std@@@std@@IBEXXZ
_TEXT	SEGMENT
?_Xlen@?$vector@UCounterBranchAniInfo@ioChargeComboCounter@@V?$allocator@UCounterBranchAniInfo@ioChargeComboCounter@@@std@@@std@@IBEXXZ PROC ; std::vector<ioChargeComboCounter::CounterBranchAniInfo,std::allocator<ioChargeComboCounter::CounterBranchAniInfo> >::_Xlen, COMDAT
; _this$ = ecx

; 1427 : 		_Xlength_error("vector<T> too long");

  00000	68 00 00 00 00	 push	 OFFSET ??_C@_0BD@OLBABOEK@vector?$DMT?$DO?5too?5long?$AA@
  00005	ff 15 00 00 00
	00		 call	 DWORD PTR __imp_?_Xlength_error@std@@YAXPBD@Z
$LN4@Xlen@2:
$LN3@Xlen@2:
  0000b	cc		 int	 3
?_Xlen@?$vector@UCounterBranchAniInfo@ioChargeComboCounter@@V?$allocator@UCounterBranchAniInfo@ioChargeComboCounter@@@std@@@std@@IBEXXZ ENDP ; std::vector<ioChargeComboCounter::CounterBranchAniInfo,std::allocator<ioChargeComboCounter::CounterBranchAniInfo> >::_Xlen
_TEXT	ENDS
PUBLIC	?deallocate@?$allocator@UCounterBranchAniInfo@ioChargeComboCounter@@@std@@QAEXPAUCounterBranchAniInfo@ioChargeComboCounter@@I@Z ; std::allocator<ioChargeComboCounter::CounterBranchAniInfo>::deallocate
; Function compile flags: /Ogsp
; File c:\program files (x86)\microsoft visual studio 10.0\vc\include\xmemory
;	COMDAT ?deallocate@?$allocator@UCounterBranchAniInfo@ioChargeComboCounter@@@std@@QAEXPAUCounterBranchAniInfo@ioChargeComboCounter@@I@Z
_TEXT	SEGMENT
__Ptr$ = 8						; size = 4
___formal$ = 12						; size = 4
?deallocate@?$allocator@UCounterBranchAniInfo@ioChargeComboCounter@@@std@@QAEXPAUCounterBranchAniInfo@ioChargeComboCounter@@I@Z PROC ; std::allocator<ioChargeComboCounter::CounterBranchAniInfo>::deallocate, COMDAT
; _this$ = ecx

; 181  : 		{	// deallocate object at _Ptr, ignore size

  00000	55		 push	 ebp
  00001	8b ec		 mov	 ebp, esp

; 182  : 		::operator delete(_Ptr);

  00003	ff 75 08	 push	 DWORD PTR __Ptr$[ebp]
  00006	e8 00 00 00 00	 call	 ??3@YAXPAX@Z		; operator delete
  0000b	59		 pop	 ecx

; 183  : 		}

  0000c	5d		 pop	 ebp
  0000d	c2 08 00	 ret	 8
?deallocate@?$allocator@UCounterBranchAniInfo@ioChargeComboCounter@@@std@@QAEXPAUCounterBranchAniInfo@ioChargeComboCounter@@I@Z ENDP ; std::allocator<ioChargeComboCounter::CounterBranchAniInfo>::deallocate
_TEXT	ENDS
PUBLIC	??0?$_Vector_const_iterator@V?$_Vector_val@UCounterBranchAniInfo@ioChargeComboCounter@@V?$allocator@UCounterBranchAniInfo@ioChargeComboCounter@@@std@@@std@@@std@@QAE@PAUCounterBranchAniInfo@ioChargeComboCounter@@PBU_Container_base0@1@@Z ; std::_Vector_const_iterator<std::_Vector_val<ioChargeComboCounter::CounterBranchAniInfo,std::allocator<ioChargeComboCounter::CounterBranchAniInfo> > >::_Vector_const_iterator<std::_Vector_val<ioChargeComboCounter::CounterBranchAniInfo,std::allocator<ioChargeComboCounter::CounterBranchAniInfo> > >
; Function compile flags: /Ogsp
; File c:\program files (x86)\microsoft visual studio 10.0\vc\include\vector
;	COMDAT ??0?$_Vector_const_iterator@V?$_Vector_val@UCounterBranchAniInfo@ioChargeComboCounter@@V?$allocator@UCounterBranchAniInfo@ioChargeComboCounter@@@std@@@std@@@std@@QAE@PAUCounterBranchAniInfo@ioChargeComboCounter@@PBU_Container_base0@1@@Z
_TEXT	SEGMENT
__Parg$ = 8						; size = 4
__Pvector$ = 12						; size = 4
??0?$_Vector_const_iterator@V?$_Vector_val@UCounterBranchAniInfo@ioChargeComboCounter@@V?$allocator@UCounterBranchAniInfo@ioChargeComboCounter@@@std@@@std@@@std@@QAE@PAUCounterBranchAniInfo@ioChargeComboCounter@@PBU_Container_base0@1@@Z PROC ; std::_Vector_const_iterator<std::_Vector_val<ioChargeComboCounter::CounterBranchAniInfo,std::allocator<ioChargeComboCounter::CounterBranchAniInfo> > >::_Vector_const_iterator<std::_Vector_val<ioChargeComboCounter::CounterBranchAniInfo,std::allocator<ioChargeComboCounter::CounterBranchAniInfo> > >, COMDAT
; _this$ = ecx

; 45   : 		{	// construct with pointer _Parg

  00000	55		 push	 ebp
  00001	8b ec		 mov	 ebp, esp
  00003	8b c1		 mov	 eax, ecx
  00005	8b 4d 08	 mov	 ecx, DWORD PTR __Parg$[ebp]
  00008	89 08		 mov	 DWORD PTR [eax], ecx

; 46   : 		this->_Adopt(_Pvector);
; 47   : 		}

  0000a	5d		 pop	 ebp
  0000b	c2 08 00	 ret	 8
??0?$_Vector_const_iterator@V?$_Vector_val@UCounterBranchAniInfo@ioChargeComboCounter@@V?$allocator@UCounterBranchAniInfo@ioChargeComboCounter@@@std@@@std@@@std@@QAE@PAUCounterBranchAniInfo@ioChargeComboCounter@@PBU_Container_base0@1@@Z ENDP ; std::_Vector_const_iterator<std::_Vector_val<ioChargeComboCounter::CounterBranchAniInfo,std::allocator<ioChargeComboCounter::CounterBranchAniInfo> > >::_Vector_const_iterator<std::_Vector_val<ioChargeComboCounter::CounterBranchAniInfo,std::allocator<ioChargeComboCounter::CounterBranchAniInfo> > >
_TEXT	ENDS
PUBLIC	?max_size@?$allocator@UAttackAttribute@@@std@@QBEIXZ ; std::allocator<AttackAttribute>::max_size
; Function compile flags: /Ogsp
; File c:\program files (x86)\microsoft visual studio 10.0\vc\include\xmemory
;	COMDAT ?max_size@?$allocator@UAttackAttribute@@@std@@QBEIXZ
_TEXT	SEGMENT
?max_size@?$allocator@UAttackAttribute@@@std@@QBEIXZ PROC ; std::allocator<AttackAttribute>::max_size, COMDAT
; _this$ = ecx

; 218  : 		_SIZT _Count = (_SIZT)(-1) / sizeof (_Ty);
; 219  : 		return (0 < _Count ? _Count : 1);

  00000	b8 33 33 33 03	 mov	 eax, 53687091		; 03333333H

; 220  : 		}

  00005	c3		 ret	 0
?max_size@?$allocator@UAttackAttribute@@@std@@QBEIXZ ENDP ; std::allocator<AttackAttribute>::max_size
_TEXT	ENDS
PUBLIC	?max_size@?$allocator@UCounterBranchAniInfo@ioChargeComboCounter@@@std@@QBEIXZ ; std::allocator<ioChargeComboCounter::CounterBranchAniInfo>::max_size
; Function compile flags: /Ogsp
;	COMDAT ?max_size@?$allocator@UCounterBranchAniInfo@ioChargeComboCounter@@@std@@QBEIXZ
_TEXT	SEGMENT
?max_size@?$allocator@UCounterBranchAniInfo@ioChargeComboCounter@@@std@@QBEIXZ PROC ; std::allocator<ioChargeComboCounter::CounterBranchAniInfo>::max_size, COMDAT
; _this$ = ecx

; 218  : 		_SIZT _Count = (_SIZT)(-1) / sizeof (_Ty);
; 219  : 		return (0 < _Count ? _Count : 1);

  00000	b8 cc cc cc 0c	 mov	 eax, 214748364		; 0cccccccH

; 220  : 		}

  00005	c3		 ret	 0
?max_size@?$allocator@UCounterBranchAniInfo@ioChargeComboCounter@@@std@@QBEIXZ ENDP ; std::allocator<ioChargeComboCounter::CounterBranchAniInfo>::max_size
_TEXT	ENDS
PUBLIC	??0D3DXVECTOR3@@QAE@XZ				; D3DXVECTOR3::D3DXVECTOR3
; Function compile flags: /Ogsp
; File c:\program files (x86)\microsoft directx sdk (june 2010)\include\d3dx9math.h
;	COMDAT ??0D3DXVECTOR3@@QAE@XZ
_TEXT	SEGMENT
??0D3DXVECTOR3@@QAE@XZ PROC				; D3DXVECTOR3::D3DXVECTOR3, COMDAT
; _this$ = ecx

; 165  :     D3DXVECTOR3() {};

  00000	8b c1		 mov	 eax, ecx
  00002	c3		 ret	 0
??0D3DXVECTOR3@@QAE@XZ ENDP				; D3DXVECTOR3::D3DXVECTOR3
_TEXT	ENDS
PUBLIC	??0D3DXQUATERNION@@QAE@XZ			; D3DXQUATERNION::D3DXQUATERNION
; Function compile flags: /Ogsp
;	COMDAT ??0D3DXQUATERNION@@QAE@XZ
_TEXT	SEGMENT
??0D3DXQUATERNION@@QAE@XZ PROC				; D3DXQUATERNION::D3DXQUATERNION, COMDAT
; _this$ = ecx

; 429  :     D3DXQUATERNION() {}

  00000	8b c1		 mov	 eax, ecx
  00002	c3		 ret	 0
??0D3DXQUATERNION@@QAE@XZ ENDP				; D3DXQUATERNION::D3DXQUATERNION
_TEXT	ENDS
PUBLIC	??0D3DXVECTOR3@@QAE@MMM@Z			; D3DXVECTOR3::D3DXVECTOR3
; Function compile flags: /Ogsp
; File c:\program files (x86)\microsoft directx sdk (june 2010)\include\d3dx9math.inl
;	COMDAT ??0D3DXVECTOR3@@QAE@MMM@Z
_TEXT	SEGMENT
_fx$ = 8						; size = 4
_fy$ = 12						; size = 4
_fz$ = 16						; size = 4
??0D3DXVECTOR3@@QAE@MMM@Z PROC				; D3DXVECTOR3::D3DXVECTOR3, COMDAT
; _this$ = ecx

; 303  : {

  00000	55		 push	 ebp
  00001	8b ec		 mov	 ebp, esp

; 304  :     x = fx;

  00003	f3 0f 10 45 08	 movss	 xmm0, DWORD PTR _fx$[ebp]
  00008	8b c1		 mov	 eax, ecx
  0000a	f3 0f 11 00	 movss	 DWORD PTR [eax], xmm0

; 305  :     y = fy;

  0000e	f3 0f 10 45 0c	 movss	 xmm0, DWORD PTR _fy$[ebp]
  00013	f3 0f 11 40 04	 movss	 DWORD PTR [eax+4], xmm0

; 306  :     z = fz;

  00018	f3 0f 10 45 10	 movss	 xmm0, DWORD PTR _fz$[ebp]
  0001d	f3 0f 11 40 08	 movss	 DWORD PTR [eax+8], xmm0

; 307  : }

  00022	5d		 pop	 ebp
  00023	c2 0c 00	 ret	 12			; 0000000cH
??0D3DXVECTOR3@@QAE@MMM@Z ENDP				; D3DXVECTOR3::D3DXVECTOR3
_TEXT	ENDS
PUBLIC	??YD3DXVECTOR3@@QAEAAU0@ABU0@@Z			; D3DXVECTOR3::operator+=
; Function compile flags: /Ogsp
;	COMDAT ??YD3DXVECTOR3@@QAEAAU0@ABU0@@Z
_TEXT	SEGMENT
_v$ = 8							; size = 4
??YD3DXVECTOR3@@QAEAAU0@ABU0@@Z PROC			; D3DXVECTOR3::operator+=, COMDAT
; _this$ = ecx

; 327  : {

  00000	55		 push	 ebp
  00001	8b ec		 mov	 ebp, esp
  00003	8b c1		 mov	 eax, ecx

; 328  :     x += v.x;

  00005	8b 4d 08	 mov	 ecx, DWORD PTR _v$[ebp]
  00008	f3 0f 10 01	 movss	 xmm0, DWORD PTR [ecx]
  0000c	f3 0f 10 08	 movss	 xmm1, DWORD PTR [eax]
  00010	0f 5a c0	 cvtps2pd xmm0, xmm0
  00013	0f 5a c9	 cvtps2pd xmm1, xmm1
  00016	f2 0f 58 c1	 addsd	 xmm0, xmm1

; 329  :     y += v.y;

  0001a	f3 0f 10 48 04	 movss	 xmm1, DWORD PTR [eax+4]
  0001f	66 0f 5a c0	 cvtpd2ps xmm0, xmm0
  00023	f3 0f 11 00	 movss	 DWORD PTR [eax], xmm0
  00027	f3 0f 10 41 04	 movss	 xmm0, DWORD PTR [ecx+4]
  0002c	0f 5a c0	 cvtps2pd xmm0, xmm0
  0002f	0f 5a c9	 cvtps2pd xmm1, xmm1
  00032	f2 0f 58 c1	 addsd	 xmm0, xmm1

; 330  :     z += v.z;

  00036	f3 0f 10 48 08	 movss	 xmm1, DWORD PTR [eax+8]
  0003b	66 0f 5a c0	 cvtpd2ps xmm0, xmm0
  0003f	f3 0f 11 40 04	 movss	 DWORD PTR [eax+4], xmm0
  00044	f3 0f 10 41 08	 movss	 xmm0, DWORD PTR [ecx+8]
  00049	0f 5a c0	 cvtps2pd xmm0, xmm0
  0004c	0f 5a c9	 cvtps2pd xmm1, xmm1
  0004f	f2 0f 58 c1	 addsd	 xmm0, xmm1
  00053	66 0f 5a c0	 cvtpd2ps xmm0, xmm0
  00057	f3 0f 11 40 08	 movss	 DWORD PTR [eax+8], xmm0

; 331  :     return *this;
; 332  : }

  0005c	5d		 pop	 ebp
  0005d	c2 04 00	 ret	 4
??YD3DXVECTOR3@@QAEAAU0@ABU0@@Z ENDP			; D3DXVECTOR3::operator+=
_TEXT	ENDS
PUBLIC	__mask@@NegFloat@
PUBLIC	??GD3DXVECTOR3@@QBE?AU0@XZ			; D3DXVECTOR3::operator-
;	COMDAT __mask@@NegFloat@
CONST	SEGMENT
__mask@@NegFloat@ DB 00H, 00H, 00H, 080H, 00H, 00H, 00H, 080H, 00H, 00H, 00H
	DB	080H, 00H, 00H, 00H, 080H
; Function compile flags: /Ogsp
CONST	ENDS
;	COMDAT ??GD3DXVECTOR3@@QBE?AU0@XZ
_TEXT	SEGMENT
___$ReturnUdt$ = 8					; size = 4
??GD3DXVECTOR3@@QBE?AU0@XZ PROC				; D3DXVECTOR3::operator-, COMDAT
; _this$ = ecx

; 372  : {

  00000	55		 push	 ebp
  00001	8b ec		 mov	 ebp, esp

; 373  :     return D3DXVECTOR3(-x, -y, -z);

  00003	f3 0f 10 05 00
	00 00 00	 movss	 xmm0, DWORD PTR __mask@@NegFloat@
  0000b	8b 45 08	 mov	 eax, DWORD PTR ___$ReturnUdt$[ebp]
  0000e	f3 0f 10 09	 movss	 xmm1, DWORD PTR [ecx]
  00012	0f 57 c8	 xorps	 xmm1, xmm0
  00015	f3 0f 11 08	 movss	 DWORD PTR [eax], xmm1
  00019	f3 0f 10 49 04	 movss	 xmm1, DWORD PTR [ecx+4]
  0001e	0f 57 c8	 xorps	 xmm1, xmm0
  00021	f3 0f 11 48 04	 movss	 DWORD PTR [eax+4], xmm1
  00026	f3 0f 10 49 08	 movss	 xmm1, DWORD PTR [ecx+8]
  0002b	0f 57 c8	 xorps	 xmm1, xmm0
  0002e	f3 0f 11 48 08	 movss	 DWORD PTR [eax+8], xmm1

; 374  : }

  00033	5d		 pop	 ebp
  00034	c2 04 00	 ret	 4
??GD3DXVECTOR3@@QBE?AU0@XZ ENDP				; D3DXVECTOR3::operator-
_TEXT	ENDS
PUBLIC	??$addressof@$$CBUAttackAttribute@@@std@@YAPBUAttackAttribute@@ABU1@@Z ; std::addressof<AttackAttribute const >
; Function compile flags: /Ogsp
; File c:\program files (x86)\microsoft visual studio 10.0\vc\include\xmemory
;	COMDAT ??$addressof@$$CBUAttackAttribute@@@std@@YAPBUAttackAttribute@@ABU1@@Z
_TEXT	SEGMENT
__Val$ = 8						; size = 4
??$addressof@$$CBUAttackAttribute@@@std@@YAPBUAttackAttribute@@ABU1@@Z PROC ; std::addressof<AttackAttribute const >, COMDAT

; 110  : 	{	// return address of _Val

  00000	55		 push	 ebp
  00001	8b ec		 mov	 ebp, esp

; 111  : 	return ((_Ty *) &(char&)_Val);

  00003	8b 45 08	 mov	 eax, DWORD PTR __Val$[ebp]

; 112  : 	}

  00006	5d		 pop	 ebp
  00007	c3		 ret	 0
??$addressof@$$CBUAttackAttribute@@@std@@YAPBUAttackAttribute@@ABU1@@Z ENDP ; std::addressof<AttackAttribute const >
_TEXT	ENDS
PUBLIC	??$addressof@$$CBUCounterBranchAniInfo@ioChargeComboCounter@@@std@@YAPBUCounterBranchAniInfo@ioChargeComboCounter@@ABU12@@Z ; std::addressof<ioChargeComboCounter::CounterBranchAniInfo const >
; Function compile flags: /Ogsp
;	COMDAT ??$addressof@$$CBUCounterBranchAniInfo@ioChargeComboCounter@@@std@@YAPBUCounterBranchAniInfo@ioChargeComboCounter@@ABU12@@Z
_TEXT	SEGMENT
__Val$ = 8						; size = 4
??$addressof@$$CBUCounterBranchAniInfo@ioChargeComboCounter@@@std@@YAPBUCounterBranchAniInfo@ioChargeComboCounter@@ABU12@@Z PROC ; std::addressof<ioChargeComboCounter::CounterBranchAniInfo const >, COMDAT

; 110  : 	{	// return address of _Val

  00000	55		 push	 ebp
  00001	8b ec		 mov	 ebp, esp

; 111  : 	return ((_Ty *) &(char&)_Val);

  00003	8b 45 08	 mov	 eax, DWORD PTR __Val$[ebp]

; 112  : 	}

  00006	5d		 pop	 ebp
  00007	c3		 ret	 0
??$addressof@$$CBUCounterBranchAniInfo@ioChargeComboCounter@@@std@@YAPBUCounterBranchAniInfo@ioChargeComboCounter@@ABU12@@Z ENDP ; std::addressof<ioChargeComboCounter::CounterBranchAniInfo const >
_TEXT	ENDS
PUBLIC	__TI2?AVbad_alloc@std@@
PUBLIC	??$_Allocate@UAttackAttribute@@@std@@YAPAUAttackAttribute@@IPAU1@@Z ; std::_Allocate<AttackAttribute>
PUBLIC	__CTA2?AVbad_alloc@std@@
PUBLIC	__CT??_R0?AVbad_alloc@std@@@8??0bad_alloc@std@@QAE@ABV01@@Z12
PUBLIC	??0bad_alloc@std@@QAE@ABV01@@Z			; std::bad_alloc::bad_alloc
PUBLIC	__CT??_R0?AVexception@std@@@8??0exception@std@@QAE@ABV01@@Z12
EXTRN	__CxxThrowException@8:PROC
EXTRN	??0exception@std@@QAE@ABV01@@Z:PROC		; std::exception::exception
;	COMDAT __CT??_R0?AVexception@std@@@8??0exception@std@@QAE@ABV01@@Z12
; File c:\program files (x86)\microsoft visual studio 10.0\vc\include\exception
xdata$x	SEGMENT
__CT??_R0?AVexception@std@@@8??0exception@std@@QAE@ABV01@@Z12 DD 00H
	DD	FLAT:??_R0?AVexception@std@@@8
	DD	00H
	DD	0ffffffffH
	ORG $+4
	DD	0cH
	DD	FLAT:??0exception@std@@QAE@ABV01@@Z
xdata$x	ENDS
;	COMDAT __CT??_R0?AVbad_alloc@std@@@8??0bad_alloc@std@@QAE@ABV01@@Z12
xdata$x	SEGMENT
__CT??_R0?AVbad_alloc@std@@@8??0bad_alloc@std@@QAE@ABV01@@Z12 DD 00H
	DD	FLAT:??_R0?AVbad_alloc@std@@@8
	DD	00H
	DD	0ffffffffH
	ORG $+4
	DD	0cH
	DD	FLAT:??0bad_alloc@std@@QAE@ABV01@@Z
xdata$x	ENDS
;	COMDAT __CTA2?AVbad_alloc@std@@
xdata$x	SEGMENT
__CTA2?AVbad_alloc@std@@ DD 02H
	DD	FLAT:__CT??_R0?AVbad_alloc@std@@@8??0bad_alloc@std@@QAE@ABV01@@Z12
	DD	FLAT:__CT??_R0?AVexception@std@@@8??0exception@std@@QAE@ABV01@@Z12
xdata$x	ENDS
;	COMDAT __TI2?AVbad_alloc@std@@
xdata$x	SEGMENT
__TI2?AVbad_alloc@std@@ DD 00H
	DD	FLAT:??1bad_alloc@std@@UAE@XZ
	DD	00H
	DD	FLAT:__CTA2?AVbad_alloc@std@@
; Function compile flags: /Ogsp
; File c:\program files (x86)\microsoft visual studio 10.0\vc\include\xmemory
xdata$x	ENDS
;	COMDAT ??$_Allocate@UAttackAttribute@@@std@@YAPAUAttackAttribute@@IPAU1@@Z
_TEXT	SEGMENT
$T537906 = -12						; size = 12
$T537911 = 8						; size = 4
__Count$ = 8						; size = 4
___formal$ = 12						; size = 4
??$_Allocate@UAttackAttribute@@@std@@YAPAUAttackAttribute@@IPAU1@@Z PROC ; std::_Allocate<AttackAttribute>, COMDAT

; 30   : 	{	// allocate storage for _Count elements of type _Ty

  00000	55		 push	 ebp
  00001	8b ec		 mov	 ebp, esp

; 31   : 	void *_Ptr = 0;
; 32   : 
; 33   : 	if (_Count <= 0)

  00003	8b 4d 08	 mov	 ecx, DWORD PTR __Count$[ebp]
  00006	83 ec 0c	 sub	 esp, 12			; 0000000cH
  00009	33 c0		 xor	 eax, eax
  0000b	85 c9		 test	 ecx, ecx

; 34   : 		_Count = 0;
; 35   : 	else if (((_SIZT)(-1) / sizeof (_Ty) < _Count)

  0000d	74 3c		 je	 SHORT $LN5@Allocate

; 36   : 		|| (_Ptr = ::operator new(_Count * sizeof (_Ty))) == 0)

  0000f	81 f9 33 33 33
	03		 cmp	 ecx, 53687091		; 03333333H
  00015	77 0e		 ja	 SHORT $LN1@Allocate
  00017	6b c9 50	 imul	 ecx, 80			; 00000050H
  0001a	51		 push	 ecx
  0001b	e8 00 00 00 00	 call	 ??2@YAPAXI@Z		; operator new
  00020	59		 pop	 ecx
  00021	85 c0		 test	 eax, eax

; 38   : 
; 39   : 	return ((_Ty _FARQ *)_Ptr);

  00023	75 26		 jne	 SHORT $LN5@Allocate
$LN1@Allocate:

; 37   : 		_THROW_NCEE(bad_alloc, 0);

  00025	83 65 08 00	 and	 DWORD PTR $T537911[ebp], 0
  00029	8d 45 08	 lea	 eax, DWORD PTR $T537911[ebp]
  0002c	50		 push	 eax
  0002d	8d 4d f4	 lea	 ecx, DWORD PTR $T537906[ebp]
  00030	ff 15 00 00 00
	00		 call	 DWORD PTR __imp_??0exception@std@@QAE@ABQBD@Z
  00036	68 00 00 00 00	 push	 OFFSET __TI2?AVbad_alloc@std@@
  0003b	8d 45 f4	 lea	 eax, DWORD PTR $T537906[ebp]
  0003e	50		 push	 eax
  0003f	c7 45 f4 00 00
	00 00		 mov	 DWORD PTR $T537906[ebp], OFFSET ??_7bad_alloc@std@@6B@
  00046	e8 00 00 00 00	 call	 __CxxThrowException@8
$LN10@Allocate:
$LN5@Allocate:

; 40   : 	}

  0004b	c9		 leave
  0004c	c3		 ret	 0
$LN9@Allocate:
??$_Allocate@UAttackAttribute@@@std@@YAPAUAttackAttribute@@IPAU1@@Z ENDP ; std::_Allocate<AttackAttribute>
_TEXT	ENDS
PUBLIC	??$_Allocate@UCounterBranchAniInfo@ioChargeComboCounter@@@std@@YAPAUCounterBranchAniInfo@ioChargeComboCounter@@IPAU12@@Z ; std::_Allocate<ioChargeComboCounter::CounterBranchAniInfo>
; Function compile flags: /Ogsp
;	COMDAT ??$_Allocate@UCounterBranchAniInfo@ioChargeComboCounter@@@std@@YAPAUCounterBranchAniInfo@ioChargeComboCounter@@IPAU12@@Z
_TEXT	SEGMENT
$T537916 = -12						; size = 12
$T537920 = 8						; size = 4
__Count$ = 8						; size = 4
___formal$ = 12						; size = 4
??$_Allocate@UCounterBranchAniInfo@ioChargeComboCounter@@@std@@YAPAUCounterBranchAniInfo@ioChargeComboCounter@@IPAU12@@Z PROC ; std::_Allocate<ioChargeComboCounter::CounterBranchAniInfo>, COMDAT

; 30   : 	{	// allocate storage for _Count elements of type _Ty

  00000	55		 push	 ebp
  00001	8b ec		 mov	 ebp, esp

; 31   : 	void *_Ptr = 0;
; 32   : 
; 33   : 	if (_Count <= 0)

  00003	8b 4d 08	 mov	 ecx, DWORD PTR __Count$[ebp]
  00006	83 ec 0c	 sub	 esp, 12			; 0000000cH
  00009	33 c0		 xor	 eax, eax
  0000b	85 c9		 test	 ecx, ecx

; 34   : 		_Count = 0;
; 35   : 	else if (((_SIZT)(-1) / sizeof (_Ty) < _Count)

  0000d	74 3c		 je	 SHORT $LN5@Allocate@2

; 36   : 		|| (_Ptr = ::operator new(_Count * sizeof (_Ty))) == 0)

  0000f	81 f9 cc cc cc
	0c		 cmp	 ecx, 214748364		; 0cccccccH
  00015	77 0e		 ja	 SHORT $LN1@Allocate@2
  00017	6b c9 14	 imul	 ecx, 20			; 00000014H
  0001a	51		 push	 ecx
  0001b	e8 00 00 00 00	 call	 ??2@YAPAXI@Z		; operator new
  00020	59		 pop	 ecx
  00021	85 c0		 test	 eax, eax

; 38   : 
; 39   : 	return ((_Ty _FARQ *)_Ptr);

  00023	75 26		 jne	 SHORT $LN5@Allocate@2
$LN1@Allocate@2:

; 37   : 		_THROW_NCEE(bad_alloc, 0);

  00025	83 65 08 00	 and	 DWORD PTR $T537920[ebp], 0
  00029	8d 45 08	 lea	 eax, DWORD PTR $T537920[ebp]
  0002c	50		 push	 eax
  0002d	8d 4d f4	 lea	 ecx, DWORD PTR $T537916[ebp]
  00030	ff 15 00 00 00
	00		 call	 DWORD PTR __imp_??0exception@std@@QAE@ABQBD@Z
  00036	68 00 00 00 00	 push	 OFFSET __TI2?AVbad_alloc@std@@
  0003b	8d 45 f4	 lea	 eax, DWORD PTR $T537916[ebp]
  0003e	50		 push	 eax
  0003f	c7 45 f4 00 00
	00 00		 mov	 DWORD PTR $T537916[ebp], OFFSET ??_7bad_alloc@std@@6B@
  00046	e8 00 00 00 00	 call	 __CxxThrowException@8
$LN10@Allocate@2:
$LN5@Allocate@2:

; 40   : 	}

  0004b	c9		 leave
  0004c	c3		 ret	 0
$LN9@Allocate@2:
??$_Allocate@UCounterBranchAniInfo@ioChargeComboCounter@@@std@@YAPAUCounterBranchAniInfo@ioChargeComboCounter@@IPAU12@@Z ENDP ; std::_Allocate<ioChargeComboCounter::CounterBranchAniInfo>
_TEXT	ENDS
PUBLIC	??$forward@AAUAttackAttribute@@@std@@YAAAUAttackAttribute@@AAU1@@Z ; std::forward<AttackAttribute &>
; Function compile flags: /Ogsp
; File c:\program files (x86)\microsoft visual studio 10.0\vc\include\utility
;	COMDAT ??$forward@AAUAttackAttribute@@@std@@YAAAUAttackAttribute@@AAU1@@Z
_TEXT	SEGMENT
__Arg$ = 8						; size = 4
??$forward@AAUAttackAttribute@@@std@@YAAAUAttackAttribute@@AAU1@@Z PROC ; std::forward<AttackAttribute &>, COMDAT

; 78   : 	{	// forward _Arg, given explicitly specified type parameter

  00000	55		 push	 ebp
  00001	8b ec		 mov	 ebp, esp

; 79   : 	return ((_Ty&&)_Arg);

  00003	8b 45 08	 mov	 eax, DWORD PTR __Arg$[ebp]

; 80   : 	}

  00006	5d		 pop	 ebp
  00007	c3		 ret	 0
??$forward@AAUAttackAttribute@@@std@@YAAAUAttackAttribute@@AAU1@@Z ENDP ; std::forward<AttackAttribute &>
_TEXT	ENDS
PUBLIC	??$forward@ABUAttackAttribute@@@std@@YAABUAttackAttribute@@ABU1@@Z ; std::forward<AttackAttribute const &>
; Function compile flags: /Ogsp
;	COMDAT ??$forward@ABUAttackAttribute@@@std@@YAABUAttackAttribute@@ABU1@@Z
_TEXT	SEGMENT
__Arg$ = 8						; size = 4
??$forward@ABUAttackAttribute@@@std@@YAABUAttackAttribute@@ABU1@@Z PROC ; std::forward<AttackAttribute const &>, COMDAT

; 78   : 	{	// forward _Arg, given explicitly specified type parameter

  00000	55		 push	 ebp
  00001	8b ec		 mov	 ebp, esp

; 79   : 	return ((_Ty&&)_Arg);

  00003	8b 45 08	 mov	 eax, DWORD PTR __Arg$[ebp]

; 80   : 	}

  00006	5d		 pop	 ebp
  00007	c3		 ret	 0
??$forward@ABUAttackAttribute@@@std@@YAABUAttackAttribute@@ABU1@@Z ENDP ; std::forward<AttackAttribute const &>
_TEXT	ENDS
PUBLIC	??$forward@AAUCounterBranchAniInfo@ioChargeComboCounter@@@std@@YAAAUCounterBranchAniInfo@ioChargeComboCounter@@AAU12@@Z ; std::forward<ioChargeComboCounter::CounterBranchAniInfo &>
; Function compile flags: /Ogsp
;	COMDAT ??$forward@AAUCounterBranchAniInfo@ioChargeComboCounter@@@std@@YAAAUCounterBranchAniInfo@ioChargeComboCounter@@AAU12@@Z
_TEXT	SEGMENT
__Arg$ = 8						; size = 4
??$forward@AAUCounterBranchAniInfo@ioChargeComboCounter@@@std@@YAAAUCounterBranchAniInfo@ioChargeComboCounter@@AAU12@@Z PROC ; std::forward<ioChargeComboCounter::CounterBranchAniInfo &>, COMDAT

; 78   : 	{	// forward _Arg, given explicitly specified type parameter

  00000	55		 push	 ebp
  00001	8b ec		 mov	 ebp, esp

; 79   : 	return ((_Ty&&)_Arg);

  00003	8b 45 08	 mov	 eax, DWORD PTR __Arg$[ebp]

; 80   : 	}

  00006	5d		 pop	 ebp
  00007	c3		 ret	 0
??$forward@AAUCounterBranchAniInfo@ioChargeComboCounter@@@std@@YAAAUCounterBranchAniInfo@ioChargeComboCounter@@AAU12@@Z ENDP ; std::forward<ioChargeComboCounter::CounterBranchAniInfo &>
_TEXT	ENDS
PUBLIC	??$construct@AAUCounterBranchAniInfo@ioChargeComboCounter@@@?$allocator@UCounterBranchAniInfo@ioChargeComboCounter@@@std@@QAEXPAUCounterBranchAniInfo@ioChargeComboCounter@@AAU23@@Z ; std::allocator<ioChargeComboCounter::CounterBranchAniInfo>::construct<ioChargeComboCounter::CounterBranchAniInfo &>
EXTRN	___CxxFrameHandler3:PROC
EXTRN	@__security_check_cookie@4:PROC
EXTRN	__EH_epilog3:PROC
EXTRN	__EH_prolog3:PROC
;	COMDAT xdata$x
; File d:\lost saga for developer\youtube\tutorial\source\src\lsclient\iochargecombocounter.cpp
xdata$x	SEGMENT
__unwindtable$??$construct@AAUCounterBranchAniInfo@ioChargeComboCounter@@@?$allocator@UCounterBranchAniInfo@ioChargeComboCounter@@@std@@QAEXPAUCounterBranchAniInfo@ioChargeComboCounter@@AAU23@@Z DD 0ffffffffH
	DD	FLAT:__unwindfunclet$??$construct@AAUCounterBranchAniInfo@ioChargeComboCounter@@@?$allocator@UCounterBranchAniInfo@ioChargeComboCounter@@@std@@QAEXPAUCounterBranchAniInfo@ioChargeComboCounter@@AAU23@@Z$0
__ehfuncinfo$??$construct@AAUCounterBranchAniInfo@ioChargeComboCounter@@@?$allocator@UCounterBranchAniInfo@ioChargeComboCounter@@@std@@QAEXPAUCounterBranchAniInfo@ioChargeComboCounter@@AAU23@@Z DD 019930522H
	DD	01H
	DD	FLAT:__unwindtable$??$construct@AAUCounterBranchAniInfo@ioChargeComboCounter@@@?$allocator@UCounterBranchAniInfo@ioChargeComboCounter@@@std@@QAEXPAUCounterBranchAniInfo@ioChargeComboCounter@@AAU23@@Z
	DD	2 DUP(00H)
	DD	2 DUP(00H)
	DD	00H
	DD	01H
; Function compile flags: /Ogsp
; File c:\program files (x86)\microsoft visual studio 10.0\vc\include\xmemory
xdata$x	ENDS
;	COMDAT ??$construct@AAUCounterBranchAniInfo@ioChargeComboCounter@@@?$allocator@UCounterBranchAniInfo@ioChargeComboCounter@@@std@@QAEXPAUCounterBranchAniInfo@ioChargeComboCounter@@AAU23@@Z
_TEXT	SEGMENT
$T537932 = -16						; size = 4
__$EHRec$ = -12						; size = 12
__Ptr$ = 8						; size = 4
__Val$ = 12						; size = 4
??$construct@AAUCounterBranchAniInfo@ioChargeComboCounter@@@?$allocator@UCounterBranchAniInfo@ioChargeComboCounter@@@std@@QAEXPAUCounterBranchAniInfo@ioChargeComboCounter@@AAU23@@Z PROC ; std::allocator<ioChargeComboCounter::CounterBranchAniInfo>::construct<ioChargeComboCounter::CounterBranchAniInfo &>, COMDAT
; _this$ = ecx

; 206  : 		void construct(pointer _Ptr, _Other&& _Val)

  00000	6a 04		 push	 4
  00002	b8 00 00 00 00	 mov	 eax, __ehhandler$??$construct@AAUCounterBranchAniInfo@ioChargeComboCounter@@@?$allocator@UCounterBranchAniInfo@ioChargeComboCounter@@@std@@QAEXPAUCounterBranchAniInfo@ioChargeComboCounter@@AAU23@@Z
  00007	e8 00 00 00 00	 call	 __EH_prolog3

; 207  : 		{	// construct object at _Ptr with value _Val
; 208  : 		::new ((void _FARQ *)_Ptr) _Ty(_STD forward<_Other>(_Val));

  0000c	8b 75 08	 mov	 esi, DWORD PTR __Ptr$[ebp]
  0000f	89 75 f0	 mov	 DWORD PTR $T537932[ebp], esi
  00012	83 65 fc 00	 and	 DWORD PTR __$EHRec$[ebp+8], 0
  00016	85 f6		 test	 esi, esi
  00018	74 12		 je	 SHORT $LN3@construct
  0001a	8b 7d 0c	 mov	 edi, DWORD PTR __Val$[ebp]
  0001d	57		 push	 edi
  0001e	8b ce		 mov	 ecx, esi
  00020	ff 15 00 00 00
	00		 call	 DWORD PTR __imp_??0ioHashString@@QAE@ABV0@@Z
  00026	d9 47 10	 fld	 DWORD PTR [edi+16]
  00029	d9 5e 10	 fstp	 DWORD PTR [esi+16]
$LN3@construct:

; 209  : 		}

  0002c	e8 00 00 00 00	 call	 __EH_epilog3
  00031	c2 08 00	 ret	 8
_TEXT	ENDS
;	COMDAT text$x
text$x	SEGMENT
__unwindfunclet$??$construct@AAUCounterBranchAniInfo@ioChargeComboCounter@@@?$allocator@UCounterBranchAniInfo@ioChargeComboCounter@@@std@@QAEXPAUCounterBranchAniInfo@ioChargeComboCounter@@AAU23@@Z$0:
  00000	ff 75 08	 push	 DWORD PTR __Ptr$[ebp]
  00003	ff 75 f0	 push	 DWORD PTR $T537932[ebp]
  00006	e8 00 00 00 00	 call	 ??3@YAXPAX0@Z		; operator delete
  0000b	59		 pop	 ecx
  0000c	59		 pop	 ecx
  0000d	c3		 ret	 0
__ehhandler$??$construct@AAUCounterBranchAniInfo@ioChargeComboCounter@@@?$allocator@UCounterBranchAniInfo@ioChargeComboCounter@@@std@@QAEXPAUCounterBranchAniInfo@ioChargeComboCounter@@AAU23@@Z:
  0000e	8b 54 24 08	 mov	 edx, DWORD PTR [esp+8]
  00012	8d 42 0c	 lea	 eax, DWORD PTR [edx+12]
  00015	8b 4a ec	 mov	 ecx, DWORD PTR [edx-20]
  00018	33 c8		 xor	 ecx, eax
  0001a	e8 00 00 00 00	 call	 @__security_check_cookie@4
  0001f	b8 00 00 00 00	 mov	 eax, OFFSET __ehfuncinfo$??$construct@AAUCounterBranchAniInfo@ioChargeComboCounter@@@?$allocator@UCounterBranchAniInfo@ioChargeComboCounter@@@std@@QAEXPAUCounterBranchAniInfo@ioChargeComboCounter@@AAU23@@Z
  00024	e9 00 00 00 00	 jmp	 ___CxxFrameHandler3
text$x	ENDS
??$construct@AAUCounterBranchAniInfo@ioChargeComboCounter@@@?$allocator@UCounterBranchAniInfo@ioChargeComboCounter@@@std@@QAEXPAUCounterBranchAniInfo@ioChargeComboCounter@@AAU23@@Z ENDP ; std::allocator<ioChargeComboCounter::CounterBranchAniInfo>::construct<ioChargeComboCounter::CounterBranchAniInfo &>
PUBLIC	??$forward@ABUCounterBranchAniInfo@ioChargeComboCounter@@@std@@YAABUCounterBranchAniInfo@ioChargeComboCounter@@ABU12@@Z ; std::forward<ioChargeComboCounter::CounterBranchAniInfo const &>
; Function compile flags: /Ogsp
; File c:\program files (x86)\microsoft visual studio 10.0\vc\include\utility
;	COMDAT ??$forward@ABUCounterBranchAniInfo@ioChargeComboCounter@@@std@@YAABUCounterBranchAniInfo@ioChargeComboCounter@@ABU12@@Z
_TEXT	SEGMENT
__Arg$ = 8						; size = 4
??$forward@ABUCounterBranchAniInfo@ioChargeComboCounter@@@std@@YAABUCounterBranchAniInfo@ioChargeComboCounter@@ABU12@@Z PROC ; std::forward<ioChargeComboCounter::CounterBranchAniInfo const &>, COMDAT

; 78   : 	{	// forward _Arg, given explicitly specified type parameter

  00000	55		 push	 ebp
  00001	8b ec		 mov	 ebp, esp

; 79   : 	return ((_Ty&&)_Arg);

  00003	8b 45 08	 mov	 eax, DWORD PTR __Arg$[ebp]

; 80   : 	}

  00006	5d		 pop	 ebp
  00007	c3		 ret	 0
??$forward@ABUCounterBranchAniInfo@ioChargeComboCounter@@@std@@YAABUCounterBranchAniInfo@ioChargeComboCounter@@ABU12@@Z ENDP ; std::forward<ioChargeComboCounter::CounterBranchAniInfo const &>
_TEXT	ENDS
PUBLIC	??$_Ptr_cat@UCounterBranchAniInfo@ioChargeComboCounter@@U12@@std@@YA?AU_Nonscalar_ptr_iterator_tag@0@PAUCounterBranchAniInfo@ioChargeComboCounter@@0@Z ; std::_Ptr_cat<ioChargeComboCounter::CounterBranchAniInfo,ioChargeComboCounter::CounterBranchAniInfo>
; Function compile flags: /Ogsp
; File c:\program files (x86)\microsoft visual studio 10.0\vc\include\xutility
;	COMDAT ??$_Ptr_cat@UCounterBranchAniInfo@ioChargeComboCounter@@U12@@std@@YA?AU_Nonscalar_ptr_iterator_tag@0@PAUCounterBranchAniInfo@ioChargeComboCounter@@0@Z
_TEXT	SEGMENT
__Cat$ = -1						; size = 1
___formal$ = 8						; size = 4
___formal$ = 12						; size = 4
??$_Ptr_cat@UCounterBranchAniInfo@ioChargeComboCounter@@U12@@std@@YA?AU_Nonscalar_ptr_iterator_tag@0@PAUCounterBranchAniInfo@ioChargeComboCounter@@0@Z PROC ; std::_Ptr_cat<ioChargeComboCounter::CounterBranchAniInfo,ioChargeComboCounter::CounterBranchAniInfo>, COMDAT

; 516  : 	{	// return pointer category from pointers

  00000	55		 push	 ebp
  00001	8b ec		 mov	 ebp, esp
  00003	51		 push	 ecx

; 517  : 	typename _Ptr_cat_helper<_Elem1, _Elem2>::_Type _Cat;
; 518  : 	return (_Cat);

  00004	8a 45 ff	 mov	 al, BYTE PTR __Cat$[ebp]

; 519  : 	}

  00007	c9		 leave
  00008	c3		 ret	 0
??$_Ptr_cat@UCounterBranchAniInfo@ioChargeComboCounter@@U12@@std@@YA?AU_Nonscalar_ptr_iterator_tag@0@PAUCounterBranchAniInfo@ioChargeComboCounter@@0@Z ENDP ; std::_Ptr_cat<ioChargeComboCounter::CounterBranchAniInfo,ioChargeComboCounter::CounterBranchAniInfo>
_TEXT	ENDS
PUBLIC	??$_Construct@UCounterBranchAniInfo@ioChargeComboCounter@@ABU12@@std@@YAXPAUCounterBranchAniInfo@ioChargeComboCounter@@ABU12@@Z ; std::_Construct<ioChargeComboCounter::CounterBranchAniInfo,ioChargeComboCounter::CounterBranchAniInfo const &>
;	COMDAT xdata$x
; File d:\lost saga for developer\youtube\tutorial\source\src\lsclient\iochargecombocounter.cpp
xdata$x	SEGMENT
__unwindtable$??$_Construct@UCounterBranchAniInfo@ioChargeComboCounter@@ABU12@@std@@YAXPAUCounterBranchAniInfo@ioChargeComboCounter@@ABU12@@Z DD 0ffffffffH
	DD	FLAT:__unwindfunclet$??$_Construct@UCounterBranchAniInfo@ioChargeComboCounter@@ABU12@@std@@YAXPAUCounterBranchAniInfo@ioChargeComboCounter@@ABU12@@Z$0
__ehfuncinfo$??$_Construct@UCounterBranchAniInfo@ioChargeComboCounter@@ABU12@@std@@YAXPAUCounterBranchAniInfo@ioChargeComboCounter@@ABU12@@Z DD 019930522H
	DD	01H
	DD	FLAT:__unwindtable$??$_Construct@UCounterBranchAniInfo@ioChargeComboCounter@@ABU12@@std@@YAXPAUCounterBranchAniInfo@ioChargeComboCounter@@ABU12@@Z
	DD	2 DUP(00H)
	DD	2 DUP(00H)
	DD	00H
	DD	01H
; Function compile flags: /Ogsp
; File c:\program files (x86)\microsoft visual studio 10.0\vc\include\xmemory
xdata$x	ENDS
;	COMDAT ??$_Construct@UCounterBranchAniInfo@ioChargeComboCounter@@ABU12@@std@@YAXPAUCounterBranchAniInfo@ioChargeComboCounter@@ABU12@@Z
_TEXT	SEGMENT
$T537965 = -16						; size = 4
__$EHRec$ = -12						; size = 12
__Vptr$ = 8						; size = 4
__Ptr$ = 8						; size = 4
__Val$ = 12						; size = 4
??$_Construct@UCounterBranchAniInfo@ioChargeComboCounter@@ABU12@@std@@YAXPAUCounterBranchAniInfo@ioChargeComboCounter@@ABU12@@Z PROC ; std::_Construct<ioChargeComboCounter::CounterBranchAniInfo,ioChargeComboCounter::CounterBranchAniInfo const &>, COMDAT

; 46   : 	{	// construct object at _Ptr with value _Val

  00000	6a 04		 push	 4
  00002	b8 00 00 00 00	 mov	 eax, __ehhandler$??$_Construct@UCounterBranchAniInfo@ioChargeComboCounter@@ABU12@@std@@YAXPAUCounterBranchAniInfo@ioChargeComboCounter@@ABU12@@Z
  00007	e8 00 00 00 00	 call	 __EH_prolog3

; 47   : 	void _FARQ *_Vptr = _Ptr;

  0000c	8b 75 08	 mov	 esi, DWORD PTR __Ptr$[ebp]
  0000f	89 75 08	 mov	 DWORD PTR __Vptr$[ebp], esi

; 48   : 	::new (_Vptr) _Ty1(_STD forward<_Ty2>(_Val));

  00012	89 75 f0	 mov	 DWORD PTR $T537965[ebp], esi
  00015	83 65 fc 00	 and	 DWORD PTR __$EHRec$[ebp+8], 0
  00019	85 f6		 test	 esi, esi
  0001b	74 12		 je	 SHORT $LN3@Construct
  0001d	8b 7d 0c	 mov	 edi, DWORD PTR __Val$[ebp]
  00020	57		 push	 edi
  00021	8b ce		 mov	 ecx, esi
  00023	ff 15 00 00 00
	00		 call	 DWORD PTR __imp_??0ioHashString@@QAE@ABV0@@Z
  00029	d9 47 10	 fld	 DWORD PTR [edi+16]
  0002c	d9 5e 10	 fstp	 DWORD PTR [esi+16]
$LN3@Construct:

; 49   : 	}

  0002f	e8 00 00 00 00	 call	 __EH_epilog3
  00034	c3		 ret	 0
_TEXT	ENDS
;	COMDAT text$x
text$x	SEGMENT
__unwindfunclet$??$_Construct@UCounterBranchAniInfo@ioChargeComboCounter@@ABU12@@std@@YAXPAUCounterBranchAniInfo@ioChargeComboCounter@@ABU12@@Z$0:
  00000	ff 75 08	 push	 DWORD PTR __Vptr$[ebp]
  00003	ff 75 f0	 push	 DWORD PTR $T537965[ebp]
  00006	e8 00 00 00 00	 call	 ??3@YAXPAX0@Z		; operator delete
  0000b	59		 pop	 ecx
  0000c	59		 pop	 ecx
  0000d	c3		 ret	 0
__ehhandler$??$_Construct@UCounterBranchAniInfo@ioChargeComboCounter@@ABU12@@std@@YAXPAUCounterBranchAniInfo@ioChargeComboCounter@@ABU12@@Z:
  0000e	8b 54 24 08	 mov	 edx, DWORD PTR [esp+8]
  00012	8d 42 0c	 lea	 eax, DWORD PTR [edx+12]
  00015	8b 4a ec	 mov	 ecx, DWORD PTR [edx-20]
  00018	33 c8		 xor	 ecx, eax
  0001a	e8 00 00 00 00	 call	 @__security_check_cookie@4
  0001f	b8 00 00 00 00	 mov	 eax, OFFSET __ehfuncinfo$??$_Construct@UCounterBranchAniInfo@ioChargeComboCounter@@ABU12@@std@@YAXPAUCounterBranchAniInfo@ioChargeComboCounter@@ABU12@@Z
  00024	e9 00 00 00 00	 jmp	 ___CxxFrameHandler3
text$x	ENDS
??$_Construct@UCounterBranchAniInfo@ioChargeComboCounter@@ABU12@@std@@YAXPAUCounterBranchAniInfo@ioChargeComboCounter@@ABU12@@Z ENDP ; std::_Construct<ioChargeComboCounter::CounterBranchAniInfo,ioChargeComboCounter::CounterBranchAniInfo const &>
PUBLIC	??$_Ptr_cat@V?$_Vector_const_iterator@V?$_Vector_val@UWeaponInfo@@V?$allocator@UWeaponInfo@@@std@@@std@@@std@@PAUWeaponInfo@@@std@@YA?AU_Nonscalar_ptr_iterator_tag@0@AAV?$_Vector_const_iterator@V?$_Vector_val@UWeaponInfo@@V?$allocator@UWeaponInfo@@@std@@@std@@@0@AAPAUWeaponInfo@@@Z ; std::_Ptr_cat<std::_Vector_const_iterator<std::_Vector_val<WeaponInfo,std::allocator<WeaponInfo> > >,WeaponInfo *>
; Function compile flags: /Ogsp
; File c:\program files (x86)\microsoft visual studio 10.0\vc\include\xutility
;	COMDAT ??$_Ptr_cat@V?$_Vector_const_iterator@V?$_Vector_val@UWeaponInfo@@V?$allocator@UWeaponInfo@@@std@@@std@@@std@@PAUWeaponInfo@@@std@@YA?AU_Nonscalar_ptr_iterator_tag@0@AAV?$_Vector_const_iterator@V?$_Vector_val@UWeaponInfo@@V?$allocator@UWeaponInfo@@@std@@@std@@@0@AAPAUWeaponInfo@@@Z
_TEXT	SEGMENT
__Cat$ = -1						; size = 1
___formal$ = 8						; size = 4
___formal$ = 12						; size = 4
??$_Ptr_cat@V?$_Vector_const_iterator@V?$_Vector_val@UWeaponInfo@@V?$allocator@UWeaponInfo@@@std@@@std@@@std@@PAUWeaponInfo@@@std@@YA?AU_Nonscalar_ptr_iterator_tag@0@AAV?$_Vector_const_iterator@V?$_Vector_val@UWeaponInfo@@V?$allocator@UWeaponInfo@@@std@@@std@@@0@AAPAUWeaponInfo@@@Z PROC ; std::_Ptr_cat<std::_Vector_const_iterator<std::_Vector_val<WeaponInfo,std::allocator<WeaponInfo> > >,WeaponInfo *>, COMDAT

; 485  : 	{	// return pointer category from arbitrary arguments

  00000	55		 push	 ebp
  00001	8b ec		 mov	 ebp, esp
  00003	51		 push	 ecx

; 486  : 	_Nonscalar_ptr_iterator_tag _Cat;
; 487  : 	return (_Cat);

  00004	8a 45 ff	 mov	 al, BYTE PTR __Cat$[ebp]

; 488  : 	}

  00007	c9		 leave
  00008	c3		 ret	 0
??$_Ptr_cat@V?$_Vector_const_iterator@V?$_Vector_val@UWeaponInfo@@V?$allocator@UWeaponInfo@@@std@@@std@@@std@@PAUWeaponInfo@@@std@@YA?AU_Nonscalar_ptr_iterator_tag@0@AAV?$_Vector_const_iterator@V?$_Vector_val@UWeaponInfo@@V?$allocator@UWeaponInfo@@@std@@@std@@@0@AAPAUWeaponInfo@@@Z ENDP ; std::_Ptr_cat<std::_Vector_const_iterator<std::_Vector_val<WeaponInfo,std::allocator<WeaponInfo> > >,WeaponInfo *>
_TEXT	ENDS
PUBLIC	??$_Ptr_cat@V?$_Vector_const_iterator@V?$_Vector_val@UForceInfo@@V?$allocator@UForceInfo@@@std@@@std@@@std@@PAUForceInfo@@@std@@YA?AU_Nonscalar_ptr_iterator_tag@0@AAV?$_Vector_const_iterator@V?$_Vector_val@UForceInfo@@V?$allocator@UForceInfo@@@std@@@std@@@0@AAPAUForceInfo@@@Z ; std::_Ptr_cat<std::_Vector_const_iterator<std::_Vector_val<ForceInfo,std::allocator<ForceInfo> > >,ForceInfo *>
; Function compile flags: /Ogsp
;	COMDAT ??$_Ptr_cat@V?$_Vector_const_iterator@V?$_Vector_val@UForceInfo@@V?$allocator@UForceInfo@@@std@@@std@@@std@@PAUForceInfo@@@std@@YA?AU_Nonscalar_ptr_iterator_tag@0@AAV?$_Vector_const_iterator@V?$_Vector_val@UForceInfo@@V?$allocator@UForceInfo@@@std@@@std@@@0@AAPAUForceInfo@@@Z
_TEXT	SEGMENT
__Cat$ = -1						; size = 1
___formal$ = 8						; size = 4
___formal$ = 12						; size = 4
??$_Ptr_cat@V?$_Vector_const_iterator@V?$_Vector_val@UForceInfo@@V?$allocator@UForceInfo@@@std@@@std@@@std@@PAUForceInfo@@@std@@YA?AU_Nonscalar_ptr_iterator_tag@0@AAV?$_Vector_const_iterator@V?$_Vector_val@UForceInfo@@V?$allocator@UForceInfo@@@std@@@std@@@0@AAPAUForceInfo@@@Z PROC ; std::_Ptr_cat<std::_Vector_const_iterator<std::_Vector_val<ForceInfo,std::allocator<ForceInfo> > >,ForceInfo *>, COMDAT

; 485  : 	{	// return pointer category from arbitrary arguments

  00000	55		 push	 ebp
  00001	8b ec		 mov	 ebp, esp
  00003	51		 push	 ecx

; 486  : 	_Nonscalar_ptr_iterator_tag _Cat;
; 487  : 	return (_Cat);

  00004	8a 45 ff	 mov	 al, BYTE PTR __Cat$[ebp]

; 488  : 	}

  00007	c9		 leave
  00008	c3		 ret	 0
??$_Ptr_cat@V?$_Vector_const_iterator@V?$_Vector_val@UForceInfo@@V?$allocator@UForceInfo@@@std@@@std@@@std@@PAUForceInfo@@@std@@YA?AU_Nonscalar_ptr_iterator_tag@0@AAV?$_Vector_const_iterator@V?$_Vector_val@UForceInfo@@V?$allocator@UForceInfo@@@std@@@std@@@0@AAPAUForceInfo@@@Z ENDP ; std::_Ptr_cat<std::_Vector_const_iterator<std::_Vector_val<ForceInfo,std::allocator<ForceInfo> > >,ForceInfo *>
_TEXT	ENDS
PUBLIC	??$_Ptr_cat@V?$_Vector_const_iterator@V?$_Vector_val@UAttackAttribute@@V?$allocator@UAttackAttribute@@@std@@@std@@@std@@PAUAttackAttribute@@@std@@YA?AU_Nonscalar_ptr_iterator_tag@0@AAV?$_Vector_const_iterator@V?$_Vector_val@UAttackAttribute@@V?$allocator@UAttackAttribute@@@std@@@std@@@0@AAPAUAttackAttribute@@@Z ; std::_Ptr_cat<std::_Vector_const_iterator<std::_Vector_val<AttackAttribute,std::allocator<AttackAttribute> > >,AttackAttribute *>
; Function compile flags: /Ogsp
;	COMDAT ??$_Ptr_cat@V?$_Vector_const_iterator@V?$_Vector_val@UAttackAttribute@@V?$allocator@UAttackAttribute@@@std@@@std@@@std@@PAUAttackAttribute@@@std@@YA?AU_Nonscalar_ptr_iterator_tag@0@AAV?$_Vector_const_iterator@V?$_Vector_val@UAttackAttribute@@V?$allocator@UAttackAttribute@@@std@@@std@@@0@AAPAUAttackAttribute@@@Z
_TEXT	SEGMENT
__Cat$ = -1						; size = 1
___formal$ = 8						; size = 4
___formal$ = 12						; size = 4
??$_Ptr_cat@V?$_Vector_const_iterator@V?$_Vector_val@UAttackAttribute@@V?$allocator@UAttackAttribute@@@std@@@std@@@std@@PAUAttackAttribute@@@std@@YA?AU_Nonscalar_ptr_iterator_tag@0@AAV?$_Vector_const_iterator@V?$_Vector_val@UAttackAttribute@@V?$allocator@UAttackAttribute@@@std@@@std@@@0@AAPAUAttackAttribute@@@Z PROC ; std::_Ptr_cat<std::_Vector_const_iterator<std::_Vector_val<AttackAttribute,std::allocator<AttackAttribute> > >,AttackAttribute *>, COMDAT

; 485  : 	{	// return pointer category from arbitrary arguments

  00000	55		 push	 ebp
  00001	8b ec		 mov	 ebp, esp
  00003	51		 push	 ecx

; 486  : 	_Nonscalar_ptr_iterator_tag _Cat;
; 487  : 	return (_Cat);

  00004	8a 45 ff	 mov	 al, BYTE PTR __Cat$[ebp]

; 488  : 	}

  00007	c9		 leave
  00008	c3		 ret	 0
??$_Ptr_cat@V?$_Vector_const_iterator@V?$_Vector_val@UAttackAttribute@@V?$allocator@UAttackAttribute@@@std@@@std@@@std@@PAUAttackAttribute@@@std@@YA?AU_Nonscalar_ptr_iterator_tag@0@AAV?$_Vector_const_iterator@V?$_Vector_val@UAttackAttribute@@V?$allocator@UAttackAttribute@@@std@@@std@@@0@AAPAUAttackAttribute@@@Z ENDP ; std::_Ptr_cat<std::_Vector_const_iterator<std::_Vector_val<AttackAttribute,std::allocator<AttackAttribute> > >,AttackAttribute *>
_TEXT	ENDS
PUBLIC	??$_Ptr_cat@V?$_Vector_const_iterator@V?$_Vector_val@UCounterBranchAniInfo@ioChargeComboCounter@@V?$allocator@UCounterBranchAniInfo@ioChargeComboCounter@@@std@@@std@@@std@@PAUCounterBranchAniInfo@ioChargeComboCounter@@@std@@YA?AU_Nonscalar_ptr_iterator_tag@0@AAV?$_Vector_const_iterator@V?$_Vector_val@UCounterBranchAniInfo@ioChargeComboCounter@@V?$allocator@UCounterBranchAniInfo@ioChargeComboCounter@@@std@@@std@@@0@AAPAUCounterBranchAniInfo@ioChargeComboCounter@@@Z ; std::_Ptr_cat<std::_Vector_const_iterator<std::_Vector_val<ioChargeComboCounter::CounterBranchAniInfo,std::allocator<ioChargeComboCounter::CounterBranchAniInfo> > >,ioChargeComboCounter::CounterBranchAniInfo *>
; Function compile flags: /Ogsp
;	COMDAT ??$_Ptr_cat@V?$_Vector_const_iterator@V?$_Vector_val@UCounterBranchAniInfo@ioChargeComboCounter@@V?$allocator@UCounterBranchAniInfo@ioChargeComboCounter@@@std@@@std@@@std@@PAUCounterBranchAniInfo@ioChargeComboCounter@@@std@@YA?AU_Nonscalar_ptr_iterator_tag@0@AAV?$_Vector_const_iterator@V?$_Vector_val@UCounterBranchAniInfo@ioChargeComboCounter@@V?$allocator@UCounterBranchAniInfo@ioChargeComboCounter@@@std@@@std@@@0@AAPAUCounterBranchAniInfo@ioChargeComboCounter@@@Z
_TEXT	SEGMENT
__Cat$ = -1						; size = 1
___formal$ = 8						; size = 4
___formal$ = 12						; size = 4
??$_Ptr_cat@V?$_Vector_const_iterator@V?$_Vector_val@UCounterBranchAniInfo@ioChargeComboCounter@@V?$allocator@UCounterBranchAniInfo@ioChargeComboCounter@@@std@@@std@@@std@@PAUCounterBranchAniInfo@ioChargeComboCounter@@@std@@YA?AU_Nonscalar_ptr_iterator_tag@0@AAV?$_Vector_const_iterator@V?$_Vector_val@UCounterBranchAniInfo@ioChargeComboCounter@@V?$allocator@UCounterBranchAniInfo@ioChargeComboCounter@@@std@@@std@@@0@AAPAUCounterBranchAniInfo@ioChargeComboCounter@@@Z PROC ; std::_Ptr_cat<std::_Vector_const_iterator<std::_Vector_val<ioChargeComboCounter::CounterBranchAniInfo,std::allocator<ioChargeComboCounter::CounterBranchAniInfo> > >,ioChargeComboCounter::CounterBranchAniInfo *>, COMDAT

; 485  : 	{	// return pointer category from arbitrary arguments

  00000	55		 push	 ebp
  00001	8b ec		 mov	 ebp, esp
  00003	51		 push	 ecx

; 486  : 	_Nonscalar_ptr_iterator_tag _Cat;
; 487  : 	return (_Cat);

  00004	8a 45 ff	 mov	 al, BYTE PTR __Cat$[ebp]

; 488  : 	}

  00007	c9		 leave
  00008	c3		 ret	 0
??$_Ptr_cat@V?$_Vector_const_iterator@V?$_Vector_val@UCounterBranchAniInfo@ioChargeComboCounter@@V?$allocator@UCounterBranchAniInfo@ioChargeComboCounter@@@std@@@std@@@std@@PAUCounterBranchAniInfo@ioChargeComboCounter@@@std@@YA?AU_Nonscalar_ptr_iterator_tag@0@AAV?$_Vector_const_iterator@V?$_Vector_val@UCounterBranchAniInfo@ioChargeComboCounter@@V?$allocator@UCounterBranchAniInfo@ioChargeComboCounter@@@std@@@std@@@0@AAPAUCounterBranchAniInfo@ioChargeComboCounter@@@Z ENDP ; std::_Ptr_cat<std::_Vector_const_iterator<std::_Vector_val<ioChargeComboCounter::CounterBranchAniInfo,std::allocator<ioChargeComboCounter::CounterBranchAniInfo> > >,ioChargeComboCounter::CounterBranchAniInfo *>
_TEXT	ENDS
PUBLIC	??$_Val_type@PAUAttackAttribute@@@std@@YAPAUAttackAttribute@@PAU1@@Z ; std::_Val_type<AttackAttribute *>
; Function compile flags: /Ogsp
;	COMDAT ??$_Val_type@PAUAttackAttribute@@@std@@YAPAUAttackAttribute@@PAU1@@Z
_TEXT	SEGMENT
___formal$ = 8						; size = 4
??$_Val_type@PAUAttackAttribute@@@std@@YAPAUAttackAttribute@@PAU1@@Z PROC ; std::_Val_type<AttackAttribute *>, COMDAT

; 790  : 	return (0);

  00000	33 c0		 xor	 eax, eax

; 791  : 	}

  00002	c3		 ret	 0
??$_Val_type@PAUAttackAttribute@@@std@@YAPAUAttackAttribute@@PAU1@@Z ENDP ; std::_Val_type<AttackAttribute *>
_TEXT	ENDS
PUBLIC	??$_Val_type@PAUCounterBranchAniInfo@ioChargeComboCounter@@@std@@YAPAUCounterBranchAniInfo@ioChargeComboCounter@@PAU12@@Z ; std::_Val_type<ioChargeComboCounter::CounterBranchAniInfo *>
; Function compile flags: /Ogsp
;	COMDAT ??$_Val_type@PAUCounterBranchAniInfo@ioChargeComboCounter@@@std@@YAPAUCounterBranchAniInfo@ioChargeComboCounter@@PAU12@@Z
_TEXT	SEGMENT
___formal$ = 8						; size = 4
??$_Val_type@PAUCounterBranchAniInfo@ioChargeComboCounter@@@std@@YAPAUCounterBranchAniInfo@ioChargeComboCounter@@PAU12@@Z PROC ; std::_Val_type<ioChargeComboCounter::CounterBranchAniInfo *>, COMDAT

; 790  : 	return (0);

  00000	33 c0		 xor	 eax, eax

; 791  : 	}

  00002	c3		 ret	 0
??$_Val_type@PAUCounterBranchAniInfo@ioChargeComboCounter@@@std@@YAPAUCounterBranchAniInfo@ioChargeComboCounter@@PAU12@@Z ENDP ; std::_Val_type<ioChargeComboCounter::CounterBranchAniInfo *>
_TEXT	ENDS
PUBLIC	??D?$_Vector_const_iterator@V?$_Vector_val@UAttackAttribute@@V?$allocator@UAttackAttribute@@@std@@@std@@@std@@QBEABUAttackAttribute@@XZ ; std::_Vector_const_iterator<std::_Vector_val<AttackAttribute,std::allocator<AttackAttribute> > >::operator*
; Function compile flags: /Ogsp
; File c:\program files (x86)\microsoft visual studio 10.0\vc\include\vector
;	COMDAT ??D?$_Vector_const_iterator@V?$_Vector_val@UAttackAttribute@@V?$allocator@UAttackAttribute@@@std@@@std@@@std@@QBEABUAttackAttribute@@XZ
_TEXT	SEGMENT
??D?$_Vector_const_iterator@V?$_Vector_val@UAttackAttribute@@V?$allocator@UAttackAttribute@@@std@@@std@@@std@@QBEABUAttackAttribute@@XZ PROC ; std::_Vector_const_iterator<std::_Vector_val<AttackAttribute,std::allocator<AttackAttribute> > >::operator*, COMDAT
; _this$ = ecx

; 64   :  #if _ITERATOR_DEBUG_LEVEL == 2
; 65   : 		if (this->_Getcont() == 0
; 66   : 			|| this->_Ptr == 0
; 67   : 			|| this->_Ptr < ((_Myvec *)this->_Getcont())->_Myfirst
; 68   : 			|| ((_Myvec *)this->_Getcont())->_Mylast <= this->_Ptr)
; 69   : 			{	// report error
; 70   : 			_DEBUG_ERROR("vector iterator not dereferencable");
; 71   : 			_SCL_SECURE_OUT_OF_RANGE;
; 72   : 			}
; 73   : 
; 74   :  #elif _ITERATOR_DEBUG_LEVEL == 1
; 75   : 		_SCL_SECURE_VALIDATE(this->_Getcont() != 0);
; 76   : 		_SCL_SECURE_VALIDATE_RANGE(
; 77   : 			this->_Ptr != 0
; 78   : 			&& ((_Myvec *)this->_Getcont())->_Myfirst <= this->_Ptr
; 79   : 			&& this->_Ptr < ((_Myvec *)this->_Getcont())->_Mylast);
; 80   :  #endif /* _ITERATOR_DEBUG_LEVEL */
; 81   : 
; 82   : 		__analysis_assume(this->_Ptr != 0);
; 83   : 
; 84   : 		return (*this->_Ptr);

  00000	8b 01		 mov	 eax, DWORD PTR [ecx]

; 85   : 		}

  00002	c3		 ret	 0
??D?$_Vector_const_iterator@V?$_Vector_val@UAttackAttribute@@V?$allocator@UAttackAttribute@@@std@@@std@@@std@@QBEABUAttackAttribute@@XZ ENDP ; std::_Vector_const_iterator<std::_Vector_val<AttackAttribute,std::allocator<AttackAttribute> > >::operator*
_TEXT	ENDS
PUBLIC	??E?$_Vector_const_iterator@V?$_Vector_val@UAttackAttribute@@V?$allocator@UAttackAttribute@@@std@@@std@@@std@@QAEAAV01@XZ ; std::_Vector_const_iterator<std::_Vector_val<AttackAttribute,std::allocator<AttackAttribute> > >::operator++
; Function compile flags: /Ogsp
;	COMDAT ??E?$_Vector_const_iterator@V?$_Vector_val@UAttackAttribute@@V?$allocator@UAttackAttribute@@@std@@@std@@@std@@QAEAAV01@XZ
_TEXT	SEGMENT
??E?$_Vector_const_iterator@V?$_Vector_val@UAttackAttribute@@V?$allocator@UAttackAttribute@@@std@@@std@@@std@@QAEAAV01@XZ PROC ; std::_Vector_const_iterator<std::_Vector_val<AttackAttribute,std::allocator<AttackAttribute> > >::operator++, COMDAT
; _this$ = ecx

; 93   : 		{	// preincrement

  00000	8b c1		 mov	 eax, ecx

; 94   :  #if _ITERATOR_DEBUG_LEVEL == 2
; 95   : 		if (this->_Getcont() == 0
; 96   : 			|| this->_Ptr == 0
; 97   : 			|| ((_Myvec *)this->_Getcont())->_Mylast <= this->_Ptr)
; 98   : 			{	// report error
; 99   : 			_DEBUG_ERROR("vector iterator not incrementable");
; 100  : 			_SCL_SECURE_OUT_OF_RANGE;
; 101  : 			}
; 102  : 
; 103  :  #elif _ITERATOR_DEBUG_LEVEL == 1
; 104  : 		_SCL_SECURE_VALIDATE(this->_Getcont() != 0);
; 105  : 		_SCL_SECURE_VALIDATE_RANGE(
; 106  : 			this->_Ptr != 0
; 107  : 			&& this->_Ptr < ((_Myvec *)this->_Getcont())->_Mylast);
; 108  :  #endif /* _ITERATOR_DEBUG_LEVEL */
; 109  : 
; 110  : 		++this->_Ptr;

  00002	83 00 50	 add	 DWORD PTR [eax], 80	; 00000050H

; 111  : 		return (*this);
; 112  : 		}

  00005	c3		 ret	 0
??E?$_Vector_const_iterator@V?$_Vector_val@UAttackAttribute@@V?$allocator@UAttackAttribute@@@std@@@std@@@std@@QAEAAV01@XZ ENDP ; std::_Vector_const_iterator<std::_Vector_val<AttackAttribute,std::allocator<AttackAttribute> > >::operator++
_TEXT	ENDS
PUBLIC	??D?$_Vector_const_iterator@V?$_Vector_val@UWeaponInfo@@V?$allocator@UWeaponInfo@@@std@@@std@@@std@@QBEABUWeaponInfo@@XZ ; std::_Vector_const_iterator<std::_Vector_val<WeaponInfo,std::allocator<WeaponInfo> > >::operator*
; Function compile flags: /Ogsp
;	COMDAT ??D?$_Vector_const_iterator@V?$_Vector_val@UWeaponInfo@@V?$allocator@UWeaponInfo@@@std@@@std@@@std@@QBEABUWeaponInfo@@XZ
_TEXT	SEGMENT
??D?$_Vector_const_iterator@V?$_Vector_val@UWeaponInfo@@V?$allocator@UWeaponInfo@@@std@@@std@@@std@@QBEABUWeaponInfo@@XZ PROC ; std::_Vector_const_iterator<std::_Vector_val<WeaponInfo,std::allocator<WeaponInfo> > >::operator*, COMDAT
; _this$ = ecx

; 64   :  #if _ITERATOR_DEBUG_LEVEL == 2
; 65   : 		if (this->_Getcont() == 0
; 66   : 			|| this->_Ptr == 0
; 67   : 			|| this->_Ptr < ((_Myvec *)this->_Getcont())->_Myfirst
; 68   : 			|| ((_Myvec *)this->_Getcont())->_Mylast <= this->_Ptr)
; 69   : 			{	// report error
; 70   : 			_DEBUG_ERROR("vector iterator not dereferencable");
; 71   : 			_SCL_SECURE_OUT_OF_RANGE;
; 72   : 			}
; 73   : 
; 74   :  #elif _ITERATOR_DEBUG_LEVEL == 1
; 75   : 		_SCL_SECURE_VALIDATE(this->_Getcont() != 0);
; 76   : 		_SCL_SECURE_VALIDATE_RANGE(
; 77   : 			this->_Ptr != 0
; 78   : 			&& ((_Myvec *)this->_Getcont())->_Myfirst <= this->_Ptr
; 79   : 			&& this->_Ptr < ((_Myvec *)this->_Getcont())->_Mylast);
; 80   :  #endif /* _ITERATOR_DEBUG_LEVEL */
; 81   : 
; 82   : 		__analysis_assume(this->_Ptr != 0);
; 83   : 
; 84   : 		return (*this->_Ptr);

  00000	8b 01		 mov	 eax, DWORD PTR [ecx]

; 85   : 		}

  00002	c3		 ret	 0
??D?$_Vector_const_iterator@V?$_Vector_val@UWeaponInfo@@V?$allocator@UWeaponInfo@@@std@@@std@@@std@@QBEABUWeaponInfo@@XZ ENDP ; std::_Vector_const_iterator<std::_Vector_val<WeaponInfo,std::allocator<WeaponInfo> > >::operator*
_TEXT	ENDS
PUBLIC	??E?$_Vector_const_iterator@V?$_Vector_val@UWeaponInfo@@V?$allocator@UWeaponInfo@@@std@@@std@@@std@@QAEAAV01@XZ ; std::_Vector_const_iterator<std::_Vector_val<WeaponInfo,std::allocator<WeaponInfo> > >::operator++
; Function compile flags: /Ogsp
;	COMDAT ??E?$_Vector_const_iterator@V?$_Vector_val@UWeaponInfo@@V?$allocator@UWeaponInfo@@@std@@@std@@@std@@QAEAAV01@XZ
_TEXT	SEGMENT
??E?$_Vector_const_iterator@V?$_Vector_val@UWeaponInfo@@V?$allocator@UWeaponInfo@@@std@@@std@@@std@@QAEAAV01@XZ PROC ; std::_Vector_const_iterator<std::_Vector_val<WeaponInfo,std::allocator<WeaponInfo> > >::operator++, COMDAT
; _this$ = ecx

; 93   : 		{	// preincrement

  00000	8b c1		 mov	 eax, ecx

; 94   :  #if _ITERATOR_DEBUG_LEVEL == 2
; 95   : 		if (this->_Getcont() == 0
; 96   : 			|| this->_Ptr == 0
; 97   : 			|| ((_Myvec *)this->_Getcont())->_Mylast <= this->_Ptr)
; 98   : 			{	// report error
; 99   : 			_DEBUG_ERROR("vector iterator not incrementable");
; 100  : 			_SCL_SECURE_OUT_OF_RANGE;
; 101  : 			}
; 102  : 
; 103  :  #elif _ITERATOR_DEBUG_LEVEL == 1
; 104  : 		_SCL_SECURE_VALIDATE(this->_Getcont() != 0);
; 105  : 		_SCL_SECURE_VALIDATE_RANGE(
; 106  : 			this->_Ptr != 0
; 107  : 			&& this->_Ptr < ((_Myvec *)this->_Getcont())->_Mylast);
; 108  :  #endif /* _ITERATOR_DEBUG_LEVEL */
; 109  : 
; 110  : 		++this->_Ptr;

  00002	83 00 28	 add	 DWORD PTR [eax], 40	; 00000028H

; 111  : 		return (*this);
; 112  : 		}

  00005	c3		 ret	 0
??E?$_Vector_const_iterator@V?$_Vector_val@UWeaponInfo@@V?$allocator@UWeaponInfo@@@std@@@std@@@std@@QAEAAV01@XZ ENDP ; std::_Vector_const_iterator<std::_Vector_val<WeaponInfo,std::allocator<WeaponInfo> > >::operator++
_TEXT	ENDS
PUBLIC	??D?$_Vector_const_iterator@V?$_Vector_val@UForceInfo@@V?$allocator@UForceInfo@@@std@@@std@@@std@@QBEABUForceInfo@@XZ ; std::_Vector_const_iterator<std::_Vector_val<ForceInfo,std::allocator<ForceInfo> > >::operator*
; Function compile flags: /Ogsp
;	COMDAT ??D?$_Vector_const_iterator@V?$_Vector_val@UForceInfo@@V?$allocator@UForceInfo@@@std@@@std@@@std@@QBEABUForceInfo@@XZ
_TEXT	SEGMENT
??D?$_Vector_const_iterator@V?$_Vector_val@UForceInfo@@V?$allocator@UForceInfo@@@std@@@std@@@std@@QBEABUForceInfo@@XZ PROC ; std::_Vector_const_iterator<std::_Vector_val<ForceInfo,std::allocator<ForceInfo> > >::operator*, COMDAT
; _this$ = ecx

; 64   :  #if _ITERATOR_DEBUG_LEVEL == 2
; 65   : 		if (this->_Getcont() == 0
; 66   : 			|| this->_Ptr == 0
; 67   : 			|| this->_Ptr < ((_Myvec *)this->_Getcont())->_Myfirst
; 68   : 			|| ((_Myvec *)this->_Getcont())->_Mylast <= this->_Ptr)
; 69   : 			{	// report error
; 70   : 			_DEBUG_ERROR("vector iterator not dereferencable");
; 71   : 			_SCL_SECURE_OUT_OF_RANGE;
; 72   : 			}
; 73   : 
; 74   :  #elif _ITERATOR_DEBUG_LEVEL == 1
; 75   : 		_SCL_SECURE_VALIDATE(this->_Getcont() != 0);
; 76   : 		_SCL_SECURE_VALIDATE_RANGE(
; 77   : 			this->_Ptr != 0
; 78   : 			&& ((_Myvec *)this->_Getcont())->_Myfirst <= this->_Ptr
; 79   : 			&& this->_Ptr < ((_Myvec *)this->_Getcont())->_Mylast);
; 80   :  #endif /* _ITERATOR_DEBUG_LEVEL */
; 81   : 
; 82   : 		__analysis_assume(this->_Ptr != 0);
; 83   : 
; 84   : 		return (*this->_Ptr);

  00000	8b 01		 mov	 eax, DWORD PTR [ecx]

; 85   : 		}

  00002	c3		 ret	 0
??D?$_Vector_const_iterator@V?$_Vector_val@UForceInfo@@V?$allocator@UForceInfo@@@std@@@std@@@std@@QBEABUForceInfo@@XZ ENDP ; std::_Vector_const_iterator<std::_Vector_val<ForceInfo,std::allocator<ForceInfo> > >::operator*
_TEXT	ENDS
PUBLIC	??E?$_Vector_const_iterator@V?$_Vector_val@UForceInfo@@V?$allocator@UForceInfo@@@std@@@std@@@std@@QAEAAV01@XZ ; std::_Vector_const_iterator<std::_Vector_val<ForceInfo,std::allocator<ForceInfo> > >::operator++
; Function compile flags: /Ogsp
;	COMDAT ??E?$_Vector_const_iterator@V?$_Vector_val@UForceInfo@@V?$allocator@UForceInfo@@@std@@@std@@@std@@QAEAAV01@XZ
_TEXT	SEGMENT
??E?$_Vector_const_iterator@V?$_Vector_val@UForceInfo@@V?$allocator@UForceInfo@@@std@@@std@@@std@@QAEAAV01@XZ PROC ; std::_Vector_const_iterator<std::_Vector_val<ForceInfo,std::allocator<ForceInfo> > >::operator++, COMDAT
; _this$ = ecx

; 93   : 		{	// preincrement

  00000	8b c1		 mov	 eax, ecx

; 94   :  #if _ITERATOR_DEBUG_LEVEL == 2
; 95   : 		if (this->_Getcont() == 0
; 96   : 			|| this->_Ptr == 0
; 97   : 			|| ((_Myvec *)this->_Getcont())->_Mylast <= this->_Ptr)
; 98   : 			{	// report error
; 99   : 			_DEBUG_ERROR("vector iterator not incrementable");
; 100  : 			_SCL_SECURE_OUT_OF_RANGE;
; 101  : 			}
; 102  : 
; 103  :  #elif _ITERATOR_DEBUG_LEVEL == 1
; 104  : 		_SCL_SECURE_VALIDATE(this->_Getcont() != 0);
; 105  : 		_SCL_SECURE_VALIDATE_RANGE(
; 106  : 			this->_Ptr != 0
; 107  : 			&& this->_Ptr < ((_Myvec *)this->_Getcont())->_Mylast);
; 108  :  #endif /* _ITERATOR_DEBUG_LEVEL */
; 109  : 
; 110  : 		++this->_Ptr;

  00002	83 00 0c	 add	 DWORD PTR [eax], 12	; 0000000cH

; 111  : 		return (*this);
; 112  : 		}

  00005	c3		 ret	 0
??E?$_Vector_const_iterator@V?$_Vector_val@UForceInfo@@V?$allocator@UForceInfo@@@std@@@std@@@std@@QAEAAV01@XZ ENDP ; std::_Vector_const_iterator<std::_Vector_val<ForceInfo,std::allocator<ForceInfo> > >::operator++
_TEXT	ENDS
PUBLIC	??D?$_Vector_const_iterator@V?$_Vector_val@UCounterBranchAniInfo@ioChargeComboCounter@@V?$allocator@UCounterBranchAniInfo@ioChargeComboCounter@@@std@@@std@@@std@@QBEABUCounterBranchAniInfo@ioChargeComboCounter@@XZ ; std::_Vector_const_iterator<std::_Vector_val<ioChargeComboCounter::CounterBranchAniInfo,std::allocator<ioChargeComboCounter::CounterBranchAniInfo> > >::operator*
; Function compile flags: /Ogsp
;	COMDAT ??D?$_Vector_const_iterator@V?$_Vector_val@UCounterBranchAniInfo@ioChargeComboCounter@@V?$allocator@UCounterBranchAniInfo@ioChargeComboCounter@@@std@@@std@@@std@@QBEABUCounterBranchAniInfo@ioChargeComboCounter@@XZ
_TEXT	SEGMENT
??D?$_Vector_const_iterator@V?$_Vector_val@UCounterBranchAniInfo@ioChargeComboCounter@@V?$allocator@UCounterBranchAniInfo@ioChargeComboCounter@@@std@@@std@@@std@@QBEABUCounterBranchAniInfo@ioChargeComboCounter@@XZ PROC ; std::_Vector_const_iterator<std::_Vector_val<ioChargeComboCounter::CounterBranchAniInfo,std::allocator<ioChargeComboCounter::CounterBranchAniInfo> > >::operator*, COMDAT
; _this$ = ecx

; 64   :  #if _ITERATOR_DEBUG_LEVEL == 2
; 65   : 		if (this->_Getcont() == 0
; 66   : 			|| this->_Ptr == 0
; 67   : 			|| this->_Ptr < ((_Myvec *)this->_Getcont())->_Myfirst
; 68   : 			|| ((_Myvec *)this->_Getcont())->_Mylast <= this->_Ptr)
; 69   : 			{	// report error
; 70   : 			_DEBUG_ERROR("vector iterator not dereferencable");
; 71   : 			_SCL_SECURE_OUT_OF_RANGE;
; 72   : 			}
; 73   : 
; 74   :  #elif _ITERATOR_DEBUG_LEVEL == 1
; 75   : 		_SCL_SECURE_VALIDATE(this->_Getcont() != 0);
; 76   : 		_SCL_SECURE_VALIDATE_RANGE(
; 77   : 			this->_Ptr != 0
; 78   : 			&& ((_Myvec *)this->_Getcont())->_Myfirst <= this->_Ptr
; 79   : 			&& this->_Ptr < ((_Myvec *)this->_Getcont())->_Mylast);
; 80   :  #endif /* _ITERATOR_DEBUG_LEVEL */
; 81   : 
; 82   : 		__analysis_assume(this->_Ptr != 0);
; 83   : 
; 84   : 		return (*this->_Ptr);

  00000	8b 01		 mov	 eax, DWORD PTR [ecx]

; 85   : 		}

  00002	c3		 ret	 0
??D?$_Vector_const_iterator@V?$_Vector_val@UCounterBranchAniInfo@ioChargeComboCounter@@V?$allocator@UCounterBranchAniInfo@ioChargeComboCounter@@@std@@@std@@@std@@QBEABUCounterBranchAniInfo@ioChargeComboCounter@@XZ ENDP ; std::_Vector_const_iterator<std::_Vector_val<ioChargeComboCounter::CounterBranchAniInfo,std::allocator<ioChargeComboCounter::CounterBranchAniInfo> > >::operator*
_TEXT	ENDS
PUBLIC	??E?$_Vector_const_iterator@V?$_Vector_val@UCounterBranchAniInfo@ioChargeComboCounter@@V?$allocator@UCounterBranchAniInfo@ioChargeComboCounter@@@std@@@std@@@std@@QAEAAV01@XZ ; std::_Vector_const_iterator<std::_Vector_val<ioChargeComboCounter::CounterBranchAniInfo,std::allocator<ioChargeComboCounter::CounterBranchAniInfo> > >::operator++
; Function compile flags: /Ogsp
;	COMDAT ??E?$_Vector_const_iterator@V?$_Vector_val@UCounterBranchAniInfo@ioChargeComboCounter@@V?$allocator@UCounterBranchAniInfo@ioChargeComboCounter@@@std@@@std@@@std@@QAEAAV01@XZ
_TEXT	SEGMENT
??E?$_Vector_const_iterator@V?$_Vector_val@UCounterBranchAniInfo@ioChargeComboCounter@@V?$allocator@UCounterBranchAniInfo@ioChargeComboCounter@@@std@@@std@@@std@@QAEAAV01@XZ PROC ; std::_Vector_const_iterator<std::_Vector_val<ioChargeComboCounter::CounterBranchAniInfo,std::allocator<ioChargeComboCounter::CounterBranchAniInfo> > >::operator++, COMDAT
; _this$ = ecx

; 93   : 		{	// preincrement

  00000	8b c1		 mov	 eax, ecx

; 94   :  #if _ITERATOR_DEBUG_LEVEL == 2
; 95   : 		if (this->_Getcont() == 0
; 96   : 			|| this->_Ptr == 0
; 97   : 			|| ((_Myvec *)this->_Getcont())->_Mylast <= this->_Ptr)
; 98   : 			{	// report error
; 99   : 			_DEBUG_ERROR("vector iterator not incrementable");
; 100  : 			_SCL_SECURE_OUT_OF_RANGE;
; 101  : 			}
; 102  : 
; 103  :  #elif _ITERATOR_DEBUG_LEVEL == 1
; 104  : 		_SCL_SECURE_VALIDATE(this->_Getcont() != 0);
; 105  : 		_SCL_SECURE_VALIDATE_RANGE(
; 106  : 			this->_Ptr != 0
; 107  : 			&& this->_Ptr < ((_Myvec *)this->_Getcont())->_Mylast);
; 108  :  #endif /* _ITERATOR_DEBUG_LEVEL */
; 109  : 
; 110  : 		++this->_Ptr;

  00002	83 00 14	 add	 DWORD PTR [eax], 20	; 00000014H

; 111  : 		return (*this);
; 112  : 		}

  00005	c3		 ret	 0
??E?$_Vector_const_iterator@V?$_Vector_val@UCounterBranchAniInfo@ioChargeComboCounter@@V?$allocator@UCounterBranchAniInfo@ioChargeComboCounter@@@std@@@std@@@std@@QAEAAV01@XZ ENDP ; std::_Vector_const_iterator<std::_Vector_val<ioChargeComboCounter::CounterBranchAniInfo,std::allocator<ioChargeComboCounter::CounterBranchAniInfo> > >::operator++
_TEXT	ENDS
PUBLIC	?_Compat@?$_Vector_const_iterator@V?$_Vector_val@UCounterBranchAniInfo@ioChargeComboCounter@@V?$allocator@UCounterBranchAniInfo@ioChargeComboCounter@@@std@@@std@@@std@@QBEXABV12@@Z ; std::_Vector_const_iterator<std::_Vector_val<ioChargeComboCounter::CounterBranchAniInfo,std::allocator<ioChargeComboCounter::CounterBranchAniInfo> > >::_Compat
; Function compile flags: /Ogsp
;	COMDAT ?_Compat@?$_Vector_const_iterator@V?$_Vector_val@UCounterBranchAniInfo@ioChargeComboCounter@@V?$allocator@UCounterBranchAniInfo@ioChargeComboCounter@@@std@@@std@@@std@@QBEXABV12@@Z
_TEXT	SEGMENT
___formal$ = 8						; size = 4
?_Compat@?$_Vector_const_iterator@V?$_Vector_val@UCounterBranchAniInfo@ioChargeComboCounter@@V?$allocator@UCounterBranchAniInfo@ioChargeComboCounter@@@std@@@std@@@std@@QBEXABV12@@Z PROC ; std::_Vector_const_iterator<std::_Vector_val<ioChargeComboCounter::CounterBranchAniInfo,std::allocator<ioChargeComboCounter::CounterBranchAniInfo> > >::_Compat, COMDAT
; _this$ = ecx

; 253  : 		}

  00000	c2 04 00	 ret	 4
?_Compat@?$_Vector_const_iterator@V?$_Vector_val@UCounterBranchAniInfo@ioChargeComboCounter@@V?$allocator@UCounterBranchAniInfo@ioChargeComboCounter@@@std@@@std@@@std@@QBEXABV12@@Z ENDP ; std::_Vector_const_iterator<std::_Vector_val<ioChargeComboCounter::CounterBranchAniInfo,std::allocator<ioChargeComboCounter::CounterBranchAniInfo> > >::_Compat
_TEXT	ENDS
PUBLIC	??_GCounterBranchAniInfo@ioChargeComboCounter@@QAEPAXI@Z ; ioChargeComboCounter::CounterBranchAniInfo::`scalar deleting destructor'
; Function compile flags: /Ogsp
;	COMDAT ??_GCounterBranchAniInfo@ioChargeComboCounter@@QAEPAXI@Z
_TEXT	SEGMENT
___flags$ = 8						; size = 4
??_GCounterBranchAniInfo@ioChargeComboCounter@@QAEPAXI@Z PROC ; ioChargeComboCounter::CounterBranchAniInfo::`scalar deleting destructor', COMDAT
; _this$ = ecx
  00000	55		 push	 ebp
  00001	8b ec		 mov	 ebp, esp
  00003	56		 push	 esi
  00004	8b f1		 mov	 esi, ecx
  00006	ff 15 00 00 00
	00		 call	 DWORD PTR __imp_??1ioHashString@@QAE@XZ
  0000c	f6 45 08 01	 test	 BYTE PTR ___flags$[ebp], 1
  00010	74 07		 je	 SHORT $LN1@scalar@2
  00012	56		 push	 esi
  00013	e8 00 00 00 00	 call	 ??3@YAXPAX@Z		; operator delete
  00018	59		 pop	 ecx
$LN1@scalar@2:
  00019	8b c6		 mov	 eax, esi
  0001b	5e		 pop	 esi
  0001c	5d		 pop	 ebp
  0001d	c2 04 00	 ret	 4
??_GCounterBranchAniInfo@ioChargeComboCounter@@QAEPAXI@Z ENDP ; ioChargeComboCounter::CounterBranchAniInfo::`scalar deleting destructor'
_TEXT	ENDS
PUBLIC	??$forward@ABUWeaponInfo@@@std@@YAABUWeaponInfo@@ABU1@@Z ; std::forward<WeaponInfo const &>
; Function compile flags: /Ogsp
; File c:\program files (x86)\microsoft visual studio 10.0\vc\include\utility
;	COMDAT ??$forward@ABUWeaponInfo@@@std@@YAABUWeaponInfo@@ABU1@@Z
_TEXT	SEGMENT
__Arg$ = 8						; size = 4
??$forward@ABUWeaponInfo@@@std@@YAABUWeaponInfo@@ABU1@@Z PROC ; std::forward<WeaponInfo const &>, COMDAT

; 78   : 	{	// forward _Arg, given explicitly specified type parameter

  00000	55		 push	 ebp
  00001	8b ec		 mov	 ebp, esp

; 79   : 	return ((_Ty&&)_Arg);

  00003	8b 45 08	 mov	 eax, DWORD PTR __Arg$[ebp]

; 80   : 	}

  00006	5d		 pop	 ebp
  00007	c3		 ret	 0
??$forward@ABUWeaponInfo@@@std@@YAABUWeaponInfo@@ABU1@@Z ENDP ; std::forward<WeaponInfo const &>
_TEXT	ENDS
PUBLIC	??$forward@ABUForceInfo@@@std@@YAABUForceInfo@@ABU1@@Z ; std::forward<ForceInfo const &>
; Function compile flags: /Ogsp
;	COMDAT ??$forward@ABUForceInfo@@@std@@YAABUForceInfo@@ABU1@@Z
_TEXT	SEGMENT
__Arg$ = 8						; size = 4
??$forward@ABUForceInfo@@@std@@YAABUForceInfo@@ABU1@@Z PROC ; std::forward<ForceInfo const &>, COMDAT

; 78   : 	{	// forward _Arg, given explicitly specified type parameter

  00000	55		 push	 ebp
  00001	8b ec		 mov	 ebp, esp

; 79   : 	return ((_Ty&&)_Arg);

  00003	8b 45 08	 mov	 eax, DWORD PTR __Arg$[ebp]

; 80   : 	}

  00006	5d		 pop	 ebp
  00007	c3		 ret	 0
??$forward@ABUForceInfo@@@std@@YAABUForceInfo@@ABU1@@Z ENDP ; std::forward<ForceInfo const &>
_TEXT	ENDS
PUBLIC	??$forward@UAttackAttribute@@@std@@YA$$QAUAttackAttribute@@AAU1@@Z ; std::forward<AttackAttribute>
; Function compile flags: /Ogsp
;	COMDAT ??$forward@UAttackAttribute@@@std@@YA$$QAUAttackAttribute@@AAU1@@Z
_TEXT	SEGMENT
__Arg$ = 8						; size = 4
??$forward@UAttackAttribute@@@std@@YA$$QAUAttackAttribute@@AAU1@@Z PROC ; std::forward<AttackAttribute>, COMDAT

; 78   : 	{	// forward _Arg, given explicitly specified type parameter

  00000	55		 push	 ebp
  00001	8b ec		 mov	 ebp, esp

; 79   : 	return ((_Ty&&)_Arg);

  00003	8b 45 08	 mov	 eax, DWORD PTR __Arg$[ebp]

; 80   : 	}

  00006	5d		 pop	 ebp
  00007	c3		 ret	 0
??$forward@UAttackAttribute@@@std@@YA$$QAUAttackAttribute@@AAU1@@Z ENDP ; std::forward<AttackAttribute>
_TEXT	ENDS
PUBLIC	??$forward@UCounterBranchAniInfo@ioChargeComboCounter@@@std@@YA$$QAUCounterBranchAniInfo@ioChargeComboCounter@@AAU12@@Z ; std::forward<ioChargeComboCounter::CounterBranchAniInfo>
; Function compile flags: /Ogsp
;	COMDAT ??$forward@UCounterBranchAniInfo@ioChargeComboCounter@@@std@@YA$$QAUCounterBranchAniInfo@ioChargeComboCounter@@AAU12@@Z
_TEXT	SEGMENT
__Arg$ = 8						; size = 4
??$forward@UCounterBranchAniInfo@ioChargeComboCounter@@@std@@YA$$QAUCounterBranchAniInfo@ioChargeComboCounter@@AAU12@@Z PROC ; std::forward<ioChargeComboCounter::CounterBranchAniInfo>, COMDAT

; 78   : 	{	// forward _Arg, given explicitly specified type parameter

  00000	55		 push	 ebp
  00001	8b ec		 mov	 ebp, esp

; 79   : 	return ((_Ty&&)_Arg);

  00003	8b 45 08	 mov	 eax, DWORD PTR __Arg$[ebp]

; 80   : 	}

  00006	5d		 pop	 ebp
  00007	c3		 ret	 0
??$forward@UCounterBranchAniInfo@ioChargeComboCounter@@@std@@YA$$QAUCounterBranchAniInfo@ioChargeComboCounter@@AAU12@@Z ENDP ; std::forward<ioChargeComboCounter::CounterBranchAniInfo>
_TEXT	ENDS
PUBLIC	??$_Construct@UForceInfo@@ABU1@@std@@YAXPAUForceInfo@@ABU1@@Z ; std::_Construct<ForceInfo,ForceInfo const &>
; Function compile flags: /Ogsp
; File c:\program files (x86)\microsoft visual studio 10.0\vc\include\xmemory
;	COMDAT ??$_Construct@UForceInfo@@ABU1@@std@@YAXPAUForceInfo@@ABU1@@Z
_TEXT	SEGMENT
__Ptr$ = 8						; size = 4
__Val$ = 12						; size = 4
??$_Construct@UForceInfo@@ABU1@@std@@YAXPAUForceInfo@@ABU1@@Z PROC ; std::_Construct<ForceInfo,ForceInfo const &>, COMDAT

; 46   : 	{	// construct object at _Ptr with value _Val

  00000	55		 push	 ebp
  00001	8b ec		 mov	 ebp, esp
  00003	57		 push	 edi

; 47   : 	void _FARQ *_Vptr = _Ptr;
; 48   : 	::new (_Vptr) _Ty1(_STD forward<_Ty2>(_Val));

  00004	8b 7d 08	 mov	 edi, DWORD PTR __Ptr$[ebp]
  00007	85 ff		 test	 edi, edi
  00009	74 08		 je	 SHORT $LN3@Construct@2
  0000b	56		 push	 esi
  0000c	8b 75 0c	 mov	 esi, DWORD PTR __Val$[ebp]
  0000f	a5		 movsd
  00010	a5		 movsd
  00011	a5		 movsd
  00012	5e		 pop	 esi
$LN3@Construct@2:
  00013	5f		 pop	 edi

; 49   : 	}

  00014	5d		 pop	 ebp
  00015	c3		 ret	 0
??$_Construct@UForceInfo@@ABU1@@std@@YAXPAUForceInfo@@ABU1@@Z ENDP ; std::_Construct<ForceInfo,ForceInfo const &>
_TEXT	ENDS
PUBLIC	?_DECSTR@@YAXPADH@Z				; _DECSTR
; Function compile flags: /Ogsp
; File d:\lost saga for developer\youtube\tutorial\source\src\lsclient\stringprotect.h
;	COMDAT ?_DECSTR@@YAXPADH@Z
_TEXT	SEGMENT
_s$ = 8							; size = 4
_l$ = 12						; size = 4
?_DECSTR@@YAXPADH@Z PROC				; _DECSTR, COMDAT

; 40   : __forceinline void _DECSTR(char* s, int l){int i=0,l4=(l-1)/4,*p=(int*)s;s[l-1]=0;for(;i<l4;++i)*(p++)^=0xEAEBECED;for(i=l4*4;i<l-1;++i)s[i]^=0xED-i%4;}

  00000	55		 push	 ebp
  00001	8b ec		 mov	 ebp, esp
  00003	8b 4d 0c	 mov	 ecx, DWORD PTR _l$[ebp]
  00006	56		 push	 esi
  00007	8b 75 08	 mov	 esi, DWORD PTR _s$[ebp]
  0000a	57		 push	 edi
  0000b	8d 79 ff	 lea	 edi, DWORD PTR [ecx-1]
  0000e	8b c7		 mov	 eax, edi
  00010	99		 cdq
  00011	83 e2 03	 and	 edx, 3
  00014	03 c2		 add	 eax, edx
  00016	c1 f8 02	 sar	 eax, 2
  00019	8b d6		 mov	 edx, esi
  0001b	c6 44 0e ff 00	 mov	 BYTE PTR [esi+ecx-1], 0
  00020	85 c0		 test	 eax, eax
  00022	7e 0e		 jle	 SHORT $LN4@DECSTR
  00024	8b c8		 mov	 ecx, eax
$LL6@DECSTR:
  00026	81 32 ed ec eb
	ea		 xor	 DWORD PTR [edx], -353637139 ; eaebecedH
  0002c	83 c2 04	 add	 edx, 4
  0002f	49		 dec	 ecx
  00030	75 f4		 jne	 SHORT $LL6@DECSTR
$LN4@DECSTR:
  00032	c1 e0 02	 shl	 eax, 2
  00035	eb 17		 jmp	 SHORT $LN14@DECSTR
$LL3@DECSTR:
  00037	8b c8		 mov	 ecx, eax
  00039	81 e1 03 00 00
	80		 and	 ecx, -2147483645	; 80000003H
  0003f	79 05		 jns	 SHORT $LN13@DECSTR
  00041	49		 dec	 ecx
  00042	83 c9 fc	 or	 ecx, -4			; fffffffcH
  00045	41		 inc	 ecx
$LN13@DECSTR:
  00046	b2 ed		 mov	 dl, -19			; ffffffedH
  00048	2a d1		 sub	 dl, cl
  0004a	30 14 30	 xor	 BYTE PTR [eax+esi], dl
  0004d	40		 inc	 eax
$LN14@DECSTR:
  0004e	3b c7		 cmp	 eax, edi
  00050	7c e5		 jl	 SHORT $LL3@DECSTR
  00052	5f		 pop	 edi
  00053	5e		 pop	 esi
  00054	5d		 pop	 ebp
  00055	c3		 ret	 0
?_DECSTR@@YAXPADH@Z ENDP				; _DECSTR
_TEXT	ENDS
PUBLIC	?GetGroup@ioGameEntity@@QBEPAVioEntityGroup@@XZ	; ioGameEntity::GetGroup
; Function compile flags: /Ogsp
; File d:\lost saga for developer\youtube\tutorial\source\src\lsclient\iogameentity.h
;	COMDAT ?GetGroup@ioGameEntity@@QBEPAVioEntityGroup@@XZ
_TEXT	SEGMENT
?GetGroup@ioGameEntity@@QBEPAVioEntityGroup@@XZ PROC	; ioGameEntity::GetGroup, COMDAT
; _this$ = ecx

; 166  : 	inline ioEntityGroup* GetGroup() const { return m_pGroup; }

  00000	8b 41 04	 mov	 eax, DWORD PTR [ecx+4]
  00003	c3		 ret	 0
?GetGroup@ioGameEntity@@QBEPAVioEntityGroup@@XZ ENDP	; ioGameEntity::GetGroup
_TEXT	ENDS
PUBLIC	??1WeaponInfo@@QAE@XZ				; WeaponInfo::~WeaponInfo
; Function compile flags: /Ogsp
;	COMDAT ??1WeaponInfo@@QAE@XZ
_TEXT	SEGMENT
??1WeaponInfo@@QAE@XZ PROC				; WeaponInfo::~WeaponInfo, COMDAT
; _this$ = ecx
  00000	83 c1 08	 add	 ecx, 8
  00003	ff 25 00 00 00
	00		 jmp	 DWORD PTR __imp_??1ioHashString@@QAE@XZ
??1WeaponInfo@@QAE@XZ ENDP				; WeaponInfo::~WeaponInfo
_TEXT	ENDS
PUBLIC	?GetHP@ioPlayEntity@@QAEAAUStatusValue@@XZ	; ioPlayEntity::GetHP
; Function compile flags: /Ogsp
; File d:\lost saga for developer\youtube\tutorial\source\src\lsclient\ioplayentity.h
;	COMDAT ?GetHP@ioPlayEntity@@QAEAAUStatusValue@@XZ
_TEXT	SEGMENT
?GetHP@ioPlayEntity@@QAEAAUStatusValue@@XZ PROC		; ioPlayEntity::GetHP, COMDAT
; _this$ = ecx

; 96   : 	inline StatusValue& GetHP() { return m_HP; }

  00000	8d 81 c0 00 00
	00		 lea	 eax, DWORD PTR [ecx+192]
  00006	c3		 ret	 0
?GetHP@ioPlayEntity@@QAEAAUStatusValue@@XZ ENDP		; ioPlayEntity::GetHP
_TEXT	ENDS
PUBLIC	??_R0?AVioItem@@@8				; ioItem `RTTI Type Descriptor'
PUBLIC	??_R0?AVioAttackableItem@@@8			; ioAttackableItem `RTTI Type Descriptor'
PUBLIC	?ToAttackableItem@@YAPAVioAttackableItem@@PAVioItem@@@Z ; ToAttackableItem
EXTRN	___RTDynamicCast:PROC
;	COMDAT ??_R0?AVioItem@@@8
; File d:\lost saga for developer\youtube\tutorial\source\src\lsclient\ioattackableitem.h
_DATA	SEGMENT
??_R0?AVioItem@@@8 DD FLAT:??_7type_info@@6B@		; ioItem `RTTI Type Descriptor'
	DD	00H
	DB	'.?AVioItem@@', 00H
_DATA	ENDS
;	COMDAT ??_R0?AVioAttackableItem@@@8
_DATA	SEGMENT
??_R0?AVioAttackableItem@@@8 DD FLAT:??_7type_info@@6B@	; ioAttackableItem `RTTI Type Descriptor'
	DD	00H
	DB	'.?AVioAttackableItem@@', 00H
; Function compile flags: /Ogsp
_DATA	ENDS
;	COMDAT ?ToAttackableItem@@YAPAVioAttackableItem@@PAVioItem@@@Z
_TEXT	SEGMENT
_pItem$ = 8						; size = 4
?ToAttackableItem@@YAPAVioAttackableItem@@PAVioItem@@@Z PROC ; ToAttackableItem, COMDAT

; 737  : {

  00000	55		 push	 ebp
  00001	8b ec		 mov	 ebp, esp
  00003	56		 push	 esi

; 738  : 	if( !pItem )	return NULL;

  00004	8b 75 08	 mov	 esi, DWORD PTR _pItem$[ebp]
  00007	85 f6		 test	 esi, esi
  00009	75 04		 jne	 SHORT $LN2@ToAttackab
$LN5@ToAttackab:
  0000b	33 c0		 xor	 eax, eax
  0000d	eb 2f		 jmp	 SHORT $LN3@ToAttackab
$LN2@ToAttackab:

; 739  : 	if( pItem->GetType() != ioItem::IT_WEAPON && pItem->GetType() != ioItem::IT_ARMOR )

  0000f	8b 06		 mov	 eax, DWORD PTR [esi]
  00011	8b ce		 mov	 ecx, esi
  00013	ff 50 08	 call	 DWORD PTR [eax+8]
  00016	83 f8 01	 cmp	 eax, 1
  00019	74 0c		 je	 SHORT $LN1@ToAttackab
  0001b	8b 06		 mov	 eax, DWORD PTR [esi]
  0001d	8b ce		 mov	 ecx, esi
  0001f	ff 50 08	 call	 DWORD PTR [eax+8]
  00022	83 f8 02	 cmp	 eax, 2

; 740  : 		return NULL;

  00025	75 e4		 jne	 SHORT $LN5@ToAttackab
$LN1@ToAttackab:

; 741  : 
; 742  : 	return dynamic_cast< ioAttackableItem* >( pItem );

  00027	6a 00		 push	 0
  00029	68 00 00 00 00	 push	 OFFSET ??_R0?AVioAttackableItem@@@8
  0002e	68 00 00 00 00	 push	 OFFSET ??_R0?AVioItem@@@8
  00033	6a 00		 push	 0
  00035	56		 push	 esi
  00036	e8 00 00 00 00	 call	 ___RTDynamicCast
  0003b	83 c4 14	 add	 esp, 20			; 00000014H
$LN3@ToAttackab:
  0003e	5e		 pop	 esi

; 743  : }

  0003f	5d		 pop	 ebp
  00040	c3		 ret	 0
?ToAttackableItem@@YAPAVioAttackableItem@@PAVioItem@@@Z ENDP ; ToAttackableItem
_TEXT	ENDS
PUBLIC	??_R0?AVioWeaponItem@@@8			; ioWeaponItem `RTTI Type Descriptor'
PUBLIC	?ToWeaponItem@@YAPAVioWeaponItem@@PAVioItem@@@Z	; ToWeaponItem
;	COMDAT ??_R0?AVioWeaponItem@@@8
; File d:\lost saga for developer\youtube\tutorial\source\src\lsclient\ioweaponitem.h
_DATA	SEGMENT
??_R0?AVioWeaponItem@@@8 DD FLAT:??_7type_info@@6B@	; ioWeaponItem `RTTI Type Descriptor'
	DD	00H
	DB	'.?AVioWeaponItem@@', 00H
; Function compile flags: /Ogsp
_DATA	ENDS
;	COMDAT ?ToWeaponItem@@YAPAVioWeaponItem@@PAVioItem@@@Z
_TEXT	SEGMENT
_pItem$ = 8						; size = 4
?ToWeaponItem@@YAPAVioWeaponItem@@PAVioItem@@@Z PROC	; ToWeaponItem, COMDAT

; 303  : {

  00000	55		 push	 ebp
  00001	8b ec		 mov	 ebp, esp
  00003	56		 push	 esi

; 304  : 	if( !pItem || pItem->GetType() != ioItem::IT_WEAPON )

  00004	8b 75 08	 mov	 esi, DWORD PTR _pItem$[ebp]
  00007	85 f6		 test	 esi, esi
  00009	74 25		 je	 SHORT $LN1@ToWeaponIt
  0000b	8b 06		 mov	 eax, DWORD PTR [esi]
  0000d	8b ce		 mov	 ecx, esi
  0000f	ff 50 08	 call	 DWORD PTR [eax+8]
  00012	83 f8 01	 cmp	 eax, 1
  00015	75 19		 jne	 SHORT $LN1@ToWeaponIt

; 306  : 
; 307  : 	return dynamic_cast< ioWeaponItem* >( pItem );

  00017	6a 00		 push	 0
  00019	68 00 00 00 00	 push	 OFFSET ??_R0?AVioWeaponItem@@@8
  0001e	68 00 00 00 00	 push	 OFFSET ??_R0?AVioItem@@@8
  00023	6a 00		 push	 0
  00025	56		 push	 esi
  00026	e8 00 00 00 00	 call	 ___RTDynamicCast
  0002b	83 c4 14	 add	 esp, 20			; 00000014H
  0002e	eb 02		 jmp	 SHORT $LN3@ToWeaponIt
$LN1@ToWeaponIt:

; 305  : 		return NULL;

  00030	33 c0		 xor	 eax, eax
$LN3@ToWeaponIt:
  00032	5e		 pop	 esi

; 308  : }

  00033	5d		 pop	 ebp
  00034	c3		 ret	 0
?ToWeaponItem@@YAPAVioWeaponItem@@PAVioItem@@@Z ENDP	; ToWeaponItem
_TEXT	ENDS
PUBLIC	??1?$_Vector_val@UWeaponInfo@@V?$allocator@UWeaponInfo@@@std@@@std@@QAE@XZ ; std::_Vector_val<WeaponInfo,std::allocator<WeaponInfo> >::~_Vector_val<WeaponInfo,std::allocator<WeaponInfo> >
; Function compile flags: /Ogsp
; File c:\program files (x86)\microsoft visual studio 10.0\vc\include\vector
;	COMDAT ??1?$_Vector_val@UWeaponInfo@@V?$allocator@UWeaponInfo@@@std@@@std@@QAE@XZ
_TEXT	SEGMENT
??1?$_Vector_val@UWeaponInfo@@V?$allocator@UWeaponInfo@@@std@@@std@@QAE@XZ PROC ; std::_Vector_val<WeaponInfo,std::allocator<WeaponInfo> >::~_Vector_val<WeaponInfo,std::allocator<WeaponInfo> >, COMDAT
; _this$ = ecx

; 434  : 		}

  00000	c3		 ret	 0
??1?$_Vector_val@UWeaponInfo@@V?$allocator@UWeaponInfo@@@std@@@std@@QAE@XZ ENDP ; std::_Vector_val<WeaponInfo,std::allocator<WeaponInfo> >::~_Vector_val<WeaponInfo,std::allocator<WeaponInfo> >
_TEXT	ENDS
PUBLIC	??0?$allocator@UWeaponInfo@@@std@@QAE@XZ	; std::allocator<WeaponInfo>::allocator<WeaponInfo>
; Function compile flags: /Ogsp
; File c:\program files (x86)\microsoft visual studio 10.0\vc\include\xmemory
;	COMDAT ??0?$allocator@UWeaponInfo@@@std@@QAE@XZ
_TEXT	SEGMENT
??0?$allocator@UWeaponInfo@@@std@@QAE@XZ PROC		; std::allocator<WeaponInfo>::allocator<WeaponInfo>, COMDAT
; _this$ = ecx

; 161  : 	_ALLOCATOR() _THROW0()

  00000	8b c1		 mov	 eax, ecx

; 162  : 		{	// construct default allocator (do nothing)
; 163  : 		}

  00002	c3		 ret	 0
??0?$allocator@UWeaponInfo@@@std@@QAE@XZ ENDP		; std::allocator<WeaponInfo>::allocator<WeaponInfo>
_TEXT	ENDS
PUBLIC	??1?$_Vector_val@UForceInfo@@V?$allocator@UForceInfo@@@std@@@std@@QAE@XZ ; std::_Vector_val<ForceInfo,std::allocator<ForceInfo> >::~_Vector_val<ForceInfo,std::allocator<ForceInfo> >
; Function compile flags: /Ogsp
; File c:\program files (x86)\microsoft visual studio 10.0\vc\include\vector
;	COMDAT ??1?$_Vector_val@UForceInfo@@V?$allocator@UForceInfo@@@std@@@std@@QAE@XZ
_TEXT	SEGMENT
??1?$_Vector_val@UForceInfo@@V?$allocator@UForceInfo@@@std@@@std@@QAE@XZ PROC ; std::_Vector_val<ForceInfo,std::allocator<ForceInfo> >::~_Vector_val<ForceInfo,std::allocator<ForceInfo> >, COMDAT
; _this$ = ecx

; 434  : 		}

  00000	c3		 ret	 0
??1?$_Vector_val@UForceInfo@@V?$allocator@UForceInfo@@@std@@@std@@QAE@XZ ENDP ; std::_Vector_val<ForceInfo,std::allocator<ForceInfo> >::~_Vector_val<ForceInfo,std::allocator<ForceInfo> >
_TEXT	ENDS
PUBLIC	??0?$allocator@UForceInfo@@@std@@QAE@XZ		; std::allocator<ForceInfo>::allocator<ForceInfo>
; Function compile flags: /Ogsp
; File c:\program files (x86)\microsoft visual studio 10.0\vc\include\xmemory
;	COMDAT ??0?$allocator@UForceInfo@@@std@@QAE@XZ
_TEXT	SEGMENT
??0?$allocator@UForceInfo@@@std@@QAE@XZ PROC		; std::allocator<ForceInfo>::allocator<ForceInfo>, COMDAT
; _this$ = ecx

; 161  : 	_ALLOCATOR() _THROW0()

  00000	8b c1		 mov	 eax, ecx

; 162  : 		{	// construct default allocator (do nothing)
; 163  : 		}

  00002	c3		 ret	 0
??0?$allocator@UForceInfo@@@std@@QAE@XZ ENDP		; std::allocator<ForceInfo>::allocator<ForceInfo>
_TEXT	ENDS
PUBLIC	?EncryptValueToPool@?$CEncrypt@M@@AAEXPBD@Z	; CEncrypt<float>::EncryptValueToPool
EXTRN	?EncryptByte@ccddaabb@@QAEXPBDPADH@Z:PROC	; ccddaabb::EncryptByte
; Function compile flags: /Ogsp
; File d:\lost saga for developer\youtube\tutorial\source\src\lsclient\encryptvalue.h
;	COMDAT ?EncryptValueToPool@?$CEncrypt@M@@AAEXPBD@Z
_TEXT	SEGMENT
_value$ = 8						; size = 4
?EncryptValueToPool@?$CEncrypt@M@@AAEXPBD@Z PROC	; CEncrypt<float>::EncryptValueToPool, COMDAT
; _this$ = ecx

; 67   : 	{

  00000	55		 push	 ebp
  00001	8b ec		 mov	 ebp, esp

; 68   : 		m_RC5.EncryptByte( value, m_MemPool, max(m_ValueSize, DEFAULT_ENCRYPT) );

  00003	0f b7 41 06	 movzx	 eax, WORD PTR [ecx+6]
  00007	83 f8 04	 cmp	 eax, 4
  0000a	77 03		 ja	 SHORT $LN4@EncryptVal
  0000c	6a 04		 push	 4
  0000e	58		 pop	 eax
$LN4@EncryptVal:
  0000f	50		 push	 eax
  00010	8d 41 1c	 lea	 eax, DWORD PTR [ecx+28]
  00013	50		 push	 eax
  00014	ff 75 08	 push	 DWORD PTR _value$[ebp]
  00017	83 c1 0c	 add	 ecx, 12			; 0000000cH
  0001a	e8 00 00 00 00	 call	 ?EncryptByte@ccddaabb@@QAEXPBDPADH@Z ; ccddaabb::EncryptByte

; 69   : 		
; 70   : 	}

  0001f	5d		 pop	 ebp
  00020	c2 04 00	 ret	 4
?EncryptValueToPool@?$CEncrypt@M@@AAEXPBD@Z ENDP	; CEncrypt<float>::EncryptValueToPool
_TEXT	ENDS
PUBLIC	??1?$_Vector_val@UAttackAttribute@@V?$allocator@UAttackAttribute@@@std@@@std@@QAE@XZ ; std::_Vector_val<AttackAttribute,std::allocator<AttackAttribute> >::~_Vector_val<AttackAttribute,std::allocator<AttackAttribute> >
; Function compile flags: /Ogsp
; File c:\program files (x86)\microsoft visual studio 10.0\vc\include\vector
;	COMDAT ??1?$_Vector_val@UAttackAttribute@@V?$allocator@UAttackAttribute@@@std@@@std@@QAE@XZ
_TEXT	SEGMENT
??1?$_Vector_val@UAttackAttribute@@V?$allocator@UAttackAttribute@@@std@@@std@@QAE@XZ PROC ; std::_Vector_val<AttackAttribute,std::allocator<AttackAttribute> >::~_Vector_val<AttackAttribute,std::allocator<AttackAttribute> >, COMDAT
; _this$ = ecx

; 434  : 		}

  00000	c3		 ret	 0
??1?$_Vector_val@UAttackAttribute@@V?$allocator@UAttackAttribute@@@std@@@std@@QAE@XZ ENDP ; std::_Vector_val<AttackAttribute,std::allocator<AttackAttribute> >::~_Vector_val<AttackAttribute,std::allocator<AttackAttribute> >
_TEXT	ENDS
PUBLIC	??0?$allocator@UAttackAttribute@@@std@@QAE@XZ	; std::allocator<AttackAttribute>::allocator<AttackAttribute>
; Function compile flags: /Ogsp
; File c:\program files (x86)\microsoft visual studio 10.0\vc\include\xmemory
;	COMDAT ??0?$allocator@UAttackAttribute@@@std@@QAE@XZ
_TEXT	SEGMENT
??0?$allocator@UAttackAttribute@@@std@@QAE@XZ PROC	; std::allocator<AttackAttribute>::allocator<AttackAttribute>, COMDAT
; _this$ = ecx

; 161  : 	_ALLOCATOR() _THROW0()

  00000	8b c1		 mov	 eax, ecx

; 162  : 		{	// construct default allocator (do nothing)
; 163  : 		}

  00002	c3		 ret	 0
??0?$allocator@UAttackAttribute@@@std@@QAE@XZ ENDP	; std::allocator<AttackAttribute>::allocator<AttackAttribute>
_TEXT	ENDS
PUBLIC	??0?$allocator@UWeaponInfo@@@std@@QAE@ABV01@@Z	; std::allocator<WeaponInfo>::allocator<WeaponInfo>
; Function compile flags: /Ogsp
;	COMDAT ??0?$allocator@UWeaponInfo@@@std@@QAE@ABV01@@Z
_TEXT	SEGMENT
___formal$ = 8						; size = 4
??0?$allocator@UWeaponInfo@@@std@@QAE@ABV01@@Z PROC	; std::allocator<WeaponInfo>::allocator<WeaponInfo>, COMDAT
; _this$ = ecx

; 165  : 	_ALLOCATOR(const _ALLOCATOR<_Ty>&) _THROW0()

  00000	8b c1		 mov	 eax, ecx

; 166  : 		{	// construct by copying (do nothing)
; 167  : 		}

  00002	c2 04 00	 ret	 4
??0?$allocator@UWeaponInfo@@@std@@QAE@ABV01@@Z ENDP	; std::allocator<WeaponInfo>::allocator<WeaponInfo>
_TEXT	ENDS
PUBLIC	?deallocate@?$allocator@UWeaponInfo@@@std@@QAEXPAUWeaponInfo@@I@Z ; std::allocator<WeaponInfo>::deallocate
; Function compile flags: /Ogsp
;	COMDAT ?deallocate@?$allocator@UWeaponInfo@@@std@@QAEXPAUWeaponInfo@@I@Z
_TEXT	SEGMENT
__Ptr$ = 8						; size = 4
___formal$ = 12						; size = 4
?deallocate@?$allocator@UWeaponInfo@@@std@@QAEXPAUWeaponInfo@@I@Z PROC ; std::allocator<WeaponInfo>::deallocate, COMDAT
; _this$ = ecx

; 181  : 		{	// deallocate object at _Ptr, ignore size

  00000	55		 push	 ebp
  00001	8b ec		 mov	 ebp, esp

; 182  : 		::operator delete(_Ptr);

  00003	ff 75 08	 push	 DWORD PTR __Ptr$[ebp]
  00006	e8 00 00 00 00	 call	 ??3@YAXPAX@Z		; operator delete
  0000b	59		 pop	 ecx

; 183  : 		}

  0000c	5d		 pop	 ebp
  0000d	c2 08 00	 ret	 8
?deallocate@?$allocator@UWeaponInfo@@@std@@QAEXPAUWeaponInfo@@I@Z ENDP ; std::allocator<WeaponInfo>::deallocate
_TEXT	ENDS
PUBLIC	??0?$allocator@UForceInfo@@@std@@QAE@ABV01@@Z	; std::allocator<ForceInfo>::allocator<ForceInfo>
; Function compile flags: /Ogsp
;	COMDAT ??0?$allocator@UForceInfo@@@std@@QAE@ABV01@@Z
_TEXT	SEGMENT
___formal$ = 8						; size = 4
??0?$allocator@UForceInfo@@@std@@QAE@ABV01@@Z PROC	; std::allocator<ForceInfo>::allocator<ForceInfo>, COMDAT
; _this$ = ecx

; 165  : 	_ALLOCATOR(const _ALLOCATOR<_Ty>&) _THROW0()

  00000	8b c1		 mov	 eax, ecx

; 166  : 		{	// construct by copying (do nothing)
; 167  : 		}

  00002	c2 04 00	 ret	 4
??0?$allocator@UForceInfo@@@std@@QAE@ABV01@@Z ENDP	; std::allocator<ForceInfo>::allocator<ForceInfo>
_TEXT	ENDS
PUBLIC	?deallocate@?$allocator@UForceInfo@@@std@@QAEXPAUForceInfo@@I@Z ; std::allocator<ForceInfo>::deallocate
; Function compile flags: /Ogsp
;	COMDAT ?deallocate@?$allocator@UForceInfo@@@std@@QAEXPAUForceInfo@@I@Z
_TEXT	SEGMENT
__Ptr$ = 8						; size = 4
___formal$ = 12						; size = 4
?deallocate@?$allocator@UForceInfo@@@std@@QAEXPAUForceInfo@@I@Z PROC ; std::allocator<ForceInfo>::deallocate, COMDAT
; _this$ = ecx

; 181  : 		{	// deallocate object at _Ptr, ignore size

  00000	55		 push	 ebp
  00001	8b ec		 mov	 ebp, esp

; 182  : 		::operator delete(_Ptr);

  00003	ff 75 08	 push	 DWORD PTR __Ptr$[ebp]
  00006	e8 00 00 00 00	 call	 ??3@YAXPAX@Z		; operator delete
  0000b	59		 pop	 ecx

; 183  : 		}

  0000c	5d		 pop	 ebp
  0000d	c2 08 00	 ret	 8
?deallocate@?$allocator@UForceInfo@@@std@@QAEXPAUForceInfo@@I@Z ENDP ; std::allocator<ForceInfo>::deallocate
_TEXT	ENDS
PUBLIC	??0?$allocator@UAttackAttribute@@@std@@QAE@ABV01@@Z ; std::allocator<AttackAttribute>::allocator<AttackAttribute>
; Function compile flags: /Ogsp
;	COMDAT ??0?$allocator@UAttackAttribute@@@std@@QAE@ABV01@@Z
_TEXT	SEGMENT
___formal$ = 8						; size = 4
??0?$allocator@UAttackAttribute@@@std@@QAE@ABV01@@Z PROC ; std::allocator<AttackAttribute>::allocator<AttackAttribute>, COMDAT
; _this$ = ecx

; 165  : 	_ALLOCATOR(const _ALLOCATOR<_Ty>&) _THROW0()

  00000	8b c1		 mov	 eax, ecx

; 166  : 		{	// construct by copying (do nothing)
; 167  : 		}

  00002	c2 04 00	 ret	 4
??0?$allocator@UAttackAttribute@@@std@@QAE@ABV01@@Z ENDP ; std::allocator<AttackAttribute>::allocator<AttackAttribute>
_TEXT	ENDS
PUBLIC	?deallocate@?$allocator@UAttackAttribute@@@std@@QAEXPAUAttackAttribute@@I@Z ; std::allocator<AttackAttribute>::deallocate
; Function compile flags: /Ogsp
;	COMDAT ?deallocate@?$allocator@UAttackAttribute@@@std@@QAEXPAUAttackAttribute@@I@Z
_TEXT	SEGMENT
__Ptr$ = 8						; size = 4
___formal$ = 12						; size = 4
?deallocate@?$allocator@UAttackAttribute@@@std@@QAEXPAUAttackAttribute@@I@Z PROC ; std::allocator<AttackAttribute>::deallocate, COMDAT
; _this$ = ecx

; 181  : 		{	// deallocate object at _Ptr, ignore size

  00000	55		 push	 ebp
  00001	8b ec		 mov	 ebp, esp

; 182  : 		::operator delete(_Ptr);

  00003	ff 75 08	 push	 DWORD PTR __Ptr$[ebp]
  00006	e8 00 00 00 00	 call	 ??3@YAXPAX@Z		; operator delete
  0000b	59		 pop	 ecx

; 183  : 		}

  0000c	5d		 pop	 ebp
  0000d	c2 08 00	 ret	 8
?deallocate@?$allocator@UAttackAttribute@@@std@@QAEXPAUAttackAttribute@@I@Z ENDP ; std::allocator<AttackAttribute>::deallocate
_TEXT	ENDS
PUBLIC	??0?$_Vector_const_iterator@V?$_Vector_val@UAttackAttribute@@V?$allocator@UAttackAttribute@@@std@@@std@@@std@@QAE@PAUAttackAttribute@@PBU_Container_base0@1@@Z ; std::_Vector_const_iterator<std::_Vector_val<AttackAttribute,std::allocator<AttackAttribute> > >::_Vector_const_iterator<std::_Vector_val<AttackAttribute,std::allocator<AttackAttribute> > >
; Function compile flags: /Ogsp
; File c:\program files (x86)\microsoft visual studio 10.0\vc\include\vector
;	COMDAT ??0?$_Vector_const_iterator@V?$_Vector_val@UAttackAttribute@@V?$allocator@UAttackAttribute@@@std@@@std@@@std@@QAE@PAUAttackAttribute@@PBU_Container_base0@1@@Z
_TEXT	SEGMENT
__Parg$ = 8						; size = 4
__Pvector$ = 12						; size = 4
??0?$_Vector_const_iterator@V?$_Vector_val@UAttackAttribute@@V?$allocator@UAttackAttribute@@@std@@@std@@@std@@QAE@PAUAttackAttribute@@PBU_Container_base0@1@@Z PROC ; std::_Vector_const_iterator<std::_Vector_val<AttackAttribute,std::allocator<AttackAttribute> > >::_Vector_const_iterator<std::_Vector_val<AttackAttribute,std::allocator<AttackAttribute> > >, COMDAT
; _this$ = ecx

; 45   : 		{	// construct with pointer _Parg

  00000	55		 push	 ebp
  00001	8b ec		 mov	 ebp, esp
  00003	8b c1		 mov	 eax, ecx
  00005	8b 4d 08	 mov	 ecx, DWORD PTR __Parg$[ebp]
  00008	89 08		 mov	 DWORD PTR [eax], ecx

; 46   : 		this->_Adopt(_Pvector);
; 47   : 		}

  0000a	5d		 pop	 ebp
  0000b	c2 08 00	 ret	 8
??0?$_Vector_const_iterator@V?$_Vector_val@UAttackAttribute@@V?$allocator@UAttackAttribute@@@std@@@std@@@std@@QAE@PAUAttackAttribute@@PBU_Container_base0@1@@Z ENDP ; std::_Vector_const_iterator<std::_Vector_val<AttackAttribute,std::allocator<AttackAttribute> > >::_Vector_const_iterator<std::_Vector_val<AttackAttribute,std::allocator<AttackAttribute> > >
_TEXT	ENDS
PUBLIC	?_Compat@?$_Vector_const_iterator@V?$_Vector_val@UAttackAttribute@@V?$allocator@UAttackAttribute@@@std@@@std@@@std@@QBEXABV12@@Z ; std::_Vector_const_iterator<std::_Vector_val<AttackAttribute,std::allocator<AttackAttribute> > >::_Compat
; Function compile flags: /Ogsp
;	COMDAT ?_Compat@?$_Vector_const_iterator@V?$_Vector_val@UAttackAttribute@@V?$allocator@UAttackAttribute@@@std@@@std@@@std@@QBEXABV12@@Z
_TEXT	SEGMENT
___formal$ = 8						; size = 4
?_Compat@?$_Vector_const_iterator@V?$_Vector_val@UAttackAttribute@@V?$allocator@UAttackAttribute@@@std@@@std@@@std@@QBEXABV12@@Z PROC ; std::_Vector_const_iterator<std::_Vector_val<AttackAttribute,std::allocator<AttackAttribute> > >::_Compat, COMDAT
; _this$ = ecx

; 253  : 		}

  00000	c2 04 00	 ret	 4
?_Compat@?$_Vector_const_iterator@V?$_Vector_val@UAttackAttribute@@V?$allocator@UAttackAttribute@@@std@@@std@@@std@@QBEXABV12@@Z ENDP ; std::_Vector_const_iterator<std::_Vector_val<AttackAttribute,std::allocator<AttackAttribute> > >::_Compat
_TEXT	ENDS
EXTRN	__imp_??0exception@std@@QAE@ABV01@@Z:PROC
; Function compile flags: /Ogsp
;	COMDAT ??0bad_alloc@std@@QAE@ABV01@@Z
_TEXT	SEGMENT
___that$ = 8						; size = 4
??0bad_alloc@std@@QAE@ABV01@@Z PROC			; std::bad_alloc::bad_alloc, COMDAT
; _this$ = ecx
  00000	55		 push	 ebp
  00001	8b ec		 mov	 ebp, esp
  00003	56		 push	 esi
  00004	ff 75 08	 push	 DWORD PTR ___that$[ebp]
  00007	8b f1		 mov	 esi, ecx
  00009	ff 15 00 00 00
	00		 call	 DWORD PTR __imp_??0exception@std@@QAE@ABV01@@Z
  0000f	c7 06 00 00 00
	00		 mov	 DWORD PTR [esi], OFFSET ??_7bad_alloc@std@@6B@
  00015	8b c6		 mov	 eax, esi
  00017	5e		 pop	 esi
  00018	5d		 pop	 ebp
  00019	c2 04 00	 ret	 4
??0bad_alloc@std@@QAE@ABV01@@Z ENDP			; std::bad_alloc::bad_alloc
_TEXT	ENDS
PUBLIC	??$_Ptr_cat@UAttackAttribute@@U1@@std@@YA?AU_Nonscalar_ptr_iterator_tag@0@PAUAttackAttribute@@0@Z ; std::_Ptr_cat<AttackAttribute,AttackAttribute>
; Function compile flags: /Ogsp
; File c:\program files (x86)\microsoft visual studio 10.0\vc\include\xutility
;	COMDAT ??$_Ptr_cat@UAttackAttribute@@U1@@std@@YA?AU_Nonscalar_ptr_iterator_tag@0@PAUAttackAttribute@@0@Z
_TEXT	SEGMENT
__Cat$ = -1						; size = 1
___formal$ = 8						; size = 4
___formal$ = 12						; size = 4
??$_Ptr_cat@UAttackAttribute@@U1@@std@@YA?AU_Nonscalar_ptr_iterator_tag@0@PAUAttackAttribute@@0@Z PROC ; std::_Ptr_cat<AttackAttribute,AttackAttribute>, COMDAT

; 516  : 	{	// return pointer category from pointers

  00000	55		 push	 ebp
  00001	8b ec		 mov	 ebp, esp
  00003	51		 push	 ecx

; 517  : 	typename _Ptr_cat_helper<_Elem1, _Elem2>::_Type _Cat;
; 518  : 	return (_Cat);

  00004	8a 45 ff	 mov	 al, BYTE PTR __Cat$[ebp]

; 519  : 	}

  00007	c9		 leave
  00008	c3		 ret	 0
??$_Ptr_cat@UAttackAttribute@@U1@@std@@YA?AU_Nonscalar_ptr_iterator_tag@0@PAUAttackAttribute@@0@Z ENDP ; std::_Ptr_cat<AttackAttribute,AttackAttribute>
_TEXT	ENDS
PUBLIC	??$_Ptr_cat@UWeaponInfo@@U1@@std@@YA?AU_Nonscalar_ptr_iterator_tag@0@PAUWeaponInfo@@0@Z ; std::_Ptr_cat<WeaponInfo,WeaponInfo>
; Function compile flags: /Ogsp
;	COMDAT ??$_Ptr_cat@UWeaponInfo@@U1@@std@@YA?AU_Nonscalar_ptr_iterator_tag@0@PAUWeaponInfo@@0@Z
_TEXT	SEGMENT
__Cat$ = -1						; size = 1
___formal$ = 8						; size = 4
___formal$ = 12						; size = 4
??$_Ptr_cat@UWeaponInfo@@U1@@std@@YA?AU_Nonscalar_ptr_iterator_tag@0@PAUWeaponInfo@@0@Z PROC ; std::_Ptr_cat<WeaponInfo,WeaponInfo>, COMDAT

; 516  : 	{	// return pointer category from pointers

  00000	55		 push	 ebp
  00001	8b ec		 mov	 ebp, esp
  00003	51		 push	 ecx

; 517  : 	typename _Ptr_cat_helper<_Elem1, _Elem2>::_Type _Cat;
; 518  : 	return (_Cat);

  00004	8a 45 ff	 mov	 al, BYTE PTR __Cat$[ebp]

; 519  : 	}

  00007	c9		 leave
  00008	c3		 ret	 0
??$_Ptr_cat@UWeaponInfo@@U1@@std@@YA?AU_Nonscalar_ptr_iterator_tag@0@PAUWeaponInfo@@0@Z ENDP ; std::_Ptr_cat<WeaponInfo,WeaponInfo>
_TEXT	ENDS
PUBLIC	??$_Ptr_cat@UForceInfo@@U1@@std@@YA?AU_Nonscalar_ptr_iterator_tag@0@PAUForceInfo@@0@Z ; std::_Ptr_cat<ForceInfo,ForceInfo>
; Function compile flags: /Ogsp
;	COMDAT ??$_Ptr_cat@UForceInfo@@U1@@std@@YA?AU_Nonscalar_ptr_iterator_tag@0@PAUForceInfo@@0@Z
_TEXT	SEGMENT
__Cat$ = -1						; size = 1
___formal$ = 8						; size = 4
___formal$ = 12						; size = 4
??$_Ptr_cat@UForceInfo@@U1@@std@@YA?AU_Nonscalar_ptr_iterator_tag@0@PAUForceInfo@@0@Z PROC ; std::_Ptr_cat<ForceInfo,ForceInfo>, COMDAT

; 516  : 	{	// return pointer category from pointers

  00000	55		 push	 ebp
  00001	8b ec		 mov	 ebp, esp
  00003	51		 push	 ecx

; 517  : 	typename _Ptr_cat_helper<_Elem1, _Elem2>::_Type _Cat;
; 518  : 	return (_Cat);

  00004	8a 45 ff	 mov	 al, BYTE PTR __Cat$[ebp]

; 519  : 	}

  00007	c9		 leave
  00008	c3		 ret	 0
??$_Ptr_cat@UForceInfo@@U1@@std@@YA?AU_Nonscalar_ptr_iterator_tag@0@PAUForceInfo@@0@Z ENDP ; std::_Ptr_cat<ForceInfo,ForceInfo>
_TEXT	ENDS
PUBLIC	?capacity@?$vector@UWeaponInfo@@V?$allocator@UWeaponInfo@@@std@@@std@@QBEIXZ ; std::vector<WeaponInfo,std::allocator<WeaponInfo> >::capacity
; Function compile flags: /Ogsp
; File c:\program files (x86)\microsoft visual studio 10.0\vc\include\vector
;	COMDAT ?capacity@?$vector@UWeaponInfo@@V?$allocator@UWeaponInfo@@@std@@@std@@QBEIXZ
_TEXT	SEGMENT
?capacity@?$vector@UWeaponInfo@@V?$allocator@UWeaponInfo@@@std@@@std@@QBEIXZ PROC ; std::vector<WeaponInfo,std::allocator<WeaponInfo> >::capacity, COMDAT
; _this$ = ecx

; 777  : 		return (this->_Myend - this->_Myfirst);

  00000	8b 41 08	 mov	 eax, DWORD PTR [ecx+8]
  00003	2b 01		 sub	 eax, DWORD PTR [ecx]
  00005	6a 28		 push	 40			; 00000028H
  00007	99		 cdq
  00008	59		 pop	 ecx
  00009	f7 f9		 idiv	 ecx

; 778  : 		}

  0000b	c3		 ret	 0
?capacity@?$vector@UWeaponInfo@@V?$allocator@UWeaponInfo@@@std@@@std@@QBEIXZ ENDP ; std::vector<WeaponInfo,std::allocator<WeaponInfo> >::capacity
_TEXT	ENDS
PUBLIC	?size@?$vector@UWeaponInfo@@V?$allocator@UWeaponInfo@@@std@@@std@@QBEIXZ ; std::vector<WeaponInfo,std::allocator<WeaponInfo> >::size
; Function compile flags: /Ogsp
;	COMDAT ?size@?$vector@UWeaponInfo@@V?$allocator@UWeaponInfo@@@std@@@std@@QBEIXZ
_TEXT	SEGMENT
?size@?$vector@UWeaponInfo@@V?$allocator@UWeaponInfo@@@std@@@std@@QBEIXZ PROC ; std::vector<WeaponInfo,std::allocator<WeaponInfo> >::size, COMDAT
; _this$ = ecx

; 879  : 		return (this->_Mylast - this->_Myfirst);

  00000	8b 41 04	 mov	 eax, DWORD PTR [ecx+4]
  00003	2b 01		 sub	 eax, DWORD PTR [ecx]
  00005	6a 28		 push	 40			; 00000028H
  00007	99		 cdq
  00008	59		 pop	 ecx
  00009	f7 f9		 idiv	 ecx

; 880  : 		}

  0000b	c3		 ret	 0
?size@?$vector@UWeaponInfo@@V?$allocator@UWeaponInfo@@@std@@@std@@QBEIXZ ENDP ; std::vector<WeaponInfo,std::allocator<WeaponInfo> >::size
_TEXT	ENDS
PUBLIC	?capacity@?$vector@UForceInfo@@V?$allocator@UForceInfo@@@std@@@std@@QBEIXZ ; std::vector<ForceInfo,std::allocator<ForceInfo> >::capacity
; Function compile flags: /Ogsp
;	COMDAT ?capacity@?$vector@UForceInfo@@V?$allocator@UForceInfo@@@std@@@std@@QBEIXZ
_TEXT	SEGMENT
?capacity@?$vector@UForceInfo@@V?$allocator@UForceInfo@@@std@@@std@@QBEIXZ PROC ; std::vector<ForceInfo,std::allocator<ForceInfo> >::capacity, COMDAT
; _this$ = ecx

; 777  : 		return (this->_Myend - this->_Myfirst);

  00000	8b 41 08	 mov	 eax, DWORD PTR [ecx+8]
  00003	2b 01		 sub	 eax, DWORD PTR [ecx]
  00005	6a 0c		 push	 12			; 0000000cH
  00007	99		 cdq
  00008	59		 pop	 ecx
  00009	f7 f9		 idiv	 ecx

; 778  : 		}

  0000b	c3		 ret	 0
?capacity@?$vector@UForceInfo@@V?$allocator@UForceInfo@@@std@@@std@@QBEIXZ ENDP ; std::vector<ForceInfo,std::allocator<ForceInfo> >::capacity
_TEXT	ENDS
PUBLIC	?size@?$vector@UForceInfo@@V?$allocator@UForceInfo@@@std@@@std@@QBEIXZ ; std::vector<ForceInfo,std::allocator<ForceInfo> >::size
; Function compile flags: /Ogsp
;	COMDAT ?size@?$vector@UForceInfo@@V?$allocator@UForceInfo@@@std@@@std@@QBEIXZ
_TEXT	SEGMENT
?size@?$vector@UForceInfo@@V?$allocator@UForceInfo@@@std@@@std@@QBEIXZ PROC ; std::vector<ForceInfo,std::allocator<ForceInfo> >::size, COMDAT
; _this$ = ecx

; 879  : 		return (this->_Mylast - this->_Myfirst);

  00000	8b 41 04	 mov	 eax, DWORD PTR [ecx+4]
  00003	2b 01		 sub	 eax, DWORD PTR [ecx]
  00005	6a 0c		 push	 12			; 0000000cH
  00007	99		 cdq
  00008	59		 pop	 ecx
  00009	f7 f9		 idiv	 ecx

; 880  : 		}

  0000b	c3		 ret	 0
?size@?$vector@UForceInfo@@V?$allocator@UForceInfo@@@std@@@std@@QBEIXZ ENDP ; std::vector<ForceInfo,std::allocator<ForceInfo> >::size
_TEXT	ENDS
PUBLIC	?_Xlen@?$vector@UWeaponInfo@@V?$allocator@UWeaponInfo@@@std@@@std@@IBEXXZ ; std::vector<WeaponInfo,std::allocator<WeaponInfo> >::_Xlen
; Function compile flags: /Ogsp
;	COMDAT ?_Xlen@?$vector@UWeaponInfo@@V?$allocator@UWeaponInfo@@@std@@@std@@IBEXXZ
_TEXT	SEGMENT
?_Xlen@?$vector@UWeaponInfo@@V?$allocator@UWeaponInfo@@@std@@@std@@IBEXXZ PROC ; std::vector<WeaponInfo,std::allocator<WeaponInfo> >::_Xlen, COMDAT
; _this$ = ecx

; 1427 : 		_Xlength_error("vector<T> too long");

  00000	68 00 00 00 00	 push	 OFFSET ??_C@_0BD@OLBABOEK@vector?$DMT?$DO?5too?5long?$AA@
  00005	ff 15 00 00 00
	00		 call	 DWORD PTR __imp_?_Xlength_error@std@@YAXPBD@Z
$LN4@Xlen@3:
$LN3@Xlen@3:
  0000b	cc		 int	 3
?_Xlen@?$vector@UWeaponInfo@@V?$allocator@UWeaponInfo@@@std@@@std@@IBEXXZ ENDP ; std::vector<WeaponInfo,std::allocator<WeaponInfo> >::_Xlen
_TEXT	ENDS
PUBLIC	?_Xlen@?$vector@UForceInfo@@V?$allocator@UForceInfo@@@std@@@std@@IBEXXZ ; std::vector<ForceInfo,std::allocator<ForceInfo> >::_Xlen
; Function compile flags: /Ogsp
;	COMDAT ?_Xlen@?$vector@UForceInfo@@V?$allocator@UForceInfo@@@std@@@std@@IBEXXZ
_TEXT	SEGMENT
?_Xlen@?$vector@UForceInfo@@V?$allocator@UForceInfo@@@std@@@std@@IBEXXZ PROC ; std::vector<ForceInfo,std::allocator<ForceInfo> >::_Xlen, COMDAT
; _this$ = ecx

; 1427 : 		_Xlength_error("vector<T> too long");

  00000	68 00 00 00 00	 push	 OFFSET ??_C@_0BD@OLBABOEK@vector?$DMT?$DO?5too?5long?$AA@
  00005	ff 15 00 00 00
	00		 call	 DWORD PTR __imp_?_Xlength_error@std@@YAXPBD@Z
$LN4@Xlen@4:
$LN3@Xlen@4:
  0000b	cc		 int	 3
?_Xlen@?$vector@UForceInfo@@V?$allocator@UForceInfo@@@std@@@std@@IBEXXZ ENDP ; std::vector<ForceInfo,std::allocator<ForceInfo> >::_Xlen
_TEXT	ENDS
PUBLIC	?max_size@?$allocator@UWeaponInfo@@@std@@QBEIXZ	; std::allocator<WeaponInfo>::max_size
; Function compile flags: /Ogsp
; File c:\program files (x86)\microsoft visual studio 10.0\vc\include\xmemory
;	COMDAT ?max_size@?$allocator@UWeaponInfo@@@std@@QBEIXZ
_TEXT	SEGMENT
?max_size@?$allocator@UWeaponInfo@@@std@@QBEIXZ PROC	; std::allocator<WeaponInfo>::max_size, COMDAT
; _this$ = ecx

; 218  : 		_SIZT _Count = (_SIZT)(-1) / sizeof (_Ty);
; 219  : 		return (0 < _Count ? _Count : 1);

  00000	b8 66 66 66 06	 mov	 eax, 107374182		; 06666666H

; 220  : 		}

  00005	c3		 ret	 0
?max_size@?$allocator@UWeaponInfo@@@std@@QBEIXZ ENDP	; std::allocator<WeaponInfo>::max_size
_TEXT	ENDS
PUBLIC	?max_size@?$allocator@UForceInfo@@@std@@QBEIXZ	; std::allocator<ForceInfo>::max_size
; Function compile flags: /Ogsp
;	COMDAT ?max_size@?$allocator@UForceInfo@@@std@@QBEIXZ
_TEXT	SEGMENT
?max_size@?$allocator@UForceInfo@@@std@@QBEIXZ PROC	; std::allocator<ForceInfo>::max_size, COMDAT
; _this$ = ecx

; 218  : 		_SIZT _Count = (_SIZT)(-1) / sizeof (_Ty);
; 219  : 		return (0 < _Count ? _Count : 1);

  00000	b8 55 55 55 15	 mov	 eax, 357913941		; 15555555H

; 220  : 		}

  00005	c3		 ret	 0
?max_size@?$allocator@UForceInfo@@@std@@QBEIXZ ENDP	; std::allocator<ForceInfo>::max_size
_TEXT	ENDS
PUBLIC	??0?$_Vector_const_iterator@V?$_Vector_val@UWeaponInfo@@V?$allocator@UWeaponInfo@@@std@@@std@@@std@@QAE@PAUWeaponInfo@@PBU_Container_base0@1@@Z ; std::_Vector_const_iterator<std::_Vector_val<WeaponInfo,std::allocator<WeaponInfo> > >::_Vector_const_iterator<std::_Vector_val<WeaponInfo,std::allocator<WeaponInfo> > >
; Function compile flags: /Ogsp
; File c:\program files (x86)\microsoft visual studio 10.0\vc\include\vector
;	COMDAT ??0?$_Vector_const_iterator@V?$_Vector_val@UWeaponInfo@@V?$allocator@UWeaponInfo@@@std@@@std@@@std@@QAE@PAUWeaponInfo@@PBU_Container_base0@1@@Z
_TEXT	SEGMENT
__Parg$ = 8						; size = 4
__Pvector$ = 12						; size = 4
??0?$_Vector_const_iterator@V?$_Vector_val@UWeaponInfo@@V?$allocator@UWeaponInfo@@@std@@@std@@@std@@QAE@PAUWeaponInfo@@PBU_Container_base0@1@@Z PROC ; std::_Vector_const_iterator<std::_Vector_val<WeaponInfo,std::allocator<WeaponInfo> > >::_Vector_const_iterator<std::_Vector_val<WeaponInfo,std::allocator<WeaponInfo> > >, COMDAT
; _this$ = ecx

; 45   : 		{	// construct with pointer _Parg

  00000	55		 push	 ebp
  00001	8b ec		 mov	 ebp, esp
  00003	8b c1		 mov	 eax, ecx
  00005	8b 4d 08	 mov	 ecx, DWORD PTR __Parg$[ebp]
  00008	89 08		 mov	 DWORD PTR [eax], ecx

; 46   : 		this->_Adopt(_Pvector);
; 47   : 		}

  0000a	5d		 pop	 ebp
  0000b	c2 08 00	 ret	 8
??0?$_Vector_const_iterator@V?$_Vector_val@UWeaponInfo@@V?$allocator@UWeaponInfo@@@std@@@std@@@std@@QAE@PAUWeaponInfo@@PBU_Container_base0@1@@Z ENDP ; std::_Vector_const_iterator<std::_Vector_val<WeaponInfo,std::allocator<WeaponInfo> > >::_Vector_const_iterator<std::_Vector_val<WeaponInfo,std::allocator<WeaponInfo> > >
_TEXT	ENDS
PUBLIC	??0?$_Vector_const_iterator@V?$_Vector_val@UForceInfo@@V?$allocator@UForceInfo@@@std@@@std@@@std@@QAE@PAUForceInfo@@PBU_Container_base0@1@@Z ; std::_Vector_const_iterator<std::_Vector_val<ForceInfo,std::allocator<ForceInfo> > >::_Vector_const_iterator<std::_Vector_val<ForceInfo,std::allocator<ForceInfo> > >
; Function compile flags: /Ogsp
;	COMDAT ??0?$_Vector_const_iterator@V?$_Vector_val@UForceInfo@@V?$allocator@UForceInfo@@@std@@@std@@@std@@QAE@PAUForceInfo@@PBU_Container_base0@1@@Z
_TEXT	SEGMENT
__Parg$ = 8						; size = 4
__Pvector$ = 12						; size = 4
??0?$_Vector_const_iterator@V?$_Vector_val@UForceInfo@@V?$allocator@UForceInfo@@@std@@@std@@@std@@QAE@PAUForceInfo@@PBU_Container_base0@1@@Z PROC ; std::_Vector_const_iterator<std::_Vector_val<ForceInfo,std::allocator<ForceInfo> > >::_Vector_const_iterator<std::_Vector_val<ForceInfo,std::allocator<ForceInfo> > >, COMDAT
; _this$ = ecx

; 45   : 		{	// construct with pointer _Parg

  00000	55		 push	 ebp
  00001	8b ec		 mov	 ebp, esp
  00003	8b c1		 mov	 eax, ecx
  00005	8b 4d 08	 mov	 ecx, DWORD PTR __Parg$[ebp]
  00008	89 08		 mov	 DWORD PTR [eax], ecx

; 46   : 		this->_Adopt(_Pvector);
; 47   : 		}

  0000a	5d		 pop	 ebp
  0000b	c2 08 00	 ret	 8
??0?$_Vector_const_iterator@V?$_Vector_val@UForceInfo@@V?$allocator@UForceInfo@@@std@@@std@@@std@@QAE@PAUForceInfo@@PBU_Container_base0@1@@Z ENDP ; std::_Vector_const_iterator<std::_Vector_val<ForceInfo,std::allocator<ForceInfo> > >::_Vector_const_iterator<std::_Vector_val<ForceInfo,std::allocator<ForceInfo> > >
_TEXT	ENDS
PUBLIC	?_Compat@?$_Vector_const_iterator@V?$_Vector_val@UWeaponInfo@@V?$allocator@UWeaponInfo@@@std@@@std@@@std@@QBEXABV12@@Z ; std::_Vector_const_iterator<std::_Vector_val<WeaponInfo,std::allocator<WeaponInfo> > >::_Compat
; Function compile flags: /Ogsp
;	COMDAT ?_Compat@?$_Vector_const_iterator@V?$_Vector_val@UWeaponInfo@@V?$allocator@UWeaponInfo@@@std@@@std@@@std@@QBEXABV12@@Z
_TEXT	SEGMENT
___formal$ = 8						; size = 4
?_Compat@?$_Vector_const_iterator@V?$_Vector_val@UWeaponInfo@@V?$allocator@UWeaponInfo@@@std@@@std@@@std@@QBEXABV12@@Z PROC ; std::_Vector_const_iterator<std::_Vector_val<WeaponInfo,std::allocator<WeaponInfo> > >::_Compat, COMDAT
; _this$ = ecx

; 253  : 		}

  00000	c2 04 00	 ret	 4
?_Compat@?$_Vector_const_iterator@V?$_Vector_val@UWeaponInfo@@V?$allocator@UWeaponInfo@@@std@@@std@@@std@@QBEXABV12@@Z ENDP ; std::_Vector_const_iterator<std::_Vector_val<WeaponInfo,std::allocator<WeaponInfo> > >::_Compat
_TEXT	ENDS
PUBLIC	?_Compat@?$_Vector_const_iterator@V?$_Vector_val@UForceInfo@@V?$allocator@UForceInfo@@@std@@@std@@@std@@QBEXABV12@@Z ; std::_Vector_const_iterator<std::_Vector_val<ForceInfo,std::allocator<ForceInfo> > >::_Compat
; Function compile flags: /Ogsp
;	COMDAT ?_Compat@?$_Vector_const_iterator@V?$_Vector_val@UForceInfo@@V?$allocator@UForceInfo@@@std@@@std@@@std@@QBEXABV12@@Z
_TEXT	SEGMENT
___formal$ = 8						; size = 4
?_Compat@?$_Vector_const_iterator@V?$_Vector_val@UForceInfo@@V?$allocator@UForceInfo@@@std@@@std@@@std@@QBEXABV12@@Z PROC ; std::_Vector_const_iterator<std::_Vector_val<ForceInfo,std::allocator<ForceInfo> > >::_Compat, COMDAT
; _this$ = ecx

; 253  : 		}

  00000	c2 04 00	 ret	 4
?_Compat@?$_Vector_const_iterator@V?$_Vector_val@UForceInfo@@V?$allocator@UForceInfo@@@std@@@std@@@std@@QBEXABV12@@Z ENDP ; std::_Vector_const_iterator<std::_Vector_val<ForceInfo,std::allocator<ForceInfo> > >::_Compat
_TEXT	ENDS
PUBLIC	??$move@AAUAttackAttribute@@@std@@YA$$QAUAttackAttribute@@AAU1@@Z ; std::move<AttackAttribute &>
; Function compile flags: /Ogsp
; File c:\program files (x86)\microsoft visual studio 10.0\vc\include\utility
;	COMDAT ??$move@AAUAttackAttribute@@@std@@YA$$QAUAttackAttribute@@AAU1@@Z
_TEXT	SEGMENT
__Arg$ = 8						; size = 4
??$move@AAUAttackAttribute@@@std@@YA$$QAUAttackAttribute@@AAU1@@Z PROC ; std::move<AttackAttribute &>, COMDAT

; 86   : 	{	// forward _Arg as movable

  00000	55		 push	 ebp
  00001	8b ec		 mov	 ebp, esp

; 87   : 	return ((typename tr1::_Remove_reference<_Ty>::_Type&&)_Arg);

  00003	8b 45 08	 mov	 eax, DWORD PTR __Arg$[ebp]

; 88   : 	}

  00006	5d		 pop	 ebp
  00007	c3		 ret	 0
??$move@AAUAttackAttribute@@@std@@YA$$QAUAttackAttribute@@AAU1@@Z ENDP ; std::move<AttackAttribute &>
_TEXT	ENDS
PUBLIC	??$_Allocate@UWeaponInfo@@@std@@YAPAUWeaponInfo@@IPAU1@@Z ; std::_Allocate<WeaponInfo>
; Function compile flags: /Ogsp
; File c:\program files (x86)\microsoft visual studio 10.0\vc\include\xmemory
;	COMDAT ??$_Allocate@UWeaponInfo@@@std@@YAPAUWeaponInfo@@IPAU1@@Z
_TEXT	SEGMENT
$T538183 = -12						; size = 12
$T538187 = 8						; size = 4
__Count$ = 8						; size = 4
___formal$ = 12						; size = 4
??$_Allocate@UWeaponInfo@@@std@@YAPAUWeaponInfo@@IPAU1@@Z PROC ; std::_Allocate<WeaponInfo>, COMDAT

; 30   : 	{	// allocate storage for _Count elements of type _Ty

  00000	55		 push	 ebp
  00001	8b ec		 mov	 ebp, esp

; 31   : 	void *_Ptr = 0;
; 32   : 
; 33   : 	if (_Count <= 0)

  00003	8b 4d 08	 mov	 ecx, DWORD PTR __Count$[ebp]
  00006	83 ec 0c	 sub	 esp, 12			; 0000000cH
  00009	33 c0		 xor	 eax, eax
  0000b	85 c9		 test	 ecx, ecx

; 34   : 		_Count = 0;
; 35   : 	else if (((_SIZT)(-1) / sizeof (_Ty) < _Count)

  0000d	74 3c		 je	 SHORT $LN5@Allocate@3

; 36   : 		|| (_Ptr = ::operator new(_Count * sizeof (_Ty))) == 0)

  0000f	81 f9 66 66 66
	06		 cmp	 ecx, 107374182		; 06666666H
  00015	77 0e		 ja	 SHORT $LN1@Allocate@3
  00017	6b c9 28	 imul	 ecx, 40			; 00000028H
  0001a	51		 push	 ecx
  0001b	e8 00 00 00 00	 call	 ??2@YAPAXI@Z		; operator new
  00020	59		 pop	 ecx
  00021	85 c0		 test	 eax, eax

; 38   : 
; 39   : 	return ((_Ty _FARQ *)_Ptr);

  00023	75 26		 jne	 SHORT $LN5@Allocate@3
$LN1@Allocate@3:

; 37   : 		_THROW_NCEE(bad_alloc, 0);

  00025	83 65 08 00	 and	 DWORD PTR $T538187[ebp], 0
  00029	8d 45 08	 lea	 eax, DWORD PTR $T538187[ebp]
  0002c	50		 push	 eax
  0002d	8d 4d f4	 lea	 ecx, DWORD PTR $T538183[ebp]
  00030	ff 15 00 00 00
	00		 call	 DWORD PTR __imp_??0exception@std@@QAE@ABQBD@Z
  00036	68 00 00 00 00	 push	 OFFSET __TI2?AVbad_alloc@std@@
  0003b	8d 45 f4	 lea	 eax, DWORD PTR $T538183[ebp]
  0003e	50		 push	 eax
  0003f	c7 45 f4 00 00
	00 00		 mov	 DWORD PTR $T538183[ebp], OFFSET ??_7bad_alloc@std@@6B@
  00046	e8 00 00 00 00	 call	 __CxxThrowException@8
$LN10@Allocate@3:
$LN5@Allocate@3:

; 40   : 	}

  0004b	c9		 leave
  0004c	c3		 ret	 0
$LN9@Allocate@3:
??$_Allocate@UWeaponInfo@@@std@@YAPAUWeaponInfo@@IPAU1@@Z ENDP ; std::_Allocate<WeaponInfo>
_TEXT	ENDS
PUBLIC	??$_Allocate@UForceInfo@@@std@@YAPAUForceInfo@@IPAU1@@Z ; std::_Allocate<ForceInfo>
; Function compile flags: /Ogsp
;	COMDAT ??$_Allocate@UForceInfo@@@std@@YAPAUForceInfo@@IPAU1@@Z
_TEXT	SEGMENT
$T538192 = -12						; size = 12
$T538196 = 8						; size = 4
__Count$ = 8						; size = 4
___formal$ = 12						; size = 4
??$_Allocate@UForceInfo@@@std@@YAPAUForceInfo@@IPAU1@@Z PROC ; std::_Allocate<ForceInfo>, COMDAT

; 30   : 	{	// allocate storage for _Count elements of type _Ty

  00000	55		 push	 ebp
  00001	8b ec		 mov	 ebp, esp

; 31   : 	void *_Ptr = 0;
; 32   : 
; 33   : 	if (_Count <= 0)

  00003	8b 4d 08	 mov	 ecx, DWORD PTR __Count$[ebp]
  00006	83 ec 0c	 sub	 esp, 12			; 0000000cH
  00009	33 c0		 xor	 eax, eax
  0000b	85 c9		 test	 ecx, ecx

; 34   : 		_Count = 0;
; 35   : 	else if (((_SIZT)(-1) / sizeof (_Ty) < _Count)

  0000d	74 3c		 je	 SHORT $LN5@Allocate@4

; 36   : 		|| (_Ptr = ::operator new(_Count * sizeof (_Ty))) == 0)

  0000f	81 f9 55 55 55
	15		 cmp	 ecx, 357913941		; 15555555H
  00015	77 0e		 ja	 SHORT $LN1@Allocate@4
  00017	6b c9 0c	 imul	 ecx, 12			; 0000000cH
  0001a	51		 push	 ecx
  0001b	e8 00 00 00 00	 call	 ??2@YAPAXI@Z		; operator new
  00020	59		 pop	 ecx
  00021	85 c0		 test	 eax, eax

; 38   : 
; 39   : 	return ((_Ty _FARQ *)_Ptr);

  00023	75 26		 jne	 SHORT $LN5@Allocate@4
$LN1@Allocate@4:

; 37   : 		_THROW_NCEE(bad_alloc, 0);

  00025	83 65 08 00	 and	 DWORD PTR $T538196[ebp], 0
  00029	8d 45 08	 lea	 eax, DWORD PTR $T538196[ebp]
  0002c	50		 push	 eax
  0002d	8d 4d f4	 lea	 ecx, DWORD PTR $T538192[ebp]
  00030	ff 15 00 00 00
	00		 call	 DWORD PTR __imp_??0exception@std@@QAE@ABQBD@Z
  00036	68 00 00 00 00	 push	 OFFSET __TI2?AVbad_alloc@std@@
  0003b	8d 45 f4	 lea	 eax, DWORD PTR $T538192[ebp]
  0003e	50		 push	 eax
  0003f	c7 45 f4 00 00
	00 00		 mov	 DWORD PTR $T538192[ebp], OFFSET ??_7bad_alloc@std@@6B@
  00046	e8 00 00 00 00	 call	 __CxxThrowException@8
$LN10@Allocate@4:
$LN5@Allocate@4:

; 40   : 	}

  0004b	c9		 leave
  0004c	c3		 ret	 0
$LN9@Allocate@4:
??$_Allocate@UForceInfo@@@std@@YAPAUForceInfo@@IPAU1@@Z ENDP ; std::_Allocate<ForceInfo>
_TEXT	ENDS
PUBLIC	??$_Copy_impl@PAUForceInfo@@PAU1@@std@@YAPAUForceInfo@@PAU1@00U_Nonscalar_ptr_iterator_tag@0@@Z ; std::_Copy_impl<ForceInfo *,ForceInfo *>
; Function compile flags: /Ogsp
; File c:\program files (x86)\microsoft visual studio 10.0\vc\include\xutility
;	COMDAT ??$_Copy_impl@PAUForceInfo@@PAU1@@std@@YAPAUForceInfo@@PAU1@00U_Nonscalar_ptr_iterator_tag@0@@Z
_TEXT	SEGMENT
__First$ = 8						; size = 4
__Last$ = 12						; size = 4
__Dest$ = 16						; size = 4
___formal$ = 20						; size = 1
??$_Copy_impl@PAUForceInfo@@PAU1@@std@@YAPAUForceInfo@@PAU1@00U_Nonscalar_ptr_iterator_tag@0@@Z PROC ; std::_Copy_impl<ForceInfo *,ForceInfo *>, COMDAT

; 2142 : 	{	// copy [_First, _Last) to [_Dest, ...), arbitrary iterators

  00000	55		 push	 ebp
  00001	8b ec		 mov	 ebp, esp

; 2143 : 	for (; _First != _Last; ++_Dest, ++_First)

  00003	8b 45 08	 mov	 eax, DWORD PTR __First$[ebp]
  00006	3b 45 0c	 cmp	 eax, DWORD PTR __Last$[ebp]
  00009	74 18		 je	 SHORT $LN8@Copy_impl
  0000b	56		 push	 esi
  0000c	57		 push	 edi
$LL3@Copy_impl:

; 2144 : 		*_Dest = *_First;

  0000d	8b 7d 10	 mov	 edi, DWORD PTR __Dest$[ebp]
  00010	83 45 10 0c	 add	 DWORD PTR __Dest$[ebp], 12 ; 0000000cH
  00014	8b f0		 mov	 esi, eax
  00016	a5		 movsd
  00017	a5		 movsd
  00018	83 c0 0c	 add	 eax, 12			; 0000000cH
  0001b	a5		 movsd
  0001c	3b 45 0c	 cmp	 eax, DWORD PTR __Last$[ebp]
  0001f	75 ec		 jne	 SHORT $LL3@Copy_impl
  00021	5f		 pop	 edi
  00022	5e		 pop	 esi
$LN8@Copy_impl:

; 2145 : 	return (_Dest);

  00023	8b 45 10	 mov	 eax, DWORD PTR __Dest$[ebp]

; 2146 : 	}

  00026	5d		 pop	 ebp
  00027	c3		 ret	 0
??$_Copy_impl@PAUForceInfo@@PAU1@@std@@YAPAUForceInfo@@PAU1@00U_Nonscalar_ptr_iterator_tag@0@@Z ENDP ; std::_Copy_impl<ForceInfo *,ForceInfo *>
_TEXT	ENDS
PUBLIC	??$_Destroy@UForceInfo@@@std@@YAXPAUForceInfo@@@Z ; std::_Destroy<ForceInfo>
; Function compile flags: /Ogsp
; File c:\program files (x86)\microsoft visual studio 10.0\vc\include\xmemory
;	COMDAT ??$_Destroy@UForceInfo@@@std@@YAXPAUForceInfo@@@Z
_TEXT	SEGMENT
__Ptr$ = 8						; size = 4
??$_Destroy@UForceInfo@@@std@@YAXPAUForceInfo@@@Z PROC	; std::_Destroy<ForceInfo>, COMDAT

; 63   : 	_Ptr->~_Ty();
; 64   : 	}

  00000	c3		 ret	 0
??$_Destroy@UForceInfo@@@std@@YAXPAUForceInfo@@@Z ENDP	; std::_Destroy<ForceInfo>
_TEXT	ENDS
PUBLIC	??4WeaponInfo@@QAEAAU0@ABU0@@Z			; WeaponInfo::operator=
EXTRN	__imp_??4ioHashString@@QAEAAV0@ABV0@@Z:PROC
; Function compile flags: /Ogsp
;	COMDAT ??4WeaponInfo@@QAEAAU0@ABU0@@Z
_TEXT	SEGMENT
___that$ = 8						; size = 4
??4WeaponInfo@@QAEAAU0@ABU0@@Z PROC			; WeaponInfo::operator=, COMDAT
; _this$ = ecx
  00000	55		 push	 ebp
  00001	8b ec		 mov	 ebp, esp
  00003	56		 push	 esi
  00004	57		 push	 edi
  00005	8b 7d 08	 mov	 edi, DWORD PTR ___that$[ebp]
  00008	8b 07		 mov	 eax, DWORD PTR [edi]
  0000a	8b f1		 mov	 esi, ecx
  0000c	89 06		 mov	 DWORD PTR [esi], eax
  0000e	8b 47 04	 mov	 eax, DWORD PTR [edi+4]
  00011	89 46 04	 mov	 DWORD PTR [esi+4], eax
  00014	8d 47 08	 lea	 eax, DWORD PTR [edi+8]
  00017	50		 push	 eax
  00018	8d 4e 08	 lea	 ecx, DWORD PTR [esi+8]
  0001b	ff 15 00 00 00
	00		 call	 DWORD PTR __imp_??4ioHashString@@QAEAAV0@ABV0@@Z
  00021	8b 47 18	 mov	 eax, DWORD PTR [edi+24]
  00024	89 46 18	 mov	 DWORD PTR [esi+24], eax
  00027	8b 47 1c	 mov	 eax, DWORD PTR [edi+28]
  0002a	89 46 1c	 mov	 DWORD PTR [esi+28], eax
  0002d	8a 47 20	 mov	 al, BYTE PTR [edi+32]
  00030	88 46 20	 mov	 BYTE PTR [esi+32], al
  00033	8b 47 24	 mov	 eax, DWORD PTR [edi+36]
  00036	89 46 24	 mov	 DWORD PTR [esi+36], eax
  00039	5f		 pop	 edi
  0003a	8b c6		 mov	 eax, esi
  0003c	5e		 pop	 esi
  0003d	5d		 pop	 ebp
  0003e	c2 04 00	 ret	 4
??4WeaponInfo@@QAEAAU0@ABU0@@Z ENDP			; WeaponInfo::operator=
_TEXT	ENDS
PUBLIC	??_GWeaponInfo@@QAEPAXI@Z			; WeaponInfo::`scalar deleting destructor'
; Function compile flags: /Ogsp
;	COMDAT ??_GWeaponInfo@@QAEPAXI@Z
_TEXT	SEGMENT
___flags$ = 8						; size = 4
??_GWeaponInfo@@QAEPAXI@Z PROC				; WeaponInfo::`scalar deleting destructor', COMDAT
; _this$ = ecx
  00000	55		 push	 ebp
  00001	8b ec		 mov	 ebp, esp
  00003	56		 push	 esi
  00004	8b f1		 mov	 esi, ecx
  00006	8d 4e 08	 lea	 ecx, DWORD PTR [esi+8]
  00009	ff 15 00 00 00
	00		 call	 DWORD PTR __imp_??1ioHashString@@QAE@XZ
  0000f	f6 45 08 01	 test	 BYTE PTR ___flags$[ebp], 1
  00013	74 07		 je	 SHORT $LN1@scalar@3
  00015	56		 push	 esi
  00016	e8 00 00 00 00	 call	 ??3@YAXPAX@Z		; operator delete
  0001b	59		 pop	 ecx
$LN1@scalar@3:
  0001c	8b c6		 mov	 eax, esi
  0001e	5e		 pop	 esi
  0001f	5d		 pop	 ebp
  00020	c2 04 00	 ret	 4
??_GWeaponInfo@@QAEPAXI@Z ENDP				; WeaponInfo::`scalar deleting destructor'
_TEXT	ENDS
PUBLIC	??$move@AAUWeaponInfo@@@std@@YA$$QAUWeaponInfo@@AAU1@@Z ; std::move<WeaponInfo &>
; Function compile flags: /Ogsp
; File c:\program files (x86)\microsoft visual studio 10.0\vc\include\utility
;	COMDAT ??$move@AAUWeaponInfo@@@std@@YA$$QAUWeaponInfo@@AAU1@@Z
_TEXT	SEGMENT
__Arg$ = 8						; size = 4
??$move@AAUWeaponInfo@@@std@@YA$$QAUWeaponInfo@@AAU1@@Z PROC ; std::move<WeaponInfo &>, COMDAT

; 86   : 	{	// forward _Arg as movable

  00000	55		 push	 ebp
  00001	8b ec		 mov	 ebp, esp

; 87   : 	return ((typename tr1::_Remove_reference<_Ty>::_Type&&)_Arg);

  00003	8b 45 08	 mov	 eax, DWORD PTR __Arg$[ebp]

; 88   : 	}

  00006	5d		 pop	 ebp
  00007	c3		 ret	 0
??$move@AAUWeaponInfo@@@std@@YA$$QAUWeaponInfo@@AAU1@@Z ENDP ; std::move<WeaponInfo &>
_TEXT	ENDS
PUBLIC	??$move@AAUForceInfo@@@std@@YA$$QAUForceInfo@@AAU1@@Z ; std::move<ForceInfo &>
; Function compile flags: /Ogsp
;	COMDAT ??$move@AAUForceInfo@@@std@@YA$$QAUForceInfo@@AAU1@@Z
_TEXT	SEGMENT
__Arg$ = 8						; size = 4
??$move@AAUForceInfo@@@std@@YA$$QAUForceInfo@@AAU1@@Z PROC ; std::move<ForceInfo &>, COMDAT

; 86   : 	{	// forward _Arg as movable

  00000	55		 push	 ebp
  00001	8b ec		 mov	 ebp, esp

; 87   : 	return ((typename tr1::_Remove_reference<_Ty>::_Type&&)_Arg);

  00003	8b 45 08	 mov	 eax, DWORD PTR __Arg$[ebp]

; 88   : 	}

  00006	5d		 pop	 ebp
  00007	c3		 ret	 0
??$move@AAUForceInfo@@@std@@YA$$QAUForceInfo@@AAU1@@Z ENDP ; std::move<ForceInfo &>
_TEXT	ENDS
PUBLIC	??$forward@AAUWeaponInfo@@@std@@YAAAUWeaponInfo@@AAU1@@Z ; std::forward<WeaponInfo &>
; Function compile flags: /Ogsp
;	COMDAT ??$forward@AAUWeaponInfo@@@std@@YAAAUWeaponInfo@@AAU1@@Z
_TEXT	SEGMENT
__Arg$ = 8						; size = 4
??$forward@AAUWeaponInfo@@@std@@YAAAUWeaponInfo@@AAU1@@Z PROC ; std::forward<WeaponInfo &>, COMDAT

; 78   : 	{	// forward _Arg, given explicitly specified type parameter

  00000	55		 push	 ebp
  00001	8b ec		 mov	 ebp, esp

; 79   : 	return ((_Ty&&)_Arg);

  00003	8b 45 08	 mov	 eax, DWORD PTR __Arg$[ebp]

; 80   : 	}

  00006	5d		 pop	 ebp
  00007	c3		 ret	 0
??$forward@AAUWeaponInfo@@@std@@YAAAUWeaponInfo@@AAU1@@Z ENDP ; std::forward<WeaponInfo &>
_TEXT	ENDS
PUBLIC	??$forward@AAUForceInfo@@@std@@YAAAUForceInfo@@AAU1@@Z ; std::forward<ForceInfo &>
; Function compile flags: /Ogsp
;	COMDAT ??$forward@AAUForceInfo@@@std@@YAAAUForceInfo@@AAU1@@Z
_TEXT	SEGMENT
__Arg$ = 8						; size = 4
??$forward@AAUForceInfo@@@std@@YAAAUForceInfo@@AAU1@@Z PROC ; std::forward<ForceInfo &>, COMDAT

; 78   : 	{	// forward _Arg, given explicitly specified type parameter

  00000	55		 push	 ebp
  00001	8b ec		 mov	 ebp, esp

; 79   : 	return ((_Ty&&)_Arg);

  00003	8b 45 08	 mov	 eax, DWORD PTR __Arg$[ebp]

; 80   : 	}

  00006	5d		 pop	 ebp
  00007	c3		 ret	 0
??$forward@AAUForceInfo@@@std@@YAAAUForceInfo@@AAU1@@Z ENDP ; std::forward<ForceInfo &>
_TEXT	ENDS
PUBLIC	??$construct@AAUForceInfo@@@?$allocator@UForceInfo@@@std@@QAEXPAUForceInfo@@AAU2@@Z ; std::allocator<ForceInfo>::construct<ForceInfo &>
; Function compile flags: /Ogsp
; File c:\program files (x86)\microsoft visual studio 10.0\vc\include\xmemory
;	COMDAT ??$construct@AAUForceInfo@@@?$allocator@UForceInfo@@@std@@QAEXPAUForceInfo@@AAU2@@Z
_TEXT	SEGMENT
__Ptr$ = 8						; size = 4
__Val$ = 12						; size = 4
??$construct@AAUForceInfo@@@?$allocator@UForceInfo@@@std@@QAEXPAUForceInfo@@AAU2@@Z PROC ; std::allocator<ForceInfo>::construct<ForceInfo &>, COMDAT
; _this$ = ecx

; 206  : 		void construct(pointer _Ptr, _Other&& _Val)

  00000	55		 push	 ebp
  00001	8b ec		 mov	 ebp, esp
  00003	57		 push	 edi

; 207  : 		{	// construct object at _Ptr with value _Val
; 208  : 		::new ((void _FARQ *)_Ptr) _Ty(_STD forward<_Other>(_Val));

  00004	8b 7d 08	 mov	 edi, DWORD PTR __Ptr$[ebp]
  00007	85 ff		 test	 edi, edi
  00009	74 08		 je	 SHORT $LN3@construct@2
  0000b	56		 push	 esi
  0000c	8b 75 0c	 mov	 esi, DWORD PTR __Val$[ebp]
  0000f	a5		 movsd
  00010	a5		 movsd
  00011	a5		 movsd
  00012	5e		 pop	 esi
$LN3@construct@2:
  00013	5f		 pop	 edi

; 209  : 		}

  00014	5d		 pop	 ebp
  00015	c2 08 00	 ret	 8
??$construct@AAUForceInfo@@@?$allocator@UForceInfo@@@std@@QAEXPAUForceInfo@@AAU2@@Z ENDP ; std::allocator<ForceInfo>::construct<ForceInfo &>
_TEXT	ENDS
PUBLIC	??0WeaponInfo@@QAE@ABU0@@Z			; WeaponInfo::WeaponInfo
; Function compile flags: /Ogsp
;	COMDAT ??0WeaponInfo@@QAE@ABU0@@Z
_TEXT	SEGMENT
___that$ = 8						; size = 4
??0WeaponInfo@@QAE@ABU0@@Z PROC				; WeaponInfo::WeaponInfo, COMDAT
; _this$ = ecx
  00000	55		 push	 ebp
  00001	8b ec		 mov	 ebp, esp
  00003	56		 push	 esi
  00004	57		 push	 edi
  00005	8b 7d 08	 mov	 edi, DWORD PTR ___that$[ebp]
  00008	8b 07		 mov	 eax, DWORD PTR [edi]
  0000a	8b f1		 mov	 esi, ecx
  0000c	89 06		 mov	 DWORD PTR [esi], eax
  0000e	8b 47 04	 mov	 eax, DWORD PTR [edi+4]
  00011	89 46 04	 mov	 DWORD PTR [esi+4], eax
  00014	8d 47 08	 lea	 eax, DWORD PTR [edi+8]
  00017	50		 push	 eax
  00018	8d 4e 08	 lea	 ecx, DWORD PTR [esi+8]
  0001b	ff 15 00 00 00
	00		 call	 DWORD PTR __imp_??0ioHashString@@QAE@ABV0@@Z
  00021	8b 47 18	 mov	 eax, DWORD PTR [edi+24]
  00024	89 46 18	 mov	 DWORD PTR [esi+24], eax
  00027	8b 47 1c	 mov	 eax, DWORD PTR [edi+28]
  0002a	89 46 1c	 mov	 DWORD PTR [esi+28], eax
  0002d	8a 47 20	 mov	 al, BYTE PTR [edi+32]
  00030	88 46 20	 mov	 BYTE PTR [esi+32], al
  00033	8b 47 24	 mov	 eax, DWORD PTR [edi+36]
  00036	89 46 24	 mov	 DWORD PTR [esi+36], eax
  00039	5f		 pop	 edi
  0003a	8b c6		 mov	 eax, esi
  0003c	5e		 pop	 esi
  0003d	5d		 pop	 ebp
  0003e	c2 04 00	 ret	 4
??0WeaponInfo@@QAE@ABU0@@Z ENDP				; WeaponInfo::WeaponInfo
_TEXT	ENDS
PUBLIC	??_R0?AVioLeeSunSin@@@8				; ioLeeSunSin `RTTI Type Descriptor'
PUBLIC	?ToLeeSunSin@@YAPAVioLeeSunSin@@PAVioItem@@@Z	; ToLeeSunSin
;	COMDAT ??_R0?AVioLeeSunSin@@@8
; File d:\lost saga for developer\youtube\tutorial\source\src\lsclient\ioleesunsin.h
_DATA	SEGMENT
??_R0?AVioLeeSunSin@@@8 DD FLAT:??_7type_info@@6B@	; ioLeeSunSin `RTTI Type Descriptor'
	DD	00H
	DB	'.?AVioLeeSunSin@@', 00H
; Function compile flags: /Ogsp
_DATA	ENDS
;	COMDAT ?ToLeeSunSin@@YAPAVioLeeSunSin@@PAVioItem@@@Z
_TEXT	SEGMENT
_pItem$ = 8						; size = 4
?ToLeeSunSin@@YAPAVioLeeSunSin@@PAVioItem@@@Z PROC	; ToLeeSunSin, COMDAT

; 199  : {

  00000	55		 push	 ebp
  00001	8b ec		 mov	 ebp, esp

; 200  : 	ioWeaponItem *pWeapon = ToWeaponItem( pItem );

  00003	ff 75 08	 push	 DWORD PTR _pItem$[ebp]
  00006	e8 00 00 00 00	 call	 ?ToWeaponItem@@YAPAVioWeaponItem@@PAVioItem@@@Z ; ToWeaponItem
  0000b	59		 pop	 ecx

; 201  : 	if( !pWeapon || pWeapon->GetSubType() != ioWeaponItem::WST_LEESUNSIN_ITEM )

  0000c	85 c0		 test	 eax, eax
  0000e	74 2a		 je	 SHORT $LN1@ToLeeSunSi
  00010	8b 10		 mov	 edx, DWORD PTR [eax]
  00012	8b c8		 mov	 ecx, eax
  00014	ff 92 f0 02 00
	00		 call	 DWORD PTR [edx+752]
  0001a	83 f8 79	 cmp	 eax, 121		; 00000079H
  0001d	75 1b		 jne	 SHORT $LN1@ToLeeSunSi

; 203  : 
; 204  : 	return dynamic_cast< ioLeeSunSin* >( pItem );

  0001f	6a 00		 push	 0
  00021	68 00 00 00 00	 push	 OFFSET ??_R0?AVioLeeSunSin@@@8
  00026	68 00 00 00 00	 push	 OFFSET ??_R0?AVioItem@@@8
  0002b	6a 00		 push	 0
  0002d	ff 75 08	 push	 DWORD PTR _pItem$[ebp]
  00030	e8 00 00 00 00	 call	 ___RTDynamicCast
  00035	83 c4 14	 add	 esp, 20			; 00000014H

; 205  : }

  00038	5d		 pop	 ebp
  00039	c3		 ret	 0
$LN1@ToLeeSunSi:

; 202  : 		return NULL;

  0003a	33 c0		 xor	 eax, eax

; 205  : }

  0003c	5d		 pop	 ebp
  0003d	c3		 ret	 0
?ToLeeSunSin@@YAPAVioLeeSunSin@@PAVioItem@@@Z ENDP	; ToLeeSunSin
_TEXT	ENDS
PUBLIC	??_R0?AVioRedHoodItem@@@8			; ioRedHoodItem `RTTI Type Descriptor'
PUBLIC	?ToRedHoodItem@@YAPAVioRedHoodItem@@PAVioItem@@@Z ; ToRedHoodItem
;	COMDAT ??_R0?AVioRedHoodItem@@@8
; File d:\lost saga for developer\youtube\tutorial\source\src\lsclient\ioredhooditem.h
_DATA	SEGMENT
??_R0?AVioRedHoodItem@@@8 DD FLAT:??_7type_info@@6B@	; ioRedHoodItem `RTTI Type Descriptor'
	DD	00H
	DB	'.?AVioRedHoodItem@@', 00H
; Function compile flags: /Ogsp
_DATA	ENDS
;	COMDAT ?ToRedHoodItem@@YAPAVioRedHoodItem@@PAVioItem@@@Z
_TEXT	SEGMENT
_pItem$ = 8						; size = 4
?ToRedHoodItem@@YAPAVioRedHoodItem@@PAVioItem@@@Z PROC	; ToRedHoodItem, COMDAT

; 205  : {

  00000	55		 push	 ebp
  00001	8b ec		 mov	 ebp, esp

; 206  : 	ioWeaponItem *pWeapon = ToWeaponItem( pItem );

  00003	ff 75 08	 push	 DWORD PTR _pItem$[ebp]
  00006	e8 00 00 00 00	 call	 ?ToWeaponItem@@YAPAVioWeaponItem@@PAVioItem@@@Z ; ToWeaponItem
  0000b	59		 pop	 ecx

; 207  : 	if( !pWeapon || pWeapon->GetSubType() != ioWeaponItem::WST_RED_HOOD_ITEM )

  0000c	85 c0		 test	 eax, eax
  0000e	74 2c		 je	 SHORT $LN1@ToRedHoodI
  00010	8b 10		 mov	 edx, DWORD PTR [eax]
  00012	8b c8		 mov	 ecx, eax
  00014	ff 92 f0 02 00
	00		 call	 DWORD PTR [edx+752]
  0001a	3d 82 00 00 00	 cmp	 eax, 130		; 00000082H
  0001f	75 1b		 jne	 SHORT $LN1@ToRedHoodI

; 209  : 
; 210  : 	return dynamic_cast< ioRedHoodItem* >( pItem );

  00021	6a 00		 push	 0
  00023	68 00 00 00 00	 push	 OFFSET ??_R0?AVioRedHoodItem@@@8
  00028	68 00 00 00 00	 push	 OFFSET ??_R0?AVioItem@@@8
  0002d	6a 00		 push	 0
  0002f	ff 75 08	 push	 DWORD PTR _pItem$[ebp]
  00032	e8 00 00 00 00	 call	 ___RTDynamicCast
  00037	83 c4 14	 add	 esp, 20			; 00000014H

; 211  : }

  0003a	5d		 pop	 ebp
  0003b	c3		 ret	 0
$LN1@ToRedHoodI:

; 208  : 		return NULL;

  0003c	33 c0		 xor	 eax, eax

; 211  : }

  0003e	5d		 pop	 ebp
  0003f	c3		 ret	 0
?ToRedHoodItem@@YAPAVioRedHoodItem@@PAVioItem@@@Z ENDP	; ToRedHoodItem
_TEXT	ENDS
PUBLIC	__real@3f800000
PUBLIC	__real@3ff0000000000000
PUBLIC	__real@42c80000
PUBLIC	_nIndex$GSCopy$
PUBLIC	__$ArrayPad$
PUBLIC	?SetBranChAni@ioChargeComboCounter@@IAEXPAVioBaseChar@@H_N@Z ; ioChargeComboCounter::SetBranChAni
EXTRN	??1SP2Packet@@UAE@XZ:PROC			; SP2Packet::~SP2Packet
EXTRN	?SendToAllPlayingUser@P2PNetwork@@YAXAAVSP2Packet@@PAVioBaseChar@@@Z:PROC ; P2PNetwork::SendToAllPlayingUser
EXTRN	??6SP2Packet@@QAEAAV0@AAV?$CEncrypt@M@@@Z:PROC	; SP2Packet::operator<<
EXTRN	??6SP2Packet@@QAEAAV0@H@Z:PROC			; SP2Packet::operator<<
EXTRN	??6SP2Packet@@QAEAAV0@ABVioHashString@@@Z:PROC	; SP2Packet::operator<<
EXTRN	??0SP2Packet@@QAE@K@Z:PROC			; SP2Packet::SP2Packet
EXTRN	__imp_?SetActionAni@ioEntityGroup@@QAE_NHMMMMMM_N0@Z:PROC
EXTRN	__imp_?ClearAllActionAni@ioEntityGroup@@QAEXM_N@Z:PROC
EXTRN	__imp_?ClearAllLoopAni@ioEntityGroup@@QAEXM_N@Z:PROC
EXTRN	__imp_?GetAnimationIdx@ioEntityGroup@@QAEHABVioHashString@@@Z:PROC
EXTRN	___security_cookie:DWORD
EXTRN	__chkstk:PROC
;	COMDAT __real@3f800000
; File d:\lost saga for developer\youtube\tutorial\source\src\lsclient\iochargecombocounter.cpp
CONST	SEGMENT
__real@3f800000 DD 03f800000r			; 1
CONST	ENDS
;	COMDAT __real@3ff0000000000000
CONST	SEGMENT
__real@3ff0000000000000 DQ 03ff0000000000000r	; 1
CONST	ENDS
;	COMDAT __real@42c80000
CONST	SEGMENT
__real@42c80000 DD 042c80000r			; 100
CONST	ENDS
;	COMDAT xdata$x
xdata$x	SEGMENT
__unwindtable$?SetBranChAni@ioChargeComboCounter@@IAEXPAVioBaseChar@@H_N@Z DD 0ffffffffH
	DD	FLAT:__unwindfunclet$?SetBranChAni@ioChargeComboCounter@@IAEXPAVioBaseChar@@H_N@Z$0
	DD	00H
	DD	FLAT:__unwindfunclet$?SetBranChAni@ioChargeComboCounter@@IAEXPAVioBaseChar@@H_N@Z$1
__ehfuncinfo$?SetBranChAni@ioChargeComboCounter@@IAEXPAVioBaseChar@@H_N@Z DD 019930522H
	DD	02H
	DD	FLAT:__unwindtable$?SetBranChAni@ioChargeComboCounter@@IAEXPAVioBaseChar@@H_N@Z
	DD	2 DUP(00H)
	DD	2 DUP(00H)
	DD	00H
	DD	01H
; Function compile flags: /Ogsp
xdata$x	ENDS
;	COMDAT ?SetBranChAni@ioChargeComboCounter@@IAEXPAVioBaseChar@@H_N@Z
_TEXT	SEGMENT
_info$ = -32840						; size = 20
_iAniID$ = -32820					; size = 4
_nIndex$GSCopy$ = -32816				; size = 4
_fTimeRate$ = -32812					; size = 4
_pGrp$ = -32812						; size = 4
_kPacket$532421 = -32808				; size = 32792
__$ArrayPad$ = -16					; size = 4
__$EHRec$ = -12						; size = 12
_pOwner$ = 8						; size = 4
_nIndex$ = 12						; size = 4
_bSendNet$ = 16						; size = 1
?SetBranChAni@ioChargeComboCounter@@IAEXPAVioBaseChar@@H_N@Z PROC ; ioChargeComboCounter::SetBranChAni, COMDAT
; _this$ = ecx

; 308  : {

  00000	55		 push	 ebp
  00001	8b ec		 mov	 ebp, esp
  00003	6a ff		 push	 -1
  00005	68 00 00 00 00	 push	 __ehhandler$?SetBranChAni@ioChargeComboCounter@@IAEXPAVioBaseChar@@H_N@Z
  0000a	64 a1 00 00 00
	00		 mov	 eax, DWORD PTR fs:0
  00010	50		 push	 eax
  00011	b8 3c 80 00 00	 mov	 eax, 32828		; 0000803cH
  00016	e8 00 00 00 00	 call	 __chkstk
  0001b	a1 00 00 00 00	 mov	 eax, DWORD PTR ___security_cookie
  00020	33 c5		 xor	 eax, ebp
  00022	89 45 f0	 mov	 DWORD PTR __$ArrayPad$[ebp], eax
  00025	53		 push	 ebx
  00026	56		 push	 esi
  00027	57		 push	 edi
  00028	50		 push	 eax
  00029	8d 45 f4	 lea	 eax, DWORD PTR __$EHRec$[ebp]
  0002c	64 a3 00 00 00
	00		 mov	 DWORD PTR fs:0, eax
  00032	8b 7d 08	 mov	 edi, DWORD PTR _pOwner$[ebp]

; 309  : 	ioEntityGroup *pGrp = pOwner->GetGroup();

  00035	8b 47 04	 mov	 eax, DWORD PTR [edi+4]
  00038	8b 75 0c	 mov	 esi, DWORD PTR _nIndex$[ebp]
  0003b	8b d9		 mov	 ebx, ecx
  0003d	89 b5 d0 7f ff
	ff		 mov	 DWORD PTR _nIndex$GSCopy$[ebp], esi
  00043	89 85 d4 7f ff
	ff		 mov	 DWORD PTR _pGrp$[ebp], eax

; 310  : 	if( !pGrp )

  00049	85 c0		 test	 eax, eax
  0004b	0f 84 bf 01 00
	00		 je	 $LN5@SetBranChA

; 311  : 		return;
; 312  : 
; 313  : 	if( nIndex >= (int)m_vBranch.size() )

  00051	8b 83 d4 00 00
	00		 mov	 eax, DWORD PTR [ebx+212]
  00057	2b 83 d0 00 00
	00		 sub	 eax, DWORD PTR [ebx+208]
  0005d	6a 14		 push	 20			; 00000014H
  0005f	99		 cdq
  00060	59		 pop	 ecx
  00061	f7 f9		 idiv	 ecx
  00063	3b f0		 cmp	 esi, eax
  00065	0f 8d a5 01 00
	00		 jge	 $LN5@SetBranChA

; 314  : 		return;
; 315  : 
; 316  : 	CounterBranchAniInfo info = m_vBranch[nIndex];

  0006b	6b f6 14	 imul	 esi, 20			; 00000014H
  0006e	03 b3 d0 00 00
	00		 add	 esi, DWORD PTR [ebx+208]
  00074	8d 8d b8 7f ff
	ff		 lea	 ecx, DWORD PTR _info$[ebp]
  0007a	56		 push	 esi
  0007b	ff 15 00 00 00
	00		 call	 DWORD PTR __imp_??0ioHashString@@QAE@ABV0@@Z
  00081	f3 0f 10 46 10	 movss	 xmm0, DWORD PTR [esi+16]
  00086	f3 0f 11 85 c8
	7f ff ff	 movss	 DWORD PTR _info$[ebp+16], xmm0

; 317  : 
; 318  : 	int iAniID = pGrp->GetAnimationIdx( info.Ani );

  0008e	8b b5 d4 7f ff
	ff		 mov	 esi, DWORD PTR _pGrp$[ebp]
  00094	83 65 fc 00	 and	 DWORD PTR __$EHRec$[ebp+8], 0
  00098	8d 85 b8 7f ff
	ff		 lea	 eax, DWORD PTR _info$[ebp]
  0009e	50		 push	 eax
  0009f	8b ce		 mov	 ecx, esi
  000a1	ff 15 00 00 00
	00		 call	 DWORD PTR __imp_?GetAnimationIdx@ioEntityGroup@@QAEHABVioHashString@@@Z
  000a7	89 85 cc 7f ff
	ff		 mov	 DWORD PTR _iAniID$[ebp], eax

; 319  : 	if ( iAniID == -1 )

  000ad	83 f8 ff	 cmp	 eax, -1

; 320  : 		return;

  000b0	0f 84 4a 01 00
	00		 je	 $LN1@SetBranChA

; 321  : 
; 322  : 	float fTimeRate  = info.rate;

  000b6	f3 0f 10 85 c8
	7f ff ff	 movss	 xmm0, DWORD PTR _info$[ebp+16]

; 323  : 	
; 324  : 	pGrp->ClearAllLoopAni( 100.0f, true );

  000be	6a 01		 push	 1
  000c0	51		 push	 ecx
  000c1	f3 0f 11 85 d4
	7f ff ff	 movss	 DWORD PTR _fTimeRate$[ebp], xmm0
  000c9	f3 0f 10 05 00
	00 00 00	 movss	 xmm0, DWORD PTR __real@42c80000
  000d1	8b ce		 mov	 ecx, esi
  000d3	f3 0f 11 04 24	 movss	 DWORD PTR [esp], xmm0
  000d8	ff 15 00 00 00
	00		 call	 DWORD PTR __imp_?ClearAllLoopAni@ioEntityGroup@@QAEXM_N@Z

; 325  : 	pGrp->ClearAllActionAni( 100.0f, true );

  000de	f3 0f 10 05 00
	00 00 00	 movss	 xmm0, DWORD PTR __real@42c80000
  000e6	6a 01		 push	 1
  000e8	51		 push	 ecx
  000e9	8b ce		 mov	 ecx, esi
  000eb	f3 0f 11 04 24	 movss	 DWORD PTR [esp], xmm0
  000f0	ff 15 00 00 00
	00		 call	 DWORD PTR __imp_?ClearAllActionAni@ioEntityGroup@@QAEXM_N@Z

; 326  : 
; 327  : 	pGrp->SetActionAni( iAniID, 100.0f, 100.0f, 1.0f, 1.0f/fTimeRate, 0.0f, 0.0f, true );

  000f6	0f 57 c0	 xorps	 xmm0, xmm0
  000f9	f2 0f 10 0d 00
	00 00 00	 movsd	 xmm1, QWORD PTR __real@3ff0000000000000
  00101	6a 01		 push	 1
  00103	6a 01		 push	 1
  00105	83 ec 18	 sub	 esp, 24			; 00000018H
  00108	f3 0f 11 44 24
	14		 movss	 DWORD PTR [esp+20], xmm0
  0010e	f3 0f 11 44 24
	10		 movss	 DWORD PTR [esp+16], xmm0
  00114	f3 0f 10 85 d4
	7f ff ff	 movss	 xmm0, DWORD PTR _fTimeRate$[ebp]
  0011c	0f 5a c0	 cvtps2pd xmm0, xmm0
  0011f	f2 0f 5e c8	 divsd	 xmm1, xmm0
  00123	8b ce		 mov	 ecx, esi
  00125	66 0f 5a c1	 cvtpd2ps xmm0, xmm1
  00129	f3 0f 11 44 24
	0c		 movss	 DWORD PTR [esp+12], xmm0
  0012f	f3 0f 10 05 00
	00 00 00	 movss	 xmm0, DWORD PTR __real@3f800000
  00137	f3 0f 11 44 24
	08		 movss	 DWORD PTR [esp+8], xmm0
  0013d	f3 0f 10 05 00
	00 00 00	 movss	 xmm0, DWORD PTR __real@42c80000
  00145	f3 0f 11 44 24
	04		 movss	 DWORD PTR [esp+4], xmm0
  0014b	f3 0f 11 04 24	 movss	 DWORD PTR [esp], xmm0
  00150	ff b5 cc 7f ff
	ff		 push	 DWORD PTR _iAniID$[ebp]
  00156	ff 15 00 00 00
	00		 call	 DWORD PTR __imp_?SetActionAni@ioEntityGroup@@QAE_NHMMMMMM_N0@Z

; 328  : 
; 329  : 	if( pOwner->IsNeedProcess() && bSendNet )

  0015c	8b 07		 mov	 eax, DWORD PTR [edi]
  0015e	8b cf		 mov	 ecx, edi
  00160	ff 90 00 01 00
	00		 call	 DWORD PTR [eax+256]
  00166	84 c0		 test	 al, al
  00168	0f 84 92 00 00
	00		 je	 $LN1@SetBranChA
  0016e	80 7d 10 00	 cmp	 BYTE PTR _bSendNet$[ebp], 0
  00172	0f 84 88 00 00
	00		 je	 $LN1@SetBranChA

; 330  : 	{
; 331  : 		SP2Packet kPacket( CUPK_COUNTER_ATTACK_SYNC );

  00178	68 42 42 00 00	 push	 16962			; 00004242H
  0017d	8d 8d d8 7f ff
	ff		 lea	 ecx, DWORD PTR _kPacket$532421[ebp]
  00183	e8 00 00 00 00	 call	 ??0SP2Packet@@QAE@K@Z	; SP2Packet::SP2Packet

; 332  : 		kPacket << pOwner->GetCharName();

  00188	8d 87 d4 02 00
	00		 lea	 eax, DWORD PTR [edi+724]
  0018e	50		 push	 eax
  0018f	8d 8d d8 7f ff
	ff		 lea	 ecx, DWORD PTR _kPacket$532421[ebp]
  00195	c6 45 fc 01	 mov	 BYTE PTR __$EHRec$[ebp+8], 1
  00199	e8 00 00 00 00	 call	 ??6SP2Packet@@QAEAAV0@ABVioHashString@@@Z ; SP2Packet::operator<<

; 333  : 		kPacket << (int)GetType();

  0019e	8b 03		 mov	 eax, DWORD PTR [ebx]
  001a0	8b cb		 mov	 ecx, ebx
  001a2	ff 50 04	 call	 DWORD PTR [eax+4]
  001a5	50		 push	 eax
  001a6	8d 8d d8 7f ff
	ff		 lea	 ecx, DWORD PTR _kPacket$532421[ebp]
  001ac	e8 00 00 00 00	 call	 ??6SP2Packet@@QAEAAV0@H@Z ; SP2Packet::operator<<

; 334  : 		kPacket << pOwner->GetHP().m_fCurValue;

  001b1	81 c7 c0 00 00
	00		 add	 edi, 192		; 000000c0H
  001b7	57		 push	 edi
  001b8	8d 8d d8 7f ff
	ff		 lea	 ecx, DWORD PTR _kPacket$532421[ebp]
  001be	e8 00 00 00 00	 call	 ??6SP2Packet@@QAEAAV0@AAV?$CEncrypt@M@@@Z ; SP2Packet::operator<<

; 335  : 		kPacket << CCS_Branch_Ani;

  001c3	6a 09		 push	 9
  001c5	8d 8d d8 7f ff
	ff		 lea	 ecx, DWORD PTR _kPacket$532421[ebp]
  001cb	e8 00 00 00 00	 call	 ??6SP2Packet@@QAEAAV0@H@Z ; SP2Packet::operator<<

; 336  : 		kPacket << nIndex;

  001d0	ff b5 d0 7f ff
	ff		 push	 DWORD PTR _nIndex$GSCopy$[ebp]
  001d6	8d 8d d8 7f ff
	ff		 lea	 ecx, DWORD PTR _kPacket$532421[ebp]
  001dc	e8 00 00 00 00	 call	 ??6SP2Packet@@QAEAAV0@H@Z ; SP2Packet::operator<<

; 337  : 		P2PNetwork::SendToAllPlayingUser( kPacket );

  001e1	8d 85 d8 7f ff
	ff		 lea	 eax, DWORD PTR _kPacket$532421[ebp]
  001e7	6a 00		 push	 0
  001e9	50		 push	 eax
  001ea	e8 00 00 00 00	 call	 ?SendToAllPlayingUser@P2PNetwork@@YAXAAVSP2Packet@@PAVioBaseChar@@@Z ; P2PNetwork::SendToAllPlayingUser
  001ef	59		 pop	 ecx
  001f0	59		 pop	 ecx

; 338  : 	}

  001f1	8d 8d d8 7f ff
	ff		 lea	 ecx, DWORD PTR _kPacket$532421[ebp]
  001f7	c6 45 fc 00	 mov	 BYTE PTR __$EHRec$[ebp+8], 0
  001fb	e8 00 00 00 00	 call	 ??1SP2Packet@@UAE@XZ	; SP2Packet::~SP2Packet
$LN1@SetBranChA:

; 339  : }

  00200	83 4d fc ff	 or	 DWORD PTR __$EHRec$[ebp+8], -1
  00204	8d 8d b8 7f ff
	ff		 lea	 ecx, DWORD PTR _info$[ebp]
  0020a	ff 15 00 00 00
	00		 call	 DWORD PTR __imp_??1ioHashString@@QAE@XZ
$LN5@SetBranChA:
  00210	8b 4d f4	 mov	 ecx, DWORD PTR __$EHRec$[ebp]
  00213	64 89 0d 00 00
	00 00		 mov	 DWORD PTR fs:0, ecx
  0021a	59		 pop	 ecx
  0021b	5f		 pop	 edi
  0021c	5e		 pop	 esi
  0021d	5b		 pop	 ebx
  0021e	8b 4d f0	 mov	 ecx, DWORD PTR __$ArrayPad$[ebp]
  00221	33 cd		 xor	 ecx, ebp
  00223	e8 00 00 00 00	 call	 @__security_check_cookie@4
  00228	c9		 leave
  00229	c2 0c 00	 ret	 12			; 0000000cH
_TEXT	ENDS
;	COMDAT text$x
text$x	SEGMENT
__unwindfunclet$?SetBranChAni@ioChargeComboCounter@@IAEXPAVioBaseChar@@H_N@Z$0:
  00000	8d 8d b8 7f ff
	ff		 lea	 ecx, DWORD PTR _info$[ebp]
  00006	e9 00 00 00 00	 jmp	 ??1CounterBranchAniInfo@ioChargeComboCounter@@QAE@XZ
__unwindfunclet$?SetBranChAni@ioChargeComboCounter@@IAEXPAVioBaseChar@@H_N@Z$1:
  0000b	8d 8d d8 7f ff
	ff		 lea	 ecx, DWORD PTR _kPacket$532421[ebp]
  00011	e9 00 00 00 00	 jmp	 ??1SP2Packet@@UAE@XZ	; SP2Packet::~SP2Packet
__ehhandler$?SetBranChAni@ioChargeComboCounter@@IAEXPAVioBaseChar@@H_N@Z:
  00016	8b 54 24 08	 mov	 edx, DWORD PTR [esp+8]
  0001a	8d 42 0c	 lea	 eax, DWORD PTR [edx+12]
  0001d	8b 8a b4 7f ff
	ff		 mov	 ecx, DWORD PTR [edx-32844]
  00023	33 c8		 xor	 ecx, eax
  00025	e8 00 00 00 00	 call	 @__security_check_cookie@4
  0002a	8b 4a fc	 mov	 ecx, DWORD PTR [edx-4]
  0002d	33 c8		 xor	 ecx, eax
  0002f	e8 00 00 00 00	 call	 @__security_check_cookie@4
  00034	b8 00 00 00 00	 mov	 eax, OFFSET __ehfuncinfo$?SetBranChAni@ioChargeComboCounter@@IAEXPAVioBaseChar@@H_N@Z
  00039	e9 00 00 00 00	 jmp	 ___CxxFrameHandler3
text$x	ENDS
?SetBranChAni@ioChargeComboCounter@@IAEXPAVioBaseChar@@H_N@Z ENDP ; ioChargeComboCounter::SetBranChAni
PUBLIC	__$ArrayPad$
PUBLIC	?CheckReserveState@ioChargeComboCounter@@QAEXPAVioBaseChar@@@Z ; ioChargeComboCounter::CheckReserveState
;	COMDAT xdata$x
; File d:\lost saga for developer\youtube\tutorial\source\src\lsclient\ioplayentity.h
xdata$x	SEGMENT
__unwindtable$?CheckReserveState@ioChargeComboCounter@@QAEXPAVioBaseChar@@@Z DD 0ffffffffH
	DD	FLAT:__unwindfunclet$?CheckReserveState@ioChargeComboCounter@@QAEXPAVioBaseChar@@@Z$0
__ehfuncinfo$?CheckReserveState@ioChargeComboCounter@@QAEXPAVioBaseChar@@@Z DD 019930522H
	DD	01H
	DD	FLAT:__unwindtable$?CheckReserveState@ioChargeComboCounter@@QAEXPAVioBaseChar@@@Z
	DD	2 DUP(00H)
	DD	2 DUP(00H)
	DD	00H
	DD	01H
; Function compile flags: /Ogsp
; File d:\lost saga for developer\youtube\tutorial\source\src\lsclient\iochargecombocounter.cpp
xdata$x	ENDS
;	COMDAT ?CheckReserveState@ioChargeComboCounter@@QAEXPAVioBaseChar@@@Z
_TEXT	SEGMENT
_kPacket$532591 = -32808				; size = 32792
__$ArrayPad$ = -16					; size = 4
__$EHRec$ = -12						; size = 12
_pOwner$ = 8						; size = 4
?CheckReserveState@ioChargeComboCounter@@QAEXPAVioBaseChar@@@Z PROC ; ioChargeComboCounter::CheckReserveState, COMDAT
; _this$ = ecx

; 728  : {

  00000	55		 push	 ebp
  00001	8b ec		 mov	 ebp, esp
  00003	6a ff		 push	 -1
  00005	68 00 00 00 00	 push	 __ehhandler$?CheckReserveState@ioChargeComboCounter@@QAEXPAVioBaseChar@@@Z
  0000a	64 a1 00 00 00
	00		 mov	 eax, DWORD PTR fs:0
  00010	50		 push	 eax
  00011	b8 1c 80 00 00	 mov	 eax, 32796		; 0000801cH
  00016	e8 00 00 00 00	 call	 __chkstk
  0001b	a1 00 00 00 00	 mov	 eax, DWORD PTR ___security_cookie
  00020	33 c5		 xor	 eax, ebp
  00022	89 45 f0	 mov	 DWORD PTR __$ArrayPad$[ebp], eax
  00025	56		 push	 esi
  00026	57		 push	 edi
  00027	50		 push	 eax
  00028	8d 45 f4	 lea	 eax, DWORD PTR __$EHRec$[ebp]
  0002b	64 a3 00 00 00
	00		 mov	 DWORD PTR fs:0, eax
  00031	8b 75 08	 mov	 esi, DWORD PTR _pOwner$[ebp]
  00034	8b f9		 mov	 edi, ecx

; 729  : 	if ( !pOwner || !pOwner->IsNeedProcess() )

  00036	85 f6		 test	 esi, esi
  00038	0f 84 e3 00 00
	00		 je	 $LN7@CheckReser
  0003e	8b 06		 mov	 eax, DWORD PTR [esi]
  00040	8b ce		 mov	 ecx, esi
  00042	ff 90 00 01 00
	00		 call	 DWORD PTR [eax+256]
  00048	84 c0		 test	 al, al
  0004a	0f 84 d1 00 00
	00		 je	 $LN7@CheckReser

; 730  : 		return;
; 731  : 
; 732  : 	if( m_bAttackKeyReserved )

  00050	80 bf b8 01 00
	00 00		 cmp	 BYTE PTR [edi+440], 0
  00057	74 0d		 je	 SHORT $LN6@CheckReser

; 733  : 	{
; 734  : 		SetReserveAttack( pOwner );

  00059	56		 push	 esi
  0005a	8b cf		 mov	 ecx, edi
  0005c	e8 00 00 00 00	 call	 ?SetReserveAttack@ioChargeComboCounter@@IAEXPAVioBaseChar@@@Z ; ioChargeComboCounter::SetReserveAttack

; 735  : 		return;

  00061	e9 bb 00 00 00	 jmp	 $LN7@CheckReser
$LN6@CheckReser:

; 736  : 	}
; 737  : 	else if( m_bDefenseKeyReserved )

  00066	80 bf b9 01 00
	00 00		 cmp	 BYTE PTR [edi+441], 0
  0006d	74 0d		 je	 SHORT $LN4@CheckReser

; 738  : 	{
; 739  : 		SetReserveDefence( pOwner );

  0006f	56		 push	 esi
  00070	8b cf		 mov	 ecx, edi
  00072	e8 00 00 00 00	 call	 ?SetReserveDefence@ioChargeComboCounter@@IAEXPAVioBaseChar@@@Z ; ioChargeComboCounter::SetReserveDefence

; 740  : 		return;

  00077	e9 a5 00 00 00	 jmp	 $LN7@CheckReser
$LN4@CheckReser:

; 741  : 	}
; 742  : 	else if ( m_bJumpKeyReserved )

  0007c	80 bf ba 01 00
	00 00		 cmp	 BYTE PTR [edi+442], 0
  00083	74 0d		 je	 SHORT $LN2@CheckReser

; 743  : 	{
; 744  : 		SetReserveJump( pOwner );

  00085	56		 push	 esi
  00086	8b cf		 mov	 ecx, edi
  00088	e8 00 00 00 00	 call	 ?SetReserveJump@ioChargeComboCounter@@IAEXPAVioBaseChar@@@Z ; ioChargeComboCounter::SetReserveJump

; 745  : 		return;

  0008d	e9 8f 00 00 00	 jmp	 $LN7@CheckReser
$LN2@CheckReser:

; 746  : 	}
; 747  : 
; 748  : 	m_ChargeComboState = CCS_End;

  00092	c7 87 a0 01 00
	00 07 00 00 00	 mov	 DWORD PTR [edi+416], 7

; 749  : 
; 750  : 	if( pOwner->IsNeedSendNetwork() )

  0009c	8b 06		 mov	 eax, DWORD PTR [esi]
  0009e	8b ce		 mov	 ecx, esi
  000a0	ff 90 04 01 00
	00		 call	 DWORD PTR [eax+260]
  000a6	84 c0		 test	 al, al
  000a8	74 77		 je	 SHORT $LN7@CheckReser

; 751  : 	{
; 752  : 		SP2Packet kPacket( CUPK_COUNTER_ATTACK_SYNC );

  000aa	68 42 42 00 00	 push	 16962			; 00004242H
  000af	8d 8d d8 7f ff
	ff		 lea	 ecx, DWORD PTR _kPacket$532591[ebp]
  000b5	e8 00 00 00 00	 call	 ??0SP2Packet@@QAE@K@Z	; SP2Packet::SP2Packet
  000ba	83 65 fc 00	 and	 DWORD PTR __$EHRec$[ebp+8], 0

; 753  : 		kPacket << pOwner->GetCharName();

  000be	8d 86 d4 02 00
	00		 lea	 eax, DWORD PTR [esi+724]
  000c4	50		 push	 eax
  000c5	8d 8d d8 7f ff
	ff		 lea	 ecx, DWORD PTR _kPacket$532591[ebp]
  000cb	e8 00 00 00 00	 call	 ??6SP2Packet@@QAEAAV0@ABVioHashString@@@Z ; SP2Packet::operator<<

; 754  : 		kPacket << (int)GetType();

  000d0	8b 07		 mov	 eax, DWORD PTR [edi]
  000d2	8b cf		 mov	 ecx, edi
  000d4	ff 50 04	 call	 DWORD PTR [eax+4]
  000d7	50		 push	 eax
  000d8	8d 8d d8 7f ff
	ff		 lea	 ecx, DWORD PTR _kPacket$532591[ebp]
  000de	e8 00 00 00 00	 call	 ??6SP2Packet@@QAEAAV0@H@Z ; SP2Packet::operator<<

; 755  : 		kPacket << pOwner->GetHP().m_fCurValue;

  000e3	81 c6 c0 00 00
	00		 add	 esi, 192		; 000000c0H
  000e9	56		 push	 esi
  000ea	8d 8d d8 7f ff
	ff		 lea	 ecx, DWORD PTR _kPacket$532591[ebp]
  000f0	e8 00 00 00 00	 call	 ??6SP2Packet@@QAEAAV0@AAV?$CEncrypt@M@@@Z ; SP2Packet::operator<<

; 756  : 		kPacket << CCS_End;

  000f5	6a 07		 push	 7
  000f7	8d 8d d8 7f ff
	ff		 lea	 ecx, DWORD PTR _kPacket$532591[ebp]
  000fd	e8 00 00 00 00	 call	 ??6SP2Packet@@QAEAAV0@H@Z ; SP2Packet::operator<<

; 757  : 		P2PNetwork::SendToAllPlayingUser( kPacket );

  00102	8d 85 d8 7f ff
	ff		 lea	 eax, DWORD PTR _kPacket$532591[ebp]
  00108	6a 00		 push	 0
  0010a	50		 push	 eax
  0010b	e8 00 00 00 00	 call	 ?SendToAllPlayingUser@P2PNetwork@@YAXAAVSP2Packet@@PAVioBaseChar@@@Z ; P2PNetwork::SendToAllPlayingUser

; 758  : 	}

  00110	83 4d fc ff	 or	 DWORD PTR __$EHRec$[ebp+8], -1
  00114	59		 pop	 ecx
  00115	59		 pop	 ecx
  00116	8d 8d d8 7f ff
	ff		 lea	 ecx, DWORD PTR _kPacket$532591[ebp]
  0011c	e8 00 00 00 00	 call	 ??1SP2Packet@@UAE@XZ	; SP2Packet::~SP2Packet
$LN7@CheckReser:

; 759  : }

  00121	8b 4d f4	 mov	 ecx, DWORD PTR __$EHRec$[ebp]
  00124	64 89 0d 00 00
	00 00		 mov	 DWORD PTR fs:0, ecx
  0012b	59		 pop	 ecx
  0012c	5f		 pop	 edi
  0012d	5e		 pop	 esi
  0012e	8b 4d f0	 mov	 ecx, DWORD PTR __$ArrayPad$[ebp]
  00131	33 cd		 xor	 ecx, ebp
  00133	e8 00 00 00 00	 call	 @__security_check_cookie@4
  00138	c9		 leave
  00139	c2 04 00	 ret	 4
_TEXT	ENDS
;	COMDAT text$x
text$x	SEGMENT
__unwindfunclet$?CheckReserveState@ioChargeComboCounter@@QAEXPAVioBaseChar@@@Z$0:
  00000	8d 8d d8 7f ff
	ff		 lea	 ecx, DWORD PTR _kPacket$532591[ebp]
  00006	e9 00 00 00 00	 jmp	 ??1SP2Packet@@UAE@XZ	; SP2Packet::~SP2Packet
__ehhandler$?CheckReserveState@ioChargeComboCounter@@QAEXPAVioBaseChar@@@Z:
  0000b	8b 54 24 08	 mov	 edx, DWORD PTR [esp+8]
  0000f	8d 42 0c	 lea	 eax, DWORD PTR [edx+12]
  00012	8b 8a d8 7f ff
	ff		 mov	 ecx, DWORD PTR [edx-32808]
  00018	33 c8		 xor	 ecx, eax
  0001a	e8 00 00 00 00	 call	 @__security_check_cookie@4
  0001f	8b 4a fc	 mov	 ecx, DWORD PTR [edx-4]
  00022	33 c8		 xor	 ecx, eax
  00024	e8 00 00 00 00	 call	 @__security_check_cookie@4
  00029	b8 00 00 00 00	 mov	 eax, OFFSET __ehfuncinfo$?CheckReserveState@ioChargeComboCounter@@QAEXPAVioBaseChar@@@Z
  0002e	e9 00 00 00 00	 jmp	 ___CxxFrameHandler3
text$x	ENDS
?CheckReserveState@ioChargeComboCounter@@QAEXPAVioBaseChar@@@Z ENDP ; ioChargeComboCounter::CheckReserveState
; Function compile flags: /Ogsp
;	COMDAT ??_GExtendCounter@@UAEPAXI@Z
_TEXT	SEGMENT
___flags$ = 8						; size = 4
??_GExtendCounter@@UAEPAXI@Z PROC			; ExtendCounter::`scalar deleting destructor', COMDAT
; _this$ = ecx
  00000	55		 push	 ebp
  00001	8b ec		 mov	 ebp, esp
  00003	f6 45 08 01	 test	 BYTE PTR ___flags$[ebp], 1
  00007	56		 push	 esi
  00008	8b f1		 mov	 esi, ecx
  0000a	c7 06 00 00 00
	00		 mov	 DWORD PTR [esi], OFFSET ??_7ExtendCounter@@6B@
  00010	74 07		 je	 SHORT $LN1@scalar@4
  00012	56		 push	 esi
  00013	e8 00 00 00 00	 call	 ??3@YAXPAX@Z		; operator delete
  00018	59		 pop	 ecx
$LN1@scalar@4:
  00019	8b c6		 mov	 eax, esi
  0001b	5e		 pop	 esi
  0001c	5d		 pop	 ebp
  0001d	c2 04 00	 ret	 4
??_GExtendCounter@@UAEPAXI@Z ENDP			; ExtendCounter::`scalar deleting destructor'
_TEXT	ENDS
PUBLIC	__real@00000000
PUBLIC	_pCounter$GSCopy$
PUBLIC	_this$GSCopy$
PUBLIC	__$ArrayPad$
PUBLIC	?SetChargeState@ioShadowChargeComboCounter@@MAE_NPAVioBaseChar@@PAVioChargeComboCounter@@@Z ; ioShadowChargeComboCounter::SetChargeState
EXTRN	?FillAutoTargetInfo@ioBaseChar@@QAEXAAVSP2Packet@@@Z:PROC ; ioBaseChar::FillAutoTargetInfo
EXTRN	??6SP2Packet@@QAEAAV0@ABUD3DXQUATERNION@@@Z:PROC ; SP2Packet::operator<<
EXTRN	??6SP2Packet@@QAEAAV0@ABUD3DXVECTOR3@@@Z:PROC	; SP2Packet::operator<<
EXTRN	?SetTargetRotAndMoveDirChange@ioBaseChar@@QAEXABUD3DXQUATERNION@@_N@Z:PROC ; ioBaseChar::SetTargetRotAndMoveDirChange
EXTRN	__imp_?CalcDirectionQuaternion@ioMath@@SAXAAUD3DXQUATERNION@@ABUD3DXVECTOR3@@@Z:PROC
EXTRN	__imp_?UNIT_Z@ioMath@@2UD3DXVECTOR3@@A:BYTE
EXTRN	?GetMapHeight@ioPlayStage@@QAEMMMPBVioGameEntity@@_NM1@Z:PROC ; ioPlayStage::GetMapHeight
EXTRN	__imp_??D@YA?AUD3DXVECTOR3@@ABUD3DXQUATERNION@@ABU0@@Z:PROC
;	COMDAT __real@00000000
; File d:\lost saga for developer\youtube\tutorial\source\src\lsclient\ioplayentity.h
CONST	SEGMENT
__real@00000000 DD 000000000r			; 0
CONST	ENDS
;	COMDAT xdata$x
xdata$x	SEGMENT
__unwindtable$?SetChargeState@ioShadowChargeComboCounter@@MAE_NPAVioBaseChar@@PAVioChargeComboCounter@@@Z DD 0ffffffffH
	DD	FLAT:__unwindfunclet$?SetChargeState@ioShadowChargeComboCounter@@MAE_NPAVioBaseChar@@PAVioChargeComboCounter@@@Z$0
__ehfuncinfo$?SetChargeState@ioShadowChargeComboCounter@@MAE_NPAVioBaseChar@@PAVioChargeComboCounter@@@Z DD 019930522H
	DD	01H
	DD	FLAT:__unwindtable$?SetChargeState@ioShadowChargeComboCounter@@MAE_NPAVioBaseChar@@PAVioChargeComboCounter@@@Z
	DD	2 DUP(00H)
	DD	2 DUP(00H)
	DD	00H
	DD	01H
; Function compile flags: /Ogsp
; File d:\lost saga for developer\youtube\tutorial\source\src\lsclient\iochargecombocounter.cpp
xdata$x	ENDS
;	COMDAT ?SetChargeState@ioShadowChargeComboCounter@@MAE_NPAVioBaseChar@@PAVioChargeComboCounter@@@Z
_TEXT	SEGMENT
_qtRot$532886 = -32872					; size = 16
_pCounter$GSCopy$ = -32856				; size = 4
_pStage$ = -32852					; size = 4
_this$GSCopy$ = -32848					; size = 4
_fMapHeight$532888 = -32848				; size = 4
_kPacket$532894 = -32844				; size = 32792
_vDir$532890 = -52					; size = 12
$T532891 = -40						; size = 12
$T532887 = -40						; size = 12
_vTeleportPos$532885 = -28				; size = 12
__$ArrayPad$ = -16					; size = 4
__$EHRec$ = -12						; size = 12
_pOwner$ = 8						; size = 4
_pCounter$ = 12						; size = 4
?SetChargeState@ioShadowChargeComboCounter@@MAE_NPAVioBaseChar@@PAVioChargeComboCounter@@@Z PROC ; ioShadowChargeComboCounter::SetChargeState, COMDAT
; _this$ = ecx

; 946  : {

  00000	55		 push	 ebp
  00001	8b ec		 mov	 ebp, esp
  00003	6a ff		 push	 -1
  00005	68 00 00 00 00	 push	 __ehhandler$?SetChargeState@ioShadowChargeComboCounter@@MAE_NPAVioBaseChar@@PAVioChargeComboCounter@@@Z
  0000a	64 a1 00 00 00
	00		 mov	 eax, DWORD PTR fs:0
  00010	50		 push	 eax
  00011	b8 5c 80 00 00	 mov	 eax, 32860		; 0000805cH
  00016	e8 00 00 00 00	 call	 __chkstk
  0001b	a1 00 00 00 00	 mov	 eax, DWORD PTR ___security_cookie
  00020	33 c5		 xor	 eax, ebp
  00022	89 45 f0	 mov	 DWORD PTR __$ArrayPad$[ebp], eax
  00025	53		 push	 ebx
  00026	56		 push	 esi
  00027	57		 push	 edi
  00028	50		 push	 eax
  00029	8d 45 f4	 lea	 eax, DWORD PTR __$EHRec$[ebp]
  0002c	64 a3 00 00 00
	00		 mov	 DWORD PTR fs:0, eax
  00032	8b 5d 08	 mov	 ebx, DWORD PTR _pOwner$[ebp]
  00035	8b 75 0c	 mov	 esi, DWORD PTR _pCounter$[ebp]
  00038	8b f9		 mov	 edi, ecx

; 982  : 		{
; 983  : 			SP2Packet kPacket( CUPK_COUNTER_ATTACK_SYNC );

  0003a	89 bd b0 7f ff
	ff		 mov	 DWORD PTR _this$GSCopy$[ebp], edi
  00040	89 b5 a8 7f ff
	ff		 mov	 DWORD PTR _pCounter$GSCopy$[ebp], esi
  00046	85 db		 test	 ebx, ebx
  00048	0f 84 8b 02 00
	00		 je	 $LN5@SetChargeS@2

; 947  : 	if( !pOwner || !pCounter )

  0004e	85 f6		 test	 esi, esi
  00050	0f 84 83 02 00
	00		 je	 $LN5@SetChargeS@2

; 949  : 	
; 950  : 	ioPlayStage *pStage = pOwner->GetCreator();

  00056	8b 83 44 03 00
	00		 mov	 eax, DWORD PTR [ebx+836]
  0005c	89 85 ac 7f ff
	ff		 mov	 DWORD PTR _pStage$[ebp], eax

; 951  : 	if ( !pStage )

  00062	85 c0		 test	 eax, eax

; 952  : 		return false;

  00064	0f 84 6f 02 00
	00		 je	 $LN5@SetChargeS@2

; 953  : 
; 954  : 	CounterAttack( pOwner, pCounter, &m_ShadowRangerTeleportMove );

  0006a	8b 07		 mov	 eax, DWORD PTR [edi]
  0006c	6a 01		 push	 1
  0006e	8d 4f 0c	 lea	 ecx, DWORD PTR [edi+12]
  00071	51		 push	 ecx
  00072	56		 push	 esi
  00073	53		 push	 ebx
  00074	8b cf		 mov	 ecx, edi
  00076	ff 50 18	 call	 DWORD PTR [eax+24]

; 955  : 
; 956  : 	pCounter->SetChargeComboState( ioChargeComboCounter::CCS_Special_Charge_Attack );

  00079	c7 86 a0 01 00
	00 05 00 00 00	 mov	 DWORD PTR [esi+416], 5

; 957  : 	pCounter->SetAttackKeyReserved( false );

  00083	66 c7 86 b8 01
	00 00 00 00	 mov	 WORD PTR [esi+440], 0

; 958  : 	pCounter->SetDefenseKeyReserved( false );
; 959  : 	pCounter->SetJumpKeyReserved( false );

  0008c	c6 86 ba 01 00
	00 00		 mov	 BYTE PTR [esi+442], 0

; 960  : 
; 961  : 	m_ShadowSpecialState				= SSS_Move;
; 962  : 	m_nShadowRangerTeleportComboCurCnt	= 0;

  00093	83 a7 80 00 00
	00 00		 and	 DWORD PTR [edi+128], 0
  0009a	c7 47 7c 01 00
	00 00		 mov	 DWORD PTR [edi+124], 1

; 963  : 
; 964  : 	if ( pOwner->IsNeedProcess() )

  000a1	8b 03		 mov	 eax, DWORD PTR [ebx]
  000a3	8b cb		 mov	 ecx, ebx
  000a5	ff 90 00 01 00
	00		 call	 DWORD PTR [eax+256]
  000ab	84 c0		 test	 al, al
  000ad	0f 84 22 02 00
	00		 je	 $LN1@SetChargeS@2

; 965  : 	{
; 966  : 		D3DXVECTOR3 vTeleportPos	= pOwner->GetWorldPosition();

  000b3	8b 03		 mov	 eax, DWORD PTR [ebx]
  000b5	8b cb		 mov	 ecx, ebx
  000b7	ff 50 70	 call	 DWORD PTR [eax+112]
  000ba	8b f0		 mov	 esi, eax

; 967  : 		D3DXQUATERNION qtRot		= pOwner->GetWorldOrientation();

  000bc	8b 03		 mov	 eax, DWORD PTR [ebx]
  000be	8d 7d e4	 lea	 edi, DWORD PTR _vTeleportPos$532885[ebp]
  000c1	a5		 movsd
  000c2	a5		 movsd
  000c3	8b cb		 mov	 ecx, ebx
  000c5	a5		 movsd
  000c6	ff 50 74	 call	 DWORD PTR [eax+116]
  000c9	8b f0		 mov	 esi, eax

; 968  : 
; 969  : 		vTeleportPos += ( qtRot * m_vShadowRangerTeleportOffset );

  000cb	8b 85 b0 7f ff
	ff		 mov	 eax, DWORD PTR _this$GSCopy$[ebp]
  000d1	8d bd 98 7f ff
	ff		 lea	 edi, DWORD PTR _qtRot$532886[ebp]
  000d7	a5		 movsd
  000d8	a5		 movsd
  000d9	83 c0 5c	 add	 eax, 92			; 0000005cH
  000dc	50		 push	 eax
  000dd	a5		 movsd
  000de	8d 85 98 7f ff
	ff		 lea	 eax, DWORD PTR _qtRot$532886[ebp]
  000e4	50		 push	 eax
  000e5	8d 45 d8	 lea	 eax, DWORD PTR $T532887[ebp]
  000e8	a5		 movsd
  000e9	8b 35 00 00 00
	00		 mov	 esi, DWORD PTR __imp_??D@YA?AUD3DXVECTOR3@@ABUD3DXQUATERNION@@ABU0@@Z
  000ef	50		 push	 eax
  000f0	ff d6		 call	 esi
  000f2	f3 0f 10 00	 movss	 xmm0, DWORD PTR [eax]
  000f6	f3 0f 10 4d e4	 movss	 xmm1, DWORD PTR _vTeleportPos$532885[ebp]
  000fb	f3 0f 10 55 e8	 movss	 xmm2, DWORD PTR _vTeleportPos$532885[ebp+4]
  00100	0f 5a c9	 cvtps2pd xmm1, xmm1
  00103	0f 5a c0	 cvtps2pd xmm0, xmm0
  00106	f2 0f 58 c1	 addsd	 xmm0, xmm1
  0010a	66 0f 5a c0	 cvtpd2ps xmm0, xmm0
  0010e	83 c4 0c	 add	 esp, 12			; 0000000cH
  00111	f3 0f 11 45 e4	 movss	 DWORD PTR _vTeleportPos$532885[ebp], xmm0
  00116	f3 0f 10 48 04	 movss	 xmm1, DWORD PTR [eax+4]
  0011b	0f 5a c9	 cvtps2pd xmm1, xmm1
  0011e	0f 5a d2	 cvtps2pd xmm2, xmm2
  00121	f2 0f 58 ca	 addsd	 xmm1, xmm2
  00125	f3 0f 10 55 ec	 movss	 xmm2, DWORD PTR _vTeleportPos$532885[ebp+8]
  0012a	66 0f 5a c9	 cvtpd2ps xmm1, xmm1
  0012e	f3 0f 11 4d e8	 movss	 DWORD PTR _vTeleportPos$532885[ebp+4], xmm1
  00133	f3 0f 10 48 08	 movss	 xmm1, DWORD PTR [eax+8]

; 970  : 
; 971  : 		float fMapHeight = pStage->GetMapHeight( vTeleportPos.x, vTeleportPos.z );

  00138	33 ff		 xor	 edi, edi
  0013a	57		 push	 edi
  0013b	51		 push	 ecx
  0013c	0f 5a c9	 cvtps2pd xmm1, xmm1
  0013f	0f 5a d2	 cvtps2pd xmm2, xmm2
  00142	f2 0f 58 ca	 addsd	 xmm1, xmm2
  00146	0f 57 d2	 xorps	 xmm2, xmm2
  00149	f3 0f 11 14 24	 movss	 DWORD PTR [esp], xmm2
  0014e	6a 01		 push	 1
  00150	57		 push	 edi
  00151	51		 push	 ecx
  00152	51		 push	 ecx
  00153	8b 8d ac 7f ff
	ff		 mov	 ecx, DWORD PTR _pStage$[ebp]
  00159	66 0f 5a c9	 cvtpd2ps xmm1, xmm1
  0015d	f3 0f 11 4c 24
	04		 movss	 DWORD PTR [esp+4], xmm1
  00163	f3 0f 11 4d ec	 movss	 DWORD PTR _vTeleportPos$532885[ebp+8], xmm1
  00168	f3 0f 11 04 24	 movss	 DWORD PTR [esp], xmm0
  0016d	e8 00 00 00 00	 call	 ?GetMapHeight@ioPlayStage@@QAEMMMPBVioGameEntity@@_NM1@Z ; ioPlayStage::GetMapHeight
  00172	d9 9d b0 7f ff
	ff		 fstp	 DWORD PTR _fMapHeight$532888[ebp]

; 972  : 		if( fMapHeight > 0 && vTeleportPos.y < fMapHeight )

  00178	d9 ee		 fldz
  0017a	d9 85 b0 7f ff
	ff		 fld	 DWORD PTR _fMapHeight$532888[ebp]
  00180	df f1		 fcomip	 ST(1)
  00182	dd d8		 fstp	 ST(0)
  00184	76 1e		 jbe	 SHORT $LN2@SetChargeS@2
  00186	f3 0f 10 45 e8	 movss	 xmm0, DWORD PTR _vTeleportPos$532885[ebp+4]
  0018b	0f 5a c8	 cvtps2pd xmm1, xmm0
  0018e	f3 0f 10 85 b0
	7f ff ff	 movss	 xmm0, DWORD PTR _fMapHeight$532888[ebp]
  00196	0f 5a d0	 cvtps2pd xmm2, xmm0
  00199	66 0f 2f d1	 comisd	 xmm2, xmm1
  0019d	76 05		 jbe	 SHORT $LN2@SetChargeS@2

; 973  : 			vTeleportPos.y = fMapHeight;

  0019f	f3 0f 11 45 e8	 movss	 DWORD PTR _vTeleportPos$532885[ebp+4], xmm0
$LN2@SetChargeS@2:

; 974  : 
; 975  : 		D3DXVECTOR3 vDir = qtRot * -ioMath::UNIT_Z;

  001a4	a1 00 00 00 00	 mov	 eax, DWORD PTR __imp_?UNIT_Z@ioMath@@2UD3DXVECTOR3@@A
  001a9	f3 0f 10 08	 movss	 xmm1, DWORD PTR [eax]
  001ad	f3 0f 10 50 04	 movss	 xmm2, DWORD PTR [eax+4]
  001b2	f3 0f 10 58 08	 movss	 xmm3, DWORD PTR [eax+8]
  001b7	f3 0f 10 05 00
	00 00 00	 movss	 xmm0, DWORD PTR __mask@@NegFloat@
  001bf	8d 45 d8	 lea	 eax, DWORD PTR $T532891[ebp]
  001c2	50		 push	 eax
  001c3	8d 85 98 7f ff
	ff		 lea	 eax, DWORD PTR _qtRot$532886[ebp]
  001c9	50		 push	 eax
  001ca	8d 45 cc	 lea	 eax, DWORD PTR _vDir$532890[ebp]
  001cd	0f 57 c8	 xorps	 xmm1, xmm0
  001d0	0f 57 d0	 xorps	 xmm2, xmm0
  001d3	0f 57 d8	 xorps	 xmm3, xmm0
  001d6	50		 push	 eax
  001d7	f3 0f 11 4d d8	 movss	 DWORD PTR $T532891[ebp], xmm1
  001dc	f3 0f 11 55 dc	 movss	 DWORD PTR $T532891[ebp+4], xmm2
  001e1	f3 0f 11 5d e0	 movss	 DWORD PTR $T532891[ebp+8], xmm3
  001e6	ff d6		 call	 esi

; 976  : 		ioMath::CalcDirectionQuaternion( qtRot, vDir );

  001e8	8d 45 cc	 lea	 eax, DWORD PTR _vDir$532890[ebp]
  001eb	50		 push	 eax
  001ec	8d 85 98 7f ff
	ff		 lea	 eax, DWORD PTR _qtRot$532886[ebp]
  001f2	50		 push	 eax
  001f3	ff 15 00 00 00
	00		 call	 DWORD PTR __imp_?CalcDirectionQuaternion@ioMath@@SAXAAUD3DXQUATERNION@@ABUD3DXVECTOR3@@@Z

; 977  : 
; 978  : 		pOwner->SetWorldPosition( vTeleportPos );

  001f9	8b 03		 mov	 eax, DWORD PTR [ebx]
  001fb	83 c4 14	 add	 esp, 20			; 00000014H
  001fe	8d 4d e4	 lea	 ecx, DWORD PTR _vTeleportPos$532885[ebp]
  00201	51		 push	 ecx
  00202	8b cb		 mov	 ecx, ebx
  00204	ff 50 44	 call	 DWORD PTR [eax+68]

; 979  : 		pOwner->SetTargetRotAndMoveDirChange( qtRot );

  00207	57		 push	 edi
  00208	8d 85 98 7f ff
	ff		 lea	 eax, DWORD PTR _qtRot$532886[ebp]
  0020e	50		 push	 eax
  0020f	8b cb		 mov	 ecx, ebx
  00211	e8 00 00 00 00	 call	 ?SetTargetRotAndMoveDirChange@ioBaseChar@@QAEXABUD3DXQUATERNION@@_N@Z ; ioBaseChar::SetTargetRotAndMoveDirChange

; 980  : 
; 981  : 		if( pOwner->IsNeedSendNetwork() )

  00216	8b 03		 mov	 eax, DWORD PTR [ebx]
  00218	8b cb		 mov	 ecx, ebx
  0021a	ff 90 04 01 00
	00		 call	 DWORD PTR [eax+260]
  00220	84 c0		 test	 al, al
  00222	0f 84 ad 00 00
	00		 je	 $LN1@SetChargeS@2

; 982  : 		{
; 983  : 			SP2Packet kPacket( CUPK_COUNTER_ATTACK_SYNC );

  00228	68 42 42 00 00	 push	 16962			; 00004242H
  0022d	8d 8d b4 7f ff
	ff		 lea	 ecx, DWORD PTR _kPacket$532894[ebp]
  00233	e8 00 00 00 00	 call	 ??0SP2Packet@@QAE@K@Z	; SP2Packet::SP2Packet

; 984  : 			kPacket << pOwner->GetCharName();

  00238	8d 83 d4 02 00
	00		 lea	 eax, DWORD PTR [ebx+724]
  0023e	50		 push	 eax
  0023f	8d 8d b4 7f ff
	ff		 lea	 ecx, DWORD PTR _kPacket$532894[ebp]
  00245	89 7d fc	 mov	 DWORD PTR __$EHRec$[ebp+8], edi
  00248	e8 00 00 00 00	 call	 ??6SP2Packet@@QAEAAV0@ABVioHashString@@@Z ; SP2Packet::operator<<

; 985  : 			kPacket << (int)pCounter->GetType();

  0024d	8b 8d a8 7f ff
	ff		 mov	 ecx, DWORD PTR _pCounter$GSCopy$[ebp]
  00253	8b 01		 mov	 eax, DWORD PTR [ecx]
  00255	ff 50 04	 call	 DWORD PTR [eax+4]
  00258	50		 push	 eax
  00259	8d 8d b4 7f ff
	ff		 lea	 ecx, DWORD PTR _kPacket$532894[ebp]
  0025f	e8 00 00 00 00	 call	 ??6SP2Packet@@QAEAAV0@H@Z ; SP2Packet::operator<<

; 986  : 			kPacket << pOwner->GetHP().m_fCurValue;

  00264	8d 83 c0 00 00
	00		 lea	 eax, DWORD PTR [ebx+192]
  0026a	50		 push	 eax
  0026b	8d 8d b4 7f ff
	ff		 lea	 ecx, DWORD PTR _kPacket$532894[ebp]
  00271	e8 00 00 00 00	 call	 ??6SP2Packet@@QAEAAV0@AAV?$CEncrypt@M@@@Z ; SP2Packet::operator<<

; 987  : 			kPacket << ioChargeComboCounter::CCS_Special_Charge_Attack;

  00276	6a 05		 push	 5
  00278	8d 8d b4 7f ff
	ff		 lea	 ecx, DWORD PTR _kPacket$532894[ebp]
  0027e	e8 00 00 00 00	 call	 ??6SP2Packet@@QAEAAV0@H@Z ; SP2Packet::operator<<

; 988  : 			kPacket << pOwner->GetWorldPosition();

  00283	8b 03		 mov	 eax, DWORD PTR [ebx]
  00285	8b cb		 mov	 ecx, ebx
  00287	ff 50 70	 call	 DWORD PTR [eax+112]
  0028a	50		 push	 eax
  0028b	8d 8d b4 7f ff
	ff		 lea	 ecx, DWORD PTR _kPacket$532894[ebp]
  00291	e8 00 00 00 00	 call	 ??6SP2Packet@@QAEAAV0@ABUD3DXVECTOR3@@@Z ; SP2Packet::operator<<

; 989  : 			kPacket << pOwner->GetWorldOrientation();

  00296	8b 03		 mov	 eax, DWORD PTR [ebx]
  00298	8b cb		 mov	 ecx, ebx
  0029a	ff 50 74	 call	 DWORD PTR [eax+116]
  0029d	50		 push	 eax
  0029e	8d 8d b4 7f ff
	ff		 lea	 ecx, DWORD PTR _kPacket$532894[ebp]
  002a4	e8 00 00 00 00	 call	 ??6SP2Packet@@QAEAAV0@ABUD3DXQUATERNION@@@Z ; SP2Packet::operator<<

; 990  : 			pOwner->FillAutoTargetInfo( kPacket );

  002a9	8d 85 b4 7f ff
	ff		 lea	 eax, DWORD PTR _kPacket$532894[ebp]
  002af	50		 push	 eax
  002b0	8b cb		 mov	 ecx, ebx
  002b2	e8 00 00 00 00	 call	 ?FillAutoTargetInfo@ioBaseChar@@QAEXAAVSP2Packet@@@Z ; ioBaseChar::FillAutoTargetInfo

; 991  : 			P2PNetwork::SendToAllPlayingUser( kPacket );

  002b7	8d 85 b4 7f ff
	ff		 lea	 eax, DWORD PTR _kPacket$532894[ebp]
  002bd	57		 push	 edi
  002be	50		 push	 eax
  002bf	e8 00 00 00 00	 call	 ?SendToAllPlayingUser@P2PNetwork@@YAXAAVSP2Packet@@PAVioBaseChar@@@Z ; P2PNetwork::SendToAllPlayingUser

; 992  : 		}

  002c4	83 4d fc ff	 or	 DWORD PTR __$EHRec$[ebp+8], -1
  002c8	59		 pop	 ecx
  002c9	59		 pop	 ecx
  002ca	8d 8d b4 7f ff
	ff		 lea	 ecx, DWORD PTR _kPacket$532894[ebp]
  002d0	e8 00 00 00 00	 call	 ??1SP2Packet@@UAE@XZ	; SP2Packet::~SP2Packet
$LN1@SetChargeS@2:

; 993  : 	}
; 994  : 
; 995  : 	return true;

  002d5	b0 01		 mov	 al, 1
  002d7	eb 02		 jmp	 SHORT $LN7@SetChargeS@2
$LN5@SetChargeS@2:

; 948  : 		return false;

  002d9	32 c0		 xor	 al, al
$LN7@SetChargeS@2:

; 996  : }

  002db	8b 4d f4	 mov	 ecx, DWORD PTR __$EHRec$[ebp]
  002de	64 89 0d 00 00
	00 00		 mov	 DWORD PTR fs:0, ecx
  002e5	59		 pop	 ecx
  002e6	5f		 pop	 edi
  002e7	5e		 pop	 esi
  002e8	5b		 pop	 ebx
  002e9	8b 4d f0	 mov	 ecx, DWORD PTR __$ArrayPad$[ebp]
  002ec	33 cd		 xor	 ecx, ebp
  002ee	e8 00 00 00 00	 call	 @__security_check_cookie@4
  002f3	c9		 leave
  002f4	c2 08 00	 ret	 8
_TEXT	ENDS
;	COMDAT text$x
text$x	SEGMENT
__unwindfunclet$?SetChargeState@ioShadowChargeComboCounter@@MAE_NPAVioBaseChar@@PAVioChargeComboCounter@@@Z$0:
  00000	8d 8d b4 7f ff
	ff		 lea	 ecx, DWORD PTR _kPacket$532894[ebp]
  00006	e9 00 00 00 00	 jmp	 ??1SP2Packet@@UAE@XZ	; SP2Packet::~SP2Packet
__ehhandler$?SetChargeState@ioShadowChargeComboCounter@@MAE_NPAVioBaseChar@@PAVioChargeComboCounter@@@Z:
  0000b	8b 54 24 08	 mov	 edx, DWORD PTR [esp+8]
  0000f	8d 42 0c	 lea	 eax, DWORD PTR [edx+12]
  00012	8b 8a 94 7f ff
	ff		 mov	 ecx, DWORD PTR [edx-32876]
  00018	33 c8		 xor	 ecx, eax
  0001a	e8 00 00 00 00	 call	 @__security_check_cookie@4
  0001f	8b 4a fc	 mov	 ecx, DWORD PTR [edx-4]
  00022	33 c8		 xor	 ecx, eax
  00024	e8 00 00 00 00	 call	 @__security_check_cookie@4
  00029	b8 00 00 00 00	 mov	 eax, OFFSET __ehfuncinfo$?SetChargeState@ioShadowChargeComboCounter@@MAE_NPAVioBaseChar@@PAVioChargeComboCounter@@@Z
  0002e	e9 00 00 00 00	 jmp	 ___CxxFrameHandler3
text$x	ENDS
?SetChargeState@ioShadowChargeComboCounter@@MAE_NPAVioBaseChar@@PAVioChargeComboCounter@@@Z ENDP ; ioShadowChargeComboCounter::SetChargeState
PUBLIC	__$ArrayPad$
PUBLIC	?SetShadowRangerComboState@ioShadowChargeComboCounter@@IAEXPAVioBaseChar@@PAVioChargeComboCounter@@@Z ; ioShadowChargeComboCounter::SetShadowRangerComboState
EXTRN	?SetTargetRotToDirKey@ioBaseChar@@QAEXW4DirKeyInput@ioUserKeyInput@@@Z:PROC ; ioBaseChar::SetTargetRotToDirKey
EXTRN	?CheckCurDirKey@ioBaseChar@@QAE?AW4DirKeyInput@ioUserKeyInput@@XZ:PROC ; ioBaseChar::CheckCurDirKey
EXTRN	?IsSettedDirection@ioBaseChar@@QBE_NXZ:PROC	; ioBaseChar::IsSettedDirection
EXTRN	?InitActionStopDelay@ioBaseChar@@QAEX_N@Z:PROC	; ioBaseChar::InitActionStopDelay
;	COMDAT xdata$x
; File d:\lost saga for developer\youtube\tutorial\source\src\lsclient\ioplayentity.h
xdata$x	SEGMENT
__unwindtable$?SetShadowRangerComboState@ioShadowChargeComboCounter@@IAEXPAVioBaseChar@@PAVioChargeComboCounter@@@Z DD 0ffffffffH
	DD	FLAT:__unwindfunclet$?SetShadowRangerComboState@ioShadowChargeComboCounter@@IAEXPAVioBaseChar@@PAVioChargeComboCounter@@@Z$0
__ehfuncinfo$?SetShadowRangerComboState@ioShadowChargeComboCounter@@IAEXPAVioBaseChar@@PAVioChargeComboCounter@@@Z DD 019930522H
	DD	01H
	DD	FLAT:__unwindtable$?SetShadowRangerComboState@ioShadowChargeComboCounter@@IAEXPAVioBaseChar@@PAVioChargeComboCounter@@@Z
	DD	2 DUP(00H)
	DD	2 DUP(00H)
	DD	00H
	DD	01H
; Function compile flags: /Ogsp
; File d:\lost saga for developer\youtube\tutorial\source\src\lsclient\iochargecombocounter.cpp
xdata$x	ENDS
;	COMDAT ?SetShadowRangerComboState@ioShadowChargeComboCounter@@IAEXPAVioBaseChar@@PAVioChargeComboCounter@@@Z
_TEXT	SEGMENT
_kPacket$532911 = -32808				; size = 32792
__$ArrayPad$ = -16					; size = 4
__$EHRec$ = -12						; size = 12
_pOwner$ = 8						; size = 4
_pCounter$ = 12						; size = 4
?SetShadowRangerComboState@ioShadowChargeComboCounter@@IAEXPAVioBaseChar@@PAVioChargeComboCounter@@@Z PROC ; ioShadowChargeComboCounter::SetShadowRangerComboState, COMDAT
; _this$ = ecx

; 999  : {

  00000	55		 push	 ebp
  00001	8b ec		 mov	 ebp, esp
  00003	6a ff		 push	 -1
  00005	68 00 00 00 00	 push	 __ehhandler$?SetShadowRangerComboState@ioShadowChargeComboCounter@@IAEXPAVioBaseChar@@PAVioChargeComboCounter@@@Z
  0000a	64 a1 00 00 00
	00		 mov	 eax, DWORD PTR fs:0
  00010	50		 push	 eax
  00011	b8 1c 80 00 00	 mov	 eax, 32796		; 0000801cH
  00016	e8 00 00 00 00	 call	 __chkstk
  0001b	a1 00 00 00 00	 mov	 eax, DWORD PTR ___security_cookie
  00020	33 c5		 xor	 eax, ebp
  00022	89 45 f0	 mov	 DWORD PTR __$ArrayPad$[ebp], eax
  00025	53		 push	 ebx
  00026	56		 push	 esi
  00027	57		 push	 edi
  00028	50		 push	 eax
  00029	8d 45 f4	 lea	 eax, DWORD PTR __$EHRec$[ebp]
  0002c	64 a3 00 00 00
	00		 mov	 DWORD PTR fs:0, eax
  00032	8b 7d 08	 mov	 edi, DWORD PTR _pOwner$[ebp]
  00035	8b 5d 0c	 mov	 ebx, DWORD PTR _pCounter$[ebp]
  00038	8b f1		 mov	 esi, ecx

; 1000 : 	if ( !pOwner || !pCounter || m_ShadowRangerComboAttList.empty() )

  0003a	85 ff		 test	 edi, edi
  0003c	0f 84 69 01 00
	00		 je	 $LN4@SetShadowR
  00042	85 db		 test	 ebx, ebx
  00044	0f 84 61 01 00
	00		 je	 $LN4@SetShadowR
  0004a	8b 4e 68	 mov	 ecx, DWORD PTR [esi+104]
  0004d	8b 46 6c	 mov	 eax, DWORD PTR [esi+108]
  00050	3b c8		 cmp	 ecx, eax
  00052	0f 84 53 01 00
	00		 je	 $LN4@SetShadowR

; 1001 : 		return;
; 1002 : 
; 1003 : 	if ( !COMPARE( m_nShadowRangerTeleportComboCurCnt, 0, (int)m_ShadowRangerComboAttList.size() ) )

  00058	83 be 80 00 00
	00 00		 cmp	 DWORD PTR [esi+128], 0
  0005f	0f 8c 46 01 00
	00		 jl	 $LN4@SetShadowR
  00065	2b c1		 sub	 eax, ecx
  00067	6a 50		 push	 80			; 00000050H
  00069	99		 cdq
  0006a	59		 pop	 ecx
  0006b	f7 f9		 idiv	 ecx
  0006d	39 86 80 00 00
	00		 cmp	 DWORD PTR [esi+128], eax
  00073	0f 8d 32 01 00
	00		 jge	 $LN4@SetShadowR

; 1004 : 		return;
; 1005 : 
; 1006 : 	// 4    
; 1007 : 	pOwner->InitActionStopDelay( true );

  00079	6a 01		 push	 1
  0007b	8b cf		 mov	 ecx, edi
  0007d	e8 00 00 00 00	 call	 ?InitActionStopDelay@ioBaseChar@@QAEX_N@Z ; ioBaseChar::InitActionStopDelay

; 1008 : 
; 1009 : 	const AttackAttribute &pAttribute = m_ShadowRangerComboAttList[m_nShadowRangerTeleportComboCurCnt];

  00082	8b 86 80 00 00
	00		 mov	 eax, DWORD PTR [esi+128]

; 1010 : 	CounterAttack( pOwner, pCounter, &pAttribute, false );

  00088	8b 16		 mov	 edx, DWORD PTR [esi]
  0008a	6b c0 50	 imul	 eax, 80			; 00000050H
  0008d	03 46 68	 add	 eax, DWORD PTR [esi+104]
  00090	6a 00		 push	 0
  00092	50		 push	 eax
  00093	53		 push	 ebx
  00094	57		 push	 edi
  00095	8b ce		 mov	 ecx, esi
  00097	ff 52 18	 call	 DWORD PTR [edx+24]

; 1011 : 
; 1012 : 	m_ShadowSpecialState = SSS_Combo;

  0009a	c7 46 7c 02 00
	00 00		 mov	 DWORD PTR [esi+124], 2

; 1013 : 		
; 1014 : 	pCounter->SetAttackKeyReserved( false );

  000a1	66 c7 83 b8 01
	00 00 00 00	 mov	 WORD PTR [ebx+440], 0

; 1015 : 	pCounter->SetDefenseKeyReserved( false );
; 1016 : 	pCounter->SetJumpKeyReserved( false );

  000aa	c6 83 ba 01 00
	00 00		 mov	 BYTE PTR [ebx+442], 0

; 1017 : 	
; 1018 : 	if ( pOwner->IsNeedProcess() )

  000b1	8b 07		 mov	 eax, DWORD PTR [edi]
  000b3	8b cf		 mov	 ecx, edi
  000b5	ff 90 00 01 00
	00		 call	 DWORD PTR [eax+256]
  000bb	84 c0		 test	 al, al
  000bd	0f 84 e2 00 00
	00		 je	 $LN1@SetShadowR

; 1019 : 	{
; 1020 : 		ioUserKeyInput::DirKeyInput eNewDirKey = ioUserKeyInput::DKI_NONE;
; 1021 : 		if ( pOwner->IsSettedDirection() )

  000c3	8b cf		 mov	 ecx, edi
  000c5	e8 00 00 00 00	 call	 ?IsSettedDirection@ioBaseChar@@QBE_NXZ ; ioBaseChar::IsSettedDirection
  000ca	84 c0		 test	 al, al
  000cc	74 0f		 je	 SHORT $LN2@SetShadowR

; 1022 : 		{
; 1023 : 			eNewDirKey = pOwner->CheckCurDirKey();

  000ce	8b cf		 mov	 ecx, edi
  000d0	e8 00 00 00 00	 call	 ?CheckCurDirKey@ioBaseChar@@QAE?AW4DirKeyInput@ioUserKeyInput@@XZ ; ioBaseChar::CheckCurDirKey

; 1024 : 			pOwner->SetTargetRotToDirKey( eNewDirKey );

  000d5	50		 push	 eax
  000d6	8b cf		 mov	 ecx, edi
  000d8	e8 00 00 00 00	 call	 ?SetTargetRotToDirKey@ioBaseChar@@QAEXW4DirKeyInput@ioUserKeyInput@@@Z ; ioBaseChar::SetTargetRotToDirKey
$LN2@SetShadowR:

; 1025 : 		}
; 1026 : 		
; 1027 : 		if( pOwner->IsNeedSendNetwork() )

  000dd	8b 07		 mov	 eax, DWORD PTR [edi]
  000df	8b cf		 mov	 ecx, edi
  000e1	ff 90 04 01 00
	00		 call	 DWORD PTR [eax+260]
  000e7	84 c0		 test	 al, al
  000e9	0f 84 b6 00 00
	00		 je	 $LN1@SetShadowR

; 1028 : 		{
; 1029 : 			SP2Packet kPacket( CUPK_COUNTER_ATTACK_SYNC );

  000ef	68 42 42 00 00	 push	 16962			; 00004242H
  000f4	8d 8d d8 7f ff
	ff		 lea	 ecx, DWORD PTR _kPacket$532911[ebp]
  000fa	e8 00 00 00 00	 call	 ??0SP2Packet@@QAE@K@Z	; SP2Packet::SP2Packet
  000ff	83 65 fc 00	 and	 DWORD PTR __$EHRec$[ebp+8], 0

; 1030 : 			kPacket << pOwner->GetCharName();

  00103	8d 87 d4 02 00
	00		 lea	 eax, DWORD PTR [edi+724]
  00109	50		 push	 eax
  0010a	8d 8d d8 7f ff
	ff		 lea	 ecx, DWORD PTR _kPacket$532911[ebp]
  00110	e8 00 00 00 00	 call	 ??6SP2Packet@@QAEAAV0@ABVioHashString@@@Z ; SP2Packet::operator<<

; 1031 : 			kPacket << (int)pCounter->GetType();

  00115	8b 03		 mov	 eax, DWORD PTR [ebx]
  00117	8b cb		 mov	 ecx, ebx
  00119	ff 50 04	 call	 DWORD PTR [eax+4]
  0011c	50		 push	 eax
  0011d	8d 8d d8 7f ff
	ff		 lea	 ecx, DWORD PTR _kPacket$532911[ebp]
  00123	e8 00 00 00 00	 call	 ??6SP2Packet@@QAEAAV0@H@Z ; SP2Packet::operator<<

; 1032 : 			kPacket << pOwner->GetHP().m_fCurValue;

  00128	8d 87 c0 00 00
	00		 lea	 eax, DWORD PTR [edi+192]
  0012e	50		 push	 eax
  0012f	8d 8d d8 7f ff
	ff		 lea	 ecx, DWORD PTR _kPacket$532911[ebp]
  00135	e8 00 00 00 00	 call	 ??6SP2Packet@@QAEAAV0@AAV?$CEncrypt@M@@@Z ; SP2Packet::operator<<

; 1033 : 			kPacket << ioChargeComboCounter::CCS_Special_Process;

  0013a	6a 06		 push	 6
  0013c	8d 8d d8 7f ff
	ff		 lea	 ecx, DWORD PTR _kPacket$532911[ebp]
  00142	e8 00 00 00 00	 call	 ??6SP2Packet@@QAEAAV0@H@Z ; SP2Packet::operator<<

; 1034 : 			kPacket << SSS_Combo;

  00147	6a 02		 push	 2
  00149	8d 8d d8 7f ff
	ff		 lea	 ecx, DWORD PTR _kPacket$532911[ebp]
  0014f	e8 00 00 00 00	 call	 ??6SP2Packet@@QAEAAV0@H@Z ; SP2Packet::operator<<

; 1035 : 			kPacket << m_nShadowRangerTeleportComboCurCnt;

  00154	ff b6 80 00 00
	00		 push	 DWORD PTR [esi+128]
  0015a	8d 8d d8 7f ff
	ff		 lea	 ecx, DWORD PTR _kPacket$532911[ebp]
  00160	e8 00 00 00 00	 call	 ??6SP2Packet@@QAEAAV0@H@Z ; SP2Packet::operator<<

; 1036 : 			kPacket << pOwner->GetWorldOrientation();

  00165	8b 07		 mov	 eax, DWORD PTR [edi]
  00167	8b cf		 mov	 ecx, edi
  00169	ff 50 74	 call	 DWORD PTR [eax+116]
  0016c	50		 push	 eax
  0016d	8d 8d d8 7f ff
	ff		 lea	 ecx, DWORD PTR _kPacket$532911[ebp]
  00173	e8 00 00 00 00	 call	 ??6SP2Packet@@QAEAAV0@ABUD3DXQUATERNION@@@Z ; SP2Packet::operator<<

; 1037 : 			pOwner->FillAutoTargetInfo( kPacket );

  00178	8d 85 d8 7f ff
	ff		 lea	 eax, DWORD PTR _kPacket$532911[ebp]
  0017e	50		 push	 eax
  0017f	8b cf		 mov	 ecx, edi
  00181	e8 00 00 00 00	 call	 ?FillAutoTargetInfo@ioBaseChar@@QAEXAAVSP2Packet@@@Z ; ioBaseChar::FillAutoTargetInfo

; 1038 : 			P2PNetwork::SendToAllPlayingUser( kPacket );

  00186	8d 85 d8 7f ff
	ff		 lea	 eax, DWORD PTR _kPacket$532911[ebp]
  0018c	6a 00		 push	 0
  0018e	50		 push	 eax
  0018f	e8 00 00 00 00	 call	 ?SendToAllPlayingUser@P2PNetwork@@YAXAAVSP2Packet@@PAVioBaseChar@@@Z ; P2PNetwork::SendToAllPlayingUser

; 1039 : 		}

  00194	83 4d fc ff	 or	 DWORD PTR __$EHRec$[ebp+8], -1
  00198	59		 pop	 ecx
  00199	59		 pop	 ecx
  0019a	8d 8d d8 7f ff
	ff		 lea	 ecx, DWORD PTR _kPacket$532911[ebp]
  001a0	e8 00 00 00 00	 call	 ??1SP2Packet@@UAE@XZ	; SP2Packet::~SP2Packet
$LN1@SetShadowR:

; 1040 : 	}
; 1041 : 
; 1042 : 	m_nShadowRangerTeleportComboCurCnt++;

  001a5	ff 86 80 00 00
	00		 inc	 DWORD PTR [esi+128]
$LN4@SetShadowR:

; 1043 : }

  001ab	8b 4d f4	 mov	 ecx, DWORD PTR __$EHRec$[ebp]
  001ae	64 89 0d 00 00
	00 00		 mov	 DWORD PTR fs:0, ecx
  001b5	59		 pop	 ecx
  001b6	5f		 pop	 edi
  001b7	5e		 pop	 esi
  001b8	5b		 pop	 ebx
  001b9	8b 4d f0	 mov	 ecx, DWORD PTR __$ArrayPad$[ebp]
  001bc	33 cd		 xor	 ecx, ebp
  001be	e8 00 00 00 00	 call	 @__security_check_cookie@4
  001c3	c9		 leave
  001c4	c2 08 00	 ret	 8
_TEXT	ENDS
;	COMDAT text$x
text$x	SEGMENT
__unwindfunclet$?SetShadowRangerComboState@ioShadowChargeComboCounter@@IAEXPAVioBaseChar@@PAVioChargeComboCounter@@@Z$0:
  00000	8d 8d d8 7f ff
	ff		 lea	 ecx, DWORD PTR _kPacket$532911[ebp]
  00006	e9 00 00 00 00	 jmp	 ??1SP2Packet@@UAE@XZ	; SP2Packet::~SP2Packet
__ehhandler$?SetShadowRangerComboState@ioShadowChargeComboCounter@@IAEXPAVioBaseChar@@PAVioChargeComboCounter@@@Z:
  0000b	8b 54 24 08	 mov	 edx, DWORD PTR [esp+8]
  0000f	8d 42 0c	 lea	 eax, DWORD PTR [edx+12]
  00012	8b 8a d4 7f ff
	ff		 mov	 ecx, DWORD PTR [edx-32812]
  00018	33 c8		 xor	 ecx, eax
  0001a	e8 00 00 00 00	 call	 @__security_check_cookie@4
  0001f	8b 4a fc	 mov	 ecx, DWORD PTR [edx-4]
  00022	33 c8		 xor	 ecx, eax
  00024	e8 00 00 00 00	 call	 @__security_check_cookie@4
  00029	b8 00 00 00 00	 mov	 eax, OFFSET __ehfuncinfo$?SetShadowRangerComboState@ioShadowChargeComboCounter@@IAEXPAVioBaseChar@@PAVioChargeComboCounter@@@Z
  0002e	e9 00 00 00 00	 jmp	 ___CxxFrameHandler3
text$x	ENDS
?SetShadowRangerComboState@ioShadowChargeComboCounter@@IAEXPAVioBaseChar@@PAVioChargeComboCounter@@@Z ENDP ; ioShadowChargeComboCounter::SetShadowRangerComboState
PUBLIC	?CheckShadowRangerComboInput@ioShadowChargeComboCounter@@IAE_NPAVioBaseChar@@PAVioChargeComboCounter@@@Z ; ioShadowChargeComboCounter::CheckShadowRangerComboInput
EXTRN	__imp_?GetLoopSec@ioFrameTimer@@QBEKXZ:PROC
EXTRN	__imp_?GetSingleton@ioFrameTimer@@SAAAV1@XZ:PROC
; Function compile flags: /Ogsp
;	COMDAT ?CheckShadowRangerComboInput@ioShadowChargeComboCounter@@IAE_NPAVioBaseChar@@PAVioChargeComboCounter@@@Z
_TEXT	SEGMENT
_pOwner$ = 8						; size = 4
_pCounter$ = 12						; size = 4
?CheckShadowRangerComboInput@ioShadowChargeComboCounter@@IAE_NPAVioBaseChar@@PAVioChargeComboCounter@@@Z PROC ; ioShadowChargeComboCounter::CheckShadowRangerComboInput, COMDAT
; _this$ = ecx

; 1076 : {

  00000	55		 push	 ebp
  00001	8b ec		 mov	 ebp, esp
  00003	56		 push	 esi
  00004	57		 push	 edi

; 1077 : 	if ( !pOwner || !pOwner->IsNeedProcess() )

  00005	8b 7d 08	 mov	 edi, DWORD PTR _pOwner$[ebp]
  00008	8b f1		 mov	 esi, ecx
  0000a	85 ff		 test	 edi, edi
  0000c	74 50		 je	 SHORT $LN3@CheckShado
  0000e	8b 07		 mov	 eax, DWORD PTR [edi]
  00010	8b cf		 mov	 ecx, edi
  00012	ff 90 00 01 00
	00		 call	 DWORD PTR [eax+256]
  00018	84 c0		 test	 al, al
  0001a	74 42		 je	 SHORT $LN3@CheckShado

; 1079 : 		
; 1080 : 	if( pOwner->IsAttackKey() )

  0001c	8b cf		 mov	 ecx, edi
  0001e	e8 00 00 00 00	 call	 ?IsAttackKey@ioBaseChar@@QBE_NXZ ; ioBaseChar::IsAttackKey
  00023	84 c0		 test	 al, al
  00025	74 37		 je	 SHORT $LN3@CheckShado

; 1081 : 	{
; 1082 : 		DWORD dwCurTime = FRAMEGETTIME();

  00027	ff 15 00 00 00
	00		 call	 DWORD PTR __imp_?GetSingleton@ioFrameTimer@@SAAAV1@XZ
  0002d	8b c8		 mov	 ecx, eax
  0002f	ff 15 00 00 00
	00		 call	 DWORD PTR __imp_?GetLoopSec@ioFrameTimer@@QBEKXZ

; 1083 : 		if( pCounter->GetEnableReserveKeyTime() > 0 && pCounter->GetEnableReserveKeyTime() < dwCurTime && m_nShadowRangerTeleportComboCurCnt < m_nShadowRangerTeleportComboMaxCnt )

  00035	8b 55 0c	 mov	 edx, DWORD PTR _pCounter$[ebp]
  00038	8b 8a b0 01 00
	00		 mov	 ecx, DWORD PTR [edx+432]
  0003e	85 c9		 test	 ecx, ecx
  00040	74 1c		 je	 SHORT $LN3@CheckShado
  00042	3b c8		 cmp	 ecx, eax
  00044	73 18		 jae	 SHORT $LN3@CheckShado
  00046	8b 86 80 00 00
	00		 mov	 eax, DWORD PTR [esi+128]
  0004c	3b 46 78	 cmp	 eax, DWORD PTR [esi+120]
  0004f	7d 0d		 jge	 SHORT $LN3@CheckShado

; 1084 : 		{
; 1085 : 			SetShadowRangerComboState( pOwner, pCounter );

  00051	52		 push	 edx
  00052	57		 push	 edi
  00053	8b ce		 mov	 ecx, esi
  00055	e8 00 00 00 00	 call	 ?SetShadowRangerComboState@ioShadowChargeComboCounter@@IAEXPAVioBaseChar@@PAVioChargeComboCounter@@@Z ; ioShadowChargeComboCounter::SetShadowRangerComboState

; 1086 : 			return true;

  0005a	b0 01		 mov	 al, 1
  0005c	eb 02		 jmp	 SHORT $LN5@CheckShado
$LN3@CheckShado:

; 1078 : 		return false;

  0005e	32 c0		 xor	 al, al
$LN5@CheckShado:
  00060	5f		 pop	 edi
  00061	5e		 pop	 esi

; 1087 : 		}
; 1088 : 	}
; 1089 : 
; 1090 : 	return false;
; 1091 : }

  00062	5d		 pop	 ebp
  00063	c2 08 00	 ret	 8
?CheckShadowRangerComboInput@ioShadowChargeComboCounter@@IAE_NPAVioBaseChar@@PAVioChargeComboCounter@@@Z ENDP ; ioShadowChargeComboCounter::CheckShadowRangerComboInput
_TEXT	ENDS
PUBLIC	?ApplySpecialCAT@ioShadowChargeComboCounter@@MAEXPAVioBaseChar@@PAVioChargeComboCounter@@AAVSP2Packet@@@Z ; ioShadowChargeComboCounter::ApplySpecialCAT
EXTRN	?ApplyAutoTargetInfo@ioBaseChar@@QAEXAAVSP2Packet@@@Z:PROC ; ioBaseChar::ApplyAutoTargetInfo
EXTRN	??5SP2Packet@@QAEAAV0@AAUD3DXQUATERNION@@@Z:PROC ; SP2Packet::operator>>
EXTRN	??5SP2Packet@@QAEAAV0@AAH@Z:PROC		; SP2Packet::operator>>
; Function compile flags: /Ogsp
;	COMDAT ?ApplySpecialCAT@ioShadowChargeComboCounter@@MAEXPAVioBaseChar@@PAVioChargeComboCounter@@AAVSP2Packet@@@Z
_TEXT	SEGMENT
_qtRot$532952 = -16					; size = 16
_pOwner$ = 8						; size = 4
_pCounter$ = 12						; size = 4
_nSpecialState$ = 16					; size = 4
_rkPacket$ = 16						; size = 4
?ApplySpecialCAT@ioShadowChargeComboCounter@@MAEXPAVioBaseChar@@PAVioChargeComboCounter@@AAVSP2Packet@@@Z PROC ; ioShadowChargeComboCounter::ApplySpecialCAT, COMDAT
; _this$ = ecx

; 1094 : {

  00000	55		 push	 ebp
  00001	8b ec		 mov	 ebp, esp
  00003	83 ec 10	 sub	 esp, 16			; 00000010H
  00006	56		 push	 esi
  00007	57		 push	 edi

; 1095 : 	int nSpecialState;
; 1096 : 	rkPacket >> nSpecialState;

  00008	8b 7d 10	 mov	 edi, DWORD PTR _rkPacket$[ebp]
  0000b	8d 45 10	 lea	 eax, DWORD PTR _nSpecialState$[ebp]
  0000e	8b f1		 mov	 esi, ecx
  00010	50		 push	 eax
  00011	8b cf		 mov	 ecx, edi
  00013	e8 00 00 00 00	 call	 ??5SP2Packet@@QAEAAV0@AAH@Z ; SP2Packet::operator>>

; 1097 : 
; 1098 : 	switch ( nSpecialState )

  00018	8b 45 10	 mov	 eax, DWORD PTR _nSpecialState$[ebp]
  0001b	48		 dec	 eax
  0001c	48		 dec	 eax
  0001d	75 3d		 jne	 SHORT $LN2@ApplySpeci@2

; 1099 : 	{
; 1100 : 	case SSS_Combo:
; 1101 : 		{
; 1102 : 			rkPacket >> m_nShadowRangerTeleportComboCurCnt;

  0001f	8d 86 80 00 00
	00		 lea	 eax, DWORD PTR [esi+128]
  00025	50		 push	 eax
  00026	8b cf		 mov	 ecx, edi
  00028	e8 00 00 00 00	 call	 ??5SP2Packet@@QAEAAV0@AAH@Z ; SP2Packet::operator>>

; 1103 : 			D3DXQUATERNION qtRot;
; 1104 : 			rkPacket >> qtRot;

  0002d	8d 45 f0	 lea	 eax, DWORD PTR _qtRot$532952[ebp]
  00030	50		 push	 eax
  00031	8b cf		 mov	 ecx, edi
  00033	e8 00 00 00 00	 call	 ??5SP2Packet@@QAEAAV0@AAUD3DXQUATERNION@@@Z ; SP2Packet::operator>>

; 1105 : 
; 1106 : 			pOwner->SetTargetRotAndMoveDirChange( qtRot );

  00038	8b 4d 08	 mov	 ecx, DWORD PTR _pOwner$[ebp]
  0003b	6a 00		 push	 0
  0003d	8d 45 f0	 lea	 eax, DWORD PTR _qtRot$532952[ebp]
  00040	50		 push	 eax
  00041	e8 00 00 00 00	 call	 ?SetTargetRotAndMoveDirChange@ioBaseChar@@QAEXABUD3DXQUATERNION@@_N@Z ; ioBaseChar::SetTargetRotAndMoveDirChange

; 1107 : 			SetShadowRangerComboState( pOwner, pCounter );

  00046	ff 75 0c	 push	 DWORD PTR _pCounter$[ebp]
  00049	8b ce		 mov	 ecx, esi
  0004b	ff 75 08	 push	 DWORD PTR _pOwner$[ebp]
  0004e	e8 00 00 00 00	 call	 ?SetShadowRangerComboState@ioShadowChargeComboCounter@@IAEXPAVioBaseChar@@PAVioChargeComboCounter@@@Z ; ioShadowChargeComboCounter::SetShadowRangerComboState

; 1108 : 			pOwner->ApplyAutoTargetInfo( rkPacket );

  00053	8b 4d 08	 mov	 ecx, DWORD PTR _pOwner$[ebp]
  00056	57		 push	 edi
  00057	e8 00 00 00 00	 call	 ?ApplyAutoTargetInfo@ioBaseChar@@QAEXAAVSP2Packet@@@Z ; ioBaseChar::ApplyAutoTargetInfo
$LN2@ApplySpeci@2:
  0005c	5f		 pop	 edi
  0005d	5e		 pop	 esi

; 1109 : 		}
; 1110 : 		break;
; 1111 : 	}
; 1112 : }

  0005e	c9		 leave
  0005f	c2 0c 00	 ret	 12			; 0000000cH
?ApplySpecialCAT@ioShadowChargeComboCounter@@MAEXPAVioBaseChar@@PAVioChargeComboCounter@@AAVSP2Packet@@@Z ENDP ; ioShadowChargeComboCounter::ApplySpecialCAT
_TEXT	ENDS
PUBLIC	?SetChargeState@ioLeeSunSinExtendCounter@@MAE_NPAVioBaseChar@@PAVioChargeComboCounter@@@Z ; ioLeeSunSinExtendCounter::SetChargeState
EXTRN	?GetNeedGaugeByMax@ioLeeSunSin@@QAEHXZ:PROC	; ioLeeSunSin::GetNeedGaugeByMax
EXTRN	?GetNeedBullet@ioLeeSunSin@@QAEHXZ:PROC		; ioLeeSunSin::GetNeedBullet
EXTRN	?GetPriorityItem@ioBaseChar@@QBEPAVioAttackableItem@@W4StatePriorityType@@@Z:PROC ; ioBaseChar::GetPriorityItem
; Function compile flags: /Ogsp
;	COMDAT ?SetChargeState@ioLeeSunSinExtendCounter@@MAE_NPAVioBaseChar@@PAVioChargeComboCounter@@@Z
_TEXT	SEGMENT
_pOwner$ = 8						; size = 4
_pCounter$ = 12						; size = 4
?SetChargeState@ioLeeSunSinExtendCounter@@MAE_NPAVioBaseChar@@PAVioChargeComboCounter@@@Z PROC ; ioLeeSunSinExtendCounter::SetChargeState, COMDAT
; _this$ = ecx

; 1160 : {

  00000	55		 push	 ebp
  00001	8b ec		 mov	 ebp, esp
  00003	53		 push	 ebx
  00004	56		 push	 esi
  00005	8b f1		 mov	 esi, ecx

; 1161 : 	if( !pOwner || !pCounter )

  00007	8b 4d 08	 mov	 ecx, DWORD PTR _pOwner$[ebp]
  0000a	57		 push	 edi
  0000b	85 c9		 test	 ecx, ecx
  0000d	0f 84 ba 00 00
	00		 je	 $LN5@SetChargeS@3
  00013	83 7d 0c 00	 cmp	 DWORD PTR _pCounter$[ebp], 0
  00017	0f 84 b0 00 00
	00		 je	 $LN5@SetChargeS@3

; 1163 : 
; 1164 : 	ioLeeSunSin* pItem = ToLeeSunSin( ToAttackableItem( pOwner->GetPriorityItem( SPT_DEFENSE ) ) );

  0001d	6a 00		 push	 0
  0001f	e8 00 00 00 00	 call	 ?GetPriorityItem@ioBaseChar@@QBEPAVioAttackableItem@@W4StatePriorityType@@@Z ; ioBaseChar::GetPriorityItem
  00024	50		 push	 eax
  00025	e8 00 00 00 00	 call	 ?ToAttackableItem@@YAPAVioAttackableItem@@PAVioItem@@@Z ; ToAttackableItem
  0002a	50		 push	 eax
  0002b	e8 00 00 00 00	 call	 ?ToLeeSunSin@@YAPAVioLeeSunSin@@PAVioItem@@@Z ; ToLeeSunSin
  00030	8b f8		 mov	 edi, eax
  00032	59		 pop	 ecx
  00033	59		 pop	 ecx

; 1165 : 	if( !pItem || pItem->GetNeedBullet() > pItem->GetCurBullet() )

  00034	85 ff		 test	 edi, edi
  00036	0f 84 91 00 00
	00		 je	 $LN5@SetChargeS@3
  0003c	8b 07		 mov	 eax, DWORD PTR [edi]
  0003e	8b cf		 mov	 ecx, edi
  00040	ff 50 64	 call	 DWORD PTR [eax+100]
  00043	8b cf		 mov	 ecx, edi
  00045	8b d8		 mov	 ebx, eax
  00047	e8 00 00 00 00	 call	 ?GetNeedBullet@ioLeeSunSin@@QAEHXZ ; ioLeeSunSin::GetNeedBullet
  0004c	3b c3		 cmp	 eax, ebx
  0004e	7f 7d		 jg	 SHORT $LN5@SetChargeS@3

; 1166 : 		return false;
; 1167 : 	
; 1168 : 	if( pItem->GetCurBullet() >= pItem->GetMaxBullet() )

  00050	8b 07		 mov	 eax, DWORD PTR [edi]
  00052	8b cf		 mov	 ecx, edi
  00054	ff 50 68	 call	 DWORD PTR [eax+104]
  00057	8b d8		 mov	 ebx, eax
  00059	8b 07		 mov	 eax, DWORD PTR [edi]
  0005b	8b cf		 mov	 ecx, edi
  0005d	ff 50 64	 call	 DWORD PTR [eax+100]
  00060	3b c3		 cmp	 eax, ebx

; 1169 : 	{
; 1170 : 		CounterAttack( pOwner, pCounter, &m_FullExtendCounter );

  00062	8b 06		 mov	 eax, DWORD PTR [esi]
  00064	8b 5d 0c	 mov	 ebx, DWORD PTR _pCounter$[ebp]
  00067	6a 01		 push	 1
  00069	7c 18		 jl	 SHORT $LN2@SetChargeS@3
  0006b	8d 4e 5c	 lea	 ecx, DWORD PTR [esi+92]
  0006e	51		 push	 ecx
  0006f	53		 push	 ebx
  00070	ff 75 08	 push	 DWORD PTR _pOwner$[ebp]
  00073	8b ce		 mov	 ecx, esi
  00075	ff 50 18	 call	 DWORD PTR [eax+24]

; 1171 : 		pItem->SetUseExtraGauge( pItem->GetNeedGaugeByMax() );

  00078	8b 37		 mov	 esi, DWORD PTR [edi]
  0007a	8b cf		 mov	 ecx, edi
  0007c	e8 00 00 00 00	 call	 ?GetNeedGaugeByMax@ioLeeSunSin@@QAEHXZ ; ioLeeSunSin::GetNeedGaugeByMax

; 1172 : 	}
; 1173 : 	else

  00081	eb 16		 jmp	 SHORT $LN17@SetChargeS@3
$LN2@SetChargeS@3:

; 1174 : 	{
; 1175 : 		CounterAttack( pOwner, pCounter, &m_ExtendCounter );

  00083	8d 4e 0c	 lea	 ecx, DWORD PTR [esi+12]
  00086	51		 push	 ecx
  00087	53		 push	 ebx
  00088	ff 75 08	 push	 DWORD PTR _pOwner$[ebp]
  0008b	8b ce		 mov	 ecx, esi
  0008d	ff 50 18	 call	 DWORD PTR [eax+24]

; 1176 : 		pItem->SetUseExtraGauge( pItem->GetNeedBullet() );

  00090	8b 37		 mov	 esi, DWORD PTR [edi]
  00092	8b cf		 mov	 ecx, edi
