; Listing generated by Microsoft (R) Optimizing Compiler Version 16.00.30319.01 

	TITLE	D:\Lost Saga For Developer\Youtube\Tutorial\Source\src\LSClient\ioChargingFireSkill.cpp
	.686P
	.XMM
	include listing.inc
	.model	flat

INCLUDELIB MSVCRT
INCLUDELIB OLDNAMES

PUBLIC	?_EEM_DS@?$deque@UD3DXVECTOR3@@V?$allocator@UD3DXVECTOR3@@@std@@@std@@2HB ; std::deque<D3DXVECTOR3,std::allocator<D3DXVECTOR3> >::_EEM_DS
;	COMDAT ?_EEM_DS@?$deque@UD3DXVECTOR3@@V?$allocator@UD3DXVECTOR3@@@std@@@std@@2HB
CONST	SEGMENT
?_EEM_DS@?$deque@UD3DXVECTOR3@@V?$allocator@UD3DXVECTOR3@@@std@@@std@@2HB DD 01H ; std::deque<D3DXVECTOR3,std::allocator<D3DXVECTOR3> >::_EEM_DS
CONST	ENDS
PUBLIC	?return1@@YAIXZ					; return1
; Function compile flags: /Ogsp
; File d:\lost saga for developer\youtube\tutorial\source\src\lsclient\stdafx.h
;	COMDAT ?return1@@YAIXZ
_TEXT	SEGMENT
?return1@@YAIXZ PROC					; return1, COMDAT

; 17   : 	__forceinline unsigned int return1() { __asm mov eax, 1 };

  00000	b8 01 00 00 00	 mov	 eax, 1
  00005	c3		 ret	 0
?return1@@YAIXZ ENDP					; return1
_TEXT	ENDS
PUBLIC	?return5@@YAIXZ					; return5
; Function compile flags: /Ogsp
;	COMDAT ?return5@@YAIXZ
_TEXT	SEGMENT
?return5@@YAIXZ PROC					; return5, COMDAT

; 18   : 	__forceinline unsigned int return5() { __asm mov eax, 5 };

  00000	b8 05 00 00 00	 mov	 eax, 5
  00005	c3		 ret	 0
?return5@@YAIXZ ENDP					; return5
_TEXT	ENDS
PUBLIC	?return10@@YAIXZ				; return10
; Function compile flags: /Ogsp
;	COMDAT ?return10@@YAIXZ
_TEXT	SEGMENT
?return10@@YAIXZ PROC					; return10, COMDAT

; 21   : 	__forceinline unsigned int return10() { __asm mov eax, 10 };

  00000	b8 0a 00 00 00	 mov	 eax, 10			; 0000000aH
  00005	c3		 ret	 0
?return10@@YAIXZ ENDP					; return10
_TEXT	ENDS
PUBLIC	?return100@@YAIXZ				; return100
; Function compile flags: /Ogsp
;	COMDAT ?return100@@YAIXZ
_TEXT	SEGMENT
?return100@@YAIXZ PROC					; return100, COMDAT

; 25   : 	__forceinline unsigned int return100() { __asm mov eax, 100 };

  00000	b8 64 00 00 00	 mov	 eax, 100		; 00000064H
  00005	c3		 ret	 0
?return100@@YAIXZ ENDP					; return100
_TEXT	ENDS
PUBLIC	?return1000@@YAIXZ				; return1000
; Function compile flags: /Ogsp
;	COMDAT ?return1000@@YAIXZ
_TEXT	SEGMENT
?return1000@@YAIXZ PROC					; return1000, COMDAT

; 29   : 	__forceinline unsigned int return1000() { __asm mov eax, 1000 };

  00000	b8 e8 03 00 00	 mov	 eax, 1000		; 000003e8H
  00005	c3		 ret	 0
?return1000@@YAIXZ ENDP					; return1000
_TEXT	ENDS
PUBLIC	?GetCharName@ioBaseChar@@QBEABVioHashString@@XZ	; ioBaseChar::GetCharName
; Function compile flags: /Ogsp
; File d:\lost saga for developer\youtube\tutorial\source\src\lsclient\iobasechar.h
;	COMDAT ?GetCharName@ioBaseChar@@QBEABVioHashString@@XZ
_TEXT	SEGMENT
?GetCharName@ioBaseChar@@QBEABVioHashString@@XZ PROC	; ioBaseChar::GetCharName, COMDAT
; _this$ = ecx

; 2594 : 	inline const ioHashString& GetCharName() const { return m_Name; }

  00000	8d 81 d4 02 00
	00		 lea	 eax, DWORD PTR [ecx+724]
  00006	c3		 ret	 0
?GetCharName@ioBaseChar@@QBEABVioHashString@@XZ ENDP	; ioBaseChar::GetCharName
_TEXT	ENDS
PUBLIC	?GetTargetRot@ioBaseChar@@QBEABUD3DXQUATERNION@@XZ ; ioBaseChar::GetTargetRot
; Function compile flags: /Ogsp
;	COMDAT ?GetTargetRot@ioBaseChar@@QBEABUD3DXQUATERNION@@XZ
_TEXT	SEGMENT
?GetTargetRot@ioBaseChar@@QBEABUD3DXQUATERNION@@XZ PROC	; ioBaseChar::GetTargetRot, COMDAT
; _this$ = ecx

; 2599 : 	inline const D3DXQUATERNION& GetTargetRot() const { return m_qtTargetRot; }

  00000	8d 81 a4 06 00
	00		 lea	 eax, DWORD PTR [ecx+1700]
  00006	c3		 ret	 0
?GetTargetRot@ioBaseChar@@QBEABUD3DXQUATERNION@@XZ ENDP	; ioBaseChar::GetTargetRot
_TEXT	ENDS
PUBLIC	?SetCurJumpPowerAmt@ioBaseChar@@QAEXM@Z		; ioBaseChar::SetCurJumpPowerAmt
EXTRN	__fltused:DWORD
; Function compile flags: /Ogsp
;	COMDAT ?SetCurJumpPowerAmt@ioBaseChar@@QAEXM@Z
_TEXT	SEGMENT
_fAmt$ = 8						; size = 4
?SetCurJumpPowerAmt@ioBaseChar@@QAEXM@Z PROC		; ioBaseChar::SetCurJumpPowerAmt, COMDAT
; _this$ = ecx

; 2628 : 	inline void SetCurJumpPowerAmt( float fAmt ) { m_fCurJumpPowerAmt = fAmt; }

  00000	55		 push	 ebp
  00001	8b ec		 mov	 ebp, esp
  00003	f3 0f 10 45 08	 movss	 xmm0, DWORD PTR _fAmt$[ebp]
  00008	f3 0f 11 81 90
	0e 00 00	 movss	 DWORD PTR [ecx+3728], xmm0
  00010	5d		 pop	 ebp
  00011	c2 04 00	 ret	 4
?SetCurJumpPowerAmt@ioBaseChar@@QAEXM@Z ENDP		; ioBaseChar::SetCurJumpPowerAmt
_TEXT	ENDS
PUBLIC	??_7bad_alloc@std@@6B@				; std::bad_alloc::`vftable'
PUBLIC	??0bad_alloc@std@@QAE@PBD@Z			; std::bad_alloc::bad_alloc
PUBLIC	??_R4bad_alloc@std@@6B@				; std::bad_alloc::`RTTI Complete Object Locator'
PUBLIC	??_R0?AVbad_alloc@std@@@8			; std::bad_alloc `RTTI Type Descriptor'
PUBLIC	??_R3bad_alloc@std@@8				; std::bad_alloc::`RTTI Class Hierarchy Descriptor'
PUBLIC	??_R2bad_alloc@std@@8				; std::bad_alloc::`RTTI Base Class Array'
PUBLIC	??_R1A@?0A@EA@bad_alloc@std@@8			; std::bad_alloc::`RTTI Base Class Descriptor at (0,-1,0,64)'
PUBLIC	??_R1A@?0A@EA@exception@std@@8			; std::exception::`RTTI Base Class Descriptor at (0,-1,0,64)'
PUBLIC	??_R0?AVexception@std@@@8			; std::exception `RTTI Type Descriptor'
PUBLIC	??_R3exception@std@@8				; std::exception::`RTTI Class Hierarchy Descriptor'
PUBLIC	??_R2exception@std@@8				; std::exception::`RTTI Base Class Array'
EXTRN	__imp_??0exception@std@@QAE@ABQBD@Z:PROC
EXTRN	??_7type_info@@6B@:QWORD			; type_info::`vftable'
EXTRN	??_Ebad_alloc@std@@UAEPAXI@Z:PROC		; std::bad_alloc::`vector deleting destructor'
EXTRN	?what@exception@std@@UBEPBDXZ:PROC		; std::exception::what
;	COMDAT ??_R2exception@std@@8
; File c:\program files (x86)\microsoft visual studio 10.0\vc\include\exception
rdata$r	SEGMENT
??_R2exception@std@@8 DD FLAT:??_R1A@?0A@EA@exception@std@@8 ; std::exception::`RTTI Base Class Array'
rdata$r	ENDS
;	COMDAT ??_R3exception@std@@8
rdata$r	SEGMENT
??_R3exception@std@@8 DD 00H				; std::exception::`RTTI Class Hierarchy Descriptor'
	DD	00H
	DD	01H
	DD	FLAT:??_R2exception@std@@8
rdata$r	ENDS
;	COMDAT ??_R0?AVexception@std@@@8
_DATA	SEGMENT
??_R0?AVexception@std@@@8 DD FLAT:??_7type_info@@6B@	; std::exception `RTTI Type Descriptor'
	DD	00H
	DB	'.?AVexception@std@@', 00H
_DATA	ENDS
;	COMDAT ??_R1A@?0A@EA@exception@std@@8
rdata$r	SEGMENT
??_R1A@?0A@EA@exception@std@@8 DD FLAT:??_R0?AVexception@std@@@8 ; std::exception::`RTTI Base Class Descriptor at (0,-1,0,64)'
	DD	00H
	DD	00H
	DD	0ffffffffH
	DD	00H
	DD	040H
	DD	FLAT:??_R3exception@std@@8
rdata$r	ENDS
;	COMDAT ??_R1A@?0A@EA@bad_alloc@std@@8
rdata$r	SEGMENT
??_R1A@?0A@EA@bad_alloc@std@@8 DD FLAT:??_R0?AVbad_alloc@std@@@8 ; std::bad_alloc::`RTTI Base Class Descriptor at (0,-1,0,64)'
	DD	01H
	DD	00H
	DD	0ffffffffH
	DD	00H
	DD	040H
	DD	FLAT:??_R3bad_alloc@std@@8
rdata$r	ENDS
;	COMDAT ??_R2bad_alloc@std@@8
rdata$r	SEGMENT
??_R2bad_alloc@std@@8 DD FLAT:??_R1A@?0A@EA@bad_alloc@std@@8 ; std::bad_alloc::`RTTI Base Class Array'
	DD	FLAT:??_R1A@?0A@EA@exception@std@@8
rdata$r	ENDS
;	COMDAT ??_R3bad_alloc@std@@8
rdata$r	SEGMENT
??_R3bad_alloc@std@@8 DD 00H				; std::bad_alloc::`RTTI Class Hierarchy Descriptor'
	DD	00H
	DD	02H
	DD	FLAT:??_R2bad_alloc@std@@8
rdata$r	ENDS
;	COMDAT ??_R0?AVbad_alloc@std@@@8
_DATA	SEGMENT
??_R0?AVbad_alloc@std@@@8 DD FLAT:??_7type_info@@6B@	; std::bad_alloc `RTTI Type Descriptor'
	DD	00H
	DB	'.?AVbad_alloc@std@@', 00H
_DATA	ENDS
;	COMDAT ??_R4bad_alloc@std@@6B@
rdata$r	SEGMENT
??_R4bad_alloc@std@@6B@ DD 00H				; std::bad_alloc::`RTTI Complete Object Locator'
	DD	00H
	DD	00H
	DD	FLAT:??_R0?AVbad_alloc@std@@@8
	DD	FLAT:??_R3bad_alloc@std@@8
rdata$r	ENDS
;	COMDAT ??_7bad_alloc@std@@6B@
CONST	SEGMENT
??_7bad_alloc@std@@6B@ DD FLAT:??_R4bad_alloc@std@@6B@	; std::bad_alloc::`vftable'
	DD	FLAT:??_Ebad_alloc@std@@UAEPAXI@Z
	DD	FLAT:?what@exception@std@@UBEPBDXZ
; Function compile flags: /Ogsp
CONST	ENDS
;	COMDAT ??0bad_alloc@std@@QAE@PBD@Z
_TEXT	SEGMENT
__Message$ = 8						; size = 4
??0bad_alloc@std@@QAE@PBD@Z PROC			; std::bad_alloc::bad_alloc, COMDAT
; _this$ = ecx

; 345  : 		{	// construct from message string

  00000	55		 push	 ebp
  00001	8b ec		 mov	 ebp, esp
  00003	56		 push	 esi
  00004	8d 45 08	 lea	 eax, DWORD PTR __Message$[ebp]
  00007	50		 push	 eax
  00008	8b f1		 mov	 esi, ecx
  0000a	ff 15 00 00 00
	00		 call	 DWORD PTR __imp_??0exception@std@@QAE@ABQBD@Z
  00010	c7 06 00 00 00
	00		 mov	 DWORD PTR [esi], OFFSET ??_7bad_alloc@std@@6B@

; 346  : 		}

  00016	8b c6		 mov	 eax, esi
  00018	5e		 pop	 esi
  00019	5d		 pop	 ebp
  0001a	c2 04 00	 ret	 4
??0bad_alloc@std@@QAE@PBD@Z ENDP			; std::bad_alloc::bad_alloc
_TEXT	ENDS
PUBLIC	??1bad_alloc@std@@UAE@XZ			; std::bad_alloc::~bad_alloc
EXTRN	__imp_??1exception@std@@UAE@XZ:PROC
; Function compile flags: /Ogsp
;	COMDAT ??1bad_alloc@std@@UAE@XZ
_TEXT	SEGMENT
??1bad_alloc@std@@UAE@XZ PROC				; std::bad_alloc::~bad_alloc, COMDAT
; _this$ = ecx

; 354  : 		{	// destroy the object

  00000	c7 01 00 00 00
	00		 mov	 DWORD PTR [ecx], OFFSET ??_7bad_alloc@std@@6B@

; 355  : 		}

  00006	ff 25 00 00 00
	00		 jmp	 DWORD PTR __imp_??1exception@std@@UAE@XZ
??1bad_alloc@std@@UAE@XZ ENDP				; std::bad_alloc::~bad_alloc
_TEXT	ENDS
EXTRN	??3@YAXPAX@Z:PROC				; operator delete
; Function compile flags: /Ogsp
;	COMDAT ??_Gbad_alloc@std@@UAEPAXI@Z
_TEXT	SEGMENT
___flags$ = 8						; size = 4
??_Gbad_alloc@std@@UAEPAXI@Z PROC			; std::bad_alloc::`scalar deleting destructor', COMDAT
; _this$ = ecx
  00000	55		 push	 ebp
  00001	8b ec		 mov	 ebp, esp
  00003	56		 push	 esi
  00004	8b f1		 mov	 esi, ecx
  00006	c7 06 00 00 00
	00		 mov	 DWORD PTR [esi], OFFSET ??_7bad_alloc@std@@6B@
  0000c	ff 15 00 00 00
	00		 call	 DWORD PTR __imp_??1exception@std@@UAE@XZ
  00012	f6 45 08 01	 test	 BYTE PTR ___flags$[ebp], 1
  00016	74 07		 je	 SHORT $LN1@scalar
  00018	56		 push	 esi
  00019	e8 00 00 00 00	 call	 ??3@YAXPAX@Z		; operator delete
  0001e	59		 pop	 ecx
$LN1@scalar:
  0001f	8b c6		 mov	 eax, esi
  00021	5e		 pop	 esi
  00022	5d		 pop	 ebp
  00023	c2 04 00	 ret	 4
??_Gbad_alloc@std@@UAEPAXI@Z ENDP			; std::bad_alloc::`scalar deleting destructor'
_TEXT	ENDS
PUBLIC	??2@YAPAXIPAX@Z					; operator new
; Function compile flags: /Ogsp
; File c:\program files (x86)\microsoft visual studio 10.0\vc\include\new
;	COMDAT ??2@YAPAXIPAX@Z
_TEXT	SEGMENT
___formal$ = 8						; size = 4
__Where$ = 12						; size = 4
??2@YAPAXIPAX@Z PROC					; operator new, COMDAT

; 56   : 	{	// construct array with placement at _Where

  00000	55		 push	 ebp
  00001	8b ec		 mov	 ebp, esp

; 57   : 	return (_Where);

  00003	8b 45 0c	 mov	 eax, DWORD PTR __Where$[ebp]

; 58   : 	}

  00006	5d		 pop	 ebp
  00007	c3		 ret	 0
??2@YAPAXIPAX@Z ENDP					; operator new
_TEXT	ENDS
PUBLIC	??3@YAXPAX0@Z					; operator delete
; Function compile flags: /Ogsp
;	COMDAT ??3@YAXPAX0@Z
_TEXT	SEGMENT
___formal$ = 8						; size = 4
___formal$ = 12						; size = 4
??3@YAXPAX0@Z PROC					; operator delete, COMDAT

; 62   : 	}

  00000	c3		 ret	 0
??3@YAXPAX0@Z ENDP					; operator delete
_TEXT	ENDS
PUBLIC	??_R0?AVioWeapon@@@8				; ioWeapon `RTTI Type Descriptor'
PUBLIC	??_R0?AVioBombMissileWeapon@@@8			; ioBombMissileWeapon `RTTI Type Descriptor'
PUBLIC	?ToBombMissileWeapon@@YAPAVioBombMissileWeapon@@PAVioWeapon@@@Z ; ToBombMissileWeapon
EXTRN	___RTDynamicCast:PROC
;	COMDAT ??_R0?AVioWeapon@@@8
; File d:\lost saga for developer\youtube\tutorial\source\src\lsclient\iobombmissileweapon.h
_DATA	SEGMENT
??_R0?AVioWeapon@@@8 DD FLAT:??_7type_info@@6B@		; ioWeapon `RTTI Type Descriptor'
	DD	00H
	DB	'.?AVioWeapon@@', 00H
_DATA	ENDS
;	COMDAT ??_R0?AVioBombMissileWeapon@@@8
_DATA	SEGMENT
??_R0?AVioBombMissileWeapon@@@8 DD FLAT:??_7type_info@@6B@ ; ioBombMissileWeapon `RTTI Type Descriptor'
	DD	00H
	DB	'.?AVioBombMissileWeapon@@', 00H
; Function compile flags: /Ogsp
_DATA	ENDS
;	COMDAT ?ToBombMissileWeapon@@YAPAVioBombMissileWeapon@@PAVioWeapon@@@Z
_TEXT	SEGMENT
_pWeapon$ = 8						; size = 4
?ToBombMissileWeapon@@YAPAVioBombMissileWeapon@@PAVioWeapon@@@Z PROC ; ToBombMissileWeapon, COMDAT

; 160  : {

  00000	55		 push	 ebp
  00001	8b ec		 mov	 ebp, esp
  00003	56		 push	 esi

; 161  : 	if( !pWeapon || pWeapon->GetType() != ioWeapon::WT_BOMB_MISSILE )

  00004	8b 75 08	 mov	 esi, DWORD PTR _pWeapon$[ebp]
  00007	85 f6		 test	 esi, esi
  00009	74 28		 je	 SHORT $LN1@ToBombMiss
  0000b	8b 06		 mov	 eax, DWORD PTR [esi]
  0000d	8b ce		 mov	 ecx, esi
  0000f	ff 90 10 01 00
	00		 call	 DWORD PTR [eax+272]
  00015	83 f8 11	 cmp	 eax, 17			; 00000011H
  00018	75 19		 jne	 SHORT $LN1@ToBombMiss

; 163  : 
; 164  : 	return dynamic_cast< ioBombMissileWeapon* >( pWeapon );

  0001a	6a 00		 push	 0
  0001c	68 00 00 00 00	 push	 OFFSET ??_R0?AVioBombMissileWeapon@@@8
  00021	68 00 00 00 00	 push	 OFFSET ??_R0?AVioWeapon@@@8
  00026	6a 00		 push	 0
  00028	56		 push	 esi
  00029	e8 00 00 00 00	 call	 ___RTDynamicCast
  0002e	83 c4 14	 add	 esp, 20			; 00000014H
  00031	eb 02		 jmp	 SHORT $LN3@ToBombMiss
$LN1@ToBombMiss:

; 162  : 		return NULL;

  00033	33 c0		 xor	 eax, eax
$LN3@ToBombMiss:
  00035	5e		 pop	 esi

; 165  : }

  00036	5d		 pop	 ebp
  00037	c3		 ret	 0
?ToBombMissileWeapon@@YAPAVioBombMissileWeapon@@PAVioWeapon@@@Z ENDP ; ToBombMissileWeapon
_TEXT	ENDS
PUBLIC	??_R0?AVioZoneEffectWeapon@@@8			; ioZoneEffectWeapon `RTTI Type Descriptor'
PUBLIC	?ToZoneEffectWeapon@@YAPAVioZoneEffectWeapon@@PAVioWeapon@@@Z ; ToZoneEffectWeapon
;	COMDAT ??_R0?AVioZoneEffectWeapon@@@8
; File d:\lost saga for developer\youtube\tutorial\source\src\lsclient\iozoneeffectweapon.h
_DATA	SEGMENT
??_R0?AVioZoneEffectWeapon@@@8 DD FLAT:??_7type_info@@6B@ ; ioZoneEffectWeapon `RTTI Type Descriptor'
	DD	00H
	DB	'.?AVioZoneEffectWeapon@@', 00H
; Function compile flags: /Ogsp
_DATA	ENDS
;	COMDAT ?ToZoneEffectWeapon@@YAPAVioZoneEffectWeapon@@PAVioWeapon@@@Z
_TEXT	SEGMENT
_pWeapon$ = 8						; size = 4
?ToZoneEffectWeapon@@YAPAVioZoneEffectWeapon@@PAVioWeapon@@@Z PROC ; ToZoneEffectWeapon, COMDAT

; 217  : {

  00000	55		 push	 ebp
  00001	8b ec		 mov	 ebp, esp
  00003	56		 push	 esi

; 218  : 	if( !pWeapon || pWeapon->GetType() != ioWeapon::WT_ZONE_EFFECT )

  00004	8b 75 08	 mov	 esi, DWORD PTR _pWeapon$[ebp]
  00007	85 f6		 test	 esi, esi
  00009	74 28		 je	 SHORT $LN1@ToZoneEffe
  0000b	8b 06		 mov	 eax, DWORD PTR [esi]
  0000d	8b ce		 mov	 ecx, esi
  0000f	ff 90 10 01 00
	00		 call	 DWORD PTR [eax+272]
  00015	83 f8 08	 cmp	 eax, 8
  00018	75 19		 jne	 SHORT $LN1@ToZoneEffe

; 220  : 
; 221  : 	return dynamic_cast< ioZoneEffectWeapon* >( pWeapon );

  0001a	6a 00		 push	 0
  0001c	68 00 00 00 00	 push	 OFFSET ??_R0?AVioZoneEffectWeapon@@@8
  00021	68 00 00 00 00	 push	 OFFSET ??_R0?AVioWeapon@@@8
  00026	6a 00		 push	 0
  00028	56		 push	 esi
  00029	e8 00 00 00 00	 call	 ___RTDynamicCast
  0002e	83 c4 14	 add	 esp, 20			; 00000014H
  00031	eb 02		 jmp	 SHORT $LN3@ToZoneEffe
$LN1@ToZoneEffe:

; 219  : 		return NULL;

  00033	33 c0		 xor	 eax, eax
$LN3@ToZoneEffe:
  00035	5e		 pop	 esi

; 222  : }

  00036	5d		 pop	 ebp
  00037	c3		 ret	 0
?ToZoneEffectWeapon@@YAPAVioZoneEffectWeapon@@PAVioWeapon@@@Z ENDP ; ToZoneEffectWeapon
_TEXT	ENDS
PUBLIC	?_Adopt@_Iterator_base0@std@@QAEXPBX@Z		; std::_Iterator_base0::_Adopt
; Function compile flags: /Ogsp
; File c:\program files (x86)\microsoft visual studio 10.0\vc\include\xutility
;	COMDAT ?_Adopt@_Iterator_base0@std@@QAEXPBX@Z
_TEXT	SEGMENT
___formal$ = 8						; size = 4
?_Adopt@_Iterator_base0@std@@QAEXPBX@Z PROC		; std::_Iterator_base0::_Adopt, COMDAT
; _this$ = ecx

; 49   : 		}

  00000	c2 04 00	 ret	 4
?_Adopt@_Iterator_base0@std@@QAEXPBX@Z ENDP		; std::_Iterator_base0::_Adopt
_TEXT	ENDS
PUBLIC	?StartPreDelayAnimation@ioChargingFireSkill@@MAE_NPAVioBaseChar@@@Z ; ioChargingFireSkill::StartPreDelayAnimation
EXTRN	?StartPreDelayAnimation@ioNormalSkill@@MAE_NPAVioBaseChar@@@Z:PROC ; ioNormalSkill::StartPreDelayAnimation
; Function compile flags: /Ogsp
; File d:\lost saga for developer\youtube\tutorial\source\src\lsclient\iochargingfireskill.cpp
;	COMDAT ?StartPreDelayAnimation@ioChargingFireSkill@@MAE_NPAVioBaseChar@@@Z
_TEXT	SEGMENT
_pChar$ = 8						; size = 4
?StartPreDelayAnimation@ioChargingFireSkill@@MAE_NPAVioBaseChar@@@Z PROC ; ioChargingFireSkill::StartPreDelayAnimation, COMDAT
; _this$ = ecx

; 315  : {

  00000	55		 push	 ebp
  00001	8b ec		 mov	 ebp, esp

; 316  : 	if( !ioNormalSkill::StartPreDelayAnimation( pChar ) )

  00003	ff 75 08	 push	 DWORD PTR _pChar$[ebp]
  00006	e8 00 00 00 00	 call	 ?StartPreDelayAnimation@ioNormalSkill@@MAE_NPAVioBaseChar@@@Z ; ioNormalSkill::StartPreDelayAnimation
  0000b	84 c0		 test	 al, al
  0000d	0f 95 c0	 setne	 al

; 317  : 		return false;
; 318  : 
; 319  : 	return true;
; 320  : }

  00010	5d		 pop	 ebp
  00011	c2 04 00	 ret	 4
?StartPreDelayAnimation@ioChargingFireSkill@@MAE_NPAVioBaseChar@@@Z ENDP ; ioChargingFireSkill::StartPreDelayAnimation
_TEXT	ENDS
PUBLIC	?IsSkillMotionEnd@ioChargingFireSkill@@UBE_NKPAVioBaseChar@@@Z ; ioChargingFireSkill::IsSkillMotionEnd
EXTRN	__imp_?GetLoopSec@ioFrameTimer@@QBEKXZ:PROC
EXTRN	__imp_?GetSingleton@ioFrameTimer@@SAAAV1@XZ:PROC
; Function compile flags: /Ogsp
;	COMDAT ?IsSkillMotionEnd@ioChargingFireSkill@@UBE_NKPAVioBaseChar@@@Z
_TEXT	SEGMENT
_dwActionStop$ = 8					; size = 4
_pOwner$ = 12						; size = 4
?IsSkillMotionEnd@ioChargingFireSkill@@UBE_NKPAVioBaseChar@@@Z PROC ; ioChargingFireSkill::IsSkillMotionEnd, COMDAT
; _this$ = ecx

; 628  : {

  00000	55		 push	 ebp
  00001	8b ec		 mov	 ebp, esp
  00003	56		 push	 esi

; 629  : 	if( m_dwMotionEndTime > 0 && m_dwMotionEndTime + dwActionStop < FRAMEGETTIME() )

  00004	8d b1 d8 02 00
	00		 lea	 esi, DWORD PTR [ecx+728]
  0000a	83 3e 00	 cmp	 DWORD PTR [esi], 0
  0000d	76 1b		 jbe	 SHORT $LN1@IsSkillMot
  0000f	ff 15 00 00 00
	00		 call	 DWORD PTR __imp_?GetSingleton@ioFrameTimer@@SAAAV1@XZ
  00015	8b c8		 mov	 ecx, eax
  00017	ff 15 00 00 00
	00		 call	 DWORD PTR __imp_?GetLoopSec@ioFrameTimer@@QBEKXZ
  0001d	8b 0e		 mov	 ecx, DWORD PTR [esi]
  0001f	03 4d 08	 add	 ecx, DWORD PTR _dwActionStop$[ebp]
  00022	3b c8		 cmp	 ecx, eax
  00024	73 04		 jae	 SHORT $LN1@IsSkillMot

; 630  : 		return true;

  00026	b0 01		 mov	 al, 1
  00028	eb 02		 jmp	 SHORT $LN2@IsSkillMot
$LN1@IsSkillMot:

; 631  : 	
; 632  : 	return false;

  0002a	32 c0		 xor	 al, al
$LN2@IsSkillMot:
  0002c	5e		 pop	 esi

; 633  : }

  0002d	5d		 pop	 ebp
  0002e	c2 08 00	 ret	 8
?IsSkillMotionEnd@ioChargingFireSkill@@UBE_NKPAVioBaseChar@@@Z ENDP ; ioChargingFireSkill::IsSkillMotionEnd
_TEXT	ENDS
PUBLIC	?IsAttackEndState@ioChargingFireSkill@@UBE_NXZ	; ioChargingFireSkill::IsAttackEndState
; Function compile flags: /Ogsp
;	COMDAT ?IsAttackEndState@ioChargingFireSkill@@UBE_NXZ
_TEXT	SEGMENT
?IsAttackEndState@ioChargingFireSkill@@UBE_NXZ PROC	; ioChargingFireSkill::IsAttackEndState, COMDAT
; _this$ = ecx

; 636  : {

  00000	56		 push	 esi

; 637  : 	if( m_dwAttackEndTime > 0 && m_dwAttackEndTime < FRAMEGETTIME() )

  00001	8d b1 14 10 00
	00		 lea	 esi, DWORD PTR [ecx+4116]
  00007	83 3e 00	 cmp	 DWORD PTR [esi], 0
  0000a	76 16		 jbe	 SHORT $LN1@IsAttackEn
  0000c	ff 15 00 00 00
	00		 call	 DWORD PTR __imp_?GetSingleton@ioFrameTimer@@SAAAV1@XZ
  00012	8b c8		 mov	 ecx, eax
  00014	ff 15 00 00 00
	00		 call	 DWORD PTR __imp_?GetLoopSec@ioFrameTimer@@QBEKXZ
  0001a	39 06		 cmp	 DWORD PTR [esi], eax
  0001c	73 04		 jae	 SHORT $LN1@IsAttackEn

; 638  : 	{
; 639  : 		return true;

  0001e	b0 01		 mov	 al, 1
  00020	5e		 pop	 esi

; 643  : }

  00021	c3		 ret	 0
$LN1@IsAttackEn:

; 640  : 	}
; 641  : 
; 642  : 	return false;

  00022	32 c0		 xor	 al, al
  00024	5e		 pop	 esi

; 643  : }

  00025	c3		 ret	 0
?IsAttackEndState@ioChargingFireSkill@@UBE_NXZ ENDP	; ioChargingFireSkill::IsAttackEndState
_TEXT	ENDS
PUBLIC	?CheckUseItemMesh@ioChargingFireSkill@@UAE_NXZ	; ioChargingFireSkill::CheckUseItemMesh
; Function compile flags: /Ogsp
;	COMDAT ?CheckUseItemMesh@ioChargingFireSkill@@UAE_NXZ
_TEXT	SEGMENT
?CheckUseItemMesh@ioChargingFireSkill@@UAE_NXZ PROC	; ioChargingFireSkill::CheckUseItemMesh, COMDAT
; _this$ = ecx

; 655  : 	return m_bUseItemMesh;

  00000	8a 81 08 0f 00
	00		 mov	 al, BYTE PTR [ecx+3848]

; 656  : }

  00006	c3		 ret	 0
?CheckUseItemMesh@ioChargingFireSkill@@UAE_NXZ ENDP	; ioChargingFireSkill::CheckUseItemMesh
_TEXT	ENDS
PUBLIC	?empty@?$vector@UWeaponInfo@@V?$allocator@UWeaponInfo@@@std@@@std@@QBE_NXZ ; std::vector<WeaponInfo,std::allocator<WeaponInfo> >::empty
; Function compile flags: /Ogsp
; File c:\program files (x86)\microsoft visual studio 10.0\vc\include\vector
;	COMDAT ?empty@?$vector@UWeaponInfo@@V?$allocator@UWeaponInfo@@@std@@@std@@QBE_NXZ
_TEXT	SEGMENT
?empty@?$vector@UWeaponInfo@@V?$allocator@UWeaponInfo@@@std@@@std@@QBE_NXZ PROC ; std::vector<WeaponInfo,std::allocator<WeaponInfo> >::empty, COMDAT
; _this$ = ecx

; 889  : 		return (this->_Myfirst == this->_Mylast);

  00000	8b 01		 mov	 eax, DWORD PTR [ecx]
  00002	2b 41 04	 sub	 eax, DWORD PTR [ecx+4]
  00005	f7 d8		 neg	 eax
  00007	1b c0		 sbb	 eax, eax
  00009	40		 inc	 eax

; 890  : 		}

  0000a	c3		 ret	 0
?empty@?$vector@UWeaponInfo@@V?$allocator@UWeaponInfo@@@std@@@std@@QBE_NXZ ENDP ; std::vector<WeaponInfo,std::allocator<WeaponInfo> >::empty
_TEXT	ENDS
PUBLIC	??0D3DXVECTOR3@@QAE@XZ				; D3DXVECTOR3::D3DXVECTOR3
; Function compile flags: /Ogsp
; File c:\program files (x86)\microsoft directx sdk (june 2010)\include\d3dx9math.h
;	COMDAT ??0D3DXVECTOR3@@QAE@XZ
_TEXT	SEGMENT
??0D3DXVECTOR3@@QAE@XZ PROC				; D3DXVECTOR3::D3DXVECTOR3, COMDAT
; _this$ = ecx

; 165  :     D3DXVECTOR3() {};

  00000	8b c1		 mov	 eax, ecx
  00002	c3		 ret	 0
??0D3DXVECTOR3@@QAE@XZ ENDP				; D3DXVECTOR3::D3DXVECTOR3
_TEXT	ENDS
PUBLIC	??0D3DXQUATERNION@@QAE@XZ			; D3DXQUATERNION::D3DXQUATERNION
; Function compile flags: /Ogsp
;	COMDAT ??0D3DXQUATERNION@@QAE@XZ
_TEXT	SEGMENT
??0D3DXQUATERNION@@QAE@XZ PROC				; D3DXQUATERNION::D3DXQUATERNION, COMDAT
; _this$ = ecx

; 429  :     D3DXQUATERNION() {}

  00000	8b c1		 mov	 eax, ecx
  00002	c3		 ret	 0
??0D3DXQUATERNION@@QAE@XZ ENDP				; D3DXQUATERNION::D3DXQUATERNION
_TEXT	ENDS
PUBLIC	??0D3DXVECTOR3@@QAE@MMM@Z			; D3DXVECTOR3::D3DXVECTOR3
; Function compile flags: /Ogsp
; File c:\program files (x86)\microsoft directx sdk (june 2010)\include\d3dx9math.inl
;	COMDAT ??0D3DXVECTOR3@@QAE@MMM@Z
_TEXT	SEGMENT
_fx$ = 8						; size = 4
_fy$ = 12						; size = 4
_fz$ = 16						; size = 4
??0D3DXVECTOR3@@QAE@MMM@Z PROC				; D3DXVECTOR3::D3DXVECTOR3, COMDAT
; _this$ = ecx

; 303  : {

  00000	55		 push	 ebp
  00001	8b ec		 mov	 ebp, esp

; 304  :     x = fx;

  00003	f3 0f 10 45 08	 movss	 xmm0, DWORD PTR _fx$[ebp]
  00008	8b c1		 mov	 eax, ecx
  0000a	f3 0f 11 00	 movss	 DWORD PTR [eax], xmm0

; 305  :     y = fy;

  0000e	f3 0f 10 45 0c	 movss	 xmm0, DWORD PTR _fy$[ebp]
  00013	f3 0f 11 40 04	 movss	 DWORD PTR [eax+4], xmm0

; 306  :     z = fz;

  00018	f3 0f 10 45 10	 movss	 xmm0, DWORD PTR _fz$[ebp]
  0001d	f3 0f 11 40 08	 movss	 DWORD PTR [eax+8], xmm0

; 307  : }

  00022	5d		 pop	 ebp
  00023	c2 0c 00	 ret	 12			; 0000000cH
??0D3DXVECTOR3@@QAE@MMM@Z ENDP				; D3DXVECTOR3::D3DXVECTOR3
_TEXT	ENDS
PUBLIC	??YD3DXVECTOR3@@QAEAAU0@ABU0@@Z			; D3DXVECTOR3::operator+=
; Function compile flags: /Ogsp
;	COMDAT ??YD3DXVECTOR3@@QAEAAU0@ABU0@@Z
_TEXT	SEGMENT
_v$ = 8							; size = 4
??YD3DXVECTOR3@@QAEAAU0@ABU0@@Z PROC			; D3DXVECTOR3::operator+=, COMDAT
; _this$ = ecx

; 327  : {

  00000	55		 push	 ebp
  00001	8b ec		 mov	 ebp, esp
  00003	8b c1		 mov	 eax, ecx

; 328  :     x += v.x;

  00005	8b 4d 08	 mov	 ecx, DWORD PTR _v$[ebp]
  00008	f3 0f 10 01	 movss	 xmm0, DWORD PTR [ecx]
  0000c	f3 0f 10 08	 movss	 xmm1, DWORD PTR [eax]
  00010	0f 5a c0	 cvtps2pd xmm0, xmm0
  00013	0f 5a c9	 cvtps2pd xmm1, xmm1
  00016	f2 0f 58 c1	 addsd	 xmm0, xmm1

; 329  :     y += v.y;

  0001a	f3 0f 10 48 04	 movss	 xmm1, DWORD PTR [eax+4]
  0001f	66 0f 5a c0	 cvtpd2ps xmm0, xmm0
  00023	f3 0f 11 00	 movss	 DWORD PTR [eax], xmm0
  00027	f3 0f 10 41 04	 movss	 xmm0, DWORD PTR [ecx+4]
  0002c	0f 5a c0	 cvtps2pd xmm0, xmm0
  0002f	0f 5a c9	 cvtps2pd xmm1, xmm1
  00032	f2 0f 58 c1	 addsd	 xmm0, xmm1

; 330  :     z += v.z;

  00036	f3 0f 10 48 08	 movss	 xmm1, DWORD PTR [eax+8]
  0003b	66 0f 5a c0	 cvtpd2ps xmm0, xmm0
  0003f	f3 0f 11 40 04	 movss	 DWORD PTR [eax+4], xmm0
  00044	f3 0f 10 41 08	 movss	 xmm0, DWORD PTR [ecx+8]
  00049	0f 5a c0	 cvtps2pd xmm0, xmm0
  0004c	0f 5a c9	 cvtps2pd xmm1, xmm1
  0004f	f2 0f 58 c1	 addsd	 xmm0, xmm1
  00053	66 0f 5a c0	 cvtpd2ps xmm0, xmm0
  00057	f3 0f 11 40 08	 movss	 DWORD PTR [eax+8], xmm0

; 331  :     return *this;
; 332  : }

  0005c	5d		 pop	 ebp
  0005d	c2 04 00	 ret	 4
??YD3DXVECTOR3@@QAEAAU0@ABU0@@Z ENDP			; D3DXVECTOR3::operator+=
_TEXT	ENDS
PUBLIC	??GD3DXVECTOR3@@QBE?AU0@ABU0@@Z			; D3DXVECTOR3::operator-
; Function compile flags: /Ogsp
;	COMDAT ??GD3DXVECTOR3@@QBE?AU0@ABU0@@Z
_TEXT	SEGMENT
___$ReturnUdt$ = 8					; size = 4
_v$ = 12						; size = 4
??GD3DXVECTOR3@@QBE?AU0@ABU0@@Z PROC			; D3DXVECTOR3::operator-, COMDAT
; _this$ = ecx

; 386  : {

  00000	55		 push	 ebp
  00001	8b ec		 mov	 ebp, esp

; 387  :     return D3DXVECTOR3(x - v.x, y - v.y, z - v.z);

  00003	8b 55 0c	 mov	 edx, DWORD PTR _v$[ebp]
  00006	f3 0f 10 01	 movss	 xmm0, DWORD PTR [ecx]
  0000a	f3 0f 10 0a	 movss	 xmm1, DWORD PTR [edx]
  0000e	8b 45 08	 mov	 eax, DWORD PTR ___$ReturnUdt$[ebp]
  00011	0f 5a c0	 cvtps2pd xmm0, xmm0
  00014	0f 5a c9	 cvtps2pd xmm1, xmm1
  00017	f2 0f 5c c1	 subsd	 xmm0, xmm1
  0001b	f3 0f 10 4a 04	 movss	 xmm1, DWORD PTR [edx+4]
  00020	66 0f 5a c0	 cvtpd2ps xmm0, xmm0
  00024	f3 0f 11 00	 movss	 DWORD PTR [eax], xmm0
  00028	f3 0f 10 41 04	 movss	 xmm0, DWORD PTR [ecx+4]
  0002d	0f 5a c0	 cvtps2pd xmm0, xmm0
  00030	0f 5a c9	 cvtps2pd xmm1, xmm1
  00033	f2 0f 5c c1	 subsd	 xmm0, xmm1
  00037	f3 0f 10 4a 08	 movss	 xmm1, DWORD PTR [edx+8]
  0003c	66 0f 5a c0	 cvtpd2ps xmm0, xmm0
  00040	f3 0f 11 40 04	 movss	 DWORD PTR [eax+4], xmm0
  00045	f3 0f 10 41 08	 movss	 xmm0, DWORD PTR [ecx+8]
  0004a	0f 5a c0	 cvtps2pd xmm0, xmm0
  0004d	0f 5a c9	 cvtps2pd xmm1, xmm1
  00050	f2 0f 5c c1	 subsd	 xmm0, xmm1
  00054	66 0f 5a c0	 cvtpd2ps xmm0, xmm0
  00058	f3 0f 11 40 08	 movss	 DWORD PTR [eax+8], xmm0

; 388  : }

  0005d	5d		 pop	 ebp
  0005e	c2 08 00	 ret	 8
??GD3DXVECTOR3@@QBE?AU0@ABU0@@Z ENDP			; D3DXVECTOR3::operator-
_TEXT	ENDS
PUBLIC	??DD3DXVECTOR3@@QBE?AU0@M@Z			; D3DXVECTOR3::operator*
; Function compile flags: /Ogsp
;	COMDAT ??DD3DXVECTOR3@@QBE?AU0@M@Z
_TEXT	SEGMENT
___$ReturnUdt$ = 8					; size = 4
_f$ = 12						; size = 4
??DD3DXVECTOR3@@QBE?AU0@M@Z PROC			; D3DXVECTOR3::operator*, COMDAT
; _this$ = ecx

; 392  : {

  00000	55		 push	 ebp
  00001	8b ec		 mov	 ebp, esp

; 393  :     return D3DXVECTOR3(x * f, y * f, z * f);

  00003	f3 0f 10 4d 0c	 movss	 xmm1, DWORD PTR _f$[ebp]
  00008	f3 0f 10 01	 movss	 xmm0, DWORD PTR [ecx]
  0000c	8b 45 08	 mov	 eax, DWORD PTR ___$ReturnUdt$[ebp]
  0000f	0f 5a c0	 cvtps2pd xmm0, xmm0
  00012	0f 5a c9	 cvtps2pd xmm1, xmm1
  00015	f2 0f 59 c1	 mulsd	 xmm0, xmm1
  00019	f3 0f 10 4d 0c	 movss	 xmm1, DWORD PTR _f$[ebp]
  0001e	66 0f 5a c0	 cvtpd2ps xmm0, xmm0
  00022	f3 0f 11 00	 movss	 DWORD PTR [eax], xmm0
  00026	f3 0f 10 41 04	 movss	 xmm0, DWORD PTR [ecx+4]
  0002b	0f 5a c0	 cvtps2pd xmm0, xmm0
  0002e	0f 5a c9	 cvtps2pd xmm1, xmm1
  00031	f2 0f 59 c1	 mulsd	 xmm0, xmm1
  00035	f3 0f 10 4d 0c	 movss	 xmm1, DWORD PTR _f$[ebp]
  0003a	66 0f 5a c0	 cvtpd2ps xmm0, xmm0
  0003e	f3 0f 11 40 04	 movss	 DWORD PTR [eax+4], xmm0
  00043	f3 0f 10 41 08	 movss	 xmm0, DWORD PTR [ecx+8]
  00048	0f 5a c0	 cvtps2pd xmm0, xmm0
  0004b	0f 5a c9	 cvtps2pd xmm1, xmm1
  0004e	f2 0f 59 c1	 mulsd	 xmm0, xmm1
  00052	66 0f 5a c0	 cvtpd2ps xmm0, xmm0
  00056	f3 0f 11 40 08	 movss	 DWORD PTR [eax+8], xmm0

; 394  : }

  0005b	5d		 pop	 ebp
  0005c	c2 08 00	 ret	 8
??DD3DXVECTOR3@@QBE?AU0@M@Z ENDP			; D3DXVECTOR3::operator*
_TEXT	ENDS
PUBLIC	??8D3DXVECTOR3@@QBEHABU0@@Z			; D3DXVECTOR3::operator==
; Function compile flags: /Ogsp
;	COMDAT ??8D3DXVECTOR3@@QBEHABU0@@Z
_TEXT	SEGMENT
_v$ = 8							; size = 4
??8D3DXVECTOR3@@QBEHABU0@@Z PROC			; D3DXVECTOR3::operator==, COMDAT
; _this$ = ecx

; 413  : {

  00000	55		 push	 ebp
  00001	8b ec		 mov	 ebp, esp

; 414  :     return x == v.x && y == v.y && z == v.z;

  00003	8b 55 08	 mov	 edx, DWORD PTR _v$[ebp]
  00006	f3 0f 10 01	 movss	 xmm0, DWORD PTR [ecx]
  0000a	f3 0f 10 0a	 movss	 xmm1, DWORD PTR [edx]
  0000e	0f 5a c0	 cvtps2pd xmm0, xmm0
  00011	0f 5a c9	 cvtps2pd xmm1, xmm1
  00014	66 0f 2e c1	 ucomisd xmm0, xmm1
  00018	9f		 lahf
  00019	f6 c4 44	 test	 ah, 68			; 00000044H
  0001c	7a 39		 jp	 SHORT $LN3@operator
  0001e	f3 0f 10 41 04	 movss	 xmm0, DWORD PTR [ecx+4]
  00023	f3 0f 10 4a 04	 movss	 xmm1, DWORD PTR [edx+4]
  00028	0f 5a c0	 cvtps2pd xmm0, xmm0
  0002b	0f 5a c9	 cvtps2pd xmm1, xmm1
  0002e	66 0f 2e c1	 ucomisd xmm0, xmm1
  00032	9f		 lahf
  00033	f6 c4 44	 test	 ah, 68			; 00000044H
  00036	7a 1f		 jp	 SHORT $LN3@operator
  00038	f3 0f 10 41 08	 movss	 xmm0, DWORD PTR [ecx+8]
  0003d	f3 0f 10 4a 08	 movss	 xmm1, DWORD PTR [edx+8]
  00042	0f 5a c0	 cvtps2pd xmm0, xmm0
  00045	0f 5a c9	 cvtps2pd xmm1, xmm1
  00048	66 0f 2e c1	 ucomisd xmm0, xmm1
  0004c	9f		 lahf
  0004d	f6 c4 44	 test	 ah, 68			; 00000044H
  00050	7a 05		 jp	 SHORT $LN3@operator
  00052	33 c0		 xor	 eax, eax
  00054	40		 inc	 eax
  00055	eb 02		 jmp	 SHORT $LN4@operator
$LN3@operator:
  00057	33 c0		 xor	 eax, eax
$LN4@operator:

; 415  : }

  00059	5d		 pop	 ebp
  0005a	c2 04 00	 ret	 4
??8D3DXVECTOR3@@QBEHABU0@@Z ENDP			; D3DXVECTOR3::operator==
_TEXT	ENDS
PUBLIC	??9D3DXVECTOR3@@QBEHABU0@@Z			; D3DXVECTOR3::operator!=
; Function compile flags: /Ogsp
;	COMDAT ??9D3DXVECTOR3@@QBEHABU0@@Z
_TEXT	SEGMENT
_v$ = 8							; size = 4
??9D3DXVECTOR3@@QBEHABU0@@Z PROC			; D3DXVECTOR3::operator!=, COMDAT
; _this$ = ecx

; 419  : {

  00000	55		 push	 ebp
  00001	8b ec		 mov	 ebp, esp

; 420  :     return x != v.x || y != v.y || z != v.z;

  00003	8b 55 08	 mov	 edx, DWORD PTR _v$[ebp]
  00006	f3 0f 10 01	 movss	 xmm0, DWORD PTR [ecx]
  0000a	f3 0f 10 0a	 movss	 xmm1, DWORD PTR [edx]
  0000e	0f 5a c0	 cvtps2pd xmm0, xmm0
  00011	0f 5a c9	 cvtps2pd xmm1, xmm1
  00014	66 0f 2e c1	 ucomisd xmm0, xmm1
  00018	9f		 lahf
  00019	f6 c4 44	 test	 ah, 68			; 00000044H
  0001c	7a 38		 jp	 SHORT $LN3@operator@2
  0001e	f3 0f 10 41 04	 movss	 xmm0, DWORD PTR [ecx+4]
  00023	f3 0f 10 4a 04	 movss	 xmm1, DWORD PTR [edx+4]
  00028	0f 5a c0	 cvtps2pd xmm0, xmm0
  0002b	0f 5a c9	 cvtps2pd xmm1, xmm1
  0002e	66 0f 2e c1	 ucomisd xmm0, xmm1
  00032	9f		 lahf
  00033	f6 c4 44	 test	 ah, 68			; 00000044H
  00036	7a 1e		 jp	 SHORT $LN3@operator@2
  00038	f3 0f 10 41 08	 movss	 xmm0, DWORD PTR [ecx+8]
  0003d	f3 0f 10 4a 08	 movss	 xmm1, DWORD PTR [edx+8]
  00042	0f 5a c0	 cvtps2pd xmm0, xmm0
  00045	0f 5a c9	 cvtps2pd xmm1, xmm1
  00048	66 0f 2e c1	 ucomisd xmm0, xmm1
  0004c	9f		 lahf
  0004d	f6 c4 44	 test	 ah, 68			; 00000044H
  00050	7a 04		 jp	 SHORT $LN3@operator@2
  00052	33 c0		 xor	 eax, eax
  00054	eb 03		 jmp	 SHORT $LN4@operator@2
$LN3@operator@2:
  00056	33 c0		 xor	 eax, eax
  00058	40		 inc	 eax
$LN4@operator@2:

; 421  : }

  00059	5d		 pop	 ebp
  0005a	c2 04 00	 ret	 4
??9D3DXVECTOR3@@QBEHABU0@@Z ENDP			; D3DXVECTOR3::operator!=
_TEXT	ENDS
PUBLIC	__real@3f91df46a2526c7a
PUBLIC	??$DEGtoRAD@M@@YAMM@Z				; DEGtoRAD<float>
;	COMDAT __real@3f91df46a2526c7a
; File d:\lost saga for developer\youtube\tutorial\source\src\lsclient\veryoftenusedefine.h
CONST	SEGMENT
__real@3f91df46a2526c7a DQ 03f91df46a2526c7ar	; 0.0174533
; Function compile flags: /Ogsp
CONST	ENDS
;	COMDAT ??$DEGtoRAD@M@@YAMM@Z
_TEXT	SEGMENT
tv129 = 8						; size = 4
_val$ = 8						; size = 4
??$DEGtoRAD@M@@YAMM@Z PROC				; DEGtoRAD<float>, COMDAT

; 20   : type  DEGtoRAD (type val) {return (type) (val * 0.0174532925199);}

  00000	55		 push	 ebp
  00001	8b ec		 mov	 ebp, esp
  00003	d9 45 08	 fld	 DWORD PTR _val$[ebp]
  00006	dc 0d 00 00 00
	00		 fmul	 QWORD PTR __real@3f91df46a2526c7a
  0000c	d9 5d 08	 fstp	 DWORD PTR tv129[ebp]
  0000f	d9 45 08	 fld	 DWORD PTR tv129[ebp]
  00012	5d		 pop	 ebp
  00013	c3		 ret	 0
??$DEGtoRAD@M@@YAMM@Z ENDP				; DEGtoRAD<float>
_TEXT	ENDS
PUBLIC	??$_Ptr_cat@V?$_Vector_const_iterator@V?$_Vector_val@UWeaponInfo@@V?$allocator@UWeaponInfo@@@std@@@std@@@std@@PAUWeaponInfo@@@std@@YA?AU_Nonscalar_ptr_iterator_tag@0@AAV?$_Vector_const_iterator@V?$_Vector_val@UWeaponInfo@@V?$allocator@UWeaponInfo@@@std@@@std@@@0@AAPAUWeaponInfo@@@Z ; std::_Ptr_cat<std::_Vector_const_iterator<std::_Vector_val<WeaponInfo,std::allocator<WeaponInfo> > >,WeaponInfo *>
; Function compile flags: /Ogsp
; File c:\program files (x86)\microsoft visual studio 10.0\vc\include\xutility
;	COMDAT ??$_Ptr_cat@V?$_Vector_const_iterator@V?$_Vector_val@UWeaponInfo@@V?$allocator@UWeaponInfo@@@std@@@std@@@std@@PAUWeaponInfo@@@std@@YA?AU_Nonscalar_ptr_iterator_tag@0@AAV?$_Vector_const_iterator@V?$_Vector_val@UWeaponInfo@@V?$allocator@UWeaponInfo@@@std@@@std@@@0@AAPAUWeaponInfo@@@Z
_TEXT	SEGMENT
__Cat$ = -1						; size = 1
___formal$ = 8						; size = 4
___formal$ = 12						; size = 4
??$_Ptr_cat@V?$_Vector_const_iterator@V?$_Vector_val@UWeaponInfo@@V?$allocator@UWeaponInfo@@@std@@@std@@@std@@PAUWeaponInfo@@@std@@YA?AU_Nonscalar_ptr_iterator_tag@0@AAV?$_Vector_const_iterator@V?$_Vector_val@UWeaponInfo@@V?$allocator@UWeaponInfo@@@std@@@std@@@0@AAPAUWeaponInfo@@@Z PROC ; std::_Ptr_cat<std::_Vector_const_iterator<std::_Vector_val<WeaponInfo,std::allocator<WeaponInfo> > >,WeaponInfo *>, COMDAT

; 485  : 	{	// return pointer category from arbitrary arguments

  00000	55		 push	 ebp
  00001	8b ec		 mov	 ebp, esp
  00003	51		 push	 ecx

; 486  : 	_Nonscalar_ptr_iterator_tag _Cat;
; 487  : 	return (_Cat);

  00004	8a 45 ff	 mov	 al, BYTE PTR __Cat$[ebp]

; 488  : 	}

  00007	c9		 leave
  00008	c3		 ret	 0
??$_Ptr_cat@V?$_Vector_const_iterator@V?$_Vector_val@UWeaponInfo@@V?$allocator@UWeaponInfo@@@std@@@std@@@std@@PAUWeaponInfo@@@std@@YA?AU_Nonscalar_ptr_iterator_tag@0@AAV?$_Vector_const_iterator@V?$_Vector_val@UWeaponInfo@@V?$allocator@UWeaponInfo@@@std@@@std@@@0@AAPAUWeaponInfo@@@Z ENDP ; std::_Ptr_cat<std::_Vector_const_iterator<std::_Vector_val<WeaponInfo,std::allocator<WeaponInfo> > >,WeaponInfo *>
_TEXT	ENDS
PUBLIC	??$_Ptr_cat@V?$_Vector_const_iterator@V?$_Vector_val@UForceInfo@@V?$allocator@UForceInfo@@@std@@@std@@@std@@PAUForceInfo@@@std@@YA?AU_Nonscalar_ptr_iterator_tag@0@AAV?$_Vector_const_iterator@V?$_Vector_val@UForceInfo@@V?$allocator@UForceInfo@@@std@@@std@@@0@AAPAUForceInfo@@@Z ; std::_Ptr_cat<std::_Vector_const_iterator<std::_Vector_val<ForceInfo,std::allocator<ForceInfo> > >,ForceInfo *>
; Function compile flags: /Ogsp
;	COMDAT ??$_Ptr_cat@V?$_Vector_const_iterator@V?$_Vector_val@UForceInfo@@V?$allocator@UForceInfo@@@std@@@std@@@std@@PAUForceInfo@@@std@@YA?AU_Nonscalar_ptr_iterator_tag@0@AAV?$_Vector_const_iterator@V?$_Vector_val@UForceInfo@@V?$allocator@UForceInfo@@@std@@@std@@@0@AAPAUForceInfo@@@Z
_TEXT	SEGMENT
__Cat$ = -1						; size = 1
___formal$ = 8						; size = 4
___formal$ = 12						; size = 4
??$_Ptr_cat@V?$_Vector_const_iterator@V?$_Vector_val@UForceInfo@@V?$allocator@UForceInfo@@@std@@@std@@@std@@PAUForceInfo@@@std@@YA?AU_Nonscalar_ptr_iterator_tag@0@AAV?$_Vector_const_iterator@V?$_Vector_val@UForceInfo@@V?$allocator@UForceInfo@@@std@@@std@@@0@AAPAUForceInfo@@@Z PROC ; std::_Ptr_cat<std::_Vector_const_iterator<std::_Vector_val<ForceInfo,std::allocator<ForceInfo> > >,ForceInfo *>, COMDAT

; 485  : 	{	// return pointer category from arbitrary arguments

  00000	55		 push	 ebp
  00001	8b ec		 mov	 ebp, esp
  00003	51		 push	 ecx

; 486  : 	_Nonscalar_ptr_iterator_tag _Cat;
; 487  : 	return (_Cat);

  00004	8a 45 ff	 mov	 al, BYTE PTR __Cat$[ebp]

; 488  : 	}

  00007	c9		 leave
  00008	c3		 ret	 0
??$_Ptr_cat@V?$_Vector_const_iterator@V?$_Vector_val@UForceInfo@@V?$allocator@UForceInfo@@@std@@@std@@@std@@PAUForceInfo@@@std@@YA?AU_Nonscalar_ptr_iterator_tag@0@AAV?$_Vector_const_iterator@V?$_Vector_val@UForceInfo@@V?$allocator@UForceInfo@@@std@@@std@@@0@AAPAUForceInfo@@@Z ENDP ; std::_Ptr_cat<std::_Vector_const_iterator<std::_Vector_val<ForceInfo,std::allocator<ForceInfo> > >,ForceInfo *>
_TEXT	ENDS
PUBLIC	??D?$_Vector_const_iterator@V?$_Vector_val@UWeaponInfo@@V?$allocator@UWeaponInfo@@@std@@@std@@@std@@QBEABUWeaponInfo@@XZ ; std::_Vector_const_iterator<std::_Vector_val<WeaponInfo,std::allocator<WeaponInfo> > >::operator*
; Function compile flags: /Ogsp
; File c:\program files (x86)\microsoft visual studio 10.0\vc\include\vector
;	COMDAT ??D?$_Vector_const_iterator@V?$_Vector_val@UWeaponInfo@@V?$allocator@UWeaponInfo@@@std@@@std@@@std@@QBEABUWeaponInfo@@XZ
_TEXT	SEGMENT
??D?$_Vector_const_iterator@V?$_Vector_val@UWeaponInfo@@V?$allocator@UWeaponInfo@@@std@@@std@@@std@@QBEABUWeaponInfo@@XZ PROC ; std::_Vector_const_iterator<std::_Vector_val<WeaponInfo,std::allocator<WeaponInfo> > >::operator*, COMDAT
; _this$ = ecx

; 64   :  #if _ITERATOR_DEBUG_LEVEL == 2
; 65   : 		if (this->_Getcont() == 0
; 66   : 			|| this->_Ptr == 0
; 67   : 			|| this->_Ptr < ((_Myvec *)this->_Getcont())->_Myfirst
; 68   : 			|| ((_Myvec *)this->_Getcont())->_Mylast <= this->_Ptr)
; 69   : 			{	// report error
; 70   : 			_DEBUG_ERROR("vector iterator not dereferencable");
; 71   : 			_SCL_SECURE_OUT_OF_RANGE;
; 72   : 			}
; 73   : 
; 74   :  #elif _ITERATOR_DEBUG_LEVEL == 1
; 75   : 		_SCL_SECURE_VALIDATE(this->_Getcont() != 0);
; 76   : 		_SCL_SECURE_VALIDATE_RANGE(
; 77   : 			this->_Ptr != 0
; 78   : 			&& ((_Myvec *)this->_Getcont())->_Myfirst <= this->_Ptr
; 79   : 			&& this->_Ptr < ((_Myvec *)this->_Getcont())->_Mylast);
; 80   :  #endif /* _ITERATOR_DEBUG_LEVEL */
; 81   : 
; 82   : 		__analysis_assume(this->_Ptr != 0);
; 83   : 
; 84   : 		return (*this->_Ptr);

  00000	8b 01		 mov	 eax, DWORD PTR [ecx]

; 85   : 		}

  00002	c3		 ret	 0
??D?$_Vector_const_iterator@V?$_Vector_val@UWeaponInfo@@V?$allocator@UWeaponInfo@@@std@@@std@@@std@@QBEABUWeaponInfo@@XZ ENDP ; std::_Vector_const_iterator<std::_Vector_val<WeaponInfo,std::allocator<WeaponInfo> > >::operator*
_TEXT	ENDS
PUBLIC	??E?$_Vector_const_iterator@V?$_Vector_val@UWeaponInfo@@V?$allocator@UWeaponInfo@@@std@@@std@@@std@@QAEAAV01@XZ ; std::_Vector_const_iterator<std::_Vector_val<WeaponInfo,std::allocator<WeaponInfo> > >::operator++
; Function compile flags: /Ogsp
;	COMDAT ??E?$_Vector_const_iterator@V?$_Vector_val@UWeaponInfo@@V?$allocator@UWeaponInfo@@@std@@@std@@@std@@QAEAAV01@XZ
_TEXT	SEGMENT
??E?$_Vector_const_iterator@V?$_Vector_val@UWeaponInfo@@V?$allocator@UWeaponInfo@@@std@@@std@@@std@@QAEAAV01@XZ PROC ; std::_Vector_const_iterator<std::_Vector_val<WeaponInfo,std::allocator<WeaponInfo> > >::operator++, COMDAT
; _this$ = ecx

; 93   : 		{	// preincrement

  00000	8b c1		 mov	 eax, ecx

; 94   :  #if _ITERATOR_DEBUG_LEVEL == 2
; 95   : 		if (this->_Getcont() == 0
; 96   : 			|| this->_Ptr == 0
; 97   : 			|| ((_Myvec *)this->_Getcont())->_Mylast <= this->_Ptr)
; 98   : 			{	// report error
; 99   : 			_DEBUG_ERROR("vector iterator not incrementable");
; 100  : 			_SCL_SECURE_OUT_OF_RANGE;
; 101  : 			}
; 102  : 
; 103  :  #elif _ITERATOR_DEBUG_LEVEL == 1
; 104  : 		_SCL_SECURE_VALIDATE(this->_Getcont() != 0);
; 105  : 		_SCL_SECURE_VALIDATE_RANGE(
; 106  : 			this->_Ptr != 0
; 107  : 			&& this->_Ptr < ((_Myvec *)this->_Getcont())->_Mylast);
; 108  :  #endif /* _ITERATOR_DEBUG_LEVEL */
; 109  : 
; 110  : 		++this->_Ptr;

  00002	83 00 28	 add	 DWORD PTR [eax], 40	; 00000028H

; 111  : 		return (*this);
; 112  : 		}

  00005	c3		 ret	 0
??E?$_Vector_const_iterator@V?$_Vector_val@UWeaponInfo@@V?$allocator@UWeaponInfo@@@std@@@std@@@std@@QAEAAV01@XZ ENDP ; std::_Vector_const_iterator<std::_Vector_val<WeaponInfo,std::allocator<WeaponInfo> > >::operator++
_TEXT	ENDS
PUBLIC	??D?$_Vector_const_iterator@V?$_Vector_val@UForceInfo@@V?$allocator@UForceInfo@@@std@@@std@@@std@@QBEABUForceInfo@@XZ ; std::_Vector_const_iterator<std::_Vector_val<ForceInfo,std::allocator<ForceInfo> > >::operator*
; Function compile flags: /Ogsp
;	COMDAT ??D?$_Vector_const_iterator@V?$_Vector_val@UForceInfo@@V?$allocator@UForceInfo@@@std@@@std@@@std@@QBEABUForceInfo@@XZ
_TEXT	SEGMENT
??D?$_Vector_const_iterator@V?$_Vector_val@UForceInfo@@V?$allocator@UForceInfo@@@std@@@std@@@std@@QBEABUForceInfo@@XZ PROC ; std::_Vector_const_iterator<std::_Vector_val<ForceInfo,std::allocator<ForceInfo> > >::operator*, COMDAT
; _this$ = ecx

; 64   :  #if _ITERATOR_DEBUG_LEVEL == 2
; 65   : 		if (this->_Getcont() == 0
; 66   : 			|| this->_Ptr == 0
; 67   : 			|| this->_Ptr < ((_Myvec *)this->_Getcont())->_Myfirst
; 68   : 			|| ((_Myvec *)this->_Getcont())->_Mylast <= this->_Ptr)
; 69   : 			{	// report error
; 70   : 			_DEBUG_ERROR("vector iterator not dereferencable");
; 71   : 			_SCL_SECURE_OUT_OF_RANGE;
; 72   : 			}
; 73   : 
; 74   :  #elif _ITERATOR_DEBUG_LEVEL == 1
; 75   : 		_SCL_SECURE_VALIDATE(this->_Getcont() != 0);
; 76   : 		_SCL_SECURE_VALIDATE_RANGE(
; 77   : 			this->_Ptr != 0
; 78   : 			&& ((_Myvec *)this->_Getcont())->_Myfirst <= this->_Ptr
; 79   : 			&& this->_Ptr < ((_Myvec *)this->_Getcont())->_Mylast);
; 80   :  #endif /* _ITERATOR_DEBUG_LEVEL */
; 81   : 
; 82   : 		__analysis_assume(this->_Ptr != 0);
; 83   : 
; 84   : 		return (*this->_Ptr);

  00000	8b 01		 mov	 eax, DWORD PTR [ecx]

; 85   : 		}

  00002	c3		 ret	 0
??D?$_Vector_const_iterator@V?$_Vector_val@UForceInfo@@V?$allocator@UForceInfo@@@std@@@std@@@std@@QBEABUForceInfo@@XZ ENDP ; std::_Vector_const_iterator<std::_Vector_val<ForceInfo,std::allocator<ForceInfo> > >::operator*
_TEXT	ENDS
PUBLIC	??E?$_Vector_const_iterator@V?$_Vector_val@UForceInfo@@V?$allocator@UForceInfo@@@std@@@std@@@std@@QAEAAV01@XZ ; std::_Vector_const_iterator<std::_Vector_val<ForceInfo,std::allocator<ForceInfo> > >::operator++
; Function compile flags: /Ogsp
;	COMDAT ??E?$_Vector_const_iterator@V?$_Vector_val@UForceInfo@@V?$allocator@UForceInfo@@@std@@@std@@@std@@QAEAAV01@XZ
_TEXT	SEGMENT
??E?$_Vector_const_iterator@V?$_Vector_val@UForceInfo@@V?$allocator@UForceInfo@@@std@@@std@@@std@@QAEAAV01@XZ PROC ; std::_Vector_const_iterator<std::_Vector_val<ForceInfo,std::allocator<ForceInfo> > >::operator++, COMDAT
; _this$ = ecx

; 93   : 		{	// preincrement

  00000	8b c1		 mov	 eax, ecx

; 94   :  #if _ITERATOR_DEBUG_LEVEL == 2
; 95   : 		if (this->_Getcont() == 0
; 96   : 			|| this->_Ptr == 0
; 97   : 			|| ((_Myvec *)this->_Getcont())->_Mylast <= this->_Ptr)
; 98   : 			{	// report error
; 99   : 			_DEBUG_ERROR("vector iterator not incrementable");
; 100  : 			_SCL_SECURE_OUT_OF_RANGE;
; 101  : 			}
; 102  : 
; 103  :  #elif _ITERATOR_DEBUG_LEVEL == 1
; 104  : 		_SCL_SECURE_VALIDATE(this->_Getcont() != 0);
; 105  : 		_SCL_SECURE_VALIDATE_RANGE(
; 106  : 			this->_Ptr != 0
; 107  : 			&& this->_Ptr < ((_Myvec *)this->_Getcont())->_Mylast);
; 108  :  #endif /* _ITERATOR_DEBUG_LEVEL */
; 109  : 
; 110  : 		++this->_Ptr;

  00002	83 00 0c	 add	 DWORD PTR [eax], 12	; 0000000cH

; 111  : 		return (*this);
; 112  : 		}

  00005	c3		 ret	 0
??E?$_Vector_const_iterator@V?$_Vector_val@UForceInfo@@V?$allocator@UForceInfo@@@std@@@std@@@std@@QAEAAV01@XZ ENDP ; std::_Vector_const_iterator<std::_Vector_val<ForceInfo,std::allocator<ForceInfo> > >::operator++
_TEXT	ENDS
PUBLIC	??$forward@ABUWeaponInfo@@@std@@YAABUWeaponInfo@@ABU1@@Z ; std::forward<WeaponInfo const &>
; Function compile flags: /Ogsp
; File c:\program files (x86)\microsoft visual studio 10.0\vc\include\utility
;	COMDAT ??$forward@ABUWeaponInfo@@@std@@YAABUWeaponInfo@@ABU1@@Z
_TEXT	SEGMENT
__Arg$ = 8						; size = 4
??$forward@ABUWeaponInfo@@@std@@YAABUWeaponInfo@@ABU1@@Z PROC ; std::forward<WeaponInfo const &>, COMDAT

; 78   : 	{	// forward _Arg, given explicitly specified type parameter

  00000	55		 push	 ebp
  00001	8b ec		 mov	 ebp, esp

; 79   : 	return ((_Ty&&)_Arg);

  00003	8b 45 08	 mov	 eax, DWORD PTR __Arg$[ebp]

; 80   : 	}

  00006	5d		 pop	 ebp
  00007	c3		 ret	 0
??$forward@ABUWeaponInfo@@@std@@YAABUWeaponInfo@@ABU1@@Z ENDP ; std::forward<WeaponInfo const &>
_TEXT	ENDS
PUBLIC	??$forward@ABUForceInfo@@@std@@YAABUForceInfo@@ABU1@@Z ; std::forward<ForceInfo const &>
; Function compile flags: /Ogsp
;	COMDAT ??$forward@ABUForceInfo@@@std@@YAABUForceInfo@@ABU1@@Z
_TEXT	SEGMENT
__Arg$ = 8						; size = 4
??$forward@ABUForceInfo@@@std@@YAABUForceInfo@@ABU1@@Z PROC ; std::forward<ForceInfo const &>, COMDAT

; 78   : 	{	// forward _Arg, given explicitly specified type parameter

  00000	55		 push	 ebp
  00001	8b ec		 mov	 ebp, esp

; 79   : 	return ((_Ty&&)_Arg);

  00003	8b 45 08	 mov	 eax, DWORD PTR __Arg$[ebp]

; 80   : 	}

  00006	5d		 pop	 ebp
  00007	c3		 ret	 0
??$forward@ABUForceInfo@@@std@@YAABUForceInfo@@ABU1@@Z ENDP ; std::forward<ForceInfo const &>
_TEXT	ENDS
PUBLIC	??$_Construct@UForceInfo@@ABU1@@std@@YAXPAUForceInfo@@ABU1@@Z ; std::_Construct<ForceInfo,ForceInfo const &>
; Function compile flags: /Ogsp
; File c:\program files (x86)\microsoft visual studio 10.0\vc\include\xmemory
;	COMDAT ??$_Construct@UForceInfo@@ABU1@@std@@YAXPAUForceInfo@@ABU1@@Z
_TEXT	SEGMENT
__Ptr$ = 8						; size = 4
__Val$ = 12						; size = 4
??$_Construct@UForceInfo@@ABU1@@std@@YAXPAUForceInfo@@ABU1@@Z PROC ; std::_Construct<ForceInfo,ForceInfo const &>, COMDAT

; 46   : 	{	// construct object at _Ptr with value _Val

  00000	55		 push	 ebp
  00001	8b ec		 mov	 ebp, esp
  00003	57		 push	 edi

; 47   : 	void _FARQ *_Vptr = _Ptr;
; 48   : 	::new (_Vptr) _Ty1(_STD forward<_Ty2>(_Val));

  00004	8b 7d 08	 mov	 edi, DWORD PTR __Ptr$[ebp]
  00007	85 ff		 test	 edi, edi
  00009	74 08		 je	 SHORT $LN3@Construct
  0000b	56		 push	 esi
  0000c	8b 75 0c	 mov	 esi, DWORD PTR __Val$[ebp]
  0000f	a5		 movsd
  00010	a5		 movsd
  00011	a5		 movsd
  00012	5e		 pop	 esi
$LN3@Construct:
  00013	5f		 pop	 edi

; 49   : 	}

  00014	5d		 pop	 ebp
  00015	c3		 ret	 0
??$_Construct@UForceInfo@@ABU1@@std@@YAXPAUForceInfo@@ABU1@@Z ENDP ; std::_Construct<ForceInfo,ForceInfo const &>
_TEXT	ENDS
PUBLIC	?_DECSTR@@YAXPADH@Z				; _DECSTR
; Function compile flags: /Ogsp
; File d:\lost saga for developer\youtube\tutorial\source\src\lsclient\stringprotect.h
;	COMDAT ?_DECSTR@@YAXPADH@Z
_TEXT	SEGMENT
_s$ = 8							; size = 4
_l$ = 12						; size = 4
?_DECSTR@@YAXPADH@Z PROC				; _DECSTR, COMDAT

; 40   : __forceinline void _DECSTR(char* s, int l){int i=0,l4=(l-1)/4,*p=(int*)s;s[l-1]=0;for(;i<l4;++i)*(p++)^=0xEAEBECED;for(i=l4*4;i<l-1;++i)s[i]^=0xED-i%4;}

  00000	55		 push	 ebp
  00001	8b ec		 mov	 ebp, esp
  00003	8b 4d 0c	 mov	 ecx, DWORD PTR _l$[ebp]
  00006	56		 push	 esi
  00007	8b 75 08	 mov	 esi, DWORD PTR _s$[ebp]
  0000a	57		 push	 edi
  0000b	8d 79 ff	 lea	 edi, DWORD PTR [ecx-1]
  0000e	8b c7		 mov	 eax, edi
  00010	99		 cdq
  00011	83 e2 03	 and	 edx, 3
  00014	03 c2		 add	 eax, edx
  00016	c1 f8 02	 sar	 eax, 2
  00019	8b d6		 mov	 edx, esi
  0001b	c6 44 0e ff 00	 mov	 BYTE PTR [esi+ecx-1], 0
  00020	85 c0		 test	 eax, eax
  00022	7e 0e		 jle	 SHORT $LN4@DECSTR
  00024	8b c8		 mov	 ecx, eax
$LL6@DECSTR:
  00026	81 32 ed ec eb
	ea		 xor	 DWORD PTR [edx], -353637139 ; eaebecedH
  0002c	83 c2 04	 add	 edx, 4
  0002f	49		 dec	 ecx
  00030	75 f4		 jne	 SHORT $LL6@DECSTR
$LN4@DECSTR:
  00032	c1 e0 02	 shl	 eax, 2
  00035	eb 17		 jmp	 SHORT $LN14@DECSTR
$LL3@DECSTR:
  00037	8b c8		 mov	 ecx, eax
  00039	81 e1 03 00 00
	80		 and	 ecx, -2147483645	; 80000003H
  0003f	79 05		 jns	 SHORT $LN13@DECSTR
  00041	49		 dec	 ecx
  00042	83 c9 fc	 or	 ecx, -4			; fffffffcH
  00045	41		 inc	 ecx
$LN13@DECSTR:
  00046	b2 ed		 mov	 dl, -19			; ffffffedH
  00048	2a d1		 sub	 dl, cl
  0004a	30 14 30	 xor	 BYTE PTR [eax+esi], dl
  0004d	40		 inc	 eax
$LN14@DECSTR:
  0004e	3b c7		 cmp	 eax, edi
  00050	7c e5		 jl	 SHORT $LL3@DECSTR
  00052	5f		 pop	 edi
  00053	5e		 pop	 esi
  00054	5d		 pop	 ebp
  00055	c3		 ret	 0
?_DECSTR@@YAXPADH@Z ENDP				; _DECSTR
_TEXT	ENDS
PUBLIC	?GetGroup@ioGameEntity@@QBEPAVioEntityGroup@@XZ	; ioGameEntity::GetGroup
; Function compile flags: /Ogsp
; File d:\lost saga for developer\youtube\tutorial\source\src\lsclient\iogameentity.h
;	COMDAT ?GetGroup@ioGameEntity@@QBEPAVioEntityGroup@@XZ
_TEXT	SEGMENT
?GetGroup@ioGameEntity@@QBEPAVioEntityGroup@@XZ PROC	; ioGameEntity::GetGroup, COMDAT
; _this$ = ecx

; 166  : 	inline ioEntityGroup* GetGroup() const { return m_pGroup; }

  00000	8b 41 04	 mov	 eax, DWORD PTR [ecx+4]
  00003	c3		 ret	 0
?GetGroup@ioGameEntity@@QBEPAVioEntityGroup@@XZ ENDP	; ioGameEntity::GetGroup
_TEXT	ENDS
PUBLIC	??1WeaponInfo@@QAE@XZ				; WeaponInfo::~WeaponInfo
EXTRN	__imp_??1ioHashString@@QAE@XZ:PROC
; Function compile flags: /Ogsp
;	COMDAT ??1WeaponInfo@@QAE@XZ
_TEXT	SEGMENT
??1WeaponInfo@@QAE@XZ PROC				; WeaponInfo::~WeaponInfo, COMDAT
; _this$ = ecx
  00000	83 c1 08	 add	 ecx, 8
  00003	ff 25 00 00 00
	00		 jmp	 DWORD PTR __imp_??1ioHashString@@QAE@XZ
??1WeaponInfo@@QAE@XZ ENDP				; WeaponInfo::~WeaponInfo
_TEXT	ENDS
PUBLIC	?GetEffect@ioMapEffect@@QBEPAVioEffect@@XZ	; ioMapEffect::GetEffect
; Function compile flags: /Ogsp
; File d:\lost saga for developer\youtube\tutorial\source\src\lsclient\iomapeffect.h
;	COMDAT ?GetEffect@ioMapEffect@@QBEPAVioEffect@@XZ
_TEXT	SEGMENT
?GetEffect@ioMapEffect@@QBEPAVioEffect@@XZ PROC		; ioMapEffect::GetEffect, COMDAT
; _this$ = ecx

; 40   : 	inline ioEffect* GetEffect() const { return m_pEffect; }

  00000	8b 41 04	 mov	 eax, DWORD PTR [ecx+4]
  00003	c3		 ret	 0
?GetEffect@ioMapEffect@@QBEPAVioEffect@@XZ ENDP		; ioMapEffect::GetEffect
_TEXT	ENDS
PUBLIC	?GetOwnerItem@ioSkill@@QBEPAVioItem@@XZ		; ioSkill::GetOwnerItem
; Function compile flags: /Ogsp
; File d:\lost saga for developer\youtube\tutorial\source\src\lsclient\ioskill.h
;	COMDAT ?GetOwnerItem@ioSkill@@QBEPAVioItem@@XZ
_TEXT	SEGMENT
?GetOwnerItem@ioSkill@@QBEPAVioItem@@XZ PROC		; ioSkill::GetOwnerItem, COMDAT
; _this$ = ecx

; 397  : 	inline ioItem *GetOwnerItem() const { return m_pOwnerItem; }

  00000	8b 81 a4 02 00
	00		 mov	 eax, DWORD PTR [ecx+676]
  00006	c3		 ret	 0
?GetOwnerItem@ioSkill@@QBEPAVioItem@@XZ ENDP		; ioSkill::GetOwnerItem
_TEXT	ENDS
PUBLIC	?GetName@ioSkill@@QBEABVioHashString@@XZ	; ioSkill::GetName
; Function compile flags: /Ogsp
;	COMDAT ?GetName@ioSkill@@QBEABVioHashString@@XZ
_TEXT	SEGMENT
?GetName@ioSkill@@QBEABVioHashString@@XZ PROC		; ioSkill::GetName, COMDAT
; _this$ = ecx

; 414  : 	inline const ioHashString& GetName() const { return m_Name; }

  00000	8d 41 24	 lea	 eax, DWORD PTR [ecx+36]
  00003	c3		 ret	 0
?GetName@ioSkill@@QBEABVioHashString@@XZ ENDP		; ioSkill::GetName
_TEXT	ENDS
PUBLIC	??_7?$CEncrypt@H@@6B@				; CEncrypt<int>::`vftable'
PUBLIC	??1?$CEncrypt@H@@UAE@XZ				; CEncrypt<int>::~CEncrypt<int>
PUBLIC	??_R4?$CEncrypt@H@@6B@				; CEncrypt<int>::`RTTI Complete Object Locator'
PUBLIC	??_R0?AV?$CEncrypt@H@@@8			; CEncrypt<int> `RTTI Type Descriptor'
PUBLIC	??_R3?$CEncrypt@H@@8				; CEncrypt<int>::`RTTI Class Hierarchy Descriptor'
PUBLIC	??_R2?$CEncrypt@H@@8				; CEncrypt<int>::`RTTI Base Class Array'
PUBLIC	??_R1A@?0A@EA@?$CEncrypt@H@@8			; CEncrypt<int>::`RTTI Base Class Descriptor at (0,-1,0,64)'
EXTRN	??1ccddaabb@@UAE@XZ:PROC			; ccddaabb::~ccddaabb
EXTRN	??_E?$CEncrypt@H@@UAEPAXI@Z:PROC		; CEncrypt<int>::`vector deleting destructor'
;	COMDAT ??_R1A@?0A@EA@?$CEncrypt@H@@8
; File d:\lost saga for developer\youtube\tutorial\source\src\lsclient\encryptvalue.h
rdata$r	SEGMENT
??_R1A@?0A@EA@?$CEncrypt@H@@8 DD FLAT:??_R0?AV?$CEncrypt@H@@@8 ; CEncrypt<int>::`RTTI Base Class Descriptor at (0,-1,0,64)'
	DD	00H
	DD	00H
	DD	0ffffffffH
	DD	00H
	DD	040H
	DD	FLAT:??_R3?$CEncrypt@H@@8
rdata$r	ENDS
;	COMDAT ??_R2?$CEncrypt@H@@8
rdata$r	SEGMENT
??_R2?$CEncrypt@H@@8 DD FLAT:??_R1A@?0A@EA@?$CEncrypt@H@@8 ; CEncrypt<int>::`RTTI Base Class Array'
rdata$r	ENDS
;	COMDAT ??_R3?$CEncrypt@H@@8
rdata$r	SEGMENT
??_R3?$CEncrypt@H@@8 DD 00H				; CEncrypt<int>::`RTTI Class Hierarchy Descriptor'
	DD	00H
	DD	01H
	DD	FLAT:??_R2?$CEncrypt@H@@8
rdata$r	ENDS
;	COMDAT ??_R0?AV?$CEncrypt@H@@@8
_DATA	SEGMENT
??_R0?AV?$CEncrypt@H@@@8 DD FLAT:??_7type_info@@6B@	; CEncrypt<int> `RTTI Type Descriptor'
	DD	00H
	DB	'.?AV?$CEncrypt@H@@', 00H
_DATA	ENDS
;	COMDAT ??_R4?$CEncrypt@H@@6B@
rdata$r	SEGMENT
??_R4?$CEncrypt@H@@6B@ DD 00H				; CEncrypt<int>::`RTTI Complete Object Locator'
	DD	00H
	DD	00H
	DD	FLAT:??_R0?AV?$CEncrypt@H@@@8
	DD	FLAT:??_R3?$CEncrypt@H@@8
rdata$r	ENDS
;	COMDAT ??_7?$CEncrypt@H@@6B@
CONST	SEGMENT
??_7?$CEncrypt@H@@6B@ DD FLAT:??_R4?$CEncrypt@H@@6B@	; CEncrypt<int>::`vftable'
	DD	FLAT:??_E?$CEncrypt@H@@UAEPAXI@Z
; Function compile flags: /Ogsp
CONST	ENDS
;	COMDAT ??1?$CEncrypt@H@@UAE@XZ
_TEXT	SEGMENT
??1?$CEncrypt@H@@UAE@XZ PROC				; CEncrypt<int>::~CEncrypt<int>, COMDAT
; _this$ = ecx

; 127  : 	{

  00000	c7 01 00 00 00
	00		 mov	 DWORD PTR [ecx], OFFSET ??_7?$CEncrypt@H@@6B@

; 128  : 	}

  00006	83 c1 0c	 add	 ecx, 12			; 0000000cH
  00009	e9 00 00 00 00	 jmp	 ??1ccddaabb@@UAE@XZ	; ccddaabb::~ccddaabb
??1?$CEncrypt@H@@UAE@XZ ENDP				; CEncrypt<int>::~CEncrypt<int>
; Function compile flags: /Ogsp
_TEXT	ENDS
;	COMDAT ??_G?$CEncrypt@H@@UAEPAXI@Z
_TEXT	SEGMENT
___flags$ = 8						; size = 4
??_G?$CEncrypt@H@@UAEPAXI@Z PROC			; CEncrypt<int>::`scalar deleting destructor', COMDAT
; _this$ = ecx
  00000	55		 push	 ebp
  00001	8b ec		 mov	 ebp, esp
  00003	56		 push	 esi
  00004	8b f1		 mov	 esi, ecx
  00006	8d 4e 0c	 lea	 ecx, DWORD PTR [esi+12]
  00009	c7 06 00 00 00
	00		 mov	 DWORD PTR [esi], OFFSET ??_7?$CEncrypt@H@@6B@
  0000f	e8 00 00 00 00	 call	 ??1ccddaabb@@UAE@XZ	; ccddaabb::~ccddaabb
  00014	f6 45 08 01	 test	 BYTE PTR ___flags$[ebp], 1
  00018	74 07		 je	 SHORT $LN1@scalar@2
  0001a	56		 push	 esi
  0001b	e8 00 00 00 00	 call	 ??3@YAXPAX@Z		; operator delete
  00020	59		 pop	 ecx
$LN1@scalar@2:
  00021	8b c6		 mov	 eax, esi
  00023	5e		 pop	 esi
  00024	5d		 pop	 ebp
  00025	c2 04 00	 ret	 4
??_G?$CEncrypt@H@@UAEPAXI@Z ENDP			; CEncrypt<int>::`scalar deleting destructor'
_TEXT	ENDS
PUBLIC	??1?$_Vector_val@UWeaponInfo@@V?$allocator@UWeaponInfo@@@std@@@std@@QAE@XZ ; std::_Vector_val<WeaponInfo,std::allocator<WeaponInfo> >::~_Vector_val<WeaponInfo,std::allocator<WeaponInfo> >
; Function compile flags: /Ogsp
; File c:\program files (x86)\microsoft visual studio 10.0\vc\include\vector
;	COMDAT ??1?$_Vector_val@UWeaponInfo@@V?$allocator@UWeaponInfo@@@std@@@std@@QAE@XZ
_TEXT	SEGMENT
??1?$_Vector_val@UWeaponInfo@@V?$allocator@UWeaponInfo@@@std@@@std@@QAE@XZ PROC ; std::_Vector_val<WeaponInfo,std::allocator<WeaponInfo> >::~_Vector_val<WeaponInfo,std::allocator<WeaponInfo> >, COMDAT
; _this$ = ecx

; 434  : 		}

  00000	c3		 ret	 0
??1?$_Vector_val@UWeaponInfo@@V?$allocator@UWeaponInfo@@@std@@@std@@QAE@XZ ENDP ; std::_Vector_val<WeaponInfo,std::allocator<WeaponInfo> >::~_Vector_val<WeaponInfo,std::allocator<WeaponInfo> >
_TEXT	ENDS
PUBLIC	??0?$allocator@UWeaponInfo@@@std@@QAE@XZ	; std::allocator<WeaponInfo>::allocator<WeaponInfo>
; Function compile flags: /Ogsp
; File c:\program files (x86)\microsoft visual studio 10.0\vc\include\xmemory
;	COMDAT ??0?$allocator@UWeaponInfo@@@std@@QAE@XZ
_TEXT	SEGMENT
??0?$allocator@UWeaponInfo@@@std@@QAE@XZ PROC		; std::allocator<WeaponInfo>::allocator<WeaponInfo>, COMDAT
; _this$ = ecx

; 161  : 	_ALLOCATOR() _THROW0()

  00000	8b c1		 mov	 eax, ecx

; 162  : 		{	// construct default allocator (do nothing)
; 163  : 		}

  00002	c3		 ret	 0
??0?$allocator@UWeaponInfo@@@std@@QAE@XZ ENDP		; std::allocator<WeaponInfo>::allocator<WeaponInfo>
_TEXT	ENDS
PUBLIC	??1?$_Vector_val@UForceInfo@@V?$allocator@UForceInfo@@@std@@@std@@QAE@XZ ; std::_Vector_val<ForceInfo,std::allocator<ForceInfo> >::~_Vector_val<ForceInfo,std::allocator<ForceInfo> >
; Function compile flags: /Ogsp
; File c:\program files (x86)\microsoft visual studio 10.0\vc\include\vector
;	COMDAT ??1?$_Vector_val@UForceInfo@@V?$allocator@UForceInfo@@@std@@@std@@QAE@XZ
_TEXT	SEGMENT
??1?$_Vector_val@UForceInfo@@V?$allocator@UForceInfo@@@std@@@std@@QAE@XZ PROC ; std::_Vector_val<ForceInfo,std::allocator<ForceInfo> >::~_Vector_val<ForceInfo,std::allocator<ForceInfo> >, COMDAT
; _this$ = ecx

; 434  : 		}

  00000	c3		 ret	 0
??1?$_Vector_val@UForceInfo@@V?$allocator@UForceInfo@@@std@@@std@@QAE@XZ ENDP ; std::_Vector_val<ForceInfo,std::allocator<ForceInfo> >::~_Vector_val<ForceInfo,std::allocator<ForceInfo> >
_TEXT	ENDS
PUBLIC	??0?$allocator@UForceInfo@@@std@@QAE@XZ		; std::allocator<ForceInfo>::allocator<ForceInfo>
; Function compile flags: /Ogsp
; File c:\program files (x86)\microsoft visual studio 10.0\vc\include\xmemory
;	COMDAT ??0?$allocator@UForceInfo@@@std@@QAE@XZ
_TEXT	SEGMENT
??0?$allocator@UForceInfo@@@std@@QAE@XZ PROC		; std::allocator<ForceInfo>::allocator<ForceInfo>, COMDAT
; _this$ = ecx

; 161  : 	_ALLOCATOR() _THROW0()

  00000	8b c1		 mov	 eax, ecx

; 162  : 		{	// construct default allocator (do nothing)
; 163  : 		}

  00002	c3		 ret	 0
??0?$allocator@UForceInfo@@@std@@QAE@XZ ENDP		; std::allocator<ForceInfo>::allocator<ForceInfo>
_TEXT	ENDS
PUBLIC	?EncryptValueToPool@?$CEncrypt@M@@AAEXPBD@Z	; CEncrypt<float>::EncryptValueToPool
EXTRN	?EncryptByte@ccddaabb@@QAEXPBDPADH@Z:PROC	; ccddaabb::EncryptByte
; Function compile flags: /Ogsp
; File d:\lost saga for developer\youtube\tutorial\source\src\lsclient\encryptvalue.h
;	COMDAT ?EncryptValueToPool@?$CEncrypt@M@@AAEXPBD@Z
_TEXT	SEGMENT
_value$ = 8						; size = 4
?EncryptValueToPool@?$CEncrypt@M@@AAEXPBD@Z PROC	; CEncrypt<float>::EncryptValueToPool, COMDAT
; _this$ = ecx

; 67   : 	{

  00000	55		 push	 ebp
  00001	8b ec		 mov	 ebp, esp

; 68   : 		m_RC5.EncryptByte( value, m_MemPool, max(m_ValueSize, DEFAULT_ENCRYPT) );

  00003	0f b7 41 06	 movzx	 eax, WORD PTR [ecx+6]
  00007	83 f8 04	 cmp	 eax, 4
  0000a	77 03		 ja	 SHORT $LN4@EncryptVal
  0000c	6a 04		 push	 4
  0000e	58		 pop	 eax
$LN4@EncryptVal:
  0000f	50		 push	 eax
  00010	8d 41 1c	 lea	 eax, DWORD PTR [ecx+28]
  00013	50		 push	 eax
  00014	ff 75 08	 push	 DWORD PTR _value$[ebp]
  00017	83 c1 0c	 add	 ecx, 12			; 0000000cH
  0001a	e8 00 00 00 00	 call	 ?EncryptByte@ccddaabb@@QAEXPBDPADH@Z ; ccddaabb::EncryptByte

; 69   : 		
; 70   : 	}

  0001f	5d		 pop	 ebp
  00020	c2 04 00	 ret	 4
?EncryptValueToPool@?$CEncrypt@M@@AAEXPBD@Z ENDP	; CEncrypt<float>::EncryptValueToPool
_TEXT	ENDS
PUBLIC	?DecryptValueToPool@?$CEncrypt@M@@QAEXPAM@Z	; CEncrypt<float>::DecryptValueToPool
EXTRN	?DecryptByte@ccddaabb@@QBEXPBDPADH@Z:PROC	; ccddaabb::DecryptByte
; Function compile flags: /Ogsp
;	COMDAT ?DecryptValueToPool@?$CEncrypt@M@@QAEXPAM@Z
_TEXT	SEGMENT
_value$ = 8						; size = 4
?DecryptValueToPool@?$CEncrypt@M@@QAEXPAM@Z PROC	; CEncrypt<float>::DecryptValueToPool, COMDAT
; _this$ = ecx

; 1648 : 	{

  00000	55		 push	 ebp
  00001	8b ec		 mov	 ebp, esp
  00003	56		 push	 esi

; 1649 : 		m_RC5.DecryptByte( m_MemPool, m_TempMem, 4 );

  00004	8d 71 28	 lea	 esi, DWORD PTR [ecx+40]
  00007	6a 04		 push	 4
  00009	8d 41 1c	 lea	 eax, DWORD PTR [ecx+28]
  0000c	56		 push	 esi
  0000d	50		 push	 eax
  0000e	83 c1 0c	 add	 ecx, 12			; 0000000cH
  00011	e8 00 00 00 00	 call	 ?DecryptByte@ccddaabb@@QBEXPBDPADH@Z ; ccddaabb::DecryptByte

; 1650 : 		*value = *((float*)m_TempMem);

  00016	d9 06		 fld	 DWORD PTR [esi]
  00018	8b 45 08	 mov	 eax, DWORD PTR _value$[ebp]
  0001b	d9 18		 fstp	 DWORD PTR [eax]
  0001d	5e		 pop	 esi

; 1651 : 	}

  0001e	5d		 pop	 ebp
  0001f	c2 04 00	 ret	 4
?DecryptValueToPool@?$CEncrypt@M@@QAEXPAM@Z ENDP	; CEncrypt<float>::DecryptValueToPool
_TEXT	ENDS
PUBLIC	?EncryptValueToPool@?$CEncrypt@K@@AAEXPBD@Z	; CEncrypt<unsigned long>::EncryptValueToPool
; Function compile flags: /Ogsp
;	COMDAT ?EncryptValueToPool@?$CEncrypt@K@@AAEXPBD@Z
_TEXT	SEGMENT
_value$ = 8						; size = 4
?EncryptValueToPool@?$CEncrypt@K@@AAEXPBD@Z PROC	; CEncrypt<unsigned long>::EncryptValueToPool, COMDAT
; _this$ = ecx

; 67   : 	{

  00000	55		 push	 ebp
  00001	8b ec		 mov	 ebp, esp

; 68   : 		m_RC5.EncryptByte( value, m_MemPool, max(m_ValueSize, DEFAULT_ENCRYPT) );

  00003	0f b7 41 06	 movzx	 eax, WORD PTR [ecx+6]
  00007	83 f8 04	 cmp	 eax, 4
  0000a	77 03		 ja	 SHORT $LN4@EncryptVal@2
  0000c	6a 04		 push	 4
  0000e	58		 pop	 eax
$LN4@EncryptVal@2:
  0000f	50		 push	 eax
  00010	8d 41 1c	 lea	 eax, DWORD PTR [ecx+28]
  00013	50		 push	 eax
  00014	ff 75 08	 push	 DWORD PTR _value$[ebp]
  00017	83 c1 0c	 add	 ecx, 12			; 0000000cH
  0001a	e8 00 00 00 00	 call	 ?EncryptByte@ccddaabb@@QAEXPBDPADH@Z ; ccddaabb::EncryptByte

; 69   : 		
; 70   : 	}

  0001f	5d		 pop	 ebp
  00020	c2 04 00	 ret	 4
?EncryptValueToPool@?$CEncrypt@K@@AAEXPBD@Z ENDP	; CEncrypt<unsigned long>::EncryptValueToPool
_TEXT	ENDS
PUBLIC	?DecryptValueToPool@?$CEncrypt@K@@QAEXPAK@Z	; CEncrypt<unsigned long>::DecryptValueToPool
; Function compile flags: /Ogsp
;	COMDAT ?DecryptValueToPool@?$CEncrypt@K@@QAEXPAK@Z
_TEXT	SEGMENT
_value$ = 8						; size = 4
?DecryptValueToPool@?$CEncrypt@K@@QAEXPAK@Z PROC	; CEncrypt<unsigned long>::DecryptValueToPool, COMDAT
; _this$ = ecx

; 1256 : 	{

  00000	55		 push	 ebp
  00001	8b ec		 mov	 ebp, esp
  00003	56		 push	 esi

; 1257 : 		m_RC5.DecryptByte( m_MemPool, m_TempMem, 4 );

  00004	8d 71 28	 lea	 esi, DWORD PTR [ecx+40]
  00007	6a 04		 push	 4
  00009	8d 41 1c	 lea	 eax, DWORD PTR [ecx+28]
  0000c	56		 push	 esi
  0000d	50		 push	 eax
  0000e	83 c1 0c	 add	 ecx, 12			; 0000000cH
  00011	e8 00 00 00 00	 call	 ?DecryptByte@ccddaabb@@QBEXPBDPADH@Z ; ccddaabb::DecryptByte

; 1258 : 		*value = *((DWORD*)m_TempMem);

  00016	8b 06		 mov	 eax, DWORD PTR [esi]
  00018	8b 4d 08	 mov	 ecx, DWORD PTR _value$[ebp]
  0001b	89 01		 mov	 DWORD PTR [ecx], eax
  0001d	5e		 pop	 esi

; 1259 : 	}

  0001e	5d		 pop	 ebp
  0001f	c2 04 00	 ret	 4
?DecryptValueToPool@?$CEncrypt@K@@QAEXPAK@Z ENDP	; CEncrypt<unsigned long>::DecryptValueToPool
_TEXT	ENDS
PUBLIC	?DecryptValueToPool@?$CEncrypt@_N@@QAEXPA_N@Z	; CEncrypt<bool>::DecryptValueToPool
; Function compile flags: /Ogsp
;	COMDAT ?DecryptValueToPool@?$CEncrypt@_N@@QAEXPA_N@Z
_TEXT	SEGMENT
_value$ = 8						; size = 4
?DecryptValueToPool@?$CEncrypt@_N@@QAEXPA_N@Z PROC	; CEncrypt<bool>::DecryptValueToPool, COMDAT
; _this$ = ecx

; 219  : 	{

  00000	55		 push	 ebp
  00001	8b ec		 mov	 ebp, esp
  00003	56		 push	 esi

; 220  : 		m_RC5.DecryptByte( m_MemPool, m_TempMem, 4 );

  00004	8d 71 28	 lea	 esi, DWORD PTR [ecx+40]
  00007	6a 04		 push	 4
  00009	8d 41 1c	 lea	 eax, DWORD PTR [ecx+28]
  0000c	56		 push	 esi
  0000d	50		 push	 eax
  0000e	83 c1 0c	 add	 ecx, 12			; 0000000cH
  00011	e8 00 00 00 00	 call	 ?DecryptByte@ccddaabb@@QBEXPBDPADH@Z ; ccddaabb::DecryptByte

; 221  : 		*value = *((bool*)m_TempMem);

  00016	8a 06		 mov	 al, BYTE PTR [esi]
  00018	8b 4d 08	 mov	 ecx, DWORD PTR _value$[ebp]
  0001b	88 01		 mov	 BYTE PTR [ecx], al
  0001d	5e		 pop	 esi

; 222  : 	}

  0001e	5d		 pop	 ebp
  0001f	c2 04 00	 ret	 4
?DecryptValueToPool@?$CEncrypt@_N@@QAEXPA_N@Z ENDP	; CEncrypt<bool>::DecryptValueToPool
_TEXT	ENDS
PUBLIC	?EncryptValueToPool@?$CEncrypt@H@@AAEXPBD@Z	; CEncrypt<int>::EncryptValueToPool
; Function compile flags: /Ogsp
;	COMDAT ?EncryptValueToPool@?$CEncrypt@H@@AAEXPBD@Z
_TEXT	SEGMENT
_value$ = 8						; size = 4
?EncryptValueToPool@?$CEncrypt@H@@AAEXPBD@Z PROC	; CEncrypt<int>::EncryptValueToPool, COMDAT
; _this$ = ecx

; 67   : 	{

  00000	55		 push	 ebp
  00001	8b ec		 mov	 ebp, esp

; 68   : 		m_RC5.EncryptByte( value, m_MemPool, max(m_ValueSize, DEFAULT_ENCRYPT) );

  00003	0f b7 41 06	 movzx	 eax, WORD PTR [ecx+6]
  00007	83 f8 04	 cmp	 eax, 4
  0000a	77 03		 ja	 SHORT $LN4@EncryptVal@3
  0000c	6a 04		 push	 4
  0000e	58		 pop	 eax
$LN4@EncryptVal@3:
  0000f	50		 push	 eax
  00010	8d 41 1c	 lea	 eax, DWORD PTR [ecx+28]
  00013	50		 push	 eax
  00014	ff 75 08	 push	 DWORD PTR _value$[ebp]
  00017	83 c1 0c	 add	 ecx, 12			; 0000000cH
  0001a	e8 00 00 00 00	 call	 ?EncryptByte@ccddaabb@@QAEXPBDPADH@Z ; ccddaabb::EncryptByte

; 69   : 		
; 70   : 	}

  0001f	5d		 pop	 ebp
  00020	c2 04 00	 ret	 4
?EncryptValueToPool@?$CEncrypt@H@@AAEXPBD@Z ENDP	; CEncrypt<int>::EncryptValueToPool
_TEXT	ENDS
PUBLIC	?Init@?$CEncrypt@H@@AAEXXZ			; CEncrypt<int>::Init
EXTRN	?Setup@ccddaabb@@QAEXPBDHH@Z:PROC		; ccddaabb::Setup
EXTRN	__imp__rand:PROC
EXTRN	__imp__timeGetTime@0:PROC
EXTRN	__imp__GetCurrentProcessId@0:PROC
; Function compile flags: /Ogsp
;	COMDAT ?Init@?$CEncrypt@H@@AAEXXZ
_TEXT	SEGMENT
_pid$ = -8						; size = 4
_tick$ = -4						; size = 4
?Init@?$CEncrypt@H@@AAEXXZ PROC				; CEncrypt<int>::Init, COMDAT
; _this$ = ecx

; 73   : 	{

  00000	55		 push	 ebp
  00001	8b ec		 mov	 ebp, esp
  00003	51		 push	 ecx
  00004	51		 push	 ecx
  00005	53		 push	 ebx
  00006	56		 push	 esi
  00007	57		 push	 edi
  00008	8b f1		 mov	 esi, ecx

; 74   : 		DWORD pid = GetCurrentProcessId();

  0000a	ff 15 00 00 00
	00		 call	 DWORD PTR __imp__GetCurrentProcessId@0
  00010	89 45 f8	 mov	 DWORD PTR _pid$[ebp], eax

; 75   : 		DWORD tick = timeGetTime();

  00013	ff 15 00 00 00
	00		 call	 DWORD PTR __imp__timeGetTime@0

; 76   : 		m_ValueSize    = sizeof(type);
; 77   : 		m_MemPoolPos   = (unsigned short)( rand()+pid+tick )%(MAX_MEM_POOL-m_ValueSize);

  00019	8b 3d 00 00 00
	00		 mov	 edi, DWORD PTR __imp__rand
  0001f	89 45 fc	 mov	 DWORD PTR _tick$[ebp], eax
  00022	6a 04		 push	 4
  00024	58		 pop	 eax
  00025	66 89 46 06	 mov	 WORD PTR [esi+6], ax
  00029	ff d7		 call	 edi
  0002b	03 45 f8	 add	 eax, DWORD PTR _pid$[ebp]
  0002e	0f b7 4e 06	 movzx	 ecx, WORD PTR [esi+6]
  00032	03 45 fc	 add	 eax, DWORD PTR _tick$[ebp]
  00035	6a 0c		 push	 12			; 0000000cH
  00037	0f b7 c0	 movzx	 eax, ax
  0003a	5b		 pop	 ebx
  0003b	99		 cdq
  0003c	2b d9		 sub	 ebx, ecx
  0003e	f7 fb		 idiv	 ebx
  00040	66 89 56 04	 mov	 WORD PTR [esi+4], dx

; 78   : 		m_EncryptSeed  = (char)( rand()+pid+tick )%256;

  00044	ff d7		 call	 edi
  00046	02 45 f8	 add	 al, BYTE PTR _pid$[ebp]
  00049	02 45 fc	 add	 al, BYTE PTR _tick$[ebp]
  0004c	0f be c0	 movsx	 eax, al
  0004f	25 ff 00 00 80	 and	 eax, -2147483393	; 800000ffH
  00054	79 07		 jns	 SHORT $LN8@Init
  00056	48		 dec	 eax
  00057	0d 00 ff ff ff	 or	 eax, -256		; ffffff00H
  0005c	40		 inc	 eax
$LN8@Init:
  0005d	88 46 08	 mov	 BYTE PTR [esi+8], al

; 79   : 
; 80   : 		for (int i = 0; i < MAX_MEM_POOL ; i++)

  00060	33 db		 xor	 ebx, ebx
$LL3@Init:

; 81   : 			m_MemPool[i] = (char)( rand()+pid+tick )%256; // 

  00062	ff d7		 call	 edi
  00064	02 45 f8	 add	 al, BYTE PTR _pid$[ebp]
  00067	02 45 fc	 add	 al, BYTE PTR _tick$[ebp]
  0006a	0f be c0	 movsx	 eax, al
  0006d	25 ff 00 00 80	 and	 eax, -2147483393	; 800000ffH
  00072	79 07		 jns	 SHORT $LN9@Init
  00074	48		 dec	 eax
  00075	0d 00 ff ff ff	 or	 eax, -256		; ffffff00H
  0007a	40		 inc	 eax
$LN9@Init:
  0007b	88 44 1e 1c	 mov	 BYTE PTR [esi+ebx+28], al
  0007f	43		 inc	 ebx
  00080	83 fb 0c	 cmp	 ebx, 12			; 0000000cH
  00083	7c dd		 jl	 SHORT $LL3@Init

; 82   : 
; 83   : 		//UJ 130913, : szKey  
; 84   : 		//char szKey[ccddaabb::KEY_SIZE];//="";
; 85   : 		//for (int i = 0; i < ccddaabb::KEY_SIZE  ; i++)
; 86   : 		//	szKey[i] = (char)( rand()+pid+tick )%256; // 
; 87   : 		m_RC5.Setup( NULL, pid, tick );

  00085	ff 75 fc	 push	 DWORD PTR _tick$[ebp]
  00088	8d 4e 0c	 lea	 ecx, DWORD PTR [esi+12]
  0008b	ff 75 f8	 push	 DWORD PTR _pid$[ebp]
  0008e	6a 00		 push	 0
  00090	e8 00 00 00 00	 call	 ?Setup@ccddaabb@@QAEXPBDHH@Z ; ccddaabb::Setup
  00095	5f		 pop	 edi
  00096	5e		 pop	 esi
  00097	5b		 pop	 ebx

; 88   : 
; 89   : #ifdef _NOTUSE
; 90   : 		m_value        = 0;
; 91   : 		EncryptValueToPool((char*)&m_value);
; 92   : 		Debug();
; 93   : #endif
; 94   : 	}

  00098	c9		 leave
  00099	c3		 ret	 0
?Init@?$CEncrypt@H@@AAEXXZ ENDP				; CEncrypt<int>::Init
_TEXT	ENDS
PUBLIC	?DecryptValueToPool@?$CEncrypt@H@@QAEXPAH@Z	; CEncrypt<int>::DecryptValueToPool
; Function compile flags: /Ogsp
;	COMDAT ?DecryptValueToPool@?$CEncrypt@H@@QAEXPAH@Z
_TEXT	SEGMENT
_value$ = 8						; size = 4
?DecryptValueToPool@?$CEncrypt@H@@QAEXPAH@Z PROC	; CEncrypt<int>::DecryptValueToPool, COMDAT
; _this$ = ecx

; 837  : 	{

  00000	55		 push	 ebp
  00001	8b ec		 mov	 ebp, esp
  00003	56		 push	 esi

; 838  : 		m_RC5.DecryptByte( m_MemPool, m_TempMem, 4 );

  00004	8d 71 28	 lea	 esi, DWORD PTR [ecx+40]
  00007	6a 04		 push	 4
  00009	8d 41 1c	 lea	 eax, DWORD PTR [ecx+28]
  0000c	56		 push	 esi
  0000d	50		 push	 eax
  0000e	83 c1 0c	 add	 ecx, 12			; 0000000cH
  00011	e8 00 00 00 00	 call	 ?DecryptByte@ccddaabb@@QBEXPBDPADH@Z ; ccddaabb::DecryptByte

; 839  : 		*value = *((int*)m_TempMem);

  00016	8b 06		 mov	 eax, DWORD PTR [esi]
  00018	8b 4d 08	 mov	 ecx, DWORD PTR _value$[ebp]
  0001b	89 01		 mov	 DWORD PTR [ecx], eax
  0001d	5e		 pop	 esi

; 840  : 	}

  0001e	5d		 pop	 ebp
  0001f	c2 04 00	 ret	 4
?DecryptValueToPool@?$CEncrypt@H@@QAEXPAH@Z ENDP	; CEncrypt<int>::DecryptValueToPool
_TEXT	ENDS
PUBLIC	?DecryptValueToPool@?$CEncrypt@W4TeamType@@@@QAEXPAW4TeamType@@@Z ; CEncrypt<enum TeamType>::DecryptValueToPool
; Function compile flags: /Ogsp
;	COMDAT ?DecryptValueToPool@?$CEncrypt@W4TeamType@@@@QAEXPAW4TeamType@@@Z
_TEXT	SEGMENT
_value$ = 8						; size = 4
?DecryptValueToPool@?$CEncrypt@W4TeamType@@@@QAEXPAW4TeamType@@@Z PROC ; CEncrypt<enum TeamType>::DecryptValueToPool, COMDAT
; _this$ = ecx

; 2959 : 	{

  00000	55		 push	 ebp
  00001	8b ec		 mov	 ebp, esp
  00003	56		 push	 esi

; 2960 : 		m_RC5.DecryptByte( m_MemPool, m_TempMem, sizeof(TeamType) );

  00004	8d 71 28	 lea	 esi, DWORD PTR [ecx+40]
  00007	6a 04		 push	 4
  00009	8d 41 1c	 lea	 eax, DWORD PTR [ecx+28]
  0000c	56		 push	 esi
  0000d	50		 push	 eax
  0000e	83 c1 0c	 add	 ecx, 12			; 0000000cH
  00011	e8 00 00 00 00	 call	 ?DecryptByte@ccddaabb@@QBEXPBDPADH@Z ; ccddaabb::DecryptByte

; 2961 : 		*value = *((TeamType*)m_TempMem);

  00016	8b 06		 mov	 eax, DWORD PTR [esi]
  00018	8b 4d 08	 mov	 ecx, DWORD PTR _value$[ebp]
  0001b	89 01		 mov	 DWORD PTR [ecx], eax
  0001d	5e		 pop	 esi

; 2962 : 	}

  0001e	5d		 pop	 ebp
  0001f	c2 04 00	 ret	 4
?DecryptValueToPool@?$CEncrypt@W4TeamType@@@@QAEXPAW4TeamType@@@Z ENDP ; CEncrypt<enum TeamType>::DecryptValueToPool
_TEXT	ENDS
PUBLIC	??0?$allocator@UWeaponInfo@@@std@@QAE@ABV01@@Z	; std::allocator<WeaponInfo>::allocator<WeaponInfo>
; Function compile flags: /Ogsp
; File c:\program files (x86)\microsoft visual studio 10.0\vc\include\xmemory
;	COMDAT ??0?$allocator@UWeaponInfo@@@std@@QAE@ABV01@@Z
_TEXT	SEGMENT
___formal$ = 8						; size = 4
??0?$allocator@UWeaponInfo@@@std@@QAE@ABV01@@Z PROC	; std::allocator<WeaponInfo>::allocator<WeaponInfo>, COMDAT
; _this$ = ecx

; 165  : 	_ALLOCATOR(const _ALLOCATOR<_Ty>&) _THROW0()

  00000	8b c1		 mov	 eax, ecx

; 166  : 		{	// construct by copying (do nothing)
; 167  : 		}

  00002	c2 04 00	 ret	 4
??0?$allocator@UWeaponInfo@@@std@@QAE@ABV01@@Z ENDP	; std::allocator<WeaponInfo>::allocator<WeaponInfo>
_TEXT	ENDS
PUBLIC	?deallocate@?$allocator@UWeaponInfo@@@std@@QAEXPAUWeaponInfo@@I@Z ; std::allocator<WeaponInfo>::deallocate
; Function compile flags: /Ogsp
;	COMDAT ?deallocate@?$allocator@UWeaponInfo@@@std@@QAEXPAUWeaponInfo@@I@Z
_TEXT	SEGMENT
__Ptr$ = 8						; size = 4
___formal$ = 12						; size = 4
?deallocate@?$allocator@UWeaponInfo@@@std@@QAEXPAUWeaponInfo@@I@Z PROC ; std::allocator<WeaponInfo>::deallocate, COMDAT
; _this$ = ecx

; 181  : 		{	// deallocate object at _Ptr, ignore size

  00000	55		 push	 ebp
  00001	8b ec		 mov	 ebp, esp

; 182  : 		::operator delete(_Ptr);

  00003	ff 75 08	 push	 DWORD PTR __Ptr$[ebp]
  00006	e8 00 00 00 00	 call	 ??3@YAXPAX@Z		; operator delete
  0000b	59		 pop	 ecx

; 183  : 		}

  0000c	5d		 pop	 ebp
  0000d	c2 08 00	 ret	 8
?deallocate@?$allocator@UWeaponInfo@@@std@@QAEXPAUWeaponInfo@@I@Z ENDP ; std::allocator<WeaponInfo>::deallocate
_TEXT	ENDS
PUBLIC	??0?$allocator@UForceInfo@@@std@@QAE@ABV01@@Z	; std::allocator<ForceInfo>::allocator<ForceInfo>
; Function compile flags: /Ogsp
;	COMDAT ??0?$allocator@UForceInfo@@@std@@QAE@ABV01@@Z
_TEXT	SEGMENT
___formal$ = 8						; size = 4
??0?$allocator@UForceInfo@@@std@@QAE@ABV01@@Z PROC	; std::allocator<ForceInfo>::allocator<ForceInfo>, COMDAT
; _this$ = ecx

; 165  : 	_ALLOCATOR(const _ALLOCATOR<_Ty>&) _THROW0()

  00000	8b c1		 mov	 eax, ecx

; 166  : 		{	// construct by copying (do nothing)
; 167  : 		}

  00002	c2 04 00	 ret	 4
??0?$allocator@UForceInfo@@@std@@QAE@ABV01@@Z ENDP	; std::allocator<ForceInfo>::allocator<ForceInfo>
_TEXT	ENDS
PUBLIC	?deallocate@?$allocator@UForceInfo@@@std@@QAEXPAUForceInfo@@I@Z ; std::allocator<ForceInfo>::deallocate
; Function compile flags: /Ogsp
;	COMDAT ?deallocate@?$allocator@UForceInfo@@@std@@QAEXPAUForceInfo@@I@Z
_TEXT	SEGMENT
__Ptr$ = 8						; size = 4
___formal$ = 12						; size = 4
?deallocate@?$allocator@UForceInfo@@@std@@QAEXPAUForceInfo@@I@Z PROC ; std::allocator<ForceInfo>::deallocate, COMDAT
; _this$ = ecx

; 181  : 		{	// deallocate object at _Ptr, ignore size

  00000	55		 push	 ebp
  00001	8b ec		 mov	 ebp, esp

; 182  : 		::operator delete(_Ptr);

  00003	ff 75 08	 push	 DWORD PTR __Ptr$[ebp]
  00006	e8 00 00 00 00	 call	 ??3@YAXPAX@Z		; operator delete
  0000b	59		 pop	 ecx

; 183  : 		}

  0000c	5d		 pop	 ebp
  0000d	c2 08 00	 ret	 8
?deallocate@?$allocator@UForceInfo@@@std@@QAEXPAUForceInfo@@I@Z ENDP ; std::allocator<ForceInfo>::deallocate
_TEXT	ENDS
PUBLIC	??$_Ptr_cat@UWeaponInfo@@U1@@std@@YA?AU_Nonscalar_ptr_iterator_tag@0@PAUWeaponInfo@@0@Z ; std::_Ptr_cat<WeaponInfo,WeaponInfo>
; Function compile flags: /Ogsp
; File c:\program files (x86)\microsoft visual studio 10.0\vc\include\xutility
;	COMDAT ??$_Ptr_cat@UWeaponInfo@@U1@@std@@YA?AU_Nonscalar_ptr_iterator_tag@0@PAUWeaponInfo@@0@Z
_TEXT	SEGMENT
__Cat$ = -1						; size = 1
___formal$ = 8						; size = 4
___formal$ = 12						; size = 4
??$_Ptr_cat@UWeaponInfo@@U1@@std@@YA?AU_Nonscalar_ptr_iterator_tag@0@PAUWeaponInfo@@0@Z PROC ; std::_Ptr_cat<WeaponInfo,WeaponInfo>, COMDAT

; 516  : 	{	// return pointer category from pointers

  00000	55		 push	 ebp
  00001	8b ec		 mov	 ebp, esp
  00003	51		 push	 ecx

; 517  : 	typename _Ptr_cat_helper<_Elem1, _Elem2>::_Type _Cat;
; 518  : 	return (_Cat);

  00004	8a 45 ff	 mov	 al, BYTE PTR __Cat$[ebp]

; 519  : 	}

  00007	c9		 leave
  00008	c3		 ret	 0
??$_Ptr_cat@UWeaponInfo@@U1@@std@@YA?AU_Nonscalar_ptr_iterator_tag@0@PAUWeaponInfo@@0@Z ENDP ; std::_Ptr_cat<WeaponInfo,WeaponInfo>
_TEXT	ENDS
PUBLIC	??$_Ptr_cat@UForceInfo@@U1@@std@@YA?AU_Nonscalar_ptr_iterator_tag@0@PAUForceInfo@@0@Z ; std::_Ptr_cat<ForceInfo,ForceInfo>
; Function compile flags: /Ogsp
;	COMDAT ??$_Ptr_cat@UForceInfo@@U1@@std@@YA?AU_Nonscalar_ptr_iterator_tag@0@PAUForceInfo@@0@Z
_TEXT	SEGMENT
__Cat$ = -1						; size = 1
___formal$ = 8						; size = 4
___formal$ = 12						; size = 4
??$_Ptr_cat@UForceInfo@@U1@@std@@YA?AU_Nonscalar_ptr_iterator_tag@0@PAUForceInfo@@0@Z PROC ; std::_Ptr_cat<ForceInfo,ForceInfo>, COMDAT

; 516  : 	{	// return pointer category from pointers

  00000	55		 push	 ebp
  00001	8b ec		 mov	 ebp, esp
  00003	51		 push	 ecx

; 517  : 	typename _Ptr_cat_helper<_Elem1, _Elem2>::_Type _Cat;
; 518  : 	return (_Cat);

  00004	8a 45 ff	 mov	 al, BYTE PTR __Cat$[ebp]

; 519  : 	}

  00007	c9		 leave
  00008	c3		 ret	 0
??$_Ptr_cat@UForceInfo@@U1@@std@@YA?AU_Nonscalar_ptr_iterator_tag@0@PAUForceInfo@@0@Z ENDP ; std::_Ptr_cat<ForceInfo,ForceInfo>
_TEXT	ENDS
PUBLIC	?size@?$vector@UWeaponInfo@@V?$allocator@UWeaponInfo@@@std@@@std@@QBEIXZ ; std::vector<WeaponInfo,std::allocator<WeaponInfo> >::size
; Function compile flags: /Ogsp
; File c:\program files (x86)\microsoft visual studio 10.0\vc\include\vector
;	COMDAT ?size@?$vector@UWeaponInfo@@V?$allocator@UWeaponInfo@@@std@@@std@@QBEIXZ
_TEXT	SEGMENT
?size@?$vector@UWeaponInfo@@V?$allocator@UWeaponInfo@@@std@@@std@@QBEIXZ PROC ; std::vector<WeaponInfo,std::allocator<WeaponInfo> >::size, COMDAT
; _this$ = ecx

; 879  : 		return (this->_Mylast - this->_Myfirst);

  00000	8b 41 04	 mov	 eax, DWORD PTR [ecx+4]
  00003	2b 01		 sub	 eax, DWORD PTR [ecx]
  00005	6a 28		 push	 40			; 00000028H
  00007	99		 cdq
  00008	59		 pop	 ecx
  00009	f7 f9		 idiv	 ecx

; 880  : 		}

  0000b	c3		 ret	 0
?size@?$vector@UWeaponInfo@@V?$allocator@UWeaponInfo@@@std@@@std@@QBEIXZ ENDP ; std::vector<WeaponInfo,std::allocator<WeaponInfo> >::size
_TEXT	ENDS
PUBLIC	?size@?$vector@UForceInfo@@V?$allocator@UForceInfo@@@std@@@std@@QBEIXZ ; std::vector<ForceInfo,std::allocator<ForceInfo> >::size
; Function compile flags: /Ogsp
;	COMDAT ?size@?$vector@UForceInfo@@V?$allocator@UForceInfo@@@std@@@std@@QBEIXZ
_TEXT	SEGMENT
?size@?$vector@UForceInfo@@V?$allocator@UForceInfo@@@std@@@std@@QBEIXZ PROC ; std::vector<ForceInfo,std::allocator<ForceInfo> >::size, COMDAT
; _this$ = ecx

; 879  : 		return (this->_Mylast - this->_Myfirst);

  00000	8b 41 04	 mov	 eax, DWORD PTR [ecx+4]
  00003	2b 01		 sub	 eax, DWORD PTR [ecx]
  00005	6a 0c		 push	 12			; 0000000cH
  00007	99		 cdq
  00008	59		 pop	 ecx
  00009	f7 f9		 idiv	 ecx

; 880  : 		}

  0000b	c3		 ret	 0
?size@?$vector@UForceInfo@@V?$allocator@UForceInfo@@@std@@@std@@QBEIXZ ENDP ; std::vector<ForceInfo,std::allocator<ForceInfo> >::size
_TEXT	ENDS
PUBLIC	??_C@_0BD@OLBABOEK@vector?$DMT?$DO?5too?5long?$AA@ ; `string'
PUBLIC	?_Xlen@?$vector@UWeaponInfo@@V?$allocator@UWeaponInfo@@@std@@@std@@IBEXXZ ; std::vector<WeaponInfo,std::allocator<WeaponInfo> >::_Xlen
EXTRN	__imp_?_Xlength_error@std@@YAXPBD@Z:PROC
;	COMDAT ??_C@_0BD@OLBABOEK@vector?$DMT?$DO?5too?5long?$AA@
CONST	SEGMENT
??_C@_0BD@OLBABOEK@vector?$DMT?$DO?5too?5long?$AA@ DB 'vector<T> too long'
	DB	00H						; `string'
; Function compile flags: /Ogsp
CONST	ENDS
;	COMDAT ?_Xlen@?$vector@UWeaponInfo@@V?$allocator@UWeaponInfo@@@std@@@std@@IBEXXZ
_TEXT	SEGMENT
?_Xlen@?$vector@UWeaponInfo@@V?$allocator@UWeaponInfo@@@std@@@std@@IBEXXZ PROC ; std::vector<WeaponInfo,std::allocator<WeaponInfo> >::_Xlen, COMDAT
; _this$ = ecx

; 1427 : 		_Xlength_error("vector<T> too long");

  00000	68 00 00 00 00	 push	 OFFSET ??_C@_0BD@OLBABOEK@vector?$DMT?$DO?5too?5long?$AA@
  00005	ff 15 00 00 00
	00		 call	 DWORD PTR __imp_?_Xlength_error@std@@YAXPBD@Z
$LN4@Xlen:
$LN3@Xlen:
  0000b	cc		 int	 3
?_Xlen@?$vector@UWeaponInfo@@V?$allocator@UWeaponInfo@@@std@@@std@@IBEXXZ ENDP ; std::vector<WeaponInfo,std::allocator<WeaponInfo> >::_Xlen
_TEXT	ENDS
PUBLIC	?_Xlen@?$vector@UForceInfo@@V?$allocator@UForceInfo@@@std@@@std@@IBEXXZ ; std::vector<ForceInfo,std::allocator<ForceInfo> >::_Xlen
; Function compile flags: /Ogsp
;	COMDAT ?_Xlen@?$vector@UForceInfo@@V?$allocator@UForceInfo@@@std@@@std@@IBEXXZ
_TEXT	SEGMENT
?_Xlen@?$vector@UForceInfo@@V?$allocator@UForceInfo@@@std@@@std@@IBEXXZ PROC ; std::vector<ForceInfo,std::allocator<ForceInfo> >::_Xlen, COMDAT
; _this$ = ecx

; 1427 : 		_Xlength_error("vector<T> too long");

  00000	68 00 00 00 00	 push	 OFFSET ??_C@_0BD@OLBABOEK@vector?$DMT?$DO?5too?5long?$AA@
  00005	ff 15 00 00 00
	00		 call	 DWORD PTR __imp_?_Xlength_error@std@@YAXPBD@Z
$LN4@Xlen@2:
$LN3@Xlen@2:
  0000b	cc		 int	 3
?_Xlen@?$vector@UForceInfo@@V?$allocator@UForceInfo@@@std@@@std@@IBEXXZ ENDP ; std::vector<ForceInfo,std::allocator<ForceInfo> >::_Xlen
_TEXT	ENDS
PUBLIC	?max_size@?$allocator@UWeaponInfo@@@std@@QBEIXZ	; std::allocator<WeaponInfo>::max_size
; Function compile flags: /Ogsp
; File c:\program files (x86)\microsoft visual studio 10.0\vc\include\xmemory
;	COMDAT ?max_size@?$allocator@UWeaponInfo@@@std@@QBEIXZ
_TEXT	SEGMENT
?max_size@?$allocator@UWeaponInfo@@@std@@QBEIXZ PROC	; std::allocator<WeaponInfo>::max_size, COMDAT
; _this$ = ecx

; 218  : 		_SIZT _Count = (_SIZT)(-1) / sizeof (_Ty);
; 219  : 		return (0 < _Count ? _Count : 1);

  00000	b8 66 66 66 06	 mov	 eax, 107374182		; 06666666H

; 220  : 		}

  00005	c3		 ret	 0
?max_size@?$allocator@UWeaponInfo@@@std@@QBEIXZ ENDP	; std::allocator<WeaponInfo>::max_size
_TEXT	ENDS
PUBLIC	?max_size@?$allocator@UForceInfo@@@std@@QBEIXZ	; std::allocator<ForceInfo>::max_size
; Function compile flags: /Ogsp
;	COMDAT ?max_size@?$allocator@UForceInfo@@@std@@QBEIXZ
_TEXT	SEGMENT
?max_size@?$allocator@UForceInfo@@@std@@QBEIXZ PROC	; std::allocator<ForceInfo>::max_size, COMDAT
; _this$ = ecx

; 218  : 		_SIZT _Count = (_SIZT)(-1) / sizeof (_Ty);
; 219  : 		return (0 < _Count ? _Count : 1);

  00000	b8 55 55 55 15	 mov	 eax, 357913941		; 15555555H

; 220  : 		}

  00005	c3		 ret	 0
?max_size@?$allocator@UForceInfo@@@std@@QBEIXZ ENDP	; std::allocator<ForceInfo>::max_size
_TEXT	ENDS
PUBLIC	??0?$_Vector_const_iterator@V?$_Vector_val@UWeaponInfo@@V?$allocator@UWeaponInfo@@@std@@@std@@@std@@QAE@PAUWeaponInfo@@PBU_Container_base0@1@@Z ; std::_Vector_const_iterator<std::_Vector_val<WeaponInfo,std::allocator<WeaponInfo> > >::_Vector_const_iterator<std::_Vector_val<WeaponInfo,std::allocator<WeaponInfo> > >
; Function compile flags: /Ogsp
; File c:\program files (x86)\microsoft visual studio 10.0\vc\include\vector
;	COMDAT ??0?$_Vector_const_iterator@V?$_Vector_val@UWeaponInfo@@V?$allocator@UWeaponInfo@@@std@@@std@@@std@@QAE@PAUWeaponInfo@@PBU_Container_base0@1@@Z
_TEXT	SEGMENT
__Parg$ = 8						; size = 4
__Pvector$ = 12						; size = 4
??0?$_Vector_const_iterator@V?$_Vector_val@UWeaponInfo@@V?$allocator@UWeaponInfo@@@std@@@std@@@std@@QAE@PAUWeaponInfo@@PBU_Container_base0@1@@Z PROC ; std::_Vector_const_iterator<std::_Vector_val<WeaponInfo,std::allocator<WeaponInfo> > >::_Vector_const_iterator<std::_Vector_val<WeaponInfo,std::allocator<WeaponInfo> > >, COMDAT
; _this$ = ecx

; 45   : 		{	// construct with pointer _Parg

  00000	55		 push	 ebp
  00001	8b ec		 mov	 ebp, esp
  00003	8b c1		 mov	 eax, ecx
  00005	8b 4d 08	 mov	 ecx, DWORD PTR __Parg$[ebp]
  00008	89 08		 mov	 DWORD PTR [eax], ecx

; 46   : 		this->_Adopt(_Pvector);
; 47   : 		}

  0000a	5d		 pop	 ebp
  0000b	c2 08 00	 ret	 8
??0?$_Vector_const_iterator@V?$_Vector_val@UWeaponInfo@@V?$allocator@UWeaponInfo@@@std@@@std@@@std@@QAE@PAUWeaponInfo@@PBU_Container_base0@1@@Z ENDP ; std::_Vector_const_iterator<std::_Vector_val<WeaponInfo,std::allocator<WeaponInfo> > >::_Vector_const_iterator<std::_Vector_val<WeaponInfo,std::allocator<WeaponInfo> > >
_TEXT	ENDS
PUBLIC	??0?$_Vector_const_iterator@V?$_Vector_val@UForceInfo@@V?$allocator@UForceInfo@@@std@@@std@@@std@@QAE@PAUForceInfo@@PBU_Container_base0@1@@Z ; std::_Vector_const_iterator<std::_Vector_val<ForceInfo,std::allocator<ForceInfo> > >::_Vector_const_iterator<std::_Vector_val<ForceInfo,std::allocator<ForceInfo> > >
; Function compile flags: /Ogsp
;	COMDAT ??0?$_Vector_const_iterator@V?$_Vector_val@UForceInfo@@V?$allocator@UForceInfo@@@std@@@std@@@std@@QAE@PAUForceInfo@@PBU_Container_base0@1@@Z
_TEXT	SEGMENT
__Parg$ = 8						; size = 4
__Pvector$ = 12						; size = 4
??0?$_Vector_const_iterator@V?$_Vector_val@UForceInfo@@V?$allocator@UForceInfo@@@std@@@std@@@std@@QAE@PAUForceInfo@@PBU_Container_base0@1@@Z PROC ; std::_Vector_const_iterator<std::_Vector_val<ForceInfo,std::allocator<ForceInfo> > >::_Vector_const_iterator<std::_Vector_val<ForceInfo,std::allocator<ForceInfo> > >, COMDAT
; _this$ = ecx

; 45   : 		{	// construct with pointer _Parg

  00000	55		 push	 ebp
  00001	8b ec		 mov	 ebp, esp
  00003	8b c1		 mov	 eax, ecx
  00005	8b 4d 08	 mov	 ecx, DWORD PTR __Parg$[ebp]
  00008	89 08		 mov	 DWORD PTR [eax], ecx

; 46   : 		this->_Adopt(_Pvector);
; 47   : 		}

  0000a	5d		 pop	 ebp
  0000b	c2 08 00	 ret	 8
??0?$_Vector_const_iterator@V?$_Vector_val@UForceInfo@@V?$allocator@UForceInfo@@@std@@@std@@@std@@QAE@PAUForceInfo@@PBU_Container_base0@1@@Z ENDP ; std::_Vector_const_iterator<std::_Vector_val<ForceInfo,std::allocator<ForceInfo> > >::_Vector_const_iterator<std::_Vector_val<ForceInfo,std::allocator<ForceInfo> > >
_TEXT	ENDS
PUBLIC	?_Compat@?$_Vector_const_iterator@V?$_Vector_val@UWeaponInfo@@V?$allocator@UWeaponInfo@@@std@@@std@@@std@@QBEXABV12@@Z ; std::_Vector_const_iterator<std::_Vector_val<WeaponInfo,std::allocator<WeaponInfo> > >::_Compat
; Function compile flags: /Ogsp
;	COMDAT ?_Compat@?$_Vector_const_iterator@V?$_Vector_val@UWeaponInfo@@V?$allocator@UWeaponInfo@@@std@@@std@@@std@@QBEXABV12@@Z
_TEXT	SEGMENT
___formal$ = 8						; size = 4
?_Compat@?$_Vector_const_iterator@V?$_Vector_val@UWeaponInfo@@V?$allocator@UWeaponInfo@@@std@@@std@@@std@@QBEXABV12@@Z PROC ; std::_Vector_const_iterator<std::_Vector_val<WeaponInfo,std::allocator<WeaponInfo> > >::_Compat, COMDAT
; _this$ = ecx

; 253  : 		}

  00000	c2 04 00	 ret	 4
?_Compat@?$_Vector_const_iterator@V?$_Vector_val@UWeaponInfo@@V?$allocator@UWeaponInfo@@@std@@@std@@@std@@QBEXABV12@@Z ENDP ; std::_Vector_const_iterator<std::_Vector_val<WeaponInfo,std::allocator<WeaponInfo> > >::_Compat
_TEXT	ENDS
PUBLIC	?_Compat@?$_Vector_const_iterator@V?$_Vector_val@UForceInfo@@V?$allocator@UForceInfo@@@std@@@std@@@std@@QBEXABV12@@Z ; std::_Vector_const_iterator<std::_Vector_val<ForceInfo,std::allocator<ForceInfo> > >::_Compat
; Function compile flags: /Ogsp
;	COMDAT ?_Compat@?$_Vector_const_iterator@V?$_Vector_val@UForceInfo@@V?$allocator@UForceInfo@@@std@@@std@@@std@@QBEXABV12@@Z
_TEXT	SEGMENT
___formal$ = 8						; size = 4
?_Compat@?$_Vector_const_iterator@V?$_Vector_val@UForceInfo@@V?$allocator@UForceInfo@@@std@@@std@@@std@@QBEXABV12@@Z PROC ; std::_Vector_const_iterator<std::_Vector_val<ForceInfo,std::allocator<ForceInfo> > >::_Compat, COMDAT
; _this$ = ecx

; 253  : 		}

  00000	c2 04 00	 ret	 4
?_Compat@?$_Vector_const_iterator@V?$_Vector_val@UForceInfo@@V?$allocator@UForceInfo@@@std@@@std@@@std@@QBEXABV12@@Z ENDP ; std::_Vector_const_iterator<std::_Vector_val<ForceInfo,std::allocator<ForceInfo> > >::_Compat
_TEXT	ENDS
PUBLIC	__TI2?AVbad_alloc@std@@
PUBLIC	??$_Allocate@UWeaponInfo@@@std@@YAPAUWeaponInfo@@IPAU1@@Z ; std::_Allocate<WeaponInfo>
PUBLIC	__CTA2?AVbad_alloc@std@@
PUBLIC	__CT??_R0?AVbad_alloc@std@@@8??0bad_alloc@std@@QAE@ABV01@@Z12
PUBLIC	??0bad_alloc@std@@QAE@ABV01@@Z			; std::bad_alloc::bad_alloc
PUBLIC	__CT??_R0?AVexception@std@@@8??0exception@std@@QAE@ABV01@@Z12
EXTRN	??2@YAPAXI@Z:PROC				; operator new
EXTRN	__CxxThrowException@8:PROC
EXTRN	??0exception@std@@QAE@ABV01@@Z:PROC		; std::exception::exception
;	COMDAT __CT??_R0?AVexception@std@@@8??0exception@std@@QAE@ABV01@@Z12
; File c:\program files (x86)\microsoft visual studio 10.0\vc\include\exception
xdata$x	SEGMENT
__CT??_R0?AVexception@std@@@8??0exception@std@@QAE@ABV01@@Z12 DD 00H
	DD	FLAT:??_R0?AVexception@std@@@8
	DD	00H
	DD	0ffffffffH
	ORG $+4
	DD	0cH
	DD	FLAT:??0exception@std@@QAE@ABV01@@Z
xdata$x	ENDS
;	COMDAT __CT??_R0?AVbad_alloc@std@@@8??0bad_alloc@std@@QAE@ABV01@@Z12
xdata$x	SEGMENT
__CT??_R0?AVbad_alloc@std@@@8??0bad_alloc@std@@QAE@ABV01@@Z12 DD 00H
	DD	FLAT:??_R0?AVbad_alloc@std@@@8
	DD	00H
	DD	0ffffffffH
	ORG $+4
	DD	0cH
	DD	FLAT:??0bad_alloc@std@@QAE@ABV01@@Z
xdata$x	ENDS
;	COMDAT __CTA2?AVbad_alloc@std@@
xdata$x	SEGMENT
__CTA2?AVbad_alloc@std@@ DD 02H
	DD	FLAT:__CT??_R0?AVbad_alloc@std@@@8??0bad_alloc@std@@QAE@ABV01@@Z12
	DD	FLAT:__CT??_R0?AVexception@std@@@8??0exception@std@@QAE@ABV01@@Z12
xdata$x	ENDS
;	COMDAT __TI2?AVbad_alloc@std@@
xdata$x	SEGMENT
__TI2?AVbad_alloc@std@@ DD 00H
	DD	FLAT:??1bad_alloc@std@@UAE@XZ
	DD	00H
	DD	FLAT:__CTA2?AVbad_alloc@std@@
; Function compile flags: /Ogsp
; File c:\program files (x86)\microsoft visual studio 10.0\vc\include\xmemory
xdata$x	ENDS
;	COMDAT ??$_Allocate@UWeaponInfo@@@std@@YAPAUWeaponInfo@@IPAU1@@Z
_TEXT	SEGMENT
$T553092 = -12						; size = 12
$T553097 = 8						; size = 4
__Count$ = 8						; size = 4
___formal$ = 12						; size = 4
??$_Allocate@UWeaponInfo@@@std@@YAPAUWeaponInfo@@IPAU1@@Z PROC ; std::_Allocate<WeaponInfo>, COMDAT

; 30   : 	{	// allocate storage for _Count elements of type _Ty

  00000	55		 push	 ebp
  00001	8b ec		 mov	 ebp, esp

; 31   : 	void *_Ptr = 0;
; 32   : 
; 33   : 	if (_Count <= 0)

  00003	8b 4d 08	 mov	 ecx, DWORD PTR __Count$[ebp]
  00006	83 ec 0c	 sub	 esp, 12			; 0000000cH
  00009	33 c0		 xor	 eax, eax
  0000b	85 c9		 test	 ecx, ecx

; 34   : 		_Count = 0;
; 35   : 	else if (((_SIZT)(-1) / sizeof (_Ty) < _Count)

  0000d	74 3c		 je	 SHORT $LN5@Allocate

; 36   : 		|| (_Ptr = ::operator new(_Count * sizeof (_Ty))) == 0)

  0000f	81 f9 66 66 66
	06		 cmp	 ecx, 107374182		; 06666666H
  00015	77 0e		 ja	 SHORT $LN1@Allocate
  00017	6b c9 28	 imul	 ecx, 40			; 00000028H
  0001a	51		 push	 ecx
  0001b	e8 00 00 00 00	 call	 ??2@YAPAXI@Z		; operator new
  00020	59		 pop	 ecx
  00021	85 c0		 test	 eax, eax

; 38   : 
; 39   : 	return ((_Ty _FARQ *)_Ptr);

  00023	75 26		 jne	 SHORT $LN5@Allocate
$LN1@Allocate:

; 37   : 		_THROW_NCEE(bad_alloc, 0);

  00025	83 65 08 00	 and	 DWORD PTR $T553097[ebp], 0
  00029	8d 45 08	 lea	 eax, DWORD PTR $T553097[ebp]
  0002c	50		 push	 eax
  0002d	8d 4d f4	 lea	 ecx, DWORD PTR $T553092[ebp]
  00030	ff 15 00 00 00
	00		 call	 DWORD PTR __imp_??0exception@std@@QAE@ABQBD@Z
  00036	68 00 00 00 00	 push	 OFFSET __TI2?AVbad_alloc@std@@
  0003b	8d 45 f4	 lea	 eax, DWORD PTR $T553092[ebp]
  0003e	50		 push	 eax
  0003f	c7 45 f4 00 00
	00 00		 mov	 DWORD PTR $T553092[ebp], OFFSET ??_7bad_alloc@std@@6B@
  00046	e8 00 00 00 00	 call	 __CxxThrowException@8
$LN10@Allocate:
$LN5@Allocate:

; 40   : 	}

  0004b	c9		 leave
  0004c	c3		 ret	 0
$LN9@Allocate:
??$_Allocate@UWeaponInfo@@@std@@YAPAUWeaponInfo@@IPAU1@@Z ENDP ; std::_Allocate<WeaponInfo>
_TEXT	ENDS
EXTRN	__imp_??0exception@std@@QAE@ABV01@@Z:PROC
; Function compile flags: /Ogsp
;	COMDAT ??0bad_alloc@std@@QAE@ABV01@@Z
_TEXT	SEGMENT
___that$ = 8						; size = 4
??0bad_alloc@std@@QAE@ABV01@@Z PROC			; std::bad_alloc::bad_alloc, COMDAT
; _this$ = ecx
  00000	55		 push	 ebp
  00001	8b ec		 mov	 ebp, esp
  00003	56		 push	 esi
  00004	ff 75 08	 push	 DWORD PTR ___that$[ebp]
  00007	8b f1		 mov	 esi, ecx
  00009	ff 15 00 00 00
	00		 call	 DWORD PTR __imp_??0exception@std@@QAE@ABV01@@Z
  0000f	c7 06 00 00 00
	00		 mov	 DWORD PTR [esi], OFFSET ??_7bad_alloc@std@@6B@
  00015	8b c6		 mov	 eax, esi
  00017	5e		 pop	 esi
  00018	5d		 pop	 ebp
  00019	c2 04 00	 ret	 4
??0bad_alloc@std@@QAE@ABV01@@Z ENDP			; std::bad_alloc::bad_alloc
_TEXT	ENDS
PUBLIC	??$_Allocate@UForceInfo@@@std@@YAPAUForceInfo@@IPAU1@@Z ; std::_Allocate<ForceInfo>
; Function compile flags: /Ogsp
;	COMDAT ??$_Allocate@UForceInfo@@@std@@YAPAUForceInfo@@IPAU1@@Z
_TEXT	SEGMENT
$T553105 = -12						; size = 12
$T553109 = 8						; size = 4
__Count$ = 8						; size = 4
___formal$ = 12						; size = 4
??$_Allocate@UForceInfo@@@std@@YAPAUForceInfo@@IPAU1@@Z PROC ; std::_Allocate<ForceInfo>, COMDAT

; 30   : 	{	// allocate storage for _Count elements of type _Ty

  00000	55		 push	 ebp
  00001	8b ec		 mov	 ebp, esp

; 31   : 	void *_Ptr = 0;
; 32   : 
; 33   : 	if (_Count <= 0)

  00003	8b 4d 08	 mov	 ecx, DWORD PTR __Count$[ebp]
  00006	83 ec 0c	 sub	 esp, 12			; 0000000cH
  00009	33 c0		 xor	 eax, eax
  0000b	85 c9		 test	 ecx, ecx

; 34   : 		_Count = 0;
; 35   : 	else if (((_SIZT)(-1) / sizeof (_Ty) < _Count)

  0000d	74 3c		 je	 SHORT $LN5@Allocate@2

; 36   : 		|| (_Ptr = ::operator new(_Count * sizeof (_Ty))) == 0)

  0000f	81 f9 55 55 55
	15		 cmp	 ecx, 357913941		; 15555555H
  00015	77 0e		 ja	 SHORT $LN1@Allocate@2
  00017	6b c9 0c	 imul	 ecx, 12			; 0000000cH
  0001a	51		 push	 ecx
  0001b	e8 00 00 00 00	 call	 ??2@YAPAXI@Z		; operator new
  00020	59		 pop	 ecx
  00021	85 c0		 test	 eax, eax

; 38   : 
; 39   : 	return ((_Ty _FARQ *)_Ptr);

  00023	75 26		 jne	 SHORT $LN5@Allocate@2
$LN1@Allocate@2:

; 37   : 		_THROW_NCEE(bad_alloc, 0);

  00025	83 65 08 00	 and	 DWORD PTR $T553109[ebp], 0
  00029	8d 45 08	 lea	 eax, DWORD PTR $T553109[ebp]
  0002c	50		 push	 eax
  0002d	8d 4d f4	 lea	 ecx, DWORD PTR $T553105[ebp]
  00030	ff 15 00 00 00
	00		 call	 DWORD PTR __imp_??0exception@std@@QAE@ABQBD@Z
  00036	68 00 00 00 00	 push	 OFFSET __TI2?AVbad_alloc@std@@
  0003b	8d 45 f4	 lea	 eax, DWORD PTR $T553105[ebp]
  0003e	50		 push	 eax
  0003f	c7 45 f4 00 00
	00 00		 mov	 DWORD PTR $T553105[ebp], OFFSET ??_7bad_alloc@std@@6B@
  00046	e8 00 00 00 00	 call	 __CxxThrowException@8
$LN10@Allocate@2:
$LN5@Allocate@2:

; 40   : 	}

  0004b	c9		 leave
  0004c	c3		 ret	 0
$LN9@Allocate@2:
??$_Allocate@UForceInfo@@@std@@YAPAUForceInfo@@IPAU1@@Z ENDP ; std::_Allocate<ForceInfo>
_TEXT	ENDS
PUBLIC	??$_Destroy@UForceInfo@@@std@@YAXPAUForceInfo@@@Z ; std::_Destroy<ForceInfo>
; Function compile flags: /Ogsp
;	COMDAT ??$_Destroy@UForceInfo@@@std@@YAXPAUForceInfo@@@Z
_TEXT	SEGMENT
__Ptr$ = 8						; size = 4
??$_Destroy@UForceInfo@@@std@@YAXPAUForceInfo@@@Z PROC	; std::_Destroy<ForceInfo>, COMDAT

; 63   : 	_Ptr->~_Ty();
; 64   : 	}

  00000	c3		 ret	 0
??$_Destroy@UForceInfo@@@std@@YAXPAUForceInfo@@@Z ENDP	; std::_Destroy<ForceInfo>
_TEXT	ENDS
PUBLIC	??_GWeaponInfo@@QAEPAXI@Z			; WeaponInfo::`scalar deleting destructor'
; Function compile flags: /Ogsp
;	COMDAT ??_GWeaponInfo@@QAEPAXI@Z
_TEXT	SEGMENT
___flags$ = 8						; size = 4
??_GWeaponInfo@@QAEPAXI@Z PROC				; WeaponInfo::`scalar deleting destructor', COMDAT
; _this$ = ecx
  00000	55		 push	 ebp
  00001	8b ec		 mov	 ebp, esp
  00003	56		 push	 esi
  00004	8b f1		 mov	 esi, ecx
  00006	8d 4e 08	 lea	 ecx, DWORD PTR [esi+8]
  00009	ff 15 00 00 00
	00		 call	 DWORD PTR __imp_??1ioHashString@@QAE@XZ
  0000f	f6 45 08 01	 test	 BYTE PTR ___flags$[ebp], 1
  00013	74 07		 je	 SHORT $LN1@scalar@3
  00015	56		 push	 esi
  00016	e8 00 00 00 00	 call	 ??3@YAXPAX@Z		; operator delete
  0001b	59		 pop	 ecx
$LN1@scalar@3:
  0001c	8b c6		 mov	 eax, esi
  0001e	5e		 pop	 esi
  0001f	5d		 pop	 ebp
  00020	c2 04 00	 ret	 4
??_GWeaponInfo@@QAEPAXI@Z ENDP				; WeaponInfo::`scalar deleting destructor'
_TEXT	ENDS
PUBLIC	??0WeaponInfo@@QAE@ABU0@@Z			; WeaponInfo::WeaponInfo
EXTRN	__imp_??0ioHashString@@QAE@ABV0@@Z:PROC
; Function compile flags: /Ogsp
;	COMDAT ??0WeaponInfo@@QAE@ABU0@@Z
_TEXT	SEGMENT
___that$ = 8						; size = 4
??0WeaponInfo@@QAE@ABU0@@Z PROC				; WeaponInfo::WeaponInfo, COMDAT
; _this$ = ecx
  00000	55		 push	 ebp
  00001	8b ec		 mov	 ebp, esp
  00003	56		 push	 esi
  00004	57		 push	 edi
  00005	8b 7d 08	 mov	 edi, DWORD PTR ___that$[ebp]
  00008	8b 07		 mov	 eax, DWORD PTR [edi]
  0000a	8b f1		 mov	 esi, ecx
  0000c	89 06		 mov	 DWORD PTR [esi], eax
  0000e	8b 47 04	 mov	 eax, DWORD PTR [edi+4]
  00011	89 46 04	 mov	 DWORD PTR [esi+4], eax
  00014	8d 47 08	 lea	 eax, DWORD PTR [edi+8]
  00017	50		 push	 eax
  00018	8d 4e 08	 lea	 ecx, DWORD PTR [esi+8]
  0001b	ff 15 00 00 00
	00		 call	 DWORD PTR __imp_??0ioHashString@@QAE@ABV0@@Z
  00021	8b 47 18	 mov	 eax, DWORD PTR [edi+24]
  00024	89 46 18	 mov	 DWORD PTR [esi+24], eax
  00027	8b 47 1c	 mov	 eax, DWORD PTR [edi+28]
  0002a	89 46 1c	 mov	 DWORD PTR [esi+28], eax
  0002d	8a 47 20	 mov	 al, BYTE PTR [edi+32]
  00030	88 46 20	 mov	 BYTE PTR [esi+32], al
  00033	8b 47 24	 mov	 eax, DWORD PTR [edi+36]
  00036	89 46 24	 mov	 DWORD PTR [esi+36], eax
  00039	5f		 pop	 edi
  0003a	8b c6		 mov	 eax, esi
  0003c	5e		 pop	 esi
  0003d	5d		 pop	 ebp
  0003e	c2 04 00	 ret	 4
??0WeaponInfo@@QAE@ABU0@@Z ENDP				; WeaponInfo::WeaponInfo
_TEXT	ENDS
PUBLIC	__real@4040b33340000000
PUBLIC	__real@4205999a
PUBLIC	__real@4f800000
PUBLIC	__real@00000000
PUBLIC	_pStage$GSCopy$
PUBLIC	_pChar$GSCopy$
PUBLIC	__$ArrayPad$
PUBLIC	?ProcessPreAction@ioChargingFireSkill@@IAEXPAVioBaseChar@@PAVioPlayStage@@@Z ; ioChargingFireSkill::ProcessPreAction
EXTRN	?CheckAxisLimit@ioBaseChar@@QAE_NPAUD3DXVECTOR3@@@Z:PROC ; ioBaseChar::CheckAxisLimit
EXTRN	?ReCalculateMoveVectorByTerrain@ioPlayStage@@QAE_NPAVioBaseChar@@PAUD3DXVECTOR3@@AA_N@Z:PROC ; ioPlayStage::ReCalculateMoveVectorByTerrain
EXTRN	__imp_?GetSecPerFrame@ioFrameTimer@@QBEMXZ:PROC
EXTRN	__imp_?VEC3_ZERO@ioMath@@2UD3DXVECTOR3@@A:BYTE
EXTRN	___security_cookie:DWORD
EXTRN	@__security_check_cookie@4:PROC
;	COMDAT __real@4040b33340000000
; File c:\program files (x86)\microsoft directx sdk (june 2010)\include\d3dx9math.inl
CONST	SEGMENT
__real@4040b33340000000 DQ 04040b33340000000r	; 33.4
CONST	ENDS
;	COMDAT __real@4205999a
CONST	SEGMENT
__real@4205999a DD 04205999ar			; 33.4
CONST	ENDS
;	COMDAT __real@4f800000
CONST	SEGMENT
__real@4f800000 DD 04f800000r			; 4.29497e+009
CONST	ENDS
;	COMDAT __real@00000000
CONST	SEGMENT
__real@00000000 DD 000000000r			; 0
; Function compile flags: /Ogsp
; File d:\lost saga for developer\youtube\tutorial\source\src\lsclient\iochargingfireskill.cpp
CONST	ENDS
;	COMDAT ?ProcessPreAction@ioChargingFireSkill@@IAEXPAVioBaseChar@@PAVioPlayStage@@@Z
_TEXT	SEGMENT
_pChar$GSCopy$ = -48					; size = 4
_pStage$GSCopy$ = -44					; size = 4
tv92 = -40						; size = 4
_fTimePerSec$ = -40					; size = 4
_bCol$548536 = -33					; size = 1
tv649 = -32						; size = 4
tv634 = -32						; size = 4
tv630 = -32						; size = 4
tv626 = -32						; size = 4
_fDivideTimePerSec$548527 = -32				; size = 4
_fCurTimeGap$ = -32					; size = 4
_vPos$ = -28						; size = 12
_vTotalMove$ = -16					; size = 12
__$ArrayPad$ = -4					; size = 4
_pChar$ = 8						; size = 4
_pStage$ = 12						; size = 4
?ProcessPreAction@ioChargingFireSkill@@IAEXPAVioBaseChar@@PAVioPlayStage@@@Z PROC ; ioChargingFireSkill::ProcessPreAction, COMDAT
; _this$ = ecx

; 700  : {

  00000	55		 push	 ebp
  00001	8b ec		 mov	 ebp, esp
  00003	83 ec 30	 sub	 esp, 48			; 00000030H
  00006	a1 00 00 00 00	 mov	 eax, DWORD PTR ___security_cookie
  0000b	33 c5		 xor	 eax, ebp
  0000d	89 45 fc	 mov	 DWORD PTR __$ArrayPad$[ebp], eax
  00010	8b 45 0c	 mov	 eax, DWORD PTR _pStage$[ebp]
  00013	56		 push	 esi
  00014	57		 push	 edi
  00015	8b 7d 08	 mov	 edi, DWORD PTR _pChar$[ebp]
  00018	8b f1		 mov	 esi, ecx

; 712  : 	while( fCurTimeGap > 0.0f )

  0001a	89 7d d0	 mov	 DWORD PTR _pChar$GSCopy$[ebp], edi

; 731  : 		}
; 732  : 	}
; 733  : 
; 734  : 	D3DXVECTOR3 vPos = pChar->GetWorldPosition();

  0001d	89 45 d4	 mov	 DWORD PTR _pStage$GSCopy$[ebp], eax
  00020	85 ff		 test	 edi, edi
  00022	0f 84 c2 02 00
	00		 je	 $LN1@ProcessPre

; 701  : 	if( !pChar ) return;
; 702  : 	if( !pStage ) return;

  00028	85 c0		 test	 eax, eax
  0002a	0f 84 ba 02 00
	00		 je	 $LN1@ProcessPre

; 703  : 	if( m_fCharMoveSpeed == 0.0f ) return;

  00030	f3 0f 10 86 00
	10 00 00	 movss	 xmm0, DWORD PTR [esi+4096]
  00038	0f 2e 05 00 00
	00 00		 ucomiss xmm0, DWORD PTR __real@00000000
  0003f	53		 push	 ebx
  00040	9f		 lahf
  00041	b3 44		 mov	 bl, 68			; 00000044H
  00043	84 e3		 test	 ah, bl
  00045	0f 8b 9e 02 00
	00		 jnp	 $LN42@ProcessPre

; 704  : 	if( m_vCharMoveDir == ioMath::VEC3_ZERO ) return;

  0004b	8b 0d 00 00 00
	00		 mov	 ecx, DWORD PTR __imp_?VEC3_ZERO@ioMath@@2UD3DXVECTOR3@@A
  00051	f3 0f 10 86 f4
	0f 00 00	 movss	 xmm0, DWORD PTR [esi+4084]
  00059	f3 0f 10 09	 movss	 xmm1, DWORD PTR [ecx]
  0005d	0f 5a c0	 cvtps2pd xmm0, xmm0
  00060	0f 5a c9	 cvtps2pd xmm1, xmm1
  00063	66 0f 2e c1	 ucomisd xmm0, xmm1
  00067	9f		 lahf
  00068	84 e3		 test	 ah, bl
  0006a	7a 3c		 jp	 SHORT $LN17@ProcessPre
  0006c	f3 0f 10 86 f8
	0f 00 00	 movss	 xmm0, DWORD PTR [esi+4088]
  00074	f3 0f 10 49 04	 movss	 xmm1, DWORD PTR [ecx+4]
  00079	0f 5a c0	 cvtps2pd xmm0, xmm0
  0007c	0f 5a c9	 cvtps2pd xmm1, xmm1
  0007f	66 0f 2e c1	 ucomisd xmm0, xmm1
  00083	9f		 lahf
  00084	84 e3		 test	 ah, bl
  00086	7a 20		 jp	 SHORT $LN17@ProcessPre
  00088	f3 0f 10 86 fc
	0f 00 00	 movss	 xmm0, DWORD PTR [esi+4092]
  00090	f3 0f 10 49 08	 movss	 xmm1, DWORD PTR [ecx+8]
  00095	0f 5a c0	 cvtps2pd xmm0, xmm0
  00098	0f 5a c9	 cvtps2pd xmm1, xmm1
  0009b	66 0f 2e c1	 ucomisd xmm0, xmm1
  0009f	9f		 lahf
  000a0	84 e3		 test	 ah, bl
  000a2	0f 8b 41 02 00
	00		 jnp	 $LN42@ProcessPre
$LN17@ProcessPre:

; 705  : 
; 706  : 	float fTimePerSec = g_FrameTimer.GetSecPerFrame();

  000a8	ff 15 00 00 00
	00		 call	 DWORD PTR __imp_?GetSingleton@ioFrameTimer@@SAAAV1@XZ
  000ae	8b c8		 mov	 ecx, eax
  000b0	ff 15 00 00 00
	00		 call	 DWORD PTR __imp_?GetSecPerFrame@ioFrameTimer@@QBEMXZ
  000b6	d9 5d d8	 fstp	 DWORD PTR _fTimePerSec$[ebp]

; 707  : 
; 708  : 	bool bCurMove = false;
; 709  : 	D3DXVECTOR3 vTotalMove( 0.0f, 0.0f, 0.0f );

  000b9	0f 57 ed	 xorps	 xmm5, xmm5
  000bc	32 d2		 xor	 dl, dl
  000be	f3 0f 11 6d f0	 movss	 DWORD PTR _vTotalMove$[ebp], xmm5
  000c3	f3 0f 11 6d f4	 movss	 DWORD PTR _vTotalMove$[ebp+4], xmm5
  000c8	f3 0f 11 6d f8	 movss	 DWORD PTR _vTotalMove$[ebp+8], xmm5

; 710  : 
; 711  : 	float fCurTimeGap = fTimePerSec * FLOAT1000;

  000cd	b8 e8 03 00 00	 mov	 eax, 1000		; 000003e8H
  000d2	89 45 e0	 mov	 DWORD PTR tv649[ebp], eax
  000d5	db 45 e0	 fild	 DWORD PTR tv649[ebp]
  000d8	85 c0		 test	 eax, eax
  000da	79 06		 jns	 SHORT $LN43@ProcessPre
  000dc	d8 05 00 00 00
	00		 fadd	 DWORD PTR __real@4f800000
$LN43@ProcessPre:
  000e2	d8 4d d8	 fmul	 DWORD PTR _fTimePerSec$[ebp]
  000e5	d9 5d e0	 fstp	 DWORD PTR _fCurTimeGap$[ebp]

; 712  : 	while( fCurTimeGap > 0.0f )

  000e8	d9 ee		 fldz
  000ea	d9 45 e0	 fld	 DWORD PTR _fCurTimeGap$[ebp]
  000ed	df f1		 fcomip	 ST(1)
  000ef	dd d8		 fstp	 ST(0)
  000f1	0f 86 c6 01 00
	00		 jbe	 $LN2@ProcessPre
  000f7	f3 0f 10 35 00
	00 00 00	 movss	 xmm6, DWORD PTR __real@4205999a
  000ff	f3 0f 10 65 e0	 movss	 xmm4, DWORD PTR _fCurTimeGap$[ebp]
$LL6@ProcessPre:

; 713  : 	{
; 714  : 		float fDivideTimePerSec = min( fCurTimeGap, MIN_FRAME_TIME ) * FLOAT0001;

  00104	0f 2f f4	 comiss	 xmm6, xmm4
  00107	76 07		 jbe	 SHORT $LN13@ProcessPre
  00109	f3 0f 11 65 d8	 movss	 DWORD PTR tv92[ebp], xmm4
  0010e	eb 05		 jmp	 SHORT $LN14@ProcessPre
$LN13@ProcessPre:
  00110	f3 0f 11 75 d8	 movss	 DWORD PTR tv92[ebp], xmm6
$LN14@ProcessPre:
  00115	b8 01 00 00 00	 mov	 eax, 1
  0011a	8b c8		 mov	 ecx, eax
  0011c	b8 e8 03 00 00	 mov	 eax, 1000		; 000003e8H
  00121	89 4d e0	 mov	 DWORD PTR tv634[ebp], ecx
  00124	db 45 e0	 fild	 DWORD PTR tv634[ebp]
  00127	85 c9		 test	 ecx, ecx
  00129	79 06		 jns	 SHORT $LN44@ProcessPre
  0012b	d8 05 00 00 00
	00		 fadd	 DWORD PTR __real@4f800000
$LN44@ProcessPre:
  00131	89 45 e0	 mov	 DWORD PTR tv630[ebp], eax
  00134	db 45 e0	 fild	 DWORD PTR tv630[ebp]
  00137	85 c0		 test	 eax, eax
  00139	79 06		 jns	 SHORT $LN45@ProcessPre
  0013b	d8 05 00 00 00
	00		 fadd	 DWORD PTR __real@4f800000
$LN45@ProcessPre:
  00141	de f9		 fdivp	 ST(1), ST(0)

; 715  : 		fCurTimeGap -= MIN_FRAME_TIME;
; 716  : 
; 717  : 		D3DXVECTOR3 vMoveAmt = m_vCharMoveDir * m_fCharMoveSpeed * fDivideTimePerSec;

  00143	f3 0f 10 8e f4
	0f 00 00	 movss	 xmm1, DWORD PTR [esi+4084]
  0014b	0f 5a c4	 cvtps2pd xmm0, xmm4
  0014e	f2 0f 5c 05 00
	00 00 00	 subsd	 xmm0, QWORD PTR __real@4040b33340000000
  00156	0f 5a c9	 cvtps2pd xmm1, xmm1
  00159	0f 57 e4	 xorps	 xmm4, xmm4
  0015c	66 0f 5a e0	 cvtpd2ps xmm4, xmm0
  00160	f3 0f 10 86 00
	10 00 00	 movss	 xmm0, DWORD PTR [esi+4096]
  00168	0f 5a d0	 cvtps2pd xmm2, xmm0
  0016b	f2 0f 59 ca	 mulsd	 xmm1, xmm2
  0016f	f3 0f 10 96 f8
	0f 00 00	 movss	 xmm2, DWORD PTR [esi+4088]
  00177	0f 5a d8	 cvtps2pd xmm3, xmm0
  0017a	0f 5a d2	 cvtps2pd xmm2, xmm2
  0017d	f2 0f 59 d3	 mulsd	 xmm2, xmm3
  00181	f3 0f 10 9e fc
	0f 00 00	 movss	 xmm3, DWORD PTR [esi+4092]

; 718  : 		if( vMoveAmt != ioMath::VEC3_ZERO )

  00189	8b 0d 00 00 00
	00		 mov	 ecx, DWORD PTR __imp_?VEC3_ZERO@ioMath@@2UD3DXVECTOR3@@A
  0018f	0f 5a db	 cvtps2pd xmm3, xmm3
  00192	f3 0f 10 39	 movss	 xmm7, DWORD PTR [ecx]
  00196	0f 5a c0	 cvtps2pd xmm0, xmm0
  00199	f2 0f 59 c3	 mulsd	 xmm0, xmm3
  0019d	66 0f 5a c9	 cvtpd2ps xmm1, xmm1
  001a1	66 0f 5a d2	 cvtpd2ps xmm2, xmm2
  001a5	66 0f 5a d8	 cvtpd2ps xmm3, xmm0
  001a9	0f 57 c0	 xorps	 xmm0, xmm0
  001ac	f3 0f 5a c1	 cvtss2sd xmm0, xmm1
  001b0	0f 5a ff	 cvtps2pd xmm7, xmm7
  001b3	d9 5d e0	 fstp	 DWORD PTR tv626[ebp]
  001b6	d9 45 e0	 fld	 DWORD PTR tv626[ebp]
  001b9	d8 4d d8	 fmul	 DWORD PTR tv92[ebp]
  001bc	d9 5d e0	 fstp	 DWORD PTR _fDivideTimePerSec$548527[ebp]
  001bf	f3 0f 10 4d e0	 movss	 xmm1, DWORD PTR _fDivideTimePerSec$548527[ebp]
  001c4	0f 5a c9	 cvtps2pd xmm1, xmm1
  001c7	f2 0f 59 c1	 mulsd	 xmm0, xmm1
  001cb	0f 57 c9	 xorps	 xmm1, xmm1
  001ce	f3 0f 5a ca	 cvtss2sd xmm1, xmm2
  001d2	f3 0f 10 55 e0	 movss	 xmm2, DWORD PTR _fDivideTimePerSec$548527[ebp]
  001d7	0f 5a d2	 cvtps2pd xmm2, xmm2
  001da	f2 0f 59 ca	 mulsd	 xmm1, xmm2
  001de	66 0f 5a c0	 cvtpd2ps xmm0, xmm0
  001e2	66 0f 5a c9	 cvtpd2ps xmm1, xmm1
  001e6	0f 5a d3	 cvtps2pd xmm2, xmm3
  001e9	f3 0f 10 5d e0	 movss	 xmm3, DWORD PTR _fDivideTimePerSec$548527[ebp]
  001ee	0f 5a db	 cvtps2pd xmm3, xmm3
  001f1	f2 0f 59 d3	 mulsd	 xmm2, xmm3
  001f5	0f 57 db	 xorps	 xmm3, xmm3
  001f8	f3 0f 5a d8	 cvtss2sd xmm3, xmm0
  001fc	66 0f 2e df	 ucomisd xmm3, xmm7
  00200	9f		 lahf
  00201	66 0f 5a d2	 cvtpd2ps xmm2, xmm2
  00205	84 e3		 test	 ah, bl
  00207	7a 30		 jp	 SHORT $LN37@ProcessPre
  00209	f3 0f 10 79 04	 movss	 xmm7, DWORD PTR [ecx+4]
  0020e	0f 57 db	 xorps	 xmm3, xmm3
  00211	f3 0f 5a d9	 cvtss2sd xmm3, xmm1
  00215	0f 5a ff	 cvtps2pd xmm7, xmm7
  00218	66 0f 2e df	 ucomisd xmm3, xmm7
  0021c	9f		 lahf
  0021d	84 e3		 test	 ah, bl
  0021f	7a 18		 jp	 SHORT $LN37@ProcessPre
  00221	f3 0f 10 79 08	 movss	 xmm7, DWORD PTR [ecx+8]
  00226	0f 57 db	 xorps	 xmm3, xmm3
  00229	f3 0f 5a da	 cvtss2sd xmm3, xmm2
  0022d	0f 5a ff	 cvtps2pd xmm7, xmm7
  00230	66 0f 2e df	 ucomisd xmm3, xmm7
  00234	9f		 lahf
  00235	84 e3		 test	 ah, bl
  00237	7b 53		 jnp	 SHORT $LN4@ProcessPre
$LN37@ProcessPre:

; 719  : 		{
; 720  : 			vTotalMove += vMoveAmt;

  00239	f3 0f 10 5d f0	 movss	 xmm3, DWORD PTR _vTotalMove$[ebp]
  0023e	f3 0f 5a c0	 cvtss2sd xmm0, xmm0
  00242	0f 5a db	 cvtps2pd xmm3, xmm3
  00245	f2 0f 58 c3	 addsd	 xmm0, xmm3
  00249	66 0f 5a c0	 cvtpd2ps xmm0, xmm0
  0024d	f3 0f 11 45 f0	 movss	 DWORD PTR _vTotalMove$[ebp], xmm0
  00252	0f 57 c0	 xorps	 xmm0, xmm0
  00255	f3 0f 5a c1	 cvtss2sd xmm0, xmm1
  00259	f3 0f 10 4d f4	 movss	 xmm1, DWORD PTR _vTotalMove$[ebp+4]
  0025e	0f 5a c9	 cvtps2pd xmm1, xmm1
  00261	f2 0f 58 c1	 addsd	 xmm0, xmm1
  00265	f3 0f 10 4d f8	 movss	 xmm1, DWORD PTR _vTotalMove$[ebp+8]
  0026a	66 0f 5a c0	 cvtpd2ps xmm0, xmm0
  0026e	f3 0f 11 45 f4	 movss	 DWORD PTR _vTotalMove$[ebp+4], xmm0
  00273	0f 57 c0	 xorps	 xmm0, xmm0
  00276	f3 0f 5a c2	 cvtss2sd xmm0, xmm2
  0027a	0f 5a c9	 cvtps2pd xmm1, xmm1
  0027d	f2 0f 58 c1	 addsd	 xmm0, xmm1
  00281	66 0f 5a c0	 cvtpd2ps xmm0, xmm0
  00285	f3 0f 11 45 f8	 movss	 DWORD PTR _vTotalMove$[ebp+8], xmm0

; 721  : 			bCurMove = true;

  0028a	b2 01		 mov	 dl, 1
$LN4@ProcessPre:

; 712  : 	while( fCurTimeGap > 0.0f )

  0028c	0f 2f e5	 comiss	 xmm4, xmm5
  0028f	0f 87 6f fe ff
	ff		 ja	 $LL6@ProcessPre

; 722  : 		}
; 723  : 	}
; 724  : 
; 725  : 	if( bCurMove )

  00295	84 d2		 test	 dl, dl
  00297	74 24		 je	 SHORT $LN2@ProcessPre

; 726  : 	{
; 727  : 		bool bCol = false;
; 728  : 		if( pStage->ReCalculateMoveVectorByTerrain( pChar, &vTotalMove, bCol ) )

  00299	8b 4d d4	 mov	 ecx, DWORD PTR _pStage$GSCopy$[ebp]
  0029c	8d 45 df	 lea	 eax, DWORD PTR _bCol$548536[ebp]
  0029f	50		 push	 eax
  002a0	8d 45 f0	 lea	 eax, DWORD PTR _vTotalMove$[ebp]
  002a3	50		 push	 eax
  002a4	57		 push	 edi
  002a5	c6 45 df 00	 mov	 BYTE PTR _bCol$548536[ebp], 0
  002a9	e8 00 00 00 00	 call	 ?ReCalculateMoveVectorByTerrain@ioPlayStage@@QAE_NPAVioBaseChar@@PAUD3DXVECTOR3@@AA_N@Z ; ioPlayStage::ReCalculateMoveVectorByTerrain
  002ae	84 c0		 test	 al, al
  002b0	74 0b		 je	 SHORT $LN2@ProcessPre

; 729  : 		{
; 730  : 			pChar->Translate( vTotalMove );

  002b2	8b 07		 mov	 eax, DWORD PTR [edi]
  002b4	8d 4d f0	 lea	 ecx, DWORD PTR _vTotalMove$[ebp]
  002b7	51		 push	 ecx
  002b8	8b cf		 mov	 ecx, edi
  002ba	ff 50 50	 call	 DWORD PTR [eax+80]
$LN2@ProcessPre:

; 731  : 		}
; 732  : 	}
; 733  : 
; 734  : 	D3DXVECTOR3 vPos = pChar->GetWorldPosition();

  002bd	8b 07		 mov	 eax, DWORD PTR [edi]
  002bf	8b cf		 mov	 ecx, edi
  002c1	ff 50 70	 call	 DWORD PTR [eax+112]
  002c4	8b f0		 mov	 esi, eax
  002c6	8d 7d e4	 lea	 edi, DWORD PTR _vPos$[ebp]
  002c9	a5		 movsd
  002ca	a5		 movsd
  002cb	a5		 movsd

; 735  : 	if( pChar->CheckAxisLimit( &vPos ) )

  002cc	8b 75 d0	 mov	 esi, DWORD PTR _pChar$GSCopy$[ebp]
  002cf	8d 45 e4	 lea	 eax, DWORD PTR _vPos$[ebp]
  002d2	50		 push	 eax
  002d3	8b ce		 mov	 ecx, esi
  002d5	e8 00 00 00 00	 call	 ?CheckAxisLimit@ioBaseChar@@QAE_NPAUD3DXVECTOR3@@@Z ; ioBaseChar::CheckAxisLimit
  002da	84 c0		 test	 al, al
  002dc	74 0b		 je	 SHORT $LN42@ProcessPre

; 736  : 		pChar->SetWorldPosition( vPos );

  002de	8b 06		 mov	 eax, DWORD PTR [esi]
  002e0	8d 4d e4	 lea	 ecx, DWORD PTR _vPos$[ebp]
  002e3	51		 push	 ecx
  002e4	8b ce		 mov	 ecx, esi
  002e6	ff 50 44	 call	 DWORD PTR [eax+68]
$LN42@ProcessPre:
  002e9	5b		 pop	 ebx
$LN1@ProcessPre:

; 737  : }

  002ea	8b 4d fc	 mov	 ecx, DWORD PTR __$ArrayPad$[ebp]
  002ed	5f		 pop	 edi
  002ee	33 cd		 xor	 ecx, ebp
  002f0	5e		 pop	 esi
  002f1	e8 00 00 00 00	 call	 @__security_check_cookie@4
  002f6	c9		 leave
  002f7	c2 08 00	 ret	 8
?ProcessPreAction@ioChargingFireSkill@@IAEXPAVioBaseChar@@PAVioPlayStage@@@Z ENDP ; ioChargingFireSkill::ProcessPreAction
_TEXT	ENDS
PUBLIC	__$ArrayPad$
PUBLIC	?ApplyAttributeToWeapon@ioChargingFireSkill@@UAEXPAVioWeapon@@PAVioPlayStage@@@Z ; ioChargingFireSkill::ApplyAttributeToWeapon
EXTRN	_D3DXVec3Normalize@8:PROC
EXTRN	?GetMidPositionByRate@ioGameEntity@@QBE?AUD3DXVECTOR3@@M@Z:PROC ; ioGameEntity::GetMidPositionByRate
EXTRN	?SetZoneValue@ioZoneEffectWeapon@@QAEX_N0@Z:PROC ; ioZoneEffectWeapon::SetZoneValue
EXTRN	?SetCollisionDir@ioZoneEffectWeapon@@QAEXAAUD3DXVECTOR3@@@Z:PROC ; ioZoneEffectWeapon::SetCollisionDir
EXTRN	__imp_??D@YA?AUD3DXVECTOR3@@ABUD3DXQUATERNION@@ABU0@@Z:PROC
EXTRN	?GetOwner@ioWeapon@@QBEPAVioBaseChar@@XZ:PROC	; ioWeapon::GetOwner
EXTRN	?ApplyAttributeToWeapon@ioSkill@@UAEXPAVioWeapon@@PAVioPlayStage@@@Z:PROC ; ioSkill::ApplyAttributeToWeapon
; Function compile flags: /Ogsp
;	COMDAT ?ApplyAttributeToWeapon@ioChargingFireSkill@@UAEXPAVioWeapon@@PAVioPlayStage@@@Z
_TEXT	SEGMENT
tv304 = -36						; size = 4
tv295 = -36						; size = 4
tv291 = -36						; size = 4
tv287 = -32						; size = 4
_pZone$ = -32						; size = 4
$T548556 = -28						; size = 12
_vDir$548549 = -28					; size = 12
_vDiff$548555 = -16					; size = 12
$T548551 = -16						; size = 12
__$ArrayPad$ = -4					; size = 4
_pWeapon$ = 8						; size = 4
_pStage$ = 12						; size = 4
?ApplyAttributeToWeapon@ioChargingFireSkill@@UAEXPAVioWeapon@@PAVioPlayStage@@@Z PROC ; ioChargingFireSkill::ApplyAttributeToWeapon, COMDAT
; _this$ = ecx

; 740  : {

  00000	55		 push	 ebp
  00001	8b ec		 mov	 ebp, esp
  00003	83 ec 24	 sub	 esp, 36			; 00000024H
  00006	a1 00 00 00 00	 mov	 eax, DWORD PTR ___security_cookie
  0000b	33 c5		 xor	 eax, ebp
  0000d	89 45 fc	 mov	 DWORD PTR __$ArrayPad$[ebp], eax
  00010	8b 45 0c	 mov	 eax, DWORD PTR _pStage$[ebp]
  00013	53		 push	 ebx
  00014	56		 push	 esi
  00015	57		 push	 edi
  00016	8b 7d 08	 mov	 edi, DWORD PTR _pWeapon$[ebp]

; 741  : 	ioSkill::ApplyAttributeToWeapon( pWeapon, pStage );

  00019	50		 push	 eax
  0001a	57		 push	 edi
  0001b	8b f1		 mov	 esi, ecx
  0001d	e8 00 00 00 00	 call	 ?ApplyAttributeToWeapon@ioSkill@@UAEXPAVioWeapon@@PAVioPlayStage@@@Z ; ioSkill::ApplyAttributeToWeapon

; 742  : 
; 743  : 	ioBaseChar *pChar = pWeapon->GetOwner();

  00022	8b cf		 mov	 ecx, edi
  00024	e8 00 00 00 00	 call	 ?GetOwner@ioWeapon@@QBEPAVioBaseChar@@XZ ; ioWeapon::GetOwner

; 744  : 
; 745  : 	ioZoneEffectWeapon *pZone = ToZoneEffectWeapon( pWeapon );

  00029	57		 push	 edi
  0002a	8b d8		 mov	 ebx, eax
  0002c	e8 00 00 00 00	 call	 ?ToZoneEffectWeapon@@YAPAVioZoneEffectWeapon@@PAVioWeapon@@@Z ; ToZoneEffectWeapon
  00031	59		 pop	 ecx
  00032	89 45 e0	 mov	 DWORD PTR _pZone$[ebp], eax

; 746  : 	if( pZone )

  00035	85 c0		 test	 eax, eax
  00037	74 5b		 je	 SHORT $LN2@ApplyAttri

; 747  : 	{
; 748  : 		if( pChar )

  00039	85 db		 test	 ebx, ebx
  0003b	74 57		 je	 SHORT $LN2@ApplyAttri

; 749  : 		{
; 750  : 			D3DXVECTOR3 vDir = pChar->GetTargetRot() * D3DXVECTOR3( 0.0f, 0.0f, -FLOAT1 );

  0003d	b8 01 00 00 00	 mov	 eax, 1
  00042	0f 57 c0	 xorps	 xmm0, xmm0
  00045	89 45 dc	 mov	 DWORD PTR tv304[ebp], eax
  00048	db 45 dc	 fild	 DWORD PTR tv304[ebp]
  0004b	f3 0f 11 45 f0	 movss	 DWORD PTR $T548551[ebp], xmm0
  00050	f3 0f 11 45 f4	 movss	 DWORD PTR $T548551[ebp+4], xmm0
  00055	85 c0		 test	 eax, eax
  00057	79 06		 jns	 SHORT $LN20@ApplyAttri
  00059	d8 05 00 00 00
	00		 fadd	 DWORD PTR __real@4f800000
$LN20@ApplyAttri:
  0005f	8d 45 f0	 lea	 eax, DWORD PTR $T548551[ebp]
  00062	d9 e0		 fchs
  00064	50		 push	 eax
  00065	d9 5d f8	 fstp	 DWORD PTR $T548551[ebp+8]
  00068	8d 83 a4 06 00
	00		 lea	 eax, DWORD PTR [ebx+1700]
  0006e	50		 push	 eax
  0006f	8d 45 e4	 lea	 eax, DWORD PTR _vDir$548549[ebp]
  00072	50		 push	 eax
  00073	ff 15 00 00 00
	00		 call	 DWORD PTR __imp_??D@YA?AUD3DXVECTOR3@@ABUD3DXQUATERNION@@ABU0@@Z

; 751  : 			pZone->SetCollisionDir( vDir );

  00079	8b 4d e0	 mov	 ecx, DWORD PTR _pZone$[ebp]
  0007c	83 c4 0c	 add	 esp, 12			; 0000000cH
  0007f	8d 45 e4	 lea	 eax, DWORD PTR _vDir$548549[ebp]
  00082	50		 push	 eax
  00083	e8 00 00 00 00	 call	 ?SetCollisionDir@ioZoneEffectWeapon@@QAEXAAUD3DXVECTOR3@@@Z ; ioZoneEffectWeapon::SetCollisionDir

; 752  : 			pZone->SetZoneValue( false, true );

  00088	8b 4d e0	 mov	 ecx, DWORD PTR _pZone$[ebp]
  0008b	6a 01		 push	 1
  0008d	6a 00		 push	 0
  0008f	e8 00 00 00 00	 call	 ?SetZoneValue@ioZoneEffectWeapon@@QAEX_N0@Z ; ioZoneEffectWeapon::SetZoneValue
$LN2@ApplyAttri:

; 753  : 		}
; 754  : 	}
; 755  : 
; 756  : 	ioBombMissileWeapon *pBombM = ToBombMissileWeapon( pWeapon );

  00094	57		 push	 edi
  00095	e8 00 00 00 00	 call	 ?ToBombMissileWeapon@@YAPAVioBombMissileWeapon@@PAVioWeapon@@@Z ; ToBombMissileWeapon
  0009a	8b f8		 mov	 edi, eax
  0009c	59		 pop	 ecx

; 757  : 	if( pBombM && pChar )

  0009d	85 ff		 test	 edi, edi
  0009f	0f 84 c2 00 00
	00		 je	 $LN1@ApplyAttri
  000a5	85 db		 test	 ebx, ebx
  000a7	0f 84 ba 00 00
	00		 je	 $LN1@ApplyAttri

; 758  : 	{
; 759  : 		D3DXVECTOR3 vDiff = m_vCirclePos - pChar->GetMidPositionByRate();

  000ad	b8 05 00 00 00	 mov	 eax, 5
  000b2	8b c8		 mov	 ecx, eax
  000b4	b8 0a 00 00 00	 mov	 eax, 10			; 0000000aH
  000b9	89 4d dc	 mov	 DWORD PTR tv295[ebp], ecx
  000bc	db 45 dc	 fild	 DWORD PTR tv295[ebp]
  000bf	85 c9		 test	 ecx, ecx
  000c1	79 06		 jns	 SHORT $LN21@ApplyAttri
  000c3	d8 05 00 00 00
	00		 fadd	 DWORD PTR __real@4f800000
$LN21@ApplyAttri:
  000c9	89 45 dc	 mov	 DWORD PTR tv291[ebp], eax
  000cc	db 45 dc	 fild	 DWORD PTR tv291[ebp]
  000cf	85 c0		 test	 eax, eax
  000d1	79 06		 jns	 SHORT $LN22@ApplyAttri
  000d3	d8 05 00 00 00
	00		 fadd	 DWORD PTR __real@4f800000
$LN22@ApplyAttri:
  000d9	de f9		 fdivp	 ST(1), ST(0)
  000db	51		 push	 ecx
  000dc	8d 45 e4	 lea	 eax, DWORD PTR $T548556[ebp]
  000df	8b cb		 mov	 ecx, ebx
  000e1	d9 5d e0	 fstp	 DWORD PTR tv287[ebp]
  000e4	d9 45 e0	 fld	 DWORD PTR tv287[ebp]
  000e7	d9 1c 24	 fstp	 DWORD PTR [esp]
  000ea	50		 push	 eax
  000eb	e8 00 00 00 00	 call	 ?GetMidPositionByRate@ioGameEntity@@QBE?AUD3DXVECTOR3@@M@Z ; ioGameEntity::GetMidPositionByRate
  000f0	f3 0f 10 48 04	 movss	 xmm1, DWORD PTR [eax+4]
  000f5	f3 0f 10 50 08	 movss	 xmm2, DWORD PTR [eax+8]
  000fa	f3 0f 10 86 40
	10 00 00	 movss	 xmm0, DWORD PTR [esi+4160]
  00102	f3 0f 10 18	 movss	 xmm3, DWORD PTR [eax]
  00106	0f 5a c9	 cvtps2pd xmm1, xmm1
  00109	0f 5a c0	 cvtps2pd xmm0, xmm0
  0010c	f2 0f 5c c1	 subsd	 xmm0, xmm1
  00110	f3 0f 10 8e 44
	10 00 00	 movss	 xmm1, DWORD PTR [esi+4164]
  00118	0f 5a d2	 cvtps2pd xmm2, xmm2
  0011b	0f 5a c9	 cvtps2pd xmm1, xmm1
  0011e	f2 0f 5c ca	 subsd	 xmm1, xmm2
  00122	f3 0f 10 96 3c
	10 00 00	 movss	 xmm2, DWORD PTR [esi+4156]

; 760  : 		D3DXVec3Normalize( &vDiff, &vDiff );

  0012a	8d 45 f0	 lea	 eax, DWORD PTR _vDiff$548555[ebp]
  0012d	0f 5a d2	 cvtps2pd xmm2, xmm2
  00130	0f 5a db	 cvtps2pd xmm3, xmm3
  00133	50		 push	 eax
  00134	f2 0f 5c d3	 subsd	 xmm2, xmm3
  00138	66 0f 5a c0	 cvtpd2ps xmm0, xmm0
  0013c	66 0f 5a c9	 cvtpd2ps xmm1, xmm1
  00140	66 0f 5a d2	 cvtpd2ps xmm2, xmm2
  00144	50		 push	 eax
  00145	f3 0f 11 55 f0	 movss	 DWORD PTR _vDiff$548555[ebp], xmm2
  0014a	f3 0f 11 45 f4	 movss	 DWORD PTR _vDiff$548555[ebp+4], xmm0
  0014f	f3 0f 11 4d f8	 movss	 DWORD PTR _vDiff$548555[ebp+8], xmm1
  00154	e8 00 00 00 00	 call	 _D3DXVec3Normalize@8

; 761  : 
; 762  : 		pBombM->SetMoveDir( vDiff );

  00159	8b 07		 mov	 eax, DWORD PTR [edi]
  0015b	8d 4d f0	 lea	 ecx, DWORD PTR _vDiff$548555[ebp]
  0015e	51		 push	 ecx
  0015f	8b cf		 mov	 ecx, edi
  00161	ff 90 b0 00 00
	00		 call	 DWORD PTR [eax+176]
$LN1@ApplyAttri:

; 763  : 	}
; 764  : }

  00167	8b 4d fc	 mov	 ecx, DWORD PTR __$ArrayPad$[ebp]
  0016a	5f		 pop	 edi
  0016b	5e		 pop	 esi
  0016c	33 cd		 xor	 ecx, ebp
  0016e	5b		 pop	 ebx
  0016f	e8 00 00 00 00	 call	 @__security_check_cookie@4
  00174	c9		 leave
  00175	c2 08 00	 ret	 8
?ApplyAttributeToWeapon@ioChargingFireSkill@@UAEXPAVioWeapon@@PAVioPlayStage@@@Z ENDP ; ioChargingFireSkill::ApplyAttributeToWeapon
_TEXT	ENDS
PUBLIC	__real@4066800000000000
PUBLIC	__real@4046800000000000
PUBLIC	__$ArrayPad$
PUBLIC	?CheckCharMoveDir@ioChargingFireSkill@@IAEXPAVioBaseChar@@@Z ; ioChargingFireSkill::CheckCharMoveDir
EXTRN	?SetTargetRotToRotate@ioBaseChar@@QAEXABUD3DXQUATERNION@@_N1@Z:PROC ; ioBaseChar::SetTargetRotToRotate
EXTRN	_D3DXQuaternionRotationYawPitchRoll@16:PROC
EXTRN	__imp_?ArrangeHead@ioMath@@SAMM@Z:PROC
EXTRN	?CheckCurDirKey@ioBaseChar@@QAE?AW4DirKeyInput@ioUserKeyInput@@XZ:PROC ; ioBaseChar::CheckCurDirKey
EXTRN	?IsSettedDirection@ioBaseChar@@QBE_NXZ:PROC	; ioBaseChar::IsSettedDirection
;	COMDAT __real@4066800000000000
; File c:\program files (x86)\microsoft directx sdk (june 2010)\include\d3dx9math.inl
CONST	SEGMENT
__real@4066800000000000 DQ 04066800000000000r	; 180
CONST	ENDS
;	COMDAT __real@4046800000000000
CONST	SEGMENT
__real@4046800000000000 DQ 04046800000000000r	; 45
; Function compile flags: /Ogsp
; File d:\lost saga for developer\youtube\tutorial\source\src\lsclient\iochargingfireskill.cpp
CONST	ENDS
;	COMDAT ?CheckCharMoveDir@ioChargingFireSkill@@IAEXPAVioBaseChar@@@Z
_TEXT	SEGMENT
_qtRotate$548571 = -52					; size = 16
tv195 = -36						; size = 4
tv192 = -32						; size = 4
_fYawR$548566 = -32					; size = 4
$T548574 = -28						; size = 12
$T548573 = -16						; size = 12
__$ArrayPad$ = -4					; size = 4
_pChar$ = 8						; size = 4
?CheckCharMoveDir@ioChargingFireSkill@@IAEXPAVioBaseChar@@@Z PROC ; ioChargingFireSkill::CheckCharMoveDir, COMDAT
; _this$ = ecx

; 767  : {

  00000	55		 push	 ebp
  00001	8b ec		 mov	 ebp, esp
  00003	83 ec 34	 sub	 esp, 52			; 00000034H
  00006	a1 00 00 00 00	 mov	 eax, DWORD PTR ___security_cookie
  0000b	33 c5		 xor	 eax, ebp
  0000d	89 45 fc	 mov	 DWORD PTR __$ArrayPad$[ebp], eax
  00010	53		 push	 ebx
  00011	8b 5d 08	 mov	 ebx, DWORD PTR _pChar$[ebp]
  00014	8b c1		 mov	 eax, ecx

; 768  : 	if( !pChar ) return;

  00016	85 db		 test	 ebx, ebx
  00018	0f 84 d6 00 00
	00		 je	 $LN1@CheckCharM

; 769  : 
; 770  : 	m_vCharMoveDir = ioMath::VEC3_ZERO;

  0001e	56		 push	 esi
  0001f	8b 35 00 00 00
	00		 mov	 esi, DWORD PTR __imp_?VEC3_ZERO@ioMath@@2UD3DXVECTOR3@@A
  00025	57		 push	 edi
  00026	8d b8 f4 0f 00
	00		 lea	 edi, DWORD PTR [eax+4084]
  0002c	89 7d dc	 mov	 DWORD PTR tv195[ebp], edi
  0002f	a5		 movsd
  00030	a5		 movsd

; 771  : 
; 772  : 	if( pChar->IsSettedDirection() )

  00031	8b cb		 mov	 ecx, ebx
  00033	a5		 movsd
  00034	e8 00 00 00 00	 call	 ?IsSettedDirection@ioBaseChar@@QBE_NXZ ; ioBaseChar::IsSettedDirection
  00039	84 c0		 test	 al, al
  0003b	0f 84 b1 00 00
	00		 je	 $LN13@CheckCharM

; 773  : 	{
; 774  : 		ioUserKeyInput::DirKeyInput eCurKey = pChar->CheckCurDirKey();

  00041	8b cb		 mov	 ecx, ebx
  00043	e8 00 00 00 00	 call	 ?CheckCurDirKey@ioBaseChar@@QAE?AW4DirKeyInput@ioUserKeyInput@@XZ ; ioBaseChar::CheckCurDirKey

; 775  : 
; 776  : 		float fYawD = 180.0f + 45.0f * ( eCurKey - ioUserKeyInput::DKI_UP );

  00048	0f 57 c0	 xorps	 xmm0, xmm0
  0004b	48		 dec	 eax
  0004c	f3 0f 2a c0	 cvtsi2ss xmm0, eax
  00050	0f 5a c0	 cvtps2pd xmm0, xmm0
  00053	f2 0f 59 05 00
	00 00 00	 mulsd	 xmm0, QWORD PTR __real@4046800000000000
  0005b	f2 0f 58 05 00
	00 00 00	 addsd	 xmm0, QWORD PTR __real@4066800000000000

; 777  : 		fYawD = ioMath::ArrangeHead( fYawD );

  00063	51		 push	 ecx
  00064	66 0f 5a c0	 cvtpd2ps xmm0, xmm0
  00068	f3 0f 11 04 24	 movss	 DWORD PTR [esp], xmm0
  0006d	ff 15 00 00 00
	00		 call	 DWORD PTR __imp_?ArrangeHead@ioMath@@SAMM@Z

; 778  : 
; 779  : 		float fYawR = DEGtoRAD( fYawD );

  00073	dc 0d 00 00 00
	00		 fmul	 QWORD PTR __real@3f91df46a2526c7a

; 780  : 		D3DXQUATERNION qtRotate;
; 781  : 		D3DXQuaternionRotationYawPitchRoll( &qtRotate, fYawR, 0.0f, 0.0f );

  00079	0f 57 c0	 xorps	 xmm0, xmm0
  0007c	f3 0f 11 04 24	 movss	 DWORD PTR [esp], xmm0
  00081	51		 push	 ecx
  00082	d9 5d e0	 fstp	 DWORD PTR _fYawR$548566[ebp]
  00085	51		 push	 ecx
  00086	f3 0f 11 44 24
	04		 movss	 DWORD PTR [esp+4], xmm0
  0008c	f3 0f 10 45 e0	 movss	 xmm0, DWORD PTR _fYawR$548566[ebp]
  00091	8d 45 cc	 lea	 eax, DWORD PTR _qtRotate$548571[ebp]
  00094	f3 0f 11 04 24	 movss	 DWORD PTR [esp], xmm0
  00099	50		 push	 eax
  0009a	e8 00 00 00 00	 call	 _D3DXQuaternionRotationYawPitchRoll@16

; 782  : 
; 783  : 		pChar->SetTargetRotToRotate( qtRotate, true, false );

  0009f	6a 00		 push	 0
  000a1	6a 01		 push	 1
  000a3	8d 45 cc	 lea	 eax, DWORD PTR _qtRotate$548571[ebp]
  000a6	50		 push	 eax
  000a7	8b cb		 mov	 ecx, ebx
  000a9	e8 00 00 00 00	 call	 ?SetTargetRotToRotate@ioBaseChar@@QAEXABUD3DXQUATERNION@@_N1@Z ; ioBaseChar::SetTargetRotToRotate

; 784  : 
; 785  : 		m_vCharMoveDir = qtRotate * D3DXVECTOR3( 0.0f, 0.0f, -FLOAT1 );

  000ae	b8 01 00 00 00	 mov	 eax, 1
  000b3	0f 57 c0	 xorps	 xmm0, xmm0
  000b6	89 45 e0	 mov	 DWORD PTR tv192[ebp], eax
  000b9	db 45 e0	 fild	 DWORD PTR tv192[ebp]
  000bc	f3 0f 11 45 f0	 movss	 DWORD PTR $T548573[ebp], xmm0
  000c1	f3 0f 11 45 f4	 movss	 DWORD PTR $T548573[ebp+4], xmm0
  000c6	85 c0		 test	 eax, eax
  000c8	79 06		 jns	 SHORT $LN15@CheckCharM
  000ca	d8 05 00 00 00
	00		 fadd	 DWORD PTR __real@4f800000
$LN15@CheckCharM:
  000d0	8d 45 f0	 lea	 eax, DWORD PTR $T548573[ebp]
  000d3	d9 e0		 fchs
  000d5	50		 push	 eax
  000d6	d9 5d f8	 fstp	 DWORD PTR $T548573[ebp+8]
  000d9	8d 45 cc	 lea	 eax, DWORD PTR _qtRotate$548571[ebp]
  000dc	50		 push	 eax
  000dd	8d 45 e4	 lea	 eax, DWORD PTR $T548574[ebp]
  000e0	50		 push	 eax
  000e1	ff 15 00 00 00
	00		 call	 DWORD PTR __imp_??D@YA?AUD3DXVECTOR3@@ABUD3DXQUATERNION@@ABU0@@Z
  000e7	8b 7d dc	 mov	 edi, DWORD PTR tv195[ebp]
  000ea	8b f0		 mov	 esi, eax
  000ec	a5		 movsd
  000ed	a5		 movsd
  000ee	83 c4 0c	 add	 esp, 12			; 0000000cH
  000f1	a5		 movsd
$LN13@CheckCharM:
  000f2	5f		 pop	 edi
  000f3	5e		 pop	 esi
$LN1@CheckCharM:

; 786  : 	}
; 787  : }

  000f4	8b 4d fc	 mov	 ecx, DWORD PTR __$ArrayPad$[ebp]
  000f7	33 cd		 xor	 ecx, ebp
  000f9	5b		 pop	 ebx
  000fa	e8 00 00 00 00	 call	 @__security_check_cookie@4
  000ff	c9		 leave
  00100	c2 04 00	 ret	 4
?CheckCharMoveDir@ioChargingFireSkill@@IAEXPAVioBaseChar@@@Z ENDP ; ioChargingFireSkill::CheckCharMoveDir
_TEXT	ENDS
PUBLIC	??G?$CEncrypt@M@@QAEMABM@Z			; CEncrypt<float>::operator-
; Function compile flags: /Ogsp
; File d:\lost saga for developer\youtube\tutorial\source\src\lsclient\encryptvalue.h
;	COMDAT ??G?$CEncrypt@M@@QAEMABM@Z
_TEXT	SEGMENT
_value$ = -4						; size = 4
tv130 = 8						; size = 4
_inValue$ = 8						; size = 4
??G?$CEncrypt@M@@QAEMABM@Z PROC				; CEncrypt<float>::operator-, COMDAT
; _this$ = ecx

; 1665 : 	{	

  00000	55		 push	 ebp
  00001	8b ec		 mov	 ebp, esp
  00003	51		 push	 ecx

; 1666 : 		type value;
; 1667 : 		DecryptValueToPool(&value);

  00004	8d 45 fc	 lea	 eax, DWORD PTR _value$[ebp]
  00007	50		 push	 eax
  00008	e8 00 00 00 00	 call	 ?DecryptValueToPool@?$CEncrypt@M@@QAEXPAM@Z ; CEncrypt<float>::DecryptValueToPool

; 1668 : #ifdef _NOTUSE
; 1669 : 		Debug();
; 1670 : #endif
; 1671 : 		return value - inValue;

  0000d	d9 45 fc	 fld	 DWORD PTR _value$[ebp]
  00010	8b 45 08	 mov	 eax, DWORD PTR _inValue$[ebp]
  00013	d8 20		 fsub	 DWORD PTR [eax]
  00015	d9 5d 08	 fstp	 DWORD PTR tv130[ebp]
  00018	d9 45 08	 fld	 DWORD PTR tv130[ebp]

; 1672 : 	}

  0001b	c9		 leave
  0001c	c2 04 00	 ret	 4
??G?$CEncrypt@M@@QAEMABM@Z ENDP				; CEncrypt<float>::operator-
_TEXT	ENDS
PUBLIC	??H?$CEncrypt@K@@QAEKABM@Z			; CEncrypt<unsigned long>::operator+
EXTRN	__ftol2:PROC
; Function compile flags: /Ogsp
;	COMDAT ??H?$CEncrypt@K@@QAEKABM@Z
_TEXT	SEGMENT
tv129 = -4						; size = 4
_value$ = -4						; size = 4
_inValue$ = 8						; size = 4
??H?$CEncrypt@K@@QAEKABM@Z PROC				; CEncrypt<unsigned long>::operator+, COMDAT
; _this$ = ecx

; 1675 : 	{	

  00000	55		 push	 ebp
  00001	8b ec		 mov	 ebp, esp
  00003	51		 push	 ecx

; 1676 : 		type value;
; 1677 : 		DecryptValueToPool(&value);

  00004	8d 45 fc	 lea	 eax, DWORD PTR _value$[ebp]
  00007	50		 push	 eax
  00008	e8 00 00 00 00	 call	 ?DecryptValueToPool@?$CEncrypt@K@@QAEXPAK@Z ; CEncrypt<unsigned long>::DecryptValueToPool

; 1678 : #ifdef _NOTUSE
; 1679 : 		Debug();
; 1680 : #endif
; 1681 : 		return value + inValue;

  0000d	db 45 fc	 fild	 DWORD PTR _value$[ebp]
  00010	8b 45 fc	 mov	 eax, DWORD PTR _value$[ebp]
  00013	85 c0		 test	 eax, eax
  00015	79 06		 jns	 SHORT $LN3@operator@3
  00017	d8 05 00 00 00
	00		 fadd	 DWORD PTR __real@4f800000
$LN3@operator@3:
  0001d	8b 45 08	 mov	 eax, DWORD PTR _inValue$[ebp]
  00020	d8 00		 fadd	 DWORD PTR [eax]
  00022	e8 00 00 00 00	 call	 __ftol2

; 1682 : 	}

  00027	c9		 leave
  00028	c2 04 00	 ret	 4
??H?$CEncrypt@K@@QAEKABM@Z ENDP				; CEncrypt<unsigned long>::operator+
_TEXT	ENDS
PUBLIC	??8?$CEncrypt@H@@QAE_NABH@Z			; CEncrypt<int>::operator==
; Function compile flags: /Ogsp
;	COMDAT ??8?$CEncrypt@H@@QAE_NABH@Z
_TEXT	SEGMENT
_value$ = -4						; size = 4
_inValue$ = 8						; size = 4
??8?$CEncrypt@H@@QAE_NABH@Z PROC			; CEncrypt<int>::operator==, COMDAT
; _this$ = ecx

; 976  : 	{

  00000	55		 push	 ebp
  00001	8b ec		 mov	 ebp, esp
  00003	51		 push	 ecx

; 977  : 		
; 978  : 		type value;
; 979  : 		DecryptValueToPool(&value);

  00004	8d 45 fc	 lea	 eax, DWORD PTR _value$[ebp]
  00007	50		 push	 eax
  00008	e8 00 00 00 00	 call	 ?DecryptValueToPool@?$CEncrypt@H@@QAEXPAH@Z ; CEncrypt<int>::DecryptValueToPool

; 980  : #ifdef _NOTUSE
; 981  : 		Debug();
; 982  : #endif
; 983  : 		return (value == inValue);

  0000d	8b 4d 08	 mov	 ecx, DWORD PTR _inValue$[ebp]
  00010	8b 55 fc	 mov	 edx, DWORD PTR _value$[ebp]
  00013	33 c0		 xor	 eax, eax
  00015	3b 11		 cmp	 edx, DWORD PTR [ecx]
  00017	0f 94 c0	 sete	 al

; 984  : 	} 

  0001a	c9		 leave
  0001b	c2 04 00	 ret	 4
??8?$CEncrypt@H@@QAE_NABH@Z ENDP			; CEncrypt<int>::operator==
_TEXT	ENDS
PUBLIC	?begin@?$vector@UWeaponInfo@@V?$allocator@UWeaponInfo@@@std@@@std@@QBE?AV?$_Vector_const_iterator@V?$_Vector_val@UWeaponInfo@@V?$allocator@UWeaponInfo@@@std@@@std@@@2@XZ ; std::vector<WeaponInfo,std::allocator<WeaponInfo> >::begin
; Function compile flags: /Ogsp
; File c:\program files (x86)\microsoft visual studio 10.0\vc\include\vector
;	COMDAT ?begin@?$vector@UWeaponInfo@@V?$allocator@UWeaponInfo@@@std@@@std@@QBE?AV?$_Vector_const_iterator@V?$_Vector_val@UWeaponInfo@@V?$allocator@UWeaponInfo@@@std@@@std@@@2@XZ
_TEXT	SEGMENT
___$ReturnUdt$ = 8					; size = 4
?begin@?$vector@UWeaponInfo@@V?$allocator@UWeaponInfo@@@std@@@std@@QBE?AV?$_Vector_const_iterator@V?$_Vector_val@UWeaponInfo@@V?$allocator@UWeaponInfo@@@std@@@std@@@2@XZ PROC ; std::vector<WeaponInfo,std::allocator<WeaponInfo> >::begin, COMDAT
; _this$ = ecx

; 786  : 		{	// return iterator for beginning of nonmutable sequence

  00000	55		 push	 ebp
  00001	8b ec		 mov	 ebp, esp

; 787  : 		return (const_iterator(this->_Myfirst, this));

  00003	8b 09		 mov	 ecx, DWORD PTR [ecx]
  00005	8b 45 08	 mov	 eax, DWORD PTR ___$ReturnUdt$[ebp]
  00008	89 08		 mov	 DWORD PTR [eax], ecx

; 788  : 		}

  0000a	5d		 pop	 ebp
  0000b	c2 04 00	 ret	 4
?begin@?$vector@UWeaponInfo@@V?$allocator@UWeaponInfo@@@std@@@std@@QBE?AV?$_Vector_const_iterator@V?$_Vector_val@UWeaponInfo@@V?$allocator@UWeaponInfo@@@std@@@std@@@2@XZ ENDP ; std::vector<WeaponInfo,std::allocator<WeaponInfo> >::begin
_TEXT	ENDS
PUBLIC	?end@?$vector@UWeaponInfo@@V?$allocator@UWeaponInfo@@@std@@@std@@QBE?AV?$_Vector_const_iterator@V?$_Vector_val@UWeaponInfo@@V?$allocator@UWeaponInfo@@@std@@@std@@@2@XZ ; std::vector<WeaponInfo,std::allocator<WeaponInfo> >::end
; Function compile flags: /Ogsp
;	COMDAT ?end@?$vector@UWeaponInfo@@V?$allocator@UWeaponInfo@@@std@@@std@@QBE?AV?$_Vector_const_iterator@V?$_Vector_val@UWeaponInfo@@V?$allocator@UWeaponInfo@@@std@@@std@@@2@XZ
_TEXT	SEGMENT
___$ReturnUdt$ = 8					; size = 4
?end@?$vector@UWeaponInfo@@V?$allocator@UWeaponInfo@@@std@@@std@@QBE?AV?$_Vector_const_iterator@V?$_Vector_val@UWeaponInfo@@V?$allocator@UWeaponInfo@@@std@@@std@@@2@XZ PROC ; std::vector<WeaponInfo,std::allocator<WeaponInfo> >::end, COMDAT
; _this$ = ecx

; 796  : 		{	// return iterator for end of nonmutable sequence

  00000	55		 push	 ebp
  00001	8b ec		 mov	 ebp, esp

; 797  : 		return (const_iterator(this->_Mylast, this));

  00003	8b 49 04	 mov	 ecx, DWORD PTR [ecx+4]
  00006	8b 45 08	 mov	 eax, DWORD PTR ___$ReturnUdt$[ebp]
  00009	89 08		 mov	 DWORD PTR [eax], ecx

; 798  : 		}

  0000b	5d		 pop	 ebp
  0000c	c2 04 00	 ret	 4
?end@?$vector@UWeaponInfo@@V?$allocator@UWeaponInfo@@@std@@@std@@QBE?AV?$_Vector_const_iterator@V?$_Vector_val@UWeaponInfo@@V?$allocator@UWeaponInfo@@@std@@@std@@@2@XZ ENDP ; std::vector<WeaponInfo,std::allocator<WeaponInfo> >::end
_TEXT	ENDS
PUBLIC	?begin@?$vector@UForceInfo@@V?$allocator@UForceInfo@@@std@@@std@@QBE?AV?$_Vector_const_iterator@V?$_Vector_val@UForceInfo@@V?$allocator@UForceInfo@@@std@@@std@@@2@XZ ; std::vector<ForceInfo,std::allocator<ForceInfo> >::begin
; Function compile flags: /Ogsp
;	COMDAT ?begin@?$vector@UForceInfo@@V?$allocator@UForceInfo@@@std@@@std@@QBE?AV?$_Vector_const_iterator@V?$_Vector_val@UForceInfo@@V?$allocator@UForceInfo@@@std@@@std@@@2@XZ
_TEXT	SEGMENT
___$ReturnUdt$ = 8					; size = 4
?begin@?$vector@UForceInfo@@V?$allocator@UForceInfo@@@std@@@std@@QBE?AV?$_Vector_const_iterator@V?$_Vector_val@UForceInfo@@V?$allocator@UForceInfo@@@std@@@std@@@2@XZ PROC ; std::vector<ForceInfo,std::allocator<ForceInfo> >::begin, COMDAT
; _this$ = ecx

; 786  : 		{	// return iterator for beginning of nonmutable sequence

  00000	55		 push	 ebp
  00001	8b ec		 mov	 ebp, esp

; 787  : 		return (const_iterator(this->_Myfirst, this));

  00003	8b 09		 mov	 ecx, DWORD PTR [ecx]
  00005	8b 45 08	 mov	 eax, DWORD PTR ___$ReturnUdt$[ebp]
  00008	89 08		 mov	 DWORD PTR [eax], ecx

; 788  : 		}

  0000a	5d		 pop	 ebp
  0000b	c2 04 00	 ret	 4
?begin@?$vector@UForceInfo@@V?$allocator@UForceInfo@@@std@@@std@@QBE?AV?$_Vector_const_iterator@V?$_Vector_val@UForceInfo@@V?$allocator@UForceInfo@@@std@@@std@@@2@XZ ENDP ; std::vector<ForceInfo,std::allocator<ForceInfo> >::begin
_TEXT	ENDS
PUBLIC	?end@?$vector@UForceInfo@@V?$allocator@UForceInfo@@@std@@@std@@QBE?AV?$_Vector_const_iterator@V?$_Vector_val@UForceInfo@@V?$allocator@UForceInfo@@@std@@@std@@@2@XZ ; std::vector<ForceInfo,std::allocator<ForceInfo> >::end
; Function compile flags: /Ogsp
;	COMDAT ?end@?$vector@UForceInfo@@V?$allocator@UForceInfo@@@std@@@std@@QBE?AV?$_Vector_const_iterator@V?$_Vector_val@UForceInfo@@V?$allocator@UForceInfo@@@std@@@std@@@2@XZ
_TEXT	SEGMENT
___$ReturnUdt$ = 8					; size = 4
?end@?$vector@UForceInfo@@V?$allocator@UForceInfo@@@std@@@std@@QBE?AV?$_Vector_const_iterator@V?$_Vector_val@UForceInfo@@V?$allocator@UForceInfo@@@std@@@std@@@2@XZ PROC ; std::vector<ForceInfo,std::allocator<ForceInfo> >::end, COMDAT
; _this$ = ecx

; 796  : 		{	// return iterator for end of nonmutable sequence

  00000	55		 push	 ebp
  00001	8b ec		 mov	 ebp, esp

; 797  : 		return (const_iterator(this->_Mylast, this));

  00003	8b 49 04	 mov	 ecx, DWORD PTR [ecx+4]
  00006	8b 45 08	 mov	 eax, DWORD PTR ___$ReturnUdt$[ebp]
  00009	89 08		 mov	 DWORD PTR [eax], ecx

; 798  : 		}

  0000b	5d		 pop	 ebp
  0000c	c2 04 00	 ret	 4
?end@?$vector@UForceInfo@@V?$allocator@UForceInfo@@@std@@@std@@QBE?AV?$_Vector_const_iterator@V?$_Vector_val@UForceInfo@@V?$allocator@UForceInfo@@@std@@@std@@@2@XZ ENDP ; std::vector<ForceInfo,std::allocator<ForceInfo> >::end
_TEXT	ENDS
PUBLIC	__$ArrayPad$
PUBLIC	??$LoadFloat_e@$0BD@@ioINILoader@@QAEMAAY0BD@$$CBDM@Z ; ioINILoader::LoadFloat_e<19>
EXTRN	__imp_?LoadFloat@ioINILoader@@QAEMPBDM@Z:PROC
; Function compile flags: /Ogsp
; File d:\lost saga for developer\youtube\tutorial\source\src\io3dengine\ioiniloader.h
;	COMDAT ??$LoadFloat_e@$0BD@@ioINILoader@@QAEMAAY0BD@$$CBDM@Z
_TEXT	SEGMENT
__k$ = -28						; size = 19
__$ArrayPad$ = -4					; size = 4
_k$ = 8							; size = 4
_f$ = 12						; size = 4
??$LoadFloat_e@$0BD@@ioINILoader@@QAEMAAY0BD@$$CBDM@Z PROC ; ioINILoader::LoadFloat_e<19>, COMDAT
; _this$ = ecx

; 135  : 	{

  00000	55		 push	 ebp
  00001	8b ec		 mov	 ebp, esp
  00003	83 ec 1c	 sub	 esp, 28			; 0000001cH
  00006	a1 00 00 00 00	 mov	 eax, DWORD PTR ___security_cookie
  0000b	33 c5		 xor	 eax, ebp
  0000d	89 45 fc	 mov	 DWORD PTR __$ArrayPad$[ebp], eax
  00010	8b 45 08	 mov	 eax, DWORD PTR _k$[ebp]

; 136  : 		_ENCSTR(k, _k);

  00013	8a 10		 mov	 dl, BYTE PTR [eax]
  00015	56		 push	 esi
  00016	8b f1		 mov	 esi, ecx
  00018	84 d2		 test	 dl, dl
  0001a	0f 84 cf 01 00
	00		 je	 $LN96@LoadFloat_
  00020	80 f2 ed	 xor	 dl, -19			; ffffffedH
  00023	88 55 e4	 mov	 BYTE PTR __k$[ebp], dl
  00026	8a 50 01	 mov	 dl, BYTE PTR [eax+1]
  00029	84 d2		 test	 dl, dl
  0002b	0f 84 b8 01 00
	00		 je	 $LN95@LoadFloat_
  00031	b1 ec		 mov	 cl, -20			; ffffffecH
  00033	32 d1		 xor	 dl, cl
  00035	88 55 e5	 mov	 BYTE PTR __k$[ebp+1], dl
  00038	8a 50 02	 mov	 dl, BYTE PTR [eax+2]
  0003b	84 d2		 test	 dl, dl
  0003d	0f 84 a0 01 00
	00		 je	 $LN94@LoadFloat_
  00043	80 f2 eb	 xor	 dl, -21			; ffffffebH
  00046	88 55 e6	 mov	 BYTE PTR __k$[ebp+2], dl
  00049	8a 50 03	 mov	 dl, BYTE PTR [eax+3]
  0004c	84 d2		 test	 dl, dl
  0004e	0f 84 89 01 00
	00		 je	 $LN93@LoadFloat_
  00054	80 f2 ea	 xor	 dl, -22			; ffffffeaH
  00057	88 55 e7	 mov	 BYTE PTR __k$[ebp+3], dl
  0005a	8a 50 04	 mov	 dl, BYTE PTR [eax+4]
  0005d	84 d2		 test	 dl, dl
  0005f	0f 84 72 01 00
	00		 je	 $LN92@LoadFloat_
  00065	80 f2 ed	 xor	 dl, -19			; ffffffedH
  00068	88 55 e8	 mov	 BYTE PTR __k$[ebp+4], dl
  0006b	8a 50 05	 mov	 dl, BYTE PTR [eax+5]
  0006e	84 d2		 test	 dl, dl
  00070	0f 84 5c 01 00
	00		 je	 $LN91@LoadFloat_
  00076	32 d1		 xor	 dl, cl
  00078	88 55 e9	 mov	 BYTE PTR __k$[ebp+5], dl
  0007b	8a 50 06	 mov	 dl, BYTE PTR [eax+6]
  0007e	84 d2		 test	 dl, dl
  00080	0f 84 46 01 00
	00		 je	 $LN90@LoadFloat_
  00086	80 f2 eb	 xor	 dl, -21			; ffffffebH
  00089	88 55 ea	 mov	 BYTE PTR __k$[ebp+6], dl
  0008c	8a 50 07	 mov	 dl, BYTE PTR [eax+7]
  0008f	84 d2		 test	 dl, dl
  00091	0f 84 2f 01 00
	00		 je	 $LN89@LoadFloat_
  00097	80 f2 ea	 xor	 dl, -22			; ffffffeaH
  0009a	88 55 eb	 mov	 BYTE PTR __k$[ebp+7], dl
  0009d	8a 50 08	 mov	 dl, BYTE PTR [eax+8]
  000a0	84 d2		 test	 dl, dl
  000a2	0f 84 18 01 00
	00		 je	 $LN88@LoadFloat_
  000a8	80 f2 ed	 xor	 dl, -19			; ffffffedH
  000ab	88 55 ec	 mov	 BYTE PTR __k$[ebp+8], dl
  000ae	8a 50 09	 mov	 dl, BYTE PTR [eax+9]
  000b1	84 d2		 test	 dl, dl
  000b3	0f 84 02 01 00
	00		 je	 $LN87@LoadFloat_
  000b9	32 d1		 xor	 dl, cl
  000bb	88 55 ed	 mov	 BYTE PTR __k$[ebp+9], dl
  000be	8a 50 0a	 mov	 dl, BYTE PTR [eax+10]
  000c1	84 d2		 test	 dl, dl
  000c3	0f 84 ec 00 00
	00		 je	 $LN86@LoadFloat_
  000c9	80 f2 eb	 xor	 dl, -21			; ffffffebH
  000cc	88 55 ee	 mov	 BYTE PTR __k$[ebp+10], dl
  000cf	8a 50 0b	 mov	 dl, BYTE PTR [eax+11]
  000d2	84 d2		 test	 dl, dl
  000d4	0f 84 d5 00 00
	00		 je	 $LN85@LoadFloat_
  000da	80 f2 ea	 xor	 dl, -22			; ffffffeaH
  000dd	88 55 ef	 mov	 BYTE PTR __k$[ebp+11], dl
  000e0	8a 50 0c	 mov	 dl, BYTE PTR [eax+12]
  000e3	84 d2		 test	 dl, dl
  000e5	0f 84 be 00 00
	00		 je	 $LN84@LoadFloat_
  000eb	80 f2 ed	 xor	 dl, -19			; ffffffedH
  000ee	88 55 f0	 mov	 BYTE PTR __k$[ebp+12], dl
  000f1	8a 50 0d	 mov	 dl, BYTE PTR [eax+13]
  000f4	84 d2		 test	 dl, dl
  000f6	0f 84 a8 00 00
	00		 je	 $LN83@LoadFloat_
  000fc	32 d1		 xor	 dl, cl
  000fe	88 55 f1	 mov	 BYTE PTR __k$[ebp+13], dl
  00101	8a 50 0e	 mov	 dl, BYTE PTR [eax+14]
  00104	84 d2		 test	 dl, dl
  00106	0f 84 92 00 00
	00		 je	 $LN82@LoadFloat_
  0010c	80 f2 eb	 xor	 dl, -21			; ffffffebH
  0010f	88 55 f2	 mov	 BYTE PTR __k$[ebp+14], dl
  00112	8a 50 0f	 mov	 dl, BYTE PTR [eax+15]
  00115	84 d2		 test	 dl, dl
  00117	74 7f		 je	 SHORT $LN81@LoadFloat_
  00119	80 f2 ea	 xor	 dl, -22			; ffffffeaH
  0011c	88 55 f3	 mov	 BYTE PTR __k$[ebp+15], dl
  0011f	8a 50 10	 mov	 dl, BYTE PTR [eax+16]
  00122	84 d2		 test	 dl, dl
  00124	74 6c		 je	 SHORT $LN80@LoadFloat_
  00126	80 f2 ed	 xor	 dl, -19			; ffffffedH
  00129	88 55 f4	 mov	 BYTE PTR __k$[ebp+16], dl
  0012c	8a 50 11	 mov	 dl, BYTE PTR [eax+17]
  0012f	84 d2		 test	 dl, dl
  00131	74 5a		 je	 SHORT $LN79@LoadFloat_
  00133	32 d1		 xor	 dl, cl
  00135	80 78 12 00	 cmp	 BYTE PTR [eax+18], 0
  00139	88 55 f5	 mov	 BYTE PTR __k$[ebp+17], dl
  0013c	0f 84 b1 00 00
	00		 je	 $LN1@LoadFloat_
  00142	8a 50 13	 mov	 dl, BYTE PTR [eax+19]
  00145	84 d2		 test	 dl, dl
  00147	74 3e		 je	 SHORT $LN77@LoadFloat_
  00149	80 f2 ea	 xor	 dl, -22			; ffffffeaH
  0014c	88 55 f7	 mov	 BYTE PTR __k$[ebp+19], dl
  0014f	8a 50 14	 mov	 dl, BYTE PTR [eax+20]
  00152	84 d2		 test	 dl, dl
  00154	74 2b		 je	 SHORT $LN76@LoadFloat_
  00156	80 f2 ed	 xor	 dl, -19			; ffffffedH
  00159	88 55 f8	 mov	 BYTE PTR __k$[ebp+20], dl
  0015c	8a 50 15	 mov	 dl, BYTE PTR [eax+21]
  0015f	84 d2		 test	 dl, dl
  00161	74 19		 je	 SHORT $LN75@LoadFloat_
  00163	8a 40 16	 mov	 al, BYTE PTR [eax+22]
  00166	32 d1		 xor	 dl, cl
  00168	88 55 f9	 mov	 BYTE PTR __k$[ebp+21], dl
  0016b	84 c0		 test	 al, al
  0016d	74 07		 je	 SHORT $LN74@LoadFloat_
  0016f	34 eb		 xor	 al, -21			; ffffffebH
  00171	88 45 fa	 mov	 BYTE PTR __k$[ebp+22], al
  00174	eb 7d		 jmp	 SHORT $LN1@LoadFloat_
$LN74@LoadFloat_:
  00176	c6 45 fa eb	 mov	 BYTE PTR __k$[ebp+22], -21 ; ffffffebH
  0017a	eb 77		 jmp	 SHORT $LN1@LoadFloat_
$LN75@LoadFloat_:
  0017c	88 4d f9	 mov	 BYTE PTR __k$[ebp+21], cl
  0017f	eb 72		 jmp	 SHORT $LN1@LoadFloat_
$LN76@LoadFloat_:
  00181	c6 45 f8 ed	 mov	 BYTE PTR __k$[ebp+20], -19 ; ffffffedH
  00185	eb 6c		 jmp	 SHORT $LN1@LoadFloat_
$LN77@LoadFloat_:
  00187	c6 45 f7 ea	 mov	 BYTE PTR __k$[ebp+19], -22 ; ffffffeaH
  0018b	eb 66		 jmp	 SHORT $LN1@LoadFloat_
$LN79@LoadFloat_:
  0018d	88 4d f5	 mov	 BYTE PTR __k$[ebp+17], cl
  00190	eb 61		 jmp	 SHORT $LN1@LoadFloat_
$LN80@LoadFloat_:
  00192	c6 45 f4 ed	 mov	 BYTE PTR __k$[ebp+16], -19 ; ffffffedH
  00196	eb 5b		 jmp	 SHORT $LN1@LoadFloat_
$LN81@LoadFloat_:
  00198	c6 45 f3 ea	 mov	 BYTE PTR __k$[ebp+15], -22 ; ffffffeaH
  0019c	eb 55		 jmp	 SHORT $LN1@LoadFloat_
$LN82@LoadFloat_:
  0019e	c6 45 f2 eb	 mov	 BYTE PTR __k$[ebp+14], -21 ; ffffffebH
  001a2	eb 4f		 jmp	 SHORT $LN1@LoadFloat_
$LN83@LoadFloat_:
  001a4	88 4d f1	 mov	 BYTE PTR __k$[ebp+13], cl
  001a7	eb 4a		 jmp	 SHORT $LN1@LoadFloat_
$LN84@LoadFloat_:
  001a9	c6 45 f0 ed	 mov	 BYTE PTR __k$[ebp+12], -19 ; ffffffedH
  001ad	eb 44		 jmp	 SHORT $LN1@LoadFloat_
$LN85@LoadFloat_:
  001af	c6 45 ef ea	 mov	 BYTE PTR __k$[ebp+11], -22 ; ffffffeaH
  001b3	eb 3e		 jmp	 SHORT $LN1@LoadFloat_
$LN86@LoadFloat_:
  001b5	c6 45 ee eb	 mov	 BYTE PTR __k$[ebp+10], -21 ; ffffffebH
  001b9	eb 38		 jmp	 SHORT $LN1@LoadFloat_
$LN87@LoadFloat_:
  001bb	88 4d ed	 mov	 BYTE PTR __k$[ebp+9], cl
  001be	eb 33		 jmp	 SHORT $LN1@LoadFloat_
$LN88@LoadFloat_:
  001c0	c6 45 ec ed	 mov	 BYTE PTR __k$[ebp+8], -19 ; ffffffedH
  001c4	eb 2d		 jmp	 SHORT $LN1@LoadFloat_
$LN89@LoadFloat_:
  001c6	c6 45 eb ea	 mov	 BYTE PTR __k$[ebp+7], -22 ; ffffffeaH
  001ca	eb 27		 jmp	 SHORT $LN1@LoadFloat_
$LN90@LoadFloat_:
  001cc	c6 45 ea eb	 mov	 BYTE PTR __k$[ebp+6], -21 ; ffffffebH
  001d0	eb 21		 jmp	 SHORT $LN1@LoadFloat_
$LN91@LoadFloat_:
  001d2	88 4d e9	 mov	 BYTE PTR __k$[ebp+5], cl
  001d5	eb 1c		 jmp	 SHORT $LN1@LoadFloat_
$LN92@LoadFloat_:
  001d7	c6 45 e8 ed	 mov	 BYTE PTR __k$[ebp+4], -19 ; ffffffedH
  001db	eb 16		 jmp	 SHORT $LN1@LoadFloat_
$LN93@LoadFloat_:
  001dd	c6 45 e7 ea	 mov	 BYTE PTR __k$[ebp+3], -22 ; ffffffeaH
  001e1	eb 10		 jmp	 SHORT $LN1@LoadFloat_
$LN94@LoadFloat_:
  001e3	c6 45 e6 eb	 mov	 BYTE PTR __k$[ebp+2], -21 ; ffffffebH
  001e7	eb 0a		 jmp	 SHORT $LN1@LoadFloat_
$LN95@LoadFloat_:
  001e9	c6 45 e5 ec	 mov	 BYTE PTR __k$[ebp+1], -20 ; ffffffecH
  001ed	eb 04		 jmp	 SHORT $LN1@LoadFloat_
$LN96@LoadFloat_:
  001ef	c6 45 e4 ed	 mov	 BYTE PTR __k$[ebp], -19	; ffffffedH
$LN1@LoadFloat_:
  001f3	6a 04		 push	 4
  001f5	8d 45 e4	 lea	 eax, DWORD PTR __k$[ebp]
  001f8	c6 45 f6 00	 mov	 BYTE PTR __k$[ebp+18], 0
  001fc	5a		 pop	 edx
$LL104@LoadFloat_:
  001fd	81 30 ed ec eb
	ea		 xor	 DWORD PTR [eax], -353637139 ; eaebecedH
  00203	83 c0 04	 add	 eax, 4
  00206	4a		 dec	 edx
  00207	75 f4		 jne	 SHORT $LL104@LoadFloat_
  00209	6a 10		 push	 16			; 00000010H
  0020b	58		 pop	 eax
$LL101@LoadFloat_:
  0020c	8b c8		 mov	 ecx, eax
  0020e	81 e1 03 00 00
	80		 and	 ecx, -2147483645	; 80000003H
  00214	79 05		 jns	 SHORT $LN111@LoadFloat_
  00216	49		 dec	 ecx
  00217	83 c9 fc	 or	 ecx, -4			; fffffffcH
  0021a	41		 inc	 ecx
$LN111@LoadFloat_:
  0021b	b2 ed		 mov	 dl, -19			; ffffffedH
  0021d	2a d1		 sub	 dl, cl
  0021f	30 54 05 e4	 xor	 BYTE PTR __k$[ebp+eax], dl
  00223	40		 inc	 eax
  00224	83 f8 12	 cmp	 eax, 18			; 00000012H
  00227	7c e3		 jl	 SHORT $LL101@LoadFloat_

; 137  : 		return LoadFloat(_k, f);

  00229	f3 0f 10 45 0c	 movss	 xmm0, DWORD PTR _f$[ebp]
  0022e	51		 push	 ecx
  0022f	8d 45 e4	 lea	 eax, DWORD PTR __k$[ebp]
  00232	f3 0f 11 04 24	 movss	 DWORD PTR [esp], xmm0
  00237	50		 push	 eax
  00238	8b ce		 mov	 ecx, esi
  0023a	ff 15 00 00 00
	00		 call	 DWORD PTR __imp_?LoadFloat@ioINILoader@@QAEMPBDM@Z

; 138  : 	}

  00240	8b 4d fc	 mov	 ecx, DWORD PTR __$ArrayPad$[ebp]
  00243	33 cd		 xor	 ecx, ebp
  00245	5e		 pop	 esi
  00246	e8 00 00 00 00	 call	 @__security_check_cookie@4
  0024b	c9		 leave
  0024c	c2 08 00	 ret	 8
??$LoadFloat_e@$0BD@@ioINILoader@@QAEMAAY0BD@$$CBDM@Z ENDP ; ioINILoader::LoadFloat_e<19>
_TEXT	ENDS
PUBLIC	__$ArrayPad$
PUBLIC	??$LoadFloat_e@$0BI@@ioINILoader@@QAEMAAY0BI@$$CBDM@Z ; ioINILoader::LoadFloat_e<24>
; Function compile flags: /Ogsp
;	COMDAT ??$LoadFloat_e@$0BI@@ioINILoader@@QAEMAAY0BI@$$CBDM@Z
_TEXT	SEGMENT
__k$ = -32						; size = 24
__$ArrayPad$ = -4					; size = 4
_k$ = 8							; size = 4
_f$ = 12						; size = 4
??$LoadFloat_e@$0BI@@ioINILoader@@QAEMAAY0BI@$$CBDM@Z PROC ; ioINILoader::LoadFloat_e<24>, COMDAT
; _this$ = ecx

; 135  : 	{

  00000	55		 push	 ebp
  00001	8b ec		 mov	 ebp, esp
  00003	83 ec 20	 sub	 esp, 32			; 00000020H
  00006	a1 00 00 00 00	 mov	 eax, DWORD PTR ___security_cookie
  0000b	33 c5		 xor	 eax, ebp
  0000d	89 45 fc	 mov	 DWORD PTR __$ArrayPad$[ebp], eax
  00010	8b 45 08	 mov	 eax, DWORD PTR _k$[ebp]

; 136  : 		_ENCSTR(k, _k);

  00013	8a 10		 mov	 dl, BYTE PTR [eax]
  00015	53		 push	 ebx
  00016	56		 push	 esi
  00017	8b f1		 mov	 esi, ecx
  00019	84 d2		 test	 dl, dl
  0001b	0f 84 45 02 00
	00		 je	 $LN96@LoadFloat_@2
  00021	80 f2 ed	 xor	 dl, -19			; ffffffedH
  00024	88 55 e0	 mov	 BYTE PTR __k$[ebp], dl
  00027	8a 50 01	 mov	 dl, BYTE PTR [eax+1]
  0002a	84 d2		 test	 dl, dl
  0002c	0f 84 2e 02 00
	00		 je	 $LN95@LoadFloat_@2
  00032	b3 ec		 mov	 bl, -20			; ffffffecH
  00034	32 d3		 xor	 dl, bl
  00036	88 55 e1	 mov	 BYTE PTR __k$[ebp+1], dl
  00039	8a 50 02	 mov	 dl, BYTE PTR [eax+2]
  0003c	84 d2		 test	 dl, dl
  0003e	0f 84 16 02 00
	00		 je	 $LN94@LoadFloat_@2
  00044	b1 eb		 mov	 cl, -21			; ffffffebH
  00046	32 d1		 xor	 dl, cl
  00048	88 55 e2	 mov	 BYTE PTR __k$[ebp+2], dl
  0004b	8a 50 03	 mov	 dl, BYTE PTR [eax+3]
  0004e	84 d2		 test	 dl, dl
  00050	0f 84 fe 01 00
	00		 je	 $LN93@LoadFloat_@2
  00056	80 f2 ea	 xor	 dl, -22			; ffffffeaH
  00059	88 55 e3	 mov	 BYTE PTR __k$[ebp+3], dl
  0005c	8a 50 04	 mov	 dl, BYTE PTR [eax+4]
  0005f	84 d2		 test	 dl, dl
  00061	0f 84 e7 01 00
	00		 je	 $LN92@LoadFloat_@2
  00067	80 f2 ed	 xor	 dl, -19			; ffffffedH
  0006a	88 55 e4	 mov	 BYTE PTR __k$[ebp+4], dl
  0006d	8a 50 05	 mov	 dl, BYTE PTR [eax+5]
  00070	84 d2		 test	 dl, dl
  00072	0f 84 d1 01 00
	00		 je	 $LN91@LoadFloat_@2
  00078	32 d3		 xor	 dl, bl
  0007a	88 55 e5	 mov	 BYTE PTR __k$[ebp+5], dl
  0007d	8a 50 06	 mov	 dl, BYTE PTR [eax+6]
  00080	84 d2		 test	 dl, dl
  00082	0f 84 bc 01 00
	00		 je	 $LN90@LoadFloat_@2
  00088	32 d1		 xor	 dl, cl
  0008a	88 55 e6	 mov	 BYTE PTR __k$[ebp+6], dl
  0008d	8a 50 07	 mov	 dl, BYTE PTR [eax+7]
  00090	84 d2		 test	 dl, dl
  00092	0f 84 a6 01 00
	00		 je	 $LN89@LoadFloat_@2
  00098	80 f2 ea	 xor	 dl, -22			; ffffffeaH
  0009b	88 55 e7	 mov	 BYTE PTR __k$[ebp+7], dl
  0009e	8a 50 08	 mov	 dl, BYTE PTR [eax+8]
  000a1	84 d2		 test	 dl, dl
  000a3	0f 84 8f 01 00
	00		 je	 $LN88@LoadFloat_@2
  000a9	80 f2 ed	 xor	 dl, -19			; ffffffedH
  000ac	88 55 e8	 mov	 BYTE PTR __k$[ebp+8], dl
  000af	8a 50 09	 mov	 dl, BYTE PTR [eax+9]
  000b2	84 d2		 test	 dl, dl
  000b4	0f 84 79 01 00
	00		 je	 $LN87@LoadFloat_@2
  000ba	32 d3		 xor	 dl, bl
  000bc	88 55 e9	 mov	 BYTE PTR __k$[ebp+9], dl
  000bf	8a 50 0a	 mov	 dl, BYTE PTR [eax+10]
  000c2	84 d2		 test	 dl, dl
  000c4	0f 84 64 01 00
	00		 je	 $LN86@LoadFloat_@2
  000ca	32 d1		 xor	 dl, cl
  000cc	88 55 ea	 mov	 BYTE PTR __k$[ebp+10], dl
  000cf	8a 50 0b	 mov	 dl, BYTE PTR [eax+11]
  000d2	84 d2		 test	 dl, dl
  000d4	0f 84 4e 01 00
	00		 je	 $LN85@LoadFloat_@2
  000da	80 f2 ea	 xor	 dl, -22			; ffffffeaH
  000dd	88 55 eb	 mov	 BYTE PTR __k$[ebp+11], dl
  000e0	8a 50 0c	 mov	 dl, BYTE PTR [eax+12]
  000e3	84 d2		 test	 dl, dl
  000e5	0f 84 37 01 00
	00		 je	 $LN84@LoadFloat_@2
  000eb	80 f2 ed	 xor	 dl, -19			; ffffffedH
  000ee	88 55 ec	 mov	 BYTE PTR __k$[ebp+12], dl
  000f1	8a 50 0d	 mov	 dl, BYTE PTR [eax+13]
  000f4	84 d2		 test	 dl, dl
  000f6	0f 84 21 01 00
	00		 je	 $LN83@LoadFloat_@2
  000fc	32 d3		 xor	 dl, bl
  000fe	88 55 ed	 mov	 BYTE PTR __k$[ebp+13], dl
  00101	8a 50 0e	 mov	 dl, BYTE PTR [eax+14]
  00104	84 d2		 test	 dl, dl
  00106	0f 84 0c 01 00
	00		 je	 $LN82@LoadFloat_@2
  0010c	32 d1		 xor	 dl, cl
  0010e	88 55 ee	 mov	 BYTE PTR __k$[ebp+14], dl
  00111	8a 50 0f	 mov	 dl, BYTE PTR [eax+15]
  00114	84 d2		 test	 dl, dl
  00116	0f 84 f6 00 00
	00		 je	 $LN81@LoadFloat_@2
  0011c	80 f2 ea	 xor	 dl, -22			; ffffffeaH
  0011f	88 55 ef	 mov	 BYTE PTR __k$[ebp+15], dl
  00122	8a 50 10	 mov	 dl, BYTE PTR [eax+16]
  00125	84 d2		 test	 dl, dl
  00127	0f 84 df 00 00
	00		 je	 $LN80@LoadFloat_@2
  0012d	80 f2 ed	 xor	 dl, -19			; ffffffedH
  00130	88 55 f0	 mov	 BYTE PTR __k$[ebp+16], dl
  00133	8a 50 11	 mov	 dl, BYTE PTR [eax+17]
  00136	84 d2		 test	 dl, dl
  00138	0f 84 c9 00 00
	00		 je	 $LN79@LoadFloat_@2
  0013e	32 d3		 xor	 dl, bl
  00140	88 55 f1	 mov	 BYTE PTR __k$[ebp+17], dl
  00143	8a 50 12	 mov	 dl, BYTE PTR [eax+18]
  00146	84 d2		 test	 dl, dl
  00148	0f 84 b4 00 00
	00		 je	 $LN78@LoadFloat_@2
  0014e	32 d1		 xor	 dl, cl
  00150	88 55 f2	 mov	 BYTE PTR __k$[ebp+18], dl
  00153	8a 50 13	 mov	 dl, BYTE PTR [eax+19]
  00156	84 d2		 test	 dl, dl
  00158	0f 84 9e 00 00
	00		 je	 $LN77@LoadFloat_@2
  0015e	80 f2 ea	 xor	 dl, -22			; ffffffeaH
  00161	88 55 f3	 mov	 BYTE PTR __k$[ebp+19], dl
  00164	8a 50 14	 mov	 dl, BYTE PTR [eax+20]
  00167	84 d2		 test	 dl, dl
  00169	0f 84 87 00 00
	00		 je	 $LN76@LoadFloat_@2
  0016f	80 f2 ed	 xor	 dl, -19			; ffffffedH
  00172	88 55 f4	 mov	 BYTE PTR __k$[ebp+20], dl
  00175	8a 50 15	 mov	 dl, BYTE PTR [eax+21]
  00178	84 d2		 test	 dl, dl
  0017a	74 75		 je	 SHORT $LN75@LoadFloat_@2
  0017c	32 d3		 xor	 dl, bl
  0017e	88 55 f5	 mov	 BYTE PTR __k$[ebp+21], dl
  00181	8a 50 16	 mov	 dl, BYTE PTR [eax+22]
  00184	84 d2		 test	 dl, dl
  00186	74 64		 je	 SHORT $LN74@LoadFloat_@2
  00188	32 d1		 xor	 dl, cl
  0018a	80 78 17 00	 cmp	 BYTE PTR [eax+23], 0
  0018e	88 55 f6	 mov	 BYTE PTR __k$[ebp+22], dl
  00191	0f 84 d3 00 00
	00		 je	 $LN1@LoadFloat_@2
  00197	8a 50 18	 mov	 dl, BYTE PTR [eax+24]
  0019a	84 d2		 test	 dl, dl
  0019c	74 48		 je	 SHORT $LN72@LoadFloat_@2
  0019e	80 f2 ed	 xor	 dl, -19			; ffffffedH
  001a1	88 55 f8	 mov	 BYTE PTR __k$[ebp+24], dl
  001a4	8a 50 19	 mov	 dl, BYTE PTR [eax+25]
  001a7	84 d2		 test	 dl, dl
  001a9	74 33		 je	 SHORT $LN71@LoadFloat_@2
  001ab	32 d3		 xor	 dl, bl
  001ad	88 55 f9	 mov	 BYTE PTR __k$[ebp+25], dl
  001b0	8a 50 1a	 mov	 dl, BYTE PTR [eax+26]
  001b3	84 d2		 test	 dl, dl
  001b5	74 1f		 je	 SHORT $LN70@LoadFloat_@2
  001b7	8a 40 1b	 mov	 al, BYTE PTR [eax+27]
  001ba	32 d1		 xor	 dl, cl
  001bc	88 55 fa	 mov	 BYTE PTR __k$[ebp+26], dl
  001bf	84 c0		 test	 al, al
  001c1	74 0a		 je	 SHORT $LN69@LoadFloat_@2
  001c3	34 ea		 xor	 al, -22			; ffffffeaH
  001c5	88 45 fb	 mov	 BYTE PTR __k$[ebp+27], al
  001c8	e9 9d 00 00 00	 jmp	 $LN1@LoadFloat_@2
$LN69@LoadFloat_@2:
  001cd	c6 45 fb ea	 mov	 BYTE PTR __k$[ebp+27], -22 ; ffffffeaH
  001d1	e9 94 00 00 00	 jmp	 $LN1@LoadFloat_@2
$LN70@LoadFloat_@2:
  001d6	88 4d fa	 mov	 BYTE PTR __k$[ebp+26], cl
  001d9	e9 8c 00 00 00	 jmp	 $LN1@LoadFloat_@2
$LN71@LoadFloat_@2:
  001de	88 5d f9	 mov	 BYTE PTR __k$[ebp+25], bl
  001e1	e9 84 00 00 00	 jmp	 $LN1@LoadFloat_@2
$LN72@LoadFloat_@2:
  001e6	c6 45 f8 ed	 mov	 BYTE PTR __k$[ebp+24], -19 ; ffffffedH
  001ea	eb 7e		 jmp	 SHORT $LN1@LoadFloat_@2
$LN74@LoadFloat_@2:
  001ec	88 4d f6	 mov	 BYTE PTR __k$[ebp+22], cl
  001ef	eb 79		 jmp	 SHORT $LN1@LoadFloat_@2
$LN75@LoadFloat_@2:
  001f1	88 5d f5	 mov	 BYTE PTR __k$[ebp+21], bl
  001f4	eb 74		 jmp	 SHORT $LN1@LoadFloat_@2
$LN76@LoadFloat_@2:
  001f6	c6 45 f4 ed	 mov	 BYTE PTR __k$[ebp+20], -19 ; ffffffedH
  001fa	eb 6e		 jmp	 SHORT $LN1@LoadFloat_@2
$LN77@LoadFloat_@2:
  001fc	c6 45 f3 ea	 mov	 BYTE PTR __k$[ebp+19], -22 ; ffffffeaH
  00200	eb 68		 jmp	 SHORT $LN1@LoadFloat_@2
$LN78@LoadFloat_@2:
  00202	88 4d f2	 mov	 BYTE PTR __k$[ebp+18], cl
  00205	eb 63		 jmp	 SHORT $LN1@LoadFloat_@2
$LN79@LoadFloat_@2:
  00207	88 5d f1	 mov	 BYTE PTR __k$[ebp+17], bl
  0020a	eb 5e		 jmp	 SHORT $LN1@LoadFloat_@2
$LN80@LoadFloat_@2:
  0020c	c6 45 f0 ed	 mov	 BYTE PTR __k$[ebp+16], -19 ; ffffffedH
  00210	eb 58		 jmp	 SHORT $LN1@LoadFloat_@2
$LN81@LoadFloat_@2:
  00212	c6 45 ef ea	 mov	 BYTE PTR __k$[ebp+15], -22 ; ffffffeaH
  00216	eb 52		 jmp	 SHORT $LN1@LoadFloat_@2
$LN82@LoadFloat_@2:
  00218	88 4d ee	 mov	 BYTE PTR __k$[ebp+14], cl
  0021b	eb 4d		 jmp	 SHORT $LN1@LoadFloat_@2
$LN83@LoadFloat_@2:
  0021d	88 5d ed	 mov	 BYTE PTR __k$[ebp+13], bl
  00220	eb 48		 jmp	 SHORT $LN1@LoadFloat_@2
$LN84@LoadFloat_@2:
  00222	c6 45 ec ed	 mov	 BYTE PTR __k$[ebp+12], -19 ; ffffffedH
  00226	eb 42		 jmp	 SHORT $LN1@LoadFloat_@2
$LN85@LoadFloat_@2:
  00228	c6 45 eb ea	 mov	 BYTE PTR __k$[ebp+11], -22 ; ffffffeaH
  0022c	eb 3c		 jmp	 SHORT $LN1@LoadFloat_@2
$LN86@LoadFloat_@2:
  0022e	88 4d ea	 mov	 BYTE PTR __k$[ebp+10], cl
  00231	eb 37		 jmp	 SHORT $LN1@LoadFloat_@2
$LN87@LoadFloat_@2:
  00233	88 5d e9	 mov	 BYTE PTR __k$[ebp+9], bl
  00236	eb 32		 jmp	 SHORT $LN1@LoadFloat_@2
$LN88@LoadFloat_@2:
  00238	c6 45 e8 ed	 mov	 BYTE PTR __k$[ebp+8], -19 ; ffffffedH
  0023c	eb 2c		 jmp	 SHORT $LN1@LoadFloat_@2
$LN89@LoadFloat_@2:
  0023e	c6 45 e7 ea	 mov	 BYTE PTR __k$[ebp+7], -22 ; ffffffeaH
  00242	eb 26		 jmp	 SHORT $LN1@LoadFloat_@2
$LN90@LoadFloat_@2:
  00244	88 4d e6	 mov	 BYTE PTR __k$[ebp+6], cl
  00247	eb 21		 jmp	 SHORT $LN1@LoadFloat_@2
$LN91@LoadFloat_@2:
  00249	88 5d e5	 mov	 BYTE PTR __k$[ebp+5], bl
  0024c	eb 1c		 jmp	 SHORT $LN1@LoadFloat_@2
$LN92@LoadFloat_@2:
  0024e	c6 45 e4 ed	 mov	 BYTE PTR __k$[ebp+4], -19 ; ffffffedH
  00252	eb 16		 jmp	 SHORT $LN1@LoadFloat_@2
$LN93@LoadFloat_@2:
  00254	c6 45 e3 ea	 mov	 BYTE PTR __k$[ebp+3], -22 ; ffffffeaH
  00258	eb 10		 jmp	 SHORT $LN1@LoadFloat_@2
$LN94@LoadFloat_@2:
  0025a	c6 45 e2 eb	 mov	 BYTE PTR __k$[ebp+2], -21 ; ffffffebH
  0025e	eb 0a		 jmp	 SHORT $LN1@LoadFloat_@2
$LN95@LoadFloat_@2:
  00260	c6 45 e1 ec	 mov	 BYTE PTR __k$[ebp+1], -20 ; ffffffecH
  00264	eb 04		 jmp	 SHORT $LN1@LoadFloat_@2
$LN96@LoadFloat_@2:
  00266	c6 45 e0 ed	 mov	 BYTE PTR __k$[ebp], -19	; ffffffedH
$LN1@LoadFloat_@2:
  0026a	6a 05		 push	 5
  0026c	8d 45 e0	 lea	 eax, DWORD PTR __k$[ebp]
  0026f	c6 45 f7 00	 mov	 BYTE PTR __k$[ebp+23], 0
  00273	5a		 pop	 edx
$LL104@LoadFloat_@2:
  00274	81 30 ed ec eb
	ea		 xor	 DWORD PTR [eax], -353637139 ; eaebecedH
  0027a	83 c0 04	 add	 eax, 4
  0027d	4a		 dec	 edx
  0027e	75 f4		 jne	 SHORT $LL104@LoadFloat_@2
  00280	6a 14		 push	 20			; 00000014H
  00282	58		 pop	 eax
$LL101@LoadFloat_@2:
  00283	8b c8		 mov	 ecx, eax
  00285	81 e1 03 00 00
	80		 and	 ecx, -2147483645	; 80000003H
  0028b	79 05		 jns	 SHORT $LN111@LoadFloat_@2
  0028d	49		 dec	 ecx
  0028e	83 c9 fc	 or	 ecx, -4			; fffffffcH
  00291	41		 inc	 ecx
$LN111@LoadFloat_@2:
  00292	b2 ed		 mov	 dl, -19			; ffffffedH
  00294	2a d1		 sub	 dl, cl
  00296	30 54 05 e0	 xor	 BYTE PTR __k$[ebp+eax], dl
  0029a	40		 inc	 eax
  0029b	83 f8 17	 cmp	 eax, 23			; 00000017H
  0029e	7c e3		 jl	 SHORT $LL101@LoadFloat_@2

; 137  : 		return LoadFloat(_k, f);

  002a0	f3 0f 10 45 0c	 movss	 xmm0, DWORD PTR _f$[ebp]
  002a5	51		 push	 ecx
  002a6	8d 45 e0	 lea	 eax, DWORD PTR __k$[ebp]
  002a9	f3 0f 11 04 24	 movss	 DWORD PTR [esp], xmm0
  002ae	50		 push	 eax
  002af	8b ce		 mov	 ecx, esi
  002b1	ff 15 00 00 00
	00		 call	 DWORD PTR __imp_?LoadFloat@ioINILoader@@QAEMPBDM@Z

; 138  : 	}

  002b7	8b 4d fc	 mov	 ecx, DWORD PTR __$ArrayPad$[ebp]
  002ba	5e		 pop	 esi
  002bb	33 cd		 xor	 ecx, ebp
  002bd	5b		 pop	 ebx
  002be	e8 00 00 00 00	 call	 @__security_check_cookie@4
  002c3	c9		 leave
  002c4	c2 08 00	 ret	 8
??$LoadFloat_e@$0BI@@ioINILoader@@QAEMAAY0BI@$$CBDM@Z ENDP ; ioINILoader::LoadFloat_e<24>
_TEXT	ENDS
PUBLIC	__$ArrayPad$
PUBLIC	??$LoadFloat_e@$0BE@@ioINILoader@@QAEMAAY0BE@$$CBDM@Z ; ioINILoader::LoadFloat_e<20>
; Function compile flags: /Ogsp
;	COMDAT ??$LoadFloat_e@$0BE@@ioINILoader@@QAEMAAY0BE@$$CBDM@Z
_TEXT	SEGMENT
__k$ = -28						; size = 20
__$ArrayPad$ = -4					; size = 4
_k$ = 8							; size = 4
_f$ = 12						; size = 4
??$LoadFloat_e@$0BE@@ioINILoader@@QAEMAAY0BE@$$CBDM@Z PROC ; ioINILoader::LoadFloat_e<20>, COMDAT
; _this$ = ecx

; 135  : 	{

  00000	55		 push	 ebp
  00001	8b ec		 mov	 ebp, esp
  00003	83 ec 1c	 sub	 esp, 28			; 0000001cH
  00006	a1 00 00 00 00	 mov	 eax, DWORD PTR ___security_cookie
  0000b	33 c5		 xor	 eax, ebp
  0000d	89 45 fc	 mov	 DWORD PTR __$ArrayPad$[ebp], eax
  00010	8b 45 08	 mov	 eax, DWORD PTR _k$[ebp]

; 136  : 		_ENCSTR(k, _k);

  00013	8a 10		 mov	 dl, BYTE PTR [eax]
  00015	53		 push	 ebx
  00016	56		 push	 esi
  00017	8b f1		 mov	 esi, ecx
  00019	84 d2		 test	 dl, dl
  0001b	0f 84 dd 01 00
	00		 je	 $LN96@LoadFloat_@3
  00021	80 f2 ed	 xor	 dl, -19			; ffffffedH
  00024	88 55 e4	 mov	 BYTE PTR __k$[ebp], dl
  00027	8a 50 01	 mov	 dl, BYTE PTR [eax+1]
  0002a	84 d2		 test	 dl, dl
  0002c	0f 84 c6 01 00
	00		 je	 $LN95@LoadFloat_@3
  00032	b3 ec		 mov	 bl, -20			; ffffffecH
  00034	32 d3		 xor	 dl, bl
  00036	88 55 e5	 mov	 BYTE PTR __k$[ebp+1], dl
  00039	8a 50 02	 mov	 dl, BYTE PTR [eax+2]
  0003c	84 d2		 test	 dl, dl
  0003e	0f 84 ae 01 00
	00		 je	 $LN94@LoadFloat_@3
  00044	b1 eb		 mov	 cl, -21			; ffffffebH
  00046	32 d1		 xor	 dl, cl
  00048	88 55 e6	 mov	 BYTE PTR __k$[ebp+2], dl
  0004b	8a 50 03	 mov	 dl, BYTE PTR [eax+3]
  0004e	84 d2		 test	 dl, dl
  00050	0f 84 96 01 00
	00		 je	 $LN93@LoadFloat_@3
  00056	80 f2 ea	 xor	 dl, -22			; ffffffeaH
  00059	88 55 e7	 mov	 BYTE PTR __k$[ebp+3], dl
  0005c	8a 50 04	 mov	 dl, BYTE PTR [eax+4]
  0005f	84 d2		 test	 dl, dl
  00061	0f 84 7f 01 00
	00		 je	 $LN92@LoadFloat_@3
  00067	80 f2 ed	 xor	 dl, -19			; ffffffedH
  0006a	88 55 e8	 mov	 BYTE PTR __k$[ebp+4], dl
  0006d	8a 50 05	 mov	 dl, BYTE PTR [eax+5]
  00070	84 d2		 test	 dl, dl
  00072	0f 84 69 01 00
	00		 je	 $LN91@LoadFloat_@3
  00078	32 d3		 xor	 dl, bl
  0007a	88 55 e9	 mov	 BYTE PTR __k$[ebp+5], dl
  0007d	8a 50 06	 mov	 dl, BYTE PTR [eax+6]
  00080	84 d2		 test	 dl, dl
  00082	0f 84 54 01 00
	00		 je	 $LN90@LoadFloat_@3
  00088	32 d1		 xor	 dl, cl
  0008a	88 55 ea	 mov	 BYTE PTR __k$[ebp+6], dl
  0008d	8a 50 07	 mov	 dl, BYTE PTR [eax+7]
  00090	84 d2		 test	 dl, dl
  00092	0f 84 3e 01 00
	00		 je	 $LN89@LoadFloat_@3
  00098	80 f2 ea	 xor	 dl, -22			; ffffffeaH
  0009b	88 55 eb	 mov	 BYTE PTR __k$[ebp+7], dl
  0009e	8a 50 08	 mov	 dl, BYTE PTR [eax+8]
  000a1	84 d2		 test	 dl, dl
  000a3	0f 84 27 01 00
	00		 je	 $LN88@LoadFloat_@3
  000a9	80 f2 ed	 xor	 dl, -19			; ffffffedH
  000ac	88 55 ec	 mov	 BYTE PTR __k$[ebp+8], dl
  000af	8a 50 09	 mov	 dl, BYTE PTR [eax+9]
  000b2	84 d2		 test	 dl, dl
  000b4	0f 84 11 01 00
	00		 je	 $LN87@LoadFloat_@3
  000ba	32 d3		 xor	 dl, bl
  000bc	88 55 ed	 mov	 BYTE PTR __k$[ebp+9], dl
  000bf	8a 50 0a	 mov	 dl, BYTE PTR [eax+10]
  000c2	84 d2		 test	 dl, dl
  000c4	0f 84 fc 00 00
	00		 je	 $LN86@LoadFloat_@3
  000ca	32 d1		 xor	 dl, cl
  000cc	88 55 ee	 mov	 BYTE PTR __k$[ebp+10], dl
  000cf	8a 50 0b	 mov	 dl, BYTE PTR [eax+11]
  000d2	84 d2		 test	 dl, dl
  000d4	0f 84 e6 00 00
	00		 je	 $LN85@LoadFloat_@3
  000da	80 f2 ea	 xor	 dl, -22			; ffffffeaH
  000dd	88 55 ef	 mov	 BYTE PTR __k$[ebp+11], dl
  000e0	8a 50 0c	 mov	 dl, BYTE PTR [eax+12]
  000e3	84 d2		 test	 dl, dl
  000e5	0f 84 cf 00 00
	00		 je	 $LN84@LoadFloat_@3
  000eb	80 f2 ed	 xor	 dl, -19			; ffffffedH
  000ee	88 55 f0	 mov	 BYTE PTR __k$[ebp+12], dl
  000f1	8a 50 0d	 mov	 dl, BYTE PTR [eax+13]
  000f4	84 d2		 test	 dl, dl
  000f6	0f 84 b9 00 00
	00		 je	 $LN83@LoadFloat_@3
  000fc	32 d3		 xor	 dl, bl
  000fe	88 55 f1	 mov	 BYTE PTR __k$[ebp+13], dl
  00101	8a 50 0e	 mov	 dl, BYTE PTR [eax+14]
  00104	84 d2		 test	 dl, dl
  00106	0f 84 a4 00 00
	00		 je	 $LN82@LoadFloat_@3
  0010c	32 d1		 xor	 dl, cl
  0010e	88 55 f2	 mov	 BYTE PTR __k$[ebp+14], dl
  00111	8a 50 0f	 mov	 dl, BYTE PTR [eax+15]
  00114	84 d2		 test	 dl, dl
  00116	0f 84 8e 00 00
	00		 je	 $LN81@LoadFloat_@3
  0011c	80 f2 ea	 xor	 dl, -22			; ffffffeaH
  0011f	88 55 f3	 mov	 BYTE PTR __k$[ebp+15], dl
  00122	8a 50 10	 mov	 dl, BYTE PTR [eax+16]
  00125	84 d2		 test	 dl, dl
  00127	74 7b		 je	 SHORT $LN80@LoadFloat_@3
  00129	80 f2 ed	 xor	 dl, -19			; ffffffedH
  0012c	88 55 f4	 mov	 BYTE PTR __k$[ebp+16], dl
  0012f	8a 50 11	 mov	 dl, BYTE PTR [eax+17]
  00132	84 d2		 test	 dl, dl
  00134	74 69		 je	 SHORT $LN79@LoadFloat_@3
  00136	32 d3		 xor	 dl, bl
  00138	88 55 f5	 mov	 BYTE PTR __k$[ebp+17], dl
  0013b	8a 50 12	 mov	 dl, BYTE PTR [eax+18]
  0013e	84 d2		 test	 dl, dl
  00140	74 58		 je	 SHORT $LN78@LoadFloat_@3
  00142	32 d1		 xor	 dl, cl
  00144	80 78 13 00	 cmp	 BYTE PTR [eax+19], 0
  00148	88 55 f6	 mov	 BYTE PTR __k$[ebp+18], dl
  0014b	0f 84 b1 00 00
	00		 je	 $LN1@LoadFloat_@3
  00151	8a 50 14	 mov	 dl, BYTE PTR [eax+20]
  00154	84 d2		 test	 dl, dl
  00156	74 3c		 je	 SHORT $LN76@LoadFloat_@3
  00158	80 f2 ed	 xor	 dl, -19			; ffffffedH
  0015b	88 55 f8	 mov	 BYTE PTR __k$[ebp+20], dl
  0015e	8a 50 15	 mov	 dl, BYTE PTR [eax+21]
  00161	84 d2		 test	 dl, dl
  00163	74 2a		 je	 SHORT $LN75@LoadFloat_@3
  00165	32 d3		 xor	 dl, bl
  00167	88 55 f9	 mov	 BYTE PTR __k$[ebp+21], dl
  0016a	8a 50 16	 mov	 dl, BYTE PTR [eax+22]
  0016d	84 d2		 test	 dl, dl
  0016f	74 19		 je	 SHORT $LN74@LoadFloat_@3
  00171	8a 40 17	 mov	 al, BYTE PTR [eax+23]
  00174	32 d1		 xor	 dl, cl
  00176	88 55 fa	 mov	 BYTE PTR __k$[ebp+22], dl
  00179	84 c0		 test	 al, al
  0017b	74 07		 je	 SHORT $LN73@LoadFloat_@3
  0017d	34 ea		 xor	 al, -22			; ffffffeaH
  0017f	88 45 fb	 mov	 BYTE PTR __k$[ebp+23], al
  00182	eb 7e		 jmp	 SHORT $LN1@LoadFloat_@3
$LN73@LoadFloat_@3:
  00184	c6 45 fb ea	 mov	 BYTE PTR __k$[ebp+23], -22 ; ffffffeaH
  00188	eb 78		 jmp	 SHORT $LN1@LoadFloat_@3
$LN74@LoadFloat_@3:
  0018a	88 4d fa	 mov	 BYTE PTR __k$[ebp+22], cl
  0018d	eb 73		 jmp	 SHORT $LN1@LoadFloat_@3
$LN75@LoadFloat_@3:
  0018f	88 5d f9	 mov	 BYTE PTR __k$[ebp+21], bl
  00192	eb 6e		 jmp	 SHORT $LN1@LoadFloat_@3
$LN76@LoadFloat_@3:
  00194	c6 45 f8 ed	 mov	 BYTE PTR __k$[ebp+20], -19 ; ffffffedH
  00198	eb 68		 jmp	 SHORT $LN1@LoadFloat_@3
$LN78@LoadFloat_@3:
  0019a	88 4d f6	 mov	 BYTE PTR __k$[ebp+18], cl
  0019d	eb 63		 jmp	 SHORT $LN1@LoadFloat_@3
$LN79@LoadFloat_@3:
  0019f	88 5d f5	 mov	 BYTE PTR __k$[ebp+17], bl
  001a2	eb 5e		 jmp	 SHORT $LN1@LoadFloat_@3
$LN80@LoadFloat_@3:
  001a4	c6 45 f4 ed	 mov	 BYTE PTR __k$[ebp+16], -19 ; ffffffedH
  001a8	eb 58		 jmp	 SHORT $LN1@LoadFloat_@3
$LN81@LoadFloat_@3:
  001aa	c6 45 f3 ea	 mov	 BYTE PTR __k$[ebp+15], -22 ; ffffffeaH
  001ae	eb 52		 jmp	 SHORT $LN1@LoadFloat_@3
$LN82@LoadFloat_@3:
  001b0	88 4d f2	 mov	 BYTE PTR __k$[ebp+14], cl
  001b3	eb 4d		 jmp	 SHORT $LN1@LoadFloat_@3
$LN83@LoadFloat_@3:
  001b5	88 5d f1	 mov	 BYTE PTR __k$[ebp+13], bl
  001b8	eb 48		 jmp	 SHORT $LN1@LoadFloat_@3
$LN84@LoadFloat_@3:
  001ba	c6 45 f0 ed	 mov	 BYTE PTR __k$[ebp+12], -19 ; ffffffedH
  001be	eb 42		 jmp	 SHORT $LN1@LoadFloat_@3
$LN85@LoadFloat_@3:
  001c0	c6 45 ef ea	 mov	 BYTE PTR __k$[ebp+11], -22 ; ffffffeaH
  001c4	eb 3c		 jmp	 SHORT $LN1@LoadFloat_@3
$LN86@LoadFloat_@3:
  001c6	88 4d ee	 mov	 BYTE PTR __k$[ebp+10], cl
  001c9	eb 37		 jmp	 SHORT $LN1@LoadFloat_@3
$LN87@LoadFloat_@3:
  001cb	88 5d ed	 mov	 BYTE PTR __k$[ebp+9], bl
  001ce	eb 32		 jmp	 SHORT $LN1@LoadFloat_@3
$LN88@LoadFloat_@3:
  001d0	c6 45 ec ed	 mov	 BYTE PTR __k$[ebp+8], -19 ; ffffffedH
  001d4	eb 2c		 jmp	 SHORT $LN1@LoadFloat_@3
$LN89@LoadFloat_@3:
  001d6	c6 45 eb ea	 mov	 BYTE PTR __k$[ebp+7], -22 ; ffffffeaH
  001da	eb 26		 jmp	 SHORT $LN1@LoadFloat_@3
$LN90@LoadFloat_@3:
  001dc	88 4d ea	 mov	 BYTE PTR __k$[ebp+6], cl
  001df	eb 21		 jmp	 SHORT $LN1@LoadFloat_@3
$LN91@LoadFloat_@3:
  001e1	88 5d e9	 mov	 BYTE PTR __k$[ebp+5], bl
  001e4	eb 1c		 jmp	 SHORT $LN1@LoadFloat_@3
$LN92@LoadFloat_@3:
  001e6	c6 45 e8 ed	 mov	 BYTE PTR __k$[ebp+4], -19 ; ffffffedH
  001ea	eb 16		 jmp	 SHORT $LN1@LoadFloat_@3
$LN93@LoadFloat_@3:
  001ec	c6 45 e7 ea	 mov	 BYTE PTR __k$[ebp+3], -22 ; ffffffeaH
  001f0	eb 10		 jmp	 SHORT $LN1@LoadFloat_@3
$LN94@LoadFloat_@3:
  001f2	c6 45 e6 eb	 mov	 BYTE PTR __k$[ebp+2], -21 ; ffffffebH
  001f6	eb 0a		 jmp	 SHORT $LN1@LoadFloat_@3
$LN95@LoadFloat_@3:
  001f8	c6 45 e5 ec	 mov	 BYTE PTR __k$[ebp+1], -20 ; ffffffecH
  001fc	eb 04		 jmp	 SHORT $LN1@LoadFloat_@3
$LN96@LoadFloat_@3:
  001fe	c6 45 e4 ed	 mov	 BYTE PTR __k$[ebp], -19	; ffffffedH
$LN1@LoadFloat_@3:
  00202	6a 04		 push	 4
  00204	8d 45 e4	 lea	 eax, DWORD PTR __k$[ebp]
  00207	c6 45 f7 00	 mov	 BYTE PTR __k$[ebp+19], 0
  0020b	5a		 pop	 edx
$LL104@LoadFloat_@3:
  0020c	81 30 ed ec eb
	ea		 xor	 DWORD PTR [eax], -353637139 ; eaebecedH
  00212	83 c0 04	 add	 eax, 4
  00215	4a		 dec	 edx
  00216	75 f4		 jne	 SHORT $LL104@LoadFloat_@3
  00218	6a 10		 push	 16			; 00000010H
  0021a	58		 pop	 eax
$LL101@LoadFloat_@3:
  0021b	8b c8		 mov	 ecx, eax
  0021d	81 e1 03 00 00
	80		 and	 ecx, -2147483645	; 80000003H
  00223	79 05		 jns	 SHORT $LN111@LoadFloat_@3
  00225	49		 dec	 ecx
  00226	83 c9 fc	 or	 ecx, -4			; fffffffcH
  00229	41		 inc	 ecx
$LN111@LoadFloat_@3:
  0022a	b2 ed		 mov	 dl, -19			; ffffffedH
  0022c	2a d1		 sub	 dl, cl
  0022e	30 54 05 e4	 xor	 BYTE PTR __k$[ebp+eax], dl
  00232	40		 inc	 eax
  00233	83 f8 13	 cmp	 eax, 19			; 00000013H
  00236	7c e3		 jl	 SHORT $LL101@LoadFloat_@3

; 137  : 		return LoadFloat(_k, f);

  00238	f3 0f 10 45 0c	 movss	 xmm0, DWORD PTR _f$[ebp]
  0023d	51		 push	 ecx
  0023e	8d 45 e4	 lea	 eax, DWORD PTR __k$[ebp]
  00241	f3 0f 11 04 24	 movss	 DWORD PTR [esp], xmm0
  00246	50		 push	 eax
  00247	8b ce		 mov	 ecx, esi
  00249	ff 15 00 00 00
	00		 call	 DWORD PTR __imp_?LoadFloat@ioINILoader@@QAEMPBDM@Z

; 138  : 	}

  0024f	8b 4d fc	 mov	 ecx, DWORD PTR __$ArrayPad$[ebp]
  00252	5e		 pop	 esi
  00253	33 cd		 xor	 ecx, ebp
  00255	5b		 pop	 ebx
  00256	e8 00 00 00 00	 call	 @__security_check_cookie@4
  0025b	c9		 leave
  0025c	c2 08 00	 ret	 8
??$LoadFloat_e@$0BE@@ioINILoader@@QAEMAAY0BE@$$CBDM@Z ENDP ; ioINILoader::LoadFloat_e<20>
_TEXT	ENDS
PUBLIC	_this$GSCopy$
PUBLIC	__$ArrayPad$
PUBLIC	??$LoadString_e@$0N@@ioINILoader@@QAEXAAY0N@$$CBDAAY00$$CBDPADH@Z ; ioINILoader::LoadString_e<13>
EXTRN	__imp_?LoadStringA@ioINILoader@@QAEXPBD0PADH@Z:PROC
; Function compile flags: /Ogsp
;	COMDAT ??$LoadString_e@$0N@@ioINILoader@@QAEXAAY0N@$$CBDAAY00$$CBDPADH@Z
_TEXT	SEGMENT
_this$GSCopy$ = -28					; size = 4
__k$ = -24						; size = 13
__$ArrayPad$ = -4					; size = 4
_k$ = 8							; size = 4
_d$ = 12						; size = 4
_b$ = 16						; size = 4
_i$ = 20						; size = 4
??$LoadString_e@$0N@@ioINILoader@@QAEXAAY0N@$$CBDAAY00$$CBDPADH@Z PROC ; ioINILoader::LoadString_e<13>, COMDAT
; _this$ = ecx

; 161  : 	{

  00000	55		 push	 ebp
  00001	8b ec		 mov	 ebp, esp
  00003	83 ec 1c	 sub	 esp, 28			; 0000001cH
  00006	a1 00 00 00 00	 mov	 eax, DWORD PTR ___security_cookie
  0000b	33 c5		 xor	 eax, ebp
  0000d	89 45 fc	 mov	 DWORD PTR __$ArrayPad$[ebp], eax
  00010	8b 45 08	 mov	 eax, DWORD PTR _k$[ebp]

; 162  : 		_ENCSTR(k, _k);

  00013	8a 10		 mov	 dl, BYTE PTR [eax]
  00015	56		 push	 esi
  00016	8b 75 0c	 mov	 esi, DWORD PTR _d$[ebp]
  00019	57		 push	 edi
  0001a	8b 7d 10	 mov	 edi, DWORD PTR _b$[ebp]
  0001d	89 4d e4	 mov	 DWORD PTR _this$GSCopy$[ebp], ecx
  00020	84 d2		 test	 dl, dl
  00022	0f 84 4d 01 00
	00		 je	 $LN96@LoadString
  00028	80 f2 ed	 xor	 dl, -19			; ffffffedH
  0002b	88 55 e8	 mov	 BYTE PTR __k$[ebp], dl
  0002e	8a 50 01	 mov	 dl, BYTE PTR [eax+1]
  00031	84 d2		 test	 dl, dl
  00033	0f 84 36 01 00
	00		 je	 $LN95@LoadString
  00039	b1 ec		 mov	 cl, -20			; ffffffecH
  0003b	32 d1		 xor	 dl, cl
  0003d	88 55 e9	 mov	 BYTE PTR __k$[ebp+1], dl
  00040	8a 50 02	 mov	 dl, BYTE PTR [eax+2]
  00043	84 d2		 test	 dl, dl
  00045	0f 84 1e 01 00
	00		 je	 $LN94@LoadString
  0004b	80 f2 eb	 xor	 dl, -21			; ffffffebH
  0004e	88 55 ea	 mov	 BYTE PTR __k$[ebp+2], dl
  00051	8a 50 03	 mov	 dl, BYTE PTR [eax+3]
  00054	84 d2		 test	 dl, dl
  00056	0f 84 07 01 00
	00		 je	 $LN93@LoadString
  0005c	80 f2 ea	 xor	 dl, -22			; ffffffeaH
  0005f	88 55 eb	 mov	 BYTE PTR __k$[ebp+3], dl
  00062	8a 50 04	 mov	 dl, BYTE PTR [eax+4]
  00065	84 d2		 test	 dl, dl
  00067	0f 84 f0 00 00
	00		 je	 $LN92@LoadString
  0006d	80 f2 ed	 xor	 dl, -19			; ffffffedH
  00070	88 55 ec	 mov	 BYTE PTR __k$[ebp+4], dl
  00073	8a 50 05	 mov	 dl, BYTE PTR [eax+5]
  00076	84 d2		 test	 dl, dl
  00078	0f 84 da 00 00
	00		 je	 $LN91@LoadString
  0007e	32 d1		 xor	 dl, cl
  00080	88 55 ed	 mov	 BYTE PTR __k$[ebp+5], dl
  00083	8a 50 06	 mov	 dl, BYTE PTR [eax+6]
  00086	84 d2		 test	 dl, dl
  00088	0f 84 c4 00 00
	00		 je	 $LN90@LoadString
  0008e	80 f2 eb	 xor	 dl, -21			; ffffffebH
  00091	88 55 ee	 mov	 BYTE PTR __k$[ebp+6], dl
  00094	8a 50 07	 mov	 dl, BYTE PTR [eax+7]
  00097	84 d2		 test	 dl, dl
  00099	0f 84 ad 00 00
	00		 je	 $LN89@LoadString
  0009f	80 f2 ea	 xor	 dl, -22			; ffffffeaH
  000a2	88 55 ef	 mov	 BYTE PTR __k$[ebp+7], dl
  000a5	8a 50 08	 mov	 dl, BYTE PTR [eax+8]
  000a8	84 d2		 test	 dl, dl
  000aa	0f 84 96 00 00
	00		 je	 $LN88@LoadString
  000b0	80 f2 ed	 xor	 dl, -19			; ffffffedH
  000b3	88 55 f0	 mov	 BYTE PTR __k$[ebp+8], dl
  000b6	8a 50 09	 mov	 dl, BYTE PTR [eax+9]
  000b9	84 d2		 test	 dl, dl
  000bb	0f 84 80 00 00
	00		 je	 $LN87@LoadString
  000c1	32 d1		 xor	 dl, cl
  000c3	88 55 f1	 mov	 BYTE PTR __k$[ebp+9], dl
  000c6	8a 50 0a	 mov	 dl, BYTE PTR [eax+10]
  000c9	84 d2		 test	 dl, dl
  000cb	74 6e		 je	 SHORT $LN86@LoadString
  000cd	80 f2 eb	 xor	 dl, -21			; ffffffebH
  000d0	88 55 f2	 mov	 BYTE PTR __k$[ebp+10], dl
  000d3	8a 50 0b	 mov	 dl, BYTE PTR [eax+11]
  000d6	84 d2		 test	 dl, dl
  000d8	74 5b		 je	 SHORT $LN85@LoadString
  000da	80 f2 ea	 xor	 dl, -22			; ffffffeaH
  000dd	80 78 0c 00	 cmp	 BYTE PTR [eax+12], 0
  000e1	88 55 f3	 mov	 BYTE PTR __k$[ebp+11], dl
  000e4	0f 84 8f 00 00
	00		 je	 $LN111@LoadString
  000ea	8a 50 0d	 mov	 dl, BYTE PTR [eax+13]
  000ed	84 d2		 test	 dl, dl
  000ef	74 3f		 je	 SHORT $LN83@LoadString
  000f1	32 d1		 xor	 dl, cl
  000f3	88 55 f5	 mov	 BYTE PTR __k$[ebp+13], dl
  000f6	8a 50 0e	 mov	 dl, BYTE PTR [eax+14]
  000f9	84 d2		 test	 dl, dl
  000fb	74 2d		 je	 SHORT $LN82@LoadString
  000fd	80 f2 eb	 xor	 dl, -21			; ffffffebH
  00100	88 55 f6	 mov	 BYTE PTR __k$[ebp+14], dl
  00103	8a 50 0f	 mov	 dl, BYTE PTR [eax+15]
  00106	84 d2		 test	 dl, dl
  00108	74 1a		 je	 SHORT $LN81@LoadString
  0010a	8a 40 10	 mov	 al, BYTE PTR [eax+16]
  0010d	80 f2 ea	 xor	 dl, -22			; ffffffeaH
  00110	88 55 f7	 mov	 BYTE PTR __k$[ebp+15], dl
  00113	84 c0		 test	 al, al
  00115	74 07		 je	 SHORT $LN80@LoadString
  00117	34 ed		 xor	 al, -19			; ffffffedH
  00119	88 45 f8	 mov	 BYTE PTR __k$[ebp+16], al
  0011c	eb 5b		 jmp	 SHORT $LN111@LoadString
$LN80@LoadString:
  0011e	c6 45 f8 ed	 mov	 BYTE PTR __k$[ebp+16], -19 ; ffffffedH
  00122	eb 55		 jmp	 SHORT $LN111@LoadString
$LN81@LoadString:
  00124	c6 45 f7 ea	 mov	 BYTE PTR __k$[ebp+15], -22 ; ffffffeaH
  00128	eb 4f		 jmp	 SHORT $LN111@LoadString
$LN82@LoadString:
  0012a	c6 45 f6 eb	 mov	 BYTE PTR __k$[ebp+14], -21 ; ffffffebH
  0012e	eb 49		 jmp	 SHORT $LN111@LoadString
$LN83@LoadString:
  00130	88 4d f5	 mov	 BYTE PTR __k$[ebp+13], cl
  00133	eb 44		 jmp	 SHORT $LN111@LoadString
$LN85@LoadString:
  00135	c6 45 f3 ea	 mov	 BYTE PTR __k$[ebp+11], -22 ; ffffffeaH
  00139	eb 3e		 jmp	 SHORT $LN111@LoadString
$LN86@LoadString:
  0013b	c6 45 f2 eb	 mov	 BYTE PTR __k$[ebp+10], -21 ; ffffffebH
  0013f	eb 38		 jmp	 SHORT $LN111@LoadString
$LN87@LoadString:
  00141	88 4d f1	 mov	 BYTE PTR __k$[ebp+9], cl
  00144	eb 33		 jmp	 SHORT $LN111@LoadString
$LN88@LoadString:
  00146	c6 45 f0 ed	 mov	 BYTE PTR __k$[ebp+8], -19 ; ffffffedH
  0014a	eb 2d		 jmp	 SHORT $LN111@LoadString
$LN89@LoadString:
  0014c	c6 45 ef ea	 mov	 BYTE PTR __k$[ebp+7], -22 ; ffffffeaH
  00150	eb 27		 jmp	 SHORT $LN111@LoadString
$LN90@LoadString:
  00152	c6 45 ee eb	 mov	 BYTE PTR __k$[ebp+6], -21 ; ffffffebH
  00156	eb 21		 jmp	 SHORT $LN111@LoadString
$LN91@LoadString:
  00158	88 4d ed	 mov	 BYTE PTR __k$[ebp+5], cl
  0015b	eb 1c		 jmp	 SHORT $LN111@LoadString
$LN92@LoadString:
  0015d	c6 45 ec ed	 mov	 BYTE PTR __k$[ebp+4], -19 ; ffffffedH
  00161	eb 16		 jmp	 SHORT $LN111@LoadString
$LN93@LoadString:
  00163	c6 45 eb ea	 mov	 BYTE PTR __k$[ebp+3], -22 ; ffffffeaH
  00167	eb 10		 jmp	 SHORT $LN111@LoadString
$LN94@LoadString:
  00169	c6 45 ea eb	 mov	 BYTE PTR __k$[ebp+2], -21 ; ffffffebH
  0016d	eb 0a		 jmp	 SHORT $LN111@LoadString
$LN95@LoadString:
  0016f	c6 45 e9 ec	 mov	 BYTE PTR __k$[ebp+1], -20 ; ffffffecH
  00173	eb 04		 jmp	 SHORT $LN111@LoadString
$LN96@LoadString:
  00175	c6 45 e8 ed	 mov	 BYTE PTR __k$[ebp], -19	; ffffffedH
$LN111@LoadString:
  00179	6a 03		 push	 3
  0017b	8d 45 e8	 lea	 eax, DWORD PTR __k$[ebp]
  0017e	c6 45 f4 00	 mov	 BYTE PTR __k$[ebp+12], 0
  00182	5a		 pop	 edx
$LL104@LoadString:
  00183	81 30 ed ec eb
	ea		 xor	 DWORD PTR [eax], -353637139 ; eaebecedH
  00189	83 c0 04	 add	 eax, 4
  0018c	4a		 dec	 edx
  0018d	75 f4		 jne	 SHORT $LL104@LoadString

; 163  : 		LoadString(_k, d, b, i);

  0018f	ff 75 14	 push	 DWORD PTR _i$[ebp]
  00192	8b 4d e4	 mov	 ecx, DWORD PTR _this$GSCopy$[ebp]
  00195	57		 push	 edi
  00196	56		 push	 esi
  00197	8d 45 e8	 lea	 eax, DWORD PTR __k$[ebp]
  0019a	50		 push	 eax
  0019b	ff 15 00 00 00
	00		 call	 DWORD PTR __imp_?LoadStringA@ioINILoader@@QAEXPBD0PADH@Z

; 164  : 	}

  001a1	8b 4d fc	 mov	 ecx, DWORD PTR __$ArrayPad$[ebp]
  001a4	5f		 pop	 edi
  001a5	33 cd		 xor	 ecx, ebp
  001a7	5e		 pop	 esi
  001a8	e8 00 00 00 00	 call	 @__security_check_cookie@4
  001ad	c9		 leave
  001ae	c2 10 00	 ret	 16			; 00000010H
??$LoadString_e@$0N@@ioINILoader@@QAEXAAY0N@$$CBDAAY00$$CBDPADH@Z ENDP ; ioINILoader::LoadString_e<13>
_TEXT	ENDS
PUBLIC	_this$GSCopy$
PUBLIC	__$ArrayPad$
PUBLIC	??$LoadString_e@$0BF@@ioINILoader@@QAEXAAY0BF@$$CBDAAY00$$CBDPADH@Z ; ioINILoader::LoadString_e<21>
; Function compile flags: /Ogsp
;	COMDAT ??$LoadString_e@$0BF@@ioINILoader@@QAEXAAY0BF@$$CBDAAY00$$CBDPADH@Z
_TEXT	SEGMENT
_this$GSCopy$ = -36					; size = 4
__k$ = -32						; size = 21
__$ArrayPad$ = -4					; size = 4
_k$ = 8							; size = 4
_d$ = 12						; size = 4
_b$ = 16						; size = 4
_i$ = 20						; size = 4
??$LoadString_e@$0BF@@ioINILoader@@QAEXAAY0BF@$$CBDAAY00$$CBDPADH@Z PROC ; ioINILoader::LoadString_e<21>, COMDAT
; _this$ = ecx

; 161  : 	{

  00000	55		 push	 ebp
  00001	8b ec		 mov	 ebp, esp
  00003	83 ec 24	 sub	 esp, 36			; 00000024H
  00006	a1 00 00 00 00	 mov	 eax, DWORD PTR ___security_cookie
  0000b	33 c5		 xor	 eax, ebp
  0000d	89 45 fc	 mov	 DWORD PTR __$ArrayPad$[ebp], eax
  00010	8b 45 08	 mov	 eax, DWORD PTR _k$[ebp]

; 162  : 		_ENCSTR(k, _k);

  00013	8a 10		 mov	 dl, BYTE PTR [eax]
  00015	53		 push	 ebx
  00016	56		 push	 esi
  00017	8b 75 0c	 mov	 esi, DWORD PTR _d$[ebp]
  0001a	57		 push	 edi
  0001b	8b 7d 10	 mov	 edi, DWORD PTR _b$[ebp]
  0001e	89 4d dc	 mov	 DWORD PTR _this$GSCopy$[ebp], ecx
  00021	84 d2		 test	 dl, dl
  00023	0f 84 f7 01 00
	00		 je	 $LN96@LoadString@2
  00029	80 f2 ed	 xor	 dl, -19			; ffffffedH
  0002c	88 55 e0	 mov	 BYTE PTR __k$[ebp], dl
  0002f	8a 50 01	 mov	 dl, BYTE PTR [eax+1]
  00032	84 d2		 test	 dl, dl
  00034	0f 84 e0 01 00
	00		 je	 $LN95@LoadString@2
  0003a	b1 ec		 mov	 cl, -20			; ffffffecH
  0003c	32 d1		 xor	 dl, cl
  0003e	88 55 e1	 mov	 BYTE PTR __k$[ebp+1], dl
  00041	8a 50 02	 mov	 dl, BYTE PTR [eax+2]
  00044	84 d2		 test	 dl, dl
  00046	0f 84 c8 01 00
	00		 je	 $LN94@LoadString@2
  0004c	b3 eb		 mov	 bl, -21			; ffffffebH
  0004e	32 d3		 xor	 dl, bl
  00050	88 55 e2	 mov	 BYTE PTR __k$[ebp+2], dl
  00053	8a 50 03	 mov	 dl, BYTE PTR [eax+3]
  00056	84 d2		 test	 dl, dl
  00058	0f 84 b0 01 00
	00		 je	 $LN93@LoadString@2
  0005e	80 f2 ea	 xor	 dl, -22			; ffffffeaH
  00061	88 55 e3	 mov	 BYTE PTR __k$[ebp+3], dl
  00064	8a 50 04	 mov	 dl, BYTE PTR [eax+4]
  00067	84 d2		 test	 dl, dl
  00069	0f 84 99 01 00
	00		 je	 $LN92@LoadString@2
  0006f	80 f2 ed	 xor	 dl, -19			; ffffffedH
  00072	88 55 e4	 mov	 BYTE PTR __k$[ebp+4], dl
  00075	8a 50 05	 mov	 dl, BYTE PTR [eax+5]
  00078	84 d2		 test	 dl, dl
  0007a	0f 84 83 01 00
	00		 je	 $LN91@LoadString@2
  00080	32 d1		 xor	 dl, cl
  00082	88 55 e5	 mov	 BYTE PTR __k$[ebp+5], dl
  00085	8a 50 06	 mov	 dl, BYTE PTR [eax+6]
  00088	84 d2		 test	 dl, dl
  0008a	0f 84 6e 01 00
	00		 je	 $LN90@LoadString@2
  00090	32 d3		 xor	 dl, bl
  00092	88 55 e6	 mov	 BYTE PTR __k$[ebp+6], dl
  00095	8a 50 07	 mov	 dl, BYTE PTR [eax+7]
  00098	84 d2		 test	 dl, dl
  0009a	0f 84 58 01 00
	00		 je	 $LN89@LoadString@2
  000a0	80 f2 ea	 xor	 dl, -22			; ffffffeaH
  000a3	88 55 e7	 mov	 BYTE PTR __k$[ebp+7], dl
  000a6	8a 50 08	 mov	 dl, BYTE PTR [eax+8]
  000a9	84 d2		 test	 dl, dl
  000ab	0f 84 41 01 00
	00		 je	 $LN88@LoadString@2
  000b1	80 f2 ed	 xor	 dl, -19			; ffffffedH
  000b4	88 55 e8	 mov	 BYTE PTR __k$[ebp+8], dl
  000b7	8a 50 09	 mov	 dl, BYTE PTR [eax+9]
  000ba	84 d2		 test	 dl, dl
  000bc	0f 84 2b 01 00
	00		 je	 $LN87@LoadString@2
  000c2	32 d1		 xor	 dl, cl
  000c4	88 55 e9	 mov	 BYTE PTR __k$[ebp+9], dl
  000c7	8a 50 0a	 mov	 dl, BYTE PTR [eax+10]
  000ca	84 d2		 test	 dl, dl
  000cc	0f 84 16 01 00
	00		 je	 $LN86@LoadString@2
  000d2	32 d3		 xor	 dl, bl
  000d4	88 55 ea	 mov	 BYTE PTR __k$[ebp+10], dl
  000d7	8a 50 0b	 mov	 dl, BYTE PTR [eax+11]
  000da	84 d2		 test	 dl, dl
  000dc	0f 84 00 01 00
	00		 je	 $LN85@LoadString@2
  000e2	80 f2 ea	 xor	 dl, -22			; ffffffeaH
  000e5	88 55 eb	 mov	 BYTE PTR __k$[ebp+11], dl
  000e8	8a 50 0c	 mov	 dl, BYTE PTR [eax+12]
  000eb	84 d2		 test	 dl, dl
  000ed	0f 84 e9 00 00
	00		 je	 $LN84@LoadString@2
  000f3	80 f2 ed	 xor	 dl, -19			; ffffffedH
  000f6	88 55 ec	 mov	 BYTE PTR __k$[ebp+12], dl
  000f9	8a 50 0d	 mov	 dl, BYTE PTR [eax+13]
  000fc	84 d2		 test	 dl, dl
  000fe	0f 84 d3 00 00
	00		 je	 $LN83@LoadString@2
  00104	32 d1		 xor	 dl, cl
  00106	88 55 ed	 mov	 BYTE PTR __k$[ebp+13], dl
  00109	8a 50 0e	 mov	 dl, BYTE PTR [eax+14]
  0010c	84 d2		 test	 dl, dl
  0010e	0f 84 be 00 00
	00		 je	 $LN82@LoadString@2
  00114	32 d3		 xor	 dl, bl
  00116	88 55 ee	 mov	 BYTE PTR __k$[ebp+14], dl
  00119	8a 50 0f	 mov	 dl, BYTE PTR [eax+15]
  0011c	84 d2		 test	 dl, dl
  0011e	0f 84 a8 00 00
	00		 je	 $LN81@LoadString@2
  00124	80 f2 ea	 xor	 dl, -22			; ffffffeaH
  00127	88 55 ef	 mov	 BYTE PTR __k$[ebp+15], dl
  0012a	8a 50 10	 mov	 dl, BYTE PTR [eax+16]
  0012d	84 d2		 test	 dl, dl
  0012f	0f 84 91 00 00
	00		 je	 $LN80@LoadString@2
  00135	80 f2 ed	 xor	 dl, -19			; ffffffedH
  00138	88 55 f0	 mov	 BYTE PTR __k$[ebp+16], dl
  0013b	8a 50 11	 mov	 dl, BYTE PTR [eax+17]
  0013e	84 d2		 test	 dl, dl
  00140	74 7f		 je	 SHORT $LN79@LoadString@2
  00142	32 d1		 xor	 dl, cl
  00144	88 55 f1	 mov	 BYTE PTR __k$[ebp+17], dl
  00147	8a 50 12	 mov	 dl, BYTE PTR [eax+18]
  0014a	84 d2		 test	 dl, dl
  0014c	74 6e		 je	 SHORT $LN78@LoadString@2
  0014e	32 d3		 xor	 dl, bl
  00150	88 55 f2	 mov	 BYTE PTR __k$[ebp+18], dl
  00153	8a 50 13	 mov	 dl, BYTE PTR [eax+19]
  00156	84 d2		 test	 dl, dl
  00158	74 5c		 je	 SHORT $LN77@LoadString@2
  0015a	80 f2 ea	 xor	 dl, -22			; ffffffeaH
  0015d	80 78 14 00	 cmp	 BYTE PTR [eax+20], 0
  00161	88 55 f3	 mov	 BYTE PTR __k$[ebp+19], dl
  00164	0f 84 ba 00 00
	00		 je	 $LN111@LoadString@2
  0016a	8a 50 15	 mov	 dl, BYTE PTR [eax+21]
  0016d	84 d2		 test	 dl, dl
  0016f	74 40		 je	 SHORT $LN75@LoadString@2
  00171	32 d1		 xor	 dl, cl
  00173	88 55 f5	 mov	 BYTE PTR __k$[ebp+21], dl
  00176	8a 50 16	 mov	 dl, BYTE PTR [eax+22]
  00179	84 d2		 test	 dl, dl
  0017b	74 2f		 je	 SHORT $LN74@LoadString@2
  0017d	32 d3		 xor	 dl, bl
  0017f	88 55 f6	 mov	 BYTE PTR __k$[ebp+22], dl
  00182	8a 50 17	 mov	 dl, BYTE PTR [eax+23]
  00185	84 d2		 test	 dl, dl
  00187	74 1d		 je	 SHORT $LN73@LoadString@2
  00189	8a 40 18	 mov	 al, BYTE PTR [eax+24]
  0018c	80 f2 ea	 xor	 dl, -22			; ffffffeaH
  0018f	88 55 f7	 mov	 BYTE PTR __k$[ebp+23], dl
  00192	84 c0		 test	 al, al
  00194	74 0a		 je	 SHORT $LN72@LoadString@2
  00196	34 ed		 xor	 al, -19			; ffffffedH
  00198	88 45 f8	 mov	 BYTE PTR __k$[ebp+24], al
  0019b	e9 84 00 00 00	 jmp	 $LN111@LoadString@2
$LN72@LoadString@2:
  001a0	c6 45 f8 ed	 mov	 BYTE PTR __k$[ebp+24], -19 ; ffffffedH
  001a4	eb 7e		 jmp	 SHORT $LN111@LoadString@2
$LN73@LoadString@2:
  001a6	c6 45 f7 ea	 mov	 BYTE PTR __k$[ebp+23], -22 ; ffffffeaH
  001aa	eb 78		 jmp	 SHORT $LN111@LoadString@2
$LN74@LoadString@2:
  001ac	88 5d f6	 mov	 BYTE PTR __k$[ebp+22], bl
  001af	eb 73		 jmp	 SHORT $LN111@LoadString@2
$LN75@LoadString@2:
  001b1	88 4d f5	 mov	 BYTE PTR __k$[ebp+21], cl
  001b4	eb 6e		 jmp	 SHORT $LN111@LoadString@2
$LN77@LoadString@2:
  001b6	c6 45 f3 ea	 mov	 BYTE PTR __k$[ebp+19], -22 ; ffffffeaH
  001ba	eb 68		 jmp	 SHORT $LN111@LoadString@2
$LN78@LoadString@2:
  001bc	88 5d f2	 mov	 BYTE PTR __k$[ebp+18], bl
  001bf	eb 63		 jmp	 SHORT $LN111@LoadString@2
$LN79@LoadString@2:
  001c1	88 4d f1	 mov	 BYTE PTR __k$[ebp+17], cl
  001c4	eb 5e		 jmp	 SHORT $LN111@LoadString@2
$LN80@LoadString@2:
  001c6	c6 45 f0 ed	 mov	 BYTE PTR __k$[ebp+16], -19 ; ffffffedH
  001ca	eb 58		 jmp	 SHORT $LN111@LoadString@2
$LN81@LoadString@2:
  001cc	c6 45 ef ea	 mov	 BYTE PTR __k$[ebp+15], -22 ; ffffffeaH
  001d0	eb 52		 jmp	 SHORT $LN111@LoadString@2
$LN82@LoadString@2:
  001d2	88 5d ee	 mov	 BYTE PTR __k$[ebp+14], bl
  001d5	eb 4d		 jmp	 SHORT $LN111@LoadString@2
$LN83@LoadString@2:
  001d7	88 4d ed	 mov	 BYTE PTR __k$[ebp+13], cl
  001da	eb 48		 jmp	 SHORT $LN111@LoadString@2
$LN84@LoadString@2:
  001dc	c6 45 ec ed	 mov	 BYTE PTR __k$[ebp+12], -19 ; ffffffedH
  001e0	eb 42		 jmp	 SHORT $LN111@LoadString@2
$LN85@LoadString@2:
  001e2	c6 45 eb ea	 mov	 BYTE PTR __k$[ebp+11], -22 ; ffffffeaH
  001e6	eb 3c		 jmp	 SHORT $LN111@LoadString@2
$LN86@LoadString@2:
  001e8	88 5d ea	 mov	 BYTE PTR __k$[ebp+10], bl
  001eb	eb 37		 jmp	 SHORT $LN111@LoadString@2
$LN87@LoadString@2:
  001ed	88 4d e9	 mov	 BYTE PTR __k$[ebp+9], cl
  001f0	eb 32		 jmp	 SHORT $LN111@LoadString@2
$LN88@LoadString@2:
  001f2	c6 45 e8 ed	 mov	 BYTE PTR __k$[ebp+8], -19 ; ffffffedH
  001f6	eb 2c		 jmp	 SHORT $LN111@LoadString@2
$LN89@LoadString@2:
  001f8	c6 45 e7 ea	 mov	 BYTE PTR __k$[ebp+7], -22 ; ffffffeaH
  001fc	eb 26		 jmp	 SHORT $LN111@LoadString@2
$LN90@LoadString@2:
  001fe	88 5d e6	 mov	 BYTE PTR __k$[ebp+6], bl
  00201	eb 21		 jmp	 SHORT $LN111@LoadString@2
$LN91@LoadString@2:
  00203	88 4d e5	 mov	 BYTE PTR __k$[ebp+5], cl
  00206	eb 1c		 jmp	 SHORT $LN111@LoadString@2
$LN92@LoadString@2:
  00208	c6 45 e4 ed	 mov	 BYTE PTR __k$[ebp+4], -19 ; ffffffedH
  0020c	eb 16		 jmp	 SHORT $LN111@LoadString@2
$LN93@LoadString@2:
  0020e	c6 45 e3 ea	 mov	 BYTE PTR __k$[ebp+3], -22 ; ffffffeaH
  00212	eb 10		 jmp	 SHORT $LN111@LoadString@2
$LN94@LoadString@2:
  00214	c6 45 e2 eb	 mov	 BYTE PTR __k$[ebp+2], -21 ; ffffffebH
  00218	eb 0a		 jmp	 SHORT $LN111@LoadString@2
$LN95@LoadString@2:
  0021a	c6 45 e1 ec	 mov	 BYTE PTR __k$[ebp+1], -20 ; ffffffecH
  0021e	eb 04		 jmp	 SHORT $LN111@LoadString@2
$LN96@LoadString@2:
  00220	c6 45 e0 ed	 mov	 BYTE PTR __k$[ebp], -19	; ffffffedH
$LN111@LoadString@2:
  00224	6a 05		 push	 5
  00226	8d 45 e0	 lea	 eax, DWORD PTR __k$[ebp]
  00229	c6 45 f4 00	 mov	 BYTE PTR __k$[ebp+20], 0
  0022d	5a		 pop	 edx
$LL104@LoadString@2:
  0022e	81 30 ed ec eb
	ea		 xor	 DWORD PTR [eax], -353637139 ; eaebecedH
  00234	83 c0 04	 add	 eax, 4
  00237	4a		 dec	 edx
  00238	75 f4		 jne	 SHORT $LL104@LoadString@2

; 163  : 		LoadString(_k, d, b, i);

  0023a	ff 75 14	 push	 DWORD PTR _i$[ebp]
  0023d	8b 4d dc	 mov	 ecx, DWORD PTR _this$GSCopy$[ebp]
  00240	57		 push	 edi
  00241	56		 push	 esi
  00242	8d 45 e0	 lea	 eax, DWORD PTR __k$[ebp]
  00245	50		 push	 eax
  00246	ff 15 00 00 00
	00		 call	 DWORD PTR __imp_?LoadStringA@ioINILoader@@QAEXPBD0PADH@Z

; 164  : 	}

  0024c	8b 4d fc	 mov	 ecx, DWORD PTR __$ArrayPad$[ebp]
  0024f	5f		 pop	 edi
  00250	5e		 pop	 esi
  00251	33 cd		 xor	 ecx, ebp
  00253	5b		 pop	 ebx
  00254	e8 00 00 00 00	 call	 @__security_check_cookie@4
  00259	c9		 leave
  0025a	c2 10 00	 ret	 16			; 00000010H
??$LoadString_e@$0BF@@ioINILoader@@QAEXAAY0BF@$$CBDAAY00$$CBDPADH@Z ENDP ; ioINILoader::LoadString_e<21>
_TEXT	ENDS
PUBLIC	_this$GSCopy$
PUBLIC	__$ArrayPad$
PUBLIC	??$LoadString_e@$0BA@@ioINILoader@@QAEXAAY0BA@$$CBDAAY00$$CBDPADH@Z ; ioINILoader::LoadString_e<16>
; Function compile flags: /Ogsp
;	COMDAT ??$LoadString_e@$0BA@@ioINILoader@@QAEXAAY0BA@$$CBDAAY00$$CBDPADH@Z
_TEXT	SEGMENT
_this$GSCopy$ = -28					; size = 4
__k$ = -24						; size = 16
__$ArrayPad$ = -4					; size = 4
_k$ = 8							; size = 4
_d$ = 12						; size = 4
_b$ = 16						; size = 4
_i$ = 20						; size = 4
??$LoadString_e@$0BA@@ioINILoader@@QAEXAAY0BA@$$CBDAAY00$$CBDPADH@Z PROC ; ioINILoader::LoadString_e<16>, COMDAT
; _this$ = ecx

; 161  : 	{

  00000	55		 push	 ebp
  00001	8b ec		 mov	 ebp, esp
  00003	83 ec 1c	 sub	 esp, 28			; 0000001cH
  00006	a1 00 00 00 00	 mov	 eax, DWORD PTR ___security_cookie
  0000b	33 c5		 xor	 eax, ebp
  0000d	89 45 fc	 mov	 DWORD PTR __$ArrayPad$[ebp], eax
  00010	8b 45 08	 mov	 eax, DWORD PTR _k$[ebp]

; 162  : 		_ENCSTR(k, _k);

  00013	8a 10		 mov	 dl, BYTE PTR [eax]
  00015	56		 push	 esi
  00016	8b 75 0c	 mov	 esi, DWORD PTR _d$[ebp]
  00019	57		 push	 edi
  0001a	8b 7d 10	 mov	 edi, DWORD PTR _b$[ebp]
  0001d	89 4d e4	 mov	 DWORD PTR _this$GSCopy$[ebp], ecx
  00020	84 d2		 test	 dl, dl
  00022	0f 84 8c 01 00
	00		 je	 $LN96@LoadString@3
  00028	80 f2 ed	 xor	 dl, -19			; ffffffedH
  0002b	88 55 e8	 mov	 BYTE PTR __k$[ebp], dl
  0002e	8a 50 01	 mov	 dl, BYTE PTR [eax+1]
  00031	84 d2		 test	 dl, dl
  00033	0f 84 75 01 00
	00		 je	 $LN95@LoadString@3
  00039	80 f2 ec	 xor	 dl, -20			; ffffffecH
  0003c	88 55 e9	 mov	 BYTE PTR __k$[ebp+1], dl
  0003f	8a 50 02	 mov	 dl, BYTE PTR [eax+2]
  00042	84 d2		 test	 dl, dl
  00044	0f 84 5e 01 00
	00		 je	 $LN94@LoadString@3
  0004a	b1 eb		 mov	 cl, -21			; ffffffebH
  0004c	32 d1		 xor	 dl, cl
  0004e	88 55 ea	 mov	 BYTE PTR __k$[ebp+2], dl
  00051	8a 50 03	 mov	 dl, BYTE PTR [eax+3]
  00054	84 d2		 test	 dl, dl
  00056	0f 84 46 01 00
	00		 je	 $LN93@LoadString@3
  0005c	80 f2 ea	 xor	 dl, -22			; ffffffeaH
  0005f	88 55 eb	 mov	 BYTE PTR __k$[ebp+3], dl
  00062	8a 50 04	 mov	 dl, BYTE PTR [eax+4]
  00065	84 d2		 test	 dl, dl
  00067	0f 84 2f 01 00
	00		 je	 $LN92@LoadString@3
  0006d	80 f2 ed	 xor	 dl, -19			; ffffffedH
  00070	88 55 ec	 mov	 BYTE PTR __k$[ebp+4], dl
  00073	8a 50 05	 mov	 dl, BYTE PTR [eax+5]
  00076	84 d2		 test	 dl, dl
  00078	0f 84 18 01 00
	00		 je	 $LN91@LoadString@3
  0007e	80 f2 ec	 xor	 dl, -20			; ffffffecH
  00081	88 55 ed	 mov	 BYTE PTR __k$[ebp+5], dl
  00084	8a 50 06	 mov	 dl, BYTE PTR [eax+6]
  00087	84 d2		 test	 dl, dl
  00089	0f 84 02 01 00
	00		 je	 $LN90@LoadString@3
  0008f	32 d1		 xor	 dl, cl
  00091	88 55 ee	 mov	 BYTE PTR __k$[ebp+6], dl
  00094	8a 50 07	 mov	 dl, BYTE PTR [eax+7]
  00097	84 d2		 test	 dl, dl
  00099	0f 84 ec 00 00
	00		 je	 $LN89@LoadString@3
  0009f	80 f2 ea	 xor	 dl, -22			; ffffffeaH
  000a2	88 55 ef	 mov	 BYTE PTR __k$[ebp+7], dl
  000a5	8a 50 08	 mov	 dl, BYTE PTR [eax+8]
  000a8	84 d2		 test	 dl, dl
  000aa	0f 84 d5 00 00
	00		 je	 $LN88@LoadString@3
  000b0	80 f2 ed	 xor	 dl, -19			; ffffffedH
  000b3	88 55 f0	 mov	 BYTE PTR __k$[ebp+8], dl
  000b6	8a 50 09	 mov	 dl, BYTE PTR [eax+9]
  000b9	84 d2		 test	 dl, dl
  000bb	0f 84 be 00 00
	00		 je	 $LN87@LoadString@3
  000c1	80 f2 ec	 xor	 dl, -20			; ffffffecH
  000c4	88 55 f1	 mov	 BYTE PTR __k$[ebp+9], dl
  000c7	8a 50 0a	 mov	 dl, BYTE PTR [eax+10]
  000ca	84 d2		 test	 dl, dl
  000cc	0f 84 a8 00 00
	00		 je	 $LN86@LoadString@3
  000d2	32 d1		 xor	 dl, cl
  000d4	88 55 f2	 mov	 BYTE PTR __k$[ebp+10], dl
  000d7	8a 50 0b	 mov	 dl, BYTE PTR [eax+11]
  000da	84 d2		 test	 dl, dl
  000dc	0f 84 92 00 00
	00		 je	 $LN85@LoadString@3
  000e2	80 f2 ea	 xor	 dl, -22			; ffffffeaH
  000e5	88 55 f3	 mov	 BYTE PTR __k$[ebp+11], dl
  000e8	8a 50 0c	 mov	 dl, BYTE PTR [eax+12]
  000eb	84 d2		 test	 dl, dl
  000ed	74 7f		 je	 SHORT $LN84@LoadString@3
  000ef	80 f2 ed	 xor	 dl, -19			; ffffffedH
  000f2	88 55 f4	 mov	 BYTE PTR __k$[ebp+12], dl
  000f5	8a 50 0d	 mov	 dl, BYTE PTR [eax+13]
  000f8	84 d2		 test	 dl, dl
  000fa	74 6c		 je	 SHORT $LN83@LoadString@3
  000fc	80 f2 ec	 xor	 dl, -20			; ffffffecH
  000ff	88 55 f5	 mov	 BYTE PTR __k$[ebp+13], dl
  00102	8a 50 0e	 mov	 dl, BYTE PTR [eax+14]
  00105	84 d2		 test	 dl, dl
  00107	74 5a		 je	 SHORT $LN82@LoadString@3
  00109	32 d1		 xor	 dl, cl
  0010b	80 78 0f 00	 cmp	 BYTE PTR [eax+15], 0
  0010f	88 55 f6	 mov	 BYTE PTR __k$[ebp+14], dl
  00112	0f 84 a0 00 00
	00		 je	 $LN111@LoadString@3
  00118	8a 50 10	 mov	 dl, BYTE PTR [eax+16]
  0011b	84 d2		 test	 dl, dl
  0011d	74 3e		 je	 SHORT $LN80@LoadString@3
  0011f	80 f2 ed	 xor	 dl, -19			; ffffffedH
  00122	88 55 f8	 mov	 BYTE PTR __k$[ebp+16], dl
  00125	8a 50 11	 mov	 dl, BYTE PTR [eax+17]
  00128	84 d2		 test	 dl, dl
  0012a	74 2b		 je	 SHORT $LN79@LoadString@3
  0012c	80 f2 ec	 xor	 dl, -20			; ffffffecH
  0012f	88 55 f9	 mov	 BYTE PTR __k$[ebp+17], dl
  00132	8a 50 12	 mov	 dl, BYTE PTR [eax+18]
  00135	84 d2		 test	 dl, dl
  00137	74 19		 je	 SHORT $LN78@LoadString@3
  00139	8a 40 13	 mov	 al, BYTE PTR [eax+19]
  0013c	32 d1		 xor	 dl, cl
  0013e	88 55 fa	 mov	 BYTE PTR __k$[ebp+18], dl
  00141	84 c0		 test	 al, al
  00143	74 07		 je	 SHORT $LN77@LoadString@3
  00145	34 ea		 xor	 al, -22			; ffffffeaH
  00147	88 45 fb	 mov	 BYTE PTR __k$[ebp+19], al
  0014a	eb 6c		 jmp	 SHORT $LN111@LoadString@3
$LN77@LoadString@3:
  0014c	c6 45 fb ea	 mov	 BYTE PTR __k$[ebp+19], -22 ; ffffffeaH
  00150	eb 66		 jmp	 SHORT $LN111@LoadString@3
$LN78@LoadString@3:
  00152	88 4d fa	 mov	 BYTE PTR __k$[ebp+18], cl
  00155	eb 61		 jmp	 SHORT $LN111@LoadString@3
$LN79@LoadString@3:
  00157	c6 45 f9 ec	 mov	 BYTE PTR __k$[ebp+17], -20 ; ffffffecH
  0015b	eb 5b		 jmp	 SHORT $LN111@LoadString@3
$LN80@LoadString@3:
  0015d	c6 45 f8 ed	 mov	 BYTE PTR __k$[ebp+16], -19 ; ffffffedH
  00161	eb 55		 jmp	 SHORT $LN111@LoadString@3
$LN82@LoadString@3:
  00163	88 4d f6	 mov	 BYTE PTR __k$[ebp+14], cl
  00166	eb 50		 jmp	 SHORT $LN111@LoadString@3
$LN83@LoadString@3:
  00168	c6 45 f5 ec	 mov	 BYTE PTR __k$[ebp+13], -20 ; ffffffecH
  0016c	eb 4a		 jmp	 SHORT $LN111@LoadString@3
$LN84@LoadString@3:
  0016e	c6 45 f4 ed	 mov	 BYTE PTR __k$[ebp+12], -19 ; ffffffedH
  00172	eb 44		 jmp	 SHORT $LN111@LoadString@3
$LN85@LoadString@3:
  00174	c6 45 f3 ea	 mov	 BYTE PTR __k$[ebp+11], -22 ; ffffffeaH
  00178	eb 3e		 jmp	 SHORT $LN111@LoadString@3
$LN86@LoadString@3:
  0017a	88 4d f2	 mov	 BYTE PTR __k$[ebp+10], cl
  0017d	eb 39		 jmp	 SHORT $LN111@LoadString@3
$LN87@LoadString@3:
  0017f	c6 45 f1 ec	 mov	 BYTE PTR __k$[ebp+9], -20 ; ffffffecH
  00183	eb 33		 jmp	 SHORT $LN111@LoadString@3
$LN88@LoadString@3:
  00185	c6 45 f0 ed	 mov	 BYTE PTR __k$[ebp+8], -19 ; ffffffedH
  00189	eb 2d		 jmp	 SHORT $LN111@LoadString@3
$LN89@LoadString@3:
  0018b	c6 45 ef ea	 mov	 BYTE PTR __k$[ebp+7], -22 ; ffffffeaH
  0018f	eb 27		 jmp	 SHORT $LN111@LoadString@3
$LN90@LoadString@3:
  00191	88 4d ee	 mov	 BYTE PTR __k$[ebp+6], cl
  00194	eb 22		 jmp	 SHORT $LN111@LoadString@3
$LN91@LoadString@3:
  00196	c6 45 ed ec	 mov	 BYTE PTR __k$[ebp+5], -20 ; ffffffecH
  0019a	eb 1c		 jmp	 SHORT $LN111@LoadString@3
$LN92@LoadString@3:
  0019c	c6 45 ec ed	 mov	 BYTE PTR __k$[ebp+4], -19 ; ffffffedH
  001a0	eb 16		 jmp	 SHORT $LN111@LoadString@3
$LN93@LoadString@3:
  001a2	c6 45 eb ea	 mov	 BYTE PTR __k$[ebp+3], -22 ; ffffffeaH
  001a6	eb 10		 jmp	 SHORT $LN111@LoadString@3
$LN94@LoadString@3:
  001a8	c6 45 ea eb	 mov	 BYTE PTR __k$[ebp+2], -21 ; ffffffebH
  001ac	eb 0a		 jmp	 SHORT $LN111@LoadString@3
$LN95@LoadString@3:
  001ae	c6 45 e9 ec	 mov	 BYTE PTR __k$[ebp+1], -20 ; ffffffecH
  001b2	eb 04		 jmp	 SHORT $LN111@LoadString@3
$LN96@LoadString@3:
  001b4	c6 45 e8 ed	 mov	 BYTE PTR __k$[ebp], -19	; ffffffedH
$LN111@LoadString@3:
  001b8	6a 03		 push	 3
  001ba	8d 45 e8	 lea	 eax, DWORD PTR __k$[ebp]
  001bd	c6 45 f7 00	 mov	 BYTE PTR __k$[ebp+15], 0
  001c1	5a		 pop	 edx
$LL104@LoadString@3:
  001c2	81 30 ed ec eb
	ea		 xor	 DWORD PTR [eax], -353637139 ; eaebecedH
  001c8	83 c0 04	 add	 eax, 4
  001cb	4a		 dec	 edx
  001cc	75 f4		 jne	 SHORT $LL104@LoadString@3
  001ce	6a 0c		 push	 12			; 0000000cH
  001d0	58		 pop	 eax
$LL101@LoadString@3:
  001d1	8b c8		 mov	 ecx, eax
  001d3	81 e1 03 00 00
	80		 and	 ecx, -2147483645	; 80000003H
  001d9	79 05		 jns	 SHORT $LN112@LoadString@3
  001db	49		 dec	 ecx
  001dc	83 c9 fc	 or	 ecx, -4			; fffffffcH
  001df	41		 inc	 ecx
$LN112@LoadString@3:
  001e0	b2 ed		 mov	 dl, -19			; ffffffedH
  001e2	2a d1		 sub	 dl, cl
  001e4	30 54 05 e8	 xor	 BYTE PTR __k$[ebp+eax], dl
  001e8	40		 inc	 eax
  001e9	83 f8 0f	 cmp	 eax, 15			; 0000000fH
  001ec	7c e3		 jl	 SHORT $LL101@LoadString@3

; 163  : 		LoadString(_k, d, b, i);

  001ee	ff 75 14	 push	 DWORD PTR _i$[ebp]
  001f1	8b 4d e4	 mov	 ecx, DWORD PTR _this$GSCopy$[ebp]
  001f4	57		 push	 edi
  001f5	56		 push	 esi
  001f6	8d 45 e8	 lea	 eax, DWORD PTR __k$[ebp]
  001f9	50		 push	 eax
  001fa	ff 15 00 00 00
	00		 call	 DWORD PTR __imp_?LoadStringA@ioINILoader@@QAEXPBD0PADH@Z

; 164  : 	}

  00200	8b 4d fc	 mov	 ecx, DWORD PTR __$ArrayPad$[ebp]
  00203	5f		 pop	 edi
  00204	33 cd		 xor	 ecx, ebp
  00206	5e		 pop	 esi
  00207	e8 00 00 00 00	 call	 @__security_check_cookie@4
  0020c	c9		 leave
  0020d	c2 10 00	 ret	 16			; 00000010H
??$LoadString_e@$0BA@@ioINILoader@@QAEXAAY0BA@$$CBDAAY00$$CBDPADH@Z ENDP ; ioINILoader::LoadString_e<16>
_TEXT	ENDS
PUBLIC	_this$GSCopy$
PUBLIC	__$ArrayPad$
PUBLIC	??$LoadString_e@$0BB@@ioINILoader@@QAEXAAY0BB@$$CBDAAY00$$CBDPADH@Z ; ioINILoader::LoadString_e<17>
; Function compile flags: /Ogsp
;	COMDAT ??$LoadString_e@$0BB@@ioINILoader@@QAEXAAY0BB@$$CBDAAY00$$CBDPADH@Z
_TEXT	SEGMENT
_this$GSCopy$ = -32					; size = 4
__k$ = -28						; size = 17
__$ArrayPad$ = -4					; size = 4
_k$ = 8							; size = 4
_d$ = 12						; size = 4
_b$ = 16						; size = 4
_i$ = 20						; size = 4
??$LoadString_e@$0BB@@ioINILoader@@QAEXAAY0BB@$$CBDAAY00$$CBDPADH@Z PROC ; ioINILoader::LoadString_e<17>, COMDAT
; _this$ = ecx

; 161  : 	{

  00000	55		 push	 ebp
  00001	8b ec		 mov	 ebp, esp
  00003	83 ec 20	 sub	 esp, 32			; 00000020H
  00006	a1 00 00 00 00	 mov	 eax, DWORD PTR ___security_cookie
  0000b	33 c5		 xor	 eax, ebp
  0000d	89 45 fc	 mov	 DWORD PTR __$ArrayPad$[ebp], eax
  00010	8b 45 08	 mov	 eax, DWORD PTR _k$[ebp]

; 162  : 		_ENCSTR(k, _k);

  00013	8a 10		 mov	 dl, BYTE PTR [eax]
  00015	56		 push	 esi
  00016	8b 75 0c	 mov	 esi, DWORD PTR _d$[ebp]
  00019	57		 push	 edi
  0001a	8b 7d 10	 mov	 edi, DWORD PTR _b$[ebp]
  0001d	89 4d e0	 mov	 DWORD PTR _this$GSCopy$[ebp], ecx
  00020	84 d2		 test	 dl, dl
  00022	0f 84 a7 01 00
	00		 je	 $LN96@LoadString@4
  00028	80 f2 ed	 xor	 dl, -19			; ffffffedH
  0002b	88 55 e4	 mov	 BYTE PTR __k$[ebp], dl
  0002e	8a 50 01	 mov	 dl, BYTE PTR [eax+1]
  00031	84 d2		 test	 dl, dl
  00033	0f 84 90 01 00
	00		 je	 $LN95@LoadString@4
  00039	b1 ec		 mov	 cl, -20			; ffffffecH
  0003b	32 d1		 xor	 dl, cl
  0003d	88 55 e5	 mov	 BYTE PTR __k$[ebp+1], dl
  00040	8a 50 02	 mov	 dl, BYTE PTR [eax+2]
  00043	84 d2		 test	 dl, dl
  00045	0f 84 78 01 00
	00		 je	 $LN94@LoadString@4
  0004b	80 f2 eb	 xor	 dl, -21			; ffffffebH
  0004e	88 55 e6	 mov	 BYTE PTR __k$[ebp+2], dl
  00051	8a 50 03	 mov	 dl, BYTE PTR [eax+3]
  00054	84 d2		 test	 dl, dl
  00056	0f 84 61 01 00
	00		 je	 $LN93@LoadString@4
  0005c	80 f2 ea	 xor	 dl, -22			; ffffffeaH
  0005f	88 55 e7	 mov	 BYTE PTR __k$[ebp+3], dl
  00062	8a 50 04	 mov	 dl, BYTE PTR [eax+4]
  00065	84 d2		 test	 dl, dl
  00067	0f 84 4a 01 00
	00		 je	 $LN92@LoadString@4
  0006d	80 f2 ed	 xor	 dl, -19			; ffffffedH
  00070	88 55 e8	 mov	 BYTE PTR __k$[ebp+4], dl
  00073	8a 50 05	 mov	 dl, BYTE PTR [eax+5]
  00076	84 d2		 test	 dl, dl
  00078	0f 84 34 01 00
	00		 je	 $LN91@LoadString@4
  0007e	32 d1		 xor	 dl, cl
  00080	88 55 e9	 mov	 BYTE PTR __k$[ebp+5], dl
  00083	8a 50 06	 mov	 dl, BYTE PTR [eax+6]
  00086	84 d2		 test	 dl, dl
  00088	0f 84 1e 01 00
	00		 je	 $LN90@LoadString@4
  0008e	80 f2 eb	 xor	 dl, -21			; ffffffebH
  00091	88 55 ea	 mov	 BYTE PTR __k$[ebp+6], dl
  00094	8a 50 07	 mov	 dl, BYTE PTR [eax+7]
  00097	84 d2		 test	 dl, dl
  00099	0f 84 07 01 00
	00		 je	 $LN89@LoadString@4
  0009f	80 f2 ea	 xor	 dl, -22			; ffffffeaH
  000a2	88 55 eb	 mov	 BYTE PTR __k$[ebp+7], dl
  000a5	8a 50 08	 mov	 dl, BYTE PTR [eax+8]
  000a8	84 d2		 test	 dl, dl
  000aa	0f 84 f0 00 00
	00		 je	 $LN88@LoadString@4
  000b0	80 f2 ed	 xor	 dl, -19			; ffffffedH
  000b3	88 55 ec	 mov	 BYTE PTR __k$[ebp+8], dl
  000b6	8a 50 09	 mov	 dl, BYTE PTR [eax+9]
  000b9	84 d2		 test	 dl, dl
  000bb	0f 84 da 00 00
	00		 je	 $LN87@LoadString@4
  000c1	32 d1		 xor	 dl, cl
  000c3	88 55 ed	 mov	 BYTE PTR __k$[ebp+9], dl
  000c6	8a 50 0a	 mov	 dl, BYTE PTR [eax+10]
  000c9	84 d2		 test	 dl, dl
  000cb	0f 84 c4 00 00
	00		 je	 $LN86@LoadString@4
  000d1	80 f2 eb	 xor	 dl, -21			; ffffffebH
  000d4	88 55 ee	 mov	 BYTE PTR __k$[ebp+10], dl
  000d7	8a 50 0b	 mov	 dl, BYTE PTR [eax+11]
  000da	84 d2		 test	 dl, dl
  000dc	0f 84 ad 00 00
	00		 je	 $LN85@LoadString@4
  000e2	80 f2 ea	 xor	 dl, -22			; ffffffeaH
  000e5	88 55 ef	 mov	 BYTE PTR __k$[ebp+11], dl
  000e8	8a 50 0c	 mov	 dl, BYTE PTR [eax+12]
  000eb	84 d2		 test	 dl, dl
  000ed	0f 84 96 00 00
	00		 je	 $LN84@LoadString@4
  000f3	80 f2 ed	 xor	 dl, -19			; ffffffedH
  000f6	88 55 f0	 mov	 BYTE PTR __k$[ebp+12], dl
  000f9	8a 50 0d	 mov	 dl, BYTE PTR [eax+13]
  000fc	84 d2		 test	 dl, dl
  000fe	0f 84 80 00 00
	00		 je	 $LN83@LoadString@4
  00104	32 d1		 xor	 dl, cl
  00106	88 55 f1	 mov	 BYTE PTR __k$[ebp+13], dl
  00109	8a 50 0e	 mov	 dl, BYTE PTR [eax+14]
  0010c	84 d2		 test	 dl, dl
  0010e	74 6e		 je	 SHORT $LN82@LoadString@4
  00110	80 f2 eb	 xor	 dl, -21			; ffffffebH
  00113	88 55 f2	 mov	 BYTE PTR __k$[ebp+14], dl
  00116	8a 50 0f	 mov	 dl, BYTE PTR [eax+15]
  00119	84 d2		 test	 dl, dl
  0011b	74 5b		 je	 SHORT $LN81@LoadString@4
  0011d	80 f2 ea	 xor	 dl, -22			; ffffffeaH
  00120	80 78 10 00	 cmp	 BYTE PTR [eax+16], 0
  00124	88 55 f3	 mov	 BYTE PTR __k$[ebp+15], dl
  00127	0f 84 a6 00 00
	00		 je	 $LN111@LoadString@4
  0012d	8a 50 11	 mov	 dl, BYTE PTR [eax+17]
  00130	84 d2		 test	 dl, dl
  00132	74 3f		 je	 SHORT $LN79@LoadString@4
  00134	32 d1		 xor	 dl, cl
  00136	88 55 f5	 mov	 BYTE PTR __k$[ebp+17], dl
  00139	8a 50 12	 mov	 dl, BYTE PTR [eax+18]
  0013c	84 d2		 test	 dl, dl
  0013e	74 2d		 je	 SHORT $LN78@LoadString@4
  00140	80 f2 eb	 xor	 dl, -21			; ffffffebH
  00143	88 55 f6	 mov	 BYTE PTR __k$[ebp+18], dl
  00146	8a 50 13	 mov	 dl, BYTE PTR [eax+19]
  00149	84 d2		 test	 dl, dl
  0014b	74 1a		 je	 SHORT $LN77@LoadString@4
  0014d	8a 40 14	 mov	 al, BYTE PTR [eax+20]
  00150	80 f2 ea	 xor	 dl, -22			; ffffffeaH
  00153	88 55 f7	 mov	 BYTE PTR __k$[ebp+19], dl
  00156	84 c0		 test	 al, al
  00158	74 07		 je	 SHORT $LN76@LoadString@4
  0015a	34 ed		 xor	 al, -19			; ffffffedH
  0015c	88 45 f8	 mov	 BYTE PTR __k$[ebp+20], al
  0015f	eb 72		 jmp	 SHORT $LN111@LoadString@4
$LN76@LoadString@4:
  00161	c6 45 f8 ed	 mov	 BYTE PTR __k$[ebp+20], -19 ; ffffffedH
  00165	eb 6c		 jmp	 SHORT $LN111@LoadString@4
$LN77@LoadString@4:
  00167	c6 45 f7 ea	 mov	 BYTE PTR __k$[ebp+19], -22 ; ffffffeaH
  0016b	eb 66		 jmp	 SHORT $LN111@LoadString@4
$LN78@LoadString@4:
  0016d	c6 45 f6 eb	 mov	 BYTE PTR __k$[ebp+18], -21 ; ffffffebH
  00171	eb 60		 jmp	 SHORT $LN111@LoadString@4
$LN79@LoadString@4:
  00173	88 4d f5	 mov	 BYTE PTR __k$[ebp+17], cl
  00176	eb 5b		 jmp	 SHORT $LN111@LoadString@4
$LN81@LoadString@4:
  00178	c6 45 f3 ea	 mov	 BYTE PTR __k$[ebp+15], -22 ; ffffffeaH
  0017c	eb 55		 jmp	 SHORT $LN111@LoadString@4
$LN82@LoadString@4:
  0017e	c6 45 f2 eb	 mov	 BYTE PTR __k$[ebp+14], -21 ; ffffffebH
  00182	eb 4f		 jmp	 SHORT $LN111@LoadString@4
$LN83@LoadString@4:
  00184	88 4d f1	 mov	 BYTE PTR __k$[ebp+13], cl
  00187	eb 4a		 jmp	 SHORT $LN111@LoadString@4
$LN84@LoadString@4:
  00189	c6 45 f0 ed	 mov	 BYTE PTR __k$[ebp+12], -19 ; ffffffedH
  0018d	eb 44		 jmp	 SHORT $LN111@LoadString@4
$LN85@LoadString@4:
  0018f	c6 45 ef ea	 mov	 BYTE PTR __k$[ebp+11], -22 ; ffffffeaH
  00193	eb 3e		 jmp	 SHORT $LN111@LoadString@4
$LN86@LoadString@4:
  00195	c6 45 ee eb	 mov	 BYTE PTR __k$[ebp+10], -21 ; ffffffebH
  00199	eb 38		 jmp	 SHORT $LN111@LoadString@4
$LN87@LoadString@4:
  0019b	88 4d ed	 mov	 BYTE PTR __k$[ebp+9], cl
  0019e	eb 33		 jmp	 SHORT $LN111@LoadString@4
$LN88@LoadString@4:
  001a0	c6 45 ec ed	 mov	 BYTE PTR __k$[ebp+8], -19 ; ffffffedH
  001a4	eb 2d		 jmp	 SHORT $LN111@LoadString@4
$LN89@LoadString@4:
  001a6	c6 45 eb ea	 mov	 BYTE PTR __k$[ebp+7], -22 ; ffffffeaH
  001aa	eb 27		 jmp	 SHORT $LN111@LoadString@4
$LN90@LoadString@4:
  001ac	c6 45 ea eb	 mov	 BYTE PTR __k$[ebp+6], -21 ; ffffffebH
  001b0	eb 21		 jmp	 SHORT $LN111@LoadString@4
$LN91@LoadString@4:
  001b2	88 4d e9	 mov	 BYTE PTR __k$[ebp+5], cl
  001b5	eb 1c		 jmp	 SHORT $LN111@LoadString@4
$LN92@LoadString@4:
  001b7	c6 45 e8 ed	 mov	 BYTE PTR __k$[ebp+4], -19 ; ffffffedH
  001bb	eb 16		 jmp	 SHORT $LN111@LoadString@4
$LN93@LoadString@4:
  001bd	c6 45 e7 ea	 mov	 BYTE PTR __k$[ebp+3], -22 ; ffffffeaH
  001c1	eb 10		 jmp	 SHORT $LN111@LoadString@4
$LN94@LoadString@4:
  001c3	c6 45 e6 eb	 mov	 BYTE PTR __k$[ebp+2], -21 ; ffffffebH
  001c7	eb 0a		 jmp	 SHORT $LN111@LoadString@4
$LN95@LoadString@4:
  001c9	c6 45 e5 ec	 mov	 BYTE PTR __k$[ebp+1], -20 ; ffffffecH
  001cd	eb 04		 jmp	 SHORT $LN111@LoadString@4
$LN96@LoadString@4:
  001cf	c6 45 e4 ed	 mov	 BYTE PTR __k$[ebp], -19	; ffffffedH
$LN111@LoadString@4:
  001d3	6a 04		 push	 4
  001d5	8d 45 e4	 lea	 eax, DWORD PTR __k$[ebp]
  001d8	c6 45 f4 00	 mov	 BYTE PTR __k$[ebp+16], 0
  001dc	5a		 pop	 edx
$LL104@LoadString@4:
  001dd	81 30 ed ec eb
	ea		 xor	 DWORD PTR [eax], -353637139 ; eaebecedH
  001e3	83 c0 04	 add	 eax, 4
  001e6	4a		 dec	 edx
  001e7	75 f4		 jne	 SHORT $LL104@LoadString@4

; 163  : 		LoadString(_k, d, b, i);

  001e9	ff 75 14	 push	 DWORD PTR _i$[ebp]
  001ec	8b 4d e0	 mov	 ecx, DWORD PTR _this$GSCopy$[ebp]
  001ef	57		 push	 edi
  001f0	56		 push	 esi
  001f1	8d 45 e4	 lea	 eax, DWORD PTR __k$[ebp]
  001f4	50		 push	 eax
  001f5	ff 15 00 00 00
	00		 call	 DWORD PTR __imp_?LoadStringA@ioINILoader@@QAEXPBD0PADH@Z

; 164  : 	}

  001fb	8b 4d fc	 mov	 ecx, DWORD PTR __$ArrayPad$[ebp]
  001fe	5f		 pop	 edi
  001ff	33 cd		 xor	 ecx, ebp
  00201	5e		 pop	 esi
  00202	e8 00 00 00 00	 call	 @__security_check_cookie@4
  00207	c9		 leave
  00208	c2 10 00	 ret	 16			; 00000010H
??$LoadString_e@$0BB@@ioINILoader@@QAEXAAY0BB@$$CBDAAY00$$CBDPADH@Z ENDP ; ioINILoader::LoadString_e<17>
_TEXT	ENDS
PUBLIC	__$ArrayPad$
PUBLIC	??$LoadString_e@$0L@@ioINILoader@@QAEXAAY0L@$$CBDAAY00$$CBDPADH@Z ; ioINILoader::LoadString_e<11>
; Function compile flags: /Ogsp
;	COMDAT ??$LoadString_e@$0L@@ioINILoader@@QAEXAAY0L@$$CBDAAY00$$CBDPADH@Z
_TEXT	SEGMENT
__k$ = -20						; size = 11
__$ArrayPad$ = -4					; size = 4
_k$ = 8							; size = 4
_d$ = 12						; size = 4
_b$ = 16						; size = 4
_i$ = 20						; size = 4
??$LoadString_e@$0L@@ioINILoader@@QAEXAAY0L@$$CBDAAY00$$CBDPADH@Z PROC ; ioINILoader::LoadString_e<11>, COMDAT
; _this$ = ecx

; 161  : 	{

  00000	55		 push	 ebp
  00001	8b ec		 mov	 ebp, esp
  00003	83 ec 14	 sub	 esp, 20			; 00000014H
  00006	a1 00 00 00 00	 mov	 eax, DWORD PTR ___security_cookie
  0000b	33 c5		 xor	 eax, ebp
  0000d	89 45 fc	 mov	 DWORD PTR __$ArrayPad$[ebp], eax
  00010	8b 45 08	 mov	 eax, DWORD PTR _k$[ebp]

; 162  : 		_ENCSTR(k, _k);

  00013	8a 10		 mov	 dl, BYTE PTR [eax]
  00015	53		 push	 ebx
  00016	56		 push	 esi
  00017	8b 75 0c	 mov	 esi, DWORD PTR _d$[ebp]
  0001a	57		 push	 edi
  0001b	8b 7d 10	 mov	 edi, DWORD PTR _b$[ebp]
  0001e	84 d2		 test	 dl, dl
  00020	0f 84 1b 01 00
	00		 je	 $LN96@LoadString@5
  00026	80 f2 ed	 xor	 dl, -19			; ffffffedH
  00029	88 55 ec	 mov	 BYTE PTR __k$[ebp], dl
  0002c	8a 50 01	 mov	 dl, BYTE PTR [eax+1]
  0002f	84 d2		 test	 dl, dl
  00031	0f 84 04 01 00
	00		 je	 $LN95@LoadString@5
  00037	b3 ec		 mov	 bl, -20			; ffffffecH
  00039	32 d3		 xor	 dl, bl
  0003b	88 55 ed	 mov	 BYTE PTR __k$[ebp+1], dl
  0003e	8a 50 02	 mov	 dl, BYTE PTR [eax+2]
  00041	84 d2		 test	 dl, dl
  00043	0f 84 ec 00 00
	00		 je	 $LN94@LoadString@5
  00049	80 f2 eb	 xor	 dl, -21			; ffffffebH
  0004c	88 55 ee	 mov	 BYTE PTR __k$[ebp+2], dl
  0004f	8a 50 03	 mov	 dl, BYTE PTR [eax+3]
  00052	84 d2		 test	 dl, dl
  00054	0f 84 d5 00 00
	00		 je	 $LN93@LoadString@5
  0005a	80 f2 ea	 xor	 dl, -22			; ffffffeaH
  0005d	88 55 ef	 mov	 BYTE PTR __k$[ebp+3], dl
  00060	8a 50 04	 mov	 dl, BYTE PTR [eax+4]
  00063	84 d2		 test	 dl, dl
  00065	0f 84 be 00 00
	00		 je	 $LN92@LoadString@5
  0006b	80 f2 ed	 xor	 dl, -19			; ffffffedH
  0006e	88 55 f0	 mov	 BYTE PTR __k$[ebp+4], dl
  00071	8a 50 05	 mov	 dl, BYTE PTR [eax+5]
  00074	84 d2		 test	 dl, dl
  00076	0f 84 a8 00 00
	00		 je	 $LN91@LoadString@5
  0007c	32 d3		 xor	 dl, bl
  0007e	88 55 f1	 mov	 BYTE PTR __k$[ebp+5], dl
  00081	8a 50 06	 mov	 dl, BYTE PTR [eax+6]
  00084	84 d2		 test	 dl, dl
  00086	0f 84 92 00 00
	00		 je	 $LN90@LoadString@5
  0008c	80 f2 eb	 xor	 dl, -21			; ffffffebH
  0008f	88 55 f2	 mov	 BYTE PTR __k$[ebp+6], dl
  00092	8a 50 07	 mov	 dl, BYTE PTR [eax+7]
  00095	84 d2		 test	 dl, dl
  00097	74 7f		 je	 SHORT $LN89@LoadString@5
  00099	80 f2 ea	 xor	 dl, -22			; ffffffeaH
  0009c	88 55 f3	 mov	 BYTE PTR __k$[ebp+7], dl
  0009f	8a 50 08	 mov	 dl, BYTE PTR [eax+8]
  000a2	84 d2		 test	 dl, dl
  000a4	74 6c		 je	 SHORT $LN88@LoadString@5
  000a6	80 f2 ed	 xor	 dl, -19			; ffffffedH
  000a9	88 55 f4	 mov	 BYTE PTR __k$[ebp+8], dl
  000ac	8a 50 09	 mov	 dl, BYTE PTR [eax+9]
  000af	84 d2		 test	 dl, dl
  000b1	74 5a		 je	 SHORT $LN87@LoadString@5
  000b3	32 d3		 xor	 dl, bl
  000b5	80 78 0a 00	 cmp	 BYTE PTR [eax+10], 0
  000b9	88 55 f5	 mov	 BYTE PTR __k$[ebp+9], dl
  000bc	0f 84 83 00 00
	00		 je	 $LN1@LoadString@5
  000c2	8a 50 0b	 mov	 dl, BYTE PTR [eax+11]
  000c5	84 d2		 test	 dl, dl
  000c7	74 3e		 je	 SHORT $LN85@LoadString@5
  000c9	80 f2 ea	 xor	 dl, -22			; ffffffeaH
  000cc	88 55 f7	 mov	 BYTE PTR __k$[ebp+11], dl
  000cf	8a 50 0c	 mov	 dl, BYTE PTR [eax+12]
  000d2	84 d2		 test	 dl, dl
  000d4	74 2b		 je	 SHORT $LN84@LoadString@5
  000d6	80 f2 ed	 xor	 dl, -19			; ffffffedH
  000d9	88 55 f8	 mov	 BYTE PTR __k$[ebp+12], dl
  000dc	8a 50 0d	 mov	 dl, BYTE PTR [eax+13]
  000df	84 d2		 test	 dl, dl
  000e1	74 19		 je	 SHORT $LN83@LoadString@5
  000e3	8a 40 0e	 mov	 al, BYTE PTR [eax+14]
  000e6	32 d3		 xor	 dl, bl
  000e8	88 55 f9	 mov	 BYTE PTR __k$[ebp+13], dl
  000eb	84 c0		 test	 al, al
  000ed	74 07		 je	 SHORT $LN82@LoadString@5
  000ef	34 eb		 xor	 al, -21			; ffffffebH
  000f1	88 45 fa	 mov	 BYTE PTR __k$[ebp+14], al
  000f4	eb 4f		 jmp	 SHORT $LN1@LoadString@5
$LN82@LoadString@5:
  000f6	c6 45 fa eb	 mov	 BYTE PTR __k$[ebp+14], -21 ; ffffffebH
  000fa	eb 49		 jmp	 SHORT $LN1@LoadString@5
$LN83@LoadString@5:
  000fc	88 5d f9	 mov	 BYTE PTR __k$[ebp+13], bl
  000ff	eb 44		 jmp	 SHORT $LN1@LoadString@5
$LN84@LoadString@5:
  00101	c6 45 f8 ed	 mov	 BYTE PTR __k$[ebp+12], -19 ; ffffffedH
  00105	eb 3e		 jmp	 SHORT $LN1@LoadString@5
$LN85@LoadString@5:
  00107	c6 45 f7 ea	 mov	 BYTE PTR __k$[ebp+11], -22 ; ffffffeaH
  0010b	eb 38		 jmp	 SHORT $LN1@LoadString@5
$LN87@LoadString@5:
  0010d	88 5d f5	 mov	 BYTE PTR __k$[ebp+9], bl
  00110	eb 33		 jmp	 SHORT $LN1@LoadString@5
$LN88@LoadString@5:
  00112	c6 45 f4 ed	 mov	 BYTE PTR __k$[ebp+8], -19 ; ffffffedH
  00116	eb 2d		 jmp	 SHORT $LN1@LoadString@5
$LN89@LoadString@5:
  00118	c6 45 f3 ea	 mov	 BYTE PTR __k$[ebp+7], -22 ; ffffffeaH
  0011c	eb 27		 jmp	 SHORT $LN1@LoadString@5
$LN90@LoadString@5:
  0011e	c6 45 f2 eb	 mov	 BYTE PTR __k$[ebp+6], -21 ; ffffffebH
  00122	eb 21		 jmp	 SHORT $LN1@LoadString@5
$LN91@LoadString@5:
  00124	88 5d f1	 mov	 BYTE PTR __k$[ebp+5], bl
  00127	eb 1c		 jmp	 SHORT $LN1@LoadString@5
$LN92@LoadString@5:
  00129	c6 45 f0 ed	 mov	 BYTE PTR __k$[ebp+4], -19 ; ffffffedH
  0012d	eb 16		 jmp	 SHORT $LN1@LoadString@5
$LN93@LoadString@5:
  0012f	c6 45 ef ea	 mov	 BYTE PTR __k$[ebp+3], -22 ; ffffffeaH
  00133	eb 10		 jmp	 SHORT $LN1@LoadString@5
$LN94@LoadString@5:
  00135	c6 45 ee eb	 mov	 BYTE PTR __k$[ebp+2], -21 ; ffffffebH
  00139	eb 0a		 jmp	 SHORT $LN1@LoadString@5
$LN95@LoadString@5:
  0013b	c6 45 ed ec	 mov	 BYTE PTR __k$[ebp+1], -20 ; ffffffecH
  0013f	eb 04		 jmp	 SHORT $LN1@LoadString@5
$LN96@LoadString@5:
  00141	c6 45 ec ed	 mov	 BYTE PTR __k$[ebp], -19	; ffffffedH
$LN1@LoadString@5:
  00145	6a 02		 push	 2
  00147	8d 45 ec	 lea	 eax, DWORD PTR __k$[ebp]
  0014a	c6 45 f6 00	 mov	 BYTE PTR __k$[ebp+10], 0
  0014e	5a		 pop	 edx
$LL104@LoadString@5:
  0014f	81 30 ed ec eb
	ea		 xor	 DWORD PTR [eax], -353637139 ; eaebecedH
  00155	83 c0 04	 add	 eax, 4
  00158	4a		 dec	 edx
  00159	75 f4		 jne	 SHORT $LL104@LoadString@5
  0015b	6a 08		 push	 8
  0015d	58		 pop	 eax
$LL101@LoadString@5:
  0015e	8b d0		 mov	 edx, eax
  00160	81 e2 03 00 00
	80		 and	 edx, -2147483645	; 80000003H
  00166	79 05		 jns	 SHORT $LN111@LoadString@5
  00168	4a		 dec	 edx
  00169	83 ca fc	 or	 edx, -4			; fffffffcH
  0016c	42		 inc	 edx
$LN111@LoadString@5:
  0016d	b3 ed		 mov	 bl, -19			; ffffffedH
  0016f	2a da		 sub	 bl, dl
  00171	30 5c 05 ec	 xor	 BYTE PTR __k$[ebp+eax], bl
  00175	40		 inc	 eax
  00176	83 f8 0a	 cmp	 eax, 10			; 0000000aH
  00179	7c e3		 jl	 SHORT $LL101@LoadString@5

; 163  : 		LoadString(_k, d, b, i);

  0017b	ff 75 14	 push	 DWORD PTR _i$[ebp]
  0017e	8d 45 ec	 lea	 eax, DWORD PTR __k$[ebp]
  00181	57		 push	 edi
  00182	56		 push	 esi
  00183	50		 push	 eax
  00184	ff 15 00 00 00
	00		 call	 DWORD PTR __imp_?LoadStringA@ioINILoader@@QAEXPBD0PADH@Z

; 164  : 	}

  0018a	8b 4d fc	 mov	 ecx, DWORD PTR __$ArrayPad$[ebp]
  0018d	5f		 pop	 edi
  0018e	5e		 pop	 esi
  0018f	33 cd		 xor	 ecx, ebp
  00191	5b		 pop	 ebx
  00192	e8 00 00 00 00	 call	 @__security_check_cookie@4
  00197	c9		 leave
  00198	c2 10 00	 ret	 16			; 00000010H
??$LoadString_e@$0L@@ioINILoader@@QAEXAAY0L@$$CBDAAY00$$CBDPADH@Z ENDP ; ioINILoader::LoadString_e<11>
_TEXT	ENDS
PUBLIC	__$ArrayPad$
PUBLIC	??$LoadFloat_e@$0BB@@ioINILoader@@QAEMAAY0BB@$$CBDM@Z ; ioINILoader::LoadFloat_e<17>
; Function compile flags: /Ogsp
;	COMDAT ??$LoadFloat_e@$0BB@@ioINILoader@@QAEMAAY0BB@$$CBDM@Z
_TEXT	SEGMENT
__k$ = -28						; size = 17
__$ArrayPad$ = -4					; size = 4
_k$ = 8							; size = 4
_f$ = 12						; size = 4
??$LoadFloat_e@$0BB@@ioINILoader@@QAEMAAY0BB@$$CBDM@Z PROC ; ioINILoader::LoadFloat_e<17>, COMDAT
; _this$ = ecx

; 135  : 	{

  00000	55		 push	 ebp
  00001	8b ec		 mov	 ebp, esp
  00003	83 ec 1c	 sub	 esp, 28			; 0000001cH
  00006	a1 00 00 00 00	 mov	 eax, DWORD PTR ___security_cookie
  0000b	33 c5		 xor	 eax, ebp
  0000d	89 45 fc	 mov	 DWORD PTR __$ArrayPad$[ebp], eax
  00010	8b 45 08	 mov	 eax, DWORD PTR _k$[ebp]

; 136  : 		_ENCSTR(k, _k);

  00013	8a 10		 mov	 dl, BYTE PTR [eax]
  00015	56		 push	 esi
  00016	8b f1		 mov	 esi, ecx
  00018	84 d2		 test	 dl, dl
  0001a	0f 84 a7 01 00
	00		 je	 $LN96@LoadFloat_@4
  00020	80 f2 ed	 xor	 dl, -19			; ffffffedH
  00023	88 55 e4	 mov	 BYTE PTR __k$[ebp], dl
  00026	8a 50 01	 mov	 dl, BYTE PTR [eax+1]
  00029	84 d2		 test	 dl, dl
  0002b	0f 84 90 01 00
	00		 je	 $LN95@LoadFloat_@4
  00031	b1 ec		 mov	 cl, -20			; ffffffecH
  00033	32 d1		 xor	 dl, cl
  00035	88 55 e5	 mov	 BYTE PTR __k$[ebp+1], dl
  00038	8a 50 02	 mov	 dl, BYTE PTR [eax+2]
  0003b	84 d2		 test	 dl, dl
  0003d	0f 84 78 01 00
	00		 je	 $LN94@LoadFloat_@4
  00043	80 f2 eb	 xor	 dl, -21			; ffffffebH
  00046	88 55 e6	 mov	 BYTE PTR __k$[ebp+2], dl
  00049	8a 50 03	 mov	 dl, BYTE PTR [eax+3]
  0004c	84 d2		 test	 dl, dl
  0004e	0f 84 61 01 00
	00		 je	 $LN93@LoadFloat_@4
  00054	80 f2 ea	 xor	 dl, -22			; ffffffeaH
  00057	88 55 e7	 mov	 BYTE PTR __k$[ebp+3], dl
  0005a	8a 50 04	 mov	 dl, BYTE PTR [eax+4]
  0005d	84 d2		 test	 dl, dl
  0005f	0f 84 4a 01 00
	00		 je	 $LN92@LoadFloat_@4
  00065	80 f2 ed	 xor	 dl, -19			; ffffffedH
  00068	88 55 e8	 mov	 BYTE PTR __k$[ebp+4], dl
  0006b	8a 50 05	 mov	 dl, BYTE PTR [eax+5]
  0006e	84 d2		 test	 dl, dl
  00070	0f 84 34 01 00
	00		 je	 $LN91@LoadFloat_@4
  00076	32 d1		 xor	 dl, cl
  00078	88 55 e9	 mov	 BYTE PTR __k$[ebp+5], dl
  0007b	8a 50 06	 mov	 dl, BYTE PTR [eax+6]
  0007e	84 d2		 test	 dl, dl
  00080	0f 84 1e 01 00
	00		 je	 $LN90@LoadFloat_@4
  00086	80 f2 eb	 xor	 dl, -21			; ffffffebH
  00089	88 55 ea	 mov	 BYTE PTR __k$[ebp+6], dl
  0008c	8a 50 07	 mov	 dl, BYTE PTR [eax+7]
  0008f	84 d2		 test	 dl, dl
  00091	0f 84 07 01 00
	00		 je	 $LN89@LoadFloat_@4
  00097	80 f2 ea	 xor	 dl, -22			; ffffffeaH
  0009a	88 55 eb	 mov	 BYTE PTR __k$[ebp+7], dl
  0009d	8a 50 08	 mov	 dl, BYTE PTR [eax+8]
  000a0	84 d2		 test	 dl, dl
  000a2	0f 84 f0 00 00
	00		 je	 $LN88@LoadFloat_@4
  000a8	80 f2 ed	 xor	 dl, -19			; ffffffedH
  000ab	88 55 ec	 mov	 BYTE PTR __k$[ebp+8], dl
  000ae	8a 50 09	 mov	 dl, BYTE PTR [eax+9]
  000b1	84 d2		 test	 dl, dl
  000b3	0f 84 da 00 00
	00		 je	 $LN87@LoadFloat_@4
  000b9	32 d1		 xor	 dl, cl
  000bb	88 55 ed	 mov	 BYTE PTR __k$[ebp+9], dl
  000be	8a 50 0a	 mov	 dl, BYTE PTR [eax+10]
  000c1	84 d2		 test	 dl, dl
  000c3	0f 84 c4 00 00
	00		 je	 $LN86@LoadFloat_@4
  000c9	80 f2 eb	 xor	 dl, -21			; ffffffebH
  000cc	88 55 ee	 mov	 BYTE PTR __k$[ebp+10], dl
  000cf	8a 50 0b	 mov	 dl, BYTE PTR [eax+11]
  000d2	84 d2		 test	 dl, dl
  000d4	0f 84 ad 00 00
	00		 je	 $LN85@LoadFloat_@4
  000da	80 f2 ea	 xor	 dl, -22			; ffffffeaH
  000dd	88 55 ef	 mov	 BYTE PTR __k$[ebp+11], dl
  000e0	8a 50 0c	 mov	 dl, BYTE PTR [eax+12]
  000e3	84 d2		 test	 dl, dl
  000e5	0f 84 96 00 00
	00		 je	 $LN84@LoadFloat_@4
  000eb	80 f2 ed	 xor	 dl, -19			; ffffffedH
  000ee	88 55 f0	 mov	 BYTE PTR __k$[ebp+12], dl
  000f1	8a 50 0d	 mov	 dl, BYTE PTR [eax+13]
  000f4	84 d2		 test	 dl, dl
  000f6	0f 84 80 00 00
	00		 je	 $LN83@LoadFloat_@4
  000fc	32 d1		 xor	 dl, cl
  000fe	88 55 f1	 mov	 BYTE PTR __k$[ebp+13], dl
  00101	8a 50 0e	 mov	 dl, BYTE PTR [eax+14]
  00104	84 d2		 test	 dl, dl
  00106	74 6e		 je	 SHORT $LN82@LoadFloat_@4
  00108	80 f2 eb	 xor	 dl, -21			; ffffffebH
  0010b	88 55 f2	 mov	 BYTE PTR __k$[ebp+14], dl
  0010e	8a 50 0f	 mov	 dl, BYTE PTR [eax+15]
  00111	84 d2		 test	 dl, dl
  00113	74 5b		 je	 SHORT $LN81@LoadFloat_@4
  00115	80 f2 ea	 xor	 dl, -22			; ffffffeaH
  00118	80 78 10 00	 cmp	 BYTE PTR [eax+16], 0
  0011c	88 55 f3	 mov	 BYTE PTR __k$[ebp+15], dl
  0011f	0f 84 a6 00 00
	00		 je	 $LN1@LoadFloat_@4
  00125	8a 50 11	 mov	 dl, BYTE PTR [eax+17]
  00128	84 d2		 test	 dl, dl
  0012a	74 3f		 je	 SHORT $LN79@LoadFloat_@4
  0012c	32 d1		 xor	 dl, cl
  0012e	88 55 f5	 mov	 BYTE PTR __k$[ebp+17], dl
  00131	8a 50 12	 mov	 dl, BYTE PTR [eax+18]
  00134	84 d2		 test	 dl, dl
  00136	74 2d		 je	 SHORT $LN78@LoadFloat_@4
  00138	80 f2 eb	 xor	 dl, -21			; ffffffebH
  0013b	88 55 f6	 mov	 BYTE PTR __k$[ebp+18], dl
  0013e	8a 50 13	 mov	 dl, BYTE PTR [eax+19]
  00141	84 d2		 test	 dl, dl
  00143	74 1a		 je	 SHORT $LN77@LoadFloat_@4
  00145	8a 40 14	 mov	 al, BYTE PTR [eax+20]
  00148	80 f2 ea	 xor	 dl, -22			; ffffffeaH
  0014b	88 55 f7	 mov	 BYTE PTR __k$[ebp+19], dl
  0014e	84 c0		 test	 al, al
  00150	74 07		 je	 SHORT $LN76@LoadFloat_@4
  00152	34 ed		 xor	 al, -19			; ffffffedH
  00154	88 45 f8	 mov	 BYTE PTR __k$[ebp+20], al
  00157	eb 72		 jmp	 SHORT $LN1@LoadFloat_@4
$LN76@LoadFloat_@4:
  00159	c6 45 f8 ed	 mov	 BYTE PTR __k$[ebp+20], -19 ; ffffffedH
  0015d	eb 6c		 jmp	 SHORT $LN1@LoadFloat_@4
$LN77@LoadFloat_@4:
  0015f	c6 45 f7 ea	 mov	 BYTE PTR __k$[ebp+19], -22 ; ffffffeaH
  00163	eb 66		 jmp	 SHORT $LN1@LoadFloat_@4
$LN78@LoadFloat_@4:
  00165	c6 45 f6 eb	 mov	 BYTE PTR __k$[ebp+18], -21 ; ffffffebH
  00169	eb 60		 jmp	 SHORT $LN1@LoadFloat_@4
$LN79@LoadFloat_@4:
  0016b	88 4d f5	 mov	 BYTE PTR __k$[ebp+17], cl
  0016e	eb 5b		 jmp	 SHORT $LN1@LoadFloat_@4
$LN81@LoadFloat_@4:
  00170	c6 45 f3 ea	 mov	 BYTE PTR __k$[ebp+15], -22 ; ffffffeaH
  00174	eb 55		 jmp	 SHORT $LN1@LoadFloat_@4
$LN82@LoadFloat_@4:
  00176	c6 45 f2 eb	 mov	 BYTE PTR __k$[ebp+14], -21 ; ffffffebH
  0017a	eb 4f		 jmp	 SHORT $LN1@LoadFloat_@4
$LN83@LoadFloat_@4:
  0017c	88 4d f1	 mov	 BYTE PTR __k$[ebp+13], cl
  0017f	eb 4a		 jmp	 SHORT $LN1@LoadFloat_@4
$LN84@LoadFloat_@4:
  00181	c6 45 f0 ed	 mov	 BYTE PTR __k$[ebp+12], -19 ; ffffffedH
  00185	eb 44		 jmp	 SHORT $LN1@LoadFloat_@4
$LN85@LoadFloat_@4:
  00187	c6 45 ef ea	 mov	 BYTE PTR __k$[ebp+11], -22 ; ffffffeaH
  0018b	eb 3e		 jmp	 SHORT $LN1@LoadFloat_@4
$LN86@LoadFloat_@4:
  0018d	c6 45 ee eb	 mov	 BYTE PTR __k$[ebp+10], -21 ; ffffffebH
  00191	eb 38		 jmp	 SHORT $LN1@LoadFloat_@4
$LN87@LoadFloat_@4:
  00193	88 4d ed	 mov	 BYTE PTR __k$[ebp+9], cl
  00196	eb 33		 jmp	 SHORT $LN1@LoadFloat_@4
$LN88@LoadFloat_@4:
  00198	c6 45 ec ed	 mov	 BYTE PTR __k$[ebp+8], -19 ; ffffffedH
  0019c	eb 2d		 jmp	 SHORT $LN1@LoadFloat_@4
$LN89@LoadFloat_@4:
  0019e	c6 45 eb ea	 mov	 BYTE PTR __k$[ebp+7], -22 ; ffffffeaH
  001a2	eb 27		 jmp	 SHORT $LN1@LoadFloat_@4
$LN90@LoadFloat_@4:
  001a4	c6 45 ea eb	 mov	 BYTE PTR __k$[ebp+6], -21 ; ffffffebH
  001a8	eb 21		 jmp	 SHORT $LN1@LoadFloat_@4
$LN91@LoadFloat_@4:
  001aa	88 4d e9	 mov	 BYTE PTR __k$[ebp+5], cl
  001ad	eb 1c		 jmp	 SHORT $LN1@LoadFloat_@4
$LN92@LoadFloat_@4:
  001af	c6 45 e8 ed	 mov	 BYTE PTR __k$[ebp+4], -19 ; ffffffedH
  001b3	eb 16		 jmp	 SHORT $LN1@LoadFloat_@4
$LN93@LoadFloat_@4:
  001b5	c6 45 e7 ea	 mov	 BYTE PTR __k$[ebp+3], -22 ; ffffffeaH
  001b9	eb 10		 jmp	 SHORT $LN1@LoadFloat_@4
$LN94@LoadFloat_@4:
  001bb	c6 45 e6 eb	 mov	 BYTE PTR __k$[ebp+2], -21 ; ffffffebH
  001bf	eb 0a		 jmp	 SHORT $LN1@LoadFloat_@4
$LN95@LoadFloat_@4:
  001c1	c6 45 e5 ec	 mov	 BYTE PTR __k$[ebp+1], -20 ; ffffffecH
  001c5	eb 04		 jmp	 SHORT $LN1@LoadFloat_@4
$LN96@LoadFloat_@4:
  001c7	c6 45 e4 ed	 mov	 BYTE PTR __k$[ebp], -19	; ffffffedH
$LN1@LoadFloat_@4:
  001cb	6a 04		 push	 4
  001cd	8d 45 e4	 lea	 eax, DWORD PTR __k$[ebp]
  001d0	c6 45 f4 00	 mov	 BYTE PTR __k$[ebp+16], 0
  001d4	5a		 pop	 edx
$LL104@LoadFloat_@4:
  001d5	81 30 ed ec eb
	ea		 xor	 DWORD PTR [eax], -353637139 ; eaebecedH
  001db	83 c0 04	 add	 eax, 4
  001de	4a		 dec	 edx
  001df	75 f4		 jne	 SHORT $LL104@LoadFloat_@4

; 137  : 		return LoadFloat(_k, f);

  001e1	f3 0f 10 45 0c	 movss	 xmm0, DWORD PTR _f$[ebp]
  001e6	51		 push	 ecx
  001e7	8d 45 e4	 lea	 eax, DWORD PTR __k$[ebp]
  001ea	f3 0f 11 04 24	 movss	 DWORD PTR [esp], xmm0
  001ef	50		 push	 eax
  001f0	8b ce		 mov	 ecx, esi
  001f2	ff 15 00 00 00
	00		 call	 DWORD PTR __imp_?LoadFloat@ioINILoader@@QAEMPBDM@Z

; 138  : 	}

  001f8	8b 4d fc	 mov	 ecx, DWORD PTR __$ArrayPad$[ebp]
  001fb	33 cd		 xor	 ecx, ebp
  001fd	5e		 pop	 esi
  001fe	e8 00 00 00 00	 call	 @__security_check_cookie@4
  00203	c9		 leave
  00204	c2 08 00	 ret	 8
??$LoadFloat_e@$0BB@@ioINILoader@@QAEMAAY0BB@$$CBDM@Z ENDP ; ioINILoader::LoadFloat_e<17>
_TEXT	ENDS
PUBLIC	__$ArrayPad$
PUBLIC	??$LoadInt_e@$0BC@@ioINILoader@@QAEHAAY0BC@$$CBDH@Z ; ioINILoader::LoadInt_e<18>
EXTRN	__imp_?LoadInt@ioINILoader@@QAEHPBDH@Z:PROC
; Function compile flags: /Ogsp
;	COMDAT ??$LoadInt_e@$0BC@@ioINILoader@@QAEHAAY0BC@$$CBDH@Z
_TEXT	SEGMENT
__k$ = -28						; size = 18
__$ArrayPad$ = -4					; size = 4
_k$ = 8							; size = 4
_i$ = 12						; size = 4
??$LoadInt_e@$0BC@@ioINILoader@@QAEHAAY0BC@$$CBDH@Z PROC ; ioINILoader::LoadInt_e<18>, COMDAT
; _this$ = ecx

; 118  : 	{

  00000	55		 push	 ebp
  00001	8b ec		 mov	 ebp, esp
  00003	83 ec 1c	 sub	 esp, 28			; 0000001cH
  00006	a1 00 00 00 00	 mov	 eax, DWORD PTR ___security_cookie
  0000b	33 c5		 xor	 eax, ebp
  0000d	89 45 fc	 mov	 DWORD PTR __$ArrayPad$[ebp], eax
  00010	8b 45 08	 mov	 eax, DWORD PTR _k$[ebp]

; 119  : 		_ENCSTR(k, _k);

  00013	8a 10		 mov	 dl, BYTE PTR [eax]
  00015	56		 push	 esi
  00016	8b f1		 mov	 esi, ecx
  00018	84 d2		 test	 dl, dl
  0001a	0f 84 be 01 00
	00		 je	 $LN96@LoadInt_e
  00020	80 f2 ed	 xor	 dl, -19			; ffffffedH
  00023	88 55 e4	 mov	 BYTE PTR __k$[ebp], dl
  00026	8a 50 01	 mov	 dl, BYTE PTR [eax+1]
  00029	84 d2		 test	 dl, dl
  0002b	0f 84 a7 01 00
	00		 je	 $LN95@LoadInt_e
  00031	80 f2 ec	 xor	 dl, -20			; ffffffecH
  00034	88 55 e5	 mov	 BYTE PTR __k$[ebp+1], dl
  00037	8a 50 02	 mov	 dl, BYTE PTR [eax+2]
  0003a	84 d2		 test	 dl, dl
  0003c	0f 84 90 01 00
	00		 je	 $LN94@LoadInt_e
  00042	b1 eb		 mov	 cl, -21			; ffffffebH
  00044	32 d1		 xor	 dl, cl
  00046	88 55 e6	 mov	 BYTE PTR __k$[ebp+2], dl
  00049	8a 50 03	 mov	 dl, BYTE PTR [eax+3]
  0004c	84 d2		 test	 dl, dl
  0004e	0f 84 78 01 00
	00		 je	 $LN93@LoadInt_e
  00054	80 f2 ea	 xor	 dl, -22			; ffffffeaH
  00057	88 55 e7	 mov	 BYTE PTR __k$[ebp+3], dl
  0005a	8a 50 04	 mov	 dl, BYTE PTR [eax+4]
  0005d	84 d2		 test	 dl, dl
  0005f	0f 84 61 01 00
	00		 je	 $LN92@LoadInt_e
  00065	80 f2 ed	 xor	 dl, -19			; ffffffedH
  00068	88 55 e8	 mov	 BYTE PTR __k$[ebp+4], dl
  0006b	8a 50 05	 mov	 dl, BYTE PTR [eax+5]
  0006e	84 d2		 test	 dl, dl
  00070	0f 84 4a 01 00
	00		 je	 $LN91@LoadInt_e
  00076	80 f2 ec	 xor	 dl, -20			; ffffffecH
  00079	88 55 e9	 mov	 BYTE PTR __k$[ebp+5], dl
  0007c	8a 50 06	 mov	 dl, BYTE PTR [eax+6]
  0007f	84 d2		 test	 dl, dl
  00081	0f 84 34 01 00
	00		 je	 $LN90@LoadInt_e
  00087	32 d1		 xor	 dl, cl
  00089	88 55 ea	 mov	 BYTE PTR __k$[ebp+6], dl
  0008c	8a 50 07	 mov	 dl, BYTE PTR [eax+7]
  0008f	84 d2		 test	 dl, dl
  00091	0f 84 1e 01 00
	00		 je	 $LN89@LoadInt_e
  00097	80 f2 ea	 xor	 dl, -22			; ffffffeaH
  0009a	88 55 eb	 mov	 BYTE PTR __k$[ebp+7], dl
  0009d	8a 50 08	 mov	 dl, BYTE PTR [eax+8]
  000a0	84 d2		 test	 dl, dl
  000a2	0f 84 07 01 00
	00		 je	 $LN88@LoadInt_e
  000a8	80 f2 ed	 xor	 dl, -19			; ffffffedH
  000ab	88 55 ec	 mov	 BYTE PTR __k$[ebp+8], dl
  000ae	8a 50 09	 mov	 dl, BYTE PTR [eax+9]
  000b1	84 d2		 test	 dl, dl
  000b3	0f 84 f0 00 00
	00		 je	 $LN87@LoadInt_e
  000b9	80 f2 ec	 xor	 dl, -20			; ffffffecH
  000bc	88 55 ed	 mov	 BYTE PTR __k$[ebp+9], dl
  000bf	8a 50 0a	 mov	 dl, BYTE PTR [eax+10]
  000c2	84 d2		 test	 dl, dl
  000c4	0f 84 da 00 00
	00		 je	 $LN86@LoadInt_e
  000ca	32 d1		 xor	 dl, cl
  000cc	88 55 ee	 mov	 BYTE PTR __k$[ebp+10], dl
  000cf	8a 50 0b	 mov	 dl, BYTE PTR [eax+11]
  000d2	84 d2		 test	 dl, dl
  000d4	0f 84 c4 00 00
	00		 je	 $LN85@LoadInt_e
  000da	80 f2 ea	 xor	 dl, -22			; ffffffeaH
  000dd	88 55 ef	 mov	 BYTE PTR __k$[ebp+11], dl
  000e0	8a 50 0c	 mov	 dl, BYTE PTR [eax+12]
  000e3	84 d2		 test	 dl, dl
  000e5	0f 84 ad 00 00
	00		 je	 $LN84@LoadInt_e
  000eb	80 f2 ed	 xor	 dl, -19			; ffffffedH
  000ee	88 55 f0	 mov	 BYTE PTR __k$[ebp+12], dl
  000f1	8a 50 0d	 mov	 dl, BYTE PTR [eax+13]
  000f4	84 d2		 test	 dl, dl
  000f6	0f 84 96 00 00
	00		 je	 $LN83@LoadInt_e
  000fc	80 f2 ec	 xor	 dl, -20			; ffffffecH
  000ff	88 55 f1	 mov	 BYTE PTR __k$[ebp+13], dl
  00102	8a 50 0e	 mov	 dl, BYTE PTR [eax+14]
  00105	84 d2		 test	 dl, dl
  00107	0f 84 80 00 00
	00		 je	 $LN82@LoadInt_e
  0010d	32 d1		 xor	 dl, cl
  0010f	88 55 f2	 mov	 BYTE PTR __k$[ebp+14], dl
  00112	8a 50 0f	 mov	 dl, BYTE PTR [eax+15]
  00115	84 d2		 test	 dl, dl
  00117	74 6e		 je	 SHORT $LN81@LoadInt_e
  00119	80 f2 ea	 xor	 dl, -22			; ffffffeaH
  0011c	88 55 f3	 mov	 BYTE PTR __k$[ebp+15], dl
  0011f	8a 50 10	 mov	 dl, BYTE PTR [eax+16]
  00122	84 d2		 test	 dl, dl
  00124	74 5b		 je	 SHORT $LN80@LoadInt_e
  00126	80 f2 ed	 xor	 dl, -19			; ffffffedH
  00129	80 78 11 00	 cmp	 BYTE PTR [eax+17], 0
  0012d	88 55 f4	 mov	 BYTE PTR __k$[ebp+16], dl
  00130	0f 84 ac 00 00
	00		 je	 $LN1@LoadInt_e
  00136	8a 50 12	 mov	 dl, BYTE PTR [eax+18]
  00139	84 d2		 test	 dl, dl
  0013b	74 3f		 je	 SHORT $LN78@LoadInt_e
  0013d	32 d1		 xor	 dl, cl
  0013f	88 55 f6	 mov	 BYTE PTR __k$[ebp+18], dl
  00142	8a 50 13	 mov	 dl, BYTE PTR [eax+19]
  00145	84 d2		 test	 dl, dl
  00147	74 2d		 je	 SHORT $LN77@LoadInt_e
  00149	80 f2 ea	 xor	 dl, -22			; ffffffeaH
  0014c	88 55 f7	 mov	 BYTE PTR __k$[ebp+19], dl
  0014f	8a 50 14	 mov	 dl, BYTE PTR [eax+20]
  00152	84 d2		 test	 dl, dl
  00154	74 1a		 je	 SHORT $LN76@LoadInt_e
  00156	8a 40 15	 mov	 al, BYTE PTR [eax+21]
  00159	80 f2 ed	 xor	 dl, -19			; ffffffedH
  0015c	88 55 f8	 mov	 BYTE PTR __k$[ebp+20], dl
  0015f	84 c0		 test	 al, al
  00161	74 07		 je	 SHORT $LN75@LoadInt_e
  00163	34 ec		 xor	 al, -20			; ffffffecH
  00165	88 45 f9	 mov	 BYTE PTR __k$[ebp+21], al
  00168	eb 78		 jmp	 SHORT $LN1@LoadInt_e
$LN75@LoadInt_e:
  0016a	c6 45 f9 ec	 mov	 BYTE PTR __k$[ebp+21], -20 ; ffffffecH
  0016e	eb 72		 jmp	 SHORT $LN1@LoadInt_e
$LN76@LoadInt_e:
  00170	c6 45 f8 ed	 mov	 BYTE PTR __k$[ebp+20], -19 ; ffffffedH
  00174	eb 6c		 jmp	 SHORT $LN1@LoadInt_e
$LN77@LoadInt_e:
  00176	c6 45 f7 ea	 mov	 BYTE PTR __k$[ebp+19], -22 ; ffffffeaH
  0017a	eb 66		 jmp	 SHORT $LN1@LoadInt_e
$LN78@LoadInt_e:
  0017c	88 4d f6	 mov	 BYTE PTR __k$[ebp+18], cl
  0017f	eb 61		 jmp	 SHORT $LN1@LoadInt_e
$LN80@LoadInt_e:
  00181	c6 45 f4 ed	 mov	 BYTE PTR __k$[ebp+16], -19 ; ffffffedH
  00185	eb 5b		 jmp	 SHORT $LN1@LoadInt_e
$LN81@LoadInt_e:
  00187	c6 45 f3 ea	 mov	 BYTE PTR __k$[ebp+15], -22 ; ffffffeaH
  0018b	eb 55		 jmp	 SHORT $LN1@LoadInt_e
$LN82@LoadInt_e:
  0018d	88 4d f2	 mov	 BYTE PTR __k$[ebp+14], cl
  00190	eb 50		 jmp	 SHORT $LN1@LoadInt_e
$LN83@LoadInt_e:
  00192	c6 45 f1 ec	 mov	 BYTE PTR __k$[ebp+13], -20 ; ffffffecH
  00196	eb 4a		 jmp	 SHORT $LN1@LoadInt_e
$LN84@LoadInt_e:
  00198	c6 45 f0 ed	 mov	 BYTE PTR __k$[ebp+12], -19 ; ffffffedH
  0019c	eb 44		 jmp	 SHORT $LN1@LoadInt_e
$LN85@LoadInt_e:
  0019e	c6 45 ef ea	 mov	 BYTE PTR __k$[ebp+11], -22 ; ffffffeaH
  001a2	eb 3e		 jmp	 SHORT $LN1@LoadInt_e
$LN86@LoadInt_e:
  001a4	88 4d ee	 mov	 BYTE PTR __k$[ebp+10], cl
  001a7	eb 39		 jmp	 SHORT $LN1@LoadInt_e
$LN87@LoadInt_e:
  001a9	c6 45 ed ec	 mov	 BYTE PTR __k$[ebp+9], -20 ; ffffffecH
  001ad	eb 33		 jmp	 SHORT $LN1@LoadInt_e
$LN88@LoadInt_e:
  001af	c6 45 ec ed	 mov	 BYTE PTR __k$[ebp+8], -19 ; ffffffedH
  001b3	eb 2d		 jmp	 SHORT $LN1@LoadInt_e
$LN89@LoadInt_e:
  001b5	c6 45 eb ea	 mov	 BYTE PTR __k$[ebp+7], -22 ; ffffffeaH
  001b9	eb 27		 jmp	 SHORT $LN1@LoadInt_e
$LN90@LoadInt_e:
  001bb	88 4d ea	 mov	 BYTE PTR __k$[ebp+6], cl
  001be	eb 22		 jmp	 SHORT $LN1@LoadInt_e
$LN91@LoadInt_e:
  001c0	c6 45 e9 ec	 mov	 BYTE PTR __k$[ebp+5], -20 ; ffffffecH
  001c4	eb 1c		 jmp	 SHORT $LN1@LoadInt_e
$LN92@LoadInt_e:
  001c6	c6 45 e8 ed	 mov	 BYTE PTR __k$[ebp+4], -19 ; ffffffedH
  001ca	eb 16		 jmp	 SHORT $LN1@LoadInt_e
$LN93@LoadInt_e:
  001cc	c6 45 e7 ea	 mov	 BYTE PTR __k$[ebp+3], -22 ; ffffffeaH
  001d0	eb 10		 jmp	 SHORT $LN1@LoadInt_e
$LN94@LoadInt_e:
  001d2	c6 45 e6 eb	 mov	 BYTE PTR __k$[ebp+2], -21 ; ffffffebH
  001d6	eb 0a		 jmp	 SHORT $LN1@LoadInt_e
$LN95@LoadInt_e:
  001d8	c6 45 e5 ec	 mov	 BYTE PTR __k$[ebp+1], -20 ; ffffffecH
  001dc	eb 04		 jmp	 SHORT $LN1@LoadInt_e
$LN96@LoadInt_e:
  001de	c6 45 e4 ed	 mov	 BYTE PTR __k$[ebp], -19	; ffffffedH
$LN1@LoadInt_e:
  001e2	6a 04		 push	 4
  001e4	8d 45 e4	 lea	 eax, DWORD PTR __k$[ebp]
  001e7	c6 45 f5 00	 mov	 BYTE PTR __k$[ebp+17], 0
  001eb	5a		 pop	 edx
$LL104@LoadInt_e:
  001ec	81 30 ed ec eb
	ea		 xor	 DWORD PTR [eax], -353637139 ; eaebecedH
  001f2	83 c0 04	 add	 eax, 4
  001f5	4a		 dec	 edx
  001f6	75 f4		 jne	 SHORT $LL104@LoadInt_e

; 120  : 		return LoadInt(_k, i);

  001f8	ff 75 0c	 push	 DWORD PTR _i$[ebp]
  001fb	80 75 f4 ed	 xor	 BYTE PTR __k$[ebp+16], -19 ; ffffffedH
  001ff	8d 45 e4	 lea	 eax, DWORD PTR __k$[ebp]
  00202	50		 push	 eax
  00203	8b ce		 mov	 ecx, esi
  00205	ff 15 00 00 00
	00		 call	 DWORD PTR __imp_?LoadInt@ioINILoader@@QAEHPBDH@Z

; 121  : 	}

  0020b	8b 4d fc	 mov	 ecx, DWORD PTR __$ArrayPad$[ebp]
  0020e	33 cd		 xor	 ecx, ebp
  00210	5e		 pop	 esi
  00211	e8 00 00 00 00	 call	 @__security_check_cookie@4
  00216	c9		 leave
  00217	c2 08 00	 ret	 8
??$LoadInt_e@$0BC@@ioINILoader@@QAEHAAY0BC@$$CBDH@Z ENDP ; ioINILoader::LoadInt_e<18>
_TEXT	ENDS
PUBLIC	_this$GSCopy$
PUBLIC	__$ArrayPad$
PUBLIC	??$LoadString_e@$0BG@@ioINILoader@@QAEXAAY0BG@$$CBDAAY00$$CBDPADH@Z ; ioINILoader::LoadString_e<22>
; Function compile flags: /Ogsp
;	COMDAT ??$LoadString_e@$0BG@@ioINILoader@@QAEXAAY0BG@$$CBDAAY00$$CBDPADH@Z
_TEXT	SEGMENT
_this$GSCopy$ = -36					; size = 4
__k$ = -32						; size = 22
__$ArrayPad$ = -4					; size = 4
_k$ = 8							; size = 4
_d$ = 12						; size = 4
_b$ = 16						; size = 4
_i$ = 20						; size = 4
??$LoadString_e@$0BG@@ioINILoader@@QAEXAAY0BG@$$CBDAAY00$$CBDPADH@Z PROC ; ioINILoader::LoadString_e<22>, COMDAT
; _this$ = ecx

; 161  : 	{

  00000	55		 push	 ebp
  00001	8b ec		 mov	 ebp, esp
  00003	83 ec 24	 sub	 esp, 36			; 00000024H
  00006	a1 00 00 00 00	 mov	 eax, DWORD PTR ___security_cookie
  0000b	33 c5		 xor	 eax, ebp
  0000d	89 45 fc	 mov	 DWORD PTR __$ArrayPad$[ebp], eax
  00010	8b 45 08	 mov	 eax, DWORD PTR _k$[ebp]

; 162  : 		_ENCSTR(k, _k);

  00013	8a 10		 mov	 dl, BYTE PTR [eax]
  00015	53		 push	 ebx
  00016	56		 push	 esi
  00017	8b 75 0c	 mov	 esi, DWORD PTR _d$[ebp]
  0001a	57		 push	 edi
  0001b	8b 7d 10	 mov	 edi, DWORD PTR _b$[ebp]
  0001e	89 4d dc	 mov	 DWORD PTR _this$GSCopy$[ebp], ecx
  00021	84 d2		 test	 dl, dl
  00023	0f 84 15 02 00
	00		 je	 $LN96@LoadString@6
  00029	80 f2 ed	 xor	 dl, -19			; ffffffedH
  0002c	88 55 e0	 mov	 BYTE PTR __k$[ebp], dl
  0002f	8a 50 01	 mov	 dl, BYTE PTR [eax+1]
  00032	84 d2		 test	 dl, dl
  00034	0f 84 fe 01 00
	00		 je	 $LN95@LoadString@6
  0003a	80 f2 ec	 xor	 dl, -20			; ffffffecH
  0003d	88 55 e1	 mov	 BYTE PTR __k$[ebp+1], dl
  00040	8a 50 02	 mov	 dl, BYTE PTR [eax+2]
  00043	84 d2		 test	 dl, dl
  00045	0f 84 e7 01 00
	00		 je	 $LN94@LoadString@6
  0004b	b1 eb		 mov	 cl, -21			; ffffffebH
  0004d	32 d1		 xor	 dl, cl
  0004f	88 55 e2	 mov	 BYTE PTR __k$[ebp+2], dl
  00052	8a 50 03	 mov	 dl, BYTE PTR [eax+3]
  00055	84 d2		 test	 dl, dl
  00057	0f 84 cf 01 00
	00		 je	 $LN93@LoadString@6
  0005d	b3 ea		 mov	 bl, -22			; ffffffeaH
  0005f	32 d3		 xor	 dl, bl
  00061	88 55 e3	 mov	 BYTE PTR __k$[ebp+3], dl
  00064	8a 50 04	 mov	 dl, BYTE PTR [eax+4]
  00067	84 d2		 test	 dl, dl
  00069	0f 84 b7 01 00
	00		 je	 $LN92@LoadString@6
  0006f	80 f2 ed	 xor	 dl, -19			; ffffffedH
  00072	88 55 e4	 mov	 BYTE PTR __k$[ebp+4], dl
  00075	8a 50 05	 mov	 dl, BYTE PTR [eax+5]
  00078	84 d2		 test	 dl, dl
  0007a	0f 84 a0 01 00
	00		 je	 $LN91@LoadString@6
  00080	80 f2 ec	 xor	 dl, -20			; ffffffecH
  00083	88 55 e5	 mov	 BYTE PTR __k$[ebp+5], dl
  00086	8a 50 06	 mov	 dl, BYTE PTR [eax+6]
  00089	84 d2		 test	 dl, dl
  0008b	0f 84 8a 01 00
	00		 je	 $LN90@LoadString@6
  00091	32 d1		 xor	 dl, cl
  00093	88 55 e6	 mov	 BYTE PTR __k$[ebp+6], dl
  00096	8a 50 07	 mov	 dl, BYTE PTR [eax+7]
  00099	84 d2		 test	 dl, dl
  0009b	0f 84 75 01 00
	00		 je	 $LN89@LoadString@6
  000a1	32 d3		 xor	 dl, bl
  000a3	88 55 e7	 mov	 BYTE PTR __k$[ebp+7], dl
  000a6	8a 50 08	 mov	 dl, BYTE PTR [eax+8]
  000a9	84 d2		 test	 dl, dl
  000ab	0f 84 5f 01 00
	00		 je	 $LN88@LoadString@6
  000b1	80 f2 ed	 xor	 dl, -19			; ffffffedH
  000b4	88 55 e8	 mov	 BYTE PTR __k$[ebp+8], dl
  000b7	8a 50 09	 mov	 dl, BYTE PTR [eax+9]
  000ba	84 d2		 test	 dl, dl
  000bc	0f 84 48 01 00
	00		 je	 $LN87@LoadString@6
  000c2	80 f2 ec	 xor	 dl, -20			; ffffffecH
  000c5	88 55 e9	 mov	 BYTE PTR __k$[ebp+9], dl
  000c8	8a 50 0a	 mov	 dl, BYTE PTR [eax+10]
  000cb	84 d2		 test	 dl, dl
  000cd	0f 84 32 01 00
	00		 je	 $LN86@LoadString@6
  000d3	32 d1		 xor	 dl, cl
  000d5	88 55 ea	 mov	 BYTE PTR __k$[ebp+10], dl
  000d8	8a 50 0b	 mov	 dl, BYTE PTR [eax+11]
  000db	84 d2		 test	 dl, dl
  000dd	0f 84 1d 01 00
	00		 je	 $LN85@LoadString@6
  000e3	32 d3		 xor	 dl, bl
  000e5	88 55 eb	 mov	 BYTE PTR __k$[ebp+11], dl
  000e8	8a 50 0c	 mov	 dl, BYTE PTR [eax+12]
  000eb	84 d2		 test	 dl, dl
  000ed	0f 84 07 01 00
	00		 je	 $LN84@LoadString@6
  000f3	80 f2 ed	 xor	 dl, -19			; ffffffedH
  000f6	88 55 ec	 mov	 BYTE PTR __k$[ebp+12], dl
  000f9	8a 50 0d	 mov	 dl, BYTE PTR [eax+13]
  000fc	84 d2		 test	 dl, dl
  000fe	0f 84 f0 00 00
	00		 je	 $LN83@LoadString@6
  00104	80 f2 ec	 xor	 dl, -20			; ffffffecH
  00107	88 55 ed	 mov	 BYTE PTR __k$[ebp+13], dl
  0010a	8a 50 0e	 mov	 dl, BYTE PTR [eax+14]
  0010d	84 d2		 test	 dl, dl
  0010f	0f 84 da 00 00
	00		 je	 $LN82@LoadString@6
  00115	32 d1		 xor	 dl, cl
  00117	88 55 ee	 mov	 BYTE PTR __k$[ebp+14], dl
  0011a	8a 50 0f	 mov	 dl, BYTE PTR [eax+15]
  0011d	84 d2		 test	 dl, dl
  0011f	0f 84 c5 00 00
	00		 je	 $LN81@LoadString@6
  00125	32 d3		 xor	 dl, bl
  00127	88 55 ef	 mov	 BYTE PTR __k$[ebp+15], dl
  0012a	8a 50 10	 mov	 dl, BYTE PTR [eax+16]
  0012d	84 d2		 test	 dl, dl
  0012f	0f 84 af 00 00
	00		 je	 $LN80@LoadString@6
  00135	80 f2 ed	 xor	 dl, -19			; ffffffedH
  00138	88 55 f0	 mov	 BYTE PTR __k$[ebp+16], dl
  0013b	8a 50 11	 mov	 dl, BYTE PTR [eax+17]
  0013e	84 d2		 test	 dl, dl
  00140	0f 84 98 00 00
	00		 je	 $LN79@LoadString@6
  00146	80 f2 ec	 xor	 dl, -20			; ffffffecH
  00149	88 55 f1	 mov	 BYTE PTR __k$[ebp+17], dl
  0014c	8a 50 12	 mov	 dl, BYTE PTR [eax+18]
  0014f	84 d2		 test	 dl, dl
  00151	0f 84 82 00 00
	00		 je	 $LN78@LoadString@6
  00157	32 d1		 xor	 dl, cl
  00159	88 55 f2	 mov	 BYTE PTR __k$[ebp+18], dl
  0015c	8a 50 13	 mov	 dl, BYTE PTR [eax+19]
  0015f	84 d2		 test	 dl, dl
  00161	74 71		 je	 SHORT $LN77@LoadString@6
  00163	32 d3		 xor	 dl, bl
  00165	88 55 f3	 mov	 BYTE PTR __k$[ebp+19], dl
  00168	8a 50 14	 mov	 dl, BYTE PTR [eax+20]
  0016b	84 d2		 test	 dl, dl
  0016d	74 5f		 je	 SHORT $LN76@LoadString@6
  0016f	80 f2 ed	 xor	 dl, -19			; ffffffedH
  00172	80 78 15 00	 cmp	 BYTE PTR [eax+21], 0
  00176	88 55 f4	 mov	 BYTE PTR __k$[ebp+20], dl
  00179	0f 84 c3 00 00
	00		 je	 $LN111@LoadString@6
  0017f	8a 50 16	 mov	 dl, BYTE PTR [eax+22]
  00182	84 d2		 test	 dl, dl
  00184	74 43		 je	 SHORT $LN74@LoadString@6
  00186	32 d1		 xor	 dl, cl
  00188	88 55 f6	 mov	 BYTE PTR __k$[ebp+22], dl
  0018b	8a 50 17	 mov	 dl, BYTE PTR [eax+23]
  0018e	84 d2		 test	 dl, dl
  00190	74 32		 je	 SHORT $LN73@LoadString@6
  00192	32 d3		 xor	 dl, bl
  00194	88 55 f7	 mov	 BYTE PTR __k$[ebp+23], dl
  00197	8a 50 18	 mov	 dl, BYTE PTR [eax+24]
  0019a	84 d2		 test	 dl, dl
  0019c	74 20		 je	 SHORT $LN72@LoadString@6
  0019e	8a 40 19	 mov	 al, BYTE PTR [eax+25]
  001a1	80 f2 ed	 xor	 dl, -19			; ffffffedH
  001a4	88 55 f8	 mov	 BYTE PTR __k$[ebp+24], dl
  001a7	84 c0		 test	 al, al
  001a9	74 0a		 je	 SHORT $LN71@LoadString@6
  001ab	34 ec		 xor	 al, -20			; ffffffecH
  001ad	88 45 f9	 mov	 BYTE PTR __k$[ebp+25], al
  001b0	e9 8d 00 00 00	 jmp	 $LN111@LoadString@6
$LN71@LoadString@6:
  001b5	c6 45 f9 ec	 mov	 BYTE PTR __k$[ebp+25], -20 ; ffffffecH
  001b9	e9 84 00 00 00	 jmp	 $LN111@LoadString@6
$LN72@LoadString@6:
  001be	c6 45 f8 ed	 mov	 BYTE PTR __k$[ebp+24], -19 ; ffffffedH
  001c2	eb 7e		 jmp	 SHORT $LN111@LoadString@6
$LN73@LoadString@6:
  001c4	88 5d f7	 mov	 BYTE PTR __k$[ebp+23], bl
  001c7	eb 79		 jmp	 SHORT $LN111@LoadString@6
$LN74@LoadString@6:
  001c9	88 4d f6	 mov	 BYTE PTR __k$[ebp+22], cl
  001cc	eb 74		 jmp	 SHORT $LN111@LoadString@6
$LN76@LoadString@6:
  001ce	c6 45 f4 ed	 mov	 BYTE PTR __k$[ebp+20], -19 ; ffffffedH
  001d2	eb 6e		 jmp	 SHORT $LN111@LoadString@6
$LN77@LoadString@6:
  001d4	88 5d f3	 mov	 BYTE PTR __k$[ebp+19], bl
  001d7	eb 69		 jmp	 SHORT $LN111@LoadString@6
$LN78@LoadString@6:
  001d9	88 4d f2	 mov	 BYTE PTR __k$[ebp+18], cl
  001dc	eb 64		 jmp	 SHORT $LN111@LoadString@6
$LN79@LoadString@6:
  001de	c6 45 f1 ec	 mov	 BYTE PTR __k$[ebp+17], -20 ; ffffffecH
  001e2	eb 5e		 jmp	 SHORT $LN111@LoadString@6
$LN80@LoadString@6:
  001e4	c6 45 f0 ed	 mov	 BYTE PTR __k$[ebp+16], -19 ; ffffffedH
  001e8	eb 58		 jmp	 SHORT $LN111@LoadString@6
$LN81@LoadString@6:
  001ea	88 5d ef	 mov	 BYTE PTR __k$[ebp+15], bl
  001ed	eb 53		 jmp	 SHORT $LN111@LoadString@6
$LN82@LoadString@6:
  001ef	88 4d ee	 mov	 BYTE PTR __k$[ebp+14], cl
  001f2	eb 4e		 jmp	 SHORT $LN111@LoadString@6
$LN83@LoadString@6:
  001f4	c6 45 ed ec	 mov	 BYTE PTR __k$[ebp+13], -20 ; ffffffecH
  001f8	eb 48		 jmp	 SHORT $LN111@LoadString@6
$LN84@LoadString@6:
  001fa	c6 45 ec ed	 mov	 BYTE PTR __k$[ebp+12], -19 ; ffffffedH
  001fe	eb 42		 jmp	 SHORT $LN111@LoadString@6
$LN85@LoadString@6:
  00200	88 5d eb	 mov	 BYTE PTR __k$[ebp+11], bl
  00203	eb 3d		 jmp	 SHORT $LN111@LoadString@6
$LN86@LoadString@6:
  00205	88 4d ea	 mov	 BYTE PTR __k$[ebp+10], cl
  00208	eb 38		 jmp	 SHORT $LN111@LoadString@6
$LN87@LoadString@6:
  0020a	c6 45 e9 ec	 mov	 BYTE PTR __k$[ebp+9], -20 ; ffffffecH
  0020e	eb 32		 jmp	 SHORT $LN111@LoadString@6
$LN88@LoadString@6:
  00210	c6 45 e8 ed	 mov	 BYTE PTR __k$[ebp+8], -19 ; ffffffedH
  00214	eb 2c		 jmp	 SHORT $LN111@LoadString@6
$LN89@LoadString@6:
  00216	88 5d e7	 mov	 BYTE PTR __k$[ebp+7], bl
  00219	eb 27		 jmp	 SHORT $LN111@LoadString@6
$LN90@LoadString@6:
  0021b	88 4d e6	 mov	 BYTE PTR __k$[ebp+6], cl
  0021e	eb 22		 jmp	 SHORT $LN111@LoadString@6
$LN91@LoadString@6:
  00220	c6 45 e5 ec	 mov	 BYTE PTR __k$[ebp+5], -20 ; ffffffecH
  00224	eb 1c		 jmp	 SHORT $LN111@LoadString@6
$LN92@LoadString@6:
  00226	c6 45 e4 ed	 mov	 BYTE PTR __k$[ebp+4], -19 ; ffffffedH
  0022a	eb 16		 jmp	 SHORT $LN111@LoadString@6
$LN93@LoadString@6:
  0022c	c6 45 e3 ea	 mov	 BYTE PTR __k$[ebp+3], -22 ; ffffffeaH
  00230	eb 10		 jmp	 SHORT $LN111@LoadString@6
$LN94@LoadString@6:
  00232	c6 45 e2 eb	 mov	 BYTE PTR __k$[ebp+2], -21 ; ffffffebH
  00236	eb 0a		 jmp	 SHORT $LN111@LoadString@6
$LN95@LoadString@6:
  00238	c6 45 e1 ec	 mov	 BYTE PTR __k$[ebp+1], -20 ; ffffffecH
  0023c	eb 04		 jmp	 SHORT $LN111@LoadString@6
$LN96@LoadString@6:
  0023e	c6 45 e0 ed	 mov	 BYTE PTR __k$[ebp], -19	; ffffffedH
$LN111@LoadString@6:
  00242	6a 05		 push	 5
  00244	8d 45 e0	 lea	 eax, DWORD PTR __k$[ebp]
  00247	c6 45 f5 00	 mov	 BYTE PTR __k$[ebp+21], 0
  0024b	5a		 pop	 edx
$LL104@LoadString@6:
  0024c	81 30 ed ec eb
	ea		 xor	 DWORD PTR [eax], -353637139 ; eaebecedH
  00252	83 c0 04	 add	 eax, 4
  00255	4a		 dec	 edx
  00256	75 f4		 jne	 SHORT $LL104@LoadString@6

; 163  : 		LoadString(_k, d, b, i);

  00258	ff 75 14	 push	 DWORD PTR _i$[ebp]
  0025b	8b 4d dc	 mov	 ecx, DWORD PTR _this$GSCopy$[ebp]
  0025e	80 75 f4 ed	 xor	 BYTE PTR __k$[ebp+20], -19 ; ffffffedH
  00262	57		 push	 edi
  00263	56		 push	 esi
  00264	8d 45 e0	 lea	 eax, DWORD PTR __k$[ebp]
  00267	50		 push	 eax
  00268	ff 15 00 00 00
	00		 call	 DWORD PTR __imp_?LoadStringA@ioINILoader@@QAEXPBD0PADH@Z

; 164  : 	}

  0026e	8b 4d fc	 mov	 ecx, DWORD PTR __$ArrayPad$[ebp]
  00271	5f		 pop	 edi
  00272	5e		 pop	 esi
  00273	33 cd		 xor	 ecx, ebp
  00275	5b		 pop	 ebx
  00276	e8 00 00 00 00	 call	 @__security_check_cookie@4
  0027b	c9		 leave
  0027c	c2 10 00	 ret	 16			; 00000010H
??$LoadString_e@$0BG@@ioINILoader@@QAEXAAY0BG@$$CBDAAY00$$CBDPADH@Z ENDP ; ioINILoader::LoadString_e<22>
_TEXT	ENDS
PUBLIC	_this$GSCopy$
PUBLIC	__$ArrayPad$
PUBLIC	??$LoadString_e@$0BC@@ioINILoader@@QAEXAAY0BC@$$CBDAAY00$$CBDPADH@Z ; ioINILoader::LoadString_e<18>
; Function compile flags: /Ogsp
;	COMDAT ??$LoadString_e@$0BC@@ioINILoader@@QAEXAAY0BC@$$CBDAAY00$$CBDPADH@Z
_TEXT	SEGMENT
_this$GSCopy$ = -32					; size = 4
__k$ = -28						; size = 18
__$ArrayPad$ = -4					; size = 4
_k$ = 8							; size = 4
_d$ = 12						; size = 4
_b$ = 16						; size = 4
_i$ = 20						; size = 4
??$LoadString_e@$0BC@@ioINILoader@@QAEXAAY0BC@$$CBDAAY00$$CBDPADH@Z PROC ; ioINILoader::LoadString_e<18>, COMDAT
; _this$ = ecx

; 161  : 	{

  00000	55		 push	 ebp
  00001	8b ec		 mov	 ebp, esp
  00003	83 ec 20	 sub	 esp, 32			; 00000020H
  00006	a1 00 00 00 00	 mov	 eax, DWORD PTR ___security_cookie
  0000b	33 c5		 xor	 eax, ebp
  0000d	89 45 fc	 mov	 DWORD PTR __$ArrayPad$[ebp], eax
  00010	8b 45 08	 mov	 eax, DWORD PTR _k$[ebp]

; 162  : 		_ENCSTR(k, _k);

  00013	8a 10		 mov	 dl, BYTE PTR [eax]
  00015	56		 push	 esi
  00016	8b 75 0c	 mov	 esi, DWORD PTR _d$[ebp]
  00019	57		 push	 edi
  0001a	8b 7d 10	 mov	 edi, DWORD PTR _b$[ebp]
  0001d	89 4d e0	 mov	 DWORD PTR _this$GSCopy$[ebp], ecx
  00020	84 d2		 test	 dl, dl
  00022	0f 84 be 01 00
	00		 je	 $LN96@LoadString@7
  00028	80 f2 ed	 xor	 dl, -19			; ffffffedH
  0002b	88 55 e4	 mov	 BYTE PTR __k$[ebp], dl
  0002e	8a 50 01	 mov	 dl, BYTE PTR [eax+1]
  00031	84 d2		 test	 dl, dl
  00033	0f 84 a7 01 00
	00		 je	 $LN95@LoadString@7
  00039	80 f2 ec	 xor	 dl, -20			; ffffffecH
  0003c	88 55 e5	 mov	 BYTE PTR __k$[ebp+1], dl
  0003f	8a 50 02	 mov	 dl, BYTE PTR [eax+2]
  00042	84 d2		 test	 dl, dl
  00044	0f 84 90 01 00
	00		 je	 $LN94@LoadString@7
  0004a	b1 eb		 mov	 cl, -21			; ffffffebH
  0004c	32 d1		 xor	 dl, cl
  0004e	88 55 e6	 mov	 BYTE PTR __k$[ebp+2], dl
  00051	8a 50 03	 mov	 dl, BYTE PTR [eax+3]
  00054	84 d2		 test	 dl, dl
  00056	0f 84 78 01 00
	00		 je	 $LN93@LoadString@7
  0005c	80 f2 ea	 xor	 dl, -22			; ffffffeaH
  0005f	88 55 e7	 mov	 BYTE PTR __k$[ebp+3], dl
  00062	8a 50 04	 mov	 dl, BYTE PTR [eax+4]
  00065	84 d2		 test	 dl, dl
  00067	0f 84 61 01 00
	00		 je	 $LN92@LoadString@7
  0006d	80 f2 ed	 xor	 dl, -19			; ffffffedH
  00070	88 55 e8	 mov	 BYTE PTR __k$[ebp+4], dl
  00073	8a 50 05	 mov	 dl, BYTE PTR [eax+5]
  00076	84 d2		 test	 dl, dl
  00078	0f 84 4a 01 00
	00		 je	 $LN91@LoadString@7
  0007e	80 f2 ec	 xor	 dl, -20			; ffffffecH
  00081	88 55 e9	 mov	 BYTE PTR __k$[ebp+5], dl
  00084	8a 50 06	 mov	 dl, BYTE PTR [eax+6]
  00087	84 d2		 test	 dl, dl
  00089	0f 84 34 01 00
	00		 je	 $LN90@LoadString@7
  0008f	32 d1		 xor	 dl, cl
  00091	88 55 ea	 mov	 BYTE PTR __k$[ebp+6], dl
  00094	8a 50 07	 mov	 dl, BYTE PTR [eax+7]
  00097	84 d2		 test	 dl, dl
  00099	0f 84 1e 01 00
	00		 je	 $LN89@LoadString@7
  0009f	80 f2 ea	 xor	 dl, -22			; ffffffeaH
  000a2	88 55 eb	 mov	 BYTE PTR __k$[ebp+7], dl
  000a5	8a 50 08	 mov	 dl, BYTE PTR [eax+8]
  000a8	84 d2		 test	 dl, dl
  000aa	0f 84 07 01 00
	00		 je	 $LN88@LoadString@7
  000b0	80 f2 ed	 xor	 dl, -19			; ffffffedH
  000b3	88 55 ec	 mov	 BYTE PTR __k$[ebp+8], dl
  000b6	8a 50 09	 mov	 dl, BYTE PTR [eax+9]
  000b9	84 d2		 test	 dl, dl
  000bb	0f 84 f0 00 00
	00		 je	 $LN87@LoadString@7
  000c1	80 f2 ec	 xor	 dl, -20			; ffffffecH
  000c4	88 55 ed	 mov	 BYTE PTR __k$[ebp+9], dl
  000c7	8a 50 0a	 mov	 dl, BYTE PTR [eax+10]
  000ca	84 d2		 test	 dl, dl
  000cc	0f 84 da 00 00
	00		 je	 $LN86@LoadString@7
  000d2	32 d1		 xor	 dl, cl
  000d4	88 55 ee	 mov	 BYTE PTR __k$[ebp+10], dl
  000d7	8a 50 0b	 mov	 dl, BYTE PTR [eax+11]
  000da	84 d2		 test	 dl, dl
  000dc	0f 84 c4 00 00
	00		 je	 $LN85@LoadString@7
  000e2	80 f2 ea	 xor	 dl, -22			; ffffffeaH
  000e5	88 55 ef	 mov	 BYTE PTR __k$[ebp+11], dl
  000e8	8a 50 0c	 mov	 dl, BYTE PTR [eax+12]
  000eb	84 d2		 test	 dl, dl
  000ed	0f 84 ad 00 00
	00		 je	 $LN84@LoadString@7
  000f3	80 f2 ed	 xor	 dl, -19			; ffffffedH
  000f6	88 55 f0	 mov	 BYTE PTR __k$[ebp+12], dl
  000f9	8a 50 0d	 mov	 dl, BYTE PTR [eax+13]
  000fc	84 d2		 test	 dl, dl
  000fe	0f 84 96 00 00
	00		 je	 $LN83@LoadString@7
  00104	80 f2 ec	 xor	 dl, -20			; ffffffecH
  00107	88 55 f1	 mov	 BYTE PTR __k$[ebp+13], dl
  0010a	8a 50 0e	 mov	 dl, BYTE PTR [eax+14]
  0010d	84 d2		 test	 dl, dl
  0010f	0f 84 80 00 00
	00		 je	 $LN82@LoadString@7
  00115	32 d1		 xor	 dl, cl
  00117	88 55 f2	 mov	 BYTE PTR __k$[ebp+14], dl
  0011a	8a 50 0f	 mov	 dl, BYTE PTR [eax+15]
  0011d	84 d2		 test	 dl, dl
  0011f	74 6e		 je	 SHORT $LN81@LoadString@7
  00121	80 f2 ea	 xor	 dl, -22			; ffffffeaH
  00124	88 55 f3	 mov	 BYTE PTR __k$[ebp+15], dl
  00127	8a 50 10	 mov	 dl, BYTE PTR [eax+16]
  0012a	84 d2		 test	 dl, dl
  0012c	74 5b		 je	 SHORT $LN80@LoadString@7
  0012e	80 f2 ed	 xor	 dl, -19			; ffffffedH
  00131	80 78 11 00	 cmp	 BYTE PTR [eax+17], 0
  00135	88 55 f4	 mov	 BYTE PTR __k$[ebp+16], dl
  00138	0f 84 ac 00 00
	00		 je	 $LN111@LoadString@7
  0013e	8a 50 12	 mov	 dl, BYTE PTR [eax+18]
  00141	84 d2		 test	 dl, dl
  00143	74 3f		 je	 SHORT $LN78@LoadString@7
  00145	32 d1		 xor	 dl, cl
  00147	88 55 f6	 mov	 BYTE PTR __k$[ebp+18], dl
  0014a	8a 50 13	 mov	 dl, BYTE PTR [eax+19]
  0014d	84 d2		 test	 dl, dl
  0014f	74 2d		 je	 SHORT $LN77@LoadString@7
  00151	80 f2 ea	 xor	 dl, -22			; ffffffeaH
  00154	88 55 f7	 mov	 BYTE PTR __k$[ebp+19], dl
  00157	8a 50 14	 mov	 dl, BYTE PTR [eax+20]
  0015a	84 d2		 test	 dl, dl
  0015c	74 1a		 je	 SHORT $LN76@LoadString@7
  0015e	8a 40 15	 mov	 al, BYTE PTR [eax+21]
  00161	80 f2 ed	 xor	 dl, -19			; ffffffedH
  00164	88 55 f8	 mov	 BYTE PTR __k$[ebp+20], dl
  00167	84 c0		 test	 al, al
  00169	74 07		 je	 SHORT $LN75@LoadString@7
  0016b	34 ec		 xor	 al, -20			; ffffffecH
  0016d	88 45 f9	 mov	 BYTE PTR __k$[ebp+21], al
  00170	eb 78		 jmp	 SHORT $LN111@LoadString@7
$LN75@LoadString@7:
  00172	c6 45 f9 ec	 mov	 BYTE PTR __k$[ebp+21], -20 ; ffffffecH
  00176	eb 72		 jmp	 SHORT $LN111@LoadString@7
$LN76@LoadString@7:
  00178	c6 45 f8 ed	 mov	 BYTE PTR __k$[ebp+20], -19 ; ffffffedH
  0017c	eb 6c		 jmp	 SHORT $LN111@LoadString@7
$LN77@LoadString@7:
  0017e	c6 45 f7 ea	 mov	 BYTE PTR __k$[ebp+19], -22 ; ffffffeaH
  00182	eb 66		 jmp	 SHORT $LN111@LoadString@7
$LN78@LoadString@7:
  00184	88 4d f6	 mov	 BYTE PTR __k$[ebp+18], cl
  00187	eb 61		 jmp	 SHORT $LN111@LoadString@7
$LN80@LoadString@7:
  00189	c6 45 f4 ed	 mov	 BYTE PTR __k$[ebp+16], -19 ; ffffffedH
  0018d	eb 5b		 jmp	 SHORT $LN111@LoadString@7
$LN81@LoadString@7:
  0018f	c6 45 f3 ea	 mov	 BYTE PTR __k$[ebp+15], -22 ; ffffffeaH
  00193	eb 55		 jmp	 SHORT $LN111@LoadString@7
$LN82@LoadString@7:
  00195	88 4d f2	 mov	 BYTE PTR __k$[ebp+14], cl
  00198	eb 50		 jmp	 SHORT $LN111@LoadString@7
$LN83@LoadString@7:
  0019a	c6 45 f1 ec	 mov	 BYTE PTR __k$[ebp+13], -20 ; ffffffecH
  0019e	eb 4a		 jmp	 SHORT $LN111@LoadString@7
$LN84@LoadString@7:
  001a0	c6 45 f0 ed	 mov	 BYTE PTR __k$[ebp+12], -19 ; ffffffedH
  001a4	eb 44		 jmp	 SHORT $LN111@LoadString@7
$LN85@LoadString@7:
  001a6	c6 45 ef ea	 mov	 BYTE PTR __k$[ebp+11], -22 ; ffffffeaH
  001aa	eb 3e		 jmp	 SHORT $LN111@LoadString@7
$LN86@LoadString@7:
  001ac	88 4d ee	 mov	 BYTE PTR __k$[ebp+10], cl
  001af	eb 39		 jmp	 SHORT $LN111@LoadString@7
$LN87@LoadString@7:
  001b1	c6 45 ed ec	 mov	 BYTE PTR __k$[ebp+9], -20 ; ffffffecH
  001b5	eb 33		 jmp	 SHORT $LN111@LoadString@7
$LN88@LoadString@7:
  001b7	c6 45 ec ed	 mov	 BYTE PTR __k$[ebp+8], -19 ; ffffffedH
  001bb	eb 2d		 jmp	 SHORT $LN111@LoadString@7
$LN89@LoadString@7:
  001bd	c6 45 eb ea	 mov	 BYTE PTR __k$[ebp+7], -22 ; ffffffeaH
  001c1	eb 27		 jmp	 SHORT $LN111@LoadString@7
$LN90@LoadString@7:
  001c3	88 4d ea	 mov	 BYTE PTR __k$[ebp+6], cl
  001c6	eb 22		 jmp	 SHORT $LN111@LoadString@7
$LN91@LoadString@7:
  001c8	c6 45 e9 ec	 mov	 BYTE PTR __k$[ebp+5], -20 ; ffffffecH
  001cc	eb 1c		 jmp	 SHORT $LN111@LoadString@7
$LN92@LoadString@7:
  001ce	c6 45 e8 ed	 mov	 BYTE PTR __k$[ebp+4], -19 ; ffffffedH
  001d2	eb 16		 jmp	 SHORT $LN111@LoadString@7
$LN93@LoadString@7:
  001d4	c6 45 e7 ea	 mov	 BYTE PTR __k$[ebp+3], -22 ; ffffffeaH
  001d8	eb 10		 jmp	 SHORT $LN111@LoadString@7
$LN94@LoadString@7:
  001da	c6 45 e6 eb	 mov	 BYTE PTR __k$[ebp+2], -21 ; ffffffebH
  001de	eb 0a		 jmp	 SHORT $LN111@LoadString@7
$LN95@LoadString@7:
  001e0	c6 45 e5 ec	 mov	 BYTE PTR __k$[ebp+1], -20 ; ffffffecH
  001e4	eb 04		 jmp	 SHORT $LN111@LoadString@7
$LN96@LoadString@7:
  001e6	c6 45 e4 ed	 mov	 BYTE PTR __k$[ebp], -19	; ffffffedH
$LN111@LoadString@7:
  001ea	6a 04		 push	 4
  001ec	8d 45 e4	 lea	 eax, DWORD PTR __k$[ebp]
  001ef	c6 45 f5 00	 mov	 BYTE PTR __k$[ebp+17], 0
  001f3	5a		 pop	 edx
$LL104@LoadString@7:
  001f4	81 30 ed ec eb
	ea		 xor	 DWORD PTR [eax], -353637139 ; eaebecedH
  001fa	83 c0 04	 add	 eax, 4
  001fd	4a		 dec	 edx
  001fe	75 f4		 jne	 SHORT $LL104@LoadString@7

; 163  : 		LoadString(_k, d, b, i);

  00200	ff 75 14	 push	 DWORD PTR _i$[ebp]
  00203	8b 4d e0	 mov	 ecx, DWORD PTR _this$GSCopy$[ebp]
  00206	80 75 f4 ed	 xor	 BYTE PTR __k$[ebp+16], -19 ; ffffffedH
  0020a	57		 push	 edi
  0020b	56		 push	 esi
  0020c	8d 45 e4	 lea	 eax, DWORD PTR __k$[ebp]
  0020f	50		 push	 eax
  00210	ff 15 00 00 00
	00		 call	 DWORD PTR __imp_?LoadStringA@ioINILoader@@QAEXPBD0PADH@Z

; 164  : 	}

  00216	8b 4d fc	 mov	 ecx, DWORD PTR __$ArrayPad$[ebp]
  00219	5f		 pop	 edi
  0021a	33 cd		 xor	 ecx, ebp
  0021c	5e		 pop	 esi
  0021d	e8 00 00 00 00	 call	 @__security_check_cookie@4
  00222	c9		 leave
  00223	c2 10 00	 ret	 16			; 00000010H
??$LoadString_e@$0BC@@ioINILoader@@QAEXAAY0BC@$$CBDAAY00$$CBDPADH@Z ENDP ; ioINILoader::LoadString_e<18>
_TEXT	ENDS
PUBLIC	__$ArrayPad$
PUBLIC	??$LoadFloat_e@$0BH@@ioINILoader@@QAEMAAY0BH@$$CBDM@Z ; ioINILoader::LoadFloat_e<23>
; Function compile flags: /Ogsp
;	COMDAT ??$LoadFloat_e@$0BH@@ioINILoader@@QAEMAAY0BH@$$CBDM@Z
_TEXT	SEGMENT
__k$ = -32						; size = 23
__$ArrayPad$ = -4					; size = 4
_k$ = 8							; size = 4
_f$ = 12						; size = 4
??$LoadFloat_e@$0BH@@ioINILoader@@QAEMAAY0BH@$$CBDM@Z PROC ; ioINILoader::LoadFloat_e<23>, COMDAT
; _this$ = ecx

; 135  : 	{

  00000	55		 push	 ebp
  00001	8b ec		 mov	 ebp, esp
  00003	83 ec 20	 sub	 esp, 32			; 00000020H
  00006	a1 00 00 00 00	 mov	 eax, DWORD PTR ___security_cookie
  0000b	33 c5		 xor	 eax, ebp
  0000d	89 45 fc	 mov	 DWORD PTR __$ArrayPad$[ebp], eax
  00010	8b 45 08	 mov	 eax, DWORD PTR _k$[ebp]

; 136  : 		_ENCSTR(k, _k);

  00013	8a 10		 mov	 dl, BYTE PTR [eax]
  00015	53		 push	 ebx
  00016	56		 push	 esi
  00017	8b f1		 mov	 esi, ecx
  00019	84 d2		 test	 dl, dl
  0001b	0f 84 2d 02 00
	00		 je	 $LN96@LoadFloat_@5
  00021	80 f2 ed	 xor	 dl, -19			; ffffffedH
  00024	88 55 e0	 mov	 BYTE PTR __k$[ebp], dl
  00027	8a 50 01	 mov	 dl, BYTE PTR [eax+1]
  0002a	84 d2		 test	 dl, dl
  0002c	0f 84 16 02 00
	00		 je	 $LN95@LoadFloat_@5
  00032	b1 ec		 mov	 cl, -20			; ffffffecH
  00034	32 d1		 xor	 dl, cl
  00036	88 55 e1	 mov	 BYTE PTR __k$[ebp+1], dl
  00039	8a 50 02	 mov	 dl, BYTE PTR [eax+2]
  0003c	84 d2		 test	 dl, dl
  0003e	0f 84 fe 01 00
	00		 je	 $LN94@LoadFloat_@5
  00044	80 f2 eb	 xor	 dl, -21			; ffffffebH
  00047	88 55 e2	 mov	 BYTE PTR __k$[ebp+2], dl
  0004a	8a 50 03	 mov	 dl, BYTE PTR [eax+3]
  0004d	84 d2		 test	 dl, dl
  0004f	0f 84 e7 01 00
	00		 je	 $LN93@LoadFloat_@5
  00055	b3 ea		 mov	 bl, -22			; ffffffeaH
  00057	32 d3		 xor	 dl, bl
  00059	88 55 e3	 mov	 BYTE PTR __k$[ebp+3], dl
  0005c	8a 50 04	 mov	 dl, BYTE PTR [eax+4]
  0005f	84 d2		 test	 dl, dl
  00061	0f 84 cf 01 00
	00		 je	 $LN92@LoadFloat_@5
  00067	80 f2 ed	 xor	 dl, -19			; ffffffedH
  0006a	88 55 e4	 mov	 BYTE PTR __k$[ebp+4], dl
  0006d	8a 50 05	 mov	 dl, BYTE PTR [eax+5]
  00070	84 d2		 test	 dl, dl
  00072	0f 84 b9 01 00
	00		 je	 $LN91@LoadFloat_@5
  00078	32 d1		 xor	 dl, cl
  0007a	88 55 e5	 mov	 BYTE PTR __k$[ebp+5], dl
  0007d	8a 50 06	 mov	 dl, BYTE PTR [eax+6]
  00080	84 d2		 test	 dl, dl
  00082	0f 84 a3 01 00
	00		 je	 $LN90@LoadFloat_@5
  00088	80 f2 eb	 xor	 dl, -21			; ffffffebH
  0008b	88 55 e6	 mov	 BYTE PTR __k$[ebp+6], dl
  0008e	8a 50 07	 mov	 dl, BYTE PTR [eax+7]
  00091	84 d2		 test	 dl, dl
  00093	0f 84 8d 01 00
	00		 je	 $LN89@LoadFloat_@5
  00099	32 d3		 xor	 dl, bl
  0009b	88 55 e7	 mov	 BYTE PTR __k$[ebp+7], dl
  0009e	8a 50 08	 mov	 dl, BYTE PTR [eax+8]
  000a1	84 d2		 test	 dl, dl
  000a3	0f 84 77 01 00
	00		 je	 $LN88@LoadFloat_@5
  000a9	80 f2 ed	 xor	 dl, -19			; ffffffedH
  000ac	88 55 e8	 mov	 BYTE PTR __k$[ebp+8], dl
  000af	8a 50 09	 mov	 dl, BYTE PTR [eax+9]
  000b2	84 d2		 test	 dl, dl
  000b4	0f 84 61 01 00
	00		 je	 $LN87@LoadFloat_@5
  000ba	32 d1		 xor	 dl, cl
  000bc	88 55 e9	 mov	 BYTE PTR __k$[ebp+9], dl
  000bf	8a 50 0a	 mov	 dl, BYTE PTR [eax+10]
  000c2	84 d2		 test	 dl, dl
  000c4	0f 84 4b 01 00
	00		 je	 $LN86@LoadFloat_@5
  000ca	80 f2 eb	 xor	 dl, -21			; ffffffebH
  000cd	88 55 ea	 mov	 BYTE PTR __k$[ebp+10], dl
  000d0	8a 50 0b	 mov	 dl, BYTE PTR [eax+11]
  000d3	84 d2		 test	 dl, dl
  000d5	0f 84 35 01 00
	00		 je	 $LN85@LoadFloat_@5
  000db	32 d3		 xor	 dl, bl
  000dd	88 55 eb	 mov	 BYTE PTR __k$[ebp+11], dl
  000e0	8a 50 0c	 mov	 dl, BYTE PTR [eax+12]
  000e3	84 d2		 test	 dl, dl
  000e5	0f 84 1f 01 00
	00		 je	 $LN84@LoadFloat_@5
  000eb	80 f2 ed	 xor	 dl, -19			; ffffffedH
  000ee	88 55 ec	 mov	 BYTE PTR __k$[ebp+12], dl
  000f1	8a 50 0d	 mov	 dl, BYTE PTR [eax+13]
  000f4	84 d2		 test	 dl, dl
  000f6	0f 84 09 01 00
	00		 je	 $LN83@LoadFloat_@5
  000fc	32 d1		 xor	 dl, cl
  000fe	88 55 ed	 mov	 BYTE PTR __k$[ebp+13], dl
  00101	8a 50 0e	 mov	 dl, BYTE PTR [eax+14]
  00104	84 d2		 test	 dl, dl
  00106	0f 84 f3 00 00
	00		 je	 $LN82@LoadFloat_@5
  0010c	80 f2 eb	 xor	 dl, -21			; ffffffebH
  0010f	88 55 ee	 mov	 BYTE PTR __k$[ebp+14], dl
  00112	8a 50 0f	 mov	 dl, BYTE PTR [eax+15]
  00115	84 d2		 test	 dl, dl
  00117	0f 84 dd 00 00
	00		 je	 $LN81@LoadFloat_@5
  0011d	32 d3		 xor	 dl, bl
  0011f	88 55 ef	 mov	 BYTE PTR __k$[ebp+15], dl
  00122	8a 50 10	 mov	 dl, BYTE PTR [eax+16]
  00125	84 d2		 test	 dl, dl
  00127	0f 84 c7 00 00
	00		 je	 $LN80@LoadFloat_@5
  0012d	80 f2 ed	 xor	 dl, -19			; ffffffedH
  00130	88 55 f0	 mov	 BYTE PTR __k$[ebp+16], dl
  00133	8a 50 11	 mov	 dl, BYTE PTR [eax+17]
  00136	84 d2		 test	 dl, dl
  00138	0f 84 b1 00 00
	00		 je	 $LN79@LoadFloat_@5
  0013e	32 d1		 xor	 dl, cl
  00140	88 55 f1	 mov	 BYTE PTR __k$[ebp+17], dl
  00143	8a 50 12	 mov	 dl, BYTE PTR [eax+18]
  00146	84 d2		 test	 dl, dl
  00148	0f 84 9b 00 00
	00		 je	 $LN78@LoadFloat_@5
  0014e	80 f2 eb	 xor	 dl, -21			; ffffffebH
  00151	88 55 f2	 mov	 BYTE PTR __k$[ebp+18], dl
  00154	8a 50 13	 mov	 dl, BYTE PTR [eax+19]
  00157	84 d2		 test	 dl, dl
  00159	0f 84 85 00 00
	00		 je	 $LN77@LoadFloat_@5
  0015f	32 d3		 xor	 dl, bl
  00161	88 55 f3	 mov	 BYTE PTR __k$[ebp+19], dl
  00164	8a 50 14	 mov	 dl, BYTE PTR [eax+20]
  00167	84 d2		 test	 dl, dl
  00169	74 73		 je	 SHORT $LN76@LoadFloat_@5
  0016b	80 f2 ed	 xor	 dl, -19			; ffffffedH
  0016e	88 55 f4	 mov	 BYTE PTR __k$[ebp+20], dl
  00171	8a 50 15	 mov	 dl, BYTE PTR [eax+21]
  00174	84 d2		 test	 dl, dl
  00176	74 61		 je	 SHORT $LN75@LoadFloat_@5
  00178	32 d1		 xor	 dl, cl
  0017a	80 78 16 00	 cmp	 BYTE PTR [eax+22], 0
  0017e	88 55 f5	 mov	 BYTE PTR __k$[ebp+21], dl
  00181	0f 84 cb 00 00
	00		 je	 $LN1@LoadFloat_@5
  00187	8a 50 17	 mov	 dl, BYTE PTR [eax+23]
  0018a	84 d2		 test	 dl, dl
  0018c	74 46		 je	 SHORT $LN73@LoadFloat_@5
  0018e	32 d3		 xor	 dl, bl
  00190	88 55 f7	 mov	 BYTE PTR __k$[ebp+23], dl
  00193	8a 50 18	 mov	 dl, BYTE PTR [eax+24]
  00196	84 d2		 test	 dl, dl
  00198	74 34		 je	 SHORT $LN72@LoadFloat_@5
  0019a	80 f2 ed	 xor	 dl, -19			; ffffffedH
  0019d	88 55 f8	 mov	 BYTE PTR __k$[ebp+24], dl
  001a0	8a 50 19	 mov	 dl, BYTE PTR [eax+25]
  001a3	84 d2		 test	 dl, dl
  001a5	74 1f		 je	 SHORT $LN71@LoadFloat_@5
  001a7	8a 40 1a	 mov	 al, BYTE PTR [eax+26]
  001aa	32 d1		 xor	 dl, cl
  001ac	88 55 f9	 mov	 BYTE PTR __k$[ebp+25], dl
  001af	84 c0		 test	 al, al
  001b1	74 0a		 je	 SHORT $LN70@LoadFloat_@5
  001b3	34 eb		 xor	 al, -21			; ffffffebH
  001b5	88 45 fa	 mov	 BYTE PTR __k$[ebp+26], al
  001b8	e9 95 00 00 00	 jmp	 $LN1@LoadFloat_@5
$LN70@LoadFloat_@5:
  001bd	c6 45 fa eb	 mov	 BYTE PTR __k$[ebp+26], -21 ; ffffffebH
  001c1	e9 8c 00 00 00	 jmp	 $LN1@LoadFloat_@5
$LN71@LoadFloat_@5:
  001c6	88 4d f9	 mov	 BYTE PTR __k$[ebp+25], cl
  001c9	e9 84 00 00 00	 jmp	 $LN1@LoadFloat_@5
$LN72@LoadFloat_@5:
  001ce	c6 45 f8 ed	 mov	 BYTE PTR __k$[ebp+24], -19 ; ffffffedH
  001d2	eb 7e		 jmp	 SHORT $LN1@LoadFloat_@5
$LN73@LoadFloat_@5:
  001d4	88 5d f7	 mov	 BYTE PTR __k$[ebp+23], bl
  001d7	eb 79		 jmp	 SHORT $LN1@LoadFloat_@5
$LN75@LoadFloat_@5:
  001d9	88 4d f5	 mov	 BYTE PTR __k$[ebp+21], cl
  001dc	eb 74		 jmp	 SHORT $LN1@LoadFloat_@5
$LN76@LoadFloat_@5:
  001de	c6 45 f4 ed	 mov	 BYTE PTR __k$[ebp+20], -19 ; ffffffedH
  001e2	eb 6e		 jmp	 SHORT $LN1@LoadFloat_@5
$LN77@LoadFloat_@5:
  001e4	88 5d f3	 mov	 BYTE PTR __k$[ebp+19], bl
  001e7	eb 69		 jmp	 SHORT $LN1@LoadFloat_@5
$LN78@LoadFloat_@5:
  001e9	c6 45 f2 eb	 mov	 BYTE PTR __k$[ebp+18], -21 ; ffffffebH
  001ed	eb 63		 jmp	 SHORT $LN1@LoadFloat_@5
$LN79@LoadFloat_@5:
  001ef	88 4d f1	 mov	 BYTE PTR __k$[ebp+17], cl
  001f2	eb 5e		 jmp	 SHORT $LN1@LoadFloat_@5
$LN80@LoadFloat_@5:
  001f4	c6 45 f0 ed	 mov	 BYTE PTR __k$[ebp+16], -19 ; ffffffedH
  001f8	eb 58		 jmp	 SHORT $LN1@LoadFloat_@5
$LN81@LoadFloat_@5:
  001fa	88 5d ef	 mov	 BYTE PTR __k$[ebp+15], bl
  001fd	eb 53		 jmp	 SHORT $LN1@LoadFloat_@5
$LN82@LoadFloat_@5:
  001ff	c6 45 ee eb	 mov	 BYTE PTR __k$[ebp+14], -21 ; ffffffebH
  00203	eb 4d		 jmp	 SHORT $LN1@LoadFloat_@5
$LN83@LoadFloat_@5:
  00205	88 4d ed	 mov	 BYTE PTR __k$[ebp+13], cl
  00208	eb 48		 jmp	 SHORT $LN1@LoadFloat_@5
$LN84@LoadFloat_@5:
  0020a	c6 45 ec ed	 mov	 BYTE PTR __k$[ebp+12], -19 ; ffffffedH
  0020e	eb 42		 jmp	 SHORT $LN1@LoadFloat_@5
$LN85@LoadFloat_@5:
  00210	88 5d eb	 mov	 BYTE PTR __k$[ebp+11], bl
  00213	eb 3d		 jmp	 SHORT $LN1@LoadFloat_@5
$LN86@LoadFloat_@5:
  00215	c6 45 ea eb	 mov	 BYTE PTR __k$[ebp+10], -21 ; ffffffebH
  00219	eb 37		 jmp	 SHORT $LN1@LoadFloat_@5
$LN87@LoadFloat_@5:
  0021b	88 4d e9	 mov	 BYTE PTR __k$[ebp+9], cl
  0021e	eb 32		 jmp	 SHORT $LN1@LoadFloat_@5
$LN88@LoadFloat_@5:
  00220	c6 45 e8 ed	 mov	 BYTE PTR __k$[ebp+8], -19 ; ffffffedH
  00224	eb 2c		 jmp	 SHORT $LN1@LoadFloat_@5
$LN89@LoadFloat_@5:
  00226	88 5d e7	 mov	 BYTE PTR __k$[ebp+7], bl
  00229	eb 27		 jmp	 SHORT $LN1@LoadFloat_@5
$LN90@LoadFloat_@5:
  0022b	c6 45 e6 eb	 mov	 BYTE PTR __k$[ebp+6], -21 ; ffffffebH
  0022f	eb 21		 jmp	 SHORT $LN1@LoadFloat_@5
$LN91@LoadFloat_@5:
  00231	88 4d e5	 mov	 BYTE PTR __k$[ebp+5], cl
  00234	eb 1c		 jmp	 SHORT $LN1@LoadFloat_@5
$LN92@LoadFloat_@5:
  00236	c6 45 e4 ed	 mov	 BYTE PTR __k$[ebp+4], -19 ; ffffffedH
  0023a	eb 16		 jmp	 SHORT $LN1@LoadFloat_@5
$LN93@LoadFloat_@5:
  0023c	c6 45 e3 ea	 mov	 BYTE PTR __k$[ebp+3], -22 ; ffffffeaH
  00240	eb 10		 jmp	 SHORT $LN1@LoadFloat_@5
$LN94@LoadFloat_@5:
  00242	c6 45 e2 eb	 mov	 BYTE PTR __k$[ebp+2], -21 ; ffffffebH
  00246	eb 0a		 jmp	 SHORT $LN1@LoadFloat_@5
$LN95@LoadFloat_@5:
  00248	c6 45 e1 ec	 mov	 BYTE PTR __k$[ebp+1], -20 ; ffffffecH
  0024c	eb 04		 jmp	 SHORT $LN1@LoadFloat_@5
$LN96@LoadFloat_@5:
  0024e	c6 45 e0 ed	 mov	 BYTE PTR __k$[ebp], -19	; ffffffedH
$LN1@LoadFloat_@5:
  00252	6a 05		 push	 5
  00254	8d 45 e0	 lea	 eax, DWORD PTR __k$[ebp]
  00257	c6 45 f6 00	 mov	 BYTE PTR __k$[ebp+22], 0
  0025b	5a		 pop	 edx
$LL104@LoadFloat_@5:
  0025c	81 30 ed ec eb
	ea		 xor	 DWORD PTR [eax], -353637139 ; eaebecedH
  00262	83 c0 04	 add	 eax, 4
  00265	4a		 dec	 edx
  00266	75 f4		 jne	 SHORT $LL104@LoadFloat_@5
  00268	6a 14		 push	 20			; 00000014H
  0026a	58		 pop	 eax
$LL101@LoadFloat_@5:
  0026b	8b c8		 mov	 ecx, eax
  0026d	81 e1 03 00 00
	80		 and	 ecx, -2147483645	; 80000003H
  00273	79 05		 jns	 SHORT $LN111@LoadFloat_@5
  00275	49		 dec	 ecx
  00276	83 c9 fc	 or	 ecx, -4			; fffffffcH
  00279	41		 inc	 ecx
$LN111@LoadFloat_@5:
  0027a	b2 ed		 mov	 dl, -19			; ffffffedH
  0027c	2a d1		 sub	 dl, cl
  0027e	30 54 05 e0	 xor	 BYTE PTR __k$[ebp+eax], dl
  00282	40		 inc	 eax
  00283	83 f8 16	 cmp	 eax, 22			; 00000016H
  00286	7c e3		 jl	 SHORT $LL101@LoadFloat_@5

; 137  : 		return LoadFloat(_k, f);

  00288	f3 0f 10 45 0c	 movss	 xmm0, DWORD PTR _f$[ebp]
  0028d	51		 push	 ecx
  0028e	8d 45 e0	 lea	 eax, DWORD PTR __k$[ebp]
  00291	f3 0f 11 04 24	 movss	 DWORD PTR [esp], xmm0
  00296	50		 push	 eax
  00297	8b ce		 mov	 ecx, esi
  00299	ff 15 00 00 00
	00		 call	 DWORD PTR __imp_?LoadFloat@ioINILoader@@QAEMPBDM@Z

; 138  : 	}

  0029f	8b 4d fc	 mov	 ecx, DWORD PTR __$ArrayPad$[ebp]
  002a2	5e		 pop	 esi
  002a3	33 cd		 xor	 ecx, ebp
  002a5	5b		 pop	 ebx
  002a6	e8 00 00 00 00	 call	 @__security_check_cookie@4
  002ab	c9		 leave
  002ac	c2 08 00	 ret	 8
??$LoadFloat_e@$0BH@@ioINILoader@@QAEMAAY0BH@$$CBDM@Z ENDP ; ioINILoader::LoadFloat_e<23>
_TEXT	ENDS
PUBLIC	__$ArrayPad$
PUBLIC	??$LoadInt_e@$0BE@@ioINILoader@@QAEHAAY0BE@$$CBDH@Z ; ioINILoader::LoadInt_e<20>
; Function compile flags: /Ogsp
;	COMDAT ??$LoadInt_e@$0BE@@ioINILoader@@QAEHAAY0BE@$$CBDH@Z
_TEXT	SEGMENT
__k$ = -28						; size = 20
__$ArrayPad$ = -4					; size = 4
_k$ = 8							; size = 4
_i$ = 12						; size = 4
??$LoadInt_e@$0BE@@ioINILoader@@QAEHAAY0BE@$$CBDH@Z PROC ; ioINILoader::LoadInt_e<20>, COMDAT
; _this$ = ecx

; 118  : 	{

  00000	55		 push	 ebp
  00001	8b ec		 mov	 ebp, esp
  00003	83 ec 1c	 sub	 esp, 28			; 0000001cH
  00006	a1 00 00 00 00	 mov	 eax, DWORD PTR ___security_cookie
  0000b	33 c5		 xor	 eax, ebp
  0000d	89 45 fc	 mov	 DWORD PTR __$ArrayPad$[ebp], eax
  00010	8b 45 08	 mov	 eax, DWORD PTR _k$[ebp]

; 119  : 		_ENCSTR(k, _k);

  00013	8a 10		 mov	 dl, BYTE PTR [eax]
  00015	53		 push	 ebx
  00016	56		 push	 esi
  00017	8b f1		 mov	 esi, ecx
  00019	84 d2		 test	 dl, dl
  0001b	0f 84 dd 01 00
	00		 je	 $LN96@LoadInt_e@2
  00021	80 f2 ed	 xor	 dl, -19			; ffffffedH
  00024	88 55 e4	 mov	 BYTE PTR __k$[ebp], dl
  00027	8a 50 01	 mov	 dl, BYTE PTR [eax+1]
  0002a	84 d2		 test	 dl, dl
  0002c	0f 84 c6 01 00
	00		 je	 $LN95@LoadInt_e@2
  00032	b3 ec		 mov	 bl, -20			; ffffffecH
  00034	32 d3		 xor	 dl, bl
  00036	88 55 e5	 mov	 BYTE PTR __k$[ebp+1], dl
  00039	8a 50 02	 mov	 dl, BYTE PTR [eax+2]
  0003c	84 d2		 test	 dl, dl
  0003e	0f 84 ae 01 00
	00		 je	 $LN94@LoadInt_e@2
  00044	b1 eb		 mov	 cl, -21			; ffffffebH
  00046	32 d1		 xor	 dl, cl
  00048	88 55 e6	 mov	 BYTE PTR __k$[ebp+2], dl
  0004b	8a 50 03	 mov	 dl, BYTE PTR [eax+3]
  0004e	84 d2		 test	 dl, dl
  00050	0f 84 96 01 00
	00		 je	 $LN93@LoadInt_e@2
  00056	80 f2 ea	 xor	 dl, -22			; ffffffeaH
  00059	88 55 e7	 mov	 BYTE PTR __k$[ebp+3], dl
  0005c	8a 50 04	 mov	 dl, BYTE PTR [eax+4]
  0005f	84 d2		 test	 dl, dl
  00061	0f 84 7f 01 00
	00		 je	 $LN92@LoadInt_e@2
  00067	80 f2 ed	 xor	 dl, -19			; ffffffedH
  0006a	88 55 e8	 mov	 BYTE PTR __k$[ebp+4], dl
  0006d	8a 50 05	 mov	 dl, BYTE PTR [eax+5]
  00070	84 d2		 test	 dl, dl
  00072	0f 84 69 01 00
	00		 je	 $LN91@LoadInt_e@2
  00078	32 d3		 xor	 dl, bl
  0007a	88 55 e9	 mov	 BYTE PTR __k$[ebp+5], dl
  0007d	8a 50 06	 mov	 dl, BYTE PTR [eax+6]
  00080	84 d2		 test	 dl, dl
  00082	0f 84 54 01 00
	00		 je	 $LN90@LoadInt_e@2
  00088	32 d1		 xor	 dl, cl
  0008a	88 55 ea	 mov	 BYTE PTR __k$[ebp+6], dl
  0008d	8a 50 07	 mov	 dl, BYTE PTR [eax+7]
  00090	84 d2		 test	 dl, dl
  00092	0f 84 3e 01 00
	00		 je	 $LN89@LoadInt_e@2
  00098	80 f2 ea	 xor	 dl, -22			; ffffffeaH
  0009b	88 55 eb	 mov	 BYTE PTR __k$[ebp+7], dl
  0009e	8a 50 08	 mov	 dl, BYTE PTR [eax+8]
  000a1	84 d2		 test	 dl, dl
  000a3	0f 84 27 01 00
	00		 je	 $LN88@LoadInt_e@2
  000a9	80 f2 ed	 xor	 dl, -19			; ffffffedH
  000ac	88 55 ec	 mov	 BYTE PTR __k$[ebp+8], dl
  000af	8a 50 09	 mov	 dl, BYTE PTR [eax+9]
  000b2	84 d2		 test	 dl, dl
  000b4	0f 84 11 01 00
	00		 je	 $LN87@LoadInt_e@2
  000ba	32 d3		 xor	 dl, bl
  000bc	88 55 ed	 mov	 BYTE PTR __k$[ebp+9], dl
  000bf	8a 50 0a	 mov	 dl, BYTE PTR [eax+10]
  000c2	84 d2		 test	 dl, dl
  000c4	0f 84 fc 00 00
	00		 je	 $LN86@LoadInt_e@2
  000ca	32 d1		 xor	 dl, cl
  000cc	88 55 ee	 mov	 BYTE PTR __k$[ebp+10], dl
  000cf	8a 50 0b	 mov	 dl, BYTE PTR [eax+11]
  000d2	84 d2		 test	 dl, dl
  000d4	0f 84 e6 00 00
	00		 je	 $LN85@LoadInt_e@2
  000da	80 f2 ea	 xor	 dl, -22			; ffffffeaH
  000dd	88 55 ef	 mov	 BYTE PTR __k$[ebp+11], dl
  000e0	8a 50 0c	 mov	 dl, BYTE PTR [eax+12]
  000e3	84 d2		 test	 dl, dl
  000e5	0f 84 cf 00 00
	00		 je	 $LN84@LoadInt_e@2
  000eb	80 f2 ed	 xor	 dl, -19			; ffffffedH
  000ee	88 55 f0	 mov	 BYTE PTR __k$[ebp+12], dl
  000f1	8a 50 0d	 mov	 dl, BYTE PTR [eax+13]
  000f4	84 d2		 test	 dl, dl
  000f6	0f 84 b9 00 00
	00		 je	 $LN83@LoadInt_e@2
  000fc	32 d3		 xor	 dl, bl
  000fe	88 55 f1	 mov	 BYTE PTR __k$[ebp+13], dl
  00101	8a 50 0e	 mov	 dl, BYTE PTR [eax+14]
  00104	84 d2		 test	 dl, dl
  00106	0f 84 a4 00 00
	00		 je	 $LN82@LoadInt_e@2
  0010c	32 d1		 xor	 dl, cl
  0010e	88 55 f2	 mov	 BYTE PTR __k$[ebp+14], dl
  00111	8a 50 0f	 mov	 dl, BYTE PTR [eax+15]
  00114	84 d2		 test	 dl, dl
  00116	0f 84 8e 00 00
	00		 je	 $LN81@LoadInt_e@2
  0011c	80 f2 ea	 xor	 dl, -22			; ffffffeaH
  0011f	88 55 f3	 mov	 BYTE PTR __k$[ebp+15], dl
  00122	8a 50 10	 mov	 dl, BYTE PTR [eax+16]
  00125	84 d2		 test	 dl, dl
  00127	74 7b		 je	 SHORT $LN80@LoadInt_e@2
  00129	80 f2 ed	 xor	 dl, -19			; ffffffedH
  0012c	88 55 f4	 mov	 BYTE PTR __k$[ebp+16], dl
  0012f	8a 50 11	 mov	 dl, BYTE PTR [eax+17]
  00132	84 d2		 test	 dl, dl
  00134	74 69		 je	 SHORT $LN79@LoadInt_e@2
  00136	32 d3		 xor	 dl, bl
  00138	88 55 f5	 mov	 BYTE PTR __k$[ebp+17], dl
  0013b	8a 50 12	 mov	 dl, BYTE PTR [eax+18]
  0013e	84 d2		 test	 dl, dl
  00140	74 58		 je	 SHORT $LN78@LoadInt_e@2
  00142	32 d1		 xor	 dl, cl
  00144	80 78 13 00	 cmp	 BYTE PTR [eax+19], 0
  00148	88 55 f6	 mov	 BYTE PTR __k$[ebp+18], dl
  0014b	0f 84 b1 00 00
	00		 je	 $LN1@LoadInt_e@2
  00151	8a 50 14	 mov	 dl, BYTE PTR [eax+20]
  00154	84 d2		 test	 dl, dl
  00156	74 3c		 je	 SHORT $LN76@LoadInt_e@2
  00158	80 f2 ed	 xor	 dl, -19			; ffffffedH
  0015b	88 55 f8	 mov	 BYTE PTR __k$[ebp+20], dl
  0015e	8a 50 15	 mov	 dl, BYTE PTR [eax+21]
  00161	84 d2		 test	 dl, dl
  00163	74 2a		 je	 SHORT $LN75@LoadInt_e@2
  00165	32 d3		 xor	 dl, bl
  00167	88 55 f9	 mov	 BYTE PTR __k$[ebp+21], dl
  0016a	8a 50 16	 mov	 dl, BYTE PTR [eax+22]
  0016d	84 d2		 test	 dl, dl
  0016f	74 19		 je	 SHORT $LN74@LoadInt_e@2
  00171	8a 40 17	 mov	 al, BYTE PTR [eax+23]
  00174	32 d1		 xor	 dl, cl
  00176	88 55 fa	 mov	 BYTE PTR __k$[ebp+22], dl
  00179	84 c0		 test	 al, al
  0017b	74 07		 je	 SHORT $LN73@LoadInt_e@2
  0017d	34 ea		 xor	 al, -22			; ffffffeaH
  0017f	88 45 fb	 mov	 BYTE PTR __k$[ebp+23], al
  00182	eb 7e		 jmp	 SHORT $LN1@LoadInt_e@2
$LN73@LoadInt_e@2:
  00184	c6 45 fb ea	 mov	 BYTE PTR __k$[ebp+23], -22 ; ffffffeaH
  00188	eb 78		 jmp	 SHORT $LN1@LoadInt_e@2
$LN74@LoadInt_e@2:
  0018a	88 4d fa	 mov	 BYTE PTR __k$[ebp+22], cl
  0018d	eb 73		 jmp	 SHORT $LN1@LoadInt_e@2
$LN75@LoadInt_e@2:
  0018f	88 5d f9	 mov	 BYTE PTR __k$[ebp+21], bl
  00192	eb 6e		 jmp	 SHORT $LN1@LoadInt_e@2
$LN76@LoadInt_e@2:
  00194	c6 45 f8 ed	 mov	 BYTE PTR __k$[ebp+20], -19 ; ffffffedH
  00198	eb 68		 jmp	 SHORT $LN1@LoadInt_e@2
$LN78@LoadInt_e@2:
  0019a	88 4d f6	 mov	 BYTE PTR __k$[ebp+18], cl
  0019d	eb 63		 jmp	 SHORT $LN1@LoadInt_e@2
$LN79@LoadInt_e@2:
  0019f	88 5d f5	 mov	 BYTE PTR __k$[ebp+17], bl
  001a2	eb 5e		 jmp	 SHORT $LN1@LoadInt_e@2
$LN80@LoadInt_e@2:
  001a4	c6 45 f4 ed	 mov	 BYTE PTR __k$[ebp+16], -19 ; ffffffedH
  001a8	eb 58		 jmp	 SHORT $LN1@LoadInt_e@2
$LN81@LoadInt_e@2:
  001aa	c6 45 f3 ea	 mov	 BYTE PTR __k$[ebp+15], -22 ; ffffffeaH
  001ae	eb 52		 jmp	 SHORT $LN1@LoadInt_e@2
$LN82@LoadInt_e@2:
  001b0	88 4d f2	 mov	 BYTE PTR __k$[ebp+14], cl
  001b3	eb 4d		 jmp	 SHORT $LN1@LoadInt_e@2
$LN83@LoadInt_e@2:
  001b5	88 5d f1	 mov	 BYTE PTR __k$[ebp+13], bl
  001b8	eb 48		 jmp	 SHORT $LN1@LoadInt_e@2
$LN84@LoadInt_e@2:
  001ba	c6 45 f0 ed	 mov	 BYTE PTR __k$[ebp+12], -19 ; ffffffedH
  001be	eb 42		 jmp	 SHORT $LN1@LoadInt_e@2
$LN85@LoadInt_e@2:
  001c0	c6 45 ef ea	 mov	 BYTE PTR __k$[ebp+11], -22 ; ffffffeaH
  001c4	eb 3c		 jmp	 SHORT $LN1@LoadInt_e@2
$LN86@LoadInt_e@2:
  001c6	88 4d ee	 mov	 BYTE PTR __k$[ebp+10], cl
  001c9	eb 37		 jmp	 SHORT $LN1@LoadInt_e@2
$LN87@LoadInt_e@2:
  001cb	88 5d ed	 mov	 BYTE PTR __k$[ebp+9], bl
  001ce	eb 32		 jmp	 SHORT $LN1@LoadInt_e@2
$LN88@LoadInt_e@2:
  001d0	c6 45 ec ed	 mov	 BYTE PTR __k$[ebp+8], -19 ; ffffffedH
  001d4	eb 2c		 jmp	 SHORT $LN1@LoadInt_e@2
$LN89@LoadInt_e@2:
  001d6	c6 45 eb ea	 mov	 BYTE PTR __k$[ebp+7], -22 ; ffffffeaH
  001da	eb 26		 jmp	 SHORT $LN1@LoadInt_e@2
$LN90@LoadInt_e@2:
  001dc	88 4d ea	 mov	 BYTE PTR __k$[ebp+6], cl
  001df	eb 21		 jmp	 SHORT $LN1@LoadInt_e@2
$LN91@LoadInt_e@2:
  001e1	88 5d e9	 mov	 BYTE PTR __k$[ebp+5], bl
  001e4	eb 1c		 jmp	 SHORT $LN1@LoadInt_e@2
$LN92@LoadInt_e@2:
  001e6	c6 45 e8 ed	 mov	 BYTE PTR __k$[ebp+4], -19 ; ffffffedH
  001ea	eb 16		 jmp	 SHORT $LN1@LoadInt_e@2
$LN93@LoadInt_e@2:
  001ec	c6 45 e7 ea	 mov	 BYTE PTR __k$[ebp+3], -22 ; ffffffeaH
  001f0	eb 10		 jmp	 SHORT $LN1@LoadInt_e@2
$LN94@LoadInt_e@2:
  001f2	c6 45 e6 eb	 mov	 BYTE PTR __k$[ebp+2], -21 ; ffffffebH
  001f6	eb 0a		 jmp	 SHORT $LN1@LoadInt_e@2
$LN95@LoadInt_e@2:
  001f8	c6 45 e5 ec	 mov	 BYTE PTR __k$[ebp+1], -20 ; ffffffecH
  001fc	eb 04		 jmp	 SHORT $LN1@LoadInt_e@2
$LN96@LoadInt_e@2:
  001fe	c6 45 e4 ed	 mov	 BYTE PTR __k$[ebp], -19	; ffffffedH
$LN1@LoadInt_e@2:
  00202	6a 04		 push	 4
  00204	8d 45 e4	 lea	 eax, DWORD PTR __k$[ebp]
  00207	c6 45 f7 00	 mov	 BYTE PTR __k$[ebp+19], 0
  0020b	5a		 pop	 edx
$LL104@LoadInt_e@2:
  0020c	81 30 ed ec eb
	ea		 xor	 DWORD PTR [eax], -353637139 ; eaebecedH
  00212	83 c0 04	 add	 eax, 4
  00215	4a		 dec	 edx
  00216	75 f4		 jne	 SHORT $LL104@LoadInt_e@2
  00218	6a 10		 push	 16			; 00000010H
  0021a	58		 pop	 eax
$LL101@LoadInt_e@2:
  0021b	8b c8		 mov	 ecx, eax
  0021d	81 e1 03 00 00
	80		 and	 ecx, -2147483645	; 80000003H
  00223	79 05		 jns	 SHORT $LN111@LoadInt_e@2
  00225	49		 dec	 ecx
  00226	83 c9 fc	 or	 ecx, -4			; fffffffcH
  00229	41		 inc	 ecx
$LN111@LoadInt_e@2:
  0022a	b2 ed		 mov	 dl, -19			; ffffffedH
  0022c	2a d1		 sub	 dl, cl
  0022e	30 54 05 e4	 xor	 BYTE PTR __k$[ebp+eax], dl
  00232	40		 inc	 eax
  00233	83 f8 13	 cmp	 eax, 19			; 00000013H
  00236	7c e3		 jl	 SHORT $LL101@LoadInt_e@2

; 120  : 		return LoadInt(_k, i);

  00238	ff 75 0c	 push	 DWORD PTR _i$[ebp]
  0023b	8d 45 e4	 lea	 eax, DWORD PTR __k$[ebp]
  0023e	50		 push	 eax
  0023f	8b ce		 mov	 ecx, esi
  00241	ff 15 00 00 00
	00		 call	 DWORD PTR __imp_?LoadInt@ioINILoader@@QAEHPBDH@Z

; 121  : 	}

  00247	8b 4d fc	 mov	 ecx, DWORD PTR __$ArrayPad$[ebp]
  0024a	5e		 pop	 esi
  0024b	33 cd		 xor	 ecx, ebp
  0024d	5b		 pop	 ebx
  0024e	e8 00 00 00 00	 call	 @__security_check_cookie@4
  00253	c9		 leave
  00254	c2 08 00	 ret	 8
??$LoadInt_e@$0BE@@ioINILoader@@QAEHAAY0BE@$$CBDH@Z ENDP ; ioINILoader::LoadInt_e<20>
_TEXT	ENDS
PUBLIC	__$ArrayPad$
PUBLIC	??$LoadAttackAttribute_e@$0BA@@@YAXAAY0BA@$$CBDAAUAttackAttribute@@AAVioINILoader@@@Z ; LoadAttackAttribute_e<16>
EXTRN	?LoadAttackAttribute@@YAXPBDAAUAttackAttribute@@AAVioINILoader@@@Z:PROC ; LoadAttackAttribute
; Function compile flags: /Ogsp
; File d:\lost saga for developer\youtube\tutorial\source\src\lsclient\ioattackattribute.h
;	COMDAT ??$LoadAttackAttribute_e@$0BA@@@YAXAAY0BA@$$CBDAAUAttackAttribute@@AAVioINILoader@@@Z
_TEXT	SEGMENT
_szEncAttack$ = -24					; size = 16
__$ArrayPad$ = -4					; size = 4
_szAttack$ = 8						; size = 4
_rkAttribute$ = 12					; size = 4
_rkLoader$ = 16						; size = 4
??$LoadAttackAttribute_e@$0BA@@@YAXAAY0BA@$$CBDAAUAttackAttribute@@AAVioINILoader@@@Z PROC ; LoadAttackAttribute_e<16>, COMDAT

; 131  : {

  00000	55		 push	 ebp
  00001	8b ec		 mov	 ebp, esp
  00003	83 ec 18	 sub	 esp, 24			; 00000018H
  00006	a1 00 00 00 00	 mov	 eax, DWORD PTR ___security_cookie
  0000b	33 c5		 xor	 eax, ebp
  0000d	89 45 fc	 mov	 DWORD PTR __$ArrayPad$[ebp], eax
  00010	8b 45 08	 mov	 eax, DWORD PTR _szAttack$[ebp]

; 132  : 	_ENCSTR(szAttack, szEncAttack);

  00013	8a 08		 mov	 cl, BYTE PTR [eax]
  00015	56		 push	 esi
  00016	8b 75 0c	 mov	 esi, DWORD PTR _rkAttribute$[ebp]
  00019	57		 push	 edi
  0001a	8b 7d 10	 mov	 edi, DWORD PTR _rkLoader$[ebp]
  0001d	84 c9		 test	 cl, cl
  0001f	0f 84 8c 01 00
	00		 je	 $LN96@LoadAttack
  00025	80 f1 ed	 xor	 cl, -19			; ffffffedH
  00028	88 4d e8	 mov	 BYTE PTR _szEncAttack$[ebp], cl
  0002b	8a 48 01	 mov	 cl, BYTE PTR [eax+1]
  0002e	84 c9		 test	 cl, cl
  00030	0f 84 75 01 00
	00		 je	 $LN95@LoadAttack
  00036	b2 ec		 mov	 dl, -20			; ffffffecH
  00038	32 ca		 xor	 cl, dl
  0003a	88 4d e9	 mov	 BYTE PTR _szEncAttack$[ebp+1], cl
  0003d	8a 48 02	 mov	 cl, BYTE PTR [eax+2]
  00040	84 c9		 test	 cl, cl
  00042	0f 84 5d 01 00
	00		 je	 $LN94@LoadAttack
  00048	80 f1 eb	 xor	 cl, -21			; ffffffebH
  0004b	88 4d ea	 mov	 BYTE PTR _szEncAttack$[ebp+2], cl
  0004e	8a 48 03	 mov	 cl, BYTE PTR [eax+3]
  00051	84 c9		 test	 cl, cl
  00053	0f 84 46 01 00
	00		 je	 $LN93@LoadAttack
  00059	80 f1 ea	 xor	 cl, -22			; ffffffeaH
  0005c	88 4d eb	 mov	 BYTE PTR _szEncAttack$[ebp+3], cl
  0005f	8a 48 04	 mov	 cl, BYTE PTR [eax+4]
  00062	84 c9		 test	 cl, cl
  00064	0f 84 2f 01 00
	00		 je	 $LN92@LoadAttack
  0006a	80 f1 ed	 xor	 cl, -19			; ffffffedH
  0006d	88 4d ec	 mov	 BYTE PTR _szEncAttack$[ebp+4], cl
  00070	8a 48 05	 mov	 cl, BYTE PTR [eax+5]
  00073	84 c9		 test	 cl, cl
  00075	0f 84 19 01 00
	00		 je	 $LN91@LoadAttack
  0007b	32 ca		 xor	 cl, dl
  0007d	88 4d ed	 mov	 BYTE PTR _szEncAttack$[ebp+5], cl
  00080	8a 48 06	 mov	 cl, BYTE PTR [eax+6]
  00083	84 c9		 test	 cl, cl
  00085	0f 84 03 01 00
	00		 je	 $LN90@LoadAttack
  0008b	80 f1 eb	 xor	 cl, -21			; ffffffebH
  0008e	88 4d ee	 mov	 BYTE PTR _szEncAttack$[ebp+6], cl
  00091	8a 48 07	 mov	 cl, BYTE PTR [eax+7]
  00094	84 c9		 test	 cl, cl
  00096	0f 84 ec 00 00
	00		 je	 $LN89@LoadAttack
  0009c	80 f1 ea	 xor	 cl, -22			; ffffffeaH
  0009f	88 4d ef	 mov	 BYTE PTR _szEncAttack$[ebp+7], cl
  000a2	8a 48 08	 mov	 cl, BYTE PTR [eax+8]
  000a5	84 c9		 test	 cl, cl
  000a7	0f 84 d5 00 00
	00		 je	 $LN88@LoadAttack
  000ad	80 f1 ed	 xor	 cl, -19			; ffffffedH
  000b0	88 4d f0	 mov	 BYTE PTR _szEncAttack$[ebp+8], cl
  000b3	8a 48 09	 mov	 cl, BYTE PTR [eax+9]
  000b6	84 c9		 test	 cl, cl
  000b8	0f 84 bf 00 00
	00		 je	 $LN87@LoadAttack
  000be	32 ca		 xor	 cl, dl
  000c0	88 4d f1	 mov	 BYTE PTR _szEncAttack$[ebp+9], cl
  000c3	8a 48 0a	 mov	 cl, BYTE PTR [eax+10]
  000c6	84 c9		 test	 cl, cl
  000c8	0f 84 a9 00 00
	00		 je	 $LN86@LoadAttack
  000ce	80 f1 eb	 xor	 cl, -21			; ffffffebH
  000d1	88 4d f2	 mov	 BYTE PTR _szEncAttack$[ebp+10], cl
  000d4	8a 48 0b	 mov	 cl, BYTE PTR [eax+11]
  000d7	84 c9		 test	 cl, cl
  000d9	0f 84 92 00 00
	00		 je	 $LN85@LoadAttack
  000df	80 f1 ea	 xor	 cl, -22			; ffffffeaH
  000e2	88 4d f3	 mov	 BYTE PTR _szEncAttack$[ebp+11], cl
  000e5	8a 48 0c	 mov	 cl, BYTE PTR [eax+12]
  000e8	84 c9		 test	 cl, cl
  000ea	74 7f		 je	 SHORT $LN84@LoadAttack
  000ec	80 f1 ed	 xor	 cl, -19			; ffffffedH
  000ef	88 4d f4	 mov	 BYTE PTR _szEncAttack$[ebp+12], cl
  000f2	8a 48 0d	 mov	 cl, BYTE PTR [eax+13]
  000f5	84 c9		 test	 cl, cl
  000f7	74 6d		 je	 SHORT $LN83@LoadAttack
  000f9	32 ca		 xor	 cl, dl
  000fb	88 4d f5	 mov	 BYTE PTR _szEncAttack$[ebp+13], cl
  000fe	8a 48 0e	 mov	 cl, BYTE PTR [eax+14]
  00101	84 c9		 test	 cl, cl
  00103	74 5b		 je	 SHORT $LN82@LoadAttack
  00105	80 f1 eb	 xor	 cl, -21			; ffffffebH
  00108	80 78 0f 00	 cmp	 BYTE PTR [eax+15], 0
  0010c	88 4d f6	 mov	 BYTE PTR _szEncAttack$[ebp+14], cl
  0010f	0f 84 a0 00 00
	00		 je	 $LN1@LoadAttack
  00115	8a 48 10	 mov	 cl, BYTE PTR [eax+16]
  00118	84 c9		 test	 cl, cl
  0011a	74 3e		 je	 SHORT $LN80@LoadAttack
  0011c	80 f1 ed	 xor	 cl, -19			; ffffffedH
  0011f	88 4d f8	 mov	 BYTE PTR _szEncAttack$[ebp+16], cl
  00122	8a 48 11	 mov	 cl, BYTE PTR [eax+17]
  00125	84 c9		 test	 cl, cl
  00127	74 2c		 je	 SHORT $LN79@LoadAttack
  00129	32 ca		 xor	 cl, dl
  0012b	88 4d f9	 mov	 BYTE PTR _szEncAttack$[ebp+17], cl
  0012e	8a 48 12	 mov	 cl, BYTE PTR [eax+18]
  00131	84 c9		 test	 cl, cl
  00133	74 1a		 je	 SHORT $LN78@LoadAttack
  00135	8a 40 13	 mov	 al, BYTE PTR [eax+19]
  00138	80 f1 eb	 xor	 cl, -21			; ffffffebH
  0013b	88 4d fa	 mov	 BYTE PTR _szEncAttack$[ebp+18], cl
  0013e	84 c0		 test	 al, al
  00140	74 07		 je	 SHORT $LN77@LoadAttack
  00142	34 ea		 xor	 al, -22			; ffffffeaH
  00144	88 45 fb	 mov	 BYTE PTR _szEncAttack$[ebp+19], al
  00147	eb 6c		 jmp	 SHORT $LN1@LoadAttack
$LN77@LoadAttack:
  00149	c6 45 fb ea	 mov	 BYTE PTR _szEncAttack$[ebp+19], -22 ; ffffffeaH
  0014d	eb 66		 jmp	 SHORT $LN1@LoadAttack
$LN78@LoadAttack:
  0014f	c6 45 fa eb	 mov	 BYTE PTR _szEncAttack$[ebp+18], -21 ; ffffffebH
  00153	eb 60		 jmp	 SHORT $LN1@LoadAttack
$LN79@LoadAttack:
  00155	88 55 f9	 mov	 BYTE PTR _szEncAttack$[ebp+17], dl
  00158	eb 5b		 jmp	 SHORT $LN1@LoadAttack
$LN80@LoadAttack:
  0015a	c6 45 f8 ed	 mov	 BYTE PTR _szEncAttack$[ebp+16], -19 ; ffffffedH
  0015e	eb 55		 jmp	 SHORT $LN1@LoadAttack
$LN82@LoadAttack:
  00160	c6 45 f6 eb	 mov	 BYTE PTR _szEncAttack$[ebp+14], -21 ; ffffffebH
  00164	eb 4f		 jmp	 SHORT $LN1@LoadAttack
$LN83@LoadAttack:
  00166	88 55 f5	 mov	 BYTE PTR _szEncAttack$[ebp+13], dl
  00169	eb 4a		 jmp	 SHORT $LN1@LoadAttack
$LN84@LoadAttack:
  0016b	c6 45 f4 ed	 mov	 BYTE PTR _szEncAttack$[ebp+12], -19 ; ffffffedH
  0016f	eb 44		 jmp	 SHORT $LN1@LoadAttack
$LN85@LoadAttack:
  00171	c6 45 f3 ea	 mov	 BYTE PTR _szEncAttack$[ebp+11], -22 ; ffffffeaH
  00175	eb 3e		 jmp	 SHORT $LN1@LoadAttack
$LN86@LoadAttack:
  00177	c6 45 f2 eb	 mov	 BYTE PTR _szEncAttack$[ebp+10], -21 ; ffffffebH
  0017b	eb 38		 jmp	 SHORT $LN1@LoadAttack
$LN87@LoadAttack:
  0017d	88 55 f1	 mov	 BYTE PTR _szEncAttack$[ebp+9], dl
  00180	eb 33		 jmp	 SHORT $LN1@LoadAttack
$LN88@LoadAttack:
  00182	c6 45 f0 ed	 mov	 BYTE PTR _szEncAttack$[ebp+8], -19 ; ffffffedH
  00186	eb 2d		 jmp	 SHORT $LN1@LoadAttack
$LN89@LoadAttack:
  00188	c6 45 ef ea	 mov	 BYTE PTR _szEncAttack$[ebp+7], -22 ; ffffffeaH
  0018c	eb 27		 jmp	 SHORT $LN1@LoadAttack
$LN90@LoadAttack:
  0018e	c6 45 ee eb	 mov	 BYTE PTR _szEncAttack$[ebp+6], -21 ; ffffffebH
  00192	eb 21		 jmp	 SHORT $LN1@LoadAttack
$LN91@LoadAttack:
  00194	88 55 ed	 mov	 BYTE PTR _szEncAttack$[ebp+5], dl
  00197	eb 1c		 jmp	 SHORT $LN1@LoadAttack
$LN92@LoadAttack:
  00199	c6 45 ec ed	 mov	 BYTE PTR _szEncAttack$[ebp+4], -19 ; ffffffedH
  0019d	eb 16		 jmp	 SHORT $LN1@LoadAttack
$LN93@LoadAttack:
  0019f	c6 45 eb ea	 mov	 BYTE PTR _szEncAttack$[ebp+3], -22 ; ffffffeaH
  001a3	eb 10		 jmp	 SHORT $LN1@LoadAttack
$LN94@LoadAttack:
  001a5	c6 45 ea eb	 mov	 BYTE PTR _szEncAttack$[ebp+2], -21 ; ffffffebH
  001a9	eb 0a		 jmp	 SHORT $LN1@LoadAttack
$LN95@LoadAttack:
  001ab	c6 45 e9 ec	 mov	 BYTE PTR _szEncAttack$[ebp+1], -20 ; ffffffecH
  001af	eb 04		 jmp	 SHORT $LN1@LoadAttack
$LN96@LoadAttack:
  001b1	c6 45 e8 ed	 mov	 BYTE PTR _szEncAttack$[ebp], -19 ; ffffffedH
$LN1@LoadAttack:
  001b5	6a 03		 push	 3
  001b7	8d 45 e8	 lea	 eax, DWORD PTR _szEncAttack$[ebp]
  001ba	c6 45 f7 00	 mov	 BYTE PTR _szEncAttack$[ebp+15], 0
  001be	59		 pop	 ecx
$LL104@LoadAttack:
  001bf	81 30 ed ec eb
	ea		 xor	 DWORD PTR [eax], -353637139 ; eaebecedH
  001c5	83 c0 04	 add	 eax, 4
  001c8	49		 dec	 ecx
  001c9	75 f4		 jne	 SHORT $LL104@LoadAttack
  001cb	6a 0c		 push	 12			; 0000000cH
  001cd	58		 pop	 eax
$LL101@LoadAttack:
  001ce	8b c8		 mov	 ecx, eax
  001d0	81 e1 03 00 00
	80		 and	 ecx, -2147483645	; 80000003H
  001d6	79 05		 jns	 SHORT $LN111@LoadAttack
  001d8	49		 dec	 ecx
  001d9	83 c9 fc	 or	 ecx, -4			; fffffffcH
  001dc	41		 inc	 ecx
$LN111@LoadAttack:
  001dd	b2 ed		 mov	 dl, -19			; ffffffedH
  001df	2a d1		 sub	 dl, cl
  001e1	30 54 05 e8	 xor	 BYTE PTR _szEncAttack$[ebp+eax], dl
  001e5	40		 inc	 eax
  001e6	83 f8 0f	 cmp	 eax, 15			; 0000000fH
  001e9	7c e3		 jl	 SHORT $LL101@LoadAttack

; 133  : 	LoadAttackAttribute(szEncAttack, rkAttribute, rkLoader);

  001eb	57		 push	 edi
  001ec	8d 45 e8	 lea	 eax, DWORD PTR _szEncAttack$[ebp]
  001ef	56		 push	 esi
  001f0	50		 push	 eax
  001f1	e8 00 00 00 00	 call	 ?LoadAttackAttribute@@YAXPBDAAUAttackAttribute@@AAVioINILoader@@@Z ; LoadAttackAttribute

; 134  : }

  001f6	8b 4d fc	 mov	 ecx, DWORD PTR __$ArrayPad$[ebp]
  001f9	83 c4 0c	 add	 esp, 12			; 0000000cH
  001fc	5f		 pop	 edi
  001fd	33 cd		 xor	 ecx, ebp
  001ff	5e		 pop	 esi
  00200	e8 00 00 00 00	 call	 @__security_check_cookie@4
  00205	c9		 leave
  00206	c3		 ret	 0
??$LoadAttackAttribute_e@$0BA@@@YAXAAY0BA@$$CBDAAUAttackAttribute@@AAVioINILoader@@@Z ENDP ; LoadAttackAttribute_e<16>
_TEXT	ENDS
PUBLIC	??$GetAnimationEventTime_e@$0N@@ioEntityGroup@@QAEMHAAY0N@$$CBD@Z ; ioEntityGroup::GetAnimationEventTime_e<13>
EXTRN	__imp_?GetAnimationEventTime@ioEntityGroup@@QAEMHABVioHashString@@@Z:PROC
EXTRN	__imp_??0ioHashString@@QAE@PBD@Z:PROC
EXTRN	___CxxFrameHandler3:PROC
EXTRN	__EH_epilog3_GS:PROC
EXTRN	__EH_prolog3_GS:PROC
;	COMDAT xdata$x
; File d:\lost saga for developer\youtube\tutorial\source\src\lsclient\stringprotect.h
xdata$x	SEGMENT
__unwindtable$??$GetAnimationEventTime_e@$0N@@ioEntityGroup@@QAEMHAAY0N@$$CBD@Z DD 0ffffffffH
	DD	FLAT:__unwindfunclet$??$GetAnimationEventTime_e@$0N@@ioEntityGroup@@QAEMHAAY0N@$$CBD@Z$0
__ehfuncinfo$??$GetAnimationEventTime_e@$0N@@ioEntityGroup@@QAEMHAAY0N@$$CBD@Z DD 019930522H
	DD	01H
	DD	FLAT:__unwindtable$??$GetAnimationEventTime_e@$0N@@ioEntityGroup@@QAEMHAAY0N@$$CBD@Z
	DD	2 DUP(00H)
	DD	2 DUP(00H)
	DD	00H
	DD	01H
; Function compile flags: /Ogsp
; File d:\lost saga for developer\youtube\tutorial\source\src\io3dengine\ioentitygroup.h
xdata$x	ENDS
;	COMDAT ??$GetAnimationEventTime_e@$0N@@ioEntityGroup@@QAEMHAAY0N@$$CBD@Z
_TEXT	SEGMENT
$T553669 = -56						; size = 16
$T553668 = -40						; size = 4
_szEncEventType$ = -36					; size = 13
__$EHRec$ = -12						; size = 12
_id$ = 8						; size = 4
_szEventType$ = 12					; size = 4
??$GetAnimationEventTime_e@$0N@@ioEntityGroup@@QAEMHAAY0N@$$CBD@Z PROC ; ioEntityGroup::GetAnimationEventTime_e<13>, COMDAT
; _this$ = ecx

; 414  : 	{

  00000	6a 2c		 push	 44			; 0000002cH
  00002	b8 00 00 00 00	 mov	 eax, __ehhandler$??$GetAnimationEventTime_e@$0N@@ioEntityGroup@@QAEMHAAY0N@$$CBD@Z
  00007	e8 00 00 00 00	 call	 __EH_prolog3_GS
  0000c	8b 45 0c	 mov	 eax, DWORD PTR _szEventType$[ebp]
  0000f	8b f1		 mov	 esi, ecx

; 415  : 		_ENCSTR(szEventType, szEncEventType);

  00011	8a 08		 mov	 cl, BYTE PTR [eax]
  00013	84 c9		 test	 cl, cl
  00015	0f 84 49 01 00
	00		 je	 $LN96@GetAnimati
  0001b	80 f1 ed	 xor	 cl, -19			; ffffffedH
  0001e	88 4d dc	 mov	 BYTE PTR _szEncEventType$[ebp], cl
  00021	8a 48 01	 mov	 cl, BYTE PTR [eax+1]
  00024	84 c9		 test	 cl, cl
  00026	0f 84 32 01 00
	00		 je	 $LN95@GetAnimati
  0002c	80 f1 ec	 xor	 cl, -20			; ffffffecH
  0002f	88 4d dd	 mov	 BYTE PTR _szEncEventType$[ebp+1], cl
  00032	8a 48 02	 mov	 cl, BYTE PTR [eax+2]
  00035	84 c9		 test	 cl, cl
  00037	0f 84 1b 01 00
	00		 je	 $LN94@GetAnimati
  0003d	b2 eb		 mov	 dl, -21			; ffffffebH
  0003f	32 ca		 xor	 cl, dl
  00041	88 4d de	 mov	 BYTE PTR _szEncEventType$[ebp+2], cl
  00044	8a 48 03	 mov	 cl, BYTE PTR [eax+3]
  00047	84 c9		 test	 cl, cl
  00049	0f 84 03 01 00
	00		 je	 $LN93@GetAnimati
  0004f	80 f1 ea	 xor	 cl, -22			; ffffffeaH
  00052	88 4d df	 mov	 BYTE PTR _szEncEventType$[ebp+3], cl
  00055	8a 48 04	 mov	 cl, BYTE PTR [eax+4]
  00058	84 c9		 test	 cl, cl
  0005a	0f 84 ec 00 00
	00		 je	 $LN92@GetAnimati
  00060	80 f1 ed	 xor	 cl, -19			; ffffffedH
  00063	88 4d e0	 mov	 BYTE PTR _szEncEventType$[ebp+4], cl
  00066	8a 48 05	 mov	 cl, BYTE PTR [eax+5]
  00069	84 c9		 test	 cl, cl
  0006b	0f 84 d5 00 00
	00		 je	 $LN91@GetAnimati
  00071	80 f1 ec	 xor	 cl, -20			; ffffffecH
  00074	88 4d e1	 mov	 BYTE PTR _szEncEventType$[ebp+5], cl
  00077	8a 48 06	 mov	 cl, BYTE PTR [eax+6]
  0007a	84 c9		 test	 cl, cl
  0007c	0f 84 bf 00 00
	00		 je	 $LN90@GetAnimati
  00082	32 ca		 xor	 cl, dl
  00084	88 4d e2	 mov	 BYTE PTR _szEncEventType$[ebp+6], cl
  00087	8a 48 07	 mov	 cl, BYTE PTR [eax+7]
  0008a	84 c9		 test	 cl, cl
  0008c	0f 84 a9 00 00
	00		 je	 $LN89@GetAnimati
  00092	80 f1 ea	 xor	 cl, -22			; ffffffeaH
  00095	88 4d e3	 mov	 BYTE PTR _szEncEventType$[ebp+7], cl
  00098	8a 48 08	 mov	 cl, BYTE PTR [eax+8]
  0009b	84 c9		 test	 cl, cl
  0009d	0f 84 92 00 00
	00		 je	 $LN88@GetAnimati
  000a3	80 f1 ed	 xor	 cl, -19			; ffffffedH
  000a6	88 4d e4	 mov	 BYTE PTR _szEncEventType$[ebp+8], cl
  000a9	8a 48 09	 mov	 cl, BYTE PTR [eax+9]
  000ac	84 c9		 test	 cl, cl
  000ae	74 7f		 je	 SHORT $LN87@GetAnimati
  000b0	80 f1 ec	 xor	 cl, -20			; ffffffecH
  000b3	88 4d e5	 mov	 BYTE PTR _szEncEventType$[ebp+9], cl
  000b6	8a 48 0a	 mov	 cl, BYTE PTR [eax+10]
  000b9	84 c9		 test	 cl, cl
  000bb	74 6d		 je	 SHORT $LN86@GetAnimati
  000bd	32 ca		 xor	 cl, dl
  000bf	88 4d e6	 mov	 BYTE PTR _szEncEventType$[ebp+10], cl
  000c2	8a 48 0b	 mov	 cl, BYTE PTR [eax+11]
  000c5	84 c9		 test	 cl, cl
  000c7	74 5b		 je	 SHORT $LN85@GetAnimati
  000c9	80 f1 ea	 xor	 cl, -22			; ffffffeaH
  000cc	80 78 0c 00	 cmp	 BYTE PTR [eax+12], 0
  000d0	88 4d e7	 mov	 BYTE PTR _szEncEventType$[ebp+11], cl
  000d3	0f 84 8f 00 00
	00		 je	 $LN1@GetAnimati
  000d9	8a 48 0d	 mov	 cl, BYTE PTR [eax+13]
  000dc	84 c9		 test	 cl, cl
  000de	74 3e		 je	 SHORT $LN83@GetAnimati
  000e0	80 f1 ec	 xor	 cl, -20			; ffffffecH
  000e3	88 4d e9	 mov	 BYTE PTR _szEncEventType$[ebp+13], cl
  000e6	8a 48 0e	 mov	 cl, BYTE PTR [eax+14]
  000e9	84 c9		 test	 cl, cl
  000eb	74 2c		 je	 SHORT $LN82@GetAnimati
  000ed	32 ca		 xor	 cl, dl
  000ef	88 4d ea	 mov	 BYTE PTR _szEncEventType$[ebp+14], cl
  000f2	8a 48 0f	 mov	 cl, BYTE PTR [eax+15]
  000f5	84 c9		 test	 cl, cl
  000f7	74 1a		 je	 SHORT $LN81@GetAnimati
  000f9	8a 40 10	 mov	 al, BYTE PTR [eax+16]
  000fc	80 f1 ea	 xor	 cl, -22			; ffffffeaH
  000ff	88 4d eb	 mov	 BYTE PTR _szEncEventType$[ebp+15], cl
  00102	84 c0		 test	 al, al
  00104	74 07		 je	 SHORT $LN80@GetAnimati
  00106	34 ed		 xor	 al, -19			; ffffffedH
  00108	88 45 ec	 mov	 BYTE PTR _szEncEventType$[ebp+16], al
  0010b	eb 5b		 jmp	 SHORT $LN1@GetAnimati
$LN80@GetAnimati:
  0010d	c6 45 ec ed	 mov	 BYTE PTR _szEncEventType$[ebp+16], -19 ; ffffffedH
  00111	eb 55		 jmp	 SHORT $LN1@GetAnimati
$LN81@GetAnimati:
  00113	c6 45 eb ea	 mov	 BYTE PTR _szEncEventType$[ebp+15], -22 ; ffffffeaH
  00117	eb 4f		 jmp	 SHORT $LN1@GetAnimati
$LN82@GetAnimati:
  00119	88 55 ea	 mov	 BYTE PTR _szEncEventType$[ebp+14], dl
  0011c	eb 4a		 jmp	 SHORT $LN1@GetAnimati
$LN83@GetAnimati:
  0011e	c6 45 e9 ec	 mov	 BYTE PTR _szEncEventType$[ebp+13], -20 ; ffffffecH
  00122	eb 44		 jmp	 SHORT $LN1@GetAnimati
$LN85@GetAnimati:
  00124	c6 45 e7 ea	 mov	 BYTE PTR _szEncEventType$[ebp+11], -22 ; ffffffeaH
  00128	eb 3e		 jmp	 SHORT $LN1@GetAnimati
$LN86@GetAnimati:
  0012a	88 55 e6	 mov	 BYTE PTR _szEncEventType$[ebp+10], dl
  0012d	eb 39		 jmp	 SHORT $LN1@GetAnimati
$LN87@GetAnimati:
  0012f	c6 45 e5 ec	 mov	 BYTE PTR _szEncEventType$[ebp+9], -20 ; ffffffecH
  00133	eb 33		 jmp	 SHORT $LN1@GetAnimati
$LN88@GetAnimati:
  00135	c6 45 e4 ed	 mov	 BYTE PTR _szEncEventType$[ebp+8], -19 ; ffffffedH
  00139	eb 2d		 jmp	 SHORT $LN1@GetAnimati
$LN89@GetAnimati:
  0013b	c6 45 e3 ea	 mov	 BYTE PTR _szEncEventType$[ebp+7], -22 ; ffffffeaH
  0013f	eb 27		 jmp	 SHORT $LN1@GetAnimati
$LN90@GetAnimati:
  00141	88 55 e2	 mov	 BYTE PTR _szEncEventType$[ebp+6], dl
  00144	eb 22		 jmp	 SHORT $LN1@GetAnimati
$LN91@GetAnimati:
  00146	c6 45 e1 ec	 mov	 BYTE PTR _szEncEventType$[ebp+5], -20 ; ffffffecH
  0014a	eb 1c		 jmp	 SHORT $LN1@GetAnimati
$LN92@GetAnimati:
  0014c	c6 45 e0 ed	 mov	 BYTE PTR _szEncEventType$[ebp+4], -19 ; ffffffedH
  00150	eb 16		 jmp	 SHORT $LN1@GetAnimati
$LN93@GetAnimati:
  00152	c6 45 df ea	 mov	 BYTE PTR _szEncEventType$[ebp+3], -22 ; ffffffeaH
  00156	eb 10		 jmp	 SHORT $LN1@GetAnimati
$LN94@GetAnimati:
  00158	c6 45 de eb	 mov	 BYTE PTR _szEncEventType$[ebp+2], -21 ; ffffffebH
  0015c	eb 0a		 jmp	 SHORT $LN1@GetAnimati
$LN95@GetAnimati:
  0015e	c6 45 dd ec	 mov	 BYTE PTR _szEncEventType$[ebp+1], -20 ; ffffffecH
  00162	eb 04		 jmp	 SHORT $LN1@GetAnimati
$LN96@GetAnimati:
  00164	c6 45 dc ed	 mov	 BYTE PTR _szEncEventType$[ebp], -19 ; ffffffedH
$LN1@GetAnimati:
  00168	6a 03		 push	 3
  0016a	8d 45 dc	 lea	 eax, DWORD PTR _szEncEventType$[ebp]
  0016d	c6 45 e8 00	 mov	 BYTE PTR _szEncEventType$[ebp+12], 0
  00171	59		 pop	 ecx
$LL105@GetAnimati:
  00172	81 30 ed ec eb
	ea		 xor	 DWORD PTR [eax], -353637139 ; eaebecedH
  00178	83 c0 04	 add	 eax, 4
  0017b	49		 dec	 ecx
  0017c	75 f4		 jne	 SHORT $LL105@GetAnimati

; 416  : 		return GetAnimationEventTime(id, szEncEventType);

  0017e	8d 45 dc	 lea	 eax, DWORD PTR _szEncEventType$[ebp]
  00181	50		 push	 eax
  00182	8d 4d c8	 lea	 ecx, DWORD PTR $T553669[ebp]
  00185	ff 15 00 00 00
	00		 call	 DWORD PTR __imp_??0ioHashString@@QAE@PBD@Z
  0018b	83 65 fc 00	 and	 DWORD PTR __$EHRec$[ebp+8], 0
  0018f	8d 45 c8	 lea	 eax, DWORD PTR $T553669[ebp]
  00192	50		 push	 eax
  00193	ff 75 08	 push	 DWORD PTR _id$[ebp]
  00196	8b ce		 mov	 ecx, esi
  00198	ff 15 00 00 00
	00		 call	 DWORD PTR __imp_?GetAnimationEventTime@ioEntityGroup@@QAEMHABVioHashString@@@Z
  0019e	d9 5d d8	 fstp	 DWORD PTR $T553668[ebp]
  001a1	83 4d fc ff	 or	 DWORD PTR __$EHRec$[ebp+8], -1
  001a5	8d 4d c8	 lea	 ecx, DWORD PTR $T553669[ebp]
  001a8	ff 15 00 00 00
	00		 call	 DWORD PTR __imp_??1ioHashString@@QAE@XZ
  001ae	d9 45 d8	 fld	 DWORD PTR $T553668[ebp]

; 417  : 	}

  001b1	e8 00 00 00 00	 call	 __EH_epilog3_GS
  001b6	c2 08 00	 ret	 8
_TEXT	ENDS
;	COMDAT text$x
text$x	SEGMENT
__unwindfunclet$??$GetAnimationEventTime_e@$0N@@ioEntityGroup@@QAEMHAAY0N@$$CBD@Z$0:
  00000	8d 4d c8	 lea	 ecx, DWORD PTR $T553669[ebp]
  00003	ff 25 00 00 00
	00		 jmp	 DWORD PTR __imp_??1ioHashString@@QAE@XZ
__ehhandler$??$GetAnimationEventTime_e@$0N@@ioEntityGroup@@QAEMHAAY0N@$$CBD@Z:
  00009	8b 54 24 08	 mov	 edx, DWORD PTR [esp+8]
  0000d	8d 42 0c	 lea	 eax, DWORD PTR [edx+12]
  00010	8b 4a c4	 mov	 ecx, DWORD PTR [edx-60]
  00013	33 c8		 xor	 ecx, eax
  00015	e8 00 00 00 00	 call	 @__security_check_cookie@4
  0001a	8b 4a fc	 mov	 ecx, DWORD PTR [edx-4]
  0001d	33 c8		 xor	 ecx, eax
  0001f	e8 00 00 00 00	 call	 @__security_check_cookie@4
  00024	b8 00 00 00 00	 mov	 eax, OFFSET __ehfuncinfo$??$GetAnimationEventTime_e@$0N@@ioEntityGroup@@QAEMHAAY0N@$$CBD@Z
  00029	e9 00 00 00 00	 jmp	 ___CxxFrameHandler3
text$x	ENDS
??$GetAnimationEventTime_e@$0N@@ioEntityGroup@@QAEMHAAY0N@$$CBD@Z ENDP ; ioEntityGroup::GetAnimationEventTime_e<13>
PUBLIC	??$GetAnimationEventTime_e@$0M@@ioEntityGroup@@QAEMHAAY0M@$$CBD@Z ; ioEntityGroup::GetAnimationEventTime_e<12>
;	COMDAT xdata$x
; File d:\lost saga for developer\youtube\tutorial\source\src\lsclient\stringprotect.h
xdata$x	SEGMENT
__unwindtable$??$GetAnimationEventTime_e@$0M@@ioEntityGroup@@QAEMHAAY0M@$$CBD@Z DD 0ffffffffH
	DD	FLAT:__unwindfunclet$??$GetAnimationEventTime_e@$0M@@ioEntityGroup@@QAEMHAAY0M@$$CBD@Z$0
__ehfuncinfo$??$GetAnimationEventTime_e@$0M@@ioEntityGroup@@QAEMHAAY0M@$$CBD@Z DD 019930522H
	DD	01H
	DD	FLAT:__unwindtable$??$GetAnimationEventTime_e@$0M@@ioEntityGroup@@QAEMHAAY0M@$$CBD@Z
	DD	2 DUP(00H)
	DD	2 DUP(00H)
	DD	00H
	DD	01H
; Function compile flags: /Ogsp
; File d:\lost saga for developer\youtube\tutorial\source\src\io3dengine\ioentitygroup.h
xdata$x	ENDS
;	COMDAT ??$GetAnimationEventTime_e@$0M@@ioEntityGroup@@QAEMHAAY0M@$$CBD@Z
_TEXT	SEGMENT
$T553704 = -52						; size = 16
$T553703 = -36						; size = 4
_szEncEventType$ = -32					; size = 12
__$EHRec$ = -12						; size = 12
_id$ = 8						; size = 4
_szEventType$ = 12					; size = 4
??$GetAnimationEventTime_e@$0M@@ioEntityGroup@@QAEMHAAY0M@$$CBD@Z PROC ; ioEntityGroup::GetAnimationEventTime_e<12>, COMDAT
; _this$ = ecx

; 414  : 	{

  00000	6a 28		 push	 40			; 00000028H
  00002	b8 00 00 00 00	 mov	 eax, __ehhandler$??$GetAnimationEventTime_e@$0M@@ioEntityGroup@@QAEMHAAY0M@$$CBD@Z
  00007	e8 00 00 00 00	 call	 __EH_prolog3_GS
  0000c	8b 45 0c	 mov	 eax, DWORD PTR _szEventType$[ebp]
  0000f	8b f1		 mov	 esi, ecx

; 415  : 		_ENCSTR(szEventType, szEncEventType);

  00011	8a 08		 mov	 cl, BYTE PTR [eax]
  00013	84 c9		 test	 cl, cl
  00015	0f 84 36 01 00
	00		 je	 $LN96@GetAnimati@2
  0001b	b2 ed		 mov	 dl, -19			; ffffffedH
  0001d	32 ca		 xor	 cl, dl
  0001f	88 4d e0	 mov	 BYTE PTR _szEncEventType$[ebp], cl
  00022	8a 48 01	 mov	 cl, BYTE PTR [eax+1]
  00025	84 c9		 test	 cl, cl
  00027	0f 84 1e 01 00
	00		 je	 $LN95@GetAnimati@2
  0002d	80 f1 ec	 xor	 cl, -20			; ffffffecH
  00030	88 4d e1	 mov	 BYTE PTR _szEncEventType$[ebp+1], cl
  00033	8a 48 02	 mov	 cl, BYTE PTR [eax+2]
  00036	84 c9		 test	 cl, cl
  00038	0f 84 07 01 00
	00		 je	 $LN94@GetAnimati@2
  0003e	80 f1 eb	 xor	 cl, -21			; ffffffebH
  00041	88 4d e2	 mov	 BYTE PTR _szEncEventType$[ebp+2], cl
  00044	8a 48 03	 mov	 cl, BYTE PTR [eax+3]
  00047	84 c9		 test	 cl, cl
  00049	0f 84 f0 00 00
	00		 je	 $LN93@GetAnimati@2
  0004f	80 f1 ea	 xor	 cl, -22			; ffffffeaH
  00052	88 4d e3	 mov	 BYTE PTR _szEncEventType$[ebp+3], cl
  00055	8a 48 04	 mov	 cl, BYTE PTR [eax+4]
  00058	84 c9		 test	 cl, cl
  0005a	0f 84 da 00 00
	00		 je	 $LN92@GetAnimati@2
  00060	32 ca		 xor	 cl, dl
  00062	88 4d e4	 mov	 BYTE PTR _szEncEventType$[ebp+4], cl
  00065	8a 48 05	 mov	 cl, BYTE PTR [eax+5]
  00068	84 c9		 test	 cl, cl
  0006a	0f 84 c4 00 00
	00		 je	 $LN91@GetAnimati@2
  00070	80 f1 ec	 xor	 cl, -20			; ffffffecH
  00073	88 4d e5	 mov	 BYTE PTR _szEncEventType$[ebp+5], cl
  00076	8a 48 06	 mov	 cl, BYTE PTR [eax+6]
  00079	84 c9		 test	 cl, cl
  0007b	0f 84 ad 00 00
	00		 je	 $LN90@GetAnimati@2
  00081	80 f1 eb	 xor	 cl, -21			; ffffffebH
  00084	88 4d e6	 mov	 BYTE PTR _szEncEventType$[ebp+6], cl
  00087	8a 48 07	 mov	 cl, BYTE PTR [eax+7]
  0008a	84 c9		 test	 cl, cl
  0008c	0f 84 96 00 00
	00		 je	 $LN89@GetAnimati@2
  00092	80 f1 ea	 xor	 cl, -22			; ffffffeaH
  00095	88 4d e7	 mov	 BYTE PTR _szEncEventType$[ebp+7], cl
  00098	8a 48 08	 mov	 cl, BYTE PTR [eax+8]
  0009b	84 c9		 test	 cl, cl
  0009d	0f 84 80 00 00
	00		 je	 $LN88@GetAnimati@2
  000a3	32 ca		 xor	 cl, dl
  000a5	88 4d e8	 mov	 BYTE PTR _szEncEventType$[ebp+8], cl
  000a8	8a 48 09	 mov	 cl, BYTE PTR [eax+9]
  000ab	84 c9		 test	 cl, cl
  000ad	74 6e		 je	 SHORT $LN87@GetAnimati@2
  000af	80 f1 ec	 xor	 cl, -20			; ffffffecH
  000b2	88 4d e9	 mov	 BYTE PTR _szEncEventType$[ebp+9], cl
  000b5	8a 48 0a	 mov	 cl, BYTE PTR [eax+10]
  000b8	84 c9		 test	 cl, cl
  000ba	74 5b		 je	 SHORT $LN86@GetAnimati@2
  000bc	80 f1 eb	 xor	 cl, -21			; ffffffebH
  000bf	80 78 0b 00	 cmp	 BYTE PTR [eax+11], 0
  000c3	88 4d ea	 mov	 BYTE PTR _szEncEventType$[ebp+10], cl
  000c6	0f 84 89 00 00
	00		 je	 $LN1@GetAnimati@2
  000cc	8a 48 0c	 mov	 cl, BYTE PTR [eax+12]
  000cf	84 c9		 test	 cl, cl
  000d1	74 3f		 je	 SHORT $LN84@GetAnimati@2
  000d3	32 ca		 xor	 cl, dl
  000d5	88 4d ec	 mov	 BYTE PTR _szEncEventType$[ebp+12], cl
  000d8	8a 48 0d	 mov	 cl, BYTE PTR [eax+13]
  000db	84 c9		 test	 cl, cl
  000dd	74 2d		 je	 SHORT $LN83@GetAnimati@2
  000df	80 f1 ec	 xor	 cl, -20			; ffffffecH
  000e2	88 4d ed	 mov	 BYTE PTR _szEncEventType$[ebp+13], cl
  000e5	8a 48 0e	 mov	 cl, BYTE PTR [eax+14]
  000e8	84 c9		 test	 cl, cl
  000ea	74 1a		 je	 SHORT $LN82@GetAnimati@2
  000ec	8a 40 0f	 mov	 al, BYTE PTR [eax+15]
  000ef	80 f1 eb	 xor	 cl, -21			; ffffffebH
  000f2	88 4d ee	 mov	 BYTE PTR _szEncEventType$[ebp+14], cl
  000f5	84 c0		 test	 al, al
  000f7	74 07		 je	 SHORT $LN81@GetAnimati@2
  000f9	34 ea		 xor	 al, -22			; ffffffeaH
  000fb	88 45 ef	 mov	 BYTE PTR _szEncEventType$[ebp+15], al
  000fe	eb 55		 jmp	 SHORT $LN1@GetAnimati@2
$LN81@GetAnimati@2:
  00100	c6 45 ef ea	 mov	 BYTE PTR _szEncEventType$[ebp+15], -22 ; ffffffeaH
  00104	eb 4f		 jmp	 SHORT $LN1@GetAnimati@2
$LN82@GetAnimati@2:
  00106	c6 45 ee eb	 mov	 BYTE PTR _szEncEventType$[ebp+14], -21 ; ffffffebH
  0010a	eb 49		 jmp	 SHORT $LN1@GetAnimati@2
$LN83@GetAnimati@2:
  0010c	c6 45 ed ec	 mov	 BYTE PTR _szEncEventType$[ebp+13], -20 ; ffffffecH
  00110	eb 43		 jmp	 SHORT $LN1@GetAnimati@2
$LN84@GetAnimati@2:
  00112	88 55 ec	 mov	 BYTE PTR _szEncEventType$[ebp+12], dl
  00115	eb 3e		 jmp	 SHORT $LN1@GetAnimati@2
$LN86@GetAnimati@2:
  00117	c6 45 ea eb	 mov	 BYTE PTR _szEncEventType$[ebp+10], -21 ; ffffffebH
  0011b	eb 38		 jmp	 SHORT $LN1@GetAnimati@2
$LN87@GetAnimati@2:
  0011d	c6 45 e9 ec	 mov	 BYTE PTR _szEncEventType$[ebp+9], -20 ; ffffffecH
  00121	eb 32		 jmp	 SHORT $LN1@GetAnimati@2
$LN88@GetAnimati@2:
  00123	88 55 e8	 mov	 BYTE PTR _szEncEventType$[ebp+8], dl
  00126	eb 2d		 jmp	 SHORT $LN1@GetAnimati@2
$LN89@GetAnimati@2:
  00128	c6 45 e7 ea	 mov	 BYTE PTR _szEncEventType$[ebp+7], -22 ; ffffffeaH
  0012c	eb 27		 jmp	 SHORT $LN1@GetAnimati@2
$LN90@GetAnimati@2:
  0012e	c6 45 e6 eb	 mov	 BYTE PTR _szEncEventType$[ebp+6], -21 ; ffffffebH
  00132	eb 21		 jmp	 SHORT $LN1@GetAnimati@2
$LN91@GetAnimati@2:
  00134	c6 45 e5 ec	 mov	 BYTE PTR _szEncEventType$[ebp+5], -20 ; ffffffecH
  00138	eb 1b		 jmp	 SHORT $LN1@GetAnimati@2
$LN92@GetAnimati@2:
  0013a	88 55 e4	 mov	 BYTE PTR _szEncEventType$[ebp+4], dl
  0013d	eb 16		 jmp	 SHORT $LN1@GetAnimati@2
$LN93@GetAnimati@2:
  0013f	c6 45 e3 ea	 mov	 BYTE PTR _szEncEventType$[ebp+3], -22 ; ffffffeaH
  00143	eb 10		 jmp	 SHORT $LN1@GetAnimati@2
$LN94@GetAnimati@2:
  00145	c6 45 e2 eb	 mov	 BYTE PTR _szEncEventType$[ebp+2], -21 ; ffffffebH
  00149	eb 0a		 jmp	 SHORT $LN1@GetAnimati@2
$LN95@GetAnimati@2:
  0014b	c6 45 e1 ec	 mov	 BYTE PTR _szEncEventType$[ebp+1], -20 ; ffffffecH
  0014f	eb 04		 jmp	 SHORT $LN1@GetAnimati@2
$LN96@GetAnimati@2:
  00151	c6 45 e0 ed	 mov	 BYTE PTR _szEncEventType$[ebp], -19 ; ffffffedH
$LN1@GetAnimati@2:
  00155	6a 02		 push	 2
  00157	8d 45 e0	 lea	 eax, DWORD PTR _szEncEventType$[ebp]
  0015a	c6 45 eb 00	 mov	 BYTE PTR _szEncEventType$[ebp+11], 0
  0015e	59		 pop	 ecx
$LL105@GetAnimati@2:
  0015f	81 30 ed ec eb
	ea		 xor	 DWORD PTR [eax], -353637139 ; eaebecedH
  00165	83 c0 04	 add	 eax, 4
  00168	49		 dec	 ecx
  00169	75 f4		 jne	 SHORT $LL105@GetAnimati@2
  0016b	6a 08		 push	 8
  0016d	58		 pop	 eax
$LL102@GetAnimati@2:
  0016e	8b c8		 mov	 ecx, eax
  00170	81 e1 03 00 00
	80		 and	 ecx, -2147483645	; 80000003H
  00176	79 05		 jns	 SHORT $LN113@GetAnimati@2
  00178	49		 dec	 ecx
  00179	83 c9 fc	 or	 ecx, -4			; fffffffcH
  0017c	41		 inc	 ecx
$LN113@GetAnimati@2:
  0017d	b2 ed		 mov	 dl, -19			; ffffffedH
  0017f	2a d1		 sub	 dl, cl
  00181	30 54 05 e0	 xor	 BYTE PTR _szEncEventType$[ebp+eax], dl
  00185	40		 inc	 eax
  00186	83 f8 0b	 cmp	 eax, 11			; 0000000bH
  00189	7c e3		 jl	 SHORT $LL102@GetAnimati@2

; 416  : 		return GetAnimationEventTime(id, szEncEventType);

  0018b	8d 45 e0	 lea	 eax, DWORD PTR _szEncEventType$[ebp]
  0018e	50		 push	 eax
  0018f	8d 4d cc	 lea	 ecx, DWORD PTR $T553704[ebp]
  00192	ff 15 00 00 00
	00		 call	 DWORD PTR __imp_??0ioHashString@@QAE@PBD@Z
  00198	83 65 fc 00	 and	 DWORD PTR __$EHRec$[ebp+8], 0
  0019c	8d 45 cc	 lea	 eax, DWORD PTR $T553704[ebp]
  0019f	50		 push	 eax
  001a0	ff 75 08	 push	 DWORD PTR _id$[ebp]
  001a3	8b ce		 mov	 ecx, esi
  001a5	ff 15 00 00 00
	00		 call	 DWORD PTR __imp_?GetAnimationEventTime@ioEntityGroup@@QAEMHABVioHashString@@@Z
  001ab	d9 5d dc	 fstp	 DWORD PTR $T553703[ebp]
  001ae	83 4d fc ff	 or	 DWORD PTR __$EHRec$[ebp+8], -1
  001b2	8d 4d cc	 lea	 ecx, DWORD PTR $T553704[ebp]
  001b5	ff 15 00 00 00
	00		 call	 DWORD PTR __imp_??1ioHashString@@QAE@XZ
  001bb	d9 45 dc	 fld	 DWORD PTR $T553703[ebp]

; 417  : 	}

  001be	e8 00 00 00 00	 call	 __EH_epilog3_GS
  001c3	c2 08 00	 ret	 8
_TEXT	ENDS
;	COMDAT text$x
text$x	SEGMENT
__unwindfunclet$??$GetAnimationEventTime_e@$0M@@ioEntityGroup@@QAEMHAAY0M@$$CBD@Z$0:
  00000	8d 4d cc	 lea	 ecx, DWORD PTR $T553704[ebp]
  00003	ff 25 00 00 00
	00		 jmp	 DWORD PTR __imp_??1ioHashString@@QAE@XZ
__ehhandler$??$GetAnimationEventTime_e@$0M@@ioEntityGroup@@QAEMHAAY0M@$$CBD@Z:
  00009	8b 54 24 08	 mov	 edx, DWORD PTR [esp+8]
  0000d	8d 42 0c	 lea	 eax, DWORD PTR [edx+12]
  00010	8b 4a c8	 mov	 ecx, DWORD PTR [edx-56]
  00013	33 c8		 xor	 ecx, eax
  00015	e8 00 00 00 00	 call	 @__security_check_cookie@4
  0001a	8b 4a fc	 mov	 ecx, DWORD PTR [edx-4]
  0001d	33 c8		 xor	 ecx, eax
  0001f	e8 00 00 00 00	 call	 @__security_check_cookie@4
  00024	b8 00 00 00 00	 mov	 eax, OFFSET __ehfuncinfo$??$GetAnimationEventTime_e@$0M@@ioEntityGroup@@QAEMHAAY0M@$$CBD@Z
  00029	e9 00 00 00 00	 jmp	 ___CxxFrameHandler3
text$x	ENDS
??$GetAnimationEventTime_e@$0M@@ioEntityGroup@@QAEMHAAY0M@$$CBD@Z ENDP ; ioEntityGroup::GetAnimationEventTime_e<12>
PUBLIC	??$GetAnimationEventTime_e@$06@ioEntityGroup@@QAEMHAAY06$$CBD@Z ; ioEntityGroup::GetAnimationEventTime_e<7>
;	COMDAT xdata$x
; File d:\lost saga for developer\youtube\tutorial\source\src\lsclient\stringprotect.h
xdata$x	SEGMENT
__unwindtable$??$GetAnimationEventTime_e@$06@ioEntityGroup@@QAEMHAAY06$$CBD@Z DD 0ffffffffH
	DD	FLAT:__unwindfunclet$??$GetAnimationEventTime_e@$06@ioEntityGroup@@QAEMHAAY06$$CBD@Z$0
__ehfuncinfo$??$GetAnimationEventTime_e@$06@ioEntityGroup@@QAEMHAAY06$$CBD@Z DD 019930522H
	DD	01H
	DD	FLAT:__unwindtable$??$GetAnimationEventTime_e@$06@ioEntityGroup@@QAEMHAAY06$$CBD@Z
	DD	2 DUP(00H)
	DD	2 DUP(00H)
	DD	00H
	DD	01H
; Function compile flags: /Ogsp
; File d:\lost saga for developer\youtube\tutorial\source\src\io3dengine\ioentitygroup.h
xdata$x	ENDS
;	COMDAT ??$GetAnimationEventTime_e@$06@ioEntityGroup@@QAEMHAAY06$$CBD@Z
_TEXT	SEGMENT
$T553735 = -48						; size = 16
$T553734 = -32						; size = 4
_szEncEventType$ = -28					; size = 7
__$EHRec$ = -12						; size = 12
_id$ = 8						; size = 4
_szEventType$ = 12					; size = 4
??$GetAnimationEventTime_e@$06@ioEntityGroup@@QAEMHAAY06$$CBD@Z PROC ; ioEntityGroup::GetAnimationEventTime_e<7>, COMDAT
; _this$ = ecx

; 414  : 	{

  00000	6a 24		 push	 36			; 00000024H
  00002	b8 00 00 00 00	 mov	 eax, __ehhandler$??$GetAnimationEventTime_e@$06@ioEntityGroup@@QAEMHAAY06$$CBD@Z
  00007	e8 00 00 00 00	 call	 __EH_prolog3_GS
  0000c	8b 45 0c	 mov	 eax, DWORD PTR _szEventType$[ebp]
  0000f	8b f1		 mov	 esi, ecx

; 415  : 		_ENCSTR(szEventType, szEncEventType);

  00011	8a 08		 mov	 cl, BYTE PTR [eax]
  00013	84 c9		 test	 cl, cl
  00015	0f 84 c0 00 00
	00		 je	 $LN96@GetAnimati@3
  0001b	80 f1 ed	 xor	 cl, -19			; ffffffedH
  0001e	88 4d e4	 mov	 BYTE PTR _szEncEventType$[ebp], cl
  00021	8a 48 01	 mov	 cl, BYTE PTR [eax+1]
  00024	84 c9		 test	 cl, cl
  00026	0f 84 a9 00 00
	00		 je	 $LN95@GetAnimati@3
  0002c	80 f1 ec	 xor	 cl, -20			; ffffffecH
  0002f	88 4d e5	 mov	 BYTE PTR _szEncEventType$[ebp+1], cl
  00032	8a 48 02	 mov	 cl, BYTE PTR [eax+2]
  00035	84 c9		 test	 cl, cl
  00037	0f 84 92 00 00
	00		 je	 $LN94@GetAnimati@3
  0003d	80 f1 eb	 xor	 cl, -21			; ffffffebH
  00040	88 4d e6	 mov	 BYTE PTR _szEncEventType$[ebp+2], cl
  00043	8a 48 03	 mov	 cl, BYTE PTR [eax+3]
  00046	84 c9		 test	 cl, cl
  00048	74 7f		 je	 SHORT $LN93@GetAnimati@3
  0004a	80 f1 ea	 xor	 cl, -22			; ffffffeaH
  0004d	88 4d e7	 mov	 BYTE PTR _szEncEventType$[ebp+3], cl
  00050	8a 48 04	 mov	 cl, BYTE PTR [eax+4]
  00053	84 c9		 test	 cl, cl
  00055	74 6c		 je	 SHORT $LN92@GetAnimati@3
  00057	80 f1 ed	 xor	 cl, -19			; ffffffedH
  0005a	88 4d e8	 mov	 BYTE PTR _szEncEventType$[ebp+4], cl
  0005d	8a 48 05	 mov	 cl, BYTE PTR [eax+5]
  00060	84 c9		 test	 cl, cl
  00062	74 59		 je	 SHORT $LN91@GetAnimati@3
  00064	80 f1 ec	 xor	 cl, -20			; ffffffecH
  00067	80 78 06 00	 cmp	 BYTE PTR [eax+6], 0
  0006b	88 4d e9	 mov	 BYTE PTR _szEncEventType$[ebp+5], cl
  0006e	74 6f		 je	 SHORT $LN1@GetAnimati@3
  00070	8a 48 07	 mov	 cl, BYTE PTR [eax+7]
  00073	84 c9		 test	 cl, cl
  00075	74 40		 je	 SHORT $LN89@GetAnimati@3
  00077	80 f1 ea	 xor	 cl, -22			; ffffffeaH
  0007a	88 4d eb	 mov	 BYTE PTR _szEncEventType$[ebp+7], cl
  0007d	8a 48 08	 mov	 cl, BYTE PTR [eax+8]
  00080	84 c9		 test	 cl, cl
  00082	74 2d		 je	 SHORT $LN88@GetAnimati@3
  00084	80 f1 ed	 xor	 cl, -19			; ffffffedH
  00087	88 4d ec	 mov	 BYTE PTR _szEncEventType$[ebp+8], cl
  0008a	8a 48 09	 mov	 cl, BYTE PTR [eax+9]
  0008d	84 c9		 test	 cl, cl
  0008f	74 1a		 je	 SHORT $LN87@GetAnimati@3
  00091	8a 40 0a	 mov	 al, BYTE PTR [eax+10]
  00094	80 f1 ec	 xor	 cl, -20			; ffffffecH
  00097	88 4d ed	 mov	 BYTE PTR _szEncEventType$[ebp+9], cl
  0009a	84 c0		 test	 al, al
  0009c	74 07		 je	 SHORT $LN86@GetAnimati@3
  0009e	34 eb		 xor	 al, -21			; ffffffebH
  000a0	88 45 ee	 mov	 BYTE PTR _szEncEventType$[ebp+10], al
  000a3	eb 3a		 jmp	 SHORT $LN1@GetAnimati@3
$LN86@GetAnimati@3:
  000a5	c6 45 ee eb	 mov	 BYTE PTR _szEncEventType$[ebp+10], -21 ; ffffffebH
  000a9	eb 34		 jmp	 SHORT $LN1@GetAnimati@3
$LN87@GetAnimati@3:
  000ab	c6 45 ed ec	 mov	 BYTE PTR _szEncEventType$[ebp+9], -20 ; ffffffecH
  000af	eb 2e		 jmp	 SHORT $LN1@GetAnimati@3
$LN88@GetAnimati@3:
  000b1	c6 45 ec ed	 mov	 BYTE PTR _szEncEventType$[ebp+8], -19 ; ffffffedH
  000b5	eb 28		 jmp	 SHORT $LN1@GetAnimati@3
$LN89@GetAnimati@3:
  000b7	c6 45 eb ea	 mov	 BYTE PTR _szEncEventType$[ebp+7], -22 ; ffffffeaH
  000bb	eb 22		 jmp	 SHORT $LN1@GetAnimati@3
$LN91@GetAnimati@3:
  000bd	c6 45 e9 ec	 mov	 BYTE PTR _szEncEventType$[ebp+5], -20 ; ffffffecH
  000c1	eb 1c		 jmp	 SHORT $LN1@GetAnimati@3
$LN92@GetAnimati@3:
  000c3	c6 45 e8 ed	 mov	 BYTE PTR _szEncEventType$[ebp+4], -19 ; ffffffedH
  000c7	eb 16		 jmp	 SHORT $LN1@GetAnimati@3
$LN93@GetAnimati@3:
  000c9	c6 45 e7 ea	 mov	 BYTE PTR _szEncEventType$[ebp+3], -22 ; ffffffeaH
  000cd	eb 10		 jmp	 SHORT $LN1@GetAnimati@3
$LN94@GetAnimati@3:
  000cf	c6 45 e6 eb	 mov	 BYTE PTR _szEncEventType$[ebp+2], -21 ; ffffffebH
  000d3	eb 0a		 jmp	 SHORT $LN1@GetAnimati@3
$LN95@GetAnimati@3:
  000d5	c6 45 e5 ec	 mov	 BYTE PTR _szEncEventType$[ebp+1], -20 ; ffffffecH
  000d9	eb 04		 jmp	 SHORT $LN1@GetAnimati@3
$LN96@GetAnimati@3:
  000db	c6 45 e4 ed	 mov	 BYTE PTR _szEncEventType$[ebp], -19 ; ffffffedH
$LN1@GetAnimati@3:
  000df	81 75 e4 ed ec
	eb ea		 xor	 DWORD PTR _szEncEventType$[ebp], -353637139 ; eaebecedH
  000e6	6a 04		 push	 4
  000e8	c6 45 ea 00	 mov	 BYTE PTR _szEncEventType$[ebp+6], 0
  000ec	58		 pop	 eax
$LL102@GetAnimati@3:
  000ed	8b c8		 mov	 ecx, eax
  000ef	81 e1 03 00 00
	80		 and	 ecx, -2147483645	; 80000003H
  000f5	79 05		 jns	 SHORT $LN113@GetAnimati@3
  000f7	49		 dec	 ecx
  000f8	83 c9 fc	 or	 ecx, -4			; fffffffcH
  000fb	41		 inc	 ecx
$LN113@GetAnimati@3:
  000fc	b2 ed		 mov	 dl, -19			; ffffffedH
  000fe	2a d1		 sub	 dl, cl
  00100	30 54 05 e4	 xor	 BYTE PTR _szEncEventType$[ebp+eax], dl
  00104	40		 inc	 eax
  00105	83 f8 06	 cmp	 eax, 6
  00108	7c e3		 jl	 SHORT $LL102@GetAnimati@3

; 416  : 		return GetAnimationEventTime(id, szEncEventType);

  0010a	8d 45 e4	 lea	 eax, DWORD PTR _szEncEventType$[ebp]
  0010d	50		 push	 eax
  0010e	8d 4d d0	 lea	 ecx, DWORD PTR $T553735[ebp]
  00111	ff 15 00 00 00
	00		 call	 DWORD PTR __imp_??0ioHashString@@QAE@PBD@Z
  00117	83 65 fc 00	 and	 DWORD PTR __$EHRec$[ebp+8], 0
  0011b	8d 45 d0	 lea	 eax, DWORD PTR $T553735[ebp]
  0011e	50		 push	 eax
  0011f	ff 75 08	 push	 DWORD PTR _id$[ebp]
  00122	8b ce		 mov	 ecx, esi
  00124	ff 15 00 00 00
	00		 call	 DWORD PTR __imp_?GetAnimationEventTime@ioEntityGroup@@QAEMHABVioHashString@@@Z
  0012a	d9 5d e0	 fstp	 DWORD PTR $T553734[ebp]
  0012d	83 4d fc ff	 or	 DWORD PTR __$EHRec$[ebp+8], -1
  00131	8d 4d d0	 lea	 ecx, DWORD PTR $T553735[ebp]
  00134	ff 15 00 00 00
	00		 call	 DWORD PTR __imp_??1ioHashString@@QAE@XZ
  0013a	d9 45 e0	 fld	 DWORD PTR $T553734[ebp]

; 417  : 	}

  0013d	e8 00 00 00 00	 call	 __EH_epilog3_GS
  00142	c2 08 00	 ret	 8
_TEXT	ENDS
;	COMDAT text$x
text$x	SEGMENT
__unwindfunclet$??$GetAnimationEventTime_e@$06@ioEntityGroup@@QAEMHAAY06$$CBD@Z$0:
  00000	8d 4d d0	 lea	 ecx, DWORD PTR $T553735[ebp]
  00003	ff 25 00 00 00
	00		 jmp	 DWORD PTR __imp_??1ioHashString@@QAE@XZ
__ehhandler$??$GetAnimationEventTime_e@$06@ioEntityGroup@@QAEMHAAY06$$CBD@Z:
  00009	8b 54 24 08	 mov	 edx, DWORD PTR [esp+8]
  0000d	8d 42 0c	 lea	 eax, DWORD PTR [edx+12]
  00010	8b 4a cc	 mov	 ecx, DWORD PTR [edx-52]
  00013	33 c8		 xor	 ecx, eax
  00015	e8 00 00 00 00	 call	 @__security_check_cookie@4
  0001a	8b 4a fc	 mov	 ecx, DWORD PTR [edx-4]
  0001d	33 c8		 xor	 ecx, eax
  0001f	e8 00 00 00 00	 call	 @__security_check_cookie@4
  00024	b8 00 00 00 00	 mov	 eax, OFFSET __ehfuncinfo$??$GetAnimationEventTime_e@$06@ioEntityGroup@@QAEMHAAY06$$CBD@Z
  00029	e9 00 00 00 00	 jmp	 ___CxxFrameHandler3
text$x	ENDS
??$GetAnimationEventTime_e@$06@ioEntityGroup@@QAEMHAAY06$$CBD@Z ENDP ; ioEntityGroup::GetAnimationEventTime_e<7>
PUBLIC	??$GetAnimationEventTime_e@$0L@@ioEntityGroup@@QAEMHAAY0L@$$CBD@Z ; ioEntityGroup::GetAnimationEventTime_e<11>
;	COMDAT xdata$x
; File d:\lost saga for developer\youtube\tutorial\source\src\lsclient\stringprotect.h
xdata$x	SEGMENT
__unwindtable$??$GetAnimationEventTime_e@$0L@@ioEntityGroup@@QAEMHAAY0L@$$CBD@Z DD 0ffffffffH
	DD	FLAT:__unwindfunclet$??$GetAnimationEventTime_e@$0L@@ioEntityGroup@@QAEMHAAY0L@$$CBD@Z$0
__ehfuncinfo$??$GetAnimationEventTime_e@$0L@@ioEntityGroup@@QAEMHAAY0L@$$CBD@Z DD 019930522H
	DD	01H
	DD	FLAT:__unwindtable$??$GetAnimationEventTime_e@$0L@@ioEntityGroup@@QAEMHAAY0L@$$CBD@Z
	DD	2 DUP(00H)
	DD	2 DUP(00H)
	DD	00H
	DD	01H
; Function compile flags: /Ogsp
; File d:\lost saga for developer\youtube\tutorial\source\src\io3dengine\ioentitygroup.h
xdata$x	ENDS
;	COMDAT ??$GetAnimationEventTime_e@$0L@@ioEntityGroup@@QAEMHAAY0L@$$CBD@Z
_TEXT	SEGMENT
$T553766 = -52						; size = 16
$T553765 = -36						; size = 4
_szEncEventType$ = -32					; size = 11
__$EHRec$ = -12						; size = 12
_id$ = 8						; size = 4
_szEventType$ = 12					; size = 4
??$GetAnimationEventTime_e@$0L@@ioEntityGroup@@QAEMHAAY0L@$$CBD@Z PROC ; ioEntityGroup::GetAnimationEventTime_e<11>, COMDAT
; _this$ = ecx

; 414  : 	{

  00000	6a 28		 push	 40			; 00000028H
  00002	b8 00 00 00 00	 mov	 eax, __ehhandler$??$GetAnimationEventTime_e@$0L@@ioEntityGroup@@QAEMHAAY0L@$$CBD@Z
  00007	e8 00 00 00 00	 call	 __EH_prolog3_GS
  0000c	8b 45 0c	 mov	 eax, DWORD PTR _szEventType$[ebp]
  0000f	8b f1		 mov	 esi, ecx

; 415  : 		_ENCSTR(szEventType, szEncEventType);

  00011	8a 08		 mov	 cl, BYTE PTR [eax]
  00013	84 c9		 test	 cl, cl
  00015	0f 84 1b 01 00
	00		 je	 $LN96@GetAnimati@4
  0001b	b2 ed		 mov	 dl, -19			; ffffffedH
  0001d	32 ca		 xor	 cl, dl
  0001f	88 4d e0	 mov	 BYTE PTR _szEncEventType$[ebp], cl
  00022	8a 48 01	 mov	 cl, BYTE PTR [eax+1]
  00025	84 c9		 test	 cl, cl
  00027	0f 84 03 01 00
	00		 je	 $LN95@GetAnimati@4
  0002d	80 f1 ec	 xor	 cl, -20			; ffffffecH
  00030	88 4d e1	 mov	 BYTE PTR _szEncEventType$[ebp+1], cl
  00033	8a 48 02	 mov	 cl, BYTE PTR [eax+2]
  00036	84 c9		 test	 cl, cl
  00038	0f 84 ec 00 00
	00		 je	 $LN94@GetAnimati@4
  0003e	80 f1 eb	 xor	 cl, -21			; ffffffebH
  00041	88 4d e2	 mov	 BYTE PTR _szEncEventType$[ebp+2], cl
  00044	8a 48 03	 mov	 cl, BYTE PTR [eax+3]
  00047	84 c9		 test	 cl, cl
  00049	0f 84 d5 00 00
	00		 je	 $LN93@GetAnimati@4
  0004f	80 f1 ea	 xor	 cl, -22			; ffffffeaH
  00052	88 4d e3	 mov	 BYTE PTR _szEncEventType$[ebp+3], cl
  00055	8a 48 04	 mov	 cl, BYTE PTR [eax+4]
  00058	84 c9		 test	 cl, cl
  0005a	0f 84 bf 00 00
	00		 je	 $LN92@GetAnimati@4
  00060	32 ca		 xor	 cl, dl
  00062	88 4d e4	 mov	 BYTE PTR _szEncEventType$[ebp+4], cl
  00065	8a 48 05	 mov	 cl, BYTE PTR [eax+5]
  00068	84 c9		 test	 cl, cl
  0006a	0f 84 a9 00 00
	00		 je	 $LN91@GetAnimati@4
  00070	80 f1 ec	 xor	 cl, -20			; ffffffecH
  00073	88 4d e5	 mov	 BYTE PTR _szEncEventType$[ebp+5], cl
  00076	8a 48 06	 mov	 cl, BYTE PTR [eax+6]
  00079	84 c9		 test	 cl, cl
  0007b	0f 84 92 00 00
	00		 je	 $LN90@GetAnimati@4
  00081	80 f1 eb	 xor	 cl, -21			; ffffffebH
  00084	88 4d e6	 mov	 BYTE PTR _szEncEventType$[ebp+6], cl
  00087	8a 48 07	 mov	 cl, BYTE PTR [eax+7]
  0008a	84 c9		 test	 cl, cl
  0008c	74 7f		 je	 SHORT $LN89@GetAnimati@4
  0008e	80 f1 ea	 xor	 cl, -22			; ffffffeaH
  00091	88 4d e7	 mov	 BYTE PTR _szEncEventType$[ebp+7], cl
  00094	8a 48 08	 mov	 cl, BYTE PTR [eax+8]
  00097	84 c9		 test	 cl, cl
  00099	74 6d		 je	 SHORT $LN88@GetAnimati@4
  0009b	32 ca		 xor	 cl, dl
  0009d	88 4d e8	 mov	 BYTE PTR _szEncEventType$[ebp+8], cl
  000a0	8a 48 09	 mov	 cl, BYTE PTR [eax+9]
  000a3	84 c9		 test	 cl, cl
  000a5	74 5b		 je	 SHORT $LN87@GetAnimati@4
  000a7	80 f1 ec	 xor	 cl, -20			; ffffffecH
  000aa	80 78 0a 00	 cmp	 BYTE PTR [eax+10], 0
  000ae	88 4d e9	 mov	 BYTE PTR _szEncEventType$[ebp+9], cl
  000b1	0f 84 83 00 00
	00		 je	 $LN1@GetAnimati@4
  000b7	8a 48 0b	 mov	 cl, BYTE PTR [eax+11]
  000ba	84 c9		 test	 cl, cl
  000bc	74 3e		 je	 SHORT $LN85@GetAnimati@4
  000be	80 f1 ea	 xor	 cl, -22			; ffffffeaH
  000c1	88 4d eb	 mov	 BYTE PTR _szEncEventType$[ebp+11], cl
  000c4	8a 48 0c	 mov	 cl, BYTE PTR [eax+12]
  000c7	84 c9		 test	 cl, cl
  000c9	74 2c		 je	 SHORT $LN84@GetAnimati@4
  000cb	32 ca		 xor	 cl, dl
  000cd	88 4d ec	 mov	 BYTE PTR _szEncEventType$[ebp+12], cl
  000d0	8a 48 0d	 mov	 cl, BYTE PTR [eax+13]
  000d3	84 c9		 test	 cl, cl
  000d5	74 1a		 je	 SHORT $LN83@GetAnimati@4
  000d7	8a 40 0e	 mov	 al, BYTE PTR [eax+14]
  000da	80 f1 ec	 xor	 cl, -20			; ffffffecH
  000dd	88 4d ed	 mov	 BYTE PTR _szEncEventType$[ebp+13], cl
  000e0	84 c0		 test	 al, al
  000e2	74 07		 je	 SHORT $LN82@GetAnimati@4
  000e4	34 eb		 xor	 al, -21			; ffffffebH
  000e6	88 45 ee	 mov	 BYTE PTR _szEncEventType$[ebp+14], al
  000e9	eb 4f		 jmp	 SHORT $LN1@GetAnimati@4
$LN82@GetAnimati@4:
  000eb	c6 45 ee eb	 mov	 BYTE PTR _szEncEventType$[ebp+14], -21 ; ffffffebH
  000ef	eb 49		 jmp	 SHORT $LN1@GetAnimati@4
$LN83@GetAnimati@4:
  000f1	c6 45 ed ec	 mov	 BYTE PTR _szEncEventType$[ebp+13], -20 ; ffffffecH
  000f5	eb 43		 jmp	 SHORT $LN1@GetAnimati@4
$LN84@GetAnimati@4:
  000f7	88 55 ec	 mov	 BYTE PTR _szEncEventType$[ebp+12], dl
  000fa	eb 3e		 jmp	 SHORT $LN1@GetAnimati@4
$LN85@GetAnimati@4:
  000fc	c6 45 eb ea	 mov	 BYTE PTR _szEncEventType$[ebp+11], -22 ; ffffffeaH
  00100	eb 38		 jmp	 SHORT $LN1@GetAnimati@4
$LN87@GetAnimati@4:
  00102	c6 45 e9 ec	 mov	 BYTE PTR _szEncEventType$[ebp+9], -20 ; ffffffecH
  00106	eb 32		 jmp	 SHORT $LN1@GetAnimati@4
$LN88@GetAnimati@4:
  00108	88 55 e8	 mov	 BYTE PTR _szEncEventType$[ebp+8], dl
  0010b	eb 2d		 jmp	 SHORT $LN1@GetAnimati@4
$LN89@GetAnimati@4:
  0010d	c6 45 e7 ea	 mov	 BYTE PTR _szEncEventType$[ebp+7], -22 ; ffffffeaH
  00111	eb 27		 jmp	 SHORT $LN1@GetAnimati@4
$LN90@GetAnimati@4:
  00113	c6 45 e6 eb	 mov	 BYTE PTR _szEncEventType$[ebp+6], -21 ; ffffffebH
  00117	eb 21		 jmp	 SHORT $LN1@GetAnimati@4
$LN91@GetAnimati@4:
  00119	c6 45 e5 ec	 mov	 BYTE PTR _szEncEventType$[ebp+5], -20 ; ffffffecH
  0011d	eb 1b		 jmp	 SHORT $LN1@GetAnimati@4
$LN92@GetAnimati@4:
  0011f	88 55 e4	 mov	 BYTE PTR _szEncEventType$[ebp+4], dl
  00122	eb 16		 jmp	 SHORT $LN1@GetAnimati@4
$LN93@GetAnimati@4:
  00124	c6 45 e3 ea	 mov	 BYTE PTR _szEncEventType$[ebp+3], -22 ; ffffffeaH
  00128	eb 10		 jmp	 SHORT $LN1@GetAnimati@4
$LN94@GetAnimati@4:
  0012a	c6 45 e2 eb	 mov	 BYTE PTR _szEncEventType$[ebp+2], -21 ; ffffffebH
  0012e	eb 0a		 jmp	 SHORT $LN1@GetAnimati@4
$LN95@GetAnimati@4:
  00130	c6 45 e1 ec	 mov	 BYTE PTR _szEncEventType$[ebp+1], -20 ; ffffffecH
  00134	eb 04		 jmp	 SHORT $LN1@GetAnimati@4
$LN96@GetAnimati@4:
  00136	c6 45 e0 ed	 mov	 BYTE PTR _szEncEventType$[ebp], -19 ; ffffffedH
$LN1@GetAnimati@4:
  0013a	6a 02		 push	 2
  0013c	8d 45 e0	 lea	 eax, DWORD PTR _szEncEventType$[ebp]
  0013f	c6 45 ea 00	 mov	 BYTE PTR _szEncEventType$[ebp+10], 0
  00143	59		 pop	 ecx
$LL105@GetAnimati@4:
  00144	81 30 ed ec eb
	ea		 xor	 DWORD PTR [eax], -353637139 ; eaebecedH
  0014a	83 c0 04	 add	 eax, 4
  0014d	49		 dec	 ecx
  0014e	75 f4		 jne	 SHORT $LL105@GetAnimati@4
  00150	6a 08		 push	 8
  00152	58		 pop	 eax
$LL102@GetAnimati@4:
  00153	8b c8		 mov	 ecx, eax
  00155	81 e1 03 00 00
	80		 and	 ecx, -2147483645	; 80000003H
  0015b	79 05		 jns	 SHORT $LN113@GetAnimati@4
  0015d	49		 dec	 ecx
  0015e	83 c9 fc	 or	 ecx, -4			; fffffffcH
  00161	41		 inc	 ecx
$LN113@GetAnimati@4:
  00162	b2 ed		 mov	 dl, -19			; ffffffedH
  00164	2a d1		 sub	 dl, cl
  00166	30 54 05 e0	 xor	 BYTE PTR _szEncEventType$[ebp+eax], dl
  0016a	40		 inc	 eax
  0016b	83 f8 0a	 cmp	 eax, 10			; 0000000aH
  0016e	7c e3		 jl	 SHORT $LL102@GetAnimati@4

; 416  : 		return GetAnimationEventTime(id, szEncEventType);

  00170	8d 45 e0	 lea	 eax, DWORD PTR _szEncEventType$[ebp]
  00173	50		 push	 eax
  00174	8d 4d cc	 lea	 ecx, DWORD PTR $T553766[ebp]
  00177	ff 15 00 00 00
	00		 call	 DWORD PTR __imp_??0ioHashString@@QAE@PBD@Z
  0017d	83 65 fc 00	 and	 DWORD PTR __$EHRec$[ebp+8], 0
  00181	8d 45 cc	 lea	 eax, DWORD PTR $T553766[ebp]
  00184	50		 push	 eax
  00185	ff 75 08	 push	 DWORD PTR _id$[ebp]
  00188	8b ce		 mov	 ecx, esi
  0018a	ff 15 00 00 00
	00		 call	 DWORD PTR __imp_?GetAnimationEventTime@ioEntityGroup@@QAEMHABVioHashString@@@Z
  00190	d9 5d dc	 fstp	 DWORD PTR $T553765[ebp]
  00193	83 4d fc ff	 or	 DWORD PTR __$EHRec$[ebp+8], -1
  00197	8d 4d cc	 lea	 ecx, DWORD PTR $T553766[ebp]
  0019a	ff 15 00 00 00
	00		 call	 DWORD PTR __imp_??1ioHashString@@QAE@XZ
  001a0	d9 45 dc	 fld	 DWORD PTR $T553765[ebp]

; 417  : 	}

  001a3	e8 00 00 00 00	 call	 __EH_epilog3_GS
  001a8	c2 08 00	 ret	 8
_TEXT	ENDS
;	COMDAT text$x
text$x	SEGMENT
__unwindfunclet$??$GetAnimationEventTime_e@$0L@@ioEntityGroup@@QAEMHAAY0L@$$CBD@Z$0:
  00000	8d 4d cc	 lea	 ecx, DWORD PTR $T553766[ebp]
  00003	ff 25 00 00 00
	00		 jmp	 DWORD PTR __imp_??1ioHashString@@QAE@XZ
__ehhandler$??$GetAnimationEventTime_e@$0L@@ioEntityGroup@@QAEMHAAY0L@$$CBD@Z:
  00009	8b 54 24 08	 mov	 edx, DWORD PTR [esp+8]
  0000d	8d 42 0c	 lea	 eax, DWORD PTR [edx+12]
  00010	8b 4a c8	 mov	 ecx, DWORD PTR [edx-56]
  00013	33 c8		 xor	 ecx, eax
  00015	e8 00 00 00 00	 call	 @__security_check_cookie@4
  0001a	8b 4a fc	 mov	 ecx, DWORD PTR [edx-4]
  0001d	33 c8		 xor	 ecx, eax
  0001f	e8 00 00 00 00	 call	 @__security_check_cookie@4
  00024	b8 00 00 00 00	 mov	 eax, OFFSET __ehfuncinfo$??$GetAnimationEventTime_e@$0L@@ioEntityGroup@@QAEMHAAY0L@$$CBD@Z
  00029	e9 00 00 00 00	 jmp	 ___CxxFrameHandler3
text$x	ENDS
??$GetAnimationEventTime_e@$0L@@ioEntityGroup@@QAEMHAAY0L@$$CBD@Z ENDP ; ioEntityGroup::GetAnimationEventTime_e<11>
PUBLIC	?construct@?$allocator@UForceInfo@@@std@@QAEXPAUForceInfo@@ABU3@@Z ; std::allocator<ForceInfo>::construct
; Function compile flags: /Ogsp
; File c:\program files (x86)\microsoft visual studio 10.0\vc\include\xmemory
;	COMDAT ?construct@?$allocator@UForceInfo@@@std@@QAEXPAUForceInfo@@ABU3@@Z
_TEXT	SEGMENT
__Ptr$ = 8						; size = 4
__Val$ = 12						; size = 4
?construct@?$allocator@UForceInfo@@@std@@QAEXPAUForceInfo@@ABU3@@Z PROC ; std::allocator<ForceInfo>::construct, COMDAT
; _this$ = ecx

; 196  : 		{	// construct object at _Ptr with value _Val

  00000	55		 push	 ebp
  00001	8b ec		 mov	 ebp, esp
  00003	57		 push	 edi

; 197  : 		_Construct(_Ptr, _Val);

  00004	8b 7d 08	 mov	 edi, DWORD PTR __Ptr$[ebp]
  00007	85 ff		 test	 edi, edi
  00009	74 08		 je	 SHORT $LN5@construct
  0000b	56		 push	 esi
  0000c	8b 75 0c	 mov	 esi, DWORD PTR __Val$[ebp]
  0000f	a5		 movsd
  00010	a5		 movsd
  00011	a5		 movsd
  00012	5e		 pop	 esi
$LN5@construct:
  00013	5f		 pop	 edi

; 198  : 		}

  00014	5d		 pop	 ebp
  00015	c2 08 00	 ret	 8
?construct@?$allocator@UForceInfo@@@std@@QAEXPAUForceInfo@@ABU3@@Z ENDP ; std::allocator<ForceInfo>::construct
_TEXT	ENDS
PUBLIC	??$_Construct@UWeaponInfo@@ABU1@@std@@YAXPAUWeaponInfo@@ABU1@@Z ; std::_Construct<WeaponInfo,WeaponInfo const &>
EXTRN	__EH_epilog3:PROC
EXTRN	__EH_prolog3:PROC
;	COMDAT xdata$x
; File c:\program files (x86)\microsoft visual studio 10.0\vc\include\utility
xdata$x	SEGMENT
__unwindtable$??$_Construct@UWeaponInfo@@ABU1@@std@@YAXPAUWeaponInfo@@ABU1@@Z DD 0ffffffffH
	DD	FLAT:__unwindfunclet$??$_Construct@UWeaponInfo@@ABU1@@std@@YAXPAUWeaponInfo@@ABU1@@Z$0
__ehfuncinfo$??$_Construct@UWeaponInfo@@ABU1@@std@@YAXPAUWeaponInfo@@ABU1@@Z DD 019930522H
	DD	01H
	DD	FLAT:__unwindtable$??$_Construct@UWeaponInfo@@ABU1@@std@@YAXPAUWeaponInfo@@ABU1@@Z
	DD	2 DUP(00H)
	DD	2 DUP(00H)
	DD	00H
	DD	01H
; Function compile flags: /Ogsp
; File c:\program files (x86)\microsoft visual studio 10.0\vc\include\xmemory
xdata$x	ENDS
;	COMDAT ??$_Construct@UWeaponInfo@@ABU1@@std@@YAXPAUWeaponInfo@@ABU1@@Z
_TEXT	SEGMENT
$T553820 = -16						; size = 4
__$EHRec$ = -12						; size = 12
__Vptr$ = 8						; size = 4
__Ptr$ = 8						; size = 4
__Val$ = 12						; size = 4
??$_Construct@UWeaponInfo@@ABU1@@std@@YAXPAUWeaponInfo@@ABU1@@Z PROC ; std::_Construct<WeaponInfo,WeaponInfo const &>, COMDAT

; 46   : 	{	// construct object at _Ptr with value _Val

  00000	6a 04		 push	 4
  00002	b8 00 00 00 00	 mov	 eax, __ehhandler$??$_Construct@UWeaponInfo@@ABU1@@std@@YAXPAUWeaponInfo@@ABU1@@Z
  00007	e8 00 00 00 00	 call	 __EH_prolog3

; 47   : 	void _FARQ *_Vptr = _Ptr;

  0000c	8b 4d 08	 mov	 ecx, DWORD PTR __Ptr$[ebp]
  0000f	89 4d 08	 mov	 DWORD PTR __Vptr$[ebp], ecx

; 48   : 	::new (_Vptr) _Ty1(_STD forward<_Ty2>(_Val));

  00012	89 4d f0	 mov	 DWORD PTR $T553820[ebp], ecx
  00015	83 65 fc 00	 and	 DWORD PTR __$EHRec$[ebp+8], 0
  00019	85 c9		 test	 ecx, ecx
  0001b	74 08		 je	 SHORT $LN3@Construct@2
  0001d	ff 75 0c	 push	 DWORD PTR __Val$[ebp]
  00020	e8 00 00 00 00	 call	 ??0WeaponInfo@@QAE@ABU0@@Z
$LN3@Construct@2:

; 49   : 	}

  00025	e8 00 00 00 00	 call	 __EH_epilog3
  0002a	c3		 ret	 0
_TEXT	ENDS
;	COMDAT text$x
text$x	SEGMENT
__unwindfunclet$??$_Construct@UWeaponInfo@@ABU1@@std@@YAXPAUWeaponInfo@@ABU1@@Z$0:
  00000	ff 75 08	 push	 DWORD PTR __Vptr$[ebp]
  00003	ff 75 f0	 push	 DWORD PTR $T553820[ebp]
  00006	e8 00 00 00 00	 call	 ??3@YAXPAX0@Z		; operator delete
  0000b	59		 pop	 ecx
  0000c	59		 pop	 ecx
  0000d	c3		 ret	 0
__ehhandler$??$_Construct@UWeaponInfo@@ABU1@@std@@YAXPAUWeaponInfo@@ABU1@@Z:
  0000e	8b 54 24 08	 mov	 edx, DWORD PTR [esp+8]
  00012	8d 42 0c	 lea	 eax, DWORD PTR [edx+12]
  00015	8b 4a ec	 mov	 ecx, DWORD PTR [edx-20]
  00018	33 c8		 xor	 ecx, eax
  0001a	e8 00 00 00 00	 call	 @__security_check_cookie@4
  0001f	b8 00 00 00 00	 mov	 eax, OFFSET __ehfuncinfo$??$_Construct@UWeaponInfo@@ABU1@@std@@YAXPAUWeaponInfo@@ABU1@@Z
  00024	e9 00 00 00 00	 jmp	 ___CxxFrameHandler3
text$x	ENDS
??$_Construct@UWeaponInfo@@ABU1@@std@@YAXPAUWeaponInfo@@ABU1@@Z ENDP ; std::_Construct<WeaponInfo,WeaponInfo const &>
PUBLIC	??B?$CEncrypt@M@@QAEMXZ				; CEncrypt<float>::operator float
; Function compile flags: /Ogsp
; File d:\lost saga for developer\youtube\tutorial\source\src\lsclient\encryptvalue.h
;	COMDAT ??B?$CEncrypt@M@@QAEMXZ
_TEXT	SEGMENT
_value$ = -4						; size = 4
??B?$CEncrypt@M@@QAEMXZ PROC				; CEncrypt<float>::operator float, COMDAT
; _this$ = ecx

; 134  : 	{

  00000	55		 push	 ebp
  00001	8b ec		 mov	 ebp, esp
  00003	51		 push	 ecx

; 135  : 		type value;
; 136  : 		DecryptValueToPool(&value);

  00004	8d 45 fc	 lea	 eax, DWORD PTR _value$[ebp]
  00007	50		 push	 eax
  00008	e8 00 00 00 00	 call	 ?DecryptValueToPool@?$CEncrypt@M@@QAEXPAM@Z ; CEncrypt<float>::DecryptValueToPool

; 137  : 
; 138  : #ifdef _NOTUSE
; 139  : 		Debug();
; 140  : #endif
; 141  : 		return value;

  0000d	d9 45 fc	 fld	 DWORD PTR _value$[ebp]

; 142  : 	}

  00010	c9		 leave
  00011	c3		 ret	 0
??B?$CEncrypt@M@@QAEMXZ ENDP				; CEncrypt<float>::operator float
_TEXT	ENDS
PUBLIC	??4?$CEncrypt@M@@QAEMM@Z			; CEncrypt<float>::operator=
; Function compile flags: /Ogsp
;	COMDAT ??4?$CEncrypt@M@@QAEMM@Z
_TEXT	SEGMENT
_value$ = 8						; size = 4
_inValue$ = 8						; size = 4
??4?$CEncrypt@M@@QAEMM@Z PROC				; CEncrypt<float>::operator=, COMDAT
; _this$ = ecx

; 1654 : 	{	

  00000	55		 push	 ebp
  00001	8b ec		 mov	 ebp, esp

; 1655 : 		type value = inValue;

  00003	d9 45 08	 fld	 DWORD PTR _inValue$[ebp]

; 1656 : 		EncryptValueToPool((char*)&value);

  00006	8d 45 08	 lea	 eax, DWORD PTR _value$[ebp]
  00009	50		 push	 eax
  0000a	d9 5d 08	 fstp	 DWORD PTR _value$[ebp]
  0000d	e8 00 00 00 00	 call	 ?EncryptValueToPool@?$CEncrypt@M@@AAEXPBD@Z ; CEncrypt<float>::EncryptValueToPool

; 1657 : #ifdef _NOTUSE
; 1658 : 		m_value = inValue;
; 1659 : 		Debug();
; 1660 : #endif
; 1661 : 		return value;

  00012	d9 45 08	 fld	 DWORD PTR _value$[ebp]

; 1662 : 	}

  00015	5d		 pop	 ebp
  00016	c2 04 00	 ret	 4
??4?$CEncrypt@M@@QAEMM@Z ENDP				; CEncrypt<float>::operator=
_TEXT	ENDS
PUBLIC	??O?$CEncrypt@M@@QAE_NABM@Z			; CEncrypt<float>::operator>
; Function compile flags: /Ogsp
;	COMDAT ??O?$CEncrypt@M@@QAE_NABM@Z
_TEXT	SEGMENT
_value$ = -4						; size = 4
_inValue$ = 8						; size = 4
??O?$CEncrypt@M@@QAE_NABM@Z PROC			; CEncrypt<float>::operator>, COMDAT
; _this$ = ecx

; 1811 : 	{

  00000	55		 push	 ebp
  00001	8b ec		 mov	 ebp, esp
  00003	51		 push	 ecx

; 1812 : 		type value;
; 1813 : 		DecryptValueToPool(&value);

  00004	8d 45 fc	 lea	 eax, DWORD PTR _value$[ebp]
  00007	50		 push	 eax
  00008	e8 00 00 00 00	 call	 ?DecryptValueToPool@?$CEncrypt@M@@QAEXPAM@Z ; CEncrypt<float>::DecryptValueToPool

; 1814 : #ifdef _NOTUSE
; 1815 : 		Debug();
; 1816 : #endif
; 1817 : 		return (value > inValue);

  0000d	8b 45 08	 mov	 eax, DWORD PTR _inValue$[ebp]
  00010	f3 0f 10 08	 movss	 xmm1, DWORD PTR [eax]
  00014	f3 0f 10 45 fc	 movss	 xmm0, DWORD PTR _value$[ebp]
  00019	0f 5a c0	 cvtps2pd xmm0, xmm0
  0001c	0f 5a c9	 cvtps2pd xmm1, xmm1
  0001f	33 c0		 xor	 eax, eax
  00021	66 0f 2f c1	 comisd	 xmm0, xmm1
  00025	76 01		 jbe	 SHORT $LN4@operator@4
  00027	40		 inc	 eax
$LN4@operator@4:

; 1818 : 	}		

  00028	c9		 leave
  00029	c2 04 00	 ret	 4
??O?$CEncrypt@M@@QAE_NABM@Z ENDP			; CEncrypt<float>::operator>
_TEXT	ENDS
PUBLIC	??4?$CEncrypt@K@@QAEKH@Z			; CEncrypt<unsigned long>::operator=
; Function compile flags: /Ogsp
;	COMDAT ??4?$CEncrypt@K@@QAEKH@Z
_TEXT	SEGMENT
_value$ = 8						; size = 4
_inValue$ = 8						; size = 4
??4?$CEncrypt@K@@QAEKH@Z PROC				; CEncrypt<unsigned long>::operator=, COMDAT
; _this$ = ecx

; 843  : 	{

  00000	55		 push	 ebp
  00001	8b ec		 mov	 ebp, esp

; 844  : 		type value = inValue;

  00003	8b 45 08	 mov	 eax, DWORD PTR _inValue$[ebp]
  00006	89 45 08	 mov	 DWORD PTR _value$[ebp], eax

; 845  : 		EncryptValueToPool((char*)&value);

  00009	8d 45 08	 lea	 eax, DWORD PTR _value$[ebp]
  0000c	50		 push	 eax
  0000d	e8 00 00 00 00	 call	 ?EncryptValueToPool@?$CEncrypt@K@@AAEXPBD@Z ; CEncrypt<unsigned long>::EncryptValueToPool

; 846  : #ifdef _NOTUSE
; 847  : 		m_value = inValue;
; 848  : 		Debug();
; 849  : #endif
; 850  : 		return value;

  00012	8b 45 08	 mov	 eax, DWORD PTR _value$[ebp]

; 851  : 	}

  00015	5d		 pop	 ebp
  00016	c2 04 00	 ret	 4
??4?$CEncrypt@K@@QAEKH@Z ENDP				; CEncrypt<unsigned long>::operator=
_TEXT	ENDS
PUBLIC	??4?$CEncrypt@K@@QAEKK@Z			; CEncrypt<unsigned long>::operator=
; Function compile flags: /Ogsp
;	COMDAT ??4?$CEncrypt@K@@QAEKK@Z
_TEXT	SEGMENT
_value$ = 8						; size = 4
_inValue$ = 8						; size = 4
??4?$CEncrypt@K@@QAEKK@Z PROC				; CEncrypt<unsigned long>::operator=, COMDAT
; _this$ = ecx

; 1262 : 	{

  00000	55		 push	 ebp
  00001	8b ec		 mov	 ebp, esp

; 1263 : 		
; 1264 : 		type value = inValue;

  00003	8b 45 08	 mov	 eax, DWORD PTR _inValue$[ebp]
  00006	89 45 08	 mov	 DWORD PTR _value$[ebp], eax

; 1265 : 		EncryptValueToPool((char*)&value);

  00009	8d 45 08	 lea	 eax, DWORD PTR _value$[ebp]
  0000c	50		 push	 eax
  0000d	e8 00 00 00 00	 call	 ?EncryptValueToPool@?$CEncrypt@K@@AAEXPBD@Z ; CEncrypt<unsigned long>::EncryptValueToPool

; 1266 : #ifdef _NOTUSE
; 1267 : 		m_value = inValue;
; 1268 : 		Debug();
; 1269 : #endif
; 1270 : 		return value;

  00012	8b 45 08	 mov	 eax, DWORD PTR _value$[ebp]

; 1271 : 	}

  00015	5d		 pop	 ebp
  00016	c2 04 00	 ret	 4
??4?$CEncrypt@K@@QAEKK@Z ENDP				; CEncrypt<unsigned long>::operator=
_TEXT	ENDS
PUBLIC	??B?$CEncrypt@_N@@QAE_NXZ			; CEncrypt<bool>::operator bool
; Function compile flags: /Ogsp
;	COMDAT ??B?$CEncrypt@_N@@QAE_NXZ
_TEXT	SEGMENT
_value$ = -1						; size = 1
??B?$CEncrypt@_N@@QAE_NXZ PROC				; CEncrypt<bool>::operator bool, COMDAT
; _this$ = ecx

; 134  : 	{

  00000	55		 push	 ebp
  00001	8b ec		 mov	 ebp, esp
  00003	51		 push	 ecx

; 135  : 		type value;
; 136  : 		DecryptValueToPool(&value);

  00004	8d 45 ff	 lea	 eax, DWORD PTR _value$[ebp]
  00007	50		 push	 eax
  00008	e8 00 00 00 00	 call	 ?DecryptValueToPool@?$CEncrypt@_N@@QAEXPA_N@Z ; CEncrypt<bool>::DecryptValueToPool

; 137  : 
; 138  : #ifdef _NOTUSE
; 139  : 		Debug();
; 140  : #endif
; 141  : 		return value;

  0000d	8a 45 ff	 mov	 al, BYTE PTR _value$[ebp]

; 142  : 	}

  00010	c9		 leave
  00011	c3		 ret	 0
??B?$CEncrypt@_N@@QAE_NXZ ENDP				; CEncrypt<bool>::operator bool
_TEXT	ENDS
PUBLIC	??B?$CEncrypt@_N@@QBE_NXZ			; CEncrypt<bool>::operator bool
; Function compile flags: /Ogsp
;	COMDAT ??B?$CEncrypt@_N@@QBE_NXZ
_TEXT	SEGMENT
_value$ = -1						; size = 1
??B?$CEncrypt@_N@@QBE_NXZ PROC				; CEncrypt<bool>::operator bool, COMDAT
; _this$ = ecx

; 145  : 	{

  00000	55		 push	 ebp
  00001	8b ec		 mov	 ebp, esp
  00003	51		 push	 ecx

; 146  : 		//UJ 130829, const    --start
; 147  : 		type value;
; 148  : 		CEncrypt<type>* pThis = const_cast<CEncrypt<type>*>(this);
; 149  : 		pThis->DecryptValueToPool(&value);

  00004	8d 45 ff	 lea	 eax, DWORD PTR _value$[ebp]
  00007	50		 push	 eax
  00008	e8 00 00 00 00	 call	 ?DecryptValueToPool@?$CEncrypt@_N@@QAEXPA_N@Z ; CEncrypt<bool>::DecryptValueToPool

; 150  : 		//// const DecryptValueToPool     .
; 151  :  		//type value;
; 152  : 		//char szTempMem[MAX_ENCRYPT];
; 153  : 		//m_RC5.DecryptByte( m_MemPool, szTempMem, max(m_ValueSize, DEFAULT_ENCRYPT) );
; 154  : 		//memcpy( &value, szTempMem, m_ValueSize );
; 155  : 		//UJ --end
; 156  : 
; 157  : #ifdef _NOTUSE
; 158  : 		Debug();
; 159  : #endif
; 160  : 		return value;

  0000d	8a 45 ff	 mov	 al, BYTE PTR _value$[ebp]

; 161  : 	}

  00010	c9		 leave
  00011	c3		 ret	 0
??B?$CEncrypt@_N@@QBE_NXZ ENDP				; CEncrypt<bool>::operator bool
_TEXT	ENDS
PUBLIC	??0?$CEncrypt@H@@QAE@XZ				; CEncrypt<int>::CEncrypt<int>
EXTRN	??0ccddaabb@@QAE@XZ:PROC			; ccddaabb::ccddaabb
;	COMDAT xdata$x
xdata$x	SEGMENT
__unwindtable$??0?$CEncrypt@H@@QAE@XZ DD 0ffffffffH
	DD	FLAT:__unwindfunclet$??0?$CEncrypt@H@@QAE@XZ$0
__ehfuncinfo$??0?$CEncrypt@H@@QAE@XZ DD 019930522H
	DD	01H
	DD	FLAT:__unwindtable$??0?$CEncrypt@H@@QAE@XZ
	DD	2 DUP(00H)
	DD	2 DUP(00H)
	DD	00H
	DD	01H
; Function compile flags: /Ogsp
xdata$x	ENDS
;	COMDAT ??0?$CEncrypt@H@@QAE@XZ
_TEXT	SEGMENT
_this$ = -16						; size = 4
__$EHRec$ = -12						; size = 12
??0?$CEncrypt@H@@QAE@XZ PROC				; CEncrypt<int>::CEncrypt<int>, COMDAT
; _this$ = ecx

; 109  : 	CEncrypt()

  00000	6a 04		 push	 4
  00002	b8 00 00 00 00	 mov	 eax, __ehhandler$??0?$CEncrypt@H@@QAE@XZ
  00007	e8 00 00 00 00	 call	 __EH_prolog3
  0000c	8b f1		 mov	 esi, ecx
  0000e	89 75 f0	 mov	 DWORD PTR _this$[ebp], esi
  00011	8d 4e 0c	 lea	 ecx, DWORD PTR [esi+12]
  00014	c7 06 00 00 00
	00		 mov	 DWORD PTR [esi], OFFSET ??_7?$CEncrypt@H@@6B@
  0001a	e8 00 00 00 00	 call	 ??0ccddaabb@@QAE@XZ	; ccddaabb::ccddaabb
  0001f	83 65 fc 00	 and	 DWORD PTR __$EHRec$[ebp+8], 0

; 110  : 	{
; 111  : 		Init();

  00023	8b ce		 mov	 ecx, esi
  00025	e8 00 00 00 00	 call	 ?Init@?$CEncrypt@H@@AAEXXZ ; CEncrypt<int>::Init

; 112  : 	}

  0002a	8b c6		 mov	 eax, esi
  0002c	e8 00 00 00 00	 call	 __EH_epilog3
  00031	c3		 ret	 0
_TEXT	ENDS
;	COMDAT text$x
text$x	SEGMENT
__unwindfunclet$??0?$CEncrypt@H@@QAE@XZ$0:
  00000	8b 4d f0	 mov	 ecx, DWORD PTR _this$[ebp]
  00003	83 c1 0c	 add	 ecx, 12			; 0000000cH
  00006	e9 00 00 00 00	 jmp	 ??1ccddaabb@@UAE@XZ	; ccddaabb::~ccddaabb
__ehhandler$??0?$CEncrypt@H@@QAE@XZ:
  0000b	8b 54 24 08	 mov	 edx, DWORD PTR [esp+8]
  0000f	8d 42 0c	 lea	 eax, DWORD PTR [edx+12]
  00012	8b 4a ec	 mov	 ecx, DWORD PTR [edx-20]
  00015	33 c8		 xor	 ecx, eax
  00017	e8 00 00 00 00	 call	 @__security_check_cookie@4
  0001c	b8 00 00 00 00	 mov	 eax, OFFSET __ehfuncinfo$??0?$CEncrypt@H@@QAE@XZ
  00021	e9 00 00 00 00	 jmp	 ___CxxFrameHandler3
text$x	ENDS
??0?$CEncrypt@H@@QAE@XZ ENDP				; CEncrypt<int>::CEncrypt<int>
PUBLIC	??B?$CEncrypt@H@@QAEHXZ				; CEncrypt<int>::operator int
; Function compile flags: /Ogsp
;	COMDAT ??B?$CEncrypt@H@@QAEHXZ
_TEXT	SEGMENT
_value$ = -4						; size = 4
??B?$CEncrypt@H@@QAEHXZ PROC				; CEncrypt<int>::operator int, COMDAT
; _this$ = ecx

; 134  : 	{

  00000	55		 push	 ebp
  00001	8b ec		 mov	 ebp, esp
  00003	51		 push	 ecx

; 135  : 		type value;
; 136  : 		DecryptValueToPool(&value);

  00004	8d 45 fc	 lea	 eax, DWORD PTR _value$[ebp]
  00007	50		 push	 eax
  00008	e8 00 00 00 00	 call	 ?DecryptValueToPool@?$CEncrypt@H@@QAEXPAH@Z ; CEncrypt<int>::DecryptValueToPool

; 137  : 
; 138  : #ifdef _NOTUSE
; 139  : 		Debug();
; 140  : #endif
; 141  : 		return value;

  0000d	8b 45 fc	 mov	 eax, DWORD PTR _value$[ebp]

; 142  : 	}

  00010	c9		 leave
  00011	c3		 ret	 0
??B?$CEncrypt@H@@QAEHXZ ENDP				; CEncrypt<int>::operator int
_TEXT	ENDS
PUBLIC	??B?$CEncrypt@H@@QBEHXZ				; CEncrypt<int>::operator int
; Function compile flags: /Ogsp
;	COMDAT ??B?$CEncrypt@H@@QBEHXZ
_TEXT	SEGMENT
_value$ = -4						; size = 4
??B?$CEncrypt@H@@QBEHXZ PROC				; CEncrypt<int>::operator int, COMDAT
; _this$ = ecx

; 145  : 	{

  00000	55		 push	 ebp
  00001	8b ec		 mov	 ebp, esp
  00003	51		 push	 ecx

; 146  : 		//UJ 130829, const    --start
; 147  : 		type value;
; 148  : 		CEncrypt<type>* pThis = const_cast<CEncrypt<type>*>(this);
; 149  : 		pThis->DecryptValueToPool(&value);

  00004	8d 45 fc	 lea	 eax, DWORD PTR _value$[ebp]
  00007	50		 push	 eax
  00008	e8 00 00 00 00	 call	 ?DecryptValueToPool@?$CEncrypt@H@@QAEXPAH@Z ; CEncrypt<int>::DecryptValueToPool

; 150  : 		//// const DecryptValueToPool     .
; 151  :  		//type value;
; 152  : 		//char szTempMem[MAX_ENCRYPT];
; 153  : 		//m_RC5.DecryptByte( m_MemPool, szTempMem, max(m_ValueSize, DEFAULT_ENCRYPT) );
; 154  : 		//memcpy( &value, szTempMem, m_ValueSize );
; 155  : 		//UJ --end
; 156  : 
; 157  : #ifdef _NOTUSE
; 158  : 		Debug();
; 159  : #endif
; 160  : 		return value;

  0000d	8b 45 fc	 mov	 eax, DWORD PTR _value$[ebp]

; 161  : 	}

  00010	c9		 leave
  00011	c3		 ret	 0
??B?$CEncrypt@H@@QBEHXZ ENDP				; CEncrypt<int>::operator int
_TEXT	ENDS
PUBLIC	??4?$CEncrypt@H@@QAEHH@Z			; CEncrypt<int>::operator=
; Function compile flags: /Ogsp
;	COMDAT ??4?$CEncrypt@H@@QAEHH@Z
_TEXT	SEGMENT
_value$ = 8						; size = 4
_inValue$ = 8						; size = 4
??4?$CEncrypt@H@@QAEHH@Z PROC				; CEncrypt<int>::operator=, COMDAT
; _this$ = ecx

; 843  : 	{

  00000	55		 push	 ebp
  00001	8b ec		 mov	 ebp, esp

; 844  : 		type value = inValue;

  00003	8b 45 08	 mov	 eax, DWORD PTR _inValue$[ebp]
  00006	89 45 08	 mov	 DWORD PTR _value$[ebp], eax

; 845  : 		EncryptValueToPool((char*)&value);

  00009	8d 45 08	 lea	 eax, DWORD PTR _value$[ebp]
  0000c	50		 push	 eax
  0000d	e8 00 00 00 00	 call	 ?EncryptValueToPool@?$CEncrypt@H@@AAEXPBD@Z ; CEncrypt<int>::EncryptValueToPool

; 846  : #ifdef _NOTUSE
; 847  : 		m_value = inValue;
; 848  : 		Debug();
; 849  : #endif
; 850  : 		return value;

  00012	8b 45 08	 mov	 eax, DWORD PTR _value$[ebp]

; 851  : 	}

  00015	5d		 pop	 ebp
  00016	c2 04 00	 ret	 4
??4?$CEncrypt@H@@QAEHH@Z ENDP				; CEncrypt<int>::operator=
_TEXT	ENDS
PUBLIC	??B?$CEncrypt@W4TeamType@@@@QBE?AW4TeamType@@XZ	; CEncrypt<enum TeamType>::operator enum TeamType
; Function compile flags: /Ogsp
;	COMDAT ??B?$CEncrypt@W4TeamType@@@@QBE?AW4TeamType@@XZ
_TEXT	SEGMENT
_value$ = -4						; size = 4
??B?$CEncrypt@W4TeamType@@@@QBE?AW4TeamType@@XZ PROC	; CEncrypt<enum TeamType>::operator enum TeamType, COMDAT
; _this$ = ecx

; 145  : 	{

  00000	55		 push	 ebp
  00001	8b ec		 mov	 ebp, esp
  00003	51		 push	 ecx

; 146  : 		//UJ 130829, const    --start
; 147  : 		type value;
; 148  : 		CEncrypt<type>* pThis = const_cast<CEncrypt<type>*>(this);
; 149  : 		pThis->DecryptValueToPool(&value);

  00004	8d 45 fc	 lea	 eax, DWORD PTR _value$[ebp]
  00007	50		 push	 eax
  00008	e8 00 00 00 00	 call	 ?DecryptValueToPool@?$CEncrypt@W4TeamType@@@@QAEXPAW4TeamType@@@Z ; CEncrypt<enum TeamType>::DecryptValueToPool

; 150  : 		//// const DecryptValueToPool     .
; 151  :  		//type value;
; 152  : 		//char szTempMem[MAX_ENCRYPT];
; 153  : 		//m_RC5.DecryptByte( m_MemPool, szTempMem, max(m_ValueSize, DEFAULT_ENCRYPT) );
; 154  : 		//memcpy( &value, szTempMem, m_ValueSize );
; 155  : 		//UJ --end
; 156  : 
; 157  : #ifdef _NOTUSE
; 158  : 		Debug();
; 159  : #endif
; 160  : 		return value;

  0000d	8b 45 fc	 mov	 eax, DWORD PTR _value$[ebp]

; 161  : 	}

  00010	c9		 leave
  00011	c3		 ret	 0
??B?$CEncrypt@W4TeamType@@@@QBE?AW4TeamType@@XZ ENDP	; CEncrypt<enum TeamType>::operator enum TeamType
_TEXT	ENDS
PUBLIC	??0?$_Vector_val@UWeaponInfo@@V?$allocator@UWeaponInfo@@@std@@@std@@QAE@V?$allocator@UWeaponInfo@@@1@@Z ; std::_Vector_val<WeaponInfo,std::allocator<WeaponInfo> >::_Vector_val<WeaponInfo,std::allocator<WeaponInfo> >
; Function compile flags: /Ogsp
; File c:\program files (x86)\microsoft visual studio 10.0\vc\include\vector
;	COMDAT ??0?$_Vector_val@UWeaponInfo@@V?$allocator@UWeaponInfo@@@std@@@std@@QAE@V?$allocator@UWeaponInfo@@@1@@Z
_TEXT	SEGMENT
__Al$ = 8						; size = 1
??0?$_Vector_val@UWeaponInfo@@V?$allocator@UWeaponInfo@@@std@@@std@@QAE@V?$allocator@UWeaponInfo@@@1@@Z PROC ; std::_Vector_val<WeaponInfo,std::allocator<WeaponInfo> >::_Vector_val<WeaponInfo,std::allocator<WeaponInfo> >, COMDAT
; _this$ = ecx

; 426  : 		{	// construct allocator from _Al

  00000	8b c1		 mov	 eax, ecx

; 427  : 		_Myfirst = 0;

  00002	33 c9		 xor	 ecx, ecx
  00004	89 08		 mov	 DWORD PTR [eax], ecx

; 428  : 		_Mylast = 0;

  00006	89 48 04	 mov	 DWORD PTR [eax+4], ecx

; 429  : 		_Myend = 0;

  00009	89 48 08	 mov	 DWORD PTR [eax+8], ecx

; 430  : 		}

  0000c	c2 04 00	 ret	 4
??0?$_Vector_val@UWeaponInfo@@V?$allocator@UWeaponInfo@@@std@@@std@@QAE@V?$allocator@UWeaponInfo@@@1@@Z ENDP ; std::_Vector_val<WeaponInfo,std::allocator<WeaponInfo> >::_Vector_val<WeaponInfo,std::allocator<WeaponInfo> >
_TEXT	ENDS
PUBLIC	??0?$_Vector_val@UForceInfo@@V?$allocator@UForceInfo@@@std@@@std@@QAE@V?$allocator@UForceInfo@@@1@@Z ; std::_Vector_val<ForceInfo,std::allocator<ForceInfo> >::_Vector_val<ForceInfo,std::allocator<ForceInfo> >
; Function compile flags: /Ogsp
;	COMDAT ??0?$_Vector_val@UForceInfo@@V?$allocator@UForceInfo@@@std@@@std@@QAE@V?$allocator@UForceInfo@@@1@@Z
_TEXT	SEGMENT
__Al$ = 8						; size = 1
??0?$_Vector_val@UForceInfo@@V?$allocator@UForceInfo@@@std@@@std@@QAE@V?$allocator@UForceInfo@@@1@@Z PROC ; std::_Vector_val<ForceInfo,std::allocator<ForceInfo> >::_Vector_val<ForceInfo,std::allocator<ForceInfo> >, COMDAT
; _this$ = ecx

; 426  : 		{	// construct allocator from _Al

  00000	8b c1		 mov	 eax, ecx

; 427  : 		_Myfirst = 0;

  00002	33 c9		 xor	 ecx, ecx
  00004	89 08		 mov	 DWORD PTR [eax], ecx

; 428  : 		_Mylast = 0;

  00006	89 48 04	 mov	 DWORD PTR [eax+4], ecx

; 429  : 		_Myend = 0;

  00009	89 48 08	 mov	 DWORD PTR [eax+8], ecx

; 430  : 		}

  0000c	c2 04 00	 ret	 4
??0?$_Vector_val@UForceInfo@@V?$allocator@UForceInfo@@@std@@@std@@QAE@V?$allocator@UForceInfo@@@1@@Z ENDP ; std::_Vector_val<ForceInfo,std::allocator<ForceInfo> >::_Vector_val<ForceInfo,std::allocator<ForceInfo> >
_TEXT	ENDS
PUBLIC	?max_size@?$vector@UWeaponInfo@@V?$allocator@UWeaponInfo@@@std@@@std@@QBEIXZ ; std::vector<WeaponInfo,std::allocator<WeaponInfo> >::max_size
; Function compile flags: /Ogsp
;	COMDAT ?max_size@?$vector@UWeaponInfo@@V?$allocator@UWeaponInfo@@@std@@@std@@QBEIXZ
_TEXT	SEGMENT
?max_size@?$vector@UWeaponInfo@@V?$allocator@UWeaponInfo@@@std@@@std@@QBEIXZ PROC ; std::vector<WeaponInfo,std::allocator<WeaponInfo> >::max_size, COMDAT
; _this$ = ecx

; 884  : 		return (this->_Alval.max_size());

  00000	b8 66 66 66 06	 mov	 eax, 107374182		; 06666666H

; 885  : 		}

  00005	c3		 ret	 0
?max_size@?$vector@UWeaponInfo@@V?$allocator@UWeaponInfo@@@std@@@std@@QBEIXZ ENDP ; std::vector<WeaponInfo,std::allocator<WeaponInfo> >::max_size
_TEXT	ENDS
PUBLIC	?allocate@?$allocator@UWeaponInfo@@@std@@QAEPAUWeaponInfo@@I@Z ; std::allocator<WeaponInfo>::allocate
; Function compile flags: /Ogsp
; File c:\program files (x86)\microsoft visual studio 10.0\vc\include\xmemory
;	COMDAT ?allocate@?$allocator@UWeaponInfo@@@std@@QAEPAUWeaponInfo@@I@Z
_TEXT	SEGMENT
__Count$ = 8						; size = 4
?allocate@?$allocator@UWeaponInfo@@@std@@QAEPAUWeaponInfo@@I@Z PROC ; std::allocator<WeaponInfo>::allocate, COMDAT
; _this$ = ecx

; 186  : 		{	// allocate array of _Count elements

  00000	55		 push	 ebp
  00001	8b ec		 mov	 ebp, esp

; 187  : 		return (_Allocate(_Count, (pointer)0));

  00003	6a 00		 push	 0
  00005	ff 75 08	 push	 DWORD PTR __Count$[ebp]
  00008	e8 00 00 00 00	 call	 ??$_Allocate@UWeaponInfo@@@std@@YAPAUWeaponInfo@@IPAU1@@Z ; std::_Allocate<WeaponInfo>
  0000d	59		 pop	 ecx
  0000e	59		 pop	 ecx

; 188  : 		}

  0000f	5d		 pop	 ebp
  00010	c2 04 00	 ret	 4
?allocate@?$allocator@UWeaponInfo@@@std@@QAEPAUWeaponInfo@@I@Z ENDP ; std::allocator<WeaponInfo>::allocate
_TEXT	ENDS
PUBLIC	?max_size@?$vector@UForceInfo@@V?$allocator@UForceInfo@@@std@@@std@@QBEIXZ ; std::vector<ForceInfo,std::allocator<ForceInfo> >::max_size
; Function compile flags: /Ogsp
; File c:\program files (x86)\microsoft visual studio 10.0\vc\include\vector
;	COMDAT ?max_size@?$vector@UForceInfo@@V?$allocator@UForceInfo@@@std@@@std@@QBEIXZ
_TEXT	SEGMENT
?max_size@?$vector@UForceInfo@@V?$allocator@UForceInfo@@@std@@@std@@QBEIXZ PROC ; std::vector<ForceInfo,std::allocator<ForceInfo> >::max_size, COMDAT
; _this$ = ecx

; 884  : 		return (this->_Alval.max_size());

  00000	b8 55 55 55 15	 mov	 eax, 357913941		; 15555555H

; 885  : 		}

  00005	c3		 ret	 0
?max_size@?$vector@UForceInfo@@V?$allocator@UForceInfo@@@std@@@std@@QBEIXZ ENDP ; std::vector<ForceInfo,std::allocator<ForceInfo> >::max_size
_TEXT	ENDS
PUBLIC	?allocate@?$allocator@UForceInfo@@@std@@QAEPAUForceInfo@@I@Z ; std::allocator<ForceInfo>::allocate
; Function compile flags: /Ogsp
; File c:\program files (x86)\microsoft visual studio 10.0\vc\include\xmemory
;	COMDAT ?allocate@?$allocator@UForceInfo@@@std@@QAEPAUForceInfo@@I@Z
_TEXT	SEGMENT
__Count$ = 8						; size = 4
?allocate@?$allocator@UForceInfo@@@std@@QAEPAUForceInfo@@I@Z PROC ; std::allocator<ForceInfo>::allocate, COMDAT
; _this$ = ecx

; 186  : 		{	// allocate array of _Count elements

  00000	55		 push	 ebp
  00001	8b ec		 mov	 ebp, esp

; 187  : 		return (_Allocate(_Count, (pointer)0));

  00003	6a 00		 push	 0
  00005	ff 75 08	 push	 DWORD PTR __Count$[ebp]
  00008	e8 00 00 00 00	 call	 ??$_Allocate@UForceInfo@@@std@@YAPAUForceInfo@@IPAU1@@Z ; std::_Allocate<ForceInfo>
  0000d	59		 pop	 ecx
  0000e	59		 pop	 ecx

; 188  : 		}

  0000f	5d		 pop	 ebp
  00010	c2 04 00	 ret	 4
?allocate@?$allocator@UForceInfo@@@std@@QAEPAUForceInfo@@I@Z ENDP ; std::allocator<ForceInfo>::allocate
_TEXT	ENDS
PUBLIC	??8?$_Vector_const_iterator@V?$_Vector_val@UWeaponInfo@@V?$allocator@UWeaponInfo@@@std@@@std@@@std@@QBE_NABV01@@Z ; std::_Vector_const_iterator<std::_Vector_val<WeaponInfo,std::allocator<WeaponInfo> > >::operator==
; Function compile flags: /Ogsp
; File c:\program files (x86)\microsoft visual studio 10.0\vc\include\vector
;	COMDAT ??8?$_Vector_const_iterator@V?$_Vector_val@UWeaponInfo@@V?$allocator@UWeaponInfo@@@std@@@std@@@std@@QBE_NABV01@@Z
_TEXT	SEGMENT
__Right$ = 8						; size = 4
??8?$_Vector_const_iterator@V?$_Vector_val@UWeaponInfo@@V?$allocator@UWeaponInfo@@@std@@@std@@@std@@QBE_NABV01@@Z PROC ; std::_Vector_const_iterator<std::_Vector_val<WeaponInfo,std::allocator<WeaponInfo> > >::operator==, COMDAT
; _this$ = ecx

; 201  : 		{	// test for iterator equality

  00000	55		 push	 ebp
  00001	8b ec		 mov	 ebp, esp

; 202  : 		_Compat(_Right);
; 203  : 		return (this->_Ptr == _Right._Ptr);

  00003	8b 01		 mov	 eax, DWORD PTR [ecx]
  00005	8b 4d 08	 mov	 ecx, DWORD PTR __Right$[ebp]
  00008	2b 01		 sub	 eax, DWORD PTR [ecx]
  0000a	f7 d8		 neg	 eax
  0000c	1b c0		 sbb	 eax, eax
  0000e	40		 inc	 eax

; 204  : 		}

  0000f	5d		 pop	 ebp
  00010	c2 04 00	 ret	 4
??8?$_Vector_const_iterator@V?$_Vector_val@UWeaponInfo@@V?$allocator@UWeaponInfo@@@std@@@std@@@std@@QBE_NABV01@@Z ENDP ; std::_Vector_const_iterator<std::_Vector_val<WeaponInfo,std::allocator<WeaponInfo> > >::operator==
_TEXT	ENDS
PUBLIC	??8?$_Vector_const_iterator@V?$_Vector_val@UForceInfo@@V?$allocator@UForceInfo@@@std@@@std@@@std@@QBE_NABV01@@Z ; std::_Vector_const_iterator<std::_Vector_val<ForceInfo,std::allocator<ForceInfo> > >::operator==
; Function compile flags: /Ogsp
;	COMDAT ??8?$_Vector_const_iterator@V?$_Vector_val@UForceInfo@@V?$allocator@UForceInfo@@@std@@@std@@@std@@QBE_NABV01@@Z
_TEXT	SEGMENT
__Right$ = 8						; size = 4
??8?$_Vector_const_iterator@V?$_Vector_val@UForceInfo@@V?$allocator@UForceInfo@@@std@@@std@@@std@@QBE_NABV01@@Z PROC ; std::_Vector_const_iterator<std::_Vector_val<ForceInfo,std::allocator<ForceInfo> > >::operator==, COMDAT
; _this$ = ecx

; 201  : 		{	// test for iterator equality

  00000	55		 push	 ebp
  00001	8b ec		 mov	 ebp, esp

; 202  : 		_Compat(_Right);
; 203  : 		return (this->_Ptr == _Right._Ptr);

  00003	8b 01		 mov	 eax, DWORD PTR [ecx]
  00005	8b 4d 08	 mov	 ecx, DWORD PTR __Right$[ebp]
  00008	2b 01		 sub	 eax, DWORD PTR [ecx]
  0000a	f7 d8		 neg	 eax
  0000c	1b c0		 sbb	 eax, eax
  0000e	40		 inc	 eax

; 204  : 		}

  0000f	5d		 pop	 ebp
  00010	c2 04 00	 ret	 4
??8?$_Vector_const_iterator@V?$_Vector_val@UForceInfo@@V?$allocator@UForceInfo@@@std@@@std@@@std@@QBE_NABV01@@Z ENDP ; std::_Vector_const_iterator<std::_Vector_val<ForceInfo,std::allocator<ForceInfo> > >::operator==
_TEXT	ENDS
PUBLIC	?destroy@?$allocator@UForceInfo@@@std@@QAEXPAUForceInfo@@@Z ; std::allocator<ForceInfo>::destroy
; Function compile flags: /Ogsp
; File c:\program files (x86)\microsoft visual studio 10.0\vc\include\xmemory
;	COMDAT ?destroy@?$allocator@UForceInfo@@@std@@QAEXPAUForceInfo@@@Z
_TEXT	SEGMENT
__Ptr$ = 8						; size = 4
?destroy@?$allocator@UForceInfo@@@std@@QAEXPAUForceInfo@@@Z PROC ; std::allocator<ForceInfo>::destroy, COMDAT
; _this$ = ecx

; 213  : 		_Destroy(_Ptr);
; 214  : 		}

  00000	c2 04 00	 ret	 4
?destroy@?$allocator@UForceInfo@@@std@@QAEXPAUForceInfo@@@Z ENDP ; std::allocator<ForceInfo>::destroy
_TEXT	ENDS
PUBLIC	??$_Destroy@UWeaponInfo@@@std@@YAXPAUWeaponInfo@@@Z ; std::_Destroy<WeaponInfo>
; Function compile flags: /Ogsp
;	COMDAT ??$_Destroy@UWeaponInfo@@@std@@YAXPAUWeaponInfo@@@Z
_TEXT	SEGMENT
__Ptr$ = 8						; size = 4
??$_Destroy@UWeaponInfo@@@std@@YAXPAUWeaponInfo@@@Z PROC ; std::_Destroy<WeaponInfo>, COMDAT

; 62   : 	{	// destroy object at _Ptr

  00000	55		 push	 ebp
  00001	8b ec		 mov	 ebp, esp

; 63   : 	_Ptr->~_Ty();

  00003	8b 4d 08	 mov	 ecx, DWORD PTR __Ptr$[ebp]
  00006	83 c1 08	 add	 ecx, 8

; 64   : 	}

  00009	5d		 pop	 ebp

; 63   : 	_Ptr->~_Ty();

  0000a	ff 25 00 00 00
	00		 jmp	 DWORD PTR __imp_??1ioHashString@@QAE@XZ
??$_Destroy@UWeaponInfo@@@std@@YAXPAUWeaponInfo@@@Z ENDP ; std::_Destroy<WeaponInfo>
_TEXT	ENDS
PUBLIC	?SetGravityAmt@ioBaseChar@@QAEXM@Z		; ioBaseChar::SetGravityAmt
; Function compile flags: /Ogsp
; File d:\lost saga for developer\youtube\tutorial\source\src\lsclient\iobasechar.h
;	COMDAT ?SetGravityAmt@ioBaseChar@@QAEXM@Z
_TEXT	SEGMENT
_value$553942 = 8					; size = 4
_fAmt$ = 8						; size = 4
?SetGravityAmt@ioBaseChar@@QAEXM@Z PROC			; ioBaseChar::SetGravityAmt, COMDAT
; _this$ = ecx

; 2631 : 	inline void SetGravityAmt( float fAmt ) { m_fGravityAmt = fAmt; }

  00000	55		 push	 ebp
  00001	8b ec		 mov	 ebp, esp
  00003	f3 0f 10 45 08	 movss	 xmm0, DWORD PTR _fAmt$[ebp]
  00008	8d 45 08	 lea	 eax, DWORD PTR _value$553942[ebp]
  0000b	50		 push	 eax
  0000c	81 c1 e8 0b 00
	00		 add	 ecx, 3048		; 00000be8H
  00012	f3 0f 11 45 08	 movss	 DWORD PTR _value$553942[ebp], xmm0
  00017	e8 00 00 00 00	 call	 ?EncryptValueToPool@?$CEncrypt@M@@AAEXPBD@Z ; CEncrypt<float>::EncryptValueToPool
  0001c	5d		 pop	 ebp
  0001d	c2 04 00	 ret	 4
?SetGravityAmt@ioBaseChar@@QAEXM@Z ENDP			; ioBaseChar::SetGravityAmt
_TEXT	ENDS
PUBLIC	??_C@_00CNPNBAHC@?$AA@				; `string'
PUBLIC	_rkLoader$GSCopy$
PUBLIC	__$ArrayPad$
PUBLIC	?LoadProperty@ioChargingFireSkill@@UAEXAAVioINILoader@@@Z ; ioChargingFireSkill::LoadProperty
EXTRN	?Init@AttackAttribute@@QAEXXZ:PROC		; AttackAttribute::Init
EXTRN	__imp_??4ioHashString@@QAEAAV0@PBD@Z:PROC
EXTRN	?LoadProperty@ioNormalSkill@@UAEXAAVioINILoader@@@Z:PROC ; ioNormalSkill::LoadProperty
;	COMDAT ??_C@_00CNPNBAHC@?$AA@
; File d:\lost saga for developer\youtube\tutorial\source\src\lsclient\stringprotect.h
CONST	SEGMENT
??_C@_00CNPNBAHC@?$AA@ DB 00H				; `string'
; Function compile flags: /Ogsp
; File d:\lost saga for developer\youtube\tutorial\source\src\lsclient\iochargingfireskill.cpp
CONST	ENDS
;	COMDAT ?LoadProperty@ioChargingFireSkill@@UAEXAAVioINILoader@@@Z
_TEXT	SEGMENT
tv16634 = -300						; size = 4
_rkLoader$GSCopy$ = -296				; size = 4
_szBuf$ = -292						; size = 260
__k$555841 = -32					; size = 23
__k$555587 = -32					; size = 22
__k$554587 = -32					; size = 21
__k$554212 = -32					; size = 24
__k$554089 = -32					; size = 24
__k$555966 = -28					; size = 20
__k$555712 = -28					; size = 18
__k$555462 = -28					; size = 18
__k$555337 = -28					; size = 17
__k$555212 = -28					; size = 17
__k$554839 = -28					; size = 17
__k$554337 = -28					; size = 20
__k$554005 = -28					; size = 19
_szEncAttack$556194 = -24				; size = 16
__k$554962 = -24					; size = 13
__k$554712 = -24					; size = 16
__k$554462 = -24					; size = 13
__k$555165 = -20					; size = 11
__$ArrayPad$ = -4					; size = 4
_rkLoader$ = 8						; size = 4
?LoadProperty@ioChargingFireSkill@@UAEXAAVioINILoader@@@Z PROC ; ioChargingFireSkill::LoadProperty, COMDAT
; _this$ = ecx

; 77   : {

  00000	55		 push	 ebp
  00001	8b ec		 mov	 ebp, esp
  00003	81 ec 2c 01 00
	00		 sub	 esp, 300		; 0000012cH
  00009	a1 00 00 00 00	 mov	 eax, DWORD PTR ___security_cookie
  0000e	33 c5		 xor	 eax, ebp
  00010	89 45 fc	 mov	 DWORD PTR __$ArrayPad$[ebp], eax
  00013	53		 push	 ebx
  00014	8b 5d 08	 mov	 ebx, DWORD PTR _rkLoader$[ebp]
  00017	56		 push	 esi
  00018	57		 push	 edi

; 78   : 	ioNormalSkill::LoadProperty( rkLoader );

  00019	53		 push	 ebx
  0001a	8b f1		 mov	 esi, ecx

; 110  : 
; 111  : 	rkLoader.LoadString_e( "skill_loop_motion", "", szBuf, MAX_PATH );

  0001c	89 9d d8 fe ff
	ff		 mov	 DWORD PTR _rkLoader$GSCopy$[ebp], ebx
  00022	e8 00 00 00 00	 call	 ?LoadProperty@ioNormalSkill@@UAEXAAVioINILoader@@@Z ; ioNormalSkill::LoadProperty
  00027	6a 04		 push	 4
  00029	c7 45 e4 80 8d
	8c 83		 mov	 DWORD PTR __k$554005[ebp], -2087940736 ; 838c8d80H
  00030	c7 45 e8 8e b3
	88 83		 mov	 DWORD PTR __k$554005[ebp+4], -2088193138 ; 8388b38eH
  00037	c7 45 ec 9f 8f
	87 8f		 mov	 DWORD PTR __k$554005[ebp+8], -1886941281 ; 8f878f9fH
  0003e	c7 45 f0 b2 9e
	8a 84		 mov	 DWORD PTR __k$554005[ebp+12], -2071290190 ; 848a9eb2H
  00045	66 c7 45 f4 8a
	89		 mov	 WORD PTR __k$554005[ebp+16], 35210 ; 0000898aH
  0004b	8d 45 e4	 lea	 eax, DWORD PTR __k$554005[ebp]
  0004e	c6 45 f6 00	 mov	 BYTE PTR __k$554005[ebp+18], 0
  00052	59		 pop	 ecx
  00053	bf ed ec eb ea	 mov	 edi, -353637139		; eaebecedH
$LL106@LoadProper:

; 79   : 
; 80   : 	char szBuf[MAX_PATH];
; 81   : 
; 82   : 	m_fCircleRange = rkLoader.LoadFloat_e( "magic_circle_range", 0.0f );

  00058	31 38		 xor	 DWORD PTR [eax], edi
  0005a	83 c0 04	 add	 eax, 4
  0005d	49		 dec	 ecx
  0005e	75 f8		 jne	 SHORT $LL106@LoadProper
  00060	6a 10		 push	 16			; 00000010H
  00062	58		 pop	 eax
$LL103@LoadProper:
  00063	8b c8		 mov	 ecx, eax
  00065	81 e1 03 00 00
	80		 and	 ecx, -2147483645	; 80000003H
  0006b	79 05		 jns	 SHORT $LN1985@LoadProper
  0006d	49		 dec	 ecx
  0006e	83 c9 fc	 or	 ecx, -4			; fffffffcH
  00071	41		 inc	 ecx
$LN1985@LoadProper:
  00072	b2 ed		 mov	 dl, -19			; ffffffedH
  00074	2a d1		 sub	 dl, cl
  00076	30 54 05 e4	 xor	 BYTE PTR __k$554005[ebp+eax], dl
  0007a	40		 inc	 eax
  0007b	83 f8 12	 cmp	 eax, 18			; 00000012H
  0007e	7c e3		 jl	 SHORT $LL103@LoadProper
  00080	0f 57 c0	 xorps	 xmm0, xmm0
  00083	51		 push	 ecx
  00084	8d 45 e4	 lea	 eax, DWORD PTR __k$554005[ebp]
  00087	f3 0f 11 04 24	 movss	 DWORD PTR [esp], xmm0
  0008c	50		 push	 eax
  0008d	8b cb		 mov	 ecx, ebx
  0008f	ff 15 00 00 00
	00		 call	 DWORD PTR __imp_?LoadFloat@ioINILoader@@QAEMPBDM@Z
  00095	d9 9e 2c 10 00
	00		 fstp	 DWORD PTR [esi+4140]
  0009b	6a 05		 push	 5

; 83   : 	m_fCircleMoveSpeed = rkLoader.LoadFloat_e( "magic_circle_move_speed", 0.0f );

  0009d	c7 45 e0 80 8d
	8c 83		 mov	 DWORD PTR __k$554089[ebp], -2087940736 ; 838c8d80H
  000a4	c7 45 e4 8e b3
	88 83		 mov	 DWORD PTR __k$554089[ebp+4], -2088193138 ; 8388b38eH
  000ab	c7 45 e8 9f 8f
	87 8f		 mov	 DWORD PTR __k$554089[ebp+8], -1886941281 ; 8f878f9fH
  000b2	c7 45 ec b2 81
	84 9c		 mov	 DWORD PTR __k$554089[ebp+12], -1669037646 ; 9c8481b2H
  000b9	c7 45 f0 88 b3
	98 9a		 mov	 DWORD PTR __k$554089[ebp+16], -1701268600 ; 9a98b388H
  000c0	8d 45 e0	 lea	 eax, DWORD PTR __k$554089[ebp]
  000c3	c7 45 f4 88 89
	8f 00		 mov	 DWORD PTR __k$554089[ebp+20], 9406856 ; 008f8988H
  000ca	59		 pop	 ecx
$LL212@LoadProper:
  000cb	31 38		 xor	 DWORD PTR [eax], edi
  000cd	83 c0 04	 add	 eax, 4
  000d0	49		 dec	 ecx
  000d1	75 f8		 jne	 SHORT $LL212@LoadProper
  000d3	6a 14		 push	 20			; 00000014H
  000d5	58		 pop	 eax
$LL209@LoadProper:
  000d6	8b c8		 mov	 ecx, eax
  000d8	81 e1 03 00 00
	80		 and	 ecx, -2147483645	; 80000003H
  000de	79 05		 jns	 SHORT $LN1986@LoadProper
  000e0	49		 dec	 ecx
  000e1	83 c9 fc	 or	 ecx, -4			; fffffffcH
  000e4	41		 inc	 ecx
$LN1986@LoadProper:
  000e5	b2 ed		 mov	 dl, -19			; ffffffedH
  000e7	2a d1		 sub	 dl, cl
  000e9	30 54 05 e0	 xor	 BYTE PTR __k$554089[ebp+eax], dl
  000ed	40		 inc	 eax
  000ee	83 f8 17	 cmp	 eax, 23			; 00000017H
  000f1	7c e3		 jl	 SHORT $LL209@LoadProper
  000f3	0f 57 c0	 xorps	 xmm0, xmm0
  000f6	51		 push	 ecx
  000f7	8d 45 e0	 lea	 eax, DWORD PTR __k$554089[ebp]
  000fa	f3 0f 11 04 24	 movss	 DWORD PTR [esp], xmm0
  000ff	50		 push	 eax
  00100	8b cb		 mov	 ecx, ebx
  00102	ff 15 00 00 00
	00		 call	 DWORD PTR __imp_?LoadFloat@ioINILoader@@QAEMPBDM@Z
  00108	d9 9e 30 10 00
	00		 fstp	 DWORD PTR [esi+4144]
  0010e	6a 05		 push	 5

; 84   : 	m_fCircleHeightGap = rkLoader.LoadFloat_e( "magic_circle_height_gap", 0.0f );

  00110	c7 45 e0 80 8d
	8c 83		 mov	 DWORD PTR __k$554212[ebp], -2087940736 ; 838c8d80H
  00117	c7 45 e4 8e b3
	88 83		 mov	 DWORD PTR __k$554212[ebp+4], -2088193138 ; 8388b38eH
  0011e	c7 45 e8 9f 8f
	87 8f		 mov	 DWORD PTR __k$554212[ebp+8], -1886941281 ; 8f878f9fH
  00125	c7 45 ec b2 84
	8e 83		 mov	 DWORD PTR __k$554212[ebp+12], -2087811918 ; 838e84b2H
  0012c	c7 45 f0 8a 84
	9f b5		 mov	 DWORD PTR __k$554212[ebp+16], -1247837046 ; b59f848aH
  00133	8d 45 e0	 lea	 eax, DWORD PTR __k$554212[ebp]
  00136	c7 45 f4 8a 8d
	9b 00		 mov	 DWORD PTR __k$554212[ebp+20], 10194314 ; 009b8d8aH
  0013d	59		 pop	 ecx
$LL318@LoadProper:
  0013e	31 38		 xor	 DWORD PTR [eax], edi
  00140	83 c0 04	 add	 eax, 4
  00143	49		 dec	 ecx
  00144	75 f8		 jne	 SHORT $LL318@LoadProper
  00146	6a 14		 push	 20			; 00000014H
  00148	58		 pop	 eax
$LL315@LoadProper:
  00149	8b c8		 mov	 ecx, eax
  0014b	81 e1 03 00 00
	80		 and	 ecx, -2147483645	; 80000003H
  00151	79 05		 jns	 SHORT $LN1987@LoadProper
  00153	49		 dec	 ecx
  00154	83 c9 fc	 or	 ecx, -4			; fffffffcH
  00157	41		 inc	 ecx
$LN1987@LoadProper:
  00158	b2 ed		 mov	 dl, -19			; ffffffedH
  0015a	2a d1		 sub	 dl, cl
  0015c	30 54 05 e0	 xor	 BYTE PTR __k$554212[ebp+eax], dl
  00160	40		 inc	 eax
  00161	83 f8 17	 cmp	 eax, 23			; 00000017H
  00164	7c e3		 jl	 SHORT $LL315@LoadProper
  00166	0f 57 c0	 xorps	 xmm0, xmm0
  00169	51		 push	 ecx
  0016a	8d 45 e0	 lea	 eax, DWORD PTR __k$554212[ebp]
  0016d	f3 0f 11 04 24	 movss	 DWORD PTR [esp], xmm0
  00172	50		 push	 eax
  00173	8b cb		 mov	 ecx, ebx
  00175	ff 15 00 00 00
	00		 call	 DWORD PTR __imp_?LoadFloat@ioINILoader@@QAEMPBDM@Z
  0017b	d9 9e 34 10 00
	00		 fstp	 DWORD PTR [esi+4148]
  00181	6a 04		 push	 4

; 85   : 	m_fCircleOffSet = rkLoader.LoadFloat_e( "magic_circle_offset", 0.0f );

  00183	c7 45 e4 80 8d
	8c 83		 mov	 DWORD PTR __k$554337[ebp], -2087940736 ; 838c8d80H
  0018a	c7 45 e8 8e b3
	88 83		 mov	 DWORD PTR __k$554337[ebp+4], -2088193138 ; 8388b38eH
  00191	c7 45 ec 9f 8f
	87 8f		 mov	 DWORD PTR __k$554337[ebp+8], -1886941281 ; 8f878f9fH
  00198	c7 45 f0 b2 83
	8d 8c		 mov	 DWORD PTR __k$554337[ebp+12], -1936882766 ; 8c8d83b2H
  0019f	8d 45 e4	 lea	 eax, DWORD PTR __k$554337[ebp]
  001a2	c7 45 f4 9e 89
	9f 00		 mov	 DWORD PTR __k$554337[ebp+16], 10455454 ; 009f899eH
  001a9	59		 pop	 ecx
$LL424@LoadProper:
  001aa	31 38		 xor	 DWORD PTR [eax], edi
  001ac	83 c0 04	 add	 eax, 4
  001af	49		 dec	 ecx
  001b0	75 f8		 jne	 SHORT $LL424@LoadProper
  001b2	6a 10		 push	 16			; 00000010H
  001b4	58		 pop	 eax
$LL421@LoadProper:
  001b5	8b c8		 mov	 ecx, eax
  001b7	81 e1 03 00 00
	80		 and	 ecx, -2147483645	; 80000003H
  001bd	79 05		 jns	 SHORT $LN1988@LoadProper
  001bf	49		 dec	 ecx
  001c0	83 c9 fc	 or	 ecx, -4			; fffffffcH
  001c3	41		 inc	 ecx
$LN1988@LoadProper:
  001c4	b2 ed		 mov	 dl, -19			; ffffffedH
  001c6	2a d1		 sub	 dl, cl
  001c8	30 54 05 e4	 xor	 BYTE PTR __k$554337[ebp+eax], dl
  001cc	40		 inc	 eax
  001cd	83 f8 13	 cmp	 eax, 19			; 00000013H
  001d0	7c e3		 jl	 SHORT $LL421@LoadProper
  001d2	0f 57 c0	 xorps	 xmm0, xmm0
  001d5	51		 push	 ecx
  001d6	8d 45 e4	 lea	 eax, DWORD PTR __k$554337[ebp]
  001d9	f3 0f 11 04 24	 movss	 DWORD PTR [esp], xmm0
  001de	50		 push	 eax
  001df	8b cb		 mov	 ecx, ebx
  001e1	ff 15 00 00 00
	00		 call	 DWORD PTR __imp_?LoadFloat@ioINILoader@@QAEMPBDM@Z
  001e7	d9 9e 38 10 00
	00		 fstp	 DWORD PTR [esi+4152]
  001ed	6a 03		 push	 3

; 86   : 
; 87   : 	rkLoader.LoadString_e( "ready_circle", "", szBuf, MAX_PATH );

  001ef	c7 45 e8 9f 89
	8a 8e		 mov	 DWORD PTR __k$554462[ebp], -1903523425 ; 8e8a899fH
  001f6	c7 45 ec 94 b3
	88 83		 mov	 DWORD PTR __k$554462[ebp+4], -2088193132 ; 8388b394H
  001fd	c7 45 f0 9f 8f
	87 8f		 mov	 DWORD PTR __k$554462[ebp+8], -1886941281 ; 8f878f9fH
  00204	8d 45 e8	 lea	 eax, DWORD PTR __k$554462[ebp]
  00207	c6 45 f4 00	 mov	 BYTE PTR __k$554462[ebp+12], 0
  0020b	59		 pop	 ecx
$LL530@LoadProper:
  0020c	31 38		 xor	 DWORD PTR [eax], edi
  0020e	83 c0 04	 add	 eax, 4
  00211	49		 dec	 ecx
  00212	75 f8		 jne	 SHORT $LL530@LoadProper
  00214	8b 3d 00 00 00
	00		 mov	 edi, DWORD PTR __imp_?LoadStringA@ioINILoader@@QAEXPBD0PADH@Z
  0021a	68 04 01 00 00	 push	 260			; 00000104H
  0021f	8d 85 dc fe ff
	ff		 lea	 eax, DWORD PTR _szBuf$[ebp]
  00225	50		 push	 eax
  00226	68 00 00 00 00	 push	 OFFSET ??_C@_00CNPNBAHC@?$AA@
  0022b	8d 45 e8	 lea	 eax, DWORD PTR __k$554462[ebp]
  0022e	50		 push	 eax
  0022f	8b cb		 mov	 ecx, ebx
  00231	ff d7		 call	 edi

; 88   : 	m_ReadyCircle = szBuf;

  00233	8b 1d 00 00 00
	00		 mov	 ebx, DWORD PTR __imp_??4ioHashString@@QAEAAV0@PBD@Z
  00239	8d 85 dc fe ff
	ff		 lea	 eax, DWORD PTR _szBuf$[ebp]
  0023f	50		 push	 eax
  00240	8d 8e 48 10 00
	00		 lea	 ecx, DWORD PTR [esi+4168]
  00246	ff d3		 call	 ebx
  00248	6a 05		 push	 5

; 89   : 
; 90   : 	rkLoader.LoadString_e( "target_circle_effect", "", szBuf, MAX_PATH );

  0024a	c7 45 e0 99 8d
	99 8d		 mov	 DWORD PTR __k$554587[ebp], -1919316583 ; 8d998d99H
  00251	c7 45 e4 88 98
	b4 89		 mov	 DWORD PTR __k$554587[ebp+4], -1984653176 ; 89b49888H
  00258	c7 45 e8 84 9e
	88 86		 mov	 DWORD PTR __k$554587[ebp+8], -2037866876 ; 86889e84H
  0025f	c7 45 ec 88 b3
	8e 8c		 mov	 DWORD PTR __k$554587[ebp+12], -1936804984 ; 8c8eb388H
  00266	c7 45 f0 8b 89
	88 9e		 mov	 DWORD PTR __k$554587[ebp+16], -1635219061 ; 9e88898bH
  0026d	8d 45 e0	 lea	 eax, DWORD PTR __k$554587[ebp]
  00270	c6 45 f4 00	 mov	 BYTE PTR __k$554587[ebp+20], 0
  00274	59		 pop	 ecx
$LL636@LoadProper:
  00275	81 30 ed ec eb
	ea		 xor	 DWORD PTR [eax], -353637139 ; eaebecedH
  0027b	83 c0 04	 add	 eax, 4
  0027e	49		 dec	 ecx
  0027f	75 f4		 jne	 SHORT $LL636@LoadProper
  00281	8b 8d d8 fe ff
	ff		 mov	 ecx, DWORD PTR _rkLoader$GSCopy$[ebp]
  00287	68 04 01 00 00	 push	 260			; 00000104H
  0028c	8d 85 dc fe ff
	ff		 lea	 eax, DWORD PTR _szBuf$[ebp]
  00292	50		 push	 eax
  00293	68 00 00 00 00	 push	 OFFSET ??_C@_00CNPNBAHC@?$AA@
  00298	8d 45 e0	 lea	 eax, DWORD PTR __k$554587[ebp]
  0029b	50		 push	 eax
  0029c	ff d7		 call	 edi

; 91   : 	m_TargetCircleEffect = szBuf;

  0029e	8d 85 dc fe ff
	ff		 lea	 eax, DWORD PTR _szBuf$[ebp]
  002a4	50		 push	 eax
  002a5	8d 8e 58 10 00
	00		 lea	 ecx, DWORD PTR [esi+4184]
  002ab	ff d3		 call	 ebx
  002ad	6a 03		 push	 3

; 92   : 
; 93   : 	rkLoader.LoadString_e( "red_team_circle", "", szBuf, MAX_PATH );

  002af	c7 45 e8 9f 89
	8f b5		 mov	 DWORD PTR __k$554712[ebp], -1248884321 ; b58f899fH
  002b6	c7 45 ec 99 89
	8a 87		 mov	 DWORD PTR __k$554712[ebp+4], -2020963943 ; 878a8999H
  002bd	c7 45 f0 b2 8f
	82 98		 mov	 DWORD PTR __k$554712[ebp+8], -1736273998 ; 98828fb2H
  002c4	8d 45 e8	 lea	 eax, DWORD PTR __k$554712[ebp]
  002c7	c7 45 f4 8e 80
	8e 00		 mov	 DWORD PTR __k$554712[ebp+12], 9339022 ; 008e808eH
  002ce	59		 pop	 ecx
$LL742@LoadProper:
  002cf	81 30 ed ec eb
	ea		 xor	 DWORD PTR [eax], -353637139 ; eaebecedH
  002d5	83 c0 04	 add	 eax, 4
  002d8	49		 dec	 ecx
  002d9	75 f4		 jne	 SHORT $LL742@LoadProper
  002db	6a 0c		 push	 12			; 0000000cH
  002dd	58		 pop	 eax
$LL739@LoadProper:
  002de	8b c8		 mov	 ecx, eax
  002e0	81 e1 03 00 00
	80		 and	 ecx, -2147483645	; 80000003H
  002e6	79 05		 jns	 SHORT $LN1989@LoadProper
  002e8	49		 dec	 ecx
  002e9	83 c9 fc	 or	 ecx, -4			; fffffffcH
  002ec	41		 inc	 ecx
$LN1989@LoadProper:
  002ed	b2 ed		 mov	 dl, -19			; ffffffedH
  002ef	2a d1		 sub	 dl, cl
  002f1	30 54 05 e8	 xor	 BYTE PTR __k$554712[ebp+eax], dl
  002f5	40		 inc	 eax
  002f6	83 f8 0f	 cmp	 eax, 15			; 0000000fH
  002f9	7c e3		 jl	 SHORT $LL739@LoadProper
  002fb	8b 8d d8 fe ff
	ff		 mov	 ecx, DWORD PTR _rkLoader$GSCopy$[ebp]
  00301	68 04 01 00 00	 push	 260			; 00000104H
  00306	8d 85 dc fe ff
	ff		 lea	 eax, DWORD PTR _szBuf$[ebp]
  0030c	50		 push	 eax
  0030d	68 00 00 00 00	 push	 OFFSET ??_C@_00CNPNBAHC@?$AA@
  00312	8d 45 e8	 lea	 eax, DWORD PTR __k$554712[ebp]
  00315	50		 push	 eax
  00316	ff d7		 call	 edi

; 94   : 	m_RedEffect = szBuf;

  00318	8d 85 dc fe ff
	ff		 lea	 eax, DWORD PTR _szBuf$[ebp]
  0031e	50		 push	 eax
  0031f	8d 8e 68 10 00
	00		 lea	 ecx, DWORD PTR [esi+4200]
  00325	ff d3		 call	 ebx
  00327	6a 04		 push	 4

; 95   : 	rkLoader.LoadString_e( "blue_team_circle", "", szBuf, MAX_PATH );

  00329	c7 45 e4 8f 80
	9e 8f		 mov	 DWORD PTR __k$554839[ebp], -1885437809 ; 8f9e808fH
  00330	c7 45 e8 b2 98
	8e 8b		 mov	 DWORD PTR __k$554839[ebp+4], -1953589070 ; 8b8e98b2H
  00337	c7 45 ec 80 b3
	88 83		 mov	 DWORD PTR __k$554839[ebp+8], -2088193152 ; 8388b380H
  0033e	c7 45 f0 9f 8f
	87 8f		 mov	 DWORD PTR __k$554839[ebp+12], -1886941281 ; 8f878f9fH
  00345	8d 45 e4	 lea	 eax, DWORD PTR __k$554839[ebp]
  00348	c6 45 f4 00	 mov	 BYTE PTR __k$554839[ebp+16], 0
  0034c	59		 pop	 ecx
$LL848@LoadProper:
  0034d	81 30 ed ec eb
	ea		 xor	 DWORD PTR [eax], -353637139 ; eaebecedH
  00353	83 c0 04	 add	 eax, 4
  00356	49		 dec	 ecx
  00357	75 f4		 jne	 SHORT $LL848@LoadProper
  00359	8b 8d d8 fe ff
	ff		 mov	 ecx, DWORD PTR _rkLoader$GSCopy$[ebp]
  0035f	68 04 01 00 00	 push	 260			; 00000104H
  00364	8d 85 dc fe ff
	ff		 lea	 eax, DWORD PTR _szBuf$[ebp]
  0036a	50		 push	 eax
  0036b	68 00 00 00 00	 push	 OFFSET ??_C@_00CNPNBAHC@?$AA@
  00370	8d 45 e4	 lea	 eax, DWORD PTR __k$554839[ebp]
  00373	50		 push	 eax
  00374	ff d7		 call	 edi

; 96   : 	m_BlueEffect = szBuf;

  00376	8d 85 dc fe ff
	ff		 lea	 eax, DWORD PTR _szBuf$[ebp]
  0037c	50		 push	 eax
  0037d	8d 8e 78 10 00
	00		 lea	 ecx, DWORD PTR [esi+4216]
  00383	ff d3		 call	 ebx
  00385	6a 03		 push	 3

; 97   : 
; 98   : 	rkLoader.LoadString_e( "start_effect", "", szBuf, MAX_PATH );

  00387	c7 45 e8 9e 98
	8a 98		 mov	 DWORD PTR __k$554962[ebp], -1735747426 ; 988a989eH
  0038e	c7 45 ec 99 b3
	8e 8c		 mov	 DWORD PTR __k$554962[ebp+4], -1936804967 ; 8c8eb399H
  00395	c7 45 f0 8b 89
	88 9e		 mov	 DWORD PTR __k$554962[ebp+8], -1635219061 ; 9e88898bH
  0039c	8d 45 e8	 lea	 eax, DWORD PTR __k$554962[ebp]
  0039f	c6 45 f4 00	 mov	 BYTE PTR __k$554962[ebp+12], 0
  003a3	59		 pop	 ecx
$LL954@LoadProper:
  003a4	81 30 ed ec eb
	ea		 xor	 DWORD PTR [eax], -353637139 ; eaebecedH
  003aa	83 c0 04	 add	 eax, 4
  003ad	49		 dec	 ecx
  003ae	75 f4		 jne	 SHORT $LL954@LoadProper
  003b0	8b 8d d8 fe ff
	ff		 mov	 ecx, DWORD PTR _rkLoader$GSCopy$[ebp]
  003b6	68 04 01 00 00	 push	 260			; 00000104H
  003bb	8d 85 dc fe ff
	ff		 lea	 eax, DWORD PTR _szBuf$[ebp]
  003c1	50		 push	 eax
  003c2	68 00 00 00 00	 push	 OFFSET ??_C@_00CNPNBAHC@?$AA@
  003c7	8d 45 e8	 lea	 eax, DWORD PTR __k$554962[ebp]
  003ca	50		 push	 eax
  003cb	ff d7		 call	 edi

; 99   : 	m_StartEffect = szBuf;

  003cd	8d 85 dc fe ff
	ff		 lea	 eax, DWORD PTR _szBuf$[ebp]
  003d3	50		 push	 eax
  003d4	8d 8e 90 10 00
	00		 lea	 ecx, DWORD PTR [esi+4240]
  003da	ff d3		 call	 ebx
  003dc	6a 02		 push	 2

; 100  : 	rkLoader.LoadString_e( "end_effect", "", szBuf, MAX_PATH );

  003de	c7 45 ec 88 82
	8f b5		 mov	 DWORD PTR __k$555165[ebp], -1248886136 ; b58f8288H
  003e5	c7 45 f0 88 8a
	8d 8f		 mov	 DWORD PTR __k$555165[ebp+4], -1886549368 ; 8f8d8a88H
  003ec	66 c7 45 f4 8e
	98		 mov	 WORD PTR __k$555165[ebp+8], 39054 ; 0000988eH
  003f2	8d 45 ec	 lea	 eax, DWORD PTR __k$555165[ebp]
  003f5	c6 45 f6 00	 mov	 BYTE PTR __k$555165[ebp+10], 0
  003f9	59		 pop	 ecx
$LL1060@LoadProper:
  003fa	81 30 ed ec eb
	ea		 xor	 DWORD PTR [eax], -353637139 ; eaebecedH
  00400	83 c0 04	 add	 eax, 4
  00403	49		 dec	 ecx
  00404	75 f4		 jne	 SHORT $LL1060@LoadProper
  00406	6a 08		 push	 8
  00408	58		 pop	 eax
$LL1057@LoadProper:
  00409	8b c8		 mov	 ecx, eax
  0040b	81 e1 03 00 00
	80		 and	 ecx, -2147483645	; 80000003H
  00411	79 05		 jns	 SHORT $LN1990@LoadProper
  00413	49		 dec	 ecx
  00414	83 c9 fc	 or	 ecx, -4			; fffffffcH
  00417	41		 inc	 ecx
$LN1990@LoadProper:
  00418	b2 ed		 mov	 dl, -19			; ffffffedH
  0041a	2a d1		 sub	 dl, cl
  0041c	30 54 05 ec	 xor	 BYTE PTR __k$555165[ebp+eax], dl
  00420	40		 inc	 eax
  00421	83 f8 0a	 cmp	 eax, 10			; 0000000aH
  00424	7c e3		 jl	 SHORT $LL1057@LoadProper
  00426	8b 8d d8 fe ff
	ff		 mov	 ecx, DWORD PTR _rkLoader$GSCopy$[ebp]
  0042c	68 04 01 00 00	 push	 260			; 00000104H
  00431	8d 85 dc fe ff
	ff		 lea	 eax, DWORD PTR _szBuf$[ebp]
  00437	50		 push	 eax
  00438	68 00 00 00 00	 push	 OFFSET ??_C@_00CNPNBAHC@?$AA@
  0043d	8d 45 ec	 lea	 eax, DWORD PTR __k$555165[ebp]
  00440	50		 push	 eax
  00441	ff d7		 call	 edi

; 101  : 	m_EndEffect = szBuf;

  00443	8d 85 dc fe ff
	ff		 lea	 eax, DWORD PTR _szBuf$[ebp]
  00449	50		 push	 eax
  0044a	8d 8e a0 10 00
	00		 lea	 ecx, DWORD PTR [esi+4256]
  00450	ff d3		 call	 ebx
  00452	6a 04		 push	 4

; 102  : 
; 103  : 	m_fCharMoveSpeed = rkLoader.LoadFloat_e( "skill_move_speed", 0.0f );

  00454	c7 45 e4 9e 87
	82 86		 mov	 DWORD PTR __k$555212[ebp], -2038265954 ; 8682879eH
  0045b	c7 45 e8 81 b3
	86 85		 mov	 DWORD PTR __k$555212[ebp+4], -2054769791 ; 8586b381H
  00462	c7 45 ec 9b 89
	b4 99		 mov	 DWORD PTR __k$555212[ebp+8], -1716221541 ; 99b4899bH
  00469	c7 45 f0 9d 89
	8e 8e		 mov	 DWORD PTR __k$555212[ebp+12], -1903261283 ; 8e8e899dH
  00470	8d 45 e4	 lea	 eax, DWORD PTR __k$555212[ebp]
  00473	c6 45 f4 00	 mov	 BYTE PTR __k$555212[ebp+16], 0
  00477	59		 pop	 ecx
$LL1166@LoadProper:
  00478	81 30 ed ec eb
	ea		 xor	 DWORD PTR [eax], -353637139 ; eaebecedH
  0047e	83 c0 04	 add	 eax, 4
  00481	49		 dec	 ecx
  00482	75 f4		 jne	 SHORT $LL1166@LoadProper
  00484	0f 57 c0	 xorps	 xmm0, xmm0
  00487	51		 push	 ecx
  00488	8b 8d d8 fe ff
	ff		 mov	 ecx, DWORD PTR _rkLoader$GSCopy$[ebp]
  0048e	8d 45 e4	 lea	 eax, DWORD PTR __k$555212[ebp]
  00491	f3 0f 11 04 24	 movss	 DWORD PTR [esp], xmm0
  00496	50		 push	 eax
  00497	ff 15 00 00 00
	00		 call	 DWORD PTR __imp_?LoadFloat@ioINILoader@@QAEMPBDM@Z
  0049d	d9 9e 00 10 00
	00		 fstp	 DWORD PTR [esi+4096]
  004a3	6a 04		 push	 4

; 104  : 	m_fCharJumpPower = rkLoader.LoadFloat_e( "skill_jump_power", 0.0f );

  004a5	c7 45 e4 9e 87
	82 86		 mov	 DWORD PTR __k$555337[ebp], -2038265954 ; 8682879eH
  004ac	c7 45 e8 81 b3
	81 9f		 mov	 DWORD PTR __k$555337[ebp+4], -1618889855 ; 9f81b381H
  004b3	c7 45 ec 80 9c
	b4 9a		 mov	 DWORD PTR __k$555337[ebp+8], -1699439488 ; 9ab49c80H
  004ba	c7 45 f0 82 9b
	8e 98		 mov	 DWORD PTR __k$555337[ebp+12], -1735484542 ; 988e9b82H
  004c1	8d 45 e4	 lea	 eax, DWORD PTR __k$555337[ebp]
  004c4	c6 45 f4 00	 mov	 BYTE PTR __k$555337[ebp+16], 0
  004c8	59		 pop	 ecx
$LL1272@LoadProper:
  004c9	81 30 ed ec eb
	ea		 xor	 DWORD PTR [eax], -353637139 ; eaebecedH
  004cf	83 c0 04	 add	 eax, 4
  004d2	49		 dec	 ecx
  004d3	75 f4		 jne	 SHORT $LL1272@LoadProper
  004d5	0f 57 c0	 xorps	 xmm0, xmm0
  004d8	51		 push	 ecx
  004d9	8b 8d d8 fe ff
	ff		 mov	 ecx, DWORD PTR _rkLoader$GSCopy$[ebp]
  004df	8d 45 e4	 lea	 eax, DWORD PTR __k$555337[ebp]
  004e2	f3 0f 11 04 24	 movss	 DWORD PTR [esp], xmm0
  004e7	50		 push	 eax
  004e8	ff 15 00 00 00
	00		 call	 DWORD PTR __imp_?LoadFloat@ioINILoader@@QAEMPBDM@Z
  004ee	d9 9e 04 10 00
	00		 fstp	 DWORD PTR [esi+4100]
  004f4	6a 04		 push	 4

; 105  : 
; 106  : 	m_dwMaxChargingTime = rkLoader.LoadInt_e( "charging_max_time", 0 );

  004f6	c7 45 e4 8e 84
	8a 98		 mov	 DWORD PTR __k$555462[ebp], -1735752562 ; 988a848eH
  004fd	c7 45 e8 8a 85
	85 8d		 mov	 DWORD PTR __k$555462[ebp+4], -1920629366 ; 8d85858aH
  00504	c7 45 ec b2 81
	8a 92		 mov	 DWORD PTR __k$555462[ebp+8], -1836416590 ; 928a81b2H
  0050b	c7 45 f0 b2 98
	82 87		 mov	 DWORD PTR __k$555462[ebp+12], -2021484366 ; 878298b2H
  00512	8d 45 e4	 lea	 eax, DWORD PTR __k$555462[ebp]
  00515	66 c7 45 f4 88
	00		 mov	 WORD PTR __k$555462[ebp+16], 136 ; 00000088H
  0051b	59		 pop	 ecx
$LL1378@LoadProper:
  0051c	81 30 ed ec eb
	ea		 xor	 DWORD PTR [eax], -353637139 ; eaebecedH
  00522	83 c0 04	 add	 eax, 4
  00525	49		 dec	 ecx
  00526	75 f4		 jne	 SHORT $LL1378@LoadProper
  00528	80 75 f4 ed	 xor	 BYTE PTR __k$555462[ebp+16], -19 ; ffffffedH
  0052c	51		 push	 ecx
  0052d	8b 8d d8 fe ff
	ff		 mov	 ecx, DWORD PTR _rkLoader$GSCopy$[ebp]
  00533	8d 45 e4	 lea	 eax, DWORD PTR __k$555462[ebp]
  00536	50		 push	 eax
  00537	ff 15 00 00 00
	00		 call	 DWORD PTR __imp_?LoadInt@ioINILoader@@QAEHPBDH@Z
  0053d	6a 05		 push	 5
  0053f	89 86 ec 0f 00
	00		 mov	 DWORD PTR [esi+4076], eax

; 107  : 
; 108  : 	rkLoader.LoadString_e( "skill_charging_effect", "", szBuf, MAX_PATH );

  00545	c7 45 e0 9e 87
	82 86		 mov	 DWORD PTR __k$555587[ebp], -2038265954 ; 8682879eH
  0054c	c7 45 e4 81 b3
	88 82		 mov	 DWORD PTR __k$555587[ebp+4], -2104970367 ; 8288b381H
  00553	c7 45 e8 8c 9e
	8c 83		 mov	 DWORD PTR __k$555587[ebp+8], -2087936372 ; 838c9e8cH
  0055a	c7 45 ec 83 8b
	b4 8f		 mov	 DWORD PTR __k$555587[ebp+12], -1883993213 ; 8fb48b83H
  00561	c7 45 f0 8b 8a
	8e 89		 mov	 DWORD PTR __k$555587[ebp+16], -1987147125 ; 898e8a8bH
  00568	8d 45 e0	 lea	 eax, DWORD PTR __k$555587[ebp]
  0056b	66 c7 45 f4 99
	00		 mov	 WORD PTR __k$555587[ebp+20], 153 ; 00000099H
  00571	59		 pop	 ecx
$LL1484@LoadProper:
  00572	81 30 ed ec eb
	ea		 xor	 DWORD PTR [eax], -353637139 ; eaebecedH
  00578	83 c0 04	 add	 eax, 4
  0057b	49		 dec	 ecx
  0057c	75 f4		 jne	 SHORT $LL1484@LoadProper
  0057e	8b 8d d8 fe ff
	ff		 mov	 ecx, DWORD PTR _rkLoader$GSCopy$[ebp]
  00584	80 75 f4 ed	 xor	 BYTE PTR __k$555587[ebp+20], -19 ; ffffffedH
  00588	68 04 01 00 00	 push	 260			; 00000104H
  0058d	8d 85 dc fe ff
	ff		 lea	 eax, DWORD PTR _szBuf$[ebp]
  00593	50		 push	 eax
  00594	68 00 00 00 00	 push	 OFFSET ??_C@_00CNPNBAHC@?$AA@
  00599	8d 45 e0	 lea	 eax, DWORD PTR __k$555587[ebp]
  0059c	50		 push	 eax
  0059d	ff d7		 call	 edi

; 109  : 	m_SkillChargingEffect = szBuf;

  0059f	8d 85 dc fe ff
	ff		 lea	 eax, DWORD PTR _szBuf$[ebp]
  005a5	50		 push	 eax
  005a6	8d 8e 18 10 00
	00		 lea	 ecx, DWORD PTR [esi+4120]
  005ac	ff d3		 call	 ebx
  005ae	6a 04		 push	 4

; 110  : 
; 111  : 	rkLoader.LoadString_e( "skill_loop_motion", "", szBuf, MAX_PATH );

  005b0	c7 45 e4 9e 87
	82 86		 mov	 DWORD PTR __k$555712[ebp], -2038265954 ; 8682879eH
  005b7	c7 45 e8 81 b3
	87 85		 mov	 DWORD PTR __k$555712[ebp+4], -2054704255 ; 8587b381H
  005be	c7 45 ec 82 9c
	b4 87		 mov	 DWORD PTR __k$555712[ebp+8], -2018206590 ; 87b49c82H
  005c5	c7 45 f0 82 98
	82 85		 mov	 DWORD PTR __k$555712[ebp+12], -2055038846 ; 85829882H
  005cc	8d 45 e4	 lea	 eax, DWORD PTR __k$555712[ebp]
  005cf	66 c7 45 f4 83
	00		 mov	 WORD PTR __k$555712[ebp+16], 131 ; 00000083H
  005d5	59		 pop	 ecx
$LL1590@LoadProper:
  005d6	81 30 ed ec eb
	ea		 xor	 DWORD PTR [eax], -353637139 ; eaebecedH
  005dc	83 c0 04	 add	 eax, 4
  005df	49		 dec	 ecx
  005e0	75 f4		 jne	 SHORT $LL1590@LoadProper
  005e2	8b 8d d8 fe ff
	ff		 mov	 ecx, DWORD PTR _rkLoader$GSCopy$[ebp]
  005e8	80 75 f4 ed	 xor	 BYTE PTR __k$555712[ebp+16], -19 ; ffffffedH
  005ec	68 04 01 00 00	 push	 260			; 00000104H
  005f1	8d 85 dc fe ff
	ff		 lea	 eax, DWORD PTR _szBuf$[ebp]
  005f7	50		 push	 eax
  005f8	68 00 00 00 00	 push	 OFFSET ??_C@_00CNPNBAHC@?$AA@
  005fd	8d 45 e4	 lea	 eax, DWORD PTR __k$555712[ebp]
  00600	50		 push	 eax
  00601	ff d7		 call	 edi

; 112  : 	m_SkillLoopMotion = szBuf;

  00603	8d 85 dc fe ff
	ff		 lea	 eax, DWORD PTR _szBuf$[ebp]
  00609	50		 push	 eax
  0060a	8d 8e d8 0f 00
	00		 lea	 ecx, DWORD PTR [esi+4056]
  00610	ff d3		 call	 ebx

; 113  : 
; 114  : 	m_fSkillLoopMotionRate = rkLoader.LoadFloat_e( "skill_loop_motion_rate", FLOAT1 );

  00612	b8 01 00 00 00	 mov	 eax, 1
  00617	6a 05		 push	 5
  00619	c7 45 e0 9e 87
	82 86		 mov	 DWORD PTR __k$555841[ebp], -2038265954 ; 8682879eH
  00620	c7 45 e4 81 b3
	87 85		 mov	 DWORD PTR __k$555841[ebp+4], -2054704255 ; 8587b381H
  00627	c7 45 e8 82 9c
	b4 87		 mov	 DWORD PTR __k$555841[ebp+8], -2018206590 ; 87b49c82H
  0062e	c7 45 ec 82 98
	82 85		 mov	 DWORD PTR __k$555841[ebp+12], -2055038846 ; 85829882H
  00635	c7 45 f0 83 b3
	99 8b		 mov	 DWORD PTR __k$555841[ebp+16], -1952861309 ; 8b99b383H
  0063c	66 c7 45 f4 99
	89		 mov	 WORD PTR __k$555841[ebp+20], 35225 ; 00008999H
  00642	8d 4d e0	 lea	 ecx, DWORD PTR __k$555841[ebp]
  00645	c6 45 f6 00	 mov	 BYTE PTR __k$555841[ebp+22], 0
  00649	5a		 pop	 edx
  0064a	bf ed ec eb ea	 mov	 edi, -353637139		; eaebecedH
$LL1698@LoadProper:
  0064f	31 39		 xor	 DWORD PTR [ecx], edi
  00651	83 c1 04	 add	 ecx, 4
  00654	4a		 dec	 edx
  00655	75 f8		 jne	 SHORT $LL1698@LoadProper
  00657	6a 14		 push	 20			; 00000014H
  00659	59		 pop	 ecx
$LL1695@LoadProper:
  0065a	8b d1		 mov	 edx, ecx
  0065c	81 e2 03 00 00
	80		 and	 edx, -2147483645	; 80000003H
  00662	79 05		 jns	 SHORT $LN1991@LoadProper
  00664	4a		 dec	 edx
  00665	83 ca fc	 or	 edx, -4			; fffffffcH
  00668	42		 inc	 edx
$LN1991@LoadProper:
  00669	b3 ed		 mov	 bl, -19			; ffffffedH
  0066b	2a da		 sub	 bl, dl
  0066d	30 5c 0d e0	 xor	 BYTE PTR __k$555841[ebp+ecx], bl
  00671	41		 inc	 ecx
  00672	83 f9 16	 cmp	 ecx, 22			; 00000016H
  00675	7c e3		 jl	 SHORT $LL1695@LoadProper
  00677	89 85 d4 fe ff
	ff		 mov	 DWORD PTR tv16634[ebp], eax
  0067d	db 85 d4 fe ff
	ff		 fild	 DWORD PTR tv16634[ebp]
  00683	85 c0		 test	 eax, eax
  00685	79 06		 jns	 SHORT $LN1992@LoadProper
  00687	d8 05 00 00 00
	00		 fadd	 DWORD PTR __real@4f800000
$LN1992@LoadProper:
  0068d	51		 push	 ecx
  0068e	8b 8d d8 fe ff
	ff		 mov	 ecx, DWORD PTR _rkLoader$GSCopy$[ebp]
  00694	d9 1c 24	 fstp	 DWORD PTR [esp]
  00697	8d 45 e0	 lea	 eax, DWORD PTR __k$555841[ebp]
  0069a	50		 push	 eax
  0069b	ff 15 00 00 00
	00		 call	 DWORD PTR __imp_?LoadFloat@ioINILoader@@QAEMPBDM@Z
  006a1	d9 9e e8 0f 00
	00		 fstp	 DWORD PTR [esi+4072]
  006a7	6a 04		 push	 4

; 115  : 
; 116  : 	m_dwLoopDuration = rkLoader.LoadInt_e( "skill_loop_duration", 0 );

  006a9	c7 45 e4 9e 87
	82 86		 mov	 DWORD PTR __k$555966[ebp], -2038265954 ; 8682879eH
  006b0	c7 45 e8 81 b3
	87 85		 mov	 DWORD PTR __k$555966[ebp+4], -2054704255 ; 8587b381H
  006b7	c7 45 ec 82 9c
	b4 8e		 mov	 DWORD PTR __k$555966[ebp+8], -1900766078 ; 8eb49c82H
  006be	c7 45 f0 98 9e
	8a 9e		 mov	 DWORD PTR __k$555966[ebp+12], -1635082600 ; 9e8a9e98H
  006c5	8d 45 e4	 lea	 eax, DWORD PTR __k$555966[ebp]
  006c8	c7 45 f4 84 83
	85 00		 mov	 DWORD PTR __k$555966[ebp+16], 8749956 ; 00858384H
  006cf	59		 pop	 ecx
$LL1804@LoadProper:
  006d0	31 38		 xor	 DWORD PTR [eax], edi
  006d2	83 c0 04	 add	 eax, 4
  006d5	49		 dec	 ecx
  006d6	75 f8		 jne	 SHORT $LL1804@LoadProper
  006d8	6a 10		 push	 16			; 00000010H
  006da	58		 pop	 eax
$LL1801@LoadProper:
  006db	8b c8		 mov	 ecx, eax
  006dd	81 e1 03 00 00
	80		 and	 ecx, -2147483645	; 80000003H
  006e3	79 05		 jns	 SHORT $LN1993@LoadProper
  006e5	49		 dec	 ecx
  006e6	83 c9 fc	 or	 ecx, -4			; fffffffcH
  006e9	41		 inc	 ecx
$LN1993@LoadProper:
  006ea	b2 ed		 mov	 dl, -19			; ffffffedH
  006ec	2a d1		 sub	 dl, cl
  006ee	30 54 05 e4	 xor	 BYTE PTR __k$555966[ebp+eax], dl
  006f2	40		 inc	 eax
  006f3	83 f8 13	 cmp	 eax, 19			; 00000013H
  006f6	7c e3		 jl	 SHORT $LL1801@LoadProper
  006f8	8b 8d d8 fe ff
	ff		 mov	 ecx, DWORD PTR _rkLoader$GSCopy$[ebp]
  006fe	6a 00		 push	 0
  00700	8d 45 e4	 lea	 eax, DWORD PTR __k$555966[ebp]
  00703	50		 push	 eax
  00704	ff 15 00 00 00
	00		 call	 DWORD PTR __imp_?LoadInt@ioINILoader@@QAEHPBDH@Z
  0070a	89 86 10 10 00
	00		 mov	 DWORD PTR [esi+4112], eax

; 117  : 
; 118  : 	// Action Attack
; 119  : 	m_AttackAttribute.Init();

  00710	81 c6 88 0f 00
	00		 add	 esi, 3976		; 00000f88H
  00716	8b ce		 mov	 ecx, esi
  00718	e8 00 00 00 00	 call	 ?Init@AttackAttribute@@QAEXXZ ; AttackAttribute::Init
  0071d	6a 03		 push	 3

; 120  : 	LoadAttackAttribute_e( "charging_attack", m_AttackAttribute, rkLoader );

  0071f	c7 45 e8 8e 84
	8a 98		 mov	 DWORD PTR _szEncAttack$556194[ebp], -1735752562 ; 988a848eH
  00726	c7 45 ec 8a 85
	85 8d		 mov	 DWORD PTR _szEncAttack$556194[ebp+4], -1920629366 ; 8d85858aH
  0072d	c7 45 f0 b2 8d
	9f 9e		 mov	 DWORD PTR _szEncAttack$556194[ebp+8], -1633710670 ; 9e9f8db2H
  00734	8d 45 e8	 lea	 eax, DWORD PTR _szEncAttack$556194[ebp]
  00737	c7 45 f4 8c 8f
	80 00		 mov	 DWORD PTR _szEncAttack$556194[ebp+12], 8425356 ; 00808f8cH
  0073e	59		 pop	 ecx
$LL1910@LoadProper:
  0073f	31 38		 xor	 DWORD PTR [eax], edi
  00741	83 c0 04	 add	 eax, 4
  00744	49		 dec	 ecx
  00745	75 f8		 jne	 SHORT $LL1910@LoadProper
  00747	6a 0c		 push	 12			; 0000000cH
  00749	58		 pop	 eax
$LL1907@LoadProper:
  0074a	8b c8		 mov	 ecx, eax
  0074c	81 e1 03 00 00
	80		 and	 ecx, -2147483645	; 80000003H
  00752	79 05		 jns	 SHORT $LN1994@LoadProper
  00754	49		 dec	 ecx
  00755	83 c9 fc	 or	 ecx, -4			; fffffffcH
  00758	41		 inc	 ecx
$LN1994@LoadProper:
  00759	b2 ed		 mov	 dl, -19			; ffffffedH
  0075b	2a d1		 sub	 dl, cl
  0075d	30 54 05 e8	 xor	 BYTE PTR _szEncAttack$556194[ebp+eax], dl
  00761	40		 inc	 eax
  00762	83 f8 0f	 cmp	 eax, 15			; 0000000fH
  00765	7c e3		 jl	 SHORT $LL1907@LoadProper
  00767	ff b5 d8 fe ff
	ff		 push	 DWORD PTR _rkLoader$GSCopy$[ebp]
  0076d	8d 45 e8	 lea	 eax, DWORD PTR _szEncAttack$556194[ebp]
  00770	56		 push	 esi
  00771	50		 push	 eax
  00772	e8 00 00 00 00	 call	 ?LoadAttackAttribute@@YAXPBDAAUAttackAttribute@@AAVioINILoader@@@Z ; LoadAttackAttribute

; 121  : }

  00777	8b 4d fc	 mov	 ecx, DWORD PTR __$ArrayPad$[ebp]
  0077a	83 c4 0c	 add	 esp, 12			; 0000000cH
  0077d	5f		 pop	 edi
  0077e	5e		 pop	 esi
  0077f	33 cd		 xor	 ecx, ebp
  00781	5b		 pop	 ebx
  00782	e8 00 00 00 00	 call	 @__security_check_cookie@4
  00787	c9		 leave
  00788	c2 04 00	 ret	 4
?LoadProperty@ioChargingFireSkill@@UAEXAAVioINILoader@@@Z ENDP ; ioChargingFireSkill::LoadProperty
_TEXT	ENDS
PUBLIC	?OnSkillEnd@ioChargingFireSkill@@UAEXPAVioBaseChar@@@Z ; ioChargingFireSkill::OnSkillEnd
EXTRN	?DestroyMagicCircle@ioBaseGUISupport@@QAEXXZ:PROC ; ioBaseGUISupport::DestroyMagicCircle
EXTRN	?EndMapEffect@ioBaseChar@@QAEXK_N@Z:PROC	; ioBaseChar::EndMapEffect
EXTRN	?SetMagicCircleTarget@ioBaseGUISupport@@QAEXABVioHashString@@@Z:PROC ; ioBaseGUISupport::SetMagicCircleTarget
EXTRN	?EndCameraBuff@ioSkill@@IAEXPAVioBaseChar@@@Z:PROC ; ioSkill::EndCameraBuff
EXTRN	?RestoreSkillWeaponMesh@ioBaseChar@@QAE_NPAVioSkill@@ABVioHashString@@_N2@Z:PROC ; ioBaseChar::RestoreSkillWeaponMesh
EXTRN	__imp_?IsEmpty@ioHashString@@QBE_NXZ:PROC
EXTRN	?ShowWeaponItemMesh@ioBaseChar@@QAEX_N0@Z:PROC	; ioBaseChar::ShowWeaponItemMesh
EXTRN	?OnSkillEnd@ioNormalSkill@@UAEXPAVioBaseChar@@@Z:PROC ; ioNormalSkill::OnSkillEnd
;	COMDAT xdata$x
; File d:\lost saga for developer\youtube\tutorial\source\src\lsclient\encryptvalue.h
xdata$x	SEGMENT
__unwindtable$?OnSkillEnd@ioChargingFireSkill@@UAEXPAVioBaseChar@@@Z DD 0ffffffffH
	DD	FLAT:__unwindfunclet$?OnSkillEnd@ioChargingFireSkill@@UAEXPAVioBaseChar@@@Z$0
__ehfuncinfo$?OnSkillEnd@ioChargingFireSkill@@UAEXPAVioBaseChar@@@Z DD 019930522H
	DD	01H
	DD	FLAT:__unwindtable$?OnSkillEnd@ioChargingFireSkill@@UAEXPAVioBaseChar@@@Z
	DD	2 DUP(00H)
	DD	2 DUP(00H)
	DD	00H
	DD	01H
; Function compile flags: /Ogsp
; File d:\lost saga for developer\youtube\tutorial\source\src\lsclient\iochargingfireskill.cpp
xdata$x	ENDS
;	COMDAT ?OnSkillEnd@ioChargingFireSkill@@UAEXPAVioBaseChar@@@Z
_TEXT	SEGMENT
$T556287 = -36						; size = 16
_value$556300 = -20					; size = 4
tv235 = -16						; size = 4
__$EHRec$ = -12						; size = 12
_value$556296 = 8					; size = 4
_value$556292 = 8					; size = 4
_pChar$ = 8						; size = 4
?OnSkillEnd@ioChargingFireSkill@@UAEXPAVioBaseChar@@@Z PROC ; ioChargingFireSkill::OnSkillEnd, COMDAT
; _this$ = ecx

; 187  : {

  00000	6a 18		 push	 24			; 00000018H
  00002	b8 00 00 00 00	 mov	 eax, __ehhandler$?OnSkillEnd@ioChargingFireSkill@@UAEXPAVioBaseChar@@@Z
  00007	e8 00 00 00 00	 call	 __EH_prolog3
  0000c	8b f1		 mov	 esi, ecx

; 188  : 	ioNormalSkill::OnSkillEnd( pChar );

  0000e	8b 7d 08	 mov	 edi, DWORD PTR _pChar$[ebp]
  00011	57		 push	 edi
  00012	e8 00 00 00 00	 call	 ?OnSkillEnd@ioNormalSkill@@UAEXPAVioBaseChar@@@Z ; ioNormalSkill::OnSkillEnd

; 189  : 
; 190  : 	//  
; 191  : 	if( m_bUseItemMesh )

  00017	33 db		 xor	 ebx, ebx
  00019	38 9e 08 0f 00
	00		 cmp	 BYTE PTR [esi+3848], bl
  0001f	74 0a		 je	 SHORT $LN5@OnSkillEnd

; 192  : 	{
; 193  : 		pChar->ShowWeaponItemMesh( true );

  00021	53		 push	 ebx
  00022	6a 01		 push	 1
  00024	8b cf		 mov	 ecx, edi
  00026	e8 00 00 00 00	 call	 ?ShowWeaponItemMesh@ioBaseChar@@QAEX_N0@Z ; ioBaseChar::ShowWeaponItemMesh
$LN5@OnSkillEnd:

; 194  : 	}
; 195  : 
; 196  : 	//      
; 197  : 	m_bSetHandMesh = false;
; 198  : 	if( !m_HandMesh.IsEmpty() )

  0002b	8d 8e f8 0e 00
	00		 lea	 ecx, DWORD PTR [esi+3832]
  00031	88 9e 0a 0f 00
	00		 mov	 BYTE PTR [esi+3850], bl
  00037	ff 15 00 00 00
	00		 call	 DWORD PTR __imp_?IsEmpty@ioHashString@@QBE_NXZ
  0003d	84 c0		 test	 al, al
  0003f	75 18		 jne	 SHORT $LN4@OnSkillEnd

; 199  : 		pChar->RestoreSkillWeaponMesh( this, m_HandMesh, m_bVisibleEquipMesh );

  00041	0f b6 86 09 0f
	00 00		 movzx	 eax, BYTE PTR [esi+3849]
  00048	53		 push	 ebx
  00049	50		 push	 eax
  0004a	8d 86 f8 0e 00
	00		 lea	 eax, DWORD PTR [esi+3832]
  00050	50		 push	 eax
  00051	56		 push	 esi
  00052	8b cf		 mov	 ecx, edi
  00054	e8 00 00 00 00	 call	 ?RestoreSkillWeaponMesh@ioBaseChar@@QAE_NPAVioSkill@@ABVioHashString@@_N2@Z ; ioBaseChar::RestoreSkillWeaponMesh
$LN4@OnSkillEnd:

; 200  : 
; 201  : 	EndCameraBuff( pChar );

  00059	57		 push	 edi
  0005a	8b ce		 mov	 ecx, esi
  0005c	e8 00 00 00 00	 call	 ?EndCameraBuff@ioSkill@@IAEXPAVioBaseChar@@@Z ; ioSkill::EndCameraBuff

; 202  : 
; 203  : 	pChar->SetMagicCircleTarget( "" );

  00061	68 00 00 00 00	 push	 OFFSET ??_C@_00CNPNBAHC@?$AA@
  00066	8d 4d dc	 lea	 ecx, DWORD PTR $T556287[ebp]
  00069	ff 15 00 00 00
	00		 call	 DWORD PTR __imp_??0ioHashString@@QAE@PBD@Z
  0006f	8d 45 dc	 lea	 eax, DWORD PTR $T556287[ebp]
  00072	8d 8f cc 01 00
	00		 lea	 ecx, DWORD PTR [edi+460]
  00078	50		 push	 eax
  00079	89 5d fc	 mov	 DWORD PTR __$EHRec$[ebp+8], ebx
  0007c	89 4d f0	 mov	 DWORD PTR tv235[ebp], ecx
  0007f	e8 00 00 00 00	 call	 ?SetMagicCircleTarget@ioBaseGUISupport@@QAEXABVioHashString@@@Z ; ioBaseGUISupport::SetMagicCircleTarget
  00084	83 4d fc ff	 or	 DWORD PTR __$EHRec$[ebp+8], -1
  00088	8d 4d dc	 lea	 ecx, DWORD PTR $T556287[ebp]
  0008b	ff 15 00 00 00
	00		 call	 DWORD PTR __imp_??1ioHashString@@QAE@XZ

; 204  : 
; 205  : 	//DestroyMapEffect
; 206  : 	if( m_dwCurMapEffect != -1 )

  00091	8b 86 88 10 00
	00		 mov	 eax, DWORD PTR [esi+4232]
  00097	83 f8 ff	 cmp	 eax, -1
  0009a	74 09		 je	 SHORT $LN3@OnSkillEnd

; 207  : 		pChar->EndMapEffect( m_dwCurMapEffect, false );

  0009c	53		 push	 ebx
  0009d	50		 push	 eax
  0009e	8b cf		 mov	 ecx, edi
  000a0	e8 00 00 00 00	 call	 ?EndMapEffect@ioBaseChar@@QAEXK_N@Z ; ioBaseChar::EndMapEffect
$LN3@OnSkillEnd:

; 208  : 
; 209  : 	if( m_dwTargetCircleEffect != -1 )

  000a5	8b 86 8c 10 00
	00		 mov	 eax, DWORD PTR [esi+4236]
  000ab	83 f8 ff	 cmp	 eax, -1
  000ae	74 09		 je	 SHORT $LN2@OnSkillEnd

; 210  : 		pChar->EndMapEffect( m_dwTargetCircleEffect, false );

  000b0	53		 push	 ebx
  000b1	50		 push	 eax
  000b2	8b cf		 mov	 ecx, edi
  000b4	e8 00 00 00 00	 call	 ?EndMapEffect@ioBaseChar@@QAEXK_N@Z ; ioBaseChar::EndMapEffect
$LN2@OnSkillEnd:

; 211  : 
; 212  : 	if( m_dwChargingEffect != -1 )

  000b9	8b 86 28 10 00
	00		 mov	 eax, DWORD PTR [esi+4136]
  000bf	83 f8 ff	 cmp	 eax, -1
  000c2	74 0a		 je	 SHORT $LN1@OnSkillEnd

; 213  : 	{
; 214  : 		pChar->EndMapEffect( m_dwChargingEffect, false );

  000c4	8b 4d 08	 mov	 ecx, DWORD PTR _pChar$[ebp]
  000c7	53		 push	 ebx
  000c8	50		 push	 eax
  000c9	e8 00 00 00 00	 call	 ?EndMapEffect@ioBaseChar@@QAEXK_N@Z ; ioBaseChar::EndMapEffect
$LN1@OnSkillEnd:

; 215  : 	}
; 216  : 
; 217  : 	m_dwCurMapEffect = -1;
; 218  : 	m_dwTargetCircleEffect = -1;
; 219  : 	m_dwChargingEffect = -1;
; 220  : 
; 221  : 	pChar->DestroyMagicCircle();

  000ce	8b 4d f0	 mov	 ecx, DWORD PTR tv235[ebp]
  000d1	83 8e 88 10 00
	00 ff		 or	 DWORD PTR [esi+4232], -1
  000d8	83 8e 8c 10 00
	00 ff		 or	 DWORD PTR [esi+4236], -1
  000df	83 8e 28 10 00
	00 ff		 or	 DWORD PTR [esi+4136], -1
  000e6	e8 00 00 00 00	 call	 ?DestroyMagicCircle@ioBaseGUISupport@@QAEXXZ ; ioBaseGUISupport::DestroyMagicCircle

; 222  : 
; 223  : 	m_dwMotionEndTime = 0;
; 224  : 	m_dwMotionStartTime = 0;

  000eb	8d 45 08	 lea	 eax, DWORD PTR _value$556292[ebp]
  000ee	50		 push	 eax
  000ef	8d 8e a8 02 00
	00		 lea	 ecx, DWORD PTR [esi+680]
  000f5	89 9e d8 02 00
	00		 mov	 DWORD PTR [esi+728], ebx
  000fb	89 5d 08	 mov	 DWORD PTR _value$556292[ebp], ebx
  000fe	e8 00 00 00 00	 call	 ?EncryptValueToPool@?$CEncrypt@K@@AAEXPBD@Z ; CEncrypt<unsigned long>::EncryptValueToPool

; 225  : 	m_dwLoopStartTime = 0;
; 226  : 	m_fCurChargeRate = 0.0f;

  00103	0f 57 c0	 xorps	 xmm0, xmm0
  00106	8d 45 08	 lea	 eax, DWORD PTR _value$556296[ebp]
  00109	50		 push	 eax
  0010a	8d 8e a4 09 00
	00		 lea	 ecx, DWORD PTR [esi+2468]
  00110	89 9e 0c 10 00
	00		 mov	 DWORD PTR [esi+4108], ebx
  00116	f3 0f 11 45 08	 movss	 DWORD PTR _value$556296[ebp], xmm0
  0011b	e8 00 00 00 00	 call	 ?EncryptValueToPool@?$CEncrypt@M@@AAEXPBD@Z ; CEncrypt<float>::EncryptValueToPool

; 227  : 	m_dwFireStartTime = 0;
; 228  : 
; 229  : 	m_State = SS_NONE;

  00120	8d 45 ec	 lea	 eax, DWORD PTR _value$556300[ebp]
  00123	50		 push	 eax
  00124	8d 8e 58 0f 00
	00		 lea	 ecx, DWORD PTR [esi+3928]
  0012a	89 9e f0 0f 00
	00		 mov	 DWORD PTR [esi+4080], ebx
  00130	89 5d ec	 mov	 DWORD PTR _value$556300[ebp], ebx
  00133	e8 00 00 00 00	 call	 ?EncryptValueToPool@?$CEncrypt@H@@AAEXPBD@Z ; CEncrypt<int>::EncryptValueToPool

; 230  : }

  00138	e8 00 00 00 00	 call	 __EH_epilog3
  0013d	c2 04 00	 ret	 4
_TEXT	ENDS
;	COMDAT text$x
text$x	SEGMENT
__unwindfunclet$?OnSkillEnd@ioChargingFireSkill@@UAEXPAVioBaseChar@@@Z$0:
  00000	8d 4d dc	 lea	 ecx, DWORD PTR $T556287[ebp]
  00003	ff 25 00 00 00
	00		 jmp	 DWORD PTR __imp_??1ioHashString@@QAE@XZ
__ehhandler$?OnSkillEnd@ioChargingFireSkill@@UAEXPAVioBaseChar@@@Z:
  00009	8b 54 24 08	 mov	 edx, DWORD PTR [esp+8]
  0000d	8d 42 0c	 lea	 eax, DWORD PTR [edx+12]
  00010	8b 4a d8	 mov	 ecx, DWORD PTR [edx-40]
  00013	33 c8		 xor	 ecx, eax
  00015	e8 00 00 00 00	 call	 @__security_check_cookie@4
  0001a	b8 00 00 00 00	 mov	 eax, OFFSET __ehfuncinfo$?OnSkillEnd@ioChargingFireSkill@@UAEXPAVioBaseChar@@@Z
  0001f	e9 00 00 00 00	 jmp	 ___CxxFrameHandler3
text$x	ENDS
?OnSkillEnd@ioChargingFireSkill@@UAEXPAVioBaseChar@@@Z ENDP ; ioChargingFireSkill::OnSkillEnd
PUBLIC	?SetPreActionState@ioChargingFireSkill@@IAEXPAVioBaseChar@@@Z ; ioChargingFireSkill::SetPreActionState
EXTRN	?ChangeSkillWeaponMesh@ioBaseChar@@QAE_NPAVioSkill@@ABVioHashString@@_N@Z:PROC ; ioBaseChar::ChangeSkillWeaponMesh
EXTRN	?SetJumpPower@ioBaseChar@@QAEXM@Z:PROC		; ioBaseChar::SetJumpPower
; Function compile flags: /Ogsp
;	COMDAT ?SetPreActionState@ioChargingFireSkill@@IAEXPAVioBaseChar@@@Z
_TEXT	SEGMENT
_value$556312 = 8					; size = 4
_pChar$ = 8						; size = 4
?SetPreActionState@ioChargingFireSkill@@IAEXPAVioBaseChar@@@Z PROC ; ioChargingFireSkill::SetPreActionState, COMDAT
; _this$ = ecx

; 323  : {

  00000	55		 push	 ebp
  00001	8b ec		 mov	 ebp, esp
  00003	53		 push	 ebx

; 324  : 	EndPreDelayEffect( pChar );

  00004	8b 5d 08	 mov	 ebx, DWORD PTR _pChar$[ebp]
  00007	56		 push	 esi
  00008	8b f1		 mov	 esi, ecx
  0000a	8b 06		 mov	 eax, DWORD PTR [esi]
  0000c	53		 push	 ebx
  0000d	ff 90 dc 00 00
	00		 call	 DWORD PTR [eax+220]

; 325  : 	SetNormalSkill( pChar );

  00013	8b 06		 mov	 eax, DWORD PTR [esi]
  00015	53		 push	 ebx
  00016	8b ce		 mov	 ecx, esi
  00018	ff 90 8c 01 00
	00		 call	 DWORD PTR [eax+396]

; 326  : 
; 327  : 	m_State = SS_PRE_ACTION;

  0001e	8d 45 08	 lea	 eax, DWORD PTR _value$556312[ebp]
  00021	50		 push	 eax
  00022	8d 8e 58 0f 00
	00		 lea	 ecx, DWORD PTR [esi+3928]
  00028	c7 45 08 01 00
	00 00		 mov	 DWORD PTR _value$556312[ebp], 1
  0002f	e8 00 00 00 00	 call	 ?EncryptValueToPool@?$CEncrypt@H@@AAEXPBD@Z ; CEncrypt<int>::EncryptValueToPool

; 328  : 	pChar->SetJumpPower( m_fCharJumpPower );

  00034	f3 0f 10 86 04
	10 00 00	 movss	 xmm0, DWORD PTR [esi+4100]
  0003c	51		 push	 ecx
  0003d	8b cb		 mov	 ecx, ebx
  0003f	f3 0f 11 04 24	 movss	 DWORD PTR [esp], xmm0
  00044	e8 00 00 00 00	 call	 ?SetJumpPower@ioBaseChar@@QAEXM@Z ; ioBaseChar::SetJumpPower

; 329  : 
; 330  : 	//   
; 331  : 	if( m_bUseItemMesh && !m_HandMesh.IsEmpty() )

  00049	80 be 08 0f 00
	00 00		 cmp	 BYTE PTR [esi+3848], 0
  00050	74 2c		 je	 SHORT $LN1@SetPreActi
  00052	57		 push	 edi
  00053	8d be f8 0e 00
	00		 lea	 edi, DWORD PTR [esi+3832]
  00059	8b cf		 mov	 ecx, edi
  0005b	ff 15 00 00 00
	00		 call	 DWORD PTR __imp_?IsEmpty@ioHashString@@QBE_NXZ
  00061	84 c0		 test	 al, al
  00063	75 18		 jne	 SHORT $LN6@SetPreActi

; 332  : 	{
; 333  : 		pChar->ChangeSkillWeaponMesh( this, m_HandMesh, m_bVisibleEquipMesh );

  00065	0f b6 86 09 0f
	00 00		 movzx	 eax, BYTE PTR [esi+3849]
  0006c	50		 push	 eax
  0006d	57		 push	 edi
  0006e	56		 push	 esi
  0006f	8b cb		 mov	 ecx, ebx
  00071	e8 00 00 00 00	 call	 ?ChangeSkillWeaponMesh@ioBaseChar@@QAE_NPAVioSkill@@ABVioHashString@@_N@Z ; ioBaseChar::ChangeSkillWeaponMesh

; 334  : 		m_bSetHandMesh = true;

  00076	c6 86 0a 0f 00
	00 01		 mov	 BYTE PTR [esi+3850], 1
$LN6@SetPreActi:
  0007d	5f		 pop	 edi
$LN1@SetPreActi:
  0007e	5e		 pop	 esi
  0007f	5b		 pop	 ebx

; 335  : 	}
; 336  : }

  00080	5d		 pop	 ebp
  00081	c2 04 00	 ret	 4
?SetPreActionState@ioChargingFireSkill@@IAEXPAVioBaseChar@@@Z ENDP ; ioChargingFireSkill::SetPreActionState
_TEXT	ENDS
PUBLIC	__real@41f0000000000000
PUBLIC	__real@40a00000
PUBLIC	?SetNormalSkill@ioChargingFireSkill@@MAEXPAVioBaseChar@@@Z ; ioChargingFireSkill::SetNormalSkill
EXTRN	?AttachEffect@ioBaseChar@@QAEPAVioEffect@@ABVioHashString@@PAVioEntityEvent@@_N@Z:PROC ; ioBaseChar::AttachEffect
EXTRN	__imp_?GetAnimationFullTime@ioEntityGroup@@QAEMH@Z:PROC
EXTRN	__imp_?SetActionAni@ioEntityGroup@@QAE_NHMMMMMM_N0@Z:PROC
EXTRN	__imp_?ClearAllActionAni@ioEntityGroup@@QAEXM_N@Z:PROC
EXTRN	__imp_?ClearAllLoopAni@ioEntityGroup@@QAEXM_N@Z:PROC
EXTRN	__imp_?GetAnimationIdx@ioEntityGroup@@QAEHABVioHashString@@@Z:PROC
;	COMDAT __real@41f0000000000000
; File d:\lost saga for developer\youtube\tutorial\source\src\lsclient\encryptvalue.h
CONST	SEGMENT
__real@41f0000000000000 DQ 041f0000000000000r	; 4.29497e+009
CONST	ENDS
;	COMDAT __real@40a00000
CONST	SEGMENT
__real@40a00000 DD 040a00000r			; 5
CONST	ENDS
;	COMDAT xdata$x
xdata$x	SEGMENT
__unwindtable$?SetNormalSkill@ioChargingFireSkill@@MAEXPAVioBaseChar@@@Z DD 0ffffffffH
	DD	FLAT:__unwindfunclet$?SetNormalSkill@ioChargingFireSkill@@MAEXPAVioBaseChar@@@Z$0
__ehfuncinfo$?SetNormalSkill@ioChargingFireSkill@@MAEXPAVioBaseChar@@@Z DD 019930522H
	DD	01H
	DD	FLAT:__unwindtable$?SetNormalSkill@ioChargingFireSkill@@MAEXPAVioBaseChar@@@Z
	DD	2 DUP(00H)
	DD	2 DUP(00H)
	DD	00H
	DD	01H
; Function compile flags: /Ogsp
; File d:\lost saga for developer\youtube\tutorial\source\src\lsclient\iochargingfireskill.cpp
xdata$x	ENDS
;	COMDAT ?SetNormalSkill@ioChargingFireSkill@@MAEXPAVioBaseChar@@@Z
_TEXT	SEGMENT
_szSkillMotion$ = -44					; size = 16
tv251 = -28						; size = 4
tv246 = -28						; size = 4
tv239 = -28						; size = 4
tv234 = -28						; size = 4
tv232 = -28						; size = 4
tv208 = -28						; size = 4
_dwCurTime$ = -28					; size = 4
tv236 = -24						; size = 4
_value$556343 = -24					; size = 4
_fTimeRate$ = -20					; size = 4
_fAniRate$ = -20					; size = 4
_iCurSkillAniID$ = -16					; size = 4
__$EHRec$ = -12						; size = 12
_pChar$ = 8						; size = 4
?SetNormalSkill@ioChargingFireSkill@@MAEXPAVioBaseChar@@@Z PROC ; ioChargingFireSkill::SetNormalSkill, COMDAT
; _this$ = ecx

; 339  : {

  00000	6a 20		 push	 32			; 00000020H
  00002	b8 00 00 00 00	 mov	 eax, __ehhandler$?SetNormalSkill@ioChargingFireSkill@@MAEXPAVioBaseChar@@@Z
  00007	e8 00 00 00 00	 call	 __EH_prolog3
  0000c	8b f1		 mov	 esi, ecx

; 340  : 	ioEntityGroup *pGrp = pChar->GetGroup();

  0000e	8b 45 08	 mov	 eax, DWORD PTR _pChar$[ebp]
  00011	8b 58 04	 mov	 ebx, DWORD PTR [eax+4]

; 341  : 	ioHashString szSkillMotion = GetSkillMotionName();

  00014	8b 06		 mov	 eax, DWORD PTR [esi]
  00016	ff 90 20 01 00
	00		 call	 DWORD PTR [eax+288]
  0001c	50		 push	 eax
  0001d	8d 4d d4	 lea	 ecx, DWORD PTR _szSkillMotion$[ebp]
  00020	ff 15 00 00 00
	00		 call	 DWORD PTR __imp_??0ioHashString@@QAE@ABV0@@Z
  00026	83 65 fc 00	 and	 DWORD PTR __$EHRec$[ebp+8], 0

; 342  : 
; 343  : 	int iCurSkillAniID = pGrp->GetAnimationIdx( szSkillMotion );

  0002a	8d 45 d4	 lea	 eax, DWORD PTR _szSkillMotion$[ebp]
  0002d	50		 push	 eax
  0002e	8b cb		 mov	 ecx, ebx
  00030	ff 15 00 00 00
	00		 call	 DWORD PTR __imp_?GetAnimationIdx@ioEntityGroup@@QAEHABVioHashString@@@Z
  00036	89 45 f0	 mov	 DWORD PTR _iCurSkillAniID$[ebp], eax

; 344  : 	if( iCurSkillAniID == -1 )	return;

  00039	83 f8 ff	 cmp	 eax, -1
  0003c	0f 84 5c 01 00
	00		 je	 $LN26@SetNormalS

; 345  : 
; 346  : 	float fAniRate = GetSkillMotionRate();

  00042	8b 06		 mov	 eax, DWORD PTR [esi]
  00044	8b ce		 mov	 ecx, esi
  00046	ff 90 28 01 00
	00		 call	 DWORD PTR [eax+296]
  0004c	d9 5d ec	 fstp	 DWORD PTR _fAniRate$[ebp]

; 347  : 
; 348  : 	float fTimeRate = fAniRate * m_fExtraAniRate;

  0004f	d9 86 68 03 00
	00		 fld	 DWORD PTR [esi+872]
  00055	d8 4d ec	 fmul	 DWORD PTR _fAniRate$[ebp]
  00058	d9 5d ec	 fstp	 DWORD PTR _fTimeRate$[ebp]

; 349  : 	
; 350  : 	pGrp->ClearAllLoopAni( FLOAT100, true );

  0005b	b8 64 00 00 00	 mov	 eax, 100		; 00000064H
  00060	33 ff		 xor	 edi, edi
  00062	47		 inc	 edi
  00063	89 45 e4	 mov	 DWORD PTR tv251[ebp], eax
  00066	db 45 e4	 fild	 DWORD PTR tv251[ebp]
  00069	57		 push	 edi
  0006a	85 c0		 test	 eax, eax
  0006c	79 06		 jns	 SHORT $LN20@SetNormalS
  0006e	d8 05 00 00 00
	00		 fadd	 DWORD PTR __real@4f800000
$LN20@SetNormalS:
  00074	51		 push	 ecx
  00075	8b cb		 mov	 ecx, ebx
  00077	d9 1c 24	 fstp	 DWORD PTR [esp]
  0007a	ff 15 00 00 00
	00		 call	 DWORD PTR __imp_?ClearAllLoopAni@ioEntityGroup@@QAEXM_N@Z

; 351  : 	pGrp->ClearAllActionAni( FLOAT100, true );

  00080	b8 64 00 00 00	 mov	 eax, 100		; 00000064H
  00085	89 45 e4	 mov	 DWORD PTR tv246[ebp], eax
  00088	db 45 e4	 fild	 DWORD PTR tv246[ebp]
  0008b	57		 push	 edi
  0008c	85 c0		 test	 eax, eax
  0008e	79 06		 jns	 SHORT $LN21@SetNormalS
  00090	d8 05 00 00 00
	00		 fadd	 DWORD PTR __real@4f800000
$LN21@SetNormalS:
  00096	51		 push	 ecx
  00097	8b cb		 mov	 ecx, ebx
  00099	d9 1c 24	 fstp	 DWORD PTR [esp]
  0009c	ff 15 00 00 00
	00		 call	 DWORD PTR __imp_?ClearAllActionAni@ioEntityGroup@@QAEXM_N@Z

; 352  : 	pGrp->SetActionAni( iCurSkillAniID, FLOAT100, 5.0f, FLOAT1, FLOAT1/fTimeRate, 0.0f, 0.0f, true );

  000a2	b8 01 00 00 00	 mov	 eax, 1
  000a7	8b c8		 mov	 ecx, eax
  000a9	b8 01 00 00 00	 mov	 eax, 1
  000ae	8b d0		 mov	 edx, eax
  000b0	b8 64 00 00 00	 mov	 eax, 100		; 00000064H
  000b5	0f 57 c0	 xorps	 xmm0, xmm0
  000b8	57		 push	 edi
  000b9	57		 push	 edi
  000ba	83 ec 18	 sub	 esp, 24			; 00000018H
  000bd	89 4d e4	 mov	 DWORD PTR tv239[ebp], ecx
  000c0	db 45 e4	 fild	 DWORD PTR tv239[ebp]
  000c3	f3 0f 11 44 24
	14		 movss	 DWORD PTR [esp+20], xmm0
  000c9	f3 0f 11 44 24
	10		 movss	 DWORD PTR [esp+16], xmm0
  000cf	85 c9		 test	 ecx, ecx
  000d1	79 06		 jns	 SHORT $LN22@SetNormalS
  000d3	d8 05 00 00 00
	00		 fadd	 DWORD PTR __real@4f800000
$LN22@SetNormalS:
  000d9	d8 75 ec	 fdiv	 DWORD PTR _fTimeRate$[ebp]
  000dc	89 55 e4	 mov	 DWORD PTR tv234[ebp], edx
  000df	d9 5d e8	 fstp	 DWORD PTR tv236[ebp]
  000e2	d9 45 e8	 fld	 DWORD PTR tv236[ebp]
  000e5	d9 5c 24 0c	 fstp	 DWORD PTR [esp+12]
  000e9	db 45 e4	 fild	 DWORD PTR tv234[ebp]
  000ec	85 d2		 test	 edx, edx
  000ee	79 06		 jns	 SHORT $LN23@SetNormalS
  000f0	d8 05 00 00 00
	00		 fadd	 DWORD PTR __real@4f800000
$LN23@SetNormalS:
  000f6	f3 0f 10 05 00
	00 00 00	 movss	 xmm0, DWORD PTR __real@40a00000
  000fe	d9 5c 24 08	 fstp	 DWORD PTR [esp+8]
  00102	89 45 e4	 mov	 DWORD PTR tv232[ebp], eax
  00105	db 45 e4	 fild	 DWORD PTR tv232[ebp]
  00108	f3 0f 11 44 24
	04		 movss	 DWORD PTR [esp+4], xmm0
  0010e	85 c0		 test	 eax, eax
  00110	79 06		 jns	 SHORT $LN24@SetNormalS
  00112	d8 05 00 00 00
	00		 fadd	 DWORD PTR __real@4f800000
$LN24@SetNormalS:
  00118	d9 1c 24	 fstp	 DWORD PTR [esp]
  0011b	ff 75 f0	 push	 DWORD PTR _iCurSkillAniID$[ebp]
  0011e	8b cb		 mov	 ecx, ebx
  00120	ff 15 00 00 00
	00		 call	 DWORD PTR __imp_?SetActionAni@ioEntityGroup@@QAE_NHMMMMMM_N0@Z

; 353  : 	
; 354  : 	DWORD dwCurTime = FRAMEGETTIME();

  00126	ff 15 00 00 00
	00		 call	 DWORD PTR __imp_?GetSingleton@ioFrameTimer@@SAAAV1@XZ
  0012c	8b c8		 mov	 ecx, eax
  0012e	ff 15 00 00 00
	00		 call	 DWORD PTR __imp_?GetLoopSec@ioFrameTimer@@QBEKXZ

; 355  : 	m_dwMotionStartTime = 0;

  00134	83 65 e8 00	 and	 DWORD PTR _value$556343[ebp], 0
  00138	89 45 e4	 mov	 DWORD PTR _dwCurTime$[ebp], eax
  0013b	8d 45 e8	 lea	 eax, DWORD PTR _value$556343[ebp]
  0013e	50		 push	 eax
  0013f	8d 8e a8 02 00
	00		 lea	 ecx, DWORD PTR [esi+680]
  00145	e8 00 00 00 00	 call	 ?EncryptValueToPool@?$CEncrypt@K@@AAEXPBD@Z ; CEncrypt<unsigned long>::EncryptValueToPool

; 356  : 	m_dwMotionEndTime = 0;
; 357  : 
; 358  : 	m_dwPreActionEndTime = dwCurTime;

  0014a	8b 45 e4	 mov	 eax, DWORD PTR _dwCurTime$[ebp]

; 359  : 	m_dwPreActionEndTime += pGrp->GetAnimationFullTime( iCurSkillAniID ) * fTimeRate;

  0014d	ff 75 f0	 push	 DWORD PTR _iCurSkillAniID$[ebp]
  00150	83 a6 d8 02 00
	00 00		 and	 DWORD PTR [esi+728], 0
  00157	8b cb		 mov	 ecx, ebx
  00159	89 86 08 10 00
	00		 mov	 DWORD PTR [esi+4104], eax
  0015f	ff 15 00 00 00
	00		 call	 DWORD PTR __imp_?GetAnimationFullTime@ioEntityGroup@@QAEMH@Z
  00165	d8 4d ec	 fmul	 DWORD PTR _fTimeRate$[ebp]
  00168	8b 86 08 10 00
	00		 mov	 eax, DWORD PTR [esi+4104]
  0016e	db 86 08 10 00
	00		 fild	 DWORD PTR [esi+4104]
  00174	85 c0		 test	 eax, eax
  00176	79 06		 jns	 SHORT $LN25@SetNormalS
  00178	dc 05 00 00 00
	00		 fadd	 QWORD PTR __real@41f0000000000000
$LN25@SetNormalS:
  0017e	de c1		 faddp	 ST(1), ST(0)
  00180	e8 00 00 00 00	 call	 __ftol2

; 360  : 
; 361  : 	pChar->AttachEffect( m_StartEffect );

  00185	8b 4d 08	 mov	 ecx, DWORD PTR _pChar$[ebp]
  00188	6a 01		 push	 1
  0018a	89 86 08 10 00
	00		 mov	 DWORD PTR [esi+4104], eax
  00190	6a 00		 push	 0
  00192	81 c6 90 10 00
	00		 add	 esi, 4240		; 00001090H
  00198	56		 push	 esi
  00199	e8 00 00 00 00	 call	 ?AttachEffect@ioBaseChar@@QAEPAVioEffect@@ABVioHashString@@PAVioEntityEvent@@_N@Z ; ioBaseChar::AttachEffect
$LN26@SetNormalS:

; 362  : }

  0019e	83 4d fc ff	 or	 DWORD PTR __$EHRec$[ebp+8], -1
  001a2	8d 4d d4	 lea	 ecx, DWORD PTR _szSkillMotion$[ebp]
  001a5	ff 15 00 00 00
	00		 call	 DWORD PTR __imp_??1ioHashString@@QAE@XZ
  001ab	e8 00 00 00 00	 call	 __EH_epilog3
  001b0	c2 04 00	 ret	 4
_TEXT	ENDS
;	COMDAT text$x
text$x	SEGMENT
__unwindfunclet$?SetNormalSkill@ioChargingFireSkill@@MAEXPAVioBaseChar@@@Z$0:
  00000	8d 4d d4	 lea	 ecx, DWORD PTR _szSkillMotion$[ebp]
  00003	ff 25 00 00 00
	00		 jmp	 DWORD PTR __imp_??1ioHashString@@QAE@XZ
__ehhandler$?SetNormalSkill@ioChargingFireSkill@@MAEXPAVioBaseChar@@@Z:
  00009	8b 54 24 08	 mov	 edx, DWORD PTR [esp+8]
  0000d	8d 42 0c	 lea	 eax, DWORD PTR [edx+12]
  00010	8b 4a d0	 mov	 ecx, DWORD PTR [edx-48]
  00013	33 c8		 xor	 ecx, eax
  00015	e8 00 00 00 00	 call	 @__security_check_cookie@4
  0001a	b8 00 00 00 00	 mov	 eax, OFFSET __ehfuncinfo$?SetNormalSkill@ioChargingFireSkill@@MAEXPAVioBaseChar@@@Z
  0001f	e9 00 00 00 00	 jmp	 ___CxxFrameHandler3
text$x	ENDS
?SetNormalSkill@ioChargingFireSkill@@MAEXPAVioBaseChar@@@Z ENDP ; ioChargingFireSkill::SetNormalSkill
PUBLIC	__real@3f800000
PUBLIC	_pChar$GSCopy$
PUBLIC	?SetLoopState@ioChargingFireSkill@@IAEXPAVioBaseChar@@@Z ; ioChargingFireSkill::SetLoopState
EXTRN	?CreateMapEffectAttachChar@ioBaseChar@@QAEPAVioMapEffect@@ABVioHashString@@@Z:PROC ; ioBaseChar::CreateMapEffectAttachChar
EXTRN	?EndEffect@ioBaseChar@@QAEXK_N@Z:PROC		; ioBaseChar::EndEffect
EXTRN	?GetUniqueID@ioMapEffect@@QBEKXZ:PROC		; ioMapEffect::GetUniqueID
EXTRN	?CreateMapEffectBySkill@ioBaseChar@@QAEPAVioMapEffect@@ABVioHashString@@ABUD3DXVECTOR3@@AAU4@@Z:PROC ; ioBaseChar::CreateMapEffectBySkill
EXTRN	__imp_??0ioHashString@@QAE@XZ:PROC
EXTRN	?CheckMagicCircle@ioBaseGUISupport@@QBE_NXZ:PROC ; ioBaseGUISupport::CheckMagicCircle
EXTRN	__imp_?SetLoopAni@ioEntityGroup@@QAE_NHMMMM@Z:PROC
;	COMDAT __real@3f800000
; File c:\program files (x86)\microsoft directx sdk (june 2010)\include\d3dx9math.inl
CONST	SEGMENT
__real@3f800000 DD 03f800000r			; 1
CONST	ENDS
;	COMDAT xdata$x
xdata$x	SEGMENT
__unwindtable$?SetLoopState@ioChargingFireSkill@@IAEXPAVioBaseChar@@@Z DD 0ffffffffH
	DD	FLAT:__unwindfunclet$?SetLoopState@ioChargingFireSkill@@IAEXPAVioBaseChar@@@Z$0
__ehfuncinfo$?SetLoopState@ioChargingFireSkill@@IAEXPAVioBaseChar@@@Z DD 019930522H
	DD	01H
	DD	FLAT:__unwindtable$?SetLoopState@ioChargingFireSkill@@IAEXPAVioBaseChar@@@Z
	DD	2 DUP(00H)
	DD	2 DUP(00H)
	DD	00H
	DD	01H
; Function compile flags: /Ogsp
; File d:\lost saga for developer\youtube\tutorial\source\src\lsclient\iochargingfireskill.cpp
xdata$x	ENDS
;	COMDAT ?SetLoopState@ioChargingFireSkill@@IAEXPAVioBaseChar@@@Z
_TEXT	SEGMENT
_szDummyCircle$548341 = -72				; size = 16
$T556364 = -56						; size = 12
tv294 = -44						; size = 4
tv290 = -44						; size = 4
_dwCurTime$ = -44					; size = 4
_value$556372 = -40					; size = 4
_fAniRate$ = -40					; size = 4
_pChar$GSCopy$ = -36					; size = 4
tv318 = -32						; size = 4
tv313 = -32						; size = 4
tv307 = -32						; size = 4
tv287 = -32						; size = 4
tv285 = -32						; size = 4
$T556392 = -32						; size = 4
_vPos$548343 = -28					; size = 12
__$EHRec$ = -12						; size = 12
_pChar$ = 8						; size = 4
?SetLoopState@ioChargingFireSkill@@IAEXPAVioBaseChar@@@Z PROC ; ioChargingFireSkill::SetLoopState, COMDAT
; _this$ = ecx

; 365  : {

  00000	6a 3c		 push	 60			; 0000003cH
  00002	b8 00 00 00 00	 mov	 eax, __ehhandler$?SetLoopState@ioChargingFireSkill@@IAEXPAVioBaseChar@@@Z
  00007	e8 00 00 00 00	 call	 __EH_prolog3_GS
  0000c	8b 75 08	 mov	 esi, DWORD PTR _pChar$[ebp]
  0000f	8b d9		 mov	 ebx, ecx

; 410  : 	{
; 411  : 		m_dwChargingEffect = pChargingEff->GetUniqueID();

  00011	89 75 dc	 mov	 DWORD PTR _pChar$GSCopy$[ebp], esi
  00014	85 f6		 test	 esi, esi
  00016	0f 84 20 02 00
	00		 je	 $LN1@SetLoopSta

; 366  : 	if( !pChar ) return;
; 367  : 	ioEntityGroup *pGrp = pChar->GetGroup();
; 368  : 
; 369  : 	DWORD dwCurTime = FRAMEGETTIME();

  0001c	8b 7e 04	 mov	 edi, DWORD PTR [esi+4]
  0001f	ff 15 00 00 00
	00		 call	 DWORD PTR __imp_?GetSingleton@ioFrameTimer@@SAAAV1@XZ
  00025	8b c8		 mov	 ecx, eax
  00027	ff 15 00 00 00
	00		 call	 DWORD PTR __imp_?GetLoopSec@ioFrameTimer@@QBEKXZ
  0002d	89 45 d4	 mov	 DWORD PTR _dwCurTime$[ebp], eax

; 370  : 	m_State = SS_LOOP;

  00030	8d 45 d8	 lea	 eax, DWORD PTR _value$556372[ebp]
  00033	50		 push	 eax
  00034	8d 8b 58 0f 00
	00		 lea	 ecx, DWORD PTR [ebx+3928]
  0003a	c7 45 d8 02 00
	00 00		 mov	 DWORD PTR _value$556372[ebp], 2
  00041	e8 00 00 00 00	 call	 ?EncryptValueToPool@?$CEncrypt@H@@AAEXPBD@Z ; CEncrypt<int>::EncryptValueToPool

; 371  : 	m_dwLoopStartTime = dwCurTime;

  00046	8b 45 d4	 mov	 eax, DWORD PTR _dwCurTime$[ebp]
  00049	89 83 0c 10 00
	00		 mov	 DWORD PTR [ebx+4108], eax

; 372  : 
; 373  : 	pGrp->ClearAllLoopAni( FLOAT100, true );

  0004f	b8 64 00 00 00	 mov	 eax, 100		; 00000064H
  00054	89 45 e0	 mov	 DWORD PTR tv318[ebp], eax
  00057	db 45 e0	 fild	 DWORD PTR tv318[ebp]
  0005a	6a 01		 push	 1
  0005c	85 c0		 test	 eax, eax
  0005e	79 06		 jns	 SHORT $LN34@SetLoopSta
  00060	d8 05 00 00 00
	00		 fadd	 DWORD PTR __real@4f800000
$LN34@SetLoopSta:
  00066	51		 push	 ecx
  00067	8b cf		 mov	 ecx, edi
  00069	d9 1c 24	 fstp	 DWORD PTR [esp]
  0006c	ff 15 00 00 00
	00		 call	 DWORD PTR __imp_?ClearAllLoopAni@ioEntityGroup@@QAEXM_N@Z

; 374  : 	pGrp->ClearAllActionAni( FLOAT100, true );

  00072	b8 64 00 00 00	 mov	 eax, 100		; 00000064H
  00077	89 45 e0	 mov	 DWORD PTR tv313[ebp], eax
  0007a	db 45 e0	 fild	 DWORD PTR tv313[ebp]
  0007d	6a 01		 push	 1
  0007f	85 c0		 test	 eax, eax
  00081	79 06		 jns	 SHORT $LN35@SetLoopSta
  00083	d8 05 00 00 00
	00		 fadd	 DWORD PTR __real@4f800000
$LN35@SetLoopSta:
  00089	51		 push	 ecx
  0008a	8b cf		 mov	 ecx, edi
  0008c	d9 1c 24	 fstp	 DWORD PTR [esp]
  0008f	ff 15 00 00 00
	00		 call	 DWORD PTR __imp_?ClearAllActionAni@ioEntityGroup@@QAEXM_N@Z

; 375  : 
; 376  : 	int iAniID = pGrp->GetAnimationIdx( m_SkillLoopMotion );

  00095	8d 83 d8 0f 00
	00		 lea	 eax, DWORD PTR [ebx+4056]
  0009b	50		 push	 eax
  0009c	8b cf		 mov	 ecx, edi
  0009e	ff 15 00 00 00
	00		 call	 DWORD PTR __imp_?GetAnimationIdx@ioEntityGroup@@QAEHABVioHashString@@@Z
  000a4	8b c8		 mov	 ecx, eax

; 377  : 	float fAniRate = FLOAT1;

  000a6	b8 01 00 00 00	 mov	 eax, 1
  000ab	89 45 e0	 mov	 DWORD PTR tv307[ebp], eax
  000ae	db 45 e0	 fild	 DWORD PTR tv307[ebp]
  000b1	85 c0		 test	 eax, eax
  000b3	79 06		 jns	 SHORT $LN36@SetLoopSta
  000b5	d8 05 00 00 00
	00		 fadd	 DWORD PTR __real@4f800000
$LN36@SetLoopSta:

; 378  : 	if( m_fSkillLoopMotionRate > 0.0f )

  000bb	f3 0f 10 83 e8
	0f 00 00	 movss	 xmm0, DWORD PTR [ebx+4072]
  000c3	d9 5d d8	 fstp	 DWORD PTR _fAniRate$[ebp]
  000c6	0f 57 c9	 xorps	 xmm1, xmm1
  000c9	0f 2f c1	 comiss	 xmm0, xmm1
  000cc	76 05		 jbe	 SHORT $LN7@SetLoopSta

; 379  : 		fAniRate = m_fSkillLoopMotionRate;

  000ce	f3 0f 11 45 d8	 movss	 DWORD PTR _fAniRate$[ebp], xmm0
$LN7@SetLoopSta:

; 380  : 
; 381  : 	pGrp->SetLoopAni( iAniID, FLOAT100, FLOAT1, FLOAT1/fAniRate );

  000d3	b8 01 00 00 00	 mov	 eax, 1
  000d8	8b d0		 mov	 edx, eax
  000da	b8 01 00 00 00	 mov	 eax, 1
  000df	89 45 e0	 mov	 DWORD PTR $T556392[ebp], eax
  000e2	b8 64 00 00 00	 mov	 eax, 100		; 00000064H
  000e7	83 ec 10	 sub	 esp, 16			; 00000010H
  000ea	89 55 d4	 mov	 DWORD PTR tv294[ebp], edx
  000ed	db 45 d4	 fild	 DWORD PTR tv294[ebp]
  000f0	f3 0f 11 4c 24
	0c		 movss	 DWORD PTR [esp+12], xmm1
  000f6	85 d2		 test	 edx, edx
  000f8	79 06		 jns	 SHORT $LN37@SetLoopSta
  000fa	d8 05 00 00 00
	00		 fadd	 DWORD PTR __real@4f800000
$LN37@SetLoopSta:
  00100	d8 75 d8	 fdiv	 DWORD PTR _fAniRate$[ebp]
  00103	8b 55 e0	 mov	 edx, DWORD PTR $T556392[ebp]
  00106	d9 5d d4	 fstp	 DWORD PTR tv290[ebp]
  00109	d9 45 d4	 fld	 DWORD PTR tv290[ebp]
  0010c	d9 5c 24 08	 fstp	 DWORD PTR [esp+8]
  00110	db 45 e0	 fild	 DWORD PTR $T556392[ebp]
  00113	85 d2		 test	 edx, edx
  00115	79 06		 jns	 SHORT $LN38@SetLoopSta
  00117	d8 05 00 00 00
	00		 fadd	 DWORD PTR __real@4f800000
$LN38@SetLoopSta:
  0011d	89 45 e0	 mov	 DWORD PTR tv285[ebp], eax
  00120	d9 5c 24 04	 fstp	 DWORD PTR [esp+4]
  00124	db 45 e0	 fild	 DWORD PTR tv285[ebp]
  00127	85 c0		 test	 eax, eax
  00129	79 06		 jns	 SHORT $LN39@SetLoopSta
  0012b	d8 05 00 00 00
	00		 fadd	 DWORD PTR __real@4f800000
$LN39@SetLoopSta:
  00131	d9 1c 24	 fstp	 DWORD PTR [esp]
  00134	51		 push	 ecx
  00135	8b cf		 mov	 ecx, edi
  00137	ff 15 00 00 00
	00		 call	 DWORD PTR __imp_?SetLoopAni@ioEntityGroup@@QAE_NHMMMM@Z

; 382  : 
; 383  : 	if( !pChar->CheckMagicCircle() )

  0013d	8d 8e cc 01 00
	00		 lea	 ecx, DWORD PTR [esi+460]
  00143	e8 00 00 00 00	 call	 ?CheckMagicCircle@ioBaseGUISupport@@QBE_NXZ ; ioBaseGUISupport::CheckMagicCircle
  00148	84 c0		 test	 al, al
  0014a	75 43		 jne	 SHORT $LN6@SetLoopSta

; 384  : 	{
; 385  : 		ioHashString szDummyCircle;

  0014c	8d 4d b8	 lea	 ecx, DWORD PTR _szDummyCircle$548341[ebp]
  0014f	ff 15 00 00 00
	00		 call	 DWORD PTR __imp_??0ioHashString@@QAE@XZ

; 386  : 		pChar->CreateMagicCircle( m_ReadyCircle, m_ReadyCircle, szDummyCircle, m_fCircleOffSet );

  00155	f3 0f 10 83 38
	10 00 00	 movss	 xmm0, DWORD PTR [ebx+4152]
  0015d	8b 96 cc 01 00
	00		 mov	 edx, DWORD PTR [esi+460]
  00163	83 65 fc 00	 and	 DWORD PTR __$EHRec$[ebp+8], 0
  00167	51		 push	 ecx
  00168	f3 0f 11 04 24	 movss	 DWORD PTR [esp], xmm0
  0016d	8d 4d b8	 lea	 ecx, DWORD PTR _szDummyCircle$548341[ebp]
  00170	51		 push	 ecx
  00171	8d 83 48 10 00
	00		 lea	 eax, DWORD PTR [ebx+4168]
  00177	50		 push	 eax
  00178	50		 push	 eax
  00179	8d 8e cc 01 00
	00		 lea	 ecx, DWORD PTR [esi+460]
  0017f	ff 52 04	 call	 DWORD PTR [edx+4]

; 387  : 	}

  00182	83 4d fc ff	 or	 DWORD PTR __$EHRec$[ebp+8], -1
  00186	8d 4d b8	 lea	 ecx, DWORD PTR _szDummyCircle$548341[ebp]
  00189	ff 15 00 00 00
	00		 call	 DWORD PTR __imp_??1ioHashString@@QAE@XZ
$LN6@SetLoopSta:

; 388  : 
; 389  : 	if( !m_TargetCircleEffect.IsEmpty() )

  0018f	8d 8b 58 10 00
	00		 lea	 ecx, DWORD PTR [ebx+4184]
  00195	ff 15 00 00 00
	00		 call	 DWORD PTR __imp_?IsEmpty@ioHashString@@QBE_NXZ
  0019b	84 c0		 test	 al, al
  0019d	75 69		 jne	 SHORT $LN4@SetLoopSta

; 390  : 	{
; 391  : 		D3DXVECTOR3 vPos = pChar->GetWorldPosition();

  0019f	8b 06		 mov	 eax, DWORD PTR [esi]
  001a1	8b ce		 mov	 ecx, esi
  001a3	ff 50 70	 call	 DWORD PTR [eax+112]

; 392  : 		ioMapEffect *pMapEffect = pChar->CreateMapEffectBySkill( m_TargetCircleEffect, vPos );

  001a6	f3 0f 10 05 00
	00 00 00	 movss	 xmm0, DWORD PTR __real@3f800000
  001ae	8b 4d dc	 mov	 ecx, DWORD PTR _pChar$GSCopy$[ebp]
  001b1	8b f0		 mov	 esi, eax
  001b3	8d 7d e4	 lea	 edi, DWORD PTR _vPos$548343[ebp]
  001b6	a5		 movsd
  001b7	8d 45 c8	 lea	 eax, DWORD PTR $T556364[ebp]
  001ba	50		 push	 eax
  001bb	8d 45 e4	 lea	 eax, DWORD PTR _vPos$548343[ebp]
  001be	a5		 movsd
  001bf	50		 push	 eax
  001c0	8d 83 58 10 00
	00		 lea	 eax, DWORD PTR [ebx+4184]
  001c6	50		 push	 eax
  001c7	a5		 movsd
  001c8	f3 0f 11 45 c8	 movss	 DWORD PTR $T556364[ebp], xmm0
  001cd	f3 0f 11 45 cc	 movss	 DWORD PTR $T556364[ebp+4], xmm0
  001d2	f3 0f 11 45 d0	 movss	 DWORD PTR $T556364[ebp+8], xmm0
  001d7	e8 00 00 00 00	 call	 ?CreateMapEffectBySkill@ioBaseChar@@QAEPAVioMapEffect@@ABVioHashString@@ABUD3DXVECTOR3@@AAU4@@Z ; ioBaseChar::CreateMapEffectBySkill
  001dc	8b f8		 mov	 edi, eax

; 393  : 
; 394  : 		if( pMapEffect )

  001de	85 ff		 test	 edi, edi
  001e0	74 23		 je	 SHORT $LN31@SetLoopSta

; 395  : 		{
; 396  : 			if( m_dwTargetCircleEffect != -1 )

  001e2	8b 83 8c 10 00
	00		 mov	 eax, DWORD PTR [ebx+4236]
  001e8	83 f8 ff	 cmp	 eax, -1
  001eb	74 0b		 je	 SHORT $LN3@SetLoopSta

; 397  : 				pChar->EndMapEffect( m_dwTargetCircleEffect, false );

  001ed	8b 4d dc	 mov	 ecx, DWORD PTR _pChar$GSCopy$[ebp]
  001f0	6a 00		 push	 0
  001f2	50		 push	 eax
  001f3	e8 00 00 00 00	 call	 ?EndMapEffect@ioBaseChar@@QAEXK_N@Z ; ioBaseChar::EndMapEffect
$LN3@SetLoopSta:

; 398  : 
; 399  : 			m_dwTargetCircleEffect = pMapEffect->GetUniqueID();

  001f8	8b cf		 mov	 ecx, edi
  001fa	e8 00 00 00 00	 call	 ?GetUniqueID@ioMapEffect@@QBEKXZ ; ioMapEffect::GetUniqueID
  001ff	89 83 8c 10 00
	00		 mov	 DWORD PTR [ebx+4236], eax
$LN31@SetLoopSta:
  00205	8b 75 dc	 mov	 esi, DWORD PTR _pChar$GSCopy$[ebp]
$LN4@SetLoopSta:

; 400  : 		}
; 401  : 	}
; 402  : 
; 403  : 	if( m_dwChargingEffect != -1 )

  00208	8b 83 28 10 00
	00		 mov	 eax, DWORD PTR [ebx+4136]
  0020e	83 f8 ff	 cmp	 eax, -1
  00211	74 0a		 je	 SHORT $LN2@SetLoopSta

; 404  : 	{
; 405  : 		pChar->EndEffect( m_dwChargingEffect, false );

  00213	6a 00		 push	 0
  00215	50		 push	 eax
  00216	8b ce		 mov	 ecx, esi
  00218	e8 00 00 00 00	 call	 ?EndEffect@ioBaseChar@@QAEXK_N@Z ; ioBaseChar::EndEffect
$LN2@SetLoopSta:

; 406  : 	}
; 407  : 
; 408  : 	ioMapEffect *pChargingEff = pChar->CreateMapEffectAttachChar( m_SkillChargingEffect );

  0021d	8d 83 18 10 00
	00		 lea	 eax, DWORD PTR [ebx+4120]
  00223	50		 push	 eax
  00224	8b ce		 mov	 ecx, esi
  00226	e8 00 00 00 00	 call	 ?CreateMapEffectAttachChar@ioBaseChar@@QAEPAVioMapEffect@@ABVioHashString@@@Z ; ioBaseChar::CreateMapEffectAttachChar

; 409  : 	if( pChargingEff )

  0022b	85 c0		 test	 eax, eax
  0022d	74 0d		 je	 SHORT $LN1@SetLoopSta

; 410  : 	{
; 411  : 		m_dwChargingEffect = pChargingEff->GetUniqueID();

  0022f	8b c8		 mov	 ecx, eax
  00231	e8 00 00 00 00	 call	 ?GetUniqueID@ioMapEffect@@QBEKXZ ; ioMapEffect::GetUniqueID
  00236	89 83 28 10 00
	00		 mov	 DWORD PTR [ebx+4136], eax
$LN1@SetLoopSta:

; 412  : 	}
; 413  : 
; 414  : 	/*
; 415  : 	if( pChar->IsNeedSendNetwork() )
; 416  : 	{
; 417  : 		SP2Packet kPacket( CUPK_SKILL_EXTRA_INFO );
; 418  : 		kPacket << pChar->GetCharName();
; 419  : 		kPacket << GetName();
; 420  : 		kPacket << SSC_LOOP;
; 421  : 		kPacket << pChar->GetWorldPosition();
; 422  : 		kPacket << pChar->GetTargetRot();
; 423  : 		P2PNetwork::SendToAllPlayingUser( kPacket );
; 424  : 	}
; 425  : 	*/
; 426  : }

  0023c	e8 00 00 00 00	 call	 __EH_epilog3_GS
  00241	c2 04 00	 ret	 4
_TEXT	ENDS
;	COMDAT text$x
text$x	SEGMENT
__unwindfunclet$?SetLoopState@ioChargingFireSkill@@IAEXPAVioBaseChar@@@Z$0:
  00000	8d 4d b8	 lea	 ecx, DWORD PTR _szDummyCircle$548341[ebp]
  00003	ff 25 00 00 00
	00		 jmp	 DWORD PTR __imp_??1ioHashString@@QAE@XZ
__ehhandler$?SetLoopState@ioChargingFireSkill@@IAEXPAVioBaseChar@@@Z:
  00009	8b 54 24 08	 mov	 edx, DWORD PTR [esp+8]
  0000d	8d 42 0c	 lea	 eax, DWORD PTR [edx+12]
  00010	8b 4a b4	 mov	 ecx, DWORD PTR [edx-76]
  00013	33 c8		 xor	 ecx, eax
  00015	e8 00 00 00 00	 call	 @__security_check_cookie@4
  0001a	8b 4a fc	 mov	 ecx, DWORD PTR [edx-4]
  0001d	33 c8		 xor	 ecx, eax
  0001f	e8 00 00 00 00	 call	 @__security_check_cookie@4
  00024	b8 00 00 00 00	 mov	 eax, OFFSET __ehfuncinfo$?SetLoopState@ioChargingFireSkill@@IAEXPAVioBaseChar@@@Z
  00029	e9 00 00 00 00	 jmp	 ___CxxFrameHandler3
text$x	ENDS
?SetLoopState@ioChargingFireSkill@@IAEXPAVioBaseChar@@@Z ENDP ; ioChargingFireSkill::SetLoopState
PUBLIC	?IsProtected@ioChargingFireSkill@@UBE_NH@Z	; ioChargingFireSkill::IsProtected
; Function compile flags: /Ogsp
;	COMDAT ?IsProtected@ioChargingFireSkill@@UBE_NH@Z
_TEXT	SEGMENT
_value$556424 = -1					; size = 1
_value$556429 = 8					; size = 4
_iDefenseBreakType$ = 8					; size = 4
?IsProtected@ioChargingFireSkill@@UBE_NH@Z PROC		; ioChargingFireSkill::IsProtected, COMDAT
; _this$ = ecx

; 597  : {

  00000	55		 push	 ebp
  00001	8b ec		 mov	 ebp, esp
  00003	51		 push	 ecx
  00004	56		 push	 esi
  00005	8b f1		 mov	 esi, ecx

; 598  : 	if( m_bDisableSkillProtect )

  00007	8d 45 ff	 lea	 eax, DWORD PTR _value$556424[ebp]
  0000a	50		 push	 eax
  0000b	8d 8e a8 00 00
	00		 lea	 ecx, DWORD PTR [esi+168]
  00011	e8 00 00 00 00	 call	 ?DecryptValueToPool@?$CEncrypt@_N@@QAEXPA_N@Z ; CEncrypt<bool>::DecryptValueToPool
  00016	80 7d ff 00	 cmp	 BYTE PTR _value$556424[ebp], 0

; 599  : 		return false;

  0001a	75 61		 jne	 SHORT $LN4@IsProtecte

; 600  : 
; 601  : 	if( DBT_NONE != (DefenseBreakType)m_ProtectCancelType )

  0001c	8b 86 a4 00 00
	00		 mov	 eax, DWORD PTR [esi+164]
  00022	85 c0		 test	 eax, eax
  00024	74 05		 je	 SHORT $LN8@IsProtecte

; 602  : 	{
; 603  : 		if( iDefenseBreakType == m_ProtectCancelType )   //   

  00026	39 45 08	 cmp	 DWORD PTR _iDefenseBreakType$[ebp], eax

; 604  : 			return false;

  00029	74 52		 je	 SHORT $LN4@IsProtecte
$LN8@IsProtecte:

; 605  : 	}
; 606  : 
; 607  : 	if( IsPreDelayProtect() )

  0002b	8b 06		 mov	 eax, DWORD PTR [esi]
  0002d	8b ce		 mov	 ecx, esi
  0002f	ff 90 2c 01 00
	00		 call	 DWORD PTR [eax+300]
  00035	84 c0		 test	 al, al
  00037	74 0d		 je	 SHORT $LN6@IsProtecte

; 608  : 	{
; 609  : 		if( m_dwPreDelayStartTime != 0 )

  00039	83 be 20 02 00
	00 00		 cmp	 DWORD PTR [esi+544], 0
  00040	74 04		 je	 SHORT $LN6@IsProtecte
$LN17@IsProtecte:

; 610  : 			return true;

  00042	b0 01		 mov	 al, 1
  00044	eb 39		 jmp	 SHORT $LN11@IsProtecte
$LN6@IsProtecte:

; 611  : 	}
; 612  : 
; 613  : 	switch( m_State )

  00046	8d 45 08	 lea	 eax, DWORD PTR _value$556429[ebp]
  00049	50		 push	 eax
  0004a	8d 8e 58 0f 00
	00		 lea	 ecx, DWORD PTR [esi+3928]
  00050	e8 00 00 00 00	 call	 ?DecryptValueToPool@?$CEncrypt@H@@QAEXPAH@Z ; CEncrypt<int>::DecryptValueToPool
  00055	83 7d 08 00	 cmp	 DWORD PTR _value$556429[ebp], 0
  00059	7e 22		 jle	 SHORT $LN4@IsProtecte
  0005b	83 7d 08 02	 cmp	 DWORD PTR _value$556429[ebp], 2
  0005f	7e 1c		 jle	 SHORT $LN4@IsProtecte
  00061	83 7d 08 03	 cmp	 DWORD PTR _value$556429[ebp], 3
  00065	75 16		 jne	 SHORT $LN4@IsProtecte

; 614  : 	{
; 615  : 	case SS_PRE_ACTION:
; 616  : 	case SS_LOOP:
; 617  : 		return false;
; 618  : 	case SS_ACTION:
; 619  : 		if( m_dwFireMotionEndTime > FRAMEGETTIME() )

  00067	ff 15 00 00 00
	00		 call	 DWORD PTR __imp_?GetSingleton@ioFrameTimer@@SAAAV1@XZ
  0006d	8b c8		 mov	 ecx, eax
  0006f	ff 15 00 00 00
	00		 call	 DWORD PTR __imp_?GetLoopSec@ioFrameTimer@@QBEKXZ
  00075	39 86 24 02 00
	00		 cmp	 DWORD PTR [esi+548], eax

; 620  : 			return true;

  0007b	77 c5		 ja	 SHORT $LN17@IsProtecte
$LN4@IsProtecte:

; 621  : 		break;
; 622  : 	}
; 623  : 
; 624  : 	return false;

  0007d	32 c0		 xor	 al, al
$LN11@IsProtecte:
  0007f	5e		 pop	 esi

; 625  : }

  00080	c9		 leave
  00081	c2 04 00	 ret	 4
?IsProtected@ioChargingFireSkill@@UBE_NH@Z ENDP		; ioChargingFireSkill::IsProtected
_TEXT	ENDS
PUBLIC	?IsNoDropState@ioChargingFireSkill@@UBE_NXZ	; ioChargingFireSkill::IsNoDropState
; Function compile flags: /Ogsp
;	COMDAT ?IsNoDropState@ioChargingFireSkill@@UBE_NXZ
_TEXT	SEGMENT
_value$556442 = -4					; size = 4
_value$556437 = -4					; size = 4
?IsNoDropState@ioChargingFireSkill@@UBE_NXZ PROC	; ioChargingFireSkill::IsNoDropState, COMDAT
; _this$ = ecx

; 646  : {

  00000	55		 push	 ebp
  00001	8b ec		 mov	 ebp, esp
  00003	51		 push	 ecx
  00004	56		 push	 esi

; 647  : 	if( m_State == SS_LOOP || m_State == SS_ACTION )

  00005	8d b1 58 0f 00
	00		 lea	 esi, DWORD PTR [ecx+3928]
  0000b	8d 45 fc	 lea	 eax, DWORD PTR _value$556437[ebp]
  0000e	50		 push	 eax
  0000f	8b ce		 mov	 ecx, esi
  00011	e8 00 00 00 00	 call	 ?DecryptValueToPool@?$CEncrypt@H@@QAEXPAH@Z ; CEncrypt<int>::DecryptValueToPool
  00016	83 7d fc 02	 cmp	 DWORD PTR _value$556437[ebp], 2
  0001a	74 15		 je	 SHORT $LN1@IsNoDropSt
  0001c	8d 45 fc	 lea	 eax, DWORD PTR _value$556442[ebp]
  0001f	50		 push	 eax
  00020	8b ce		 mov	 ecx, esi
  00022	e8 00 00 00 00	 call	 ?DecryptValueToPool@?$CEncrypt@H@@QAEXPAH@Z ; CEncrypt<int>::DecryptValueToPool
  00027	83 7d fc 03	 cmp	 DWORD PTR _value$556442[ebp], 3
  0002b	74 04		 je	 SHORT $LN1@IsNoDropSt

; 649  : 
; 650  : 	return false;

  0002d	32 c0		 xor	 al, al
  0002f	eb 02		 jmp	 SHORT $LN3@IsNoDropSt
$LN1@IsNoDropSt:

; 648  : 		return true;

  00031	b0 01		 mov	 al, 1
$LN3@IsNoDropSt:
  00033	5e		 pop	 esi

; 651  : }

  00034	c9		 leave
  00035	c3		 ret	 0
?IsNoDropState@ioChargingFireSkill@@UBE_NXZ ENDP	; ioChargingFireSkill::IsNoDropState
_TEXT	ENDS
PUBLIC	__real@0000000000000000
PUBLIC	_pStage$GSCopy$
PUBLIC	__$ArrayPad$
PUBLIC	?ProcessLoopState@ioChargingFireSkill@@IAEXPAVioBaseChar@@PAVioPlayStage@@@Z ; ioChargingFireSkill::ProcessLoopState
EXTRN	?FindMapEffect@ioPlayStage@@QAEPAVioMapEffect@@K@Z:PROC ; ioPlayStage::FindMapEffect
EXTRN	?UpdateAttachMapEffect@ioBaseChar@@QAEXK_N@Z:PROC ; ioBaseChar::UpdateAttachMapEffect
;	COMDAT __real@0000000000000000
; File c:\program files (x86)\microsoft directx sdk (june 2010)\include\d3dx9math.inl
CONST	SEGMENT
__real@0000000000000000 DQ 00000000000000000r	; 0
; Function compile flags: /Ogsp
; File d:\lost saga for developer\youtube\tutorial\source\src\lsclient\iochargingfireskill.cpp
CONST	ENDS
;	COMDAT ?ProcessLoopState@ioChargingFireSkill@@IAEXPAVioBaseChar@@PAVioPlayStage@@@Z
_TEXT	SEGMENT
tv359 = -32						; size = 4
_pStage$GSCopy$ = -32					; size = 4
_fCurScaleRate$ = -28					; size = 4
_value$556484 = -24					; size = 4
$T556488 = -24						; size = 4
_value$556476 = -24					; size = 4
_value$556464 = -24					; size = 4
_fCurMaxScale$548499 = -24				; size = 4
tv411 = -20						; size = 4
tv408 = -20						; size = 4
tv402 = -20						; size = 4
tv397 = -20						; size = 4
tv390 = -20						; size = 4
tv386 = -20						; size = 4
tv373 = -20						; size = 4
tv369 = -20						; size = 4
_value$556492 = -20					; size = 4
$T556480 = -20						; size = 4
_value$556496 = -20					; size = 4
_vScale$548509 = -16					; size = 12
__$ArrayPad$ = -4					; size = 4
_pChar$ = 8						; size = 4
_pStage$ = 12						; size = 4
?ProcessLoopState@ioChargingFireSkill@@IAEXPAVioBaseChar@@PAVioPlayStage@@@Z PROC ; ioChargingFireSkill::ProcessLoopState, COMDAT
; _this$ = ecx

; 659  : {

  00000	55		 push	 ebp
  00001	8b ec		 mov	 ebp, esp
  00003	83 ec 20	 sub	 esp, 32			; 00000020H
  00006	a1 00 00 00 00	 mov	 eax, DWORD PTR ___security_cookie
  0000b	33 c5		 xor	 eax, ebp
  0000d	89 45 fc	 mov	 DWORD PTR __$ArrayPad$[ebp], eax
  00010	8b 45 0c	 mov	 eax, DWORD PTR _pStage$[ebp]
  00013	53		 push	 ebx
  00014	8b 5d 08	 mov	 ebx, DWORD PTR _pChar$[ebp]
  00017	56		 push	 esi
  00018	8b f1		 mov	 esi, ecx

; 664  : 		return;
; 665  : 
; 666  : 	DWORD dwCurTime = FRAMEGETTIME();

  0001a	89 45 e0	 mov	 DWORD PTR _pStage$GSCopy$[ebp], eax
  0001d	85 db		 test	 ebx, ebx
  0001f	0f 84 e7 01 00
	00		 je	 $LN1@ProcessLoo

; 660  : 	if( !pChar ) return;
; 661  : 	if( !pStage ) return;

  00025	85 c0		 test	 eax, eax
  00027	0f 84 df 01 00
	00		 je	 $LN1@ProcessLoo

; 662  : 
; 663  : 	if( m_dwChargingEffect == -1 )

  0002d	83 be 28 10 00
	00 ff		 cmp	 DWORD PTR [esi+4136], -1
  00034	0f 84 d2 01 00
	00		 je	 $LN1@ProcessLoo

; 664  : 		return;
; 665  : 
; 666  : 	DWORD dwCurTime = FRAMEGETTIME();

  0003a	57		 push	 edi
  0003b	ff 15 00 00 00
	00		 call	 DWORD PTR __imp_?GetSingleton@ioFrameTimer@@SAAAV1@XZ
  00041	8b c8		 mov	 ecx, eax
  00043	ff 15 00 00 00
	00		 call	 DWORD PTR __imp_?GetLoopSec@ioFrameTimer@@QBEKXZ

; 667  : 
; 668  : 	pChar->UpdateAttachMapEffect( m_dwChargingEffect );

  00049	6a 00		 push	 0
  0004b	ff b6 28 10 00
	00		 push	 DWORD PTR [esi+4136]
  00051	8b cb		 mov	 ecx, ebx
  00053	8b f8		 mov	 edi, eax
  00055	e8 00 00 00 00	 call	 ?UpdateAttachMapEffect@ioBaseChar@@QAEXK_N@Z ; ioBaseChar::UpdateAttachMapEffect

; 669  : 
; 670  : 	// Charging Rate
; 671  : 	DWORD dwGapTime = dwCurTime - m_dwLoopStartTime;

  0005a	8b 86 0c 10 00
	00		 mov	 eax, DWORD PTR [esi+4108]
  00060	2b f8		 sub	 edi, eax

; 672  : 	if( m_dwLoopStartTime > 0 && m_dwMaxChargingTime > 0 )

  00062	85 c0		 test	 eax, eax
  00064	74 59		 je	 SHORT $LN18@ProcessLoo
  00066	8b 86 ec 0f 00
	00		 mov	 eax, DWORD PTR [esi+4076]
  0006c	85 c0		 test	 eax, eax
  0006e	74 4f		 je	 SHORT $LN18@ProcessLoo

; 673  : 	{
; 674  : 		if( m_dwMaxChargingTime > dwGapTime )

  00070	3b c7		 cmp	 eax, edi
  00072	76 24		 jbe	 SHORT $LN5@ProcessLoo

; 675  : 			m_fCurChargeRate = (float)dwGapTime / m_dwMaxChargingTime;

  00074	89 7d ec	 mov	 DWORD PTR tv411[ebp], edi
  00077	db 45 ec	 fild	 DWORD PTR tv411[ebp]
  0007a	85 ff		 test	 edi, edi
  0007c	79 06		 jns	 SHORT $LN44@ProcessLoo
  0007e	d8 05 00 00 00
	00		 fadd	 DWORD PTR __real@4f800000
$LN44@ProcessLoo:
  00084	89 45 ec	 mov	 DWORD PTR tv408[ebp], eax
  00087	db 45 ec	 fild	 DWORD PTR tv408[ebp]
  0008a	85 c0		 test	 eax, eax
  0008c	79 06		 jns	 SHORT $LN45@ProcessLoo
  0008e	d8 05 00 00 00
	00		 fadd	 DWORD PTR __real@4f800000
$LN45@ProcessLoo:
  00094	de f9		 fdivp	 ST(1), ST(0)

; 676  : 		else

  00096	eb 15		 jmp	 SHORT $LN46@ProcessLoo
$LN5@ProcessLoo:

; 677  : 			m_fCurChargeRate = FLOAT1;

  00098	b8 01 00 00 00	 mov	 eax, 1
  0009d	89 45 ec	 mov	 DWORD PTR tv402[ebp], eax
  000a0	db 45 ec	 fild	 DWORD PTR tv402[ebp]
  000a3	85 c0		 test	 eax, eax
  000a5	79 06		 jns	 SHORT $LN46@ProcessLoo
  000a7	d8 05 00 00 00
	00		 fadd	 DWORD PTR __real@4f800000
$LN46@ProcessLoo:
  000ad	8d 45 e8	 lea	 eax, DWORD PTR _value$556464[ebp]
  000b0	d9 5d e8	 fstp	 DWORD PTR _value$556464[ebp]
  000b3	50		 push	 eax
  000b4	8d 8e a4 09 00
	00		 lea	 ecx, DWORD PTR [esi+2468]
  000ba	e8 00 00 00 00	 call	 ?EncryptValueToPool@?$CEncrypt@M@@AAEXPBD@Z ; CEncrypt<float>::EncryptValueToPool
$LN18@ProcessLoo:

; 678  : 	}
; 679  : 
; 680  : 	float fCurScaleRate = FLOAT1;

  000bf	b8 01 00 00 00	 mov	 eax, 1
  000c4	89 45 ec	 mov	 DWORD PTR tv397[ebp], eax
  000c7	db 45 ec	 fild	 DWORD PTR tv397[ebp]
  000ca	85 c0		 test	 eax, eax
  000cc	79 06		 jns	 SHORT $LN47@ProcessLoo
  000ce	d8 05 00 00 00
	00		 fadd	 DWORD PTR __real@4f800000
$LN47@ProcessLoo:

; 681  : 	if( m_fCurChargeRate > 0.0f )

  000d4	8d 45 e8	 lea	 eax, DWORD PTR _value$556476[ebp]
  000d7	d9 5d e4	 fstp	 DWORD PTR _fCurScaleRate$[ebp]
  000da	50		 push	 eax
  000db	8d 8e a4 09 00
	00		 lea	 ecx, DWORD PTR [esi+2468]
  000e1	e8 00 00 00 00	 call	 ?DecryptValueToPool@?$CEncrypt@M@@QAEXPAM@Z ; CEncrypt<float>::DecryptValueToPool
  000e6	f3 0f 10 45 e8	 movss	 xmm0, DWORD PTR _value$556476[ebp]
  000eb	0f 2f 05 00 00
	00 00		 comiss	 xmm0, DWORD PTR __real@00000000
  000f2	0f 86 13 01 00
	00		 jbe	 $LN43@ProcessLoo

; 682  : 	{
; 683  : 		float fCurMaxScale = max( 0.0f, (m_fMaxScaleRate - FLOAT1) );

  000f8	b8 01 00 00 00	 mov	 eax, 1
  000fd	89 45 ec	 mov	 DWORD PTR $T556480[ebp], eax
  00100	8d 45 e8	 lea	 eax, DWORD PTR _value$556484[ebp]
  00103	50		 push	 eax
  00104	8d 8e b4 0b 00
	00		 lea	 ecx, DWORD PTR [esi+2996]
  0010a	e8 00 00 00 00	 call	 ?DecryptValueToPool@?$CEncrypt@M@@QAEXPAM@Z ; CEncrypt<float>::DecryptValueToPool
  0010f	d9 45 e8	 fld	 DWORD PTR _value$556484[ebp]
  00112	8b 45 ec	 mov	 eax, DWORD PTR $T556480[ebp]
  00115	db 45 ec	 fild	 DWORD PTR $T556480[ebp]
  00118	85 c0		 test	 eax, eax
  0011a	79 06		 jns	 SHORT $LN48@ProcessLoo
  0011c	d8 05 00 00 00
	00		 fadd	 DWORD PTR __real@4f800000
$LN48@ProcessLoo:
  00122	de e9		 fsubp	 ST(1), ST(0)
  00124	d9 5d ec	 fstp	 DWORD PTR tv386[ebp]
  00127	d9 45 ec	 fld	 DWORD PTR tv386[ebp]
  0012a	d9 ee		 fldz
  0012c	df f1		 fcomip	 ST(1)
  0012e	dd d8		 fstp	 ST(0)
  00130	76 0a		 jbe	 SHORT $LN12@ProcessLoo
  00132	0f 57 c0	 xorps	 xmm0, xmm0
  00135	f3 0f 11 45 e8	 movss	 DWORD PTR _fCurMaxScale$548499[ebp], xmm0
  0013a	eb 35		 jmp	 SHORT $LN13@ProcessLoo
$LN12@ProcessLoo:
  0013c	b8 01 00 00 00	 mov	 eax, 1
  00141	89 45 e8	 mov	 DWORD PTR $T556488[ebp], eax
  00144	8d 45 ec	 lea	 eax, DWORD PTR _value$556492[ebp]
  00147	50		 push	 eax
  00148	8d 8e b4 0b 00
	00		 lea	 ecx, DWORD PTR [esi+2996]
  0014e	e8 00 00 00 00	 call	 ?DecryptValueToPool@?$CEncrypt@M@@QAEXPAM@Z ; CEncrypt<float>::DecryptValueToPool
  00153	d9 45 ec	 fld	 DWORD PTR _value$556492[ebp]
  00156	8b 45 e8	 mov	 eax, DWORD PTR $T556488[ebp]
  00159	db 45 e8	 fild	 DWORD PTR $T556488[ebp]
  0015c	85 c0		 test	 eax, eax
  0015e	79 06		 jns	 SHORT $LN49@ProcessLoo
  00160	d8 05 00 00 00
	00		 fadd	 DWORD PTR __real@4f800000
$LN49@ProcessLoo:
  00166	de e9		 fsubp	 ST(1), ST(0)
  00168	d9 5d ec	 fstp	 DWORD PTR tv369[ebp]
  0016b	d9 45 ec	 fld	 DWORD PTR tv369[ebp]
  0016e	d9 5d e8	 fstp	 DWORD PTR _fCurMaxScale$548499[ebp]
$LN13@ProcessLoo:

; 684  : 		fCurScaleRate += fCurMaxScale * m_fCurChargeRate;

  00171	8d 45 ec	 lea	 eax, DWORD PTR _value$556496[ebp]
  00174	50		 push	 eax
  00175	8d 8e a4 09 00
	00		 lea	 ecx, DWORD PTR [esi+2468]
  0017b	e8 00 00 00 00	 call	 ?DecryptValueToPool@?$CEncrypt@M@@QAEXPAM@Z ; CEncrypt<float>::DecryptValueToPool
  00180	f3 0f 10 45 ec	 movss	 xmm0, DWORD PTR _value$556496[ebp]
  00185	f3 0f 10 4d e8	 movss	 xmm1, DWORD PTR _fCurMaxScale$548499[ebp]

; 685  : 
; 686  : 		ioMapEffect *pMapEff = pStage->FindMapEffect( m_dwChargingEffect );

  0018a	ff b6 28 10 00
	00		 push	 DWORD PTR [esi+4136]
  00190	8b 4d e0	 mov	 ecx, DWORD PTR _pStage$GSCopy$[ebp]
  00193	0f 5a c0	 cvtps2pd xmm0, xmm0
  00196	0f 5a c9	 cvtps2pd xmm1, xmm1
  00199	f2 0f 59 c1	 mulsd	 xmm0, xmm1
  0019d	f3 0f 10 4d e4	 movss	 xmm1, DWORD PTR _fCurScaleRate$[ebp]
  001a2	0f 5a c9	 cvtps2pd xmm1, xmm1
  001a5	f2 0f 58 c1	 addsd	 xmm0, xmm1
  001a9	66 0f 5a c0	 cvtpd2ps xmm0, xmm0
  001ad	f3 0f 11 45 e4	 movss	 DWORD PTR _fCurScaleRate$[ebp], xmm0
  001b2	e8 00 00 00 00	 call	 ?FindMapEffect@ioPlayStage@@QAEPAVioMapEffect@@K@Z ; ioPlayStage::FindMapEffect
  001b7	8b c8		 mov	 ecx, eax

; 687  : 		if( pMapEff && fCurScaleRate > FLOAT1 )

  001b9	85 c9		 test	 ecx, ecx
  001bb	74 4e		 je	 SHORT $LN43@ProcessLoo
  001bd	b8 01 00 00 00	 mov	 eax, 1
  001c2	d9 45 e4	 fld	 DWORD PTR _fCurScaleRate$[ebp]
  001c5	89 45 e0	 mov	 DWORD PTR tv359[ebp], eax
  001c8	db 45 e0	 fild	 DWORD PTR tv359[ebp]
  001cb	85 c0		 test	 eax, eax
  001cd	79 06		 jns	 SHORT $LN50@ProcessLoo
  001cf	d8 05 00 00 00
	00		 fadd	 DWORD PTR __real@4f800000
$LN50@ProcessLoo:
  001d5	d9 c9		 fxch	 ST(1)
  001d7	df f1		 fcomip	 ST(1)
  001d9	dd d8		 fstp	 ST(0)
  001db	76 2e		 jbe	 SHORT $LN43@ProcessLoo

; 688  : 		{
; 689  : 			ioEffect *pEff = pMapEff->GetEffect();

  001dd	8b 41 04	 mov	 eax, DWORD PTR [ecx+4]

; 690  : 			if( pEff )

  001e0	85 c0		 test	 eax, eax
  001e2	74 27		 je	 SHORT $LN43@ProcessLoo

; 691  : 			{
; 692  : 				D3DXVECTOR3 vScale( fCurScaleRate, fCurScaleRate, fCurScaleRate );

  001e4	f3 0f 10 45 e4	 movss	 xmm0, DWORD PTR _fCurScaleRate$[ebp]

; 693  : 				pEff->GetParentNode()->SetScale( vScale );

  001e9	8d 48 14	 lea	 ecx, DWORD PTR [eax+20]
  001ec	8b 01		 mov	 eax, DWORD PTR [ecx]
  001ee	f3 0f 11 45 f0	 movss	 DWORD PTR _vScale$548509[ebp], xmm0
  001f3	f3 0f 11 45 f4	 movss	 DWORD PTR _vScale$548509[ebp+4], xmm0
  001f8	f3 0f 11 45 f8	 movss	 DWORD PTR _vScale$548509[ebp+8], xmm0
  001fd	ff 50 30	 call	 DWORD PTR [eax+48]
  00200	8b 10		 mov	 edx, DWORD PTR [eax]
  00202	8d 4d f0	 lea	 ecx, DWORD PTR _vScale$548509[ebp]
  00205	51		 push	 ecx
  00206	8b c8		 mov	 ecx, eax
  00208	ff 52 20	 call	 DWORD PTR [edx+32]
$LN43@ProcessLoo:
  0020b	5f		 pop	 edi
$LN1@ProcessLoo:

; 694  : 			}
; 695  : 		}
; 696  : 	}
; 697  : }

  0020c	8b 4d fc	 mov	 ecx, DWORD PTR __$ArrayPad$[ebp]
  0020f	5e		 pop	 esi
  00210	33 cd		 xor	 ecx, ebp
  00212	5b		 pop	 ebx
  00213	e8 00 00 00 00	 call	 @__security_check_cookie@4
  00218	c9		 leave
  00219	c2 08 00	 ret	 8
?ProcessLoopState@ioChargingFireSkill@@IAEXPAVioBaseChar@@PAVioPlayStage@@@Z ENDP ; ioChargingFireSkill::ProcessLoopState
_TEXT	ENDS
PUBLIC	??$_Cons_val@V?$allocator@UForceInfo@@@std@@UForceInfo@@ABU3@@std@@YAXAAV?$allocator@UForceInfo@@@0@PAUForceInfo@@ABU2@@Z ; std::_Cons_val<std::allocator<ForceInfo>,ForceInfo,ForceInfo const &>
; Function compile flags: /Ogsp
; File c:\program files (x86)\microsoft visual studio 10.0\vc\include\xmemory
;	COMDAT ??$_Cons_val@V?$allocator@UForceInfo@@@std@@UForceInfo@@ABU3@@std@@YAXAAV?$allocator@UForceInfo@@@0@PAUForceInfo@@ABU2@@Z
_TEXT	SEGMENT
__Alval$ = 8						; size = 4
__Pdest$ = 12						; size = 4
__Src$ = 16						; size = 4
??$_Cons_val@V?$allocator@UForceInfo@@@std@@UForceInfo@@ABU3@@std@@YAXAAV?$allocator@UForceInfo@@@0@PAUForceInfo@@ABU2@@Z PROC ; std::_Cons_val<std::allocator<ForceInfo>,ForceInfo,ForceInfo const &>, COMDAT

; 279  : 	{	// construct using allocator

  00000	55		 push	 ebp
  00001	8b ec		 mov	 ebp, esp
  00003	57		 push	 edi

; 280  : 	_Alval.construct(_Pdest, _STD forward<_Ty2>(_Src));

  00004	8b 7d 0c	 mov	 edi, DWORD PTR __Pdest$[ebp]
  00007	85 ff		 test	 edi, edi
  00009	74 08		 je	 SHORT $LN9@Cons_val
  0000b	56		 push	 esi
  0000c	8b 75 10	 mov	 esi, DWORD PTR __Src$[ebp]
  0000f	a5		 movsd
  00010	a5		 movsd
  00011	a5		 movsd
  00012	5e		 pop	 esi
$LN9@Cons_val:
  00013	5f		 pop	 edi

; 281  : 	}

  00014	5d		 pop	 ebp
  00015	c3		 ret	 0
??$_Cons_val@V?$allocator@UForceInfo@@@std@@UForceInfo@@ABU3@@std@@YAXAAV?$allocator@UForceInfo@@@0@PAUForceInfo@@ABU2@@Z ENDP ; std::_Cons_val<std::allocator<ForceInfo>,ForceInfo,ForceInfo const &>
_TEXT	ENDS
PUBLIC	?construct@?$allocator@UWeaponInfo@@@std@@QAEXPAUWeaponInfo@@ABU3@@Z ; std::allocator<WeaponInfo>::construct
; Function compile flags: /Ogsp
;	COMDAT ?construct@?$allocator@UWeaponInfo@@@std@@QAEXPAUWeaponInfo@@ABU3@@Z
_TEXT	SEGMENT
__Ptr$ = 8						; size = 4
__Val$ = 12						; size = 4
?construct@?$allocator@UWeaponInfo@@@std@@QAEXPAUWeaponInfo@@ABU3@@Z PROC ; std::allocator<WeaponInfo>::construct, COMDAT
; _this$ = ecx

; 196  : 		{	// construct object at _Ptr with value _Val

  00000	55		 push	 ebp
  00001	8b ec		 mov	 ebp, esp

; 197  : 		_Construct(_Ptr, _Val);

  00003	ff 75 0c	 push	 DWORD PTR __Val$[ebp]
  00006	ff 75 08	 push	 DWORD PTR __Ptr$[ebp]
  00009	e8 00 00 00 00	 call	 ??$_Construct@UWeaponInfo@@ABU1@@std@@YAXPAUWeaponInfo@@ABU1@@Z ; std::_Construct<WeaponInfo,WeaponInfo const &>
  0000e	59		 pop	 ecx
  0000f	59		 pop	 ecx

; 198  : 		}

  00010	5d		 pop	 ebp
  00011	c2 08 00	 ret	 8
?construct@?$allocator@UWeaponInfo@@@std@@QAEXPAUWeaponInfo@@ABU3@@Z ENDP ; std::allocator<WeaponInfo>::construct
_TEXT	ENDS
PUBLIC	?GetTeam@ioPlayEntity@@QBE?AW4TeamType@@XZ	; ioPlayEntity::GetTeam
; Function compile flags: /Ogsp
; File d:\lost saga for developer\youtube\tutorial\source\src\lsclient\ioplayentity.h
;	COMDAT ?GetTeam@ioPlayEntity@@QBE?AW4TeamType@@XZ
_TEXT	SEGMENT
_value$556569 = -4					; size = 4
?GetTeam@ioPlayEntity@@QBE?AW4TeamType@@XZ PROC		; ioPlayEntity::GetTeam, COMDAT
; _this$ = ecx

; 107  : 	inline TeamType GetTeam() const { return m_TeamType; }

  00000	55		 push	 ebp
  00001	8b ec		 mov	 ebp, esp
  00003	51		 push	 ecx
  00004	8d 45 fc	 lea	 eax, DWORD PTR _value$556569[ebp]
  00007	50		 push	 eax
  00008	81 c1 90 00 00
	00		 add	 ecx, 144		; 00000090H
  0000e	e8 00 00 00 00	 call	 ?DecryptValueToPool@?$CEncrypt@W4TeamType@@@@QAEXPAW4TeamType@@@Z ; CEncrypt<enum TeamType>::DecryptValueToPool
  00013	8b 45 fc	 mov	 eax, DWORD PTR _value$556569[ebp]
  00016	c9		 leave
  00017	c3		 ret	 0
?GetTeam@ioPlayEntity@@QBE?AW4TeamType@@XZ ENDP		; ioPlayEntity::GetTeam
_TEXT	ENDS
PUBLIC	??0?$vector@UWeaponInfo@@V?$allocator@UWeaponInfo@@@std@@@std@@QAE@XZ ; std::vector<WeaponInfo,std::allocator<WeaponInfo> >::vector<WeaponInfo,std::allocator<WeaponInfo> >
; Function compile flags: /Ogsp
; File c:\program files (x86)\microsoft visual studio 10.0\vc\include\vector
;	COMDAT ??0?$vector@UWeaponInfo@@V?$allocator@UWeaponInfo@@@std@@@std@@QAE@XZ
_TEXT	SEGMENT
??0?$vector@UWeaponInfo@@V?$allocator@UWeaponInfo@@@std@@@std@@QAE@XZ PROC ; std::vector<WeaponInfo,std::allocator<WeaponInfo> >::vector<WeaponInfo,std::allocator<WeaponInfo> >, COMDAT
; _this$ = ecx

; 507  : 		{	// construct empty vector

  00000	8b c1		 mov	 eax, ecx
  00002	33 c9		 xor	 ecx, ecx
  00004	89 08		 mov	 DWORD PTR [eax], ecx
  00006	89 48 04	 mov	 DWORD PTR [eax+4], ecx
  00009	89 48 08	 mov	 DWORD PTR [eax+8], ecx

; 508  : 		}

  0000c	c3		 ret	 0
??0?$vector@UWeaponInfo@@V?$allocator@UWeaponInfo@@@std@@@std@@QAE@XZ ENDP ; std::vector<WeaponInfo,std::allocator<WeaponInfo> >::vector<WeaponInfo,std::allocator<WeaponInfo> >
_TEXT	ENDS
PUBLIC	??0?$vector@UForceInfo@@V?$allocator@UForceInfo@@@std@@@std@@QAE@XZ ; std::vector<ForceInfo,std::allocator<ForceInfo> >::vector<ForceInfo,std::allocator<ForceInfo> >
; Function compile flags: /Ogsp
;	COMDAT ??0?$vector@UForceInfo@@V?$allocator@UForceInfo@@@std@@@std@@QAE@XZ
_TEXT	SEGMENT
??0?$vector@UForceInfo@@V?$allocator@UForceInfo@@@std@@@std@@QAE@XZ PROC ; std::vector<ForceInfo,std::allocator<ForceInfo> >::vector<ForceInfo,std::allocator<ForceInfo> >, COMDAT
; _this$ = ecx

; 507  : 		{	// construct empty vector

  00000	8b c1		 mov	 eax, ecx
  00002	33 c9		 xor	 ecx, ecx
  00004	89 08		 mov	 DWORD PTR [eax], ecx
  00006	89 48 04	 mov	 DWORD PTR [eax+4], ecx
  00009	89 48 08	 mov	 DWORD PTR [eax+8], ecx

; 508  : 		}

  0000c	c3		 ret	 0
??0?$vector@UForceInfo@@V?$allocator@UForceInfo@@@std@@@std@@QAE@XZ ENDP ; std::vector<ForceInfo,std::allocator<ForceInfo> >::vector<ForceInfo,std::allocator<ForceInfo> >
_TEXT	ENDS
PUBLIC	?_Buy@?$vector@UWeaponInfo@@V?$allocator@UWeaponInfo@@@std@@@std@@IAE_NI@Z ; std::vector<WeaponInfo,std::allocator<WeaponInfo> >::_Buy
; Function compile flags: /Ogsp
;	COMDAT ?_Buy@?$vector@UWeaponInfo@@V?$allocator@UWeaponInfo@@@std@@@std@@IAE_NI@Z
_TEXT	SEGMENT
__Capacity$ = 8						; size = 4
?_Buy@?$vector@UWeaponInfo@@V?$allocator@UWeaponInfo@@@std@@@std@@IAE_NI@Z PROC ; std::vector<WeaponInfo,std::allocator<WeaponInfo> >::_Buy, COMDAT
; _this$ = ecx

; 1250 : 		{	// allocate array with _Capacity elements

  00000	55		 push	 ebp
  00001	8b ec		 mov	 ebp, esp
  00003	56		 push	 esi

; 1251 : 		this->_Myfirst = 0;

  00004	33 c0		 xor	 eax, eax
  00006	57		 push	 edi

; 1252 : 		this->_Mylast = 0;
; 1253 : 		this->_Myend = 0;
; 1254 : 
; 1255 : 		if (_Capacity == 0)

  00007	8b 7d 08	 mov	 edi, DWORD PTR __Capacity$[ebp]
  0000a	8b f1		 mov	 esi, ecx
  0000c	89 06		 mov	 DWORD PTR [esi], eax
  0000e	89 46 04	 mov	 DWORD PTR [esi+4], eax
  00011	89 46 08	 mov	 DWORD PTR [esi+8], eax
  00014	3b f8		 cmp	 edi, eax
  00016	75 04		 jne	 SHORT $LN4@Buy

; 1256 : 			return (false);

  00018	32 c0		 xor	 al, al
  0001a	eb 2b		 jmp	 SHORT $LN5@Buy
$LN4@Buy:

; 1257 : 		else if (max_size() < _Capacity)

  0001c	81 ff 66 66 66
	06		 cmp	 edi, 107374182		; 06666666H
  00022	76 0b		 jbe	 SHORT $LN2@Buy

; 1258 : 			_Xlen();	// result too long

  00024	68 00 00 00 00	 push	 OFFSET ??_C@_0BD@OLBABOEK@vector?$DMT?$DO?5too?5long?$AA@
  00029	ff 15 00 00 00
	00		 call	 DWORD PTR __imp_?_Xlength_error@std@@YAXPBD@Z
$LN19@Buy:
$LN2@Buy:

; 1259 : 		else
; 1260 : 			{	// nonempty array, allocate storage
; 1261 : 			this->_Myfirst = this->_Alval.allocate(_Capacity);

  0002f	50		 push	 eax
  00030	57		 push	 edi
  00031	e8 00 00 00 00	 call	 ??$_Allocate@UWeaponInfo@@@std@@YAPAUWeaponInfo@@IPAU1@@Z ; std::_Allocate<WeaponInfo>

; 1262 : 			this->_Mylast = this->_Myfirst;
; 1263 : 			this->_Myend = this->_Myfirst + _Capacity;

  00036	6b ff 28	 imul	 edi, 40			; 00000028H
  00039	03 f8		 add	 edi, eax
  0003b	59		 pop	 ecx
  0003c	89 06		 mov	 DWORD PTR [esi], eax
  0003e	89 46 04	 mov	 DWORD PTR [esi+4], eax
  00041	59		 pop	 ecx
  00042	89 7e 08	 mov	 DWORD PTR [esi+8], edi

; 1264 : 			}
; 1265 : 		return (true);

  00045	b0 01		 mov	 al, 1
$LN5@Buy:
  00047	5f		 pop	 edi
  00048	5e		 pop	 esi

; 1266 : 		}

  00049	5d		 pop	 ebp
  0004a	c2 04 00	 ret	 4
$LN18@Buy:
?_Buy@?$vector@UWeaponInfo@@V?$allocator@UWeaponInfo@@@std@@@std@@IAE_NI@Z ENDP ; std::vector<WeaponInfo,std::allocator<WeaponInfo> >::_Buy
_TEXT	ENDS
PUBLIC	?_Buy@?$vector@UForceInfo@@V?$allocator@UForceInfo@@@std@@@std@@IAE_NI@Z ; std::vector<ForceInfo,std::allocator<ForceInfo> >::_Buy
; Function compile flags: /Ogsp
;	COMDAT ?_Buy@?$vector@UForceInfo@@V?$allocator@UForceInfo@@@std@@@std@@IAE_NI@Z
_TEXT	SEGMENT
__Capacity$ = 8						; size = 4
?_Buy@?$vector@UForceInfo@@V?$allocator@UForceInfo@@@std@@@std@@IAE_NI@Z PROC ; std::vector<ForceInfo,std::allocator<ForceInfo> >::_Buy, COMDAT
; _this$ = ecx

; 1250 : 		{	// allocate array with _Capacity elements

  00000	55		 push	 ebp
  00001	8b ec		 mov	 ebp, esp
  00003	56		 push	 esi

; 1251 : 		this->_Myfirst = 0;

  00004	33 c0		 xor	 eax, eax
  00006	57		 push	 edi

; 1252 : 		this->_Mylast = 0;
; 1253 : 		this->_Myend = 0;
; 1254 : 
; 1255 : 		if (_Capacity == 0)

  00007	8b 7d 08	 mov	 edi, DWORD PTR __Capacity$[ebp]
  0000a	8b f1		 mov	 esi, ecx
  0000c	89 06		 mov	 DWORD PTR [esi], eax
  0000e	89 46 04	 mov	 DWORD PTR [esi+4], eax
  00011	89 46 08	 mov	 DWORD PTR [esi+8], eax
  00014	3b f8		 cmp	 edi, eax
  00016	75 04		 jne	 SHORT $LN4@Buy@2

; 1256 : 			return (false);

  00018	32 c0		 xor	 al, al
  0001a	eb 2b		 jmp	 SHORT $LN5@Buy@2
$LN4@Buy@2:

; 1257 : 		else if (max_size() < _Capacity)

  0001c	81 ff 55 55 55
	15		 cmp	 edi, 357913941		; 15555555H
  00022	76 0b		 jbe	 SHORT $LN2@Buy@2

; 1258 : 			_Xlen();	// result too long

  00024	68 00 00 00 00	 push	 OFFSET ??_C@_0BD@OLBABOEK@vector?$DMT?$DO?5too?5long?$AA@
  00029	ff 15 00 00 00
	00		 call	 DWORD PTR __imp_?_Xlength_error@std@@YAXPBD@Z
$LN19@Buy@2:
$LN2@Buy@2:

; 1259 : 		else
; 1260 : 			{	// nonempty array, allocate storage
; 1261 : 			this->_Myfirst = this->_Alval.allocate(_Capacity);

  0002f	50		 push	 eax
  00030	57		 push	 edi
  00031	e8 00 00 00 00	 call	 ??$_Allocate@UForceInfo@@@std@@YAPAUForceInfo@@IPAU1@@Z ; std::_Allocate<ForceInfo>

; 1262 : 			this->_Mylast = this->_Myfirst;
; 1263 : 			this->_Myend = this->_Myfirst + _Capacity;

  00036	6b ff 0c	 imul	 edi, 12			; 0000000cH
  00039	03 f8		 add	 edi, eax
  0003b	59		 pop	 ecx
  0003c	89 06		 mov	 DWORD PTR [esi], eax
  0003e	89 46 04	 mov	 DWORD PTR [esi+4], eax
  00041	59		 pop	 ecx
  00042	89 7e 08	 mov	 DWORD PTR [esi+8], edi

; 1264 : 			}
; 1265 : 		return (true);

  00045	b0 01		 mov	 al, 1
$LN5@Buy@2:
  00047	5f		 pop	 edi
  00048	5e		 pop	 esi

; 1266 : 		}

  00049	5d		 pop	 ebp
  0004a	c2 04 00	 ret	 4
$LN18@Buy@2:
?_Buy@?$vector@UForceInfo@@V?$allocator@UForceInfo@@@std@@@std@@IAE_NI@Z ENDP ; std::vector<ForceInfo,std::allocator<ForceInfo> >::_Buy
_TEXT	ENDS
PUBLIC	??9?$_Vector_const_iterator@V?$_Vector_val@UWeaponInfo@@V?$allocator@UWeaponInfo@@@std@@@std@@@std@@QBE_NABV01@@Z ; std::_Vector_const_iterator<std::_Vector_val<WeaponInfo,std::allocator<WeaponInfo> > >::operator!=
; Function compile flags: /Ogsp
;	COMDAT ??9?$_Vector_const_iterator@V?$_Vector_val@UWeaponInfo@@V?$allocator@UWeaponInfo@@@std@@@std@@@std@@QBE_NABV01@@Z
_TEXT	SEGMENT
__Right$ = 8						; size = 4
??9?$_Vector_const_iterator@V?$_Vector_val@UWeaponInfo@@V?$allocator@UWeaponInfo@@@std@@@std@@@std@@QBE_NABV01@@Z PROC ; std::_Vector_const_iterator<std::_Vector_val<WeaponInfo,std::allocator<WeaponInfo> > >::operator!=, COMDAT
; _this$ = ecx

; 207  : 		{	// test for iterator inequality

  00000	55		 push	 ebp
  00001	8b ec		 mov	 ebp, esp

; 208  : 		return (!(*this == _Right));

  00003	8b 01		 mov	 eax, DWORD PTR [ecx]
  00005	8b 55 08	 mov	 edx, DWORD PTR __Right$[ebp]
  00008	33 c9		 xor	 ecx, ecx
  0000a	3b 02		 cmp	 eax, DWORD PTR [edx]
  0000c	0f 95 c0	 setne	 al

; 209  : 		}

  0000f	5d		 pop	 ebp
  00010	c2 04 00	 ret	 4
??9?$_Vector_const_iterator@V?$_Vector_val@UWeaponInfo@@V?$allocator@UWeaponInfo@@@std@@@std@@@std@@QBE_NABV01@@Z ENDP ; std::_Vector_const_iterator<std::_Vector_val<WeaponInfo,std::allocator<WeaponInfo> > >::operator!=
_TEXT	ENDS
PUBLIC	??9?$_Vector_const_iterator@V?$_Vector_val@UForceInfo@@V?$allocator@UForceInfo@@@std@@@std@@@std@@QBE_NABV01@@Z ; std::_Vector_const_iterator<std::_Vector_val<ForceInfo,std::allocator<ForceInfo> > >::operator!=
; Function compile flags: /Ogsp
;	COMDAT ??9?$_Vector_const_iterator@V?$_Vector_val@UForceInfo@@V?$allocator@UForceInfo@@@std@@@std@@@std@@QBE_NABV01@@Z
_TEXT	SEGMENT
__Right$ = 8						; size = 4
??9?$_Vector_const_iterator@V?$_Vector_val@UForceInfo@@V?$allocator@UForceInfo@@@std@@@std@@@std@@QBE_NABV01@@Z PROC ; std::_Vector_const_iterator<std::_Vector_val<ForceInfo,std::allocator<ForceInfo> > >::operator!=, COMDAT
; _this$ = ecx

; 207  : 		{	// test for iterator inequality

  00000	55		 push	 ebp
  00001	8b ec		 mov	 ebp, esp

; 208  : 		return (!(*this == _Right));

  00003	8b 01		 mov	 eax, DWORD PTR [ecx]
  00005	8b 55 08	 mov	 edx, DWORD PTR __Right$[ebp]
  00008	33 c9		 xor	 ecx, ecx
  0000a	3b 02		 cmp	 eax, DWORD PTR [edx]
  0000c	0f 95 c0	 setne	 al

; 209  : 		}

  0000f	5d		 pop	 ebp
  00010	c2 04 00	 ret	 4
??9?$_Vector_const_iterator@V?$_Vector_val@UForceInfo@@V?$allocator@UForceInfo@@@std@@@std@@@std@@QBE_NABV01@@Z ENDP ; std::_Vector_const_iterator<std::_Vector_val<ForceInfo,std::allocator<ForceInfo> > >::operator!=
_TEXT	ENDS
PUBLIC	??$_Dest_val@V?$allocator@UForceInfo@@@std@@UForceInfo@@@std@@YAXAAV?$allocator@UForceInfo@@@0@PAUForceInfo@@@Z ; std::_Dest_val<std::allocator<ForceInfo>,ForceInfo>
; Function compile flags: /Ogsp
; File c:\program files (x86)\microsoft visual studio 10.0\vc\include\xmemory
;	COMDAT ??$_Dest_val@V?$allocator@UForceInfo@@@std@@UForceInfo@@@std@@YAXAAV?$allocator@UForceInfo@@@0@PAUForceInfo@@@Z
_TEXT	SEGMENT
__Alval$ = 8						; size = 4
__Pdest$ = 12						; size = 4
??$_Dest_val@V?$allocator@UForceInfo@@@std@@UForceInfo@@@std@@YAXAAV?$allocator@UForceInfo@@@0@PAUForceInfo@@@Z PROC ; std::_Dest_val<std::allocator<ForceInfo>,ForceInfo>, COMDAT

; 287  : 	_Alval.destroy(_Pdest);
; 288  : 	}

  00000	c3		 ret	 0
??$_Dest_val@V?$allocator@UForceInfo@@@std@@UForceInfo@@@std@@YAXAAV?$allocator@UForceInfo@@@0@PAUForceInfo@@@Z ENDP ; std::_Dest_val<std::allocator<ForceInfo>,ForceInfo>
_TEXT	ENDS
PUBLIC	?destroy@?$allocator@UWeaponInfo@@@std@@QAEXPAUWeaponInfo@@@Z ; std::allocator<WeaponInfo>::destroy
; Function compile flags: /Ogsp
;	COMDAT ?destroy@?$allocator@UWeaponInfo@@@std@@QAEXPAUWeaponInfo@@@Z
_TEXT	SEGMENT
__Ptr$ = 8						; size = 4
?destroy@?$allocator@UWeaponInfo@@@std@@QAEXPAUWeaponInfo@@@Z PROC ; std::allocator<WeaponInfo>::destroy, COMDAT
; _this$ = ecx

; 212  : 		{	// destroy object at _Ptr

  00000	55		 push	 ebp
  00001	8b ec		 mov	 ebp, esp

; 213  : 		_Destroy(_Ptr);

  00003	8b 4d 08	 mov	 ecx, DWORD PTR __Ptr$[ebp]
  00006	83 c1 08	 add	 ecx, 8
  00009	ff 15 00 00 00
	00		 call	 DWORD PTR __imp_??1ioHashString@@QAE@XZ

; 214  : 		}

  0000f	5d		 pop	 ebp
  00010	c2 04 00	 ret	 4
?destroy@?$allocator@UWeaponInfo@@@std@@QAEXPAUWeaponInfo@@@Z ENDP ; std::allocator<WeaponInfo>::destroy
_TEXT	ENDS
PUBLIC	?OnSkillStart@ioChargingFireSkill@@UAE_NPAVioBaseChar@@@Z ; ioChargingFireSkill::OnSkillStart
EXTRN	?SetSkillNameChatBubble@ioSkill@@IAEXPAVioBaseChar@@@Z:PROC ; ioSkill::SetSkillNameChatBubble
EXTRN	?CheckSkillDesc@ioSkill@@IAEXPAVioBaseChar@@@Z:PROC ; ioSkill::CheckSkillDesc
EXTRN	?SetCameraBuff@ioSkill@@IAEXPAVioBaseChar@@@Z:PROC ; ioSkill::SetCameraBuff
EXTRN	?SetSkillProtection@ioBaseChar@@QAEXXZ:PROC	; ioBaseChar::SetSkillProtection
EXTRN	?IncreaseWeaponIndexBase@ioBaseChar@@QAEKXZ:PROC ; ioBaseChar::IncreaseWeaponIndexBase
; Function compile flags: /Ogsp
; File d:\lost saga for developer\youtube\tutorial\source\src\lsclient\iochargingfireskill.cpp
;	COMDAT ?OnSkillStart@ioChargingFireSkill@@UAE_NPAVioBaseChar@@@Z
_TEXT	SEGMENT
_value$556719 = -4					; size = 4
_value$556715 = -4					; size = 4
_value$556737 = 8					; size = 4
_pChar$ = 8						; size = 4
_value$556724 = 11					; size = 1
?OnSkillStart@ioChargingFireSkill@@UAE_NPAVioBaseChar@@@Z PROC ; ioChargingFireSkill::OnSkillStart, COMDAT
; _this$ = ecx

; 129  : {	

  00000	55		 push	 ebp
  00001	8b ec		 mov	 ebp, esp
  00003	51		 push	 ecx
  00004	56		 push	 esi
  00005	8b f1		 mov	 esi, ecx

; 130  : 	if( !HasSkillMotion() )

  00007	8b 06		 mov	 eax, DWORD PTR [esi]
  00009	ff 90 24 01 00
	00		 call	 DWORD PTR [eax+292]
  0000f	84 c0		 test	 al, al
  00011	0f 84 4e 01 00
	00		 je	 $LN7@OnSkillSta
$LN6@OnSkillSta:

; 131  : 		return false;
; 132  : 
; 133  : 	m_dwPreActionEndTime = 0;
; 134  : 	m_dwLoopStartTime = 0;
; 135  : 	m_dwAttackEndTime = 0;
; 136  : 	m_dwMotionEndTime = 0;
; 137  : 	m_dwFireStartTime = 0;
; 138  : 
; 139  : 	m_dwChargingEffect = -1;
; 140  : 
; 141  : 	m_dwEnableSwitchTime = 0;
; 142  : 	m_dwEnableSemiSwitchTime = 0;
; 143  : 
; 144  : 	m_fCurChargeRate = 0.0f;

  00017	0f 57 c0	 xorps	 xmm0, xmm0
  0001a	83 8e 28 10 00
	00 ff		 or	 DWORD PTR [esi+4136], -1
  00021	53		 push	 ebx
  00022	33 db		 xor	 ebx, ebx
  00024	57		 push	 edi
  00025	8d 45 fc	 lea	 eax, DWORD PTR _value$556715[ebp]
  00028	50		 push	 eax
  00029	8d 8e a4 09 00
	00		 lea	 ecx, DWORD PTR [esi+2468]
  0002f	89 9e 08 10 00
	00		 mov	 DWORD PTR [esi+4104], ebx
  00035	89 9e 0c 10 00
	00		 mov	 DWORD PTR [esi+4108], ebx
  0003b	89 9e 14 10 00
	00		 mov	 DWORD PTR [esi+4116], ebx
  00041	89 9e d8 02 00
	00		 mov	 DWORD PTR [esi+728], ebx
  00047	89 9e f0 0f 00
	00		 mov	 DWORD PTR [esi+4080], ebx
  0004d	89 9e 5c 03 00
	00		 mov	 DWORD PTR [esi+860], ebx
  00053	89 9e 64 03 00
	00		 mov	 DWORD PTR [esi+868], ebx
  00059	f3 0f 11 45 fc	 movss	 DWORD PTR _value$556715[ebp], xmm0
  0005e	e8 00 00 00 00	 call	 ?EncryptValueToPool@?$CEncrypt@M@@AAEXPBD@Z ; CEncrypt<float>::EncryptValueToPool

; 145  : 
; 146  : 	if( m_dwSwitchSkill > 0 )

  00063	8b 3d 00 00 00
	00		 mov	 edi, DWORD PTR __imp_?GetSingleton@ioFrameTimer@@SAAAV1@XZ
  00069	39 9e 58 03 00
	00		 cmp	 DWORD PTR [esi+856], ebx
  0006f	76 16		 jbe	 SHORT $LN5@OnSkillSta

; 147  : 		m_dwEnableSwitchTime = FRAMEGETTIME() + m_dwSwitchSkill;

  00071	ff d7		 call	 edi
  00073	8b c8		 mov	 ecx, eax
  00075	ff 15 00 00 00
	00		 call	 DWORD PTR __imp_?GetLoopSec@ioFrameTimer@@QBEKXZ
  0007b	03 86 58 03 00
	00		 add	 eax, DWORD PTR [esi+856]
  00081	89 86 5c 03 00
	00		 mov	 DWORD PTR [esi+860], eax
$LN5@OnSkillSta:

; 148  : 	if( m_dwSemiSwitchSkill > 0 )

  00087	39 9e 60 03 00
	00		 cmp	 DWORD PTR [esi+864], ebx
  0008d	76 16		 jbe	 SHORT $LN4@OnSkillSta

; 149  : 		m_dwEnableSemiSwitchTime = FRAMEGETTIME() + m_dwSemiSwitchSkill;

  0008f	ff d7		 call	 edi
  00091	8b c8		 mov	 ecx, eax
  00093	ff 15 00 00 00
	00		 call	 DWORD PTR __imp_?GetLoopSec@ioFrameTimer@@QBEKXZ
  00099	03 86 60 03 00
	00		 add	 eax, DWORD PTR [esi+864]
  0009f	89 86 64 03 00
	00		 mov	 DWORD PTR [esi+868], eax
$LN4@OnSkillSta:

; 150  : 
; 151  : 	m_dwSkillStartTime = FRAMEGETTIME();

  000a5	ff d7		 call	 edi
  000a7	8b c8		 mov	 ecx, eax
  000a9	ff 15 00 00 00
	00		 call	 DWORD PTR __imp_?GetLoopSec@ioFrameTimer@@QBEKXZ
  000af	89 45 fc	 mov	 DWORD PTR _value$556719[ebp], eax
  000b2	8d 45 fc	 lea	 eax, DWORD PTR _value$556719[ebp]
  000b5	50		 push	 eax
  000b6	8d 8e 94 0e 00
	00		 lea	 ecx, DWORD PTR [esi+3732]
  000bc	e8 00 00 00 00	 call	 ?EncryptValueToPool@?$CEncrypt@K@@AAEXPBD@Z ; CEncrypt<unsigned long>::EncryptValueToPool

; 152  : 
; 153  : 	pChar->AttachEffect( m_SkillEffectName );

  000c1	8b 7d 08	 mov	 edi, DWORD PTR _pChar$[ebp]
  000c4	6a 01		 push	 1
  000c6	53		 push	 ebx
  000c7	8d 86 b8 01 00
	00		 lea	 eax, DWORD PTR [esi+440]
  000cd	50		 push	 eax
  000ce	8b cf		 mov	 ecx, edi
  000d0	e8 00 00 00 00	 call	 ?AttachEffect@ioBaseChar@@QAEPAVioEffect@@ABVioHashString@@PAVioEntityEvent@@_N@Z ; ioBaseChar::AttachEffect

; 154  : 
; 155  : 	//    
; 156  : 	if( m_bUseItemMesh )

  000d5	38 9e 08 0f 00
	00		 cmp	 BYTE PTR [esi+3848], bl
  000db	74 09		 je	 SHORT $LN3@OnSkillSta

; 157  : 	{
; 158  : 		pChar->ShowWeaponItemMesh( false );

  000dd	53		 push	 ebx
  000de	53		 push	 ebx
  000df	8b cf		 mov	 ecx, edi
  000e1	e8 00 00 00 00	 call	 ?ShowWeaponItemMesh@ioBaseChar@@QAEX_N0@Z ; ioBaseChar::ShowWeaponItemMesh
$LN3@OnSkillSta:

; 159  : 	}
; 160  : 
; 161  : 	m_dwWeaponBaseIndex = pChar->IncreaseWeaponIndexBase();

  000e6	8b cf		 mov	 ecx, edi
  000e8	e8 00 00 00 00	 call	 ?IncreaseWeaponIndexBase@ioBaseChar@@QAEKXZ ; ioBaseChar::IncreaseWeaponIndexBase

; 162  : 	pChar->SetSkillProtection();

  000ed	8b cf		 mov	 ecx, edi
  000ef	89 46 78	 mov	 DWORD PTR [esi+120], eax
  000f2	e8 00 00 00 00	 call	 ?SetSkillProtection@ioBaseChar@@QAEXXZ ; ioBaseChar::SetSkillProtection

; 163  : 
; 164  : 	SetCameraBuff( pChar );

  000f7	57		 push	 edi
  000f8	8b ce		 mov	 ecx, esi
  000fa	e8 00 00 00 00	 call	 ?SetCameraBuff@ioSkill@@IAEXPAVioBaseChar@@@Z ; ioSkill::SetCameraBuff

; 165  : 
; 166  : 	CheckSkillDesc( pChar );

  000ff	57		 push	 edi
  00100	8b ce		 mov	 ecx, esi
  00102	e8 00 00 00 00	 call	 ?CheckSkillDesc@ioSkill@@IAEXPAVioBaseChar@@@Z ; ioSkill::CheckSkillDesc

; 167  : 
; 168  : 	if( m_bInitJumpPower )

  00107	8d 45 0b	 lea	 eax, DWORD PTR _value$556724[ebp]
  0010a	50		 push	 eax
  0010b	8d 8e f4 05 00
	00		 lea	 ecx, DWORD PTR [esi+1524]
  00111	e8 00 00 00 00	 call	 ?DecryptValueToPool@?$CEncrypt@_N@@QAEXPA_N@Z ; CEncrypt<bool>::DecryptValueToPool
  00116	38 5d 0b	 cmp	 BYTE PTR _value$556724[ebp], bl
  00119	74 1f		 je	 SHORT $LN19@OnSkillSta

; 169  : 	{
; 170  : 		pChar->SetCurJumpPowerAmt( 0.0f );

  0011b	0f 57 c0	 xorps	 xmm0, xmm0

; 171  : 		pChar->SetGravityAmt( 0.0f );

  0011e	8d 45 08	 lea	 eax, DWORD PTR _value$556737[ebp]
  00121	50		 push	 eax
  00122	8d 8f e8 0b 00
	00		 lea	 ecx, DWORD PTR [edi+3048]
  00128	f3 0f 11 87 90
	0e 00 00	 movss	 DWORD PTR [edi+3728], xmm0
  00130	f3 0f 11 45 08	 movss	 DWORD PTR _value$556737[ebp], xmm0
  00135	e8 00 00 00 00	 call	 ?EncryptValueToPool@?$CEncrypt@M@@AAEXPBD@Z ; CEncrypt<float>::EncryptValueToPool
$LN19@OnSkillSta:

; 172  : 	}
; 173  : 
; 174  : 	CheckCharMoveDir( pChar );

  0013a	57		 push	 edi
  0013b	8b ce		 mov	 ecx, esi
  0013d	e8 00 00 00 00	 call	 ?CheckCharMoveDir@ioChargingFireSkill@@IAEXPAVioBaseChar@@@Z ; ioChargingFireSkill::CheckCharMoveDir

; 175  : 
; 176  : 	if( !StartPreDelayAnimation( pChar ) )	// Delay Animation 

  00142	8b 06		 mov	 eax, DWORD PTR [esi]
  00144	57		 push	 edi
  00145	8b ce		 mov	 ecx, esi
  00147	ff 90 88 01 00
	00		 call	 DWORD PTR [eax+392]
  0014d	84 c0		 test	 al, al
  0014f	75 08		 jne	 SHORT $LN1@OnSkillSta

; 177  : 	{
; 178  : 		SetPreActionState( pChar );

  00151	57		 push	 edi
  00152	8b ce		 mov	 ecx, esi
  00154	e8 00 00 00 00	 call	 ?SetPreActionState@ioChargingFireSkill@@IAEXPAVioBaseChar@@@Z ; ioChargingFireSkill::SetPreActionState
$LN1@OnSkillSta:

; 179  : 	}
; 180  : 
; 181  : 	SetSkillNameChatBubble( pChar );

  00159	57		 push	 edi
  0015a	8b ce		 mov	 ecx, esi
  0015c	e8 00 00 00 00	 call	 ?SetSkillNameChatBubble@ioSkill@@IAEXPAVioBaseChar@@@Z ; ioSkill::SetSkillNameChatBubble
  00161	5f		 pop	 edi

; 182  : 
; 183  : 	return true;

  00162	b0 01		 mov	 al, 1
  00164	5b		 pop	 ebx
$LN7@OnSkillSta:
  00165	5e		 pop	 esi

; 184  : }

  00166	c9		 leave
  00167	c2 04 00	 ret	 4
?OnSkillStart@ioChargingFireSkill@@UAE_NPAVioBaseChar@@@Z ENDP ; ioChargingFireSkill::OnSkillStart
_TEXT	ENDS
PUBLIC	_pChar$GSCopy$
PUBLIC	__$ArrayPad$
PUBLIC	?SetActionState@ioChargingFireSkill@@IAEXPAVioBaseChar@@PAVioPlayStage@@_N@Z ; ioChargingFireSkill::SetActionState
EXTRN	??1SP2Packet@@UAE@XZ:PROC			; SP2Packet::~SP2Packet
EXTRN	?SendToAllPlayingUser@P2PNetwork@@YAXAAVSP2Packet@@PAVioBaseChar@@@Z:PROC ; P2PNetwork::SendToAllPlayingUser
EXTRN	??6SP2Packet@@QAEAAV0@ABUD3DXQUATERNION@@@Z:PROC ; SP2Packet::operator<<
EXTRN	??6SP2Packet@@QAEAAV0@ABUD3DXVECTOR3@@@Z:PROC	; SP2Packet::operator<<
EXTRN	??6SP2Packet@@QAEAAV0@H@Z:PROC			; SP2Packet::operator<<
EXTRN	??6SP2Packet@@QAEAAV0@ABVioHashString@@@Z:PROC	; SP2Packet::operator<<
EXTRN	??0SP2Packet@@QAE@K@Z:PROC			; SP2Packet::SP2Packet
EXTRN	?ReduceNeedGaugeBySkill@ioBaseChar@@QAEMPAVioSkill@@M@Z:PROC ; ioBaseChar::ReduceNeedGaugeBySkill
EXTRN	?GetNeedGauge@ioSkill@@QAEMABVioHashString@@@Z:PROC ; ioSkill::GetNeedGauge
EXTRN	?GetSingleConvertTeam@ioBaseChar@@QAE?AW4TeamType@@XZ:PROC ; ioBaseChar::GetSingleConvertTeam
EXTRN	?GetMagicCirclePos@ioBaseGUISupport@@QBE?AUD3DXVECTOR3@@M_N@Z:PROC ; ioBaseGUISupport::GetMagicCirclePos
EXTRN	?UpdateMagicCirclePos@ioBaseGUISupport@@QAEXMMM_N0@Z:PROC ; ioBaseGUISupport::UpdateMagicCirclePos
EXTRN	?CheckMagicCircleVisible@ioBaseGUISupport@@QAEX_N@Z:PROC ; ioBaseGUISupport::CheckMagicCircleVisible
EXTRN	?RefreshFireTimeListWithBase@ioBaseChar@@QAEXKHABV?$vector@UWeaponInfo@@V?$allocator@UWeaponInfo@@@std@@@std@@W4FireTimeType@@MK_N@Z:PROC ; ioBaseChar::RefreshFireTimeListWithBase
EXTRN	__chkstk:PROC
;	COMDAT xdata$x
; File d:\lost saga for developer\youtube\tutorial\source\src\lsclient\iobasechar.h
xdata$x	SEGMENT
__ehfuncinfo$?SetActionState@ioChargingFireSkill@@IAEXPAVioBaseChar@@PAVioPlayStage@@_N@Z DD 019930522H
	DD	05H
	DD	FLAT:__unwindtable$?SetActionState@ioChargingFireSkill@@IAEXPAVioBaseChar@@PAVioPlayStage@@_N@Z
	DD	2 DUP(00H)
	DD	2 DUP(00H)
	DD	00H
	DD	01H
__unwindtable$?SetActionState@ioChargingFireSkill@@IAEXPAVioBaseChar@@PAVioPlayStage@@_N@Z DD 0ffffffffH
	DD	FLAT:__unwindfunclet$?SetActionState@ioChargingFireSkill@@IAEXPAVioBaseChar@@PAVioPlayStage@@_N@Z$1
	DD	0ffffffffH
	DD	FLAT:__unwindfunclet$?SetActionState@ioChargingFireSkill@@IAEXPAVioBaseChar@@PAVioPlayStage@@_N@Z$2
	DD	0ffffffffH
	DD	FLAT:__unwindfunclet$?SetActionState@ioChargingFireSkill@@IAEXPAVioBaseChar@@PAVioPlayStage@@_N@Z$3
	DD	0ffffffffH
	DD	FLAT:__unwindfunclet$?SetActionState@ioChargingFireSkill@@IAEXPAVioBaseChar@@PAVioPlayStage@@_N@Z$4
	DD	0ffffffffH
	DD	FLAT:__unwindfunclet$?SetActionState@ioChargingFireSkill@@IAEXPAVioBaseChar@@PAVioPlayStage@@_N@Z$0
; Function compile flags: /Ogsp
; File d:\lost saga for developer\youtube\tutorial\source\src\lsclient\iochargingfireskill.cpp
xdata$x	ENDS
;	COMDAT ?SetActionState@ioChargingFireSkill@@IAEXPAVioBaseChar@@PAVioPlayStage@@_N@Z
_TEXT	SEGMENT
$T556744 = -32904					; size = 12
_dwCurTime$ = -32892					; size = 4
_pChar$GSCopy$ = -32888					; size = 4
tv4347 = -32884						; size = 4
tv4345 = -32884						; size = 4
tv4342 = -32884						; size = 4
tv4340 = -32884						; size = 4
tv4338 = -32880						; size = 4
tv4291 = -32880						; size = 4
tv4273 = -32880						; size = 4
tv4255 = -32880						; size = 4
$T556795 = -32880					; size = 4
_iAniID$ = -32876					; size = 4
_pGrp$ = -32872						; size = 4
_value$556771 = -32868					; size = 4
_value$556758 = -32868					; size = 4
_value$556754 = -32868					; size = 4
_dwPreDelay$ = -32868					; size = 4
_pMapEffect$ = -32864					; size = 4
_fAniRate$ = -32864					; size = 4
_value$557331 = -32860					; size = 1
tv4381 = -32860						; size = 4
tv4378 = -32860						; size = 4
tv4372 = -32860						; size = 4
tv4364 = -32860						; size = 4
tv4360 = -32860						; size = 4
tv4355 = -32860						; size = 4
tv4336 = -32860						; size = 4
tv4305 = -32860						; size = 4
tv4288 = -32860						; size = 4
tv4270 = -32860						; size = 4
tv4252 = -32860						; size = 4
_value$557342 = -32860					; size = 4
_value$557357 = -32860					; size = 4
$T557217 = -32860					; size = 4
$T557087 = -32860					; size = 4
$T557055 = -32860					; size = 4
$T556925 = -32860					; size = 4
_value$556807 = -32860					; size = 4
$T556799 = -32860					; size = 4
_fAttackEnd$ = -32860					; size = 4
_fFireStart$ = -32860					; size = 4
_fReserveTime$ = -32860					; size = 4
$T556742 = -32860					; size = 4
_kPacket$548426 = -32856				; size = 32792
_szEncEventType$557101 = -64				; size = 7
$T556743 = -64						; size = 12
$T557218 = -52						; size = 16
$T557056 = -52						; size = 16
_szEncEventType$556826 = -52				; size = 13
$T556745 = -48						; size = 12
_szEncEventType$557231 = -32				; size = 11
$T557088 = -32						; size = 16
_szEncEventType$556956 = -32				; size = 12
$T556926 = -32						; size = 16
$T556746 = -28						; size = 12
$T548410 = -28						; size = 12
__$ArrayPad$ = -16					; size = 4
__$EHRec$ = -12						; size = 12
_pChar$ = 8						; size = 4
_pStage$ = 12						; size = 4
_bSend$ = 16						; size = 1
?SetActionState@ioChargingFireSkill@@IAEXPAVioBaseChar@@PAVioPlayStage@@_N@Z PROC ; ioChargingFireSkill::SetActionState, COMDAT
; _this$ = ecx

; 429  : {

  00000	55		 push	 ebp
  00001	8b ec		 mov	 ebp, esp
  00003	6a ff		 push	 -1
  00005	68 00 00 00 00	 push	 __ehhandler$?SetActionState@ioChargingFireSkill@@IAEXPAVioBaseChar@@PAVioPlayStage@@_N@Z
  0000a	64 a1 00 00 00
	00		 mov	 eax, DWORD PTR fs:0
  00010	50		 push	 eax
  00011	b8 7c 80 00 00	 mov	 eax, 32892		; 0000807cH
  00016	e8 00 00 00 00	 call	 __chkstk
  0001b	a1 00 00 00 00	 mov	 eax, DWORD PTR ___security_cookie
  00020	33 c5		 xor	 eax, ebp
  00022	89 45 f0	 mov	 DWORD PTR __$ArrayPad$[ebp], eax
  00025	53		 push	 ebx
  00026	56		 push	 esi
  00027	57		 push	 edi
  00028	50		 push	 eax
  00029	8d 45 f4	 lea	 eax, DWORD PTR __$EHRec$[ebp]
  0002c	64 a3 00 00 00
	00		 mov	 DWORD PTR fs:0, eax
  00032	8b 45 08	 mov	 eax, DWORD PTR _pChar$[ebp]
  00035	8b d9		 mov	 ebx, ecx

; 549  : 	{
; 550  : 		SP2Packet kPacket( CUPK_SKILL_EXTRA_INFO );

  00037	89 85 88 7f ff
	ff		 mov	 DWORD PTR _pChar$GSCopy$[ebp], eax
  0003d	85 c0		 test	 eax, eax
  0003f	0f 84 02 09 00
	00		 je	 $LN1@SetActionS

; 430  : 	if( !pChar ) return;
; 431  : 	ioEntityGroup *pGrp = pChar->GetGroup();

  00045	8b 40 04	 mov	 eax, DWORD PTR [eax+4]
  00048	89 85 98 7f ff
	ff		 mov	 DWORD PTR _pGrp$[ebp], eax

; 432  : 
; 433  : 	if( m_State == SS_ACTION )

  0004e	8d 85 9c 7f ff
	ff		 lea	 eax, DWORD PTR _value$556754[ebp]
  00054	50		 push	 eax
  00055	8d 8b 58 0f 00
	00		 lea	 ecx, DWORD PTR [ebx+3928]
  0005b	e8 00 00 00 00	 call	 ?DecryptValueToPool@?$CEncrypt@H@@QAEXPAH@Z ; CEncrypt<int>::DecryptValueToPool
  00060	83 bd 9c 7f ff
	ff 03		 cmp	 DWORD PTR _value$556754[ebp], 3
  00067	0f 84 da 08 00
	00		 je	 $LN1@SetActionS

; 434  : 		return;
; 435  : 
; 436  : 	DWORD dwCurTime = FRAMEGETTIME();

  0006d	ff 15 00 00 00
	00		 call	 DWORD PTR __imp_?GetSingleton@ioFrameTimer@@SAAAV1@XZ
  00073	8b c8		 mov	 ecx, eax
  00075	ff 15 00 00 00
	00		 call	 DWORD PTR __imp_?GetLoopSec@ioFrameTimer@@QBEKXZ
  0007b	8b f8		 mov	 edi, eax

; 437  : 	m_State = SS_ACTION;

  0007d	8d 85 9c 7f ff
	ff		 lea	 eax, DWORD PTR _value$556758[ebp]
  00083	50		 push	 eax
  00084	8d 8b 58 0f 00
	00		 lea	 ecx, DWORD PTR [ebx+3928]
  0008a	89 bd 84 7f ff
	ff		 mov	 DWORD PTR _dwCurTime$[ebp], edi
  00090	c7 85 9c 7f ff
	ff 03 00 00 00	 mov	 DWORD PTR _value$556758[ebp], 3
  0009a	e8 00 00 00 00	 call	 ?EncryptValueToPool@?$CEncrypt@H@@AAEXPBD@Z ; CEncrypt<int>::EncryptValueToPool

; 438  : 
; 439  : 	// Charging Rate
; 440  : 	DWORD dwGapTime = dwCurTime - m_dwLoopStartTime;

  0009f	8b 8b 0c 10 00
	00		 mov	 ecx, DWORD PTR [ebx+4108]
  000a5	8b c7		 mov	 eax, edi
  000a7	2b c1		 sub	 eax, ecx

; 441  : 	if( m_dwLoopStartTime > 0 && m_dwMaxChargingTime > 0 )

  000a9	85 c9		 test	 ecx, ecx
  000ab	74 71		 je	 SHORT $LN37@SetActionS
  000ad	8b 8b ec 0f 00
	00		 mov	 ecx, DWORD PTR [ebx+4076]
  000b3	85 c9		 test	 ecx, ecx
  000b5	74 67		 je	 SHORT $LN37@SetActionS

; 442  : 	{
; 443  : 		if( m_dwMaxChargingTime > dwGapTime )

  000b7	3b c8		 cmp	 ecx, eax
  000b9	76 30		 jbe	 SHORT $LN20@SetActionS

; 444  : 			m_fCurChargeRate = (float)dwGapTime / m_dwMaxChargingTime;

  000bb	89 85 a4 7f ff
	ff		 mov	 DWORD PTR tv4381[ebp], eax
  000c1	db 85 a4 7f ff
	ff		 fild	 DWORD PTR tv4381[ebp]
  000c7	85 c0		 test	 eax, eax
  000c9	79 06		 jns	 SHORT $LN534@SetActionS
  000cb	d8 05 00 00 00
	00		 fadd	 DWORD PTR __real@4f800000
$LN534@SetActionS:
  000d1	89 8d a4 7f ff
	ff		 mov	 DWORD PTR tv4378[ebp], ecx
  000d7	db 85 a4 7f ff
	ff		 fild	 DWORD PTR tv4378[ebp]
  000dd	85 c9		 test	 ecx, ecx
  000df	79 06		 jns	 SHORT $LN535@SetActionS
  000e1	d8 05 00 00 00
	00		 fadd	 DWORD PTR __real@4f800000
$LN535@SetActionS:
  000e7	de f9		 fdivp	 ST(1), ST(0)

; 445  : 		else

  000e9	eb 1b		 jmp	 SHORT $LN536@SetActionS
$LN20@SetActionS:

; 446  : 			m_fCurChargeRate = FLOAT1;

  000eb	b8 01 00 00 00	 mov	 eax, 1
  000f0	89 85 a4 7f ff
	ff		 mov	 DWORD PTR tv4372[ebp], eax
  000f6	db 85 a4 7f ff
	ff		 fild	 DWORD PTR tv4372[ebp]
  000fc	85 c0		 test	 eax, eax
  000fe	79 06		 jns	 SHORT $LN536@SetActionS
  00100	d8 05 00 00 00
	00		 fadd	 DWORD PTR __real@4f800000
$LN536@SetActionS:
  00106	8d 85 9c 7f ff
	ff		 lea	 eax, DWORD PTR _value$556771[ebp]
  0010c	d9 9d 9c 7f ff
	ff		 fstp	 DWORD PTR _value$556771[ebp]
  00112	50		 push	 eax
  00113	8d 8b a4 09 00
	00		 lea	 ecx, DWORD PTR [ebx+2468]
  00119	e8 00 00 00 00	 call	 ?EncryptValueToPool@?$CEncrypt@M@@AAEXPBD@Z ; CEncrypt<float>::EncryptValueToPool
$LN37@SetActionS:

; 447  : 	}
; 448  : 
; 449  : 	int iAniID = pGrp->GetAnimationIdx( m_AttackAttribute.m_AttackAnimation );

  0011e	8b 8d 98 7f ff
	ff		 mov	 ecx, DWORD PTR _pGrp$[ebp]
  00124	8d 83 88 0f 00
	00		 lea	 eax, DWORD PTR [ebx+3976]
  0012a	50		 push	 eax
  0012b	ff 15 00 00 00
	00		 call	 DWORD PTR __imp_?GetAnimationIdx@ioEntityGroup@@QAEHABVioHashString@@@Z

; 450  : 	float fAniRate = m_AttackAttribute.m_fAttackAniRate;

  00131	f3 0f 10 83 98
	0f 00 00	 movss	 xmm0, DWORD PTR [ebx+3992]

; 451  : 	if( fAniRate <= 0.0f )

  00139	0f 57 c9	 xorps	 xmm1, xmm1
  0013c	0f 2f c8	 comiss	 xmm1, xmm0
  0013f	89 85 94 7f ff
	ff		 mov	 DWORD PTR _iAniID$[ebp], eax
  00145	f3 0f 11 85 a0
	7f ff ff	 movss	 DWORD PTR _fAniRate$[ebp], xmm0
  0014d	72 21		 jb	 SHORT $LN18@SetActionS

; 452  : 		fAniRate = FLOAT1;

  0014f	b8 01 00 00 00	 mov	 eax, 1
  00154	89 85 a4 7f ff
	ff		 mov	 DWORD PTR tv4364[ebp], eax
  0015a	db 85 a4 7f ff
	ff		 fild	 DWORD PTR tv4364[ebp]
  00160	85 c0		 test	 eax, eax
  00162	79 06		 jns	 SHORT $LN537@SetActionS
  00164	d8 05 00 00 00
	00		 fadd	 DWORD PTR __real@4f800000
$LN537@SetActionS:
  0016a	d9 9d a0 7f ff
	ff		 fstp	 DWORD PTR _fAniRate$[ebp]
$LN18@SetActionS:

; 453  : 
; 454  : 	DWORD dwPreDelay = m_AttackAttribute.m_dwPreDelay;

  00170	8b b3 d0 0f 00
	00		 mov	 esi, DWORD PTR [ebx+4048]
  00176	89 b5 9c 7f ff
	ff		 mov	 DWORD PTR _dwPreDelay$[ebp], esi

; 455  : 
; 456  : 	pGrp->ClearAllActionAni( FLOAT100, true );

  0017c	b8 64 00 00 00	 mov	 eax, 100		; 00000064H
  00181	89 85 a4 7f ff
	ff		 mov	 DWORD PTR tv4360[ebp], eax
  00187	db 85 a4 7f ff
	ff		 fild	 DWORD PTR tv4360[ebp]
  0018d	6a 01		 push	 1
  0018f	85 c0		 test	 eax, eax
  00191	79 06		 jns	 SHORT $LN538@SetActionS
  00193	d8 05 00 00 00
	00		 fadd	 DWORD PTR __real@4f800000
$LN538@SetActionS:
  00199	51		 push	 ecx
  0019a	8b 8d 98 7f ff
	ff		 mov	 ecx, DWORD PTR _pGrp$[ebp]
  001a0	d9 1c 24	 fstp	 DWORD PTR [esp]
  001a3	ff 15 00 00 00
	00		 call	 DWORD PTR __imp_?ClearAllActionAni@ioEntityGroup@@QAEXM_N@Z

; 457  : 	pGrp->ClearAllLoopAni( FLOAT100, true );

  001a9	b8 64 00 00 00	 mov	 eax, 100		; 00000064H
  001ae	89 85 a4 7f ff
	ff		 mov	 DWORD PTR tv4355[ebp], eax
  001b4	db 85 a4 7f ff
	ff		 fild	 DWORD PTR tv4355[ebp]
  001ba	6a 01		 push	 1
  001bc	85 c0		 test	 eax, eax
  001be	79 06		 jns	 SHORT $LN539@SetActionS
  001c0	d8 05 00 00 00
	00		 fadd	 DWORD PTR __real@4f800000
$LN539@SetActionS:
  001c6	51		 push	 ecx
  001c7	8b 8d 98 7f ff
	ff		 mov	 ecx, DWORD PTR _pGrp$[ebp]
  001cd	d9 1c 24	 fstp	 DWORD PTR [esp]
  001d0	ff 15 00 00 00
	00		 call	 DWORD PTR __imp_?ClearAllLoopAni@ioEntityGroup@@QAEXM_N@Z

; 458  : 
; 459  : 	if( iAniID != -1 )

  001d6	83 bd 94 7f ff
	ff ff		 cmp	 DWORD PTR _iAniID$[ebp], -1
  001dd	0f 84 db 00 00
	00		 je	 $LN17@SetActionS

; 460  : 		pGrp->SetActionAni( iAniID, FLOAT100, FLOAT100, FLOAT1, FLOAT1/fAniRate, 0.0f, dwPreDelay, true );

  001e3	b8 01 00 00 00	 mov	 eax, 1
  001e8	8b c8		 mov	 ecx, eax
  001ea	b8 01 00 00 00	 mov	 eax, 1
  001ef	8b d0		 mov	 edx, eax
  001f1	b8 64 00 00 00	 mov	 eax, 100		; 00000064H
  001f6	89 85 90 7f ff
	ff		 mov	 DWORD PTR $T556795[ebp], eax
  001fc	b8 64 00 00 00	 mov	 eax, 100		; 00000064H
  00201	89 85 a4 7f ff
	ff		 mov	 DWORD PTR $T556799[ebp], eax
  00207	8b c6		 mov	 eax, esi
  00209	6a 01		 push	 1
  0020b	89 85 8c 7f ff
	ff		 mov	 DWORD PTR tv4347[ebp], eax
  00211	db 85 8c 7f ff
	ff		 fild	 DWORD PTR tv4347[ebp]
  00217	6a 01		 push	 1
  00219	85 c0		 test	 eax, eax
  0021b	79 06		 jns	 SHORT $LN540@SetActionS
  0021d	d8 05 00 00 00
	00		 fadd	 DWORD PTR __real@4f800000
$LN540@SetActionS:
  00223	0f 57 c0	 xorps	 xmm0, xmm0
  00226	83 ec 18	 sub	 esp, 24			; 00000018H
  00229	d9 5c 24 14	 fstp	 DWORD PTR [esp+20]
  0022d	89 8d 8c 7f ff
	ff		 mov	 DWORD PTR tv4345[ebp], ecx
  00233	db 85 8c 7f ff
	ff		 fild	 DWORD PTR tv4345[ebp]
  00239	f3 0f 11 44 24
	10		 movss	 DWORD PTR [esp+16], xmm0
  0023f	85 c9		 test	 ecx, ecx
  00241	79 06		 jns	 SHORT $LN541@SetActionS
  00243	d8 05 00 00 00
	00		 fadd	 DWORD PTR __real@4f800000
$LN541@SetActionS:
  00249	d8 b5 a0 7f ff
	ff		 fdiv	 DWORD PTR _fAniRate$[ebp]
  0024f	d9 9d 8c 7f ff
	ff		 fstp	 DWORD PTR tv4342[ebp]
  00255	d9 85 8c 7f ff
	ff		 fld	 DWORD PTR tv4342[ebp]
  0025b	d9 5c 24 0c	 fstp	 DWORD PTR [esp+12]
  0025f	89 95 8c 7f ff
	ff		 mov	 DWORD PTR tv4340[ebp], edx
  00265	db 85 8c 7f ff
	ff		 fild	 DWORD PTR tv4340[ebp]
  0026b	85 d2		 test	 edx, edx
  0026d	79 06		 jns	 SHORT $LN542@SetActionS
  0026f	d8 05 00 00 00
	00		 fadd	 DWORD PTR __real@4f800000
$LN542@SetActionS:
  00275	8b 85 90 7f ff
	ff		 mov	 eax, DWORD PTR $T556795[ebp]
  0027b	d9 5c 24 08	 fstp	 DWORD PTR [esp+8]
  0027f	db 85 90 7f ff
	ff		 fild	 DWORD PTR $T556795[ebp]
  00285	85 c0		 test	 eax, eax
  00287	79 06		 jns	 SHORT $LN543@SetActionS
  00289	d8 05 00 00 00
	00		 fadd	 DWORD PTR __real@4f800000
$LN543@SetActionS:
  0028f	8b 85 a4 7f ff
	ff		 mov	 eax, DWORD PTR $T556799[ebp]
  00295	d9 5c 24 04	 fstp	 DWORD PTR [esp+4]
  00299	db 85 a4 7f ff
	ff		 fild	 DWORD PTR $T556799[ebp]
  0029f	85 c0		 test	 eax, eax
  002a1	79 06		 jns	 SHORT $LN544@SetActionS
  002a3	d8 05 00 00 00
	00		 fadd	 DWORD PTR __real@4f800000
$LN544@SetActionS:
  002a9	8b 8d 98 7f ff
	ff		 mov	 ecx, DWORD PTR _pGrp$[ebp]
  002af	d9 1c 24	 fstp	 DWORD PTR [esp]
  002b2	ff b5 94 7f ff
	ff		 push	 DWORD PTR _iAniID$[ebp]
  002b8	ff 15 00 00 00
	00		 call	 DWORD PTR __imp_?SetActionAni@ioEntityGroup@@QAE_NHMMMMMM_N0@Z
$LN17@SetActionS:

; 461  : 
; 462  : 	// Attack
; 463  : 	if( !m_AttackAttribute.m_vWeaponInfoList.empty() )

  002be	8d 83 b0 0f 00
	00		 lea	 eax, DWORD PTR [ebx+4016]
  002c4	8b 08		 mov	 ecx, DWORD PTR [eax]
  002c6	3b 48 04	 cmp	 ecx, DWORD PTR [eax+4]
  002c9	74 28		 je	 SHORT $LN16@SetActionS

; 464  : 	{
; 465  : 		pChar->RefreshFireTimeListWithBase( m_dwWeaponBaseIndex,
; 466  : 											iAniID,
; 467  : 											m_AttackAttribute.m_vWeaponInfoList,
; 468  : 											FTT_SKILL_ATTACK,
; 469  : 											fAniRate,
; 470  : 											dwPreDelay );

  002cb	f3 0f 10 85 a0
	7f ff ff	 movss	 xmm0, DWORD PTR _fAniRate$[ebp]
  002d3	6a 00		 push	 0
  002d5	56		 push	 esi
  002d6	51		 push	 ecx
  002d7	8b 8d 88 7f ff
	ff		 mov	 ecx, DWORD PTR _pChar$GSCopy$[ebp]
  002dd	f3 0f 11 04 24	 movss	 DWORD PTR [esp], xmm0
  002e2	6a 04		 push	 4
  002e4	50		 push	 eax
  002e5	ff b5 94 7f ff
	ff		 push	 DWORD PTR _iAniID$[ebp]
  002eb	ff 73 78	 push	 DWORD PTR [ebx+120]
  002ee	e8 00 00 00 00	 call	 ?RefreshFireTimeListWithBase@ioBaseChar@@QAEXKHABV?$vector@UWeaponInfo@@V?$allocator@UWeaponInfo@@@std@@@std@@W4FireTimeType@@MK_N@Z ; ioBaseChar::RefreshFireTimeListWithBase
$LN16@SetActionS:

; 471  : 	}
; 472  : 
; 473  : 	m_dwMotionStartTime = dwCurTime;

  002f3	8d 85 a4 7f ff
	ff		 lea	 eax, DWORD PTR _value$556807[ebp]
  002f9	50		 push	 eax
  002fa	8d 8b a8 02 00
	00		 lea	 ecx, DWORD PTR [ebx+680]
  00300	89 bd a4 7f ff
	ff		 mov	 DWORD PTR _value$556807[ebp], edi
  00306	e8 00 00 00 00	 call	 ?EncryptValueToPool@?$CEncrypt@K@@AAEXPBD@Z ; CEncrypt<unsigned long>::EncryptValueToPool

; 474  : 	m_dwMotionEndTime = m_dwMotionStartTime + pGrp->GetAnimationFullTime( iAniID ) * fAniRate;

  0030b	ff b5 94 7f ff
	ff		 push	 DWORD PTR _iAniID$[ebp]
  00311	8b 8d 98 7f ff
	ff		 mov	 ecx, DWORD PTR _pGrp$[ebp]
  00317	ff 15 00 00 00
	00		 call	 DWORD PTR __imp_?GetAnimationFullTime@ioEntityGroup@@QAEMH@Z
  0031d	d8 8d a0 7f ff
	ff		 fmul	 DWORD PTR _fAniRate$[ebp]
  00323	8d 85 a4 7f ff
	ff		 lea	 eax, DWORD PTR $T556742[ebp]
  00329	50		 push	 eax
  0032a	8d 8b a8 02 00
	00		 lea	 ecx, DWORD PTR [ebx+680]
  00330	d9 9d a4 7f ff
	ff		 fstp	 DWORD PTR $T556742[ebp]
  00336	e8 00 00 00 00	 call	 ??H?$CEncrypt@K@@QAEKABM@Z ; CEncrypt<unsigned long>::operator+

; 475  : 	m_dwMotionEndTime += m_dwAnimationEndDelay;

  0033b	8b 8b 54 0f 00
	00		 mov	 ecx, DWORD PTR [ebx+3924]
  00341	03 c8		 add	 ecx, eax
  00343	6a 03		 push	 3
  00345	89 8b d8 02 00
	00		 mov	 DWORD PTR [ebx+728], ecx

; 476  : 
; 477  : 	m_dwFireMotionEndTime = dwCurTime;

  0034b	89 bb 24 02 00
	00		 mov	 DWORD PTR [ebx+548], edi

; 478  : 	m_dwFireMotionEndTime += pGrp->GetAnimationEventTime_e( iAniID, "firemotion_e" ) * fAniRate;

  00351	c7 45 cc 8b 85
	99 8f		 mov	 DWORD PTR _szEncEventType$556826[ebp], -1885764213 ; 8f99858bH
  00358	c7 45 d0 80 83
	9f 83		 mov	 DWORD PTR _szEncEventType$556826[ebp+4], -2086698112 ; 839f8380H
  0035f	c7 45 d4 82 82
	b4 8f		 mov	 DWORD PTR _szEncEventType$556826[ebp+8], -1883995518 ; 8fb48282H
  00366	8d 45 cc	 lea	 eax, DWORD PTR _szEncEventType$556826[ebp]
  00369	c6 45 d8 00	 mov	 BYTE PTR _szEncEventType$556826[ebp+12], 0
  0036d	59		 pop	 ecx
$LL161@SetActionS:
  0036e	81 30 ed ec eb
	ea		 xor	 DWORD PTR [eax], -353637139 ; eaebecedH
  00374	83 c0 04	 add	 eax, 4
  00377	49		 dec	 ecx
  00378	75 f4		 jne	 SHORT $LL161@SetActionS
  0037a	8b 3d 00 00 00
	00		 mov	 edi, DWORD PTR __imp_??0ioHashString@@QAE@PBD@Z
  00380	8d 45 cc	 lea	 eax, DWORD PTR _szEncEventType$556826[ebp]
  00383	50		 push	 eax
  00384	8d 4d e0	 lea	 ecx, DWORD PTR $T556926[ebp]
  00387	ff d7		 call	 edi
  00389	8b 8d 98 7f ff
	ff		 mov	 ecx, DWORD PTR _pGrp$[ebp]
  0038f	83 65 fc 00	 and	 DWORD PTR __$EHRec$[ebp+8], 0
  00393	8d 45 e0	 lea	 eax, DWORD PTR $T556926[ebp]
  00396	50		 push	 eax
  00397	ff b5 94 7f ff
	ff		 push	 DWORD PTR _iAniID$[ebp]
  0039d	ff 15 00 00 00
	00		 call	 DWORD PTR __imp_?GetAnimationEventTime@ioEntityGroup@@QAEMHABVioHashString@@@Z
  003a3	d9 9d a4 7f ff
	ff		 fstp	 DWORD PTR $T556925[ebp]
  003a9	83 4d fc ff	 or	 DWORD PTR __$EHRec$[ebp+8], -1
  003ad	8d 4d e0	 lea	 ecx, DWORD PTR $T556926[ebp]
  003b0	ff 15 00 00 00
	00		 call	 DWORD PTR __imp_??1ioHashString@@QAE@XZ
  003b6	d9 85 a4 7f ff
	ff		 fld	 DWORD PTR $T556925[ebp]
  003bc	8b 83 24 02 00
	00		 mov	 eax, DWORD PTR [ebx+548]
  003c2	d8 8d a0 7f ff
	ff		 fmul	 DWORD PTR _fAniRate$[ebp]
  003c8	db 83 24 02 00
	00		 fild	 DWORD PTR [ebx+548]
  003ce	85 c0		 test	 eax, eax
  003d0	79 06		 jns	 SHORT $LN545@SetActionS
  003d2	dc 05 00 00 00
	00		 fadd	 QWORD PTR __real@41f0000000000000
$LN545@SetActionS:
  003d8	de c1		 faddp	 ST(1), ST(0)
  003da	e8 00 00 00 00	 call	 __ftol2
  003df	6a 02		 push	 2
  003e1	89 83 24 02 00
	00		 mov	 DWORD PTR [ebx+548], eax

; 479  : 
; 480  : 	float fReserveTime = pGrp->GetAnimationEventTime_e( iAniID, "key_reserve" ) * fAniRate;

  003e7	c7 45 e0 86 89
	92 b5		 mov	 DWORD PTR _szEncEventType$556956[ebp], -1248687738 ; b5928986H
  003ee	c7 45 e4 9f 89
	98 8f		 mov	 DWORD PTR _szEncEventType$556956[ebp+4], -1885828705 ; 8f98899fH
  003f5	8d 45 e0	 lea	 eax, DWORD PTR _szEncEventType$556956[ebp]
  003f8	c7 45 e8 9f 9a
	8e 00		 mov	 DWORD PTR _szEncEventType$556956[ebp+8], 9345695 ; 008e9a9fH
  003ff	59		 pop	 ecx
$LL268@SetActionS:
  00400	81 30 ed ec eb
	ea		 xor	 DWORD PTR [eax], -353637139 ; eaebecedH
  00406	83 c0 04	 add	 eax, 4
  00409	49		 dec	 ecx
  0040a	75 f4		 jne	 SHORT $LL268@SetActionS
  0040c	6a 08		 push	 8
  0040e	5e		 pop	 esi
$LL265@SetActionS:
  0040f	8b c6		 mov	 eax, esi
  00411	25 03 00 00 80	 and	 eax, -2147483645	; 80000003H
  00416	79 05		 jns	 SHORT $LN546@SetActionS
  00418	48		 dec	 eax
  00419	83 c8 fc	 or	 eax, -4			; fffffffcH
  0041c	40		 inc	 eax
$LN546@SetActionS:
  0041d	b1 ed		 mov	 cl, -19			; ffffffedH
  0041f	2a c8		 sub	 cl, al
  00421	30 4c 35 e0	 xor	 BYTE PTR _szEncEventType$556956[ebp+esi], cl
  00425	46		 inc	 esi
  00426	83 fe 0b	 cmp	 esi, 11			; 0000000bH
  00429	7c e4		 jl	 SHORT $LL265@SetActionS
  0042b	8d 45 e0	 lea	 eax, DWORD PTR _szEncEventType$556956[ebp]
  0042e	50		 push	 eax
  0042f	8d 4d cc	 lea	 ecx, DWORD PTR $T557056[ebp]
  00432	ff d7		 call	 edi
  00434	8b 8d 98 7f ff
	ff		 mov	 ecx, DWORD PTR _pGrp$[ebp]
  0043a	8d 45 cc	 lea	 eax, DWORD PTR $T557056[ebp]
  0043d	50		 push	 eax
  0043e	ff b5 94 7f ff
	ff		 push	 DWORD PTR _iAniID$[ebp]
  00444	c7 45 fc 01 00
	00 00		 mov	 DWORD PTR __$EHRec$[ebp+8], 1
  0044b	ff 15 00 00 00
	00		 call	 DWORD PTR __imp_?GetAnimationEventTime@ioEntityGroup@@QAEMHABVioHashString@@@Z
  00451	d9 9d a4 7f ff
	ff		 fstp	 DWORD PTR $T557055[ebp]
  00457	8b 35 00 00 00
	00		 mov	 esi, DWORD PTR __imp_??1ioHashString@@QAE@XZ
  0045d	83 4d fc ff	 or	 DWORD PTR __$EHRec$[ebp+8], -1
  00461	8d 4d cc	 lea	 ecx, DWORD PTR $T557056[ebp]
  00464	ff d6		 call	 esi
  00466	f3 0f 10 85 a4
	7f ff ff	 movss	 xmm0, DWORD PTR $T557055[ebp]
  0046e	f3 0f 10 8d a0
	7f ff ff	 movss	 xmm1, DWORD PTR _fAniRate$[ebp]
  00476	0f 5a c0	 cvtps2pd xmm0, xmm0
  00479	0f 5a c9	 cvtps2pd xmm1, xmm1
  0047c	f2 0f 59 c1	 mulsd	 xmm0, xmm1
  00480	66 0f 5a c0	 cvtpd2ps xmm0, xmm0

; 481  : 	if( fReserveTime > 0.0f )

  00484	0f 2f 05 00 00
	00 00		 comiss	 xmm0, DWORD PTR __real@00000000
  0048b	f3 0f 11 85 a4
	7f ff ff	 movss	 DWORD PTR _fReserveTime$[ebp], xmm0
  00493	76 3f		 jbe	 SHORT $LN15@SetActionS

; 482  : 	{
; 483  : 		m_dwEnableReserveTime = dwCurTime + fReserveTime +dwPreDelay;

  00495	8b 85 84 7f ff
	ff		 mov	 eax, DWORD PTR _dwCurTime$[ebp]
  0049b	db 85 84 7f ff
	ff		 fild	 DWORD PTR _dwCurTime$[ebp]
  004a1	85 c0		 test	 eax, eax
  004a3	79 06		 jns	 SHORT $LN547@SetActionS
  004a5	d8 05 00 00 00
	00		 fadd	 DWORD PTR __real@4f800000
$LN547@SetActionS:
  004ab	8b 85 9c 7f ff
	ff		 mov	 eax, DWORD PTR _dwPreDelay$[ebp]
  004b1	d8 85 a4 7f ff
	ff		 fadd	 DWORD PTR _fReserveTime$[ebp]
  004b7	db 85 9c 7f ff
	ff		 fild	 DWORD PTR _dwPreDelay$[ebp]
  004bd	85 c0		 test	 eax, eax
  004bf	79 06		 jns	 SHORT $LN548@SetActionS
  004c1	d8 05 00 00 00
	00		 fadd	 DWORD PTR __real@4f800000
$LN548@SetActionS:
  004c7	de c1		 faddp	 ST(1), ST(0)
  004c9	e8 00 00 00 00	 call	 __ftol2
  004ce	89 83 dc 02 00
	00		 mov	 DWORD PTR [ebx+732], eax
$LN15@SetActionS:

; 484  : 	}
; 485  : 
; 486  : 	float fFireStart = pGrp->GetAnimationEventTime_e( iAniID, "fire_s" ) * fAniRate;

  004d4	6a 04		 push	 4
  004d6	c7 45 c0 8b 85
	99 8f		 mov	 DWORD PTR _szEncEventType$557101[ebp], -1885764213 ; 8f99858bH
  004dd	81 75 c0 ed ec
	eb ea		 xor	 DWORD PTR _szEncEventType$557101[ebp], -353637139 ; eaebecedH
  004e4	66 c7 45 c4 b2
	9f		 mov	 WORD PTR _szEncEventType$557101[ebp+4], 40882 ; 00009fb2H
  004ea	c6 45 c6 00	 mov	 BYTE PTR _szEncEventType$557101[ebp+6], 0
  004ee	58		 pop	 eax
$LL372@SetActionS:
  004ef	8b c8		 mov	 ecx, eax
  004f1	81 e1 03 00 00
	80		 and	 ecx, -2147483645	; 80000003H
  004f7	79 05		 jns	 SHORT $LN549@SetActionS
  004f9	49		 dec	 ecx
  004fa	83 c9 fc	 or	 ecx, -4			; fffffffcH
  004fd	41		 inc	 ecx
$LN549@SetActionS:
  004fe	b2 ed		 mov	 dl, -19			; ffffffedH
  00500	2a d1		 sub	 dl, cl
  00502	30 54 05 c0	 xor	 BYTE PTR _szEncEventType$557101[ebp+eax], dl
  00506	40		 inc	 eax
  00507	83 f8 06	 cmp	 eax, 6
  0050a	7c e3		 jl	 SHORT $LL372@SetActionS
  0050c	8d 45 c0	 lea	 eax, DWORD PTR _szEncEventType$557101[ebp]
  0050f	50		 push	 eax
  00510	8d 4d e0	 lea	 ecx, DWORD PTR $T557088[ebp]
  00513	ff d7		 call	 edi
  00515	8b 8d 98 7f ff
	ff		 mov	 ecx, DWORD PTR _pGrp$[ebp]
  0051b	8d 45 e0	 lea	 eax, DWORD PTR $T557088[ebp]
  0051e	50		 push	 eax
  0051f	ff b5 94 7f ff
	ff		 push	 DWORD PTR _iAniID$[ebp]
  00525	c7 45 fc 02 00
	00 00		 mov	 DWORD PTR __$EHRec$[ebp+8], 2
  0052c	ff 15 00 00 00
	00		 call	 DWORD PTR __imp_?GetAnimationEventTime@ioEntityGroup@@QAEMHABVioHashString@@@Z
  00532	d9 9d a4 7f ff
	ff		 fstp	 DWORD PTR $T557087[ebp]
  00538	83 4d fc ff	 or	 DWORD PTR __$EHRec$[ebp+8], -1
  0053c	8d 4d e0	 lea	 ecx, DWORD PTR $T557088[ebp]
  0053f	ff d6		 call	 esi
  00541	f3 0f 10 85 a4
	7f ff ff	 movss	 xmm0, DWORD PTR $T557087[ebp]
  00549	f3 0f 10 8d a0
	7f ff ff	 movss	 xmm1, DWORD PTR _fAniRate$[ebp]
  00551	0f 5a c0	 cvtps2pd xmm0, xmm0
  00554	0f 5a c9	 cvtps2pd xmm1, xmm1
  00557	f2 0f 59 c1	 mulsd	 xmm0, xmm1
  0055b	66 0f 5a c0	 cvtpd2ps xmm0, xmm0

; 487  : 	if( fFireStart > 0.0f )

  0055f	0f 2f 05 00 00
	00 00		 comiss	 xmm0, DWORD PTR __real@00000000
  00566	f3 0f 11 85 a4
	7f ff ff	 movss	 DWORD PTR _fFireStart$[ebp], xmm0
  0056e	76 3f		 jbe	 SHORT $LN14@SetActionS

; 488  : 	{
; 489  : 		m_dwFireStartTime = dwCurTime + fFireStart + dwPreDelay;

  00570	8b 85 84 7f ff
	ff		 mov	 eax, DWORD PTR _dwCurTime$[ebp]
  00576	db 85 84 7f ff
	ff		 fild	 DWORD PTR _dwCurTime$[ebp]
  0057c	85 c0		 test	 eax, eax
  0057e	79 06		 jns	 SHORT $LN550@SetActionS
  00580	d8 05 00 00 00
	00		 fadd	 DWORD PTR __real@4f800000
$LN550@SetActionS:
  00586	8b 85 9c 7f ff
	ff		 mov	 eax, DWORD PTR _dwPreDelay$[ebp]
  0058c	d8 85 a4 7f ff
	ff		 fadd	 DWORD PTR _fFireStart$[ebp]
  00592	db 85 9c 7f ff
	ff		 fild	 DWORD PTR _dwPreDelay$[ebp]
  00598	85 c0		 test	 eax, eax
  0059a	79 06		 jns	 SHORT $LN551@SetActionS
  0059c	d8 05 00 00 00
	00		 fadd	 DWORD PTR __real@4f800000
$LN551@SetActionS:
  005a2	de c1		 faddp	 ST(1), ST(0)
  005a4	e8 00 00 00 00	 call	 __ftol2
  005a9	89 83 f0 0f 00
	00		 mov	 DWORD PTR [ebx+4080], eax
$LN14@SetActionS:

; 490  : 	}
; 491  : 
; 492  : 	float fAttackEnd = pGrp->GetAnimationEventTime_e( iAniID, "attack_end" ) * fAniRate;

  005af	6a 02		 push	 2
  005b1	c7 45 e0 8c 98
	9f 8b		 mov	 DWORD PTR _szEncEventType$557231[ebp], -1952474996 ; 8b9f988cH
  005b8	c7 45 e4 8e 87
	b4 8f		 mov	 DWORD PTR _szEncEventType$557231[ebp+4], -1883994226 ; 8fb4878eH
  005bf	66 c7 45 e8 83
	88		 mov	 WORD PTR _szEncEventType$557231[ebp+8], 34947 ; 00008883H
  005c5	8d 45 e0	 lea	 eax, DWORD PTR _szEncEventType$557231[ebp]
  005c8	c6 45 ea 00	 mov	 BYTE PTR _szEncEventType$557231[ebp+10], 0
  005cc	59		 pop	 ecx
$LL482@SetActionS:
  005cd	81 30 ed ec eb
	ea		 xor	 DWORD PTR [eax], -353637139 ; eaebecedH
  005d3	83 c0 04	 add	 eax, 4
  005d6	49		 dec	 ecx
  005d7	75 f4		 jne	 SHORT $LL482@SetActionS
  005d9	6a 08		 push	 8
  005db	58		 pop	 eax
$LL479@SetActionS:
  005dc	8b c8		 mov	 ecx, eax
  005de	81 e1 03 00 00
	80		 and	 ecx, -2147483645	; 80000003H
  005e4	79 05		 jns	 SHORT $LN552@SetActionS
  005e6	49		 dec	 ecx
  005e7	83 c9 fc	 or	 ecx, -4			; fffffffcH
  005ea	41		 inc	 ecx
$LN552@SetActionS:
  005eb	b2 ed		 mov	 dl, -19			; ffffffedH
  005ed	2a d1		 sub	 dl, cl
  005ef	30 54 05 e0	 xor	 BYTE PTR _szEncEventType$557231[ebp+eax], dl
  005f3	40		 inc	 eax
  005f4	83 f8 0a	 cmp	 eax, 10			; 0000000aH
  005f7	7c e3		 jl	 SHORT $LL479@SetActionS
  005f9	8d 45 e0	 lea	 eax, DWORD PTR _szEncEventType$557231[ebp]
  005fc	50		 push	 eax
  005fd	8d 4d cc	 lea	 ecx, DWORD PTR $T557218[ebp]
  00600	ff d7		 call	 edi
  00602	8b 8d 98 7f ff
	ff		 mov	 ecx, DWORD PTR _pGrp$[ebp]
  00608	8d 45 cc	 lea	 eax, DWORD PTR $T557218[ebp]
  0060b	50		 push	 eax
  0060c	ff b5 94 7f ff
	ff		 push	 DWORD PTR _iAniID$[ebp]
  00612	c7 45 fc 03 00
	00 00		 mov	 DWORD PTR __$EHRec$[ebp+8], 3
  00619	ff 15 00 00 00
	00		 call	 DWORD PTR __imp_?GetAnimationEventTime@ioEntityGroup@@QAEMHABVioHashString@@@Z
  0061f	d9 9d a4 7f ff
	ff		 fstp	 DWORD PTR $T557217[ebp]
  00625	83 4d fc ff	 or	 DWORD PTR __$EHRec$[ebp+8], -1
  00629	8d 4d cc	 lea	 ecx, DWORD PTR $T557218[ebp]
  0062c	ff d6		 call	 esi
  0062e	f3 0f 10 85 a4
	7f ff ff	 movss	 xmm0, DWORD PTR $T557217[ebp]
  00636	f3 0f 10 8d a0
	7f ff ff	 movss	 xmm1, DWORD PTR _fAniRate$[ebp]
  0063e	0f 5a c0	 cvtps2pd xmm0, xmm0
  00641	0f 5a c9	 cvtps2pd xmm1, xmm1
  00644	f2 0f 59 c1	 mulsd	 xmm0, xmm1
  00648	66 0f 5a c0	 cvtpd2ps xmm0, xmm0

; 493  : 	if( fAttackEnd > 0.0f )

  0064c	0f 2f 05 00 00
	00 00		 comiss	 xmm0, DWORD PTR __real@00000000
  00653	f3 0f 11 85 a4
	7f ff ff	 movss	 DWORD PTR _fAttackEnd$[ebp], xmm0
  0065b	76 41		 jbe	 SHORT $LN13@SetActionS

; 494  : 		m_dwAttackEndTime = dwCurTime + fAttackEnd + dwPreDelay;

  0065d	8b 85 84 7f ff
	ff		 mov	 eax, DWORD PTR _dwCurTime$[ebp]
  00663	db 85 84 7f ff
	ff		 fild	 DWORD PTR _dwCurTime$[ebp]
  00669	85 c0		 test	 eax, eax
  0066b	79 06		 jns	 SHORT $LN553@SetActionS
  0066d	d8 05 00 00 00
	00		 fadd	 DWORD PTR __real@4f800000
$LN553@SetActionS:
  00673	8b 85 9c 7f ff
	ff		 mov	 eax, DWORD PTR _dwPreDelay$[ebp]
  00679	d8 85 a4 7f ff
	ff		 fadd	 DWORD PTR _fAttackEnd$[ebp]
  0067f	db 85 9c 7f ff
	ff		 fild	 DWORD PTR _dwPreDelay$[ebp]
  00685	85 c0		 test	 eax, eax
  00687	79 06		 jns	 SHORT $LN554@SetActionS
  00689	d8 05 00 00 00
	00		 fadd	 DWORD PTR __real@4f800000
$LN554@SetActionS:
  0068f	de c1		 faddp	 ST(1), ST(0)
  00691	e8 00 00 00 00	 call	 __ftol2
  00696	89 83 14 10 00
	00		 mov	 DWORD PTR [ebx+4116], eax

; 495  : 	else

  0069c	eb 07		 jmp	 SHORT $LN12@SetActionS
$LN13@SetActionS:

; 496  : 		m_dwAttackEndTime = 0;

  0069e	83 a3 14 10 00
	00 00		 and	 DWORD PTR [ebx+4116], 0
$LN12@SetActionS:

; 497  : 
; 498  : 	pChar->AttachEffect( m_EndEffect );

  006a5	8b b5 88 7f ff
	ff		 mov	 esi, DWORD PTR _pChar$GSCopy$[ebp]
  006ab	6a 01		 push	 1
  006ad	6a 00		 push	 0
  006af	8d 83 a0 10 00
	00		 lea	 eax, DWORD PTR [ebx+4256]
  006b5	50		 push	 eax
  006b6	8b ce		 mov	 ecx, esi
  006b8	e8 00 00 00 00	 call	 ?AttachEffect@ioBaseChar@@QAEPAVioEffect@@ABVioHashString@@PAVioEntityEvent@@_N@Z ; ioBaseChar::AttachEffect

; 499  : 
; 500  : 	//
; 501  : 	if( pChar->CheckMagicCircle() )

  006bd	81 c6 cc 01 00
	00		 add	 esi, 460		; 000001ccH
  006c3	8b ce		 mov	 ecx, esi
  006c5	e8 00 00 00 00	 call	 ?CheckMagicCircle@ioBaseGUISupport@@QBE_NXZ ; ioBaseGUISupport::CheckMagicCircle
  006ca	84 c0		 test	 al, al
  006cc	74 40		 je	 SHORT $LN11@SetActionS

; 502  : 	{
; 503  : 		pChar->CheckMagicCircleVisible( false );

  006ce	6a 00		 push	 0
  006d0	8b ce		 mov	 ecx, esi
  006d2	e8 00 00 00 00	 call	 ?CheckMagicCircleVisible@ioBaseGUISupport@@QAEX_N@Z ; ioBaseGUISupport::CheckMagicCircleVisible

; 504  : 		pChar->UpdateMagicCirclePos( m_fCircleMoveSpeed, m_fCircleRange, m_fCircleHeightGap, true, true );

  006d7	f3 0f 10 83 34
	10 00 00	 movss	 xmm0, DWORD PTR [ebx+4148]
  006df	6a 01		 push	 1
  006e1	6a 01		 push	 1
  006e3	83 ec 0c	 sub	 esp, 12			; 0000000cH
  006e6	f3 0f 11 44 24
	08		 movss	 DWORD PTR [esp+8], xmm0
  006ec	f3 0f 10 83 2c
	10 00 00	 movss	 xmm0, DWORD PTR [ebx+4140]
  006f4	f3 0f 11 44 24
	04		 movss	 DWORD PTR [esp+4], xmm0
  006fa	f3 0f 10 83 30
	10 00 00	 movss	 xmm0, DWORD PTR [ebx+4144]
  00702	8b ce		 mov	 ecx, esi
  00704	f3 0f 11 04 24	 movss	 DWORD PTR [esp], xmm0
  00709	e8 00 00 00 00	 call	 ?UpdateMagicCirclePos@ioBaseGUISupport@@QAEXMMM_N0@Z ; ioBaseGUISupport::UpdateMagicCirclePos
$LN11@SetActionS:

; 505  : 	}
; 506  : 
; 507  : 	m_vCirclePos = pChar->GetMagicCirclePos( m_fCircleOffSet, m_bCircleNoChangeY );

  0070e	8d 85 a4 7f ff
	ff		 lea	 eax, DWORD PTR _value$557331[ebp]
  00714	50		 push	 eax
  00715	8d 8b 24 06 00
	00		 lea	 ecx, DWORD PTR [ebx+1572]
  0071b	e8 00 00 00 00	 call	 ?DecryptValueToPool@?$CEncrypt@_N@@QAEXPA_N@Z ; CEncrypt<bool>::DecryptValueToPool
  00720	ff b5 a4 7f ff
	ff		 push	 DWORD PTR _value$557331[ebp]
  00726	f3 0f 10 83 38
	10 00 00	 movss	 xmm0, DWORD PTR [ebx+4152]
  0072e	51		 push	 ecx
  0072f	8d 45 e4	 lea	 eax, DWORD PTR $T548410[ebp]
  00732	f3 0f 11 04 24	 movss	 DWORD PTR [esp], xmm0
  00737	50		 push	 eax
  00738	8b ce		 mov	 ecx, esi
  0073a	e8 00 00 00 00	 call	 ?GetMagicCirclePos@ioBaseGUISupport@@QBE?AUD3DXVECTOR3@@M_N@Z ; ioBaseGUISupport::GetMagicCirclePos
  0073f	8b f0		 mov	 esi, eax
  00741	8d bb 3c 10 00
	00		 lea	 edi, DWORD PTR [ebx+4156]
  00747	a5		 movsd
  00748	a5		 movsd
  00749	a5		 movsd

; 508  : 
; 509  : 	//
; 510  : 	ioMapEffect *pMapEffect = NULL;
; 511  : 	if( pChar->GetTeam() == TEAM_RED )

  0074a	8b b5 88 7f ff
	ff		 mov	 esi, DWORD PTR _pChar$GSCopy$[ebp]
  00750	8d 85 a4 7f ff
	ff		 lea	 eax, DWORD PTR _value$557342[ebp]
  00756	50		 push	 eax
  00757	8d 8e 90 00 00
	00		 lea	 ecx, DWORD PTR [esi+144]
  0075d	e8 00 00 00 00	 call	 ?DecryptValueToPool@?$CEncrypt@W4TeamType@@@@QAEXPAW4TeamType@@@Z ; CEncrypt<enum TeamType>::DecryptValueToPool
  00762	83 bd a4 7f ff
	ff 01		 cmp	 DWORD PTR _value$557342[ebp], 1
  00769	75 1f		 jne	 SHORT $LN10@SetActionS

; 512  : 	{
; 513  : 		pMapEffect = pChar->CreateMapEffectBySkill( m_RedEffect, m_vCirclePos );

  0076b	f3 0f 10 05 00
	00 00 00	 movss	 xmm0, DWORD PTR __real@3f800000
  00773	f3 0f 11 45 c0	 movss	 DWORD PTR $T556743[ebp], xmm0
  00778	f3 0f 11 45 c4	 movss	 DWORD PTR $T556743[ebp+4], xmm0
  0077d	f3 0f 11 45 c8	 movss	 DWORD PTR $T556743[ebp+8], xmm0
  00782	8d 45 c0	 lea	 eax, DWORD PTR $T556743[ebp]
  00785	e9 99 00 00 00	 jmp	 $LN555@SetActionS
$LN10@SetActionS:

; 514  : 	}
; 515  : 	else if( pChar->GetTeam() == TEAM_BLUE )

  0078a	8d 85 a4 7f ff
	ff		 lea	 eax, DWORD PTR _value$557357[ebp]
  00790	50		 push	 eax
  00791	8d 8e 90 00 00
	00		 lea	 ecx, DWORD PTR [esi+144]
  00797	e8 00 00 00 00	 call	 ?DecryptValueToPool@?$CEncrypt@W4TeamType@@@@QAEXPAW4TeamType@@@Z ; CEncrypt<enum TeamType>::DecryptValueToPool
  0079c	83 bd a4 7f ff
	ff 02		 cmp	 DWORD PTR _value$557357[ebp], 2

; 516  : 	{
; 517  : 		pMapEffect = pChar->CreateMapEffectBySkill( m_BlueEffect, m_vCirclePos );

  007a3	8b ce		 mov	 ecx, esi
  007a5	75 36		 jne	 SHORT $LN8@SetActionS
  007a7	f3 0f 10 05 00
	00 00 00	 movss	 xmm0, DWORD PTR __real@3f800000
  007af	8d 85 78 7f ff
	ff		 lea	 eax, DWORD PTR $T556744[ebp]
  007b5	50		 push	 eax
  007b6	8d 83 3c 10 00
	00		 lea	 eax, DWORD PTR [ebx+4156]
  007bc	50		 push	 eax
  007bd	f3 0f 11 85 78
	7f ff ff	 movss	 DWORD PTR $T556744[ebp], xmm0
  007c5	f3 0f 11 85 7c
	7f ff ff	 movss	 DWORD PTR $T556744[ebp+4], xmm0
  007cd	f3 0f 11 85 80
	7f ff ff	 movss	 DWORD PTR $T556744[ebp+8], xmm0
  007d5	8d 83 78 10 00
	00		 lea	 eax, DWORD PTR [ebx+4216]

; 518  : 	}
; 519  : 	else

  007db	eb 56		 jmp	 SHORT $LN556@SetActionS
$LN8@SetActionS:

; 520  : 	{
; 521  : 		if( pChar->GetSingleConvertTeam() == TEAM_BLUE )

  007dd	e8 00 00 00 00	 call	 ?GetSingleConvertTeam@ioBaseChar@@QAE?AW4TeamType@@XZ ; ioBaseChar::GetSingleConvertTeam

; 522  : 		{
; 523  : 			pMapEffect = pChar->CreateMapEffectBySkill( m_BlueEffect, m_vCirclePos );

  007e2	f3 0f 10 05 00
	00 00 00	 movss	 xmm0, DWORD PTR __real@3f800000
  007ea	83 f8 02	 cmp	 eax, 2
  007ed	75 22		 jne	 SHORT $LN6@SetActionS
  007ef	8d 45 d0	 lea	 eax, DWORD PTR $T556745[ebp]
  007f2	50		 push	 eax
  007f3	8d 83 3c 10 00
	00		 lea	 eax, DWORD PTR [ebx+4156]
  007f9	50		 push	 eax
  007fa	f3 0f 11 45 d0	 movss	 DWORD PTR $T556745[ebp], xmm0
  007ff	f3 0f 11 45 d4	 movss	 DWORD PTR $T556745[ebp+4], xmm0
  00804	f3 0f 11 45 d8	 movss	 DWORD PTR $T556745[ebp+8], xmm0
  00809	8d 83 78 10 00
	00		 lea	 eax, DWORD PTR [ebx+4216]

; 524  : 		}
; 525  : 		else

  0080f	eb 20		 jmp	 SHORT $LN557@SetActionS
$LN6@SetActionS:

; 526  : 		{
; 527  : 			pMapEffect = pChar->CreateMapEffectBySkill( m_RedEffect, m_vCirclePos );

  00811	f3 0f 11 45 e4	 movss	 DWORD PTR $T556746[ebp], xmm0
  00816	f3 0f 11 45 e8	 movss	 DWORD PTR $T556746[ebp+4], xmm0
  0081b	f3 0f 11 45 ec	 movss	 DWORD PTR $T556746[ebp+8], xmm0
  00820	8d 45 e4	 lea	 eax, DWORD PTR $T556746[ebp]
$LN555@SetActionS:
  00823	50		 push	 eax
  00824	8d 83 3c 10 00
	00		 lea	 eax, DWORD PTR [ebx+4156]
  0082a	50		 push	 eax
  0082b	8d 83 68 10 00
	00		 lea	 eax, DWORD PTR [ebx+4200]
$LN557@SetActionS:
  00831	8b ce		 mov	 ecx, esi
$LN556@SetActionS:
  00833	50		 push	 eax
  00834	e8 00 00 00 00	 call	 ?CreateMapEffectBySkill@ioBaseChar@@QAEPAVioMapEffect@@ABVioHashString@@ABUD3DXVECTOR3@@AAU4@@Z ; ioBaseChar::CreateMapEffectBySkill
  00839	89 85 a0 7f ff
	ff		 mov	 DWORD PTR _pMapEffect$[ebp], eax

; 528  : 		}
; 529  : 	}
; 530  : 
; 531  : 	if( pMapEffect )

  0083f	85 c0		 test	 eax, eax
  00841	74 42		 je	 SHORT $LN2@SetActionS

; 532  : 	{
; 533  : 		if( m_dwCurMapEffect != -1 )

  00843	8b 83 88 10 00
	00		 mov	 eax, DWORD PTR [ebx+4232]
  00849	83 f8 ff	 cmp	 eax, -1
  0084c	74 0a		 je	 SHORT $LN3@SetActionS

; 534  : 			pChar->EndMapEffect( m_dwCurMapEffect, false );

  0084e	6a 00		 push	 0
  00850	50		 push	 eax
  00851	8b ce		 mov	 ecx, esi
  00853	e8 00 00 00 00	 call	 ?EndMapEffect@ioBaseChar@@QAEXK_N@Z ; ioBaseChar::EndMapEffect
$LN3@SetActionS:

; 535  : 
; 536  : 		m_dwCurMapEffect = pMapEffect->GetUniqueID();

  00858	8b 8d a0 7f ff
	ff		 mov	 ecx, DWORD PTR _pMapEffect$[ebp]
  0085e	e8 00 00 00 00	 call	 ?GetUniqueID@ioMapEffect@@QBEKXZ ; ioMapEffect::GetUniqueID
  00863	89 83 88 10 00
	00		 mov	 DWORD PTR [ebx+4232], eax

; 537  : 
; 538  : 		if( m_dwTargetCircleEffect != -1 )

  00869	8b 83 8c 10 00
	00		 mov	 eax, DWORD PTR [ebx+4236]
  0086f	83 f8 ff	 cmp	 eax, -1
  00872	74 11		 je	 SHORT $LN2@SetActionS

; 539  : 		{
; 540  : 			pChar->EndMapEffect( m_dwTargetCircleEffect, false );

  00874	6a 00		 push	 0
  00876	50		 push	 eax
  00877	8b ce		 mov	 ecx, esi
  00879	e8 00 00 00 00	 call	 ?EndMapEffect@ioBaseChar@@QAEXK_N@Z ; ioBaseChar::EndMapEffect

; 541  : 			m_dwTargetCircleEffect = -1;

  0087e	83 8b 8c 10 00
	00 ff		 or	 DWORD PTR [ebx+4236], -1
$LN2@SetActionS:

; 542  : 		}
; 543  : 	}
; 544  : 
; 545  : 	pChar->ReduceNeedGaugeBySkill( this, GetNeedGauge(pChar->GetCharName()) );

  00885	8d be d4 02 00
	00		 lea	 edi, DWORD PTR [esi+724]
  0088b	57		 push	 edi
  0088c	8b cb		 mov	 ecx, ebx
  0088e	e8 00 00 00 00	 call	 ?GetNeedGauge@ioSkill@@QAEMABVioHashString@@@Z ; ioSkill::GetNeedGauge
  00893	51		 push	 ecx
  00894	d9 1c 24	 fstp	 DWORD PTR [esp]
  00897	53		 push	 ebx
  00898	8b ce		 mov	 ecx, esi
  0089a	e8 00 00 00 00	 call	 ?ReduceNeedGaugeBySkill@ioBaseChar@@QAEMPAVioSkill@@M@Z ; ioBaseChar::ReduceNeedGaugeBySkill
  0089f	dd d8		 fstp	 ST(0)

; 546  : 	m_bReduceGauge = true;
; 547  : 
; 548  : 	if( bSend && pChar->IsNeedSendNetwork() )

  008a1	80 7d 10 00	 cmp	 BYTE PTR _bSend$[ebp], 0
  008a5	c6 83 50 03 00
	00 01		 mov	 BYTE PTR [ebx+848], 1
  008ac	0f 84 95 00 00
	00		 je	 $LN1@SetActionS
  008b2	8b 06		 mov	 eax, DWORD PTR [esi]
  008b4	8b ce		 mov	 ecx, esi
  008b6	ff 90 04 01 00
	00		 call	 DWORD PTR [eax+260]
  008bc	84 c0		 test	 al, al
  008be	0f 84 83 00 00
	00		 je	 $LN1@SetActionS

; 549  : 	{
; 550  : 		SP2Packet kPacket( CUPK_SKILL_EXTRA_INFO );

  008c4	68 39 41 00 00	 push	 16697			; 00004139H
  008c9	8d 8d a8 7f ff
	ff		 lea	 ecx, DWORD PTR _kPacket$548426[ebp]
  008cf	e8 00 00 00 00	 call	 ??0SP2Packet@@QAE@K@Z	; SP2Packet::SP2Packet

; 551  : 		kPacket << pChar->GetCharName();

  008d4	57		 push	 edi
  008d5	8d 8d a8 7f ff
	ff		 lea	 ecx, DWORD PTR _kPacket$548426[ebp]
  008db	c7 45 fc 04 00
	00 00		 mov	 DWORD PTR __$EHRec$[ebp+8], 4
  008e2	e8 00 00 00 00	 call	 ??6SP2Packet@@QAEAAV0@ABVioHashString@@@Z ; SP2Packet::operator<<

; 552  : 		kPacket << GetName();

  008e7	83 c3 24	 add	 ebx, 36			; 00000024H
  008ea	53		 push	 ebx
  008eb	8d 8d a8 7f ff
	ff		 lea	 ecx, DWORD PTR _kPacket$548426[ebp]
  008f1	e8 00 00 00 00	 call	 ??6SP2Packet@@QAEAAV0@ABVioHashString@@@Z ; SP2Packet::operator<<

; 553  : 		kPacket << SSC_ACTION;

  008f6	6a 02		 push	 2
  008f8	8d 8d a8 7f ff
	ff		 lea	 ecx, DWORD PTR _kPacket$548426[ebp]
  008fe	e8 00 00 00 00	 call	 ??6SP2Packet@@QAEAAV0@H@Z ; SP2Packet::operator<<

; 554  : 		kPacket << pChar->GetWorldPosition();

  00903	8b 06		 mov	 eax, DWORD PTR [esi]
  00905	8b ce		 mov	 ecx, esi
  00907	ff 50 70	 call	 DWORD PTR [eax+112]
  0090a	50		 push	 eax
  0090b	8d 8d a8 7f ff
	ff		 lea	 ecx, DWORD PTR _kPacket$548426[ebp]
  00911	e8 00 00 00 00	 call	 ??6SP2Packet@@QAEAAV0@ABUD3DXVECTOR3@@@Z ; SP2Packet::operator<<

; 555  : 		kPacket << pChar->GetTargetRot();

  00916	81 c6 a4 06 00
	00		 add	 esi, 1700		; 000006a4H
  0091c	56		 push	 esi
  0091d	8d 8d a8 7f ff
	ff		 lea	 ecx, DWORD PTR _kPacket$548426[ebp]
  00923	e8 00 00 00 00	 call	 ??6SP2Packet@@QAEAAV0@ABUD3DXQUATERNION@@@Z ; SP2Packet::operator<<

; 556  : 		P2PNetwork::SendToAllPlayingUser( kPacket );

  00928	8d 85 a8 7f ff
	ff		 lea	 eax, DWORD PTR _kPacket$548426[ebp]
  0092e	6a 00		 push	 0
  00930	50		 push	 eax
  00931	e8 00 00 00 00	 call	 ?SendToAllPlayingUser@P2PNetwork@@YAXAAVSP2Packet@@PAVioBaseChar@@@Z ; P2PNetwork::SendToAllPlayingUser

; 557  : 	}

  00936	83 4d fc ff	 or	 DWORD PTR __$EHRec$[ebp+8], -1
  0093a	59		 pop	 ecx
  0093b	59		 pop	 ecx
  0093c	8d 8d a8 7f ff
	ff		 lea	 ecx, DWORD PTR _kPacket$548426[ebp]
  00942	e8 00 00 00 00	 call	 ??1SP2Packet@@UAE@XZ	; SP2Packet::~SP2Packet
$LN1@SetActionS:

; 558  : }

  00947	8b 4d f4	 mov	 ecx, DWORD PTR __$EHRec$[ebp]
  0094a	64 89 0d 00 00
	00 00		 mov	 DWORD PTR fs:0, ecx
  00951	59		 pop	 ecx
  00952	5f		 pop	 edi
  00953	5e		 pop	 esi
  00954	5b		 pop	 ebx
  00955	8b 4d f0	 mov	 ecx, DWORD PTR __$ArrayPad$[ebp]
  00958	33 cd		 xor	 ecx, ebp
  0095a	e8 00 00 00 00	 call	 @__security_check_cookie@4
  0095f	c9		 leave
  00960	c2 0c 00	 ret	 12			; 0000000cH
_TEXT	ENDS
;	COMDAT text$x
text$x	SEGMENT
__unwindfunclet$?SetActionState@ioChargingFireSkill@@IAEXPAVioBaseChar@@PAVioPlayStage@@_N@Z$1:
  00000	8d 4d e0	 lea	 ecx, DWORD PTR $T556926[ebp]
  00003	ff 25 00 00 00
	00		 jmp	 DWORD PTR __imp_??1ioHashString@@QAE@XZ
__unwindfunclet$?SetActionState@ioChargingFireSkill@@IAEXPAVioBaseChar@@PAVioPlayStage@@_N@Z$2:
  00009	8d 4d cc	 lea	 ecx, DWORD PTR $T557056[ebp]
  0000c	ff 25 00 00 00
	00		 jmp	 DWORD PTR __imp_??1ioHashString@@QAE@XZ
__unwindfunclet$?SetActionState@ioChargingFireSkill@@IAEXPAVioBaseChar@@PAVioPlayStage@@_N@Z$3:
  00012	8d 4d e0	 lea	 ecx, DWORD PTR $T557088[ebp]
  00015	ff 25 00 00 00
	00		 jmp	 DWORD PTR __imp_??1ioHashString@@QAE@XZ
__unwindfunclet$?SetActionState@ioChargingFireSkill@@IAEXPAVioBaseChar@@PAVioPlayStage@@_N@Z$4:
  0001b	8d 4d cc	 lea	 ecx, DWORD PTR $T557218[ebp]
  0001e	ff 25 00 00 00
	00		 jmp	 DWORD PTR __imp_??1ioHashString@@QAE@XZ
__unwindfunclet$?SetActionState@ioChargingFireSkill@@IAEXPAVioBaseChar@@PAVioPlayStage@@_N@Z$0:
  00024	8d 8d a8 7f ff
	ff		 lea	 ecx, DWORD PTR _kPacket$548426[ebp]
  0002a	e9 00 00 00 00	 jmp	 ??1SP2Packet@@UAE@XZ	; SP2Packet::~SP2Packet
__ehhandler$?SetActionState@ioChargingFireSkill@@IAEXPAVioBaseChar@@PAVioPlayStage@@_N@Z:
  0002f	8b 54 24 08	 mov	 edx, DWORD PTR [esp+8]
  00033	8d 42 0c	 lea	 eax, DWORD PTR [edx+12]
  00036	8b 8a 74 7f ff
	ff		 mov	 ecx, DWORD PTR [edx-32908]
  0003c	33 c8		 xor	 ecx, eax
  0003e	e8 00 00 00 00	 call	 @__security_check_cookie@4
  00043	8b 4a fc	 mov	 ecx, DWORD PTR [edx-4]
  00046	33 c8		 xor	 ecx, eax
  00048	e8 00 00 00 00	 call	 @__security_check_cookie@4
  0004d	b8 00 00 00 00	 mov	 eax, OFFSET __ehfuncinfo$?SetActionState@ioChargingFireSkill@@IAEXPAVioBaseChar@@PAVioPlayStage@@_N@Z
  00052	e9 00 00 00 00	 jmp	 ___CxxFrameHandler3
text$x	ENDS
?SetActionState@ioChargingFireSkill@@IAEXPAVioBaseChar@@PAVioPlayStage@@_N@Z ENDP ; ioChargingFireSkill::SetActionState
PUBLIC	__$ArrayPad$
PUBLIC	?ApplyExtraSkillInfo@ioChargingFireSkill@@UAEXPAVioBaseChar@@PAVioPlayStage@@AAVSP2Packet@@@Z ; ioChargingFireSkill::ApplyExtraSkillInfo
EXTRN	??5SP2Packet@@QAEAAV0@AAUD3DXQUATERNION@@@Z:PROC ; SP2Packet::operator>>
EXTRN	??5SP2Packet@@QAEAAV0@AAUD3DXVECTOR3@@@Z:PROC	; SP2Packet::operator>>
EXTRN	??5SP2Packet@@QAEAAV0@AAH@Z:PROC		; SP2Packet::operator>>
; Function compile flags: /Ogsp
;	COMDAT ?ApplyExtraSkillInfo@ioChargingFireSkill@@UAEXPAVioBaseChar@@PAVioPlayStage@@AAVSP2Packet@@@Z
_TEXT	SEGMENT
_qtRot$548444 = -36					; size = 16
_qtRot$548441 = -36					; size = 16
_iType$ = -20						; size = 4
_vPos$548443 = -16					; size = 12
_vPos$548440 = -16					; size = 12
__$ArrayPad$ = -4					; size = 4
_pChar$ = 8						; size = 4
_pStage$ = 12						; size = 4
_rkPacket$ = 16						; size = 4
?ApplyExtraSkillInfo@ioChargingFireSkill@@UAEXPAVioBaseChar@@PAVioPlayStage@@AAVSP2Packet@@@Z PROC ; ioChargingFireSkill::ApplyExtraSkillInfo, COMDAT
; _this$ = ecx

; 561  : {

  00000	55		 push	 ebp
  00001	8b ec		 mov	 ebp, esp
  00003	83 ec 24	 sub	 esp, 36			; 00000024H
  00006	a1 00 00 00 00	 mov	 eax, DWORD PTR ___security_cookie
  0000b	33 c5		 xor	 eax, ebp
  0000d	89 45 fc	 mov	 DWORD PTR __$ArrayPad$[ebp], eax
  00010	53		 push	 ebx
  00011	56		 push	 esi
  00012	8b 75 08	 mov	 esi, DWORD PTR _pChar$[ebp]
  00015	57		 push	 edi
  00016	8b 7d 10	 mov	 edi, DWORD PTR _rkPacket$[ebp]
  00019	8b d9		 mov	 ebx, ecx

; 562  : 	if( !pChar ) return;

  0001b	85 f6		 test	 esi, esi
  0001d	0f 84 8b 00 00
	00		 je	 $LN3@ApplyExtra

; 563  : 
; 564  : 	int iType;
; 565  : 	rkPacket >> iType;

  00023	8d 45 ec	 lea	 eax, DWORD PTR _iType$[ebp]
  00026	50		 push	 eax
  00027	8b cf		 mov	 ecx, edi
  00029	e8 00 00 00 00	 call	 ??5SP2Packet@@QAEAAV0@AAH@Z ; SP2Packet::operator>>

; 566  : 
; 567  : 	switch( iType )

  0002e	8b 45 ec	 mov	 eax, DWORD PTR _iType$[ebp]
  00031	48		 dec	 eax
  00032	74 42		 je	 SHORT $LN2@ApplyExtra
  00034	48		 dec	 eax
  00035	75 77		 jne	 SHORT $LN3@ApplyExtra

; 579  : 		}
; 580  : 		break;
; 581  : 	case SSC_ACTION:
; 582  : 		{
; 583  : 			D3DXVECTOR3 vPos;
; 584  : 			D3DXQUATERNION qtRot;
; 585  : 
; 586  : 			rkPacket >> vPos >> qtRot;

  00037	8d 45 dc	 lea	 eax, DWORD PTR _qtRot$548444[ebp]
  0003a	50		 push	 eax
  0003b	8d 45 f0	 lea	 eax, DWORD PTR _vPos$548443[ebp]
  0003e	50		 push	 eax
  0003f	8b cf		 mov	 ecx, edi
  00041	e8 00 00 00 00	 call	 ??5SP2Packet@@QAEAAV0@AAUD3DXVECTOR3@@@Z ; SP2Packet::operator>>
  00046	8b c8		 mov	 ecx, eax
  00048	e8 00 00 00 00	 call	 ??5SP2Packet@@QAEAAV0@AAUD3DXQUATERNION@@@Z ; SP2Packet::operator>>

; 587  : 			pChar->SetWorldPosition( vPos );

  0004d	8b 06		 mov	 eax, DWORD PTR [esi]
  0004f	8d 4d f0	 lea	 ecx, DWORD PTR _vPos$548443[ebp]
  00052	51		 push	 ecx
  00053	8b ce		 mov	 ecx, esi
  00055	ff 50 44	 call	 DWORD PTR [eax+68]

; 588  : 			pChar->SetTargetRotToRotate( qtRot, true, false );

  00058	6a 00		 push	 0
  0005a	6a 01		 push	 1
  0005c	8d 45 dc	 lea	 eax, DWORD PTR _qtRot$548444[ebp]
  0005f	50		 push	 eax
  00060	8b ce		 mov	 ecx, esi
  00062	e8 00 00 00 00	 call	 ?SetTargetRotToRotate@ioBaseChar@@QAEXABUD3DXQUATERNION@@_N1@Z ; ioBaseChar::SetTargetRotToRotate

; 589  : 
; 590  : 			SetActionState( pChar, pStage, false );

  00067	6a 00		 push	 0
  00069	ff 75 0c	 push	 DWORD PTR _pStage$[ebp]
  0006c	8b cb		 mov	 ecx, ebx
  0006e	56		 push	 esi
  0006f	e8 00 00 00 00	 call	 ?SetActionState@ioChargingFireSkill@@IAEXPAVioBaseChar@@PAVioPlayStage@@_N@Z ; ioChargingFireSkill::SetActionState

; 591  : 		}
; 592  : 		break;

  00074	eb 38		 jmp	 SHORT $LN3@ApplyExtra
$LN2@ApplyExtra:

; 568  : 	{
; 569  : 	case SSC_LOOP:
; 570  : 		{
; 571  : 			D3DXVECTOR3 vPos;
; 572  : 			D3DXQUATERNION qtRot;
; 573  : 
; 574  : 			rkPacket >> vPos >> qtRot;

  00076	8d 45 dc	 lea	 eax, DWORD PTR _qtRot$548441[ebp]
  00079	50		 push	 eax
  0007a	8d 45 f0	 lea	 eax, DWORD PTR _vPos$548440[ebp]
  0007d	50		 push	 eax
  0007e	8b cf		 mov	 ecx, edi
  00080	e8 00 00 00 00	 call	 ??5SP2Packet@@QAEAAV0@AAUD3DXVECTOR3@@@Z ; SP2Packet::operator>>
  00085	8b c8		 mov	 ecx, eax
  00087	e8 00 00 00 00	 call	 ??5SP2Packet@@QAEAAV0@AAUD3DXQUATERNION@@@Z ; SP2Packet::operator>>

; 575  : 			pChar->SetWorldPosition( vPos );

  0008c	8b 06		 mov	 eax, DWORD PTR [esi]
  0008e	8d 4d f0	 lea	 ecx, DWORD PTR _vPos$548440[ebp]
  00091	51		 push	 ecx
  00092	8b ce		 mov	 ecx, esi
  00094	ff 50 44	 call	 DWORD PTR [eax+68]

; 576  : 			pChar->SetTargetRotToRotate( qtRot, true, false );

  00097	6a 00		 push	 0
  00099	6a 01		 push	 1
  0009b	8d 45 dc	 lea	 eax, DWORD PTR _qtRot$548441[ebp]
  0009e	50		 push	 eax
  0009f	8b ce		 mov	 ecx, esi
  000a1	e8 00 00 00 00	 call	 ?SetTargetRotToRotate@ioBaseChar@@QAEXABUD3DXQUATERNION@@_N1@Z ; ioBaseChar::SetTargetRotToRotate

; 577  : 
; 578  : 			SetLoopState( pChar );

  000a6	56		 push	 esi
  000a7	8b cb		 mov	 ecx, ebx
  000a9	e8 00 00 00 00	 call	 ?SetLoopState@ioChargingFireSkill@@IAEXPAVioBaseChar@@@Z ; ioChargingFireSkill::SetLoopState
$LN3@ApplyExtra:

; 593  : 	}
; 594  : }

  000ae	8b 4d fc	 mov	 ecx, DWORD PTR __$ArrayPad$[ebp]
  000b1	5f		 pop	 edi
  000b2	5e		 pop	 esi
  000b3	33 cd		 xor	 ecx, ebp
  000b5	5b		 pop	 ebx
  000b6	e8 00 00 00 00	 call	 @__security_check_cookie@4
  000bb	c9		 leave
  000bc	c2 0c 00	 ret	 12			; 0000000cH
?ApplyExtraSkillInfo@ioChargingFireSkill@@UAEXPAVioBaseChar@@PAVioPlayStage@@AAVSP2Packet@@@Z ENDP ; ioChargingFireSkill::ApplyExtraSkillInfo
_TEXT	ENDS
PUBLIC	??$_Uninit_copy@V?$_Vector_const_iterator@V?$_Vector_val@UForceInfo@@V?$allocator@UForceInfo@@@std@@@std@@@std@@PAUForceInfo@@V?$allocator@UForceInfo@@@2@@std@@YAPAUForceInfo@@V?$_Vector_const_iterator@V?$_Vector_val@UForceInfo@@V?$allocator@UForceInfo@@@std@@@std@@@0@0PAU1@AAV?$allocator@UForceInfo@@@0@U_Nonscalar_ptr_iterator_tag@0@@Z ; std::_Uninit_copy<std::_Vector_const_iterator<std::_Vector_val<ForceInfo,std::allocator<ForceInfo> > >,ForceInfo *,std::allocator<ForceInfo> >
; Function compile flags: /Ogsp
; File c:\program files (x86)\microsoft visual studio 10.0\vc\include\memory
;	COMDAT ??$_Uninit_copy@V?$_Vector_const_iterator@V?$_Vector_val@UForceInfo@@V?$allocator@UForceInfo@@@std@@@std@@@std@@PAUForceInfo@@V?$allocator@UForceInfo@@@2@@std@@YAPAUForceInfo@@V?$_Vector_const_iterator@V?$_Vector_val@UForceInfo@@V?$allocator@UForceInfo@@@std@@@std@@@0@0PAU1@AAV?$allocator@UForceInfo@@@0@U_Nonscalar_ptr_iterator_tag@0@@Z
_TEXT	SEGMENT
__First$ = 8						; size = 4
__Last$ = 12						; size = 4
__Dest$ = 16						; size = 4
__Al$ = 20						; size = 4
___formal$ = 24						; size = 1
??$_Uninit_copy@V?$_Vector_const_iterator@V?$_Vector_val@UForceInfo@@V?$allocator@UForceInfo@@@std@@@std@@@std@@PAUForceInfo@@V?$allocator@UForceInfo@@@2@@std@@YAPAUForceInfo@@V?$_Vector_const_iterator@V?$_Vector_val@UForceInfo@@V?$allocator@UForceInfo@@@std@@@std@@@0@0PAU1@AAV?$allocator@UForceInfo@@@0@U_Nonscalar_ptr_iterator_tag@0@@Z PROC ; std::_Uninit_copy<std::_Vector_const_iterator<std::_Vector_val<ForceInfo,std::allocator<ForceInfo> > >,ForceInfo *,std::allocator<ForceInfo> >, COMDAT

; 369  : 	{	// copy [_First, _Last) to raw _Dest, using _Al, arbitrary type

  00000	55		 push	 ebp
  00001	8b ec		 mov	 ebp, esp

; 370  : 	_DEBUG_RANGE(_First, _Last);
; 371  : 	_DEBUG_POINTER(_Dest);
; 372  : 	_FwdIt _Next = _Dest;
; 373  : 
; 374  : 	_TRY_BEGIN
; 375  : 	for (; _First != _Last; ++_Dest, ++_First)

  00003	eb 19		 jmp	 SHORT $LN35@Uninit_cop
$LL14@Uninit_cop:

; 376  : 		_Cons_val(_Al, _Dest, *_First);

  00005	ff 75 08	 push	 DWORD PTR __First$[ebp]
  00008	ff 75 10	 push	 DWORD PTR __Dest$[ebp]
  0000b	ff 75 14	 push	 DWORD PTR __Al$[ebp]
  0000e	e8 00 00 00 00	 call	 ??$_Cons_val@V?$allocator@UForceInfo@@@std@@UForceInfo@@ABU3@@std@@YAXAAV?$allocator@UForceInfo@@@0@PAUForceInfo@@ABU2@@Z ; std::_Cons_val<std::allocator<ForceInfo>,ForceInfo,ForceInfo const &>
  00013	83 45 10 0c	 add	 DWORD PTR __Dest$[ebp], 12 ; 0000000cH
  00017	83 c4 0c	 add	 esp, 12			; 0000000cH
  0001a	83 45 08 0c	 add	 DWORD PTR __First$[ebp], 12 ; 0000000cH
$LN35@Uninit_cop:

; 370  : 	_DEBUG_RANGE(_First, _Last);
; 371  : 	_DEBUG_POINTER(_Dest);
; 372  : 	_FwdIt _Next = _Dest;
; 373  : 
; 374  : 	_TRY_BEGIN
; 375  : 	for (; _First != _Last; ++_Dest, ++_First)

  0001e	8b 45 08	 mov	 eax, DWORD PTR __First$[ebp]
  00021	3b 45 0c	 cmp	 eax, DWORD PTR __Last$[ebp]
  00024	75 df		 jne	 SHORT $LL14@Uninit_cop

; 377  : 	_CATCH_ALL
; 378  : 	for (; _Next != _Dest; ++_Next)
; 379  : 		_Dest_val(_Al, _Next);
; 380  : 	_RERAISE;
; 381  : 	_CATCH_END
; 382  : 	return (_Dest);

  00026	8b 45 10	 mov	 eax, DWORD PTR __Dest$[ebp]

; 383  : 	}

  00029	5d		 pop	 ebp
  0002a	c3		 ret	 0
??$_Uninit_copy@V?$_Vector_const_iterator@V?$_Vector_val@UForceInfo@@V?$allocator@UForceInfo@@@std@@@std@@@std@@PAUForceInfo@@V?$allocator@UForceInfo@@@2@@std@@YAPAUForceInfo@@V?$_Vector_const_iterator@V?$_Vector_val@UForceInfo@@V?$allocator@UForceInfo@@@std@@@std@@@0@0PAU1@AAV?$allocator@UForceInfo@@@0@U_Nonscalar_ptr_iterator_tag@0@@Z ENDP ; std::_Uninit_copy<std::_Vector_const_iterator<std::_Vector_val<ForceInfo,std::allocator<ForceInfo> > >,ForceInfo *,std::allocator<ForceInfo> >
_TEXT	ENDS
PUBLIC	??$_Cons_val@V?$allocator@UWeaponInfo@@@std@@UWeaponInfo@@ABU3@@std@@YAXAAV?$allocator@UWeaponInfo@@@0@PAUWeaponInfo@@ABU2@@Z ; std::_Cons_val<std::allocator<WeaponInfo>,WeaponInfo,WeaponInfo const &>
; Function compile flags: /Ogsp
; File c:\program files (x86)\microsoft visual studio 10.0\vc\include\xmemory
;	COMDAT ??$_Cons_val@V?$allocator@UWeaponInfo@@@std@@UWeaponInfo@@ABU3@@std@@YAXAAV?$allocator@UWeaponInfo@@@0@PAUWeaponInfo@@ABU2@@Z
_TEXT	SEGMENT
__Alval$ = 8						; size = 4
__Pdest$ = 12						; size = 4
__Src$ = 16						; size = 4
??$_Cons_val@V?$allocator@UWeaponInfo@@@std@@UWeaponInfo@@ABU3@@std@@YAXAAV?$allocator@UWeaponInfo@@@0@PAUWeaponInfo@@ABU2@@Z PROC ; std::_Cons_val<std::allocator<WeaponInfo>,WeaponInfo,WeaponInfo const &>, COMDAT

; 279  : 	{	// construct using allocator

  00000	55		 push	 ebp
  00001	8b ec		 mov	 ebp, esp

; 280  : 	_Alval.construct(_Pdest, _STD forward<_Ty2>(_Src));

  00003	ff 75 10	 push	 DWORD PTR __Src$[ebp]
  00006	ff 75 0c	 push	 DWORD PTR __Pdest$[ebp]
  00009	e8 00 00 00 00	 call	 ??$_Construct@UWeaponInfo@@ABU1@@std@@YAXPAUWeaponInfo@@ABU1@@Z ; std::_Construct<WeaponInfo,WeaponInfo const &>
  0000e	59		 pop	 ecx
  0000f	59		 pop	 ecx

; 281  : 	}

  00010	5d		 pop	 ebp
  00011	c3		 ret	 0
??$_Cons_val@V?$allocator@UWeaponInfo@@@std@@UWeaponInfo@@ABU3@@std@@YAXAAV?$allocator@UWeaponInfo@@@0@PAUWeaponInfo@@ABU2@@Z ENDP ; std::_Cons_val<std::allocator<WeaponInfo>,WeaponInfo,WeaponInfo const &>
_TEXT	ENDS
PUBLIC	??$_Destroy_range@V?$allocator@UForceInfo@@@std@@@std@@YAXPAUForceInfo@@0AAV?$allocator@UForceInfo@@@0@U_Nonscalar_ptr_iterator_tag@0@@Z ; std::_Destroy_range<std::allocator<ForceInfo> >
; Function compile flags: /Ogsp
;	COMDAT ??$_Destroy_range@V?$allocator@UForceInfo@@@std@@@std@@YAXPAUForceInfo@@0AAV?$allocator@UForceInfo@@@0@U_Nonscalar_ptr_iterator_tag@0@@Z
_TEXT	SEGMENT
__First$ = 8						; size = 4
__Last$ = 12						; size = 4
__Al$ = 16						; size = 4
___formal$ = 20						; size = 1
??$_Destroy_range@V?$allocator@UForceInfo@@@std@@@std@@YAXPAUForceInfo@@0AAV?$allocator@UForceInfo@@@0@U_Nonscalar_ptr_iterator_tag@0@@Z PROC ; std::_Destroy_range<std::allocator<ForceInfo> >, COMDAT

; 96   : 	for (; _First != _Last; ++_First)
; 97   : 		_Dest_val(_Al, _First);
; 98   : 	}

  00000	c3		 ret	 0
??$_Destroy_range@V?$allocator@UForceInfo@@@std@@@std@@YAXPAUForceInfo@@0AAV?$allocator@UForceInfo@@@0@U_Nonscalar_ptr_iterator_tag@0@@Z ENDP ; std::_Destroy_range<std::allocator<ForceInfo> >
_TEXT	ENDS
PUBLIC	??$_Dest_val@V?$allocator@UWeaponInfo@@@std@@UWeaponInfo@@@std@@YAXAAV?$allocator@UWeaponInfo@@@0@PAUWeaponInfo@@@Z ; std::_Dest_val<std::allocator<WeaponInfo>,WeaponInfo>
; Function compile flags: /Ogsp
;	COMDAT ??$_Dest_val@V?$allocator@UWeaponInfo@@@std@@UWeaponInfo@@@std@@YAXAAV?$allocator@UWeaponInfo@@@0@PAUWeaponInfo@@@Z
_TEXT	SEGMENT
__Alval$ = 8						; size = 4
__Pdest$ = 12						; size = 4
??$_Dest_val@V?$allocator@UWeaponInfo@@@std@@UWeaponInfo@@@std@@YAXAAV?$allocator@UWeaponInfo@@@0@PAUWeaponInfo@@@Z PROC ; std::_Dest_val<std::allocator<WeaponInfo>,WeaponInfo>, COMDAT

; 286  : 	{	// destroy using allocator

  00000	55		 push	 ebp
  00001	8b ec		 mov	 ebp, esp

; 287  : 	_Alval.destroy(_Pdest);

  00003	8b 4d 0c	 mov	 ecx, DWORD PTR __Pdest$[ebp]
  00006	83 c1 08	 add	 ecx, 8

; 288  : 	}

  00009	5d		 pop	 ebp

; 287  : 	_Alval.destroy(_Pdest);

  0000a	ff 25 00 00 00
	00		 jmp	 DWORD PTR __imp_??1ioHashString@@QAE@XZ
??$_Dest_val@V?$allocator@UWeaponInfo@@@std@@UWeaponInfo@@@std@@YAXAAV?$allocator@UWeaponInfo@@@0@PAUWeaponInfo@@@Z ENDP ; std::_Dest_val<std::allocator<WeaponInfo>,WeaponInfo>
_TEXT	ENDS
PUBLIC	_pStage$GSCopy$
PUBLIC	__$ArrayPad$
PUBLIC	?OnProcessState@ioChargingFireSkill@@UAEXPAVioBaseChar@@PAVioPlayStage@@@Z ; ioChargingFireSkill::OnProcessState
EXTRN	?GetSkillKeyInput@ioBaseChar@@QAEHXZ:PROC	; ioBaseChar::GetSkillKeyInput
EXTRN	?IsJumpKey@ioBaseChar@@QBE_NXZ:PROC		; ioBaseChar::IsJumpKey
EXTRN	?IsDefenseKey@ioBaseChar@@QBE_NXZ:PROC		; ioBaseChar::IsDefenseKey
EXTRN	?IsAttackKey@ioBaseChar@@QBE_NXZ:PROC		; ioBaseChar::IsAttackKey
EXTRN	?SetTargetRotToTargetPos@ioBaseChar@@QAEXABUD3DXVECTOR3@@_N1@Z:PROC ; ioBaseChar::SetTargetRotToTargetPos
EXTRN	?UpdateMagicCirclePosAll@ioBaseGUISupport@@QAEXMMM_N@Z:PROC ; ioBaseGUISupport::UpdateMagicCirclePosAll
EXTRN	?CheckChangeDirectionForMagicCircle@ioBaseGUISupport@@QAE_NXZ:PROC ; ioBaseGUISupport::CheckChangeDirectionForMagicCircle
; Function compile flags: /Ogsp
; File d:\lost saga for developer\youtube\tutorial\source\src\lsclient\iochargingfireskill.cpp
;	COMDAT ?OnProcessState@ioChargingFireSkill@@UAEXPAVioBaseChar@@PAVioPlayStage@@@Z
_TEXT	SEGMENT
_value$557573 = -28					; size = 4
_pStage$GSCopy$ = -24					; size = 4
_dwCurTime$ = -20					; size = 4
_vTargetPos$548288 = -16				; size = 12
__$ArrayPad$ = -4					; size = 4
_pChar$ = 8						; size = 4
_pStage$ = 12						; size = 4
?OnProcessState@ioChargingFireSkill@@UAEXPAVioBaseChar@@PAVioPlayStage@@@Z PROC ; ioChargingFireSkill::OnProcessState, COMDAT
; _this$ = ecx

; 233  : {

  00000	55		 push	 ebp
  00001	8b ec		 mov	 ebp, esp
  00003	83 ec 1c	 sub	 esp, 28			; 0000001cH
  00006	a1 00 00 00 00	 mov	 eax, DWORD PTR ___security_cookie
  0000b	33 c5		 xor	 eax, ebp
  0000d	89 45 fc	 mov	 DWORD PTR __$ArrayPad$[ebp], eax
  00010	8b 45 0c	 mov	 eax, DWORD PTR _pStage$[ebp]
  00013	53		 push	 ebx
  00014	56		 push	 esi
  00015	8b f1		 mov	 esi, ecx

; 234  : 	int iSlot = GetOwnerItem()->GetType() - 1;

  00017	8b 8e a4 02 00
	00		 mov	 ecx, DWORD PTR [esi+676]

; 235  : 	DWORD dwCurTime = FRAMEGETTIME();

  0001d	89 45 e8	 mov	 DWORD PTR _pStage$GSCopy$[ebp], eax
  00020	8b 01		 mov	 eax, DWORD PTR [ecx]
  00022	57		 push	 edi
  00023	8b 7d 08	 mov	 edi, DWORD PTR _pChar$[ebp]
  00026	ff 50 08	 call	 DWORD PTR [eax+8]
  00029	8d 58 ff	 lea	 ebx, DWORD PTR [eax-1]
  0002c	ff 15 00 00 00
	00		 call	 DWORD PTR __imp_?GetSingleton@ioFrameTimer@@SAAAV1@XZ
  00032	8b c8		 mov	 ecx, eax
  00034	ff 15 00 00 00
	00		 call	 DWORD PTR __imp_?GetLoopSec@ioFrameTimer@@QBEKXZ
  0003a	89 45 ec	 mov	 DWORD PTR _dwCurTime$[ebp], eax

; 236  : 
; 237  : 	switch( m_State )

  0003d	8d 45 e4	 lea	 eax, DWORD PTR _value$557573[ebp]
  00040	50		 push	 eax
  00041	8d 8e 58 0f 00
	00		 lea	 ecx, DWORD PTR [esi+3928]
  00047	e8 00 00 00 00	 call	 ?DecryptValueToPool@?$CEncrypt@H@@QAEXPAH@Z ; CEncrypt<int>::DecryptValueToPool
  0004c	8b 45 e4	 mov	 eax, DWORD PTR _value$557573[ebp]
  0004f	83 e8 00	 sub	 eax, 0
  00052	0f 84 60 01 00
	00		 je	 $LN13@OnProcessS
  00058	48		 dec	 eax
  00059	0f 84 33 01 00
	00		 je	 $LN11@OnProcessS
  0005f	48		 dec	 eax
  00060	74 57		 je	 SHORT $LN9@OnProcessS
  00062	48		 dec	 eax
  00063	0f 85 75 01 00
	00		 jne	 $LN12@OnProcessS

; 290  : 				}
; 291  : 			}
; 292  : 		}
; 293  : 		break;
; 294  : 	case SS_ACTION:
; 295  : 		if( m_dwFireStartTime > 0 && m_dwFireStartTime < dwCurTime )

  00069	8b 86 f0 0f 00
	00		 mov	 eax, DWORD PTR [esi+4080]
  0006f	85 c0		 test	 eax, eax
  00071	74 28		 je	 SHORT $LN22@OnProcessS
  00073	3b 45 ec	 cmp	 eax, DWORD PTR _dwCurTime$[ebp]
  00076	73 23		 jae	 SHORT $LN22@OnProcessS

; 296  : 		{
; 297  : 			if( m_dwChargingEffect != -1 )

  00078	8b 86 28 10 00
	00		 mov	 eax, DWORD PTR [esi+4136]
  0007e	83 f8 ff	 cmp	 eax, -1
  00081	74 11		 je	 SHORT $LN2@OnProcessS

; 298  : 			{
; 299  : 				pChar->EndMapEffect( m_dwChargingEffect, false );

  00083	6a 00		 push	 0
  00085	50		 push	 eax
  00086	8b cf		 mov	 ecx, edi
  00088	e8 00 00 00 00	 call	 ?EndMapEffect@ioBaseChar@@QAEXK_N@Z ; ioBaseChar::EndMapEffect

; 300  : 				m_dwChargingEffect = -1;

  0008d	83 8e 28 10 00
	00 ff		 or	 DWORD PTR [esi+4136], -1
$LN2@OnProcessS:

; 301  : 			}
; 302  : 
; 303  : 			m_dwFireStartTime = 0;

  00094	83 a6 f0 0f 00
	00 00		 and	 DWORD PTR [esi+4080], 0
$LN22@OnProcessS:

; 304  : 		}
; 305  : 
; 306  : 		if( m_dwChargingEffect != -1 )

  0009b	8b b6 28 10 00
	00		 mov	 esi, DWORD PTR [esi+4136]
  000a1	83 fe ff	 cmp	 esi, -1
  000a4	0f 84 34 01 00
	00		 je	 $LN12@OnProcessS

; 307  : 		{
; 308  : 			pChar->UpdateAttachMapEffect( m_dwChargingEffect );

  000aa	6a 00		 push	 0
  000ac	56		 push	 esi
  000ad	8b cf		 mov	 ecx, edi
  000af	e8 00 00 00 00	 call	 ?UpdateAttachMapEffect@ioBaseChar@@QAEXK_N@Z ; ioBaseChar::UpdateAttachMapEffect

; 309  : 		}
; 310  : 		break;

  000b4	e9 25 01 00 00	 jmp	 $LN12@OnProcessS
$LN9@OnProcessS:

; 261  : 	case SS_LOOP:
; 262  : 		{
; 263  : 			//   
; 264  : 			pChar->CheckChangeDirectionForMagicCircle();

  000b9	8d 8f cc 01 00
	00		 lea	 ecx, DWORD PTR [edi+460]
  000bf	e8 00 00 00 00	 call	 ?CheckChangeDirectionForMagicCircle@ioBaseGUISupport@@QAE_NXZ ; ioBaseGUISupport::CheckChangeDirectionForMagicCircle

; 265  : 
; 266  : 			// MagicCircle  
; 267  : 			pChar->UpdateMagicCirclePosAll( m_fCircleMoveSpeed, m_fCircleRange, m_fCircleHeightGap, false );

  000c4	f3 0f 10 86 34
	10 00 00	 movss	 xmm0, DWORD PTR [esi+4148]
  000cc	6a 00		 push	 0
  000ce	83 ec 0c	 sub	 esp, 12			; 0000000cH
  000d1	f3 0f 11 44 24
	08		 movss	 DWORD PTR [esp+8], xmm0
  000d7	f3 0f 10 86 2c
	10 00 00	 movss	 xmm0, DWORD PTR [esi+4140]
  000df	f3 0f 11 44 24
	04		 movss	 DWORD PTR [esp+4], xmm0
  000e5	f3 0f 10 86 30
	10 00 00	 movss	 xmm0, DWORD PTR [esi+4144]
  000ed	8d 8f cc 01 00
	00		 lea	 ecx, DWORD PTR [edi+460]
  000f3	f3 0f 11 04 24	 movss	 DWORD PTR [esp], xmm0
  000f8	e8 00 00 00 00	 call	 ?UpdateMagicCirclePosAll@ioBaseGUISupport@@QAEXMMM_N@Z ; ioBaseGUISupport::UpdateMagicCirclePosAll

; 268  : 
; 269  : 			// MagicCircle   
; 270  : 			D3DXVECTOR3 vTargetPos = pChar->GetMagicCirclePos();

  000fd	0f 57 c0	 xorps	 xmm0, xmm0
  00100	6a 00		 push	 0
  00102	51		 push	 ecx
  00103	8d 45 f0	 lea	 eax, DWORD PTR _vTargetPos$548288[ebp]
  00106	f3 0f 11 04 24	 movss	 DWORD PTR [esp], xmm0
  0010b	50		 push	 eax
  0010c	8d 8f cc 01 00
	00		 lea	 ecx, DWORD PTR [edi+460]
  00112	e8 00 00 00 00	 call	 ?GetMagicCirclePos@ioBaseGUISupport@@QBE?AUD3DXVECTOR3@@M_N@Z ; ioBaseGUISupport::GetMagicCirclePos

; 271  : 			pChar->SetTargetRotToTargetPos( vTargetPos, true, false );

  00117	6a 00		 push	 0
  00119	6a 01		 push	 1
  0011b	8d 45 f0	 lea	 eax, DWORD PTR _vTargetPos$548288[ebp]
  0011e	50		 push	 eax
  0011f	8b cf		 mov	 ecx, edi
  00121	e8 00 00 00 00	 call	 ?SetTargetRotToTargetPos@ioBaseChar@@QAEXABUD3DXVECTOR3@@_N1@Z ; ioBaseChar::SetTargetRotToTargetPos

; 272  : 
; 273  : 			ProcessLoopState( pChar, pStage );

  00126	ff 75 e8	 push	 DWORD PTR _pStage$GSCopy$[ebp]
  00129	8b ce		 mov	 ecx, esi
  0012b	57		 push	 edi
  0012c	e8 00 00 00 00	 call	 ?ProcessLoopState@ioChargingFireSkill@@IAEXPAVioBaseChar@@PAVioPlayStage@@@Z ; ioChargingFireSkill::ProcessLoopState

; 274  : 
; 275  : 			if( m_dwLoopStartTime+m_dwLoopDuration < dwCurTime )

  00131	8b 86 10 10 00
	00		 mov	 eax, DWORD PTR [esi+4112]
  00137	03 86 0c 10 00
	00		 add	 eax, DWORD PTR [esi+4108]
  0013d	3b 45 ec	 cmp	 eax, DWORD PTR _dwCurTime$[ebp]
  00140	73 12		 jae	 SHORT $LN8@OnProcessS

; 276  : 			{
; 277  : 				SetActionState( pChar, pStage, false );

  00142	6a 00		 push	 0
$LN23@OnProcessS:
  00144	ff 75 e8	 push	 DWORD PTR _pStage$GSCopy$[ebp]
  00147	8b ce		 mov	 ecx, esi
  00149	57		 push	 edi
  0014a	e8 00 00 00 00	 call	 ?SetActionState@ioChargingFireSkill@@IAEXPAVioBaseChar@@PAVioPlayStage@@_N@Z ; ioChargingFireSkill::SetActionState

; 278  : 				return;

  0014f	e9 8a 00 00 00	 jmp	 $LN12@OnProcessS
$LN8@OnProcessS:

; 279  : 			}
; 280  : 
; 281  : 			if( pChar->IsNeedProcess() )

  00154	8b 07		 mov	 eax, DWORD PTR [edi]
  00156	8b cf		 mov	 ecx, edi
  00158	ff 90 00 01 00
	00		 call	 DWORD PTR [eax+256]
  0015e	84 c0		 test	 al, al
  00160	74 7c		 je	 SHORT $LN12@OnProcessS

; 282  : 			{
; 283  : 				if( pChar->IsAttackKey() ||
; 284  : 					pChar->IsDefenseKey() ||
; 285  : 					pChar->IsJumpKey() ||
; 286  : 					pChar->GetSkillKeyInput() == iSlot )

  00162	8b cf		 mov	 ecx, edi
  00164	e8 00 00 00 00	 call	 ?IsAttackKey@ioBaseChar@@QBE_NXZ ; ioBaseChar::IsAttackKey
  00169	84 c0		 test	 al, al
  0016b	75 21		 jne	 SHORT $LN5@OnProcessS
  0016d	8b cf		 mov	 ecx, edi
  0016f	e8 00 00 00 00	 call	 ?IsDefenseKey@ioBaseChar@@QBE_NXZ ; ioBaseChar::IsDefenseKey
  00174	84 c0		 test	 al, al
  00176	75 16		 jne	 SHORT $LN5@OnProcessS
  00178	8b cf		 mov	 ecx, edi
  0017a	e8 00 00 00 00	 call	 ?IsJumpKey@ioBaseChar@@QBE_NXZ ; ioBaseChar::IsJumpKey
  0017f	84 c0		 test	 al, al
  00181	75 0b		 jne	 SHORT $LN5@OnProcessS
  00183	8b cf		 mov	 ecx, edi
  00185	e8 00 00 00 00	 call	 ?GetSkillKeyInput@ioBaseChar@@QAEHXZ ; ioBaseChar::GetSkillKeyInput
  0018a	3b c3		 cmp	 eax, ebx
  0018c	75 50		 jne	 SHORT $LN12@OnProcessS
$LN5@OnProcessS:

; 287  : 				{
; 288  : 					SetActionState( pChar, pStage, true );

  0018e	6a 01		 push	 1

; 289  : 					return;

  00190	eb b2		 jmp	 SHORT $LN23@OnProcessS
$LN11@OnProcessS:

; 247  : 			}
; 248  : 		}
; 249  : 		break;
; 250  : 	case SS_PRE_ACTION:
; 251  : 		{
; 252  : 			if( m_dwPreActionEndTime > 0 && m_dwPreActionEndTime < dwCurTime )

  00192	8b 86 08 10 00
	00		 mov	 eax, DWORD PTR [esi+4104]
  00198	85 c0		 test	 eax, eax
  0019a	74 0f		 je	 SHORT $LN10@OnProcessS
  0019c	3b 45 ec	 cmp	 eax, DWORD PTR _dwCurTime$[ebp]
  0019f	73 0a		 jae	 SHORT $LN10@OnProcessS

; 253  : 			{
; 254  : 				SetLoopState( pChar );

  001a1	57		 push	 edi
  001a2	8b ce		 mov	 ecx, esi
  001a4	e8 00 00 00 00	 call	 ?SetLoopState@ioChargingFireSkill@@IAEXPAVioBaseChar@@@Z ; ioChargingFireSkill::SetLoopState

; 255  : 				return;

  001a9	eb 33		 jmp	 SHORT $LN12@OnProcessS
$LN10@OnProcessS:

; 256  : 			}
; 257  : 
; 258  : 			ProcessPreAction( pChar, pStage );

  001ab	ff 75 e8	 push	 DWORD PTR _pStage$GSCopy$[ebp]
  001ae	8b ce		 mov	 ecx, esi
  001b0	57		 push	 edi
  001b1	e8 00 00 00 00	 call	 ?ProcessPreAction@ioChargingFireSkill@@IAEXPAVioBaseChar@@PAVioPlayStage@@@Z ; ioChargingFireSkill::ProcessPreAction

; 259  : 		}
; 260  : 		break;

  001b6	eb 26		 jmp	 SHORT $LN12@OnProcessS
$LN13@OnProcessS:

; 238  : 	{
; 239  : 	case SS_NONE:
; 240  : 		{
; 241  : 			DWORD dwPreDelay = GetPreDelayTime();

  001b8	8b 06		 mov	 eax, DWORD PTR [esi]
  001ba	8b ce		 mov	 ecx, esi
  001bc	ff 90 34 01 00
	00		 call	 DWORD PTR [eax+308]

; 242  : 			if( m_dwPreDelayStartTime + dwPreDelay < dwCurTime )

  001c2	8b 96 20 02 00
	00		 mov	 edx, DWORD PTR [esi+544]
  001c8	03 d0		 add	 edx, eax
  001ca	3b 55 ec	 cmp	 edx, DWORD PTR _dwCurTime$[ebp]
  001cd	73 0f		 jae	 SHORT $LN12@OnProcessS

; 243  : 			{
; 244  : 				m_dwPreDelayStartTime = 0;

  001cf	83 a6 20 02 00
	00 00		 and	 DWORD PTR [esi+544], 0

; 245  : 
; 246  : 				SetPreActionState( pChar );

  001d6	57		 push	 edi
  001d7	8b ce		 mov	 ecx, esi
  001d9	e8 00 00 00 00	 call	 ?SetPreActionState@ioChargingFireSkill@@IAEXPAVioBaseChar@@@Z ; ioChargingFireSkill::SetPreActionState
$LN12@OnProcessS:

; 311  : 	}
; 312  : }

  001de	8b 4d fc	 mov	 ecx, DWORD PTR __$ArrayPad$[ebp]
  001e1	5f		 pop	 edi
  001e2	5e		 pop	 esi
  001e3	33 cd		 xor	 ecx, ebp
  001e5	5b		 pop	 ebx
  001e6	e8 00 00 00 00	 call	 @__security_check_cookie@4
  001eb	c9		 leave
  001ec	c2 08 00	 ret	 8
?OnProcessState@ioChargingFireSkill@@UAEXPAVioBaseChar@@PAVioPlayStage@@@Z ENDP ; ioChargingFireSkill::OnProcessState
_TEXT	ENDS
PUBLIC	??$_Uninitialized_copy@V?$_Vector_const_iterator@V?$_Vector_val@UForceInfo@@V?$allocator@UForceInfo@@@std@@@std@@@std@@PAUForceInfo@@V?$allocator@UForceInfo@@@2@@std@@YAPAUForceInfo@@V?$_Vector_const_iterator@V?$_Vector_val@UForceInfo@@V?$allocator@UForceInfo@@@std@@@std@@@0@0PAU1@AAV?$allocator@UForceInfo@@@0@@Z ; std::_Uninitialized_copy<std::_Vector_const_iterator<std::_Vector_val<ForceInfo,std::allocator<ForceInfo> > >,ForceInfo *,std::allocator<ForceInfo> >
; Function compile flags: /Ogsp
; File c:\program files (x86)\microsoft visual studio 10.0\vc\include\memory
;	COMDAT ??$_Uninitialized_copy@V?$_Vector_const_iterator@V?$_Vector_val@UForceInfo@@V?$allocator@UForceInfo@@@std@@@std@@@std@@PAUForceInfo@@V?$allocator@UForceInfo@@@2@@std@@YAPAUForceInfo@@V?$_Vector_const_iterator@V?$_Vector_val@UForceInfo@@V?$allocator@UForceInfo@@@std@@@std@@@0@0PAU1@AAV?$allocator@UForceInfo@@@0@@Z
_TEXT	SEGMENT
__Cat$557584 = -4					; size = 1
__First$ = 8						; size = 4
__Last$ = 12						; size = 4
__Dest$ = 16						; size = 4
__Al$ = 20						; size = 4
??$_Uninitialized_copy@V?$_Vector_const_iterator@V?$_Vector_val@UForceInfo@@V?$allocator@UForceInfo@@@std@@@std@@@std@@PAUForceInfo@@V?$allocator@UForceInfo@@@2@@std@@YAPAUForceInfo@@V?$_Vector_const_iterator@V?$_Vector_val@UForceInfo@@V?$allocator@UForceInfo@@@std@@@std@@@0@0PAU1@AAV?$allocator@UForceInfo@@@0@@Z PROC ; std::_Uninitialized_copy<std::_Vector_const_iterator<std::_Vector_val<ForceInfo,std::allocator<ForceInfo> > >,ForceInfo *,std::allocator<ForceInfo> >, COMDAT

; 412  : 	{	// copy [_First, _Last) to raw _Dest, using _Al

  00000	55		 push	 ebp
  00001	8b ec		 mov	 ebp, esp
  00003	51		 push	 ecx

; 413  : 	return (_Uninit_copy(_First, _Last, _Dest, _Al,
; 414  : 		_Ptr_cat(_First, _Dest)));

  00004	ff 75 fc	 push	 DWORD PTR __Cat$557584[ebp]
  00007	ff 75 14	 push	 DWORD PTR __Al$[ebp]
  0000a	ff 75 10	 push	 DWORD PTR __Dest$[ebp]
  0000d	ff 75 0c	 push	 DWORD PTR __Last$[ebp]
  00010	ff 75 08	 push	 DWORD PTR __First$[ebp]
  00013	e8 00 00 00 00	 call	 ??$_Uninit_copy@V?$_Vector_const_iterator@V?$_Vector_val@UForceInfo@@V?$allocator@UForceInfo@@@std@@@std@@@std@@PAUForceInfo@@V?$allocator@UForceInfo@@@2@@std@@YAPAUForceInfo@@V?$_Vector_const_iterator@V?$_Vector_val@UForceInfo@@V?$allocator@UForceInfo@@@std@@@std@@@0@0PAU1@AAV?$allocator@UForceInfo@@@0@U_Nonscalar_ptr_iterator_tag@0@@Z ; std::_Uninit_copy<std::_Vector_const_iterator<std::_Vector_val<ForceInfo,std::allocator<ForceInfo> > >,ForceInfo *,std::allocator<ForceInfo> >
  00018	83 c4 14	 add	 esp, 20			; 00000014H

; 415  : 	}

  0001b	c9		 leave
  0001c	c3		 ret	 0
??$_Uninitialized_copy@V?$_Vector_const_iterator@V?$_Vector_val@UForceInfo@@V?$allocator@UForceInfo@@@std@@@std@@@std@@PAUForceInfo@@V?$allocator@UForceInfo@@@2@@std@@YAPAUForceInfo@@V?$_Vector_const_iterator@V?$_Vector_val@UForceInfo@@V?$allocator@UForceInfo@@@std@@@std@@@0@0PAU1@AAV?$allocator@UForceInfo@@@0@@Z ENDP ; std::_Uninitialized_copy<std::_Vector_const_iterator<std::_Vector_val<ForceInfo,std::allocator<ForceInfo> > >,ForceInfo *,std::allocator<ForceInfo> >
_TEXT	ENDS
PUBLIC	??$_Uninit_copy@V?$_Vector_const_iterator@V?$_Vector_val@UWeaponInfo@@V?$allocator@UWeaponInfo@@@std@@@std@@@std@@PAUWeaponInfo@@V?$allocator@UWeaponInfo@@@2@@std@@YAPAUWeaponInfo@@V?$_Vector_const_iterator@V?$_Vector_val@UWeaponInfo@@V?$allocator@UWeaponInfo@@@std@@@std@@@0@0PAU1@AAV?$allocator@UWeaponInfo@@@0@U_Nonscalar_ptr_iterator_tag@0@@Z ; std::_Uninit_copy<std::_Vector_const_iterator<std::_Vector_val<WeaponInfo,std::allocator<WeaponInfo> > >,WeaponInfo *,std::allocator<WeaponInfo> >
EXTRN	__EH_prolog3_catch:PROC
;	COMDAT xdata$x
; File d:\lost saga for developer\youtube\tutorial\source\src\lsclient\playentityhelpstruct.h
xdata$x	SEGMENT
__catchsym$??$_Uninit_copy@V?$_Vector_const_iterator@V?$_Vector_val@UWeaponInfo@@V?$allocator@UWeaponInfo@@@std@@@std@@@std@@PAUWeaponInfo@@V?$allocator@UWeaponInfo@@@2@@std@@YAPAUWeaponInfo@@V?$_Vector_const_iterator@V?$_Vector_val@UWeaponInfo@@V?$allocator@UWeaponInfo@@@std@@@std@@@0@0PAU1@AAV?$allocator@UWeaponInfo@@@0@U_Nonscalar_ptr_iterator_tag@0@@Z$3 DD 040H
	DD	00H
	DD	00H
	DD	FLAT:__catch$??$_Uninit_copy@V?$_Vector_const_iterator@V?$_Vector_val@UWeaponInfo@@V?$allocator@UWeaponInfo@@@std@@@std@@@std@@PAUWeaponInfo@@V?$allocator@UWeaponInfo@@@2@@std@@YAPAUWeaponInfo@@V?$_Vector_const_iterator@V?$_Vector_val@UWeaponInfo@@V?$allocator@UWeaponInfo@@@std@@@std@@@0@0PAU1@AAV?$allocator@UWeaponInfo@@@0@U_Nonscalar_ptr_iterator_tag@0@@Z$0
__unwindtable$??$_Uninit_copy@V?$_Vector_const_iterator@V?$_Vector_val@UWeaponInfo@@V?$allocator@UWeaponInfo@@@std@@@std@@@std@@PAUWeaponInfo@@V?$allocator@UWeaponInfo@@@2@@std@@YAPAUWeaponInfo@@V?$_Vector_const_iterator@V?$_Vector_val@UWeaponInfo@@V?$allocator@UWeaponInfo@@@std@@@std@@@0@0PAU1@AAV?$allocator@UWeaponInfo@@@0@U_Nonscalar_ptr_iterator_tag@0@@Z DD 0ffffffffH
	DD	00H
	DD	0ffffffffH
	DD	00H
__tryblocktable$??$_Uninit_copy@V?$_Vector_const_iterator@V?$_Vector_val@UWeaponInfo@@V?$allocator@UWeaponInfo@@@std@@@std@@@std@@PAUWeaponInfo@@V?$allocator@UWeaponInfo@@@2@@std@@YAPAUWeaponInfo@@V?$_Vector_const_iterator@V?$_Vector_val@UWeaponInfo@@V?$allocator@UWeaponInfo@@@std@@@std@@@0@0PAU1@AAV?$allocator@UWeaponInfo@@@0@U_Nonscalar_ptr_iterator_tag@0@@Z DD 00H
	DD	00H
	DD	01H
	DD	01H
	DD	FLAT:__catchsym$??$_Uninit_copy@V?$_Vector_const_iterator@V?$_Vector_val@UWeaponInfo@@V?$allocator@UWeaponInfo@@@std@@@std@@@std@@PAUWeaponInfo@@V?$allocator@UWeaponInfo@@@2@@std@@YAPAUWeaponInfo@@V?$_Vector_const_iterator@V?$_Vector_val@UWeaponInfo@@V?$allocator@UWeaponInfo@@@std@@@std@@@0@0PAU1@AAV?$allocator@UWeaponInfo@@@0@U_Nonscalar_ptr_iterator_tag@0@@Z$3
__ehfuncinfo$??$_Uninit_copy@V?$_Vector_const_iterator@V?$_Vector_val@UWeaponInfo@@V?$allocator@UWeaponInfo@@@std@@@std@@@std@@PAUWeaponInfo@@V?$allocator@UWeaponInfo@@@2@@std@@YAPAUWeaponInfo@@V?$_Vector_const_iterator@V?$_Vector_val@UWeaponInfo@@V?$allocator@UWeaponInfo@@@std@@@std@@@0@0PAU1@AAV?$allocator@UWeaponInfo@@@0@U_Nonscalar_ptr_iterator_tag@0@@Z DD 019930522H
	DD	02H
	DD	FLAT:__unwindtable$??$_Uninit_copy@V?$_Vector_const_iterator@V?$_Vector_val@UWeaponInfo@@V?$allocator@UWeaponInfo@@@std@@@std@@@std@@PAUWeaponInfo@@V?$allocator@UWeaponInfo@@@2@@std@@YAPAUWeaponInfo@@V?$_Vector_const_iterator@V?$_Vector_val@UWeaponInfo@@V?$allocator@UWeaponInfo@@@std@@@std@@@0@0PAU1@AAV?$allocator@UWeaponInfo@@@0@U_Nonscalar_ptr_iterator_tag@0@@Z
	DD	01H
	DD	FLAT:__tryblocktable$??$_Uninit_copy@V?$_Vector_const_iterator@V?$_Vector_val@UWeaponInfo@@V?$allocator@UWeaponInfo@@@std@@@std@@@std@@PAUWeaponInfo@@V?$allocator@UWeaponInfo@@@2@@std@@YAPAUWeaponInfo@@V?$_Vector_const_iterator@V?$_Vector_val@UWeaponInfo@@V?$allocator@UWeaponInfo@@@std@@@std@@@0@0PAU1@AAV?$allocator@UWeaponInfo@@@0@U_Nonscalar_ptr_iterator_tag@0@@Z
	DD	2 DUP(00H)
	DD	00H
	DD	01H
; Function compile flags: /Ogsp
; File c:\program files (x86)\microsoft visual studio 10.0\vc\include\memory
xdata$x	ENDS
;	COMDAT ??$_Uninit_copy@V?$_Vector_const_iterator@V?$_Vector_val@UWeaponInfo@@V?$allocator@UWeaponInfo@@@std@@@std@@@std@@PAUWeaponInfo@@V?$allocator@UWeaponInfo@@@2@@std@@YAPAUWeaponInfo@@V?$_Vector_const_iterator@V?$_Vector_val@UWeaponInfo@@V?$allocator@UWeaponInfo@@@std@@@std@@@0@0PAU1@AAV?$allocator@UWeaponInfo@@@0@U_Nonscalar_ptr_iterator_tag@0@@Z
_TEXT	SEGMENT
__Next$ = -20						; size = 4
__$EHRec$ = -16						; size = 16
__First$ = 8						; size = 4
__Last$ = 12						; size = 4
__Dest$ = 16						; size = 4
__Al$ = 20						; size = 4
___formal$ = 24						; size = 1
??$_Uninit_copy@V?$_Vector_const_iterator@V?$_Vector_val@UWeaponInfo@@V?$allocator@UWeaponInfo@@@std@@@std@@@std@@PAUWeaponInfo@@V?$allocator@UWeaponInfo@@@2@@std@@YAPAUWeaponInfo@@V?$_Vector_const_iterator@V?$_Vector_val@UWeaponInfo@@V?$allocator@UWeaponInfo@@@std@@@std@@@0@0PAU1@AAV?$allocator@UWeaponInfo@@@0@U_Nonscalar_ptr_iterator_tag@0@@Z PROC ; std::_Uninit_copy<std::_Vector_const_iterator<std::_Vector_val<WeaponInfo,std::allocator<WeaponInfo> > >,WeaponInfo *,std::allocator<WeaponInfo> >, COMDAT

; 369  : 	{	// copy [_First, _Last) to raw _Dest, using _Al, arbitrary type

  00000	6a 08		 push	 8
  00002	b8 00 00 00 00	 mov	 eax, __ehhandler$??$_Uninit_copy@V?$_Vector_const_iterator@V?$_Vector_val@UWeaponInfo@@V?$allocator@UWeaponInfo@@@std@@@std@@@std@@PAUWeaponInfo@@V?$allocator@UWeaponInfo@@@2@@std@@YAPAUWeaponInfo@@V?$_Vector_const_iterator@V?$_Vector_val@UWeaponInfo@@V?$allocator@UWeaponInfo@@@std@@@std@@@0@0PAU1@AAV?$allocator@UWeaponInfo@@@0@U_Nonscalar_ptr_iterator_tag@0@@Z
  00007	e8 00 00 00 00	 call	 __EH_prolog3_catch

; 370  : 	_DEBUG_RANGE(_First, _Last);
; 371  : 	_DEBUG_POINTER(_Dest);
; 372  : 	_FwdIt _Next = _Dest;

  0000c	8b 45 10	 mov	 eax, DWORD PTR __Dest$[ebp]

; 373  : 
; 374  : 	_TRY_BEGIN

  0000f	83 65 fc 00	 and	 DWORD PTR __$EHRec$[ebp+12], 0
  00013	89 45 ec	 mov	 DWORD PTR __Next$[ebp], eax

; 375  : 	for (; _First != _Last; ++_Dest, ++_First)

$LL14@Uninit_cop@2:
  00016	8b 45 08	 mov	 eax, DWORD PTR __First$[ebp]
  00019	3b 45 0c	 cmp	 eax, DWORD PTR __Last$[ebp]
  0001c	74 34		 je	 SHORT $LN4@Uninit_cop@2

; 376  : 		_Cons_val(_Al, _Dest, *_First);

  0001e	50		 push	 eax
  0001f	ff 75 10	 push	 DWORD PTR __Dest$[ebp]
  00022	e8 00 00 00 00	 call	 ??$_Construct@UWeaponInfo@@ABU1@@std@@YAXPAUWeaponInfo@@ABU1@@Z ; std::_Construct<WeaponInfo,WeaponInfo const &>
  00027	83 45 10 28	 add	 DWORD PTR __Dest$[ebp], 40 ; 00000028H
  0002b	83 45 08 28	 add	 DWORD PTR __First$[ebp], 40 ; 00000028H
  0002f	59		 pop	 ecx
  00030	59		 pop	 ecx
  00031	eb e3		 jmp	 SHORT $LL14@Uninit_cop@2
__catch$??$_Uninit_copy@V?$_Vector_const_iterator@V?$_Vector_val@UWeaponInfo@@V?$allocator@UWeaponInfo@@@std@@@std@@@std@@PAUWeaponInfo@@V?$allocator@UWeaponInfo@@@2@@std@@YAPAUWeaponInfo@@V?$_Vector_const_iterator@V?$_Vector_val@UWeaponInfo@@V?$allocator@UWeaponInfo@@@std@@@std@@@0@0PAU1@AAV?$allocator@UWeaponInfo@@@0@U_Nonscalar_ptr_iterator_tag@0@@Z$0:

; 377  : 	_CATCH_ALL
; 378  : 	for (; _Next != _Dest; ++_Next)

  00033	8b 75 ec	 mov	 esi, DWORD PTR __Next$[ebp]
  00036	eb 0c		 jmp	 SHORT $LN48@Uninit_cop@2
$LL3@Uninit_cop@2:

; 379  : 		_Dest_val(_Al, _Next);

  00038	8d 4e 08	 lea	 ecx, DWORD PTR [esi+8]
  0003b	ff 15 00 00 00
	00		 call	 DWORD PTR __imp_??1ioHashString@@QAE@XZ
  00041	83 c6 28	 add	 esi, 40			; 00000028H
$LN48@Uninit_cop@2:

; 377  : 	_CATCH_ALL
; 378  : 	for (; _Next != _Dest; ++_Next)

  00044	3b 75 10	 cmp	 esi, DWORD PTR __Dest$[ebp]
  00047	75 ef		 jne	 SHORT $LL3@Uninit_cop@2

; 380  : 	_RERAISE;

  00049	6a 00		 push	 0
  0004b	6a 00		 push	 0
  0004d	e8 00 00 00 00	 call	 __CxxThrowException@8
$LN49@Uninit_cop@2:
$LN4@Uninit_cop@2:

; 381  : 	_CATCH_END
; 382  : 	return (_Dest);

  00052	8b 45 10	 mov	 eax, DWORD PTR __Dest$[ebp]

; 383  : 	}

  00055	e8 00 00 00 00	 call	 __EH_epilog3
  0005a	c3		 ret	 0
$LN47@Uninit_cop@2:
_TEXT	ENDS
;	COMDAT text$x
text$x	SEGMENT
__ehhandler$??$_Uninit_copy@V?$_Vector_const_iterator@V?$_Vector_val@UWeaponInfo@@V?$allocator@UWeaponInfo@@@std@@@std@@@std@@PAUWeaponInfo@@V?$allocator@UWeaponInfo@@@2@@std@@YAPAUWeaponInfo@@V?$_Vector_const_iterator@V?$_Vector_val@UWeaponInfo@@V?$allocator@UWeaponInfo@@@std@@@std@@@0@0PAU1@AAV?$allocator@UWeaponInfo@@@0@U_Nonscalar_ptr_iterator_tag@0@@Z:
  00000	8b 54 24 08	 mov	 edx, DWORD PTR [esp+8]
  00004	8d 42 0c	 lea	 eax, DWORD PTR [edx+12]
  00007	8b 4a e8	 mov	 ecx, DWORD PTR [edx-24]
  0000a	33 c8		 xor	 ecx, eax
  0000c	e8 00 00 00 00	 call	 @__security_check_cookie@4
  00011	b8 00 00 00 00	 mov	 eax, OFFSET __ehfuncinfo$??$_Uninit_copy@V?$_Vector_const_iterator@V?$_Vector_val@UWeaponInfo@@V?$allocator@UWeaponInfo@@@std@@@std@@@std@@PAUWeaponInfo@@V?$allocator@UWeaponInfo@@@2@@std@@YAPAUWeaponInfo@@V?$_Vector_const_iterator@V?$_Vector_val@UWeaponInfo@@V?$allocator@UWeaponInfo@@@std@@@std@@@0@0PAU1@AAV?$allocator@UWeaponInfo@@@0@U_Nonscalar_ptr_iterator_tag@0@@Z
  00016	e9 00 00 00 00	 jmp	 ___CxxFrameHandler3
text$x	ENDS
??$_Uninit_copy@V?$_Vector_const_iterator@V?$_Vector_val@UWeaponInfo@@V?$allocator@UWeaponInfo@@@std@@@std@@@std@@PAUWeaponInfo@@V?$allocator@UWeaponInfo@@@2@@std@@YAPAUWeaponInfo@@V?$_Vector_const_iterator@V?$_Vector_val@UWeaponInfo@@V?$allocator@UWeaponInfo@@@std@@@std@@@0@0PAU1@AAV?$allocator@UWeaponInfo@@@0@U_Nonscalar_ptr_iterator_tag@0@@Z ENDP ; std::_Uninit_copy<std::_Vector_const_iterator<std::_Vector_val<WeaponInfo,std::allocator<WeaponInfo> > >,WeaponInfo *,std::allocator<WeaponInfo> >
PUBLIC	??$_Destroy_range@V?$allocator@UForceInfo@@@std@@@std@@YAXPAUForceInfo@@0AAV?$allocator@UForceInfo@@@0@@Z ; std::_Destroy_range<std::allocator<ForceInfo> >
; Function compile flags: /Ogsp
; File c:\program files (x86)\microsoft visual studio 10.0\vc\include\xmemory
;	COMDAT ??$_Destroy_range@V?$allocator@UForceInfo@@@std@@@std@@YAXPAUForceInfo@@0AAV?$allocator@UForceInfo@@@0@@Z
_TEXT	SEGMENT
__First$ = 8						; size = 4
__Last$ = 12						; size = 4
__Al$ = 16						; size = 4
??$_Destroy_range@V?$allocator@UForceInfo@@@std@@@std@@YAXPAUForceInfo@@0AAV?$allocator@UForceInfo@@@0@@Z PROC ; std::_Destroy_range<std::allocator<ForceInfo> >, COMDAT

; 88   : 	_Destroy_range(_First, _Last, _Al, _Ptr_cat(_First, _Last));
; 89   : 	}

  00000	c3		 ret	 0
??$_Destroy_range@V?$allocator@UForceInfo@@@std@@@std@@YAXPAUForceInfo@@0AAV?$allocator@UForceInfo@@@0@@Z ENDP ; std::_Destroy_range<std::allocator<ForceInfo> >
_TEXT	ENDS
PUBLIC	??$_Destroy_range@V?$allocator@UWeaponInfo@@@std@@@std@@YAXPAUWeaponInfo@@0AAV?$allocator@UWeaponInfo@@@0@U_Nonscalar_ptr_iterator_tag@0@@Z ; std::_Destroy_range<std::allocator<WeaponInfo> >
; Function compile flags: /Ogsp
;	COMDAT ??$_Destroy_range@V?$allocator@UWeaponInfo@@@std@@@std@@YAXPAUWeaponInfo@@0AAV?$allocator@UWeaponInfo@@@0@U_Nonscalar_ptr_iterator_tag@0@@Z
_TEXT	SEGMENT
__First$ = 8						; size = 4
__Last$ = 12						; size = 4
__Al$ = 16						; size = 4
___formal$ = 20						; size = 1
??$_Destroy_range@V?$allocator@UWeaponInfo@@@std@@@std@@YAXPAUWeaponInfo@@0AAV?$allocator@UWeaponInfo@@@0@U_Nonscalar_ptr_iterator_tag@0@@Z PROC ; std::_Destroy_range<std::allocator<WeaponInfo> >, COMDAT

; 95   : 	{	// destroy [_First, _Last), arbitrary type

  00000	55		 push	 ebp
  00001	8b ec		 mov	 ebp, esp
  00003	56		 push	 esi

; 96   : 	for (; _First != _Last; ++_First)

  00004	8b 75 08	 mov	 esi, DWORD PTR __First$[ebp]
  00007	eb 0c		 jmp	 SHORT $LN20@Destroy_ra
$LL3@Destroy_ra:

; 97   : 		_Dest_val(_Al, _First);

  00009	8d 4e 08	 lea	 ecx, DWORD PTR [esi+8]
  0000c	ff 15 00 00 00
	00		 call	 DWORD PTR __imp_??1ioHashString@@QAE@XZ
  00012	83 c6 28	 add	 esi, 40			; 00000028H
$LN20@Destroy_ra:

; 96   : 	for (; _First != _Last; ++_First)

  00015	3b 75 0c	 cmp	 esi, DWORD PTR __Last$[ebp]
  00018	75 ef		 jne	 SHORT $LL3@Destroy_ra
  0001a	5e		 pop	 esi

; 98   : 	}

  0001b	5d		 pop	 ebp
  0001c	c3		 ret	 0
??$_Destroy_range@V?$allocator@UWeaponInfo@@@std@@@std@@YAXPAUWeaponInfo@@0AAV?$allocator@UWeaponInfo@@@0@U_Nonscalar_ptr_iterator_tag@0@@Z ENDP ; std::_Destroy_range<std::allocator<WeaponInfo> >
_TEXT	ENDS
PUBLIC	??$_Ucopy@V?$_Vector_const_iterator@V?$_Vector_val@UForceInfo@@V?$allocator@UForceInfo@@@std@@@std@@@std@@@?$vector@UForceInfo@@V?$allocator@UForceInfo@@@std@@@std@@IAEPAUForceInfo@@V?$_Vector_const_iterator@V?$_Vector_val@UForceInfo@@V?$allocator@UForceInfo@@@std@@@std@@@1@0PAU2@@Z ; std::vector<ForceInfo,std::allocator<ForceInfo> >::_Ucopy<std::_Vector_const_iterator<std::_Vector_val<ForceInfo,std::allocator<ForceInfo> > > >
; Function compile flags: /Ogsp
; File c:\program files (x86)\microsoft visual studio 10.0\vc\include\vector
;	COMDAT ??$_Ucopy@V?$_Vector_const_iterator@V?$_Vector_val@UForceInfo@@V?$allocator@UForceInfo@@@std@@@std@@@std@@@?$vector@UForceInfo@@V?$allocator@UForceInfo@@@std@@@std@@IAEPAUForceInfo@@V?$_Vector_const_iterator@V?$_Vector_val@UForceInfo@@V?$allocator@UForceInfo@@@std@@@std@@@1@0PAU2@@Z
_TEXT	SEGMENT
__First$ = 8						; size = 4
__Last$ = 12						; size = 4
__Cat$557778 = 16					; size = 1
__Ptr$ = 16						; size = 4
??$_Ucopy@V?$_Vector_const_iterator@V?$_Vector_val@UForceInfo@@V?$allocator@UForceInfo@@@std@@@std@@@std@@@?$vector@UForceInfo@@V?$allocator@UForceInfo@@@std@@@std@@IAEPAUForceInfo@@V?$_Vector_const_iterator@V?$_Vector_val@UForceInfo@@V?$allocator@UForceInfo@@@std@@@std@@@1@0PAU2@@Z PROC ; std::vector<ForceInfo,std::allocator<ForceInfo> >::_Ucopy<std::_Vector_const_iterator<std::_Vector_val<ForceInfo,std::allocator<ForceInfo> > > >, COMDAT
; _this$ = ecx

; 1315 : 		pointer _Ucopy(_Iter _First, _Iter _Last, pointer _Ptr)

  00000	55		 push	 ebp
  00001	8b ec		 mov	 ebp, esp

; 1316 : 		{	// copy initializing [_First, _Last), using allocator
; 1317 : 		return (_Uninitialized_copy(_First, _Last,
; 1318 : 			_Ptr, this->_Alval));

  00003	ff 75 10	 push	 DWORD PTR __Cat$557778[ebp]
  00006	83 c1 0c	 add	 ecx, 12			; 0000000cH
  00009	51		 push	 ecx
  0000a	ff 75 10	 push	 DWORD PTR __Ptr$[ebp]
  0000d	ff 75 0c	 push	 DWORD PTR __Last$[ebp]
  00010	ff 75 08	 push	 DWORD PTR __First$[ebp]
  00013	e8 00 00 00 00	 call	 ??$_Uninit_copy@V?$_Vector_const_iterator@V?$_Vector_val@UForceInfo@@V?$allocator@UForceInfo@@@std@@@std@@@std@@PAUForceInfo@@V?$allocator@UForceInfo@@@2@@std@@YAPAUForceInfo@@V?$_Vector_const_iterator@V?$_Vector_val@UForceInfo@@V?$allocator@UForceInfo@@@std@@@std@@@0@0PAU1@AAV?$allocator@UForceInfo@@@0@U_Nonscalar_ptr_iterator_tag@0@@Z ; std::_Uninit_copy<std::_Vector_const_iterator<std::_Vector_val<ForceInfo,std::allocator<ForceInfo> > >,ForceInfo *,std::allocator<ForceInfo> >
  00018	83 c4 14	 add	 esp, 20			; 00000014H

; 1319 : 		}

  0001b	5d		 pop	 ebp
  0001c	c2 0c 00	 ret	 12			; 0000000cH
??$_Ucopy@V?$_Vector_const_iterator@V?$_Vector_val@UForceInfo@@V?$allocator@UForceInfo@@@std@@@std@@@std@@@?$vector@UForceInfo@@V?$allocator@UForceInfo@@@std@@@std@@IAEPAUForceInfo@@V?$_Vector_const_iterator@V?$_Vector_val@UForceInfo@@V?$allocator@UForceInfo@@@std@@@std@@@1@0PAU2@@Z ENDP ; std::vector<ForceInfo,std::allocator<ForceInfo> >::_Ucopy<std::_Vector_const_iterator<std::_Vector_val<ForceInfo,std::allocator<ForceInfo> > > >
_TEXT	ENDS
PUBLIC	??$_Uninitialized_copy@V?$_Vector_const_iterator@V?$_Vector_val@UWeaponInfo@@V?$allocator@UWeaponInfo@@@std@@@std@@@std@@PAUWeaponInfo@@V?$allocator@UWeaponInfo@@@2@@std@@YAPAUWeaponInfo@@V?$_Vector_const_iterator@V?$_Vector_val@UWeaponInfo@@V?$allocator@UWeaponInfo@@@std@@@std@@@0@0PAU1@AAV?$allocator@UWeaponInfo@@@0@@Z ; std::_Uninitialized_copy<std::_Vector_const_iterator<std::_Vector_val<WeaponInfo,std::allocator<WeaponInfo> > >,WeaponInfo *,std::allocator<WeaponInfo> >
; Function compile flags: /Ogsp
; File c:\program files (x86)\microsoft visual studio 10.0\vc\include\memory
;	COMDAT ??$_Uninitialized_copy@V?$_Vector_const_iterator@V?$_Vector_val@UWeaponInfo@@V?$allocator@UWeaponInfo@@@std@@@std@@@std@@PAUWeaponInfo@@V?$allocator@UWeaponInfo@@@2@@std@@YAPAUWeaponInfo@@V?$_Vector_const_iterator@V?$_Vector_val@UWeaponInfo@@V?$allocator@UWeaponInfo@@@std@@@std@@@0@0PAU1@AAV?$allocator@UWeaponInfo@@@0@@Z
_TEXT	SEGMENT
__Cat$557787 = -4					; size = 1
__First$ = 8						; size = 4
__Last$ = 12						; size = 4
__Dest$ = 16						; size = 4
__Al$ = 20						; size = 4
??$_Uninitialized_copy@V?$_Vector_const_iterator@V?$_Vector_val@UWeaponInfo@@V?$allocator@UWeaponInfo@@@std@@@std@@@std@@PAUWeaponInfo@@V?$allocator@UWeaponInfo@@@2@@std@@YAPAUWeaponInfo@@V?$_Vector_const_iterator@V?$_Vector_val@UWeaponInfo@@V?$allocator@UWeaponInfo@@@std@@@std@@@0@0PAU1@AAV?$allocator@UWeaponInfo@@@0@@Z PROC ; std::_Uninitialized_copy<std::_Vector_const_iterator<std::_Vector_val<WeaponInfo,std::allocator<WeaponInfo> > >,WeaponInfo *,std::allocator<WeaponInfo> >, COMDAT

; 412  : 	{	// copy [_First, _Last) to raw _Dest, using _Al

  00000	55		 push	 ebp
  00001	8b ec		 mov	 ebp, esp
  00003	51		 push	 ecx

; 413  : 	return (_Uninit_copy(_First, _Last, _Dest, _Al,
; 414  : 		_Ptr_cat(_First, _Dest)));

  00004	ff 75 fc	 push	 DWORD PTR __Cat$557787[ebp]
  00007	ff 75 14	 push	 DWORD PTR __Al$[ebp]
  0000a	ff 75 10	 push	 DWORD PTR __Dest$[ebp]
  0000d	ff 75 0c	 push	 DWORD PTR __Last$[ebp]
  00010	ff 75 08	 push	 DWORD PTR __First$[ebp]
  00013	e8 00 00 00 00	 call	 ??$_Uninit_copy@V?$_Vector_const_iterator@V?$_Vector_val@UWeaponInfo@@V?$allocator@UWeaponInfo@@@std@@@std@@@std@@PAUWeaponInfo@@V?$allocator@UWeaponInfo@@@2@@std@@YAPAUWeaponInfo@@V?$_Vector_const_iterator@V?$_Vector_val@UWeaponInfo@@V?$allocator@UWeaponInfo@@@std@@@std@@@0@0PAU1@AAV?$allocator@UWeaponInfo@@@0@U_Nonscalar_ptr_iterator_tag@0@@Z ; std::_Uninit_copy<std::_Vector_const_iterator<std::_Vector_val<WeaponInfo,std::allocator<WeaponInfo> > >,WeaponInfo *,std::allocator<WeaponInfo> >
  00018	83 c4 14	 add	 esp, 20			; 00000014H

; 415  : 	}

  0001b	c9		 leave
  0001c	c3		 ret	 0
??$_Uninitialized_copy@V?$_Vector_const_iterator@V?$_Vector_val@UWeaponInfo@@V?$allocator@UWeaponInfo@@@std@@@std@@@std@@PAUWeaponInfo@@V?$allocator@UWeaponInfo@@@2@@std@@YAPAUWeaponInfo@@V?$_Vector_const_iterator@V?$_Vector_val@UWeaponInfo@@V?$allocator@UWeaponInfo@@@std@@@std@@@0@0PAU1@AAV?$allocator@UWeaponInfo@@@0@@Z ENDP ; std::_Uninitialized_copy<std::_Vector_const_iterator<std::_Vector_val<WeaponInfo,std::allocator<WeaponInfo> > >,WeaponInfo *,std::allocator<WeaponInfo> >
_TEXT	ENDS
PUBLIC	?_Destroy@?$vector@UForceInfo@@V?$allocator@UForceInfo@@@std@@@std@@IAEXPAUForceInfo@@0@Z ; std::vector<ForceInfo,std::allocator<ForceInfo> >::_Destroy
; Function compile flags: /Ogsp
; File c:\program files (x86)\microsoft visual studio 10.0\vc\include\vector
;	COMDAT ?_Destroy@?$vector@UForceInfo@@V?$allocator@UForceInfo@@@std@@@std@@IAEXPAUForceInfo@@0@Z
_TEXT	SEGMENT
__First$ = 8						; size = 4
__Last$ = 12						; size = 4
?_Destroy@?$vector@UForceInfo@@V?$allocator@UForceInfo@@@std@@@std@@IAEXPAUForceInfo@@0@Z PROC ; std::vector<ForceInfo,std::allocator<ForceInfo> >::_Destroy, COMDAT
; _this$ = ecx

; 1270 : 		_Destroy_range(_First, _Last, this->_Alval);
; 1271 : 		}

  00000	c2 08 00	 ret	 8
?_Destroy@?$vector@UForceInfo@@V?$allocator@UForceInfo@@@std@@@std@@IAEXPAUForceInfo@@0@Z ENDP ; std::vector<ForceInfo,std::allocator<ForceInfo> >::_Destroy
_TEXT	ENDS
PUBLIC	??$_Destroy_range@V?$allocator@UWeaponInfo@@@std@@@std@@YAXPAUWeaponInfo@@0AAV?$allocator@UWeaponInfo@@@0@@Z ; std::_Destroy_range<std::allocator<WeaponInfo> >
; Function compile flags: /Ogsp
; File c:\program files (x86)\microsoft visual studio 10.0\vc\include\xmemory
;	COMDAT ??$_Destroy_range@V?$allocator@UWeaponInfo@@@std@@@std@@YAXPAUWeaponInfo@@0AAV?$allocator@UWeaponInfo@@@0@@Z
_TEXT	SEGMENT
__First$ = 8						; size = 4
__Last$ = 12						; size = 4
__Al$ = 16						; size = 4
??$_Destroy_range@V?$allocator@UWeaponInfo@@@std@@@std@@YAXPAUWeaponInfo@@0AAV?$allocator@UWeaponInfo@@@0@@Z PROC ; std::_Destroy_range<std::allocator<WeaponInfo> >, COMDAT

; 87   : 	{	// destroy [_First, _Last)

  00000	55		 push	 ebp
  00001	8b ec		 mov	 ebp, esp
  00003	56		 push	 esi

; 88   : 	_Destroy_range(_First, _Last, _Al, _Ptr_cat(_First, _Last));

  00004	8b 75 08	 mov	 esi, DWORD PTR __First$[ebp]
  00007	eb 0c		 jmp	 SHORT $LN24@Destroy_ra@2
$LL7@Destroy_ra@2:
  00009	8d 4e 08	 lea	 ecx, DWORD PTR [esi+8]
  0000c	ff 15 00 00 00
	00		 call	 DWORD PTR __imp_??1ioHashString@@QAE@XZ
  00012	83 c6 28	 add	 esi, 40			; 00000028H
$LN24@Destroy_ra@2:
  00015	3b 75 0c	 cmp	 esi, DWORD PTR __Last$[ebp]
  00018	75 ef		 jne	 SHORT $LL7@Destroy_ra@2
  0001a	5e		 pop	 esi

; 89   : 	}

  0001b	5d		 pop	 ebp
  0001c	c3		 ret	 0
??$_Destroy_range@V?$allocator@UWeaponInfo@@@std@@@std@@YAXPAUWeaponInfo@@0AAV?$allocator@UWeaponInfo@@@0@@Z ENDP ; std::_Destroy_range<std::allocator<WeaponInfo> >
_TEXT	ENDS
PUBLIC	??$_Ucopy@V?$_Vector_const_iterator@V?$_Vector_val@UWeaponInfo@@V?$allocator@UWeaponInfo@@@std@@@std@@@std@@@?$vector@UWeaponInfo@@V?$allocator@UWeaponInfo@@@std@@@std@@IAEPAUWeaponInfo@@V?$_Vector_const_iterator@V?$_Vector_val@UWeaponInfo@@V?$allocator@UWeaponInfo@@@std@@@std@@@1@0PAU2@@Z ; std::vector<WeaponInfo,std::allocator<WeaponInfo> >::_Ucopy<std::_Vector_const_iterator<std::_Vector_val<WeaponInfo,std::allocator<WeaponInfo> > > >
; Function compile flags: /Ogsp
; File c:\program files (x86)\microsoft visual studio 10.0\vc\include\vector
;	COMDAT ??$_Ucopy@V?$_Vector_const_iterator@V?$_Vector_val@UWeaponInfo@@V?$allocator@UWeaponInfo@@@std@@@std@@@std@@@?$vector@UWeaponInfo@@V?$allocator@UWeaponInfo@@@std@@@std@@IAEPAUWeaponInfo@@V?$_Vector_const_iterator@V?$_Vector_val@UWeaponInfo@@V?$allocator@UWeaponInfo@@@std@@@std@@@1@0PAU2@@Z
_TEXT	SEGMENT
__First$ = 8						; size = 4
__Last$ = 12						; size = 4
__Cat$557925 = 16					; size = 1
__Ptr$ = 16						; size = 4
??$_Ucopy@V?$_Vector_const_iterator@V?$_Vector_val@UWeaponInfo@@V?$allocator@UWeaponInfo@@@std@@@std@@@std@@@?$vector@UWeaponInfo@@V?$allocator@UWeaponInfo@@@std@@@std@@IAEPAUWeaponInfo@@V?$_Vector_const_iterator@V?$_Vector_val@UWeaponInfo@@V?$allocator@UWeaponInfo@@@std@@@std@@@1@0PAU2@@Z PROC ; std::vector<WeaponInfo,std::allocator<WeaponInfo> >::_Ucopy<std::_Vector_const_iterator<std::_Vector_val<WeaponInfo,std::allocator<WeaponInfo> > > >, COMDAT
; _this$ = ecx

; 1315 : 		pointer _Ucopy(_Iter _First, _Iter _Last, pointer _Ptr)

  00000	55		 push	 ebp
  00001	8b ec		 mov	 ebp, esp

; 1316 : 		{	// copy initializing [_First, _Last), using allocator
; 1317 : 		return (_Uninitialized_copy(_First, _Last,
; 1318 : 			_Ptr, this->_Alval));

  00003	ff 75 10	 push	 DWORD PTR __Cat$557925[ebp]
  00006	83 c1 0c	 add	 ecx, 12			; 0000000cH
  00009	51		 push	 ecx
  0000a	ff 75 10	 push	 DWORD PTR __Ptr$[ebp]
  0000d	ff 75 0c	 push	 DWORD PTR __Last$[ebp]
  00010	ff 75 08	 push	 DWORD PTR __First$[ebp]
  00013	e8 00 00 00 00	 call	 ??$_Uninit_copy@V?$_Vector_const_iterator@V?$_Vector_val@UWeaponInfo@@V?$allocator@UWeaponInfo@@@std@@@std@@@std@@PAUWeaponInfo@@V?$allocator@UWeaponInfo@@@2@@std@@YAPAUWeaponInfo@@V?$_Vector_const_iterator@V?$_Vector_val@UWeaponInfo@@V?$allocator@UWeaponInfo@@@std@@@std@@@0@0PAU1@AAV?$allocator@UWeaponInfo@@@0@U_Nonscalar_ptr_iterator_tag@0@@Z ; std::_Uninit_copy<std::_Vector_const_iterator<std::_Vector_val<WeaponInfo,std::allocator<WeaponInfo> > >,WeaponInfo *,std::allocator<WeaponInfo> >
  00018	83 c4 14	 add	 esp, 20			; 00000014H

; 1319 : 		}

  0001b	5d		 pop	 ebp
  0001c	c2 0c 00	 ret	 12			; 0000000cH
??$_Ucopy@V?$_Vector_const_iterator@V?$_Vector_val@UWeaponInfo@@V?$allocator@UWeaponInfo@@@std@@@std@@@std@@@?$vector@UWeaponInfo@@V?$allocator@UWeaponInfo@@@std@@@std@@IAEPAUWeaponInfo@@V?$_Vector_const_iterator@V?$_Vector_val@UWeaponInfo@@V?$allocator@UWeaponInfo@@@std@@@std@@@1@0PAU2@@Z ENDP ; std::vector<WeaponInfo,std::allocator<WeaponInfo> >::_Ucopy<std::_Vector_const_iterator<std::_Vector_val<WeaponInfo,std::allocator<WeaponInfo> > > >
_TEXT	ENDS
PUBLIC	?_Tidy@?$vector@UForceInfo@@V?$allocator@UForceInfo@@@std@@@std@@IAEXXZ ; std::vector<ForceInfo,std::allocator<ForceInfo> >::_Tidy
EXTRN	__imp_?_Orphan_all@_Container_base0@std@@QAEXXZ:PROC
; Function compile flags: /Ogsp
;	COMDAT ?_Tidy@?$vector@UForceInfo@@V?$allocator@UForceInfo@@@std@@@std@@IAEXXZ
_TEXT	SEGMENT
?_Tidy@?$vector@UForceInfo@@V?$allocator@UForceInfo@@@std@@@std@@IAEXXZ PROC ; std::vector<ForceInfo,std::allocator<ForceInfo> >::_Tidy, COMDAT
; _this$ = ecx

; 1301 : 		{	// free all storage

  00000	56		 push	 esi
  00001	8b f1		 mov	 esi, ecx

; 1302 : 		if (this->_Myfirst != 0)

  00003	83 3e 00	 cmp	 DWORD PTR [esi], 0
  00006	74 0e		 je	 SHORT $LN21@Tidy

; 1303 : 			{	// something to free, destroy and deallocate it
; 1304 : 			this->_Orphan_all();

  00008	ff 15 00 00 00
	00		 call	 DWORD PTR __imp_?_Orphan_all@_Container_base0@std@@QAEXXZ

; 1305 : 			_Destroy(this->_Myfirst, this->_Mylast);
; 1306 : 			this->_Alval.deallocate(this->_Myfirst,
; 1307 : 				this->_Myend - this->_Myfirst);

  0000e	ff 36		 push	 DWORD PTR [esi]
  00010	e8 00 00 00 00	 call	 ??3@YAXPAX@Z		; operator delete
  00015	59		 pop	 ecx
$LN21@Tidy:

; 1308 : 			}
; 1309 : 		this->_Myfirst = 0;

  00016	83 26 00	 and	 DWORD PTR [esi], 0

; 1310 : 		this->_Mylast = 0;

  00019	83 66 04 00	 and	 DWORD PTR [esi+4], 0

; 1311 : 		this->_Myend = 0;

  0001d	83 66 08 00	 and	 DWORD PTR [esi+8], 0
  00021	5e		 pop	 esi

; 1312 : 		}

  00022	c3		 ret	 0
?_Tidy@?$vector@UForceInfo@@V?$allocator@UForceInfo@@@std@@@std@@IAEXXZ ENDP ; std::vector<ForceInfo,std::allocator<ForceInfo> >::_Tidy
_TEXT	ENDS
PUBLIC	?_Destroy@?$vector@UWeaponInfo@@V?$allocator@UWeaponInfo@@@std@@@std@@IAEXPAUWeaponInfo@@0@Z ; std::vector<WeaponInfo,std::allocator<WeaponInfo> >::_Destroy
; Function compile flags: /Ogsp
;	COMDAT ?_Destroy@?$vector@UWeaponInfo@@V?$allocator@UWeaponInfo@@@std@@@std@@IAEXPAUWeaponInfo@@0@Z
_TEXT	SEGMENT
__First$ = 8						; size = 4
__Last$ = 12						; size = 4
?_Destroy@?$vector@UWeaponInfo@@V?$allocator@UWeaponInfo@@@std@@@std@@IAEXPAUWeaponInfo@@0@Z PROC ; std::vector<WeaponInfo,std::allocator<WeaponInfo> >::_Destroy, COMDAT
; _this$ = ecx

; 1269 : 		{	// destroy [_First, _Last) using allocator

  00000	55		 push	 ebp
  00001	8b ec		 mov	 ebp, esp

; 1270 : 		_Destroy_range(_First, _Last, this->_Alval);

  00003	83 c1 0c	 add	 ecx, 12			; 0000000cH
  00006	51		 push	 ecx
  00007	ff 75 0c	 push	 DWORD PTR __Last$[ebp]
  0000a	ff 75 08	 push	 DWORD PTR __First$[ebp]
  0000d	e8 00 00 00 00	 call	 ??$_Destroy_range@V?$allocator@UWeaponInfo@@@std@@@std@@YAXPAUWeaponInfo@@0AAV?$allocator@UWeaponInfo@@@0@@Z ; std::_Destroy_range<std::allocator<WeaponInfo> >
  00012	83 c4 0c	 add	 esp, 12			; 0000000cH

; 1271 : 		}

  00015	5d		 pop	 ebp
  00016	c2 08 00	 ret	 8
?_Destroy@?$vector@UWeaponInfo@@V?$allocator@UWeaponInfo@@@std@@@std@@IAEXPAUWeaponInfo@@0@Z ENDP ; std::vector<WeaponInfo,std::allocator<WeaponInfo> >::_Destroy
_TEXT	ENDS
PUBLIC	??0?$vector@UForceInfo@@V?$allocator@UForceInfo@@@std@@@std@@QAE@ABV01@@Z ; std::vector<ForceInfo,std::allocator<ForceInfo> >::vector<ForceInfo,std::allocator<ForceInfo> >
;	COMDAT xdata$x
; File c:\program files (x86)\microsoft visual studio 10.0\vc\include\xutility
xdata$x	SEGMENT
__catchsym$??0?$vector@UForceInfo@@V?$allocator@UForceInfo@@@std@@@std@@QAE@ABV01@@Z$2 DD 040H
	DD	00H
	DD	00H
	DD	FLAT:__catch$??0?$vector@UForceInfo@@V?$allocator@UForceInfo@@@std@@@std@@QAE@ABV01@@Z$0
__unwindtable$??0?$vector@UForceInfo@@V?$allocator@UForceInfo@@@std@@@std@@QAE@ABV01@@Z DD 0ffffffffH
	DD	00H
	DD	0ffffffffH
	DD	00H
__tryblocktable$??0?$vector@UForceInfo@@V?$allocator@UForceInfo@@@std@@@std@@QAE@ABV01@@Z DD 00H
	DD	00H
	DD	01H
	DD	01H
	DD	FLAT:__catchsym$??0?$vector@UForceInfo@@V?$allocator@UForceInfo@@@std@@@std@@QAE@ABV01@@Z$2
__ehfuncinfo$??0?$vector@UForceInfo@@V?$allocator@UForceInfo@@@std@@@std@@QAE@ABV01@@Z DD 019930522H
	DD	02H
	DD	FLAT:__unwindtable$??0?$vector@UForceInfo@@V?$allocator@UForceInfo@@@std@@@std@@QAE@ABV01@@Z
	DD	01H
	DD	FLAT:__tryblocktable$??0?$vector@UForceInfo@@V?$allocator@UForceInfo@@@std@@@std@@QAE@ABV01@@Z
	DD	2 DUP(00H)
	DD	00H
	DD	01H
; Function compile flags: /Ogsp
; File c:\program files (x86)\microsoft visual studio 10.0\vc\include\vector
xdata$x	ENDS
;	COMDAT ??0?$vector@UForceInfo@@V?$allocator@UForceInfo@@@std@@@std@@QAE@ABV01@@Z
_TEXT	SEGMENT
_this$ = -20						; size = 4
__$EHRec$ = -16						; size = 16
__Cat$558086 = 8					; size = 1
__Right$ = 8						; size = 4
??0?$vector@UForceInfo@@V?$allocator@UForceInfo@@@std@@@std@@QAE@ABV01@@Z PROC ; std::vector<ForceInfo,std::allocator<ForceInfo> >::vector<ForceInfo,std::allocator<ForceInfo> >, COMDAT
; _this$ = ecx

; 535  : 		{	// construct by copying _Right

  00000	6a 08		 push	 8
  00002	b8 00 00 00 00	 mov	 eax, __ehhandler$??0?$vector@UForceInfo@@V?$allocator@UForceInfo@@@std@@@std@@QAE@ABV01@@Z
  00007	e8 00 00 00 00	 call	 __EH_prolog3_catch
  0000c	8b f1		 mov	 esi, ecx
  0000e	89 75 ec	 mov	 DWORD PTR _this$[ebp], esi

; 536  : 		if (_Buy(_Right.size()))

  00011	8b 7d 08	 mov	 edi, DWORD PTR __Right$[ebp]
  00014	33 db		 xor	 ebx, ebx
  00016	89 1e		 mov	 DWORD PTR [esi], ebx
  00018	89 5e 04	 mov	 DWORD PTR [esi+4], ebx
  0001b	89 5e 08	 mov	 DWORD PTR [esi+8], ebx
  0001e	8b 47 04	 mov	 eax, DWORD PTR [edi+4]
  00021	2b 07		 sub	 eax, DWORD PTR [edi]
  00023	6a 0c		 push	 12			; 0000000cH
  00025	59		 pop	 ecx
  00026	99		 cdq
  00027	f7 f9		 idiv	 ecx
  00029	8b ce		 mov	 ecx, esi
  0002b	50		 push	 eax
  0002c	e8 00 00 00 00	 call	 ?_Buy@?$vector@UForceInfo@@V?$allocator@UForceInfo@@@std@@@std@@IAE_NI@Z ; std::vector<ForceInfo,std::allocator<ForceInfo> >::_Buy
  00031	84 c0		 test	 al, al
  00033	74 1f		 je	 SHORT $LN7@vector

; 537  : 			_TRY_BEGIN
; 538  : 			this->_Mylast = _Ucopy(_Right.begin(), _Right.end(),
; 539  : 				this->_Myfirst);

  00035	ff 75 08	 push	 DWORD PTR __Cat$558086[ebp]
  00038	8b 0e		 mov	 ecx, DWORD PTR [esi]
  0003a	8b 47 04	 mov	 eax, DWORD PTR [edi+4]
  0003d	8b 3f		 mov	 edi, DWORD PTR [edi]
  0003f	8d 56 0c	 lea	 edx, DWORD PTR [esi+12]
  00042	52		 push	 edx
  00043	51		 push	 ecx
  00044	50		 push	 eax
  00045	57		 push	 edi
  00046	89 5d fc	 mov	 DWORD PTR __$EHRec$[ebp+12], ebx
  00049	e8 00 00 00 00	 call	 ??$_Uninit_copy@V?$_Vector_const_iterator@V?$_Vector_val@UForceInfo@@V?$allocator@UForceInfo@@@std@@@std@@@std@@PAUForceInfo@@V?$allocator@UForceInfo@@@2@@std@@YAPAUForceInfo@@V?$_Vector_const_iterator@V?$_Vector_val@UForceInfo@@V?$allocator@UForceInfo@@@std@@@std@@@0@0PAU1@AAV?$allocator@UForceInfo@@@0@U_Nonscalar_ptr_iterator_tag@0@@Z ; std::_Uninit_copy<std::_Vector_const_iterator<std::_Vector_val<ForceInfo,std::allocator<ForceInfo> > >,ForceInfo *,std::allocator<ForceInfo> >
  0004e	83 c4 14	 add	 esp, 20			; 00000014H
  00051	89 46 04	 mov	 DWORD PTR [esi+4], eax
$LN7@vector:

; 543  : 			_CATCH_END
; 544  : 		}

  00054	8b c6		 mov	 eax, esi
  00056	e8 00 00 00 00	 call	 __EH_epilog3
  0005b	c2 04 00	 ret	 4
__catch$??0?$vector@UForceInfo@@V?$allocator@UForceInfo@@@std@@@std@@QAE@ABV01@@Z$0:

; 540  : 			_CATCH_ALL
; 541  : 			_Tidy();

  0005e	8b 4d ec	 mov	 ecx, DWORD PTR _this$[ebp]
  00061	e8 00 00 00 00	 call	 ?_Tidy@?$vector@UForceInfo@@V?$allocator@UForceInfo@@@std@@@std@@IAEXXZ ; std::vector<ForceInfo,std::allocator<ForceInfo> >::_Tidy

; 542  : 			_RERAISE;

  00066	33 db		 xor	 ebx, ebx
  00068	53		 push	 ebx
  00069	53		 push	 ebx
  0006a	e8 00 00 00 00	 call	 __CxxThrowException@8
$LN38@vector:
$LN37@vector:
  0006f	cc		 int	 3
_TEXT	ENDS
;	COMDAT text$x
text$x	SEGMENT
__ehhandler$??0?$vector@UForceInfo@@V?$allocator@UForceInfo@@@std@@@std@@QAE@ABV01@@Z:
  00000	8b 54 24 08	 mov	 edx, DWORD PTR [esp+8]
  00004	8d 42 0c	 lea	 eax, DWORD PTR [edx+12]
  00007	8b 4a e8	 mov	 ecx, DWORD PTR [edx-24]
  0000a	33 c8		 xor	 ecx, eax
  0000c	e8 00 00 00 00	 call	 @__security_check_cookie@4
  00011	b8 00 00 00 00	 mov	 eax, OFFSET __ehfuncinfo$??0?$vector@UForceInfo@@V?$allocator@UForceInfo@@@std@@@std@@QAE@ABV01@@Z
  00016	e9 00 00 00 00	 jmp	 ___CxxFrameHandler3
text$x	ENDS
??0?$vector@UForceInfo@@V?$allocator@UForceInfo@@@std@@@std@@QAE@ABV01@@Z ENDP ; std::vector<ForceInfo,std::allocator<ForceInfo> >::vector<ForceInfo,std::allocator<ForceInfo> >
PUBLIC	??1?$vector@UForceInfo@@V?$allocator@UForceInfo@@@std@@@std@@QAE@XZ ; std::vector<ForceInfo,std::allocator<ForceInfo> >::~vector<ForceInfo,std::allocator<ForceInfo> >
; Function compile flags: /Ogsp
;	COMDAT ??1?$vector@UForceInfo@@V?$allocator@UForceInfo@@@std@@@std@@QAE@XZ
_TEXT	SEGMENT
??1?$vector@UForceInfo@@V?$allocator@UForceInfo@@@std@@@std@@QAE@XZ PROC ; std::vector<ForceInfo,std::allocator<ForceInfo> >::~vector<ForceInfo,std::allocator<ForceInfo> >, COMDAT
; _this$ = ecx

; 705  : 		_Tidy();

  00000	e9 00 00 00 00	 jmp	 ?_Tidy@?$vector@UForceInfo@@V?$allocator@UForceInfo@@@std@@@std@@IAEXXZ ; std::vector<ForceInfo,std::allocator<ForceInfo> >::_Tidy
??1?$vector@UForceInfo@@V?$allocator@UForceInfo@@@std@@@std@@QAE@XZ ENDP ; std::vector<ForceInfo,std::allocator<ForceInfo> >::~vector<ForceInfo,std::allocator<ForceInfo> >
_TEXT	ENDS
PUBLIC	?_Tidy@?$vector@UWeaponInfo@@V?$allocator@UWeaponInfo@@@std@@@std@@IAEXXZ ; std::vector<WeaponInfo,std::allocator<WeaponInfo> >::_Tidy
; Function compile flags: /Ogsp
;	COMDAT ?_Tidy@?$vector@UWeaponInfo@@V?$allocator@UWeaponInfo@@@std@@@std@@IAEXXZ
_TEXT	SEGMENT
?_Tidy@?$vector@UWeaponInfo@@V?$allocator@UWeaponInfo@@@std@@@std@@IAEXXZ PROC ; std::vector<WeaponInfo,std::allocator<WeaponInfo> >::_Tidy, COMDAT
; _this$ = ecx

; 1301 : 		{	// free all storage

  00000	56		 push	 esi
  00001	8b f1		 mov	 esi, ecx

; 1302 : 		if (this->_Myfirst != 0)

  00003	83 3e 00	 cmp	 DWORD PTR [esi], 0
  00006	74 1e		 je	 SHORT $LN6@Tidy@2

; 1303 : 			{	// something to free, destroy and deallocate it
; 1304 : 			this->_Orphan_all();

  00008	ff 15 00 00 00
	00		 call	 DWORD PTR __imp_?_Orphan_all@_Container_base0@std@@QAEXXZ

; 1305 : 			_Destroy(this->_Myfirst, this->_Mylast);

  0000e	8d 46 0c	 lea	 eax, DWORD PTR [esi+12]
  00011	50		 push	 eax
  00012	ff 76 04	 push	 DWORD PTR [esi+4]
  00015	ff 36		 push	 DWORD PTR [esi]
  00017	e8 00 00 00 00	 call	 ??$_Destroy_range@V?$allocator@UWeaponInfo@@@std@@@std@@YAXPAUWeaponInfo@@0AAV?$allocator@UWeaponInfo@@@0@@Z ; std::_Destroy_range<std::allocator<WeaponInfo> >

; 1306 : 			this->_Alval.deallocate(this->_Myfirst,
; 1307 : 				this->_Myend - this->_Myfirst);

  0001c	ff 36		 push	 DWORD PTR [esi]
  0001e	e8 00 00 00 00	 call	 ??3@YAXPAX@Z		; operator delete
  00023	83 c4 10	 add	 esp, 16			; 00000010H
$LN6@Tidy@2:

; 1308 : 			}
; 1309 : 		this->_Myfirst = 0;

  00026	83 26 00	 and	 DWORD PTR [esi], 0

; 1310 : 		this->_Mylast = 0;

  00029	83 66 04 00	 and	 DWORD PTR [esi+4], 0

; 1311 : 		this->_Myend = 0;

  0002d	83 66 08 00	 and	 DWORD PTR [esi+8], 0
  00031	5e		 pop	 esi

; 1312 : 		}

  00032	c3		 ret	 0
?_Tidy@?$vector@UWeaponInfo@@V?$allocator@UWeaponInfo@@@std@@@std@@IAEXXZ ENDP ; std::vector<WeaponInfo,std::allocator<WeaponInfo> >::_Tidy
_TEXT	ENDS
PUBLIC	??0?$vector@UWeaponInfo@@V?$allocator@UWeaponInfo@@@std@@@std@@QAE@ABV01@@Z ; std::vector<WeaponInfo,std::allocator<WeaponInfo> >::vector<WeaponInfo,std::allocator<WeaponInfo> >
;	COMDAT xdata$x
; File c:\program files (x86)\microsoft visual studio 10.0\vc\include\xutility
xdata$x	SEGMENT
__catchsym$??0?$vector@UWeaponInfo@@V?$allocator@UWeaponInfo@@@std@@@std@@QAE@ABV01@@Z$2 DD 040H
	DD	00H
	DD	00H
	DD	FLAT:__catch$??0?$vector@UWeaponInfo@@V?$allocator@UWeaponInfo@@@std@@@std@@QAE@ABV01@@Z$0
__unwindtable$??0?$vector@UWeaponInfo@@V?$allocator@UWeaponInfo@@@std@@@std@@QAE@ABV01@@Z DD 0ffffffffH
	DD	00H
	DD	0ffffffffH
	DD	00H
__tryblocktable$??0?$vector@UWeaponInfo@@V?$allocator@UWeaponInfo@@@std@@@std@@QAE@ABV01@@Z DD 00H
	DD	00H
	DD	01H
	DD	01H
	DD	FLAT:__catchsym$??0?$vector@UWeaponInfo@@V?$allocator@UWeaponInfo@@@std@@@std@@QAE@ABV01@@Z$2
__ehfuncinfo$??0?$vector@UWeaponInfo@@V?$allocator@UWeaponInfo@@@std@@@std@@QAE@ABV01@@Z DD 019930522H
	DD	02H
	DD	FLAT:__unwindtable$??0?$vector@UWeaponInfo@@V?$allocator@UWeaponInfo@@@std@@@std@@QAE@ABV01@@Z
	DD	01H
	DD	FLAT:__tryblocktable$??0?$vector@UWeaponInfo@@V?$allocator@UWeaponInfo@@@std@@@std@@QAE@ABV01@@Z
	DD	2 DUP(00H)
	DD	00H
	DD	01H
; Function compile flags: /Ogsp
; File c:\program files (x86)\microsoft visual studio 10.0\vc\include\vector
xdata$x	ENDS
;	COMDAT ??0?$vector@UWeaponInfo@@V?$allocator@UWeaponInfo@@@std@@@std@@QAE@ABV01@@Z
_TEXT	SEGMENT
_this$ = -20						; size = 4
__$EHRec$ = -16						; size = 16
__Cat$558206 = 8					; size = 1
__Right$ = 8						; size = 4
??0?$vector@UWeaponInfo@@V?$allocator@UWeaponInfo@@@std@@@std@@QAE@ABV01@@Z PROC ; std::vector<WeaponInfo,std::allocator<WeaponInfo> >::vector<WeaponInfo,std::allocator<WeaponInfo> >, COMDAT
; _this$ = ecx

; 535  : 		{	// construct by copying _Right

  00000	6a 08		 push	 8
  00002	b8 00 00 00 00	 mov	 eax, __ehhandler$??0?$vector@UWeaponInfo@@V?$allocator@UWeaponInfo@@@std@@@std@@QAE@ABV01@@Z
  00007	e8 00 00 00 00	 call	 __EH_prolog3_catch
  0000c	8b f1		 mov	 esi, ecx
  0000e	89 75 ec	 mov	 DWORD PTR _this$[ebp], esi

; 536  : 		if (_Buy(_Right.size()))

  00011	8b 7d 08	 mov	 edi, DWORD PTR __Right$[ebp]
  00014	33 db		 xor	 ebx, ebx
  00016	89 1e		 mov	 DWORD PTR [esi], ebx
  00018	89 5e 04	 mov	 DWORD PTR [esi+4], ebx
  0001b	89 5e 08	 mov	 DWORD PTR [esi+8], ebx
  0001e	8b 47 04	 mov	 eax, DWORD PTR [edi+4]
  00021	2b 07		 sub	 eax, DWORD PTR [edi]
  00023	6a 28		 push	 40			; 00000028H
  00025	59		 pop	 ecx
  00026	99		 cdq
  00027	f7 f9		 idiv	 ecx
  00029	8b ce		 mov	 ecx, esi
  0002b	50		 push	 eax
  0002c	e8 00 00 00 00	 call	 ?_Buy@?$vector@UWeaponInfo@@V?$allocator@UWeaponInfo@@@std@@@std@@IAE_NI@Z ; std::vector<WeaponInfo,std::allocator<WeaponInfo> >::_Buy
  00031	84 c0		 test	 al, al
  00033	74 1f		 je	 SHORT $LN7@vector@2

; 537  : 			_TRY_BEGIN
; 538  : 			this->_Mylast = _Ucopy(_Right.begin(), _Right.end(),
; 539  : 				this->_Myfirst);

  00035	ff 75 08	 push	 DWORD PTR __Cat$558206[ebp]
  00038	8b 0e		 mov	 ecx, DWORD PTR [esi]
  0003a	8b 47 04	 mov	 eax, DWORD PTR [edi+4]
  0003d	8b 3f		 mov	 edi, DWORD PTR [edi]
  0003f	8d 56 0c	 lea	 edx, DWORD PTR [esi+12]
  00042	52		 push	 edx
  00043	51		 push	 ecx
  00044	50		 push	 eax
  00045	57		 push	 edi
  00046	89 5d fc	 mov	 DWORD PTR __$EHRec$[ebp+12], ebx
  00049	e8 00 00 00 00	 call	 ??$_Uninit_copy@V?$_Vector_const_iterator@V?$_Vector_val@UWeaponInfo@@V?$allocator@UWeaponInfo@@@std@@@std@@@std@@PAUWeaponInfo@@V?$allocator@UWeaponInfo@@@2@@std@@YAPAUWeaponInfo@@V?$_Vector_const_iterator@V?$_Vector_val@UWeaponInfo@@V?$allocator@UWeaponInfo@@@std@@@std@@@0@0PAU1@AAV?$allocator@UWeaponInfo@@@0@U_Nonscalar_ptr_iterator_tag@0@@Z ; std::_Uninit_copy<std::_Vector_const_iterator<std::_Vector_val<WeaponInfo,std::allocator<WeaponInfo> > >,WeaponInfo *,std::allocator<WeaponInfo> >
  0004e	83 c4 14	 add	 esp, 20			; 00000014H
  00051	89 46 04	 mov	 DWORD PTR [esi+4], eax
$LN7@vector@2:

; 543  : 			_CATCH_END
; 544  : 		}

  00054	8b c6		 mov	 eax, esi
  00056	e8 00 00 00 00	 call	 __EH_epilog3
  0005b	c2 04 00	 ret	 4
__catch$??0?$vector@UWeaponInfo@@V?$allocator@UWeaponInfo@@@std@@@std@@QAE@ABV01@@Z$0:

; 540  : 			_CATCH_ALL
; 541  : 			_Tidy();

  0005e	8b 4d ec	 mov	 ecx, DWORD PTR _this$[ebp]
  00061	e8 00 00 00 00	 call	 ?_Tidy@?$vector@UWeaponInfo@@V?$allocator@UWeaponInfo@@@std@@@std@@IAEXXZ ; std::vector<WeaponInfo,std::allocator<WeaponInfo> >::_Tidy

; 542  : 			_RERAISE;

  00066	33 db		 xor	 ebx, ebx
  00068	53		 push	 ebx
  00069	53		 push	 ebx
  0006a	e8 00 00 00 00	 call	 __CxxThrowException@8
$LN38@vector@2:
$LN37@vector@2:
  0006f	cc		 int	 3
_TEXT	ENDS
;	COMDAT text$x
text$x	SEGMENT
__ehhandler$??0?$vector@UWeaponInfo@@V?$allocator@UWeaponInfo@@@std@@@std@@QAE@ABV01@@Z:
  00000	8b 54 24 08	 mov	 edx, DWORD PTR [esp+8]
  00004	8d 42 0c	 lea	 eax, DWORD PTR [edx+12]
  00007	8b 4a e8	 mov	 ecx, DWORD PTR [edx-24]
  0000a	33 c8		 xor	 ecx, eax
  0000c	e8 00 00 00 00	 call	 @__security_check_cookie@4
  00011	b8 00 00 00 00	 mov	 eax, OFFSET __ehfuncinfo$??0?$vector@UWeaponInfo@@V?$allocator@UWeaponInfo@@@std@@@std@@QAE@ABV01@@Z
  00016	e9 00 00 00 00	 jmp	 ___CxxFrameHandler3
text$x	ENDS
??0?$vector@UWeaponInfo@@V?$allocator@UWeaponInfo@@@std@@@std@@QAE@ABV01@@Z ENDP ; std::vector<WeaponInfo,std::allocator<WeaponInfo> >::vector<WeaponInfo,std::allocator<WeaponInfo> >
PUBLIC	??1?$vector@UWeaponInfo@@V?$allocator@UWeaponInfo@@@std@@@std@@QAE@XZ ; std::vector<WeaponInfo,std::allocator<WeaponInfo> >::~vector<WeaponInfo,std::allocator<WeaponInfo> >
; Function compile flags: /Ogsp
;	COMDAT ??1?$vector@UWeaponInfo@@V?$allocator@UWeaponInfo@@@std@@@std@@QAE@XZ
_TEXT	SEGMENT
??1?$vector@UWeaponInfo@@V?$allocator@UWeaponInfo@@@std@@@std@@QAE@XZ PROC ; std::vector<WeaponInfo,std::allocator<WeaponInfo> >::~vector<WeaponInfo,std::allocator<WeaponInfo> >, COMDAT
; _this$ = ecx

; 705  : 		_Tidy();

  00000	e9 00 00 00 00	 jmp	 ?_Tidy@?$vector@UWeaponInfo@@V?$allocator@UWeaponInfo@@@std@@@std@@IAEXXZ ; std::vector<WeaponInfo,std::allocator<WeaponInfo> >::_Tidy
??1?$vector@UWeaponInfo@@V?$allocator@UWeaponInfo@@@std@@@std@@QAE@XZ ENDP ; std::vector<WeaponInfo,std::allocator<WeaponInfo> >::~vector<WeaponInfo,std::allocator<WeaponInfo> >
_TEXT	ENDS
PUBLIC	??0AttackAttribute@@QAE@ABU0@@Z			; AttackAttribute::AttackAttribute
;	COMDAT xdata$x
xdata$x	SEGMENT
__unwindtable$??0AttackAttribute@@QAE@ABU0@@Z DD 0ffffffffH
	DD	FLAT:__unwindfunclet$??0AttackAttribute@@QAE@ABU0@@Z$0
	DD	00H
	DD	FLAT:__unwindfunclet$??0AttackAttribute@@QAE@ABU0@@Z$1
	DD	01H
	DD	FLAT:__unwindfunclet$??0AttackAttribute@@QAE@ABU0@@Z$2
__ehfuncinfo$??0AttackAttribute@@QAE@ABU0@@Z DD 019930522H
	DD	03H
	DD	FLAT:__unwindtable$??0AttackAttribute@@QAE@ABU0@@Z
	DD	2 DUP(00H)
	DD	2 DUP(00H)
	DD	00H
	DD	01H
; Function compile flags: /Ogsp
xdata$x	ENDS
;	COMDAT ??0AttackAttribute@@QAE@ABU0@@Z
_TEXT	SEGMENT
_this$ = -16						; size = 4
__$EHRec$ = -12						; size = 12
___that$ = 8						; size = 4
??0AttackAttribute@@QAE@ABU0@@Z PROC			; AttackAttribute::AttackAttribute, COMDAT
; _this$ = ecx
  00000	6a 04		 push	 4
  00002	b8 00 00 00 00	 mov	 eax, __ehhandler$??0AttackAttribute@@QAE@ABU0@@Z
  00007	e8 00 00 00 00	 call	 __EH_prolog3
  0000c	8b f1		 mov	 esi, ecx
  0000e	89 75 f0	 mov	 DWORD PTR _this$[ebp], esi
  00011	8b 7d 08	 mov	 edi, DWORD PTR ___that$[ebp]
  00014	8b 1d 00 00 00
	00		 mov	 ebx, DWORD PTR __imp_??0ioHashString@@QAE@ABV0@@Z
  0001a	57		 push	 edi
  0001b	ff d3		 call	 ebx
  0001d	d9 47 10	 fld	 DWORD PTR [edi+16]
  00020	83 65 fc 00	 and	 DWORD PTR __$EHRec$[ebp+8], 0
  00024	d9 5e 10	 fstp	 DWORD PTR [esi+16]
  00027	8d 47 14	 lea	 eax, DWORD PTR [edi+20]
  0002a	50		 push	 eax
  0002b	8d 4e 14	 lea	 ecx, DWORD PTR [esi+20]
  0002e	ff d3		 call	 ebx
  00030	d9 47 24	 fld	 DWORD PTR [edi+36]
  00033	8d 47 28	 lea	 eax, DWORD PTR [edi+40]
  00036	d9 5e 24	 fstp	 DWORD PTR [esi+36]
  00039	50		 push	 eax
  0003a	8d 4e 28	 lea	 ecx, DWORD PTR [esi+40]
  0003d	c6 45 fc 01	 mov	 BYTE PTR __$EHRec$[ebp+8], 1
  00041	e8 00 00 00 00	 call	 ??0?$vector@UWeaponInfo@@V?$allocator@UWeaponInfo@@@std@@@std@@QAE@ABV01@@Z ; std::vector<WeaponInfo,std::allocator<WeaponInfo> >::vector<WeaponInfo,std::allocator<WeaponInfo> >
  00046	8d 47 38	 lea	 eax, DWORD PTR [edi+56]
  00049	50		 push	 eax
  0004a	8d 4e 38	 lea	 ecx, DWORD PTR [esi+56]
  0004d	c6 45 fc 02	 mov	 BYTE PTR __$EHRec$[ebp+8], 2
  00051	e8 00 00 00 00	 call	 ??0?$vector@UForceInfo@@V?$allocator@UForceInfo@@@std@@@std@@QAE@ABV01@@Z ; std::vector<ForceInfo,std::allocator<ForceInfo> >::vector<ForceInfo,std::allocator<ForceInfo> >
  00056	8b 47 48	 mov	 eax, DWORD PTR [edi+72]
  00059	89 46 48	 mov	 DWORD PTR [esi+72], eax
  0005c	8b 47 4c	 mov	 eax, DWORD PTR [edi+76]
  0005f	89 46 4c	 mov	 DWORD PTR [esi+76], eax
  00062	8b c6		 mov	 eax, esi
  00064	e8 00 00 00 00	 call	 __EH_epilog3
  00069	c2 04 00	 ret	 4
_TEXT	ENDS
;	COMDAT text$x
text$x	SEGMENT
__unwindfunclet$??0AttackAttribute@@QAE@ABU0@@Z$0:
  00000	8b 4d f0	 mov	 ecx, DWORD PTR _this$[ebp]
  00003	ff 25 00 00 00
	00		 jmp	 DWORD PTR __imp_??1ioHashString@@QAE@XZ
__unwindfunclet$??0AttackAttribute@@QAE@ABU0@@Z$1:
  00009	8b 4d f0	 mov	 ecx, DWORD PTR _this$[ebp]
  0000c	83 c1 14	 add	 ecx, 20			; 00000014H
  0000f	ff 25 00 00 00
	00		 jmp	 DWORD PTR __imp_??1ioHashString@@QAE@XZ
__unwindfunclet$??0AttackAttribute@@QAE@ABU0@@Z$2:
  00015	8b 4d f0	 mov	 ecx, DWORD PTR _this$[ebp]
  00018	83 c1 28	 add	 ecx, 40			; 00000028H
  0001b	e9 00 00 00 00	 jmp	 ??1?$vector@UWeaponInfo@@V?$allocator@UWeaponInfo@@@std@@@std@@QAE@XZ ; std::vector<WeaponInfo,std::allocator<WeaponInfo> >::~vector<WeaponInfo,std::allocator<WeaponInfo> >
__ehhandler$??0AttackAttribute@@QAE@ABU0@@Z:
  00020	8b 54 24 08	 mov	 edx, DWORD PTR [esp+8]
  00024	8d 42 0c	 lea	 eax, DWORD PTR [edx+12]
  00027	8b 4a ec	 mov	 ecx, DWORD PTR [edx-20]
  0002a	33 c8		 xor	 ecx, eax
  0002c	e8 00 00 00 00	 call	 @__security_check_cookie@4
  00031	b8 00 00 00 00	 mov	 eax, OFFSET __ehfuncinfo$??0AttackAttribute@@QAE@ABU0@@Z
  00036	e9 00 00 00 00	 jmp	 ___CxxFrameHandler3
text$x	ENDS
??0AttackAttribute@@QAE@ABU0@@Z ENDP			; AttackAttribute::AttackAttribute
PUBLIC	??0AttackAttribute@@QAE@XZ			; AttackAttribute::AttackAttribute
;	COMDAT xdata$x
; File c:\program files (x86)\microsoft visual studio 10.0\vc\include\xmemory
xdata$x	SEGMENT
__unwindtable$??0AttackAttribute@@QAE@XZ DD 0ffffffffH
	DD	FLAT:__unwindfunclet$??0AttackAttribute@@QAE@XZ$0
	DD	00H
	DD	FLAT:__unwindfunclet$??0AttackAttribute@@QAE@XZ$1
	DD	01H
	DD	FLAT:__unwindfunclet$??0AttackAttribute@@QAE@XZ$2
	DD	02H
	DD	FLAT:__unwindfunclet$??0AttackAttribute@@QAE@XZ$3
__ehfuncinfo$??0AttackAttribute@@QAE@XZ DD 019930522H
	DD	04H
	DD	FLAT:__unwindtable$??0AttackAttribute@@QAE@XZ
	DD	2 DUP(00H)
	DD	2 DUP(00H)
	DD	00H
	DD	01H
; Function compile flags: /Ogsp
; File d:\lost saga for developer\youtube\tutorial\source\src\lsclient\ioattackattribute.h
xdata$x	ENDS
;	COMDAT ??0AttackAttribute@@QAE@XZ
_TEXT	SEGMENT
_this$ = -16						; size = 4
__$EHRec$ = -12						; size = 12
??0AttackAttribute@@QAE@XZ PROC				; AttackAttribute::AttackAttribute, COMDAT
; _this$ = ecx

; 107  : 	AttackAttribute()

  00000	6a 04		 push	 4
  00002	b8 00 00 00 00	 mov	 eax, __ehhandler$??0AttackAttribute@@QAE@XZ
  00007	e8 00 00 00 00	 call	 __EH_prolog3
  0000c	8b f1		 mov	 esi, ecx
  0000e	89 75 f0	 mov	 DWORD PTR _this$[ebp], esi
  00011	8b 3d 00 00 00
	00		 mov	 edi, DWORD PTR __imp_??0ioHashString@@QAE@XZ
  00017	ff d7		 call	 edi
  00019	33 db		 xor	 ebx, ebx
  0001b	8d 4e 14	 lea	 ecx, DWORD PTR [esi+20]
  0001e	89 5d fc	 mov	 DWORD PTR __$EHRec$[ebp+8], ebx
  00021	ff d7		 call	 edi
  00023	89 5e 28	 mov	 DWORD PTR [esi+40], ebx
  00026	89 5e 2c	 mov	 DWORD PTR [esi+44], ebx
  00029	89 5e 30	 mov	 DWORD PTR [esi+48], ebx
  0002c	89 5e 38	 mov	 DWORD PTR [esi+56], ebx
  0002f	89 5e 3c	 mov	 DWORD PTR [esi+60], ebx
  00032	89 5e 40	 mov	 DWORD PTR [esi+64], ebx

; 108  : 	{
; 109  : 		Init();

  00035	8b ce		 mov	 ecx, esi
  00037	c6 45 fc 03	 mov	 BYTE PTR __$EHRec$[ebp+8], 3
  0003b	e8 00 00 00 00	 call	 ?Init@AttackAttribute@@QAEXXZ ; AttackAttribute::Init

; 110  : 	}

  00040	8b c6		 mov	 eax, esi
  00042	e8 00 00 00 00	 call	 __EH_epilog3
  00047	c3		 ret	 0
_TEXT	ENDS
;	COMDAT text$x
text$x	SEGMENT
__unwindfunclet$??0AttackAttribute@@QAE@XZ$0:
  00000	8b 4d f0	 mov	 ecx, DWORD PTR _this$[ebp]
  00003	ff 25 00 00 00
	00		 jmp	 DWORD PTR __imp_??1ioHashString@@QAE@XZ
__unwindfunclet$??0AttackAttribute@@QAE@XZ$1:
  00009	8b 4d f0	 mov	 ecx, DWORD PTR _this$[ebp]
  0000c	83 c1 14	 add	 ecx, 20			; 00000014H
  0000f	ff 25 00 00 00
	00		 jmp	 DWORD PTR __imp_??1ioHashString@@QAE@XZ
__unwindfunclet$??0AttackAttribute@@QAE@XZ$2:
  00015	8b 4d f0	 mov	 ecx, DWORD PTR _this$[ebp]
  00018	83 c1 28	 add	 ecx, 40			; 00000028H
  0001b	e9 00 00 00 00	 jmp	 ??1?$vector@UWeaponInfo@@V?$allocator@UWeaponInfo@@@std@@@std@@QAE@XZ ; std::vector<WeaponInfo,std::allocator<WeaponInfo> >::~vector<WeaponInfo,std::allocator<WeaponInfo> >
__unwindfunclet$??0AttackAttribute@@QAE@XZ$3:
  00020	8b 4d f0	 mov	 ecx, DWORD PTR _this$[ebp]
  00023	83 c1 38	 add	 ecx, 56			; 00000038H
  00026	e9 00 00 00 00	 jmp	 ??1?$vector@UForceInfo@@V?$allocator@UForceInfo@@@std@@@std@@QAE@XZ ; std::vector<ForceInfo,std::allocator<ForceInfo> >::~vector<ForceInfo,std::allocator<ForceInfo> >
__ehhandler$??0AttackAttribute@@QAE@XZ:
  0002b	8b 54 24 08	 mov	 edx, DWORD PTR [esp+8]
  0002f	8d 42 0c	 lea	 eax, DWORD PTR [edx+12]
  00032	8b 4a ec	 mov	 ecx, DWORD PTR [edx-20]
  00035	33 c8		 xor	 ecx, eax
  00037	e8 00 00 00 00	 call	 @__security_check_cookie@4
  0003c	b8 00 00 00 00	 mov	 eax, OFFSET __ehfuncinfo$??0AttackAttribute@@QAE@XZ
  00041	e9 00 00 00 00	 jmp	 ___CxxFrameHandler3
text$x	ENDS
??0AttackAttribute@@QAE@XZ ENDP				; AttackAttribute::AttackAttribute
PUBLIC	??1AttackAttribute@@QAE@XZ			; AttackAttribute::~AttackAttribute
;	COMDAT xdata$x
xdata$x	SEGMENT
__unwindtable$??1AttackAttribute@@QAE@XZ DD 0ffffffffH
	DD	FLAT:__unwindfunclet$??1AttackAttribute@@QAE@XZ$0
	DD	00H
	DD	FLAT:__unwindfunclet$??1AttackAttribute@@QAE@XZ$1
	DD	01H
	DD	FLAT:__unwindfunclet$??1AttackAttribute@@QAE@XZ$2
__ehfuncinfo$??1AttackAttribute@@QAE@XZ DD 019930522H
	DD	03H
	DD	FLAT:__unwindtable$??1AttackAttribute@@QAE@XZ
	DD	2 DUP(00H)
	DD	2 DUP(00H)
	DD	00H
	DD	01H
; Function compile flags: /Ogsp
xdata$x	ENDS
;	COMDAT ??1AttackAttribute@@QAE@XZ
_TEXT	SEGMENT
_this$ = -16						; size = 4
__$EHRec$ = -12						; size = 12
??1AttackAttribute@@QAE@XZ PROC				; AttackAttribute::~AttackAttribute, COMDAT
; _this$ = ecx
  00000	6a 04		 push	 4
  00002	b8 00 00 00 00	 mov	 eax, __ehhandler$??1AttackAttribute@@QAE@XZ
  00007	e8 00 00 00 00	 call	 __EH_prolog3
  0000c	8b f1		 mov	 esi, ecx
  0000e	89 75 f0	 mov	 DWORD PTR _this$[ebp], esi
  00011	8d 4e 38	 lea	 ecx, DWORD PTR [esi+56]
  00014	c7 45 fc 02 00
	00 00		 mov	 DWORD PTR __$EHRec$[ebp+8], 2
  0001b	e8 00 00 00 00	 call	 ?_Tidy@?$vector@UForceInfo@@V?$allocator@UForceInfo@@@std@@@std@@IAEXXZ ; std::vector<ForceInfo,std::allocator<ForceInfo> >::_Tidy
  00020	8d 4e 28	 lea	 ecx, DWORD PTR [esi+40]
  00023	c6 45 fc 01	 mov	 BYTE PTR __$EHRec$[ebp+8], 1
  00027	e8 00 00 00 00	 call	 ?_Tidy@?$vector@UWeaponInfo@@V?$allocator@UWeaponInfo@@@std@@@std@@IAEXXZ ; std::vector<WeaponInfo,std::allocator<WeaponInfo> >::_Tidy
  0002c	8b 3d 00 00 00
	00		 mov	 edi, DWORD PTR __imp_??1ioHashString@@QAE@XZ
  00032	8d 4e 14	 lea	 ecx, DWORD PTR [esi+20]
  00035	c6 45 fc 00	 mov	 BYTE PTR __$EHRec$[ebp+8], 0
  00039	ff d7		 call	 edi
  0003b	83 4d fc ff	 or	 DWORD PTR __$EHRec$[ebp+8], -1
  0003f	8b ce		 mov	 ecx, esi
  00041	ff d7		 call	 edi
  00043	e8 00 00 00 00	 call	 __EH_epilog3
  00048	c3		 ret	 0
_TEXT	ENDS
;	COMDAT text$x
text$x	SEGMENT
__unwindfunclet$??1AttackAttribute@@QAE@XZ$0:
  00000	8b 4d f0	 mov	 ecx, DWORD PTR _this$[ebp]
  00003	ff 25 00 00 00
	00		 jmp	 DWORD PTR __imp_??1ioHashString@@QAE@XZ
__unwindfunclet$??1AttackAttribute@@QAE@XZ$1:
  00009	8b 4d f0	 mov	 ecx, DWORD PTR _this$[ebp]
  0000c	83 c1 14	 add	 ecx, 20			; 00000014H
  0000f	ff 25 00 00 00
	00		 jmp	 DWORD PTR __imp_??1ioHashString@@QAE@XZ
__unwindfunclet$??1AttackAttribute@@QAE@XZ$2:
  00015	8b 4d f0	 mov	 ecx, DWORD PTR _this$[ebp]
  00018	83 c1 28	 add	 ecx, 40			; 00000028H
  0001b	e9 00 00 00 00	 jmp	 ??1?$vector@UWeaponInfo@@V?$allocator@UWeaponInfo@@@std@@@std@@QAE@XZ ; std::vector<WeaponInfo,std::allocator<WeaponInfo> >::~vector<WeaponInfo,std::allocator<WeaponInfo> >
__ehhandler$??1AttackAttribute@@QAE@XZ:
  00020	8b 54 24 08	 mov	 edx, DWORD PTR [esp+8]
  00024	8d 42 0c	 lea	 eax, DWORD PTR [edx+12]
  00027	8b 4a ec	 mov	 ecx, DWORD PTR [edx-20]
  0002a	33 c8		 xor	 ecx, eax
  0002c	e8 00 00 00 00	 call	 @__security_check_cookie@4
  00031	b8 00 00 00 00	 mov	 eax, OFFSET __ehfuncinfo$??1AttackAttribute@@QAE@XZ
  00036	e9 00 00 00 00	 jmp	 ___CxxFrameHandler3
text$x	ENDS
??1AttackAttribute@@QAE@XZ ENDP				; AttackAttribute::~AttackAttribute
PUBLIC	??_7ioChargingFireSkill@@6B@			; ioChargingFireSkill::`vftable'
PUBLIC	??0ioChargingFireSkill@@QAE@XZ			; ioChargingFireSkill::ioChargingFireSkill
PUBLIC	??_R4ioChargingFireSkill@@6B@			; ioChargingFireSkill::`RTTI Complete Object Locator'
PUBLIC	??_R0?AVioChargingFireSkill@@@8			; ioChargingFireSkill `RTTI Type Descriptor'
PUBLIC	??_R3ioChargingFireSkill@@8			; ioChargingFireSkill::`RTTI Class Hierarchy Descriptor'
PUBLIC	??_R2ioChargingFireSkill@@8			; ioChargingFireSkill::`RTTI Base Class Array'
PUBLIC	??_R1A@?0A@EA@ioChargingFireSkill@@8		; ioChargingFireSkill::`RTTI Base Class Descriptor at (0,-1,0,64)'
PUBLIC	??_R1A@?0A@EA@ioNormalSkill@@8			; ioNormalSkill::`RTTI Base Class Descriptor at (0,-1,0,64)'
PUBLIC	??_R0?AVioNormalSkill@@@8			; ioNormalSkill `RTTI Type Descriptor'
PUBLIC	??_R3ioNormalSkill@@8				; ioNormalSkill::`RTTI Class Hierarchy Descriptor'
PUBLIC	??_R2ioNormalSkill@@8				; ioNormalSkill::`RTTI Base Class Array'
PUBLIC	??_R1A@?0A@EA@ioSkill@@8			; ioSkill::`RTTI Base Class Descriptor at (0,-1,0,64)'
PUBLIC	??_R0?AVioSkill@@@8				; ioSkill `RTTI Type Descriptor'
PUBLIC	??_R3ioSkill@@8					; ioSkill::`RTTI Class Hierarchy Descriptor'
PUBLIC	??_R2ioSkill@@8					; ioSkill::`RTTI Base Class Array'
PUBLIC	?Clone@ioChargingFireSkill@@UAEPAVioSkill@@XZ	; ioChargingFireSkill::Clone
PUBLIC	?GetDefenseSkillBreakeType@ioSkill@@UBE?AW4DefenseBreakType@@XZ ; ioSkill::GetDefenseSkillBreakeType
PUBLIC	?GetSkillEndNextJumpAmt@ioSkill@@UBEMXZ		; ioSkill::GetSkillEndNextJumpAmt
PUBLIC	?GetSkillEndNextLandRate@ioSkill@@UBEMXZ	; ioSkill::GetSkillEndNextLandRate
PUBLIC	?GetSkillEndNextJumpMustEnable@ioSkill@@UAE?AW4SkillEndJumpType@@XZ ; ioSkill::GetSkillEndNextJumpMustEnable
PUBLIC	?EnableChangeGrapplingTargetPos@ioSkill@@UBE_NXZ ; ioSkill::EnableChangeGrapplingTargetPos
PUBLIC	?IsInvisibleBottomCircle@ioSkill@@UAE_NPAVioBaseChar@@@Z ; ioSkill::IsInvisibleBottomCircle
PUBLIC	?IsCanJumpingSkill@ioSkill@@UBE_NXZ		; ioSkill::IsCanJumpingSkill
PUBLIC	?IsCanJumpingSkillOnBlowWound@ioSkill@@UBE_NXZ	; ioSkill::IsCanJumpingSkillOnBlowWound
PUBLIC	?IsCanDownSkill@ioSkill@@UBE_NXZ		; ioSkill::IsCanDownSkill
PUBLIC	?IsCanBlowWoundSkill@ioSkill@@UBE_NXZ		; ioSkill::IsCanBlowWoundSkill
PUBLIC	?IsCanWoundSkill@ioSkill@@UBE_NXZ		; ioSkill::IsCanWoundSkill
PUBLIC	?IsUseActiveCnt@ioSkill@@UBE_NXZ		; ioSkill::IsUseActiveCnt
PUBLIC	?GetMaxActiveCnt@ioSkill@@UBEHPAVioBaseChar@@@Z	; ioSkill::GetMaxActiveCnt
PUBLIC	?GetCurActiveCnt@ioSkill@@UBEHPAVioBaseChar@@@Z	; ioSkill::GetCurActiveCnt
EXTRN	??1ioNormalSkill@@UAE@XZ:PROC			; ioNormalSkill::~ioNormalSkill
EXTRN	??0ioNormalSkill@@QAE@XZ:PROC			; ioNormalSkill::ioNormalSkill
EXTRN	?GetTypeID@ioNormalSkill@@UBEHXZ:PROC		; ioNormalSkill::GetTypeID
EXTRN	?IsCanSwitchSkill@ioSkill@@UBE_NXZ:PROC		; ioSkill::IsCanSwitchSkill
EXTRN	?IsCanSemiSwitchSkill@ioSkill@@UBE_NXZ:PROC	; ioSkill::IsCanSemiSwitchSkill
EXTRN	?IsCanCancelBySkill@ioSkill@@UBE_NPAVioBaseChar@@AAH@Z:PROC ; ioSkill::IsCanCancelBySkill
EXTRN	?IsCanUseZeroHP@ioSkill@@UBE_NPAVioBaseChar@@@Z:PROC ; ioSkill::IsCanUseZeroHP
EXTRN	?IsCanUseSkillWithCrown@ioSkill@@UAE_NPAVioBaseChar@@@Z:PROC ; ioSkill::IsCanUseSkillWithCrown
EXTRN	?IsCanUseBoss@ioSkill@@UBE_NPAVioBaseChar@@@Z:PROC ; ioSkill::IsCanUseBoss
EXTRN	?IsCanUseFootball@ioSkill@@UBE_NXZ:PROC		; ioSkill::IsCanUseFootball
EXTRN	?IsCanUseGangSiMode@ioSkill@@UBE_NXZ:PROC	; ioSkill::IsCanUseGangSiMode
EXTRN	?IsCanUseByWeaponType@ioSkill@@UBE_NPAVioBaseChar@@@Z:PROC ; ioSkill::IsCanUseByWeaponType
EXTRN	?IsCanUseThunderBirdHold@ioSkill@@UBE_NPAVioBaseChar@@@Z:PROC ; ioSkill::IsCanUseThunderBirdHold
EXTRN	?IsCanUseLimitHP@ioSkill@@UBE_NPAVioBaseChar@@@Z:PROC ; ioSkill::IsCanUseLimitHP
EXTRN	?IsCanUseSkill@ioNormalSkill@@UAE_NPAVioBaseChar@@_N@Z:PROC ; ioNormalSkill::IsCanUseSkill
EXTRN	?IsOnOffEnable@ioSkill@@UAE_NXZ:PROC		; ioSkill::IsOnOffEnable
EXTRN	?IsCanDefenseStateSkill@ioSkill@@UAE_NXZ:PROC	; ioSkill::IsCanDefenseStateSkill
EXTRN	?SetDefenseStateSkill@ioSkill@@UAEXPAVioBaseChar@@@Z:PROC ; ioSkill::SetDefenseStateSkill
EXTRN	?HasBuff@ioSkill@@UBE_NH@Z:PROC			; ioSkill::HasBuff
EXTRN	?GetBuffType@ioSkill@@UAEHH@Z:PROC		; ioSkill::GetBuffType
EXTRN	?IsEnableReserve@ioSkill@@UBE_NXZ:PROC		; ioSkill::IsEnableReserve
EXTRN	?IsCharSkipState@ioSkill@@UBE?AW4SkillCharColType@@XZ:PROC ; ioSkill::IsCharSkipState
EXTRN	?IsEntityCollisionSkipState@ioSkill@@UBE_NXZ:PROC ; ioSkill::IsEntityCollisionSkipState
EXTRN	?IsEndState@ioSkill@@UBE_NXZ:PROC		; ioSkill::IsEndState
EXTRN	?IsJumpState@ioSkill@@UBE_NXZ:PROC		; ioSkill::IsJumpState
EXTRN	?IsDownState@ioSkill@@UBE_NXZ:PROC		; ioSkill::IsDownState
EXTRN	?IsCanSendControl@ioSkill@@UBE_NXZ:PROC		; ioSkill::IsCanSendControl
EXTRN	?IsSkipState@ioSkill@@UBE_NXZ:PROC		; ioSkill::IsSkipState
EXTRN	?GetSkillMoveRate@ioSkill@@UBEMXZ:PROC		; ioSkill::GetSkillMoveRate
EXTRN	?SetSkillGrapplingState@ioSkill@@UAE_NPAVioBaseChar@@ABVioHashString@@@Z:PROC ; ioSkill::SetSkillGrapplingState
EXTRN	?GetGrapplingTargetPos@ioSkill@@UAE?AUD3DXVECTOR3@@PAVioBaseChar@@0@Z:PROC ; ioSkill::GetGrapplingTargetPos
EXTRN	?GetGrapplingTargetPos@ioSkill@@UAE?AUD3DXVECTOR3@@PAVioBaseChar@@@Z:PROC ; ioSkill::GetGrapplingTargetPos
EXTRN	?GetSkillWoundGrapplingInfo@ioSkill@@UAE?AUGrapplingSkillWoundedInfo@@XZ:PROC ; ioSkill::GetSkillWoundGrapplingInfo
EXTRN	?SetCreateWeaponDependency@ioSkill@@UAEXPAVioBaseChar@@PAVioPlayStage@@@Z:PROC ; ioSkill::SetCreateWeaponDependency
EXTRN	?SetNextSkillState@ioSkill@@UAEXPAVioBaseChar@@PAVioWeapon@@@Z:PROC ; ioSkill::SetNextSkillState
EXTRN	?OnSkillEndByWounded@ioSkill@@UAEXPAVioBaseChar@@@Z:PROC ; ioSkill::OnSkillEndByWounded
EXTRN	?OnProcessNotUseSkill@ioSkill@@UAEXPAVioBaseChar@@PAVioPlayStage@@@Z:PROC ; ioSkill::OnProcessNotUseSkill
EXTRN	?OnSkillItemRelease@ioSkill@@UAEXPAVioBaseChar@@@Z:PROC ; ioSkill::OnSkillItemRelease
EXTRN	?ApplyEquipSlotSkillExtraInfo@ioSkill@@UAEXPAVioBaseChar@@PAVioPlayStage@@AAVSP2Packet@@@Z:PROC ; ioSkill::ApplyEquipSlotSkillExtraInfo
EXTRN	?ApplyExtraPassiveSkillInfo@ioSkill@@UAEXPAVioBaseChar@@PAVioPlayStage@@AAVSP2Packet@@@Z:PROC ; ioSkill::ApplyExtraPassiveSkillInfo
EXTRN	?StartPreDelayEffect@ioNormalSkill@@UAEXPAVioBaseChar@@@Z:PROC ; ioNormalSkill::StartPreDelayEffect
EXTRN	?EndPreDelayEffect@ioNormalSkill@@UAEXPAVioBaseChar@@@Z:PROC ; ioNormalSkill::EndPreDelayEffect
EXTRN	?IsUseAutoTargetValue@ioSkill@@UAE_NXZ:PROC	; ioSkill::IsUseAutoTargetValue
EXTRN	?IsAutoTargetDownState@ioSkill@@UAE_NXZ:PROC	; ioSkill::IsAutoTargetDownState
EXTRN	?CheckUseBuff@ioSkill@@UAE_NPAVioBaseChar@@@Z:PROC ; ioSkill::CheckUseBuff
EXTRN	?CheckUseActiveCount@ioSkill@@UAE_NXZ:PROC	; ioSkill::CheckUseActiveCount
EXTRN	?CheckAniRotate@ioSkill@@UAEXPAVioBaseChar@@@Z:PROC ; ioSkill::CheckAniRotate
EXTRN	?IsEnableDashCheck@ioSkill@@UAE_NPAVioBaseChar@@@Z:PROC ; ioSkill::IsEnableDashCheck
EXTRN	?IsEnableMultiActive@ioSkill@@UAE_NPAVioBaseChar@@@Z:PROC ; ioSkill::IsEnableMultiActive
EXTRN	?GetAutoTargetValue@ioSkill@@UAEXAAM00@Z:PROC	; ioSkill::GetAutoTargetValue
EXTRN	?GetSkillGravityRate@ioSkill@@UAEMXZ:PROC	; ioSkill::GetSkillGravityRate
EXTRN	?GetSkillMotionName@ioSkill@@UBEABVioHashString@@XZ:PROC ; ioSkill::GetSkillMotionName
EXTRN	?HasSkillMotion@ioSkill@@UBE_NXZ:PROC		; ioSkill::HasSkillMotion
EXTRN	?GetSkillMotionRate@ioSkill@@UBEMXZ:PROC	; ioSkill::GetSkillMotionRate
EXTRN	?IsPreDelayProtect@ioSkill@@UBE_NXZ:PROC	; ioSkill::IsPreDelayProtect
EXTRN	?GetPreDelayAniName@ioSkill@@UBEABVioHashString@@XZ:PROC ; ioSkill::GetPreDelayAniName
EXTRN	?GetPreDelayTime@ioSkill@@UBEKXZ:PROC		; ioSkill::GetPreDelayTime
EXTRN	?GetPreDelayOwnerEffect@ioSkill@@UBEABVioHashString@@XZ:PROC ; ioSkill::GetPreDelayOwnerEffect
EXTRN	?GetPreDelayOtherEffect@ioSkill@@UBEABVioHashString@@XZ:PROC ; ioSkill::GetPreDelayOtherEffect
EXTRN	?SetCancelSkill@ioSkill@@UAEXPAVioBaseChar@@@Z:PROC ; ioSkill::SetCancelSkill
EXTRN	?ClearAirJump@ioSkill@@MAEXXZ:PROC		; ioSkill::ClearAirJump
EXTRN	?SetAirJump@ioSkill@@MAEXPAVioBaseChar@@HM@Z:PROC ; ioSkill::SetAirJump
EXTRN	?CheckAirJump@ioSkill@@MAEXPAVioBaseChar@@@Z:PROC ; ioSkill::CheckAirJump
EXTRN	?UseActiveCount@ioSkill@@UAE_NPAVioBaseChar@@@Z:PROC ; ioSkill::UseActiveCount
EXTRN	?GetMaxActiveCount@ioSkill@@UAEHPAVioBaseChar@@@Z:PROC ; ioSkill::GetMaxActiveCount
EXTRN	?GetCurActiveCount@ioSkill@@UAEHPAVioBaseChar@@@Z:PROC ; ioSkill::GetCurActiveCount
EXTRN	?HideHPGauge@ioSkill@@UAE_NXZ:PROC		; ioSkill::HideHPGauge
EXTRN	?SetInfoByApplyWeapon@ioSkill@@UAEXPAVioBaseChar@@0K_N@Z:PROC ; ioSkill::SetInfoByApplyWeapon
EXTRN	?SetCollisionByApplySkill@ioSkill@@UAEXXZ:PROC	; ioSkill::SetCollisionByApplySkill
EXTRN	?SetChargingRateForWeapon@ioSkill@@UAEXPAVioWeapon@@@Z:PROC ; ioSkill::SetChargingRateForWeapon
EXTRN	?CheckExceptionCamera@ioSkill@@UAE_NXZ:PROC	; ioSkill::CheckExceptionCamera
EXTRN	?GetExceptionCameraPos@ioSkill@@UAE?AUD3DXVECTOR3@@PAVioBaseChar@@@Z:PROC ; ioSkill::GetExceptionCameraPos
EXTRN	?IsFixedExceptionCamera@ioSkill@@UAE_NXZ:PROC	; ioSkill::IsFixedExceptionCamera
EXTRN	??_EioChargingFireSkill@@UAEPAXI@Z:PROC		; ioChargingFireSkill::`vector deleting destructor'
;	COMDAT ??_R2ioSkill@@8
; File d:\lost saga for developer\youtube\tutorial\source\src\lsclient\encryptvalue.h
rdata$r	SEGMENT
??_R2ioSkill@@8 DD FLAT:??_R1A@?0A@EA@ioSkill@@8	; ioSkill::`RTTI Base Class Array'
rdata$r	ENDS
;	COMDAT ??_R3ioSkill@@8
rdata$r	SEGMENT
??_R3ioSkill@@8 DD 00H					; ioSkill::`RTTI Class Hierarchy Descriptor'
	DD	00H
	DD	01H
	DD	FLAT:??_R2ioSkill@@8
rdata$r	ENDS
;	COMDAT ??_R0?AVioSkill@@@8
_DATA	SEGMENT
??_R0?AVioSkill@@@8 DD FLAT:??_7type_info@@6B@		; ioSkill `RTTI Type Descriptor'
	DD	00H
	DB	'.?AVioSkill@@', 00H
_DATA	ENDS
;	COMDAT ??_R1A@?0A@EA@ioSkill@@8
rdata$r	SEGMENT
??_R1A@?0A@EA@ioSkill@@8 DD FLAT:??_R0?AVioSkill@@@8	; ioSkill::`RTTI Base Class Descriptor at (0,-1,0,64)'
	DD	00H
	DD	00H
	DD	0ffffffffH
	DD	00H
	DD	040H
	DD	FLAT:??_R3ioSkill@@8
rdata$r	ENDS
;	COMDAT ??_R2ioNormalSkill@@8
rdata$r	SEGMENT
??_R2ioNormalSkill@@8 DD FLAT:??_R1A@?0A@EA@ioNormalSkill@@8 ; ioNormalSkill::`RTTI Base Class Array'
	DD	FLAT:??_R1A@?0A@EA@ioSkill@@8
rdata$r	ENDS
;	COMDAT ??_R3ioNormalSkill@@8
rdata$r	SEGMENT
??_R3ioNormalSkill@@8 DD 00H				; ioNormalSkill::`RTTI Class Hierarchy Descriptor'
	DD	00H
	DD	02H
	DD	FLAT:??_R2ioNormalSkill@@8
rdata$r	ENDS
;	COMDAT ??_R0?AVioNormalSkill@@@8
_DATA	SEGMENT
??_R0?AVioNormalSkill@@@8 DD FLAT:??_7type_info@@6B@	; ioNormalSkill `RTTI Type Descriptor'
	DD	00H
	DB	'.?AVioNormalSkill@@', 00H
_DATA	ENDS
;	COMDAT ??_R1A@?0A@EA@ioNormalSkill@@8
rdata$r	SEGMENT
??_R1A@?0A@EA@ioNormalSkill@@8 DD FLAT:??_R0?AVioNormalSkill@@@8 ; ioNormalSkill::`RTTI Base Class Descriptor at (0,-1,0,64)'
	DD	01H
	DD	00H
	DD	0ffffffffH
	DD	00H
	DD	040H
	DD	FLAT:??_R3ioNormalSkill@@8
rdata$r	ENDS
;	COMDAT ??_R1A@?0A@EA@ioChargingFireSkill@@8
rdata$r	SEGMENT
??_R1A@?0A@EA@ioChargingFireSkill@@8 DD FLAT:??_R0?AVioChargingFireSkill@@@8 ; ioChargingFireSkill::`RTTI Base Class Descriptor at (0,-1,0,64)'
	DD	02H
	DD	00H
	DD	0ffffffffH
	DD	00H
	DD	040H
	DD	FLAT:??_R3ioChargingFireSkill@@8
rdata$r	ENDS
;	COMDAT ??_R2ioChargingFireSkill@@8
rdata$r	SEGMENT
??_R2ioChargingFireSkill@@8 DD FLAT:??_R1A@?0A@EA@ioChargingFireSkill@@8 ; ioChargingFireSkill::`RTTI Base Class Array'
	DD	FLAT:??_R1A@?0A@EA@ioNormalSkill@@8
	DD	FLAT:??_R1A@?0A@EA@ioSkill@@8
rdata$r	ENDS
;	COMDAT ??_R3ioChargingFireSkill@@8
rdata$r	SEGMENT
??_R3ioChargingFireSkill@@8 DD 00H			; ioChargingFireSkill::`RTTI Class Hierarchy Descriptor'
	DD	00H
	DD	03H
	DD	FLAT:??_R2ioChargingFireSkill@@8
rdata$r	ENDS
;	COMDAT ??_R0?AVioChargingFireSkill@@@8
_DATA	SEGMENT
??_R0?AVioChargingFireSkill@@@8 DD FLAT:??_7type_info@@6B@ ; ioChargingFireSkill `RTTI Type Descriptor'
	DD	00H
	DB	'.?AVioChargingFireSkill@@', 00H
_DATA	ENDS
;	COMDAT ??_R4ioChargingFireSkill@@6B@
rdata$r	SEGMENT
??_R4ioChargingFireSkill@@6B@ DD 00H			; ioChargingFireSkill::`RTTI Complete Object Locator'
	DD	00H
	DD	00H
	DD	FLAT:??_R0?AVioChargingFireSkill@@@8
	DD	FLAT:??_R3ioChargingFireSkill@@8
rdata$r	ENDS
;	COMDAT ??_7ioChargingFireSkill@@6B@
CONST	SEGMENT
??_7ioChargingFireSkill@@6B@ DD FLAT:??_R4ioChargingFireSkill@@6B@ ; ioChargingFireSkill::`vftable'
	DD	FLAT:?LoadProperty@ioChargingFireSkill@@UAEXAAVioINILoader@@@Z
	DD	FLAT:?Clone@ioChargingFireSkill@@UAEPAVioSkill@@XZ
	DD	FLAT:?GetTypeID@ioNormalSkill@@UBEHXZ
	DD	FLAT:?IsProtected@ioChargingFireSkill@@UBE_NH@Z
	DD	FLAT:?IsCanSwitchSkill@ioSkill@@UBE_NXZ
	DD	FLAT:?IsCanSemiSwitchSkill@ioSkill@@UBE_NXZ
	DD	FLAT:?IsCanCancelBySkill@ioSkill@@UBE_NPAVioBaseChar@@AAH@Z
	DD	FLAT:?IsCanUseZeroHP@ioSkill@@UBE_NPAVioBaseChar@@@Z
	DD	FLAT:?IsCanUseSkillWithCrown@ioSkill@@UAE_NPAVioBaseChar@@@Z
	DD	FLAT:?IsCanUseBoss@ioSkill@@UBE_NPAVioBaseChar@@@Z
	DD	FLAT:?IsCanUseFootball@ioSkill@@UBE_NXZ
	DD	FLAT:?IsCanUseGangSiMode@ioSkill@@UBE_NXZ
	DD	FLAT:?IsCanUseByWeaponType@ioSkill@@UBE_NPAVioBaseChar@@@Z
	DD	FLAT:?IsCanUseThunderBirdHold@ioSkill@@UBE_NPAVioBaseChar@@@Z
	DD	FLAT:?IsCanUseLimitHP@ioSkill@@UBE_NPAVioBaseChar@@@Z
	DD	FLAT:?IsCanUseSkill@ioNormalSkill@@UAE_NPAVioBaseChar@@_N@Z
	DD	FLAT:?IsOnOffEnable@ioSkill@@UAE_NXZ
	DD	FLAT:?IsCanDefenseStateSkill@ioSkill@@UAE_NXZ
	DD	FLAT:?SetDefenseStateSkill@ioSkill@@UAEXPAVioBaseChar@@@Z
	DD	FLAT:?GetDefenseSkillBreakeType@ioSkill@@UBE?AW4DefenseBreakType@@XZ
	DD	FLAT:?HasBuff@ioSkill@@UBE_NH@Z
	DD	FLAT:?GetBuffType@ioSkill@@UAEHH@Z
	DD	FLAT:?IsEnableReserve@ioSkill@@UBE_NXZ
	DD	FLAT:?IsSkillMotionEnd@ioChargingFireSkill@@UBE_NKPAVioBaseChar@@@Z
	DD	FLAT:?IsCharSkipState@ioSkill@@UBE?AW4SkillCharColType@@XZ
	DD	FLAT:?IsEntityCollisionSkipState@ioSkill@@UBE_NXZ
	DD	FLAT:?GetSkillEndNextJumpAmt@ioSkill@@UBEMXZ
	DD	FLAT:?GetSkillEndNextLandRate@ioSkill@@UBEMXZ
	DD	FLAT:?GetSkillEndNextJumpMustEnable@ioSkill@@UAE?AW4SkillEndJumpType@@XZ
	DD	FLAT:?IsEndState@ioSkill@@UBE_NXZ
	DD	FLAT:?IsAttackEndState@ioChargingFireSkill@@UBE_NXZ
	DD	FLAT:?IsJumpState@ioSkill@@UBE_NXZ
	DD	FLAT:?IsDownState@ioSkill@@UBE_NXZ
	DD	FLAT:?IsNoDropState@ioChargingFireSkill@@UBE_NXZ
	DD	FLAT:?IsCanSendControl@ioSkill@@UBE_NXZ
	DD	FLAT:?IsSkipState@ioSkill@@UBE_NXZ
	DD	FLAT:?GetSkillMoveRate@ioSkill@@UBEMXZ
	DD	FLAT:?SetSkillGrapplingState@ioSkill@@UAE_NPAVioBaseChar@@ABVioHashString@@@Z
	DD	FLAT:?GetGrapplingTargetPos@ioSkill@@UAE?AUD3DXVECTOR3@@PAVioBaseChar@@0@Z
	DD	FLAT:?GetGrapplingTargetPos@ioSkill@@UAE?AUD3DXVECTOR3@@PAVioBaseChar@@@Z
	DD	FLAT:?EnableChangeGrapplingTargetPos@ioSkill@@UBE_NXZ
	DD	FLAT:?GetSkillWoundGrapplingInfo@ioSkill@@UAE?AUGrapplingSkillWoundedInfo@@XZ
	DD	FLAT:?SetCreateWeaponDependency@ioSkill@@UAEXPAVioBaseChar@@PAVioPlayStage@@@Z
	DD	FLAT:?SetNextSkillState@ioSkill@@UAEXPAVioBaseChar@@PAVioWeapon@@@Z
	DD	FLAT:?OnSkillStart@ioChargingFireSkill@@UAE_NPAVioBaseChar@@@Z
	DD	FLAT:?OnProcessState@ioChargingFireSkill@@UAEXPAVioBaseChar@@PAVioPlayStage@@@Z
	DD	FLAT:?OnSkillEndByWounded@ioSkill@@UAEXPAVioBaseChar@@@Z
	DD	FLAT:?OnSkillEnd@ioChargingFireSkill@@UAEXPAVioBaseChar@@@Z
	DD	FLAT:?OnProcessNotUseSkill@ioSkill@@UAEXPAVioBaseChar@@PAVioPlayStage@@@Z
	DD	FLAT:?OnSkillItemRelease@ioSkill@@UAEXPAVioBaseChar@@@Z
	DD	FLAT:?ApplyAttributeToWeapon@ioChargingFireSkill@@UAEXPAVioWeapon@@PAVioPlayStage@@@Z
	DD	FLAT:?ApplyExtraSkillInfo@ioChargingFireSkill@@UAEXPAVioBaseChar@@PAVioPlayStage@@AAVSP2Packet@@@Z
	DD	FLAT:?ApplyEquipSlotSkillExtraInfo@ioSkill@@UAEXPAVioBaseChar@@PAVioPlayStage@@AAVSP2Packet@@@Z
	DD	FLAT:?ApplyExtraPassiveSkillInfo@ioSkill@@UAEXPAVioBaseChar@@PAVioPlayStage@@AAVSP2Packet@@@Z
	DD	FLAT:?StartPreDelayEffect@ioNormalSkill@@UAEXPAVioBaseChar@@@Z
	DD	FLAT:?EndPreDelayEffect@ioNormalSkill@@UAEXPAVioBaseChar@@@Z
	DD	FLAT:?IsUseAutoTargetValue@ioSkill@@UAE_NXZ
	DD	FLAT:?IsAutoTargetDownState@ioSkill@@UAE_NXZ
	DD	FLAT:?CheckUseBuff@ioSkill@@UAE_NPAVioBaseChar@@@Z
	DD	FLAT:?CheckUseItemMesh@ioChargingFireSkill@@UAE_NXZ
	DD	FLAT:?CheckUseActiveCount@ioSkill@@UAE_NXZ
	DD	FLAT:?CheckAniRotate@ioSkill@@UAEXPAVioBaseChar@@@Z
	DD	FLAT:?IsEnableDashCheck@ioSkill@@UAE_NPAVioBaseChar@@@Z
	DD	FLAT:?IsEnableMultiActive@ioSkill@@UAE_NPAVioBaseChar@@@Z
	DD	FLAT:?IsInvisibleBottomCircle@ioSkill@@UAE_NPAVioBaseChar@@@Z
	DD	FLAT:?GetAutoTargetValue@ioSkill@@UAEXAAM00@Z
	DD	FLAT:?IsCanJumpingSkill@ioSkill@@UBE_NXZ
	DD	FLAT:?IsCanJumpingSkillOnBlowWound@ioSkill@@UBE_NXZ
	DD	FLAT:?IsCanDownSkill@ioSkill@@UBE_NXZ
	DD	FLAT:?IsCanBlowWoundSkill@ioSkill@@UBE_NXZ
	DD	FLAT:?IsCanWoundSkill@ioSkill@@UBE_NXZ
	DD	FLAT:?GetSkillGravityRate@ioSkill@@UAEMXZ
	DD	FLAT:?GetSkillMotionName@ioSkill@@UBEABVioHashString@@XZ
	DD	FLAT:?HasSkillMotion@ioSkill@@UBE_NXZ
	DD	FLAT:?GetSkillMotionRate@ioSkill@@UBEMXZ
	DD	FLAT:?IsPreDelayProtect@ioSkill@@UBE_NXZ
	DD	FLAT:?GetPreDelayAniName@ioSkill@@UBEABVioHashString@@XZ
	DD	FLAT:?GetPreDelayTime@ioSkill@@UBEKXZ
	DD	FLAT:?GetPreDelayOwnerEffect@ioSkill@@UBEABVioHashString@@XZ
	DD	FLAT:?GetPreDelayOtherEffect@ioSkill@@UBEABVioHashString@@XZ
	DD	FLAT:?SetCancelSkill@ioSkill@@UAEXPAVioBaseChar@@@Z
	DD	FLAT:?ClearAirJump@ioSkill@@MAEXXZ
	DD	FLAT:?SetAirJump@ioSkill@@MAEXPAVioBaseChar@@HM@Z
	DD	FLAT:?CheckAirJump@ioSkill@@MAEXPAVioBaseChar@@@Z
	DD	FLAT:?UseActiveCount@ioSkill@@UAE_NPAVioBaseChar@@@Z
	DD	FLAT:?GetMaxActiveCount@ioSkill@@UAEHPAVioBaseChar@@@Z
	DD	FLAT:?GetCurActiveCount@ioSkill@@UAEHPAVioBaseChar@@@Z
	DD	FLAT:?HideHPGauge@ioSkill@@UAE_NXZ
	DD	FLAT:?SetInfoByApplyWeapon@ioSkill@@UAEXPAVioBaseChar@@0K_N@Z
	DD	FLAT:?SetCollisionByApplySkill@ioSkill@@UAEXXZ
	DD	FLAT:?SetChargingRateForWeapon@ioSkill@@UAEXPAVioWeapon@@@Z
	DD	FLAT:?CheckExceptionCamera@ioSkill@@UAE_NXZ
	DD	FLAT:?GetExceptionCameraPos@ioSkill@@UAE?AUD3DXVECTOR3@@PAVioBaseChar@@@Z
	DD	FLAT:?IsFixedExceptionCamera@ioSkill@@UAE_NXZ
	DD	FLAT:?IsUseActiveCnt@ioSkill@@UBE_NXZ
	DD	FLAT:?GetMaxActiveCnt@ioSkill@@UBEHPAVioBaseChar@@@Z
	DD	FLAT:?GetCurActiveCnt@ioSkill@@UBEHPAVioBaseChar@@@Z
	DD	FLAT:??_EioChargingFireSkill@@UAEPAXI@Z
	DD	FLAT:?StartPreDelayAnimation@ioChargingFireSkill@@MAE_NPAVioBaseChar@@@Z
	DD	FLAT:?SetNormalSkill@ioChargingFireSkill@@MAEXPAVioBaseChar@@@Z
CONST	ENDS
;	COMDAT xdata$x
xdata$x	SEGMENT
__ehfuncinfo$??0ioChargingFireSkill@@QAE@XZ DD 019930522H
	DD	0bH
	DD	FLAT:__unwindtable$??0ioChargingFireSkill@@QAE@XZ
	DD	2 DUP(00H)
	DD	2 DUP(00H)
	DD	00H
	DD	01H
__unwindtable$??0ioChargingFireSkill@@QAE@XZ DD 0ffffffffH
	DD	FLAT:__unwindfunclet$??0ioChargingFireSkill@@QAE@XZ$0
	DD	00H
	DD	FLAT:__unwindfunclet$??0ioChargingFireSkill@@QAE@XZ$1
	DD	01H
	DD	FLAT:__unwindfunclet$??0ioChargingFireSkill@@QAE@XZ$2
	DD	02H
	DD	FLAT:__unwindfunclet$??0ioChargingFireSkill@@QAE@XZ$3
	DD	03H
	DD	FLAT:__unwindfunclet$??0ioChargingFireSkill@@QAE@XZ$4
	DD	04H
	DD	FLAT:__unwindfunclet$??0ioChargingFireSkill@@QAE@XZ$5
	DD	05H
	DD	FLAT:__unwindfunclet$??0ioChargingFireSkill@@QAE@XZ$6
	DD	06H
	DD	FLAT:__unwindfunclet$??0ioChargingFireSkill@@QAE@XZ$7
	DD	07H
	DD	FLAT:__unwindfunclet$??0ioChargingFireSkill@@QAE@XZ$8
	DD	08H
	DD	FLAT:__unwindfunclet$??0ioChargingFireSkill@@QAE@XZ$9
	DD	09H
	DD	FLAT:__unwindfunclet$??0ioChargingFireSkill@@QAE@XZ$10
; Function compile flags: /Ogsp
; File d:\lost saga for developer\youtube\tutorial\source\src\lsclient\iochargingfireskill.cpp
xdata$x	ENDS
;	COMDAT ??0ioChargingFireSkill@@QAE@XZ
_TEXT	SEGMENT
_this$ = -20						; size = 4
_value$558357 = -16					; size = 4
_value$558353 = -16					; size = 4
__$EHRec$ = -12						; size = 12
??0ioChargingFireSkill@@QAE@XZ PROC			; ioChargingFireSkill::ioChargingFireSkill, COMDAT
; _this$ = ecx

; 14   : {

  00000	6a 08		 push	 8
  00002	b8 00 00 00 00	 mov	 eax, __ehhandler$??0ioChargingFireSkill@@QAE@XZ
  00007	e8 00 00 00 00	 call	 __EH_prolog3
  0000c	8b d9		 mov	 ebx, ecx
  0000e	89 5d ec	 mov	 DWORD PTR _this$[ebp], ebx
  00011	e8 00 00 00 00	 call	 ??0ioNormalSkill@@QAE@XZ ; ioNormalSkill::ioNormalSkill
  00016	83 65 fc 00	 and	 DWORD PTR __$EHRec$[ebp+8], 0
  0001a	8d 8b 58 0f 00
	00		 lea	 ecx, DWORD PTR [ebx+3928]
  00020	c7 03 00 00 00
	00		 mov	 DWORD PTR [ebx], OFFSET ??_7ioChargingFireSkill@@6B@
  00026	e8 00 00 00 00	 call	 ??0?$CEncrypt@H@@QAE@XZ	; CEncrypt<int>::CEncrypt<int>
  0002b	8d 8b 88 0f 00
	00		 lea	 ecx, DWORD PTR [ebx+3976]
  00031	c6 45 fc 01	 mov	 BYTE PTR __$EHRec$[ebp+8], 1
  00035	e8 00 00 00 00	 call	 ??0AttackAttribute@@QAE@XZ ; AttackAttribute::AttackAttribute
  0003a	8b 35 00 00 00
	00		 mov	 esi, DWORD PTR __imp_??0ioHashString@@QAE@XZ
  00040	8d 8b d8 0f 00
	00		 lea	 ecx, DWORD PTR [ebx+4056]
  00046	c6 45 fc 02	 mov	 BYTE PTR __$EHRec$[ebp+8], 2
  0004a	ff d6		 call	 esi
  0004c	8d 8b 18 10 00
	00		 lea	 ecx, DWORD PTR [ebx+4120]
  00052	c6 45 fc 03	 mov	 BYTE PTR __$EHRec$[ebp+8], 3
  00056	ff d6		 call	 esi
  00058	8d 8b 48 10 00
	00		 lea	 ecx, DWORD PTR [ebx+4168]
  0005e	c6 45 fc 04	 mov	 BYTE PTR __$EHRec$[ebp+8], 4
  00062	ff d6		 call	 esi
  00064	8d 8b 58 10 00
	00		 lea	 ecx, DWORD PTR [ebx+4184]
  0006a	c6 45 fc 05	 mov	 BYTE PTR __$EHRec$[ebp+8], 5
  0006e	ff d6		 call	 esi
  00070	8d 8b 68 10 00
	00		 lea	 ecx, DWORD PTR [ebx+4200]
  00076	c6 45 fc 06	 mov	 BYTE PTR __$EHRec$[ebp+8], 6
  0007a	ff d6		 call	 esi
  0007c	8d 8b 78 10 00
	00		 lea	 ecx, DWORD PTR [ebx+4216]
  00082	c6 45 fc 07	 mov	 BYTE PTR __$EHRec$[ebp+8], 7
  00086	ff d6		 call	 esi
  00088	8d 8b 90 10 00
	00		 lea	 ecx, DWORD PTR [ebx+4240]
  0008e	c6 45 fc 08	 mov	 BYTE PTR __$EHRec$[ebp+8], 8
  00092	ff d6		 call	 esi
  00094	8d 8b a0 10 00
	00		 lea	 ecx, DWORD PTR [ebx+4256]
  0009a	c6 45 fc 09	 mov	 BYTE PTR __$EHRec$[ebp+8], 9
  0009e	ff d6		 call	 esi

; 15   : 	m_State = SS_NONE;

  000a0	8d 45 f0	 lea	 eax, DWORD PTR _value$558353[ebp]
  000a3	33 f6		 xor	 esi, esi
  000a5	50		 push	 eax
  000a6	8d 8b 58 0f 00
	00		 lea	 ecx, DWORD PTR [ebx+3928]
  000ac	c6 45 fc 0a	 mov	 BYTE PTR __$EHRec$[ebp+8], 10 ; 0000000aH
  000b0	89 75 f0	 mov	 DWORD PTR _value$558353[ebp], esi
  000b3	e8 00 00 00 00	 call	 ?EncryptValueToPool@?$CEncrypt@H@@AAEXPBD@Z ; CEncrypt<int>::EncryptValueToPool

; 16   : 
; 17   : 	m_dwCurMapEffect = -1;
; 18   : 	m_dwTargetCircleEffect = -1;
; 19   : 	m_dwChargingEffect = -1;
; 20   : 
; 21   : 	m_bSetHandMesh = false;
; 22   : 
; 23   : 	m_dwPreActionEndTime = 0;
; 24   : 	m_dwLoopStartTime = 0;
; 25   : 	m_dwAttackEndTime = 0;
; 26   : 	m_dwFireStartTime = 0;
; 27   : 
; 28   : 	m_fCurChargeRate = 0.0f;

  000b8	0f 57 c0	 xorps	 xmm0, xmm0
  000bb	83 8b 88 10 00
	00 ff		 or	 DWORD PTR [ebx+4232], -1
  000c2	83 8b 8c 10 00
	00 ff		 or	 DWORD PTR [ebx+4236], -1
  000c9	83 8b 28 10 00
	00 ff		 or	 DWORD PTR [ebx+4136], -1
  000d0	8d 45 f0	 lea	 eax, DWORD PTR _value$558357[ebp]
  000d3	50		 push	 eax
  000d4	8d 8b a4 09 00
	00		 lea	 ecx, DWORD PTR [ebx+2468]
  000da	c6 83 0a 0f 00
	00 00		 mov	 BYTE PTR [ebx+3850], 0
  000e1	89 b3 08 10 00
	00		 mov	 DWORD PTR [ebx+4104], esi
  000e7	89 b3 0c 10 00
	00		 mov	 DWORD PTR [ebx+4108], esi
  000ed	89 b3 14 10 00
	00		 mov	 DWORD PTR [ebx+4116], esi
  000f3	89 b3 f0 0f 00
	00		 mov	 DWORD PTR [ebx+4080], esi
  000f9	f3 0f 11 45 f0	 movss	 DWORD PTR _value$558357[ebp], xmm0
  000fe	e8 00 00 00 00	 call	 ?EncryptValueToPool@?$CEncrypt@M@@AAEXPBD@Z ; CEncrypt<float>::EncryptValueToPool

; 29   : 
; 30   : 	m_vCharMoveDir = ioMath::VEC3_ZERO;

  00103	8b 35 00 00 00
	00		 mov	 esi, DWORD PTR __imp_?VEC3_ZERO@ioMath@@2UD3DXVECTOR3@@A
  00109	8d bb f4 0f 00
	00		 lea	 edi, DWORD PTR [ebx+4084]
  0010f	a5		 movsd
  00110	a5		 movsd
  00111	a5		 movsd

; 31   : }

  00112	8b c3		 mov	 eax, ebx
  00114	e8 00 00 00 00	 call	 __EH_epilog3
  00119	c3		 ret	 0
_TEXT	ENDS
;	COMDAT text$x
text$x	SEGMENT
__unwindfunclet$??0ioChargingFireSkill@@QAE@XZ$0:
  00000	8b 4d ec	 mov	 ecx, DWORD PTR _this$[ebp]
  00003	e9 00 00 00 00	 jmp	 ??1ioNormalSkill@@UAE@XZ ; ioNormalSkill::~ioNormalSkill
__unwindfunclet$??0ioChargingFireSkill@@QAE@XZ$1:
  00008	8b 4d ec	 mov	 ecx, DWORD PTR _this$[ebp]
  0000b	81 c1 58 0f 00
	00		 add	 ecx, 3928		; 00000f58H
  00011	e9 00 00 00 00	 jmp	 ??1?$CEncrypt@H@@UAE@XZ	; CEncrypt<int>::~CEncrypt<int>
__unwindfunclet$??0ioChargingFireSkill@@QAE@XZ$2:
  00016	8b 4d ec	 mov	 ecx, DWORD PTR _this$[ebp]
  00019	81 c1 88 0f 00
	00		 add	 ecx, 3976		; 00000f88H
  0001f	e9 00 00 00 00	 jmp	 ??1AttackAttribute@@QAE@XZ
__unwindfunclet$??0ioChargingFireSkill@@QAE@XZ$3:
  00024	8b 4d ec	 mov	 ecx, DWORD PTR _this$[ebp]
  00027	81 c1 d8 0f 00
	00		 add	 ecx, 4056		; 00000fd8H
  0002d	ff 25 00 00 00
	00		 jmp	 DWORD PTR __imp_??1ioHashString@@QAE@XZ
__unwindfunclet$??0ioChargingFireSkill@@QAE@XZ$4:
  00033	8b 4d ec	 mov	 ecx, DWORD PTR _this$[ebp]
  00036	81 c1 18 10 00
	00		 add	 ecx, 4120		; 00001018H
  0003c	ff 25 00 00 00
	00		 jmp	 DWORD PTR __imp_??1ioHashString@@QAE@XZ
__unwindfunclet$??0ioChargingFireSkill@@QAE@XZ$5:
  00042	8b 4d ec	 mov	 ecx, DWORD PTR _this$[ebp]
  00045	81 c1 48 10 00
	00		 add	 ecx, 4168		; 00001048H
  0004b	ff 25 00 00 00
	00		 jmp	 DWORD PTR __imp_??1ioHashString@@QAE@XZ
__unwindfunclet$??0ioChargingFireSkill@@QAE@XZ$6:
  00051	8b 4d ec	 mov	 ecx, DWORD PTR _this$[ebp]
  00054	81 c1 58 10 00
	00		 add	 ecx, 4184		; 00001058H
  0005a	ff 25 00 00 00
	00		 jmp	 DWORD PTR __imp_??1ioHashString@@QAE@XZ
__unwindfunclet$??0ioChargingFireSkill@@QAE@XZ$7:
  00060	8b 4d ec	 mov	 ecx, DWORD PTR _this$[ebp]
  00063	81 c1 68 10 00
	00		 add	 ecx, 4200		; 00001068H
  00069	ff 25 00 00 00
	00		 jmp	 DWORD PTR __imp_??1ioHashString@@QAE@XZ
__unwindfunclet$??0ioChargingFireSkill@@QAE@XZ$8:
  0006f	8b 4d ec	 mov	 ecx, DWORD PTR _this$[ebp]
  00072	81 c1 78 10 00
	00		 add	 ecx, 4216		; 00001078H
  00078	ff 25 00 00 00
	00		 jmp	 DWORD PTR __imp_??1ioHashString@@QAE@XZ
__unwindfunclet$??0ioChargingFireSkill@@QAE@XZ$9:
  0007e	8b 4d ec	 mov	 ecx, DWORD PTR _this$[ebp]
  00081	81 c1 90 10 00
	00		 add	 ecx, 4240		; 00001090H
  00087	ff 25 00 00 00
	00		 jmp	 DWORD PTR __imp_??1ioHashString@@QAE@XZ
__unwindfunclet$??0ioChargingFireSkill@@QAE@XZ$10:
  0008d	8b 4d ec	 mov	 ecx, DWORD PTR _this$[ebp]
  00090	81 c1 a0 10 00
	00		 add	 ecx, 4256		; 000010a0H
  00096	ff 25 00 00 00
	00		 jmp	 DWORD PTR __imp_??1ioHashString@@QAE@XZ
__ehhandler$??0ioChargingFireSkill@@QAE@XZ:
  0009c	8b 54 24 08	 mov	 edx, DWORD PTR [esp+8]
  000a0	8d 42 0c	 lea	 eax, DWORD PTR [edx+12]
  000a3	8b 4a e8	 mov	 ecx, DWORD PTR [edx-24]
  000a6	33 c8		 xor	 ecx, eax
  000a8	e8 00 00 00 00	 call	 @__security_check_cookie@4
  000ad	b8 00 00 00 00	 mov	 eax, OFFSET __ehfuncinfo$??0ioChargingFireSkill@@QAE@XZ
  000b2	e9 00 00 00 00	 jmp	 ___CxxFrameHandler3
text$x	ENDS
??0ioChargingFireSkill@@QAE@XZ ENDP			; ioChargingFireSkill::ioChargingFireSkill
; Function compile flags: /Ogsp
; File d:\lost saga for developer\youtube\tutorial\source\src\lsclient\ioskill.h
;	COMDAT ?GetDefenseSkillBreakeType@ioSkill@@UBE?AW4DefenseBreakType@@XZ
_TEXT	SEGMENT
?GetDefenseSkillBreakeType@ioSkill@@UBE?AW4DefenseBreakType@@XZ PROC ; ioSkill::GetDefenseSkillBreakeType, COMDAT
; _this$ = ecx

; 327  : 	virtual DefenseBreakType GetDefenseSkillBreakeType() const { return m_eDefenseSkillBreakType; }

  00000	8b 81 30 0e 00
	00		 mov	 eax, DWORD PTR [ecx+3632]
  00006	c3		 ret	 0
?GetDefenseSkillBreakeType@ioSkill@@UBE?AW4DefenseBreakType@@XZ ENDP ; ioSkill::GetDefenseSkillBreakeType
; Function compile flags: /Ogsp
_TEXT	ENDS
;	COMDAT ?GetSkillEndNextJumpAmt@ioSkill@@UBEMXZ
_TEXT	SEGMENT
?GetSkillEndNextJumpAmt@ioSkill@@UBEMXZ PROC		; ioSkill::GetSkillEndNextJumpAmt, COMDAT
; _this$ = ecx

; 335  : 	virtual float GetSkillEndNextJumpAmt() const { return m_fSkillEndNextJumpAmt; }

  00000	d9 81 4c 05 00
	00		 fld	 DWORD PTR [ecx+1356]
  00006	c3		 ret	 0
?GetSkillEndNextJumpAmt@ioSkill@@UBEMXZ ENDP		; ioSkill::GetSkillEndNextJumpAmt
; Function compile flags: /Ogsp
_TEXT	ENDS
;	COMDAT ?GetSkillEndNextLandRate@ioSkill@@UBEMXZ
_TEXT	SEGMENT
?GetSkillEndNextLandRate@ioSkill@@UBEMXZ PROC		; ioSkill::GetSkillEndNextLandRate, COMDAT
; _this$ = ecx

; 336  : 	virtual float GetSkillEndNextLandRate() const { return m_fSkillEndNextLandRate; }

  00000	d9 81 50 05 00
	00		 fld	 DWORD PTR [ecx+1360]
  00006	c3		 ret	 0
?GetSkillEndNextLandRate@ioSkill@@UBEMXZ ENDP		; ioSkill::GetSkillEndNextLandRate
; Function compile flags: /Ogsp
_TEXT	ENDS
;	COMDAT ?GetSkillEndNextJumpMustEnable@ioSkill@@UAE?AW4SkillEndJumpType@@XZ
_TEXT	SEGMENT
?GetSkillEndNextJumpMustEnable@ioSkill@@UAE?AW4SkillEndJumpType@@XZ PROC ; ioSkill::GetSkillEndNextJumpMustEnable, COMDAT
; _this$ = ecx

; 337  : 	virtual SkillEndJumpType GetSkillEndNextJumpMustEnable(){ return SEJT_DEFAULT; }

  00000	33 c0		 xor	 eax, eax
  00002	c3		 ret	 0
?GetSkillEndNextJumpMustEnable@ioSkill@@UAE?AW4SkillEndJumpType@@XZ ENDP ; ioSkill::GetSkillEndNextJumpMustEnable
; Function compile flags: /Ogsp
_TEXT	ENDS
;	COMDAT ?EnableChangeGrapplingTargetPos@ioSkill@@UBE_NXZ
_TEXT	SEGMENT
?EnableChangeGrapplingTargetPos@ioSkill@@UBE_NXZ PROC	; ioSkill::EnableChangeGrapplingTargetPos, COMDAT
; _this$ = ecx

; 355  : 	virtual bool EnableChangeGrapplingTargetPos() const { return m_bChangeGrapplingTargetPos; }

  00000	8a 81 40 09 00
	00		 mov	 al, BYTE PTR [ecx+2368]
  00006	c3		 ret	 0
?EnableChangeGrapplingTargetPos@ioSkill@@UBE_NXZ ENDP	; ioSkill::EnableChangeGrapplingTargetPos
; Function compile flags: /Ogsp
_TEXT	ENDS
;	COMDAT ?IsInvisibleBottomCircle@ioSkill@@UAE_NPAVioBaseChar@@@Z
_TEXT	SEGMENT
_pChar$ = 8						; size = 4
?IsInvisibleBottomCircle@ioSkill@@UAE_NPAVioBaseChar@@@Z PROC ; ioSkill::IsInvisibleBottomCircle, COMDAT
; _this$ = ecx

; 393  : 	virtual bool IsInvisibleBottomCircle( ioBaseChar *pChar ) { return false; }

  00000	32 c0		 xor	 al, al
  00002	c2 04 00	 ret	 4
?IsInvisibleBottomCircle@ioSkill@@UAE_NPAVioBaseChar@@@Z ENDP ; ioSkill::IsInvisibleBottomCircle
; Function compile flags: /Ogsp
_TEXT	ENDS
;	COMDAT ?IsUseActiveCnt@ioSkill@@UBE_NXZ
_TEXT	SEGMENT
?IsUseActiveCnt@ioSkill@@UBE_NXZ PROC			; ioSkill::IsUseActiveCnt, COMDAT
; _this$ = ecx

; 544  : 	virtual bool IsUseActiveCnt() const { return false; }

  00000	32 c0		 xor	 al, al
  00002	c3		 ret	 0
?IsUseActiveCnt@ioSkill@@UBE_NXZ ENDP			; ioSkill::IsUseActiveCnt
; Function compile flags: /Ogsp
_TEXT	ENDS
;	COMDAT ?GetMaxActiveCnt@ioSkill@@UBEHPAVioBaseChar@@@Z
_TEXT	SEGMENT
_pChar$ = 8						; size = 4
?GetMaxActiveCnt@ioSkill@@UBEHPAVioBaseChar@@@Z PROC	; ioSkill::GetMaxActiveCnt, COMDAT
; _this$ = ecx

; 545  : 	virtual int GetMaxActiveCnt( ioBaseChar *pChar ) const { return 0; }

  00000	33 c0		 xor	 eax, eax
  00002	c2 04 00	 ret	 4
?GetMaxActiveCnt@ioSkill@@UBEHPAVioBaseChar@@@Z ENDP	; ioSkill::GetMaxActiveCnt
; Function compile flags: /Ogsp
_TEXT	ENDS
;	COMDAT ?GetCurActiveCnt@ioSkill@@UBEHPAVioBaseChar@@@Z
_TEXT	SEGMENT
_pChar$ = 8						; size = 4
?GetCurActiveCnt@ioSkill@@UBEHPAVioBaseChar@@@Z PROC	; ioSkill::GetCurActiveCnt, COMDAT
; _this$ = ecx

; 546  : 	virtual int GetCurActiveCnt( ioBaseChar *pChar ) const { return 0; }

  00000	33 c0		 xor	 eax, eax
  00002	c2 04 00	 ret	 4
?GetCurActiveCnt@ioSkill@@UBEHPAVioBaseChar@@@Z ENDP	; ioSkill::GetCurActiveCnt
; Function compile flags: /Ogsp
_TEXT	ENDS
;	COMDAT ?IsCanJumpingSkill@ioSkill@@UBE_NXZ
_TEXT	SEGMENT
_value$558396 = -1					; size = 1
?IsCanJumpingSkill@ioSkill@@UBE_NXZ PROC		; ioSkill::IsCanJumpingSkill, COMDAT
; _this$ = ecx

; 431  : 	virtual bool IsCanJumpingSkill() const { return m_bEnableJumpingSkill; }

  00000	55		 push	 ebp
  00001	8b ec		 mov	 ebp, esp
  00003	51		 push	 ecx
  00004	8d 45 ff	 lea	 eax, DWORD PTR _value$558396[ebp]
  00007	50		 push	 eax
  00008	81 c1 9c 03 00
	00		 add	 ecx, 924		; 0000039cH
  0000e	e8 00 00 00 00	 call	 ?DecryptValueToPool@?$CEncrypt@_N@@QAEXPA_N@Z ; CEncrypt<bool>::DecryptValueToPool
  00013	8a 45 ff	 mov	 al, BYTE PTR _value$558396[ebp]
  00016	c9		 leave
  00017	c3		 ret	 0
?IsCanJumpingSkill@ioSkill@@UBE_NXZ ENDP		; ioSkill::IsCanJumpingSkill
; Function compile flags: /Ogsp
_TEXT	ENDS
;	COMDAT ?IsCanJumpingSkillOnBlowWound@ioSkill@@UBE_NXZ
_TEXT	SEGMENT
_value$558403 = -1					; size = 1
?IsCanJumpingSkillOnBlowWound@ioSkill@@UBE_NXZ PROC	; ioSkill::IsCanJumpingSkillOnBlowWound, COMDAT
; _this$ = ecx

; 432  : 	virtual bool IsCanJumpingSkillOnBlowWound() const { return m_bEnableJumpingSkillOnBlowWound; }

  00000	55		 push	 ebp
  00001	8b ec		 mov	 ebp, esp
  00003	51		 push	 ecx
  00004	8d 45 ff	 lea	 eax, DWORD PTR _value$558403[ebp]
  00007	50		 push	 eax
  00008	81 c1 cc 03 00
	00		 add	 ecx, 972		; 000003ccH
  0000e	e8 00 00 00 00	 call	 ?DecryptValueToPool@?$CEncrypt@_N@@QAEXPA_N@Z ; CEncrypt<bool>::DecryptValueToPool
  00013	8a 45 ff	 mov	 al, BYTE PTR _value$558403[ebp]
  00016	c9		 leave
  00017	c3		 ret	 0
?IsCanJumpingSkillOnBlowWound@ioSkill@@UBE_NXZ ENDP	; ioSkill::IsCanJumpingSkillOnBlowWound
; Function compile flags: /Ogsp
_TEXT	ENDS
;	COMDAT ?IsCanDownSkill@ioSkill@@UBE_NXZ
_TEXT	SEGMENT
_value$558410 = -1					; size = 1
?IsCanDownSkill@ioSkill@@UBE_NXZ PROC			; ioSkill::IsCanDownSkill, COMDAT
; _this$ = ecx

; 437  : 	virtual bool IsCanDownSkill() const { return m_bEnableDownSkill; }

  00000	55		 push	 ebp
  00001	8b ec		 mov	 ebp, esp
  00003	51		 push	 ecx
  00004	8d 45 ff	 lea	 eax, DWORD PTR _value$558410[ebp]
  00007	50		 push	 eax
  00008	81 c1 5c 04 00
	00		 add	 ecx, 1116		; 0000045cH
  0000e	e8 00 00 00 00	 call	 ?DecryptValueToPool@?$CEncrypt@_N@@QAEXPA_N@Z ; CEncrypt<bool>::DecryptValueToPool
  00013	8a 45 ff	 mov	 al, BYTE PTR _value$558410[ebp]
  00016	c9		 leave
  00017	c3		 ret	 0
?IsCanDownSkill@ioSkill@@UBE_NXZ ENDP			; ioSkill::IsCanDownSkill
; Function compile flags: /Ogsp
_TEXT	ENDS
;	COMDAT ?IsCanBlowWoundSkill@ioSkill@@UBE_NXZ
_TEXT	SEGMENT
_value$558417 = -1					; size = 1
?IsCanBlowWoundSkill@ioSkill@@UBE_NXZ PROC		; ioSkill::IsCanBlowWoundSkill, COMDAT
; _this$ = ecx

; 440  : 	virtual bool IsCanBlowWoundSkill() const { return m_bEnableBlowWoundSkill; }

  00000	55		 push	 ebp
  00001	8b ec		 mov	 ebp, esp
  00003	51		 push	 ecx
  00004	8d 45 ff	 lea	 eax, DWORD PTR _value$558417[ebp]
  00007	50		 push	 eax
  00008	81 c1 8c 04 00
	00		 add	 ecx, 1164		; 0000048cH
  0000e	e8 00 00 00 00	 call	 ?DecryptValueToPool@?$CEncrypt@_N@@QAEXPA_N@Z ; CEncrypt<bool>::DecryptValueToPool
  00013	8a 45 ff	 mov	 al, BYTE PTR _value$558417[ebp]
  00016	c9		 leave
  00017	c3		 ret	 0
?IsCanBlowWoundSkill@ioSkill@@UBE_NXZ ENDP		; ioSkill::IsCanBlowWoundSkill
; Function compile flags: /Ogsp
_TEXT	ENDS
;	COMDAT ?IsCanWoundSkill@ioSkill@@UBE_NXZ
_TEXT	SEGMENT
_value$558424 = -1					; size = 1
?IsCanWoundSkill@ioSkill@@UBE_NXZ PROC			; ioSkill::IsCanWoundSkill, COMDAT
; _this$ = ecx

; 446  : 	virtual bool IsCanWoundSkill() const { return m_bEnableWoundSkill; }

  00000	55		 push	 ebp
  00001	8b ec		 mov	 ebp, esp
  00003	51		 push	 ecx
  00004	8d 45 ff	 lea	 eax, DWORD PTR _value$558424[ebp]
  00007	50		 push	 eax
  00008	81 c1 54 05 00
	00		 add	 ecx, 1364		; 00000554H
  0000e	e8 00 00 00 00	 call	 ?DecryptValueToPool@?$CEncrypt@_N@@QAEXPA_N@Z ; CEncrypt<bool>::DecryptValueToPool
  00013	8a 45 ff	 mov	 al, BYTE PTR _value$558424[ebp]
  00016	c9		 leave
  00017	c3		 ret	 0
?IsCanWoundSkill@ioSkill@@UBE_NXZ ENDP			; ioSkill::IsCanWoundSkill
_TEXT	ENDS
PUBLIC	??0ioChargingFireSkill@@QAE@ABV0@@Z		; ioChargingFireSkill::ioChargingFireSkill
EXTRN	??0ioNormalSkill@@QAE@ABV0@@Z:PROC		; ioNormalSkill::ioNormalSkill
;	COMDAT xdata$x
; File d:\lost saga for developer\youtube\tutorial\source\src\lsclient\encryptvalue.h
xdata$x	SEGMENT
__ehfuncinfo$??0ioChargingFireSkill@@QAE@ABV0@@Z DD 019930522H
	DD	0bH
	DD	FLAT:__unwindtable$??0ioChargingFireSkill@@QAE@ABV0@@Z
	DD	2 DUP(00H)
	DD	2 DUP(00H)
	DD	00H
	DD	01H
__unwindtable$??0ioChargingFireSkill@@QAE@ABV0@@Z DD 0ffffffffH
	DD	FLAT:__unwindfunclet$??0ioChargingFireSkill@@QAE@ABV0@@Z$0
	DD	00H
	DD	FLAT:__unwindfunclet$??0ioChargingFireSkill@@QAE@ABV0@@Z$1
	DD	01H
	DD	FLAT:__unwindfunclet$??0ioChargingFireSkill@@QAE@ABV0@@Z$2
	DD	02H
	DD	FLAT:__unwindfunclet$??0ioChargingFireSkill@@QAE@ABV0@@Z$3
	DD	03H
	DD	FLAT:__unwindfunclet$??0ioChargingFireSkill@@QAE@ABV0@@Z$4
	DD	04H
	DD	FLAT:__unwindfunclet$??0ioChargingFireSkill@@QAE@ABV0@@Z$5
	DD	05H
	DD	FLAT:__unwindfunclet$??0ioChargingFireSkill@@QAE@ABV0@@Z$6
	DD	06H
	DD	FLAT:__unwindfunclet$??0ioChargingFireSkill@@QAE@ABV0@@Z$7
	DD	07H
	DD	FLAT:__unwindfunclet$??0ioChargingFireSkill@@QAE@ABV0@@Z$8
	DD	08H
	DD	FLAT:__unwindfunclet$??0ioChargingFireSkill@@QAE@ABV0@@Z$9
	DD	09H
	DD	FLAT:__unwindfunclet$??0ioChargingFireSkill@@QAE@ABV0@@Z$10
; Function compile flags: /Ogsp
; File d:\lost saga for developer\youtube\tutorial\source\src\lsclient\iochargingfireskill.cpp
xdata$x	ENDS
;	COMDAT ??0ioChargingFireSkill@@QAE@ABV0@@Z
_TEXT	SEGMENT
_this$ = -16						; size = 4
__$EHRec$ = -12						; size = 12
_value$558452 = 8					; size = 4
_value$558448 = 8					; size = 4
_rhs$ = 8						; size = 4
??0ioChargingFireSkill@@QAE@ABV0@@Z PROC		; ioChargingFireSkill::ioChargingFireSkill, COMDAT
; _this$ = ecx

; 53   : {

  00000	6a 04		 push	 4
  00002	b8 00 00 00 00	 mov	 eax, __ehhandler$??0ioChargingFireSkill@@QAE@ABV0@@Z
  00007	e8 00 00 00 00	 call	 __EH_prolog3
  0000c	8b d9		 mov	 ebx, ecx
  0000e	89 5d f0	 mov	 DWORD PTR _this$[ebp], ebx
  00011	8b 75 08	 mov	 esi, DWORD PTR _rhs$[ebp]
  00014	56		 push	 esi
  00015	e8 00 00 00 00	 call	 ??0ioNormalSkill@@QAE@ABV0@@Z ; ioNormalSkill::ioNormalSkill
  0001a	83 65 fc 00	 and	 DWORD PTR __$EHRec$[ebp+8], 0
  0001e	8d 8b 58 0f 00
	00		 lea	 ecx, DWORD PTR [ebx+3928]
  00024	c7 03 00 00 00
	00		 mov	 DWORD PTR [ebx], OFFSET ??_7ioChargingFireSkill@@6B@
  0002a	e8 00 00 00 00	 call	 ??0?$CEncrypt@H@@QAE@XZ	; CEncrypt<int>::CEncrypt<int>
  0002f	8d 86 88 0f 00
	00		 lea	 eax, DWORD PTR [esi+3976]
  00035	50		 push	 eax
  00036	8d 8b 88 0f 00
	00		 lea	 ecx, DWORD PTR [ebx+3976]
  0003c	c6 45 fc 01	 mov	 BYTE PTR __$EHRec$[ebp+8], 1
  00040	e8 00 00 00 00	 call	 ??0AttackAttribute@@QAE@ABU0@@Z
  00045	8b 3d 00 00 00
	00		 mov	 edi, DWORD PTR __imp_??0ioHashString@@QAE@ABV0@@Z
  0004b	8d 86 d8 0f 00
	00		 lea	 eax, DWORD PTR [esi+4056]
  00051	50		 push	 eax
  00052	8d 8b d8 0f 00
	00		 lea	 ecx, DWORD PTR [ebx+4056]
  00058	c6 45 fc 02	 mov	 BYTE PTR __$EHRec$[ebp+8], 2
  0005c	ff d7		 call	 edi
  0005e	d9 86 e8 0f 00
	00		 fld	 DWORD PTR [esi+4072]
  00064	d9 9b e8 0f 00
	00		 fstp	 DWORD PTR [ebx+4072]
  0006a	8b 86 ec 0f 00
	00		 mov	 eax, DWORD PTR [esi+4076]
  00070	89 83 ec 0f 00
	00		 mov	 DWORD PTR [ebx+4076], eax
  00076	d9 86 00 10 00
	00		 fld	 DWORD PTR [esi+4096]
  0007c	d9 9b 00 10 00
	00		 fstp	 DWORD PTR [ebx+4096]
  00082	8d 8b 18 10 00
	00		 lea	 ecx, DWORD PTR [ebx+4120]
  00088	d9 86 04 10 00
	00		 fld	 DWORD PTR [esi+4100]
  0008e	c6 45 fc 03	 mov	 BYTE PTR __$EHRec$[ebp+8], 3
  00092	d9 9b 04 10 00
	00		 fstp	 DWORD PTR [ebx+4100]
  00098	8b 86 10 10 00
	00		 mov	 eax, DWORD PTR [esi+4112]
  0009e	89 83 10 10 00
	00		 mov	 DWORD PTR [ebx+4112], eax
  000a4	8d 86 18 10 00
	00		 lea	 eax, DWORD PTR [esi+4120]
  000aa	50		 push	 eax
  000ab	ff d7		 call	 edi
  000ad	d9 86 2c 10 00
	00		 fld	 DWORD PTR [esi+4140]
  000b3	d9 9b 2c 10 00
	00		 fstp	 DWORD PTR [ebx+4140]
  000b9	8d 86 48 10 00
	00		 lea	 eax, DWORD PTR [esi+4168]
  000bf	d9 86 30 10 00
	00		 fld	 DWORD PTR [esi+4144]
  000c5	50		 push	 eax
  000c6	d9 9b 30 10 00
	00		 fstp	 DWORD PTR [ebx+4144]
  000cc	8d 8b 48 10 00
	00		 lea	 ecx, DWORD PTR [ebx+4168]
  000d2	d9 86 34 10 00
	00		 fld	 DWORD PTR [esi+4148]
  000d8	c6 45 fc 04	 mov	 BYTE PTR __$EHRec$[ebp+8], 4
  000dc	d9 9b 34 10 00
	00		 fstp	 DWORD PTR [ebx+4148]
  000e2	d9 86 38 10 00
	00		 fld	 DWORD PTR [esi+4152]
  000e8	d9 9b 38 10 00
	00		 fstp	 DWORD PTR [ebx+4152]
  000ee	ff d7		 call	 edi
  000f0	8d 86 58 10 00
	00		 lea	 eax, DWORD PTR [esi+4184]
  000f6	50		 push	 eax
  000f7	8d 8b 58 10 00
	00		 lea	 ecx, DWORD PTR [ebx+4184]
  000fd	c6 45 fc 05	 mov	 BYTE PTR __$EHRec$[ebp+8], 5
  00101	ff d7		 call	 edi
  00103	8d 86 68 10 00
	00		 lea	 eax, DWORD PTR [esi+4200]
  00109	50		 push	 eax
  0010a	8d 8b 68 10 00
	00		 lea	 ecx, DWORD PTR [ebx+4200]
  00110	c6 45 fc 06	 mov	 BYTE PTR __$EHRec$[ebp+8], 6
  00114	ff d7		 call	 edi
  00116	8d 86 78 10 00
	00		 lea	 eax, DWORD PTR [esi+4216]
  0011c	50		 push	 eax
  0011d	8d 8b 78 10 00
	00		 lea	 ecx, DWORD PTR [ebx+4216]
  00123	c6 45 fc 07	 mov	 BYTE PTR __$EHRec$[ebp+8], 7
  00127	ff d7		 call	 edi
  00129	8d 86 90 10 00
	00		 lea	 eax, DWORD PTR [esi+4240]
  0012f	50		 push	 eax
  00130	8d 8b 90 10 00
	00		 lea	 ecx, DWORD PTR [ebx+4240]
  00136	c6 45 fc 08	 mov	 BYTE PTR __$EHRec$[ebp+8], 8
  0013a	ff d7		 call	 edi
  0013c	81 c6 a0 10 00
	00		 add	 esi, 4256		; 000010a0H
  00142	56		 push	 esi
  00143	8d 8b a0 10 00
	00		 lea	 ecx, DWORD PTR [ebx+4256]
  00149	c6 45 fc 09	 mov	 BYTE PTR __$EHRec$[ebp+8], 9
  0014d	ff d7		 call	 edi

; 54   : 	m_State = SS_NONE;

  0014f	8d 45 08	 lea	 eax, DWORD PTR _value$558448[ebp]
  00152	33 f6		 xor	 esi, esi
  00154	50		 push	 eax
  00155	8d 8b 58 0f 00
	00		 lea	 ecx, DWORD PTR [ebx+3928]
  0015b	c6 45 fc 0a	 mov	 BYTE PTR __$EHRec$[ebp+8], 10 ; 0000000aH
  0015f	89 75 08	 mov	 DWORD PTR _value$558448[ebp], esi
  00162	e8 00 00 00 00	 call	 ?EncryptValueToPool@?$CEncrypt@H@@AAEXPBD@Z ; CEncrypt<int>::EncryptValueToPool

; 55   : 
; 56   : 	m_dwCurMapEffect = -1;
; 57   : 	m_dwTargetCircleEffect = -1;
; 58   : 	m_dwChargingEffect = -1;
; 59   : 
; 60   : 	m_bSetHandMesh = false;
; 61   : 
; 62   : 	m_dwPreActionEndTime = 0;
; 63   : 	m_dwLoopStartTime = 0;
; 64   : 	m_dwAttackEndTime = 0;
; 65   : 	m_dwFireStartTime = 0;
; 66   : 
; 67   : 	m_fCurChargeRate = 0.0f;

  00167	0f 57 c0	 xorps	 xmm0, xmm0
  0016a	83 8b 88 10 00
	00 ff		 or	 DWORD PTR [ebx+4232], -1
  00171	83 8b 8c 10 00
	00 ff		 or	 DWORD PTR [ebx+4236], -1
  00178	83 8b 28 10 00
	00 ff		 or	 DWORD PTR [ebx+4136], -1
  0017f	8d 45 08	 lea	 eax, DWORD PTR _value$558452[ebp]
  00182	50		 push	 eax
  00183	8d 8b a4 09 00
	00		 lea	 ecx, DWORD PTR [ebx+2468]
  00189	c6 83 0a 0f 00
	00 00		 mov	 BYTE PTR [ebx+3850], 0
  00190	89 b3 08 10 00
	00		 mov	 DWORD PTR [ebx+4104], esi
  00196	89 b3 0c 10 00
	00		 mov	 DWORD PTR [ebx+4108], esi
  0019c	89 b3 14 10 00
	00		 mov	 DWORD PTR [ebx+4116], esi
  001a2	89 b3 f0 0f 00
	00		 mov	 DWORD PTR [ebx+4080], esi
  001a8	f3 0f 11 45 08	 movss	 DWORD PTR _value$558452[ebp], xmm0
  001ad	e8 00 00 00 00	 call	 ?EncryptValueToPool@?$CEncrypt@M@@AAEXPBD@Z ; CEncrypt<float>::EncryptValueToPool

; 68   : 
; 69   : 	m_vCharMoveDir = ioMath::VEC3_ZERO;

  001b2	8b 35 00 00 00
	00		 mov	 esi, DWORD PTR __imp_?VEC3_ZERO@ioMath@@2UD3DXVECTOR3@@A
  001b8	8d bb f4 0f 00
	00		 lea	 edi, DWORD PTR [ebx+4084]
  001be	a5		 movsd
  001bf	a5		 movsd
  001c0	a5		 movsd

; 70   : }

  001c1	8b c3		 mov	 eax, ebx
  001c3	e8 00 00 00 00	 call	 __EH_epilog3
  001c8	c2 04 00	 ret	 4
_TEXT	ENDS
;	COMDAT text$x
text$x	SEGMENT
__unwindfunclet$??0ioChargingFireSkill@@QAE@ABV0@@Z$0:
  00000	8b 4d f0	 mov	 ecx, DWORD PTR _this$[ebp]
  00003	e9 00 00 00 00	 jmp	 ??1ioNormalSkill@@UAE@XZ ; ioNormalSkill::~ioNormalSkill
__unwindfunclet$??0ioChargingFireSkill@@QAE@ABV0@@Z$1:
  00008	8b 4d f0	 mov	 ecx, DWORD PTR _this$[ebp]
  0000b	81 c1 58 0f 00
	00		 add	 ecx, 3928		; 00000f58H
  00011	e9 00 00 00 00	 jmp	 ??1?$CEncrypt@H@@UAE@XZ	; CEncrypt<int>::~CEncrypt<int>
__unwindfunclet$??0ioChargingFireSkill@@QAE@ABV0@@Z$2:
  00016	8b 4d f0	 mov	 ecx, DWORD PTR _this$[ebp]
  00019	81 c1 88 0f 00
	00		 add	 ecx, 3976		; 00000f88H
  0001f	e9 00 00 00 00	 jmp	 ??1AttackAttribute@@QAE@XZ
__unwindfunclet$??0ioChargingFireSkill@@QAE@ABV0@@Z$3:
  00024	8b 4d f0	 mov	 ecx, DWORD PTR _this$[ebp]
  00027	81 c1 d8 0f 00
	00		 add	 ecx, 4056		; 00000fd8H
  0002d	ff 25 00 00 00
	00		 jmp	 DWORD PTR __imp_??1ioHashString@@QAE@XZ
__unwindfunclet$??0ioChargingFireSkill@@QAE@ABV0@@Z$4:
  00033	8b 4d f0	 mov	 ecx, DWORD PTR _this$[ebp]
  00036	81 c1 18 10 00
	00		 add	 ecx, 4120		; 00001018H
  0003c	ff 25 00 00 00
	00		 jmp	 DWORD PTR __imp_??1ioHashString@@QAE@XZ
__unwindfunclet$??0ioChargingFireSkill@@QAE@ABV0@@Z$5:
  00042	8b 4d f0	 mov	 ecx, DWORD PTR _this$[ebp]
  00045	81 c1 48 10 00
	00		 add	 ecx, 4168		; 00001048H
  0004b	ff 25 00 00 00
	00		 jmp	 DWORD PTR __imp_??1ioHashString@@QAE@XZ
__unwindfunclet$??0ioChargingFireSkill@@QAE@ABV0@@Z$6:
  00051	8b 4d f0	 mov	 ecx, DWORD PTR _this$[ebp]
  00054	81 c1 58 10 00
	00		 add	 ecx, 4184		; 00001058H
  0005a	ff 25 00 00 00
	00		 jmp	 DWORD PTR __imp_??1ioHashString@@QAE@XZ
__unwindfunclet$??0ioChargingFireSkill@@QAE@ABV0@@Z$7:
  00060	8b 4d f0	 mov	 ecx, DWORD PTR _this$[ebp]
  00063	81 c1 68 10 00
	00		 add	 ecx, 4200		; 00001068H
  00069	ff 25 00 00 00
	00		 jmp	 DWORD PTR __imp_??1ioHashString@@QAE@XZ
__unwindfunclet$??0ioChargingFireSkill@@QAE@ABV0@@Z$8:
  0006f	8b 4d f0	 mov	 ecx, DWORD PTR _this$[ebp]
  00072	81 c1 78 10 00
	00		 add	 ecx, 4216		; 00001078H
  00078	ff 25 00 00 00
	00		 jmp	 DWORD PTR __imp_??1ioHashString@@QAE@XZ
__unwindfunclet$??0ioChargingFireSkill@@QAE@ABV0@@Z$9:
  0007e	8b 4d f0	 mov	 ecx, DWORD PTR _this$[ebp]
  00081	81 c1 90 10 00
	00		 add	 ecx, 4240		; 00001090H
  00087	ff 25 00 00 00
	00		 jmp	 DWORD PTR __imp_??1ioHashString@@QAE@XZ
__unwindfunclet$??0ioChargingFireSkill@@QAE@ABV0@@Z$10:
  0008d	8b 4d f0	 mov	 ecx, DWORD PTR _this$[ebp]
  00090	81 c1 a0 10 00
	00		 add	 ecx, 4256		; 000010a0H
  00096	ff 25 00 00 00
	00		 jmp	 DWORD PTR __imp_??1ioHashString@@QAE@XZ
__ehhandler$??0ioChargingFireSkill@@QAE@ABV0@@Z:
  0009c	8b 54 24 08	 mov	 edx, DWORD PTR [esp+8]
  000a0	8d 42 0c	 lea	 eax, DWORD PTR [edx+12]
  000a3	8b 4a ec	 mov	 ecx, DWORD PTR [edx-20]
  000a6	33 c8		 xor	 ecx, eax
  000a8	e8 00 00 00 00	 call	 @__security_check_cookie@4
  000ad	b8 00 00 00 00	 mov	 eax, OFFSET __ehfuncinfo$??0ioChargingFireSkill@@QAE@ABV0@@Z
  000b2	e9 00 00 00 00	 jmp	 ___CxxFrameHandler3
text$x	ENDS
??0ioChargingFireSkill@@QAE@ABV0@@Z ENDP		; ioChargingFireSkill::ioChargingFireSkill
PUBLIC	??1ioChargingFireSkill@@UAE@XZ			; ioChargingFireSkill::~ioChargingFireSkill
;	COMDAT xdata$x
; File d:\lost saga for developer\youtube\tutorial\source\src\lsclient\encryptvalue.h
xdata$x	SEGMENT
__ehfuncinfo$??1ioChargingFireSkill@@UAE@XZ DD 019930522H
	DD	0aH
	DD	FLAT:__unwindtable$??1ioChargingFireSkill@@UAE@XZ
	DD	2 DUP(00H)
	DD	2 DUP(00H)
	DD	00H
	DD	01H
__unwindtable$??1ioChargingFireSkill@@UAE@XZ DD 0ffffffffH
	DD	FLAT:__unwindfunclet$??1ioChargingFireSkill@@UAE@XZ$0
	DD	00H
	DD	FLAT:__unwindfunclet$??1ioChargingFireSkill@@UAE@XZ$1
	DD	01H
	DD	FLAT:__unwindfunclet$??1ioChargingFireSkill@@UAE@XZ$2
	DD	02H
	DD	FLAT:__unwindfunclet$??1ioChargingFireSkill@@UAE@XZ$3
	DD	03H
	DD	FLAT:__unwindfunclet$??1ioChargingFireSkill@@UAE@XZ$4
	DD	04H
	DD	FLAT:__unwindfunclet$??1ioChargingFireSkill@@UAE@XZ$5
	DD	05H
	DD	FLAT:__unwindfunclet$??1ioChargingFireSkill@@UAE@XZ$6
	DD	06H
	DD	FLAT:__unwindfunclet$??1ioChargingFireSkill@@UAE@XZ$7
	DD	07H
	DD	FLAT:__unwindfunclet$??1ioChargingFireSkill@@UAE@XZ$8
	DD	08H
	DD	FLAT:__unwindfunclet$??1ioChargingFireSkill@@UAE@XZ$9
; Function compile flags: /Ogsp
; File d:\lost saga for developer\youtube\tutorial\source\src\lsclient\iochargingfireskill.cpp
xdata$x	ENDS
;	COMDAT ??1ioChargingFireSkill@@UAE@XZ
_TEXT	SEGMENT
_this$ = -16						; size = 4
__$EHRec$ = -12						; size = 12
??1ioChargingFireSkill@@UAE@XZ PROC			; ioChargingFireSkill::~ioChargingFireSkill, COMDAT
; _this$ = ecx

; 73   : {

  00000	6a 04		 push	 4
  00002	b8 00 00 00 00	 mov	 eax, __ehhandler$??1ioChargingFireSkill@@UAE@XZ
  00007	e8 00 00 00 00	 call	 __EH_prolog3
  0000c	8b f1		 mov	 esi, ecx
  0000e	89 75 f0	 mov	 DWORD PTR _this$[ebp], esi
  00011	c7 06 00 00 00
	00		 mov	 DWORD PTR [esi], OFFSET ??_7ioChargingFireSkill@@6B@

; 74   : }

  00017	8b 3d 00 00 00
	00		 mov	 edi, DWORD PTR __imp_??1ioHashString@@QAE@XZ
  0001d	8d 8e a0 10 00
	00		 lea	 ecx, DWORD PTR [esi+4256]
  00023	c7 45 fc 09 00
	00 00		 mov	 DWORD PTR __$EHRec$[ebp+8], 9
  0002a	ff d7		 call	 edi
  0002c	8d 8e 90 10 00
	00		 lea	 ecx, DWORD PTR [esi+4240]
  00032	c6 45 fc 08	 mov	 BYTE PTR __$EHRec$[ebp+8], 8
  00036	ff d7		 call	 edi
  00038	8d 8e 78 10 00
	00		 lea	 ecx, DWORD PTR [esi+4216]
  0003e	c6 45 fc 07	 mov	 BYTE PTR __$EHRec$[ebp+8], 7
  00042	ff d7		 call	 edi
  00044	8d 8e 68 10 00
	00		 lea	 ecx, DWORD PTR [esi+4200]
  0004a	c6 45 fc 06	 mov	 BYTE PTR __$EHRec$[ebp+8], 6
  0004e	ff d7		 call	 edi
  00050	8d 8e 58 10 00
	00		 lea	 ecx, DWORD PTR [esi+4184]
  00056	c6 45 fc 05	 mov	 BYTE PTR __$EHRec$[ebp+8], 5
  0005a	ff d7		 call	 edi
  0005c	8d 8e 48 10 00
	00		 lea	 ecx, DWORD PTR [esi+4168]
  00062	c6 45 fc 04	 mov	 BYTE PTR __$EHRec$[ebp+8], 4
  00066	ff d7		 call	 edi
  00068	8d 8e 18 10 00
	00		 lea	 ecx, DWORD PTR [esi+4120]
  0006e	c6 45 fc 03	 mov	 BYTE PTR __$EHRec$[ebp+8], 3
  00072	ff d7		 call	 edi
  00074	8d 8e d8 0f 00
	00		 lea	 ecx, DWORD PTR [esi+4056]
  0007a	c6 45 fc 02	 mov	 BYTE PTR __$EHRec$[ebp+8], 2
  0007e	ff d7		 call	 edi
  00080	8d 8e 88 0f 00
	00		 lea	 ecx, DWORD PTR [esi+3976]
  00086	c6 45 fc 01	 mov	 BYTE PTR __$EHRec$[ebp+8], 1
  0008a	e8 00 00 00 00	 call	 ??1AttackAttribute@@QAE@XZ
  0008f	8d 8e 64 0f 00
	00		 lea	 ecx, DWORD PTR [esi+3940]
  00095	c6 45 fc 00	 mov	 BYTE PTR __$EHRec$[ebp+8], 0
  00099	c7 86 58 0f 00
	00 00 00 00 00	 mov	 DWORD PTR [esi+3928], OFFSET ??_7?$CEncrypt@H@@6B@
  000a3	e8 00 00 00 00	 call	 ??1ccddaabb@@UAE@XZ	; ccddaabb::~ccddaabb
  000a8	83 4d fc ff	 or	 DWORD PTR __$EHRec$[ebp+8], -1
  000ac	8b ce		 mov	 ecx, esi
  000ae	e8 00 00 00 00	 call	 ??1ioNormalSkill@@UAE@XZ ; ioNormalSkill::~ioNormalSkill
  000b3	e8 00 00 00 00	 call	 __EH_epilog3
  000b8	c3		 ret	 0
_TEXT	ENDS
;	COMDAT text$x
text$x	SEGMENT
__unwindfunclet$??1ioChargingFireSkill@@UAE@XZ$0:
  00000	8b 4d f0	 mov	 ecx, DWORD PTR _this$[ebp]
  00003	e9 00 00 00 00	 jmp	 ??1ioNormalSkill@@UAE@XZ ; ioNormalSkill::~ioNormalSkill
__unwindfunclet$??1ioChargingFireSkill@@UAE@XZ$1:
  00008	8b 4d f0	 mov	 ecx, DWORD PTR _this$[ebp]
  0000b	81 c1 58 0f 00
	00		 add	 ecx, 3928		; 00000f58H
  00011	e9 00 00 00 00	 jmp	 ??1?$CEncrypt@H@@UAE@XZ	; CEncrypt<int>::~CEncrypt<int>
__unwindfunclet$??1ioChargingFireSkill@@UAE@XZ$2:
  00016	8b 4d f0	 mov	 ecx, DWORD PTR _this$[ebp]
  00019	81 c1 88 0f 00
	00		 add	 ecx, 3976		; 00000f88H
  0001f	e9 00 00 00 00	 jmp	 ??1AttackAttribute@@QAE@XZ
__unwindfunclet$??1ioChargingFireSkill@@UAE@XZ$3:
  00024	8b 4d f0	 mov	 ecx, DWORD PTR _this$[ebp]
  00027	81 c1 d8 0f 00
	00		 add	 ecx, 4056		; 00000fd8H
  0002d	ff 25 00 00 00
	00		 jmp	 DWORD PTR __imp_??1ioHashString@@QAE@XZ
__unwindfunclet$??1ioChargingFireSkill@@UAE@XZ$4:
  00033	8b 4d f0	 mov	 ecx, DWORD PTR _this$[ebp]
  00036	81 c1 18 10 00
	00		 add	 ecx, 4120		; 00001018H
  0003c	ff 25 00 00 00
	00		 jmp	 DWORD PTR __imp_??1ioHashString@@QAE@XZ
__unwindfunclet$??1ioChargingFireSkill@@UAE@XZ$5:
  00042	8b 4d f0	 mov	 ecx, DWORD PTR _this$[ebp]
  00045	81 c1 48 10 00
	00		 add	 ecx, 4168		; 00001048H
  0004b	ff 25 00 00 00
	00		 jmp	 DWORD PTR __imp_??1ioHashString@@QAE@XZ
__unwindfunclet$??1ioChargingFireSkill@@UAE@XZ$6:
  00051	8b 4d f0	 mov	 ecx, DWORD PTR _this$[ebp]
  00054	81 c1 58 10 00
	00		 add	 ecx, 4184		; 00001058H
  0005a	ff 25 00 00 00
	00		 jmp	 DWORD PTR __imp_??1ioHashString@@QAE@XZ
__unwindfunclet$??1ioChargingFireSkill@@UAE@XZ$7:
  00060	8b 4d f0	 mov	 ecx, DWORD PTR _this$[ebp]
  00063	81 c1 68 10 00
	00		 add	 ecx, 4200		; 00001068H
  00069	ff 25 00 00 00
	00		 jmp	 DWORD PTR __imp_??1ioHashString@@QAE@XZ
__unwindfunclet$??1ioChargingFireSkill@@UAE@XZ$8:
  0006f	8b 4d f0	 mov	 ecx, DWORD PTR _this$[ebp]
  00072	81 c1 78 10 00
	00		 add	 ecx, 4216		; 00001078H
  00078	ff 25 00 00 00
	00		 jmp	 DWORD PTR __imp_??1ioHashString@@QAE@XZ
__unwindfunclet$??1ioChargingFireSkill@@UAE@XZ$9:
  0007e	8b 4d f0	 mov	 ecx, DWORD PTR _this$[ebp]
  00081	81 c1 90 10 00
	00		 add	 ecx, 4240		; 00001090H
  00087	ff 25 00 00 00
	00		 jmp	 DWORD PTR __imp_??1ioHashString@@QAE@XZ
__ehhandler$??1ioChargingFireSkill@@UAE@XZ:
  0008d	8b 54 24 08	 mov	 edx, DWORD PTR [esp+8]
  00091	8d 42 0c	 lea	 eax, DWORD PTR [edx+12]
  00094	8b 4a ec	 mov	 ecx, DWORD PTR [edx-20]
  00097	33 c8		 xor	 ecx, eax
  00099	e8 00 00 00 00	 call	 @__security_check_cookie@4
  0009e	b8 00 00 00 00	 mov	 eax, OFFSET __ehfuncinfo$??1ioChargingFireSkill@@UAE@XZ
  000a3	e9 00 00 00 00	 jmp	 ___CxxFrameHandler3
text$x	ENDS
??1ioChargingFireSkill@@UAE@XZ ENDP			; ioChargingFireSkill::~ioChargingFireSkill
;	COMDAT xdata$x
xdata$x	SEGMENT
__unwindtable$?Clone@ioChargingFireSkill@@UAEPAVioSkill@@XZ DD 0ffffffffH
	DD	FLAT:__unwindfunclet$?Clone@ioChargingFireSkill@@UAEPAVioSkill@@XZ$0
__ehfuncinfo$?Clone@ioChargingFireSkill@@UAEPAVioSkill@@XZ DD 019930522H
	DD	01H
	DD	FLAT:__unwindtable$?Clone@ioChargingFireSkill@@UAEPAVioSkill@@XZ
	DD	2 DUP(00H)
	DD	2 DUP(00H)
	DD	00H
	DD	01H
; Function compile flags: /Ogsp
xdata$x	ENDS
;	COMDAT ?Clone@ioChargingFireSkill@@UAEPAVioSkill@@XZ
_TEXT	SEGMENT
$T558486 = -16						; size = 4
__$EHRec$ = -12						; size = 12
?Clone@ioChargingFireSkill@@UAEPAVioSkill@@XZ PROC	; ioChargingFireSkill::Clone, COMDAT
; _this$ = ecx

; 124  : {

  00000	6a 04		 push	 4
  00002	b8 00 00 00 00	 mov	 eax, __ehhandler$?Clone@ioChargingFireSkill@@UAEPAVioSkill@@XZ
  00007	e8 00 00 00 00	 call	 __EH_prolog3
  0000c	8b f1		 mov	 esi, ecx

; 125  : 	return new ioChargingFireSkill( *this );

  0000e	68 b4 10 00 00	 push	 4276			; 000010b4H
  00013	e8 00 00 00 00	 call	 ??2@YAPAXI@Z		; operator new
  00018	59		 pop	 ecx
  00019	8b c8		 mov	 ecx, eax
  0001b	89 4d f0	 mov	 DWORD PTR $T558486[ebp], ecx
  0001e	33 c0		 xor	 eax, eax
  00020	89 45 fc	 mov	 DWORD PTR __$EHRec$[ebp+8], eax
  00023	3b c8		 cmp	 ecx, eax
  00025	74 06		 je	 SHORT $LN3@Clone
  00027	56		 push	 esi
  00028	e8 00 00 00 00	 call	 ??0ioChargingFireSkill@@QAE@ABV0@@Z ; ioChargingFireSkill::ioChargingFireSkill
$LN3@Clone:

; 126  : }

  0002d	e8 00 00 00 00	 call	 __EH_epilog3
  00032	c3		 ret	 0
_TEXT	ENDS
;	COMDAT text$x
text$x	SEGMENT
__unwindfunclet$?Clone@ioChargingFireSkill@@UAEPAVioSkill@@XZ$0:
  00000	ff 75 f0	 push	 DWORD PTR $T558486[ebp]
  00003	e8 00 00 00 00	 call	 ??3@YAXPAX@Z		; operator delete
  00008	59		 pop	 ecx
  00009	c3		 ret	 0
__ehhandler$?Clone@ioChargingFireSkill@@UAEPAVioSkill@@XZ:
  0000a	8b 54 24 08	 mov	 edx, DWORD PTR [esp+8]
  0000e	8d 42 0c	 lea	 eax, DWORD PTR [edx+12]
  00011	8b 4a ec	 mov	 ecx, DWORD PTR [edx-20]
  00014	33 c8		 xor	 ecx, eax
  00016	e8 00 00 00 00	 call	 @__security_check_cookie@4
  0001b	b8 00 00 00 00	 mov	 eax, OFFSET __ehfuncinfo$?Clone@ioChargingFireSkill@@UAEPAVioSkill@@XZ
  00020	e9 00 00 00 00	 jmp	 ___CxxFrameHandler3
text$x	ENDS
?Clone@ioChargingFireSkill@@UAEPAVioSkill@@XZ ENDP	; ioChargingFireSkill::Clone
; Function compile flags: /Ogsp
;	COMDAT ??_GioChargingFireSkill@@UAEPAXI@Z
_TEXT	SEGMENT
___flags$ = 8						; size = 4
??_GioChargingFireSkill@@UAEPAXI@Z PROC			; ioChargingFireSkill::`scalar deleting destructor', COMDAT
; _this$ = ecx
  00000	55		 push	 ebp
  00001	8b ec		 mov	 ebp, esp
  00003	56		 push	 esi
  00004	8b f1		 mov	 esi, ecx
  00006	e8 00 00 00 00	 call	 ??1ioChargingFireSkill@@UAE@XZ ; ioChargingFireSkill::~ioChargingFireSkill
  0000b	f6 45 08 01	 test	 BYTE PTR ___flags$[ebp], 1
  0000f	74 07		 je	 SHORT $LN1@scalar@4
  00011	56		 push	 esi
  00012	e8 00 00 00 00	 call	 ??3@YAXPAX@Z		; operator delete
  00017	59		 pop	 ecx
$LN1@scalar@4:
  00018	8b c6		 mov	 eax, esi
  0001a	5e		 pop	 esi
  0001b	5d		 pop	 ebp
  0001c	c2 04 00	 ret	 4
??_GioChargingFireSkill@@UAEPAXI@Z ENDP			; ioChargingFireSkill::`scalar deleting destructor'
_TEXT	ENDS
END
