; Listing generated by Microsoft (R) Optimizing Compiler Version 16.00.30319.01 

	TITLE	D:\Lost Saga For Developer\Youtube\Tutorial\Source\src\LSClient\ioChargingFireSkill4.cpp
	.686P
	.XMM
	include listing.inc
	.model	flat

INCLUDELIB MSVCRT
INCLUDELIB OLDNAMES

PUBLIC	?_EEM_DS@?$deque@UD3DXVECTOR3@@V?$allocator@UD3DXVECTOR3@@@std@@@std@@2HB ; std::deque<D3DXVECTOR3,std::allocator<D3DXVECTOR3> >::_EEM_DS
;	COMDAT ?_EEM_DS@?$deque@UD3DXVECTOR3@@V?$allocator@UD3DXVECTOR3@@@std@@@std@@2HB
CONST	SEGMENT
?_EEM_DS@?$deque@UD3DXVECTOR3@@V?$allocator@UD3DXVECTOR3@@@std@@@std@@2HB DD 01H ; std::deque<D3DXVECTOR3,std::allocator<D3DXVECTOR3> >::_EEM_DS
CONST	ENDS
PUBLIC	?return1@@YAIXZ					; return1
; Function compile flags: /Ogsp
; File d:\lost saga for developer\youtube\tutorial\source\src\lsclient\stdafx.h
;	COMDAT ?return1@@YAIXZ
_TEXT	SEGMENT
?return1@@YAIXZ PROC					; return1, COMDAT

; 17   : 	__forceinline unsigned int return1() { __asm mov eax, 1 };

  00000	b8 01 00 00 00	 mov	 eax, 1
  00005	c3		 ret	 0
?return1@@YAIXZ ENDP					; return1
_TEXT	ENDS
PUBLIC	?return5@@YAIXZ					; return5
; Function compile flags: /Ogsp
;	COMDAT ?return5@@YAIXZ
_TEXT	SEGMENT
?return5@@YAIXZ PROC					; return5, COMDAT

; 18   : 	__forceinline unsigned int return5() { __asm mov eax, 5 };

  00000	b8 05 00 00 00	 mov	 eax, 5
  00005	c3		 ret	 0
?return5@@YAIXZ ENDP					; return5
_TEXT	ENDS
PUBLIC	?return10@@YAIXZ				; return10
; Function compile flags: /Ogsp
;	COMDAT ?return10@@YAIXZ
_TEXT	SEGMENT
?return10@@YAIXZ PROC					; return10, COMDAT

; 21   : 	__forceinline unsigned int return10() { __asm mov eax, 10 };

  00000	b8 0a 00 00 00	 mov	 eax, 10			; 0000000aH
  00005	c3		 ret	 0
?return10@@YAIXZ ENDP					; return10
_TEXT	ENDS
PUBLIC	?return100@@YAIXZ				; return100
; Function compile flags: /Ogsp
;	COMDAT ?return100@@YAIXZ
_TEXT	SEGMENT
?return100@@YAIXZ PROC					; return100, COMDAT

; 25   : 	__forceinline unsigned int return100() { __asm mov eax, 100 };

  00000	b8 64 00 00 00	 mov	 eax, 100		; 00000064H
  00005	c3		 ret	 0
?return100@@YAIXZ ENDP					; return100
_TEXT	ENDS
PUBLIC	?GetBlowStopMotionState@ioBaseChar@@QBE_NXZ	; ioBaseChar::GetBlowStopMotionState
; Function compile flags: /Ogsp
; File d:\lost saga for developer\youtube\tutorial\source\src\lsclient\iobasechar.h
;	COMDAT ?GetBlowStopMotionState@ioBaseChar@@QBE_NXZ
_TEXT	SEGMENT
?GetBlowStopMotionState@ioBaseChar@@QBE_NXZ PROC	; ioBaseChar::GetBlowStopMotionState, COMDAT
; _this$ = ecx

; 1566 : 	inline bool GetBlowStopMotionState() const { return m_bBlowStopMotion; }

  00000	8a 81 c7 15 00
	00		 mov	 al, BYTE PTR [ecx+5575]
  00006	c3		 ret	 0
?GetBlowStopMotionState@ioBaseChar@@QBE_NXZ ENDP	; ioBaseChar::GetBlowStopMotionState
_TEXT	ENDS
PUBLIC	?GetBlowFrozenState@ioBaseChar@@QBE_NXZ		; ioBaseChar::GetBlowFrozenState
; Function compile flags: /Ogsp
;	COMDAT ?GetBlowFrozenState@ioBaseChar@@QBE_NXZ
_TEXT	SEGMENT
?GetBlowFrozenState@ioBaseChar@@QBE_NXZ PROC		; ioBaseChar::GetBlowFrozenState, COMDAT
; _this$ = ecx

; 1571 : 	inline bool GetBlowFrozenState() const { return m_bBlowFrozenState; }

  00000	8a 81 c5 15 00
	00		 mov	 al, BYTE PTR [ecx+5573]
  00006	c3		 ret	 0
?GetBlowFrozenState@ioBaseChar@@QBE_NXZ ENDP		; ioBaseChar::GetBlowFrozenState
_TEXT	ENDS
PUBLIC	?GetState@ioBaseChar@@QBE?AW4CharState@@XZ	; ioBaseChar::GetState
; Function compile flags: /Ogsp
;	COMDAT ?GetState@ioBaseChar@@QBE?AW4CharState@@XZ
_TEXT	SEGMENT
?GetState@ioBaseChar@@QBE?AW4CharState@@XZ PROC		; ioBaseChar::GetState, COMDAT
; _this$ = ecx

; 2156 : 	inline CharState GetState() const { return m_CharState; }	

  00000	8a 81 10 03 00
	00		 mov	 al, BYTE PTR [ecx+784]
  00006	c3		 ret	 0
?GetState@ioBaseChar@@QBE?AW4CharState@@XZ ENDP		; ioBaseChar::GetState
_TEXT	ENDS
PUBLIC	?GetCharName@ioBaseChar@@QBEABVioHashString@@XZ	; ioBaseChar::GetCharName
; Function compile flags: /Ogsp
;	COMDAT ?GetCharName@ioBaseChar@@QBEABVioHashString@@XZ
_TEXT	SEGMENT
?GetCharName@ioBaseChar@@QBEABVioHashString@@XZ PROC	; ioBaseChar::GetCharName, COMDAT
; _this$ = ecx

; 2594 : 	inline const ioHashString& GetCharName() const { return m_Name; }

  00000	8d 81 d4 02 00
	00		 lea	 eax, DWORD PTR [ecx+724]
  00006	c3		 ret	 0
?GetCharName@ioBaseChar@@QBEABVioHashString@@XZ ENDP	; ioBaseChar::GetCharName
_TEXT	ENDS
PUBLIC	?GetTargetRot@ioBaseChar@@QBEABUD3DXQUATERNION@@XZ ; ioBaseChar::GetTargetRot
; Function compile flags: /Ogsp
;	COMDAT ?GetTargetRot@ioBaseChar@@QBEABUD3DXQUATERNION@@XZ
_TEXT	SEGMENT
?GetTargetRot@ioBaseChar@@QBEABUD3DXQUATERNION@@XZ PROC	; ioBaseChar::GetTargetRot, COMDAT
; _this$ = ecx

; 2599 : 	inline const D3DXQUATERNION& GetTargetRot() const { return m_qtTargetRot; }

  00000	8d 81 a4 06 00
	00		 lea	 eax, DWORD PTR [ecx+1700]
  00006	c3		 ret	 0
?GetTargetRot@ioBaseChar@@QBEABUD3DXQUATERNION@@XZ ENDP	; ioBaseChar::GetTargetRot
_TEXT	ENDS
PUBLIC	?SetCurJumpPowerAmt@ioBaseChar@@QAEXM@Z		; ioBaseChar::SetCurJumpPowerAmt
EXTRN	__fltused:DWORD
; Function compile flags: /Ogsp
;	COMDAT ?SetCurJumpPowerAmt@ioBaseChar@@QAEXM@Z
_TEXT	SEGMENT
_fAmt$ = 8						; size = 4
?SetCurJumpPowerAmt@ioBaseChar@@QAEXM@Z PROC		; ioBaseChar::SetCurJumpPowerAmt, COMDAT
; _this$ = ecx

; 2628 : 	inline void SetCurJumpPowerAmt( float fAmt ) { m_fCurJumpPowerAmt = fAmt; }

  00000	55		 push	 ebp
  00001	8b ec		 mov	 ebp, esp
  00003	f3 0f 10 45 08	 movss	 xmm0, DWORD PTR _fAmt$[ebp]
  00008	f3 0f 11 81 90
	0e 00 00	 movss	 DWORD PTR [ecx+3728], xmm0
  00010	5d		 pop	 ebp
  00011	c2 04 00	 ret	 4
?SetCurJumpPowerAmt@ioBaseChar@@QAEXM@Z ENDP		; ioBaseChar::SetCurJumpPowerAmt
_TEXT	ENDS
PUBLIC	_cosf
EXTRN	__CIcos:PROC
; Function compile flags: /Ogsp
; File c:\program files (x86)\microsoft visual studio 10.0\vc\include\math.h
;	COMDAT _cosf
_TEXT	SEGMENT
tv69 = 8						; size = 4
__X$ = 8						; size = 4
_cosf	PROC						; COMDAT

; 410  :         {return ((float)cos((double)_X)); }

  00000	55		 push	 ebp
  00001	8b ec		 mov	 ebp, esp
  00003	d9 45 08	 fld	 DWORD PTR __X$[ebp]
  00006	e8 00 00 00 00	 call	 __CIcos
  0000b	d9 5d 08	 fstp	 DWORD PTR tv69[ebp]
  0000e	d9 45 08	 fld	 DWORD PTR tv69[ebp]
  00011	5d		 pop	 ebp
  00012	c3		 ret	 0
_cosf	ENDP
_TEXT	ENDS
PUBLIC	??_7bad_alloc@std@@6B@				; std::bad_alloc::`vftable'
PUBLIC	??0bad_alloc@std@@QAE@PBD@Z			; std::bad_alloc::bad_alloc
PUBLIC	??_R4bad_alloc@std@@6B@				; std::bad_alloc::`RTTI Complete Object Locator'
PUBLIC	??_R0?AVbad_alloc@std@@@8			; std::bad_alloc `RTTI Type Descriptor'
PUBLIC	??_R3bad_alloc@std@@8				; std::bad_alloc::`RTTI Class Hierarchy Descriptor'
PUBLIC	??_R2bad_alloc@std@@8				; std::bad_alloc::`RTTI Base Class Array'
PUBLIC	??_R1A@?0A@EA@bad_alloc@std@@8			; std::bad_alloc::`RTTI Base Class Descriptor at (0,-1,0,64)'
PUBLIC	??_R1A@?0A@EA@exception@std@@8			; std::exception::`RTTI Base Class Descriptor at (0,-1,0,64)'
PUBLIC	??_R0?AVexception@std@@@8			; std::exception `RTTI Type Descriptor'
PUBLIC	??_R3exception@std@@8				; std::exception::`RTTI Class Hierarchy Descriptor'
PUBLIC	??_R2exception@std@@8				; std::exception::`RTTI Base Class Array'
EXTRN	__imp_??0exception@std@@QAE@ABQBD@Z:PROC
EXTRN	??_7type_info@@6B@:QWORD			; type_info::`vftable'
EXTRN	??_Ebad_alloc@std@@UAEPAXI@Z:PROC		; std::bad_alloc::`vector deleting destructor'
EXTRN	?what@exception@std@@UBEPBDXZ:PROC		; std::exception::what
;	COMDAT ??_R2exception@std@@8
; File c:\program files (x86)\microsoft visual studio 10.0\vc\include\exception
rdata$r	SEGMENT
??_R2exception@std@@8 DD FLAT:??_R1A@?0A@EA@exception@std@@8 ; std::exception::`RTTI Base Class Array'
rdata$r	ENDS
;	COMDAT ??_R3exception@std@@8
rdata$r	SEGMENT
??_R3exception@std@@8 DD 00H				; std::exception::`RTTI Class Hierarchy Descriptor'
	DD	00H
	DD	01H
	DD	FLAT:??_R2exception@std@@8
rdata$r	ENDS
;	COMDAT ??_R0?AVexception@std@@@8
_DATA	SEGMENT
??_R0?AVexception@std@@@8 DD FLAT:??_7type_info@@6B@	; std::exception `RTTI Type Descriptor'
	DD	00H
	DB	'.?AVexception@std@@', 00H
_DATA	ENDS
;	COMDAT ??_R1A@?0A@EA@exception@std@@8
rdata$r	SEGMENT
??_R1A@?0A@EA@exception@std@@8 DD FLAT:??_R0?AVexception@std@@@8 ; std::exception::`RTTI Base Class Descriptor at (0,-1,0,64)'
	DD	00H
	DD	00H
	DD	0ffffffffH
	DD	00H
	DD	040H
	DD	FLAT:??_R3exception@std@@8
rdata$r	ENDS
;	COMDAT ??_R1A@?0A@EA@bad_alloc@std@@8
rdata$r	SEGMENT
??_R1A@?0A@EA@bad_alloc@std@@8 DD FLAT:??_R0?AVbad_alloc@std@@@8 ; std::bad_alloc::`RTTI Base Class Descriptor at (0,-1,0,64)'
	DD	01H
	DD	00H
	DD	0ffffffffH
	DD	00H
	DD	040H
	DD	FLAT:??_R3bad_alloc@std@@8
rdata$r	ENDS
;	COMDAT ??_R2bad_alloc@std@@8
rdata$r	SEGMENT
??_R2bad_alloc@std@@8 DD FLAT:??_R1A@?0A@EA@bad_alloc@std@@8 ; std::bad_alloc::`RTTI Base Class Array'
	DD	FLAT:??_R1A@?0A@EA@exception@std@@8
rdata$r	ENDS
;	COMDAT ??_R3bad_alloc@std@@8
rdata$r	SEGMENT
??_R3bad_alloc@std@@8 DD 00H				; std::bad_alloc::`RTTI Class Hierarchy Descriptor'
	DD	00H
	DD	02H
	DD	FLAT:??_R2bad_alloc@std@@8
rdata$r	ENDS
;	COMDAT ??_R0?AVbad_alloc@std@@@8
_DATA	SEGMENT
??_R0?AVbad_alloc@std@@@8 DD FLAT:??_7type_info@@6B@	; std::bad_alloc `RTTI Type Descriptor'
	DD	00H
	DB	'.?AVbad_alloc@std@@', 00H
_DATA	ENDS
;	COMDAT ??_R4bad_alloc@std@@6B@
rdata$r	SEGMENT
??_R4bad_alloc@std@@6B@ DD 00H				; std::bad_alloc::`RTTI Complete Object Locator'
	DD	00H
	DD	00H
	DD	FLAT:??_R0?AVbad_alloc@std@@@8
	DD	FLAT:??_R3bad_alloc@std@@8
rdata$r	ENDS
;	COMDAT ??_7bad_alloc@std@@6B@
CONST	SEGMENT
??_7bad_alloc@std@@6B@ DD FLAT:??_R4bad_alloc@std@@6B@	; std::bad_alloc::`vftable'
	DD	FLAT:??_Ebad_alloc@std@@UAEPAXI@Z
	DD	FLAT:?what@exception@std@@UBEPBDXZ
; Function compile flags: /Ogsp
CONST	ENDS
;	COMDAT ??0bad_alloc@std@@QAE@PBD@Z
_TEXT	SEGMENT
__Message$ = 8						; size = 4
??0bad_alloc@std@@QAE@PBD@Z PROC			; std::bad_alloc::bad_alloc, COMDAT
; _this$ = ecx

; 345  : 		{	// construct from message string

  00000	55		 push	 ebp
  00001	8b ec		 mov	 ebp, esp
  00003	56		 push	 esi
  00004	8d 45 08	 lea	 eax, DWORD PTR __Message$[ebp]
  00007	50		 push	 eax
  00008	8b f1		 mov	 esi, ecx
  0000a	ff 15 00 00 00
	00		 call	 DWORD PTR __imp_??0exception@std@@QAE@ABQBD@Z
  00010	c7 06 00 00 00
	00		 mov	 DWORD PTR [esi], OFFSET ??_7bad_alloc@std@@6B@

; 346  : 		}

  00016	8b c6		 mov	 eax, esi
  00018	5e		 pop	 esi
  00019	5d		 pop	 ebp
  0001a	c2 04 00	 ret	 4
??0bad_alloc@std@@QAE@PBD@Z ENDP			; std::bad_alloc::bad_alloc
_TEXT	ENDS
PUBLIC	??1bad_alloc@std@@UAE@XZ			; std::bad_alloc::~bad_alloc
EXTRN	__imp_??1exception@std@@UAE@XZ:PROC
; Function compile flags: /Ogsp
;	COMDAT ??1bad_alloc@std@@UAE@XZ
_TEXT	SEGMENT
??1bad_alloc@std@@UAE@XZ PROC				; std::bad_alloc::~bad_alloc, COMDAT
; _this$ = ecx

; 354  : 		{	// destroy the object

  00000	c7 01 00 00 00
	00		 mov	 DWORD PTR [ecx], OFFSET ??_7bad_alloc@std@@6B@

; 355  : 		}

  00006	ff 25 00 00 00
	00		 jmp	 DWORD PTR __imp_??1exception@std@@UAE@XZ
??1bad_alloc@std@@UAE@XZ ENDP				; std::bad_alloc::~bad_alloc
_TEXT	ENDS
EXTRN	??3@YAXPAX@Z:PROC				; operator delete
; Function compile flags: /Ogsp
;	COMDAT ??_Gbad_alloc@std@@UAEPAXI@Z
_TEXT	SEGMENT
___flags$ = 8						; size = 4
??_Gbad_alloc@std@@UAEPAXI@Z PROC			; std::bad_alloc::`scalar deleting destructor', COMDAT
; _this$ = ecx
  00000	55		 push	 ebp
  00001	8b ec		 mov	 ebp, esp
  00003	56		 push	 esi
  00004	8b f1		 mov	 esi, ecx
  00006	c7 06 00 00 00
	00		 mov	 DWORD PTR [esi], OFFSET ??_7bad_alloc@std@@6B@
  0000c	ff 15 00 00 00
	00		 call	 DWORD PTR __imp_??1exception@std@@UAE@XZ
  00012	f6 45 08 01	 test	 BYTE PTR ___flags$[ebp], 1
  00016	74 07		 je	 SHORT $LN1@scalar
  00018	56		 push	 esi
  00019	e8 00 00 00 00	 call	 ??3@YAXPAX@Z		; operator delete
  0001e	59		 pop	 ecx
$LN1@scalar:
  0001f	8b c6		 mov	 eax, esi
  00021	5e		 pop	 esi
  00022	5d		 pop	 ebp
  00023	c2 04 00	 ret	 4
??_Gbad_alloc@std@@UAEPAXI@Z ENDP			; std::bad_alloc::`scalar deleting destructor'
_TEXT	ENDS
PUBLIC	??2@YAPAXIPAX@Z					; operator new
; Function compile flags: /Ogsp
; File c:\program files (x86)\microsoft visual studio 10.0\vc\include\new
;	COMDAT ??2@YAPAXIPAX@Z
_TEXT	SEGMENT
___formal$ = 8						; size = 4
__Where$ = 12						; size = 4
??2@YAPAXIPAX@Z PROC					; operator new, COMDAT

; 56   : 	{	// construct array with placement at _Where

  00000	55		 push	 ebp
  00001	8b ec		 mov	 ebp, esp

; 57   : 	return (_Where);

  00003	8b 45 0c	 mov	 eax, DWORD PTR __Where$[ebp]

; 58   : 	}

  00006	5d		 pop	 ebp
  00007	c3		 ret	 0
??2@YAPAXIPAX@Z ENDP					; operator new
_TEXT	ENDS
PUBLIC	??3@YAXPAX0@Z					; operator delete
; Function compile flags: /Ogsp
;	COMDAT ??3@YAXPAX0@Z
_TEXT	SEGMENT
___formal$ = 8						; size = 4
___formal$ = 12						; size = 4
??3@YAXPAX0@Z PROC					; operator delete, COMDAT

; 62   : 	}

  00000	c3		 ret	 0
??3@YAXPAX0@Z ENDP					; operator delete
_TEXT	ENDS
PUBLIC	??_R0?AVioWeapon@@@8				; ioWeapon `RTTI Type Descriptor'
PUBLIC	??_R0?AVioZoneEffectWeapon@@@8			; ioZoneEffectWeapon `RTTI Type Descriptor'
PUBLIC	?ToZoneEffectWeapon@@YAPAVioZoneEffectWeapon@@PAVioWeapon@@@Z ; ToZoneEffectWeapon
EXTRN	___RTDynamicCast:PROC
;	COMDAT ??_R0?AVioWeapon@@@8
; File d:\lost saga for developer\youtube\tutorial\source\src\lsclient\iozoneeffectweapon.h
_DATA	SEGMENT
??_R0?AVioWeapon@@@8 DD FLAT:??_7type_info@@6B@		; ioWeapon `RTTI Type Descriptor'
	DD	00H
	DB	'.?AVioWeapon@@', 00H
_DATA	ENDS
;	COMDAT ??_R0?AVioZoneEffectWeapon@@@8
_DATA	SEGMENT
??_R0?AVioZoneEffectWeapon@@@8 DD FLAT:??_7type_info@@6B@ ; ioZoneEffectWeapon `RTTI Type Descriptor'
	DD	00H
	DB	'.?AVioZoneEffectWeapon@@', 00H
; Function compile flags: /Ogsp
_DATA	ENDS
;	COMDAT ?ToZoneEffectWeapon@@YAPAVioZoneEffectWeapon@@PAVioWeapon@@@Z
_TEXT	SEGMENT
_pWeapon$ = 8						; size = 4
?ToZoneEffectWeapon@@YAPAVioZoneEffectWeapon@@PAVioWeapon@@@Z PROC ; ToZoneEffectWeapon, COMDAT

; 217  : {

  00000	55		 push	 ebp
  00001	8b ec		 mov	 ebp, esp
  00003	56		 push	 esi

; 218  : 	if( !pWeapon || pWeapon->GetType() != ioWeapon::WT_ZONE_EFFECT )

  00004	8b 75 08	 mov	 esi, DWORD PTR _pWeapon$[ebp]
  00007	85 f6		 test	 esi, esi
  00009	74 28		 je	 SHORT $LN1@ToZoneEffe
  0000b	8b 06		 mov	 eax, DWORD PTR [esi]
  0000d	8b ce		 mov	 ecx, esi
  0000f	ff 90 10 01 00
	00		 call	 DWORD PTR [eax+272]
  00015	83 f8 08	 cmp	 eax, 8
  00018	75 19		 jne	 SHORT $LN1@ToZoneEffe

; 220  : 
; 221  : 	return dynamic_cast< ioZoneEffectWeapon* >( pWeapon );

  0001a	6a 00		 push	 0
  0001c	68 00 00 00 00	 push	 OFFSET ??_R0?AVioZoneEffectWeapon@@@8
  00021	68 00 00 00 00	 push	 OFFSET ??_R0?AVioWeapon@@@8
  00026	6a 00		 push	 0
  00028	56		 push	 esi
  00029	e8 00 00 00 00	 call	 ___RTDynamicCast
  0002e	83 c4 14	 add	 esp, 20			; 00000014H
  00031	eb 02		 jmp	 SHORT $LN3@ToZoneEffe
$LN1@ToZoneEffe:

; 219  : 		return NULL;

  00033	33 c0		 xor	 eax, eax
$LN3@ToZoneEffe:
  00035	5e		 pop	 esi

; 222  : }

  00036	5d		 pop	 ebp
  00037	c3		 ret	 0
?ToZoneEffectWeapon@@YAPAVioZoneEffectWeapon@@PAVioWeapon@@@Z ENDP ; ToZoneEffectWeapon
_TEXT	ENDS
PUBLIC	?_Adopt@_Iterator_base0@std@@QAEXPBX@Z		; std::_Iterator_base0::_Adopt
; Function compile flags: /Ogsp
; File c:\program files (x86)\microsoft visual studio 10.0\vc\include\xutility
;	COMDAT ?_Adopt@_Iterator_base0@std@@QAEXPBX@Z
_TEXT	SEGMENT
___formal$ = 8						; size = 4
?_Adopt@_Iterator_base0@std@@QAEXPBX@Z PROC		; std::_Iterator_base0::_Adopt, COMDAT
; _this$ = ecx

; 49   : 		}

  00000	c2 04 00	 ret	 4
?_Adopt@_Iterator_base0@std@@QAEXPBX@Z ENDP		; std::_Iterator_base0::_Adopt
_TEXT	ENDS
PUBLIC	?StartPreDelayAnimation@ioChargingFireSkill4@@MAE_NPAVioBaseChar@@@Z ; ioChargingFireSkill4::StartPreDelayAnimation
EXTRN	?StartPreDelayAnimation@ioNormalSkill@@MAE_NPAVioBaseChar@@@Z:PROC ; ioNormalSkill::StartPreDelayAnimation
; Function compile flags: /Ogsp
; File d:\lost saga for developer\youtube\tutorial\source\src\lsclient\iochargingfireskill4.cpp
;	COMDAT ?StartPreDelayAnimation@ioChargingFireSkill4@@MAE_NPAVioBaseChar@@@Z
_TEXT	SEGMENT
_pChar$ = 8						; size = 4
?StartPreDelayAnimation@ioChargingFireSkill4@@MAE_NPAVioBaseChar@@@Z PROC ; ioChargingFireSkill4::StartPreDelayAnimation, COMDAT
; _this$ = ecx

; 327  : {

  00000	55		 push	 ebp
  00001	8b ec		 mov	 ebp, esp

; 328  : 	if( !ioNormalSkill::StartPreDelayAnimation( pChar ) )

  00003	ff 75 08	 push	 DWORD PTR _pChar$[ebp]
  00006	e8 00 00 00 00	 call	 ?StartPreDelayAnimation@ioNormalSkill@@MAE_NPAVioBaseChar@@@Z ; ioNormalSkill::StartPreDelayAnimation
  0000b	84 c0		 test	 al, al
  0000d	0f 95 c0	 setne	 al

; 329  : 		return false;
; 330  : 
; 331  : 	return true;
; 332  : }

  00010	5d		 pop	 ebp
  00011	c2 04 00	 ret	 4
?StartPreDelayAnimation@ioChargingFireSkill4@@MAE_NPAVioBaseChar@@@Z ENDP ; ioChargingFireSkill4::StartPreDelayAnimation
_TEXT	ENDS
PUBLIC	?SetNormalSkill@ioChargingFireSkill4@@MAEXPAVioBaseChar@@@Z ; ioChargingFireSkill4::SetNormalSkill
EXTRN	?ReduceNeedGaugeBySkill@ioBaseChar@@QAEMPAVioSkill@@M@Z:PROC ; ioBaseChar::ReduceNeedGaugeBySkill
EXTRN	?GetNeedGauge@ioSkill@@QAEMABVioHashString@@@Z:PROC ; ioSkill::GetNeedGauge
EXTRN	?AttachEffect@ioBaseChar@@QAEPAVioEffect@@ABVioHashString@@PAVioEntityEvent@@_N@Z:PROC ; ioBaseChar::AttachEffect
; Function compile flags: /Ogsp
;	COMDAT ?SetNormalSkill@ioChargingFireSkill4@@MAEXPAVioBaseChar@@@Z
_TEXT	SEGMENT
_pChar$ = 8						; size = 4
?SetNormalSkill@ioChargingFireSkill4@@MAEXPAVioBaseChar@@@Z PROC ; ioChargingFireSkill4::SetNormalSkill, COMDAT
; _this$ = ecx

; 335  : {

  00000	55		 push	 ebp
  00001	8b ec		 mov	 ebp, esp
  00003	56		 push	 esi
  00004	57		 push	 edi

; 336  : 	if( !pChar ) return;

  00005	8b 7d 08	 mov	 edi, DWORD PTR _pChar$[ebp]
  00008	8b f1		 mov	 esi, ecx
  0000a	85 ff		 test	 edi, edi
  0000c	74 35		 je	 SHORT $LN2@SetNormalS

; 337  : 
; 338  : 	pChar->AttachEffect( m_StartEffect );

  0000e	6a 01		 push	 1
  00010	6a 00		 push	 0
  00012	8d 86 c8 11 00
	00		 lea	 eax, DWORD PTR [esi+4552]
  00018	50		 push	 eax
  00019	8b cf		 mov	 ecx, edi
  0001b	e8 00 00 00 00	 call	 ?AttachEffect@ioBaseChar@@QAEPAVioEffect@@ABVioHashString@@PAVioEntityEvent@@_N@Z ; ioBaseChar::AttachEffect

; 339  : 
; 340  : 	pChar->ReduceNeedGaugeBySkill( this, GetNeedGauge(pChar->GetCharName()) );

  00020	8d 87 d4 02 00
	00		 lea	 eax, DWORD PTR [edi+724]
  00026	50		 push	 eax
  00027	8b ce		 mov	 ecx, esi
  00029	e8 00 00 00 00	 call	 ?GetNeedGauge@ioSkill@@QAEMABVioHashString@@@Z ; ioSkill::GetNeedGauge
  0002e	51		 push	 ecx
  0002f	d9 1c 24	 fstp	 DWORD PTR [esp]
  00032	56		 push	 esi
  00033	8b cf		 mov	 ecx, edi
  00035	e8 00 00 00 00	 call	 ?ReduceNeedGaugeBySkill@ioBaseChar@@QAEMPAVioSkill@@M@Z ; ioBaseChar::ReduceNeedGaugeBySkill
  0003a	dd d8		 fstp	 ST(0)

; 341  : 	m_bReduceGauge = true;

  0003c	c6 86 50 03 00
	00 01		 mov	 BYTE PTR [esi+848], 1
$LN2@SetNormalS:
  00043	5f		 pop	 edi
  00044	5e		 pop	 esi

; 342  : }

  00045	5d		 pop	 ebp
  00046	c2 04 00	 ret	 4
?SetNormalSkill@ioChargingFireSkill4@@MAEXPAVioBaseChar@@@Z ENDP ; ioChargingFireSkill4::SetNormalSkill
_TEXT	ENDS
PUBLIC	?IsSkillMotionEnd@ioChargingFireSkill4@@UBE_NKPAVioBaseChar@@@Z ; ioChargingFireSkill4::IsSkillMotionEnd
EXTRN	__imp_?GetLoopSec@ioFrameTimer@@QBEKXZ:PROC
EXTRN	__imp_?GetSingleton@ioFrameTimer@@SAAAV1@XZ:PROC
; Function compile flags: /Ogsp
;	COMDAT ?IsSkillMotionEnd@ioChargingFireSkill4@@UBE_NKPAVioBaseChar@@@Z
_TEXT	SEGMENT
_dwActionStop$ = 8					; size = 4
_pOwner$ = 12						; size = 4
?IsSkillMotionEnd@ioChargingFireSkill4@@UBE_NKPAVioBaseChar@@@Z PROC ; ioChargingFireSkill4::IsSkillMotionEnd, COMDAT
; _this$ = ecx

; 592  : {

  00000	55		 push	 ebp
  00001	8b ec		 mov	 ebp, esp
  00003	56		 push	 esi

; 593  : 	if( m_dwMotionEndTime > 0 && m_dwMotionEndTime + dwActionStop < FRAMEGETTIME() )

  00004	8d b1 d8 02 00
	00		 lea	 esi, DWORD PTR [ecx+728]
  0000a	83 3e 00	 cmp	 DWORD PTR [esi], 0
  0000d	76 1b		 jbe	 SHORT $LN1@IsSkillMot
  0000f	ff 15 00 00 00
	00		 call	 DWORD PTR __imp_?GetSingleton@ioFrameTimer@@SAAAV1@XZ
  00015	8b c8		 mov	 ecx, eax
  00017	ff 15 00 00 00
	00		 call	 DWORD PTR __imp_?GetLoopSec@ioFrameTimer@@QBEKXZ
  0001d	8b 0e		 mov	 ecx, DWORD PTR [esi]
  0001f	03 4d 08	 add	 ecx, DWORD PTR _dwActionStop$[ebp]
  00022	3b c8		 cmp	 ecx, eax
  00024	73 04		 jae	 SHORT $LN1@IsSkillMot

; 594  : 		return true;

  00026	b0 01		 mov	 al, 1
  00028	eb 02		 jmp	 SHORT $LN2@IsSkillMot
$LN1@IsSkillMot:

; 595  : 	
; 596  : 	return false;

  0002a	32 c0		 xor	 al, al
$LN2@IsSkillMot:
  0002c	5e		 pop	 esi

; 597  : }

  0002d	5d		 pop	 ebp
  0002e	c2 08 00	 ret	 8
?IsSkillMotionEnd@ioChargingFireSkill4@@UBE_NKPAVioBaseChar@@@Z ENDP ; ioChargingFireSkill4::IsSkillMotionEnd
_TEXT	ENDS
PUBLIC	?IsAttackEndState@ioChargingFireSkill4@@UBE_NXZ	; ioChargingFireSkill4::IsAttackEndState
; Function compile flags: /Ogsp
;	COMDAT ?IsAttackEndState@ioChargingFireSkill4@@UBE_NXZ
_TEXT	SEGMENT
?IsAttackEndState@ioChargingFireSkill4@@UBE_NXZ PROC	; ioChargingFireSkill4::IsAttackEndState, COMDAT
; _this$ = ecx

; 600  : {

  00000	56		 push	 esi

; 601  : 	if( m_dwAttackEndTime > 0 && m_dwAttackEndTime < FRAMEGETTIME() )

  00001	8d b1 ac 11 00
	00		 lea	 esi, DWORD PTR [ecx+4524]
  00007	83 3e 00	 cmp	 DWORD PTR [esi], 0
  0000a	76 16		 jbe	 SHORT $LN1@IsAttackEn
  0000c	ff 15 00 00 00
	00		 call	 DWORD PTR __imp_?GetSingleton@ioFrameTimer@@SAAAV1@XZ
  00012	8b c8		 mov	 ecx, eax
  00014	ff 15 00 00 00
	00		 call	 DWORD PTR __imp_?GetLoopSec@ioFrameTimer@@QBEKXZ
  0001a	39 06		 cmp	 DWORD PTR [esi], eax
  0001c	73 04		 jae	 SHORT $LN1@IsAttackEn

; 602  : 	{
; 603  : 		return true;

  0001e	b0 01		 mov	 al, 1
  00020	5e		 pop	 esi

; 607  : }

  00021	c3		 ret	 0
$LN1@IsAttackEn:

; 604  : 	}
; 605  : 
; 606  : 	return false;

  00022	32 c0		 xor	 al, al
  00024	5e		 pop	 esi

; 607  : }

  00025	c3		 ret	 0
?IsAttackEndState@ioChargingFireSkill4@@UBE_NXZ ENDP	; ioChargingFireSkill4::IsAttackEndState
_TEXT	ENDS
PUBLIC	?CheckUseItemMesh@ioChargingFireSkill4@@UAE_NXZ	; ioChargingFireSkill4::CheckUseItemMesh
; Function compile flags: /Ogsp
;	COMDAT ?CheckUseItemMesh@ioChargingFireSkill4@@UAE_NXZ
_TEXT	SEGMENT
?CheckUseItemMesh@ioChargingFireSkill4@@UAE_NXZ PROC	; ioChargingFireSkill4::CheckUseItemMesh, COMDAT
; _this$ = ecx

; 611  : 	return m_bUseItemMesh;

  00000	8a 81 08 0f 00
	00		 mov	 al, BYTE PTR [ecx+3848]

; 612  : }

  00006	c3		 ret	 0
?CheckUseItemMesh@ioChargingFireSkill4@@UAE_NXZ ENDP	; ioChargingFireSkill4::CheckUseItemMesh
_TEXT	ENDS
PUBLIC	?empty@?$vector@UWeaponInfo@@V?$allocator@UWeaponInfo@@@std@@@std@@QBE_NXZ ; std::vector<WeaponInfo,std::allocator<WeaponInfo> >::empty
; Function compile flags: /Ogsp
; File c:\program files (x86)\microsoft visual studio 10.0\vc\include\vector
;	COMDAT ?empty@?$vector@UWeaponInfo@@V?$allocator@UWeaponInfo@@@std@@@std@@QBE_NXZ
_TEXT	SEGMENT
?empty@?$vector@UWeaponInfo@@V?$allocator@UWeaponInfo@@@std@@@std@@QBE_NXZ PROC ; std::vector<WeaponInfo,std::allocator<WeaponInfo> >::empty, COMDAT
; _this$ = ecx

; 889  : 		return (this->_Myfirst == this->_Mylast);

  00000	8b 01		 mov	 eax, DWORD PTR [ecx]
  00002	2b 41 04	 sub	 eax, DWORD PTR [ecx+4]
  00005	f7 d8		 neg	 eax
  00007	1b c0		 sbb	 eax, eax
  00009	40		 inc	 eax

; 890  : 		}

  0000a	c3		 ret	 0
?empty@?$vector@UWeaponInfo@@V?$allocator@UWeaponInfo@@@std@@@std@@QBE_NXZ ENDP ; std::vector<WeaponInfo,std::allocator<WeaponInfo> >::empty
_TEXT	ENDS
PUBLIC	??0D3DXVECTOR3@@QAE@XZ				; D3DXVECTOR3::D3DXVECTOR3
; Function compile flags: /Ogsp
; File c:\program files (x86)\microsoft directx sdk (june 2010)\include\d3dx9math.h
;	COMDAT ??0D3DXVECTOR3@@QAE@XZ
_TEXT	SEGMENT
??0D3DXVECTOR3@@QAE@XZ PROC				; D3DXVECTOR3::D3DXVECTOR3, COMDAT
; _this$ = ecx

; 165  :     D3DXVECTOR3() {};

  00000	8b c1		 mov	 eax, ecx
  00002	c3		 ret	 0
??0D3DXVECTOR3@@QAE@XZ ENDP				; D3DXVECTOR3::D3DXVECTOR3
_TEXT	ENDS
PUBLIC	??0D3DXQUATERNION@@QAE@XZ			; D3DXQUATERNION::D3DXQUATERNION
; Function compile flags: /Ogsp
;	COMDAT ??0D3DXQUATERNION@@QAE@XZ
_TEXT	SEGMENT
??0D3DXQUATERNION@@QAE@XZ PROC				; D3DXQUATERNION::D3DXQUATERNION, COMDAT
; _this$ = ecx

; 429  :     D3DXQUATERNION() {}

  00000	8b c1		 mov	 eax, ecx
  00002	c3		 ret	 0
??0D3DXQUATERNION@@QAE@XZ ENDP				; D3DXQUATERNION::D3DXQUATERNION
_TEXT	ENDS
PUBLIC	??0D3DXVECTOR3@@QAE@MMM@Z			; D3DXVECTOR3::D3DXVECTOR3
; Function compile flags: /Ogsp
; File c:\program files (x86)\microsoft directx sdk (june 2010)\include\d3dx9math.inl
;	COMDAT ??0D3DXVECTOR3@@QAE@MMM@Z
_TEXT	SEGMENT
_fx$ = 8						; size = 4
_fy$ = 12						; size = 4
_fz$ = 16						; size = 4
??0D3DXVECTOR3@@QAE@MMM@Z PROC				; D3DXVECTOR3::D3DXVECTOR3, COMDAT
; _this$ = ecx

; 303  : {

  00000	55		 push	 ebp
  00001	8b ec		 mov	 ebp, esp

; 304  :     x = fx;

  00003	f3 0f 10 45 08	 movss	 xmm0, DWORD PTR _fx$[ebp]
  00008	8b c1		 mov	 eax, ecx
  0000a	f3 0f 11 00	 movss	 DWORD PTR [eax], xmm0

; 305  :     y = fy;

  0000e	f3 0f 10 45 0c	 movss	 xmm0, DWORD PTR _fy$[ebp]
  00013	f3 0f 11 40 04	 movss	 DWORD PTR [eax+4], xmm0

; 306  :     z = fz;

  00018	f3 0f 10 45 10	 movss	 xmm0, DWORD PTR _fz$[ebp]
  0001d	f3 0f 11 40 08	 movss	 DWORD PTR [eax+8], xmm0

; 307  : }

  00022	5d		 pop	 ebp
  00023	c2 0c 00	 ret	 12			; 0000000cH
??0D3DXVECTOR3@@QAE@MMM@Z ENDP				; D3DXVECTOR3::D3DXVECTOR3
_TEXT	ENDS
PUBLIC	??GD3DXVECTOR3@@QBE?AU0@ABU0@@Z			; D3DXVECTOR3::operator-
; Function compile flags: /Ogsp
;	COMDAT ??GD3DXVECTOR3@@QBE?AU0@ABU0@@Z
_TEXT	SEGMENT
___$ReturnUdt$ = 8					; size = 4
_v$ = 12						; size = 4
??GD3DXVECTOR3@@QBE?AU0@ABU0@@Z PROC			; D3DXVECTOR3::operator-, COMDAT
; _this$ = ecx

; 386  : {

  00000	55		 push	 ebp
  00001	8b ec		 mov	 ebp, esp

; 387  :     return D3DXVECTOR3(x - v.x, y - v.y, z - v.z);

  00003	8b 55 0c	 mov	 edx, DWORD PTR _v$[ebp]
  00006	f3 0f 10 01	 movss	 xmm0, DWORD PTR [ecx]
  0000a	f3 0f 10 0a	 movss	 xmm1, DWORD PTR [edx]
  0000e	8b 45 08	 mov	 eax, DWORD PTR ___$ReturnUdt$[ebp]
  00011	0f 5a c0	 cvtps2pd xmm0, xmm0
  00014	0f 5a c9	 cvtps2pd xmm1, xmm1
  00017	f2 0f 5c c1	 subsd	 xmm0, xmm1
  0001b	f3 0f 10 4a 04	 movss	 xmm1, DWORD PTR [edx+4]
  00020	66 0f 5a c0	 cvtpd2ps xmm0, xmm0
  00024	f3 0f 11 00	 movss	 DWORD PTR [eax], xmm0
  00028	f3 0f 10 41 04	 movss	 xmm0, DWORD PTR [ecx+4]
  0002d	0f 5a c0	 cvtps2pd xmm0, xmm0
  00030	0f 5a c9	 cvtps2pd xmm1, xmm1
  00033	f2 0f 5c c1	 subsd	 xmm0, xmm1
  00037	f3 0f 10 4a 08	 movss	 xmm1, DWORD PTR [edx+8]
  0003c	66 0f 5a c0	 cvtpd2ps xmm0, xmm0
  00040	f3 0f 11 40 04	 movss	 DWORD PTR [eax+4], xmm0
  00045	f3 0f 10 41 08	 movss	 xmm0, DWORD PTR [ecx+8]
  0004a	0f 5a c0	 cvtps2pd xmm0, xmm0
  0004d	0f 5a c9	 cvtps2pd xmm1, xmm1
  00050	f2 0f 5c c1	 subsd	 xmm0, xmm1
  00054	66 0f 5a c0	 cvtpd2ps xmm0, xmm0
  00058	f3 0f 11 40 08	 movss	 DWORD PTR [eax+8], xmm0

; 388  : }

  0005d	5d		 pop	 ebp
  0005e	c2 08 00	 ret	 8
??GD3DXVECTOR3@@QBE?AU0@ABU0@@Z ENDP			; D3DXVECTOR3::operator-
_TEXT	ENDS
PUBLIC	??8D3DXVECTOR3@@QBEHABU0@@Z			; D3DXVECTOR3::operator==
; Function compile flags: /Ogsp
;	COMDAT ??8D3DXVECTOR3@@QBEHABU0@@Z
_TEXT	SEGMENT
_v$ = 8							; size = 4
??8D3DXVECTOR3@@QBEHABU0@@Z PROC			; D3DXVECTOR3::operator==, COMDAT
; _this$ = ecx

; 413  : {

  00000	55		 push	 ebp
  00001	8b ec		 mov	 ebp, esp

; 414  :     return x == v.x && y == v.y && z == v.z;

  00003	8b 55 08	 mov	 edx, DWORD PTR _v$[ebp]
  00006	f3 0f 10 01	 movss	 xmm0, DWORD PTR [ecx]
  0000a	f3 0f 10 0a	 movss	 xmm1, DWORD PTR [edx]
  0000e	0f 5a c0	 cvtps2pd xmm0, xmm0
  00011	0f 5a c9	 cvtps2pd xmm1, xmm1
  00014	66 0f 2e c1	 ucomisd xmm0, xmm1
  00018	9f		 lahf
  00019	f6 c4 44	 test	 ah, 68			; 00000044H
  0001c	7a 39		 jp	 SHORT $LN3@operator
  0001e	f3 0f 10 41 04	 movss	 xmm0, DWORD PTR [ecx+4]
  00023	f3 0f 10 4a 04	 movss	 xmm1, DWORD PTR [edx+4]
  00028	0f 5a c0	 cvtps2pd xmm0, xmm0
  0002b	0f 5a c9	 cvtps2pd xmm1, xmm1
  0002e	66 0f 2e c1	 ucomisd xmm0, xmm1
  00032	9f		 lahf
  00033	f6 c4 44	 test	 ah, 68			; 00000044H
  00036	7a 1f		 jp	 SHORT $LN3@operator
  00038	f3 0f 10 41 08	 movss	 xmm0, DWORD PTR [ecx+8]
  0003d	f3 0f 10 4a 08	 movss	 xmm1, DWORD PTR [edx+8]
  00042	0f 5a c0	 cvtps2pd xmm0, xmm0
  00045	0f 5a c9	 cvtps2pd xmm1, xmm1
  00048	66 0f 2e c1	 ucomisd xmm0, xmm1
  0004c	9f		 lahf
  0004d	f6 c4 44	 test	 ah, 68			; 00000044H
  00050	7a 05		 jp	 SHORT $LN3@operator
  00052	33 c0		 xor	 eax, eax
  00054	40		 inc	 eax
  00055	eb 02		 jmp	 SHORT $LN4@operator
$LN3@operator:
  00057	33 c0		 xor	 eax, eax
$LN4@operator:

; 415  : }

  00059	5d		 pop	 ebp
  0005a	c2 04 00	 ret	 4
??8D3DXVECTOR3@@QBEHABU0@@Z ENDP			; D3DXVECTOR3::operator==
_TEXT	ENDS
PUBLIC	??9D3DXVECTOR3@@QBEHABU0@@Z			; D3DXVECTOR3::operator!=
; Function compile flags: /Ogsp
;	COMDAT ??9D3DXVECTOR3@@QBEHABU0@@Z
_TEXT	SEGMENT
_v$ = 8							; size = 4
??9D3DXVECTOR3@@QBEHABU0@@Z PROC			; D3DXVECTOR3::operator!=, COMDAT
; _this$ = ecx

; 419  : {

  00000	55		 push	 ebp
  00001	8b ec		 mov	 ebp, esp

; 420  :     return x != v.x || y != v.y || z != v.z;

  00003	8b 55 08	 mov	 edx, DWORD PTR _v$[ebp]
  00006	f3 0f 10 01	 movss	 xmm0, DWORD PTR [ecx]
  0000a	f3 0f 10 0a	 movss	 xmm1, DWORD PTR [edx]
  0000e	0f 5a c0	 cvtps2pd xmm0, xmm0
  00011	0f 5a c9	 cvtps2pd xmm1, xmm1
  00014	66 0f 2e c1	 ucomisd xmm0, xmm1
  00018	9f		 lahf
  00019	f6 c4 44	 test	 ah, 68			; 00000044H
  0001c	7a 38		 jp	 SHORT $LN3@operator@2
  0001e	f3 0f 10 41 04	 movss	 xmm0, DWORD PTR [ecx+4]
  00023	f3 0f 10 4a 04	 movss	 xmm1, DWORD PTR [edx+4]
  00028	0f 5a c0	 cvtps2pd xmm0, xmm0
  0002b	0f 5a c9	 cvtps2pd xmm1, xmm1
  0002e	66 0f 2e c1	 ucomisd xmm0, xmm1
  00032	9f		 lahf
  00033	f6 c4 44	 test	 ah, 68			; 00000044H
  00036	7a 1e		 jp	 SHORT $LN3@operator@2
  00038	f3 0f 10 41 08	 movss	 xmm0, DWORD PTR [ecx+8]
  0003d	f3 0f 10 4a 08	 movss	 xmm1, DWORD PTR [edx+8]
  00042	0f 5a c0	 cvtps2pd xmm0, xmm0
  00045	0f 5a c9	 cvtps2pd xmm1, xmm1
  00048	66 0f 2e c1	 ucomisd xmm0, xmm1
  0004c	9f		 lahf
  0004d	f6 c4 44	 test	 ah, 68			; 00000044H
  00050	7a 04		 jp	 SHORT $LN3@operator@2
  00052	33 c0		 xor	 eax, eax
  00054	eb 03		 jmp	 SHORT $LN4@operator@2
$LN3@operator@2:
  00056	33 c0		 xor	 eax, eax
  00058	40		 inc	 eax
$LN4@operator@2:

; 421  : }

  00059	5d		 pop	 ebp
  0005a	c2 04 00	 ret	 4
??9D3DXVECTOR3@@QBEHABU0@@Z ENDP			; D3DXVECTOR3::operator!=
_TEXT	ENDS
PUBLIC	?D3DXVec3LengthSq@@YAMPBUD3DXVECTOR3@@@Z	; D3DXVec3LengthSq
; Function compile flags: /Ogsp
;	COMDAT ?D3DXVec3LengthSq@@YAMPBUD3DXVECTOR3@@@Z
_TEXT	SEGMENT
tv165 = 8						; size = 4
_pV$ = 8						; size = 4
?D3DXVec3LengthSq@@YAMPBUD3DXVECTOR3@@@Z PROC		; D3DXVec3LengthSq, COMDAT

; 1725 : {

  00000	55		 push	 ebp
  00001	8b ec		 mov	 ebp, esp

; 1726 : #ifdef D3DX_DEBUG
; 1727 :     if(!pV)
; 1728 :         return 0.0f;
; 1729 : #endif
; 1730 : 
; 1731 :     return pV->x * pV->x + pV->y * pV->y + pV->z * pV->z;

  00003	8b 45 08	 mov	 eax, DWORD PTR _pV$[ebp]
  00006	d9 40 04	 fld	 DWORD PTR [eax+4]
  00009	d9 00		 fld	 DWORD PTR [eax]
  0000b	d9 40 08	 fld	 DWORD PTR [eax+8]
  0000e	d9 c1		 fld	 ST(1)
  00010	de ca		 fmulp	 ST(2), ST(0)
  00012	d9 c2		 fld	 ST(2)
  00014	de cb		 fmulp	 ST(3), ST(0)
  00016	d9 c9		 fxch	 ST(1)
  00018	de c2		 faddp	 ST(2), ST(0)
  0001a	d9 c0		 fld	 ST(0)
  0001c	de c9		 fmulp	 ST(1), ST(0)
  0001e	de c1		 faddp	 ST(1), ST(0)
  00020	d9 5d 08	 fstp	 DWORD PTR tv165[ebp]
  00023	d9 45 08	 fld	 DWORD PTR tv165[ebp]

; 1732 : }

  00026	5d		 pop	 ebp
  00027	c3		 ret	 0
?D3DXVec3LengthSq@@YAMPBUD3DXVECTOR3@@@Z ENDP		; D3DXVec3LengthSq
_TEXT	ENDS
PUBLIC	?D3DXVec3Dot@@YAMPBUD3DXVECTOR3@@0@Z		; D3DXVec3Dot
; Function compile flags: /Ogsp
;	COMDAT ?D3DXVec3Dot@@YAMPBUD3DXVECTOR3@@0@Z
_TEXT	SEGMENT
tv188 = 8						; size = 4
_pV1$ = 8						; size = 4
_pV2$ = 12						; size = 4
?D3DXVec3Dot@@YAMPBUD3DXVECTOR3@@0@Z PROC		; D3DXVec3Dot, COMDAT

; 1736 : {

  00000	55		 push	 ebp
  00001	8b ec		 mov	 ebp, esp

; 1737 : #ifdef D3DX_DEBUG
; 1738 :     if(!pV1 || !pV2)
; 1739 :         return 0.0f;
; 1740 : #endif
; 1741 : 
; 1742 :     return pV1->x * pV2->x + pV1->y * pV2->y + pV1->z * pV2->z;

  00003	8b 45 08	 mov	 eax, DWORD PTR _pV1$[ebp]
  00006	8b 4d 0c	 mov	 ecx, DWORD PTR _pV2$[ebp]
  00009	d9 40 04	 fld	 DWORD PTR [eax+4]
  0000c	d8 49 04	 fmul	 DWORD PTR [ecx+4]
  0000f	d9 00		 fld	 DWORD PTR [eax]
  00011	d8 09		 fmul	 DWORD PTR [ecx]
  00013	de c1		 faddp	 ST(1), ST(0)
  00015	d9 40 08	 fld	 DWORD PTR [eax+8]
  00018	d8 49 08	 fmul	 DWORD PTR [ecx+8]
  0001b	de c1		 faddp	 ST(1), ST(0)
  0001d	d9 5d 08	 fstp	 DWORD PTR tv188[ebp]
  00020	d9 45 08	 fld	 DWORD PTR tv188[ebp]

; 1743 : }

  00023	5d		 pop	 ebp
  00024	c3		 ret	 0
?D3DXVec3Dot@@YAMPBUD3DXVECTOR3@@0@Z ENDP		; D3DXVec3Dot
_TEXT	ENDS
PUBLIC	__real@3f91df46a2526c7a
PUBLIC	??$DEGtoRAD@M@@YAMM@Z				; DEGtoRAD<float>
;	COMDAT __real@3f91df46a2526c7a
; File d:\lost saga for developer\youtube\tutorial\source\src\lsclient\veryoftenusedefine.h
CONST	SEGMENT
__real@3f91df46a2526c7a DQ 03f91df46a2526c7ar	; 0.0174533
; Function compile flags: /Ogsp
CONST	ENDS
;	COMDAT ??$DEGtoRAD@M@@YAMM@Z
_TEXT	SEGMENT
tv129 = 8						; size = 4
_val$ = 8						; size = 4
??$DEGtoRAD@M@@YAMM@Z PROC				; DEGtoRAD<float>, COMDAT

; 20   : type  DEGtoRAD (type val) {return (type) (val * 0.0174532925199);}

  00000	55		 push	 ebp
  00001	8b ec		 mov	 ebp, esp
  00003	d9 45 08	 fld	 DWORD PTR _val$[ebp]
  00006	dc 0d 00 00 00
	00		 fmul	 QWORD PTR __real@3f91df46a2526c7a
  0000c	d9 5d 08	 fstp	 DWORD PTR tv129[ebp]
  0000f	d9 45 08	 fld	 DWORD PTR tv129[ebp]
  00012	5d		 pop	 ebp
  00013	c3		 ret	 0
??$DEGtoRAD@M@@YAMM@Z ENDP				; DEGtoRAD<float>
_TEXT	ENDS
PUBLIC	??$_Ptr_cat@V?$_Vector_const_iterator@V?$_Vector_val@UWeaponInfo@@V?$allocator@UWeaponInfo@@@std@@@std@@@std@@PAUWeaponInfo@@@std@@YA?AU_Nonscalar_ptr_iterator_tag@0@AAV?$_Vector_const_iterator@V?$_Vector_val@UWeaponInfo@@V?$allocator@UWeaponInfo@@@std@@@std@@@0@AAPAUWeaponInfo@@@Z ; std::_Ptr_cat<std::_Vector_const_iterator<std::_Vector_val<WeaponInfo,std::allocator<WeaponInfo> > >,WeaponInfo *>
; Function compile flags: /Ogsp
; File c:\program files (x86)\microsoft visual studio 10.0\vc\include\xutility
;	COMDAT ??$_Ptr_cat@V?$_Vector_const_iterator@V?$_Vector_val@UWeaponInfo@@V?$allocator@UWeaponInfo@@@std@@@std@@@std@@PAUWeaponInfo@@@std@@YA?AU_Nonscalar_ptr_iterator_tag@0@AAV?$_Vector_const_iterator@V?$_Vector_val@UWeaponInfo@@V?$allocator@UWeaponInfo@@@std@@@std@@@0@AAPAUWeaponInfo@@@Z
_TEXT	SEGMENT
__Cat$ = -1						; size = 1
___formal$ = 8						; size = 4
___formal$ = 12						; size = 4
??$_Ptr_cat@V?$_Vector_const_iterator@V?$_Vector_val@UWeaponInfo@@V?$allocator@UWeaponInfo@@@std@@@std@@@std@@PAUWeaponInfo@@@std@@YA?AU_Nonscalar_ptr_iterator_tag@0@AAV?$_Vector_const_iterator@V?$_Vector_val@UWeaponInfo@@V?$allocator@UWeaponInfo@@@std@@@std@@@0@AAPAUWeaponInfo@@@Z PROC ; std::_Ptr_cat<std::_Vector_const_iterator<std::_Vector_val<WeaponInfo,std::allocator<WeaponInfo> > >,WeaponInfo *>, COMDAT

; 485  : 	{	// return pointer category from arbitrary arguments

  00000	55		 push	 ebp
  00001	8b ec		 mov	 ebp, esp
  00003	51		 push	 ecx

; 486  : 	_Nonscalar_ptr_iterator_tag _Cat;
; 487  : 	return (_Cat);

  00004	8a 45 ff	 mov	 al, BYTE PTR __Cat$[ebp]

; 488  : 	}

  00007	c9		 leave
  00008	c3		 ret	 0
??$_Ptr_cat@V?$_Vector_const_iterator@V?$_Vector_val@UWeaponInfo@@V?$allocator@UWeaponInfo@@@std@@@std@@@std@@PAUWeaponInfo@@@std@@YA?AU_Nonscalar_ptr_iterator_tag@0@AAV?$_Vector_const_iterator@V?$_Vector_val@UWeaponInfo@@V?$allocator@UWeaponInfo@@@std@@@std@@@0@AAPAUWeaponInfo@@@Z ENDP ; std::_Ptr_cat<std::_Vector_const_iterator<std::_Vector_val<WeaponInfo,std::allocator<WeaponInfo> > >,WeaponInfo *>
_TEXT	ENDS
PUBLIC	??$_Ptr_cat@V?$_Vector_const_iterator@V?$_Vector_val@UForceInfo@@V?$allocator@UForceInfo@@@std@@@std@@@std@@PAUForceInfo@@@std@@YA?AU_Nonscalar_ptr_iterator_tag@0@AAV?$_Vector_const_iterator@V?$_Vector_val@UForceInfo@@V?$allocator@UForceInfo@@@std@@@std@@@0@AAPAUForceInfo@@@Z ; std::_Ptr_cat<std::_Vector_const_iterator<std::_Vector_val<ForceInfo,std::allocator<ForceInfo> > >,ForceInfo *>
; Function compile flags: /Ogsp
;	COMDAT ??$_Ptr_cat@V?$_Vector_const_iterator@V?$_Vector_val@UForceInfo@@V?$allocator@UForceInfo@@@std@@@std@@@std@@PAUForceInfo@@@std@@YA?AU_Nonscalar_ptr_iterator_tag@0@AAV?$_Vector_const_iterator@V?$_Vector_val@UForceInfo@@V?$allocator@UForceInfo@@@std@@@std@@@0@AAPAUForceInfo@@@Z
_TEXT	SEGMENT
__Cat$ = -1						; size = 1
___formal$ = 8						; size = 4
___formal$ = 12						; size = 4
??$_Ptr_cat@V?$_Vector_const_iterator@V?$_Vector_val@UForceInfo@@V?$allocator@UForceInfo@@@std@@@std@@@std@@PAUForceInfo@@@std@@YA?AU_Nonscalar_ptr_iterator_tag@0@AAV?$_Vector_const_iterator@V?$_Vector_val@UForceInfo@@V?$allocator@UForceInfo@@@std@@@std@@@0@AAPAUForceInfo@@@Z PROC ; std::_Ptr_cat<std::_Vector_const_iterator<std::_Vector_val<ForceInfo,std::allocator<ForceInfo> > >,ForceInfo *>, COMDAT

; 485  : 	{	// return pointer category from arbitrary arguments

  00000	55		 push	 ebp
  00001	8b ec		 mov	 ebp, esp
  00003	51		 push	 ecx

; 486  : 	_Nonscalar_ptr_iterator_tag _Cat;
; 487  : 	return (_Cat);

  00004	8a 45 ff	 mov	 al, BYTE PTR __Cat$[ebp]

; 488  : 	}

  00007	c9		 leave
  00008	c3		 ret	 0
??$_Ptr_cat@V?$_Vector_const_iterator@V?$_Vector_val@UForceInfo@@V?$allocator@UForceInfo@@@std@@@std@@@std@@PAUForceInfo@@@std@@YA?AU_Nonscalar_ptr_iterator_tag@0@AAV?$_Vector_const_iterator@V?$_Vector_val@UForceInfo@@V?$allocator@UForceInfo@@@std@@@std@@@0@AAPAUForceInfo@@@Z ENDP ; std::_Ptr_cat<std::_Vector_const_iterator<std::_Vector_val<ForceInfo,std::allocator<ForceInfo> > >,ForceInfo *>
_TEXT	ENDS
PUBLIC	??D?$_Vector_const_iterator@V?$_Vector_val@UWeaponInfo@@V?$allocator@UWeaponInfo@@@std@@@std@@@std@@QBEABUWeaponInfo@@XZ ; std::_Vector_const_iterator<std::_Vector_val<WeaponInfo,std::allocator<WeaponInfo> > >::operator*
; Function compile flags: /Ogsp
; File c:\program files (x86)\microsoft visual studio 10.0\vc\include\vector
;	COMDAT ??D?$_Vector_const_iterator@V?$_Vector_val@UWeaponInfo@@V?$allocator@UWeaponInfo@@@std@@@std@@@std@@QBEABUWeaponInfo@@XZ
_TEXT	SEGMENT
??D?$_Vector_const_iterator@V?$_Vector_val@UWeaponInfo@@V?$allocator@UWeaponInfo@@@std@@@std@@@std@@QBEABUWeaponInfo@@XZ PROC ; std::_Vector_const_iterator<std::_Vector_val<WeaponInfo,std::allocator<WeaponInfo> > >::operator*, COMDAT
; _this$ = ecx

; 64   :  #if _ITERATOR_DEBUG_LEVEL == 2
; 65   : 		if (this->_Getcont() == 0
; 66   : 			|| this->_Ptr == 0
; 67   : 			|| this->_Ptr < ((_Myvec *)this->_Getcont())->_Myfirst
; 68   : 			|| ((_Myvec *)this->_Getcont())->_Mylast <= this->_Ptr)
; 69   : 			{	// report error
; 70   : 			_DEBUG_ERROR("vector iterator not dereferencable");
; 71   : 			_SCL_SECURE_OUT_OF_RANGE;
; 72   : 			}
; 73   : 
; 74   :  #elif _ITERATOR_DEBUG_LEVEL == 1
; 75   : 		_SCL_SECURE_VALIDATE(this->_Getcont() != 0);
; 76   : 		_SCL_SECURE_VALIDATE_RANGE(
; 77   : 			this->_Ptr != 0
; 78   : 			&& ((_Myvec *)this->_Getcont())->_Myfirst <= this->_Ptr
; 79   : 			&& this->_Ptr < ((_Myvec *)this->_Getcont())->_Mylast);
; 80   :  #endif /* _ITERATOR_DEBUG_LEVEL */
; 81   : 
; 82   : 		__analysis_assume(this->_Ptr != 0);
; 83   : 
; 84   : 		return (*this->_Ptr);

  00000	8b 01		 mov	 eax, DWORD PTR [ecx]

; 85   : 		}

  00002	c3		 ret	 0
??D?$_Vector_const_iterator@V?$_Vector_val@UWeaponInfo@@V?$allocator@UWeaponInfo@@@std@@@std@@@std@@QBEABUWeaponInfo@@XZ ENDP ; std::_Vector_const_iterator<std::_Vector_val<WeaponInfo,std::allocator<WeaponInfo> > >::operator*
_TEXT	ENDS
PUBLIC	??E?$_Vector_const_iterator@V?$_Vector_val@UWeaponInfo@@V?$allocator@UWeaponInfo@@@std@@@std@@@std@@QAEAAV01@XZ ; std::_Vector_const_iterator<std::_Vector_val<WeaponInfo,std::allocator<WeaponInfo> > >::operator++
; Function compile flags: /Ogsp
;	COMDAT ??E?$_Vector_const_iterator@V?$_Vector_val@UWeaponInfo@@V?$allocator@UWeaponInfo@@@std@@@std@@@std@@QAEAAV01@XZ
_TEXT	SEGMENT
??E?$_Vector_const_iterator@V?$_Vector_val@UWeaponInfo@@V?$allocator@UWeaponInfo@@@std@@@std@@@std@@QAEAAV01@XZ PROC ; std::_Vector_const_iterator<std::_Vector_val<WeaponInfo,std::allocator<WeaponInfo> > >::operator++, COMDAT
; _this$ = ecx

; 93   : 		{	// preincrement

  00000	8b c1		 mov	 eax, ecx

; 94   :  #if _ITERATOR_DEBUG_LEVEL == 2
; 95   : 		if (this->_Getcont() == 0
; 96   : 			|| this->_Ptr == 0
; 97   : 			|| ((_Myvec *)this->_Getcont())->_Mylast <= this->_Ptr)
; 98   : 			{	// report error
; 99   : 			_DEBUG_ERROR("vector iterator not incrementable");
; 100  : 			_SCL_SECURE_OUT_OF_RANGE;
; 101  : 			}
; 102  : 
; 103  :  #elif _ITERATOR_DEBUG_LEVEL == 1
; 104  : 		_SCL_SECURE_VALIDATE(this->_Getcont() != 0);
; 105  : 		_SCL_SECURE_VALIDATE_RANGE(
; 106  : 			this->_Ptr != 0
; 107  : 			&& this->_Ptr < ((_Myvec *)this->_Getcont())->_Mylast);
; 108  :  #endif /* _ITERATOR_DEBUG_LEVEL */
; 109  : 
; 110  : 		++this->_Ptr;

  00002	83 00 28	 add	 DWORD PTR [eax], 40	; 00000028H

; 111  : 		return (*this);
; 112  : 		}

  00005	c3		 ret	 0
??E?$_Vector_const_iterator@V?$_Vector_val@UWeaponInfo@@V?$allocator@UWeaponInfo@@@std@@@std@@@std@@QAEAAV01@XZ ENDP ; std::_Vector_const_iterator<std::_Vector_val<WeaponInfo,std::allocator<WeaponInfo> > >::operator++
_TEXT	ENDS
PUBLIC	??D?$_Vector_const_iterator@V?$_Vector_val@UForceInfo@@V?$allocator@UForceInfo@@@std@@@std@@@std@@QBEABUForceInfo@@XZ ; std::_Vector_const_iterator<std::_Vector_val<ForceInfo,std::allocator<ForceInfo> > >::operator*
; Function compile flags: /Ogsp
;	COMDAT ??D?$_Vector_const_iterator@V?$_Vector_val@UForceInfo@@V?$allocator@UForceInfo@@@std@@@std@@@std@@QBEABUForceInfo@@XZ
_TEXT	SEGMENT
??D?$_Vector_const_iterator@V?$_Vector_val@UForceInfo@@V?$allocator@UForceInfo@@@std@@@std@@@std@@QBEABUForceInfo@@XZ PROC ; std::_Vector_const_iterator<std::_Vector_val<ForceInfo,std::allocator<ForceInfo> > >::operator*, COMDAT
; _this$ = ecx

; 64   :  #if _ITERATOR_DEBUG_LEVEL == 2
; 65   : 		if (this->_Getcont() == 0
; 66   : 			|| this->_Ptr == 0
; 67   : 			|| this->_Ptr < ((_Myvec *)this->_Getcont())->_Myfirst
; 68   : 			|| ((_Myvec *)this->_Getcont())->_Mylast <= this->_Ptr)
; 69   : 			{	// report error
; 70   : 			_DEBUG_ERROR("vector iterator not dereferencable");
; 71   : 			_SCL_SECURE_OUT_OF_RANGE;
; 72   : 			}
; 73   : 
; 74   :  #elif _ITERATOR_DEBUG_LEVEL == 1
; 75   : 		_SCL_SECURE_VALIDATE(this->_Getcont() != 0);
; 76   : 		_SCL_SECURE_VALIDATE_RANGE(
; 77   : 			this->_Ptr != 0
; 78   : 			&& ((_Myvec *)this->_Getcont())->_Myfirst <= this->_Ptr
; 79   : 			&& this->_Ptr < ((_Myvec *)this->_Getcont())->_Mylast);
; 80   :  #endif /* _ITERATOR_DEBUG_LEVEL */
; 81   : 
; 82   : 		__analysis_assume(this->_Ptr != 0);
; 83   : 
; 84   : 		return (*this->_Ptr);

  00000	8b 01		 mov	 eax, DWORD PTR [ecx]

; 85   : 		}

  00002	c3		 ret	 0
??D?$_Vector_const_iterator@V?$_Vector_val@UForceInfo@@V?$allocator@UForceInfo@@@std@@@std@@@std@@QBEABUForceInfo@@XZ ENDP ; std::_Vector_const_iterator<std::_Vector_val<ForceInfo,std::allocator<ForceInfo> > >::operator*
_TEXT	ENDS
PUBLIC	??E?$_Vector_const_iterator@V?$_Vector_val@UForceInfo@@V?$allocator@UForceInfo@@@std@@@std@@@std@@QAEAAV01@XZ ; std::_Vector_const_iterator<std::_Vector_val<ForceInfo,std::allocator<ForceInfo> > >::operator++
; Function compile flags: /Ogsp
;	COMDAT ??E?$_Vector_const_iterator@V?$_Vector_val@UForceInfo@@V?$allocator@UForceInfo@@@std@@@std@@@std@@QAEAAV01@XZ
_TEXT	SEGMENT
??E?$_Vector_const_iterator@V?$_Vector_val@UForceInfo@@V?$allocator@UForceInfo@@@std@@@std@@@std@@QAEAAV01@XZ PROC ; std::_Vector_const_iterator<std::_Vector_val<ForceInfo,std::allocator<ForceInfo> > >::operator++, COMDAT
; _this$ = ecx

; 93   : 		{	// preincrement

  00000	8b c1		 mov	 eax, ecx

; 94   :  #if _ITERATOR_DEBUG_LEVEL == 2
; 95   : 		if (this->_Getcont() == 0
; 96   : 			|| this->_Ptr == 0
; 97   : 			|| ((_Myvec *)this->_Getcont())->_Mylast <= this->_Ptr)
; 98   : 			{	// report error
; 99   : 			_DEBUG_ERROR("vector iterator not incrementable");
; 100  : 			_SCL_SECURE_OUT_OF_RANGE;
; 101  : 			}
; 102  : 
; 103  :  #elif _ITERATOR_DEBUG_LEVEL == 1
; 104  : 		_SCL_SECURE_VALIDATE(this->_Getcont() != 0);
; 105  : 		_SCL_SECURE_VALIDATE_RANGE(
; 106  : 			this->_Ptr != 0
; 107  : 			&& this->_Ptr < ((_Myvec *)this->_Getcont())->_Mylast);
; 108  :  #endif /* _ITERATOR_DEBUG_LEVEL */
; 109  : 
; 110  : 		++this->_Ptr;

  00002	83 00 0c	 add	 DWORD PTR [eax], 12	; 0000000cH

; 111  : 		return (*this);
; 112  : 		}

  00005	c3		 ret	 0
??E?$_Vector_const_iterator@V?$_Vector_val@UForceInfo@@V?$allocator@UForceInfo@@@std@@@std@@@std@@QAEAAV01@XZ ENDP ; std::_Vector_const_iterator<std::_Vector_val<ForceInfo,std::allocator<ForceInfo> > >::operator++
_TEXT	ENDS
PUBLIC	??$forward@ABUWeaponInfo@@@std@@YAABUWeaponInfo@@ABU1@@Z ; std::forward<WeaponInfo const &>
; Function compile flags: /Ogsp
; File c:\program files (x86)\microsoft visual studio 10.0\vc\include\utility
;	COMDAT ??$forward@ABUWeaponInfo@@@std@@YAABUWeaponInfo@@ABU1@@Z
_TEXT	SEGMENT
__Arg$ = 8						; size = 4
??$forward@ABUWeaponInfo@@@std@@YAABUWeaponInfo@@ABU1@@Z PROC ; std::forward<WeaponInfo const &>, COMDAT

; 78   : 	{	// forward _Arg, given explicitly specified type parameter

  00000	55		 push	 ebp
  00001	8b ec		 mov	 ebp, esp

; 79   : 	return ((_Ty&&)_Arg);

  00003	8b 45 08	 mov	 eax, DWORD PTR __Arg$[ebp]

; 80   : 	}

  00006	5d		 pop	 ebp
  00007	c3		 ret	 0
??$forward@ABUWeaponInfo@@@std@@YAABUWeaponInfo@@ABU1@@Z ENDP ; std::forward<WeaponInfo const &>
_TEXT	ENDS
PUBLIC	??$forward@ABUForceInfo@@@std@@YAABUForceInfo@@ABU1@@Z ; std::forward<ForceInfo const &>
; Function compile flags: /Ogsp
;	COMDAT ??$forward@ABUForceInfo@@@std@@YAABUForceInfo@@ABU1@@Z
_TEXT	SEGMENT
__Arg$ = 8						; size = 4
??$forward@ABUForceInfo@@@std@@YAABUForceInfo@@ABU1@@Z PROC ; std::forward<ForceInfo const &>, COMDAT

; 78   : 	{	// forward _Arg, given explicitly specified type parameter

  00000	55		 push	 ebp
  00001	8b ec		 mov	 ebp, esp

; 79   : 	return ((_Ty&&)_Arg);

  00003	8b 45 08	 mov	 eax, DWORD PTR __Arg$[ebp]

; 80   : 	}

  00006	5d		 pop	 ebp
  00007	c3		 ret	 0
??$forward@ABUForceInfo@@@std@@YAABUForceInfo@@ABU1@@Z ENDP ; std::forward<ForceInfo const &>
_TEXT	ENDS
PUBLIC	??$_Construct@UForceInfo@@ABU1@@std@@YAXPAUForceInfo@@ABU1@@Z ; std::_Construct<ForceInfo,ForceInfo const &>
; Function compile flags: /Ogsp
; File c:\program files (x86)\microsoft visual studio 10.0\vc\include\xmemory
;	COMDAT ??$_Construct@UForceInfo@@ABU1@@std@@YAXPAUForceInfo@@ABU1@@Z
_TEXT	SEGMENT
__Ptr$ = 8						; size = 4
__Val$ = 12						; size = 4
??$_Construct@UForceInfo@@ABU1@@std@@YAXPAUForceInfo@@ABU1@@Z PROC ; std::_Construct<ForceInfo,ForceInfo const &>, COMDAT

; 46   : 	{	// construct object at _Ptr with value _Val

  00000	55		 push	 ebp
  00001	8b ec		 mov	 ebp, esp
  00003	57		 push	 edi

; 47   : 	void _FARQ *_Vptr = _Ptr;
; 48   : 	::new (_Vptr) _Ty1(_STD forward<_Ty2>(_Val));

  00004	8b 7d 08	 mov	 edi, DWORD PTR __Ptr$[ebp]
  00007	85 ff		 test	 edi, edi
  00009	74 08		 je	 SHORT $LN3@Construct
  0000b	56		 push	 esi
  0000c	8b 75 0c	 mov	 esi, DWORD PTR __Val$[ebp]
  0000f	a5		 movsd
  00010	a5		 movsd
  00011	a5		 movsd
  00012	5e		 pop	 esi
$LN3@Construct:
  00013	5f		 pop	 edi

; 49   : 	}

  00014	5d		 pop	 ebp
  00015	c3		 ret	 0
??$_Construct@UForceInfo@@ABU1@@std@@YAXPAUForceInfo@@ABU1@@Z ENDP ; std::_Construct<ForceInfo,ForceInfo const &>
_TEXT	ENDS
PUBLIC	?_DECSTR@@YAXPADH@Z				; _DECSTR
; Function compile flags: /Ogsp
; File d:\lost saga for developer\youtube\tutorial\source\src\lsclient\stringprotect.h
;	COMDAT ?_DECSTR@@YAXPADH@Z
_TEXT	SEGMENT
_s$ = 8							; size = 4
_l$ = 12						; size = 4
?_DECSTR@@YAXPADH@Z PROC				; _DECSTR, COMDAT

; 40   : __forceinline void _DECSTR(char* s, int l){int i=0,l4=(l-1)/4,*p=(int*)s;s[l-1]=0;for(;i<l4;++i)*(p++)^=0xEAEBECED;for(i=l4*4;i<l-1;++i)s[i]^=0xED-i%4;}

  00000	55		 push	 ebp
  00001	8b ec		 mov	 ebp, esp
  00003	8b 4d 0c	 mov	 ecx, DWORD PTR _l$[ebp]
  00006	56		 push	 esi
  00007	8b 75 08	 mov	 esi, DWORD PTR _s$[ebp]
  0000a	57		 push	 edi
  0000b	8d 79 ff	 lea	 edi, DWORD PTR [ecx-1]
  0000e	8b c7		 mov	 eax, edi
  00010	99		 cdq
  00011	83 e2 03	 and	 edx, 3
  00014	03 c2		 add	 eax, edx
  00016	c1 f8 02	 sar	 eax, 2
  00019	8b d6		 mov	 edx, esi
  0001b	c6 44 0e ff 00	 mov	 BYTE PTR [esi+ecx-1], 0
  00020	85 c0		 test	 eax, eax
  00022	7e 0e		 jle	 SHORT $LN4@DECSTR
  00024	8b c8		 mov	 ecx, eax
$LL6@DECSTR:
  00026	81 32 ed ec eb
	ea		 xor	 DWORD PTR [edx], -353637139 ; eaebecedH
  0002c	83 c2 04	 add	 edx, 4
  0002f	49		 dec	 ecx
  00030	75 f4		 jne	 SHORT $LL6@DECSTR
$LN4@DECSTR:
  00032	c1 e0 02	 shl	 eax, 2
  00035	eb 17		 jmp	 SHORT $LN14@DECSTR
$LL3@DECSTR:
  00037	8b c8		 mov	 ecx, eax
  00039	81 e1 03 00 00
	80		 and	 ecx, -2147483645	; 80000003H
  0003f	79 05		 jns	 SHORT $LN13@DECSTR
  00041	49		 dec	 ecx
  00042	83 c9 fc	 or	 ecx, -4			; fffffffcH
  00045	41		 inc	 ecx
$LN13@DECSTR:
  00046	b2 ed		 mov	 dl, -19			; ffffffedH
  00048	2a d1		 sub	 dl, cl
  0004a	30 14 30	 xor	 BYTE PTR [eax+esi], dl
  0004d	40		 inc	 eax
$LN14@DECSTR:
  0004e	3b c7		 cmp	 eax, edi
  00050	7c e5		 jl	 SHORT $LL3@DECSTR
  00052	5f		 pop	 edi
  00053	5e		 pop	 esi
  00054	5d		 pop	 ebp
  00055	c3		 ret	 0
?_DECSTR@@YAXPADH@Z ENDP				; _DECSTR
_TEXT	ENDS
PUBLIC	?GetGroup@ioGameEntity@@QBEPAVioEntityGroup@@XZ	; ioGameEntity::GetGroup
; Function compile flags: /Ogsp
; File d:\lost saga for developer\youtube\tutorial\source\src\lsclient\iogameentity.h
;	COMDAT ?GetGroup@ioGameEntity@@QBEPAVioEntityGroup@@XZ
_TEXT	SEGMENT
?GetGroup@ioGameEntity@@QBEPAVioEntityGroup@@XZ PROC	; ioGameEntity::GetGroup, COMDAT
; _this$ = ecx

; 166  : 	inline ioEntityGroup* GetGroup() const { return m_pGroup; }

  00000	8b 41 04	 mov	 eax, DWORD PTR [ecx+4]
  00003	c3		 ret	 0
?GetGroup@ioGameEntity@@QBEPAVioEntityGroup@@XZ ENDP	; ioGameEntity::GetGroup
_TEXT	ENDS
PUBLIC	??1WeaponInfo@@QAE@XZ				; WeaponInfo::~WeaponInfo
EXTRN	__imp_??1ioHashString@@QAE@XZ:PROC
; Function compile flags: /Ogsp
;	COMDAT ??1WeaponInfo@@QAE@XZ
_TEXT	SEGMENT
??1WeaponInfo@@QAE@XZ PROC				; WeaponInfo::~WeaponInfo, COMDAT
; _this$ = ecx
  00000	83 c1 08	 add	 ecx, 8
  00003	ff 25 00 00 00
	00		 jmp	 DWORD PTR __imp_??1ioHashString@@QAE@XZ
??1WeaponInfo@@QAE@XZ ENDP				; WeaponInfo::~WeaponInfo
_TEXT	ENDS
PUBLIC	?GetEffect@ioMapEffect@@QBEPAVioEffect@@XZ	; ioMapEffect::GetEffect
; Function compile flags: /Ogsp
; File d:\lost saga for developer\youtube\tutorial\source\src\lsclient\iomapeffect.h
;	COMDAT ?GetEffect@ioMapEffect@@QBEPAVioEffect@@XZ
_TEXT	SEGMENT
?GetEffect@ioMapEffect@@QBEPAVioEffect@@XZ PROC		; ioMapEffect::GetEffect, COMDAT
; _this$ = ecx

; 40   : 	inline ioEffect* GetEffect() const { return m_pEffect; }

  00000	8b 41 04	 mov	 eax, DWORD PTR [ecx+4]
  00003	c3		 ret	 0
?GetEffect@ioMapEffect@@QBEPAVioEffect@@XZ ENDP		; ioMapEffect::GetEffect
_TEXT	ENDS
PUBLIC	?GetOwnerItem@ioSkill@@QBEPAVioItem@@XZ		; ioSkill::GetOwnerItem
; Function compile flags: /Ogsp
; File d:\lost saga for developer\youtube\tutorial\source\src\lsclient\ioskill.h
;	COMDAT ?GetOwnerItem@ioSkill@@QBEPAVioItem@@XZ
_TEXT	SEGMENT
?GetOwnerItem@ioSkill@@QBEPAVioItem@@XZ PROC		; ioSkill::GetOwnerItem, COMDAT
; _this$ = ecx

; 397  : 	inline ioItem *GetOwnerItem() const { return m_pOwnerItem; }

  00000	8b 81 a4 02 00
	00		 mov	 eax, DWORD PTR [ecx+676]
  00006	c3		 ret	 0
?GetOwnerItem@ioSkill@@QBEPAVioItem@@XZ ENDP		; ioSkill::GetOwnerItem
_TEXT	ENDS
PUBLIC	?GetName@ioSkill@@QBEABVioHashString@@XZ	; ioSkill::GetName
; Function compile flags: /Ogsp
;	COMDAT ?GetName@ioSkill@@QBEABVioHashString@@XZ
_TEXT	SEGMENT
?GetName@ioSkill@@QBEABVioHashString@@XZ PROC		; ioSkill::GetName, COMDAT
; _this$ = ecx

; 414  : 	inline const ioHashString& GetName() const { return m_Name; }

  00000	8d 41 24	 lea	 eax, DWORD PTR [ecx+36]
  00003	c3		 ret	 0
?GetName@ioSkill@@QBEABVioHashString@@XZ ENDP		; ioSkill::GetName
_TEXT	ENDS
PUBLIC	??_7?$CEncrypt@M@@6B@				; CEncrypt<float>::`vftable'
PUBLIC	??1?$CEncrypt@M@@UAE@XZ				; CEncrypt<float>::~CEncrypt<float>
PUBLIC	??_R4?$CEncrypt@M@@6B@				; CEncrypt<float>::`RTTI Complete Object Locator'
PUBLIC	??_R0?AV?$CEncrypt@M@@@8			; CEncrypt<float> `RTTI Type Descriptor'
PUBLIC	??_R3?$CEncrypt@M@@8				; CEncrypt<float>::`RTTI Class Hierarchy Descriptor'
PUBLIC	??_R2?$CEncrypt@M@@8				; CEncrypt<float>::`RTTI Base Class Array'
PUBLIC	??_R1A@?0A@EA@?$CEncrypt@M@@8			; CEncrypt<float>::`RTTI Base Class Descriptor at (0,-1,0,64)'
EXTRN	??1ccddaabb@@UAE@XZ:PROC			; ccddaabb::~ccddaabb
EXTRN	??_E?$CEncrypt@M@@UAEPAXI@Z:PROC		; CEncrypt<float>::`vector deleting destructor'
;	COMDAT ??_R1A@?0A@EA@?$CEncrypt@M@@8
; File d:\lost saga for developer\youtube\tutorial\source\src\lsclient\encryptvalue.h
rdata$r	SEGMENT
??_R1A@?0A@EA@?$CEncrypt@M@@8 DD FLAT:??_R0?AV?$CEncrypt@M@@@8 ; CEncrypt<float>::`RTTI Base Class Descriptor at (0,-1,0,64)'
	DD	00H
	DD	00H
	DD	0ffffffffH
	DD	00H
	DD	040H
	DD	FLAT:??_R3?$CEncrypt@M@@8
rdata$r	ENDS
;	COMDAT ??_R2?$CEncrypt@M@@8
rdata$r	SEGMENT
??_R2?$CEncrypt@M@@8 DD FLAT:??_R1A@?0A@EA@?$CEncrypt@M@@8 ; CEncrypt<float>::`RTTI Base Class Array'
rdata$r	ENDS
;	COMDAT ??_R3?$CEncrypt@M@@8
rdata$r	SEGMENT
??_R3?$CEncrypt@M@@8 DD 00H				; CEncrypt<float>::`RTTI Class Hierarchy Descriptor'
	DD	00H
	DD	01H
	DD	FLAT:??_R2?$CEncrypt@M@@8
rdata$r	ENDS
;	COMDAT ??_R0?AV?$CEncrypt@M@@@8
_DATA	SEGMENT
??_R0?AV?$CEncrypt@M@@@8 DD FLAT:??_7type_info@@6B@	; CEncrypt<float> `RTTI Type Descriptor'
	DD	00H
	DB	'.?AV?$CEncrypt@M@@', 00H
_DATA	ENDS
;	COMDAT ??_R4?$CEncrypt@M@@6B@
rdata$r	SEGMENT
??_R4?$CEncrypt@M@@6B@ DD 00H				; CEncrypt<float>::`RTTI Complete Object Locator'
	DD	00H
	DD	00H
	DD	FLAT:??_R0?AV?$CEncrypt@M@@@8
	DD	FLAT:??_R3?$CEncrypt@M@@8
rdata$r	ENDS
;	COMDAT ??_7?$CEncrypt@M@@6B@
CONST	SEGMENT
??_7?$CEncrypt@M@@6B@ DD FLAT:??_R4?$CEncrypt@M@@6B@	; CEncrypt<float>::`vftable'
	DD	FLAT:??_E?$CEncrypt@M@@UAEPAXI@Z
; Function compile flags: /Ogsp
CONST	ENDS
;	COMDAT ??1?$CEncrypt@M@@UAE@XZ
_TEXT	SEGMENT
??1?$CEncrypt@M@@UAE@XZ PROC				; CEncrypt<float>::~CEncrypt<float>, COMDAT
; _this$ = ecx

; 127  : 	{

  00000	c7 01 00 00 00
	00		 mov	 DWORD PTR [ecx], OFFSET ??_7?$CEncrypt@M@@6B@

; 128  : 	}

  00006	83 c1 0c	 add	 ecx, 12			; 0000000cH
  00009	e9 00 00 00 00	 jmp	 ??1ccddaabb@@UAE@XZ	; ccddaabb::~ccddaabb
??1?$CEncrypt@M@@UAE@XZ ENDP				; CEncrypt<float>::~CEncrypt<float>
_TEXT	ENDS
PUBLIC	??_7?$CEncrypt@K@@6B@				; CEncrypt<unsigned long>::`vftable'
PUBLIC	??1?$CEncrypt@K@@UAE@XZ				; CEncrypt<unsigned long>::~CEncrypt<unsigned long>
PUBLIC	??_R4?$CEncrypt@K@@6B@				; CEncrypt<unsigned long>::`RTTI Complete Object Locator'
PUBLIC	??_R0?AV?$CEncrypt@K@@@8			; CEncrypt<unsigned long> `RTTI Type Descriptor'
PUBLIC	??_R3?$CEncrypt@K@@8				; CEncrypt<unsigned long>::`RTTI Class Hierarchy Descriptor'
PUBLIC	??_R2?$CEncrypt@K@@8				; CEncrypt<unsigned long>::`RTTI Base Class Array'
PUBLIC	??_R1A@?0A@EA@?$CEncrypt@K@@8			; CEncrypt<unsigned long>::`RTTI Base Class Descriptor at (0,-1,0,64)'
EXTRN	??_E?$CEncrypt@K@@UAEPAXI@Z:PROC		; CEncrypt<unsigned long>::`vector deleting destructor'
;	COMDAT ??_R1A@?0A@EA@?$CEncrypt@K@@8
rdata$r	SEGMENT
??_R1A@?0A@EA@?$CEncrypt@K@@8 DD FLAT:??_R0?AV?$CEncrypt@K@@@8 ; CEncrypt<unsigned long>::`RTTI Base Class Descriptor at (0,-1,0,64)'
	DD	00H
	DD	00H
	DD	0ffffffffH
	DD	00H
	DD	040H
	DD	FLAT:??_R3?$CEncrypt@K@@8
rdata$r	ENDS
;	COMDAT ??_R2?$CEncrypt@K@@8
rdata$r	SEGMENT
??_R2?$CEncrypt@K@@8 DD FLAT:??_R1A@?0A@EA@?$CEncrypt@K@@8 ; CEncrypt<unsigned long>::`RTTI Base Class Array'
rdata$r	ENDS
;	COMDAT ??_R3?$CEncrypt@K@@8
rdata$r	SEGMENT
??_R3?$CEncrypt@K@@8 DD 00H				; CEncrypt<unsigned long>::`RTTI Class Hierarchy Descriptor'
	DD	00H
	DD	01H
	DD	FLAT:??_R2?$CEncrypt@K@@8
rdata$r	ENDS
;	COMDAT ??_R0?AV?$CEncrypt@K@@@8
_DATA	SEGMENT
??_R0?AV?$CEncrypt@K@@@8 DD FLAT:??_7type_info@@6B@	; CEncrypt<unsigned long> `RTTI Type Descriptor'
	DD	00H
	DB	'.?AV?$CEncrypt@K@@', 00H
_DATA	ENDS
;	COMDAT ??_R4?$CEncrypt@K@@6B@
rdata$r	SEGMENT
??_R4?$CEncrypt@K@@6B@ DD 00H				; CEncrypt<unsigned long>::`RTTI Complete Object Locator'
	DD	00H
	DD	00H
	DD	FLAT:??_R0?AV?$CEncrypt@K@@@8
	DD	FLAT:??_R3?$CEncrypt@K@@8
rdata$r	ENDS
;	COMDAT ??_7?$CEncrypt@K@@6B@
CONST	SEGMENT
??_7?$CEncrypt@K@@6B@ DD FLAT:??_R4?$CEncrypt@K@@6B@	; CEncrypt<unsigned long>::`vftable'
	DD	FLAT:??_E?$CEncrypt@K@@UAEPAXI@Z
; Function compile flags: /Ogsp
CONST	ENDS
;	COMDAT ??1?$CEncrypt@K@@UAE@XZ
_TEXT	SEGMENT
??1?$CEncrypt@K@@UAE@XZ PROC				; CEncrypt<unsigned long>::~CEncrypt<unsigned long>, COMDAT
; _this$ = ecx

; 127  : 	{

  00000	c7 01 00 00 00
	00		 mov	 DWORD PTR [ecx], OFFSET ??_7?$CEncrypt@K@@6B@

; 128  : 	}

  00006	83 c1 0c	 add	 ecx, 12			; 0000000cH
  00009	e9 00 00 00 00	 jmp	 ??1ccddaabb@@UAE@XZ	; ccddaabb::~ccddaabb
??1?$CEncrypt@K@@UAE@XZ ENDP				; CEncrypt<unsigned long>::~CEncrypt<unsigned long>
_TEXT	ENDS
PUBLIC	??_7?$CEncrypt@_N@@6B@				; CEncrypt<bool>::`vftable'
PUBLIC	??1?$CEncrypt@_N@@UAE@XZ			; CEncrypt<bool>::~CEncrypt<bool>
PUBLIC	??_R4?$CEncrypt@_N@@6B@				; CEncrypt<bool>::`RTTI Complete Object Locator'
PUBLIC	??_R0?AV?$CEncrypt@_N@@@8			; CEncrypt<bool> `RTTI Type Descriptor'
PUBLIC	??_R3?$CEncrypt@_N@@8				; CEncrypt<bool>::`RTTI Class Hierarchy Descriptor'
PUBLIC	??_R2?$CEncrypt@_N@@8				; CEncrypt<bool>::`RTTI Base Class Array'
PUBLIC	??_R1A@?0A@EA@?$CEncrypt@_N@@8			; CEncrypt<bool>::`RTTI Base Class Descriptor at (0,-1,0,64)'
EXTRN	??_E?$CEncrypt@_N@@UAEPAXI@Z:PROC		; CEncrypt<bool>::`vector deleting destructor'
;	COMDAT ??_R1A@?0A@EA@?$CEncrypt@_N@@8
rdata$r	SEGMENT
??_R1A@?0A@EA@?$CEncrypt@_N@@8 DD FLAT:??_R0?AV?$CEncrypt@_N@@@8 ; CEncrypt<bool>::`RTTI Base Class Descriptor at (0,-1,0,64)'
	DD	00H
	DD	00H
	DD	0ffffffffH
	DD	00H
	DD	040H
	DD	FLAT:??_R3?$CEncrypt@_N@@8
rdata$r	ENDS
;	COMDAT ??_R2?$CEncrypt@_N@@8
rdata$r	SEGMENT
??_R2?$CEncrypt@_N@@8 DD FLAT:??_R1A@?0A@EA@?$CEncrypt@_N@@8 ; CEncrypt<bool>::`RTTI Base Class Array'
rdata$r	ENDS
;	COMDAT ??_R3?$CEncrypt@_N@@8
rdata$r	SEGMENT
??_R3?$CEncrypt@_N@@8 DD 00H				; CEncrypt<bool>::`RTTI Class Hierarchy Descriptor'
	DD	00H
	DD	01H
	DD	FLAT:??_R2?$CEncrypt@_N@@8
rdata$r	ENDS
;	COMDAT ??_R0?AV?$CEncrypt@_N@@@8
_DATA	SEGMENT
??_R0?AV?$CEncrypt@_N@@@8 DD FLAT:??_7type_info@@6B@	; CEncrypt<bool> `RTTI Type Descriptor'
	DD	00H
	DB	'.?AV?$CEncrypt@_N@@', 00H
_DATA	ENDS
;	COMDAT ??_R4?$CEncrypt@_N@@6B@
rdata$r	SEGMENT
??_R4?$CEncrypt@_N@@6B@ DD 00H				; CEncrypt<bool>::`RTTI Complete Object Locator'
	DD	00H
	DD	00H
	DD	FLAT:??_R0?AV?$CEncrypt@_N@@@8
	DD	FLAT:??_R3?$CEncrypt@_N@@8
rdata$r	ENDS
;	COMDAT ??_7?$CEncrypt@_N@@6B@
CONST	SEGMENT
??_7?$CEncrypt@_N@@6B@ DD FLAT:??_R4?$CEncrypt@_N@@6B@	; CEncrypt<bool>::`vftable'
	DD	FLAT:??_E?$CEncrypt@_N@@UAEPAXI@Z
; Function compile flags: /Ogsp
CONST	ENDS
;	COMDAT ??1?$CEncrypt@_N@@UAE@XZ
_TEXT	SEGMENT
??1?$CEncrypt@_N@@UAE@XZ PROC				; CEncrypt<bool>::~CEncrypt<bool>, COMDAT
; _this$ = ecx

; 127  : 	{

  00000	c7 01 00 00 00
	00		 mov	 DWORD PTR [ecx], OFFSET ??_7?$CEncrypt@_N@@6B@

; 128  : 	}

  00006	83 c1 0c	 add	 ecx, 12			; 0000000cH
  00009	e9 00 00 00 00	 jmp	 ??1ccddaabb@@UAE@XZ	; ccddaabb::~ccddaabb
??1?$CEncrypt@_N@@UAE@XZ ENDP				; CEncrypt<bool>::~CEncrypt<bool>
_TEXT	ENDS
PUBLIC	??_7?$CEncrypt@H@@6B@				; CEncrypt<int>::`vftable'
PUBLIC	??1?$CEncrypt@H@@UAE@XZ				; CEncrypt<int>::~CEncrypt<int>
PUBLIC	??_R4?$CEncrypt@H@@6B@				; CEncrypt<int>::`RTTI Complete Object Locator'
PUBLIC	??_R0?AV?$CEncrypt@H@@@8			; CEncrypt<int> `RTTI Type Descriptor'
PUBLIC	??_R3?$CEncrypt@H@@8				; CEncrypt<int>::`RTTI Class Hierarchy Descriptor'
PUBLIC	??_R2?$CEncrypt@H@@8				; CEncrypt<int>::`RTTI Base Class Array'
PUBLIC	??_R1A@?0A@EA@?$CEncrypt@H@@8			; CEncrypt<int>::`RTTI Base Class Descriptor at (0,-1,0,64)'
EXTRN	??_E?$CEncrypt@H@@UAEPAXI@Z:PROC		; CEncrypt<int>::`vector deleting destructor'
;	COMDAT ??_R1A@?0A@EA@?$CEncrypt@H@@8
rdata$r	SEGMENT
??_R1A@?0A@EA@?$CEncrypt@H@@8 DD FLAT:??_R0?AV?$CEncrypt@H@@@8 ; CEncrypt<int>::`RTTI Base Class Descriptor at (0,-1,0,64)'
	DD	00H
	DD	00H
	DD	0ffffffffH
	DD	00H
	DD	040H
	DD	FLAT:??_R3?$CEncrypt@H@@8
rdata$r	ENDS
;	COMDAT ??_R2?$CEncrypt@H@@8
rdata$r	SEGMENT
??_R2?$CEncrypt@H@@8 DD FLAT:??_R1A@?0A@EA@?$CEncrypt@H@@8 ; CEncrypt<int>::`RTTI Base Class Array'
rdata$r	ENDS
;	COMDAT ??_R3?$CEncrypt@H@@8
rdata$r	SEGMENT
??_R3?$CEncrypt@H@@8 DD 00H				; CEncrypt<int>::`RTTI Class Hierarchy Descriptor'
	DD	00H
	DD	01H
	DD	FLAT:??_R2?$CEncrypt@H@@8
rdata$r	ENDS
;	COMDAT ??_R0?AV?$CEncrypt@H@@@8
_DATA	SEGMENT
??_R0?AV?$CEncrypt@H@@@8 DD FLAT:??_7type_info@@6B@	; CEncrypt<int> `RTTI Type Descriptor'
	DD	00H
	DB	'.?AV?$CEncrypt@H@@', 00H
_DATA	ENDS
;	COMDAT ??_R4?$CEncrypt@H@@6B@
rdata$r	SEGMENT
??_R4?$CEncrypt@H@@6B@ DD 00H				; CEncrypt<int>::`RTTI Complete Object Locator'
	DD	00H
	DD	00H
	DD	FLAT:??_R0?AV?$CEncrypt@H@@@8
	DD	FLAT:??_R3?$CEncrypt@H@@8
rdata$r	ENDS
;	COMDAT ??_7?$CEncrypt@H@@6B@
CONST	SEGMENT
??_7?$CEncrypt@H@@6B@ DD FLAT:??_R4?$CEncrypt@H@@6B@	; CEncrypt<int>::`vftable'
	DD	FLAT:??_E?$CEncrypt@H@@UAEPAXI@Z
; Function compile flags: /Ogsp
CONST	ENDS
;	COMDAT ??1?$CEncrypt@H@@UAE@XZ
_TEXT	SEGMENT
??1?$CEncrypt@H@@UAE@XZ PROC				; CEncrypt<int>::~CEncrypt<int>, COMDAT
; _this$ = ecx

; 127  : 	{

  00000	c7 01 00 00 00
	00		 mov	 DWORD PTR [ecx], OFFSET ??_7?$CEncrypt@H@@6B@

; 128  : 	}

  00006	83 c1 0c	 add	 ecx, 12			; 0000000cH
  00009	e9 00 00 00 00	 jmp	 ??1ccddaabb@@UAE@XZ	; ccddaabb::~ccddaabb
??1?$CEncrypt@H@@UAE@XZ ENDP				; CEncrypt<int>::~CEncrypt<int>
; Function compile flags: /Ogsp
_TEXT	ENDS
;	COMDAT ??_G?$CEncrypt@M@@UAEPAXI@Z
_TEXT	SEGMENT
___flags$ = 8						; size = 4
??_G?$CEncrypt@M@@UAEPAXI@Z PROC			; CEncrypt<float>::`scalar deleting destructor', COMDAT
; _this$ = ecx
  00000	55		 push	 ebp
  00001	8b ec		 mov	 ebp, esp
  00003	56		 push	 esi
  00004	8b f1		 mov	 esi, ecx
  00006	8d 4e 0c	 lea	 ecx, DWORD PTR [esi+12]
  00009	c7 06 00 00 00
	00		 mov	 DWORD PTR [esi], OFFSET ??_7?$CEncrypt@M@@6B@
  0000f	e8 00 00 00 00	 call	 ??1ccddaabb@@UAE@XZ	; ccddaabb::~ccddaabb
  00014	f6 45 08 01	 test	 BYTE PTR ___flags$[ebp], 1
  00018	74 07		 je	 SHORT $LN1@scalar@2
  0001a	56		 push	 esi
  0001b	e8 00 00 00 00	 call	 ??3@YAXPAX@Z		; operator delete
  00020	59		 pop	 ecx
$LN1@scalar@2:
  00021	8b c6		 mov	 eax, esi
  00023	5e		 pop	 esi
  00024	5d		 pop	 ebp
  00025	c2 04 00	 ret	 4
??_G?$CEncrypt@M@@UAEPAXI@Z ENDP			; CEncrypt<float>::`scalar deleting destructor'
; Function compile flags: /Ogsp
_TEXT	ENDS
;	COMDAT ??_G?$CEncrypt@K@@UAEPAXI@Z
_TEXT	SEGMENT
___flags$ = 8						; size = 4
??_G?$CEncrypt@K@@UAEPAXI@Z PROC			; CEncrypt<unsigned long>::`scalar deleting destructor', COMDAT
; _this$ = ecx
  00000	55		 push	 ebp
  00001	8b ec		 mov	 ebp, esp
  00003	56		 push	 esi
  00004	8b f1		 mov	 esi, ecx
  00006	8d 4e 0c	 lea	 ecx, DWORD PTR [esi+12]
  00009	c7 06 00 00 00
	00		 mov	 DWORD PTR [esi], OFFSET ??_7?$CEncrypt@K@@6B@
  0000f	e8 00 00 00 00	 call	 ??1ccddaabb@@UAE@XZ	; ccddaabb::~ccddaabb
  00014	f6 45 08 01	 test	 BYTE PTR ___flags$[ebp], 1
  00018	74 07		 je	 SHORT $LN1@scalar@3
  0001a	56		 push	 esi
  0001b	e8 00 00 00 00	 call	 ??3@YAXPAX@Z		; operator delete
  00020	59		 pop	 ecx
$LN1@scalar@3:
  00021	8b c6		 mov	 eax, esi
  00023	5e		 pop	 esi
  00024	5d		 pop	 ebp
  00025	c2 04 00	 ret	 4
??_G?$CEncrypt@K@@UAEPAXI@Z ENDP			; CEncrypt<unsigned long>::`scalar deleting destructor'
; Function compile flags: /Ogsp
_TEXT	ENDS
;	COMDAT ??_G?$CEncrypt@_N@@UAEPAXI@Z
_TEXT	SEGMENT
___flags$ = 8						; size = 4
??_G?$CEncrypt@_N@@UAEPAXI@Z PROC			; CEncrypt<bool>::`scalar deleting destructor', COMDAT
; _this$ = ecx
  00000	55		 push	 ebp
  00001	8b ec		 mov	 ebp, esp
  00003	56		 push	 esi
  00004	8b f1		 mov	 esi, ecx
  00006	8d 4e 0c	 lea	 ecx, DWORD PTR [esi+12]
  00009	c7 06 00 00 00
	00		 mov	 DWORD PTR [esi], OFFSET ??_7?$CEncrypt@_N@@6B@
  0000f	e8 00 00 00 00	 call	 ??1ccddaabb@@UAE@XZ	; ccddaabb::~ccddaabb
  00014	f6 45 08 01	 test	 BYTE PTR ___flags$[ebp], 1
  00018	74 07		 je	 SHORT $LN1@scalar@4
  0001a	56		 push	 esi
  0001b	e8 00 00 00 00	 call	 ??3@YAXPAX@Z		; operator delete
  00020	59		 pop	 ecx
$LN1@scalar@4:
  00021	8b c6		 mov	 eax, esi
  00023	5e		 pop	 esi
  00024	5d		 pop	 ebp
  00025	c2 04 00	 ret	 4
??_G?$CEncrypt@_N@@UAEPAXI@Z ENDP			; CEncrypt<bool>::`scalar deleting destructor'
; Function compile flags: /Ogsp
_TEXT	ENDS
;	COMDAT ??_G?$CEncrypt@H@@UAEPAXI@Z
_TEXT	SEGMENT
___flags$ = 8						; size = 4
??_G?$CEncrypt@H@@UAEPAXI@Z PROC			; CEncrypt<int>::`scalar deleting destructor', COMDAT
; _this$ = ecx
  00000	55		 push	 ebp
  00001	8b ec		 mov	 ebp, esp
  00003	56		 push	 esi
  00004	8b f1		 mov	 esi, ecx
  00006	8d 4e 0c	 lea	 ecx, DWORD PTR [esi+12]
  00009	c7 06 00 00 00
	00		 mov	 DWORD PTR [esi], OFFSET ??_7?$CEncrypt@H@@6B@
  0000f	e8 00 00 00 00	 call	 ??1ccddaabb@@UAE@XZ	; ccddaabb::~ccddaabb
  00014	f6 45 08 01	 test	 BYTE PTR ___flags$[ebp], 1
  00018	74 07		 je	 SHORT $LN1@scalar@5
  0001a	56		 push	 esi
  0001b	e8 00 00 00 00	 call	 ??3@YAXPAX@Z		; operator delete
  00020	59		 pop	 ecx
$LN1@scalar@5:
  00021	8b c6		 mov	 eax, esi
  00023	5e		 pop	 esi
  00024	5d		 pop	 ebp
  00025	c2 04 00	 ret	 4
??_G?$CEncrypt@H@@UAEPAXI@Z ENDP			; CEncrypt<int>::`scalar deleting destructor'
_TEXT	ENDS
PUBLIC	??1?$_Vector_val@UWeaponInfo@@V?$allocator@UWeaponInfo@@@std@@@std@@QAE@XZ ; std::_Vector_val<WeaponInfo,std::allocator<WeaponInfo> >::~_Vector_val<WeaponInfo,std::allocator<WeaponInfo> >
; Function compile flags: /Ogsp
; File c:\program files (x86)\microsoft visual studio 10.0\vc\include\vector
;	COMDAT ??1?$_Vector_val@UWeaponInfo@@V?$allocator@UWeaponInfo@@@std@@@std@@QAE@XZ
_TEXT	SEGMENT
??1?$_Vector_val@UWeaponInfo@@V?$allocator@UWeaponInfo@@@std@@@std@@QAE@XZ PROC ; std::_Vector_val<WeaponInfo,std::allocator<WeaponInfo> >::~_Vector_val<WeaponInfo,std::allocator<WeaponInfo> >, COMDAT
; _this$ = ecx

; 434  : 		}

  00000	c3		 ret	 0
??1?$_Vector_val@UWeaponInfo@@V?$allocator@UWeaponInfo@@@std@@@std@@QAE@XZ ENDP ; std::_Vector_val<WeaponInfo,std::allocator<WeaponInfo> >::~_Vector_val<WeaponInfo,std::allocator<WeaponInfo> >
_TEXT	ENDS
PUBLIC	??0?$allocator@UWeaponInfo@@@std@@QAE@XZ	; std::allocator<WeaponInfo>::allocator<WeaponInfo>
; Function compile flags: /Ogsp
; File c:\program files (x86)\microsoft visual studio 10.0\vc\include\xmemory
;	COMDAT ??0?$allocator@UWeaponInfo@@@std@@QAE@XZ
_TEXT	SEGMENT
??0?$allocator@UWeaponInfo@@@std@@QAE@XZ PROC		; std::allocator<WeaponInfo>::allocator<WeaponInfo>, COMDAT
; _this$ = ecx

; 161  : 	_ALLOCATOR() _THROW0()

  00000	8b c1		 mov	 eax, ecx

; 162  : 		{	// construct default allocator (do nothing)
; 163  : 		}

  00002	c3		 ret	 0
??0?$allocator@UWeaponInfo@@@std@@QAE@XZ ENDP		; std::allocator<WeaponInfo>::allocator<WeaponInfo>
_TEXT	ENDS
PUBLIC	??1?$_Vector_val@UForceInfo@@V?$allocator@UForceInfo@@@std@@@std@@QAE@XZ ; std::_Vector_val<ForceInfo,std::allocator<ForceInfo> >::~_Vector_val<ForceInfo,std::allocator<ForceInfo> >
; Function compile flags: /Ogsp
; File c:\program files (x86)\microsoft visual studio 10.0\vc\include\vector
;	COMDAT ??1?$_Vector_val@UForceInfo@@V?$allocator@UForceInfo@@@std@@@std@@QAE@XZ
_TEXT	SEGMENT
??1?$_Vector_val@UForceInfo@@V?$allocator@UForceInfo@@@std@@@std@@QAE@XZ PROC ; std::_Vector_val<ForceInfo,std::allocator<ForceInfo> >::~_Vector_val<ForceInfo,std::allocator<ForceInfo> >, COMDAT
; _this$ = ecx

; 434  : 		}

  00000	c3		 ret	 0
??1?$_Vector_val@UForceInfo@@V?$allocator@UForceInfo@@@std@@@std@@QAE@XZ ENDP ; std::_Vector_val<ForceInfo,std::allocator<ForceInfo> >::~_Vector_val<ForceInfo,std::allocator<ForceInfo> >
_TEXT	ENDS
PUBLIC	??0?$allocator@UForceInfo@@@std@@QAE@XZ		; std::allocator<ForceInfo>::allocator<ForceInfo>
; Function compile flags: /Ogsp
; File c:\program files (x86)\microsoft visual studio 10.0\vc\include\xmemory
;	COMDAT ??0?$allocator@UForceInfo@@@std@@QAE@XZ
_TEXT	SEGMENT
??0?$allocator@UForceInfo@@@std@@QAE@XZ PROC		; std::allocator<ForceInfo>::allocator<ForceInfo>, COMDAT
; _this$ = ecx

; 161  : 	_ALLOCATOR() _THROW0()

  00000	8b c1		 mov	 eax, ecx

; 162  : 		{	// construct default allocator (do nothing)
; 163  : 		}

  00002	c3		 ret	 0
??0?$allocator@UForceInfo@@@std@@QAE@XZ ENDP		; std::allocator<ForceInfo>::allocator<ForceInfo>
_TEXT	ENDS
PUBLIC	?EncryptValueToPool@?$CEncrypt@M@@AAEXPBD@Z	; CEncrypt<float>::EncryptValueToPool
EXTRN	?EncryptByte@ccddaabb@@QAEXPBDPADH@Z:PROC	; ccddaabb::EncryptByte
; Function compile flags: /Ogsp
; File d:\lost saga for developer\youtube\tutorial\source\src\lsclient\encryptvalue.h
;	COMDAT ?EncryptValueToPool@?$CEncrypt@M@@AAEXPBD@Z
_TEXT	SEGMENT
_value$ = 8						; size = 4
?EncryptValueToPool@?$CEncrypt@M@@AAEXPBD@Z PROC	; CEncrypt<float>::EncryptValueToPool, COMDAT
; _this$ = ecx

; 67   : 	{

  00000	55		 push	 ebp
  00001	8b ec		 mov	 ebp, esp

; 68   : 		m_RC5.EncryptByte( value, m_MemPool, max(m_ValueSize, DEFAULT_ENCRYPT) );

  00003	0f b7 41 06	 movzx	 eax, WORD PTR [ecx+6]
  00007	83 f8 04	 cmp	 eax, 4
  0000a	77 03		 ja	 SHORT $LN4@EncryptVal
  0000c	6a 04		 push	 4
  0000e	58		 pop	 eax
$LN4@EncryptVal:
  0000f	50		 push	 eax
  00010	8d 41 1c	 lea	 eax, DWORD PTR [ecx+28]
  00013	50		 push	 eax
  00014	ff 75 08	 push	 DWORD PTR _value$[ebp]
  00017	83 c1 0c	 add	 ecx, 12			; 0000000cH
  0001a	e8 00 00 00 00	 call	 ?EncryptByte@ccddaabb@@QAEXPBDPADH@Z ; ccddaabb::EncryptByte

; 69   : 		
; 70   : 	}

  0001f	5d		 pop	 ebp
  00020	c2 04 00	 ret	 4
?EncryptValueToPool@?$CEncrypt@M@@AAEXPBD@Z ENDP	; CEncrypt<float>::EncryptValueToPool
_TEXT	ENDS
PUBLIC	?Init@?$CEncrypt@M@@AAEXXZ			; CEncrypt<float>::Init
EXTRN	?Setup@ccddaabb@@QAEXPBDHH@Z:PROC		; ccddaabb::Setup
EXTRN	__imp__rand:PROC
EXTRN	__imp__timeGetTime@0:PROC
EXTRN	__imp__GetCurrentProcessId@0:PROC
; Function compile flags: /Ogsp
;	COMDAT ?Init@?$CEncrypt@M@@AAEXXZ
_TEXT	SEGMENT
_pid$ = -8						; size = 4
_tick$ = -4						; size = 4
?Init@?$CEncrypt@M@@AAEXXZ PROC				; CEncrypt<float>::Init, COMDAT
; _this$ = ecx

; 73   : 	{

  00000	55		 push	 ebp
  00001	8b ec		 mov	 ebp, esp
  00003	51		 push	 ecx
  00004	51		 push	 ecx
  00005	53		 push	 ebx
  00006	56		 push	 esi
  00007	57		 push	 edi
  00008	8b f1		 mov	 esi, ecx

; 74   : 		DWORD pid = GetCurrentProcessId();

  0000a	ff 15 00 00 00
	00		 call	 DWORD PTR __imp__GetCurrentProcessId@0
  00010	89 45 f8	 mov	 DWORD PTR _pid$[ebp], eax

; 75   : 		DWORD tick = timeGetTime();

  00013	ff 15 00 00 00
	00		 call	 DWORD PTR __imp__timeGetTime@0

; 76   : 		m_ValueSize    = sizeof(type);
; 77   : 		m_MemPoolPos   = (unsigned short)( rand()+pid+tick )%(MAX_MEM_POOL-m_ValueSize);

  00019	8b 3d 00 00 00
	00		 mov	 edi, DWORD PTR __imp__rand
  0001f	89 45 fc	 mov	 DWORD PTR _tick$[ebp], eax
  00022	6a 04		 push	 4
  00024	58		 pop	 eax
  00025	66 89 46 06	 mov	 WORD PTR [esi+6], ax
  00029	ff d7		 call	 edi
  0002b	03 45 f8	 add	 eax, DWORD PTR _pid$[ebp]
  0002e	0f b7 4e 06	 movzx	 ecx, WORD PTR [esi+6]
  00032	03 45 fc	 add	 eax, DWORD PTR _tick$[ebp]
  00035	6a 0c		 push	 12			; 0000000cH
  00037	0f b7 c0	 movzx	 eax, ax
  0003a	5b		 pop	 ebx
  0003b	99		 cdq
  0003c	2b d9		 sub	 ebx, ecx
  0003e	f7 fb		 idiv	 ebx
  00040	66 89 56 04	 mov	 WORD PTR [esi+4], dx

; 78   : 		m_EncryptSeed  = (char)( rand()+pid+tick )%256;

  00044	ff d7		 call	 edi
  00046	02 45 f8	 add	 al, BYTE PTR _pid$[ebp]
  00049	02 45 fc	 add	 al, BYTE PTR _tick$[ebp]
  0004c	0f be c0	 movsx	 eax, al
  0004f	25 ff 00 00 80	 and	 eax, -2147483393	; 800000ffH
  00054	79 07		 jns	 SHORT $LN8@Init
  00056	48		 dec	 eax
  00057	0d 00 ff ff ff	 or	 eax, -256		; ffffff00H
  0005c	40		 inc	 eax
$LN8@Init:
  0005d	88 46 08	 mov	 BYTE PTR [esi+8], al

; 79   : 
; 80   : 		for (int i = 0; i < MAX_MEM_POOL ; i++)

  00060	33 db		 xor	 ebx, ebx
$LL3@Init:

; 81   : 			m_MemPool[i] = (char)( rand()+pid+tick )%256; // 

  00062	ff d7		 call	 edi
  00064	02 45 f8	 add	 al, BYTE PTR _pid$[ebp]
  00067	02 45 fc	 add	 al, BYTE PTR _tick$[ebp]
  0006a	0f be c0	 movsx	 eax, al
  0006d	25 ff 00 00 80	 and	 eax, -2147483393	; 800000ffH
  00072	79 07		 jns	 SHORT $LN9@Init
  00074	48		 dec	 eax
  00075	0d 00 ff ff ff	 or	 eax, -256		; ffffff00H
  0007a	40		 inc	 eax
$LN9@Init:
  0007b	88 44 1e 1c	 mov	 BYTE PTR [esi+ebx+28], al
  0007f	43		 inc	 ebx
  00080	83 fb 0c	 cmp	 ebx, 12			; 0000000cH
  00083	7c dd		 jl	 SHORT $LL3@Init

; 82   : 
; 83   : 		//UJ 130913, : szKey  
; 84   : 		//char szKey[ccddaabb::KEY_SIZE];//="";
; 85   : 		//for (int i = 0; i < ccddaabb::KEY_SIZE  ; i++)
; 86   : 		//	szKey[i] = (char)( rand()+pid+tick )%256; // 
; 87   : 		m_RC5.Setup( NULL, pid, tick );

  00085	ff 75 fc	 push	 DWORD PTR _tick$[ebp]
  00088	8d 4e 0c	 lea	 ecx, DWORD PTR [esi+12]
  0008b	ff 75 f8	 push	 DWORD PTR _pid$[ebp]
  0008e	6a 00		 push	 0
  00090	e8 00 00 00 00	 call	 ?Setup@ccddaabb@@QAEXPBDHH@Z ; ccddaabb::Setup
  00095	5f		 pop	 edi
  00096	5e		 pop	 esi
  00097	5b		 pop	 ebx

; 88   : 
; 89   : #ifdef _NOTUSE
; 90   : 		m_value        = 0;
; 91   : 		EncryptValueToPool((char*)&m_value);
; 92   : 		Debug();
; 93   : #endif
; 94   : 	}

  00098	c9		 leave
  00099	c3		 ret	 0
?Init@?$CEncrypt@M@@AAEXXZ ENDP				; CEncrypt<float>::Init
_TEXT	ENDS
PUBLIC	?DecryptValueToPool@?$CEncrypt@M@@QAEXPAM@Z	; CEncrypt<float>::DecryptValueToPool
EXTRN	?DecryptByte@ccddaabb@@QBEXPBDPADH@Z:PROC	; ccddaabb::DecryptByte
; Function compile flags: /Ogsp
;	COMDAT ?DecryptValueToPool@?$CEncrypt@M@@QAEXPAM@Z
_TEXT	SEGMENT
_value$ = 8						; size = 4
?DecryptValueToPool@?$CEncrypt@M@@QAEXPAM@Z PROC	; CEncrypt<float>::DecryptValueToPool, COMDAT
; _this$ = ecx

; 1648 : 	{

  00000	55		 push	 ebp
  00001	8b ec		 mov	 ebp, esp
  00003	56		 push	 esi

; 1649 : 		m_RC5.DecryptByte( m_MemPool, m_TempMem, 4 );

  00004	8d 71 28	 lea	 esi, DWORD PTR [ecx+40]
  00007	6a 04		 push	 4
  00009	8d 41 1c	 lea	 eax, DWORD PTR [ecx+28]
  0000c	56		 push	 esi
  0000d	50		 push	 eax
  0000e	83 c1 0c	 add	 ecx, 12			; 0000000cH
  00011	e8 00 00 00 00	 call	 ?DecryptByte@ccddaabb@@QBEXPBDPADH@Z ; ccddaabb::DecryptByte

; 1650 : 		*value = *((float*)m_TempMem);

  00016	d9 06		 fld	 DWORD PTR [esi]
  00018	8b 45 08	 mov	 eax, DWORD PTR _value$[ebp]
  0001b	d9 18		 fstp	 DWORD PTR [eax]
  0001d	5e		 pop	 esi

; 1651 : 	}

  0001e	5d		 pop	 ebp
  0001f	c2 04 00	 ret	 4
?DecryptValueToPool@?$CEncrypt@M@@QAEXPAM@Z ENDP	; CEncrypt<float>::DecryptValueToPool
_TEXT	ENDS
PUBLIC	?EncryptValueToPool@?$CEncrypt@K@@AAEXPBD@Z	; CEncrypt<unsigned long>::EncryptValueToPool
; Function compile flags: /Ogsp
;	COMDAT ?EncryptValueToPool@?$CEncrypt@K@@AAEXPBD@Z
_TEXT	SEGMENT
_value$ = 8						; size = 4
?EncryptValueToPool@?$CEncrypt@K@@AAEXPBD@Z PROC	; CEncrypt<unsigned long>::EncryptValueToPool, COMDAT
; _this$ = ecx

; 67   : 	{

  00000	55		 push	 ebp
  00001	8b ec		 mov	 ebp, esp

; 68   : 		m_RC5.EncryptByte( value, m_MemPool, max(m_ValueSize, DEFAULT_ENCRYPT) );

  00003	0f b7 41 06	 movzx	 eax, WORD PTR [ecx+6]
  00007	83 f8 04	 cmp	 eax, 4
  0000a	77 03		 ja	 SHORT $LN4@EncryptVal@2
  0000c	6a 04		 push	 4
  0000e	58		 pop	 eax
$LN4@EncryptVal@2:
  0000f	50		 push	 eax
  00010	8d 41 1c	 lea	 eax, DWORD PTR [ecx+28]
  00013	50		 push	 eax
  00014	ff 75 08	 push	 DWORD PTR _value$[ebp]
  00017	83 c1 0c	 add	 ecx, 12			; 0000000cH
  0001a	e8 00 00 00 00	 call	 ?EncryptByte@ccddaabb@@QAEXPBDPADH@Z ; ccddaabb::EncryptByte

; 69   : 		
; 70   : 	}

  0001f	5d		 pop	 ebp
  00020	c2 04 00	 ret	 4
?EncryptValueToPool@?$CEncrypt@K@@AAEXPBD@Z ENDP	; CEncrypt<unsigned long>::EncryptValueToPool
_TEXT	ENDS
PUBLIC	?Init@?$CEncrypt@K@@AAEXXZ			; CEncrypt<unsigned long>::Init
; Function compile flags: /Ogsp
;	COMDAT ?Init@?$CEncrypt@K@@AAEXXZ
_TEXT	SEGMENT
_pid$ = -8						; size = 4
_tick$ = -4						; size = 4
?Init@?$CEncrypt@K@@AAEXXZ PROC				; CEncrypt<unsigned long>::Init, COMDAT
; _this$ = ecx

; 73   : 	{

  00000	55		 push	 ebp
  00001	8b ec		 mov	 ebp, esp
  00003	51		 push	 ecx
  00004	51		 push	 ecx
  00005	53		 push	 ebx
  00006	56		 push	 esi
  00007	57		 push	 edi
  00008	8b f1		 mov	 esi, ecx

; 74   : 		DWORD pid = GetCurrentProcessId();

  0000a	ff 15 00 00 00
	00		 call	 DWORD PTR __imp__GetCurrentProcessId@0
  00010	89 45 f8	 mov	 DWORD PTR _pid$[ebp], eax

; 75   : 		DWORD tick = timeGetTime();

  00013	ff 15 00 00 00
	00		 call	 DWORD PTR __imp__timeGetTime@0

; 76   : 		m_ValueSize    = sizeof(type);
; 77   : 		m_MemPoolPos   = (unsigned short)( rand()+pid+tick )%(MAX_MEM_POOL-m_ValueSize);

  00019	8b 3d 00 00 00
	00		 mov	 edi, DWORD PTR __imp__rand
  0001f	89 45 fc	 mov	 DWORD PTR _tick$[ebp], eax
  00022	6a 04		 push	 4
  00024	58		 pop	 eax
  00025	66 89 46 06	 mov	 WORD PTR [esi+6], ax
  00029	ff d7		 call	 edi
  0002b	03 45 f8	 add	 eax, DWORD PTR _pid$[ebp]
  0002e	0f b7 4e 06	 movzx	 ecx, WORD PTR [esi+6]
  00032	03 45 fc	 add	 eax, DWORD PTR _tick$[ebp]
  00035	6a 0c		 push	 12			; 0000000cH
  00037	0f b7 c0	 movzx	 eax, ax
  0003a	5b		 pop	 ebx
  0003b	99		 cdq
  0003c	2b d9		 sub	 ebx, ecx
  0003e	f7 fb		 idiv	 ebx
  00040	66 89 56 04	 mov	 WORD PTR [esi+4], dx

; 78   : 		m_EncryptSeed  = (char)( rand()+pid+tick )%256;

  00044	ff d7		 call	 edi
  00046	02 45 f8	 add	 al, BYTE PTR _pid$[ebp]
  00049	02 45 fc	 add	 al, BYTE PTR _tick$[ebp]
  0004c	0f be c0	 movsx	 eax, al
  0004f	25 ff 00 00 80	 and	 eax, -2147483393	; 800000ffH
  00054	79 07		 jns	 SHORT $LN8@Init@2
  00056	48		 dec	 eax
  00057	0d 00 ff ff ff	 or	 eax, -256		; ffffff00H
  0005c	40		 inc	 eax
$LN8@Init@2:
  0005d	88 46 08	 mov	 BYTE PTR [esi+8], al

; 79   : 
; 80   : 		for (int i = 0; i < MAX_MEM_POOL ; i++)

  00060	33 db		 xor	 ebx, ebx
$LL3@Init@2:

; 81   : 			m_MemPool[i] = (char)( rand()+pid+tick )%256; // 

  00062	ff d7		 call	 edi
  00064	02 45 f8	 add	 al, BYTE PTR _pid$[ebp]
  00067	02 45 fc	 add	 al, BYTE PTR _tick$[ebp]
  0006a	0f be c0	 movsx	 eax, al
  0006d	25 ff 00 00 80	 and	 eax, -2147483393	; 800000ffH
  00072	79 07		 jns	 SHORT $LN9@Init@2
  00074	48		 dec	 eax
  00075	0d 00 ff ff ff	 or	 eax, -256		; ffffff00H
  0007a	40		 inc	 eax
$LN9@Init@2:
  0007b	88 44 1e 1c	 mov	 BYTE PTR [esi+ebx+28], al
  0007f	43		 inc	 ebx
  00080	83 fb 0c	 cmp	 ebx, 12			; 0000000cH
  00083	7c dd		 jl	 SHORT $LL3@Init@2

; 82   : 
; 83   : 		//UJ 130913, : szKey  
; 84   : 		//char szKey[ccddaabb::KEY_SIZE];//="";
; 85   : 		//for (int i = 0; i < ccddaabb::KEY_SIZE  ; i++)
; 86   : 		//	szKey[i] = (char)( rand()+pid+tick )%256; // 
; 87   : 		m_RC5.Setup( NULL, pid, tick );

  00085	ff 75 fc	 push	 DWORD PTR _tick$[ebp]
  00088	8d 4e 0c	 lea	 ecx, DWORD PTR [esi+12]
  0008b	ff 75 f8	 push	 DWORD PTR _pid$[ebp]
  0008e	6a 00		 push	 0
  00090	e8 00 00 00 00	 call	 ?Setup@ccddaabb@@QAEXPBDHH@Z ; ccddaabb::Setup
  00095	5f		 pop	 edi
  00096	5e		 pop	 esi
  00097	5b		 pop	 ebx

; 88   : 
; 89   : #ifdef _NOTUSE
; 90   : 		m_value        = 0;
; 91   : 		EncryptValueToPool((char*)&m_value);
; 92   : 		Debug();
; 93   : #endif
; 94   : 	}

  00098	c9		 leave
  00099	c3		 ret	 0
?Init@?$CEncrypt@K@@AAEXXZ ENDP				; CEncrypt<unsigned long>::Init
_TEXT	ENDS
PUBLIC	?DecryptValueToPool@?$CEncrypt@K@@QAEXPAK@Z	; CEncrypt<unsigned long>::DecryptValueToPool
; Function compile flags: /Ogsp
;	COMDAT ?DecryptValueToPool@?$CEncrypt@K@@QAEXPAK@Z
_TEXT	SEGMENT
_value$ = 8						; size = 4
?DecryptValueToPool@?$CEncrypt@K@@QAEXPAK@Z PROC	; CEncrypt<unsigned long>::DecryptValueToPool, COMDAT
; _this$ = ecx

; 1256 : 	{

  00000	55		 push	 ebp
  00001	8b ec		 mov	 ebp, esp
  00003	56		 push	 esi

; 1257 : 		m_RC5.DecryptByte( m_MemPool, m_TempMem, 4 );

  00004	8d 71 28	 lea	 esi, DWORD PTR [ecx+40]
  00007	6a 04		 push	 4
  00009	8d 41 1c	 lea	 eax, DWORD PTR [ecx+28]
  0000c	56		 push	 esi
  0000d	50		 push	 eax
  0000e	83 c1 0c	 add	 ecx, 12			; 0000000cH
  00011	e8 00 00 00 00	 call	 ?DecryptByte@ccddaabb@@QBEXPBDPADH@Z ; ccddaabb::DecryptByte

; 1258 : 		*value = *((DWORD*)m_TempMem);

  00016	8b 06		 mov	 eax, DWORD PTR [esi]
  00018	8b 4d 08	 mov	 ecx, DWORD PTR _value$[ebp]
  0001b	89 01		 mov	 DWORD PTR [ecx], eax
  0001d	5e		 pop	 esi

; 1259 : 	}

  0001e	5d		 pop	 ebp
  0001f	c2 04 00	 ret	 4
?DecryptValueToPool@?$CEncrypt@K@@QAEXPAK@Z ENDP	; CEncrypt<unsigned long>::DecryptValueToPool
_TEXT	ENDS
PUBLIC	?EncryptValueToPool@?$CEncrypt@_N@@AAEXPBD@Z	; CEncrypt<bool>::EncryptValueToPool
; Function compile flags: /Ogsp
;	COMDAT ?EncryptValueToPool@?$CEncrypt@_N@@AAEXPBD@Z
_TEXT	SEGMENT
_value$ = 8						; size = 4
?EncryptValueToPool@?$CEncrypt@_N@@AAEXPBD@Z PROC	; CEncrypt<bool>::EncryptValueToPool, COMDAT
; _this$ = ecx

; 67   : 	{

  00000	55		 push	 ebp
  00001	8b ec		 mov	 ebp, esp

; 68   : 		m_RC5.EncryptByte( value, m_MemPool, max(m_ValueSize, DEFAULT_ENCRYPT) );

  00003	0f b7 41 06	 movzx	 eax, WORD PTR [ecx+6]
  00007	83 f8 04	 cmp	 eax, 4
  0000a	77 03		 ja	 SHORT $LN4@EncryptVal@3
  0000c	6a 04		 push	 4
  0000e	58		 pop	 eax
$LN4@EncryptVal@3:
  0000f	50		 push	 eax
  00010	8d 41 1c	 lea	 eax, DWORD PTR [ecx+28]
  00013	50		 push	 eax
  00014	ff 75 08	 push	 DWORD PTR _value$[ebp]
  00017	83 c1 0c	 add	 ecx, 12			; 0000000cH
  0001a	e8 00 00 00 00	 call	 ?EncryptByte@ccddaabb@@QAEXPBDPADH@Z ; ccddaabb::EncryptByte

; 69   : 		
; 70   : 	}

  0001f	5d		 pop	 ebp
  00020	c2 04 00	 ret	 4
?EncryptValueToPool@?$CEncrypt@_N@@AAEXPBD@Z ENDP	; CEncrypt<bool>::EncryptValueToPool
_TEXT	ENDS
PUBLIC	?Init@?$CEncrypt@_N@@AAEXXZ			; CEncrypt<bool>::Init
; Function compile flags: /Ogsp
;	COMDAT ?Init@?$CEncrypt@_N@@AAEXXZ
_TEXT	SEGMENT
_pid$ = -8						; size = 4
_tick$ = -4						; size = 4
?Init@?$CEncrypt@_N@@AAEXXZ PROC			; CEncrypt<bool>::Init, COMDAT
; _this$ = ecx

; 73   : 	{

  00000	55		 push	 ebp
  00001	8b ec		 mov	 ebp, esp
  00003	51		 push	 ecx
  00004	51		 push	 ecx
  00005	53		 push	 ebx
  00006	56		 push	 esi
  00007	57		 push	 edi
  00008	8b f1		 mov	 esi, ecx

; 74   : 		DWORD pid = GetCurrentProcessId();

  0000a	ff 15 00 00 00
	00		 call	 DWORD PTR __imp__GetCurrentProcessId@0
  00010	89 45 f8	 mov	 DWORD PTR _pid$[ebp], eax

; 75   : 		DWORD tick = timeGetTime();

  00013	ff 15 00 00 00
	00		 call	 DWORD PTR __imp__timeGetTime@0

; 76   : 		m_ValueSize    = sizeof(type);
; 77   : 		m_MemPoolPos   = (unsigned short)( rand()+pid+tick )%(MAX_MEM_POOL-m_ValueSize);

  00019	8b 3d 00 00 00
	00		 mov	 edi, DWORD PTR __imp__rand
  0001f	89 45 fc	 mov	 DWORD PTR _tick$[ebp], eax
  00022	33 c0		 xor	 eax, eax
  00024	40		 inc	 eax
  00025	66 89 46 06	 mov	 WORD PTR [esi+6], ax
  00029	ff d7		 call	 edi
  0002b	03 45 f8	 add	 eax, DWORD PTR _pid$[ebp]
  0002e	0f b7 4e 06	 movzx	 ecx, WORD PTR [esi+6]
  00032	03 45 fc	 add	 eax, DWORD PTR _tick$[ebp]
  00035	6a 0c		 push	 12			; 0000000cH
  00037	0f b7 c0	 movzx	 eax, ax
  0003a	5b		 pop	 ebx
  0003b	99		 cdq
  0003c	2b d9		 sub	 ebx, ecx
  0003e	f7 fb		 idiv	 ebx
  00040	66 89 56 04	 mov	 WORD PTR [esi+4], dx

; 78   : 		m_EncryptSeed  = (char)( rand()+pid+tick )%256;

  00044	ff d7		 call	 edi
  00046	02 45 f8	 add	 al, BYTE PTR _pid$[ebp]
  00049	02 45 fc	 add	 al, BYTE PTR _tick$[ebp]
  0004c	0f be c0	 movsx	 eax, al
  0004f	25 ff 00 00 80	 and	 eax, -2147483393	; 800000ffH
  00054	79 07		 jns	 SHORT $LN8@Init@3
  00056	48		 dec	 eax
  00057	0d 00 ff ff ff	 or	 eax, -256		; ffffff00H
  0005c	40		 inc	 eax
$LN8@Init@3:
  0005d	88 46 08	 mov	 BYTE PTR [esi+8], al

; 79   : 
; 80   : 		for (int i = 0; i < MAX_MEM_POOL ; i++)

  00060	33 db		 xor	 ebx, ebx
$LL3@Init@3:

; 81   : 			m_MemPool[i] = (char)( rand()+pid+tick )%256; // 

  00062	ff d7		 call	 edi
  00064	02 45 f8	 add	 al, BYTE PTR _pid$[ebp]
  00067	02 45 fc	 add	 al, BYTE PTR _tick$[ebp]
  0006a	0f be c0	 movsx	 eax, al
  0006d	25 ff 00 00 80	 and	 eax, -2147483393	; 800000ffH
  00072	79 07		 jns	 SHORT $LN9@Init@3
  00074	48		 dec	 eax
  00075	0d 00 ff ff ff	 or	 eax, -256		; ffffff00H
  0007a	40		 inc	 eax
$LN9@Init@3:
  0007b	88 44 1e 1c	 mov	 BYTE PTR [esi+ebx+28], al
  0007f	43		 inc	 ebx
  00080	83 fb 0c	 cmp	 ebx, 12			; 0000000cH
  00083	7c dd		 jl	 SHORT $LL3@Init@3

; 82   : 
; 83   : 		//UJ 130913, : szKey  
; 84   : 		//char szKey[ccddaabb::KEY_SIZE];//="";
; 85   : 		//for (int i = 0; i < ccddaabb::KEY_SIZE  ; i++)
; 86   : 		//	szKey[i] = (char)( rand()+pid+tick )%256; // 
; 87   : 		m_RC5.Setup( NULL, pid, tick );

  00085	ff 75 fc	 push	 DWORD PTR _tick$[ebp]
  00088	8d 4e 0c	 lea	 ecx, DWORD PTR [esi+12]
  0008b	ff 75 f8	 push	 DWORD PTR _pid$[ebp]
  0008e	6a 00		 push	 0
  00090	e8 00 00 00 00	 call	 ?Setup@ccddaabb@@QAEXPBDHH@Z ; ccddaabb::Setup
  00095	5f		 pop	 edi
  00096	5e		 pop	 esi
  00097	5b		 pop	 ebx

; 88   : 
; 89   : #ifdef _NOTUSE
; 90   : 		m_value        = 0;
; 91   : 		EncryptValueToPool((char*)&m_value);
; 92   : 		Debug();
; 93   : #endif
; 94   : 	}

  00098	c9		 leave
  00099	c3		 ret	 0
?Init@?$CEncrypt@_N@@AAEXXZ ENDP			; CEncrypt<bool>::Init
_TEXT	ENDS
PUBLIC	?DecryptValueToPool@?$CEncrypt@_N@@QAEXPA_N@Z	; CEncrypt<bool>::DecryptValueToPool
; Function compile flags: /Ogsp
;	COMDAT ?DecryptValueToPool@?$CEncrypt@_N@@QAEXPA_N@Z
_TEXT	SEGMENT
_value$ = 8						; size = 4
?DecryptValueToPool@?$CEncrypt@_N@@QAEXPA_N@Z PROC	; CEncrypt<bool>::DecryptValueToPool, COMDAT
; _this$ = ecx

; 219  : 	{

  00000	55		 push	 ebp
  00001	8b ec		 mov	 ebp, esp
  00003	56		 push	 esi

; 220  : 		m_RC5.DecryptByte( m_MemPool, m_TempMem, 4 );

  00004	8d 71 28	 lea	 esi, DWORD PTR [ecx+40]
  00007	6a 04		 push	 4
  00009	8d 41 1c	 lea	 eax, DWORD PTR [ecx+28]
  0000c	56		 push	 esi
  0000d	50		 push	 eax
  0000e	83 c1 0c	 add	 ecx, 12			; 0000000cH
  00011	e8 00 00 00 00	 call	 ?DecryptByte@ccddaabb@@QBEXPBDPADH@Z ; ccddaabb::DecryptByte

; 221  : 		*value = *((bool*)m_TempMem);

  00016	8a 06		 mov	 al, BYTE PTR [esi]
  00018	8b 4d 08	 mov	 ecx, DWORD PTR _value$[ebp]
  0001b	88 01		 mov	 BYTE PTR [ecx], al
  0001d	5e		 pop	 esi

; 222  : 	}

  0001e	5d		 pop	 ebp
  0001f	c2 04 00	 ret	 4
?DecryptValueToPool@?$CEncrypt@_N@@QAEXPA_N@Z ENDP	; CEncrypt<bool>::DecryptValueToPool
_TEXT	ENDS
PUBLIC	?EncryptValueToPool@?$CEncrypt@H@@AAEXPBD@Z	; CEncrypt<int>::EncryptValueToPool
; Function compile flags: /Ogsp
;	COMDAT ?EncryptValueToPool@?$CEncrypt@H@@AAEXPBD@Z
_TEXT	SEGMENT
_value$ = 8						; size = 4
?EncryptValueToPool@?$CEncrypt@H@@AAEXPBD@Z PROC	; CEncrypt<int>::EncryptValueToPool, COMDAT
; _this$ = ecx

; 67   : 	{

  00000	55		 push	 ebp
  00001	8b ec		 mov	 ebp, esp

; 68   : 		m_RC5.EncryptByte( value, m_MemPool, max(m_ValueSize, DEFAULT_ENCRYPT) );

  00003	0f b7 41 06	 movzx	 eax, WORD PTR [ecx+6]
  00007	83 f8 04	 cmp	 eax, 4
  0000a	77 03		 ja	 SHORT $LN4@EncryptVal@4
  0000c	6a 04		 push	 4
  0000e	58		 pop	 eax
$LN4@EncryptVal@4:
  0000f	50		 push	 eax
  00010	8d 41 1c	 lea	 eax, DWORD PTR [ecx+28]
  00013	50		 push	 eax
  00014	ff 75 08	 push	 DWORD PTR _value$[ebp]
  00017	83 c1 0c	 add	 ecx, 12			; 0000000cH
  0001a	e8 00 00 00 00	 call	 ?EncryptByte@ccddaabb@@QAEXPBDPADH@Z ; ccddaabb::EncryptByte

; 69   : 		
; 70   : 	}

  0001f	5d		 pop	 ebp
  00020	c2 04 00	 ret	 4
?EncryptValueToPool@?$CEncrypt@H@@AAEXPBD@Z ENDP	; CEncrypt<int>::EncryptValueToPool
_TEXT	ENDS
PUBLIC	?Init@?$CEncrypt@H@@AAEXXZ			; CEncrypt<int>::Init
; Function compile flags: /Ogsp
;	COMDAT ?Init@?$CEncrypt@H@@AAEXXZ
_TEXT	SEGMENT
_pid$ = -8						; size = 4
_tick$ = -4						; size = 4
?Init@?$CEncrypt@H@@AAEXXZ PROC				; CEncrypt<int>::Init, COMDAT
; _this$ = ecx

; 73   : 	{

  00000	55		 push	 ebp
  00001	8b ec		 mov	 ebp, esp
  00003	51		 push	 ecx
  00004	51		 push	 ecx
  00005	53		 push	 ebx
  00006	56		 push	 esi
  00007	57		 push	 edi
  00008	8b f1		 mov	 esi, ecx

; 74   : 		DWORD pid = GetCurrentProcessId();

  0000a	ff 15 00 00 00
	00		 call	 DWORD PTR __imp__GetCurrentProcessId@0
  00010	89 45 f8	 mov	 DWORD PTR _pid$[ebp], eax

; 75   : 		DWORD tick = timeGetTime();

  00013	ff 15 00 00 00
	00		 call	 DWORD PTR __imp__timeGetTime@0

; 76   : 		m_ValueSize    = sizeof(type);
; 77   : 		m_MemPoolPos   = (unsigned short)( rand()+pid+tick )%(MAX_MEM_POOL-m_ValueSize);

  00019	8b 3d 00 00 00
	00		 mov	 edi, DWORD PTR __imp__rand
  0001f	89 45 fc	 mov	 DWORD PTR _tick$[ebp], eax
  00022	6a 04		 push	 4
  00024	58		 pop	 eax
  00025	66 89 46 06	 mov	 WORD PTR [esi+6], ax
  00029	ff d7		 call	 edi
  0002b	03 45 f8	 add	 eax, DWORD PTR _pid$[ebp]
  0002e	0f b7 4e 06	 movzx	 ecx, WORD PTR [esi+6]
  00032	03 45 fc	 add	 eax, DWORD PTR _tick$[ebp]
  00035	6a 0c		 push	 12			; 0000000cH
  00037	0f b7 c0	 movzx	 eax, ax
  0003a	5b		 pop	 ebx
  0003b	99		 cdq
  0003c	2b d9		 sub	 ebx, ecx
  0003e	f7 fb		 idiv	 ebx
  00040	66 89 56 04	 mov	 WORD PTR [esi+4], dx

; 78   : 		m_EncryptSeed  = (char)( rand()+pid+tick )%256;

  00044	ff d7		 call	 edi
  00046	02 45 f8	 add	 al, BYTE PTR _pid$[ebp]
  00049	02 45 fc	 add	 al, BYTE PTR _tick$[ebp]
  0004c	0f be c0	 movsx	 eax, al
  0004f	25 ff 00 00 80	 and	 eax, -2147483393	; 800000ffH
  00054	79 07		 jns	 SHORT $LN8@Init@4
  00056	48		 dec	 eax
  00057	0d 00 ff ff ff	 or	 eax, -256		; ffffff00H
  0005c	40		 inc	 eax
$LN8@Init@4:
  0005d	88 46 08	 mov	 BYTE PTR [esi+8], al

; 79   : 
; 80   : 		for (int i = 0; i < MAX_MEM_POOL ; i++)

  00060	33 db		 xor	 ebx, ebx
$LL3@Init@4:

; 81   : 			m_MemPool[i] = (char)( rand()+pid+tick )%256; // 

  00062	ff d7		 call	 edi
  00064	02 45 f8	 add	 al, BYTE PTR _pid$[ebp]
  00067	02 45 fc	 add	 al, BYTE PTR _tick$[ebp]
  0006a	0f be c0	 movsx	 eax, al
  0006d	25 ff 00 00 80	 and	 eax, -2147483393	; 800000ffH
  00072	79 07		 jns	 SHORT $LN9@Init@4
  00074	48		 dec	 eax
  00075	0d 00 ff ff ff	 or	 eax, -256		; ffffff00H
  0007a	40		 inc	 eax
$LN9@Init@4:
  0007b	88 44 1e 1c	 mov	 BYTE PTR [esi+ebx+28], al
  0007f	43		 inc	 ebx
  00080	83 fb 0c	 cmp	 ebx, 12			; 0000000cH
  00083	7c dd		 jl	 SHORT $LL3@Init@4

; 82   : 
; 83   : 		//UJ 130913, : szKey  
; 84   : 		//char szKey[ccddaabb::KEY_SIZE];//="";
; 85   : 		//for (int i = 0; i < ccddaabb::KEY_SIZE  ; i++)
; 86   : 		//	szKey[i] = (char)( rand()+pid+tick )%256; // 
; 87   : 		m_RC5.Setup( NULL, pid, tick );

  00085	ff 75 fc	 push	 DWORD PTR _tick$[ebp]
  00088	8d 4e 0c	 lea	 ecx, DWORD PTR [esi+12]
  0008b	ff 75 f8	 push	 DWORD PTR _pid$[ebp]
  0008e	6a 00		 push	 0
  00090	e8 00 00 00 00	 call	 ?Setup@ccddaabb@@QAEXPBDHH@Z ; ccddaabb::Setup
  00095	5f		 pop	 edi
  00096	5e		 pop	 esi
  00097	5b		 pop	 ebx

; 88   : 
; 89   : #ifdef _NOTUSE
; 90   : 		m_value        = 0;
; 91   : 		EncryptValueToPool((char*)&m_value);
; 92   : 		Debug();
; 93   : #endif
; 94   : 	}

  00098	c9		 leave
  00099	c3		 ret	 0
?Init@?$CEncrypt@H@@AAEXXZ ENDP				; CEncrypt<int>::Init
_TEXT	ENDS
PUBLIC	?DecryptValueToPool@?$CEncrypt@H@@QAEXPAH@Z	; CEncrypt<int>::DecryptValueToPool
; Function compile flags: /Ogsp
;	COMDAT ?DecryptValueToPool@?$CEncrypt@H@@QAEXPAH@Z
_TEXT	SEGMENT
_value$ = 8						; size = 4
?DecryptValueToPool@?$CEncrypt@H@@QAEXPAH@Z PROC	; CEncrypt<int>::DecryptValueToPool, COMDAT
; _this$ = ecx

; 837  : 	{

  00000	55		 push	 ebp
  00001	8b ec		 mov	 ebp, esp
  00003	56		 push	 esi

; 838  : 		m_RC5.DecryptByte( m_MemPool, m_TempMem, 4 );

  00004	8d 71 28	 lea	 esi, DWORD PTR [ecx+40]
  00007	6a 04		 push	 4
  00009	8d 41 1c	 lea	 eax, DWORD PTR [ecx+28]
  0000c	56		 push	 esi
  0000d	50		 push	 eax
  0000e	83 c1 0c	 add	 ecx, 12			; 0000000cH
  00011	e8 00 00 00 00	 call	 ?DecryptByte@ccddaabb@@QBEXPBDPADH@Z ; ccddaabb::DecryptByte

; 839  : 		*value = *((int*)m_TempMem);

  00016	8b 06		 mov	 eax, DWORD PTR [esi]
  00018	8b 4d 08	 mov	 ecx, DWORD PTR _value$[ebp]
  0001b	89 01		 mov	 DWORD PTR [ecx], eax
  0001d	5e		 pop	 esi

; 840  : 	}

  0001e	5d		 pop	 ebp
  0001f	c2 04 00	 ret	 4
?DecryptValueToPool@?$CEncrypt@H@@QAEXPAH@Z ENDP	; CEncrypt<int>::DecryptValueToPool
_TEXT	ENDS
PUBLIC	??0?$allocator@UWeaponInfo@@@std@@QAE@ABV01@@Z	; std::allocator<WeaponInfo>::allocator<WeaponInfo>
; Function compile flags: /Ogsp
; File c:\program files (x86)\microsoft visual studio 10.0\vc\include\xmemory
;	COMDAT ??0?$allocator@UWeaponInfo@@@std@@QAE@ABV01@@Z
_TEXT	SEGMENT
___formal$ = 8						; size = 4
??0?$allocator@UWeaponInfo@@@std@@QAE@ABV01@@Z PROC	; std::allocator<WeaponInfo>::allocator<WeaponInfo>, COMDAT
; _this$ = ecx

; 165  : 	_ALLOCATOR(const _ALLOCATOR<_Ty>&) _THROW0()

  00000	8b c1		 mov	 eax, ecx

; 166  : 		{	// construct by copying (do nothing)
; 167  : 		}

  00002	c2 04 00	 ret	 4
??0?$allocator@UWeaponInfo@@@std@@QAE@ABV01@@Z ENDP	; std::allocator<WeaponInfo>::allocator<WeaponInfo>
_TEXT	ENDS
PUBLIC	?deallocate@?$allocator@UWeaponInfo@@@std@@QAEXPAUWeaponInfo@@I@Z ; std::allocator<WeaponInfo>::deallocate
; Function compile flags: /Ogsp
;	COMDAT ?deallocate@?$allocator@UWeaponInfo@@@std@@QAEXPAUWeaponInfo@@I@Z
_TEXT	SEGMENT
__Ptr$ = 8						; size = 4
___formal$ = 12						; size = 4
?deallocate@?$allocator@UWeaponInfo@@@std@@QAEXPAUWeaponInfo@@I@Z PROC ; std::allocator<WeaponInfo>::deallocate, COMDAT
; _this$ = ecx

; 181  : 		{	// deallocate object at _Ptr, ignore size

  00000	55		 push	 ebp
  00001	8b ec		 mov	 ebp, esp

; 182  : 		::operator delete(_Ptr);

  00003	ff 75 08	 push	 DWORD PTR __Ptr$[ebp]
  00006	e8 00 00 00 00	 call	 ??3@YAXPAX@Z		; operator delete
  0000b	59		 pop	 ecx

; 183  : 		}

  0000c	5d		 pop	 ebp
  0000d	c2 08 00	 ret	 8
?deallocate@?$allocator@UWeaponInfo@@@std@@QAEXPAUWeaponInfo@@I@Z ENDP ; std::allocator<WeaponInfo>::deallocate
_TEXT	ENDS
PUBLIC	??0?$allocator@UForceInfo@@@std@@QAE@ABV01@@Z	; std::allocator<ForceInfo>::allocator<ForceInfo>
; Function compile flags: /Ogsp
;	COMDAT ??0?$allocator@UForceInfo@@@std@@QAE@ABV01@@Z
_TEXT	SEGMENT
___formal$ = 8						; size = 4
??0?$allocator@UForceInfo@@@std@@QAE@ABV01@@Z PROC	; std::allocator<ForceInfo>::allocator<ForceInfo>, COMDAT
; _this$ = ecx

; 165  : 	_ALLOCATOR(const _ALLOCATOR<_Ty>&) _THROW0()

  00000	8b c1		 mov	 eax, ecx

; 166  : 		{	// construct by copying (do nothing)
; 167  : 		}

  00002	c2 04 00	 ret	 4
??0?$allocator@UForceInfo@@@std@@QAE@ABV01@@Z ENDP	; std::allocator<ForceInfo>::allocator<ForceInfo>
_TEXT	ENDS
PUBLIC	?deallocate@?$allocator@UForceInfo@@@std@@QAEXPAUForceInfo@@I@Z ; std::allocator<ForceInfo>::deallocate
; Function compile flags: /Ogsp
;	COMDAT ?deallocate@?$allocator@UForceInfo@@@std@@QAEXPAUForceInfo@@I@Z
_TEXT	SEGMENT
__Ptr$ = 8						; size = 4
___formal$ = 12						; size = 4
?deallocate@?$allocator@UForceInfo@@@std@@QAEXPAUForceInfo@@I@Z PROC ; std::allocator<ForceInfo>::deallocate, COMDAT
; _this$ = ecx

; 181  : 		{	// deallocate object at _Ptr, ignore size

  00000	55		 push	 ebp
  00001	8b ec		 mov	 ebp, esp

; 182  : 		::operator delete(_Ptr);

  00003	ff 75 08	 push	 DWORD PTR __Ptr$[ebp]
  00006	e8 00 00 00 00	 call	 ??3@YAXPAX@Z		; operator delete
  0000b	59		 pop	 ecx

; 183  : 		}

  0000c	5d		 pop	 ebp
  0000d	c2 08 00	 ret	 8
?deallocate@?$allocator@UForceInfo@@@std@@QAEXPAUForceInfo@@I@Z ENDP ; std::allocator<ForceInfo>::deallocate
_TEXT	ENDS
PUBLIC	??$_Ptr_cat@UWeaponInfo@@U1@@std@@YA?AU_Nonscalar_ptr_iterator_tag@0@PAUWeaponInfo@@0@Z ; std::_Ptr_cat<WeaponInfo,WeaponInfo>
; Function compile flags: /Ogsp
; File c:\program files (x86)\microsoft visual studio 10.0\vc\include\xutility
;	COMDAT ??$_Ptr_cat@UWeaponInfo@@U1@@std@@YA?AU_Nonscalar_ptr_iterator_tag@0@PAUWeaponInfo@@0@Z
_TEXT	SEGMENT
__Cat$ = -1						; size = 1
___formal$ = 8						; size = 4
___formal$ = 12						; size = 4
??$_Ptr_cat@UWeaponInfo@@U1@@std@@YA?AU_Nonscalar_ptr_iterator_tag@0@PAUWeaponInfo@@0@Z PROC ; std::_Ptr_cat<WeaponInfo,WeaponInfo>, COMDAT

; 516  : 	{	// return pointer category from pointers

  00000	55		 push	 ebp
  00001	8b ec		 mov	 ebp, esp
  00003	51		 push	 ecx

; 517  : 	typename _Ptr_cat_helper<_Elem1, _Elem2>::_Type _Cat;
; 518  : 	return (_Cat);

  00004	8a 45 ff	 mov	 al, BYTE PTR __Cat$[ebp]

; 519  : 	}

  00007	c9		 leave
  00008	c3		 ret	 0
??$_Ptr_cat@UWeaponInfo@@U1@@std@@YA?AU_Nonscalar_ptr_iterator_tag@0@PAUWeaponInfo@@0@Z ENDP ; std::_Ptr_cat<WeaponInfo,WeaponInfo>
_TEXT	ENDS
PUBLIC	??$_Ptr_cat@UForceInfo@@U1@@std@@YA?AU_Nonscalar_ptr_iterator_tag@0@PAUForceInfo@@0@Z ; std::_Ptr_cat<ForceInfo,ForceInfo>
; Function compile flags: /Ogsp
;	COMDAT ??$_Ptr_cat@UForceInfo@@U1@@std@@YA?AU_Nonscalar_ptr_iterator_tag@0@PAUForceInfo@@0@Z
_TEXT	SEGMENT
__Cat$ = -1						; size = 1
___formal$ = 8						; size = 4
___formal$ = 12						; size = 4
??$_Ptr_cat@UForceInfo@@U1@@std@@YA?AU_Nonscalar_ptr_iterator_tag@0@PAUForceInfo@@0@Z PROC ; std::_Ptr_cat<ForceInfo,ForceInfo>, COMDAT

; 516  : 	{	// return pointer category from pointers

  00000	55		 push	 ebp
  00001	8b ec		 mov	 ebp, esp
  00003	51		 push	 ecx

; 517  : 	typename _Ptr_cat_helper<_Elem1, _Elem2>::_Type _Cat;
; 518  : 	return (_Cat);

  00004	8a 45 ff	 mov	 al, BYTE PTR __Cat$[ebp]

; 519  : 	}

  00007	c9		 leave
  00008	c3		 ret	 0
??$_Ptr_cat@UForceInfo@@U1@@std@@YA?AU_Nonscalar_ptr_iterator_tag@0@PAUForceInfo@@0@Z ENDP ; std::_Ptr_cat<ForceInfo,ForceInfo>
_TEXT	ENDS
PUBLIC	?size@?$vector@UWeaponInfo@@V?$allocator@UWeaponInfo@@@std@@@std@@QBEIXZ ; std::vector<WeaponInfo,std::allocator<WeaponInfo> >::size
; Function compile flags: /Ogsp
; File c:\program files (x86)\microsoft visual studio 10.0\vc\include\vector
;	COMDAT ?size@?$vector@UWeaponInfo@@V?$allocator@UWeaponInfo@@@std@@@std@@QBEIXZ
_TEXT	SEGMENT
?size@?$vector@UWeaponInfo@@V?$allocator@UWeaponInfo@@@std@@@std@@QBEIXZ PROC ; std::vector<WeaponInfo,std::allocator<WeaponInfo> >::size, COMDAT
; _this$ = ecx

; 879  : 		return (this->_Mylast - this->_Myfirst);

  00000	8b 41 04	 mov	 eax, DWORD PTR [ecx+4]
  00003	2b 01		 sub	 eax, DWORD PTR [ecx]
  00005	6a 28		 push	 40			; 00000028H
  00007	99		 cdq
  00008	59		 pop	 ecx
  00009	f7 f9		 idiv	 ecx

; 880  : 		}

  0000b	c3		 ret	 0
?size@?$vector@UWeaponInfo@@V?$allocator@UWeaponInfo@@@std@@@std@@QBEIXZ ENDP ; std::vector<WeaponInfo,std::allocator<WeaponInfo> >::size
_TEXT	ENDS
PUBLIC	?size@?$vector@UForceInfo@@V?$allocator@UForceInfo@@@std@@@std@@QBEIXZ ; std::vector<ForceInfo,std::allocator<ForceInfo> >::size
; Function compile flags: /Ogsp
;	COMDAT ?size@?$vector@UForceInfo@@V?$allocator@UForceInfo@@@std@@@std@@QBEIXZ
_TEXT	SEGMENT
?size@?$vector@UForceInfo@@V?$allocator@UForceInfo@@@std@@@std@@QBEIXZ PROC ; std::vector<ForceInfo,std::allocator<ForceInfo> >::size, COMDAT
; _this$ = ecx

; 879  : 		return (this->_Mylast - this->_Myfirst);

  00000	8b 41 04	 mov	 eax, DWORD PTR [ecx+4]
  00003	2b 01		 sub	 eax, DWORD PTR [ecx]
  00005	6a 0c		 push	 12			; 0000000cH
  00007	99		 cdq
  00008	59		 pop	 ecx
  00009	f7 f9		 idiv	 ecx

; 880  : 		}

  0000b	c3		 ret	 0
?size@?$vector@UForceInfo@@V?$allocator@UForceInfo@@@std@@@std@@QBEIXZ ENDP ; std::vector<ForceInfo,std::allocator<ForceInfo> >::size
_TEXT	ENDS
PUBLIC	??_C@_0BD@OLBABOEK@vector?$DMT?$DO?5too?5long?$AA@ ; `string'
PUBLIC	?_Xlen@?$vector@UWeaponInfo@@V?$allocator@UWeaponInfo@@@std@@@std@@IBEXXZ ; std::vector<WeaponInfo,std::allocator<WeaponInfo> >::_Xlen
EXTRN	__imp_?_Xlength_error@std@@YAXPBD@Z:PROC
;	COMDAT ??_C@_0BD@OLBABOEK@vector?$DMT?$DO?5too?5long?$AA@
CONST	SEGMENT
??_C@_0BD@OLBABOEK@vector?$DMT?$DO?5too?5long?$AA@ DB 'vector<T> too long'
	DB	00H						; `string'
; Function compile flags: /Ogsp
CONST	ENDS
;	COMDAT ?_Xlen@?$vector@UWeaponInfo@@V?$allocator@UWeaponInfo@@@std@@@std@@IBEXXZ
_TEXT	SEGMENT
?_Xlen@?$vector@UWeaponInfo@@V?$allocator@UWeaponInfo@@@std@@@std@@IBEXXZ PROC ; std::vector<WeaponInfo,std::allocator<WeaponInfo> >::_Xlen, COMDAT
; _this$ = ecx

; 1427 : 		_Xlength_error("vector<T> too long");

  00000	68 00 00 00 00	 push	 OFFSET ??_C@_0BD@OLBABOEK@vector?$DMT?$DO?5too?5long?$AA@
  00005	ff 15 00 00 00
	00		 call	 DWORD PTR __imp_?_Xlength_error@std@@YAXPBD@Z
$LN4@Xlen:
$LN3@Xlen:
  0000b	cc		 int	 3
?_Xlen@?$vector@UWeaponInfo@@V?$allocator@UWeaponInfo@@@std@@@std@@IBEXXZ ENDP ; std::vector<WeaponInfo,std::allocator<WeaponInfo> >::_Xlen
_TEXT	ENDS
PUBLIC	?_Xlen@?$vector@UForceInfo@@V?$allocator@UForceInfo@@@std@@@std@@IBEXXZ ; std::vector<ForceInfo,std::allocator<ForceInfo> >::_Xlen
; Function compile flags: /Ogsp
;	COMDAT ?_Xlen@?$vector@UForceInfo@@V?$allocator@UForceInfo@@@std@@@std@@IBEXXZ
_TEXT	SEGMENT
?_Xlen@?$vector@UForceInfo@@V?$allocator@UForceInfo@@@std@@@std@@IBEXXZ PROC ; std::vector<ForceInfo,std::allocator<ForceInfo> >::_Xlen, COMDAT
; _this$ = ecx

; 1427 : 		_Xlength_error("vector<T> too long");

  00000	68 00 00 00 00	 push	 OFFSET ??_C@_0BD@OLBABOEK@vector?$DMT?$DO?5too?5long?$AA@
  00005	ff 15 00 00 00
	00		 call	 DWORD PTR __imp_?_Xlength_error@std@@YAXPBD@Z
$LN4@Xlen@2:
$LN3@Xlen@2:
  0000b	cc		 int	 3
?_Xlen@?$vector@UForceInfo@@V?$allocator@UForceInfo@@@std@@@std@@IBEXXZ ENDP ; std::vector<ForceInfo,std::allocator<ForceInfo> >::_Xlen
_TEXT	ENDS
PUBLIC	?max_size@?$allocator@UWeaponInfo@@@std@@QBEIXZ	; std::allocator<WeaponInfo>::max_size
; Function compile flags: /Ogsp
; File c:\program files (x86)\microsoft visual studio 10.0\vc\include\xmemory
;	COMDAT ?max_size@?$allocator@UWeaponInfo@@@std@@QBEIXZ
_TEXT	SEGMENT
?max_size@?$allocator@UWeaponInfo@@@std@@QBEIXZ PROC	; std::allocator<WeaponInfo>::max_size, COMDAT
; _this$ = ecx

; 218  : 		_SIZT _Count = (_SIZT)(-1) / sizeof (_Ty);
; 219  : 		return (0 < _Count ? _Count : 1);

  00000	b8 66 66 66 06	 mov	 eax, 107374182		; 06666666H

; 220  : 		}

  00005	c3		 ret	 0
?max_size@?$allocator@UWeaponInfo@@@std@@QBEIXZ ENDP	; std::allocator<WeaponInfo>::max_size
_TEXT	ENDS
PUBLIC	?max_size@?$allocator@UForceInfo@@@std@@QBEIXZ	; std::allocator<ForceInfo>::max_size
; Function compile flags: /Ogsp
;	COMDAT ?max_size@?$allocator@UForceInfo@@@std@@QBEIXZ
_TEXT	SEGMENT
?max_size@?$allocator@UForceInfo@@@std@@QBEIXZ PROC	; std::allocator<ForceInfo>::max_size, COMDAT
; _this$ = ecx

; 218  : 		_SIZT _Count = (_SIZT)(-1) / sizeof (_Ty);
; 219  : 		return (0 < _Count ? _Count : 1);

  00000	b8 55 55 55 15	 mov	 eax, 357913941		; 15555555H

; 220  : 		}

  00005	c3		 ret	 0
?max_size@?$allocator@UForceInfo@@@std@@QBEIXZ ENDP	; std::allocator<ForceInfo>::max_size
_TEXT	ENDS
PUBLIC	??0?$_Vector_const_iterator@V?$_Vector_val@UWeaponInfo@@V?$allocator@UWeaponInfo@@@std@@@std@@@std@@QAE@PAUWeaponInfo@@PBU_Container_base0@1@@Z ; std::_Vector_const_iterator<std::_Vector_val<WeaponInfo,std::allocator<WeaponInfo> > >::_Vector_const_iterator<std::_Vector_val<WeaponInfo,std::allocator<WeaponInfo> > >
; Function compile flags: /Ogsp
; File c:\program files (x86)\microsoft visual studio 10.0\vc\include\vector
;	COMDAT ??0?$_Vector_const_iterator@V?$_Vector_val@UWeaponInfo@@V?$allocator@UWeaponInfo@@@std@@@std@@@std@@QAE@PAUWeaponInfo@@PBU_Container_base0@1@@Z
_TEXT	SEGMENT
__Parg$ = 8						; size = 4
__Pvector$ = 12						; size = 4
??0?$_Vector_const_iterator@V?$_Vector_val@UWeaponInfo@@V?$allocator@UWeaponInfo@@@std@@@std@@@std@@QAE@PAUWeaponInfo@@PBU_Container_base0@1@@Z PROC ; std::_Vector_const_iterator<std::_Vector_val<WeaponInfo,std::allocator<WeaponInfo> > >::_Vector_const_iterator<std::_Vector_val<WeaponInfo,std::allocator<WeaponInfo> > >, COMDAT
; _this$ = ecx

; 45   : 		{	// construct with pointer _Parg

  00000	55		 push	 ebp
  00001	8b ec		 mov	 ebp, esp
  00003	8b c1		 mov	 eax, ecx
  00005	8b 4d 08	 mov	 ecx, DWORD PTR __Parg$[ebp]
  00008	89 08		 mov	 DWORD PTR [eax], ecx

; 46   : 		this->_Adopt(_Pvector);
; 47   : 		}

  0000a	5d		 pop	 ebp
  0000b	c2 08 00	 ret	 8
??0?$_Vector_const_iterator@V?$_Vector_val@UWeaponInfo@@V?$allocator@UWeaponInfo@@@std@@@std@@@std@@QAE@PAUWeaponInfo@@PBU_Container_base0@1@@Z ENDP ; std::_Vector_const_iterator<std::_Vector_val<WeaponInfo,std::allocator<WeaponInfo> > >::_Vector_const_iterator<std::_Vector_val<WeaponInfo,std::allocator<WeaponInfo> > >
_TEXT	ENDS
PUBLIC	??0?$_Vector_const_iterator@V?$_Vector_val@UForceInfo@@V?$allocator@UForceInfo@@@std@@@std@@@std@@QAE@PAUForceInfo@@PBU_Container_base0@1@@Z ; std::_Vector_const_iterator<std::_Vector_val<ForceInfo,std::allocator<ForceInfo> > >::_Vector_const_iterator<std::_Vector_val<ForceInfo,std::allocator<ForceInfo> > >
; Function compile flags: /Ogsp
;	COMDAT ??0?$_Vector_const_iterator@V?$_Vector_val@UForceInfo@@V?$allocator@UForceInfo@@@std@@@std@@@std@@QAE@PAUForceInfo@@PBU_Container_base0@1@@Z
_TEXT	SEGMENT
__Parg$ = 8						; size = 4
__Pvector$ = 12						; size = 4
??0?$_Vector_const_iterator@V?$_Vector_val@UForceInfo@@V?$allocator@UForceInfo@@@std@@@std@@@std@@QAE@PAUForceInfo@@PBU_Container_base0@1@@Z PROC ; std::_Vector_const_iterator<std::_Vector_val<ForceInfo,std::allocator<ForceInfo> > >::_Vector_const_iterator<std::_Vector_val<ForceInfo,std::allocator<ForceInfo> > >, COMDAT
; _this$ = ecx

; 45   : 		{	// construct with pointer _Parg

  00000	55		 push	 ebp
  00001	8b ec		 mov	 ebp, esp
  00003	8b c1		 mov	 eax, ecx
  00005	8b 4d 08	 mov	 ecx, DWORD PTR __Parg$[ebp]
  00008	89 08		 mov	 DWORD PTR [eax], ecx

; 46   : 		this->_Adopt(_Pvector);
; 47   : 		}

  0000a	5d		 pop	 ebp
  0000b	c2 08 00	 ret	 8
??0?$_Vector_const_iterator@V?$_Vector_val@UForceInfo@@V?$allocator@UForceInfo@@@std@@@std@@@std@@QAE@PAUForceInfo@@PBU_Container_base0@1@@Z ENDP ; std::_Vector_const_iterator<std::_Vector_val<ForceInfo,std::allocator<ForceInfo> > >::_Vector_const_iterator<std::_Vector_val<ForceInfo,std::allocator<ForceInfo> > >
_TEXT	ENDS
PUBLIC	?_Compat@?$_Vector_const_iterator@V?$_Vector_val@UWeaponInfo@@V?$allocator@UWeaponInfo@@@std@@@std@@@std@@QBEXABV12@@Z ; std::_Vector_const_iterator<std::_Vector_val<WeaponInfo,std::allocator<WeaponInfo> > >::_Compat
; Function compile flags: /Ogsp
;	COMDAT ?_Compat@?$_Vector_const_iterator@V?$_Vector_val@UWeaponInfo@@V?$allocator@UWeaponInfo@@@std@@@std@@@std@@QBEXABV12@@Z
_TEXT	SEGMENT
___formal$ = 8						; size = 4
?_Compat@?$_Vector_const_iterator@V?$_Vector_val@UWeaponInfo@@V?$allocator@UWeaponInfo@@@std@@@std@@@std@@QBEXABV12@@Z PROC ; std::_Vector_const_iterator<std::_Vector_val<WeaponInfo,std::allocator<WeaponInfo> > >::_Compat, COMDAT
; _this$ = ecx

; 253  : 		}

  00000	c2 04 00	 ret	 4
?_Compat@?$_Vector_const_iterator@V?$_Vector_val@UWeaponInfo@@V?$allocator@UWeaponInfo@@@std@@@std@@@std@@QBEXABV12@@Z ENDP ; std::_Vector_const_iterator<std::_Vector_val<WeaponInfo,std::allocator<WeaponInfo> > >::_Compat
_TEXT	ENDS
PUBLIC	?_Compat@?$_Vector_const_iterator@V?$_Vector_val@UForceInfo@@V?$allocator@UForceInfo@@@std@@@std@@@std@@QBEXABV12@@Z ; std::_Vector_const_iterator<std::_Vector_val<ForceInfo,std::allocator<ForceInfo> > >::_Compat
; Function compile flags: /Ogsp
;	COMDAT ?_Compat@?$_Vector_const_iterator@V?$_Vector_val@UForceInfo@@V?$allocator@UForceInfo@@@std@@@std@@@std@@QBEXABV12@@Z
_TEXT	SEGMENT
___formal$ = 8						; size = 4
?_Compat@?$_Vector_const_iterator@V?$_Vector_val@UForceInfo@@V?$allocator@UForceInfo@@@std@@@std@@@std@@QBEXABV12@@Z PROC ; std::_Vector_const_iterator<std::_Vector_val<ForceInfo,std::allocator<ForceInfo> > >::_Compat, COMDAT
; _this$ = ecx

; 253  : 		}

  00000	c2 04 00	 ret	 4
?_Compat@?$_Vector_const_iterator@V?$_Vector_val@UForceInfo@@V?$allocator@UForceInfo@@@std@@@std@@@std@@QBEXABV12@@Z ENDP ; std::_Vector_const_iterator<std::_Vector_val<ForceInfo,std::allocator<ForceInfo> > >::_Compat
_TEXT	ENDS
PUBLIC	__TI2?AVbad_alloc@std@@
PUBLIC	??$_Allocate@UWeaponInfo@@@std@@YAPAUWeaponInfo@@IPAU1@@Z ; std::_Allocate<WeaponInfo>
PUBLIC	__CTA2?AVbad_alloc@std@@
PUBLIC	__CT??_R0?AVbad_alloc@std@@@8??0bad_alloc@std@@QAE@ABV01@@Z12
PUBLIC	??0bad_alloc@std@@QAE@ABV01@@Z			; std::bad_alloc::bad_alloc
PUBLIC	__CT??_R0?AVexception@std@@@8??0exception@std@@QAE@ABV01@@Z12
EXTRN	??2@YAPAXI@Z:PROC				; operator new
EXTRN	__CxxThrowException@8:PROC
EXTRN	??0exception@std@@QAE@ABV01@@Z:PROC		; std::exception::exception
;	COMDAT __CT??_R0?AVexception@std@@@8??0exception@std@@QAE@ABV01@@Z12
; File c:\program files (x86)\microsoft visual studio 10.0\vc\include\exception
xdata$x	SEGMENT
__CT??_R0?AVexception@std@@@8??0exception@std@@QAE@ABV01@@Z12 DD 00H
	DD	FLAT:??_R0?AVexception@std@@@8
	DD	00H
	DD	0ffffffffH
	ORG $+4
	DD	0cH
	DD	FLAT:??0exception@std@@QAE@ABV01@@Z
xdata$x	ENDS
;	COMDAT __CT??_R0?AVbad_alloc@std@@@8??0bad_alloc@std@@QAE@ABV01@@Z12
xdata$x	SEGMENT
__CT??_R0?AVbad_alloc@std@@@8??0bad_alloc@std@@QAE@ABV01@@Z12 DD 00H
	DD	FLAT:??_R0?AVbad_alloc@std@@@8
	DD	00H
	DD	0ffffffffH
	ORG $+4
	DD	0cH
	DD	FLAT:??0bad_alloc@std@@QAE@ABV01@@Z
xdata$x	ENDS
;	COMDAT __CTA2?AVbad_alloc@std@@
xdata$x	SEGMENT
__CTA2?AVbad_alloc@std@@ DD 02H
	DD	FLAT:__CT??_R0?AVbad_alloc@std@@@8??0bad_alloc@std@@QAE@ABV01@@Z12
	DD	FLAT:__CT??_R0?AVexception@std@@@8??0exception@std@@QAE@ABV01@@Z12
xdata$x	ENDS
;	COMDAT __TI2?AVbad_alloc@std@@
xdata$x	SEGMENT
__TI2?AVbad_alloc@std@@ DD 00H
	DD	FLAT:??1bad_alloc@std@@UAE@XZ
	DD	00H
	DD	FLAT:__CTA2?AVbad_alloc@std@@
; Function compile flags: /Ogsp
; File c:\program files (x86)\microsoft visual studio 10.0\vc\include\xmemory
xdata$x	ENDS
;	COMDAT ??$_Allocate@UWeaponInfo@@@std@@YAPAUWeaponInfo@@IPAU1@@Z
_TEXT	SEGMENT
$T553628 = -12						; size = 12
$T553633 = 8						; size = 4
__Count$ = 8						; size = 4
___formal$ = 12						; size = 4
??$_Allocate@UWeaponInfo@@@std@@YAPAUWeaponInfo@@IPAU1@@Z PROC ; std::_Allocate<WeaponInfo>, COMDAT

; 30   : 	{	// allocate storage for _Count elements of type _Ty

  00000	55		 push	 ebp
  00001	8b ec		 mov	 ebp, esp

; 31   : 	void *_Ptr = 0;
; 32   : 
; 33   : 	if (_Count <= 0)

  00003	8b 4d 08	 mov	 ecx, DWORD PTR __Count$[ebp]
  00006	83 ec 0c	 sub	 esp, 12			; 0000000cH
  00009	33 c0		 xor	 eax, eax
  0000b	85 c9		 test	 ecx, ecx

; 34   : 		_Count = 0;
; 35   : 	else if (((_SIZT)(-1) / sizeof (_Ty) < _Count)

  0000d	74 3c		 je	 SHORT $LN5@Allocate

; 36   : 		|| (_Ptr = ::operator new(_Count * sizeof (_Ty))) == 0)

  0000f	81 f9 66 66 66
	06		 cmp	 ecx, 107374182		; 06666666H
  00015	77 0e		 ja	 SHORT $LN1@Allocate
  00017	6b c9 28	 imul	 ecx, 40			; 00000028H
  0001a	51		 push	 ecx
  0001b	e8 00 00 00 00	 call	 ??2@YAPAXI@Z		; operator new
  00020	59		 pop	 ecx
  00021	85 c0		 test	 eax, eax

; 38   : 
; 39   : 	return ((_Ty _FARQ *)_Ptr);

  00023	75 26		 jne	 SHORT $LN5@Allocate
$LN1@Allocate:

; 37   : 		_THROW_NCEE(bad_alloc, 0);

  00025	83 65 08 00	 and	 DWORD PTR $T553633[ebp], 0
  00029	8d 45 08	 lea	 eax, DWORD PTR $T553633[ebp]
  0002c	50		 push	 eax
  0002d	8d 4d f4	 lea	 ecx, DWORD PTR $T553628[ebp]
  00030	ff 15 00 00 00
	00		 call	 DWORD PTR __imp_??0exception@std@@QAE@ABQBD@Z
  00036	68 00 00 00 00	 push	 OFFSET __TI2?AVbad_alloc@std@@
  0003b	8d 45 f4	 lea	 eax, DWORD PTR $T553628[ebp]
  0003e	50		 push	 eax
  0003f	c7 45 f4 00 00
	00 00		 mov	 DWORD PTR $T553628[ebp], OFFSET ??_7bad_alloc@std@@6B@
  00046	e8 00 00 00 00	 call	 __CxxThrowException@8
$LN10@Allocate:
$LN5@Allocate:

; 40   : 	}

  0004b	c9		 leave
  0004c	c3		 ret	 0
$LN9@Allocate:
??$_Allocate@UWeaponInfo@@@std@@YAPAUWeaponInfo@@IPAU1@@Z ENDP ; std::_Allocate<WeaponInfo>
_TEXT	ENDS
EXTRN	__imp_??0exception@std@@QAE@ABV01@@Z:PROC
; Function compile flags: /Ogsp
;	COMDAT ??0bad_alloc@std@@QAE@ABV01@@Z
_TEXT	SEGMENT
___that$ = 8						; size = 4
??0bad_alloc@std@@QAE@ABV01@@Z PROC			; std::bad_alloc::bad_alloc, COMDAT
; _this$ = ecx
  00000	55		 push	 ebp
  00001	8b ec		 mov	 ebp, esp
  00003	56		 push	 esi
  00004	ff 75 08	 push	 DWORD PTR ___that$[ebp]
  00007	8b f1		 mov	 esi, ecx
  00009	ff 15 00 00 00
	00		 call	 DWORD PTR __imp_??0exception@std@@QAE@ABV01@@Z
  0000f	c7 06 00 00 00
	00		 mov	 DWORD PTR [esi], OFFSET ??_7bad_alloc@std@@6B@
  00015	8b c6		 mov	 eax, esi
  00017	5e		 pop	 esi
  00018	5d		 pop	 ebp
  00019	c2 04 00	 ret	 4
??0bad_alloc@std@@QAE@ABV01@@Z ENDP			; std::bad_alloc::bad_alloc
_TEXT	ENDS
PUBLIC	??$_Allocate@UForceInfo@@@std@@YAPAUForceInfo@@IPAU1@@Z ; std::_Allocate<ForceInfo>
; Function compile flags: /Ogsp
;	COMDAT ??$_Allocate@UForceInfo@@@std@@YAPAUForceInfo@@IPAU1@@Z
_TEXT	SEGMENT
$T553641 = -12						; size = 12
$T553645 = 8						; size = 4
__Count$ = 8						; size = 4
___formal$ = 12						; size = 4
??$_Allocate@UForceInfo@@@std@@YAPAUForceInfo@@IPAU1@@Z PROC ; std::_Allocate<ForceInfo>, COMDAT

; 30   : 	{	// allocate storage for _Count elements of type _Ty

  00000	55		 push	 ebp
  00001	8b ec		 mov	 ebp, esp

; 31   : 	void *_Ptr = 0;
; 32   : 
; 33   : 	if (_Count <= 0)

  00003	8b 4d 08	 mov	 ecx, DWORD PTR __Count$[ebp]
  00006	83 ec 0c	 sub	 esp, 12			; 0000000cH
  00009	33 c0		 xor	 eax, eax
  0000b	85 c9		 test	 ecx, ecx

; 34   : 		_Count = 0;
; 35   : 	else if (((_SIZT)(-1) / sizeof (_Ty) < _Count)

  0000d	74 3c		 je	 SHORT $LN5@Allocate@2

; 36   : 		|| (_Ptr = ::operator new(_Count * sizeof (_Ty))) == 0)

  0000f	81 f9 55 55 55
	15		 cmp	 ecx, 357913941		; 15555555H
  00015	77 0e		 ja	 SHORT $LN1@Allocate@2
  00017	6b c9 0c	 imul	 ecx, 12			; 0000000cH
  0001a	51		 push	 ecx
  0001b	e8 00 00 00 00	 call	 ??2@YAPAXI@Z		; operator new
  00020	59		 pop	 ecx
  00021	85 c0		 test	 eax, eax

; 38   : 
; 39   : 	return ((_Ty _FARQ *)_Ptr);

  00023	75 26		 jne	 SHORT $LN5@Allocate@2
$LN1@Allocate@2:

; 37   : 		_THROW_NCEE(bad_alloc, 0);

  00025	83 65 08 00	 and	 DWORD PTR $T553645[ebp], 0
  00029	8d 45 08	 lea	 eax, DWORD PTR $T553645[ebp]
  0002c	50		 push	 eax
  0002d	8d 4d f4	 lea	 ecx, DWORD PTR $T553641[ebp]
  00030	ff 15 00 00 00
	00		 call	 DWORD PTR __imp_??0exception@std@@QAE@ABQBD@Z
  00036	68 00 00 00 00	 push	 OFFSET __TI2?AVbad_alloc@std@@
  0003b	8d 45 f4	 lea	 eax, DWORD PTR $T553641[ebp]
  0003e	50		 push	 eax
  0003f	c7 45 f4 00 00
	00 00		 mov	 DWORD PTR $T553641[ebp], OFFSET ??_7bad_alloc@std@@6B@
  00046	e8 00 00 00 00	 call	 __CxxThrowException@8
$LN10@Allocate@2:
$LN5@Allocate@2:

; 40   : 	}

  0004b	c9		 leave
  0004c	c3		 ret	 0
$LN9@Allocate@2:
??$_Allocate@UForceInfo@@@std@@YAPAUForceInfo@@IPAU1@@Z ENDP ; std::_Allocate<ForceInfo>
_TEXT	ENDS
PUBLIC	??$_Destroy@UForceInfo@@@std@@YAXPAUForceInfo@@@Z ; std::_Destroy<ForceInfo>
; Function compile flags: /Ogsp
;	COMDAT ??$_Destroy@UForceInfo@@@std@@YAXPAUForceInfo@@@Z
_TEXT	SEGMENT
__Ptr$ = 8						; size = 4
??$_Destroy@UForceInfo@@@std@@YAXPAUForceInfo@@@Z PROC	; std::_Destroy<ForceInfo>, COMDAT

; 63   : 	_Ptr->~_Ty();
; 64   : 	}

  00000	c3		 ret	 0
??$_Destroy@UForceInfo@@@std@@YAXPAUForceInfo@@@Z ENDP	; std::_Destroy<ForceInfo>
_TEXT	ENDS
PUBLIC	??_GWeaponInfo@@QAEPAXI@Z			; WeaponInfo::`scalar deleting destructor'
; Function compile flags: /Ogsp
;	COMDAT ??_GWeaponInfo@@QAEPAXI@Z
_TEXT	SEGMENT
___flags$ = 8						; size = 4
??_GWeaponInfo@@QAEPAXI@Z PROC				; WeaponInfo::`scalar deleting destructor', COMDAT
; _this$ = ecx
  00000	55		 push	 ebp
  00001	8b ec		 mov	 ebp, esp
  00003	56		 push	 esi
  00004	8b f1		 mov	 esi, ecx
  00006	8d 4e 08	 lea	 ecx, DWORD PTR [esi+8]
  00009	ff 15 00 00 00
	00		 call	 DWORD PTR __imp_??1ioHashString@@QAE@XZ
  0000f	f6 45 08 01	 test	 BYTE PTR ___flags$[ebp], 1
  00013	74 07		 je	 SHORT $LN1@scalar@6
  00015	56		 push	 esi
  00016	e8 00 00 00 00	 call	 ??3@YAXPAX@Z		; operator delete
  0001b	59		 pop	 ecx
$LN1@scalar@6:
  0001c	8b c6		 mov	 eax, esi
  0001e	5e		 pop	 esi
  0001f	5d		 pop	 ebp
  00020	c2 04 00	 ret	 4
??_GWeaponInfo@@QAEPAXI@Z ENDP				; WeaponInfo::`scalar deleting destructor'
_TEXT	ENDS
PUBLIC	??0WeaponInfo@@QAE@ABU0@@Z			; WeaponInfo::WeaponInfo
EXTRN	__imp_??0ioHashString@@QAE@ABV0@@Z:PROC
; Function compile flags: /Ogsp
;	COMDAT ??0WeaponInfo@@QAE@ABU0@@Z
_TEXT	SEGMENT
___that$ = 8						; size = 4
??0WeaponInfo@@QAE@ABU0@@Z PROC				; WeaponInfo::WeaponInfo, COMDAT
; _this$ = ecx
  00000	55		 push	 ebp
  00001	8b ec		 mov	 ebp, esp
  00003	56		 push	 esi
  00004	57		 push	 edi
  00005	8b 7d 08	 mov	 edi, DWORD PTR ___that$[ebp]
  00008	8b 07		 mov	 eax, DWORD PTR [edi]
  0000a	8b f1		 mov	 esi, ecx
  0000c	89 06		 mov	 DWORD PTR [esi], eax
  0000e	8b 47 04	 mov	 eax, DWORD PTR [edi+4]
  00011	89 46 04	 mov	 DWORD PTR [esi+4], eax
  00014	8d 47 08	 lea	 eax, DWORD PTR [edi+8]
  00017	50		 push	 eax
  00018	8d 4e 08	 lea	 ecx, DWORD PTR [esi+8]
  0001b	ff 15 00 00 00
	00		 call	 DWORD PTR __imp_??0ioHashString@@QAE@ABV0@@Z
  00021	8b 47 18	 mov	 eax, DWORD PTR [edi+24]
  00024	89 46 18	 mov	 DWORD PTR [esi+24], eax
  00027	8b 47 1c	 mov	 eax, DWORD PTR [edi+28]
  0002a	89 46 1c	 mov	 DWORD PTR [esi+28], eax
  0002d	8a 47 20	 mov	 al, BYTE PTR [edi+32]
  00030	88 46 20	 mov	 BYTE PTR [esi+32], al
  00033	8b 47 24	 mov	 eax, DWORD PTR [edi+36]
  00036	89 46 24	 mov	 DWORD PTR [esi+36], eax
  00039	5f		 pop	 edi
  0003a	8b c6		 mov	 eax, esi
  0003c	5e		 pop	 esi
  0003d	5d		 pop	 ebp
  0003e	c2 04 00	 ret	 4
??0WeaponInfo@@QAE@ABU0@@Z ENDP				; WeaponInfo::WeaponInfo
_TEXT	ENDS
PUBLIC	??G?$CEncrypt@M@@QAEMABM@Z			; CEncrypt<float>::operator-
; Function compile flags: /Ogsp
; File d:\lost saga for developer\youtube\tutorial\source\src\lsclient\encryptvalue.h
;	COMDAT ??G?$CEncrypt@M@@QAEMABM@Z
_TEXT	SEGMENT
_value$ = -4						; size = 4
tv130 = 8						; size = 4
_inValue$ = 8						; size = 4
??G?$CEncrypt@M@@QAEMABM@Z PROC				; CEncrypt<float>::operator-, COMDAT
; _this$ = ecx

; 1665 : 	{	

  00000	55		 push	 ebp
  00001	8b ec		 mov	 ebp, esp
  00003	51		 push	 ecx

; 1666 : 		type value;
; 1667 : 		DecryptValueToPool(&value);

  00004	8d 45 fc	 lea	 eax, DWORD PTR _value$[ebp]
  00007	50		 push	 eax
  00008	e8 00 00 00 00	 call	 ?DecryptValueToPool@?$CEncrypt@M@@QAEXPAM@Z ; CEncrypt<float>::DecryptValueToPool

; 1668 : #ifdef _NOTUSE
; 1669 : 		Debug();
; 1670 : #endif
; 1671 : 		return value - inValue;

  0000d	d9 45 fc	 fld	 DWORD PTR _value$[ebp]
  00010	8b 45 08	 mov	 eax, DWORD PTR _inValue$[ebp]
  00013	d8 20		 fsub	 DWORD PTR [eax]
  00015	d9 5d 08	 fstp	 DWORD PTR tv130[ebp]
  00018	d9 45 08	 fld	 DWORD PTR tv130[ebp]

; 1672 : 	}

  0001b	c9		 leave
  0001c	c2 04 00	 ret	 4
??G?$CEncrypt@M@@QAEMABM@Z ENDP				; CEncrypt<float>::operator-
_TEXT	ENDS
PUBLIC	??D?$CEncrypt@M@@QAEMABM@Z			; CEncrypt<float>::operator*
; Function compile flags: /Ogsp
;	COMDAT ??D?$CEncrypt@M@@QAEMABM@Z
_TEXT	SEGMENT
_value$ = -4						; size = 4
tv130 = 8						; size = 4
_inValue$ = 8						; size = 4
??D?$CEncrypt@M@@QAEMABM@Z PROC				; CEncrypt<float>::operator*, COMDAT
; _this$ = ecx

; 1685 : 	{	

  00000	55		 push	 ebp
  00001	8b ec		 mov	 ebp, esp
  00003	51		 push	 ecx

; 1686 : 		type value;
; 1687 : 		DecryptValueToPool(&value);

  00004	8d 45 fc	 lea	 eax, DWORD PTR _value$[ebp]
  00007	50		 push	 eax
  00008	e8 00 00 00 00	 call	 ?DecryptValueToPool@?$CEncrypt@M@@QAEXPAM@Z ; CEncrypt<float>::DecryptValueToPool

; 1688 : #ifdef _NOTUSE
; 1689 : 		Debug();
; 1690 : #endif
; 1691 : 		return value * inValue;

  0000d	8b 45 08	 mov	 eax, DWORD PTR _inValue$[ebp]
  00010	d9 00		 fld	 DWORD PTR [eax]
  00012	d8 4d fc	 fmul	 DWORD PTR _value$[ebp]
  00015	d9 5d 08	 fstp	 DWORD PTR tv130[ebp]
  00018	d9 45 08	 fld	 DWORD PTR tv130[ebp]

; 1692 : 	}

  0001b	c9		 leave
  0001c	c2 04 00	 ret	 4
??D?$CEncrypt@M@@QAEMABM@Z ENDP				; CEncrypt<float>::operator*
_TEXT	ENDS
PUBLIC	__real@4f800000
PUBLIC	??H?$CEncrypt@K@@QAEKABM@Z			; CEncrypt<unsigned long>::operator+
EXTRN	__ftol2:PROC
;	COMDAT __real@4f800000
CONST	SEGMENT
__real@4f800000 DD 04f800000r			; 4.29497e+009
; Function compile flags: /Ogsp
CONST	ENDS
;	COMDAT ??H?$CEncrypt@K@@QAEKABM@Z
_TEXT	SEGMENT
tv129 = -4						; size = 4
_value$ = -4						; size = 4
_inValue$ = 8						; size = 4
??H?$CEncrypt@K@@QAEKABM@Z PROC				; CEncrypt<unsigned long>::operator+, COMDAT
; _this$ = ecx

; 1675 : 	{	

  00000	55		 push	 ebp
  00001	8b ec		 mov	 ebp, esp
  00003	51		 push	 ecx

; 1676 : 		type value;
; 1677 : 		DecryptValueToPool(&value);

  00004	8d 45 fc	 lea	 eax, DWORD PTR _value$[ebp]
  00007	50		 push	 eax
  00008	e8 00 00 00 00	 call	 ?DecryptValueToPool@?$CEncrypt@K@@QAEXPAK@Z ; CEncrypt<unsigned long>::DecryptValueToPool

; 1678 : #ifdef _NOTUSE
; 1679 : 		Debug();
; 1680 : #endif
; 1681 : 		return value + inValue;

  0000d	db 45 fc	 fild	 DWORD PTR _value$[ebp]
  00010	8b 45 fc	 mov	 eax, DWORD PTR _value$[ebp]
  00013	85 c0		 test	 eax, eax
  00015	79 06		 jns	 SHORT $LN3@operator@3
  00017	d8 05 00 00 00
	00		 fadd	 DWORD PTR __real@4f800000
$LN3@operator@3:
  0001d	8b 45 08	 mov	 eax, DWORD PTR _inValue$[ebp]
  00020	d8 00		 fadd	 DWORD PTR [eax]
  00022	e8 00 00 00 00	 call	 __ftol2

; 1682 : 	}

  00027	c9		 leave
  00028	c2 04 00	 ret	 4
??H?$CEncrypt@K@@QAEKABM@Z ENDP				; CEncrypt<unsigned long>::operator+
_TEXT	ENDS
PUBLIC	??8?$CEncrypt@H@@QAE_NABH@Z			; CEncrypt<int>::operator==
; Function compile flags: /Ogsp
;	COMDAT ??8?$CEncrypt@H@@QAE_NABH@Z
_TEXT	SEGMENT
_value$ = -4						; size = 4
_inValue$ = 8						; size = 4
??8?$CEncrypt@H@@QAE_NABH@Z PROC			; CEncrypt<int>::operator==, COMDAT
; _this$ = ecx

; 976  : 	{

  00000	55		 push	 ebp
  00001	8b ec		 mov	 ebp, esp
  00003	51		 push	 ecx

; 977  : 		
; 978  : 		type value;
; 979  : 		DecryptValueToPool(&value);

  00004	8d 45 fc	 lea	 eax, DWORD PTR _value$[ebp]
  00007	50		 push	 eax
  00008	e8 00 00 00 00	 call	 ?DecryptValueToPool@?$CEncrypt@H@@QAEXPAH@Z ; CEncrypt<int>::DecryptValueToPool

; 980  : #ifdef _NOTUSE
; 981  : 		Debug();
; 982  : #endif
; 983  : 		return (value == inValue);

  0000d	8b 4d 08	 mov	 ecx, DWORD PTR _inValue$[ebp]
  00010	8b 55 fc	 mov	 edx, DWORD PTR _value$[ebp]
  00013	33 c0		 xor	 eax, eax
  00015	3b 11		 cmp	 edx, DWORD PTR [ecx]
  00017	0f 94 c0	 sete	 al

; 984  : 	} 

  0001a	c9		 leave
  0001b	c2 04 00	 ret	 4
??8?$CEncrypt@H@@QAE_NABH@Z ENDP			; CEncrypt<int>::operator==
_TEXT	ENDS
PUBLIC	??9?$CEncrypt@H@@QAE_NABH@Z			; CEncrypt<int>::operator!=
; Function compile flags: /Ogsp
;	COMDAT ??9?$CEncrypt@H@@QAE_NABH@Z
_TEXT	SEGMENT
_value$ = -4						; size = 4
_inValue$ = 8						; size = 4
??9?$CEncrypt@H@@QAE_NABH@Z PROC			; CEncrypt<int>::operator!=, COMDAT
; _this$ = ecx

; 998  : 	{

  00000	55		 push	 ebp
  00001	8b ec		 mov	 ebp, esp
  00003	51		 push	 ecx

; 999  : 		
; 1000 : 		type value;
; 1001 : 		DecryptValueToPool(&value);

  00004	8d 45 fc	 lea	 eax, DWORD PTR _value$[ebp]
  00007	50		 push	 eax
  00008	e8 00 00 00 00	 call	 ?DecryptValueToPool@?$CEncrypt@H@@QAEXPAH@Z ; CEncrypt<int>::DecryptValueToPool

; 1002 : #ifdef _NOTUSE
; 1003 : 		Debug();
; 1004 : #endif
; 1005 : 		return (value != inValue);

  0000d	8b 4d 08	 mov	 ecx, DWORD PTR _inValue$[ebp]
  00010	8b 55 fc	 mov	 edx, DWORD PTR _value$[ebp]
  00013	33 c0		 xor	 eax, eax
  00015	3b 11		 cmp	 edx, DWORD PTR [ecx]
  00017	0f 95 c0	 setne	 al

; 1006 : 	} 		

  0001a	c9		 leave
  0001b	c2 04 00	 ret	 4
??9?$CEncrypt@H@@QAE_NABH@Z ENDP			; CEncrypt<int>::operator!=
_TEXT	ENDS
PUBLIC	?begin@?$vector@UWeaponInfo@@V?$allocator@UWeaponInfo@@@std@@@std@@QBE?AV?$_Vector_const_iterator@V?$_Vector_val@UWeaponInfo@@V?$allocator@UWeaponInfo@@@std@@@std@@@2@XZ ; std::vector<WeaponInfo,std::allocator<WeaponInfo> >::begin
; Function compile flags: /Ogsp
; File c:\program files (x86)\microsoft visual studio 10.0\vc\include\vector
;	COMDAT ?begin@?$vector@UWeaponInfo@@V?$allocator@UWeaponInfo@@@std@@@std@@QBE?AV?$_Vector_const_iterator@V?$_Vector_val@UWeaponInfo@@V?$allocator@UWeaponInfo@@@std@@@std@@@2@XZ
_TEXT	SEGMENT
___$ReturnUdt$ = 8					; size = 4
?begin@?$vector@UWeaponInfo@@V?$allocator@UWeaponInfo@@@std@@@std@@QBE?AV?$_Vector_const_iterator@V?$_Vector_val@UWeaponInfo@@V?$allocator@UWeaponInfo@@@std@@@std@@@2@XZ PROC ; std::vector<WeaponInfo,std::allocator<WeaponInfo> >::begin, COMDAT
; _this$ = ecx

; 786  : 		{	// return iterator for beginning of nonmutable sequence

  00000	55		 push	 ebp
  00001	8b ec		 mov	 ebp, esp

; 787  : 		return (const_iterator(this->_Myfirst, this));

  00003	8b 09		 mov	 ecx, DWORD PTR [ecx]
  00005	8b 45 08	 mov	 eax, DWORD PTR ___$ReturnUdt$[ebp]
  00008	89 08		 mov	 DWORD PTR [eax], ecx

; 788  : 		}

  0000a	5d		 pop	 ebp
  0000b	c2 04 00	 ret	 4
?begin@?$vector@UWeaponInfo@@V?$allocator@UWeaponInfo@@@std@@@std@@QBE?AV?$_Vector_const_iterator@V?$_Vector_val@UWeaponInfo@@V?$allocator@UWeaponInfo@@@std@@@std@@@2@XZ ENDP ; std::vector<WeaponInfo,std::allocator<WeaponInfo> >::begin
_TEXT	ENDS
PUBLIC	?end@?$vector@UWeaponInfo@@V?$allocator@UWeaponInfo@@@std@@@std@@QBE?AV?$_Vector_const_iterator@V?$_Vector_val@UWeaponInfo@@V?$allocator@UWeaponInfo@@@std@@@std@@@2@XZ ; std::vector<WeaponInfo,std::allocator<WeaponInfo> >::end
; Function compile flags: /Ogsp
;	COMDAT ?end@?$vector@UWeaponInfo@@V?$allocator@UWeaponInfo@@@std@@@std@@QBE?AV?$_Vector_const_iterator@V?$_Vector_val@UWeaponInfo@@V?$allocator@UWeaponInfo@@@std@@@std@@@2@XZ
_TEXT	SEGMENT
___$ReturnUdt$ = 8					; size = 4
?end@?$vector@UWeaponInfo@@V?$allocator@UWeaponInfo@@@std@@@std@@QBE?AV?$_Vector_const_iterator@V?$_Vector_val@UWeaponInfo@@V?$allocator@UWeaponInfo@@@std@@@std@@@2@XZ PROC ; std::vector<WeaponInfo,std::allocator<WeaponInfo> >::end, COMDAT
; _this$ = ecx

; 796  : 		{	// return iterator for end of nonmutable sequence

  00000	55		 push	 ebp
  00001	8b ec		 mov	 ebp, esp

; 797  : 		return (const_iterator(this->_Mylast, this));

  00003	8b 49 04	 mov	 ecx, DWORD PTR [ecx+4]
  00006	8b 45 08	 mov	 eax, DWORD PTR ___$ReturnUdt$[ebp]
  00009	89 08		 mov	 DWORD PTR [eax], ecx

; 798  : 		}

  0000b	5d		 pop	 ebp
  0000c	c2 04 00	 ret	 4
?end@?$vector@UWeaponInfo@@V?$allocator@UWeaponInfo@@@std@@@std@@QBE?AV?$_Vector_const_iterator@V?$_Vector_val@UWeaponInfo@@V?$allocator@UWeaponInfo@@@std@@@std@@@2@XZ ENDP ; std::vector<WeaponInfo,std::allocator<WeaponInfo> >::end
_TEXT	ENDS
PUBLIC	?begin@?$vector@UForceInfo@@V?$allocator@UForceInfo@@@std@@@std@@QBE?AV?$_Vector_const_iterator@V?$_Vector_val@UForceInfo@@V?$allocator@UForceInfo@@@std@@@std@@@2@XZ ; std::vector<ForceInfo,std::allocator<ForceInfo> >::begin
; Function compile flags: /Ogsp
;	COMDAT ?begin@?$vector@UForceInfo@@V?$allocator@UForceInfo@@@std@@@std@@QBE?AV?$_Vector_const_iterator@V?$_Vector_val@UForceInfo@@V?$allocator@UForceInfo@@@std@@@std@@@2@XZ
_TEXT	SEGMENT
___$ReturnUdt$ = 8					; size = 4
?begin@?$vector@UForceInfo@@V?$allocator@UForceInfo@@@std@@@std@@QBE?AV?$_Vector_const_iterator@V?$_Vector_val@UForceInfo@@V?$allocator@UForceInfo@@@std@@@std@@@2@XZ PROC ; std::vector<ForceInfo,std::allocator<ForceInfo> >::begin, COMDAT
; _this$ = ecx

; 786  : 		{	// return iterator for beginning of nonmutable sequence

  00000	55		 push	 ebp
  00001	8b ec		 mov	 ebp, esp

; 787  : 		return (const_iterator(this->_Myfirst, this));

  00003	8b 09		 mov	 ecx, DWORD PTR [ecx]
  00005	8b 45 08	 mov	 eax, DWORD PTR ___$ReturnUdt$[ebp]
  00008	89 08		 mov	 DWORD PTR [eax], ecx

; 788  : 		}

  0000a	5d		 pop	 ebp
  0000b	c2 04 00	 ret	 4
?begin@?$vector@UForceInfo@@V?$allocator@UForceInfo@@@std@@@std@@QBE?AV?$_Vector_const_iterator@V?$_Vector_val@UForceInfo@@V?$allocator@UForceInfo@@@std@@@std@@@2@XZ ENDP ; std::vector<ForceInfo,std::allocator<ForceInfo> >::begin
_TEXT	ENDS
PUBLIC	?end@?$vector@UForceInfo@@V?$allocator@UForceInfo@@@std@@@std@@QBE?AV?$_Vector_const_iterator@V?$_Vector_val@UForceInfo@@V?$allocator@UForceInfo@@@std@@@std@@@2@XZ ; std::vector<ForceInfo,std::allocator<ForceInfo> >::end
; Function compile flags: /Ogsp
;	COMDAT ?end@?$vector@UForceInfo@@V?$allocator@UForceInfo@@@std@@@std@@QBE?AV?$_Vector_const_iterator@V?$_Vector_val@UForceInfo@@V?$allocator@UForceInfo@@@std@@@std@@@2@XZ
_TEXT	SEGMENT
___$ReturnUdt$ = 8					; size = 4
?end@?$vector@UForceInfo@@V?$allocator@UForceInfo@@@std@@@std@@QBE?AV?$_Vector_const_iterator@V?$_Vector_val@UForceInfo@@V?$allocator@UForceInfo@@@std@@@std@@@2@XZ PROC ; std::vector<ForceInfo,std::allocator<ForceInfo> >::end, COMDAT
; _this$ = ecx

; 796  : 		{	// return iterator for end of nonmutable sequence

  00000	55		 push	 ebp
  00001	8b ec		 mov	 ebp, esp

; 797  : 		return (const_iterator(this->_Mylast, this));

  00003	8b 49 04	 mov	 ecx, DWORD PTR [ecx+4]
  00006	8b 45 08	 mov	 eax, DWORD PTR ___$ReturnUdt$[ebp]
  00009	89 08		 mov	 DWORD PTR [eax], ecx

; 798  : 		}

  0000b	5d		 pop	 ebp
  0000c	c2 04 00	 ret	 4
?end@?$vector@UForceInfo@@V?$allocator@UForceInfo@@@std@@@std@@QBE?AV?$_Vector_const_iterator@V?$_Vector_val@UForceInfo@@V?$allocator@UForceInfo@@@std@@@std@@@2@XZ ENDP ; std::vector<ForceInfo,std::allocator<ForceInfo> >::end
_TEXT	ENDS
PUBLIC	_this$GSCopy$
PUBLIC	__$ArrayPad$
PUBLIC	??$LoadString_e@$0N@@ioINILoader@@QAEXAAY0N@$$CBDAAY00$$CBDPADH@Z ; ioINILoader::LoadString_e<13>
EXTRN	__imp_?LoadStringA@ioINILoader@@QAEXPBD0PADH@Z:PROC
EXTRN	___security_cookie:DWORD
EXTRN	@__security_check_cookie@4:PROC
; Function compile flags: /Ogsp
; File d:\lost saga for developer\youtube\tutorial\source\src\io3dengine\ioiniloader.h
;	COMDAT ??$LoadString_e@$0N@@ioINILoader@@QAEXAAY0N@$$CBDAAY00$$CBDPADH@Z
_TEXT	SEGMENT
_this$GSCopy$ = -28					; size = 4
__k$ = -24						; size = 13
__$ArrayPad$ = -4					; size = 4
_k$ = 8							; size = 4
_d$ = 12						; size = 4
_b$ = 16						; size = 4
_i$ = 20						; size = 4
??$LoadString_e@$0N@@ioINILoader@@QAEXAAY0N@$$CBDAAY00$$CBDPADH@Z PROC ; ioINILoader::LoadString_e<13>, COMDAT
; _this$ = ecx

; 161  : 	{

  00000	55		 push	 ebp
  00001	8b ec		 mov	 ebp, esp
  00003	83 ec 1c	 sub	 esp, 28			; 0000001cH
  00006	a1 00 00 00 00	 mov	 eax, DWORD PTR ___security_cookie
  0000b	33 c5		 xor	 eax, ebp
  0000d	89 45 fc	 mov	 DWORD PTR __$ArrayPad$[ebp], eax
  00010	8b 45 08	 mov	 eax, DWORD PTR _k$[ebp]

; 162  : 		_ENCSTR(k, _k);

  00013	8a 10		 mov	 dl, BYTE PTR [eax]
  00015	56		 push	 esi
  00016	8b 75 0c	 mov	 esi, DWORD PTR _d$[ebp]
  00019	57		 push	 edi
  0001a	8b 7d 10	 mov	 edi, DWORD PTR _b$[ebp]
  0001d	89 4d e4	 mov	 DWORD PTR _this$GSCopy$[ebp], ecx
  00020	84 d2		 test	 dl, dl
  00022	0f 84 4d 01 00
	00		 je	 $LN96@LoadString
  00028	80 f2 ed	 xor	 dl, -19			; ffffffedH
  0002b	88 55 e8	 mov	 BYTE PTR __k$[ebp], dl
  0002e	8a 50 01	 mov	 dl, BYTE PTR [eax+1]
  00031	84 d2		 test	 dl, dl
  00033	0f 84 36 01 00
	00		 je	 $LN95@LoadString
  00039	b1 ec		 mov	 cl, -20			; ffffffecH
  0003b	32 d1		 xor	 dl, cl
  0003d	88 55 e9	 mov	 BYTE PTR __k$[ebp+1], dl
  00040	8a 50 02	 mov	 dl, BYTE PTR [eax+2]
  00043	84 d2		 test	 dl, dl
  00045	0f 84 1e 01 00
	00		 je	 $LN94@LoadString
  0004b	80 f2 eb	 xor	 dl, -21			; ffffffebH
  0004e	88 55 ea	 mov	 BYTE PTR __k$[ebp+2], dl
  00051	8a 50 03	 mov	 dl, BYTE PTR [eax+3]
  00054	84 d2		 test	 dl, dl
  00056	0f 84 07 01 00
	00		 je	 $LN93@LoadString
  0005c	80 f2 ea	 xor	 dl, -22			; ffffffeaH
  0005f	88 55 eb	 mov	 BYTE PTR __k$[ebp+3], dl
  00062	8a 50 04	 mov	 dl, BYTE PTR [eax+4]
  00065	84 d2		 test	 dl, dl
  00067	0f 84 f0 00 00
	00		 je	 $LN92@LoadString
  0006d	80 f2 ed	 xor	 dl, -19			; ffffffedH
  00070	88 55 ec	 mov	 BYTE PTR __k$[ebp+4], dl
  00073	8a 50 05	 mov	 dl, BYTE PTR [eax+5]
  00076	84 d2		 test	 dl, dl
  00078	0f 84 da 00 00
	00		 je	 $LN91@LoadString
  0007e	32 d1		 xor	 dl, cl
  00080	88 55 ed	 mov	 BYTE PTR __k$[ebp+5], dl
  00083	8a 50 06	 mov	 dl, BYTE PTR [eax+6]
  00086	84 d2		 test	 dl, dl
  00088	0f 84 c4 00 00
	00		 je	 $LN90@LoadString
  0008e	80 f2 eb	 xor	 dl, -21			; ffffffebH
  00091	88 55 ee	 mov	 BYTE PTR __k$[ebp+6], dl
  00094	8a 50 07	 mov	 dl, BYTE PTR [eax+7]
  00097	84 d2		 test	 dl, dl
  00099	0f 84 ad 00 00
	00		 je	 $LN89@LoadString
  0009f	80 f2 ea	 xor	 dl, -22			; ffffffeaH
  000a2	88 55 ef	 mov	 BYTE PTR __k$[ebp+7], dl
  000a5	8a 50 08	 mov	 dl, BYTE PTR [eax+8]
  000a8	84 d2		 test	 dl, dl
  000aa	0f 84 96 00 00
	00		 je	 $LN88@LoadString
  000b0	80 f2 ed	 xor	 dl, -19			; ffffffedH
  000b3	88 55 f0	 mov	 BYTE PTR __k$[ebp+8], dl
  000b6	8a 50 09	 mov	 dl, BYTE PTR [eax+9]
  000b9	84 d2		 test	 dl, dl
  000bb	0f 84 80 00 00
	00		 je	 $LN87@LoadString
  000c1	32 d1		 xor	 dl, cl
  000c3	88 55 f1	 mov	 BYTE PTR __k$[ebp+9], dl
  000c6	8a 50 0a	 mov	 dl, BYTE PTR [eax+10]
  000c9	84 d2		 test	 dl, dl
  000cb	74 6e		 je	 SHORT $LN86@LoadString
  000cd	80 f2 eb	 xor	 dl, -21			; ffffffebH
  000d0	88 55 f2	 mov	 BYTE PTR __k$[ebp+10], dl
  000d3	8a 50 0b	 mov	 dl, BYTE PTR [eax+11]
  000d6	84 d2		 test	 dl, dl
  000d8	74 5b		 je	 SHORT $LN85@LoadString
  000da	80 f2 ea	 xor	 dl, -22			; ffffffeaH
  000dd	80 78 0c 00	 cmp	 BYTE PTR [eax+12], 0
  000e1	88 55 f3	 mov	 BYTE PTR __k$[ebp+11], dl
  000e4	0f 84 8f 00 00
	00		 je	 $LN111@LoadString
  000ea	8a 50 0d	 mov	 dl, BYTE PTR [eax+13]
  000ed	84 d2		 test	 dl, dl
  000ef	74 3f		 je	 SHORT $LN83@LoadString
  000f1	32 d1		 xor	 dl, cl
  000f3	88 55 f5	 mov	 BYTE PTR __k$[ebp+13], dl
  000f6	8a 50 0e	 mov	 dl, BYTE PTR [eax+14]
  000f9	84 d2		 test	 dl, dl
  000fb	74 2d		 je	 SHORT $LN82@LoadString
  000fd	80 f2 eb	 xor	 dl, -21			; ffffffebH
  00100	88 55 f6	 mov	 BYTE PTR __k$[ebp+14], dl
  00103	8a 50 0f	 mov	 dl, BYTE PTR [eax+15]
  00106	84 d2		 test	 dl, dl
  00108	74 1a		 je	 SHORT $LN81@LoadString
  0010a	8a 40 10	 mov	 al, BYTE PTR [eax+16]
  0010d	80 f2 ea	 xor	 dl, -22			; ffffffeaH
  00110	88 55 f7	 mov	 BYTE PTR __k$[ebp+15], dl
  00113	84 c0		 test	 al, al
  00115	74 07		 je	 SHORT $LN80@LoadString
  00117	34 ed		 xor	 al, -19			; ffffffedH
  00119	88 45 f8	 mov	 BYTE PTR __k$[ebp+16], al
  0011c	eb 5b		 jmp	 SHORT $LN111@LoadString
$LN80@LoadString:
  0011e	c6 45 f8 ed	 mov	 BYTE PTR __k$[ebp+16], -19 ; ffffffedH
  00122	eb 55		 jmp	 SHORT $LN111@LoadString
$LN81@LoadString:
  00124	c6 45 f7 ea	 mov	 BYTE PTR __k$[ebp+15], -22 ; ffffffeaH
  00128	eb 4f		 jmp	 SHORT $LN111@LoadString
$LN82@LoadString:
  0012a	c6 45 f6 eb	 mov	 BYTE PTR __k$[ebp+14], -21 ; ffffffebH
  0012e	eb 49		 jmp	 SHORT $LN111@LoadString
$LN83@LoadString:
  00130	88 4d f5	 mov	 BYTE PTR __k$[ebp+13], cl
  00133	eb 44		 jmp	 SHORT $LN111@LoadString
$LN85@LoadString:
  00135	c6 45 f3 ea	 mov	 BYTE PTR __k$[ebp+11], -22 ; ffffffeaH
  00139	eb 3e		 jmp	 SHORT $LN111@LoadString
$LN86@LoadString:
  0013b	c6 45 f2 eb	 mov	 BYTE PTR __k$[ebp+10], -21 ; ffffffebH
  0013f	eb 38		 jmp	 SHORT $LN111@LoadString
$LN87@LoadString:
  00141	88 4d f1	 mov	 BYTE PTR __k$[ebp+9], cl
  00144	eb 33		 jmp	 SHORT $LN111@LoadString
$LN88@LoadString:
  00146	c6 45 f0 ed	 mov	 BYTE PTR __k$[ebp+8], -19 ; ffffffedH
  0014a	eb 2d		 jmp	 SHORT $LN111@LoadString
$LN89@LoadString:
  0014c	c6 45 ef ea	 mov	 BYTE PTR __k$[ebp+7], -22 ; ffffffeaH
  00150	eb 27		 jmp	 SHORT $LN111@LoadString
$LN90@LoadString:
  00152	c6 45 ee eb	 mov	 BYTE PTR __k$[ebp+6], -21 ; ffffffebH
  00156	eb 21		 jmp	 SHORT $LN111@LoadString
$LN91@LoadString:
  00158	88 4d ed	 mov	 BYTE PTR __k$[ebp+5], cl
  0015b	eb 1c		 jmp	 SHORT $LN111@LoadString
$LN92@LoadString:
  0015d	c6 45 ec ed	 mov	 BYTE PTR __k$[ebp+4], -19 ; ffffffedH
  00161	eb 16		 jmp	 SHORT $LN111@LoadString
$LN93@LoadString:
  00163	c6 45 eb ea	 mov	 BYTE PTR __k$[ebp+3], -22 ; ffffffeaH
  00167	eb 10		 jmp	 SHORT $LN111@LoadString
$LN94@LoadString:
  00169	c6 45 ea eb	 mov	 BYTE PTR __k$[ebp+2], -21 ; ffffffebH
  0016d	eb 0a		 jmp	 SHORT $LN111@LoadString
$LN95@LoadString:
  0016f	c6 45 e9 ec	 mov	 BYTE PTR __k$[ebp+1], -20 ; ffffffecH
  00173	eb 04		 jmp	 SHORT $LN111@LoadString
$LN96@LoadString:
  00175	c6 45 e8 ed	 mov	 BYTE PTR __k$[ebp], -19	; ffffffedH
$LN111@LoadString:
  00179	6a 03		 push	 3
  0017b	8d 45 e8	 lea	 eax, DWORD PTR __k$[ebp]
  0017e	c6 45 f4 00	 mov	 BYTE PTR __k$[ebp+12], 0
  00182	5a		 pop	 edx
$LL104@LoadString:
  00183	81 30 ed ec eb
	ea		 xor	 DWORD PTR [eax], -353637139 ; eaebecedH
  00189	83 c0 04	 add	 eax, 4
  0018c	4a		 dec	 edx
  0018d	75 f4		 jne	 SHORT $LL104@LoadString

; 163  : 		LoadString(_k, d, b, i);

  0018f	ff 75 14	 push	 DWORD PTR _i$[ebp]
  00192	8b 4d e4	 mov	 ecx, DWORD PTR _this$GSCopy$[ebp]
  00195	57		 push	 edi
  00196	56		 push	 esi
  00197	8d 45 e8	 lea	 eax, DWORD PTR __k$[ebp]
  0019a	50		 push	 eax
  0019b	ff 15 00 00 00
	00		 call	 DWORD PTR __imp_?LoadStringA@ioINILoader@@QAEXPBD0PADH@Z

; 164  : 	}

  001a1	8b 4d fc	 mov	 ecx, DWORD PTR __$ArrayPad$[ebp]
  001a4	5f		 pop	 edi
  001a5	33 cd		 xor	 ecx, ebp
  001a7	5e		 pop	 esi
  001a8	e8 00 00 00 00	 call	 @__security_check_cookie@4
  001ad	c9		 leave
  001ae	c2 10 00	 ret	 16			; 00000010H
??$LoadString_e@$0N@@ioINILoader@@QAEXAAY0N@$$CBDAAY00$$CBDPADH@Z ENDP ; ioINILoader::LoadString_e<13>
_TEXT	ENDS
PUBLIC	__$ArrayPad$
PUBLIC	??$LoadString_e@$0L@@ioINILoader@@QAEXAAY0L@$$CBDAAY00$$CBDPADH@Z ; ioINILoader::LoadString_e<11>
; Function compile flags: /Ogsp
;	COMDAT ??$LoadString_e@$0L@@ioINILoader@@QAEXAAY0L@$$CBDAAY00$$CBDPADH@Z
_TEXT	SEGMENT
__k$ = -20						; size = 11
__$ArrayPad$ = -4					; size = 4
_k$ = 8							; size = 4
_d$ = 12						; size = 4
_b$ = 16						; size = 4
_i$ = 20						; size = 4
??$LoadString_e@$0L@@ioINILoader@@QAEXAAY0L@$$CBDAAY00$$CBDPADH@Z PROC ; ioINILoader::LoadString_e<11>, COMDAT
; _this$ = ecx

; 161  : 	{

  00000	55		 push	 ebp
  00001	8b ec		 mov	 ebp, esp
  00003	83 ec 14	 sub	 esp, 20			; 00000014H
  00006	a1 00 00 00 00	 mov	 eax, DWORD PTR ___security_cookie
  0000b	33 c5		 xor	 eax, ebp
  0000d	89 45 fc	 mov	 DWORD PTR __$ArrayPad$[ebp], eax
  00010	8b 45 08	 mov	 eax, DWORD PTR _k$[ebp]

; 162  : 		_ENCSTR(k, _k);

  00013	8a 10		 mov	 dl, BYTE PTR [eax]
  00015	53		 push	 ebx
  00016	56		 push	 esi
  00017	8b 75 0c	 mov	 esi, DWORD PTR _d$[ebp]
  0001a	57		 push	 edi
  0001b	8b 7d 10	 mov	 edi, DWORD PTR _b$[ebp]
  0001e	84 d2		 test	 dl, dl
  00020	0f 84 1b 01 00
	00		 je	 $LN96@LoadString@2
  00026	80 f2 ed	 xor	 dl, -19			; ffffffedH
  00029	88 55 ec	 mov	 BYTE PTR __k$[ebp], dl
  0002c	8a 50 01	 mov	 dl, BYTE PTR [eax+1]
  0002f	84 d2		 test	 dl, dl
  00031	0f 84 04 01 00
	00		 je	 $LN95@LoadString@2
  00037	b3 ec		 mov	 bl, -20			; ffffffecH
  00039	32 d3		 xor	 dl, bl
  0003b	88 55 ed	 mov	 BYTE PTR __k$[ebp+1], dl
  0003e	8a 50 02	 mov	 dl, BYTE PTR [eax+2]
  00041	84 d2		 test	 dl, dl
  00043	0f 84 ec 00 00
	00		 je	 $LN94@LoadString@2
  00049	80 f2 eb	 xor	 dl, -21			; ffffffebH
  0004c	88 55 ee	 mov	 BYTE PTR __k$[ebp+2], dl
  0004f	8a 50 03	 mov	 dl, BYTE PTR [eax+3]
  00052	84 d2		 test	 dl, dl
  00054	0f 84 d5 00 00
	00		 je	 $LN93@LoadString@2
  0005a	80 f2 ea	 xor	 dl, -22			; ffffffeaH
  0005d	88 55 ef	 mov	 BYTE PTR __k$[ebp+3], dl
  00060	8a 50 04	 mov	 dl, BYTE PTR [eax+4]
  00063	84 d2		 test	 dl, dl
  00065	0f 84 be 00 00
	00		 je	 $LN92@LoadString@2
  0006b	80 f2 ed	 xor	 dl, -19			; ffffffedH
  0006e	88 55 f0	 mov	 BYTE PTR __k$[ebp+4], dl
  00071	8a 50 05	 mov	 dl, BYTE PTR [eax+5]
  00074	84 d2		 test	 dl, dl
  00076	0f 84 a8 00 00
	00		 je	 $LN91@LoadString@2
  0007c	32 d3		 xor	 dl, bl
  0007e	88 55 f1	 mov	 BYTE PTR __k$[ebp+5], dl
  00081	8a 50 06	 mov	 dl, BYTE PTR [eax+6]
  00084	84 d2		 test	 dl, dl
  00086	0f 84 92 00 00
	00		 je	 $LN90@LoadString@2
  0008c	80 f2 eb	 xor	 dl, -21			; ffffffebH
  0008f	88 55 f2	 mov	 BYTE PTR __k$[ebp+6], dl
  00092	8a 50 07	 mov	 dl, BYTE PTR [eax+7]
  00095	84 d2		 test	 dl, dl
  00097	74 7f		 je	 SHORT $LN89@LoadString@2
  00099	80 f2 ea	 xor	 dl, -22			; ffffffeaH
  0009c	88 55 f3	 mov	 BYTE PTR __k$[ebp+7], dl
  0009f	8a 50 08	 mov	 dl, BYTE PTR [eax+8]
  000a2	84 d2		 test	 dl, dl
  000a4	74 6c		 je	 SHORT $LN88@LoadString@2
  000a6	80 f2 ed	 xor	 dl, -19			; ffffffedH
  000a9	88 55 f4	 mov	 BYTE PTR __k$[ebp+8], dl
  000ac	8a 50 09	 mov	 dl, BYTE PTR [eax+9]
  000af	84 d2		 test	 dl, dl
  000b1	74 5a		 je	 SHORT $LN87@LoadString@2
  000b3	32 d3		 xor	 dl, bl
  000b5	80 78 0a 00	 cmp	 BYTE PTR [eax+10], 0
  000b9	88 55 f5	 mov	 BYTE PTR __k$[ebp+9], dl
  000bc	0f 84 83 00 00
	00		 je	 $LN1@LoadString@2
  000c2	8a 50 0b	 mov	 dl, BYTE PTR [eax+11]
  000c5	84 d2		 test	 dl, dl
  000c7	74 3e		 je	 SHORT $LN85@LoadString@2
  000c9	80 f2 ea	 xor	 dl, -22			; ffffffeaH
  000cc	88 55 f7	 mov	 BYTE PTR __k$[ebp+11], dl
  000cf	8a 50 0c	 mov	 dl, BYTE PTR [eax+12]
  000d2	84 d2		 test	 dl, dl
  000d4	74 2b		 je	 SHORT $LN84@LoadString@2
  000d6	80 f2 ed	 xor	 dl, -19			; ffffffedH
  000d9	88 55 f8	 mov	 BYTE PTR __k$[ebp+12], dl
  000dc	8a 50 0d	 mov	 dl, BYTE PTR [eax+13]
  000df	84 d2		 test	 dl, dl
  000e1	74 19		 je	 SHORT $LN83@LoadString@2
  000e3	8a 40 0e	 mov	 al, BYTE PTR [eax+14]
  000e6	32 d3		 xor	 dl, bl
  000e8	88 55 f9	 mov	 BYTE PTR __k$[ebp+13], dl
  000eb	84 c0		 test	 al, al
  000ed	74 07		 je	 SHORT $LN82@LoadString@2
  000ef	34 eb		 xor	 al, -21			; ffffffebH
  000f1	88 45 fa	 mov	 BYTE PTR __k$[ebp+14], al
  000f4	eb 4f		 jmp	 SHORT $LN1@LoadString@2
$LN82@LoadString@2:
  000f6	c6 45 fa eb	 mov	 BYTE PTR __k$[ebp+14], -21 ; ffffffebH
  000fa	eb 49		 jmp	 SHORT $LN1@LoadString@2
$LN83@LoadString@2:
  000fc	88 5d f9	 mov	 BYTE PTR __k$[ebp+13], bl
  000ff	eb 44		 jmp	 SHORT $LN1@LoadString@2
$LN84@LoadString@2:
  00101	c6 45 f8 ed	 mov	 BYTE PTR __k$[ebp+12], -19 ; ffffffedH
  00105	eb 3e		 jmp	 SHORT $LN1@LoadString@2
$LN85@LoadString@2:
  00107	c6 45 f7 ea	 mov	 BYTE PTR __k$[ebp+11], -22 ; ffffffeaH
  0010b	eb 38		 jmp	 SHORT $LN1@LoadString@2
$LN87@LoadString@2:
  0010d	88 5d f5	 mov	 BYTE PTR __k$[ebp+9], bl
  00110	eb 33		 jmp	 SHORT $LN1@LoadString@2
$LN88@LoadString@2:
  00112	c6 45 f4 ed	 mov	 BYTE PTR __k$[ebp+8], -19 ; ffffffedH
  00116	eb 2d		 jmp	 SHORT $LN1@LoadString@2
$LN89@LoadString@2:
  00118	c6 45 f3 ea	 mov	 BYTE PTR __k$[ebp+7], -22 ; ffffffeaH
  0011c	eb 27		 jmp	 SHORT $LN1@LoadString@2
$LN90@LoadString@2:
  0011e	c6 45 f2 eb	 mov	 BYTE PTR __k$[ebp+6], -21 ; ffffffebH
  00122	eb 21		 jmp	 SHORT $LN1@LoadString@2
$LN91@LoadString@2:
  00124	88 5d f1	 mov	 BYTE PTR __k$[ebp+5], bl
  00127	eb 1c		 jmp	 SHORT $LN1@LoadString@2
$LN92@LoadString@2:
  00129	c6 45 f0 ed	 mov	 BYTE PTR __k$[ebp+4], -19 ; ffffffedH
  0012d	eb 16		 jmp	 SHORT $LN1@LoadString@2
$LN93@LoadString@2:
  0012f	c6 45 ef ea	 mov	 BYTE PTR __k$[ebp+3], -22 ; ffffffeaH
  00133	eb 10		 jmp	 SHORT $LN1@LoadString@2
$LN94@LoadString@2:
  00135	c6 45 ee eb	 mov	 BYTE PTR __k$[ebp+2], -21 ; ffffffebH
  00139	eb 0a		 jmp	 SHORT $LN1@LoadString@2
$LN95@LoadString@2:
  0013b	c6 45 ed ec	 mov	 BYTE PTR __k$[ebp+1], -20 ; ffffffecH
  0013f	eb 04		 jmp	 SHORT $LN1@LoadString@2
$LN96@LoadString@2:
  00141	c6 45 ec ed	 mov	 BYTE PTR __k$[ebp], -19	; ffffffedH
$LN1@LoadString@2:
  00145	6a 02		 push	 2
  00147	8d 45 ec	 lea	 eax, DWORD PTR __k$[ebp]
  0014a	c6 45 f6 00	 mov	 BYTE PTR __k$[ebp+10], 0
  0014e	5a		 pop	 edx
$LL104@LoadString@2:
  0014f	81 30 ed ec eb
	ea		 xor	 DWORD PTR [eax], -353637139 ; eaebecedH
  00155	83 c0 04	 add	 eax, 4
  00158	4a		 dec	 edx
  00159	75 f4		 jne	 SHORT $LL104@LoadString@2
  0015b	6a 08		 push	 8
  0015d	58		 pop	 eax
$LL101@LoadString@2:
  0015e	8b d0		 mov	 edx, eax
  00160	81 e2 03 00 00
	80		 and	 edx, -2147483645	; 80000003H
  00166	79 05		 jns	 SHORT $LN111@LoadString@2
  00168	4a		 dec	 edx
  00169	83 ca fc	 or	 edx, -4			; fffffffcH
  0016c	42		 inc	 edx
$LN111@LoadString@2:
  0016d	b3 ed		 mov	 bl, -19			; ffffffedH
  0016f	2a da		 sub	 bl, dl
  00171	30 5c 05 ec	 xor	 BYTE PTR __k$[ebp+eax], bl
  00175	40		 inc	 eax
  00176	83 f8 0a	 cmp	 eax, 10			; 0000000aH
  00179	7c e3		 jl	 SHORT $LL101@LoadString@2

; 163  : 		LoadString(_k, d, b, i);

  0017b	ff 75 14	 push	 DWORD PTR _i$[ebp]
  0017e	8d 45 ec	 lea	 eax, DWORD PTR __k$[ebp]
  00181	57		 push	 edi
  00182	56		 push	 esi
  00183	50		 push	 eax
  00184	ff 15 00 00 00
	00		 call	 DWORD PTR __imp_?LoadStringA@ioINILoader@@QAEXPBD0PADH@Z

; 164  : 	}

  0018a	8b 4d fc	 mov	 ecx, DWORD PTR __$ArrayPad$[ebp]
  0018d	5f		 pop	 edi
  0018e	5e		 pop	 esi
  0018f	33 cd		 xor	 ecx, ebp
  00191	5b		 pop	 ebx
  00192	e8 00 00 00 00	 call	 @__security_check_cookie@4
  00197	c9		 leave
  00198	c2 10 00	 ret	 16			; 00000010H
??$LoadString_e@$0L@@ioINILoader@@QAEXAAY0L@$$CBDAAY00$$CBDPADH@Z ENDP ; ioINILoader::LoadString_e<11>
_TEXT	ENDS
PUBLIC	__$ArrayPad$
PUBLIC	??$LoadInt_e@$0BC@@ioINILoader@@QAEHAAY0BC@$$CBDH@Z ; ioINILoader::LoadInt_e<18>
EXTRN	__imp_?LoadInt@ioINILoader@@QAEHPBDH@Z:PROC
; Function compile flags: /Ogsp
;	COMDAT ??$LoadInt_e@$0BC@@ioINILoader@@QAEHAAY0BC@$$CBDH@Z
_TEXT	SEGMENT
__k$ = -28						; size = 18
__$ArrayPad$ = -4					; size = 4
_k$ = 8							; size = 4
_i$ = 12						; size = 4
??$LoadInt_e@$0BC@@ioINILoader@@QAEHAAY0BC@$$CBDH@Z PROC ; ioINILoader::LoadInt_e<18>, COMDAT
; _this$ = ecx

; 118  : 	{

  00000	55		 push	 ebp
  00001	8b ec		 mov	 ebp, esp
  00003	83 ec 1c	 sub	 esp, 28			; 0000001cH
  00006	a1 00 00 00 00	 mov	 eax, DWORD PTR ___security_cookie
  0000b	33 c5		 xor	 eax, ebp
  0000d	89 45 fc	 mov	 DWORD PTR __$ArrayPad$[ebp], eax
  00010	8b 45 08	 mov	 eax, DWORD PTR _k$[ebp]

; 119  : 		_ENCSTR(k, _k);

  00013	8a 10		 mov	 dl, BYTE PTR [eax]
  00015	56		 push	 esi
  00016	8b f1		 mov	 esi, ecx
  00018	84 d2		 test	 dl, dl
  0001a	0f 84 be 01 00
	00		 je	 $LN96@LoadInt_e
  00020	80 f2 ed	 xor	 dl, -19			; ffffffedH
  00023	88 55 e4	 mov	 BYTE PTR __k$[ebp], dl
  00026	8a 50 01	 mov	 dl, BYTE PTR [eax+1]
  00029	84 d2		 test	 dl, dl
  0002b	0f 84 a7 01 00
	00		 je	 $LN95@LoadInt_e
  00031	80 f2 ec	 xor	 dl, -20			; ffffffecH
  00034	88 55 e5	 mov	 BYTE PTR __k$[ebp+1], dl
  00037	8a 50 02	 mov	 dl, BYTE PTR [eax+2]
  0003a	84 d2		 test	 dl, dl
  0003c	0f 84 90 01 00
	00		 je	 $LN94@LoadInt_e
  00042	b1 eb		 mov	 cl, -21			; ffffffebH
  00044	32 d1		 xor	 dl, cl
  00046	88 55 e6	 mov	 BYTE PTR __k$[ebp+2], dl
  00049	8a 50 03	 mov	 dl, BYTE PTR [eax+3]
  0004c	84 d2		 test	 dl, dl
  0004e	0f 84 78 01 00
	00		 je	 $LN93@LoadInt_e
  00054	80 f2 ea	 xor	 dl, -22			; ffffffeaH
  00057	88 55 e7	 mov	 BYTE PTR __k$[ebp+3], dl
  0005a	8a 50 04	 mov	 dl, BYTE PTR [eax+4]
  0005d	84 d2		 test	 dl, dl
  0005f	0f 84 61 01 00
	00		 je	 $LN92@LoadInt_e
  00065	80 f2 ed	 xor	 dl, -19			; ffffffedH
  00068	88 55 e8	 mov	 BYTE PTR __k$[ebp+4], dl
  0006b	8a 50 05	 mov	 dl, BYTE PTR [eax+5]
  0006e	84 d2		 test	 dl, dl
  00070	0f 84 4a 01 00
	00		 je	 $LN91@LoadInt_e
  00076	80 f2 ec	 xor	 dl, -20			; ffffffecH
  00079	88 55 e9	 mov	 BYTE PTR __k$[ebp+5], dl
  0007c	8a 50 06	 mov	 dl, BYTE PTR [eax+6]
  0007f	84 d2		 test	 dl, dl
  00081	0f 84 34 01 00
	00		 je	 $LN90@LoadInt_e
  00087	32 d1		 xor	 dl, cl
  00089	88 55 ea	 mov	 BYTE PTR __k$[ebp+6], dl
  0008c	8a 50 07	 mov	 dl, BYTE PTR [eax+7]
  0008f	84 d2		 test	 dl, dl
  00091	0f 84 1e 01 00
	00		 je	 $LN89@LoadInt_e
  00097	80 f2 ea	 xor	 dl, -22			; ffffffeaH
  0009a	88 55 eb	 mov	 BYTE PTR __k$[ebp+7], dl
  0009d	8a 50 08	 mov	 dl, BYTE PTR [eax+8]
  000a0	84 d2		 test	 dl, dl
  000a2	0f 84 07 01 00
	00		 je	 $LN88@LoadInt_e
  000a8	80 f2 ed	 xor	 dl, -19			; ffffffedH
  000ab	88 55 ec	 mov	 BYTE PTR __k$[ebp+8], dl
  000ae	8a 50 09	 mov	 dl, BYTE PTR [eax+9]
  000b1	84 d2		 test	 dl, dl
  000b3	0f 84 f0 00 00
	00		 je	 $LN87@LoadInt_e
  000b9	80 f2 ec	 xor	 dl, -20			; ffffffecH
  000bc	88 55 ed	 mov	 BYTE PTR __k$[ebp+9], dl
  000bf	8a 50 0a	 mov	 dl, BYTE PTR [eax+10]
  000c2	84 d2		 test	 dl, dl
  000c4	0f 84 da 00 00
	00		 je	 $LN86@LoadInt_e
  000ca	32 d1		 xor	 dl, cl
  000cc	88 55 ee	 mov	 BYTE PTR __k$[ebp+10], dl
  000cf	8a 50 0b	 mov	 dl, BYTE PTR [eax+11]
  000d2	84 d2		 test	 dl, dl
  000d4	0f 84 c4 00 00
	00		 je	 $LN85@LoadInt_e
  000da	80 f2 ea	 xor	 dl, -22			; ffffffeaH
  000dd	88 55 ef	 mov	 BYTE PTR __k$[ebp+11], dl
  000e0	8a 50 0c	 mov	 dl, BYTE PTR [eax+12]
  000e3	84 d2		 test	 dl, dl
  000e5	0f 84 ad 00 00
	00		 je	 $LN84@LoadInt_e
  000eb	80 f2 ed	 xor	 dl, -19			; ffffffedH
  000ee	88 55 f0	 mov	 BYTE PTR __k$[ebp+12], dl
  000f1	8a 50 0d	 mov	 dl, BYTE PTR [eax+13]
  000f4	84 d2		 test	 dl, dl
  000f6	0f 84 96 00 00
	00		 je	 $LN83@LoadInt_e
  000fc	80 f2 ec	 xor	 dl, -20			; ffffffecH
  000ff	88 55 f1	 mov	 BYTE PTR __k$[ebp+13], dl
  00102	8a 50 0e	 mov	 dl, BYTE PTR [eax+14]
  00105	84 d2		 test	 dl, dl
  00107	0f 84 80 00 00
	00		 je	 $LN82@LoadInt_e
  0010d	32 d1		 xor	 dl, cl
  0010f	88 55 f2	 mov	 BYTE PTR __k$[ebp+14], dl
  00112	8a 50 0f	 mov	 dl, BYTE PTR [eax+15]
  00115	84 d2		 test	 dl, dl
  00117	74 6e		 je	 SHORT $LN81@LoadInt_e
  00119	80 f2 ea	 xor	 dl, -22			; ffffffeaH
  0011c	88 55 f3	 mov	 BYTE PTR __k$[ebp+15], dl
  0011f	8a 50 10	 mov	 dl, BYTE PTR [eax+16]
  00122	84 d2		 test	 dl, dl
  00124	74 5b		 je	 SHORT $LN80@LoadInt_e
  00126	80 f2 ed	 xor	 dl, -19			; ffffffedH
  00129	80 78 11 00	 cmp	 BYTE PTR [eax+17], 0
  0012d	88 55 f4	 mov	 BYTE PTR __k$[ebp+16], dl
  00130	0f 84 ac 00 00
	00		 je	 $LN1@LoadInt_e
  00136	8a 50 12	 mov	 dl, BYTE PTR [eax+18]
  00139	84 d2		 test	 dl, dl
  0013b	74 3f		 je	 SHORT $LN78@LoadInt_e
  0013d	32 d1		 xor	 dl, cl
  0013f	88 55 f6	 mov	 BYTE PTR __k$[ebp+18], dl
  00142	8a 50 13	 mov	 dl, BYTE PTR [eax+19]
  00145	84 d2		 test	 dl, dl
  00147	74 2d		 je	 SHORT $LN77@LoadInt_e
  00149	80 f2 ea	 xor	 dl, -22			; ffffffeaH
  0014c	88 55 f7	 mov	 BYTE PTR __k$[ebp+19], dl
  0014f	8a 50 14	 mov	 dl, BYTE PTR [eax+20]
  00152	84 d2		 test	 dl, dl
  00154	74 1a		 je	 SHORT $LN76@LoadInt_e
  00156	8a 40 15	 mov	 al, BYTE PTR [eax+21]
  00159	80 f2 ed	 xor	 dl, -19			; ffffffedH
  0015c	88 55 f8	 mov	 BYTE PTR __k$[ebp+20], dl
  0015f	84 c0		 test	 al, al
  00161	74 07		 je	 SHORT $LN75@LoadInt_e
  00163	34 ec		 xor	 al, -20			; ffffffecH
  00165	88 45 f9	 mov	 BYTE PTR __k$[ebp+21], al
  00168	eb 78		 jmp	 SHORT $LN1@LoadInt_e
$LN75@LoadInt_e:
  0016a	c6 45 f9 ec	 mov	 BYTE PTR __k$[ebp+21], -20 ; ffffffecH
  0016e	eb 72		 jmp	 SHORT $LN1@LoadInt_e
$LN76@LoadInt_e:
  00170	c6 45 f8 ed	 mov	 BYTE PTR __k$[ebp+20], -19 ; ffffffedH
  00174	eb 6c		 jmp	 SHORT $LN1@LoadInt_e
$LN77@LoadInt_e:
  00176	c6 45 f7 ea	 mov	 BYTE PTR __k$[ebp+19], -22 ; ffffffeaH
  0017a	eb 66		 jmp	 SHORT $LN1@LoadInt_e
$LN78@LoadInt_e:
  0017c	88 4d f6	 mov	 BYTE PTR __k$[ebp+18], cl
  0017f	eb 61		 jmp	 SHORT $LN1@LoadInt_e
$LN80@LoadInt_e:
  00181	c6 45 f4 ed	 mov	 BYTE PTR __k$[ebp+16], -19 ; ffffffedH
  00185	eb 5b		 jmp	 SHORT $LN1@LoadInt_e
$LN81@LoadInt_e:
  00187	c6 45 f3 ea	 mov	 BYTE PTR __k$[ebp+15], -22 ; ffffffeaH
  0018b	eb 55		 jmp	 SHORT $LN1@LoadInt_e
$LN82@LoadInt_e:
  0018d	88 4d f2	 mov	 BYTE PTR __k$[ebp+14], cl
  00190	eb 50		 jmp	 SHORT $LN1@LoadInt_e
$LN83@LoadInt_e:
  00192	c6 45 f1 ec	 mov	 BYTE PTR __k$[ebp+13], -20 ; ffffffecH
  00196	eb 4a		 jmp	 SHORT $LN1@LoadInt_e
$LN84@LoadInt_e:
  00198	c6 45 f0 ed	 mov	 BYTE PTR __k$[ebp+12], -19 ; ffffffedH
  0019c	eb 44		 jmp	 SHORT $LN1@LoadInt_e
$LN85@LoadInt_e:
  0019e	c6 45 ef ea	 mov	 BYTE PTR __k$[ebp+11], -22 ; ffffffeaH
  001a2	eb 3e		 jmp	 SHORT $LN1@LoadInt_e
$LN86@LoadInt_e:
  001a4	88 4d ee	 mov	 BYTE PTR __k$[ebp+10], cl
  001a7	eb 39		 jmp	 SHORT $LN1@LoadInt_e
$LN87@LoadInt_e:
  001a9	c6 45 ed ec	 mov	 BYTE PTR __k$[ebp+9], -20 ; ffffffecH
  001ad	eb 33		 jmp	 SHORT $LN1@LoadInt_e
$LN88@LoadInt_e:
  001af	c6 45 ec ed	 mov	 BYTE PTR __k$[ebp+8], -19 ; ffffffedH
  001b3	eb 2d		 jmp	 SHORT $LN1@LoadInt_e
$LN89@LoadInt_e:
  001b5	c6 45 eb ea	 mov	 BYTE PTR __k$[ebp+7], -22 ; ffffffeaH
  001b9	eb 27		 jmp	 SHORT $LN1@LoadInt_e
$LN90@LoadInt_e:
  001bb	88 4d ea	 mov	 BYTE PTR __k$[ebp+6], cl
  001be	eb 22		 jmp	 SHORT $LN1@LoadInt_e
$LN91@LoadInt_e:
  001c0	c6 45 e9 ec	 mov	 BYTE PTR __k$[ebp+5], -20 ; ffffffecH
  001c4	eb 1c		 jmp	 SHORT $LN1@LoadInt_e
$LN92@LoadInt_e:
  001c6	c6 45 e8 ed	 mov	 BYTE PTR __k$[ebp+4], -19 ; ffffffedH
  001ca	eb 16		 jmp	 SHORT $LN1@LoadInt_e
$LN93@LoadInt_e:
  001cc	c6 45 e7 ea	 mov	 BYTE PTR __k$[ebp+3], -22 ; ffffffeaH
  001d0	eb 10		 jmp	 SHORT $LN1@LoadInt_e
$LN94@LoadInt_e:
  001d2	c6 45 e6 eb	 mov	 BYTE PTR __k$[ebp+2], -21 ; ffffffebH
  001d6	eb 0a		 jmp	 SHORT $LN1@LoadInt_e
$LN95@LoadInt_e:
  001d8	c6 45 e5 ec	 mov	 BYTE PTR __k$[ebp+1], -20 ; ffffffecH
  001dc	eb 04		 jmp	 SHORT $LN1@LoadInt_e
$LN96@LoadInt_e:
  001de	c6 45 e4 ed	 mov	 BYTE PTR __k$[ebp], -19	; ffffffedH
$LN1@LoadInt_e:
  001e2	6a 04		 push	 4
  001e4	8d 45 e4	 lea	 eax, DWORD PTR __k$[ebp]
  001e7	c6 45 f5 00	 mov	 BYTE PTR __k$[ebp+17], 0
  001eb	5a		 pop	 edx
$LL104@LoadInt_e:
  001ec	81 30 ed ec eb
	ea		 xor	 DWORD PTR [eax], -353637139 ; eaebecedH
  001f2	83 c0 04	 add	 eax, 4
  001f5	4a		 dec	 edx
  001f6	75 f4		 jne	 SHORT $LL104@LoadInt_e

; 120  : 		return LoadInt(_k, i);

  001f8	ff 75 0c	 push	 DWORD PTR _i$[ebp]
  001fb	80 75 f4 ed	 xor	 BYTE PTR __k$[ebp+16], -19 ; ffffffedH
  001ff	8d 45 e4	 lea	 eax, DWORD PTR __k$[ebp]
  00202	50		 push	 eax
  00203	8b ce		 mov	 ecx, esi
  00205	ff 15 00 00 00
	00		 call	 DWORD PTR __imp_?LoadInt@ioINILoader@@QAEHPBDH@Z

; 121  : 	}

  0020b	8b 4d fc	 mov	 ecx, DWORD PTR __$ArrayPad$[ebp]
  0020e	33 cd		 xor	 ecx, ebp
  00210	5e		 pop	 esi
  00211	e8 00 00 00 00	 call	 @__security_check_cookie@4
  00216	c9		 leave
  00217	c2 08 00	 ret	 8
??$LoadInt_e@$0BC@@ioINILoader@@QAEHAAY0BC@$$CBDH@Z ENDP ; ioINILoader::LoadInt_e<18>
_TEXT	ENDS
PUBLIC	_this$GSCopy$
PUBLIC	__$ArrayPad$
PUBLIC	??$LoadString_e@$0BG@@ioINILoader@@QAEXAAY0BG@$$CBDAAY00$$CBDPADH@Z ; ioINILoader::LoadString_e<22>
; Function compile flags: /Ogsp
;	COMDAT ??$LoadString_e@$0BG@@ioINILoader@@QAEXAAY0BG@$$CBDAAY00$$CBDPADH@Z
_TEXT	SEGMENT
_this$GSCopy$ = -36					; size = 4
__k$ = -32						; size = 22
__$ArrayPad$ = -4					; size = 4
_k$ = 8							; size = 4
_d$ = 12						; size = 4
_b$ = 16						; size = 4
_i$ = 20						; size = 4
??$LoadString_e@$0BG@@ioINILoader@@QAEXAAY0BG@$$CBDAAY00$$CBDPADH@Z PROC ; ioINILoader::LoadString_e<22>, COMDAT
; _this$ = ecx

; 161  : 	{

  00000	55		 push	 ebp
  00001	8b ec		 mov	 ebp, esp
  00003	83 ec 24	 sub	 esp, 36			; 00000024H
  00006	a1 00 00 00 00	 mov	 eax, DWORD PTR ___security_cookie
  0000b	33 c5		 xor	 eax, ebp
  0000d	89 45 fc	 mov	 DWORD PTR __$ArrayPad$[ebp], eax
  00010	8b 45 08	 mov	 eax, DWORD PTR _k$[ebp]

; 162  : 		_ENCSTR(k, _k);

  00013	8a 10		 mov	 dl, BYTE PTR [eax]
  00015	53		 push	 ebx
  00016	56		 push	 esi
  00017	8b 75 0c	 mov	 esi, DWORD PTR _d$[ebp]
  0001a	57		 push	 edi
  0001b	8b 7d 10	 mov	 edi, DWORD PTR _b$[ebp]
  0001e	89 4d dc	 mov	 DWORD PTR _this$GSCopy$[ebp], ecx
  00021	84 d2		 test	 dl, dl
  00023	0f 84 15 02 00
	00		 je	 $LN96@LoadString@3
  00029	80 f2 ed	 xor	 dl, -19			; ffffffedH
  0002c	88 55 e0	 mov	 BYTE PTR __k$[ebp], dl
  0002f	8a 50 01	 mov	 dl, BYTE PTR [eax+1]
  00032	84 d2		 test	 dl, dl
  00034	0f 84 fe 01 00
	00		 je	 $LN95@LoadString@3
  0003a	80 f2 ec	 xor	 dl, -20			; ffffffecH
  0003d	88 55 e1	 mov	 BYTE PTR __k$[ebp+1], dl
  00040	8a 50 02	 mov	 dl, BYTE PTR [eax+2]
  00043	84 d2		 test	 dl, dl
  00045	0f 84 e7 01 00
	00		 je	 $LN94@LoadString@3
  0004b	b1 eb		 mov	 cl, -21			; ffffffebH
  0004d	32 d1		 xor	 dl, cl
  0004f	88 55 e2	 mov	 BYTE PTR __k$[ebp+2], dl
  00052	8a 50 03	 mov	 dl, BYTE PTR [eax+3]
  00055	84 d2		 test	 dl, dl
  00057	0f 84 cf 01 00
	00		 je	 $LN93@LoadString@3
  0005d	b3 ea		 mov	 bl, -22			; ffffffeaH
  0005f	32 d3		 xor	 dl, bl
  00061	88 55 e3	 mov	 BYTE PTR __k$[ebp+3], dl
  00064	8a 50 04	 mov	 dl, BYTE PTR [eax+4]
  00067	84 d2		 test	 dl, dl
  00069	0f 84 b7 01 00
	00		 je	 $LN92@LoadString@3
  0006f	80 f2 ed	 xor	 dl, -19			; ffffffedH
  00072	88 55 e4	 mov	 BYTE PTR __k$[ebp+4], dl
  00075	8a 50 05	 mov	 dl, BYTE PTR [eax+5]
  00078	84 d2		 test	 dl, dl
  0007a	0f 84 a0 01 00
	00		 je	 $LN91@LoadString@3
  00080	80 f2 ec	 xor	 dl, -20			; ffffffecH
  00083	88 55 e5	 mov	 BYTE PTR __k$[ebp+5], dl
  00086	8a 50 06	 mov	 dl, BYTE PTR [eax+6]
  00089	84 d2		 test	 dl, dl
  0008b	0f 84 8a 01 00
	00		 je	 $LN90@LoadString@3
  00091	32 d1		 xor	 dl, cl
  00093	88 55 e6	 mov	 BYTE PTR __k$[ebp+6], dl
  00096	8a 50 07	 mov	 dl, BYTE PTR [eax+7]
  00099	84 d2		 test	 dl, dl
  0009b	0f 84 75 01 00
	00		 je	 $LN89@LoadString@3
  000a1	32 d3		 xor	 dl, bl
  000a3	88 55 e7	 mov	 BYTE PTR __k$[ebp+7], dl
  000a6	8a 50 08	 mov	 dl, BYTE PTR [eax+8]
  000a9	84 d2		 test	 dl, dl
  000ab	0f 84 5f 01 00
	00		 je	 $LN88@LoadString@3
  000b1	80 f2 ed	 xor	 dl, -19			; ffffffedH
  000b4	88 55 e8	 mov	 BYTE PTR __k$[ebp+8], dl
  000b7	8a 50 09	 mov	 dl, BYTE PTR [eax+9]
  000ba	84 d2		 test	 dl, dl
  000bc	0f 84 48 01 00
	00		 je	 $LN87@LoadString@3
  000c2	80 f2 ec	 xor	 dl, -20			; ffffffecH
  000c5	88 55 e9	 mov	 BYTE PTR __k$[ebp+9], dl
  000c8	8a 50 0a	 mov	 dl, BYTE PTR [eax+10]
  000cb	84 d2		 test	 dl, dl
  000cd	0f 84 32 01 00
	00		 je	 $LN86@LoadString@3
  000d3	32 d1		 xor	 dl, cl
  000d5	88 55 ea	 mov	 BYTE PTR __k$[ebp+10], dl
  000d8	8a 50 0b	 mov	 dl, BYTE PTR [eax+11]
  000db	84 d2		 test	 dl, dl
  000dd	0f 84 1d 01 00
	00		 je	 $LN85@LoadString@3
  000e3	32 d3		 xor	 dl, bl
  000e5	88 55 eb	 mov	 BYTE PTR __k$[ebp+11], dl
  000e8	8a 50 0c	 mov	 dl, BYTE PTR [eax+12]
  000eb	84 d2		 test	 dl, dl
  000ed	0f 84 07 01 00
	00		 je	 $LN84@LoadString@3
  000f3	80 f2 ed	 xor	 dl, -19			; ffffffedH
  000f6	88 55 ec	 mov	 BYTE PTR __k$[ebp+12], dl
  000f9	8a 50 0d	 mov	 dl, BYTE PTR [eax+13]
  000fc	84 d2		 test	 dl, dl
  000fe	0f 84 f0 00 00
	00		 je	 $LN83@LoadString@3
  00104	80 f2 ec	 xor	 dl, -20			; ffffffecH
  00107	88 55 ed	 mov	 BYTE PTR __k$[ebp+13], dl
  0010a	8a 50 0e	 mov	 dl, BYTE PTR [eax+14]
  0010d	84 d2		 test	 dl, dl
  0010f	0f 84 da 00 00
	00		 je	 $LN82@LoadString@3
  00115	32 d1		 xor	 dl, cl
  00117	88 55 ee	 mov	 BYTE PTR __k$[ebp+14], dl
  0011a	8a 50 0f	 mov	 dl, BYTE PTR [eax+15]
  0011d	84 d2		 test	 dl, dl
  0011f	0f 84 c5 00 00
	00		 je	 $LN81@LoadString@3
  00125	32 d3		 xor	 dl, bl
  00127	88 55 ef	 mov	 BYTE PTR __k$[ebp+15], dl
  0012a	8a 50 10	 mov	 dl, BYTE PTR [eax+16]
  0012d	84 d2		 test	 dl, dl
  0012f	0f 84 af 00 00
	00		 je	 $LN80@LoadString@3
  00135	80 f2 ed	 xor	 dl, -19			; ffffffedH
  00138	88 55 f0	 mov	 BYTE PTR __k$[ebp+16], dl
  0013b	8a 50 11	 mov	 dl, BYTE PTR [eax+17]
  0013e	84 d2		 test	 dl, dl
  00140	0f 84 98 00 00
	00		 je	 $LN79@LoadString@3
  00146	80 f2 ec	 xor	 dl, -20			; ffffffecH
  00149	88 55 f1	 mov	 BYTE PTR __k$[ebp+17], dl
  0014c	8a 50 12	 mov	 dl, BYTE PTR [eax+18]
  0014f	84 d2		 test	 dl, dl
  00151	0f 84 82 00 00
	00		 je	 $LN78@LoadString@3
  00157	32 d1		 xor	 dl, cl
  00159	88 55 f2	 mov	 BYTE PTR __k$[ebp+18], dl
  0015c	8a 50 13	 mov	 dl, BYTE PTR [eax+19]
  0015f	84 d2		 test	 dl, dl
  00161	74 71		 je	 SHORT $LN77@LoadString@3
  00163	32 d3		 xor	 dl, bl
  00165	88 55 f3	 mov	 BYTE PTR __k$[ebp+19], dl
  00168	8a 50 14	 mov	 dl, BYTE PTR [eax+20]
  0016b	84 d2		 test	 dl, dl
  0016d	74 5f		 je	 SHORT $LN76@LoadString@3
  0016f	80 f2 ed	 xor	 dl, -19			; ffffffedH
  00172	80 78 15 00	 cmp	 BYTE PTR [eax+21], 0
  00176	88 55 f4	 mov	 BYTE PTR __k$[ebp+20], dl
  00179	0f 84 c3 00 00
	00		 je	 $LN111@LoadString@3
  0017f	8a 50 16	 mov	 dl, BYTE PTR [eax+22]
  00182	84 d2		 test	 dl, dl
  00184	74 43		 je	 SHORT $LN74@LoadString@3
  00186	32 d1		 xor	 dl, cl
  00188	88 55 f6	 mov	 BYTE PTR __k$[ebp+22], dl
  0018b	8a 50 17	 mov	 dl, BYTE PTR [eax+23]
  0018e	84 d2		 test	 dl, dl
  00190	74 32		 je	 SHORT $LN73@LoadString@3
  00192	32 d3		 xor	 dl, bl
  00194	88 55 f7	 mov	 BYTE PTR __k$[ebp+23], dl
  00197	8a 50 18	 mov	 dl, BYTE PTR [eax+24]
  0019a	84 d2		 test	 dl, dl
  0019c	74 20		 je	 SHORT $LN72@LoadString@3
  0019e	8a 40 19	 mov	 al, BYTE PTR [eax+25]
  001a1	80 f2 ed	 xor	 dl, -19			; ffffffedH
  001a4	88 55 f8	 mov	 BYTE PTR __k$[ebp+24], dl
  001a7	84 c0		 test	 al, al
  001a9	74 0a		 je	 SHORT $LN71@LoadString@3
  001ab	34 ec		 xor	 al, -20			; ffffffecH
  001ad	88 45 f9	 mov	 BYTE PTR __k$[ebp+25], al
  001b0	e9 8d 00 00 00	 jmp	 $LN111@LoadString@3
$LN71@LoadString@3:
  001b5	c6 45 f9 ec	 mov	 BYTE PTR __k$[ebp+25], -20 ; ffffffecH
  001b9	e9 84 00 00 00	 jmp	 $LN111@LoadString@3
$LN72@LoadString@3:
  001be	c6 45 f8 ed	 mov	 BYTE PTR __k$[ebp+24], -19 ; ffffffedH
  001c2	eb 7e		 jmp	 SHORT $LN111@LoadString@3
$LN73@LoadString@3:
  001c4	88 5d f7	 mov	 BYTE PTR __k$[ebp+23], bl
  001c7	eb 79		 jmp	 SHORT $LN111@LoadString@3
$LN74@LoadString@3:
  001c9	88 4d f6	 mov	 BYTE PTR __k$[ebp+22], cl
  001cc	eb 74		 jmp	 SHORT $LN111@LoadString@3
$LN76@LoadString@3:
  001ce	c6 45 f4 ed	 mov	 BYTE PTR __k$[ebp+20], -19 ; ffffffedH
  001d2	eb 6e		 jmp	 SHORT $LN111@LoadString@3
$LN77@LoadString@3:
  001d4	88 5d f3	 mov	 BYTE PTR __k$[ebp+19], bl
  001d7	eb 69		 jmp	 SHORT $LN111@LoadString@3
$LN78@LoadString@3:
  001d9	88 4d f2	 mov	 BYTE PTR __k$[ebp+18], cl
  001dc	eb 64		 jmp	 SHORT $LN111@LoadString@3
$LN79@LoadString@3:
  001de	c6 45 f1 ec	 mov	 BYTE PTR __k$[ebp+17], -20 ; ffffffecH
  001e2	eb 5e		 jmp	 SHORT $LN111@LoadString@3
$LN80@LoadString@3:
  001e4	c6 45 f0 ed	 mov	 BYTE PTR __k$[ebp+16], -19 ; ffffffedH
  001e8	eb 58		 jmp	 SHORT $LN111@LoadString@3
$LN81@LoadString@3:
  001ea	88 5d ef	 mov	 BYTE PTR __k$[ebp+15], bl
  001ed	eb 53		 jmp	 SHORT $LN111@LoadString@3
$LN82@LoadString@3:
  001ef	88 4d ee	 mov	 BYTE PTR __k$[ebp+14], cl
  001f2	eb 4e		 jmp	 SHORT $LN111@LoadString@3
$LN83@LoadString@3:
  001f4	c6 45 ed ec	 mov	 BYTE PTR __k$[ebp+13], -20 ; ffffffecH
  001f8	eb 48		 jmp	 SHORT $LN111@LoadString@3
$LN84@LoadString@3:
  001fa	c6 45 ec ed	 mov	 BYTE PTR __k$[ebp+12], -19 ; ffffffedH
  001fe	eb 42		 jmp	 SHORT $LN111@LoadString@3
$LN85@LoadString@3:
  00200	88 5d eb	 mov	 BYTE PTR __k$[ebp+11], bl
  00203	eb 3d		 jmp	 SHORT $LN111@LoadString@3
$LN86@LoadString@3:
  00205	88 4d ea	 mov	 BYTE PTR __k$[ebp+10], cl
  00208	eb 38		 jmp	 SHORT $LN111@LoadString@3
$LN87@LoadString@3:
  0020a	c6 45 e9 ec	 mov	 BYTE PTR __k$[ebp+9], -20 ; ffffffecH
  0020e	eb 32		 jmp	 SHORT $LN111@LoadString@3
$LN88@LoadString@3:
  00210	c6 45 e8 ed	 mov	 BYTE PTR __k$[ebp+8], -19 ; ffffffedH
  00214	eb 2c		 jmp	 SHORT $LN111@LoadString@3
$LN89@LoadString@3:
  00216	88 5d e7	 mov	 BYTE PTR __k$[ebp+7], bl
  00219	eb 27		 jmp	 SHORT $LN111@LoadString@3
$LN90@LoadString@3:
  0021b	88 4d e6	 mov	 BYTE PTR __k$[ebp+6], cl
  0021e	eb 22		 jmp	 SHORT $LN111@LoadString@3
$LN91@LoadString@3:
  00220	c6 45 e5 ec	 mov	 BYTE PTR __k$[ebp+5], -20 ; ffffffecH
  00224	eb 1c		 jmp	 SHORT $LN111@LoadString@3
$LN92@LoadString@3:
  00226	c6 45 e4 ed	 mov	 BYTE PTR __k$[ebp+4], -19 ; ffffffedH
  0022a	eb 16		 jmp	 SHORT $LN111@LoadString@3
$LN93@LoadString@3:
  0022c	c6 45 e3 ea	 mov	 BYTE PTR __k$[ebp+3], -22 ; ffffffeaH
  00230	eb 10		 jmp	 SHORT $LN111@LoadString@3
$LN94@LoadString@3:
  00232	c6 45 e2 eb	 mov	 BYTE PTR __k$[ebp+2], -21 ; ffffffebH
  00236	eb 0a		 jmp	 SHORT $LN111@LoadString@3
$LN95@LoadString@3:
  00238	c6 45 e1 ec	 mov	 BYTE PTR __k$[ebp+1], -20 ; ffffffecH
  0023c	eb 04		 jmp	 SHORT $LN111@LoadString@3
$LN96@LoadString@3:
  0023e	c6 45 e0 ed	 mov	 BYTE PTR __k$[ebp], -19	; ffffffedH
$LN111@LoadString@3:
  00242	6a 05		 push	 5
  00244	8d 45 e0	 lea	 eax, DWORD PTR __k$[ebp]
  00247	c6 45 f5 00	 mov	 BYTE PTR __k$[ebp+21], 0
  0024b	5a		 pop	 edx
$LL104@LoadString@3:
  0024c	81 30 ed ec eb
	ea		 xor	 DWORD PTR [eax], -353637139 ; eaebecedH
  00252	83 c0 04	 add	 eax, 4
  00255	4a		 dec	 edx
  00256	75 f4		 jne	 SHORT $LL104@LoadString@3

; 163  : 		LoadString(_k, d, b, i);

  00258	ff 75 14	 push	 DWORD PTR _i$[ebp]
  0025b	8b 4d dc	 mov	 ecx, DWORD PTR _this$GSCopy$[ebp]
  0025e	80 75 f4 ed	 xor	 BYTE PTR __k$[ebp+20], -19 ; ffffffedH
  00262	57		 push	 edi
  00263	56		 push	 esi
  00264	8d 45 e0	 lea	 eax, DWORD PTR __k$[ebp]
  00267	50		 push	 eax
  00268	ff 15 00 00 00
	00		 call	 DWORD PTR __imp_?LoadStringA@ioINILoader@@QAEXPBD0PADH@Z

; 164  : 	}

  0026e	8b 4d fc	 mov	 ecx, DWORD PTR __$ArrayPad$[ebp]
  00271	5f		 pop	 edi
  00272	5e		 pop	 esi
  00273	33 cd		 xor	 ecx, ebp
  00275	5b		 pop	 ebx
  00276	e8 00 00 00 00	 call	 @__security_check_cookie@4
  0027b	c9		 leave
  0027c	c2 10 00	 ret	 16			; 00000010H
??$LoadString_e@$0BG@@ioINILoader@@QAEXAAY0BG@$$CBDAAY00$$CBDPADH@Z ENDP ; ioINILoader::LoadString_e<22>
_TEXT	ENDS
PUBLIC	_this$GSCopy$
PUBLIC	__$ArrayPad$
PUBLIC	??$LoadString_e@$0BC@@ioINILoader@@QAEXAAY0BC@$$CBDAAY00$$CBDPADH@Z ; ioINILoader::LoadString_e<18>
; Function compile flags: /Ogsp
;	COMDAT ??$LoadString_e@$0BC@@ioINILoader@@QAEXAAY0BC@$$CBDAAY00$$CBDPADH@Z
_TEXT	SEGMENT
_this$GSCopy$ = -32					; size = 4
__k$ = -28						; size = 18
__$ArrayPad$ = -4					; size = 4
_k$ = 8							; size = 4
_d$ = 12						; size = 4
_b$ = 16						; size = 4
_i$ = 20						; size = 4
??$LoadString_e@$0BC@@ioINILoader@@QAEXAAY0BC@$$CBDAAY00$$CBDPADH@Z PROC ; ioINILoader::LoadString_e<18>, COMDAT
; _this$ = ecx

; 161  : 	{

  00000	55		 push	 ebp
  00001	8b ec		 mov	 ebp, esp
  00003	83 ec 20	 sub	 esp, 32			; 00000020H
  00006	a1 00 00 00 00	 mov	 eax, DWORD PTR ___security_cookie
  0000b	33 c5		 xor	 eax, ebp
  0000d	89 45 fc	 mov	 DWORD PTR __$ArrayPad$[ebp], eax
  00010	8b 45 08	 mov	 eax, DWORD PTR _k$[ebp]

; 162  : 		_ENCSTR(k, _k);

  00013	8a 10		 mov	 dl, BYTE PTR [eax]
  00015	56		 push	 esi
  00016	8b 75 0c	 mov	 esi, DWORD PTR _d$[ebp]
  00019	57		 push	 edi
  0001a	8b 7d 10	 mov	 edi, DWORD PTR _b$[ebp]
  0001d	89 4d e0	 mov	 DWORD PTR _this$GSCopy$[ebp], ecx
  00020	84 d2		 test	 dl, dl
  00022	0f 84 be 01 00
	00		 je	 $LN96@LoadString@4
  00028	80 f2 ed	 xor	 dl, -19			; ffffffedH
  0002b	88 55 e4	 mov	 BYTE PTR __k$[ebp], dl
  0002e	8a 50 01	 mov	 dl, BYTE PTR [eax+1]
  00031	84 d2		 test	 dl, dl
  00033	0f 84 a7 01 00
	00		 je	 $LN95@LoadString@4
  00039	80 f2 ec	 xor	 dl, -20			; ffffffecH
  0003c	88 55 e5	 mov	 BYTE PTR __k$[ebp+1], dl
  0003f	8a 50 02	 mov	 dl, BYTE PTR [eax+2]
  00042	84 d2		 test	 dl, dl
  00044	0f 84 90 01 00
	00		 je	 $LN94@LoadString@4
  0004a	b1 eb		 mov	 cl, -21			; ffffffebH
  0004c	32 d1		 xor	 dl, cl
  0004e	88 55 e6	 mov	 BYTE PTR __k$[ebp+2], dl
  00051	8a 50 03	 mov	 dl, BYTE PTR [eax+3]
  00054	84 d2		 test	 dl, dl
  00056	0f 84 78 01 00
	00		 je	 $LN93@LoadString@4
  0005c	80 f2 ea	 xor	 dl, -22			; ffffffeaH
  0005f	88 55 e7	 mov	 BYTE PTR __k$[ebp+3], dl
  00062	8a 50 04	 mov	 dl, BYTE PTR [eax+4]
  00065	84 d2		 test	 dl, dl
  00067	0f 84 61 01 00
	00		 je	 $LN92@LoadString@4
  0006d	80 f2 ed	 xor	 dl, -19			; ffffffedH
  00070	88 55 e8	 mov	 BYTE PTR __k$[ebp+4], dl
  00073	8a 50 05	 mov	 dl, BYTE PTR [eax+5]
  00076	84 d2		 test	 dl, dl
  00078	0f 84 4a 01 00
	00		 je	 $LN91@LoadString@4
  0007e	80 f2 ec	 xor	 dl, -20			; ffffffecH
  00081	88 55 e9	 mov	 BYTE PTR __k$[ebp+5], dl
  00084	8a 50 06	 mov	 dl, BYTE PTR [eax+6]
  00087	84 d2		 test	 dl, dl
  00089	0f 84 34 01 00
	00		 je	 $LN90@LoadString@4
  0008f	32 d1		 xor	 dl, cl
  00091	88 55 ea	 mov	 BYTE PTR __k$[ebp+6], dl
  00094	8a 50 07	 mov	 dl, BYTE PTR [eax+7]
  00097	84 d2		 test	 dl, dl
  00099	0f 84 1e 01 00
	00		 je	 $LN89@LoadString@4
  0009f	80 f2 ea	 xor	 dl, -22			; ffffffeaH
  000a2	88 55 eb	 mov	 BYTE PTR __k$[ebp+7], dl
  000a5	8a 50 08	 mov	 dl, BYTE PTR [eax+8]
  000a8	84 d2		 test	 dl, dl
  000aa	0f 84 07 01 00
	00		 je	 $LN88@LoadString@4
  000b0	80 f2 ed	 xor	 dl, -19			; ffffffedH
  000b3	88 55 ec	 mov	 BYTE PTR __k$[ebp+8], dl
  000b6	8a 50 09	 mov	 dl, BYTE PTR [eax+9]
  000b9	84 d2		 test	 dl, dl
  000bb	0f 84 f0 00 00
	00		 je	 $LN87@LoadString@4
  000c1	80 f2 ec	 xor	 dl, -20			; ffffffecH
  000c4	88 55 ed	 mov	 BYTE PTR __k$[ebp+9], dl
  000c7	8a 50 0a	 mov	 dl, BYTE PTR [eax+10]
  000ca	84 d2		 test	 dl, dl
  000cc	0f 84 da 00 00
	00		 je	 $LN86@LoadString@4
  000d2	32 d1		 xor	 dl, cl
  000d4	88 55 ee	 mov	 BYTE PTR __k$[ebp+10], dl
  000d7	8a 50 0b	 mov	 dl, BYTE PTR [eax+11]
  000da	84 d2		 test	 dl, dl
  000dc	0f 84 c4 00 00
	00		 je	 $LN85@LoadString@4
  000e2	80 f2 ea	 xor	 dl, -22			; ffffffeaH
  000e5	88 55 ef	 mov	 BYTE PTR __k$[ebp+11], dl
  000e8	8a 50 0c	 mov	 dl, BYTE PTR [eax+12]
  000eb	84 d2		 test	 dl, dl
  000ed	0f 84 ad 00 00
	00		 je	 $LN84@LoadString@4
  000f3	80 f2 ed	 xor	 dl, -19			; ffffffedH
  000f6	88 55 f0	 mov	 BYTE PTR __k$[ebp+12], dl
  000f9	8a 50 0d	 mov	 dl, BYTE PTR [eax+13]
  000fc	84 d2		 test	 dl, dl
  000fe	0f 84 96 00 00
	00		 je	 $LN83@LoadString@4
  00104	80 f2 ec	 xor	 dl, -20			; ffffffecH
  00107	88 55 f1	 mov	 BYTE PTR __k$[ebp+13], dl
  0010a	8a 50 0e	 mov	 dl, BYTE PTR [eax+14]
  0010d	84 d2		 test	 dl, dl
  0010f	0f 84 80 00 00
	00		 je	 $LN82@LoadString@4
  00115	32 d1		 xor	 dl, cl
  00117	88 55 f2	 mov	 BYTE PTR __k$[ebp+14], dl
  0011a	8a 50 0f	 mov	 dl, BYTE PTR [eax+15]
  0011d	84 d2		 test	 dl, dl
  0011f	74 6e		 je	 SHORT $LN81@LoadString@4
  00121	80 f2 ea	 xor	 dl, -22			; ffffffeaH
  00124	88 55 f3	 mov	 BYTE PTR __k$[ebp+15], dl
  00127	8a 50 10	 mov	 dl, BYTE PTR [eax+16]
  0012a	84 d2		 test	 dl, dl
  0012c	74 5b		 je	 SHORT $LN80@LoadString@4
  0012e	80 f2 ed	 xor	 dl, -19			; ffffffedH
  00131	80 78 11 00	 cmp	 BYTE PTR [eax+17], 0
  00135	88 55 f4	 mov	 BYTE PTR __k$[ebp+16], dl
  00138	0f 84 ac 00 00
	00		 je	 $LN111@LoadString@4
  0013e	8a 50 12	 mov	 dl, BYTE PTR [eax+18]
  00141	84 d2		 test	 dl, dl
  00143	74 3f		 je	 SHORT $LN78@LoadString@4
  00145	32 d1		 xor	 dl, cl
  00147	88 55 f6	 mov	 BYTE PTR __k$[ebp+18], dl
  0014a	8a 50 13	 mov	 dl, BYTE PTR [eax+19]
  0014d	84 d2		 test	 dl, dl
  0014f	74 2d		 je	 SHORT $LN77@LoadString@4
  00151	80 f2 ea	 xor	 dl, -22			; ffffffeaH
  00154	88 55 f7	 mov	 BYTE PTR __k$[ebp+19], dl
  00157	8a 50 14	 mov	 dl, BYTE PTR [eax+20]
  0015a	84 d2		 test	 dl, dl
  0015c	74 1a		 je	 SHORT $LN76@LoadString@4
  0015e	8a 40 15	 mov	 al, BYTE PTR [eax+21]
  00161	80 f2 ed	 xor	 dl, -19			; ffffffedH
  00164	88 55 f8	 mov	 BYTE PTR __k$[ebp+20], dl
  00167	84 c0		 test	 al, al
  00169	74 07		 je	 SHORT $LN75@LoadString@4
  0016b	34 ec		 xor	 al, -20			; ffffffecH
  0016d	88 45 f9	 mov	 BYTE PTR __k$[ebp+21], al
  00170	eb 78		 jmp	 SHORT $LN111@LoadString@4
$LN75@LoadString@4:
  00172	c6 45 f9 ec	 mov	 BYTE PTR __k$[ebp+21], -20 ; ffffffecH
  00176	eb 72		 jmp	 SHORT $LN111@LoadString@4
$LN76@LoadString@4:
  00178	c6 45 f8 ed	 mov	 BYTE PTR __k$[ebp+20], -19 ; ffffffedH
  0017c	eb 6c		 jmp	 SHORT $LN111@LoadString@4
$LN77@LoadString@4:
  0017e	c6 45 f7 ea	 mov	 BYTE PTR __k$[ebp+19], -22 ; ffffffeaH
  00182	eb 66		 jmp	 SHORT $LN111@LoadString@4
$LN78@LoadString@4:
  00184	88 4d f6	 mov	 BYTE PTR __k$[ebp+18], cl
  00187	eb 61		 jmp	 SHORT $LN111@LoadString@4
$LN80@LoadString@4:
  00189	c6 45 f4 ed	 mov	 BYTE PTR __k$[ebp+16], -19 ; ffffffedH
  0018d	eb 5b		 jmp	 SHORT $LN111@LoadString@4
$LN81@LoadString@4:
  0018f	c6 45 f3 ea	 mov	 BYTE PTR __k$[ebp+15], -22 ; ffffffeaH
  00193	eb 55		 jmp	 SHORT $LN111@LoadString@4
$LN82@LoadString@4:
  00195	88 4d f2	 mov	 BYTE PTR __k$[ebp+14], cl
  00198	eb 50		 jmp	 SHORT $LN111@LoadString@4
$LN83@LoadString@4:
  0019a	c6 45 f1 ec	 mov	 BYTE PTR __k$[ebp+13], -20 ; ffffffecH
  0019e	eb 4a		 jmp	 SHORT $LN111@LoadString@4
$LN84@LoadString@4:
  001a0	c6 45 f0 ed	 mov	 BYTE PTR __k$[ebp+12], -19 ; ffffffedH
  001a4	eb 44		 jmp	 SHORT $LN111@LoadString@4
$LN85@LoadString@4:
  001a6	c6 45 ef ea	 mov	 BYTE PTR __k$[ebp+11], -22 ; ffffffeaH
  001aa	eb 3e		 jmp	 SHORT $LN111@LoadString@4
$LN86@LoadString@4:
  001ac	88 4d ee	 mov	 BYTE PTR __k$[ebp+10], cl
  001af	eb 39		 jmp	 SHORT $LN111@LoadString@4
$LN87@LoadString@4:
  001b1	c6 45 ed ec	 mov	 BYTE PTR __k$[ebp+9], -20 ; ffffffecH
  001b5	eb 33		 jmp	 SHORT $LN111@LoadString@4
$LN88@LoadString@4:
  001b7	c6 45 ec ed	 mov	 BYTE PTR __k$[ebp+8], -19 ; ffffffedH
  001bb	eb 2d		 jmp	 SHORT $LN111@LoadString@4
$LN89@LoadString@4:
  001bd	c6 45 eb ea	 mov	 BYTE PTR __k$[ebp+7], -22 ; ffffffeaH
  001c1	eb 27		 jmp	 SHORT $LN111@LoadString@4
$LN90@LoadString@4:
  001c3	88 4d ea	 mov	 BYTE PTR __k$[ebp+6], cl
  001c6	eb 22		 jmp	 SHORT $LN111@LoadString@4
$LN91@LoadString@4:
  001c8	c6 45 e9 ec	 mov	 BYTE PTR __k$[ebp+5], -20 ; ffffffecH
  001cc	eb 1c		 jmp	 SHORT $LN111@LoadString@4
$LN92@LoadString@4:
  001ce	c6 45 e8 ed	 mov	 BYTE PTR __k$[ebp+4], -19 ; ffffffedH
  001d2	eb 16		 jmp	 SHORT $LN111@LoadString@4
$LN93@LoadString@4:
  001d4	c6 45 e7 ea	 mov	 BYTE PTR __k$[ebp+3], -22 ; ffffffeaH
  001d8	eb 10		 jmp	 SHORT $LN111@LoadString@4
$LN94@LoadString@4:
  001da	c6 45 e6 eb	 mov	 BYTE PTR __k$[ebp+2], -21 ; ffffffebH
  001de	eb 0a		 jmp	 SHORT $LN111@LoadString@4
$LN95@LoadString@4:
  001e0	c6 45 e5 ec	 mov	 BYTE PTR __k$[ebp+1], -20 ; ffffffecH
  001e4	eb 04		 jmp	 SHORT $LN111@LoadString@4
$LN96@LoadString@4:
  001e6	c6 45 e4 ed	 mov	 BYTE PTR __k$[ebp], -19	; ffffffedH
$LN111@LoadString@4:
  001ea	6a 04		 push	 4
  001ec	8d 45 e4	 lea	 eax, DWORD PTR __k$[ebp]
  001ef	c6 45 f5 00	 mov	 BYTE PTR __k$[ebp+17], 0
  001f3	5a		 pop	 edx
$LL104@LoadString@4:
  001f4	81 30 ed ec eb
	ea		 xor	 DWORD PTR [eax], -353637139 ; eaebecedH
  001fa	83 c0 04	 add	 eax, 4
  001fd	4a		 dec	 edx
  001fe	75 f4		 jne	 SHORT $LL104@LoadString@4

; 163  : 		LoadString(_k, d, b, i);

  00200	ff 75 14	 push	 DWORD PTR _i$[ebp]
  00203	8b 4d e0	 mov	 ecx, DWORD PTR _this$GSCopy$[ebp]
  00206	80 75 f4 ed	 xor	 BYTE PTR __k$[ebp+16], -19 ; ffffffedH
  0020a	57		 push	 edi
  0020b	56		 push	 esi
  0020c	8d 45 e4	 lea	 eax, DWORD PTR __k$[ebp]
  0020f	50		 push	 eax
  00210	ff 15 00 00 00
	00		 call	 DWORD PTR __imp_?LoadStringA@ioINILoader@@QAEXPBD0PADH@Z

; 164  : 	}

  00216	8b 4d fc	 mov	 ecx, DWORD PTR __$ArrayPad$[ebp]
  00219	5f		 pop	 edi
  0021a	33 cd		 xor	 ecx, ebp
  0021c	5e		 pop	 esi
  0021d	e8 00 00 00 00	 call	 @__security_check_cookie@4
  00222	c9		 leave
  00223	c2 10 00	 ret	 16			; 00000010H
??$LoadString_e@$0BC@@ioINILoader@@QAEXAAY0BC@$$CBDAAY00$$CBDPADH@Z ENDP ; ioINILoader::LoadString_e<18>
_TEXT	ENDS
PUBLIC	__$ArrayPad$
PUBLIC	??$LoadFloat_e@$0BH@@ioINILoader@@QAEMAAY0BH@$$CBDM@Z ; ioINILoader::LoadFloat_e<23>
EXTRN	__imp_?LoadFloat@ioINILoader@@QAEMPBDM@Z:PROC
; Function compile flags: /Ogsp
;	COMDAT ??$LoadFloat_e@$0BH@@ioINILoader@@QAEMAAY0BH@$$CBDM@Z
_TEXT	SEGMENT
__k$ = -32						; size = 23
__$ArrayPad$ = -4					; size = 4
_k$ = 8							; size = 4
_f$ = 12						; size = 4
??$LoadFloat_e@$0BH@@ioINILoader@@QAEMAAY0BH@$$CBDM@Z PROC ; ioINILoader::LoadFloat_e<23>, COMDAT
; _this$ = ecx

; 135  : 	{

  00000	55		 push	 ebp
  00001	8b ec		 mov	 ebp, esp
  00003	83 ec 20	 sub	 esp, 32			; 00000020H
  00006	a1 00 00 00 00	 mov	 eax, DWORD PTR ___security_cookie
  0000b	33 c5		 xor	 eax, ebp
  0000d	89 45 fc	 mov	 DWORD PTR __$ArrayPad$[ebp], eax
  00010	8b 45 08	 mov	 eax, DWORD PTR _k$[ebp]

; 136  : 		_ENCSTR(k, _k);

  00013	8a 10		 mov	 dl, BYTE PTR [eax]
  00015	53		 push	 ebx
  00016	56		 push	 esi
  00017	8b f1		 mov	 esi, ecx
  00019	84 d2		 test	 dl, dl
  0001b	0f 84 2d 02 00
	00		 je	 $LN96@LoadFloat_
  00021	80 f2 ed	 xor	 dl, -19			; ffffffedH
  00024	88 55 e0	 mov	 BYTE PTR __k$[ebp], dl
  00027	8a 50 01	 mov	 dl, BYTE PTR [eax+1]
  0002a	84 d2		 test	 dl, dl
  0002c	0f 84 16 02 00
	00		 je	 $LN95@LoadFloat_
  00032	b1 ec		 mov	 cl, -20			; ffffffecH
  00034	32 d1		 xor	 dl, cl
  00036	88 55 e1	 mov	 BYTE PTR __k$[ebp+1], dl
  00039	8a 50 02	 mov	 dl, BYTE PTR [eax+2]
  0003c	84 d2		 test	 dl, dl
  0003e	0f 84 fe 01 00
	00		 je	 $LN94@LoadFloat_
  00044	80 f2 eb	 xor	 dl, -21			; ffffffebH
  00047	88 55 e2	 mov	 BYTE PTR __k$[ebp+2], dl
  0004a	8a 50 03	 mov	 dl, BYTE PTR [eax+3]
  0004d	84 d2		 test	 dl, dl
  0004f	0f 84 e7 01 00
	00		 je	 $LN93@LoadFloat_
  00055	b3 ea		 mov	 bl, -22			; ffffffeaH
  00057	32 d3		 xor	 dl, bl
  00059	88 55 e3	 mov	 BYTE PTR __k$[ebp+3], dl
  0005c	8a 50 04	 mov	 dl, BYTE PTR [eax+4]
  0005f	84 d2		 test	 dl, dl
  00061	0f 84 cf 01 00
	00		 je	 $LN92@LoadFloat_
  00067	80 f2 ed	 xor	 dl, -19			; ffffffedH
  0006a	88 55 e4	 mov	 BYTE PTR __k$[ebp+4], dl
  0006d	8a 50 05	 mov	 dl, BYTE PTR [eax+5]
  00070	84 d2		 test	 dl, dl
  00072	0f 84 b9 01 00
	00		 je	 $LN91@LoadFloat_
  00078	32 d1		 xor	 dl, cl
  0007a	88 55 e5	 mov	 BYTE PTR __k$[ebp+5], dl
  0007d	8a 50 06	 mov	 dl, BYTE PTR [eax+6]
  00080	84 d2		 test	 dl, dl
  00082	0f 84 a3 01 00
	00		 je	 $LN90@LoadFloat_
  00088	80 f2 eb	 xor	 dl, -21			; ffffffebH
  0008b	88 55 e6	 mov	 BYTE PTR __k$[ebp+6], dl
  0008e	8a 50 07	 mov	 dl, BYTE PTR [eax+7]
  00091	84 d2		 test	 dl, dl
  00093	0f 84 8d 01 00
	00		 je	 $LN89@LoadFloat_
  00099	32 d3		 xor	 dl, bl
  0009b	88 55 e7	 mov	 BYTE PTR __k$[ebp+7], dl
  0009e	8a 50 08	 mov	 dl, BYTE PTR [eax+8]
  000a1	84 d2		 test	 dl, dl
  000a3	0f 84 77 01 00
	00		 je	 $LN88@LoadFloat_
  000a9	80 f2 ed	 xor	 dl, -19			; ffffffedH
  000ac	88 55 e8	 mov	 BYTE PTR __k$[ebp+8], dl
  000af	8a 50 09	 mov	 dl, BYTE PTR [eax+9]
  000b2	84 d2		 test	 dl, dl
  000b4	0f 84 61 01 00
	00		 je	 $LN87@LoadFloat_
  000ba	32 d1		 xor	 dl, cl
  000bc	88 55 e9	 mov	 BYTE PTR __k$[ebp+9], dl
  000bf	8a 50 0a	 mov	 dl, BYTE PTR [eax+10]
  000c2	84 d2		 test	 dl, dl
  000c4	0f 84 4b 01 00
	00		 je	 $LN86@LoadFloat_
  000ca	80 f2 eb	 xor	 dl, -21			; ffffffebH
  000cd	88 55 ea	 mov	 BYTE PTR __k$[ebp+10], dl
  000d0	8a 50 0b	 mov	 dl, BYTE PTR [eax+11]
  000d3	84 d2		 test	 dl, dl
  000d5	0f 84 35 01 00
	00		 je	 $LN85@LoadFloat_
  000db	32 d3		 xor	 dl, bl
  000dd	88 55 eb	 mov	 BYTE PTR __k$[ebp+11], dl
  000e0	8a 50 0c	 mov	 dl, BYTE PTR [eax+12]
  000e3	84 d2		 test	 dl, dl
  000e5	0f 84 1f 01 00
	00		 je	 $LN84@LoadFloat_
  000eb	80 f2 ed	 xor	 dl, -19			; ffffffedH
  000ee	88 55 ec	 mov	 BYTE PTR __k$[ebp+12], dl
  000f1	8a 50 0d	 mov	 dl, BYTE PTR [eax+13]
  000f4	84 d2		 test	 dl, dl
  000f6	0f 84 09 01 00
	00		 je	 $LN83@LoadFloat_
  000fc	32 d1		 xor	 dl, cl
  000fe	88 55 ed	 mov	 BYTE PTR __k$[ebp+13], dl
  00101	8a 50 0e	 mov	 dl, BYTE PTR [eax+14]
  00104	84 d2		 test	 dl, dl
  00106	0f 84 f3 00 00
	00		 je	 $LN82@LoadFloat_
  0010c	80 f2 eb	 xor	 dl, -21			; ffffffebH
  0010f	88 55 ee	 mov	 BYTE PTR __k$[ebp+14], dl
  00112	8a 50 0f	 mov	 dl, BYTE PTR [eax+15]
  00115	84 d2		 test	 dl, dl
  00117	0f 84 dd 00 00
	00		 je	 $LN81@LoadFloat_
  0011d	32 d3		 xor	 dl, bl
  0011f	88 55 ef	 mov	 BYTE PTR __k$[ebp+15], dl
  00122	8a 50 10	 mov	 dl, BYTE PTR [eax+16]
  00125	84 d2		 test	 dl, dl
  00127	0f 84 c7 00 00
	00		 je	 $LN80@LoadFloat_
  0012d	80 f2 ed	 xor	 dl, -19			; ffffffedH
  00130	88 55 f0	 mov	 BYTE PTR __k$[ebp+16], dl
  00133	8a 50 11	 mov	 dl, BYTE PTR [eax+17]
  00136	84 d2		 test	 dl, dl
  00138	0f 84 b1 00 00
	00		 je	 $LN79@LoadFloat_
  0013e	32 d1		 xor	 dl, cl
  00140	88 55 f1	 mov	 BYTE PTR __k$[ebp+17], dl
  00143	8a 50 12	 mov	 dl, BYTE PTR [eax+18]
  00146	84 d2		 test	 dl, dl
  00148	0f 84 9b 00 00
	00		 je	 $LN78@LoadFloat_
  0014e	80 f2 eb	 xor	 dl, -21			; ffffffebH
  00151	88 55 f2	 mov	 BYTE PTR __k$[ebp+18], dl
  00154	8a 50 13	 mov	 dl, BYTE PTR [eax+19]
  00157	84 d2		 test	 dl, dl
  00159	0f 84 85 00 00
	00		 je	 $LN77@LoadFloat_
  0015f	32 d3		 xor	 dl, bl
  00161	88 55 f3	 mov	 BYTE PTR __k$[ebp+19], dl
  00164	8a 50 14	 mov	 dl, BYTE PTR [eax+20]
  00167	84 d2		 test	 dl, dl
  00169	74 73		 je	 SHORT $LN76@LoadFloat_
  0016b	80 f2 ed	 xor	 dl, -19			; ffffffedH
  0016e	88 55 f4	 mov	 BYTE PTR __k$[ebp+20], dl
  00171	8a 50 15	 mov	 dl, BYTE PTR [eax+21]
  00174	84 d2		 test	 dl, dl
  00176	74 61		 je	 SHORT $LN75@LoadFloat_
  00178	32 d1		 xor	 dl, cl
  0017a	80 78 16 00	 cmp	 BYTE PTR [eax+22], 0
  0017e	88 55 f5	 mov	 BYTE PTR __k$[ebp+21], dl
  00181	0f 84 cb 00 00
	00		 je	 $LN1@LoadFloat_
  00187	8a 50 17	 mov	 dl, BYTE PTR [eax+23]
  0018a	84 d2		 test	 dl, dl
  0018c	74 46		 je	 SHORT $LN73@LoadFloat_
  0018e	32 d3		 xor	 dl, bl
  00190	88 55 f7	 mov	 BYTE PTR __k$[ebp+23], dl
  00193	8a 50 18	 mov	 dl, BYTE PTR [eax+24]
  00196	84 d2		 test	 dl, dl
  00198	74 34		 je	 SHORT $LN72@LoadFloat_
  0019a	80 f2 ed	 xor	 dl, -19			; ffffffedH
  0019d	88 55 f8	 mov	 BYTE PTR __k$[ebp+24], dl
  001a0	8a 50 19	 mov	 dl, BYTE PTR [eax+25]
  001a3	84 d2		 test	 dl, dl
  001a5	74 1f		 je	 SHORT $LN71@LoadFloat_
  001a7	8a 40 1a	 mov	 al, BYTE PTR [eax+26]
  001aa	32 d1		 xor	 dl, cl
  001ac	88 55 f9	 mov	 BYTE PTR __k$[ebp+25], dl
  001af	84 c0		 test	 al, al
  001b1	74 0a		 je	 SHORT $LN70@LoadFloat_
  001b3	34 eb		 xor	 al, -21			; ffffffebH
  001b5	88 45 fa	 mov	 BYTE PTR __k$[ebp+26], al
  001b8	e9 95 00 00 00	 jmp	 $LN1@LoadFloat_
$LN70@LoadFloat_:
  001bd	c6 45 fa eb	 mov	 BYTE PTR __k$[ebp+26], -21 ; ffffffebH
  001c1	e9 8c 00 00 00	 jmp	 $LN1@LoadFloat_
$LN71@LoadFloat_:
  001c6	88 4d f9	 mov	 BYTE PTR __k$[ebp+25], cl
  001c9	e9 84 00 00 00	 jmp	 $LN1@LoadFloat_
$LN72@LoadFloat_:
  001ce	c6 45 f8 ed	 mov	 BYTE PTR __k$[ebp+24], -19 ; ffffffedH
  001d2	eb 7e		 jmp	 SHORT $LN1@LoadFloat_
$LN73@LoadFloat_:
  001d4	88 5d f7	 mov	 BYTE PTR __k$[ebp+23], bl
  001d7	eb 79		 jmp	 SHORT $LN1@LoadFloat_
$LN75@LoadFloat_:
  001d9	88 4d f5	 mov	 BYTE PTR __k$[ebp+21], cl
  001dc	eb 74		 jmp	 SHORT $LN1@LoadFloat_
$LN76@LoadFloat_:
  001de	c6 45 f4 ed	 mov	 BYTE PTR __k$[ebp+20], -19 ; ffffffedH
  001e2	eb 6e		 jmp	 SHORT $LN1@LoadFloat_
$LN77@LoadFloat_:
  001e4	88 5d f3	 mov	 BYTE PTR __k$[ebp+19], bl
  001e7	eb 69		 jmp	 SHORT $LN1@LoadFloat_
$LN78@LoadFloat_:
  001e9	c6 45 f2 eb	 mov	 BYTE PTR __k$[ebp+18], -21 ; ffffffebH
  001ed	eb 63		 jmp	 SHORT $LN1@LoadFloat_
$LN79@LoadFloat_:
  001ef	88 4d f1	 mov	 BYTE PTR __k$[ebp+17], cl
  001f2	eb 5e		 jmp	 SHORT $LN1@LoadFloat_
$LN80@LoadFloat_:
  001f4	c6 45 f0 ed	 mov	 BYTE PTR __k$[ebp+16], -19 ; ffffffedH
  001f8	eb 58		 jmp	 SHORT $LN1@LoadFloat_
$LN81@LoadFloat_:
  001fa	88 5d ef	 mov	 BYTE PTR __k$[ebp+15], bl
  001fd	eb 53		 jmp	 SHORT $LN1@LoadFloat_
$LN82@LoadFloat_:
  001ff	c6 45 ee eb	 mov	 BYTE PTR __k$[ebp+14], -21 ; ffffffebH
  00203	eb 4d		 jmp	 SHORT $LN1@LoadFloat_
$LN83@LoadFloat_:
  00205	88 4d ed	 mov	 BYTE PTR __k$[ebp+13], cl
  00208	eb 48		 jmp	 SHORT $LN1@LoadFloat_
$LN84@LoadFloat_:
  0020a	c6 45 ec ed	 mov	 BYTE PTR __k$[ebp+12], -19 ; ffffffedH
  0020e	eb 42		 jmp	 SHORT $LN1@LoadFloat_
$LN85@LoadFloat_:
  00210	88 5d eb	 mov	 BYTE PTR __k$[ebp+11], bl
  00213	eb 3d		 jmp	 SHORT $LN1@LoadFloat_
$LN86@LoadFloat_:
  00215	c6 45 ea eb	 mov	 BYTE PTR __k$[ebp+10], -21 ; ffffffebH
  00219	eb 37		 jmp	 SHORT $LN1@LoadFloat_
$LN87@LoadFloat_:
  0021b	88 4d e9	 mov	 BYTE PTR __k$[ebp+9], cl
  0021e	eb 32		 jmp	 SHORT $LN1@LoadFloat_
$LN88@LoadFloat_:
  00220	c6 45 e8 ed	 mov	 BYTE PTR __k$[ebp+8], -19 ; ffffffedH
  00224	eb 2c		 jmp	 SHORT $LN1@LoadFloat_
$LN89@LoadFloat_:
  00226	88 5d e7	 mov	 BYTE PTR __k$[ebp+7], bl
  00229	eb 27		 jmp	 SHORT $LN1@LoadFloat_
$LN90@LoadFloat_:
  0022b	c6 45 e6 eb	 mov	 BYTE PTR __k$[ebp+6], -21 ; ffffffebH
  0022f	eb 21		 jmp	 SHORT $LN1@LoadFloat_
$LN91@LoadFloat_:
  00231	88 4d e5	 mov	 BYTE PTR __k$[ebp+5], cl
  00234	eb 1c		 jmp	 SHORT $LN1@LoadFloat_
$LN92@LoadFloat_:
  00236	c6 45 e4 ed	 mov	 BYTE PTR __k$[ebp+4], -19 ; ffffffedH
  0023a	eb 16		 jmp	 SHORT $LN1@LoadFloat_
$LN93@LoadFloat_:
  0023c	c6 45 e3 ea	 mov	 BYTE PTR __k$[ebp+3], -22 ; ffffffeaH
  00240	eb 10		 jmp	 SHORT $LN1@LoadFloat_
$LN94@LoadFloat_:
  00242	c6 45 e2 eb	 mov	 BYTE PTR __k$[ebp+2], -21 ; ffffffebH
  00246	eb 0a		 jmp	 SHORT $LN1@LoadFloat_
$LN95@LoadFloat_:
  00248	c6 45 e1 ec	 mov	 BYTE PTR __k$[ebp+1], -20 ; ffffffecH
  0024c	eb 04		 jmp	 SHORT $LN1@LoadFloat_
$LN96@LoadFloat_:
  0024e	c6 45 e0 ed	 mov	 BYTE PTR __k$[ebp], -19	; ffffffedH
$LN1@LoadFloat_:
  00252	6a 05		 push	 5
  00254	8d 45 e0	 lea	 eax, DWORD PTR __k$[ebp]
  00257	c6 45 f6 00	 mov	 BYTE PTR __k$[ebp+22], 0
  0025b	5a		 pop	 edx
$LL104@LoadFloat_:
  0025c	81 30 ed ec eb
	ea		 xor	 DWORD PTR [eax], -353637139 ; eaebecedH
  00262	83 c0 04	 add	 eax, 4
  00265	4a		 dec	 edx
  00266	75 f4		 jne	 SHORT $LL104@LoadFloat_
  00268	6a 14		 push	 20			; 00000014H
  0026a	58		 pop	 eax
$LL101@LoadFloat_:
  0026b	8b c8		 mov	 ecx, eax
  0026d	81 e1 03 00 00
	80		 and	 ecx, -2147483645	; 80000003H
  00273	79 05		 jns	 SHORT $LN111@LoadFloat_
  00275	49		 dec	 ecx
  00276	83 c9 fc	 or	 ecx, -4			; fffffffcH
  00279	41		 inc	 ecx
$LN111@LoadFloat_:
  0027a	b2 ed		 mov	 dl, -19			; ffffffedH
  0027c	2a d1		 sub	 dl, cl
  0027e	30 54 05 e0	 xor	 BYTE PTR __k$[ebp+eax], dl
  00282	40		 inc	 eax
  00283	83 f8 16	 cmp	 eax, 22			; 00000016H
  00286	7c e3		 jl	 SHORT $LL101@LoadFloat_

; 137  : 		return LoadFloat(_k, f);

  00288	f3 0f 10 45 0c	 movss	 xmm0, DWORD PTR _f$[ebp]
  0028d	51		 push	 ecx
  0028e	8d 45 e0	 lea	 eax, DWORD PTR __k$[ebp]
  00291	f3 0f 11 04 24	 movss	 DWORD PTR [esp], xmm0
  00296	50		 push	 eax
  00297	8b ce		 mov	 ecx, esi
  00299	ff 15 00 00 00
	00		 call	 DWORD PTR __imp_?LoadFloat@ioINILoader@@QAEMPBDM@Z

; 138  : 	}

  0029f	8b 4d fc	 mov	 ecx, DWORD PTR __$ArrayPad$[ebp]
  002a2	5e		 pop	 esi
  002a3	33 cd		 xor	 ecx, ebp
  002a5	5b		 pop	 ebx
  002a6	e8 00 00 00 00	 call	 @__security_check_cookie@4
  002ab	c9		 leave
  002ac	c2 08 00	 ret	 8
??$LoadFloat_e@$0BH@@ioINILoader@@QAEMAAY0BH@$$CBDM@Z ENDP ; ioINILoader::LoadFloat_e<23>
_TEXT	ENDS
PUBLIC	__$ArrayPad$
PUBLIC	??$LoadInt_e@$0BE@@ioINILoader@@QAEHAAY0BE@$$CBDH@Z ; ioINILoader::LoadInt_e<20>
; Function compile flags: /Ogsp
;	COMDAT ??$LoadInt_e@$0BE@@ioINILoader@@QAEHAAY0BE@$$CBDH@Z
_TEXT	SEGMENT
__k$ = -28						; size = 20
__$ArrayPad$ = -4					; size = 4
_k$ = 8							; size = 4
_i$ = 12						; size = 4
??$LoadInt_e@$0BE@@ioINILoader@@QAEHAAY0BE@$$CBDH@Z PROC ; ioINILoader::LoadInt_e<20>, COMDAT
; _this$ = ecx

; 118  : 	{

  00000	55		 push	 ebp
  00001	8b ec		 mov	 ebp, esp
  00003	83 ec 1c	 sub	 esp, 28			; 0000001cH
  00006	a1 00 00 00 00	 mov	 eax, DWORD PTR ___security_cookie
  0000b	33 c5		 xor	 eax, ebp
  0000d	89 45 fc	 mov	 DWORD PTR __$ArrayPad$[ebp], eax
  00010	8b 45 08	 mov	 eax, DWORD PTR _k$[ebp]

; 119  : 		_ENCSTR(k, _k);

  00013	8a 10		 mov	 dl, BYTE PTR [eax]
  00015	53		 push	 ebx
  00016	56		 push	 esi
  00017	8b f1		 mov	 esi, ecx
  00019	84 d2		 test	 dl, dl
  0001b	0f 84 dd 01 00
	00		 je	 $LN96@LoadInt_e@2
  00021	80 f2 ed	 xor	 dl, -19			; ffffffedH
  00024	88 55 e4	 mov	 BYTE PTR __k$[ebp], dl
  00027	8a 50 01	 mov	 dl, BYTE PTR [eax+1]
  0002a	84 d2		 test	 dl, dl
  0002c	0f 84 c6 01 00
	00		 je	 $LN95@LoadInt_e@2
  00032	b3 ec		 mov	 bl, -20			; ffffffecH
  00034	32 d3		 xor	 dl, bl
  00036	88 55 e5	 mov	 BYTE PTR __k$[ebp+1], dl
  00039	8a 50 02	 mov	 dl, BYTE PTR [eax+2]
  0003c	84 d2		 test	 dl, dl
  0003e	0f 84 ae 01 00
	00		 je	 $LN94@LoadInt_e@2
  00044	b1 eb		 mov	 cl, -21			; ffffffebH
  00046	32 d1		 xor	 dl, cl
  00048	88 55 e6	 mov	 BYTE PTR __k$[ebp+2], dl
  0004b	8a 50 03	 mov	 dl, BYTE PTR [eax+3]
  0004e	84 d2		 test	 dl, dl
  00050	0f 84 96 01 00
	00		 je	 $LN93@LoadInt_e@2
  00056	80 f2 ea	 xor	 dl, -22			; ffffffeaH
  00059	88 55 e7	 mov	 BYTE PTR __k$[ebp+3], dl
  0005c	8a 50 04	 mov	 dl, BYTE PTR [eax+4]
  0005f	84 d2		 test	 dl, dl
  00061	0f 84 7f 01 00
	00		 je	 $LN92@LoadInt_e@2
  00067	80 f2 ed	 xor	 dl, -19			; ffffffedH
  0006a	88 55 e8	 mov	 BYTE PTR __k$[ebp+4], dl
  0006d	8a 50 05	 mov	 dl, BYTE PTR [eax+5]
  00070	84 d2		 test	 dl, dl
  00072	0f 84 69 01 00
	00		 je	 $LN91@LoadInt_e@2
  00078	32 d3		 xor	 dl, bl
  0007a	88 55 e9	 mov	 BYTE PTR __k$[ebp+5], dl
  0007d	8a 50 06	 mov	 dl, BYTE PTR [eax+6]
  00080	84 d2		 test	 dl, dl
  00082	0f 84 54 01 00
	00		 je	 $LN90@LoadInt_e@2
  00088	32 d1		 xor	 dl, cl
  0008a	88 55 ea	 mov	 BYTE PTR __k$[ebp+6], dl
  0008d	8a 50 07	 mov	 dl, BYTE PTR [eax+7]
  00090	84 d2		 test	 dl, dl
  00092	0f 84 3e 01 00
	00		 je	 $LN89@LoadInt_e@2
  00098	80 f2 ea	 xor	 dl, -22			; ffffffeaH
  0009b	88 55 eb	 mov	 BYTE PTR __k$[ebp+7], dl
  0009e	8a 50 08	 mov	 dl, BYTE PTR [eax+8]
  000a1	84 d2		 test	 dl, dl
  000a3	0f 84 27 01 00
	00		 je	 $LN88@LoadInt_e@2
  000a9	80 f2 ed	 xor	 dl, -19			; ffffffedH
  000ac	88 55 ec	 mov	 BYTE PTR __k$[ebp+8], dl
  000af	8a 50 09	 mov	 dl, BYTE PTR [eax+9]
  000b2	84 d2		 test	 dl, dl
  000b4	0f 84 11 01 00
	00		 je	 $LN87@LoadInt_e@2
  000ba	32 d3		 xor	 dl, bl
  000bc	88 55 ed	 mov	 BYTE PTR __k$[ebp+9], dl
  000bf	8a 50 0a	 mov	 dl, BYTE PTR [eax+10]
  000c2	84 d2		 test	 dl, dl
  000c4	0f 84 fc 00 00
	00		 je	 $LN86@LoadInt_e@2
  000ca	32 d1		 xor	 dl, cl
  000cc	88 55 ee	 mov	 BYTE PTR __k$[ebp+10], dl
  000cf	8a 50 0b	 mov	 dl, BYTE PTR [eax+11]
  000d2	84 d2		 test	 dl, dl
  000d4	0f 84 e6 00 00
	00		 je	 $LN85@LoadInt_e@2
  000da	80 f2 ea	 xor	 dl, -22			; ffffffeaH
  000dd	88 55 ef	 mov	 BYTE PTR __k$[ebp+11], dl
  000e0	8a 50 0c	 mov	 dl, BYTE PTR [eax+12]
  000e3	84 d2		 test	 dl, dl
  000e5	0f 84 cf 00 00
	00		 je	 $LN84@LoadInt_e@2
  000eb	80 f2 ed	 xor	 dl, -19			; ffffffedH
  000ee	88 55 f0	 mov	 BYTE PTR __k$[ebp+12], dl
  000f1	8a 50 0d	 mov	 dl, BYTE PTR [eax+13]
  000f4	84 d2		 test	 dl, dl
  000f6	0f 84 b9 00 00
	00		 je	 $LN83@LoadInt_e@2
  000fc	32 d3		 xor	 dl, bl
  000fe	88 55 f1	 mov	 BYTE PTR __k$[ebp+13], dl
  00101	8a 50 0e	 mov	 dl, BYTE PTR [eax+14]
  00104	84 d2		 test	 dl, dl
  00106	0f 84 a4 00 00
	00		 je	 $LN82@LoadInt_e@2
  0010c	32 d1		 xor	 dl, cl
  0010e	88 55 f2	 mov	 BYTE PTR __k$[ebp+14], dl
  00111	8a 50 0f	 mov	 dl, BYTE PTR [eax+15]
  00114	84 d2		 test	 dl, dl
  00116	0f 84 8e 00 00
	00		 je	 $LN81@LoadInt_e@2
  0011c	80 f2 ea	 xor	 dl, -22			; ffffffeaH
  0011f	88 55 f3	 mov	 BYTE PTR __k$[ebp+15], dl
  00122	8a 50 10	 mov	 dl, BYTE PTR [eax+16]
  00125	84 d2		 test	 dl, dl
  00127	74 7b		 je	 SHORT $LN80@LoadInt_e@2
  00129	80 f2 ed	 xor	 dl, -19			; ffffffedH
  0012c	88 55 f4	 mov	 BYTE PTR __k$[ebp+16], dl
  0012f	8a 50 11	 mov	 dl, BYTE PTR [eax+17]
  00132	84 d2		 test	 dl, dl
  00134	74 69		 je	 SHORT $LN79@LoadInt_e@2
  00136	32 d3		 xor	 dl, bl
  00138	88 55 f5	 mov	 BYTE PTR __k$[ebp+17], dl
  0013b	8a 50 12	 mov	 dl, BYTE PTR [eax+18]
  0013e	84 d2		 test	 dl, dl
  00140	74 58		 je	 SHORT $LN78@LoadInt_e@2
  00142	32 d1		 xor	 dl, cl
  00144	80 78 13 00	 cmp	 BYTE PTR [eax+19], 0
  00148	88 55 f6	 mov	 BYTE PTR __k$[ebp+18], dl
  0014b	0f 84 b1 00 00
	00		 je	 $LN1@LoadInt_e@2
  00151	8a 50 14	 mov	 dl, BYTE PTR [eax+20]
  00154	84 d2		 test	 dl, dl
  00156	74 3c		 je	 SHORT $LN76@LoadInt_e@2
  00158	80 f2 ed	 xor	 dl, -19			; ffffffedH
  0015b	88 55 f8	 mov	 BYTE PTR __k$[ebp+20], dl
  0015e	8a 50 15	 mov	 dl, BYTE PTR [eax+21]
  00161	84 d2		 test	 dl, dl
  00163	74 2a		 je	 SHORT $LN75@LoadInt_e@2
  00165	32 d3		 xor	 dl, bl
  00167	88 55 f9	 mov	 BYTE PTR __k$[ebp+21], dl
  0016a	8a 50 16	 mov	 dl, BYTE PTR [eax+22]
  0016d	84 d2		 test	 dl, dl
  0016f	74 19		 je	 SHORT $LN74@LoadInt_e@2
  00171	8a 40 17	 mov	 al, BYTE PTR [eax+23]
  00174	32 d1		 xor	 dl, cl
  00176	88 55 fa	 mov	 BYTE PTR __k$[ebp+22], dl
  00179	84 c0		 test	 al, al
  0017b	74 07		 je	 SHORT $LN73@LoadInt_e@2
  0017d	34 ea		 xor	 al, -22			; ffffffeaH
  0017f	88 45 fb	 mov	 BYTE PTR __k$[ebp+23], al
  00182	eb 7e		 jmp	 SHORT $LN1@LoadInt_e@2
$LN73@LoadInt_e@2:
  00184	c6 45 fb ea	 mov	 BYTE PTR __k$[ebp+23], -22 ; ffffffeaH
  00188	eb 78		 jmp	 SHORT $LN1@LoadInt_e@2
$LN74@LoadInt_e@2:
  0018a	88 4d fa	 mov	 BYTE PTR __k$[ebp+22], cl
  0018d	eb 73		 jmp	 SHORT $LN1@LoadInt_e@2
$LN75@LoadInt_e@2:
  0018f	88 5d f9	 mov	 BYTE PTR __k$[ebp+21], bl
  00192	eb 6e		 jmp	 SHORT $LN1@LoadInt_e@2
$LN76@LoadInt_e@2:
  00194	c6 45 f8 ed	 mov	 BYTE PTR __k$[ebp+20], -19 ; ffffffedH
  00198	eb 68		 jmp	 SHORT $LN1@LoadInt_e@2
$LN78@LoadInt_e@2:
  0019a	88 4d f6	 mov	 BYTE PTR __k$[ebp+18], cl
  0019d	eb 63		 jmp	 SHORT $LN1@LoadInt_e@2
$LN79@LoadInt_e@2:
  0019f	88 5d f5	 mov	 BYTE PTR __k$[ebp+17], bl
  001a2	eb 5e		 jmp	 SHORT $LN1@LoadInt_e@2
$LN80@LoadInt_e@2:
  001a4	c6 45 f4 ed	 mov	 BYTE PTR __k$[ebp+16], -19 ; ffffffedH
  001a8	eb 58		 jmp	 SHORT $LN1@LoadInt_e@2
$LN81@LoadInt_e@2:
  001aa	c6 45 f3 ea	 mov	 BYTE PTR __k$[ebp+15], -22 ; ffffffeaH
  001ae	eb 52		 jmp	 SHORT $LN1@LoadInt_e@2
$LN82@LoadInt_e@2:
  001b0	88 4d f2	 mov	 BYTE PTR __k$[ebp+14], cl
  001b3	eb 4d		 jmp	 SHORT $LN1@LoadInt_e@2
$LN83@LoadInt_e@2:
  001b5	88 5d f1	 mov	 BYTE PTR __k$[ebp+13], bl
  001b8	eb 48		 jmp	 SHORT $LN1@LoadInt_e@2
$LN84@LoadInt_e@2:
  001ba	c6 45 f0 ed	 mov	 BYTE PTR __k$[ebp+12], -19 ; ffffffedH
  001be	eb 42		 jmp	 SHORT $LN1@LoadInt_e@2
$LN85@LoadInt_e@2:
  001c0	c6 45 ef ea	 mov	 BYTE PTR __k$[ebp+11], -22 ; ffffffeaH
  001c4	eb 3c		 jmp	 SHORT $LN1@LoadInt_e@2
$LN86@LoadInt_e@2:
  001c6	88 4d ee	 mov	 BYTE PTR __k$[ebp+10], cl
  001c9	eb 37		 jmp	 SHORT $LN1@LoadInt_e@2
$LN87@LoadInt_e@2:
  001cb	88 5d ed	 mov	 BYTE PTR __k$[ebp+9], bl
  001ce	eb 32		 jmp	 SHORT $LN1@LoadInt_e@2
$LN88@LoadInt_e@2:
  001d0	c6 45 ec ed	 mov	 BYTE PTR __k$[ebp+8], -19 ; ffffffedH
  001d4	eb 2c		 jmp	 SHORT $LN1@LoadInt_e@2
$LN89@LoadInt_e@2:
  001d6	c6 45 eb ea	 mov	 BYTE PTR __k$[ebp+7], -22 ; ffffffeaH
  001da	eb 26		 jmp	 SHORT $LN1@LoadInt_e@2
$LN90@LoadInt_e@2:
  001dc	88 4d ea	 mov	 BYTE PTR __k$[ebp+6], cl
  001df	eb 21		 jmp	 SHORT $LN1@LoadInt_e@2
$LN91@LoadInt_e@2:
  001e1	88 5d e9	 mov	 BYTE PTR __k$[ebp+5], bl
  001e4	eb 1c		 jmp	 SHORT $LN1@LoadInt_e@2
$LN92@LoadInt_e@2:
  001e6	c6 45 e8 ed	 mov	 BYTE PTR __k$[ebp+4], -19 ; ffffffedH
  001ea	eb 16		 jmp	 SHORT $LN1@LoadInt_e@2
$LN93@LoadInt_e@2:
  001ec	c6 45 e7 ea	 mov	 BYTE PTR __k$[ebp+3], -22 ; ffffffeaH
  001f0	eb 10		 jmp	 SHORT $LN1@LoadInt_e@2
$LN94@LoadInt_e@2:
  001f2	c6 45 e6 eb	 mov	 BYTE PTR __k$[ebp+2], -21 ; ffffffebH
  001f6	eb 0a		 jmp	 SHORT $LN1@LoadInt_e@2
$LN95@LoadInt_e@2:
  001f8	c6 45 e5 ec	 mov	 BYTE PTR __k$[ebp+1], -20 ; ffffffecH
  001fc	eb 04		 jmp	 SHORT $LN1@LoadInt_e@2
$LN96@LoadInt_e@2:
  001fe	c6 45 e4 ed	 mov	 BYTE PTR __k$[ebp], -19	; ffffffedH
$LN1@LoadInt_e@2:
  00202	6a 04		 push	 4
  00204	8d 45 e4	 lea	 eax, DWORD PTR __k$[ebp]
  00207	c6 45 f7 00	 mov	 BYTE PTR __k$[ebp+19], 0
  0020b	5a		 pop	 edx
$LL104@LoadInt_e@2:
  0020c	81 30 ed ec eb
	ea		 xor	 DWORD PTR [eax], -353637139 ; eaebecedH
  00212	83 c0 04	 add	 eax, 4
  00215	4a		 dec	 edx
  00216	75 f4		 jne	 SHORT $LL104@LoadInt_e@2
  00218	6a 10		 push	 16			; 00000010H
  0021a	58		 pop	 eax
$LL101@LoadInt_e@2:
  0021b	8b c8		 mov	 ecx, eax
  0021d	81 e1 03 00 00
	80		 and	 ecx, -2147483645	; 80000003H
  00223	79 05		 jns	 SHORT $LN111@LoadInt_e@2
  00225	49		 dec	 ecx
  00226	83 c9 fc	 or	 ecx, -4			; fffffffcH
  00229	41		 inc	 ecx
$LN111@LoadInt_e@2:
  0022a	b2 ed		 mov	 dl, -19			; ffffffedH
  0022c	2a d1		 sub	 dl, cl
  0022e	30 54 05 e4	 xor	 BYTE PTR __k$[ebp+eax], dl
  00232	40		 inc	 eax
  00233	83 f8 13	 cmp	 eax, 19			; 00000013H
  00236	7c e3		 jl	 SHORT $LL101@LoadInt_e@2

; 120  : 		return LoadInt(_k, i);

  00238	ff 75 0c	 push	 DWORD PTR _i$[ebp]
  0023b	8d 45 e4	 lea	 eax, DWORD PTR __k$[ebp]
  0023e	50		 push	 eax
  0023f	8b ce		 mov	 ecx, esi
  00241	ff 15 00 00 00
	00		 call	 DWORD PTR __imp_?LoadInt@ioINILoader@@QAEHPBDH@Z

; 121  : 	}

  00247	8b 4d fc	 mov	 ecx, DWORD PTR __$ArrayPad$[ebp]
  0024a	5e		 pop	 esi
  0024b	33 cd		 xor	 ecx, ebp
  0024d	5b		 pop	 ebx
  0024e	e8 00 00 00 00	 call	 @__security_check_cookie@4
  00253	c9		 leave
  00254	c2 08 00	 ret	 8
??$LoadInt_e@$0BE@@ioINILoader@@QAEHAAY0BE@$$CBDH@Z ENDP ; ioINILoader::LoadInt_e<20>
_TEXT	ENDS
PUBLIC	__$ArrayPad$
PUBLIC	??$LoadAttackAttribute_e@$0BA@@@YAXAAY0BA@$$CBDAAUAttackAttribute@@AAVioINILoader@@@Z ; LoadAttackAttribute_e<16>
EXTRN	?LoadAttackAttribute@@YAXPBDAAUAttackAttribute@@AAVioINILoader@@@Z:PROC ; LoadAttackAttribute
; Function compile flags: /Ogsp
; File d:\lost saga for developer\youtube\tutorial\source\src\lsclient\ioattackattribute.h
;	COMDAT ??$LoadAttackAttribute_e@$0BA@@@YAXAAY0BA@$$CBDAAUAttackAttribute@@AAVioINILoader@@@Z
_TEXT	SEGMENT
_szEncAttack$ = -24					; size = 16
__$ArrayPad$ = -4					; size = 4
_szAttack$ = 8						; size = 4
_rkAttribute$ = 12					; size = 4
_rkLoader$ = 16						; size = 4
??$LoadAttackAttribute_e@$0BA@@@YAXAAY0BA@$$CBDAAUAttackAttribute@@AAVioINILoader@@@Z PROC ; LoadAttackAttribute_e<16>, COMDAT

; 131  : {

  00000	55		 push	 ebp
  00001	8b ec		 mov	 ebp, esp
  00003	83 ec 18	 sub	 esp, 24			; 00000018H
  00006	a1 00 00 00 00	 mov	 eax, DWORD PTR ___security_cookie
  0000b	33 c5		 xor	 eax, ebp
  0000d	89 45 fc	 mov	 DWORD PTR __$ArrayPad$[ebp], eax
  00010	8b 45 08	 mov	 eax, DWORD PTR _szAttack$[ebp]

; 132  : 	_ENCSTR(szAttack, szEncAttack);

  00013	8a 08		 mov	 cl, BYTE PTR [eax]
  00015	56		 push	 esi
  00016	8b 75 0c	 mov	 esi, DWORD PTR _rkAttribute$[ebp]
  00019	57		 push	 edi
  0001a	8b 7d 10	 mov	 edi, DWORD PTR _rkLoader$[ebp]
  0001d	84 c9		 test	 cl, cl
  0001f	0f 84 8c 01 00
	00		 je	 $LN96@LoadAttack
  00025	80 f1 ed	 xor	 cl, -19			; ffffffedH
  00028	88 4d e8	 mov	 BYTE PTR _szEncAttack$[ebp], cl
  0002b	8a 48 01	 mov	 cl, BYTE PTR [eax+1]
  0002e	84 c9		 test	 cl, cl
  00030	0f 84 75 01 00
	00		 je	 $LN95@LoadAttack
  00036	b2 ec		 mov	 dl, -20			; ffffffecH
  00038	32 ca		 xor	 cl, dl
  0003a	88 4d e9	 mov	 BYTE PTR _szEncAttack$[ebp+1], cl
  0003d	8a 48 02	 mov	 cl, BYTE PTR [eax+2]
  00040	84 c9		 test	 cl, cl
  00042	0f 84 5d 01 00
	00		 je	 $LN94@LoadAttack
  00048	80 f1 eb	 xor	 cl, -21			; ffffffebH
  0004b	88 4d ea	 mov	 BYTE PTR _szEncAttack$[ebp+2], cl
  0004e	8a 48 03	 mov	 cl, BYTE PTR [eax+3]
  00051	84 c9		 test	 cl, cl
  00053	0f 84 46 01 00
	00		 je	 $LN93@LoadAttack
  00059	80 f1 ea	 xor	 cl, -22			; ffffffeaH
  0005c	88 4d eb	 mov	 BYTE PTR _szEncAttack$[ebp+3], cl
  0005f	8a 48 04	 mov	 cl, BYTE PTR [eax+4]
  00062	84 c9		 test	 cl, cl
  00064	0f 84 2f 01 00
	00		 je	 $LN92@LoadAttack
  0006a	80 f1 ed	 xor	 cl, -19			; ffffffedH
  0006d	88 4d ec	 mov	 BYTE PTR _szEncAttack$[ebp+4], cl
  00070	8a 48 05	 mov	 cl, BYTE PTR [eax+5]
  00073	84 c9		 test	 cl, cl
  00075	0f 84 19 01 00
	00		 je	 $LN91@LoadAttack
  0007b	32 ca		 xor	 cl, dl
  0007d	88 4d ed	 mov	 BYTE PTR _szEncAttack$[ebp+5], cl
  00080	8a 48 06	 mov	 cl, BYTE PTR [eax+6]
  00083	84 c9		 test	 cl, cl
  00085	0f 84 03 01 00
	00		 je	 $LN90@LoadAttack
  0008b	80 f1 eb	 xor	 cl, -21			; ffffffebH
  0008e	88 4d ee	 mov	 BYTE PTR _szEncAttack$[ebp+6], cl
  00091	8a 48 07	 mov	 cl, BYTE PTR [eax+7]
  00094	84 c9		 test	 cl, cl
  00096	0f 84 ec 00 00
	00		 je	 $LN89@LoadAttack
  0009c	80 f1 ea	 xor	 cl, -22			; ffffffeaH
  0009f	88 4d ef	 mov	 BYTE PTR _szEncAttack$[ebp+7], cl
  000a2	8a 48 08	 mov	 cl, BYTE PTR [eax+8]
  000a5	84 c9		 test	 cl, cl
  000a7	0f 84 d5 00 00
	00		 je	 $LN88@LoadAttack
  000ad	80 f1 ed	 xor	 cl, -19			; ffffffedH
  000b0	88 4d f0	 mov	 BYTE PTR _szEncAttack$[ebp+8], cl
  000b3	8a 48 09	 mov	 cl, BYTE PTR [eax+9]
  000b6	84 c9		 test	 cl, cl
  000b8	0f 84 bf 00 00
	00		 je	 $LN87@LoadAttack
  000be	32 ca		 xor	 cl, dl
  000c0	88 4d f1	 mov	 BYTE PTR _szEncAttack$[ebp+9], cl
  000c3	8a 48 0a	 mov	 cl, BYTE PTR [eax+10]
  000c6	84 c9		 test	 cl, cl
  000c8	0f 84 a9 00 00
	00		 je	 $LN86@LoadAttack
  000ce	80 f1 eb	 xor	 cl, -21			; ffffffebH
  000d1	88 4d f2	 mov	 BYTE PTR _szEncAttack$[ebp+10], cl
  000d4	8a 48 0b	 mov	 cl, BYTE PTR [eax+11]
  000d7	84 c9		 test	 cl, cl
  000d9	0f 84 92 00 00
	00		 je	 $LN85@LoadAttack
  000df	80 f1 ea	 xor	 cl, -22			; ffffffeaH
  000e2	88 4d f3	 mov	 BYTE PTR _szEncAttack$[ebp+11], cl
  000e5	8a 48 0c	 mov	 cl, BYTE PTR [eax+12]
  000e8	84 c9		 test	 cl, cl
  000ea	74 7f		 je	 SHORT $LN84@LoadAttack
  000ec	80 f1 ed	 xor	 cl, -19			; ffffffedH
  000ef	88 4d f4	 mov	 BYTE PTR _szEncAttack$[ebp+12], cl
  000f2	8a 48 0d	 mov	 cl, BYTE PTR [eax+13]
  000f5	84 c9		 test	 cl, cl
  000f7	74 6d		 je	 SHORT $LN83@LoadAttack
  000f9	32 ca		 xor	 cl, dl
  000fb	88 4d f5	 mov	 BYTE PTR _szEncAttack$[ebp+13], cl
  000fe	8a 48 0e	 mov	 cl, BYTE PTR [eax+14]
  00101	84 c9		 test	 cl, cl
  00103	74 5b		 je	 SHORT $LN82@LoadAttack
  00105	80 f1 eb	 xor	 cl, -21			; ffffffebH
  00108	80 78 0f 00	 cmp	 BYTE PTR [eax+15], 0
  0010c	88 4d f6	 mov	 BYTE PTR _szEncAttack$[ebp+14], cl
  0010f	0f 84 a0 00 00
	00		 je	 $LN1@LoadAttack
  00115	8a 48 10	 mov	 cl, BYTE PTR [eax+16]
  00118	84 c9		 test	 cl, cl
  0011a	74 3e		 je	 SHORT $LN80@LoadAttack
  0011c	80 f1 ed	 xor	 cl, -19			; ffffffedH
  0011f	88 4d f8	 mov	 BYTE PTR _szEncAttack$[ebp+16], cl
  00122	8a 48 11	 mov	 cl, BYTE PTR [eax+17]
  00125	84 c9		 test	 cl, cl
  00127	74 2c		 je	 SHORT $LN79@LoadAttack
  00129	32 ca		 xor	 cl, dl
  0012b	88 4d f9	 mov	 BYTE PTR _szEncAttack$[ebp+17], cl
  0012e	8a 48 12	 mov	 cl, BYTE PTR [eax+18]
  00131	84 c9		 test	 cl, cl
  00133	74 1a		 je	 SHORT $LN78@LoadAttack
  00135	8a 40 13	 mov	 al, BYTE PTR [eax+19]
  00138	80 f1 eb	 xor	 cl, -21			; ffffffebH
  0013b	88 4d fa	 mov	 BYTE PTR _szEncAttack$[ebp+18], cl
  0013e	84 c0		 test	 al, al
  00140	74 07		 je	 SHORT $LN77@LoadAttack
  00142	34 ea		 xor	 al, -22			; ffffffeaH
  00144	88 45 fb	 mov	 BYTE PTR _szEncAttack$[ebp+19], al
  00147	eb 6c		 jmp	 SHORT $LN1@LoadAttack
$LN77@LoadAttack:
  00149	c6 45 fb ea	 mov	 BYTE PTR _szEncAttack$[ebp+19], -22 ; ffffffeaH
  0014d	eb 66		 jmp	 SHORT $LN1@LoadAttack
$LN78@LoadAttack:
  0014f	c6 45 fa eb	 mov	 BYTE PTR _szEncAttack$[ebp+18], -21 ; ffffffebH
  00153	eb 60		 jmp	 SHORT $LN1@LoadAttack
$LN79@LoadAttack:
  00155	88 55 f9	 mov	 BYTE PTR _szEncAttack$[ebp+17], dl
  00158	eb 5b		 jmp	 SHORT $LN1@LoadAttack
$LN80@LoadAttack:
  0015a	c6 45 f8 ed	 mov	 BYTE PTR _szEncAttack$[ebp+16], -19 ; ffffffedH
  0015e	eb 55		 jmp	 SHORT $LN1@LoadAttack
$LN82@LoadAttack:
  00160	c6 45 f6 eb	 mov	 BYTE PTR _szEncAttack$[ebp+14], -21 ; ffffffebH
  00164	eb 4f		 jmp	 SHORT $LN1@LoadAttack
$LN83@LoadAttack:
  00166	88 55 f5	 mov	 BYTE PTR _szEncAttack$[ebp+13], dl
  00169	eb 4a		 jmp	 SHORT $LN1@LoadAttack
$LN84@LoadAttack:
  0016b	c6 45 f4 ed	 mov	 BYTE PTR _szEncAttack$[ebp+12], -19 ; ffffffedH
  0016f	eb 44		 jmp	 SHORT $LN1@LoadAttack
$LN85@LoadAttack:
  00171	c6 45 f3 ea	 mov	 BYTE PTR _szEncAttack$[ebp+11], -22 ; ffffffeaH
  00175	eb 3e		 jmp	 SHORT $LN1@LoadAttack
$LN86@LoadAttack:
  00177	c6 45 f2 eb	 mov	 BYTE PTR _szEncAttack$[ebp+10], -21 ; ffffffebH
  0017b	eb 38		 jmp	 SHORT $LN1@LoadAttack
$LN87@LoadAttack:
  0017d	88 55 f1	 mov	 BYTE PTR _szEncAttack$[ebp+9], dl
  00180	eb 33		 jmp	 SHORT $LN1@LoadAttack
$LN88@LoadAttack:
  00182	c6 45 f0 ed	 mov	 BYTE PTR _szEncAttack$[ebp+8], -19 ; ffffffedH
  00186	eb 2d		 jmp	 SHORT $LN1@LoadAttack
$LN89@LoadAttack:
  00188	c6 45 ef ea	 mov	 BYTE PTR _szEncAttack$[ebp+7], -22 ; ffffffeaH
  0018c	eb 27		 jmp	 SHORT $LN1@LoadAttack
$LN90@LoadAttack:
  0018e	c6 45 ee eb	 mov	 BYTE PTR _szEncAttack$[ebp+6], -21 ; ffffffebH
  00192	eb 21		 jmp	 SHORT $LN1@LoadAttack
$LN91@LoadAttack:
  00194	88 55 ed	 mov	 BYTE PTR _szEncAttack$[ebp+5], dl
  00197	eb 1c		 jmp	 SHORT $LN1@LoadAttack
$LN92@LoadAttack:
  00199	c6 45 ec ed	 mov	 BYTE PTR _szEncAttack$[ebp+4], -19 ; ffffffedH
  0019d	eb 16		 jmp	 SHORT $LN1@LoadAttack
$LN93@LoadAttack:
  0019f	c6 45 eb ea	 mov	 BYTE PTR _szEncAttack$[ebp+3], -22 ; ffffffeaH
  001a3	eb 10		 jmp	 SHORT $LN1@LoadAttack
$LN94@LoadAttack:
  001a5	c6 45 ea eb	 mov	 BYTE PTR _szEncAttack$[ebp+2], -21 ; ffffffebH
  001a9	eb 0a		 jmp	 SHORT $LN1@LoadAttack
$LN95@LoadAttack:
  001ab	c6 45 e9 ec	 mov	 BYTE PTR _szEncAttack$[ebp+1], -20 ; ffffffecH
  001af	eb 04		 jmp	 SHORT $LN1@LoadAttack
$LN96@LoadAttack:
  001b1	c6 45 e8 ed	 mov	 BYTE PTR _szEncAttack$[ebp], -19 ; ffffffedH
$LN1@LoadAttack:
  001b5	6a 03		 push	 3
  001b7	8d 45 e8	 lea	 eax, DWORD PTR _szEncAttack$[ebp]
  001ba	c6 45 f7 00	 mov	 BYTE PTR _szEncAttack$[ebp+15], 0
  001be	59		 pop	 ecx
$LL104@LoadAttack:
  001bf	81 30 ed ec eb
	ea		 xor	 DWORD PTR [eax], -353637139 ; eaebecedH
  001c5	83 c0 04	 add	 eax, 4
  001c8	49		 dec	 ecx
  001c9	75 f4		 jne	 SHORT $LL104@LoadAttack
  001cb	6a 0c		 push	 12			; 0000000cH
  001cd	58		 pop	 eax
$LL101@LoadAttack:
  001ce	8b c8		 mov	 ecx, eax
  001d0	81 e1 03 00 00
	80		 and	 ecx, -2147483645	; 80000003H
  001d6	79 05		 jns	 SHORT $LN111@LoadAttack
  001d8	49		 dec	 ecx
  001d9	83 c9 fc	 or	 ecx, -4			; fffffffcH
  001dc	41		 inc	 ecx
$LN111@LoadAttack:
  001dd	b2 ed		 mov	 dl, -19			; ffffffedH
  001df	2a d1		 sub	 dl, cl
  001e1	30 54 05 e8	 xor	 BYTE PTR _szEncAttack$[ebp+eax], dl
  001e5	40		 inc	 eax
  001e6	83 f8 0f	 cmp	 eax, 15			; 0000000fH
  001e9	7c e3		 jl	 SHORT $LL101@LoadAttack

; 133  : 	LoadAttackAttribute(szEncAttack, rkAttribute, rkLoader);

  001eb	57		 push	 edi
  001ec	8d 45 e8	 lea	 eax, DWORD PTR _szEncAttack$[ebp]
  001ef	56		 push	 esi
  001f0	50		 push	 eax
  001f1	e8 00 00 00 00	 call	 ?LoadAttackAttribute@@YAXPBDAAUAttackAttribute@@AAVioINILoader@@@Z ; LoadAttackAttribute

; 134  : }

  001f6	8b 4d fc	 mov	 ecx, DWORD PTR __$ArrayPad$[ebp]
  001f9	83 c4 0c	 add	 esp, 12			; 0000000cH
  001fc	5f		 pop	 edi
  001fd	33 cd		 xor	 ecx, ebp
  001ff	5e		 pop	 esi
  00200	e8 00 00 00 00	 call	 @__security_check_cookie@4
  00205	c9		 leave
  00206	c3		 ret	 0
??$LoadAttackAttribute_e@$0BA@@@YAXAAY0BA@$$CBDAAUAttackAttribute@@AAVioINILoader@@@Z ENDP ; LoadAttackAttribute_e<16>
_TEXT	ENDS
PUBLIC	_this$GSCopy$
PUBLIC	__$ArrayPad$
PUBLIC	??$LoadString_e@$0BJ@@ioINILoader@@QAEXAAY0BJ@$$CBDAAY00$$CBDPADH@Z ; ioINILoader::LoadString_e<25>
; Function compile flags: /Ogsp
; File d:\lost saga for developer\youtube\tutorial\source\src\io3dengine\ioiniloader.h
;	COMDAT ??$LoadString_e@$0BJ@@ioINILoader@@QAEXAAY0BJ@$$CBDAAY00$$CBDPADH@Z
_TEXT	SEGMENT
_this$GSCopy$ = -40					; size = 4
__k$ = -36						; size = 25
__$ArrayPad$ = -4					; size = 4
_k$ = 8							; size = 4
_d$ = 12						; size = 4
_b$ = 16						; size = 4
_i$ = 20						; size = 4
??$LoadString_e@$0BJ@@ioINILoader@@QAEXAAY0BJ@$$CBDAAY00$$CBDPADH@Z PROC ; ioINILoader::LoadString_e<25>, COMDAT
; _this$ = ecx

; 161  : 	{

  00000	55		 push	 ebp
  00001	8b ec		 mov	 ebp, esp
  00003	83 ec 28	 sub	 esp, 40			; 00000028H
  00006	a1 00 00 00 00	 mov	 eax, DWORD PTR ___security_cookie
  0000b	33 c5		 xor	 eax, ebp
  0000d	89 45 fc	 mov	 DWORD PTR __$ArrayPad$[ebp], eax
  00010	8b 45 08	 mov	 eax, DWORD PTR _k$[ebp]

; 162  : 		_ENCSTR(k, _k);

  00013	8a 10		 mov	 dl, BYTE PTR [eax]
  00015	53		 push	 ebx
  00016	56		 push	 esi
  00017	8b 75 0c	 mov	 esi, DWORD PTR _d$[ebp]
  0001a	57		 push	 edi
  0001b	8b 7d 10	 mov	 edi, DWORD PTR _b$[ebp]
  0001e	89 4d d8	 mov	 DWORD PTR _this$GSCopy$[ebp], ecx
  00021	84 d2		 test	 dl, dl
  00023	0f 84 5f 02 00
	00		 je	 $LN96@LoadString@5
  00029	80 f2 ed	 xor	 dl, -19			; ffffffedH
  0002c	88 55 dc	 mov	 BYTE PTR __k$[ebp], dl
  0002f	8a 50 01	 mov	 dl, BYTE PTR [eax+1]
  00032	84 d2		 test	 dl, dl
  00034	0f 84 48 02 00
	00		 je	 $LN95@LoadString@5
  0003a	b1 ec		 mov	 cl, -20			; ffffffecH
  0003c	32 d1		 xor	 dl, cl
  0003e	88 55 dd	 mov	 BYTE PTR __k$[ebp+1], dl
  00041	8a 50 02	 mov	 dl, BYTE PTR [eax+2]
  00044	84 d2		 test	 dl, dl
  00046	0f 84 30 02 00
	00		 je	 $LN94@LoadString@5
  0004c	b3 eb		 mov	 bl, -21			; ffffffebH
  0004e	32 d3		 xor	 dl, bl
  00050	88 55 de	 mov	 BYTE PTR __k$[ebp+2], dl
  00053	8a 50 03	 mov	 dl, BYTE PTR [eax+3]
  00056	84 d2		 test	 dl, dl
  00058	0f 84 18 02 00
	00		 je	 $LN93@LoadString@5
  0005e	80 f2 ea	 xor	 dl, -22			; ffffffeaH
  00061	88 55 df	 mov	 BYTE PTR __k$[ebp+3], dl
  00064	8a 50 04	 mov	 dl, BYTE PTR [eax+4]
  00067	84 d2		 test	 dl, dl
  00069	0f 84 01 02 00
	00		 je	 $LN92@LoadString@5
  0006f	80 f2 ed	 xor	 dl, -19			; ffffffedH
  00072	88 55 e0	 mov	 BYTE PTR __k$[ebp+4], dl
  00075	8a 50 05	 mov	 dl, BYTE PTR [eax+5]
  00078	84 d2		 test	 dl, dl
  0007a	0f 84 eb 01 00
	00		 je	 $LN91@LoadString@5
  00080	32 d1		 xor	 dl, cl
  00082	88 55 e1	 mov	 BYTE PTR __k$[ebp+5], dl
  00085	8a 50 06	 mov	 dl, BYTE PTR [eax+6]
  00088	84 d2		 test	 dl, dl
  0008a	0f 84 d6 01 00
	00		 je	 $LN90@LoadString@5
  00090	32 d3		 xor	 dl, bl
  00092	88 55 e2	 mov	 BYTE PTR __k$[ebp+6], dl
  00095	8a 50 07	 mov	 dl, BYTE PTR [eax+7]
  00098	84 d2		 test	 dl, dl
  0009a	0f 84 c0 01 00
	00		 je	 $LN89@LoadString@5
  000a0	80 f2 ea	 xor	 dl, -22			; ffffffeaH
  000a3	88 55 e3	 mov	 BYTE PTR __k$[ebp+7], dl
  000a6	8a 50 08	 mov	 dl, BYTE PTR [eax+8]
  000a9	84 d2		 test	 dl, dl
  000ab	0f 84 a9 01 00
	00		 je	 $LN88@LoadString@5
  000b1	80 f2 ed	 xor	 dl, -19			; ffffffedH
  000b4	88 55 e4	 mov	 BYTE PTR __k$[ebp+8], dl
  000b7	8a 50 09	 mov	 dl, BYTE PTR [eax+9]
  000ba	84 d2		 test	 dl, dl
  000bc	0f 84 93 01 00
	00		 je	 $LN87@LoadString@5
  000c2	32 d1		 xor	 dl, cl
  000c4	88 55 e5	 mov	 BYTE PTR __k$[ebp+9], dl
  000c7	8a 50 0a	 mov	 dl, BYTE PTR [eax+10]
  000ca	84 d2		 test	 dl, dl
  000cc	0f 84 7e 01 00
	00		 je	 $LN86@LoadString@5
  000d2	32 d3		 xor	 dl, bl
  000d4	88 55 e6	 mov	 BYTE PTR __k$[ebp+10], dl
  000d7	8a 50 0b	 mov	 dl, BYTE PTR [eax+11]
  000da	84 d2		 test	 dl, dl
  000dc	0f 84 68 01 00
	00		 je	 $LN85@LoadString@5
  000e2	80 f2 ea	 xor	 dl, -22			; ffffffeaH
  000e5	88 55 e7	 mov	 BYTE PTR __k$[ebp+11], dl
  000e8	8a 50 0c	 mov	 dl, BYTE PTR [eax+12]
  000eb	84 d2		 test	 dl, dl
  000ed	0f 84 51 01 00
	00		 je	 $LN84@LoadString@5
  000f3	80 f2 ed	 xor	 dl, -19			; ffffffedH
  000f6	88 55 e8	 mov	 BYTE PTR __k$[ebp+12], dl
  000f9	8a 50 0d	 mov	 dl, BYTE PTR [eax+13]
  000fc	84 d2		 test	 dl, dl
  000fe	0f 84 3b 01 00
	00		 je	 $LN83@LoadString@5
  00104	32 d1		 xor	 dl, cl
  00106	88 55 e9	 mov	 BYTE PTR __k$[ebp+13], dl
  00109	8a 50 0e	 mov	 dl, BYTE PTR [eax+14]
  0010c	84 d2		 test	 dl, dl
  0010e	0f 84 26 01 00
	00		 je	 $LN82@LoadString@5
  00114	32 d3		 xor	 dl, bl
  00116	88 55 ea	 mov	 BYTE PTR __k$[ebp+14], dl
  00119	8a 50 0f	 mov	 dl, BYTE PTR [eax+15]
  0011c	84 d2		 test	 dl, dl
  0011e	0f 84 10 01 00
	00		 je	 $LN81@LoadString@5
  00124	80 f2 ea	 xor	 dl, -22			; ffffffeaH
  00127	88 55 eb	 mov	 BYTE PTR __k$[ebp+15], dl
  0012a	8a 50 10	 mov	 dl, BYTE PTR [eax+16]
  0012d	84 d2		 test	 dl, dl
  0012f	0f 84 f9 00 00
	00		 je	 $LN80@LoadString@5
  00135	80 f2 ed	 xor	 dl, -19			; ffffffedH
  00138	88 55 ec	 mov	 BYTE PTR __k$[ebp+16], dl
  0013b	8a 50 11	 mov	 dl, BYTE PTR [eax+17]
  0013e	84 d2		 test	 dl, dl
  00140	0f 84 e3 00 00
	00		 je	 $LN79@LoadString@5
  00146	32 d1		 xor	 dl, cl
  00148	88 55 ed	 mov	 BYTE PTR __k$[ebp+17], dl
  0014b	8a 50 12	 mov	 dl, BYTE PTR [eax+18]
  0014e	84 d2		 test	 dl, dl
  00150	0f 84 ce 00 00
	00		 je	 $LN78@LoadString@5
  00156	32 d3		 xor	 dl, bl
  00158	88 55 ee	 mov	 BYTE PTR __k$[ebp+18], dl
  0015b	8a 50 13	 mov	 dl, BYTE PTR [eax+19]
  0015e	84 d2		 test	 dl, dl
  00160	0f 84 b8 00 00
	00		 je	 $LN77@LoadString@5
  00166	80 f2 ea	 xor	 dl, -22			; ffffffeaH
  00169	88 55 ef	 mov	 BYTE PTR __k$[ebp+19], dl
  0016c	8a 50 14	 mov	 dl, BYTE PTR [eax+20]
  0016f	84 d2		 test	 dl, dl
  00171	0f 84 a1 00 00
	00		 je	 $LN76@LoadString@5
  00177	80 f2 ed	 xor	 dl, -19			; ffffffedH
  0017a	88 55 f0	 mov	 BYTE PTR __k$[ebp+20], dl
  0017d	8a 50 15	 mov	 dl, BYTE PTR [eax+21]
  00180	84 d2		 test	 dl, dl
  00182	0f 84 8b 00 00
	00		 je	 $LN75@LoadString@5
  00188	32 d1		 xor	 dl, cl
  0018a	88 55 f1	 mov	 BYTE PTR __k$[ebp+21], dl
  0018d	8a 50 16	 mov	 dl, BYTE PTR [eax+22]
  00190	84 d2		 test	 dl, dl
  00192	74 7a		 je	 SHORT $LN74@LoadString@5
  00194	32 d3		 xor	 dl, bl
  00196	88 55 f2	 mov	 BYTE PTR __k$[ebp+22], dl
  00199	8a 50 17	 mov	 dl, BYTE PTR [eax+23]
  0019c	84 d2		 test	 dl, dl
  0019e	74 68		 je	 SHORT $LN73@LoadString@5
  001a0	80 f2 ea	 xor	 dl, -22			; ffffffeaH
  001a3	80 78 18 00	 cmp	 BYTE PTR [eax+24], 0
  001a7	88 55 f3	 mov	 BYTE PTR __k$[ebp+23], dl
  001aa	0f 84 dc 00 00
	00		 je	 $LN111@LoadString@5
  001b0	8a 50 19	 mov	 dl, BYTE PTR [eax+25]
  001b3	84 d2		 test	 dl, dl
  001b5	74 49		 je	 SHORT $LN71@LoadString@5
  001b7	32 d1		 xor	 dl, cl
  001b9	88 55 f5	 mov	 BYTE PTR __k$[ebp+25], dl
  001bc	8a 50 1a	 mov	 dl, BYTE PTR [eax+26]
  001bf	84 d2		 test	 dl, dl
  001c1	74 35		 je	 SHORT $LN70@LoadString@5
  001c3	32 d3		 xor	 dl, bl
  001c5	88 55 f6	 mov	 BYTE PTR __k$[ebp+26], dl
  001c8	8a 50 1b	 mov	 dl, BYTE PTR [eax+27]
  001cb	84 d2		 test	 dl, dl
  001cd	74 20		 je	 SHORT $LN69@LoadString@5
  001cf	8a 40 1c	 mov	 al, BYTE PTR [eax+28]
  001d2	80 f2 ea	 xor	 dl, -22			; ffffffeaH
  001d5	88 55 f7	 mov	 BYTE PTR __k$[ebp+27], dl
  001d8	84 c0		 test	 al, al
  001da	74 0a		 je	 SHORT $LN68@LoadString@5
  001dc	34 ed		 xor	 al, -19			; ffffffedH
  001de	88 45 f8	 mov	 BYTE PTR __k$[ebp+28], al
  001e1	e9 a6 00 00 00	 jmp	 $LN111@LoadString@5
$LN68@LoadString@5:
  001e6	c6 45 f8 ed	 mov	 BYTE PTR __k$[ebp+28], -19 ; ffffffedH
  001ea	e9 9d 00 00 00	 jmp	 $LN111@LoadString@5
$LN69@LoadString@5:
  001ef	c6 45 f7 ea	 mov	 BYTE PTR __k$[ebp+27], -22 ; ffffffeaH
  001f3	e9 94 00 00 00	 jmp	 $LN111@LoadString@5
$LN70@LoadString@5:
  001f8	88 5d f6	 mov	 BYTE PTR __k$[ebp+26], bl
  001fb	e9 8c 00 00 00	 jmp	 $LN111@LoadString@5
$LN71@LoadString@5:
  00200	88 4d f5	 mov	 BYTE PTR __k$[ebp+25], cl
  00203	e9 84 00 00 00	 jmp	 $LN111@LoadString@5
$LN73@LoadString@5:
  00208	c6 45 f3 ea	 mov	 BYTE PTR __k$[ebp+23], -22 ; ffffffeaH
  0020c	eb 7e		 jmp	 SHORT $LN111@LoadString@5
$LN74@LoadString@5:
  0020e	88 5d f2	 mov	 BYTE PTR __k$[ebp+22], bl
  00211	eb 79		 jmp	 SHORT $LN111@LoadString@5
$LN75@LoadString@5:
  00213	88 4d f1	 mov	 BYTE PTR __k$[ebp+21], cl
  00216	eb 74		 jmp	 SHORT $LN111@LoadString@5
$LN76@LoadString@5:
  00218	c6 45 f0 ed	 mov	 BYTE PTR __k$[ebp+20], -19 ; ffffffedH
  0021c	eb 6e		 jmp	 SHORT $LN111@LoadString@5
$LN77@LoadString@5:
  0021e	c6 45 ef ea	 mov	 BYTE PTR __k$[ebp+19], -22 ; ffffffeaH
  00222	eb 68		 jmp	 SHORT $LN111@LoadString@5
$LN78@LoadString@5:
  00224	88 5d ee	 mov	 BYTE PTR __k$[ebp+18], bl
  00227	eb 63		 jmp	 SHORT $LN111@LoadString@5
$LN79@LoadString@5:
  00229	88 4d ed	 mov	 BYTE PTR __k$[ebp+17], cl
  0022c	eb 5e		 jmp	 SHORT $LN111@LoadString@5
$LN80@LoadString@5:
  0022e	c6 45 ec ed	 mov	 BYTE PTR __k$[ebp+16], -19 ; ffffffedH
  00232	eb 58		 jmp	 SHORT $LN111@LoadString@5
$LN81@LoadString@5:
  00234	c6 45 eb ea	 mov	 BYTE PTR __k$[ebp+15], -22 ; ffffffeaH
  00238	eb 52		 jmp	 SHORT $LN111@LoadString@5
$LN82@LoadString@5:
  0023a	88 5d ea	 mov	 BYTE PTR __k$[ebp+14], bl
  0023d	eb 4d		 jmp	 SHORT $LN111@LoadString@5
$LN83@LoadString@5:
  0023f	88 4d e9	 mov	 BYTE PTR __k$[ebp+13], cl
  00242	eb 48		 jmp	 SHORT $LN111@LoadString@5
$LN84@LoadString@5:
  00244	c6 45 e8 ed	 mov	 BYTE PTR __k$[ebp+12], -19 ; ffffffedH
  00248	eb 42		 jmp	 SHORT $LN111@LoadString@5
$LN85@LoadString@5:
  0024a	c6 45 e7 ea	 mov	 BYTE PTR __k$[ebp+11], -22 ; ffffffeaH
  0024e	eb 3c		 jmp	 SHORT $LN111@LoadString@5
$LN86@LoadString@5:
  00250	88 5d e6	 mov	 BYTE PTR __k$[ebp+10], bl
  00253	eb 37		 jmp	 SHORT $LN111@LoadString@5
$LN87@LoadString@5:
  00255	88 4d e5	 mov	 BYTE PTR __k$[ebp+9], cl
  00258	eb 32		 jmp	 SHORT $LN111@LoadString@5
$LN88@LoadString@5:
  0025a	c6 45 e4 ed	 mov	 BYTE PTR __k$[ebp+8], -19 ; ffffffedH
  0025e	eb 2c		 jmp	 SHORT $LN111@LoadString@5
$LN89@LoadString@5:
  00260	c6 45 e3 ea	 mov	 BYTE PTR __k$[ebp+7], -22 ; ffffffeaH
  00264	eb 26		 jmp	 SHORT $LN111@LoadString@5
$LN90@LoadString@5:
  00266	88 5d e2	 mov	 BYTE PTR __k$[ebp+6], bl
  00269	eb 21		 jmp	 SHORT $LN111@LoadString@5
$LN91@LoadString@5:
  0026b	88 4d e1	 mov	 BYTE PTR __k$[ebp+5], cl
  0026e	eb 1c		 jmp	 SHORT $LN111@LoadString@5
$LN92@LoadString@5:
  00270	c6 45 e0 ed	 mov	 BYTE PTR __k$[ebp+4], -19 ; ffffffedH
  00274	eb 16		 jmp	 SHORT $LN111@LoadString@5
$LN93@LoadString@5:
  00276	c6 45 df ea	 mov	 BYTE PTR __k$[ebp+3], -22 ; ffffffeaH
  0027a	eb 10		 jmp	 SHORT $LN111@LoadString@5
$LN94@LoadString@5:
  0027c	c6 45 de eb	 mov	 BYTE PTR __k$[ebp+2], -21 ; ffffffebH
  00280	eb 0a		 jmp	 SHORT $LN111@LoadString@5
$LN95@LoadString@5:
  00282	c6 45 dd ec	 mov	 BYTE PTR __k$[ebp+1], -20 ; ffffffecH
  00286	eb 04		 jmp	 SHORT $LN111@LoadString@5
$LN96@LoadString@5:
  00288	c6 45 dc ed	 mov	 BYTE PTR __k$[ebp], -19	; ffffffedH
$LN111@LoadString@5:
  0028c	6a 06		 push	 6
  0028e	8d 45 dc	 lea	 eax, DWORD PTR __k$[ebp]
  00291	c6 45 f4 00	 mov	 BYTE PTR __k$[ebp+24], 0
  00295	5a		 pop	 edx
$LL104@LoadString@5:
  00296	81 30 ed ec eb
	ea		 xor	 DWORD PTR [eax], -353637139 ; eaebecedH
  0029c	83 c0 04	 add	 eax, 4
  0029f	4a		 dec	 edx
  002a0	75 f4		 jne	 SHORT $LL104@LoadString@5

; 163  : 		LoadString(_k, d, b, i);

  002a2	ff 75 14	 push	 DWORD PTR _i$[ebp]
  002a5	8b 4d d8	 mov	 ecx, DWORD PTR _this$GSCopy$[ebp]
  002a8	57		 push	 edi
  002a9	56		 push	 esi
  002aa	8d 45 dc	 lea	 eax, DWORD PTR __k$[ebp]
  002ad	50		 push	 eax
  002ae	ff 15 00 00 00
	00		 call	 DWORD PTR __imp_?LoadStringA@ioINILoader@@QAEXPBD0PADH@Z

; 164  : 	}

  002b4	8b 4d fc	 mov	 ecx, DWORD PTR __$ArrayPad$[ebp]
  002b7	5f		 pop	 edi
  002b8	5e		 pop	 esi
  002b9	33 cd		 xor	 ecx, ebp
  002bb	5b		 pop	 ebx
  002bc	e8 00 00 00 00	 call	 @__security_check_cookie@4
  002c1	c9		 leave
  002c2	c2 10 00	 ret	 16			; 00000010H
??$LoadString_e@$0BJ@@ioINILoader@@QAEXAAY0BJ@$$CBDAAY00$$CBDPADH@Z ENDP ; ioINILoader::LoadString_e<25>
_TEXT	ENDS
PUBLIC	__$ArrayPad$
PUBLIC	??$LoadFloat_e@$0BO@@ioINILoader@@QAEMAAY0BO@$$CBDM@Z ; ioINILoader::LoadFloat_e<30>
; Function compile flags: /Ogsp
;	COMDAT ??$LoadFloat_e@$0BO@@ioINILoader@@QAEMAAY0BO@$$CBDM@Z
_TEXT	SEGMENT
__k$ = -40						; size = 30
__$ArrayPad$ = -4					; size = 4
_k$ = 8							; size = 4
_f$ = 12						; size = 4
??$LoadFloat_e@$0BO@@ioINILoader@@QAEMAAY0BO@$$CBDM@Z PROC ; ioINILoader::LoadFloat_e<30>, COMDAT
; _this$ = ecx

; 135  : 	{

  00000	55		 push	 ebp
  00001	8b ec		 mov	 ebp, esp
  00003	83 ec 28	 sub	 esp, 40			; 00000028H
  00006	a1 00 00 00 00	 mov	 eax, DWORD PTR ___security_cookie
  0000b	33 c5		 xor	 eax, ebp
  0000d	89 45 fc	 mov	 DWORD PTR __$ArrayPad$[ebp], eax
  00010	8b 45 08	 mov	 eax, DWORD PTR _k$[ebp]

; 136  : 		_ENCSTR(k, _k);

  00013	8a 10		 mov	 dl, BYTE PTR [eax]
  00015	53		 push	 ebx
  00016	56		 push	 esi
  00017	8b f1		 mov	 esi, ecx
  00019	84 d2		 test	 dl, dl
  0001b	0f 84 dd 02 00
	00		 je	 $LN96@LoadFloat_@2
  00021	80 f2 ed	 xor	 dl, -19			; ffffffedH
  00024	88 55 d8	 mov	 BYTE PTR __k$[ebp], dl
  00027	8a 50 01	 mov	 dl, BYTE PTR [eax+1]
  0002a	84 d2		 test	 dl, dl
  0002c	0f 84 c6 02 00
	00		 je	 $LN95@LoadFloat_@2
  00032	80 f2 ec	 xor	 dl, -20			; ffffffecH
  00035	88 55 d9	 mov	 BYTE PTR __k$[ebp+1], dl
  00038	8a 50 02	 mov	 dl, BYTE PTR [eax+2]
  0003b	84 d2		 test	 dl, dl
  0003d	0f 84 af 02 00
	00		 je	 $LN94@LoadFloat_@2
  00043	b1 eb		 mov	 cl, -21			; ffffffebH
  00045	32 d1		 xor	 dl, cl
  00047	88 55 da	 mov	 BYTE PTR __k$[ebp+2], dl
  0004a	8a 50 03	 mov	 dl, BYTE PTR [eax+3]
  0004d	84 d2		 test	 dl, dl
  0004f	0f 84 97 02 00
	00		 je	 $LN93@LoadFloat_@2
  00055	b3 ea		 mov	 bl, -22			; ffffffeaH
  00057	32 d3		 xor	 dl, bl
  00059	88 55 db	 mov	 BYTE PTR __k$[ebp+3], dl
  0005c	8a 50 04	 mov	 dl, BYTE PTR [eax+4]
  0005f	84 d2		 test	 dl, dl
  00061	0f 84 7f 02 00
	00		 je	 $LN92@LoadFloat_@2
  00067	80 f2 ed	 xor	 dl, -19			; ffffffedH
  0006a	88 55 dc	 mov	 BYTE PTR __k$[ebp+4], dl
  0006d	8a 50 05	 mov	 dl, BYTE PTR [eax+5]
  00070	84 d2		 test	 dl, dl
  00072	0f 84 68 02 00
	00		 je	 $LN91@LoadFloat_@2
  00078	80 f2 ec	 xor	 dl, -20			; ffffffecH
  0007b	88 55 dd	 mov	 BYTE PTR __k$[ebp+5], dl
  0007e	8a 50 06	 mov	 dl, BYTE PTR [eax+6]
  00081	84 d2		 test	 dl, dl
  00083	0f 84 52 02 00
	00		 je	 $LN90@LoadFloat_@2
  00089	32 d1		 xor	 dl, cl
  0008b	88 55 de	 mov	 BYTE PTR __k$[ebp+6], dl
  0008e	8a 50 07	 mov	 dl, BYTE PTR [eax+7]
  00091	84 d2		 test	 dl, dl
  00093	0f 84 3d 02 00
	00		 je	 $LN89@LoadFloat_@2
  00099	32 d3		 xor	 dl, bl
  0009b	88 55 df	 mov	 BYTE PTR __k$[ebp+7], dl
  0009e	8a 50 08	 mov	 dl, BYTE PTR [eax+8]
  000a1	84 d2		 test	 dl, dl
  000a3	0f 84 27 02 00
	00		 je	 $LN88@LoadFloat_@2
  000a9	80 f2 ed	 xor	 dl, -19			; ffffffedH
  000ac	88 55 e0	 mov	 BYTE PTR __k$[ebp+8], dl
  000af	8a 50 09	 mov	 dl, BYTE PTR [eax+9]
  000b2	84 d2		 test	 dl, dl
  000b4	0f 84 10 02 00
	00		 je	 $LN87@LoadFloat_@2
  000ba	80 f2 ec	 xor	 dl, -20			; ffffffecH
  000bd	88 55 e1	 mov	 BYTE PTR __k$[ebp+9], dl
  000c0	8a 50 0a	 mov	 dl, BYTE PTR [eax+10]
  000c3	84 d2		 test	 dl, dl
  000c5	0f 84 fa 01 00
	00		 je	 $LN86@LoadFloat_@2
  000cb	32 d1		 xor	 dl, cl
  000cd	88 55 e2	 mov	 BYTE PTR __k$[ebp+10], dl
  000d0	8a 50 0b	 mov	 dl, BYTE PTR [eax+11]
  000d3	84 d2		 test	 dl, dl
  000d5	0f 84 e5 01 00
	00		 je	 $LN85@LoadFloat_@2
  000db	32 d3		 xor	 dl, bl
  000dd	88 55 e3	 mov	 BYTE PTR __k$[ebp+11], dl
  000e0	8a 50 0c	 mov	 dl, BYTE PTR [eax+12]
  000e3	84 d2		 test	 dl, dl
  000e5	0f 84 cf 01 00
	00		 je	 $LN84@LoadFloat_@2
  000eb	80 f2 ed	 xor	 dl, -19			; ffffffedH
  000ee	88 55 e4	 mov	 BYTE PTR __k$[ebp+12], dl
  000f1	8a 50 0d	 mov	 dl, BYTE PTR [eax+13]
  000f4	84 d2		 test	 dl, dl
  000f6	0f 84 b8 01 00
	00		 je	 $LN83@LoadFloat_@2
  000fc	80 f2 ec	 xor	 dl, -20			; ffffffecH
  000ff	88 55 e5	 mov	 BYTE PTR __k$[ebp+13], dl
  00102	8a 50 0e	 mov	 dl, BYTE PTR [eax+14]
  00105	84 d2		 test	 dl, dl
  00107	0f 84 a2 01 00
	00		 je	 $LN82@LoadFloat_@2
  0010d	32 d1		 xor	 dl, cl
  0010f	88 55 e6	 mov	 BYTE PTR __k$[ebp+14], dl
  00112	8a 50 0f	 mov	 dl, BYTE PTR [eax+15]
  00115	84 d2		 test	 dl, dl
  00117	0f 84 8d 01 00
	00		 je	 $LN81@LoadFloat_@2
  0011d	32 d3		 xor	 dl, bl
  0011f	88 55 e7	 mov	 BYTE PTR __k$[ebp+15], dl
  00122	8a 50 10	 mov	 dl, BYTE PTR [eax+16]
  00125	84 d2		 test	 dl, dl
  00127	0f 84 77 01 00
	00		 je	 $LN80@LoadFloat_@2
  0012d	80 f2 ed	 xor	 dl, -19			; ffffffedH
  00130	88 55 e8	 mov	 BYTE PTR __k$[ebp+16], dl
  00133	8a 50 11	 mov	 dl, BYTE PTR [eax+17]
  00136	84 d2		 test	 dl, dl
  00138	0f 84 60 01 00
	00		 je	 $LN79@LoadFloat_@2
  0013e	80 f2 ec	 xor	 dl, -20			; ffffffecH
  00141	88 55 e9	 mov	 BYTE PTR __k$[ebp+17], dl
  00144	8a 50 12	 mov	 dl, BYTE PTR [eax+18]
  00147	84 d2		 test	 dl, dl
  00149	0f 84 4a 01 00
	00		 je	 $LN78@LoadFloat_@2
  0014f	32 d1		 xor	 dl, cl
  00151	88 55 ea	 mov	 BYTE PTR __k$[ebp+18], dl
  00154	8a 50 13	 mov	 dl, BYTE PTR [eax+19]
  00157	84 d2		 test	 dl, dl
  00159	0f 84 35 01 00
	00		 je	 $LN77@LoadFloat_@2
  0015f	32 d3		 xor	 dl, bl
  00161	88 55 eb	 mov	 BYTE PTR __k$[ebp+19], dl
  00164	8a 50 14	 mov	 dl, BYTE PTR [eax+20]
  00167	84 d2		 test	 dl, dl
  00169	0f 84 1f 01 00
	00		 je	 $LN76@LoadFloat_@2
  0016f	80 f2 ed	 xor	 dl, -19			; ffffffedH
  00172	88 55 ec	 mov	 BYTE PTR __k$[ebp+20], dl
  00175	8a 50 15	 mov	 dl, BYTE PTR [eax+21]
  00178	84 d2		 test	 dl, dl
  0017a	0f 84 08 01 00
	00		 je	 $LN75@LoadFloat_@2
  00180	80 f2 ec	 xor	 dl, -20			; ffffffecH
  00183	88 55 ed	 mov	 BYTE PTR __k$[ebp+21], dl
  00186	8a 50 16	 mov	 dl, BYTE PTR [eax+22]
  00189	84 d2		 test	 dl, dl
  0018b	0f 84 f2 00 00
	00		 je	 $LN74@LoadFloat_@2
  00191	32 d1		 xor	 dl, cl
  00193	88 55 ee	 mov	 BYTE PTR __k$[ebp+22], dl
  00196	8a 50 17	 mov	 dl, BYTE PTR [eax+23]
  00199	84 d2		 test	 dl, dl
  0019b	0f 84 dd 00 00
	00		 je	 $LN73@LoadFloat_@2
  001a1	32 d3		 xor	 dl, bl
  001a3	88 55 ef	 mov	 BYTE PTR __k$[ebp+23], dl
  001a6	8a 50 18	 mov	 dl, BYTE PTR [eax+24]
  001a9	84 d2		 test	 dl, dl
  001ab	0f 84 c4 00 00
	00		 je	 $LN72@LoadFloat_@2
  001b1	80 f2 ed	 xor	 dl, -19			; ffffffedH
  001b4	88 55 f0	 mov	 BYTE PTR __k$[ebp+24], dl
  001b7	8a 50 19	 mov	 dl, BYTE PTR [eax+25]
  001ba	84 d2		 test	 dl, dl
  001bc	0f 84 aa 00 00
	00		 je	 $LN71@LoadFloat_@2
  001c2	80 f2 ec	 xor	 dl, -20			; ffffffecH
  001c5	88 55 f1	 mov	 BYTE PTR __k$[ebp+25], dl
  001c8	8a 50 1a	 mov	 dl, BYTE PTR [eax+26]
  001cb	84 d2		 test	 dl, dl
  001cd	0f 84 91 00 00
	00		 je	 $LN70@LoadFloat_@2
  001d3	32 d1		 xor	 dl, cl
  001d5	88 55 f2	 mov	 BYTE PTR __k$[ebp+26], dl
  001d8	8a 50 1b	 mov	 dl, BYTE PTR [eax+27]
  001db	84 d2		 test	 dl, dl
  001dd	74 7d		 je	 SHORT $LN69@LoadFloat_@2
  001df	32 d3		 xor	 dl, bl
  001e1	88 55 f3	 mov	 BYTE PTR __k$[ebp+27], dl
  001e4	8a 50 1c	 mov	 dl, BYTE PTR [eax+28]
  001e7	84 d2		 test	 dl, dl
  001e9	74 68		 je	 SHORT $LN68@LoadFloat_@2
  001eb	80 f2 ed	 xor	 dl, -19			; ffffffedH
  001ee	80 78 1d 00	 cmp	 BYTE PTR [eax+29], 0
  001f2	88 55 f4	 mov	 BYTE PTR __k$[ebp+28], dl
  001f5	0f 84 07 01 00
	00		 je	 $LN1@LoadFloat_@2
  001fb	8a 50 1e	 mov	 dl, BYTE PTR [eax+30]
  001fe	84 d2		 test	 dl, dl
  00200	74 49		 je	 SHORT $LN66@LoadFloat_@2
  00202	32 d1		 xor	 dl, cl
  00204	88 55 f6	 mov	 BYTE PTR __k$[ebp+30], dl
  00207	8a 50 1f	 mov	 dl, BYTE PTR [eax+31]
  0020a	84 d2		 test	 dl, dl
  0020c	74 35		 je	 SHORT $LN65@LoadFloat_@2
  0020e	32 d3		 xor	 dl, bl
  00210	88 55 f7	 mov	 BYTE PTR __k$[ebp+31], dl
  00213	8a 50 20	 mov	 dl, BYTE PTR [eax+32]
  00216	84 d2		 test	 dl, dl
  00218	74 20		 je	 SHORT $LN64@LoadFloat_@2
  0021a	8a 40 21	 mov	 al, BYTE PTR [eax+33]
  0021d	80 f2 ed	 xor	 dl, -19			; ffffffedH
  00220	88 55 f8	 mov	 BYTE PTR __k$[ebp+32], dl
  00223	84 c0		 test	 al, al
  00225	74 0a		 je	 SHORT $LN63@LoadFloat_@2
  00227	34 ec		 xor	 al, -20			; ffffffecH
  00229	88 45 f9	 mov	 BYTE PTR __k$[ebp+33], al
  0022c	e9 d1 00 00 00	 jmp	 $LN1@LoadFloat_@2
$LN63@LoadFloat_@2:
  00231	c6 45 f9 ec	 mov	 BYTE PTR __k$[ebp+33], -20 ; ffffffecH
  00235	e9 c8 00 00 00	 jmp	 $LN1@LoadFloat_@2
$LN64@LoadFloat_@2:
  0023a	c6 45 f8 ed	 mov	 BYTE PTR __k$[ebp+32], -19 ; ffffffedH
  0023e	e9 bf 00 00 00	 jmp	 $LN1@LoadFloat_@2
$LN65@LoadFloat_@2:
  00243	88 5d f7	 mov	 BYTE PTR __k$[ebp+31], bl
  00246	e9 b7 00 00 00	 jmp	 $LN1@LoadFloat_@2
$LN66@LoadFloat_@2:
  0024b	88 4d f6	 mov	 BYTE PTR __k$[ebp+30], cl
  0024e	e9 af 00 00 00	 jmp	 $LN1@LoadFloat_@2
$LN68@LoadFloat_@2:
  00253	c6 45 f4 ed	 mov	 BYTE PTR __k$[ebp+28], -19 ; ffffffedH
  00257	e9 a6 00 00 00	 jmp	 $LN1@LoadFloat_@2
$LN69@LoadFloat_@2:
  0025c	88 5d f3	 mov	 BYTE PTR __k$[ebp+27], bl
  0025f	e9 9e 00 00 00	 jmp	 $LN1@LoadFloat_@2
$LN70@LoadFloat_@2:
  00264	88 4d f2	 mov	 BYTE PTR __k$[ebp+26], cl
  00267	e9 96 00 00 00	 jmp	 $LN1@LoadFloat_@2
$LN71@LoadFloat_@2:
  0026c	c6 45 f1 ec	 mov	 BYTE PTR __k$[ebp+25], -20 ; ffffffecH
  00270	e9 8d 00 00 00	 jmp	 $LN1@LoadFloat_@2
$LN72@LoadFloat_@2:
  00275	c6 45 f0 ed	 mov	 BYTE PTR __k$[ebp+24], -19 ; ffffffedH
  00279	e9 84 00 00 00	 jmp	 $LN1@LoadFloat_@2
$LN73@LoadFloat_@2:
  0027e	88 5d ef	 mov	 BYTE PTR __k$[ebp+23], bl
  00281	eb 7f		 jmp	 SHORT $LN1@LoadFloat_@2
$LN74@LoadFloat_@2:
  00283	88 4d ee	 mov	 BYTE PTR __k$[ebp+22], cl
  00286	eb 7a		 jmp	 SHORT $LN1@LoadFloat_@2
$LN75@LoadFloat_@2:
  00288	c6 45 ed ec	 mov	 BYTE PTR __k$[ebp+21], -20 ; ffffffecH
  0028c	eb 74		 jmp	 SHORT $LN1@LoadFloat_@2
$LN76@LoadFloat_@2:
  0028e	c6 45 ec ed	 mov	 BYTE PTR __k$[ebp+20], -19 ; ffffffedH
  00292	eb 6e		 jmp	 SHORT $LN1@LoadFloat_@2
$LN77@LoadFloat_@2:
  00294	88 5d eb	 mov	 BYTE PTR __k$[ebp+19], bl
  00297	eb 69		 jmp	 SHORT $LN1@LoadFloat_@2
$LN78@LoadFloat_@2:
  00299	88 4d ea	 mov	 BYTE PTR __k$[ebp+18], cl
  0029c	eb 64		 jmp	 SHORT $LN1@LoadFloat_@2
$LN79@LoadFloat_@2:
  0029e	c6 45 e9 ec	 mov	 BYTE PTR __k$[ebp+17], -20 ; ffffffecH
  002a2	eb 5e		 jmp	 SHORT $LN1@LoadFloat_@2
$LN80@LoadFloat_@2:
  002a4	c6 45 e8 ed	 mov	 BYTE PTR __k$[ebp+16], -19 ; ffffffedH
  002a8	eb 58		 jmp	 SHORT $LN1@LoadFloat_@2
$LN81@LoadFloat_@2:
  002aa	88 5d e7	 mov	 BYTE PTR __k$[ebp+15], bl
  002ad	eb 53		 jmp	 SHORT $LN1@LoadFloat_@2
$LN82@LoadFloat_@2:
  002af	88 4d e6	 mov	 BYTE PTR __k$[ebp+14], cl
  002b2	eb 4e		 jmp	 SHORT $LN1@LoadFloat_@2
$LN83@LoadFloat_@2:
  002b4	c6 45 e5 ec	 mov	 BYTE PTR __k$[ebp+13], -20 ; ffffffecH
  002b8	eb 48		 jmp	 SHORT $LN1@LoadFloat_@2
$LN84@LoadFloat_@2:
  002ba	c6 45 e4 ed	 mov	 BYTE PTR __k$[ebp+12], -19 ; ffffffedH
  002be	eb 42		 jmp	 SHORT $LN1@LoadFloat_@2
$LN85@LoadFloat_@2:
  002c0	88 5d e3	 mov	 BYTE PTR __k$[ebp+11], bl
  002c3	eb 3d		 jmp	 SHORT $LN1@LoadFloat_@2
$LN86@LoadFloat_@2:
  002c5	88 4d e2	 mov	 BYTE PTR __k$[ebp+10], cl
  002c8	eb 38		 jmp	 SHORT $LN1@LoadFloat_@2
$LN87@LoadFloat_@2:
  002ca	c6 45 e1 ec	 mov	 BYTE PTR __k$[ebp+9], -20 ; ffffffecH
  002ce	eb 32		 jmp	 SHORT $LN1@LoadFloat_@2
$LN88@LoadFloat_@2:
  002d0	c6 45 e0 ed	 mov	 BYTE PTR __k$[ebp+8], -19 ; ffffffedH
  002d4	eb 2c		 jmp	 SHORT $LN1@LoadFloat_@2
$LN89@LoadFloat_@2:
  002d6	88 5d df	 mov	 BYTE PTR __k$[ebp+7], bl
  002d9	eb 27		 jmp	 SHORT $LN1@LoadFloat_@2
$LN90@LoadFloat_@2:
  002db	88 4d de	 mov	 BYTE PTR __k$[ebp+6], cl
  002de	eb 22		 jmp	 SHORT $LN1@LoadFloat_@2
$LN91@LoadFloat_@2:
  002e0	c6 45 dd ec	 mov	 BYTE PTR __k$[ebp+5], -20 ; ffffffecH
  002e4	eb 1c		 jmp	 SHORT $LN1@LoadFloat_@2
$LN92@LoadFloat_@2:
  002e6	c6 45 dc ed	 mov	 BYTE PTR __k$[ebp+4], -19 ; ffffffedH
  002ea	eb 16		 jmp	 SHORT $LN1@LoadFloat_@2
$LN93@LoadFloat_@2:
  002ec	c6 45 db ea	 mov	 BYTE PTR __k$[ebp+3], -22 ; ffffffeaH
  002f0	eb 10		 jmp	 SHORT $LN1@LoadFloat_@2
$LN94@LoadFloat_@2:
  002f2	c6 45 da eb	 mov	 BYTE PTR __k$[ebp+2], -21 ; ffffffebH
  002f6	eb 0a		 jmp	 SHORT $LN1@LoadFloat_@2
$LN95@LoadFloat_@2:
  002f8	c6 45 d9 ec	 mov	 BYTE PTR __k$[ebp+1], -20 ; ffffffecH
  002fc	eb 04		 jmp	 SHORT $LN1@LoadFloat_@2
$LN96@LoadFloat_@2:
  002fe	c6 45 d8 ed	 mov	 BYTE PTR __k$[ebp], -19	; ffffffedH
$LN1@LoadFloat_@2:
  00302	6a 07		 push	 7
  00304	8d 45 d8	 lea	 eax, DWORD PTR __k$[ebp]
  00307	c6 45 f5 00	 mov	 BYTE PTR __k$[ebp+29], 0
  0030b	5a		 pop	 edx
$LL104@LoadFloat_@2:
  0030c	81 30 ed ec eb
	ea		 xor	 DWORD PTR [eax], -353637139 ; eaebecedH
  00312	83 c0 04	 add	 eax, 4
  00315	4a		 dec	 edx
  00316	75 f4		 jne	 SHORT $LL104@LoadFloat_@2

; 137  : 		return LoadFloat(_k, f);

  00318	f3 0f 10 45 0c	 movss	 xmm0, DWORD PTR _f$[ebp]
  0031d	80 75 f4 ed	 xor	 BYTE PTR __k$[ebp+28], -19 ; ffffffedH
  00321	51		 push	 ecx
  00322	8d 45 d8	 lea	 eax, DWORD PTR __k$[ebp]
  00325	f3 0f 11 04 24	 movss	 DWORD PTR [esp], xmm0
  0032a	50		 push	 eax
  0032b	8b ce		 mov	 ecx, esi
  0032d	ff 15 00 00 00
	00		 call	 DWORD PTR __imp_?LoadFloat@ioINILoader@@QAEMPBDM@Z

; 138  : 	}

  00333	8b 4d fc	 mov	 ecx, DWORD PTR __$ArrayPad$[ebp]
  00336	5e		 pop	 esi
  00337	33 cd		 xor	 ecx, ebp
  00339	5b		 pop	 ebx
  0033a	e8 00 00 00 00	 call	 @__security_check_cookie@4
  0033f	c9		 leave
  00340	c2 08 00	 ret	 8
??$LoadFloat_e@$0BO@@ioINILoader@@QAEMAAY0BO@$$CBDM@Z ENDP ; ioINILoader::LoadFloat_e<30>
_TEXT	ENDS
PUBLIC	__$ArrayPad$
PUBLIC	??$LoadInt_e@$0BA@@ioINILoader@@QAEHAAY0BA@$$CBDH@Z ; ioINILoader::LoadInt_e<16>
; Function compile flags: /Ogsp
;	COMDAT ??$LoadInt_e@$0BA@@ioINILoader@@QAEHAAY0BA@$$CBDH@Z
_TEXT	SEGMENT
__k$ = -24						; size = 16
__$ArrayPad$ = -4					; size = 4
_k$ = 8							; size = 4
_i$ = 12						; size = 4
??$LoadInt_e@$0BA@@ioINILoader@@QAEHAAY0BA@$$CBDH@Z PROC ; ioINILoader::LoadInt_e<16>, COMDAT
; _this$ = ecx

; 118  : 	{

  00000	55		 push	 ebp
  00001	8b ec		 mov	 ebp, esp
  00003	83 ec 18	 sub	 esp, 24			; 00000018H
  00006	a1 00 00 00 00	 mov	 eax, DWORD PTR ___security_cookie
  0000b	33 c5		 xor	 eax, ebp
  0000d	89 45 fc	 mov	 DWORD PTR __$ArrayPad$[ebp], eax
  00010	8b 45 08	 mov	 eax, DWORD PTR _k$[ebp]

; 119  : 		_ENCSTR(k, _k);

  00013	8a 10		 mov	 dl, BYTE PTR [eax]
  00015	56		 push	 esi
  00016	8b f1		 mov	 esi, ecx
  00018	84 d2		 test	 dl, dl
  0001a	0f 84 8c 01 00
	00		 je	 $LN96@LoadInt_e@3
  00020	80 f2 ed	 xor	 dl, -19			; ffffffedH
  00023	88 55 e8	 mov	 BYTE PTR __k$[ebp], dl
  00026	8a 50 01	 mov	 dl, BYTE PTR [eax+1]
  00029	84 d2		 test	 dl, dl
  0002b	0f 84 75 01 00
	00		 je	 $LN95@LoadInt_e@3
  00031	80 f2 ec	 xor	 dl, -20			; ffffffecH
  00034	88 55 e9	 mov	 BYTE PTR __k$[ebp+1], dl
  00037	8a 50 02	 mov	 dl, BYTE PTR [eax+2]
  0003a	84 d2		 test	 dl, dl
  0003c	0f 84 5e 01 00
	00		 je	 $LN94@LoadInt_e@3
  00042	b1 eb		 mov	 cl, -21			; ffffffebH
  00044	32 d1		 xor	 dl, cl
  00046	88 55 ea	 mov	 BYTE PTR __k$[ebp+2], dl
  00049	8a 50 03	 mov	 dl, BYTE PTR [eax+3]
  0004c	84 d2		 test	 dl, dl
  0004e	0f 84 46 01 00
	00		 je	 $LN93@LoadInt_e@3
  00054	80 f2 ea	 xor	 dl, -22			; ffffffeaH
  00057	88 55 eb	 mov	 BYTE PTR __k$[ebp+3], dl
  0005a	8a 50 04	 mov	 dl, BYTE PTR [eax+4]
  0005d	84 d2		 test	 dl, dl
  0005f	0f 84 2f 01 00
	00		 je	 $LN92@LoadInt_e@3
  00065	80 f2 ed	 xor	 dl, -19			; ffffffedH
  00068	88 55 ec	 mov	 BYTE PTR __k$[ebp+4], dl
  0006b	8a 50 05	 mov	 dl, BYTE PTR [eax+5]
  0006e	84 d2		 test	 dl, dl
  00070	0f 84 18 01 00
	00		 je	 $LN91@LoadInt_e@3
  00076	80 f2 ec	 xor	 dl, -20			; ffffffecH
  00079	88 55 ed	 mov	 BYTE PTR __k$[ebp+5], dl
  0007c	8a 50 06	 mov	 dl, BYTE PTR [eax+6]
  0007f	84 d2		 test	 dl, dl
  00081	0f 84 02 01 00
	00		 je	 $LN90@LoadInt_e@3
  00087	32 d1		 xor	 dl, cl
  00089	88 55 ee	 mov	 BYTE PTR __k$[ebp+6], dl
  0008c	8a 50 07	 mov	 dl, BYTE PTR [eax+7]
  0008f	84 d2		 test	 dl, dl
  00091	0f 84 ec 00 00
	00		 je	 $LN89@LoadInt_e@3
  00097	80 f2 ea	 xor	 dl, -22			; ffffffeaH
  0009a	88 55 ef	 mov	 BYTE PTR __k$[ebp+7], dl
  0009d	8a 50 08	 mov	 dl, BYTE PTR [eax+8]
  000a0	84 d2		 test	 dl, dl
  000a2	0f 84 d5 00 00
	00		 je	 $LN88@LoadInt_e@3
  000a8	80 f2 ed	 xor	 dl, -19			; ffffffedH
  000ab	88 55 f0	 mov	 BYTE PTR __k$[ebp+8], dl
  000ae	8a 50 09	 mov	 dl, BYTE PTR [eax+9]
  000b1	84 d2		 test	 dl, dl
  000b3	0f 84 be 00 00
	00		 je	 $LN87@LoadInt_e@3
  000b9	80 f2 ec	 xor	 dl, -20			; ffffffecH
  000bc	88 55 f1	 mov	 BYTE PTR __k$[ebp+9], dl
  000bf	8a 50 0a	 mov	 dl, BYTE PTR [eax+10]
  000c2	84 d2		 test	 dl, dl
  000c4	0f 84 a8 00 00
	00		 je	 $LN86@LoadInt_e@3
  000ca	32 d1		 xor	 dl, cl
  000cc	88 55 f2	 mov	 BYTE PTR __k$[ebp+10], dl
  000cf	8a 50 0b	 mov	 dl, BYTE PTR [eax+11]
  000d2	84 d2		 test	 dl, dl
  000d4	0f 84 92 00 00
	00		 je	 $LN85@LoadInt_e@3
  000da	80 f2 ea	 xor	 dl, -22			; ffffffeaH
  000dd	88 55 f3	 mov	 BYTE PTR __k$[ebp+11], dl
  000e0	8a 50 0c	 mov	 dl, BYTE PTR [eax+12]
  000e3	84 d2		 test	 dl, dl
  000e5	74 7f		 je	 SHORT $LN84@LoadInt_e@3
  000e7	80 f2 ed	 xor	 dl, -19			; ffffffedH
  000ea	88 55 f4	 mov	 BYTE PTR __k$[ebp+12], dl
  000ed	8a 50 0d	 mov	 dl, BYTE PTR [eax+13]
  000f0	84 d2		 test	 dl, dl
  000f2	74 6c		 je	 SHORT $LN83@LoadInt_e@3
  000f4	80 f2 ec	 xor	 dl, -20			; ffffffecH
  000f7	88 55 f5	 mov	 BYTE PTR __k$[ebp+13], dl
  000fa	8a 50 0e	 mov	 dl, BYTE PTR [eax+14]
  000fd	84 d2		 test	 dl, dl
  000ff	74 5a		 je	 SHORT $LN82@LoadInt_e@3
  00101	32 d1		 xor	 dl, cl
  00103	80 78 0f 00	 cmp	 BYTE PTR [eax+15], 0
  00107	88 55 f6	 mov	 BYTE PTR __k$[ebp+14], dl
  0010a	0f 84 a0 00 00
	00		 je	 $LN1@LoadInt_e@3
  00110	8a 50 10	 mov	 dl, BYTE PTR [eax+16]
  00113	84 d2		 test	 dl, dl
  00115	74 3e		 je	 SHORT $LN80@LoadInt_e@3
  00117	80 f2 ed	 xor	 dl, -19			; ffffffedH
  0011a	88 55 f8	 mov	 BYTE PTR __k$[ebp+16], dl
  0011d	8a 50 11	 mov	 dl, BYTE PTR [eax+17]
  00120	84 d2		 test	 dl, dl
  00122	74 2b		 je	 SHORT $LN79@LoadInt_e@3
  00124	80 f2 ec	 xor	 dl, -20			; ffffffecH
  00127	88 55 f9	 mov	 BYTE PTR __k$[ebp+17], dl
  0012a	8a 50 12	 mov	 dl, BYTE PTR [eax+18]
  0012d	84 d2		 test	 dl, dl
  0012f	74 19		 je	 SHORT $LN78@LoadInt_e@3
  00131	8a 40 13	 mov	 al, BYTE PTR [eax+19]
  00134	32 d1		 xor	 dl, cl
  00136	88 55 fa	 mov	 BYTE PTR __k$[ebp+18], dl
  00139	84 c0		 test	 al, al
  0013b	74 07		 je	 SHORT $LN77@LoadInt_e@3
  0013d	34 ea		 xor	 al, -22			; ffffffeaH
  0013f	88 45 fb	 mov	 BYTE PTR __k$[ebp+19], al
  00142	eb 6c		 jmp	 SHORT $LN1@LoadInt_e@3
$LN77@LoadInt_e@3:
  00144	c6 45 fb ea	 mov	 BYTE PTR __k$[ebp+19], -22 ; ffffffeaH
  00148	eb 66		 jmp	 SHORT $LN1@LoadInt_e@3
$LN78@LoadInt_e@3:
  0014a	88 4d fa	 mov	 BYTE PTR __k$[ebp+18], cl
  0014d	eb 61		 jmp	 SHORT $LN1@LoadInt_e@3
$LN79@LoadInt_e@3:
  0014f	c6 45 f9 ec	 mov	 BYTE PTR __k$[ebp+17], -20 ; ffffffecH
  00153	eb 5b		 jmp	 SHORT $LN1@LoadInt_e@3
$LN80@LoadInt_e@3:
  00155	c6 45 f8 ed	 mov	 BYTE PTR __k$[ebp+16], -19 ; ffffffedH
  00159	eb 55		 jmp	 SHORT $LN1@LoadInt_e@3
$LN82@LoadInt_e@3:
  0015b	88 4d f6	 mov	 BYTE PTR __k$[ebp+14], cl
  0015e	eb 50		 jmp	 SHORT $LN1@LoadInt_e@3
$LN83@LoadInt_e@3:
  00160	c6 45 f5 ec	 mov	 BYTE PTR __k$[ebp+13], -20 ; ffffffecH
  00164	eb 4a		 jmp	 SHORT $LN1@LoadInt_e@3
$LN84@LoadInt_e@3:
  00166	c6 45 f4 ed	 mov	 BYTE PTR __k$[ebp+12], -19 ; ffffffedH
  0016a	eb 44		 jmp	 SHORT $LN1@LoadInt_e@3
$LN85@LoadInt_e@3:
  0016c	c6 45 f3 ea	 mov	 BYTE PTR __k$[ebp+11], -22 ; ffffffeaH
  00170	eb 3e		 jmp	 SHORT $LN1@LoadInt_e@3
$LN86@LoadInt_e@3:
  00172	88 4d f2	 mov	 BYTE PTR __k$[ebp+10], cl
  00175	eb 39		 jmp	 SHORT $LN1@LoadInt_e@3
$LN87@LoadInt_e@3:
  00177	c6 45 f1 ec	 mov	 BYTE PTR __k$[ebp+9], -20 ; ffffffecH
  0017b	eb 33		 jmp	 SHORT $LN1@LoadInt_e@3
$LN88@LoadInt_e@3:
  0017d	c6 45 f0 ed	 mov	 BYTE PTR __k$[ebp+8], -19 ; ffffffedH
  00181	eb 2d		 jmp	 SHORT $LN1@LoadInt_e@3
$LN89@LoadInt_e@3:
  00183	c6 45 ef ea	 mov	 BYTE PTR __k$[ebp+7], -22 ; ffffffeaH
  00187	eb 27		 jmp	 SHORT $LN1@LoadInt_e@3
$LN90@LoadInt_e@3:
  00189	88 4d ee	 mov	 BYTE PTR __k$[ebp+6], cl
  0018c	eb 22		 jmp	 SHORT $LN1@LoadInt_e@3
$LN91@LoadInt_e@3:
  0018e	c6 45 ed ec	 mov	 BYTE PTR __k$[ebp+5], -20 ; ffffffecH
  00192	eb 1c		 jmp	 SHORT $LN1@LoadInt_e@3
$LN92@LoadInt_e@3:
  00194	c6 45 ec ed	 mov	 BYTE PTR __k$[ebp+4], -19 ; ffffffedH
  00198	eb 16		 jmp	 SHORT $LN1@LoadInt_e@3
$LN93@LoadInt_e@3:
  0019a	c6 45 eb ea	 mov	 BYTE PTR __k$[ebp+3], -22 ; ffffffeaH
  0019e	eb 10		 jmp	 SHORT $LN1@LoadInt_e@3
$LN94@LoadInt_e@3:
  001a0	c6 45 ea eb	 mov	 BYTE PTR __k$[ebp+2], -21 ; ffffffebH
  001a4	eb 0a		 jmp	 SHORT $LN1@LoadInt_e@3
$LN95@LoadInt_e@3:
  001a6	c6 45 e9 ec	 mov	 BYTE PTR __k$[ebp+1], -20 ; ffffffecH
  001aa	eb 04		 jmp	 SHORT $LN1@LoadInt_e@3
$LN96@LoadInt_e@3:
  001ac	c6 45 e8 ed	 mov	 BYTE PTR __k$[ebp], -19	; ffffffedH
$LN1@LoadInt_e@3:
  001b0	6a 03		 push	 3
  001b2	8d 45 e8	 lea	 eax, DWORD PTR __k$[ebp]
  001b5	c6 45 f7 00	 mov	 BYTE PTR __k$[ebp+15], 0
  001b9	5a		 pop	 edx
$LL104@LoadInt_e@3:
  001ba	81 30 ed ec eb
	ea		 xor	 DWORD PTR [eax], -353637139 ; eaebecedH
  001c0	83 c0 04	 add	 eax, 4
  001c3	4a		 dec	 edx
  001c4	75 f4		 jne	 SHORT $LL104@LoadInt_e@3
  001c6	6a 0c		 push	 12			; 0000000cH
  001c8	58		 pop	 eax
$LL101@LoadInt_e@3:
  001c9	8b c8		 mov	 ecx, eax
  001cb	81 e1 03 00 00
	80		 and	 ecx, -2147483645	; 80000003H
  001d1	79 05		 jns	 SHORT $LN111@LoadInt_e@3
  001d3	49		 dec	 ecx
  001d4	83 c9 fc	 or	 ecx, -4			; fffffffcH
  001d7	41		 inc	 ecx
$LN111@LoadInt_e@3:
  001d8	b2 ed		 mov	 dl, -19			; ffffffedH
  001da	2a d1		 sub	 dl, cl
  001dc	30 54 05 e8	 xor	 BYTE PTR __k$[ebp+eax], dl
  001e0	40		 inc	 eax
  001e1	83 f8 0f	 cmp	 eax, 15			; 0000000fH
  001e4	7c e3		 jl	 SHORT $LL101@LoadInt_e@3

; 120  : 		return LoadInt(_k, i);

  001e6	ff 75 0c	 push	 DWORD PTR _i$[ebp]
  001e9	8d 45 e8	 lea	 eax, DWORD PTR __k$[ebp]
  001ec	50		 push	 eax
  001ed	8b ce		 mov	 ecx, esi
  001ef	ff 15 00 00 00
	00		 call	 DWORD PTR __imp_?LoadInt@ioINILoader@@QAEHPBDH@Z

; 121  : 	}

  001f5	8b 4d fc	 mov	 ecx, DWORD PTR __$ArrayPad$[ebp]
  001f8	33 cd		 xor	 ecx, ebp
  001fa	5e		 pop	 esi
  001fb	e8 00 00 00 00	 call	 @__security_check_cookie@4
  00200	c9		 leave
  00201	c2 08 00	 ret	 8
??$LoadInt_e@$0BA@@ioINILoader@@QAEHAAY0BA@$$CBDH@Z ENDP ; ioINILoader::LoadInt_e<16>
_TEXT	ENDS
PUBLIC	__$ArrayPad$
PUBLIC	??$LoadFloat_e@$0BF@@ioINILoader@@QAEMAAY0BF@$$CBDM@Z ; ioINILoader::LoadFloat_e<21>
; Function compile flags: /Ogsp
;	COMDAT ??$LoadFloat_e@$0BF@@ioINILoader@@QAEMAAY0BF@$$CBDM@Z
_TEXT	SEGMENT
__k$ = -32						; size = 21
__$ArrayPad$ = -4					; size = 4
_k$ = 8							; size = 4
_f$ = 12						; size = 4
??$LoadFloat_e@$0BF@@ioINILoader@@QAEMAAY0BF@$$CBDM@Z PROC ; ioINILoader::LoadFloat_e<21>, COMDAT
; _this$ = ecx

; 135  : 	{

  00000	55		 push	 ebp
  00001	8b ec		 mov	 ebp, esp
  00003	83 ec 20	 sub	 esp, 32			; 00000020H
  00006	a1 00 00 00 00	 mov	 eax, DWORD PTR ___security_cookie
  0000b	33 c5		 xor	 eax, ebp
  0000d	89 45 fc	 mov	 DWORD PTR __$ArrayPad$[ebp], eax
  00010	8b 45 08	 mov	 eax, DWORD PTR _k$[ebp]

; 136  : 		_ENCSTR(k, _k);

  00013	8a 10		 mov	 dl, BYTE PTR [eax]
  00015	53		 push	 ebx
  00016	56		 push	 esi
  00017	8b f1		 mov	 esi, ecx
  00019	84 d2		 test	 dl, dl
  0001b	0f 84 f7 01 00
	00		 je	 $LN96@LoadFloat_@3
  00021	80 f2 ed	 xor	 dl, -19			; ffffffedH
  00024	88 55 e0	 mov	 BYTE PTR __k$[ebp], dl
  00027	8a 50 01	 mov	 dl, BYTE PTR [eax+1]
  0002a	84 d2		 test	 dl, dl
  0002c	0f 84 e0 01 00
	00		 je	 $LN95@LoadFloat_@3
  00032	b1 ec		 mov	 cl, -20			; ffffffecH
  00034	32 d1		 xor	 dl, cl
  00036	88 55 e1	 mov	 BYTE PTR __k$[ebp+1], dl
  00039	8a 50 02	 mov	 dl, BYTE PTR [eax+2]
  0003c	84 d2		 test	 dl, dl
  0003e	0f 84 c8 01 00
	00		 je	 $LN94@LoadFloat_@3
  00044	b3 eb		 mov	 bl, -21			; ffffffebH
  00046	32 d3		 xor	 dl, bl
  00048	88 55 e2	 mov	 BYTE PTR __k$[ebp+2], dl
  0004b	8a 50 03	 mov	 dl, BYTE PTR [eax+3]
  0004e	84 d2		 test	 dl, dl
  00050	0f 84 b0 01 00
	00		 je	 $LN93@LoadFloat_@3
  00056	80 f2 ea	 xor	 dl, -22			; ffffffeaH
  00059	88 55 e3	 mov	 BYTE PTR __k$[ebp+3], dl
  0005c	8a 50 04	 mov	 dl, BYTE PTR [eax+4]
  0005f	84 d2		 test	 dl, dl
  00061	0f 84 99 01 00
	00		 je	 $LN92@LoadFloat_@3
  00067	80 f2 ed	 xor	 dl, -19			; ffffffedH
  0006a	88 55 e4	 mov	 BYTE PTR __k$[ebp+4], dl
  0006d	8a 50 05	 mov	 dl, BYTE PTR [eax+5]
  00070	84 d2		 test	 dl, dl
  00072	0f 84 83 01 00
	00		 je	 $LN91@LoadFloat_@3
  00078	32 d1		 xor	 dl, cl
  0007a	88 55 e5	 mov	 BYTE PTR __k$[ebp+5], dl
  0007d	8a 50 06	 mov	 dl, BYTE PTR [eax+6]
  00080	84 d2		 test	 dl, dl
  00082	0f 84 6e 01 00
	00		 je	 $LN90@LoadFloat_@3
  00088	32 d3		 xor	 dl, bl
  0008a	88 55 e6	 mov	 BYTE PTR __k$[ebp+6], dl
  0008d	8a 50 07	 mov	 dl, BYTE PTR [eax+7]
  00090	84 d2		 test	 dl, dl
  00092	0f 84 58 01 00
	00		 je	 $LN89@LoadFloat_@3
  00098	80 f2 ea	 xor	 dl, -22			; ffffffeaH
  0009b	88 55 e7	 mov	 BYTE PTR __k$[ebp+7], dl
  0009e	8a 50 08	 mov	 dl, BYTE PTR [eax+8]
  000a1	84 d2		 test	 dl, dl
  000a3	0f 84 41 01 00
	00		 je	 $LN88@LoadFloat_@3
  000a9	80 f2 ed	 xor	 dl, -19			; ffffffedH
  000ac	88 55 e8	 mov	 BYTE PTR __k$[ebp+8], dl
  000af	8a 50 09	 mov	 dl, BYTE PTR [eax+9]
  000b2	84 d2		 test	 dl, dl
  000b4	0f 84 2b 01 00
	00		 je	 $LN87@LoadFloat_@3
  000ba	32 d1		 xor	 dl, cl
  000bc	88 55 e9	 mov	 BYTE PTR __k$[ebp+9], dl
  000bf	8a 50 0a	 mov	 dl, BYTE PTR [eax+10]
  000c2	84 d2		 test	 dl, dl
  000c4	0f 84 16 01 00
	00		 je	 $LN86@LoadFloat_@3
  000ca	32 d3		 xor	 dl, bl
  000cc	88 55 ea	 mov	 BYTE PTR __k$[ebp+10], dl
  000cf	8a 50 0b	 mov	 dl, BYTE PTR [eax+11]
  000d2	84 d2		 test	 dl, dl
  000d4	0f 84 00 01 00
	00		 je	 $LN85@LoadFloat_@3
  000da	80 f2 ea	 xor	 dl, -22			; ffffffeaH
  000dd	88 55 eb	 mov	 BYTE PTR __k$[ebp+11], dl
  000e0	8a 50 0c	 mov	 dl, BYTE PTR [eax+12]
  000e3	84 d2		 test	 dl, dl
  000e5	0f 84 e9 00 00
	00		 je	 $LN84@LoadFloat_@3
  000eb	80 f2 ed	 xor	 dl, -19			; ffffffedH
  000ee	88 55 ec	 mov	 BYTE PTR __k$[ebp+12], dl
  000f1	8a 50 0d	 mov	 dl, BYTE PTR [eax+13]
  000f4	84 d2		 test	 dl, dl
  000f6	0f 84 d3 00 00
	00		 je	 $LN83@LoadFloat_@3
  000fc	32 d1		 xor	 dl, cl
  000fe	88 55 ed	 mov	 BYTE PTR __k$[ebp+13], dl
  00101	8a 50 0e	 mov	 dl, BYTE PTR [eax+14]
  00104	84 d2		 test	 dl, dl
  00106	0f 84 be 00 00
	00		 je	 $LN82@LoadFloat_@3
  0010c	32 d3		 xor	 dl, bl
  0010e	88 55 ee	 mov	 BYTE PTR __k$[ebp+14], dl
  00111	8a 50 0f	 mov	 dl, BYTE PTR [eax+15]
  00114	84 d2		 test	 dl, dl
  00116	0f 84 a8 00 00
	00		 je	 $LN81@LoadFloat_@3
  0011c	80 f2 ea	 xor	 dl, -22			; ffffffeaH
  0011f	88 55 ef	 mov	 BYTE PTR __k$[ebp+15], dl
  00122	8a 50 10	 mov	 dl, BYTE PTR [eax+16]
  00125	84 d2		 test	 dl, dl
  00127	0f 84 91 00 00
	00		 je	 $LN80@LoadFloat_@3
  0012d	80 f2 ed	 xor	 dl, -19			; ffffffedH
  00130	88 55 f0	 mov	 BYTE PTR __k$[ebp+16], dl
  00133	8a 50 11	 mov	 dl, BYTE PTR [eax+17]
  00136	84 d2		 test	 dl, dl
  00138	74 7f		 je	 SHORT $LN79@LoadFloat_@3
  0013a	32 d1		 xor	 dl, cl
  0013c	88 55 f1	 mov	 BYTE PTR __k$[ebp+17], dl
  0013f	8a 50 12	 mov	 dl, BYTE PTR [eax+18]
  00142	84 d2		 test	 dl, dl
  00144	74 6e		 je	 SHORT $LN78@LoadFloat_@3
  00146	32 d3		 xor	 dl, bl
  00148	88 55 f2	 mov	 BYTE PTR __k$[ebp+18], dl
  0014b	8a 50 13	 mov	 dl, BYTE PTR [eax+19]
  0014e	84 d2		 test	 dl, dl
  00150	74 5c		 je	 SHORT $LN77@LoadFloat_@3
  00152	80 f2 ea	 xor	 dl, -22			; ffffffeaH
  00155	80 78 14 00	 cmp	 BYTE PTR [eax+20], 0
  00159	88 55 f3	 mov	 BYTE PTR __k$[ebp+19], dl
  0015c	0f 84 ba 00 00
	00		 je	 $LN1@LoadFloat_@3
  00162	8a 50 15	 mov	 dl, BYTE PTR [eax+21]
  00165	84 d2		 test	 dl, dl
  00167	74 40		 je	 SHORT $LN75@LoadFloat_@3
  00169	32 d1		 xor	 dl, cl
  0016b	88 55 f5	 mov	 BYTE PTR __k$[ebp+21], dl
  0016e	8a 50 16	 mov	 dl, BYTE PTR [eax+22]
  00171	84 d2		 test	 dl, dl
  00173	74 2f		 je	 SHORT $LN74@LoadFloat_@3
  00175	32 d3		 xor	 dl, bl
  00177	88 55 f6	 mov	 BYTE PTR __k$[ebp+22], dl
  0017a	8a 50 17	 mov	 dl, BYTE PTR [eax+23]
  0017d	84 d2		 test	 dl, dl
  0017f	74 1d		 je	 SHORT $LN73@LoadFloat_@3
  00181	8a 40 18	 mov	 al, BYTE PTR [eax+24]
  00184	80 f2 ea	 xor	 dl, -22			; ffffffeaH
  00187	88 55 f7	 mov	 BYTE PTR __k$[ebp+23], dl
  0018a	84 c0		 test	 al, al
  0018c	74 0a		 je	 SHORT $LN72@LoadFloat_@3
  0018e	34 ed		 xor	 al, -19			; ffffffedH
  00190	88 45 f8	 mov	 BYTE PTR __k$[ebp+24], al
  00193	e9 84 00 00 00	 jmp	 $LN1@LoadFloat_@3
$LN72@LoadFloat_@3:
  00198	c6 45 f8 ed	 mov	 BYTE PTR __k$[ebp+24], -19 ; ffffffedH
  0019c	eb 7e		 jmp	 SHORT $LN1@LoadFloat_@3
$LN73@LoadFloat_@3:
  0019e	c6 45 f7 ea	 mov	 BYTE PTR __k$[ebp+23], -22 ; ffffffeaH
  001a2	eb 78		 jmp	 SHORT $LN1@LoadFloat_@3
$LN74@LoadFloat_@3:
  001a4	88 5d f6	 mov	 BYTE PTR __k$[ebp+22], bl
  001a7	eb 73		 jmp	 SHORT $LN1@LoadFloat_@3
$LN75@LoadFloat_@3:
  001a9	88 4d f5	 mov	 BYTE PTR __k$[ebp+21], cl
  001ac	eb 6e		 jmp	 SHORT $LN1@LoadFloat_@3
$LN77@LoadFloat_@3:
  001ae	c6 45 f3 ea	 mov	 BYTE PTR __k$[ebp+19], -22 ; ffffffeaH
  001b2	eb 68		 jmp	 SHORT $LN1@LoadFloat_@3
$LN78@LoadFloat_@3:
  001b4	88 5d f2	 mov	 BYTE PTR __k$[ebp+18], bl
  001b7	eb 63		 jmp	 SHORT $LN1@LoadFloat_@3
$LN79@LoadFloat_@3:
  001b9	88 4d f1	 mov	 BYTE PTR __k$[ebp+17], cl
  001bc	eb 5e		 jmp	 SHORT $LN1@LoadFloat_@3
$LN80@LoadFloat_@3:
  001be	c6 45 f0 ed	 mov	 BYTE PTR __k$[ebp+16], -19 ; ffffffedH
  001c2	eb 58		 jmp	 SHORT $LN1@LoadFloat_@3
$LN81@LoadFloat_@3:
  001c4	c6 45 ef ea	 mov	 BYTE PTR __k$[ebp+15], -22 ; ffffffeaH
  001c8	eb 52		 jmp	 SHORT $LN1@LoadFloat_@3
$LN82@LoadFloat_@3:
  001ca	88 5d ee	 mov	 BYTE PTR __k$[ebp+14], bl
  001cd	eb 4d		 jmp	 SHORT $LN1@LoadFloat_@3
$LN83@LoadFloat_@3:
  001cf	88 4d ed	 mov	 BYTE PTR __k$[ebp+13], cl
  001d2	eb 48		 jmp	 SHORT $LN1@LoadFloat_@3
$LN84@LoadFloat_@3:
  001d4	c6 45 ec ed	 mov	 BYTE PTR __k$[ebp+12], -19 ; ffffffedH
  001d8	eb 42		 jmp	 SHORT $LN1@LoadFloat_@3
$LN85@LoadFloat_@3:
  001da	c6 45 eb ea	 mov	 BYTE PTR __k$[ebp+11], -22 ; ffffffeaH
  001de	eb 3c		 jmp	 SHORT $LN1@LoadFloat_@3
$LN86@LoadFloat_@3:
  001e0	88 5d ea	 mov	 BYTE PTR __k$[ebp+10], bl
  001e3	eb 37		 jmp	 SHORT $LN1@LoadFloat_@3
$LN87@LoadFloat_@3:
  001e5	88 4d e9	 mov	 BYTE PTR __k$[ebp+9], cl
  001e8	eb 32		 jmp	 SHORT $LN1@LoadFloat_@3
$LN88@LoadFloat_@3:
  001ea	c6 45 e8 ed	 mov	 BYTE PTR __k$[ebp+8], -19 ; ffffffedH
  001ee	eb 2c		 jmp	 SHORT $LN1@LoadFloat_@3
$LN89@LoadFloat_@3:
  001f0	c6 45 e7 ea	 mov	 BYTE PTR __k$[ebp+7], -22 ; ffffffeaH
  001f4	eb 26		 jmp	 SHORT $LN1@LoadFloat_@3
$LN90@LoadFloat_@3:
  001f6	88 5d e6	 mov	 BYTE PTR __k$[ebp+6], bl
  001f9	eb 21		 jmp	 SHORT $LN1@LoadFloat_@3
$LN91@LoadFloat_@3:
  001fb	88 4d e5	 mov	 BYTE PTR __k$[ebp+5], cl
  001fe	eb 1c		 jmp	 SHORT $LN1@LoadFloat_@3
$LN92@LoadFloat_@3:
  00200	c6 45 e4 ed	 mov	 BYTE PTR __k$[ebp+4], -19 ; ffffffedH
  00204	eb 16		 jmp	 SHORT $LN1@LoadFloat_@3
$LN93@LoadFloat_@3:
  00206	c6 45 e3 ea	 mov	 BYTE PTR __k$[ebp+3], -22 ; ffffffeaH
  0020a	eb 10		 jmp	 SHORT $LN1@LoadFloat_@3
$LN94@LoadFloat_@3:
  0020c	c6 45 e2 eb	 mov	 BYTE PTR __k$[ebp+2], -21 ; ffffffebH
  00210	eb 0a		 jmp	 SHORT $LN1@LoadFloat_@3
$LN95@LoadFloat_@3:
  00212	c6 45 e1 ec	 mov	 BYTE PTR __k$[ebp+1], -20 ; ffffffecH
  00216	eb 04		 jmp	 SHORT $LN1@LoadFloat_@3
$LN96@LoadFloat_@3:
  00218	c6 45 e0 ed	 mov	 BYTE PTR __k$[ebp], -19	; ffffffedH
$LN1@LoadFloat_@3:
  0021c	6a 05		 push	 5
  0021e	8d 45 e0	 lea	 eax, DWORD PTR __k$[ebp]
  00221	c6 45 f4 00	 mov	 BYTE PTR __k$[ebp+20], 0
  00225	5a		 pop	 edx
$LL104@LoadFloat_@3:
  00226	81 30 ed ec eb
	ea		 xor	 DWORD PTR [eax], -353637139 ; eaebecedH
  0022c	83 c0 04	 add	 eax, 4
  0022f	4a		 dec	 edx
  00230	75 f4		 jne	 SHORT $LL104@LoadFloat_@3

; 137  : 		return LoadFloat(_k, f);

  00232	f3 0f 10 45 0c	 movss	 xmm0, DWORD PTR _f$[ebp]
  00237	51		 push	 ecx
  00238	8d 45 e0	 lea	 eax, DWORD PTR __k$[ebp]
  0023b	f3 0f 11 04 24	 movss	 DWORD PTR [esp], xmm0
  00240	50		 push	 eax
  00241	8b ce		 mov	 ecx, esi
  00243	ff 15 00 00 00
	00		 call	 DWORD PTR __imp_?LoadFloat@ioINILoader@@QAEMPBDM@Z

; 138  : 	}

  00249	8b 4d fc	 mov	 ecx, DWORD PTR __$ArrayPad$[ebp]
  0024c	5e		 pop	 esi
  0024d	33 cd		 xor	 ecx, ebp
  0024f	5b		 pop	 ebx
  00250	e8 00 00 00 00	 call	 @__security_check_cookie@4
  00255	c9		 leave
  00256	c2 08 00	 ret	 8
??$LoadFloat_e@$0BF@@ioINILoader@@QAEMAAY0BF@$$CBDM@Z ENDP ; ioINILoader::LoadFloat_e<21>
_TEXT	ENDS
PUBLIC	__$ArrayPad$
PUBLIC	??$LoadFloat_e@$0BB@@ioINILoader@@QAEMAAY0BB@$$CBDM@Z ; ioINILoader::LoadFloat_e<17>
; Function compile flags: /Ogsp
;	COMDAT ??$LoadFloat_e@$0BB@@ioINILoader@@QAEMAAY0BB@$$CBDM@Z
_TEXT	SEGMENT
__k$ = -28						; size = 17
__$ArrayPad$ = -4					; size = 4
_k$ = 8							; size = 4
_f$ = 12						; size = 4
??$LoadFloat_e@$0BB@@ioINILoader@@QAEMAAY0BB@$$CBDM@Z PROC ; ioINILoader::LoadFloat_e<17>, COMDAT
; _this$ = ecx

; 135  : 	{

  00000	55		 push	 ebp
  00001	8b ec		 mov	 ebp, esp
  00003	83 ec 1c	 sub	 esp, 28			; 0000001cH
  00006	a1 00 00 00 00	 mov	 eax, DWORD PTR ___security_cookie
  0000b	33 c5		 xor	 eax, ebp
  0000d	89 45 fc	 mov	 DWORD PTR __$ArrayPad$[ebp], eax
  00010	8b 45 08	 mov	 eax, DWORD PTR _k$[ebp]

; 136  : 		_ENCSTR(k, _k);

  00013	8a 10		 mov	 dl, BYTE PTR [eax]
  00015	56		 push	 esi
  00016	8b f1		 mov	 esi, ecx
  00018	84 d2		 test	 dl, dl
  0001a	0f 84 a7 01 00
	00		 je	 $LN96@LoadFloat_@4
  00020	80 f2 ed	 xor	 dl, -19			; ffffffedH
  00023	88 55 e4	 mov	 BYTE PTR __k$[ebp], dl
  00026	8a 50 01	 mov	 dl, BYTE PTR [eax+1]
  00029	84 d2		 test	 dl, dl
  0002b	0f 84 90 01 00
	00		 je	 $LN95@LoadFloat_@4
  00031	b1 ec		 mov	 cl, -20			; ffffffecH
  00033	32 d1		 xor	 dl, cl
  00035	88 55 e5	 mov	 BYTE PTR __k$[ebp+1], dl
  00038	8a 50 02	 mov	 dl, BYTE PTR [eax+2]
  0003b	84 d2		 test	 dl, dl
  0003d	0f 84 78 01 00
	00		 je	 $LN94@LoadFloat_@4
  00043	80 f2 eb	 xor	 dl, -21			; ffffffebH
  00046	88 55 e6	 mov	 BYTE PTR __k$[ebp+2], dl
  00049	8a 50 03	 mov	 dl, BYTE PTR [eax+3]
  0004c	84 d2		 test	 dl, dl
  0004e	0f 84 61 01 00
	00		 je	 $LN93@LoadFloat_@4
  00054	80 f2 ea	 xor	 dl, -22			; ffffffeaH
  00057	88 55 e7	 mov	 BYTE PTR __k$[ebp+3], dl
  0005a	8a 50 04	 mov	 dl, BYTE PTR [eax+4]
  0005d	84 d2		 test	 dl, dl
  0005f	0f 84 4a 01 00
	00		 je	 $LN92@LoadFloat_@4
  00065	80 f2 ed	 xor	 dl, -19			; ffffffedH
  00068	88 55 e8	 mov	 BYTE PTR __k$[ebp+4], dl
  0006b	8a 50 05	 mov	 dl, BYTE PTR [eax+5]
  0006e	84 d2		 test	 dl, dl
  00070	0f 84 34 01 00
	00		 je	 $LN91@LoadFloat_@4
  00076	32 d1		 xor	 dl, cl
  00078	88 55 e9	 mov	 BYTE PTR __k$[ebp+5], dl
  0007b	8a 50 06	 mov	 dl, BYTE PTR [eax+6]
  0007e	84 d2		 test	 dl, dl
  00080	0f 84 1e 01 00
	00		 je	 $LN90@LoadFloat_@4
  00086	80 f2 eb	 xor	 dl, -21			; ffffffebH
  00089	88 55 ea	 mov	 BYTE PTR __k$[ebp+6], dl
  0008c	8a 50 07	 mov	 dl, BYTE PTR [eax+7]
  0008f	84 d2		 test	 dl, dl
  00091	0f 84 07 01 00
	00		 je	 $LN89@LoadFloat_@4
  00097	80 f2 ea	 xor	 dl, -22			; ffffffeaH
  0009a	88 55 eb	 mov	 BYTE PTR __k$[ebp+7], dl
  0009d	8a 50 08	 mov	 dl, BYTE PTR [eax+8]
  000a0	84 d2		 test	 dl, dl
  000a2	0f 84 f0 00 00
	00		 je	 $LN88@LoadFloat_@4
  000a8	80 f2 ed	 xor	 dl, -19			; ffffffedH
  000ab	88 55 ec	 mov	 BYTE PTR __k$[ebp+8], dl
  000ae	8a 50 09	 mov	 dl, BYTE PTR [eax+9]
  000b1	84 d2		 test	 dl, dl
  000b3	0f 84 da 00 00
	00		 je	 $LN87@LoadFloat_@4
  000b9	32 d1		 xor	 dl, cl
  000bb	88 55 ed	 mov	 BYTE PTR __k$[ebp+9], dl
  000be	8a 50 0a	 mov	 dl, BYTE PTR [eax+10]
  000c1	84 d2		 test	 dl, dl
  000c3	0f 84 c4 00 00
	00		 je	 $LN86@LoadFloat_@4
  000c9	80 f2 eb	 xor	 dl, -21			; ffffffebH
  000cc	88 55 ee	 mov	 BYTE PTR __k$[ebp+10], dl
  000cf	8a 50 0b	 mov	 dl, BYTE PTR [eax+11]
  000d2	84 d2		 test	 dl, dl
  000d4	0f 84 ad 00 00
	00		 je	 $LN85@LoadFloat_@4
  000da	80 f2 ea	 xor	 dl, -22			; ffffffeaH
  000dd	88 55 ef	 mov	 BYTE PTR __k$[ebp+11], dl
  000e0	8a 50 0c	 mov	 dl, BYTE PTR [eax+12]
  000e3	84 d2		 test	 dl, dl
  000e5	0f 84 96 00 00
	00		 je	 $LN84@LoadFloat_@4
  000eb	80 f2 ed	 xor	 dl, -19			; ffffffedH
  000ee	88 55 f0	 mov	 BYTE PTR __k$[ebp+12], dl
  000f1	8a 50 0d	 mov	 dl, BYTE PTR [eax+13]
  000f4	84 d2		 test	 dl, dl
  000f6	0f 84 80 00 00
	00		 je	 $LN83@LoadFloat_@4
  000fc	32 d1		 xor	 dl, cl
  000fe	88 55 f1	 mov	 BYTE PTR __k$[ebp+13], dl
  00101	8a 50 0e	 mov	 dl, BYTE PTR [eax+14]
  00104	84 d2		 test	 dl, dl
  00106	74 6e		 je	 SHORT $LN82@LoadFloat_@4
  00108	80 f2 eb	 xor	 dl, -21			; ffffffebH
  0010b	88 55 f2	 mov	 BYTE PTR __k$[ebp+14], dl
  0010e	8a 50 0f	 mov	 dl, BYTE PTR [eax+15]
  00111	84 d2		 test	 dl, dl
  00113	74 5b		 je	 SHORT $LN81@LoadFloat_@4
  00115	80 f2 ea	 xor	 dl, -22			; ffffffeaH
  00118	80 78 10 00	 cmp	 BYTE PTR [eax+16], 0
  0011c	88 55 f3	 mov	 BYTE PTR __k$[ebp+15], dl
  0011f	0f 84 a6 00 00
	00		 je	 $LN1@LoadFloat_@4
  00125	8a 50 11	 mov	 dl, BYTE PTR [eax+17]
  00128	84 d2		 test	 dl, dl
  0012a	74 3f		 je	 SHORT $LN79@LoadFloat_@4
  0012c	32 d1		 xor	 dl, cl
  0012e	88 55 f5	 mov	 BYTE PTR __k$[ebp+17], dl
  00131	8a 50 12	 mov	 dl, BYTE PTR [eax+18]
  00134	84 d2		 test	 dl, dl
  00136	74 2d		 je	 SHORT $LN78@LoadFloat_@4
  00138	80 f2 eb	 xor	 dl, -21			; ffffffebH
  0013b	88 55 f6	 mov	 BYTE PTR __k$[ebp+18], dl
  0013e	8a 50 13	 mov	 dl, BYTE PTR [eax+19]
  00141	84 d2		 test	 dl, dl
  00143	74 1a		 je	 SHORT $LN77@LoadFloat_@4
  00145	8a 40 14	 mov	 al, BYTE PTR [eax+20]
  00148	80 f2 ea	 xor	 dl, -22			; ffffffeaH
  0014b	88 55 f7	 mov	 BYTE PTR __k$[ebp+19], dl
  0014e	84 c0		 test	 al, al
  00150	74 07		 je	 SHORT $LN76@LoadFloat_@4
  00152	34 ed		 xor	 al, -19			; ffffffedH
  00154	88 45 f8	 mov	 BYTE PTR __k$[ebp+20], al
  00157	eb 72		 jmp	 SHORT $LN1@LoadFloat_@4
$LN76@LoadFloat_@4:
  00159	c6 45 f8 ed	 mov	 BYTE PTR __k$[ebp+20], -19 ; ffffffedH
  0015d	eb 6c		 jmp	 SHORT $LN1@LoadFloat_@4
$LN77@LoadFloat_@4:
  0015f	c6 45 f7 ea	 mov	 BYTE PTR __k$[ebp+19], -22 ; ffffffeaH
  00163	eb 66		 jmp	 SHORT $LN1@LoadFloat_@4
$LN78@LoadFloat_@4:
  00165	c6 45 f6 eb	 mov	 BYTE PTR __k$[ebp+18], -21 ; ffffffebH
  00169	eb 60		 jmp	 SHORT $LN1@LoadFloat_@4
$LN79@LoadFloat_@4:
  0016b	88 4d f5	 mov	 BYTE PTR __k$[ebp+17], cl
  0016e	eb 5b		 jmp	 SHORT $LN1@LoadFloat_@4
$LN81@LoadFloat_@4:
  00170	c6 45 f3 ea	 mov	 BYTE PTR __k$[ebp+15], -22 ; ffffffeaH
  00174	eb 55		 jmp	 SHORT $LN1@LoadFloat_@4
$LN82@LoadFloat_@4:
  00176	c6 45 f2 eb	 mov	 BYTE PTR __k$[ebp+14], -21 ; ffffffebH
  0017a	eb 4f		 jmp	 SHORT $LN1@LoadFloat_@4
$LN83@LoadFloat_@4:
  0017c	88 4d f1	 mov	 BYTE PTR __k$[ebp+13], cl
  0017f	eb 4a		 jmp	 SHORT $LN1@LoadFloat_@4
$LN84@LoadFloat_@4:
  00181	c6 45 f0 ed	 mov	 BYTE PTR __k$[ebp+12], -19 ; ffffffedH
  00185	eb 44		 jmp	 SHORT $LN1@LoadFloat_@4
$LN85@LoadFloat_@4:
  00187	c6 45 ef ea	 mov	 BYTE PTR __k$[ebp+11], -22 ; ffffffeaH
  0018b	eb 3e		 jmp	 SHORT $LN1@LoadFloat_@4
$LN86@LoadFloat_@4:
  0018d	c6 45 ee eb	 mov	 BYTE PTR __k$[ebp+10], -21 ; ffffffebH
  00191	eb 38		 jmp	 SHORT $LN1@LoadFloat_@4
$LN87@LoadFloat_@4:
  00193	88 4d ed	 mov	 BYTE PTR __k$[ebp+9], cl
  00196	eb 33		 jmp	 SHORT $LN1@LoadFloat_@4
$LN88@LoadFloat_@4:
  00198	c6 45 ec ed	 mov	 BYTE PTR __k$[ebp+8], -19 ; ffffffedH
  0019c	eb 2d		 jmp	 SHORT $LN1@LoadFloat_@4
$LN89@LoadFloat_@4:
  0019e	c6 45 eb ea	 mov	 BYTE PTR __k$[ebp+7], -22 ; ffffffeaH
  001a2	eb 27		 jmp	 SHORT $LN1@LoadFloat_@4
$LN90@LoadFloat_@4:
  001a4	c6 45 ea eb	 mov	 BYTE PTR __k$[ebp+6], -21 ; ffffffebH
  001a8	eb 21		 jmp	 SHORT $LN1@LoadFloat_@4
$LN91@LoadFloat_@4:
  001aa	88 4d e9	 mov	 BYTE PTR __k$[ebp+5], cl
  001ad	eb 1c		 jmp	 SHORT $LN1@LoadFloat_@4
$LN92@LoadFloat_@4:
  001af	c6 45 e8 ed	 mov	 BYTE PTR __k$[ebp+4], -19 ; ffffffedH
  001b3	eb 16		 jmp	 SHORT $LN1@LoadFloat_@4
$LN93@LoadFloat_@4:
  001b5	c6 45 e7 ea	 mov	 BYTE PTR __k$[ebp+3], -22 ; ffffffeaH
  001b9	eb 10		 jmp	 SHORT $LN1@LoadFloat_@4
$LN94@LoadFloat_@4:
  001bb	c6 45 e6 eb	 mov	 BYTE PTR __k$[ebp+2], -21 ; ffffffebH
  001bf	eb 0a		 jmp	 SHORT $LN1@LoadFloat_@4
$LN95@LoadFloat_@4:
  001c1	c6 45 e5 ec	 mov	 BYTE PTR __k$[ebp+1], -20 ; ffffffecH
  001c5	eb 04		 jmp	 SHORT $LN1@LoadFloat_@4
$LN96@LoadFloat_@4:
  001c7	c6 45 e4 ed	 mov	 BYTE PTR __k$[ebp], -19	; ffffffedH
$LN1@LoadFloat_@4:
  001cb	6a 04		 push	 4
  001cd	8d 45 e4	 lea	 eax, DWORD PTR __k$[ebp]
  001d0	c6 45 f4 00	 mov	 BYTE PTR __k$[ebp+16], 0
  001d4	5a		 pop	 edx
$LL104@LoadFloat_@4:
  001d5	81 30 ed ec eb
	ea		 xor	 DWORD PTR [eax], -353637139 ; eaebecedH
  001db	83 c0 04	 add	 eax, 4
  001de	4a		 dec	 edx
  001df	75 f4		 jne	 SHORT $LL104@LoadFloat_@4

; 137  : 		return LoadFloat(_k, f);

  001e1	f3 0f 10 45 0c	 movss	 xmm0, DWORD PTR _f$[ebp]
  001e6	51		 push	 ecx
  001e7	8d 45 e4	 lea	 eax, DWORD PTR __k$[ebp]
  001ea	f3 0f 11 04 24	 movss	 DWORD PTR [esp], xmm0
  001ef	50		 push	 eax
  001f0	8b ce		 mov	 ecx, esi
  001f2	ff 15 00 00 00
	00		 call	 DWORD PTR __imp_?LoadFloat@ioINILoader@@QAEMPBDM@Z

; 138  : 	}

  001f8	8b 4d fc	 mov	 ecx, DWORD PTR __$ArrayPad$[ebp]
  001fb	33 cd		 xor	 ecx, ebp
  001fd	5e		 pop	 esi
  001fe	e8 00 00 00 00	 call	 @__security_check_cookie@4
  00203	c9		 leave
  00204	c2 08 00	 ret	 8
??$LoadFloat_e@$0BB@@ioINILoader@@QAEMAAY0BB@$$CBDM@Z ENDP ; ioINILoader::LoadFloat_e<17>
_TEXT	ENDS
PUBLIC	__$ArrayPad$
PUBLIC	??$LoadFloat_e@$0N@@ioINILoader@@QAEMAAY0N@$$CBDM@Z ; ioINILoader::LoadFloat_e<13>
; Function compile flags: /Ogsp
;	COMDAT ??$LoadFloat_e@$0N@@ioINILoader@@QAEMAAY0N@$$CBDM@Z
_TEXT	SEGMENT
__k$ = -24						; size = 13
__$ArrayPad$ = -4					; size = 4
_k$ = 8							; size = 4
_f$ = 12						; size = 4
??$LoadFloat_e@$0N@@ioINILoader@@QAEMAAY0N@$$CBDM@Z PROC ; ioINILoader::LoadFloat_e<13>, COMDAT
; _this$ = ecx

; 135  : 	{

  00000	55		 push	 ebp
  00001	8b ec		 mov	 ebp, esp
  00003	83 ec 18	 sub	 esp, 24			; 00000018H
  00006	a1 00 00 00 00	 mov	 eax, DWORD PTR ___security_cookie
  0000b	33 c5		 xor	 eax, ebp
  0000d	89 45 fc	 mov	 DWORD PTR __$ArrayPad$[ebp], eax
  00010	8b 45 08	 mov	 eax, DWORD PTR _k$[ebp]

; 136  : 		_ENCSTR(k, _k);

  00013	8a 10		 mov	 dl, BYTE PTR [eax]
  00015	56		 push	 esi
  00016	8b f1		 mov	 esi, ecx
  00018	84 d2		 test	 dl, dl
  0001a	0f 84 4d 01 00
	00		 je	 $LN96@LoadFloat_@5
  00020	80 f2 ed	 xor	 dl, -19			; ffffffedH
  00023	88 55 e8	 mov	 BYTE PTR __k$[ebp], dl
  00026	8a 50 01	 mov	 dl, BYTE PTR [eax+1]
  00029	84 d2		 test	 dl, dl
  0002b	0f 84 36 01 00
	00		 je	 $LN95@LoadFloat_@5
  00031	b1 ec		 mov	 cl, -20			; ffffffecH
  00033	32 d1		 xor	 dl, cl
  00035	88 55 e9	 mov	 BYTE PTR __k$[ebp+1], dl
  00038	8a 50 02	 mov	 dl, BYTE PTR [eax+2]
  0003b	84 d2		 test	 dl, dl
  0003d	0f 84 1e 01 00
	00		 je	 $LN94@LoadFloat_@5
  00043	80 f2 eb	 xor	 dl, -21			; ffffffebH
  00046	88 55 ea	 mov	 BYTE PTR __k$[ebp+2], dl
  00049	8a 50 03	 mov	 dl, BYTE PTR [eax+3]
  0004c	84 d2		 test	 dl, dl
  0004e	0f 84 07 01 00
	00		 je	 $LN93@LoadFloat_@5
  00054	80 f2 ea	 xor	 dl, -22			; ffffffeaH
  00057	88 55 eb	 mov	 BYTE PTR __k$[ebp+3], dl
  0005a	8a 50 04	 mov	 dl, BYTE PTR [eax+4]
  0005d	84 d2		 test	 dl, dl
  0005f	0f 84 f0 00 00
	00		 je	 $LN92@LoadFloat_@5
  00065	80 f2 ed	 xor	 dl, -19			; ffffffedH
  00068	88 55 ec	 mov	 BYTE PTR __k$[ebp+4], dl
  0006b	8a 50 05	 mov	 dl, BYTE PTR [eax+5]
  0006e	84 d2		 test	 dl, dl
  00070	0f 84 da 00 00
	00		 je	 $LN91@LoadFloat_@5
  00076	32 d1		 xor	 dl, cl
  00078	88 55 ed	 mov	 BYTE PTR __k$[ebp+5], dl
  0007b	8a 50 06	 mov	 dl, BYTE PTR [eax+6]
  0007e	84 d2		 test	 dl, dl
  00080	0f 84 c4 00 00
	00		 je	 $LN90@LoadFloat_@5
  00086	80 f2 eb	 xor	 dl, -21			; ffffffebH
  00089	88 55 ee	 mov	 BYTE PTR __k$[ebp+6], dl
  0008c	8a 50 07	 mov	 dl, BYTE PTR [eax+7]
  0008f	84 d2		 test	 dl, dl
  00091	0f 84 ad 00 00
	00		 je	 $LN89@LoadFloat_@5
  00097	80 f2 ea	 xor	 dl, -22			; ffffffeaH
  0009a	88 55 ef	 mov	 BYTE PTR __k$[ebp+7], dl
  0009d	8a 50 08	 mov	 dl, BYTE PTR [eax+8]
  000a0	84 d2		 test	 dl, dl
  000a2	0f 84 96 00 00
	00		 je	 $LN88@LoadFloat_@5
  000a8	80 f2 ed	 xor	 dl, -19			; ffffffedH
  000ab	88 55 f0	 mov	 BYTE PTR __k$[ebp+8], dl
  000ae	8a 50 09	 mov	 dl, BYTE PTR [eax+9]
  000b1	84 d2		 test	 dl, dl
  000b3	0f 84 80 00 00
	00		 je	 $LN87@LoadFloat_@5
  000b9	32 d1		 xor	 dl, cl
  000bb	88 55 f1	 mov	 BYTE PTR __k$[ebp+9], dl
  000be	8a 50 0a	 mov	 dl, BYTE PTR [eax+10]
  000c1	84 d2		 test	 dl, dl
  000c3	74 6e		 je	 SHORT $LN86@LoadFloat_@5
  000c5	80 f2 eb	 xor	 dl, -21			; ffffffebH
  000c8	88 55 f2	 mov	 BYTE PTR __k$[ebp+10], dl
  000cb	8a 50 0b	 mov	 dl, BYTE PTR [eax+11]
  000ce	84 d2		 test	 dl, dl
  000d0	74 5b		 je	 SHORT $LN85@LoadFloat_@5
  000d2	80 f2 ea	 xor	 dl, -22			; ffffffeaH
  000d5	80 78 0c 00	 cmp	 BYTE PTR [eax+12], 0
  000d9	88 55 f3	 mov	 BYTE PTR __k$[ebp+11], dl
  000dc	0f 84 8f 00 00
	00		 je	 $LN1@LoadFloat_@5
  000e2	8a 50 0d	 mov	 dl, BYTE PTR [eax+13]
  000e5	84 d2		 test	 dl, dl
  000e7	74 3f		 je	 SHORT $LN83@LoadFloat_@5
  000e9	32 d1		 xor	 dl, cl
  000eb	88 55 f5	 mov	 BYTE PTR __k$[ebp+13], dl
  000ee	8a 50 0e	 mov	 dl, BYTE PTR [eax+14]
  000f1	84 d2		 test	 dl, dl
  000f3	74 2d		 je	 SHORT $LN82@LoadFloat_@5
  000f5	80 f2 eb	 xor	 dl, -21			; ffffffebH
  000f8	88 55 f6	 mov	 BYTE PTR __k$[ebp+14], dl
  000fb	8a 50 0f	 mov	 dl, BYTE PTR [eax+15]
  000fe	84 d2		 test	 dl, dl
  00100	74 1a		 je	 SHORT $LN81@LoadFloat_@5
  00102	8a 40 10	 mov	 al, BYTE PTR [eax+16]
  00105	80 f2 ea	 xor	 dl, -22			; ffffffeaH
  00108	88 55 f7	 mov	 BYTE PTR __k$[ebp+15], dl
  0010b	84 c0		 test	 al, al
  0010d	74 07		 je	 SHORT $LN80@LoadFloat_@5
  0010f	34 ed		 xor	 al, -19			; ffffffedH
  00111	88 45 f8	 mov	 BYTE PTR __k$[ebp+16], al
  00114	eb 5b		 jmp	 SHORT $LN1@LoadFloat_@5
$LN80@LoadFloat_@5:
  00116	c6 45 f8 ed	 mov	 BYTE PTR __k$[ebp+16], -19 ; ffffffedH
  0011a	eb 55		 jmp	 SHORT $LN1@LoadFloat_@5
$LN81@LoadFloat_@5:
  0011c	c6 45 f7 ea	 mov	 BYTE PTR __k$[ebp+15], -22 ; ffffffeaH
  00120	eb 4f		 jmp	 SHORT $LN1@LoadFloat_@5
$LN82@LoadFloat_@5:
  00122	c6 45 f6 eb	 mov	 BYTE PTR __k$[ebp+14], -21 ; ffffffebH
  00126	eb 49		 jmp	 SHORT $LN1@LoadFloat_@5
$LN83@LoadFloat_@5:
  00128	88 4d f5	 mov	 BYTE PTR __k$[ebp+13], cl
  0012b	eb 44		 jmp	 SHORT $LN1@LoadFloat_@5
$LN85@LoadFloat_@5:
  0012d	c6 45 f3 ea	 mov	 BYTE PTR __k$[ebp+11], -22 ; ffffffeaH
  00131	eb 3e		 jmp	 SHORT $LN1@LoadFloat_@5
$LN86@LoadFloat_@5:
  00133	c6 45 f2 eb	 mov	 BYTE PTR __k$[ebp+10], -21 ; ffffffebH
  00137	eb 38		 jmp	 SHORT $LN1@LoadFloat_@5
$LN87@LoadFloat_@5:
  00139	88 4d f1	 mov	 BYTE PTR __k$[ebp+9], cl
  0013c	eb 33		 jmp	 SHORT $LN1@LoadFloat_@5
$LN88@LoadFloat_@5:
  0013e	c6 45 f0 ed	 mov	 BYTE PTR __k$[ebp+8], -19 ; ffffffedH
  00142	eb 2d		 jmp	 SHORT $LN1@LoadFloat_@5
$LN89@LoadFloat_@5:
  00144	c6 45 ef ea	 mov	 BYTE PTR __k$[ebp+7], -22 ; ffffffeaH
  00148	eb 27		 jmp	 SHORT $LN1@LoadFloat_@5
$LN90@LoadFloat_@5:
  0014a	c6 45 ee eb	 mov	 BYTE PTR __k$[ebp+6], -21 ; ffffffebH
  0014e	eb 21		 jmp	 SHORT $LN1@LoadFloat_@5
$LN91@LoadFloat_@5:
  00150	88 4d ed	 mov	 BYTE PTR __k$[ebp+5], cl
  00153	eb 1c		 jmp	 SHORT $LN1@LoadFloat_@5
$LN92@LoadFloat_@5:
  00155	c6 45 ec ed	 mov	 BYTE PTR __k$[ebp+4], -19 ; ffffffedH
  00159	eb 16		 jmp	 SHORT $LN1@LoadFloat_@5
$LN93@LoadFloat_@5:
  0015b	c6 45 eb ea	 mov	 BYTE PTR __k$[ebp+3], -22 ; ffffffeaH
  0015f	eb 10		 jmp	 SHORT $LN1@LoadFloat_@5
$LN94@LoadFloat_@5:
  00161	c6 45 ea eb	 mov	 BYTE PTR __k$[ebp+2], -21 ; ffffffebH
  00165	eb 0a		 jmp	 SHORT $LN1@LoadFloat_@5
$LN95@LoadFloat_@5:
  00167	c6 45 e9 ec	 mov	 BYTE PTR __k$[ebp+1], -20 ; ffffffecH
  0016b	eb 04		 jmp	 SHORT $LN1@LoadFloat_@5
$LN96@LoadFloat_@5:
  0016d	c6 45 e8 ed	 mov	 BYTE PTR __k$[ebp], -19	; ffffffedH
$LN1@LoadFloat_@5:
  00171	6a 03		 push	 3
  00173	8d 45 e8	 lea	 eax, DWORD PTR __k$[ebp]
  00176	c6 45 f4 00	 mov	 BYTE PTR __k$[ebp+12], 0
  0017a	5a		 pop	 edx
$LL104@LoadFloat_@5:
  0017b	81 30 ed ec eb
	ea		 xor	 DWORD PTR [eax], -353637139 ; eaebecedH
  00181	83 c0 04	 add	 eax, 4
  00184	4a		 dec	 edx
  00185	75 f4		 jne	 SHORT $LL104@LoadFloat_@5

; 137  : 		return LoadFloat(_k, f);

  00187	f3 0f 10 45 0c	 movss	 xmm0, DWORD PTR _f$[ebp]
  0018c	51		 push	 ecx
  0018d	8d 45 e8	 lea	 eax, DWORD PTR __k$[ebp]
  00190	f3 0f 11 04 24	 movss	 DWORD PTR [esp], xmm0
  00195	50		 push	 eax
  00196	8b ce		 mov	 ecx, esi
  00198	ff 15 00 00 00
	00		 call	 DWORD PTR __imp_?LoadFloat@ioINILoader@@QAEMPBDM@Z

; 138  : 	}

  0019e	8b 4d fc	 mov	 ecx, DWORD PTR __$ArrayPad$[ebp]
  001a1	33 cd		 xor	 ecx, ebp
  001a3	5e		 pop	 esi
  001a4	e8 00 00 00 00	 call	 @__security_check_cookie@4
  001a9	c9		 leave
  001aa	c2 08 00	 ret	 8
??$LoadFloat_e@$0N@@ioINILoader@@QAEMAAY0N@$$CBDM@Z ENDP ; ioINILoader::LoadFloat_e<13>
_TEXT	ENDS
PUBLIC	_this$GSCopy$
PUBLIC	__$ArrayPad$
PUBLIC	??$LoadString_e@$0O@@ioINILoader@@QAEXAAY0O@$$CBDAAY00$$CBDPADH@Z ; ioINILoader::LoadString_e<14>
; Function compile flags: /Ogsp
;	COMDAT ??$LoadString_e@$0O@@ioINILoader@@QAEXAAY0O@$$CBDAAY00$$CBDPADH@Z
_TEXT	SEGMENT
_this$GSCopy$ = -28					; size = 4
__k$ = -24						; size = 14
__$ArrayPad$ = -4					; size = 4
_k$ = 8							; size = 4
_d$ = 12						; size = 4
_b$ = 16						; size = 4
_i$ = 20						; size = 4
??$LoadString_e@$0O@@ioINILoader@@QAEXAAY0O@$$CBDAAY00$$CBDPADH@Z PROC ; ioINILoader::LoadString_e<14>, COMDAT
; _this$ = ecx

; 161  : 	{

  00000	55		 push	 ebp
  00001	8b ec		 mov	 ebp, esp
  00003	83 ec 1c	 sub	 esp, 28			; 0000001cH
  00006	a1 00 00 00 00	 mov	 eax, DWORD PTR ___security_cookie
  0000b	33 c5		 xor	 eax, ebp
  0000d	89 45 fc	 mov	 DWORD PTR __$ArrayPad$[ebp], eax
  00010	8b 45 08	 mov	 eax, DWORD PTR _k$[ebp]

; 162  : 		_ENCSTR(k, _k);

  00013	8a 10		 mov	 dl, BYTE PTR [eax]
  00015	56		 push	 esi
  00016	8b 75 0c	 mov	 esi, DWORD PTR _d$[ebp]
  00019	57		 push	 edi
  0001a	8b 7d 10	 mov	 edi, DWORD PTR _b$[ebp]
  0001d	89 4d e4	 mov	 DWORD PTR _this$GSCopy$[ebp], ecx
  00020	84 d2		 test	 dl, dl
  00022	0f 84 64 01 00
	00		 je	 $LN96@LoadString@6
  00028	80 f2 ed	 xor	 dl, -19			; ffffffedH
  0002b	88 55 e8	 mov	 BYTE PTR __k$[ebp], dl
  0002e	8a 50 01	 mov	 dl, BYTE PTR [eax+1]
  00031	84 d2		 test	 dl, dl
  00033	0f 84 4d 01 00
	00		 je	 $LN95@LoadString@6
  00039	80 f2 ec	 xor	 dl, -20			; ffffffecH
  0003c	88 55 e9	 mov	 BYTE PTR __k$[ebp+1], dl
  0003f	8a 50 02	 mov	 dl, BYTE PTR [eax+2]
  00042	84 d2		 test	 dl, dl
  00044	0f 84 36 01 00
	00		 je	 $LN94@LoadString@6
  0004a	b1 eb		 mov	 cl, -21			; ffffffebH
  0004c	32 d1		 xor	 dl, cl
  0004e	88 55 ea	 mov	 BYTE PTR __k$[ebp+2], dl
  00051	8a 50 03	 mov	 dl, BYTE PTR [eax+3]
  00054	84 d2		 test	 dl, dl
  00056	0f 84 1e 01 00
	00		 je	 $LN93@LoadString@6
  0005c	80 f2 ea	 xor	 dl, -22			; ffffffeaH
  0005f	88 55 eb	 mov	 BYTE PTR __k$[ebp+3], dl
  00062	8a 50 04	 mov	 dl, BYTE PTR [eax+4]
  00065	84 d2		 test	 dl, dl
  00067	0f 84 07 01 00
	00		 je	 $LN92@LoadString@6
  0006d	80 f2 ed	 xor	 dl, -19			; ffffffedH
  00070	88 55 ec	 mov	 BYTE PTR __k$[ebp+4], dl
  00073	8a 50 05	 mov	 dl, BYTE PTR [eax+5]
  00076	84 d2		 test	 dl, dl
  00078	0f 84 f0 00 00
	00		 je	 $LN91@LoadString@6
  0007e	80 f2 ec	 xor	 dl, -20			; ffffffecH
  00081	88 55 ed	 mov	 BYTE PTR __k$[ebp+5], dl
  00084	8a 50 06	 mov	 dl, BYTE PTR [eax+6]
  00087	84 d2		 test	 dl, dl
  00089	0f 84 da 00 00
	00		 je	 $LN90@LoadString@6
  0008f	32 d1		 xor	 dl, cl
  00091	88 55 ee	 mov	 BYTE PTR __k$[ebp+6], dl
  00094	8a 50 07	 mov	 dl, BYTE PTR [eax+7]
  00097	84 d2		 test	 dl, dl
  00099	0f 84 c4 00 00
	00		 je	 $LN89@LoadString@6
  0009f	80 f2 ea	 xor	 dl, -22			; ffffffeaH
  000a2	88 55 ef	 mov	 BYTE PTR __k$[ebp+7], dl
  000a5	8a 50 08	 mov	 dl, BYTE PTR [eax+8]
  000a8	84 d2		 test	 dl, dl
  000aa	0f 84 ad 00 00
	00		 je	 $LN88@LoadString@6
  000b0	80 f2 ed	 xor	 dl, -19			; ffffffedH
  000b3	88 55 f0	 mov	 BYTE PTR __k$[ebp+8], dl
  000b6	8a 50 09	 mov	 dl, BYTE PTR [eax+9]
  000b9	84 d2		 test	 dl, dl
  000bb	0f 84 96 00 00
	00		 je	 $LN87@LoadString@6
  000c1	80 f2 ec	 xor	 dl, -20			; ffffffecH
  000c4	88 55 f1	 mov	 BYTE PTR __k$[ebp+9], dl
  000c7	8a 50 0a	 mov	 dl, BYTE PTR [eax+10]
  000ca	84 d2		 test	 dl, dl
  000cc	0f 84 80 00 00
	00		 je	 $LN86@LoadString@6
  000d2	32 d1		 xor	 dl, cl
  000d4	88 55 f2	 mov	 BYTE PTR __k$[ebp+10], dl
  000d7	8a 50 0b	 mov	 dl, BYTE PTR [eax+11]
  000da	84 d2		 test	 dl, dl
  000dc	74 6e		 je	 SHORT $LN85@LoadString@6
  000de	80 f2 ea	 xor	 dl, -22			; ffffffeaH
  000e1	88 55 f3	 mov	 BYTE PTR __k$[ebp+11], dl
  000e4	8a 50 0c	 mov	 dl, BYTE PTR [eax+12]
  000e7	84 d2		 test	 dl, dl
  000e9	74 5b		 je	 SHORT $LN84@LoadString@6
  000eb	80 f2 ed	 xor	 dl, -19			; ffffffedH
  000ee	80 78 0d 00	 cmp	 BYTE PTR [eax+13], 0
  000f2	88 55 f4	 mov	 BYTE PTR __k$[ebp+12], dl
  000f5	0f 84 95 00 00
	00		 je	 $LN111@LoadString@6
  000fb	8a 50 0e	 mov	 dl, BYTE PTR [eax+14]
  000fe	84 d2		 test	 dl, dl
  00100	74 3f		 je	 SHORT $LN82@LoadString@6
  00102	32 d1		 xor	 dl, cl
  00104	88 55 f6	 mov	 BYTE PTR __k$[ebp+14], dl
  00107	8a 50 0f	 mov	 dl, BYTE PTR [eax+15]
  0010a	84 d2		 test	 dl, dl
  0010c	74 2d		 je	 SHORT $LN81@LoadString@6
  0010e	80 f2 ea	 xor	 dl, -22			; ffffffeaH
  00111	88 55 f7	 mov	 BYTE PTR __k$[ebp+15], dl
  00114	8a 50 10	 mov	 dl, BYTE PTR [eax+16]
  00117	84 d2		 test	 dl, dl
  00119	74 1a		 je	 SHORT $LN80@LoadString@6
  0011b	8a 40 11	 mov	 al, BYTE PTR [eax+17]
  0011e	80 f2 ed	 xor	 dl, -19			; ffffffedH
  00121	88 55 f8	 mov	 BYTE PTR __k$[ebp+16], dl
  00124	84 c0		 test	 al, al
  00126	74 07		 je	 SHORT $LN79@LoadString@6
  00128	34 ec		 xor	 al, -20			; ffffffecH
  0012a	88 45 f9	 mov	 BYTE PTR __k$[ebp+17], al
  0012d	eb 61		 jmp	 SHORT $LN111@LoadString@6
$LN79@LoadString@6:
  0012f	c6 45 f9 ec	 mov	 BYTE PTR __k$[ebp+17], -20 ; ffffffecH
  00133	eb 5b		 jmp	 SHORT $LN111@LoadString@6
$LN80@LoadString@6:
  00135	c6 45 f8 ed	 mov	 BYTE PTR __k$[ebp+16], -19 ; ffffffedH
  00139	eb 55		 jmp	 SHORT $LN111@LoadString@6
$LN81@LoadString@6:
  0013b	c6 45 f7 ea	 mov	 BYTE PTR __k$[ebp+15], -22 ; ffffffeaH
  0013f	eb 4f		 jmp	 SHORT $LN111@LoadString@6
$LN82@LoadString@6:
  00141	88 4d f6	 mov	 BYTE PTR __k$[ebp+14], cl
  00144	eb 4a		 jmp	 SHORT $LN111@LoadString@6
$LN84@LoadString@6:
  00146	c6 45 f4 ed	 mov	 BYTE PTR __k$[ebp+12], -19 ; ffffffedH
  0014a	eb 44		 jmp	 SHORT $LN111@LoadString@6
$LN85@LoadString@6:
  0014c	c6 45 f3 ea	 mov	 BYTE PTR __k$[ebp+11], -22 ; ffffffeaH
  00150	eb 3e		 jmp	 SHORT $LN111@LoadString@6
$LN86@LoadString@6:
  00152	88 4d f2	 mov	 BYTE PTR __k$[ebp+10], cl
  00155	eb 39		 jmp	 SHORT $LN111@LoadString@6
$LN87@LoadString@6:
  00157	c6 45 f1 ec	 mov	 BYTE PTR __k$[ebp+9], -20 ; ffffffecH
  0015b	eb 33		 jmp	 SHORT $LN111@LoadString@6
$LN88@LoadString@6:
  0015d	c6 45 f0 ed	 mov	 BYTE PTR __k$[ebp+8], -19 ; ffffffedH
  00161	eb 2d		 jmp	 SHORT $LN111@LoadString@6
$LN89@LoadString@6:
  00163	c6 45 ef ea	 mov	 BYTE PTR __k$[ebp+7], -22 ; ffffffeaH
  00167	eb 27		 jmp	 SHORT $LN111@LoadString@6
$LN90@LoadString@6:
  00169	88 4d ee	 mov	 BYTE PTR __k$[ebp+6], cl
  0016c	eb 22		 jmp	 SHORT $LN111@LoadString@6
$LN91@LoadString@6:
  0016e	c6 45 ed ec	 mov	 BYTE PTR __k$[ebp+5], -20 ; ffffffecH
  00172	eb 1c		 jmp	 SHORT $LN111@LoadString@6
$LN92@LoadString@6:
  00174	c6 45 ec ed	 mov	 BYTE PTR __k$[ebp+4], -19 ; ffffffedH
  00178	eb 16		 jmp	 SHORT $LN111@LoadString@6
$LN93@LoadString@6:
  0017a	c6 45 eb ea	 mov	 BYTE PTR __k$[ebp+3], -22 ; ffffffeaH
  0017e	eb 10		 jmp	 SHORT $LN111@LoadString@6
$LN94@LoadString@6:
  00180	c6 45 ea eb	 mov	 BYTE PTR __k$[ebp+2], -21 ; ffffffebH
  00184	eb 0a		 jmp	 SHORT $LN111@LoadString@6
$LN95@LoadString@6:
  00186	c6 45 e9 ec	 mov	 BYTE PTR __k$[ebp+1], -20 ; ffffffecH
  0018a	eb 04		 jmp	 SHORT $LN111@LoadString@6
$LN96@LoadString@6:
  0018c	c6 45 e8 ed	 mov	 BYTE PTR __k$[ebp], -19	; ffffffedH
$LN111@LoadString@6:
  00190	6a 03		 push	 3
  00192	8d 45 e8	 lea	 eax, DWORD PTR __k$[ebp]
  00195	c6 45 f5 00	 mov	 BYTE PTR __k$[ebp+13], 0
  00199	5a		 pop	 edx
$LL104@LoadString@6:
  0019a	81 30 ed ec eb
	ea		 xor	 DWORD PTR [eax], -353637139 ; eaebecedH
  001a0	83 c0 04	 add	 eax, 4
  001a3	4a		 dec	 edx
  001a4	75 f4		 jne	 SHORT $LL104@LoadString@6

; 163  : 		LoadString(_k, d, b, i);

  001a6	ff 75 14	 push	 DWORD PTR _i$[ebp]
  001a9	8b 4d e4	 mov	 ecx, DWORD PTR _this$GSCopy$[ebp]
  001ac	80 75 f4 ed	 xor	 BYTE PTR __k$[ebp+12], -19 ; ffffffedH
  001b0	57		 push	 edi
  001b1	56		 push	 esi
  001b2	8d 45 e8	 lea	 eax, DWORD PTR __k$[ebp]
  001b5	50		 push	 eax
  001b6	ff 15 00 00 00
	00		 call	 DWORD PTR __imp_?LoadStringA@ioINILoader@@QAEXPBD0PADH@Z

; 164  : 	}

  001bc	8b 4d fc	 mov	 ecx, DWORD PTR __$ArrayPad$[ebp]
  001bf	5f		 pop	 edi
  001c0	33 cd		 xor	 ecx, ebp
  001c2	5e		 pop	 esi
  001c3	e8 00 00 00 00	 call	 @__security_check_cookie@4
  001c8	c9		 leave
  001c9	c2 10 00	 ret	 16			; 00000010H
??$LoadString_e@$0O@@ioINILoader@@QAEXAAY0O@$$CBDAAY00$$CBDPADH@Z ENDP ; ioINILoader::LoadString_e<14>
_TEXT	ENDS
PUBLIC	__$ArrayPad$
PUBLIC	??$LoadBool_e@$0BA@@ioINILoader@@QAE_NAAY0BA@$$CBD_N@Z ; ioINILoader::LoadBool_e<16>
EXTRN	__imp_?LoadBool@ioINILoader@@QAE_NPBD_N@Z:PROC
; Function compile flags: /Ogsp
;	COMDAT ??$LoadBool_e@$0BA@@ioINILoader@@QAE_NAAY0BA@$$CBD_N@Z
_TEXT	SEGMENT
__k$ = -24						; size = 16
__$ArrayPad$ = -4					; size = 4
_k$ = 8							; size = 4
_b$ = 12						; size = 1
??$LoadBool_e@$0BA@@ioINILoader@@QAE_NAAY0BA@$$CBD_N@Z PROC ; ioINILoader::LoadBool_e<16>, COMDAT
; _this$ = ecx

; 101  : 	{

  00000	55		 push	 ebp
  00001	8b ec		 mov	 ebp, esp
  00003	83 ec 18	 sub	 esp, 24			; 00000018H
  00006	a1 00 00 00 00	 mov	 eax, DWORD PTR ___security_cookie
  0000b	33 c5		 xor	 eax, ebp
  0000d	89 45 fc	 mov	 DWORD PTR __$ArrayPad$[ebp], eax
  00010	8b 45 08	 mov	 eax, DWORD PTR _k$[ebp]

; 102  : 		_ENCSTR(k, _k);

  00013	8a 10		 mov	 dl, BYTE PTR [eax]
  00015	56		 push	 esi
  00016	8b f1		 mov	 esi, ecx
  00018	84 d2		 test	 dl, dl
  0001a	0f 84 8c 01 00
	00		 je	 $LN96@LoadBool_e
  00020	80 f2 ed	 xor	 dl, -19			; ffffffedH
  00023	88 55 e8	 mov	 BYTE PTR __k$[ebp], dl
  00026	8a 50 01	 mov	 dl, BYTE PTR [eax+1]
  00029	84 d2		 test	 dl, dl
  0002b	0f 84 75 01 00
	00		 je	 $LN95@LoadBool_e
  00031	80 f2 ec	 xor	 dl, -20			; ffffffecH
  00034	88 55 e9	 mov	 BYTE PTR __k$[ebp+1], dl
  00037	8a 50 02	 mov	 dl, BYTE PTR [eax+2]
  0003a	84 d2		 test	 dl, dl
  0003c	0f 84 5e 01 00
	00		 je	 $LN94@LoadBool_e
  00042	b1 eb		 mov	 cl, -21			; ffffffebH
  00044	32 d1		 xor	 dl, cl
  00046	88 55 ea	 mov	 BYTE PTR __k$[ebp+2], dl
  00049	8a 50 03	 mov	 dl, BYTE PTR [eax+3]
  0004c	84 d2		 test	 dl, dl
  0004e	0f 84 46 01 00
	00		 je	 $LN93@LoadBool_e
  00054	80 f2 ea	 xor	 dl, -22			; ffffffeaH
  00057	88 55 eb	 mov	 BYTE PTR __k$[ebp+3], dl
  0005a	8a 50 04	 mov	 dl, BYTE PTR [eax+4]
  0005d	84 d2		 test	 dl, dl
  0005f	0f 84 2f 01 00
	00		 je	 $LN92@LoadBool_e
  00065	80 f2 ed	 xor	 dl, -19			; ffffffedH
  00068	88 55 ec	 mov	 BYTE PTR __k$[ebp+4], dl
  0006b	8a 50 05	 mov	 dl, BYTE PTR [eax+5]
  0006e	84 d2		 test	 dl, dl
  00070	0f 84 18 01 00
	00		 je	 $LN91@LoadBool_e
  00076	80 f2 ec	 xor	 dl, -20			; ffffffecH
  00079	88 55 ed	 mov	 BYTE PTR __k$[ebp+5], dl
  0007c	8a 50 06	 mov	 dl, BYTE PTR [eax+6]
  0007f	84 d2		 test	 dl, dl
  00081	0f 84 02 01 00
	00		 je	 $LN90@LoadBool_e
  00087	32 d1		 xor	 dl, cl
  00089	88 55 ee	 mov	 BYTE PTR __k$[ebp+6], dl
  0008c	8a 50 07	 mov	 dl, BYTE PTR [eax+7]
  0008f	84 d2		 test	 dl, dl
  00091	0f 84 ec 00 00
	00		 je	 $LN89@LoadBool_e
  00097	80 f2 ea	 xor	 dl, -22			; ffffffeaH
  0009a	88 55 ef	 mov	 BYTE PTR __k$[ebp+7], dl
  0009d	8a 50 08	 mov	 dl, BYTE PTR [eax+8]
  000a0	84 d2		 test	 dl, dl
  000a2	0f 84 d5 00 00
	00		 je	 $LN88@LoadBool_e
  000a8	80 f2 ed	 xor	 dl, -19			; ffffffedH
  000ab	88 55 f0	 mov	 BYTE PTR __k$[ebp+8], dl
  000ae	8a 50 09	 mov	 dl, BYTE PTR [eax+9]
  000b1	84 d2		 test	 dl, dl
  000b3	0f 84 be 00 00
	00		 je	 $LN87@LoadBool_e
  000b9	80 f2 ec	 xor	 dl, -20			; ffffffecH
  000bc	88 55 f1	 mov	 BYTE PTR __k$[ebp+9], dl
  000bf	8a 50 0a	 mov	 dl, BYTE PTR [eax+10]
  000c2	84 d2		 test	 dl, dl
  000c4	0f 84 a8 00 00
	00		 je	 $LN86@LoadBool_e
  000ca	32 d1		 xor	 dl, cl
  000cc	88 55 f2	 mov	 BYTE PTR __k$[ebp+10], dl
  000cf	8a 50 0b	 mov	 dl, BYTE PTR [eax+11]
  000d2	84 d2		 test	 dl, dl
  000d4	0f 84 92 00 00
	00		 je	 $LN85@LoadBool_e
  000da	80 f2 ea	 xor	 dl, -22			; ffffffeaH
  000dd	88 55 f3	 mov	 BYTE PTR __k$[ebp+11], dl
  000e0	8a 50 0c	 mov	 dl, BYTE PTR [eax+12]
  000e3	84 d2		 test	 dl, dl
  000e5	74 7f		 je	 SHORT $LN84@LoadBool_e
  000e7	80 f2 ed	 xor	 dl, -19			; ffffffedH
  000ea	88 55 f4	 mov	 BYTE PTR __k$[ebp+12], dl
  000ed	8a 50 0d	 mov	 dl, BYTE PTR [eax+13]
  000f0	84 d2		 test	 dl, dl
  000f2	74 6c		 je	 SHORT $LN83@LoadBool_e
  000f4	80 f2 ec	 xor	 dl, -20			; ffffffecH
  000f7	88 55 f5	 mov	 BYTE PTR __k$[ebp+13], dl
  000fa	8a 50 0e	 mov	 dl, BYTE PTR [eax+14]
  000fd	84 d2		 test	 dl, dl
  000ff	74 5a		 je	 SHORT $LN82@LoadBool_e
  00101	32 d1		 xor	 dl, cl
  00103	80 78 0f 00	 cmp	 BYTE PTR [eax+15], 0
  00107	88 55 f6	 mov	 BYTE PTR __k$[ebp+14], dl
  0010a	0f 84 a0 00 00
	00		 je	 $LN1@LoadBool_e
  00110	8a 50 10	 mov	 dl, BYTE PTR [eax+16]
  00113	84 d2		 test	 dl, dl
  00115	74 3e		 je	 SHORT $LN80@LoadBool_e
  00117	80 f2 ed	 xor	 dl, -19			; ffffffedH
  0011a	88 55 f8	 mov	 BYTE PTR __k$[ebp+16], dl
  0011d	8a 50 11	 mov	 dl, BYTE PTR [eax+17]
  00120	84 d2		 test	 dl, dl
  00122	74 2b		 je	 SHORT $LN79@LoadBool_e
  00124	80 f2 ec	 xor	 dl, -20			; ffffffecH
  00127	88 55 f9	 mov	 BYTE PTR __k$[ebp+17], dl
  0012a	8a 50 12	 mov	 dl, BYTE PTR [eax+18]
  0012d	84 d2		 test	 dl, dl
  0012f	74 19		 je	 SHORT $LN78@LoadBool_e
  00131	8a 40 13	 mov	 al, BYTE PTR [eax+19]
  00134	32 d1		 xor	 dl, cl
  00136	88 55 fa	 mov	 BYTE PTR __k$[ebp+18], dl
  00139	84 c0		 test	 al, al
  0013b	74 07		 je	 SHORT $LN77@LoadBool_e
  0013d	34 ea		 xor	 al, -22			; ffffffeaH
  0013f	88 45 fb	 mov	 BYTE PTR __k$[ebp+19], al
  00142	eb 6c		 jmp	 SHORT $LN1@LoadBool_e
$LN77@LoadBool_e:
  00144	c6 45 fb ea	 mov	 BYTE PTR __k$[ebp+19], -22 ; ffffffeaH
  00148	eb 66		 jmp	 SHORT $LN1@LoadBool_e
$LN78@LoadBool_e:
  0014a	88 4d fa	 mov	 BYTE PTR __k$[ebp+18], cl
  0014d	eb 61		 jmp	 SHORT $LN1@LoadBool_e
$LN79@LoadBool_e:
  0014f	c6 45 f9 ec	 mov	 BYTE PTR __k$[ebp+17], -20 ; ffffffecH
  00153	eb 5b		 jmp	 SHORT $LN1@LoadBool_e
$LN80@LoadBool_e:
  00155	c6 45 f8 ed	 mov	 BYTE PTR __k$[ebp+16], -19 ; ffffffedH
  00159	eb 55		 jmp	 SHORT $LN1@LoadBool_e
$LN82@LoadBool_e:
  0015b	88 4d f6	 mov	 BYTE PTR __k$[ebp+14], cl
  0015e	eb 50		 jmp	 SHORT $LN1@LoadBool_e
$LN83@LoadBool_e:
  00160	c6 45 f5 ec	 mov	 BYTE PTR __k$[ebp+13], -20 ; ffffffecH
  00164	eb 4a		 jmp	 SHORT $LN1@LoadBool_e
$LN84@LoadBool_e:
  00166	c6 45 f4 ed	 mov	 BYTE PTR __k$[ebp+12], -19 ; ffffffedH
  0016a	eb 44		 jmp	 SHORT $LN1@LoadBool_e
$LN85@LoadBool_e:
  0016c	c6 45 f3 ea	 mov	 BYTE PTR __k$[ebp+11], -22 ; ffffffeaH
  00170	eb 3e		 jmp	 SHORT $LN1@LoadBool_e
$LN86@LoadBool_e:
  00172	88 4d f2	 mov	 BYTE PTR __k$[ebp+10], cl
  00175	eb 39		 jmp	 SHORT $LN1@LoadBool_e
$LN87@LoadBool_e:
  00177	c6 45 f1 ec	 mov	 BYTE PTR __k$[ebp+9], -20 ; ffffffecH
  0017b	eb 33		 jmp	 SHORT $LN1@LoadBool_e
$LN88@LoadBool_e:
  0017d	c6 45 f0 ed	 mov	 BYTE PTR __k$[ebp+8], -19 ; ffffffedH
  00181	eb 2d		 jmp	 SHORT $LN1@LoadBool_e
$LN89@LoadBool_e:
  00183	c6 45 ef ea	 mov	 BYTE PTR __k$[ebp+7], -22 ; ffffffeaH
  00187	eb 27		 jmp	 SHORT $LN1@LoadBool_e
$LN90@LoadBool_e:
  00189	88 4d ee	 mov	 BYTE PTR __k$[ebp+6], cl
  0018c	eb 22		 jmp	 SHORT $LN1@LoadBool_e
$LN91@LoadBool_e:
  0018e	c6 45 ed ec	 mov	 BYTE PTR __k$[ebp+5], -20 ; ffffffecH
  00192	eb 1c		 jmp	 SHORT $LN1@LoadBool_e
$LN92@LoadBool_e:
  00194	c6 45 ec ed	 mov	 BYTE PTR __k$[ebp+4], -19 ; ffffffedH
  00198	eb 16		 jmp	 SHORT $LN1@LoadBool_e
$LN93@LoadBool_e:
  0019a	c6 45 eb ea	 mov	 BYTE PTR __k$[ebp+3], -22 ; ffffffeaH
  0019e	eb 10		 jmp	 SHORT $LN1@LoadBool_e
$LN94@LoadBool_e:
  001a0	c6 45 ea eb	 mov	 BYTE PTR __k$[ebp+2], -21 ; ffffffebH
  001a4	eb 0a		 jmp	 SHORT $LN1@LoadBool_e
$LN95@LoadBool_e:
  001a6	c6 45 e9 ec	 mov	 BYTE PTR __k$[ebp+1], -20 ; ffffffecH
  001aa	eb 04		 jmp	 SHORT $LN1@LoadBool_e
$LN96@LoadBool_e:
  001ac	c6 45 e8 ed	 mov	 BYTE PTR __k$[ebp], -19	; ffffffedH
$LN1@LoadBool_e:
  001b0	6a 03		 push	 3
  001b2	8d 45 e8	 lea	 eax, DWORD PTR __k$[ebp]
  001b5	c6 45 f7 00	 mov	 BYTE PTR __k$[ebp+15], 0
  001b9	5a		 pop	 edx
$LL104@LoadBool_e:
  001ba	81 30 ed ec eb
	ea		 xor	 DWORD PTR [eax], -353637139 ; eaebecedH
  001c0	83 c0 04	 add	 eax, 4
  001c3	4a		 dec	 edx
  001c4	75 f4		 jne	 SHORT $LL104@LoadBool_e
  001c6	6a 0c		 push	 12			; 0000000cH
  001c8	58		 pop	 eax
$LL101@LoadBool_e:
  001c9	8b c8		 mov	 ecx, eax
  001cb	81 e1 03 00 00
	80		 and	 ecx, -2147483645	; 80000003H
  001d1	79 05		 jns	 SHORT $LN111@LoadBool_e
  001d3	49		 dec	 ecx
  001d4	83 c9 fc	 or	 ecx, -4			; fffffffcH
  001d7	41		 inc	 ecx
$LN111@LoadBool_e:
  001d8	b2 ed		 mov	 dl, -19			; ffffffedH
  001da	2a d1		 sub	 dl, cl
  001dc	30 54 05 e8	 xor	 BYTE PTR __k$[ebp+eax], dl
  001e0	40		 inc	 eax
  001e1	83 f8 0f	 cmp	 eax, 15			; 0000000fH
  001e4	7c e3		 jl	 SHORT $LL101@LoadBool_e

; 103  : 		return LoadBool(_k, b);

  001e6	ff 75 0c	 push	 DWORD PTR _b$[ebp]
  001e9	8d 45 e8	 lea	 eax, DWORD PTR __k$[ebp]
  001ec	50		 push	 eax
  001ed	8b ce		 mov	 ecx, esi
  001ef	ff 15 00 00 00
	00		 call	 DWORD PTR __imp_?LoadBool@ioINILoader@@QAE_NPBD_N@Z

; 104  : 	}

  001f5	8b 4d fc	 mov	 ecx, DWORD PTR __$ArrayPad$[ebp]
  001f8	33 cd		 xor	 ecx, ebp
  001fa	5e		 pop	 esi
  001fb	e8 00 00 00 00	 call	 @__security_check_cookie@4
  00200	c9		 leave
  00201	c2 08 00	 ret	 8
??$LoadBool_e@$0BA@@ioINILoader@@QAE_NAAY0BA@$$CBD_N@Z ENDP ; ioINILoader::LoadBool_e<16>
_TEXT	ENDS
PUBLIC	__$ArrayPad$
PUBLIC	??$LoadFloat_e@$0BA@@ioINILoader@@QAEMAAY0BA@$$CBDM@Z ; ioINILoader::LoadFloat_e<16>
; Function compile flags: /Ogsp
;	COMDAT ??$LoadFloat_e@$0BA@@ioINILoader@@QAEMAAY0BA@$$CBDM@Z
_TEXT	SEGMENT
__k$ = -24						; size = 16
__$ArrayPad$ = -4					; size = 4
_k$ = 8							; size = 4
_f$ = 12						; size = 4
??$LoadFloat_e@$0BA@@ioINILoader@@QAEMAAY0BA@$$CBDM@Z PROC ; ioINILoader::LoadFloat_e<16>, COMDAT
; _this$ = ecx

; 135  : 	{

  00000	55		 push	 ebp
  00001	8b ec		 mov	 ebp, esp
  00003	83 ec 18	 sub	 esp, 24			; 00000018H
  00006	a1 00 00 00 00	 mov	 eax, DWORD PTR ___security_cookie
  0000b	33 c5		 xor	 eax, ebp
  0000d	89 45 fc	 mov	 DWORD PTR __$ArrayPad$[ebp], eax
  00010	8b 45 08	 mov	 eax, DWORD PTR _k$[ebp]

; 136  : 		_ENCSTR(k, _k);

  00013	8a 10		 mov	 dl, BYTE PTR [eax]
  00015	56		 push	 esi
  00016	8b f1		 mov	 esi, ecx
  00018	84 d2		 test	 dl, dl
  0001a	0f 84 8c 01 00
	00		 je	 $LN96@LoadFloat_@6
  00020	80 f2 ed	 xor	 dl, -19			; ffffffedH
  00023	88 55 e8	 mov	 BYTE PTR __k$[ebp], dl
  00026	8a 50 01	 mov	 dl, BYTE PTR [eax+1]
  00029	84 d2		 test	 dl, dl
  0002b	0f 84 75 01 00
	00		 je	 $LN95@LoadFloat_@6
  00031	80 f2 ec	 xor	 dl, -20			; ffffffecH
  00034	88 55 e9	 mov	 BYTE PTR __k$[ebp+1], dl
  00037	8a 50 02	 mov	 dl, BYTE PTR [eax+2]
  0003a	84 d2		 test	 dl, dl
  0003c	0f 84 5e 01 00
	00		 je	 $LN94@LoadFloat_@6
  00042	b1 eb		 mov	 cl, -21			; ffffffebH
  00044	32 d1		 xor	 dl, cl
  00046	88 55 ea	 mov	 BYTE PTR __k$[ebp+2], dl
  00049	8a 50 03	 mov	 dl, BYTE PTR [eax+3]
  0004c	84 d2		 test	 dl, dl
  0004e	0f 84 46 01 00
	00		 je	 $LN93@LoadFloat_@6
  00054	80 f2 ea	 xor	 dl, -22			; ffffffeaH
  00057	88 55 eb	 mov	 BYTE PTR __k$[ebp+3], dl
  0005a	8a 50 04	 mov	 dl, BYTE PTR [eax+4]
  0005d	84 d2		 test	 dl, dl
  0005f	0f 84 2f 01 00
	00		 je	 $LN92@LoadFloat_@6
  00065	80 f2 ed	 xor	 dl, -19			; ffffffedH
  00068	88 55 ec	 mov	 BYTE PTR __k$[ebp+4], dl
  0006b	8a 50 05	 mov	 dl, BYTE PTR [eax+5]
  0006e	84 d2		 test	 dl, dl
  00070	0f 84 18 01 00
	00		 je	 $LN91@LoadFloat_@6
  00076	80 f2 ec	 xor	 dl, -20			; ffffffecH
  00079	88 55 ed	 mov	 BYTE PTR __k$[ebp+5], dl
  0007c	8a 50 06	 mov	 dl, BYTE PTR [eax+6]
  0007f	84 d2		 test	 dl, dl
  00081	0f 84 02 01 00
	00		 je	 $LN90@LoadFloat_@6
  00087	32 d1		 xor	 dl, cl
  00089	88 55 ee	 mov	 BYTE PTR __k$[ebp+6], dl
  0008c	8a 50 07	 mov	 dl, BYTE PTR [eax+7]
  0008f	84 d2		 test	 dl, dl
  00091	0f 84 ec 00 00
	00		 je	 $LN89@LoadFloat_@6
  00097	80 f2 ea	 xor	 dl, -22			; ffffffeaH
  0009a	88 55 ef	 mov	 BYTE PTR __k$[ebp+7], dl
  0009d	8a 50 08	 mov	 dl, BYTE PTR [eax+8]
  000a0	84 d2		 test	 dl, dl
  000a2	0f 84 d5 00 00
	00		 je	 $LN88@LoadFloat_@6
  000a8	80 f2 ed	 xor	 dl, -19			; ffffffedH
  000ab	88 55 f0	 mov	 BYTE PTR __k$[ebp+8], dl
  000ae	8a 50 09	 mov	 dl, BYTE PTR [eax+9]
  000b1	84 d2		 test	 dl, dl
  000b3	0f 84 be 00 00
	00		 je	 $LN87@LoadFloat_@6
  000b9	80 f2 ec	 xor	 dl, -20			; ffffffecH
  000bc	88 55 f1	 mov	 BYTE PTR __k$[ebp+9], dl
  000bf	8a 50 0a	 mov	 dl, BYTE PTR [eax+10]
  000c2	84 d2		 test	 dl, dl
  000c4	0f 84 a8 00 00
	00		 je	 $LN86@LoadFloat_@6
  000ca	32 d1		 xor	 dl, cl
  000cc	88 55 f2	 mov	 BYTE PTR __k$[ebp+10], dl
  000cf	8a 50 0b	 mov	 dl, BYTE PTR [eax+11]
  000d2	84 d2		 test	 dl, dl
  000d4	0f 84 92 00 00
	00		 je	 $LN85@LoadFloat_@6
  000da	80 f2 ea	 xor	 dl, -22			; ffffffeaH
  000dd	88 55 f3	 mov	 BYTE PTR __k$[ebp+11], dl
  000e0	8a 50 0c	 mov	 dl, BYTE PTR [eax+12]
  000e3	84 d2		 test	 dl, dl
  000e5	74 7f		 je	 SHORT $LN84@LoadFloat_@6
  000e7	80 f2 ed	 xor	 dl, -19			; ffffffedH
  000ea	88 55 f4	 mov	 BYTE PTR __k$[ebp+12], dl
  000ed	8a 50 0d	 mov	 dl, BYTE PTR [eax+13]
  000f0	84 d2		 test	 dl, dl
  000f2	74 6c		 je	 SHORT $LN83@LoadFloat_@6
  000f4	80 f2 ec	 xor	 dl, -20			; ffffffecH
  000f7	88 55 f5	 mov	 BYTE PTR __k$[ebp+13], dl
  000fa	8a 50 0e	 mov	 dl, BYTE PTR [eax+14]
  000fd	84 d2		 test	 dl, dl
  000ff	74 5a		 je	 SHORT $LN82@LoadFloat_@6
  00101	32 d1		 xor	 dl, cl
  00103	80 78 0f 00	 cmp	 BYTE PTR [eax+15], 0
  00107	88 55 f6	 mov	 BYTE PTR __k$[ebp+14], dl
  0010a	0f 84 a0 00 00
	00		 je	 $LN1@LoadFloat_@6
  00110	8a 50 10	 mov	 dl, BYTE PTR [eax+16]
  00113	84 d2		 test	 dl, dl
  00115	74 3e		 je	 SHORT $LN80@LoadFloat_@6
  00117	80 f2 ed	 xor	 dl, -19			; ffffffedH
  0011a	88 55 f8	 mov	 BYTE PTR __k$[ebp+16], dl
  0011d	8a 50 11	 mov	 dl, BYTE PTR [eax+17]
  00120	84 d2		 test	 dl, dl
  00122	74 2b		 je	 SHORT $LN79@LoadFloat_@6
  00124	80 f2 ec	 xor	 dl, -20			; ffffffecH
  00127	88 55 f9	 mov	 BYTE PTR __k$[ebp+17], dl
  0012a	8a 50 12	 mov	 dl, BYTE PTR [eax+18]
  0012d	84 d2		 test	 dl, dl
  0012f	74 19		 je	 SHORT $LN78@LoadFloat_@6
  00131	8a 40 13	 mov	 al, BYTE PTR [eax+19]
  00134	32 d1		 xor	 dl, cl
  00136	88 55 fa	 mov	 BYTE PTR __k$[ebp+18], dl
  00139	84 c0		 test	 al, al
  0013b	74 07		 je	 SHORT $LN77@LoadFloat_@6
  0013d	34 ea		 xor	 al, -22			; ffffffeaH
  0013f	88 45 fb	 mov	 BYTE PTR __k$[ebp+19], al
  00142	eb 6c		 jmp	 SHORT $LN1@LoadFloat_@6
$LN77@LoadFloat_@6:
  00144	c6 45 fb ea	 mov	 BYTE PTR __k$[ebp+19], -22 ; ffffffeaH
  00148	eb 66		 jmp	 SHORT $LN1@LoadFloat_@6
$LN78@LoadFloat_@6:
  0014a	88 4d fa	 mov	 BYTE PTR __k$[ebp+18], cl
  0014d	eb 61		 jmp	 SHORT $LN1@LoadFloat_@6
$LN79@LoadFloat_@6:
  0014f	c6 45 f9 ec	 mov	 BYTE PTR __k$[ebp+17], -20 ; ffffffecH
  00153	eb 5b		 jmp	 SHORT $LN1@LoadFloat_@6
$LN80@LoadFloat_@6:
  00155	c6 45 f8 ed	 mov	 BYTE PTR __k$[ebp+16], -19 ; ffffffedH
  00159	eb 55		 jmp	 SHORT $LN1@LoadFloat_@6
$LN82@LoadFloat_@6:
  0015b	88 4d f6	 mov	 BYTE PTR __k$[ebp+14], cl
  0015e	eb 50		 jmp	 SHORT $LN1@LoadFloat_@6
$LN83@LoadFloat_@6:
  00160	c6 45 f5 ec	 mov	 BYTE PTR __k$[ebp+13], -20 ; ffffffecH
  00164	eb 4a		 jmp	 SHORT $LN1@LoadFloat_@6
$LN84@LoadFloat_@6:
  00166	c6 45 f4 ed	 mov	 BYTE PTR __k$[ebp+12], -19 ; ffffffedH
  0016a	eb 44		 jmp	 SHORT $LN1@LoadFloat_@6
$LN85@LoadFloat_@6:
  0016c	c6 45 f3 ea	 mov	 BYTE PTR __k$[ebp+11], -22 ; ffffffeaH
  00170	eb 3e		 jmp	 SHORT $LN1@LoadFloat_@6
$LN86@LoadFloat_@6:
  00172	88 4d f2	 mov	 BYTE PTR __k$[ebp+10], cl
  00175	eb 39		 jmp	 SHORT $LN1@LoadFloat_@6
$LN87@LoadFloat_@6:
  00177	c6 45 f1 ec	 mov	 BYTE PTR __k$[ebp+9], -20 ; ffffffecH
  0017b	eb 33		 jmp	 SHORT $LN1@LoadFloat_@6
$LN88@LoadFloat_@6:
  0017d	c6 45 f0 ed	 mov	 BYTE PTR __k$[ebp+8], -19 ; ffffffedH
  00181	eb 2d		 jmp	 SHORT $LN1@LoadFloat_@6
$LN89@LoadFloat_@6:
  00183	c6 45 ef ea	 mov	 BYTE PTR __k$[ebp+7], -22 ; ffffffeaH
  00187	eb 27		 jmp	 SHORT $LN1@LoadFloat_@6
$LN90@LoadFloat_@6:
  00189	88 4d ee	 mov	 BYTE PTR __k$[ebp+6], cl
  0018c	eb 22		 jmp	 SHORT $LN1@LoadFloat_@6
$LN91@LoadFloat_@6:
  0018e	c6 45 ed ec	 mov	 BYTE PTR __k$[ebp+5], -20 ; ffffffecH
  00192	eb 1c		 jmp	 SHORT $LN1@LoadFloat_@6
$LN92@LoadFloat_@6:
  00194	c6 45 ec ed	 mov	 BYTE PTR __k$[ebp+4], -19 ; ffffffedH
  00198	eb 16		 jmp	 SHORT $LN1@LoadFloat_@6
$LN93@LoadFloat_@6:
  0019a	c6 45 eb ea	 mov	 BYTE PTR __k$[ebp+3], -22 ; ffffffeaH
  0019e	eb 10		 jmp	 SHORT $LN1@LoadFloat_@6
$LN94@LoadFloat_@6:
  001a0	c6 45 ea eb	 mov	 BYTE PTR __k$[ebp+2], -21 ; ffffffebH
  001a4	eb 0a		 jmp	 SHORT $LN1@LoadFloat_@6
$LN95@LoadFloat_@6:
  001a6	c6 45 e9 ec	 mov	 BYTE PTR __k$[ebp+1], -20 ; ffffffecH
  001aa	eb 04		 jmp	 SHORT $LN1@LoadFloat_@6
$LN96@LoadFloat_@6:
  001ac	c6 45 e8 ed	 mov	 BYTE PTR __k$[ebp], -19	; ffffffedH
$LN1@LoadFloat_@6:
  001b0	6a 03		 push	 3
  001b2	8d 45 e8	 lea	 eax, DWORD PTR __k$[ebp]
  001b5	c6 45 f7 00	 mov	 BYTE PTR __k$[ebp+15], 0
  001b9	5a		 pop	 edx
$LL104@LoadFloat_@6:
  001ba	81 30 ed ec eb
	ea		 xor	 DWORD PTR [eax], -353637139 ; eaebecedH
  001c0	83 c0 04	 add	 eax, 4
  001c3	4a		 dec	 edx
  001c4	75 f4		 jne	 SHORT $LL104@LoadFloat_@6
  001c6	6a 0c		 push	 12			; 0000000cH
  001c8	58		 pop	 eax
$LL101@LoadFloat_@6:
  001c9	8b c8		 mov	 ecx, eax
  001cb	81 e1 03 00 00
	80		 and	 ecx, -2147483645	; 80000003H
  001d1	79 05		 jns	 SHORT $LN111@LoadFloat_@6
  001d3	49		 dec	 ecx
  001d4	83 c9 fc	 or	 ecx, -4			; fffffffcH
  001d7	41		 inc	 ecx
$LN111@LoadFloat_@6:
  001d8	b2 ed		 mov	 dl, -19			; ffffffedH
  001da	2a d1		 sub	 dl, cl
  001dc	30 54 05 e8	 xor	 BYTE PTR __k$[ebp+eax], dl
  001e0	40		 inc	 eax
  001e1	83 f8 0f	 cmp	 eax, 15			; 0000000fH
  001e4	7c e3		 jl	 SHORT $LL101@LoadFloat_@6

; 137  : 		return LoadFloat(_k, f);

  001e6	f3 0f 10 45 0c	 movss	 xmm0, DWORD PTR _f$[ebp]
  001eb	51		 push	 ecx
  001ec	8d 45 e8	 lea	 eax, DWORD PTR __k$[ebp]
  001ef	f3 0f 11 04 24	 movss	 DWORD PTR [esp], xmm0
  001f4	50		 push	 eax
  001f5	8b ce		 mov	 ecx, esi
  001f7	ff 15 00 00 00
	00		 call	 DWORD PTR __imp_?LoadFloat@ioINILoader@@QAEMPBDM@Z

; 138  : 	}

  001fd	8b 4d fc	 mov	 ecx, DWORD PTR __$ArrayPad$[ebp]
  00200	33 cd		 xor	 ecx, ebp
  00202	5e		 pop	 esi
  00203	e8 00 00 00 00	 call	 @__security_check_cookie@4
  00208	c9		 leave
  00209	c2 08 00	 ret	 8
??$LoadFloat_e@$0BA@@ioINILoader@@QAEMAAY0BA@$$CBDM@Z ENDP ; ioINILoader::LoadFloat_e<16>
_TEXT	ENDS
PUBLIC	??$GetAnimationEventTime_e@$0N@@ioEntityGroup@@QAEMHAAY0N@$$CBD@Z ; ioEntityGroup::GetAnimationEventTime_e<13>
EXTRN	__imp_?GetAnimationEventTime@ioEntityGroup@@QAEMHABVioHashString@@@Z:PROC
EXTRN	__imp_??0ioHashString@@QAE@PBD@Z:PROC
EXTRN	___CxxFrameHandler3:PROC
EXTRN	__EH_epilog3_GS:PROC
EXTRN	__EH_prolog3_GS:PROC
;	COMDAT xdata$x
; File d:\lost saga for developer\youtube\tutorial\source\src\lsclient\stringprotect.h
xdata$x	SEGMENT
__unwindtable$??$GetAnimationEventTime_e@$0N@@ioEntityGroup@@QAEMHAAY0N@$$CBD@Z DD 0ffffffffH
	DD	FLAT:__unwindfunclet$??$GetAnimationEventTime_e@$0N@@ioEntityGroup@@QAEMHAAY0N@$$CBD@Z$0
__ehfuncinfo$??$GetAnimationEventTime_e@$0N@@ioEntityGroup@@QAEMHAAY0N@$$CBD@Z DD 019930522H
	DD	01H
	DD	FLAT:__unwindtable$??$GetAnimationEventTime_e@$0N@@ioEntityGroup@@QAEMHAAY0N@$$CBD@Z
	DD	2 DUP(00H)
	DD	2 DUP(00H)
	DD	00H
	DD	01H
; Function compile flags: /Ogsp
; File d:\lost saga for developer\youtube\tutorial\source\src\io3dengine\ioentitygroup.h
xdata$x	ENDS
;	COMDAT ??$GetAnimationEventTime_e@$0N@@ioEntityGroup@@QAEMHAAY0N@$$CBD@Z
_TEXT	SEGMENT
$T554106 = -56						; size = 16
$T554105 = -40						; size = 4
_szEncEventType$ = -36					; size = 13
__$EHRec$ = -12						; size = 12
_id$ = 8						; size = 4
_szEventType$ = 12					; size = 4
??$GetAnimationEventTime_e@$0N@@ioEntityGroup@@QAEMHAAY0N@$$CBD@Z PROC ; ioEntityGroup::GetAnimationEventTime_e<13>, COMDAT
; _this$ = ecx

; 414  : 	{

  00000	6a 2c		 push	 44			; 0000002cH
  00002	b8 00 00 00 00	 mov	 eax, __ehhandler$??$GetAnimationEventTime_e@$0N@@ioEntityGroup@@QAEMHAAY0N@$$CBD@Z
  00007	e8 00 00 00 00	 call	 __EH_prolog3_GS
  0000c	8b 45 0c	 mov	 eax, DWORD PTR _szEventType$[ebp]
  0000f	8b f1		 mov	 esi, ecx

; 415  : 		_ENCSTR(szEventType, szEncEventType);

  00011	8a 08		 mov	 cl, BYTE PTR [eax]
  00013	84 c9		 test	 cl, cl
  00015	0f 84 49 01 00
	00		 je	 $LN96@GetAnimati
  0001b	80 f1 ed	 xor	 cl, -19			; ffffffedH
  0001e	88 4d dc	 mov	 BYTE PTR _szEncEventType$[ebp], cl
  00021	8a 48 01	 mov	 cl, BYTE PTR [eax+1]
  00024	84 c9		 test	 cl, cl
  00026	0f 84 32 01 00
	00		 je	 $LN95@GetAnimati
  0002c	80 f1 ec	 xor	 cl, -20			; ffffffecH
  0002f	88 4d dd	 mov	 BYTE PTR _szEncEventType$[ebp+1], cl
  00032	8a 48 02	 mov	 cl, BYTE PTR [eax+2]
  00035	84 c9		 test	 cl, cl
  00037	0f 84 1b 01 00
	00		 je	 $LN94@GetAnimati
  0003d	b2 eb		 mov	 dl, -21			; ffffffebH
  0003f	32 ca		 xor	 cl, dl
  00041	88 4d de	 mov	 BYTE PTR _szEncEventType$[ebp+2], cl
  00044	8a 48 03	 mov	 cl, BYTE PTR [eax+3]
  00047	84 c9		 test	 cl, cl
  00049	0f 84 03 01 00
	00		 je	 $LN93@GetAnimati
  0004f	80 f1 ea	 xor	 cl, -22			; ffffffeaH
  00052	88 4d df	 mov	 BYTE PTR _szEncEventType$[ebp+3], cl
  00055	8a 48 04	 mov	 cl, BYTE PTR [eax+4]
  00058	84 c9		 test	 cl, cl
  0005a	0f 84 ec 00 00
	00		 je	 $LN92@GetAnimati
  00060	80 f1 ed	 xor	 cl, -19			; ffffffedH
  00063	88 4d e0	 mov	 BYTE PTR _szEncEventType$[ebp+4], cl
  00066	8a 48 05	 mov	 cl, BYTE PTR [eax+5]
  00069	84 c9		 test	 cl, cl
  0006b	0f 84 d5 00 00
	00		 je	 $LN91@GetAnimati
  00071	80 f1 ec	 xor	 cl, -20			; ffffffecH
  00074	88 4d e1	 mov	 BYTE PTR _szEncEventType$[ebp+5], cl
  00077	8a 48 06	 mov	 cl, BYTE PTR [eax+6]
  0007a	84 c9		 test	 cl, cl
  0007c	0f 84 bf 00 00
	00		 je	 $LN90@GetAnimati
  00082	32 ca		 xor	 cl, dl
  00084	88 4d e2	 mov	 BYTE PTR _szEncEventType$[ebp+6], cl
  00087	8a 48 07	 mov	 cl, BYTE PTR [eax+7]
  0008a	84 c9		 test	 cl, cl
  0008c	0f 84 a9 00 00
	00		 je	 $LN89@GetAnimati
  00092	80 f1 ea	 xor	 cl, -22			; ffffffeaH
  00095	88 4d e3	 mov	 BYTE PTR _szEncEventType$[ebp+7], cl
  00098	8a 48 08	 mov	 cl, BYTE PTR [eax+8]
  0009b	84 c9		 test	 cl, cl
  0009d	0f 84 92 00 00
	00		 je	 $LN88@GetAnimati
  000a3	80 f1 ed	 xor	 cl, -19			; ffffffedH
  000a6	88 4d e4	 mov	 BYTE PTR _szEncEventType$[ebp+8], cl
  000a9	8a 48 09	 mov	 cl, BYTE PTR [eax+9]
  000ac	84 c9		 test	 cl, cl
  000ae	74 7f		 je	 SHORT $LN87@GetAnimati
  000b0	80 f1 ec	 xor	 cl, -20			; ffffffecH
  000b3	88 4d e5	 mov	 BYTE PTR _szEncEventType$[ebp+9], cl
  000b6	8a 48 0a	 mov	 cl, BYTE PTR [eax+10]
  000b9	84 c9		 test	 cl, cl
  000bb	74 6d		 je	 SHORT $LN86@GetAnimati
  000bd	32 ca		 xor	 cl, dl
  000bf	88 4d e6	 mov	 BYTE PTR _szEncEventType$[ebp+10], cl
  000c2	8a 48 0b	 mov	 cl, BYTE PTR [eax+11]
  000c5	84 c9		 test	 cl, cl
  000c7	74 5b		 je	 SHORT $LN85@GetAnimati
  000c9	80 f1 ea	 xor	 cl, -22			; ffffffeaH
  000cc	80 78 0c 00	 cmp	 BYTE PTR [eax+12], 0
  000d0	88 4d e7	 mov	 BYTE PTR _szEncEventType$[ebp+11], cl
  000d3	0f 84 8f 00 00
	00		 je	 $LN1@GetAnimati
  000d9	8a 48 0d	 mov	 cl, BYTE PTR [eax+13]
  000dc	84 c9		 test	 cl, cl
  000de	74 3e		 je	 SHORT $LN83@GetAnimati
  000e0	80 f1 ec	 xor	 cl, -20			; ffffffecH
  000e3	88 4d e9	 mov	 BYTE PTR _szEncEventType$[ebp+13], cl
  000e6	8a 48 0e	 mov	 cl, BYTE PTR [eax+14]
  000e9	84 c9		 test	 cl, cl
  000eb	74 2c		 je	 SHORT $LN82@GetAnimati
  000ed	32 ca		 xor	 cl, dl
  000ef	88 4d ea	 mov	 BYTE PTR _szEncEventType$[ebp+14], cl
  000f2	8a 48 0f	 mov	 cl, BYTE PTR [eax+15]
  000f5	84 c9		 test	 cl, cl
  000f7	74 1a		 je	 SHORT $LN81@GetAnimati
  000f9	8a 40 10	 mov	 al, BYTE PTR [eax+16]
  000fc	80 f1 ea	 xor	 cl, -22			; ffffffeaH
  000ff	88 4d eb	 mov	 BYTE PTR _szEncEventType$[ebp+15], cl
  00102	84 c0		 test	 al, al
  00104	74 07		 je	 SHORT $LN80@GetAnimati
  00106	34 ed		 xor	 al, -19			; ffffffedH
  00108	88 45 ec	 mov	 BYTE PTR _szEncEventType$[ebp+16], al
  0010b	eb 5b		 jmp	 SHORT $LN1@GetAnimati
$LN80@GetAnimati:
  0010d	c6 45 ec ed	 mov	 BYTE PTR _szEncEventType$[ebp+16], -19 ; ffffffedH
  00111	eb 55		 jmp	 SHORT $LN1@GetAnimati
$LN81@GetAnimati:
  00113	c6 45 eb ea	 mov	 BYTE PTR _szEncEventType$[ebp+15], -22 ; ffffffeaH
  00117	eb 4f		 jmp	 SHORT $LN1@GetAnimati
$LN82@GetAnimati:
  00119	88 55 ea	 mov	 BYTE PTR _szEncEventType$[ebp+14], dl
  0011c	eb 4a		 jmp	 SHORT $LN1@GetAnimati
$LN83@GetAnimati:
  0011e	c6 45 e9 ec	 mov	 BYTE PTR _szEncEventType$[ebp+13], -20 ; ffffffecH
  00122	eb 44		 jmp	 SHORT $LN1@GetAnimati
$LN85@GetAnimati:
  00124	c6 45 e7 ea	 mov	 BYTE PTR _szEncEventType$[ebp+11], -22 ; ffffffeaH
  00128	eb 3e		 jmp	 SHORT $LN1@GetAnimati
$LN86@GetAnimati:
  0012a	88 55 e6	 mov	 BYTE PTR _szEncEventType$[ebp+10], dl
  0012d	eb 39		 jmp	 SHORT $LN1@GetAnimati
$LN87@GetAnimati:
  0012f	c6 45 e5 ec	 mov	 BYTE PTR _szEncEventType$[ebp+9], -20 ; ffffffecH
  00133	eb 33		 jmp	 SHORT $LN1@GetAnimati
$LN88@GetAnimati:
  00135	c6 45 e4 ed	 mov	 BYTE PTR _szEncEventType$[ebp+8], -19 ; ffffffedH
  00139	eb 2d		 jmp	 SHORT $LN1@GetAnimati
$LN89@GetAnimati:
  0013b	c6 45 e3 ea	 mov	 BYTE PTR _szEncEventType$[ebp+7], -22 ; ffffffeaH
  0013f	eb 27		 jmp	 SHORT $LN1@GetAnimati
$LN90@GetAnimati:
  00141	88 55 e2	 mov	 BYTE PTR _szEncEventType$[ebp+6], dl
  00144	eb 22		 jmp	 SHORT $LN1@GetAnimati
$LN91@GetAnimati:
  00146	c6 45 e1 ec	 mov	 BYTE PTR _szEncEventType$[ebp+5], -20 ; ffffffecH
  0014a	eb 1c		 jmp	 SHORT $LN1@GetAnimati
$LN92@GetAnimati:
  0014c	c6 45 e0 ed	 mov	 BYTE PTR _szEncEventType$[ebp+4], -19 ; ffffffedH
  00150	eb 16		 jmp	 SHORT $LN1@GetAnimati
$LN93@GetAnimati:
  00152	c6 45 df ea	 mov	 BYTE PTR _szEncEventType$[ebp+3], -22 ; ffffffeaH
  00156	eb 10		 jmp	 SHORT $LN1@GetAnimati
$LN94@GetAnimati:
  00158	c6 45 de eb	 mov	 BYTE PTR _szEncEventType$[ebp+2], -21 ; ffffffebH
  0015c	eb 0a		 jmp	 SHORT $LN1@GetAnimati
$LN95@GetAnimati:
  0015e	c6 45 dd ec	 mov	 BYTE PTR _szEncEventType$[ebp+1], -20 ; ffffffecH
  00162	eb 04		 jmp	 SHORT $LN1@GetAnimati
$LN96@GetAnimati:
  00164	c6 45 dc ed	 mov	 BYTE PTR _szEncEventType$[ebp], -19 ; ffffffedH
$LN1@GetAnimati:
  00168	6a 03		 push	 3
  0016a	8d 45 dc	 lea	 eax, DWORD PTR _szEncEventType$[ebp]
  0016d	c6 45 e8 00	 mov	 BYTE PTR _szEncEventType$[ebp+12], 0
  00171	59		 pop	 ecx
$LL105@GetAnimati:
  00172	81 30 ed ec eb
	ea		 xor	 DWORD PTR [eax], -353637139 ; eaebecedH
  00178	83 c0 04	 add	 eax, 4
  0017b	49		 dec	 ecx
  0017c	75 f4		 jne	 SHORT $LL105@GetAnimati

; 416  : 		return GetAnimationEventTime(id, szEncEventType);

  0017e	8d 45 dc	 lea	 eax, DWORD PTR _szEncEventType$[ebp]
  00181	50		 push	 eax
  00182	8d 4d c8	 lea	 ecx, DWORD PTR $T554106[ebp]
  00185	ff 15 00 00 00
	00		 call	 DWORD PTR __imp_??0ioHashString@@QAE@PBD@Z
  0018b	83 65 fc 00	 and	 DWORD PTR __$EHRec$[ebp+8], 0
  0018f	8d 45 c8	 lea	 eax, DWORD PTR $T554106[ebp]
  00192	50		 push	 eax
  00193	ff 75 08	 push	 DWORD PTR _id$[ebp]
  00196	8b ce		 mov	 ecx, esi
  00198	ff 15 00 00 00
	00		 call	 DWORD PTR __imp_?GetAnimationEventTime@ioEntityGroup@@QAEMHABVioHashString@@@Z
  0019e	d9 5d d8	 fstp	 DWORD PTR $T554105[ebp]
  001a1	83 4d fc ff	 or	 DWORD PTR __$EHRec$[ebp+8], -1
  001a5	8d 4d c8	 lea	 ecx, DWORD PTR $T554106[ebp]
  001a8	ff 15 00 00 00
	00		 call	 DWORD PTR __imp_??1ioHashString@@QAE@XZ
  001ae	d9 45 d8	 fld	 DWORD PTR $T554105[ebp]

; 417  : 	}

  001b1	e8 00 00 00 00	 call	 __EH_epilog3_GS
  001b6	c2 08 00	 ret	 8
_TEXT	ENDS
;	COMDAT text$x
text$x	SEGMENT
__unwindfunclet$??$GetAnimationEventTime_e@$0N@@ioEntityGroup@@QAEMHAAY0N@$$CBD@Z$0:
  00000	8d 4d c8	 lea	 ecx, DWORD PTR $T554106[ebp]
  00003	ff 25 00 00 00
	00		 jmp	 DWORD PTR __imp_??1ioHashString@@QAE@XZ
__ehhandler$??$GetAnimationEventTime_e@$0N@@ioEntityGroup@@QAEMHAAY0N@$$CBD@Z:
  00009	8b 54 24 08	 mov	 edx, DWORD PTR [esp+8]
  0000d	8d 42 0c	 lea	 eax, DWORD PTR [edx+12]
  00010	8b 4a c4	 mov	 ecx, DWORD PTR [edx-60]
  00013	33 c8		 xor	 ecx, eax
  00015	e8 00 00 00 00	 call	 @__security_check_cookie@4
  0001a	8b 4a fc	 mov	 ecx, DWORD PTR [edx-4]
  0001d	33 c8		 xor	 ecx, eax
  0001f	e8 00 00 00 00	 call	 @__security_check_cookie@4
  00024	b8 00 00 00 00	 mov	 eax, OFFSET __ehfuncinfo$??$GetAnimationEventTime_e@$0N@@ioEntityGroup@@QAEMHAAY0N@$$CBD@Z
  00029	e9 00 00 00 00	 jmp	 ___CxxFrameHandler3
text$x	ENDS
??$GetAnimationEventTime_e@$0N@@ioEntityGroup@@QAEMHAAY0N@$$CBD@Z ENDP ; ioEntityGroup::GetAnimationEventTime_e<13>
PUBLIC	??$GetAnimationEventTime_e@$0M@@ioEntityGroup@@QAEMHAAY0M@$$CBD@Z ; ioEntityGroup::GetAnimationEventTime_e<12>
;	COMDAT xdata$x
; File d:\lost saga for developer\youtube\tutorial\source\src\lsclient\stringprotect.h
xdata$x	SEGMENT
__unwindtable$??$GetAnimationEventTime_e@$0M@@ioEntityGroup@@QAEMHAAY0M@$$CBD@Z DD 0ffffffffH
	DD	FLAT:__unwindfunclet$??$GetAnimationEventTime_e@$0M@@ioEntityGroup@@QAEMHAAY0M@$$CBD@Z$0
__ehfuncinfo$??$GetAnimationEventTime_e@$0M@@ioEntityGroup@@QAEMHAAY0M@$$CBD@Z DD 019930522H
	DD	01H
	DD	FLAT:__unwindtable$??$GetAnimationEventTime_e@$0M@@ioEntityGroup@@QAEMHAAY0M@$$CBD@Z
	DD	2 DUP(00H)
	DD	2 DUP(00H)
	DD	00H
	DD	01H
; Function compile flags: /Ogsp
; File d:\lost saga for developer\youtube\tutorial\source\src\io3dengine\ioentitygroup.h
xdata$x	ENDS
;	COMDAT ??$GetAnimationEventTime_e@$0M@@ioEntityGroup@@QAEMHAAY0M@$$CBD@Z
_TEXT	SEGMENT
$T554141 = -52						; size = 16
$T554140 = -36						; size = 4
_szEncEventType$ = -32					; size = 12
__$EHRec$ = -12						; size = 12
_id$ = 8						; size = 4
_szEventType$ = 12					; size = 4
??$GetAnimationEventTime_e@$0M@@ioEntityGroup@@QAEMHAAY0M@$$CBD@Z PROC ; ioEntityGroup::GetAnimationEventTime_e<12>, COMDAT
; _this$ = ecx

; 414  : 	{

  00000	6a 28		 push	 40			; 00000028H
  00002	b8 00 00 00 00	 mov	 eax, __ehhandler$??$GetAnimationEventTime_e@$0M@@ioEntityGroup@@QAEMHAAY0M@$$CBD@Z
  00007	e8 00 00 00 00	 call	 __EH_prolog3_GS
  0000c	8b 45 0c	 mov	 eax, DWORD PTR _szEventType$[ebp]
  0000f	8b f1		 mov	 esi, ecx

; 415  : 		_ENCSTR(szEventType, szEncEventType);

  00011	8a 08		 mov	 cl, BYTE PTR [eax]
  00013	84 c9		 test	 cl, cl
  00015	0f 84 36 01 00
	00		 je	 $LN96@GetAnimati@2
  0001b	b2 ed		 mov	 dl, -19			; ffffffedH
  0001d	32 ca		 xor	 cl, dl
  0001f	88 4d e0	 mov	 BYTE PTR _szEncEventType$[ebp], cl
  00022	8a 48 01	 mov	 cl, BYTE PTR [eax+1]
  00025	84 c9		 test	 cl, cl
  00027	0f 84 1e 01 00
	00		 je	 $LN95@GetAnimati@2
  0002d	80 f1 ec	 xor	 cl, -20			; ffffffecH
  00030	88 4d e1	 mov	 BYTE PTR _szEncEventType$[ebp+1], cl
  00033	8a 48 02	 mov	 cl, BYTE PTR [eax+2]
  00036	84 c9		 test	 cl, cl
  00038	0f 84 07 01 00
	00		 je	 $LN94@GetAnimati@2
  0003e	80 f1 eb	 xor	 cl, -21			; ffffffebH
  00041	88 4d e2	 mov	 BYTE PTR _szEncEventType$[ebp+2], cl
  00044	8a 48 03	 mov	 cl, BYTE PTR [eax+3]
  00047	84 c9		 test	 cl, cl
  00049	0f 84 f0 00 00
	00		 je	 $LN93@GetAnimati@2
  0004f	80 f1 ea	 xor	 cl, -22			; ffffffeaH
  00052	88 4d e3	 mov	 BYTE PTR _szEncEventType$[ebp+3], cl
  00055	8a 48 04	 mov	 cl, BYTE PTR [eax+4]
  00058	84 c9		 test	 cl, cl
  0005a	0f 84 da 00 00
	00		 je	 $LN92@GetAnimati@2
  00060	32 ca		 xor	 cl, dl
  00062	88 4d e4	 mov	 BYTE PTR _szEncEventType$[ebp+4], cl
  00065	8a 48 05	 mov	 cl, BYTE PTR [eax+5]
  00068	84 c9		 test	 cl, cl
  0006a	0f 84 c4 00 00
	00		 je	 $LN91@GetAnimati@2
  00070	80 f1 ec	 xor	 cl, -20			; ffffffecH
  00073	88 4d e5	 mov	 BYTE PTR _szEncEventType$[ebp+5], cl
  00076	8a 48 06	 mov	 cl, BYTE PTR [eax+6]
  00079	84 c9		 test	 cl, cl
  0007b	0f 84 ad 00 00
	00		 je	 $LN90@GetAnimati@2
  00081	80 f1 eb	 xor	 cl, -21			; ffffffebH
  00084	88 4d e6	 mov	 BYTE PTR _szEncEventType$[ebp+6], cl
  00087	8a 48 07	 mov	 cl, BYTE PTR [eax+7]
  0008a	84 c9		 test	 cl, cl
  0008c	0f 84 96 00 00
	00		 je	 $LN89@GetAnimati@2
  00092	80 f1 ea	 xor	 cl, -22			; ffffffeaH
  00095	88 4d e7	 mov	 BYTE PTR _szEncEventType$[ebp+7], cl
  00098	8a 48 08	 mov	 cl, BYTE PTR [eax+8]
  0009b	84 c9		 test	 cl, cl
  0009d	0f 84 80 00 00
	00		 je	 $LN88@GetAnimati@2
  000a3	32 ca		 xor	 cl, dl
  000a5	88 4d e8	 mov	 BYTE PTR _szEncEventType$[ebp+8], cl
  000a8	8a 48 09	 mov	 cl, BYTE PTR [eax+9]
  000ab	84 c9		 test	 cl, cl
  000ad	74 6e		 je	 SHORT $LN87@GetAnimati@2
  000af	80 f1 ec	 xor	 cl, -20			; ffffffecH
  000b2	88 4d e9	 mov	 BYTE PTR _szEncEventType$[ebp+9], cl
  000b5	8a 48 0a	 mov	 cl, BYTE PTR [eax+10]
  000b8	84 c9		 test	 cl, cl
  000ba	74 5b		 je	 SHORT $LN86@GetAnimati@2
  000bc	80 f1 eb	 xor	 cl, -21			; ffffffebH
  000bf	80 78 0b 00	 cmp	 BYTE PTR [eax+11], 0
  000c3	88 4d ea	 mov	 BYTE PTR _szEncEventType$[ebp+10], cl
  000c6	0f 84 89 00 00
	00		 je	 $LN1@GetAnimati@2
  000cc	8a 48 0c	 mov	 cl, BYTE PTR [eax+12]
  000cf	84 c9		 test	 cl, cl
  000d1	74 3f		 je	 SHORT $LN84@GetAnimati@2
  000d3	32 ca		 xor	 cl, dl
  000d5	88 4d ec	 mov	 BYTE PTR _szEncEventType$[ebp+12], cl
  000d8	8a 48 0d	 mov	 cl, BYTE PTR [eax+13]
  000db	84 c9		 test	 cl, cl
  000dd	74 2d		 je	 SHORT $LN83@GetAnimati@2
  000df	80 f1 ec	 xor	 cl, -20			; ffffffecH
  000e2	88 4d ed	 mov	 BYTE PTR _szEncEventType$[ebp+13], cl
  000e5	8a 48 0e	 mov	 cl, BYTE PTR [eax+14]
  000e8	84 c9		 test	 cl, cl
  000ea	74 1a		 je	 SHORT $LN82@GetAnimati@2
  000ec	8a 40 0f	 mov	 al, BYTE PTR [eax+15]
  000ef	80 f1 eb	 xor	 cl, -21			; ffffffebH
  000f2	88 4d ee	 mov	 BYTE PTR _szEncEventType$[ebp+14], cl
  000f5	84 c0		 test	 al, al
  000f7	74 07		 je	 SHORT $LN81@GetAnimati@2
  000f9	34 ea		 xor	 al, -22			; ffffffeaH
  000fb	88 45 ef	 mov	 BYTE PTR _szEncEventType$[ebp+15], al
  000fe	eb 55		 jmp	 SHORT $LN1@GetAnimati@2
$LN81@GetAnimati@2:
  00100	c6 45 ef ea	 mov	 BYTE PTR _szEncEventType$[ebp+15], -22 ; ffffffeaH
  00104	eb 4f		 jmp	 SHORT $LN1@GetAnimati@2
$LN82@GetAnimati@2:
  00106	c6 45 ee eb	 mov	 BYTE PTR _szEncEventType$[ebp+14], -21 ; ffffffebH
  0010a	eb 49		 jmp	 SHORT $LN1@GetAnimati@2
$LN83@GetAnimati@2:
  0010c	c6 45 ed ec	 mov	 BYTE PTR _szEncEventType$[ebp+13], -20 ; ffffffecH
  00110	eb 43		 jmp	 SHORT $LN1@GetAnimati@2
$LN84@GetAnimati@2:
  00112	88 55 ec	 mov	 BYTE PTR _szEncEventType$[ebp+12], dl
  00115	eb 3e		 jmp	 SHORT $LN1@GetAnimati@2
$LN86@GetAnimati@2:
  00117	c6 45 ea eb	 mov	 BYTE PTR _szEncEventType$[ebp+10], -21 ; ffffffebH
  0011b	eb 38		 jmp	 SHORT $LN1@GetAnimati@2
$LN87@GetAnimati@2:
  0011d	c6 45 e9 ec	 mov	 BYTE PTR _szEncEventType$[ebp+9], -20 ; ffffffecH
  00121	eb 32		 jmp	 SHORT $LN1@GetAnimati@2
$LN88@GetAnimati@2:
  00123	88 55 e8	 mov	 BYTE PTR _szEncEventType$[ebp+8], dl
  00126	eb 2d		 jmp	 SHORT $LN1@GetAnimati@2
$LN89@GetAnimati@2:
  00128	c6 45 e7 ea	 mov	 BYTE PTR _szEncEventType$[ebp+7], -22 ; ffffffeaH
  0012c	eb 27		 jmp	 SHORT $LN1@GetAnimati@2
$LN90@GetAnimati@2:
  0012e	c6 45 e6 eb	 mov	 BYTE PTR _szEncEventType$[ebp+6], -21 ; ffffffebH
  00132	eb 21		 jmp	 SHORT $LN1@GetAnimati@2
$LN91@GetAnimati@2:
  00134	c6 45 e5 ec	 mov	 BYTE PTR _szEncEventType$[ebp+5], -20 ; ffffffecH
  00138	eb 1b		 jmp	 SHORT $LN1@GetAnimati@2
$LN92@GetAnimati@2:
  0013a	88 55 e4	 mov	 BYTE PTR _szEncEventType$[ebp+4], dl
  0013d	eb 16		 jmp	 SHORT $LN1@GetAnimati@2
$LN93@GetAnimati@2:
  0013f	c6 45 e3 ea	 mov	 BYTE PTR _szEncEventType$[ebp+3], -22 ; ffffffeaH
  00143	eb 10		 jmp	 SHORT $LN1@GetAnimati@2
$LN94@GetAnimati@2:
  00145	c6 45 e2 eb	 mov	 BYTE PTR _szEncEventType$[ebp+2], -21 ; ffffffebH
  00149	eb 0a		 jmp	 SHORT $LN1@GetAnimati@2
$LN95@GetAnimati@2:
  0014b	c6 45 e1 ec	 mov	 BYTE PTR _szEncEventType$[ebp+1], -20 ; ffffffecH
  0014f	eb 04		 jmp	 SHORT $LN1@GetAnimati@2
$LN96@GetAnimati@2:
  00151	c6 45 e0 ed	 mov	 BYTE PTR _szEncEventType$[ebp], -19 ; ffffffedH
$LN1@GetAnimati@2:
  00155	6a 02		 push	 2
  00157	8d 45 e0	 lea	 eax, DWORD PTR _szEncEventType$[ebp]
  0015a	c6 45 eb 00	 mov	 BYTE PTR _szEncEventType$[ebp+11], 0
  0015e	59		 pop	 ecx
$LL105@GetAnimati@2:
  0015f	81 30 ed ec eb
	ea		 xor	 DWORD PTR [eax], -353637139 ; eaebecedH
  00165	83 c0 04	 add	 eax, 4
  00168	49		 dec	 ecx
  00169	75 f4		 jne	 SHORT $LL105@GetAnimati@2
  0016b	6a 08		 push	 8
  0016d	58		 pop	 eax
$LL102@GetAnimati@2:
  0016e	8b c8		 mov	 ecx, eax
  00170	81 e1 03 00 00
	80		 and	 ecx, -2147483645	; 80000003H
  00176	79 05		 jns	 SHORT $LN113@GetAnimati@2
  00178	49		 dec	 ecx
  00179	83 c9 fc	 or	 ecx, -4			; fffffffcH
  0017c	41		 inc	 ecx
$LN113@GetAnimati@2:
  0017d	b2 ed		 mov	 dl, -19			; ffffffedH
  0017f	2a d1		 sub	 dl, cl
  00181	30 54 05 e0	 xor	 BYTE PTR _szEncEventType$[ebp+eax], dl
  00185	40		 inc	 eax
  00186	83 f8 0b	 cmp	 eax, 11			; 0000000bH
  00189	7c e3		 jl	 SHORT $LL102@GetAnimati@2

; 416  : 		return GetAnimationEventTime(id, szEncEventType);

  0018b	8d 45 e0	 lea	 eax, DWORD PTR _szEncEventType$[ebp]
  0018e	50		 push	 eax
  0018f	8d 4d cc	 lea	 ecx, DWORD PTR $T554141[ebp]
  00192	ff 15 00 00 00
	00		 call	 DWORD PTR __imp_??0ioHashString@@QAE@PBD@Z
  00198	83 65 fc 00	 and	 DWORD PTR __$EHRec$[ebp+8], 0
  0019c	8d 45 cc	 lea	 eax, DWORD PTR $T554141[ebp]
  0019f	50		 push	 eax
  001a0	ff 75 08	 push	 DWORD PTR _id$[ebp]
  001a3	8b ce		 mov	 ecx, esi
  001a5	ff 15 00 00 00
	00		 call	 DWORD PTR __imp_?GetAnimationEventTime@ioEntityGroup@@QAEMHABVioHashString@@@Z
  001ab	d9 5d dc	 fstp	 DWORD PTR $T554140[ebp]
  001ae	83 4d fc ff	 or	 DWORD PTR __$EHRec$[ebp+8], -1
  001b2	8d 4d cc	 lea	 ecx, DWORD PTR $T554141[ebp]
  001b5	ff 15 00 00 00
	00		 call	 DWORD PTR __imp_??1ioHashString@@QAE@XZ
  001bb	d9 45 dc	 fld	 DWORD PTR $T554140[ebp]

; 417  : 	}

  001be	e8 00 00 00 00	 call	 __EH_epilog3_GS
  001c3	c2 08 00	 ret	 8
_TEXT	ENDS
;	COMDAT text$x
text$x	SEGMENT
__unwindfunclet$??$GetAnimationEventTime_e@$0M@@ioEntityGroup@@QAEMHAAY0M@$$CBD@Z$0:
  00000	8d 4d cc	 lea	 ecx, DWORD PTR $T554141[ebp]
  00003	ff 25 00 00 00
	00		 jmp	 DWORD PTR __imp_??1ioHashString@@QAE@XZ
__ehhandler$??$GetAnimationEventTime_e@$0M@@ioEntityGroup@@QAEMHAAY0M@$$CBD@Z:
  00009	8b 54 24 08	 mov	 edx, DWORD PTR [esp+8]
  0000d	8d 42 0c	 lea	 eax, DWORD PTR [edx+12]
  00010	8b 4a c8	 mov	 ecx, DWORD PTR [edx-56]
  00013	33 c8		 xor	 ecx, eax
  00015	e8 00 00 00 00	 call	 @__security_check_cookie@4
  0001a	8b 4a fc	 mov	 ecx, DWORD PTR [edx-4]
  0001d	33 c8		 xor	 ecx, eax
  0001f	e8 00 00 00 00	 call	 @__security_check_cookie@4
  00024	b8 00 00 00 00	 mov	 eax, OFFSET __ehfuncinfo$??$GetAnimationEventTime_e@$0M@@ioEntityGroup@@QAEMHAAY0M@$$CBD@Z
  00029	e9 00 00 00 00	 jmp	 ___CxxFrameHandler3
text$x	ENDS
??$GetAnimationEventTime_e@$0M@@ioEntityGroup@@QAEMHAAY0M@$$CBD@Z ENDP ; ioEntityGroup::GetAnimationEventTime_e<12>
PUBLIC	??$GetAnimationEventTime_e@$06@ioEntityGroup@@QAEMHAAY06$$CBD@Z ; ioEntityGroup::GetAnimationEventTime_e<7>
;	COMDAT xdata$x
; File d:\lost saga for developer\youtube\tutorial\source\src\lsclient\stringprotect.h
xdata$x	SEGMENT
__unwindtable$??$GetAnimationEventTime_e@$06@ioEntityGroup@@QAEMHAAY06$$CBD@Z DD 0ffffffffH
	DD	FLAT:__unwindfunclet$??$GetAnimationEventTime_e@$06@ioEntityGroup@@QAEMHAAY06$$CBD@Z$0
__ehfuncinfo$??$GetAnimationEventTime_e@$06@ioEntityGroup@@QAEMHAAY06$$CBD@Z DD 019930522H
	DD	01H
	DD	FLAT:__unwindtable$??$GetAnimationEventTime_e@$06@ioEntityGroup@@QAEMHAAY06$$CBD@Z
	DD	2 DUP(00H)
	DD	2 DUP(00H)
	DD	00H
	DD	01H
; Function compile flags: /Ogsp
; File d:\lost saga for developer\youtube\tutorial\source\src\io3dengine\ioentitygroup.h
xdata$x	ENDS
;	COMDAT ??$GetAnimationEventTime_e@$06@ioEntityGroup@@QAEMHAAY06$$CBD@Z
_TEXT	SEGMENT
$T554172 = -48						; size = 16
$T554171 = -32						; size = 4
_szEncEventType$ = -28					; size = 7
__$EHRec$ = -12						; size = 12
_id$ = 8						; size = 4
_szEventType$ = 12					; size = 4
??$GetAnimationEventTime_e@$06@ioEntityGroup@@QAEMHAAY06$$CBD@Z PROC ; ioEntityGroup::GetAnimationEventTime_e<7>, COMDAT
; _this$ = ecx

; 414  : 	{

  00000	6a 24		 push	 36			; 00000024H
  00002	b8 00 00 00 00	 mov	 eax, __ehhandler$??$GetAnimationEventTime_e@$06@ioEntityGroup@@QAEMHAAY06$$CBD@Z
  00007	e8 00 00 00 00	 call	 __EH_prolog3_GS
  0000c	8b 45 0c	 mov	 eax, DWORD PTR _szEventType$[ebp]
  0000f	8b f1		 mov	 esi, ecx

; 415  : 		_ENCSTR(szEventType, szEncEventType);

  00011	8a 08		 mov	 cl, BYTE PTR [eax]
  00013	84 c9		 test	 cl, cl
  00015	0f 84 c0 00 00
	00		 je	 $LN96@GetAnimati@3
  0001b	80 f1 ed	 xor	 cl, -19			; ffffffedH
  0001e	88 4d e4	 mov	 BYTE PTR _szEncEventType$[ebp], cl
  00021	8a 48 01	 mov	 cl, BYTE PTR [eax+1]
  00024	84 c9		 test	 cl, cl
  00026	0f 84 a9 00 00
	00		 je	 $LN95@GetAnimati@3
  0002c	80 f1 ec	 xor	 cl, -20			; ffffffecH
  0002f	88 4d e5	 mov	 BYTE PTR _szEncEventType$[ebp+1], cl
  00032	8a 48 02	 mov	 cl, BYTE PTR [eax+2]
  00035	84 c9		 test	 cl, cl
  00037	0f 84 92 00 00
	00		 je	 $LN94@GetAnimati@3
  0003d	80 f1 eb	 xor	 cl, -21			; ffffffebH
  00040	88 4d e6	 mov	 BYTE PTR _szEncEventType$[ebp+2], cl
  00043	8a 48 03	 mov	 cl, BYTE PTR [eax+3]
  00046	84 c9		 test	 cl, cl
  00048	74 7f		 je	 SHORT $LN93@GetAnimati@3
  0004a	80 f1 ea	 xor	 cl, -22			; ffffffeaH
  0004d	88 4d e7	 mov	 BYTE PTR _szEncEventType$[ebp+3], cl
  00050	8a 48 04	 mov	 cl, BYTE PTR [eax+4]
  00053	84 c9		 test	 cl, cl
  00055	74 6c		 je	 SHORT $LN92@GetAnimati@3
  00057	80 f1 ed	 xor	 cl, -19			; ffffffedH
  0005a	88 4d e8	 mov	 BYTE PTR _szEncEventType$[ebp+4], cl
  0005d	8a 48 05	 mov	 cl, BYTE PTR [eax+5]
  00060	84 c9		 test	 cl, cl
  00062	74 59		 je	 SHORT $LN91@GetAnimati@3
  00064	80 f1 ec	 xor	 cl, -20			; ffffffecH
  00067	80 78 06 00	 cmp	 BYTE PTR [eax+6], 0
  0006b	88 4d e9	 mov	 BYTE PTR _szEncEventType$[ebp+5], cl
  0006e	74 6f		 je	 SHORT $LN1@GetAnimati@3
  00070	8a 48 07	 mov	 cl, BYTE PTR [eax+7]
  00073	84 c9		 test	 cl, cl
  00075	74 40		 je	 SHORT $LN89@GetAnimati@3
  00077	80 f1 ea	 xor	 cl, -22			; ffffffeaH
  0007a	88 4d eb	 mov	 BYTE PTR _szEncEventType$[ebp+7], cl
  0007d	8a 48 08	 mov	 cl, BYTE PTR [eax+8]
  00080	84 c9		 test	 cl, cl
  00082	74 2d		 je	 SHORT $LN88@GetAnimati@3
  00084	80 f1 ed	 xor	 cl, -19			; ffffffedH
  00087	88 4d ec	 mov	 BYTE PTR _szEncEventType$[ebp+8], cl
  0008a	8a 48 09	 mov	 cl, BYTE PTR [eax+9]
  0008d	84 c9		 test	 cl, cl
  0008f	74 1a		 je	 SHORT $LN87@GetAnimati@3
  00091	8a 40 0a	 mov	 al, BYTE PTR [eax+10]
  00094	80 f1 ec	 xor	 cl, -20			; ffffffecH
  00097	88 4d ed	 mov	 BYTE PTR _szEncEventType$[ebp+9], cl
  0009a	84 c0		 test	 al, al
  0009c	74 07		 je	 SHORT $LN86@GetAnimati@3
  0009e	34 eb		 xor	 al, -21			; ffffffebH
  000a0	88 45 ee	 mov	 BYTE PTR _szEncEventType$[ebp+10], al
  000a3	eb 3a		 jmp	 SHORT $LN1@GetAnimati@3
$LN86@GetAnimati@3:
  000a5	c6 45 ee eb	 mov	 BYTE PTR _szEncEventType$[ebp+10], -21 ; ffffffebH
  000a9	eb 34		 jmp	 SHORT $LN1@GetAnimati@3
$LN87@GetAnimati@3:
  000ab	c6 45 ed ec	 mov	 BYTE PTR _szEncEventType$[ebp+9], -20 ; ffffffecH
  000af	eb 2e		 jmp	 SHORT $LN1@GetAnimati@3
$LN88@GetAnimati@3:
  000b1	c6 45 ec ed	 mov	 BYTE PTR _szEncEventType$[ebp+8], -19 ; ffffffedH
  000b5	eb 28		 jmp	 SHORT $LN1@GetAnimati@3
$LN89@GetAnimati@3:
  000b7	c6 45 eb ea	 mov	 BYTE PTR _szEncEventType$[ebp+7], -22 ; ffffffeaH
  000bb	eb 22		 jmp	 SHORT $LN1@GetAnimati@3
$LN91@GetAnimati@3:
  000bd	c6 45 e9 ec	 mov	 BYTE PTR _szEncEventType$[ebp+5], -20 ; ffffffecH
  000c1	eb 1c		 jmp	 SHORT $LN1@GetAnimati@3
$LN92@GetAnimati@3:
  000c3	c6 45 e8 ed	 mov	 BYTE PTR _szEncEventType$[ebp+4], -19 ; ffffffedH
  000c7	eb 16		 jmp	 SHORT $LN1@GetAnimati@3
$LN93@GetAnimati@3:
  000c9	c6 45 e7 ea	 mov	 BYTE PTR _szEncEventType$[ebp+3], -22 ; ffffffeaH
  000cd	eb 10		 jmp	 SHORT $LN1@GetAnimati@3
$LN94@GetAnimati@3:
  000cf	c6 45 e6 eb	 mov	 BYTE PTR _szEncEventType$[ebp+2], -21 ; ffffffebH
  000d3	eb 0a		 jmp	 SHORT $LN1@GetAnimati@3
$LN95@GetAnimati@3:
  000d5	c6 45 e5 ec	 mov	 BYTE PTR _szEncEventType$[ebp+1], -20 ; ffffffecH
  000d9	eb 04		 jmp	 SHORT $LN1@GetAnimati@3
$LN96@GetAnimati@3:
  000db	c6 45 e4 ed	 mov	 BYTE PTR _szEncEventType$[ebp], -19 ; ffffffedH
$LN1@GetAnimati@3:
  000df	81 75 e4 ed ec
	eb ea		 xor	 DWORD PTR _szEncEventType$[ebp], -353637139 ; eaebecedH
  000e6	6a 04		 push	 4
  000e8	c6 45 ea 00	 mov	 BYTE PTR _szEncEventType$[ebp+6], 0
  000ec	58		 pop	 eax
$LL102@GetAnimati@3:
  000ed	8b c8		 mov	 ecx, eax
  000ef	81 e1 03 00 00
	80		 and	 ecx, -2147483645	; 80000003H
  000f5	79 05		 jns	 SHORT $LN113@GetAnimati@3
  000f7	49		 dec	 ecx
  000f8	83 c9 fc	 or	 ecx, -4			; fffffffcH
  000fb	41		 inc	 ecx
$LN113@GetAnimati@3:
  000fc	b2 ed		 mov	 dl, -19			; ffffffedH
  000fe	2a d1		 sub	 dl, cl
  00100	30 54 05 e4	 xor	 BYTE PTR _szEncEventType$[ebp+eax], dl
  00104	40		 inc	 eax
  00105	83 f8 06	 cmp	 eax, 6
  00108	7c e3		 jl	 SHORT $LL102@GetAnimati@3

; 416  : 		return GetAnimationEventTime(id, szEncEventType);

  0010a	8d 45 e4	 lea	 eax, DWORD PTR _szEncEventType$[ebp]
  0010d	50		 push	 eax
  0010e	8d 4d d0	 lea	 ecx, DWORD PTR $T554172[ebp]
  00111	ff 15 00 00 00
	00		 call	 DWORD PTR __imp_??0ioHashString@@QAE@PBD@Z
  00117	83 65 fc 00	 and	 DWORD PTR __$EHRec$[ebp+8], 0
  0011b	8d 45 d0	 lea	 eax, DWORD PTR $T554172[ebp]
  0011e	50		 push	 eax
  0011f	ff 75 08	 push	 DWORD PTR _id$[ebp]
  00122	8b ce		 mov	 ecx, esi
  00124	ff 15 00 00 00
	00		 call	 DWORD PTR __imp_?GetAnimationEventTime@ioEntityGroup@@QAEMHABVioHashString@@@Z
  0012a	d9 5d e0	 fstp	 DWORD PTR $T554171[ebp]
  0012d	83 4d fc ff	 or	 DWORD PTR __$EHRec$[ebp+8], -1
  00131	8d 4d d0	 lea	 ecx, DWORD PTR $T554172[ebp]
  00134	ff 15 00 00 00
	00		 call	 DWORD PTR __imp_??1ioHashString@@QAE@XZ
  0013a	d9 45 e0	 fld	 DWORD PTR $T554171[ebp]

; 417  : 	}

  0013d	e8 00 00 00 00	 call	 __EH_epilog3_GS
  00142	c2 08 00	 ret	 8
_TEXT	ENDS
;	COMDAT text$x
text$x	SEGMENT
__unwindfunclet$??$GetAnimationEventTime_e@$06@ioEntityGroup@@QAEMHAAY06$$CBD@Z$0:
  00000	8d 4d d0	 lea	 ecx, DWORD PTR $T554172[ebp]
  00003	ff 25 00 00 00
	00		 jmp	 DWORD PTR __imp_??1ioHashString@@QAE@XZ
__ehhandler$??$GetAnimationEventTime_e@$06@ioEntityGroup@@QAEMHAAY06$$CBD@Z:
  00009	8b 54 24 08	 mov	 edx, DWORD PTR [esp+8]
  0000d	8d 42 0c	 lea	 eax, DWORD PTR [edx+12]
  00010	8b 4a cc	 mov	 ecx, DWORD PTR [edx-52]
  00013	33 c8		 xor	 ecx, eax
  00015	e8 00 00 00 00	 call	 @__security_check_cookie@4
  0001a	8b 4a fc	 mov	 ecx, DWORD PTR [edx-4]
  0001d	33 c8		 xor	 ecx, eax
  0001f	e8 00 00 00 00	 call	 @__security_check_cookie@4
  00024	b8 00 00 00 00	 mov	 eax, OFFSET __ehfuncinfo$??$GetAnimationEventTime_e@$06@ioEntityGroup@@QAEMHAAY06$$CBD@Z
  00029	e9 00 00 00 00	 jmp	 ___CxxFrameHandler3
text$x	ENDS
??$GetAnimationEventTime_e@$06@ioEntityGroup@@QAEMHAAY06$$CBD@Z ENDP ; ioEntityGroup::GetAnimationEventTime_e<7>
PUBLIC	??$GetAnimationEventTime_e@$0L@@ioEntityGroup@@QAEMHAAY0L@$$CBD@Z ; ioEntityGroup::GetAnimationEventTime_e<11>
;	COMDAT xdata$x
; File d:\lost saga for developer\youtube\tutorial\source\src\lsclient\stringprotect.h
xdata$x	SEGMENT
__unwindtable$??$GetAnimationEventTime_e@$0L@@ioEntityGroup@@QAEMHAAY0L@$$CBD@Z DD 0ffffffffH
	DD	FLAT:__unwindfunclet$??$GetAnimationEventTime_e@$0L@@ioEntityGroup@@QAEMHAAY0L@$$CBD@Z$0
__ehfuncinfo$??$GetAnimationEventTime_e@$0L@@ioEntityGroup@@QAEMHAAY0L@$$CBD@Z DD 019930522H
	DD	01H
	DD	FLAT:__unwindtable$??$GetAnimationEventTime_e@$0L@@ioEntityGroup@@QAEMHAAY0L@$$CBD@Z
	DD	2 DUP(00H)
	DD	2 DUP(00H)
	DD	00H
	DD	01H
; Function compile flags: /Ogsp
; File d:\lost saga for developer\youtube\tutorial\source\src\io3dengine\ioentitygroup.h
xdata$x	ENDS
;	COMDAT ??$GetAnimationEventTime_e@$0L@@ioEntityGroup@@QAEMHAAY0L@$$CBD@Z
_TEXT	SEGMENT
$T554203 = -52						; size = 16
$T554202 = -36						; size = 4
_szEncEventType$ = -32					; size = 11
__$EHRec$ = -12						; size = 12
_id$ = 8						; size = 4
_szEventType$ = 12					; size = 4
??$GetAnimationEventTime_e@$0L@@ioEntityGroup@@QAEMHAAY0L@$$CBD@Z PROC ; ioEntityGroup::GetAnimationEventTime_e<11>, COMDAT
; _this$ = ecx

; 414  : 	{

  00000	6a 28		 push	 40			; 00000028H
  00002	b8 00 00 00 00	 mov	 eax, __ehhandler$??$GetAnimationEventTime_e@$0L@@ioEntityGroup@@QAEMHAAY0L@$$CBD@Z
  00007	e8 00 00 00 00	 call	 __EH_prolog3_GS
  0000c	8b 45 0c	 mov	 eax, DWORD PTR _szEventType$[ebp]
  0000f	8b f1		 mov	 esi, ecx

; 415  : 		_ENCSTR(szEventType, szEncEventType);

  00011	8a 08		 mov	 cl, BYTE PTR [eax]
  00013	84 c9		 test	 cl, cl
  00015	0f 84 1b 01 00
	00		 je	 $LN96@GetAnimati@4
  0001b	b2 ed		 mov	 dl, -19			; ffffffedH
  0001d	32 ca		 xor	 cl, dl
  0001f	88 4d e0	 mov	 BYTE PTR _szEncEventType$[ebp], cl
  00022	8a 48 01	 mov	 cl, BYTE PTR [eax+1]
  00025	84 c9		 test	 cl, cl
  00027	0f 84 03 01 00
	00		 je	 $LN95@GetAnimati@4
  0002d	80 f1 ec	 xor	 cl, -20			; ffffffecH
  00030	88 4d e1	 mov	 BYTE PTR _szEncEventType$[ebp+1], cl
  00033	8a 48 02	 mov	 cl, BYTE PTR [eax+2]
  00036	84 c9		 test	 cl, cl
  00038	0f 84 ec 00 00
	00		 je	 $LN94@GetAnimati@4
  0003e	80 f1 eb	 xor	 cl, -21			; ffffffebH
  00041	88 4d e2	 mov	 BYTE PTR _szEncEventType$[ebp+2], cl
  00044	8a 48 03	 mov	 cl, BYTE PTR [eax+3]
  00047	84 c9		 test	 cl, cl
  00049	0f 84 d5 00 00
	00		 je	 $LN93@GetAnimati@4
  0004f	80 f1 ea	 xor	 cl, -22			; ffffffeaH
  00052	88 4d e3	 mov	 BYTE PTR _szEncEventType$[ebp+3], cl
  00055	8a 48 04	 mov	 cl, BYTE PTR [eax+4]
  00058	84 c9		 test	 cl, cl
  0005a	0f 84 bf 00 00
	00		 je	 $LN92@GetAnimati@4
  00060	32 ca		 xor	 cl, dl
  00062	88 4d e4	 mov	 BYTE PTR _szEncEventType$[ebp+4], cl
  00065	8a 48 05	 mov	 cl, BYTE PTR [eax+5]
  00068	84 c9		 test	 cl, cl
  0006a	0f 84 a9 00 00
	00		 je	 $LN91@GetAnimati@4
  00070	80 f1 ec	 xor	 cl, -20			; ffffffecH
  00073	88 4d e5	 mov	 BYTE PTR _szEncEventType$[ebp+5], cl
  00076	8a 48 06	 mov	 cl, BYTE PTR [eax+6]
  00079	84 c9		 test	 cl, cl
  0007b	0f 84 92 00 00
	00		 je	 $LN90@GetAnimati@4
  00081	80 f1 eb	 xor	 cl, -21			; ffffffebH
  00084	88 4d e6	 mov	 BYTE PTR _szEncEventType$[ebp+6], cl
  00087	8a 48 07	 mov	 cl, BYTE PTR [eax+7]
  0008a	84 c9		 test	 cl, cl
  0008c	74 7f		 je	 SHORT $LN89@GetAnimati@4
  0008e	80 f1 ea	 xor	 cl, -22			; ffffffeaH
  00091	88 4d e7	 mov	 BYTE PTR _szEncEventType$[ebp+7], cl
  00094	8a 48 08	 mov	 cl, BYTE PTR [eax+8]
  00097	84 c9		 test	 cl, cl
  00099	74 6d		 je	 SHORT $LN88@GetAnimati@4
  0009b	32 ca		 xor	 cl, dl
  0009d	88 4d e8	 mov	 BYTE PTR _szEncEventType$[ebp+8], cl
  000a0	8a 48 09	 mov	 cl, BYTE PTR [eax+9]
  000a3	84 c9		 test	 cl, cl
  000a5	74 5b		 je	 SHORT $LN87@GetAnimati@4
  000a7	80 f1 ec	 xor	 cl, -20			; ffffffecH
  000aa	80 78 0a 00	 cmp	 BYTE PTR [eax+10], 0
  000ae	88 4d e9	 mov	 BYTE PTR _szEncEventType$[ebp+9], cl
  000b1	0f 84 83 00 00
	00		 je	 $LN1@GetAnimati@4
  000b7	8a 48 0b	 mov	 cl, BYTE PTR [eax+11]
  000ba	84 c9		 test	 cl, cl
  000bc	74 3e		 je	 SHORT $LN85@GetAnimati@4
  000be	80 f1 ea	 xor	 cl, -22			; ffffffeaH
  000c1	88 4d eb	 mov	 BYTE PTR _szEncEventType$[ebp+11], cl
  000c4	8a 48 0c	 mov	 cl, BYTE PTR [eax+12]
  000c7	84 c9		 test	 cl, cl
  000c9	74 2c		 je	 SHORT $LN84@GetAnimati@4
  000cb	32 ca		 xor	 cl, dl
  000cd	88 4d ec	 mov	 BYTE PTR _szEncEventType$[ebp+12], cl
  000d0	8a 48 0d	 mov	 cl, BYTE PTR [eax+13]
  000d3	84 c9		 test	 cl, cl
  000d5	74 1a		 je	 SHORT $LN83@GetAnimati@4
  000d7	8a 40 0e	 mov	 al, BYTE PTR [eax+14]
  000da	80 f1 ec	 xor	 cl, -20			; ffffffecH
  000dd	88 4d ed	 mov	 BYTE PTR _szEncEventType$[ebp+13], cl
  000e0	84 c0		 test	 al, al
  000e2	74 07		 je	 SHORT $LN82@GetAnimati@4
  000e4	34 eb		 xor	 al, -21			; ffffffebH
  000e6	88 45 ee	 mov	 BYTE PTR _szEncEventType$[ebp+14], al
  000e9	eb 4f		 jmp	 SHORT $LN1@GetAnimati@4
$LN82@GetAnimati@4:
  000eb	c6 45 ee eb	 mov	 BYTE PTR _szEncEventType$[ebp+14], -21 ; ffffffebH
  000ef	eb 49		 jmp	 SHORT $LN1@GetAnimati@4
$LN83@GetAnimati@4:
  000f1	c6 45 ed ec	 mov	 BYTE PTR _szEncEventType$[ebp+13], -20 ; ffffffecH
  000f5	eb 43		 jmp	 SHORT $LN1@GetAnimati@4
$LN84@GetAnimati@4:
  000f7	88 55 ec	 mov	 BYTE PTR _szEncEventType$[ebp+12], dl
  000fa	eb 3e		 jmp	 SHORT $LN1@GetAnimati@4
$LN85@GetAnimati@4:
  000fc	c6 45 eb ea	 mov	 BYTE PTR _szEncEventType$[ebp+11], -22 ; ffffffeaH
  00100	eb 38		 jmp	 SHORT $LN1@GetAnimati@4
$LN87@GetAnimati@4:
  00102	c6 45 e9 ec	 mov	 BYTE PTR _szEncEventType$[ebp+9], -20 ; ffffffecH
  00106	eb 32		 jmp	 SHORT $LN1@GetAnimati@4
$LN88@GetAnimati@4:
  00108	88 55 e8	 mov	 BYTE PTR _szEncEventType$[ebp+8], dl
  0010b	eb 2d		 jmp	 SHORT $LN1@GetAnimati@4
$LN89@GetAnimati@4:
  0010d	c6 45 e7 ea	 mov	 BYTE PTR _szEncEventType$[ebp+7], -22 ; ffffffeaH
  00111	eb 27		 jmp	 SHORT $LN1@GetAnimati@4
$LN90@GetAnimati@4:
  00113	c6 45 e6 eb	 mov	 BYTE PTR _szEncEventType$[ebp+6], -21 ; ffffffebH
  00117	eb 21		 jmp	 SHORT $LN1@GetAnimati@4
$LN91@GetAnimati@4:
  00119	c6 45 e5 ec	 mov	 BYTE PTR _szEncEventType$[ebp+5], -20 ; ffffffecH
  0011d	eb 1b		 jmp	 SHORT $LN1@GetAnimati@4
$LN92@GetAnimati@4:
  0011f	88 55 e4	 mov	 BYTE PTR _szEncEventType$[ebp+4], dl
  00122	eb 16		 jmp	 SHORT $LN1@GetAnimati@4
$LN93@GetAnimati@4:
  00124	c6 45 e3 ea	 mov	 BYTE PTR _szEncEventType$[ebp+3], -22 ; ffffffeaH
  00128	eb 10		 jmp	 SHORT $LN1@GetAnimati@4
$LN94@GetAnimati@4:
  0012a	c6 45 e2 eb	 mov	 BYTE PTR _szEncEventType$[ebp+2], -21 ; ffffffebH
  0012e	eb 0a		 jmp	 SHORT $LN1@GetAnimati@4
$LN95@GetAnimati@4:
  00130	c6 45 e1 ec	 mov	 BYTE PTR _szEncEventType$[ebp+1], -20 ; ffffffecH
  00134	eb 04		 jmp	 SHORT $LN1@GetAnimati@4
$LN96@GetAnimati@4:
  00136	c6 45 e0 ed	 mov	 BYTE PTR _szEncEventType$[ebp], -19 ; ffffffedH
$LN1@GetAnimati@4:
  0013a	6a 02		 push	 2
  0013c	8d 45 e0	 lea	 eax, DWORD PTR _szEncEventType$[ebp]
  0013f	c6 45 ea 00	 mov	 BYTE PTR _szEncEventType$[ebp+10], 0
  00143	59		 pop	 ecx
$LL105@GetAnimati@4:
  00144	81 30 ed ec eb
	ea		 xor	 DWORD PTR [eax], -353637139 ; eaebecedH
  0014a	83 c0 04	 add	 eax, 4
  0014d	49		 dec	 ecx
  0014e	75 f4		 jne	 SHORT $LL105@GetAnimati@4
  00150	6a 08		 push	 8
  00152	58		 pop	 eax
$LL102@GetAnimati@4:
  00153	8b c8		 mov	 ecx, eax
  00155	81 e1 03 00 00
	80		 and	 ecx, -2147483645	; 80000003H
  0015b	79 05		 jns	 SHORT $LN113@GetAnimati@4
  0015d	49		 dec	 ecx
  0015e	83 c9 fc	 or	 ecx, -4			; fffffffcH
  00161	41		 inc	 ecx
$LN113@GetAnimati@4:
  00162	b2 ed		 mov	 dl, -19			; ffffffedH
  00164	2a d1		 sub	 dl, cl
  00166	30 54 05 e0	 xor	 BYTE PTR _szEncEventType$[ebp+eax], dl
  0016a	40		 inc	 eax
  0016b	83 f8 0a	 cmp	 eax, 10			; 0000000aH
  0016e	7c e3		 jl	 SHORT $LL102@GetAnimati@4

; 416  : 		return GetAnimationEventTime(id, szEncEventType);

  00170	8d 45 e0	 lea	 eax, DWORD PTR _szEncEventType$[ebp]
  00173	50		 push	 eax
  00174	8d 4d cc	 lea	 ecx, DWORD PTR $T554203[ebp]
  00177	ff 15 00 00 00
	00		 call	 DWORD PTR __imp_??0ioHashString@@QAE@PBD@Z
  0017d	83 65 fc 00	 and	 DWORD PTR __$EHRec$[ebp+8], 0
  00181	8d 45 cc	 lea	 eax, DWORD PTR $T554203[ebp]
  00184	50		 push	 eax
  00185	ff 75 08	 push	 DWORD PTR _id$[ebp]
  00188	8b ce		 mov	 ecx, esi
  0018a	ff 15 00 00 00
	00		 call	 DWORD PTR __imp_?GetAnimationEventTime@ioEntityGroup@@QAEMHABVioHashString@@@Z
  00190	d9 5d dc	 fstp	 DWORD PTR $T554202[ebp]
  00193	83 4d fc ff	 or	 DWORD PTR __$EHRec$[ebp+8], -1
  00197	8d 4d cc	 lea	 ecx, DWORD PTR $T554203[ebp]
  0019a	ff 15 00 00 00
	00		 call	 DWORD PTR __imp_??1ioHashString@@QAE@XZ
  001a0	d9 45 dc	 fld	 DWORD PTR $T554202[ebp]

; 417  : 	}

  001a3	e8 00 00 00 00	 call	 __EH_epilog3_GS
  001a8	c2 08 00	 ret	 8
_TEXT	ENDS
;	COMDAT text$x
text$x	SEGMENT
__unwindfunclet$??$GetAnimationEventTime_e@$0L@@ioEntityGroup@@QAEMHAAY0L@$$CBD@Z$0:
  00000	8d 4d cc	 lea	 ecx, DWORD PTR $T554203[ebp]
  00003	ff 25 00 00 00
	00		 jmp	 DWORD PTR __imp_??1ioHashString@@QAE@XZ
__ehhandler$??$GetAnimationEventTime_e@$0L@@ioEntityGroup@@QAEMHAAY0L@$$CBD@Z:
  00009	8b 54 24 08	 mov	 edx, DWORD PTR [esp+8]
  0000d	8d 42 0c	 lea	 eax, DWORD PTR [edx+12]
  00010	8b 4a c8	 mov	 ecx, DWORD PTR [edx-56]
  00013	33 c8		 xor	 ecx, eax
  00015	e8 00 00 00 00	 call	 @__security_check_cookie@4
  0001a	8b 4a fc	 mov	 ecx, DWORD PTR [edx-4]
  0001d	33 c8		 xor	 ecx, eax
  0001f	e8 00 00 00 00	 call	 @__security_check_cookie@4
  00024	b8 00 00 00 00	 mov	 eax, OFFSET __ehfuncinfo$??$GetAnimationEventTime_e@$0L@@ioEntityGroup@@QAEMHAAY0L@$$CBD@Z
  00029	e9 00 00 00 00	 jmp	 ___CxxFrameHandler3
text$x	ENDS
??$GetAnimationEventTime_e@$0L@@ioEntityGroup@@QAEMHAAY0L@$$CBD@Z ENDP ; ioEntityGroup::GetAnimationEventTime_e<11>
PUBLIC	?construct@?$allocator@UForceInfo@@@std@@QAEXPAUForceInfo@@ABU3@@Z ; std::allocator<ForceInfo>::construct
; Function compile flags: /Ogsp
; File c:\program files (x86)\microsoft visual studio 10.0\vc\include\xmemory
;	COMDAT ?construct@?$allocator@UForceInfo@@@std@@QAEXPAUForceInfo@@ABU3@@Z
_TEXT	SEGMENT
__Ptr$ = 8						; size = 4
__Val$ = 12						; size = 4
?construct@?$allocator@UForceInfo@@@std@@QAEXPAUForceInfo@@ABU3@@Z PROC ; std::allocator<ForceInfo>::construct, COMDAT
; _this$ = ecx

; 196  : 		{	// construct object at _Ptr with value _Val

  00000	55		 push	 ebp
  00001	8b ec		 mov	 ebp, esp
  00003	57		 push	 edi

; 197  : 		_Construct(_Ptr, _Val);

  00004	8b 7d 08	 mov	 edi, DWORD PTR __Ptr$[ebp]
  00007	85 ff		 test	 edi, edi
  00009	74 08		 je	 SHORT $LN5@construct
  0000b	56		 push	 esi
  0000c	8b 75 0c	 mov	 esi, DWORD PTR __Val$[ebp]
  0000f	a5		 movsd
  00010	a5		 movsd
  00011	a5		 movsd
  00012	5e		 pop	 esi
$LN5@construct:
  00013	5f		 pop	 edi

; 198  : 		}

  00014	5d		 pop	 ebp
  00015	c2 08 00	 ret	 8
?construct@?$allocator@UForceInfo@@@std@@QAEXPAUForceInfo@@ABU3@@Z ENDP ; std::allocator<ForceInfo>::construct
_TEXT	ENDS
PUBLIC	??$_Construct@UWeaponInfo@@ABU1@@std@@YAXPAUWeaponInfo@@ABU1@@Z ; std::_Construct<WeaponInfo,WeaponInfo const &>
EXTRN	__EH_epilog3:PROC
EXTRN	__EH_prolog3:PROC
;	COMDAT xdata$x
; File c:\program files (x86)\microsoft visual studio 10.0\vc\include\utility
xdata$x	SEGMENT
__unwindtable$??$_Construct@UWeaponInfo@@ABU1@@std@@YAXPAUWeaponInfo@@ABU1@@Z DD 0ffffffffH
	DD	FLAT:__unwindfunclet$??$_Construct@UWeaponInfo@@ABU1@@std@@YAXPAUWeaponInfo@@ABU1@@Z$0
__ehfuncinfo$??$_Construct@UWeaponInfo@@ABU1@@std@@YAXPAUWeaponInfo@@ABU1@@Z DD 019930522H
	DD	01H
	DD	FLAT:__unwindtable$??$_Construct@UWeaponInfo@@ABU1@@std@@YAXPAUWeaponInfo@@ABU1@@Z
	DD	2 DUP(00H)
	DD	2 DUP(00H)
	DD	00H
	DD	01H
; Function compile flags: /Ogsp
; File c:\program files (x86)\microsoft visual studio 10.0\vc\include\xmemory
xdata$x	ENDS
;	COMDAT ??$_Construct@UWeaponInfo@@ABU1@@std@@YAXPAUWeaponInfo@@ABU1@@Z
_TEXT	SEGMENT
$T554257 = -16						; size = 4
__$EHRec$ = -12						; size = 12
__Vptr$ = 8						; size = 4
__Ptr$ = 8						; size = 4
__Val$ = 12						; size = 4
??$_Construct@UWeaponInfo@@ABU1@@std@@YAXPAUWeaponInfo@@ABU1@@Z PROC ; std::_Construct<WeaponInfo,WeaponInfo const &>, COMDAT

; 46   : 	{	// construct object at _Ptr with value _Val

  00000	6a 04		 push	 4
  00002	b8 00 00 00 00	 mov	 eax, __ehhandler$??$_Construct@UWeaponInfo@@ABU1@@std@@YAXPAUWeaponInfo@@ABU1@@Z
  00007	e8 00 00 00 00	 call	 __EH_prolog3

; 47   : 	void _FARQ *_Vptr = _Ptr;

  0000c	8b 4d 08	 mov	 ecx, DWORD PTR __Ptr$[ebp]
  0000f	89 4d 08	 mov	 DWORD PTR __Vptr$[ebp], ecx

; 48   : 	::new (_Vptr) _Ty1(_STD forward<_Ty2>(_Val));

  00012	89 4d f0	 mov	 DWORD PTR $T554257[ebp], ecx
  00015	83 65 fc 00	 and	 DWORD PTR __$EHRec$[ebp+8], 0
  00019	85 c9		 test	 ecx, ecx
  0001b	74 08		 je	 SHORT $LN3@Construct@2
  0001d	ff 75 0c	 push	 DWORD PTR __Val$[ebp]
  00020	e8 00 00 00 00	 call	 ??0WeaponInfo@@QAE@ABU0@@Z
$LN3@Construct@2:

; 49   : 	}

  00025	e8 00 00 00 00	 call	 __EH_epilog3
  0002a	c3		 ret	 0
_TEXT	ENDS
;	COMDAT text$x
text$x	SEGMENT
__unwindfunclet$??$_Construct@UWeaponInfo@@ABU1@@std@@YAXPAUWeaponInfo@@ABU1@@Z$0:
  00000	ff 75 08	 push	 DWORD PTR __Vptr$[ebp]
  00003	ff 75 f0	 push	 DWORD PTR $T554257[ebp]
  00006	e8 00 00 00 00	 call	 ??3@YAXPAX0@Z		; operator delete
  0000b	59		 pop	 ecx
  0000c	59		 pop	 ecx
  0000d	c3		 ret	 0
__ehhandler$??$_Construct@UWeaponInfo@@ABU1@@std@@YAXPAUWeaponInfo@@ABU1@@Z:
  0000e	8b 54 24 08	 mov	 edx, DWORD PTR [esp+8]
  00012	8d 42 0c	 lea	 eax, DWORD PTR [edx+12]
  00015	8b 4a ec	 mov	 ecx, DWORD PTR [edx-20]
  00018	33 c8		 xor	 ecx, eax
  0001a	e8 00 00 00 00	 call	 @__security_check_cookie@4
  0001f	b8 00 00 00 00	 mov	 eax, OFFSET __ehfuncinfo$??$_Construct@UWeaponInfo@@ABU1@@std@@YAXPAUWeaponInfo@@ABU1@@Z
  00024	e9 00 00 00 00	 jmp	 ___CxxFrameHandler3
text$x	ENDS
??$_Construct@UWeaponInfo@@ABU1@@std@@YAXPAUWeaponInfo@@ABU1@@Z ENDP ; std::_Construct<WeaponInfo,WeaponInfo const &>
PUBLIC	??0?$CEncrypt@M@@QAE@XZ				; CEncrypt<float>::CEncrypt<float>
EXTRN	??0ccddaabb@@QAE@XZ:PROC			; ccddaabb::ccddaabb
;	COMDAT xdata$x
; File d:\lost saga for developer\youtube\tutorial\source\src\lsclient\encryptvalue.h
xdata$x	SEGMENT
__unwindtable$??0?$CEncrypt@M@@QAE@XZ DD 0ffffffffH
	DD	FLAT:__unwindfunclet$??0?$CEncrypt@M@@QAE@XZ$0
__ehfuncinfo$??0?$CEncrypt@M@@QAE@XZ DD 019930522H
	DD	01H
	DD	FLAT:__unwindtable$??0?$CEncrypt@M@@QAE@XZ
	DD	2 DUP(00H)
	DD	2 DUP(00H)
	DD	00H
	DD	01H
; Function compile flags: /Ogsp
xdata$x	ENDS
;	COMDAT ??0?$CEncrypt@M@@QAE@XZ
_TEXT	SEGMENT
_this$ = -16						; size = 4
__$EHRec$ = -12						; size = 12
??0?$CEncrypt@M@@QAE@XZ PROC				; CEncrypt<float>::CEncrypt<float>, COMDAT
; _this$ = ecx

; 109  : 	CEncrypt()

  00000	6a 04		 push	 4
  00002	b8 00 00 00 00	 mov	 eax, __ehhandler$??0?$CEncrypt@M@@QAE@XZ
  00007	e8 00 00 00 00	 call	 __EH_prolog3
  0000c	8b f1		 mov	 esi, ecx
  0000e	89 75 f0	 mov	 DWORD PTR _this$[ebp], esi
  00011	8d 4e 0c	 lea	 ecx, DWORD PTR [esi+12]
  00014	c7 06 00 00 00
	00		 mov	 DWORD PTR [esi], OFFSET ??_7?$CEncrypt@M@@6B@
  0001a	e8 00 00 00 00	 call	 ??0ccddaabb@@QAE@XZ	; ccddaabb::ccddaabb
  0001f	83 65 fc 00	 and	 DWORD PTR __$EHRec$[ebp+8], 0

; 110  : 	{
; 111  : 		Init();

  00023	8b ce		 mov	 ecx, esi
  00025	e8 00 00 00 00	 call	 ?Init@?$CEncrypt@M@@AAEXXZ ; CEncrypt<float>::Init

; 112  : 	}

  0002a	8b c6		 mov	 eax, esi
  0002c	e8 00 00 00 00	 call	 __EH_epilog3
  00031	c3		 ret	 0
_TEXT	ENDS
;	COMDAT text$x
text$x	SEGMENT
__unwindfunclet$??0?$CEncrypt@M@@QAE@XZ$0:
  00000	8b 4d f0	 mov	 ecx, DWORD PTR _this$[ebp]
  00003	83 c1 0c	 add	 ecx, 12			; 0000000cH
  00006	e9 00 00 00 00	 jmp	 ??1ccddaabb@@UAE@XZ	; ccddaabb::~ccddaabb
__ehhandler$??0?$CEncrypt@M@@QAE@XZ:
  0000b	8b 54 24 08	 mov	 edx, DWORD PTR [esp+8]
  0000f	8d 42 0c	 lea	 eax, DWORD PTR [edx+12]
  00012	8b 4a ec	 mov	 ecx, DWORD PTR [edx-20]
  00015	33 c8		 xor	 ecx, eax
  00017	e8 00 00 00 00	 call	 @__security_check_cookie@4
  0001c	b8 00 00 00 00	 mov	 eax, OFFSET __ehfuncinfo$??0?$CEncrypt@M@@QAE@XZ
  00021	e9 00 00 00 00	 jmp	 ___CxxFrameHandler3
text$x	ENDS
??0?$CEncrypt@M@@QAE@XZ ENDP				; CEncrypt<float>::CEncrypt<float>
PUBLIC	??B?$CEncrypt@M@@QAEMXZ				; CEncrypt<float>::operator float
; Function compile flags: /Ogsp
;	COMDAT ??B?$CEncrypt@M@@QAEMXZ
_TEXT	SEGMENT
_value$ = -4						; size = 4
??B?$CEncrypt@M@@QAEMXZ PROC				; CEncrypt<float>::operator float, COMDAT
; _this$ = ecx

; 134  : 	{

  00000	55		 push	 ebp
  00001	8b ec		 mov	 ebp, esp
  00003	51		 push	 ecx

; 135  : 		type value;
; 136  : 		DecryptValueToPool(&value);

  00004	8d 45 fc	 lea	 eax, DWORD PTR _value$[ebp]
  00007	50		 push	 eax
  00008	e8 00 00 00 00	 call	 ?DecryptValueToPool@?$CEncrypt@M@@QAEXPAM@Z ; CEncrypt<float>::DecryptValueToPool

; 137  : 
; 138  : #ifdef _NOTUSE
; 139  : 		Debug();
; 140  : #endif
; 141  : 		return value;

  0000d	d9 45 fc	 fld	 DWORD PTR _value$[ebp]

; 142  : 	}

  00010	c9		 leave
  00011	c3		 ret	 0
??B?$CEncrypt@M@@QAEMXZ ENDP				; CEncrypt<float>::operator float
_TEXT	ENDS
PUBLIC	??B?$CEncrypt@M@@QBEMXZ				; CEncrypt<float>::operator float
; Function compile flags: /Ogsp
;	COMDAT ??B?$CEncrypt@M@@QBEMXZ
_TEXT	SEGMENT
_value$ = -4						; size = 4
??B?$CEncrypt@M@@QBEMXZ PROC				; CEncrypt<float>::operator float, COMDAT
; _this$ = ecx

; 145  : 	{

  00000	55		 push	 ebp
  00001	8b ec		 mov	 ebp, esp
  00003	51		 push	 ecx

; 146  : 		//UJ 130829, const    --start
; 147  : 		type value;
; 148  : 		CEncrypt<type>* pThis = const_cast<CEncrypt<type>*>(this);
; 149  : 		pThis->DecryptValueToPool(&value);

  00004	8d 45 fc	 lea	 eax, DWORD PTR _value$[ebp]
  00007	50		 push	 eax
  00008	e8 00 00 00 00	 call	 ?DecryptValueToPool@?$CEncrypt@M@@QAEXPAM@Z ; CEncrypt<float>::DecryptValueToPool

; 150  : 		//// const DecryptValueToPool     .
; 151  :  		//type value;
; 152  : 		//char szTempMem[MAX_ENCRYPT];
; 153  : 		//m_RC5.DecryptByte( m_MemPool, szTempMem, max(m_ValueSize, DEFAULT_ENCRYPT) );
; 154  : 		//memcpy( &value, szTempMem, m_ValueSize );
; 155  : 		//UJ --end
; 156  : 
; 157  : #ifdef _NOTUSE
; 158  : 		Debug();
; 159  : #endif
; 160  : 		return value;

  0000d	d9 45 fc	 fld	 DWORD PTR _value$[ebp]

; 161  : 	}

  00010	c9		 leave
  00011	c3		 ret	 0
??B?$CEncrypt@M@@QBEMXZ ENDP				; CEncrypt<float>::operator float
_TEXT	ENDS
PUBLIC	??4?$CEncrypt@M@@QAEMM@Z			; CEncrypt<float>::operator=
; Function compile flags: /Ogsp
;	COMDAT ??4?$CEncrypt@M@@QAEMM@Z
_TEXT	SEGMENT
_value$ = 8						; size = 4
_inValue$ = 8						; size = 4
??4?$CEncrypt@M@@QAEMM@Z PROC				; CEncrypt<float>::operator=, COMDAT
; _this$ = ecx

; 1654 : 	{	

  00000	55		 push	 ebp
  00001	8b ec		 mov	 ebp, esp

; 1655 : 		type value = inValue;

  00003	d9 45 08	 fld	 DWORD PTR _inValue$[ebp]

; 1656 : 		EncryptValueToPool((char*)&value);

  00006	8d 45 08	 lea	 eax, DWORD PTR _value$[ebp]
  00009	50		 push	 eax
  0000a	d9 5d 08	 fstp	 DWORD PTR _value$[ebp]
  0000d	e8 00 00 00 00	 call	 ?EncryptValueToPool@?$CEncrypt@M@@AAEXPBD@Z ; CEncrypt<float>::EncryptValueToPool

; 1657 : #ifdef _NOTUSE
; 1658 : 		m_value = inValue;
; 1659 : 		Debug();
; 1660 : #endif
; 1661 : 		return value;

  00012	d9 45 08	 fld	 DWORD PTR _value$[ebp]

; 1662 : 	}

  00015	5d		 pop	 ebp
  00016	c2 04 00	 ret	 4
??4?$CEncrypt@M@@QAEMM@Z ENDP				; CEncrypt<float>::operator=
_TEXT	ENDS
PUBLIC	??O?$CEncrypt@M@@QAE_NABM@Z			; CEncrypt<float>::operator>
; Function compile flags: /Ogsp
;	COMDAT ??O?$CEncrypt@M@@QAE_NABM@Z
_TEXT	SEGMENT
_value$ = -4						; size = 4
_inValue$ = 8						; size = 4
??O?$CEncrypt@M@@QAE_NABM@Z PROC			; CEncrypt<float>::operator>, COMDAT
; _this$ = ecx

; 1811 : 	{

  00000	55		 push	 ebp
  00001	8b ec		 mov	 ebp, esp
  00003	51		 push	 ecx

; 1812 : 		type value;
; 1813 : 		DecryptValueToPool(&value);

  00004	8d 45 fc	 lea	 eax, DWORD PTR _value$[ebp]
  00007	50		 push	 eax
  00008	e8 00 00 00 00	 call	 ?DecryptValueToPool@?$CEncrypt@M@@QAEXPAM@Z ; CEncrypt<float>::DecryptValueToPool

; 1814 : #ifdef _NOTUSE
; 1815 : 		Debug();
; 1816 : #endif
; 1817 : 		return (value > inValue);

  0000d	8b 45 08	 mov	 eax, DWORD PTR _inValue$[ebp]
  00010	f3 0f 10 08	 movss	 xmm1, DWORD PTR [eax]
  00014	f3 0f 10 45 fc	 movss	 xmm0, DWORD PTR _value$[ebp]
  00019	0f 5a c0	 cvtps2pd xmm0, xmm0
  0001c	0f 5a c9	 cvtps2pd xmm1, xmm1
  0001f	33 c0		 xor	 eax, eax
  00021	66 0f 2f c1	 comisd	 xmm0, xmm1
  00025	76 01		 jbe	 SHORT $LN4@operator@4
  00027	40		 inc	 eax
$LN4@operator@4:

; 1818 : 	}		

  00028	c9		 leave
  00029	c2 04 00	 ret	 4
??O?$CEncrypt@M@@QAE_NABM@Z ENDP			; CEncrypt<float>::operator>
_TEXT	ENDS
PUBLIC	??0?$CEncrypt@K@@QAE@XZ				; CEncrypt<unsigned long>::CEncrypt<unsigned long>
;	COMDAT xdata$x
xdata$x	SEGMENT
__unwindtable$??0?$CEncrypt@K@@QAE@XZ DD 0ffffffffH
	DD	FLAT:__unwindfunclet$??0?$CEncrypt@K@@QAE@XZ$0
__ehfuncinfo$??0?$CEncrypt@K@@QAE@XZ DD 019930522H
	DD	01H
	DD	FLAT:__unwindtable$??0?$CEncrypt@K@@QAE@XZ
	DD	2 DUP(00H)
	DD	2 DUP(00H)
	DD	00H
	DD	01H
; Function compile flags: /Ogsp
xdata$x	ENDS
;	COMDAT ??0?$CEncrypt@K@@QAE@XZ
_TEXT	SEGMENT
_this$ = -16						; size = 4
__$EHRec$ = -12						; size = 12
??0?$CEncrypt@K@@QAE@XZ PROC				; CEncrypt<unsigned long>::CEncrypt<unsigned long>, COMDAT
; _this$ = ecx

; 109  : 	CEncrypt()

  00000	6a 04		 push	 4
  00002	b8 00 00 00 00	 mov	 eax, __ehhandler$??0?$CEncrypt@K@@QAE@XZ
  00007	e8 00 00 00 00	 call	 __EH_prolog3
  0000c	8b f1		 mov	 esi, ecx
  0000e	89 75 f0	 mov	 DWORD PTR _this$[ebp], esi
  00011	8d 4e 0c	 lea	 ecx, DWORD PTR [esi+12]
  00014	c7 06 00 00 00
	00		 mov	 DWORD PTR [esi], OFFSET ??_7?$CEncrypt@K@@6B@
  0001a	e8 00 00 00 00	 call	 ??0ccddaabb@@QAE@XZ	; ccddaabb::ccddaabb
  0001f	83 65 fc 00	 and	 DWORD PTR __$EHRec$[ebp+8], 0

; 110  : 	{
; 111  : 		Init();

  00023	8b ce		 mov	 ecx, esi
  00025	e8 00 00 00 00	 call	 ?Init@?$CEncrypt@K@@AAEXXZ ; CEncrypt<unsigned long>::Init

; 112  : 	}

  0002a	8b c6		 mov	 eax, esi
  0002c	e8 00 00 00 00	 call	 __EH_epilog3
  00031	c3		 ret	 0
_TEXT	ENDS
;	COMDAT text$x
text$x	SEGMENT
__unwindfunclet$??0?$CEncrypt@K@@QAE@XZ$0:
  00000	8b 4d f0	 mov	 ecx, DWORD PTR _this$[ebp]
  00003	83 c1 0c	 add	 ecx, 12			; 0000000cH
  00006	e9 00 00 00 00	 jmp	 ??1ccddaabb@@UAE@XZ	; ccddaabb::~ccddaabb
__ehhandler$??0?$CEncrypt@K@@QAE@XZ:
  0000b	8b 54 24 08	 mov	 edx, DWORD PTR [esp+8]
  0000f	8d 42 0c	 lea	 eax, DWORD PTR [edx+12]
  00012	8b 4a ec	 mov	 ecx, DWORD PTR [edx-20]
  00015	33 c8		 xor	 ecx, eax
  00017	e8 00 00 00 00	 call	 @__security_check_cookie@4
  0001c	b8 00 00 00 00	 mov	 eax, OFFSET __ehfuncinfo$??0?$CEncrypt@K@@QAE@XZ
  00021	e9 00 00 00 00	 jmp	 ___CxxFrameHandler3
text$x	ENDS
??0?$CEncrypt@K@@QAE@XZ ENDP				; CEncrypt<unsigned long>::CEncrypt<unsigned long>
PUBLIC	??B?$CEncrypt@K@@QAEKXZ				; CEncrypt<unsigned long>::operator unsigned long
; Function compile flags: /Ogsp
;	COMDAT ??B?$CEncrypt@K@@QAEKXZ
_TEXT	SEGMENT
_value$ = -4						; size = 4
??B?$CEncrypt@K@@QAEKXZ PROC				; CEncrypt<unsigned long>::operator unsigned long, COMDAT
; _this$ = ecx

; 134  : 	{

  00000	55		 push	 ebp
  00001	8b ec		 mov	 ebp, esp
  00003	51		 push	 ecx

; 135  : 		type value;
; 136  : 		DecryptValueToPool(&value);

  00004	8d 45 fc	 lea	 eax, DWORD PTR _value$[ebp]
  00007	50		 push	 eax
  00008	e8 00 00 00 00	 call	 ?DecryptValueToPool@?$CEncrypt@K@@QAEXPAK@Z ; CEncrypt<unsigned long>::DecryptValueToPool

; 137  : 
; 138  : #ifdef _NOTUSE
; 139  : 		Debug();
; 140  : #endif
; 141  : 		return value;

  0000d	8b 45 fc	 mov	 eax, DWORD PTR _value$[ebp]

; 142  : 	}

  00010	c9		 leave
  00011	c3		 ret	 0
??B?$CEncrypt@K@@QAEKXZ ENDP				; CEncrypt<unsigned long>::operator unsigned long
_TEXT	ENDS
PUBLIC	??B?$CEncrypt@K@@QBEKXZ				; CEncrypt<unsigned long>::operator unsigned long
; Function compile flags: /Ogsp
;	COMDAT ??B?$CEncrypt@K@@QBEKXZ
_TEXT	SEGMENT
_value$ = -4						; size = 4
??B?$CEncrypt@K@@QBEKXZ PROC				; CEncrypt<unsigned long>::operator unsigned long, COMDAT
; _this$ = ecx

; 145  : 	{

  00000	55		 push	 ebp
  00001	8b ec		 mov	 ebp, esp
  00003	51		 push	 ecx

; 146  : 		//UJ 130829, const    --start
; 147  : 		type value;
; 148  : 		CEncrypt<type>* pThis = const_cast<CEncrypt<type>*>(this);
; 149  : 		pThis->DecryptValueToPool(&value);

  00004	8d 45 fc	 lea	 eax, DWORD PTR _value$[ebp]
  00007	50		 push	 eax
  00008	e8 00 00 00 00	 call	 ?DecryptValueToPool@?$CEncrypt@K@@QAEXPAK@Z ; CEncrypt<unsigned long>::DecryptValueToPool

; 150  : 		//// const DecryptValueToPool     .
; 151  :  		//type value;
; 152  : 		//char szTempMem[MAX_ENCRYPT];
; 153  : 		//m_RC5.DecryptByte( m_MemPool, szTempMem, max(m_ValueSize, DEFAULT_ENCRYPT) );
; 154  : 		//memcpy( &value, szTempMem, m_ValueSize );
; 155  : 		//UJ --end
; 156  : 
; 157  : #ifdef _NOTUSE
; 158  : 		Debug();
; 159  : #endif
; 160  : 		return value;

  0000d	8b 45 fc	 mov	 eax, DWORD PTR _value$[ebp]

; 161  : 	}

  00010	c9		 leave
  00011	c3		 ret	 0
??B?$CEncrypt@K@@QBEKXZ ENDP				; CEncrypt<unsigned long>::operator unsigned long
_TEXT	ENDS
PUBLIC	??4?$CEncrypt@K@@QAEKH@Z			; CEncrypt<unsigned long>::operator=
; Function compile flags: /Ogsp
;	COMDAT ??4?$CEncrypt@K@@QAEKH@Z
_TEXT	SEGMENT
_value$ = 8						; size = 4
_inValue$ = 8						; size = 4
??4?$CEncrypt@K@@QAEKH@Z PROC				; CEncrypt<unsigned long>::operator=, COMDAT
; _this$ = ecx

; 843  : 	{

  00000	55		 push	 ebp
  00001	8b ec		 mov	 ebp, esp

; 844  : 		type value = inValue;

  00003	8b 45 08	 mov	 eax, DWORD PTR _inValue$[ebp]
  00006	89 45 08	 mov	 DWORD PTR _value$[ebp], eax

; 845  : 		EncryptValueToPool((char*)&value);

  00009	8d 45 08	 lea	 eax, DWORD PTR _value$[ebp]
  0000c	50		 push	 eax
  0000d	e8 00 00 00 00	 call	 ?EncryptValueToPool@?$CEncrypt@K@@AAEXPBD@Z ; CEncrypt<unsigned long>::EncryptValueToPool

; 846  : #ifdef _NOTUSE
; 847  : 		m_value = inValue;
; 848  : 		Debug();
; 849  : #endif
; 850  : 		return value;

  00012	8b 45 08	 mov	 eax, DWORD PTR _value$[ebp]

; 851  : 	}

  00015	5d		 pop	 ebp
  00016	c2 04 00	 ret	 4
??4?$CEncrypt@K@@QAEKH@Z ENDP				; CEncrypt<unsigned long>::operator=
_TEXT	ENDS
PUBLIC	??4?$CEncrypt@K@@QAEKK@Z			; CEncrypt<unsigned long>::operator=
; Function compile flags: /Ogsp
;	COMDAT ??4?$CEncrypt@K@@QAEKK@Z
_TEXT	SEGMENT
_value$ = 8						; size = 4
_inValue$ = 8						; size = 4
??4?$CEncrypt@K@@QAEKK@Z PROC				; CEncrypt<unsigned long>::operator=, COMDAT
; _this$ = ecx

; 1262 : 	{

  00000	55		 push	 ebp
  00001	8b ec		 mov	 ebp, esp

; 1263 : 		
; 1264 : 		type value = inValue;

  00003	8b 45 08	 mov	 eax, DWORD PTR _inValue$[ebp]
  00006	89 45 08	 mov	 DWORD PTR _value$[ebp], eax

; 1265 : 		EncryptValueToPool((char*)&value);

  00009	8d 45 08	 lea	 eax, DWORD PTR _value$[ebp]
  0000c	50		 push	 eax
  0000d	e8 00 00 00 00	 call	 ?EncryptValueToPool@?$CEncrypt@K@@AAEXPBD@Z ; CEncrypt<unsigned long>::EncryptValueToPool

; 1266 : #ifdef _NOTUSE
; 1267 : 		m_value = inValue;
; 1268 : 		Debug();
; 1269 : #endif
; 1270 : 		return value;

  00012	8b 45 08	 mov	 eax, DWORD PTR _value$[ebp]

; 1271 : 	}

  00015	5d		 pop	 ebp
  00016	c2 04 00	 ret	 4
??4?$CEncrypt@K@@QAEKK@Z ENDP				; CEncrypt<unsigned long>::operator=
_TEXT	ENDS
PUBLIC	??0?$CEncrypt@_N@@QAE@XZ			; CEncrypt<bool>::CEncrypt<bool>
;	COMDAT xdata$x
xdata$x	SEGMENT
__unwindtable$??0?$CEncrypt@_N@@QAE@XZ DD 0ffffffffH
	DD	FLAT:__unwindfunclet$??0?$CEncrypt@_N@@QAE@XZ$0
__ehfuncinfo$??0?$CEncrypt@_N@@QAE@XZ DD 019930522H
	DD	01H
	DD	FLAT:__unwindtable$??0?$CEncrypt@_N@@QAE@XZ
	DD	2 DUP(00H)
	DD	2 DUP(00H)
	DD	00H
	DD	01H
; Function compile flags: /Ogsp
xdata$x	ENDS
;	COMDAT ??0?$CEncrypt@_N@@QAE@XZ
_TEXT	SEGMENT
_this$ = -16						; size = 4
__$EHRec$ = -12						; size = 12
??0?$CEncrypt@_N@@QAE@XZ PROC				; CEncrypt<bool>::CEncrypt<bool>, COMDAT
; _this$ = ecx

; 109  : 	CEncrypt()

  00000	6a 04		 push	 4
  00002	b8 00 00 00 00	 mov	 eax, __ehhandler$??0?$CEncrypt@_N@@QAE@XZ
  00007	e8 00 00 00 00	 call	 __EH_prolog3
  0000c	8b f1		 mov	 esi, ecx
  0000e	89 75 f0	 mov	 DWORD PTR _this$[ebp], esi
  00011	8d 4e 0c	 lea	 ecx, DWORD PTR [esi+12]
  00014	c7 06 00 00 00
	00		 mov	 DWORD PTR [esi], OFFSET ??_7?$CEncrypt@_N@@6B@
  0001a	e8 00 00 00 00	 call	 ??0ccddaabb@@QAE@XZ	; ccddaabb::ccddaabb
  0001f	83 65 fc 00	 and	 DWORD PTR __$EHRec$[ebp+8], 0

; 110  : 	{
; 111  : 		Init();

  00023	8b ce		 mov	 ecx, esi
  00025	e8 00 00 00 00	 call	 ?Init@?$CEncrypt@_N@@AAEXXZ ; CEncrypt<bool>::Init

; 112  : 	}

  0002a	8b c6		 mov	 eax, esi
  0002c	e8 00 00 00 00	 call	 __EH_epilog3
  00031	c3		 ret	 0
_TEXT	ENDS
;	COMDAT text$x
text$x	SEGMENT
__unwindfunclet$??0?$CEncrypt@_N@@QAE@XZ$0:
  00000	8b 4d f0	 mov	 ecx, DWORD PTR _this$[ebp]
  00003	83 c1 0c	 add	 ecx, 12			; 0000000cH
  00006	e9 00 00 00 00	 jmp	 ??1ccddaabb@@UAE@XZ	; ccddaabb::~ccddaabb
__ehhandler$??0?$CEncrypt@_N@@QAE@XZ:
  0000b	8b 54 24 08	 mov	 edx, DWORD PTR [esp+8]
  0000f	8d 42 0c	 lea	 eax, DWORD PTR [edx+12]
  00012	8b 4a ec	 mov	 ecx, DWORD PTR [edx-20]
  00015	33 c8		 xor	 ecx, eax
  00017	e8 00 00 00 00	 call	 @__security_check_cookie@4
  0001c	b8 00 00 00 00	 mov	 eax, OFFSET __ehfuncinfo$??0?$CEncrypt@_N@@QAE@XZ
  00021	e9 00 00 00 00	 jmp	 ___CxxFrameHandler3
text$x	ENDS
??0?$CEncrypt@_N@@QAE@XZ ENDP				; CEncrypt<bool>::CEncrypt<bool>
PUBLIC	??B?$CEncrypt@_N@@QAE_NXZ			; CEncrypt<bool>::operator bool
; Function compile flags: /Ogsp
;	COMDAT ??B?$CEncrypt@_N@@QAE_NXZ
_TEXT	SEGMENT
_value$ = -1						; size = 1
??B?$CEncrypt@_N@@QAE_NXZ PROC				; CEncrypt<bool>::operator bool, COMDAT
; _this$ = ecx

; 134  : 	{

  00000	55		 push	 ebp
  00001	8b ec		 mov	 ebp, esp
  00003	51		 push	 ecx

; 135  : 		type value;
; 136  : 		DecryptValueToPool(&value);

  00004	8d 45 ff	 lea	 eax, DWORD PTR _value$[ebp]
  00007	50		 push	 eax
  00008	e8 00 00 00 00	 call	 ?DecryptValueToPool@?$CEncrypt@_N@@QAEXPA_N@Z ; CEncrypt<bool>::DecryptValueToPool

; 137  : 
; 138  : #ifdef _NOTUSE
; 139  : 		Debug();
; 140  : #endif
; 141  : 		return value;

  0000d	8a 45 ff	 mov	 al, BYTE PTR _value$[ebp]

; 142  : 	}

  00010	c9		 leave
  00011	c3		 ret	 0
??B?$CEncrypt@_N@@QAE_NXZ ENDP				; CEncrypt<bool>::operator bool
_TEXT	ENDS
PUBLIC	??B?$CEncrypt@_N@@QBE_NXZ			; CEncrypt<bool>::operator bool
; Function compile flags: /Ogsp
;	COMDAT ??B?$CEncrypt@_N@@QBE_NXZ
_TEXT	SEGMENT
_value$ = -1						; size = 1
??B?$CEncrypt@_N@@QBE_NXZ PROC				; CEncrypt<bool>::operator bool, COMDAT
; _this$ = ecx

; 145  : 	{

  00000	55		 push	 ebp
  00001	8b ec		 mov	 ebp, esp
  00003	51		 push	 ecx

; 146  : 		//UJ 130829, const    --start
; 147  : 		type value;
; 148  : 		CEncrypt<type>* pThis = const_cast<CEncrypt<type>*>(this);
; 149  : 		pThis->DecryptValueToPool(&value);

  00004	8d 45 ff	 lea	 eax, DWORD PTR _value$[ebp]
  00007	50		 push	 eax
  00008	e8 00 00 00 00	 call	 ?DecryptValueToPool@?$CEncrypt@_N@@QAEXPA_N@Z ; CEncrypt<bool>::DecryptValueToPool

; 150  : 		//// const DecryptValueToPool     .
; 151  :  		//type value;
; 152  : 		//char szTempMem[MAX_ENCRYPT];
; 153  : 		//m_RC5.DecryptByte( m_MemPool, szTempMem, max(m_ValueSize, DEFAULT_ENCRYPT) );
; 154  : 		//memcpy( &value, szTempMem, m_ValueSize );
; 155  : 		//UJ --end
; 156  : 
; 157  : #ifdef _NOTUSE
; 158  : 		Debug();
; 159  : #endif
; 160  : 		return value;

  0000d	8a 45 ff	 mov	 al, BYTE PTR _value$[ebp]

; 161  : 	}

  00010	c9		 leave
  00011	c3		 ret	 0
??B?$CEncrypt@_N@@QBE_NXZ ENDP				; CEncrypt<bool>::operator bool
_TEXT	ENDS
PUBLIC	??4?$CEncrypt@_N@@QAE_N_N@Z			; CEncrypt<bool>::operator=
; Function compile flags: /Ogsp
;	COMDAT ??4?$CEncrypt@_N@@QAE_N_N@Z
_TEXT	SEGMENT
_inValue$ = 8						; size = 1
_value$ = 11						; size = 1
??4?$CEncrypt@_N@@QAE_N_N@Z PROC			; CEncrypt<bool>::operator=, COMDAT
; _this$ = ecx

; 225  : 	{

  00000	55		 push	 ebp
  00001	8b ec		 mov	 ebp, esp

; 226  : 		type value = inValue;

  00003	8a 45 08	 mov	 al, BYTE PTR _inValue$[ebp]
  00006	88 45 0b	 mov	 BYTE PTR _value$[ebp], al

; 227  : 		EncryptValueToPool((char*)&value);

  00009	8d 45 0b	 lea	 eax, DWORD PTR _value$[ebp]
  0000c	50		 push	 eax
  0000d	e8 00 00 00 00	 call	 ?EncryptValueToPool@?$CEncrypt@_N@@AAEXPBD@Z ; CEncrypt<bool>::EncryptValueToPool

; 228  : #ifdef _NOTUSE
; 229  : 		m_value = inValue;
; 230  : 		Debug();
; 231  : #endif
; 232  : 		return value;

  00012	8a 45 0b	 mov	 al, BYTE PTR _value$[ebp]

; 233  : 	}

  00015	5d		 pop	 ebp
  00016	c2 04 00	 ret	 4
??4?$CEncrypt@_N@@QAE_N_N@Z ENDP			; CEncrypt<bool>::operator=
_TEXT	ENDS
PUBLIC	??0?$CEncrypt@H@@QAE@XZ				; CEncrypt<int>::CEncrypt<int>
;	COMDAT xdata$x
xdata$x	SEGMENT
__unwindtable$??0?$CEncrypt@H@@QAE@XZ DD 0ffffffffH
	DD	FLAT:__unwindfunclet$??0?$CEncrypt@H@@QAE@XZ$0
__ehfuncinfo$??0?$CEncrypt@H@@QAE@XZ DD 019930522H
	DD	01H
	DD	FLAT:__unwindtable$??0?$CEncrypt@H@@QAE@XZ
	DD	2 DUP(00H)
	DD	2 DUP(00H)
	DD	00H
	DD	01H
; Function compile flags: /Ogsp
xdata$x	ENDS
;	COMDAT ??0?$CEncrypt@H@@QAE@XZ
_TEXT	SEGMENT
_this$ = -16						; size = 4
__$EHRec$ = -12						; size = 12
??0?$CEncrypt@H@@QAE@XZ PROC				; CEncrypt<int>::CEncrypt<int>, COMDAT
; _this$ = ecx

; 109  : 	CEncrypt()

  00000	6a 04		 push	 4
  00002	b8 00 00 00 00	 mov	 eax, __ehhandler$??0?$CEncrypt@H@@QAE@XZ
  00007	e8 00 00 00 00	 call	 __EH_prolog3
  0000c	8b f1		 mov	 esi, ecx
  0000e	89 75 f0	 mov	 DWORD PTR _this$[ebp], esi
  00011	8d 4e 0c	 lea	 ecx, DWORD PTR [esi+12]
  00014	c7 06 00 00 00
	00		 mov	 DWORD PTR [esi], OFFSET ??_7?$CEncrypt@H@@6B@
  0001a	e8 00 00 00 00	 call	 ??0ccddaabb@@QAE@XZ	; ccddaabb::ccddaabb
  0001f	83 65 fc 00	 and	 DWORD PTR __$EHRec$[ebp+8], 0

; 110  : 	{
; 111  : 		Init();

  00023	8b ce		 mov	 ecx, esi
  00025	e8 00 00 00 00	 call	 ?Init@?$CEncrypt@H@@AAEXXZ ; CEncrypt<int>::Init

; 112  : 	}

  0002a	8b c6		 mov	 eax, esi
  0002c	e8 00 00 00 00	 call	 __EH_epilog3
  00031	c3		 ret	 0
_TEXT	ENDS
;	COMDAT text$x
text$x	SEGMENT
__unwindfunclet$??0?$CEncrypt@H@@QAE@XZ$0:
  00000	8b 4d f0	 mov	 ecx, DWORD PTR _this$[ebp]
  00003	83 c1 0c	 add	 ecx, 12			; 0000000cH
  00006	e9 00 00 00 00	 jmp	 ??1ccddaabb@@UAE@XZ	; ccddaabb::~ccddaabb
__ehhandler$??0?$CEncrypt@H@@QAE@XZ:
  0000b	8b 54 24 08	 mov	 edx, DWORD PTR [esp+8]
  0000f	8d 42 0c	 lea	 eax, DWORD PTR [edx+12]
  00012	8b 4a ec	 mov	 ecx, DWORD PTR [edx-20]
  00015	33 c8		 xor	 ecx, eax
  00017	e8 00 00 00 00	 call	 @__security_check_cookie@4
  0001c	b8 00 00 00 00	 mov	 eax, OFFSET __ehfuncinfo$??0?$CEncrypt@H@@QAE@XZ
  00021	e9 00 00 00 00	 jmp	 ___CxxFrameHandler3
text$x	ENDS
??0?$CEncrypt@H@@QAE@XZ ENDP				; CEncrypt<int>::CEncrypt<int>
PUBLIC	??B?$CEncrypt@H@@QAEHXZ				; CEncrypt<int>::operator int
; Function compile flags: /Ogsp
;	COMDAT ??B?$CEncrypt@H@@QAEHXZ
_TEXT	SEGMENT
_value$ = -4						; size = 4
??B?$CEncrypt@H@@QAEHXZ PROC				; CEncrypt<int>::operator int, COMDAT
; _this$ = ecx

; 134  : 	{

  00000	55		 push	 ebp
  00001	8b ec		 mov	 ebp, esp
  00003	51		 push	 ecx

; 135  : 		type value;
; 136  : 		DecryptValueToPool(&value);

  00004	8d 45 fc	 lea	 eax, DWORD PTR _value$[ebp]
  00007	50		 push	 eax
  00008	e8 00 00 00 00	 call	 ?DecryptValueToPool@?$CEncrypt@H@@QAEXPAH@Z ; CEncrypt<int>::DecryptValueToPool

; 137  : 
; 138  : #ifdef _NOTUSE
; 139  : 		Debug();
; 140  : #endif
; 141  : 		return value;

  0000d	8b 45 fc	 mov	 eax, DWORD PTR _value$[ebp]

; 142  : 	}

  00010	c9		 leave
  00011	c3		 ret	 0
??B?$CEncrypt@H@@QAEHXZ ENDP				; CEncrypt<int>::operator int
_TEXT	ENDS
PUBLIC	??B?$CEncrypt@H@@QBEHXZ				; CEncrypt<int>::operator int
; Function compile flags: /Ogsp
;	COMDAT ??B?$CEncrypt@H@@QBEHXZ
_TEXT	SEGMENT
_value$ = -4						; size = 4
??B?$CEncrypt@H@@QBEHXZ PROC				; CEncrypt<int>::operator int, COMDAT
; _this$ = ecx

; 145  : 	{

  00000	55		 push	 ebp
  00001	8b ec		 mov	 ebp, esp
  00003	51		 push	 ecx

; 146  : 		//UJ 130829, const    --start
; 147  : 		type value;
; 148  : 		CEncrypt<type>* pThis = const_cast<CEncrypt<type>*>(this);
; 149  : 		pThis->DecryptValueToPool(&value);

  00004	8d 45 fc	 lea	 eax, DWORD PTR _value$[ebp]
  00007	50		 push	 eax
  00008	e8 00 00 00 00	 call	 ?DecryptValueToPool@?$CEncrypt@H@@QAEXPAH@Z ; CEncrypt<int>::DecryptValueToPool

; 150  : 		//// const DecryptValueToPool     .
; 151  :  		//type value;
; 152  : 		//char szTempMem[MAX_ENCRYPT];
; 153  : 		//m_RC5.DecryptByte( m_MemPool, szTempMem, max(m_ValueSize, DEFAULT_ENCRYPT) );
; 154  : 		//memcpy( &value, szTempMem, m_ValueSize );
; 155  : 		//UJ --end
; 156  : 
; 157  : #ifdef _NOTUSE
; 158  : 		Debug();
; 159  : #endif
; 160  : 		return value;

  0000d	8b 45 fc	 mov	 eax, DWORD PTR _value$[ebp]

; 161  : 	}

  00010	c9		 leave
  00011	c3		 ret	 0
??B?$CEncrypt@H@@QBEHXZ ENDP				; CEncrypt<int>::operator int
_TEXT	ENDS
PUBLIC	??4?$CEncrypt@H@@QAEHH@Z			; CEncrypt<int>::operator=
; Function compile flags: /Ogsp
;	COMDAT ??4?$CEncrypt@H@@QAEHH@Z
_TEXT	SEGMENT
_value$ = 8						; size = 4
_inValue$ = 8						; size = 4
??4?$CEncrypt@H@@QAEHH@Z PROC				; CEncrypt<int>::operator=, COMDAT
; _this$ = ecx

; 843  : 	{

  00000	55		 push	 ebp
  00001	8b ec		 mov	 ebp, esp

; 844  : 		type value = inValue;

  00003	8b 45 08	 mov	 eax, DWORD PTR _inValue$[ebp]
  00006	89 45 08	 mov	 DWORD PTR _value$[ebp], eax

; 845  : 		EncryptValueToPool((char*)&value);

  00009	8d 45 08	 lea	 eax, DWORD PTR _value$[ebp]
  0000c	50		 push	 eax
  0000d	e8 00 00 00 00	 call	 ?EncryptValueToPool@?$CEncrypt@H@@AAEXPBD@Z ; CEncrypt<int>::EncryptValueToPool

; 846  : #ifdef _NOTUSE
; 847  : 		m_value = inValue;
; 848  : 		Debug();
; 849  : #endif
; 850  : 		return value;

  00012	8b 45 08	 mov	 eax, DWORD PTR _value$[ebp]

; 851  : 	}

  00015	5d		 pop	 ebp
  00016	c2 04 00	 ret	 4
??4?$CEncrypt@H@@QAEHH@Z ENDP				; CEncrypt<int>::operator=
_TEXT	ENDS
PUBLIC	??0?$_Vector_val@UWeaponInfo@@V?$allocator@UWeaponInfo@@@std@@@std@@QAE@V?$allocator@UWeaponInfo@@@1@@Z ; std::_Vector_val<WeaponInfo,std::allocator<WeaponInfo> >::_Vector_val<WeaponInfo,std::allocator<WeaponInfo> >
; Function compile flags: /Ogsp
; File c:\program files (x86)\microsoft visual studio 10.0\vc\include\vector
;	COMDAT ??0?$_Vector_val@UWeaponInfo@@V?$allocator@UWeaponInfo@@@std@@@std@@QAE@V?$allocator@UWeaponInfo@@@1@@Z
_TEXT	SEGMENT
__Al$ = 8						; size = 1
??0?$_Vector_val@UWeaponInfo@@V?$allocator@UWeaponInfo@@@std@@@std@@QAE@V?$allocator@UWeaponInfo@@@1@@Z PROC ; std::_Vector_val<WeaponInfo,std::allocator<WeaponInfo> >::_Vector_val<WeaponInfo,std::allocator<WeaponInfo> >, COMDAT
; _this$ = ecx

; 426  : 		{	// construct allocator from _Al

  00000	8b c1		 mov	 eax, ecx

; 427  : 		_Myfirst = 0;

  00002	33 c9		 xor	 ecx, ecx
  00004	89 08		 mov	 DWORD PTR [eax], ecx

; 428  : 		_Mylast = 0;

  00006	89 48 04	 mov	 DWORD PTR [eax+4], ecx

; 429  : 		_Myend = 0;

  00009	89 48 08	 mov	 DWORD PTR [eax+8], ecx

; 430  : 		}

  0000c	c2 04 00	 ret	 4
??0?$_Vector_val@UWeaponInfo@@V?$allocator@UWeaponInfo@@@std@@@std@@QAE@V?$allocator@UWeaponInfo@@@1@@Z ENDP ; std::_Vector_val<WeaponInfo,std::allocator<WeaponInfo> >::_Vector_val<WeaponInfo,std::allocator<WeaponInfo> >
_TEXT	ENDS
PUBLIC	??0?$_Vector_val@UForceInfo@@V?$allocator@UForceInfo@@@std@@@std@@QAE@V?$allocator@UForceInfo@@@1@@Z ; std::_Vector_val<ForceInfo,std::allocator<ForceInfo> >::_Vector_val<ForceInfo,std::allocator<ForceInfo> >
; Function compile flags: /Ogsp
;	COMDAT ??0?$_Vector_val@UForceInfo@@V?$allocator@UForceInfo@@@std@@@std@@QAE@V?$allocator@UForceInfo@@@1@@Z
_TEXT	SEGMENT
__Al$ = 8						; size = 1
??0?$_Vector_val@UForceInfo@@V?$allocator@UForceInfo@@@std@@@std@@QAE@V?$allocator@UForceInfo@@@1@@Z PROC ; std::_Vector_val<ForceInfo,std::allocator<ForceInfo> >::_Vector_val<ForceInfo,std::allocator<ForceInfo> >, COMDAT
; _this$ = ecx

; 426  : 		{	// construct allocator from _Al

  00000	8b c1		 mov	 eax, ecx

; 427  : 		_Myfirst = 0;

  00002	33 c9		 xor	 ecx, ecx
  00004	89 08		 mov	 DWORD PTR [eax], ecx

; 428  : 		_Mylast = 0;

  00006	89 48 04	 mov	 DWORD PTR [eax+4], ecx

; 429  : 		_Myend = 0;

  00009	89 48 08	 mov	 DWORD PTR [eax+8], ecx

; 430  : 		}

  0000c	c2 04 00	 ret	 4
??0?$_Vector_val@UForceInfo@@V?$allocator@UForceInfo@@@std@@@std@@QAE@V?$allocator@UForceInfo@@@1@@Z ENDP ; std::_Vector_val<ForceInfo,std::allocator<ForceInfo> >::_Vector_val<ForceInfo,std::allocator<ForceInfo> >
_TEXT	ENDS
PUBLIC	?max_size@?$vector@UWeaponInfo@@V?$allocator@UWeaponInfo@@@std@@@std@@QBEIXZ ; std::vector<WeaponInfo,std::allocator<WeaponInfo> >::max_size
; Function compile flags: /Ogsp
;	COMDAT ?max_size@?$vector@UWeaponInfo@@V?$allocator@UWeaponInfo@@@std@@@std@@QBEIXZ
_TEXT	SEGMENT
?max_size@?$vector@UWeaponInfo@@V?$allocator@UWeaponInfo@@@std@@@std@@QBEIXZ PROC ; std::vector<WeaponInfo,std::allocator<WeaponInfo> >::max_size, COMDAT
; _this$ = ecx

; 884  : 		return (this->_Alval.max_size());

  00000	b8 66 66 66 06	 mov	 eax, 107374182		; 06666666H

; 885  : 		}

  00005	c3		 ret	 0
?max_size@?$vector@UWeaponInfo@@V?$allocator@UWeaponInfo@@@std@@@std@@QBEIXZ ENDP ; std::vector<WeaponInfo,std::allocator<WeaponInfo> >::max_size
_TEXT	ENDS
PUBLIC	?allocate@?$allocator@UWeaponInfo@@@std@@QAEPAUWeaponInfo@@I@Z ; std::allocator<WeaponInfo>::allocate
; Function compile flags: /Ogsp
; File c:\program files (x86)\microsoft visual studio 10.0\vc\include\xmemory
;	COMDAT ?allocate@?$allocator@UWeaponInfo@@@std@@QAEPAUWeaponInfo@@I@Z
_TEXT	SEGMENT
__Count$ = 8						; size = 4
?allocate@?$allocator@UWeaponInfo@@@std@@QAEPAUWeaponInfo@@I@Z PROC ; std::allocator<WeaponInfo>::allocate, COMDAT
; _this$ = ecx

; 186  : 		{	// allocate array of _Count elements

  00000	55		 push	 ebp
  00001	8b ec		 mov	 ebp, esp

; 187  : 		return (_Allocate(_Count, (pointer)0));

  00003	6a 00		 push	 0
  00005	ff 75 08	 push	 DWORD PTR __Count$[ebp]
  00008	e8 00 00 00 00	 call	 ??$_Allocate@UWeaponInfo@@@std@@YAPAUWeaponInfo@@IPAU1@@Z ; std::_Allocate<WeaponInfo>
  0000d	59		 pop	 ecx
  0000e	59		 pop	 ecx

; 188  : 		}

  0000f	5d		 pop	 ebp
  00010	c2 04 00	 ret	 4
?allocate@?$allocator@UWeaponInfo@@@std@@QAEPAUWeaponInfo@@I@Z ENDP ; std::allocator<WeaponInfo>::allocate
_TEXT	ENDS
PUBLIC	?max_size@?$vector@UForceInfo@@V?$allocator@UForceInfo@@@std@@@std@@QBEIXZ ; std::vector<ForceInfo,std::allocator<ForceInfo> >::max_size
; Function compile flags: /Ogsp
; File c:\program files (x86)\microsoft visual studio 10.0\vc\include\vector
;	COMDAT ?max_size@?$vector@UForceInfo@@V?$allocator@UForceInfo@@@std@@@std@@QBEIXZ
_TEXT	SEGMENT
?max_size@?$vector@UForceInfo@@V?$allocator@UForceInfo@@@std@@@std@@QBEIXZ PROC ; std::vector<ForceInfo,std::allocator<ForceInfo> >::max_size, COMDAT
; _this$ = ecx

; 884  : 		return (this->_Alval.max_size());

  00000	b8 55 55 55 15	 mov	 eax, 357913941		; 15555555H

; 885  : 		}

  00005	c3		 ret	 0
?max_size@?$vector@UForceInfo@@V?$allocator@UForceInfo@@@std@@@std@@QBEIXZ ENDP ; std::vector<ForceInfo,std::allocator<ForceInfo> >::max_size
_TEXT	ENDS
PUBLIC	?allocate@?$allocator@UForceInfo@@@std@@QAEPAUForceInfo@@I@Z ; std::allocator<ForceInfo>::allocate
; Function compile flags: /Ogsp
; File c:\program files (x86)\microsoft visual studio 10.0\vc\include\xmemory
;	COMDAT ?allocate@?$allocator@UForceInfo@@@std@@QAEPAUForceInfo@@I@Z
_TEXT	SEGMENT
__Count$ = 8						; size = 4
?allocate@?$allocator@UForceInfo@@@std@@QAEPAUForceInfo@@I@Z PROC ; std::allocator<ForceInfo>::allocate, COMDAT
; _this$ = ecx

; 186  : 		{	// allocate array of _Count elements

  00000	55		 push	 ebp
  00001	8b ec		 mov	 ebp, esp

; 187  : 		return (_Allocate(_Count, (pointer)0));

  00003	6a 00		 push	 0
  00005	ff 75 08	 push	 DWORD PTR __Count$[ebp]
  00008	e8 00 00 00 00	 call	 ??$_Allocate@UForceInfo@@@std@@YAPAUForceInfo@@IPAU1@@Z ; std::_Allocate<ForceInfo>
  0000d	59		 pop	 ecx
  0000e	59		 pop	 ecx

; 188  : 		}

  0000f	5d		 pop	 ebp
  00010	c2 04 00	 ret	 4
?allocate@?$allocator@UForceInfo@@@std@@QAEPAUForceInfo@@I@Z ENDP ; std::allocator<ForceInfo>::allocate
_TEXT	ENDS
PUBLIC	??8?$_Vector_const_iterator@V?$_Vector_val@UWeaponInfo@@V?$allocator@UWeaponInfo@@@std@@@std@@@std@@QBE_NABV01@@Z ; std::_Vector_const_iterator<std::_Vector_val<WeaponInfo,std::allocator<WeaponInfo> > >::operator==
; Function compile flags: /Ogsp
; File c:\program files (x86)\microsoft visual studio 10.0\vc\include\vector
;	COMDAT ??8?$_Vector_const_iterator@V?$_Vector_val@UWeaponInfo@@V?$allocator@UWeaponInfo@@@std@@@std@@@std@@QBE_NABV01@@Z
_TEXT	SEGMENT
__Right$ = 8						; size = 4
??8?$_Vector_const_iterator@V?$_Vector_val@UWeaponInfo@@V?$allocator@UWeaponInfo@@@std@@@std@@@std@@QBE_NABV01@@Z PROC ; std::_Vector_const_iterator<std::_Vector_val<WeaponInfo,std::allocator<WeaponInfo> > >::operator==, COMDAT
; _this$ = ecx

; 201  : 		{	// test for iterator equality

  00000	55		 push	 ebp
  00001	8b ec		 mov	 ebp, esp

; 202  : 		_Compat(_Right);
; 203  : 		return (this->_Ptr == _Right._Ptr);

  00003	8b 01		 mov	 eax, DWORD PTR [ecx]
  00005	8b 4d 08	 mov	 ecx, DWORD PTR __Right$[ebp]
  00008	2b 01		 sub	 eax, DWORD PTR [ecx]
  0000a	f7 d8		 neg	 eax
  0000c	1b c0		 sbb	 eax, eax
  0000e	40		 inc	 eax

; 204  : 		}

  0000f	5d		 pop	 ebp
  00010	c2 04 00	 ret	 4
??8?$_Vector_const_iterator@V?$_Vector_val@UWeaponInfo@@V?$allocator@UWeaponInfo@@@std@@@std@@@std@@QBE_NABV01@@Z ENDP ; std::_Vector_const_iterator<std::_Vector_val<WeaponInfo,std::allocator<WeaponInfo> > >::operator==
_TEXT	ENDS
PUBLIC	??8?$_Vector_const_iterator@V?$_Vector_val@UForceInfo@@V?$allocator@UForceInfo@@@std@@@std@@@std@@QBE_NABV01@@Z ; std::_Vector_const_iterator<std::_Vector_val<ForceInfo,std::allocator<ForceInfo> > >::operator==
; Function compile flags: /Ogsp
;	COMDAT ??8?$_Vector_const_iterator@V?$_Vector_val@UForceInfo@@V?$allocator@UForceInfo@@@std@@@std@@@std@@QBE_NABV01@@Z
_TEXT	SEGMENT
__Right$ = 8						; size = 4
??8?$_Vector_const_iterator@V?$_Vector_val@UForceInfo@@V?$allocator@UForceInfo@@@std@@@std@@@std@@QBE_NABV01@@Z PROC ; std::_Vector_const_iterator<std::_Vector_val<ForceInfo,std::allocator<ForceInfo> > >::operator==, COMDAT
; _this$ = ecx

; 201  : 		{	// test for iterator equality

  00000	55		 push	 ebp
  00001	8b ec		 mov	 ebp, esp

; 202  : 		_Compat(_Right);
; 203  : 		return (this->_Ptr == _Right._Ptr);

  00003	8b 01		 mov	 eax, DWORD PTR [ecx]
  00005	8b 4d 08	 mov	 ecx, DWORD PTR __Right$[ebp]
  00008	2b 01		 sub	 eax, DWORD PTR [ecx]
  0000a	f7 d8		 neg	 eax
  0000c	1b c0		 sbb	 eax, eax
  0000e	40		 inc	 eax

; 204  : 		}

  0000f	5d		 pop	 ebp
  00010	c2 04 00	 ret	 4
??8?$_Vector_const_iterator@V?$_Vector_val@UForceInfo@@V?$allocator@UForceInfo@@@std@@@std@@@std@@QBE_NABV01@@Z ENDP ; std::_Vector_const_iterator<std::_Vector_val<ForceInfo,std::allocator<ForceInfo> > >::operator==
_TEXT	ENDS
PUBLIC	?destroy@?$allocator@UForceInfo@@@std@@QAEXPAUForceInfo@@@Z ; std::allocator<ForceInfo>::destroy
; Function compile flags: /Ogsp
; File c:\program files (x86)\microsoft visual studio 10.0\vc\include\xmemory
;	COMDAT ?destroy@?$allocator@UForceInfo@@@std@@QAEXPAUForceInfo@@@Z
_TEXT	SEGMENT
__Ptr$ = 8						; size = 4
?destroy@?$allocator@UForceInfo@@@std@@QAEXPAUForceInfo@@@Z PROC ; std::allocator<ForceInfo>::destroy, COMDAT
; _this$ = ecx

; 213  : 		_Destroy(_Ptr);
; 214  : 		}

  00000	c2 04 00	 ret	 4
?destroy@?$allocator@UForceInfo@@@std@@QAEXPAUForceInfo@@@Z ENDP ; std::allocator<ForceInfo>::destroy
_TEXT	ENDS
PUBLIC	??$_Destroy@UWeaponInfo@@@std@@YAXPAUWeaponInfo@@@Z ; std::_Destroy<WeaponInfo>
; Function compile flags: /Ogsp
;	COMDAT ??$_Destroy@UWeaponInfo@@@std@@YAXPAUWeaponInfo@@@Z
_TEXT	SEGMENT
__Ptr$ = 8						; size = 4
??$_Destroy@UWeaponInfo@@@std@@YAXPAUWeaponInfo@@@Z PROC ; std::_Destroy<WeaponInfo>, COMDAT

; 62   : 	{	// destroy object at _Ptr

  00000	55		 push	 ebp
  00001	8b ec		 mov	 ebp, esp

; 63   : 	_Ptr->~_Ty();

  00003	8b 4d 08	 mov	 ecx, DWORD PTR __Ptr$[ebp]
  00006	83 c1 08	 add	 ecx, 8

; 64   : 	}

  00009	5d		 pop	 ebp

; 63   : 	_Ptr->~_Ty();

  0000a	ff 25 00 00 00
	00		 jmp	 DWORD PTR __imp_??1ioHashString@@QAE@XZ
??$_Destroy@UWeaponInfo@@@std@@YAXPAUWeaponInfo@@@Z ENDP ; std::_Destroy<WeaponInfo>
_TEXT	ENDS
PUBLIC	?SetGravityAmt@ioBaseChar@@QAEXM@Z		; ioBaseChar::SetGravityAmt
; Function compile flags: /Ogsp
; File d:\lost saga for developer\youtube\tutorial\source\src\lsclient\iobasechar.h
;	COMDAT ?SetGravityAmt@ioBaseChar@@QAEXM@Z
_TEXT	SEGMENT
_value$554413 = 8					; size = 4
_fAmt$ = 8						; size = 4
?SetGravityAmt@ioBaseChar@@QAEXM@Z PROC			; ioBaseChar::SetGravityAmt, COMDAT
; _this$ = ecx

; 2631 : 	inline void SetGravityAmt( float fAmt ) { m_fGravityAmt = fAmt; }

  00000	55		 push	 ebp
  00001	8b ec		 mov	 ebp, esp
  00003	f3 0f 10 45 08	 movss	 xmm0, DWORD PTR _fAmt$[ebp]
  00008	8d 45 08	 lea	 eax, DWORD PTR _value$554413[ebp]
  0000b	50		 push	 eax
  0000c	81 c1 e8 0b 00
	00		 add	 ecx, 3048		; 00000be8H
  00012	f3 0f 11 45 08	 movss	 DWORD PTR _value$554413[ebp], xmm0
  00017	e8 00 00 00 00	 call	 ?EncryptValueToPool@?$CEncrypt@M@@AAEXPBD@Z ; CEncrypt<float>::EncryptValueToPool
  0001c	5d		 pop	 ebp
  0001d	c2 04 00	 ret	 4
?SetGravityAmt@ioBaseChar@@QAEXM@Z ENDP			; ioBaseChar::SetGravityAmt
_TEXT	ENDS
PUBLIC	??_C@_00CNPNBAHC@?$AA@				; `string'
PUBLIC	_rkLoader$GSCopy$
PUBLIC	__$ArrayPad$
PUBLIC	?LoadProperty@ioChargingFireSkill4@@UAEXAAVioINILoader@@@Z ; ioChargingFireSkill4::LoadProperty
EXTRN	?Init@AttackAttribute@@QAEXXZ:PROC		; AttackAttribute::Init
EXTRN	__imp_??4ioHashString@@QAEAAV0@PBD@Z:PROC
EXTRN	?LoadProperty@ioNormalSkill@@UAEXAAVioINILoader@@@Z:PROC ; ioNormalSkill::LoadProperty
;	COMDAT ??_C@_00CNPNBAHC@?$AA@
; File d:\lost saga for developer\youtube\tutorial\source\src\lsclient\stringprotect.h
CONST	SEGMENT
??_C@_00CNPNBAHC@?$AA@ DB 00H				; `string'
; Function compile flags: /Ogsp
; File d:\lost saga for developer\youtube\tutorial\source\src\lsclient\iochargingfireskill4.cpp
CONST	ENDS
;	COMDAT ?LoadProperty@ioChargingFireSkill4@@UAEXAAVioINILoader@@@Z
_TEXT	SEGMENT
_value$555802 = -816					; size = 4
_value$556323 = -812					; size = 4
_value$555932 = -808					; size = 4
_value$556193 = -804					; size = 4
_value$556063 = -800					; size = 4
tv20331 = -796						; size = 4
tv20313 = -796						; size = 4
tv20256 = -796						; size = 4
tv20252 = -796						; size = 4
tv20248 = -796						; size = 4
_i$555064 = -796					; size = 4
_rkLoader$GSCopy$ = -792				; size = 4
_szBuf$ = -788						; size = 260
__k$555436 = -528					; size = 25
__k$555565 = -496					; size = 30
__k$555950 = -460					; size = 21
__k$557111 = -432					; size = 21
__k$555820 = -404					; size = 21
__k$556093 = -376					; size = 17
__k$555074 = -352					; size = 23
__k$554807 = -324					; size = 22
__k$555246 = -296					; size = 20
__k$556340 = -272					; size = 13
__k$554432 = -252					; size = 13
__k$556590 = -232					; size = 13
__k$556295 = -212					; size = 13
__k$554682 = -192					; size = 18
__k$554932 = -168					; size = 18
__k$556718 = -144					; size = 18
__k$556840 = -120					; size = 16
_szEncAttack$555311 = -100				; size = 16
__k$556973 = -80					; size = 16
__k$555690 = -60					; size = 16
__k$556465 = -40					; size = 14
__k$554557 = -20					; size = 11
__$ArrayPad$ = -4					; size = 4
_rkLoader$ = 8						; size = 4
?LoadProperty@ioChargingFireSkill4@@UAEXAAVioINILoader@@@Z PROC ; ioChargingFireSkill4::LoadProperty, COMDAT
; _this$ = ecx

; 90   : {

  00000	55		 push	 ebp
  00001	8b ec		 mov	 ebp, esp
  00003	81 ec 30 03 00
	00		 sub	 esp, 816		; 00000330H
  00009	a1 00 00 00 00	 mov	 eax, DWORD PTR ___security_cookie
  0000e	33 c5		 xor	 eax, ebp
  00010	89 45 fc	 mov	 DWORD PTR __$ArrayPad$[ebp], eax
  00013	8b 45 08	 mov	 eax, DWORD PTR _rkLoader$[ebp]
  00016	56		 push	 esi

; 91   : 	ioNormalSkill::LoadProperty( rkLoader );

  00017	50		 push	 eax
  00018	8b f1		 mov	 esi, ecx

; 138  : 	rkLoader.LoadString_e( "zero_aimed_marker", "", szBuf, MAX_PATH );

  0001a	89 85 e8 fc ff
	ff		 mov	 DWORD PTR _rkLoader$GSCopy$[ebp], eax
  00020	e8 00 00 00 00	 call	 ?LoadProperty@ioNormalSkill@@UAEXAAVioINILoader@@@Z ; ioNormalSkill::LoadProperty
  00025	6a 03		 push	 3
  00027	c7 85 04 ff ff
	ff 9e 98 8a 98	 mov	 DWORD PTR __k$554432[ebp], -1735747426 ; 988a989eH
  00031	c7 85 08 ff ff
	ff 99 b3 8e 8c	 mov	 DWORD PTR __k$554432[ebp+4], -1936804967 ; 8c8eb399H
  0003b	c7 85 0c ff ff
	ff 8b 89 88 9e	 mov	 DWORD PTR __k$554432[ebp+8], -1635219061 ; 9e88898bH
  00045	8d 85 04 ff ff
	ff		 lea	 eax, DWORD PTR __k$554432[ebp]
  0004b	c6 85 10 ff ff
	ff 00		 mov	 BYTE PTR __k$554432[ebp+12], 0
  00052	59		 pop	 ecx
$LL106@LoadProper:

; 92   : 
; 93   : 	char szBuf[MAX_PATH];
; 94   : 
; 95   : 	rkLoader.LoadString_e( "start_effect", "", szBuf, MAX_PATH );

  00053	81 30 ed ec eb
	ea		 xor	 DWORD PTR [eax], -353637139 ; eaebecedH
  00059	83 c0 04	 add	 eax, 4
  0005c	49		 dec	 ecx
  0005d	75 f4		 jne	 SHORT $LL106@LoadProper
  0005f	8b 8d e8 fc ff
	ff		 mov	 ecx, DWORD PTR _rkLoader$GSCopy$[ebp]
  00065	53		 push	 ebx
  00066	57		 push	 edi
  00067	8b 3d 00 00 00
	00		 mov	 edi, DWORD PTR __imp_?LoadStringA@ioINILoader@@QAEXPBD0PADH@Z
  0006d	68 04 01 00 00	 push	 260			; 00000104H
  00072	8d 85 ec fc ff
	ff		 lea	 eax, DWORD PTR _szBuf$[ebp]
  00078	50		 push	 eax
  00079	68 00 00 00 00	 push	 OFFSET ??_C@_00CNPNBAHC@?$AA@
  0007e	8d 85 04 ff ff
	ff		 lea	 eax, DWORD PTR __k$554432[ebp]
  00084	50		 push	 eax
  00085	ff d7		 call	 edi

; 96   : 	m_StartEffect = szBuf;

  00087	8b 1d 00 00 00
	00		 mov	 ebx, DWORD PTR __imp_??4ioHashString@@QAEAAV0@PBD@Z
  0008d	8d 85 ec fc ff
	ff		 lea	 eax, DWORD PTR _szBuf$[ebp]
  00093	50		 push	 eax
  00094	8d 8e c8 11 00
	00		 lea	 ecx, DWORD PTR [esi+4552]
  0009a	ff d3		 call	 ebx
  0009c	6a 02		 push	 2

; 97   : 	rkLoader.LoadString_e( "end_effect", "", szBuf, MAX_PATH );

  0009e	c7 45 ec 88 82
	8f b5		 mov	 DWORD PTR __k$554557[ebp], -1248886136 ; b58f8288H
  000a5	c7 45 f0 88 8a
	8d 8f		 mov	 DWORD PTR __k$554557[ebp+4], -1886549368 ; 8f8d8a88H
  000ac	66 c7 45 f4 8e
	98		 mov	 WORD PTR __k$554557[ebp+8], 39054 ; 0000988eH
  000b2	8d 45 ec	 lea	 eax, DWORD PTR __k$554557[ebp]
  000b5	c6 45 f6 00	 mov	 BYTE PTR __k$554557[ebp+10], 0
  000b9	59		 pop	 ecx
$LL212@LoadProper:
  000ba	81 30 ed ec eb
	ea		 xor	 DWORD PTR [eax], -353637139 ; eaebecedH
  000c0	83 c0 04	 add	 eax, 4
  000c3	49		 dec	 ecx
  000c4	75 f4		 jne	 SHORT $LL212@LoadProper
  000c6	6a 08		 push	 8
  000c8	58		 pop	 eax
$LL209@LoadProper:
  000c9	8b c8		 mov	 ecx, eax
  000cb	81 e1 03 00 00
	80		 and	 ecx, -2147483645	; 80000003H
  000d1	79 05		 jns	 SHORT $LN2441@LoadProper
  000d3	49		 dec	 ecx
  000d4	83 c9 fc	 or	 ecx, -4			; fffffffcH
  000d7	41		 inc	 ecx
$LN2441@LoadProper:
  000d8	b2 ed		 mov	 dl, -19			; ffffffedH
  000da	2a d1		 sub	 dl, cl
  000dc	30 54 05 ec	 xor	 BYTE PTR __k$554557[ebp+eax], dl
  000e0	40		 inc	 eax
  000e1	83 f8 0a	 cmp	 eax, 10			; 0000000aH
  000e4	7c e3		 jl	 SHORT $LL209@LoadProper
  000e6	8b 8d e8 fc ff
	ff		 mov	 ecx, DWORD PTR _rkLoader$GSCopy$[ebp]
  000ec	68 04 01 00 00	 push	 260			; 00000104H
  000f1	8d 85 ec fc ff
	ff		 lea	 eax, DWORD PTR _szBuf$[ebp]
  000f7	50		 push	 eax
  000f8	68 00 00 00 00	 push	 OFFSET ??_C@_00CNPNBAHC@?$AA@
  000fd	8d 45 ec	 lea	 eax, DWORD PTR __k$554557[ebp]
  00100	50		 push	 eax
  00101	ff d7		 call	 edi

; 98   : 	m_EndEffect = szBuf;

  00103	8d 85 ec fc ff
	ff		 lea	 eax, DWORD PTR _szBuf$[ebp]
  00109	50		 push	 eax
  0010a	8d 8e d8 11 00
	00		 lea	 ecx, DWORD PTR [esi+4568]
  00110	ff d3		 call	 ebx
  00112	6a 04		 push	 4

; 99   : 
; 100  : 	m_dwMaxChargingTime = rkLoader.LoadInt_e( "charging_max_time", 0 );

  00114	c7 85 40 ff ff
	ff 8e 84 8a 98	 mov	 DWORD PTR __k$554682[ebp], -1735752562 ; 988a848eH
  0011e	c7 85 44 ff ff
	ff 8a 85 85 8d	 mov	 DWORD PTR __k$554682[ebp+4], -1920629366 ; 8d85858aH
  00128	c7 85 48 ff ff
	ff b2 81 8a 92	 mov	 DWORD PTR __k$554682[ebp+8], -1836416590 ; 928a81b2H
  00132	c7 85 4c ff ff
	ff b2 98 82 87	 mov	 DWORD PTR __k$554682[ebp+12], -2021484366 ; 878298b2H
  0013c	8d 85 40 ff ff
	ff		 lea	 eax, DWORD PTR __k$554682[ebp]
  00142	66 c7 85 50 ff
	ff ff 88 00	 mov	 WORD PTR __k$554682[ebp+16], 136 ; 00000088H
  0014b	59		 pop	 ecx
$LL318@LoadProper:
  0014c	81 30 ed ec eb
	ea		 xor	 DWORD PTR [eax], -353637139 ; eaebecedH
  00152	83 c0 04	 add	 eax, 4
  00155	49		 dec	 ecx
  00156	75 f4		 jne	 SHORT $LL318@LoadProper
  00158	80 b5 50 ff ff
	ff ed		 xor	 BYTE PTR __k$554682[ebp+16], -19 ; ffffffedH
  0015f	51		 push	 ecx
  00160	8b 8d e8 fc ff
	ff		 mov	 ecx, DWORD PTR _rkLoader$GSCopy$[ebp]
  00166	8d 85 40 ff ff
	ff		 lea	 eax, DWORD PTR __k$554682[ebp]
  0016c	50		 push	 eax
  0016d	ff 15 00 00 00
	00		 call	 DWORD PTR __imp_?LoadInt@ioINILoader@@QAEHPBDH@Z
  00173	89 86 f0 0f 00
	00		 mov	 DWORD PTR [esi+4080], eax
  00179	6a 05		 push	 5

; 101  : 
; 102  : 	rkLoader.LoadString_e( "skill_charging_effect", "", szBuf, MAX_PATH );

  0017b	c7 85 bc fe ff
	ff 9e 87 82 86	 mov	 DWORD PTR __k$554807[ebp], -2038265954 ; 8682879eH
  00185	c7 85 c0 fe ff
	ff 81 b3 88 82	 mov	 DWORD PTR __k$554807[ebp+4], -2104970367 ; 8288b381H
  0018f	c7 85 c4 fe ff
	ff 8c 9e 8c 83	 mov	 DWORD PTR __k$554807[ebp+8], -2087936372 ; 838c9e8cH
  00199	c7 85 c8 fe ff
	ff 83 8b b4 8f	 mov	 DWORD PTR __k$554807[ebp+12], -1883993213 ; 8fb48b83H
  001a3	c7 85 cc fe ff
	ff 8b 8a 8e 89	 mov	 DWORD PTR __k$554807[ebp+16], -1987147125 ; 898e8a8bH
  001ad	8d 85 bc fe ff
	ff		 lea	 eax, DWORD PTR __k$554807[ebp]
  001b3	66 c7 85 d0 fe
	ff ff 99 00	 mov	 WORD PTR __k$554807[ebp+20], 153 ; 00000099H
  001bc	59		 pop	 ecx
$LL424@LoadProper:
  001bd	81 30 ed ec eb
	ea		 xor	 DWORD PTR [eax], -353637139 ; eaebecedH
  001c3	83 c0 04	 add	 eax, 4
  001c6	49		 dec	 ecx
  001c7	75 f4		 jne	 SHORT $LL424@LoadProper
  001c9	8b 8d e8 fc ff
	ff		 mov	 ecx, DWORD PTR _rkLoader$GSCopy$[ebp]
  001cf	80 b5 d0 fe ff
	ff ed		 xor	 BYTE PTR __k$554807[ebp+20], -19 ; ffffffedH
  001d6	68 04 01 00 00	 push	 260			; 00000104H
  001db	8d 85 ec fc ff
	ff		 lea	 eax, DWORD PTR _szBuf$[ebp]
  001e1	50		 push	 eax
  001e2	68 00 00 00 00	 push	 OFFSET ??_C@_00CNPNBAHC@?$AA@
  001e7	8d 85 bc fe ff
	ff		 lea	 eax, DWORD PTR __k$554807[ebp]
  001ed	50		 push	 eax
  001ee	ff d7		 call	 edi

; 103  : 	m_SkillChargingEffect = szBuf;

  001f0	8d 85 ec fc ff
	ff		 lea	 eax, DWORD PTR _szBuf$[ebp]
  001f6	50		 push	 eax
  001f7	8d 8e b4 11 00
	00		 lea	 ecx, DWORD PTR [esi+4532]
  001fd	ff d3		 call	 ebx
  001ff	6a 04		 push	 4

; 104  : 
; 105  : 	rkLoader.LoadString_e( "skill_loop_motion", "", szBuf, MAX_PATH );

  00201	c7 85 58 ff ff
	ff 9e 87 82 86	 mov	 DWORD PTR __k$554932[ebp], -2038265954 ; 8682879eH
  0020b	c7 85 5c ff ff
	ff 81 b3 87 85	 mov	 DWORD PTR __k$554932[ebp+4], -2054704255 ; 8587b381H
  00215	c7 85 60 ff ff
	ff 82 9c b4 87	 mov	 DWORD PTR __k$554932[ebp+8], -2018206590 ; 87b49c82H
  0021f	c7 85 64 ff ff
	ff 82 98 82 85	 mov	 DWORD PTR __k$554932[ebp+12], -2055038846 ; 85829882H
  00229	8d 85 58 ff ff
	ff		 lea	 eax, DWORD PTR __k$554932[ebp]
  0022f	66 c7 85 68 ff
	ff ff 83 00	 mov	 WORD PTR __k$554932[ebp+16], 131 ; 00000083H
  00238	59		 pop	 ecx
$LL530@LoadProper:
  00239	81 30 ed ec eb
	ea		 xor	 DWORD PTR [eax], -353637139 ; eaebecedH
  0023f	83 c0 04	 add	 eax, 4
  00242	49		 dec	 ecx
  00243	75 f4		 jne	 SHORT $LL530@LoadProper
  00245	8b 8d e8 fc ff
	ff		 mov	 ecx, DWORD PTR _rkLoader$GSCopy$[ebp]
  0024b	80 b5 68 ff ff
	ff ed		 xor	 BYTE PTR __k$554932[ebp+16], -19 ; ffffffedH
  00252	68 04 01 00 00	 push	 260			; 00000104H
  00257	8d 85 ec fc ff
	ff		 lea	 eax, DWORD PTR _szBuf$[ebp]
  0025d	50		 push	 eax
  0025e	68 00 00 00 00	 push	 OFFSET ??_C@_00CNPNBAHC@?$AA@
  00263	8d 85 58 ff ff
	ff		 lea	 eax, DWORD PTR __k$554932[ebp]
  00269	50		 push	 eax
  0026a	ff d7		 call	 edi

; 106  : 	m_SkillLoopMotion = szBuf;

  0026c	8d 85 ec fc ff
	ff		 lea	 eax, DWORD PTR _szBuf$[ebp]
  00272	50		 push	 eax
  00273	8d 8e dc 0f 00
	00		 lea	 ecx, DWORD PTR [esi+4060]
  00279	ff d3		 call	 ebx

; 107  : 
; 108  : 	m_fSkillLoopMotionRate = rkLoader.LoadFloat_e( "skill_loop_motion_rate", FLOAT1 );

  0027b	b8 01 00 00 00	 mov	 eax, 1
  00280	6a 05		 push	 5
  00282	c7 85 a0 fe ff
	ff 9e 87 82 86	 mov	 DWORD PTR __k$555074[ebp], -2038265954 ; 8682879eH
  0028c	c7 85 a4 fe ff
	ff 81 b3 87 85	 mov	 DWORD PTR __k$555074[ebp+4], -2054704255 ; 8587b381H
  00296	c7 85 a8 fe ff
	ff 82 9c b4 87	 mov	 DWORD PTR __k$555074[ebp+8], -2018206590 ; 87b49c82H
  002a0	c7 85 ac fe ff
	ff 82 98 82 85	 mov	 DWORD PTR __k$555074[ebp+12], -2055038846 ; 85829882H
  002aa	c7 85 b0 fe ff
	ff 83 b3 99 8b	 mov	 DWORD PTR __k$555074[ebp+16], -1952861309 ; 8b99b383H
  002b4	66 c7 85 b4 fe
	ff ff 99 89	 mov	 WORD PTR __k$555074[ebp+20], 35225 ; 00008999H
  002bd	8d 8d a0 fe ff
	ff		 lea	 ecx, DWORD PTR __k$555074[ebp]
  002c3	c6 85 b6 fe ff
	ff 00		 mov	 BYTE PTR __k$555074[ebp+22], 0
  002ca	5a		 pop	 edx
$LL638@LoadProper:
  002cb	81 31 ed ec eb
	ea		 xor	 DWORD PTR [ecx], -353637139 ; eaebecedH
  002d1	83 c1 04	 add	 ecx, 4
  002d4	4a		 dec	 edx
  002d5	75 f4		 jne	 SHORT $LL638@LoadProper
  002d7	c7 85 e4 fc ff
	ff 14 00 00 00	 mov	 DWORD PTR _i$555064[ebp], 20 ; 00000014H
$LL635@LoadProper:
  002e1	8b 8d e4 fc ff
	ff		 mov	 ecx, DWORD PTR _i$555064[ebp]
  002e7	81 e1 03 00 00
	80		 and	 ecx, -2147483645	; 80000003H
  002ed	79 05		 jns	 SHORT $LN2442@LoadProper
  002ef	49		 dec	 ecx
  002f0	83 c9 fc	 or	 ecx, -4			; fffffffcH
  002f3	41		 inc	 ecx
$LN2442@LoadProper:
  002f4	b2 ed		 mov	 dl, -19			; ffffffedH
  002f6	2a d1		 sub	 dl, cl
  002f8	8b 8d e4 fc ff
	ff		 mov	 ecx, DWORD PTR _i$555064[ebp]
  002fe	30 94 0d a0 fe
	ff ff		 xor	 BYTE PTR __k$555074[ebp+ecx], dl
  00305	ff 85 e4 fc ff
	ff		 inc	 DWORD PTR _i$555064[ebp]
  0030b	83 bd e4 fc ff
	ff 16		 cmp	 DWORD PTR _i$555064[ebp], 22 ; 00000016H
  00312	7c cd		 jl	 SHORT $LL635@LoadProper
  00314	89 85 e4 fc ff
	ff		 mov	 DWORD PTR tv20331[ebp], eax
  0031a	db 85 e4 fc ff
	ff		 fild	 DWORD PTR tv20331[ebp]
  00320	85 c0		 test	 eax, eax
  00322	79 06		 jns	 SHORT $LN2443@LoadProper
  00324	d8 05 00 00 00
	00		 fadd	 DWORD PTR __real@4f800000
$LN2443@LoadProper:
  0032a	51		 push	 ecx
  0032b	8b 8d e8 fc ff
	ff		 mov	 ecx, DWORD PTR _rkLoader$GSCopy$[ebp]
  00331	d9 1c 24	 fstp	 DWORD PTR [esp]
  00334	8d 85 a0 fe ff
	ff		 lea	 eax, DWORD PTR __k$555074[ebp]
  0033a	50		 push	 eax
  0033b	ff 15 00 00 00
	00		 call	 DWORD PTR __imp_?LoadFloat@ioINILoader@@QAEMPBDM@Z
  00341	d9 9e ec 0f 00
	00		 fstp	 DWORD PTR [esi+4076]
  00347	6a 04		 push	 4

; 109  : 
; 110  : 	m_dwLoopDuration = rkLoader.LoadInt_e( "skill_loop_duration", 0 );

  00349	c7 85 d8 fe ff
	ff 9e 87 82 86	 mov	 DWORD PTR __k$555246[ebp], -2038265954 ; 8682879eH
  00353	c7 85 dc fe ff
	ff 81 b3 87 85	 mov	 DWORD PTR __k$555246[ebp+4], -2054704255 ; 8587b381H
  0035d	c7 85 e0 fe ff
	ff 82 9c b4 8e	 mov	 DWORD PTR __k$555246[ebp+8], -1900766078 ; 8eb49c82H
  00367	c7 85 e4 fe ff
	ff 98 9e 8a 9e	 mov	 DWORD PTR __k$555246[ebp+12], -1635082600 ; 9e8a9e98H
  00371	8d 85 d8 fe ff
	ff		 lea	 eax, DWORD PTR __k$555246[ebp]
  00377	c7 85 e8 fe ff
	ff 84 83 85 00	 mov	 DWORD PTR __k$555246[ebp+16], 8749956 ; 00858384H
  00381	59		 pop	 ecx
$LL744@LoadProper:
  00382	81 30 ed ec eb
	ea		 xor	 DWORD PTR [eax], -353637139 ; eaebecedH
  00388	83 c0 04	 add	 eax, 4
  0038b	49		 dec	 ecx
  0038c	75 f4		 jne	 SHORT $LL744@LoadProper
  0038e	6a 10		 push	 16			; 00000010H
  00390	58		 pop	 eax
$LL741@LoadProper:
  00391	8b c8		 mov	 ecx, eax
  00393	81 e1 03 00 00
	80		 and	 ecx, -2147483645	; 80000003H
  00399	79 05		 jns	 SHORT $LN2444@LoadProper
  0039b	49		 dec	 ecx
  0039c	83 c9 fc	 or	 ecx, -4			; fffffffcH
  0039f	41		 inc	 ecx
$LN2444@LoadProper:
  003a0	b2 ed		 mov	 dl, -19			; ffffffedH
  003a2	2a d1		 sub	 dl, cl
  003a4	30 94 05 d8 fe
	ff ff		 xor	 BYTE PTR __k$555246[ebp+eax], dl
  003ab	40		 inc	 eax
  003ac	83 f8 13	 cmp	 eax, 19			; 00000013H
  003af	7c e0		 jl	 SHORT $LL741@LoadProper
  003b1	8b 8d e8 fc ff
	ff		 mov	 ecx, DWORD PTR _rkLoader$GSCopy$[ebp]
  003b7	6a 00		 push	 0
  003b9	8d 85 d8 fe ff
	ff		 lea	 eax, DWORD PTR __k$555246[ebp]
  003bf	50		 push	 eax
  003c0	ff 15 00 00 00
	00		 call	 DWORD PTR __imp_?LoadInt@ioINILoader@@QAEHPBDH@Z

; 111  : 
; 112  : 	// Action Attack
; 113  : 	m_AttackAttribute.Init();

  003c6	8d 8e 8c 0f 00
	00		 lea	 ecx, DWORD PTR [esi+3980]
  003cc	89 86 b0 11 00
	00		 mov	 DWORD PTR [esi+4528], eax
  003d2	e8 00 00 00 00	 call	 ?Init@AttackAttribute@@QAEXXZ ; AttackAttribute::Init
  003d7	6a 03		 push	 3

; 114  : 	LoadAttackAttribute_e( "charging_attack", m_AttackAttribute, rkLoader );

  003d9	c7 45 9c 8e 84
	8a 98		 mov	 DWORD PTR _szEncAttack$555311[ebp], -1735752562 ; 988a848eH
  003e0	c7 45 a0 8a 85
	85 8d		 mov	 DWORD PTR _szEncAttack$555311[ebp+4], -1920629366 ; 8d85858aH
  003e7	c7 45 a4 b2 8d
	9f 9e		 mov	 DWORD PTR _szEncAttack$555311[ebp+8], -1633710670 ; 9e9f8db2H
  003ee	8d 45 9c	 lea	 eax, DWORD PTR _szEncAttack$555311[ebp]
  003f1	c7 45 a8 8c 8f
	80 00		 mov	 DWORD PTR _szEncAttack$555311[ebp+12], 8425356 ; 00808f8cH
  003f8	59		 pop	 ecx
$LL850@LoadProper:
  003f9	81 30 ed ec eb
	ea		 xor	 DWORD PTR [eax], -353637139 ; eaebecedH
  003ff	83 c0 04	 add	 eax, 4
  00402	49		 dec	 ecx
  00403	75 f4		 jne	 SHORT $LL850@LoadProper
  00405	6a 0c		 push	 12			; 0000000cH
  00407	58		 pop	 eax
$LL847@LoadProper:
  00408	8b c8		 mov	 ecx, eax
  0040a	81 e1 03 00 00
	80		 and	 ecx, -2147483645	; 80000003H
  00410	79 05		 jns	 SHORT $LN2445@LoadProper
  00412	49		 dec	 ecx
  00413	83 c9 fc	 or	 ecx, -4			; fffffffcH
  00416	41		 inc	 ecx
$LN2445@LoadProper:
  00417	b2 ed		 mov	 dl, -19			; ffffffedH
  00419	2a d1		 sub	 dl, cl
  0041b	30 54 05 9c	 xor	 BYTE PTR _szEncAttack$555311[ebp+eax], dl
  0041f	40		 inc	 eax
  00420	83 f8 0f	 cmp	 eax, 15			; 0000000fH
  00423	7c e3		 jl	 SHORT $LL847@LoadProper
  00425	ff b5 e8 fc ff
	ff		 push	 DWORD PTR _rkLoader$GSCopy$[ebp]
  0042b	8d 86 8c 0f 00
	00		 lea	 eax, DWORD PTR [esi+3980]
  00431	50		 push	 eax
  00432	8d 45 9c	 lea	 eax, DWORD PTR _szEncAttack$555311[ebp]
  00435	50		 push	 eax
  00436	e8 00 00 00 00	 call	 ?LoadAttackAttribute@@YAXPBDAAUAttackAttribute@@AAVioINILoader@@@Z ; LoadAttackAttribute
  0043b	83 c4 0c	 add	 esp, 12			; 0000000cH
  0043e	6a 06		 push	 6

; 115  : 
; 116  : 	// fail
; 117  : 	rkLoader.LoadString_e( "skill_charge_fail_motion", "", szBuf, MAX_PATH );

  00440	c7 85 f0 fd ff
	ff 9e 87 82 86	 mov	 DWORD PTR __k$555436[ebp], -2038265954 ; 8682879eH
  0044a	c7 85 f4 fd ff
	ff 81 b3 88 82	 mov	 DWORD PTR __k$555436[ebp+4], -2104970367 ; 8288b381H
  00454	c7 85 f8 fd ff
	ff 8c 9e 8c 8f	 mov	 DWORD PTR __k$555436[ebp+8], -1886609780 ; 8f8c9e8cH
  0045e	c7 85 fc fd ff
	ff b2 8a 8a 83	 mov	 DWORD PTR __k$555436[ebp+12], -2088072526 ; 838a8ab2H
  00468	c7 85 00 fe ff
	ff 81 b3 86 85	 mov	 DWORD PTR __k$555436[ebp+16], -2054769791 ; 8586b381H
  00472	c7 85 04 fe ff
	ff 99 85 84 84	 mov	 DWORD PTR __k$555436[ebp+20], -2071689831 ; 84848599H
  0047c	8d 85 f0 fd ff
	ff		 lea	 eax, DWORD PTR __k$555436[ebp]
  00482	c6 85 08 fe ff
	ff 00		 mov	 BYTE PTR __k$555436[ebp+24], 0
  00489	59		 pop	 ecx
$LL956@LoadProper:
  0048a	81 30 ed ec eb
	ea		 xor	 DWORD PTR [eax], -353637139 ; eaebecedH
  00490	83 c0 04	 add	 eax, 4
  00493	49		 dec	 ecx
  00494	75 f4		 jne	 SHORT $LL956@LoadProper
  00496	8b 8d e8 fc ff
	ff		 mov	 ecx, DWORD PTR _rkLoader$GSCopy$[ebp]
  0049c	68 04 01 00 00	 push	 260			; 00000104H
  004a1	8d 85 ec fc ff
	ff		 lea	 eax, DWORD PTR _szBuf$[ebp]
  004a7	50		 push	 eax
  004a8	68 00 00 00 00	 push	 OFFSET ??_C@_00CNPNBAHC@?$AA@
  004ad	8d 85 f0 fd ff
	ff		 lea	 eax, DWORD PTR __k$555436[ebp]
  004b3	50		 push	 eax
  004b4	ff d7		 call	 edi

; 118  : 	m_SkillFailMotion = szBuf;

  004b6	8d 85 ec fc ff
	ff		 lea	 eax, DWORD PTR _szBuf$[ebp]
  004bc	50		 push	 eax
  004bd	8d 8e fc 0f 00
	00		 lea	 ecx, DWORD PTR [esi+4092]
  004c3	ff d3		 call	 ebx

; 119  : 
; 120  : 	m_fSkillFailMotionRate = rkLoader.LoadFloat_e( "skill_charge_fail_motion_rate", FLOAT1 );

  004c5	b8 01 00 00 00	 mov	 eax, 1
  004ca	6a 07		 push	 7
  004cc	c7 85 10 fe ff
	ff 9e 87 82 86	 mov	 DWORD PTR __k$555565[ebp], -2038265954 ; 8682879eH
  004d6	c7 85 14 fe ff
	ff 81 b3 88 82	 mov	 DWORD PTR __k$555565[ebp+4], -2104970367 ; 8288b381H
  004e0	c7 85 18 fe ff
	ff 8c 9e 8c 8f	 mov	 DWORD PTR __k$555565[ebp+8], -1886609780 ; 8f8c9e8cH
  004ea	c7 85 1c fe ff
	ff b2 8a 8a 83	 mov	 DWORD PTR __k$555565[ebp+12], -2088072526 ; 838a8ab2H
  004f4	c7 85 20 fe ff
	ff 81 b3 86 85	 mov	 DWORD PTR __k$555565[ebp+16], -2054769791 ; 8586b381H
  004fe	c7 85 24 fe ff
	ff 99 85 84 84	 mov	 DWORD PTR __k$555565[ebp+20], -2071689831 ; 84848599H
  00508	c7 85 28 fe ff
	ff b2 9e 8a 9e	 mov	 DWORD PTR __k$555565[ebp+24], -1635082574 ; 9e8a9eb2H
  00512	8d 8d 10 fe ff
	ff		 lea	 ecx, DWORD PTR __k$555565[ebp]
  00518	66 c7 85 2c fe
	ff ff 88 00	 mov	 WORD PTR __k$555565[ebp+28], 136 ; 00000088H
  00521	5a		 pop	 edx
$LL1064@LoadProper:
  00522	81 31 ed ec eb
	ea		 xor	 DWORD PTR [ecx], -353637139 ; eaebecedH
  00528	83 c1 04	 add	 ecx, 4
  0052b	4a		 dec	 edx
  0052c	75 f4		 jne	 SHORT $LL1064@LoadProper
  0052e	80 b5 2c fe ff
	ff ed		 xor	 BYTE PTR __k$555565[ebp+28], -19 ; ffffffedH
  00535	89 85 e4 fc ff
	ff		 mov	 DWORD PTR tv20313[ebp], eax
  0053b	db 85 e4 fc ff
	ff		 fild	 DWORD PTR tv20313[ebp]
  00541	85 c0		 test	 eax, eax
  00543	79 06		 jns	 SHORT $LN2446@LoadProper
  00545	d8 05 00 00 00
	00		 fadd	 DWORD PTR __real@4f800000
$LN2446@LoadProper:
  0054b	51		 push	 ecx
  0054c	8b 8d e8 fc ff
	ff		 mov	 ecx, DWORD PTR _rkLoader$GSCopy$[ebp]
  00552	d9 1c 24	 fstp	 DWORD PTR [esp]
  00555	8d 85 10 fe ff
	ff		 lea	 eax, DWORD PTR __k$555565[ebp]
  0055b	50		 push	 eax
  0055c	ff 15 00 00 00
	00		 call	 DWORD PTR __imp_?LoadFloat@ioINILoader@@QAEMPBDM@Z
  00562	d9 9e 0c 10 00
	00		 fstp	 DWORD PTR [esi+4108]
  00568	6a 03		 push	 3

; 121  : 
; 122  : 	// aim, target
; 123  : 	m_dwAimTime = (DWORD)rkLoader.LoadInt_e( "target_aim_time", 0 );

  0056a	c7 45 c4 99 8d
	99 8d		 mov	 DWORD PTR __k$555690[ebp], -1919316583 ; 8d998d99H
  00571	c7 45 c8 88 98
	b4 8b		 mov	 DWORD PTR __k$555690[ebp+4], -1951098744 ; 8bb49888H
  00578	c7 45 cc 84 81
	b4 9e		 mov	 DWORD PTR __k$555690[ebp+8], -1632337532 ; 9eb48184H
  0057f	8d 45 c4	 lea	 eax, DWORD PTR __k$555690[ebp]
  00582	c7 45 d0 84 81
	8e 00		 mov	 DWORD PTR __k$555690[ebp+12], 9339268 ; 008e8184H
  00589	59		 pop	 ecx
$LL1170@LoadProper:
  0058a	81 30 ed ec eb
	ea		 xor	 DWORD PTR [eax], -353637139 ; eaebecedH
  00590	83 c0 04	 add	 eax, 4
  00593	49		 dec	 ecx
  00594	75 f4		 jne	 SHORT $LL1170@LoadProper
  00596	6a 0c		 push	 12			; 0000000cH
  00598	58		 pop	 eax
$LL1167@LoadProper:
  00599	8b c8		 mov	 ecx, eax
  0059b	81 e1 03 00 00
	80		 and	 ecx, -2147483645	; 80000003H
  005a1	79 05		 jns	 SHORT $LN2447@LoadProper
  005a3	49		 dec	 ecx
  005a4	83 c9 fc	 or	 ecx, -4			; fffffffcH
  005a7	41		 inc	 ecx
$LN2447@LoadProper:
  005a8	b2 ed		 mov	 dl, -19			; ffffffedH
  005aa	2a d1		 sub	 dl, cl
  005ac	30 54 05 c4	 xor	 BYTE PTR __k$555690[ebp+eax], dl
  005b0	40		 inc	 eax
  005b1	83 f8 0f	 cmp	 eax, 15			; 0000000fH
  005b4	7c e3		 jl	 SHORT $LL1167@LoadProper
  005b6	8b 8d e8 fc ff
	ff		 mov	 ecx, DWORD PTR _rkLoader$GSCopy$[ebp]
  005bc	6a 00		 push	 0
  005be	8d 45 c4	 lea	 eax, DWORD PTR __k$555690[ebp]
  005c1	50		 push	 eax
  005c2	ff 15 00 00 00
	00		 call	 DWORD PTR __imp_?LoadInt@ioINILoader@@QAEHPBDH@Z
  005c8	89 85 d0 fc ff
	ff		 mov	 DWORD PTR _value$555802[ebp], eax
  005ce	8d 85 d0 fc ff
	ff		 lea	 eax, DWORD PTR _value$555802[ebp]
  005d4	50		 push	 eax
  005d5	8d 8e 5c 10 00
	00		 lea	 ecx, DWORD PTR [esi+4188]
  005db	e8 00 00 00 00	 call	 ?EncryptValueToPool@?$CEncrypt@K@@AAEXPBD@Z ; CEncrypt<unsigned long>::EncryptValueToPool
  005e0	6a 05		 push	 5

; 124  : 
; 125  : 	m_fAimMinRange = rkLoader.LoadFloat_e( "target_aim_min_range", 0.0f );

  005e2	c7 85 6c fe ff
	ff 99 8d 99 8d	 mov	 DWORD PTR __k$555820[ebp], -1919316583 ; 8d998d99H
  005ec	c7 85 70 fe ff
	ff 88 98 b4 8b	 mov	 DWORD PTR __k$555820[ebp+4], -1951098744 ; 8bb49888H
  005f6	c7 85 74 fe ff
	ff 84 81 b4 87	 mov	 DWORD PTR __k$555820[ebp+8], -2018213500 ; 87b48184H
  00600	c7 85 78 fe ff
	ff 84 82 b4 98	 mov	 DWORD PTR __k$555820[ebp+12], -1733000572 ; 98b48284H
  0060a	c7 85 7c fe ff
	ff 8c 82 8c 8f	 mov	 DWORD PTR __k$555820[ebp+16], -1886616948 ; 8f8c828cH
  00614	8d 85 6c fe ff
	ff		 lea	 eax, DWORD PTR __k$555820[ebp]
  0061a	c6 85 80 fe ff
	ff 00		 mov	 BYTE PTR __k$555820[ebp+20], 0
  00621	59		 pop	 ecx
$LL1278@LoadProper:
  00622	81 30 ed ec eb
	ea		 xor	 DWORD PTR [eax], -353637139 ; eaebecedH
  00628	83 c0 04	 add	 eax, 4
  0062b	49		 dec	 ecx
  0062c	75 f4		 jne	 SHORT $LL1278@LoadProper
  0062e	0f 57 c0	 xorps	 xmm0, xmm0
  00631	51		 push	 ecx
  00632	8b 8d e8 fc ff
	ff		 mov	 ecx, DWORD PTR _rkLoader$GSCopy$[ebp]
  00638	8d 85 6c fe ff
	ff		 lea	 eax, DWORD PTR __k$555820[ebp]
  0063e	f3 0f 11 04 24	 movss	 DWORD PTR [esp], xmm0
  00643	50		 push	 eax
  00644	ff 15 00 00 00
	00		 call	 DWORD PTR __imp_?LoadFloat@ioINILoader@@QAEMPBDM@Z
  0064a	d9 9d d8 fc ff
	ff		 fstp	 DWORD PTR _value$555932[ebp]
  00650	8d 85 d8 fc ff
	ff		 lea	 eax, DWORD PTR _value$555932[ebp]
  00656	50		 push	 eax
  00657	8d 8e 8c 10 00
	00		 lea	 ecx, DWORD PTR [esi+4236]
  0065d	e8 00 00 00 00	 call	 ?EncryptValueToPool@?$CEncrypt@M@@AAEXPBD@Z ; CEncrypt<float>::EncryptValueToPool
  00662	6a 05		 push	 5

; 126  : 	m_fAimMaxRange = rkLoader.LoadFloat_e( "target_aim_max_range", 0.0f );

  00664	c7 85 34 fe ff
	ff 99 8d 99 8d	 mov	 DWORD PTR __k$555950[ebp], -1919316583 ; 8d998d99H
  0066e	c7 85 38 fe ff
	ff 88 98 b4 8b	 mov	 DWORD PTR __k$555950[ebp+4], -1951098744 ; 8bb49888H
  00678	c7 85 3c fe ff
	ff 84 81 b4 87	 mov	 DWORD PTR __k$555950[ebp+8], -2018213500 ; 87b48184H
  00682	c7 85 40 fe ff
	ff 8c 94 b4 98	 mov	 DWORD PTR __k$555950[ebp+12], -1732995956 ; 98b4948cH
  0068c	c7 85 44 fe ff
	ff 8c 82 8c 8f	 mov	 DWORD PTR __k$555950[ebp+16], -1886616948 ; 8f8c828cH
  00696	8d 85 34 fe ff
	ff		 lea	 eax, DWORD PTR __k$555950[ebp]
  0069c	c6 85 48 fe ff
	ff 00		 mov	 BYTE PTR __k$555950[ebp+20], 0
  006a3	59		 pop	 ecx
$LL1386@LoadProper:
  006a4	81 30 ed ec eb
	ea		 xor	 DWORD PTR [eax], -353637139 ; eaebecedH
  006aa	83 c0 04	 add	 eax, 4
  006ad	49		 dec	 ecx
  006ae	75 f4		 jne	 SHORT $LL1386@LoadProper
  006b0	0f 57 c0	 xorps	 xmm0, xmm0
  006b3	51		 push	 ecx
  006b4	8b 8d e8 fc ff
	ff		 mov	 ecx, DWORD PTR _rkLoader$GSCopy$[ebp]
  006ba	8d 85 34 fe ff
	ff		 lea	 eax, DWORD PTR __k$555950[ebp]
  006c0	f3 0f 11 04 24	 movss	 DWORD PTR [esp], xmm0
  006c5	50		 push	 eax
  006c6	ff 15 00 00 00
	00		 call	 DWORD PTR __imp_?LoadFloat@ioINILoader@@QAEMPBDM@Z
  006cc	d9 9d e0 fc ff
	ff		 fstp	 DWORD PTR _value$556063[ebp]
  006d2	8d 85 e0 fc ff
	ff		 lea	 eax, DWORD PTR _value$556063[ebp]
  006d8	50		 push	 eax
  006d9	8d 8e bc 10 00
	00		 lea	 ecx, DWORD PTR [esi+4284]
  006df	e8 00 00 00 00	 call	 ?EncryptValueToPool@?$CEncrypt@M@@AAEXPBD@Z ; CEncrypt<float>::EncryptValueToPool
  006e4	6a 04		 push	 4

; 127  : 
; 128  : 	m_fAimAngle = rkLoader.LoadFloat_e( "target_aim_angle", 0.0f );

  006e6	c7 85 88 fe ff
	ff 99 8d 99 8d	 mov	 DWORD PTR __k$556093[ebp], -1919316583 ; 8d998d99H
  006f0	c7 85 8c fe ff
	ff 88 98 b4 8b	 mov	 DWORD PTR __k$556093[ebp+4], -1951098744 ; 8bb49888H
  006fa	c7 85 90 fe ff
	ff 84 81 b4 8b	 mov	 DWORD PTR __k$556093[ebp+8], -1951104636 ; 8bb48184H
  00704	c7 85 94 fe ff
	ff 83 8b 87 8f	 mov	 DWORD PTR __k$556093[ebp+12], -1886942333 ; 8f878b83H
  0070e	8d 85 88 fe ff
	ff		 lea	 eax, DWORD PTR __k$556093[ebp]
  00714	c6 85 98 fe ff
	ff 00		 mov	 BYTE PTR __k$556093[ebp+16], 0
  0071b	59		 pop	 ecx
$LL1494@LoadProper:
  0071c	81 30 ed ec eb
	ea		 xor	 DWORD PTR [eax], -353637139 ; eaebecedH
  00722	83 c0 04	 add	 eax, 4
  00725	49		 dec	 ecx
  00726	75 f4		 jne	 SHORT $LL1494@LoadProper
  00728	0f 57 c0	 xorps	 xmm0, xmm0
  0072b	51		 push	 ecx
  0072c	8b 8d e8 fc ff
	ff		 mov	 ecx, DWORD PTR _rkLoader$GSCopy$[ebp]
  00732	8d 85 88 fe ff
	ff		 lea	 eax, DWORD PTR __k$556093[ebp]
  00738	f3 0f 11 04 24	 movss	 DWORD PTR [esp], xmm0
  0073d	50		 push	 eax
  0073e	ff 15 00 00 00
	00		 call	 DWORD PTR __imp_?LoadFloat@ioINILoader@@QAEMPBDM@Z
  00744	d9 9d dc fc ff
	ff		 fstp	 DWORD PTR _value$556193[ebp]
  0074a	8d 85 dc fc ff
	ff		 lea	 eax, DWORD PTR _value$556193[ebp]
  00750	50		 push	 eax
  00751	8d 8e ec 10 00
	00		 lea	 ecx, DWORD PTR [esi+4332]
  00757	e8 00 00 00 00	 call	 ?EncryptValueToPool@?$CEncrypt@M@@AAEXPBD@Z ; CEncrypt<float>::EncryptValueToPool
  0075c	6a 03		 push	 3

; 129  : 
; 130  : 	m_fMarkerRange = rkLoader.LoadFloat_e( "marker_range", 0.0f );

  0075e	c7 85 2c ff ff
	ff 80 8d 99 81	 mov	 DWORD PTR __k$556295[ebp], -2120643200 ; 81998d80H
  00768	c7 85 30 ff ff
	ff 88 9e b4 98	 mov	 DWORD PTR __k$556295[ebp+4], -1732993400 ; 98b49e88H
  00772	c7 85 34 ff ff
	ff 8c 82 8c 8f	 mov	 DWORD PTR __k$556295[ebp+8], -1886616948 ; 8f8c828cH
  0077c	8d 85 2c ff ff
	ff		 lea	 eax, DWORD PTR __k$556295[ebp]
  00782	c6 85 38 ff ff
	ff 00		 mov	 BYTE PTR __k$556295[ebp+12], 0
  00789	59		 pop	 ecx
$LL1602@LoadProper:
  0078a	81 30 ed ec eb
	ea		 xor	 DWORD PTR [eax], -353637139 ; eaebecedH
  00790	83 c0 04	 add	 eax, 4
  00793	49		 dec	 ecx
  00794	75 f4		 jne	 SHORT $LL1602@LoadProper
  00796	0f 57 c0	 xorps	 xmm0, xmm0
  00799	51		 push	 ecx
  0079a	8b 8d e8 fc ff
	ff		 mov	 ecx, DWORD PTR _rkLoader$GSCopy$[ebp]
  007a0	8d 85 2c ff ff
	ff		 lea	 eax, DWORD PTR __k$556295[ebp]
  007a6	f3 0f 11 04 24	 movss	 DWORD PTR [esp], xmm0
  007ab	50		 push	 eax
  007ac	ff 15 00 00 00
	00		 call	 DWORD PTR __imp_?LoadFloat@ioINILoader@@QAEMPBDM@Z
  007b2	d9 9d d4 fc ff
	ff		 fstp	 DWORD PTR _value$556323[ebp]
  007b8	8d 85 d4 fc ff
	ff		 lea	 eax, DWORD PTR _value$556323[ebp]
  007be	50		 push	 eax
  007bf	8d 8e 1c 11 00
	00		 lea	 ecx, DWORD PTR [esi+4380]
  007c5	e8 00 00 00 00	 call	 ?EncryptValueToPool@?$CEncrypt@M@@AAEXPBD@Z ; CEncrypt<float>::EncryptValueToPool
  007ca	6a 03		 push	 3

; 131  : 
; 132  : 	rkLoader.LoadString_e( "ready_marker", "", szBuf, MAX_PATH );

  007cc	c7 85 f0 fe ff
	ff 9f 89 8a 8e	 mov	 DWORD PTR __k$556340[ebp], -1903523425 ; 8e8a899fH
  007d6	c7 85 f4 fe ff
	ff 94 b3 86 8b	 mov	 DWORD PTR __k$556340[ebp+4], -1954106476 ; 8b86b394H
  007e0	c7 85 f8 fe ff
	ff 9f 87 8e 98	 mov	 DWORD PTR __k$556340[ebp+8], -1735489633 ; 988e879fH
  007ea	8d 85 f0 fe ff
	ff		 lea	 eax, DWORD PTR __k$556340[ebp]
  007f0	c6 85 fc fe ff
	ff 00		 mov	 BYTE PTR __k$556340[ebp+12], 0
  007f7	59		 pop	 ecx
$LL1710@LoadProper:
  007f8	81 30 ed ec eb
	ea		 xor	 DWORD PTR [eax], -353637139 ; eaebecedH
  007fe	83 c0 04	 add	 eax, 4
  00801	49		 dec	 ecx
  00802	75 f4		 jne	 SHORT $LL1710@LoadProper
  00804	8b 8d e8 fc ff
	ff		 mov	 ecx, DWORD PTR _rkLoader$GSCopy$[ebp]
  0080a	68 04 01 00 00	 push	 260			; 00000104H
  0080f	8d 85 ec fc ff
	ff		 lea	 eax, DWORD PTR _szBuf$[ebp]
  00815	50		 push	 eax
  00816	68 00 00 00 00	 push	 OFFSET ??_C@_00CNPNBAHC@?$AA@
  0081b	8d 85 f0 fe ff
	ff		 lea	 eax, DWORD PTR __k$556340[ebp]
  00821	50		 push	 eax
  00822	ff d7		 call	 edi

; 133  : 	m_szReadyMarker = szBuf;

  00824	8d 85 ec fc ff
	ff		 lea	 eax, DWORD PTR _szBuf$[ebp]
  0082a	50		 push	 eax
  0082b	8d 8e 4c 11 00
	00		 lea	 ecx, DWORD PTR [esi+4428]
  00831	ff d3		 call	 ebx
  00833	6a 03		 push	 3

; 134  : 	rkLoader.LoadString_e( "aiming_marker", "", szBuf, MAX_PATH );

  00835	c7 45 d8 8c 85
	86 83		 mov	 DWORD PTR __k$556465[ebp], -2088335988 ; 8386858cH
  0083c	c7 45 dc 83 8b
	b4 87		 mov	 DWORD PTR __k$556465[ebp+4], -2018210941 ; 87b48b83H
  00843	c7 45 e0 8c 9e
	80 8f		 mov	 DWORD PTR __k$556465[ebp+8], -1887396212 ; 8f809e8cH
  0084a	8d 45 d8	 lea	 eax, DWORD PTR __k$556465[ebp]
  0084d	66 c7 45 e4 9f
	00		 mov	 WORD PTR __k$556465[ebp+12], 159 ; 0000009fH
  00853	59		 pop	 ecx
$LL1816@LoadProper:
  00854	81 30 ed ec eb
	ea		 xor	 DWORD PTR [eax], -353637139 ; eaebecedH
  0085a	83 c0 04	 add	 eax, 4
  0085d	49		 dec	 ecx
  0085e	75 f4		 jne	 SHORT $LL1816@LoadProper
  00860	8b 8d e8 fc ff
	ff		 mov	 ecx, DWORD PTR _rkLoader$GSCopy$[ebp]
  00866	80 75 e4 ed	 xor	 BYTE PTR __k$556465[ebp+12], -19 ; ffffffedH
  0086a	68 04 01 00 00	 push	 260			; 00000104H
  0086f	8d 85 ec fc ff
	ff		 lea	 eax, DWORD PTR _szBuf$[ebp]
  00875	50		 push	 eax
  00876	68 00 00 00 00	 push	 OFFSET ??_C@_00CNPNBAHC@?$AA@
  0087b	8d 45 d8	 lea	 eax, DWORD PTR __k$556465[ebp]
  0087e	50		 push	 eax
  0087f	ff d7		 call	 edi

; 135  : 	m_szAimingMarker = szBuf;

  00881	8d 85 ec fc ff
	ff		 lea	 eax, DWORD PTR _szBuf$[ebp]
  00887	50		 push	 eax
  00888	8d 8e 5c 11 00
	00		 lea	 ecx, DWORD PTR [esi+4444]
  0088e	ff d3		 call	 ebx
  00890	6a 03		 push	 3

; 136  : 	rkLoader.LoadString_e( "aimed_marker", "", szBuf, MAX_PATH );

  00892	c7 85 18 ff ff
	ff 8c 85 86 8f	 mov	 DWORD PTR __k$556590[ebp], -1887009396 ; 8f86858cH
  0089c	c7 85 1c ff ff
	ff 89 b3 86 8b	 mov	 DWORD PTR __k$556590[ebp+4], -1954106487 ; 8b86b389H
  008a6	c7 85 20 ff ff
	ff 9f 87 8e 98	 mov	 DWORD PTR __k$556590[ebp+8], -1735489633 ; 988e879fH
  008b0	8d 85 18 ff ff
	ff		 lea	 eax, DWORD PTR __k$556590[ebp]
  008b6	c6 85 24 ff ff
	ff 00		 mov	 BYTE PTR __k$556590[ebp+12], 0
  008bd	59		 pop	 ecx
$LL1922@LoadProper:
  008be	81 30 ed ec eb
	ea		 xor	 DWORD PTR [eax], -353637139 ; eaebecedH
  008c4	83 c0 04	 add	 eax, 4
  008c7	49		 dec	 ecx
  008c8	75 f4		 jne	 SHORT $LL1922@LoadProper
  008ca	8b 8d e8 fc ff
	ff		 mov	 ecx, DWORD PTR _rkLoader$GSCopy$[ebp]
  008d0	68 04 01 00 00	 push	 260			; 00000104H
  008d5	8d 85 ec fc ff
	ff		 lea	 eax, DWORD PTR _szBuf$[ebp]
  008db	50		 push	 eax
  008dc	68 00 00 00 00	 push	 OFFSET ??_C@_00CNPNBAHC@?$AA@
  008e1	8d 85 18 ff ff
	ff		 lea	 eax, DWORD PTR __k$556590[ebp]
  008e7	50		 push	 eax
  008e8	ff d7		 call	 edi

; 137  : 	m_szAimedMarker = szBuf;

  008ea	8d 85 ec fc ff
	ff		 lea	 eax, DWORD PTR _szBuf$[ebp]
  008f0	50		 push	 eax
  008f1	8d 8e 6c 11 00
	00		 lea	 ecx, DWORD PTR [esi+4460]
  008f7	ff d3		 call	 ebx
  008f9	6a 04		 push	 4

; 138  : 	rkLoader.LoadString_e( "zero_aimed_marker", "", szBuf, MAX_PATH );

  008fb	c7 85 70 ff ff
	ff 97 89 99 85	 mov	 DWORD PTR __k$556718[ebp], -2053535337 ; 85998997H
  00905	c7 85 74 ff ff
	ff b2 8d 82 87	 mov	 DWORD PTR __k$556718[ebp+4], -2021487182 ; 87828db2H
  0090f	c7 85 78 ff ff
	ff 88 88 b4 87	 mov	 DWORD PTR __k$556718[ebp+8], -2018211704 ; 87b48888H
  00919	c7 85 7c ff ff
	ff 8c 9e 80 8f	 mov	 DWORD PTR __k$556718[ebp+12], -1887396212 ; 8f809e8cH
  00923	8d 85 70 ff ff
	ff		 lea	 eax, DWORD PTR __k$556718[ebp]
  00929	66 c7 45 80 9f
	00		 mov	 WORD PTR __k$556718[ebp+16], 159 ; 0000009fH
  0092f	59		 pop	 ecx
$LL2028@LoadProper:
  00930	81 30 ed ec eb
	ea		 xor	 DWORD PTR [eax], -353637139 ; eaebecedH
  00936	83 c0 04	 add	 eax, 4
  00939	49		 dec	 ecx
  0093a	75 f4		 jne	 SHORT $LL2028@LoadProper
  0093c	8b 8d e8 fc ff
	ff		 mov	 ecx, DWORD PTR _rkLoader$GSCopy$[ebp]
  00942	80 75 80 ed	 xor	 BYTE PTR __k$556718[ebp+16], -19 ; ffffffedH
  00946	68 04 01 00 00	 push	 260			; 00000104H
  0094b	8d 85 ec fc ff
	ff		 lea	 eax, DWORD PTR _szBuf$[ebp]
  00951	50		 push	 eax
  00952	68 00 00 00 00	 push	 OFFSET ??_C@_00CNPNBAHC@?$AA@
  00957	8d 85 70 ff ff
	ff		 lea	 eax, DWORD PTR __k$556718[ebp]
  0095d	50		 push	 eax
  0095e	ff d7		 call	 edi

; 139  : 	m_szZeroAimedMarker = szBuf;

  00960	8d 85 ec fc ff
	ff		 lea	 eax, DWORD PTR _szBuf$[ebp]
  00966	50		 push	 eax
  00967	8d 8e 7c 11 00
	00		 lea	 ecx, DWORD PTR [esi+4476]
  0096d	ff d3		 call	 ebx
  0096f	6a 03		 push	 3

; 140  : 
; 141  : 	m_bEnableDownAim = rkLoader.LoadBool_e( "enable_down_aim", false );

  00971	c7 45 88 88 82
	8a 88		 mov	 DWORD PTR __k$556840[ebp], -2004188536 ; 888a8288H
  00978	c7 45 8c 81 89
	b4 8e		 mov	 DWORD PTR __k$556840[ebp+4], -1900770943 ; 8eb48981H
  0097f	c7 45 90 82 9b
	85 b5		 mov	 DWORD PTR __k$556840[ebp+8], -1249535102 ; b5859b82H
  00986	8d 45 88	 lea	 eax, DWORD PTR __k$556840[ebp]
  00989	c7 45 94 8c 85
	86 00		 mov	 DWORD PTR __k$556840[ebp+12], 8816012 ; 0086858cH
  00990	59		 pop	 ecx
  00991	bb ed ec eb ea	 mov	 ebx, -353637139		; eaebecedH
$LL2134@LoadProper:
  00996	31 18		 xor	 DWORD PTR [eax], ebx
  00998	83 c0 04	 add	 eax, 4
  0099b	49		 dec	 ecx
  0099c	75 f8		 jne	 SHORT $LL2134@LoadProper
  0099e	6a 0c		 push	 12			; 0000000cH
  009a0	58		 pop	 eax
$LL2131@LoadProper:
  009a1	8b c8		 mov	 ecx, eax
  009a3	81 e1 03 00 00
	80		 and	 ecx, -2147483645	; 80000003H
  009a9	79 05		 jns	 SHORT $LN2448@LoadProper
  009ab	49		 dec	 ecx
  009ac	83 c9 fc	 or	 ecx, -4			; fffffffcH
  009af	41		 inc	 ecx
$LN2448@LoadProper:
  009b0	b2 ed		 mov	 dl, -19			; ffffffedH
  009b2	2a d1		 sub	 dl, cl
  009b4	30 54 05 88	 xor	 BYTE PTR __k$556840[ebp+eax], dl
  009b8	40		 inc	 eax
  009b9	83 f8 0f	 cmp	 eax, 15			; 0000000fH
  009bc	7c e3		 jl	 SHORT $LL2131@LoadProper
  009be	8b 8d e8 fc ff
	ff		 mov	 ecx, DWORD PTR _rkLoader$GSCopy$[ebp]
  009c4	6a 00		 push	 0
  009c6	8d 45 88	 lea	 eax, DWORD PTR __k$556840[ebp]
  009c9	50		 push	 eax
  009ca	ff 15 00 00 00
	00		 call	 DWORD PTR __imp_?LoadBool@ioINILoader@@QAE_NPBD_N@Z
  009d0	0f b6 c0	 movzx	 eax, al
  009d3	50		 push	 eax
  009d4	8d 8e 10 10 00
	00		 lea	 ecx, DWORD PTR [esi+4112]
  009da	e8 00 00 00 00	 call	 ??4?$CEncrypt@_N@@QAE_N_N@Z ; CEncrypt<bool>::operator=

; 142  : 
; 143  : 	m_fTargetAimRate = rkLoader.LoadFloat_e( "target_aim_rate", FLOAT05 );

  009df	b8 05 00 00 00	 mov	 eax, 5
  009e4	8b d0		 mov	 edx, eax
  009e6	b8 0a 00 00 00	 mov	 eax, 10			; 0000000aH
  009eb	6a 03		 push	 3
  009ed	8b f8		 mov	 edi, eax
  009ef	c7 45 b0 99 8d
	99 8d		 mov	 DWORD PTR __k$556973[ebp], -1919316583 ; 8d998d99H
  009f6	c7 45 b4 88 98
	b4 8b		 mov	 DWORD PTR __k$556973[ebp+4], -1951098744 ; 8bb49888H
  009fd	c7 45 b8 84 81
	b4 98		 mov	 DWORD PTR __k$556973[ebp+8], -1733000828 ; 98b48184H
  00a04	8d 4d b0	 lea	 ecx, DWORD PTR __k$556973[ebp]
  00a07	c7 45 bc 8c 98
	8e 00		 mov	 DWORD PTR __k$556973[ebp+12], 9345164 ; 008e988cH
  00a0e	58		 pop	 eax
$LL2244@LoadProper:
  00a0f	31 19		 xor	 DWORD PTR [ecx], ebx
  00a11	83 c1 04	 add	 ecx, 4
  00a14	48		 dec	 eax
  00a15	75 f8		 jne	 SHORT $LL2244@LoadProper
  00a17	6a 0c		 push	 12			; 0000000cH
  00a19	58		 pop	 eax
$LL2241@LoadProper:
  00a1a	8b c8		 mov	 ecx, eax
  00a1c	81 e1 03 00 00
	80		 and	 ecx, -2147483645	; 80000003H
  00a22	79 05		 jns	 SHORT $LN2449@LoadProper
  00a24	49		 dec	 ecx
  00a25	83 c9 fc	 or	 ecx, -4			; fffffffcH
  00a28	41		 inc	 ecx
$LN2449@LoadProper:
  00a29	b3 ed		 mov	 bl, -19			; ffffffedH
  00a2b	2a d9		 sub	 bl, cl
  00a2d	30 5c 05 b0	 xor	 BYTE PTR __k$556973[ebp+eax], bl
  00a31	40		 inc	 eax
  00a32	83 f8 0f	 cmp	 eax, 15			; 0000000fH
  00a35	7c e3		 jl	 SHORT $LL2241@LoadProper
  00a37	89 95 e4 fc ff
	ff		 mov	 DWORD PTR tv20256[ebp], edx
  00a3d	db 85 e4 fc ff
	ff		 fild	 DWORD PTR tv20256[ebp]
  00a43	85 d2		 test	 edx, edx
  00a45	79 06		 jns	 SHORT $LN2450@LoadProper
  00a47	d8 05 00 00 00
	00		 fadd	 DWORD PTR __real@4f800000
$LN2450@LoadProper:
  00a4d	89 bd e4 fc ff
	ff		 mov	 DWORD PTR tv20252[ebp], edi
  00a53	db 85 e4 fc ff
	ff		 fild	 DWORD PTR tv20252[ebp]
  00a59	85 ff		 test	 edi, edi
  00a5b	79 06		 jns	 SHORT $LN2451@LoadProper
  00a5d	d8 05 00 00 00
	00		 fadd	 DWORD PTR __real@4f800000
$LN2451@LoadProper:
  00a63	de f9		 fdivp	 ST(1), ST(0)
  00a65	51		 push	 ecx
  00a66	8b 8d e8 fc ff
	ff		 mov	 ecx, DWORD PTR _rkLoader$GSCopy$[ebp]
  00a6c	8d 45 b0	 lea	 eax, DWORD PTR __k$556973[ebp]
  00a6f	d9 9d e4 fc ff
	ff		 fstp	 DWORD PTR tv20248[ebp]
  00a75	d9 85 e4 fc ff
	ff		 fld	 DWORD PTR tv20248[ebp]
  00a7b	d9 1c 24	 fstp	 DWORD PTR [esp]
  00a7e	50		 push	 eax
  00a7f	ff 15 00 00 00
	00		 call	 DWORD PTR __imp_?LoadFloat@ioINILoader@@QAEMPBDM@Z
  00a85	d9 9e 40 10 00
	00		 fstp	 DWORD PTR [esi+4160]
  00a8b	6a 05		 push	 5
  00a8d	59		 pop	 ecx
  00a8e	5f		 pop	 edi

; 144  : 	m_fDownTargetAimRate = rkLoader.LoadFloat_e( "down_target_aim_rate", 0.0f );

  00a8f	c7 85 50 fe ff
	ff 89 83 9c 84	 mov	 DWORD PTR __k$557111[ebp], -2070117495 ; 849c8389H
  00a99	c7 85 54 fe ff
	ff b2 98 8a 98	 mov	 DWORD PTR __k$557111[ebp+4], -1735747406 ; 988a98b2H
  00aa3	c7 85 58 fe ff
	ff 8a 89 9f b5	 mov	 DWORD PTR __k$557111[ebp+8], -1247835766 ; b59f898aH
  00aad	c7 85 5c fe ff
	ff 8c 85 86 b5	 mov	 DWORD PTR __k$557111[ebp+12], -1249475188 ; b586858cH
  00ab7	c7 85 60 fe ff
	ff 9f 8d 9f 8f	 mov	 DWORD PTR __k$557111[ebp+16], -1885368929 ; 8f9f8d9fH
  00ac1	8d 85 50 fe ff
	ff		 lea	 eax, DWORD PTR __k$557111[ebp]
  00ac7	c6 85 64 fe ff
	ff 00		 mov	 BYTE PTR __k$557111[ebp+20], 0
  00ace	5b		 pop	 ebx
$LL2350@LoadProper:
  00acf	81 30 ed ec eb
	ea		 xor	 DWORD PTR [eax], -353637139 ; eaebecedH
  00ad5	83 c0 04	 add	 eax, 4
  00ad8	49		 dec	 ecx
  00ad9	75 f4		 jne	 SHORT $LL2350@LoadProper
  00adb	0f 57 c0	 xorps	 xmm0, xmm0
  00ade	51		 push	 ecx
  00adf	8b 8d e8 fc ff
	ff		 mov	 ecx, DWORD PTR _rkLoader$GSCopy$[ebp]
  00ae5	8d 85 50 fe ff
	ff		 lea	 eax, DWORD PTR __k$557111[ebp]
  00aeb	f3 0f 11 04 24	 movss	 DWORD PTR [esp], xmm0
  00af0	50		 push	 eax
  00af1	ff 15 00 00 00
	00		 call	 DWORD PTR __imp_?LoadFloat@ioINILoader@@QAEMPBDM@Z
  00af7	d9 9e 44 10 00
	00		 fstp	 DWORD PTR [esi+4164]

; 145  : }

  00afd	8b 4d fc	 mov	 ecx, DWORD PTR __$ArrayPad$[ebp]
  00b00	33 cd		 xor	 ecx, ebp
  00b02	5e		 pop	 esi
  00b03	e8 00 00 00 00	 call	 @__security_check_cookie@4
  00b08	c9		 leave
  00b09	c2 04 00	 ret	 4
?LoadProperty@ioChargingFireSkill4@@UAEXAAVioINILoader@@@Z ENDP ; ioChargingFireSkill4::LoadProperty
_TEXT	ENDS
PUBLIC	?OnSkillEnd@ioChargingFireSkill4@@UAEXPAVioBaseChar@@@Z ; ioChargingFireSkill4::OnSkillEnd
EXTRN	?SetTargetMarkerState@ioBaseGUISupport@@QAEXW4MarkerState@ioTargetMarker@@W4TargetedType@@@Z:PROC ; ioBaseGUISupport::SetTargetMarkerState
EXTRN	__imp_?VEC3_ZERO@ioMath@@2UD3DXVECTOR3@@A:BYTE
EXTRN	__imp_?Clear@ioHashString@@QAEXXZ:PROC
EXTRN	?EndMapEffect@ioBaseChar@@QAEXK_N@Z:PROC	; ioBaseChar::EndMapEffect
EXTRN	?EndCameraBuff@ioSkill@@IAEXPAVioBaseChar@@@Z:PROC ; ioSkill::EndCameraBuff
EXTRN	?RestoreSkillWeaponMesh@ioBaseChar@@QAE_NPAVioSkill@@ABVioHashString@@_N2@Z:PROC ; ioBaseChar::RestoreSkillWeaponMesh
EXTRN	__imp_?IsEmpty@ioHashString@@QBE_NXZ:PROC
EXTRN	?ShowWeaponItemMesh@ioBaseChar@@QAEX_N0@Z:PROC	; ioBaseChar::ShowWeaponItemMesh
EXTRN	?OnSkillEnd@ioNormalSkill@@UAEXPAVioBaseChar@@@Z:PROC ; ioNormalSkill::OnSkillEnd
; Function compile flags: /Ogsp
;	COMDAT ?OnSkillEnd@ioChargingFireSkill4@@UAEXPAVioBaseChar@@@Z
_TEXT	SEGMENT
_value$557324 = -4					; size = 4
_value$557320 = -4					; size = 4
_value$557316 = -4					; size = 4
_pChar$ = 8						; size = 4
?OnSkillEnd@ioChargingFireSkill4@@UAEXPAVioBaseChar@@@Z PROC ; ioChargingFireSkill4::OnSkillEnd, COMDAT
; _this$ = ecx

; 219  : {

  00000	55		 push	 ebp
  00001	8b ec		 mov	 ebp, esp
  00003	51		 push	 ecx
  00004	53		 push	 ebx
  00005	56		 push	 esi
  00006	57		 push	 edi

; 220  : 	ioNormalSkill::OnSkillEnd( pChar );

  00007	ff 75 08	 push	 DWORD PTR _pChar$[ebp]
  0000a	8b f1		 mov	 esi, ecx
  0000c	e8 00 00 00 00	 call	 ?OnSkillEnd@ioNormalSkill@@UAEXPAVioBaseChar@@@Z ; ioNormalSkill::OnSkillEnd

; 221  : 
; 222  : 	//  
; 223  : 	if( m_bUseItemMesh )

  00011	33 db		 xor	 ebx, ebx
  00013	38 9e 08 0f 00
	00		 cmp	 BYTE PTR [esi+3848], bl
  00019	74 0b		 je	 SHORT $LN3@OnSkillEnd

; 224  : 	{
; 225  : 		pChar->ShowWeaponItemMesh( true );

  0001b	8b 4d 08	 mov	 ecx, DWORD PTR _pChar$[ebp]
  0001e	53		 push	 ebx
  0001f	6a 01		 push	 1
  00021	e8 00 00 00 00	 call	 ?ShowWeaponItemMesh@ioBaseChar@@QAEX_N0@Z ; ioBaseChar::ShowWeaponItemMesh
$LN3@OnSkillEnd:

; 226  : 	}
; 227  : 
; 228  : 	//      
; 229  : 	m_bSetHandMesh = false;
; 230  : 	if( !m_HandMesh.IsEmpty() )

  00026	8d be f8 0e 00
	00		 lea	 edi, DWORD PTR [esi+3832]
  0002c	8b cf		 mov	 ecx, edi
  0002e	88 9e 0a 0f 00
	00		 mov	 BYTE PTR [esi+3850], bl
  00034	ff 15 00 00 00
	00		 call	 DWORD PTR __imp_?IsEmpty@ioHashString@@QBE_NXZ
  0003a	84 c0		 test	 al, al
  0003c	75 13		 jne	 SHORT $LN12@OnSkillEnd

; 231  : 		pChar->RestoreSkillWeaponMesh( this, m_HandMesh, m_bVisibleEquipMesh );

  0003e	0f b6 86 09 0f
	00 00		 movzx	 eax, BYTE PTR [esi+3849]
  00045	8b 4d 08	 mov	 ecx, DWORD PTR _pChar$[ebp]
  00048	53		 push	 ebx
  00049	50		 push	 eax
  0004a	57		 push	 edi
  0004b	56		 push	 esi
  0004c	e8 00 00 00 00	 call	 ?RestoreSkillWeaponMesh@ioBaseChar@@QAE_NPAVioSkill@@ABVioHashString@@_N2@Z ; ioBaseChar::RestoreSkillWeaponMesh
$LN12@OnSkillEnd:

; 232  : 
; 233  : 	EndCameraBuff( pChar );

  00051	ff 75 08	 push	 DWORD PTR _pChar$[ebp]
  00054	8b ce		 mov	 ecx, esi
  00056	e8 00 00 00 00	 call	 ?EndCameraBuff@ioSkill@@IAEXPAVioBaseChar@@@Z ; ioSkill::EndCameraBuff

; 234  : 
; 235  : 	//DestroyMapEffect
; 236  : 	if( m_dwChargingEffect != -1 )

  0005b	8b 86 c4 11 00
	00		 mov	 eax, DWORD PTR [esi+4548]
  00061	83 f8 ff	 cmp	 eax, -1
  00064	74 0a		 je	 SHORT $LN1@OnSkillEnd

; 237  : 		pChar->EndMapEffect( m_dwChargingEffect, false );

  00066	8b 4d 08	 mov	 ecx, DWORD PTR _pChar$[ebp]
  00069	53		 push	 ebx
  0006a	50		 push	 eax
  0006b	e8 00 00 00 00	 call	 ?EndMapEffect@ioBaseChar@@QAEXK_N@Z ; ioBaseChar::EndMapEffect
$LN1@OnSkillEnd:

; 238  : 
; 239  : 	m_dwChargingEffect = -1;

  00070	83 8e c4 11 00
	00 ff		 or	 DWORD PTR [esi+4548], -1

; 240  : 
; 241  : 	m_dwMotionEndTime = 0;
; 242  : 	m_dwMotionStartTime = 0;

  00077	8d 45 fc	 lea	 eax, DWORD PTR _value$557316[ebp]
  0007a	50		 push	 eax
  0007b	8d 8e a8 02 00
	00		 lea	 ecx, DWORD PTR [esi+680]
  00081	89 9e d8 02 00
	00		 mov	 DWORD PTR [esi+728], ebx
  00087	89 5d fc	 mov	 DWORD PTR _value$557316[ebp], ebx
  0008a	e8 00 00 00 00	 call	 ?EncryptValueToPool@?$CEncrypt@K@@AAEXPBD@Z ; CEncrypt<unsigned long>::EncryptValueToPool

; 243  : 	m_dwLoopStartTime = 0;
; 244  : 	m_fCurChargeRate = 0.0f;

  0008f	0f 57 c0	 xorps	 xmm0, xmm0
  00092	8d 45 fc	 lea	 eax, DWORD PTR _value$557320[ebp]
  00095	50		 push	 eax
  00096	8d 8e a4 09 00
	00		 lea	 ecx, DWORD PTR [esi+2468]
  0009c	89 9e a8 11 00
	00		 mov	 DWORD PTR [esi+4520], ebx
  000a2	f3 0f 11 45 fc	 movss	 DWORD PTR _value$557320[ebp], xmm0
  000a7	e8 00 00 00 00	 call	 ?EncryptValueToPool@?$CEncrypt@M@@AAEXPBD@Z ; CEncrypt<float>::EncryptValueToPool

; 245  : 	m_dwFireStartTime = 0;
; 246  : 	m_dwFireEndTime = 0;
; 247  : 
; 248  : 	m_State = SS_NONE;

  000ac	8d 45 fc	 lea	 eax, DWORD PTR _value$557324[ebp]
  000af	50		 push	 eax
  000b0	8d 8e 58 0f 00
	00		 lea	 ecx, DWORD PTR [esi+3928]
  000b6	89 9e f4 0f 00
	00		 mov	 DWORD PTR [esi+4084], ebx
  000bc	89 9e f8 0f 00
	00		 mov	 DWORD PTR [esi+4088], ebx
  000c2	89 5d fc	 mov	 DWORD PTR _value$557324[ebp], ebx
  000c5	e8 00 00 00 00	 call	 ?EncryptValueToPool@?$CEncrypt@H@@AAEXPBD@Z ; CEncrypt<int>::EncryptValueToPool

; 249  : 	m_LoopAimState = LAS_NONE;
; 250  : 
; 251  : 	m_bSetAimedTarget = false;
; 252  : 	m_szTargetName.Clear();

  000ca	8d 8e 48 10 00
	00		 lea	 ecx, DWORD PTR [esi+4168]
  000d0	89 9e 88 0f 00
	00		 mov	 DWORD PTR [esi+3976], ebx
  000d6	88 9e 8c 11 00
	00		 mov	 BYTE PTR [esi+4492], bl
  000dc	ff 15 00 00 00
	00		 call	 DWORD PTR __imp_?Clear@ioHashString@@QAEXXZ

; 253  : 	m_dwAimStartTime = 0;
; 254  : 	m_vAimedPos = ioMath::VEC3_ZERO;
; 255  : 
; 256  : 	// set marker none...
; 257  : 	pChar->SetTargetMarkerState( ioTargetMarker::MS_NONE, TT_OTHER );

  000e2	8b 4d 08	 mov	 ecx, DWORD PTR _pChar$[ebp]
  000e5	89 9e 58 10 00
	00		 mov	 DWORD PTR [esi+4184], ebx
  000eb	8d be 90 11 00
	00		 lea	 edi, DWORD PTR [esi+4496]
  000f1	8b 35 00 00 00
	00		 mov	 esi, DWORD PTR __imp_?VEC3_ZERO@ioMath@@2UD3DXVECTOR3@@A
  000f7	a5		 movsd
  000f8	a5		 movsd
  000f9	6a 01		 push	 1
  000fb	53		 push	 ebx
  000fc	81 c1 cc 01 00
	00		 add	 ecx, 460		; 000001ccH
  00102	a5		 movsd
  00103	e8 00 00 00 00	 call	 ?SetTargetMarkerState@ioBaseGUISupport@@QAEXW4MarkerState@ioTargetMarker@@W4TargetedType@@@Z ; ioBaseGUISupport::SetTargetMarkerState
  00108	5f		 pop	 edi
  00109	5e		 pop	 esi
  0010a	5b		 pop	 ebx

; 258  : }

  0010b	c9		 leave
  0010c	c2 04 00	 ret	 4
?OnSkillEnd@ioChargingFireSkill4@@UAEXPAVioBaseChar@@@Z ENDP ; ioChargingFireSkill4::OnSkillEnd
_TEXT	ENDS
PUBLIC	__real@41f0000000000000
PUBLIC	__real@0000000000000000
PUBLIC	__real@00000000
PUBLIC	_pChar$GSCopy$
PUBLIC	__$ArrayPad$
PUBLIC	?SetActionState@ioChargingFireSkill4@@IAEXPAVioBaseChar@@PAVioPlayStage@@_N@Z ; ioChargingFireSkill4::SetActionState
EXTRN	??1SP2Packet@@UAE@XZ:PROC			; SP2Packet::~SP2Packet
EXTRN	?SendToAllPlayingUser@P2PNetwork@@YAXAAVSP2Packet@@PAVioBaseChar@@@Z:PROC ; P2PNetwork::SendToAllPlayingUser
EXTRN	??6SP2Packet@@QAEAAV0@ABUD3DXQUATERNION@@@Z:PROC ; SP2Packet::operator<<
EXTRN	??6SP2Packet@@QAEAAV0@ABUD3DXVECTOR3@@@Z:PROC	; SP2Packet::operator<<
EXTRN	??6SP2Packet@@QAEAAV0@H@Z:PROC			; SP2Packet::operator<<
EXTRN	??6SP2Packet@@QAEAAV0@ABVioHashString@@@Z:PROC	; SP2Packet::operator<<
EXTRN	??0SP2Packet@@QAE@K@Z:PROC			; SP2Packet::SP2Packet
EXTRN	?SetReservedSliding@ioBaseChar@@QAEXABV?$vector@UForceInfo@@V?$allocator@UForceInfo@@@std@@@std@@HMKM_N@Z:PROC ; ioBaseChar::SetReservedSliding
EXTRN	__imp_?GetAnimationFullTime@ioEntityGroup@@QAEMH@Z:PROC
EXTRN	?RefreshFireTimeListWithBase@ioBaseChar@@QAEXKHABV?$vector@UWeaponInfo@@V?$allocator@UWeaponInfo@@@std@@@std@@W4FireTimeType@@MK_N@Z:PROC ; ioBaseChar::RefreshFireTimeListWithBase
EXTRN	__imp_?SetActionAni@ioEntityGroup@@QAE_NHMMMMMM_N0@Z:PROC
EXTRN	__imp_?ClearAllLoopAni@ioEntityGroup@@QAEXM_N@Z:PROC
EXTRN	__imp_?ClearAllActionAni@ioEntityGroup@@QAEXM_N@Z:PROC
EXTRN	__imp_?GetAnimationIdx@ioEntityGroup@@QAEHABVioHashString@@@Z:PROC
EXTRN	__chkstk:PROC
;	COMDAT __real@41f0000000000000
; File d:\lost saga for developer\youtube\tutorial\source\src\lsclient\iobasechar.h
CONST	SEGMENT
__real@41f0000000000000 DQ 041f0000000000000r	; 4.29497e+009
CONST	ENDS
;	COMDAT __real@0000000000000000
CONST	SEGMENT
__real@0000000000000000 DQ 00000000000000000r	; 0
CONST	ENDS
;	COMDAT __real@00000000
CONST	SEGMENT
__real@00000000 DD 000000000r			; 0
CONST	ENDS
;	COMDAT xdata$x
xdata$x	SEGMENT
__ehfuncinfo$?SetActionState@ioChargingFireSkill4@@IAEXPAVioBaseChar@@PAVioPlayStage@@_N@Z DD 019930522H
	DD	06H
	DD	FLAT:__unwindtable$?SetActionState@ioChargingFireSkill4@@IAEXPAVioBaseChar@@PAVioPlayStage@@_N@Z
	DD	2 DUP(00H)
	DD	2 DUP(00H)
	DD	00H
	DD	01H
__unwindtable$?SetActionState@ioChargingFireSkill4@@IAEXPAVioBaseChar@@PAVioPlayStage@@_N@Z DD 0ffffffffH
	DD	FLAT:__unwindfunclet$?SetActionState@ioChargingFireSkill4@@IAEXPAVioBaseChar@@PAVioPlayStage@@_N@Z$1
	DD	0ffffffffH
	DD	FLAT:__unwindfunclet$?SetActionState@ioChargingFireSkill4@@IAEXPAVioBaseChar@@PAVioPlayStage@@_N@Z$2
	DD	0ffffffffH
	DD	FLAT:__unwindfunclet$?SetActionState@ioChargingFireSkill4@@IAEXPAVioBaseChar@@PAVioPlayStage@@_N@Z$3
	DD	0ffffffffH
	DD	FLAT:__unwindfunclet$?SetActionState@ioChargingFireSkill4@@IAEXPAVioBaseChar@@PAVioPlayStage@@_N@Z$4
	DD	0ffffffffH
	DD	FLAT:__unwindfunclet$?SetActionState@ioChargingFireSkill4@@IAEXPAVioBaseChar@@PAVioPlayStage@@_N@Z$5
	DD	0ffffffffH
	DD	FLAT:__unwindfunclet$?SetActionState@ioChargingFireSkill4@@IAEXPAVioBaseChar@@PAVioPlayStage@@_N@Z$0
; Function compile flags: /Ogsp
; File d:\lost saga for developer\youtube\tutorial\source\src\lsclient\iochargingfireskill4.cpp
xdata$x	ENDS
;	COMDAT ?SetActionState@ioChargingFireSkill4@@IAEXPAVioBaseChar@@PAVioPlayStage@@_N@Z
_TEXT	SEGMENT
_pChar$GSCopy$ = -32884					; size = 4
_fCurForceSlidingRate$ = -32880				; size = 4
tv5156 = -32876						; size = 4
tv5111 = -32876						; size = 4
tv5076 = -32876						; size = 4
tv5058 = -32876						; size = 4
$T557462 = -32876					; size = 4
_dwCurTime$ = -32872					; size = 4
_fAniRate$ = -32868					; size = 4
_dwPreDelay$ = -32864					; size = 4
_fCurChargeAniRate$ = -32864				; size = 4
_pGrp$ = -32860						; size = 4
_iAniID$ = -32856					; size = 4
$T557338 = -32856					; size = 4
$T557337 = -32856					; size = 4
_fCurMaxSlidingRate$548395 = -32856			; size = 4
$T557333 = -32856					; size = 4
$T557332 = -32856					; size = 4
_fCurMaxAniRate$548388 = -32856				; size = 4
tv5266 = -32852						; size = 4
tv5263 = -32852						; size = 4
tv5257 = -32852						; size = 4
tv5252 = -32852						; size = 4
tv5248 = -32852						; size = 4
tv5240 = -32852						; size = 4
tv5226 = -32852						; size = 4
tv5212 = -32852						; size = 4
tv5198 = -32852						; size = 4
tv5182 = -32852						; size = 4
tv5178 = -32852						; size = 4
tv5173 = -32852						; size = 4
tv5154 = -32852						; size = 4
tv5123 = -32852						; size = 4
tv5094 = -32852						; size = 4
tv5091 = -32852						; size = 4
tv5073 = -32852						; size = 4
tv5055 = -32852						; size = 4
$T558112 = -32852					; size = 4
$T557884 = -32852					; size = 4
$T557624 = -32852					; size = 4
$T557494 = -32852					; size = 4
_value$557474 = -32852					; size = 4
$T557466 = -32852					; size = 4
_fAttackEnd$ = -32852					; size = 4
_fFireEnd$ = -32852					; size = 4
$T557341 = -32852					; size = 4
tv5237 = -32848						; size = 4
tv5223 = -32848						; size = 4
tv5209 = -32848						; size = 4
tv5195 = -32848						; size = 4
tv5165 = -32848						; size = 4
tv5163 = -32848						; size = 4
tv5160 = -32848						; size = 4
tv5158 = -32848						; size = 4
$T557754 = -32848					; size = 4
_value$557434 = -32848					; size = 4
_value$557426 = -32848					; size = 4
_value$557418 = -32848					; size = 4
_value$557406 = -32848					; size = 4
_value$557438 = -32848					; size = 4
_value$557398 = -32848					; size = 4
_value$557390 = -32848					; size = 4
_value$557382 = -32848					; size = 4
_value$557410 = -32848					; size = 4
_value$557366 = -32848					; size = 4
_value$557353 = -32848					; size = 4
_value$557349 = -32848					; size = 4
_kPacket$548443 = -32844				; size = 32792
$T558113 = -52						; size = 16
$T557885 = -52						; size = 16
$T557755 = -52						; size = 16
$T557625 = -52						; size = 16
_szEncEventType$557508 = -52				; size = 13
_szEncEventType$558013 = -32				; size = 11
_szEncEventType$557638 = -32				; size = 12
$T557495 = -32						; size = 16
_szEncEventType$557898 = -28				; size = 7
_szEncEventType$557768 = -28				; size = 7
__$ArrayPad$ = -16					; size = 4
__$EHRec$ = -12						; size = 12
_pChar$ = 8						; size = 4
_pStage$ = 12						; size = 4
_bSend$ = 16						; size = 1
?SetActionState@ioChargingFireSkill4@@IAEXPAVioBaseChar@@PAVioPlayStage@@_N@Z PROC ; ioChargingFireSkill4::SetActionState, COMDAT
; _this$ = ecx

; 388  : {

  00000	55		 push	 ebp
  00001	8b ec		 mov	 ebp, esp
  00003	6a ff		 push	 -1
  00005	68 00 00 00 00	 push	 __ehhandler$?SetActionState@ioChargingFireSkill4@@IAEXPAVioBaseChar@@PAVioPlayStage@@_N@Z
  0000a	64 a1 00 00 00
	00		 mov	 eax, DWORD PTR fs:0
  00010	50		 push	 eax
  00011	b8 68 80 00 00	 mov	 eax, 32872		; 00008068H
  00016	e8 00 00 00 00	 call	 __chkstk
  0001b	a1 00 00 00 00	 mov	 eax, DWORD PTR ___security_cookie
  00020	33 c5		 xor	 eax, ebp
  00022	89 45 f0	 mov	 DWORD PTR __$ArrayPad$[ebp], eax
  00025	53		 push	 ebx
  00026	56		 push	 esi
  00027	57		 push	 edi
  00028	50		 push	 eax
  00029	8d 45 f4	 lea	 eax, DWORD PTR __$EHRec$[ebp]
  0002c	64 a3 00 00 00
	00		 mov	 DWORD PTR fs:0, eax
  00032	8b 7d 08	 mov	 edi, DWORD PTR _pChar$[ebp]
  00035	8b f1		 mov	 esi, ecx

; 472  : 	}
; 473  : 
; 474  : 	float fAttackEnd = pGrp->GetAnimationEventTime_e( iAniID, "attack_end" ) * fAniRate;

  00037	89 bd 8c 7f ff
	ff		 mov	 DWORD PTR _pChar$GSCopy$[ebp], edi
  0003d	85 ff		 test	 edi, edi
  0003f	0f 84 ab 0a 00
	00		 je	 $LN1@SetActionS

; 389  : 	if( !pChar ) return;
; 390  : 	ioEntityGroup *pGrp = pChar->GetGroup();

  00045	8b 47 04	 mov	 eax, DWORD PTR [edi+4]
  00048	89 85 a4 7f ff
	ff		 mov	 DWORD PTR _pGrp$[ebp], eax

; 391  : 
; 392  : 	if( m_State != SS_LOOP )

  0004e	8d 85 b0 7f ff
	ff		 lea	 eax, DWORD PTR _value$557349[ebp]
  00054	50		 push	 eax
  00055	8d 8e 58 0f 00
	00		 lea	 ecx, DWORD PTR [esi+3928]
  0005b	e8 00 00 00 00	 call	 ?DecryptValueToPool@?$CEncrypt@H@@QAEXPAH@Z ; CEncrypt<int>::DecryptValueToPool
  00060	83 bd b0 7f ff
	ff 01		 cmp	 DWORD PTR _value$557349[ebp], 1
  00067	0f 85 83 0a 00
	00		 jne	 $LN1@SetActionS

; 393  : 		return;
; 394  : 
; 395  : 	SetNormalSkill( pChar );

  0006d	8b 06		 mov	 eax, DWORD PTR [esi]
  0006f	57		 push	 edi
  00070	8b ce		 mov	 ecx, esi
  00072	ff 90 8c 01 00
	00		 call	 DWORD PTR [eax+396]

; 396  : 
; 397  : 	DWORD dwCurTime = FRAMEGETTIME();

  00078	ff 15 00 00 00
	00		 call	 DWORD PTR __imp_?GetSingleton@ioFrameTimer@@SAAAV1@XZ
  0007e	8b c8		 mov	 ecx, eax
  00080	ff 15 00 00 00
	00		 call	 DWORD PTR __imp_?GetLoopSec@ioFrameTimer@@QBEKXZ
  00086	89 85 98 7f ff
	ff		 mov	 DWORD PTR _dwCurTime$[ebp], eax

; 398  : 	m_State = SS_ACTION;

  0008c	8d 85 b0 7f ff
	ff		 lea	 eax, DWORD PTR _value$557353[ebp]
  00092	50		 push	 eax
  00093	8d 8e 58 0f 00
	00		 lea	 ecx, DWORD PTR [esi+3928]
  00099	c7 85 b0 7f ff
	ff 02 00 00 00	 mov	 DWORD PTR _value$557353[ebp], 2
  000a3	e8 00 00 00 00	 call	 ?EncryptValueToPool@?$CEncrypt@H@@AAEXPBD@Z ; CEncrypt<int>::EncryptValueToPool

; 399  : 
; 400  : 	// Charging Rate
; 401  : 	DWORD dwGapTime = dwCurTime - m_dwLoopStartTime;

  000a8	8b 8e a8 11 00
	00		 mov	 ecx, DWORD PTR [esi+4520]
  000ae	8b 85 98 7f ff
	ff		 mov	 eax, DWORD PTR _dwCurTime$[ebp]
  000b4	2b c1		 sub	 eax, ecx

; 402  : 	if( m_dwLoopStartTime > 0 && m_dwMaxChargingTime > 0 )

  000b6	85 c9		 test	 ecx, ecx
  000b8	74 71		 je	 SHORT $LN34@SetActionS
  000ba	8b 8e f0 0f 00
	00		 mov	 ecx, DWORD PTR [esi+4080]
  000c0	85 c9		 test	 ecx, ecx
  000c2	74 67		 je	 SHORT $LN34@SetActionS

; 403  : 	{
; 404  : 		if( m_dwMaxChargingTime > dwGapTime )

  000c4	3b c8		 cmp	 ecx, eax
  000c6	76 30		 jbe	 SHORT $LN13@SetActionS

; 405  : 			m_fCurChargeRate = (float)dwGapTime / m_dwMaxChargingTime;

  000c8	89 85 ac 7f ff
	ff		 mov	 DWORD PTR tv5266[ebp], eax
  000ce	db 85 ac 7f ff
	ff		 fild	 DWORD PTR tv5266[ebp]
  000d4	85 c0		 test	 eax, eax
  000d6	79 06		 jns	 SHORT $LN662@SetActionS
  000d8	d8 05 00 00 00
	00		 fadd	 DWORD PTR __real@4f800000
$LN662@SetActionS:
  000de	89 8d ac 7f ff
	ff		 mov	 DWORD PTR tv5263[ebp], ecx
  000e4	db 85 ac 7f ff
	ff		 fild	 DWORD PTR tv5263[ebp]
  000ea	85 c9		 test	 ecx, ecx
  000ec	79 06		 jns	 SHORT $LN663@SetActionS
  000ee	d8 05 00 00 00
	00		 fadd	 DWORD PTR __real@4f800000
$LN663@SetActionS:
  000f4	de f9		 fdivp	 ST(1), ST(0)

; 406  : 		else

  000f6	eb 1b		 jmp	 SHORT $LN664@SetActionS
$LN13@SetActionS:

; 407  : 			m_fCurChargeRate = FLOAT1;

  000f8	b8 01 00 00 00	 mov	 eax, 1
  000fd	89 85 ac 7f ff
	ff		 mov	 DWORD PTR tv5257[ebp], eax
  00103	db 85 ac 7f ff
	ff		 fild	 DWORD PTR tv5257[ebp]
  00109	85 c0		 test	 eax, eax
  0010b	79 06		 jns	 SHORT $LN664@SetActionS
  0010d	d8 05 00 00 00
	00		 fadd	 DWORD PTR __real@4f800000
$LN664@SetActionS:
  00113	8d 85 b0 7f ff
	ff		 lea	 eax, DWORD PTR _value$557366[ebp]
  00119	d9 9d b0 7f ff
	ff		 fstp	 DWORD PTR _value$557366[ebp]
  0011f	50		 push	 eax
  00120	8d 8e a4 09 00
	00		 lea	 ecx, DWORD PTR [esi+2468]
  00126	e8 00 00 00 00	 call	 ?EncryptValueToPool@?$CEncrypt@M@@AAEXPBD@Z ; CEncrypt<float>::EncryptValueToPool
$LN34@SetActionS:

; 408  : 	}
; 409  : 
; 410  : 	float fCurChargeAniRate = FLOAT1;

  0012b	b8 01 00 00 00	 mov	 eax, 1
  00130	89 85 ac 7f ff
	ff		 mov	 DWORD PTR tv5252[ebp], eax
  00136	db 85 ac 7f ff
	ff		 fild	 DWORD PTR tv5252[ebp]
  0013c	85 c0		 test	 eax, eax
  0013e	79 06		 jns	 SHORT $LN665@SetActionS
  00140	d8 05 00 00 00
	00		 fadd	 DWORD PTR __real@4f800000
$LN665@SetActionS:
  00146	d9 9d a0 7f ff
	ff		 fstp	 DWORD PTR _fCurChargeAniRate$[ebp]

; 411  : 	float fCurForceSlidingRate = FLOAT1;

  0014c	b8 01 00 00 00	 mov	 eax, 1
  00151	89 85 ac 7f ff
	ff		 mov	 DWORD PTR tv5248[ebp], eax
  00157	db 85 ac 7f ff
	ff		 fild	 DWORD PTR tv5248[ebp]
  0015d	85 c0		 test	 eax, eax
  0015f	79 06		 jns	 SHORT $LN666@SetActionS
  00161	d8 05 00 00 00
	00		 fadd	 DWORD PTR __real@4f800000
$LN666@SetActionS:

; 412  : 	if( m_fCurChargeRate > 0.0f )

  00167	8d 85 b0 7f ff
	ff		 lea	 eax, DWORD PTR _value$557382[ebp]
  0016d	d9 9d 90 7f ff
	ff		 fstp	 DWORD PTR _fCurForceSlidingRate$[ebp]
  00173	50		 push	 eax
  00174	8d 8e a4 09 00
	00		 lea	 ecx, DWORD PTR [esi+2468]
  0017a	e8 00 00 00 00	 call	 ?DecryptValueToPool@?$CEncrypt@M@@QAEXPAM@Z ; CEncrypt<float>::DecryptValueToPool
  0017f	f3 0f 10 85 b0
	7f ff ff	 movss	 xmm0, DWORD PTR _value$557382[ebp]
  00187	0f 2f 05 00 00
	00 00		 comiss	 xmm0, DWORD PTR __real@00000000
  0018e	0f 86 3e 02 00
	00		 jbe	 $LN9@SetActionS

; 413  : 	{
; 414  : 		if( m_fMaxChargeAniRate > 0.0f )

  00194	8d 85 b0 7f ff
	ff		 lea	 eax, DWORD PTR _value$557390[ebp]
  0019a	50		 push	 eax
  0019b	8d 8e c4 0a 00
	00		 lea	 ecx, DWORD PTR [esi+2756]
  001a1	e8 00 00 00 00	 call	 ?DecryptValueToPool@?$CEncrypt@M@@QAEXPAM@Z ; CEncrypt<float>::DecryptValueToPool
  001a6	f3 0f 10 85 b0
	7f ff ff	 movss	 xmm0, DWORD PTR _value$557390[ebp]
  001ae	0f 2f 05 00 00
	00 00		 comiss	 xmm0, DWORD PTR __real@00000000
  001b5	0f 86 f8 00 00
	00		 jbe	 $LN10@SetActionS

; 415  : 		{
; 416  : 			float fCurMaxAniRate = max( 0.0f, (m_fMaxChargeAniRate - FLOAT1) );

  001bb	b8 01 00 00 00	 mov	 eax, 1
  001c0	89 85 ac 7f ff
	ff		 mov	 DWORD PTR tv5240[ebp], eax
  001c6	db 85 ac 7f ff
	ff		 fild	 DWORD PTR tv5240[ebp]
  001cc	85 c0		 test	 eax, eax
  001ce	79 06		 jns	 SHORT $LN667@SetActionS
  001d0	d8 05 00 00 00
	00		 fadd	 DWORD PTR __real@4f800000
$LN667@SetActionS:
  001d6	8d 85 b0 7f ff
	ff		 lea	 eax, DWORD PTR _value$557398[ebp]
  001dc	d9 9d a8 7f ff
	ff		 fstp	 DWORD PTR $T557332[ebp]
  001e2	50		 push	 eax
  001e3	8d 8e c4 0a 00
	00		 lea	 ecx, DWORD PTR [esi+2756]
  001e9	e8 00 00 00 00	 call	 ?DecryptValueToPool@?$CEncrypt@M@@QAEXPAM@Z ; CEncrypt<float>::DecryptValueToPool
  001ee	d9 85 b0 7f ff
	ff		 fld	 DWORD PTR _value$557398[ebp]
  001f4	d8 a5 a8 7f ff
	ff		 fsub	 DWORD PTR $T557332[ebp]
  001fa	d9 9d b0 7f ff
	ff		 fstp	 DWORD PTR tv5237[ebp]
  00200	d9 85 b0 7f ff
	ff		 fld	 DWORD PTR tv5237[ebp]
  00206	d9 ee		 fldz
  00208	df f1		 fcomip	 ST(1)
  0020a	dd d8		 fstp	 ST(0)
  0020c	76 0d		 jbe	 SHORT $LN19@SetActionS
  0020e	0f 57 c0	 xorps	 xmm0, xmm0
  00211	f3 0f 11 85 a8
	7f ff ff	 movss	 DWORD PTR _fCurMaxAniRate$548388[ebp], xmm0
  00219	eb 51		 jmp	 SHORT $LN20@SetActionS
$LN19@SetActionS:
  0021b	b8 01 00 00 00	 mov	 eax, 1
  00220	89 85 ac 7f ff
	ff		 mov	 DWORD PTR tv5226[ebp], eax
  00226	db 85 ac 7f ff
	ff		 fild	 DWORD PTR tv5226[ebp]
  0022c	85 c0		 test	 eax, eax
  0022e	79 06		 jns	 SHORT $LN668@SetActionS
  00230	d8 05 00 00 00
	00		 fadd	 DWORD PTR __real@4f800000
$LN668@SetActionS:
  00236	8d 85 b0 7f ff
	ff		 lea	 eax, DWORD PTR _value$557406[ebp]
  0023c	d9 9d a8 7f ff
	ff		 fstp	 DWORD PTR $T557333[ebp]
  00242	50		 push	 eax
  00243	8d 8e c4 0a 00
	00		 lea	 ecx, DWORD PTR [esi+2756]
  00249	e8 00 00 00 00	 call	 ?DecryptValueToPool@?$CEncrypt@M@@QAEXPAM@Z ; CEncrypt<float>::DecryptValueToPool
  0024e	d9 85 b0 7f ff
	ff		 fld	 DWORD PTR _value$557406[ebp]
  00254	d8 a5 a8 7f ff
	ff		 fsub	 DWORD PTR $T557333[ebp]
  0025a	d9 9d b0 7f ff
	ff		 fstp	 DWORD PTR tv5223[ebp]
  00260	d9 85 b0 7f ff
	ff		 fld	 DWORD PTR tv5223[ebp]
  00266	d9 9d a8 7f ff
	ff		 fstp	 DWORD PTR _fCurMaxAniRate$548388[ebp]
$LN20@SetActionS:

; 417  : 			fCurChargeAniRate += fCurMaxAniRate * m_fCurChargeRate;

  0026c	8d 85 b0 7f ff
	ff		 lea	 eax, DWORD PTR _value$557410[ebp]
  00272	50		 push	 eax
  00273	8d 8e a4 09 00
	00		 lea	 ecx, DWORD PTR [esi+2468]
  00279	e8 00 00 00 00	 call	 ?DecryptValueToPool@?$CEncrypt@M@@QAEXPAM@Z ; CEncrypt<float>::DecryptValueToPool
  0027e	f3 0f 10 85 b0
	7f ff ff	 movss	 xmm0, DWORD PTR _value$557410[ebp]
  00286	f3 0f 10 8d a8
	7f ff ff	 movss	 xmm1, DWORD PTR _fCurMaxAniRate$548388[ebp]
  0028e	0f 5a c0	 cvtps2pd xmm0, xmm0
  00291	0f 5a c9	 cvtps2pd xmm1, xmm1
  00294	f2 0f 59 c1	 mulsd	 xmm0, xmm1
  00298	f3 0f 10 8d a0
	7f ff ff	 movss	 xmm1, DWORD PTR _fCurChargeAniRate$[ebp]
  002a0	0f 5a c9	 cvtps2pd xmm1, xmm1
  002a3	f2 0f 58 c1	 addsd	 xmm0, xmm1
  002a7	66 0f 5a c0	 cvtpd2ps xmm0, xmm0
  002ab	f3 0f 11 85 a0
	7f ff ff	 movss	 DWORD PTR _fCurChargeAniRate$[ebp], xmm0
$LN10@SetActionS:

; 418  : 		}
; 419  : 
; 420  : 		if( m_fMaxForceSlidingRate > 0.0f )

  002b3	8d 85 b0 7f ff
	ff		 lea	 eax, DWORD PTR _value$557418[ebp]
  002b9	50		 push	 eax
  002ba	8d 8e f4 0a 00
	00		 lea	 ecx, DWORD PTR [esi+2804]
  002c0	e8 00 00 00 00	 call	 ?DecryptValueToPool@?$CEncrypt@M@@QAEXPAM@Z ; CEncrypt<float>::DecryptValueToPool
  002c5	f3 0f 10 85 b0
	7f ff ff	 movss	 xmm0, DWORD PTR _value$557418[ebp]
  002cd	0f 2f 05 00 00
	00 00		 comiss	 xmm0, DWORD PTR __real@00000000
  002d4	0f 86 f8 00 00
	00		 jbe	 $LN9@SetActionS

; 421  : 		{
; 422  : 			float fCurMaxSlidingRate = max( 0.0f, (m_fMaxForceSlidingRate - FLOAT1) );

  002da	b8 01 00 00 00	 mov	 eax, 1
  002df	89 85 ac 7f ff
	ff		 mov	 DWORD PTR tv5212[ebp], eax
  002e5	db 85 ac 7f ff
	ff		 fild	 DWORD PTR tv5212[ebp]
  002eb	85 c0		 test	 eax, eax
  002ed	79 06		 jns	 SHORT $LN669@SetActionS
  002ef	d8 05 00 00 00
	00		 fadd	 DWORD PTR __real@4f800000
$LN669@SetActionS:
  002f5	8d 85 b0 7f ff
	ff		 lea	 eax, DWORD PTR _value$557426[ebp]
  002fb	d9 9d a8 7f ff
	ff		 fstp	 DWORD PTR $T557337[ebp]
  00301	50		 push	 eax
  00302	8d 8e f4 0a 00
	00		 lea	 ecx, DWORD PTR [esi+2804]
  00308	e8 00 00 00 00	 call	 ?DecryptValueToPool@?$CEncrypt@M@@QAEXPAM@Z ; CEncrypt<float>::DecryptValueToPool
  0030d	d9 85 b0 7f ff
	ff		 fld	 DWORD PTR _value$557426[ebp]
  00313	d8 a5 a8 7f ff
	ff		 fsub	 DWORD PTR $T557337[ebp]
  00319	d9 9d b0 7f ff
	ff		 fstp	 DWORD PTR tv5209[ebp]
  0031f	d9 85 b0 7f ff
	ff		 fld	 DWORD PTR tv5209[ebp]
  00325	d9 ee		 fldz
  00327	df f1		 fcomip	 ST(1)
  00329	dd d8		 fstp	 ST(0)
  0032b	76 0d		 jbe	 SHORT $LN21@SetActionS
  0032d	0f 57 c0	 xorps	 xmm0, xmm0
  00330	f3 0f 11 85 a8
	7f ff ff	 movss	 DWORD PTR _fCurMaxSlidingRate$548395[ebp], xmm0
  00338	eb 51		 jmp	 SHORT $LN22@SetActionS
$LN21@SetActionS:
  0033a	b8 01 00 00 00	 mov	 eax, 1
  0033f	89 85 ac 7f ff
	ff		 mov	 DWORD PTR tv5198[ebp], eax
  00345	db 85 ac 7f ff
	ff		 fild	 DWORD PTR tv5198[ebp]
  0034b	85 c0		 test	 eax, eax
  0034d	79 06		 jns	 SHORT $LN670@SetActionS
  0034f	d8 05 00 00 00
	00		 fadd	 DWORD PTR __real@4f800000
$LN670@SetActionS:
  00355	8d 85 b0 7f ff
	ff		 lea	 eax, DWORD PTR _value$557434[ebp]
  0035b	d9 9d a8 7f ff
	ff		 fstp	 DWORD PTR $T557338[ebp]
  00361	50		 push	 eax
  00362	8d 8e f4 0a 00
	00		 lea	 ecx, DWORD PTR [esi+2804]
  00368	e8 00 00 00 00	 call	 ?DecryptValueToPool@?$CEncrypt@M@@QAEXPAM@Z ; CEncrypt<float>::DecryptValueToPool
  0036d	d9 85 b0 7f ff
	ff		 fld	 DWORD PTR _value$557434[ebp]
  00373	d8 a5 a8 7f ff
	ff		 fsub	 DWORD PTR $T557338[ebp]
  00379	d9 9d b0 7f ff
	ff		 fstp	 DWORD PTR tv5195[ebp]
  0037f	d9 85 b0 7f ff
	ff		 fld	 DWORD PTR tv5195[ebp]
  00385	d9 9d a8 7f ff
	ff		 fstp	 DWORD PTR _fCurMaxSlidingRate$548395[ebp]
$LN22@SetActionS:

; 423  : 			fCurForceSlidingRate += fCurMaxSlidingRate * m_fCurChargeRate;

  0038b	8d 85 b0 7f ff
	ff		 lea	 eax, DWORD PTR _value$557438[ebp]
  00391	50		 push	 eax
  00392	8d 8e a4 09 00
	00		 lea	 ecx, DWORD PTR [esi+2468]
  00398	e8 00 00 00 00	 call	 ?DecryptValueToPool@?$CEncrypt@M@@QAEXPAM@Z ; CEncrypt<float>::DecryptValueToPool
  0039d	f3 0f 10 85 b0
	7f ff ff	 movss	 xmm0, DWORD PTR _value$557438[ebp]
  003a5	f3 0f 10 8d a8
	7f ff ff	 movss	 xmm1, DWORD PTR _fCurMaxSlidingRate$548395[ebp]
  003ad	0f 5a c0	 cvtps2pd xmm0, xmm0
  003b0	0f 5a c9	 cvtps2pd xmm1, xmm1
  003b3	f2 0f 59 c1	 mulsd	 xmm0, xmm1
  003b7	f3 0f 10 8d 90
	7f ff ff	 movss	 xmm1, DWORD PTR _fCurForceSlidingRate$[ebp]
  003bf	0f 5a c9	 cvtps2pd xmm1, xmm1
  003c2	f2 0f 58 c1	 addsd	 xmm0, xmm1
  003c6	66 0f 5a c0	 cvtpd2ps xmm0, xmm0
  003ca	f3 0f 11 85 90
	7f ff ff	 movss	 DWORD PTR _fCurForceSlidingRate$[ebp], xmm0
$LN9@SetActionS:

; 424  : 		}
; 425  : 	}
; 426  : 	//
; 427  : 
; 428  : 	int iAniID = pGrp->GetAnimationIdx( m_AttackAttribute.m_AttackAnimation );

  003d2	8b 8d a4 7f ff
	ff		 mov	 ecx, DWORD PTR _pGrp$[ebp]
  003d8	8d 86 8c 0f 00
	00		 lea	 eax, DWORD PTR [esi+3980]
  003de	50		 push	 eax
  003df	ff 15 00 00 00
	00		 call	 DWORD PTR __imp_?GetAnimationIdx@ioEntityGroup@@QAEHABVioHashString@@@Z

; 429  : 	float fAniRate = m_AttackAttribute.m_fAttackAniRate * fCurChargeAniRate;

  003e5	f3 0f 10 86 9c
	0f 00 00	 movss	 xmm0, DWORD PTR [esi+3996]
  003ed	f3 0f 10 8d a0
	7f ff ff	 movss	 xmm1, DWORD PTR _fCurChargeAniRate$[ebp]
  003f5	0f 5a c0	 cvtps2pd xmm0, xmm0
  003f8	0f 5a c9	 cvtps2pd xmm1, xmm1
  003fb	f2 0f 59 c1	 mulsd	 xmm0, xmm1

; 430  : 	if( fAniRate <= 0.0f )

  003ff	0f 57 c9	 xorps	 xmm1, xmm1
  00402	66 0f 5a c0	 cvtpd2ps xmm0, xmm0
  00406	0f 2f c8	 comiss	 xmm1, xmm0
  00409	8b d8		 mov	 ebx, eax
  0040b	89 9d a8 7f ff
	ff		 mov	 DWORD PTR _iAniID$[ebp], ebx
  00411	f3 0f 11 85 9c
	7f ff ff	 movss	 DWORD PTR _fAniRate$[ebp], xmm0
  00419	72 21		 jb	 SHORT $LN8@SetActionS

; 431  : 		fAniRate = FLOAT1;

  0041b	b8 01 00 00 00	 mov	 eax, 1
  00420	89 85 ac 7f ff
	ff		 mov	 DWORD PTR tv5182[ebp], eax
  00426	db 85 ac 7f ff
	ff		 fild	 DWORD PTR tv5182[ebp]
  0042c	85 c0		 test	 eax, eax
  0042e	79 06		 jns	 SHORT $LN671@SetActionS
  00430	d8 05 00 00 00
	00		 fadd	 DWORD PTR __real@4f800000
$LN671@SetActionS:
  00436	d9 9d 9c 7f ff
	ff		 fstp	 DWORD PTR _fAniRate$[ebp]
$LN8@SetActionS:

; 432  : 
; 433  : 	DWORD dwPreDelay = m_AttackAttribute.m_dwPreDelay;

  0043c	8b be d4 0f 00
	00		 mov	 edi, DWORD PTR [esi+4052]
  00442	89 bd a0 7f ff
	ff		 mov	 DWORD PTR _dwPreDelay$[ebp], edi

; 434  : 
; 435  : 	pGrp->ClearAllActionAni( FLOAT100, true );

  00448	b8 64 00 00 00	 mov	 eax, 100		; 00000064H
  0044d	89 85 ac 7f ff
	ff		 mov	 DWORD PTR tv5178[ebp], eax
  00453	db 85 ac 7f ff
	ff		 fild	 DWORD PTR tv5178[ebp]
  00459	6a 01		 push	 1
  0045b	85 c0		 test	 eax, eax
  0045d	79 06		 jns	 SHORT $LN672@SetActionS
  0045f	d8 05 00 00 00
	00		 fadd	 DWORD PTR __real@4f800000
$LN672@SetActionS:
  00465	51		 push	 ecx
  00466	8b 8d a4 7f ff
	ff		 mov	 ecx, DWORD PTR _pGrp$[ebp]
  0046c	d9 1c 24	 fstp	 DWORD PTR [esp]
  0046f	ff 15 00 00 00
	00		 call	 DWORD PTR __imp_?ClearAllActionAni@ioEntityGroup@@QAEXM_N@Z

; 436  : 	pGrp->ClearAllLoopAni( FLOAT100, true );

  00475	b8 64 00 00 00	 mov	 eax, 100		; 00000064H
  0047a	89 85 ac 7f ff
	ff		 mov	 DWORD PTR tv5173[ebp], eax
  00480	db 85 ac 7f ff
	ff		 fild	 DWORD PTR tv5173[ebp]
  00486	6a 01		 push	 1
  00488	85 c0		 test	 eax, eax
  0048a	79 06		 jns	 SHORT $LN673@SetActionS
  0048c	d8 05 00 00 00
	00		 fadd	 DWORD PTR __real@4f800000
$LN673@SetActionS:
  00492	51		 push	 ecx
  00493	8b 8d a4 7f ff
	ff		 mov	 ecx, DWORD PTR _pGrp$[ebp]
  00499	d9 1c 24	 fstp	 DWORD PTR [esp]
  0049c	ff 15 00 00 00
	00		 call	 DWORD PTR __imp_?ClearAllLoopAni@ioEntityGroup@@QAEXM_N@Z

; 437  : 
; 438  : 	if( iAniID != -1 )

  004a2	83 fb ff	 cmp	 ebx, -1
  004a5	0f 84 d6 00 00
	00		 je	 $LN7@SetActionS

; 439  : 		pGrp->SetActionAni( iAniID, FLOAT100, FLOAT100, FLOAT1, FLOAT1/fAniRate, 0.0f, dwPreDelay, true );

  004ab	b8 01 00 00 00	 mov	 eax, 1
  004b0	8b c8		 mov	 ecx, eax
  004b2	b8 01 00 00 00	 mov	 eax, 1
  004b7	8b d0		 mov	 edx, eax
  004b9	b8 64 00 00 00	 mov	 eax, 100		; 00000064H
  004be	89 85 94 7f ff
	ff		 mov	 DWORD PTR $T557462[ebp], eax
  004c4	b8 64 00 00 00	 mov	 eax, 100		; 00000064H
  004c9	89 85 ac 7f ff
	ff		 mov	 DWORD PTR $T557466[ebp], eax
  004cf	8b c7		 mov	 eax, edi
  004d1	6a 01		 push	 1
  004d3	89 85 b0 7f ff
	ff		 mov	 DWORD PTR tv5165[ebp], eax
  004d9	db 85 b0 7f ff
	ff		 fild	 DWORD PTR tv5165[ebp]
  004df	6a 01		 push	 1
  004e1	85 c0		 test	 eax, eax
  004e3	79 06		 jns	 SHORT $LN674@SetActionS
  004e5	d8 05 00 00 00
	00		 fadd	 DWORD PTR __real@4f800000
$LN674@SetActionS:
  004eb	0f 57 c0	 xorps	 xmm0, xmm0
  004ee	83 ec 18	 sub	 esp, 24			; 00000018H
  004f1	d9 5c 24 14	 fstp	 DWORD PTR [esp+20]
  004f5	89 8d b0 7f ff
	ff		 mov	 DWORD PTR tv5163[ebp], ecx
  004fb	db 85 b0 7f ff
	ff		 fild	 DWORD PTR tv5163[ebp]
  00501	f3 0f 11 44 24
	10		 movss	 DWORD PTR [esp+16], xmm0
  00507	85 c9		 test	 ecx, ecx
  00509	79 06		 jns	 SHORT $LN675@SetActionS
  0050b	d8 05 00 00 00
	00		 fadd	 DWORD PTR __real@4f800000
$LN675@SetActionS:
  00511	d8 b5 9c 7f ff
	ff		 fdiv	 DWORD PTR _fAniRate$[ebp]
  00517	d9 9d b0 7f ff
	ff		 fstp	 DWORD PTR tv5160[ebp]
  0051d	d9 85 b0 7f ff
	ff		 fld	 DWORD PTR tv5160[ebp]
  00523	d9 5c 24 0c	 fstp	 DWORD PTR [esp+12]
  00527	89 95 b0 7f ff
	ff		 mov	 DWORD PTR tv5158[ebp], edx
  0052d	db 85 b0 7f ff
	ff		 fild	 DWORD PTR tv5158[ebp]
  00533	85 d2		 test	 edx, edx
  00535	79 06		 jns	 SHORT $LN676@SetActionS
  00537	d8 05 00 00 00
	00		 fadd	 DWORD PTR __real@4f800000
$LN676@SetActionS:
  0053d	8b 85 94 7f ff
	ff		 mov	 eax, DWORD PTR $T557462[ebp]
  00543	d9 5c 24 08	 fstp	 DWORD PTR [esp+8]
  00547	db 85 94 7f ff
	ff		 fild	 DWORD PTR $T557462[ebp]
  0054d	85 c0		 test	 eax, eax
  0054f	79 06		 jns	 SHORT $LN677@SetActionS
  00551	d8 05 00 00 00
	00		 fadd	 DWORD PTR __real@4f800000
$LN677@SetActionS:
  00557	8b 85 ac 7f ff
	ff		 mov	 eax, DWORD PTR $T557466[ebp]
  0055d	d9 5c 24 04	 fstp	 DWORD PTR [esp+4]
  00561	db 85 ac 7f ff
	ff		 fild	 DWORD PTR $T557466[ebp]
  00567	85 c0		 test	 eax, eax
  00569	79 06		 jns	 SHORT $LN678@SetActionS
  0056b	d8 05 00 00 00
	00		 fadd	 DWORD PTR __real@4f800000
$LN678@SetActionS:
  00571	8b 8d a4 7f ff
	ff		 mov	 ecx, DWORD PTR _pGrp$[ebp]
  00577	d9 1c 24	 fstp	 DWORD PTR [esp]
  0057a	53		 push	 ebx
  0057b	ff 15 00 00 00
	00		 call	 DWORD PTR __imp_?SetActionAni@ioEntityGroup@@QAE_NHMMMMMM_N0@Z
$LN7@SetActionS:

; 440  : 
; 441  : 	// Attack
; 442  : 	if( !m_AttackAttribute.m_vWeaponInfoList.empty() )

  00581	8d 86 b4 0f 00
	00		 lea	 eax, DWORD PTR [esi+4020]
  00587	8b 08		 mov	 ecx, DWORD PTR [eax]
  00589	3b 48 04	 cmp	 ecx, DWORD PTR [eax+4]
  0058c	74 23		 je	 SHORT $LN6@SetActionS

; 443  : 	{
; 444  : 		pChar->RefreshFireTimeListWithBase( m_dwWeaponBaseIndex,
; 445  : 											iAniID,
; 446  : 											m_AttackAttribute.m_vWeaponInfoList,
; 447  : 											FTT_SKILL_ATTACK,
; 448  : 											fAniRate,
; 449  : 											dwPreDelay );

  0058e	f3 0f 10 85 9c
	7f ff ff	 movss	 xmm0, DWORD PTR _fAniRate$[ebp]
  00596	6a 00		 push	 0
  00598	57		 push	 edi
  00599	51		 push	 ecx
  0059a	8b 8d 8c 7f ff
	ff		 mov	 ecx, DWORD PTR _pChar$GSCopy$[ebp]
  005a0	f3 0f 11 04 24	 movss	 DWORD PTR [esp], xmm0
  005a5	6a 04		 push	 4
  005a7	50		 push	 eax
  005a8	53		 push	 ebx
  005a9	ff 76 78	 push	 DWORD PTR [esi+120]
  005ac	e8 00 00 00 00	 call	 ?RefreshFireTimeListWithBase@ioBaseChar@@QAEXKHABV?$vector@UWeaponInfo@@V?$allocator@UWeaponInfo@@@std@@@std@@W4FireTimeType@@MK_N@Z ; ioBaseChar::RefreshFireTimeListWithBase
$LN6@SetActionS:

; 450  : 	}
; 451  : 
; 452  : 	m_dwMotionStartTime = dwCurTime;

  005b1	8b 85 98 7f ff
	ff		 mov	 eax, DWORD PTR _dwCurTime$[ebp]
  005b7	89 85 ac 7f ff
	ff		 mov	 DWORD PTR _value$557474[ebp], eax
  005bd	8d 85 ac 7f ff
	ff		 lea	 eax, DWORD PTR _value$557474[ebp]
  005c3	50		 push	 eax
  005c4	8d 8e a8 02 00
	00		 lea	 ecx, DWORD PTR [esi+680]
  005ca	e8 00 00 00 00	 call	 ?EncryptValueToPool@?$CEncrypt@K@@AAEXPBD@Z ; CEncrypt<unsigned long>::EncryptValueToPool

; 453  : 	m_dwMotionEndTime = m_dwMotionStartTime + pGrp->GetAnimationFullTime( iAniID ) * fAniRate;

  005cf	8b 8d a4 7f ff
	ff		 mov	 ecx, DWORD PTR _pGrp$[ebp]
  005d5	53		 push	 ebx
  005d6	ff 15 00 00 00
	00		 call	 DWORD PTR __imp_?GetAnimationFullTime@ioEntityGroup@@QAEMH@Z
  005dc	d8 8d 9c 7f ff
	ff		 fmul	 DWORD PTR _fAniRate$[ebp]
  005e2	8d 85 ac 7f ff
	ff		 lea	 eax, DWORD PTR $T557341[ebp]
  005e8	50		 push	 eax
  005e9	8d 8e a8 02 00
	00		 lea	 ecx, DWORD PTR [esi+680]
  005ef	d9 9d ac 7f ff
	ff		 fstp	 DWORD PTR $T557341[ebp]
  005f5	e8 00 00 00 00	 call	 ??H?$CEncrypt@K@@QAEKABM@Z ; CEncrypt<unsigned long>::operator+

; 454  : 	m_dwMotionEndTime += m_dwAnimationEndDelay;

  005fa	8b 8e 54 0f 00
	00		 mov	 ecx, DWORD PTR [esi+3924]
  00600	03 c8		 add	 ecx, eax

; 455  : 
; 456  : 	m_dwFireMotionEndTime = dwCurTime;

  00602	8b 85 98 7f ff
	ff		 mov	 eax, DWORD PTR _dwCurTime$[ebp]
  00608	6a 03		 push	 3
  0060a	89 8e d8 02 00
	00		 mov	 DWORD PTR [esi+728], ecx
  00610	89 86 24 02 00
	00		 mov	 DWORD PTR [esi+548], eax

; 457  : 	m_dwFireMotionEndTime += pGrp->GetAnimationEventTime_e( iAniID, "firemotion_e" ) * fAniRate;

  00616	c7 45 cc 8b 85
	99 8f		 mov	 DWORD PTR _szEncEventType$557508[ebp], -1885764213 ; 8f99858bH
  0061d	c7 45 d0 80 83
	9f 83		 mov	 DWORD PTR _szEncEventType$557508[ebp+4], -2086698112 ; 839f8380H
  00624	c7 45 d4 82 82
	b4 8f		 mov	 DWORD PTR _szEncEventType$557508[ebp+8], -1883995518 ; 8fb48282H
  0062b	8d 45 cc	 lea	 eax, DWORD PTR _szEncEventType$557508[ebp]
  0062e	c6 45 d8 00	 mov	 BYTE PTR _szEncEventType$557508[ebp+12], 0
  00632	59		 pop	 ecx
$LL194@SetActionS:
  00633	81 30 ed ec eb
	ea		 xor	 DWORD PTR [eax], -353637139 ; eaebecedH
  00639	83 c0 04	 add	 eax, 4
  0063c	49		 dec	 ecx
  0063d	75 f4		 jne	 SHORT $LL194@SetActionS
  0063f	8b 1d 00 00 00
	00		 mov	 ebx, DWORD PTR __imp_??0ioHashString@@QAE@PBD@Z
  00645	8d 45 cc	 lea	 eax, DWORD PTR _szEncEventType$557508[ebp]
  00648	50		 push	 eax
  00649	8d 4d e0	 lea	 ecx, DWORD PTR $T557495[ebp]
  0064c	ff d3		 call	 ebx
  0064e	8b 8d a4 7f ff
	ff		 mov	 ecx, DWORD PTR _pGrp$[ebp]
  00654	83 65 fc 00	 and	 DWORD PTR __$EHRec$[ebp+8], 0
  00658	8d 45 e0	 lea	 eax, DWORD PTR $T557495[ebp]
  0065b	50		 push	 eax
  0065c	ff b5 a8 7f ff
	ff		 push	 DWORD PTR _iAniID$[ebp]
  00662	ff 15 00 00 00
	00		 call	 DWORD PTR __imp_?GetAnimationEventTime@ioEntityGroup@@QAEMHABVioHashString@@@Z
  00668	d9 9d ac 7f ff
	ff		 fstp	 DWORD PTR $T557494[ebp]
  0066e	83 4d fc ff	 or	 DWORD PTR __$EHRec$[ebp+8], -1
  00672	8d 4d e0	 lea	 ecx, DWORD PTR $T557495[ebp]
  00675	ff 15 00 00 00
	00		 call	 DWORD PTR __imp_??1ioHashString@@QAE@XZ
  0067b	d9 85 ac 7f ff
	ff		 fld	 DWORD PTR $T557494[ebp]
  00681	8b 86 24 02 00
	00		 mov	 eax, DWORD PTR [esi+548]
  00687	d8 8d 9c 7f ff
	ff		 fmul	 DWORD PTR _fAniRate$[ebp]
  0068d	db 86 24 02 00
	00		 fild	 DWORD PTR [esi+548]
  00693	85 c0		 test	 eax, eax
  00695	79 06		 jns	 SHORT $LN679@SetActionS
  00697	dc 05 00 00 00
	00		 fadd	 QWORD PTR __real@41f0000000000000
$LN679@SetActionS:
  0069d	de c1		 faddp	 ST(1), ST(0)
  0069f	e8 00 00 00 00	 call	 __ftol2
  006a4	89 86 24 02 00
	00		 mov	 DWORD PTR [esi+548], eax

; 458  : 
; 459  : 	m_dwEnableReserveTime = dwCurTime;

  006aa	8b 85 98 7f ff
	ff		 mov	 eax, DWORD PTR _dwCurTime$[ebp]
  006b0	6a 02		 push	 2
  006b2	89 86 dc 02 00
	00		 mov	 DWORD PTR [esi+732], eax

; 460  : 	m_dwEnableReserveTime += pGrp->GetAnimationEventTime_e( iAniID, "key_reserve" );

  006b8	c7 45 e0 86 89
	92 b5		 mov	 DWORD PTR _szEncEventType$557638[ebp], -1248687738 ; b5928986H
  006bf	c7 45 e4 9f 89
	98 8f		 mov	 DWORD PTR _szEncEventType$557638[ebp+4], -1885828705 ; 8f98899fH
  006c6	8d 45 e0	 lea	 eax, DWORD PTR _szEncEventType$557638[ebp]
  006c9	c7 45 e8 9f 9a
	8e 00		 mov	 DWORD PTR _szEncEventType$557638[ebp+8], 9345695 ; 008e9a9fH
  006d0	59		 pop	 ecx
$LL301@SetActionS:
  006d1	81 30 ed ec eb
	ea		 xor	 DWORD PTR [eax], -353637139 ; eaebecedH
  006d7	83 c0 04	 add	 eax, 4
  006da	49		 dec	 ecx
  006db	75 f4		 jne	 SHORT $LL301@SetActionS
  006dd	6a 08		 push	 8
  006df	58		 pop	 eax
$LL298@SetActionS:
  006e0	8b c8		 mov	 ecx, eax
  006e2	81 e1 03 00 00
	80		 and	 ecx, -2147483645	; 80000003H
  006e8	79 05		 jns	 SHORT $LN680@SetActionS
  006ea	49		 dec	 ecx
  006eb	83 c9 fc	 or	 ecx, -4			; fffffffcH
  006ee	41		 inc	 ecx
$LN680@SetActionS:
  006ef	b2 ed		 mov	 dl, -19			; ffffffedH
  006f1	2a d1		 sub	 dl, cl
  006f3	30 54 05 e0	 xor	 BYTE PTR _szEncEventType$557638[ebp+eax], dl
  006f7	40		 inc	 eax
  006f8	83 f8 0b	 cmp	 eax, 11			; 0000000bH
  006fb	7c e3		 jl	 SHORT $LL298@SetActionS
  006fd	8d 45 e0	 lea	 eax, DWORD PTR _szEncEventType$557638[ebp]
  00700	50		 push	 eax
  00701	8d 4d cc	 lea	 ecx, DWORD PTR $T557625[ebp]
  00704	ff d3		 call	 ebx
  00706	8b 8d a4 7f ff
	ff		 mov	 ecx, DWORD PTR _pGrp$[ebp]
  0070c	8d 45 cc	 lea	 eax, DWORD PTR $T557625[ebp]
  0070f	50		 push	 eax
  00710	ff b5 a8 7f ff
	ff		 push	 DWORD PTR _iAniID$[ebp]
  00716	c7 45 fc 01 00
	00 00		 mov	 DWORD PTR __$EHRec$[ebp+8], 1
  0071d	ff 15 00 00 00
	00		 call	 DWORD PTR __imp_?GetAnimationEventTime@ioEntityGroup@@QAEMHABVioHashString@@@Z
  00723	d9 9d ac 7f ff
	ff		 fstp	 DWORD PTR $T557624[ebp]
  00729	83 4d fc ff	 or	 DWORD PTR __$EHRec$[ebp+8], -1
  0072d	8d 4d cc	 lea	 ecx, DWORD PTR $T557625[ebp]
  00730	ff 15 00 00 00
	00		 call	 DWORD PTR __imp_??1ioHashString@@QAE@XZ
  00736	db 86 dc 02 00
	00		 fild	 DWORD PTR [esi+732]
  0073c	8b 86 dc 02 00
	00		 mov	 eax, DWORD PTR [esi+732]
  00742	85 c0		 test	 eax, eax
  00744	79 06		 jns	 SHORT $LN681@SetActionS
  00746	d8 05 00 00 00
	00		 fadd	 DWORD PTR __real@4f800000
$LN681@SetActionS:
  0074c	d8 85 ac 7f ff
	ff		 fadd	 DWORD PTR $T557624[ebp]
  00752	e8 00 00 00 00	 call	 __ftol2

; 461  : 
; 462  : 	float fFireStart = pGrp->GetAnimationEventTime_e( iAniID, "fire_s" );

  00757	6a 04		 push	 4
  00759	c7 45 e4 8b 85
	99 8f		 mov	 DWORD PTR _szEncEventType$557768[ebp], -1885764213 ; 8f99858bH
  00760	81 75 e4 ed ec
	eb ea		 xor	 DWORD PTR _szEncEventType$557768[ebp], -353637139 ; eaebecedH
  00767	89 86 dc 02 00
	00		 mov	 DWORD PTR [esi+732], eax
  0076d	66 c7 45 e8 b2
	9f		 mov	 WORD PTR _szEncEventType$557768[ebp+4], 40882 ; 00009fb2H
  00773	c6 45 ea 00	 mov	 BYTE PTR _szEncEventType$557768[ebp+6], 0
  00777	5f		 pop	 edi
$LL405@SetActionS:
  00778	8b c7		 mov	 eax, edi
  0077a	25 03 00 00 80	 and	 eax, -2147483645	; 80000003H
  0077f	79 05		 jns	 SHORT $LN682@SetActionS
  00781	48		 dec	 eax
  00782	83 c8 fc	 or	 eax, -4			; fffffffcH
  00785	40		 inc	 eax
$LN682@SetActionS:
  00786	b1 ed		 mov	 cl, -19			; ffffffedH
  00788	2a c8		 sub	 cl, al
  0078a	30 4c 3d e4	 xor	 BYTE PTR _szEncEventType$557768[ebp+edi], cl
  0078e	47		 inc	 edi
  0078f	83 ff 06	 cmp	 edi, 6
  00792	7c e4		 jl	 SHORT $LL405@SetActionS
  00794	8d 45 e4	 lea	 eax, DWORD PTR _szEncEventType$557768[ebp]
  00797	50		 push	 eax
  00798	8d 4d cc	 lea	 ecx, DWORD PTR $T557755[ebp]
  0079b	ff d3		 call	 ebx
  0079d	8b 8d a4 7f ff
	ff		 mov	 ecx, DWORD PTR _pGrp$[ebp]
  007a3	8d 45 cc	 lea	 eax, DWORD PTR $T557755[ebp]
  007a6	50		 push	 eax
  007a7	ff b5 a8 7f ff
	ff		 push	 DWORD PTR _iAniID$[ebp]
  007ad	c7 45 fc 02 00
	00 00		 mov	 DWORD PTR __$EHRec$[ebp+8], 2
  007b4	ff 15 00 00 00
	00		 call	 DWORD PTR __imp_?GetAnimationEventTime@ioEntityGroup@@QAEMHABVioHashString@@@Z
  007ba	d9 9d b0 7f ff
	ff		 fstp	 DWORD PTR $T557754[ebp]
  007c0	8b 3d 00 00 00
	00		 mov	 edi, DWORD PTR __imp_??1ioHashString@@QAE@XZ
  007c6	83 4d fc ff	 or	 DWORD PTR __$EHRec$[ebp+8], -1
  007ca	8d 4d cc	 lea	 ecx, DWORD PTR $T557755[ebp]
  007cd	ff d7		 call	 edi

; 463  : 	if( fFireStart > 0.0f )

  007cf	d9 ee		 fldz
  007d1	d9 85 b0 7f ff
	ff		 fld	 DWORD PTR $T557754[ebp]
  007d7	df f1		 fcomip	 ST(1)
  007d9	dd d8		 fstp	 ST(0)
  007db	76 3f		 jbe	 SHORT $LN5@SetActionS

; 464  : 	{
; 465  : 		m_dwFireStartTime = dwCurTime + fFireStart + dwPreDelay;

  007dd	8b 85 98 7f ff
	ff		 mov	 eax, DWORD PTR _dwCurTime$[ebp]
  007e3	db 85 98 7f ff
	ff		 fild	 DWORD PTR _dwCurTime$[ebp]
  007e9	85 c0		 test	 eax, eax
  007eb	79 06		 jns	 SHORT $LN683@SetActionS
  007ed	d8 05 00 00 00
	00		 fadd	 DWORD PTR __real@4f800000
$LN683@SetActionS:
  007f3	8b 85 a0 7f ff
	ff		 mov	 eax, DWORD PTR _dwPreDelay$[ebp]
  007f9	d8 85 b0 7f ff
	ff		 fadd	 DWORD PTR $T557754[ebp]
  007ff	db 85 a0 7f ff
	ff		 fild	 DWORD PTR _dwPreDelay$[ebp]
  00805	85 c0		 test	 eax, eax
  00807	79 06		 jns	 SHORT $LN684@SetActionS
  00809	d8 05 00 00 00
	00		 fadd	 DWORD PTR __real@4f800000
$LN684@SetActionS:
  0080f	de c1		 faddp	 ST(1), ST(0)
  00811	e8 00 00 00 00	 call	 __ftol2
  00816	89 86 f4 0f 00
	00		 mov	 DWORD PTR [esi+4084], eax
$LN5@SetActionS:

; 466  : 	}
; 467  : 
; 468  : 	float fFireEnd = pGrp->GetAnimationEventTime_e( iAniID, "fire_e" ) * fAniRate;

  0081c	6a 04		 push	 4
  0081e	c7 45 e4 8b 85
	99 8f		 mov	 DWORD PTR _szEncEventType$557898[ebp], -1885764213 ; 8f99858bH
  00825	81 75 e4 ed ec
	eb ea		 xor	 DWORD PTR _szEncEventType$557898[ebp], -353637139 ; eaebecedH
  0082c	66 c7 45 e8 b2
	89		 mov	 WORD PTR _szEncEventType$557898[ebp+4], 35250 ; 000089b2H
  00832	c6 45 ea 00	 mov	 BYTE PTR _szEncEventType$557898[ebp+6], 0
  00836	58		 pop	 eax
$LL512@SetActionS:
  00837	8b c8		 mov	 ecx, eax
  00839	81 e1 03 00 00
	80		 and	 ecx, -2147483645	; 80000003H
  0083f	79 05		 jns	 SHORT $LN685@SetActionS
  00841	49		 dec	 ecx
  00842	83 c9 fc	 or	 ecx, -4			; fffffffcH
  00845	41		 inc	 ecx
$LN685@SetActionS:
  00846	b2 ed		 mov	 dl, -19			; ffffffedH
  00848	2a d1		 sub	 dl, cl
  0084a	30 54 05 e4	 xor	 BYTE PTR _szEncEventType$557898[ebp+eax], dl
  0084e	40		 inc	 eax
  0084f	83 f8 06	 cmp	 eax, 6
  00852	7c e3		 jl	 SHORT $LL512@SetActionS
  00854	8d 45 e4	 lea	 eax, DWORD PTR _szEncEventType$557898[ebp]
  00857	50		 push	 eax
  00858	8d 4d cc	 lea	 ecx, DWORD PTR $T557885[ebp]
  0085b	ff d3		 call	 ebx
  0085d	8b 8d a4 7f ff
	ff		 mov	 ecx, DWORD PTR _pGrp$[ebp]
  00863	8d 45 cc	 lea	 eax, DWORD PTR $T557885[ebp]
  00866	50		 push	 eax
  00867	ff b5 a8 7f ff
	ff		 push	 DWORD PTR _iAniID$[ebp]
  0086d	c7 45 fc 03 00
	00 00		 mov	 DWORD PTR __$EHRec$[ebp+8], 3
  00874	ff 15 00 00 00
	00		 call	 DWORD PTR __imp_?GetAnimationEventTime@ioEntityGroup@@QAEMHABVioHashString@@@Z
  0087a	d9 9d ac 7f ff
	ff		 fstp	 DWORD PTR $T557884[ebp]
  00880	83 4d fc ff	 or	 DWORD PTR __$EHRec$[ebp+8], -1
  00884	8d 4d cc	 lea	 ecx, DWORD PTR $T557885[ebp]
  00887	ff d7		 call	 edi
  00889	f3 0f 10 85 ac
	7f ff ff	 movss	 xmm0, DWORD PTR $T557884[ebp]
  00891	f3 0f 10 8d 9c
	7f ff ff	 movss	 xmm1, DWORD PTR _fAniRate$[ebp]
  00899	0f 5a c0	 cvtps2pd xmm0, xmm0
  0089c	0f 5a c9	 cvtps2pd xmm1, xmm1
  0089f	f2 0f 59 c1	 mulsd	 xmm0, xmm1
  008a3	66 0f 5a c0	 cvtpd2ps xmm0, xmm0

; 469  : 	if( fFireEnd > 0.0f )

  008a7	0f 2f 05 00 00
	00 00		 comiss	 xmm0, DWORD PTR __real@00000000
  008ae	f3 0f 11 85 ac
	7f ff ff	 movss	 DWORD PTR _fFireEnd$[ebp], xmm0
  008b6	76 3f		 jbe	 SHORT $LN4@SetActionS

; 470  : 	{
; 471  : 		m_dwFireEndTime = dwCurTime + fFireEnd + dwPreDelay;

  008b8	8b 85 98 7f ff
	ff		 mov	 eax, DWORD PTR _dwCurTime$[ebp]
  008be	db 85 98 7f ff
	ff		 fild	 DWORD PTR _dwCurTime$[ebp]
  008c4	85 c0		 test	 eax, eax
  008c6	79 06		 jns	 SHORT $LN686@SetActionS
  008c8	d8 05 00 00 00
	00		 fadd	 DWORD PTR __real@4f800000
$LN686@SetActionS:
  008ce	8b 85 a0 7f ff
	ff		 mov	 eax, DWORD PTR _dwPreDelay$[ebp]
  008d4	d8 85 ac 7f ff
	ff		 fadd	 DWORD PTR _fFireEnd$[ebp]
  008da	db 85 a0 7f ff
	ff		 fild	 DWORD PTR _dwPreDelay$[ebp]
  008e0	85 c0		 test	 eax, eax
  008e2	79 06		 jns	 SHORT $LN687@SetActionS
  008e4	d8 05 00 00 00
	00		 fadd	 DWORD PTR __real@4f800000
$LN687@SetActionS:
  008ea	de c1		 faddp	 ST(1), ST(0)
  008ec	e8 00 00 00 00	 call	 __ftol2
  008f1	89 86 f8 0f 00
	00		 mov	 DWORD PTR [esi+4088], eax
$LN4@SetActionS:

; 472  : 	}
; 473  : 
; 474  : 	float fAttackEnd = pGrp->GetAnimationEventTime_e( iAniID, "attack_end" ) * fAniRate;

  008f7	6a 02		 push	 2
  008f9	c7 45 e0 8c 98
	9f 8b		 mov	 DWORD PTR _szEncEventType$558013[ebp], -1952474996 ; 8b9f988cH
  00900	c7 45 e4 8e 87
	b4 8f		 mov	 DWORD PTR _szEncEventType$558013[ebp+4], -1883994226 ; 8fb4878eH
  00907	66 c7 45 e8 83
	88		 mov	 WORD PTR _szEncEventType$558013[ebp+8], 34947 ; 00008883H
  0090d	8d 45 e0	 lea	 eax, DWORD PTR _szEncEventType$558013[ebp]
  00910	c6 45 ea 00	 mov	 BYTE PTR _szEncEventType$558013[ebp+10], 0
  00914	59		 pop	 ecx
$LL622@SetActionS:
  00915	81 30 ed ec eb
	ea		 xor	 DWORD PTR [eax], -353637139 ; eaebecedH
  0091b	83 c0 04	 add	 eax, 4
  0091e	49		 dec	 ecx
  0091f	75 f4		 jne	 SHORT $LL622@SetActionS
  00921	6a 08		 push	 8
  00923	58		 pop	 eax
$LL619@SetActionS:
  00924	8b c8		 mov	 ecx, eax
  00926	81 e1 03 00 00
	80		 and	 ecx, -2147483645	; 80000003H
  0092c	79 05		 jns	 SHORT $LN688@SetActionS
  0092e	49		 dec	 ecx
  0092f	83 c9 fc	 or	 ecx, -4			; fffffffcH
  00932	41		 inc	 ecx
$LN688@SetActionS:
  00933	b2 ed		 mov	 dl, -19			; ffffffedH
  00935	2a d1		 sub	 dl, cl
  00937	30 54 05 e0	 xor	 BYTE PTR _szEncEventType$558013[ebp+eax], dl
  0093b	40		 inc	 eax
  0093c	83 f8 0a	 cmp	 eax, 10			; 0000000aH
  0093f	7c e3		 jl	 SHORT $LL619@SetActionS
  00941	8d 45 e0	 lea	 eax, DWORD PTR _szEncEventType$558013[ebp]
  00944	50		 push	 eax
  00945	8d 4d cc	 lea	 ecx, DWORD PTR $T558113[ebp]
  00948	ff d3		 call	 ebx
  0094a	8b 8d a4 7f ff
	ff		 mov	 ecx, DWORD PTR _pGrp$[ebp]
  00950	8d 45 cc	 lea	 eax, DWORD PTR $T558113[ebp]
  00953	50		 push	 eax
  00954	ff b5 a8 7f ff
	ff		 push	 DWORD PTR _iAniID$[ebp]
  0095a	c7 45 fc 04 00
	00 00		 mov	 DWORD PTR __$EHRec$[ebp+8], 4
  00961	ff 15 00 00 00
	00		 call	 DWORD PTR __imp_?GetAnimationEventTime@ioEntityGroup@@QAEMHABVioHashString@@@Z
  00967	d9 9d ac 7f ff
	ff		 fstp	 DWORD PTR $T558112[ebp]
  0096d	83 4d fc ff	 or	 DWORD PTR __$EHRec$[ebp+8], -1
  00971	8d 4d cc	 lea	 ecx, DWORD PTR $T558113[ebp]
  00974	ff d7		 call	 edi
  00976	f3 0f 10 85 ac
	7f ff ff	 movss	 xmm0, DWORD PTR $T558112[ebp]
  0097e	f3 0f 10 8d 9c
	7f ff ff	 movss	 xmm1, DWORD PTR _fAniRate$[ebp]
  00986	0f 5a c0	 cvtps2pd xmm0, xmm0
  00989	0f 5a c9	 cvtps2pd xmm1, xmm1
  0098c	f2 0f 59 c1	 mulsd	 xmm0, xmm1
  00990	66 0f 5a c0	 cvtpd2ps xmm0, xmm0

; 475  : 	if( fAttackEnd > 0.0f )

  00994	0f 2f 05 00 00
	00 00		 comiss	 xmm0, DWORD PTR __real@00000000
  0099b	f3 0f 11 85 ac
	7f ff ff	 movss	 DWORD PTR _fAttackEnd$[ebp], xmm0
  009a3	76 41		 jbe	 SHORT $LN3@SetActionS

; 476  : 		m_dwAttackEndTime = dwCurTime + fAttackEnd + dwPreDelay;

  009a5	8b 85 98 7f ff
	ff		 mov	 eax, DWORD PTR _dwCurTime$[ebp]
  009ab	db 85 98 7f ff
	ff		 fild	 DWORD PTR _dwCurTime$[ebp]
  009b1	85 c0		 test	 eax, eax
  009b3	79 06		 jns	 SHORT $LN689@SetActionS
  009b5	d8 05 00 00 00
	00		 fadd	 DWORD PTR __real@4f800000
$LN689@SetActionS:
  009bb	8b 85 a0 7f ff
	ff		 mov	 eax, DWORD PTR _dwPreDelay$[ebp]
  009c1	d8 85 ac 7f ff
	ff		 fadd	 DWORD PTR _fAttackEnd$[ebp]
  009c7	db 85 a0 7f ff
	ff		 fild	 DWORD PTR _dwPreDelay$[ebp]
  009cd	85 c0		 test	 eax, eax
  009cf	79 06		 jns	 SHORT $LN690@SetActionS
  009d1	d8 05 00 00 00
	00		 fadd	 DWORD PTR __real@4f800000
$LN690@SetActionS:
  009d7	de c1		 faddp	 ST(1), ST(0)
  009d9	e8 00 00 00 00	 call	 __ftol2
  009de	89 86 ac 11 00
	00		 mov	 DWORD PTR [esi+4524], eax

; 477  : 	else

  009e4	eb 07		 jmp	 SHORT $LN2@SetActionS
$LN3@SetActionS:

; 478  : 		m_dwAttackEndTime = 0;

  009e6	83 a6 ac 11 00
	00 00		 and	 DWORD PTR [esi+4524], 0
$LN2@SetActionS:

; 479  : 
; 480  : 	pChar->AttachEffect( m_EndEffect );

  009ed	8b 9d 8c 7f ff
	ff		 mov	 ebx, DWORD PTR _pChar$GSCopy$[ebp]
  009f3	33 ff		 xor	 edi, edi
  009f5	47		 inc	 edi
  009f6	57		 push	 edi
  009f7	6a 00		 push	 0
  009f9	8d 86 d8 11 00
	00		 lea	 eax, DWORD PTR [esi+4568]
  009ff	50		 push	 eax
  00a00	8b cb		 mov	 ecx, ebx
  00a02	e8 00 00 00 00	 call	 ?AttachEffect@ioBaseChar@@QAEPAVioEffect@@ABVioHashString@@PAVioEntityEvent@@_N@Z ; ioBaseChar::AttachEffect

; 481  : 
; 482  : 	pChar->SetReservedSliding( m_AttackAttribute.m_vForceInfoList, iAniID, fAniRate, dwPreDelay, fCurForceSlidingRate );

  00a07	f3 0f 10 85 90
	7f ff ff	 movss	 xmm0, DWORD PTR _fCurForceSlidingRate$[ebp]
  00a0f	57		 push	 edi
  00a10	51		 push	 ecx
  00a11	f3 0f 11 04 24	 movss	 DWORD PTR [esp], xmm0
  00a16	ff b5 a0 7f ff
	ff		 push	 DWORD PTR _dwPreDelay$[ebp]
  00a1c	f3 0f 10 85 9c
	7f ff ff	 movss	 xmm0, DWORD PTR _fAniRate$[ebp]
  00a24	51		 push	 ecx
  00a25	f3 0f 11 04 24	 movss	 DWORD PTR [esp], xmm0
  00a2a	ff b5 a8 7f ff
	ff		 push	 DWORD PTR _iAniID$[ebp]
  00a30	8d 86 c4 0f 00
	00		 lea	 eax, DWORD PTR [esi+4036]
  00a36	50		 push	 eax
  00a37	8b cb		 mov	 ecx, ebx
  00a39	e8 00 00 00 00	 call	 ?SetReservedSliding@ioBaseChar@@QAEXABV?$vector@UForceInfo@@V?$allocator@UForceInfo@@@std@@@std@@HMKM_N@Z ; ioBaseChar::SetReservedSliding

; 483  : 
; 484  : 	// set marker none...
; 485  : 	pChar->SetTargetMarkerState( ioTargetMarker::MS_NONE, TT_OTHER );

  00a3e	57		 push	 edi
  00a3f	6a 00		 push	 0
  00a41	8d 8b cc 01 00
	00		 lea	 ecx, DWORD PTR [ebx+460]
  00a47	e8 00 00 00 00	 call	 ?SetTargetMarkerState@ioBaseGUISupport@@QAEXW4MarkerState@ioTargetMarker@@W4TargetedType@@@Z ; ioBaseGUISupport::SetTargetMarkerState

; 486  : 
; 487  : 	if( bSend && pChar->IsNeedSendNetwork() )

  00a4c	80 7d 10 00	 cmp	 BYTE PTR _bSend$[ebp], 0
  00a50	0f 84 9a 00 00
	00		 je	 $LN1@SetActionS
  00a56	8b 03		 mov	 eax, DWORD PTR [ebx]
  00a58	8b cb		 mov	 ecx, ebx
  00a5a	ff 90 04 01 00
	00		 call	 DWORD PTR [eax+260]
  00a60	84 c0		 test	 al, al
  00a62	0f 84 88 00 00
	00		 je	 $LN1@SetActionS

; 488  : 	{
; 489  : 		SP2Packet kPacket( CUPK_SKILL_EXTRA_INFO );

  00a68	68 39 41 00 00	 push	 16697			; 00004139H
  00a6d	8d 8d b4 7f ff
	ff		 lea	 ecx, DWORD PTR _kPacket$548443[ebp]
  00a73	e8 00 00 00 00	 call	 ??0SP2Packet@@QAE@K@Z	; SP2Packet::SP2Packet

; 490  : 		kPacket << pChar->GetCharName();

  00a78	8d 83 d4 02 00
	00		 lea	 eax, DWORD PTR [ebx+724]
  00a7e	50		 push	 eax
  00a7f	8d 8d b4 7f ff
	ff		 lea	 ecx, DWORD PTR _kPacket$548443[ebp]
  00a85	c7 45 fc 05 00
	00 00		 mov	 DWORD PTR __$EHRec$[ebp+8], 5
  00a8c	e8 00 00 00 00	 call	 ??6SP2Packet@@QAEAAV0@ABVioHashString@@@Z ; SP2Packet::operator<<

; 491  : 		kPacket << GetName();

  00a91	83 c6 24	 add	 esi, 36			; 00000024H
  00a94	56		 push	 esi
  00a95	8d 8d b4 7f ff
	ff		 lea	 ecx, DWORD PTR _kPacket$548443[ebp]
  00a9b	e8 00 00 00 00	 call	 ??6SP2Packet@@QAEAAV0@ABVioHashString@@@Z ; SP2Packet::operator<<

; 492  : 		kPacket << SSC_ACTION;

  00aa0	57		 push	 edi
  00aa1	8d 8d b4 7f ff
	ff		 lea	 ecx, DWORD PTR _kPacket$548443[ebp]
  00aa7	e8 00 00 00 00	 call	 ??6SP2Packet@@QAEAAV0@H@Z ; SP2Packet::operator<<

; 493  : 		kPacket << pChar->GetWorldPosition();

  00aac	8b 03		 mov	 eax, DWORD PTR [ebx]
  00aae	8b cb		 mov	 ecx, ebx
  00ab0	ff 50 70	 call	 DWORD PTR [eax+112]
  00ab3	50		 push	 eax
  00ab4	8d 8d b4 7f ff
	ff		 lea	 ecx, DWORD PTR _kPacket$548443[ebp]
  00aba	e8 00 00 00 00	 call	 ??6SP2Packet@@QAEAAV0@ABUD3DXVECTOR3@@@Z ; SP2Packet::operator<<

; 494  : 		kPacket << pChar->GetTargetRot();

  00abf	81 c3 a4 06 00
	00		 add	 ebx, 1700		; 000006a4H
  00ac5	53		 push	 ebx
  00ac6	8d 8d b4 7f ff
	ff		 lea	 ecx, DWORD PTR _kPacket$548443[ebp]
  00acc	e8 00 00 00 00	 call	 ??6SP2Packet@@QAEAAV0@ABUD3DXQUATERNION@@@Z ; SP2Packet::operator<<

; 495  : 		P2PNetwork::SendToAllPlayingUser( kPacket );

  00ad1	8d 85 b4 7f ff
	ff		 lea	 eax, DWORD PTR _kPacket$548443[ebp]
  00ad7	6a 00		 push	 0
  00ad9	50		 push	 eax
  00ada	e8 00 00 00 00	 call	 ?SendToAllPlayingUser@P2PNetwork@@YAXAAVSP2Packet@@PAVioBaseChar@@@Z ; P2PNetwork::SendToAllPlayingUser

; 496  : 	}

  00adf	83 4d fc ff	 or	 DWORD PTR __$EHRec$[ebp+8], -1
  00ae3	59		 pop	 ecx
  00ae4	59		 pop	 ecx
  00ae5	8d 8d b4 7f ff
	ff		 lea	 ecx, DWORD PTR _kPacket$548443[ebp]
  00aeb	e8 00 00 00 00	 call	 ??1SP2Packet@@UAE@XZ	; SP2Packet::~SP2Packet
$LN1@SetActionS:

; 497  : }

  00af0	8b 4d f4	 mov	 ecx, DWORD PTR __$EHRec$[ebp]
  00af3	64 89 0d 00 00
	00 00		 mov	 DWORD PTR fs:0, ecx
  00afa	59		 pop	 ecx
  00afb	5f		 pop	 edi
  00afc	5e		 pop	 esi
  00afd	5b		 pop	 ebx
  00afe	8b 4d f0	 mov	 ecx, DWORD PTR __$ArrayPad$[ebp]
  00b01	33 cd		 xor	 ecx, ebp
  00b03	e8 00 00 00 00	 call	 @__security_check_cookie@4
  00b08	c9		 leave
  00b09	c2 0c 00	 ret	 12			; 0000000cH
_TEXT	ENDS
;	COMDAT text$x
text$x	SEGMENT
__unwindfunclet$?SetActionState@ioChargingFireSkill4@@IAEXPAVioBaseChar@@PAVioPlayStage@@_N@Z$1:
  00000	8d 4d e0	 lea	 ecx, DWORD PTR $T557495[ebp]
  00003	ff 25 00 00 00
	00		 jmp	 DWORD PTR __imp_??1ioHashString@@QAE@XZ
__unwindfunclet$?SetActionState@ioChargingFireSkill4@@IAEXPAVioBaseChar@@PAVioPlayStage@@_N@Z$2:
  00009	8d 4d cc	 lea	 ecx, DWORD PTR $T557625[ebp]
  0000c	ff 25 00 00 00
	00		 jmp	 DWORD PTR __imp_??1ioHashString@@QAE@XZ
__unwindfunclet$?SetActionState@ioChargingFireSkill4@@IAEXPAVioBaseChar@@PAVioPlayStage@@_N@Z$3:
  00012	8d 4d cc	 lea	 ecx, DWORD PTR $T557755[ebp]
  00015	ff 25 00 00 00
	00		 jmp	 DWORD PTR __imp_??1ioHashString@@QAE@XZ
__unwindfunclet$?SetActionState@ioChargingFireSkill4@@IAEXPAVioBaseChar@@PAVioPlayStage@@_N@Z$4:
  0001b	8d 4d cc	 lea	 ecx, DWORD PTR $T557885[ebp]
  0001e	ff 25 00 00 00
	00		 jmp	 DWORD PTR __imp_??1ioHashString@@QAE@XZ
__unwindfunclet$?SetActionState@ioChargingFireSkill4@@IAEXPAVioBaseChar@@PAVioPlayStage@@_N@Z$5:
  00024	8d 4d cc	 lea	 ecx, DWORD PTR $T558113[ebp]
  00027	ff 25 00 00 00
	00		 jmp	 DWORD PTR __imp_??1ioHashString@@QAE@XZ
__unwindfunclet$?SetActionState@ioChargingFireSkill4@@IAEXPAVioBaseChar@@PAVioPlayStage@@_N@Z$0:
  0002d	8d 8d b4 7f ff
	ff		 lea	 ecx, DWORD PTR _kPacket$548443[ebp]
  00033	e9 00 00 00 00	 jmp	 ??1SP2Packet@@UAE@XZ	; SP2Packet::~SP2Packet
__ehhandler$?SetActionState@ioChargingFireSkill4@@IAEXPAVioBaseChar@@PAVioPlayStage@@_N@Z:
  00038	8b 54 24 08	 mov	 edx, DWORD PTR [esp+8]
  0003c	8d 42 0c	 lea	 eax, DWORD PTR [edx+12]
  0003f	8b 8a 88 7f ff
	ff		 mov	 ecx, DWORD PTR [edx-32888]
  00045	33 c8		 xor	 ecx, eax
  00047	e8 00 00 00 00	 call	 @__security_check_cookie@4
  0004c	8b 4a fc	 mov	 ecx, DWORD PTR [edx-4]
  0004f	33 c8		 xor	 ecx, eax
  00051	e8 00 00 00 00	 call	 @__security_check_cookie@4
  00056	b8 00 00 00 00	 mov	 eax, OFFSET __ehfuncinfo$?SetActionState@ioChargingFireSkill4@@IAEXPAVioBaseChar@@PAVioPlayStage@@_N@Z
  0005b	e9 00 00 00 00	 jmp	 ___CxxFrameHandler3
text$x	ENDS
?SetActionState@ioChargingFireSkill4@@IAEXPAVioBaseChar@@PAVioPlayStage@@_N@Z ENDP ; ioChargingFireSkill4::SetActionState
PUBLIC	?IsProtected@ioChargingFireSkill4@@UBE_NH@Z	; ioChargingFireSkill4::IsProtected
; Function compile flags: /Ogsp
;	COMDAT ?IsProtected@ioChargingFireSkill4@@UBE_NH@Z
_TEXT	SEGMENT
_value$558211 = -1					; size = 1
_value$558216 = 8					; size = 4
_iDefenseBreakType$ = 8					; size = 4
?IsProtected@ioChargingFireSkill4@@UBE_NH@Z PROC	; ioChargingFireSkill4::IsProtected, COMDAT
; _this$ = ecx

; 562  : {

  00000	55		 push	 ebp
  00001	8b ec		 mov	 ebp, esp
  00003	51		 push	 ecx
  00004	56		 push	 esi
  00005	8b f1		 mov	 esi, ecx

; 563  : 	if( m_bDisableSkillProtect )

  00007	8d 45 ff	 lea	 eax, DWORD PTR _value$558211[ebp]
  0000a	50		 push	 eax
  0000b	8d 8e a8 00 00
	00		 lea	 ecx, DWORD PTR [esi+168]
  00011	e8 00 00 00 00	 call	 ?DecryptValueToPool@?$CEncrypt@_N@@QAEXPA_N@Z ; CEncrypt<bool>::DecryptValueToPool
  00016	80 7d ff 00	 cmp	 BYTE PTR _value$558211[ebp], 0

; 564  : 		return false;

  0001a	75 58		 jne	 SHORT $LN3@IsProtecte

; 565  : 
; 566  : 	if( DBT_NONE != (DefenseBreakType)m_ProtectCancelType )

  0001c	8b 86 a4 00 00
	00		 mov	 eax, DWORD PTR [esi+164]
  00022	85 c0		 test	 eax, eax
  00024	74 05		 je	 SHORT $LN8@IsProtecte

; 567  : 	{
; 568  : 		if( iDefenseBreakType == m_ProtectCancelType )   //   

  00026	39 45 08	 cmp	 DWORD PTR _iDefenseBreakType$[ebp], eax

; 569  : 			return false;

  00029	74 49		 je	 SHORT $LN3@IsProtecte
$LN8@IsProtecte:

; 570  : 	}
; 571  : 
; 572  : 	if( IsPreDelayProtect() )

  0002b	8b 06		 mov	 eax, DWORD PTR [esi]
  0002d	8b ce		 mov	 ecx, esi
  0002f	ff 90 2c 01 00
	00		 call	 DWORD PTR [eax+300]
  00035	84 c0		 test	 al, al
  00037	74 0d		 je	 SHORT $LN6@IsProtecte

; 573  : 	{
; 574  : 		if( m_dwPreDelayStartTime != 0 )

  00039	83 be 20 02 00
	00 00		 cmp	 DWORD PTR [esi+544], 0
  00040	74 04		 je	 SHORT $LN6@IsProtecte
$LN17@IsProtecte:

; 575  : 			return true;

  00042	b0 01		 mov	 al, 1
  00044	eb 30		 jmp	 SHORT $LN11@IsProtecte
$LN6@IsProtecte:

; 576  : 	}
; 577  : 
; 578  : 	switch( m_State )

  00046	8d 45 08	 lea	 eax, DWORD PTR _value$558216[ebp]
  00049	50		 push	 eax
  0004a	8d 8e 58 0f 00
	00		 lea	 ecx, DWORD PTR [esi+3928]
  00050	e8 00 00 00 00	 call	 ?DecryptValueToPool@?$CEncrypt@H@@QAEXPAH@Z ; CEncrypt<int>::DecryptValueToPool
  00055	8b 45 08	 mov	 eax, DWORD PTR _value$558216[ebp]
  00058	48		 dec	 eax
  00059	74 19		 je	 SHORT $LN3@IsProtecte
  0005b	48		 dec	 eax
  0005c	75 16		 jne	 SHORT $LN3@IsProtecte

; 582  : 	case SS_ACTION:
; 583  : 		if( m_dwFireMotionEndTime > FRAMEGETTIME() )

  0005e	ff 15 00 00 00
	00		 call	 DWORD PTR __imp_?GetSingleton@ioFrameTimer@@SAAAV1@XZ
  00064	8b c8		 mov	 ecx, eax
  00066	ff 15 00 00 00
	00		 call	 DWORD PTR __imp_?GetLoopSec@ioFrameTimer@@QBEKXZ
  0006c	39 86 24 02 00
	00		 cmp	 DWORD PTR [esi+548], eax

; 584  : 			return true;

  00072	77 ce		 ja	 SHORT $LN17@IsProtecte
$LN3@IsProtecte:

; 579  : 	{
; 580  : 	case SS_LOOP:
; 581  : 		return false;

  00074	32 c0		 xor	 al, al
$LN11@IsProtecte:
  00076	5e		 pop	 esi

; 585  : 		break;
; 586  : 	}
; 587  : 
; 588  : 	return false;
; 589  : }

  00077	c9		 leave
  00078	c2 04 00	 ret	 4
?IsProtected@ioChargingFireSkill4@@UBE_NH@Z ENDP	; ioChargingFireSkill4::IsProtected
_TEXT	ENDS
PUBLIC	_pStage$GSCopy$
PUBLIC	__$ArrayPad$
PUBLIC	?ProcessLoopState@ioChargingFireSkill4@@IAEXPAVioBaseChar@@PAVioPlayStage@@@Z ; ioChargingFireSkill4::ProcessLoopState
EXTRN	?FindMapEffect@ioPlayStage@@QAEPAVioMapEffect@@K@Z:PROC ; ioPlayStage::FindMapEffect
EXTRN	?UpdateAttachMapEffect@ioBaseChar@@QAEXK_N@Z:PROC ; ioBaseChar::UpdateAttachMapEffect
; Function compile flags: /Ogsp
;	COMDAT ?ProcessLoopState@ioChargingFireSkill4@@IAEXPAVioBaseChar@@PAVioPlayStage@@@Z
_TEXT	SEGMENT
tv359 = -32						; size = 4
_pStage$GSCopy$ = -32					; size = 4
_fCurScaleRate$ = -28					; size = 4
_value$558259 = -24					; size = 4
$T558263 = -24						; size = 4
_value$558251 = -24					; size = 4
_value$558239 = -24					; size = 4
_fCurMaxScale$548522 = -24				; size = 4
tv411 = -20						; size = 4
tv408 = -20						; size = 4
tv402 = -20						; size = 4
tv397 = -20						; size = 4
tv390 = -20						; size = 4
tv386 = -20						; size = 4
tv373 = -20						; size = 4
tv369 = -20						; size = 4
_value$558267 = -20					; size = 4
$T558255 = -20						; size = 4
_value$558271 = -20					; size = 4
_vScale$548532 = -16					; size = 12
__$ArrayPad$ = -4					; size = 4
_pChar$ = 8						; size = 4
_pStage$ = 12						; size = 4
?ProcessLoopState@ioChargingFireSkill4@@IAEXPAVioBaseChar@@PAVioPlayStage@@@Z PROC ; ioChargingFireSkill4::ProcessLoopState, COMDAT
; _this$ = ecx

; 615  : {

  00000	55		 push	 ebp
  00001	8b ec		 mov	 ebp, esp
  00003	83 ec 20	 sub	 esp, 32			; 00000020H
  00006	a1 00 00 00 00	 mov	 eax, DWORD PTR ___security_cookie
  0000b	33 c5		 xor	 eax, ebp
  0000d	89 45 fc	 mov	 DWORD PTR __$ArrayPad$[ebp], eax
  00010	8b 45 0c	 mov	 eax, DWORD PTR _pStage$[ebp]
  00013	56		 push	 esi
  00014	8b f1		 mov	 esi, ecx
  00016	8b 4d 08	 mov	 ecx, DWORD PTR _pChar$[ebp]

; 639  : 		fCurScaleRate += fCurMaxScale * m_fCurChargeRate;

  00019	89 45 e0	 mov	 DWORD PTR _pStage$GSCopy$[ebp], eax
  0001c	85 c9		 test	 ecx, ecx
  0001e	0f 84 e2 01 00
	00		 je	 $LN1@ProcessLoo

; 616  : 	if( !pChar ) return;
; 617  : 	if( !pStage ) return;

  00024	85 c0		 test	 eax, eax
  00026	0f 84 da 01 00
	00		 je	 $LN1@ProcessLoo

; 618  : 
; 619  : 	if( m_dwChargingEffect == -1 )

  0002c	8b 86 c4 11 00
	00		 mov	 eax, DWORD PTR [esi+4548]
  00032	83 f8 ff	 cmp	 eax, -1
  00035	0f 84 cb 01 00
	00		 je	 $LN1@ProcessLoo

; 620  : 		return;
; 621  : 
; 622  : 	pChar->UpdateAttachMapEffect( m_dwChargingEffect );

  0003b	6a 00		 push	 0
  0003d	50		 push	 eax
  0003e	e8 00 00 00 00	 call	 ?UpdateAttachMapEffect@ioBaseChar@@QAEXK_N@Z ; ioBaseChar::UpdateAttachMapEffect

; 623  : 
; 624  : 	// Charging Rate
; 625  : 	DWORD dwCurTime = FRAMEGETTIME();

  00043	ff 15 00 00 00
	00		 call	 DWORD PTR __imp_?GetSingleton@ioFrameTimer@@SAAAV1@XZ
  00049	8b c8		 mov	 ecx, eax
  0004b	ff 15 00 00 00
	00		 call	 DWORD PTR __imp_?GetLoopSec@ioFrameTimer@@QBEKXZ

; 626  : 	DWORD dwGapTime = dwCurTime - m_dwLoopStartTime;

  00051	8b 8e a8 11 00
	00		 mov	 ecx, DWORD PTR [esi+4520]
  00057	2b c1		 sub	 eax, ecx

; 627  : 	if( m_dwLoopStartTime > 0 && m_dwMaxChargingTime > 0 )

  00059	85 c9		 test	 ecx, ecx
  0005b	74 59		 je	 SHORT $LN18@ProcessLoo
  0005d	8b 8e f0 0f 00
	00		 mov	 ecx, DWORD PTR [esi+4080]
  00063	85 c9		 test	 ecx, ecx
  00065	74 4f		 je	 SHORT $LN18@ProcessLoo

; 628  : 	{
; 629  : 		if( m_dwMaxChargingTime > dwGapTime )

  00067	3b c8		 cmp	 ecx, eax
  00069	76 24		 jbe	 SHORT $LN5@ProcessLoo

; 630  : 			m_fCurChargeRate = (float)dwGapTime / m_dwMaxChargingTime;

  0006b	89 45 ec	 mov	 DWORD PTR tv411[ebp], eax
  0006e	db 45 ec	 fild	 DWORD PTR tv411[ebp]
  00071	85 c0		 test	 eax, eax
  00073	79 06		 jns	 SHORT $LN44@ProcessLoo
  00075	d8 05 00 00 00
	00		 fadd	 DWORD PTR __real@4f800000
$LN44@ProcessLoo:
  0007b	89 4d ec	 mov	 DWORD PTR tv408[ebp], ecx
  0007e	db 45 ec	 fild	 DWORD PTR tv408[ebp]
  00081	85 c9		 test	 ecx, ecx
  00083	79 06		 jns	 SHORT $LN45@ProcessLoo
  00085	d8 05 00 00 00
	00		 fadd	 DWORD PTR __real@4f800000
$LN45@ProcessLoo:
  0008b	de f9		 fdivp	 ST(1), ST(0)

; 631  : 		else

  0008d	eb 15		 jmp	 SHORT $LN46@ProcessLoo
$LN5@ProcessLoo:

; 632  : 			m_fCurChargeRate = FLOAT1;

  0008f	b8 01 00 00 00	 mov	 eax, 1
  00094	89 45 ec	 mov	 DWORD PTR tv402[ebp], eax
  00097	db 45 ec	 fild	 DWORD PTR tv402[ebp]
  0009a	85 c0		 test	 eax, eax
  0009c	79 06		 jns	 SHORT $LN46@ProcessLoo
  0009e	d8 05 00 00 00
	00		 fadd	 DWORD PTR __real@4f800000
$LN46@ProcessLoo:
  000a4	8d 45 e8	 lea	 eax, DWORD PTR _value$558239[ebp]
  000a7	d9 5d e8	 fstp	 DWORD PTR _value$558239[ebp]
  000aa	50		 push	 eax
  000ab	8d 8e a4 09 00
	00		 lea	 ecx, DWORD PTR [esi+2468]
  000b1	e8 00 00 00 00	 call	 ?EncryptValueToPool@?$CEncrypt@M@@AAEXPBD@Z ; CEncrypt<float>::EncryptValueToPool
$LN18@ProcessLoo:

; 633  : 	}
; 634  : 
; 635  : 	float fCurScaleRate = FLOAT1;

  000b6	53		 push	 ebx
  000b7	b8 01 00 00 00	 mov	 eax, 1
  000bc	89 45 ec	 mov	 DWORD PTR tv397[ebp], eax
  000bf	db 45 ec	 fild	 DWORD PTR tv397[ebp]
  000c2	85 c0		 test	 eax, eax
  000c4	79 06		 jns	 SHORT $LN47@ProcessLoo
  000c6	d8 05 00 00 00
	00		 fadd	 DWORD PTR __real@4f800000
$LN47@ProcessLoo:

; 636  : 	if( m_fCurChargeRate > 0.0f )

  000cc	8d 45 e8	 lea	 eax, DWORD PTR _value$558251[ebp]
  000cf	d9 5d e4	 fstp	 DWORD PTR _fCurScaleRate$[ebp]
  000d2	50		 push	 eax
  000d3	8d 8e a4 09 00
	00		 lea	 ecx, DWORD PTR [esi+2468]
  000d9	e8 00 00 00 00	 call	 ?DecryptValueToPool@?$CEncrypt@M@@QAEXPAM@Z ; CEncrypt<float>::DecryptValueToPool
  000de	f3 0f 10 45 e8	 movss	 xmm0, DWORD PTR _value$558251[ebp]
  000e3	0f 2f 05 00 00
	00 00		 comiss	 xmm0, DWORD PTR __real@00000000
  000ea	0f 86 15 01 00
	00		 jbe	 $LN43@ProcessLoo

; 637  : 	{
; 638  : 		float fCurMaxScale = max( 0.0f, (m_fMaxScaleRate - FLOAT1) );

  000f0	57		 push	 edi
  000f1	b8 01 00 00 00	 mov	 eax, 1
  000f6	89 45 ec	 mov	 DWORD PTR $T558255[ebp], eax
  000f9	8d 45 e8	 lea	 eax, DWORD PTR _value$558259[ebp]
  000fc	50		 push	 eax
  000fd	8d 8e b4 0b 00
	00		 lea	 ecx, DWORD PTR [esi+2996]
  00103	e8 00 00 00 00	 call	 ?DecryptValueToPool@?$CEncrypt@M@@QAEXPAM@Z ; CEncrypt<float>::DecryptValueToPool
  00108	d9 45 e8	 fld	 DWORD PTR _value$558259[ebp]
  0010b	8b 45 ec	 mov	 eax, DWORD PTR $T558255[ebp]
  0010e	db 45 ec	 fild	 DWORD PTR $T558255[ebp]
  00111	85 c0		 test	 eax, eax
  00113	79 06		 jns	 SHORT $LN48@ProcessLoo
  00115	d8 05 00 00 00
	00		 fadd	 DWORD PTR __real@4f800000
$LN48@ProcessLoo:
  0011b	de e9		 fsubp	 ST(1), ST(0)
  0011d	d9 5d ec	 fstp	 DWORD PTR tv386[ebp]
  00120	d9 45 ec	 fld	 DWORD PTR tv386[ebp]
  00123	d9 ee		 fldz
  00125	df f1		 fcomip	 ST(1)
  00127	dd d8		 fstp	 ST(0)
  00129	76 0a		 jbe	 SHORT $LN12@ProcessLoo
  0012b	0f 57 c0	 xorps	 xmm0, xmm0
  0012e	f3 0f 11 45 e8	 movss	 DWORD PTR _fCurMaxScale$548522[ebp], xmm0
  00133	eb 35		 jmp	 SHORT $LN13@ProcessLoo
$LN12@ProcessLoo:
  00135	b8 01 00 00 00	 mov	 eax, 1
  0013a	89 45 e8	 mov	 DWORD PTR $T558263[ebp], eax
  0013d	8d 45 ec	 lea	 eax, DWORD PTR _value$558267[ebp]
  00140	50		 push	 eax
  00141	8d 8e b4 0b 00
	00		 lea	 ecx, DWORD PTR [esi+2996]
  00147	e8 00 00 00 00	 call	 ?DecryptValueToPool@?$CEncrypt@M@@QAEXPAM@Z ; CEncrypt<float>::DecryptValueToPool
  0014c	d9 45 ec	 fld	 DWORD PTR _value$558267[ebp]
  0014f	8b 45 e8	 mov	 eax, DWORD PTR $T558263[ebp]
  00152	db 45 e8	 fild	 DWORD PTR $T558263[ebp]
  00155	85 c0		 test	 eax, eax
  00157	79 06		 jns	 SHORT $LN49@ProcessLoo
  00159	d8 05 00 00 00
	00		 fadd	 DWORD PTR __real@4f800000
$LN49@ProcessLoo:
  0015f	de e9		 fsubp	 ST(1), ST(0)
  00161	d9 5d ec	 fstp	 DWORD PTR tv369[ebp]
  00164	d9 45 ec	 fld	 DWORD PTR tv369[ebp]
  00167	d9 5d e8	 fstp	 DWORD PTR _fCurMaxScale$548522[ebp]
$LN13@ProcessLoo:

; 639  : 		fCurScaleRate += fCurMaxScale * m_fCurChargeRate;

  0016a	8d 45 ec	 lea	 eax, DWORD PTR _value$558271[ebp]
  0016d	50		 push	 eax
  0016e	8d 8e a4 09 00
	00		 lea	 ecx, DWORD PTR [esi+2468]
  00174	e8 00 00 00 00	 call	 ?DecryptValueToPool@?$CEncrypt@M@@QAEXPAM@Z ; CEncrypt<float>::DecryptValueToPool
  00179	f3 0f 10 45 ec	 movss	 xmm0, DWORD PTR _value$558271[ebp]
  0017e	f3 0f 10 4d e8	 movss	 xmm1, DWORD PTR _fCurMaxScale$548522[ebp]

; 640  : 
; 641  : 		ioMapEffect *pMapEff = pStage->FindMapEffect( m_dwChargingEffect );

  00183	ff b6 c4 11 00
	00		 push	 DWORD PTR [esi+4548]
  00189	8b 4d e0	 mov	 ecx, DWORD PTR _pStage$GSCopy$[ebp]
  0018c	0f 5a c0	 cvtps2pd xmm0, xmm0
  0018f	0f 5a c9	 cvtps2pd xmm1, xmm1
  00192	f2 0f 59 c1	 mulsd	 xmm0, xmm1
  00196	f3 0f 10 4d e4	 movss	 xmm1, DWORD PTR _fCurScaleRate$[ebp]
  0019b	0f 5a c9	 cvtps2pd xmm1, xmm1
  0019e	f2 0f 58 c1	 addsd	 xmm0, xmm1
  001a2	66 0f 5a c0	 cvtpd2ps xmm0, xmm0
  001a6	f3 0f 11 45 e4	 movss	 DWORD PTR _fCurScaleRate$[ebp], xmm0
  001ab	e8 00 00 00 00	 call	 ?FindMapEffect@ioPlayStage@@QAEPAVioMapEffect@@K@Z ; ioPlayStage::FindMapEffect
  001b0	8b c8		 mov	 ecx, eax
  001b2	5f		 pop	 edi

; 642  : 		if( pMapEff && fCurScaleRate > FLOAT1 )

  001b3	85 c9		 test	 ecx, ecx
  001b5	74 4e		 je	 SHORT $LN43@ProcessLoo
  001b7	b8 01 00 00 00	 mov	 eax, 1
  001bc	d9 45 e4	 fld	 DWORD PTR _fCurScaleRate$[ebp]
  001bf	89 45 e0	 mov	 DWORD PTR tv359[ebp], eax
  001c2	db 45 e0	 fild	 DWORD PTR tv359[ebp]
  001c5	85 c0		 test	 eax, eax
  001c7	79 06		 jns	 SHORT $LN50@ProcessLoo
  001c9	d8 05 00 00 00
	00		 fadd	 DWORD PTR __real@4f800000
$LN50@ProcessLoo:
  001cf	d9 c9		 fxch	 ST(1)
  001d1	df f1		 fcomip	 ST(1)
  001d3	dd d8		 fstp	 ST(0)
  001d5	76 2e		 jbe	 SHORT $LN43@ProcessLoo

; 643  : 		{
; 644  : 			ioEffect *pEff = pMapEff->GetEffect();

  001d7	8b 41 04	 mov	 eax, DWORD PTR [ecx+4]

; 645  : 			if( pEff )

  001da	85 c0		 test	 eax, eax
  001dc	74 27		 je	 SHORT $LN43@ProcessLoo

; 646  : 			{
; 647  : 				D3DXVECTOR3 vScale( fCurScaleRate, fCurScaleRate, fCurScaleRate );

  001de	f3 0f 10 45 e4	 movss	 xmm0, DWORD PTR _fCurScaleRate$[ebp]

; 648  : 				pEff->GetParentNode()->SetScale( vScale );

  001e3	8d 48 14	 lea	 ecx, DWORD PTR [eax+20]
  001e6	8b 01		 mov	 eax, DWORD PTR [ecx]
  001e8	f3 0f 11 45 f0	 movss	 DWORD PTR _vScale$548532[ebp], xmm0
  001ed	f3 0f 11 45 f4	 movss	 DWORD PTR _vScale$548532[ebp+4], xmm0
  001f2	f3 0f 11 45 f8	 movss	 DWORD PTR _vScale$548532[ebp+8], xmm0
  001f7	ff 50 30	 call	 DWORD PTR [eax+48]
  001fa	8b 10		 mov	 edx, DWORD PTR [eax]
  001fc	8d 4d f0	 lea	 ecx, DWORD PTR _vScale$548532[ebp]
  001ff	51		 push	 ecx
  00200	8b c8		 mov	 ecx, eax
  00202	ff 52 20	 call	 DWORD PTR [edx+32]
$LN43@ProcessLoo:
  00205	5b		 pop	 ebx
$LN1@ProcessLoo:

; 649  : 			}
; 650  : 		}
; 651  : 	}
; 652  : }

  00206	8b 4d fc	 mov	 ecx, DWORD PTR __$ArrayPad$[ebp]
  00209	33 cd		 xor	 ecx, ebp
  0020b	5e		 pop	 esi
  0020c	e8 00 00 00 00	 call	 @__security_check_cookie@4
  00211	c9		 leave
  00212	c2 08 00	 ret	 8
?ProcessLoopState@ioChargingFireSkill4@@IAEXPAVioBaseChar@@PAVioPlayStage@@@Z ENDP ; ioChargingFireSkill4::ProcessLoopState
_TEXT	ENDS
PUBLIC	_pChar$GSCopy$
PUBLIC	?SetFailState@ioChargingFireSkill4@@IAEXPAVioBaseChar@@@Z ; ioChargingFireSkill4::SetFailState
;	COMDAT xdata$x
; File d:\lost saga for developer\youtube\tutorial\source\src\lsclient\stringprotect.h
xdata$x	SEGMENT
__unwindtable$?SetFailState@ioChargingFireSkill4@@IAEXPAVioBaseChar@@@Z DD 0ffffffffH
	DD	FLAT:__unwindfunclet$?SetFailState@ioChargingFireSkill4@@IAEXPAVioBaseChar@@@Z$0
	DD	0ffffffffH
	DD	FLAT:__unwindfunclet$?SetFailState@ioChargingFireSkill4@@IAEXPAVioBaseChar@@@Z$1
__ehfuncinfo$?SetFailState@ioChargingFireSkill4@@IAEXPAVioBaseChar@@@Z DD 019930522H
	DD	02H
	DD	FLAT:__unwindtable$?SetFailState@ioChargingFireSkill4@@IAEXPAVioBaseChar@@@Z
	DD	2 DUP(00H)
	DD	2 DUP(00H)
	DD	00H
	DD	01H
; Function compile flags: /Ogsp
; File d:\lost saga for developer\youtube\tutorial\source\src\lsclient\iochargingfireskill4.cpp
xdata$x	ENDS
;	COMDAT ?SetFailState@ioChargingFireSkill4@@IAEXPAVioBaseChar@@@Z
_TEXT	SEGMENT
$T558361 = -108						; size = 16
$T558491 = -92						; size = 16
_pChar$GSCopy$ = -76					; size = 4
tv2099 = -72						; size = 4
tv2096 = -72						; size = 4
tv2094 = -72						; size = 4
tv2050 = -72						; size = 4
_iAniID$ = -68						; size = 4
_pGrp$ = -64						; size = 4
_value$558308 = -60					; size = 4
_value$558304 = -60					; size = 4
_fAniRate$ = -60					; size = 4
tv2116 = -56						; size = 4
tv2112 = -56						; size = 4
tv2107 = -56						; size = 4
tv2092 = -56						; size = 4
tv2090 = -56						; size = 4
tv2062 = -56						; size = 4
$T558490 = -56						; size = 4
$T558360 = -56						; size = 4
_value$558340 = -56					; size = 4
$T558332 = -56						; size = 4
$T558297 = -56						; size = 4
_szEncEventType$558374 = -52				; size = 13
_szEncEventType$558504 = -32				; size = 12
__$EHRec$ = -12						; size = 12
_pChar$ = 8						; size = 4
?SetFailState@ioChargingFireSkill4@@IAEXPAVioBaseChar@@@Z PROC ; ioChargingFireSkill4::SetFailState, COMDAT
; _this$ = ecx

; 702  : {

  00000	6a 60		 push	 96			; 00000060H
  00002	b8 00 00 00 00	 mov	 eax, __ehhandler$?SetFailState@ioChargingFireSkill4@@IAEXPAVioBaseChar@@@Z
  00007	e8 00 00 00 00	 call	 __EH_prolog3_GS
  0000c	8b 45 08	 mov	 eax, DWORD PTR _pChar$[ebp]
  0000f	8b f1		 mov	 esi, ecx

; 736  : 	m_dwFireMotionEndTime += pGrp->GetAnimationEventTime_e( iAniID, "firemotion_e" ) * fAniRate;

  00011	89 45 b4	 mov	 DWORD PTR _pChar$GSCopy$[ebp], eax
  00014	85 c0		 test	 eax, eax
  00016	0f 84 29 03 00
	00		 je	 $LN6@SetFailSta

; 703  : 	if( !pChar ) return;
; 704  : 	ioEntityGroup *pGrp = pChar->GetGroup();

  0001c	8b 40 04	 mov	 eax, DWORD PTR [eax+4]
  0001f	89 45 c0	 mov	 DWORD PTR _pGrp$[ebp], eax

; 705  : 
; 706  : 	if( m_State == SS_FAIL )

  00022	8d 45 c4	 lea	 eax, DWORD PTR _value$558304[ebp]
  00025	50		 push	 eax
  00026	8d 8e 58 0f 00
	00		 lea	 ecx, DWORD PTR [esi+3928]
  0002c	e8 00 00 00 00	 call	 ?DecryptValueToPool@?$CEncrypt@H@@QAEXPAH@Z ; CEncrypt<int>::DecryptValueToPool
  00031	83 7d c4 03	 cmp	 DWORD PTR _value$558304[ebp], 3
  00035	0f 84 0a 03 00
	00		 je	 $LN6@SetFailSta

; 707  : 		return;
; 708  : 
; 709  : 	DWORD dwCurTime = FRAMEGETTIME();

  0003b	ff 15 00 00 00
	00		 call	 DWORD PTR __imp_?GetSingleton@ioFrameTimer@@SAAAV1@XZ
  00041	8b c8		 mov	 ecx, eax
  00043	ff 15 00 00 00
	00		 call	 DWORD PTR __imp_?GetLoopSec@ioFrameTimer@@QBEKXZ
  00049	8b d8		 mov	 ebx, eax

; 710  : 	m_State = SS_FAIL;

  0004b	8d 45 c4	 lea	 eax, DWORD PTR _value$558308[ebp]
  0004e	50		 push	 eax
  0004f	8d 8e 58 0f 00
	00		 lea	 ecx, DWORD PTR [esi+3928]
  00055	c7 45 c4 03 00
	00 00		 mov	 DWORD PTR _value$558308[ebp], 3
  0005c	e8 00 00 00 00	 call	 ?EncryptValueToPool@?$CEncrypt@H@@AAEXPBD@Z ; CEncrypt<int>::EncryptValueToPool

; 711  : 
; 712  : 	//DestroyMapEffect
; 713  : 	if( m_dwChargingEffect != -1 )

  00061	8b 86 c4 11 00
	00		 mov	 eax, DWORD PTR [esi+4548]
  00067	83 f8 ff	 cmp	 eax, -1
  0006a	74 0b		 je	 SHORT $LN3@SetFailSta

; 714  : 		pChar->EndMapEffect( m_dwChargingEffect, false );

  0006c	8b 4d b4	 mov	 ecx, DWORD PTR _pChar$GSCopy$[ebp]
  0006f	6a 00		 push	 0
  00071	50		 push	 eax
  00072	e8 00 00 00 00	 call	 ?EndMapEffect@ioBaseChar@@QAEXK_N@Z ; ioBaseChar::EndMapEffect
$LN3@SetFailSta:

; 715  : 
; 716  : 	m_dwChargingEffect = -1;
; 717  : 
; 718  : 	int iAniID = pGrp->GetAnimationIdx( m_SkillFailMotion );

  00077	8b 4d c0	 mov	 ecx, DWORD PTR _pGrp$[ebp]
  0007a	83 8e c4 11 00
	00 ff		 or	 DWORD PTR [esi+4548], -1
  00081	8d 86 fc 0f 00
	00		 lea	 eax, DWORD PTR [esi+4092]
  00087	50		 push	 eax
  00088	ff 15 00 00 00
	00		 call	 DWORD PTR __imp_?GetAnimationIdx@ioEntityGroup@@QAEHABVioHashString@@@Z

; 719  : 	float fAniRate = m_fSkillFailMotionRate;

  0008e	f3 0f 10 86 0c
	10 00 00	 movss	 xmm0, DWORD PTR [esi+4108]

; 720  : 	if( fAniRate <= 0.0f )

  00096	0f 57 c9	 xorps	 xmm1, xmm1
  00099	0f 2f c8	 comiss	 xmm1, xmm0
  0009c	89 45 bc	 mov	 DWORD PTR _iAniID$[ebp], eax
  0009f	f3 0f 11 45 c4	 movss	 DWORD PTR _fAniRate$[ebp], xmm0
  000a4	72 18		 jb	 SHORT $LN2@SetFailSta

; 721  : 		fAniRate = FLOAT1;

  000a6	b8 01 00 00 00	 mov	 eax, 1
  000ab	89 45 c8	 mov	 DWORD PTR tv2116[ebp], eax
  000ae	db 45 c8	 fild	 DWORD PTR tv2116[ebp]
  000b1	85 c0		 test	 eax, eax
  000b3	79 06		 jns	 SHORT $LN253@SetFailSta
  000b5	d8 05 00 00 00
	00		 fadd	 DWORD PTR __real@4f800000
$LN253@SetFailSta:
  000bb	d9 5d c4	 fstp	 DWORD PTR _fAniRate$[ebp]
$LN2@SetFailSta:

; 722  : 
; 723  : 	DWORD dwPreDelay = 0;
; 724  : 
; 725  : 	pGrp->ClearAllActionAni( FLOAT100, true );

  000be	b8 64 00 00 00	 mov	 eax, 100		; 00000064H
  000c3	33 ff		 xor	 edi, edi
  000c5	47		 inc	 edi
  000c6	89 45 c8	 mov	 DWORD PTR tv2112[ebp], eax
  000c9	db 45 c8	 fild	 DWORD PTR tv2112[ebp]
  000cc	57		 push	 edi
  000cd	85 c0		 test	 eax, eax
  000cf	79 06		 jns	 SHORT $LN254@SetFailSta
  000d1	d8 05 00 00 00
	00		 fadd	 DWORD PTR __real@4f800000
$LN254@SetFailSta:
  000d7	51		 push	 ecx
  000d8	8b 4d c0	 mov	 ecx, DWORD PTR _pGrp$[ebp]
  000db	d9 1c 24	 fstp	 DWORD PTR [esp]
  000de	ff 15 00 00 00
	00		 call	 DWORD PTR __imp_?ClearAllActionAni@ioEntityGroup@@QAEXM_N@Z

; 726  : 	pGrp->ClearAllLoopAni( FLOAT100, true );

  000e4	b8 64 00 00 00	 mov	 eax, 100		; 00000064H
  000e9	89 45 c8	 mov	 DWORD PTR tv2107[ebp], eax
  000ec	db 45 c8	 fild	 DWORD PTR tv2107[ebp]
  000ef	57		 push	 edi
  000f0	85 c0		 test	 eax, eax
  000f2	79 06		 jns	 SHORT $LN255@SetFailSta
  000f4	d8 05 00 00 00
	00		 fadd	 DWORD PTR __real@4f800000
$LN255@SetFailSta:
  000fa	51		 push	 ecx
  000fb	8b 4d c0	 mov	 ecx, DWORD PTR _pGrp$[ebp]
  000fe	d9 1c 24	 fstp	 DWORD PTR [esp]
  00101	ff 15 00 00 00
	00		 call	 DWORD PTR __imp_?ClearAllLoopAni@ioEntityGroup@@QAEXM_N@Z

; 727  : 
; 728  : 	if( iAniID != -1 )

  00107	83 7d bc ff	 cmp	 DWORD PTR _iAniID$[ebp], -1
  0010b	0f 84 93 00 00
	00		 je	 $LN1@SetFailSta

; 729  : 		pGrp->SetActionAni( iAniID, FLOAT100, FLOAT100, FLOAT1, FLOAT1/fAniRate, 0.0f, dwPreDelay, true );

  00111	b8 01 00 00 00	 mov	 eax, 1
  00116	8b c8		 mov	 ecx, eax
  00118	b8 01 00 00 00	 mov	 eax, 1
  0011d	8b d0		 mov	 edx, eax
  0011f	b8 64 00 00 00	 mov	 eax, 100		; 00000064H
  00124	89 45 c8	 mov	 DWORD PTR $T558332[ebp], eax
  00127	b8 64 00 00 00	 mov	 eax, 100		; 00000064H
  0012c	0f 57 c0	 xorps	 xmm0, xmm0
  0012f	57		 push	 edi
  00130	57		 push	 edi
  00131	83 ec 18	 sub	 esp, 24			; 00000018H
  00134	89 4d b8	 mov	 DWORD PTR tv2099[ebp], ecx
  00137	db 45 b8	 fild	 DWORD PTR tv2099[ebp]
  0013a	f3 0f 11 44 24
	14		 movss	 DWORD PTR [esp+20], xmm0
  00140	f3 0f 11 44 24
	10		 movss	 DWORD PTR [esp+16], xmm0
  00146	85 c9		 test	 ecx, ecx
  00148	79 06		 jns	 SHORT $LN256@SetFailSta
  0014a	d8 05 00 00 00
	00		 fadd	 DWORD PTR __real@4f800000
$LN256@SetFailSta:
  00150	d8 75 c4	 fdiv	 DWORD PTR _fAniRate$[ebp]
  00153	d9 5d b8	 fstp	 DWORD PTR tv2096[ebp]
  00156	d9 45 b8	 fld	 DWORD PTR tv2096[ebp]
  00159	d9 5c 24 0c	 fstp	 DWORD PTR [esp+12]
  0015d	89 55 b8	 mov	 DWORD PTR tv2094[ebp], edx
  00160	db 45 b8	 fild	 DWORD PTR tv2094[ebp]
  00163	85 d2		 test	 edx, edx
  00165	79 06		 jns	 SHORT $LN257@SetFailSta
  00167	d8 05 00 00 00
	00		 fadd	 DWORD PTR __real@4f800000
$LN257@SetFailSta:
  0016d	8b 4d c8	 mov	 ecx, DWORD PTR $T558332[ebp]
  00170	d9 5c 24 08	 fstp	 DWORD PTR [esp+8]
  00174	db 45 c8	 fild	 DWORD PTR $T558332[ebp]
  00177	85 c9		 test	 ecx, ecx
  00179	79 06		 jns	 SHORT $LN258@SetFailSta
  0017b	d8 05 00 00 00
	00		 fadd	 DWORD PTR __real@4f800000
$LN258@SetFailSta:
  00181	d9 5c 24 04	 fstp	 DWORD PTR [esp+4]
  00185	89 45 c8	 mov	 DWORD PTR tv2090[ebp], eax
  00188	db 45 c8	 fild	 DWORD PTR tv2090[ebp]
  0018b	85 c0		 test	 eax, eax
  0018d	79 06		 jns	 SHORT $LN259@SetFailSta
  0018f	d8 05 00 00 00
	00		 fadd	 DWORD PTR __real@4f800000
$LN259@SetFailSta:
  00195	8b 4d c0	 mov	 ecx, DWORD PTR _pGrp$[ebp]
  00198	d9 1c 24	 fstp	 DWORD PTR [esp]
  0019b	ff 75 bc	 push	 DWORD PTR _iAniID$[ebp]
  0019e	ff 15 00 00 00
	00		 call	 DWORD PTR __imp_?SetActionAni@ioEntityGroup@@QAE_NHMMMMMM_N0@Z
$LN1@SetFailSta:

; 730  : 
; 731  : 	m_dwMotionStartTime = dwCurTime;

  001a4	8d 45 c8	 lea	 eax, DWORD PTR _value$558340[ebp]
  001a7	50		 push	 eax
  001a8	8d 8e a8 02 00
	00		 lea	 ecx, DWORD PTR [esi+680]
  001ae	89 5d c8	 mov	 DWORD PTR _value$558340[ebp], ebx
  001b1	e8 00 00 00 00	 call	 ?EncryptValueToPool@?$CEncrypt@K@@AAEXPBD@Z ; CEncrypt<unsigned long>::EncryptValueToPool

; 732  : 	m_dwMotionEndTime = m_dwMotionStartTime + pGrp->GetAnimationFullTime( iAniID ) * fAniRate;

  001b6	ff 75 bc	 push	 DWORD PTR _iAniID$[ebp]
  001b9	8b 4d c0	 mov	 ecx, DWORD PTR _pGrp$[ebp]
  001bc	ff 15 00 00 00
	00		 call	 DWORD PTR __imp_?GetAnimationFullTime@ioEntityGroup@@QAEMH@Z
  001c2	d8 4d c4	 fmul	 DWORD PTR _fAniRate$[ebp]
  001c5	8d 45 c8	 lea	 eax, DWORD PTR $T558297[ebp]
  001c8	50		 push	 eax
  001c9	8d 8e a8 02 00
	00		 lea	 ecx, DWORD PTR [esi+680]
  001cf	d9 5d c8	 fstp	 DWORD PTR $T558297[ebp]
  001d2	e8 00 00 00 00	 call	 ??H?$CEncrypt@K@@QAEKABM@Z ; CEncrypt<unsigned long>::operator+

; 733  : 	m_dwMotionEndTime += m_dwAnimationEndDelay;

  001d7	8b 8e 54 0f 00
	00		 mov	 ecx, DWORD PTR [esi+3924]
  001dd	03 c8		 add	 ecx, eax
  001df	6a 03		 push	 3
  001e1	89 8e d8 02 00
	00		 mov	 DWORD PTR [esi+728], ecx

; 734  : 
; 735  : 	m_dwFireMotionEndTime = dwCurTime;

  001e7	89 9e 24 02 00
	00		 mov	 DWORD PTR [esi+548], ebx

; 736  : 	m_dwFireMotionEndTime += pGrp->GetAnimationEventTime_e( iAniID, "firemotion_e" ) * fAniRate;

  001ed	c7 45 cc 8b 85
	99 8f		 mov	 DWORD PTR _szEncEventType$558374[ebp], -1885764213 ; 8f99858bH
  001f4	c7 45 d0 80 83
	9f 83		 mov	 DWORD PTR _szEncEventType$558374[ebp+4], -2086698112 ; 839f8380H
  001fb	c7 45 d4 82 82
	b4 8f		 mov	 DWORD PTR _szEncEventType$558374[ebp+8], -1883995518 ; 8fb48282H
  00202	8d 45 cc	 lea	 eax, DWORD PTR _szEncEventType$558374[ebp]
  00205	c6 45 d8 00	 mov	 BYTE PTR _szEncEventType$558374[ebp+12], 0
  00209	59		 pop	 ecx
$LL134@SetFailSta:
  0020a	81 30 ed ec eb
	ea		 xor	 DWORD PTR [eax], -353637139 ; eaebecedH
  00210	83 c0 04	 add	 eax, 4
  00213	49		 dec	 ecx
  00214	75 f4		 jne	 SHORT $LL134@SetFailSta
  00216	8d 45 cc	 lea	 eax, DWORD PTR _szEncEventType$558374[ebp]
  00219	50		 push	 eax
  0021a	8d 4d 94	 lea	 ecx, DWORD PTR $T558361[ebp]
  0021d	ff 15 00 00 00
	00		 call	 DWORD PTR __imp_??0ioHashString@@QAE@PBD@Z
  00223	8b 4d c0	 mov	 ecx, DWORD PTR _pGrp$[ebp]
  00226	83 65 fc 00	 and	 DWORD PTR __$EHRec$[ebp+8], 0
  0022a	8d 45 94	 lea	 eax, DWORD PTR $T558361[ebp]
  0022d	50		 push	 eax
  0022e	ff 75 bc	 push	 DWORD PTR _iAniID$[ebp]
  00231	ff 15 00 00 00
	00		 call	 DWORD PTR __imp_?GetAnimationEventTime@ioEntityGroup@@QAEMHABVioHashString@@@Z
  00237	d9 5d c8	 fstp	 DWORD PTR $T558360[ebp]
  0023a	83 4d fc ff	 or	 DWORD PTR __$EHRec$[ebp+8], -1
  0023e	8d 4d 94	 lea	 ecx, DWORD PTR $T558361[ebp]
  00241	ff 15 00 00 00
	00		 call	 DWORD PTR __imp_??1ioHashString@@QAE@XZ
  00247	d9 45 c8	 fld	 DWORD PTR $T558360[ebp]
  0024a	8b 86 24 02 00
	00		 mov	 eax, DWORD PTR [esi+548]
  00250	d8 4d c4	 fmul	 DWORD PTR _fAniRate$[ebp]
  00253	db 86 24 02 00
	00		 fild	 DWORD PTR [esi+548]
  00259	85 c0		 test	 eax, eax
  0025b	79 06		 jns	 SHORT $LN260@SetFailSta
  0025d	dc 05 00 00 00
	00		 fadd	 QWORD PTR __real@41f0000000000000
$LN260@SetFailSta:
  00263	de c1		 faddp	 ST(1), ST(0)
  00265	e8 00 00 00 00	 call	 __ftol2
  0026a	6a 02		 push	 2
  0026c	89 86 24 02 00
	00		 mov	 DWORD PTR [esi+548], eax

; 737  : 
; 738  : 	m_dwEnableReserveTime = dwCurTime;

  00272	89 9e dc 02 00
	00		 mov	 DWORD PTR [esi+732], ebx

; 739  : 	m_dwEnableReserveTime += pGrp->GetAnimationEventTime_e( iAniID, "key_reserve" );

  00278	c7 45 e0 86 89
	92 b5		 mov	 DWORD PTR _szEncEventType$558504[ebp], -1248687738 ; b5928986H
  0027f	c7 45 e4 9f 89
	98 8f		 mov	 DWORD PTR _szEncEventType$558504[ebp+4], -1885828705 ; 8f98899fH
  00286	8d 45 e0	 lea	 eax, DWORD PTR _szEncEventType$558504[ebp]
  00289	c7 45 e8 9f 9a
	8e 00		 mov	 DWORD PTR _szEncEventType$558504[ebp+8], 9345695 ; 008e9a9fH
  00290	59		 pop	 ecx
$LL241@SetFailSta:
  00291	81 30 ed ec eb
	ea		 xor	 DWORD PTR [eax], -353637139 ; eaebecedH
  00297	83 c0 04	 add	 eax, 4
  0029a	49		 dec	 ecx
  0029b	75 f4		 jne	 SHORT $LL241@SetFailSta
  0029d	6a 08		 push	 8
  0029f	58		 pop	 eax
$LL238@SetFailSta:
  002a0	8b c8		 mov	 ecx, eax
  002a2	81 e1 03 00 00
	80		 and	 ecx, -2147483645	; 80000003H
  002a8	79 05		 jns	 SHORT $LN261@SetFailSta
  002aa	49		 dec	 ecx
  002ab	83 c9 fc	 or	 ecx, -4			; fffffffcH
  002ae	41		 inc	 ecx
$LN261@SetFailSta:
  002af	b2 ed		 mov	 dl, -19			; ffffffedH
  002b1	2a d1		 sub	 dl, cl
  002b3	30 54 05 e0	 xor	 BYTE PTR _szEncEventType$558504[ebp+eax], dl
  002b7	40		 inc	 eax
  002b8	83 f8 0b	 cmp	 eax, 11			; 0000000bH
  002bb	7c e3		 jl	 SHORT $LL238@SetFailSta
  002bd	8d 45 e0	 lea	 eax, DWORD PTR _szEncEventType$558504[ebp]
  002c0	50		 push	 eax
  002c1	8d 4d a4	 lea	 ecx, DWORD PTR $T558491[ebp]
  002c4	ff 15 00 00 00
	00		 call	 DWORD PTR __imp_??0ioHashString@@QAE@PBD@Z
  002ca	8b 4d c0	 mov	 ecx, DWORD PTR _pGrp$[ebp]
  002cd	8d 45 a4	 lea	 eax, DWORD PTR $T558491[ebp]
  002d0	50		 push	 eax
  002d1	ff 75 bc	 push	 DWORD PTR _iAniID$[ebp]
  002d4	33 db		 xor	 ebx, ebx
  002d6	43		 inc	 ebx
  002d7	89 5d fc	 mov	 DWORD PTR __$EHRec$[ebp+8], ebx
  002da	ff 15 00 00 00
	00		 call	 DWORD PTR __imp_?GetAnimationEventTime@ioEntityGroup@@QAEMHABVioHashString@@@Z
  002e0	d9 5d c8	 fstp	 DWORD PTR $T558490[ebp]
  002e3	83 4d fc ff	 or	 DWORD PTR __$EHRec$[ebp+8], -1
  002e7	8d 4d a4	 lea	 ecx, DWORD PTR $T558491[ebp]
  002ea	ff 15 00 00 00
	00		 call	 DWORD PTR __imp_??1ioHashString@@QAE@XZ
  002f0	db 86 dc 02 00
	00		 fild	 DWORD PTR [esi+732]
  002f6	8b 86 dc 02 00
	00		 mov	 eax, DWORD PTR [esi+732]
  002fc	85 c0		 test	 eax, eax
  002fe	79 06		 jns	 SHORT $LN262@SetFailSta
  00300	d8 05 00 00 00
	00		 fadd	 DWORD PTR __real@4f800000
$LN262@SetFailSta:
  00306	d8 45 c8	 fadd	 DWORD PTR $T558490[ebp]
  00309	e8 00 00 00 00	 call	 __ftol2

; 740  : 
; 741  : 	m_LoopAimState = LAS_NONE;

  0030e	33 ff		 xor	 edi, edi

; 742  : 
; 743  : 	m_bSetAimedTarget = false;
; 744  : 	m_szTargetName.Clear();

  00310	8d 8e 48 10 00
	00		 lea	 ecx, DWORD PTR [esi+4168]
  00316	89 86 dc 02 00
	00		 mov	 DWORD PTR [esi+732], eax
  0031c	89 be 88 0f 00
	00		 mov	 DWORD PTR [esi+3976], edi
  00322	c6 86 8c 11 00
	00 00		 mov	 BYTE PTR [esi+4492], 0
  00329	ff 15 00 00 00
	00		 call	 DWORD PTR __imp_?Clear@ioHashString@@QAEXXZ

; 745  : 	m_dwAimStartTime = 0;
; 746  : 
; 747  : 	// set marker none...
; 748  : 	pChar->SetTargetMarkerState( ioTargetMarker::MS_NONE, TT_OTHER );

  0032f	8b 4d b4	 mov	 ecx, DWORD PTR _pChar$GSCopy$[ebp]
  00332	53		 push	 ebx
  00333	57		 push	 edi
  00334	81 c1 cc 01 00
	00		 add	 ecx, 460		; 000001ccH
  0033a	89 be 58 10 00
	00		 mov	 DWORD PTR [esi+4184], edi
  00340	e8 00 00 00 00	 call	 ?SetTargetMarkerState@ioBaseGUISupport@@QAEXW4MarkerState@ioTargetMarker@@W4TargetedType@@@Z ; ioBaseGUISupport::SetTargetMarkerState
$LN6@SetFailSta:

; 749  : }

  00345	e8 00 00 00 00	 call	 __EH_epilog3_GS
  0034a	c2 04 00	 ret	 4
_TEXT	ENDS
;	COMDAT text$x
text$x	SEGMENT
__unwindfunclet$?SetFailState@ioChargingFireSkill4@@IAEXPAVioBaseChar@@@Z$0:
  00000	8d 4d 94	 lea	 ecx, DWORD PTR $T558361[ebp]
  00003	ff 25 00 00 00
	00		 jmp	 DWORD PTR __imp_??1ioHashString@@QAE@XZ
__unwindfunclet$?SetFailState@ioChargingFireSkill4@@IAEXPAVioBaseChar@@@Z$1:
  00009	8d 4d a4	 lea	 ecx, DWORD PTR $T558491[ebp]
  0000c	ff 25 00 00 00
	00		 jmp	 DWORD PTR __imp_??1ioHashString@@QAE@XZ
__ehhandler$?SetFailState@ioChargingFireSkill4@@IAEXPAVioBaseChar@@@Z:
  00012	8b 54 24 08	 mov	 edx, DWORD PTR [esp+8]
  00016	8d 42 0c	 lea	 eax, DWORD PTR [edx+12]
  00019	8b 4a 90	 mov	 ecx, DWORD PTR [edx-112]
  0001c	33 c8		 xor	 ecx, eax
  0001e	e8 00 00 00 00	 call	 @__security_check_cookie@4
  00023	8b 4a fc	 mov	 ecx, DWORD PTR [edx-4]
  00026	33 c8		 xor	 ecx, eax
  00028	e8 00 00 00 00	 call	 @__security_check_cookie@4
  0002d	b8 00 00 00 00	 mov	 eax, OFFSET __ehfuncinfo$?SetFailState@ioChargingFireSkill4@@IAEXPAVioBaseChar@@@Z
  00032	e9 00 00 00 00	 jmp	 ___CxxFrameHandler3
text$x	ENDS
?SetFailState@ioChargingFireSkill4@@IAEXPAVioBaseChar@@@Z ENDP ; ioChargingFireSkill4::SetFailState
PUBLIC	_pChar$GSCopy$
PUBLIC	__$ArrayPad$
PUBLIC	?SetAimState@ioChargingFireSkill4@@IAEXPAVioBaseChar@@_N@Z ; ioChargingFireSkill4::SetAimState
EXTRN	?SetTargetMarkerTarget@ioBaseGUISupport@@QAEXABVioHashString@@_NW4TargetedType@@@Z:PROC ; ioBaseGUISupport::SetTargetMarkerTarget
EXTRN	?SetTargetMarkerRange@ioBaseGUISupport@@QAEXMW4TargetedType@@@Z:PROC ; ioBaseGUISupport::SetTargetMarkerRange
EXTRN	?SetTargetMarker@ioBaseGUISupport@@QAEXW4MarkerType@ioTargetMarker@@ABVioHashString@@1111W4TargetedType@@@Z:PROC ; ioBaseGUISupport::SetTargetMarker
;	COMDAT xdata$x
; File d:\lost saga for developer\youtube\tutorial\source\src\lsclient\iobasechar.h
xdata$x	SEGMENT
__unwindtable$?SetAimState@ioChargingFireSkill4@@IAEXPAVioBaseChar@@_N@Z DD 0ffffffffH
	DD	FLAT:__unwindfunclet$?SetAimState@ioChargingFireSkill4@@IAEXPAVioBaseChar@@_N@Z$0
	DD	0ffffffffH
	DD	FLAT:__unwindfunclet$?SetAimState@ioChargingFireSkill4@@IAEXPAVioBaseChar@@_N@Z$1
__ehfuncinfo$?SetAimState@ioChargingFireSkill4@@IAEXPAVioBaseChar@@_N@Z DD 019930522H
	DD	02H
	DD	FLAT:__unwindtable$?SetAimState@ioChargingFireSkill4@@IAEXPAVioBaseChar@@_N@Z
	DD	2 DUP(00H)
	DD	2 DUP(00H)
	DD	00H
	DD	01H
; Function compile flags: /Ogsp
; File d:\lost saga for developer\youtube\tutorial\source\src\lsclient\iochargingfireskill4.cpp
xdata$x	ENDS
;	COMDAT ?SetAimState@ioChargingFireSkill4@@IAEXPAVioBaseChar@@_N@Z
_TEXT	SEGMENT
$T558630 = -32828					; size = 16
_pChar$GSCopy$ = -32812					; size = 4
_value$558636 = -32812					; size = 4
_kPacket$548592 = -32808				; size = 32792
__$ArrayPad$ = -16					; size = 4
__$EHRec$ = -12						; size = 12
_pChar$ = 8						; size = 4
_bSend$ = 12						; size = 1
?SetAimState@ioChargingFireSkill4@@IAEXPAVioBaseChar@@_N@Z PROC ; ioChargingFireSkill4::SetAimState, COMDAT
; _this$ = ecx

; 752  : {

  00000	55		 push	 ebp
  00001	8b ec		 mov	 ebp, esp
  00003	6a ff		 push	 -1
  00005	68 00 00 00 00	 push	 __ehhandler$?SetAimState@ioChargingFireSkill4@@IAEXPAVioBaseChar@@_N@Z
  0000a	64 a1 00 00 00
	00		 mov	 eax, DWORD PTR fs:0
  00010	50		 push	 eax
  00011	b8 30 80 00 00	 mov	 eax, 32816		; 00008030H
  00016	e8 00 00 00 00	 call	 __chkstk
  0001b	a1 00 00 00 00	 mov	 eax, DWORD PTR ___security_cookie
  00020	33 c5		 xor	 eax, ebp
  00022	89 45 f0	 mov	 DWORD PTR __$ArrayPad$[ebp], eax
  00025	53		 push	 ebx
  00026	56		 push	 esi
  00027	57		 push	 edi
  00028	50		 push	 eax
  00029	8d 45 f4	 lea	 eax, DWORD PTR __$EHRec$[ebp]
  0002c	64 a3 00 00 00
	00		 mov	 DWORD PTR fs:0, eax
  00032	8b 45 08	 mov	 eax, DWORD PTR _pChar$[ebp]
  00035	8b d9		 mov	 ebx, ecx

; 779  : 	{
; 780  : 		SP2Packet kPacket( CUPK_SKILL_EXTRA_INFO );

  00037	89 85 d4 7f ff
	ff		 mov	 DWORD PTR _pChar$GSCopy$[ebp], eax
  0003d	85 c0		 test	 eax, eax
  0003f	0f 84 a5 01 00
	00		 je	 $LN1@SetAimStat

; 753  : 	if( !pChar ) return;
; 754  : 
; 755  : 	DWORD dwCurTime = FRAMEGETTIME();

  00045	ff 15 00 00 00
	00		 call	 DWORD PTR __imp_?GetSingleton@ioFrameTimer@@SAAAV1@XZ
  0004b	8b c8		 mov	 ecx, eax
  0004d	ff 15 00 00 00
	00		 call	 DWORD PTR __imp_?GetLoopSec@ioFrameTimer@@QBEKXZ

; 756  : 
; 757  : 	m_LoopAimState = LAS_WAIT;
; 758  : 	m_dwAimStartTime = dwCurTime;
; 759  : 	m_szTargetName.Clear();

  00053	8d 8b 48 10 00
	00		 lea	 ecx, DWORD PTR [ebx+4168]
  00059	c7 83 88 0f 00
	00 01 00 00 00	 mov	 DWORD PTR [ebx+3976], 1
  00063	89 83 58 10 00
	00		 mov	 DWORD PTR [ebx+4184], eax
  00069	ff 15 00 00 00
	00		 call	 DWORD PTR __imp_?Clear@ioHashString@@QAEXXZ

; 760  : 	m_bSetAimedTarget = false;

  0006f	c6 83 8c 11 00
	00 00		 mov	 BYTE PTR [ebx+4492], 0

; 761  : 	m_vAimedPos = ioMath::VEC3_ZERO;

  00076	8b 35 00 00 00
	00		 mov	 esi, DWORD PTR __imp_?VEC3_ZERO@ioMath@@2UD3DXVECTOR3@@A
  0007c	8d bb 90 11 00
	00		 lea	 edi, DWORD PTR [ebx+4496]
  00082	a5		 movsd
  00083	a5		 movsd

; 762  : 
; 763  : 	// set marker
; 764  : 	pChar->SetTargetMarker( ioTargetMarker::MT_OTHER_MARKER,
; 765  : 							m_szReadyMarker,
; 766  : 							m_szAimingMarker,
; 767  : 							m_szAimedMarker,
; 768  : 							m_szZeroAimedMarker,
; 769  : 							"",
; 770  : 							TT_OTHER );

  00084	68 00 00 00 00	 push	 OFFSET ??_C@_00CNPNBAHC@?$AA@
  00089	8d 8d c4 7f ff
	ff		 lea	 ecx, DWORD PTR $T558630[ebp]
  0008f	a5		 movsd
  00090	ff 15 00 00 00
	00		 call	 DWORD PTR __imp_??0ioHashString@@QAE@PBD@Z
  00096	8b b5 d4 7f ff
	ff		 mov	 esi, DWORD PTR _pChar$GSCopy$[ebp]
  0009c	83 65 fc 00	 and	 DWORD PTR __$EHRec$[ebp+8], 0
  000a0	6a 01		 push	 1
  000a2	8d 85 c4 7f ff
	ff		 lea	 eax, DWORD PTR $T558630[ebp]
  000a8	50		 push	 eax
  000a9	8d 83 7c 11 00
	00		 lea	 eax, DWORD PTR [ebx+4476]
  000af	50		 push	 eax
  000b0	8d 83 6c 11 00
	00		 lea	 eax, DWORD PTR [ebx+4460]
  000b6	50		 push	 eax
  000b7	8d 83 5c 11 00
	00		 lea	 eax, DWORD PTR [ebx+4444]
  000bd	50		 push	 eax
  000be	8d 83 4c 11 00
	00		 lea	 eax, DWORD PTR [ebx+4428]
  000c4	50		 push	 eax
  000c5	6a 07		 push	 7
  000c7	8d 8e cc 01 00
	00		 lea	 ecx, DWORD PTR [esi+460]
  000cd	e8 00 00 00 00	 call	 ?SetTargetMarker@ioBaseGUISupport@@QAEXW4MarkerType@ioTargetMarker@@ABVioHashString@@1111W4TargetedType@@@Z ; ioBaseGUISupport::SetTargetMarker
  000d2	83 4d fc ff	 or	 DWORD PTR __$EHRec$[ebp+8], -1
  000d6	8d 8d c4 7f ff
	ff		 lea	 ecx, DWORD PTR $T558630[ebp]
  000dc	ff 15 00 00 00
	00		 call	 DWORD PTR __imp_??1ioHashString@@QAE@XZ

; 771  : 
; 772  : 	pChar->SetTargetMarkerRange( m_fMarkerRange, TT_OTHER );

  000e2	8d 85 d4 7f ff
	ff		 lea	 eax, DWORD PTR _value$558636[ebp]
  000e8	50		 push	 eax
  000e9	8d 8b 1c 11 00
	00		 lea	 ecx, DWORD PTR [ebx+4380]
  000ef	e8 00 00 00 00	 call	 ?DecryptValueToPool@?$CEncrypt@M@@QAEXPAM@Z ; CEncrypt<float>::DecryptValueToPool
  000f4	f3 0f 10 85 d4
	7f ff ff	 movss	 xmm0, DWORD PTR _value$558636[ebp]
  000fc	6a 01		 push	 1
  000fe	51		 push	 ecx
  000ff	8d 8e cc 01 00
	00		 lea	 ecx, DWORD PTR [esi+460]
  00105	f3 0f 11 04 24	 movss	 DWORD PTR [esp], xmm0
  0010a	e8 00 00 00 00	 call	 ?SetTargetMarkerRange@ioBaseGUISupport@@QAEXMW4TargetedType@@@Z ; ioBaseGUISupport::SetTargetMarkerRange

; 773  : 	pChar->SetTargetMarkerState( ioTargetMarker::MS_READY, TT_OTHER );

  0010f	6a 01		 push	 1
  00111	6a 01		 push	 1
  00113	8d 8e cc 01 00
	00		 lea	 ecx, DWORD PTR [esi+460]
  00119	e8 00 00 00 00	 call	 ?SetTargetMarkerState@ioBaseGUISupport@@QAEXW4MarkerState@ioTargetMarker@@W4TargetedType@@@Z ; ioBaseGUISupport::SetTargetMarkerState

; 774  : 
; 775  : 	//  ...
; 776  : 	pChar->SetTargetMarkerTarget( m_szTargetName, false, TT_OTHER );

  0011e	6a 01		 push	 1
  00120	6a 00		 push	 0
  00122	8d 83 48 10 00
	00		 lea	 eax, DWORD PTR [ebx+4168]
  00128	50		 push	 eax
  00129	8d 8e cc 01 00
	00		 lea	 ecx, DWORD PTR [esi+460]
  0012f	e8 00 00 00 00	 call	 ?SetTargetMarkerTarget@ioBaseGUISupport@@QAEXABVioHashString@@_NW4TargetedType@@@Z ; ioBaseGUISupport::SetTargetMarkerTarget

; 777  : 
; 778  : 	if( bSend && pChar->IsNeedSendNetwork() )

  00134	80 7d 0c 00	 cmp	 BYTE PTR _bSend$[ebp], 0
  00138	0f 84 ac 00 00
	00		 je	 $LN1@SetAimStat
  0013e	8b 06		 mov	 eax, DWORD PTR [esi]
  00140	8b ce		 mov	 ecx, esi
  00142	ff 90 04 01 00
	00		 call	 DWORD PTR [eax+260]
  00148	84 c0		 test	 al, al
  0014a	0f 84 9a 00 00
	00		 je	 $LN1@SetAimStat

; 779  : 	{
; 780  : 		SP2Packet kPacket( CUPK_SKILL_EXTRA_INFO );

  00150	68 39 41 00 00	 push	 16697			; 00004139H
  00155	8d 8d d8 7f ff
	ff		 lea	 ecx, DWORD PTR _kPacket$548592[ebp]
  0015b	e8 00 00 00 00	 call	 ??0SP2Packet@@QAE@K@Z	; SP2Packet::SP2Packet

; 781  : 		kPacket << pChar->GetCharName();

  00160	8d 86 d4 02 00
	00		 lea	 eax, DWORD PTR [esi+724]
  00166	50		 push	 eax
  00167	8d 8d d8 7f ff
	ff		 lea	 ecx, DWORD PTR _kPacket$548592[ebp]
  0016d	c7 45 fc 01 00
	00 00		 mov	 DWORD PTR __$EHRec$[ebp+8], 1
  00174	e8 00 00 00 00	 call	 ??6SP2Packet@@QAEAAV0@ABVioHashString@@@Z ; SP2Packet::operator<<

; 782  : 		kPacket << GetName();

  00179	8d 43 24	 lea	 eax, DWORD PTR [ebx+36]
  0017c	50		 push	 eax
  0017d	8d 8d d8 7f ff
	ff		 lea	 ecx, DWORD PTR _kPacket$548592[ebp]
  00183	e8 00 00 00 00	 call	 ??6SP2Packet@@QAEAAV0@ABVioHashString@@@Z ; SP2Packet::operator<<

; 783  : 		kPacket << SSC_LOOP;

  00188	6a 00		 push	 0
  0018a	8d 8d d8 7f ff
	ff		 lea	 ecx, DWORD PTR _kPacket$548592[ebp]
  00190	e8 00 00 00 00	 call	 ??6SP2Packet@@QAEAAV0@H@Z ; SP2Packet::operator<<

; 784  : 		kPacket << m_LoopAimState;

  00195	ff b3 88 0f 00
	00		 push	 DWORD PTR [ebx+3976]
  0019b	8d 8d d8 7f ff
	ff		 lea	 ecx, DWORD PTR _kPacket$548592[ebp]
  001a1	e8 00 00 00 00	 call	 ??6SP2Packet@@QAEAAV0@H@Z ; SP2Packet::operator<<

; 785  : 		kPacket << pChar->GetWorldPosition();

  001a6	8b 06		 mov	 eax, DWORD PTR [esi]
  001a8	8b ce		 mov	 ecx, esi
  001aa	ff 50 70	 call	 DWORD PTR [eax+112]
  001ad	50		 push	 eax
  001ae	8d 8d d8 7f ff
	ff		 lea	 ecx, DWORD PTR _kPacket$548592[ebp]
  001b4	e8 00 00 00 00	 call	 ??6SP2Packet@@QAEAAV0@ABUD3DXVECTOR3@@@Z ; SP2Packet::operator<<

; 786  : 		kPacket << pChar->GetTargetRot();

  001b9	81 c6 a4 06 00
	00		 add	 esi, 1700		; 000006a4H
  001bf	56		 push	 esi
  001c0	8d 8d d8 7f ff
	ff		 lea	 ecx, DWORD PTR _kPacket$548592[ebp]
  001c6	e8 00 00 00 00	 call	 ??6SP2Packet@@QAEAAV0@ABUD3DXQUATERNION@@@Z ; SP2Packet::operator<<

; 787  : 		P2PNetwork::SendToAllPlayingUser( kPacket );

  001cb	8d 85 d8 7f ff
	ff		 lea	 eax, DWORD PTR _kPacket$548592[ebp]
  001d1	6a 00		 push	 0
  001d3	50		 push	 eax
  001d4	e8 00 00 00 00	 call	 ?SendToAllPlayingUser@P2PNetwork@@YAXAAVSP2Packet@@PAVioBaseChar@@@Z ; P2PNetwork::SendToAllPlayingUser

; 788  : 	}

  001d9	83 4d fc ff	 or	 DWORD PTR __$EHRec$[ebp+8], -1
  001dd	59		 pop	 ecx
  001de	59		 pop	 ecx
  001df	8d 8d d8 7f ff
	ff		 lea	 ecx, DWORD PTR _kPacket$548592[ebp]
  001e5	e8 00 00 00 00	 call	 ??1SP2Packet@@UAE@XZ	; SP2Packet::~SP2Packet
$LN1@SetAimStat:

; 789  : }

  001ea	8b 4d f4	 mov	 ecx, DWORD PTR __$EHRec$[ebp]
  001ed	64 89 0d 00 00
	00 00		 mov	 DWORD PTR fs:0, ecx
  001f4	59		 pop	 ecx
  001f5	5f		 pop	 edi
  001f6	5e		 pop	 esi
  001f7	5b		 pop	 ebx
  001f8	8b 4d f0	 mov	 ecx, DWORD PTR __$ArrayPad$[ebp]
  001fb	33 cd		 xor	 ecx, ebp
  001fd	e8 00 00 00 00	 call	 @__security_check_cookie@4
  00202	c9		 leave
  00203	c2 08 00	 ret	 8
_TEXT	ENDS
;	COMDAT text$x
text$x	SEGMENT
__unwindfunclet$?SetAimState@ioChargingFireSkill4@@IAEXPAVioBaseChar@@_N@Z$0:
  00000	8d 8d c4 7f ff
	ff		 lea	 ecx, DWORD PTR $T558630[ebp]
  00006	ff 25 00 00 00
	00		 jmp	 DWORD PTR __imp_??1ioHashString@@QAE@XZ
__unwindfunclet$?SetAimState@ioChargingFireSkill4@@IAEXPAVioBaseChar@@_N@Z$1:
  0000c	8d 8d d8 7f ff
	ff		 lea	 ecx, DWORD PTR _kPacket$548592[ebp]
  00012	e9 00 00 00 00	 jmp	 ??1SP2Packet@@UAE@XZ	; SP2Packet::~SP2Packet
__ehhandler$?SetAimState@ioChargingFireSkill4@@IAEXPAVioBaseChar@@_N@Z:
  00017	8b 54 24 08	 mov	 edx, DWORD PTR [esp+8]
  0001b	8d 42 0c	 lea	 eax, DWORD PTR [edx+12]
  0001e	8b 8a c0 7f ff
	ff		 mov	 ecx, DWORD PTR [edx-32832]
  00024	33 c8		 xor	 ecx, eax
  00026	e8 00 00 00 00	 call	 @__security_check_cookie@4
  0002b	8b 4a fc	 mov	 ecx, DWORD PTR [edx-4]
  0002e	33 c8		 xor	 ecx, eax
  00030	e8 00 00 00 00	 call	 @__security_check_cookie@4
  00035	b8 00 00 00 00	 mov	 eax, OFFSET __ehfuncinfo$?SetAimState@ioChargingFireSkill4@@IAEXPAVioBaseChar@@_N@Z
  0003a	e9 00 00 00 00	 jmp	 ___CxxFrameHandler3
text$x	ENDS
?SetAimState@ioChargingFireSkill4@@IAEXPAVioBaseChar@@_N@Z ENDP ; ioChargingFireSkill4::SetAimState
PUBLIC	_pChar$GSCopy$
PUBLIC	__$ArrayPad$
PUBLIC	?CheckTargetValidate@ioChargingFireSkill4@@IAE_NPAVioBaseChar@@@Z ; ioChargingFireSkill4::CheckTargetValidate
EXTRN	__imp_??D@YA?AUD3DXVECTOR3@@ABUD3DXQUATERNION@@ABU0@@Z:PROC
EXTRN	_D3DXVec3Normalize@8:PROC
EXTRN	?IsChatModeState@ioBaseChar@@QBE_N_N@Z:PROC	; ioBaseChar::IsChatModeState
EXTRN	?HasHideBuff@ioBaseChar@@QAE?B_NXZ:PROC		; ioBaseChar::HasHideBuff
EXTRN	?GetBaseChar@ioBaseChar@@QAEPAV1@ABVioHashString@@@Z:PROC ; ioBaseChar::GetBaseChar
; Function compile flags: /Ogsp
;	COMDAT ?CheckTargetValidate@ioChargingFireSkill4@@IAE_NPAVioBaseChar@@@Z
_TEXT	SEGMENT
_vCharDir$ = -76					; size = 12
_qtRot$ = -64						; size = 16
_pChar$GSCopy$ = -48					; size = 4
_value$558687 = -48					; size = 4
$T558679 = -48						; size = 4
tv482 = -44						; size = 4
tv465 = -44						; size = 4
tv462 = -44						; size = 4
tv457 = -44						; size = 4
tv453 = -44						; size = 4
tv270 = -44						; size = 4
tv217 = -44						; size = 4
tv86 = -44						; size = 4
$T558691 = -44						; size = 4
_value$558675 = -44					; size = 4
$T548644 = -40						; size = 12
$T548643 = -28						; size = 12
_vTargetPos$ = -28					; size = 12
tv500 = -24						; size = 8
_value$558720 = -20					; size = 4
_value$558695 = -20					; size = 4
_value$558683 = -20					; size = 4
_vDiff$ = -16						; size = 12
__$ArrayPad$ = -4					; size = 4
_pChar$ = 8						; size = 4
?CheckTargetValidate@ioChargingFireSkill4@@IAE_NPAVioBaseChar@@@Z PROC ; ioChargingFireSkill4::CheckTargetValidate, COMDAT
; _this$ = ecx

; 858  : {

  00000	55		 push	 ebp
  00001	8b ec		 mov	 ebp, esp
  00003	83 ec 4c	 sub	 esp, 76			; 0000004cH
  00006	a1 00 00 00 00	 mov	 eax, DWORD PTR ___security_cookie
  0000b	33 c5		 xor	 eax, ebp
  0000d	89 45 fc	 mov	 DWORD PTR __$ArrayPad$[ebp], eax
  00010	53		 push	 ebx
  00011	8b d9		 mov	 ebx, ecx
  00013	8b 4d 08	 mov	 ecx, DWORD PTR _pChar$[ebp]
  00016	56		 push	 esi

; 859  : 	ioBaseChar *pTarget = pChar->GetBaseChar( m_szTargetName );

  00017	8d 83 48 10 00
	00		 lea	 eax, DWORD PTR [ebx+4168]
  0001d	50		 push	 eax

; 877  : 
; 878  : 	vDiff.y = 0.0f;

  0001e	89 4d d0	 mov	 DWORD PTR _pChar$GSCopy$[ebp], ecx
  00021	e8 00 00 00 00	 call	 ?GetBaseChar@ioBaseChar@@QAEPAV1@ABVioHashString@@@Z ; ioBaseChar::GetBaseChar
  00026	8b f0		 mov	 esi, eax
  00028	85 f6		 test	 esi, esi
  0002a	75 07		 jne	 SHORT $LN6@CheckTarge
$LN50@CheckTarge:

; 860  : 	if( !pTarget )
; 861  : 		return false;

  0002c	32 c0		 xor	 al, al
  0002e	e9 80 02 00 00	 jmp	 $LN7@CheckTarge
$LN6@CheckTarge:

; 862  : 
; 863  : 	if( pTarget->HasHideBuff() )

  00033	8b ce		 mov	 ecx, esi
  00035	e8 00 00 00 00	 call	 ?HasHideBuff@ioBaseChar@@QAE?B_NXZ ; ioBaseChar::HasHideBuff
  0003a	84 c0		 test	 al, al

; 864  : 		return false;

  0003c	75 ee		 jne	 SHORT $LN50@CheckTarge

; 865  : 
; 866  : 	if( pTarget->IsChatModeState( false ) )

  0003e	6a 00		 push	 0
  00040	8b ce		 mov	 ecx, esi
  00042	e8 00 00 00 00	 call	 ?IsChatModeState@ioBaseChar@@QBE_N_N@Z ; ioBaseChar::IsChatModeState
  00047	84 c0		 test	 al, al

; 867  : 		return false;

  00049	75 e1		 jne	 SHORT $LN50@CheckTarge

; 868  : 
; 869  : 	D3DXVECTOR3 vTargetPos = pTarget->GetWorldPosition();

  0004b	8b 06		 mov	 eax, DWORD PTR [esi]
  0004d	57		 push	 edi
  0004e	8b ce		 mov	 ecx, esi
  00050	ff 50 70	 call	 DWORD PTR [eax+112]
  00053	8b f0		 mov	 esi, eax
  00055	8d 7d e4	 lea	 edi, DWORD PTR _vTargetPos$[ebp]
  00058	a5		 movsd
  00059	a5		 movsd
  0005a	a5		 movsd

; 870  : 	D3DXVECTOR3 vDiff = vTargetPos - pChar->GetWorldPosition();

  0005b	8b 75 d0	 mov	 esi, DWORD PTR _pChar$GSCopy$[ebp]
  0005e	8b 06		 mov	 eax, DWORD PTR [esi]
  00060	8b ce		 mov	 ecx, esi
  00062	ff 50 70	 call	 DWORD PTR [eax+112]
  00065	f3 0f 10 48 04	 movss	 xmm1, DWORD PTR [eax+4]
  0006a	f3 0f 10 50 08	 movss	 xmm2, DWORD PTR [eax+8]
  0006f	f3 0f 10 45 e8	 movss	 xmm0, DWORD PTR _vTargetPos$[ebp+4]
  00074	f3 0f 10 18	 movss	 xmm3, DWORD PTR [eax]
  00078	0f 5a c9	 cvtps2pd xmm1, xmm1
  0007b	0f 5a c0	 cvtps2pd xmm0, xmm0
  0007e	f2 0f 5c c1	 subsd	 xmm0, xmm1
  00082	f3 0f 10 4d ec	 movss	 xmm1, DWORD PTR _vTargetPos$[ebp+8]
  00087	0f 5a d2	 cvtps2pd xmm2, xmm2
  0008a	0f 5a c9	 cvtps2pd xmm1, xmm1
  0008d	f2 0f 5c ca	 subsd	 xmm1, xmm2
  00091	f3 0f 10 55 e4	 movss	 xmm2, DWORD PTR _vTargetPos$[ebp]
  00096	0f 5a d2	 cvtps2pd xmm2, xmm2
  00099	0f 5a db	 cvtps2pd xmm3, xmm3

; 871  : 
; 872  : 	if( D3DXVec3LengthSq( &vDiff ) > m_fAimMaxRange * m_fAimMaxRange )

  0009c	8d 45 d4	 lea	 eax, DWORD PTR _value$558675[ebp]
  0009f	f2 0f 5c d3	 subsd	 xmm2, xmm3
  000a3	66 0f 5a c0	 cvtpd2ps xmm0, xmm0
  000a7	66 0f 5a c9	 cvtpd2ps xmm1, xmm1
  000ab	66 0f 5a d2	 cvtpd2ps xmm2, xmm2
  000af	50		 push	 eax
  000b0	8d 8b bc 10 00
	00		 lea	 ecx, DWORD PTR [ebx+4284]
  000b6	f3 0f 11 55 f0	 movss	 DWORD PTR _vDiff$[ebp], xmm2
  000bb	f3 0f 11 45 f4	 movss	 DWORD PTR _vDiff$[ebp+4], xmm0
  000c0	f3 0f 11 4d f8	 movss	 DWORD PTR _vDiff$[ebp+8], xmm1
  000c5	e8 00 00 00 00	 call	 ?DecryptValueToPool@?$CEncrypt@M@@QAEXPAM@Z ; CEncrypt<float>::DecryptValueToPool
  000ca	f3 0f 10 45 f0	 movss	 xmm0, DWORD PTR _vDiff$[ebp]
  000cf	f3 0f 10 4d f4	 movss	 xmm1, DWORD PTR _vDiff$[ebp+4]
  000d4	f3 0f 10 55 f8	 movss	 xmm2, DWORD PTR _vDiff$[ebp+8]
  000d9	0f 5a c0	 cvtps2pd xmm0, xmm0
  000dc	f2 0f 59 c0	 mulsd	 xmm0, xmm0
  000e0	0f 5a c9	 cvtps2pd xmm1, xmm1
  000e3	f2 0f 59 c9	 mulsd	 xmm1, xmm1
  000e7	0f 5a d2	 cvtps2pd xmm2, xmm2
  000ea	f2 0f 58 c8	 addsd	 xmm1, xmm0
  000ee	f2 0f 59 d2	 mulsd	 xmm2, xmm2
  000f2	8d 45 ec	 lea	 eax, DWORD PTR _value$558683[ebp]
  000f5	f2 0f 58 ca	 addsd	 xmm1, xmm2
  000f9	66 0f 5a c1	 cvtpd2ps xmm0, xmm1
  000fd	50		 push	 eax
  000fe	8d 8b bc 10 00
	00		 lea	 ecx, DWORD PTR [ebx+4284]
  00104	f3 0f 11 45 d0	 movss	 DWORD PTR $T558679[ebp], xmm0
  00109	e8 00 00 00 00	 call	 ?DecryptValueToPool@?$CEncrypt@M@@QAEXPAM@Z ; CEncrypt<float>::DecryptValueToPool
  0010e	f3 0f 10 4d ec	 movss	 xmm1, DWORD PTR _value$558683[ebp]
  00113	f3 0f 10 55 d4	 movss	 xmm2, DWORD PTR _value$558675[ebp]
  00118	f3 0f 10 45 d0	 movss	 xmm0, DWORD PTR $T558679[ebp]
  0011d	0f 5a c9	 cvtps2pd xmm1, xmm1
  00120	0f 5a d2	 cvtps2pd xmm2, xmm2
  00123	f2 0f 59 ca	 mulsd	 xmm1, xmm2
  00127	66 0f 5a c9	 cvtpd2ps xmm1, xmm1
  0012b	0f 5a c0	 cvtps2pd xmm0, xmm0
  0012e	f3 0f 5a c9	 cvtss2sd xmm1, xmm1
  00132	66 0f 2f c1	 comisd	 xmm0, xmm1

; 873  : 		return false;

  00136	0f 87 70 01 00
	00		 ja	 $LN49@CheckTarge

; 874  : 
; 875  : 	if( D3DXVec3LengthSq( &vDiff ) < m_fAimMinRange * m_fAimMinRange )

  0013c	8d 45 d0	 lea	 eax, DWORD PTR _value$558687[ebp]
  0013f	50		 push	 eax
  00140	8d 8b 8c 10 00
	00		 lea	 ecx, DWORD PTR [ebx+4236]
  00146	e8 00 00 00 00	 call	 ?DecryptValueToPool@?$CEncrypt@M@@QAEXPAM@Z ; CEncrypt<float>::DecryptValueToPool
  0014b	f3 0f 10 45 f0	 movss	 xmm0, DWORD PTR _vDiff$[ebp]
  00150	f3 0f 10 4d f4	 movss	 xmm1, DWORD PTR _vDiff$[ebp+4]
  00155	f3 0f 10 55 f8	 movss	 xmm2, DWORD PTR _vDiff$[ebp+8]
  0015a	0f 5a c0	 cvtps2pd xmm0, xmm0
  0015d	f2 0f 59 c0	 mulsd	 xmm0, xmm0
  00161	0f 5a c9	 cvtps2pd xmm1, xmm1
  00164	f2 0f 59 c9	 mulsd	 xmm1, xmm1
  00168	0f 5a d2	 cvtps2pd xmm2, xmm2
  0016b	f2 0f 58 c8	 addsd	 xmm1, xmm0
  0016f	f2 0f 59 d2	 mulsd	 xmm2, xmm2
  00173	8d 45 ec	 lea	 eax, DWORD PTR _value$558695[ebp]
  00176	f2 0f 58 ca	 addsd	 xmm1, xmm2
  0017a	66 0f 5a c1	 cvtpd2ps xmm0, xmm1
  0017e	50		 push	 eax
  0017f	8d 8b 8c 10 00
	00		 lea	 ecx, DWORD PTR [ebx+4236]
  00185	f3 0f 11 45 d4	 movss	 DWORD PTR $T558691[ebp], xmm0
  0018a	e8 00 00 00 00	 call	 ?DecryptValueToPool@?$CEncrypt@M@@QAEXPAM@Z ; CEncrypt<float>::DecryptValueToPool
  0018f	f3 0f 10 4d ec	 movss	 xmm1, DWORD PTR _value$558695[ebp]
  00194	f3 0f 10 55 d0	 movss	 xmm2, DWORD PTR _value$558687[ebp]
  00199	f3 0f 10 45 d4	 movss	 xmm0, DWORD PTR $T558691[ebp]
  0019e	0f 5a c9	 cvtps2pd xmm1, xmm1
  001a1	0f 5a d2	 cvtps2pd xmm2, xmm2
  001a4	f2 0f 59 ca	 mulsd	 xmm1, xmm2
  001a8	66 0f 5a c9	 cvtpd2ps xmm1, xmm1
  001ac	0f 5a c0	 cvtps2pd xmm0, xmm0
  001af	f3 0f 5a c9	 cvtss2sd xmm1, xmm1
  001b3	66 0f 2f c8	 comisd	 xmm1, xmm0

; 876  : 		return false;

  001b7	0f 87 ef 00 00
	00		 ja	 $LN49@CheckTarge

; 877  : 
; 878  : 	vDiff.y = 0.0f;

  001bd	d9 ee		 fldz

; 879  : 	D3DXVec3Normalize( &vDiff, &vDiff );

  001bf	8d 45 f0	 lea	 eax, DWORD PTR _vDiff$[ebp]
  001c2	50		 push	 eax
  001c3	d9 5d f4	 fstp	 DWORD PTR _vDiff$[ebp+4]
  001c6	50		 push	 eax
  001c7	e8 00 00 00 00	 call	 _D3DXVec3Normalize@8

; 880  : 
; 881  : 	D3DXVECTOR3 vCharDir;
; 882  : 	D3DXQUATERNION qtRot = pChar->GetTargetRot();

  001cc	81 c6 a4 06 00
	00		 add	 esi, 1700		; 000006a4H
  001d2	8d 7d c0	 lea	 edi, DWORD PTR _qtRot$[ebp]
  001d5	a5		 movsd
  001d6	a5		 movsd
  001d7	a5		 movsd
  001d8	a5		 movsd

; 883  : 	vCharDir = qtRot * D3DXVECTOR3( 0.0f, 0.0f, -FLOAT1 );

  001d9	b8 01 00 00 00	 mov	 eax, 1
  001de	0f 57 c0	 xorps	 xmm0, xmm0
  001e1	89 45 d4	 mov	 DWORD PTR tv482[ebp], eax
  001e4	db 45 d4	 fild	 DWORD PTR tv482[ebp]
  001e7	f3 0f 11 45 e4	 movss	 DWORD PTR $T548643[ebp], xmm0
  001ec	f3 0f 11 45 e8	 movss	 DWORD PTR $T548643[ebp+4], xmm0
  001f1	85 c0		 test	 eax, eax
  001f3	79 06		 jns	 SHORT $LN46@CheckTarge
  001f5	d8 05 00 00 00
	00		 fadd	 DWORD PTR __real@4f800000
$LN46@CheckTarge:
  001fb	8d 45 e4	 lea	 eax, DWORD PTR $T548643[ebp]
  001fe	d9 e0		 fchs
  00200	50		 push	 eax
  00201	d9 5d ec	 fstp	 DWORD PTR $T548643[ebp+8]
  00204	8d 45 c0	 lea	 eax, DWORD PTR _qtRot$[ebp]
  00207	50		 push	 eax
  00208	8d 45 d8	 lea	 eax, DWORD PTR $T548644[ebp]
  0020b	50		 push	 eax
  0020c	ff 15 00 00 00
	00		 call	 DWORD PTR __imp_??D@YA?AUD3DXVECTOR3@@ABUD3DXQUATERNION@@ABU0@@Z
  00212	8b f0		 mov	 esi, eax
  00214	8d 7d b4	 lea	 edi, DWORD PTR _vCharDir$[ebp]
  00217	a5		 movsd
  00218	a5		 movsd
  00219	83 c4 0c	 add	 esp, 12			; 0000000cH
  0021c	a5		 movsd

; 884  : 
; 885  : 	float fHalfCosine = cosf( DEGtoRAD( m_fAimAngle * FLOAT05 ) );

  0021d	b8 05 00 00 00	 mov	 eax, 5
  00222	8b f0		 mov	 esi, eax
  00224	b8 0a 00 00 00	 mov	 eax, 10			; 0000000aH
  00229	8b f8		 mov	 edi, eax
  0022b	8d 45 ec	 lea	 eax, DWORD PTR _value$558720[ebp]
  0022e	50		 push	 eax
  0022f	8d 8b ec 10 00
	00		 lea	 ecx, DWORD PTR [ebx+4332]
  00235	e8 00 00 00 00	 call	 ?DecryptValueToPool@?$CEncrypt@M@@QAEXPAM@Z ; CEncrypt<float>::DecryptValueToPool

; 886  : 	if( D3DXVec3Dot( &vCharDir, &vDiff ) < fHalfCosine )

  0023a	d9 45 b4	 fld	 DWORD PTR _vCharDir$[ebp]
  0023d	d8 4d f0	 fmul	 DWORD PTR _vDiff$[ebp]
  00240	d9 45 b8	 fld	 DWORD PTR _vCharDir$[ebp+4]
  00243	d8 4d f4	 fmul	 DWORD PTR _vDiff$[ebp+4]
  00246	de c1		 faddp	 ST(1), ST(0)
  00248	d9 45 bc	 fld	 DWORD PTR _vCharDir$[ebp+8]
  0024b	d8 4d f8	 fmul	 DWORD PTR _vDiff$[ebp+8]
  0024e	de c1		 faddp	 ST(1), ST(0)
  00250	d9 5d d4	 fstp	 DWORD PTR tv465[ebp]
  00253	d9 45 d4	 fld	 DWORD PTR tv465[ebp]
  00256	89 75 d4	 mov	 DWORD PTR tv462[ebp], esi
  00259	db 45 d4	 fild	 DWORD PTR tv462[ebp]
  0025c	85 f6		 test	 esi, esi
  0025e	79 06		 jns	 SHORT $LN47@CheckTarge
  00260	d8 05 00 00 00
	00		 fadd	 DWORD PTR __real@4f800000
$LN47@CheckTarge:
  00266	89 7d d4	 mov	 DWORD PTR tv457[ebp], edi
  00269	db 45 d4	 fild	 DWORD PTR tv457[ebp]
  0026c	85 ff		 test	 edi, edi
  0026e	79 06		 jns	 SHORT $LN48@CheckTarge
  00270	d8 05 00 00 00
	00		 fadd	 DWORD PTR __real@4f800000
$LN48@CheckTarge:

; 884  : 
; 885  : 	float fHalfCosine = cosf( DEGtoRAD( m_fAimAngle * FLOAT05 ) );

  00276	de f9		 fdivp	 ST(1), ST(0)

; 886  : 	if( D3DXVec3Dot( &vCharDir, &vDiff ) < fHalfCosine )

  00278	d9 5d d4	 fstp	 DWORD PTR tv453[ebp]
  0027b	d9 45 d4	 fld	 DWORD PTR tv453[ebp]
  0027e	d8 4d ec	 fmul	 DWORD PTR _value$558720[ebp]
  00281	d9 5d d4	 fstp	 DWORD PTR tv86[ebp]
  00284	d9 45 d4	 fld	 DWORD PTR tv86[ebp]
  00287	dc 0d 00 00 00
	00		 fmul	 QWORD PTR __real@3f91df46a2526c7a
  0028d	d9 5d d4	 fstp	 DWORD PTR tv270[ebp]
  00290	d9 45 d4	 fld	 DWORD PTR tv270[ebp]
  00293	d9 c9		 fxch	 ST(1)
  00295	dd 5d e8	 fstp	 QWORD PTR tv500[ebp]
  00298	e8 00 00 00 00	 call	 __CIcos
  0029d	d9 5d d4	 fstp	 DWORD PTR tv217[ebp]
  002a0	dd 45 e8	 fld	 QWORD PTR tv500[ebp]
  002a3	d9 45 d4	 fld	 DWORD PTR tv217[ebp]
  002a6	df f1		 fcomip	 ST(1)
  002a8	dd d8		 fstp	 ST(0)
  002aa	76 04		 jbe	 SHORT $LN1@CheckTarge
$LN49@CheckTarge:

; 887  : 		return false;

  002ac	32 c0		 xor	 al, al
  002ae	eb 02		 jmp	 SHORT $LN45@CheckTarge
$LN1@CheckTarge:

; 888  : 
; 889  : 	return true;

  002b0	b0 01		 mov	 al, 1
$LN45@CheckTarge:
  002b2	5f		 pop	 edi
$LN7@CheckTarge:

; 890  : }

  002b3	8b 4d fc	 mov	 ecx, DWORD PTR __$ArrayPad$[ebp]
  002b6	5e		 pop	 esi
  002b7	33 cd		 xor	 ecx, ebp
  002b9	5b		 pop	 ebx
  002ba	e8 00 00 00 00	 call	 @__security_check_cookie@4
  002bf	c9		 leave
  002c0	c2 04 00	 ret	 4
?CheckTargetValidate@ioChargingFireSkill4@@IAE_NPAVioBaseChar@@@Z ENDP ; ioChargingFireSkill4::CheckTargetValidate
_TEXT	ENDS
PUBLIC	?CheckDownAimState@ioChargingFireSkill4@@IAE_NPAVioBaseChar@@@Z ; ioChargingFireSkill4::CheckDownAimState
EXTRN	?IsApplyDownState@ioBaseChar@@QAE_N_N@Z:PROC	; ioBaseChar::IsApplyDownState
EXTRN	?IsFloatingState@ioBaseChar@@QBE_NXZ:PROC	; ioBaseChar::IsFloatingState
; Function compile flags: /Ogsp
;	COMDAT ?CheckDownAimState@ioChargingFireSkill4@@IAE_NPAVioBaseChar@@@Z
_TEXT	SEGMENT
_pTarget$ = 8						; size = 4
_value$558751 = 11					; size = 1
?CheckDownAimState@ioChargingFireSkill4@@IAE_NPAVioBaseChar@@@Z PROC ; ioChargingFireSkill4::CheckDownAimState, COMDAT
; _this$ = ecx

; 943  : {

  00000	55		 push	 ebp
  00001	8b ec		 mov	 ebp, esp
  00003	53		 push	 ebx
  00004	56		 push	 esi
  00005	8b f1		 mov	 esi, ecx

; 944  : 	if( !pTarget ) return false;

  00007	8b 4d 08	 mov	 ecx, DWORD PTR _pTarget$[ebp]
  0000a	33 db		 xor	 ebx, ebx
  0000c	3b cb		 cmp	 ecx, ebx
  0000e	74 37		 je	 SHORT $LN1@CheckDownA

; 945  : 
; 946  : 	CharState eState = pTarget->GetState();

  00010	8a 81 10 03 00
	00		 mov	 al, BYTE PTR [ecx+784]

; 947  : 
; 948  : 	if( eState == CS_FROZEN && pTarget->GetBlowFrozenState() && m_bEnableDownAim )

  00016	3c 17		 cmp	 al, 23			; 00000017H
  00018	75 20		 jne	 SHORT $LN6@CheckDownA
  0001a	38 99 c5 15 00
	00		 cmp	 BYTE PTR [ecx+5573], bl
$LN29@CheckDownA:
  00020	74 25		 je	 SHORT $LN1@CheckDownA
$LN28@CheckDownA:
  00022	8d 45 0b	 lea	 eax, DWORD PTR _value$558751[ebp]
  00025	50		 push	 eax
  00026	8d 8e 10 10 00
	00		 lea	 ecx, DWORD PTR [esi+4112]
  0002c	e8 00 00 00 00	 call	 ?DecryptValueToPool@?$CEncrypt@_N@@QAEXPA_N@Z ; CEncrypt<bool>::DecryptValueToPool
  00031	38 5d 0b	 cmp	 BYTE PTR _value$558751[ebp], bl
  00034	74 11		 je	 SHORT $LN1@CheckDownA

; 949  : 		return true;

  00036	b0 01		 mov	 al, 1
  00038	eb 0f		 jmp	 SHORT $LN8@CheckDownA
$LN6@CheckDownA:

; 950  : 
; 951  : 	if( eState == CS_BLOW_WOUNDED && !pTarget->IsFloatingState() && m_bEnableDownAim )

  0003a	3c 0c		 cmp	 al, 12			; 0000000cH
  0003c	75 11		 jne	 SHORT $LN5@CheckDownA
$LN31@CheckDownA:
  0003e	e8 00 00 00 00	 call	 ?IsFloatingState@ioBaseChar@@QBE_NXZ ; ioBaseChar::IsFloatingState
  00043	84 c0		 test	 al, al
  00045	74 db		 je	 SHORT $LN28@CheckDownA
$LN1@CheckDownA:

; 965  : 
; 966  : 	return false;

  00047	32 c0		 xor	 al, al
$LN8@CheckDownA:
  00049	5e		 pop	 esi
  0004a	5b		 pop	 ebx

; 967  : }

  0004b	5d		 pop	 ebp
  0004c	c2 04 00	 ret	 4
$LN5@CheckDownA:

; 952  : 		return true;
; 953  : 
; 954  : 	if( eState == CS_BOUND_BLOW_WOUNDED && !pTarget->IsFloatingState() && m_bEnableDownAim )

  0004f	3c 31		 cmp	 al, 49			; 00000031H

; 955  : 		return true;

  00051	74 eb		 je	 SHORT $LN31@CheckDownA

; 956  : 
; 957  : 	if( eState == CS_ETC_STATE && pTarget->IsApplyDownState(false) && m_bEnableDownAim )

  00053	3c 0f		 cmp	 al, 15			; 0000000fH
  00055	75 0a		 jne	 SHORT $LN3@CheckDownA
$LN30@CheckDownA:
  00057	53		 push	 ebx
  00058	e8 00 00 00 00	 call	 ?IsApplyDownState@ioBaseChar@@QAE_N_N@Z ; ioBaseChar::IsApplyDownState
  0005d	84 c0		 test	 al, al

; 958  : 		return true;

  0005f	eb bf		 jmp	 SHORT $LN29@CheckDownA
$LN3@CheckDownA:

; 959  : 
; 960  : 	if( eState == CS_USING_SKILL && pTarget->IsApplyDownState(false) && m_bEnableDownAim )

  00061	3c 07		 cmp	 al, 7

; 961  : 		return true;

  00063	74 f2		 je	 SHORT $LN30@CheckDownA

; 962  : 
; 963  : 	if( eState == CS_STOP_MOTION && pTarget->GetBlowStopMotionState() && m_bEnableDownAim )

  00065	3c 26		 cmp	 al, 38			; 00000026H
  00067	75 de		 jne	 SHORT $LN1@CheckDownA
  00069	38 99 c7 15 00
	00		 cmp	 BYTE PTR [ecx+5575], bl

; 964  : 		return true;

  0006f	eb af		 jmp	 SHORT $LN29@CheckDownA
?CheckDownAimState@ioChargingFireSkill4@@IAE_NPAVioBaseChar@@@Z ENDP ; ioChargingFireSkill4::CheckDownAimState
_TEXT	ENDS
PUBLIC	??0?$CEncrypt@K@@QAE@ABV0@@Z			; CEncrypt<unsigned long>::CEncrypt<unsigned long>
;	COMDAT xdata$x
; File d:\lost saga for developer\youtube\tutorial\source\src\lsclient\encryptvalue.h
xdata$x	SEGMENT
__unwindtable$??0?$CEncrypt@K@@QAE@ABV0@@Z DD 0ffffffffH
	DD	FLAT:__unwindfunclet$??0?$CEncrypt@K@@QAE@ABV0@@Z$0
__ehfuncinfo$??0?$CEncrypt@K@@QAE@ABV0@@Z DD 019930522H
	DD	01H
	DD	FLAT:__unwindtable$??0?$CEncrypt@K@@QAE@ABV0@@Z
	DD	2 DUP(00H)
	DD	2 DUP(00H)
	DD	00H
	DD	01H
; Function compile flags: /Ogsp
xdata$x	ENDS
;	COMDAT ??0?$CEncrypt@K@@QAE@ABV0@@Z
_TEXT	SEGMENT
_this$ = -16						; size = 4
__$EHRec$ = -12						; size = 12
_value$558791 = 8					; size = 4
_value$558786 = 8					; size = 4
_inValue$ = 8						; size = 4
??0?$CEncrypt@K@@QAE@ABV0@@Z PROC			; CEncrypt<unsigned long>::CEncrypt<unsigned long>, COMDAT
; _this$ = ecx

; 120  : 	CEncrypt( const CEncrypt<type> &inValue )   //     

  00000	6a 04		 push	 4
  00002	b8 00 00 00 00	 mov	 eax, __ehhandler$??0?$CEncrypt@K@@QAE@ABV0@@Z
  00007	e8 00 00 00 00	 call	 __EH_prolog3
  0000c	8b f1		 mov	 esi, ecx
  0000e	89 75 f0	 mov	 DWORD PTR _this$[ebp], esi
  00011	8d 4e 0c	 lea	 ecx, DWORD PTR [esi+12]
  00014	c7 06 00 00 00
	00		 mov	 DWORD PTR [esi], OFFSET ??_7?$CEncrypt@K@@6B@
  0001a	e8 00 00 00 00	 call	 ??0ccddaabb@@QAE@XZ	; ccddaabb::ccddaabb
  0001f	83 65 fc 00	 and	 DWORD PTR __$EHRec$[ebp+8], 0

; 121  : 	{
; 122  : 		Init();

  00023	8b ce		 mov	 ecx, esi
  00025	e8 00 00 00 00	 call	 ?Init@?$CEncrypt@K@@AAEXXZ ; CEncrypt<unsigned long>::Init

; 123  : 		*this = inValue;

  0002a	8b 4d 08	 mov	 ecx, DWORD PTR _inValue$[ebp]
  0002d	8d 45 08	 lea	 eax, DWORD PTR _value$558786[ebp]
  00030	50		 push	 eax
  00031	e8 00 00 00 00	 call	 ?DecryptValueToPool@?$CEncrypt@K@@QAEXPAK@Z ; CEncrypt<unsigned long>::DecryptValueToPool
  00036	8b 45 08	 mov	 eax, DWORD PTR _value$558786[ebp]
  00039	89 45 08	 mov	 DWORD PTR _value$558791[ebp], eax
  0003c	8d 45 08	 lea	 eax, DWORD PTR _value$558791[ebp]
  0003f	50		 push	 eax
  00040	8b ce		 mov	 ecx, esi
  00042	e8 00 00 00 00	 call	 ?EncryptValueToPool@?$CEncrypt@K@@AAEXPBD@Z ; CEncrypt<unsigned long>::EncryptValueToPool

; 124  : 	}

  00047	8b c6		 mov	 eax, esi
  00049	e8 00 00 00 00	 call	 __EH_epilog3
  0004e	c2 04 00	 ret	 4
_TEXT	ENDS
;	COMDAT text$x
text$x	SEGMENT
__unwindfunclet$??0?$CEncrypt@K@@QAE@ABV0@@Z$0:
  00000	8b 4d f0	 mov	 ecx, DWORD PTR _this$[ebp]
  00003	83 c1 0c	 add	 ecx, 12			; 0000000cH
  00006	e9 00 00 00 00	 jmp	 ??1ccddaabb@@UAE@XZ	; ccddaabb::~ccddaabb
__ehhandler$??0?$CEncrypt@K@@QAE@ABV0@@Z:
  0000b	8b 54 24 08	 mov	 edx, DWORD PTR [esp+8]
  0000f	8d 42 0c	 lea	 eax, DWORD PTR [edx+12]
  00012	8b 4a ec	 mov	 ecx, DWORD PTR [edx-20]
  00015	33 c8		 xor	 ecx, eax
  00017	e8 00 00 00 00	 call	 @__security_check_cookie@4
  0001c	b8 00 00 00 00	 mov	 eax, OFFSET __ehfuncinfo$??0?$CEncrypt@K@@QAE@ABV0@@Z
  00021	e9 00 00 00 00	 jmp	 ___CxxFrameHandler3
text$x	ENDS
??0?$CEncrypt@K@@QAE@ABV0@@Z ENDP			; CEncrypt<unsigned long>::CEncrypt<unsigned long>
PUBLIC	??0?$CEncrypt@_N@@QAE@ABV0@@Z			; CEncrypt<bool>::CEncrypt<bool>
;	COMDAT xdata$x
xdata$x	SEGMENT
__unwindtable$??0?$CEncrypt@_N@@QAE@ABV0@@Z DD 0ffffffffH
	DD	FLAT:__unwindfunclet$??0?$CEncrypt@_N@@QAE@ABV0@@Z$0
__ehfuncinfo$??0?$CEncrypt@_N@@QAE@ABV0@@Z DD 019930522H
	DD	01H
	DD	FLAT:__unwindtable$??0?$CEncrypt@_N@@QAE@ABV0@@Z
	DD	2 DUP(00H)
	DD	2 DUP(00H)
	DD	00H
	DD	01H
; Function compile flags: /Ogsp
xdata$x	ENDS
;	COMDAT ??0?$CEncrypt@_N@@QAE@ABV0@@Z
_TEXT	SEGMENT
_this$ = -16						; size = 4
__$EHRec$ = -12						; size = 12
_inValue$ = 8						; size = 4
_value$558810 = 11					; size = 1
_value$558805 = 11					; size = 1
??0?$CEncrypt@_N@@QAE@ABV0@@Z PROC			; CEncrypt<bool>::CEncrypt<bool>, COMDAT
; _this$ = ecx

; 120  : 	CEncrypt( const CEncrypt<type> &inValue )   //     

  00000	6a 04		 push	 4
  00002	b8 00 00 00 00	 mov	 eax, __ehhandler$??0?$CEncrypt@_N@@QAE@ABV0@@Z
  00007	e8 00 00 00 00	 call	 __EH_prolog3
  0000c	8b f1		 mov	 esi, ecx
  0000e	89 75 f0	 mov	 DWORD PTR _this$[ebp], esi
  00011	8d 4e 0c	 lea	 ecx, DWORD PTR [esi+12]
  00014	c7 06 00 00 00
	00		 mov	 DWORD PTR [esi], OFFSET ??_7?$CEncrypt@_N@@6B@
  0001a	e8 00 00 00 00	 call	 ??0ccddaabb@@QAE@XZ	; ccddaabb::ccddaabb
  0001f	83 65 fc 00	 and	 DWORD PTR __$EHRec$[ebp+8], 0

; 121  : 	{
; 122  : 		Init();

  00023	8b ce		 mov	 ecx, esi
  00025	e8 00 00 00 00	 call	 ?Init@?$CEncrypt@_N@@AAEXXZ ; CEncrypt<bool>::Init

; 123  : 		*this = inValue;

  0002a	8b 4d 08	 mov	 ecx, DWORD PTR _inValue$[ebp]
  0002d	8d 45 0b	 lea	 eax, DWORD PTR _value$558805[ebp]
  00030	50		 push	 eax
  00031	e8 00 00 00 00	 call	 ?DecryptValueToPool@?$CEncrypt@_N@@QAEXPA_N@Z ; CEncrypt<bool>::DecryptValueToPool
  00036	8a 45 0b	 mov	 al, BYTE PTR _value$558805[ebp]
  00039	88 45 0b	 mov	 BYTE PTR _value$558810[ebp], al
  0003c	8d 45 0b	 lea	 eax, DWORD PTR _value$558810[ebp]
  0003f	50		 push	 eax
  00040	8b ce		 mov	 ecx, esi
  00042	e8 00 00 00 00	 call	 ?EncryptValueToPool@?$CEncrypt@_N@@AAEXPBD@Z ; CEncrypt<bool>::EncryptValueToPool

; 124  : 	}

  00047	8b c6		 mov	 eax, esi
  00049	e8 00 00 00 00	 call	 __EH_epilog3
  0004e	c2 04 00	 ret	 4
_TEXT	ENDS
;	COMDAT text$x
text$x	SEGMENT
__unwindfunclet$??0?$CEncrypt@_N@@QAE@ABV0@@Z$0:
  00000	8b 4d f0	 mov	 ecx, DWORD PTR _this$[ebp]
  00003	83 c1 0c	 add	 ecx, 12			; 0000000cH
  00006	e9 00 00 00 00	 jmp	 ??1ccddaabb@@UAE@XZ	; ccddaabb::~ccddaabb
__ehhandler$??0?$CEncrypt@_N@@QAE@ABV0@@Z:
  0000b	8b 54 24 08	 mov	 edx, DWORD PTR [esp+8]
  0000f	8d 42 0c	 lea	 eax, DWORD PTR [edx+12]
  00012	8b 4a ec	 mov	 ecx, DWORD PTR [edx-20]
  00015	33 c8		 xor	 ecx, eax
  00017	e8 00 00 00 00	 call	 @__security_check_cookie@4
  0001c	b8 00 00 00 00	 mov	 eax, OFFSET __ehfuncinfo$??0?$CEncrypt@_N@@QAE@ABV0@@Z
  00021	e9 00 00 00 00	 jmp	 ___CxxFrameHandler3
text$x	ENDS
??0?$CEncrypt@_N@@QAE@ABV0@@Z ENDP			; CEncrypt<bool>::CEncrypt<bool>
PUBLIC	??$_Cons_val@V?$allocator@UForceInfo@@@std@@UForceInfo@@ABU3@@std@@YAXAAV?$allocator@UForceInfo@@@0@PAUForceInfo@@ABU2@@Z ; std::_Cons_val<std::allocator<ForceInfo>,ForceInfo,ForceInfo const &>
; Function compile flags: /Ogsp
; File c:\program files (x86)\microsoft visual studio 10.0\vc\include\xmemory
;	COMDAT ??$_Cons_val@V?$allocator@UForceInfo@@@std@@UForceInfo@@ABU3@@std@@YAXAAV?$allocator@UForceInfo@@@0@PAUForceInfo@@ABU2@@Z
_TEXT	SEGMENT
__Alval$ = 8						; size = 4
__Pdest$ = 12						; size = 4
__Src$ = 16						; size = 4
??$_Cons_val@V?$allocator@UForceInfo@@@std@@UForceInfo@@ABU3@@std@@YAXAAV?$allocator@UForceInfo@@@0@PAUForceInfo@@ABU2@@Z PROC ; std::_Cons_val<std::allocator<ForceInfo>,ForceInfo,ForceInfo const &>, COMDAT

; 279  : 	{	// construct using allocator

  00000	55		 push	 ebp
  00001	8b ec		 mov	 ebp, esp
  00003	57		 push	 edi

; 280  : 	_Alval.construct(_Pdest, _STD forward<_Ty2>(_Src));

  00004	8b 7d 0c	 mov	 edi, DWORD PTR __Pdest$[ebp]
  00007	85 ff		 test	 edi, edi
  00009	74 08		 je	 SHORT $LN9@Cons_val
  0000b	56		 push	 esi
  0000c	8b 75 10	 mov	 esi, DWORD PTR __Src$[ebp]
  0000f	a5		 movsd
  00010	a5		 movsd
  00011	a5		 movsd
  00012	5e		 pop	 esi
$LN9@Cons_val:
  00013	5f		 pop	 edi

; 281  : 	}

  00014	5d		 pop	 ebp
  00015	c3		 ret	 0
??$_Cons_val@V?$allocator@UForceInfo@@@std@@UForceInfo@@ABU3@@std@@YAXAAV?$allocator@UForceInfo@@@0@PAUForceInfo@@ABU2@@Z ENDP ; std::_Cons_val<std::allocator<ForceInfo>,ForceInfo,ForceInfo const &>
_TEXT	ENDS
PUBLIC	?construct@?$allocator@UWeaponInfo@@@std@@QAEXPAUWeaponInfo@@ABU3@@Z ; std::allocator<WeaponInfo>::construct
; Function compile flags: /Ogsp
;	COMDAT ?construct@?$allocator@UWeaponInfo@@@std@@QAEXPAUWeaponInfo@@ABU3@@Z
_TEXT	SEGMENT
__Ptr$ = 8						; size = 4
__Val$ = 12						; size = 4
?construct@?$allocator@UWeaponInfo@@@std@@QAEXPAUWeaponInfo@@ABU3@@Z PROC ; std::allocator<WeaponInfo>::construct, COMDAT
; _this$ = ecx

; 196  : 		{	// construct object at _Ptr with value _Val

  00000	55		 push	 ebp
  00001	8b ec		 mov	 ebp, esp

; 197  : 		_Construct(_Ptr, _Val);

  00003	ff 75 0c	 push	 DWORD PTR __Val$[ebp]
  00006	ff 75 08	 push	 DWORD PTR __Ptr$[ebp]
  00009	e8 00 00 00 00	 call	 ??$_Construct@UWeaponInfo@@ABU1@@std@@YAXPAUWeaponInfo@@ABU1@@Z ; std::_Construct<WeaponInfo,WeaponInfo const &>
  0000e	59		 pop	 ecx
  0000f	59		 pop	 ecx

; 198  : 		}

  00010	5d		 pop	 ebp
  00011	c2 08 00	 ret	 8
?construct@?$allocator@UWeaponInfo@@@std@@QAEXPAUWeaponInfo@@ABU3@@Z ENDP ; std::allocator<WeaponInfo>::construct
_TEXT	ENDS
PUBLIC	??0?$vector@UWeaponInfo@@V?$allocator@UWeaponInfo@@@std@@@std@@QAE@XZ ; std::vector<WeaponInfo,std::allocator<WeaponInfo> >::vector<WeaponInfo,std::allocator<WeaponInfo> >
; Function compile flags: /Ogsp
; File c:\program files (x86)\microsoft visual studio 10.0\vc\include\vector
;	COMDAT ??0?$vector@UWeaponInfo@@V?$allocator@UWeaponInfo@@@std@@@std@@QAE@XZ
_TEXT	SEGMENT
??0?$vector@UWeaponInfo@@V?$allocator@UWeaponInfo@@@std@@@std@@QAE@XZ PROC ; std::vector<WeaponInfo,std::allocator<WeaponInfo> >::vector<WeaponInfo,std::allocator<WeaponInfo> >, COMDAT
; _this$ = ecx

; 507  : 		{	// construct empty vector

  00000	8b c1		 mov	 eax, ecx
  00002	33 c9		 xor	 ecx, ecx
  00004	89 08		 mov	 DWORD PTR [eax], ecx
  00006	89 48 04	 mov	 DWORD PTR [eax+4], ecx
  00009	89 48 08	 mov	 DWORD PTR [eax+8], ecx

; 508  : 		}

  0000c	c3		 ret	 0
??0?$vector@UWeaponInfo@@V?$allocator@UWeaponInfo@@@std@@@std@@QAE@XZ ENDP ; std::vector<WeaponInfo,std::allocator<WeaponInfo> >::vector<WeaponInfo,std::allocator<WeaponInfo> >
_TEXT	ENDS
PUBLIC	??0?$vector@UForceInfo@@V?$allocator@UForceInfo@@@std@@@std@@QAE@XZ ; std::vector<ForceInfo,std::allocator<ForceInfo> >::vector<ForceInfo,std::allocator<ForceInfo> >
; Function compile flags: /Ogsp
;	COMDAT ??0?$vector@UForceInfo@@V?$allocator@UForceInfo@@@std@@@std@@QAE@XZ
_TEXT	SEGMENT
??0?$vector@UForceInfo@@V?$allocator@UForceInfo@@@std@@@std@@QAE@XZ PROC ; std::vector<ForceInfo,std::allocator<ForceInfo> >::vector<ForceInfo,std::allocator<ForceInfo> >, COMDAT
; _this$ = ecx

; 507  : 		{	// construct empty vector

  00000	8b c1		 mov	 eax, ecx
  00002	33 c9		 xor	 ecx, ecx
  00004	89 08		 mov	 DWORD PTR [eax], ecx
  00006	89 48 04	 mov	 DWORD PTR [eax+4], ecx
  00009	89 48 08	 mov	 DWORD PTR [eax+8], ecx

; 508  : 		}

  0000c	c3		 ret	 0
??0?$vector@UForceInfo@@V?$allocator@UForceInfo@@@std@@@std@@QAE@XZ ENDP ; std::vector<ForceInfo,std::allocator<ForceInfo> >::vector<ForceInfo,std::allocator<ForceInfo> >
_TEXT	ENDS
PUBLIC	??0?$CEncrypt@M@@QAE@ABV0@@Z			; CEncrypt<float>::CEncrypt<float>
;	COMDAT xdata$x
; File d:\lost saga for developer\youtube\tutorial\source\src\lsclient\encryptvalue.h
xdata$x	SEGMENT
__unwindtable$??0?$CEncrypt@M@@QAE@ABV0@@Z DD 0ffffffffH
	DD	FLAT:__unwindfunclet$??0?$CEncrypt@M@@QAE@ABV0@@Z$0
__ehfuncinfo$??0?$CEncrypt@M@@QAE@ABV0@@Z DD 019930522H
	DD	01H
	DD	FLAT:__unwindtable$??0?$CEncrypt@M@@QAE@ABV0@@Z
	DD	2 DUP(00H)
	DD	2 DUP(00H)
	DD	00H
	DD	01H
; Function compile flags: /Ogsp
xdata$x	ENDS
;	COMDAT ??0?$CEncrypt@M@@QAE@ABV0@@Z
_TEXT	SEGMENT
_this$ = -16						; size = 4
__$EHRec$ = -12						; size = 12
_value$558905 = 8					; size = 4
_value$558900 = 8					; size = 4
_inValue$ = 8						; size = 4
??0?$CEncrypt@M@@QAE@ABV0@@Z PROC			; CEncrypt<float>::CEncrypt<float>, COMDAT
; _this$ = ecx

; 120  : 	CEncrypt( const CEncrypt<type> &inValue )   //     

  00000	6a 04		 push	 4
  00002	b8 00 00 00 00	 mov	 eax, __ehhandler$??0?$CEncrypt@M@@QAE@ABV0@@Z
  00007	e8 00 00 00 00	 call	 __EH_prolog3
  0000c	8b f1		 mov	 esi, ecx
  0000e	89 75 f0	 mov	 DWORD PTR _this$[ebp], esi
  00011	8d 4e 0c	 lea	 ecx, DWORD PTR [esi+12]
  00014	c7 06 00 00 00
	00		 mov	 DWORD PTR [esi], OFFSET ??_7?$CEncrypt@M@@6B@
  0001a	e8 00 00 00 00	 call	 ??0ccddaabb@@QAE@XZ	; ccddaabb::ccddaabb
  0001f	83 65 fc 00	 and	 DWORD PTR __$EHRec$[ebp+8], 0

; 121  : 	{
; 122  : 		Init();

  00023	8b ce		 mov	 ecx, esi
  00025	e8 00 00 00 00	 call	 ?Init@?$CEncrypt@M@@AAEXXZ ; CEncrypt<float>::Init

; 123  : 		*this = inValue;

  0002a	8b 4d 08	 mov	 ecx, DWORD PTR _inValue$[ebp]
  0002d	8d 45 08	 lea	 eax, DWORD PTR _value$558900[ebp]
  00030	50		 push	 eax
  00031	e8 00 00 00 00	 call	 ?DecryptValueToPool@?$CEncrypt@M@@QAEXPAM@Z ; CEncrypt<float>::DecryptValueToPool
  00036	f3 0f 10 45 08	 movss	 xmm0, DWORD PTR _value$558900[ebp]
  0003b	8d 45 08	 lea	 eax, DWORD PTR _value$558905[ebp]
  0003e	50		 push	 eax
  0003f	8b ce		 mov	 ecx, esi
  00041	f3 0f 11 45 08	 movss	 DWORD PTR _value$558905[ebp], xmm0
  00046	e8 00 00 00 00	 call	 ?EncryptValueToPool@?$CEncrypt@M@@AAEXPBD@Z ; CEncrypt<float>::EncryptValueToPool

; 124  : 	}

  0004b	8b c6		 mov	 eax, esi
  0004d	e8 00 00 00 00	 call	 __EH_epilog3
  00052	c2 04 00	 ret	 4
_TEXT	ENDS
;	COMDAT text$x
text$x	SEGMENT
__unwindfunclet$??0?$CEncrypt@M@@QAE@ABV0@@Z$0:
  00000	8b 4d f0	 mov	 ecx, DWORD PTR _this$[ebp]
  00003	83 c1 0c	 add	 ecx, 12			; 0000000cH
  00006	e9 00 00 00 00	 jmp	 ??1ccddaabb@@UAE@XZ	; ccddaabb::~ccddaabb
__ehhandler$??0?$CEncrypt@M@@QAE@ABV0@@Z:
  0000b	8b 54 24 08	 mov	 edx, DWORD PTR [esp+8]
  0000f	8d 42 0c	 lea	 eax, DWORD PTR [edx+12]
  00012	8b 4a ec	 mov	 ecx, DWORD PTR [edx-20]
  00015	33 c8		 xor	 ecx, eax
  00017	e8 00 00 00 00	 call	 @__security_check_cookie@4
  0001c	b8 00 00 00 00	 mov	 eax, OFFSET __ehfuncinfo$??0?$CEncrypt@M@@QAE@ABV0@@Z
  00021	e9 00 00 00 00	 jmp	 ___CxxFrameHandler3
text$x	ENDS
??0?$CEncrypt@M@@QAE@ABV0@@Z ENDP			; CEncrypt<float>::CEncrypt<float>
PUBLIC	?_Buy@?$vector@UWeaponInfo@@V?$allocator@UWeaponInfo@@@std@@@std@@IAE_NI@Z ; std::vector<WeaponInfo,std::allocator<WeaponInfo> >::_Buy
; Function compile flags: /Ogsp
; File c:\program files (x86)\microsoft visual studio 10.0\vc\include\vector
;	COMDAT ?_Buy@?$vector@UWeaponInfo@@V?$allocator@UWeaponInfo@@@std@@@std@@IAE_NI@Z
_TEXT	SEGMENT
__Capacity$ = 8						; size = 4
?_Buy@?$vector@UWeaponInfo@@V?$allocator@UWeaponInfo@@@std@@@std@@IAE_NI@Z PROC ; std::vector<WeaponInfo,std::allocator<WeaponInfo> >::_Buy, COMDAT
; _this$ = ecx

; 1250 : 		{	// allocate array with _Capacity elements

  00000	55		 push	 ebp
  00001	8b ec		 mov	 ebp, esp
  00003	56		 push	 esi

; 1251 : 		this->_Myfirst = 0;

  00004	33 c0		 xor	 eax, eax
  00006	57		 push	 edi

; 1252 : 		this->_Mylast = 0;
; 1253 : 		this->_Myend = 0;
; 1254 : 
; 1255 : 		if (_Capacity == 0)

  00007	8b 7d 08	 mov	 edi, DWORD PTR __Capacity$[ebp]
  0000a	8b f1		 mov	 esi, ecx
  0000c	89 06		 mov	 DWORD PTR [esi], eax
  0000e	89 46 04	 mov	 DWORD PTR [esi+4], eax
  00011	89 46 08	 mov	 DWORD PTR [esi+8], eax
  00014	3b f8		 cmp	 edi, eax
  00016	75 04		 jne	 SHORT $LN4@Buy

; 1256 : 			return (false);

  00018	32 c0		 xor	 al, al
  0001a	eb 2b		 jmp	 SHORT $LN5@Buy
$LN4@Buy:

; 1257 : 		else if (max_size() < _Capacity)

  0001c	81 ff 66 66 66
	06		 cmp	 edi, 107374182		; 06666666H
  00022	76 0b		 jbe	 SHORT $LN2@Buy

; 1258 : 			_Xlen();	// result too long

  00024	68 00 00 00 00	 push	 OFFSET ??_C@_0BD@OLBABOEK@vector?$DMT?$DO?5too?5long?$AA@
  00029	ff 15 00 00 00
	00		 call	 DWORD PTR __imp_?_Xlength_error@std@@YAXPBD@Z
$LN19@Buy:
$LN2@Buy:

; 1259 : 		else
; 1260 : 			{	// nonempty array, allocate storage
; 1261 : 			this->_Myfirst = this->_Alval.allocate(_Capacity);

  0002f	50		 push	 eax
  00030	57		 push	 edi
  00031	e8 00 00 00 00	 call	 ??$_Allocate@UWeaponInfo@@@std@@YAPAUWeaponInfo@@IPAU1@@Z ; std::_Allocate<WeaponInfo>

; 1262 : 			this->_Mylast = this->_Myfirst;
; 1263 : 			this->_Myend = this->_Myfirst + _Capacity;

  00036	6b ff 28	 imul	 edi, 40			; 00000028H
  00039	03 f8		 add	 edi, eax
  0003b	59		 pop	 ecx
  0003c	89 06		 mov	 DWORD PTR [esi], eax
  0003e	89 46 04	 mov	 DWORD PTR [esi+4], eax
  00041	59		 pop	 ecx
  00042	89 7e 08	 mov	 DWORD PTR [esi+8], edi

; 1264 : 			}
; 1265 : 		return (true);

  00045	b0 01		 mov	 al, 1
$LN5@Buy:
  00047	5f		 pop	 edi
  00048	5e		 pop	 esi

; 1266 : 		}

  00049	5d		 pop	 ebp
  0004a	c2 04 00	 ret	 4
$LN18@Buy:
?_Buy@?$vector@UWeaponInfo@@V?$allocator@UWeaponInfo@@@std@@@std@@IAE_NI@Z ENDP ; std::vector<WeaponInfo,std::allocator<WeaponInfo> >::_Buy
_TEXT	ENDS
PUBLIC	?_Buy@?$vector@UForceInfo@@V?$allocator@UForceInfo@@@std@@@std@@IAE_NI@Z ; std::vector<ForceInfo,std::allocator<ForceInfo> >::_Buy
; Function compile flags: /Ogsp
;	COMDAT ?_Buy@?$vector@UForceInfo@@V?$allocator@UForceInfo@@@std@@@std@@IAE_NI@Z
_TEXT	SEGMENT
__Capacity$ = 8						; size = 4
?_Buy@?$vector@UForceInfo@@V?$allocator@UForceInfo@@@std@@@std@@IAE_NI@Z PROC ; std::vector<ForceInfo,std::allocator<ForceInfo> >::_Buy, COMDAT
; _this$ = ecx

; 1250 : 		{	// allocate array with _Capacity elements

  00000	55		 push	 ebp
  00001	8b ec		 mov	 ebp, esp
  00003	56		 push	 esi

; 1251 : 		this->_Myfirst = 0;

  00004	33 c0		 xor	 eax, eax
  00006	57		 push	 edi

; 1252 : 		this->_Mylast = 0;
; 1253 : 		this->_Myend = 0;
; 1254 : 
; 1255 : 		if (_Capacity == 0)

  00007	8b 7d 08	 mov	 edi, DWORD PTR __Capacity$[ebp]
  0000a	8b f1		 mov	 esi, ecx
  0000c	89 06		 mov	 DWORD PTR [esi], eax
  0000e	89 46 04	 mov	 DWORD PTR [esi+4], eax
  00011	89 46 08	 mov	 DWORD PTR [esi+8], eax
  00014	3b f8		 cmp	 edi, eax
  00016	75 04		 jne	 SHORT $LN4@Buy@2

; 1256 : 			return (false);

  00018	32 c0		 xor	 al, al
  0001a	eb 2b		 jmp	 SHORT $LN5@Buy@2
$LN4@Buy@2:

; 1257 : 		else if (max_size() < _Capacity)

  0001c	81 ff 55 55 55
	15		 cmp	 edi, 357913941		; 15555555H
  00022	76 0b		 jbe	 SHORT $LN2@Buy@2

; 1258 : 			_Xlen();	// result too long

  00024	68 00 00 00 00	 push	 OFFSET ??_C@_0BD@OLBABOEK@vector?$DMT?$DO?5too?5long?$AA@
  00029	ff 15 00 00 00
	00		 call	 DWORD PTR __imp_?_Xlength_error@std@@YAXPBD@Z
$LN19@Buy@2:
$LN2@Buy@2:

; 1259 : 		else
; 1260 : 			{	// nonempty array, allocate storage
; 1261 : 			this->_Myfirst = this->_Alval.allocate(_Capacity);

  0002f	50		 push	 eax
  00030	57		 push	 edi
  00031	e8 00 00 00 00	 call	 ??$_Allocate@UForceInfo@@@std@@YAPAUForceInfo@@IPAU1@@Z ; std::_Allocate<ForceInfo>

; 1262 : 			this->_Mylast = this->_Myfirst;
; 1263 : 			this->_Myend = this->_Myfirst + _Capacity;

  00036	6b ff 0c	 imul	 edi, 12			; 0000000cH
  00039	03 f8		 add	 edi, eax
  0003b	59		 pop	 ecx
  0003c	89 06		 mov	 DWORD PTR [esi], eax
  0003e	89 46 04	 mov	 DWORD PTR [esi+4], eax
  00041	59		 pop	 ecx
  00042	89 7e 08	 mov	 DWORD PTR [esi+8], edi

; 1264 : 			}
; 1265 : 		return (true);

  00045	b0 01		 mov	 al, 1
$LN5@Buy@2:
  00047	5f		 pop	 edi
  00048	5e		 pop	 esi

; 1266 : 		}

  00049	5d		 pop	 ebp
  0004a	c2 04 00	 ret	 4
$LN18@Buy@2:
?_Buy@?$vector@UForceInfo@@V?$allocator@UForceInfo@@@std@@@std@@IAE_NI@Z ENDP ; std::vector<ForceInfo,std::allocator<ForceInfo> >::_Buy
_TEXT	ENDS
PUBLIC	??9?$_Vector_const_iterator@V?$_Vector_val@UWeaponInfo@@V?$allocator@UWeaponInfo@@@std@@@std@@@std@@QBE_NABV01@@Z ; std::_Vector_const_iterator<std::_Vector_val<WeaponInfo,std::allocator<WeaponInfo> > >::operator!=
; Function compile flags: /Ogsp
;	COMDAT ??9?$_Vector_const_iterator@V?$_Vector_val@UWeaponInfo@@V?$allocator@UWeaponInfo@@@std@@@std@@@std@@QBE_NABV01@@Z
_TEXT	SEGMENT
__Right$ = 8						; size = 4
??9?$_Vector_const_iterator@V?$_Vector_val@UWeaponInfo@@V?$allocator@UWeaponInfo@@@std@@@std@@@std@@QBE_NABV01@@Z PROC ; std::_Vector_const_iterator<std::_Vector_val<WeaponInfo,std::allocator<WeaponInfo> > >::operator!=, COMDAT
; _this$ = ecx

; 207  : 		{	// test for iterator inequality

  00000	55		 push	 ebp
  00001	8b ec		 mov	 ebp, esp

; 208  : 		return (!(*this == _Right));

  00003	8b 01		 mov	 eax, DWORD PTR [ecx]
  00005	8b 55 08	 mov	 edx, DWORD PTR __Right$[ebp]
  00008	33 c9		 xor	 ecx, ecx
  0000a	3b 02		 cmp	 eax, DWORD PTR [edx]
  0000c	0f 95 c0	 setne	 al

; 209  : 		}

  0000f	5d		 pop	 ebp
  00010	c2 04 00	 ret	 4
??9?$_Vector_const_iterator@V?$_Vector_val@UWeaponInfo@@V?$allocator@UWeaponInfo@@@std@@@std@@@std@@QBE_NABV01@@Z ENDP ; std::_Vector_const_iterator<std::_Vector_val<WeaponInfo,std::allocator<WeaponInfo> > >::operator!=
_TEXT	ENDS
PUBLIC	??9?$_Vector_const_iterator@V?$_Vector_val@UForceInfo@@V?$allocator@UForceInfo@@@std@@@std@@@std@@QBE_NABV01@@Z ; std::_Vector_const_iterator<std::_Vector_val<ForceInfo,std::allocator<ForceInfo> > >::operator!=
; Function compile flags: /Ogsp
;	COMDAT ??9?$_Vector_const_iterator@V?$_Vector_val@UForceInfo@@V?$allocator@UForceInfo@@@std@@@std@@@std@@QBE_NABV01@@Z
_TEXT	SEGMENT
__Right$ = 8						; size = 4
??9?$_Vector_const_iterator@V?$_Vector_val@UForceInfo@@V?$allocator@UForceInfo@@@std@@@std@@@std@@QBE_NABV01@@Z PROC ; std::_Vector_const_iterator<std::_Vector_val<ForceInfo,std::allocator<ForceInfo> > >::operator!=, COMDAT
; _this$ = ecx

; 207  : 		{	// test for iterator inequality

  00000	55		 push	 ebp
  00001	8b ec		 mov	 ebp, esp

; 208  : 		return (!(*this == _Right));

  00003	8b 01		 mov	 eax, DWORD PTR [ecx]
  00005	8b 55 08	 mov	 edx, DWORD PTR __Right$[ebp]
  00008	33 c9		 xor	 ecx, ecx
  0000a	3b 02		 cmp	 eax, DWORD PTR [edx]
  0000c	0f 95 c0	 setne	 al

; 209  : 		}

  0000f	5d		 pop	 ebp
  00010	c2 04 00	 ret	 4
??9?$_Vector_const_iterator@V?$_Vector_val@UForceInfo@@V?$allocator@UForceInfo@@@std@@@std@@@std@@QBE_NABV01@@Z ENDP ; std::_Vector_const_iterator<std::_Vector_val<ForceInfo,std::allocator<ForceInfo> > >::operator!=
_TEXT	ENDS
PUBLIC	??$_Dest_val@V?$allocator@UForceInfo@@@std@@UForceInfo@@@std@@YAXAAV?$allocator@UForceInfo@@@0@PAUForceInfo@@@Z ; std::_Dest_val<std::allocator<ForceInfo>,ForceInfo>
; Function compile flags: /Ogsp
; File c:\program files (x86)\microsoft visual studio 10.0\vc\include\xmemory
;	COMDAT ??$_Dest_val@V?$allocator@UForceInfo@@@std@@UForceInfo@@@std@@YAXAAV?$allocator@UForceInfo@@@0@PAUForceInfo@@@Z
_TEXT	SEGMENT
__Alval$ = 8						; size = 4
__Pdest$ = 12						; size = 4
??$_Dest_val@V?$allocator@UForceInfo@@@std@@UForceInfo@@@std@@YAXAAV?$allocator@UForceInfo@@@0@PAUForceInfo@@@Z PROC ; std::_Dest_val<std::allocator<ForceInfo>,ForceInfo>, COMDAT

; 287  : 	_Alval.destroy(_Pdest);
; 288  : 	}

  00000	c3		 ret	 0
??$_Dest_val@V?$allocator@UForceInfo@@@std@@UForceInfo@@@std@@YAXAAV?$allocator@UForceInfo@@@0@PAUForceInfo@@@Z ENDP ; std::_Dest_val<std::allocator<ForceInfo>,ForceInfo>
_TEXT	ENDS
PUBLIC	?destroy@?$allocator@UWeaponInfo@@@std@@QAEXPAUWeaponInfo@@@Z ; std::allocator<WeaponInfo>::destroy
; Function compile flags: /Ogsp
;	COMDAT ?destroy@?$allocator@UWeaponInfo@@@std@@QAEXPAUWeaponInfo@@@Z
_TEXT	SEGMENT
__Ptr$ = 8						; size = 4
?destroy@?$allocator@UWeaponInfo@@@std@@QAEXPAUWeaponInfo@@@Z PROC ; std::allocator<WeaponInfo>::destroy, COMDAT
; _this$ = ecx

; 212  : 		{	// destroy object at _Ptr

  00000	55		 push	 ebp
  00001	8b ec		 mov	 ebp, esp

; 213  : 		_Destroy(_Ptr);

  00003	8b 4d 08	 mov	 ecx, DWORD PTR __Ptr$[ebp]
  00006	83 c1 08	 add	 ecx, 8
  00009	ff 15 00 00 00
	00		 call	 DWORD PTR __imp_??1ioHashString@@QAE@XZ

; 214  : 		}

  0000f	5d		 pop	 ebp
  00010	c2 04 00	 ret	 4
?destroy@?$allocator@UWeaponInfo@@@std@@QAEXPAUWeaponInfo@@@Z ENDP ; std::allocator<WeaponInfo>::destroy
_TEXT	ENDS
PUBLIC	?SetLoopState@ioChargingFireSkill4@@IAEXPAVioBaseChar@@@Z ; ioChargingFireSkill4::SetLoopState
EXTRN	?ChangeSkillWeaponMesh@ioBaseChar@@QAE_NPAVioSkill@@ABVioHashString@@_N@Z:PROC ; ioBaseChar::ChangeSkillWeaponMesh
EXTRN	?GetUniqueID@ioMapEffect@@QBEKXZ:PROC		; ioMapEffect::GetUniqueID
EXTRN	?CreateMapEffectAttachChar@ioBaseChar@@QAEPAVioMapEffect@@ABVioHashString@@@Z:PROC ; ioBaseChar::CreateMapEffectAttachChar
EXTRN	?EndEffect@ioBaseChar@@QAEXK_N@Z:PROC		; ioBaseChar::EndEffect
EXTRN	__imp_?SetLoopAni@ioEntityGroup@@QAE_NHMMMM@Z:PROC
; Function compile flags: /Ogsp
; File d:\lost saga for developer\youtube\tutorial\source\src\lsclient\iochargingfireskill4.cpp
;	COMDAT ?SetLoopState@ioChargingFireSkill4@@IAEXPAVioBaseChar@@@Z
_TEXT	SEGMENT
tv280 = -8						; size = 4
$T559047 = -4						; size = 4
_dwCurTime$ = -4					; size = 4
tv303 = 8						; size = 4
tv298 = 8						; size = 4
tv291 = 8						; size = 4
tv277 = 8						; size = 4
tv274 = 8						; size = 4
tv272 = 8						; size = 4
_value$559026 = 8					; size = 4
_fAniRate$ = 8						; size = 4
_pChar$ = 8						; size = 4
?SetLoopState@ioChargingFireSkill4@@IAEXPAVioBaseChar@@@Z PROC ; ioChargingFireSkill4::SetLoopState, COMDAT
; _this$ = ecx

; 345  : {

  00000	55		 push	 ebp
  00001	8b ec		 mov	 ebp, esp
  00003	51		 push	 ecx
  00004	51		 push	 ecx
  00005	53		 push	 ebx

; 346  : 	if( !pChar ) return;

  00006	8b 5d 08	 mov	 ebx, DWORD PTR _pChar$[ebp]
  00009	56		 push	 esi
  0000a	8b f1		 mov	 esi, ecx
  0000c	85 db		 test	 ebx, ebx
  0000e	0f 84 9d 01 00
	00		 je	 $LN6@SetLoopSta

; 347  : 	ioEntityGroup *pGrp = pChar->GetGroup();
; 348  : 
; 349  : 	EndPreDelayEffect( pChar );

  00014	8b 06		 mov	 eax, DWORD PTR [esi]
  00016	57		 push	 edi
  00017	8b 7b 04	 mov	 edi, DWORD PTR [ebx+4]
  0001a	53		 push	 ebx
  0001b	ff 90 dc 00 00
	00		 call	 DWORD PTR [eax+220]

; 350  : 
; 351  : 	DWORD dwCurTime = FRAMEGETTIME();

  00021	ff 15 00 00 00
	00		 call	 DWORD PTR __imp_?GetSingleton@ioFrameTimer@@SAAAV1@XZ
  00027	8b c8		 mov	 ecx, eax
  00029	ff 15 00 00 00
	00		 call	 DWORD PTR __imp_?GetLoopSec@ioFrameTimer@@QBEKXZ
  0002f	89 45 fc	 mov	 DWORD PTR _dwCurTime$[ebp], eax

; 352  : 	m_State = SS_LOOP;

  00032	8d 45 08	 lea	 eax, DWORD PTR _value$559026[ebp]
  00035	50		 push	 eax
  00036	8d 8e 58 0f 00
	00		 lea	 ecx, DWORD PTR [esi+3928]
  0003c	c7 45 08 01 00
	00 00		 mov	 DWORD PTR _value$559026[ebp], 1
  00043	e8 00 00 00 00	 call	 ?EncryptValueToPool@?$CEncrypt@H@@AAEXPBD@Z ; CEncrypt<int>::EncryptValueToPool

; 353  : 	m_dwLoopStartTime = dwCurTime;

  00048	8b 45 fc	 mov	 eax, DWORD PTR _dwCurTime$[ebp]
  0004b	89 86 a8 11 00
	00		 mov	 DWORD PTR [esi+4520], eax

; 354  : 
; 355  : 	pGrp->ClearAllLoopAni( FLOAT100, true );

  00051	b8 64 00 00 00	 mov	 eax, 100		; 00000064H
  00056	89 45 08	 mov	 DWORD PTR tv303[ebp], eax
  00059	db 45 08	 fild	 DWORD PTR tv303[ebp]
  0005c	6a 01		 push	 1
  0005e	85 c0		 test	 eax, eax
  00060	79 06		 jns	 SHORT $LN26@SetLoopSta
  00062	d8 05 00 00 00
	00		 fadd	 DWORD PTR __real@4f800000
$LN26@SetLoopSta:
  00068	51		 push	 ecx
  00069	8b cf		 mov	 ecx, edi
  0006b	d9 1c 24	 fstp	 DWORD PTR [esp]
  0006e	ff 15 00 00 00
	00		 call	 DWORD PTR __imp_?ClearAllLoopAni@ioEntityGroup@@QAEXM_N@Z

; 356  : 	pGrp->ClearAllActionAni( FLOAT100, true );

  00074	b8 64 00 00 00	 mov	 eax, 100		; 00000064H
  00079	89 45 08	 mov	 DWORD PTR tv298[ebp], eax
  0007c	db 45 08	 fild	 DWORD PTR tv298[ebp]
  0007f	6a 01		 push	 1
  00081	85 c0		 test	 eax, eax
  00083	79 06		 jns	 SHORT $LN27@SetLoopSta
  00085	d8 05 00 00 00
	00		 fadd	 DWORD PTR __real@4f800000
$LN27@SetLoopSta:
  0008b	51		 push	 ecx
  0008c	8b cf		 mov	 ecx, edi
  0008e	d9 1c 24	 fstp	 DWORD PTR [esp]
  00091	ff 15 00 00 00
	00		 call	 DWORD PTR __imp_?ClearAllActionAni@ioEntityGroup@@QAEXM_N@Z

; 357  : 
; 358  : 	int iAniID = pGrp->GetAnimationIdx( m_SkillLoopMotion );

  00097	8d 86 dc 0f 00
	00		 lea	 eax, DWORD PTR [esi+4060]
  0009d	50		 push	 eax
  0009e	8b cf		 mov	 ecx, edi
  000a0	ff 15 00 00 00
	00		 call	 DWORD PTR __imp_?GetAnimationIdx@ioEntityGroup@@QAEHABVioHashString@@@Z
  000a6	8b c8		 mov	 ecx, eax

; 359  : 	float fAniRate = FLOAT1;

  000a8	b8 01 00 00 00	 mov	 eax, 1
  000ad	89 45 08	 mov	 DWORD PTR tv291[ebp], eax
  000b0	db 45 08	 fild	 DWORD PTR tv291[ebp]
  000b3	85 c0		 test	 eax, eax
  000b5	79 06		 jns	 SHORT $LN28@SetLoopSta
  000b7	d8 05 00 00 00
	00		 fadd	 DWORD PTR __real@4f800000
$LN28@SetLoopSta:

; 360  : 	if( m_fSkillLoopMotionRate > 0.0f )

  000bd	f3 0f 10 86 ec
	0f 00 00	 movss	 xmm0, DWORD PTR [esi+4076]
  000c5	d9 5d 08	 fstp	 DWORD PTR _fAniRate$[ebp]
  000c8	0f 57 c9	 xorps	 xmm1, xmm1
  000cb	0f 2f c1	 comiss	 xmm0, xmm1
  000ce	76 05		 jbe	 SHORT $LN4@SetLoopSta

; 361  : 		fAniRate = m_fSkillLoopMotionRate;

  000d0	f3 0f 11 45 08	 movss	 DWORD PTR _fAniRate$[ebp], xmm0
$LN4@SetLoopSta:

; 362  : 
; 363  : 	pGrp->SetLoopAni( iAniID, FLOAT100, FLOAT1, FLOAT1/fAniRate );

  000d5	b8 01 00 00 00	 mov	 eax, 1
  000da	8b d0		 mov	 edx, eax
  000dc	b8 01 00 00 00	 mov	 eax, 1
  000e1	89 45 fc	 mov	 DWORD PTR $T559047[ebp], eax
  000e4	b8 64 00 00 00	 mov	 eax, 100		; 00000064H
  000e9	83 ec 10	 sub	 esp, 16			; 00000010H
  000ec	89 55 f8	 mov	 DWORD PTR tv280[ebp], edx
  000ef	db 45 f8	 fild	 DWORD PTR tv280[ebp]
  000f2	f3 0f 11 4c 24
	0c		 movss	 DWORD PTR [esp+12], xmm1
  000f8	85 d2		 test	 edx, edx
  000fa	79 06		 jns	 SHORT $LN29@SetLoopSta
  000fc	d8 05 00 00 00
	00		 fadd	 DWORD PTR __real@4f800000
$LN29@SetLoopSta:
  00102	d8 75 08	 fdiv	 DWORD PTR _fAniRate$[ebp]
  00105	8b 55 fc	 mov	 edx, DWORD PTR $T559047[ebp]
  00108	d9 5d 08	 fstp	 DWORD PTR tv277[ebp]
  0010b	d9 45 08	 fld	 DWORD PTR tv277[ebp]
  0010e	d9 5c 24 08	 fstp	 DWORD PTR [esp+8]
  00112	db 45 fc	 fild	 DWORD PTR $T559047[ebp]
  00115	85 d2		 test	 edx, edx
  00117	79 06		 jns	 SHORT $LN30@SetLoopSta
  00119	d8 05 00 00 00
	00		 fadd	 DWORD PTR __real@4f800000
$LN30@SetLoopSta:
  0011f	d9 5c 24 04	 fstp	 DWORD PTR [esp+4]
  00123	89 45 08	 mov	 DWORD PTR tv272[ebp], eax
  00126	db 45 08	 fild	 DWORD PTR tv272[ebp]
  00129	85 c0		 test	 eax, eax
  0012b	79 06		 jns	 SHORT $LN31@SetLoopSta
  0012d	d8 05 00 00 00
	00		 fadd	 DWORD PTR __real@4f800000
$LN31@SetLoopSta:
  00133	d9 1c 24	 fstp	 DWORD PTR [esp]
  00136	51		 push	 ecx
  00137	8b cf		 mov	 ecx, edi
  00139	ff 15 00 00 00
	00		 call	 DWORD PTR __imp_?SetLoopAni@ioEntityGroup@@QAE_NHMMMM@Z

; 364  : 
; 365  : 	if( m_dwChargingEffect != -1 )

  0013f	8b 86 c4 11 00
	00		 mov	 eax, DWORD PTR [esi+4548]
  00145	83 f8 ff	 cmp	 eax, -1
  00148	74 0a		 je	 SHORT $LN24@SetLoopSta

; 366  : 	{
; 367  : 		pChar->EndEffect( m_dwChargingEffect, false );

  0014a	6a 00		 push	 0
  0014c	50		 push	 eax
  0014d	8b cb		 mov	 ecx, ebx
  0014f	e8 00 00 00 00	 call	 ?EndEffect@ioBaseChar@@QAEXK_N@Z ; ioBaseChar::EndEffect
$LN24@SetLoopSta:

; 368  : 	}
; 369  : 
; 370  : 	ioMapEffect *pChargingEff = pChar->CreateMapEffectAttachChar( m_SkillChargingEffect );

  00154	8d 86 b4 11 00
	00		 lea	 eax, DWORD PTR [esi+4532]
  0015a	50		 push	 eax
  0015b	8b cb		 mov	 ecx, ebx
  0015d	e8 00 00 00 00	 call	 ?CreateMapEffectAttachChar@ioBaseChar@@QAEPAVioMapEffect@@ABVioHashString@@@Z ; ioBaseChar::CreateMapEffectAttachChar

; 371  : 	if( pChargingEff )

  00162	85 c0		 test	 eax, eax
  00164	74 0d		 je	 SHORT $LN2@SetLoopSta

; 372  : 	{
; 373  : 		m_dwChargingEffect = pChargingEff->GetUniqueID();

  00166	8b c8		 mov	 ecx, eax
  00168	e8 00 00 00 00	 call	 ?GetUniqueID@ioMapEffect@@QBEKXZ ; ioMapEffect::GetUniqueID
  0016d	89 86 c4 11 00
	00		 mov	 DWORD PTR [esi+4548], eax
$LN2@SetLoopSta:

; 374  : 	}
; 375  : 
; 376  : 	//   
; 377  : 	if( m_bUseItemMesh && !m_HandMesh.IsEmpty() )

  00173	80 be 08 0f 00
	00 00		 cmp	 BYTE PTR [esi+3848], 0
  0017a	74 2a		 je	 SHORT $LN25@SetLoopSta
  0017c	8d be f8 0e 00
	00		 lea	 edi, DWORD PTR [esi+3832]
  00182	8b cf		 mov	 ecx, edi
  00184	ff 15 00 00 00
	00		 call	 DWORD PTR __imp_?IsEmpty@ioHashString@@QBE_NXZ
  0018a	84 c0		 test	 al, al
  0018c	75 18		 jne	 SHORT $LN25@SetLoopSta

; 378  : 	{
; 379  : 		pChar->ChangeSkillWeaponMesh( this, m_HandMesh, m_bVisibleEquipMesh );

  0018e	0f b6 86 09 0f
	00 00		 movzx	 eax, BYTE PTR [esi+3849]
  00195	50		 push	 eax
  00196	57		 push	 edi
  00197	56		 push	 esi
  00198	8b cb		 mov	 ecx, ebx
  0019a	e8 00 00 00 00	 call	 ?ChangeSkillWeaponMesh@ioBaseChar@@QAE_NPAVioSkill@@ABVioHashString@@_N@Z ; ioBaseChar::ChangeSkillWeaponMesh

; 380  : 		m_bSetHandMesh = true;

  0019f	c6 86 0a 0f 00
	00 01		 mov	 BYTE PTR [esi+3850], 1
$LN25@SetLoopSta:

; 381  : 	}
; 382  : 
; 383  : 	//
; 384  : 	SetAimState( pChar, false );

  001a6	6a 00		 push	 0
  001a8	53		 push	 ebx
  001a9	8b ce		 mov	 ecx, esi
  001ab	e8 00 00 00 00	 call	 ?SetAimState@ioChargingFireSkill4@@IAEXPAVioBaseChar@@_N@Z ; ioChargingFireSkill4::SetAimState
  001b0	5f		 pop	 edi
$LN6@SetLoopSta:
  001b1	5e		 pop	 esi
  001b2	5b		 pop	 ebx

; 385  : }

  001b3	c9		 leave
  001b4	c2 04 00	 ret	 4
?SetLoopState@ioChargingFireSkill4@@IAEXPAVioBaseChar@@@Z ENDP ; ioChargingFireSkill4::SetLoopState
_TEXT	ENDS
PUBLIC	__$ArrayPad$
PUBLIC	?CheckCharRotateKey@ioChargingFireSkill4@@IAEXPAVioBaseChar@@@Z ; ioChargingFireSkill4::CheckCharRotateKey
EXTRN	?SetTargetRotToDirKey@ioBaseChar@@QAEXW4DirKeyInput@ioUserKeyInput@@@Z:PROC ; ioBaseChar::SetTargetRotToDirKey
EXTRN	?CheckCurDirKey@ioBaseChar@@QAE?AW4DirKeyInput@ioUserKeyInput@@XZ:PROC ; ioBaseChar::CheckCurDirKey
EXTRN	?IsChangeDirection@ioBaseChar@@QAE_NXZ:PROC	; ioBaseChar::IsChangeDirection
EXTRN	?IsSettedDirection@ioBaseChar@@QBE_NXZ:PROC	; ioBaseChar::IsSettedDirection
;	COMDAT xdata$x
; File d:\lost saga for developer\youtube\tutorial\source\src\lsclient\ioskill.h
xdata$x	SEGMENT
__unwindtable$?CheckCharRotateKey@ioChargingFireSkill4@@IAEXPAVioBaseChar@@@Z DD 0ffffffffH
	DD	FLAT:__unwindfunclet$?CheckCharRotateKey@ioChargingFireSkill4@@IAEXPAVioBaseChar@@@Z$0
__ehfuncinfo$?CheckCharRotateKey@ioChargingFireSkill4@@IAEXPAVioBaseChar@@@Z DD 019930522H
	DD	01H
	DD	FLAT:__unwindtable$?CheckCharRotateKey@ioChargingFireSkill4@@IAEXPAVioBaseChar@@@Z
	DD	2 DUP(00H)
	DD	2 DUP(00H)
	DD	00H
	DD	01H
; Function compile flags: /Ogsp
; File d:\lost saga for developer\youtube\tutorial\source\src\lsclient\iochargingfireskill4.cpp
xdata$x	ENDS
;	COMDAT ?CheckCharRotateKey@ioChargingFireSkill4@@IAEXPAVioBaseChar@@@Z
_TEXT	SEGMENT
_kPacket$548558 = -32808				; size = 32792
__$ArrayPad$ = -16					; size = 4
__$EHRec$ = -12						; size = 12
_pChar$ = 8						; size = 4
?CheckCharRotateKey@ioChargingFireSkill4@@IAEXPAVioBaseChar@@@Z PROC ; ioChargingFireSkill4::CheckCharRotateKey, COMDAT
; _this$ = ecx

; 677  : {

  00000	55		 push	 ebp
  00001	8b ec		 mov	 ebp, esp
  00003	6a ff		 push	 -1
  00005	68 00 00 00 00	 push	 __ehhandler$?CheckCharRotateKey@ioChargingFireSkill4@@IAEXPAVioBaseChar@@@Z
  0000a	64 a1 00 00 00
	00		 mov	 eax, DWORD PTR fs:0
  00010	50		 push	 eax
  00011	b8 1c 80 00 00	 mov	 eax, 32796		; 0000801cH
  00016	e8 00 00 00 00	 call	 __chkstk
  0001b	a1 00 00 00 00	 mov	 eax, DWORD PTR ___security_cookie
  00020	33 c5		 xor	 eax, ebp
  00022	89 45 f0	 mov	 DWORD PTR __$ArrayPad$[ebp], eax
  00025	53		 push	 ebx
  00026	56		 push	 esi
  00027	57		 push	 edi
  00028	50		 push	 eax
  00029	8d 45 f4	 lea	 eax, DWORD PTR __$EHRec$[ebp]
  0002c	64 a3 00 00 00
	00		 mov	 DWORD PTR fs:0, eax
  00032	8b 75 08	 mov	 esi, DWORD PTR _pChar$[ebp]
  00035	8b f9		 mov	 edi, ecx

; 678  : 	if( !pChar ) return;

  00037	85 f6		 test	 esi, esi
  00039	0f 84 c6 00 00
	00		 je	 $LN1@CheckCharR

; 679  : 	if( !pChar->IsNeedProcess() )

  0003f	8b 06		 mov	 eax, DWORD PTR [esi]
  00041	8b ce		 mov	 ecx, esi
  00043	ff 90 00 01 00
	00		 call	 DWORD PTR [eax+256]
  00049	84 c0		 test	 al, al
  0004b	0f 84 b4 00 00
	00		 je	 $LN1@CheckCharR

; 680  : 		return;
; 681  : 
; 682  : 	if( pChar->IsSettedDirection() && pChar->IsChangeDirection() )

  00051	8b ce		 mov	 ecx, esi
  00053	e8 00 00 00 00	 call	 ?IsSettedDirection@ioBaseChar@@QBE_NXZ ; ioBaseChar::IsSettedDirection
  00058	84 c0		 test	 al, al
  0005a	0f 84 a5 00 00
	00		 je	 $LN1@CheckCharR
  00060	8b ce		 mov	 ecx, esi
  00062	e8 00 00 00 00	 call	 ?IsChangeDirection@ioBaseChar@@QAE_NXZ ; ioBaseChar::IsChangeDirection
  00067	84 c0		 test	 al, al
  00069	0f 84 96 00 00
	00		 je	 $LN1@CheckCharR

; 683  : 	{
; 684  : 		ioUserKeyInput::DirKeyInput eNewDirKey = pChar->CheckCurDirKey();

  0006f	8b ce		 mov	 ecx, esi
  00071	e8 00 00 00 00	 call	 ?CheckCurDirKey@ioBaseChar@@QAE?AW4DirKeyInput@ioUserKeyInput@@XZ ; ioBaseChar::CheckCurDirKey
  00076	8b d8		 mov	 ebx, eax

; 685  : 		pChar->SetTargetRotToDirKey( eNewDirKey );

  00078	53		 push	 ebx
  00079	8b ce		 mov	 ecx, esi
  0007b	e8 00 00 00 00	 call	 ?SetTargetRotToDirKey@ioBaseChar@@QAEXW4DirKeyInput@ioUserKeyInput@@@Z ; ioBaseChar::SetTargetRotToDirKey

; 686  : 
; 687  : 		SetAimState( pChar, false );

  00080	6a 00		 push	 0
  00082	56		 push	 esi
  00083	8b cf		 mov	 ecx, edi
  00085	e8 00 00 00 00	 call	 ?SetAimState@ioChargingFireSkill4@@IAEXPAVioBaseChar@@_N@Z ; ioChargingFireSkill4::SetAimState

; 688  : 
; 689  : 		if( pChar->IsNeedSendNetwork() )

  0008a	8b 06		 mov	 eax, DWORD PTR [esi]
  0008c	8b ce		 mov	 ecx, esi
  0008e	ff 90 04 01 00
	00		 call	 DWORD PTR [eax+260]
  00094	84 c0		 test	 al, al
  00096	74 6d		 je	 SHORT $LN1@CheckCharR

; 690  : 		{
; 691  : 			SP2Packet kPacket( CUPK_SKILL_EXTRA_INFO );

  00098	68 39 41 00 00	 push	 16697			; 00004139H
  0009d	8d 8d d8 7f ff
	ff		 lea	 ecx, DWORD PTR _kPacket$548558[ebp]
  000a3	e8 00 00 00 00	 call	 ??0SP2Packet@@QAE@K@Z	; SP2Packet::SP2Packet
  000a8	83 65 fc 00	 and	 DWORD PTR __$EHRec$[ebp+8], 0

; 692  : 			kPacket << pChar->GetCharName();

  000ac	81 c6 d4 02 00
	00		 add	 esi, 724		; 000002d4H
  000b2	56		 push	 esi
  000b3	8d 8d d8 7f ff
	ff		 lea	 ecx, DWORD PTR _kPacket$548558[ebp]
  000b9	e8 00 00 00 00	 call	 ??6SP2Packet@@QAEAAV0@ABVioHashString@@@Z ; SP2Packet::operator<<

; 693  : 			kPacket << GetName();

  000be	83 c7 24	 add	 edi, 36			; 00000024H
  000c1	57		 push	 edi
  000c2	8d 8d d8 7f ff
	ff		 lea	 ecx, DWORD PTR _kPacket$548558[ebp]
  000c8	e8 00 00 00 00	 call	 ??6SP2Packet@@QAEAAV0@ABVioHashString@@@Z ; SP2Packet::operator<<

; 694  : 			kPacket << SSC_DIR;

  000cd	6a 02		 push	 2
  000cf	8d 8d d8 7f ff
	ff		 lea	 ecx, DWORD PTR _kPacket$548558[ebp]
  000d5	e8 00 00 00 00	 call	 ??6SP2Packet@@QAEAAV0@H@Z ; SP2Packet::operator<<

; 695  : 			kPacket << (int)eNewDirKey;

  000da	53		 push	 ebx
  000db	8d 8d d8 7f ff
	ff		 lea	 ecx, DWORD PTR _kPacket$548558[ebp]
  000e1	e8 00 00 00 00	 call	 ??6SP2Packet@@QAEAAV0@H@Z ; SP2Packet::operator<<

; 696  : 			P2PNetwork::SendToAllPlayingUser( kPacket );

  000e6	8d 85 d8 7f ff
	ff		 lea	 eax, DWORD PTR _kPacket$548558[ebp]
  000ec	6a 00		 push	 0
  000ee	50		 push	 eax
  000ef	e8 00 00 00 00	 call	 ?SendToAllPlayingUser@P2PNetwork@@YAXAAVSP2Packet@@PAVioBaseChar@@@Z ; P2PNetwork::SendToAllPlayingUser

; 697  : 		}

  000f4	83 4d fc ff	 or	 DWORD PTR __$EHRec$[ebp+8], -1
  000f8	59		 pop	 ecx
  000f9	59		 pop	 ecx
  000fa	8d 8d d8 7f ff
	ff		 lea	 ecx, DWORD PTR _kPacket$548558[ebp]
  00100	e8 00 00 00 00	 call	 ??1SP2Packet@@UAE@XZ	; SP2Packet::~SP2Packet
$LN1@CheckCharR:

; 698  : 	}
; 699  : }

  00105	8b 4d f4	 mov	 ecx, DWORD PTR __$EHRec$[ebp]
  00108	64 89 0d 00 00
	00 00		 mov	 DWORD PTR fs:0, ecx
  0010f	59		 pop	 ecx
  00110	5f		 pop	 edi
  00111	5e		 pop	 esi
  00112	5b		 pop	 ebx
  00113	8b 4d f0	 mov	 ecx, DWORD PTR __$ArrayPad$[ebp]
  00116	33 cd		 xor	 ecx, ebp
  00118	e8 00 00 00 00	 call	 @__security_check_cookie@4
  0011d	c9		 leave
  0011e	c2 04 00	 ret	 4
_TEXT	ENDS
;	COMDAT text$x
text$x	SEGMENT
__unwindfunclet$?CheckCharRotateKey@ioChargingFireSkill4@@IAEXPAVioBaseChar@@@Z$0:
  00000	8d 8d d8 7f ff
	ff		 lea	 ecx, DWORD PTR _kPacket$548558[ebp]
  00006	e9 00 00 00 00	 jmp	 ??1SP2Packet@@UAE@XZ	; SP2Packet::~SP2Packet
__ehhandler$?CheckCharRotateKey@ioChargingFireSkill4@@IAEXPAVioBaseChar@@@Z:
  0000b	8b 54 24 08	 mov	 edx, DWORD PTR [esp+8]
  0000f	8d 42 0c	 lea	 eax, DWORD PTR [edx+12]
  00012	8b 8a d4 7f ff
	ff		 mov	 ecx, DWORD PTR [edx-32812]
  00018	33 c8		 xor	 ecx, eax
  0001a	e8 00 00 00 00	 call	 @__security_check_cookie@4
  0001f	8b 4a fc	 mov	 ecx, DWORD PTR [edx-4]
  00022	33 c8		 xor	 ecx, eax
  00024	e8 00 00 00 00	 call	 @__security_check_cookie@4
  00029	b8 00 00 00 00	 mov	 eax, OFFSET __ehfuncinfo$?CheckCharRotateKey@ioChargingFireSkill4@@IAEXPAVioBaseChar@@@Z
  0002e	e9 00 00 00 00	 jmp	 ___CxxFrameHandler3
text$x	ENDS
?CheckCharRotateKey@ioChargingFireSkill4@@IAEXPAVioBaseChar@@@Z ENDP ; ioChargingFireSkill4::CheckCharRotateKey
PUBLIC	__$ArrayPad$
PUBLIC	?TarckingTarget@ioChargingFireSkill4@@IAEXPAVioBaseChar@@@Z ; ioChargingFireSkill4::TarckingTarget
EXTRN	?SetTargetRotToTargetPos@ioBaseChar@@QAEXABUD3DXVECTOR3@@_N1@Z:PROC ; ioBaseChar::SetTargetRotToTargetPos
EXTRN	?GetMidPositionByRate@ioGameEntity@@QBE?AUD3DXVECTOR3@@M@Z:PROC ; ioGameEntity::GetMidPositionByRate
; Function compile flags: /Ogsp
;	COMDAT ?TarckingTarget@ioChargingFireSkill4@@IAEXPAVioBaseChar@@@Z
_TEXT	SEGMENT
$T548622 = -16						; size = 12
__$ArrayPad$ = -4					; size = 4
_pChar$ = 8						; size = 4
?TarckingTarget@ioChargingFireSkill4@@IAEXPAVioBaseChar@@@Z PROC ; ioChargingFireSkill4::TarckingTarget, COMDAT
; _this$ = ecx

; 843  : {

  00000	55		 push	 ebp
  00001	8b ec		 mov	 ebp, esp
  00003	83 ec 10	 sub	 esp, 16			; 00000010H
  00006	a1 00 00 00 00	 mov	 eax, DWORD PTR ___security_cookie
  0000b	33 c5		 xor	 eax, ebp
  0000d	89 45 fc	 mov	 DWORD PTR __$ArrayPad$[ebp], eax
  00010	53		 push	 ebx
  00011	8b 5d 08	 mov	 ebx, DWORD PTR _pChar$[ebp]
  00014	56		 push	 esi
  00015	57		 push	 edi
  00016	8b f9		 mov	 edi, ecx

; 844  : 	ioBaseChar *pTarget = pChar->GetBaseChar( m_szTargetName );

  00018	8d 87 48 10 00
	00		 lea	 eax, DWORD PTR [edi+4168]
  0001e	50		 push	 eax
  0001f	8b cb		 mov	 ecx, ebx
  00021	e8 00 00 00 00	 call	 ?GetBaseChar@ioBaseChar@@QAEPAV1@ABVioHashString@@@Z ; ioBaseChar::GetBaseChar
  00026	8b f0		 mov	 esi, eax

; 845  : 	if( !pTarget ) return;

  00028	85 f6		 test	 esi, esi
  0002a	74 4f		 je	 SHORT $LN4@TarckingTa

; 846  : 
; 847  : 	m_bSetAimedTarget = true;
; 848  : 
; 849  : 	if( CheckDownAimState( pTarget ) )

  0002c	56		 push	 esi
  0002d	8b cf		 mov	 ecx, edi
  0002f	c6 87 8c 11 00
	00 01		 mov	 BYTE PTR [edi+4492], 1
  00036	e8 00 00 00 00	 call	 ?CheckDownAimState@ioChargingFireSkill4@@IAE_NPAVioBaseChar@@@Z ; ioChargingFireSkill4::CheckDownAimState

; 850  : 		m_vAimedPos = pTarget->GetMidPositionByRate( m_fDownTargetAimRate );

  0003b	51		 push	 ecx
  0003c	84 c0		 test	 al, al
  0003e	8b ce		 mov	 ecx, esi
  00040	8d 45 f0	 lea	 eax, DWORD PTR $T548622[ebp]
  00043	74 0a		 je	 SHORT $LN2@TarckingTa
  00045	f3 0f 10 87 44
	10 00 00	 movss	 xmm0, DWORD PTR [edi+4164]

; 851  : 	else

  0004d	eb 08		 jmp	 SHORT $LN6@TarckingTa
$LN2@TarckingTa:

; 852  : 		m_vAimedPos = pTarget->GetMidPositionByRate( m_fTargetAimRate );

  0004f	f3 0f 10 87 40
	10 00 00	 movss	 xmm0, DWORD PTR [edi+4160]
$LN6@TarckingTa:
  00057	f3 0f 11 04 24	 movss	 DWORD PTR [esp], xmm0
  0005c	50		 push	 eax
  0005d	e8 00 00 00 00	 call	 ?GetMidPositionByRate@ioGameEntity@@QBE?AUD3DXVECTOR3@@M@Z ; ioGameEntity::GetMidPositionByRate
  00062	8d 8f 90 11 00
	00		 lea	 ecx, DWORD PTR [edi+4496]
  00068	8b f9		 mov	 edi, ecx
  0006a	8b f0		 mov	 esi, eax
  0006c	a5		 movsd

; 853  : 
; 854  : 	pChar->SetTargetRotToTargetPos( m_vAimedPos, true, false );

  0006d	6a 00		 push	 0
  0006f	a5		 movsd
  00070	6a 01		 push	 1
  00072	51		 push	 ecx
  00073	8b cb		 mov	 ecx, ebx
  00075	a5		 movsd
  00076	e8 00 00 00 00	 call	 ?SetTargetRotToTargetPos@ioBaseChar@@QAEXABUD3DXVECTOR3@@_N1@Z ; ioBaseChar::SetTargetRotToTargetPos
$LN4@TarckingTa:

; 855  : }

  0007b	8b 4d fc	 mov	 ecx, DWORD PTR __$ArrayPad$[ebp]
  0007e	5f		 pop	 edi
  0007f	5e		 pop	 esi
  00080	33 cd		 xor	 ecx, ebp
  00082	5b		 pop	 ebx
  00083	e8 00 00 00 00	 call	 @__security_check_cookie@4
  00088	c9		 leave
  00089	c2 04 00	 ret	 4
?TarckingTarget@ioChargingFireSkill4@@IAEXPAVioBaseChar@@@Z ENDP ; ioChargingFireSkill4::TarckingTarget
_TEXT	ENDS
PUBLIC	___$ReturnUdt$GSCopy$
PUBLIC	_this$GSCopy$
PUBLIC	_pWeapon$GSCopy$
PUBLIC	__$ArrayPad$
PUBLIC	?ReCalcMoveDir@ioChargingFireSkill4@@IAE?AUD3DXVECTOR3@@PAVioBaseChar@@PAVioWeapon@@@Z ; ioChargingFireSkill4::ReCalcMoveDir
; Function compile flags: /Ogsp
;	COMDAT ?ReCalcMoveDir@ioChargingFireSkill4@@IAE?AUD3DXVECTOR3@@PAVioBaseChar@@PAVioWeapon@@@Z
_TEXT	SEGMENT
_pWeapon$GSCopy$ = -44					; size = 4
_this$GSCopy$ = -40					; size = 4
___$ReturnUdt$GSCopy$ = -36				; size = 4
_pTarget$ = -32						; size = 4
_vAimedDir$ = -28					; size = 12
_vWeaponPos$ = -16					; size = 12
$T548679 = -16						; size = 12
__$ArrayPad$ = -4					; size = 4
___$ReturnUdt$ = 8					; size = 4
_pChar$ = 12						; size = 4
_pWeapon$ = 16						; size = 4
?ReCalcMoveDir@ioChargingFireSkill4@@IAE?AUD3DXVECTOR3@@PAVioBaseChar@@PAVioWeapon@@@Z PROC ; ioChargingFireSkill4::ReCalcMoveDir, COMDAT
; _this$ = ecx

; 917  : {

  00000	55		 push	 ebp
  00001	8b ec		 mov	 ebp, esp
  00003	83 ec 2c	 sub	 esp, 44			; 0000002cH
  00006	a1 00 00 00 00	 mov	 eax, DWORD PTR ___security_cookie
  0000b	33 c5		 xor	 eax, ebp
  0000d	89 45 fc	 mov	 DWORD PTR __$ArrayPad$[ebp], eax

; 938  : 
; 939  : 	return vAimedDir;

  00010	8b 45 10	 mov	 eax, DWORD PTR _pWeapon$[ebp]
  00013	53		 push	 ebx
  00014	8b 5d 08	 mov	 ebx, DWORD PTR ___$ReturnUdt$[ebp]
  00017	56		 push	 esi
  00018	57		 push	 edi
  00019	8b f9		 mov	 edi, ecx
  0001b	8b 4d 0c	 mov	 ecx, DWORD PTR _pChar$[ebp]
  0001e	89 45 d4	 mov	 DWORD PTR _pWeapon$GSCopy$[ebp], eax
  00021	8d 87 48 10 00
	00		 lea	 eax, DWORD PTR [edi+4168]
  00027	50		 push	 eax
  00028	89 7d d8	 mov	 DWORD PTR _this$GSCopy$[ebp], edi
  0002b	89 5d dc	 mov	 DWORD PTR ___$ReturnUdt$GSCopy$[ebp], ebx
  0002e	e8 00 00 00 00	 call	 ?GetBaseChar@ioBaseChar@@QAEPAV1@ABVioHashString@@@Z ; ioBaseChar::GetBaseChar
  00033	8b 35 00 00 00
	00		 mov	 esi, DWORD PTR __imp_?VEC3_ZERO@ioMath@@2UD3DXVECTOR3@@A
  00039	89 45 e0	 mov	 DWORD PTR _pTarget$[ebp], eax
  0003c	85 c0		 test	 eax, eax
  0003e	75 09		 jne	 SHORT $LN5@ReCalcMove

; 918  : 	ioBaseChar *pTarget = pChar->GetBaseChar( m_szTargetName );
; 919  : 	if( !pTarget )
; 920  : 		return ioMath::VEC3_ZERO;

  00040	8b fb		 mov	 edi, ebx
  00042	8b c3		 mov	 eax, ebx
  00044	e9 1a 01 00 00	 jmp	 $LN17@ReCalcMove
$LN5@ReCalcMove:

; 921  : 
; 922  : 	if( m_vAimedPos == ioMath::VEC3_ZERO )

  00049	f3 0f 10 0e	 movss	 xmm1, DWORD PTR [esi]
  0004d	8d 9f 90 11 00
	00		 lea	 ebx, DWORD PTR [edi+4496]
  00053	f3 0f 10 03	 movss	 xmm0, DWORD PTR [ebx]
  00057	0f 5a c0	 cvtps2pd xmm0, xmm0
  0005a	0f 5a c9	 cvtps2pd xmm1, xmm1
  0005d	66 0f 2e c1	 ucomisd xmm0, xmm1
  00061	9f		 lahf
  00062	f6 c4 44	 test	 ah, 68			; 00000044H
  00065	7a 38		 jp	 SHORT $LN4@ReCalcMove
  00067	f3 0f 10 43 04	 movss	 xmm0, DWORD PTR [ebx+4]
  0006c	f3 0f 10 4e 04	 movss	 xmm1, DWORD PTR [esi+4]
  00071	0f 5a c0	 cvtps2pd xmm0, xmm0
  00074	0f 5a c9	 cvtps2pd xmm1, xmm1
  00077	66 0f 2e c1	 ucomisd xmm0, xmm1
  0007b	9f		 lahf
  0007c	f6 c4 44	 test	 ah, 68			; 00000044H
  0007f	7a 1e		 jp	 SHORT $LN4@ReCalcMove
  00081	f3 0f 10 43 08	 movss	 xmm0, DWORD PTR [ebx+8]
  00086	f3 0f 10 4e 08	 movss	 xmm1, DWORD PTR [esi+8]
  0008b	0f 5a c0	 cvtps2pd xmm0, xmm0
  0008e	0f 5a c9	 cvtps2pd xmm1, xmm1
  00091	66 0f 2e c1	 ucomisd xmm0, xmm1
  00095	9f		 lahf
  00096	f6 c4 44	 test	 ah, 68			; 00000044H

; 923  : 		return ioMath::VEC3_ZERO;

  00099	0f 8b bf 00 00
	00		 jnp	 $LN18@ReCalcMove
$LN4@ReCalcMove:

; 924  : 
; 925  : 	if( m_bSetAimedTarget )

  0009f	80 bf 8c 11 00
	00 00		 cmp	 BYTE PTR [edi+4492], 0
  000a6	74 43		 je	 SHORT $LN3@ReCalcMove

; 926  : 	{
; 927  : 		if( CheckDownAimState( pTarget ) )

  000a8	ff 75 e0	 push	 DWORD PTR _pTarget$[ebp]
  000ab	8b cf		 mov	 ecx, edi
  000ad	e8 00 00 00 00	 call	 ?CheckDownAimState@ioChargingFireSkill4@@IAE_NPAVioBaseChar@@@Z ; ioChargingFireSkill4::CheckDownAimState

; 928  : 			m_vAimedPos = pTarget->GetMidPositionByRate( m_fDownTargetAimRate );

  000b2	51		 push	 ecx
  000b3	8b 4d e0	 mov	 ecx, DWORD PTR _pTarget$[ebp]
  000b6	84 c0		 test	 al, al
  000b8	8d 45 f0	 lea	 eax, DWORD PTR $T548679[ebp]
  000bb	74 0a		 je	 SHORT $LN2@ReCalcMove
  000bd	f3 0f 10 87 44
	10 00 00	 movss	 xmm0, DWORD PTR [edi+4164]

; 929  : 		else

  000c5	eb 08		 jmp	 SHORT $LN19@ReCalcMove
$LN2@ReCalcMove:

; 930  : 			m_vAimedPos = pTarget->GetMidPositionByRate( m_fTargetAimRate );

  000c7	f3 0f 10 87 40
	10 00 00	 movss	 xmm0, DWORD PTR [edi+4160]
$LN19@ReCalcMove:
  000cf	f3 0f 11 04 24	 movss	 DWORD PTR [esp], xmm0
  000d4	50		 push	 eax
  000d5	e8 00 00 00 00	 call	 ?GetMidPositionByRate@ioGameEntity@@QBE?AUD3DXVECTOR3@@M@Z ; ioGameEntity::GetMidPositionByRate
  000da	8b f0		 mov	 esi, eax

; 931  : 
; 932  : 		m_bSetAimedTarget = false;

  000dc	8b 45 d8	 mov	 eax, DWORD PTR _this$GSCopy$[ebp]
  000df	8b fb		 mov	 edi, ebx
  000e1	a5		 movsd
  000e2	a5		 movsd
  000e3	a5		 movsd
  000e4	c6 80 8c 11 00
	00 00		 mov	 BYTE PTR [eax+4492], 0
$LN3@ReCalcMove:

; 933  : 	}
; 934  : 
; 935  : 	D3DXVECTOR3 vWeaponPos = pWeapon->GetPosition();

  000eb	8b 4d d4	 mov	 ecx, DWORD PTR _pWeapon$GSCopy$[ebp]
  000ee	8b 01		 mov	 eax, DWORD PTR [ecx]
  000f0	ff 50 70	 call	 DWORD PTR [eax+112]

; 936  : 	D3DXVECTOR3 vAimedDir =  m_vAimedPos - vWeaponPos;

  000f3	f3 0f 10 03	 movss	 xmm0, DWORD PTR [ebx]
  000f7	8b f0		 mov	 esi, eax
  000f9	8d 7d f0	 lea	 edi, DWORD PTR _vWeaponPos$[ebp]
  000fc	a5		 movsd
  000fd	a5		 movsd
  000fe	0f 5a c0	 cvtps2pd xmm0, xmm0
  00101	a5		 movsd
  00102	f3 0f 10 4d f0	 movss	 xmm1, DWORD PTR _vWeaponPos$[ebp]
  00107	0f 5a c9	 cvtps2pd xmm1, xmm1
  0010a	f2 0f 5c c1	 subsd	 xmm0, xmm1
  0010e	f3 0f 10 4d f4	 movss	 xmm1, DWORD PTR _vWeaponPos$[ebp+4]
  00113	66 0f 5a c0	 cvtpd2ps xmm0, xmm0
  00117	f3 0f 11 45 e4	 movss	 DWORD PTR _vAimedDir$[ebp], xmm0
  0011c	f3 0f 10 43 04	 movss	 xmm0, DWORD PTR [ebx+4]
  00121	0f 5a c0	 cvtps2pd xmm0, xmm0
  00124	0f 5a c9	 cvtps2pd xmm1, xmm1
  00127	f2 0f 5c c1	 subsd	 xmm0, xmm1
  0012b	f3 0f 10 4d f8	 movss	 xmm1, DWORD PTR _vWeaponPos$[ebp+8]
  00130	66 0f 5a c0	 cvtpd2ps xmm0, xmm0
  00134	f3 0f 11 45 e8	 movss	 DWORD PTR _vAimedDir$[ebp+4], xmm0
  00139	f3 0f 10 43 08	 movss	 xmm0, DWORD PTR [ebx+8]

; 937  : 	D3DXVec3Normalize( &vAimedDir, &vAimedDir );

  0013e	8d 45 e4	 lea	 eax, DWORD PTR _vAimedDir$[ebp]
  00141	0f 5a c0	 cvtps2pd xmm0, xmm0
  00144	0f 5a c9	 cvtps2pd xmm1, xmm1
  00147	50		 push	 eax
  00148	f2 0f 5c c1	 subsd	 xmm0, xmm1
  0014c	66 0f 5a c0	 cvtpd2ps xmm0, xmm0
  00150	50		 push	 eax
  00151	f3 0f 11 45 ec	 movss	 DWORD PTR _vAimedDir$[ebp+8], xmm0
  00156	e8 00 00 00 00	 call	 _D3DXVec3Normalize@8

; 938  : 
; 939  : 	return vAimedDir;

  0015b	8d 75 e4	 lea	 esi, DWORD PTR _vAimedDir$[ebp]
$LN18@ReCalcMove:
  0015e	8b 45 dc	 mov	 eax, DWORD PTR ___$ReturnUdt$GSCopy$[ebp]
  00161	8b f8		 mov	 edi, eax
$LN17@ReCalcMove:

; 940  : }

  00163	8b 4d fc	 mov	 ecx, DWORD PTR __$ArrayPad$[ebp]
  00166	a5		 movsd
  00167	a5		 movsd
  00168	a5		 movsd
  00169	5f		 pop	 edi
  0016a	5e		 pop	 esi
  0016b	33 cd		 xor	 ecx, ebp
  0016d	5b		 pop	 ebx
  0016e	e8 00 00 00 00	 call	 @__security_check_cookie@4
  00173	c9		 leave
  00174	c2 0c 00	 ret	 12			; 0000000cH
?ReCalcMoveDir@ioChargingFireSkill4@@IAE?AUD3DXVECTOR3@@PAVioBaseChar@@PAVioWeapon@@@Z ENDP ; ioChargingFireSkill4::ReCalcMoveDir
_TEXT	ENDS
PUBLIC	??$_Uninit_copy@V?$_Vector_const_iterator@V?$_Vector_val@UForceInfo@@V?$allocator@UForceInfo@@@std@@@std@@@std@@PAUForceInfo@@V?$allocator@UForceInfo@@@2@@std@@YAPAUForceInfo@@V?$_Vector_const_iterator@V?$_Vector_val@UForceInfo@@V?$allocator@UForceInfo@@@std@@@std@@@0@0PAU1@AAV?$allocator@UForceInfo@@@0@U_Nonscalar_ptr_iterator_tag@0@@Z ; std::_Uninit_copy<std::_Vector_const_iterator<std::_Vector_val<ForceInfo,std::allocator<ForceInfo> > >,ForceInfo *,std::allocator<ForceInfo> >
; Function compile flags: /Ogsp
; File c:\program files (x86)\microsoft visual studio 10.0\vc\include\memory
;	COMDAT ??$_Uninit_copy@V?$_Vector_const_iterator@V?$_Vector_val@UForceInfo@@V?$allocator@UForceInfo@@@std@@@std@@@std@@PAUForceInfo@@V?$allocator@UForceInfo@@@2@@std@@YAPAUForceInfo@@V?$_Vector_const_iterator@V?$_Vector_val@UForceInfo@@V?$allocator@UForceInfo@@@std@@@std@@@0@0PAU1@AAV?$allocator@UForceInfo@@@0@U_Nonscalar_ptr_iterator_tag@0@@Z
_TEXT	SEGMENT
__First$ = 8						; size = 4
__Last$ = 12						; size = 4
__Dest$ = 16						; size = 4
__Al$ = 20						; size = 4
___formal$ = 24						; size = 1
??$_Uninit_copy@V?$_Vector_const_iterator@V?$_Vector_val@UForceInfo@@V?$allocator@UForceInfo@@@std@@@std@@@std@@PAUForceInfo@@V?$allocator@UForceInfo@@@2@@std@@YAPAUForceInfo@@V?$_Vector_const_iterator@V?$_Vector_val@UForceInfo@@V?$allocator@UForceInfo@@@std@@@std@@@0@0PAU1@AAV?$allocator@UForceInfo@@@0@U_Nonscalar_ptr_iterator_tag@0@@Z PROC ; std::_Uninit_copy<std::_Vector_const_iterator<std::_Vector_val<ForceInfo,std::allocator<ForceInfo> > >,ForceInfo *,std::allocator<ForceInfo> >, COMDAT

; 369  : 	{	// copy [_First, _Last) to raw _Dest, using _Al, arbitrary type

  00000	55		 push	 ebp
  00001	8b ec		 mov	 ebp, esp

; 370  : 	_DEBUG_RANGE(_First, _Last);
; 371  : 	_DEBUG_POINTER(_Dest);
; 372  : 	_FwdIt _Next = _Dest;
; 373  : 
; 374  : 	_TRY_BEGIN
; 375  : 	for (; _First != _Last; ++_Dest, ++_First)

  00003	eb 19		 jmp	 SHORT $LN35@Uninit_cop
$LL14@Uninit_cop:

; 376  : 		_Cons_val(_Al, _Dest, *_First);

  00005	ff 75 08	 push	 DWORD PTR __First$[ebp]
  00008	ff 75 10	 push	 DWORD PTR __Dest$[ebp]
  0000b	ff 75 14	 push	 DWORD PTR __Al$[ebp]
  0000e	e8 00 00 00 00	 call	 ??$_Cons_val@V?$allocator@UForceInfo@@@std@@UForceInfo@@ABU3@@std@@YAXAAV?$allocator@UForceInfo@@@0@PAUForceInfo@@ABU2@@Z ; std::_Cons_val<std::allocator<ForceInfo>,ForceInfo,ForceInfo const &>
  00013	83 45 10 0c	 add	 DWORD PTR __Dest$[ebp], 12 ; 0000000cH
  00017	83 c4 0c	 add	 esp, 12			; 0000000cH
  0001a	83 45 08 0c	 add	 DWORD PTR __First$[ebp], 12 ; 0000000cH
$LN35@Uninit_cop:

; 370  : 	_DEBUG_RANGE(_First, _Last);
; 371  : 	_DEBUG_POINTER(_Dest);
; 372  : 	_FwdIt _Next = _Dest;
; 373  : 
; 374  : 	_TRY_BEGIN
; 375  : 	for (; _First != _Last; ++_Dest, ++_First)

  0001e	8b 45 08	 mov	 eax, DWORD PTR __First$[ebp]
  00021	3b 45 0c	 cmp	 eax, DWORD PTR __Last$[ebp]
  00024	75 df		 jne	 SHORT $LL14@Uninit_cop

; 377  : 	_CATCH_ALL
; 378  : 	for (; _Next != _Dest; ++_Next)
; 379  : 		_Dest_val(_Al, _Next);
; 380  : 	_RERAISE;
; 381  : 	_CATCH_END
; 382  : 	return (_Dest);

  00026	8b 45 10	 mov	 eax, DWORD PTR __Dest$[ebp]

; 383  : 	}

  00029	5d		 pop	 ebp
  0002a	c3		 ret	 0
??$_Uninit_copy@V?$_Vector_const_iterator@V?$_Vector_val@UForceInfo@@V?$allocator@UForceInfo@@@std@@@std@@@std@@PAUForceInfo@@V?$allocator@UForceInfo@@@2@@std@@YAPAUForceInfo@@V?$_Vector_const_iterator@V?$_Vector_val@UForceInfo@@V?$allocator@UForceInfo@@@std@@@std@@@0@0PAU1@AAV?$allocator@UForceInfo@@@0@U_Nonscalar_ptr_iterator_tag@0@@Z ENDP ; std::_Uninit_copy<std::_Vector_const_iterator<std::_Vector_val<ForceInfo,std::allocator<ForceInfo> > >,ForceInfo *,std::allocator<ForceInfo> >
_TEXT	ENDS
PUBLIC	??$_Cons_val@V?$allocator@UWeaponInfo@@@std@@UWeaponInfo@@ABU3@@std@@YAXAAV?$allocator@UWeaponInfo@@@0@PAUWeaponInfo@@ABU2@@Z ; std::_Cons_val<std::allocator<WeaponInfo>,WeaponInfo,WeaponInfo const &>
; Function compile flags: /Ogsp
; File c:\program files (x86)\microsoft visual studio 10.0\vc\include\xmemory
;	COMDAT ??$_Cons_val@V?$allocator@UWeaponInfo@@@std@@UWeaponInfo@@ABU3@@std@@YAXAAV?$allocator@UWeaponInfo@@@0@PAUWeaponInfo@@ABU2@@Z
_TEXT	SEGMENT
__Alval$ = 8						; size = 4
__Pdest$ = 12						; size = 4
__Src$ = 16						; size = 4
??$_Cons_val@V?$allocator@UWeaponInfo@@@std@@UWeaponInfo@@ABU3@@std@@YAXAAV?$allocator@UWeaponInfo@@@0@PAUWeaponInfo@@ABU2@@Z PROC ; std::_Cons_val<std::allocator<WeaponInfo>,WeaponInfo,WeaponInfo const &>, COMDAT

; 279  : 	{	// construct using allocator

  00000	55		 push	 ebp
  00001	8b ec		 mov	 ebp, esp

; 280  : 	_Alval.construct(_Pdest, _STD forward<_Ty2>(_Src));

  00003	ff 75 10	 push	 DWORD PTR __Src$[ebp]
  00006	ff 75 0c	 push	 DWORD PTR __Pdest$[ebp]
  00009	e8 00 00 00 00	 call	 ??$_Construct@UWeaponInfo@@ABU1@@std@@YAXPAUWeaponInfo@@ABU1@@Z ; std::_Construct<WeaponInfo,WeaponInfo const &>
  0000e	59		 pop	 ecx
  0000f	59		 pop	 ecx

; 281  : 	}

  00010	5d		 pop	 ebp
  00011	c3		 ret	 0
??$_Cons_val@V?$allocator@UWeaponInfo@@@std@@UWeaponInfo@@ABU3@@std@@YAXAAV?$allocator@UWeaponInfo@@@0@PAUWeaponInfo@@ABU2@@Z ENDP ; std::_Cons_val<std::allocator<WeaponInfo>,WeaponInfo,WeaponInfo const &>
_TEXT	ENDS
PUBLIC	??$_Destroy_range@V?$allocator@UForceInfo@@@std@@@std@@YAXPAUForceInfo@@0AAV?$allocator@UForceInfo@@@0@U_Nonscalar_ptr_iterator_tag@0@@Z ; std::_Destroy_range<std::allocator<ForceInfo> >
; Function compile flags: /Ogsp
;	COMDAT ??$_Destroy_range@V?$allocator@UForceInfo@@@std@@@std@@YAXPAUForceInfo@@0AAV?$allocator@UForceInfo@@@0@U_Nonscalar_ptr_iterator_tag@0@@Z
_TEXT	SEGMENT
__First$ = 8						; size = 4
__Last$ = 12						; size = 4
__Al$ = 16						; size = 4
___formal$ = 20						; size = 1
??$_Destroy_range@V?$allocator@UForceInfo@@@std@@@std@@YAXPAUForceInfo@@0AAV?$allocator@UForceInfo@@@0@U_Nonscalar_ptr_iterator_tag@0@@Z PROC ; std::_Destroy_range<std::allocator<ForceInfo> >, COMDAT

; 96   : 	for (; _First != _Last; ++_First)
; 97   : 		_Dest_val(_Al, _First);
; 98   : 	}

  00000	c3		 ret	 0
??$_Destroy_range@V?$allocator@UForceInfo@@@std@@@std@@YAXPAUForceInfo@@0AAV?$allocator@UForceInfo@@@0@U_Nonscalar_ptr_iterator_tag@0@@Z ENDP ; std::_Destroy_range<std::allocator<ForceInfo> >
_TEXT	ENDS
PUBLIC	??$_Dest_val@V?$allocator@UWeaponInfo@@@std@@UWeaponInfo@@@std@@YAXAAV?$allocator@UWeaponInfo@@@0@PAUWeaponInfo@@@Z ; std::_Dest_val<std::allocator<WeaponInfo>,WeaponInfo>
; Function compile flags: /Ogsp
;	COMDAT ??$_Dest_val@V?$allocator@UWeaponInfo@@@std@@UWeaponInfo@@@std@@YAXAAV?$allocator@UWeaponInfo@@@0@PAUWeaponInfo@@@Z
_TEXT	SEGMENT
__Alval$ = 8						; size = 4
__Pdest$ = 12						; size = 4
??$_Dest_val@V?$allocator@UWeaponInfo@@@std@@UWeaponInfo@@@std@@YAXAAV?$allocator@UWeaponInfo@@@0@PAUWeaponInfo@@@Z PROC ; std::_Dest_val<std::allocator<WeaponInfo>,WeaponInfo>, COMDAT

; 286  : 	{	// destroy using allocator

  00000	55		 push	 ebp
  00001	8b ec		 mov	 ebp, esp

; 287  : 	_Alval.destroy(_Pdest);

  00003	8b 4d 0c	 mov	 ecx, DWORD PTR __Pdest$[ebp]
  00006	83 c1 08	 add	 ecx, 8

; 288  : 	}

  00009	5d		 pop	 ebp

; 287  : 	_Alval.destroy(_Pdest);

  0000a	ff 25 00 00 00
	00		 jmp	 DWORD PTR __imp_??1ioHashString@@QAE@XZ
??$_Dest_val@V?$allocator@UWeaponInfo@@@std@@UWeaponInfo@@@std@@YAXAAV?$allocator@UWeaponInfo@@@0@PAUWeaponInfo@@@Z ENDP ; std::_Dest_val<std::allocator<WeaponInfo>,WeaponInfo>
_TEXT	ENDS
PUBLIC	?OnSkillStart@ioChargingFireSkill4@@UAE_NPAVioBaseChar@@@Z ; ioChargingFireSkill4::OnSkillStart
EXTRN	?SetSkillNameChatBubble@ioSkill@@IAEXPAVioBaseChar@@@Z:PROC ; ioSkill::SetSkillNameChatBubble
EXTRN	?CheckSkillDesc@ioSkill@@IAEXPAVioBaseChar@@@Z:PROC ; ioSkill::CheckSkillDesc
EXTRN	?SetCameraBuff@ioSkill@@IAEXPAVioBaseChar@@@Z:PROC ; ioSkill::SetCameraBuff
EXTRN	?SetSkillProtection@ioBaseChar@@QAEXXZ:PROC	; ioBaseChar::SetSkillProtection
EXTRN	?IncreaseWeaponIndexBase@ioBaseChar@@QAEKXZ:PROC ; ioBaseChar::IncreaseWeaponIndexBase
; Function compile flags: /Ogsp
; File d:\lost saga for developer\youtube\tutorial\source\src\lsclient\iochargingfireskill4.cpp
;	COMDAT ?OnSkillStart@ioChargingFireSkill4@@UAE_NPAVioBaseChar@@@Z
_TEXT	SEGMENT
_value$559250 = 8					; size = 4
_value$559233 = 8					; size = 4
_value$559229 = 8					; size = 4
_pChar$ = 8						; size = 4
_value$559238 = 11					; size = 1
?OnSkillStart@ioChargingFireSkill4@@UAE_NPAVioBaseChar@@@Z PROC ; ioChargingFireSkill4::OnSkillStart, COMDAT
; _this$ = ecx

; 153  : {	

  00000	55		 push	 ebp
  00001	8b ec		 mov	 ebp, esp
  00003	53		 push	 ebx
  00004	8b d9		 mov	 ebx, ecx

; 154  : 	if( !HasSkillMotion() )

  00006	8b 03		 mov	 eax, DWORD PTR [ebx]
  00008	ff 90 24 01 00
	00		 call	 DWORD PTR [eax+292]
  0000e	84 c0		 test	 al, al
  00010	0f 84 8e 01 00
	00		 je	 $LN7@OnSkillSta
$LN6@OnSkillSta:
  00016	56		 push	 esi

; 155  : 		return false;
; 156  : 
; 157  : 	m_dwLoopStartTime = 0;

  00017	33 f6		 xor	 esi, esi
  00019	57		 push	 edi

; 158  : 	m_dwAttackEndTime = 0;
; 159  : 	m_dwMotionEndTime = 0;
; 160  : 	m_dwFireStartTime = 0;
; 161  : 	m_dwFireEndTime = 0;
; 162  : 
; 163  : 	m_LoopAimState = LAS_NONE;
; 164  : 
; 165  : 	m_bSetAimedTarget = false;
; 166  : 	m_szTargetName.Clear();

  0001a	8d 8b 48 10 00
	00		 lea	 ecx, DWORD PTR [ebx+4168]
  00020	89 b3 a8 11 00
	00		 mov	 DWORD PTR [ebx+4520], esi
  00026	89 b3 ac 11 00
	00		 mov	 DWORD PTR [ebx+4524], esi
  0002c	89 b3 d8 02 00
	00		 mov	 DWORD PTR [ebx+728], esi
  00032	89 b3 f4 0f 00
	00		 mov	 DWORD PTR [ebx+4084], esi
  00038	89 b3 f8 0f 00
	00		 mov	 DWORD PTR [ebx+4088], esi
  0003e	89 b3 88 0f 00
	00		 mov	 DWORD PTR [ebx+3976], esi
  00044	c6 83 8c 11 00
	00 00		 mov	 BYTE PTR [ebx+4492], 0
  0004b	ff 15 00 00 00
	00		 call	 DWORD PTR __imp_?Clear@ioHashString@@QAEXXZ

; 167  : 	m_dwAimStartTime = 0;

  00051	89 b3 58 10 00
	00		 mov	 DWORD PTR [ebx+4184], esi

; 168  : 	m_vAimedPos = ioMath::VEC3_ZERO;

  00057	8b 35 00 00 00
	00		 mov	 esi, DWORD PTR __imp_?VEC3_ZERO@ioMath@@2UD3DXVECTOR3@@A
  0005d	8d bb 90 11 00
	00		 lea	 edi, DWORD PTR [ebx+4496]
  00063	a5		 movsd
  00064	a5		 movsd
  00065	a5		 movsd

; 169  : 
; 170  : 	// set marker none...
; 171  : 	pChar->SetTargetMarkerState( ioTargetMarker::MS_NONE, TT_OTHER );

  00066	8b 7d 08	 mov	 edi, DWORD PTR _pChar$[ebp]
  00069	6a 01		 push	 1
  0006b	33 f6		 xor	 esi, esi
  0006d	56		 push	 esi
  0006e	8d 8f cc 01 00
	00		 lea	 ecx, DWORD PTR [edi+460]
  00074	e8 00 00 00 00	 call	 ?SetTargetMarkerState@ioBaseGUISupport@@QAEXW4MarkerState@ioTargetMarker@@W4TargetedType@@@Z ; ioBaseGUISupport::SetTargetMarkerState

; 172  : 
; 173  : 	m_dwChargingEffect = -1;
; 174  : 
; 175  : 	m_dwEnableSwitchTime = 0;
; 176  : 	m_dwEnableSemiSwitchTime = 0;
; 177  : 
; 178  : 	m_fCurChargeRate = 0.0f;

  00079	0f 57 c0	 xorps	 xmm0, xmm0
  0007c	83 8b c4 11 00
	00 ff		 or	 DWORD PTR [ebx+4548], -1
  00083	8d 45 08	 lea	 eax, DWORD PTR _value$559229[ebp]
  00086	50		 push	 eax
  00087	8d 8b a4 09 00
	00		 lea	 ecx, DWORD PTR [ebx+2468]
  0008d	89 b3 5c 03 00
	00		 mov	 DWORD PTR [ebx+860], esi
  00093	89 b3 64 03 00
	00		 mov	 DWORD PTR [ebx+868], esi
  00099	f3 0f 11 45 08	 movss	 DWORD PTR _value$559229[ebp], xmm0
  0009e	e8 00 00 00 00	 call	 ?EncryptValueToPool@?$CEncrypt@M@@AAEXPBD@Z ; CEncrypt<float>::EncryptValueToPool

; 179  : 
; 180  : 	if( m_dwSwitchSkill > 0 )

  000a3	39 b3 58 03 00
	00		 cmp	 DWORD PTR [ebx+856], esi
  000a9	76 1a		 jbe	 SHORT $LN5@OnSkillSta

; 181  : 		m_dwEnableSwitchTime = FRAMEGETTIME() + m_dwSwitchSkill;

  000ab	ff 15 00 00 00
	00		 call	 DWORD PTR __imp_?GetSingleton@ioFrameTimer@@SAAAV1@XZ
  000b1	8b c8		 mov	 ecx, eax
  000b3	ff 15 00 00 00
	00		 call	 DWORD PTR __imp_?GetLoopSec@ioFrameTimer@@QBEKXZ
  000b9	03 83 58 03 00
	00		 add	 eax, DWORD PTR [ebx+856]
  000bf	89 83 5c 03 00
	00		 mov	 DWORD PTR [ebx+860], eax
$LN5@OnSkillSta:

; 182  : 	if( m_dwSemiSwitchSkill > 0 )

  000c5	39 b3 60 03 00
	00		 cmp	 DWORD PTR [ebx+864], esi
  000cb	76 1a		 jbe	 SHORT $LN21@OnSkillSta

; 183  : 		m_dwEnableSemiSwitchTime = FRAMEGETTIME() + m_dwSemiSwitchSkill;

  000cd	ff 15 00 00 00
	00		 call	 DWORD PTR __imp_?GetSingleton@ioFrameTimer@@SAAAV1@XZ
  000d3	8b c8		 mov	 ecx, eax
  000d5	ff 15 00 00 00
	00		 call	 DWORD PTR __imp_?GetLoopSec@ioFrameTimer@@QBEKXZ
  000db	03 83 60 03 00
	00		 add	 eax, DWORD PTR [ebx+864]
  000e1	89 83 64 03 00
	00		 mov	 DWORD PTR [ebx+868], eax
$LN21@OnSkillSta:

; 184  : 
; 185  : 	m_dwSkillStartTime = FRAMEGETTIME();

  000e7	ff 15 00 00 00
	00		 call	 DWORD PTR __imp_?GetSingleton@ioFrameTimer@@SAAAV1@XZ
  000ed	8b c8		 mov	 ecx, eax
  000ef	ff 15 00 00 00
	00		 call	 DWORD PTR __imp_?GetLoopSec@ioFrameTimer@@QBEKXZ
  000f5	89 45 08	 mov	 DWORD PTR _value$559233[ebp], eax
  000f8	8d 45 08	 lea	 eax, DWORD PTR _value$559233[ebp]
  000fb	50		 push	 eax
  000fc	8d 8b 94 0e 00
	00		 lea	 ecx, DWORD PTR [ebx+3732]
  00102	e8 00 00 00 00	 call	 ?EncryptValueToPool@?$CEncrypt@K@@AAEXPBD@Z ; CEncrypt<unsigned long>::EncryptValueToPool

; 186  : 
; 187  : 	pChar->AttachEffect( m_SkillEffectName );

  00107	6a 01		 push	 1
  00109	33 f6		 xor	 esi, esi
  0010b	56		 push	 esi
  0010c	8d 83 b8 01 00
	00		 lea	 eax, DWORD PTR [ebx+440]
  00112	50		 push	 eax
  00113	8b cf		 mov	 ecx, edi
  00115	e8 00 00 00 00	 call	 ?AttachEffect@ioBaseChar@@QAEPAVioEffect@@ABVioHashString@@PAVioEntityEvent@@_N@Z ; ioBaseChar::AttachEffect

; 188  : 
; 189  : 	//    
; 190  : 	if( m_bUseItemMesh )

  0011a	80 bb 08 0f 00
	00 00		 cmp	 BYTE PTR [ebx+3848], 0
  00121	74 09		 je	 SHORT $LN3@OnSkillSta

; 191  : 	{
; 192  : 		pChar->ShowWeaponItemMesh( false );

  00123	56		 push	 esi
  00124	56		 push	 esi
  00125	8b cf		 mov	 ecx, edi
  00127	e8 00 00 00 00	 call	 ?ShowWeaponItemMesh@ioBaseChar@@QAEX_N0@Z ; ioBaseChar::ShowWeaponItemMesh
$LN3@OnSkillSta:

; 193  : 	}
; 194  : 
; 195  : 	m_dwWeaponBaseIndex = pChar->IncreaseWeaponIndexBase();

  0012c	8b cf		 mov	 ecx, edi
  0012e	e8 00 00 00 00	 call	 ?IncreaseWeaponIndexBase@ioBaseChar@@QAEKXZ ; ioBaseChar::IncreaseWeaponIndexBase

; 196  : 	pChar->SetSkillProtection();

  00133	8b cf		 mov	 ecx, edi
  00135	89 43 78	 mov	 DWORD PTR [ebx+120], eax
  00138	e8 00 00 00 00	 call	 ?SetSkillProtection@ioBaseChar@@QAEXXZ ; ioBaseChar::SetSkillProtection

; 197  : 
; 198  : 	SetCameraBuff( pChar );

  0013d	57		 push	 edi
  0013e	8b cb		 mov	 ecx, ebx
  00140	e8 00 00 00 00	 call	 ?SetCameraBuff@ioSkill@@IAEXPAVioBaseChar@@@Z ; ioSkill::SetCameraBuff

; 199  : 
; 200  : 	CheckSkillDesc( pChar );

  00145	57		 push	 edi
  00146	8b cb		 mov	 ecx, ebx
  00148	e8 00 00 00 00	 call	 ?CheckSkillDesc@ioSkill@@IAEXPAVioBaseChar@@@Z ; ioSkill::CheckSkillDesc

; 201  : 
; 202  : 	if( m_bInitJumpPower )

  0014d	8d 45 0b	 lea	 eax, DWORD PTR _value$559238[ebp]
  00150	50		 push	 eax
  00151	8d 8b f4 05 00
	00		 lea	 ecx, DWORD PTR [ebx+1524]
  00157	e8 00 00 00 00	 call	 ?DecryptValueToPool@?$CEncrypt@_N@@QAEXPA_N@Z ; CEncrypt<bool>::DecryptValueToPool
  0015c	80 7d 0b 00	 cmp	 BYTE PTR _value$559238[ebp], 0
  00160	74 1f		 je	 SHORT $LN19@OnSkillSta

; 203  : 	{
; 204  : 		pChar->SetCurJumpPowerAmt( 0.0f );

  00162	0f 57 c0	 xorps	 xmm0, xmm0

; 205  : 		pChar->SetGravityAmt( 0.0f );

  00165	8d 45 08	 lea	 eax, DWORD PTR _value$559250[ebp]
  00168	50		 push	 eax
  00169	8d 8f e8 0b 00
	00		 lea	 ecx, DWORD PTR [edi+3048]
  0016f	f3 0f 11 87 90
	0e 00 00	 movss	 DWORD PTR [edi+3728], xmm0
  00177	f3 0f 11 45 08	 movss	 DWORD PTR _value$559250[ebp], xmm0
  0017c	e8 00 00 00 00	 call	 ?EncryptValueToPool@?$CEncrypt@M@@AAEXPBD@Z ; CEncrypt<float>::EncryptValueToPool
$LN19@OnSkillSta:

; 206  : 	}
; 207  : 
; 208  : 	if( !StartPreDelayAnimation( pChar ) )	// Delay Animation 

  00181	8b 03		 mov	 eax, DWORD PTR [ebx]
  00183	57		 push	 edi
  00184	8b cb		 mov	 ecx, ebx
  00186	ff 90 88 01 00
	00		 call	 DWORD PTR [eax+392]
  0018c	84 c0		 test	 al, al
  0018e	75 08		 jne	 SHORT $LN1@OnSkillSta

; 209  : 	{
; 210  : 		SetLoopState( pChar );

  00190	57		 push	 edi
  00191	8b cb		 mov	 ecx, ebx
  00193	e8 00 00 00 00	 call	 ?SetLoopState@ioChargingFireSkill4@@IAEXPAVioBaseChar@@@Z ; ioChargingFireSkill4::SetLoopState
$LN1@OnSkillSta:

; 211  : 	}
; 212  : 
; 213  : 	SetSkillNameChatBubble( pChar );

  00198	57		 push	 edi
  00199	8b cb		 mov	 ecx, ebx
  0019b	e8 00 00 00 00	 call	 ?SetSkillNameChatBubble@ioSkill@@IAEXPAVioBaseChar@@@Z ; ioSkill::SetSkillNameChatBubble
  001a0	5f		 pop	 edi

; 214  : 
; 215  : 	return true;

  001a1	b0 01		 mov	 al, 1
  001a3	5e		 pop	 esi
$LN7@OnSkillSta:
  001a4	5b		 pop	 ebx

; 216  : }

  001a5	5d		 pop	 ebp
  001a6	c2 04 00	 ret	 4
?OnSkillStart@ioChargingFireSkill4@@UAE_NPAVioBaseChar@@@Z ENDP ; ioChargingFireSkill4::OnSkillStart
_TEXT	ENDS
PUBLIC	__$ArrayPad$
PUBLIC	?ApplyAttributeToWeapon@ioChargingFireSkill4@@UAEXPAVioWeapon@@PAVioPlayStage@@@Z ; ioChargingFireSkill4::ApplyAttributeToWeapon
EXTRN	?SetZoneValue@ioZoneEffectWeapon@@QAEX_N0@Z:PROC ; ioZoneEffectWeapon::SetZoneValue
EXTRN	?SetCollisionDir@ioZoneEffectWeapon@@QAEXAAUD3DXVECTOR3@@@Z:PROC ; ioZoneEffectWeapon::SetCollisionDir
EXTRN	?GetOwner@ioWeapon@@QBEPAVioBaseChar@@XZ:PROC	; ioWeapon::GetOwner
EXTRN	?ApplyAttributeToWeapon@ioSkill@@UAEXPAVioWeapon@@PAVioPlayStage@@@Z:PROC ; ioSkill::ApplyAttributeToWeapon
; Function compile flags: /Ogsp
;	COMDAT ?ApplyAttributeToWeapon@ioChargingFireSkill4@@UAEXPAVioWeapon@@PAVioPlayStage@@@Z
_TEXT	SEGMENT
tv238 = -48						; size = 4
_pZone$ = -44						; size = 4
_vDir$548545 = -40					; size = 12
$T548547 = -28						; size = 12
_vAimedDir$ = -16					; size = 12
__$ArrayPad$ = -4					; size = 4
_pWeapon$ = 8						; size = 4
_pStage$ = 12						; size = 4
?ApplyAttributeToWeapon@ioChargingFireSkill4@@UAEXPAVioWeapon@@PAVioPlayStage@@@Z PROC ; ioChargingFireSkill4::ApplyAttributeToWeapon, COMDAT
; _this$ = ecx

; 655  : {

  00000	55		 push	 ebp
  00001	8b ec		 mov	 ebp, esp
  00003	83 ec 30	 sub	 esp, 48			; 00000030H
  00006	a1 00 00 00 00	 mov	 eax, DWORD PTR ___security_cookie
  0000b	33 c5		 xor	 eax, ebp
  0000d	89 45 fc	 mov	 DWORD PTR __$ArrayPad$[ebp], eax
  00010	8b 45 0c	 mov	 eax, DWORD PTR _pStage$[ebp]
  00013	53		 push	 ebx
  00014	56		 push	 esi
  00015	8b 75 08	 mov	 esi, DWORD PTR _pWeapon$[ebp]
  00018	57		 push	 edi

; 656  : 	ioSkill::ApplyAttributeToWeapon( pWeapon, pStage );

  00019	50		 push	 eax
  0001a	56		 push	 esi
  0001b	8b f9		 mov	 edi, ecx
  0001d	e8 00 00 00 00	 call	 ?ApplyAttributeToWeapon@ioSkill@@UAEXPAVioWeapon@@PAVioPlayStage@@@Z ; ioSkill::ApplyAttributeToWeapon

; 657  : 
; 658  : 	ioBaseChar *pChar = pWeapon->GetOwner();

  00022	8b ce		 mov	 ecx, esi
  00024	e8 00 00 00 00	 call	 ?GetOwner@ioWeapon@@QBEPAVioBaseChar@@XZ ; ioWeapon::GetOwner

; 659  : 	ioZoneEffectWeapon *pZone = ToZoneEffectWeapon( pWeapon );

  00029	56		 push	 esi
  0002a	8b d8		 mov	 ebx, eax
  0002c	e8 00 00 00 00	 call	 ?ToZoneEffectWeapon@@YAPAVioZoneEffectWeapon@@PAVioWeapon@@@Z ; ToZoneEffectWeapon
  00031	59		 pop	 ecx

; 660  : 
; 661  : 	D3DXVECTOR3 vAimedDir = ReCalcMoveDir( pWeapon->GetOwner(), pWeapon );

  00032	56		 push	 esi
  00033	8b ce		 mov	 ecx, esi
  00035	89 45 d4	 mov	 DWORD PTR _pZone$[ebp], eax
  00038	e8 00 00 00 00	 call	 ?GetOwner@ioWeapon@@QBEPAVioBaseChar@@XZ ; ioWeapon::GetOwner
  0003d	50		 push	 eax
  0003e	8d 45 f0	 lea	 eax, DWORD PTR _vAimedDir$[ebp]
  00041	50		 push	 eax
  00042	8b cf		 mov	 ecx, edi
  00044	e8 00 00 00 00	 call	 ?ReCalcMoveDir@ioChargingFireSkill4@@IAE?AUD3DXVECTOR3@@PAVioBaseChar@@PAVioWeapon@@@Z ; ioChargingFireSkill4::ReCalcMoveDir

; 662  : 	if( vAimedDir != ioMath::VEC3_ZERO )

  00049	8b 0d 00 00 00
	00		 mov	 ecx, DWORD PTR __imp_?VEC3_ZERO@ioMath@@2UD3DXVECTOR3@@A
  0004f	f3 0f 10 45 f0	 movss	 xmm0, DWORD PTR _vAimedDir$[ebp]
  00054	f3 0f 10 09	 movss	 xmm1, DWORD PTR [ecx]
  00058	0f 5a c0	 cvtps2pd xmm0, xmm0
  0005b	0f 5a c9	 cvtps2pd xmm1, xmm1
  0005e	66 0f 2e c1	 ucomisd xmm0, xmm1
  00062	9f		 lahf
  00063	f6 c4 44	 test	 ah, 68			; 00000044H
  00066	7a 34		 jp	 SHORT $LN8@ApplyAttri
  00068	f3 0f 10 45 f4	 movss	 xmm0, DWORD PTR _vAimedDir$[ebp+4]
  0006d	f3 0f 10 49 04	 movss	 xmm1, DWORD PTR [ecx+4]
  00072	0f 5a c0	 cvtps2pd xmm0, xmm0
  00075	0f 5a c9	 cvtps2pd xmm1, xmm1
  00078	66 0f 2e c1	 ucomisd xmm0, xmm1
  0007c	9f		 lahf
  0007d	f6 c4 44	 test	 ah, 68			; 00000044H
  00080	7a 1a		 jp	 SHORT $LN8@ApplyAttri
  00082	f3 0f 10 45 f8	 movss	 xmm0, DWORD PTR _vAimedDir$[ebp+8]
  00087	f3 0f 10 49 08	 movss	 xmm1, DWORD PTR [ecx+8]
  0008c	0f 5a c0	 cvtps2pd xmm0, xmm0
  0008f	0f 5a c9	 cvtps2pd xmm1, xmm1
  00092	66 0f 2e c1	 ucomisd xmm0, xmm1
  00096	9f		 lahf
  00097	f6 c4 44	 test	 ah, 68			; 00000044H
  0009a	7b 0e		 jnp	 SHORT $LN3@ApplyAttri
$LN8@ApplyAttri:

; 663  : 		pWeapon->SetMoveDir( vAimedDir );

  0009c	8b 06		 mov	 eax, DWORD PTR [esi]
  0009e	8d 4d f0	 lea	 ecx, DWORD PTR _vAimedDir$[ebp]
  000a1	51		 push	 ecx
  000a2	8b ce		 mov	 ecx, esi
  000a4	ff 90 b0 00 00
	00		 call	 DWORD PTR [eax+176]
$LN3@ApplyAttri:

; 664  : 
; 665  : 	if( pZone )

  000aa	83 7d d4 00	 cmp	 DWORD PTR _pZone$[ebp], 0
  000ae	74 5b		 je	 SHORT $LN1@ApplyAttri

; 666  : 	{
; 667  : 		if( pChar )

  000b0	85 db		 test	 ebx, ebx
  000b2	74 57		 je	 SHORT $LN1@ApplyAttri

; 668  : 		{
; 669  : 			D3DXVECTOR3 vDir = pChar->GetTargetRot() * D3DXVECTOR3( 0.0f, 0.0f, -FLOAT1 );

  000b4	b8 01 00 00 00	 mov	 eax, 1
  000b9	0f 57 c0	 xorps	 xmm0, xmm0
  000bc	89 45 d0	 mov	 DWORD PTR tv238[ebp], eax
  000bf	db 45 d0	 fild	 DWORD PTR tv238[ebp]
  000c2	f3 0f 11 45 e4	 movss	 DWORD PTR $T548547[ebp], xmm0
  000c7	f3 0f 11 45 e8	 movss	 DWORD PTR $T548547[ebp+4], xmm0
  000cc	85 c0		 test	 eax, eax
  000ce	79 06		 jns	 SHORT $LN16@ApplyAttri
  000d0	d8 05 00 00 00
	00		 fadd	 DWORD PTR __real@4f800000
$LN16@ApplyAttri:
  000d6	8d 45 e4	 lea	 eax, DWORD PTR $T548547[ebp]
  000d9	d9 e0		 fchs
  000db	50		 push	 eax
  000dc	d9 5d ec	 fstp	 DWORD PTR $T548547[ebp+8]
  000df	81 c3 a4 06 00
	00		 add	 ebx, 1700		; 000006a4H
  000e5	8d 45 d8	 lea	 eax, DWORD PTR _vDir$548545[ebp]
  000e8	53		 push	 ebx
  000e9	50		 push	 eax
  000ea	ff 15 00 00 00
	00		 call	 DWORD PTR __imp_??D@YA?AUD3DXVECTOR3@@ABUD3DXQUATERNION@@ABU0@@Z

; 670  : 			pZone->SetCollisionDir( vDir );

  000f0	8b 4d d4	 mov	 ecx, DWORD PTR _pZone$[ebp]
  000f3	83 c4 0c	 add	 esp, 12			; 0000000cH
  000f6	8d 45 d8	 lea	 eax, DWORD PTR _vDir$548545[ebp]
  000f9	50		 push	 eax
  000fa	e8 00 00 00 00	 call	 ?SetCollisionDir@ioZoneEffectWeapon@@QAEXAAUD3DXVECTOR3@@@Z ; ioZoneEffectWeapon::SetCollisionDir

; 671  : 			pZone->SetZoneValue( false, true );

  000ff	8b 4d d4	 mov	 ecx, DWORD PTR _pZone$[ebp]
  00102	6a 01		 push	 1
  00104	6a 00		 push	 0
  00106	e8 00 00 00 00	 call	 ?SetZoneValue@ioZoneEffectWeapon@@QAEX_N0@Z ; ioZoneEffectWeapon::SetZoneValue
$LN1@ApplyAttri:

; 672  : 		}
; 673  : 	}
; 674  : }

  0010b	8b 4d fc	 mov	 ecx, DWORD PTR __$ArrayPad$[ebp]
  0010e	5f		 pop	 edi
  0010f	5e		 pop	 esi
  00110	33 cd		 xor	 ecx, ebp
  00112	5b		 pop	 ebx
  00113	e8 00 00 00 00	 call	 @__security_check_cookie@4
  00118	c9		 leave
  00119	c2 08 00	 ret	 8
?ApplyAttributeToWeapon@ioChargingFireSkill4@@UAEXPAVioWeapon@@PAVioPlayStage@@@Z ENDP ; ioChargingFireSkill4::ApplyAttributeToWeapon
_TEXT	ENDS
PUBLIC	__$ArrayPad$
PUBLIC	?SetAimedState@ioChargingFireSkill4@@IAEXPAVioBaseChar@@ABVioHashString@@@Z ; ioChargingFireSkill4::SetAimedState
EXTRN	__imp_??4ioHashString@@QAEAAV0@ABV0@@Z:PROC
;	COMDAT xdata$x
; File d:\lost saga for developer\youtube\tutorial\source\src\lsclient\iobasechar.h
xdata$x	SEGMENT
__unwindtable$?SetAimedState@ioChargingFireSkill4@@IAEXPAVioBaseChar@@ABVioHashString@@@Z DD 0ffffffffH
	DD	FLAT:__unwindfunclet$?SetAimedState@ioChargingFireSkill4@@IAEXPAVioBaseChar@@ABVioHashString@@@Z$0
__ehfuncinfo$?SetAimedState@ioChargingFireSkill4@@IAEXPAVioBaseChar@@ABVioHashString@@@Z DD 019930522H
	DD	01H
	DD	FLAT:__unwindtable$?SetAimedState@ioChargingFireSkill4@@IAEXPAVioBaseChar@@ABVioHashString@@@Z
	DD	2 DUP(00H)
	DD	2 DUP(00H)
	DD	00H
	DD	01H
; Function compile flags: /Ogsp
; File d:\lost saga for developer\youtube\tutorial\source\src\lsclient\iochargingfireskill4.cpp
xdata$x	ENDS
;	COMDAT ?SetAimedState@ioChargingFireSkill4@@IAEXPAVioBaseChar@@ABVioHashString@@@Z
_TEXT	SEGMENT
_kPacket$548601 = -32808				; size = 32792
__$ArrayPad$ = -16					; size = 4
__$EHRec$ = -12						; size = 12
_pChar$ = 8						; size = 4
_szTarget$ = 12						; size = 4
?SetAimedState@ioChargingFireSkill4@@IAEXPAVioBaseChar@@ABVioHashString@@@Z PROC ; ioChargingFireSkill4::SetAimedState, COMDAT
; _this$ = ecx

; 792  : {

  00000	55		 push	 ebp
  00001	8b ec		 mov	 ebp, esp
  00003	6a ff		 push	 -1
  00005	68 00 00 00 00	 push	 __ehhandler$?SetAimedState@ioChargingFireSkill4@@IAEXPAVioBaseChar@@ABVioHashString@@@Z
  0000a	64 a1 00 00 00
	00		 mov	 eax, DWORD PTR fs:0
  00010	50		 push	 eax
  00011	b8 1c 80 00 00	 mov	 eax, 32796		; 0000801cH
  00016	e8 00 00 00 00	 call	 __chkstk
  0001b	a1 00 00 00 00	 mov	 eax, DWORD PTR ___security_cookie
  00020	33 c5		 xor	 eax, ebp
  00022	89 45 f0	 mov	 DWORD PTR __$ArrayPad$[ebp], eax
  00025	53		 push	 ebx
  00026	56		 push	 esi
  00027	57		 push	 edi
  00028	50		 push	 eax
  00029	8d 45 f4	 lea	 eax, DWORD PTR __$EHRec$[ebp]
  0002c	64 a3 00 00 00
	00		 mov	 DWORD PTR fs:0, eax
  00032	8b 75 08	 mov	 esi, DWORD PTR _pChar$[ebp]
  00035	8b 45 0c	 mov	 eax, DWORD PTR _szTarget$[ebp]
  00038	8b f9		 mov	 edi, ecx

; 793  : 	if( !pChar ) return;

  0003a	85 f6		 test	 esi, esi
  0003c	0f 84 01 01 00
	00		 je	 $LN1@SetAimedSt

; 794  : 
; 795  : 	m_LoopAimState = LAS_AIMED;
; 796  : 	m_szTargetName = szTarget;

  00042	8d 9f 48 10 00
	00		 lea	 ebx, DWORD PTR [edi+4168]
  00048	50		 push	 eax
  00049	8b cb		 mov	 ecx, ebx
  0004b	c7 87 88 0f 00
	00 02 00 00 00	 mov	 DWORD PTR [edi+3976], 2
  00055	ff 15 00 00 00
	00		 call	 DWORD PTR __imp_??4ioHashString@@QAEAAV0@ABV0@@Z

; 797  : 
; 798  : 	// change marker state...
; 799  : 	pChar->SetTargetMarkerTarget( m_szTargetName, false, TT_OTHER );

  0005b	6a 01		 push	 1
  0005d	6a 00		 push	 0
  0005f	8d 8e cc 01 00
	00		 lea	 ecx, DWORD PTR [esi+460]
  00065	53		 push	 ebx
  00066	e8 00 00 00 00	 call	 ?SetTargetMarkerTarget@ioBaseGUISupport@@QAEXABVioHashString@@_NW4TargetedType@@@Z ; ioBaseGUISupport::SetTargetMarkerTarget

; 800  : 	pChar->SetTargetMarkerState( ioTargetMarker::MS_AIMED, TT_OTHER );

  0006b	6a 01		 push	 1
  0006d	6a 03		 push	 3
  0006f	8d 8e cc 01 00
	00		 lea	 ecx, DWORD PTR [esi+460]
  00075	e8 00 00 00 00	 call	 ?SetTargetMarkerState@ioBaseGUISupport@@QAEXW4MarkerState@ioTargetMarker@@W4TargetedType@@@Z ; ioBaseGUISupport::SetTargetMarkerState

; 801  : 
; 802  : 	if( CheckTargetValidate( pChar ) )

  0007a	56		 push	 esi
  0007b	8b cf		 mov	 ecx, edi
  0007d	e8 00 00 00 00	 call	 ?CheckTargetValidate@ioChargingFireSkill4@@IAE_NPAVioBaseChar@@@Z ; ioChargingFireSkill4::CheckTargetValidate
  00082	84 c0		 test	 al, al
  00084	74 08		 je	 SHORT $LN2@SetAimedSt

; 803  : 	{
; 804  : 		TarckingTarget( pChar );

  00086	56		 push	 esi
  00087	8b cf		 mov	 ecx, edi
  00089	e8 00 00 00 00	 call	 ?TarckingTarget@ioChargingFireSkill4@@IAEXPAVioBaseChar@@@Z ; ioChargingFireSkill4::TarckingTarget
$LN2@SetAimedSt:

; 805  : 	}
; 806  : 
; 807  : 	if( pChar->IsNeedSendNetwork() )

  0008e	8b 06		 mov	 eax, DWORD PTR [esi]
  00090	8b ce		 mov	 ecx, esi
  00092	ff 90 04 01 00
	00		 call	 DWORD PTR [eax+260]
  00098	84 c0		 test	 al, al
  0009a	0f 84 a3 00 00
	00		 je	 $LN1@SetAimedSt

; 808  : 	{
; 809  : 		SP2Packet kPacket( CUPK_SKILL_EXTRA_INFO );

  000a0	68 39 41 00 00	 push	 16697			; 00004139H
  000a5	8d 8d d8 7f ff
	ff		 lea	 ecx, DWORD PTR _kPacket$548601[ebp]
  000ab	e8 00 00 00 00	 call	 ??0SP2Packet@@QAE@K@Z	; SP2Packet::SP2Packet
  000b0	83 65 fc 00	 and	 DWORD PTR __$EHRec$[ebp+8], 0

; 810  : 		kPacket << pChar->GetCharName();

  000b4	8d 86 d4 02 00
	00		 lea	 eax, DWORD PTR [esi+724]
  000ba	50		 push	 eax
  000bb	8d 8d d8 7f ff
	ff		 lea	 ecx, DWORD PTR _kPacket$548601[ebp]
  000c1	e8 00 00 00 00	 call	 ??6SP2Packet@@QAEAAV0@ABVioHashString@@@Z ; SP2Packet::operator<<

; 811  : 		kPacket << GetName();

  000c6	8d 47 24	 lea	 eax, DWORD PTR [edi+36]
  000c9	50		 push	 eax
  000ca	8d 8d d8 7f ff
	ff		 lea	 ecx, DWORD PTR _kPacket$548601[ebp]
  000d0	e8 00 00 00 00	 call	 ??6SP2Packet@@QAEAAV0@ABVioHashString@@@Z ; SP2Packet::operator<<

; 812  : 		kPacket << SSC_LOOP;

  000d5	6a 00		 push	 0
  000d7	8d 8d d8 7f ff
	ff		 lea	 ecx, DWORD PTR _kPacket$548601[ebp]
  000dd	e8 00 00 00 00	 call	 ??6SP2Packet@@QAEAAV0@H@Z ; SP2Packet::operator<<

; 813  : 		kPacket << m_LoopAimState;

  000e2	ff b7 88 0f 00
	00		 push	 DWORD PTR [edi+3976]
  000e8	8d 8d d8 7f ff
	ff		 lea	 ecx, DWORD PTR _kPacket$548601[ebp]
  000ee	e8 00 00 00 00	 call	 ??6SP2Packet@@QAEAAV0@H@Z ; SP2Packet::operator<<

; 814  : 		kPacket << pChar->GetWorldPosition();

  000f3	8b 06		 mov	 eax, DWORD PTR [esi]
  000f5	8b ce		 mov	 ecx, esi
  000f7	ff 50 70	 call	 DWORD PTR [eax+112]
  000fa	50		 push	 eax
  000fb	8d 8d d8 7f ff
	ff		 lea	 ecx, DWORD PTR _kPacket$548601[ebp]
  00101	e8 00 00 00 00	 call	 ??6SP2Packet@@QAEAAV0@ABUD3DXVECTOR3@@@Z ; SP2Packet::operator<<

; 815  : 		kPacket << pChar->GetTargetRot();

  00106	81 c6 a4 06 00
	00		 add	 esi, 1700		; 000006a4H
  0010c	56		 push	 esi
  0010d	8d 8d d8 7f ff
	ff		 lea	 ecx, DWORD PTR _kPacket$548601[ebp]
  00113	e8 00 00 00 00	 call	 ??6SP2Packet@@QAEAAV0@ABUD3DXQUATERNION@@@Z ; SP2Packet::operator<<

; 816  : 		kPacket << m_szTargetName;

  00118	53		 push	 ebx
  00119	8d 8d d8 7f ff
	ff		 lea	 ecx, DWORD PTR _kPacket$548601[ebp]
  0011f	e8 00 00 00 00	 call	 ??6SP2Packet@@QAEAAV0@ABVioHashString@@@Z ; SP2Packet::operator<<

; 817  : 		P2PNetwork::SendToAllPlayingUser( kPacket );

  00124	8d 85 d8 7f ff
	ff		 lea	 eax, DWORD PTR _kPacket$548601[ebp]
  0012a	6a 00		 push	 0
  0012c	50		 push	 eax
  0012d	e8 00 00 00 00	 call	 ?SendToAllPlayingUser@P2PNetwork@@YAXAAVSP2Packet@@PAVioBaseChar@@@Z ; P2PNetwork::SendToAllPlayingUser

; 818  : 	}

  00132	83 4d fc ff	 or	 DWORD PTR __$EHRec$[ebp+8], -1
  00136	59		 pop	 ecx
  00137	59		 pop	 ecx
  00138	8d 8d d8 7f ff
	ff		 lea	 ecx, DWORD PTR _kPacket$548601[ebp]
  0013e	e8 00 00 00 00	 call	 ??1SP2Packet@@UAE@XZ	; SP2Packet::~SP2Packet
$LN1@SetAimedSt:

; 819  : }

  00143	8b 4d f4	 mov	 ecx, DWORD PTR __$EHRec$[ebp]
  00146	64 89 0d 00 00
	00 00		 mov	 DWORD PTR fs:0, ecx
  0014d	59		 pop	 ecx
  0014e	5f		 pop	 edi
  0014f	5e		 pop	 esi
  00150	5b		 pop	 ebx
  00151	8b 4d f0	 mov	 ecx, DWORD PTR __$ArrayPad$[ebp]
  00154	33 cd		 xor	 ecx, ebp
  00156	e8 00 00 00 00	 call	 @__security_check_cookie@4
  0015b	c9		 leave
  0015c	c2 08 00	 ret	 8
_TEXT	ENDS
;	COMDAT text$x
text$x	SEGMENT
__unwindfunclet$?SetAimedState@ioChargingFireSkill4@@IAEXPAVioBaseChar@@ABVioHashString@@@Z$0:
  00000	8d 8d d8 7f ff
	ff		 lea	 ecx, DWORD PTR _kPacket$548601[ebp]
  00006	e9 00 00 00 00	 jmp	 ??1SP2Packet@@UAE@XZ	; SP2Packet::~SP2Packet
__ehhandler$?SetAimedState@ioChargingFireSkill4@@IAEXPAVioBaseChar@@ABVioHashString@@@Z:
  0000b	8b 54 24 08	 mov	 edx, DWORD PTR [esp+8]
  0000f	8d 42 0c	 lea	 eax, DWORD PTR [edx+12]
  00012	8b 8a d4 7f ff
	ff		 mov	 ecx, DWORD PTR [edx-32812]
  00018	33 c8		 xor	 ecx, eax
  0001a	e8 00 00 00 00	 call	 @__security_check_cookie@4
  0001f	8b 4a fc	 mov	 ecx, DWORD PTR [edx-4]
  00022	33 c8		 xor	 ecx, eax
  00024	e8 00 00 00 00	 call	 @__security_check_cookie@4
  00029	b8 00 00 00 00	 mov	 eax, OFFSET __ehfuncinfo$?SetAimedState@ioChargingFireSkill4@@IAEXPAVioBaseChar@@ABVioHashString@@@Z
  0002e	e9 00 00 00 00	 jmp	 ___CxxFrameHandler3
text$x	ENDS
?SetAimedState@ioChargingFireSkill4@@IAEXPAVioBaseChar@@ABVioHashString@@@Z ENDP ; ioChargingFireSkill4::SetAimedState
PUBLIC	?CheckAimedState@ioChargingFireSkill4@@IAEXPAVioBaseChar@@PAVioPlayStage@@@Z ; ioChargingFireSkill4::CheckAimedState
EXTRN	?CheckAimedTarget@ioBaseChar@@QAE_NMMMAAVioHashString@@_N1@Z:PROC ; ioBaseChar::CheckAimedTarget
EXTRN	__imp_??0ioHashString@@QAE@XZ:PROC
;	COMDAT xdata$x
; File d:\lost saga for developer\youtube\tutorial\source\src\lsclient\encryptvalue.h
xdata$x	SEGMENT
__unwindtable$?CheckAimedState@ioChargingFireSkill4@@IAEXPAVioBaseChar@@PAVioPlayStage@@@Z DD 0ffffffffH
	DD	FLAT:__unwindfunclet$?CheckAimedState@ioChargingFireSkill4@@IAEXPAVioBaseChar@@PAVioPlayStage@@@Z$0
__ehfuncinfo$?CheckAimedState@ioChargingFireSkill4@@IAEXPAVioBaseChar@@PAVioPlayStage@@@Z DD 019930522H
	DD	01H
	DD	FLAT:__unwindtable$?CheckAimedState@ioChargingFireSkill4@@IAEXPAVioBaseChar@@PAVioPlayStage@@@Z
	DD	2 DUP(00H)
	DD	2 DUP(00H)
	DD	00H
	DD	01H
; Function compile flags: /Ogsp
; File d:\lost saga for developer\youtube\tutorial\source\src\lsclient\iochargingfireskill4.cpp
xdata$x	ENDS
;	COMDAT ?CheckAimedState@ioChargingFireSkill4@@IAEXPAVioBaseChar@@PAVioPlayStage@@@Z
_TEXT	SEGMENT
_szTarget$548665 = -40					; size = 16
_value$559324 = -24					; size = 4
_value$559319 = -20					; size = 4
_value$559314 = -16					; size = 4
__$EHRec$ = -12						; size = 12
_value$559309 = 8					; size = 1
_value$559305 = 8					; size = 4
_pChar$ = 8						; size = 4
_pStage$ = 12						; size = 4
?CheckAimedState@ioChargingFireSkill4@@IAEXPAVioBaseChar@@PAVioPlayStage@@@Z PROC ; ioChargingFireSkill4::CheckAimedState, COMDAT
; _this$ = ecx

; 893  : {

  00000	6a 1c		 push	 28			; 0000001cH
  00002	b8 00 00 00 00	 mov	 eax, __ehhandler$?CheckAimedState@ioChargingFireSkill4@@IAEXPAVioBaseChar@@PAVioPlayStage@@@Z
  00007	e8 00 00 00 00	 call	 __EH_prolog3
  0000c	8b f1		 mov	 esi, ecx

; 894  : 	if( !pChar ) return;

  0000e	8b 7d 08	 mov	 edi, DWORD PTR _pChar$[ebp]
  00011	85 ff		 test	 edi, edi
  00013	0f 84 f5 00 00
	00		 je	 $LN3@CheckAimed

; 895  : 	if( !pChar->IsNeedProcess() )

  00019	8b 07		 mov	 eax, DWORD PTR [edi]
  0001b	8b cf		 mov	 ecx, edi
  0001d	ff 90 00 01 00
	00		 call	 DWORD PTR [eax+256]
  00023	84 c0		 test	 al, al
  00025	0f 84 e3 00 00
	00		 je	 $LN3@CheckAimed

; 896  : 		return;
; 897  : 
; 898  : 	if( m_dwAimStartTime == 0 )

  0002b	83 be 58 10 00
	00 00		 cmp	 DWORD PTR [esi+4184], 0
  00032	0f 84 d6 00 00
	00		 je	 $LN3@CheckAimed

; 899  : 		return;
; 900  : 
; 901  : 	DWORD dwCurTime = FRAMEGETTIME();

  00038	ff 15 00 00 00
	00		 call	 DWORD PTR __imp_?GetSingleton@ioFrameTimer@@SAAAV1@XZ
  0003e	8b c8		 mov	 ecx, eax
  00040	ff 15 00 00 00
	00		 call	 DWORD PTR __imp_?GetLoopSec@ioFrameTimer@@QBEKXZ
  00046	8b d8		 mov	 ebx, eax

; 902  : 
; 903  : 	if( m_dwAimStartTime + m_dwAimTime < dwCurTime )

  00048	8d 45 08	 lea	 eax, DWORD PTR _value$559305[ebp]
  0004b	50		 push	 eax
  0004c	8d 8e 5c 10 00
	00		 lea	 ecx, DWORD PTR [esi+4188]
  00052	e8 00 00 00 00	 call	 ?DecryptValueToPool@?$CEncrypt@K@@QAEXPAK@Z ; CEncrypt<unsigned long>::DecryptValueToPool
  00057	8b 86 58 10 00
	00		 mov	 eax, DWORD PTR [esi+4184]
  0005d	03 45 08	 add	 eax, DWORD PTR _value$559305[ebp]
  00060	3b c3		 cmp	 eax, ebx
  00062	0f 83 a6 00 00
	00		 jae	 $LN3@CheckAimed

; 904  : 	{
; 905  : 		ioHashString szTarget;

  00068	8d 4d d8	 lea	 ecx, DWORD PTR _szTarget$548665[ebp]
  0006b	ff 15 00 00 00
	00		 call	 DWORD PTR __imp_??0ioHashString@@QAE@XZ
  00071	83 65 fc 00	 and	 DWORD PTR __$EHRec$[ebp+8], 0

; 906  : 		if( pChar->CheckAimedTarget( m_fAimAngle, m_fAimMinRange, m_fAimMaxRange, szTarget, m_bEnableDownAim ) )

  00075	8d 45 08	 lea	 eax, DWORD PTR _value$559309[ebp]
  00078	50		 push	 eax
  00079	8d 8e 10 10 00
	00		 lea	 ecx, DWORD PTR [esi+4112]
  0007f	e8 00 00 00 00	 call	 ?DecryptValueToPool@?$CEncrypt@_N@@QAEXPA_N@Z ; CEncrypt<bool>::DecryptValueToPool
  00084	8d 45 f0	 lea	 eax, DWORD PTR _value$559314[ebp]
  00087	50		 push	 eax
  00088	8d 8e bc 10 00
	00		 lea	 ecx, DWORD PTR [esi+4284]
  0008e	e8 00 00 00 00	 call	 ?DecryptValueToPool@?$CEncrypt@M@@QAEXPAM@Z ; CEncrypt<float>::DecryptValueToPool
  00093	8d 45 ec	 lea	 eax, DWORD PTR _value$559319[ebp]
  00096	50		 push	 eax
  00097	8d 8e 8c 10 00
	00		 lea	 ecx, DWORD PTR [esi+4236]
  0009d	e8 00 00 00 00	 call	 ?DecryptValueToPool@?$CEncrypt@M@@QAEXPAM@Z ; CEncrypt<float>::DecryptValueToPool
  000a2	8d 45 e8	 lea	 eax, DWORD PTR _value$559324[ebp]
  000a5	50		 push	 eax
  000a6	8d 8e ec 10 00
	00		 lea	 ecx, DWORD PTR [esi+4332]
  000ac	e8 00 00 00 00	 call	 ?DecryptValueToPool@?$CEncrypt@M@@QAEXPAM@Z ; CEncrypt<float>::DecryptValueToPool
  000b1	f3 0f 10 45 f0	 movss	 xmm0, DWORD PTR _value$559314[ebp]
  000b6	6a 01		 push	 1
  000b8	ff 75 08	 push	 DWORD PTR _value$559309[ebp]
  000bb	8d 45 d8	 lea	 eax, DWORD PTR _szTarget$548665[ebp]
  000be	50		 push	 eax
  000bf	83 ec 0c	 sub	 esp, 12			; 0000000cH
  000c2	f3 0f 11 44 24
	08		 movss	 DWORD PTR [esp+8], xmm0
  000c8	f3 0f 10 45 ec	 movss	 xmm0, DWORD PTR _value$559319[ebp]
  000cd	f3 0f 11 44 24
	04		 movss	 DWORD PTR [esp+4], xmm0
  000d3	f3 0f 10 45 e8	 movss	 xmm0, DWORD PTR _value$559324[ebp]
  000d8	8b cf		 mov	 ecx, edi
  000da	f3 0f 11 04 24	 movss	 DWORD PTR [esp], xmm0
  000df	e8 00 00 00 00	 call	 ?CheckAimedTarget@ioBaseChar@@QAE_NMMMAAVioHashString@@_N1@Z ; ioBaseChar::CheckAimedTarget

; 907  : 		{
; 908  : 			if( !szTarget.IsEmpty() )

  000e4	8d 4d d8	 lea	 ecx, DWORD PTR _szTarget$548665[ebp]
  000e7	84 c0		 test	 al, al
  000e9	74 19		 je	 SHORT $LN2@CheckAimed
  000eb	ff 15 00 00 00
	00		 call	 DWORD PTR __imp_?IsEmpty@ioHashString@@QBE_NXZ
  000f1	84 c0		 test	 al, al
  000f3	75 0c		 jne	 SHORT $LN1@CheckAimed

; 909  : 				SetAimedState( pChar, szTarget );

  000f5	8d 45 d8	 lea	 eax, DWORD PTR _szTarget$548665[ebp]
  000f8	50		 push	 eax
  000f9	57		 push	 edi
  000fa	8b ce		 mov	 ecx, esi
  000fc	e8 00 00 00 00	 call	 ?SetAimedState@ioChargingFireSkill4@@IAEXPAVioBaseChar@@ABVioHashString@@@Z ; ioChargingFireSkill4::SetAimedState
$LN1@CheckAimed:

; 910  : 
; 911  : 			return;

  00101	8d 4d d8	 lea	 ecx, DWORD PTR _szTarget$548665[ebp]
$LN2@CheckAimed:

; 912  : 		}
; 913  : 	}

  00104	83 4d fc ff	 or	 DWORD PTR __$EHRec$[ebp+8], -1
  00108	ff 15 00 00 00
	00		 call	 DWORD PTR __imp_??1ioHashString@@QAE@XZ
$LN3@CheckAimed:

; 914  : }

  0010e	e8 00 00 00 00	 call	 __EH_epilog3
  00113	c2 08 00	 ret	 8
_TEXT	ENDS
;	COMDAT text$x
text$x	SEGMENT
__unwindfunclet$?CheckAimedState@ioChargingFireSkill4@@IAEXPAVioBaseChar@@PAVioPlayStage@@@Z$0:
  00000	8d 4d d8	 lea	 ecx, DWORD PTR _szTarget$548665[ebp]
  00003	ff 25 00 00 00
	00		 jmp	 DWORD PTR __imp_??1ioHashString@@QAE@XZ
__ehhandler$?CheckAimedState@ioChargingFireSkill4@@IAEXPAVioBaseChar@@PAVioPlayStage@@@Z:
  00009	8b 54 24 08	 mov	 edx, DWORD PTR [esp+8]
  0000d	8d 42 0c	 lea	 eax, DWORD PTR [edx+12]
  00010	8b 4a d4	 mov	 ecx, DWORD PTR [edx-44]
  00013	33 c8		 xor	 ecx, eax
  00015	e8 00 00 00 00	 call	 @__security_check_cookie@4
  0001a	b8 00 00 00 00	 mov	 eax, OFFSET __ehfuncinfo$?CheckAimedState@ioChargingFireSkill4@@IAEXPAVioBaseChar@@PAVioPlayStage@@@Z
  0001f	e9 00 00 00 00	 jmp	 ___CxxFrameHandler3
text$x	ENDS
?CheckAimedState@ioChargingFireSkill4@@IAEXPAVioBaseChar@@PAVioPlayStage@@@Z ENDP ; ioChargingFireSkill4::CheckAimedState
PUBLIC	??$_Uninitialized_copy@V?$_Vector_const_iterator@V?$_Vector_val@UForceInfo@@V?$allocator@UForceInfo@@@std@@@std@@@std@@PAUForceInfo@@V?$allocator@UForceInfo@@@2@@std@@YAPAUForceInfo@@V?$_Vector_const_iterator@V?$_Vector_val@UForceInfo@@V?$allocator@UForceInfo@@@std@@@std@@@0@0PAU1@AAV?$allocator@UForceInfo@@@0@@Z ; std::_Uninitialized_copy<std::_Vector_const_iterator<std::_Vector_val<ForceInfo,std::allocator<ForceInfo> > >,ForceInfo *,std::allocator<ForceInfo> >
; Function compile flags: /Ogsp
; File c:\program files (x86)\microsoft visual studio 10.0\vc\include\memory
;	COMDAT ??$_Uninitialized_copy@V?$_Vector_const_iterator@V?$_Vector_val@UForceInfo@@V?$allocator@UForceInfo@@@std@@@std@@@std@@PAUForceInfo@@V?$allocator@UForceInfo@@@2@@std@@YAPAUForceInfo@@V?$_Vector_const_iterator@V?$_Vector_val@UForceInfo@@V?$allocator@UForceInfo@@@std@@@std@@@0@0PAU1@AAV?$allocator@UForceInfo@@@0@@Z
_TEXT	SEGMENT
__Cat$559338 = -4					; size = 1
__First$ = 8						; size = 4
__Last$ = 12						; size = 4
__Dest$ = 16						; size = 4
__Al$ = 20						; size = 4
??$_Uninitialized_copy@V?$_Vector_const_iterator@V?$_Vector_val@UForceInfo@@V?$allocator@UForceInfo@@@std@@@std@@@std@@PAUForceInfo@@V?$allocator@UForceInfo@@@2@@std@@YAPAUForceInfo@@V?$_Vector_const_iterator@V?$_Vector_val@UForceInfo@@V?$allocator@UForceInfo@@@std@@@std@@@0@0PAU1@AAV?$allocator@UForceInfo@@@0@@Z PROC ; std::_Uninitialized_copy<std::_Vector_const_iterator<std::_Vector_val<ForceInfo,std::allocator<ForceInfo> > >,ForceInfo *,std::allocator<ForceInfo> >, COMDAT

; 412  : 	{	// copy [_First, _Last) to raw _Dest, using _Al

  00000	55		 push	 ebp
  00001	8b ec		 mov	 ebp, esp
  00003	51		 push	 ecx

; 413  : 	return (_Uninit_copy(_First, _Last, _Dest, _Al,
; 414  : 		_Ptr_cat(_First, _Dest)));

  00004	ff 75 fc	 push	 DWORD PTR __Cat$559338[ebp]
  00007	ff 75 14	 push	 DWORD PTR __Al$[ebp]
  0000a	ff 75 10	 push	 DWORD PTR __Dest$[ebp]
  0000d	ff 75 0c	 push	 DWORD PTR __Last$[ebp]
  00010	ff 75 08	 push	 DWORD PTR __First$[ebp]
  00013	e8 00 00 00 00	 call	 ??$_Uninit_copy@V?$_Vector_const_iterator@V?$_Vector_val@UForceInfo@@V?$allocator@UForceInfo@@@std@@@std@@@std@@PAUForceInfo@@V?$allocator@UForceInfo@@@2@@std@@YAPAUForceInfo@@V?$_Vector_const_iterator@V?$_Vector_val@UForceInfo@@V?$allocator@UForceInfo@@@std@@@std@@@0@0PAU1@AAV?$allocator@UForceInfo@@@0@U_Nonscalar_ptr_iterator_tag@0@@Z ; std::_Uninit_copy<std::_Vector_const_iterator<std::_Vector_val<ForceInfo,std::allocator<ForceInfo> > >,ForceInfo *,std::allocator<ForceInfo> >
  00018	83 c4 14	 add	 esp, 20			; 00000014H

; 415  : 	}

  0001b	c9		 leave
  0001c	c3		 ret	 0
??$_Uninitialized_copy@V?$_Vector_const_iterator@V?$_Vector_val@UForceInfo@@V?$allocator@UForceInfo@@@std@@@std@@@std@@PAUForceInfo@@V?$allocator@UForceInfo@@@2@@std@@YAPAUForceInfo@@V?$_Vector_const_iterator@V?$_Vector_val@UForceInfo@@V?$allocator@UForceInfo@@@std@@@std@@@0@0PAU1@AAV?$allocator@UForceInfo@@@0@@Z ENDP ; std::_Uninitialized_copy<std::_Vector_const_iterator<std::_Vector_val<ForceInfo,std::allocator<ForceInfo> > >,ForceInfo *,std::allocator<ForceInfo> >
_TEXT	ENDS
PUBLIC	??$_Uninit_copy@V?$_Vector_const_iterator@V?$_Vector_val@UWeaponInfo@@V?$allocator@UWeaponInfo@@@std@@@std@@@std@@PAUWeaponInfo@@V?$allocator@UWeaponInfo@@@2@@std@@YAPAUWeaponInfo@@V?$_Vector_const_iterator@V?$_Vector_val@UWeaponInfo@@V?$allocator@UWeaponInfo@@@std@@@std@@@0@0PAU1@AAV?$allocator@UWeaponInfo@@@0@U_Nonscalar_ptr_iterator_tag@0@@Z ; std::_Uninit_copy<std::_Vector_const_iterator<std::_Vector_val<WeaponInfo,std::allocator<WeaponInfo> > >,WeaponInfo *,std::allocator<WeaponInfo> >
EXTRN	__EH_prolog3_catch:PROC
;	COMDAT xdata$x
; File d:\lost saga for developer\youtube\tutorial\source\src\lsclient\playentityhelpstruct.h
xdata$x	SEGMENT
__catchsym$??$_Uninit_copy@V?$_Vector_const_iterator@V?$_Vector_val@UWeaponInfo@@V?$allocator@UWeaponInfo@@@std@@@std@@@std@@PAUWeaponInfo@@V?$allocator@UWeaponInfo@@@2@@std@@YAPAUWeaponInfo@@V?$_Vector_const_iterator@V?$_Vector_val@UWeaponInfo@@V?$allocator@UWeaponInfo@@@std@@@std@@@0@0PAU1@AAV?$allocator@UWeaponInfo@@@0@U_Nonscalar_ptr_iterator_tag@0@@Z$3 DD 040H
	DD	00H
	DD	00H
	DD	FLAT:__catch$??$_Uninit_copy@V?$_Vector_const_iterator@V?$_Vector_val@UWeaponInfo@@V?$allocator@UWeaponInfo@@@std@@@std@@@std@@PAUWeaponInfo@@V?$allocator@UWeaponInfo@@@2@@std@@YAPAUWeaponInfo@@V?$_Vector_const_iterator@V?$_Vector_val@UWeaponInfo@@V?$allocator@UWeaponInfo@@@std@@@std@@@0@0PAU1@AAV?$allocator@UWeaponInfo@@@0@U_Nonscalar_ptr_iterator_tag@0@@Z$0
__unwindtable$??$_Uninit_copy@V?$_Vector_const_iterator@V?$_Vector_val@UWeaponInfo@@V?$allocator@UWeaponInfo@@@std@@@std@@@std@@PAUWeaponInfo@@V?$allocator@UWeaponInfo@@@2@@std@@YAPAUWeaponInfo@@V?$_Vector_const_iterator@V?$_Vector_val@UWeaponInfo@@V?$allocator@UWeaponInfo@@@std@@@std@@@0@0PAU1@AAV?$allocator@UWeaponInfo@@@0@U_Nonscalar_ptr_iterator_tag@0@@Z DD 0ffffffffH
	DD	00H
	DD	0ffffffffH
	DD	00H
__tryblocktable$??$_Uninit_copy@V?$_Vector_const_iterator@V?$_Vector_val@UWeaponInfo@@V?$allocator@UWeaponInfo@@@std@@@std@@@std@@PAUWeaponInfo@@V?$allocator@UWeaponInfo@@@2@@std@@YAPAUWeaponInfo@@V?$_Vector_const_iterator@V?$_Vector_val@UWeaponInfo@@V?$allocator@UWeaponInfo@@@std@@@std@@@0@0PAU1@AAV?$allocator@UWeaponInfo@@@0@U_Nonscalar_ptr_iterator_tag@0@@Z DD 00H
	DD	00H
	DD	01H
	DD	01H
	DD	FLAT:__catchsym$??$_Uninit_copy@V?$_Vector_const_iterator@V?$_Vector_val@UWeaponInfo@@V?$allocator@UWeaponInfo@@@std@@@std@@@std@@PAUWeaponInfo@@V?$allocator@UWeaponInfo@@@2@@std@@YAPAUWeaponInfo@@V?$_Vector_const_iterator@V?$_Vector_val@UWeaponInfo@@V?$allocator@UWeaponInfo@@@std@@@std@@@0@0PAU1@AAV?$allocator@UWeaponInfo@@@0@U_Nonscalar_ptr_iterator_tag@0@@Z$3
__ehfuncinfo$??$_Uninit_copy@V?$_Vector_const_iterator@V?$_Vector_val@UWeaponInfo@@V?$allocator@UWeaponInfo@@@std@@@std@@@std@@PAUWeaponInfo@@V?$allocator@UWeaponInfo@@@2@@std@@YAPAUWeaponInfo@@V?$_Vector_const_iterator@V?$_Vector_val@UWeaponInfo@@V?$allocator@UWeaponInfo@@@std@@@std@@@0@0PAU1@AAV?$allocator@UWeaponInfo@@@0@U_Nonscalar_ptr_iterator_tag@0@@Z DD 019930522H
	DD	02H
	DD	FLAT:__unwindtable$??$_Uninit_copy@V?$_Vector_const_iterator@V?$_Vector_val@UWeaponInfo@@V?$allocator@UWeaponInfo@@@std@@@std@@@std@@PAUWeaponInfo@@V?$allocator@UWeaponInfo@@@2@@std@@YAPAUWeaponInfo@@V?$_Vector_const_iterator@V?$_Vector_val@UWeaponInfo@@V?$allocator@UWeaponInfo@@@std@@@std@@@0@0PAU1@AAV?$allocator@UWeaponInfo@@@0@U_Nonscalar_ptr_iterator_tag@0@@Z
	DD	01H
	DD	FLAT:__tryblocktable$??$_Uninit_copy@V?$_Vector_const_iterator@V?$_Vector_val@UWeaponInfo@@V?$allocator@UWeaponInfo@@@std@@@std@@@std@@PAUWeaponInfo@@V?$allocator@UWeaponInfo@@@2@@std@@YAPAUWeaponInfo@@V?$_Vector_const_iterator@V?$_Vector_val@UWeaponInfo@@V?$allocator@UWeaponInfo@@@std@@@std@@@0@0PAU1@AAV?$allocator@UWeaponInfo@@@0@U_Nonscalar_ptr_iterator_tag@0@@Z
	DD	2 DUP(00H)
	DD	00H
	DD	01H
; Function compile flags: /Ogsp
; File c:\program files (x86)\microsoft visual studio 10.0\vc\include\memory
xdata$x	ENDS
;	COMDAT ??$_Uninit_copy@V?$_Vector_const_iterator@V?$_Vector_val@UWeaponInfo@@V?$allocator@UWeaponInfo@@@std@@@std@@@std@@PAUWeaponInfo@@V?$allocator@UWeaponInfo@@@2@@std@@YAPAUWeaponInfo@@V?$_Vector_const_iterator@V?$_Vector_val@UWeaponInfo@@V?$allocator@UWeaponInfo@@@std@@@std@@@0@0PAU1@AAV?$allocator@UWeaponInfo@@@0@U_Nonscalar_ptr_iterator_tag@0@@Z
_TEXT	SEGMENT
__Next$ = -20						; size = 4
__$EHRec$ = -16						; size = 16
__First$ = 8						; size = 4
__Last$ = 12						; size = 4
__Dest$ = 16						; size = 4
__Al$ = 20						; size = 4
___formal$ = 24						; size = 1
??$_Uninit_copy@V?$_Vector_const_iterator@V?$_Vector_val@UWeaponInfo@@V?$allocator@UWeaponInfo@@@std@@@std@@@std@@PAUWeaponInfo@@V?$allocator@UWeaponInfo@@@2@@std@@YAPAUWeaponInfo@@V?$_Vector_const_iterator@V?$_Vector_val@UWeaponInfo@@V?$allocator@UWeaponInfo@@@std@@@std@@@0@0PAU1@AAV?$allocator@UWeaponInfo@@@0@U_Nonscalar_ptr_iterator_tag@0@@Z PROC ; std::_Uninit_copy<std::_Vector_const_iterator<std::_Vector_val<WeaponInfo,std::allocator<WeaponInfo> > >,WeaponInfo *,std::allocator<WeaponInfo> >, COMDAT

; 369  : 	{	// copy [_First, _Last) to raw _Dest, using _Al, arbitrary type

  00000	6a 08		 push	 8
  00002	b8 00 00 00 00	 mov	 eax, __ehhandler$??$_Uninit_copy@V?$_Vector_const_iterator@V?$_Vector_val@UWeaponInfo@@V?$allocator@UWeaponInfo@@@std@@@std@@@std@@PAUWeaponInfo@@V?$allocator@UWeaponInfo@@@2@@std@@YAPAUWeaponInfo@@V?$_Vector_const_iterator@V?$_Vector_val@UWeaponInfo@@V?$allocator@UWeaponInfo@@@std@@@std@@@0@0PAU1@AAV?$allocator@UWeaponInfo@@@0@U_Nonscalar_ptr_iterator_tag@0@@Z
  00007	e8 00 00 00 00	 call	 __EH_prolog3_catch

; 370  : 	_DEBUG_RANGE(_First, _Last);
; 371  : 	_DEBUG_POINTER(_Dest);
; 372  : 	_FwdIt _Next = _Dest;

  0000c	8b 45 10	 mov	 eax, DWORD PTR __Dest$[ebp]

; 373  : 
; 374  : 	_TRY_BEGIN

  0000f	83 65 fc 00	 and	 DWORD PTR __$EHRec$[ebp+12], 0
  00013	89 45 ec	 mov	 DWORD PTR __Next$[ebp], eax

; 375  : 	for (; _First != _Last; ++_Dest, ++_First)

$LL14@Uninit_cop@2:
  00016	8b 45 08	 mov	 eax, DWORD PTR __First$[ebp]
  00019	3b 45 0c	 cmp	 eax, DWORD PTR __Last$[ebp]
  0001c	74 34		 je	 SHORT $LN4@Uninit_cop@2

; 376  : 		_Cons_val(_Al, _Dest, *_First);

  0001e	50		 push	 eax
  0001f	ff 75 10	 push	 DWORD PTR __Dest$[ebp]
  00022	e8 00 00 00 00	 call	 ??$_Construct@UWeaponInfo@@ABU1@@std@@YAXPAUWeaponInfo@@ABU1@@Z ; std::_Construct<WeaponInfo,WeaponInfo const &>
  00027	83 45 10 28	 add	 DWORD PTR __Dest$[ebp], 40 ; 00000028H
  0002b	83 45 08 28	 add	 DWORD PTR __First$[ebp], 40 ; 00000028H
  0002f	59		 pop	 ecx
  00030	59		 pop	 ecx
  00031	eb e3		 jmp	 SHORT $LL14@Uninit_cop@2
__catch$??$_Uninit_copy@V?$_Vector_const_iterator@V?$_Vector_val@UWeaponInfo@@V?$allocator@UWeaponInfo@@@std@@@std@@@std@@PAUWeaponInfo@@V?$allocator@UWeaponInfo@@@2@@std@@YAPAUWeaponInfo@@V?$_Vector_const_iterator@V?$_Vector_val@UWeaponInfo@@V?$allocator@UWeaponInfo@@@std@@@std@@@0@0PAU1@AAV?$allocator@UWeaponInfo@@@0@U_Nonscalar_ptr_iterator_tag@0@@Z$0:

; 377  : 	_CATCH_ALL
; 378  : 	for (; _Next != _Dest; ++_Next)

  00033	8b 75 ec	 mov	 esi, DWORD PTR __Next$[ebp]
  00036	eb 0c		 jmp	 SHORT $LN48@Uninit_cop@2
$LL3@Uninit_cop@2:

; 379  : 		_Dest_val(_Al, _Next);

  00038	8d 4e 08	 lea	 ecx, DWORD PTR [esi+8]
  0003b	ff 15 00 00 00
	00		 call	 DWORD PTR __imp_??1ioHashString@@QAE@XZ
  00041	83 c6 28	 add	 esi, 40			; 00000028H
$LN48@Uninit_cop@2:

; 377  : 	_CATCH_ALL
; 378  : 	for (; _Next != _Dest; ++_Next)

  00044	3b 75 10	 cmp	 esi, DWORD PTR __Dest$[ebp]
  00047	75 ef		 jne	 SHORT $LL3@Uninit_cop@2

; 380  : 	_RERAISE;

  00049	6a 00		 push	 0
  0004b	6a 00		 push	 0
  0004d	e8 00 00 00 00	 call	 __CxxThrowException@8
$LN49@Uninit_cop@2:
$LN4@Uninit_cop@2:

; 381  : 	_CATCH_END
; 382  : 	return (_Dest);

  00052	8b 45 10	 mov	 eax, DWORD PTR __Dest$[ebp]

; 383  : 	}

  00055	e8 00 00 00 00	 call	 __EH_epilog3
  0005a	c3		 ret	 0
$LN47@Uninit_cop@2:
_TEXT	ENDS
;	COMDAT text$x
text$x	SEGMENT
__ehhandler$??$_Uninit_copy@V?$_Vector_const_iterator@V?$_Vector_val@UWeaponInfo@@V?$allocator@UWeaponInfo@@@std@@@std@@@std@@PAUWeaponInfo@@V?$allocator@UWeaponInfo@@@2@@std@@YAPAUWeaponInfo@@V?$_Vector_const_iterator@V?$_Vector_val@UWeaponInfo@@V?$allocator@UWeaponInfo@@@std@@@std@@@0@0PAU1@AAV?$allocator@UWeaponInfo@@@0@U_Nonscalar_ptr_iterator_tag@0@@Z:
  00000	8b 54 24 08	 mov	 edx, DWORD PTR [esp+8]
  00004	8d 42 0c	 lea	 eax, DWORD PTR [edx+12]
  00007	8b 4a e8	 mov	 ecx, DWORD PTR [edx-24]
  0000a	33 c8		 xor	 ecx, eax
  0000c	e8 00 00 00 00	 call	 @__security_check_cookie@4
  00011	b8 00 00 00 00	 mov	 eax, OFFSET __ehfuncinfo$??$_Uninit_copy@V?$_Vector_const_iterator@V?$_Vector_val@UWeaponInfo@@V?$allocator@UWeaponInfo@@@std@@@std@@@std@@PAUWeaponInfo@@V?$allocator@UWeaponInfo@@@2@@std@@YAPAUWeaponInfo@@V?$_Vector_const_iterator@V?$_Vector_val@UWeaponInfo@@V?$allocator@UWeaponInfo@@@std@@@std@@@0@0PAU1@AAV?$allocator@UWeaponInfo@@@0@U_Nonscalar_ptr_iterator_tag@0@@Z
  00016	e9 00 00 00 00	 jmp	 ___CxxFrameHandler3
text$x	ENDS
??$_Uninit_copy@V?$_Vector_const_iterator@V?$_Vector_val@UWeaponInfo@@V?$allocator@UWeaponInfo@@@std@@@std@@@std@@PAUWeaponInfo@@V?$allocator@UWeaponInfo@@@2@@std@@YAPAUWeaponInfo@@V?$_Vector_const_iterator@V?$_Vector_val@UWeaponInfo@@V?$allocator@UWeaponInfo@@@std@@@std@@@0@0PAU1@AAV?$allocator@UWeaponInfo@@@0@U_Nonscalar_ptr_iterator_tag@0@@Z ENDP ; std::_Uninit_copy<std::_Vector_const_iterator<std::_Vector_val<WeaponInfo,std::allocator<WeaponInfo> > >,WeaponInfo *,std::allocator<WeaponInfo> >
PUBLIC	??$_Destroy_range@V?$allocator@UForceInfo@@@std@@@std@@YAXPAUForceInfo@@0AAV?$allocator@UForceInfo@@@0@@Z ; std::_Destroy_range<std::allocator<ForceInfo> >
; Function compile flags: /Ogsp
; File c:\program files (x86)\microsoft visual studio 10.0\vc\include\xmemory
;	COMDAT ??$_Destroy_range@V?$allocator@UForceInfo@@@std@@@std@@YAXPAUForceInfo@@0AAV?$allocator@UForceInfo@@@0@@Z
_TEXT	SEGMENT
__First$ = 8						; size = 4
__Last$ = 12						; size = 4
__Al$ = 16						; size = 4
??$_Destroy_range@V?$allocator@UForceInfo@@@std@@@std@@YAXPAUForceInfo@@0AAV?$allocator@UForceInfo@@@0@@Z PROC ; std::_Destroy_range<std::allocator<ForceInfo> >, COMDAT

; 88   : 	_Destroy_range(_First, _Last, _Al, _Ptr_cat(_First, _Last));
; 89   : 	}

  00000	c3		 ret	 0
??$_Destroy_range@V?$allocator@UForceInfo@@@std@@@std@@YAXPAUForceInfo@@0AAV?$allocator@UForceInfo@@@0@@Z ENDP ; std::_Destroy_range<std::allocator<ForceInfo> >
_TEXT	ENDS
PUBLIC	??$_Destroy_range@V?$allocator@UWeaponInfo@@@std@@@std@@YAXPAUWeaponInfo@@0AAV?$allocator@UWeaponInfo@@@0@U_Nonscalar_ptr_iterator_tag@0@@Z ; std::_Destroy_range<std::allocator<WeaponInfo> >
; Function compile flags: /Ogsp
;	COMDAT ??$_Destroy_range@V?$allocator@UWeaponInfo@@@std@@@std@@YAXPAUWeaponInfo@@0AAV?$allocator@UWeaponInfo@@@0@U_Nonscalar_ptr_iterator_tag@0@@Z
_TEXT	SEGMENT
__First$ = 8						; size = 4
__Last$ = 12						; size = 4
__Al$ = 16						; size = 4
___formal$ = 20						; size = 1
??$_Destroy_range@V?$allocator@UWeaponInfo@@@std@@@std@@YAXPAUWeaponInfo@@0AAV?$allocator@UWeaponInfo@@@0@U_Nonscalar_ptr_iterator_tag@0@@Z PROC ; std::_Destroy_range<std::allocator<WeaponInfo> >, COMDAT

; 95   : 	{	// destroy [_First, _Last), arbitrary type

  00000	55		 push	 ebp
  00001	8b ec		 mov	 ebp, esp
  00003	56		 push	 esi

; 96   : 	for (; _First != _Last; ++_First)

  00004	8b 75 08	 mov	 esi, DWORD PTR __First$[ebp]
  00007	eb 0c		 jmp	 SHORT $LN20@Destroy_ra
$LL3@Destroy_ra:

; 97   : 		_Dest_val(_Al, _First);

  00009	8d 4e 08	 lea	 ecx, DWORD PTR [esi+8]
  0000c	ff 15 00 00 00
	00		 call	 DWORD PTR __imp_??1ioHashString@@QAE@XZ
  00012	83 c6 28	 add	 esi, 40			; 00000028H
$LN20@Destroy_ra:

; 96   : 	for (; _First != _Last; ++_First)

  00015	3b 75 0c	 cmp	 esi, DWORD PTR __Last$[ebp]
  00018	75 ef		 jne	 SHORT $LL3@Destroy_ra
  0001a	5e		 pop	 esi

; 98   : 	}

  0001b	5d		 pop	 ebp
  0001c	c3		 ret	 0
??$_Destroy_range@V?$allocator@UWeaponInfo@@@std@@@std@@YAXPAUWeaponInfo@@0AAV?$allocator@UWeaponInfo@@@0@U_Nonscalar_ptr_iterator_tag@0@@Z ENDP ; std::_Destroy_range<std::allocator<WeaponInfo> >
_TEXT	ENDS
PUBLIC	_this$GSCopy$
PUBLIC	?ApplyExtraSkillInfo@ioChargingFireSkill4@@UAEXPAVioBaseChar@@PAVioPlayStage@@AAVSP2Packet@@@Z ; ioChargingFireSkill4::ApplyExtraSkillInfo
EXTRN	??5SP2Packet@@QAEAAV0@AAVioHashString@@@Z:PROC	; SP2Packet::operator>>
EXTRN	?SetTargetRotToRotate@ioBaseChar@@QAEXABUD3DXQUATERNION@@_N1@Z:PROC ; ioBaseChar::SetTargetRotToRotate
EXTRN	??5SP2Packet@@QAEAAV0@AAUD3DXQUATERNION@@@Z:PROC ; SP2Packet::operator>>
EXTRN	??5SP2Packet@@QAEAAV0@AAUD3DXVECTOR3@@@Z:PROC	; SP2Packet::operator>>
EXTRN	??5SP2Packet@@QAEAAV0@AAH@Z:PROC		; SP2Packet::operator>>
;	COMDAT xdata$x
; File c:\program files (x86)\microsoft directx sdk (june 2010)\include\d3dx9math.h
xdata$x	SEGMENT
__unwindtable$?ApplyExtraSkillInfo@ioChargingFireSkill4@@UAEXPAVioBaseChar@@PAVioPlayStage@@AAVSP2Packet@@@Z DD 0ffffffffH
	DD	FLAT:__unwindfunclet$?ApplyExtraSkillInfo@ioChargingFireSkill4@@UAEXPAVioBaseChar@@PAVioPlayStage@@AAVSP2Packet@@@Z$0
__ehfuncinfo$?ApplyExtraSkillInfo@ioChargingFireSkill4@@UAEXPAVioBaseChar@@PAVioPlayStage@@AAVSP2Packet@@@Z DD 019930522H
	DD	01H
	DD	FLAT:__unwindtable$?ApplyExtraSkillInfo@ioChargingFireSkill4@@UAEXPAVioBaseChar@@PAVioPlayStage@@AAVSP2Packet@@@Z
	DD	2 DUP(00H)
	DD	2 DUP(00H)
	DD	00H
	DD	01H
; Function compile flags: /Ogsp
; File d:\lost saga for developer\youtube\tutorial\source\src\lsclient\iochargingfireskill4.cpp
xdata$x	ENDS
;	COMDAT ?ApplyExtraSkillInfo@ioChargingFireSkill4@@UAEXPAVioBaseChar@@PAVioPlayStage@@AAVSP2Packet@@@Z
_TEXT	SEGMENT
_qtRot$548459 = -76					; size = 16
_qtRot$548469 = -60					; size = 16
_szTarget$548466 = -60					; size = 16
_iType$ = -44						; size = 4
_iCurKey$548471 = -40					; size = 4
_iSubType$548457 = -36					; size = 4
_this$GSCopy$ = -32					; size = 4
_vPos$548468 = -28					; size = 12
_vPos$548458 = -28					; size = 12
__$EHRec$ = -12						; size = 12
_pChar$ = 8						; size = 4
_pStage$ = 12						; size = 4
_rkPacket$ = 16						; size = 4
?ApplyExtraSkillInfo@ioChargingFireSkill4@@UAEXPAVioBaseChar@@PAVioPlayStage@@AAVSP2Packet@@@Z PROC ; ioChargingFireSkill4::ApplyExtraSkillInfo, COMDAT
; _this$ = ecx

; 500  : {

  00000	6a 40		 push	 64			; 00000040H
  00002	b8 00 00 00 00	 mov	 eax, __ehhandler$?ApplyExtraSkillInfo@ioChargingFireSkill4@@UAEXPAVioBaseChar@@PAVioPlayStage@@AAVSP2Packet@@@Z
  00007	e8 00 00 00 00	 call	 __EH_prolog3_GS
  0000c	8b 75 08	 mov	 esi, DWORD PTR _pChar$[ebp]
  0000f	8b 7d 10	 mov	 edi, DWORD PTR _rkPacket$[ebp]

; 501  : 	if( !pChar ) return;

  00012	33 db		 xor	 ebx, ebx
  00014	89 4d e0	 mov	 DWORD PTR _this$GSCopy$[ebp], ecx
  00017	3b f3		 cmp	 esi, ebx
  00019	74 37		 je	 SHORT $LN5@ApplyExtra

; 502  : 
; 503  : 	int iType;
; 504  : 	rkPacket >> iType;

  0001b	8d 45 d4	 lea	 eax, DWORD PTR _iType$[ebp]
  0001e	50		 push	 eax
  0001f	8b cf		 mov	 ecx, edi
  00021	e8 00 00 00 00	 call	 ??5SP2Packet@@QAEAAV0@AAH@Z ; SP2Packet::operator>>

; 505  : 
; 506  : 	switch( iType )

  00026	8b 45 d4	 mov	 eax, DWORD PTR _iType$[ebp]
  00029	2b c3		 sub	 eax, ebx
  0002b	74 6b		 je	 SHORT $LN7@ApplyExtra
  0002d	48		 dec	 eax
  0002e	74 2a		 je	 SHORT $LN2@ApplyExtra
  00030	48		 dec	 eax
  00031	75 1f		 jne	 SHORT $LN5@ApplyExtra

; 548  : 	case SSC_DIR:
; 549  : 		{
; 550  : 			int iCurKey;
; 551  : 			rkPacket >> iCurKey;

  00033	8d 45 d8	 lea	 eax, DWORD PTR _iCurKey$548471[ebp]
  00036	50		 push	 eax
  00037	8b cf		 mov	 ecx, edi
  00039	e8 00 00 00 00	 call	 ??5SP2Packet@@QAEAAV0@AAH@Z ; SP2Packet::operator>>

; 552  : 
; 553  : 			pChar->SetTargetRotToDirKey( (ioUserKeyInput::DirKeyInput)iCurKey );

  0003e	ff 75 d8	 push	 DWORD PTR _iCurKey$548471[ebp]
  00041	8b ce		 mov	 ecx, esi
  00043	e8 00 00 00 00	 call	 ?SetTargetRotToDirKey@ioBaseChar@@QAEXW4DirKeyInput@ioUserKeyInput@@@Z ; ioBaseChar::SetTargetRotToDirKey
$LN4@ApplyExtra:

; 521  : 			{
; 522  : 			case LAS_WAIT:
; 523  : 				SetAimState( pChar, false );

  00048	8b 4d e0	 mov	 ecx, DWORD PTR _this$GSCopy$[ebp]
  0004b	53		 push	 ebx
  0004c	56		 push	 esi
  0004d	e8 00 00 00 00	 call	 ?SetAimState@ioChargingFireSkill4@@IAEXPAVioBaseChar@@_N@Z ; ioChargingFireSkill4::SetAimState
$LN5@ApplyExtra:

; 554  : 
; 555  : 			SetAimState( pChar, false );
; 556  : 		}
; 557  : 		break;
; 558  : 	}
; 559  : }

  00052	e8 00 00 00 00	 call	 __EH_epilog3_GS
  00057	c2 0c 00	 ret	 12			; 0000000cH
$LN2@ApplyExtra:

; 533  : 			}
; 534  : 		}
; 535  : 		break;
; 536  : 	case SSC_ACTION:
; 537  : 		{
; 538  : 			D3DXVECTOR3 vPos;
; 539  : 			D3DXQUATERNION qtRot;
; 540  : 
; 541  : 			rkPacket >> vPos >> qtRot;

  0005a	8d 45 c4	 lea	 eax, DWORD PTR _qtRot$548469[ebp]
  0005d	50		 push	 eax
  0005e	8d 45 e4	 lea	 eax, DWORD PTR _vPos$548468[ebp]
  00061	50		 push	 eax
  00062	8b cf		 mov	 ecx, edi
  00064	e8 00 00 00 00	 call	 ??5SP2Packet@@QAEAAV0@AAUD3DXVECTOR3@@@Z ; SP2Packet::operator>>
  00069	8b c8		 mov	 ecx, eax
  0006b	e8 00 00 00 00	 call	 ??5SP2Packet@@QAEAAV0@AAUD3DXQUATERNION@@@Z ; SP2Packet::operator>>

; 542  : 			pChar->SetWorldPosition( vPos );

  00070	8b 06		 mov	 eax, DWORD PTR [esi]
  00072	8d 4d e4	 lea	 ecx, DWORD PTR _vPos$548468[ebp]
  00075	51		 push	 ecx
  00076	8b ce		 mov	 ecx, esi
  00078	ff 50 44	 call	 DWORD PTR [eax+68]

; 543  : 			pChar->SetTargetRotToRotate( qtRot, true, false );

  0007b	53		 push	 ebx
  0007c	6a 01		 push	 1
  0007e	8d 45 c4	 lea	 eax, DWORD PTR _qtRot$548469[ebp]
  00081	50		 push	 eax
  00082	8b ce		 mov	 ecx, esi
  00084	e8 00 00 00 00	 call	 ?SetTargetRotToRotate@ioBaseChar@@QAEXABUD3DXQUATERNION@@_N1@Z ; ioBaseChar::SetTargetRotToRotate

; 544  : 
; 545  : 			SetActionState( pChar, pStage, false );

  00089	8b 4d e0	 mov	 ecx, DWORD PTR _this$GSCopy$[ebp]
  0008c	53		 push	 ebx
  0008d	ff 75 0c	 push	 DWORD PTR _pStage$[ebp]
  00090	56		 push	 esi
  00091	e8 00 00 00 00	 call	 ?SetActionState@ioChargingFireSkill4@@IAEXPAVioBaseChar@@PAVioPlayStage@@_N@Z ; ioChargingFireSkill4::SetActionState

; 546  : 		}
; 547  : 		break;

  00096	eb ba		 jmp	 SHORT $LN5@ApplyExtra
$LN7@ApplyExtra:

; 507  : 	{
; 508  : 	case SSC_LOOP:
; 509  : 		{
; 510  : 			int iSubType;
; 511  : 			rkPacket >> iSubType;

  00098	8d 45 dc	 lea	 eax, DWORD PTR _iSubType$548457[ebp]
  0009b	50		 push	 eax
  0009c	8b cf		 mov	 ecx, edi
  0009e	e8 00 00 00 00	 call	 ??5SP2Packet@@QAEAAV0@AAH@Z ; SP2Packet::operator>>

; 512  : 
; 513  : 			D3DXVECTOR3 vPos;
; 514  : 			D3DXQUATERNION qtRot;
; 515  : 
; 516  : 			rkPacket >> vPos >> qtRot;

  000a3	8d 45 b4	 lea	 eax, DWORD PTR _qtRot$548459[ebp]
  000a6	50		 push	 eax
  000a7	8d 45 e4	 lea	 eax, DWORD PTR _vPos$548458[ebp]
  000aa	50		 push	 eax
  000ab	8b cf		 mov	 ecx, edi
  000ad	e8 00 00 00 00	 call	 ??5SP2Packet@@QAEAAV0@AAUD3DXVECTOR3@@@Z ; SP2Packet::operator>>
  000b2	8b c8		 mov	 ecx, eax
  000b4	e8 00 00 00 00	 call	 ??5SP2Packet@@QAEAAV0@AAUD3DXQUATERNION@@@Z ; SP2Packet::operator>>

; 517  : 			pChar->SetWorldPosition( vPos );

  000b9	8b 06		 mov	 eax, DWORD PTR [esi]
  000bb	8d 4d e4	 lea	 ecx, DWORD PTR _vPos$548458[ebp]
  000be	51		 push	 ecx
  000bf	8b ce		 mov	 ecx, esi
  000c1	ff 50 44	 call	 DWORD PTR [eax+68]

; 518  : 			pChar->SetTargetRotToRotate( qtRot, true, false );

  000c4	53		 push	 ebx
  000c5	6a 01		 push	 1
  000c7	8d 45 b4	 lea	 eax, DWORD PTR _qtRot$548459[ebp]
  000ca	50		 push	 eax
  000cb	8b ce		 mov	 ecx, esi
  000cd	e8 00 00 00 00	 call	 ?SetTargetRotToRotate@ioBaseChar@@QAEXABUD3DXQUATERNION@@_N1@Z ; ioBaseChar::SetTargetRotToRotate

; 519  : 
; 520  : 			switch( iSubType )

  000d2	8b 45 dc	 mov	 eax, DWORD PTR _iSubType$548457[ebp]
  000d5	48		 dec	 eax
  000d6	0f 84 6c ff ff
	ff		 je	 $LN4@ApplyExtra
  000dc	48		 dec	 eax
  000dd	0f 85 6f ff ff
	ff		 jne	 $LN5@ApplyExtra

; 524  : 				break;
; 525  : 			case LAS_AIMED:
; 526  : 				{
; 527  : 					ioHashString szTarget;

  000e3	8d 4d c4	 lea	 ecx, DWORD PTR _szTarget$548466[ebp]
  000e6	ff 15 00 00 00
	00		 call	 DWORD PTR __imp_??0ioHashString@@QAE@XZ

; 528  : 					rkPacket >> szTarget;

  000ec	8d 45 c4	 lea	 eax, DWORD PTR _szTarget$548466[ebp]
  000ef	50		 push	 eax
  000f0	8b cf		 mov	 ecx, edi
  000f2	89 5d fc	 mov	 DWORD PTR __$EHRec$[ebp+8], ebx
  000f5	e8 00 00 00 00	 call	 ??5SP2Packet@@QAEAAV0@AAVioHashString@@@Z ; SP2Packet::operator>>

; 529  : 
; 530  : 					SetAimedState( pChar, szTarget );

  000fa	8b 4d e0	 mov	 ecx, DWORD PTR _this$GSCopy$[ebp]
  000fd	8d 45 c4	 lea	 eax, DWORD PTR _szTarget$548466[ebp]
  00100	50		 push	 eax
  00101	56		 push	 esi
  00102	e8 00 00 00 00	 call	 ?SetAimedState@ioChargingFireSkill4@@IAEXPAVioBaseChar@@ABVioHashString@@@Z ; ioChargingFireSkill4::SetAimedState

; 531  : 				}

  00107	83 4d fc ff	 or	 DWORD PTR __$EHRec$[ebp+8], -1
  0010b	8d 4d c4	 lea	 ecx, DWORD PTR _szTarget$548466[ebp]
  0010e	ff 15 00 00 00
	00		 call	 DWORD PTR __imp_??1ioHashString@@QAE@XZ

; 532  : 				break;

  00114	e9 39 ff ff ff	 jmp	 $LN5@ApplyExtra
_TEXT	ENDS
;	COMDAT text$x
text$x	SEGMENT
__unwindfunclet$?ApplyExtraSkillInfo@ioChargingFireSkill4@@UAEXPAVioBaseChar@@PAVioPlayStage@@AAVSP2Packet@@@Z$0:
  00000	8d 4d c4	 lea	 ecx, DWORD PTR _szTarget$548466[ebp]
  00003	ff 25 00 00 00
	00		 jmp	 DWORD PTR __imp_??1ioHashString@@QAE@XZ
__ehhandler$?ApplyExtraSkillInfo@ioChargingFireSkill4@@UAEXPAVioBaseChar@@PAVioPlayStage@@AAVSP2Packet@@@Z:
  00009	8b 54 24 08	 mov	 edx, DWORD PTR [esp+8]
  0000d	8d 42 0c	 lea	 eax, DWORD PTR [edx+12]
  00010	8b 4a b0	 mov	 ecx, DWORD PTR [edx-80]
  00013	33 c8		 xor	 ecx, eax
  00015	e8 00 00 00 00	 call	 @__security_check_cookie@4
  0001a	8b 4a fc	 mov	 ecx, DWORD PTR [edx-4]
  0001d	33 c8		 xor	 ecx, eax
  0001f	e8 00 00 00 00	 call	 @__security_check_cookie@4
  00024	b8 00 00 00 00	 mov	 eax, OFFSET __ehfuncinfo$?ApplyExtraSkillInfo@ioChargingFireSkill4@@UAEXPAVioBaseChar@@PAVioPlayStage@@AAVSP2Packet@@@Z
  00029	e9 00 00 00 00	 jmp	 ___CxxFrameHandler3
text$x	ENDS
?ApplyExtraSkillInfo@ioChargingFireSkill4@@UAEXPAVioBaseChar@@PAVioPlayStage@@AAVSP2Packet@@@Z ENDP ; ioChargingFireSkill4::ApplyExtraSkillInfo
PUBLIC	?ProcessAimState@ioChargingFireSkill4@@IAEXPAVioBaseChar@@PAVioPlayStage@@@Z ; ioChargingFireSkill4::ProcessAimState
; Function compile flags: /Ogsp
;	COMDAT ?ProcessAimState@ioChargingFireSkill4@@IAEXPAVioBaseChar@@PAVioPlayStage@@@Z
_TEXT	SEGMENT
_pChar$ = 8						; size = 4
_pStage$ = 12						; size = 4
?ProcessAimState@ioChargingFireSkill4@@IAEXPAVioBaseChar@@PAVioPlayStage@@@Z PROC ; ioChargingFireSkill4::ProcessAimState, COMDAT
; _this$ = ecx

; 822  : {

  00000	55		 push	 ebp
  00001	8b ec		 mov	 ebp, esp
  00003	56		 push	 esi
  00004	57		 push	 edi

; 823  : 	if( !pChar ) return;

  00005	8b 7d 08	 mov	 edi, DWORD PTR _pChar$[ebp]
  00008	8b f1		 mov	 esi, ecx
  0000a	85 ff		 test	 edi, edi
  0000c	74 45		 je	 SHORT $LN4@ProcessAim

; 824  : 
; 825  : 	switch( m_LoopAimState )

  0000e	8b 86 88 0f 00
	00		 mov	 eax, DWORD PTR [esi+3976]
  00014	48		 dec	 eax
  00015	74 33		 je	 SHORT $LN3@ProcessAim
  00017	48		 dec	 eax
  00018	75 39		 jne	 SHORT $LN4@ProcessAim

; 829  : 		break;
; 830  : 	case LAS_AIMED:
; 831  : 		if( pChar->IsNeedProcess() && !CheckTargetValidate( pChar ) )

  0001a	8b 07		 mov	 eax, DWORD PTR [edi]
  0001c	8b cf		 mov	 ecx, edi
  0001e	ff 90 00 01 00
	00		 call	 DWORD PTR [eax+256]
  00024	84 c0		 test	 al, al
  00026	74 18		 je	 SHORT $LN1@ProcessAim
  00028	57		 push	 edi
  00029	8b ce		 mov	 ecx, esi
  0002b	e8 00 00 00 00	 call	 ?CheckTargetValidate@ioChargingFireSkill4@@IAE_NPAVioBaseChar@@@Z ; ioChargingFireSkill4::CheckTargetValidate
  00030	84 c0		 test	 al, al
  00032	75 0c		 jne	 SHORT $LN1@ProcessAim

; 832  : 		{
; 833  : 			SetAimState( pChar, true );

  00034	6a 01		 push	 1
  00036	57		 push	 edi
  00037	8b ce		 mov	 ecx, esi
  00039	e8 00 00 00 00	 call	 ?SetAimState@ioChargingFireSkill4@@IAEXPAVioBaseChar@@_N@Z ; ioChargingFireSkill4::SetAimState

; 834  : 			return;

  0003e	eb 13		 jmp	 SHORT $LN4@ProcessAim
$LN1@ProcessAim:

; 835  : 		}
; 836  : 
; 837  : 		TarckingTarget( pChar );

  00040	57		 push	 edi
  00041	8b ce		 mov	 ecx, esi
  00043	e8 00 00 00 00	 call	 ?TarckingTarget@ioChargingFireSkill4@@IAEXPAVioBaseChar@@@Z ; ioChargingFireSkill4::TarckingTarget

; 838  : 		break;

  00048	eb 09		 jmp	 SHORT $LN4@ProcessAim
$LN3@ProcessAim:

; 826  : 	{
; 827  : 	case LAS_WAIT:
; 828  : 		CheckAimedState( pChar, pStage );

  0004a	ff 75 0c	 push	 DWORD PTR _pStage$[ebp]
  0004d	57		 push	 edi
  0004e	e8 00 00 00 00	 call	 ?CheckAimedState@ioChargingFireSkill4@@IAEXPAVioBaseChar@@PAVioPlayStage@@@Z ; ioChargingFireSkill4::CheckAimedState
$LN4@ProcessAim:
  00053	5f		 pop	 edi
  00054	5e		 pop	 esi

; 839  : 	}
; 840  : }

  00055	5d		 pop	 ebp
  00056	c2 08 00	 ret	 8
?ProcessAimState@ioChargingFireSkill4@@IAEXPAVioBaseChar@@PAVioPlayStage@@@Z ENDP ; ioChargingFireSkill4::ProcessAimState
_TEXT	ENDS
PUBLIC	??$_Ucopy@V?$_Vector_const_iterator@V?$_Vector_val@UForceInfo@@V?$allocator@UForceInfo@@@std@@@std@@@std@@@?$vector@UForceInfo@@V?$allocator@UForceInfo@@@std@@@std@@IAEPAUForceInfo@@V?$_Vector_const_iterator@V?$_Vector_val@UForceInfo@@V?$allocator@UForceInfo@@@std@@@std@@@1@0PAU2@@Z ; std::vector<ForceInfo,std::allocator<ForceInfo> >::_Ucopy<std::_Vector_const_iterator<std::_Vector_val<ForceInfo,std::allocator<ForceInfo> > > >
; Function compile flags: /Ogsp
; File c:\program files (x86)\microsoft visual studio 10.0\vc\include\vector
;	COMDAT ??$_Ucopy@V?$_Vector_const_iterator@V?$_Vector_val@UForceInfo@@V?$allocator@UForceInfo@@@std@@@std@@@std@@@?$vector@UForceInfo@@V?$allocator@UForceInfo@@@std@@@std@@IAEPAUForceInfo@@V?$_Vector_const_iterator@V?$_Vector_val@UForceInfo@@V?$allocator@UForceInfo@@@std@@@std@@@1@0PAU2@@Z
_TEXT	SEGMENT
__First$ = 8						; size = 4
__Last$ = 12						; size = 4
__Cat$559558 = 16					; size = 1
__Ptr$ = 16						; size = 4
??$_Ucopy@V?$_Vector_const_iterator@V?$_Vector_val@UForceInfo@@V?$allocator@UForceInfo@@@std@@@std@@@std@@@?$vector@UForceInfo@@V?$allocator@UForceInfo@@@std@@@std@@IAEPAUForceInfo@@V?$_Vector_const_iterator@V?$_Vector_val@UForceInfo@@V?$allocator@UForceInfo@@@std@@@std@@@1@0PAU2@@Z PROC ; std::vector<ForceInfo,std::allocator<ForceInfo> >::_Ucopy<std::_Vector_const_iterator<std::_Vector_val<ForceInfo,std::allocator<ForceInfo> > > >, COMDAT
; _this$ = ecx

; 1315 : 		pointer _Ucopy(_Iter _First, _Iter _Last, pointer _Ptr)

  00000	55		 push	 ebp
  00001	8b ec		 mov	 ebp, esp

; 1316 : 		{	// copy initializing [_First, _Last), using allocator
; 1317 : 		return (_Uninitialized_copy(_First, _Last,
; 1318 : 			_Ptr, this->_Alval));

  00003	ff 75 10	 push	 DWORD PTR __Cat$559558[ebp]
  00006	83 c1 0c	 add	 ecx, 12			; 0000000cH
  00009	51		 push	 ecx
  0000a	ff 75 10	 push	 DWORD PTR __Ptr$[ebp]
  0000d	ff 75 0c	 push	 DWORD PTR __Last$[ebp]
  00010	ff 75 08	 push	 DWORD PTR __First$[ebp]
  00013	e8 00 00 00 00	 call	 ??$_Uninit_copy@V?$_Vector_const_iterator@V?$_Vector_val@UForceInfo@@V?$allocator@UForceInfo@@@std@@@std@@@std@@PAUForceInfo@@V?$allocator@UForceInfo@@@2@@std@@YAPAUForceInfo@@V?$_Vector_const_iterator@V?$_Vector_val@UForceInfo@@V?$allocator@UForceInfo@@@std@@@std@@@0@0PAU1@AAV?$allocator@UForceInfo@@@0@U_Nonscalar_ptr_iterator_tag@0@@Z ; std::_Uninit_copy<std::_Vector_const_iterator<std::_Vector_val<ForceInfo,std::allocator<ForceInfo> > >,ForceInfo *,std::allocator<ForceInfo> >
  00018	83 c4 14	 add	 esp, 20			; 00000014H

; 1319 : 		}

  0001b	5d		 pop	 ebp
  0001c	c2 0c 00	 ret	 12			; 0000000cH
??$_Ucopy@V?$_Vector_const_iterator@V?$_Vector_val@UForceInfo@@V?$allocator@UForceInfo@@@std@@@std@@@std@@@?$vector@UForceInfo@@V?$allocator@UForceInfo@@@std@@@std@@IAEPAUForceInfo@@V?$_Vector_const_iterator@V?$_Vector_val@UForceInfo@@V?$allocator@UForceInfo@@@std@@@std@@@1@0PAU2@@Z ENDP ; std::vector<ForceInfo,std::allocator<ForceInfo> >::_Ucopy<std::_Vector_const_iterator<std::_Vector_val<ForceInfo,std::allocator<ForceInfo> > > >
_TEXT	ENDS
PUBLIC	??$_Uninitialized_copy@V?$_Vector_const_iterator@V?$_Vector_val@UWeaponInfo@@V?$allocator@UWeaponInfo@@@std@@@std@@@std@@PAUWeaponInfo@@V?$allocator@UWeaponInfo@@@2@@std@@YAPAUWeaponInfo@@V?$_Vector_const_iterator@V?$_Vector_val@UWeaponInfo@@V?$allocator@UWeaponInfo@@@std@@@std@@@0@0PAU1@AAV?$allocator@UWeaponInfo@@@0@@Z ; std::_Uninitialized_copy<std::_Vector_const_iterator<std::_Vector_val<WeaponInfo,std::allocator<WeaponInfo> > >,WeaponInfo *,std::allocator<WeaponInfo> >
; Function compile flags: /Ogsp
; File c:\program files (x86)\microsoft visual studio 10.0\vc\include\memory
;	COMDAT ??$_Uninitialized_copy@V?$_Vector_const_iterator@V?$_Vector_val@UWeaponInfo@@V?$allocator@UWeaponInfo@@@std@@@std@@@std@@PAUWeaponInfo@@V?$allocator@UWeaponInfo@@@2@@std@@YAPAUWeaponInfo@@V?$_Vector_const_iterator@V?$_Vector_val@UWeaponInfo@@V?$allocator@UWeaponInfo@@@std@@@std@@@0@0PAU1@AAV?$allocator@UWeaponInfo@@@0@@Z
_TEXT	SEGMENT
__Cat$559568 = -4					; size = 1
__First$ = 8						; size = 4
__Last$ = 12						; size = 4
__Dest$ = 16						; size = 4
__Al$ = 20						; size = 4
??$_Uninitialized_copy@V?$_Vector_const_iterator@V?$_Vector_val@UWeaponInfo@@V?$allocator@UWeaponInfo@@@std@@@std@@@std@@PAUWeaponInfo@@V?$allocator@UWeaponInfo@@@2@@std@@YAPAUWeaponInfo@@V?$_Vector_const_iterator@V?$_Vector_val@UWeaponInfo@@V?$allocator@UWeaponInfo@@@std@@@std@@@0@0PAU1@AAV?$allocator@UWeaponInfo@@@0@@Z PROC ; std::_Uninitialized_copy<std::_Vector_const_iterator<std::_Vector_val<WeaponInfo,std::allocator<WeaponInfo> > >,WeaponInfo *,std::allocator<WeaponInfo> >, COMDAT

; 412  : 	{	// copy [_First, _Last) to raw _Dest, using _Al

  00000	55		 push	 ebp
  00001	8b ec		 mov	 ebp, esp
  00003	51		 push	 ecx

; 413  : 	return (_Uninit_copy(_First, _Last, _Dest, _Al,
; 414  : 		_Ptr_cat(_First, _Dest)));

  00004	ff 75 fc	 push	 DWORD PTR __Cat$559568[ebp]
  00007	ff 75 14	 push	 DWORD PTR __Al$[ebp]
  0000a	ff 75 10	 push	 DWORD PTR __Dest$[ebp]
  0000d	ff 75 0c	 push	 DWORD PTR __Last$[ebp]
  00010	ff 75 08	 push	 DWORD PTR __First$[ebp]
  00013	e8 00 00 00 00	 call	 ??$_Uninit_copy@V?$_Vector_const_iterator@V?$_Vector_val@UWeaponInfo@@V?$allocator@UWeaponInfo@@@std@@@std@@@std@@PAUWeaponInfo@@V?$allocator@UWeaponInfo@@@2@@std@@YAPAUWeaponInfo@@V?$_Vector_const_iterator@V?$_Vector_val@UWeaponInfo@@V?$allocator@UWeaponInfo@@@std@@@std@@@0@0PAU1@AAV?$allocator@UWeaponInfo@@@0@U_Nonscalar_ptr_iterator_tag@0@@Z ; std::_Uninit_copy<std::_Vector_const_iterator<std::_Vector_val<WeaponInfo,std::allocator<WeaponInfo> > >,WeaponInfo *,std::allocator<WeaponInfo> >
  00018	83 c4 14	 add	 esp, 20			; 00000014H

; 415  : 	}

  0001b	c9		 leave
  0001c	c3		 ret	 0
??$_Uninitialized_copy@V?$_Vector_const_iterator@V?$_Vector_val@UWeaponInfo@@V?$allocator@UWeaponInfo@@@std@@@std@@@std@@PAUWeaponInfo@@V?$allocator@UWeaponInfo@@@2@@std@@YAPAUWeaponInfo@@V?$_Vector_const_iterator@V?$_Vector_val@UWeaponInfo@@V?$allocator@UWeaponInfo@@@std@@@std@@@0@0PAU1@AAV?$allocator@UWeaponInfo@@@0@@Z ENDP ; std::_Uninitialized_copy<std::_Vector_const_iterator<std::_Vector_val<WeaponInfo,std::allocator<WeaponInfo> > >,WeaponInfo *,std::allocator<WeaponInfo> >
_TEXT	ENDS
PUBLIC	?_Destroy@?$vector@UForceInfo@@V?$allocator@UForceInfo@@@std@@@std@@IAEXPAUForceInfo@@0@Z ; std::vector<ForceInfo,std::allocator<ForceInfo> >::_Destroy
; Function compile flags: /Ogsp
; File c:\program files (x86)\microsoft visual studio 10.0\vc\include\vector
;	COMDAT ?_Destroy@?$vector@UForceInfo@@V?$allocator@UForceInfo@@@std@@@std@@IAEXPAUForceInfo@@0@Z
_TEXT	SEGMENT
__First$ = 8						; size = 4
__Last$ = 12						; size = 4
?_Destroy@?$vector@UForceInfo@@V?$allocator@UForceInfo@@@std@@@std@@IAEXPAUForceInfo@@0@Z PROC ; std::vector<ForceInfo,std::allocator<ForceInfo> >::_Destroy, COMDAT
; _this$ = ecx

; 1270 : 		_Destroy_range(_First, _Last, this->_Alval);
; 1271 : 		}

  00000	c2 08 00	 ret	 8
?_Destroy@?$vector@UForceInfo@@V?$allocator@UForceInfo@@@std@@@std@@IAEXPAUForceInfo@@0@Z ENDP ; std::vector<ForceInfo,std::allocator<ForceInfo> >::_Destroy
_TEXT	ENDS
PUBLIC	??$_Destroy_range@V?$allocator@UWeaponInfo@@@std@@@std@@YAXPAUWeaponInfo@@0AAV?$allocator@UWeaponInfo@@@0@@Z ; std::_Destroy_range<std::allocator<WeaponInfo> >
; Function compile flags: /Ogsp
; File c:\program files (x86)\microsoft visual studio 10.0\vc\include\xmemory
;	COMDAT ??$_Destroy_range@V?$allocator@UWeaponInfo@@@std@@@std@@YAXPAUWeaponInfo@@0AAV?$allocator@UWeaponInfo@@@0@@Z
_TEXT	SEGMENT
__First$ = 8						; size = 4
__Last$ = 12						; size = 4
__Al$ = 16						; size = 4
??$_Destroy_range@V?$allocator@UWeaponInfo@@@std@@@std@@YAXPAUWeaponInfo@@0AAV?$allocator@UWeaponInfo@@@0@@Z PROC ; std::_Destroy_range<std::allocator<WeaponInfo> >, COMDAT

; 87   : 	{	// destroy [_First, _Last)

  00000	55		 push	 ebp
  00001	8b ec		 mov	 ebp, esp
  00003	56		 push	 esi

; 88   : 	_Destroy_range(_First, _Last, _Al, _Ptr_cat(_First, _Last));

  00004	8b 75 08	 mov	 esi, DWORD PTR __First$[ebp]
  00007	eb 0c		 jmp	 SHORT $LN24@Destroy_ra@2
$LL7@Destroy_ra@2:
  00009	8d 4e 08	 lea	 ecx, DWORD PTR [esi+8]
  0000c	ff 15 00 00 00
	00		 call	 DWORD PTR __imp_??1ioHashString@@QAE@XZ
  00012	83 c6 28	 add	 esi, 40			; 00000028H
$LN24@Destroy_ra@2:
  00015	3b 75 0c	 cmp	 esi, DWORD PTR __Last$[ebp]
  00018	75 ef		 jne	 SHORT $LL7@Destroy_ra@2
  0001a	5e		 pop	 esi

; 89   : 	}

  0001b	5d		 pop	 ebp
  0001c	c3		 ret	 0
??$_Destroy_range@V?$allocator@UWeaponInfo@@@std@@@std@@YAXPAUWeaponInfo@@0AAV?$allocator@UWeaponInfo@@@0@@Z ENDP ; std::_Destroy_range<std::allocator<WeaponInfo> >
_TEXT	ENDS
PUBLIC	?OnProcessState@ioChargingFireSkill4@@UAEXPAVioBaseChar@@PAVioPlayStage@@@Z ; ioChargingFireSkill4::OnProcessState
EXTRN	?GetSkillKeyInput@ioBaseChar@@QAEHXZ:PROC	; ioBaseChar::GetSkillKeyInput
EXTRN	?IsJumpKey@ioBaseChar@@QBE_NXZ:PROC		; ioBaseChar::IsJumpKey
EXTRN	?IsDefenseKey@ioBaseChar@@QBE_NXZ:PROC		; ioBaseChar::IsDefenseKey
EXTRN	?IsAttackKey@ioBaseChar@@QBE_NXZ:PROC		; ioBaseChar::IsAttackKey
; Function compile flags: /Ogsp
; File d:\lost saga for developer\youtube\tutorial\source\src\lsclient\iochargingfireskill4.cpp
;	COMDAT ?OnProcessState@ioChargingFireSkill4@@UAEXPAVioBaseChar@@PAVioPlayStage@@@Z
_TEXT	SEGMENT
_value$559702 = -8					; size = 4
_dwCurTime$ = -4					; size = 4
_pChar$ = 8						; size = 4
_pStage$ = 12						; size = 4
?OnProcessState@ioChargingFireSkill4@@UAEXPAVioBaseChar@@PAVioPlayStage@@@Z PROC ; ioChargingFireSkill4::OnProcessState, COMDAT
; _this$ = ecx

; 261  : {

  00000	55		 push	 ebp
  00001	8b ec		 mov	 ebp, esp
  00003	51		 push	 ecx
  00004	51		 push	 ecx
  00005	53		 push	 ebx
  00006	56		 push	 esi
  00007	8b f1		 mov	 esi, ecx

; 262  : 	int iSlot = GetOwnerItem()->GetType() - 1;

  00009	8b 8e a4 02 00
	00		 mov	 ecx, DWORD PTR [esi+676]
  0000f	8b 01		 mov	 eax, DWORD PTR [ecx]
  00011	57		 push	 edi
  00012	ff 50 08	 call	 DWORD PTR [eax+8]
  00015	8d 78 ff	 lea	 edi, DWORD PTR [eax-1]

; 263  : 	DWORD dwCurTime = FRAMEGETTIME();

  00018	ff 15 00 00 00
	00		 call	 DWORD PTR __imp_?GetSingleton@ioFrameTimer@@SAAAV1@XZ
  0001e	8b c8		 mov	 ecx, eax
  00020	ff 15 00 00 00
	00		 call	 DWORD PTR __imp_?GetLoopSec@ioFrameTimer@@QBEKXZ
  00026	89 45 fc	 mov	 DWORD PTR _dwCurTime$[ebp], eax

; 264  : 
; 265  : 	switch( m_State )

  00029	8d 45 f8	 lea	 eax, DWORD PTR _value$559702[ebp]
  0002c	50		 push	 eax
  0002d	8d 8e 58 0f 00
	00		 lea	 ecx, DWORD PTR [esi+3928]
  00033	e8 00 00 00 00	 call	 ?DecryptValueToPool@?$CEncrypt@H@@QAEXPAH@Z ; CEncrypt<int>::DecryptValueToPool
  00038	8b 45 f8	 mov	 eax, DWORD PTR _value$559702[ebp]
  0003b	33 db		 xor	 ebx, ebx
  0003d	2b c3		 sub	 eax, ebx
  0003f	0f 84 d1 00 00
	00		 je	 $LN12@OnProcessS
  00045	48		 dec	 eax
  00046	74 4f		 je	 SHORT $LN10@OnProcessS
  00048	48		 dec	 eax
  00049	0f 85 ee 00 00
	00		 jne	 $LN11@OnProcessS

; 301  : 				}
; 302  : 			}
; 303  : 		}
; 304  : 		break;
; 305  : 	case SS_ACTION:
; 306  : 		{
; 307  : 			if( m_dwFireEndTime > 0 && m_dwFireEndTime < dwCurTime )

  0004f	8b 86 f8 0f 00
	00		 mov	 eax, DWORD PTR [esi+4088]
  00055	3b c3		 cmp	 eax, ebx
  00057	76 20		 jbe	 SHORT $LN4@OnProcessS
  00059	3b 45 fc	 cmp	 eax, DWORD PTR _dwCurTime$[ebp]
  0005c	73 1b		 jae	 SHORT $LN4@OnProcessS

; 308  : 			{
; 309  : 				if( m_dwChargingEffect != -1 )

  0005e	8b 86 c4 11 00
	00		 mov	 eax, DWORD PTR [esi+4548]
  00064	83 f8 ff	 cmp	 eax, -1
  00067	74 0a		 je	 SHORT $LN3@OnProcessS

; 310  : 					pChar->EndMapEffect( m_dwChargingEffect, false );

  00069	8b 4d 08	 mov	 ecx, DWORD PTR _pChar$[ebp]
  0006c	53		 push	 ebx
  0006d	50		 push	 eax
  0006e	e8 00 00 00 00	 call	 ?EndMapEffect@ioBaseChar@@QAEXK_N@Z ; ioBaseChar::EndMapEffect
$LN3@OnProcessS:

; 311  : 
; 312  : 				m_dwFireEndTime = 0;

  00073	89 9e f8 0f 00
	00		 mov	 DWORD PTR [esi+4088], ebx
$LN4@OnProcessS:

; 313  : 			}
; 314  : 		}
; 315  : 
; 316  : 		if( m_dwChargingEffect != -1 )

  00079	8b b6 c4 11 00
	00		 mov	 esi, DWORD PTR [esi+4548]
  0007f	83 fe ff	 cmp	 esi, -1
  00082	0f 84 b5 00 00
	00		 je	 $LN11@OnProcessS

; 317  : 		{
; 318  : 			pChar->UpdateAttachMapEffect( m_dwChargingEffect );

  00088	8b 4d 08	 mov	 ecx, DWORD PTR _pChar$[ebp]
  0008b	53		 push	 ebx
  0008c	56		 push	 esi
  0008d	e8 00 00 00 00	 call	 ?UpdateAttachMapEffect@ioBaseChar@@QAEXK_N@Z ; ioBaseChar::UpdateAttachMapEffect

; 319  : 		}
; 320  : 		break;

  00092	e9 a6 00 00 00	 jmp	 $LN11@OnProcessS
$LN10@OnProcessS:

; 275  : 			}
; 276  : 		}
; 277  : 		break;
; 278  : 	case SS_LOOP:
; 279  : 		{
; 280  : 			CheckCharRotateKey( pChar );

  00097	8b 5d 08	 mov	 ebx, DWORD PTR _pChar$[ebp]
  0009a	53		 push	 ebx
  0009b	8b ce		 mov	 ecx, esi
  0009d	e8 00 00 00 00	 call	 ?CheckCharRotateKey@ioChargingFireSkill4@@IAEXPAVioBaseChar@@@Z ; ioChargingFireSkill4::CheckCharRotateKey

; 281  : 			ProcessLoopState( pChar, pStage );

  000a2	ff 75 0c	 push	 DWORD PTR _pStage$[ebp]
  000a5	8b ce		 mov	 ecx, esi
  000a7	53		 push	 ebx
  000a8	e8 00 00 00 00	 call	 ?ProcessLoopState@ioChargingFireSkill4@@IAEXPAVioBaseChar@@PAVioPlayStage@@@Z ; ioChargingFireSkill4::ProcessLoopState

; 282  : 
; 283  : 			ProcessAimState( pChar, pStage );

  000ad	ff 75 0c	 push	 DWORD PTR _pStage$[ebp]
  000b0	8b ce		 mov	 ecx, esi
  000b2	53		 push	 ebx
  000b3	e8 00 00 00 00	 call	 ?ProcessAimState@ioChargingFireSkill4@@IAEXPAVioBaseChar@@PAVioPlayStage@@@Z ; ioChargingFireSkill4::ProcessAimState

; 284  : 
; 285  : 			if( m_dwLoopStartTime+m_dwLoopDuration < dwCurTime )

  000b8	8b 86 b0 11 00
	00		 mov	 eax, DWORD PTR [esi+4528]
  000be	03 86 a8 11 00
	00		 add	 eax, DWORD PTR [esi+4520]
  000c4	3b 45 fc	 cmp	 eax, DWORD PTR _dwCurTime$[ebp]
  000c7	73 0f		 jae	 SHORT $LN9@OnProcessS

; 286  : 			{
; 287  : 				 SetActionState( pChar, pStage, false );

  000c9	6a 00		 push	 0
$LN21@OnProcessS:
  000cb	ff 75 0c	 push	 DWORD PTR _pStage$[ebp]
  000ce	8b ce		 mov	 ecx, esi
  000d0	53		 push	 ebx
  000d1	e8 00 00 00 00	 call	 ?SetActionState@ioChargingFireSkill4@@IAEXPAVioBaseChar@@PAVioPlayStage@@_N@Z ; ioChargingFireSkill4::SetActionState

; 288  : 				//SetFailState( pChar );
; 289  : 				return;

  000d6	eb 65		 jmp	 SHORT $LN11@OnProcessS
$LN9@OnProcessS:

; 290  : 			}
; 291  : 
; 292  : 			if( pChar->IsNeedProcess() )

  000d8	8b 03		 mov	 eax, DWORD PTR [ebx]
  000da	8b cb		 mov	 ecx, ebx
  000dc	ff 90 00 01 00
	00		 call	 DWORD PTR [eax+256]
  000e2	84 c0		 test	 al, al
  000e4	74 57		 je	 SHORT $LN11@OnProcessS

; 293  : 			{
; 294  : 				if( pChar->IsAttackKey() ||
; 295  : 					pChar->IsDefenseKey() ||
; 296  : 					pChar->IsJumpKey() ||
; 297  : 					pChar->GetSkillKeyInput() == iSlot )

  000e6	8b cb		 mov	 ecx, ebx
  000e8	e8 00 00 00 00	 call	 ?IsAttackKey@ioBaseChar@@QBE_NXZ ; ioBaseChar::IsAttackKey
  000ed	84 c0		 test	 al, al
  000ef	75 21		 jne	 SHORT $LN6@OnProcessS
  000f1	8b cb		 mov	 ecx, ebx
  000f3	e8 00 00 00 00	 call	 ?IsDefenseKey@ioBaseChar@@QBE_NXZ ; ioBaseChar::IsDefenseKey
  000f8	84 c0		 test	 al, al
  000fa	75 16		 jne	 SHORT $LN6@OnProcessS
  000fc	8b cb		 mov	 ecx, ebx
  000fe	e8 00 00 00 00	 call	 ?IsJumpKey@ioBaseChar@@QBE_NXZ ; ioBaseChar::IsJumpKey
  00103	84 c0		 test	 al, al
  00105	75 0b		 jne	 SHORT $LN6@OnProcessS
  00107	8b cb		 mov	 ecx, ebx
  00109	e8 00 00 00 00	 call	 ?GetSkillKeyInput@ioBaseChar@@QAEHXZ ; ioBaseChar::GetSkillKeyInput
  0010e	3b c7		 cmp	 eax, edi
  00110	75 2b		 jne	 SHORT $LN11@OnProcessS
$LN6@OnProcessS:

; 298  : 				{
; 299  : 					SetActionState( pChar, pStage, true );

  00112	6a 01		 push	 1

; 300  : 					return;

  00114	eb b5		 jmp	 SHORT $LN21@OnProcessS
$LN12@OnProcessS:

; 266  : 	{
; 267  : 	case SS_NONE:
; 268  : 		{
; 269  : 			DWORD dwPreDelay = GetPreDelayTime();

  00116	8b 06		 mov	 eax, DWORD PTR [esi]
  00118	8b ce		 mov	 ecx, esi
  0011a	ff 90 34 01 00
	00		 call	 DWORD PTR [eax+308]

; 270  : 			if( m_dwPreDelayStartTime + dwPreDelay < dwCurTime )

  00120	8b 96 20 02 00
	00		 mov	 edx, DWORD PTR [esi+544]
  00126	03 d0		 add	 edx, eax
  00128	3b 55 fc	 cmp	 edx, DWORD PTR _dwCurTime$[ebp]
  0012b	73 10		 jae	 SHORT $LN11@OnProcessS

; 271  : 			{
; 272  : 				m_dwPreDelayStartTime = 0;
; 273  : 
; 274  : 				SetLoopState( pChar );

  0012d	ff 75 08	 push	 DWORD PTR _pChar$[ebp]
  00130	8b ce		 mov	 ecx, esi
  00132	89 9e 20 02 00
	00		 mov	 DWORD PTR [esi+544], ebx
  00138	e8 00 00 00 00	 call	 ?SetLoopState@ioChargingFireSkill4@@IAEXPAVioBaseChar@@@Z ; ioChargingFireSkill4::SetLoopState
$LN11@OnProcessS:
  0013d	5f		 pop	 edi
  0013e	5e		 pop	 esi
  0013f	5b		 pop	 ebx

; 321  : 	case SS_FAIL:
; 322  : 		break;
; 323  : 	}
; 324  : }

  00140	c9		 leave
  00141	c2 08 00	 ret	 8
?OnProcessState@ioChargingFireSkill4@@UAEXPAVioBaseChar@@PAVioPlayStage@@@Z ENDP ; ioChargingFireSkill4::OnProcessState
_TEXT	ENDS
PUBLIC	??$_Ucopy@V?$_Vector_const_iterator@V?$_Vector_val@UWeaponInfo@@V?$allocator@UWeaponInfo@@@std@@@std@@@std@@@?$vector@UWeaponInfo@@V?$allocator@UWeaponInfo@@@std@@@std@@IAEPAUWeaponInfo@@V?$_Vector_const_iterator@V?$_Vector_val@UWeaponInfo@@V?$allocator@UWeaponInfo@@@std@@@std@@@1@0PAU2@@Z ; std::vector<WeaponInfo,std::allocator<WeaponInfo> >::_Ucopy<std::_Vector_const_iterator<std::_Vector_val<WeaponInfo,std::allocator<WeaponInfo> > > >
; Function compile flags: /Ogsp
; File c:\program files (x86)\microsoft visual studio 10.0\vc\include\vector
;	COMDAT ??$_Ucopy@V?$_Vector_const_iterator@V?$_Vector_val@UWeaponInfo@@V?$allocator@UWeaponInfo@@@std@@@std@@@std@@@?$vector@UWeaponInfo@@V?$allocator@UWeaponInfo@@@std@@@std@@IAEPAUWeaponInfo@@V?$_Vector_const_iterator@V?$_Vector_val@UWeaponInfo@@V?$allocator@UWeaponInfo@@@std@@@std@@@1@0PAU2@@Z
_TEXT	SEGMENT
__First$ = 8						; size = 4
__Last$ = 12						; size = 4
__Cat$559716 = 16					; size = 1
__Ptr$ = 16						; size = 4
??$_Ucopy@V?$_Vector_const_iterator@V?$_Vector_val@UWeaponInfo@@V?$allocator@UWeaponInfo@@@std@@@std@@@std@@@?$vector@UWeaponInfo@@V?$allocator@UWeaponInfo@@@std@@@std@@IAEPAUWeaponInfo@@V?$_Vector_const_iterator@V?$_Vector_val@UWeaponInfo@@V?$allocator@UWeaponInfo@@@std@@@std@@@1@0PAU2@@Z PROC ; std::vector<WeaponInfo,std::allocator<WeaponInfo> >::_Ucopy<std::_Vector_const_iterator<std::_Vector_val<WeaponInfo,std::allocator<WeaponInfo> > > >, COMDAT
; _this$ = ecx

; 1315 : 		pointer _Ucopy(_Iter _First, _Iter _Last, pointer _Ptr)

  00000	55		 push	 ebp
  00001	8b ec		 mov	 ebp, esp

; 1316 : 		{	// copy initializing [_First, _Last), using allocator
; 1317 : 		return (_Uninitialized_copy(_First, _Last,
; 1318 : 			_Ptr, this->_Alval));

  00003	ff 75 10	 push	 DWORD PTR __Cat$559716[ebp]
  00006	83 c1 0c	 add	 ecx, 12			; 0000000cH
  00009	51		 push	 ecx
  0000a	ff 75 10	 push	 DWORD PTR __Ptr$[ebp]
  0000d	ff 75 0c	 push	 DWORD PTR __Last$[ebp]
  00010	ff 75 08	 push	 DWORD PTR __First$[ebp]
  00013	e8 00 00 00 00	 call	 ??$_Uninit_copy@V?$_Vector_const_iterator@V?$_Vector_val@UWeaponInfo@@V?$allocator@UWeaponInfo@@@std@@@std@@@std@@PAUWeaponInfo@@V?$allocator@UWeaponInfo@@@2@@std@@YAPAUWeaponInfo@@V?$_Vector_const_iterator@V?$_Vector_val@UWeaponInfo@@V?$allocator@UWeaponInfo@@@std@@@std@@@0@0PAU1@AAV?$allocator@UWeaponInfo@@@0@U_Nonscalar_ptr_iterator_tag@0@@Z ; std::_Uninit_copy<std::_Vector_const_iterator<std::_Vector_val<WeaponInfo,std::allocator<WeaponInfo> > >,WeaponInfo *,std::allocator<WeaponInfo> >
  00018	83 c4 14	 add	 esp, 20			; 00000014H

; 1319 : 		}

  0001b	5d		 pop	 ebp
  0001c	c2 0c 00	 ret	 12			; 0000000cH
??$_Ucopy@V?$_Vector_const_iterator@V?$_Vector_val@UWeaponInfo@@V?$allocator@UWeaponInfo@@@std@@@std@@@std@@@?$vector@UWeaponInfo@@V?$allocator@UWeaponInfo@@@std@@@std@@IAEPAUWeaponInfo@@V?$_Vector_const_iterator@V?$_Vector_val@UWeaponInfo@@V?$allocator@UWeaponInfo@@@std@@@std@@@1@0PAU2@@Z ENDP ; std::vector<WeaponInfo,std::allocator<WeaponInfo> >::_Ucopy<std::_Vector_const_iterator<std::_Vector_val<WeaponInfo,std::allocator<WeaponInfo> > > >
_TEXT	ENDS
PUBLIC	?_Tidy@?$vector@UForceInfo@@V?$allocator@UForceInfo@@@std@@@std@@IAEXXZ ; std::vector<ForceInfo,std::allocator<ForceInfo> >::_Tidy
EXTRN	__imp_?_Orphan_all@_Container_base0@std@@QAEXXZ:PROC
; Function compile flags: /Ogsp
;	COMDAT ?_Tidy@?$vector@UForceInfo@@V?$allocator@UForceInfo@@@std@@@std@@IAEXXZ
_TEXT	SEGMENT
?_Tidy@?$vector@UForceInfo@@V?$allocator@UForceInfo@@@std@@@std@@IAEXXZ PROC ; std::vector<ForceInfo,std::allocator<ForceInfo> >::_Tidy, COMDAT
; _this$ = ecx

; 1301 : 		{	// free all storage

  00000	56		 push	 esi
  00001	8b f1		 mov	 esi, ecx

; 1302 : 		if (this->_Myfirst != 0)

  00003	83 3e 00	 cmp	 DWORD PTR [esi], 0
  00006	74 0e		 je	 SHORT $LN21@Tidy

; 1303 : 			{	// something to free, destroy and deallocate it
; 1304 : 			this->_Orphan_all();

  00008	ff 15 00 00 00
	00		 call	 DWORD PTR __imp_?_Orphan_all@_Container_base0@std@@QAEXXZ

; 1305 : 			_Destroy(this->_Myfirst, this->_Mylast);
; 1306 : 			this->_Alval.deallocate(this->_Myfirst,
; 1307 : 				this->_Myend - this->_Myfirst);

  0000e	ff 36		 push	 DWORD PTR [esi]
  00010	e8 00 00 00 00	 call	 ??3@YAXPAX@Z		; operator delete
  00015	59		 pop	 ecx
$LN21@Tidy:

; 1308 : 			}
; 1309 : 		this->_Myfirst = 0;

  00016	83 26 00	 and	 DWORD PTR [esi], 0

; 1310 : 		this->_Mylast = 0;

  00019	83 66 04 00	 and	 DWORD PTR [esi+4], 0

; 1311 : 		this->_Myend = 0;

  0001d	83 66 08 00	 and	 DWORD PTR [esi+8], 0
  00021	5e		 pop	 esi

; 1312 : 		}

  00022	c3		 ret	 0
?_Tidy@?$vector@UForceInfo@@V?$allocator@UForceInfo@@@std@@@std@@IAEXXZ ENDP ; std::vector<ForceInfo,std::allocator<ForceInfo> >::_Tidy
_TEXT	ENDS
PUBLIC	?_Destroy@?$vector@UWeaponInfo@@V?$allocator@UWeaponInfo@@@std@@@std@@IAEXPAUWeaponInfo@@0@Z ; std::vector<WeaponInfo,std::allocator<WeaponInfo> >::_Destroy
; Function compile flags: /Ogsp
;	COMDAT ?_Destroy@?$vector@UWeaponInfo@@V?$allocator@UWeaponInfo@@@std@@@std@@IAEXPAUWeaponInfo@@0@Z
_TEXT	SEGMENT
__First$ = 8						; size = 4
__Last$ = 12						; size = 4
?_Destroy@?$vector@UWeaponInfo@@V?$allocator@UWeaponInfo@@@std@@@std@@IAEXPAUWeaponInfo@@0@Z PROC ; std::vector<WeaponInfo,std::allocator<WeaponInfo> >::_Destroy, COMDAT
; _this$ = ecx

; 1269 : 		{	// destroy [_First, _Last) using allocator

  00000	55		 push	 ebp
  00001	8b ec		 mov	 ebp, esp

; 1270 : 		_Destroy_range(_First, _Last, this->_Alval);

  00003	83 c1 0c	 add	 ecx, 12			; 0000000cH
  00006	51		 push	 ecx
  00007	ff 75 0c	 push	 DWORD PTR __Last$[ebp]
  0000a	ff 75 08	 push	 DWORD PTR __First$[ebp]
  0000d	e8 00 00 00 00	 call	 ??$_Destroy_range@V?$allocator@UWeaponInfo@@@std@@@std@@YAXPAUWeaponInfo@@0AAV?$allocator@UWeaponInfo@@@0@@Z ; std::_Destroy_range<std::allocator<WeaponInfo> >
  00012	83 c4 0c	 add	 esp, 12			; 0000000cH

; 1271 : 		}

  00015	5d		 pop	 ebp
  00016	c2 08 00	 ret	 8
?_Destroy@?$vector@UWeaponInfo@@V?$allocator@UWeaponInfo@@@std@@@std@@IAEXPAUWeaponInfo@@0@Z ENDP ; std::vector<WeaponInfo,std::allocator<WeaponInfo> >::_Destroy
_TEXT	ENDS
PUBLIC	??0?$vector@UForceInfo@@V?$allocator@UForceInfo@@@std@@@std@@QAE@ABV01@@Z ; std::vector<ForceInfo,std::allocator<ForceInfo> >::vector<ForceInfo,std::allocator<ForceInfo> >
;	COMDAT xdata$x
; File c:\program files (x86)\microsoft visual studio 10.0\vc\include\xutility
xdata$x	SEGMENT
__catchsym$??0?$vector@UForceInfo@@V?$allocator@UForceInfo@@@std@@@std@@QAE@ABV01@@Z$2 DD 040H
	DD	00H
	DD	00H
	DD	FLAT:__catch$??0?$vector@UForceInfo@@V?$allocator@UForceInfo@@@std@@@std@@QAE@ABV01@@Z$0
__unwindtable$??0?$vector@UForceInfo@@V?$allocator@UForceInfo@@@std@@@std@@QAE@ABV01@@Z DD 0ffffffffH
	DD	00H
	DD	0ffffffffH
	DD	00H
__tryblocktable$??0?$vector@UForceInfo@@V?$allocator@UForceInfo@@@std@@@std@@QAE@ABV01@@Z DD 00H
	DD	00H
	DD	01H
	DD	01H
	DD	FLAT:__catchsym$??0?$vector@UForceInfo@@V?$allocator@UForceInfo@@@std@@@std@@QAE@ABV01@@Z$2
__ehfuncinfo$??0?$vector@UForceInfo@@V?$allocator@UForceInfo@@@std@@@std@@QAE@ABV01@@Z DD 019930522H
	DD	02H
	DD	FLAT:__unwindtable$??0?$vector@UForceInfo@@V?$allocator@UForceInfo@@@std@@@std@@QAE@ABV01@@Z
	DD	01H
	DD	FLAT:__tryblocktable$??0?$vector@UForceInfo@@V?$allocator@UForceInfo@@@std@@@std@@QAE@ABV01@@Z
	DD	2 DUP(00H)
	DD	00H
	DD	01H
; Function compile flags: /Ogsp
; File c:\program files (x86)\microsoft visual studio 10.0\vc\include\vector
xdata$x	ENDS
;	COMDAT ??0?$vector@UForceInfo@@V?$allocator@UForceInfo@@@std@@@std@@QAE@ABV01@@Z
_TEXT	SEGMENT
_this$ = -20						; size = 4
__$EHRec$ = -16						; size = 16
__Cat$559882 = 8					; size = 1
__Right$ = 8						; size = 4
??0?$vector@UForceInfo@@V?$allocator@UForceInfo@@@std@@@std@@QAE@ABV01@@Z PROC ; std::vector<ForceInfo,std::allocator<ForceInfo> >::vector<ForceInfo,std::allocator<ForceInfo> >, COMDAT
; _this$ = ecx

; 535  : 		{	// construct by copying _Right

  00000	6a 08		 push	 8
  00002	b8 00 00 00 00	 mov	 eax, __ehhandler$??0?$vector@UForceInfo@@V?$allocator@UForceInfo@@@std@@@std@@QAE@ABV01@@Z
  00007	e8 00 00 00 00	 call	 __EH_prolog3_catch
  0000c	8b f1		 mov	 esi, ecx
  0000e	89 75 ec	 mov	 DWORD PTR _this$[ebp], esi

; 536  : 		if (_Buy(_Right.size()))

  00011	8b 7d 08	 mov	 edi, DWORD PTR __Right$[ebp]
  00014	33 db		 xor	 ebx, ebx
  00016	89 1e		 mov	 DWORD PTR [esi], ebx
  00018	89 5e 04	 mov	 DWORD PTR [esi+4], ebx
  0001b	89 5e 08	 mov	 DWORD PTR [esi+8], ebx
  0001e	8b 47 04	 mov	 eax, DWORD PTR [edi+4]
  00021	2b 07		 sub	 eax, DWORD PTR [edi]
  00023	6a 0c		 push	 12			; 0000000cH
  00025	59		 pop	 ecx
  00026	99		 cdq
  00027	f7 f9		 idiv	 ecx
  00029	8b ce		 mov	 ecx, esi
  0002b	50		 push	 eax
  0002c	e8 00 00 00 00	 call	 ?_Buy@?$vector@UForceInfo@@V?$allocator@UForceInfo@@@std@@@std@@IAE_NI@Z ; std::vector<ForceInfo,std::allocator<ForceInfo> >::_Buy
  00031	84 c0		 test	 al, al
  00033	74 1f		 je	 SHORT $LN7@vector

; 537  : 			_TRY_BEGIN
; 538  : 			this->_Mylast = _Ucopy(_Right.begin(), _Right.end(),
; 539  : 				this->_Myfirst);

  00035	ff 75 08	 push	 DWORD PTR __Cat$559882[ebp]
  00038	8b 0e		 mov	 ecx, DWORD PTR [esi]
  0003a	8b 47 04	 mov	 eax, DWORD PTR [edi+4]
  0003d	8b 3f		 mov	 edi, DWORD PTR [edi]
  0003f	8d 56 0c	 lea	 edx, DWORD PTR [esi+12]
  00042	52		 push	 edx
  00043	51		 push	 ecx
  00044	50		 push	 eax
  00045	57		 push	 edi
  00046	89 5d fc	 mov	 DWORD PTR __$EHRec$[ebp+12], ebx
  00049	e8 00 00 00 00	 call	 ??$_Uninit_copy@V?$_Vector_const_iterator@V?$_Vector_val@UForceInfo@@V?$allocator@UForceInfo@@@std@@@std@@@std@@PAUForceInfo@@V?$allocator@UForceInfo@@@2@@std@@YAPAUForceInfo@@V?$_Vector_const_iterator@V?$_Vector_val@UForceInfo@@V?$allocator@UForceInfo@@@std@@@std@@@0@0PAU1@AAV?$allocator@UForceInfo@@@0@U_Nonscalar_ptr_iterator_tag@0@@Z ; std::_Uninit_copy<std::_Vector_const_iterator<std::_Vector_val<ForceInfo,std::allocator<ForceInfo> > >,ForceInfo *,std::allocator<ForceInfo> >
  0004e	83 c4 14	 add	 esp, 20			; 00000014H
  00051	89 46 04	 mov	 DWORD PTR [esi+4], eax
$LN7@vector:

; 543  : 			_CATCH_END
; 544  : 		}

  00054	8b c6		 mov	 eax, esi
  00056	e8 00 00 00 00	 call	 __EH_epilog3
  0005b	c2 04 00	 ret	 4
__catch$??0?$vector@UForceInfo@@V?$allocator@UForceInfo@@@std@@@std@@QAE@ABV01@@Z$0:

; 540  : 			_CATCH_ALL
; 541  : 			_Tidy();

  0005e	8b 4d ec	 mov	 ecx, DWORD PTR _this$[ebp]
  00061	e8 00 00 00 00	 call	 ?_Tidy@?$vector@UForceInfo@@V?$allocator@UForceInfo@@@std@@@std@@IAEXXZ ; std::vector<ForceInfo,std::allocator<ForceInfo> >::_Tidy

; 542  : 			_RERAISE;

  00066	33 db		 xor	 ebx, ebx
  00068	53		 push	 ebx
  00069	53		 push	 ebx
  0006a	e8 00 00 00 00	 call	 __CxxThrowException@8
$LN38@vector:
$LN37@vector:
  0006f	cc		 int	 3
_TEXT	ENDS
;	COMDAT text$x
text$x	SEGMENT
__ehhandler$??0?$vector@UForceInfo@@V?$allocator@UForceInfo@@@std@@@std@@QAE@ABV01@@Z:
  00000	8b 54 24 08	 mov	 edx, DWORD PTR [esp+8]
  00004	8d 42 0c	 lea	 eax, DWORD PTR [edx+12]
  00007	8b 4a e8	 mov	 ecx, DWORD PTR [edx-24]
  0000a	33 c8		 xor	 ecx, eax
  0000c	e8 00 00 00 00	 call	 @__security_check_cookie@4
  00011	b8 00 00 00 00	 mov	 eax, OFFSET __ehfuncinfo$??0?$vector@UForceInfo@@V?$allocator@UForceInfo@@@std@@@std@@QAE@ABV01@@Z
  00016	e9 00 00 00 00	 jmp	 ___CxxFrameHandler3
text$x	ENDS
??0?$vector@UForceInfo@@V?$allocator@UForceInfo@@@std@@@std@@QAE@ABV01@@Z ENDP ; std::vector<ForceInfo,std::allocator<ForceInfo> >::vector<ForceInfo,std::allocator<ForceInfo> >
PUBLIC	??1?$vector@UForceInfo@@V?$allocator@UForceInfo@@@std@@@std@@QAE@XZ ; std::vector<ForceInfo,std::allocator<ForceInfo> >::~vector<ForceInfo,std::allocator<ForceInfo> >
; Function compile flags: /Ogsp
;	COMDAT ??1?$vector@UForceInfo@@V?$allocator@UForceInfo@@@std@@@std@@QAE@XZ
_TEXT	SEGMENT
??1?$vector@UForceInfo@@V?$allocator@UForceInfo@@@std@@@std@@QAE@XZ PROC ; std::vector<ForceInfo,std::allocator<ForceInfo> >::~vector<ForceInfo,std::allocator<ForceInfo> >, COMDAT
; _this$ = ecx

; 705  : 		_Tidy();

  00000	e9 00 00 00 00	 jmp	 ?_Tidy@?$vector@UForceInfo@@V?$allocator@UForceInfo@@@std@@@std@@IAEXXZ ; std::vector<ForceInfo,std::allocator<ForceInfo> >::_Tidy
??1?$vector@UForceInfo@@V?$allocator@UForceInfo@@@std@@@std@@QAE@XZ ENDP ; std::vector<ForceInfo,std::allocator<ForceInfo> >::~vector<ForceInfo,std::allocator<ForceInfo> >
_TEXT	ENDS
PUBLIC	?_Tidy@?$vector@UWeaponInfo@@V?$allocator@UWeaponInfo@@@std@@@std@@IAEXXZ ; std::vector<WeaponInfo,std::allocator<WeaponInfo> >::_Tidy
; Function compile flags: /Ogsp
;	COMDAT ?_Tidy@?$vector@UWeaponInfo@@V?$allocator@UWeaponInfo@@@std@@@std@@IAEXXZ
_TEXT	SEGMENT
?_Tidy@?$vector@UWeaponInfo@@V?$allocator@UWeaponInfo@@@std@@@std@@IAEXXZ PROC ; std::vector<WeaponInfo,std::allocator<WeaponInfo> >::_Tidy, COMDAT
; _this$ = ecx

; 1301 : 		{	// free all storage

  00000	56		 push	 esi
  00001	8b f1		 mov	 esi, ecx

; 1302 : 		if (this->_Myfirst != 0)

  00003	83 3e 00	 cmp	 DWORD PTR [esi], 0
  00006	74 1e		 je	 SHORT $LN6@Tidy@2

; 1303 : 			{	// something to free, destroy and deallocate it
; 1304 : 			this->_Orphan_all();

  00008	ff 15 00 00 00
	00		 call	 DWORD PTR __imp_?_Orphan_all@_Container_base0@std@@QAEXXZ

; 1305 : 			_Destroy(this->_Myfirst, this->_Mylast);

  0000e	8d 46 0c	 lea	 eax, DWORD PTR [esi+12]
  00011	50		 push	 eax
  00012	ff 76 04	 push	 DWORD PTR [esi+4]
  00015	ff 36		 push	 DWORD PTR [esi]
  00017	e8 00 00 00 00	 call	 ??$_Destroy_range@V?$allocator@UWeaponInfo@@@std@@@std@@YAXPAUWeaponInfo@@0AAV?$allocator@UWeaponInfo@@@0@@Z ; std::_Destroy_range<std::allocator<WeaponInfo> >

; 1306 : 			this->_Alval.deallocate(this->_Myfirst,
; 1307 : 				this->_Myend - this->_Myfirst);

  0001c	ff 36		 push	 DWORD PTR [esi]
  0001e	e8 00 00 00 00	 call	 ??3@YAXPAX@Z		; operator delete
  00023	83 c4 10	 add	 esp, 16			; 00000010H
$LN6@Tidy@2:

; 1308 : 			}
; 1309 : 		this->_Myfirst = 0;

  00026	83 26 00	 and	 DWORD PTR [esi], 0

; 1310 : 		this->_Mylast = 0;

  00029	83 66 04 00	 and	 DWORD PTR [esi+4], 0

; 1311 : 		this->_Myend = 0;

  0002d	83 66 08 00	 and	 DWORD PTR [esi+8], 0
  00031	5e		 pop	 esi

; 1312 : 		}

  00032	c3		 ret	 0
?_Tidy@?$vector@UWeaponInfo@@V?$allocator@UWeaponInfo@@@std@@@std@@IAEXXZ ENDP ; std::vector<WeaponInfo,std::allocator<WeaponInfo> >::_Tidy
_TEXT	ENDS
PUBLIC	??0?$vector@UWeaponInfo@@V?$allocator@UWeaponInfo@@@std@@@std@@QAE@ABV01@@Z ; std::vector<WeaponInfo,std::allocator<WeaponInfo> >::vector<WeaponInfo,std::allocator<WeaponInfo> >
;	COMDAT xdata$x
; File c:\program files (x86)\microsoft visual studio 10.0\vc\include\xutility
xdata$x	SEGMENT
__catchsym$??0?$vector@UWeaponInfo@@V?$allocator@UWeaponInfo@@@std@@@std@@QAE@ABV01@@Z$2 DD 040H
	DD	00H
	DD	00H
	DD	FLAT:__catch$??0?$vector@UWeaponInfo@@V?$allocator@UWeaponInfo@@@std@@@std@@QAE@ABV01@@Z$0
__unwindtable$??0?$vector@UWeaponInfo@@V?$allocator@UWeaponInfo@@@std@@@std@@QAE@ABV01@@Z DD 0ffffffffH
	DD	00H
	DD	0ffffffffH
	DD	00H
__tryblocktable$??0?$vector@UWeaponInfo@@V?$allocator@UWeaponInfo@@@std@@@std@@QAE@ABV01@@Z DD 00H
	DD	00H
	DD	01H
	DD	01H
	DD	FLAT:__catchsym$??0?$vector@UWeaponInfo@@V?$allocator@UWeaponInfo@@@std@@@std@@QAE@ABV01@@Z$2
__ehfuncinfo$??0?$vector@UWeaponInfo@@V?$allocator@UWeaponInfo@@@std@@@std@@QAE@ABV01@@Z DD 019930522H
	DD	02H
	DD	FLAT:__unwindtable$??0?$vector@UWeaponInfo@@V?$allocator@UWeaponInfo@@@std@@@std@@QAE@ABV01@@Z
	DD	01H
	DD	FLAT:__tryblocktable$??0?$vector@UWeaponInfo@@V?$allocator@UWeaponInfo@@@std@@@std@@QAE@ABV01@@Z
	DD	2 DUP(00H)
	DD	00H
	DD	01H
; Function compile flags: /Ogsp
; File c:\program files (x86)\microsoft visual studio 10.0\vc\include\vector
xdata$x	ENDS
;	COMDAT ??0?$vector@UWeaponInfo@@V?$allocator@UWeaponInfo@@@std@@@std@@QAE@ABV01@@Z
_TEXT	SEGMENT
_this$ = -20						; size = 4
__$EHRec$ = -16						; size = 16
__Cat$559997 = 8					; size = 1
__Right$ = 8						; size = 4
??0?$vector@UWeaponInfo@@V?$allocator@UWeaponInfo@@@std@@@std@@QAE@ABV01@@Z PROC ; std::vector<WeaponInfo,std::allocator<WeaponInfo> >::vector<WeaponInfo,std::allocator<WeaponInfo> >, COMDAT
; _this$ = ecx

; 535  : 		{	// construct by copying _Right

  00000	6a 08		 push	 8
  00002	b8 00 00 00 00	 mov	 eax, __ehhandler$??0?$vector@UWeaponInfo@@V?$allocator@UWeaponInfo@@@std@@@std@@QAE@ABV01@@Z
  00007	e8 00 00 00 00	 call	 __EH_prolog3_catch
  0000c	8b f1		 mov	 esi, ecx
  0000e	89 75 ec	 mov	 DWORD PTR _this$[ebp], esi

; 536  : 		if (_Buy(_Right.size()))

  00011	8b 7d 08	 mov	 edi, DWORD PTR __Right$[ebp]
  00014	33 db		 xor	 ebx, ebx
  00016	89 1e		 mov	 DWORD PTR [esi], ebx
  00018	89 5e 04	 mov	 DWORD PTR [esi+4], ebx
  0001b	89 5e 08	 mov	 DWORD PTR [esi+8], ebx
  0001e	8b 47 04	 mov	 eax, DWORD PTR [edi+4]
  00021	2b 07		 sub	 eax, DWORD PTR [edi]
  00023	6a 28		 push	 40			; 00000028H
  00025	59		 pop	 ecx
  00026	99		 cdq
  00027	f7 f9		 idiv	 ecx
  00029	8b ce		 mov	 ecx, esi
  0002b	50		 push	 eax
  0002c	e8 00 00 00 00	 call	 ?_Buy@?$vector@UWeaponInfo@@V?$allocator@UWeaponInfo@@@std@@@std@@IAE_NI@Z ; std::vector<WeaponInfo,std::allocator<WeaponInfo> >::_Buy
  00031	84 c0		 test	 al, al
  00033	74 1f		 je	 SHORT $LN7@vector@2

; 537  : 			_TRY_BEGIN
; 538  : 			this->_Mylast = _Ucopy(_Right.begin(), _Right.end(),
; 539  : 				this->_Myfirst);

  00035	ff 75 08	 push	 DWORD PTR __Cat$559997[ebp]
  00038	8b 0e		 mov	 ecx, DWORD PTR [esi]
  0003a	8b 47 04	 mov	 eax, DWORD PTR [edi+4]
  0003d	8b 3f		 mov	 edi, DWORD PTR [edi]
  0003f	8d 56 0c	 lea	 edx, DWORD PTR [esi+12]
  00042	52		 push	 edx
  00043	51		 push	 ecx
  00044	50		 push	 eax
  00045	57		 push	 edi
  00046	89 5d fc	 mov	 DWORD PTR __$EHRec$[ebp+12], ebx
  00049	e8 00 00 00 00	 call	 ??$_Uninit_copy@V?$_Vector_const_iterator@V?$_Vector_val@UWeaponInfo@@V?$allocator@UWeaponInfo@@@std@@@std@@@std@@PAUWeaponInfo@@V?$allocator@UWeaponInfo@@@2@@std@@YAPAUWeaponInfo@@V?$_Vector_const_iterator@V?$_Vector_val@UWeaponInfo@@V?$allocator@UWeaponInfo@@@std@@@std@@@0@0PAU1@AAV?$allocator@UWeaponInfo@@@0@U_Nonscalar_ptr_iterator_tag@0@@Z ; std::_Uninit_copy<std::_Vector_const_iterator<std::_Vector_val<WeaponInfo,std::allocator<WeaponInfo> > >,WeaponInfo *,std::allocator<WeaponInfo> >
  0004e	83 c4 14	 add	 esp, 20			; 00000014H
  00051	89 46 04	 mov	 DWORD PTR [esi+4], eax
$LN7@vector@2:

; 543  : 			_CATCH_END
; 544  : 		}

  00054	8b c6		 mov	 eax, esi
  00056	e8 00 00 00 00	 call	 __EH_epilog3
  0005b	c2 04 00	 ret	 4
__catch$??0?$vector@UWeaponInfo@@V?$allocator@UWeaponInfo@@@std@@@std@@QAE@ABV01@@Z$0:

; 540  : 			_CATCH_ALL
; 541  : 			_Tidy();

  0005e	8b 4d ec	 mov	 ecx, DWORD PTR _this$[ebp]
  00061	e8 00 00 00 00	 call	 ?_Tidy@?$vector@UWeaponInfo@@V?$allocator@UWeaponInfo@@@std@@@std@@IAEXXZ ; std::vector<WeaponInfo,std::allocator<WeaponInfo> >::_Tidy

; 542  : 			_RERAISE;

  00066	33 db		 xor	 ebx, ebx
  00068	53		 push	 ebx
  00069	53		 push	 ebx
  0006a	e8 00 00 00 00	 call	 __CxxThrowException@8
$LN38@vector@2:
$LN37@vector@2:
  0006f	cc		 int	 3
_TEXT	ENDS
;	COMDAT text$x
text$x	SEGMENT
__ehhandler$??0?$vector@UWeaponInfo@@V?$allocator@UWeaponInfo@@@std@@@std@@QAE@ABV01@@Z:
  00000	8b 54 24 08	 mov	 edx, DWORD PTR [esp+8]
  00004	8d 42 0c	 lea	 eax, DWORD PTR [edx+12]
  00007	8b 4a e8	 mov	 ecx, DWORD PTR [edx-24]
  0000a	33 c8		 xor	 ecx, eax
  0000c	e8 00 00 00 00	 call	 @__security_check_cookie@4
  00011	b8 00 00 00 00	 mov	 eax, OFFSET __ehfuncinfo$??0?$vector@UWeaponInfo@@V?$allocator@UWeaponInfo@@@std@@@std@@QAE@ABV01@@Z
  00016	e9 00 00 00 00	 jmp	 ___CxxFrameHandler3
text$x	ENDS
??0?$vector@UWeaponInfo@@V?$allocator@UWeaponInfo@@@std@@@std@@QAE@ABV01@@Z ENDP ; std::vector<WeaponInfo,std::allocator<WeaponInfo> >::vector<WeaponInfo,std::allocator<WeaponInfo> >
PUBLIC	??1?$vector@UWeaponInfo@@V?$allocator@UWeaponInfo@@@std@@@std@@QAE@XZ ; std::vector<WeaponInfo,std::allocator<WeaponInfo> >::~vector<WeaponInfo,std::allocator<WeaponInfo> >
; Function compile flags: /Ogsp
;	COMDAT ??1?$vector@UWeaponInfo@@V?$allocator@UWeaponInfo@@@std@@@std@@QAE@XZ
_TEXT	SEGMENT
??1?$vector@UWeaponInfo@@V?$allocator@UWeaponInfo@@@std@@@std@@QAE@XZ PROC ; std::vector<WeaponInfo,std::allocator<WeaponInfo> >::~vector<WeaponInfo,std::allocator<WeaponInfo> >, COMDAT
; _this$ = ecx

; 705  : 		_Tidy();

  00000	e9 00 00 00 00	 jmp	 ?_Tidy@?$vector@UWeaponInfo@@V?$allocator@UWeaponInfo@@@std@@@std@@IAEXXZ ; std::vector<WeaponInfo,std::allocator<WeaponInfo> >::_Tidy
??1?$vector@UWeaponInfo@@V?$allocator@UWeaponInfo@@@std@@@std@@QAE@XZ ENDP ; std::vector<WeaponInfo,std::allocator<WeaponInfo> >::~vector<WeaponInfo,std::allocator<WeaponInfo> >
_TEXT	ENDS
PUBLIC	??0AttackAttribute@@QAE@ABU0@@Z			; AttackAttribute::AttackAttribute
;	COMDAT xdata$x
xdata$x	SEGMENT
__unwindtable$??0AttackAttribute@@QAE@ABU0@@Z DD 0ffffffffH
	DD	FLAT:__unwindfunclet$??0AttackAttribute@@QAE@ABU0@@Z$0
	DD	00H
	DD	FLAT:__unwindfunclet$??0AttackAttribute@@QAE@ABU0@@Z$1
	DD	01H
	DD	FLAT:__unwindfunclet$??0AttackAttribute@@QAE@ABU0@@Z$2
__ehfuncinfo$??0AttackAttribute@@QAE@ABU0@@Z DD 019930522H
	DD	03H
	DD	FLAT:__unwindtable$??0AttackAttribute@@QAE@ABU0@@Z
	DD	2 DUP(00H)
	DD	2 DUP(00H)
	DD	00H
	DD	01H
; Function compile flags: /Ogsp
xdata$x	ENDS
;	COMDAT ??0AttackAttribute@@QAE@ABU0@@Z
_TEXT	SEGMENT
_this$ = -16						; size = 4
__$EHRec$ = -12						; size = 12
___that$ = 8						; size = 4
??0AttackAttribute@@QAE@ABU0@@Z PROC			; AttackAttribute::AttackAttribute, COMDAT
; _this$ = ecx
  00000	6a 04		 push	 4
  00002	b8 00 00 00 00	 mov	 eax, __ehhandler$??0AttackAttribute@@QAE@ABU0@@Z
  00007	e8 00 00 00 00	 call	 __EH_prolog3
  0000c	8b f1		 mov	 esi, ecx
  0000e	89 75 f0	 mov	 DWORD PTR _this$[ebp], esi
  00011	8b 7d 08	 mov	 edi, DWORD PTR ___that$[ebp]
  00014	8b 1d 00 00 00
	00		 mov	 ebx, DWORD PTR __imp_??0ioHashString@@QAE@ABV0@@Z
  0001a	57		 push	 edi
  0001b	ff d3		 call	 ebx
  0001d	d9 47 10	 fld	 DWORD PTR [edi+16]
  00020	83 65 fc 00	 and	 DWORD PTR __$EHRec$[ebp+8], 0
  00024	d9 5e 10	 fstp	 DWORD PTR [esi+16]
  00027	8d 47 14	 lea	 eax, DWORD PTR [edi+20]
  0002a	50		 push	 eax
  0002b	8d 4e 14	 lea	 ecx, DWORD PTR [esi+20]
  0002e	ff d3		 call	 ebx
  00030	d9 47 24	 fld	 DWORD PTR [edi+36]
  00033	8d 47 28	 lea	 eax, DWORD PTR [edi+40]
  00036	d9 5e 24	 fstp	 DWORD PTR [esi+36]
  00039	50		 push	 eax
  0003a	8d 4e 28	 lea	 ecx, DWORD PTR [esi+40]
  0003d	c6 45 fc 01	 mov	 BYTE PTR __$EHRec$[ebp+8], 1
  00041	e8 00 00 00 00	 call	 ??0?$vector@UWeaponInfo@@V?$allocator@UWeaponInfo@@@std@@@std@@QAE@ABV01@@Z ; std::vector<WeaponInfo,std::allocator<WeaponInfo> >::vector<WeaponInfo,std::allocator<WeaponInfo> >
  00046	8d 47 38	 lea	 eax, DWORD PTR [edi+56]
  00049	50		 push	 eax
  0004a	8d 4e 38	 lea	 ecx, DWORD PTR [esi+56]
  0004d	c6 45 fc 02	 mov	 BYTE PTR __$EHRec$[ebp+8], 2
  00051	e8 00 00 00 00	 call	 ??0?$vector@UForceInfo@@V?$allocator@UForceInfo@@@std@@@std@@QAE@ABV01@@Z ; std::vector<ForceInfo,std::allocator<ForceInfo> >::vector<ForceInfo,std::allocator<ForceInfo> >
  00056	8b 47 48	 mov	 eax, DWORD PTR [edi+72]
  00059	89 46 48	 mov	 DWORD PTR [esi+72], eax
  0005c	8b 47 4c	 mov	 eax, DWORD PTR [edi+76]
  0005f	89 46 4c	 mov	 DWORD PTR [esi+76], eax
  00062	8b c6		 mov	 eax, esi
  00064	e8 00 00 00 00	 call	 __EH_epilog3
  00069	c2 04 00	 ret	 4
_TEXT	ENDS
;	COMDAT text$x
text$x	SEGMENT
__unwindfunclet$??0AttackAttribute@@QAE@ABU0@@Z$0:
  00000	8b 4d f0	 mov	 ecx, DWORD PTR _this$[ebp]
  00003	ff 25 00 00 00
	00		 jmp	 DWORD PTR __imp_??1ioHashString@@QAE@XZ
__unwindfunclet$??0AttackAttribute@@QAE@ABU0@@Z$1:
  00009	8b 4d f0	 mov	 ecx, DWORD PTR _this$[ebp]
  0000c	83 c1 14	 add	 ecx, 20			; 00000014H
  0000f	ff 25 00 00 00
	00		 jmp	 DWORD PTR __imp_??1ioHashString@@QAE@XZ
__unwindfunclet$??0AttackAttribute@@QAE@ABU0@@Z$2:
  00015	8b 4d f0	 mov	 ecx, DWORD PTR _this$[ebp]
  00018	83 c1 28	 add	 ecx, 40			; 00000028H
  0001b	e9 00 00 00 00	 jmp	 ??1?$vector@UWeaponInfo@@V?$allocator@UWeaponInfo@@@std@@@std@@QAE@XZ ; std::vector<WeaponInfo,std::allocator<WeaponInfo> >::~vector<WeaponInfo,std::allocator<WeaponInfo> >
__ehhandler$??0AttackAttribute@@QAE@ABU0@@Z:
  00020	8b 54 24 08	 mov	 edx, DWORD PTR [esp+8]
  00024	8d 42 0c	 lea	 eax, DWORD PTR [edx+12]
  00027	8b 4a ec	 mov	 ecx, DWORD PTR [edx-20]
  0002a	33 c8		 xor	 ecx, eax
  0002c	e8 00 00 00 00	 call	 @__security_check_cookie@4
  00031	b8 00 00 00 00	 mov	 eax, OFFSET __ehfuncinfo$??0AttackAttribute@@QAE@ABU0@@Z
  00036	e9 00 00 00 00	 jmp	 ___CxxFrameHandler3
text$x	ENDS
??0AttackAttribute@@QAE@ABU0@@Z ENDP			; AttackAttribute::AttackAttribute
PUBLIC	??0AttackAttribute@@QAE@XZ			; AttackAttribute::AttackAttribute
;	COMDAT xdata$x
; File c:\program files (x86)\microsoft visual studio 10.0\vc\include\xmemory
xdata$x	SEGMENT
__unwindtable$??0AttackAttribute@@QAE@XZ DD 0ffffffffH
	DD	FLAT:__unwindfunclet$??0AttackAttribute@@QAE@XZ$0
	DD	00H
	DD	FLAT:__unwindfunclet$??0AttackAttribute@@QAE@XZ$1
	DD	01H
	DD	FLAT:__unwindfunclet$??0AttackAttribute@@QAE@XZ$2
	DD	02H
	DD	FLAT:__unwindfunclet$??0AttackAttribute@@QAE@XZ$3
__ehfuncinfo$??0AttackAttribute@@QAE@XZ DD 019930522H
	DD	04H
	DD	FLAT:__unwindtable$??0AttackAttribute@@QAE@XZ
	DD	2 DUP(00H)
	DD	2 DUP(00H)
	DD	00H
	DD	01H
; Function compile flags: /Ogsp
; File d:\lost saga for developer\youtube\tutorial\source\src\lsclient\ioattackattribute.h
xdata$x	ENDS
;	COMDAT ??0AttackAttribute@@QAE@XZ
_TEXT	SEGMENT
_this$ = -16						; size = 4
__$EHRec$ = -12						; size = 12
??0AttackAttribute@@QAE@XZ PROC				; AttackAttribute::AttackAttribute, COMDAT
; _this$ = ecx

; 107  : 	AttackAttribute()

  00000	6a 04		 push	 4
  00002	b8 00 00 00 00	 mov	 eax, __ehhandler$??0AttackAttribute@@QAE@XZ
  00007	e8 00 00 00 00	 call	 __EH_prolog3
  0000c	8b f1		 mov	 esi, ecx
  0000e	89 75 f0	 mov	 DWORD PTR _this$[ebp], esi
  00011	8b 3d 00 00 00
	00		 mov	 edi, DWORD PTR __imp_??0ioHashString@@QAE@XZ
  00017	ff d7		 call	 edi
  00019	33 db		 xor	 ebx, ebx
  0001b	8d 4e 14	 lea	 ecx, DWORD PTR [esi+20]
  0001e	89 5d fc	 mov	 DWORD PTR __$EHRec$[ebp+8], ebx
  00021	ff d7		 call	 edi
  00023	89 5e 28	 mov	 DWORD PTR [esi+40], ebx
  00026	89 5e 2c	 mov	 DWORD PTR [esi+44], ebx
  00029	89 5e 30	 mov	 DWORD PTR [esi+48], ebx
  0002c	89 5e 38	 mov	 DWORD PTR [esi+56], ebx
  0002f	89 5e 3c	 mov	 DWORD PTR [esi+60], ebx
  00032	89 5e 40	 mov	 DWORD PTR [esi+64], ebx

; 108  : 	{
; 109  : 		Init();

  00035	8b ce		 mov	 ecx, esi
  00037	c6 45 fc 03	 mov	 BYTE PTR __$EHRec$[ebp+8], 3
  0003b	e8 00 00 00 00	 call	 ?Init@AttackAttribute@@QAEXXZ ; AttackAttribute::Init

; 110  : 	}

  00040	8b c6		 mov	 eax, esi
  00042	e8 00 00 00 00	 call	 __EH_epilog3
  00047	c3		 ret	 0
_TEXT	ENDS
;	COMDAT text$x
text$x	SEGMENT
__unwindfunclet$??0AttackAttribute@@QAE@XZ$0:
  00000	8b 4d f0	 mov	 ecx, DWORD PTR _this$[ebp]
  00003	ff 25 00 00 00
	00		 jmp	 DWORD PTR __imp_??1ioHashString@@QAE@XZ
__unwindfunclet$??0AttackAttribute@@QAE@XZ$1:
  00009	8b 4d f0	 mov	 ecx, DWORD PTR _this$[ebp]
  0000c	83 c1 14	 add	 ecx, 20			; 00000014H
  0000f	ff 25 00 00 00
	00		 jmp	 DWORD PTR __imp_??1ioHashString@@QAE@XZ
__unwindfunclet$??0AttackAttribute@@QAE@XZ$2:
  00015	8b 4d f0	 mov	 ecx, DWORD PTR _this$[ebp]
  00018	83 c1 28	 add	 ecx, 40			; 00000028H
  0001b	e9 00 00 00 00	 jmp	 ??1?$vector@UWeaponInfo@@V?$allocator@UWeaponInfo@@@std@@@std@@QAE@XZ ; std::vector<WeaponInfo,std::allocator<WeaponInfo> >::~vector<WeaponInfo,std::allocator<WeaponInfo> >
__unwindfunclet$??0AttackAttribute@@QAE@XZ$3:
  00020	8b 4d f0	 mov	 ecx, DWORD PTR _this$[ebp]
  00023	83 c1 38	 add	 ecx, 56			; 00000038H
  00026	e9 00 00 00 00	 jmp	 ??1?$vector@UForceInfo@@V?$allocator@UForceInfo@@@std@@@std@@QAE@XZ ; std::vector<ForceInfo,std::allocator<ForceInfo> >::~vector<ForceInfo,std::allocator<ForceInfo> >
__ehhandler$??0AttackAttribute@@QAE@XZ:
  0002b	8b 54 24 08	 mov	 edx, DWORD PTR [esp+8]
  0002f	8d 42 0c	 lea	 eax, DWORD PTR [edx+12]
  00032	8b 4a ec	 mov	 ecx, DWORD PTR [edx-20]
  00035	33 c8		 xor	 ecx, eax
  00037	e8 00 00 00 00	 call	 @__security_check_cookie@4
  0003c	b8 00 00 00 00	 mov	 eax, OFFSET __ehfuncinfo$??0AttackAttribute@@QAE@XZ
  00041	e9 00 00 00 00	 jmp	 ___CxxFrameHandler3
text$x	ENDS
??0AttackAttribute@@QAE@XZ ENDP				; AttackAttribute::AttackAttribute
PUBLIC	??1AttackAttribute@@QAE@XZ			; AttackAttribute::~AttackAttribute
;	COMDAT xdata$x
xdata$x	SEGMENT
__unwindtable$??1AttackAttribute@@QAE@XZ DD 0ffffffffH
	DD	FLAT:__unwindfunclet$??1AttackAttribute@@QAE@XZ$0
	DD	00H
	DD	FLAT:__unwindfunclet$??1AttackAttribute@@QAE@XZ$1
	DD	01H
	DD	FLAT:__unwindfunclet$??1AttackAttribute@@QAE@XZ$2
__ehfuncinfo$??1AttackAttribute@@QAE@XZ DD 019930522H
	DD	03H
	DD	FLAT:__unwindtable$??1AttackAttribute@@QAE@XZ
	DD	2 DUP(00H)
	DD	2 DUP(00H)
	DD	00H
	DD	01H
; Function compile flags: /Ogsp
xdata$x	ENDS
;	COMDAT ??1AttackAttribute@@QAE@XZ
_TEXT	SEGMENT
_this$ = -16						; size = 4
__$EHRec$ = -12						; size = 12
??1AttackAttribute@@QAE@XZ PROC				; AttackAttribute::~AttackAttribute, COMDAT
; _this$ = ecx
  00000	6a 04		 push	 4
  00002	b8 00 00 00 00	 mov	 eax, __ehhandler$??1AttackAttribute@@QAE@XZ
  00007	e8 00 00 00 00	 call	 __EH_prolog3
  0000c	8b f1		 mov	 esi, ecx
  0000e	89 75 f0	 mov	 DWORD PTR _this$[ebp], esi
  00011	8d 4e 38	 lea	 ecx, DWORD PTR [esi+56]
  00014	c7 45 fc 02 00
	00 00		 mov	 DWORD PTR __$EHRec$[ebp+8], 2
  0001b	e8 00 00 00 00	 call	 ?_Tidy@?$vector@UForceInfo@@V?$allocator@UForceInfo@@@std@@@std@@IAEXXZ ; std::vector<ForceInfo,std::allocator<ForceInfo> >::_Tidy
  00020	8d 4e 28	 lea	 ecx, DWORD PTR [esi+40]
  00023	c6 45 fc 01	 mov	 BYTE PTR __$EHRec$[ebp+8], 1
  00027	e8 00 00 00 00	 call	 ?_Tidy@?$vector@UWeaponInfo@@V?$allocator@UWeaponInfo@@@std@@@std@@IAEXXZ ; std::vector<WeaponInfo,std::allocator<WeaponInfo> >::_Tidy
  0002c	8b 3d 00 00 00
	00		 mov	 edi, DWORD PTR __imp_??1ioHashString@@QAE@XZ
  00032	8d 4e 14	 lea	 ecx, DWORD PTR [esi+20]
  00035	c6 45 fc 00	 mov	 BYTE PTR __$EHRec$[ebp+8], 0
  00039	ff d7		 call	 edi
  0003b	83 4d fc ff	 or	 DWORD PTR __$EHRec$[ebp+8], -1
  0003f	8b ce		 mov	 ecx, esi
  00041	ff d7		 call	 edi
  00043	e8 00 00 00 00	 call	 __EH_epilog3
  00048	c3		 ret	 0
_TEXT	ENDS
;	COMDAT text$x
text$x	SEGMENT
__unwindfunclet$??1AttackAttribute@@QAE@XZ$0:
  00000	8b 4d f0	 mov	 ecx, DWORD PTR _this$[ebp]
  00003	ff 25 00 00 00
	00		 jmp	 DWORD PTR __imp_??1ioHashString@@QAE@XZ
__unwindfunclet$??1AttackAttribute@@QAE@XZ$1:
  00009	8b 4d f0	 mov	 ecx, DWORD PTR _this$[ebp]
  0000c	83 c1 14	 add	 ecx, 20			; 00000014H
  0000f	ff 25 00 00 00
	00		 jmp	 DWORD PTR __imp_??1ioHashString@@QAE@XZ
__unwindfunclet$??1AttackAttribute@@QAE@XZ$2:
  00015	8b 4d f0	 mov	 ecx, DWORD PTR _this$[ebp]
  00018	83 c1 28	 add	 ecx, 40			; 00000028H
  0001b	e9 00 00 00 00	 jmp	 ??1?$vector@UWeaponInfo@@V?$allocator@UWeaponInfo@@@std@@@std@@QAE@XZ ; std::vector<WeaponInfo,std::allocator<WeaponInfo> >::~vector<WeaponInfo,std::allocator<WeaponInfo> >
__ehhandler$??1AttackAttribute@@QAE@XZ:
  00020	8b 54 24 08	 mov	 edx, DWORD PTR [esp+8]
  00024	8d 42 0c	 lea	 eax, DWORD PTR [edx+12]
  00027	8b 4a ec	 mov	 ecx, DWORD PTR [edx-20]
  0002a	33 c8		 xor	 ecx, eax
  0002c	e8 00 00 00 00	 call	 @__security_check_cookie@4
  00031	b8 00 00 00 00	 mov	 eax, OFFSET __ehfuncinfo$??1AttackAttribute@@QAE@XZ
  00036	e9 00 00 00 00	 jmp	 ___CxxFrameHandler3
text$x	ENDS
??1AttackAttribute@@QAE@XZ ENDP				; AttackAttribute::~AttackAttribute
PUBLIC	??_7ioChargingFireSkill4@@6B@			; ioChargingFireSkill4::`vftable'
PUBLIC	??0ioChargingFireSkill4@@QAE@XZ			; ioChargingFireSkill4::ioChargingFireSkill4
PUBLIC	??_R4ioChargingFireSkill4@@6B@			; ioChargingFireSkill4::`RTTI Complete Object Locator'
PUBLIC	??_R0?AVioChargingFireSkill4@@@8		; ioChargingFireSkill4 `RTTI Type Descriptor'
PUBLIC	??_R3ioChargingFireSkill4@@8			; ioChargingFireSkill4::`RTTI Class Hierarchy Descriptor'
PUBLIC	??_R2ioChargingFireSkill4@@8			; ioChargingFireSkill4::`RTTI Base Class Array'
PUBLIC	??_R1A@?0A@EA@ioChargingFireSkill4@@8		; ioChargingFireSkill4::`RTTI Base Class Descriptor at (0,-1,0,64)'
PUBLIC	??_R1A@?0A@EA@ioNormalSkill@@8			; ioNormalSkill::`RTTI Base Class Descriptor at (0,-1,0,64)'
PUBLIC	??_R0?AVioNormalSkill@@@8			; ioNormalSkill `RTTI Type Descriptor'
PUBLIC	??_R3ioNormalSkill@@8				; ioNormalSkill::`RTTI Class Hierarchy Descriptor'
PUBLIC	??_R2ioNormalSkill@@8				; ioNormalSkill::`RTTI Base Class Array'
PUBLIC	??_R1A@?0A@EA@ioSkill@@8			; ioSkill::`RTTI Base Class Descriptor at (0,-1,0,64)'
PUBLIC	??_R0?AVioSkill@@@8				; ioSkill `RTTI Type Descriptor'
PUBLIC	??_R3ioSkill@@8					; ioSkill::`RTTI Class Hierarchy Descriptor'
PUBLIC	??_R2ioSkill@@8					; ioSkill::`RTTI Base Class Array'
PUBLIC	?Clone@ioChargingFireSkill4@@UAEPAVioSkill@@XZ	; ioChargingFireSkill4::Clone
PUBLIC	?GetDefenseSkillBreakeType@ioSkill@@UBE?AW4DefenseBreakType@@XZ ; ioSkill::GetDefenseSkillBreakeType
PUBLIC	?GetSkillEndNextJumpAmt@ioSkill@@UBEMXZ		; ioSkill::GetSkillEndNextJumpAmt
PUBLIC	?GetSkillEndNextLandRate@ioSkill@@UBEMXZ	; ioSkill::GetSkillEndNextLandRate
PUBLIC	?GetSkillEndNextJumpMustEnable@ioSkill@@UAE?AW4SkillEndJumpType@@XZ ; ioSkill::GetSkillEndNextJumpMustEnable
PUBLIC	?EnableChangeGrapplingTargetPos@ioSkill@@UBE_NXZ ; ioSkill::EnableChangeGrapplingTargetPos
PUBLIC	?IsInvisibleBottomCircle@ioSkill@@UAE_NPAVioBaseChar@@@Z ; ioSkill::IsInvisibleBottomCircle
PUBLIC	?IsCanJumpingSkill@ioSkill@@UBE_NXZ		; ioSkill::IsCanJumpingSkill
PUBLIC	?IsCanJumpingSkillOnBlowWound@ioSkill@@UBE_NXZ	; ioSkill::IsCanJumpingSkillOnBlowWound
PUBLIC	?IsCanDownSkill@ioSkill@@UBE_NXZ		; ioSkill::IsCanDownSkill
PUBLIC	?IsCanBlowWoundSkill@ioSkill@@UBE_NXZ		; ioSkill::IsCanBlowWoundSkill
PUBLIC	?IsCanWoundSkill@ioSkill@@UBE_NXZ		; ioSkill::IsCanWoundSkill
PUBLIC	?IsUseActiveCnt@ioSkill@@UBE_NXZ		; ioSkill::IsUseActiveCnt
PUBLIC	?GetMaxActiveCnt@ioSkill@@UBEHPAVioBaseChar@@@Z	; ioSkill::GetMaxActiveCnt
PUBLIC	?GetCurActiveCnt@ioSkill@@UBEHPAVioBaseChar@@@Z	; ioSkill::GetCurActiveCnt
EXTRN	??1ioNormalSkill@@UAE@XZ:PROC			; ioNormalSkill::~ioNormalSkill
EXTRN	??0ioNormalSkill@@QAE@XZ:PROC			; ioNormalSkill::ioNormalSkill
EXTRN	?GetTypeID@ioNormalSkill@@UBEHXZ:PROC		; ioNormalSkill::GetTypeID
EXTRN	?IsCanSwitchSkill@ioSkill@@UBE_NXZ:PROC		; ioSkill::IsCanSwitchSkill
EXTRN	?IsCanSemiSwitchSkill@ioSkill@@UBE_NXZ:PROC	; ioSkill::IsCanSemiSwitchSkill
EXTRN	?IsCanCancelBySkill@ioSkill@@UBE_NPAVioBaseChar@@AAH@Z:PROC ; ioSkill::IsCanCancelBySkill
EXTRN	?IsCanUseZeroHP@ioSkill@@UBE_NPAVioBaseChar@@@Z:PROC ; ioSkill::IsCanUseZeroHP
EXTRN	?IsCanUseSkillWithCrown@ioSkill@@UAE_NPAVioBaseChar@@@Z:PROC ; ioSkill::IsCanUseSkillWithCrown
EXTRN	?IsCanUseBoss@ioSkill@@UBE_NPAVioBaseChar@@@Z:PROC ; ioSkill::IsCanUseBoss
EXTRN	?IsCanUseFootball@ioSkill@@UBE_NXZ:PROC		; ioSkill::IsCanUseFootball
EXTRN	?IsCanUseGangSiMode@ioSkill@@UBE_NXZ:PROC	; ioSkill::IsCanUseGangSiMode
EXTRN	?IsCanUseByWeaponType@ioSkill@@UBE_NPAVioBaseChar@@@Z:PROC ; ioSkill::IsCanUseByWeaponType
EXTRN	?IsCanUseThunderBirdHold@ioSkill@@UBE_NPAVioBaseChar@@@Z:PROC ; ioSkill::IsCanUseThunderBirdHold
EXTRN	?IsCanUseLimitHP@ioSkill@@UBE_NPAVioBaseChar@@@Z:PROC ; ioSkill::IsCanUseLimitHP
EXTRN	?IsCanUseSkill@ioNormalSkill@@UAE_NPAVioBaseChar@@_N@Z:PROC ; ioNormalSkill::IsCanUseSkill
EXTRN	?IsOnOffEnable@ioSkill@@UAE_NXZ:PROC		; ioSkill::IsOnOffEnable
EXTRN	?IsCanDefenseStateSkill@ioSkill@@UAE_NXZ:PROC	; ioSkill::IsCanDefenseStateSkill
EXTRN	?SetDefenseStateSkill@ioSkill@@UAEXPAVioBaseChar@@@Z:PROC ; ioSkill::SetDefenseStateSkill
EXTRN	?HasBuff@ioSkill@@UBE_NH@Z:PROC			; ioSkill::HasBuff
EXTRN	?GetBuffType@ioSkill@@UAEHH@Z:PROC		; ioSkill::GetBuffType
EXTRN	?IsEnableReserve@ioSkill@@UBE_NXZ:PROC		; ioSkill::IsEnableReserve
EXTRN	?IsCharSkipState@ioSkill@@UBE?AW4SkillCharColType@@XZ:PROC ; ioSkill::IsCharSkipState
EXTRN	?IsEntityCollisionSkipState@ioSkill@@UBE_NXZ:PROC ; ioSkill::IsEntityCollisionSkipState
EXTRN	?IsEndState@ioSkill@@UBE_NXZ:PROC		; ioSkill::IsEndState
EXTRN	?IsJumpState@ioSkill@@UBE_NXZ:PROC		; ioSkill::IsJumpState
EXTRN	?IsDownState@ioSkill@@UBE_NXZ:PROC		; ioSkill::IsDownState
EXTRN	?IsNoDropState@ioSkill@@UBE_NXZ:PROC		; ioSkill::IsNoDropState
EXTRN	?IsCanSendControl@ioSkill@@UBE_NXZ:PROC		; ioSkill::IsCanSendControl
EXTRN	?IsSkipState@ioSkill@@UBE_NXZ:PROC		; ioSkill::IsSkipState
EXTRN	?GetSkillMoveRate@ioSkill@@UBEMXZ:PROC		; ioSkill::GetSkillMoveRate
EXTRN	?SetSkillGrapplingState@ioSkill@@UAE_NPAVioBaseChar@@ABVioHashString@@@Z:PROC ; ioSkill::SetSkillGrapplingState
EXTRN	?GetGrapplingTargetPos@ioSkill@@UAE?AUD3DXVECTOR3@@PAVioBaseChar@@0@Z:PROC ; ioSkill::GetGrapplingTargetPos
EXTRN	?GetGrapplingTargetPos@ioSkill@@UAE?AUD3DXVECTOR3@@PAVioBaseChar@@@Z:PROC ; ioSkill::GetGrapplingTargetPos
EXTRN	?GetSkillWoundGrapplingInfo@ioSkill@@UAE?AUGrapplingSkillWoundedInfo@@XZ:PROC ; ioSkill::GetSkillWoundGrapplingInfo
EXTRN	?SetCreateWeaponDependency@ioSkill@@UAEXPAVioBaseChar@@PAVioPlayStage@@@Z:PROC ; ioSkill::SetCreateWeaponDependency
EXTRN	?SetNextSkillState@ioSkill@@UAEXPAVioBaseChar@@PAVioWeapon@@@Z:PROC ; ioSkill::SetNextSkillState
EXTRN	?OnSkillEndByWounded@ioSkill@@UAEXPAVioBaseChar@@@Z:PROC ; ioSkill::OnSkillEndByWounded
EXTRN	?OnProcessNotUseSkill@ioSkill@@UAEXPAVioBaseChar@@PAVioPlayStage@@@Z:PROC ; ioSkill::OnProcessNotUseSkill
EXTRN	?OnSkillItemRelease@ioSkill@@UAEXPAVioBaseChar@@@Z:PROC ; ioSkill::OnSkillItemRelease
EXTRN	?ApplyEquipSlotSkillExtraInfo@ioSkill@@UAEXPAVioBaseChar@@PAVioPlayStage@@AAVSP2Packet@@@Z:PROC ; ioSkill::ApplyEquipSlotSkillExtraInfo
EXTRN	?ApplyExtraPassiveSkillInfo@ioSkill@@UAEXPAVioBaseChar@@PAVioPlayStage@@AAVSP2Packet@@@Z:PROC ; ioSkill::ApplyExtraPassiveSkillInfo
EXTRN	?StartPreDelayEffect@ioNormalSkill@@UAEXPAVioBaseChar@@@Z:PROC ; ioNormalSkill::StartPreDelayEffect
EXTRN	?EndPreDelayEffect@ioNormalSkill@@UAEXPAVioBaseChar@@@Z:PROC ; ioNormalSkill::EndPreDelayEffect
EXTRN	?IsUseAutoTargetValue@ioSkill@@UAE_NXZ:PROC	; ioSkill::IsUseAutoTargetValue
EXTRN	?IsAutoTargetDownState@ioSkill@@UAE_NXZ:PROC	; ioSkill::IsAutoTargetDownState
EXTRN	?CheckUseBuff@ioSkill@@UAE_NPAVioBaseChar@@@Z:PROC ; ioSkill::CheckUseBuff
EXTRN	?CheckUseActiveCount@ioSkill@@UAE_NXZ:PROC	; ioSkill::CheckUseActiveCount
EXTRN	?CheckAniRotate@ioSkill@@UAEXPAVioBaseChar@@@Z:PROC ; ioSkill::CheckAniRotate
EXTRN	?IsEnableDashCheck@ioSkill@@UAE_NPAVioBaseChar@@@Z:PROC ; ioSkill::IsEnableDashCheck
EXTRN	?IsEnableMultiActive@ioSkill@@UAE_NPAVioBaseChar@@@Z:PROC ; ioSkill::IsEnableMultiActive
EXTRN	?GetAutoTargetValue@ioSkill@@UAEXAAM00@Z:PROC	; ioSkill::GetAutoTargetValue
EXTRN	?GetSkillGravityRate@ioSkill@@UAEMXZ:PROC	; ioSkill::GetSkillGravityRate
EXTRN	?GetSkillMotionName@ioSkill@@UBEABVioHashString@@XZ:PROC ; ioSkill::GetSkillMotionName
EXTRN	?HasSkillMotion@ioSkill@@UBE_NXZ:PROC		; ioSkill::HasSkillMotion
EXTRN	?GetSkillMotionRate@ioSkill@@UBEMXZ:PROC	; ioSkill::GetSkillMotionRate
EXTRN	?IsPreDelayProtect@ioSkill@@UBE_NXZ:PROC	; ioSkill::IsPreDelayProtect
EXTRN	?GetPreDelayAniName@ioSkill@@UBEABVioHashString@@XZ:PROC ; ioSkill::GetPreDelayAniName
EXTRN	?GetPreDelayTime@ioSkill@@UBEKXZ:PROC		; ioSkill::GetPreDelayTime
EXTRN	?GetPreDelayOwnerEffect@ioSkill@@UBEABVioHashString@@XZ:PROC ; ioSkill::GetPreDelayOwnerEffect
EXTRN	?GetPreDelayOtherEffect@ioSkill@@UBEABVioHashString@@XZ:PROC ; ioSkill::GetPreDelayOtherEffect
EXTRN	?SetCancelSkill@ioSkill@@UAEXPAVioBaseChar@@@Z:PROC ; ioSkill::SetCancelSkill
EXTRN	?ClearAirJump@ioSkill@@MAEXXZ:PROC		; ioSkill::ClearAirJump
EXTRN	?SetAirJump@ioSkill@@MAEXPAVioBaseChar@@HM@Z:PROC ; ioSkill::SetAirJump
EXTRN	?CheckAirJump@ioSkill@@MAEXPAVioBaseChar@@@Z:PROC ; ioSkill::CheckAirJump
EXTRN	?UseActiveCount@ioSkill@@UAE_NPAVioBaseChar@@@Z:PROC ; ioSkill::UseActiveCount
EXTRN	?GetMaxActiveCount@ioSkill@@UAEHPAVioBaseChar@@@Z:PROC ; ioSkill::GetMaxActiveCount
EXTRN	?GetCurActiveCount@ioSkill@@UAEHPAVioBaseChar@@@Z:PROC ; ioSkill::GetCurActiveCount
EXTRN	?HideHPGauge@ioSkill@@UAE_NXZ:PROC		; ioSkill::HideHPGauge
EXTRN	?SetInfoByApplyWeapon@ioSkill@@UAEXPAVioBaseChar@@0K_N@Z:PROC ; ioSkill::SetInfoByApplyWeapon
EXTRN	?SetCollisionByApplySkill@ioSkill@@UAEXXZ:PROC	; ioSkill::SetCollisionByApplySkill
EXTRN	?SetChargingRateForWeapon@ioSkill@@UAEXPAVioWeapon@@@Z:PROC ; ioSkill::SetChargingRateForWeapon
EXTRN	?CheckExceptionCamera@ioSkill@@UAE_NXZ:PROC	; ioSkill::CheckExceptionCamera
EXTRN	?GetExceptionCameraPos@ioSkill@@UAE?AUD3DXVECTOR3@@PAVioBaseChar@@@Z:PROC ; ioSkill::GetExceptionCameraPos
EXTRN	?IsFixedExceptionCamera@ioSkill@@UAE_NXZ:PROC	; ioSkill::IsFixedExceptionCamera
EXTRN	??_EioChargingFireSkill4@@UAEPAXI@Z:PROC	; ioChargingFireSkill4::`vector deleting destructor'
;	COMDAT ??_R2ioSkill@@8
; File d:\lost saga for developer\youtube\tutorial\source\src\lsclient\encryptvalue.h
rdata$r	SEGMENT
??_R2ioSkill@@8 DD FLAT:??_R1A@?0A@EA@ioSkill@@8	; ioSkill::`RTTI Base Class Array'
rdata$r	ENDS
;	COMDAT ??_R3ioSkill@@8
rdata$r	SEGMENT
??_R3ioSkill@@8 DD 00H					; ioSkill::`RTTI Class Hierarchy Descriptor'
	DD	00H
	DD	01H
	DD	FLAT:??_R2ioSkill@@8
rdata$r	ENDS
;	COMDAT ??_R0?AVioSkill@@@8
_DATA	SEGMENT
??_R0?AVioSkill@@@8 DD FLAT:??_7type_info@@6B@		; ioSkill `RTTI Type Descriptor'
	DD	00H
	DB	'.?AVioSkill@@', 00H
_DATA	ENDS
;	COMDAT ??_R1A@?0A@EA@ioSkill@@8
rdata$r	SEGMENT
??_R1A@?0A@EA@ioSkill@@8 DD FLAT:??_R0?AVioSkill@@@8	; ioSkill::`RTTI Base Class Descriptor at (0,-1,0,64)'
	DD	00H
	DD	00H
	DD	0ffffffffH
	DD	00H
	DD	040H
	DD	FLAT:??_R3ioSkill@@8
rdata$r	ENDS
;	COMDAT ??_R2ioNormalSkill@@8
rdata$r	SEGMENT
??_R2ioNormalSkill@@8 DD FLAT:??_R1A@?0A@EA@ioNormalSkill@@8 ; ioNormalSkill::`RTTI Base Class Array'
	DD	FLAT:??_R1A@?0A@EA@ioSkill@@8
rdata$r	ENDS
;	COMDAT ??_R3ioNormalSkill@@8
rdata$r	SEGMENT
??_R3ioNormalSkill@@8 DD 00H				; ioNormalSkill::`RTTI Class Hierarchy Descriptor'
	DD	00H
	DD	02H
	DD	FLAT:??_R2ioNormalSkill@@8
rdata$r	ENDS
;	COMDAT ??_R0?AVioNormalSkill@@@8
_DATA	SEGMENT
??_R0?AVioNormalSkill@@@8 DD FLAT:??_7type_info@@6B@	; ioNormalSkill `RTTI Type Descriptor'
	DD	00H
	DB	'.?AVioNormalSkill@@', 00H
_DATA	ENDS
;	COMDAT ??_R1A@?0A@EA@ioNormalSkill@@8
rdata$r	SEGMENT
??_R1A@?0A@EA@ioNormalSkill@@8 DD FLAT:??_R0?AVioNormalSkill@@@8 ; ioNormalSkill::`RTTI Base Class Descriptor at (0,-1,0,64)'
	DD	01H
	DD	00H
	DD	0ffffffffH
	DD	00H
	DD	040H
	DD	FLAT:??_R3ioNormalSkill@@8
rdata$r	ENDS
;	COMDAT ??_R1A@?0A@EA@ioChargingFireSkill4@@8
rdata$r	SEGMENT
??_R1A@?0A@EA@ioChargingFireSkill4@@8 DD FLAT:??_R0?AVioChargingFireSkill4@@@8 ; ioChargingFireSkill4::`RTTI Base Class Descriptor at (0,-1,0,64)'
	DD	02H
	DD	00H
	DD	0ffffffffH
	DD	00H
	DD	040H
	DD	FLAT:??_R3ioChargingFireSkill4@@8
rdata$r	ENDS
;	COMDAT ??_R2ioChargingFireSkill4@@8
rdata$r	SEGMENT
??_R2ioChargingFireSkill4@@8 DD FLAT:??_R1A@?0A@EA@ioChargingFireSkill4@@8 ; ioChargingFireSkill4::`RTTI Base Class Array'
	DD	FLAT:??_R1A@?0A@EA@ioNormalSkill@@8
	DD	FLAT:??_R1A@?0A@EA@ioSkill@@8
rdata$r	ENDS
;	COMDAT ??_R3ioChargingFireSkill4@@8
rdata$r	SEGMENT
??_R3ioChargingFireSkill4@@8 DD 00H			; ioChargingFireSkill4::`RTTI Class Hierarchy Descriptor'
	DD	00H
	DD	03H
	DD	FLAT:??_R2ioChargingFireSkill4@@8
rdata$r	ENDS
;	COMDAT ??_R0?AVioChargingFireSkill4@@@8
_DATA	SEGMENT
??_R0?AVioChargingFireSkill4@@@8 DD FLAT:??_7type_info@@6B@ ; ioChargingFireSkill4 `RTTI Type Descriptor'
	DD	00H
	DB	'.?AVioChargingFireSkill4@@', 00H
_DATA	ENDS
;	COMDAT ??_R4ioChargingFireSkill4@@6B@
rdata$r	SEGMENT
??_R4ioChargingFireSkill4@@6B@ DD 00H			; ioChargingFireSkill4::`RTTI Complete Object Locator'
	DD	00H
	DD	00H
	DD	FLAT:??_R0?AVioChargingFireSkill4@@@8
	DD	FLAT:??_R3ioChargingFireSkill4@@8
rdata$r	ENDS
;	COMDAT ??_7ioChargingFireSkill4@@6B@
CONST	SEGMENT
??_7ioChargingFireSkill4@@6B@ DD FLAT:??_R4ioChargingFireSkill4@@6B@ ; ioChargingFireSkill4::`vftable'
	DD	FLAT:?LoadProperty@ioChargingFireSkill4@@UAEXAAVioINILoader@@@Z
	DD	FLAT:?Clone@ioChargingFireSkill4@@UAEPAVioSkill@@XZ
	DD	FLAT:?GetTypeID@ioNormalSkill@@UBEHXZ
	DD	FLAT:?IsProtected@ioChargingFireSkill4@@UBE_NH@Z
	DD	FLAT:?IsCanSwitchSkill@ioSkill@@UBE_NXZ
	DD	FLAT:?IsCanSemiSwitchSkill@ioSkill@@UBE_NXZ
	DD	FLAT:?IsCanCancelBySkill@ioSkill@@UBE_NPAVioBaseChar@@AAH@Z
	DD	FLAT:?IsCanUseZeroHP@ioSkill@@UBE_NPAVioBaseChar@@@Z
	DD	FLAT:?IsCanUseSkillWithCrown@ioSkill@@UAE_NPAVioBaseChar@@@Z
	DD	FLAT:?IsCanUseBoss@ioSkill@@UBE_NPAVioBaseChar@@@Z
	DD	FLAT:?IsCanUseFootball@ioSkill@@UBE_NXZ
	DD	FLAT:?IsCanUseGangSiMode@ioSkill@@UBE_NXZ
	DD	FLAT:?IsCanUseByWeaponType@ioSkill@@UBE_NPAVioBaseChar@@@Z
	DD	FLAT:?IsCanUseThunderBirdHold@ioSkill@@UBE_NPAVioBaseChar@@@Z
	DD	FLAT:?IsCanUseLimitHP@ioSkill@@UBE_NPAVioBaseChar@@@Z
	DD	FLAT:?IsCanUseSkill@ioNormalSkill@@UAE_NPAVioBaseChar@@_N@Z
	DD	FLAT:?IsOnOffEnable@ioSkill@@UAE_NXZ
	DD	FLAT:?IsCanDefenseStateSkill@ioSkill@@UAE_NXZ
	DD	FLAT:?SetDefenseStateSkill@ioSkill@@UAEXPAVioBaseChar@@@Z
	DD	FLAT:?GetDefenseSkillBreakeType@ioSkill@@UBE?AW4DefenseBreakType@@XZ
	DD	FLAT:?HasBuff@ioSkill@@UBE_NH@Z
	DD	FLAT:?GetBuffType@ioSkill@@UAEHH@Z
	DD	FLAT:?IsEnableReserve@ioSkill@@UBE_NXZ
	DD	FLAT:?IsSkillMotionEnd@ioChargingFireSkill4@@UBE_NKPAVioBaseChar@@@Z
	DD	FLAT:?IsCharSkipState@ioSkill@@UBE?AW4SkillCharColType@@XZ
	DD	FLAT:?IsEntityCollisionSkipState@ioSkill@@UBE_NXZ
	DD	FLAT:?GetSkillEndNextJumpAmt@ioSkill@@UBEMXZ
	DD	FLAT:?GetSkillEndNextLandRate@ioSkill@@UBEMXZ
	DD	FLAT:?GetSkillEndNextJumpMustEnable@ioSkill@@UAE?AW4SkillEndJumpType@@XZ
	DD	FLAT:?IsEndState@ioSkill@@UBE_NXZ
	DD	FLAT:?IsAttackEndState@ioChargingFireSkill4@@UBE_NXZ
	DD	FLAT:?IsJumpState@ioSkill@@UBE_NXZ
	DD	FLAT:?IsDownState@ioSkill@@UBE_NXZ
	DD	FLAT:?IsNoDropState@ioSkill@@UBE_NXZ
	DD	FLAT:?IsCanSendControl@ioSkill@@UBE_NXZ
	DD	FLAT:?IsSkipState@ioSkill@@UBE_NXZ
	DD	FLAT:?GetSkillMoveRate@ioSkill@@UBEMXZ
	DD	FLAT:?SetSkillGrapplingState@ioSkill@@UAE_NPAVioBaseChar@@ABVioHashString@@@Z
	DD	FLAT:?GetGrapplingTargetPos@ioSkill@@UAE?AUD3DXVECTOR3@@PAVioBaseChar@@0@Z
	DD	FLAT:?GetGrapplingTargetPos@ioSkill@@UAE?AUD3DXVECTOR3@@PAVioBaseChar@@@Z
	DD	FLAT:?EnableChangeGrapplingTargetPos@ioSkill@@UBE_NXZ
	DD	FLAT:?GetSkillWoundGrapplingInfo@ioSkill@@UAE?AUGrapplingSkillWoundedInfo@@XZ
	DD	FLAT:?SetCreateWeaponDependency@ioSkill@@UAEXPAVioBaseChar@@PAVioPlayStage@@@Z
	DD	FLAT:?SetNextSkillState@ioSkill@@UAEXPAVioBaseChar@@PAVioWeapon@@@Z
	DD	FLAT:?OnSkillStart@ioChargingFireSkill4@@UAE_NPAVioBaseChar@@@Z
	DD	FLAT:?OnProcessState@ioChargingFireSkill4@@UAEXPAVioBaseChar@@PAVioPlayStage@@@Z
	DD	FLAT:?OnSkillEndByWounded@ioSkill@@UAEXPAVioBaseChar@@@Z
	DD	FLAT:?OnSkillEnd@ioChargingFireSkill4@@UAEXPAVioBaseChar@@@Z
	DD	FLAT:?OnProcessNotUseSkill@ioSkill@@UAEXPAVioBaseChar@@PAVioPlayStage@@@Z
	DD	FLAT:?OnSkillItemRelease@ioSkill@@UAEXPAVioBaseChar@@@Z
	DD	FLAT:?ApplyAttributeToWeapon@ioChargingFireSkill4@@UAEXPAVioWeapon@@PAVioPlayStage@@@Z
	DD	FLAT:?ApplyExtraSkillInfo@ioChargingFireSkill4@@UAEXPAVioBaseChar@@PAVioPlayStage@@AAVSP2Packet@@@Z
	DD	FLAT:?ApplyEquipSlotSkillExtraInfo@ioSkill@@UAEXPAVioBaseChar@@PAVioPlayStage@@AAVSP2Packet@@@Z
	DD	FLAT:?ApplyExtraPassiveSkillInfo@ioSkill@@UAEXPAVioBaseChar@@PAVioPlayStage@@AAVSP2Packet@@@Z
	DD	FLAT:?StartPreDelayEffect@ioNormalSkill@@UAEXPAVioBaseChar@@@Z
	DD	FLAT:?EndPreDelayEffect@ioNormalSkill@@UAEXPAVioBaseChar@@@Z
	DD	FLAT:?IsUseAutoTargetValue@ioSkill@@UAE_NXZ
	DD	FLAT:?IsAutoTargetDownState@ioSkill@@UAE_NXZ
	DD	FLAT:?CheckUseBuff@ioSkill@@UAE_NPAVioBaseChar@@@Z
	DD	FLAT:?CheckUseItemMesh@ioChargingFireSkill4@@UAE_NXZ
	DD	FLAT:?CheckUseActiveCount@ioSkill@@UAE_NXZ
	DD	FLAT:?CheckAniRotate@ioSkill@@UAEXPAVioBaseChar@@@Z
	DD	FLAT:?IsEnableDashCheck@ioSkill@@UAE_NPAVioBaseChar@@@Z
	DD	FLAT:?IsEnableMultiActive@ioSkill@@UAE_NPAVioBaseChar@@@Z
	DD	FLAT:?IsInvisibleBottomCircle@ioSkill@@UAE_NPAVioBaseChar@@@Z
	DD	FLAT:?GetAutoTargetValue@ioSkill@@UAEXAAM00@Z
	DD	FLAT:?IsCanJumpingSkill@ioSkill@@UBE_NXZ
	DD	FLAT:?IsCanJumpingSkillOnBlowWound@ioSkill@@UBE_NXZ
	DD	FLAT:?IsCanDownSkill@ioSkill@@UBE_NXZ
	DD	FLAT:?IsCanBlowWoundSkill@ioSkill@@UBE_NXZ
	DD	FLAT:?IsCanWoundSkill@ioSkill@@UBE_NXZ
	DD	FLAT:?GetSkillGravityRate@ioSkill@@UAEMXZ
	DD	FLAT:?GetSkillMotionName@ioSkill@@UBEABVioHashString@@XZ
	DD	FLAT:?HasSkillMotion@ioSkill@@UBE_NXZ
	DD	FLAT:?GetSkillMotionRate@ioSkill@@UBEMXZ
	DD	FLAT:?IsPreDelayProtect@ioSkill@@UBE_NXZ
	DD	FLAT:?GetPreDelayAniName@ioSkill@@UBEABVioHashString@@XZ
	DD	FLAT:?GetPreDelayTime@ioSkill@@UBEKXZ
	DD	FLAT:?GetPreDelayOwnerEffect@ioSkill@@UBEABVioHashString@@XZ
	DD	FLAT:?GetPreDelayOtherEffect@ioSkill@@UBEABVioHashString@@XZ
	DD	FLAT:?SetCancelSkill@ioSkill@@UAEXPAVioBaseChar@@@Z
	DD	FLAT:?ClearAirJump@ioSkill@@MAEXXZ
	DD	FLAT:?SetAirJump@ioSkill@@MAEXPAVioBaseChar@@HM@Z
	DD	FLAT:?CheckAirJump@ioSkill@@MAEXPAVioBaseChar@@@Z
	DD	FLAT:?UseActiveCount@ioSkill@@UAE_NPAVioBaseChar@@@Z
	DD	FLAT:?GetMaxActiveCount@ioSkill@@UAEHPAVioBaseChar@@@Z
	DD	FLAT:?GetCurActiveCount@ioSkill@@UAEHPAVioBaseChar@@@Z
	DD	FLAT:?HideHPGauge@ioSkill@@UAE_NXZ
	DD	FLAT:?SetInfoByApplyWeapon@ioSkill@@UAEXPAVioBaseChar@@0K_N@Z
	DD	FLAT:?SetCollisionByApplySkill@ioSkill@@UAEXXZ
	DD	FLAT:?SetChargingRateForWeapon@ioSkill@@UAEXPAVioWeapon@@@Z
	DD	FLAT:?CheckExceptionCamera@ioSkill@@UAE_NXZ
	DD	FLAT:?GetExceptionCameraPos@ioSkill@@UAE?AUD3DXVECTOR3@@PAVioBaseChar@@@Z
	DD	FLAT:?IsFixedExceptionCamera@ioSkill@@UAE_NXZ
	DD	FLAT:?IsUseActiveCnt@ioSkill@@UBE_NXZ
	DD	FLAT:?GetMaxActiveCnt@ioSkill@@UBEHPAVioBaseChar@@@Z
	DD	FLAT:?GetCurActiveCnt@ioSkill@@UBEHPAVioBaseChar@@@Z
	DD	FLAT:??_EioChargingFireSkill4@@UAEPAXI@Z
	DD	FLAT:?StartPreDelayAnimation@ioChargingFireSkill4@@MAE_NPAVioBaseChar@@@Z
	DD	FLAT:?SetNormalSkill@ioChargingFireSkill4@@MAEXPAVioBaseChar@@@Z
CONST	ENDS
;	COMDAT xdata$x
xdata$x	SEGMENT
__ehfuncinfo$??0ioChargingFireSkill4@@QAE@XZ DD 019930522H
	DD	013H
	DD	FLAT:__unwindtable$??0ioChargingFireSkill4@@QAE@XZ
	DD	2 DUP(00H)
	DD	2 DUP(00H)
	DD	00H
	DD	01H
__unwindtable$??0ioChargingFireSkill4@@QAE@XZ DD 0ffffffffH
	DD	FLAT:__unwindfunclet$??0ioChargingFireSkill4@@QAE@XZ$0
	DD	00H
	DD	FLAT:__unwindfunclet$??0ioChargingFireSkill4@@QAE@XZ$1
	DD	01H
	DD	FLAT:__unwindfunclet$??0ioChargingFireSkill4@@QAE@XZ$2
	DD	02H
	DD	FLAT:__unwindfunclet$??0ioChargingFireSkill4@@QAE@XZ$3
	DD	03H
	DD	FLAT:__unwindfunclet$??0ioChargingFireSkill4@@QAE@XZ$4
	DD	04H
	DD	FLAT:__unwindfunclet$??0ioChargingFireSkill4@@QAE@XZ$5
	DD	05H
	DD	FLAT:__unwindfunclet$??0ioChargingFireSkill4@@QAE@XZ$6
	DD	06H
	DD	FLAT:__unwindfunclet$??0ioChargingFireSkill4@@QAE@XZ$7
	DD	07H
	DD	FLAT:__unwindfunclet$??0ioChargingFireSkill4@@QAE@XZ$8
	DD	08H
	DD	FLAT:__unwindfunclet$??0ioChargingFireSkill4@@QAE@XZ$9
	DD	09H
	DD	FLAT:__unwindfunclet$??0ioChargingFireSkill4@@QAE@XZ$10
	DD	0aH
	DD	FLAT:__unwindfunclet$??0ioChargingFireSkill4@@QAE@XZ$11
	DD	0bH
	DD	FLAT:__unwindfunclet$??0ioChargingFireSkill4@@QAE@XZ$12
	DD	0cH
	DD	FLAT:__unwindfunclet$??0ioChargingFireSkill4@@QAE@XZ$13
	DD	0dH
	DD	FLAT:__unwindfunclet$??0ioChargingFireSkill4@@QAE@XZ$14
	DD	0eH
	DD	FLAT:__unwindfunclet$??0ioChargingFireSkill4@@QAE@XZ$15
	DD	0fH
	DD	FLAT:__unwindfunclet$??0ioChargingFireSkill4@@QAE@XZ$16
	DD	010H
	DD	FLAT:__unwindfunclet$??0ioChargingFireSkill4@@QAE@XZ$17
	DD	011H
	DD	FLAT:__unwindfunclet$??0ioChargingFireSkill4@@QAE@XZ$18
; Function compile flags: /Ogsp
; File d:\lost saga for developer\youtube\tutorial\source\src\lsclient\iochargingfireskill4.cpp
xdata$x	ENDS
;	COMDAT ??0ioChargingFireSkill4@@QAE@XZ
_TEXT	SEGMENT
_this$ = -20						; size = 4
_value$560156 = -16					; size = 4
_value$560152 = -16					; size = 4
__$EHRec$ = -12						; size = 12
??0ioChargingFireSkill4@@QAE@XZ PROC			; ioChargingFireSkill4::ioChargingFireSkill4, COMDAT
; _this$ = ecx

; 13   : {

  00000	6a 08		 push	 8
  00002	b8 00 00 00 00	 mov	 eax, __ehhandler$??0ioChargingFireSkill4@@QAE@XZ
  00007	e8 00 00 00 00	 call	 __EH_prolog3
  0000c	8b d9		 mov	 ebx, ecx
  0000e	89 5d ec	 mov	 DWORD PTR _this$[ebp], ebx
  00011	e8 00 00 00 00	 call	 ??0ioNormalSkill@@QAE@XZ ; ioNormalSkill::ioNormalSkill
  00016	33 ff		 xor	 edi, edi
  00018	8d 8b 58 0f 00
	00		 lea	 ecx, DWORD PTR [ebx+3928]
  0001e	89 7d fc	 mov	 DWORD PTR __$EHRec$[ebp+8], edi
  00021	c7 03 00 00 00
	00		 mov	 DWORD PTR [ebx], OFFSET ??_7ioChargingFireSkill4@@6B@
  00027	e8 00 00 00 00	 call	 ??0?$CEncrypt@H@@QAE@XZ	; CEncrypt<int>::CEncrypt<int>
  0002c	8d 8b 8c 0f 00
	00		 lea	 ecx, DWORD PTR [ebx+3980]
  00032	c6 45 fc 01	 mov	 BYTE PTR __$EHRec$[ebp+8], 1
  00036	e8 00 00 00 00	 call	 ??0AttackAttribute@@QAE@XZ ; AttackAttribute::AttackAttribute
  0003b	8b 35 00 00 00
	00		 mov	 esi, DWORD PTR __imp_??0ioHashString@@QAE@XZ
  00041	8d 8b dc 0f 00
	00		 lea	 ecx, DWORD PTR [ebx+4060]
  00047	c6 45 fc 02	 mov	 BYTE PTR __$EHRec$[ebp+8], 2
  0004b	ff d6		 call	 esi
  0004d	8d 8b fc 0f 00
	00		 lea	 ecx, DWORD PTR [ebx+4092]
  00053	c6 45 fc 03	 mov	 BYTE PTR __$EHRec$[ebp+8], 3
  00057	ff d6		 call	 esi
  00059	8d 8b 10 10 00
	00		 lea	 ecx, DWORD PTR [ebx+4112]
  0005f	c6 45 fc 04	 mov	 BYTE PTR __$EHRec$[ebp+8], 4
  00063	e8 00 00 00 00	 call	 ??0?$CEncrypt@_N@@QAE@XZ ; CEncrypt<bool>::CEncrypt<bool>
  00068	8d 8b 48 10 00
	00		 lea	 ecx, DWORD PTR [ebx+4168]
  0006e	c6 45 fc 05	 mov	 BYTE PTR __$EHRec$[ebp+8], 5
  00072	ff d6		 call	 esi
  00074	8d 8b 5c 10 00
	00		 lea	 ecx, DWORD PTR [ebx+4188]
  0007a	c6 45 fc 06	 mov	 BYTE PTR __$EHRec$[ebp+8], 6
  0007e	e8 00 00 00 00	 call	 ??0?$CEncrypt@K@@QAE@XZ	; CEncrypt<unsigned long>::CEncrypt<unsigned long>
  00083	8d 8b 8c 10 00
	00		 lea	 ecx, DWORD PTR [ebx+4236]
  00089	c6 45 fc 07	 mov	 BYTE PTR __$EHRec$[ebp+8], 7
  0008d	e8 00 00 00 00	 call	 ??0?$CEncrypt@M@@QAE@XZ	; CEncrypt<float>::CEncrypt<float>
  00092	8d 8b bc 10 00
	00		 lea	 ecx, DWORD PTR [ebx+4284]
  00098	c6 45 fc 08	 mov	 BYTE PTR __$EHRec$[ebp+8], 8
  0009c	e8 00 00 00 00	 call	 ??0?$CEncrypt@M@@QAE@XZ	; CEncrypt<float>::CEncrypt<float>
  000a1	8d 8b ec 10 00
	00		 lea	 ecx, DWORD PTR [ebx+4332]
  000a7	c6 45 fc 09	 mov	 BYTE PTR __$EHRec$[ebp+8], 9
  000ab	e8 00 00 00 00	 call	 ??0?$CEncrypt@M@@QAE@XZ	; CEncrypt<float>::CEncrypt<float>
  000b0	8d 8b 1c 11 00
	00		 lea	 ecx, DWORD PTR [ebx+4380]
  000b6	c6 45 fc 0a	 mov	 BYTE PTR __$EHRec$[ebp+8], 10 ; 0000000aH
  000ba	e8 00 00 00 00	 call	 ??0?$CEncrypt@M@@QAE@XZ	; CEncrypt<float>::CEncrypt<float>
  000bf	8d 8b 4c 11 00
	00		 lea	 ecx, DWORD PTR [ebx+4428]
  000c5	c6 45 fc 0b	 mov	 BYTE PTR __$EHRec$[ebp+8], 11 ; 0000000bH
  000c9	ff d6		 call	 esi
  000cb	8d 8b 5c 11 00
	00		 lea	 ecx, DWORD PTR [ebx+4444]
  000d1	c6 45 fc 0c	 mov	 BYTE PTR __$EHRec$[ebp+8], 12 ; 0000000cH
  000d5	ff d6		 call	 esi
  000d7	8d 8b 6c 11 00
	00		 lea	 ecx, DWORD PTR [ebx+4460]
  000dd	c6 45 fc 0d	 mov	 BYTE PTR __$EHRec$[ebp+8], 13 ; 0000000dH
  000e1	ff d6		 call	 esi
  000e3	8d 8b 7c 11 00
	00		 lea	 ecx, DWORD PTR [ebx+4476]
  000e9	c6 45 fc 0e	 mov	 BYTE PTR __$EHRec$[ebp+8], 14 ; 0000000eH
  000ed	ff d6		 call	 esi
  000ef	8d 8b b4 11 00
	00		 lea	 ecx, DWORD PTR [ebx+4532]
  000f5	c6 45 fc 0f	 mov	 BYTE PTR __$EHRec$[ebp+8], 15 ; 0000000fH
  000f9	ff d6		 call	 esi
  000fb	8d 8b c8 11 00
	00		 lea	 ecx, DWORD PTR [ebx+4552]
  00101	c6 45 fc 10	 mov	 BYTE PTR __$EHRec$[ebp+8], 16 ; 00000010H
  00105	ff d6		 call	 esi
  00107	8d 8b d8 11 00
	00		 lea	 ecx, DWORD PTR [ebx+4568]
  0010d	c6 45 fc 11	 mov	 BYTE PTR __$EHRec$[ebp+8], 17 ; 00000011H
  00111	ff d6		 call	 esi

; 14   : 	m_State = SS_NONE;

  00113	8d 45 f0	 lea	 eax, DWORD PTR _value$560152[ebp]
  00116	c6 45 fc 12	 mov	 BYTE PTR __$EHRec$[ebp+8], 18 ; 00000012H
  0011a	89 7d f0	 mov	 DWORD PTR _value$560152[ebp], edi
  0011d	50		 push	 eax
  0011e	8d 8b 58 0f 00
	00		 lea	 ecx, DWORD PTR [ebx+3928]
  00124	e8 00 00 00 00	 call	 ?EncryptValueToPool@?$CEncrypt@H@@AAEXPBD@Z ; CEncrypt<int>::EncryptValueToPool

; 15   : 	m_LoopAimState = LAS_NONE;
; 16   : 
; 17   : 	m_dwChargingEffect = -1;
; 18   : 
; 19   : 	m_bSetHandMesh = false;
; 20   : 
; 21   : 	m_dwLoopStartTime = 0;
; 22   : 	m_dwAttackEndTime = 0;
; 23   : 	m_dwFireStartTime = 0;
; 24   : 	m_dwFireEndTime = 0;
; 25   : 
; 26   : 	m_fCurChargeRate = 0.0f;

  00129	0f 57 c0	 xorps	 xmm0, xmm0
  0012c	83 8b c4 11 00
	00 ff		 or	 DWORD PTR [ebx+4548], -1
  00133	8d 45 f0	 lea	 eax, DWORD PTR _value$560156[ebp]
  00136	50		 push	 eax
  00137	8d 8b a4 09 00
	00		 lea	 ecx, DWORD PTR [ebx+2468]
  0013d	89 bb 88 0f 00
	00		 mov	 DWORD PTR [ebx+3976], edi
  00143	c6 83 0a 0f 00
	00 00		 mov	 BYTE PTR [ebx+3850], 0
  0014a	89 bb a8 11 00
	00		 mov	 DWORD PTR [ebx+4520], edi
  00150	89 bb ac 11 00
	00		 mov	 DWORD PTR [ebx+4524], edi
  00156	89 bb f4 0f 00
	00		 mov	 DWORD PTR [ebx+4084], edi
  0015c	89 bb f8 0f 00
	00		 mov	 DWORD PTR [ebx+4088], edi
  00162	f3 0f 11 45 f0	 movss	 DWORD PTR _value$560156[ebp], xmm0
  00167	e8 00 00 00 00	 call	 ?EncryptValueToPool@?$CEncrypt@M@@AAEXPBD@Z ; CEncrypt<float>::EncryptValueToPool

; 27   : 
; 28   : 	m_vCharMoveDir = ioMath::VEC3_ZERO;

  0016c	8b 35 00 00 00
	00		 mov	 esi, DWORD PTR __imp_?VEC3_ZERO@ioMath@@2UD3DXVECTOR3@@A
  00172	8d bb 9c 11 00
	00		 lea	 edi, DWORD PTR [ebx+4508]
  00178	a5		 movsd
  00179	a5		 movsd

; 29   : 
; 30   : 	m_szTargetName.Clear();

  0017a	8d 8b 48 10 00
	00		 lea	 ecx, DWORD PTR [ebx+4168]
  00180	a5		 movsd
  00181	ff 15 00 00 00
	00		 call	 DWORD PTR __imp_?Clear@ioHashString@@QAEXXZ

; 31   : 	m_dwAimStartTime = 0;

  00187	83 a3 58 10 00
	00 00		 and	 DWORD PTR [ebx+4184], 0

; 32   : 
; 33   : 	m_bSetAimedTarget = false;

  0018e	c6 83 8c 11 00
	00 00		 mov	 BYTE PTR [ebx+4492], 0

; 34   : 	m_vAimedPos = ioMath::VEC3_ZERO;

  00195	8b 35 00 00 00
	00		 mov	 esi, DWORD PTR __imp_?VEC3_ZERO@ioMath@@2UD3DXVECTOR3@@A
  0019b	8d bb 90 11 00
	00		 lea	 edi, DWORD PTR [ebx+4496]
  001a1	a5		 movsd
  001a2	a5		 movsd
  001a3	a5		 movsd

; 35   : }

  001a4	8b c3		 mov	 eax, ebx
  001a6	e8 00 00 00 00	 call	 __EH_epilog3
  001ab	c3		 ret	 0
_TEXT	ENDS
;	COMDAT text$x
text$x	SEGMENT
__unwindfunclet$??0ioChargingFireSkill4@@QAE@XZ$0:
  00000	8b 4d ec	 mov	 ecx, DWORD PTR _this$[ebp]
  00003	e9 00 00 00 00	 jmp	 ??1ioNormalSkill@@UAE@XZ ; ioNormalSkill::~ioNormalSkill
__unwindfunclet$??0ioChargingFireSkill4@@QAE@XZ$1:
  00008	8b 4d ec	 mov	 ecx, DWORD PTR _this$[ebp]
  0000b	81 c1 58 0f 00
	00		 add	 ecx, 3928		; 00000f58H
  00011	e9 00 00 00 00	 jmp	 ??1?$CEncrypt@H@@UAE@XZ	; CEncrypt<int>::~CEncrypt<int>
__unwindfunclet$??0ioChargingFireSkill4@@QAE@XZ$2:
  00016	8b 4d ec	 mov	 ecx, DWORD PTR _this$[ebp]
  00019	81 c1 8c 0f 00
	00		 add	 ecx, 3980		; 00000f8cH
  0001f	e9 00 00 00 00	 jmp	 ??1AttackAttribute@@QAE@XZ
__unwindfunclet$??0ioChargingFireSkill4@@QAE@XZ$3:
  00024	8b 4d ec	 mov	 ecx, DWORD PTR _this$[ebp]
  00027	81 c1 dc 0f 00
	00		 add	 ecx, 4060		; 00000fdcH
  0002d	ff 25 00 00 00
	00		 jmp	 DWORD PTR __imp_??1ioHashString@@QAE@XZ
__unwindfunclet$??0ioChargingFireSkill4@@QAE@XZ$4:
  00033	8b 4d ec	 mov	 ecx, DWORD PTR _this$[ebp]
  00036	81 c1 fc 0f 00
	00		 add	 ecx, 4092		; 00000ffcH
  0003c	ff 25 00 00 00
	00		 jmp	 DWORD PTR __imp_??1ioHashString@@QAE@XZ
__unwindfunclet$??0ioChargingFireSkill4@@QAE@XZ$5:
  00042	8b 4d ec	 mov	 ecx, DWORD PTR _this$[ebp]
  00045	81 c1 10 10 00
	00		 add	 ecx, 4112		; 00001010H
  0004b	e9 00 00 00 00	 jmp	 ??1?$CEncrypt@_N@@UAE@XZ ; CEncrypt<bool>::~CEncrypt<bool>
__unwindfunclet$??0ioChargingFireSkill4@@QAE@XZ$6:
  00050	8b 4d ec	 mov	 ecx, DWORD PTR _this$[ebp]
  00053	81 c1 48 10 00
	00		 add	 ecx, 4168		; 00001048H
  00059	ff 25 00 00 00
	00		 jmp	 DWORD PTR __imp_??1ioHashString@@QAE@XZ
__unwindfunclet$??0ioChargingFireSkill4@@QAE@XZ$7:
  0005f	8b 4d ec	 mov	 ecx, DWORD PTR _this$[ebp]
  00062	81 c1 5c 10 00
	00		 add	 ecx, 4188		; 0000105cH
  00068	e9 00 00 00 00	 jmp	 ??1?$CEncrypt@K@@UAE@XZ	; CEncrypt<unsigned long>::~CEncrypt<unsigned long>
__unwindfunclet$??0ioChargingFireSkill4@@QAE@XZ$8:
  0006d	8b 4d ec	 mov	 ecx, DWORD PTR _this$[ebp]
  00070	81 c1 8c 10 00
	00		 add	 ecx, 4236		; 0000108cH
  00076	e9 00 00 00 00	 jmp	 ??1?$CEncrypt@M@@UAE@XZ	; CEncrypt<float>::~CEncrypt<float>
__unwindfunclet$??0ioChargingFireSkill4@@QAE@XZ$9:
  0007b	8b 4d ec	 mov	 ecx, DWORD PTR _this$[ebp]
  0007e	81 c1 bc 10 00
	00		 add	 ecx, 4284		; 000010bcH
  00084	e9 00 00 00 00	 jmp	 ??1?$CEncrypt@M@@UAE@XZ	; CEncrypt<float>::~CEncrypt<float>
__unwindfunclet$??0ioChargingFireSkill4@@QAE@XZ$10:
  00089	8b 4d ec	 mov	 ecx, DWORD PTR _this$[ebp]
  0008c	81 c1 ec 10 00
	00		 add	 ecx, 4332		; 000010ecH
  00092	e9 00 00 00 00	 jmp	 ??1?$CEncrypt@M@@UAE@XZ	; CEncrypt<float>::~CEncrypt<float>
__unwindfunclet$??0ioChargingFireSkill4@@QAE@XZ$11:
  00097	8b 4d ec	 mov	 ecx, DWORD PTR _this$[ebp]
  0009a	81 c1 1c 11 00
	00		 add	 ecx, 4380		; 0000111cH
  000a0	e9 00 00 00 00	 jmp	 ??1?$CEncrypt@M@@UAE@XZ	; CEncrypt<float>::~CEncrypt<float>
__unwindfunclet$??0ioChargingFireSkill4@@QAE@XZ$12:
  000a5	8b 4d ec	 mov	 ecx, DWORD PTR _this$[ebp]
  000a8	81 c1 4c 11 00
	00		 add	 ecx, 4428		; 0000114cH
  000ae	ff 25 00 00 00
	00		 jmp	 DWORD PTR __imp_??1ioHashString@@QAE@XZ
__unwindfunclet$??0ioChargingFireSkill4@@QAE@XZ$13:
  000b4	8b 4d ec	 mov	 ecx, DWORD PTR _this$[ebp]
  000b7	81 c1 5c 11 00
	00		 add	 ecx, 4444		; 0000115cH
  000bd	ff 25 00 00 00
	00		 jmp	 DWORD PTR __imp_??1ioHashString@@QAE@XZ
__unwindfunclet$??0ioChargingFireSkill4@@QAE@XZ$14:
  000c3	8b 4d ec	 mov	 ecx, DWORD PTR _this$[ebp]
  000c6	81 c1 6c 11 00
	00		 add	 ecx, 4460		; 0000116cH
  000cc	ff 25 00 00 00
	00		 jmp	 DWORD PTR __imp_??1ioHashString@@QAE@XZ
__unwindfunclet$??0ioChargingFireSkill4@@QAE@XZ$15:
  000d2	8b 4d ec	 mov	 ecx, DWORD PTR _this$[ebp]
  000d5	81 c1 7c 11 00
	00		 add	 ecx, 4476		; 0000117cH
  000db	ff 25 00 00 00
	00		 jmp	 DWORD PTR __imp_??1ioHashString@@QAE@XZ
__unwindfunclet$??0ioChargingFireSkill4@@QAE@XZ$16:
  000e1	8b 4d ec	 mov	 ecx, DWORD PTR _this$[ebp]
  000e4	81 c1 b4 11 00
	00		 add	 ecx, 4532		; 000011b4H
  000ea	ff 25 00 00 00
	00		 jmp	 DWORD PTR __imp_??1ioHashString@@QAE@XZ
__unwindfunclet$??0ioChargingFireSkill4@@QAE@XZ$17:
  000f0	8b 4d ec	 mov	 ecx, DWORD PTR _this$[ebp]
  000f3	81 c1 c8 11 00
	00		 add	 ecx, 4552		; 000011c8H
  000f9	ff 25 00 00 00
	00		 jmp	 DWORD PTR __imp_??1ioHashString@@QAE@XZ
__unwindfunclet$??0ioChargingFireSkill4@@QAE@XZ$18:
  000ff	8b 4d ec	 mov	 ecx, DWORD PTR _this$[ebp]
  00102	81 c1 d8 11 00
	00		 add	 ecx, 4568		; 000011d8H
  00108	ff 25 00 00 00
	00		 jmp	 DWORD PTR __imp_??1ioHashString@@QAE@XZ
__ehhandler$??0ioChargingFireSkill4@@QAE@XZ:
  0010e	8b 54 24 08	 mov	 edx, DWORD PTR [esp+8]
  00112	8d 42 0c	 lea	 eax, DWORD PTR [edx+12]
  00115	8b 4a e8	 mov	 ecx, DWORD PTR [edx-24]
  00118	33 c8		 xor	 ecx, eax
  0011a	e8 00 00 00 00	 call	 @__security_check_cookie@4
  0011f	b8 00 00 00 00	 mov	 eax, OFFSET __ehfuncinfo$??0ioChargingFireSkill4@@QAE@XZ
  00124	e9 00 00 00 00	 jmp	 ___CxxFrameHandler3
text$x	ENDS
??0ioChargingFireSkill4@@QAE@XZ ENDP			; ioChargingFireSkill4::ioChargingFireSkill4
; Function compile flags: /Ogsp
; File d:\lost saga for developer\youtube\tutorial\source\src\lsclient\ioskill.h
;	COMDAT ?GetDefenseSkillBreakeType@ioSkill@@UBE?AW4DefenseBreakType@@XZ
_TEXT	SEGMENT
?GetDefenseSkillBreakeType@ioSkill@@UBE?AW4DefenseBreakType@@XZ PROC ; ioSkill::GetDefenseSkillBreakeType, COMDAT
; _this$ = ecx

; 327  : 	virtual DefenseBreakType GetDefenseSkillBreakeType() const { return m_eDefenseSkillBreakType; }

  00000	8b 81 30 0e 00
	00		 mov	 eax, DWORD PTR [ecx+3632]
  00006	c3		 ret	 0
?GetDefenseSkillBreakeType@ioSkill@@UBE?AW4DefenseBreakType@@XZ ENDP ; ioSkill::GetDefenseSkillBreakeType
; Function compile flags: /Ogsp
_TEXT	ENDS
;	COMDAT ?GetSkillEndNextJumpAmt@ioSkill@@UBEMXZ
_TEXT	SEGMENT
?GetSkillEndNextJumpAmt@ioSkill@@UBEMXZ PROC		; ioSkill::GetSkillEndNextJumpAmt, COMDAT
; _this$ = ecx

; 335  : 	virtual float GetSkillEndNextJumpAmt() const { return m_fSkillEndNextJumpAmt; }

  00000	d9 81 4c 05 00
	00		 fld	 DWORD PTR [ecx+1356]
  00006	c3		 ret	 0
?GetSkillEndNextJumpAmt@ioSkill@@UBEMXZ ENDP		; ioSkill::GetSkillEndNextJumpAmt
; Function compile flags: /Ogsp
_TEXT	ENDS
;	COMDAT ?GetSkillEndNextLandRate@ioSkill@@UBEMXZ
_TEXT	SEGMENT
?GetSkillEndNextLandRate@ioSkill@@UBEMXZ PROC		; ioSkill::GetSkillEndNextLandRate, COMDAT
; _this$ = ecx

; 336  : 	virtual float GetSkillEndNextLandRate() const { return m_fSkillEndNextLandRate; }

  00000	d9 81 50 05 00
	00		 fld	 DWORD PTR [ecx+1360]
  00006	c3		 ret	 0
?GetSkillEndNextLandRate@ioSkill@@UBEMXZ ENDP		; ioSkill::GetSkillEndNextLandRate
; Function compile flags: /Ogsp
_TEXT	ENDS
;	COMDAT ?GetSkillEndNextJumpMustEnable@ioSkill@@UAE?AW4SkillEndJumpType@@XZ
_TEXT	SEGMENT
?GetSkillEndNextJumpMustEnable@ioSkill@@UAE?AW4SkillEndJumpType@@XZ PROC ; ioSkill::GetSkillEndNextJumpMustEnable, COMDAT
; _this$ = ecx

; 337  : 	virtual SkillEndJumpType GetSkillEndNextJumpMustEnable(){ return SEJT_DEFAULT; }

  00000	33 c0		 xor	 eax, eax
  00002	c3		 ret	 0
?GetSkillEndNextJumpMustEnable@ioSkill@@UAE?AW4SkillEndJumpType@@XZ ENDP ; ioSkill::GetSkillEndNextJumpMustEnable
; Function compile flags: /Ogsp
_TEXT	ENDS
;	COMDAT ?EnableChangeGrapplingTargetPos@ioSkill@@UBE_NXZ
_TEXT	SEGMENT
?EnableChangeGrapplingTargetPos@ioSkill@@UBE_NXZ PROC	; ioSkill::EnableChangeGrapplingTargetPos, COMDAT
; _this$ = ecx

; 355  : 	virtual bool EnableChangeGrapplingTargetPos() const { return m_bChangeGrapplingTargetPos; }

  00000	8a 81 40 09 00
	00		 mov	 al, BYTE PTR [ecx+2368]
  00006	c3		 ret	 0
?EnableChangeGrapplingTargetPos@ioSkill@@UBE_NXZ ENDP	; ioSkill::EnableChangeGrapplingTargetPos
; Function compile flags: /Ogsp
_TEXT	ENDS
;	COMDAT ?IsInvisibleBottomCircle@ioSkill@@UAE_NPAVioBaseChar@@@Z
_TEXT	SEGMENT
_pChar$ = 8						; size = 4
?IsInvisibleBottomCircle@ioSkill@@UAE_NPAVioBaseChar@@@Z PROC ; ioSkill::IsInvisibleBottomCircle, COMDAT
; _this$ = ecx

; 393  : 	virtual bool IsInvisibleBottomCircle( ioBaseChar *pChar ) { return false; }

  00000	32 c0		 xor	 al, al
  00002	c2 04 00	 ret	 4
?IsInvisibleBottomCircle@ioSkill@@UAE_NPAVioBaseChar@@@Z ENDP ; ioSkill::IsInvisibleBottomCircle
; Function compile flags: /Ogsp
_TEXT	ENDS
;	COMDAT ?IsUseActiveCnt@ioSkill@@UBE_NXZ
_TEXT	SEGMENT
?IsUseActiveCnt@ioSkill@@UBE_NXZ PROC			; ioSkill::IsUseActiveCnt, COMDAT
; _this$ = ecx

; 544  : 	virtual bool IsUseActiveCnt() const { return false; }

  00000	32 c0		 xor	 al, al
  00002	c3		 ret	 0
?IsUseActiveCnt@ioSkill@@UBE_NXZ ENDP			; ioSkill::IsUseActiveCnt
; Function compile flags: /Ogsp
_TEXT	ENDS
;	COMDAT ?GetMaxActiveCnt@ioSkill@@UBEHPAVioBaseChar@@@Z
_TEXT	SEGMENT
_pChar$ = 8						; size = 4
?GetMaxActiveCnt@ioSkill@@UBEHPAVioBaseChar@@@Z PROC	; ioSkill::GetMaxActiveCnt, COMDAT
; _this$ = ecx

; 545  : 	virtual int GetMaxActiveCnt( ioBaseChar *pChar ) const { return 0; }

  00000	33 c0		 xor	 eax, eax
  00002	c2 04 00	 ret	 4
?GetMaxActiveCnt@ioSkill@@UBEHPAVioBaseChar@@@Z ENDP	; ioSkill::GetMaxActiveCnt
; Function compile flags: /Ogsp
_TEXT	ENDS
;	COMDAT ?GetCurActiveCnt@ioSkill@@UBEHPAVioBaseChar@@@Z
_TEXT	SEGMENT
_pChar$ = 8						; size = 4
?GetCurActiveCnt@ioSkill@@UBEHPAVioBaseChar@@@Z PROC	; ioSkill::GetCurActiveCnt, COMDAT
; _this$ = ecx

; 546  : 	virtual int GetCurActiveCnt( ioBaseChar *pChar ) const { return 0; }

  00000	33 c0		 xor	 eax, eax
  00002	c2 04 00	 ret	 4
?GetCurActiveCnt@ioSkill@@UBEHPAVioBaseChar@@@Z ENDP	; ioSkill::GetCurActiveCnt
; Function compile flags: /Ogsp
_TEXT	ENDS
;	COMDAT ?IsCanJumpingSkill@ioSkill@@UBE_NXZ
_TEXT	SEGMENT
_value$560195 = -1					; size = 1
?IsCanJumpingSkill@ioSkill@@UBE_NXZ PROC		; ioSkill::IsCanJumpingSkill, COMDAT
; _this$ = ecx

; 431  : 	virtual bool IsCanJumpingSkill() const { return m_bEnableJumpingSkill; }

  00000	55		 push	 ebp
  00001	8b ec		 mov	 ebp, esp
  00003	51		 push	 ecx
  00004	8d 45 ff	 lea	 eax, DWORD PTR _value$560195[ebp]
  00007	50		 push	 eax
  00008	81 c1 9c 03 00
	00		 add	 ecx, 924		; 0000039cH
  0000e	e8 00 00 00 00	 call	 ?DecryptValueToPool@?$CEncrypt@_N@@QAEXPA_N@Z ; CEncrypt<bool>::DecryptValueToPool
  00013	8a 45 ff	 mov	 al, BYTE PTR _value$560195[ebp]
  00016	c9		 leave
  00017	c3		 ret	 0
?IsCanJumpingSkill@ioSkill@@UBE_NXZ ENDP		; ioSkill::IsCanJumpingSkill
; Function compile flags: /Ogsp
_TEXT	ENDS
;	COMDAT ?IsCanJumpingSkillOnBlowWound@ioSkill@@UBE_NXZ
_TEXT	SEGMENT
_value$560202 = -1					; size = 1
?IsCanJumpingSkillOnBlowWound@ioSkill@@UBE_NXZ PROC	; ioSkill::IsCanJumpingSkillOnBlowWound, COMDAT
; _this$ = ecx

; 432  : 	virtual bool IsCanJumpingSkillOnBlowWound() const { return m_bEnableJumpingSkillOnBlowWound; }

  00000	55		 push	 ebp
  00001	8b ec		 mov	 ebp, esp
  00003	51		 push	 ecx
  00004	8d 45 ff	 lea	 eax, DWORD PTR _value$560202[ebp]
  00007	50		 push	 eax
  00008	81 c1 cc 03 00
	00		 add	 ecx, 972		; 000003ccH
  0000e	e8 00 00 00 00	 call	 ?DecryptValueToPool@?$CEncrypt@_N@@QAEXPA_N@Z ; CEncrypt<bool>::DecryptValueToPool
  00013	8a 45 ff	 mov	 al, BYTE PTR _value$560202[ebp]
  00016	c9		 leave
  00017	c3		 ret	 0
?IsCanJumpingSkillOnBlowWound@ioSkill@@UBE_NXZ ENDP	; ioSkill::IsCanJumpingSkillOnBlowWound
; Function compile flags: /Ogsp
_TEXT	ENDS
;	COMDAT ?IsCanDownSkill@ioSkill@@UBE_NXZ
_TEXT	SEGMENT
_value$560209 = -1					; size = 1
?IsCanDownSkill@ioSkill@@UBE_NXZ PROC			; ioSkill::IsCanDownSkill, COMDAT
; _this$ = ecx

; 437  : 	virtual bool IsCanDownSkill() const { return m_bEnableDownSkill; }

  00000	55		 push	 ebp
  00001	8b ec		 mov	 ebp, esp
  00003	51		 push	 ecx
  00004	8d 45 ff	 lea	 eax, DWORD PTR _value$560209[ebp]
  00007	50		 push	 eax
  00008	81 c1 5c 04 00
	00		 add	 ecx, 1116		; 0000045cH
  0000e	e8 00 00 00 00	 call	 ?DecryptValueToPool@?$CEncrypt@_N@@QAEXPA_N@Z ; CEncrypt<bool>::DecryptValueToPool
  00013	8a 45 ff	 mov	 al, BYTE PTR _value$560209[ebp]
  00016	c9		 leave
  00017	c3		 ret	 0
?IsCanDownSkill@ioSkill@@UBE_NXZ ENDP			; ioSkill::IsCanDownSkill
; Function compile flags: /Ogsp
_TEXT	ENDS
;	COMDAT ?IsCanBlowWoundSkill@ioSkill@@UBE_NXZ
_TEXT	SEGMENT
_value$560216 = -1					; size = 1
?IsCanBlowWoundSkill@ioSkill@@UBE_NXZ PROC		; ioSkill::IsCanBlowWoundSkill, COMDAT
; _this$ = ecx

; 440  : 	virtual bool IsCanBlowWoundSkill() const { return m_bEnableBlowWoundSkill; }

  00000	55		 push	 ebp
  00001	8b ec		 mov	 ebp, esp
  00003	51		 push	 ecx
  00004	8d 45 ff	 lea	 eax, DWORD PTR _value$560216[ebp]
  00007	50		 push	 eax
  00008	81 c1 8c 04 00
	00		 add	 ecx, 1164		; 0000048cH
  0000e	e8 00 00 00 00	 call	 ?DecryptValueToPool@?$CEncrypt@_N@@QAEXPA_N@Z ; CEncrypt<bool>::DecryptValueToPool
  00013	8a 45 ff	 mov	 al, BYTE PTR _value$560216[ebp]
  00016	c9		 leave
  00017	c3		 ret	 0
?IsCanBlowWoundSkill@ioSkill@@UBE_NXZ ENDP		; ioSkill::IsCanBlowWoundSkill
; Function compile flags: /Ogsp
_TEXT	ENDS
;	COMDAT ?IsCanWoundSkill@ioSkill@@UBE_NXZ
_TEXT	SEGMENT
_value$560223 = -1					; size = 1
?IsCanWoundSkill@ioSkill@@UBE_NXZ PROC			; ioSkill::IsCanWoundSkill, COMDAT
; _this$ = ecx

; 446  : 	virtual bool IsCanWoundSkill() const { return m_bEnableWoundSkill; }

  00000	55		 push	 ebp
  00001	8b ec		 mov	 ebp, esp
  00003	51		 push	 ecx
  00004	8d 45 ff	 lea	 eax, DWORD PTR _value$560223[ebp]
  00007	50		 push	 eax
  00008	81 c1 54 05 00
	00		 add	 ecx, 1364		; 00000554H
  0000e	e8 00 00 00 00	 call	 ?DecryptValueToPool@?$CEncrypt@_N@@QAEXPA_N@Z ; CEncrypt<bool>::DecryptValueToPool
  00013	8a 45 ff	 mov	 al, BYTE PTR _value$560223[ebp]
  00016	c9		 leave
  00017	c3		 ret	 0
?IsCanWoundSkill@ioSkill@@UBE_NXZ ENDP			; ioSkill::IsCanWoundSkill
_TEXT	ENDS
PUBLIC	??0ioChargingFireSkill4@@QAE@ABV0@@Z		; ioChargingFireSkill4::ioChargingFireSkill4
EXTRN	??0ioNormalSkill@@QAE@ABV0@@Z:PROC		; ioNormalSkill::ioNormalSkill
;	COMDAT xdata$x
; File d:\lost saga for developer\youtube\tutorial\source\src\lsclient\encryptvalue.h
xdata$x	SEGMENT
__ehfuncinfo$??0ioChargingFireSkill4@@QAE@ABV0@@Z DD 019930522H
	DD	013H
	DD	FLAT:__unwindtable$??0ioChargingFireSkill4@@QAE@ABV0@@Z
	DD	2 DUP(00H)
	DD	2 DUP(00H)
	DD	00H
	DD	01H
__unwindtable$??0ioChargingFireSkill4@@QAE@ABV0@@Z DD 0ffffffffH
	DD	FLAT:__unwindfunclet$??0ioChargingFireSkill4@@QAE@ABV0@@Z$0
	DD	00H
	DD	FLAT:__unwindfunclet$??0ioChargingFireSkill4@@QAE@ABV0@@Z$1
	DD	01H
	DD	FLAT:__unwindfunclet$??0ioChargingFireSkill4@@QAE@ABV0@@Z$2
	DD	02H
	DD	FLAT:__unwindfunclet$??0ioChargingFireSkill4@@QAE@ABV0@@Z$3
	DD	03H
	DD	FLAT:__unwindfunclet$??0ioChargingFireSkill4@@QAE@ABV0@@Z$4
	DD	04H
	DD	FLAT:__unwindfunclet$??0ioChargingFireSkill4@@QAE@ABV0@@Z$5
	DD	05H
	DD	FLAT:__unwindfunclet$??0ioChargingFireSkill4@@QAE@ABV0@@Z$6
	DD	06H
	DD	FLAT:__unwindfunclet$??0ioChargingFireSkill4@@QAE@ABV0@@Z$7
	DD	07H
	DD	FLAT:__unwindfunclet$??0ioChargingFireSkill4@@QAE@ABV0@@Z$8
	DD	08H
	DD	FLAT:__unwindfunclet$??0ioChargingFireSkill4@@QAE@ABV0@@Z$9
	DD	09H
	DD	FLAT:__unwindfunclet$??0ioChargingFireSkill4@@QAE@ABV0@@Z$10
	DD	0aH
	DD	FLAT:__unwindfunclet$??0ioChargingFireSkill4@@QAE@ABV0@@Z$11
	DD	0bH
	DD	FLAT:__unwindfunclet$??0ioChargingFireSkill4@@QAE@ABV0@@Z$12
	DD	0cH
	DD	FLAT:__unwindfunclet$??0ioChargingFireSkill4@@QAE@ABV0@@Z$13
	DD	0dH
	DD	FLAT:__unwindfunclet$??0ioChargingFireSkill4@@QAE@ABV0@@Z$14
	DD	0eH
	DD	FLAT:__unwindfunclet$??0ioChargingFireSkill4@@QAE@ABV0@@Z$15
	DD	0fH
	DD	FLAT:__unwindfunclet$??0ioChargingFireSkill4@@QAE@ABV0@@Z$16
	DD	010H
	DD	FLAT:__unwindfunclet$??0ioChargingFireSkill4@@QAE@ABV0@@Z$17
	DD	011H
	DD	FLAT:__unwindfunclet$??0ioChargingFireSkill4@@QAE@ABV0@@Z$18
; Function compile flags: /Ogsp
; File d:\lost saga for developer\youtube\tutorial\source\src\lsclient\iochargingfireskill4.cpp
xdata$x	ENDS
;	COMDAT ??0ioChargingFireSkill4@@QAE@ABV0@@Z
_TEXT	SEGMENT
_this$ = -16						; size = 4
__$EHRec$ = -12						; size = 12
_value$560259 = 8					; size = 4
_value$560255 = 8					; size = 4
_rhs$ = 8						; size = 4
??0ioChargingFireSkill4@@QAE@ABV0@@Z PROC		; ioChargingFireSkill4::ioChargingFireSkill4, COMDAT
; _this$ = ecx

; 61   : {

  00000	6a 04		 push	 4
  00002	b8 00 00 00 00	 mov	 eax, __ehhandler$??0ioChargingFireSkill4@@QAE@ABV0@@Z
  00007	e8 00 00 00 00	 call	 __EH_prolog3
  0000c	8b d9		 mov	 ebx, ecx
  0000e	89 5d f0	 mov	 DWORD PTR _this$[ebp], ebx
  00011	8b 75 08	 mov	 esi, DWORD PTR _rhs$[ebp]
  00014	56		 push	 esi
  00015	e8 00 00 00 00	 call	 ??0ioNormalSkill@@QAE@ABV0@@Z ; ioNormalSkill::ioNormalSkill
  0001a	83 65 fc 00	 and	 DWORD PTR __$EHRec$[ebp+8], 0
  0001e	8d 8b 58 0f 00
	00		 lea	 ecx, DWORD PTR [ebx+3928]
  00024	c7 03 00 00 00
	00		 mov	 DWORD PTR [ebx], OFFSET ??_7ioChargingFireSkill4@@6B@
  0002a	e8 00 00 00 00	 call	 ??0?$CEncrypt@H@@QAE@XZ	; CEncrypt<int>::CEncrypt<int>
  0002f	8d 86 8c 0f 00
	00		 lea	 eax, DWORD PTR [esi+3980]
  00035	50		 push	 eax
  00036	8d 8b 8c 0f 00
	00		 lea	 ecx, DWORD PTR [ebx+3980]
  0003c	c6 45 fc 01	 mov	 BYTE PTR __$EHRec$[ebp+8], 1
  00040	e8 00 00 00 00	 call	 ??0AttackAttribute@@QAE@ABU0@@Z
  00045	8b 3d 00 00 00
	00		 mov	 edi, DWORD PTR __imp_??0ioHashString@@QAE@ABV0@@Z
  0004b	8d 86 dc 0f 00
	00		 lea	 eax, DWORD PTR [esi+4060]
  00051	50		 push	 eax
  00052	8d 8b dc 0f 00
	00		 lea	 ecx, DWORD PTR [ebx+4060]
  00058	c6 45 fc 02	 mov	 BYTE PTR __$EHRec$[ebp+8], 2
  0005c	ff d7		 call	 edi
  0005e	d9 86 ec 0f 00
	00		 fld	 DWORD PTR [esi+4076]
  00064	d9 9b ec 0f 00
	00		 fstp	 DWORD PTR [ebx+4076]
  0006a	8b 86 f0 0f 00
	00		 mov	 eax, DWORD PTR [esi+4080]
  00070	89 83 f0 0f 00
	00		 mov	 DWORD PTR [ebx+4080], eax
  00076	8d 86 fc 0f 00
	00		 lea	 eax, DWORD PTR [esi+4092]
  0007c	50		 push	 eax
  0007d	8d 8b fc 0f 00
	00		 lea	 ecx, DWORD PTR [ebx+4092]
  00083	c6 45 fc 03	 mov	 BYTE PTR __$EHRec$[ebp+8], 3
  00087	ff d7		 call	 edi
  00089	d9 86 0c 10 00
	00		 fld	 DWORD PTR [esi+4108]
  0008f	8d 86 10 10 00
	00		 lea	 eax, DWORD PTR [esi+4112]
  00095	d9 9b 0c 10 00
	00		 fstp	 DWORD PTR [ebx+4108]
  0009b	50		 push	 eax
  0009c	8d 8b 10 10 00
	00		 lea	 ecx, DWORD PTR [ebx+4112]
  000a2	c6 45 fc 04	 mov	 BYTE PTR __$EHRec$[ebp+8], 4
  000a6	e8 00 00 00 00	 call	 ??0?$CEncrypt@_N@@QAE@ABV0@@Z ; CEncrypt<bool>::CEncrypt<bool>
  000ab	d9 86 40 10 00
	00		 fld	 DWORD PTR [esi+4160]
  000b1	d9 9b 40 10 00
	00		 fstp	 DWORD PTR [ebx+4160]
  000b7	8d 8b 48 10 00
	00		 lea	 ecx, DWORD PTR [ebx+4168]
  000bd	d9 86 44 10 00
	00		 fld	 DWORD PTR [esi+4164]
  000c3	c6 45 fc 05	 mov	 BYTE PTR __$EHRec$[ebp+8], 5
  000c7	d9 9b 44 10 00
	00		 fstp	 DWORD PTR [ebx+4164]
  000cd	ff 15 00 00 00
	00		 call	 DWORD PTR __imp_??0ioHashString@@QAE@XZ
  000d3	8d 86 5c 10 00
	00		 lea	 eax, DWORD PTR [esi+4188]
  000d9	50		 push	 eax
  000da	8d 8b 5c 10 00
	00		 lea	 ecx, DWORD PTR [ebx+4188]
  000e0	c6 45 fc 06	 mov	 BYTE PTR __$EHRec$[ebp+8], 6
  000e4	e8 00 00 00 00	 call	 ??0?$CEncrypt@K@@QAE@ABV0@@Z ; CEncrypt<unsigned long>::CEncrypt<unsigned long>
  000e9	8d 86 8c 10 00
	00		 lea	 eax, DWORD PTR [esi+4236]
  000ef	50		 push	 eax
  000f0	8d 8b 8c 10 00
	00		 lea	 ecx, DWORD PTR [ebx+4236]
  000f6	c6 45 fc 07	 mov	 BYTE PTR __$EHRec$[ebp+8], 7
  000fa	e8 00 00 00 00	 call	 ??0?$CEncrypt@M@@QAE@ABV0@@Z ; CEncrypt<float>::CEncrypt<float>
  000ff	8d 86 bc 10 00
	00		 lea	 eax, DWORD PTR [esi+4284]
  00105	50		 push	 eax
  00106	8d 8b bc 10 00
	00		 lea	 ecx, DWORD PTR [ebx+4284]
  0010c	c6 45 fc 08	 mov	 BYTE PTR __$EHRec$[ebp+8], 8
  00110	e8 00 00 00 00	 call	 ??0?$CEncrypt@M@@QAE@ABV0@@Z ; CEncrypt<float>::CEncrypt<float>
  00115	8d 86 ec 10 00
	00		 lea	 eax, DWORD PTR [esi+4332]
  0011b	50		 push	 eax
  0011c	8d 8b ec 10 00
	00		 lea	 ecx, DWORD PTR [ebx+4332]
  00122	c6 45 fc 09	 mov	 BYTE PTR __$EHRec$[ebp+8], 9
  00126	e8 00 00 00 00	 call	 ??0?$CEncrypt@M@@QAE@ABV0@@Z ; CEncrypt<float>::CEncrypt<float>
  0012b	8d 86 1c 11 00
	00		 lea	 eax, DWORD PTR [esi+4380]
  00131	50		 push	 eax
  00132	8d 8b 1c 11 00
	00		 lea	 ecx, DWORD PTR [ebx+4380]
  00138	c6 45 fc 0a	 mov	 BYTE PTR __$EHRec$[ebp+8], 10 ; 0000000aH
  0013c	e8 00 00 00 00	 call	 ??0?$CEncrypt@M@@QAE@ABV0@@Z ; CEncrypt<float>::CEncrypt<float>
  00141	8d 86 4c 11 00
	00		 lea	 eax, DWORD PTR [esi+4428]
  00147	c6 45 fc 0b	 mov	 BYTE PTR __$EHRec$[ebp+8], 11 ; 0000000bH
  0014b	50		 push	 eax
  0014c	8d 8b 4c 11 00
	00		 lea	 ecx, DWORD PTR [ebx+4428]
  00152	ff d7		 call	 edi
  00154	8d 86 5c 11 00
	00		 lea	 eax, DWORD PTR [esi+4444]
  0015a	50		 push	 eax
  0015b	8d 8b 5c 11 00
	00		 lea	 ecx, DWORD PTR [ebx+4444]
  00161	c6 45 fc 0c	 mov	 BYTE PTR __$EHRec$[ebp+8], 12 ; 0000000cH
  00165	ff d7		 call	 edi
  00167	8d 86 6c 11 00
	00		 lea	 eax, DWORD PTR [esi+4460]
  0016d	50		 push	 eax
  0016e	8d 8b 6c 11 00
	00		 lea	 ecx, DWORD PTR [ebx+4460]
  00174	c6 45 fc 0d	 mov	 BYTE PTR __$EHRec$[ebp+8], 13 ; 0000000dH
  00178	ff d7		 call	 edi
  0017a	8d 86 7c 11 00
	00		 lea	 eax, DWORD PTR [esi+4476]
  00180	50		 push	 eax
  00181	8d 8b 7c 11 00
	00		 lea	 ecx, DWORD PTR [ebx+4476]
  00187	c6 45 fc 0e	 mov	 BYTE PTR __$EHRec$[ebp+8], 14 ; 0000000eH
  0018b	ff d7		 call	 edi
  0018d	8b 86 b0 11 00
	00		 mov	 eax, DWORD PTR [esi+4528]
  00193	89 83 b0 11 00
	00		 mov	 DWORD PTR [ebx+4528], eax
  00199	8d 86 b4 11 00
	00		 lea	 eax, DWORD PTR [esi+4532]
  0019f	50		 push	 eax
  001a0	8d 8b b4 11 00
	00		 lea	 ecx, DWORD PTR [ebx+4532]
  001a6	c6 45 fc 0f	 mov	 BYTE PTR __$EHRec$[ebp+8], 15 ; 0000000fH
  001aa	ff d7		 call	 edi
  001ac	8d 86 c8 11 00
	00		 lea	 eax, DWORD PTR [esi+4552]
  001b2	50		 push	 eax
  001b3	8d 8b c8 11 00
	00		 lea	 ecx, DWORD PTR [ebx+4552]
  001b9	c6 45 fc 10	 mov	 BYTE PTR __$EHRec$[ebp+8], 16 ; 00000010H
  001bd	ff d7		 call	 edi
  001bf	81 c6 d8 11 00
	00		 add	 esi, 4568		; 000011d8H
  001c5	56		 push	 esi
  001c6	8d 8b d8 11 00
	00		 lea	 ecx, DWORD PTR [ebx+4568]
  001cc	c6 45 fc 11	 mov	 BYTE PTR __$EHRec$[ebp+8], 17 ; 00000011H
  001d0	ff d7		 call	 edi

; 62   : 	m_State = SS_NONE;

  001d2	8d 45 08	 lea	 eax, DWORD PTR _value$560255[ebp]
  001d5	33 f6		 xor	 esi, esi
  001d7	50		 push	 eax
  001d8	8d 8b 58 0f 00
	00		 lea	 ecx, DWORD PTR [ebx+3928]
  001de	c6 45 fc 12	 mov	 BYTE PTR __$EHRec$[ebp+8], 18 ; 00000012H
  001e2	89 75 08	 mov	 DWORD PTR _value$560255[ebp], esi
  001e5	e8 00 00 00 00	 call	 ?EncryptValueToPool@?$CEncrypt@H@@AAEXPBD@Z ; CEncrypt<int>::EncryptValueToPool

; 63   : 	m_LoopAimState = LAS_NONE;
; 64   : 
; 65   : 	m_dwChargingEffect = -1;
; 66   : 
; 67   : 	m_bSetHandMesh = false;
; 68   : 
; 69   : 	m_dwLoopStartTime = 0;
; 70   : 	m_dwAttackEndTime = 0;
; 71   : 	m_dwFireStartTime = 0;
; 72   : 	m_dwFireEndTime = 0;
; 73   : 
; 74   : 	m_fCurChargeRate = 0.0f;

  001ea	0f 57 c0	 xorps	 xmm0, xmm0
  001ed	83 8b c4 11 00
	00 ff		 or	 DWORD PTR [ebx+4548], -1
  001f4	8d 45 08	 lea	 eax, DWORD PTR _value$560259[ebp]
  001f7	50		 push	 eax
  001f8	8d 8b a4 09 00
	00		 lea	 ecx, DWORD PTR [ebx+2468]
  001fe	89 b3 88 0f 00
	00		 mov	 DWORD PTR [ebx+3976], esi
  00204	c6 83 0a 0f 00
	00 00		 mov	 BYTE PTR [ebx+3850], 0
  0020b	89 b3 a8 11 00
	00		 mov	 DWORD PTR [ebx+4520], esi
  00211	89 b3 ac 11 00
	00		 mov	 DWORD PTR [ebx+4524], esi
  00217	89 b3 f4 0f 00
	00		 mov	 DWORD PTR [ebx+4084], esi
  0021d	89 b3 f8 0f 00
	00		 mov	 DWORD PTR [ebx+4088], esi
  00223	f3 0f 11 45 08	 movss	 DWORD PTR _value$560259[ebp], xmm0
  00228	e8 00 00 00 00	 call	 ?EncryptValueToPool@?$CEncrypt@M@@AAEXPBD@Z ; CEncrypt<float>::EncryptValueToPool

; 75   : 
; 76   : 	m_vCharMoveDir = ioMath::VEC3_ZERO;

  0022d	8b 35 00 00 00
	00		 mov	 esi, DWORD PTR __imp_?VEC3_ZERO@ioMath@@2UD3DXVECTOR3@@A
  00233	8d bb 9c 11 00
	00		 lea	 edi, DWORD PTR [ebx+4508]
  00239	a5		 movsd
  0023a	a5		 movsd

; 77   : 
; 78   : 	m_szTargetName.Clear();

  0023b	8d 8b 48 10 00
	00		 lea	 ecx, DWORD PTR [ebx+4168]
  00241	a5		 movsd
  00242	ff 15 00 00 00
	00		 call	 DWORD PTR __imp_?Clear@ioHashString@@QAEXXZ

; 79   : 	m_dwAimStartTime = 0;

  00248	83 a3 58 10 00
	00 00		 and	 DWORD PTR [ebx+4184], 0

; 80   : 
; 81   : 	m_bSetAimedTarget = false;

  0024f	c6 83 8c 11 00
	00 00		 mov	 BYTE PTR [ebx+4492], 0

; 82   : 	m_vAimedPos = ioMath::VEC3_ZERO;

  00256	8b 35 00 00 00
	00		 mov	 esi, DWORD PTR __imp_?VEC3_ZERO@ioMath@@2UD3DXVECTOR3@@A
  0025c	8d bb 90 11 00
	00		 lea	 edi, DWORD PTR [ebx+4496]
  00262	a5		 movsd
  00263	a5		 movsd
  00264	a5		 movsd

; 83   : }

  00265	8b c3		 mov	 eax, ebx
  00267	e8 00 00 00 00	 call	 __EH_epilog3
  0026c	c2 04 00	 ret	 4
_TEXT	ENDS
;	COMDAT text$x
text$x	SEGMENT
__unwindfunclet$??0ioChargingFireSkill4@@QAE@ABV0@@Z$0:
  00000	8b 4d f0	 mov	 ecx, DWORD PTR _this$[ebp]
  00003	e9 00 00 00 00	 jmp	 ??1ioNormalSkill@@UAE@XZ ; ioNormalSkill::~ioNormalSkill
__unwindfunclet$??0ioChargingFireSkill4@@QAE@ABV0@@Z$1:
  00008	8b 4d f0	 mov	 ecx, DWORD PTR _this$[ebp]
  0000b	81 c1 58 0f 00
	00		 add	 ecx, 3928		; 00000f58H
  00011	e9 00 00 00 00	 jmp	 ??1?$CEncrypt@H@@UAE@XZ	; CEncrypt<int>::~CEncrypt<int>
__unwindfunclet$??0ioChargingFireSkill4@@QAE@ABV0@@Z$2:
  00016	8b 4d f0	 mov	 ecx, DWORD PTR _this$[ebp]
  00019	81 c1 8c 0f 00
	00		 add	 ecx, 3980		; 00000f8cH
  0001f	e9 00 00 00 00	 jmp	 ??1AttackAttribute@@QAE@XZ
__unwindfunclet$??0ioChargingFireSkill4@@QAE@ABV0@@Z$3:
  00024	8b 4d f0	 mov	 ecx, DWORD PTR _this$[ebp]
  00027	81 c1 dc 0f 00
	00		 add	 ecx, 4060		; 00000fdcH
  0002d	ff 25 00 00 00
	00		 jmp	 DWORD PTR __imp_??1ioHashString@@QAE@XZ
__unwindfunclet$??0ioChargingFireSkill4@@QAE@ABV0@@Z$4:
  00033	8b 4d f0	 mov	 ecx, DWORD PTR _this$[ebp]
  00036	81 c1 fc 0f 00
	00		 add	 ecx, 4092		; 00000ffcH
  0003c	ff 25 00 00 00
	00		 jmp	 DWORD PTR __imp_??1ioHashString@@QAE@XZ
__unwindfunclet$??0ioChargingFireSkill4@@QAE@ABV0@@Z$5:
  00042	8b 4d f0	 mov	 ecx, DWORD PTR _this$[ebp]
  00045	81 c1 10 10 00
	00		 add	 ecx, 4112		; 00001010H
  0004b	e9 00 00 00 00	 jmp	 ??1?$CEncrypt@_N@@UAE@XZ ; CEncrypt<bool>::~CEncrypt<bool>
__unwindfunclet$??0ioChargingFireSkill4@@QAE@ABV0@@Z$6:
  00050	8b 4d f0	 mov	 ecx, DWORD PTR _this$[ebp]
  00053	81 c1 48 10 00
	00		 add	 ecx, 4168		; 00001048H
  00059	ff 25 00 00 00
	00		 jmp	 DWORD PTR __imp_??1ioHashString@@QAE@XZ
__unwindfunclet$??0ioChargingFireSkill4@@QAE@ABV0@@Z$7:
  0005f	8b 4d f0	 mov	 ecx, DWORD PTR _this$[ebp]
  00062	81 c1 5c 10 00
	00		 add	 ecx, 4188		; 0000105cH
  00068	e9 00 00 00 00	 jmp	 ??1?$CEncrypt@K@@UAE@XZ	; CEncrypt<unsigned long>::~CEncrypt<unsigned long>
__unwindfunclet$??0ioChargingFireSkill4@@QAE@ABV0@@Z$8:
  0006d	8b 4d f0	 mov	 ecx, DWORD PTR _this$[ebp]
  00070	81 c1 8c 10 00
	00		 add	 ecx, 4236		; 0000108cH
  00076	e9 00 00 00 00	 jmp	 ??1?$CEncrypt@M@@UAE@XZ	; CEncrypt<float>::~CEncrypt<float>
__unwindfunclet$??0ioChargingFireSkill4@@QAE@ABV0@@Z$9:
  0007b	8b 4d f0	 mov	 ecx, DWORD PTR _this$[ebp]
  0007e	81 c1 bc 10 00
	00		 add	 ecx, 4284		; 000010bcH
  00084	e9 00 00 00 00	 jmp	 ??1?$CEncrypt@M@@UAE@XZ	; CEncrypt<float>::~CEncrypt<float>
__unwindfunclet$??0ioChargingFireSkill4@@QAE@ABV0@@Z$10:
  00089	8b 4d f0	 mov	 ecx, DWORD PTR _this$[ebp]
  0008c	81 c1 ec 10 00
	00		 add	 ecx, 4332		; 000010ecH
  00092	e9 00 00 00 00	 jmp	 ??1?$CEncrypt@M@@UAE@XZ	; CEncrypt<float>::~CEncrypt<float>
__unwindfunclet$??0ioChargingFireSkill4@@QAE@ABV0@@Z$11:
  00097	8b 4d f0	 mov	 ecx, DWORD PTR _this$[ebp]
  0009a	81 c1 1c 11 00
	00		 add	 ecx, 4380		; 0000111cH
  000a0	e9 00 00 00 00	 jmp	 ??1?$CEncrypt@M@@UAE@XZ	; CEncrypt<float>::~CEncrypt<float>
__unwindfunclet$??0ioChargingFireSkill4@@QAE@ABV0@@Z$12:
  000a5	8b 4d f0	 mov	 ecx, DWORD PTR _this$[ebp]
  000a8	81 c1 4c 11 00
	00		 add	 ecx, 4428		; 0000114cH
  000ae	ff 25 00 00 00
	00		 jmp	 DWORD PTR __imp_??1ioHashString@@QAE@XZ
__unwindfunclet$??0ioChargingFireSkill4@@QAE@ABV0@@Z$13:
  000b4	8b 4d f0	 mov	 ecx, DWORD PTR _this$[ebp]
  000b7	81 c1 5c 11 00
	00		 add	 ecx, 4444		; 0000115cH
  000bd	ff 25 00 00 00
	00		 jmp	 DWORD PTR __imp_??1ioHashString@@QAE@XZ
__unwindfunclet$??0ioChargingFireSkill4@@QAE@ABV0@@Z$14:
  000c3	8b 4d f0	 mov	 ecx, DWORD PTR _this$[ebp]
  000c6	81 c1 6c 11 00
	00		 add	 ecx, 4460		; 0000116cH
  000cc	ff 25 00 00 00
	00		 jmp	 DWORD PTR __imp_??1ioHashString@@QAE@XZ
__unwindfunclet$??0ioChargingFireSkill4@@QAE@ABV0@@Z$15:
  000d2	8b 4d f0	 mov	 ecx, DWORD PTR _this$[ebp]
  000d5	81 c1 7c 11 00
	00		 add	 ecx, 4476		; 0000117cH
  000db	ff 25 00 00 00
	00		 jmp	 DWORD PTR __imp_??1ioHashString@@QAE@XZ
__unwindfunclet$??0ioChargingFireSkill4@@QAE@ABV0@@Z$16:
  000e1	8b 4d f0	 mov	 ecx, DWORD PTR _this$[ebp]
  000e4	81 c1 b4 11 00
	00		 add	 ecx, 4532		; 000011b4H
  000ea	ff 25 00 00 00
	00		 jmp	 DWORD PTR __imp_??1ioHashString@@QAE@XZ
__unwindfunclet$??0ioChargingFireSkill4@@QAE@ABV0@@Z$17:
  000f0	8b 4d f0	 mov	 ecx, DWORD PTR _this$[ebp]
  000f3	81 c1 c8 11 00
	00		 add	 ecx, 4552		; 000011c8H
  000f9	ff 25 00 00 00
	00		 jmp	 DWORD PTR __imp_??1ioHashString@@QAE@XZ
__unwindfunclet$??0ioChargingFireSkill4@@QAE@ABV0@@Z$18:
  000ff	8b 4d f0	 mov	 ecx, DWORD PTR _this$[ebp]
  00102	81 c1 d8 11 00
	00		 add	 ecx, 4568		; 000011d8H
  00108	ff 25 00 00 00
	00		 jmp	 DWORD PTR __imp_??1ioHashString@@QAE@XZ
__ehhandler$??0ioChargingFireSkill4@@QAE@ABV0@@Z:
  0010e	8b 54 24 08	 mov	 edx, DWORD PTR [esp+8]
  00112	8d 42 0c	 lea	 eax, DWORD PTR [edx+12]
  00115	8b 4a ec	 mov	 ecx, DWORD PTR [edx-20]
  00118	33 c8		 xor	 ecx, eax
  0011a	e8 00 00 00 00	 call	 @__security_check_cookie@4
  0011f	b8 00 00 00 00	 mov	 eax, OFFSET __ehfuncinfo$??0ioChargingFireSkill4@@QAE@ABV0@@Z
  00124	e9 00 00 00 00	 jmp	 ___CxxFrameHandler3
text$x	ENDS
??0ioChargingFireSkill4@@QAE@ABV0@@Z ENDP		; ioChargingFireSkill4::ioChargingFireSkill4
PUBLIC	??1ioChargingFireSkill4@@UAE@XZ			; ioChargingFireSkill4::~ioChargingFireSkill4
;	COMDAT xdata$x
; File d:\lost saga for developer\youtube\tutorial\source\src\lsclient\encryptvalue.h
xdata$x	SEGMENT
__ehfuncinfo$??1ioChargingFireSkill4@@UAE@XZ DD 019930522H
	DD	012H
	DD	FLAT:__unwindtable$??1ioChargingFireSkill4@@UAE@XZ
	DD	2 DUP(00H)
	DD	2 DUP(00H)
	DD	00H
	DD	01H
__unwindtable$??1ioChargingFireSkill4@@UAE@XZ DD 0ffffffffH
	DD	FLAT:__unwindfunclet$??1ioChargingFireSkill4@@UAE@XZ$0
	DD	00H
	DD	FLAT:__unwindfunclet$??1ioChargingFireSkill4@@UAE@XZ$1
	DD	01H
	DD	FLAT:__unwindfunclet$??1ioChargingFireSkill4@@UAE@XZ$2
	DD	02H
	DD	FLAT:__unwindfunclet$??1ioChargingFireSkill4@@UAE@XZ$3
	DD	03H
	DD	FLAT:__unwindfunclet$??1ioChargingFireSkill4@@UAE@XZ$4
	DD	04H
	DD	FLAT:__unwindfunclet$??1ioChargingFireSkill4@@UAE@XZ$5
	DD	05H
	DD	FLAT:__unwindfunclet$??1ioChargingFireSkill4@@UAE@XZ$6
	DD	06H
	DD	FLAT:__unwindfunclet$??1ioChargingFireSkill4@@UAE@XZ$7
	DD	07H
	DD	FLAT:__unwindfunclet$??1ioChargingFireSkill4@@UAE@XZ$8
	DD	08H
	DD	FLAT:__unwindfunclet$??1ioChargingFireSkill4@@UAE@XZ$9
	DD	09H
	DD	FLAT:__unwindfunclet$??1ioChargingFireSkill4@@UAE@XZ$10
	DD	0aH
	DD	FLAT:__unwindfunclet$??1ioChargingFireSkill4@@UAE@XZ$11
	DD	0bH
	DD	FLAT:__unwindfunclet$??1ioChargingFireSkill4@@UAE@XZ$12
	DD	0cH
	DD	FLAT:__unwindfunclet$??1ioChargingFireSkill4@@UAE@XZ$13
	DD	0dH
	DD	FLAT:__unwindfunclet$??1ioChargingFireSkill4@@UAE@XZ$14
	DD	0eH
	DD	FLAT:__unwindfunclet$??1ioChargingFireSkill4@@UAE@XZ$15
	DD	0fH
	DD	FLAT:__unwindfunclet$??1ioChargingFireSkill4@@UAE@XZ$16
	DD	010H
	DD	FLAT:__unwindfunclet$??1ioChargingFireSkill4@@UAE@XZ$17
; Function compile flags: /Ogsp
; File d:\lost saga for developer\youtube\tutorial\source\src\lsclient\iochargingfireskill4.cpp
xdata$x	ENDS
;	COMDAT ??1ioChargingFireSkill4@@UAE@XZ
_TEXT	SEGMENT
_this$ = -16						; size = 4
__$EHRec$ = -12						; size = 12
??1ioChargingFireSkill4@@UAE@XZ PROC			; ioChargingFireSkill4::~ioChargingFireSkill4, COMDAT
; _this$ = ecx

; 86   : {

  00000	6a 04		 push	 4
  00002	b8 00 00 00 00	 mov	 eax, __ehhandler$??1ioChargingFireSkill4@@UAE@XZ
  00007	e8 00 00 00 00	 call	 __EH_prolog3
  0000c	8b f1		 mov	 esi, ecx
  0000e	89 75 f0	 mov	 DWORD PTR _this$[ebp], esi
  00011	c7 06 00 00 00
	00		 mov	 DWORD PTR [esi], OFFSET ??_7ioChargingFireSkill4@@6B@

; 87   : }

  00017	8b 3d 00 00 00
	00		 mov	 edi, DWORD PTR __imp_??1ioHashString@@QAE@XZ
  0001d	8d 8e d8 11 00
	00		 lea	 ecx, DWORD PTR [esi+4568]
  00023	c7 45 fc 11 00
	00 00		 mov	 DWORD PTR __$EHRec$[ebp+8], 17 ; 00000011H
  0002a	ff d7		 call	 edi
  0002c	8d 8e c8 11 00
	00		 lea	 ecx, DWORD PTR [esi+4552]
  00032	c6 45 fc 10	 mov	 BYTE PTR __$EHRec$[ebp+8], 16 ; 00000010H
  00036	ff d7		 call	 edi
  00038	8d 8e b4 11 00
	00		 lea	 ecx, DWORD PTR [esi+4532]
  0003e	c6 45 fc 0f	 mov	 BYTE PTR __$EHRec$[ebp+8], 15 ; 0000000fH
  00042	ff d7		 call	 edi
  00044	8d 8e 7c 11 00
	00		 lea	 ecx, DWORD PTR [esi+4476]
  0004a	c6 45 fc 0e	 mov	 BYTE PTR __$EHRec$[ebp+8], 14 ; 0000000eH
  0004e	ff d7		 call	 edi
  00050	8d 8e 6c 11 00
	00		 lea	 ecx, DWORD PTR [esi+4460]
  00056	c6 45 fc 0d	 mov	 BYTE PTR __$EHRec$[ebp+8], 13 ; 0000000dH
  0005a	ff d7		 call	 edi
  0005c	8d 8e 5c 11 00
	00		 lea	 ecx, DWORD PTR [esi+4444]
  00062	c6 45 fc 0c	 mov	 BYTE PTR __$EHRec$[ebp+8], 12 ; 0000000cH
  00066	ff d7		 call	 edi
  00068	8d 8e 4c 11 00
	00		 lea	 ecx, DWORD PTR [esi+4428]
  0006e	c6 45 fc 0b	 mov	 BYTE PTR __$EHRec$[ebp+8], 11 ; 0000000bH
  00072	ff d7		 call	 edi
  00074	bb 00 00 00 00	 mov	 ebx, OFFSET ??_7?$CEncrypt@M@@6B@
  00079	8d 8e 28 11 00
	00		 lea	 ecx, DWORD PTR [esi+4392]
  0007f	c6 45 fc 0a	 mov	 BYTE PTR __$EHRec$[ebp+8], 10 ; 0000000aH
  00083	89 9e 1c 11 00
	00		 mov	 DWORD PTR [esi+4380], ebx
  00089	e8 00 00 00 00	 call	 ??1ccddaabb@@UAE@XZ	; ccddaabb::~ccddaabb
  0008e	8d 8e f8 10 00
	00		 lea	 ecx, DWORD PTR [esi+4344]
  00094	c6 45 fc 09	 mov	 BYTE PTR __$EHRec$[ebp+8], 9
  00098	89 9e ec 10 00
	00		 mov	 DWORD PTR [esi+4332], ebx
  0009e	e8 00 00 00 00	 call	 ??1ccddaabb@@UAE@XZ	; ccddaabb::~ccddaabb
  000a3	8d 8e c8 10 00
	00		 lea	 ecx, DWORD PTR [esi+4296]
  000a9	c6 45 fc 08	 mov	 BYTE PTR __$EHRec$[ebp+8], 8
  000ad	89 9e bc 10 00
	00		 mov	 DWORD PTR [esi+4284], ebx
  000b3	e8 00 00 00 00	 call	 ??1ccddaabb@@UAE@XZ	; ccddaabb::~ccddaabb
  000b8	8d 8e 98 10 00
	00		 lea	 ecx, DWORD PTR [esi+4248]
  000be	c6 45 fc 07	 mov	 BYTE PTR __$EHRec$[ebp+8], 7
  000c2	89 9e 8c 10 00
	00		 mov	 DWORD PTR [esi+4236], ebx
  000c8	e8 00 00 00 00	 call	 ??1ccddaabb@@UAE@XZ	; ccddaabb::~ccddaabb
  000cd	8d 8e 68 10 00
	00		 lea	 ecx, DWORD PTR [esi+4200]
  000d3	c6 45 fc 06	 mov	 BYTE PTR __$EHRec$[ebp+8], 6
  000d7	c7 86 5c 10 00
	00 00 00 00 00	 mov	 DWORD PTR [esi+4188], OFFSET ??_7?$CEncrypt@K@@6B@
  000e1	e8 00 00 00 00	 call	 ??1ccddaabb@@UAE@XZ	; ccddaabb::~ccddaabb
  000e6	8d 8e 48 10 00
	00		 lea	 ecx, DWORD PTR [esi+4168]
  000ec	c6 45 fc 05	 mov	 BYTE PTR __$EHRec$[ebp+8], 5
  000f0	ff d7		 call	 edi
  000f2	8d 8e 1c 10 00
	00		 lea	 ecx, DWORD PTR [esi+4124]
  000f8	c6 45 fc 04	 mov	 BYTE PTR __$EHRec$[ebp+8], 4
  000fc	c7 86 10 10 00
	00 00 00 00 00	 mov	 DWORD PTR [esi+4112], OFFSET ??_7?$CEncrypt@_N@@6B@
  00106	e8 00 00 00 00	 call	 ??1ccddaabb@@UAE@XZ	; ccddaabb::~ccddaabb
  0010b	8d 8e fc 0f 00
	00		 lea	 ecx, DWORD PTR [esi+4092]
  00111	c6 45 fc 03	 mov	 BYTE PTR __$EHRec$[ebp+8], 3
  00115	ff d7		 call	 edi
  00117	8d 8e dc 0f 00
	00		 lea	 ecx, DWORD PTR [esi+4060]
  0011d	c6 45 fc 02	 mov	 BYTE PTR __$EHRec$[ebp+8], 2
  00121	ff d7		 call	 edi
  00123	8d 8e 8c 0f 00
	00		 lea	 ecx, DWORD PTR [esi+3980]
  00129	c6 45 fc 01	 mov	 BYTE PTR __$EHRec$[ebp+8], 1
  0012d	e8 00 00 00 00	 call	 ??1AttackAttribute@@QAE@XZ
  00132	c6 45 fc 00	 mov	 BYTE PTR __$EHRec$[ebp+8], 0
  00136	c7 86 58 0f 00
	00 00 00 00 00	 mov	 DWORD PTR [esi+3928], OFFSET ??_7?$CEncrypt@H@@6B@
  00140	8d 8e 64 0f 00
	00		 lea	 ecx, DWORD PTR [esi+3940]
  00146	e8 00 00 00 00	 call	 ??1ccddaabb@@UAE@XZ	; ccddaabb::~ccddaabb
  0014b	83 4d fc ff	 or	 DWORD PTR __$EHRec$[ebp+8], -1
  0014f	8b ce		 mov	 ecx, esi
  00151	e8 00 00 00 00	 call	 ??1ioNormalSkill@@UAE@XZ ; ioNormalSkill::~ioNormalSkill
  00156	e8 00 00 00 00	 call	 __EH_epilog3
  0015b	c3		 ret	 0
_TEXT	ENDS
;	COMDAT text$x
text$x	SEGMENT
__unwindfunclet$??1ioChargingFireSkill4@@UAE@XZ$0:
  00000	8b 4d f0	 mov	 ecx, DWORD PTR _this$[ebp]
  00003	e9 00 00 00 00	 jmp	 ??1ioNormalSkill@@UAE@XZ ; ioNormalSkill::~ioNormalSkill
__unwindfunclet$??1ioChargingFireSkill4@@UAE@XZ$1:
  00008	8b 4d f0	 mov	 ecx, DWORD PTR _this$[ebp]
  0000b	81 c1 58 0f 00
	00		 add	 ecx, 3928		; 00000f58H
  00011	e9 00 00 00 00	 jmp	 ??1?$CEncrypt@H@@UAE@XZ	; CEncrypt<int>::~CEncrypt<int>
__unwindfunclet$??1ioChargingFireSkill4@@UAE@XZ$2:
  00016	8b 4d f0	 mov	 ecx, DWORD PTR _this$[ebp]
  00019	81 c1 8c 0f 00
	00		 add	 ecx, 3980		; 00000f8cH
  0001f	e9 00 00 00 00	 jmp	 ??1AttackAttribute@@QAE@XZ
__unwindfunclet$??1ioChargingFireSkill4@@UAE@XZ$3:
  00024	8b 4d f0	 mov	 ecx, DWORD PTR _this$[ebp]
  00027	81 c1 dc 0f 00
	00		 add	 ecx, 4060		; 00000fdcH
  0002d	ff 25 00 00 00
	00		 jmp	 DWORD PTR __imp_??1ioHashString@@QAE@XZ
__unwindfunclet$??1ioChargingFireSkill4@@UAE@XZ$4:
  00033	8b 4d f0	 mov	 ecx, DWORD PTR _this$[ebp]
  00036	81 c1 fc 0f 00
	00		 add	 ecx, 4092		; 00000ffcH
  0003c	ff 25 00 00 00
	00		 jmp	 DWORD PTR __imp_??1ioHashString@@QAE@XZ
__unwindfunclet$??1ioChargingFireSkill4@@UAE@XZ$5:
  00042	8b 4d f0	 mov	 ecx, DWORD PTR _this$[ebp]
  00045	81 c1 10 10 00
	00		 add	 ecx, 4112		; 00001010H
  0004b	e9 00 00 00 00	 jmp	 ??1?$CEncrypt@_N@@UAE@XZ ; CEncrypt<bool>::~CEncrypt<bool>
__unwindfunclet$??1ioChargingFireSkill4@@UAE@XZ$6:
  00050	8b 4d f0	 mov	 ecx, DWORD PTR _this$[ebp]
  00053	81 c1 48 10 00
	00		 add	 ecx, 4168		; 00001048H
  00059	ff 25 00 00 00
	00		 jmp	 DWORD PTR __imp_??1ioHashString@@QAE@XZ
__unwindfunclet$??1ioChargingFireSkill4@@UAE@XZ$7:
  0005f	8b 4d f0	 mov	 ecx, DWORD PTR _this$[ebp]
  00062	81 c1 5c 10 00
	00		 add	 ecx, 4188		; 0000105cH
  00068	e9 00 00 00 00	 jmp	 ??1?$CEncrypt@K@@UAE@XZ	; CEncrypt<unsigned long>::~CEncrypt<unsigned long>
__unwindfunclet$??1ioChargingFireSkill4@@UAE@XZ$8:
  0006d	8b 4d f0	 mov	 ecx, DWORD PTR _this$[ebp]
  00070	81 c1 8c 10 00
	00		 add	 ecx, 4236		; 0000108cH
  00076	e9 00 00 00 00	 jmp	 ??1?$CEncrypt@M@@UAE@XZ	; CEncrypt<float>::~CEncrypt<float>
__unwindfunclet$??1ioChargingFireSkill4@@UAE@XZ$9:
  0007b	8b 4d f0	 mov	 ecx, DWORD PTR _this$[ebp]
  0007e	81 c1 bc 10 00
	00		 add	 ecx, 4284		; 000010bcH
  00084	e9 00 00 00 00	 jmp	 ??1?$CEncrypt@M@@UAE@XZ	; CEncrypt<float>::~CEncrypt<float>
__unwindfunclet$??1ioChargingFireSkill4@@UAE@XZ$10:
  00089	8b 4d f0	 mov	 ecx, DWORD PTR _this$[ebp]
  0008c	81 c1 ec 10 00
	00		 add	 ecx, 4332		; 000010ecH
  00092	e9 00 00 00 00	 jmp	 ??1?$CEncrypt@M@@UAE@XZ	; CEncrypt<float>::~CEncrypt<float>
__unwindfunclet$??1ioChargingFireSkill4@@UAE@XZ$11:
  00097	8b 4d f0	 mov	 ecx, DWORD PTR _this$[ebp]
  0009a	81 c1 1c 11 00
	00		 add	 ecx, 4380		; 0000111cH
  000a0	e9 00 00 00 00	 jmp	 ??1?$CEncrypt@M@@UAE@XZ	; CEncrypt<float>::~CEncrypt<float>
__unwindfunclet$??1ioChargingFireSkill4@@UAE@XZ$12:
  000a5	8b 4d f0	 mov	 ecx, DWORD PTR _this$[ebp]
  000a8	81 c1 4c 11 00
	00		 add	 ecx, 4428		; 0000114cH
  000ae	ff 25 00 00 00
	00		 jmp	 DWORD PTR __imp_??1ioHashString@@QAE@XZ
__unwindfunclet$??1ioChargingFireSkill4@@UAE@XZ$13:
  000b4	8b 4d f0	 mov	 ecx, DWORD PTR _this$[ebp]
  000b7	81 c1 5c 11 00
	00		 add	 ecx, 4444		; 0000115cH
  000bd	ff 25 00 00 00
	00		 jmp	 DWORD PTR __imp_??1ioHashString@@QAE@XZ
__unwindfunclet$??1ioChargingFireSkill4@@UAE@XZ$14:
  000c3	8b 4d f0	 mov	 ecx, DWORD PTR _this$[ebp]
  000c6	81 c1 6c 11 00
	00		 add	 ecx, 4460		; 0000116cH
  000cc	ff 25 00 00 00
	00		 jmp	 DWORD PTR __imp_??1ioHashString@@QAE@XZ
__unwindfunclet$??1ioChargingFireSkill4@@UAE@XZ$15:
  000d2	8b 4d f0	 mov	 ecx, DWORD PTR _this$[ebp]
  000d5	81 c1 7c 11 00
	00		 add	 ecx, 4476		; 0000117cH
  000db	ff 25 00 00 00
	00		 jmp	 DWORD PTR __imp_??1ioHashString@@QAE@XZ
__unwindfunclet$??1ioChargingFireSkill4@@UAE@XZ$16:
  000e1	8b 4d f0	 mov	 ecx, DWORD PTR _this$[ebp]
  000e4	81 c1 b4 11 00
	00		 add	 ecx, 4532		; 000011b4H
  000ea	ff 25 00 00 00
	00		 jmp	 DWORD PTR __imp_??1ioHashString@@QAE@XZ
__unwindfunclet$??1ioChargingFireSkill4@@UAE@XZ$17:
  000f0	8b 4d f0	 mov	 ecx, DWORD PTR _this$[ebp]
  000f3	81 c1 c8 11 00
	00		 add	 ecx, 4552		; 000011c8H
  000f9	ff 25 00 00 00
	00		 jmp	 DWORD PTR __imp_??1ioHashString@@QAE@XZ
__ehhandler$??1ioChargingFireSkill4@@UAE@XZ:
  000ff	8b 54 24 08	 mov	 edx, DWORD PTR [esp+8]
  00103	8d 42 0c	 lea	 eax, DWORD PTR [edx+12]
  00106	8b 4a ec	 mov	 ecx, DWORD PTR [edx-20]
  00109	33 c8		 xor	 ecx, eax
  0010b	e8 00 00 00 00	 call	 @__security_check_cookie@4
  00110	b8 00 00 00 00	 mov	 eax, OFFSET __ehfuncinfo$??1ioChargingFireSkill4@@UAE@XZ
  00115	e9 00 00 00 00	 jmp	 ___CxxFrameHandler3
text$x	ENDS
??1ioChargingFireSkill4@@UAE@XZ ENDP			; ioChargingFireSkill4::~ioChargingFireSkill4
;	COMDAT xdata$x
xdata$x	SEGMENT
__unwindtable$?Clone@ioChargingFireSkill4@@UAEPAVioSkill@@XZ DD 0ffffffffH
	DD	FLAT:__unwindfunclet$?Clone@ioChargingFireSkill4@@UAEPAVioSkill@@XZ$0
__ehfuncinfo$?Clone@ioChargingFireSkill4@@UAEPAVioSkill@@XZ DD 019930522H
	DD	01H
	DD	FLAT:__unwindtable$?Clone@ioChargingFireSkill4@@UAEPAVioSkill@@XZ
	DD	2 DUP(00H)
	DD	2 DUP(00H)
	DD	00H
	DD	01H
; Function compile flags: /Ogsp
xdata$x	ENDS
;	COMDAT ?Clone@ioChargingFireSkill4@@UAEPAVioSkill@@XZ
_TEXT	SEGMENT
$T560331 = -16						; size = 4
__$EHRec$ = -12						; size = 12
?Clone@ioChargingFireSkill4@@UAEPAVioSkill@@XZ PROC	; ioChargingFireSkill4::Clone, COMDAT
; _this$ = ecx

; 148  : {

  00000	6a 04		 push	 4
  00002	b8 00 00 00 00	 mov	 eax, __ehhandler$?Clone@ioChargingFireSkill4@@UAEPAVioSkill@@XZ
  00007	e8 00 00 00 00	 call	 __EH_prolog3
  0000c	8b f1		 mov	 esi, ecx

; 149  : 	return new ioChargingFireSkill4( *this );

  0000e	68 e8 11 00 00	 push	 4584			; 000011e8H
  00013	e8 00 00 00 00	 call	 ??2@YAPAXI@Z		; operator new
  00018	59		 pop	 ecx
  00019	8b c8		 mov	 ecx, eax
  0001b	89 4d f0	 mov	 DWORD PTR $T560331[ebp], ecx
  0001e	33 c0		 xor	 eax, eax
  00020	89 45 fc	 mov	 DWORD PTR __$EHRec$[ebp+8], eax
  00023	3b c8		 cmp	 ecx, eax
  00025	74 06		 je	 SHORT $LN3@Clone
  00027	56		 push	 esi
  00028	e8 00 00 00 00	 call	 ??0ioChargingFireSkill4@@QAE@ABV0@@Z ; ioChargingFireSkill4::ioChargingFireSkill4
$LN3@Clone:

; 150  : }

  0002d	e8 00 00 00 00	 call	 __EH_epilog3
  00032	c3		 ret	 0
_TEXT	ENDS
;	COMDAT text$x
text$x	SEGMENT
__unwindfunclet$?Clone@ioChargingFireSkill4@@UAEPAVioSkill@@XZ$0:
  00000	ff 75 f0	 push	 DWORD PTR $T560331[ebp]
  00003	e8 00 00 00 00	 call	 ??3@YAXPAX@Z		; operator delete
  00008	59		 pop	 ecx
  00009	c3		 ret	 0
__ehhandler$?Clone@ioChargingFireSkill4@@UAEPAVioSkill@@XZ:
  0000a	8b 54 24 08	 mov	 edx, DWORD PTR [esp+8]
  0000e	8d 42 0c	 lea	 eax, DWORD PTR [edx+12]
  00011	8b 4a ec	 mov	 ecx, DWORD PTR [edx-20]
  00014	33 c8		 xor	 ecx, eax
  00016	e8 00 00 00 00	 call	 @__security_check_cookie@4
  0001b	b8 00 00 00 00	 mov	 eax, OFFSET __ehfuncinfo$?Clone@ioChargingFireSkill4@@UAEPAVioSkill@@XZ
  00020	e9 00 00 00 00	 jmp	 ___CxxFrameHandler3
text$x	ENDS
?Clone@ioChargingFireSkill4@@UAEPAVioSkill@@XZ ENDP	; ioChargingFireSkill4::Clone
; Function compile flags: /Ogsp
;	COMDAT ??_GioChargingFireSkill4@@UAEPAXI@Z
_TEXT	SEGMENT
___flags$ = 8						; size = 4
??_GioChargingFireSkill4@@UAEPAXI@Z PROC		; ioChargingFireSkill4::`scalar deleting destructor', COMDAT
; _this$ = ecx
  00000	55		 push	 ebp
  00001	8b ec		 mov	 ebp, esp
  00003	56		 push	 esi
  00004	8b f1		 mov	 esi, ecx
  00006	e8 00 00 00 00	 call	 ??1ioChargingFireSkill4@@UAE@XZ ; ioChargingFireSkill4::~ioChargingFireSkill4
  0000b	f6 45 08 01	 test	 BYTE PTR ___flags$[ebp], 1
  0000f	74 07		 je	 SHORT $LN1@scalar@7
  00011	56		 push	 esi
  00012	e8 00 00 00 00	 call	 ??3@YAXPAX@Z		; operator delete
  00017	59		 pop	 ecx
$LN1@scalar@7:
  00018	8b c6		 mov	 eax, esi
  0001a	5e		 pop	 esi
  0001b	5d		 pop	 ebp
  0001c	c2 04 00	 ret	 4
??_GioChargingFireSkill4@@UAEPAXI@Z ENDP		; ioChargingFireSkill4::`scalar deleting destructor'
_TEXT	ENDS
END
